; Listing generated by Microsoft (R) Optimizing Compiler Version 19.29.30145.0 

	TITLE	D:\git\src\IBK\IBK_DRFN\#DRfn-CS\_Obj\ViewDraw\IMetaTable.obj
	.686P
	.XMM
	include listing.inc
	.model	flat

INCLUDELIB MSVCRT
INCLUDELIB OLDNAMES

PUBLIC	?m_eToolOptions@IMetaTable@@2PAW4E_METACODE@1@A	; IMetaTable::m_eToolOptions
PUBLIC	?m_nToolOptionCount@IMetaTable@@2HA		; IMetaTable::m_nToolOptionCount
_DATA	SEGMENT
?m_eToolOptions@IMetaTable@@2PAW4E_METACODE@1@A DD 0190H ; IMetaTable::m_eToolOptions
	DD	0191H
	DD	0192H
	DD	0193H
	DD	0194H
	DD	0195H
	DD	0196H
	DD	0197H
	DD	0198H
	DD	0199H
	DD	019aH
	DD	019bH
	DD	019cH
	DD	019dH
	DD	019eH
	DD	019fH
	DD	01a0H
	DD	01a1H
	DD	01a2H
	DD	01a3H
	DD	01a4H
	DD	01a5H
	DD	01a6H
	DD	01a7H
	DD	01a8H
	DD	01a9H
	DD	01aaH
	DD	01abH
	DD	01acH
	DD	01adH
	DD	01aeH
	DD	01afH
	DD	01b0H
	DD	01b1H
	DD	01b2H
	DD	01b3H
	DD	01b4H
	DD	01b5H
	DD	01b6H
	DD	01b7H
	DD	01b8H
	DD	01b9H
	DD	01baH
	DD	01bbH
	DD	01bcH
	DD	01bdH
	DD	01beH
	DD	01bfH
	DD	01c0H
	DD	01c1H
	DD	01c2H
	DD	01c3H
	DD	01c4H
	DD	01c5H
	DD	01c6H
	DD	01c7H
	DD	01c8H
	DD	01c9H
	DD	01caH
	DD	01cbH
	DD	01ccH
	DD	01cdH
	DD	01ceH
	DD	01cfH
	DD	01d0H
	DD	01d1H
	DD	01d2H
	DD	01d3H
	DD	01d4H
	DD	01d5H
	DD	01d6H
	DD	01d7H
	DD	01d8H
	DD	01d9H
	DD	01daH
	DD	01dbH
	DD	01dcH
	DD	01ddH
	DD	01deH
	DD	01dfH
	DD	01e0H
	DD	01e1H
	DD	01e2H
	DD	01e3H
	DD	01e4H
	DD	01e5H
	DD	01e6H
	DD	01e7H
	DD	01e8H
	DD	01e9H
	DD	01eaH
	DD	01ebH
	DD	01ecH
	DD	01edH
	DD	01eeH
	DD	01efH
	DD	01f0H
	DD	01f1H
	DD	01f2H
	DD	01f3H
	DD	0384H
	DD	0385H
	DD	0386H
	DD	0387H
	DD	0388H
	DD	0389H
	DD	038aH
	DD	038bH
	DD	038cH
	DD	038dH
	DD	038eH
	DD	038fH
	DD	0390H
	DD	0391H
	DD	0392H
	DD	0393H
	DD	03b0H
	DD	03b1H
	DD	03b2H
?m_nToolOptionCount@IMetaTable@@2HA DD 077H		; IMetaTable::m_nToolOptionCount
_DATA	ENDS
PUBLIC	?__empty_global_delete@@YAXPAX@Z		; __empty_global_delete
PUBLIC	?__empty_global_delete@@YAXPAXI@Z		; __empty_global_delete
PUBLIC	?Serialize@CObject@@UAEXAAVCArchive@@@Z		; CObject::Serialize
PUBLIC	?AssertValid@CObject@@UBEXXZ			; CObject::AssertValid
PUBLIC	?Dump@CObject@@UBEXAAVCDumpContext@@@Z		; CObject::Dump
PUBLIC	?SetDllName@PDLL@@QAE_NPBD@Z			; PDLL::SetDllName
PUBLIC	?Initialize@PDLL@@UAE_NF@Z			; PDLL::Initialize
PUBLIC	?Uninitialize@PDLL@@UAEXXZ			; PDLL::Uninitialize
PUBLIC	??0IMetaTable@@QAE@XZ				; IMetaTable::IMetaTable
PUBLIC	??1IMetaTable@@UAE@XZ				; IMetaTable::~IMetaTable
PUBLIC	?LoadMetaTable@IMetaTable@@QAEXXZ		; IMetaTable::LoadMetaTable
PUBLIC	?GetIndicatorName@IMetaTable@@QAEPBDH@Z		; IMetaTable::GetIndicatorName
PUBLIC	?GetMetaText@IMetaTable@@QAEPBDPAUHWND__@@W4E_CODEPAGE@1@PBDH@Z ; IMetaTable::GetMetaText
PUBLIC	?GetLanguageText@IMetaTable@@QAEPBDPAUHWND__@@W4E_CODEPAGE@1@PBDH@Z ; IMetaTable::GetLanguageText
PUBLIC	?GetMetaTextFromOther@IMetaTable@@QAEPBDPAUHWND__@@W4E_CODEPAGE@1@PBDH@Z ; IMetaTable::GetMetaTextFromOther
PUBLIC	?GetMetaTextForScript@IMetaTable@@QAEPBDPAUHWND__@@W4E_CODEPAGE@1@PBDH@Z ; IMetaTable::GetMetaTextForScript
PUBLIC	?GetMetaTextDirectly@IMetaTable@@QAEPBDW4E_CODEPAGE@1@W4E_LANGUAGEID@1@PBD@Z ; IMetaTable::GetMetaTextDirectly
PUBLIC	?GetLanguageTextDirectly@IMetaTable@@QAEPBDW4E_CODEPAGE@1@W4E_LANGUAGEID@1@PBD@Z ; IMetaTable::GetLanguageTextDirectly
PUBLIC	?GetMultipleMetaText@IMetaTable@@QAE?AV?$CStringT@DV?$StrTraitMFC_DLL@DV?$ChTraitsCRT@D@ATL@@@@@ATL@@PAUHWND__@@V23@1HH@Z ; IMetaTable::GetMultipleMetaText
PUBLIC	?GetMultipleLanguageText@IMetaTable@@QAE?AV?$CStringT@DV?$StrTraitMFC_DLL@DV?$ChTraitsCRT@D@ATL@@@@@ATL@@PAUHWND__@@V23@1HH@Z ; IMetaTable::GetMultipleLanguageText
PUBLIC	?GetMultipleMetaTextFromOther@IMetaTable@@QAE?AV?$CStringT@DV?$StrTraitMFC_DLL@DV?$ChTraitsCRT@D@ATL@@@@@ATL@@PAUHWND__@@V23@1HH@Z ; IMetaTable::GetMultipleMetaTextFromOther
PUBLIC	?GetMultipleMetaTextForScript@IMetaTable@@QAE?AV?$CStringT@DV?$StrTraitMFC_DLL@DV?$ChTraitsCRT@D@ATL@@@@@ATL@@PAUHWND__@@V23@1HH@Z ; IMetaTable::GetMultipleMetaTextForScript
PUBLIC	?GetIndicatorID@IMetaTable@@QAEHPBD@Z		; IMetaTable::GetIndicatorID
PUBLIC	?IsScaleGroup_Price@IMetaTable@@QAE_NABV?$CStringT@DV?$StrTraitMFC_DLL@DV?$ChTraitsCRT@D@ATL@@@@@ATL@@@Z ; IMetaTable::IsScaleGroup_Price
PUBLIC	?IsScaleGroup_PriceNoVertScale@IMetaTable@@QAE_NABV?$CStringT@DV?$StrTraitMFC_DLL@DV?$ChTraitsCRT@D@ATL@@@@@ATL@@@Z ; IMetaTable::IsScaleGroup_PriceNoVertScale
PUBLIC	?IsScaleGroup_Volume@IMetaTable@@QAE_NABV?$CStringT@DV?$StrTraitMFC_DLL@DV?$ChTraitsCRT@D@ATL@@@@@ATL@@@Z ; IMetaTable::IsScaleGroup_Volume
PUBLIC	?IsViewVertMinMax_EndPacket@IMetaTable@@QAE_NABV?$CStringT@DV?$StrTraitMFC_DLL@DV?$ChTraitsCRT@D@ATL@@@@@ATL@@@Z ; IMetaTable::IsViewVertMinMax_EndPacket
PUBLIC	?IsScaleGroup_InverseLine@IMetaTable@@QAE_NABV?$CStringT@DV?$StrTraitMFC_DLL@DV?$ChTraitsCRT@D@ATL@@@@@ATL@@@Z ; IMetaTable::IsScaleGroup_InverseLine
PUBLIC	?IsDrawGroup_PAndF@IMetaTable@@QAE_NABV?$CStringT@DV?$StrTraitMFC_DLL@DV?$ChTraitsCRT@D@ATL@@@@@ATL@@@Z ; IMetaTable::IsDrawGroup_PAndF
PUBLIC	?IsScaleGroup_PlusPercent@IMetaTable@@QAE_NABV?$CStringT@DV?$StrTraitMFC_DLL@DV?$ChTraitsCRT@D@ATL@@@@@ATL@@@Z ; IMetaTable::IsScaleGroup_PlusPercent
PUBLIC	?IsScaleGroup_MinusPercent@IMetaTable@@QAE_NABV?$CStringT@DV?$StrTraitMFC_DLL@DV?$ChTraitsCRT@D@ATL@@@@@ATL@@@Z ; IMetaTable::IsScaleGroup_MinusPercent
PUBLIC	?IsConditionTitle@IMetaTable@@QAE_NABV?$CStringT@DV?$StrTraitMFC_DLL@DV?$ChTraitsCRT@D@ATL@@@@@ATL@@@Z ; IMetaTable::IsConditionTitle
PUBLIC	?IsDataTitle@IMetaTable@@QAE_NABV?$CStringT@DV?$StrTraitMFC_DLL@DV?$ChTraitsCRT@D@ATL@@@@@ATL@@@Z ; IMetaTable::IsDataTitle
PUBLIC	?IsTitleOnlyCondition@IMetaTable@@QAE_NABV?$CStringT@DV?$StrTraitMFC_DLL@DV?$ChTraitsCRT@D@ATL@@@@@ATL@@@Z ; IMetaTable::IsTitleOnlyCondition
PUBLIC	?IsTitleOrCondition@IMetaTable@@QAE_NABV?$CStringT@DV?$StrTraitMFC_DLL@DV?$ChTraitsCRT@D@ATL@@@@@ATL@@@Z ; IMetaTable::IsTitleOrCondition
PUBLIC	?IsTitleAndCondition@IMetaTable@@QAE_NABV?$CStringT@DV?$StrTraitMFC_DLL@DV?$ChTraitsCRT@D@ATL@@@@@ATL@@@Z ; IMetaTable::IsTitleAndCondition
PUBLIC	?IsNoXScale_SpecialGroup@IMetaTable@@QAE_NABV?$CStringT@DV?$StrTraitMFC_DLL@DV?$ChTraitsCRT@D@ATL@@@@@ATL@@@Z ; IMetaTable::IsNoXScale_SpecialGroup
PUBLIC	?IsTitleIncludeCondition@IMetaTable@@QAE_NABV?$CStringT@DV?$StrTraitMFC_DLL@DV?$ChTraitsCRT@D@ATL@@@@@ATL@@@Z ; IMetaTable::IsTitleIncludeCondition
PUBLIC	?IsDrawGroup_VolumeType@IMetaTable@@QAE_NABV?$CStringT@DV?$StrTraitMFC_DLL@DV?$ChTraitsCRT@D@ATL@@@@@ATL@@@Z ; IMetaTable::IsDrawGroup_VolumeType
PUBLIC	?IsSpecialGroupGraph@IMetaTable@@QAE_NPBD@Z	; IMetaTable::IsSpecialGroupGraph
PUBLIC	?IsNoneZoomChart@IMetaTable@@QAE_NPBD@Z		; IMetaTable::IsNoneZoomChart
PUBLIC	?IsSTIndexIndicator@IMetaTable@@QAEHH@Z		; IMetaTable::IsSTIndexIndicator
PUBLIC	?IsChartType@IMetaTable@@QAEHPBD@Z		; IMetaTable::IsChartType
PUBLIC	?IsPriceChartType@IMetaTable@@QAEHPBD@Z		; IMetaTable::IsPriceChartType
PUBLIC	?IsVolumeForSale@IMetaTable@@QAEHABV?$CStringT@DV?$StrTraitMFC_DLL@DV?$ChTraitsCRT@D@ATL@@@@@ATL@@@Z ; IMetaTable::IsVolumeForSale
PUBLIC	?CanNotMultipleAddedOnMultipleSameNameIndicator@IMetaTable@@QAEHPBD@Z ; IMetaTable::CanNotMultipleAddedOnMultipleSameNameIndicator
PUBLIC	?IsMarketOrServerIndex@IMetaTable@@QAEHPBD@Z	; IMetaTable::IsMarketOrServerIndex
PUBLIC	?IsIndexNeedVolume@IMetaTable@@QAEHPBD@Z	; IMetaTable::IsIndexNeedVolume
PUBLIC	?IsIndicatorInThisMode@IMetaTable@@QAEHPBDW4CHART_MODE@CChartInfo@@@Z ; IMetaTable::IsIndicatorInThisMode
PUBLIC	?IsSpecialTime@IMetaTable@@QAEHH@Z		; IMetaTable::IsSpecialTime
PUBLIC	??_GIMetaTable@@UAEPAXI@Z			; IMetaTable::`scalar deleting destructor'
PUBLIC	?StringCLSIDFromProgID@CProgIDInfo@@SAJPBDAAV?$CStringT@DV?$StrTraitMFC_DLL@DV?$ChTraitsCRT@D@ATL@@@@@ATL@@@Z ; CProgIDInfo::StringCLSIDFromProgID
PUBLIC	?ComServerFromProgID@CProgIDInfo@@SAJPBDAAV?$CStringT@DV?$StrTraitMFC_DLL@DV?$ChTraitsCRT@D@ATL@@@@@ATL@@@Z ; CProgIDInfo::ComServerFromProgID
PUBLIC	??_GCMapStringToWord@@UAEPAXI@Z			; CMapStringToWord::`scalar deleting destructor'
PUBLIC	??_G?$CTypedPtrMap@VCMapPtrToPtr@@PAXPAX@@UAEPAXI@Z ; CTypedPtrMap<CMapPtrToPtr,void *,void *>::`scalar deleting destructor'
PUBLIC	??_C@_06JHNIBAJK@CLSID?2@			; `string'
PUBLIC	??_R0?AVCObject@@@8				; CObject `RTTI Type Descriptor'
PUBLIC	??_R3CObject@@8					; CObject::`RTTI Class Hierarchy Descriptor'
PUBLIC	??_R2CObject@@8					; CObject::`RTTI Base Class Array'
PUBLIC	??_R1A@?0A@EA@CObject@@8			; CObject::`RTTI Base Class Descriptor at (0,-1,0,64)'
PUBLIC	??_7PDLL@@6B@					; PDLL::`vftable'
PUBLIC	??_7IMetaTable@@6B@				; IMetaTable::`vftable'
PUBLIC	??_C@_0N@ENDBACBF@GetMetaTable@			; `string'
PUBLIC	??_C@_0BG@HIGEOJDD@GetIndicatorNameTable@	; `string'
PUBLIC	??_C@_0N@LAIJDPJP@GetMetaText_@			; `string'
PUBLIC	??_C@_0BB@NKBMALGK@GetLanguageText_@		; `string'
PUBLIC	??_C@_0BG@EMKKKIMB@GetMetaTextFromOther_@	; `string'
PUBLIC	??_C@_0BG@NDFMAEKK@GetMetaTextForScript_@	; `string'
PUBLIC	??_C@_0BF@MEHOHKJ@GetMetaTextDirectly_@		; `string'
PUBLIC	??_C@_0BJ@HJMJJENK@GetLanguageTextDirectly_@	; `string'
PUBLIC	??_C@_0P@FOFNMHJI@GetIndicatorID@		; `string'
PUBLIC	?g_iMetaTable@@3VIMetaTable@@A			; g_iMetaTable
PUBLIC	??_C@_0BA@CCGIMEPP@?2InprocServer32@		; `string'
PUBLIC	??_C@_0P@IKCDKIKH@?2LocalServer32@		; `string'
PUBLIC	??_7CMapStringToWord@@6B@			; CMapStringToWord::`vftable'
PUBLIC	??_C@_0BH@KGIICM@ChartLanguageTable?4dll@	; `string'
PUBLIC	??_C@_0BD@PNOKNCJO@ChartMetaTable?4dat@		; `string'
PUBLIC	??_C@_0O@OMPLGAKB@Prog?5ID?5Error@		; `string'
PUBLIC	??_C@_06FBGBHGJE@ProgID@			; `string'
PUBLIC	??_C@_0O@GDACOMFO@Chart?5Version@		; `string'
PUBLIC	??_C@_05NCIIGJNC@?2Dev?2@			; `string'
PUBLIC	??_C@_06EJBADOFI@?2Icss?2@			; `string'
PUBLIC	??_7?$CTypedPtrMap@VCMapPtrToPtr@@PAXPAX@@6B@	; CTypedPtrMap<CMapPtrToPtr,void *,void *>::`vftable'
PUBLIC	??_C@_06CJNILGFF@666666@			; `string'
PUBLIC	??_C@_06NJPGHLOH@777777@			; `string'
PUBLIC	??_C@_06IIBPGFKO@888888@			; `string'
PUBLIC	??_C@_06CHPDGAP@009991@				; `string'
PUBLIC	??_C@_06MKKGLMAH@009999@			; `string'
PUBLIC	??_C@_06JOBJNIAC@310000@			; `string'
PUBLIC	??_C@_06FLLOOGIM@410000@			; `string'
PUBLIC	??_C@_06GKFGPMBB@710000@			; `string'
PUBLIC	??_C@_06JMBOIMPI@810000@			; `string'
PUBLIC	??_C@_04KAPECDDI@8888@				; `string'
PUBLIC	??_C@_04DNPBDGJL@9999@				; `string'
PUBLIC	??_R4PDLL@@6B@					; PDLL::`RTTI Complete Object Locator'
PUBLIC	??_R0?AVPDLL@@@8				; PDLL `RTTI Type Descriptor'
PUBLIC	??_R3PDLL@@8					; PDLL::`RTTI Class Hierarchy Descriptor'
PUBLIC	??_R2PDLL@@8					; PDLL::`RTTI Base Class Array'
PUBLIC	??_R1A@?0A@EA@PDLL@@8				; PDLL::`RTTI Base Class Descriptor at (0,-1,0,64)'
PUBLIC	??_R4IMetaTable@@6B@				; IMetaTable::`RTTI Complete Object Locator'
PUBLIC	??_R0?AVIMetaTable@@@8				; IMetaTable `RTTI Type Descriptor'
PUBLIC	??_R3IMetaTable@@8				; IMetaTable::`RTTI Class Hierarchy Descriptor'
PUBLIC	??_R2IMetaTable@@8				; IMetaTable::`RTTI Base Class Array'
PUBLIC	??_R1A@?0A@EA@IMetaTable@@8			; IMetaTable::`RTTI Base Class Descriptor at (0,-1,0,64)'
PUBLIC	??_R4CMapStringToWord@@6B@			; CMapStringToWord::`RTTI Complete Object Locator'
PUBLIC	??_R0?AVCMapStringToWord@@@8			; CMapStringToWord `RTTI Type Descriptor'
PUBLIC	??_R3CMapStringToWord@@8			; CMapStringToWord::`RTTI Class Hierarchy Descriptor'
PUBLIC	??_R2CMapStringToWord@@8			; CMapStringToWord::`RTTI Base Class Array'
PUBLIC	??_R1A@?0A@EA@CMapStringToWord@@8		; CMapStringToWord::`RTTI Base Class Descriptor at (0,-1,0,64)'
PUBLIC	??_R1A@?0A@EA@CMapStringToPtr@@8		; CMapStringToPtr::`RTTI Base Class Descriptor at (0,-1,0,64)'
PUBLIC	??_R0?AVCMapStringToPtr@@@8			; CMapStringToPtr `RTTI Type Descriptor'
PUBLIC	??_R3CMapStringToPtr@@8				; CMapStringToPtr::`RTTI Class Hierarchy Descriptor'
PUBLIC	??_R2CMapStringToPtr@@8				; CMapStringToPtr::`RTTI Base Class Array'
PUBLIC	??_R4?$CTypedPtrMap@VCMapPtrToPtr@@PAXPAX@@6B@	; CTypedPtrMap<CMapPtrToPtr,void *,void *>::`RTTI Complete Object Locator'
PUBLIC	??_R0?AV?$CTypedPtrMap@VCMapPtrToPtr@@PAXPAX@@@8 ; CTypedPtrMap<CMapPtrToPtr,void *,void *> `RTTI Type Descriptor'
PUBLIC	??_R3?$CTypedPtrMap@VCMapPtrToPtr@@PAXPAX@@8	; CTypedPtrMap<CMapPtrToPtr,void *,void *>::`RTTI Class Hierarchy Descriptor'
PUBLIC	??_R2?$CTypedPtrMap@VCMapPtrToPtr@@PAXPAX@@8	; CTypedPtrMap<CMapPtrToPtr,void *,void *>::`RTTI Base Class Array'
PUBLIC	??_R1A@?0A@EA@?$CTypedPtrMap@VCMapPtrToPtr@@PAXPAX@@8 ; CTypedPtrMap<CMapPtrToPtr,void *,void *>::`RTTI Base Class Descriptor at (0,-1,0,64)'
PUBLIC	??_R1A@?0A@EA@CMapPtrToPtr@@8			; CMapPtrToPtr::`RTTI Base Class Descriptor at (0,-1,0,64)'
PUBLIC	??_R0?AVCMapPtrToPtr@@@8			; CMapPtrToPtr `RTTI Type Descriptor'
PUBLIC	??_R3CMapPtrToPtr@@8				; CMapPtrToPtr::`RTTI Class Hierarchy Descriptor'
PUBLIC	??_R2CMapPtrToPtr@@8				; CMapPtrToPtr::`RTTI Base Class Array'
EXTRN	??3@YAXPAX@Z:PROC				; operator delete
EXTRN	??3@YAXPAXI@Z:PROC				; operator delete
EXTRN	?__global_delete@@YAXPAXI@Z:PROC		; __global_delete
EXTRN	??_U@YAPAXI@Z:PROC				; operator new[]
EXTRN	??_V@YAXPAX@Z:PROC				; operator delete[]
EXTRN	_atexit:PROC
EXTRN	__Init_thread_header:PROC
EXTRN	__Init_thread_abort:PROC
EXTRN	__Init_thread_footer:PROC
EXTRN	___std_terminate:PROC
EXTRN	_strrchr:PROC
EXTRN	__imp__GetLongPathNameA@12:PROC
EXTRN	__imp__FreeLibrary@4:PROC
EXTRN	__imp__GetModuleFileNameA@12:PROC
EXTRN	__imp__GetModuleHandleA@4:PROC
EXTRN	__imp__GetProcAddress@8:PROC
EXTRN	__imp__LoadLibraryA@4:PROC
EXTRN	__imp__GetPrivateProfileStringA@24:PROC
EXTRN	__imp__MultiByteToWideChar@24:PROC
EXTRN	__imp__WideCharToMultiByte@32:PROC
EXTRN	__imp__RegCloseKey@4:PROC
EXTRN	__imp__RegOpenKeyExA@20:PROC
EXTRN	__imp__RegQueryValueExA@24:PROC
EXTRN	__imp__atoi:PROC
EXTRN	__imp__StringFromCLSID@8:PROC
EXTRN	__imp__CLSIDFromProgID@8:PROC
EXTRN	__imp__CoTaskMemFree@4:PROC
EXTRN	__imp_?GetBuffer@?$CSimpleStringT@D$00@ATL@@QAEPADH@Z:PROC
EXTRN	__imp_?GetBufferSetLength@?$CSimpleStringT@D$00@ATL@@QAEPADH@Z:PROC
EXTRN	__imp_?ReleaseBuffer@?$CSimpleStringT@D$00@ATL@@QAEXH@Z:PROC
EXTRN	__imp_?Concatenate@?$CSimpleStringT@D$00@ATL@@KAXAAV12@PBDH1H@Z:PROC
EXTRN	__imp_??0?$CStringT@DV?$StrTraitMFC_DLL@DV?$ChTraitsCRT@D@ATL@@@@@ATL@@QAE@XZ:PROC
EXTRN	__imp_??0?$CStringT@DV?$StrTraitMFC_DLL@DV?$ChTraitsCRT@D@ATL@@@@@ATL@@QAE@PAUIAtlStringMgr@1@@Z:PROC
EXTRN	__imp_??1?$CStringT@DV?$StrTraitMFC_DLL@DV?$ChTraitsCRT@D@ATL@@@@@ATL@@QAE@XZ:PROC
EXTRN	__imp_??4?$CStringT@DV?$StrTraitMFC_DLL@DV?$ChTraitsCRT@D@ATL@@@@@ATL@@QAEAAV01@ABV01@@Z:PROC
EXTRN	__imp_??4?$CStringT@DV?$StrTraitMFC_DLL@DV?$ChTraitsCRT@D@ATL@@@@@ATL@@QAEAAV01@PBD@Z:PROC
EXTRN	__imp_??Y?$CStringT@DV?$StrTraitMFC_DLL@DV?$ChTraitsCRT@D@ATL@@@@@ATL@@QAEAAV01@ABV?$CSimpleStringT@D$00@1@@Z:PROC
EXTRN	__imp_??Y?$CStringT@DV?$StrTraitMFC_DLL@DV?$ChTraitsCRT@D@ATL@@@@@ATL@@QAEAAV01@PBD@Z:PROC
EXTRN	__imp_?GetManager@?$CStringT@DV?$StrTraitMFC_DLL@DV?$ChTraitsCRT@D@ATL@@@@@ATL@@QBEPAUIAtlStringMgr@2@XZ:PROC
EXTRN	__imp_?Find@?$CStringT@DV?$StrTraitMFC_DLL@DV?$ChTraitsCRT@D@ATL@@@@@ATL@@QBEHPBDH@Z:PROC
EXTRN	__imp_?ReverseFind@?$CStringT@DV?$StrTraitMFC_DLL@DV?$ChTraitsCRT@D@ATL@@@@@ATL@@QBEHD@Z:PROC
EXTRN	__imp_?Mid@?$CStringT@DV?$StrTraitMFC_DLL@DV?$ChTraitsCRT@D@ATL@@@@@ATL@@QBE?AV12@H@Z:PROC
EXTRN	__imp_?Left@?$CStringT@DV?$StrTraitMFC_DLL@DV?$ChTraitsCRT@D@ATL@@@@@ATL@@QBE?AV12@H@Z:PROC
EXTRN	__imp_?SpanIncluding@?$CStringT@DV?$StrTraitMFC_DLL@DV?$ChTraitsCRT@D@ATL@@@@@ATL@@QBE?AV12@PBD@Z:PROC
EXTRN	__imp_?SpanExcluding@?$CStringT@DV?$StrTraitMFC_DLL@DV?$ChTraitsCRT@D@ATL@@@@@ATL@@QBE?AV12@PBD@Z:PROC
EXTRN	?GetRuntimeClass@CMapPtrToPtr@@UBEPAUCRuntimeClass@@XZ:PROC ; CMapPtrToPtr::GetRuntimeClass
EXTRN	??0CMapPtrToPtr@@QAE@H@Z:PROC			; CMapPtrToPtr::CMapPtrToPtr
EXTRN	?Lookup@CMapPtrToPtr@@QBEHPAXAAPAX@Z:PROC	; CMapPtrToPtr::Lookup
EXTRN	??ACMapPtrToPtr@@QAEAAPAXPAX@Z:PROC		; CMapPtrToPtr::operator[]
EXTRN	??1CMapPtrToPtr@@UAE@XZ:PROC			; CMapPtrToPtr::~CMapPtrToPtr
EXTRN	?GetRuntimeClass@CMapStringToPtr@@UBEPAUCRuntimeClass@@XZ:PROC ; CMapStringToPtr::GetRuntimeClass
EXTRN	??0CMapStringToPtr@@QAE@H@Z:PROC		; CMapStringToPtr::CMapStringToPtr
EXTRN	?Lookup@CMapStringToPtr@@QBEHPBDAAPAX@Z:PROC	; CMapStringToPtr::Lookup
EXTRN	??ACMapStringToPtr@@QAEAAPAXPBD@Z:PROC		; CMapStringToPtr::operator[]
EXTRN	??1CMapStringToPtr@@UAE@XZ:PROC			; CMapStringToPtr::~CMapStringToPtr
EXTRN	??_EIMetaTable@@UAEPAXI@Z:PROC			; IMetaTable::`vector deleting destructor'
EXTRN	??_ECMapStringToWord@@UAEPAXI@Z:PROC		; CMapStringToWord::`vector deleting destructor'
EXTRN	??_E?$CTypedPtrMap@VCMapPtrToPtr@@PAXPAX@@UAEPAXI@Z:PROC ; CTypedPtrMap<CMapPtrToPtr,void *,void *>::`vector deleting destructor'
EXTRN	@__security_check_cookie@4:PROC
EXTRN	___CxxFrameHandler3:PROC
EXTRN	__alloca_probe_16:PROC
EXTRN	__Init_thread_epoch:DWORD
EXTRN	??_7type_info@@6B@:QWORD			; type_info::`vftable'
EXTRN	___security_cookie:DWORD
EXTRN	__tls_array:DWORD
EXTRN	__tls_index:DWORD
;	COMDAT ?mapType@?1??IsPriceChartType@IMetaTable@@QAEHPBD@Z@4VCMapStringToWord@@A
_BSS	SEGMENT
?mapType@?1??IsPriceChartType@IMetaTable@@QAEHPBD@Z@4VCMapStringToWord@@A DB 01cH DUP (?) ; `IMetaTable::IsPriceChartType'::`2'::mapType
_BSS	ENDS
;	COMDAT ?$TSS0@?1??IsPriceChartType@IMetaTable@@QAEHPBD@Z@4HA
_BSS	SEGMENT
?$TSS0@?1??IsPriceChartType@IMetaTable@@QAEHPBD@Z@4HA DD 01H DUP (?) ; `IMetaTable::IsPriceChartType'::`2'::$TSS0
_BSS	ENDS
;	COMDAT ?mapSpecialTimes@?1??IsSpecialTime@IMetaTable@@QAEHH@Z@4V?$CTypedPtrMap@VCMapPtrToPtr@@PAXPAX@@A
_BSS	SEGMENT
?mapSpecialTimes@?1??IsSpecialTime@IMetaTable@@QAEHH@Z@4V?$CTypedPtrMap@VCMapPtrToPtr@@PAXPAX@@A DB 01cH DUP (?) ; `IMetaTable::IsSpecialTime'::`2'::mapSpecialTimes
_BSS	ENDS
;	COMDAT ?$TSS0@?1??IsSpecialTime@IMetaTable@@QAEHH@Z@4HA
_BSS	SEGMENT
?$TSS0@?1??IsSpecialTime@IMetaTable@@QAEHH@Z@4HA DD 01H DUP (?) ; `IMetaTable::IsSpecialTime'::`2'::$TSS0
_BSS	ENDS
CRT$XCU	SEGMENT
?g_iMetaTable$initializer$@@3P6AXXZA DD FLAT:??__Eg_iMetaTable@@YAXXZ ; g_iMetaTable$initializer$
CRT$XCU	ENDS
;	COMDAT ??_R2CMapPtrToPtr@@8
rdata$r	SEGMENT
??_R2CMapPtrToPtr@@8 DD FLAT:??_R1A@?0A@EA@CMapPtrToPtr@@8 ; CMapPtrToPtr::`RTTI Base Class Array'
	DD	FLAT:??_R1A@?0A@EA@CObject@@8
rdata$r	ENDS
;	COMDAT ??_R3CMapPtrToPtr@@8
rdata$r	SEGMENT
??_R3CMapPtrToPtr@@8 DD 00H				; CMapPtrToPtr::`RTTI Class Hierarchy Descriptor'
	DD	00H
	DD	02H
	DD	FLAT:??_R2CMapPtrToPtr@@8
rdata$r	ENDS
;	COMDAT ??_R0?AVCMapPtrToPtr@@@8
data$rs	SEGMENT
??_R0?AVCMapPtrToPtr@@@8 DD FLAT:??_7type_info@@6B@	; CMapPtrToPtr `RTTI Type Descriptor'
	DD	00H
	DB	'.?AVCMapPtrToPtr@@', 00H
data$rs	ENDS
;	COMDAT ??_R1A@?0A@EA@CMapPtrToPtr@@8
rdata$r	SEGMENT
??_R1A@?0A@EA@CMapPtrToPtr@@8 DD FLAT:??_R0?AVCMapPtrToPtr@@@8 ; CMapPtrToPtr::`RTTI Base Class Descriptor at (0,-1,0,64)'
	DD	01H
	DD	00H
	DD	0ffffffffH
	DD	00H
	DD	040H
	DD	FLAT:??_R3CMapPtrToPtr@@8
rdata$r	ENDS
;	COMDAT ??_R1A@?0A@EA@?$CTypedPtrMap@VCMapPtrToPtr@@PAXPAX@@8
rdata$r	SEGMENT
??_R1A@?0A@EA@?$CTypedPtrMap@VCMapPtrToPtr@@PAXPAX@@8 DD FLAT:??_R0?AV?$CTypedPtrMap@VCMapPtrToPtr@@PAXPAX@@@8 ; CTypedPtrMap<CMapPtrToPtr,void *,void *>::`RTTI Base Class Descriptor at (0,-1,0,64)'
	DD	02H
	DD	00H
	DD	0ffffffffH
	DD	00H
	DD	040H
	DD	FLAT:??_R3?$CTypedPtrMap@VCMapPtrToPtr@@PAXPAX@@8
rdata$r	ENDS
;	COMDAT ??_R2?$CTypedPtrMap@VCMapPtrToPtr@@PAXPAX@@8
rdata$r	SEGMENT
??_R2?$CTypedPtrMap@VCMapPtrToPtr@@PAXPAX@@8 DD FLAT:??_R1A@?0A@EA@?$CTypedPtrMap@VCMapPtrToPtr@@PAXPAX@@8 ; CTypedPtrMap<CMapPtrToPtr,void *,void *>::`RTTI Base Class Array'
	DD	FLAT:??_R1A@?0A@EA@CMapPtrToPtr@@8
	DD	FLAT:??_R1A@?0A@EA@CObject@@8
rdata$r	ENDS
;	COMDAT ??_R3?$CTypedPtrMap@VCMapPtrToPtr@@PAXPAX@@8
rdata$r	SEGMENT
??_R3?$CTypedPtrMap@VCMapPtrToPtr@@PAXPAX@@8 DD 00H	; CTypedPtrMap<CMapPtrToPtr,void *,void *>::`RTTI Class Hierarchy Descriptor'
	DD	00H
	DD	03H
	DD	FLAT:??_R2?$CTypedPtrMap@VCMapPtrToPtr@@PAXPAX@@8
rdata$r	ENDS
;	COMDAT ??_R0?AV?$CTypedPtrMap@VCMapPtrToPtr@@PAXPAX@@@8
data$rs	SEGMENT
??_R0?AV?$CTypedPtrMap@VCMapPtrToPtr@@PAXPAX@@@8 DD FLAT:??_7type_info@@6B@ ; CTypedPtrMap<CMapPtrToPtr,void *,void *> `RTTI Type Descriptor'
	DD	00H
	DB	'.?AV?$CTypedPtrMap@VCMapPtrToPtr@@PAXPAX@@', 00H
data$rs	ENDS
;	COMDAT ??_R4?$CTypedPtrMap@VCMapPtrToPtr@@PAXPAX@@6B@
rdata$r	SEGMENT
??_R4?$CTypedPtrMap@VCMapPtrToPtr@@PAXPAX@@6B@ DD 00H	; CTypedPtrMap<CMapPtrToPtr,void *,void *>::`RTTI Complete Object Locator'
	DD	00H
	DD	00H
	DD	FLAT:??_R0?AV?$CTypedPtrMap@VCMapPtrToPtr@@PAXPAX@@@8
	DD	FLAT:??_R3?$CTypedPtrMap@VCMapPtrToPtr@@PAXPAX@@8
rdata$r	ENDS
;	COMDAT ??_R2CMapStringToPtr@@8
rdata$r	SEGMENT
??_R2CMapStringToPtr@@8 DD FLAT:??_R1A@?0A@EA@CMapStringToPtr@@8 ; CMapStringToPtr::`RTTI Base Class Array'
	DD	FLAT:??_R1A@?0A@EA@CObject@@8
rdata$r	ENDS
;	COMDAT ??_R3CMapStringToPtr@@8
rdata$r	SEGMENT
??_R3CMapStringToPtr@@8 DD 00H				; CMapStringToPtr::`RTTI Class Hierarchy Descriptor'
	DD	00H
	DD	02H
	DD	FLAT:??_R2CMapStringToPtr@@8
rdata$r	ENDS
;	COMDAT ??_R0?AVCMapStringToPtr@@@8
data$rs	SEGMENT
??_R0?AVCMapStringToPtr@@@8 DD FLAT:??_7type_info@@6B@	; CMapStringToPtr `RTTI Type Descriptor'
	DD	00H
	DB	'.?AVCMapStringToPtr@@', 00H
data$rs	ENDS
;	COMDAT ??_R1A@?0A@EA@CMapStringToPtr@@8
rdata$r	SEGMENT
??_R1A@?0A@EA@CMapStringToPtr@@8 DD FLAT:??_R0?AVCMapStringToPtr@@@8 ; CMapStringToPtr::`RTTI Base Class Descriptor at (0,-1,0,64)'
	DD	01H
	DD	00H
	DD	0ffffffffH
	DD	00H
	DD	040H
	DD	FLAT:??_R3CMapStringToPtr@@8
rdata$r	ENDS
;	COMDAT ??_R1A@?0A@EA@CMapStringToWord@@8
rdata$r	SEGMENT
??_R1A@?0A@EA@CMapStringToWord@@8 DD FLAT:??_R0?AVCMapStringToWord@@@8 ; CMapStringToWord::`RTTI Base Class Descriptor at (0,-1,0,64)'
	DD	02H
	DD	00H
	DD	0ffffffffH
	DD	00H
	DD	040H
	DD	FLAT:??_R3CMapStringToWord@@8
rdata$r	ENDS
;	COMDAT ??_R2CMapStringToWord@@8
rdata$r	SEGMENT
??_R2CMapStringToWord@@8 DD FLAT:??_R1A@?0A@EA@CMapStringToWord@@8 ; CMapStringToWord::`RTTI Base Class Array'
	DD	FLAT:??_R1A@?0A@EA@CMapStringToPtr@@8
	DD	FLAT:??_R1A@?0A@EA@CObject@@8
rdata$r	ENDS
;	COMDAT ??_R3CMapStringToWord@@8
rdata$r	SEGMENT
??_R3CMapStringToWord@@8 DD 00H				; CMapStringToWord::`RTTI Class Hierarchy Descriptor'
	DD	00H
	DD	03H
	DD	FLAT:??_R2CMapStringToWord@@8
rdata$r	ENDS
;	COMDAT ??_R0?AVCMapStringToWord@@@8
data$rs	SEGMENT
??_R0?AVCMapStringToWord@@@8 DD FLAT:??_7type_info@@6B@	; CMapStringToWord `RTTI Type Descriptor'
	DD	00H
	DB	'.?AVCMapStringToWord@@', 00H
data$rs	ENDS
;	COMDAT ??_R4CMapStringToWord@@6B@
rdata$r	SEGMENT
??_R4CMapStringToWord@@6B@ DD 00H			; CMapStringToWord::`RTTI Complete Object Locator'
	DD	00H
	DD	00H
	DD	FLAT:??_R0?AVCMapStringToWord@@@8
	DD	FLAT:??_R3CMapStringToWord@@8
rdata$r	ENDS
;	COMDAT ??_R1A@?0A@EA@IMetaTable@@8
rdata$r	SEGMENT
??_R1A@?0A@EA@IMetaTable@@8 DD FLAT:??_R0?AVIMetaTable@@@8 ; IMetaTable::`RTTI Base Class Descriptor at (0,-1,0,64)'
	DD	01H
	DD	00H
	DD	0ffffffffH
	DD	00H
	DD	040H
	DD	FLAT:??_R3IMetaTable@@8
rdata$r	ENDS
;	COMDAT ??_R2IMetaTable@@8
rdata$r	SEGMENT
??_R2IMetaTable@@8 DD FLAT:??_R1A@?0A@EA@IMetaTable@@8	; IMetaTable::`RTTI Base Class Array'
	DD	FLAT:??_R1A@?0A@EA@PDLL@@8
rdata$r	ENDS
;	COMDAT ??_R3IMetaTable@@8
rdata$r	SEGMENT
??_R3IMetaTable@@8 DD 00H				; IMetaTable::`RTTI Class Hierarchy Descriptor'
	DD	00H
	DD	02H
	DD	FLAT:??_R2IMetaTable@@8
rdata$r	ENDS
;	COMDAT ??_R0?AVIMetaTable@@@8
data$rs	SEGMENT
??_R0?AVIMetaTable@@@8 DD FLAT:??_7type_info@@6B@	; IMetaTable `RTTI Type Descriptor'
	DD	00H
	DB	'.?AVIMetaTable@@', 00H
data$rs	ENDS
;	COMDAT ??_R4IMetaTable@@6B@
rdata$r	SEGMENT
??_R4IMetaTable@@6B@ DD 00H				; IMetaTable::`RTTI Complete Object Locator'
	DD	00H
	DD	00H
	DD	FLAT:??_R0?AVIMetaTable@@@8
	DD	FLAT:??_R3IMetaTable@@8
rdata$r	ENDS
;	COMDAT ??_R1A@?0A@EA@PDLL@@8
rdata$r	SEGMENT
??_R1A@?0A@EA@PDLL@@8 DD FLAT:??_R0?AVPDLL@@@8		; PDLL::`RTTI Base Class Descriptor at (0,-1,0,64)'
	DD	00H
	DD	00H
	DD	0ffffffffH
	DD	00H
	DD	040H
	DD	FLAT:??_R3PDLL@@8
rdata$r	ENDS
;	COMDAT ??_R2PDLL@@8
rdata$r	SEGMENT
??_R2PDLL@@8 DD	FLAT:??_R1A@?0A@EA@PDLL@@8		; PDLL::`RTTI Base Class Array'
rdata$r	ENDS
;	COMDAT ??_R3PDLL@@8
rdata$r	SEGMENT
??_R3PDLL@@8 DD	00H					; PDLL::`RTTI Class Hierarchy Descriptor'
	DD	00H
	DD	01H
	DD	FLAT:??_R2PDLL@@8
rdata$r	ENDS
;	COMDAT ??_R0?AVPDLL@@@8
data$rs	SEGMENT
??_R0?AVPDLL@@@8 DD FLAT:??_7type_info@@6B@		; PDLL `RTTI Type Descriptor'
	DD	00H
	DB	'.?AVPDLL@@', 00H
data$rs	ENDS
;	COMDAT ??_R4PDLL@@6B@
rdata$r	SEGMENT
??_R4PDLL@@6B@ DD 00H					; PDLL::`RTTI Complete Object Locator'
	DD	00H
	DD	00H
	DD	FLAT:??_R0?AVPDLL@@@8
	DD	FLAT:??_R3PDLL@@8
rdata$r	ENDS
;	COMDAT ??_C@_04DNPBDGJL@9999@
CONST	SEGMENT
??_C@_04DNPBDGJL@9999@ DB '9999', 00H			; `string'
CONST	ENDS
;	COMDAT ??_C@_04KAPECDDI@8888@
CONST	SEGMENT
??_C@_04KAPECDDI@8888@ DB '8888', 00H			; `string'
CONST	ENDS
;	COMDAT ??_C@_06JMBOIMPI@810000@
CONST	SEGMENT
??_C@_06JMBOIMPI@810000@ DB '810000', 00H		; `string'
CONST	ENDS
;	COMDAT ??_C@_06GKFGPMBB@710000@
CONST	SEGMENT
??_C@_06GKFGPMBB@710000@ DB '710000', 00H		; `string'
CONST	ENDS
;	COMDAT ??_C@_06FLLOOGIM@410000@
CONST	SEGMENT
??_C@_06FLLOOGIM@410000@ DB '410000', 00H		; `string'
CONST	ENDS
;	COMDAT ??_C@_06JOBJNIAC@310000@
CONST	SEGMENT
??_C@_06JOBJNIAC@310000@ DB '310000', 00H		; `string'
CONST	ENDS
;	COMDAT ??_C@_06MKKGLMAH@009999@
CONST	SEGMENT
??_C@_06MKKGLMAH@009999@ DB '009999', 00H		; `string'
CONST	ENDS
;	COMDAT ??_C@_06CHPDGAP@009991@
CONST	SEGMENT
??_C@_06CHPDGAP@009991@ DB '009991', 00H		; `string'
CONST	ENDS
;	COMDAT ??_C@_06IIBPGFKO@888888@
CONST	SEGMENT
??_C@_06IIBPGFKO@888888@ DB '888888', 00H		; `string'
CONST	ENDS
;	COMDAT ??_C@_06NJPGHLOH@777777@
CONST	SEGMENT
??_C@_06NJPGHLOH@777777@ DB '777777', 00H		; `string'
CONST	ENDS
;	COMDAT ??_C@_06CJNILGFF@666666@
CONST	SEGMENT
??_C@_06CJNILGFF@666666@ DB '666666', 00H		; `string'
CONST	ENDS
;	COMDAT ??_7?$CTypedPtrMap@VCMapPtrToPtr@@PAXPAX@@6B@
CONST	SEGMENT
??_7?$CTypedPtrMap@VCMapPtrToPtr@@PAXPAX@@6B@ DD FLAT:??_R4?$CTypedPtrMap@VCMapPtrToPtr@@PAXPAX@@6B@ ; CTypedPtrMap<CMapPtrToPtr,void *,void *>::`vftable'
	DD	FLAT:?GetRuntimeClass@CMapPtrToPtr@@UBEPAUCRuntimeClass@@XZ
	DD	FLAT:??_E?$CTypedPtrMap@VCMapPtrToPtr@@PAXPAX@@UAEPAXI@Z
	DD	FLAT:?Serialize@CObject@@UAEXAAVCArchive@@@Z
	DD	FLAT:?AssertValid@CObject@@UBEXXZ
	DD	FLAT:?Dump@CObject@@UBEXAAVCDumpContext@@@Z
CONST	ENDS
;	COMDAT ??_C@_06EJBADOFI@?2Icss?2@
CONST	SEGMENT
??_C@_06EJBADOFI@?2Icss?2@ DB '\Icss\', 00H		; `string'
CONST	ENDS
;	COMDAT ??_C@_05NCIIGJNC@?2Dev?2@
CONST	SEGMENT
??_C@_05NCIIGJNC@?2Dev?2@ DB '\Dev\', 00H		; `string'
CONST	ENDS
;	COMDAT ??_C@_0O@GDACOMFO@Chart?5Version@
CONST	SEGMENT
??_C@_0O@GDACOMFO@Chart?5Version@ DB 'Chart Version', 00H ; `string'
CONST	ENDS
;	COMDAT ??_C@_06FBGBHGJE@ProgID@
CONST	SEGMENT
??_C@_06FBGBHGJE@ProgID@ DB 'ProgID', 00H		; `string'
CONST	ENDS
;	COMDAT ??_C@_0O@OMPLGAKB@Prog?5ID?5Error@
CONST	SEGMENT
??_C@_0O@OMPLGAKB@Prog?5ID?5Error@ DB 'Prog ID Error', 00H ; `string'
CONST	ENDS
;	COMDAT ??_C@_0BD@PNOKNCJO@ChartMetaTable?4dat@
CONST	SEGMENT
??_C@_0BD@PNOKNCJO@ChartMetaTable?4dat@ DB 'ChartMetaTable.dat', 00H ; `string'
CONST	ENDS
;	COMDAT ??_C@_0BH@KGIICM@ChartLanguageTable?4dll@
CONST	SEGMENT
??_C@_0BH@KGIICM@ChartLanguageTable?4dll@ DB 'ChartLanguageTable.dll', 00H ; `string'
CONST	ENDS
;	COMDAT ??_7CMapStringToWord@@6B@
CONST	SEGMENT
??_7CMapStringToWord@@6B@ DD FLAT:??_R4CMapStringToWord@@6B@ ; CMapStringToWord::`vftable'
	DD	FLAT:?GetRuntimeClass@CMapStringToPtr@@UBEPAUCRuntimeClass@@XZ
	DD	FLAT:??_ECMapStringToWord@@UAEPAXI@Z
	DD	FLAT:?Serialize@CObject@@UAEXAAVCArchive@@@Z
	DD	FLAT:?AssertValid@CObject@@UBEXXZ
	DD	FLAT:?Dump@CObject@@UBEXAAVCDumpContext@@@Z
CONST	ENDS
;	COMDAT ??_C@_0P@IKCDKIKH@?2LocalServer32@
CONST	SEGMENT
??_C@_0P@IKCDKIKH@?2LocalServer32@ DB '\LocalServer32', 00H ; `string'
CONST	ENDS
;	COMDAT ??_C@_0BA@CCGIMEPP@?2InprocServer32@
CONST	SEGMENT
??_C@_0BA@CCGIMEPP@?2InprocServer32@ DB '\InprocServer32', 00H ; `string'
CONST	ENDS
_DATA	SEGMENT
?g_iMetaTable@@3VIMetaTable@@A DD FLAT:??_7IMetaTable@@6B@ ; g_iMetaTable
_DATA	ENDS
;	COMDAT ??_C@_0P@FOFNMHJI@GetIndicatorID@
CONST	SEGMENT
??_C@_0P@FOFNMHJI@GetIndicatorID@ DB 'GetIndicatorID', 00H ; `string'
CONST	ENDS
;	COMDAT ??_C@_0BJ@HJMJJENK@GetLanguageTextDirectly_@
CONST	SEGMENT
??_C@_0BJ@HJMJJENK@GetLanguageTextDirectly_@ DB 'GetLanguageTextDirectly_'
	DB	00H						; `string'
CONST	ENDS
;	COMDAT ??_C@_0BF@MEHOHKJ@GetMetaTextDirectly_@
CONST	SEGMENT
??_C@_0BF@MEHOHKJ@GetMetaTextDirectly_@ DB 'GetMetaTextDirectly_', 00H ; `string'
CONST	ENDS
;	COMDAT ??_C@_0BG@NDFMAEKK@GetMetaTextForScript_@
CONST	SEGMENT
??_C@_0BG@NDFMAEKK@GetMetaTextForScript_@ DB 'GetMetaTextForScript_', 00H ; `string'
CONST	ENDS
;	COMDAT ??_C@_0BG@EMKKKIMB@GetMetaTextFromOther_@
CONST	SEGMENT
??_C@_0BG@EMKKKIMB@GetMetaTextFromOther_@ DB 'GetMetaTextFromOther_', 00H ; `string'
CONST	ENDS
;	COMDAT ??_C@_0BB@NKBMALGK@GetLanguageText_@
CONST	SEGMENT
??_C@_0BB@NKBMALGK@GetLanguageText_@ DB 'GetLanguageText_', 00H ; `string'
CONST	ENDS
;	COMDAT ??_C@_0N@LAIJDPJP@GetMetaText_@
CONST	SEGMENT
??_C@_0N@LAIJDPJP@GetMetaText_@ DB 'GetMetaText_', 00H	; `string'
CONST	ENDS
;	COMDAT ??_C@_0BG@HIGEOJDD@GetIndicatorNameTable@
CONST	SEGMENT
??_C@_0BG@HIGEOJDD@GetIndicatorNameTable@ DB 'GetIndicatorNameTable', 00H ; `string'
CONST	ENDS
;	COMDAT ??_C@_0N@ENDBACBF@GetMetaTable@
CONST	SEGMENT
??_C@_0N@ENDBACBF@GetMetaTable@ DB 'GetMetaTable', 00H	; `string'
CONST	ENDS
;	COMDAT ??_7IMetaTable@@6B@
CONST	SEGMENT
??_7IMetaTable@@6B@ DD FLAT:??_R4IMetaTable@@6B@	; IMetaTable::`vftable'
	DD	FLAT:?Initialize@PDLL@@UAE_NF@Z
	DD	FLAT:?Uninitialize@PDLL@@UAEXXZ
	DD	FLAT:??_EIMetaTable@@UAEPAXI@Z
CONST	ENDS
;	COMDAT ??_7PDLL@@6B@
CONST	SEGMENT
??_7PDLL@@6B@ DD FLAT:??_R4PDLL@@6B@			; PDLL::`vftable'
	DD	FLAT:?Initialize@PDLL@@UAE_NF@Z
	DD	FLAT:?Uninitialize@PDLL@@UAEXXZ
CONST	ENDS
;	COMDAT ??_R1A@?0A@EA@CObject@@8
rdata$r	SEGMENT
??_R1A@?0A@EA@CObject@@8 DD FLAT:??_R0?AVCObject@@@8	; CObject::`RTTI Base Class Descriptor at (0,-1,0,64)'
	DD	00H
	DD	00H
	DD	0ffffffffH
	DD	00H
	DD	040H
	DD	FLAT:??_R3CObject@@8
rdata$r	ENDS
;	COMDAT ??_R2CObject@@8
rdata$r	SEGMENT
??_R2CObject@@8 DD FLAT:??_R1A@?0A@EA@CObject@@8	; CObject::`RTTI Base Class Array'
rdata$r	ENDS
;	COMDAT ??_R3CObject@@8
rdata$r	SEGMENT
??_R3CObject@@8 DD 00H					; CObject::`RTTI Class Hierarchy Descriptor'
	DD	00H
	DD	01H
	DD	FLAT:??_R2CObject@@8
rdata$r	ENDS
;	COMDAT ??_R0?AVCObject@@@8
data$rs	SEGMENT
??_R0?AVCObject@@@8 DD FLAT:??_7type_info@@6B@		; CObject `RTTI Type Descriptor'
	DD	00H
	DB	'.?AVCObject@@', 00H
data$rs	ENDS
;	COMDAT ??_C@_06JHNIBAJK@CLSID?2@
CONST	SEGMENT
??_C@_06JHNIBAJK@CLSID?2@ DB 'CLSID\', 00H		; `string'
CONST	ENDS
;	COMDAT xdata$x
xdata$x	SEGMENT
__unwindtable$?ComServerFromProgID@CProgIDInfo@@SAJPBDAAV?$CStringT@DV?$StrTraitMFC_DLL@DV?$ChTraitsCRT@D@ATL@@@@@ATL@@@Z DD 0ffffffffH
	DD	FLAT:__unwindfunclet$?ComServerFromProgID@CProgIDInfo@@SAJPBDAAV?$CStringT@DV?$StrTraitMFC_DLL@DV?$ChTraitsCRT@D@ATL@@@@@ATL@@@Z$0
	DD	00H
	DD	FLAT:__unwindfunclet$?ComServerFromProgID@CProgIDInfo@@SAJPBDAAV?$CStringT@DV?$StrTraitMFC_DLL@DV?$ChTraitsCRT@D@ATL@@@@@ATL@@@Z$1
	DD	01H
	DD	FLAT:__unwindfunclet$?ComServerFromProgID@CProgIDInfo@@SAJPBDAAV?$CStringT@DV?$StrTraitMFC_DLL@DV?$ChTraitsCRT@D@ATL@@@@@ATL@@@Z$2
__ehfuncinfo$?ComServerFromProgID@CProgIDInfo@@SAJPBDAAV?$CStringT@DV?$StrTraitMFC_DLL@DV?$ChTraitsCRT@D@ATL@@@@@ATL@@@Z DD 019930522H
	DD	03H
	DD	FLAT:__unwindtable$?ComServerFromProgID@CProgIDInfo@@SAJPBDAAV?$CStringT@DV?$StrTraitMFC_DLL@DV?$ChTraitsCRT@D@ATL@@@@@ATL@@@Z
	DD	2 DUP(00H)
	DD	2 DUP(00H)
	DD	00H
	DD	01H
xdata$x	ENDS
;	COMDAT xdata$x
xdata$x	SEGMENT
__unwindtable$?ComServerFromStringCLSID@CProgIDInfo@@SAJPBDAAV?$CStringT@DV?$StrTraitMFC_DLL@DV?$ChTraitsCRT@D@ATL@@@@@ATL@@@Z DD 0ffffffffH
	DD	FLAT:__unwindfunclet$?ComServerFromStringCLSID@CProgIDInfo@@SAJPBDAAV?$CStringT@DV?$StrTraitMFC_DLL@DV?$ChTraitsCRT@D@ATL@@@@@ATL@@@Z$0
	DD	00H
	DD	FLAT:__unwindfunclet$?ComServerFromStringCLSID@CProgIDInfo@@SAJPBDAAV?$CStringT@DV?$StrTraitMFC_DLL@DV?$ChTraitsCRT@D@ATL@@@@@ATL@@@Z$1
__ehfuncinfo$?ComServerFromStringCLSID@CProgIDInfo@@SAJPBDAAV?$CStringT@DV?$StrTraitMFC_DLL@DV?$ChTraitsCRT@D@ATL@@@@@ATL@@@Z DD 019930522H
	DD	02H
	DD	FLAT:__unwindtable$?ComServerFromStringCLSID@CProgIDInfo@@SAJPBDAAV?$CStringT@DV?$StrTraitMFC_DLL@DV?$ChTraitsCRT@D@ATL@@@@@ATL@@@Z
	DD	2 DUP(00H)
	DD	2 DUP(00H)
	DD	00H
	DD	01H
xdata$x	ENDS
;	COMDAT xdata$x
xdata$x	SEGMENT
__unwindtable$?IsSpecialTime@IMetaTable@@QAEHH@Z DD 0ffffffffH
	DD	FLAT:__unwindfunclet$?IsSpecialTime@IMetaTable@@QAEHH@Z$0
__ehfuncinfo$?IsSpecialTime@IMetaTable@@QAEHH@Z DD 019930522H
	DD	01H
	DD	FLAT:__unwindtable$?IsSpecialTime@IMetaTable@@QAEHH@Z
	DD	2 DUP(00H)
	DD	2 DUP(00H)
	DD	00H
	DD	01H
xdata$x	ENDS
;	COMDAT xdata$x
xdata$x	SEGMENT
__unwindtable$?IsPriceChartType@IMetaTable@@QAEHPBD@Z DD 0ffffffffH
	DD	FLAT:__unwindfunclet$?IsPriceChartType@IMetaTable@@QAEHPBD@Z$0
__ehfuncinfo$?IsPriceChartType@IMetaTable@@QAEHPBD@Z DD 019930522H
	DD	01H
	DD	FLAT:__unwindtable$?IsPriceChartType@IMetaTable@@QAEHPBD@Z
	DD	2 DUP(00H)
	DD	2 DUP(00H)
	DD	00H
	DD	01H
xdata$x	ENDS
;	COMDAT xdata$x
xdata$x	SEGMENT
__unwindtable$?IsChartType@IMetaTable@@QAEHPBD@Z DD 0ffffffffH
	DD	FLAT:__unwindfunclet$?IsChartType@IMetaTable@@QAEHPBD@Z$0
__ehfuncinfo$?IsChartType@IMetaTable@@QAEHPBD@Z DD 019930522H
	DD	01H
	DD	FLAT:__unwindtable$?IsChartType@IMetaTable@@QAEHPBD@Z
	DD	2 DUP(00H)
	DD	2 DUP(00H)
	DD	00H
	DD	01H
xdata$x	ENDS
;	COMDAT xdata$x
xdata$x	SEGMENT
__ehfuncinfo$?GetMultipleMetaTextForScript@IMetaTable@@QAE?AV?$CStringT@DV?$StrTraitMFC_DLL@DV?$ChTraitsCRT@D@ATL@@@@@ATL@@PAUHWND__@@V23@1HH@Z DD 019930522H
	DD	09H
	DD	FLAT:__unwindtable$?GetMultipleMetaTextForScript@IMetaTable@@QAE?AV?$CStringT@DV?$StrTraitMFC_DLL@DV?$ChTraitsCRT@D@ATL@@@@@ATL@@PAUHWND__@@V23@1HH@Z
	DD	2 DUP(00H)
	DD	2 DUP(00H)
	DD	00H
	DD	01H
__unwindtable$?GetMultipleMetaTextForScript@IMetaTable@@QAE?AV?$CStringT@DV?$StrTraitMFC_DLL@DV?$ChTraitsCRT@D@ATL@@@@@ATL@@PAUHWND__@@V23@1HH@Z DD 0ffffffffH
	DD	FLAT:__unwindfunclet$?GetMultipleMetaTextForScript@IMetaTable@@QAE?AV?$CStringT@DV?$StrTraitMFC_DLL@DV?$ChTraitsCRT@D@ATL@@@@@ATL@@PAUHWND__@@V23@1HH@Z$2
	DD	00H
	DD	FLAT:__unwindfunclet$?GetMultipleMetaTextForScript@IMetaTable@@QAE?AV?$CStringT@DV?$StrTraitMFC_DLL@DV?$ChTraitsCRT@D@ATL@@@@@ATL@@PAUHWND__@@V23@1HH@Z$0
	DD	01H
	DD	FLAT:__unwindfunclet$?GetMultipleMetaTextForScript@IMetaTable@@QAE?AV?$CStringT@DV?$StrTraitMFC_DLL@DV?$ChTraitsCRT@D@ATL@@@@@ATL@@PAUHWND__@@V23@1HH@Z$1
	DD	02H
	DD	FLAT:__unwindfunclet$?GetMultipleMetaTextForScript@IMetaTable@@QAE?AV?$CStringT@DV?$StrTraitMFC_DLL@DV?$ChTraitsCRT@D@ATL@@@@@ATL@@PAUHWND__@@V23@1HH@Z$3
	DD	03H
	DD	FLAT:__unwindfunclet$?GetMultipleMetaTextForScript@IMetaTable@@QAE?AV?$CStringT@DV?$StrTraitMFC_DLL@DV?$ChTraitsCRT@D@ATL@@@@@ATL@@PAUHWND__@@V23@1HH@Z$4
	DD	04H
	DD	FLAT:__unwindfunclet$?GetMultipleMetaTextForScript@IMetaTable@@QAE?AV?$CStringT@DV?$StrTraitMFC_DLL@DV?$ChTraitsCRT@D@ATL@@@@@ATL@@PAUHWND__@@V23@1HH@Z$5
	DD	04H
	DD	FLAT:__unwindfunclet$?GetMultipleMetaTextForScript@IMetaTable@@QAE?AV?$CStringT@DV?$StrTraitMFC_DLL@DV?$ChTraitsCRT@D@ATL@@@@@ATL@@PAUHWND__@@V23@1HH@Z$6
	DD	04H
	DD	FLAT:__unwindfunclet$?GetMultipleMetaTextForScript@IMetaTable@@QAE?AV?$CStringT@DV?$StrTraitMFC_DLL@DV?$ChTraitsCRT@D@ATL@@@@@ATL@@PAUHWND__@@V23@1HH@Z$7
	DD	04H
	DD	FLAT:__unwindfunclet$?GetMultipleMetaTextForScript@IMetaTable@@QAE?AV?$CStringT@DV?$StrTraitMFC_DLL@DV?$ChTraitsCRT@D@ATL@@@@@ATL@@PAUHWND__@@V23@1HH@Z$8
xdata$x	ENDS
;	COMDAT xdata$x
xdata$x	SEGMENT
__ehfuncinfo$?GetMultipleMetaTextFromOther@IMetaTable@@QAE?AV?$CStringT@DV?$StrTraitMFC_DLL@DV?$ChTraitsCRT@D@ATL@@@@@ATL@@PAUHWND__@@V23@1HH@Z DD 019930522H
	DD	09H
	DD	FLAT:__unwindtable$?GetMultipleMetaTextFromOther@IMetaTable@@QAE?AV?$CStringT@DV?$StrTraitMFC_DLL@DV?$ChTraitsCRT@D@ATL@@@@@ATL@@PAUHWND__@@V23@1HH@Z
	DD	2 DUP(00H)
	DD	2 DUP(00H)
	DD	00H
	DD	01H
__unwindtable$?GetMultipleMetaTextFromOther@IMetaTable@@QAE?AV?$CStringT@DV?$StrTraitMFC_DLL@DV?$ChTraitsCRT@D@ATL@@@@@ATL@@PAUHWND__@@V23@1HH@Z DD 0ffffffffH
	DD	FLAT:__unwindfunclet$?GetMultipleMetaTextFromOther@IMetaTable@@QAE?AV?$CStringT@DV?$StrTraitMFC_DLL@DV?$ChTraitsCRT@D@ATL@@@@@ATL@@PAUHWND__@@V23@1HH@Z$2
	DD	00H
	DD	FLAT:__unwindfunclet$?GetMultipleMetaTextFromOther@IMetaTable@@QAE?AV?$CStringT@DV?$StrTraitMFC_DLL@DV?$ChTraitsCRT@D@ATL@@@@@ATL@@PAUHWND__@@V23@1HH@Z$0
	DD	01H
	DD	FLAT:__unwindfunclet$?GetMultipleMetaTextFromOther@IMetaTable@@QAE?AV?$CStringT@DV?$StrTraitMFC_DLL@DV?$ChTraitsCRT@D@ATL@@@@@ATL@@PAUHWND__@@V23@1HH@Z$1
	DD	02H
	DD	FLAT:__unwindfunclet$?GetMultipleMetaTextFromOther@IMetaTable@@QAE?AV?$CStringT@DV?$StrTraitMFC_DLL@DV?$ChTraitsCRT@D@ATL@@@@@ATL@@PAUHWND__@@V23@1HH@Z$3
	DD	03H
	DD	FLAT:__unwindfunclet$?GetMultipleMetaTextFromOther@IMetaTable@@QAE?AV?$CStringT@DV?$StrTraitMFC_DLL@DV?$ChTraitsCRT@D@ATL@@@@@ATL@@PAUHWND__@@V23@1HH@Z$4
	DD	04H
	DD	FLAT:__unwindfunclet$?GetMultipleMetaTextFromOther@IMetaTable@@QAE?AV?$CStringT@DV?$StrTraitMFC_DLL@DV?$ChTraitsCRT@D@ATL@@@@@ATL@@PAUHWND__@@V23@1HH@Z$5
	DD	04H
	DD	FLAT:__unwindfunclet$?GetMultipleMetaTextFromOther@IMetaTable@@QAE?AV?$CStringT@DV?$StrTraitMFC_DLL@DV?$ChTraitsCRT@D@ATL@@@@@ATL@@PAUHWND__@@V23@1HH@Z$6
	DD	04H
	DD	FLAT:__unwindfunclet$?GetMultipleMetaTextFromOther@IMetaTable@@QAE?AV?$CStringT@DV?$StrTraitMFC_DLL@DV?$ChTraitsCRT@D@ATL@@@@@ATL@@PAUHWND__@@V23@1HH@Z$7
	DD	04H
	DD	FLAT:__unwindfunclet$?GetMultipleMetaTextFromOther@IMetaTable@@QAE?AV?$CStringT@DV?$StrTraitMFC_DLL@DV?$ChTraitsCRT@D@ATL@@@@@ATL@@PAUHWND__@@V23@1HH@Z$8
xdata$x	ENDS
;	COMDAT xdata$x
xdata$x	SEGMENT
__ehfuncinfo$?GetMultipleLanguageText@IMetaTable@@QAE?AV?$CStringT@DV?$StrTraitMFC_DLL@DV?$ChTraitsCRT@D@ATL@@@@@ATL@@PAUHWND__@@V23@1HH@Z DD 019930522H
	DD	09H
	DD	FLAT:__unwindtable$?GetMultipleLanguageText@IMetaTable@@QAE?AV?$CStringT@DV?$StrTraitMFC_DLL@DV?$ChTraitsCRT@D@ATL@@@@@ATL@@PAUHWND__@@V23@1HH@Z
	DD	2 DUP(00H)
	DD	2 DUP(00H)
	DD	00H
	DD	01H
__unwindtable$?GetMultipleLanguageText@IMetaTable@@QAE?AV?$CStringT@DV?$StrTraitMFC_DLL@DV?$ChTraitsCRT@D@ATL@@@@@ATL@@PAUHWND__@@V23@1HH@Z DD 0ffffffffH
	DD	FLAT:__unwindfunclet$?GetMultipleLanguageText@IMetaTable@@QAE?AV?$CStringT@DV?$StrTraitMFC_DLL@DV?$ChTraitsCRT@D@ATL@@@@@ATL@@PAUHWND__@@V23@1HH@Z$2
	DD	00H
	DD	FLAT:__unwindfunclet$?GetMultipleLanguageText@IMetaTable@@QAE?AV?$CStringT@DV?$StrTraitMFC_DLL@DV?$ChTraitsCRT@D@ATL@@@@@ATL@@PAUHWND__@@V23@1HH@Z$0
	DD	01H
	DD	FLAT:__unwindfunclet$?GetMultipleLanguageText@IMetaTable@@QAE?AV?$CStringT@DV?$StrTraitMFC_DLL@DV?$ChTraitsCRT@D@ATL@@@@@ATL@@PAUHWND__@@V23@1HH@Z$1
	DD	02H
	DD	FLAT:__unwindfunclet$?GetMultipleLanguageText@IMetaTable@@QAE?AV?$CStringT@DV?$StrTraitMFC_DLL@DV?$ChTraitsCRT@D@ATL@@@@@ATL@@PAUHWND__@@V23@1HH@Z$3
	DD	03H
	DD	FLAT:__unwindfunclet$?GetMultipleLanguageText@IMetaTable@@QAE?AV?$CStringT@DV?$StrTraitMFC_DLL@DV?$ChTraitsCRT@D@ATL@@@@@ATL@@PAUHWND__@@V23@1HH@Z$4
	DD	04H
	DD	FLAT:__unwindfunclet$?GetMultipleLanguageText@IMetaTable@@QAE?AV?$CStringT@DV?$StrTraitMFC_DLL@DV?$ChTraitsCRT@D@ATL@@@@@ATL@@PAUHWND__@@V23@1HH@Z$5
	DD	04H
	DD	FLAT:__unwindfunclet$?GetMultipleLanguageText@IMetaTable@@QAE?AV?$CStringT@DV?$StrTraitMFC_DLL@DV?$ChTraitsCRT@D@ATL@@@@@ATL@@PAUHWND__@@V23@1HH@Z$6
	DD	04H
	DD	FLAT:__unwindfunclet$?GetMultipleLanguageText@IMetaTable@@QAE?AV?$CStringT@DV?$StrTraitMFC_DLL@DV?$ChTraitsCRT@D@ATL@@@@@ATL@@PAUHWND__@@V23@1HH@Z$7
	DD	04H
	DD	FLAT:__unwindfunclet$?GetMultipleLanguageText@IMetaTable@@QAE?AV?$CStringT@DV?$StrTraitMFC_DLL@DV?$ChTraitsCRT@D@ATL@@@@@ATL@@PAUHWND__@@V23@1HH@Z$8
xdata$x	ENDS
;	COMDAT xdata$x
xdata$x	SEGMENT
__ehfuncinfo$?GetMultipleMetaText@IMetaTable@@QAE?AV?$CStringT@DV?$StrTraitMFC_DLL@DV?$ChTraitsCRT@D@ATL@@@@@ATL@@PAUHWND__@@V23@1HH@Z DD 019930522H
	DD	09H
	DD	FLAT:__unwindtable$?GetMultipleMetaText@IMetaTable@@QAE?AV?$CStringT@DV?$StrTraitMFC_DLL@DV?$ChTraitsCRT@D@ATL@@@@@ATL@@PAUHWND__@@V23@1HH@Z
	DD	2 DUP(00H)
	DD	2 DUP(00H)
	DD	00H
	DD	01H
__unwindtable$?GetMultipleMetaText@IMetaTable@@QAE?AV?$CStringT@DV?$StrTraitMFC_DLL@DV?$ChTraitsCRT@D@ATL@@@@@ATL@@PAUHWND__@@V23@1HH@Z DD 0ffffffffH
	DD	FLAT:__unwindfunclet$?GetMultipleMetaText@IMetaTable@@QAE?AV?$CStringT@DV?$StrTraitMFC_DLL@DV?$ChTraitsCRT@D@ATL@@@@@ATL@@PAUHWND__@@V23@1HH@Z$2
	DD	00H
	DD	FLAT:__unwindfunclet$?GetMultipleMetaText@IMetaTable@@QAE?AV?$CStringT@DV?$StrTraitMFC_DLL@DV?$ChTraitsCRT@D@ATL@@@@@ATL@@PAUHWND__@@V23@1HH@Z$0
	DD	01H
	DD	FLAT:__unwindfunclet$?GetMultipleMetaText@IMetaTable@@QAE?AV?$CStringT@DV?$StrTraitMFC_DLL@DV?$ChTraitsCRT@D@ATL@@@@@ATL@@PAUHWND__@@V23@1HH@Z$1
	DD	02H
	DD	FLAT:__unwindfunclet$?GetMultipleMetaText@IMetaTable@@QAE?AV?$CStringT@DV?$StrTraitMFC_DLL@DV?$ChTraitsCRT@D@ATL@@@@@ATL@@PAUHWND__@@V23@1HH@Z$3
	DD	03H
	DD	FLAT:__unwindfunclet$?GetMultipleMetaText@IMetaTable@@QAE?AV?$CStringT@DV?$StrTraitMFC_DLL@DV?$ChTraitsCRT@D@ATL@@@@@ATL@@PAUHWND__@@V23@1HH@Z$4
	DD	04H
	DD	FLAT:__unwindfunclet$?GetMultipleMetaText@IMetaTable@@QAE?AV?$CStringT@DV?$StrTraitMFC_DLL@DV?$ChTraitsCRT@D@ATL@@@@@ATL@@PAUHWND__@@V23@1HH@Z$5
	DD	04H
	DD	FLAT:__unwindfunclet$?GetMultipleMetaText@IMetaTable@@QAE?AV?$CStringT@DV?$StrTraitMFC_DLL@DV?$ChTraitsCRT@D@ATL@@@@@ATL@@PAUHWND__@@V23@1HH@Z$6
	DD	04H
	DD	FLAT:__unwindfunclet$?GetMultipleMetaText@IMetaTable@@QAE?AV?$CStringT@DV?$StrTraitMFC_DLL@DV?$ChTraitsCRT@D@ATL@@@@@ATL@@PAUHWND__@@V23@1HH@Z$7
	DD	04H
	DD	FLAT:__unwindfunclet$?GetMultipleMetaText@IMetaTable@@QAE?AV?$CStringT@DV?$StrTraitMFC_DLL@DV?$ChTraitsCRT@D@ATL@@@@@ATL@@PAUHWND__@@V23@1HH@Z$8
xdata$x	ENDS
;	COMDAT xdata$x
xdata$x	SEGMENT
__ehfuncinfo$?LoadMetaTable@IMetaTable@@QAEXXZ DD 019930522H
	DD	07H
	DD	FLAT:__unwindtable$?LoadMetaTable@IMetaTable@@QAEXXZ
	DD	2 DUP(00H)
	DD	2 DUP(00H)
	DD	00H
	DD	01H
__unwindtable$?LoadMetaTable@IMetaTable@@QAEXXZ DD 0ffffffffH
	DD	FLAT:__unwindfunclet$?LoadMetaTable@IMetaTable@@QAEXXZ$0
	DD	00H
	DD	FLAT:__unwindfunclet$?LoadMetaTable@IMetaTable@@QAEXXZ$7
	DD	00H
	DD	FLAT:__unwindfunclet$?LoadMetaTable@IMetaTable@@QAEXXZ$2
	DD	00H
	DD	FLAT:__unwindfunclet$?LoadMetaTable@IMetaTable@@QAEXXZ$3
	DD	03H
	DD	FLAT:__unwindfunclet$?LoadMetaTable@IMetaTable@@QAEXXZ$4
	DD	03H
	DD	FLAT:__unwindfunclet$?LoadMetaTable@IMetaTable@@QAEXXZ$5
	DD	00H
	DD	FLAT:__unwindfunclet$?LoadMetaTable@IMetaTable@@QAEXXZ$8
xdata$x	ENDS
;	COMDAT xdata$x
xdata$x	SEGMENT
__unwindtable$??1IMetaTable@@UAE@XZ DD 0ffffffffH
	DD	FLAT:___std_terminate
__ehfuncinfo$??1IMetaTable@@UAE@XZ DD 019930522H
	DD	01H
	DD	FLAT:__unwindtable$??1IMetaTable@@UAE@XZ
	DD	2 DUP(00H)
	DD	2 DUP(00H)
	DD	00H
	DD	05H
xdata$x	ENDS
;	COMDAT xdata$x
xdata$x	SEGMENT
__ehfuncinfo$??1PDLL@@QAE@XZ DD 019930522H
	DD	00H
	DD	00H
	DD	2 DUP(00H)
	DD	2 DUP(00H)
	DD	00H
	DD	05H
xdata$x	ENDS
;	COMDAT xdata$x
xdata$x	SEGMENT
__unwindtable$??HATL@@YA?AV?$CStringT@DV?$StrTraitMFC_DLL@DV?$ChTraitsCRT@D@ATL@@@@@0@ABV10@PBD@Z DD 0ffffffffH
	DD	FLAT:__unwindfunclet$??HATL@@YA?AV?$CStringT@DV?$StrTraitMFC_DLL@DV?$ChTraitsCRT@D@ATL@@@@@0@ABV10@PBD@Z$0
__ehfuncinfo$??HATL@@YA?AV?$CStringT@DV?$StrTraitMFC_DLL@DV?$ChTraitsCRT@D@ATL@@@@@0@ABV10@PBD@Z DD 019930522H
	DD	01H
	DD	FLAT:__unwindtable$??HATL@@YA?AV?$CStringT@DV?$StrTraitMFC_DLL@DV?$ChTraitsCRT@D@ATL@@@@@0@ABV10@PBD@Z
	DD	2 DUP(00H)
	DD	2 DUP(00H)
	DD	00H
	DD	01H
xdata$x	ENDS
; Function compile flags: /Ogtp
;	COMDAT ??__FmapSpecialTimes@?1??IsSpecialTime@IMetaTable@@QAEHH@Z@YAXXZ
text$yd	SEGMENT
??__FmapSpecialTimes@?1??IsSpecialTime@IMetaTable@@QAEHH@Z@YAXXZ PROC ; `IMetaTable::IsSpecialTime'::`2'::`dynamic atexit destructor for 'mapSpecialTimes'', COMDAT
  00000	b9 00 00 00 00	 mov	 ecx, OFFSET ?mapSpecialTimes@?1??IsSpecialTime@IMetaTable@@QAEHH@Z@4V?$CTypedPtrMap@VCMapPtrToPtr@@PAXPAX@@A
  00005	e9 00 00 00 00	 jmp	 ??1CMapPtrToPtr@@UAE@XZ	; CMapPtrToPtr::~CMapPtrToPtr
??__FmapSpecialTimes@?1??IsSpecialTime@IMetaTable@@QAEHH@Z@YAXXZ ENDP ; `IMetaTable::IsSpecialTime'::`2'::`dynamic atexit destructor for 'mapSpecialTimes''
text$yd	ENDS
; Function compile flags: /Ogtp
; File C:\Program Files (x86)\Microsoft Visual Studio\2019\Community\VC\Tools\MSVC\14.29.30133\atlmfc\include\afx.inl
;	COMDAT ??_G?$CTypedPtrMap@VCMapPtrToPtr@@PAXPAX@@UAEPAXI@Z
_TEXT	SEGMENT
___flags$ = 8						; size = 4
??_G?$CTypedPtrMap@VCMapPtrToPtr@@PAXPAX@@UAEPAXI@Z PROC ; CTypedPtrMap<CMapPtrToPtr,void *,void *>::`scalar deleting destructor', COMDAT
; _this$ = ecx
  00000	55		 push	 ebp
  00001	8b ec		 mov	 ebp, esp
  00003	56		 push	 esi
  00004	8b f1		 mov	 esi, ecx
  00006	e8 00 00 00 00	 call	 ??1CMapPtrToPtr@@UAE@XZ	; CMapPtrToPtr::~CMapPtrToPtr
  0000b	8b 45 08	 mov	 eax, DWORD PTR ___flags$[ebp]
  0000e	a8 01		 test	 al, 1
  00010	74 1f		 je	 SHORT $LN12@scalar
  00012	a8 04		 test	 al, 4
  00014	75 10		 jne	 SHORT $LN3@scalar

; 112  : 	{ ::operator delete(p); }

  00016	56		 push	 esi
  00017	e8 00 00 00 00	 call	 ??3@YAXPAX@Z		; operator delete
  0001c	83 c4 04	 add	 esp, 4
  0001f	8b c6		 mov	 eax, esi
  00021	5e		 pop	 esi
  00022	5d		 pop	 ebp
  00023	c2 04 00	 ret	 4
$LN3@scalar:
  00026	6a 1c		 push	 28			; 0000001cH
  00028	56		 push	 esi
  00029	e8 00 00 00 00	 call	 ?__global_delete@@YAXPAXI@Z ; __global_delete
  0002e	83 c4 08	 add	 esp, 8
$LN12@scalar:
  00031	8b c6		 mov	 eax, esi
  00033	5e		 pop	 esi
  00034	5d		 pop	 ebp
  00035	c2 04 00	 ret	 4
??_G?$CTypedPtrMap@VCMapPtrToPtr@@PAXPAX@@UAEPAXI@Z ENDP ; CTypedPtrMap<CMapPtrToPtr,void *,void *>::`scalar deleting destructor'
_TEXT	ENDS
; Function compile flags: /Ogtp
;	COMDAT ??__FmapType@?1??IsPriceChartType@IMetaTable@@QAEHPBD@Z@YAXXZ
text$yd	SEGMENT
??__FmapType@?1??IsPriceChartType@IMetaTable@@QAEHPBD@Z@YAXXZ PROC ; `IMetaTable::IsPriceChartType'::`2'::`dynamic atexit destructor for 'mapType'', COMDAT
  00000	b9 00 00 00 00	 mov	 ecx, OFFSET ?mapType@?1??IsPriceChartType@IMetaTable@@QAEHPBD@Z@4VCMapStringToWord@@A
  00005	e9 00 00 00 00	 jmp	 ??1CMapStringToPtr@@UAE@XZ ; CMapStringToPtr::~CMapStringToPtr
??__FmapType@?1??IsPriceChartType@IMetaTable@@QAEHPBD@Z@YAXXZ ENDP ; `IMetaTable::IsPriceChartType'::`2'::`dynamic atexit destructor for 'mapType''
text$yd	ENDS
; Function compile flags: /Ogtp
;	COMDAT ??__Fg_iMetaTable@@YAXXZ
text$yd	SEGMENT
??__Fg_iMetaTable@@YAXXZ PROC				; `dynamic atexit destructor for 'g_iMetaTable'', COMDAT
  00000	b9 00 00 00 00	 mov	 ecx, OFFSET ?g_iMetaTable@@3VIMetaTable@@A ; g_iMetaTable
  00005	e9 00 00 00 00	 jmp	 ??1IMetaTable@@UAE@XZ	; IMetaTable::~IMetaTable
??__Fg_iMetaTable@@YAXXZ ENDP				; `dynamic atexit destructor for 'g_iMetaTable''
text$yd	ENDS
; Function compile flags: /Ogtp
; File D:\git\src\IBK\IBK_DRFN\ProjSrc\SrcChartEx\ChartOCX\Include_Chart\Dll_Load\IMetaTable.cpp
;	COMDAT ??__Eg_iMetaTable@@YAXXZ
text$di	SEGMENT
??__Eg_iMetaTable@@YAXXZ PROC				; `dynamic initializer for 'g_iMetaTable'', COMDAT

; 18   : {

  00000	b9 10 00 00 00	 mov	 ecx, OFFSET ?g_iMetaTable@@3VIMetaTable@@A+16
  00005	ff 15 00 00 00
	00		 call	 DWORD PTR __imp_??0?$CStringT@DV?$StrTraitMFC_DLL@DV?$ChTraitsCRT@D@ATL@@@@@ATL@@QAE@XZ

; 15   : IMetaTable	g_iMetaTable;

  0000b	68 00 00 00 00	 push	 OFFSET ??__Fg_iMetaTable@@YAXXZ ; `dynamic atexit destructor for 'g_iMetaTable''

; 19   : 	m_szMetaTables		= NULL;

  00010	c7 05 54 00 00
	00 00 00 00 00	 mov	 DWORD PTR ?g_iMetaTable@@3VIMetaTable@@A+84, 0

; 20   : 	m_szIndicatorNames	= NULL;

  0001a	c7 05 a8 00 00
	00 00 00 00 00	 mov	 DWORD PTR ?g_iMetaTable@@3VIMetaTable@@A+168, 0

; 15   : IMetaTable	g_iMetaTable;

  00024	e8 00 00 00 00	 call	 _atexit
  00029	59		 pop	 ecx
  0002a	c3		 ret	 0
??__Eg_iMetaTable@@YAXXZ ENDP				; `dynamic initializer for 'g_iMetaTable''
text$di	ENDS
; Function compile flags: /Ogtp
; File C:\Program Files (x86)\Microsoft Visual Studio\2019\Community\VC\Tools\MSVC\14.29.30133\atlmfc\include\afx.inl
;	COMDAT ??_GCMapStringToWord@@UAEPAXI@Z
_TEXT	SEGMENT
___flags$ = 8						; size = 4
??_GCMapStringToWord@@UAEPAXI@Z PROC			; CMapStringToWord::`scalar deleting destructor', COMDAT
; _this$ = ecx
  00000	55		 push	 ebp
  00001	8b ec		 mov	 ebp, esp
  00003	56		 push	 esi
  00004	8b f1		 mov	 esi, ecx
  00006	e8 00 00 00 00	 call	 ??1CMapStringToPtr@@UAE@XZ ; CMapStringToPtr::~CMapStringToPtr
  0000b	8b 45 08	 mov	 eax, DWORD PTR ___flags$[ebp]
  0000e	a8 01		 test	 al, 1
  00010	74 1f		 je	 SHORT $LN12@scalar
  00012	a8 04		 test	 al, 4
  00014	75 10		 jne	 SHORT $LN3@scalar

; 112  : 	{ ::operator delete(p); }

  00016	56		 push	 esi
  00017	e8 00 00 00 00	 call	 ??3@YAXPAX@Z		; operator delete
  0001c	83 c4 04	 add	 esp, 4
  0001f	8b c6		 mov	 eax, esi
  00021	5e		 pop	 esi
  00022	5d		 pop	 ebp
  00023	c2 04 00	 ret	 4
$LN3@scalar:
  00026	6a 1c		 push	 28			; 0000001cH
  00028	56		 push	 esi
  00029	e8 00 00 00 00	 call	 ?__global_delete@@YAXPAXI@Z ; __global_delete
  0002e	83 c4 08	 add	 esp, 8
$LN12@scalar:
  00031	8b c6		 mov	 eax, esi
  00033	5e		 pop	 esi
  00034	5d		 pop	 ebp
  00035	c2 04 00	 ret	 4
??_GCMapStringToWord@@UAEPAXI@Z ENDP			; CMapStringToWord::`scalar deleting destructor'
_TEXT	ENDS
; Function compile flags: /Ogtp
; File D:\git\src\IBK\IBK_DRFN\ProjSrc\SrcChartEx\ChartOCX\Include\ProgIDInfo.h
; File C:\Program Files (x86)\Microsoft Visual Studio\2019\Community\VC\Tools\MSVC\14.29.30133\atlmfc\include\atlsimpstr.h
; File D:\git\src\IBK\IBK_DRFN\ProjSrc\SrcChartEx\ChartOCX\Include\ProgIDInfo.h
; File C:\Program Files (x86)\Windows Kits\10\Include\10.0.22000.0\ucrt\string.h
; File D:\git\src\IBK\IBK_DRFN\ProjSrc\SrcChartEx\ChartOCX\Include\ProgIDInfo.h
;	COMDAT ?ComServerFromProgID@CProgIDInfo@@SAJPBDAAV?$CStringT@DV?$StrTraitMFC_DLL@DV?$ChTraitsCRT@D@ATL@@@@@ATL@@@Z
_TEXT	SEGMENT
_dwDataType$2 = -36					; size = 4
_dwReceivedSize$3 = -32					; size = 4
_strClsID$ = -28					; size = 4
_hKey$4 = -24						; size = 4
_strShortServerPath$5 = -20				; size = 4
_strSubKey$6 = -16					; size = 4
__$EHRec$ = -12						; size = 12
_p_szProgID$ = 8					; size = 4
_p_strComServer$ = 12					; size = 4
?ComServerFromProgID@CProgIDInfo@@SAJPBDAAV?$CStringT@DV?$StrTraitMFC_DLL@DV?$ChTraitsCRT@D@ATL@@@@@ATL@@@Z PROC ; CProgIDInfo::ComServerFromProgID, COMDAT

; 217  : 	{

  00000	55		 push	 ebp
  00001	8b ec		 mov	 ebp, esp
  00003	6a ff		 push	 -1
  00005	68 00 00 00 00	 push	 __ehhandler$?ComServerFromProgID@CProgIDInfo@@SAJPBDAAV?$CStringT@DV?$StrTraitMFC_DLL@DV?$ChTraitsCRT@D@ATL@@@@@ATL@@@Z
  0000a	64 a1 00 00 00
	00		 mov	 eax, DWORD PTR fs:0
  00010	50		 push	 eax
  00011	83 ec 18	 sub	 esp, 24			; 00000018H
  00014	56		 push	 esi
  00015	57		 push	 edi
  00016	a1 00 00 00 00	 mov	 eax, DWORD PTR ___security_cookie
  0001b	33 c5		 xor	 eax, ebp
  0001d	50		 push	 eax
  0001e	8d 45 f4	 lea	 eax, DWORD PTR __$EHRec$[ebp]
  00021	64 a3 00 00 00
	00		 mov	 DWORD PTR fs:0, eax

; 218  : 		// 1.  String CLSID .
; 219  : 		CString strClsID;

  00027	8d 4d e4	 lea	 ecx, DWORD PTR _strClsID$[ebp]
  0002a	ff 15 00 00 00
	00		 call	 DWORD PTR __imp_??0?$CStringT@DV?$StrTraitMFC_DLL@DV?$ChTraitsCRT@D@ATL@@@@@ATL@@QAE@XZ

; 220  : 		long lResult = StringCLSIDFromProgID( p_szProgID, strClsID);

  00030	8d 45 e4	 lea	 eax, DWORD PTR _strClsID$[ebp]
  00033	c7 45 fc 00 00
	00 00		 mov	 DWORD PTR __$EHRec$[ebp+8], 0
  0003a	50		 push	 eax
  0003b	ff 75 08	 push	 DWORD PTR _p_szProgID$[ebp]
  0003e	e8 00 00 00 00	 call	 ?StringCLSIDFromProgID@CProgIDInfo@@SAJPBDAAV?$CStringT@DV?$StrTraitMFC_DLL@DV?$ChTraitsCRT@D@ATL@@@@@ATL@@@Z ; CProgIDInfo::StringCLSIDFromProgID
  00043	83 c4 08	 add	 esp, 8

; 221  : 		if( lResult < 0) return lResult * 10 - 1;

  00046	85 c0		 test	 eax, eax
  00048	79 0f		 jns	 SHORT $LN2@ComServerF
  0004a	8d 04 80	 lea	 eax, DWORD PTR [eax+eax*4]
  0004d	8d 34 45 ff ff
	ff ff		 lea	 esi, DWORD PTR [eax*2-1]
  00054	e9 8f 01 00 00	 jmp	 $LN7@ComServerF
$LN2@ComServerF:
; File C:\Program Files (x86)\Microsoft Visual Studio\2019\Community\VC\Tools\MSVC\14.29.30133\atlmfc\include\atlsimpstr.h

; 377  : 		return( m_pszData );

  00059	8b 75 e4	 mov	 esi, DWORD PTR _strClsID$[ebp]
; File D:\git\src\IBK\IBK_DRFN\ProjSrc\SrcChartEx\ChartOCX\Include\ProgIDInfo.h

; 170  : 		CString strSubKey;

  0005c	8d 4d f0	 lea	 ecx, DWORD PTR _strSubKey$6[ebp]
  0005f	ff 15 00 00 00
	00		 call	 DWORD PTR __imp_??0?$CStringT@DV?$StrTraitMFC_DLL@DV?$ChTraitsCRT@D@ATL@@@@@ATL@@QAE@XZ

; 171  : 		char *szSubKey = strSubKey.GetBufferSetLength( 6 + 38 + 15);

  00065	6a 3b		 push	 59			; 0000003bH
  00067	8d 4d f0	 lea	 ecx, DWORD PTR _strSubKey$6[ebp]
  0006a	c6 45 fc 01	 mov	 BYTE PTR __$EHRec$[ebp+8], 1
  0006e	ff 15 00 00 00
	00		 call	 DWORD PTR __imp_?GetBufferSetLength@?$CSimpleStringT@D$00@ATL@@QAEPADH@Z

; 172  : 		strcpy( szSubKey, "CLSID\\");

  00074	8b 0d 00 00 00
	00		 mov	 ecx, DWORD PTR ??_C@_06JHNIBAJK@CLSID?2@
  0007a	8b f8		 mov	 edi, eax
  0007c	89 0f		 mov	 DWORD PTR [edi], ecx
  0007e	66 8b 0d 04 00
	00 00		 mov	 cx, WORD PTR ??_C@_06JHNIBAJK@CLSID?2@+4
  00085	66 89 4f 04	 mov	 WORD PTR [edi+4], cx
  00089	8a 0d 06 00 00
	00		 mov	 cl, BYTE PTR ??_C@_06JHNIBAJK@CLSID?2@+6
  0008f	88 4f 06	 mov	 BYTE PTR [edi+6], cl

; 173  : 		strcpy( szSubKey + 6, p_szClsID);

  00092	8b cf		 mov	 ecx, edi
  00094	2b ce		 sub	 ecx, esi
$LL17@ComServerF:
  00096	8a 06		 mov	 al, BYTE PTR [esi]
  00098	8d 76 01	 lea	 esi, DWORD PTR [esi+1]
  0009b	88 44 31 05	 mov	 BYTE PTR [ecx+esi+5], al
  0009f	84 c0		 test	 al, al
  000a1	75 f3		 jne	 SHORT $LL17@ComServerF

; 174  : 		strcpy( szSubKey + 6 + 38, "\\InprocServer32");

  000a3	0f 10 05 00 00
	00 00		 movups	 xmm0, XMMWORD PTR ??_C@_0BA@CCGIMEPP@?2InprocServer32@

; 175  : 		// 1. Key Open.
; 176  : 		HKEY hKey;
; 177  : 		if( RegOpenKeyEx( HKEY_CLASSES_ROOT, szSubKey, 0, KEY_QUERY_VALUE, &hKey) != ERROR_SUCCESS)

  000aa	8b 35 00 00 00
	00		 mov	 esi, DWORD PTR __imp__RegOpenKeyExA@20
  000b0	8d 45 e8	 lea	 eax, DWORD PTR _hKey$4[ebp]
  000b3	50		 push	 eax
  000b4	6a 01		 push	 1
  000b6	6a 00		 push	 0
  000b8	57		 push	 edi
  000b9	68 00 00 00 80	 push	 -2147483648		; 80000000H
  000be	0f 11 47 2c	 movups	 XMMWORD PTR [edi+44], xmm0
  000c2	ff d6		 call	 esi
  000c4	85 c0		 test	 eax, eax
  000c6	74 4e		 je	 SHORT $LN12@ComServerF

; 178  : 		{
; 179  : 			// 1.1 InprocServer32  LocalServer32 .
; 180  : 			strcpy( szSubKey + 6 + 38, "\\LocalServer32");

  000c8	f3 0f 7e 05 00
	00 00 00	 movq	 xmm0, QWORD PTR ??_C@_0P@IKCDKIKH@?2LocalServer32@
  000d0	66 0f d6 47 2c	 movq	 QWORD PTR [edi+44], xmm0
  000d5	a1 08 00 00 00	 mov	 eax, DWORD PTR ??_C@_0P@IKCDKIKH@?2LocalServer32@+8
  000da	89 47 34	 mov	 DWORD PTR [edi+52], eax
  000dd	66 a1 0c 00 00
	00		 mov	 ax, WORD PTR ??_C@_0P@IKCDKIKH@?2LocalServer32@+12
  000e3	66 89 47 38	 mov	 WORD PTR [edi+56], ax
  000e7	a0 0e 00 00 00	 mov	 al, BYTE PTR ??_C@_0P@IKCDKIKH@?2LocalServer32@+14
  000ec	88 47 3a	 mov	 BYTE PTR [edi+58], al

; 181  : 			if( RegOpenKeyEx( HKEY_CLASSES_ROOT, szSubKey, 0, KEY_QUERY_VALUE, &hKey) != ERROR_SUCCESS)

  000ef	8d 45 e8	 lea	 eax, DWORD PTR _hKey$4[ebp]
  000f2	50		 push	 eax
  000f3	6a 01		 push	 1
  000f5	6a 00		 push	 0
  000f7	57		 push	 edi
  000f8	68 00 00 00 80	 push	 -2147483648		; 80000000H
  000fd	ff d6		 call	 esi
  000ff	85 c0		 test	 eax, eax
  00101	74 13		 je	 SHORT $LN12@ComServerF

; 182  : 				return -1;

  00103	8d 4d f0	 lea	 ecx, DWORD PTR _strSubKey$6[ebp]
  00106	ff 15 00 00 00
	00		 call	 DWORD PTR __imp_??1?$CStringT@DV?$StrTraitMFC_DLL@DV?$ChTraitsCRT@D@ATL@@@@@ATL@@QAE@XZ
  0010c	be f4 ff ff ff	 mov	 esi, -12		; fffffff4H
  00111	e9 d2 00 00 00	 jmp	 $LN7@ComServerF
$LN12@ComServerF:

; 183  : 		}
; 184  : 		// 2. ComServer   .(Default Value.)
; 185  : 		DWORD dwDataType, dwReceivedSize = _MAX_PATH;
; 186  : 		CString strShortServerPath;

  00116	8d 4d ec	 lea	 ecx, DWORD PTR _strShortServerPath$5[ebp]
  00119	c7 45 e0 04 01
	00 00		 mov	 DWORD PTR _dwReceivedSize$3[ebp], 260 ; 00000104H
  00120	ff 15 00 00 00
	00		 call	 DWORD PTR __imp_??0?$CStringT@DV?$StrTraitMFC_DLL@DV?$ChTraitsCRT@D@ATL@@@@@ATL@@QAE@XZ

; 187  : 		char *szShortServerPath = strShortServerPath.GetBufferSetLength( dwReceivedSize);

  00126	ff 75 e0	 push	 DWORD PTR _dwReceivedSize$3[ebp]
  00129	8d 4d ec	 lea	 ecx, DWORD PTR _strShortServerPath$5[ebp]
  0012c	c6 45 fc 02	 mov	 BYTE PTR __$EHRec$[ebp+8], 2
  00130	ff 15 00 00 00
	00		 call	 DWORD PTR __imp_?GetBufferSetLength@?$CSimpleStringT@D$00@ATL@@QAEPADH@Z
  00136	8b f0		 mov	 esi, eax

; 188  : 		RegQueryValueEx( hKey, NULL, 0, &dwDataType, ( unsigned char *)szShortServerPath, &dwReceivedSize);

  00138	8d 45 e0	 lea	 eax, DWORD PTR _dwReceivedSize$3[ebp]
  0013b	50		 push	 eax
  0013c	56		 push	 esi
  0013d	8d 45 dc	 lea	 eax, DWORD PTR _dwDataType$2[ebp]
  00140	50		 push	 eax
  00141	6a 00		 push	 0
  00143	6a 00		 push	 0
  00145	ff 75 e8	 push	 DWORD PTR _hKey$4[ebp]
  00148	ff 15 00 00 00
	00		 call	 DWORD PTR __imp__RegQueryValueExA@24

; 189  : 		// 3. Key .
; 190  : 		RegCloseKey( hKey);

  0014e	ff 75 e8	 push	 DWORD PTR _hKey$4[ebp]
  00151	ff 15 00 00 00
	00		 call	 DWORD PTR __imp__RegCloseKey@4

; 191  : 		// 4.  Com Server Path .
; 192  : 		if( !*szShortServerPath) return -2;

  00157	80 3e 00	 cmp	 BYTE PTR [esi], 0
  0015a	75 19		 jne	 SHORT $LN13@ComServerF
  0015c	8d 4d ec	 lea	 ecx, DWORD PTR _strShortServerPath$5[ebp]
  0015f	ff 15 00 00 00
	00		 call	 DWORD PTR __imp_??1?$CStringT@DV?$StrTraitMFC_DLL@DV?$ChTraitsCRT@D@ATL@@@@@ATL@@QAE@XZ
  00165	8d 4d f0	 lea	 ecx, DWORD PTR _strSubKey$6[ebp]
  00168	ff 15 00 00 00
	00		 call	 DWORD PTR __imp_??1?$CStringT@DV?$StrTraitMFC_DLL@DV?$ChTraitsCRT@D@ATL@@@@@ATL@@QAE@XZ
  0016e	be ea ff ff ff	 mov	 esi, -22		; ffffffeaH
  00173	eb 73		 jmp	 SHORT $LN7@ComServerF
$LN13@ComServerF:
; File C:\Program Files (x86)\Windows Kits\10\Include\10.0.22000.0\ucrt\string.h

; 514  :         return const_cast<char*>(strrchr(static_cast<char const*>(_String), _Ch));

  00175	6a 2e		 push	 46			; 0000002eH
  00177	56		 push	 esi
  00178	e8 00 00 00 00	 call	 _strrchr
  0017d	83 c4 08	 add	 esp, 8
; File D:\git\src\IBK\IBK_DRFN\ProjSrc\SrcChartEx\ChartOCX\Include\ProgIDInfo.h

; 195  : 		if( !szExtension) return -3;

  00180	85 c0		 test	 eax, eax
  00182	75 19		 jne	 SHORT $LN14@ComServerF
  00184	8d 4d ec	 lea	 ecx, DWORD PTR _strShortServerPath$5[ebp]
  00187	ff 15 00 00 00
	00		 call	 DWORD PTR __imp_??1?$CStringT@DV?$StrTraitMFC_DLL@DV?$ChTraitsCRT@D@ATL@@@@@ATL@@QAE@XZ
  0018d	8d 4d f0	 lea	 ecx, DWORD PTR _strSubKey$6[ebp]
  00190	ff 15 00 00 00
	00		 call	 DWORD PTR __imp_??1?$CStringT@DV?$StrTraitMFC_DLL@DV?$ChTraitsCRT@D@ATL@@@@@ATL@@QAE@XZ
  00196	be e0 ff ff ff	 mov	 esi, -32		; ffffffe0H
  0019b	eb 4b		 jmp	 SHORT $LN7@ComServerF
$LN14@ComServerF:

; 196  : 		szExtension[ 4] = '\0';
; 197  : 		// 6. Long File Path .
; 198  : 		char *szLongServerPath = p_strComServer.GetBuffer( _MAX_PATH);

  0019d	8b 4d 0c	 mov	 ecx, DWORD PTR _p_strComServer$[ebp]
  001a0	68 04 01 00 00	 push	 260			; 00000104H
  001a5	c6 40 04 00	 mov	 BYTE PTR [eax+4], 0
  001a9	ff 15 00 00 00
	00		 call	 DWORD PTR __imp_?GetBuffer@?$CSimpleStringT@D$00@ATL@@QAEPADH@Z

; 199  : 		DWORD dwLongPath = GetLongPathName( szShortServerPath, szLongServerPath, _MAX_PATH);

  001af	68 04 01 00 00	 push	 260			; 00000104H
  001b4	50		 push	 eax
  001b5	56		 push	 esi
  001b6	ff 15 00 00 00
	00		 call	 DWORD PTR __imp__GetLongPathNameA@12

; 200  : 		p_strComServer.ReleaseBuffer();

  001bc	8b 4d 0c	 mov	 ecx, DWORD PTR _p_strComServer$[ebp]
  001bf	8b f0		 mov	 esi, eax
  001c1	6a ff		 push	 -1
  001c3	ff 15 00 00 00
	00		 call	 DWORD PTR __imp_?ReleaseBuffer@?$CSimpleStringT@D$00@ATL@@QAEXH@Z

; 201  : 		if( !dwLongPath) return -4;

  001c9	8d 4d ec	 lea	 ecx, DWORD PTR _strShortServerPath$5[ebp]
  001cc	ff 15 00 00 00
	00		 call	 DWORD PTR __imp_??1?$CStringT@DV?$StrTraitMFC_DLL@DV?$ChTraitsCRT@D@ATL@@@@@ATL@@QAE@XZ
  001d2	8d 4d f0	 lea	 ecx, DWORD PTR _strSubKey$6[ebp]
  001d5	ff 15 00 00 00
	00		 call	 DWORD PTR __imp_??1?$CStringT@DV?$StrTraitMFC_DLL@DV?$ChTraitsCRT@D@ATL@@@@@ATL@@QAE@XZ
  001db	85 f6		 test	 esi, esi
  001dd	75 07		 jne	 SHORT $LN15@ComServerF
  001df	be d6 ff ff ff	 mov	 esi, -42		; ffffffd6H
  001e4	eb 02		 jmp	 SHORT $LN7@ComServerF
$LN15@ComServerF:

; 222  : 		// 2. String CLSID Com Server .
; 223  : 		lResult = ComServerFromStringCLSID( strClsID, p_strComServer);
; 224  : 		if( lResult < 0) return lResult * 10 - 2;
; 225  : 		return 0;

  001e6	33 f6		 xor	 esi, esi
$LN7@ComServerF:
  001e8	8d 4d e4	 lea	 ecx, DWORD PTR _strClsID$[ebp]
  001eb	ff 15 00 00 00
	00		 call	 DWORD PTR __imp_??1?$CStringT@DV?$StrTraitMFC_DLL@DV?$ChTraitsCRT@D@ATL@@@@@ATL@@QAE@XZ
  001f1	8b c6		 mov	 eax, esi

; 226  : 	}

  001f3	8b 4d f4	 mov	 ecx, DWORD PTR __$EHRec$[ebp]
  001f6	64 89 0d 00 00
	00 00		 mov	 DWORD PTR fs:0, ecx
  001fd	59		 pop	 ecx
  001fe	5f		 pop	 edi
  001ff	5e		 pop	 esi
  00200	8b e5		 mov	 esp, ebp
  00202	5d		 pop	 ebp
  00203	c3		 ret	 0
_TEXT	ENDS
;	COMDAT text$x
text$x	SEGMENT
__unwindfunclet$?ComServerFromProgID@CProgIDInfo@@SAJPBDAAV?$CStringT@DV?$StrTraitMFC_DLL@DV?$ChTraitsCRT@D@ATL@@@@@ATL@@@Z$0:
  00000	8d 4d e4	 lea	 ecx, DWORD PTR _strClsID$[ebp]
  00003	ff 25 00 00 00
	00		 jmp	 DWORD PTR __imp_??1?$CStringT@DV?$StrTraitMFC_DLL@DV?$ChTraitsCRT@D@ATL@@@@@ATL@@QAE@XZ
__unwindfunclet$?ComServerFromProgID@CProgIDInfo@@SAJPBDAAV?$CStringT@DV?$StrTraitMFC_DLL@DV?$ChTraitsCRT@D@ATL@@@@@ATL@@@Z$1:
  00009	8d 4d f0	 lea	 ecx, DWORD PTR _strSubKey$6[ebp]
  0000c	ff 25 00 00 00
	00		 jmp	 DWORD PTR __imp_??1?$CStringT@DV?$StrTraitMFC_DLL@DV?$ChTraitsCRT@D@ATL@@@@@ATL@@QAE@XZ
__unwindfunclet$?ComServerFromProgID@CProgIDInfo@@SAJPBDAAV?$CStringT@DV?$StrTraitMFC_DLL@DV?$ChTraitsCRT@D@ATL@@@@@ATL@@@Z$2:
  00012	8d 4d ec	 lea	 ecx, DWORD PTR _strShortServerPath$5[ebp]
  00015	ff 25 00 00 00
	00		 jmp	 DWORD PTR __imp_??1?$CStringT@DV?$StrTraitMFC_DLL@DV?$ChTraitsCRT@D@ATL@@@@@ATL@@QAE@XZ
  0001b	cc		 int	 3
  0001c	cc		 int	 3
  0001d	cc		 int	 3
  0001e	cc		 int	 3
  0001f	cc		 int	 3
__ehhandler$?ComServerFromProgID@CProgIDInfo@@SAJPBDAAV?$CStringT@DV?$StrTraitMFC_DLL@DV?$ChTraitsCRT@D@ATL@@@@@ATL@@@Z:
  00020	90		 npad	 1
  00021	90		 npad	 1
  00022	8b 54 24 08	 mov	 edx, DWORD PTR [esp+8]
  00026	8d 42 0c	 lea	 eax, DWORD PTR [edx+12]
  00029	8b 4a dc	 mov	 ecx, DWORD PTR [edx-36]
  0002c	33 c8		 xor	 ecx, eax
  0002e	e8 00 00 00 00	 call	 @__security_check_cookie@4
  00033	b8 00 00 00 00	 mov	 eax, OFFSET __ehfuncinfo$?ComServerFromProgID@CProgIDInfo@@SAJPBDAAV?$CStringT@DV?$StrTraitMFC_DLL@DV?$ChTraitsCRT@D@ATL@@@@@ATL@@@Z
  00038	e9 00 00 00 00	 jmp	 ___CxxFrameHandler3
text$x	ENDS
?ComServerFromProgID@CProgIDInfo@@SAJPBDAAV?$CStringT@DV?$StrTraitMFC_DLL@DV?$ChTraitsCRT@D@ATL@@@@@ATL@@@Z ENDP ; CProgIDInfo::ComServerFromProgID
; Function compile flags: /Ogtp
; File D:\git\src\IBK\IBK_DRFN\ProjSrc\SrcChartEx\ChartOCX\Include\ProgIDInfo.h
; File C:\Program Files (x86)\Microsoft Visual Studio\2019\Community\VC\Tools\MSVC\14.29.30133\atlmfc\include\atlconv.h
; File D:\git\src\IBK\IBK_DRFN\ProjSrc\SrcChartEx\ChartOCX\Include\ProgIDInfo.h
; File C:\Program Files (x86)\Microsoft Visual Studio\2019\Community\VC\Tools\MSVC\14.29.30133\atlmfc\include\atlconv.h
; File D:\git\src\IBK\IBK_DRFN\ProjSrc\SrcChartEx\ChartOCX\Include\ProgIDInfo.h
;	COMDAT ?StringCLSIDFromProgID@CProgIDInfo@@SAJPBDAAV?$CStringT@DV?$StrTraitMFC_DLL@DV?$ChTraitsCRT@D@ATL@@@@@ATL@@@Z
_TEXT	SEGMENT
_p_strClsID$GSCopy$1$ = -44				; size = 4
_oleClsID$1 = -40					; size = 4
_p_clsID$ = -36						; size = 16
_clsID$ = -20						; size = 16
__$ArrayPad$ = -4					; size = 4
_p_szProgID$ = 8					; size = 4
_p_strClsID$ = 12					; size = 4
?StringCLSIDFromProgID@CProgIDInfo@@SAJPBDAAV?$CStringT@DV?$StrTraitMFC_DLL@DV?$ChTraitsCRT@D@ATL@@@@@ATL@@@Z PROC ; CProgIDInfo::StringCLSIDFromProgID, COMDAT

; 123  : 	{

  00000	55		 push	 ebp
  00001	8b ec		 mov	 ebp, esp
  00003	83 ec 2c	 sub	 esp, 44			; 0000002cH
  00006	a1 00 00 00 00	 mov	 eax, DWORD PTR ___security_cookie
  0000b	33 c5		 xor	 eax, ebp
  0000d	89 45 fc	 mov	 DWORD PTR __$ArrayPad$[ebp], eax
  00010	8b 45 0c	 mov	 eax, DWORD PTR _p_strClsID$[ebp]
  00013	53		 push	 ebx
  00014	56		 push	 esi
  00015	8b 75 08	 mov	 esi, DWORD PTR _p_szProgID$[ebp]
  00018	89 45 d4	 mov	 DWORD PTR _p_strClsID$GSCopy$1$[ebp], eax
  0001b	57		 push	 edi

; 51   : 		LPCOLESTR szOleProgID = T2COLE( p_szProgID);

  0001c	85 f6		 test	 esi, esi
  0001e	74 42		 je	 SHORT $LN18@StringCLSI
  00020	8b ce		 mov	 ecx, esi
  00022	8d 51 01	 lea	 edx, DWORD PTR [ecx+1]
$LL35@StringCLSI:
  00025	8a 01		 mov	 al, BYTE PTR [ecx]
  00027	41		 inc	 ecx
  00028	84 c0		 test	 al, al
  0002a	75 f9		 jne	 SHORT $LL35@StringCLSI
  0002c	2b ca		 sub	 ecx, edx
  0002e	8d 59 01	 lea	 ebx, DWORD PTR [ecx+1]
  00031	81 fb ff ff ff
	3f		 cmp	 ebx, 1073741823		; 3fffffffH
  00037	7f 29		 jg	 SHORT $LN18@StringCLSI
  00039	8d 04 1b	 lea	 eax, DWORD PTR [ebx+ebx]
  0003c	e8 00 00 00 00	 call	 __alloca_probe_16
  00041	8b fc		 mov	 edi, esp
; File C:\Program Files (x86)\Microsoft Visual Studio\2019\Community\VC\Tools\MSVC\14.29.30133\atlmfc\include\atlconv.h

; 566  : 	if (lpw == NULL || lpa == NULL)

  00043	85 ff		 test	 edi, edi
  00045	74 1b		 je	 SHORT $LN18@StringCLSI

; 567  : 		return NULL;
; 568  : 	// verify that no illegal character present
; 569  : 	// since lpw was allocated based on the size of lpa
; 570  : 	// don't worry about the number of chars
; 571  : 	*lpw = '\0';
; 572  : 	int ret = MultiByteToWideChar(acp, 0, lpa, -1, lpw, nChars);

  00047	53		 push	 ebx
  00048	57		 push	 edi
  00049	6a ff		 push	 -1
  0004b	33 c0		 xor	 eax, eax
  0004d	56		 push	 esi
  0004e	50		 push	 eax
  0004f	6a 03		 push	 3
  00051	66 89 07	 mov	 WORD PTR [edi], ax
  00054	ff 15 00 00 00
	00		 call	 DWORD PTR __imp__MultiByteToWideChar@24

; 573  : 	if(ret == 0)

  0005a	f7 d8		 neg	 eax
  0005c	1b c0		 sbb	 eax, eax
  0005e	23 c7		 and	 eax, edi

; 574  : 	{
; 575  : 		ATLASSERT(FALSE);
; 576  : 		return NULL;
; 577  : 	}
; 578  : 	return lpw;

  00060	eb 02		 jmp	 SHORT $LN15@StringCLSI
$LN18@StringCLSI:
; File D:\git\src\IBK\IBK_DRFN\ProjSrc\SrcChartEx\ChartOCX\Include\ProgIDInfo.h

; 52   : 		HRESULT hResult = ::CLSIDFromProgID( szOleProgID, p_pClsID);

  00062	33 c0		 xor	 eax, eax
$LN15@StringCLSI:
  00064	8d 4d ec	 lea	 ecx, DWORD PTR _clsID$[ebp]
  00067	51		 push	 ecx
  00068	50		 push	 eax
  00069	ff 15 00 00 00
	00		 call	 DWORD PTR __imp__CLSIDFromProgID@8
  0006f	8b c8		 mov	 ecx, eax

; 53   : 		if( hResult == S_OK) return 0;

  00071	85 c9		 test	 ecx, ecx
  00073	74 48		 je	 SHORT $LN2@StringCLSI

; 54   : 		else if( hResult == CO_E_CLASSSTRING) return -1;

  00075	81 f9 f3 01 04
	80		 cmp	 ecx, -2147221005	; 800401f3H
  0007b	75 19		 jne	 SHORT $LN8@StringCLSI
  0007d	b8 f5 ff ff ff	 mov	 eax, -11		; fffffff5H

; 132  : 	}

  00082	8d 65 c8	 lea	 esp, DWORD PTR [ebp-56]
  00085	5f		 pop	 edi
  00086	5e		 pop	 esi
  00087	5b		 pop	 ebx
  00088	8b 4d fc	 mov	 ecx, DWORD PTR __$ArrayPad$[ebp]
  0008b	33 cd		 xor	 ecx, ebp
  0008d	e8 00 00 00 00	 call	 @__security_check_cookie@4
  00092	8b e5		 mov	 esp, ebp
  00094	5d		 pop	 ebp
  00095	c3		 ret	 0
$LN8@StringCLSI:

; 55   : 		else if( hResult == REGDB_E_WRITEREGDB) return -2;

  00096	81 f9 51 01 04
	80		 cmp	 ecx, -2147221167	; 80040151H
  0009c	b8 e1 ff ff ff	 mov	 eax, -31		; ffffffe1H
  000a1	ba eb ff ff ff	 mov	 edx, -21		; ffffffebH
  000a6	0f 44 c2	 cmove	 eax, edx

; 132  : 	}

  000a9	8d 65 c8	 lea	 esp, DWORD PTR [ebp-56]
  000ac	5f		 pop	 edi
  000ad	5e		 pop	 esi
  000ae	5b		 pop	 ebx
  000af	8b 4d fc	 mov	 ecx, DWORD PTR __$ArrayPad$[ebp]
  000b2	33 cd		 xor	 ecx, ebp
  000b4	e8 00 00 00 00	 call	 @__security_check_cookie@4
  000b9	8b e5		 mov	 esp, ebp
  000bb	5d		 pop	 ebp
  000bc	c3		 ret	 0
$LN2@StringCLSI:

; 124  : 		// 1.  CLSID .
; 125  : 		CLSID clsID;
; 126  : 		LONG lResult = CLSIDFromProgID( p_szProgID, &clsID);
; 127  : 		if( lResult < 0) return lResult * 10 - 1;
; 128  : 		// 2. String CLSID .
; 129  : 		lResult = StringFromCLSID( clsID, p_strClsID);

  000bd	0f 10 45 ec	 movups	 xmm0, XMMWORD PTR _clsID$[ebp]

; 89   : 		HRESULT hResult = ::StringFromCLSID( p_clsID, &oleClsID);

  000c1	8d 45 d8	 lea	 eax, DWORD PTR _oleClsID$1[ebp]
  000c4	50		 push	 eax
  000c5	8d 45 dc	 lea	 eax, DWORD PTR _p_clsID$[ebp]
  000c8	50		 push	 eax

; 124  : 		// 1.  CLSID .
; 125  : 		CLSID clsID;
; 126  : 		LONG lResult = CLSIDFromProgID( p_szProgID, &clsID);
; 127  : 		if( lResult < 0) return lResult * 10 - 1;
; 128  : 		// 2. String CLSID .
; 129  : 		lResult = StringFromCLSID( clsID, p_strClsID);

  000c9	0f 11 45 dc	 movups	 XMMWORD PTR _p_clsID$[ebp], xmm0

; 89   : 		HRESULT hResult = ::StringFromCLSID( p_clsID, &oleClsID);

  000cd	ff 15 00 00 00
	00		 call	 DWORD PTR __imp__StringFromCLSID@8

; 90   : 		if( hResult != S_OK) return -1;

  000d3	85 c0		 test	 eax, eax
  000d5	75 7e		 jne	 SHORT $LN34@StringCLSI

; 92   : 		p_strClsID = OLE2T( oleClsID);

  000d7	8b 7d d8	 mov	 edi, DWORD PTR _oleClsID$1[ebp]
  000da	85 ff		 test	 edi, edi
  000dc	74 4c		 je	 SHORT $LN30@StringCLSI
  000de	8b cf		 mov	 ecx, edi
  000e0	8d 51 02	 lea	 edx, DWORD PTR [ecx+2]
$LL36@StringCLSI:
  000e3	66 8b 01	 mov	 ax, WORD PTR [ecx]
  000e6	83 c1 02	 add	 ecx, 2
  000e9	66 85 c0	 test	 ax, ax
  000ec	75 f5		 jne	 SHORT $LL36@StringCLSI
  000ee	2b ca		 sub	 ecx, edx
  000f0	d1 f9		 sar	 ecx, 1
  000f2	8d 59 01	 lea	 ebx, DWORD PTR [ecx+1]
  000f5	81 fb ff ff ff
	3f		 cmp	 ebx, 1073741823		; 3fffffffH
  000fb	7f 2d		 jg	 SHORT $LN30@StringCLSI
  000fd	03 db		 add	 ebx, ebx
  000ff	8b c3		 mov	 eax, ebx
  00101	e8 00 00 00 00	 call	 __alloca_probe_16
  00106	8b f4		 mov	 esi, esp
; File C:\Program Files (x86)\Microsoft Visual Studio\2019\Community\VC\Tools\MSVC\14.29.30133\atlmfc\include\atlconv.h

; 591  : 	if (lpa == NULL || lpw == NULL)

  00108	85 f6		 test	 esi, esi
  0010a	74 1e		 je	 SHORT $LN30@StringCLSI

; 592  : 		return NULL;
; 593  : 	// verify that no illegal character present
; 594  : 	// since lpa was allocated based on the size of lpw
; 595  : 	// don't worry about the number of chars
; 596  : 	*lpa = '\0';
; 597  : 	int ret = WideCharToMultiByte(acp, 0, lpw, -1, lpa, nChars, NULL, NULL);

  0010c	6a 00		 push	 0
  0010e	6a 00		 push	 0
  00110	53		 push	 ebx
  00111	56		 push	 esi
  00112	6a ff		 push	 -1
  00114	57		 push	 edi
  00115	6a 00		 push	 0
  00117	6a 03		 push	 3
  00119	c6 06 00	 mov	 BYTE PTR [esi], 0
  0011c	ff 15 00 00 00
	00		 call	 DWORD PTR __imp__WideCharToMultiByte@32

; 598  : 	if(ret == 0)

  00122	f7 d8		 neg	 eax
  00124	1b c0		 sbb	 eax, eax
  00126	23 c6		 and	 eax, esi

; 599  : 	{
; 600  : 		ATLASSERT(FALSE);
; 601  : 		return NULL;
; 602  : 	}
; 603  : 	return lpa;

  00128	eb 02		 jmp	 SHORT $LN27@StringCLSI
$LN30@StringCLSI:
; File D:\git\src\IBK\IBK_DRFN\ProjSrc\SrcChartEx\ChartOCX\Include\ProgIDInfo.h

; 92   : 		p_strClsID = OLE2T( oleClsID);

  0012a	33 c0		 xor	 eax, eax
$LN27@StringCLSI:
  0012c	8b 4d d4	 mov	 ecx, DWORD PTR _p_strClsID$GSCopy$1$[ebp]
  0012f	50		 push	 eax
  00130	ff 15 00 00 00
	00		 call	 DWORD PTR __imp_??4?$CStringT@DV?$StrTraitMFC_DLL@DV?$ChTraitsCRT@D@ATL@@@@@ATL@@QAEAAV01@PBD@Z

; 93   : 		CoTaskMemFree( oleClsID);

  00136	ff 75 d8	 push	 DWORD PTR _oleClsID$1[ebp]
  00139	ff 15 00 00 00
	00		 call	 DWORD PTR __imp__CoTaskMemFree@4

; 131  : 		return 0;

  0013f	33 c0		 xor	 eax, eax

; 132  : 	}

  00141	8d 65 c8	 lea	 esp, DWORD PTR [ebp-56]
  00144	5f		 pop	 edi
  00145	5e		 pop	 esi
  00146	5b		 pop	 ebx
  00147	8b 4d fc	 mov	 ecx, DWORD PTR __$ArrayPad$[ebp]
  0014a	33 cd		 xor	 ecx, ebp
  0014c	e8 00 00 00 00	 call	 @__security_check_cookie@4
  00151	8b e5		 mov	 esp, ebp
  00153	5d		 pop	 ebp
  00154	c3		 ret	 0
$LN34@StringCLSI:

; 130  : 		if( lResult < 0) return lResult * 10 - 2;

  00155	b8 f4 ff ff ff	 mov	 eax, -12		; fffffff4H

; 132  : 	}

  0015a	8d 65 c8	 lea	 esp, DWORD PTR [ebp-56]
  0015d	5f		 pop	 edi
  0015e	5e		 pop	 esi
  0015f	5b		 pop	 ebx
  00160	8b 4d fc	 mov	 ecx, DWORD PTR __$ArrayPad$[ebp]
  00163	33 cd		 xor	 ecx, ebp
  00165	e8 00 00 00 00	 call	 @__security_check_cookie@4
  0016a	8b e5		 mov	 esp, ebp
  0016c	5d		 pop	 ebp
  0016d	c3		 ret	 0
?StringCLSIDFromProgID@CProgIDInfo@@SAJPBDAAV?$CStringT@DV?$StrTraitMFC_DLL@DV?$ChTraitsCRT@D@ATL@@@@@ATL@@@Z ENDP ; CProgIDInfo::StringCLSIDFromProgID
_TEXT	ENDS
; Function compile flags: /Ogtp
;	COMDAT ??_GIMetaTable@@UAEPAXI@Z
_TEXT	SEGMENT
___flags$ = 8						; size = 4
??_GIMetaTable@@UAEPAXI@Z PROC				; IMetaTable::`scalar deleting destructor', COMDAT
; _this$ = ecx
  00000	55		 push	 ebp
  00001	8b ec		 mov	 ebp, esp
  00003	56		 push	 esi
  00004	8b f1		 mov	 esi, ecx
  00006	e8 00 00 00 00	 call	 ??1IMetaTable@@UAE@XZ	; IMetaTable::~IMetaTable
  0000b	f6 45 08 01	 test	 BYTE PTR ___flags$[ebp], 1
  0000f	74 0e		 je	 SHORT $LN4@scalar
  00011	68 b4 00 00 00	 push	 180			; 000000b4H
  00016	56		 push	 esi
  00017	e8 00 00 00 00	 call	 ??3@YAXPAXI@Z		; operator delete
  0001c	83 c4 08	 add	 esp, 8
$LN4@scalar:
  0001f	8b c6		 mov	 eax, esi
  00021	5e		 pop	 esi
  00022	5d		 pop	 ebp
  00023	c2 04 00	 ret	 4
??_GIMetaTable@@UAEPAXI@Z ENDP				; IMetaTable::`scalar deleting destructor'
_TEXT	ENDS
; Function compile flags: /Ogtp
; File D:\git\src\IBK\IBK_DRFN\ProjSrc\SrcChartEx\ChartOCX\Include_Chart\Dll_Load\IMetaTable.cpp
; File C:\Program Files (x86)\Microsoft Visual Studio\2019\Community\VC\Tools\MSVC\14.29.30133\atlmfc\include\afxcoll.inl
; File D:\git\src\IBK\IBK_DRFN\ProjSrc\SrcChartEx\ChartOCX\Include_Chart\Dll_Load\IMetaTable.cpp
; File C:\Program Files (x86)\Microsoft Visual Studio\2019\Community\VC\Tools\MSVC\14.29.30133\atlmfc\include\afxcoll.inl
; File D:\git\src\IBK\IBK_DRFN\ProjSrc\SrcChartEx\ChartOCX\Include_Chart\Dll_Load\IMetaTable.cpp
; File C:\Program Files (x86)\Microsoft Visual Studio\2019\Community\VC\Tools\MSVC\14.29.30133\atlmfc\include\afxcoll.inl
; File D:\git\src\IBK\IBK_DRFN\ProjSrc\SrcChartEx\ChartOCX\Include_Chart\Dll_Load\IMetaTable.cpp
; File C:\Program Files (x86)\Microsoft Visual Studio\2019\Community\VC\Tools\MSVC\14.29.30133\atlmfc\include\afxcoll.inl
; File D:\git\src\IBK\IBK_DRFN\ProjSrc\SrcChartEx\ChartOCX\Include_Chart\Dll_Load\IMetaTable.cpp
; File C:\Program Files (x86)\Microsoft Visual Studio\2019\Community\VC\Tools\MSVC\14.29.30133\atlmfc\include\afxcoll.inl
; File D:\git\src\IBK\IBK_DRFN\ProjSrc\SrcChartEx\ChartOCX\Include_Chart\Dll_Load\IMetaTable.cpp
; File C:\Program Files (x86)\Microsoft Visual Studio\2019\Community\VC\Tools\MSVC\14.29.30133\atlmfc\include\afxcoll.inl
; File D:\git\src\IBK\IBK_DRFN\ProjSrc\SrcChartEx\ChartOCX\Include_Chart\Dll_Load\IMetaTable.cpp
; File C:\Program Files (x86)\Microsoft Visual Studio\2019\Community\VC\Tools\MSVC\14.29.30133\atlmfc\include\afxcoll.inl
; File D:\git\src\IBK\IBK_DRFN\ProjSrc\SrcChartEx\ChartOCX\Include_Chart\Dll_Load\IMetaTable.cpp
; File C:\Program Files (x86)\Microsoft Visual Studio\2019\Community\VC\Tools\MSVC\14.29.30133\atlmfc\include\afxcoll.inl
; File D:\git\src\IBK\IBK_DRFN\ProjSrc\SrcChartEx\ChartOCX\Include_Chart\Dll_Load\IMetaTable.cpp
; File C:\Program Files (x86)\Microsoft Visual Studio\2019\Community\VC\Tools\MSVC\14.29.30133\atlmfc\include\afxcoll.inl
; File D:\git\src\IBK\IBK_DRFN\ProjSrc\SrcChartEx\ChartOCX\Include_Chart\Dll_Load\IMetaTable.cpp
; File C:\Program Files (x86)\Microsoft Visual Studio\2019\Community\VC\Tools\MSVC\14.29.30133\atlmfc\include\afxcoll.inl
; File D:\git\src\IBK\IBK_DRFN\ProjSrc\SrcChartEx\ChartOCX\Include_Chart\Dll_Load\IMetaTable.cpp
; File C:\Program Files (x86)\Microsoft Visual Studio\2019\Community\VC\Tools\MSVC\14.29.30133\atlmfc\include\afxcoll.inl
; File D:\git\src\IBK\IBK_DRFN\ProjSrc\SrcChartEx\ChartOCX\Include_Chart\Dll_Load\IMetaTable.cpp
; File C:\Program Files (x86)\Microsoft Visual Studio\2019\Community\VC\Tools\MSVC\14.29.30133\atlmfc\include\afxcoll.inl
; File D:\git\src\IBK\IBK_DRFN\ProjSrc\SrcChartEx\ChartOCX\Include_Chart\Dll_Load\IMetaTable.cpp
; File C:\Program Files (x86)\Microsoft Visual Studio\2019\Community\VC\Tools\MSVC\14.29.30133\atlmfc\include\afxcoll.inl
; File D:\git\src\IBK\IBK_DRFN\ProjSrc\SrcChartEx\ChartOCX\Include_Chart\Dll_Load\IMetaTable.cpp
; File C:\Program Files (x86)\Microsoft Visual Studio\2019\Community\VC\Tools\MSVC\14.29.30133\atlmfc\include\afxcoll.inl
; File D:\git\src\IBK\IBK_DRFN\ProjSrc\SrcChartEx\ChartOCX\Include_Chart\Dll_Load\IMetaTable.cpp
; File C:\Program Files (x86)\Microsoft Visual Studio\2019\Community\VC\Tools\MSVC\14.29.30133\atlmfc\include\afxcoll.inl
; File D:\git\src\IBK\IBK_DRFN\ProjSrc\SrcChartEx\ChartOCX\Include_Chart\Dll_Load\IMetaTable.cpp
; File C:\Program Files (x86)\Microsoft Visual Studio\2019\Community\VC\Tools\MSVC\14.29.30133\atlmfc\include\afxcoll.inl
; File D:\git\src\IBK\IBK_DRFN\ProjSrc\SrcChartEx\ChartOCX\Include_Chart\Dll_Load\IMetaTable.cpp
; File C:\Program Files (x86)\Microsoft Visual Studio\2019\Community\VC\Tools\MSVC\14.29.30133\atlmfc\include\afxcoll.inl
; File D:\git\src\IBK\IBK_DRFN\ProjSrc\SrcChartEx\ChartOCX\Include_Chart\Dll_Load\IMetaTable.cpp
; File C:\Program Files (x86)\Microsoft Visual Studio\2019\Community\VC\Tools\MSVC\14.29.30133\atlmfc\include\afxcoll.inl
; File D:\git\src\IBK\IBK_DRFN\ProjSrc\SrcChartEx\ChartOCX\Include_Chart\Dll_Load\IMetaTable.cpp
; File C:\Program Files (x86)\Microsoft Visual Studio\2019\Community\VC\Tools\MSVC\14.29.30133\atlmfc\include\afxcoll.inl
; File D:\git\src\IBK\IBK_DRFN\ProjSrc\SrcChartEx\ChartOCX\Include_Chart\Dll_Load\IMetaTable.cpp
; File C:\Program Files (x86)\Microsoft Visual Studio\2019\Community\VC\Tools\MSVC\14.29.30133\atlmfc\include\afxcoll.inl
; File D:\git\src\IBK\IBK_DRFN\ProjSrc\SrcChartEx\ChartOCX\Include_Chart\Dll_Load\IMetaTable.cpp
; File C:\Program Files (x86)\Microsoft Visual Studio\2019\Community\VC\Tools\MSVC\14.29.30133\atlmfc\include\afxcoll.inl
; File C:\Program Files (x86)\Microsoft Visual Studio\2019\Community\VC\Tools\MSVC\14.29.30133\atlmfc\include\afxtempl.h
; File D:\git\src\IBK\IBK_DRFN\ProjSrc\SrcChartEx\ChartOCX\Include_Chart\Dll_Load\IMetaTable.cpp
; File C:\Program Files (x86)\Microsoft Visual Studio\2019\Community\VC\Tools\MSVC\14.29.30133\atlmfc\include\afxtempl.h
; File D:\git\src\IBK\IBK_DRFN\ProjSrc\SrcChartEx\ChartOCX\Include_Chart\Dll_Load\IMetaTable.cpp
; File C:\Program Files (x86)\Microsoft Visual Studio\2019\Community\VC\Tools\MSVC\14.29.30133\atlmfc\include\afxtempl.h
; File D:\git\src\IBK\IBK_DRFN\ProjSrc\SrcChartEx\ChartOCX\Include_Chart\Dll_Load\IMetaTable.cpp
; File C:\Program Files (x86)\Microsoft Visual Studio\2019\Community\VC\Tools\MSVC\14.29.30133\atlmfc\include\afxtempl.h
; File D:\git\src\IBK\IBK_DRFN\ProjSrc\SrcChartEx\ChartOCX\Include_Chart\Dll_Load\IMetaTable.cpp
; File C:\Program Files (x86)\Microsoft Visual Studio\2019\Community\VC\Tools\MSVC\14.29.30133\atlmfc\include\afxtempl.h
; File D:\git\src\IBK\IBK_DRFN\ProjSrc\SrcChartEx\ChartOCX\Include_Chart\Dll_Load\IMetaTable.cpp
;	COMDAT ?IsSpecialTime@IMetaTable@@QAEHH@Z
_TEXT	SEGMENT
_pTemp$ = -16						; size = 4
__$EHRec$ = -12						; size = 12
_p_nTime$ = 8						; size = 4
?IsSpecialTime@IMetaTable@@QAEHH@Z PROC			; IMetaTable::IsSpecialTime, COMDAT
; _this$ = ecx

; 935  : {

  00000	55		 push	 ebp
  00001	8b ec		 mov	 ebp, esp
  00003	6a ff		 push	 -1
  00005	68 00 00 00 00	 push	 __ehhandler$?IsSpecialTime@IMetaTable@@QAEHH@Z
  0000a	64 a1 00 00 00
	00		 mov	 eax, DWORD PTR fs:0
  00010	50		 push	 eax
  00011	51		 push	 ecx
  00012	56		 push	 esi
  00013	a1 00 00 00 00	 mov	 eax, DWORD PTR ___security_cookie
  00018	33 c5		 xor	 eax, ebp
  0001a	50		 push	 eax
  0001b	8d 45 f4	 lea	 eax, DWORD PTR __$EHRec$[ebp]
  0001e	64 a3 00 00 00
	00		 mov	 DWORD PTR fs:0, eax

; 936  : 	static CTypedPtrMap < CMapPtrToPtr, void *, void *> mapSpecialTimes;

  00024	64 a1 00 00 00
	00		 mov	 eax, DWORD PTR fs:__tls_array
  0002a	8b 0d 00 00 00
	00		 mov	 ecx, DWORD PTR __tls_index
  00030	8b 0c 88	 mov	 ecx, DWORD PTR [eax+ecx*4]
  00033	a1 00 00 00 00	 mov	 eax, DWORD PTR ?$TSS0@?1??IsSpecialTime@IMetaTable@@QAEHH@Z@4HA
  00038	3b 81 00 00 00
	00		 cmp	 eax, DWORD PTR __Init_thread_epoch[ecx]
  0003e	0f 8f 66 01 00
	00		 jg	 $LN57@IsSpecialT
$LN2@IsSpecialT:

; 937  : 	if( mapSpecialTimes.GetCount() <= 0)

  00044	83 3d 0c 00 00
	00 00		 cmp	 DWORD PTR ?mapSpecialTimes@?1??IsSpecialTime@IMetaTable@@QAEHH@Z@4V?$CTypedPtrMap@VCMapPtrToPtr@@PAXPAX@@A+12, 0
  0004b	0f 8f 2f 01 00
	00		 jg	 $LN3@IsSpecialT

; 938  : 	{
; 939  : 		// (2009/10/22 - Seung-Won, Bae)   .
; 940  : 		// -> (666666) (777777) (888888) (999999)
; 941  : 		mapSpecialTimes.SetAt( ( void *)atoi( "666666"), 0);

  00051	8b 35 00 00 00
	00		 mov	 esi, DWORD PTR __imp__atoi
  00057	68 00 00 00 00	 push	 OFFSET ??_C@_06CJNILGFF@666666@
  0005c	ff d6		 call	 esi
  0005e	83 c4 04	 add	 esp, 4
; File C:\Program Files (x86)\Microsoft Visual Studio\2019\Community\VC\Tools\MSVC\14.29.30133\atlmfc\include\afxcoll.inl

; 597  : 	{ (*this)[key] = newValue; }

  00061	b9 00 00 00 00	 mov	 ecx, OFFSET ?mapSpecialTimes@?1??IsSpecialTime@IMetaTable@@QAEHH@Z@4V?$CTypedPtrMap@VCMapPtrToPtr@@PAXPAX@@A
  00066	50		 push	 eax
  00067	e8 00 00 00 00	 call	 ??ACMapPtrToPtr@@QAEAAPAXPAX@Z ; CMapPtrToPtr::operator[]
; File D:\git\src\IBK\IBK_DRFN\ProjSrc\SrcChartEx\ChartOCX\Include_Chart\Dll_Load\IMetaTable.cpp

; 942  : 		mapSpecialTimes.SetAt( ( void *)atoi( "777777"), 0);

  0006c	68 00 00 00 00	 push	 OFFSET ??_C@_06NJPGHLOH@777777@
; File C:\Program Files (x86)\Microsoft Visual Studio\2019\Community\VC\Tools\MSVC\14.29.30133\atlmfc\include\afxcoll.inl

; 597  : 	{ (*this)[key] = newValue; }

  00071	c7 00 00 00 00
	00		 mov	 DWORD PTR [eax], 0
; File D:\git\src\IBK\IBK_DRFN\ProjSrc\SrcChartEx\ChartOCX\Include_Chart\Dll_Load\IMetaTable.cpp

; 942  : 		mapSpecialTimes.SetAt( ( void *)atoi( "777777"), 0);

  00077	ff d6		 call	 esi
  00079	83 c4 04	 add	 esp, 4
; File C:\Program Files (x86)\Microsoft Visual Studio\2019\Community\VC\Tools\MSVC\14.29.30133\atlmfc\include\afxcoll.inl

; 597  : 	{ (*this)[key] = newValue; }

  0007c	b9 00 00 00 00	 mov	 ecx, OFFSET ?mapSpecialTimes@?1??IsSpecialTime@IMetaTable@@QAEHH@Z@4V?$CTypedPtrMap@VCMapPtrToPtr@@PAXPAX@@A
  00081	50		 push	 eax
  00082	e8 00 00 00 00	 call	 ??ACMapPtrToPtr@@QAEAAPAXPAX@Z ; CMapPtrToPtr::operator[]
; File D:\git\src\IBK\IBK_DRFN\ProjSrc\SrcChartEx\ChartOCX\Include_Chart\Dll_Load\IMetaTable.cpp

; 943  : 		mapSpecialTimes.SetAt( ( void *)atoi( "888888"), 0);

  00087	68 00 00 00 00	 push	 OFFSET ??_C@_06IIBPGFKO@888888@
; File C:\Program Files (x86)\Microsoft Visual Studio\2019\Community\VC\Tools\MSVC\14.29.30133\atlmfc\include\afxcoll.inl

; 597  : 	{ (*this)[key] = newValue; }

  0008c	c7 00 00 00 00
	00		 mov	 DWORD PTR [eax], 0
; File D:\git\src\IBK\IBK_DRFN\ProjSrc\SrcChartEx\ChartOCX\Include_Chart\Dll_Load\IMetaTable.cpp

; 943  : 		mapSpecialTimes.SetAt( ( void *)atoi( "888888"), 0);

  00092	ff d6		 call	 esi
  00094	83 c4 04	 add	 esp, 4
; File C:\Program Files (x86)\Microsoft Visual Studio\2019\Community\VC\Tools\MSVC\14.29.30133\atlmfc\include\afxcoll.inl

; 597  : 	{ (*this)[key] = newValue; }

  00097	b9 00 00 00 00	 mov	 ecx, OFFSET ?mapSpecialTimes@?1??IsSpecialTime@IMetaTable@@QAEHH@Z@4V?$CTypedPtrMap@VCMapPtrToPtr@@PAXPAX@@A
  0009c	50		 push	 eax
  0009d	e8 00 00 00 00	 call	 ??ACMapPtrToPtr@@QAEAAPAXPAX@Z ; CMapPtrToPtr::operator[]
; File D:\git\src\IBK\IBK_DRFN\ProjSrc\SrcChartEx\ChartOCX\Include_Chart\Dll_Load\IMetaTable.cpp

; 945  : 		mapSpecialTimes.SetAt( ( void *)atoi( "009991"), 0);

  000a2	68 00 00 00 00	 push	 OFFSET ??_C@_06CHPDGAP@009991@
; File C:\Program Files (x86)\Microsoft Visual Studio\2019\Community\VC\Tools\MSVC\14.29.30133\atlmfc\include\afxcoll.inl

; 597  : 	{ (*this)[key] = newValue; }

  000a7	c7 00 00 00 00
	00		 mov	 DWORD PTR [eax], 0
; File D:\git\src\IBK\IBK_DRFN\ProjSrc\SrcChartEx\ChartOCX\Include_Chart\Dll_Load\IMetaTable.cpp

; 945  : 		mapSpecialTimes.SetAt( ( void *)atoi( "009991"), 0);

  000ad	ff d6		 call	 esi
  000af	83 c4 04	 add	 esp, 4
; File C:\Program Files (x86)\Microsoft Visual Studio\2019\Community\VC\Tools\MSVC\14.29.30133\atlmfc\include\afxcoll.inl

; 597  : 	{ (*this)[key] = newValue; }

  000b2	b9 00 00 00 00	 mov	 ecx, OFFSET ?mapSpecialTimes@?1??IsSpecialTime@IMetaTable@@QAEHH@Z@4V?$CTypedPtrMap@VCMapPtrToPtr@@PAXPAX@@A
  000b7	50		 push	 eax
  000b8	e8 00 00 00 00	 call	 ??ACMapPtrToPtr@@QAEAAPAXPAX@Z ; CMapPtrToPtr::operator[]
; File D:\git\src\IBK\IBK_DRFN\ProjSrc\SrcChartEx\ChartOCX\Include_Chart\Dll_Load\IMetaTable.cpp

; 946  : 		mapSpecialTimes.SetAt( ( void *)atoi( "009999"), 0);

  000bd	68 00 00 00 00	 push	 OFFSET ??_C@_06MKKGLMAH@009999@
; File C:\Program Files (x86)\Microsoft Visual Studio\2019\Community\VC\Tools\MSVC\14.29.30133\atlmfc\include\afxcoll.inl

; 597  : 	{ (*this)[key] = newValue; }

  000c2	c7 00 00 00 00
	00		 mov	 DWORD PTR [eax], 0
; File D:\git\src\IBK\IBK_DRFN\ProjSrc\SrcChartEx\ChartOCX\Include_Chart\Dll_Load\IMetaTable.cpp

; 946  : 		mapSpecialTimes.SetAt( ( void *)atoi( "009999"), 0);

  000c8	ff d6		 call	 esi
  000ca	83 c4 04	 add	 esp, 4
; File C:\Program Files (x86)\Microsoft Visual Studio\2019\Community\VC\Tools\MSVC\14.29.30133\atlmfc\include\afxcoll.inl

; 597  : 	{ (*this)[key] = newValue; }

  000cd	b9 00 00 00 00	 mov	 ecx, OFFSET ?mapSpecialTimes@?1??IsSpecialTime@IMetaTable@@QAEHH@Z@4V?$CTypedPtrMap@VCMapPtrToPtr@@PAXPAX@@A
  000d2	50		 push	 eax
  000d3	e8 00 00 00 00	 call	 ??ACMapPtrToPtr@@QAEAAPAXPAX@Z ; CMapPtrToPtr::operator[]
; File D:\git\src\IBK\IBK_DRFN\ProjSrc\SrcChartEx\ChartOCX\Include_Chart\Dll_Load\IMetaTable.cpp

; 948  : 		mapSpecialTimes.SetAt( ( void *)atoi( "310000"), 0);

  000d8	68 00 00 00 00	 push	 OFFSET ??_C@_06JOBJNIAC@310000@
; File C:\Program Files (x86)\Microsoft Visual Studio\2019\Community\VC\Tools\MSVC\14.29.30133\atlmfc\include\afxcoll.inl

; 597  : 	{ (*this)[key] = newValue; }

  000dd	c7 00 00 00 00
	00		 mov	 DWORD PTR [eax], 0
; File D:\git\src\IBK\IBK_DRFN\ProjSrc\SrcChartEx\ChartOCX\Include_Chart\Dll_Load\IMetaTable.cpp

; 948  : 		mapSpecialTimes.SetAt( ( void *)atoi( "310000"), 0);

  000e3	ff d6		 call	 esi
  000e5	83 c4 04	 add	 esp, 4
; File C:\Program Files (x86)\Microsoft Visual Studio\2019\Community\VC\Tools\MSVC\14.29.30133\atlmfc\include\afxcoll.inl

; 597  : 	{ (*this)[key] = newValue; }

  000e8	b9 00 00 00 00	 mov	 ecx, OFFSET ?mapSpecialTimes@?1??IsSpecialTime@IMetaTable@@QAEHH@Z@4V?$CTypedPtrMap@VCMapPtrToPtr@@PAXPAX@@A
  000ed	50		 push	 eax
  000ee	e8 00 00 00 00	 call	 ??ACMapPtrToPtr@@QAEAAPAXPAX@Z ; CMapPtrToPtr::operator[]
; File D:\git\src\IBK\IBK_DRFN\ProjSrc\SrcChartEx\ChartOCX\Include_Chart\Dll_Load\IMetaTable.cpp

; 950  : 		mapSpecialTimes.SetAt( ( void *)atoi( "410000"), 0);

  000f3	68 00 00 00 00	 push	 OFFSET ??_C@_06FLLOOGIM@410000@
; File C:\Program Files (x86)\Microsoft Visual Studio\2019\Community\VC\Tools\MSVC\14.29.30133\atlmfc\include\afxcoll.inl

; 597  : 	{ (*this)[key] = newValue; }

  000f8	c7 00 00 00 00
	00		 mov	 DWORD PTR [eax], 0
; File D:\git\src\IBK\IBK_DRFN\ProjSrc\SrcChartEx\ChartOCX\Include_Chart\Dll_Load\IMetaTable.cpp

; 950  : 		mapSpecialTimes.SetAt( ( void *)atoi( "410000"), 0);

  000fe	ff d6		 call	 esi
  00100	83 c4 04	 add	 esp, 4
; File C:\Program Files (x86)\Microsoft Visual Studio\2019\Community\VC\Tools\MSVC\14.29.30133\atlmfc\include\afxcoll.inl

; 597  : 	{ (*this)[key] = newValue; }

  00103	b9 00 00 00 00	 mov	 ecx, OFFSET ?mapSpecialTimes@?1??IsSpecialTime@IMetaTable@@QAEHH@Z@4V?$CTypedPtrMap@VCMapPtrToPtr@@PAXPAX@@A
  00108	50		 push	 eax
  00109	e8 00 00 00 00	 call	 ??ACMapPtrToPtr@@QAEAAPAXPAX@Z ; CMapPtrToPtr::operator[]
; File D:\git\src\IBK\IBK_DRFN\ProjSrc\SrcChartEx\ChartOCX\Include_Chart\Dll_Load\IMetaTable.cpp

; 952  : 		mapSpecialTimes.SetAt( ( void *)atoi( "710000"), 0);

  0010e	68 00 00 00 00	 push	 OFFSET ??_C@_06GKFGPMBB@710000@
; File C:\Program Files (x86)\Microsoft Visual Studio\2019\Community\VC\Tools\MSVC\14.29.30133\atlmfc\include\afxcoll.inl

; 597  : 	{ (*this)[key] = newValue; }

  00113	c7 00 00 00 00
	00		 mov	 DWORD PTR [eax], 0
; File D:\git\src\IBK\IBK_DRFN\ProjSrc\SrcChartEx\ChartOCX\Include_Chart\Dll_Load\IMetaTable.cpp

; 952  : 		mapSpecialTimes.SetAt( ( void *)atoi( "710000"), 0);

  00119	ff d6		 call	 esi
  0011b	83 c4 04	 add	 esp, 4
; File C:\Program Files (x86)\Microsoft Visual Studio\2019\Community\VC\Tools\MSVC\14.29.30133\atlmfc\include\afxcoll.inl

; 597  : 	{ (*this)[key] = newValue; }

  0011e	b9 00 00 00 00	 mov	 ecx, OFFSET ?mapSpecialTimes@?1??IsSpecialTime@IMetaTable@@QAEHH@Z@4V?$CTypedPtrMap@VCMapPtrToPtr@@PAXPAX@@A
  00123	50		 push	 eax
  00124	e8 00 00 00 00	 call	 ??ACMapPtrToPtr@@QAEAAPAXPAX@Z ; CMapPtrToPtr::operator[]
; File D:\git\src\IBK\IBK_DRFN\ProjSrc\SrcChartEx\ChartOCX\Include_Chart\Dll_Load\IMetaTable.cpp

; 953  : 		mapSpecialTimes.SetAt( ( void *)atoi( "810000"), 0);

  00129	68 00 00 00 00	 push	 OFFSET ??_C@_06JMBOIMPI@810000@
; File C:\Program Files (x86)\Microsoft Visual Studio\2019\Community\VC\Tools\MSVC\14.29.30133\atlmfc\include\afxcoll.inl

; 597  : 	{ (*this)[key] = newValue; }

  0012e	c7 00 00 00 00
	00		 mov	 DWORD PTR [eax], 0
; File D:\git\src\IBK\IBK_DRFN\ProjSrc\SrcChartEx\ChartOCX\Include_Chart\Dll_Load\IMetaTable.cpp

; 953  : 		mapSpecialTimes.SetAt( ( void *)atoi( "810000"), 0);

  00134	ff d6		 call	 esi
  00136	83 c4 04	 add	 esp, 4
; File C:\Program Files (x86)\Microsoft Visual Studio\2019\Community\VC\Tools\MSVC\14.29.30133\atlmfc\include\afxcoll.inl

; 597  : 	{ (*this)[key] = newValue; }

  00139	b9 00 00 00 00	 mov	 ecx, OFFSET ?mapSpecialTimes@?1??IsSpecialTime@IMetaTable@@QAEHH@Z@4V?$CTypedPtrMap@VCMapPtrToPtr@@PAXPAX@@A
  0013e	50		 push	 eax
  0013f	e8 00 00 00 00	 call	 ??ACMapPtrToPtr@@QAEAAPAXPAX@Z ; CMapPtrToPtr::operator[]
; File D:\git\src\IBK\IBK_DRFN\ProjSrc\SrcChartEx\ChartOCX\Include_Chart\Dll_Load\IMetaTable.cpp

; 956  : 		mapSpecialTimes.SetAt( ( void *)atoi( "8888"), 0);

  00144	68 00 00 00 00	 push	 OFFSET ??_C@_04KAPECDDI@8888@
; File C:\Program Files (x86)\Microsoft Visual Studio\2019\Community\VC\Tools\MSVC\14.29.30133\atlmfc\include\afxcoll.inl

; 597  : 	{ (*this)[key] = newValue; }

  00149	c7 00 00 00 00
	00		 mov	 DWORD PTR [eax], 0
; File D:\git\src\IBK\IBK_DRFN\ProjSrc\SrcChartEx\ChartOCX\Include_Chart\Dll_Load\IMetaTable.cpp

; 956  : 		mapSpecialTimes.SetAt( ( void *)atoi( "8888"), 0);

  0014f	ff d6		 call	 esi
  00151	83 c4 04	 add	 esp, 4
; File C:\Program Files (x86)\Microsoft Visual Studio\2019\Community\VC\Tools\MSVC\14.29.30133\atlmfc\include\afxcoll.inl

; 597  : 	{ (*this)[key] = newValue; }

  00154	b9 00 00 00 00	 mov	 ecx, OFFSET ?mapSpecialTimes@?1??IsSpecialTime@IMetaTable@@QAEHH@Z@4V?$CTypedPtrMap@VCMapPtrToPtr@@PAXPAX@@A
  00159	50		 push	 eax
  0015a	e8 00 00 00 00	 call	 ??ACMapPtrToPtr@@QAEAAPAXPAX@Z ; CMapPtrToPtr::operator[]
; File D:\git\src\IBK\IBK_DRFN\ProjSrc\SrcChartEx\ChartOCX\Include_Chart\Dll_Load\IMetaTable.cpp

; 957  : 		mapSpecialTimes.SetAt( ( void *)atoi( "9999"), 0);

  0015f	68 00 00 00 00	 push	 OFFSET ??_C@_04DNPBDGJL@9999@
; File C:\Program Files (x86)\Microsoft Visual Studio\2019\Community\VC\Tools\MSVC\14.29.30133\atlmfc\include\afxcoll.inl

; 597  : 	{ (*this)[key] = newValue; }

  00164	c7 00 00 00 00
	00		 mov	 DWORD PTR [eax], 0
; File D:\git\src\IBK\IBK_DRFN\ProjSrc\SrcChartEx\ChartOCX\Include_Chart\Dll_Load\IMetaTable.cpp

; 957  : 		mapSpecialTimes.SetAt( ( void *)atoi( "9999"), 0);

  0016a	ff d6		 call	 esi
  0016c	83 c4 04	 add	 esp, 4
; File C:\Program Files (x86)\Microsoft Visual Studio\2019\Community\VC\Tools\MSVC\14.29.30133\atlmfc\include\afxcoll.inl

; 597  : 	{ (*this)[key] = newValue; }

  0016f	b9 00 00 00 00	 mov	 ecx, OFFSET ?mapSpecialTimes@?1??IsSpecialTime@IMetaTable@@QAEHH@Z@4V?$CTypedPtrMap@VCMapPtrToPtr@@PAXPAX@@A
  00174	50		 push	 eax
  00175	e8 00 00 00 00	 call	 ??ACMapPtrToPtr@@QAEAAPAXPAX@Z ; CMapPtrToPtr::operator[]
  0017a	c7 00 00 00 00
	00		 mov	 DWORD PTR [eax], 0
$LN3@IsSpecialT:
; File C:\Program Files (x86)\Microsoft Visual Studio\2019\Community\VC\Tools\MSVC\14.29.30133\atlmfc\include\afxtempl.h

; 2052 : 		{ return BASE_CLASS::Lookup(key, (typename BASE_CLASS::BASE_VALUE&)rValue); }

  00180	8d 45 f0	 lea	 eax, DWORD PTR _pTemp$[ebp]
; File D:\git\src\IBK\IBK_DRFN\ProjSrc\SrcChartEx\ChartOCX\Include_Chart\Dll_Load\IMetaTable.cpp

; 960  : 	void *pTemp = NULL;

  00183	c7 45 f0 00 00
	00 00		 mov	 DWORD PTR _pTemp$[ebp], 0
; File C:\Program Files (x86)\Microsoft Visual Studio\2019\Community\VC\Tools\MSVC\14.29.30133\atlmfc\include\afxtempl.h

; 2052 : 		{ return BASE_CLASS::Lookup(key, (typename BASE_CLASS::BASE_VALUE&)rValue); }

  0018a	50		 push	 eax
  0018b	ff 75 08	 push	 DWORD PTR _p_nTime$[ebp]
  0018e	b9 00 00 00 00	 mov	 ecx, OFFSET ?mapSpecialTimes@?1??IsSpecialTime@IMetaTable@@QAEHH@Z@4V?$CTypedPtrMap@VCMapPtrToPtr@@PAXPAX@@A
  00193	e8 00 00 00 00	 call	 ?Lookup@CMapPtrToPtr@@QBEHPAXAAPAX@Z ; CMapPtrToPtr::Lookup
; File D:\git\src\IBK\IBK_DRFN\ProjSrc\SrcChartEx\ChartOCX\Include_Chart\Dll_Load\IMetaTable.cpp

; 962  : }

  00198	8b 4d f4	 mov	 ecx, DWORD PTR __$EHRec$[ebp]
  0019b	64 89 0d 00 00
	00 00		 mov	 DWORD PTR fs:0, ecx
  001a2	59		 pop	 ecx
  001a3	5e		 pop	 esi
  001a4	8b e5		 mov	 esp, ebp
  001a6	5d		 pop	 ebp
  001a7	c2 04 00	 ret	 4
$LN57@IsSpecialT:

; 936  : 	static CTypedPtrMap < CMapPtrToPtr, void *, void *> mapSpecialTimes;

  001aa	68 00 00 00 00	 push	 OFFSET ?$TSS0@?1??IsSpecialTime@IMetaTable@@QAEHH@Z@4HA
  001af	e8 00 00 00 00	 call	 __Init_thread_header
  001b4	83 c4 04	 add	 esp, 4
  001b7	83 3d 00 00 00
	00 ff		 cmp	 DWORD PTR ?$TSS0@?1??IsSpecialTime@IMetaTable@@QAEHH@Z@4HA, -1
  001be	0f 85 80 fe ff
	ff		 jne	 $LN2@IsSpecialT
; File C:\Program Files (x86)\Microsoft Visual Studio\2019\Community\VC\Tools\MSVC\14.29.30133\atlmfc\include\afxtempl.h

; 2048 : 		: BASE_CLASS(nBlockSize) { }

  001c4	6a 0a		 push	 10			; 0000000aH
  001c6	b9 00 00 00 00	 mov	 ecx, OFFSET ?mapSpecialTimes@?1??IsSpecialTime@IMetaTable@@QAEHH@Z@4V?$CTypedPtrMap@VCMapPtrToPtr@@PAXPAX@@A
; File D:\git\src\IBK\IBK_DRFN\ProjSrc\SrcChartEx\ChartOCX\Include_Chart\Dll_Load\IMetaTable.cpp

; 936  : 	static CTypedPtrMap < CMapPtrToPtr, void *, void *> mapSpecialTimes;

  001cb	c7 45 fc 00 00
	00 00		 mov	 DWORD PTR __$EHRec$[ebp+8], 0
; File C:\Program Files (x86)\Microsoft Visual Studio\2019\Community\VC\Tools\MSVC\14.29.30133\atlmfc\include\afxtempl.h

; 2048 : 		: BASE_CLASS(nBlockSize) { }

  001d2	e8 00 00 00 00	 call	 ??0CMapPtrToPtr@@QAE@H@Z ; CMapPtrToPtr::CMapPtrToPtr
; File D:\git\src\IBK\IBK_DRFN\ProjSrc\SrcChartEx\ChartOCX\Include_Chart\Dll_Load\IMetaTable.cpp

; 936  : 	static CTypedPtrMap < CMapPtrToPtr, void *, void *> mapSpecialTimes;

  001d7	68 00 00 00 00	 push	 OFFSET ??__FmapSpecialTimes@?1??IsSpecialTime@IMetaTable@@QAEHH@Z@YAXXZ ; `IMetaTable::IsSpecialTime'::`2'::`dynamic atexit destructor for 'mapSpecialTimes''
; File C:\Program Files (x86)\Microsoft Visual Studio\2019\Community\VC\Tools\MSVC\14.29.30133\atlmfc\include\afxtempl.h

; 2048 : 		: BASE_CLASS(nBlockSize) { }

  001dc	c7 05 00 00 00
	00 00 00 00 00	 mov	 DWORD PTR ?mapSpecialTimes@?1??IsSpecialTime@IMetaTable@@QAEHH@Z@4V?$CTypedPtrMap@VCMapPtrToPtr@@PAXPAX@@A, OFFSET ??_7?$CTypedPtrMap@VCMapPtrToPtr@@PAXPAX@@6B@
; File D:\git\src\IBK\IBK_DRFN\ProjSrc\SrcChartEx\ChartOCX\Include_Chart\Dll_Load\IMetaTable.cpp

; 936  : 	static CTypedPtrMap < CMapPtrToPtr, void *, void *> mapSpecialTimes;

  001e6	e8 00 00 00 00	 call	 _atexit
  001eb	68 00 00 00 00	 push	 OFFSET ?$TSS0@?1??IsSpecialTime@IMetaTable@@QAEHH@Z@4HA
  001f0	c7 45 fc ff ff
	ff ff		 mov	 DWORD PTR __$EHRec$[ebp+8], -1
  001f7	e8 00 00 00 00	 call	 __Init_thread_footer
  001fc	83 c4 08	 add	 esp, 8
  001ff	e9 40 fe ff ff	 jmp	 $LN2@IsSpecialT
_TEXT	ENDS
;	COMDAT text$x
text$x	SEGMENT
__unwindfunclet$?IsSpecialTime@IMetaTable@@QAEHH@Z$0:
  00000	68 00 00 00 00	 push	 OFFSET ?$TSS0@?1??IsSpecialTime@IMetaTable@@QAEHH@Z@4HA
  00005	e8 00 00 00 00	 call	 __Init_thread_abort
  0000a	59		 pop	 ecx
  0000b	c3		 ret	 0
  0000c	cc		 int	 3
  0000d	cc		 int	 3
  0000e	cc		 int	 3
  0000f	cc		 int	 3
  00010	cc		 int	 3
__ehhandler$?IsSpecialTime@IMetaTable@@QAEHH@Z:
  00011	90		 npad	 1
  00012	90		 npad	 1
  00013	8b 54 24 08	 mov	 edx, DWORD PTR [esp+8]
  00017	8d 42 0c	 lea	 eax, DWORD PTR [edx+12]
  0001a	8b 4a f4	 mov	 ecx, DWORD PTR [edx-12]
  0001d	33 c8		 xor	 ecx, eax
  0001f	e8 00 00 00 00	 call	 @__security_check_cookie@4
  00024	b8 00 00 00 00	 mov	 eax, OFFSET __ehfuncinfo$?IsSpecialTime@IMetaTable@@QAEHH@Z
  00029	e9 00 00 00 00	 jmp	 ___CxxFrameHandler3
text$x	ENDS
?IsSpecialTime@IMetaTable@@QAEHH@Z ENDP			; IMetaTable::IsSpecialTime
; Function compile flags: /Ogtp
; File D:\git\src\IBK\IBK_DRFN\ProjSrc\SrcChartEx\ChartOCX\Include_Chart\Dll_Load\IMetaTable.cpp
;	COMDAT ?IsIndicatorInThisMode@IMetaTable@@QAEHPBDW4CHART_MODE@CChartInfo@@@Z
_TEXT	SEGMENT
_p_szIndicatorName$ = 8					; size = 4
_p_eChartMode$ = 12					; size = 4
?IsIndicatorInThisMode@IMetaTable@@QAEHPBDW4CHART_MODE@CChartInfo@@@Z PROC ; IMetaTable::IsIndicatorInThisMode, COMDAT
; _this$ = ecx

; 918  : {

  00000	55		 push	 ebp
  00001	8b ec		 mov	 ebp, esp
  00003	56		 push	 esi

; 919  : 	if( !p_szIndicatorName) return FALSE;

  00004	8b 75 08	 mov	 esi, DWORD PTR _p_szIndicatorName$[ebp]
  00007	57		 push	 edi
  00008	8b f9		 mov	 edi, ecx
  0000a	85 f6		 test	 esi, esi
  0000c	74 5a		 je	 SHORT $LN42@IsIndicato

; 920  : 	if( !*p_szIndicatorName) return FALSE;

  0000e	80 3e 00	 cmp	 BYTE PTR [esi], 0
  00011	74 55		 je	 SHORT $LN42@IsIndicato

; 921  : 
; 922  : 	switch( p_eChartMode)

  00013	8b 45 0c	 mov	 eax, DWORD PTR _p_eChartMode$[ebp]
  00016	83 e8 02	 sub	 eax, 2
  00019	74 16		 je	 SHORT $LN6@IsIndicato
  0001b	83 e8 01	 sub	 eax, 1
  0001e	75 3d		 jne	 SHORT $LN12@IsIndicato

; 926  : 		case CChartInfo::WORLD_ON: 
; 927  : 			return !IsMarketOrServerIndex( p_szIndicatorName);

  00020	56		 push	 esi
  00021	e8 00 00 00 00	 call	 ?IsMarketOrServerIndex@IMetaTable@@QAEHPBD@Z ; IMetaTable::IsMarketOrServerIndex
  00026	f7 d8		 neg	 eax
  00028	5f		 pop	 edi
  00029	1b c0		 sbb	 eax, eax
  0002b	40		 inc	 eax

; 928  : 	}
; 929  : 	return TRUE;
; 930  : }

  0002c	5e		 pop	 esi
  0002d	5d		 pop	 ebp
  0002e	c2 08 00	 ret	 8
$LN6@IsIndicato:

; 923  : 	{
; 924  : 		case CChartInfo::FX:
; 925  : 				return !IsMarketOrServerIndex( p_szIndicatorName) && !IsIndexNeedVolume( p_szIndicatorName);

  00031	56		 push	 esi
  00032	e8 00 00 00 00	 call	 ?IsMarketOrServerIndex@IMetaTable@@QAEHPBD@Z ; IMetaTable::IsMarketOrServerIndex
  00037	85 c0		 test	 eax, eax
  00039	75 2d		 jne	 SHORT $LN42@IsIndicato

; 884  : 	if( !*p_szIndicatorName) return FALSE;

  0003b	38 06		 cmp	 BYTE PTR [esi], al
  0003d	74 1e		 je	 SHORT $LN12@IsIndicato

; 885  : 
; 886  : 	switch( GetIndicatorID( p_szIndicatorName))

  0003f	56		 push	 esi
  00040	8b cf		 mov	 ecx, edi
  00042	e8 00 00 00 00	 call	 ?GetIndicatorID@IMetaTable@@QAEHPBD@Z ; IMetaTable::GetIndicatorID
  00047	83 c0 fe	 add	 eax, -2			; fffffffeH
  0004a	83 f8 6f	 cmp	 eax, 111		; 0000006fH
  0004d	77 0e		 ja	 SHORT $LN12@IsIndicato
  0004f	0f b6 80 00 00
	00 00		 movzx	 eax, BYTE PTR $LN43@IsIndicato[eax]
  00056	ff 24 85 00 00
	00 00		 jmp	 DWORD PTR $LN44@IsIndicato[eax*4]
$LN12@IsIndicato:
  0005d	5f		 pop	 edi

; 928  : 	}
; 929  : 	return TRUE;
; 930  : }

  0005e	b8 01 00 00 00	 mov	 eax, 1
  00063	5e		 pop	 esi
  00064	5d		 pop	 ebp
  00065	c2 08 00	 ret	 8
$LN42@IsIndicato:
  00068	5f		 pop	 edi
  00069	33 c0		 xor	 eax, eax
  0006b	5e		 pop	 esi
  0006c	5d		 pop	 ebp
  0006d	c2 08 00	 ret	 8
$LN44@IsIndicato:
  00070	00 00 00 00	 DD	 $LN42@IsIndicato
  00074	00 00 00 00	 DD	 $LN12@IsIndicato
$LN43@IsIndicato:
  00078	00		 DB	 0
  00079	01		 DB	 1
  0007a	01		 DB	 1
  0007b	00		 DB	 0
  0007c	01		 DB	 1
  0007d	01		 DB	 1
  0007e	01		 DB	 1
  0007f	01		 DB	 1
  00080	01		 DB	 1
  00081	01		 DB	 1
  00082	01		 DB	 1
  00083	01		 DB	 1
  00084	01		 DB	 1
  00085	01		 DB	 1
  00086	01		 DB	 1
  00087	01		 DB	 1
  00088	01		 DB	 1
  00089	01		 DB	 1
  0008a	01		 DB	 1
  0008b	01		 DB	 1
  0008c	01		 DB	 1
  0008d	01		 DB	 1
  0008e	01		 DB	 1
  0008f	01		 DB	 1
  00090	01		 DB	 1
  00091	01		 DB	 1
  00092	01		 DB	 1
  00093	01		 DB	 1
  00094	01		 DB	 1
  00095	01		 DB	 1
  00096	01		 DB	 1
  00097	01		 DB	 1
  00098	01		 DB	 1
  00099	01		 DB	 1
  0009a	01		 DB	 1
  0009b	01		 DB	 1
  0009c	01		 DB	 1
  0009d	01		 DB	 1
  0009e	01		 DB	 1
  0009f	01		 DB	 1
  000a0	01		 DB	 1
  000a1	01		 DB	 1
  000a2	01		 DB	 1
  000a3	01		 DB	 1
  000a4	01		 DB	 1
  000a5	01		 DB	 1
  000a6	01		 DB	 1
  000a7	01		 DB	 1
  000a8	00		 DB	 0
  000a9	01		 DB	 1
  000aa	01		 DB	 1
  000ab	01		 DB	 1
  000ac	01		 DB	 1
  000ad	01		 DB	 1
  000ae	01		 DB	 1
  000af	01		 DB	 1
  000b0	01		 DB	 1
  000b1	01		 DB	 1
  000b2	01		 DB	 1
  000b3	01		 DB	 1
  000b4	01		 DB	 1
  000b5	01		 DB	 1
  000b6	01		 DB	 1
  000b7	01		 DB	 1
  000b8	01		 DB	 1
  000b9	01		 DB	 1
  000ba	01		 DB	 1
  000bb	01		 DB	 1
  000bc	01		 DB	 1
  000bd	01		 DB	 1
  000be	01		 DB	 1
  000bf	00		 DB	 0
  000c0	00		 DB	 0
  000c1	00		 DB	 0
  000c2	00		 DB	 0
  000c3	00		 DB	 0
  000c4	00		 DB	 0
  000c5	00		 DB	 0
  000c6	00		 DB	 0
  000c7	00		 DB	 0
  000c8	00		 DB	 0
  000c9	00		 DB	 0
  000ca	00		 DB	 0
  000cb	01		 DB	 1
  000cc	00		 DB	 0
  000cd	01		 DB	 1
  000ce	00		 DB	 0
  000cf	01		 DB	 1
  000d0	01		 DB	 1
  000d1	01		 DB	 1
  000d2	01		 DB	 1
  000d3	01		 DB	 1
  000d4	00		 DB	 0
  000d5	00		 DB	 0
  000d6	01		 DB	 1
  000d7	01		 DB	 1
  000d8	01		 DB	 1
  000d9	01		 DB	 1
  000da	01		 DB	 1
  000db	01		 DB	 1
  000dc	01		 DB	 1
  000dd	00		 DB	 0
  000de	01		 DB	 1
  000df	01		 DB	 1
  000e0	01		 DB	 1
  000e1	00		 DB	 0
  000e2	00		 DB	 0
  000e3	01		 DB	 1
  000e4	01		 DB	 1
  000e5	00		 DB	 0
  000e6	01		 DB	 1
  000e7	00		 DB	 0
?IsIndicatorInThisMode@IMetaTable@@QAEHPBDW4CHART_MODE@CChartInfo@@@Z ENDP ; IMetaTable::IsIndicatorInThisMode
_TEXT	ENDS
; Function compile flags: /Ogtp
; File D:\git\src\IBK\IBK_DRFN\ProjSrc\SrcChartEx\ChartOCX\Include_Chart\Dll_Load\IMetaTable.cpp
;	COMDAT ?IsIndexNeedVolume@IMetaTable@@QAEHPBD@Z
_TEXT	SEGMENT
_p_szIndicatorName$ = 8					; size = 4
?IsIndexNeedVolume@IMetaTable@@QAEHPBD@Z PROC		; IMetaTable::IsIndexNeedVolume, COMDAT
; _this$ = ecx

; 882  : {

  00000	55		 push	 ebp
  00001	8b ec		 mov	 ebp, esp

; 883  : 	if( !p_szIndicatorName) return FALSE;

  00003	8b 45 08	 mov	 eax, DWORD PTR _p_szIndicatorName$[ebp]
  00006	85 c0		 test	 eax, eax
  00008	74 2a		 je	 SHORT $LN2@IsIndexNee

; 884  : 	if( !*p_szIndicatorName) return FALSE;

  0000a	80 38 00	 cmp	 BYTE PTR [eax], 0
  0000d	74 25		 je	 SHORT $LN2@IsIndexNee

; 885  : 
; 886  : 	switch( GetIndicatorID( p_szIndicatorName))

  0000f	50		 push	 eax
  00010	e8 00 00 00 00	 call	 ?GetIndicatorID@IMetaTable@@QAEHPBD@Z ; IMetaTable::GetIndicatorID
  00015	83 c0 fe	 add	 eax, -2			; fffffffeH
  00018	83 f8 6f	 cmp	 eax, 111		; 0000006fH
  0001b	77 17		 ja	 SHORT $LN2@IsIndexNee
  0001d	0f b6 80 00 00
	00 00		 movzx	 eax, BYTE PTR $LN31@IsIndexNee[eax]
  00024	ff 24 85 00 00
	00 00		 jmp	 DWORD PTR $LN32@IsIndexNee[eax*4]
$LN6@IsIndexNee:

; 887  : 	{
; 888  : 		case EDDC_OCX_VOLUMEFORSALE:
; 889  : 		case EDDC_ST_ADLINE:
; 890  : 		case EDDC_VOLUMECHART:
; 891  : // vntsorl:[0003431] [7111]      
; 892  : // 		case EDDC_ST_VOLUMEMACHART:
; 893  : 		case EDDC_ST_CMF:
; 894  : 		case EDDC_ST_CHAIKINS_OSCILLATOR:
; 895  : 		case EDDC_ST_EOM:
; 896  : 		case EDDC_ST_FORCE_INDEX:
; 897  : 		case EDDC_ST_MFI:
; 898  : 		case EDDC_ST_NVI:
; 899  : 		case EDDC_ST_OBV:
; 900  : 		case EDDC_ST_PVI:
; 901  : 		case EDDC_ST_VA_OSCILLATOR:
; 902  : 		case EDDC_ST_VOLUME_OSCILLATOR:
; 903  : 		case EDDC_ST_VOLUME_RATIO:
; 904  : 		case EDDC_ST_VROC:
; 905  : 		case EDDC_ST_OBV_MOMENTUM:
; 906  : 		case EDDC_ST_OBV_STOCHASTIC:
; 907  : 		case EDDC_ST_7_BINARY_WAVE:
; 908  : 		case EDDC_ST_PVT:
; 909  : 		case EDDC_OCX_VOLUMESELLBUYCHART:
; 910  : 		case EDDC_OCX_INVERSLINECHART:
; 911  : 		case EDDC_OCX_RENKOCHART:
; 912  : 		case EDDC_DISPERSIONCHART:
; 913  : 		case EDDC_OCX_MARKETPROFILECHART:		return TRUE;

  0002b	b8 01 00 00 00	 mov	 eax, 1

; 916  : }

  00030	5d		 pop	 ebp
  00031	c2 04 00	 ret	 4
$LN2@IsIndexNee:

; 914  : 	}
; 915  : 	return FALSE;

  00034	33 c0		 xor	 eax, eax

; 916  : }

  00036	5d		 pop	 ebp
  00037	c2 04 00	 ret	 4
  0003a	66 90		 npad	 2
$LN32@IsIndexNee:
  0003c	00 00 00 00	 DD	 $LN6@IsIndexNee
  00040	00 00 00 00	 DD	 $LN2@IsIndexNee
$LN31@IsIndexNee:
  00044	00		 DB	 0
  00045	01		 DB	 1
  00046	01		 DB	 1
  00047	00		 DB	 0
  00048	01		 DB	 1
  00049	01		 DB	 1
  0004a	01		 DB	 1
  0004b	01		 DB	 1
  0004c	01		 DB	 1
  0004d	01		 DB	 1
  0004e	01		 DB	 1
  0004f	01		 DB	 1
  00050	01		 DB	 1
  00051	01		 DB	 1
  00052	01		 DB	 1
  00053	01		 DB	 1
  00054	01		 DB	 1
  00055	01		 DB	 1
  00056	01		 DB	 1
  00057	01		 DB	 1
  00058	01		 DB	 1
  00059	01		 DB	 1
  0005a	01		 DB	 1
  0005b	01		 DB	 1
  0005c	01		 DB	 1
  0005d	01		 DB	 1
  0005e	01		 DB	 1
  0005f	01		 DB	 1
  00060	01		 DB	 1
  00061	01		 DB	 1
  00062	01		 DB	 1
  00063	01		 DB	 1
  00064	01		 DB	 1
  00065	01		 DB	 1
  00066	01		 DB	 1
  00067	01		 DB	 1
  00068	01		 DB	 1
  00069	01		 DB	 1
  0006a	01		 DB	 1
  0006b	01		 DB	 1
  0006c	01		 DB	 1
  0006d	01		 DB	 1
  0006e	01		 DB	 1
  0006f	01		 DB	 1
  00070	01		 DB	 1
  00071	01		 DB	 1
  00072	01		 DB	 1
  00073	01		 DB	 1
  00074	00		 DB	 0
  00075	01		 DB	 1
  00076	01		 DB	 1
  00077	01		 DB	 1
  00078	01		 DB	 1
  00079	01		 DB	 1
  0007a	01		 DB	 1
  0007b	01		 DB	 1
  0007c	01		 DB	 1
  0007d	01		 DB	 1
  0007e	01		 DB	 1
  0007f	01		 DB	 1
  00080	01		 DB	 1
  00081	01		 DB	 1
  00082	01		 DB	 1
  00083	01		 DB	 1
  00084	01		 DB	 1
  00085	01		 DB	 1
  00086	01		 DB	 1
  00087	01		 DB	 1
  00088	01		 DB	 1
  00089	01		 DB	 1
  0008a	01		 DB	 1
  0008b	00		 DB	 0
  0008c	00		 DB	 0
  0008d	00		 DB	 0
  0008e	00		 DB	 0
  0008f	00		 DB	 0
  00090	00		 DB	 0
  00091	00		 DB	 0
  00092	00		 DB	 0
  00093	00		 DB	 0
  00094	00		 DB	 0
  00095	00		 DB	 0
  00096	00		 DB	 0
  00097	01		 DB	 1
  00098	00		 DB	 0
  00099	01		 DB	 1
  0009a	00		 DB	 0
  0009b	01		 DB	 1
  0009c	01		 DB	 1
  0009d	01		 DB	 1
  0009e	01		 DB	 1
  0009f	01		 DB	 1
  000a0	00		 DB	 0
  000a1	00		 DB	 0
  000a2	01		 DB	 1
  000a3	01		 DB	 1
  000a4	01		 DB	 1
  000a5	01		 DB	 1
  000a6	01		 DB	 1
  000a7	01		 DB	 1
  000a8	01		 DB	 1
  000a9	00		 DB	 0
  000aa	01		 DB	 1
  000ab	01		 DB	 1
  000ac	01		 DB	 1
  000ad	00		 DB	 0
  000ae	00		 DB	 0
  000af	01		 DB	 1
  000b0	01		 DB	 1
  000b1	00		 DB	 0
  000b2	01		 DB	 1
  000b3	00		 DB	 0
?IsIndexNeedVolume@IMetaTable@@QAEHPBD@Z ENDP		; IMetaTable::IsIndexNeedVolume
_TEXT	ENDS
; Function compile flags: /Ogtp
; File D:\git\src\IBK\IBK_DRFN\ProjSrc\SrcChartEx\ChartOCX\Include_Chart\Dll_Load\IMetaTable.cpp
;	COMDAT ?IsMarketOrServerIndex@IMetaTable@@QAEHPBD@Z
_TEXT	SEGMENT
_p_szIndicatorName$ = 8					; size = 4
?IsMarketOrServerIndex@IMetaTable@@QAEHPBD@Z PROC	; IMetaTable::IsMarketOrServerIndex, COMDAT
; _this$ = ecx

; 824  : {

  00000	55		 push	 ebp
  00001	8b ec		 mov	 ebp, esp

; 825  : 	if( !p_szIndicatorName) return FALSE;

  00003	8b 45 08	 mov	 eax, DWORD PTR _p_szIndicatorName$[ebp]
  00006	85 c0		 test	 eax, eax
  00008	74 2a		 je	 SHORT $LN2@IsMarketOr

; 826  : 	if( !*p_szIndicatorName) return FALSE;

  0000a	80 38 00	 cmp	 BYTE PTR [eax], 0
  0000d	74 25		 je	 SHORT $LN2@IsMarketOr

; 827  : 
; 828  : 	switch( GetIndicatorID( p_szIndicatorName))

  0000f	50		 push	 eax
  00010	e8 00 00 00 00	 call	 ?GetIndicatorID@IMetaTable@@QAEHPBD@Z ; IMetaTable::GetIndicatorID
  00015	83 c0 8e	 add	 eax, -114		; ffffff8eH
  00018	83 f8 33	 cmp	 eax, 51			; 00000033H
  0001b	77 17		 ja	 SHORT $LN2@IsMarketOr
  0001d	0f b6 80 00 00
	00 00		 movzx	 eax, BYTE PTR $LN52@IsMarketOr[eax]
  00024	ff 24 85 00 00
	00 00		 jmp	 DWORD PTR $LN53@IsMarketOr[eax*4]
$LN6@IsMarketOr:

; 829  : 	{
; 830  : 		case EDDC_ORGAN_PUREBUY_ACCUMULATION:
; 831  : 		case EDDC_ORGAN_PUREBUY:
; 832  : 		case EDDC_SUSPENSE_CONTRACT:
; 833  : 		case EDDC_TOTAL_AMOUNT:
; 834  : 		case EDDC_FOREIGN_HOLDING:
; 835  : 		case EDDC_FOREIGN_HOLDING_RATE:
; 836  : 		case EDDC_FOREIGN_PUREBUY:
; 837  : 		case EDDC_KOSPI_PER_INVESTER:
; 838  : 		case EDDC_KOSDAQ_PER_INVESTER:
; 839  : 		case EDDC_K200_PER_INVESTER:
; 840  : 		case EDDC_FUTURE_PER_INVESTER:
; 841  : 		case EDDC_CALL_OPTION_PER_INVESTER:
; 842  : 		case EDDC_PUT_OPTION_PER_INVESTER:
; 843  : 		case EDDC_PROGRAM_TRADE_PUREBUY_KOSPI:
; 844  : 		case EDDC_PROGRAM_TRADE_PUREBUY_KOSDAQ:
; 845  : 		case EDDC_VOLUMEPRICE:
; 846  : 		case EDDC_PERSON_PUREBUY://844
; 847  : 		case EDDC_PERSON_PUREBUYACCUM: //845
; 848  : 		case EDDC_FOREIGN_PUREBUYACCM://846
; 849  : 		case EDDC_ORGAN_FINANCE_PUREBUYACCUM:		// () 
; 850  : 		case EDDC_ORGAN_FINANCE_PUREBUY:			// () 
; 851  : 		case EDDC_ORGAN_INSURE_PUREBUYACCUM:		// () 
; 852  : 		case EDDC_ORGAN_INSURE_PUREBUY:				// () 
; 853  : 		case EDDC_ORGAN_INVESTMENT_PUREBUYACCUM:	// () 
; 854  : 		case EDDC_ORGAN_INVESTMENT_PUREBUY:			// () 
; 855  : 		case EDDC_ORGAN_PRIVATEEQUITY_PUREBUYACCUM:	// () 
; 856  : 		case EDDC_ORGAN_PRIVATEEQUITY_PUREBUY:		// () 
; 857  : 		case EDDC_ORGAN_BANK_PUREBUYACCUM:			// () 
; 858  : 		case EDDC_ORGAN_BANK_PUREBUY:				// () 
; 859  : 		case EDDC_ORGAN_ETCFINANCE_PUREBUYACCUM:	// () 
; 860  : 		case EDDC_ORGAN_ETCFINANCE_PUREBUY:		// () 
; 861  : 		case EDDC_ORGAN_PENSIONFUND_PUREBUYACCUM:	// () 
; 862  : 		case EDDC_ORGAN_PENSIONFUND_PUREBUY:		// () 
; 863  : 		case EDDC_ORGAN_COUNTRY_PUREBUYACCUM:		// () 
; 864  : 		case EDDC_ORGAN_COUNTRY_PUREBUY:			// () 
; 865  : 		case EDDC_ORGAN_ETCCORP_PUREBUYACCUM:		// () 
; 866  : 		case EDDC_ORGAN_ETCCORP_PUREBUY:			// () 
; 867  : 		case EDDC_ADL:												//  ADL
; 868  : 		case EDDC_ADR:												//  ADR
; 869  : 		case EDDC_ORGAN_CREDIT_BALANCE_RATE:		// 
; 870  : 		case EDDC_ORGAN_CREDIT_GIVING_RATE:			// 
; 871  : 		case EDDC_ORGAN_CREDIT_BALANCE_QTY:			// 
; 872  : 		case EDDC_ORGAN_CREDIT_BALANCE_VARIATION:	// 
; 873  : 		case EDDC_FOREIGN_ORGAN_PUREBUY:				// + 
; 874  : 		case EDDC_FOREIGN_ORGAN_PUREBUYACCUM:			// + 
; 875  : 			return TRUE;

  0002b	b8 01 00 00 00	 mov	 eax, 1

; 878  : }

  00030	5d		 pop	 ebp
  00031	c2 04 00	 ret	 4
$LN2@IsMarketOr:

; 876  : 	}
; 877  : 	return FALSE;

  00034	33 c0		 xor	 eax, eax

; 878  : }

  00036	5d		 pop	 ebp
  00037	c2 04 00	 ret	 4
  0003a	66 90		 npad	 2
$LN53@IsMarketOr:
  0003c	00 00 00 00	 DD	 $LN6@IsMarketOr
  00040	00 00 00 00	 DD	 $LN2@IsMarketOr
$LN52@IsMarketOr:
  00044	00		 DB	 0
  00045	01		 DB	 1
  00046	01		 DB	 1
  00047	01		 DB	 1
  00048	01		 DB	 1
  00049	01		 DB	 1
  0004a	01		 DB	 1
  0004b	00		 DB	 0
  0004c	00		 DB	 0
  0004d	00		 DB	 0
  0004e	00		 DB	 0
  0004f	00		 DB	 0
  00050	00		 DB	 0
  00051	00		 DB	 0
  00052	00		 DB	 0
  00053	00		 DB	 0
  00054	00		 DB	 0
  00055	00		 DB	 0
  00056	00		 DB	 0
  00057	00		 DB	 0
  00058	00		 DB	 0
  00059	00		 DB	 0
  0005a	00		 DB	 0
  0005b	00		 DB	 0
  0005c	00		 DB	 0
  0005d	01		 DB	 1
  0005e	00		 DB	 0
  0005f	00		 DB	 0
  00060	00		 DB	 0
  00061	00		 DB	 0
  00062	00		 DB	 0
  00063	00		 DB	 0
  00064	00		 DB	 0
  00065	00		 DB	 0
  00066	00		 DB	 0
  00067	00		 DB	 0
  00068	00		 DB	 0
  00069	00		 DB	 0
  0006a	00		 DB	 0
  0006b	00		 DB	 0
  0006c	00		 DB	 0
  0006d	00		 DB	 0
  0006e	00		 DB	 0
  0006f	00		 DB	 0
  00070	00		 DB	 0
  00071	00		 DB	 0
  00072	00		 DB	 0
  00073	00		 DB	 0
  00074	00		 DB	 0
  00075	00		 DB	 0
  00076	00		 DB	 0
  00077	00		 DB	 0
?IsMarketOrServerIndex@IMetaTable@@QAEHPBD@Z ENDP	; IMetaTable::IsMarketOrServerIndex
_TEXT	ENDS
; Function compile flags: /Ogtp
; File D:\git\src\IBK\IBK_DRFN\ProjSrc\SrcChartEx\ChartOCX\Include_Chart\Dll_Load\IMetaTable.cpp
;	COMDAT ?CanNotMultipleAddedOnMultipleSameNameIndicator@IMetaTable@@QAEHPBD@Z
_TEXT	SEGMENT
_p_szIndicatorName$ = 8					; size = 4
?CanNotMultipleAddedOnMultipleSameNameIndicator@IMetaTable@@QAEHPBD@Z PROC ; IMetaTable::CanNotMultipleAddedOnMultipleSameNameIndicator, COMDAT
; _this$ = ecx

; 807  : {

  00000	55		 push	 ebp
  00001	8b ec		 mov	 ebp, esp

; 808  : 	if( !p_szIndicatorName) return FALSE;

  00003	8b 45 08	 mov	 eax, DWORD PTR _p_szIndicatorName$[ebp]
  00006	85 c0		 test	 eax, eax
  00008	74 2a		 je	 SHORT $LN2@CanNotMult

; 809  : 	if( !*p_szIndicatorName) return FALSE;

  0000a	80 38 00	 cmp	 BYTE PTR [eax], 0
  0000d	74 25		 je	 SHORT $LN2@CanNotMult

; 810  : 	switch( GetIndicatorID( p_szIndicatorName))

  0000f	50		 push	 eax
  00010	e8 00 00 00 00	 call	 ?GetIndicatorID@IMetaTable@@QAEHPBD@Z ; IMetaTable::GetIndicatorID
  00015	83 c0 fe	 add	 eax, -2			; fffffffeH
  00018	83 f8 0c	 cmp	 eax, 12			; 0000000cH
  0001b	77 17		 ja	 SHORT $LN2@CanNotMult
  0001d	0f b6 80 00 00
	00 00		 movzx	 eax, BYTE PTR $LN13@CanNotMult[eax]
  00024	ff 24 85 00 00
	00 00		 jmp	 DWORD PTR $LN14@CanNotMult[eax*4]
$LN6@CanNotMult:

; 811  : 	{
; 812  : 		case EDDC_OCX_VOLUMEFORSALE:
; 813  : 		case EDDC_OCX_RAINBOWCHART:
; 814  : 		case EDDC_OCX_GLANCEBALANCECHART:
; 815  : 		case EDDC_VOLUMECHART:
; 816  : 		case EDDC_ST_DEMACHART:
; 817  : 		case EDDC_ST_PIVOTCHART:			return TRUE;

  0002b	b8 01 00 00 00	 mov	 eax, 1

; 820  : }

  00030	5d		 pop	 ebp
  00031	c2 04 00	 ret	 4
$LN2@CanNotMult:

; 818  : 	}
; 819  : 	return FALSE;

  00034	33 c0		 xor	 eax, eax

; 820  : }

  00036	5d		 pop	 ebp
  00037	c2 04 00	 ret	 4
  0003a	66 90		 npad	 2
$LN14@CanNotMult:
  0003c	00 00 00 00	 DD	 $LN6@CanNotMult
  00040	00 00 00 00	 DD	 $LN2@CanNotMult
$LN13@CanNotMult:
  00044	00		 DB	 0
  00045	01		 DB	 1
  00046	00		 DB	 0
  00047	00		 DB	 0
  00048	00		 DB	 0
  00049	01		 DB	 1
  0004a	01		 DB	 1
  0004b	00		 DB	 0
  0004c	01		 DB	 1
  0004d	01		 DB	 1
  0004e	01		 DB	 1
  0004f	01		 DB	 1
  00050	00		 DB	 0
?CanNotMultipleAddedOnMultipleSameNameIndicator@IMetaTable@@QAEHPBD@Z ENDP ; IMetaTable::CanNotMultipleAddedOnMultipleSameNameIndicator
_TEXT	ENDS
; Function compile flags: /Ogtp
; File D:\git\src\IBK\IBK_DRFN\ProjSrc\SrcChartEx\ChartOCX\Include_Chart\Dll_Load\IMetaTable.cpp
; File C:\Program Files (x86)\Microsoft Visual Studio\2019\Community\VC\Tools\MSVC\14.29.30133\atlmfc\include\atlsimpstr.h
; File D:\git\src\IBK\IBK_DRFN\ProjSrc\SrcChartEx\ChartOCX\Include_Chart\Dll_Load\IMetaTable.cpp
;	COMDAT ?IsVolumeForSale@IMetaTable@@QAEHABV?$CStringT@DV?$StrTraitMFC_DLL@DV?$ChTraitsCRT@D@ATL@@@@@ATL@@@Z
_TEXT	SEGMENT
_IndicatorName$ = 8					; size = 4
?IsVolumeForSale@IMetaTable@@QAEHABV?$CStringT@DV?$StrTraitMFC_DLL@DV?$ChTraitsCRT@D@ATL@@@@@ATL@@@Z PROC ; IMetaTable::IsVolumeForSale, COMDAT
; _this$ = ecx

; 789  : {

  00000	55		 push	 ebp
  00001	8b ec		 mov	 ebp, esp
; File C:\Program Files (x86)\Microsoft Visual Studio\2019\Community\VC\Tools\MSVC\14.29.30133\atlmfc\include\atlsimpstr.h

; 519  : 		return( GetData()->nDataLength );

  00003	8b 45 08	 mov	 eax, DWORD PTR _IndicatorName$[ebp]
  00006	8b 00		 mov	 eax, DWORD PTR [eax]

; 533  : 		return( GetLength() == 0 );

  00008	83 78 f4 00	 cmp	 DWORD PTR [eax-12], 0
; File D:\git\src\IBK\IBK_DRFN\ProjSrc\SrcChartEx\ChartOCX\Include_Chart\Dll_Load\IMetaTable.cpp

; 790  : 	if(IndicatorName.IsEmpty())

  0000c	75 06		 jne	 SHORT $LN4@IsVolumeFo
$LN16@IsVolumeFo:

; 798  : 	}
; 799  : 
; 800  : 	return FALSE;	
; 801  : }

  0000e	33 c0		 xor	 eax, eax
  00010	5d		 pop	 ebp
  00011	c2 04 00	 ret	 4
$LN4@IsVolumeFo:

; 791  : 		return FALSE;
; 792  : 
; 793  : 	switch( GetIndicatorID( IndicatorName))

  00014	50		 push	 eax
  00015	e8 00 00 00 00	 call	 ?GetIndicatorID@IMetaTable@@QAEHPBD@Z ; IMetaTable::GetIndicatorID
  0001a	83 f8 05	 cmp	 eax, 5
  0001d	74 05		 je	 SHORT $LN5@IsVolumeFo
  0001f	83 f8 71	 cmp	 eax, 113		; 00000071H
  00022	75 ea		 jne	 SHORT $LN16@IsVolumeFo
$LN5@IsVolumeFo:

; 794  : 	{
; 795  : 		case EDDC_OCX_VOLUMEFORSALE:
; 796  : 		case EDDC_OCX_VOLUMESELLBUYCHART:
; 797  : 												return TRUE;

  00024	b8 01 00 00 00	 mov	 eax, 1

; 798  : 	}
; 799  : 
; 800  : 	return FALSE;	
; 801  : }

  00029	5d		 pop	 ebp
  0002a	c2 04 00	 ret	 4
?IsVolumeForSale@IMetaTable@@QAEHABV?$CStringT@DV?$StrTraitMFC_DLL@DV?$ChTraitsCRT@D@ATL@@@@@ATL@@@Z ENDP ; IMetaTable::IsVolumeForSale
_TEXT	ENDS
; Function compile flags: /Ogtp
; File D:\git\src\IBK\IBK_DRFN\ProjSrc\SrcChartEx\ChartOCX\Include_Chart\Dll_Load\IMetaTable.cpp
; File C:\Program Files (x86)\Microsoft Visual Studio\2019\Community\VC\Tools\MSVC\14.29.30133\atlmfc\include\afxcoll.inl
; File D:\git\src\IBK\IBK_DRFN\ProjSrc\SrcChartEx\ChartOCX\Include_Chart\Dll_Load\IMetaTable.cpp
; File C:\Program Files (x86)\Microsoft Visual Studio\2019\Community\VC\Tools\MSVC\14.29.30133\atlmfc\include\afxcoll.inl
; File D:\git\src\IBK\IBK_DRFN\ProjSrc\SrcChartEx\ChartOCX\Include_Chart\Dll_Load\IMetaTable.cpp
; File C:\Program Files (x86)\Microsoft Visual Studio\2019\Community\VC\Tools\MSVC\14.29.30133\atlmfc\include\afxcoll.inl
; File D:\git\src\IBK\IBK_DRFN\ProjSrc\SrcChartEx\ChartOCX\Include_Chart\Dll_Load\IMetaTable.cpp
; File C:\Program Files (x86)\Microsoft Visual Studio\2019\Community\VC\Tools\MSVC\14.29.30133\atlmfc\include\afxcoll.inl
; File D:\git\src\IBK\IBK_DRFN\ProjSrc\SrcChartEx\ChartOCX\Include_Chart\Dll_Load\IMetaTable.cpp
; File C:\Program Files (x86)\Microsoft Visual Studio\2019\Community\VC\Tools\MSVC\14.29.30133\atlmfc\include\afxcoll.inl
; File D:\git\src\IBK\IBK_DRFN\ProjSrc\SrcChartEx\ChartOCX\Include_Chart\Dll_Load\IMetaTable.cpp
; File C:\Program Files (x86)\Microsoft Visual Studio\2019\Community\VC\Tools\MSVC\14.29.30133\atlmfc\include\afxcoll.inl
; File D:\git\src\IBK\IBK_DRFN\ProjSrc\SrcChartEx\ChartOCX\Include_Chart\Dll_Load\IMetaTable.cpp
; File C:\Program Files (x86)\Microsoft Visual Studio\2019\Community\VC\Tools\MSVC\14.29.30133\atlmfc\include\afxcoll.inl
; File D:\git\src\IBK\IBK_DRFN\ProjSrc\SrcChartEx\ChartOCX\Include_Chart\Dll_Load\IMetaTable.cpp
; File C:\Program Files (x86)\Microsoft Visual Studio\2019\Community\VC\Tools\MSVC\14.29.30133\atlmfc\include\afxcoll.inl
; File D:\git\src\IBK\IBK_DRFN\ProjSrc\SrcChartEx\ChartOCX\Include_Chart\Dll_Load\IMetaTable.cpp
; File C:\Program Files (x86)\Microsoft Visual Studio\2019\Community\VC\Tools\MSVC\14.29.30133\atlmfc\include\afxcoll.inl
; File D:\git\src\IBK\IBK_DRFN\ProjSrc\SrcChartEx\ChartOCX\Include_Chart\MapStringToWord.h
; File D:\git\src\IBK\IBK_DRFN\ProjSrc\SrcChartEx\ChartOCX\Include_Chart\Dll_Load\IMetaTable.cpp
;	COMDAT ?IsPriceChartType@IMetaTable@@QAEHPBD@Z
_TEXT	SEGMENT
_pValue$2 = -16						; size = 4
__$EHRec$ = -12						; size = 12
_p_szChartName$ = 8					; size = 4
?IsPriceChartType@IMetaTable@@QAEHPBD@Z PROC		; IMetaTable::IsPriceChartType, COMDAT
; _this$ = ecx

; 770  : {

  00000	55		 push	 ebp
  00001	8b ec		 mov	 ebp, esp
  00003	6a ff		 push	 -1
  00005	68 00 00 00 00	 push	 __ehhandler$?IsPriceChartType@IMetaTable@@QAEHPBD@Z
  0000a	64 a1 00 00 00
	00		 mov	 eax, DWORD PTR fs:0
  00010	50		 push	 eax
  00011	51		 push	 ecx
  00012	a1 00 00 00 00	 mov	 eax, DWORD PTR ___security_cookie
  00017	33 c5		 xor	 eax, ebp
  00019	50		 push	 eax
  0001a	8d 45 f4	 lea	 eax, DWORD PTR __$EHRec$[ebp]
  0001d	64 a3 00 00 00
	00		 mov	 DWORD PTR fs:0, eax

; 771  : 	static CMapStringToWord mapType;

  00023	64 a1 00 00 00
	00		 mov	 eax, DWORD PTR fs:__tls_array
  00029	8b 0d 00 00 00
	00		 mov	 ecx, DWORD PTR __tls_index
  0002f	8b 0c 88	 mov	 ecx, DWORD PTR [eax+ecx*4]
  00032	a1 00 00 00 00	 mov	 eax, DWORD PTR ?$TSS0@?1??IsPriceChartType@IMetaTable@@QAEHPBD@Z@4HA
  00037	3b 81 00 00 00
	00		 cmp	 eax, DWORD PTR __Init_thread_epoch[ecx]
  0003d	0f 8f 22 01 00
	00		 jg	 $LN49@IsPriceCha
$LN2@IsPriceCha:

; 772  : 	if( mapType.GetCount() <= 0)

  00043	83 3d 0c 00 00
	00 00		 cmp	 DWORD PTR ?mapType@?1??IsPriceChartType@IMetaTable@@QAEHPBD@Z@4VCMapStringToWord@@A+12, 0
  0004a	0f 8f f3 00 00
	00		 jg	 $LN3@IsPriceCha

; 773  : 	{
; 774  : 		mapType.SetAt( _MTEXT( C5_CANDLE_CHART), 0);

  00050	a1 54 00 00 00	 mov	 eax, DWORD PTR ?g_iMetaTable@@3VIMetaTable@@A+84
; File C:\Program Files (x86)\Microsoft Visual Studio\2019\Community\VC\Tools\MSVC\14.29.30133\atlmfc\include\afxcoll.inl

; 628  : 	{ (*this)[key] = newValue; }

  00055	b9 00 00 00 00	 mov	 ecx, OFFSET ?mapType@?1??IsPriceChartType@IMetaTable@@QAEHPBD@Z@4VCMapStringToWord@@A
  0005a	ff b0 fc 07 00
	00		 push	 DWORD PTR [eax+2044]
  00060	e8 00 00 00 00	 call	 ??ACMapStringToPtr@@QAEAAPAXPBD@Z ; CMapStringToPtr::operator[]
  00065	b9 00 00 00 00	 mov	 ecx, OFFSET ?mapType@?1??IsPriceChartType@IMetaTable@@QAEHPBD@Z@4VCMapStringToWord@@A
  0006a	c7 00 00 00 00
	00		 mov	 DWORD PTR [eax], 0
; File D:\git\src\IBK\IBK_DRFN\ProjSrc\SrcChartEx\ChartOCX\Include_Chart\Dll_Load\IMetaTable.cpp

; 775  : 		mapType.SetAt( _MTEXT( C5_BAR_CHART), 0);

  00070	a1 54 00 00 00	 mov	 eax, DWORD PTR ?g_iMetaTable@@3VIMetaTable@@A+84
; File C:\Program Files (x86)\Microsoft Visual Studio\2019\Community\VC\Tools\MSVC\14.29.30133\atlmfc\include\afxcoll.inl

; 628  : 	{ (*this)[key] = newValue; }

  00075	ff b0 0c 08 00
	00		 push	 DWORD PTR [eax+2060]
  0007b	e8 00 00 00 00	 call	 ??ACMapStringToPtr@@QAEAAPAXPBD@Z ; CMapStringToPtr::operator[]
  00080	b9 00 00 00 00	 mov	 ecx, OFFSET ?mapType@?1??IsPriceChartType@IMetaTable@@QAEHPBD@Z@4VCMapStringToWord@@A
  00085	c7 00 00 00 00
	00		 mov	 DWORD PTR [eax], 0
; File D:\git\src\IBK\IBK_DRFN\ProjSrc\SrcChartEx\ChartOCX\Include_Chart\Dll_Load\IMetaTable.cpp

; 776  : 		mapType.SetAt( _MTEXT( C5_BAR_CHART_OPEN_HIGH_LOW_CLOSE), 0);

  0008b	a1 54 00 00 00	 mov	 eax, DWORD PTR ?g_iMetaTable@@3VIMetaTable@@A+84
; File C:\Program Files (x86)\Microsoft Visual Studio\2019\Community\VC\Tools\MSVC\14.29.30133\atlmfc\include\afxcoll.inl

; 628  : 	{ (*this)[key] = newValue; }

  00090	ff b0 00 08 00
	00		 push	 DWORD PTR [eax+2048]
  00096	e8 00 00 00 00	 call	 ??ACMapStringToPtr@@QAEAAPAXPBD@Z ; CMapStringToPtr::operator[]
  0009b	b9 00 00 00 00	 mov	 ecx, OFFSET ?mapType@?1??IsPriceChartType@IMetaTable@@QAEHPBD@Z@4VCMapStringToWord@@A
  000a0	c7 00 00 00 00
	00		 mov	 DWORD PTR [eax], 0
; File D:\git\src\IBK\IBK_DRFN\ProjSrc\SrcChartEx\ChartOCX\Include_Chart\Dll_Load\IMetaTable.cpp

; 777  : 		mapType.SetAt( _MTEXT( C5_ANTENNA_CHART), 0);

  000a6	a1 54 00 00 00	 mov	 eax, DWORD PTR ?g_iMetaTable@@3VIMetaTable@@A+84
; File C:\Program Files (x86)\Microsoft Visual Studio\2019\Community\VC\Tools\MSVC\14.29.30133\atlmfc\include\afxcoll.inl

; 628  : 	{ (*this)[key] = newValue; }

  000ab	ff b0 08 08 00
	00		 push	 DWORD PTR [eax+2056]
  000b1	e8 00 00 00 00	 call	 ??ACMapStringToPtr@@QAEAAPAXPBD@Z ; CMapStringToPtr::operator[]
  000b6	b9 00 00 00 00	 mov	 ecx, OFFSET ?mapType@?1??IsPriceChartType@IMetaTable@@QAEHPBD@Z@4VCMapStringToWord@@A
  000bb	c7 00 00 00 00
	00		 mov	 DWORD PTR [eax], 0
; File D:\git\src\IBK\IBK_DRFN\ProjSrc\SrcChartEx\ChartOCX\Include_Chart\Dll_Load\IMetaTable.cpp

; 778  : 		mapType.SetAt( _MTEXT( C5_LINE_CHART), 0);

  000c1	a1 54 00 00 00	 mov	 eax, DWORD PTR ?g_iMetaTable@@3VIMetaTable@@A+84
; File C:\Program Files (x86)\Microsoft Visual Studio\2019\Community\VC\Tools\MSVC\14.29.30133\atlmfc\include\afxcoll.inl

; 628  : 	{ (*this)[key] = newValue; }

  000c6	ff b0 04 08 00
	00		 push	 DWORD PTR [eax+2052]
  000cc	e8 00 00 00 00	 call	 ??ACMapStringToPtr@@QAEAAPAXPBD@Z ; CMapStringToPtr::operator[]
  000d1	b9 00 00 00 00	 mov	 ecx, OFFSET ?mapType@?1??IsPriceChartType@IMetaTable@@QAEHPBD@Z@4VCMapStringToWord@@A
  000d6	c7 00 00 00 00
	00		 mov	 DWORD PTR [eax], 0
; File D:\git\src\IBK\IBK_DRFN\ProjSrc\SrcChartEx\ChartOCX\Include_Chart\Dll_Load\IMetaTable.cpp

; 779  : 		mapType.SetAt( _MTEXT( C5_BAR_CHART_HIGH_LOW_CLOSE), 0);

  000dc	a1 54 00 00 00	 mov	 eax, DWORD PTR ?g_iMetaTable@@3VIMetaTable@@A+84
; File C:\Program Files (x86)\Microsoft Visual Studio\2019\Community\VC\Tools\MSVC\14.29.30133\atlmfc\include\afxcoll.inl

; 628  : 	{ (*this)[key] = newValue; }

  000e1	ff b0 10 08 00
	00		 push	 DWORD PTR [eax+2064]
  000e7	e8 00 00 00 00	 call	 ??ACMapStringToPtr@@QAEAAPAXPBD@Z ; CMapStringToPtr::operator[]
  000ec	b9 00 00 00 00	 mov	 ecx, OFFSET ?mapType@?1??IsPriceChartType@IMetaTable@@QAEHPBD@Z@4VCMapStringToWord@@A
  000f1	c7 00 00 00 00
	00		 mov	 DWORD PTR [eax], 0
; File D:\git\src\IBK\IBK_DRFN\ProjSrc\SrcChartEx\ChartOCX\Include_Chart\Dll_Load\IMetaTable.cpp

; 780  : 		mapType.SetAt( _MTEXT( C5_FLOW_CHART), 0);

  000f7	a1 54 00 00 00	 mov	 eax, DWORD PTR ?g_iMetaTable@@3VIMetaTable@@A+84
; File C:\Program Files (x86)\Microsoft Visual Studio\2019\Community\VC\Tools\MSVC\14.29.30133\atlmfc\include\afxcoll.inl

; 628  : 	{ (*this)[key] = newValue; }

  000fc	ff b0 14 08 00
	00		 push	 DWORD PTR [eax+2068]
  00102	e8 00 00 00 00	 call	 ??ACMapStringToPtr@@QAEAAPAXPBD@Z ; CMapStringToPtr::operator[]
  00107	b9 00 00 00 00	 mov	 ecx, OFFSET ?mapType@?1??IsPriceChartType@IMetaTable@@QAEHPBD@Z@4VCMapStringToWord@@A
  0010c	c7 00 00 00 00
	00		 mov	 DWORD PTR [eax], 0
; File D:\git\src\IBK\IBK_DRFN\ProjSrc\SrcChartEx\ChartOCX\Include_Chart\Dll_Load\IMetaTable.cpp

; 781  : 		mapType.SetAt( _MTEXT( C5_CANDLE_VOLUME_CHART), 0);

  00112	a1 54 00 00 00	 mov	 eax, DWORD PTR ?g_iMetaTable@@3VIMetaTable@@A+84
; File C:\Program Files (x86)\Microsoft Visual Studio\2019\Community\VC\Tools\MSVC\14.29.30133\atlmfc\include\afxcoll.inl

; 628  : 	{ (*this)[key] = newValue; }

  00117	ff b0 18 08 00
	00		 push	 DWORD PTR [eax+2072]
  0011d	e8 00 00 00 00	 call	 ??ACMapStringToPtr@@QAEAAPAXPBD@Z ; CMapStringToPtr::operator[]
  00122	b9 00 00 00 00	 mov	 ecx, OFFSET ?mapType@?1??IsPriceChartType@IMetaTable@@QAEHPBD@Z@4VCMapStringToWord@@A
  00127	c7 00 00 00 00
	00		 mov	 DWORD PTR [eax], 0
; File D:\git\src\IBK\IBK_DRFN\ProjSrc\SrcChartEx\ChartOCX\Include_Chart\Dll_Load\IMetaTable.cpp

; 782  : 		mapType.SetAt( _MTEXT( C5_EQUI_VOLUME_CHART), 0);

  0012d	a1 54 00 00 00	 mov	 eax, DWORD PTR ?g_iMetaTable@@3VIMetaTable@@A+84
; File C:\Program Files (x86)\Microsoft Visual Studio\2019\Community\VC\Tools\MSVC\14.29.30133\atlmfc\include\afxcoll.inl

; 628  : 	{ (*this)[key] = newValue; }

  00132	ff b0 1c 08 00
	00		 push	 DWORD PTR [eax+2076]
  00138	e8 00 00 00 00	 call	 ??ACMapStringToPtr@@QAEAAPAXPBD@Z ; CMapStringToPtr::operator[]
  0013d	c7 00 00 00 00
	00		 mov	 DWORD PTR [eax], 0
$LN3@IsPriceCha:
; File D:\git\src\IBK\IBK_DRFN\ProjSrc\SrcChartEx\ChartOCX\Include_Chart\MapStringToWord.h

; 22   : 				BOOL bResult = CMapStringToPtr::Lookup( key, pValue);

  00143	8d 45 f0	 lea	 eax, DWORD PTR _pValue$2[ebp]
  00146	b9 00 00 00 00	 mov	 ecx, OFFSET ?mapType@?1??IsPriceChartType@IMetaTable@@QAEHPBD@Z@4VCMapStringToWord@@A
  0014b	50		 push	 eax
  0014c	ff 75 08	 push	 DWORD PTR _p_szChartName$[ebp]
  0014f	e8 00 00 00 00	 call	 ?Lookup@CMapStringToPtr@@QBEHPBDAAPAX@Z ; CMapStringToPtr::Lookup
; File D:\git\src\IBK\IBK_DRFN\ProjSrc\SrcChartEx\ChartOCX\Include_Chart\Dll_Load\IMetaTable.cpp

; 787  : }

  00154	8b 4d f4	 mov	 ecx, DWORD PTR __$EHRec$[ebp]
  00157	64 89 0d 00 00
	00 00		 mov	 DWORD PTR fs:0, ecx
  0015e	59		 pop	 ecx
  0015f	8b e5		 mov	 esp, ebp
  00161	5d		 pop	 ebp
  00162	c2 04 00	 ret	 4
$LN49@IsPriceCha:

; 771  : 	static CMapStringToWord mapType;

  00165	68 00 00 00 00	 push	 OFFSET ?$TSS0@?1??IsPriceChartType@IMetaTable@@QAEHPBD@Z@4HA
  0016a	e8 00 00 00 00	 call	 __Init_thread_header
  0016f	83 c4 04	 add	 esp, 4
  00172	83 3d 00 00 00
	00 ff		 cmp	 DWORD PTR ?$TSS0@?1??IsPriceChartType@IMetaTable@@QAEHPBD@Z@4HA, -1
  00179	0f 85 c4 fe ff
	ff		 jne	 $LN2@IsPriceCha
  0017f	6a 0a		 push	 10			; 0000000aH
  00181	b9 00 00 00 00	 mov	 ecx, OFFSET ?mapType@?1??IsPriceChartType@IMetaTable@@QAEHPBD@Z@4VCMapStringToWord@@A
  00186	c7 45 fc 00 00
	00 00		 mov	 DWORD PTR __$EHRec$[ebp+8], 0
  0018d	e8 00 00 00 00	 call	 ??0CMapStringToPtr@@QAE@H@Z ; CMapStringToPtr::CMapStringToPtr
  00192	68 00 00 00 00	 push	 OFFSET ??__FmapType@?1??IsPriceChartType@IMetaTable@@QAEHPBD@Z@YAXXZ ; `IMetaTable::IsPriceChartType'::`2'::`dynamic atexit destructor for 'mapType''
  00197	c7 05 00 00 00
	00 00 00 00 00	 mov	 DWORD PTR ?mapType@?1??IsPriceChartType@IMetaTable@@QAEHPBD@Z@4VCMapStringToWord@@A, OFFSET ??_7CMapStringToWord@@6B@
  001a1	e8 00 00 00 00	 call	 _atexit
  001a6	68 00 00 00 00	 push	 OFFSET ?$TSS0@?1??IsPriceChartType@IMetaTable@@QAEHPBD@Z@4HA
  001ab	c7 45 fc ff ff
	ff ff		 mov	 DWORD PTR __$EHRec$[ebp+8], -1
  001b2	e8 00 00 00 00	 call	 __Init_thread_footer
  001b7	83 c4 08	 add	 esp, 8
  001ba	e9 84 fe ff ff	 jmp	 $LN2@IsPriceCha
_TEXT	ENDS
;	COMDAT text$x
text$x	SEGMENT
__unwindfunclet$?IsPriceChartType@IMetaTable@@QAEHPBD@Z$0:
  00000	68 00 00 00 00	 push	 OFFSET ?$TSS0@?1??IsPriceChartType@IMetaTable@@QAEHPBD@Z@4HA
  00005	e8 00 00 00 00	 call	 __Init_thread_abort
  0000a	59		 pop	 ecx
  0000b	c3		 ret	 0
  0000c	cc		 int	 3
  0000d	cc		 int	 3
  0000e	cc		 int	 3
  0000f	cc		 int	 3
  00010	cc		 int	 3
__ehhandler$?IsPriceChartType@IMetaTable@@QAEHPBD@Z:
  00011	90		 npad	 1
  00012	90		 npad	 1
  00013	8b 54 24 08	 mov	 edx, DWORD PTR [esp+8]
  00017	8d 42 0c	 lea	 eax, DWORD PTR [edx+12]
  0001a	8b 4a f8	 mov	 ecx, DWORD PTR [edx-8]
  0001d	33 c8		 xor	 ecx, eax
  0001f	e8 00 00 00 00	 call	 @__security_check_cookie@4
  00024	b8 00 00 00 00	 mov	 eax, OFFSET __ehfuncinfo$?IsPriceChartType@IMetaTable@@QAEHPBD@Z
  00029	e9 00 00 00 00	 jmp	 ___CxxFrameHandler3
text$x	ENDS
?IsPriceChartType@IMetaTable@@QAEHPBD@Z ENDP		; IMetaTable::IsPriceChartType
; Function compile flags: /Ogtp
; File D:\git\src\IBK\IBK_DRFN\ProjSrc\SrcChartEx\ChartOCX\Include_Chart\Dll_Load\IMetaTable.cpp
; File C:\Program Files (x86)\Microsoft Visual Studio\2019\Community\VC\Tools\MSVC\14.29.30133\atlmfc\include\afxcoll.inl
; File D:\git\src\IBK\IBK_DRFN\ProjSrc\SrcChartEx\ChartOCX\Include_Chart\Dll_Load\IMetaTable.cpp
; File C:\Program Files (x86)\Microsoft Visual Studio\2019\Community\VC\Tools\MSVC\14.29.30133\atlmfc\include\afxcoll.inl
; File D:\git\src\IBK\IBK_DRFN\ProjSrc\SrcChartEx\ChartOCX\Include_Chart\Dll_Load\IMetaTable.cpp
; File C:\Program Files (x86)\Microsoft Visual Studio\2019\Community\VC\Tools\MSVC\14.29.30133\atlmfc\include\afxcoll.inl
; File D:\git\src\IBK\IBK_DRFN\ProjSrc\SrcChartEx\ChartOCX\Include_Chart\Dll_Load\IMetaTable.cpp
; File C:\Program Files (x86)\Microsoft Visual Studio\2019\Community\VC\Tools\MSVC\14.29.30133\atlmfc\include\afxcoll.inl
; File D:\git\src\IBK\IBK_DRFN\ProjSrc\SrcChartEx\ChartOCX\Include_Chart\Dll_Load\IMetaTable.cpp
; File C:\Program Files (x86)\Microsoft Visual Studio\2019\Community\VC\Tools\MSVC\14.29.30133\atlmfc\include\afxcoll.inl
; File D:\git\src\IBK\IBK_DRFN\ProjSrc\SrcChartEx\ChartOCX\Include_Chart\Dll_Load\IMetaTable.cpp
; File C:\Program Files (x86)\Microsoft Visual Studio\2019\Community\VC\Tools\MSVC\14.29.30133\atlmfc\include\afxcoll.inl
; File D:\git\src\IBK\IBK_DRFN\ProjSrc\SrcChartEx\ChartOCX\Include_Chart\Dll_Load\IMetaTable.cpp
; File C:\Program Files (x86)\Microsoft Visual Studio\2019\Community\VC\Tools\MSVC\14.29.30133\atlmfc\include\afxcoll.inl
; File D:\git\src\IBK\IBK_DRFN\ProjSrc\SrcChartEx\ChartOCX\Include_Chart\Dll_Load\IMetaTable.cpp
; File C:\Program Files (x86)\Microsoft Visual Studio\2019\Community\VC\Tools\MSVC\14.29.30133\atlmfc\include\afxcoll.inl
; File D:\git\src\IBK\IBK_DRFN\ProjSrc\SrcChartEx\ChartOCX\Include_Chart\Dll_Load\IMetaTable.cpp
; File C:\Program Files (x86)\Microsoft Visual Studio\2019\Community\VC\Tools\MSVC\14.29.30133\atlmfc\include\afxcoll.inl
; File D:\git\src\IBK\IBK_DRFN\ProjSrc\SrcChartEx\ChartOCX\Include_Chart\MapStringToWord.h
; File D:\git\src\IBK\IBK_DRFN\ProjSrc\SrcChartEx\ChartOCX\Include_Chart\Dll_Load\IMetaTable.cpp
;	COMDAT ?IsChartType@IMetaTable@@QAEHPBD@Z
_TEXT	SEGMENT
_pValue$2 = -16						; size = 4
__$EHRec$ = -12						; size = 12
_p_szChartName$ = 8					; size = 4
?IsChartType@IMetaTable@@QAEHPBD@Z PROC			; IMetaTable::IsChartType, COMDAT
; _this$ = ecx

; 766  : {

  00000	55		 push	 ebp
  00001	8b ec		 mov	 ebp, esp
  00003	6a ff		 push	 -1
  00005	68 00 00 00 00	 push	 __ehhandler$?IsChartType@IMetaTable@@QAEHPBD@Z
  0000a	64 a1 00 00 00
	00		 mov	 eax, DWORD PTR fs:0
  00010	50		 push	 eax
  00011	51		 push	 ecx
  00012	a1 00 00 00 00	 mov	 eax, DWORD PTR ___security_cookie
  00017	33 c5		 xor	 eax, ebp
  00019	50		 push	 eax
  0001a	8d 45 f4	 lea	 eax, DWORD PTR __$EHRec$[ebp]
  0001d	64 a3 00 00 00
	00		 mov	 DWORD PTR fs:0, eax

; 624  : 	switch( GetIndicatorID( p_szIndicatorName))

  00023	ff 75 08	 push	 DWORD PTR _p_szChartName$[ebp]
  00026	e8 00 00 00 00	 call	 ?GetIndicatorID@IMetaTable@@QAEHPBD@Z ; IMetaTable::GetIndicatorID
  0002b	83 c0 9a	 add	 eax, -102		; ffffff9aH
  0002e	83 f8 06	 cmp	 eax, 6
  00031	77 0e		 ja	 SHORT $LN6@IsChartTyp
  00033	0f b6 80 00 00
	00 00		 movzx	 eax, BYTE PTR $LN63@IsChartTyp[eax]
  0003a	ff 24 85 00 00
	00 00		 jmp	 DWORD PTR $LN64@IsChartTyp[eax*4]
$LN6@IsChartTyp:

; 771  : 	static CMapStringToWord mapType;

  00041	64 a1 00 00 00
	00		 mov	 eax, DWORD PTR fs:__tls_array
  00047	8b 0d 00 00 00
	00		 mov	 ecx, DWORD PTR __tls_index
  0004d	8b 0c 88	 mov	 ecx, DWORD PTR [eax+ecx*4]
  00050	a1 00 00 00 00	 mov	 eax, DWORD PTR ?$TSS0@?1??IsPriceChartType@IMetaTable@@QAEHPBD@Z@4HA
  00055	3b 81 00 00 00
	00		 cmp	 eax, DWORD PTR __Init_thread_epoch[ecx]
  0005b	0f 8f 3c 01 00
	00		 jg	 $LN67@IsChartTyp
$LN17@IsChartTyp:

; 772  : 	if( mapType.GetCount() <= 0)

  00061	83 3d 0c 00 00
	00 00		 cmp	 DWORD PTR ?mapType@?1??IsPriceChartType@IMetaTable@@QAEHPBD@Z@4VCMapStringToWord@@A+12, 0
  00068	0f 8f f3 00 00
	00		 jg	 $LN18@IsChartTyp

; 773  : 	{
; 774  : 		mapType.SetAt( _MTEXT( C5_CANDLE_CHART), 0);

  0006e	a1 54 00 00 00	 mov	 eax, DWORD PTR ?g_iMetaTable@@3VIMetaTable@@A+84
; File C:\Program Files (x86)\Microsoft Visual Studio\2019\Community\VC\Tools\MSVC\14.29.30133\atlmfc\include\afxcoll.inl

; 628  : 	{ (*this)[key] = newValue; }

  00073	b9 00 00 00 00	 mov	 ecx, OFFSET ?mapType@?1??IsPriceChartType@IMetaTable@@QAEHPBD@Z@4VCMapStringToWord@@A
  00078	ff b0 fc 07 00
	00		 push	 DWORD PTR [eax+2044]
  0007e	e8 00 00 00 00	 call	 ??ACMapStringToPtr@@QAEAAPAXPBD@Z ; CMapStringToPtr::operator[]
  00083	b9 00 00 00 00	 mov	 ecx, OFFSET ?mapType@?1??IsPriceChartType@IMetaTable@@QAEHPBD@Z@4VCMapStringToWord@@A
  00088	c7 00 00 00 00
	00		 mov	 DWORD PTR [eax], 0
; File D:\git\src\IBK\IBK_DRFN\ProjSrc\SrcChartEx\ChartOCX\Include_Chart\Dll_Load\IMetaTable.cpp

; 775  : 		mapType.SetAt( _MTEXT( C5_BAR_CHART), 0);

  0008e	a1 54 00 00 00	 mov	 eax, DWORD PTR ?g_iMetaTable@@3VIMetaTable@@A+84
; File C:\Program Files (x86)\Microsoft Visual Studio\2019\Community\VC\Tools\MSVC\14.29.30133\atlmfc\include\afxcoll.inl

; 628  : 	{ (*this)[key] = newValue; }

  00093	ff b0 0c 08 00
	00		 push	 DWORD PTR [eax+2060]
  00099	e8 00 00 00 00	 call	 ??ACMapStringToPtr@@QAEAAPAXPBD@Z ; CMapStringToPtr::operator[]
  0009e	b9 00 00 00 00	 mov	 ecx, OFFSET ?mapType@?1??IsPriceChartType@IMetaTable@@QAEHPBD@Z@4VCMapStringToWord@@A
  000a3	c7 00 00 00 00
	00		 mov	 DWORD PTR [eax], 0
; File D:\git\src\IBK\IBK_DRFN\ProjSrc\SrcChartEx\ChartOCX\Include_Chart\Dll_Load\IMetaTable.cpp

; 776  : 		mapType.SetAt( _MTEXT( C5_BAR_CHART_OPEN_HIGH_LOW_CLOSE), 0);

  000a9	a1 54 00 00 00	 mov	 eax, DWORD PTR ?g_iMetaTable@@3VIMetaTable@@A+84
; File C:\Program Files (x86)\Microsoft Visual Studio\2019\Community\VC\Tools\MSVC\14.29.30133\atlmfc\include\afxcoll.inl

; 628  : 	{ (*this)[key] = newValue; }

  000ae	ff b0 00 08 00
	00		 push	 DWORD PTR [eax+2048]
  000b4	e8 00 00 00 00	 call	 ??ACMapStringToPtr@@QAEAAPAXPBD@Z ; CMapStringToPtr::operator[]
  000b9	b9 00 00 00 00	 mov	 ecx, OFFSET ?mapType@?1??IsPriceChartType@IMetaTable@@QAEHPBD@Z@4VCMapStringToWord@@A
  000be	c7 00 00 00 00
	00		 mov	 DWORD PTR [eax], 0
; File D:\git\src\IBK\IBK_DRFN\ProjSrc\SrcChartEx\ChartOCX\Include_Chart\Dll_Load\IMetaTable.cpp

; 777  : 		mapType.SetAt( _MTEXT( C5_ANTENNA_CHART), 0);

  000c4	a1 54 00 00 00	 mov	 eax, DWORD PTR ?g_iMetaTable@@3VIMetaTable@@A+84
; File C:\Program Files (x86)\Microsoft Visual Studio\2019\Community\VC\Tools\MSVC\14.29.30133\atlmfc\include\afxcoll.inl

; 628  : 	{ (*this)[key] = newValue; }

  000c9	ff b0 08 08 00
	00		 push	 DWORD PTR [eax+2056]
  000cf	e8 00 00 00 00	 call	 ??ACMapStringToPtr@@QAEAAPAXPBD@Z ; CMapStringToPtr::operator[]
  000d4	b9 00 00 00 00	 mov	 ecx, OFFSET ?mapType@?1??IsPriceChartType@IMetaTable@@QAEHPBD@Z@4VCMapStringToWord@@A
  000d9	c7 00 00 00 00
	00		 mov	 DWORD PTR [eax], 0
; File D:\git\src\IBK\IBK_DRFN\ProjSrc\SrcChartEx\ChartOCX\Include_Chart\Dll_Load\IMetaTable.cpp

; 778  : 		mapType.SetAt( _MTEXT( C5_LINE_CHART), 0);

  000df	a1 54 00 00 00	 mov	 eax, DWORD PTR ?g_iMetaTable@@3VIMetaTable@@A+84
; File C:\Program Files (x86)\Microsoft Visual Studio\2019\Community\VC\Tools\MSVC\14.29.30133\atlmfc\include\afxcoll.inl

; 628  : 	{ (*this)[key] = newValue; }

  000e4	ff b0 04 08 00
	00		 push	 DWORD PTR [eax+2052]
  000ea	e8 00 00 00 00	 call	 ??ACMapStringToPtr@@QAEAAPAXPBD@Z ; CMapStringToPtr::operator[]
  000ef	b9 00 00 00 00	 mov	 ecx, OFFSET ?mapType@?1??IsPriceChartType@IMetaTable@@QAEHPBD@Z@4VCMapStringToWord@@A
  000f4	c7 00 00 00 00
	00		 mov	 DWORD PTR [eax], 0
; File D:\git\src\IBK\IBK_DRFN\ProjSrc\SrcChartEx\ChartOCX\Include_Chart\Dll_Load\IMetaTable.cpp

; 779  : 		mapType.SetAt( _MTEXT( C5_BAR_CHART_HIGH_LOW_CLOSE), 0);

  000fa	a1 54 00 00 00	 mov	 eax, DWORD PTR ?g_iMetaTable@@3VIMetaTable@@A+84
; File C:\Program Files (x86)\Microsoft Visual Studio\2019\Community\VC\Tools\MSVC\14.29.30133\atlmfc\include\afxcoll.inl

; 628  : 	{ (*this)[key] = newValue; }

  000ff	ff b0 10 08 00
	00		 push	 DWORD PTR [eax+2064]
  00105	e8 00 00 00 00	 call	 ??ACMapStringToPtr@@QAEAAPAXPBD@Z ; CMapStringToPtr::operator[]
  0010a	b9 00 00 00 00	 mov	 ecx, OFFSET ?mapType@?1??IsPriceChartType@IMetaTable@@QAEHPBD@Z@4VCMapStringToWord@@A
  0010f	c7 00 00 00 00
	00		 mov	 DWORD PTR [eax], 0
; File D:\git\src\IBK\IBK_DRFN\ProjSrc\SrcChartEx\ChartOCX\Include_Chart\Dll_Load\IMetaTable.cpp

; 780  : 		mapType.SetAt( _MTEXT( C5_FLOW_CHART), 0);

  00115	a1 54 00 00 00	 mov	 eax, DWORD PTR ?g_iMetaTable@@3VIMetaTable@@A+84
; File C:\Program Files (x86)\Microsoft Visual Studio\2019\Community\VC\Tools\MSVC\14.29.30133\atlmfc\include\afxcoll.inl

; 628  : 	{ (*this)[key] = newValue; }

  0011a	ff b0 14 08 00
	00		 push	 DWORD PTR [eax+2068]
  00120	e8 00 00 00 00	 call	 ??ACMapStringToPtr@@QAEAAPAXPBD@Z ; CMapStringToPtr::operator[]
  00125	b9 00 00 00 00	 mov	 ecx, OFFSET ?mapType@?1??IsPriceChartType@IMetaTable@@QAEHPBD@Z@4VCMapStringToWord@@A
  0012a	c7 00 00 00 00
	00		 mov	 DWORD PTR [eax], 0
; File D:\git\src\IBK\IBK_DRFN\ProjSrc\SrcChartEx\ChartOCX\Include_Chart\Dll_Load\IMetaTable.cpp

; 781  : 		mapType.SetAt( _MTEXT( C5_CANDLE_VOLUME_CHART), 0);

  00130	a1 54 00 00 00	 mov	 eax, DWORD PTR ?g_iMetaTable@@3VIMetaTable@@A+84
; File C:\Program Files (x86)\Microsoft Visual Studio\2019\Community\VC\Tools\MSVC\14.29.30133\atlmfc\include\afxcoll.inl

; 628  : 	{ (*this)[key] = newValue; }

  00135	ff b0 18 08 00
	00		 push	 DWORD PTR [eax+2072]
  0013b	e8 00 00 00 00	 call	 ??ACMapStringToPtr@@QAEAAPAXPBD@Z ; CMapStringToPtr::operator[]
  00140	b9 00 00 00 00	 mov	 ecx, OFFSET ?mapType@?1??IsPriceChartType@IMetaTable@@QAEHPBD@Z@4VCMapStringToWord@@A
  00145	c7 00 00 00 00
	00		 mov	 DWORD PTR [eax], 0
; File D:\git\src\IBK\IBK_DRFN\ProjSrc\SrcChartEx\ChartOCX\Include_Chart\Dll_Load\IMetaTable.cpp

; 782  : 		mapType.SetAt( _MTEXT( C5_EQUI_VOLUME_CHART), 0);

  0014b	a1 54 00 00 00	 mov	 eax, DWORD PTR ?g_iMetaTable@@3VIMetaTable@@A+84
; File C:\Program Files (x86)\Microsoft Visual Studio\2019\Community\VC\Tools\MSVC\14.29.30133\atlmfc\include\afxcoll.inl

; 628  : 	{ (*this)[key] = newValue; }

  00150	ff b0 1c 08 00
	00		 push	 DWORD PTR [eax+2076]
  00156	e8 00 00 00 00	 call	 ??ACMapStringToPtr@@QAEAAPAXPBD@Z ; CMapStringToPtr::operator[]
  0015b	c7 00 00 00 00
	00		 mov	 DWORD PTR [eax], 0
$LN18@IsChartTyp:
; File D:\git\src\IBK\IBK_DRFN\ProjSrc\SrcChartEx\ChartOCX\Include_Chart\MapStringToWord.h

; 22   : 				BOOL bResult = CMapStringToPtr::Lookup( key, pValue);

  00161	8d 45 f0	 lea	 eax, DWORD PTR _pValue$2[ebp]
  00164	b9 00 00 00 00	 mov	 ecx, OFFSET ?mapType@?1??IsPriceChartType@IMetaTable@@QAEHPBD@Z@4VCMapStringToWord@@A
  00169	50		 push	 eax
  0016a	ff 75 08	 push	 DWORD PTR _p_szChartName$[ebp]
  0016d	e8 00 00 00 00	 call	 ?Lookup@CMapStringToPtr@@QBEHPBDAAPAX@Z ; CMapStringToPtr::Lookup
; File D:\git\src\IBK\IBK_DRFN\ProjSrc\SrcChartEx\ChartOCX\Include_Chart\Dll_Load\IMetaTable.cpp

; 767  : 	return IsSpecialGroupGraph( p_szChartName) || IsPriceChartType( p_szChartName);

  00172	85 c0		 test	 eax, eax
  00174	75 11		 jne	 SHORT $LN3@IsChartTyp

; 768  : }

  00176	8b 4d f4	 mov	 ecx, DWORD PTR __$EHRec$[ebp]
  00179	64 89 0d 00 00
	00 00		 mov	 DWORD PTR fs:0, ecx
  00180	59		 pop	 ecx
  00181	8b e5		 mov	 esp, ebp
  00183	5d		 pop	 ebp
  00184	c2 04 00	 ret	 4
$LN3@IsChartTyp:

; 767  : 	return IsSpecialGroupGraph( p_szChartName) || IsPriceChartType( p_szChartName);

  00187	b8 01 00 00 00	 mov	 eax, 1

; 768  : }

  0018c	8b 4d f4	 mov	 ecx, DWORD PTR __$EHRec$[ebp]
  0018f	64 89 0d 00 00
	00 00		 mov	 DWORD PTR fs:0, ecx
  00196	59		 pop	 ecx
  00197	8b e5		 mov	 esp, ebp
  00199	5d		 pop	 ebp
  0019a	c2 04 00	 ret	 4
$LN67@IsChartTyp:

; 771  : 	static CMapStringToWord mapType;

  0019d	68 00 00 00 00	 push	 OFFSET ?$TSS0@?1??IsPriceChartType@IMetaTable@@QAEHPBD@Z@4HA
  001a2	e8 00 00 00 00	 call	 __Init_thread_header
  001a7	83 c4 04	 add	 esp, 4
  001aa	83 3d 00 00 00
	00 ff		 cmp	 DWORD PTR ?$TSS0@?1??IsPriceChartType@IMetaTable@@QAEHPBD@Z@4HA, -1
  001b1	0f 85 aa fe ff
	ff		 jne	 $LN17@IsChartTyp
  001b7	6a 0a		 push	 10			; 0000000aH
  001b9	b9 00 00 00 00	 mov	 ecx, OFFSET ?mapType@?1??IsPriceChartType@IMetaTable@@QAEHPBD@Z@4VCMapStringToWord@@A
  001be	c7 45 fc 00 00
	00 00		 mov	 DWORD PTR __$EHRec$[ebp+8], 0
  001c5	e8 00 00 00 00	 call	 ??0CMapStringToPtr@@QAE@H@Z ; CMapStringToPtr::CMapStringToPtr
  001ca	68 00 00 00 00	 push	 OFFSET ??__FmapType@?1??IsPriceChartType@IMetaTable@@QAEHPBD@Z@YAXXZ ; `IMetaTable::IsPriceChartType'::`2'::`dynamic atexit destructor for 'mapType''
  001cf	c7 05 00 00 00
	00 00 00 00 00	 mov	 DWORD PTR ?mapType@?1??IsPriceChartType@IMetaTable@@QAEHPBD@Z@4VCMapStringToWord@@A, OFFSET ??_7CMapStringToWord@@6B@
  001d9	e8 00 00 00 00	 call	 _atexit
  001de	68 00 00 00 00	 push	 OFFSET ?$TSS0@?1??IsPriceChartType@IMetaTable@@QAEHPBD@Z@4HA
  001e3	c7 45 fc ff ff
	ff ff		 mov	 DWORD PTR __$EHRec$[ebp+8], -1
  001ea	e8 00 00 00 00	 call	 __Init_thread_footer
  001ef	83 c4 08	 add	 esp, 8
  001f2	e9 6a fe ff ff	 jmp	 $LN17@IsChartTyp
  001f7	90		 npad	 1
$LN64@IsChartTyp:

; 768  : }

  001f8	00 00 00 00	 DD	 $LN3@IsChartTyp
$LN63@IsChartTyp:
  001fc	00		 DB	 0
  001fd	00		 DB	 0
  001fe	00		 DB	 0
  001ff	00		 DB	 0
  00200	00		 DB	 0
  00201	00		 DB	 0
  00202	00		 DB	 0
_TEXT	ENDS
;	COMDAT text$x
text$x	SEGMENT
__unwindfunclet$?IsChartType@IMetaTable@@QAEHPBD@Z$0:
  00000	68 00 00 00 00	 push	 OFFSET ?$TSS0@?1??IsPriceChartType@IMetaTable@@QAEHPBD@Z@4HA
  00005	e8 00 00 00 00	 call	 __Init_thread_abort
  0000a	59		 pop	 ecx
  0000b	c3		 ret	 0
  0000c	cc		 int	 3
  0000d	cc		 int	 3
  0000e	cc		 int	 3
  0000f	cc		 int	 3
  00010	cc		 int	 3
__ehhandler$?IsChartType@IMetaTable@@QAEHPBD@Z:
  00011	90		 npad	 1
  00012	90		 npad	 1
  00013	8b 54 24 08	 mov	 edx, DWORD PTR [esp+8]
  00017	8d 42 0c	 lea	 eax, DWORD PTR [edx+12]
  0001a	8b 4a f8	 mov	 ecx, DWORD PTR [edx-8]
  0001d	33 c8		 xor	 ecx, eax
  0001f	e8 00 00 00 00	 call	 @__security_check_cookie@4
  00024	b8 00 00 00 00	 mov	 eax, OFFSET __ehfuncinfo$?IsChartType@IMetaTable@@QAEHPBD@Z
  00029	e9 00 00 00 00	 jmp	 ___CxxFrameHandler3
text$x	ENDS
?IsChartType@IMetaTable@@QAEHPBD@Z ENDP			; IMetaTable::IsChartType
; Function compile flags: /Ogtp
; File D:\git\src\IBK\IBK_DRFN\ProjSrc\SrcChartEx\ChartOCX\Include_Chart\Dll_Load\IMetaTable.cpp
;	COMDAT ?IsSTIndexIndicator@IMetaTable@@QAEHH@Z
_TEXT	SEGMENT
_p_nID$ = 8						; size = 4
?IsSTIndexIndicator@IMetaTable@@QAEHH@Z PROC		; IMetaTable::IsSTIndexIndicator, COMDAT
; _this$ = ecx

; 655  : {

  00000	55		 push	 ebp
  00001	8b ec		 mov	 ebp, esp

; 656  : 	switch( p_nID)

  00003	8b 45 08	 mov	 eax, DWORD PTR _p_nID$[ebp]
  00006	83 c0 f9	 add	 eax, -7			; fffffff9H
  00009	83 f8 5e	 cmp	 eax, 94			; 0000005eH
  0000c	77 17		 ja	 SHORT $LN2@IsSTIndexI
  0000e	0f b6 80 00 00
	00 00		 movzx	 eax, BYTE PTR $LN97@IsSTIndexI[eax]
  00015	ff 24 85 00 00
	00 00		 jmp	 DWORD PTR $LN98@IsSTIndexI[eax*4]
$LN4@IsSTIndexI:

; 657  : 	{
; 658  : 		// (2006/11/19 - Seung-Won, Bae) Dongbu, SK List
; 659  : 		case EDDC_ST_WILLIAMCHART:
; 660  : 		case EDDC_ST_7_BINARY_WAVE:
; 661  : // vntsorl:[0003431] [7111]      
; 662  : // 		case EDDC_ST_PRICEMACHART:
; 663  : // 		case EDDC_ST_VOLUMEMACHART:
; 664  : 		case EDDC_ST_STD_ERROR_BAND:
; 665  : 		case EDDC_ST_PSYCHCHART:
; 666  : 		case EDDC_ST_NEW_PSYCHOLOGY_LINE:
; 667  : 		case EDDC_ST_DISPARITYCHART_SMA:
; 668  : 		case EDDC_ST_DISPARITYCHART_EMA:
; 669  : 		case EDDC_ST_ABRATIO:
; 670  : 		case EDDC_ST_ADLINE:
; 671  : 		case EDDC_ST_ADX:
; 672  : 		case EDDC_ST_ADXR:
; 673  : 		case EDDC_ST_AROON:
; 674  : 		case EDDC_ST_ATR:
; 675  : 		case EDDC_ST_BAND_PERCENT_B:
; 676  : 		case EDDC_ST_BAND_WIDTH:
; 677  : 		case EDDC_ST_BINARY_WAVE:
; 678  : 		case EDDC_ST_BWI:
; 679  : 		case EDDC_ST_BOLLINGERCHART:
; 680  : 		case EDDC_ST_CCI:
; 681  : 		case EDDC_ST_CHAIKINS_OSCILLATOR:
; 682  : 		case EDDC_ST_CHAIKINS_VOLATILITY:
; 683  : 		case EDDC_ST_CMF:
; 684  : 		case EDDC_ST_DEMACHART:
; 685  : 		case EDDC_ST_DEMARKCHART:
; 686  : 		case EDDC_ST_DPO:
; 687  : 		case EDDC_ST_DRF:
; 688  : 		case EDDC_ST_ELDER_RAY_BEAR:
; 689  : 		case EDDC_ST_ELDER_RAY_BULL:
; 690  : 		case EDDC_ST_ENVELOPECHART:
; 691  : 		case EDDC_ST_EOM:
; 692  : 		case EDDC_ST_FORMULA:
; 693  : 		case EDDC_ST_FORCE_INDEX:
; 694  : 		case EDDC_ST_HV:
; 695  : 		case EDDC_ST_LRS:
; 696  : 		case EDDC_ST_MACCHART:
; 697  : 		case EDDC_ST_MACD:
; 698  : 		case EDDC_ST_MACD_OSCILLATOR:
; 699  : 		case EDDC_ST_MAO:
; 700  : 		case EDDC_ST_MASSINDEX:
; 701  : 		case EDDC_ST_MFI:
; 702  : 		case EDDC_ST_MOMENTUM:
; 703  : 		case EDDC_ST_NCO:
; 704  : 		case EDDC_ST_NDI:
; 705  : 		case EDDC_ST_NVI:
; 706  : 		case EDDC_ST_OBV:
; 707  : 		case EDDC_ST_PARABOLICCHART:
; 708  : 		case EDDC_ST_PIVOTCHART:
; 709  : 		case EDDC_ST_PRICECHANNELCHART:
; 710  : 		case EDDC_ST_PRICEOSCILLATOR:
; 711  : 		case EDDC_ST_PVI:
; 712  : 		case EDDC_ST_PVT:
; 713  : 		case EDDC_ST_QSTIC:
; 714  : 		case EDDC_ST_RMI:
; 715  : 		case EDDC_ST_ROC:
; 716  : 		case EDDC_ST_RSICHART:
; 717  : 		case EDDC_ST_SIGMA:
; 718  : 		case EDDC_ST_SONAR:
; 719  : 		case EDDC_ST_SROC:
; 720  : 		case EDDC_ST_STANDARD_DEVIATION:
; 721  : 		case EDDC_ST_STANDARD_ERROR:
; 722  : 		case EDDC_ST_STARCBANDSCHART:
; 723  : 		case EDDC_ST_STOCHASTICSFASTCHART:
; 724  : 		case EDDC_ST_STOCHASTICSFASTCHART2:
; 725  : 		case EDDC_ST_STOCHASTICSFASTCHART3:
; 726  : 		case EDDC_ST_STOCHASTICSSLOWCHART:
; 727  : 		case EDDC_ST_STOCHASTICSSLOWCHART2:
; 728  : 		case EDDC_ST_STOCHASTICSSLOWCHART3:
; 729  : 		case EDDC_ST_TDI:
; 730  : 		case EDDC_ST_TEMACHART:
; 731  : 		case EDDC_ST_TRIX:
; 732  : 		case EDDC_ST_VA_OSCILLATOR:
; 733  : 		case EDDC_ST_VHF:
; 734  : 		case EDDC_ST_VOLUME_OSCILLATOR:
; 735  : 		case EDDC_ST_VOLUME_RATIO:
; 736  : 		case EDDC_ST_VROC:
; 737  : 		case EDDC_ST_PERCENT_B_STOCHASTIC:
; 738  : 		case EDDC_ST_LRS_STOCHASTIC:
; 739  : 		case EDDC_ST_MACD_STOCHASTIC:
; 740  : 		case EDDC_ST_MOMENTUM_STOCHASTIC:
; 741  : 		case EDDC_ST_OBV_MOMENTUM:
; 742  : 		case EDDC_ST_OBV_STOCHASTIC:
; 743  : 		case EDDC_ST_ROC_STOCHASTIC:
; 744  : 		case EDDC_ST_RSI_MACD:
; 745  : 		case EDDC_ST_RSI_STOCHASTIC:
; 746  : 		case EDDC_ST_SONAR_PSYCHCHART:
; 747  : 		case EDDC_ST_STOCHASTIC_RSI:
; 748  : 		// (2006/11/19 - Seung-Won, Bae) Samsung Added.
; 749  : 		case EDDC_ST_DISPARITYCHART:
; 750  : 		case EDDC_ST_DMI:
; 751  : 		case EDDC_ST_LRL:
; 752  : 		case EDDC_ST_NFI:
; 753  : 		case EDDC_ST_TSF:
; 754  : 		case EDDC_ST_VR:
; 755  : 									return true;

  0001c	b8 01 00 00 00	 mov	 eax, 1

; 758  : }

  00021	5d		 pop	 ebp
  00022	c2 04 00	 ret	 4
$LN2@IsSTIndexI:

; 756  : 	}
; 757  : 	return false;

  00025	33 c0		 xor	 eax, eax

; 758  : }

  00027	5d		 pop	 ebp
  00028	c2 04 00	 ret	 4
  0002b	90		 npad	 1
$LN98@IsSTIndexI:
  0002c	00 00 00 00	 DD	 $LN4@IsSTIndexI
  00030	00 00 00 00	 DD	 $LN2@IsSTIndexI
$LN97@IsSTIndexI:
  00034	00		 DB	 0
  00035	01		 DB	 1
  00036	00		 DB	 0
  00037	00		 DB	 0
  00038	00		 DB	 0
  00039	00		 DB	 0
  0003a	00		 DB	 0
  0003b	00		 DB	 0
  0003c	00		 DB	 0
  0003d	00		 DB	 0
  0003e	00		 DB	 0
  0003f	01		 DB	 1
  00040	01		 DB	 1
  00041	00		 DB	 0
  00042	00		 DB	 0
  00043	00		 DB	 0
  00044	00		 DB	 0
  00045	00		 DB	 0
  00046	00		 DB	 0
  00047	00		 DB	 0
  00048	00		 DB	 0
  00049	00		 DB	 0
  0004a	00		 DB	 0
  0004b	00		 DB	 0
  0004c	00		 DB	 0
  0004d	00		 DB	 0
  0004e	00		 DB	 0
  0004f	00		 DB	 0
  00050	00		 DB	 0
  00051	00		 DB	 0
  00052	00		 DB	 0
  00053	00		 DB	 0
  00054	00		 DB	 0
  00055	00		 DB	 0
  00056	00		 DB	 0
  00057	00		 DB	 0
  00058	00		 DB	 0
  00059	00		 DB	 0
  0005a	00		 DB	 0
  0005b	00		 DB	 0
  0005c	00		 DB	 0
  0005d	00		 DB	 0
  0005e	00		 DB	 0
  0005f	00		 DB	 0
  00060	00		 DB	 0
  00061	00		 DB	 0
  00062	00		 DB	 0
  00063	00		 DB	 0
  00064	00		 DB	 0
  00065	00		 DB	 0
  00066	00		 DB	 0
  00067	00		 DB	 0
  00068	00		 DB	 0
  00069	00		 DB	 0
  0006a	00		 DB	 0
  0006b	00		 DB	 0
  0006c	00		 DB	 0
  0006d	00		 DB	 0
  0006e	00		 DB	 0
  0006f	00		 DB	 0
  00070	00		 DB	 0
  00071	00		 DB	 0
  00072	00		 DB	 0
  00073	00		 DB	 0
  00074	00		 DB	 0
  00075	00		 DB	 0
  00076	00		 DB	 0
  00077	00		 DB	 0
  00078	00		 DB	 0
  00079	00		 DB	 0
  0007a	00		 DB	 0
  0007b	00		 DB	 0
  0007c	00		 DB	 0
  0007d	00		 DB	 0
  0007e	00		 DB	 0
  0007f	00		 DB	 0
  00080	00		 DB	 0
  00081	00		 DB	 0
  00082	00		 DB	 0
  00083	00		 DB	 0
  00084	00		 DB	 0
  00085	00		 DB	 0
  00086	00		 DB	 0
  00087	00		 DB	 0
  00088	00		 DB	 0
  00089	00		 DB	 0
  0008a	00		 DB	 0
  0008b	00		 DB	 0
  0008c	00		 DB	 0
  0008d	00		 DB	 0
  0008e	00		 DB	 0
  0008f	00		 DB	 0
  00090	00		 DB	 0
  00091	00		 DB	 0
  00092	00		 DB	 0
?IsSTIndexIndicator@IMetaTable@@QAEHH@Z ENDP		; IMetaTable::IsSTIndexIndicator
_TEXT	ENDS
; Function compile flags: /Ogtp
; File D:\git\src\IBK\IBK_DRFN\ProjSrc\SrcChartEx\ChartOCX\Include_Chart\Dll_Load\IMetaTable.cpp
;	COMDAT ?IsNoneZoomChart@IMetaTable@@QAE_NPBD@Z
_TEXT	SEGMENT
_p_szIndicatorName$ = 8					; size = 4
?IsNoneZoomChart@IMetaTable@@QAE_NPBD@Z PROC		; IMetaTable::IsNoneZoomChart, COMDAT
; _this$ = ecx

; 641  : {

  00000	55		 push	 ebp
  00001	8b ec		 mov	 ebp, esp

; 642  : 	switch( GetIndicatorID( p_szIndicatorName))

  00003	ff 75 08	 push	 DWORD PTR _p_szIndicatorName$[ebp]
  00006	e8 00 00 00 00	 call	 ?GetIndicatorID@IMetaTable@@QAEHPBD@Z ; IMetaTable::GetIndicatorID
  0000b	83 f8 67	 cmp	 eax, 103		; 00000067H
  0000e	74 0b		 je	 SHORT $LN4@IsNoneZoom
  00010	83 f8 6c	 cmp	 eax, 108		; 0000006cH
  00013	74 06		 je	 SHORT $LN4@IsNoneZoom

; 647  : 	}
; 648  : 	return false;

  00015	32 c0		 xor	 al, al

; 649  : }

  00017	5d		 pop	 ebp
  00018	c2 04 00	 ret	 4
$LN4@IsNoneZoom:

; 643  : 	{
; 644  : 		case EDDC_OCX_INVERSLINECHART:
; 645  : 		case EDDC_DISPERSIONCHART:		// (2006.11.09 )  
; 646  : 										return true;

  0001b	b0 01		 mov	 al, 1

; 649  : }

  0001d	5d		 pop	 ebp
  0001e	c2 04 00	 ret	 4
?IsNoneZoomChart@IMetaTable@@QAE_NPBD@Z ENDP		; IMetaTable::IsNoneZoomChart
_TEXT	ENDS
; Function compile flags: /Ogtp
; File D:\git\src\IBK\IBK_DRFN\ProjSrc\SrcChartEx\ChartOCX\Include_Chart\Dll_Load\IMetaTable.cpp
;	COMDAT ?IsSpecialGroupGraph@IMetaTable@@QAE_NPBD@Z
_TEXT	SEGMENT
_p_szIndicatorName$ = 8					; size = 4
?IsSpecialGroupGraph@IMetaTable@@QAE_NPBD@Z PROC	; IMetaTable::IsSpecialGroupGraph, COMDAT
; _this$ = ecx

; 623  : {

  00000	55		 push	 ebp
  00001	8b ec		 mov	 ebp, esp

; 624  : 	switch( GetIndicatorID( p_szIndicatorName))

  00003	ff 75 08	 push	 DWORD PTR _p_szIndicatorName$[ebp]
  00006	e8 00 00 00 00	 call	 ?GetIndicatorID@IMetaTable@@QAEHPBD@Z ; IMetaTable::GetIndicatorID
  0000b	83 c0 9a	 add	 eax, -102		; ffffff9aH
  0000e	83 f8 06	 cmp	 eax, 6
  00011	77 14		 ja	 SHORT $LN2@IsSpecialG
  00013	0f b6 80 00 00
	00 00		 movzx	 eax, BYTE PTR $LN12@IsSpecialG[eax]
  0001a	ff 24 85 00 00
	00 00		 jmp	 DWORD PTR $LN13@IsSpecialG[eax*4]
$LN4@IsSpecialG:

; 625  : 	{
; 626  : 		case EDDC_OCX_THREELINEBRACKCHART:
; 627  : 		case EDDC_OCX_INVERSLINECHART:
; 628  : 		case EDDC_OCX_PANDFCHART:
; 629  : 		case EDDC_OCX_SWINGCHART:
; 630  : 		case EDDC_OCX_KAGICHART:
; 631  : 		case EDDC_OCX_RENKOCHART:
; 632  : 		case EDDC_DISPERSIONCHART:		// (2006.11.09 )  
; 633  : 										return true;

  00021	b0 01		 mov	 al, 1

; 636  : }

  00023	5d		 pop	 ebp
  00024	c2 04 00	 ret	 4
$LN2@IsSpecialG:

; 634  : 	}
; 635  : 	return false;

  00027	32 c0		 xor	 al, al

; 636  : }

  00029	5d		 pop	 ebp
  0002a	c2 04 00	 ret	 4
  0002d	0f 1f 00	 npad	 3
$LN13@IsSpecialG:
  00030	00 00 00 00	 DD	 $LN4@IsSpecialG
$LN12@IsSpecialG:
  00034	00		 DB	 0
  00035	00		 DB	 0
  00036	00		 DB	 0
  00037	00		 DB	 0
  00038	00		 DB	 0
  00039	00		 DB	 0
  0003a	00		 DB	 0
?IsSpecialGroupGraph@IMetaTable@@QAE_NPBD@Z ENDP	; IMetaTable::IsSpecialGroupGraph
_TEXT	ENDS
; Function compile flags: /Ogtp
; File D:\git\src\IBK\IBK_DRFN\ProjSrc\SrcChartEx\ChartOCX\Include_Chart\Dll_Load\IMetaTable.cpp
; File C:\Program Files (x86)\Microsoft Visual Studio\2019\Community\VC\Tools\MSVC\14.29.30133\atlmfc\include\atlsimpstr.h
; File D:\git\src\IBK\IBK_DRFN\ProjSrc\SrcChartEx\ChartOCX\Include_Chart\Dll_Load\IMetaTable.cpp
;	COMDAT ?IsDrawGroup_VolumeType@IMetaTable@@QAE_NABV?$CStringT@DV?$StrTraitMFC_DLL@DV?$ChTraitsCRT@D@ATL@@@@@ATL@@@Z
_TEXT	SEGMENT
_IndicatorName$ = 8					; size = 4
?IsDrawGroup_VolumeType@IMetaTable@@QAE_NABV?$CStringT@DV?$StrTraitMFC_DLL@DV?$ChTraitsCRT@D@ATL@@@@@ATL@@@Z PROC ; IMetaTable::IsDrawGroup_VolumeType, COMDAT
; _this$ = ecx

; 611  : {

  00000	55		 push	 ebp
  00001	8b ec		 mov	 ebp, esp
; File C:\Program Files (x86)\Microsoft Visual Studio\2019\Community\VC\Tools\MSVC\14.29.30133\atlmfc\include\atlsimpstr.h

; 377  : 		return( m_pszData );

  00003	8b 45 08	 mov	 eax, DWORD PTR _IndicatorName$[ebp]
; File D:\git\src\IBK\IBK_DRFN\ProjSrc\SrcChartEx\ChartOCX\Include_Chart\Dll_Load\IMetaTable.cpp

; 612  : 	switch( GetIndicatorID( IndicatorName))

  00006	ff 30		 push	 DWORD PTR [eax]
  00008	e8 00 00 00 00	 call	 ?GetIndicatorID@IMetaTable@@QAEHPBD@Z ; IMetaTable::GetIndicatorID
  0000d	83 e8 02	 sub	 eax, 2
  00010	74 0b		 je	 SHORT $LN4@IsDrawGrou
  00012	83 e8 70	 sub	 eax, 112		; 00000070H
  00015	74 06		 je	 SHORT $LN4@IsDrawGrou

; 617  : 	}
; 618  : 	return false;

  00017	32 c0		 xor	 al, al

; 619  : }

  00019	5d		 pop	 ebp
  0001a	c2 04 00	 ret	 4
$LN4@IsDrawGrou:

; 613  : 	{
; 614  : 		case EDDC_VOLUMECHART:
; 615  : 		case EDDC_VOLUMEPRICE:
; 616  : 								return true;

  0001d	b0 01		 mov	 al, 1

; 619  : }

  0001f	5d		 pop	 ebp
  00020	c2 04 00	 ret	 4
?IsDrawGroup_VolumeType@IMetaTable@@QAE_NABV?$CStringT@DV?$StrTraitMFC_DLL@DV?$ChTraitsCRT@D@ATL@@@@@ATL@@@Z ENDP ; IMetaTable::IsDrawGroup_VolumeType
_TEXT	ENDS
; Function compile flags: /Ogtp
; File D:\git\src\IBK\IBK_DRFN\ProjSrc\SrcChartEx\ChartOCX\Include_Chart\Dll_Load\IMetaTable.cpp
; File C:\Program Files (x86)\Microsoft Visual Studio\2019\Community\VC\Tools\MSVC\14.29.30133\atlmfc\include\atlsimpstr.h
; File D:\git\src\IBK\IBK_DRFN\ProjSrc\SrcChartEx\ChartOCX\Include_Chart\Dll_Load\IMetaTable.cpp
;	COMDAT ?IsTitleIncludeCondition@IMetaTable@@QAE_NABV?$CStringT@DV?$StrTraitMFC_DLL@DV?$ChTraitsCRT@D@ATL@@@@@ATL@@@Z
_TEXT	SEGMENT
_IndicatorName$ = 8					; size = 4
?IsTitleIncludeCondition@IMetaTable@@QAE_NABV?$CStringT@DV?$StrTraitMFC_DLL@DV?$ChTraitsCRT@D@ATL@@@@@ATL@@@Z PROC ; IMetaTable::IsTitleIncludeCondition, COMDAT
; _this$ = ecx

; 599  : {

  00000	55		 push	 ebp
  00001	8b ec		 mov	 ebp, esp
; File C:\Program Files (x86)\Microsoft Visual Studio\2019\Community\VC\Tools\MSVC\14.29.30133\atlmfc\include\atlsimpstr.h

; 519  : 		return( GetData()->nDataLength );

  00003	8b 45 08	 mov	 eax, DWORD PTR _IndicatorName$[ebp]
  00006	8b 00		 mov	 eax, DWORD PTR [eax]

; 533  : 		return( GetLength() == 0 );

  00008	83 78 f4 00	 cmp	 DWORD PTR [eax-12], 0
; File D:\git\src\IBK\IBK_DRFN\ProjSrc\SrcChartEx\ChartOCX\Include_Chart\Dll_Load\IMetaTable.cpp

; 600  : 	if(IndicatorName.IsEmpty())

  0000c	74 16		 je	 SHORT $LN3@IsTitleInc

; 534  : 	switch( GetIndicatorID( IndicatorName))

  0000e	50		 push	 eax
  0000f	e8 00 00 00 00	 call	 ?GetIndicatorID@IMetaTable@@QAEHPBD@Z ; IMetaTable::GetIndicatorID
  00014	83 e8 01	 sub	 eax, 1
  00017	74 05		 je	 SHORT $LN15@IsTitleInc
  00019	83 e8 02	 sub	 eax, 2
  0001c	75 06		 jne	 SHORT $LN3@IsTitleInc
$LN15@IsTitleInc:

; 601  : 		return false;
; 602  : 
; 603  : 	if(IsTitleOnlyCondition(IndicatorName))	//  ,  
; 604  : 		return true;

  0001e	b0 01		 mov	 al, 1

; 607  : }

  00020	5d		 pop	 ebp
  00021	c2 04 00	 ret	 4
$LN3@IsTitleInc:

; 605  : 
; 606  : 	return IsTitleOrCondition(IndicatorName); // 

  00024	32 c0		 xor	 al, al

; 607  : }

  00026	5d		 pop	 ebp
  00027	c2 04 00	 ret	 4
?IsTitleIncludeCondition@IMetaTable@@QAE_NABV?$CStringT@DV?$StrTraitMFC_DLL@DV?$ChTraitsCRT@D@ATL@@@@@ATL@@@Z ENDP ; IMetaTable::IsTitleIncludeCondition
_TEXT	ENDS
; Function compile flags: /Ogtp
; File D:\git\src\IBK\IBK_DRFN\ProjSrc\SrcChartEx\ChartOCX\Include_Chart\Dll_Load\IMetaTable.cpp
; File C:\Program Files (x86)\Microsoft Visual Studio\2019\Community\VC\Tools\MSVC\14.29.30133\atlmfc\include\atlsimpstr.h
; File D:\git\src\IBK\IBK_DRFN\ProjSrc\SrcChartEx\ChartOCX\Include_Chart\Dll_Load\IMetaTable.cpp
;	COMDAT ?IsNoXScale_SpecialGroup@IMetaTable@@QAE_NABV?$CStringT@DV?$StrTraitMFC_DLL@DV?$ChTraitsCRT@D@ATL@@@@@ATL@@@Z
_TEXT	SEGMENT
_IndicatorName$ = 8					; size = 4
?IsNoXScale_SpecialGroup@IMetaTable@@QAE_NABV?$CStringT@DV?$StrTraitMFC_DLL@DV?$ChTraitsCRT@D@ATL@@@@@ATL@@@Z PROC ; IMetaTable::IsNoXScale_SpecialGroup, COMDAT
; _this$ = ecx

; 584  : {

  00000	55		 push	 ebp
  00001	8b ec		 mov	 ebp, esp
; File C:\Program Files (x86)\Microsoft Visual Studio\2019\Community\VC\Tools\MSVC\14.29.30133\atlmfc\include\atlsimpstr.h

; 377  : 		return( m_pszData );

  00003	8b 45 08	 mov	 eax, DWORD PTR _IndicatorName$[ebp]
; File D:\git\src\IBK\IBK_DRFN\ProjSrc\SrcChartEx\ChartOCX\Include_Chart\Dll_Load\IMetaTable.cpp

; 585  : 	switch( GetIndicatorID( IndicatorName))

  00006	ff 30		 push	 DWORD PTR [eax]
  00008	e8 00 00 00 00	 call	 ?GetIndicatorID@IMetaTable@@QAEHPBD@Z ; IMetaTable::GetIndicatorID
  0000d	83 f8 68	 cmp	 eax, 104		; 00000068H
  00010	0f 94 c0	 sete	 al

; 586  : 	{
; 587  : 		case EDDC_OCX_PANDFCHART:
; 588  : 								return true;
; 589  : 	}
; 590  : 
; 591  : //	else if(IndicatorName == INDICATEDATA_OCX_THREELINEBRACKCHART) // ""
; 592  : //		return true;
; 593  : 
; 594  : 	return false;
; 595  : }

  00013	5d		 pop	 ebp
  00014	c2 04 00	 ret	 4
?IsNoXScale_SpecialGroup@IMetaTable@@QAE_NABV?$CStringT@DV?$StrTraitMFC_DLL@DV?$ChTraitsCRT@D@ATL@@@@@ATL@@@Z ENDP ; IMetaTable::IsNoXScale_SpecialGroup
_TEXT	ENDS
; Function compile flags: /Ogtp
; File D:\git\src\IBK\IBK_DRFN\ProjSrc\SrcChartEx\ChartOCX\Include_Chart\Dll_Load\IMetaTable.cpp
; File C:\Program Files (x86)\Microsoft Visual Studio\2019\Community\VC\Tools\MSVC\14.29.30133\atlmfc\include\atlsimpstr.h
; File D:\git\src\IBK\IBK_DRFN\ProjSrc\SrcChartEx\ChartOCX\Include_Chart\Dll_Load\IMetaTable.cpp
;	COMDAT ?IsTitleAndCondition@IMetaTable@@QAE_NABV?$CStringT@DV?$StrTraitMFC_DLL@DV?$ChTraitsCRT@D@ATL@@@@@ATL@@@Z
_TEXT	SEGMENT
_IndicatorName$ = 8					; size = 4
?IsTitleAndCondition@IMetaTable@@QAE_NABV?$CStringT@DV?$StrTraitMFC_DLL@DV?$ChTraitsCRT@D@ATL@@@@@ATL@@@Z PROC ; IMetaTable::IsTitleAndCondition, COMDAT
; _this$ = ecx

; 562  : {

  00000	55		 push	 ebp
  00001	8b ec		 mov	 ebp, esp
; File C:\Program Files (x86)\Microsoft Visual Studio\2019\Community\VC\Tools\MSVC\14.29.30133\atlmfc\include\atlsimpstr.h

; 519  : 		return( GetData()->nDataLength );

  00003	8b 45 08	 mov	 eax, DWORD PTR _IndicatorName$[ebp]
  00006	8b 00		 mov	 eax, DWORD PTR [eax]

; 533  : 		return( GetLength() == 0 );

  00008	83 78 f4 00	 cmp	 DWORD PTR [eax-12], 0
; File D:\git\src\IBK\IBK_DRFN\ProjSrc\SrcChartEx\ChartOCX\Include_Chart\Dll_Load\IMetaTable.cpp

; 563  : 	if(IndicatorName.IsEmpty())

  0000c	75 06		 jne	 SHORT $LN4@IsTitleAnd
$LN17@IsTitleAnd:

; 573  : 	}
; 574  : 
; 575  : 	return false;
; 576  : }

  0000e	32 c0		 xor	 al, al
  00010	5d		 pop	 ebp
  00011	c2 04 00	 ret	 4
$LN4@IsTitleAnd:

; 564  : 		return false;
; 565  : 
; 566  : 	//     - ojtaso (20071116)
; 567  : 	switch( GetIndicatorID( IndicatorName))

  00014	50		 push	 eax
  00015	e8 00 00 00 00	 call	 ?GetIndicatorID@IMetaTable@@QAEHPBD@Z ; IMetaTable::GetIndicatorID
  0001a	83 e8 15	 sub	 eax, 21			; 00000015H
  0001d	74 0a		 je	 SHORT $LN5@IsTitleAnd
  0001f	83 e8 01	 sub	 eax, 1
  00022	74 05		 je	 SHORT $LN5@IsTitleAnd
  00024	83 e8 01	 sub	 eax, 1
  00027	75 e5		 jne	 SHORT $LN17@IsTitleAnd
$LN5@IsTitleAnd:

; 568  : 	{
; 569  : 		case EDDC_ST_DISPARITYCHART:
; 570  : 		case EDDC_ST_DISPARITYCHART_SMA:
; 571  : 		case EDDC_ST_DISPARITYCHART_EMA:
; 572  : 												return true;

  00029	b0 01		 mov	 al, 1

; 573  : 	}
; 574  : 
; 575  : 	return false;
; 576  : }

  0002b	5d		 pop	 ebp
  0002c	c2 04 00	 ret	 4
?IsTitleAndCondition@IMetaTable@@QAE_NABV?$CStringT@DV?$StrTraitMFC_DLL@DV?$ChTraitsCRT@D@ATL@@@@@ATL@@@Z ENDP ; IMetaTable::IsTitleAndCondition
_TEXT	ENDS
; Function compile flags: /Ogtp
; File D:\git\src\IBK\IBK_DRFN\ProjSrc\SrcChartEx\ChartOCX\Include_Chart\Dll_Load\IMetaTable.cpp
;	COMDAT ?IsTitleOrCondition@IMetaTable@@QAE_NABV?$CStringT@DV?$StrTraitMFC_DLL@DV?$ChTraitsCRT@D@ATL@@@@@ATL@@@Z
_TEXT	SEGMENT
_IndicatorName$ = 8					; size = 4
?IsTitleOrCondition@IMetaTable@@QAE_NABV?$CStringT@DV?$StrTraitMFC_DLL@DV?$ChTraitsCRT@D@ATL@@@@@ATL@@@Z PROC ; IMetaTable::IsTitleOrCondition, COMDAT
; _this$ = ecx

; 550  : 	if(IndicatorName.IsEmpty())
; 551  : 		return false;
; 552  : 
; 553  : 	//     - ojtaso (20071116)
; 554  : //	if( IndicatorName == INDICATEDATA_ST_DISPARITYCHART_SMA || IndicatorName == INDICATEDATA_ST_DISPARITYCHART_EMA) return true; // 
; 555  : 
; 556  : 	return false;

  00000	32 c0		 xor	 al, al

; 557  : }

  00002	c2 04 00	 ret	 4
?IsTitleOrCondition@IMetaTable@@QAE_NABV?$CStringT@DV?$StrTraitMFC_DLL@DV?$ChTraitsCRT@D@ATL@@@@@ATL@@@Z ENDP ; IMetaTable::IsTitleOrCondition
_TEXT	ENDS
; Function compile flags: /Ogtp
; File D:\git\src\IBK\IBK_DRFN\ProjSrc\SrcChartEx\ChartOCX\Include_Chart\Dll_Load\IMetaTable.cpp
; File C:\Program Files (x86)\Microsoft Visual Studio\2019\Community\VC\Tools\MSVC\14.29.30133\atlmfc\include\atlsimpstr.h
; File D:\git\src\IBK\IBK_DRFN\ProjSrc\SrcChartEx\ChartOCX\Include_Chart\Dll_Load\IMetaTable.cpp
;	COMDAT ?IsTitleOnlyCondition@IMetaTable@@QAE_NABV?$CStringT@DV?$StrTraitMFC_DLL@DV?$ChTraitsCRT@D@ATL@@@@@ATL@@@Z
_TEXT	SEGMENT
_IndicatorName$ = 8					; size = 4
?IsTitleOnlyCondition@IMetaTable@@QAE_NABV?$CStringT@DV?$StrTraitMFC_DLL@DV?$ChTraitsCRT@D@ATL@@@@@ATL@@@Z PROC ; IMetaTable::IsTitleOnlyCondition, COMDAT
; _this$ = ecx

; 532  : {

  00000	55		 push	 ebp
  00001	8b ec		 mov	 ebp, esp
; File C:\Program Files (x86)\Microsoft Visual Studio\2019\Community\VC\Tools\MSVC\14.29.30133\atlmfc\include\atlsimpstr.h

; 519  : 		return( GetData()->nDataLength );

  00003	8b 45 08	 mov	 eax, DWORD PTR _IndicatorName$[ebp]
  00006	8b 00		 mov	 eax, DWORD PTR [eax]

; 533  : 		return( GetLength() == 0 );

  00008	83 78 f4 00	 cmp	 DWORD PTR [eax-12], 0
; File D:\git\src\IBK\IBK_DRFN\ProjSrc\SrcChartEx\ChartOCX\Include_Chart\Dll_Load\IMetaTable.cpp

; 533  : 	if(IndicatorName.IsEmpty()) return false;

  0000c	75 06		 jne	 SHORT $LN4@IsTitleOnl
$LN16@IsTitleOnl:

; 542  : 	}
; 543  : 
; 544  : 	return false;
; 545  : }

  0000e	32 c0		 xor	 al, al
  00010	5d		 pop	 ebp
  00011	c2 04 00	 ret	 4
$LN4@IsTitleOnl:

; 534  : 	switch( GetIndicatorID( IndicatorName))

  00014	50		 push	 eax
  00015	e8 00 00 00 00	 call	 ?GetIndicatorID@IMetaTable@@QAEHPBD@Z ; IMetaTable::GetIndicatorID
  0001a	83 e8 01	 sub	 eax, 1
  0001d	74 05		 je	 SHORT $LN5@IsTitleOnl
  0001f	83 e8 02	 sub	 eax, 2
  00022	75 ea		 jne	 SHORT $LN16@IsTitleOnl
$LN5@IsTitleOnl:

; 535  : 	{
; 536  : // vntsorl:[0003431] [7111]      
; 537  : // 		case EDDC_ST_PRICEMACHART:
; 538  : // 		case EDDC_ST_VOLUMEMACHART:
; 539  : 		case EDDC_OCX_PRICEMACHART:
; 540  : 		case EDDC_OCX_VOLUMEMACHART:
; 541  : 												return true;

  00024	b0 01		 mov	 al, 1

; 542  : 	}
; 543  : 
; 544  : 	return false;
; 545  : }

  00026	5d		 pop	 ebp
  00027	c2 04 00	 ret	 4
?IsTitleOnlyCondition@IMetaTable@@QAE_NABV?$CStringT@DV?$StrTraitMFC_DLL@DV?$ChTraitsCRT@D@ATL@@@@@ATL@@@Z ENDP ; IMetaTable::IsTitleOnlyCondition
_TEXT	ENDS
; Function compile flags: /Ogtp
; File D:\git\src\IBK\IBK_DRFN\ProjSrc\SrcChartEx\ChartOCX\Include_Chart\Dll_Load\IMetaTable.cpp
; File C:\Program Files (x86)\Microsoft Visual Studio\2019\Community\VC\Tools\MSVC\14.29.30133\atlmfc\include\atlsimpstr.h
; File D:\git\src\IBK\IBK_DRFN\ProjSrc\SrcChartEx\ChartOCX\Include_Chart\Dll_Load\IMetaTable.cpp
;	COMDAT ?IsDataTitle@IMetaTable@@QAE_NABV?$CStringT@DV?$StrTraitMFC_DLL@DV?$ChTraitsCRT@D@ATL@@@@@ATL@@@Z
_TEXT	SEGMENT
_IndicatorName$ = 8					; size = 4
?IsDataTitle@IMetaTable@@QAE_NABV?$CStringT@DV?$StrTraitMFC_DLL@DV?$ChTraitsCRT@D@ATL@@@@@ATL@@@Z PROC ; IMetaTable::IsDataTitle, COMDAT
; _this$ = ecx

; 506  : {

  00000	55		 push	 ebp
  00001	8b ec		 mov	 ebp, esp
; File C:\Program Files (x86)\Microsoft Visual Studio\2019\Community\VC\Tools\MSVC\14.29.30133\atlmfc\include\atlsimpstr.h

; 519  : 		return( GetData()->nDataLength );

  00003	8b 45 08	 mov	 eax, DWORD PTR _IndicatorName$[ebp]
  00006	8b 00		 mov	 eax, DWORD PTR [eax]

; 533  : 		return( GetLength() == 0 );

  00008	83 78 f4 00	 cmp	 DWORD PTR [eax-12], 0
; File D:\git\src\IBK\IBK_DRFN\ProjSrc\SrcChartEx\ChartOCX\Include_Chart\Dll_Load\IMetaTable.cpp

; 507  : 	if(IndicatorName.IsEmpty())

  0000c	74 1f		 je	 SHORT $LN5@IsDataTitl

; 508  : 		return false;
; 509  : 
; 510  : 	switch( GetIndicatorID( IndicatorName))

  0000e	50		 push	 eax
  0000f	e8 00 00 00 00	 call	 ?GetIndicatorID@IMetaTable@@QAEHPBD@Z ; IMetaTable::GetIndicatorID
  00014	83 f8 71	 cmp	 eax, 113		; 00000071H
  00017	77 0e		 ja	 SHORT $LN2@IsDataTitl
  00019	0f b6 80 00 00
	00 00		 movzx	 eax, BYTE PTR $LN22@IsDataTitl[eax]
  00020	ff 24 85 00 00
	00 00		 jmp	 DWORD PTR $LN23@IsDataTitl[eax*4]
$LN2@IsDataTitl:

; 521  : 	}
; 522  : 
; 523  : 	return true;

  00027	b0 01		 mov	 al, 1

; 524  : }

  00029	5d		 pop	 ebp
  0002a	c2 04 00	 ret	 4
$LN5@IsDataTitl:

; 511  : 	{
; 512  : 		case EDDC_PRICECHART:
; 513  : 		case EDDC_VOLUMECHART:
; 514  : 		case EDDC_OCX_RAINBOWCHART:
; 515  : 		case EDDC_OCX_ZIGZAGCHART:
; 516  : 		case EDDC_OCX_CLCCHART:
; 517  : 		case EDDC_OCX_BOXCHARTCHART:
; 518  : 		case EDDC_OCX_VOLUMEFORSALE:
; 519  : 		case EDDC_OCX_VOLUMESELLBUYCHART:
; 520  : 												return false;

  0002d	32 c0		 xor	 al, al

; 524  : }

  0002f	5d		 pop	 ebp
  00030	c2 04 00	 ret	 4
  00033	90		 npad	 1
$LN23@IsDataTitl:
  00034	00 00 00 00	 DD	 $LN5@IsDataTitl
  00038	00 00 00 00	 DD	 $LN2@IsDataTitl
$LN22@IsDataTitl:
  0003c	00		 DB	 0
  0003d	01		 DB	 1
  0003e	00		 DB	 0
  0003f	01		 DB	 1
  00040	00		 DB	 0
  00041	00		 DB	 0
  00042	01		 DB	 1
  00043	01		 DB	 1
  00044	00		 DB	 0
  00045	01		 DB	 1
  00046	01		 DB	 1
  00047	01		 DB	 1
  00048	01		 DB	 1
  00049	01		 DB	 1
  0004a	01		 DB	 1
  0004b	01		 DB	 1
  0004c	01		 DB	 1
  0004d	01		 DB	 1
  0004e	00		 DB	 0
  0004f	00		 DB	 0
  00050	01		 DB	 1
  00051	01		 DB	 1
  00052	01		 DB	 1
  00053	01		 DB	 1
  00054	01		 DB	 1
  00055	01		 DB	 1
  00056	01		 DB	 1
  00057	01		 DB	 1
  00058	01		 DB	 1
  00059	01		 DB	 1
  0005a	01		 DB	 1
  0005b	01		 DB	 1
  0005c	01		 DB	 1
  0005d	01		 DB	 1
  0005e	01		 DB	 1
  0005f	01		 DB	 1
  00060	01		 DB	 1
  00061	01		 DB	 1
  00062	01		 DB	 1
  00063	01		 DB	 1
  00064	01		 DB	 1
  00065	01		 DB	 1
  00066	01		 DB	 1
  00067	01		 DB	 1
  00068	01		 DB	 1
  00069	01		 DB	 1
  0006a	01		 DB	 1
  0006b	01		 DB	 1
  0006c	01		 DB	 1
  0006d	01		 DB	 1
  0006e	01		 DB	 1
  0006f	01		 DB	 1
  00070	01		 DB	 1
  00071	01		 DB	 1
  00072	01		 DB	 1
  00073	01		 DB	 1
  00074	01		 DB	 1
  00075	01		 DB	 1
  00076	01		 DB	 1
  00077	01		 DB	 1
  00078	01		 DB	 1
  00079	01		 DB	 1
  0007a	01		 DB	 1
  0007b	01		 DB	 1
  0007c	01		 DB	 1
  0007d	01		 DB	 1
  0007e	01		 DB	 1
  0007f	01		 DB	 1
  00080	01		 DB	 1
  00081	01		 DB	 1
  00082	01		 DB	 1
  00083	01		 DB	 1
  00084	01		 DB	 1
  00085	01		 DB	 1
  00086	01		 DB	 1
  00087	01		 DB	 1
  00088	01		 DB	 1
  00089	01		 DB	 1
  0008a	01		 DB	 1
  0008b	01		 DB	 1
  0008c	01		 DB	 1
  0008d	01		 DB	 1
  0008e	01		 DB	 1
  0008f	01		 DB	 1
  00090	01		 DB	 1
  00091	01		 DB	 1
  00092	01		 DB	 1
  00093	01		 DB	 1
  00094	01		 DB	 1
  00095	01		 DB	 1
  00096	01		 DB	 1
  00097	01		 DB	 1
  00098	01		 DB	 1
  00099	01		 DB	 1
  0009a	01		 DB	 1
  0009b	01		 DB	 1
  0009c	01		 DB	 1
  0009d	01		 DB	 1
  0009e	01		 DB	 1
  0009f	01		 DB	 1
  000a0	01		 DB	 1
  000a1	01		 DB	 1
  000a2	01		 DB	 1
  000a3	01		 DB	 1
  000a4	01		 DB	 1
  000a5	01		 DB	 1
  000a6	01		 DB	 1
  000a7	01		 DB	 1
  000a8	01		 DB	 1
  000a9	01		 DB	 1
  000aa	01		 DB	 1
  000ab	01		 DB	 1
  000ac	01		 DB	 1
  000ad	00		 DB	 0
?IsDataTitle@IMetaTable@@QAE_NABV?$CStringT@DV?$StrTraitMFC_DLL@DV?$ChTraitsCRT@D@ATL@@@@@ATL@@@Z ENDP ; IMetaTable::IsDataTitle
_TEXT	ENDS
; Function compile flags: /Ogtp
; File D:\git\src\IBK\IBK_DRFN\ProjSrc\SrcChartEx\ChartOCX\Include_Chart\Dll_Load\IMetaTable.cpp
; File C:\Program Files (x86)\Microsoft Visual Studio\2019\Community\VC\Tools\MSVC\14.29.30133\atlmfc\include\atlsimpstr.h
; File D:\git\src\IBK\IBK_DRFN\ProjSrc\SrcChartEx\ChartOCX\Include_Chart\Dll_Load\IMetaTable.cpp
; File C:\Program Files (x86)\Microsoft Visual Studio\2019\Community\VC\Tools\MSVC\14.29.30133\atlmfc\include\atlsimpstr.h
; File D:\git\src\IBK\IBK_DRFN\ProjSrc\SrcChartEx\ChartOCX\Include_Chart\Dll_Load\IMetaTable.cpp
;	COMDAT ?IsConditionTitle@IMetaTable@@QAE_NABV?$CStringT@DV?$StrTraitMFC_DLL@DV?$ChTraitsCRT@D@ATL@@@@@ATL@@@Z
_TEXT	SEGMENT
_IndicatorName$ = 8					; size = 4
?IsConditionTitle@IMetaTable@@QAE_NABV?$CStringT@DV?$StrTraitMFC_DLL@DV?$ChTraitsCRT@D@ATL@@@@@ATL@@@Z PROC ; IMetaTable::IsConditionTitle, COMDAT
; _this$ = ecx

; 485  : {

  00000	55		 push	 ebp
  00001	8b ec		 mov	 ebp, esp
  00003	56		 push	 esi
; File C:\Program Files (x86)\Microsoft Visual Studio\2019\Community\VC\Tools\MSVC\14.29.30133\atlmfc\include\atlsimpstr.h

; 519  : 		return( GetData()->nDataLength );

  00004	8b 75 08	 mov	 esi, DWORD PTR _IndicatorName$[ebp]
; File D:\git\src\IBK\IBK_DRFN\ProjSrc\SrcChartEx\ChartOCX\Include_Chart\Dll_Load\IMetaTable.cpp

; 485  : {

  00007	57		 push	 edi
  00008	8b f9		 mov	 edi, ecx
; File C:\Program Files (x86)\Microsoft Visual Studio\2019\Community\VC\Tools\MSVC\14.29.30133\atlmfc\include\atlsimpstr.h

; 519  : 		return( GetData()->nDataLength );

  0000a	8b 06		 mov	 eax, DWORD PTR [esi]

; 533  : 		return( GetLength() == 0 );

  0000c	83 78 f4 00	 cmp	 DWORD PTR [eax-12], 0
; File D:\git\src\IBK\IBK_DRFN\ProjSrc\SrcChartEx\ChartOCX\Include_Chart\Dll_Load\IMetaTable.cpp

; 486  : 	if(IndicatorName.IsEmpty()) return false;

  00010	74 4a		 je	 SHORT $LN8@IsConditio

; 534  : 	switch( GetIndicatorID( IndicatorName))

  00012	50		 push	 eax
  00013	e8 00 00 00 00	 call	 ?GetIndicatorID@IMetaTable@@QAEHPBD@Z ; IMetaTable::GetIndicatorID
  00018	83 e8 01	 sub	 eax, 1
  0001b	74 3f		 je	 SHORT $LN8@IsConditio
  0001d	83 e8 02	 sub	 eax, 2
  00020	74 3a		 je	 SHORT $LN8@IsConditio

; 487  : 
; 488  : 	if( IsTitleIncludeCondition( IndicatorName))	//  ,  , 
; 489  : 		return false;
; 490  : 	else if(IndicatorName.Find( _MTEXT( C2_P_AND_F)) != -1)// P&F, FuOpP&F

  00022	a1 54 00 00 00	 mov	 eax, DWORD PTR ?g_iMetaTable@@3VIMetaTable@@A+84
  00027	8b ce		 mov	 ecx, esi
  00029	6a 00		 push	 0
  0002b	ff b0 90 04 00
	00		 push	 DWORD PTR [eax+1168]
  00031	ff 15 00 00 00
	00		 call	 DWORD PTR __imp_?Find@?$CStringT@DV?$StrTraitMFC_DLL@DV?$ChTraitsCRT@D@ATL@@@@@ATL@@QBEHPBDH@Z
  00037	83 f8 ff	 cmp	 eax, -1
  0003a	75 20		 jne	 SHORT $LN8@IsConditio

; 491  : 		return false;
; 492  : 
; 493  : 	switch( GetIndicatorID( IndicatorName))

  0003c	ff 36		 push	 DWORD PTR [esi]
  0003e	8b cf		 mov	 ecx, edi
  00040	e8 00 00 00 00	 call	 ?GetIndicatorID@IMetaTable@@QAEHPBD@Z ; IMetaTable::GetIndicatorID
  00045	83 e8 00	 sub	 eax, 0
  00048	74 12		 je	 SHORT $LN8@IsConditio
  0004a	83 e8 02	 sub	 eax, 2
  0004d	74 0d		 je	 SHORT $LN8@IsConditio
  0004f	83 e8 6b	 sub	 eax, 107		; 0000006bH
  00052	74 08		 je	 SHORT $LN8@IsConditio

; 499  : 	}
; 500  : 
; 501  : 	return true;

  00054	5f		 pop	 edi
  00055	b0 01		 mov	 al, 1

; 502  : }

  00057	5e		 pop	 esi
  00058	5d		 pop	 ebp
  00059	c2 04 00	 ret	 4
$LN8@IsConditio:
  0005c	5f		 pop	 edi

; 494  : 	{
; 495  : 		case EDDC_PRICECHART:
; 496  : 		case EDDC_VOLUMECHART:
; 497  : 		case EDDC_OCX_COMPARATIVECHART:
; 498  : 												return false;

  0005d	32 c0		 xor	 al, al

; 502  : }

  0005f	5e		 pop	 esi
  00060	5d		 pop	 ebp
  00061	c2 04 00	 ret	 4
?IsConditionTitle@IMetaTable@@QAE_NABV?$CStringT@DV?$StrTraitMFC_DLL@DV?$ChTraitsCRT@D@ATL@@@@@ATL@@@Z ENDP ; IMetaTable::IsConditionTitle
_TEXT	ENDS
; Function compile flags: /Ogtp
; File D:\git\src\IBK\IBK_DRFN\ProjSrc\SrcChartEx\ChartOCX\Include_Chart\Dll_Load\IMetaTable.cpp
; File C:\Program Files (x86)\Microsoft Visual Studio\2019\Community\VC\Tools\MSVC\14.29.30133\atlmfc\include\atlsimpstr.h
; File D:\git\src\IBK\IBK_DRFN\ProjSrc\SrcChartEx\ChartOCX\Include_Chart\Dll_Load\IMetaTable.cpp
;	COMDAT ?IsScaleGroup_MinusPercent@IMetaTable@@QAE_NABV?$CStringT@DV?$StrTraitMFC_DLL@DV?$ChTraitsCRT@D@ATL@@@@@ATL@@@Z
_TEXT	SEGMENT
_IndicatorName$ = 8					; size = 4
?IsScaleGroup_MinusPercent@IMetaTable@@QAE_NABV?$CStringT@DV?$StrTraitMFC_DLL@DV?$ChTraitsCRT@D@ATL@@@@@ATL@@@Z PROC ; IMetaTable::IsScaleGroup_MinusPercent, COMDAT
; _this$ = ecx

; 468  : {

  00000	55		 push	 ebp
  00001	8b ec		 mov	 ebp, esp
; File C:\Program Files (x86)\Microsoft Visual Studio\2019\Community\VC\Tools\MSVC\14.29.30133\atlmfc\include\atlsimpstr.h

; 519  : 		return( GetData()->nDataLength );

  00003	8b 45 08	 mov	 eax, DWORD PTR _IndicatorName$[ebp]
  00006	8b 00		 mov	 eax, DWORD PTR [eax]

; 533  : 		return( GetLength() == 0 );

  00008	83 78 f4 00	 cmp	 DWORD PTR [eax-12], 0
; File D:\git\src\IBK\IBK_DRFN\ProjSrc\SrcChartEx\ChartOCX\Include_Chart\Dll_Load\IMetaTable.cpp

; 469  : 	if(IndicatorName.IsEmpty()) return false;

  0000c	75 06		 jne	 SHORT $LN4@IsScaleGro
  0000e	32 c0		 xor	 al, al

; 472  : 	{
; 473  : 		case EDDC_ST_WILLIAMCHART:	return true;
; 474  : 	}
; 475  : 
; 476  : 	return false;
; 477  : }

  00010	5d		 pop	 ebp
  00011	c2 04 00	 ret	 4
$LN4@IsScaleGro:

; 470  : 
; 471  : 	switch( GetIndicatorID( IndicatorName))

  00014	50		 push	 eax
  00015	e8 00 00 00 00	 call	 ?GetIndicatorID@IMetaTable@@QAEHPBD@Z ; IMetaTable::GetIndicatorID
  0001a	83 f8 31	 cmp	 eax, 49			; 00000031H
  0001d	0f 94 c0	 sete	 al

; 472  : 	{
; 473  : 		case EDDC_ST_WILLIAMCHART:	return true;
; 474  : 	}
; 475  : 
; 476  : 	return false;
; 477  : }

  00020	5d		 pop	 ebp
  00021	c2 04 00	 ret	 4
?IsScaleGroup_MinusPercent@IMetaTable@@QAE_NABV?$CStringT@DV?$StrTraitMFC_DLL@DV?$ChTraitsCRT@D@ATL@@@@@ATL@@@Z ENDP ; IMetaTable::IsScaleGroup_MinusPercent
_TEXT	ENDS
; Function compile flags: /Ogtp
; File D:\git\src\IBK\IBK_DRFN\ProjSrc\SrcChartEx\ChartOCX\Include_Chart\Dll_Load\IMetaTable.cpp
; File C:\Program Files (x86)\Microsoft Visual Studio\2019\Community\VC\Tools\MSVC\14.29.30133\atlmfc\include\atlsimpstr.h
; File D:\git\src\IBK\IBK_DRFN\ProjSrc\SrcChartEx\ChartOCX\Include_Chart\Dll_Load\IMetaTable.cpp
;	COMDAT ?IsScaleGroup_PlusPercent@IMetaTable@@QAE_NABV?$CStringT@DV?$StrTraitMFC_DLL@DV?$ChTraitsCRT@D@ATL@@@@@ATL@@@Z
_TEXT	SEGMENT
_IndicatorName$ = 8					; size = 4
?IsScaleGroup_PlusPercent@IMetaTable@@QAE_NABV?$CStringT@DV?$StrTraitMFC_DLL@DV?$ChTraitsCRT@D@ATL@@@@@ATL@@@Z PROC ; IMetaTable::IsScaleGroup_PlusPercent, COMDAT
; _this$ = ecx

; 445  : {

  00000	55		 push	 ebp
  00001	8b ec		 mov	 ebp, esp
; File C:\Program Files (x86)\Microsoft Visual Studio\2019\Community\VC\Tools\MSVC\14.29.30133\atlmfc\include\atlsimpstr.h

; 377  : 		return( m_pszData );

  00003	8b 45 08	 mov	 eax, DWORD PTR _IndicatorName$[ebp]
; File D:\git\src\IBK\IBK_DRFN\ProjSrc\SrcChartEx\ChartOCX\Include_Chart\Dll_Load\IMetaTable.cpp

; 446  : 	switch( GetIndicatorID( IndicatorName))

  00006	ff 30		 push	 DWORD PTR [eax]
  00008	e8 00 00 00 00	 call	 ?GetIndicatorID@IMetaTable@@QAEHPBD@Z ; IMetaTable::GetIndicatorID
  0000d	83 c0 d9	 add	 eax, -39		; ffffffd9H
  00010	83 f8 4d	 cmp	 eax, 77			; 0000004dH
  00013	77 14		 ja	 SHORT $LN2@IsScaleGro
  00015	0f b6 80 00 00
	00 00		 movzx	 eax, BYTE PTR $LN21@IsScaleGro[eax]
  0001c	ff 24 85 00 00
	00 00		 jmp	 DWORD PTR $LN22@IsScaleGro[eax*4]
$LN4@IsScaleGro:

; 447  : 	{
; 448  : 		case EDDC_INDUSTRYJISUCHART:
; 449  : 		case EDDC_ST_PSYCHCHART:
; 450  : 		case EDDC_ST_SONAR_PSYCHCHART:
; 451  : 		case EDDC_ST_RSICHART:
; 452  : 		case EDDC_ST_STOCHASTICSFASTCHART:
; 453  : 		case EDDC_ST_STOCHASTICSSLOWCHART:
; 454  : 		case EDDC_ST_LRS_STOCHASTIC:
; 455  : 		case EDDC_ST_MACD_STOCHASTIC:
; 456  : 		case EDDC_ST_MOMENTUM_STOCHASTIC:
; 457  : 		case EDDC_ST_OBV_STOCHASTIC:
; 458  : 		case EDDC_ST_ROC_STOCHASTIC:
; 459  : 		case EDDC_ST_RSI_STOCHASTIC:
; 460  : 		case EDDC_ST_STOCHASTIC_RSI:
; 461  : 		case EDDC_ST_PERCENT_B_STOCHASTIC:
; 462  : 											return true;

  00023	b0 01		 mov	 al, 1

; 465  : }

  00025	5d		 pop	 ebp
  00026	c2 04 00	 ret	 4
$LN2@IsScaleGro:

; 463  : 	}
; 464  : 	return false;

  00029	32 c0		 xor	 al, al

; 465  : }

  0002b	5d		 pop	 ebp
  0002c	c2 04 00	 ret	 4
  0002f	90		 npad	 1
$LN22@IsScaleGro:
  00030	00 00 00 00	 DD	 $LN4@IsScaleGro
  00034	00 00 00 00	 DD	 $LN2@IsScaleGro
$LN21@IsScaleGro:
  00038	00		 DB	 0
  00039	01		 DB	 1
  0003a	01		 DB	 1
  0003b	01		 DB	 1
  0003c	00		 DB	 0
  0003d	01		 DB	 1
  0003e	01		 DB	 1
  0003f	00		 DB	 0
  00040	01		 DB	 1
  00041	01		 DB	 1
  00042	01		 DB	 1
  00043	01		 DB	 1
  00044	01		 DB	 1
  00045	01		 DB	 1
  00046	01		 DB	 1
  00047	01		 DB	 1
  00048	01		 DB	 1
  00049	01		 DB	 1
  0004a	01		 DB	 1
  0004b	01		 DB	 1
  0004c	01		 DB	 1
  0004d	01		 DB	 1
  0004e	01		 DB	 1
  0004f	01		 DB	 1
  00050	01		 DB	 1
  00051	01		 DB	 1
  00052	01		 DB	 1
  00053	01		 DB	 1
  00054	01		 DB	 1
  00055	01		 DB	 1
  00056	01		 DB	 1
  00057	01		 DB	 1
  00058	01		 DB	 1
  00059	01		 DB	 1
  0005a	01		 DB	 1
  0005b	01		 DB	 1
  0005c	01		 DB	 1
  0005d	01		 DB	 1
  0005e	01		 DB	 1
  0005f	01		 DB	 1
  00060	01		 DB	 1
  00061	01		 DB	 1
  00062	01		 DB	 1
  00063	01		 DB	 1
  00064	01		 DB	 1
  00065	01		 DB	 1
  00066	00		 DB	 0
  00067	01		 DB	 1
  00068	01		 DB	 1
  00069	01		 DB	 1
  0006a	01		 DB	 1
  0006b	01		 DB	 1
  0006c	00		 DB	 0
  0006d	00		 DB	 0
  0006e	00		 DB	 0
  0006f	01		 DB	 1
  00070	00		 DB	 0
  00071	00		 DB	 0
  00072	01		 DB	 1
  00073	00		 DB	 0
  00074	00		 DB	 0
  00075	00		 DB	 0
  00076	00		 DB	 0
  00077	01		 DB	 1
  00078	01		 DB	 1
  00079	01		 DB	 1
  0007a	01		 DB	 1
  0007b	01		 DB	 1
  0007c	01		 DB	 1
  0007d	01		 DB	 1
  0007e	01		 DB	 1
  0007f	01		 DB	 1
  00080	01		 DB	 1
  00081	01		 DB	 1
  00082	01		 DB	 1
  00083	01		 DB	 1
  00084	01		 DB	 1
  00085	00		 DB	 0
?IsScaleGroup_PlusPercent@IMetaTable@@QAE_NABV?$CStringT@DV?$StrTraitMFC_DLL@DV?$ChTraitsCRT@D@ATL@@@@@ATL@@@Z ENDP ; IMetaTable::IsScaleGroup_PlusPercent
_TEXT	ENDS
; Function compile flags: /Ogtp
; File D:\git\src\IBK\IBK_DRFN\ProjSrc\SrcChartEx\ChartOCX\Include_Chart\Dll_Load\IMetaTable.cpp
;	COMDAT ?IsDrawGroup_PAndF@IMetaTable@@QAE_NABV?$CStringT@DV?$StrTraitMFC_DLL@DV?$ChTraitsCRT@D@ATL@@@@@ATL@@@Z
_TEXT	SEGMENT
_IndicatorName$ = 8					; size = 4
?IsDrawGroup_PAndF@IMetaTable@@QAE_NABV?$CStringT@DV?$StrTraitMFC_DLL@DV?$ChTraitsCRT@D@ATL@@@@@ATL@@@Z PROC ; IMetaTable::IsDrawGroup_PAndF, COMDAT
; _this$ = ecx

; 440  : {

  00000	55		 push	 ebp
  00001	8b ec		 mov	 ebp, esp

; 441  : 	return (IndicatorName.Find( _MTEXT( C2_P_AND_F)) != -1);

  00003	a1 54 00 00 00	 mov	 eax, DWORD PTR ?g_iMetaTable@@3VIMetaTable@@A+84
  00008	8b 4d 08	 mov	 ecx, DWORD PTR _IndicatorName$[ebp]
  0000b	6a 00		 push	 0
  0000d	ff b0 90 04 00
	00		 push	 DWORD PTR [eax+1168]
  00013	ff 15 00 00 00
	00		 call	 DWORD PTR __imp_?Find@?$CStringT@DV?$StrTraitMFC_DLL@DV?$ChTraitsCRT@D@ATL@@@@@ATL@@QBEHPBDH@Z
  00019	83 f8 ff	 cmp	 eax, -1
  0001c	0f 95 c0	 setne	 al

; 442  : }

  0001f	5d		 pop	 ebp
  00020	c2 04 00	 ret	 4
?IsDrawGroup_PAndF@IMetaTable@@QAE_NABV?$CStringT@DV?$StrTraitMFC_DLL@DV?$ChTraitsCRT@D@ATL@@@@@ATL@@@Z ENDP ; IMetaTable::IsDrawGroup_PAndF
_TEXT	ENDS
; Function compile flags: /Ogtp
; File D:\git\src\IBK\IBK_DRFN\ProjSrc\SrcChartEx\ChartOCX\Include_Chart\Dll_Load\IMetaTable.cpp
; File C:\Program Files (x86)\Microsoft Visual Studio\2019\Community\VC\Tools\MSVC\14.29.30133\atlmfc\include\atlsimpstr.h
; File D:\git\src\IBK\IBK_DRFN\ProjSrc\SrcChartEx\ChartOCX\Include_Chart\Dll_Load\IMetaTable.cpp
;	COMDAT ?IsScaleGroup_InverseLine@IMetaTable@@QAE_NABV?$CStringT@DV?$StrTraitMFC_DLL@DV?$ChTraitsCRT@D@ATL@@@@@ATL@@@Z
_TEXT	SEGMENT
_IndicatorName$ = 8					; size = 4
?IsScaleGroup_InverseLine@IMetaTable@@QAE_NABV?$CStringT@DV?$StrTraitMFC_DLL@DV?$ChTraitsCRT@D@ATL@@@@@ATL@@@Z PROC ; IMetaTable::IsScaleGroup_InverseLine, COMDAT
; _this$ = ecx

; 428  : {

  00000	55		 push	 ebp
  00001	8b ec		 mov	 ebp, esp
; File C:\Program Files (x86)\Microsoft Visual Studio\2019\Community\VC\Tools\MSVC\14.29.30133\atlmfc\include\atlsimpstr.h

; 377  : 		return( m_pszData );

  00003	8b 45 08	 mov	 eax, DWORD PTR _IndicatorName$[ebp]
; File D:\git\src\IBK\IBK_DRFN\ProjSrc\SrcChartEx\ChartOCX\Include_Chart\Dll_Load\IMetaTable.cpp

; 429  : 	switch( GetIndicatorID( IndicatorName))

  00006	ff 30		 push	 DWORD PTR [eax]
  00008	e8 00 00 00 00	 call	 ?GetIndicatorID@IMetaTable@@QAEHPBD@Z ; IMetaTable::GetIndicatorID
  0000d	83 f8 67	 cmp	 eax, 103		; 00000067H
  00010	0f 94 c0	 sete	 al

; 430  : 	{
; 431  : 		case EDDC_OCX_INVERSLINECHART:	
; 432  : 			return true;
; 433  : 	}
; 434  : 
; 435  : 	return false;
; 436  : }

  00013	5d		 pop	 ebp
  00014	c2 04 00	 ret	 4
?IsScaleGroup_InverseLine@IMetaTable@@QAE_NABV?$CStringT@DV?$StrTraitMFC_DLL@DV?$ChTraitsCRT@D@ATL@@@@@ATL@@@Z ENDP ; IMetaTable::IsScaleGroup_InverseLine
_TEXT	ENDS
; Function compile flags: /Ogtp
; File D:\git\src\IBK\IBK_DRFN\ProjSrc\SrcChartEx\ChartOCX\Include_Chart\Dll_Load\IMetaTable.cpp
; File C:\Program Files (x86)\Microsoft Visual Studio\2019\Community\VC\Tools\MSVC\14.29.30133\atlmfc\include\atlsimpstr.h
; File D:\git\src\IBK\IBK_DRFN\ProjSrc\SrcChartEx\ChartOCX\Include_Chart\Dll_Load\IMetaTable.cpp
;	COMDAT ?IsViewVertMinMax_EndPacket@IMetaTable@@QAE_NABV?$CStringT@DV?$StrTraitMFC_DLL@DV?$ChTraitsCRT@D@ATL@@@@@ATL@@@Z
_TEXT	SEGMENT
_IndicatorName$ = 8					; size = 4
?IsViewVertMinMax_EndPacket@IMetaTable@@QAE_NABV?$CStringT@DV?$StrTraitMFC_DLL@DV?$ChTraitsCRT@D@ATL@@@@@ATL@@@Z PROC ; IMetaTable::IsViewVertMinMax_EndPacket, COMDAT
; _this$ = ecx

; 414  : {

  00000	55		 push	 ebp
  00001	8b ec		 mov	 ebp, esp
; File C:\Program Files (x86)\Microsoft Visual Studio\2019\Community\VC\Tools\MSVC\14.29.30133\atlmfc\include\atlsimpstr.h

; 519  : 		return( GetData()->nDataLength );

  00003	8b 45 08	 mov	 eax, DWORD PTR _IndicatorName$[ebp]
  00006	8b 00		 mov	 eax, DWORD PTR [eax]

; 533  : 		return( GetLength() == 0 );

  00008	83 78 f4 00	 cmp	 DWORD PTR [eax-12], 0
; File D:\git\src\IBK\IBK_DRFN\ProjSrc\SrcChartEx\ChartOCX\Include_Chart\Dll_Load\IMetaTable.cpp

; 415  : 	if( IndicatorName.IsEmpty()) return false;

  0000c	75 06		 jne	 SHORT $LN4@IsViewVert
$LN16@IsViewVert:

; 422  : 	}
; 423  : 
; 424  : 	return false;
; 425  : }

  0000e	32 c0		 xor	 al, al
  00010	5d		 pop	 ebp
  00011	c2 04 00	 ret	 4
$LN4@IsViewVert:

; 416  : 
; 417  : 	switch( GetIndicatorID( IndicatorName))

  00014	50		 push	 eax
  00015	e8 00 00 00 00	 call	 ?GetIndicatorID@IMetaTable@@QAEHPBD@Z ; IMetaTable::GetIndicatorID
  0001a	83 e8 12	 sub	 eax, 18			; 00000012H
  0001d	74 05		 je	 SHORT $LN5@IsViewVert
  0001f	83 e8 01	 sub	 eax, 1
  00022	75 ea		 jne	 SHORT $LN16@IsViewVert
$LN5@IsViewVert:

; 418  : 	{
; 419  : 		case EDDC_OCX_ZIGZAGCHART:
; 420  : 		case EDDC_OCX_CLCCHART:
; 421  : 										return true;

  00024	b0 01		 mov	 al, 1

; 422  : 	}
; 423  : 
; 424  : 	return false;
; 425  : }

  00026	5d		 pop	 ebp
  00027	c2 04 00	 ret	 4
?IsViewVertMinMax_EndPacket@IMetaTable@@QAE_NABV?$CStringT@DV?$StrTraitMFC_DLL@DV?$ChTraitsCRT@D@ATL@@@@@ATL@@@Z ENDP ; IMetaTable::IsViewVertMinMax_EndPacket
_TEXT	ENDS
; Function compile flags: /Ogtp
; File D:\git\src\IBK\IBK_DRFN\ProjSrc\SrcChartEx\ChartOCX\Include_Chart\Dll_Load\IMetaTable.cpp
; File C:\Program Files (x86)\Microsoft Visual Studio\2019\Community\VC\Tools\MSVC\14.29.30133\atlmfc\include\atlsimpstr.h
; File D:\git\src\IBK\IBK_DRFN\ProjSrc\SrcChartEx\ChartOCX\Include_Chart\Dll_Load\IMetaTable.cpp
;	COMDAT ?IsScaleGroup_Volume@IMetaTable@@QAE_NABV?$CStringT@DV?$StrTraitMFC_DLL@DV?$ChTraitsCRT@D@ATL@@@@@ATL@@@Z
_TEXT	SEGMENT
_IndicatorName$ = 8					; size = 4
?IsScaleGroup_Volume@IMetaTable@@QAE_NABV?$CStringT@DV?$StrTraitMFC_DLL@DV?$ChTraitsCRT@D@ATL@@@@@ATL@@@Z PROC ; IMetaTable::IsScaleGroup_Volume, COMDAT
; _this$ = ecx

; 395  : {

  00000	55		 push	 ebp
  00001	8b ec		 mov	 ebp, esp
; File C:\Program Files (x86)\Microsoft Visual Studio\2019\Community\VC\Tools\MSVC\14.29.30133\atlmfc\include\atlsimpstr.h

; 377  : 		return( m_pszData );

  00003	8b 45 08	 mov	 eax, DWORD PTR _IndicatorName$[ebp]
; File D:\git\src\IBK\IBK_DRFN\ProjSrc\SrcChartEx\ChartOCX\Include_Chart\Dll_Load\IMetaTable.cpp

; 397  : 	switch( GetIndicatorID( IndicatorName))

  00006	ff 30		 push	 DWORD PTR [eax]
  00008	e8 00 00 00 00	 call	 ?GetIndicatorID@IMetaTable@@QAEHPBD@Z ; IMetaTable::GetIndicatorID
  0000d	83 e8 02	 sub	 eax, 2
  00010	74 0b		 je	 SHORT $LN4@IsScaleGro
  00012	83 e8 01	 sub	 eax, 1
  00015	74 06		 je	 SHORT $LN4@IsScaleGro

; 404  : 	}
; 405  : 	return false;

  00017	32 c0		 xor	 al, al

; 406  : }

  00019	5d		 pop	 ebp
  0001a	c2 04 00	 ret	 4
$LN4@IsScaleGro:

; 398  : 	{
; 399  : 		case EDDC_VOLUMECHART:
; 400  : // vntsorl:[0003431] [7111]      
; 401  : // 		case EDDC_ST_VOLUMEMACHART:
; 402  : 		case EDDC_OCX_VOLUMEMACHART:
; 403  : 									return true;

  0001d	b0 01		 mov	 al, 1

; 406  : }

  0001f	5d		 pop	 ebp
  00020	c2 04 00	 ret	 4
?IsScaleGroup_Volume@IMetaTable@@QAE_NABV?$CStringT@DV?$StrTraitMFC_DLL@DV?$ChTraitsCRT@D@ATL@@@@@ATL@@@Z ENDP ; IMetaTable::IsScaleGroup_Volume
_TEXT	ENDS
; Function compile flags: /Ogtp
; File D:\git\src\IBK\IBK_DRFN\ProjSrc\SrcChartEx\ChartOCX\Include_Chart\Dll_Load\IMetaTable.cpp
; File C:\Program Files (x86)\Microsoft Visual Studio\2019\Community\VC\Tools\MSVC\14.29.30133\atlmfc\include\atlsimpstr.h
; File D:\git\src\IBK\IBK_DRFN\ProjSrc\SrcChartEx\ChartOCX\Include_Chart\Dll_Load\IMetaTable.cpp
;	COMDAT ?IsScaleGroup_PriceNoVertScale@IMetaTable@@QAE_NABV?$CStringT@DV?$StrTraitMFC_DLL@DV?$ChTraitsCRT@D@ATL@@@@@ATL@@@Z
_TEXT	SEGMENT
_IndicatorName$ = 8					; size = 4
?IsScaleGroup_PriceNoVertScale@IMetaTable@@QAE_NABV?$CStringT@DV?$StrTraitMFC_DLL@DV?$ChTraitsCRT@D@ATL@@@@@ATL@@@Z PROC ; IMetaTable::IsScaleGroup_PriceNoVertScale, COMDAT
; _this$ = ecx

; 381  : {

  00000	55		 push	 ebp
  00001	8b ec		 mov	 ebp, esp
; File C:\Program Files (x86)\Microsoft Visual Studio\2019\Community\VC\Tools\MSVC\14.29.30133\atlmfc\include\atlsimpstr.h

; 519  : 		return( GetData()->nDataLength );

  00003	8b 45 08	 mov	 eax, DWORD PTR _IndicatorName$[ebp]
  00006	8b 00		 mov	 eax, DWORD PTR [eax]

; 533  : 		return( GetLength() == 0 );

  00008	83 78 f4 00	 cmp	 DWORD PTR [eax-12], 0
; File D:\git\src\IBK\IBK_DRFN\ProjSrc\SrcChartEx\ChartOCX\Include_Chart\Dll_Load\IMetaTable.cpp

; 382  : 	if(IndicatorName.IsEmpty()) return false;

  0000c	75 06		 jne	 SHORT $LN4@IsScaleGro
$LN16@IsScaleGro:

; 390  : 	}
; 391  : 	return false;
; 392  : }

  0000e	32 c0		 xor	 al, al
  00010	5d		 pop	 ebp
  00011	c2 04 00	 ret	 4
$LN4@IsScaleGro:

; 383  : 
; 384  : 	// <>, <>
; 385  : 	switch( GetIndicatorID( IndicatorName))

  00014	50		 push	 eax
  00015	e8 00 00 00 00	 call	 ?GetIndicatorID@IMetaTable@@QAEHPBD@Z ; IMetaTable::GetIndicatorID
  0001a	83 e8 74	 sub	 eax, 116		; 00000074H
  0001d	74 05		 je	 SHORT $LN5@IsScaleGro
  0001f	83 e8 01	 sub	 eax, 1
  00022	75 ea		 jne	 SHORT $LN16@IsScaleGro
$LN5@IsScaleGro:

; 386  : 	{
; 387  : 		case EDDC_INDUSTRYJISUCHART:
; 388  : 		case EDDC_MARKETJISUCHART:
; 389  : 									return true;

  00024	b0 01		 mov	 al, 1

; 390  : 	}
; 391  : 	return false;
; 392  : }

  00026	5d		 pop	 ebp
  00027	c2 04 00	 ret	 4
?IsScaleGroup_PriceNoVertScale@IMetaTable@@QAE_NABV?$CStringT@DV?$StrTraitMFC_DLL@DV?$ChTraitsCRT@D@ATL@@@@@ATL@@@Z ENDP ; IMetaTable::IsScaleGroup_PriceNoVertScale
_TEXT	ENDS
; Function compile flags: /Ogtp
; File D:\git\src\IBK\IBK_DRFN\ProjSrc\SrcChartEx\ChartOCX\Include_Chart\Dll_Load\IMetaTable.cpp
; File C:\Program Files (x86)\Microsoft Visual Studio\2019\Community\VC\Tools\MSVC\14.29.30133\atlmfc\include\atlsimpstr.h
; File D:\git\src\IBK\IBK_DRFN\ProjSrc\SrcChartEx\ChartOCX\Include_Chart\Dll_Load\IMetaTable.cpp
;	COMDAT ?IsScaleGroup_Price@IMetaTable@@QAE_NABV?$CStringT@DV?$StrTraitMFC_DLL@DV?$ChTraitsCRT@D@ATL@@@@@ATL@@@Z
_TEXT	SEGMENT
_IndicatorName$ = 8					; size = 4
?IsScaleGroup_Price@IMetaTable@@QAE_NABV?$CStringT@DV?$StrTraitMFC_DLL@DV?$ChTraitsCRT@D@ATL@@@@@ATL@@@Z PROC ; IMetaTable::IsScaleGroup_Price, COMDAT
; _this$ = ecx

; 350  : {

  00000	55		 push	 ebp
  00001	8b ec		 mov	 ebp, esp
; File C:\Program Files (x86)\Microsoft Visual Studio\2019\Community\VC\Tools\MSVC\14.29.30133\atlmfc\include\atlsimpstr.h

; 377  : 		return( m_pszData );

  00003	8b 45 08	 mov	 eax, DWORD PTR _IndicatorName$[ebp]
; File D:\git\src\IBK\IBK_DRFN\ProjSrc\SrcChartEx\ChartOCX\Include_Chart\Dll_Load\IMetaTable.cpp

; 351  : 	switch( GetIndicatorID( IndicatorName))

  00006	ff 30		 push	 DWORD PTR [eax]
  00008	e8 00 00 00 00	 call	 ?GetIndicatorID@IMetaTable@@QAEHPBD@Z ; IMetaTable::GetIndicatorID
  0000d	83 f8 6e	 cmp	 eax, 110		; 0000006eH
  00010	77 14		 ja	 SHORT $LN2@IsScaleGro
  00012	0f b6 80 00 00
	00 00		 movzx	 eax, BYTE PTR $LN26@IsScaleGro[eax]
  00019	ff 24 85 00 00
	00 00		 jmp	 DWORD PTR $LN27@IsScaleGro[eax*4]
$LN4@IsScaleGro:

; 352  : 	{
; 353  : 		case EDDC_PRICECHART:
; 354  : // vntsorl:[0003431] [7111]      
; 355  : // 		case EDDC_ST_PRICEMACHART:
; 356  : 		case EDDC_OCX_PRICEMACHART:
; 357  : 		case EDDC_ST_PARABOLICCHART:
; 358  : 		case EDDC_OCX_RAINBOWCHART:
; 359  : 		case EDDC_OCX_ZIGZAGCHART:
; 360  : 		case EDDC_OCX_CLCCHART:
; 361  : 		case EDDC_ST_BOLLINGERCHART:
; 362  : 		case EDDC_ST_ENVELOPECHART:
; 363  : 		case EDDC_OCX_BOXCHARTCHART:
; 364  : 		case EDDC_ST_PIVOTCHART:
; 365  : 		case EDDC_OCX_GLANCEBALANCECHART:
; 366  : 		case EDDC_ST_PRICECHANNELCHART:
; 367  : 		case EDDC_ST_DEMARKCHART:
; 368  : 		case EDDC_OCX_VOLUMEFORSALE:
; 369  : 		case EDDC_OCX_LOCKCHART:
; 370  : 		case EDDC_ST_DEMACHART:
; 371  : 		case EDDC_ST_MACCHART:
; 372  : 		case EDDC_ST_STARCBANDSCHART:
; 373  : 		case EDDC_ST_TEMACHART:
; 374  : 									return true;

  00020	b0 01		 mov	 al, 1

; 377  : }

  00022	5d		 pop	 ebp
  00023	c2 04 00	 ret	 4
$LN2@IsScaleGro:

; 375  : 	}
; 376  : 	return false;

  00026	32 c0		 xor	 al, al

; 377  : }

  00028	5d		 pop	 ebp
  00029	c2 04 00	 ret	 4
$LN27@IsScaleGro:
  0002c	00 00 00 00	 DD	 $LN4@IsScaleGro
  00030	00 00 00 00	 DD	 $LN2@IsScaleGro
$LN26@IsScaleGro:
  00034	00		 DB	 0
  00035	00		 DB	 0
  00036	01		 DB	 1
  00037	01		 DB	 1
  00038	00		 DB	 0
  00039	00		 DB	 0
  0003a	00		 DB	 0
  0003b	00		 DB	 0
  0003c	00		 DB	 0
  0003d	00		 DB	 0
  0003e	00		 DB	 0
  0003f	00		 DB	 0
  00040	00		 DB	 0
  00041	00		 DB	 0
  00042	00		 DB	 0
  00043	00		 DB	 0
  00044	00		 DB	 0
  00045	00		 DB	 0
  00046	00		 DB	 0
  00047	00		 DB	 0
  00048	01		 DB	 1
  00049	01		 DB	 1
  0004a	01		 DB	 1
  0004b	01		 DB	 1
  0004c	01		 DB	 1
  0004d	01		 DB	 1
  0004e	01		 DB	 1
  0004f	01		 DB	 1
  00050	01		 DB	 1
  00051	01		 DB	 1
  00052	01		 DB	 1
  00053	01		 DB	 1
  00054	01		 DB	 1
  00055	01		 DB	 1
  00056	01		 DB	 1
  00057	01		 DB	 1
  00058	01		 DB	 1
  00059	01		 DB	 1
  0005a	01		 DB	 1
  0005b	01		 DB	 1
  0005c	01		 DB	 1
  0005d	01		 DB	 1
  0005e	01		 DB	 1
  0005f	01		 DB	 1
  00060	01		 DB	 1
  00061	01		 DB	 1
  00062	01		 DB	 1
  00063	01		 DB	 1
  00064	01		 DB	 1
  00065	01		 DB	 1
  00066	01		 DB	 1
  00067	01		 DB	 1
  00068	01		 DB	 1
  00069	01		 DB	 1
  0006a	01		 DB	 1
  0006b	01		 DB	 1
  0006c	01		 DB	 1
  0006d	01		 DB	 1
  0006e	01		 DB	 1
  0006f	01		 DB	 1
  00070	01		 DB	 1
  00071	01		 DB	 1
  00072	01		 DB	 1
  00073	01		 DB	 1
  00074	01		 DB	 1
  00075	01		 DB	 1
  00076	01		 DB	 1
  00077	01		 DB	 1
  00078	01		 DB	 1
  00079	01		 DB	 1
  0007a	01		 DB	 1
  0007b	01		 DB	 1
  0007c	01		 DB	 1
  0007d	01		 DB	 1
  0007e	01		 DB	 1
  0007f	01		 DB	 1
  00080	01		 DB	 1
  00081	01		 DB	 1
  00082	01		 DB	 1
  00083	01		 DB	 1
  00084	01		 DB	 1
  00085	01		 DB	 1
  00086	01		 DB	 1
  00087	01		 DB	 1
  00088	01		 DB	 1
  00089	01		 DB	 1
  0008a	01		 DB	 1
  0008b	01		 DB	 1
  0008c	01		 DB	 1
  0008d	01		 DB	 1
  0008e	01		 DB	 1
  0008f	01		 DB	 1
  00090	01		 DB	 1
  00091	01		 DB	 1
  00092	01		 DB	 1
  00093	01		 DB	 1
  00094	01		 DB	 1
  00095	01		 DB	 1
  00096	01		 DB	 1
  00097	01		 DB	 1
  00098	01		 DB	 1
  00099	01		 DB	 1
  0009a	01		 DB	 1
  0009b	01		 DB	 1
  0009c	01		 DB	 1
  0009d	01		 DB	 1
  0009e	01		 DB	 1
  0009f	01		 DB	 1
  000a0	01		 DB	 1
  000a1	01		 DB	 1
  000a2	00		 DB	 0
?IsScaleGroup_Price@IMetaTable@@QAE_NABV?$CStringT@DV?$StrTraitMFC_DLL@DV?$ChTraitsCRT@D@ATL@@@@@ATL@@@Z ENDP ; IMetaTable::IsScaleGroup_Price
_TEXT	ENDS
; Function compile flags: /Ogtp
; File D:\git\src\IBK\IBK_DRFN\ProjSrc\SrcChartEx\ChartOCX\Include_Chart\Dll_Load\IMetaTable.h
;	COMDAT ?GetIndicatorID@IMetaTable@@QAEHPBD@Z
_TEXT	SEGMENT
_p1$ = 8						; size = 4
?GetIndicatorID@IMetaTable@@QAEHPBD@Z PROC		; IMetaTable::GetIndicatorID, COMDAT
; _this$ = ecx

; 957  : 	DECLARE_FUNCTION1(	GetIndicatorID,					int, -1, const char *);

  00000	55		 push	 ebp
  00001	8b ec		 mov	 ebp, esp
  00003	56		 push	 esi
  00004	8b f1		 mov	 esi, ecx
  00006	8b 46 04	 mov	 eax, DWORD PTR [esi+4]
  00009	85 c0		 test	 eax, eax
  0000b	74 4a		 je	 SHORT $LN4@GetIndicat
  0000d	57		 push	 edi
  0000e	bf 80 0d 00 00	 mov	 edi, 3456		; 00000d80H
  00013	66 3b be b0 00
	00 00		 cmp	 di, WORD PTR [esi+176]
  0001a	74 23		 je	 SHORT $LN3@GetIndicat
  0001c	68 00 00 00 00	 push	 OFFSET ??_C@_0P@FOFNMHJI@GetIndicatorID@
  00021	50		 push	 eax
  00022	c7 86 ac 00 00
	00 00 00 00 00	 mov	 DWORD PTR [esi+172], 0
  0002c	ff 15 00 00 00
	00		 call	 DWORD PTR __imp__GetProcAddress@8
  00032	89 86 ac 00 00
	00		 mov	 DWORD PTR [esi+172], eax
  00038	66 89 be b0 00
	00 00		 mov	 WORD PTR [esi+176], di
$LN3@GetIndicat:
  0003f	8b 86 ac 00 00
	00		 mov	 eax, DWORD PTR [esi+172]
  00045	5f		 pop	 edi
  00046	85 c0		 test	 eax, eax
  00048	74 0d		 je	 SHORT $LN4@GetIndicat
  0004a	ff 75 08	 push	 DWORD PTR _p1$[ebp]
  0004d	ff d0		 call	 eax
  0004f	83 c4 04	 add	 esp, 4
  00052	5e		 pop	 esi
  00053	5d		 pop	 ebp
  00054	c2 04 00	 ret	 4
$LN4@GetIndicat:
  00057	83 c8 ff	 or	 eax, -1
  0005a	5e		 pop	 esi
  0005b	5d		 pop	 ebp
  0005c	c2 04 00	 ret	 4
?GetIndicatorID@IMetaTable@@QAEHPBD@Z ENDP		; IMetaTable::GetIndicatorID
_TEXT	ENDS
; Function compile flags: /Ogtp
; File D:\git\src\IBK\IBK_DRFN\ProjSrc\SrcChartEx\ChartOCX\Include_Chart\Dll_Load\IMetaTable.cpp
; File C:\Program Files (x86)\Microsoft Visual Studio\2019\Community\VC\Tools\MSVC\14.29.30133\atlmfc\include\atlsimpstr.h
; File D:\git\src\IBK\IBK_DRFN\ProjSrc\SrcChartEx\ChartOCX\Include_Chart\Dll_Load\IMetaTable.cpp
; File C:\Program Files (x86)\Microsoft Visual Studio\2019\Community\VC\Tools\MSVC\14.29.30133\atlmfc\include\atlsimpstr.h
; File D:\git\src\IBK\IBK_DRFN\ProjSrc\SrcChartEx\ChartOCX\Include_Chart\Dll_Load\IMetaTable.cpp
; File C:\Program Files (x86)\Microsoft Visual Studio\2019\Community\VC\Tools\MSVC\14.29.30133\atlmfc\include\atlsimpstr.h
; File D:\git\src\IBK\IBK_DRFN\ProjSrc\SrcChartEx\ChartOCX\Include_Chart\Dll_Load\IMetaTable.cpp
; File C:\Program Files (x86)\Microsoft Visual Studio\2019\Community\VC\Tools\MSVC\14.29.30133\atlmfc\include\atlsimpstr.h
; File D:\git\src\IBK\IBK_DRFN\ProjSrc\SrcChartEx\ChartOCX\Include_Chart\Dll_Load\IMetaTable.cpp
; File D:\git\src\IBK\IBK_DRFN\ProjSrc\SrcChartEx\ChartOCX\Include_Chart\Dll_Load\IMetaTable.h
; File D:\git\src\IBK\IBK_DRFN\ProjSrc\SrcChartEx\ChartOCX\Include_Chart\Dll_Load\IMetaTable.cpp
; File C:\Program Files (x86)\Microsoft Visual Studio\2019\Community\VC\Tools\MSVC\14.29.30133\atlmfc\include\atlsimpstr.h
; File D:\git\src\IBK\IBK_DRFN\ProjSrc\SrcChartEx\ChartOCX\Include_Chart\Dll_Load\IMetaTable.cpp
; File D:\git\src\IBK\IBK_DRFN\ProjSrc\SrcChartEx\ChartOCX\Include_Chart\Dll_Load\IMetaTable.h
; File C:\Program Files (x86)\Microsoft Visual Studio\2019\Community\VC\Tools\MSVC\14.29.30133\atlmfc\include\atlsimpstr.h
; File D:\git\src\IBK\IBK_DRFN\ProjSrc\SrcChartEx\ChartOCX\Include_Chart\Dll_Load\IMetaTable.h
; File D:\git\src\IBK\IBK_DRFN\ProjSrc\SrcChartEx\ChartOCX\Include_Chart\Dll_Load\IMetaTable.cpp
; File C:\Program Files (x86)\Microsoft Visual Studio\2019\Community\VC\Tools\MSVC\14.29.30133\atlmfc\include\atlsimpstr.h
; File D:\git\src\IBK\IBK_DRFN\ProjSrc\SrcChartEx\ChartOCX\Include_Chart\Dll_Load\IMetaTable.cpp
; File C:\Program Files (x86)\Microsoft Visual Studio\2019\Community\VC\Tools\MSVC\14.29.30133\atlmfc\include\atlsimpstr.h
; File D:\git\src\IBK\IBK_DRFN\ProjSrc\SrcChartEx\ChartOCX\Include_Chart\Dll_Load\IMetaTable.cpp
;	COMDAT ?GetMultipleMetaTextForScript@IMetaTable@@QAE?AV?$CStringT@DV?$StrTraitMFC_DLL@DV?$ChTraitsCRT@D@ATL@@@@@ATL@@PAUHWND__@@V23@1HH@Z
_TEXT	SEGMENT
$T2 = -36						; size = 4
$T3 = -32						; size = 4
$T4 = -28						; size = 4
$T5 = -24						; size = 4
_strItem$ = -20						; size = 4
_strItemOrg$ = -16					; size = 4
__$EHRec$ = -12						; size = 12
___$ReturnUdt$ = 8					; size = 4
_p_hOcxWnd$ = 12					; size = 4
_strOtherMOrLTexts$ = 16				; size = 4
_strSeperators$ = 20					; size = 4
_nCodePage1$ = 24					; size = 4
$T6 = 28						; size = 4
_nCodePage2$ = 28					; size = 4
?GetMultipleMetaTextForScript@IMetaTable@@QAE?AV?$CStringT@DV?$StrTraitMFC_DLL@DV?$ChTraitsCRT@D@ATL@@@@@ATL@@PAUHWND__@@V23@1HH@Z PROC ; IMetaTable::GetMultipleMetaTextForScript, COMDAT
; _this$ = ecx

; 320  : {

  00000	55		 push	 ebp
  00001	8b ec		 mov	 ebp, esp
  00003	6a ff		 push	 -1
  00005	68 00 00 00 00	 push	 __ehhandler$?GetMultipleMetaTextForScript@IMetaTable@@QAE?AV?$CStringT@DV?$StrTraitMFC_DLL@DV?$ChTraitsCRT@D@ATL@@@@@ATL@@PAUHWND__@@V23@1HH@Z
  0000a	64 a1 00 00 00
	00		 mov	 eax, DWORD PTR fs:0
  00010	50		 push	 eax
  00011	83 ec 18	 sub	 esp, 24			; 00000018H
  00014	53		 push	 ebx
  00015	56		 push	 esi
  00016	57		 push	 edi
  00017	a1 00 00 00 00	 mov	 eax, DWORD PTR ___security_cookie
  0001c	33 c5		 xor	 eax, ebp
  0001e	50		 push	 eax
  0001f	8d 45 f4	 lea	 eax, DWORD PTR __$EHRec$[ebp]
  00022	64 a3 00 00 00
	00		 mov	 DWORD PTR fs:0, eax
  00028	c7 45 e8 00 00
	00 00		 mov	 DWORD PTR $T5[ebp], 0
  0002f	c7 45 fc 01 00
	00 00		 mov	 DWORD PTR __$EHRec$[ebp+8], 1

; 321  : 	CString strMetaTexts, strItem, strItemOrg;

  00036	8b 5d 08	 mov	 ebx, DWORD PTR ___$ReturnUdt$[ebp]
  00039	8b cb		 mov	 ecx, ebx
  0003b	ff 15 00 00 00
	00		 call	 DWORD PTR __imp_??0?$CStringT@DV?$StrTraitMFC_DLL@DV?$ChTraitsCRT@D@ATL@@@@@ATL@@QAE@XZ

; 338  : 	}
; 339  : 
; 340  : 	return strMetaTexts;

  00041	8d 4d ec	 lea	 ecx, DWORD PTR _strItem$[ebp]
  00044	c7 45 e8 01 00
	00 00		 mov	 DWORD PTR $T5[ebp], 1
  0004b	ff 15 00 00 00
	00		 call	 DWORD PTR __imp_??0?$CStringT@DV?$StrTraitMFC_DLL@DV?$ChTraitsCRT@D@ATL@@@@@ATL@@QAE@XZ
  00051	8d 4d f0	 lea	 ecx, DWORD PTR _strItemOrg$[ebp]
  00054	ff 15 00 00 00
	00		 call	 DWORD PTR __imp_??0?$CStringT@DV?$StrTraitMFC_DLL@DV?$ChTraitsCRT@D@ATL@@@@@ATL@@QAE@XZ
; File C:\Program Files (x86)\Microsoft Visual Studio\2019\Community\VC\Tools\MSVC\14.29.30133\atlmfc\include\atlsimpstr.h

; 519  : 		return( GetData()->nDataLength );

  0005a	8b 45 10	 mov	 eax, DWORD PTR _strOtherMOrLTexts$[ebp]
; File D:\git\src\IBK\IBK_DRFN\ProjSrc\SrcChartEx\ChartOCX\Include_Chart\Dll_Load\IMetaTable.cpp

; 321  : 	CString strMetaTexts, strItem, strItemOrg;

  0005d	c6 45 fc 04	 mov	 BYTE PTR __$EHRec$[ebp+8], 4
; File C:\Program Files (x86)\Microsoft Visual Studio\2019\Community\VC\Tools\MSVC\14.29.30133\atlmfc\include\atlsimpstr.h

; 533  : 		return( GetLength() == 0 );

  00061	83 78 f4 00	 cmp	 DWORD PTR [eax-12], 0
; File D:\git\src\IBK\IBK_DRFN\ProjSrc\SrcChartEx\ChartOCX\Include_Chart\Dll_Load\IMetaTable.cpp

; 323  : 	while( !strOtherMOrLTexts.IsEmpty())

  00065	0f 84 c6 01 00
	00		 je	 $LN3@GetMultipl
  0006b	8b 7d 1c	 mov	 edi, DWORD PTR _nCodePage2$[ebp]
  0006e	66 90		 npad	 2
$LL2@GetMultipl:

; 324  : 	{
; 325  : 		strItemOrg = strOtherMOrLTexts.SpanExcluding( strSeperators);

  00070	ff 75 14	 push	 DWORD PTR _strSeperators$[ebp]
  00073	8d 45 1c	 lea	 eax, DWORD PTR $T6[ebp]
  00076	50		 push	 eax
  00077	8d 4d 10	 lea	 ecx, DWORD PTR _strOtherMOrLTexts$[ebp]
  0007a	ff 15 00 00 00
	00		 call	 DWORD PTR __imp_?SpanExcluding@?$CStringT@DV?$StrTraitMFC_DLL@DV?$ChTraitsCRT@D@ATL@@@@@ATL@@QBE?AV12@PBD@Z
  00080	50		 push	 eax
  00081	8d 4d f0	 lea	 ecx, DWORD PTR _strItemOrg$[ebp]
  00084	c6 45 fc 05	 mov	 BYTE PTR __$EHRec$[ebp+8], 5
  00088	ff 15 00 00 00
	00		 call	 DWORD PTR __imp_??4?$CStringT@DV?$StrTraitMFC_DLL@DV?$ChTraitsCRT@D@ATL@@@@@ATL@@QAEAAV01@ABV01@@Z
  0008e	8d 4d 1c	 lea	 ecx, DWORD PTR $T6[ebp]
  00091	c6 45 fc 04	 mov	 BYTE PTR __$EHRec$[ebp+8], 4
  00095	ff 15 00 00 00
	00		 call	 DWORD PTR __imp_??1?$CStringT@DV?$StrTraitMFC_DLL@DV?$ChTraitsCRT@D@ATL@@@@@ATL@@QAE@XZ
; File C:\Program Files (x86)\Microsoft Visual Studio\2019\Community\VC\Tools\MSVC\14.29.30133\atlmfc\include\atlsimpstr.h

; 519  : 		return( GetData()->nDataLength );

  0009b	8b 45 f0	 mov	 eax, DWORD PTR _strItemOrg$[ebp]
; File D:\git\src\IBK\IBK_DRFN\ProjSrc\SrcChartEx\ChartOCX\Include_Chart\Dll_Load\IMetaTable.cpp

; 326  : 		strOtherMOrLTexts = strOtherMOrLTexts.Mid( strItemOrg.GetLength());

  0009e	8d 4d 10	 lea	 ecx, DWORD PTR _strOtherMOrLTexts$[ebp]
  000a1	ff 70 f4	 push	 DWORD PTR [eax-12]
  000a4	8d 45 e4	 lea	 eax, DWORD PTR $T4[ebp]
  000a7	50		 push	 eax
  000a8	ff 15 00 00 00
	00		 call	 DWORD PTR __imp_?Mid@?$CStringT@DV?$StrTraitMFC_DLL@DV?$ChTraitsCRT@D@ATL@@@@@ATL@@QBE?AV12@H@Z
  000ae	50		 push	 eax
  000af	8d 4d 10	 lea	 ecx, DWORD PTR _strOtherMOrLTexts$[ebp]
  000b2	c6 45 fc 06	 mov	 BYTE PTR __$EHRec$[ebp+8], 6
  000b6	ff 15 00 00 00
	00		 call	 DWORD PTR __imp_??4?$CStringT@DV?$StrTraitMFC_DLL@DV?$ChTraitsCRT@D@ATL@@@@@ATL@@QAEAAV01@ABV01@@Z
  000bc	8d 4d e4	 lea	 ecx, DWORD PTR $T4[ebp]
  000bf	c6 45 fc 04	 mov	 BYTE PTR __$EHRec$[ebp+8], 4
  000c3	ff 15 00 00 00
	00		 call	 DWORD PTR __imp_??1?$CStringT@DV?$StrTraitMFC_DLL@DV?$ChTraitsCRT@D@ATL@@@@@ATL@@QAE@XZ
; File C:\Program Files (x86)\Microsoft Visual Studio\2019\Community\VC\Tools\MSVC\14.29.30133\atlmfc\include\atlsimpstr.h

; 519  : 		return( GetData()->nDataLength );

  000c9	8b 75 f0	 mov	 esi, DWORD PTR _strItemOrg$[ebp]

; 533  : 		return( GetLength() == 0 );

  000cc	83 7e f4 00	 cmp	 DWORD PTR [esi-12], 0
; File D:\git\src\IBK\IBK_DRFN\ProjSrc\SrcChartEx\ChartOCX\Include_Chart\Dll_Load\IMetaTable.cpp

; 327  : 		if( !strItemOrg.IsEmpty())

  000d0	0f 84 e9 00 00
	00		 je	 $LN4@GetMultipl
; File D:\git\src\IBK\IBK_DRFN\ProjSrc\SrcChartEx\ChartOCX\Include_Chart\Dll_Load\IMetaTable.h

; 931  : 	DECLARE_FUNCTION4(	GetMetaTextForScript_,			const char *, NULL, HWND, E_CODEPAGE, const char *, BOOL);

  000d6	a1 04 00 00 00	 mov	 eax, DWORD PTR ?g_iMetaTable@@3VIMetaTable@@A+4
  000db	85 c0		 test	 eax, eax
  000dd	74 50		 je	 SHORT $LN43@GetMultipl
  000df	b9 80 0d 00 00	 mov	 ecx, 3456		; 00000d80H
  000e4	66 3b 0d 74 00
	00 00		 cmp	 cx, WORD PTR ?g_iMetaTable@@3VIMetaTable@@A+116
  000eb	74 29		 je	 SHORT $LN71@GetMultipl
  000ed	68 00 00 00 00	 push	 OFFSET ??_C@_0BG@NDFMAEKK@GetMetaTextForScript_@
  000f2	50		 push	 eax
  000f3	c7 05 70 00 00
	00 00 00 00 00	 mov	 DWORD PTR ?g_iMetaTable@@3VIMetaTable@@A+112, 0
  000fd	ff 15 00 00 00
	00		 call	 DWORD PTR __imp__GetProcAddress@8
  00103	b9 80 0d 00 00	 mov	 ecx, 3456		; 00000d80H
  00108	a3 70 00 00 00	 mov	 DWORD PTR ?g_iMetaTable@@3VIMetaTable@@A+112, eax
  0010d	66 89 0d 74 00
	00 00		 mov	 WORD PTR ?g_iMetaTable@@3VIMetaTable@@A+116, cx
  00114	eb 05		 jmp	 SHORT $LN42@GetMultipl
$LN71@GetMultipl:
  00116	a1 70 00 00 00	 mov	 eax, DWORD PTR ?g_iMetaTable@@3VIMetaTable@@A+112
$LN42@GetMultipl:
  0011b	85 c0		 test	 eax, eax
  0011d	74 10		 je	 SHORT $LN43@GetMultipl
  0011f	6a 01		 push	 1
  00121	56		 push	 esi
  00122	ff 75 18	 push	 DWORD PTR _nCodePage1$[ebp]
  00125	ff 75 0c	 push	 DWORD PTR _p_hOcxWnd$[ebp]
  00128	ff d0		 call	 eax
  0012a	83 c4 10	 add	 esp, 16			; 00000010H
  0012d	eb 02		 jmp	 SHORT $LN40@GetMultipl
$LN43@GetMultipl:
  0012f	33 c0		 xor	 eax, eax
$LN40@GetMultipl:
; File D:\git\src\IBK\IBK_DRFN\ProjSrc\SrcChartEx\ChartOCX\Include_Chart\Dll_Load\IMetaTable.cpp

; 329  : 			strItem = g_iMetaTable.GetMetaTextForScript( p_hOcxWnd, ( IMetaTable::E_CODEPAGE)nCodePage1, strItemOrg, TRUE);

  00131	50		 push	 eax
  00132	8d 4d ec	 lea	 ecx, DWORD PTR _strItem$[ebp]
  00135	ff 15 00 00 00
	00		 call	 DWORD PTR __imp_??4?$CStringT@DV?$StrTraitMFC_DLL@DV?$ChTraitsCRT@D@ATL@@@@@ATL@@QAEAAV01@PBD@Z
; File C:\Program Files (x86)\Microsoft Visual Studio\2019\Community\VC\Tools\MSVC\14.29.30133\atlmfc\include\atlsimpstr.h

; 519  : 		return( GetData()->nDataLength );

  0013b	8b 45 ec	 mov	 eax, DWORD PTR _strItem$[ebp]

; 533  : 		return( GetLength() == 0 );

  0013e	83 78 f4 00	 cmp	 DWORD PTR [eax-12], 0
; File D:\git\src\IBK\IBK_DRFN\ProjSrc\SrcChartEx\ChartOCX\Include_Chart\Dll_Load\IMetaTable.cpp

; 330  : 			if( strItem.IsEmpty() && 0 <= nCodePage2)

  00142	75 6f		 jne	 SHORT $LN5@GetMultipl
  00144	85 ff		 test	 edi, edi
  00146	78 6b		 js	 SHORT $LN5@GetMultipl
; File D:\git\src\IBK\IBK_DRFN\ProjSrc\SrcChartEx\ChartOCX\Include_Chart\Dll_Load\IMetaTable.h

; 931  : 	DECLARE_FUNCTION4(	GetMetaTextForScript_,			const char *, NULL, HWND, E_CODEPAGE, const char *, BOOL);

  00148	a1 04 00 00 00	 mov	 eax, DWORD PTR ?g_iMetaTable@@3VIMetaTable@@A+4
; File C:\Program Files (x86)\Microsoft Visual Studio\2019\Community\VC\Tools\MSVC\14.29.30133\atlmfc\include\atlsimpstr.h

; 377  : 		return( m_pszData );

  0014d	8b 75 f0	 mov	 esi, DWORD PTR _strItemOrg$[ebp]
; File D:\git\src\IBK\IBK_DRFN\ProjSrc\SrcChartEx\ChartOCX\Include_Chart\Dll_Load\IMetaTable.h

; 931  : 	DECLARE_FUNCTION4(	GetMetaTextForScript_,			const char *, NULL, HWND, E_CODEPAGE, const char *, BOOL);

  00150	85 c0		 test	 eax, eax
  00152	74 4e		 je	 SHORT $LN59@GetMultipl
  00154	b9 80 0d 00 00	 mov	 ecx, 3456		; 00000d80H
  00159	66 3b 0d 74 00
	00 00		 cmp	 cx, WORD PTR ?g_iMetaTable@@3VIMetaTable@@A+116
  00160	74 29		 je	 SHORT $LN72@GetMultipl
  00162	68 00 00 00 00	 push	 OFFSET ??_C@_0BG@NDFMAEKK@GetMetaTextForScript_@
  00167	50		 push	 eax
  00168	c7 05 70 00 00
	00 00 00 00 00	 mov	 DWORD PTR ?g_iMetaTable@@3VIMetaTable@@A+112, 0
  00172	ff 15 00 00 00
	00		 call	 DWORD PTR __imp__GetProcAddress@8
  00178	b9 80 0d 00 00	 mov	 ecx, 3456		; 00000d80H
  0017d	a3 70 00 00 00	 mov	 DWORD PTR ?g_iMetaTable@@3VIMetaTable@@A+112, eax
  00182	66 89 0d 74 00
	00 00		 mov	 WORD PTR ?g_iMetaTable@@3VIMetaTable@@A+116, cx
  00189	eb 05		 jmp	 SHORT $LN58@GetMultipl
$LN72@GetMultipl:
  0018b	a1 70 00 00 00	 mov	 eax, DWORD PTR ?g_iMetaTable@@3VIMetaTable@@A+112
$LN58@GetMultipl:
  00190	85 c0		 test	 eax, eax
  00192	74 0e		 je	 SHORT $LN59@GetMultipl
  00194	6a 00		 push	 0
  00196	56		 push	 esi
  00197	57		 push	 edi
  00198	ff 75 0c	 push	 DWORD PTR _p_hOcxWnd$[ebp]
  0019b	ff d0		 call	 eax
  0019d	83 c4 10	 add	 esp, 16			; 00000010H
  001a0	eb 02		 jmp	 SHORT $LN56@GetMultipl
$LN59@GetMultipl:
  001a2	33 c0		 xor	 eax, eax
$LN56@GetMultipl:
; File D:\git\src\IBK\IBK_DRFN\ProjSrc\SrcChartEx\ChartOCX\Include_Chart\Dll_Load\IMetaTable.cpp

; 331  : 				strItem = g_iMetaTable.GetMetaTextForScript( p_hOcxWnd, ( IMetaTable::E_CODEPAGE)nCodePage2, strItemOrg, FALSE);

  001a4	85 c0		 test	 eax, eax
  001a6	8d 4d ec	 lea	 ecx, DWORD PTR _strItem$[ebp]
  001a9	0f 45 f0	 cmovne	 esi, eax
  001ac	56		 push	 esi
  001ad	ff 15 00 00 00
	00		 call	 DWORD PTR __imp_??4?$CStringT@DV?$StrTraitMFC_DLL@DV?$ChTraitsCRT@D@ATL@@@@@ATL@@QAEAAV01@PBD@Z
$LN5@GetMultipl:

; 332  : 			strMetaTexts += strItem;

  001b3	8d 45 ec	 lea	 eax, DWORD PTR _strItem$[ebp]
  001b6	8b cb		 mov	 ecx, ebx
  001b8	50		 push	 eax
  001b9	ff 15 00 00 00
	00		 call	 DWORD PTR __imp_??Y?$CStringT@DV?$StrTraitMFC_DLL@DV?$ChTraitsCRT@D@ATL@@@@@ATL@@QAEAAV01@ABV?$CSimpleStringT@D$00@1@@Z
$LN4@GetMultipl:

; 333  : 		}
; 334  : 
; 335  : 		strItemOrg = strOtherMOrLTexts.SpanIncluding( strSeperators);

  001bf	ff 75 14	 push	 DWORD PTR _strSeperators$[ebp]
  001c2	8d 45 e0	 lea	 eax, DWORD PTR $T3[ebp]
  001c5	50		 push	 eax
  001c6	8d 4d 10	 lea	 ecx, DWORD PTR _strOtherMOrLTexts$[ebp]
  001c9	ff 15 00 00 00
	00		 call	 DWORD PTR __imp_?SpanIncluding@?$CStringT@DV?$StrTraitMFC_DLL@DV?$ChTraitsCRT@D@ATL@@@@@ATL@@QBE?AV12@PBD@Z
  001cf	50		 push	 eax
  001d0	8d 4d f0	 lea	 ecx, DWORD PTR _strItemOrg$[ebp]
  001d3	c6 45 fc 07	 mov	 BYTE PTR __$EHRec$[ebp+8], 7
  001d7	ff 15 00 00 00
	00		 call	 DWORD PTR __imp_??4?$CStringT@DV?$StrTraitMFC_DLL@DV?$ChTraitsCRT@D@ATL@@@@@ATL@@QAEAAV01@ABV01@@Z
  001dd	8d 4d e0	 lea	 ecx, DWORD PTR $T3[ebp]
  001e0	c6 45 fc 04	 mov	 BYTE PTR __$EHRec$[ebp+8], 4
  001e4	ff 15 00 00 00
	00		 call	 DWORD PTR __imp_??1?$CStringT@DV?$StrTraitMFC_DLL@DV?$ChTraitsCRT@D@ATL@@@@@ATL@@QAE@XZ
; File C:\Program Files (x86)\Microsoft Visual Studio\2019\Community\VC\Tools\MSVC\14.29.30133\atlmfc\include\atlsimpstr.h

; 519  : 		return( GetData()->nDataLength );

  001ea	8b 45 f0	 mov	 eax, DWORD PTR _strItemOrg$[ebp]
; File D:\git\src\IBK\IBK_DRFN\ProjSrc\SrcChartEx\ChartOCX\Include_Chart\Dll_Load\IMetaTable.cpp

; 336  : 		strOtherMOrLTexts = strOtherMOrLTexts.Mid( strItemOrg.GetLength());

  001ed	8d 4d 10	 lea	 ecx, DWORD PTR _strOtherMOrLTexts$[ebp]
  001f0	ff 70 f4	 push	 DWORD PTR [eax-12]
  001f3	8d 45 dc	 lea	 eax, DWORD PTR $T2[ebp]
  001f6	50		 push	 eax
  001f7	ff 15 00 00 00
	00		 call	 DWORD PTR __imp_?Mid@?$CStringT@DV?$StrTraitMFC_DLL@DV?$ChTraitsCRT@D@ATL@@@@@ATL@@QBE?AV12@H@Z
  001fd	50		 push	 eax
  001fe	8d 4d 10	 lea	 ecx, DWORD PTR _strOtherMOrLTexts$[ebp]
  00201	c6 45 fc 08	 mov	 BYTE PTR __$EHRec$[ebp+8], 8
  00205	ff 15 00 00 00
	00		 call	 DWORD PTR __imp_??4?$CStringT@DV?$StrTraitMFC_DLL@DV?$ChTraitsCRT@D@ATL@@@@@ATL@@QAEAAV01@ABV01@@Z
  0020b	8d 4d dc	 lea	 ecx, DWORD PTR $T2[ebp]
  0020e	c6 45 fc 04	 mov	 BYTE PTR __$EHRec$[ebp+8], 4
  00212	ff 15 00 00 00
	00		 call	 DWORD PTR __imp_??1?$CStringT@DV?$StrTraitMFC_DLL@DV?$ChTraitsCRT@D@ATL@@@@@ATL@@QAE@XZ

; 337  : 		strMetaTexts += strItemOrg;

  00218	8d 45 f0	 lea	 eax, DWORD PTR _strItemOrg$[ebp]
  0021b	8b cb		 mov	 ecx, ebx
  0021d	50		 push	 eax
  0021e	ff 15 00 00 00
	00		 call	 DWORD PTR __imp_??Y?$CStringT@DV?$StrTraitMFC_DLL@DV?$ChTraitsCRT@D@ATL@@@@@ATL@@QAEAAV01@ABV?$CSimpleStringT@D$00@1@@Z
; File C:\Program Files (x86)\Microsoft Visual Studio\2019\Community\VC\Tools\MSVC\14.29.30133\atlmfc\include\atlsimpstr.h

; 533  : 		return( GetLength() == 0 );

  00224	8b 45 10	 mov	 eax, DWORD PTR _strOtherMOrLTexts$[ebp]
  00227	83 78 f4 00	 cmp	 DWORD PTR [eax-12], 0
; File D:\git\src\IBK\IBK_DRFN\ProjSrc\SrcChartEx\ChartOCX\Include_Chart\Dll_Load\IMetaTable.cpp

; 323  : 	while( !strOtherMOrLTexts.IsEmpty())

  0022b	0f 85 3f fe ff
	ff		 jne	 $LL2@GetMultipl
$LN3@GetMultipl:

; 338  : 	}
; 339  : 
; 340  : 	return strMetaTexts;

  00231	8d 4d f0	 lea	 ecx, DWORD PTR _strItemOrg$[ebp]
  00234	ff 15 00 00 00
	00		 call	 DWORD PTR __imp_??1?$CStringT@DV?$StrTraitMFC_DLL@DV?$ChTraitsCRT@D@ATL@@@@@ATL@@QAE@XZ
  0023a	8d 4d ec	 lea	 ecx, DWORD PTR _strItem$[ebp]
  0023d	ff 15 00 00 00
	00		 call	 DWORD PTR __imp_??1?$CStringT@DV?$StrTraitMFC_DLL@DV?$ChTraitsCRT@D@ATL@@@@@ATL@@QAE@XZ
  00243	8d 4d 10	 lea	 ecx, DWORD PTR _strOtherMOrLTexts$[ebp]
  00246	ff 15 00 00 00
	00		 call	 DWORD PTR __imp_??1?$CStringT@DV?$StrTraitMFC_DLL@DV?$ChTraitsCRT@D@ATL@@@@@ATL@@QAE@XZ
  0024c	8d 4d 14	 lea	 ecx, DWORD PTR _strSeperators$[ebp]
  0024f	ff 15 00 00 00
	00		 call	 DWORD PTR __imp_??1?$CStringT@DV?$StrTraitMFC_DLL@DV?$ChTraitsCRT@D@ATL@@@@@ATL@@QAE@XZ
  00255	8b c3		 mov	 eax, ebx

; 341  : }

  00257	8b 4d f4	 mov	 ecx, DWORD PTR __$EHRec$[ebp]
  0025a	64 89 0d 00 00
	00 00		 mov	 DWORD PTR fs:0, ecx
  00261	59		 pop	 ecx
  00262	5f		 pop	 edi
  00263	5e		 pop	 esi
  00264	5b		 pop	 ebx
  00265	8b e5		 mov	 esp, ebp
  00267	5d		 pop	 ebp
  00268	c2 18 00	 ret	 24			; 00000018H
_TEXT	ENDS
;	COMDAT text$x
text$x	SEGMENT
__unwindfunclet$?GetMultipleMetaTextForScript@IMetaTable@@QAE?AV?$CStringT@DV?$StrTraitMFC_DLL@DV?$ChTraitsCRT@D@ATL@@@@@ATL@@PAUHWND__@@V23@1HH@Z$0:
  00000	8d 4d 14	 lea	 ecx, DWORD PTR _strSeperators$[ebp]
  00003	ff 25 00 00 00
	00		 jmp	 DWORD PTR __imp_??1?$CStringT@DV?$StrTraitMFC_DLL@DV?$ChTraitsCRT@D@ATL@@@@@ATL@@QAE@XZ
__unwindfunclet$?GetMultipleMetaTextForScript@IMetaTable@@QAE?AV?$CStringT@DV?$StrTraitMFC_DLL@DV?$ChTraitsCRT@D@ATL@@@@@ATL@@PAUHWND__@@V23@1HH@Z$1:
  00009	8d 4d 10	 lea	 ecx, DWORD PTR _strOtherMOrLTexts$[ebp]
  0000c	ff 25 00 00 00
	00		 jmp	 DWORD PTR __imp_??1?$CStringT@DV?$StrTraitMFC_DLL@DV?$ChTraitsCRT@D@ATL@@@@@ATL@@QAE@XZ
__unwindfunclet$?GetMultipleMetaTextForScript@IMetaTable@@QAE?AV?$CStringT@DV?$StrTraitMFC_DLL@DV?$ChTraitsCRT@D@ATL@@@@@ATL@@PAUHWND__@@V23@1HH@Z$2:
  00012	8b 45 e8	 mov	 eax, DWORD PTR $T5[ebp]
  00015	83 e0 01	 and	 eax, 1
  00018	0f 84 0d 00 00
	00		 je	 $LN10@GetMultipl
  0001e	83 65 e8 fe	 and	 DWORD PTR $T5[ebp], -2	; fffffffeH
  00022	8b 4d 08	 mov	 ecx, DWORD PTR ___$ReturnUdt$[ebp]
  00025	ff 25 00 00 00
	00		 jmp	 DWORD PTR __imp_??1?$CStringT@DV?$StrTraitMFC_DLL@DV?$ChTraitsCRT@D@ATL@@@@@ATL@@QAE@XZ
$LN10@GetMultipl:
  0002b	c3		 ret	 0
__unwindfunclet$?GetMultipleMetaTextForScript@IMetaTable@@QAE?AV?$CStringT@DV?$StrTraitMFC_DLL@DV?$ChTraitsCRT@D@ATL@@@@@ATL@@PAUHWND__@@V23@1HH@Z$3:
  0002c	8d 4d ec	 lea	 ecx, DWORD PTR _strItem$[ebp]
  0002f	ff 25 00 00 00
	00		 jmp	 DWORD PTR __imp_??1?$CStringT@DV?$StrTraitMFC_DLL@DV?$ChTraitsCRT@D@ATL@@@@@ATL@@QAE@XZ
__unwindfunclet$?GetMultipleMetaTextForScript@IMetaTable@@QAE?AV?$CStringT@DV?$StrTraitMFC_DLL@DV?$ChTraitsCRT@D@ATL@@@@@ATL@@PAUHWND__@@V23@1HH@Z$4:
  00035	8d 4d f0	 lea	 ecx, DWORD PTR _strItemOrg$[ebp]
  00038	ff 25 00 00 00
	00		 jmp	 DWORD PTR __imp_??1?$CStringT@DV?$StrTraitMFC_DLL@DV?$ChTraitsCRT@D@ATL@@@@@ATL@@QAE@XZ
__unwindfunclet$?GetMultipleMetaTextForScript@IMetaTable@@QAE?AV?$CStringT@DV?$StrTraitMFC_DLL@DV?$ChTraitsCRT@D@ATL@@@@@ATL@@PAUHWND__@@V23@1HH@Z$5:
  0003e	8d 4d 1c	 lea	 ecx, DWORD PTR $T6[ebp]
  00041	ff 25 00 00 00
	00		 jmp	 DWORD PTR __imp_??1?$CStringT@DV?$StrTraitMFC_DLL@DV?$ChTraitsCRT@D@ATL@@@@@ATL@@QAE@XZ
__unwindfunclet$?GetMultipleMetaTextForScript@IMetaTable@@QAE?AV?$CStringT@DV?$StrTraitMFC_DLL@DV?$ChTraitsCRT@D@ATL@@@@@ATL@@PAUHWND__@@V23@1HH@Z$6:
  00047	8d 4d e4	 lea	 ecx, DWORD PTR $T4[ebp]
  0004a	ff 25 00 00 00
	00		 jmp	 DWORD PTR __imp_??1?$CStringT@DV?$StrTraitMFC_DLL@DV?$ChTraitsCRT@D@ATL@@@@@ATL@@QAE@XZ
__unwindfunclet$?GetMultipleMetaTextForScript@IMetaTable@@QAE?AV?$CStringT@DV?$StrTraitMFC_DLL@DV?$ChTraitsCRT@D@ATL@@@@@ATL@@PAUHWND__@@V23@1HH@Z$7:
  00050	8d 4d e0	 lea	 ecx, DWORD PTR $T3[ebp]
  00053	ff 25 00 00 00
	00		 jmp	 DWORD PTR __imp_??1?$CStringT@DV?$StrTraitMFC_DLL@DV?$ChTraitsCRT@D@ATL@@@@@ATL@@QAE@XZ
__unwindfunclet$?GetMultipleMetaTextForScript@IMetaTable@@QAE?AV?$CStringT@DV?$StrTraitMFC_DLL@DV?$ChTraitsCRT@D@ATL@@@@@ATL@@PAUHWND__@@V23@1HH@Z$8:
  00059	8d 4d dc	 lea	 ecx, DWORD PTR $T2[ebp]
  0005c	ff 25 00 00 00
	00		 jmp	 DWORD PTR __imp_??1?$CStringT@DV?$StrTraitMFC_DLL@DV?$ChTraitsCRT@D@ATL@@@@@ATL@@QAE@XZ
  00062	cc		 int	 3
  00063	cc		 int	 3
  00064	cc		 int	 3
  00065	cc		 int	 3
  00066	cc		 int	 3
__ehhandler$?GetMultipleMetaTextForScript@IMetaTable@@QAE?AV?$CStringT@DV?$StrTraitMFC_DLL@DV?$ChTraitsCRT@D@ATL@@@@@ATL@@PAUHWND__@@V23@1HH@Z:
  00067	90		 npad	 1
  00068	90		 npad	 1
  00069	8b 54 24 08	 mov	 edx, DWORD PTR [esp+8]
  0006d	8d 42 0c	 lea	 eax, DWORD PTR [edx+12]
  00070	8b 4a d8	 mov	 ecx, DWORD PTR [edx-40]
  00073	33 c8		 xor	 ecx, eax
  00075	e8 00 00 00 00	 call	 @__security_check_cookie@4
  0007a	b8 00 00 00 00	 mov	 eax, OFFSET __ehfuncinfo$?GetMultipleMetaTextForScript@IMetaTable@@QAE?AV?$CStringT@DV?$StrTraitMFC_DLL@DV?$ChTraitsCRT@D@ATL@@@@@ATL@@PAUHWND__@@V23@1HH@Z
  0007f	e9 00 00 00 00	 jmp	 ___CxxFrameHandler3
text$x	ENDS
?GetMultipleMetaTextForScript@IMetaTable@@QAE?AV?$CStringT@DV?$StrTraitMFC_DLL@DV?$ChTraitsCRT@D@ATL@@@@@ATL@@PAUHWND__@@V23@1HH@Z ENDP ; IMetaTable::GetMultipleMetaTextForScript
; Function compile flags: /Ogtp
; File D:\git\src\IBK\IBK_DRFN\ProjSrc\SrcChartEx\ChartOCX\Include_Chart\Dll_Load\IMetaTable.cpp
; File C:\Program Files (x86)\Microsoft Visual Studio\2019\Community\VC\Tools\MSVC\14.29.30133\atlmfc\include\atlsimpstr.h
; File D:\git\src\IBK\IBK_DRFN\ProjSrc\SrcChartEx\ChartOCX\Include_Chart\Dll_Load\IMetaTable.cpp
; File C:\Program Files (x86)\Microsoft Visual Studio\2019\Community\VC\Tools\MSVC\14.29.30133\atlmfc\include\atlsimpstr.h
; File D:\git\src\IBK\IBK_DRFN\ProjSrc\SrcChartEx\ChartOCX\Include_Chart\Dll_Load\IMetaTable.cpp
; File C:\Program Files (x86)\Microsoft Visual Studio\2019\Community\VC\Tools\MSVC\14.29.30133\atlmfc\include\atlsimpstr.h
; File D:\git\src\IBK\IBK_DRFN\ProjSrc\SrcChartEx\ChartOCX\Include_Chart\Dll_Load\IMetaTable.cpp
; File C:\Program Files (x86)\Microsoft Visual Studio\2019\Community\VC\Tools\MSVC\14.29.30133\atlmfc\include\atlsimpstr.h
; File D:\git\src\IBK\IBK_DRFN\ProjSrc\SrcChartEx\ChartOCX\Include_Chart\Dll_Load\IMetaTable.cpp
; File D:\git\src\IBK\IBK_DRFN\ProjSrc\SrcChartEx\ChartOCX\Include_Chart\Dll_Load\IMetaTable.h
; File D:\git\src\IBK\IBK_DRFN\ProjSrc\SrcChartEx\ChartOCX\Include_Chart\Dll_Load\IMetaTable.cpp
; File C:\Program Files (x86)\Microsoft Visual Studio\2019\Community\VC\Tools\MSVC\14.29.30133\atlmfc\include\atlsimpstr.h
; File D:\git\src\IBK\IBK_DRFN\ProjSrc\SrcChartEx\ChartOCX\Include_Chart\Dll_Load\IMetaTable.cpp
; File D:\git\src\IBK\IBK_DRFN\ProjSrc\SrcChartEx\ChartOCX\Include_Chart\Dll_Load\IMetaTable.h
; File C:\Program Files (x86)\Microsoft Visual Studio\2019\Community\VC\Tools\MSVC\14.29.30133\atlmfc\include\atlsimpstr.h
; File D:\git\src\IBK\IBK_DRFN\ProjSrc\SrcChartEx\ChartOCX\Include_Chart\Dll_Load\IMetaTable.h
; File D:\git\src\IBK\IBK_DRFN\ProjSrc\SrcChartEx\ChartOCX\Include_Chart\Dll_Load\IMetaTable.cpp
; File C:\Program Files (x86)\Microsoft Visual Studio\2019\Community\VC\Tools\MSVC\14.29.30133\atlmfc\include\atlsimpstr.h
; File D:\git\src\IBK\IBK_DRFN\ProjSrc\SrcChartEx\ChartOCX\Include_Chart\Dll_Load\IMetaTable.cpp
; File C:\Program Files (x86)\Microsoft Visual Studio\2019\Community\VC\Tools\MSVC\14.29.30133\atlmfc\include\atlsimpstr.h
; File D:\git\src\IBK\IBK_DRFN\ProjSrc\SrcChartEx\ChartOCX\Include_Chart\Dll_Load\IMetaTable.cpp
;	COMDAT ?GetMultipleMetaTextFromOther@IMetaTable@@QAE?AV?$CStringT@DV?$StrTraitMFC_DLL@DV?$ChTraitsCRT@D@ATL@@@@@ATL@@PAUHWND__@@V23@1HH@Z
_TEXT	SEGMENT
$T2 = -36						; size = 4
$T3 = -32						; size = 4
$T4 = -28						; size = 4
$T5 = -24						; size = 4
_strItem$ = -20						; size = 4
_strItemOrg$ = -16					; size = 4
__$EHRec$ = -12						; size = 12
___$ReturnUdt$ = 8					; size = 4
_p_hOcxWnd$ = 12					; size = 4
_strOtherMetaTexts$ = 16				; size = 4
_strSeperators$ = 20					; size = 4
_nCodePage1$ = 24					; size = 4
$T6 = 28						; size = 4
_nCodePage2$ = 28					; size = 4
?GetMultipleMetaTextFromOther@IMetaTable@@QAE?AV?$CStringT@DV?$StrTraitMFC_DLL@DV?$ChTraitsCRT@D@ATL@@@@@ATL@@PAUHWND__@@V23@1HH@Z PROC ; IMetaTable::GetMultipleMetaTextFromOther, COMDAT
; _this$ = ecx

; 296  : {

  00000	55		 push	 ebp
  00001	8b ec		 mov	 ebp, esp
  00003	6a ff		 push	 -1
  00005	68 00 00 00 00	 push	 __ehhandler$?GetMultipleMetaTextFromOther@IMetaTable@@QAE?AV?$CStringT@DV?$StrTraitMFC_DLL@DV?$ChTraitsCRT@D@ATL@@@@@ATL@@PAUHWND__@@V23@1HH@Z
  0000a	64 a1 00 00 00
	00		 mov	 eax, DWORD PTR fs:0
  00010	50		 push	 eax
  00011	83 ec 18	 sub	 esp, 24			; 00000018H
  00014	53		 push	 ebx
  00015	56		 push	 esi
  00016	57		 push	 edi
  00017	a1 00 00 00 00	 mov	 eax, DWORD PTR ___security_cookie
  0001c	33 c5		 xor	 eax, ebp
  0001e	50		 push	 eax
  0001f	8d 45 f4	 lea	 eax, DWORD PTR __$EHRec$[ebp]
  00022	64 a3 00 00 00
	00		 mov	 DWORD PTR fs:0, eax
  00028	c7 45 e8 00 00
	00 00		 mov	 DWORD PTR $T5[ebp], 0
  0002f	c7 45 fc 01 00
	00 00		 mov	 DWORD PTR __$EHRec$[ebp+8], 1

; 297  : 	CString strMetaTexts, strItem, strItemOrg;

  00036	8b 5d 08	 mov	 ebx, DWORD PTR ___$ReturnUdt$[ebp]
  00039	8b cb		 mov	 ecx, ebx
  0003b	ff 15 00 00 00
	00		 call	 DWORD PTR __imp_??0?$CStringT@DV?$StrTraitMFC_DLL@DV?$ChTraitsCRT@D@ATL@@@@@ATL@@QAE@XZ

; 314  : 	}
; 315  : 
; 316  : 	return strMetaTexts;

  00041	8d 4d ec	 lea	 ecx, DWORD PTR _strItem$[ebp]
  00044	c7 45 e8 01 00
	00 00		 mov	 DWORD PTR $T5[ebp], 1
  0004b	ff 15 00 00 00
	00		 call	 DWORD PTR __imp_??0?$CStringT@DV?$StrTraitMFC_DLL@DV?$ChTraitsCRT@D@ATL@@@@@ATL@@QAE@XZ
  00051	8d 4d f0	 lea	 ecx, DWORD PTR _strItemOrg$[ebp]
  00054	ff 15 00 00 00
	00		 call	 DWORD PTR __imp_??0?$CStringT@DV?$StrTraitMFC_DLL@DV?$ChTraitsCRT@D@ATL@@@@@ATL@@QAE@XZ
; File C:\Program Files (x86)\Microsoft Visual Studio\2019\Community\VC\Tools\MSVC\14.29.30133\atlmfc\include\atlsimpstr.h

; 519  : 		return( GetData()->nDataLength );

  0005a	8b 45 10	 mov	 eax, DWORD PTR _strOtherMetaTexts$[ebp]
; File D:\git\src\IBK\IBK_DRFN\ProjSrc\SrcChartEx\ChartOCX\Include_Chart\Dll_Load\IMetaTable.cpp

; 297  : 	CString strMetaTexts, strItem, strItemOrg;

  0005d	c6 45 fc 04	 mov	 BYTE PTR __$EHRec$[ebp+8], 4
; File C:\Program Files (x86)\Microsoft Visual Studio\2019\Community\VC\Tools\MSVC\14.29.30133\atlmfc\include\atlsimpstr.h

; 533  : 		return( GetLength() == 0 );

  00061	83 78 f4 00	 cmp	 DWORD PTR [eax-12], 0
; File D:\git\src\IBK\IBK_DRFN\ProjSrc\SrcChartEx\ChartOCX\Include_Chart\Dll_Load\IMetaTable.cpp

; 299  : 	while( !strOtherMetaTexts.IsEmpty())

  00065	0f 84 c6 01 00
	00		 je	 $LN3@GetMultipl
  0006b	8b 7d 1c	 mov	 edi, DWORD PTR _nCodePage2$[ebp]
  0006e	66 90		 npad	 2
$LL2@GetMultipl:

; 300  : 	{
; 301  : 		strItemOrg = strOtherMetaTexts.SpanExcluding( strSeperators);

  00070	ff 75 14	 push	 DWORD PTR _strSeperators$[ebp]
  00073	8d 45 1c	 lea	 eax, DWORD PTR $T6[ebp]
  00076	50		 push	 eax
  00077	8d 4d 10	 lea	 ecx, DWORD PTR _strOtherMetaTexts$[ebp]
  0007a	ff 15 00 00 00
	00		 call	 DWORD PTR __imp_?SpanExcluding@?$CStringT@DV?$StrTraitMFC_DLL@DV?$ChTraitsCRT@D@ATL@@@@@ATL@@QBE?AV12@PBD@Z
  00080	50		 push	 eax
  00081	8d 4d f0	 lea	 ecx, DWORD PTR _strItemOrg$[ebp]
  00084	c6 45 fc 05	 mov	 BYTE PTR __$EHRec$[ebp+8], 5
  00088	ff 15 00 00 00
	00		 call	 DWORD PTR __imp_??4?$CStringT@DV?$StrTraitMFC_DLL@DV?$ChTraitsCRT@D@ATL@@@@@ATL@@QAEAAV01@ABV01@@Z
  0008e	8d 4d 1c	 lea	 ecx, DWORD PTR $T6[ebp]
  00091	c6 45 fc 04	 mov	 BYTE PTR __$EHRec$[ebp+8], 4
  00095	ff 15 00 00 00
	00		 call	 DWORD PTR __imp_??1?$CStringT@DV?$StrTraitMFC_DLL@DV?$ChTraitsCRT@D@ATL@@@@@ATL@@QAE@XZ
; File C:\Program Files (x86)\Microsoft Visual Studio\2019\Community\VC\Tools\MSVC\14.29.30133\atlmfc\include\atlsimpstr.h

; 519  : 		return( GetData()->nDataLength );

  0009b	8b 45 f0	 mov	 eax, DWORD PTR _strItemOrg$[ebp]
; File D:\git\src\IBK\IBK_DRFN\ProjSrc\SrcChartEx\ChartOCX\Include_Chart\Dll_Load\IMetaTable.cpp

; 302  : 		strOtherMetaTexts = strOtherMetaTexts.Mid( strItemOrg.GetLength());

  0009e	8d 4d 10	 lea	 ecx, DWORD PTR _strOtherMetaTexts$[ebp]
  000a1	ff 70 f4	 push	 DWORD PTR [eax-12]
  000a4	8d 45 e4	 lea	 eax, DWORD PTR $T4[ebp]
  000a7	50		 push	 eax
  000a8	ff 15 00 00 00
	00		 call	 DWORD PTR __imp_?Mid@?$CStringT@DV?$StrTraitMFC_DLL@DV?$ChTraitsCRT@D@ATL@@@@@ATL@@QBE?AV12@H@Z
  000ae	50		 push	 eax
  000af	8d 4d 10	 lea	 ecx, DWORD PTR _strOtherMetaTexts$[ebp]
  000b2	c6 45 fc 06	 mov	 BYTE PTR __$EHRec$[ebp+8], 6
  000b6	ff 15 00 00 00
	00		 call	 DWORD PTR __imp_??4?$CStringT@DV?$StrTraitMFC_DLL@DV?$ChTraitsCRT@D@ATL@@@@@ATL@@QAEAAV01@ABV01@@Z
  000bc	8d 4d e4	 lea	 ecx, DWORD PTR $T4[ebp]
  000bf	c6 45 fc 04	 mov	 BYTE PTR __$EHRec$[ebp+8], 4
  000c3	ff 15 00 00 00
	00		 call	 DWORD PTR __imp_??1?$CStringT@DV?$StrTraitMFC_DLL@DV?$ChTraitsCRT@D@ATL@@@@@ATL@@QAE@XZ
; File C:\Program Files (x86)\Microsoft Visual Studio\2019\Community\VC\Tools\MSVC\14.29.30133\atlmfc\include\atlsimpstr.h

; 519  : 		return( GetData()->nDataLength );

  000c9	8b 75 f0	 mov	 esi, DWORD PTR _strItemOrg$[ebp]

; 533  : 		return( GetLength() == 0 );

  000cc	83 7e f4 00	 cmp	 DWORD PTR [esi-12], 0
; File D:\git\src\IBK\IBK_DRFN\ProjSrc\SrcChartEx\ChartOCX\Include_Chart\Dll_Load\IMetaTable.cpp

; 303  : 		if( !strItemOrg.IsEmpty())

  000d0	0f 84 e9 00 00
	00		 je	 $LN4@GetMultipl
; File D:\git\src\IBK\IBK_DRFN\ProjSrc\SrcChartEx\ChartOCX\Include_Chart\Dll_Load\IMetaTable.h

; 930  : 	DECLARE_FUNCTION4(	GetMetaTextFromOther_,			const char *, NULL, HWND, E_CODEPAGE, const char *, BOOL);

  000d6	a1 04 00 00 00	 mov	 eax, DWORD PTR ?g_iMetaTable@@3VIMetaTable@@A+4
  000db	85 c0		 test	 eax, eax
  000dd	74 50		 je	 SHORT $LN43@GetMultipl
  000df	b9 80 0d 00 00	 mov	 ecx, 3456		; 00000d80H
  000e4	66 3b 0d 6c 00
	00 00		 cmp	 cx, WORD PTR ?g_iMetaTable@@3VIMetaTable@@A+108
  000eb	74 29		 je	 SHORT $LN71@GetMultipl
  000ed	68 00 00 00 00	 push	 OFFSET ??_C@_0BG@EMKKKIMB@GetMetaTextFromOther_@
  000f2	50		 push	 eax
  000f3	c7 05 68 00 00
	00 00 00 00 00	 mov	 DWORD PTR ?g_iMetaTable@@3VIMetaTable@@A+104, 0
  000fd	ff 15 00 00 00
	00		 call	 DWORD PTR __imp__GetProcAddress@8
  00103	b9 80 0d 00 00	 mov	 ecx, 3456		; 00000d80H
  00108	a3 68 00 00 00	 mov	 DWORD PTR ?g_iMetaTable@@3VIMetaTable@@A+104, eax
  0010d	66 89 0d 6c 00
	00 00		 mov	 WORD PTR ?g_iMetaTable@@3VIMetaTable@@A+108, cx
  00114	eb 05		 jmp	 SHORT $LN42@GetMultipl
$LN71@GetMultipl:
  00116	a1 68 00 00 00	 mov	 eax, DWORD PTR ?g_iMetaTable@@3VIMetaTable@@A+104
$LN42@GetMultipl:
  0011b	85 c0		 test	 eax, eax
  0011d	74 10		 je	 SHORT $LN43@GetMultipl
  0011f	6a 01		 push	 1
  00121	56		 push	 esi
  00122	ff 75 18	 push	 DWORD PTR _nCodePage1$[ebp]
  00125	ff 75 0c	 push	 DWORD PTR _p_hOcxWnd$[ebp]
  00128	ff d0		 call	 eax
  0012a	83 c4 10	 add	 esp, 16			; 00000010H
  0012d	eb 02		 jmp	 SHORT $LN40@GetMultipl
$LN43@GetMultipl:
  0012f	33 c0		 xor	 eax, eax
$LN40@GetMultipl:
; File D:\git\src\IBK\IBK_DRFN\ProjSrc\SrcChartEx\ChartOCX\Include_Chart\Dll_Load\IMetaTable.cpp

; 305  : 			strItem = g_iMetaTable.GetMetaTextFromOther( p_hOcxWnd, ( IMetaTable::E_CODEPAGE)nCodePage1, strItemOrg, TRUE);

  00131	50		 push	 eax
  00132	8d 4d ec	 lea	 ecx, DWORD PTR _strItem$[ebp]
  00135	ff 15 00 00 00
	00		 call	 DWORD PTR __imp_??4?$CStringT@DV?$StrTraitMFC_DLL@DV?$ChTraitsCRT@D@ATL@@@@@ATL@@QAEAAV01@PBD@Z
; File C:\Program Files (x86)\Microsoft Visual Studio\2019\Community\VC\Tools\MSVC\14.29.30133\atlmfc\include\atlsimpstr.h

; 519  : 		return( GetData()->nDataLength );

  0013b	8b 45 ec	 mov	 eax, DWORD PTR _strItem$[ebp]

; 533  : 		return( GetLength() == 0 );

  0013e	83 78 f4 00	 cmp	 DWORD PTR [eax-12], 0
; File D:\git\src\IBK\IBK_DRFN\ProjSrc\SrcChartEx\ChartOCX\Include_Chart\Dll_Load\IMetaTable.cpp

; 306  : 			if( strItem.IsEmpty() && 0 <= nCodePage2)

  00142	75 6f		 jne	 SHORT $LN5@GetMultipl
  00144	85 ff		 test	 edi, edi
  00146	78 6b		 js	 SHORT $LN5@GetMultipl
; File D:\git\src\IBK\IBK_DRFN\ProjSrc\SrcChartEx\ChartOCX\Include_Chart\Dll_Load\IMetaTable.h

; 930  : 	DECLARE_FUNCTION4(	GetMetaTextFromOther_,			const char *, NULL, HWND, E_CODEPAGE, const char *, BOOL);

  00148	a1 04 00 00 00	 mov	 eax, DWORD PTR ?g_iMetaTable@@3VIMetaTable@@A+4
; File C:\Program Files (x86)\Microsoft Visual Studio\2019\Community\VC\Tools\MSVC\14.29.30133\atlmfc\include\atlsimpstr.h

; 377  : 		return( m_pszData );

  0014d	8b 75 f0	 mov	 esi, DWORD PTR _strItemOrg$[ebp]
; File D:\git\src\IBK\IBK_DRFN\ProjSrc\SrcChartEx\ChartOCX\Include_Chart\Dll_Load\IMetaTable.h

; 930  : 	DECLARE_FUNCTION4(	GetMetaTextFromOther_,			const char *, NULL, HWND, E_CODEPAGE, const char *, BOOL);

  00150	85 c0		 test	 eax, eax
  00152	74 4e		 je	 SHORT $LN59@GetMultipl
  00154	b9 80 0d 00 00	 mov	 ecx, 3456		; 00000d80H
  00159	66 3b 0d 6c 00
	00 00		 cmp	 cx, WORD PTR ?g_iMetaTable@@3VIMetaTable@@A+108
  00160	74 29		 je	 SHORT $LN72@GetMultipl
  00162	68 00 00 00 00	 push	 OFFSET ??_C@_0BG@EMKKKIMB@GetMetaTextFromOther_@
  00167	50		 push	 eax
  00168	c7 05 68 00 00
	00 00 00 00 00	 mov	 DWORD PTR ?g_iMetaTable@@3VIMetaTable@@A+104, 0
  00172	ff 15 00 00 00
	00		 call	 DWORD PTR __imp__GetProcAddress@8
  00178	b9 80 0d 00 00	 mov	 ecx, 3456		; 00000d80H
  0017d	a3 68 00 00 00	 mov	 DWORD PTR ?g_iMetaTable@@3VIMetaTable@@A+104, eax
  00182	66 89 0d 6c 00
	00 00		 mov	 WORD PTR ?g_iMetaTable@@3VIMetaTable@@A+108, cx
  00189	eb 05		 jmp	 SHORT $LN58@GetMultipl
$LN72@GetMultipl:
  0018b	a1 68 00 00 00	 mov	 eax, DWORD PTR ?g_iMetaTable@@3VIMetaTable@@A+104
$LN58@GetMultipl:
  00190	85 c0		 test	 eax, eax
  00192	74 0e		 je	 SHORT $LN59@GetMultipl
  00194	6a 00		 push	 0
  00196	56		 push	 esi
  00197	57		 push	 edi
  00198	ff 75 0c	 push	 DWORD PTR _p_hOcxWnd$[ebp]
  0019b	ff d0		 call	 eax
  0019d	83 c4 10	 add	 esp, 16			; 00000010H
  001a0	eb 02		 jmp	 SHORT $LN56@GetMultipl
$LN59@GetMultipl:
  001a2	33 c0		 xor	 eax, eax
$LN56@GetMultipl:
; File D:\git\src\IBK\IBK_DRFN\ProjSrc\SrcChartEx\ChartOCX\Include_Chart\Dll_Load\IMetaTable.cpp

; 307  : 				strItem = g_iMetaTable.GetMetaTextFromOther( p_hOcxWnd, ( IMetaTable::E_CODEPAGE)nCodePage2, strItemOrg, FALSE);

  001a4	85 c0		 test	 eax, eax
  001a6	8d 4d ec	 lea	 ecx, DWORD PTR _strItem$[ebp]
  001a9	0f 45 f0	 cmovne	 esi, eax
  001ac	56		 push	 esi
  001ad	ff 15 00 00 00
	00		 call	 DWORD PTR __imp_??4?$CStringT@DV?$StrTraitMFC_DLL@DV?$ChTraitsCRT@D@ATL@@@@@ATL@@QAEAAV01@PBD@Z
$LN5@GetMultipl:

; 308  : 			strMetaTexts += strItem;

  001b3	8d 45 ec	 lea	 eax, DWORD PTR _strItem$[ebp]
  001b6	8b cb		 mov	 ecx, ebx
  001b8	50		 push	 eax
  001b9	ff 15 00 00 00
	00		 call	 DWORD PTR __imp_??Y?$CStringT@DV?$StrTraitMFC_DLL@DV?$ChTraitsCRT@D@ATL@@@@@ATL@@QAEAAV01@ABV?$CSimpleStringT@D$00@1@@Z
$LN4@GetMultipl:

; 309  : 		}
; 310  : 
; 311  : 		strItemOrg = strOtherMetaTexts.SpanIncluding( strSeperators);

  001bf	ff 75 14	 push	 DWORD PTR _strSeperators$[ebp]
  001c2	8d 45 e0	 lea	 eax, DWORD PTR $T3[ebp]
  001c5	50		 push	 eax
  001c6	8d 4d 10	 lea	 ecx, DWORD PTR _strOtherMetaTexts$[ebp]
  001c9	ff 15 00 00 00
	00		 call	 DWORD PTR __imp_?SpanIncluding@?$CStringT@DV?$StrTraitMFC_DLL@DV?$ChTraitsCRT@D@ATL@@@@@ATL@@QBE?AV12@PBD@Z
  001cf	50		 push	 eax
  001d0	8d 4d f0	 lea	 ecx, DWORD PTR _strItemOrg$[ebp]
  001d3	c6 45 fc 07	 mov	 BYTE PTR __$EHRec$[ebp+8], 7
  001d7	ff 15 00 00 00
	00		 call	 DWORD PTR __imp_??4?$CStringT@DV?$StrTraitMFC_DLL@DV?$ChTraitsCRT@D@ATL@@@@@ATL@@QAEAAV01@ABV01@@Z
  001dd	8d 4d e0	 lea	 ecx, DWORD PTR $T3[ebp]
  001e0	c6 45 fc 04	 mov	 BYTE PTR __$EHRec$[ebp+8], 4
  001e4	ff 15 00 00 00
	00		 call	 DWORD PTR __imp_??1?$CStringT@DV?$StrTraitMFC_DLL@DV?$ChTraitsCRT@D@ATL@@@@@ATL@@QAE@XZ
; File C:\Program Files (x86)\Microsoft Visual Studio\2019\Community\VC\Tools\MSVC\14.29.30133\atlmfc\include\atlsimpstr.h

; 519  : 		return( GetData()->nDataLength );

  001ea	8b 45 f0	 mov	 eax, DWORD PTR _strItemOrg$[ebp]
; File D:\git\src\IBK\IBK_DRFN\ProjSrc\SrcChartEx\ChartOCX\Include_Chart\Dll_Load\IMetaTable.cpp

; 312  : 		strOtherMetaTexts = strOtherMetaTexts.Mid( strItemOrg.GetLength());

  001ed	8d 4d 10	 lea	 ecx, DWORD PTR _strOtherMetaTexts$[ebp]
  001f0	ff 70 f4	 push	 DWORD PTR [eax-12]
  001f3	8d 45 dc	 lea	 eax, DWORD PTR $T2[ebp]
  001f6	50		 push	 eax
  001f7	ff 15 00 00 00
	00		 call	 DWORD PTR __imp_?Mid@?$CStringT@DV?$StrTraitMFC_DLL@DV?$ChTraitsCRT@D@ATL@@@@@ATL@@QBE?AV12@H@Z
  001fd	50		 push	 eax
  001fe	8d 4d 10	 lea	 ecx, DWORD PTR _strOtherMetaTexts$[ebp]
  00201	c6 45 fc 08	 mov	 BYTE PTR __$EHRec$[ebp+8], 8
  00205	ff 15 00 00 00
	00		 call	 DWORD PTR __imp_??4?$CStringT@DV?$StrTraitMFC_DLL@DV?$ChTraitsCRT@D@ATL@@@@@ATL@@QAEAAV01@ABV01@@Z
  0020b	8d 4d dc	 lea	 ecx, DWORD PTR $T2[ebp]
  0020e	c6 45 fc 04	 mov	 BYTE PTR __$EHRec$[ebp+8], 4
  00212	ff 15 00 00 00
	00		 call	 DWORD PTR __imp_??1?$CStringT@DV?$StrTraitMFC_DLL@DV?$ChTraitsCRT@D@ATL@@@@@ATL@@QAE@XZ

; 313  : 		strMetaTexts += strItemOrg;

  00218	8d 45 f0	 lea	 eax, DWORD PTR _strItemOrg$[ebp]
  0021b	8b cb		 mov	 ecx, ebx
  0021d	50		 push	 eax
  0021e	ff 15 00 00 00
	00		 call	 DWORD PTR __imp_??Y?$CStringT@DV?$StrTraitMFC_DLL@DV?$ChTraitsCRT@D@ATL@@@@@ATL@@QAEAAV01@ABV?$CSimpleStringT@D$00@1@@Z
; File C:\Program Files (x86)\Microsoft Visual Studio\2019\Community\VC\Tools\MSVC\14.29.30133\atlmfc\include\atlsimpstr.h

; 533  : 		return( GetLength() == 0 );

  00224	8b 45 10	 mov	 eax, DWORD PTR _strOtherMetaTexts$[ebp]
  00227	83 78 f4 00	 cmp	 DWORD PTR [eax-12], 0
; File D:\git\src\IBK\IBK_DRFN\ProjSrc\SrcChartEx\ChartOCX\Include_Chart\Dll_Load\IMetaTable.cpp

; 299  : 	while( !strOtherMetaTexts.IsEmpty())

  0022b	0f 85 3f fe ff
	ff		 jne	 $LL2@GetMultipl
$LN3@GetMultipl:

; 314  : 	}
; 315  : 
; 316  : 	return strMetaTexts;

  00231	8d 4d f0	 lea	 ecx, DWORD PTR _strItemOrg$[ebp]
  00234	ff 15 00 00 00
	00		 call	 DWORD PTR __imp_??1?$CStringT@DV?$StrTraitMFC_DLL@DV?$ChTraitsCRT@D@ATL@@@@@ATL@@QAE@XZ
  0023a	8d 4d ec	 lea	 ecx, DWORD PTR _strItem$[ebp]
  0023d	ff 15 00 00 00
	00		 call	 DWORD PTR __imp_??1?$CStringT@DV?$StrTraitMFC_DLL@DV?$ChTraitsCRT@D@ATL@@@@@ATL@@QAE@XZ
  00243	8d 4d 10	 lea	 ecx, DWORD PTR _strOtherMetaTexts$[ebp]
  00246	ff 15 00 00 00
	00		 call	 DWORD PTR __imp_??1?$CStringT@DV?$StrTraitMFC_DLL@DV?$ChTraitsCRT@D@ATL@@@@@ATL@@QAE@XZ
  0024c	8d 4d 14	 lea	 ecx, DWORD PTR _strSeperators$[ebp]
  0024f	ff 15 00 00 00
	00		 call	 DWORD PTR __imp_??1?$CStringT@DV?$StrTraitMFC_DLL@DV?$ChTraitsCRT@D@ATL@@@@@ATL@@QAE@XZ
  00255	8b c3		 mov	 eax, ebx

; 317  : }

  00257	8b 4d f4	 mov	 ecx, DWORD PTR __$EHRec$[ebp]
  0025a	64 89 0d 00 00
	00 00		 mov	 DWORD PTR fs:0, ecx
  00261	59		 pop	 ecx
  00262	5f		 pop	 edi
  00263	5e		 pop	 esi
  00264	5b		 pop	 ebx
  00265	8b e5		 mov	 esp, ebp
  00267	5d		 pop	 ebp
  00268	c2 18 00	 ret	 24			; 00000018H
_TEXT	ENDS
;	COMDAT text$x
text$x	SEGMENT
__unwindfunclet$?GetMultipleMetaTextFromOther@IMetaTable@@QAE?AV?$CStringT@DV?$StrTraitMFC_DLL@DV?$ChTraitsCRT@D@ATL@@@@@ATL@@PAUHWND__@@V23@1HH@Z$0:
  00000	8d 4d 14	 lea	 ecx, DWORD PTR _strSeperators$[ebp]
  00003	ff 25 00 00 00
	00		 jmp	 DWORD PTR __imp_??1?$CStringT@DV?$StrTraitMFC_DLL@DV?$ChTraitsCRT@D@ATL@@@@@ATL@@QAE@XZ
__unwindfunclet$?GetMultipleMetaTextFromOther@IMetaTable@@QAE?AV?$CStringT@DV?$StrTraitMFC_DLL@DV?$ChTraitsCRT@D@ATL@@@@@ATL@@PAUHWND__@@V23@1HH@Z$1:
  00009	8d 4d 10	 lea	 ecx, DWORD PTR _strOtherMetaTexts$[ebp]
  0000c	ff 25 00 00 00
	00		 jmp	 DWORD PTR __imp_??1?$CStringT@DV?$StrTraitMFC_DLL@DV?$ChTraitsCRT@D@ATL@@@@@ATL@@QAE@XZ
__unwindfunclet$?GetMultipleMetaTextFromOther@IMetaTable@@QAE?AV?$CStringT@DV?$StrTraitMFC_DLL@DV?$ChTraitsCRT@D@ATL@@@@@ATL@@PAUHWND__@@V23@1HH@Z$2:
  00012	8b 45 e8	 mov	 eax, DWORD PTR $T5[ebp]
  00015	83 e0 01	 and	 eax, 1
  00018	0f 84 0d 00 00
	00		 je	 $LN10@GetMultipl
  0001e	83 65 e8 fe	 and	 DWORD PTR $T5[ebp], -2	; fffffffeH
  00022	8b 4d 08	 mov	 ecx, DWORD PTR ___$ReturnUdt$[ebp]
  00025	ff 25 00 00 00
	00		 jmp	 DWORD PTR __imp_??1?$CStringT@DV?$StrTraitMFC_DLL@DV?$ChTraitsCRT@D@ATL@@@@@ATL@@QAE@XZ
$LN10@GetMultipl:
  0002b	c3		 ret	 0
__unwindfunclet$?GetMultipleMetaTextFromOther@IMetaTable@@QAE?AV?$CStringT@DV?$StrTraitMFC_DLL@DV?$ChTraitsCRT@D@ATL@@@@@ATL@@PAUHWND__@@V23@1HH@Z$3:
  0002c	8d 4d ec	 lea	 ecx, DWORD PTR _strItem$[ebp]
  0002f	ff 25 00 00 00
	00		 jmp	 DWORD PTR __imp_??1?$CStringT@DV?$StrTraitMFC_DLL@DV?$ChTraitsCRT@D@ATL@@@@@ATL@@QAE@XZ
__unwindfunclet$?GetMultipleMetaTextFromOther@IMetaTable@@QAE?AV?$CStringT@DV?$StrTraitMFC_DLL@DV?$ChTraitsCRT@D@ATL@@@@@ATL@@PAUHWND__@@V23@1HH@Z$4:
  00035	8d 4d f0	 lea	 ecx, DWORD PTR _strItemOrg$[ebp]
  00038	ff 25 00 00 00
	00		 jmp	 DWORD PTR __imp_??1?$CStringT@DV?$StrTraitMFC_DLL@DV?$ChTraitsCRT@D@ATL@@@@@ATL@@QAE@XZ
__unwindfunclet$?GetMultipleMetaTextFromOther@IMetaTable@@QAE?AV?$CStringT@DV?$StrTraitMFC_DLL@DV?$ChTraitsCRT@D@ATL@@@@@ATL@@PAUHWND__@@V23@1HH@Z$5:
  0003e	8d 4d 1c	 lea	 ecx, DWORD PTR $T6[ebp]
  00041	ff 25 00 00 00
	00		 jmp	 DWORD PTR __imp_??1?$CStringT@DV?$StrTraitMFC_DLL@DV?$ChTraitsCRT@D@ATL@@@@@ATL@@QAE@XZ
__unwindfunclet$?GetMultipleMetaTextFromOther@IMetaTable@@QAE?AV?$CStringT@DV?$StrTraitMFC_DLL@DV?$ChTraitsCRT@D@ATL@@@@@ATL@@PAUHWND__@@V23@1HH@Z$6:
  00047	8d 4d e4	 lea	 ecx, DWORD PTR $T4[ebp]
  0004a	ff 25 00 00 00
	00		 jmp	 DWORD PTR __imp_??1?$CStringT@DV?$StrTraitMFC_DLL@DV?$ChTraitsCRT@D@ATL@@@@@ATL@@QAE@XZ
__unwindfunclet$?GetMultipleMetaTextFromOther@IMetaTable@@QAE?AV?$CStringT@DV?$StrTraitMFC_DLL@DV?$ChTraitsCRT@D@ATL@@@@@ATL@@PAUHWND__@@V23@1HH@Z$7:
  00050	8d 4d e0	 lea	 ecx, DWORD PTR $T3[ebp]
  00053	ff 25 00 00 00
	00		 jmp	 DWORD PTR __imp_??1?$CStringT@DV?$StrTraitMFC_DLL@DV?$ChTraitsCRT@D@ATL@@@@@ATL@@QAE@XZ
__unwindfunclet$?GetMultipleMetaTextFromOther@IMetaTable@@QAE?AV?$CStringT@DV?$StrTraitMFC_DLL@DV?$ChTraitsCRT@D@ATL@@@@@ATL@@PAUHWND__@@V23@1HH@Z$8:
  00059	8d 4d dc	 lea	 ecx, DWORD PTR $T2[ebp]
  0005c	ff 25 00 00 00
	00		 jmp	 DWORD PTR __imp_??1?$CStringT@DV?$StrTraitMFC_DLL@DV?$ChTraitsCRT@D@ATL@@@@@ATL@@QAE@XZ
  00062	cc		 int	 3
  00063	cc		 int	 3
  00064	cc		 int	 3
  00065	cc		 int	 3
  00066	cc		 int	 3
__ehhandler$?GetMultipleMetaTextFromOther@IMetaTable@@QAE?AV?$CStringT@DV?$StrTraitMFC_DLL@DV?$ChTraitsCRT@D@ATL@@@@@ATL@@PAUHWND__@@V23@1HH@Z:
  00067	90		 npad	 1
  00068	90		 npad	 1
  00069	8b 54 24 08	 mov	 edx, DWORD PTR [esp+8]
  0006d	8d 42 0c	 lea	 eax, DWORD PTR [edx+12]
  00070	8b 4a d8	 mov	 ecx, DWORD PTR [edx-40]
  00073	33 c8		 xor	 ecx, eax
  00075	e8 00 00 00 00	 call	 @__security_check_cookie@4
  0007a	b8 00 00 00 00	 mov	 eax, OFFSET __ehfuncinfo$?GetMultipleMetaTextFromOther@IMetaTable@@QAE?AV?$CStringT@DV?$StrTraitMFC_DLL@DV?$ChTraitsCRT@D@ATL@@@@@ATL@@PAUHWND__@@V23@1HH@Z
  0007f	e9 00 00 00 00	 jmp	 ___CxxFrameHandler3
text$x	ENDS
?GetMultipleMetaTextFromOther@IMetaTable@@QAE?AV?$CStringT@DV?$StrTraitMFC_DLL@DV?$ChTraitsCRT@D@ATL@@@@@ATL@@PAUHWND__@@V23@1HH@Z ENDP ; IMetaTable::GetMultipleMetaTextFromOther
; Function compile flags: /Ogtp
; File D:\git\src\IBK\IBK_DRFN\ProjSrc\SrcChartEx\ChartOCX\Include_Chart\Dll_Load\IMetaTable.cpp
; File C:\Program Files (x86)\Microsoft Visual Studio\2019\Community\VC\Tools\MSVC\14.29.30133\atlmfc\include\atlsimpstr.h
; File D:\git\src\IBK\IBK_DRFN\ProjSrc\SrcChartEx\ChartOCX\Include_Chart\Dll_Load\IMetaTable.cpp
; File C:\Program Files (x86)\Microsoft Visual Studio\2019\Community\VC\Tools\MSVC\14.29.30133\atlmfc\include\atlsimpstr.h
; File D:\git\src\IBK\IBK_DRFN\ProjSrc\SrcChartEx\ChartOCX\Include_Chart\Dll_Load\IMetaTable.cpp
; File C:\Program Files (x86)\Microsoft Visual Studio\2019\Community\VC\Tools\MSVC\14.29.30133\atlmfc\include\atlsimpstr.h
; File D:\git\src\IBK\IBK_DRFN\ProjSrc\SrcChartEx\ChartOCX\Include_Chart\Dll_Load\IMetaTable.cpp
; File C:\Program Files (x86)\Microsoft Visual Studio\2019\Community\VC\Tools\MSVC\14.29.30133\atlmfc\include\atlsimpstr.h
; File D:\git\src\IBK\IBK_DRFN\ProjSrc\SrcChartEx\ChartOCX\Include_Chart\Dll_Load\IMetaTable.cpp
; File D:\git\src\IBK\IBK_DRFN\ProjSrc\SrcChartEx\ChartOCX\Include_Chart\Dll_Load\IMetaTable.h
; File D:\git\src\IBK\IBK_DRFN\ProjSrc\SrcChartEx\ChartOCX\Include_Chart\Dll_Load\IMetaTable.cpp
; File C:\Program Files (x86)\Microsoft Visual Studio\2019\Community\VC\Tools\MSVC\14.29.30133\atlmfc\include\atlsimpstr.h
; File D:\git\src\IBK\IBK_DRFN\ProjSrc\SrcChartEx\ChartOCX\Include_Chart\Dll_Load\IMetaTable.cpp
; File D:\git\src\IBK\IBK_DRFN\ProjSrc\SrcChartEx\ChartOCX\Include_Chart\Dll_Load\IMetaTable.h
; File C:\Program Files (x86)\Microsoft Visual Studio\2019\Community\VC\Tools\MSVC\14.29.30133\atlmfc\include\atlsimpstr.h
; File D:\git\src\IBK\IBK_DRFN\ProjSrc\SrcChartEx\ChartOCX\Include_Chart\Dll_Load\IMetaTable.h
; File D:\git\src\IBK\IBK_DRFN\ProjSrc\SrcChartEx\ChartOCX\Include_Chart\Dll_Load\IMetaTable.cpp
; File C:\Program Files (x86)\Microsoft Visual Studio\2019\Community\VC\Tools\MSVC\14.29.30133\atlmfc\include\atlsimpstr.h
; File D:\git\src\IBK\IBK_DRFN\ProjSrc\SrcChartEx\ChartOCX\Include_Chart\Dll_Load\IMetaTable.cpp
; File C:\Program Files (x86)\Microsoft Visual Studio\2019\Community\VC\Tools\MSVC\14.29.30133\atlmfc\include\atlsimpstr.h
; File D:\git\src\IBK\IBK_DRFN\ProjSrc\SrcChartEx\ChartOCX\Include_Chart\Dll_Load\IMetaTable.cpp
;	COMDAT ?GetMultipleLanguageText@IMetaTable@@QAE?AV?$CStringT@DV?$StrTraitMFC_DLL@DV?$ChTraitsCRT@D@ATL@@@@@ATL@@PAUHWND__@@V23@1HH@Z
_TEXT	SEGMENT
$T2 = -36						; size = 4
$T3 = -32						; size = 4
$T4 = -28						; size = 4
$T5 = -24						; size = 4
_strItem$ = -20						; size = 4
_strItemOrg$ = -16					; size = 4
__$EHRec$ = -12						; size = 12
___$ReturnUdt$ = 8					; size = 4
_p_hOcxWnd$ = 12					; size = 4
_strMetaTexts$ = 16					; size = 4
_strSeperators$ = 20					; size = 4
_nCodePage1$ = 24					; size = 4
$T6 = 28						; size = 4
_nCodePage2$ = 28					; size = 4
?GetMultipleLanguageText@IMetaTable@@QAE?AV?$CStringT@DV?$StrTraitMFC_DLL@DV?$ChTraitsCRT@D@ATL@@@@@ATL@@PAUHWND__@@V23@1HH@Z PROC ; IMetaTable::GetMultipleLanguageText, COMDAT
; _this$ = ecx

; 272  : {

  00000	55		 push	 ebp
  00001	8b ec		 mov	 ebp, esp
  00003	6a ff		 push	 -1
  00005	68 00 00 00 00	 push	 __ehhandler$?GetMultipleLanguageText@IMetaTable@@QAE?AV?$CStringT@DV?$StrTraitMFC_DLL@DV?$ChTraitsCRT@D@ATL@@@@@ATL@@PAUHWND__@@V23@1HH@Z
  0000a	64 a1 00 00 00
	00		 mov	 eax, DWORD PTR fs:0
  00010	50		 push	 eax
  00011	83 ec 18	 sub	 esp, 24			; 00000018H
  00014	53		 push	 ebx
  00015	56		 push	 esi
  00016	57		 push	 edi
  00017	a1 00 00 00 00	 mov	 eax, DWORD PTR ___security_cookie
  0001c	33 c5		 xor	 eax, ebp
  0001e	50		 push	 eax
  0001f	8d 45 f4	 lea	 eax, DWORD PTR __$EHRec$[ebp]
  00022	64 a3 00 00 00
	00		 mov	 DWORD PTR fs:0, eax
  00028	c7 45 e8 00 00
	00 00		 mov	 DWORD PTR $T5[ebp], 0
  0002f	c7 45 fc 01 00
	00 00		 mov	 DWORD PTR __$EHRec$[ebp+8], 1

; 273  : 	CString strLanguageTexts, strItem, strItemOrg;

  00036	8b 5d 08	 mov	 ebx, DWORD PTR ___$ReturnUdt$[ebp]
  00039	8b cb		 mov	 ecx, ebx
  0003b	ff 15 00 00 00
	00		 call	 DWORD PTR __imp_??0?$CStringT@DV?$StrTraitMFC_DLL@DV?$ChTraitsCRT@D@ATL@@@@@ATL@@QAE@XZ

; 290  : 	}
; 291  : 
; 292  : 	return strLanguageTexts;

  00041	8d 4d ec	 lea	 ecx, DWORD PTR _strItem$[ebp]
  00044	c7 45 e8 01 00
	00 00		 mov	 DWORD PTR $T5[ebp], 1
  0004b	ff 15 00 00 00
	00		 call	 DWORD PTR __imp_??0?$CStringT@DV?$StrTraitMFC_DLL@DV?$ChTraitsCRT@D@ATL@@@@@ATL@@QAE@XZ
  00051	8d 4d f0	 lea	 ecx, DWORD PTR _strItemOrg$[ebp]
  00054	ff 15 00 00 00
	00		 call	 DWORD PTR __imp_??0?$CStringT@DV?$StrTraitMFC_DLL@DV?$ChTraitsCRT@D@ATL@@@@@ATL@@QAE@XZ
; File C:\Program Files (x86)\Microsoft Visual Studio\2019\Community\VC\Tools\MSVC\14.29.30133\atlmfc\include\atlsimpstr.h

; 519  : 		return( GetData()->nDataLength );

  0005a	8b 45 10	 mov	 eax, DWORD PTR _strMetaTexts$[ebp]
; File D:\git\src\IBK\IBK_DRFN\ProjSrc\SrcChartEx\ChartOCX\Include_Chart\Dll_Load\IMetaTable.cpp

; 273  : 	CString strLanguageTexts, strItem, strItemOrg;

  0005d	c6 45 fc 04	 mov	 BYTE PTR __$EHRec$[ebp+8], 4
; File C:\Program Files (x86)\Microsoft Visual Studio\2019\Community\VC\Tools\MSVC\14.29.30133\atlmfc\include\atlsimpstr.h

; 533  : 		return( GetLength() == 0 );

  00061	83 78 f4 00	 cmp	 DWORD PTR [eax-12], 0
; File D:\git\src\IBK\IBK_DRFN\ProjSrc\SrcChartEx\ChartOCX\Include_Chart\Dll_Load\IMetaTable.cpp

; 275  : 	while( !strMetaTexts.IsEmpty())

  00065	0f 84 c6 01 00
	00		 je	 $LN3@GetMultipl
  0006b	8b 7d 1c	 mov	 edi, DWORD PTR _nCodePage2$[ebp]
  0006e	66 90		 npad	 2
$LL2@GetMultipl:

; 276  : 	{
; 277  : 		strItemOrg = strMetaTexts.SpanExcluding( strSeperators);

  00070	ff 75 14	 push	 DWORD PTR _strSeperators$[ebp]
  00073	8d 45 1c	 lea	 eax, DWORD PTR $T6[ebp]
  00076	50		 push	 eax
  00077	8d 4d 10	 lea	 ecx, DWORD PTR _strMetaTexts$[ebp]
  0007a	ff 15 00 00 00
	00		 call	 DWORD PTR __imp_?SpanExcluding@?$CStringT@DV?$StrTraitMFC_DLL@DV?$ChTraitsCRT@D@ATL@@@@@ATL@@QBE?AV12@PBD@Z
  00080	50		 push	 eax
  00081	8d 4d f0	 lea	 ecx, DWORD PTR _strItemOrg$[ebp]
  00084	c6 45 fc 05	 mov	 BYTE PTR __$EHRec$[ebp+8], 5
  00088	ff 15 00 00 00
	00		 call	 DWORD PTR __imp_??4?$CStringT@DV?$StrTraitMFC_DLL@DV?$ChTraitsCRT@D@ATL@@@@@ATL@@QAEAAV01@ABV01@@Z
  0008e	8d 4d 1c	 lea	 ecx, DWORD PTR $T6[ebp]
  00091	c6 45 fc 04	 mov	 BYTE PTR __$EHRec$[ebp+8], 4
  00095	ff 15 00 00 00
	00		 call	 DWORD PTR __imp_??1?$CStringT@DV?$StrTraitMFC_DLL@DV?$ChTraitsCRT@D@ATL@@@@@ATL@@QAE@XZ
; File C:\Program Files (x86)\Microsoft Visual Studio\2019\Community\VC\Tools\MSVC\14.29.30133\atlmfc\include\atlsimpstr.h

; 519  : 		return( GetData()->nDataLength );

  0009b	8b 45 f0	 mov	 eax, DWORD PTR _strItemOrg$[ebp]
; File D:\git\src\IBK\IBK_DRFN\ProjSrc\SrcChartEx\ChartOCX\Include_Chart\Dll_Load\IMetaTable.cpp

; 278  : 		strMetaTexts = strMetaTexts.Mid( strItemOrg.GetLength());

  0009e	8d 4d 10	 lea	 ecx, DWORD PTR _strMetaTexts$[ebp]
  000a1	ff 70 f4	 push	 DWORD PTR [eax-12]
  000a4	8d 45 e4	 lea	 eax, DWORD PTR $T4[ebp]
  000a7	50		 push	 eax
  000a8	ff 15 00 00 00
	00		 call	 DWORD PTR __imp_?Mid@?$CStringT@DV?$StrTraitMFC_DLL@DV?$ChTraitsCRT@D@ATL@@@@@ATL@@QBE?AV12@H@Z
  000ae	50		 push	 eax
  000af	8d 4d 10	 lea	 ecx, DWORD PTR _strMetaTexts$[ebp]
  000b2	c6 45 fc 06	 mov	 BYTE PTR __$EHRec$[ebp+8], 6
  000b6	ff 15 00 00 00
	00		 call	 DWORD PTR __imp_??4?$CStringT@DV?$StrTraitMFC_DLL@DV?$ChTraitsCRT@D@ATL@@@@@ATL@@QAEAAV01@ABV01@@Z
  000bc	8d 4d e4	 lea	 ecx, DWORD PTR $T4[ebp]
  000bf	c6 45 fc 04	 mov	 BYTE PTR __$EHRec$[ebp+8], 4
  000c3	ff 15 00 00 00
	00		 call	 DWORD PTR __imp_??1?$CStringT@DV?$StrTraitMFC_DLL@DV?$ChTraitsCRT@D@ATL@@@@@ATL@@QAE@XZ
; File C:\Program Files (x86)\Microsoft Visual Studio\2019\Community\VC\Tools\MSVC\14.29.30133\atlmfc\include\atlsimpstr.h

; 519  : 		return( GetData()->nDataLength );

  000c9	8b 75 f0	 mov	 esi, DWORD PTR _strItemOrg$[ebp]

; 533  : 		return( GetLength() == 0 );

  000cc	83 7e f4 00	 cmp	 DWORD PTR [esi-12], 0
; File D:\git\src\IBK\IBK_DRFN\ProjSrc\SrcChartEx\ChartOCX\Include_Chart\Dll_Load\IMetaTable.cpp

; 279  : 		if( !strItemOrg.IsEmpty())

  000d0	0f 84 e9 00 00
	00		 je	 $LN4@GetMultipl
; File D:\git\src\IBK\IBK_DRFN\ProjSrc\SrcChartEx\ChartOCX\Include_Chart\Dll_Load\IMetaTable.h

; 929  : 	DECLARE_FUNCTION4(	GetLanguageText_,				const char *, NULL, HWND, E_CODEPAGE, const char *, BOOL);

  000d6	a1 04 00 00 00	 mov	 eax, DWORD PTR ?g_iMetaTable@@3VIMetaTable@@A+4
  000db	85 c0		 test	 eax, eax
  000dd	74 50		 je	 SHORT $LN43@GetMultipl
  000df	b9 80 0d 00 00	 mov	 ecx, 3456		; 00000d80H
  000e4	66 3b 0d 64 00
	00 00		 cmp	 cx, WORD PTR ?g_iMetaTable@@3VIMetaTable@@A+100
  000eb	74 29		 je	 SHORT $LN71@GetMultipl
  000ed	68 00 00 00 00	 push	 OFFSET ??_C@_0BB@NKBMALGK@GetLanguageText_@
  000f2	50		 push	 eax
  000f3	c7 05 60 00 00
	00 00 00 00 00	 mov	 DWORD PTR ?g_iMetaTable@@3VIMetaTable@@A+96, 0
  000fd	ff 15 00 00 00
	00		 call	 DWORD PTR __imp__GetProcAddress@8
  00103	b9 80 0d 00 00	 mov	 ecx, 3456		; 00000d80H
  00108	a3 60 00 00 00	 mov	 DWORD PTR ?g_iMetaTable@@3VIMetaTable@@A+96, eax
  0010d	66 89 0d 64 00
	00 00		 mov	 WORD PTR ?g_iMetaTable@@3VIMetaTable@@A+100, cx
  00114	eb 05		 jmp	 SHORT $LN42@GetMultipl
$LN71@GetMultipl:
  00116	a1 60 00 00 00	 mov	 eax, DWORD PTR ?g_iMetaTable@@3VIMetaTable@@A+96
$LN42@GetMultipl:
  0011b	85 c0		 test	 eax, eax
  0011d	74 10		 je	 SHORT $LN43@GetMultipl
  0011f	6a 01		 push	 1
  00121	56		 push	 esi
  00122	ff 75 18	 push	 DWORD PTR _nCodePage1$[ebp]
  00125	ff 75 0c	 push	 DWORD PTR _p_hOcxWnd$[ebp]
  00128	ff d0		 call	 eax
  0012a	83 c4 10	 add	 esp, 16			; 00000010H
  0012d	eb 02		 jmp	 SHORT $LN40@GetMultipl
$LN43@GetMultipl:
  0012f	33 c0		 xor	 eax, eax
$LN40@GetMultipl:
; File D:\git\src\IBK\IBK_DRFN\ProjSrc\SrcChartEx\ChartOCX\Include_Chart\Dll_Load\IMetaTable.cpp

; 281  : 			strItem = g_iMetaTable.GetLanguageText( p_hOcxWnd, ( IMetaTable::E_CODEPAGE)nCodePage1, strItemOrg, TRUE);

  00131	50		 push	 eax
  00132	8d 4d ec	 lea	 ecx, DWORD PTR _strItem$[ebp]
  00135	ff 15 00 00 00
	00		 call	 DWORD PTR __imp_??4?$CStringT@DV?$StrTraitMFC_DLL@DV?$ChTraitsCRT@D@ATL@@@@@ATL@@QAEAAV01@PBD@Z
; File C:\Program Files (x86)\Microsoft Visual Studio\2019\Community\VC\Tools\MSVC\14.29.30133\atlmfc\include\atlsimpstr.h

; 519  : 		return( GetData()->nDataLength );

  0013b	8b 45 ec	 mov	 eax, DWORD PTR _strItem$[ebp]

; 533  : 		return( GetLength() == 0 );

  0013e	83 78 f4 00	 cmp	 DWORD PTR [eax-12], 0
; File D:\git\src\IBK\IBK_DRFN\ProjSrc\SrcChartEx\ChartOCX\Include_Chart\Dll_Load\IMetaTable.cpp

; 282  : 			if( strItem.IsEmpty() && 0 <= nCodePage2)

  00142	75 6f		 jne	 SHORT $LN5@GetMultipl
  00144	85 ff		 test	 edi, edi
  00146	78 6b		 js	 SHORT $LN5@GetMultipl
; File D:\git\src\IBK\IBK_DRFN\ProjSrc\SrcChartEx\ChartOCX\Include_Chart\Dll_Load\IMetaTable.h

; 929  : 	DECLARE_FUNCTION4(	GetLanguageText_,				const char *, NULL, HWND, E_CODEPAGE, const char *, BOOL);

  00148	a1 04 00 00 00	 mov	 eax, DWORD PTR ?g_iMetaTable@@3VIMetaTable@@A+4
