; Listing generated by Microsoft (R) Optimizing Compiler Version 19.29.30145.0 

	TITLE	D:\git\src\IBK\IBK_DRFN\#DRfn-CS\_Obj\GraphDraw\BarDraw.obj
	.686P
	.XMM
	include listing.inc
	.model	flat

INCLUDELIB MSVCRT
INCLUDELIB OLDNAMES

PUBLIC	?__empty_global_delete@@YAXPAX@Z		; __empty_global_delete
PUBLIC	?__empty_global_delete@@YAXPAXI@Z		; __empty_global_delete
PUBLIC	??4CGraphDrawer@@QAEAAV0@ABV0@@Z		; CGraphDrawer::operator=
PUBLIC	??4CGraphDrawer@@QAEAAV0@$$QAV0@@Z		; CGraphDrawer::operator=
PUBLIC	??0CBarDraw@@QAE@XZ				; CBarDraw::CBarDraw
PUBLIC	??1CBarDraw@@UAE@XZ				; CBarDraw::~CBarDraw
PUBLIC	?DrawGraph@CBarDraw@@UAE_NPAVCDC@@ABVCRect@@ABVCDisplayAttributes@@ABVCDrawingGraphData@@ABVCSubGraphData@@@Z ; CBarDraw::DrawGraph
PUBLIC	?GetDrawingRegion@CBarDraw@@QBE?AVCRect@@PAVCPacket@@ABV2@ABV?$CStringT@DV?$StrTraitMFC_DLL@DV?$ChTraitsCRT@D@ATL@@@@@ATL@@HHABN3@Z ; CBarDraw::GetDrawingRegion
PUBLIC	?CheckBoxBarType@CBarDraw@@QAE_NPAVCPacket@@@Z	; CBarDraw::CheckBoxBarType
PUBLIC	?CreatePenAndBrush@CBarDraw@@IAEXABVCGraphColor@@AAVCPen@@11AAVCBrush@@22@Z ; CBarDraw::CreatePenAndBrush
PUBLIC	?SelectPenAndBrushObject@CBarDraw@@IAEXPAVCDC@@PAVCPen@@11PAVCBrush@@22ABVCGraphColor@@HHH@Z ; CBarDraw::SelectPenAndBrushObject
PUBLIC	?DoesVolumeDrawingType@CBarDraw@@IBE_NPAVCIndicatorInfo@@@Z ; CBarDraw::DoesVolumeDrawingType
PUBLIC	?DoesTextDrawing@CBarDraw@@IBE_NW4BARDRAWSTYLE@CGraphBaseData@@@Z ; CBarDraw::DoesTextDrawing
PUBLIC	?GetTextType@CBarDraw@@IBEHPBVCIndicatorInfo@@@Z ; CBarDraw::GetTextType
PUBLIC	?GetBarWidth@CBarDraw@@IAEXABVCRect@@HAANAAH@Z	; CBarDraw::GetBarWidth
PUBLIC	?GetDrawingText@CBarDraw@@IBE?AV?$CStringT@DV?$StrTraitMFC_DLL@DV?$ChTraitsCRT@D@ATL@@@@@ATL@@HABN0@Z ; CBarDraw::GetDrawingText
PUBLIC	?GetDrawType@CBarDraw@@IBEHPAVCIndicatorInfo@@_N@Z ; CBarDraw::GetDrawType
PUBLIC	?GetPacket@CBarDraw@@IBEPAVCPacket@@PAV2@ABV?$CStringT@DV?$StrTraitMFC_DLL@DV?$ChTraitsCRT@D@ATL@@@@@ATL@@@Z ; CBarDraw::GetPacket
PUBLIC	?GetTotalData@CBarDraw@@IBENPAV?$CList@NN@@H@Z	; CBarDraw::GetTotalData
PUBLIC	?GetDatasInPacket@CBarDraw@@IBE_NPAVCPacket@@00HAAHAAPAV?$CList@NN@@AAPAU__POSITION@@2323@Z ; CBarDraw::GetDatasInPacket
PUBLIC	?GetDatasInPacket@CBarDraw@@IBE_NPAVCPacket@@0HAAHAAPAV?$CList@NN@@AAPAU__POSITION@@23@Z ; CBarDraw::GetDatasInPacket
PUBLIC	?GetDatasInPacket@CBarDraw@@IBE_NPAVCPacket@@HAAHAAPAV?$CList@NN@@AAPAU__POSITION@@@Z ; CBarDraw::GetDatasInPacket
PUBLIC	?GetDatasInPacket@CBarDraw@@IBE_NPAVCPacket@@HAAPAV?$CList@NN@@AAPAU__POSITION@@@Z ; CBarDraw::GetDatasInPacket
PUBLIC	?GetPrevData@CBarDraw@@IBE_NPAV?$CList@NN@@ABQAU__POSITION@@HAAN@Z ; CBarDraw::GetPrevData
PUBLIC	?CreateBrushsAndPens@CBarDraw@@IAEXPAVCBrush@@PAVCPen@@ABVCGraphColor@@ABNABVCPenThickness@@_N@Z ; CBarDraw::CreateBrushsAndPens
PUBLIC	?DeleteBrushsAndPens@CBarDraw@@IAEXPAVCDC@@PAVCBrush@@PAVCPen@@12@Z ; CBarDraw::DeleteBrushsAndPens
PUBLIC	?SelectGdiObject_VolumeChart@CBarDraw@@IAEXPAVCDC@@ABN1ABVCGraphColor@@PAVCBrush@@PAVCPen@@@Z ; CBarDraw::SelectGdiObject_VolumeChart
PUBLIC	?SelectGdiObject_PriceChart@CBarDraw@@IAEXPAVCDC@@HABN11ABVCGraphColor@@PAVCBrush@@PAVCPen@@@Z ; CBarDraw::SelectGdiObject_PriceChart
PUBLIC	?SelectGdiObject_HighLow@CBarDraw@@IAEXPAVCDC@@_NHHPAVCBrush@@PAVCPen@@@Z ; CBarDraw::SelectGdiObject_HighLow
PUBLIC	?SelectGdiObject_Bohap@CBarDraw@@IAEXPAVCDC@@HABN1_NPAVCBrush@@PAVCPen@@@Z ; CBarDraw::SelectGdiObject_Bohap
PUBLIC	?SelectBrushObject@CBarDraw@@IAEXPAVCDC@@_NHPAVCBrush@@@Z ; CBarDraw::SelectBrushObject
PUBLIC	??_GCBarDraw@@UAEPAXI@Z				; CBarDraw::`scalar deleting destructor'
PUBLIC	?FindIndex@?$CList@NN@@QBEPAU__POSITION@@H@Z	; CList<double,double>::FindIndex
PUBLIC	??_7CBarDraw@@6B@				; CBarDraw::`vftable'
PUBLIC	??_C@_04JPADPDAI@?$CFs?$CF?$CF@			; `string'
PUBLIC	??_C@_02DKCKIIND@?$CFs@				; `string'
PUBLIC	??_C@_09CDDMKNBJ@?$CFs?$CF?$CF?5?$CI?$CFs?$CJ@	; `string'
PUBLIC	??_R4CBarDraw@@6B@				; CBarDraw::`RTTI Complete Object Locator'
PUBLIC	??_R0?AVCBarDraw@@@8				; CBarDraw `RTTI Type Descriptor'
PUBLIC	??_R3CBarDraw@@8				; CBarDraw::`RTTI Class Hierarchy Descriptor'
PUBLIC	??_R2CBarDraw@@8				; CBarDraw::`RTTI Base Class Array'
PUBLIC	??_R1A@?0A@EA@CBarDraw@@8			; CBarDraw::`RTTI Base Class Descriptor at (0,-1,0,64)'
PUBLIC	??_R1A@?0A@EA@CDraw@@8				; CDraw::`RTTI Base Class Descriptor at (0,-1,0,64)'
PUBLIC	??_R0?AVCDraw@@@8				; CDraw `RTTI Type Descriptor'
PUBLIC	??_R3CDraw@@8					; CDraw::`RTTI Class Hierarchy Descriptor'
PUBLIC	??_R2CDraw@@8					; CDraw::`RTTI Base Class Array'
PUBLIC	__real@0000000000000000
PUBLIC	__real@3fe999999999999a
PUBLIC	__real@4059000000000000
PUBLIC	__xmm@7fffffffffffffff7fffffffffffffff
EXTRN	??3@YAXPAXI@Z:PROC				; operator delete
EXTRN	__imp__CreatePen@12:PROC
EXTRN	__imp__CreateSolidBrush@4:PROC
EXTRN	__imp__GetStockObject@4:PROC
EXTRN	__imp__SelectObject@8:PROC
EXTRN	?AfxThrowInvalidArgException@@YGXXZ:PROC	; AfxThrowInvalidArgException
EXTRN	__imp_?Empty@?$CSimpleStringT@D$00@ATL@@QAEXXZ:PROC
EXTRN	__imp_??0?$CStringT@DV?$StrTraitMFC_DLL@DV?$ChTraitsCRT@D@ATL@@@@@ATL@@QAE@XZ:PROC
EXTRN	__imp_??0?$CStringT@DV?$StrTraitMFC_DLL@DV?$ChTraitsCRT@D@ATL@@@@@ATL@@QAE@ABV01@@Z:PROC
EXTRN	__imp_??0?$CStringT@DV?$StrTraitMFC_DLL@DV?$ChTraitsCRT@D@ATL@@@@@ATL@@QAE@PBD@Z:PROC
EXTRN	__imp_??1?$CStringT@DV?$StrTraitMFC_DLL@DV?$ChTraitsCRT@D@ATL@@@@@ATL@@QAE@XZ:PROC
EXTRN	__imp_?Compare@?$CStringT@DV?$StrTraitMFC_DLL@DV?$ChTraitsCRT@D@ATL@@@@@ATL@@QBEHPBD@Z:PROC
EXTRN	__imp_?Format@?$CStringT@DV?$StrTraitMFC_DLL@DV?$ChTraitsCRT@D@ATL@@@@@ATL@@QAAXPBDZZ:PROC
EXTRN	?Attach@CGdiObject@@QAEHPAX@Z:PROC		; CGdiObject::Attach
EXTRN	?DeleteObject@CGdiObject@@QAEHXZ:PROC		; CGdiObject::DeleteObject
EXTRN	?SelectObject@CDC@@QAEPAVCPen@@PAV2@@Z:PROC	; CDC::SelectObject
EXTRN	?SelectObject@CDC@@QAEPAVCBrush@@PAV2@@Z:PROC	; CDC::SelectObject
EXTRN	??0CDraw@@QAE@XZ:PROC				; CDraw::CDraw
EXTRN	??1CDraw@@UAE@XZ:PROC				; CDraw::~CDraw
EXTRN	?DrawGraph@CDraw@@UAE_NPAVCDC@@ABVCRect@@ABVCDisplayAttributes@@ABVCDrawingGraphData@@ABVCSubGraphData@@ABV?$CStringT@DV?$StrTraitMFC_DLL@DV?$ChTraitsCRT@D@ATL@@@@@ATL@@PAVCXScaleManager@@@Z:PROC ; CDraw::DrawGraph
EXTRN	?GetThickness@CDraw@@IBEHHABN@Z:PROC		; CDraw::GetThickness
EXTRN	?DoubleToString@CDataConversion@@SA?AV?$CStringT@DV?$StrTraitMFC_DLL@DV?$ChTraitsCRT@D@ATL@@@@@ATL@@ABN@Z:PROC ; CDataConversion::DoubleToString
EXTRN	?DoubleToString@CDataConversion@@SA?AV?$CStringT@DV?$StrTraitMFC_DLL@DV?$ChTraitsCRT@D@ATL@@@@@ATL@@ABNH@Z:PROC ; CDataConversion::DoubleToString
EXTRN	?GetStringThousandFormat@CDataConversion@@SA?AV?$CStringT@DV?$StrTraitMFC_DLL@DV?$ChTraitsCRT@D@ATL@@@@@ATL@@ABV23@@Z:PROC ; CDataConversion::GetStringThousandFormat
EXTRN	?RelativeToAbsolute_Y@CDataConversion@@SAHABVCRect@@ABN11@Z:PROC ; CDataConversion::RelativeToAbsolute_Y
EXTRN	__imp_?GetColor1@CGraphColor@@QBEKXZ:PROC
EXTRN	__imp_?GetColor2@CGraphColor@@QBEKXZ:PROC
EXTRN	__imp_?GetColor3@CGraphColor@@QBEKXZ:PROC
EXTRN	__imp_?GetColor4@CGraphColor@@QBEKXZ:PROC
EXTRN	__imp_?GetColor5@CGraphColor@@QBEKXZ:PROC
EXTRN	__imp_?GetColor6@CGraphColor@@QBEKXZ:PROC
EXTRN	__imp_?GetUpGraphFill@CGraphColor@@QBE_NXZ:PROC
EXTRN	__imp_?GetDownGraphFill@CGraphColor@@QBE_NXZ:PROC
EXTRN	__imp_?GetThickness1@CPenThickness@@QBEHXZ:PROC
EXTRN	__imp_?GetDrawingThickness1@CPenThickness@@QBEHXZ:PROC
EXTRN	__imp_?GetPacketList@CPacket@@QAEPAVCPacketList@@XZ:PROC
EXTRN	__imp_?GetDateUnitType@CPacket@@QAEHXZ:PROC
EXTRN	__imp_?GetStartPeriod@CPacket@@QAEHXZ:PROC
EXTRN	__imp_?GetnumericDataList@CPacket@@QAEPAV?$CList@NN@@XZ:PROC
EXTRN	__imp_?GetMinMax@CPacket@@QAEHHHAAN0H@Z:PROC
EXTRN	__imp_?GetBaseData@CPacketList@@QAEPAVCPacket@@V?$CStringT@DV?$StrTraitMFC_DLL@DV?$ChTraitsCRT@D@ATL@@@@@ATL@@_N@Z:PROC
EXTRN	__imp_?GetIndicatorName@CIndicatorInfo@@QBE?AV?$CStringT@DV?$StrTraitMFC_DLL@DV?$ChTraitsCRT@D@ATL@@@@@ATL@@XZ:PROC
EXTRN	__imp_?GetCommonCalConditionList@CIndicatorInfo@@QAEPAV?$CList@NN@@XZ:PROC
EXTRN	__imp_?GetDrawConditionList@CIndicatorInfo@@QBEPAV?$CList@NN@@XZ:PROC
EXTRN	__imp_?GetDrawConditionList@CIndicatorInfo@@QAEPAV?$CList@NN@@XZ:PROC
EXTRN	??_ECBarDraw@@UAEPAXI@Z:PROC			; CBarDraw::`vector deleting destructor'
EXTRN	?IsDrawGroup_VolumeType@IMetaTable@@QAE_NABV?$CStringT@DV?$StrTraitMFC_DLL@DV?$ChTraitsCRT@D@ATL@@@@@ATL@@@Z:PROC ; IMetaTable::IsDrawGroup_VolumeType
EXTRN	@__security_check_cookie@4:PROC
EXTRN	___CxxFrameHandler3:PROC
EXTRN	??_7type_info@@6B@:QWORD			; type_info::`vftable'
EXTRN	?g_iMetaTable@@3VIMetaTable@@A:BYTE		; g_iMetaTable
EXTRN	___security_cookie:DWORD
EXTRN	__fltused:DWORD
;	COMDAT __xmm@7fffffffffffffff7fffffffffffffff
CONST	SEGMENT
__xmm@7fffffffffffffff7fffffffffffffff DB 0ffH, 0ffH, 0ffH, 0ffH, 0ffH, 0ffH
	DB	0ffH, 07fH, 0ffH, 0ffH, 0ffH, 0ffH, 0ffH, 0ffH, 0ffH, 07fH
CONST	ENDS
;	COMDAT __real@4059000000000000
CONST	SEGMENT
__real@4059000000000000 DQ 04059000000000000r	; 100
CONST	ENDS
;	COMDAT __real@3fe999999999999a
CONST	SEGMENT
__real@3fe999999999999a DQ 03fe999999999999ar	; 0.8
CONST	ENDS
;	COMDAT __real@0000000000000000
CONST	SEGMENT
__real@0000000000000000 DQ 00000000000000000r	; 0
CONST	ENDS
;	COMDAT ??_R2CDraw@@8
rdata$r	SEGMENT
??_R2CDraw@@8 DD FLAT:??_R1A@?0A@EA@CDraw@@8		; CDraw::`RTTI Base Class Array'
rdata$r	ENDS
;	COMDAT ??_R3CDraw@@8
rdata$r	SEGMENT
??_R3CDraw@@8 DD 00H					; CDraw::`RTTI Class Hierarchy Descriptor'
	DD	00H
	DD	01H
	DD	FLAT:??_R2CDraw@@8
rdata$r	ENDS
;	COMDAT ??_R0?AVCDraw@@@8
data$rs	SEGMENT
??_R0?AVCDraw@@@8 DD FLAT:??_7type_info@@6B@		; CDraw `RTTI Type Descriptor'
	DD	00H
	DB	'.?AVCDraw@@', 00H
data$rs	ENDS
;	COMDAT ??_R1A@?0A@EA@CDraw@@8
rdata$r	SEGMENT
??_R1A@?0A@EA@CDraw@@8 DD FLAT:??_R0?AVCDraw@@@8	; CDraw::`RTTI Base Class Descriptor at (0,-1,0,64)'
	DD	00H
	DD	00H
	DD	0ffffffffH
	DD	00H
	DD	040H
	DD	FLAT:??_R3CDraw@@8
rdata$r	ENDS
;	COMDAT ??_R1A@?0A@EA@CBarDraw@@8
rdata$r	SEGMENT
??_R1A@?0A@EA@CBarDraw@@8 DD FLAT:??_R0?AVCBarDraw@@@8	; CBarDraw::`RTTI Base Class Descriptor at (0,-1,0,64)'
	DD	01H
	DD	00H
	DD	0ffffffffH
	DD	00H
	DD	040H
	DD	FLAT:??_R3CBarDraw@@8
rdata$r	ENDS
;	COMDAT ??_R2CBarDraw@@8
rdata$r	SEGMENT
??_R2CBarDraw@@8 DD FLAT:??_R1A@?0A@EA@CBarDraw@@8	; CBarDraw::`RTTI Base Class Array'
	DD	FLAT:??_R1A@?0A@EA@CDraw@@8
rdata$r	ENDS
;	COMDAT ??_R3CBarDraw@@8
rdata$r	SEGMENT
??_R3CBarDraw@@8 DD 00H					; CBarDraw::`RTTI Class Hierarchy Descriptor'
	DD	00H
	DD	02H
	DD	FLAT:??_R2CBarDraw@@8
rdata$r	ENDS
;	COMDAT ??_R0?AVCBarDraw@@@8
data$rs	SEGMENT
??_R0?AVCBarDraw@@@8 DD FLAT:??_7type_info@@6B@		; CBarDraw `RTTI Type Descriptor'
	DD	00H
	DB	'.?AVCBarDraw@@', 00H
data$rs	ENDS
;	COMDAT ??_R4CBarDraw@@6B@
rdata$r	SEGMENT
??_R4CBarDraw@@6B@ DD 00H				; CBarDraw::`RTTI Complete Object Locator'
	DD	00H
	DD	00H
	DD	FLAT:??_R0?AVCBarDraw@@@8
	DD	FLAT:??_R3CBarDraw@@8
rdata$r	ENDS
;	COMDAT ??_C@_09CDDMKNBJ@?$CFs?$CF?$CF?5?$CI?$CFs?$CJ@
CONST	SEGMENT
??_C@_09CDDMKNBJ@?$CFs?$CF?$CF?5?$CI?$CFs?$CJ@ DB '%s%% (%s)', 00H ; `string'
CONST	ENDS
;	COMDAT ??_C@_02DKCKIIND@?$CFs@
CONST	SEGMENT
??_C@_02DKCKIIND@?$CFs@ DB '%s', 00H			; `string'
CONST	ENDS
;	COMDAT ??_C@_04JPADPDAI@?$CFs?$CF?$CF@
CONST	SEGMENT
??_C@_04JPADPDAI@?$CFs?$CF?$CF@ DB '%s%%', 00H		; `string'
CONST	ENDS
;	COMDAT ??_7CBarDraw@@6B@
CONST	SEGMENT
??_7CBarDraw@@6B@ DD FLAT:??_R4CBarDraw@@6B@		; CBarDraw::`vftable'
	DD	FLAT:??_ECBarDraw@@UAEPAXI@Z
	DD	FLAT:?DrawGraph@CDraw@@UAE_NPAVCDC@@ABVCRect@@ABVCDisplayAttributes@@ABVCDrawingGraphData@@ABVCSubGraphData@@ABV?$CStringT@DV?$StrTraitMFC_DLL@DV?$ChTraitsCRT@D@ATL@@@@@ATL@@PAVCXScaleManager@@@Z
	DD	FLAT:?DrawGraph@CBarDraw@@UAE_NPAVCDC@@ABVCRect@@ABVCDisplayAttributes@@ABVCDrawingGraphData@@ABVCSubGraphData@@@Z
CONST	ENDS
;	COMDAT xdata$x
xdata$x	SEGMENT
__ehfuncinfo$?GetDrawingText@CBarDraw@@IBE?AV?$CStringT@DV?$StrTraitMFC_DLL@DV?$ChTraitsCRT@D@ATL@@@@@ATL@@HABN0@Z DD 019930522H
	DD	07H
	DD	FLAT:__unwindtable$?GetDrawingText@CBarDraw@@IBE?AV?$CStringT@DV?$StrTraitMFC_DLL@DV?$ChTraitsCRT@D@ATL@@@@@ATL@@HABN0@Z
	DD	2 DUP(00H)
	DD	2 DUP(00H)
	DD	00H
	DD	01H
__unwindtable$?GetDrawingText@CBarDraw@@IBE?AV?$CStringT@DV?$StrTraitMFC_DLL@DV?$ChTraitsCRT@D@ATL@@@@@ATL@@HABN0@Z DD 0ffffffffH
	DD	FLAT:__unwindfunclet$?GetDrawingText@CBarDraw@@IBE?AV?$CStringT@DV?$StrTraitMFC_DLL@DV?$ChTraitsCRT@D@ATL@@@@@ATL@@HABN0@Z$0
	DD	00H
	DD	FLAT:__unwindfunclet$?GetDrawingText@CBarDraw@@IBE?AV?$CStringT@DV?$StrTraitMFC_DLL@DV?$ChTraitsCRT@D@ATL@@@@@ATL@@HABN0@Z$1
	DD	00H
	DD	FLAT:__unwindfunclet$?GetDrawingText@CBarDraw@@IBE?AV?$CStringT@DV?$StrTraitMFC_DLL@DV?$ChTraitsCRT@D@ATL@@@@@ATL@@HABN0@Z$2
	DD	02H
	DD	FLAT:__unwindfunclet$?GetDrawingText@CBarDraw@@IBE?AV?$CStringT@DV?$StrTraitMFC_DLL@DV?$ChTraitsCRT@D@ATL@@@@@ATL@@HABN0@Z$3
	DD	00H
	DD	FLAT:__unwindfunclet$?GetDrawingText@CBarDraw@@IBE?AV?$CStringT@DV?$StrTraitMFC_DLL@DV?$ChTraitsCRT@D@ATL@@@@@ATL@@HABN0@Z$4
	DD	04H
	DD	FLAT:__unwindfunclet$?GetDrawingText@CBarDraw@@IBE?AV?$CStringT@DV?$StrTraitMFC_DLL@DV?$ChTraitsCRT@D@ATL@@@@@ATL@@HABN0@Z$5
	DD	05H
	DD	FLAT:__unwindfunclet$?GetDrawingText@CBarDraw@@IBE?AV?$CStringT@DV?$StrTraitMFC_DLL@DV?$ChTraitsCRT@D@ATL@@@@@ATL@@HABN0@Z$6
xdata$x	ENDS
;	COMDAT xdata$x
xdata$x	SEGMENT
__unwindtable$?GetTextType@CBarDraw@@IBEHPBVCIndicatorInfo@@@Z DD 0ffffffffH
	DD	FLAT:__unwindfunclet$?GetTextType@CBarDraw@@IBEHPBVCIndicatorInfo@@@Z$0
__ehfuncinfo$?GetTextType@CBarDraw@@IBEHPBVCIndicatorInfo@@@Z DD 019930522H
	DD	01H
	DD	FLAT:__unwindtable$?GetTextType@CBarDraw@@IBEHPBVCIndicatorInfo@@@Z
	DD	2 DUP(00H)
	DD	2 DUP(00H)
	DD	00H
	DD	01H
xdata$x	ENDS
;	COMDAT xdata$x
xdata$x	SEGMENT
__unwindtable$?DoesVolumeDrawingType@CBarDraw@@IBE_NPAVCIndicatorInfo@@@Z DD 0ffffffffH
	DD	FLAT:__unwindfunclet$?DoesVolumeDrawingType@CBarDraw@@IBE_NPAVCIndicatorInfo@@@Z$0
__ehfuncinfo$?DoesVolumeDrawingType@CBarDraw@@IBE_NPAVCIndicatorInfo@@@Z DD 019930522H
	DD	01H
	DD	FLAT:__unwindtable$?DoesVolumeDrawingType@CBarDraw@@IBE_NPAVCIndicatorInfo@@@Z
	DD	2 DUP(00H)
	DD	2 DUP(00H)
	DD	00H
	DD	01H
xdata$x	ENDS
;	COMDAT xdata$x
xdata$x	SEGMENT
__unwindtable$?GetDrawingRegion@CBarDraw@@QBE?AVCRect@@PAVCPacket@@ABV2@ABV?$CStringT@DV?$StrTraitMFC_DLL@DV?$ChTraitsCRT@D@ATL@@@@@ATL@@HHABN3@Z DD 0ffffffffH
	DD	FLAT:__unwindfunclet$?GetDrawingRegion@CBarDraw@@QBE?AVCRect@@PAVCPacket@@ABV2@ABV?$CStringT@DV?$StrTraitMFC_DLL@DV?$ChTraitsCRT@D@ATL@@@@@ATL@@HHABN3@Z$0
__ehfuncinfo$?GetDrawingRegion@CBarDraw@@QBE?AVCRect@@PAVCPacket@@ABV2@ABV?$CStringT@DV?$StrTraitMFC_DLL@DV?$ChTraitsCRT@D@ATL@@@@@ATL@@HHABN3@Z DD 019930522H
	DD	01H
	DD	FLAT:__unwindtable$?GetDrawingRegion@CBarDraw@@QBE?AVCRect@@PAVCPacket@@ABV2@ABV?$CStringT@DV?$StrTraitMFC_DLL@DV?$ChTraitsCRT@D@ATL@@@@@ATL@@HHABN3@Z
	DD	2 DUP(00H)
	DD	2 DUP(00H)
	DD	00H
	DD	01H
xdata$x	ENDS
; Function compile flags: /Ogtp
; File C:\Program Files (x86)\Microsoft Visual Studio\2019\Community\VC\Tools\MSVC\14.29.30133\atlmfc\include\afxtempl.h
;	COMDAT ?FindIndex@?$CList@NN@@QBEPAU__POSITION@@H@Z
_TEXT	SEGMENT
_nIndex$ = 8						; size = 4
?FindIndex@?$CList@NN@@QBEPAU__POSITION@@H@Z PROC	; CList<double,double>::FindIndex, COMDAT
; _this$ = ecx

; 1130 : {

  00000	55		 push	 ebp
  00001	8b ec		 mov	 ebp, esp

; 1131 : 	ASSERT_VALID(this);
; 1132 : 
; 1133 : 	if (nIndex >= m_nCount || nIndex < 0)

  00003	8b 55 08	 mov	 edx, DWORD PTR _nIndex$[ebp]
  00006	3b 51 0c	 cmp	 edx, DWORD PTR [ecx+12]
  00009	7d 14		 jge	 SHORT $LN5@FindIndex
  0000b	85 d2		 test	 edx, edx
  0000d	78 10		 js	 SHORT $LN5@FindIndex

; 1135 : 
; 1136 : 	CNode* pNode = m_pNodeHead;

  0000f	8b 41 04	 mov	 eax, DWORD PTR [ecx+4]

; 1137 : 	while (nIndex--)

  00012	74 0d		 je	 SHORT $LN1@FindIndex
$LL2@FindIndex:

; 1138 : 	{
; 1139 : 		ASSERT(AfxIsValidAddress(pNode, sizeof(CNode)));
; 1140 : 		pNode = pNode->pNext;

  00014	8b 00		 mov	 eax, DWORD PTR [eax]
  00016	83 ea 01	 sub	 edx, 1
  00019	75 f9		 jne	 SHORT $LL2@FindIndex

; 1141 : 	}
; 1142 : 	return (POSITION) pNode;
; 1143 : }

  0001b	5d		 pop	 ebp
  0001c	c2 04 00	 ret	 4
$LN5@FindIndex:

; 1134 : 		return NULL;  // went too far

  0001f	33 c0		 xor	 eax, eax
$LN1@FindIndex:

; 1141 : 	}
; 1142 : 	return (POSITION) pNode;
; 1143 : }

  00021	5d		 pop	 ebp
  00022	c2 04 00	 ret	 4
?FindIndex@?$CList@NN@@QBEPAU__POSITION@@H@Z ENDP	; CList<double,double>::FindIndex
_TEXT	ENDS
; Function compile flags: /Ogtp
; File D:\git\src\IBK\IBK_DRFN\ProjSrc\SrcChartEx\ChartOCX\GraphDraw\BarDraw.cpp
;	COMDAT ??_GCBarDraw@@UAEPAXI@Z
_TEXT	SEGMENT
___flags$ = 8						; size = 4
??_GCBarDraw@@UAEPAXI@Z PROC				; CBarDraw::`scalar deleting destructor', COMDAT
; _this$ = ecx
  00000	55		 push	 ebp
  00001	8b ec		 mov	 ebp, esp

; 26   : {

  00003	56		 push	 esi
  00004	8b f1		 mov	 esi, ecx
  00006	c7 06 00 00 00
	00		 mov	 DWORD PTR [esi], OFFSET ??_7CBarDraw@@6B@

; 27   : }

  0000c	e8 00 00 00 00	 call	 ??1CDraw@@UAE@XZ	; CDraw::~CDraw
  00011	f6 45 08 01	 test	 BYTE PTR ___flags$[ebp], 1
  00015	74 0b		 je	 SHORT $LN7@scalar
  00017	6a 28		 push	 40			; 00000028H
  00019	56		 push	 esi
  0001a	e8 00 00 00 00	 call	 ??3@YAXPAXI@Z		; operator delete
  0001f	83 c4 08	 add	 esp, 8
$LN7@scalar:
  00022	8b c6		 mov	 eax, esi
  00024	5e		 pop	 esi
  00025	5d		 pop	 ebp
  00026	c2 04 00	 ret	 4
??_GCBarDraw@@UAEPAXI@Z ENDP				; CBarDraw::`scalar deleting destructor'
_TEXT	ENDS
; Function compile flags: /Ogtp
; File D:\git\src\IBK\IBK_DRFN\ProjSrc\SrcChartEx\ChartOCX\GraphDraw\BarDraw.cpp
; File C:\Program Files (x86)\Microsoft Visual Studio\2019\Community\VC\Tools\MSVC\14.29.30133\atlmfc\include\afxwin1.inl
; File D:\git\src\IBK\IBK_DRFN\ProjSrc\SrcChartEx\ChartOCX\GraphDraw\BarDraw.cpp
;	COMDAT ?SelectBrushObject@CBarDraw@@IAEXPAVCDC@@_NHPAVCBrush@@@Z
_TEXT	SEGMENT
_pDC$ = 8						; size = 4
_bFill$ = 12						; size = 1
_nIndex$ = 16						; size = 4
_pBrush$ = 20						; size = 4
?SelectBrushObject@CBarDraw@@IAEXPAVCDC@@_NHPAVCBrush@@@Z PROC ; CBarDraw::SelectBrushObject, COMDAT
; _this$ = ecx

; 440  : {

  00000	55		 push	 ebp
  00001	8b ec		 mov	 ebp, esp

; 441  : 	if(bFill){

  00003	80 7d 0c 00	 cmp	 BYTE PTR _bFill$[ebp], 0
  00007	8b 4d 10	 mov	 ecx, DWORD PTR _nIndex$[ebp]
  0000a	74 14		 je	 SHORT $LN2@SelectBrus

; 442  : 		if(nIndex >= 0 && nIndex < BRUSH_COUNT)

  0000c	83 f9 02	 cmp	 ecx, 2
  0000f	77 28		 ja	 SHORT $LN16@SelectBrus

; 443  : 			pDC->SelectObject(pBrush[nIndex]);

  00011	8b 45 14	 mov	 eax, DWORD PTR _pBrush$[ebp]
  00014	8d 04 c8	 lea	 eax, DWORD PTR [eax+ecx*8]
; File C:\Program Files (x86)\Microsoft Visual Studio\2019\Community\VC\Tools\MSVC\14.29.30133\atlmfc\include\afxwin1.inl

; 66   : 	{ return this == NULL ? NULL : m_hObject; }

  00017	85 c0		 test	 eax, eax
  00019	74 1e		 je	 SHORT $LN16@SelectBrus
  0001b	8b 40 04	 mov	 eax, DWORD PTR [eax+4]
; File D:\git\src\IBK\IBK_DRFN\ProjSrc\SrcChartEx\ChartOCX\GraphDraw\BarDraw.cpp

; 444  : 	}

  0001e	eb 08		 jmp	 SHORT $LN19@SelectBrus
$LN2@SelectBrus:

; 445  : 	else
; 446  : 		pDC->SelectObject(GetStockObject(NULL_BRUSH));

  00020	6a 05		 push	 5
  00022	ff 15 00 00 00
	00		 call	 DWORD PTR __imp__GetStockObject@4
$LN19@SelectBrus:

; 447  : }

  00028	85 c0		 test	 eax, eax
  0002a	74 0d		 je	 SHORT $LN16@SelectBrus
  0002c	50		 push	 eax
  0002d	8b 45 08	 mov	 eax, DWORD PTR _pDC$[ebp]
  00030	ff 70 04	 push	 DWORD PTR [eax+4]
  00033	ff 15 00 00 00
	00		 call	 DWORD PTR __imp__SelectObject@8
$LN16@SelectBrus:
  00039	5d		 pop	 ebp
  0003a	c2 10 00	 ret	 16			; 00000010H
?SelectBrushObject@CBarDraw@@IAEXPAVCDC@@_NHPAVCBrush@@@Z ENDP ; CBarDraw::SelectBrushObject
_TEXT	ENDS
; Function compile flags: /Ogtp
; File D:\git\src\IBK\IBK_DRFN\ProjSrc\SrcChartEx\ChartOCX\GraphDraw\BarDraw.cpp
; File C:\Program Files (x86)\Microsoft Visual Studio\2019\Community\VC\Tools\MSVC\14.29.30133\atlmfc\include\afxwin1.inl
; File D:\git\src\IBK\IBK_DRFN\ProjSrc\SrcChartEx\ChartOCX\GraphDraw\BarDraw.cpp
; File C:\Program Files (x86)\Microsoft Visual Studio\2019\Community\VC\Tools\MSVC\14.29.30133\atlmfc\include\afxwin1.inl
; File D:\git\src\IBK\IBK_DRFN\ProjSrc\SrcChartEx\ChartOCX\GraphDraw\BarDraw.cpp
; File C:\Program Files (x86)\Microsoft Visual Studio\2019\Community\VC\Tools\MSVC\14.29.30133\atlmfc\include\afxwin1.inl
; File D:\git\src\IBK\IBK_DRFN\ProjSrc\SrcChartEx\ChartOCX\GraphDraw\BarDraw.cpp
; File C:\Program Files (x86)\Microsoft Visual Studio\2019\Community\VC\Tools\MSVC\14.29.30133\atlmfc\include\afxwin1.inl
; File D:\git\src\IBK\IBK_DRFN\ProjSrc\SrcChartEx\ChartOCX\GraphDraw\BarDraw.cpp
;	COMDAT ?SelectGdiObject_Bohap@CBarDraw@@IAEXPAVCDC@@HABN1_NPAVCBrush@@PAVCPen@@@Z
_TEXT	SEGMENT
_pDC$ = 8						; size = 4
_nBohapType$ = 12					; size = 4
_dClose$ = 16						; size = 4
_dPreClose$ = 20					; size = 4
_bFill$ = 24						; size = 1
_pBrush$ = 28						; size = 4
_pPen$ = 32						; size = 4
?SelectGdiObject_Bohap@CBarDraw@@IAEXPAVCDC@@HABN1_NPAVCBrush@@PAVCPen@@@Z PROC ; CBarDraw::SelectGdiObject_Bohap, COMDAT
; _this$ = ecx

; 422  : {

  00000	55		 push	 ebp
  00001	8b ec		 mov	 ebp, esp

; 423  : 	if(nBohapType == 2){ //전일종가 보합

  00003	83 7d 0c 02	 cmp	 DWORD PTR _nBohapType$[ebp], 2
  00007	56		 push	 esi
  00008	8b 75 08	 mov	 esi, DWORD PTR _pDC$[ebp]
  0000b	57		 push	 edi
  0000c	8b 3d 00 00 00
	00		 mov	 edi, DWORD PTR __imp__SelectObject@8
  00012	75 5b		 jne	 SHORT $LN2@SelectGdiO

; 424  : 		if(dClose > dPreClose){

  00014	8b 45 10	 mov	 eax, DWORD PTR _dClose$[ebp]
  00017	f2 0f 10 00	 movsd	 xmm0, QWORD PTR [eax]
  0001b	8b 45 14	 mov	 eax, DWORD PTR _dPreClose$[ebp]
  0001e	66 0f 2f 00	 comisd	 xmm0, QWORD PTR [eax]
  00022	8b 45 20	 mov	 eax, DWORD PTR _pPen$[ebp]
  00025	76 28		 jbe	 SHORT $LN4@SelectGdiO
; File C:\Program Files (x86)\Microsoft Visual Studio\2019\Community\VC\Tools\MSVC\14.29.30133\atlmfc\include\afxwin1.inl

; 66   : 	{ return this == NULL ? NULL : m_hObject; }

  00027	85 c0		 test	 eax, eax
  00029	74 0d		 je	 SHORT $LN13@SelectGdiO
  0002b	8b 40 04	 mov	 eax, DWORD PTR [eax+4]

; 366  : 		return (hObject != NULL) ? ::SelectObject(m_hDC, hObject) : NULL; }

  0002e	85 c0		 test	 eax, eax
  00030	74 06		 je	 SHORT $LN13@SelectGdiO
  00032	50		 push	 eax
  00033	ff 76 04	 push	 DWORD PTR [esi+4]
  00036	ff d7		 call	 edi
$LN13@SelectGdiO:
; File D:\git\src\IBK\IBK_DRFN\ProjSrc\SrcChartEx\ChartOCX\GraphDraw\BarDraw.cpp

; 441  : 	if(bFill){

  00038	80 7d 18 00	 cmp	 BYTE PTR _bFill$[ebp], 0
  0003c	74 07		 je	 SHORT $LN16@SelectGdiO
; File C:\Program Files (x86)\Microsoft Visual Studio\2019\Community\VC\Tools\MSVC\14.29.30133\atlmfc\include\afxwin1.inl

; 66   : 	{ return this == NULL ? NULL : m_hObject; }

  0003e	8b 45 1c	 mov	 eax, DWORD PTR _pBrush$[ebp]
  00041	85 c0		 test	 eax, eax
; File D:\git\src\IBK\IBK_DRFN\ProjSrc\SrcChartEx\ChartOCX\GraphDraw\BarDraw.cpp

; 444  : 	}

  00043	eb 55		 jmp	 SHORT $LN83@SelectGdiO
$LN16@SelectGdiO:

; 436  : 	}
; 437  : }

  00045	6a 05		 push	 5
  00047	ff 15 00 00 00
	00		 call	 DWORD PTR __imp__GetStockObject@4
  0004d	eb 50		 jmp	 SHORT $LN84@SelectGdiO
$LN4@SelectGdiO:

; 425  : 			pDC->SelectObject(pPen[UP_PEN]);
; 426  : 			SelectBrushObject(pDC, bFill, UP_BRUSH, pBrush);
; 427  : 		}
; 428  : 		else{
; 429  : 			pDC->SelectObject(pPen[DOWN_PEN]);

  0004f	83 c0 08	 add	 eax, 8
; File C:\Program Files (x86)\Microsoft Visual Studio\2019\Community\VC\Tools\MSVC\14.29.30133\atlmfc\include\afxwin1.inl

; 66   : 	{ return this == NULL ? NULL : m_hObject; }

  00052	74 0d		 je	 SHORT $LN38@SelectGdiO
  00054	8b 40 04	 mov	 eax, DWORD PTR [eax+4]

; 366  : 		return (hObject != NULL) ? ::SelectObject(m_hDC, hObject) : NULL; }

  00057	85 c0		 test	 eax, eax
  00059	74 06		 je	 SHORT $LN38@SelectGdiO
  0005b	50		 push	 eax
  0005c	ff 76 04	 push	 DWORD PTR [esi+4]
  0005f	ff d7		 call	 edi
$LN38@SelectGdiO:
; File D:\git\src\IBK\IBK_DRFN\ProjSrc\SrcChartEx\ChartOCX\GraphDraw\BarDraw.cpp

; 441  : 	if(bFill){

  00061	80 7d 18 00	 cmp	 BYTE PTR _bFill$[ebp], 0
  00065	74 de		 je	 SHORT $LN16@SelectGdiO

; 442  : 		if(nIndex >= 0 && nIndex < BRUSH_COUNT)
; 443  : 			pDC->SelectObject(pBrush[nIndex]);

  00067	8b 45 1c	 mov	 eax, DWORD PTR _pBrush$[ebp]
  0006a	83 c0 08	 add	 eax, 8

; 444  : 	}

  0006d	eb 2b		 jmp	 SHORT $LN83@SelectGdiO
$LN2@SelectGdiO:

; 441  : 	if(bFill){

  0006f	80 7d 18 00	 cmp	 BYTE PTR _bFill$[ebp], 0
  00073	74 0d		 je	 SHORT $LN58@SelectGdiO

; 442  : 		if(nIndex >= 0 && nIndex < BRUSH_COUNT)
; 443  : 			pDC->SelectObject(pBrush[nIndex]);

  00075	8b 45 1c	 mov	 eax, DWORD PTR _pBrush$[ebp]
  00078	83 c0 10	 add	 eax, 16			; 00000010H
; File C:\Program Files (x86)\Microsoft Visual Studio\2019\Community\VC\Tools\MSVC\14.29.30133\atlmfc\include\afxwin1.inl

; 66   : 	{ return this == NULL ? NULL : m_hObject; }

  0007b	74 17		 je	 SHORT $LN72@SelectGdiO
  0007d	8b 40 04	 mov	 eax, DWORD PTR [eax+4]
; File D:\git\src\IBK\IBK_DRFN\ProjSrc\SrcChartEx\ChartOCX\GraphDraw\BarDraw.cpp

; 444  : 	}

  00080	eb 08		 jmp	 SHORT $LN86@SelectGdiO
$LN58@SelectGdiO:

; 445  : 	else
; 446  : 		pDC->SelectObject(GetStockObject(NULL_BRUSH));

  00082	6a 05		 push	 5
  00084	ff 15 00 00 00
	00		 call	 DWORD PTR __imp__GetStockObject@4
$LN86@SelectGdiO:

; 430  : 			SelectBrushObject(pDC, bFill, DOWN_BRUSH, pBrush);
; 431  : 		}
; 432  : 	}
; 433  : 	else{ //일반보합
; 434  : 		SelectBrushObject(pDC, bFill, BOHAP_BRUSH, pBrush);
; 435  : 		pDC->SelectObject(pPen[BOHAP_PEN]);

  0008a	85 c0		 test	 eax, eax
  0008c	74 06		 je	 SHORT $LN72@SelectGdiO
  0008e	50		 push	 eax
  0008f	ff 76 04	 push	 DWORD PTR [esi+4]
  00092	ff d7		 call	 edi
$LN72@SelectGdiO:
  00094	8b 45 20	 mov	 eax, DWORD PTR _pPen$[ebp]
  00097	83 c0 10	 add	 eax, 16			; 00000010H
$LN83@SelectGdiO:

; 436  : 	}
; 437  : }

  0009a	74 0d		 je	 SHORT $LN80@SelectGdiO
  0009c	8b 40 04	 mov	 eax, DWORD PTR [eax+4]
$LN84@SelectGdiO:
  0009f	85 c0		 test	 eax, eax
  000a1	74 06		 je	 SHORT $LN80@SelectGdiO
  000a3	50		 push	 eax
  000a4	ff 76 04	 push	 DWORD PTR [esi+4]
  000a7	ff d7		 call	 edi
$LN80@SelectGdiO:
  000a9	5f		 pop	 edi
  000aa	5e		 pop	 esi
  000ab	5d		 pop	 ebp
  000ac	c2 1c 00	 ret	 28			; 0000001cH
?SelectGdiObject_Bohap@CBarDraw@@IAEXPAVCDC@@HABN1_NPAVCBrush@@PAVCPen@@@Z ENDP ; CBarDraw::SelectGdiObject_Bohap
_TEXT	ENDS
; Function compile flags: /Ogtp
; File D:\git\src\IBK\IBK_DRFN\ProjSrc\SrcChartEx\ChartOCX\GraphDraw\BarDraw.cpp
; File C:\Program Files (x86)\Microsoft Visual Studio\2019\Community\VC\Tools\MSVC\14.29.30133\atlmfc\include\afxwin1.inl
; File D:\git\src\IBK\IBK_DRFN\ProjSrc\SrcChartEx\ChartOCX\GraphDraw\BarDraw.cpp
; File C:\Program Files (x86)\Microsoft Visual Studio\2019\Community\VC\Tools\MSVC\14.29.30133\atlmfc\include\afxwin1.inl
; File D:\git\src\IBK\IBK_DRFN\ProjSrc\SrcChartEx\ChartOCX\GraphDraw\BarDraw.cpp
;	COMDAT ?SelectGdiObject_HighLow@CBarDraw@@IAEXPAVCDC@@_NHHPAVCBrush@@PAVCPen@@@Z
_TEXT	SEGMENT
_pDC$ = 8						; size = 4
_bFill$ = 12						; size = 1
_nBrushIndex$ = 16					; size = 4
_nPenIndex$ = 20					; size = 4
_pBrush$ = 24						; size = 4
_pPen$ = 28						; size = 4
?SelectGdiObject_HighLow@CBarDraw@@IAEXPAVCDC@@_NHHPAVCBrush@@PAVCPen@@@Z PROC ; CBarDraw::SelectGdiObject_HighLow, COMDAT
; _this$ = ecx

; 412  : {

  00000	55		 push	 ebp
  00001	8b ec		 mov	 ebp, esp

; 441  : 	if(bFill){

  00003	80 7d 0c 00	 cmp	 BYTE PTR _bFill$[ebp], 0

; 412  : {

  00007	8b 4d 10	 mov	 ecx, DWORD PTR _nBrushIndex$[ebp]
  0000a	53		 push	 ebx
  0000b	8b 5d 14	 mov	 ebx, DWORD PTR _nPenIndex$[ebp]
  0000e	56		 push	 esi

; 441  : 	if(bFill){

  0000f	8b 75 08	 mov	 esi, DWORD PTR _pDC$[ebp]

; 412  : {

  00012	57		 push	 edi

; 441  : 	if(bFill){

  00013	8b 3d 00 00 00
	00		 mov	 edi, DWORD PTR __imp__SelectObject@8
  00019	74 14		 je	 SHORT $LN5@SelectGdiO

; 442  : 		if(nIndex >= 0 && nIndex < BRUSH_COUNT)

  0001b	83 f9 02	 cmp	 ecx, 2
  0001e	77 21		 ja	 SHORT $LN19@SelectGdiO

; 443  : 			pDC->SelectObject(pBrush[nIndex]);

  00020	8b 45 18	 mov	 eax, DWORD PTR _pBrush$[ebp]
  00023	8d 04 c8	 lea	 eax, DWORD PTR [eax+ecx*8]
; File C:\Program Files (x86)\Microsoft Visual Studio\2019\Community\VC\Tools\MSVC\14.29.30133\atlmfc\include\afxwin1.inl

; 66   : 	{ return this == NULL ? NULL : m_hObject; }

  00026	85 c0		 test	 eax, eax
  00028	74 17		 je	 SHORT $LN19@SelectGdiO
  0002a	8b 40 04	 mov	 eax, DWORD PTR [eax+4]
; File D:\git\src\IBK\IBK_DRFN\ProjSrc\SrcChartEx\ChartOCX\GraphDraw\BarDraw.cpp

; 444  : 	}

  0002d	eb 08		 jmp	 SHORT $LN30@SelectGdiO
$LN5@SelectGdiO:

; 445  : 	else
; 446  : 		pDC->SelectObject(GetStockObject(NULL_BRUSH));

  0002f	6a 05		 push	 5
  00031	ff 15 00 00 00
	00		 call	 DWORD PTR __imp__GetStockObject@4
$LN30@SelectGdiO:

; 413  : 	SelectBrushObject(pDC, bFill, nBrushIndex, pBrush);
; 414  : 
; 415  : 	if(nPenIndex >= 0 && nPenIndex < PEN_COUNT)

  00037	85 c0		 test	 eax, eax
  00039	74 06		 je	 SHORT $LN19@SelectGdiO
  0003b	50		 push	 eax
  0003c	ff 76 04	 push	 DWORD PTR [esi+4]
  0003f	ff d7		 call	 edi
$LN19@SelectGdiO:
  00041	83 fb 02	 cmp	 ebx, 2
  00044	77 17		 ja	 SHORT $LN27@SelectGdiO

; 416  : 		pDC->SelectObject(pPen[nPenIndex]);

  00046	8b 45 1c	 mov	 eax, DWORD PTR _pPen$[ebp]
  00049	8d 04 d8	 lea	 eax, DWORD PTR [eax+ebx*8]
; File C:\Program Files (x86)\Microsoft Visual Studio\2019\Community\VC\Tools\MSVC\14.29.30133\atlmfc\include\afxwin1.inl

; 66   : 	{ return this == NULL ? NULL : m_hObject; }

  0004c	85 c0		 test	 eax, eax
  0004e	74 0d		 je	 SHORT $LN27@SelectGdiO
  00050	8b 40 04	 mov	 eax, DWORD PTR [eax+4]

; 366  : 		return (hObject != NULL) ? ::SelectObject(m_hDC, hObject) : NULL; }

  00053	85 c0		 test	 eax, eax
  00055	74 06		 je	 SHORT $LN27@SelectGdiO
  00057	50		 push	 eax
  00058	ff 76 04	 push	 DWORD PTR [esi+4]
  0005b	ff d7		 call	 edi
$LN27@SelectGdiO:
  0005d	5f		 pop	 edi
; File D:\git\src\IBK\IBK_DRFN\ProjSrc\SrcChartEx\ChartOCX\GraphDraw\BarDraw.cpp

; 417  : }

  0005e	5e		 pop	 esi
  0005f	5b		 pop	 ebx
  00060	5d		 pop	 ebp
  00061	c2 18 00	 ret	 24			; 00000018H
?SelectGdiObject_HighLow@CBarDraw@@IAEXPAVCDC@@_NHHPAVCBrush@@PAVCPen@@@Z ENDP ; CBarDraw::SelectGdiObject_HighLow
_TEXT	ENDS
; Function compile flags: /Ogtp
; File D:\git\src\IBK\IBK_DRFN\ProjSrc\SrcChartEx\ChartOCX\GraphDraw\BarDraw.cpp
; File C:\Program Files (x86)\Microsoft Visual Studio\2019\Community\VC\Tools\MSVC\14.29.30133\atlmfc\include\afxwin1.inl
; File D:\git\src\IBK\IBK_DRFN\ProjSrc\SrcChartEx\ChartOCX\GraphDraw\BarDraw.cpp
; File C:\Program Files (x86)\Microsoft Visual Studio\2019\Community\VC\Tools\MSVC\14.29.30133\atlmfc\include\afxwin1.inl
; File D:\git\src\IBK\IBK_DRFN\ProjSrc\SrcChartEx\ChartOCX\GraphDraw\BarDraw.cpp
; File C:\Program Files (x86)\Microsoft Visual Studio\2019\Community\VC\Tools\MSVC\14.29.30133\atlmfc\include\afxwin1.inl
; File D:\git\src\IBK\IBK_DRFN\ProjSrc\SrcChartEx\ChartOCX\GraphDraw\BarDraw.cpp
; File C:\Program Files (x86)\Microsoft Visual Studio\2019\Community\VC\Tools\MSVC\14.29.30133\atlmfc\include\afxwin1.inl
; File D:\git\src\IBK\IBK_DRFN\ProjSrc\SrcChartEx\ChartOCX\GraphDraw\BarDraw.cpp
; File C:\Program Files (x86)\Microsoft Visual Studio\2019\Community\VC\Tools\MSVC\14.29.30133\atlmfc\include\afxwin1.inl
; File D:\git\src\IBK\IBK_DRFN\ProjSrc\SrcChartEx\ChartOCX\GraphDraw\BarDraw.cpp
; File C:\Program Files (x86)\Microsoft Visual Studio\2019\Community\VC\Tools\MSVC\14.29.30133\atlmfc\include\afxwin1.inl
; File D:\git\src\IBK\IBK_DRFN\ProjSrc\SrcChartEx\ChartOCX\GraphDraw\BarDraw.cpp
; File C:\Program Files (x86)\Microsoft Visual Studio\2019\Community\VC\Tools\MSVC\14.29.30133\atlmfc\include\afxwin1.inl
; File D:\git\src\IBK\IBK_DRFN\ProjSrc\SrcChartEx\ChartOCX\GraphDraw\BarDraw.cpp
; File C:\Program Files (x86)\Microsoft Visual Studio\2019\Community\VC\Tools\MSVC\14.29.30133\atlmfc\include\afxwin1.inl
; File D:\git\src\IBK\IBK_DRFN\ProjSrc\SrcChartEx\ChartOCX\GraphDraw\BarDraw.cpp
;	COMDAT ?SelectGdiObject_PriceChart@CBarDraw@@IAEXPAVCDC@@HABN11ABVCGraphColor@@PAVCBrush@@PAVCPen@@@Z
_TEXT	SEGMENT
_pDC$ = 8						; size = 4
_nBohapType$ = 12					; size = 4
_dOpen$ = 16						; size = 4
_dClose$ = 20						; size = 4
_dPreClose$ = 24					; size = 4
_graphColor$ = 28					; size = 4
_pBrush$ = 32						; size = 4
_pPen$ = 36						; size = 4
?SelectGdiObject_PriceChart@CBarDraw@@IAEXPAVCDC@@HABN11ABVCGraphColor@@PAVCBrush@@PAVCPen@@@Z PROC ; CBarDraw::SelectGdiObject_PriceChart, COMDAT
; _this$ = ecx

; 394  : {

  00000	55		 push	 ebp
  00001	8b ec		 mov	 ebp, esp

; 395  : 	//상승
; 396  : 	if(dOpen < dClose){

  00003	8b 45 10	 mov	 eax, DWORD PTR _dOpen$[ebp]
  00006	56		 push	 esi
  00007	8b 75 14	 mov	 esi, DWORD PTR _dClose$[ebp]
  0000a	57		 push	 edi
  0000b	f2 0f 10 08	 movsd	 xmm1, QWORD PTR [eax]
  0000f	8b f9		 mov	 edi, ecx
  00011	8b 4d 1c	 mov	 ecx, DWORD PTR _graphColor$[ebp]
  00014	f2 0f 10 06	 movsd	 xmm0, QWORD PTR [esi]
  00018	66 0f 2f c1	 comisd	 xmm0, xmm1
  0001c	76 53		 jbe	 SHORT $LN2@SelectGdiO

; 397  : 		SelectGdiObject_HighLow(pDC, graphColor.GetUpGraphFill() == 0 ? false : true, UP_BRUSH, UP_PEN, pBrush, pPen);

  0001e	ff 15 00 00 00
	00		 call	 DWORD PTR __imp_?GetUpGraphFill@CGraphColor@@QBE_NXZ

; 441  : 	if(bFill){

  00024	8b 75 08	 mov	 esi, DWORD PTR _pDC$[ebp]
  00027	8b 3d 00 00 00
	00		 mov	 edi, DWORD PTR __imp__SelectObject@8

; 397  : 		SelectGdiObject_HighLow(pDC, graphColor.GetUpGraphFill() == 0 ? false : true, UP_BRUSH, UP_PEN, pBrush, pPen);

  0002d	84 c0		 test	 al, al

; 441  : 	if(bFill){

  0002f	74 0c		 je	 SHORT $LN11@SelectGdiO
; File C:\Program Files (x86)\Microsoft Visual Studio\2019\Community\VC\Tools\MSVC\14.29.30133\atlmfc\include\afxwin1.inl

; 66   : 	{ return this == NULL ? NULL : m_hObject; }

  00031	8b 45 20	 mov	 eax, DWORD PTR _pBrush$[ebp]
  00034	85 c0		 test	 eax, eax
  00036	74 17		 je	 SHORT $LN25@SelectGdiO
  00038	8b 40 04	 mov	 eax, DWORD PTR [eax+4]
; File D:\git\src\IBK\IBK_DRFN\ProjSrc\SrcChartEx\ChartOCX\GraphDraw\BarDraw.cpp

; 444  : 	}

  0003b	eb 08		 jmp	 SHORT $LN118@SelectGdiO
$LN11@SelectGdiO:

; 445  : 	else
; 446  : 		pDC->SelectObject(GetStockObject(NULL_BRUSH));

  0003d	6a 05		 push	 5
  0003f	ff 15 00 00 00
	00		 call	 DWORD PTR __imp__GetStockObject@4
$LN118@SelectGdiO:
; File C:\Program Files (x86)\Microsoft Visual Studio\2019\Community\VC\Tools\MSVC\14.29.30133\atlmfc\include\afxwin1.inl

; 66   : 	{ return this == NULL ? NULL : m_hObject; }

  00045	85 c0		 test	 eax, eax
  00047	74 06		 je	 SHORT $LN25@SelectGdiO
  00049	50		 push	 eax
  0004a	ff 76 04	 push	 DWORD PTR [esi+4]
  0004d	ff d7		 call	 edi
$LN25@SelectGdiO:
  0004f	8b 45 24	 mov	 eax, DWORD PTR _pPen$[ebp]
  00052	85 c0		 test	 eax, eax
  00054	0f 84 f1 00 00
	00		 je	 $LN114@SelectGdiO
  0005a	8b 40 04	 mov	 eax, DWORD PTR [eax+4]

; 366  : 		return (hObject != NULL) ? ::SelectObject(m_hDC, hObject) : NULL; }

  0005d	85 c0		 test	 eax, eax
  0005f	0f 84 e6 00 00
	00		 je	 $LN114@SelectGdiO
  00065	50		 push	 eax
  00066	ff 76 04	 push	 DWORD PTR [esi+4]
  00069	ff d7		 call	 edi
  0006b	5f		 pop	 edi
; File D:\git\src\IBK\IBK_DRFN\ProjSrc\SrcChartEx\ChartOCX\GraphDraw\BarDraw.cpp

; 407  : }

  0006c	5e		 pop	 esi
  0006d	5d		 pop	 ebp
  0006e	c2 20 00	 ret	 32			; 00000020H
$LN2@SelectGdiO:

; 398  : 	}
; 399  : 	//하락
; 400  : 	else if(dOpen > dClose){

  00071	66 0f 2f c8	 comisd	 xmm1, xmm0
  00075	76 29		 jbe	 SHORT $LN4@SelectGdiO

; 401  : 		SelectGdiObject_HighLow(pDC, graphColor.GetDownGraphFill() == 0 ? false : true, DOWN_BRUSH, DOWN_PEN, pBrush, pPen);

  00077	ff 15 00 00 00
	00		 call	 DWORD PTR __imp_?GetDownGraphFill@CGraphColor@@QBE_NXZ
  0007d	ff 75 24	 push	 DWORD PTR _pPen$[ebp]
  00080	84 c0		 test	 al, al
  00082	8b cf		 mov	 ecx, edi
  00084	ff 75 20	 push	 DWORD PTR _pBrush$[ebp]
  00087	0f 95 c0	 setne	 al
  0008a	6a 01		 push	 1
  0008c	6a 01		 push	 1
  0008e	0f b6 c0	 movzx	 eax, al
  00091	50		 push	 eax
  00092	ff 75 08	 push	 DWORD PTR _pDC$[ebp]
  00095	e8 00 00 00 00	 call	 ?SelectGdiObject_HighLow@CBarDraw@@IAEXPAVCDC@@_NHHPAVCBrush@@PAVCPen@@@Z ; CBarDraw::SelectGdiObject_HighLow
  0009a	5f		 pop	 edi

; 407  : }

  0009b	5e		 pop	 esi
  0009c	5d		 pop	 ebp
  0009d	c2 20 00	 ret	 32			; 00000020H
$LN4@SelectGdiO:
  000a0	53		 push	 ebx

; 402  : 	}
; 403  : 	//보합
; 404  : 	else{
; 405  : 		SelectGdiObject_Bohap(pDC, nBohapType, dClose, dPreClose, graphColor.GetUpGraphFill() == 0 ? false : true, pBrush, pPen);

  000a1	ff 15 00 00 00
	00		 call	 DWORD PTR __imp_?GetUpGraphFill@CGraphColor@@QBE_NXZ

; 423  : 	if(nBohapType == 2){ //전일종가 보합

  000a7	8b 3d 00 00 00
	00		 mov	 edi, DWORD PTR __imp__SelectObject@8

; 402  : 	}
; 403  : 	//보합
; 404  : 	else{
; 405  : 		SelectGdiObject_Bohap(pDC, nBohapType, dClose, dPreClose, graphColor.GetUpGraphFill() == 0 ? false : true, pBrush, pPen);

  000ad	84 c0		 test	 al, al
  000af	0f 95 c3	 setne	 bl

; 423  : 	if(nBohapType == 2){ //전일종가 보합

  000b2	83 7d 0c 02	 cmp	 DWORD PTR _nBohapType$[ebp], 2
  000b6	75 57		 jne	 SHORT $LN36@SelectGdiO

; 424  : 		if(dClose > dPreClose){

  000b8	8b 45 18	 mov	 eax, DWORD PTR _dPreClose$[ebp]
  000bb	f2 0f 10 06	 movsd	 xmm0, QWORD PTR [esi]
  000bf	8b 75 08	 mov	 esi, DWORD PTR _pDC$[ebp]
  000c2	66 0f 2f 00	 comisd	 xmm0, QWORD PTR [eax]
  000c6	8b 45 24	 mov	 eax, DWORD PTR _pPen$[ebp]
  000c9	76 26		 jbe	 SHORT $LN38@SelectGdiO
; File C:\Program Files (x86)\Microsoft Visual Studio\2019\Community\VC\Tools\MSVC\14.29.30133\atlmfc\include\afxwin1.inl

; 66   : 	{ return this == NULL ? NULL : m_hObject; }

  000cb	85 c0		 test	 eax, eax
  000cd	74 0d		 je	 SHORT $LN47@SelectGdiO
  000cf	8b 40 04	 mov	 eax, DWORD PTR [eax+4]

; 366  : 		return (hObject != NULL) ? ::SelectObject(m_hDC, hObject) : NULL; }

  000d2	85 c0		 test	 eax, eax
  000d4	74 06		 je	 SHORT $LN47@SelectGdiO
  000d6	50		 push	 eax
  000d7	ff 76 04	 push	 DWORD PTR [esi+4]
  000da	ff d7		 call	 edi
$LN47@SelectGdiO:
; File D:\git\src\IBK\IBK_DRFN\ProjSrc\SrcChartEx\ChartOCX\GraphDraw\BarDraw.cpp

; 441  : 	if(bFill){

  000dc	84 db		 test	 bl, bl
  000de	74 07		 je	 SHORT $LN50@SelectGdiO
; File C:\Program Files (x86)\Microsoft Visual Studio\2019\Community\VC\Tools\MSVC\14.29.30133\atlmfc\include\afxwin1.inl

; 66   : 	{ return this == NULL ? NULL : m_hObject; }

  000e0	8b 45 20	 mov	 eax, DWORD PTR _pBrush$[ebp]
  000e3	85 c0		 test	 eax, eax
; File D:\git\src\IBK\IBK_DRFN\ProjSrc\SrcChartEx\ChartOCX\GraphDraw\BarDraw.cpp

; 444  : 	}

  000e5	eb 54		 jmp	 SHORT $LN120@SelectGdiO
$LN50@SelectGdiO:
; File C:\Program Files (x86)\Microsoft Visual Studio\2019\Community\VC\Tools\MSVC\14.29.30133\atlmfc\include\afxwin1.inl

; 366  : 		return (hObject != NULL) ? ::SelectObject(m_hDC, hObject) : NULL; }

  000e7	6a 05		 push	 5
  000e9	ff 15 00 00 00
	00		 call	 DWORD PTR __imp__GetStockObject@4
  000ef	eb 4f		 jmp	 SHORT $LN121@SelectGdiO
$LN38@SelectGdiO:
; File D:\git\src\IBK\IBK_DRFN\ProjSrc\SrcChartEx\ChartOCX\GraphDraw\BarDraw.cpp

; 429  : 			pDC->SelectObject(pPen[DOWN_PEN]);

  000f1	83 c0 08	 add	 eax, 8
; File C:\Program Files (x86)\Microsoft Visual Studio\2019\Community\VC\Tools\MSVC\14.29.30133\atlmfc\include\afxwin1.inl

; 66   : 	{ return this == NULL ? NULL : m_hObject; }

  000f4	74 0d		 je	 SHORT $LN72@SelectGdiO
  000f6	8b 40 04	 mov	 eax, DWORD PTR [eax+4]

; 366  : 		return (hObject != NULL) ? ::SelectObject(m_hDC, hObject) : NULL; }

  000f9	85 c0		 test	 eax, eax
  000fb	74 06		 je	 SHORT $LN72@SelectGdiO
  000fd	50		 push	 eax
  000fe	ff 76 04	 push	 DWORD PTR [esi+4]
  00101	ff d7		 call	 edi
$LN72@SelectGdiO:
; File D:\git\src\IBK\IBK_DRFN\ProjSrc\SrcChartEx\ChartOCX\GraphDraw\BarDraw.cpp

; 441  : 	if(bFill){

  00103	84 db		 test	 bl, bl
  00105	74 e0		 je	 SHORT $LN50@SelectGdiO

; 442  : 		if(nIndex >= 0 && nIndex < BRUSH_COUNT)
; 443  : 			pDC->SelectObject(pBrush[nIndex]);

  00107	8b 45 20	 mov	 eax, DWORD PTR _pBrush$[ebp]
  0010a	83 c0 08	 add	 eax, 8

; 444  : 	}

  0010d	eb 2c		 jmp	 SHORT $LN120@SelectGdiO
$LN36@SelectGdiO:

; 441  : 	if(bFill){

  0010f	8b 75 08	 mov	 esi, DWORD PTR _pDC$[ebp]
  00112	84 db		 test	 bl, bl
  00114	74 0d		 je	 SHORT $LN92@SelectGdiO

; 442  : 		if(nIndex >= 0 && nIndex < BRUSH_COUNT)
; 443  : 			pDC->SelectObject(pBrush[nIndex]);

  00116	8b 45 20	 mov	 eax, DWORD PTR _pBrush$[ebp]
  00119	83 c0 10	 add	 eax, 16			; 00000010H
; File C:\Program Files (x86)\Microsoft Visual Studio\2019\Community\VC\Tools\MSVC\14.29.30133\atlmfc\include\afxwin1.inl

; 66   : 	{ return this == NULL ? NULL : m_hObject; }

  0011c	74 17		 je	 SHORT $LN106@SelectGdiO
  0011e	8b 40 04	 mov	 eax, DWORD PTR [eax+4]
; File D:\git\src\IBK\IBK_DRFN\ProjSrc\SrcChartEx\ChartOCX\GraphDraw\BarDraw.cpp

; 444  : 	}

  00121	eb 08		 jmp	 SHORT $LN123@SelectGdiO
$LN92@SelectGdiO:

; 445  : 	else
; 446  : 		pDC->SelectObject(GetStockObject(NULL_BRUSH));

  00123	6a 05		 push	 5
  00125	ff 15 00 00 00
	00		 call	 DWORD PTR __imp__GetStockObject@4
$LN123@SelectGdiO:

; 435  : 		pDC->SelectObject(pPen[BOHAP_PEN]);

  0012b	85 c0		 test	 eax, eax
  0012d	74 06		 je	 SHORT $LN106@SelectGdiO
  0012f	50		 push	 eax
  00130	ff 76 04	 push	 DWORD PTR [esi+4]
  00133	ff d7		 call	 edi
$LN106@SelectGdiO:
  00135	8b 45 24	 mov	 eax, DWORD PTR _pPen$[ebp]
  00138	83 c0 10	 add	 eax, 16			; 00000010H
$LN120@SelectGdiO:
; File C:\Program Files (x86)\Microsoft Visual Studio\2019\Community\VC\Tools\MSVC\14.29.30133\atlmfc\include\afxwin1.inl

; 366  : 		return (hObject != NULL) ? ::SelectObject(m_hDC, hObject) : NULL; }

  0013b	74 0d		 je	 SHORT $LN116@SelectGdiO
  0013d	8b 40 04	 mov	 eax, DWORD PTR [eax+4]
$LN121@SelectGdiO:
  00140	85 c0		 test	 eax, eax
  00142	74 06		 je	 SHORT $LN116@SelectGdiO
  00144	50		 push	 eax
  00145	ff 76 04	 push	 DWORD PTR [esi+4]
  00148	ff d7		 call	 edi
$LN116@SelectGdiO:
  0014a	5b		 pop	 ebx
$LN114@SelectGdiO:
  0014b	5f		 pop	 edi
; File D:\git\src\IBK\IBK_DRFN\ProjSrc\SrcChartEx\ChartOCX\GraphDraw\BarDraw.cpp

; 407  : }

  0014c	5e		 pop	 esi
  0014d	5d		 pop	 ebp
  0014e	c2 20 00	 ret	 32			; 00000020H
?SelectGdiObject_PriceChart@CBarDraw@@IAEXPAVCDC@@HABN11ABVCGraphColor@@PAVCBrush@@PAVCPen@@@Z ENDP ; CBarDraw::SelectGdiObject_PriceChart
_TEXT	ENDS
; Function compile flags: /Ogtp
; File D:\git\src\IBK\IBK_DRFN\ProjSrc\SrcChartEx\ChartOCX\GraphDraw\BarDraw.cpp
; File C:\Program Files (x86)\Microsoft Visual Studio\2019\Community\VC\Tools\MSVC\14.29.30133\atlmfc\include\afxwin1.inl
; File D:\git\src\IBK\IBK_DRFN\ProjSrc\SrcChartEx\ChartOCX\GraphDraw\BarDraw.cpp
; File C:\Program Files (x86)\Microsoft Visual Studio\2019\Community\VC\Tools\MSVC\14.29.30133\atlmfc\include\afxwin1.inl
; File D:\git\src\IBK\IBK_DRFN\ProjSrc\SrcChartEx\ChartOCX\GraphDraw\BarDraw.cpp
;	COMDAT ?SelectGdiObject_VolumeChart@CBarDraw@@IAEXPAVCDC@@ABN1ABVCGraphColor@@PAVCBrush@@PAVCPen@@@Z
_TEXT	SEGMENT
_pDC$ = 8						; size = 4
_dCurVolume$ = 12					; size = 4
_dPrevVolume$ = 16					; size = 4
_graphColor$ = 20					; size = 4
_pBrush$ = 24						; size = 4
_pPen$ = 28						; size = 4
?SelectGdiObject_VolumeChart@CBarDraw@@IAEXPAVCDC@@ABN1ABVCGraphColor@@PAVCBrush@@PAVCPen@@@Z PROC ; CBarDraw::SelectGdiObject_VolumeChart, COMDAT
; _this$ = ecx

; 377  : {

  00000	55		 push	 ebp
  00001	8b ec		 mov	 ebp, esp

; 378  : 	//상승
; 379  : 	if(dCurVolume > dPrevVolume){

  00003	8b 45 0c	 mov	 eax, DWORD PTR _dCurVolume$[ebp]
  00006	56		 push	 esi
  00007	8b f1		 mov	 esi, ecx
  00009	8b 4d 14	 mov	 ecx, DWORD PTR _graphColor$[ebp]
  0000c	f2 0f 10 00	 movsd	 xmm0, QWORD PTR [eax]
  00010	8b 45 10	 mov	 eax, DWORD PTR _dPrevVolume$[ebp]
  00013	f2 0f 10 08	 movsd	 xmm1, QWORD PTR [eax]
  00017	66 0f 2f c1	 comisd	 xmm0, xmm1
  0001b	76 4c		 jbe	 SHORT $LN2@SelectGdiO

; 380  : 		SelectGdiObject_HighLow(pDC, graphColor.GetUpGraphFill() == 0 ? false : true, UP_BRUSH, UP_PEN, pBrush, pPen);

  0001d	57		 push	 edi
  0001e	ff 15 00 00 00
	00		 call	 DWORD PTR __imp_?GetUpGraphFill@CGraphColor@@QBE_NXZ

; 441  : 	if(bFill){

  00024	8b 75 08	 mov	 esi, DWORD PTR _pDC$[ebp]
  00027	8b 3d 00 00 00
	00		 mov	 edi, DWORD PTR __imp__SelectObject@8

; 380  : 		SelectGdiObject_HighLow(pDC, graphColor.GetUpGraphFill() == 0 ? false : true, UP_BRUSH, UP_PEN, pBrush, pPen);

  0002d	84 c0		 test	 al, al

; 441  : 	if(bFill){

  0002f	74 0c		 je	 SHORT $LN11@SelectGdiO
; File C:\Program Files (x86)\Microsoft Visual Studio\2019\Community\VC\Tools\MSVC\14.29.30133\atlmfc\include\afxwin1.inl

; 66   : 	{ return this == NULL ? NULL : m_hObject; }

  00031	8b 45 18	 mov	 eax, DWORD PTR _pBrush$[ebp]
  00034	85 c0		 test	 eax, eax
  00036	74 17		 je	 SHORT $LN25@SelectGdiO
  00038	8b 40 04	 mov	 eax, DWORD PTR [eax+4]
; File D:\git\src\IBK\IBK_DRFN\ProjSrc\SrcChartEx\ChartOCX\GraphDraw\BarDraw.cpp

; 444  : 	}

  0003b	eb 08		 jmp	 SHORT $LN37@SelectGdiO
$LN11@SelectGdiO:

; 445  : 	else
; 446  : 		pDC->SelectObject(GetStockObject(NULL_BRUSH));

  0003d	6a 05		 push	 5
  0003f	ff 15 00 00 00
	00		 call	 DWORD PTR __imp__GetStockObject@4
$LN37@SelectGdiO:
; File C:\Program Files (x86)\Microsoft Visual Studio\2019\Community\VC\Tools\MSVC\14.29.30133\atlmfc\include\afxwin1.inl

; 66   : 	{ return this == NULL ? NULL : m_hObject; }

  00045	85 c0		 test	 eax, eax
  00047	74 06		 je	 SHORT $LN25@SelectGdiO
  00049	50		 push	 eax
  0004a	ff 76 04	 push	 DWORD PTR [esi+4]
  0004d	ff d7		 call	 edi
$LN25@SelectGdiO:
  0004f	8b 45 1c	 mov	 eax, DWORD PTR _pPen$[ebp]
  00052	85 c0		 test	 eax, eax
  00054	74 0d		 je	 SHORT $LN35@SelectGdiO
  00056	8b 40 04	 mov	 eax, DWORD PTR [eax+4]

; 366  : 		return (hObject != NULL) ? ::SelectObject(m_hDC, hObject) : NULL; }

  00059	85 c0		 test	 eax, eax
  0005b	74 06		 je	 SHORT $LN35@SelectGdiO
  0005d	50		 push	 eax
  0005e	ff 76 04	 push	 DWORD PTR [esi+4]
  00061	ff d7		 call	 edi
$LN35@SelectGdiO:
  00063	5f		 pop	 edi
  00064	5e		 pop	 esi
; File D:\git\src\IBK\IBK_DRFN\ProjSrc\SrcChartEx\ChartOCX\GraphDraw\BarDraw.cpp

; 390  : }

  00065	5d		 pop	 ebp
  00066	c2 18 00	 ret	 24			; 00000018H
$LN2@SelectGdiO:

; 381  : 	}
; 382  : 	//하락
; 383  : 	else if(dCurVolume < dPrevVolume){

  00069	66 0f 2f c8	 comisd	 xmm1, xmm0
  0006d	76 28		 jbe	 SHORT $LN4@SelectGdiO

; 384  : 		SelectGdiObject_HighLow(pDC, graphColor.GetDownGraphFill() == 0 ? false : true, DOWN_BRUSH, DOWN_PEN, pBrush, pPen);

  0006f	ff 15 00 00 00
	00		 call	 DWORD PTR __imp_?GetDownGraphFill@CGraphColor@@QBE_NXZ
  00075	ff 75 1c	 push	 DWORD PTR _pPen$[ebp]
  00078	ff 75 18	 push	 DWORD PTR _pBrush$[ebp]
  0007b	6a 01		 push	 1
  0007d	6a 01		 push	 1
$LN38@SelectGdiO:

; 390  : }

  0007f	84 c0		 test	 al, al
  00081	8b ce		 mov	 ecx, esi
  00083	0f 95 c0	 setne	 al
  00086	0f b6 c0	 movzx	 eax, al
  00089	50		 push	 eax
  0008a	ff 75 08	 push	 DWORD PTR _pDC$[ebp]
  0008d	e8 00 00 00 00	 call	 ?SelectGdiObject_HighLow@CBarDraw@@IAEXPAVCDC@@_NHHPAVCBrush@@PAVCPen@@@Z ; CBarDraw::SelectGdiObject_HighLow
  00092	5e		 pop	 esi
  00093	5d		 pop	 ebp
  00094	c2 18 00	 ret	 24			; 00000018H
$LN4@SelectGdiO:

; 385  : 	}
; 386  : 	//보합
; 387  : 	else{
; 388  : 		SelectGdiObject_HighLow(pDC, graphColor.GetUpGraphFill() == 0 ? false : true, BOHAP_BRUSH, BOHAP_PEN, pBrush, pPen);

  00097	ff 15 00 00 00
	00		 call	 DWORD PTR __imp_?GetUpGraphFill@CGraphColor@@QBE_NXZ
  0009d	ff 75 1c	 push	 DWORD PTR _pPen$[ebp]
  000a0	ff 75 18	 push	 DWORD PTR _pBrush$[ebp]
  000a3	6a 02		 push	 2
  000a5	6a 02		 push	 2
  000a7	eb d6		 jmp	 SHORT $LN38@SelectGdiO
?SelectGdiObject_VolumeChart@CBarDraw@@IAEXPAVCDC@@ABN1ABVCGraphColor@@PAVCBrush@@PAVCPen@@@Z ENDP ; CBarDraw::SelectGdiObject_VolumeChart
_TEXT	ENDS
; Function compile flags: /Ogtp
; File D:\git\src\IBK\IBK_DRFN\ProjSrc\SrcChartEx\ChartOCX\GraphDraw\BarDraw.cpp
;	COMDAT ?DeleteBrushsAndPens@CBarDraw@@IAEXPAVCDC@@PAVCBrush@@PAVCPen@@12@Z
_TEXT	SEGMENT
_pDC$ = 8						; size = 4
_pBrush$ = 12						; size = 4
_pPen$ = 16						; size = 4
_pOldBrush$ = 20					; size = 4
_pOldPen$ = 24						; size = 4
?DeleteBrushsAndPens@CBarDraw@@IAEXPAVCDC@@PAVCBrush@@PAVCPen@@12@Z PROC ; CBarDraw::DeleteBrushsAndPens, COMDAT
; _this$ = ecx

; 364  : {

  00000	55		 push	 ebp
  00001	8b ec		 mov	 ebp, esp

; 365  : 	pDC->SelectObject(pOldBrush);

  00003	8b 4d 08	 mov	 ecx, DWORD PTR _pDC$[ebp]
  00006	56		 push	 esi
  00007	57		 push	 edi
  00008	ff 75 14	 push	 DWORD PTR _pOldBrush$[ebp]
  0000b	e8 00 00 00 00	 call	 ?SelectObject@CDC@@QAEPAVCBrush@@PAV2@@Z ; CDC::SelectObject

; 366  : 	pDC->SelectObject(pOldPen);

  00010	ff 75 18	 push	 DWORD PTR _pOldPen$[ebp]
  00013	8b 4d 08	 mov	 ecx, DWORD PTR _pDC$[ebp]
  00016	e8 00 00 00 00	 call	 ?SelectObject@CDC@@QAEPAVCPen@@PAV2@@Z ; CDC::SelectObject
  0001b	8b 75 10	 mov	 esi, DWORD PTR _pPen$[ebp]
  0001e	bf 03 00 00 00	 mov	 edi, 3
$LL4@DeleteBrus:

; 367  : 
; 368  : 	for(int i = 0; i < PEN_COUNT; i++)
; 369  : 		pPen[i].DeleteObject();

  00023	8b ce		 mov	 ecx, esi
  00025	e8 00 00 00 00	 call	 ?DeleteObject@CGdiObject@@QAEHXZ ; CGdiObject::DeleteObject
  0002a	83 c6 08	 add	 esi, 8
  0002d	83 ef 01	 sub	 edi, 1
  00030	75 f1		 jne	 SHORT $LL4@DeleteBrus

; 370  : 
; 371  : 	for(int i = 0; i < BRUSH_COUNT; i++)

  00032	8b 75 0c	 mov	 esi, DWORD PTR _pBrush$[ebp]
  00035	bf 03 00 00 00	 mov	 edi, 3
  0003a	66 0f 1f 44 00
	00		 npad	 6
$LL7@DeleteBrus:

; 372  : 		pBrush[i].DeleteObject();

  00040	8b ce		 mov	 ecx, esi
  00042	e8 00 00 00 00	 call	 ?DeleteObject@CGdiObject@@QAEHXZ ; CGdiObject::DeleteObject
  00047	83 c6 08	 add	 esi, 8
  0004a	83 ef 01	 sub	 edi, 1
  0004d	75 f1		 jne	 SHORT $LL7@DeleteBrus

; 373  : }

  0004f	5f		 pop	 edi
  00050	5e		 pop	 esi
  00051	5d		 pop	 ebp
  00052	c2 14 00	 ret	 20			; 00000014H
?DeleteBrushsAndPens@CBarDraw@@IAEXPAVCDC@@PAVCBrush@@PAVCPen@@12@Z ENDP ; CBarDraw::DeleteBrushsAndPens
_TEXT	ENDS
; Function compile flags: /Ogtp
; File D:\git\src\IBK\IBK_DRFN\ProjSrc\SrcChartEx\ChartOCX\GraphDraw\BarDraw.cpp
; File C:\Program Files (x86)\Microsoft Visual Studio\2019\Community\VC\Tools\MSVC\14.29.30133\atlmfc\include\afxwin1.inl
; File D:\git\src\IBK\IBK_DRFN\ProjSrc\SrcChartEx\ChartOCX\GraphDraw\BarDraw.cpp
; File C:\Program Files (x86)\Microsoft Visual Studio\2019\Community\VC\Tools\MSVC\14.29.30133\atlmfc\include\afxwin1.inl
; File D:\git\src\IBK\IBK_DRFN\ProjSrc\SrcChartEx\ChartOCX\GraphDraw\BarDraw.cpp
; File C:\Program Files (x86)\Microsoft Visual Studio\2019\Community\VC\Tools\MSVC\14.29.30133\atlmfc\include\afxwin1.inl
; File D:\git\src\IBK\IBK_DRFN\ProjSrc\SrcChartEx\ChartOCX\GraphDraw\BarDraw.cpp
; File C:\Program Files (x86)\Microsoft Visual Studio\2019\Community\VC\Tools\MSVC\14.29.30133\atlmfc\include\afxwin1.inl
; File D:\git\src\IBK\IBK_DRFN\ProjSrc\SrcChartEx\ChartOCX\GraphDraw\BarDraw.cpp
; File C:\Program Files (x86)\Microsoft Visual Studio\2019\Community\VC\Tools\MSVC\14.29.30133\atlmfc\include\afxwin1.inl
; File D:\git\src\IBK\IBK_DRFN\ProjSrc\SrcChartEx\ChartOCX\GraphDraw\BarDraw.cpp
;	COMDAT ?CreateBrushsAndPens@CBarDraw@@IAEXPAVCBrush@@PAVCPen@@ABVCGraphColor@@ABNABVCPenThickness@@_N@Z
_TEXT	SEGMENT
_this$1$ = -4						; size = 4
_pBrush$ = 8						; size = 4
_pPen$ = 12						; size = 4
_graphColor$ = 16					; size = 4
_dWidth$ = 20						; size = 4
_penThickness$ = 24					; size = 4
_bIsDrawingThickness$ = 28				; size = 1
?CreateBrushsAndPens@CBarDraw@@IAEXPAVCBrush@@PAVCPen@@ABVCGraphColor@@ABNABVCPenThickness@@_N@Z PROC ; CBarDraw::CreateBrushsAndPens, COMDAT
; _this$ = ecx

; 346  : {

  00000	55		 push	 ebp
  00001	8b ec		 mov	 ebp, esp
  00003	51		 push	 ecx
  00004	53		 push	 ebx

; 347  : 	pBrush[UP_BRUSH].CreateSolidBrush(graphColor.GetColor2());

  00005	8b 5d 10	 mov	 ebx, DWORD PTR _graphColor$[ebp]
  00008	56		 push	 esi
  00009	89 4d fc	 mov	 DWORD PTR _this$1$[ebp], ecx
  0000c	8b cb		 mov	 ecx, ebx
  0000e	57		 push	 edi
  0000f	ff 15 00 00 00
	00		 call	 DWORD PTR __imp_?GetColor2@CGraphColor@@QBEKXZ
; File C:\Program Files (x86)\Microsoft Visual Studio\2019\Community\VC\Tools\MSVC\14.29.30133\atlmfc\include\afxwin1.inl

; 132  : 	{ return Attach(::CreateSolidBrush(crColor)); }

  00015	8b 3d 00 00 00
	00		 mov	 edi, DWORD PTR __imp__CreateSolidBrush@4
  0001b	50		 push	 eax
  0001c	ff d7		 call	 edi
  0001e	8b 75 08	 mov	 esi, DWORD PTR _pBrush$[ebp]
  00021	8b ce		 mov	 ecx, esi
  00023	50		 push	 eax
  00024	e8 00 00 00 00	 call	 ?Attach@CGdiObject@@QAEHPAX@Z ; CGdiObject::Attach
; File D:\git\src\IBK\IBK_DRFN\ProjSrc\SrcChartEx\ChartOCX\GraphDraw\BarDraw.cpp

; 348  : 	pBrush[DOWN_BRUSH].CreateSolidBrush(graphColor.GetColor4());

  00029	8b cb		 mov	 ecx, ebx
  0002b	ff 15 00 00 00
	00		 call	 DWORD PTR __imp_?GetColor4@CGraphColor@@QBEKXZ
; File C:\Program Files (x86)\Microsoft Visual Studio\2019\Community\VC\Tools\MSVC\14.29.30133\atlmfc\include\afxwin1.inl

; 132  : 	{ return Attach(::CreateSolidBrush(crColor)); }

  00031	50		 push	 eax
  00032	ff d7		 call	 edi
  00034	50		 push	 eax
; File D:\git\src\IBK\IBK_DRFN\ProjSrc\SrcChartEx\ChartOCX\GraphDraw\BarDraw.cpp

; 348  : 	pBrush[DOWN_BRUSH].CreateSolidBrush(graphColor.GetColor4());

  00035	8d 4e 08	 lea	 ecx, DWORD PTR [esi+8]
; File C:\Program Files (x86)\Microsoft Visual Studio\2019\Community\VC\Tools\MSVC\14.29.30133\atlmfc\include\afxwin1.inl

; 132  : 	{ return Attach(::CreateSolidBrush(crColor)); }

  00038	e8 00 00 00 00	 call	 ?Attach@CGdiObject@@QAEHPAX@Z ; CGdiObject::Attach
; File D:\git\src\IBK\IBK_DRFN\ProjSrc\SrcChartEx\ChartOCX\GraphDraw\BarDraw.cpp

; 349  : 	pBrush[BOHAP_BRUSH].CreateSolidBrush(graphColor.GetColor6());

  0003d	8b cb		 mov	 ecx, ebx
  0003f	ff 15 00 00 00
	00		 call	 DWORD PTR __imp_?GetColor6@CGraphColor@@QBEKXZ
; File C:\Program Files (x86)\Microsoft Visual Studio\2019\Community\VC\Tools\MSVC\14.29.30133\atlmfc\include\afxwin1.inl

; 132  : 	{ return Attach(::CreateSolidBrush(crColor)); }

  00045	50		 push	 eax
  00046	ff d7		 call	 edi
  00048	50		 push	 eax
; File D:\git\src\IBK\IBK_DRFN\ProjSrc\SrcChartEx\ChartOCX\GraphDraw\BarDraw.cpp

; 349  : 	pBrush[BOHAP_BRUSH].CreateSolidBrush(graphColor.GetColor6());

  00049	8d 4e 10	 lea	 ecx, DWORD PTR [esi+16]
; File C:\Program Files (x86)\Microsoft Visual Studio\2019\Community\VC\Tools\MSVC\14.29.30133\atlmfc\include\afxwin1.inl

; 132  : 	{ return Attach(::CreateSolidBrush(crColor)); }

  0004c	e8 00 00 00 00	 call	 ?Attach@CGdiObject@@QAEHPAX@Z ; CGdiObject::Attach
; File D:\git\src\IBK\IBK_DRFN\ProjSrc\SrcChartEx\ChartOCX\GraphDraw\BarDraw.cpp

; 351  : 	if(bIsDrawingThickness){

  00051	8b cb		 mov	 ecx, ebx
  00053	ff 15 00 00 00
	00		 call	 DWORD PTR __imp_?GetColor1@CGraphColor@@QBEKXZ
  00059	80 7d 1c 00	 cmp	 BYTE PTR _bIsDrawingThickness$[ebp], 0
  0005d	8b f0		 mov	 esi, eax
  0005f	ff 75 14	 push	 DWORD PTR _dWidth$[ebp]
  00062	8b 4d 18	 mov	 ecx, DWORD PTR _penThickness$[ebp]

; 352  : 		pPen[UP_PEN].CreatePen(PS_SOLID, GetThickness(penThickness.GetDrawingThickness1(), dWidth), graphColor.GetColor1());

  00065	8b 1d 00 00 00
	00		 mov	 ebx, DWORD PTR __imp_?GetDrawingThickness1@CPenThickness@@QBEHXZ
  0006b	75 06		 jne	 SHORT $LN24@CreateBrus

; 353  : 		pPen[DOWN_PEN].CreatePen(PS_SOLID, GetThickness(penThickness.GetDrawingThickness1(), dWidth), graphColor.GetColor3());
; 354  : 		pPen[BOHAP_PEN].CreatePen(PS_SOLID, GetThickness(penThickness.GetDrawingThickness1(), dWidth), graphColor.GetColor5());
; 355  : 	}
; 356  : 	else{
; 357  : 		pPen[UP_PEN].CreatePen(PS_SOLID, GetThickness(penThickness.GetThickness1(), dWidth), graphColor.GetColor1());

  0006d	8b 1d 00 00 00
	00		 mov	 ebx, DWORD PTR __imp_?GetThickness1@CPenThickness@@QBEHXZ
$LN24@CreateBrus:

; 358  : 		pPen[DOWN_PEN].CreatePen(PS_SOLID, GetThickness(penThickness.GetThickness1(), dWidth), graphColor.GetColor3());
; 359  : 		pPen[BOHAP_PEN].CreatePen(PS_SOLID, GetThickness(penThickness.GetThickness1(), dWidth), graphColor.GetColor5());
; 360  : 	}
; 361  : }

  00073	ff d3		 call	 ebx
  00075	8b 4d fc	 mov	 ecx, DWORD PTR _this$1$[ebp]
  00078	50		 push	 eax
  00079	e8 00 00 00 00	 call	 ?GetThickness@CDraw@@IBEHHABN@Z ; CDraw::GetThickness
  0007e	8b 3d 00 00 00
	00		 mov	 edi, DWORD PTR __imp__CreatePen@12
  00084	56		 push	 esi
  00085	50		 push	 eax
  00086	6a 00		 push	 0
  00088	ff d7		 call	 edi
  0008a	8b 4d 0c	 mov	 ecx, DWORD PTR _pPen$[ebp]
  0008d	50		 push	 eax
  0008e	e8 00 00 00 00	 call	 ?Attach@CGdiObject@@QAEHPAX@Z ; CGdiObject::Attach
  00093	8b 4d 10	 mov	 ecx, DWORD PTR _graphColor$[ebp]
  00096	ff 15 00 00 00
	00		 call	 DWORD PTR __imp_?GetColor3@CGraphColor@@QBEKXZ
  0009c	ff 75 14	 push	 DWORD PTR _dWidth$[ebp]
  0009f	8b 4d 18	 mov	 ecx, DWORD PTR _penThickness$[ebp]
  000a2	8b f0		 mov	 esi, eax
  000a4	ff d3		 call	 ebx
  000a6	8b 4d fc	 mov	 ecx, DWORD PTR _this$1$[ebp]
  000a9	50		 push	 eax
  000aa	e8 00 00 00 00	 call	 ?GetThickness@CDraw@@IBEHHABN@Z ; CDraw::GetThickness
  000af	56		 push	 esi
  000b0	50		 push	 eax
  000b1	6a 00		 push	 0
  000b3	ff d7		 call	 edi
  000b5	8b 4d 0c	 mov	 ecx, DWORD PTR _pPen$[ebp]
  000b8	50		 push	 eax
  000b9	8d 49 08	 lea	 ecx, DWORD PTR [ecx+8]
  000bc	e8 00 00 00 00	 call	 ?Attach@CGdiObject@@QAEHPAX@Z ; CGdiObject::Attach
  000c1	8b 4d 10	 mov	 ecx, DWORD PTR _graphColor$[ebp]
  000c4	ff 15 00 00 00
	00		 call	 DWORD PTR __imp_?GetColor5@CGraphColor@@QBEKXZ
  000ca	ff 75 14	 push	 DWORD PTR _dWidth$[ebp]
  000cd	8b 4d 18	 mov	 ecx, DWORD PTR _penThickness$[ebp]
  000d0	8b f0		 mov	 esi, eax
  000d2	ff d3		 call	 ebx
  000d4	8b 4d fc	 mov	 ecx, DWORD PTR _this$1$[ebp]
  000d7	50		 push	 eax
  000d8	e8 00 00 00 00	 call	 ?GetThickness@CDraw@@IBEHHABN@Z ; CDraw::GetThickness
  000dd	56		 push	 esi
  000de	50		 push	 eax
  000df	6a 00		 push	 0
  000e1	ff d7		 call	 edi
  000e3	8b 4d 0c	 mov	 ecx, DWORD PTR _pPen$[ebp]
  000e6	50		 push	 eax
  000e7	8d 49 10	 lea	 ecx, DWORD PTR [ecx+16]
  000ea	e8 00 00 00 00	 call	 ?Attach@CGdiObject@@QAEHPAX@Z ; CGdiObject::Attach
  000ef	5f		 pop	 edi
  000f0	5e		 pop	 esi
  000f1	5b		 pop	 ebx
  000f2	8b e5		 mov	 esp, ebp
  000f4	5d		 pop	 ebp
  000f5	c2 18 00	 ret	 24			; 00000018H
?CreateBrushsAndPens@CBarDraw@@IAEXPAVCBrush@@PAVCPen@@ABVCGraphColor@@ABNABVCPenThickness@@_N@Z ENDP ; CBarDraw::CreateBrushsAndPens
_TEXT	ENDS
; Function compile flags: /Ogtp
; File D:\git\src\IBK\IBK_DRFN\ProjSrc\SrcChartEx\ChartOCX\GraphDraw\BarDraw.cpp
; File C:\Program Files (x86)\Microsoft Visual Studio\2019\Community\VC\Tools\MSVC\14.29.30133\atlmfc\include\afxtempl.h
; File D:\git\src\IBK\IBK_DRFN\ProjSrc\SrcChartEx\ChartOCX\GraphDraw\BarDraw.cpp
;	COMDAT ?GetPrevData@CBarDraw@@IBE_NPAV?$CList@NN@@ABQAU__POSITION@@HAAN@Z
_TEXT	SEGMENT
_pDataList$ = 8						; size = 4
_curPos$ = 12						; size = 4
_nIndex$ = 16						; size = 4
_dPrevData$ = 20					; size = 4
?GetPrevData@CBarDraw@@IBE_NPAV?$CList@NN@@ABQAU__POSITION@@HAAN@Z PROC ; CBarDraw::GetPrevData, COMDAT
; _this$ = ecx

; 329  : {

  00000	55		 push	 ebp
  00001	8b ec		 mov	 ebp, esp

; 330  : 	if(pDataList == NULL || curPos == NULL || nIndex <= 0)

  00003	83 7d 08 00	 cmp	 DWORD PTR _pDataList$[ebp], 0
  00007	74 35		 je	 SHORT $LN6@GetPrevDat
  00009	8b 45 0c	 mov	 eax, DWORD PTR _curPos$[ebp]
  0000c	8b 00		 mov	 eax, DWORD PTR [eax]
  0000e	85 c0		 test	 eax, eax
  00010	74 2c		 je	 SHORT $LN6@GetPrevDat
  00012	8b 55 10	 mov	 edx, DWORD PTR _nIndex$[ebp]
  00015	85 d2		 test	 edx, edx
  00017	7e 25		 jle	 SHORT $LN6@GetPrevDat

; 332  : 
; 333  : 	POSITION prePos = curPos;
; 334  : 	for(int i = 0; i < nIndex; i++){

  00019	33 c9		 xor	 ecx, ecx
  0001b	0f 1f 44 00 00	 npad	 5
$LL4@GetPrevDat:
; File C:\Program Files (x86)\Microsoft Visual Studio\2019\Community\VC\Tools\MSVC\14.29.30133\atlmfc\include\afxtempl.h

; 825  : 		rPosition = (POSITION) pNode->pPrev;

  00020	8b 40 04	 mov	 eax, DWORD PTR [eax+4]
; File D:\git\src\IBK\IBK_DRFN\ProjSrc\SrcChartEx\ChartOCX\GraphDraw\BarDraw.cpp

; 336  : 		if(prePos == NULL)

  00023	85 c0		 test	 eax, eax
  00025	74 17		 je	 SHORT $LN6@GetPrevDat

; 332  : 
; 333  : 	POSITION prePos = curPos;
; 334  : 	for(int i = 0; i < nIndex; i++){

  00027	41		 inc	 ecx
  00028	3b ca		 cmp	 ecx, edx
  0002a	7c f4		 jl	 SHORT $LL4@GetPrevDat

; 337  : 			return false;
; 338  : 	}
; 339  : 	dPrevData = pDataList->GetAt(prePos);

  0002c	f2 0f 10 40 08	 movsd	 xmm0, QWORD PTR [eax+8]
  00031	8b 45 14	 mov	 eax, DWORD PTR _dPrevData$[ebp]
  00034	f2 0f 11 00	 movsd	 QWORD PTR [eax], xmm0

; 340  : 	return true;

  00038	b0 01		 mov	 al, 1

; 341  : }

  0003a	5d		 pop	 ebp
  0003b	c2 10 00	 ret	 16			; 00000010H
$LN6@GetPrevDat:

; 331  : 		return false;

  0003e	32 c0		 xor	 al, al

; 341  : }

  00040	5d		 pop	 ebp
  00041	c2 10 00	 ret	 16			; 00000010H
?GetPrevData@CBarDraw@@IBE_NPAV?$CList@NN@@ABQAU__POSITION@@HAAN@Z ENDP ; CBarDraw::GetPrevData
_TEXT	ENDS
; Function compile flags: /Ogtp
; File D:\git\src\IBK\IBK_DRFN\ProjSrc\SrcChartEx\ChartOCX\GraphDraw\BarDraw.cpp
; File C:\Program Files (x86)\Microsoft Visual Studio\2019\Community\VC\Tools\MSVC\14.29.30133\atlmfc\include\afxtempl.h
; File D:\git\src\IBK\IBK_DRFN\ProjSrc\SrcChartEx\ChartOCX\GraphDraw\BarDraw.cpp
; File C:\Program Files (x86)\Microsoft Visual Studio\2019\Community\VC\Tools\MSVC\14.29.30133\atlmfc\include\afxtempl.h
; File D:\git\src\IBK\IBK_DRFN\ProjSrc\SrcChartEx\ChartOCX\GraphDraw\BarDraw.cpp
;	COMDAT ?GetDatasInPacket@CBarDraw@@IBE_NPAVCPacket@@HAAPAV?$CList@NN@@AAPAU__POSITION@@@Z
_TEXT	SEGMENT
_pPacket$ = 8						; size = 4
_nDataIndex$ = 12					; size = 4
_pDataList$ = 16					; size = 4
_pos$ = 20						; size = 4
?GetDatasInPacket@CBarDraw@@IBE_NPAVCPacket@@HAAPAV?$CList@NN@@AAPAU__POSITION@@@Z PROC ; CBarDraw::GetDatasInPacket, COMDAT
; _this$ = ecx

; 317  : {

  00000	55		 push	 ebp
  00001	8b ec		 mov	 ebp, esp

; 318  : 	if(pPacket == NULL)

  00003	8b 4d 08	 mov	 ecx, DWORD PTR _pPacket$[ebp]
  00006	85 c9		 test	 ecx, ecx
  00008	74 4b		 je	 SHORT $LN16@GetDatasIn

; 319  : 		return false;
; 320  : 
; 321  : 	pDataList = pPacket->GetnumericDataList();	

  0000a	ff 15 00 00 00
	00		 call	 DWORD PTR __imp_?GetnumericDataList@CPacket@@QAEPAV?$CList@NN@@XZ
  00010	8b 4d 10	 mov	 ecx, DWORD PTR _pDataList$[ebp]
  00013	89 01		 mov	 DWORD PTR [ecx], eax

; 322  : 	if(pDataList == NULL)

  00015	85 c0		 test	 eax, eax
  00017	74 3c		 je	 SHORT $LN16@GetDatasIn

; 324  : 	pos = pDataList->FindIndex(nDataIndex);

  00019	8b 55 0c	 mov	 edx, DWORD PTR _nDataIndex$[ebp]
; File C:\Program Files (x86)\Microsoft Visual Studio\2019\Community\VC\Tools\MSVC\14.29.30133\atlmfc\include\afxtempl.h

; 1133 : 	if (nIndex >= m_nCount || nIndex < 0)

  0001c	3b 50 0c	 cmp	 edx, DWORD PTR [eax+12]
  0001f	7d 24		 jge	 SHORT $LN9@GetDatasIn
  00021	85 d2		 test	 edx, edx
  00023	78 20		 js	 SHORT $LN9@GetDatasIn

; 1135 : 
; 1136 : 	CNode* pNode = m_pNodeHead;

  00025	8b 48 04	 mov	 ecx, DWORD PTR [eax+4]

; 1137 : 	while (nIndex--)

  00028	74 1d		 je	 SHORT $LN5@GetDatasIn
  0002a	66 0f 1f 44 00
	00		 npad	 6
$LL6@GetDatasIn:

; 1138 : 	{
; 1139 : 		ASSERT(AfxIsValidAddress(pNode, sizeof(CNode)));
; 1140 : 		pNode = pNode->pNext;

  00030	8b 09		 mov	 ecx, DWORD PTR [ecx]
  00032	83 ea 01	 sub	 edx, 1
  00035	75 f9		 jne	 SHORT $LL6@GetDatasIn
; File D:\git\src\IBK\IBK_DRFN\ProjSrc\SrcChartEx\ChartOCX\GraphDraw\BarDraw.cpp

; 325  : 	return (pos != NULL);

  00037	8b 45 14	 mov	 eax, DWORD PTR _pos$[ebp]
  0003a	85 c9		 test	 ecx, ecx
  0003c	89 08		 mov	 DWORD PTR [eax], ecx
  0003e	0f 95 c0	 setne	 al

; 326  : }

  00041	5d		 pop	 ebp
  00042	c2 10 00	 ret	 16			; 00000010H
$LN9@GetDatasIn:
; File C:\Program Files (x86)\Microsoft Visual Studio\2019\Community\VC\Tools\MSVC\14.29.30133\atlmfc\include\afxtempl.h

; 1134 : 		return NULL;  // went too far

  00045	33 c9		 xor	 ecx, ecx
$LN5@GetDatasIn:
; File D:\git\src\IBK\IBK_DRFN\ProjSrc\SrcChartEx\ChartOCX\GraphDraw\BarDraw.cpp

; 324  : 	pos = pDataList->FindIndex(nDataIndex);

  00047	8b 45 14	 mov	 eax, DWORD PTR _pos$[ebp]

; 325  : 	return (pos != NULL);

  0004a	85 c9		 test	 ecx, ecx
  0004c	89 08		 mov	 DWORD PTR [eax], ecx
  0004e	0f 95 c0	 setne	 al

; 326  : }

  00051	5d		 pop	 ebp
  00052	c2 10 00	 ret	 16			; 00000010H
$LN16@GetDatasIn:

; 323  : 		return false;

  00055	32 c0		 xor	 al, al

; 326  : }

  00057	5d		 pop	 ebp
  00058	c2 10 00	 ret	 16			; 00000010H
?GetDatasInPacket@CBarDraw@@IBE_NPAVCPacket@@HAAPAV?$CList@NN@@AAPAU__POSITION@@@Z ENDP ; CBarDraw::GetDatasInPacket
_TEXT	ENDS
; Function compile flags: /Ogtp
; File D:\git\src\IBK\IBK_DRFN\ProjSrc\SrcChartEx\ChartOCX\GraphDraw\BarDraw.cpp
; File C:\Program Files (x86)\Microsoft Visual Studio\2019\Community\VC\Tools\MSVC\14.29.30133\atlmfc\include\afxtempl.h
; File D:\git\src\IBK\IBK_DRFN\ProjSrc\SrcChartEx\ChartOCX\GraphDraw\BarDraw.cpp
; File C:\Program Files (x86)\Microsoft Visual Studio\2019\Community\VC\Tools\MSVC\14.29.30133\atlmfc\include\afxtempl.h
; File D:\git\src\IBK\IBK_DRFN\ProjSrc\SrcChartEx\ChartOCX\GraphDraw\BarDraw.cpp
;	COMDAT ?GetDatasInPacket@CBarDraw@@IBE_NPAVCPacket@@HAAHAAPAV?$CList@NN@@AAPAU__POSITION@@@Z
_TEXT	SEGMENT
_pPacket$ = 8						; size = 4
_nDataIndex$ = 12					; size = 4
_nDrawingIndex$ = 16					; size = 4
_pDataList$ = 20					; size = 4
_pos$ = 24						; size = 4
?GetDatasInPacket@CBarDraw@@IBE_NPAVCPacket@@HAAHAAPAV?$CList@NN@@AAPAU__POSITION@@@Z PROC ; CBarDraw::GetDatasInPacket, COMDAT
; _this$ = ecx

; 306  : {

  00000	55		 push	 ebp
  00001	8b ec		 mov	 ebp, esp
  00003	57		 push	 edi

; 307  : 	if(pPacket == NULL)

  00004	8b 7d 08	 mov	 edi, DWORD PTR _pPacket$[ebp]
  00007	85 ff		 test	 edi, edi
  00009	75 07		 jne	 SHORT $LN2@GetDatasIn

; 308  : 		return false;

  0000b	32 c0		 xor	 al, al
  0000d	5f		 pop	 edi

; 314  : }

  0000e	5d		 pop	 ebp
  0000f	c2 14 00	 ret	 20			; 00000014H
$LN2@GetDatasIn:
  00012	56		 push	 esi

; 309  : 
; 310  : 	if(pPacket->GetStartPeriod() > nDataIndex)

  00013	8b cf		 mov	 ecx, edi
  00015	ff 15 00 00 00
	00		 call	 DWORD PTR __imp_?GetStartPeriod@CPacket@@QAEHXZ
  0001b	8b 75 0c	 mov	 esi, DWORD PTR _nDataIndex$[ebp]
  0001e	3b c6		 cmp	 eax, esi
  00020	7e 0f		 jle	 SHORT $LN3@GetDatasIn

; 311  : 		nDrawingIndex = pPacket->GetStartPeriod() - nDataIndex;

  00022	8b cf		 mov	 ecx, edi
  00024	ff 15 00 00 00
	00		 call	 DWORD PTR __imp_?GetStartPeriod@CPacket@@QAEHXZ
  0002a	8b 55 10	 mov	 edx, DWORD PTR _nDrawingIndex$[ebp]
  0002d	2b c6		 sub	 eax, esi
  0002f	89 02		 mov	 DWORD PTR [edx], eax
$LN3@GetDatasIn:

; 321  : 	pDataList = pPacket->GetnumericDataList();	

  00031	8b cf		 mov	 ecx, edi
  00033	ff 15 00 00 00
	00		 call	 DWORD PTR __imp_?GetnumericDataList@CPacket@@QAEPAV?$CList@NN@@XZ
  00039	8b 4d 14	 mov	 ecx, DWORD PTR _pDataList$[ebp]
  0003c	89 01		 mov	 DWORD PTR [ecx], eax

; 322  : 	if(pDataList == NULL)

  0003e	85 c0		 test	 eax, eax
  00040	75 08		 jne	 SHORT $LN7@GetDatasIn

; 312  : 
; 313  : 	return GetDatasInPacket(pPacket, nDataIndex, pDataList, pos);

  00042	5e		 pop	 esi

; 323  : 		return false;

  00043	32 c0		 xor	 al, al
  00045	5f		 pop	 edi

; 314  : }

  00046	5d		 pop	 ebp
  00047	c2 14 00	 ret	 20			; 00000014H
$LN7@GetDatasIn:
; File C:\Program Files (x86)\Microsoft Visual Studio\2019\Community\VC\Tools\MSVC\14.29.30133\atlmfc\include\afxtempl.h

; 1133 : 	if (nIndex >= m_nCount || nIndex < 0)

  0004a	3b 70 0c	 cmp	 esi, DWORD PTR [eax+12]
  0004d	7d 20		 jge	 SHORT $LN13@GetDatasIn
  0004f	85 f6		 test	 esi, esi
  00051	78 1c		 js	 SHORT $LN13@GetDatasIn

; 1135 : 
; 1136 : 	CNode* pNode = m_pNodeHead;

  00053	8b 48 04	 mov	 ecx, DWORD PTR [eax+4]

; 1137 : 	while (nIndex--)

  00056	74 19		 je	 SHORT $LN9@GetDatasIn
$LL10@GetDatasIn:

; 1138 : 	{
; 1139 : 		ASSERT(AfxIsValidAddress(pNode, sizeof(CNode)));
; 1140 : 		pNode = pNode->pNext;

  00058	8b 09		 mov	 ecx, DWORD PTR [ecx]
  0005a	83 ee 01	 sub	 esi, 1
  0005d	75 f9		 jne	 SHORT $LL10@GetDatasIn
; File D:\git\src\IBK\IBK_DRFN\ProjSrc\SrcChartEx\ChartOCX\GraphDraw\BarDraw.cpp

; 325  : 	return (pos != NULL);

  0005f	8b 45 18	 mov	 eax, DWORD PTR _pos$[ebp]
  00062	85 c9		 test	 ecx, ecx

; 312  : 
; 313  : 	return GetDatasInPacket(pPacket, nDataIndex, pDataList, pos);

  00064	5e		 pop	 esi
  00065	5f		 pop	 edi

; 324  : 	pos = pDataList->FindIndex(nDataIndex);

  00066	89 08		 mov	 DWORD PTR [eax], ecx

; 325  : 	return (pos != NULL);

  00068	0f 95 c0	 setne	 al

; 314  : }

  0006b	5d		 pop	 ebp
  0006c	c2 14 00	 ret	 20			; 00000014H
$LN13@GetDatasIn:
; File C:\Program Files (x86)\Microsoft Visual Studio\2019\Community\VC\Tools\MSVC\14.29.30133\atlmfc\include\afxtempl.h

; 1134 : 		return NULL;  // went too far

  0006f	33 c9		 xor	 ecx, ecx
$LN9@GetDatasIn:
; File D:\git\src\IBK\IBK_DRFN\ProjSrc\SrcChartEx\ChartOCX\GraphDraw\BarDraw.cpp

; 324  : 	pos = pDataList->FindIndex(nDataIndex);

  00071	8b 45 18	 mov	 eax, DWORD PTR _pos$[ebp]

; 325  : 	return (pos != NULL);

  00074	85 c9		 test	 ecx, ecx

; 312  : 
; 313  : 	return GetDatasInPacket(pPacket, nDataIndex, pDataList, pos);

  00076	5e		 pop	 esi
  00077	5f		 pop	 edi

; 324  : 	pos = pDataList->FindIndex(nDataIndex);

  00078	89 08		 mov	 DWORD PTR [eax], ecx

; 325  : 	return (pos != NULL);

  0007a	0f 95 c0	 setne	 al

; 314  : }

  0007d	5d		 pop	 ebp
  0007e	c2 14 00	 ret	 20			; 00000014H
?GetDatasInPacket@CBarDraw@@IBE_NPAVCPacket@@HAAHAAPAV?$CList@NN@@AAPAU__POSITION@@@Z ENDP ; CBarDraw::GetDatasInPacket
_TEXT	ENDS
; Function compile flags: /Ogtp
; File D:\git\src\IBK\IBK_DRFN\ProjSrc\SrcChartEx\ChartOCX\GraphDraw\BarDraw.cpp
; File C:\Program Files (x86)\Microsoft Visual Studio\2019\Community\VC\Tools\MSVC\14.29.30133\atlmfc\include\afxtempl.h
; File D:\git\src\IBK\IBK_DRFN\ProjSrc\SrcChartEx\ChartOCX\GraphDraw\BarDraw.cpp
; File C:\Program Files (x86)\Microsoft Visual Studio\2019\Community\VC\Tools\MSVC\14.29.30133\atlmfc\include\afxtempl.h
; File D:\git\src\IBK\IBK_DRFN\ProjSrc\SrcChartEx\ChartOCX\GraphDraw\BarDraw.cpp
;	COMDAT ?GetDatasInPacket@CBarDraw@@IBE_NPAVCPacket@@0HAAHAAPAV?$CList@NN@@AAPAU__POSITION@@23@Z
_TEXT	SEGMENT
_this$1$ = -4						; size = 4
_pVolumePacket$ = 8					; size = 4
_pClosePacket$ = 12					; size = 4
_nDataIndex$ = 16					; size = 4
_nDrawingIndex$ = 20					; size = 4
_pVolumeList$ = 24					; size = 4
_volumePos$ = 28					; size = 4
_pCloseList$ = 32					; size = 4
_closePos$ = 36						; size = 4
?GetDatasInPacket@CBarDraw@@IBE_NPAVCPacket@@0HAAHAAPAV?$CList@NN@@AAPAU__POSITION@@23@Z PROC ; CBarDraw::GetDatasInPacket, COMDAT
; _this$ = ecx

; 292  : {

  00000	55		 push	 ebp
  00001	8b ec		 mov	 ebp, esp
  00003	51		 push	 ecx
  00004	53		 push	 ebx
  00005	8b 5d 1c	 mov	 ebx, DWORD PTR _volumePos$[ebp]
  00008	56		 push	 esi
  00009	57		 push	 edi

; 293  : 	if(pVolumePacket == NULL || pClosePacket == NULL)

  0000a	8b 7d 08	 mov	 edi, DWORD PTR _pVolumePacket$[ebp]
  0000d	89 4d fc	 mov	 DWORD PTR _this$1$[ebp], ecx
  00010	85 ff		 test	 edi, edi
  00012	74 7a		 je	 SHORT $LN3@GetDatasIn
  00014	83 7d 0c 00	 cmp	 DWORD PTR _pClosePacket$[ebp], 0
  00018	74 74		 je	 SHORT $LN3@GetDatasIn

; 294  : 		return false;
; 295  : 
; 296  : 	if(pVolumePacket->GetStartPeriod() > nDataIndex)

  0001a	8b cf		 mov	 ecx, edi
  0001c	ff 15 00 00 00
	00		 call	 DWORD PTR __imp_?GetStartPeriod@CPacket@@QAEHXZ
  00022	8b 75 10	 mov	 esi, DWORD PTR _nDataIndex$[ebp]
  00025	3b c6		 cmp	 eax, esi
  00027	7e 0f		 jle	 SHORT $LN4@GetDatasIn

; 297  : 		nDrawingIndex = pVolumePacket->GetStartPeriod() - nDataIndex;

  00029	8b cf		 mov	 ecx, edi
  0002b	ff 15 00 00 00
	00		 call	 DWORD PTR __imp_?GetStartPeriod@CPacket@@QAEHXZ
  00031	8b 55 14	 mov	 edx, DWORD PTR _nDrawingIndex$[ebp]
  00034	2b c6		 sub	 eax, esi
  00036	89 02		 mov	 DWORD PTR [edx], eax
$LN4@GetDatasIn:

; 321  : 	pDataList = pPacket->GetnumericDataList();	

  00038	8b cf		 mov	 ecx, edi
  0003a	ff 15 00 00 00
	00		 call	 DWORD PTR __imp_?GetnumericDataList@CPacket@@QAEPAV?$CList@NN@@XZ
  00040	8b 4d 18	 mov	 ecx, DWORD PTR _pVolumeList$[ebp]
  00043	89 01		 mov	 DWORD PTR [ecx], eax

; 322  : 	if(pDataList == NULL)

  00045	85 c0		 test	 eax, eax
  00047	74 45		 je	 SHORT $LN3@GetDatasIn

; 324  : 	pos = pDataList->FindIndex(nDataIndex);

  00049	8b ce		 mov	 ecx, esi
; File C:\Program Files (x86)\Microsoft Visual Studio\2019\Community\VC\Tools\MSVC\14.29.30133\atlmfc\include\afxtempl.h

; 1133 : 	if (nIndex >= m_nCount || nIndex < 0)

  0004b	3b 70 0c	 cmp	 esi, DWORD PTR [eax+12]
  0004e	7d 38		 jge	 SHORT $LN15@GetDatasIn
  00050	85 f6		 test	 esi, esi
  00052	78 34		 js	 SHORT $LN15@GetDatasIn

; 1135 : 
; 1136 : 	CNode* pNode = m_pNodeHead;

  00054	8b 40 04	 mov	 eax, DWORD PTR [eax+4]

; 1137 : 	while (nIndex--)

  00057	74 0e		 je	 SHORT $LN18@GetDatasIn
  00059	0f 1f 80 00 00
	00 00		 npad	 7
$LL12@GetDatasIn:

; 1138 : 	{
; 1139 : 		ASSERT(AfxIsValidAddress(pNode, sizeof(CNode)));
; 1140 : 		pNode = pNode->pNext;

  00060	8b 00		 mov	 eax, DWORD PTR [eax]
  00062	83 e9 01	 sub	 ecx, 1
  00065	75 f9		 jne	 SHORT $LL12@GetDatasIn
$LN18@GetDatasIn:
; File D:\git\src\IBK\IBK_DRFN\ProjSrc\SrcChartEx\ChartOCX\GraphDraw\BarDraw.cpp

; 324  : 	pos = pDataList->FindIndex(nDataIndex);

  00067	89 03		 mov	 DWORD PTR [ebx], eax

; 298  : 
; 299  : 	if(!GetDatasInPacket(pVolumePacket, nDataIndex, pVolumeList, volumePos))

  00069	85 c0		 test	 eax, eax
  0006b	74 21		 je	 SHORT $LN3@GetDatasIn

; 300  : 		return false;
; 301  : 	return GetDatasInPacket(pClosePacket, nDataIndex, pCloseList, closePos);

  0006d	ff 75 24	 push	 DWORD PTR _closePos$[ebp]
  00070	8b 4d fc	 mov	 ecx, DWORD PTR _this$1$[ebp]
  00073	ff 75 20	 push	 DWORD PTR _pCloseList$[ebp]
  00076	56		 push	 esi
  00077	ff 75 0c	 push	 DWORD PTR _pClosePacket$[ebp]
  0007a	e8 00 00 00 00	 call	 ?GetDatasInPacket@CBarDraw@@IBE_NPAVCPacket@@HAAPAV?$CList@NN@@AAPAU__POSITION@@@Z ; CBarDraw::GetDatasInPacket
  0007f	5f		 pop	 edi

; 302  : }

  00080	5e		 pop	 esi
  00081	5b		 pop	 ebx
  00082	8b e5		 mov	 esp, ebp
  00084	5d		 pop	 ebp
  00085	c2 20 00	 ret	 32			; 00000020H
$LN15@GetDatasIn:
; File C:\Program Files (x86)\Microsoft Visual Studio\2019\Community\VC\Tools\MSVC\14.29.30133\atlmfc\include\afxtempl.h

; 1134 : 		return NULL;  // went too far

  00088	c7 03 00 00 00
	00		 mov	 DWORD PTR [ebx], 0
$LN3@GetDatasIn:
  0008e	5f		 pop	 edi
; File D:\git\src\IBK\IBK_DRFN\ProjSrc\SrcChartEx\ChartOCX\GraphDraw\BarDraw.cpp

; 302  : }

  0008f	5e		 pop	 esi
  00090	32 c0		 xor	 al, al
  00092	5b		 pop	 ebx
  00093	8b e5		 mov	 esp, ebp
  00095	5d		 pop	 ebp
  00096	c2 20 00	 ret	 32			; 00000020H
?GetDatasInPacket@CBarDraw@@IBE_NPAVCPacket@@0HAAHAAPAV?$CList@NN@@AAPAU__POSITION@@23@Z ENDP ; CBarDraw::GetDatasInPacket
_TEXT	ENDS
; Function compile flags: /Ogtp
; File D:\git\src\IBK\IBK_DRFN\ProjSrc\SrcChartEx\ChartOCX\GraphDraw\BarDraw.cpp
;	COMDAT ?GetDatasInPacket@CBarDraw@@IBE_NPAVCPacket@@00HAAHAAPAV?$CList@NN@@AAPAU__POSITION@@2323@Z
_TEXT	SEGMENT
_pVolumePacket$ = 8					; size = 4
_pOpenPacket$ = 12					; size = 4
_pClosePacket$ = 16					; size = 4
_nDataIndex$ = 20					; size = 4
_nDrawingIndex$ = 24					; size = 4
_pVolumeList$ = 28					; size = 4
_volumePos$ = 32					; size = 4
_pOpenList$ = 36					; size = 4
_openPos$ = 40						; size = 4
_pCloseList$ = 44					; size = 4
_closePos$ = 48						; size = 4
?GetDatasInPacket@CBarDraw@@IBE_NPAVCPacket@@00HAAHAAPAV?$CList@NN@@AAPAU__POSITION@@2323@Z PROC ; CBarDraw::GetDatasInPacket, COMDAT
; _this$ = ecx

; 273  : {

  00000	55		 push	 ebp
  00001	8b ec		 mov	 ebp, esp
  00003	53		 push	 ebx
  00004	56		 push	 esi

; 274  : 	if(pVolumePacket == NULL || pOpenPacket == NULL || pClosePacket == NULL)

  00005	8b 75 08	 mov	 esi, DWORD PTR _pVolumePacket$[ebp]
  00008	8b d9		 mov	 ebx, ecx
  0000a	57		 push	 edi
  0000b	85 f6		 test	 esi, esi
  0000d	74 6a		 je	 SHORT $LN3@GetDatasIn
  0000f	83 7d 0c 00	 cmp	 DWORD PTR _pOpenPacket$[ebp], 0
  00013	74 64		 je	 SHORT $LN3@GetDatasIn
  00015	83 7d 10 00	 cmp	 DWORD PTR _pClosePacket$[ebp], 0
  00019	74 5e		 je	 SHORT $LN3@GetDatasIn

; 275  : 		return false;
; 276  : 
; 277  : 	if(pVolumePacket->GetStartPeriod() > nDataIndex)

  0001b	8b ce		 mov	 ecx, esi
  0001d	ff 15 00 00 00
	00		 call	 DWORD PTR __imp_?GetStartPeriod@CPacket@@QAEHXZ
  00023	8b 7d 14	 mov	 edi, DWORD PTR _nDataIndex$[ebp]
  00026	3b c7		 cmp	 eax, edi
  00028	7e 0f		 jle	 SHORT $LN4@GetDatasIn

; 278  : 		nDrawingIndex = pVolumePacket->GetStartPeriod() - nDataIndex;

  0002a	8b ce		 mov	 ecx, esi
  0002c	ff 15 00 00 00
	00		 call	 DWORD PTR __imp_?GetStartPeriod@CPacket@@QAEHXZ
  00032	8b 4d 18	 mov	 ecx, DWORD PTR _nDrawingIndex$[ebp]
  00035	2b c7		 sub	 eax, edi
  00037	89 01		 mov	 DWORD PTR [ecx], eax
$LN4@GetDatasIn:

; 279  : 
; 280  : 	if(!GetDatasInPacket(pVolumePacket, nDataIndex, pVolumeList, volumePos))

  00039	ff 75 20	 push	 DWORD PTR _volumePos$[ebp]
  0003c	8b cb		 mov	 ecx, ebx
  0003e	ff 75 1c	 push	 DWORD PTR _pVolumeList$[ebp]
  00041	57		 push	 edi
  00042	56		 push	 esi
  00043	e8 00 00 00 00	 call	 ?GetDatasInPacket@CBarDraw@@IBE_NPAVCPacket@@HAAPAV?$CList@NN@@AAPAU__POSITION@@@Z ; CBarDraw::GetDatasInPacket
  00048	84 c0		 test	 al, al
  0004a	74 2d		 je	 SHORT $LN3@GetDatasIn

; 281  : 		return false;
; 282  : 	if(!GetDatasInPacket(pOpenPacket, nDataIndex, pOpenList, openPos))

  0004c	ff 75 28	 push	 DWORD PTR _openPos$[ebp]
  0004f	8b cb		 mov	 ecx, ebx
  00051	ff 75 24	 push	 DWORD PTR _pOpenList$[ebp]
  00054	57		 push	 edi
  00055	ff 75 0c	 push	 DWORD PTR _pOpenPacket$[ebp]
  00058	e8 00 00 00 00	 call	 ?GetDatasInPacket@CBarDraw@@IBE_NPAVCPacket@@HAAPAV?$CList@NN@@AAPAU__POSITION@@@Z ; CBarDraw::GetDatasInPacket
  0005d	84 c0		 test	 al, al
  0005f	74 18		 je	 SHORT $LN3@GetDatasIn

; 283  : 		return false;
; 284  : 	return GetDatasInPacket(pClosePacket, nDataIndex, pCloseList, closePos);

  00061	ff 75 30	 push	 DWORD PTR _closePos$[ebp]
  00064	8b cb		 mov	 ecx, ebx
  00066	ff 75 2c	 push	 DWORD PTR _pCloseList$[ebp]
  00069	57		 push	 edi
  0006a	ff 75 10	 push	 DWORD PTR _pClosePacket$[ebp]
  0006d	e8 00 00 00 00	 call	 ?GetDatasInPacket@CBarDraw@@IBE_NPAVCPacket@@HAAPAV?$CList@NN@@AAPAU__POSITION@@@Z ; CBarDraw::GetDatasInPacket
  00072	5f		 pop	 edi

; 285  : }

  00073	5e		 pop	 esi
  00074	5b		 pop	 ebx
  00075	5d		 pop	 ebp
  00076	c2 2c 00	 ret	 44			; 0000002cH
$LN3@GetDatasIn:
  00079	5f		 pop	 edi
  0007a	5e		 pop	 esi
  0007b	32 c0		 xor	 al, al
  0007d	5b		 pop	 ebx
  0007e	5d		 pop	 ebp
  0007f	c2 2c 00	 ret	 44			; 0000002cH
?GetDatasInPacket@CBarDraw@@IBE_NPAVCPacket@@00HAAHAAPAV?$CList@NN@@AAPAU__POSITION@@2323@Z ENDP ; CBarDraw::GetDatasInPacket
_TEXT	ENDS
; Function compile flags: /Ogtp
; File D:\git\src\IBK\IBK_DRFN\ProjSrc\SrcChartEx\ChartOCX\GraphDraw\BarDraw.cpp
; File C:\Program Files (x86)\Microsoft Visual Studio\2019\Community\VC\Tools\MSVC\14.29.30133\atlmfc\include\afxtempl.h
; File D:\git\src\IBK\IBK_DRFN\ProjSrc\SrcChartEx\ChartOCX\GraphDraw\BarDraw.cpp
;	COMDAT ?GetTotalData@CBarDraw@@IBENPAV?$CList@NN@@H@Z
_TEXT	SEGMENT
_dTotalData$ = -8					; size = 8
_pDataList$ = 8						; size = 4
_nEndIndex$ = 12					; size = 4
?GetTotalData@CBarDraw@@IBENPAV?$CList@NN@@H@Z PROC	; CBarDraw::GetTotalData, COMDAT
; _this$ = ecx

; 235  : {

  00000	55		 push	 ebp
  00001	8b ec		 mov	 ebp, esp

; 236  : 	if(pDataList == NULL || pDataList->GetCount() <= 0)

  00003	8b 4d 08	 mov	 ecx, DWORD PTR _pDataList$[ebp]
  00006	83 ec 08	 sub	 esp, 8
  00009	85 c9		 test	 ecx, ecx
  0000b	74 54		 je	 SHORT $LN6@GetTotalDa
  0000d	83 79 0c 00	 cmp	 DWORD PTR [ecx+12], 0
  00011	7e 4e		 jle	 SHORT $LN6@GetTotalDa

; 238  : 
; 239  : 	double dTotalData = 0.0;
; 240  : 	POSITION pos = pDataList->GetHeadPosition();

  00013	8b 49 04	 mov	 ecx, DWORD PTR [ecx+4]
  00016	0f 57 c9	 xorps	 xmm1, xmm1
  00019	56		 push	 esi

; 241  : 	for(int nIndex = 0; nIndex < nEndIndex; nIndex++)

  0001a	8b 75 0c	 mov	 esi, DWORD PTR _nEndIndex$[ebp]
  0001d	33 d2		 xor	 edx, edx
  0001f	f2 0f 11 4d f8	 movsd	 QWORD PTR _dTotalData$[ebp], xmm1
  00024	0f 57 d2	 xorps	 xmm2, xmm2
  00027	85 f6		 test	 esi, esi
  00029	7e 2c		 jle	 SHORT $LN13@GetTotalDa
  0002b	f2 0f 10 1d 00
	00 00 00	 movsd	 xmm3, QWORD PTR __xmm@7fffffffffffffff7fffffffffffffff
$LL4@GetTotalDa:

; 242  : 	{
; 243  : 		if(pos == NULL)

  00033	85 c9		 test	 ecx, ecx
  00035	74 1b		 je	 SHORT $LN17@GetTotalDa
; File C:\Program Files (x86)\Microsoft Visual Studio\2019\Community\VC\Tools\MSVC\14.29.30133\atlmfc\include\afxtempl.h

; 811  : 	{ CNode* pNode = (CNode*) rPosition;

  00037	8b c1		 mov	 eax, ecx

; 812  : 		ASSERT(AfxIsValidAddress(pNode, sizeof(CNode)));
; 813  : 		rPosition = (POSITION) pNode->pNext;

  00039	8b 09		 mov	 ecx, DWORD PTR [ecx]
; File D:\git\src\IBK\IBK_DRFN\ProjSrc\SrcChartEx\ChartOCX\GraphDraw\BarDraw.cpp

; 246  : 		double dData = pDataList->GetNext(pos);

  0003b	f2 0f 10 40 08	 movsd	 xmm0, QWORD PTR [eax+8]

; 247  : 		if(dData < 0)

  00040	66 0f 2f d0	 comisd	 xmm2, xmm0
  00044	76 03		 jbe	 SHORT $LN8@GetTotalDa

; 248  : 			dData = fabs(dData);

  00046	0f 54 c3	 andps	 xmm0, xmm3
$LN8@GetTotalDa:

; 241  : 	for(int nIndex = 0; nIndex < nEndIndex; nIndex++)

  00049	42		 inc	 edx

; 249  : 		dTotalData += dData;

  0004a	f2 0f 58 c8	 addsd	 xmm1, xmm0
  0004e	3b d6		 cmp	 edx, esi
  00050	7c e1		 jl	 SHORT $LL4@GetTotalDa
$LN17@GetTotalDa:
  00052	f2 0f 11 4d f8	 movsd	 QWORD PTR _dTotalData$[ebp], xmm1
$LN13@GetTotalDa:

; 250  : 	}
; 251  : 
; 252  : 	return dTotalData;

  00057	dd 45 f8	 fld	 QWORD PTR _dTotalData$[ebp]
  0005a	5e		 pop	 esi

; 253  : }

  0005b	8b e5		 mov	 esp, ebp
  0005d	5d		 pop	 ebp
  0005e	c2 08 00	 ret	 8
$LN6@GetTotalDa:

; 237  : 		return 0.0;

  00061	d9 ee		 fldz

; 253  : }

  00063	8b e5		 mov	 esp, ebp
  00065	5d		 pop	 ebp
  00066	c2 08 00	 ret	 8
?GetTotalData@CBarDraw@@IBENPAV?$CList@NN@@H@Z ENDP	; CBarDraw::GetTotalData
_TEXT	ENDS
; Function compile flags: /Ogtp
; File D:\git\src\IBK\IBK_DRFN\ProjSrc\SrcChartEx\ChartOCX\GraphDraw\BarDraw.cpp
;	COMDAT ?GetPacket@CBarDraw@@IBEPAVCPacket@@PAV2@ABV?$CStringT@DV?$StrTraitMFC_DLL@DV?$ChTraitsCRT@D@ATL@@@@@ATL@@@Z
_TEXT	SEGMENT
_pBasePacket$ = 8					; size = 4
_strPacketName$ = 12					; size = 4
?GetPacket@CBarDraw@@IBEPAVCPacket@@PAV2@ABV?$CStringT@DV?$StrTraitMFC_DLL@DV?$ChTraitsCRT@D@ATL@@@@@ATL@@@Z PROC ; CBarDraw::GetPacket, COMDAT
; _this$ = ecx

; 256  : {

  00000	55		 push	 ebp
  00001	8b ec		 mov	 ebp, esp

; 257  : 	if(pBasePacket == NULL)

  00003	8b 4d 08	 mov	 ecx, DWORD PTR _pBasePacket$[ebp]
  00006	56		 push	 esi
  00007	85 c9		 test	 ecx, ecx
  00009	74 27		 je	 SHORT $LN6@GetPacket

; 258  : 		return NULL;
; 259  : 
; 260  : 	CPacketList* pPacketList = pBasePacket->GetPacketList();

  0000b	ff 15 00 00 00
	00		 call	 DWORD PTR __imp_?GetPacketList@CPacket@@QAEPAVCPacketList@@XZ
  00011	8b f0		 mov	 esi, eax

; 261  : 	if(pPacketList == NULL)

  00013	85 f6		 test	 esi, esi
  00015	74 1b		 je	 SHORT $LN6@GetPacket

; 263  : 
; 264  : 	return pPacketList->GetBaseData(strPacketName);

  00017	6a 01		 push	 1
  00019	51		 push	 ecx
  0001a	8b cc		 mov	 ecx, esp
  0001c	ff 75 0c	 push	 DWORD PTR _strPacketName$[ebp]
  0001f	ff 15 00 00 00
	00		 call	 DWORD PTR __imp_??0?$CStringT@DV?$StrTraitMFC_DLL@DV?$ChTraitsCRT@D@ATL@@@@@ATL@@QAE@ABV01@@Z
  00025	8b ce		 mov	 ecx, esi
  00027	ff 15 00 00 00
	00		 call	 DWORD PTR __imp_?GetBaseData@CPacketList@@QAEPAVCPacket@@V?$CStringT@DV?$StrTraitMFC_DLL@DV?$ChTraitsCRT@D@ATL@@@@@ATL@@_N@Z

; 265  : }

  0002d	5e		 pop	 esi
  0002e	5d		 pop	 ebp
  0002f	c2 08 00	 ret	 8
$LN6@GetPacket:

; 262  : 		return NULL;

  00032	33 c0		 xor	 eax, eax

; 265  : }

  00034	5e		 pop	 esi
  00035	5d		 pop	 ebp
  00036	c2 08 00	 ret	 8
?GetPacket@CBarDraw@@IBEPAVCPacket@@PAV2@ABV?$CStringT@DV?$StrTraitMFC_DLL@DV?$ChTraitsCRT@D@ATL@@@@@ATL@@@Z ENDP ; CBarDraw::GetPacket
_TEXT	ENDS
; Function compile flags: /Ogtp
; File D:\git\src\IBK\IBK_DRFN\ProjSrc\SrcChartEx\ChartOCX\GraphDraw\BarDraw.cpp
; File C:\Program Files (x86)\Microsoft Visual Studio\2019\Community\VC\Tools\MSVC\14.29.30133\atlmfc\include\afxtempl.h
; File D:\git\src\IBK\IBK_DRFN\ProjSrc\SrcChartEx\ChartOCX\GraphDraw\BarDraw.cpp
; File C:\Program Files (x86)\Microsoft Visual Studio\2019\Community\VC\Tools\MSVC\14.29.30133\atlmfc\include\afxtempl.h
; File D:\git\src\IBK\IBK_DRFN\ProjSrc\SrcChartEx\ChartOCX\GraphDraw\BarDraw.cpp
;	COMDAT ?GetDrawType@CBarDraw@@IBEHPAVCIndicatorInfo@@_N@Z
_TEXT	SEGMENT
_pIndicatorInfo$ = 8					; size = 4
_bIsDrawType$ = 12					; size = 1
?GetDrawType@CBarDraw@@IBEHPAVCIndicatorInfo@@_N@Z PROC	; CBarDraw::GetDrawType, COMDAT
; _this$ = ecx

; 217  : {

  00000	55		 push	 ebp
  00001	8b ec		 mov	 ebp, esp

; 218  : 	if(pIndicatorInfo == NULL)

  00003	8b 4d 08	 mov	 ecx, DWORD PTR _pIndicatorInfo$[ebp]
  00006	85 c9		 test	 ecx, ecx
  00008	74 2e		 je	 SHORT $LN6@GetDrawTyp

; 219  : 		return 0;
; 220  : 
; 221  : 	CList<double, double>* pDoubleList = NULL;
; 222  : 	if(bIsDrawType)

  0000a	80 7d 0c 00	 cmp	 BYTE PTR _bIsDrawType$[ebp], 0
  0000e	74 08		 je	 SHORT $LN3@GetDrawTyp

; 223  : 		pDoubleList = pIndicatorInfo->GetDrawConditionList();

  00010	ff 15 00 00 00
	00		 call	 DWORD PTR __imp_?GetDrawConditionList@CIndicatorInfo@@QAEPAV?$CList@NN@@XZ
  00016	eb 06		 jmp	 SHORT $LN4@GetDrawTyp
$LN3@GetDrawTyp:

; 224  : 	else
; 225  : 		pDoubleList = pIndicatorInfo->GetCommonCalConditionList();

  00018	ff 15 00 00 00
	00		 call	 DWORD PTR __imp_?GetCommonCalConditionList@CIndicatorInfo@@QAEPAV?$CList@NN@@XZ
$LN4@GetDrawTyp:

; 226  : 
; 227  : 	if(pDoubleList == NULL || pDoubleList->GetCount() <= 0)

  0001e	85 c0		 test	 eax, eax
  00020	74 16		 je	 SHORT $LN6@GetDrawTyp
  00022	83 78 0c 00	 cmp	 DWORD PTR [eax+12], 0
  00026	7e 10		 jle	 SHORT $LN6@GetDrawTyp
; File C:\Program Files (x86)\Microsoft Visual Studio\2019\Community\VC\Tools\MSVC\14.29.30133\atlmfc\include\afxtempl.h

; 789  : 	{ ENSURE(m_pNodeHead != NULL);

  00028	8b 40 04	 mov	 eax, DWORD PTR [eax+4]
  0002b	85 c0		 test	 eax, eax
  0002d	74 0f		 je	 SHORT $LN17@GetDrawTyp
; File D:\git\src\IBK\IBK_DRFN\ProjSrc\SrcChartEx\ChartOCX\GraphDraw\BarDraw.cpp

; 230  : 	return (int)pDoubleList->GetHead();

  0002f	f2 0f 2c 40 08	 cvttsd2si eax, QWORD PTR [eax+8]

; 231  : }

  00034	5d		 pop	 ebp
  00035	c2 08 00	 ret	 8
$LN6@GetDrawTyp:

; 228  : 		return 0;

  00038	33 c0		 xor	 eax, eax

; 231  : }

  0003a	5d		 pop	 ebp
  0003b	c2 08 00	 ret	 8
$LN17@GetDrawTyp:
; File C:\Program Files (x86)\Microsoft Visual Studio\2019\Community\VC\Tools\MSVC\14.29.30133\atlmfc\include\afxtempl.h

; 789  : 	{ ENSURE(m_pNodeHead != NULL);

  0003e	e8 00 00 00 00	 call	 ?AfxThrowInvalidArgException@@YGXXZ ; AfxThrowInvalidArgException
$LN15@GetDrawTyp:
  00043	cc		 int	 3
?GetDrawType@CBarDraw@@IBEHPAVCIndicatorInfo@@_N@Z ENDP	; CBarDraw::GetDrawType
_TEXT	ENDS
; Function compile flags: /Ogtp
; File D:\git\src\IBK\IBK_DRFN\ProjSrc\SrcChartEx\ChartOCX\GraphDraw\BarDraw.cpp
;	COMDAT ?GetDrawingText@CBarDraw@@IBE?AV?$CStringT@DV?$StrTraitMFC_DLL@DV?$ChTraitsCRT@D@ATL@@@@@ATL@@HABN0@Z
_TEXT	SEGMENT
_dPercentData$ = -24					; size = 8
$T2 = -16						; size = 4
__$EHRec$ = -12						; size = 12
___$ReturnUdt$ = 8					; size = 4
$T3 = 12						; size = 4
_nTextType$ = 12					; size = 4
$T4 = 16						; size = 4
$T5 = 16						; size = 4
$T6 = 16						; size = 4
_dTotalData$ = 16					; size = 4
$T7 = 20						; size = 4
$T8 = 20						; size = 4
_dData$ = 20						; size = 4
?GetDrawingText@CBarDraw@@IBE?AV?$CStringT@DV?$StrTraitMFC_DLL@DV?$ChTraitsCRT@D@ATL@@@@@ATL@@HABN0@Z PROC ; CBarDraw::GetDrawingText, COMDAT
; _this$ = ecx

; 116  : {

  00000	55		 push	 ebp
  00001	8b ec		 mov	 ebp, esp
  00003	6a ff		 push	 -1
  00005	68 00 00 00 00	 push	 __ehhandler$?GetDrawingText@CBarDraw@@IBE?AV?$CStringT@DV?$StrTraitMFC_DLL@DV?$ChTraitsCRT@D@ATL@@@@@ATL@@HABN0@Z
  0000a	64 a1 00 00 00
	00		 mov	 eax, DWORD PTR fs:0
  00010	50		 push	 eax
  00011	83 ec 0c	 sub	 esp, 12			; 0000000cH
  00014	56		 push	 esi
  00015	57		 push	 edi
  00016	a1 00 00 00 00	 mov	 eax, DWORD PTR ___security_cookie
  0001b	33 c5		 xor	 eax, ebp
  0001d	50		 push	 eax
  0001e	8d 45 f4	 lea	 eax, DWORD PTR __$EHRec$[ebp]
  00021	64 a3 00 00 00
	00		 mov	 DWORD PTR fs:0, eax
  00027	c7 45 f0 00 00
	00 00		 mov	 DWORD PTR $T2[ebp], 0
  0002e	0f 57 c0	 xorps	 xmm0, xmm0

; 117  : 	double dPercentData = 0.0;
; 118  : 	if(dTotalData != 0.0)

  00031	8b 45 10	 mov	 eax, DWORD PTR _dTotalData$[ebp]
  00034	8b 75 14	 mov	 esi, DWORD PTR _dData$[ebp]
  00037	f2 0f 11 45 e8	 movsd	 QWORD PTR _dPercentData$[ebp], xmm0
  0003c	f2 0f 10 08	 movsd	 xmm1, QWORD PTR [eax]
  00040	66 0f 2e c8	 ucomisd xmm1, xmm0
  00044	9f		 lahf
  00045	f6 c4 44	 test	 ah, 68			; 00000044H
  00048	7b 15		 jnp	 SHORT $LN2@GetDrawing

; 119  : 		dPercentData = (dData * 100.0) / dTotalData;

  0004a	f2 0f 10 06	 movsd	 xmm0, QWORD PTR [esi]
  0004e	f2 0f 59 05 00
	00 00 00	 mulsd	 xmm0, QWORD PTR __real@4059000000000000
  00056	f2 0f 5e c1	 divsd	 xmm0, xmm1
  0005a	f2 0f 11 45 e8	 movsd	 QWORD PTR _dPercentData$[ebp], xmm0
$LN2@GetDrawing:

; 120  : 
; 121  : 	//0 : 모두 1 : 숨김  2 : 비율만  3 : Data만
; 122  : 	CString strData;

  0005f	8b 7d 08	 mov	 edi, DWORD PTR ___$ReturnUdt$[ebp]
  00062	8b cf		 mov	 ecx, edi
  00064	ff 15 00 00 00
	00		 call	 DWORD PTR __imp_??0?$CStringT@DV?$StrTraitMFC_DLL@DV?$ChTraitsCRT@D@ATL@@@@@ATL@@QAE@XZ

; 138  : 			CDataConversion::DoubleToString(dPercentData, 2), 
; 139  : 			CDataConversion::GetStringThousandFormat(CDataConversion::DoubleToString(dData)));
; 140  : 	}
; 141  : 
; 142  : 	return strData;

  0006a	8b 45 0c	 mov	 eax, DWORD PTR _nTextType$[ebp]
  0006d	c7 45 fc 00 00
	00 00		 mov	 DWORD PTR __$EHRec$[ebp+8], 0
  00074	c7 45 f0 01 00
	00 00		 mov	 DWORD PTR $T2[ebp], 1
  0007b	83 f8 01	 cmp	 eax, 1
  0007e	75 0d		 jne	 SHORT $LN3@GetDrawing

; 123  : 	if(nTextType == 1)
; 124  : 	{
; 125  : 		strData.Empty();

  00080	8b cf		 mov	 ecx, edi
  00082	ff 15 00 00 00
	00		 call	 DWORD PTR __imp_?Empty@?$CSimpleStringT@D$00@ATL@@QAEXXZ

; 126  : 	}

  00088	e9 d7 00 00 00	 jmp	 $LN19@GetDrawing
$LN3@GetDrawing:

; 127  : 	else if(nTextType == 2)

  0008d	83 f8 02	 cmp	 eax, 2
  00090	75 2e		 jne	 SHORT $LN5@GetDrawing

; 128  : 	{
; 129  : 		strData.Format("%s%%", CDataConversion::DoubleToString(dPercentData, 2));

  00092	50		 push	 eax
  00093	8d 45 e8	 lea	 eax, DWORD PTR _dPercentData$[ebp]
  00096	50		 push	 eax
  00097	8d 45 10	 lea	 eax, DWORD PTR $T6[ebp]
  0009a	50		 push	 eax
  0009b	e8 00 00 00 00	 call	 ?DoubleToString@CDataConversion@@SA?AV?$CStringT@DV?$StrTraitMFC_DLL@DV?$ChTraitsCRT@D@ATL@@@@@ATL@@ABNH@Z ; CDataConversion::DoubleToString
  000a0	ff 30		 push	 DWORD PTR [eax]
  000a2	c7 45 fc 01 00
	00 00		 mov	 DWORD PTR __$EHRec$[ebp+8], 1
  000a9	68 00 00 00 00	 push	 OFFSET ??_C@_04JPADPDAI@?$CFs?$CF?$CF@
  000ae	57		 push	 edi
  000af	ff 15 00 00 00
	00		 call	 DWORD PTR __imp_?Format@?$CStringT@DV?$StrTraitMFC_DLL@DV?$ChTraitsCRT@D@ATL@@@@@ATL@@QAAXPBDZZ
  000b5	83 c4 18	 add	 esp, 24			; 00000018H
  000b8	8d 4d 10	 lea	 ecx, DWORD PTR $T6[ebp]

; 130  : 	}

  000bb	e9 9e 00 00 00	 jmp	 $LN20@GetDrawing
$LN5@GetDrawing:

; 131  : 	else if(nTextType == 3)

  000c0	56		 push	 esi
  000c1	83 f8 03	 cmp	 eax, 3
  000c4	75 3d		 jne	 SHORT $LN7@GetDrawing

; 132  : 	{
; 133  : 		strData.Format("%s", CDataConversion::GetStringThousandFormat(CDataConversion::DoubleToString(dData)));

  000c6	8d 45 14	 lea	 eax, DWORD PTR $T8[ebp]
  000c9	50		 push	 eax
  000ca	e8 00 00 00 00	 call	 ?DoubleToString@CDataConversion@@SA?AV?$CStringT@DV?$StrTraitMFC_DLL@DV?$ChTraitsCRT@D@ATL@@@@@ATL@@ABN@Z ; CDataConversion::DoubleToString
  000cf	50		 push	 eax
  000d0	8d 45 10	 lea	 eax, DWORD PTR $T5[ebp]
  000d3	c7 45 fc 02 00
	00 00		 mov	 DWORD PTR __$EHRec$[ebp+8], 2
  000da	50		 push	 eax
  000db	e8 00 00 00 00	 call	 ?GetStringThousandFormat@CDataConversion@@SA?AV?$CStringT@DV?$StrTraitMFC_DLL@DV?$ChTraitsCRT@D@ATL@@@@@ATL@@ABV23@@Z ; CDataConversion::GetStringThousandFormat
  000e0	ff 30		 push	 DWORD PTR [eax]
  000e2	c6 45 fc 03	 mov	 BYTE PTR __$EHRec$[ebp+8], 3
  000e6	68 00 00 00 00	 push	 OFFSET ??_C@_02DKCKIIND@?$CFs@
  000eb	57		 push	 edi
  000ec	ff 15 00 00 00
	00		 call	 DWORD PTR __imp_?Format@?$CStringT@DV?$StrTraitMFC_DLL@DV?$ChTraitsCRT@D@ATL@@@@@ATL@@QAAXPBDZZ
  000f2	83 c4 1c	 add	 esp, 28			; 0000001cH
  000f5	8d 4d 10	 lea	 ecx, DWORD PTR $T5[ebp]
  000f8	ff 15 00 00 00
	00		 call	 DWORD PTR __imp_??1?$CStringT@DV?$StrTraitMFC_DLL@DV?$ChTraitsCRT@D@ATL@@@@@ATL@@QAE@XZ
  000fe	8d 4d 14	 lea	 ecx, DWORD PTR $T8[ebp]

; 134  : 	}

  00101	eb 5b		 jmp	 SHORT $LN20@GetDrawing
$LN7@GetDrawing:

; 135  : 	else
; 136  : 	{
; 137  : 		strData.Format("%s%% (%s)", 

  00103	8d 45 0c	 lea	 eax, DWORD PTR $T3[ebp]
  00106	50		 push	 eax
  00107	e8 00 00 00 00	 call	 ?DoubleToString@CDataConversion@@SA?AV?$CStringT@DV?$StrTraitMFC_DLL@DV?$ChTraitsCRT@D@ATL@@@@@ATL@@ABN@Z ; CDataConversion::DoubleToString
  0010c	50		 push	 eax
  0010d	8d 45 14	 lea	 eax, DWORD PTR $T7[ebp]
  00110	c7 45 fc 04 00
	00 00		 mov	 DWORD PTR __$EHRec$[ebp+8], 4
  00117	50		 push	 eax
  00118	e8 00 00 00 00	 call	 ?GetStringThousandFormat@CDataConversion@@SA?AV?$CStringT@DV?$StrTraitMFC_DLL@DV?$ChTraitsCRT@D@ATL@@@@@ATL@@ABV23@@Z ; CDataConversion::GetStringThousandFormat
  0011d	8b f0		 mov	 esi, eax
  0011f	6a 02		 push	 2
  00121	8d 45 e8	 lea	 eax, DWORD PTR _dPercentData$[ebp]
  00124	c6 45 fc 05	 mov	 BYTE PTR __$EHRec$[ebp+8], 5
  00128	50		 push	 eax
  00129	8d 45 10	 lea	 eax, DWORD PTR $T4[ebp]
  0012c	50		 push	 eax
  0012d	e8 00 00 00 00	 call	 ?DoubleToString@CDataConversion@@SA?AV?$CStringT@DV?$StrTraitMFC_DLL@DV?$ChTraitsCRT@D@ATL@@@@@ATL@@ABNH@Z ; CDataConversion::DoubleToString
  00132	ff 36		 push	 DWORD PTR [esi]
  00134	c6 45 fc 06	 mov	 BYTE PTR __$EHRec$[ebp+8], 6
  00138	ff 30		 push	 DWORD PTR [eax]
  0013a	68 00 00 00 00	 push	 OFFSET ??_C@_09CDDMKNBJ@?$CFs?$CF?$CF?5?$CI?$CFs?$CJ@
  0013f	57		 push	 edi
  00140	ff 15 00 00 00
	00		 call	 DWORD PTR __imp_?Format@?$CStringT@DV?$StrTraitMFC_DLL@DV?$ChTraitsCRT@D@ATL@@@@@ATL@@QAAXPBDZZ
  00146	83 c4 2c	 add	 esp, 44			; 0000002cH
  00149	8d 4d 10	 lea	 ecx, DWORD PTR $T4[ebp]
  0014c	ff 15 00 00 00
	00		 call	 DWORD PTR __imp_??1?$CStringT@DV?$StrTraitMFC_DLL@DV?$ChTraitsCRT@D@ATL@@@@@ATL@@QAE@XZ
  00152	8d 4d 14	 lea	 ecx, DWORD PTR $T7[ebp]
  00155	ff 15 00 00 00
	00		 call	 DWORD PTR __imp_??1?$CStringT@DV?$StrTraitMFC_DLL@DV?$ChTraitsCRT@D@ATL@@@@@ATL@@QAE@XZ
  0015b	8d 4d 0c	 lea	 ecx, DWORD PTR $T3[ebp]
$LN20@GetDrawing:

; 143  : }

  0015e	ff 15 00 00 00
	00		 call	 DWORD PTR __imp_??1?$CStringT@DV?$StrTraitMFC_DLL@DV?$ChTraitsCRT@D@ATL@@@@@ATL@@QAE@XZ
$LN19@GetDrawing:
  00164	8b c7		 mov	 eax, edi
  00166	8b 4d f4	 mov	 ecx, DWORD PTR __$EHRec$[ebp]
  00169	64 89 0d 00 00
	00 00		 mov	 DWORD PTR fs:0, ecx
  00170	59		 pop	 ecx
  00171	5f		 pop	 edi
  00172	5e		 pop	 esi
  00173	8b e5		 mov	 esp, ebp
  00175	5d		 pop	 ebp
  00176	c2 10 00	 ret	 16			; 00000010H
_TEXT	ENDS
;	COMDAT text$x
text$x	SEGMENT
__unwindfunclet$?GetDrawingText@CBarDraw@@IBE?AV?$CStringT@DV?$StrTraitMFC_DLL@DV?$ChTraitsCRT@D@ATL@@@@@ATL@@HABN0@Z$0:
  00000	8b 45 f0	 mov	 eax, DWORD PTR $T2[ebp]
  00003	83 e0 01	 and	 eax, 1
  00006	0f 84 0d 00 00
	00		 je	 $LN11@GetDrawing
  0000c	83 65 f0 fe	 and	 DWORD PTR $T2[ebp], -2	; fffffffeH
  00010	8b 4d 08	 mov	 ecx, DWORD PTR ___$ReturnUdt$[ebp]
  00013	ff 25 00 00 00
	00		 jmp	 DWORD PTR __imp_??1?$CStringT@DV?$StrTraitMFC_DLL@DV?$ChTraitsCRT@D@ATL@@@@@ATL@@QAE@XZ
$LN11@GetDrawing:
  00019	c3		 ret	 0
__unwindfunclet$?GetDrawingText@CBarDraw@@IBE?AV?$CStringT@DV?$StrTraitMFC_DLL@DV?$ChTraitsCRT@D@ATL@@@@@ATL@@HABN0@Z$1:
  0001a	8d 4d 10	 lea	 ecx, DWORD PTR $T6[ebp]
  0001d	ff 25 00 00 00
	00		 jmp	 DWORD PTR __imp_??1?$CStringT@DV?$StrTraitMFC_DLL@DV?$ChTraitsCRT@D@ATL@@@@@ATL@@QAE@XZ
__unwindfunclet$?GetDrawingText@CBarDraw@@IBE?AV?$CStringT@DV?$StrTraitMFC_DLL@DV?$ChTraitsCRT@D@ATL@@@@@ATL@@HABN0@Z$2:
  00023	8d 4d 14	 lea	 ecx, DWORD PTR $T8[ebp]
  00026	ff 25 00 00 00
	00		 jmp	 DWORD PTR __imp_??1?$CStringT@DV?$StrTraitMFC_DLL@DV?$ChTraitsCRT@D@ATL@@@@@ATL@@QAE@XZ
__unwindfunclet$?GetDrawingText@CBarDraw@@IBE?AV?$CStringT@DV?$StrTraitMFC_DLL@DV?$ChTraitsCRT@D@ATL@@@@@ATL@@HABN0@Z$3:
  0002c	8d 4d 10	 lea	 ecx, DWORD PTR $T5[ebp]
  0002f	ff 25 00 00 00
	00		 jmp	 DWORD PTR __imp_??1?$CStringT@DV?$StrTraitMFC_DLL@DV?$ChTraitsCRT@D@ATL@@@@@ATL@@QAE@XZ
__unwindfunclet$?GetDrawingText@CBarDraw@@IBE?AV?$CStringT@DV?$StrTraitMFC_DLL@DV?$ChTraitsCRT@D@ATL@@@@@ATL@@HABN0@Z$4:
  00035	8d 4d 0c	 lea	 ecx, DWORD PTR $T3[ebp]
  00038	ff 25 00 00 00
	00		 jmp	 DWORD PTR __imp_??1?$CStringT@DV?$StrTraitMFC_DLL@DV?$ChTraitsCRT@D@ATL@@@@@ATL@@QAE@XZ
__unwindfunclet$?GetDrawingText@CBarDraw@@IBE?AV?$CStringT@DV?$StrTraitMFC_DLL@DV?$ChTraitsCRT@D@ATL@@@@@ATL@@HABN0@Z$5:
  0003e	8d 4d 14	 lea	 ecx, DWORD PTR $T7[ebp]
  00041	ff 25 00 00 00
	00		 jmp	 DWORD PTR __imp_??1?$CStringT@DV?$StrTraitMFC_DLL@DV?$ChTraitsCRT@D@ATL@@@@@ATL@@QAE@XZ
__unwindfunclet$?GetDrawingText@CBarDraw@@IBE?AV?$CStringT@DV?$StrTraitMFC_DLL@DV?$ChTraitsCRT@D@ATL@@@@@ATL@@HABN0@Z$6:
  00047	8d 4d 10	 lea	 ecx, DWORD PTR $T4[ebp]
  0004a	ff 25 00 00 00
	00		 jmp	 DWORD PTR __imp_??1?$CStringT@DV?$StrTraitMFC_DLL@DV?$ChTraitsCRT@D@ATL@@@@@ATL@@QAE@XZ
  00050	cc		 int	 3
  00051	cc		 int	 3
  00052	cc		 int	 3
  00053	cc		 int	 3
  00054	cc		 int	 3
__ehhandler$?GetDrawingText@CBarDraw@@IBE?AV?$CStringT@DV?$StrTraitMFC_DLL@DV?$ChTraitsCRT@D@ATL@@@@@ATL@@HABN0@Z:
  00055	90		 npad	 1
  00056	90		 npad	 1
  00057	8b 54 24 08	 mov	 edx, DWORD PTR [esp+8]
  0005b	8d 42 0c	 lea	 eax, DWORD PTR [edx+12]
  0005e	8b 4a e8	 mov	 ecx, DWORD PTR [edx-24]
  00061	33 c8		 xor	 ecx, eax
  00063	e8 00 00 00 00	 call	 @__security_check_cookie@4
  00068	b8 00 00 00 00	 mov	 eax, OFFSET __ehfuncinfo$?GetDrawingText@CBarDraw@@IBE?AV?$CStringT@DV?$StrTraitMFC_DLL@DV?$ChTraitsCRT@D@ATL@@@@@ATL@@HABN0@Z
  0006d	e9 00 00 00 00	 jmp	 ___CxxFrameHandler3
text$x	ENDS
?GetDrawingText@CBarDraw@@IBE?AV?$CStringT@DV?$StrTraitMFC_DLL@DV?$ChTraitsCRT@D@ATL@@@@@ATL@@HABN0@Z ENDP ; CBarDraw::GetDrawingText
; Function compile flags: /Ogtp
; File D:\git\src\IBK\IBK_DRFN\ProjSrc\SrcChartEx\ChartOCX\GraphDraw\BarDraw.cpp
; File C:\Program Files (x86)\Microsoft Visual Studio\2019\Community\VC\Tools\MSVC\14.29.30133\atlmfc\include\atltypes.h
; File D:\git\src\IBK\IBK_DRFN\ProjSrc\SrcChartEx\ChartOCX\GraphDraw\BarDraw.cpp
; File C:\Program Files (x86)\Microsoft Visual Studio\2019\Community\VC\Tools\MSVC\14.29.30133\atlmfc\include\atltypes.h
; File D:\git\src\IBK\IBK_DRFN\ProjSrc\SrcChartEx\ChartOCX\GraphDraw\BarDraw.cpp
;	COMDAT ?GetBarWidth@CBarDraw@@IAEXABVCRect@@HAANAAH@Z
_TEXT	SEGMENT
_graphRegion$ = 8					; size = 4
_nDataCount$ = 12					; size = 4
_dBarMaxWidth$ = 16					; size = 4
_nBarWidth$ = 20					; size = 4
?GetBarWidth@CBarDraw@@IAEXABVCRect@@HAANAAH@Z PROC	; CBarDraw::GetBarWidth, COMDAT
; _this$ = ecx

; 78   : {

  00000	55		 push	 ebp
  00001	8b ec		 mov	 ebp, esp
; File C:\Program Files (x86)\Microsoft Visual Studio\2019\Community\VC\Tools\MSVC\14.29.30133\atlmfc\include\atltypes.h

; 581  : 	return bottom - top;

  00003	8b 45 08	 mov	 eax, DWORD PTR _graphRegion$[ebp]
  00006	66 0f 6e 45 0c	 movd	 xmm0, DWORD PTR _nDataCount$[ebp]
; File D:\git\src\IBK\IBK_DRFN\ProjSrc\SrcChartEx\ChartOCX\GraphDraw\BarDraw.cpp

; 79   : 	dBarMaxWidth = (double)graphRegion.Height()/(double)nDataCount;

  0000b	f3 0f e6 c0	 cvtdq2pd xmm0, xmm0
; File C:\Program Files (x86)\Microsoft Visual Studio\2019\Community\VC\Tools\MSVC\14.29.30133\atlmfc\include\atltypes.h

; 581  : 	return bottom - top;

  0000f	8b 48 0c	 mov	 ecx, DWORD PTR [eax+12]
  00012	2b 48 04	 sub	 ecx, DWORD PTR [eax+4]
; File D:\git\src\IBK\IBK_DRFN\ProjSrc\SrcChartEx\ChartOCX\GraphDraw\BarDraw.cpp

; 79   : 	dBarMaxWidth = (double)graphRegion.Height()/(double)nDataCount;

  00015	8b 45 10	 mov	 eax, DWORD PTR _dBarMaxWidth$[ebp]
  00018	66 0f 6e c9	 movd	 xmm1, ecx

; 80   : 	nBarWidth = int((dBarMaxWidth * 0.8)) / 2;
; 81   : 	if(nBarWidth <= 0)

  0001c	b9 01 00 00 00	 mov	 ecx, 1
  00021	f3 0f e6 c9	 cvtdq2pd xmm1, xmm1
  00025	f2 0f 5e c8	 divsd	 xmm1, xmm0
  00029	f2 0f 11 08	 movsd	 QWORD PTR [eax], xmm1
  0002d	f2 0f 59 0d 00
	00 00 00	 mulsd	 xmm1, QWORD PTR __real@3fe999999999999a
  00035	f2 0f 2c c1	 cvttsd2si eax, xmm1
  00039	99		 cdq
  0003a	2b c2		 sub	 eax, edx
  0003c	d1 f8		 sar	 eax, 1
  0003e	85 c0		 test	 eax, eax
  00040	0f 4e c1	 cmovle	 eax, ecx
  00043	8b 4d 14	 mov	 ecx, DWORD PTR _nBarWidth$[ebp]
  00046	89 01		 mov	 DWORD PTR [ecx], eax

; 82   : 		nBarWidth = 1;
; 83   : }

  00048	5d		 pop	 ebp
  00049	c2 10 00	 ret	 16			; 00000010H
?GetBarWidth@CBarDraw@@IAEXABVCRect@@HAANAAH@Z ENDP	; CBarDraw::GetBarWidth
_TEXT	ENDS
; Function compile flags: /Ogtp
; File D:\git\src\IBK\IBK_DRFN\ProjSrc\SrcChartEx\ChartOCX\GraphDraw\BarDraw.cpp
; File C:\Program Files (x86)\Microsoft Visual Studio\2019\Community\VC\Tools\MSVC\14.29.30133\atlmfc\include\cstringt.h
; File D:\git\src\IBK\IBK_DRFN\ProjSrc\SrcChartEx\ChartOCX\GraphDraw\BarDraw.cpp
; File C:\Program Files (x86)\Microsoft Visual Studio\2019\Community\VC\Tools\MSVC\14.29.30133\atlmfc\include\cstringt.h
; File D:\git\src\IBK\IBK_DRFN\ProjSrc\SrcChartEx\ChartOCX\GraphDraw\BarDraw.cpp
;	COMDAT ?GetTextType@CBarDraw@@IBEHPBVCIndicatorInfo@@@Z
_TEXT	SEGMENT
$T2 = -20						; size = 4
$T3 = -16						; size = 4
__$EHRec$ = -12						; size = 12
_pIndicatorInfo$ = 8					; size = 4
$T4 = 11						; size = 1
?GetTextType@CBarDraw@@IBEHPBVCIndicatorInfo@@@Z PROC	; CBarDraw::GetTextType, COMDAT
; _this$ = ecx

; 63   : {

  00000	55		 push	 ebp
  00001	8b ec		 mov	 ebp, esp
  00003	6a ff		 push	 -1
  00005	68 00 00 00 00	 push	 __ehhandler$?GetTextType@CBarDraw@@IBEHPBVCIndicatorInfo@@@Z
  0000a	64 a1 00 00 00
	00		 mov	 eax, DWORD PTR fs:0
  00010	50		 push	 eax
  00011	83 ec 08	 sub	 esp, 8
  00014	53		 push	 ebx
  00015	56		 push	 esi
  00016	a1 00 00 00 00	 mov	 eax, DWORD PTR ___security_cookie
  0001b	33 c5		 xor	 eax, ebp
  0001d	50		 push	 eax
  0001e	8d 45 f4	 lea	 eax, DWORD PTR __$EHRec$[ebp]
  00021	64 a3 00 00 00
	00		 mov	 DWORD PTR fs:0, eax

; 65   : 	if(pIndicatorInfo == NULL || pIndicatorInfo->GetIndicatorName() != _MTEXT( C2_OVERHANGING_SUPPLY))

  00027	8b 75 08	 mov	 esi, DWORD PTR _pIndicatorInfo$[ebp]
  0002a	33 db		 xor	 ebx, ebx
  0002c	89 5d f0	 mov	 DWORD PTR $T3[ebp], ebx
  0002f	85 f6		 test	 esi, esi
  00031	74 33		 je	 SHORT $LN6@GetTextTyp
  00033	8d 45 ec	 lea	 eax, DWORD PTR $T2[ebp]
  00036	8b ce		 mov	 ecx, esi
  00038	50		 push	 eax
  00039	ff 15 00 00 00
	00		 call	 DWORD PTR __imp_?GetIndicatorName@CIndicatorInfo@@QBE?AV?$CStringT@DV?$StrTraitMFC_DLL@DV?$ChTraitsCRT@D@ATL@@@@@ATL@@XZ
  0003f	8b 0d 54 00 00
	00		 mov	 ecx, DWORD PTR ?g_iMetaTable@@3VIMetaTable@@A+84
  00045	89 5d fc	 mov	 DWORD PTR __$EHRec$[ebp+8], ebx
  00048	bb 01 00 00 00	 mov	 ebx, 1
  0004d	89 5d f0	 mov	 DWORD PTR $T3[ebp], ebx
; File C:\Program Files (x86)\Microsoft Visual Studio\2019\Community\VC\Tools\MSVC\14.29.30133\atlmfc\include\cstringt.h

; 2567 : 		return( str1.Compare( psz2 ) != 0 );

  00050	ff b1 34 03 00
	00		 push	 DWORD PTR [ecx+820]
  00056	8b c8		 mov	 ecx, eax
  00058	ff 15 00 00 00
	00		 call	 DWORD PTR __imp_?Compare@?$CStringT@DV?$StrTraitMFC_DLL@DV?$ChTraitsCRT@D@ATL@@@@@ATL@@QBEHPBD@Z
; File D:\git\src\IBK\IBK_DRFN\ProjSrc\SrcChartEx\ChartOCX\GraphDraw\BarDraw.cpp

; 65   : 	if(pIndicatorInfo == NULL || pIndicatorInfo->GetIndicatorName() != _MTEXT( C2_OVERHANGING_SUPPLY))

  0005e	c6 45 0b 00	 mov	 BYTE PTR $T4[ebp], 0
; File C:\Program Files (x86)\Microsoft Visual Studio\2019\Community\VC\Tools\MSVC\14.29.30133\atlmfc\include\cstringt.h

; 2567 : 		return( str1.Compare( psz2 ) != 0 );

  00062	85 c0		 test	 eax, eax
; File D:\git\src\IBK\IBK_DRFN\ProjSrc\SrcChartEx\ChartOCX\GraphDraw\BarDraw.cpp

; 65   : 	if(pIndicatorInfo == NULL || pIndicatorInfo->GetIndicatorName() != _MTEXT( C2_OVERHANGING_SUPPLY))

  00064	74 04		 je	 SHORT $LN7@GetTextTyp
$LN6@GetTextTyp:
  00066	c6 45 0b 01	 mov	 BYTE PTR $T4[ebp], 1
$LN7@GetTextTyp:
  0006a	c7 45 fc ff ff
	ff ff		 mov	 DWORD PTR __$EHRec$[ebp+8], -1
  00071	f6 c3 01	 test	 bl, 1
  00074	74 09		 je	 SHORT $LN10@GetTextTyp
  00076	8d 4d ec	 lea	 ecx, DWORD PTR $T2[ebp]
  00079	ff 15 00 00 00
	00		 call	 DWORD PTR __imp_??1?$CStringT@DV?$StrTraitMFC_DLL@DV?$ChTraitsCRT@D@ATL@@@@@ATL@@QAE@XZ
$LN10@GetTextTyp:
  0007f	80 7d 0b 00	 cmp	 BYTE PTR $T4[ebp], 0
  00083	75 2b		 jne	 SHORT $LN4@GetTextTyp

; 66   : 		return 0;
; 67   : 
; 68   : 	//0 : 모두 1 : 숨김  2 : 비율만  3 : Data만
; 69   : 	CList<double, double>* pDrawCondList = pIndicatorInfo->GetDrawConditionList();

  00085	8b ce		 mov	 ecx, esi
  00087	ff 15 00 00 00
	00		 call	 DWORD PTR __imp_?GetDrawConditionList@CIndicatorInfo@@QBEPAV?$CList@NN@@XZ

; 70   : 	if(pDrawCondList == NULL || pDrawCondList->GetHeadPosition() == NULL)

  0008d	85 c0		 test	 eax, eax
  0008f	74 1f		 je	 SHORT $LN4@GetTextTyp
  00091	8b 40 04	 mov	 eax, DWORD PTR [eax+4]
  00094	85 c0		 test	 eax, eax
  00096	74 18		 je	 SHORT $LN4@GetTextTyp

; 72   : 
; 73   : 	return ((int) pDrawCondList->GetHead());

  00098	f2 0f 2c 40 08	 cvttsd2si eax, QWORD PTR [eax+8]

; 74   : }

  0009d	8b 4d f4	 mov	 ecx, DWORD PTR __$EHRec$[ebp]
  000a0	64 89 0d 00 00
	00 00		 mov	 DWORD PTR fs:0, ecx
  000a7	59		 pop	 ecx
  000a8	5e		 pop	 esi
  000a9	5b		 pop	 ebx
  000aa	8b e5		 mov	 esp, ebp
  000ac	5d		 pop	 ebp
  000ad	c2 04 00	 ret	 4
$LN4@GetTextTyp:

; 71   : 		return 0;

  000b0	33 c0		 xor	 eax, eax

; 74   : }

  000b2	8b 4d f4	 mov	 ecx, DWORD PTR __$EHRec$[ebp]
  000b5	64 89 0d 00 00
	00 00		 mov	 DWORD PTR fs:0, ecx
  000bc	59		 pop	 ecx
  000bd	5e		 pop	 esi
  000be	5b		 pop	 ebx
  000bf	8b e5		 mov	 esp, ebp
  000c1	5d		 pop	 ebp
  000c2	c2 04 00	 ret	 4
_TEXT	ENDS
;	COMDAT text$x
text$x	SEGMENT
__unwindfunclet$?GetTextType@CBarDraw@@IBEHPBVCIndicatorInfo@@@Z$0:
  00000	8b 45 f0	 mov	 eax, DWORD PTR $T3[ebp]
  00003	83 e0 01	 and	 eax, 1
  00006	0f 84 0d 00 00
	00		 je	 $LN9@GetTextTyp
  0000c	83 65 f0 fe	 and	 DWORD PTR $T3[ebp], -2	; fffffffeH
  00010	8d 4d ec	 lea	 ecx, DWORD PTR $T2[ebp]
  00013	ff 25 00 00 00
	00		 jmp	 DWORD PTR __imp_??1?$CStringT@DV?$StrTraitMFC_DLL@DV?$ChTraitsCRT@D@ATL@@@@@ATL@@QAE@XZ
$LN9@GetTextTyp:
  00019	c3		 ret	 0
  0001a	cc		 int	 3
  0001b	cc		 int	 3
  0001c	cc		 int	 3
  0001d	cc		 int	 3
  0001e	cc		 int	 3
__ehhandler$?GetTextType@CBarDraw@@IBEHPBVCIndicatorInfo@@@Z:
  0001f	90		 npad	 1
  00020	90		 npad	 1
  00021	8b 54 24 08	 mov	 edx, DWORD PTR [esp+8]
  00025	8d 42 0c	 lea	 eax, DWORD PTR [edx+12]
  00028	8b 4a ec	 mov	 ecx, DWORD PTR [edx-20]
  0002b	33 c8		 xor	 ecx, eax
  0002d	e8 00 00 00 00	 call	 @__security_check_cookie@4
  00032	b8 00 00 00 00	 mov	 eax, OFFSET __ehfuncinfo$?GetTextType@CBarDraw@@IBEHPBVCIndicatorInfo@@@Z
  00037	e9 00 00 00 00	 jmp	 ___CxxFrameHandler3
text$x	ENDS
?GetTextType@CBarDraw@@IBEHPBVCIndicatorInfo@@@Z ENDP	; CBarDraw::GetTextType
; Function compile flags: /Ogtp
; File D:\git\src\IBK\IBK_DRFN\ProjSrc\SrcChartEx\ChartOCX\GraphDraw\BarDraw.cpp
;	COMDAT ?DoesTextDrawing@CBarDraw@@IBE_NW4BARDRAWSTYLE@CGraphBaseData@@@Z
_TEXT	SEGMENT
_eDrawStyle$ = 8					; size = 4
?DoesTextDrawing@CBarDraw@@IBE_NW4BARDRAWSTYLE@CGraphBaseData@@@Z PROC ; CBarDraw::DoesTextDrawing, COMDAT
; _this$ = ecx

; 212  : {

  00000	55		 push	 ebp
  00001	8b ec		 mov	 ebp, esp

; 213  : 	return (eDrawStyle == CGraphBaseData::TextBar_Draw);

  00003	83 7d 08 03	 cmp	 DWORD PTR _eDrawStyle$[ebp], 3
  00007	0f 94 c0	 sete	 al

; 214  : }

  0000a	5d		 pop	 ebp
  0000b	c2 04 00	 ret	 4
?DoesTextDrawing@CBarDraw@@IBE_NW4BARDRAWSTYLE@CGraphBaseData@@@Z ENDP ; CBarDraw::DoesTextDrawing
_TEXT	ENDS
; Function compile flags: /Ogtp
; File D:\git\src\IBK\IBK_DRFN\ProjSrc\SrcChartEx\ChartOCX\GraphDraw\BarDraw.cpp
;	COMDAT ?DoesVolumeDrawingType@CBarDraw@@IBE_NPAVCIndicatorInfo@@@Z
_TEXT	SEGMENT
__$EHRec$ = -12						; size = 12
$T2 = 8							; size = 4
_pIndicatorInfo$ = 8					; size = 4
?DoesVolumeDrawingType@CBarDraw@@IBE_NPAVCIndicatorInfo@@@Z PROC ; CBarDraw::DoesVolumeDrawingType, COMDAT
; _this$ = ecx

; 203  : {

  00000	55		 push	 ebp
  00001	8b ec		 mov	 ebp, esp
  00003	6a ff		 push	 -1
  00005	68 00 00 00 00	 push	 __ehhandler$?DoesVolumeDrawingType@CBarDraw@@IBE_NPAVCIndicatorInfo@@@Z
  0000a	64 a1 00 00 00
	00		 mov	 eax, DWORD PTR fs:0
  00010	50		 push	 eax
  00011	53		 push	 ebx
  00012	a1 00 00 00 00	 mov	 eax, DWORD PTR ___security_cookie
  00017	33 c5		 xor	 eax, ebp
  00019	50		 push	 eax
  0001a	8d 45 f4	 lea	 eax, DWORD PTR __$EHRec$[ebp]
  0001d	64 a3 00 00 00
	00		 mov	 DWORD PTR fs:0, eax

; 204  : 	if(pIndicatorInfo == NULL)

  00023	8b 4d 08	 mov	 ecx, DWORD PTR _pIndicatorInfo$[ebp]
  00026	85 c9		 test	 ecx, ecx
  00028	75 14		 jne	 SHORT $LN2@DoesVolume

; 205  : 		return false;

  0002a	32 c0		 xor	 al, al

; 208  : }

  0002c	8b 4d f4	 mov	 ecx, DWORD PTR __$EHRec$[ebp]
  0002f	64 89 0d 00 00
	00 00		 mov	 DWORD PTR fs:0, ecx
  00036	59		 pop	 ecx
  00037	5b		 pop	 ebx
  00038	8b e5		 mov	 esp, ebp
  0003a	5d		 pop	 ebp
  0003b	c2 04 00	 ret	 4
$LN2@DoesVolume:

; 206  : 
; 207  : 	return g_iMetaTable.IsDrawGroup_VolumeType(pIndicatorInfo->GetIndicatorName());

  0003e	8d 45 08	 lea	 eax, DWORD PTR $T2[ebp]
  00041	50		 push	 eax
  00042	ff 15 00 00 00
	00		 call	 DWORD PTR __imp_?GetIndicatorName@CIndicatorInfo@@QBE?AV?$CStringT@DV?$StrTraitMFC_DLL@DV?$ChTraitsCRT@D@ATL@@@@@ATL@@XZ
  00048	50		 push	 eax
  00049	b9 00 00 00 00	 mov	 ecx, OFFSET ?g_iMetaTable@@3VIMetaTable@@A ; g_iMetaTable
  0004e	c7 45 fc 00 00
	00 00		 mov	 DWORD PTR __$EHRec$[ebp+8], 0
  00055	e8 00 00 00 00	 call	 ?IsDrawGroup_VolumeType@IMetaTable@@QAE_NABV?$CStringT@DV?$StrTraitMFC_DLL@DV?$ChTraitsCRT@D@ATL@@@@@ATL@@@Z ; IMetaTable::IsDrawGroup_VolumeType
  0005a	8d 4d 08	 lea	 ecx, DWORD PTR $T2[ebp]
  0005d	8a d8		 mov	 bl, al
  0005f	ff 15 00 00 00
	00		 call	 DWORD PTR __imp_??1?$CStringT@DV?$StrTraitMFC_DLL@DV?$ChTraitsCRT@D@ATL@@@@@ATL@@QAE@XZ
  00065	8a c3		 mov	 al, bl

; 208  : }

  00067	8b 4d f4	 mov	 ecx, DWORD PTR __$EHRec$[ebp]
  0006a	64 89 0d 00 00
	00 00		 mov	 DWORD PTR fs:0, ecx
  00071	59		 pop	 ecx
  00072	5b		 pop	 ebx
  00073	8b e5		 mov	 esp, ebp
  00075	5d		 pop	 ebp
  00076	c2 04 00	 ret	 4
_TEXT	ENDS
;	COMDAT text$x
text$x	SEGMENT
__unwindfunclet$?DoesVolumeDrawingType@CBarDraw@@IBE_NPAVCIndicatorInfo@@@Z$0:
  00000	8d 4d 08	 lea	 ecx, DWORD PTR $T2[ebp]
  00003	ff 25 00 00 00
	00		 jmp	 DWORD PTR __imp_??1?$CStringT@DV?$StrTraitMFC_DLL@DV?$ChTraitsCRT@D@ATL@@@@@ATL@@QAE@XZ
  00009	cc		 int	 3
  0000a	cc		 int	 3
  0000b	cc		 int	 3
  0000c	cc		 int	 3
  0000d	cc		 int	 3
__ehhandler$?DoesVolumeDrawingType@CBarDraw@@IBE_NPAVCIndicatorInfo@@@Z:
  0000e	90		 npad	 1
  0000f	90		 npad	 1
  00010	8b 54 24 08	 mov	 edx, DWORD PTR [esp+8]
  00014	8d 42 0c	 lea	 eax, DWORD PTR [edx+12]
  00017	8b 4a f8	 mov	 ecx, DWORD PTR [edx-8]
  0001a	33 c8		 xor	 ecx, eax
  0001c	e8 00 00 00 00	 call	 @__security_check_cookie@4
  00021	b8 00 00 00 00	 mov	 eax, OFFSET __ehfuncinfo$?DoesVolumeDrawingType@CBarDraw@@IBE_NPAVCIndicatorInfo@@@Z
  00026	e9 00 00 00 00	 jmp	 ___CxxFrameHandler3
text$x	ENDS
?DoesVolumeDrawingType@CBarDraw@@IBE_NPAVCIndicatorInfo@@@Z ENDP ; CBarDraw::DoesVolumeDrawingType
; Function compile flags: /Ogtp
; File D:\git\src\IBK\IBK_DRFN\ProjSrc\SrcChartEx\ChartOCX\GraphDraw\BarDraw.cpp
;	COMDAT ?SelectPenAndBrushObject@CBarDraw@@IAEXPAVCDC@@PAVCPen@@11PAVCBrush@@22ABVCGraphColor@@HHH@Z
_TEXT	SEGMENT
_pDC$ = 8						; size = 4
_pPen1$ = 12						; size = 4
_pPen2$ = 16						; size = 4
_pPen3$ = 20						; size = 4
_pBrush1$ = 24						; size = 4
_pBrush2$ = 28						; size = 4
_pBrush3$ = 32						; size = 4
_graphColor$ = 36					; size = 4
_nIndex$ = 40						; size = 4
_nCurrentIndex$ = 44					; size = 4
_nHighestIndex$ = 48					; size = 4
?SelectPenAndBrushObject@CBarDraw@@IAEXPAVCDC@@PAVCPen@@11PAVCBrush@@22ABVCGraphColor@@HHH@Z PROC ; CBarDraw::SelectPenAndBrushObject, COMDAT
; _this$ = ecx

; 164  : {

  00000	55		 push	 ebp
  00001	8b ec		 mov	 ebp, esp

; 165  : 	//현재
; 166  : 	if(nIndex == nCurrentIndex)

  00003	8b 45 28	 mov	 eax, DWORD PTR _nIndex$[ebp]
  00006	53		 push	 ebx
  00007	8b 5d 24	 mov	 ebx, DWORD PTR _graphColor$[ebp]
  0000a	8b cb		 mov	 ecx, ebx
  0000c	56		 push	 esi
  0000d	57		 push	 edi
  0000e	3b 45 2c	 cmp	 eax, DWORD PTR _nCurrentIndex$[ebp]
  00011	75 41		 jne	 SHORT $LN2@SelectPenA

; 167  : 	{
; 168  : 		if(graphColor.GetDownGraphFill())

  00013	ff 15 00 00 00
	00		 call	 DWORD PTR __imp_?GetDownGraphFill@CGraphColor@@QBE_NXZ
  00019	8b 7d 08	 mov	 edi, DWORD PTR _pDC$[ebp]
  0001c	8b cf		 mov	 ecx, edi
  0001e	84 c0		 test	 al, al
  00020	74 0a		 je	 SHORT $LN4@SelectPenA

; 169  : 			pDC->SelectObject(pBrush2);

  00022	ff 75 1c	 push	 DWORD PTR _pBrush2$[ebp]
  00025	e8 00 00 00 00	 call	 ?SelectObject@CDC@@QAEPAVCBrush@@PAV2@@Z ; CDC::SelectObject
  0002a	eb 07		 jmp	 SHORT $LN5@SelectPenA
$LN4@SelectPenA:

; 170  : 		else
; 171  : 			pDC->SelectStockObject(NULL_BRUSH);

  0002c	8b 07		 mov	 eax, DWORD PTR [edi]
  0002e	6a 05		 push	 5
  00030	ff 50 2c	 call	 DWORD PTR [eax+44]
$LN5@SelectPenA:

; 172  : 		
; 173  : 		pDC->SelectObject(pPen2);

  00033	ff 75 10	 push	 DWORD PTR _pPen2$[ebp]
  00036	8b cf		 mov	 ecx, edi
  00038	e8 00 00 00 00	 call	 ?SelectObject@CDC@@QAEPAVCPen@@PAV2@@Z ; CDC::SelectObject

; 174  : 		pDC->SetTextColor(graphColor.GetColor4());

  0003d	8b 37		 mov	 esi, DWORD PTR [edi]
  0003f	8b cb		 mov	 ecx, ebx
  00041	ff 15 00 00 00
	00		 call	 DWORD PTR __imp_?GetColor4@CGraphColor@@QBEKXZ

; 197  : 	}
; 198  : }

  00047	50		 push	 eax
  00048	8b cf		 mov	 ecx, edi
  0004a	ff 56 38	 call	 DWORD PTR [esi+56]
  0004d	5f		 pop	 edi
  0004e	5e		 pop	 esi
  0004f	5b		 pop	 ebx
  00050	5d		 pop	 ebp
  00051	c2 2c 00	 ret	 44			; 0000002cH
$LN2@SelectPenA:

; 175  : 	}
; 176  : 	//최대
; 177  : 	else if(nIndex == nHighestIndex)

  00054	3b 45 30	 cmp	 eax, DWORD PTR _nHighestIndex$[ebp]
  00057	75 41		 jne	 SHORT $LN6@SelectPenA

; 178  : 	{
; 179  : 		if(graphColor.GetDownGraphFill())

  00059	ff 15 00 00 00
	00		 call	 DWORD PTR __imp_?GetDownGraphFill@CGraphColor@@QBE_NXZ
  0005f	8b 7d 08	 mov	 edi, DWORD PTR _pDC$[ebp]
  00062	8b cf		 mov	 ecx, edi
  00064	84 c0		 test	 al, al
  00066	74 0a		 je	 SHORT $LN8@SelectPenA

; 180  : 			pDC->SelectObject(pBrush3);

  00068	ff 75 20	 push	 DWORD PTR _pBrush3$[ebp]
  0006b	e8 00 00 00 00	 call	 ?SelectObject@CDC@@QAEPAVCBrush@@PAV2@@Z ; CDC::SelectObject
  00070	eb 07		 jmp	 SHORT $LN9@SelectPenA
$LN8@SelectPenA:

; 181  : 		else
; 182  : 			pDC->SelectStockObject(NULL_BRUSH);

  00072	8b 07		 mov	 eax, DWORD PTR [edi]
  00074	6a 05		 push	 5
  00076	ff 50 2c	 call	 DWORD PTR [eax+44]
$LN9@SelectPenA:

; 183  : 		
; 184  : 		pDC->SelectObject(pPen3);

  00079	ff 75 14	 push	 DWORD PTR _pPen3$[ebp]
  0007c	8b cf		 mov	 ecx, edi
  0007e	e8 00 00 00 00	 call	 ?SelectObject@CDC@@QAEPAVCPen@@PAV2@@Z ; CDC::SelectObject

; 185  : 		pDC->SetTextColor(graphColor.GetColor6());

  00083	8b 37		 mov	 esi, DWORD PTR [edi]
  00085	8b cb		 mov	 ecx, ebx
  00087	ff 15 00 00 00
	00		 call	 DWORD PTR __imp_?GetColor6@CGraphColor@@QBEKXZ

; 197  : 	}
; 198  : }

  0008d	50		 push	 eax
  0008e	8b cf		 mov	 ecx, edi
  00090	ff 56 38	 call	 DWORD PTR [esi+56]
  00093	5f		 pop	 edi
  00094	5e		 pop	 esi
  00095	5b		 pop	 ebx
  00096	5d		 pop	 ebp
  00097	c2 2c 00	 ret	 44			; 0000002cH
$LN6@SelectPenA:

; 186  : 	}
; 187  : 	//기본
; 188  : 	else
; 189  : 	{
; 190  : 		if(graphColor.GetUpGraphFill())

  0009a	ff 15 00 00 00
	00		 call	 DWORD PTR __imp_?GetUpGraphFill@CGraphColor@@QBE_NXZ
  000a0	8b 7d 08	 mov	 edi, DWORD PTR _pDC$[ebp]
  000a3	8b cf		 mov	 ecx, edi
  000a5	84 c0		 test	 al, al
  000a7	74 0a		 je	 SHORT $LN10@SelectPenA

; 191  : 			pDC->SelectObject(pBrush1);

  000a9	ff 75 18	 push	 DWORD PTR _pBrush1$[ebp]
  000ac	e8 00 00 00 00	 call	 ?SelectObject@CDC@@QAEPAVCBrush@@PAV2@@Z ; CDC::SelectObject
  000b1	eb 07		 jmp	 SHORT $LN11@SelectPenA
$LN10@SelectPenA:

; 192  : 		else
; 193  : 			pDC->SelectStockObject(NULL_BRUSH);

  000b3	8b 07		 mov	 eax, DWORD PTR [edi]
  000b5	6a 05		 push	 5
  000b7	ff 50 2c	 call	 DWORD PTR [eax+44]
$LN11@SelectPenA:

; 194  : 		
; 195  : 		pDC->SelectObject(pPen1);

  000ba	ff 75 0c	 push	 DWORD PTR _pPen1$[ebp]
  000bd	8b cf		 mov	 ecx, edi
  000bf	e8 00 00 00 00	 call	 ?SelectObject@CDC@@QAEPAVCPen@@PAV2@@Z ; CDC::SelectObject

; 196  : 		pDC->SetTextColor(graphColor.GetColor2());

  000c4	8b 37		 mov	 esi, DWORD PTR [edi]
  000c6	8b cb		 mov	 ecx, ebx
  000c8	ff 15 00 00 00
	00		 call	 DWORD PTR __imp_?GetColor2@CGraphColor@@QBEKXZ

; 197  : 	}
; 198  : }

  000ce	50		 push	 eax
  000cf	8b cf		 mov	 ecx, edi
  000d1	ff 56 38	 call	 DWORD PTR [esi+56]
  000d4	5f		 pop	 edi
  000d5	5e		 pop	 esi
  000d6	5b		 pop	 ebx
  000d7	5d		 pop	 ebp
  000d8	c2 2c 00	 ret	 44			; 0000002cH
?SelectPenAndBrushObject@CBarDraw@@IAEXPAVCDC@@PAVCPen@@11PAVCBrush@@22ABVCGraphColor@@HHH@Z ENDP ; CBarDraw::SelectPenAndBrushObject
_TEXT	ENDS
; Function compile flags: /Ogtp
; File D:\git\src\IBK\IBK_DRFN\ProjSrc\SrcChartEx\ChartOCX\GraphDraw\BarDraw.cpp
; File C:\Program Files (x86)\Microsoft Visual Studio\2019\Community\VC\Tools\MSVC\14.29.30133\atlmfc\include\afxwin1.inl
; File D:\git\src\IBK\IBK_DRFN\ProjSrc\SrcChartEx\ChartOCX\GraphDraw\BarDraw.cpp
; File C:\Program Files (x86)\Microsoft Visual Studio\2019\Community\VC\Tools\MSVC\14.29.30133\atlmfc\include\afxwin1.inl
; File D:\git\src\IBK\IBK_DRFN\ProjSrc\SrcChartEx\ChartOCX\GraphDraw\BarDraw.cpp
; File C:\Program Files (x86)\Microsoft Visual Studio\2019\Community\VC\Tools\MSVC\14.29.30133\atlmfc\include\afxwin1.inl
; File D:\git\src\IBK\IBK_DRFN\ProjSrc\SrcChartEx\ChartOCX\GraphDraw\BarDraw.cpp
; File C:\Program Files (x86)\Microsoft Visual Studio\2019\Community\VC\Tools\MSVC\14.29.30133\atlmfc\include\afxwin1.inl
; File D:\git\src\IBK\IBK_DRFN\ProjSrc\SrcChartEx\ChartOCX\GraphDraw\BarDraw.cpp
; File C:\Program Files (x86)\Microsoft Visual Studio\2019\Community\VC\Tools\MSVC\14.29.30133\atlmfc\include\afxwin1.inl
; File D:\git\src\IBK\IBK_DRFN\ProjSrc\SrcChartEx\ChartOCX\GraphDraw\BarDraw.cpp
; File C:\Program Files (x86)\Microsoft Visual Studio\2019\Community\VC\Tools\MSVC\14.29.30133\atlmfc\include\afxwin1.inl
; File D:\git\src\IBK\IBK_DRFN\ProjSrc\SrcChartEx\ChartOCX\GraphDraw\BarDraw.cpp
;	COMDAT ?CreatePenAndBrush@CBarDraw@@IAEXABVCGraphColor@@AAVCPen@@11AAVCBrush@@22@Z
_TEXT	SEGMENT
_graphColor$ = 8					; size = 4
_pen1$ = 12						; size = 4
_pen2$ = 16						; size = 4
_pen3$ = 20						; size = 4
_brush1$ = 24						; size = 4
_brush2$ = 28						; size = 4
_brush3$ = 32						; size = 4
?CreatePenAndBrush@CBarDraw@@IAEXABVCGraphColor@@AAVCPen@@11AAVCBrush@@22@Z PROC ; CBarDraw::CreatePenAndBrush, COMDAT
; _this$ = ecx

; 147  : {

  00000	55		 push	 ebp
  00001	8b ec		 mov	 ebp, esp

; 148  : 	//기본
; 149  : 	pen1.CreatePen(PS_SOLID, 1, graphColor.GetColor1());

  00003	8b 4d 08	 mov	 ecx, DWORD PTR _graphColor$[ebp]
  00006	53		 push	 ebx
  00007	56		 push	 esi
  00008	8b 35 00 00 00
	00		 mov	 esi, DWORD PTR __imp_?GetColor1@CGraphColor@@QBEKXZ
  0000e	57		 push	 edi
  0000f	ff d6		 call	 esi
; File C:\Program Files (x86)\Microsoft Visual Studio\2019\Community\VC\Tools\MSVC\14.29.30133\atlmfc\include\afxwin1.inl

; 108  : 	{ return Attach(::CreatePen(nPenStyle, nWidth, crColor)); }

  00011	8b 1d 00 00 00
	00		 mov	 ebx, DWORD PTR __imp__CreatePen@12
  00017	50		 push	 eax
  00018	6a 01		 push	 1
  0001a	6a 00		 push	 0
  0001c	ff d3		 call	 ebx
  0001e	8b 4d 0c	 mov	 ecx, DWORD PTR _pen1$[ebp]
  00021	50		 push	 eax
  00022	e8 00 00 00 00	 call	 ?Attach@CGdiObject@@QAEHPAX@Z ; CGdiObject::Attach
; File D:\git\src\IBK\IBK_DRFN\ProjSrc\SrcChartEx\ChartOCX\GraphDraw\BarDraw.cpp

; 150  : 	brush1.CreateSolidBrush(graphColor.GetColor1());

  00027	8b 4d 08	 mov	 ecx, DWORD PTR _graphColor$[ebp]
  0002a	ff d6		 call	 esi
; File C:\Program Files (x86)\Microsoft Visual Studio\2019\Community\VC\Tools\MSVC\14.29.30133\atlmfc\include\afxwin1.inl

; 132  : 	{ return Attach(::CreateSolidBrush(crColor)); }

  0002c	8b 3d 00 00 00
	00		 mov	 edi, DWORD PTR __imp__CreateSolidBrush@4
  00032	50		 push	 eax
  00033	ff d7		 call	 edi
  00035	8b 4d 18	 mov	 ecx, DWORD PTR _brush1$[ebp]
  00038	50		 push	 eax
  00039	e8 00 00 00 00	 call	 ?Attach@CGdiObject@@QAEHPAX@Z ; CGdiObject::Attach
; File D:\git\src\IBK\IBK_DRFN\ProjSrc\SrcChartEx\ChartOCX\GraphDraw\BarDraw.cpp

; 153  : 	pen2.CreatePen(PS_SOLID, 1, graphColor.GetColor3());

  0003e	8b 4d 08	 mov	 ecx, DWORD PTR _graphColor$[ebp]
  00041	8b 35 00 00 00
	00		 mov	 esi, DWORD PTR __imp_?GetColor3@CGraphColor@@QBEKXZ
  00047	ff d6		 call	 esi
; File C:\Program Files (x86)\Microsoft Visual Studio\2019\Community\VC\Tools\MSVC\14.29.30133\atlmfc\include\afxwin1.inl

; 108  : 	{ return Attach(::CreatePen(nPenStyle, nWidth, crColor)); }

  00049	50		 push	 eax
  0004a	6a 01		 push	 1
  0004c	6a 00		 push	 0
  0004e	ff d3		 call	 ebx
  00050	8b 4d 10	 mov	 ecx, DWORD PTR _pen2$[ebp]
  00053	50		 push	 eax
  00054	e8 00 00 00 00	 call	 ?Attach@CGdiObject@@QAEHPAX@Z ; CGdiObject::Attach
; File D:\git\src\IBK\IBK_DRFN\ProjSrc\SrcChartEx\ChartOCX\GraphDraw\BarDraw.cpp

; 154  : 	brush2.CreateSolidBrush(graphColor.GetColor3());

  00059	8b 4d 08	 mov	 ecx, DWORD PTR _graphColor$[ebp]
  0005c	ff d6		 call	 esi
; File C:\Program Files (x86)\Microsoft Visual Studio\2019\Community\VC\Tools\MSVC\14.29.30133\atlmfc\include\afxwin1.inl

; 132  : 	{ return Attach(::CreateSolidBrush(crColor)); }

  0005e	50		 push	 eax
  0005f	ff d7		 call	 edi
  00061	8b 4d 1c	 mov	 ecx, DWORD PTR _brush2$[ebp]
  00064	50		 push	 eax
  00065	e8 00 00 00 00	 call	 ?Attach@CGdiObject@@QAEHPAX@Z ; CGdiObject::Attach
; File D:\git\src\IBK\IBK_DRFN\ProjSrc\SrcChartEx\ChartOCX\GraphDraw\BarDraw.cpp

; 157  : 	pen3.CreatePen(PS_SOLID, 1, graphColor.GetColor5());

  0006a	8b 4d 08	 mov	 ecx, DWORD PTR _graphColor$[ebp]
  0006d	8b 35 00 00 00
	00		 mov	 esi, DWORD PTR __imp_?GetColor5@CGraphColor@@QBEKXZ
  00073	ff d6		 call	 esi
; File C:\Program Files (x86)\Microsoft Visual Studio\2019\Community\VC\Tools\MSVC\14.29.30133\atlmfc\include\afxwin1.inl

; 108  : 	{ return Attach(::CreatePen(nPenStyle, nWidth, crColor)); }

  00075	50		 push	 eax
  00076	6a 01		 push	 1
  00078	6a 00		 push	 0
  0007a	ff d3		 call	 ebx
  0007c	8b 4d 14	 mov	 ecx, DWORD PTR _pen3$[ebp]
  0007f	50		 push	 eax
  00080	e8 00 00 00 00	 call	 ?Attach@CGdiObject@@QAEHPAX@Z ; CGdiObject::Attach
; File D:\git\src\IBK\IBK_DRFN\ProjSrc\SrcChartEx\ChartOCX\GraphDraw\BarDraw.cpp

; 158  : 	brush3.CreateSolidBrush(graphColor.GetColor5());

  00085	8b 4d 08	 mov	 ecx, DWORD PTR _graphColor$[ebp]
  00088	ff d6		 call	 esi
; File C:\Program Files (x86)\Microsoft Visual Studio\2019\Community\VC\Tools\MSVC\14.29.30133\atlmfc\include\afxwin1.inl

; 132  : 	{ return Attach(::CreateSolidBrush(crColor)); }

  0008a	50		 push	 eax
  0008b	ff d7		 call	 edi
  0008d	8b 4d 20	 mov	 ecx, DWORD PTR _brush3$[ebp]
  00090	50		 push	 eax
  00091	e8 00 00 00 00	 call	 ?Attach@CGdiObject@@QAEHPAX@Z ; CGdiObject::Attach
  00096	5f		 pop	 edi
  00097	5e		 pop	 esi
  00098	5b		 pop	 ebx
; File D:\git\src\IBK\IBK_DRFN\ProjSrc\SrcChartEx\ChartOCX\GraphDraw\BarDraw.cpp

; 159  : }

  00099	5d		 pop	 ebp
  0009a	c2 1c 00	 ret	 28			; 0000001cH
?CreatePenAndBrush@CBarDraw@@IAEXABVCGraphColor@@AAVCPen@@11AAVCBrush@@22@Z ENDP ; CBarDraw::CreatePenAndBrush
_TEXT	ENDS
; Function compile flags: /Ogtp
; File D:\git\src\IBK\IBK_DRFN\ProjSrc\SrcChartEx\ChartOCX\GraphDraw\BarDraw.cpp
;	COMDAT ?CheckBoxBarType@CBarDraw@@QAE_NPAVCPacket@@@Z
_TEXT	SEGMENT
_pPacket$ = 8						; size = 4
?CheckBoxBarType@CBarDraw@@QAE_NPAVCPacket@@@Z PROC	; CBarDraw::CheckBoxBarType, COMDAT
; _this$ = ecx

; 40   : {

  00000	55		 push	 ebp
  00001	8b ec		 mov	 ebp, esp

; 41   : 	if(!pPacket)	return false;

  00003	8b 4d 08	 mov	 ecx, DWORD PTR _pPacket$[ebp]
  00006	85 c9		 test	 ecx, ecx
  00008	74 19		 je	 SHORT $LN2@CheckBoxBa

; 42   : 	///분, 틱이면 forward		일, 주, 월이면 backward
; 43   : 	CScaleBaseData::HORZSCALEDRAWERTYPE scaleDrawerType = 

  0000a	ff 15 00 00 00
	00		 call	 DWORD PTR __imp_?GetDateUnitType@CPacket@@QAEHXZ

; 44   : 		(CScaleBaseData::HORZSCALEDRAWERTYPE)pPacket->GetDateUnitType();
; 45   : 
; 46   : 	CPacket* highPacket = NULL, *lowPacket = NULL;	
; 47   : 	switch(scaleDrawerType){

  00010	48		 dec	 eax
  00011	83 f8 05	 cmp	 eax, 5
  00014	77 0d		 ja	 SHORT $LN2@CheckBoxBa
  00016	ff 24 85 00 00
	00 00		 jmp	 DWORD PTR $LN12@CheckBoxBa[eax*4]
$LN5@CheckBoxBa:

; 48   : 	case CScaleBaseData::HORZ_TIME_ONE:	//시간
; 49   : 	case CScaleBaseData::HORZ_TIME_TWO:	//시간
; 50   : 	case CScaleBaseData::HORZ_TICK:		//틱
; 51   : 		return true;

  0001d	b0 01		 mov	 al, 1

; 59   : }

  0001f	5d		 pop	 ebp
  00020	c2 04 00	 ret	 4
$LN2@CheckBoxBa:

; 52   : 	case CScaleBaseData::HORZ_DAILY:	//일간
; 53   : 	case CScaleBaseData::HORZ_WEEKLEY:	//주간
; 54   : 	case CScaleBaseData::HORZ_MONTHLY:	//월간
; 55   : 		return false;
; 56   : 	}
; 57   : 
; 58   : 	return false;

  00023	32 c0		 xor	 al, al

; 59   : }

  00025	5d		 pop	 ebp
  00026	c2 04 00	 ret	 4
  00029	0f 1f 00	 npad	 3
$LN12@CheckBoxBa:
  0002c	00 00 00 00	 DD	 $LN2@CheckBoxBa
  00030	00 00 00 00	 DD	 $LN2@CheckBoxBa
  00034	00 00 00 00	 DD	 $LN2@CheckBoxBa
  00038	00 00 00 00	 DD	 $LN5@CheckBoxBa
  0003c	00 00 00 00	 DD	 $LN5@CheckBoxBa
  00040	00 00 00 00	 DD	 $LN5@CheckBoxBa
?CheckBoxBarType@CBarDraw@@QAE_NPAVCPacket@@@Z ENDP	; CBarDraw::CheckBoxBarType
_TEXT	ENDS
; Function compile flags: /Ogtp
; File D:\git\src\IBK\IBK_DRFN\ProjSrc\SrcChartEx\ChartOCX\GraphDraw\BarDraw.cpp
; File C:\Program Files (x86)\Microsoft Visual Studio\2019\Community\VC\Tools\MSVC\14.29.30133\atlmfc\include\cstringt.h
; File D:\git\src\IBK\IBK_DRFN\ProjSrc\SrcChartEx\ChartOCX\GraphDraw\BarDraw.cpp
;	COMDAT ?GetDrawingRegion@CBarDraw@@QBE?AVCRect@@PAVCPacket@@ABV2@ABV?$CStringT@DV?$StrTraitMFC_DLL@DV?$ChTraitsCRT@D@ATL@@@@@ATL@@HHABN3@Z
_TEXT	SEGMENT
_drawingRegion$2$ = -60					; size = 16
_drawingRegion$ = -44					; size = 16
_dMax$ = -28						; size = 8
_dMin$ = -20						; size = 8
__$EHRec$ = -12						; size = 12
___$ReturnUdt$ = 8					; size = 4
_pPacket$ = 12						; size = 4
_graphRegion$ = 16					; size = 4
$T2 = 20						; size = 4
_strSubGraphName$ = 20					; size = 4
_nStartIndex$ = 24					; size = 4
_nEndIndex$ = 28					; size = 4
_dViewMin$ = 32						; size = 4
_dViewMax$ = 36						; size = 4
?GetDrawingRegion@CBarDraw@@QBE?AVCRect@@PAVCPacket@@ABV2@ABV?$CStringT@DV?$StrTraitMFC_DLL@DV?$ChTraitsCRT@D@ATL@@@@@ATL@@HHABN3@Z PROC ; CBarDraw::GetDrawingRegion, COMDAT
; _this$ = ecx

; 90   : {

  00000	55		 push	 ebp
  00001	8b ec		 mov	 ebp, esp
  00003	6a ff		 push	 -1
  00005	68 00 00 00 00	 push	 __ehhandler$?GetDrawingRegion@CBarDraw@@QBE?AVCRect@@PAVCPacket@@ABV2@ABV?$CStringT@DV?$StrTraitMFC_DLL@DV?$ChTraitsCRT@D@ATL@@@@@ATL@@HHABN3@Z
  0000a	64 a1 00 00 00
	00		 mov	 eax, DWORD PTR fs:0
  00010	50		 push	 eax
  00011	83 ec 30	 sub	 esp, 48			; 00000030H
  00014	56		 push	 esi
  00015	a1 00 00 00 00	 mov	 eax, DWORD PTR ___security_cookie
  0001a	33 c5		 xor	 eax, ebp
  0001c	50		 push	 eax
  0001d	8d 45 f4	 lea	 eax, DWORD PTR __$EHRec$[ebp]
  00020	64 a3 00 00 00
	00		 mov	 DWORD PTR fs:0, eax

; 91   : 	if(strSubGraphName != _MTEXT( C2_OVERHANGING_SUPPLY))

  00026	a1 54 00 00 00	 mov	 eax, DWORD PTR ?g_iMetaTable@@3VIMetaTable@@A+84
; File C:\Program Files (x86)\Microsoft Visual Studio\2019\Community\VC\Tools\MSVC\14.29.30133\atlmfc\include\cstringt.h

; 2567 : 		return( str1.Compare( psz2 ) != 0 );

  0002b	8b 4d 14	 mov	 ecx, DWORD PTR _strSubGraphName$[ebp]
  0002e	ff b0 34 03 00
	00		 push	 DWORD PTR [eax+820]
  00034	ff 15 00 00 00
	00		 call	 DWORD PTR __imp_?Compare@?$CStringT@DV?$StrTraitMFC_DLL@DV?$ChTraitsCRT@D@ATL@@@@@ATL@@QBEHPBD@Z
  0003a	85 c0		 test	 eax, eax
; File D:\git\src\IBK\IBK_DRFN\ProjSrc\SrcChartEx\ChartOCX\GraphDraw\BarDraw.cpp

; 91   : 	if(strSubGraphName != _MTEXT( C2_OVERHANGING_SUPPLY))

  0003c	0f 85 e7 00 00
	00		 jne	 $LN16@GetDrawing

; 92   : 		return graphRegion;
; 93   : 
; 94   : 	// "대기매물" drawing region.
; 95   : 	CPacket* pClosePacket = GetPacket(pPacket, _MTEXT( C0_CLOSE));

  00042	a1 54 00 00 00	 mov	 eax, DWORD PTR ?g_iMetaTable@@3VIMetaTable@@A+84
  00047	8d 4d 14	 lea	 ecx, DWORD PTR $T2[ebp]
  0004a	ff 70 14	 push	 DWORD PTR [eax+20]
  0004d	ff 15 00 00 00
	00		 call	 DWORD PTR __imp_??0?$CStringT@DV?$StrTraitMFC_DLL@DV?$ChTraitsCRT@D@ATL@@@@@ATL@@QAE@PBD@Z

; 257  : 	if(pBasePacket == NULL)

  00053	8b 4d 0c	 mov	 ecx, DWORD PTR _pPacket$[ebp]

; 92   : 		return graphRegion;
; 93   : 
; 94   : 	// "대기매물" drawing region.
; 95   : 	CPacket* pClosePacket = GetPacket(pPacket, _MTEXT( C0_CLOSE));

  00056	c7 45 fc 00 00
	00 00		 mov	 DWORD PTR __$EHRec$[ebp+8], 0

; 257  : 	if(pBasePacket == NULL)

  0005d	85 c9		 test	 ecx, ecx
  0005f	75 04		 jne	 SHORT $LN12@GetDrawing

; 258  : 		return NULL;

  00061	33 f6		 xor	 esi, esi
  00063	eb 25		 jmp	 SHORT $LN11@GetDrawing
$LN12@GetDrawing:

; 259  : 
; 260  : 	CPacketList* pPacketList = pBasePacket->GetPacketList();

  00065	ff 15 00 00 00
	00		 call	 DWORD PTR __imp_?GetPacketList@CPacket@@QAEPAVCPacketList@@XZ
  0006b	8b f0		 mov	 esi, eax

; 261  : 	if(pPacketList == NULL)

  0006d	85 f6		 test	 esi, esi
  0006f	74 19		 je	 SHORT $LN11@GetDrawing
$LN13@GetDrawing:

; 262  : 		return NULL;
; 263  : 
; 264  : 	return pPacketList->GetBaseData(strPacketName);

  00071	6a 01		 push	 1
  00073	51		 push	 ecx
  00074	8d 45 14	 lea	 eax, DWORD PTR $T2[ebp]
  00077	8b cc		 mov	 ecx, esp
  00079	50		 push	 eax
  0007a	ff 15 00 00 00
	00		 call	 DWORD PTR __imp_??0?$CStringT@DV?$StrTraitMFC_DLL@DV?$ChTraitsCRT@D@ATL@@@@@ATL@@QAE@ABV01@@Z
  00080	8b ce		 mov	 ecx, esi
  00082	ff 15 00 00 00
	00		 call	 DWORD PTR __imp_?GetBaseData@CPacketList@@QAEPAVCPacket@@V?$CStringT@DV?$StrTraitMFC_DLL@DV?$ChTraitsCRT@D@ATL@@@@@ATL@@_N@Z
  00088	8b f0		 mov	 esi, eax
$LN11@GetDrawing:

; 92   : 		return graphRegion;
; 93   : 
; 94   : 	// "대기매물" drawing region.
; 95   : 	CPacket* pClosePacket = GetPacket(pPacket, _MTEXT( C0_CLOSE));

  0008a	8d 4d 14	 lea	 ecx, DWORD PTR $T2[ebp]
  0008d	c7 45 fc ff ff
	ff ff		 mov	 DWORD PTR __$EHRec$[ebp+8], -1
  00094	ff 15 00 00 00
	00		 call	 DWORD PTR __imp_??1?$CStringT@DV?$StrTraitMFC_DLL@DV?$ChTraitsCRT@D@ATL@@@@@ATL@@QAE@XZ

; 96   : 	if(pClosePacket == NULL)

  0009a	85 f6		 test	 esi, esi
  0009c	0f 84 87 00 00
	00		 je	 $LN16@GetDrawing

; 97   : 		return graphRegion;
; 98   : 
; 99   : 	double dMin = 0.0, dMax = 0.0;
; 100  : 	if(pClosePacket->GetMinMax(nStartIndex, nEndIndex, dMin, dMax) < 0)

  000a2	6a 00		 push	 0
  000a4	8d 45 e4	 lea	 eax, DWORD PTR _dMax$[ebp]
  000a7	0f 57 c0	 xorps	 xmm0, xmm0
  000aa	50		 push	 eax
  000ab	8d 45 ec	 lea	 eax, DWORD PTR _dMin$[ebp]
  000ae	f2 0f 11 45 ec	 movsd	 QWORD PTR _dMin$[ebp], xmm0
  000b3	50		 push	 eax
  000b4	ff 75 1c	 push	 DWORD PTR _nEndIndex$[ebp]
  000b7	8b ce		 mov	 ecx, esi
  000b9	f2 0f 11 45 e4	 movsd	 QWORD PTR _dMax$[ebp], xmm0
  000be	ff 75 18	 push	 DWORD PTR _nStartIndex$[ebp]
  000c1	ff 15 00 00 00
	00		 call	 DWORD PTR __imp_?GetMinMax@CPacket@@QAEHHHAAN0H@Z
  000c7	85 c0		 test	 eax, eax
  000c9	78 5e		 js	 SHORT $LN16@GetDrawing

; 102  : 
; 103  : 	CRect drawingRegion = graphRegion;

  000cb	8b 45 10	 mov	 eax, DWORD PTR _graphRegion$[ebp]

; 104  : 	int nMinPosition = CDataConversion::RelativeToAbsolute_Y(graphRegion, dMin, dViewMin, dViewMax);

  000ce	8d 4d ec	 lea	 ecx, DWORD PTR _dMin$[ebp]
  000d1	ff 75 24	 push	 DWORD PTR _dViewMax$[ebp]
  000d4	8b 75 20	 mov	 esi, DWORD PTR _dViewMin$[ebp]
  000d7	56		 push	 esi
  000d8	0f 10 00	 movups	 xmm0, XMMWORD PTR [eax]
  000db	51		 push	 ecx
  000dc	50		 push	 eax
  000dd	0f 11 45 c4	 movups	 XMMWORD PTR _drawingRegion$2$[ebp], xmm0
  000e1	0f 11 45 d4	 movups	 XMMWORD PTR _drawingRegion$[ebp], xmm0
  000e5	e8 00 00 00 00	 call	 ?RelativeToAbsolute_Y@CDataConversion@@SAHABVCRect@@ABN11@Z ; CDataConversion::RelativeToAbsolute_Y

; 105  : 	if(graphRegion.bottom > nMinPosition)

  000ea	0f 10 45 c4	 movups	 xmm0, XMMWORD PTR _drawingRegion$2$[ebp]
  000ee	8b 55 10	 mov	 edx, DWORD PTR _graphRegion$[ebp]

; 106  : 		drawingRegion.bottom = nMinPosition;
; 107  : 	int nMaxPosition = CDataConversion::RelativeToAbsolute_Y(graphRegion, dMax, dViewMin, dViewMax);

  000f1	ff 75 24	 push	 DWORD PTR _dViewMax$[ebp]
  000f4	66 0f 73 d8 0c	 psrldq	 xmm0, 12		; 0000000cH
  000f9	66 0f 7e c1	 movd	 ecx, xmm0
  000fd	39 42 0c	 cmp	 DWORD PTR [edx+12], eax
  00100	56		 push	 esi
  00101	0f 4f c8	 cmovg	 ecx, eax
  00104	8d 45 e4	 lea	 eax, DWORD PTR _dMax$[ebp]
  00107	50		 push	 eax
  00108	52		 push	 edx
  00109	89 4d e0	 mov	 DWORD PTR _drawingRegion$[ebp+12], ecx
  0010c	e8 00 00 00 00	 call	 ?RelativeToAbsolute_Y@CDataConversion@@SAHABVCRect@@ABN11@Z ; CDataConversion::RelativeToAbsolute_Y

; 108  : 	if(graphRegion.top < nMaxPosition)

  00111	8b 55 10	 mov	 edx, DWORD PTR _graphRegion$[ebp]
  00114	83 c4 20	 add	 esp, 32			; 00000020H
  00117	8b 4d d8	 mov	 ecx, DWORD PTR _drawingRegion$[ebp+4]
  0011a	39 42 04	 cmp	 DWORD PTR [edx+4], eax
  0011d	0f 4c c8	 cmovl	 ecx, eax
  00120	89 4d d8	 mov	 DWORD PTR _drawingRegion$[ebp+4], ecx

; 109  : 		drawingRegion.top = nMaxPosition;
; 110  : 
; 111  : 	return drawingRegion;

  00123	0f 10 45 d4	 movups	 xmm0, XMMWORD PTR _drawingRegion$[ebp]
  00127	eb 06		 jmp	 SHORT $LN18@GetDrawing
$LN16@GetDrawing:

; 101  : 		return graphRegion;

  00129	8b 45 10	 mov	 eax, DWORD PTR _graphRegion$[ebp]
  0012c	0f 10 00	 movups	 xmm0, XMMWORD PTR [eax]
$LN18@GetDrawing:

; 112  : }

  0012f	8b 45 08	 mov	 eax, DWORD PTR ___$ReturnUdt$[ebp]
  00132	0f 11 00	 movups	 XMMWORD PTR [eax], xmm0
  00135	8b 4d f4	 mov	 ecx, DWORD PTR __$EHRec$[ebp]
  00138	64 89 0d 00 00
	00 00		 mov	 DWORD PTR fs:0, ecx
  0013f	59		 pop	 ecx
  00140	5e		 pop	 esi
  00141	8b e5		 mov	 esp, ebp
  00143	5d		 pop	 ebp
  00144	c2 20 00	 ret	 32			; 00000020H
_TEXT	ENDS
;	COMDAT text$x
text$x	SEGMENT
__unwindfunclet$?GetDrawingRegion@CBarDraw@@QBE?AVCRect@@PAVCPacket@@ABV2@ABV?$CStringT@DV?$StrTraitMFC_DLL@DV?$ChTraitsCRT@D@ATL@@@@@ATL@@HHABN3@Z$0:
  00000	8d 4d 14	 lea	 ecx, DWORD PTR $T2[ebp]
  00003	ff 25 00 00 00
	00		 jmp	 DWORD PTR __imp_??1?$CStringT@DV?$StrTraitMFC_DLL@DV?$ChTraitsCRT@D@ATL@@@@@ATL@@QAE@XZ
  00009	cc		 int	 3
  0000a	cc		 int	 3
  0000b	cc		 int	 3
  0000c	cc		 int	 3
  0000d	cc		 int	 3
__ehhandler$?GetDrawingRegion@CBarDraw@@QBE?AVCRect@@PAVCPacket@@ABV2@ABV?$CStringT@DV?$StrTraitMFC_DLL@DV?$ChTraitsCRT@D@ATL@@@@@ATL@@HHABN3@Z:
  0000e	90		 npad	 1
  0000f	90		 npad	 1
  00010	8b 54 24 08	 mov	 edx, DWORD PTR [esp+8]
  00014	8d 42 0c	 lea	 eax, DWORD PTR [edx+12]
  00017	8b 4a c8	 mov	 ecx, DWORD PTR [edx-56]
  0001a	33 c8		 xor	 ecx, eax
  0001c	e8 00 00 00 00	 call	 @__security_check_cookie@4
  00021	b8 00 00 00 00	 mov	 eax, OFFSET __ehfuncinfo$?GetDrawingRegion@CBarDraw@@QBE?AVCRect@@PAVCPacket@@ABV2@ABV?$CStringT@DV?$StrTraitMFC_DLL@DV?$ChTraitsCRT@D@ATL@@@@@ATL@@HHABN3@Z
  00026	e9 00 00 00 00	 jmp	 ___CxxFrameHandler3
text$x	ENDS
?GetDrawingRegion@CBarDraw@@QBE?AVCRect@@PAVCPacket@@ABV2@ABV?$CStringT@DV?$StrTraitMFC_DLL@DV?$ChTraitsCRT@D@ATL@@@@@ATL@@HHABN3@Z ENDP ; CBarDraw::GetDrawingRegion
; Function compile flags: /Ogtp
; File D:\git\src\IBK\IBK_DRFN\ProjSrc\SrcChartEx\ChartOCX\GraphDraw\BarDraw.cpp
;	COMDAT ?DrawGraph@CBarDraw@@UAE_NPAVCDC@@ABVCRect@@ABVCDisplayAttributes@@ABVCDrawingGraphData@@ABVCSubGraphData@@@Z
_TEXT	SEGMENT
_pDC$ = 8						; size = 4
_realRegion$ = 12					; size = 4
_displayAttributes$ = 16				; size = 4
_drawingGraphData$ = 20					; size = 4
_subGraphData$ = 24					; size = 4
?DrawGraph@CBarDraw@@UAE_NPAVCDC@@ABVCRect@@ABVCDisplayAttributes@@ABVCDrawingGraphData@@ABVCSubGraphData@@@Z PROC ; CBarDraw::DrawGraph, COMDAT
; _this$ = ecx

; 35   : 	return false;

  00000	32 c0		 xor	 al, al

; 36   : }

  00002	c2 14 00	 ret	 20			; 00000014H
?DrawGraph@CBarDraw@@UAE_NPAVCDC@@ABVCRect@@ABVCDisplayAttributes@@ABVCDrawingGraphData@@ABVCSubGraphData@@@Z ENDP ; CBarDraw::DrawGraph
_TEXT	ENDS
; Function compile flags: /Ogtp
; File D:\git\src\IBK\IBK_DRFN\ProjSrc\SrcChartEx\ChartOCX\GraphDraw\BarDraw.cpp
;	COMDAT ??1CBarDraw@@UAE@XZ
_TEXT	SEGMENT
??1CBarDraw@@UAE@XZ PROC				; CBarDraw::~CBarDraw, COMDAT
; _this$ = ecx

; 26   : {

  00000	c7 01 00 00 00
	00		 mov	 DWORD PTR [ecx], OFFSET ??_7CBarDraw@@6B@

; 27   : }

  00006	e9 00 00 00 00	 jmp	 ??1CDraw@@UAE@XZ	; CDraw::~CDraw
??1CBarDraw@@UAE@XZ ENDP				; CBarDraw::~CBarDraw
_TEXT	ENDS
; Function compile flags: /Ogtp
; File D:\git\src\IBK\IBK_DRFN\ProjSrc\SrcChartEx\ChartOCX\GraphDraw\BarDraw.cpp
;	COMDAT ??0CBarDraw@@QAE@XZ
_TEXT	SEGMENT
_this$ = -4						; size = 4
??0CBarDraw@@QAE@XZ PROC				; CBarDraw::CBarDraw, COMDAT
; _this$ = ecx

; 21   : {

  00000	55		 push	 ebp
  00001	8b ec		 mov	 ebp, esp
  00003	51		 push	 ecx
  00004	56		 push	 esi
  00005	8b f1		 mov	 esi, ecx
  00007	89 75 fc	 mov	 DWORD PTR _this$[ebp], esi
  0000a	e8 00 00 00 00	 call	 ??0CDraw@@QAE@XZ	; CDraw::CDraw
  0000f	c7 06 00 00 00
	00		 mov	 DWORD PTR [esi], OFFSET ??_7CBarDraw@@6B@

; 22   : 	m_eGraphType = CGraphBaseData::Bar_Type;
; 23   : }

  00015	8b c6		 mov	 eax, esi
  00017	c7 46 10 02 00
	00 00		 mov	 DWORD PTR [esi+16], 2
  0001e	5e		 pop	 esi
  0001f	8b e5		 mov	 esp, ebp
  00021	5d		 pop	 ebp
  00022	c3		 ret	 0
??0CBarDraw@@QAE@XZ ENDP				; CBarDraw::CBarDraw
_TEXT	ENDS
; Function compile flags: /Ogtp
;	COMDAT ??4CGraphDrawer@@QAEAAV0@$$QAV0@@Z
_TEXT	SEGMENT
___that$ = 8						; size = 4
??4CGraphDrawer@@QAEAAV0@$$QAV0@@Z PROC			; CGraphDrawer::operator=, COMDAT
; _this$ = ecx
  00000	8b c1		 mov	 eax, ecx
  00002	c2 04 00	 ret	 4
??4CGraphDrawer@@QAEAAV0@$$QAV0@@Z ENDP			; CGraphDrawer::operator=
_TEXT	ENDS
; Function compile flags: /Ogtp
;	COMDAT ??4CGraphDrawer@@QAEAAV0@ABV0@@Z
_TEXT	SEGMENT
___that$ = 8						; size = 4
??4CGraphDrawer@@QAEAAV0@ABV0@@Z PROC			; CGraphDrawer::operator=, COMDAT
; _this$ = ecx
  00000	8b c1		 mov	 eax, ecx
  00002	c2 04 00	 ret	 4
??4CGraphDrawer@@QAEAAV0@ABV0@@Z ENDP			; CGraphDrawer::operator=
_TEXT	ENDS
; Function compile flags: /Ogtp
; File D:\git\src\IBK\IBK_DRFN\ProjSrc\SrcChartEx\ChartOCX\GraphDraw\BarDraw.cpp
;	COMDAT ?__empty_global_delete@@YAXPAXI@Z
_TEXT	SEGMENT
___formal$ = 8						; size = 4
___formal$ = 12						; size = 4
?__empty_global_delete@@YAXPAXI@Z PROC			; __empty_global_delete, COMDAT

  00000	c2 00 00	 ret	 0
?__empty_global_delete@@YAXPAXI@Z ENDP			; __empty_global_delete
_TEXT	ENDS
; Function compile flags: /Ogtp
; File D:\git\src\IBK\IBK_DRFN\ProjSrc\SrcChartEx\ChartOCX\GraphDraw\BarDraw.cpp
;	COMDAT ?__empty_global_delete@@YAXPAX@Z
_TEXT	SEGMENT
___formal$ = 8						; size = 4
?__empty_global_delete@@YAXPAX@Z PROC			; __empty_global_delete, COMDAT

  00000	c2 00 00	 ret	 0
?__empty_global_delete@@YAXPAX@Z ENDP			; __empty_global_delete
_TEXT	ENDS
END
