; Listing generated by Microsoft (R) Optimizing Compiler Version 19.29.30145.0 

	TITLE	D:\git\src\IBK\IBK_DRFN\#DRfn-CS\_Obj\GraphDraw\DataBlockList.obj
	.686P
	.XMM
	include listing.inc
	.model	flat

INCLUDELIB MSVCRT
INCLUDELIB OLDNAMES

CONST	SEGMENT
?_Fake_alloc@std@@3U_Fake_allocator@1@B	ORG $+1		; std::_Fake_alloc
CONST	ENDS
PUBLIC	?__empty_global_delete@@YAXPAX@Z		; __empty_global_delete
PUBLIC	?__empty_global_delete@@YAXPAXI@Z		; __empty_global_delete
PUBLIC	??0exception@std@@QAE@ABV01@@Z			; std::exception::exception
PUBLIC	??1exception@std@@UAE@XZ			; std::exception::~exception
PUBLIC	?what@exception@std@@UBEPBDXZ			; std::exception::what
PUBLIC	??_Gexception@std@@UAEPAXI@Z			; std::exception::`scalar deleting destructor'
PUBLIC	??0bad_alloc@std@@QAE@ABV01@@Z			; std::bad_alloc::bad_alloc
PUBLIC	??_Gbad_alloc@std@@UAEPAXI@Z			; std::bad_alloc::`scalar deleting destructor'
PUBLIC	??0bad_array_new_length@std@@QAE@XZ		; std::bad_array_new_length::bad_array_new_length
PUBLIC	??1bad_array_new_length@std@@UAE@XZ		; std::bad_array_new_length::~bad_array_new_length
PUBLIC	??0bad_array_new_length@std@@QAE@ABV01@@Z	; std::bad_array_new_length::bad_array_new_length
PUBLIC	??_Gbad_array_new_length@std@@UAEPAXI@Z		; std::bad_array_new_length::`scalar deleting destructor'
PUBLIC	?_Throw_bad_array_new_length@std@@YAXXZ		; std::_Throw_bad_array_new_length
PUBLIC	??1CDataBlockListUNK@@UAE@XZ			; CDataBlockListUNK::~CDataBlockListUNK
PUBLIC	?allocate@?$allocator@PAX@std@@QAEPAPAXI@Z	; std::allocator<void *>::allocate
PUBLIC	?_Change_array@?$vector@PAXV?$allocator@PAX@std@@@std@@AAEXQAPAXII@Z ; std::vector<void *,std::allocator<void *> >::_Change_array
PUBLIC	?_Xlength@?$vector@PAXV?$allocator@PAX@std@@@std@@CAXXZ ; std::vector<void *,std::allocator<void *> >::_Xlength
PUBLIC	?Clear@CDataBlockListUNK@@QAEXXZ		; CDataBlockListUNK::Clear
PUBLIC	?SetItemCount@CDataBlockListUNK@@QAEHH@Z	; CDataBlockListUNK::SetItemCount
PUBLIC	?GetItemCount@CDataBlockListUNK@@QAEHXZ		; CDataBlockListUNK::GetItemCount
PUBLIC	?GetItemSize@CDataBlockListUNK@@QAEHXZ		; CDataBlockListUNK::GetItemSize
PUBLIC	?GetBlockSize@CDataBlockListUNK@@QAEHXZ		; CDataBlockListUNK::GetBlockSize
PUBLIC	?DeleteBack@CDataBlockListUNK@@QAEXH@Z		; CDataBlockListUNK::DeleteBack
PUBLIC	?SetAtUNK@CDataBlockListUNK@@QAEHHPAX@Z		; CDataBlockListUNK::SetAtUNK
PUBLIC	?GetAtUNK@CDataBlockListUNK@@QAEPAXH@Z		; CDataBlockListUNK::GetAtUNK
PUBLIC	?SetIndex@CDataBlockListUNK@@QAEXH@Z		; CDataBlockListUNK::SetIndex
PUBLIC	?GetIndex@CDataBlockListUNK@@QAEHXZ		; CDataBlockListUNK::GetIndex
PUBLIC	?GetNextUNK@CDataBlockListUNK@@QAEPAXXZ		; CDataBlockListUNK::GetNextUNK
PUBLIC	?GetPrevUNK@CDataBlockListUNK@@QAEPAXXZ		; CDataBlockListUNK::GetPrevUNK
PUBLIC	??0DblCursor@CDataBlockListUNK@@QAE@XZ		; CDataBlockListUNK::DblCursor::DblCursor
PUBLIC	?GetDblCursorUNK@CDataBlockListUNK@@QAEXHHAAVDblCursor@1@@Z ; CDataBlockListUNK::GetDblCursorUNK
PUBLIC	?GetAtUNK@CDataBlockListUNK@@QAEPAXAAVDblCursor@1@@Z ; CDataBlockListUNK::GetAtUNK
PUBLIC	??_GCDataBlockListUNK@@UAEPAXI@Z		; CDataBlockListUNK::`scalar deleting destructor'
PUBLIC	??$_Emplace_reallocate@PAX@?$vector@PAXV?$allocator@PAX@std@@@std@@QAEPAPAXQAPAX$$QAPAX@Z ; std::vector<void *,std::allocator<void *> >::_Emplace_reallocate<void *>
PUBLIC	??$_Copy_memmove@PAPAXPAPAX@std@@YAPAPAXPAPAX00@Z ; std::_Copy_memmove<void * *,void * *>
PUBLIC	??$_Allocate_manually_vector_aligned@U_Default_allocate_traits@std@@@std@@YAPAXI@Z ; std::_Allocate_manually_vector_aligned<std::_Default_allocate_traits>
PUBLIC	??_7exception@std@@6B@				; std::exception::`vftable'
PUBLIC	??_C@_0BC@EOODALEL@Unknown?5exception@		; `string'
PUBLIC	??_7bad_alloc@std@@6B@				; std::bad_alloc::`vftable'
PUBLIC	??_7bad_array_new_length@std@@6B@		; std::bad_array_new_length::`vftable'
PUBLIC	??_C@_0BF@KINCDENJ@bad?5array?5new?5length@	; `string'
PUBLIC	__TI3?AVbad_array_new_length@std@@
PUBLIC	__CTA3?AVbad_array_new_length@std@@
PUBLIC	??_R0?AVbad_array_new_length@std@@@8		; std::bad_array_new_length `RTTI Type Descriptor'
PUBLIC	__CT??_R0?AVbad_array_new_length@std@@@8??0bad_array_new_length@std@@QAE@ABV01@@Z12
PUBLIC	??_R0?AVbad_alloc@std@@@8			; std::bad_alloc `RTTI Type Descriptor'
PUBLIC	__CT??_R0?AVbad_alloc@std@@@8??0bad_alloc@std@@QAE@ABV01@@Z12
PUBLIC	??_R0?AVexception@std@@@8			; std::exception `RTTI Type Descriptor'
PUBLIC	__CT??_R0?AVexception@std@@@8??0exception@std@@QAE@ABV01@@Z12
PUBLIC	??_7CDataBlockListUNK@@6B@			; CDataBlockListUNK::`vftable'
PUBLIC	??_C@_0BA@FOIKENOD@vector?5too?5long@		; `string'
PUBLIC	??_R4exception@std@@6B@				; std::exception::`RTTI Complete Object Locator'
PUBLIC	??_R3exception@std@@8				; std::exception::`RTTI Class Hierarchy Descriptor'
PUBLIC	??_R2exception@std@@8				; std::exception::`RTTI Base Class Array'
PUBLIC	??_R1A@?0A@EA@exception@std@@8			; std::exception::`RTTI Base Class Descriptor at (0,-1,0,64)'
PUBLIC	??_R4bad_alloc@std@@6B@				; std::bad_alloc::`RTTI Complete Object Locator'
PUBLIC	??_R3bad_alloc@std@@8				; std::bad_alloc::`RTTI Class Hierarchy Descriptor'
PUBLIC	??_R2bad_alloc@std@@8				; std::bad_alloc::`RTTI Base Class Array'
PUBLIC	??_R1A@?0A@EA@bad_alloc@std@@8			; std::bad_alloc::`RTTI Base Class Descriptor at (0,-1,0,64)'
PUBLIC	??_R4bad_array_new_length@std@@6B@		; std::bad_array_new_length::`RTTI Complete Object Locator'
PUBLIC	??_R3bad_array_new_length@std@@8		; std::bad_array_new_length::`RTTI Class Hierarchy Descriptor'
PUBLIC	??_R2bad_array_new_length@std@@8		; std::bad_array_new_length::`RTTI Base Class Array'
PUBLIC	??_R1A@?0A@EA@bad_array_new_length@std@@8	; std::bad_array_new_length::`RTTI Base Class Descriptor at (0,-1,0,64)'
PUBLIC	??_R4CDataBlockListUNK@@6B@			; CDataBlockListUNK::`RTTI Complete Object Locator'
PUBLIC	??_R0?AVCDataBlockListUNK@@@8			; CDataBlockListUNK `RTTI Type Descriptor'
PUBLIC	??_R3CDataBlockListUNK@@8			; CDataBlockListUNK::`RTTI Class Hierarchy Descriptor'
PUBLIC	??_R2CDataBlockListUNK@@8			; CDataBlockListUNK::`RTTI Base Class Array'
PUBLIC	??_R1A@?0A@EA@CDataBlockListUNK@@8		; CDataBlockListUNK::`RTTI Base Class Descriptor at (0,-1,0,64)'
EXTRN	??2@YAPAXI@Z:PROC				; operator new
EXTRN	??3@YAXPAXI@Z:PROC				; operator delete
EXTRN	__imp___invalid_parameter_noinfo_noreturn:PROC
EXTRN	__imp__free:PROC
EXTRN	__imp__malloc:PROC
EXTRN	___std_exception_copy:PROC
EXTRN	___std_exception_destroy:PROC
EXTRN	??_Eexception@std@@UAEPAXI@Z:PROC		; std::exception::`vector deleting destructor'
EXTRN	??_Ebad_alloc@std@@UAEPAXI@Z:PROC		; std::bad_alloc::`vector deleting destructor'
EXTRN	??_Ebad_array_new_length@std@@UAEPAXI@Z:PROC	; std::bad_array_new_length::`vector deleting destructor'
EXTRN	?_Xlength_error@std@@YAXPBD@Z:PROC		; std::_Xlength_error
EXTRN	??_ECDataBlockListUNK@@UAEPAXI@Z:PROC		; CDataBlockListUNK::`vector deleting destructor'
EXTRN	__CxxThrowException@8:PROC
EXTRN	_memcpy:PROC
EXTRN	_memmove:PROC
EXTRN	??_7type_info@@6B@:QWORD			; type_info::`vftable'
;	COMDAT ??_R1A@?0A@EA@CDataBlockListUNK@@8
rdata$r	SEGMENT
??_R1A@?0A@EA@CDataBlockListUNK@@8 DD FLAT:??_R0?AVCDataBlockListUNK@@@8 ; CDataBlockListUNK::`RTTI Base Class Descriptor at (0,-1,0,64)'
	DD	00H
	DD	00H
	DD	0ffffffffH
	DD	00H
	DD	040H
	DD	FLAT:??_R3CDataBlockListUNK@@8
rdata$r	ENDS
;	COMDAT ??_R2CDataBlockListUNK@@8
rdata$r	SEGMENT
??_R2CDataBlockListUNK@@8 DD FLAT:??_R1A@?0A@EA@CDataBlockListUNK@@8 ; CDataBlockListUNK::`RTTI Base Class Array'
rdata$r	ENDS
;	COMDAT ??_R3CDataBlockListUNK@@8
rdata$r	SEGMENT
??_R3CDataBlockListUNK@@8 DD 00H			; CDataBlockListUNK::`RTTI Class Hierarchy Descriptor'
	DD	00H
	DD	01H
	DD	FLAT:??_R2CDataBlockListUNK@@8
rdata$r	ENDS
;	COMDAT ??_R0?AVCDataBlockListUNK@@@8
data$rs	SEGMENT
??_R0?AVCDataBlockListUNK@@@8 DD FLAT:??_7type_info@@6B@ ; CDataBlockListUNK `RTTI Type Descriptor'
	DD	00H
	DB	'.?AVCDataBlockListUNK@@', 00H
data$rs	ENDS
;	COMDAT ??_R4CDataBlockListUNK@@6B@
rdata$r	SEGMENT
??_R4CDataBlockListUNK@@6B@ DD 00H			; CDataBlockListUNK::`RTTI Complete Object Locator'
	DD	00H
	DD	00H
	DD	FLAT:??_R0?AVCDataBlockListUNK@@@8
	DD	FLAT:??_R3CDataBlockListUNK@@8
rdata$r	ENDS
;	COMDAT ??_R1A@?0A@EA@bad_array_new_length@std@@8
rdata$r	SEGMENT
??_R1A@?0A@EA@bad_array_new_length@std@@8 DD FLAT:??_R0?AVbad_array_new_length@std@@@8 ; std::bad_array_new_length::`RTTI Base Class Descriptor at (0,-1,0,64)'
	DD	02H
	DD	00H
	DD	0ffffffffH
	DD	00H
	DD	040H
	DD	FLAT:??_R3bad_array_new_length@std@@8
rdata$r	ENDS
;	COMDAT ??_R2bad_array_new_length@std@@8
rdata$r	SEGMENT
??_R2bad_array_new_length@std@@8 DD FLAT:??_R1A@?0A@EA@bad_array_new_length@std@@8 ; std::bad_array_new_length::`RTTI Base Class Array'
	DD	FLAT:??_R1A@?0A@EA@bad_alloc@std@@8
	DD	FLAT:??_R1A@?0A@EA@exception@std@@8
rdata$r	ENDS
;	COMDAT ??_R3bad_array_new_length@std@@8
rdata$r	SEGMENT
??_R3bad_array_new_length@std@@8 DD 00H			; std::bad_array_new_length::`RTTI Class Hierarchy Descriptor'
	DD	00H
	DD	03H
	DD	FLAT:??_R2bad_array_new_length@std@@8
rdata$r	ENDS
;	COMDAT ??_R4bad_array_new_length@std@@6B@
rdata$r	SEGMENT
??_R4bad_array_new_length@std@@6B@ DD 00H		; std::bad_array_new_length::`RTTI Complete Object Locator'
	DD	00H
	DD	00H
	DD	FLAT:??_R0?AVbad_array_new_length@std@@@8
	DD	FLAT:??_R3bad_array_new_length@std@@8
rdata$r	ENDS
;	COMDAT ??_R1A@?0A@EA@bad_alloc@std@@8
rdata$r	SEGMENT
??_R1A@?0A@EA@bad_alloc@std@@8 DD FLAT:??_R0?AVbad_alloc@std@@@8 ; std::bad_alloc::`RTTI Base Class Descriptor at (0,-1,0,64)'
	DD	01H
	DD	00H
	DD	0ffffffffH
	DD	00H
	DD	040H
	DD	FLAT:??_R3bad_alloc@std@@8
rdata$r	ENDS
;	COMDAT ??_R2bad_alloc@std@@8
rdata$r	SEGMENT
??_R2bad_alloc@std@@8 DD FLAT:??_R1A@?0A@EA@bad_alloc@std@@8 ; std::bad_alloc::`RTTI Base Class Array'
	DD	FLAT:??_R1A@?0A@EA@exception@std@@8
rdata$r	ENDS
;	COMDAT ??_R3bad_alloc@std@@8
rdata$r	SEGMENT
??_R3bad_alloc@std@@8 DD 00H				; std::bad_alloc::`RTTI Class Hierarchy Descriptor'
	DD	00H
	DD	02H
	DD	FLAT:??_R2bad_alloc@std@@8
rdata$r	ENDS
;	COMDAT ??_R4bad_alloc@std@@6B@
rdata$r	SEGMENT
??_R4bad_alloc@std@@6B@ DD 00H				; std::bad_alloc::`RTTI Complete Object Locator'
	DD	00H
	DD	00H
	DD	FLAT:??_R0?AVbad_alloc@std@@@8
	DD	FLAT:??_R3bad_alloc@std@@8
rdata$r	ENDS
;	COMDAT ??_R1A@?0A@EA@exception@std@@8
rdata$r	SEGMENT
??_R1A@?0A@EA@exception@std@@8 DD FLAT:??_R0?AVexception@std@@@8 ; std::exception::`RTTI Base Class Descriptor at (0,-1,0,64)'
	DD	00H
	DD	00H
	DD	0ffffffffH
	DD	00H
	DD	040H
	DD	FLAT:??_R3exception@std@@8
rdata$r	ENDS
;	COMDAT ??_R2exception@std@@8
rdata$r	SEGMENT
??_R2exception@std@@8 DD FLAT:??_R1A@?0A@EA@exception@std@@8 ; std::exception::`RTTI Base Class Array'
rdata$r	ENDS
;	COMDAT ??_R3exception@std@@8
rdata$r	SEGMENT
??_R3exception@std@@8 DD 00H				; std::exception::`RTTI Class Hierarchy Descriptor'
	DD	00H
	DD	01H
	DD	FLAT:??_R2exception@std@@8
rdata$r	ENDS
;	COMDAT ??_R4exception@std@@6B@
rdata$r	SEGMENT
??_R4exception@std@@6B@ DD 00H				; std::exception::`RTTI Complete Object Locator'
	DD	00H
	DD	00H
	DD	FLAT:??_R0?AVexception@std@@@8
	DD	FLAT:??_R3exception@std@@8
rdata$r	ENDS
;	COMDAT ??_C@_0BA@FOIKENOD@vector?5too?5long@
CONST	SEGMENT
??_C@_0BA@FOIKENOD@vector?5too?5long@ DB 'vector too long', 00H ; `string'
CONST	ENDS
;	COMDAT ??_7CDataBlockListUNK@@6B@
CONST	SEGMENT
??_7CDataBlockListUNK@@6B@ DD FLAT:??_R4CDataBlockListUNK@@6B@ ; CDataBlockListUNK::`vftable'
	DD	FLAT:??_ECDataBlockListUNK@@UAEPAXI@Z
CONST	ENDS
;	COMDAT __CT??_R0?AVexception@std@@@8??0exception@std@@QAE@ABV01@@Z12
xdata$x	SEGMENT
__CT??_R0?AVexception@std@@@8??0exception@std@@QAE@ABV01@@Z12 DD 00H
	DD	FLAT:??_R0?AVexception@std@@@8
	DD	00H
	DD	0ffffffffH
	ORG $+4
	DD	0cH
	DD	FLAT:??0exception@std@@QAE@ABV01@@Z
xdata$x	ENDS
;	COMDAT ??_R0?AVexception@std@@@8
data$r	SEGMENT
??_R0?AVexception@std@@@8 DD FLAT:??_7type_info@@6B@	; std::exception `RTTI Type Descriptor'
	DD	00H
	DB	'.?AVexception@std@@', 00H
data$r	ENDS
;	COMDAT __CT??_R0?AVbad_alloc@std@@@8??0bad_alloc@std@@QAE@ABV01@@Z12
xdata$x	SEGMENT
__CT??_R0?AVbad_alloc@std@@@8??0bad_alloc@std@@QAE@ABV01@@Z12 DD 010H
	DD	FLAT:??_R0?AVbad_alloc@std@@@8
	DD	00H
	DD	0ffffffffH
	ORG $+4
	DD	0cH
	DD	FLAT:??0bad_alloc@std@@QAE@ABV01@@Z
xdata$x	ENDS
;	COMDAT ??_R0?AVbad_alloc@std@@@8
data$r	SEGMENT
??_R0?AVbad_alloc@std@@@8 DD FLAT:??_7type_info@@6B@	; std::bad_alloc `RTTI Type Descriptor'
	DD	00H
	DB	'.?AVbad_alloc@std@@', 00H
data$r	ENDS
;	COMDAT __CT??_R0?AVbad_array_new_length@std@@@8??0bad_array_new_length@std@@QAE@ABV01@@Z12
xdata$x	SEGMENT
__CT??_R0?AVbad_array_new_length@std@@@8??0bad_array_new_length@std@@QAE@ABV01@@Z12 DD 00H
	DD	FLAT:??_R0?AVbad_array_new_length@std@@@8
	DD	00H
	DD	0ffffffffH
	ORG $+4
	DD	0cH
	DD	FLAT:??0bad_array_new_length@std@@QAE@ABV01@@Z
xdata$x	ENDS
;	COMDAT ??_R0?AVbad_array_new_length@std@@@8
data$r	SEGMENT
??_R0?AVbad_array_new_length@std@@@8 DD FLAT:??_7type_info@@6B@ ; std::bad_array_new_length `RTTI Type Descriptor'
	DD	00H
	DB	'.?AVbad_array_new_length@std@@', 00H
data$r	ENDS
;	COMDAT __CTA3?AVbad_array_new_length@std@@
xdata$x	SEGMENT
__CTA3?AVbad_array_new_length@std@@ DD 03H
	DD	FLAT:__CT??_R0?AVbad_array_new_length@std@@@8??0bad_array_new_length@std@@QAE@ABV01@@Z12
	DD	FLAT:__CT??_R0?AVbad_alloc@std@@@8??0bad_alloc@std@@QAE@ABV01@@Z12
	DD	FLAT:__CT??_R0?AVexception@std@@@8??0exception@std@@QAE@ABV01@@Z12
xdata$x	ENDS
;	COMDAT __TI3?AVbad_array_new_length@std@@
xdata$x	SEGMENT
__TI3?AVbad_array_new_length@std@@ DD 00H
	DD	FLAT:??1bad_array_new_length@std@@UAE@XZ
	DD	00H
	DD	FLAT:__CTA3?AVbad_array_new_length@std@@
xdata$x	ENDS
;	COMDAT ??_C@_0BF@KINCDENJ@bad?5array?5new?5length@
CONST	SEGMENT
??_C@_0BF@KINCDENJ@bad?5array?5new?5length@ DB 'bad array new length', 00H ; `string'
CONST	ENDS
;	COMDAT ??_7bad_array_new_length@std@@6B@
CONST	SEGMENT
??_7bad_array_new_length@std@@6B@ DD FLAT:??_R4bad_array_new_length@std@@6B@ ; std::bad_array_new_length::`vftable'
	DD	FLAT:??_Ebad_array_new_length@std@@UAEPAXI@Z
	DD	FLAT:?what@exception@std@@UBEPBDXZ
CONST	ENDS
;	COMDAT ??_7bad_alloc@std@@6B@
CONST	SEGMENT
??_7bad_alloc@std@@6B@ DD FLAT:??_R4bad_alloc@std@@6B@	; std::bad_alloc::`vftable'
	DD	FLAT:??_Ebad_alloc@std@@UAEPAXI@Z
	DD	FLAT:?what@exception@std@@UBEPBDXZ
CONST	ENDS
;	COMDAT ??_C@_0BC@EOODALEL@Unknown?5exception@
CONST	SEGMENT
??_C@_0BC@EOODALEL@Unknown?5exception@ DB 'Unknown exception', 00H ; `string'
CONST	ENDS
;	COMDAT ??_7exception@std@@6B@
CONST	SEGMENT
??_7exception@std@@6B@ DD FLAT:??_R4exception@std@@6B@	; std::exception::`vftable'
	DD	FLAT:??_Eexception@std@@UAEPAXI@Z
	DD	FLAT:?what@exception@std@@UBEPBDXZ
CONST	ENDS
; Function compile flags: /Ogtp
; File C:\Program Files (x86)\Microsoft Visual Studio\2019\Community\VC\Tools\MSVC\14.29.30133\include\xmemory
;	COMDAT ??$_Allocate_manually_vector_aligned@U_Default_allocate_traits@std@@@std@@YAPAXI@Z
_TEXT	SEGMENT
__Bytes$ = 8						; size = 4
??$_Allocate_manually_vector_aligned@U_Default_allocate_traits@std@@@std@@YAPAXI@Z PROC ; std::_Allocate_manually_vector_aligned<std::_Default_allocate_traits>, COMDAT

; 127  : __declspec(allocator) void* _Allocate_manually_vector_aligned(const size_t _Bytes) {

  00000	55		 push	 ebp
  00001	8b ec		 mov	 ebp, esp

; 128  :     // allocate _Bytes manually aligned to at least _Big_allocation_alignment
; 129  :     const size_t _Block_size = _Non_user_size + _Bytes;

  00003	8b 45 08	 mov	 eax, DWORD PTR __Bytes$[ebp]
  00006	8d 48 23	 lea	 ecx, DWORD PTR [eax+35]

; 130  :     if (_Block_size <= _Bytes) {

  00009	3b c8		 cmp	 ecx, eax
  0000b	0f 86 00 00 00
	00		 jbe	 ?_Throw_bad_array_new_length@std@@YAXXZ ; std::_Throw_bad_array_new_length

; 79   :         return ::operator new(_Bytes);

  00011	51		 push	 ecx
  00012	e8 00 00 00 00	 call	 ??2@YAPAXI@Z		; operator new

; 131  :         _Throw_bad_array_new_length(); // add overflow
; 132  :     }
; 133  : 
; 134  :     const uintptr_t _Ptr_container = reinterpret_cast<uintptr_t>(_Traits::_Allocate(_Block_size));

  00017	8b c8		 mov	 ecx, eax

; 79   :         return ::operator new(_Bytes);

  00019	83 c4 04	 add	 esp, 4

; 135  :     _STL_VERIFY(_Ptr_container != 0, "invalid argument"); // validate even in release since we're doing p[-1]

  0001c	85 c9		 test	 ecx, ecx
  0001e	74 0b		 je	 SHORT $LN7@Allocate_m

; 136  :     void* const _Ptr = reinterpret_cast<void*>((_Ptr_container + _Non_user_size) & ~(_Big_allocation_alignment - 1));

  00020	8d 41 23	 lea	 eax, DWORD PTR [ecx+35]
  00023	83 e0 e0	 and	 eax, -32		; ffffffe0H

; 137  :     static_cast<uintptr_t*>(_Ptr)[-1] = _Ptr_container;

  00026	89 48 fc	 mov	 DWORD PTR [eax-4], ecx

; 138  : 
; 139  : #ifdef _DEBUG
; 140  :     static_cast<uintptr_t*>(_Ptr)[-2] = _Big_allocation_sentinel;
; 141  : #endif // _DEBUG
; 142  :     return _Ptr;
; 143  : }

  00029	5d		 pop	 ebp
  0002a	c3		 ret	 0
$LN7@Allocate_m:

; 135  :     _STL_VERIFY(_Ptr_container != 0, "invalid argument"); // validate even in release since we're doing p[-1]

  0002b	ff 25 00 00 00
	00		 jmp	 DWORD PTR __imp___invalid_parameter_noinfo_noreturn
??$_Allocate_manually_vector_aligned@U_Default_allocate_traits@std@@@std@@YAPAXI@Z ENDP ; std::_Allocate_manually_vector_aligned<std::_Default_allocate_traits>
_TEXT	ENDS
; Function compile flags: /Ogtp
; File C:\Program Files (x86)\Microsoft Visual Studio\2019\Community\VC\Tools\MSVC\14.29.30133\include\xutility
;	COMDAT ??$_Copy_memmove@PAPAXPAPAX@std@@YAPAPAXPAPAX00@Z
_TEXT	SEGMENT
__First$ = 8						; size = 4
__Last$ = 12						; size = 4
__Dest$ = 16						; size = 4
??$_Copy_memmove@PAPAXPAPAX@std@@YAPAPAXPAPAX00@Z PROC	; std::_Copy_memmove<void * *,void * *>, COMDAT

; 4058 : _OutCtgIt _Copy_memmove(_CtgIt _First, _CtgIt _Last, _OutCtgIt _Dest) {

  00000	55		 push	 ebp
  00001	8b ec		 mov	 ebp, esp

; 4059 :     auto _FirstPtr              = _To_address(_First);
; 4060 :     auto _LastPtr               = _To_address(_Last);
; 4061 :     auto _DestPtr               = _To_address(_Dest);
; 4062 :     const char* const _First_ch = const_cast<const char*>(reinterpret_cast<const volatile char*>(_FirstPtr));
; 4063 :     const char* const _Last_ch  = const_cast<const char*>(reinterpret_cast<const volatile char*>(_LastPtr));
; 4064 :     char* const _Dest_ch        = const_cast<char*>(reinterpret_cast<const volatile char*>(_DestPtr));
; 4065 :     const auto _Count           = static_cast<size_t>(_Last_ch - _First_ch);

  00003	8b 45 08	 mov	 eax, DWORD PTR __First$[ebp]
  00006	56		 push	 esi

; 4066 :     _CSTD memmove(_Dest_ch, _First_ch, _Count);

  00007	8b 75 10	 mov	 esi, DWORD PTR __Dest$[ebp]
  0000a	57		 push	 edi
  0000b	8b 7d 0c	 mov	 edi, DWORD PTR __Last$[ebp]
  0000e	2b f8		 sub	 edi, eax
  00010	57		 push	 edi
  00011	50		 push	 eax
  00012	56		 push	 esi
  00013	e8 00 00 00 00	 call	 _memmove
  00018	83 c4 0c	 add	 esp, 12			; 0000000cH

; 4067 :     if constexpr (is_pointer_v<_OutCtgIt>) {
; 4068 :         return reinterpret_cast<_OutCtgIt>(_Dest_ch + _Count);

  0001b	8d 04 37	 lea	 eax, DWORD PTR [edi+esi]
  0001e	5f		 pop	 edi
  0001f	5e		 pop	 esi

; 4069 :     } else {
; 4070 :         return _Dest + (_LastPtr - _FirstPtr);
; 4071 :     }
; 4072 : }

  00020	5d		 pop	 ebp
  00021	c3		 ret	 0
??$_Copy_memmove@PAPAXPAPAX@std@@YAPAPAXPAPAX00@Z ENDP	; std::_Copy_memmove<void * *,void * *>
_TEXT	ENDS
; Function compile flags: /Ogtp
; File C:\Program Files (x86)\Microsoft Visual Studio\2019\Community\VC\Tools\MSVC\14.29.30133\include\vector
; File C:\Program Files (x86)\Microsoft Visual Studio\2019\Community\VC\Tools\MSVC\14.29.30133\include\xutility
; File C:\Program Files (x86)\Microsoft Visual Studio\2019\Community\VC\Tools\MSVC\14.29.30133\include\vector
; File C:\Program Files (x86)\Microsoft Visual Studio\2019\Community\VC\Tools\MSVC\14.29.30133\include\xutility
; File C:\Program Files (x86)\Microsoft Visual Studio\2019\Community\VC\Tools\MSVC\14.29.30133\include\vector
; File C:\Program Files (x86)\Microsoft Visual Studio\2019\Community\VC\Tools\MSVC\14.29.30133\include\xutility
; File C:\Program Files (x86)\Microsoft Visual Studio\2019\Community\VC\Tools\MSVC\14.29.30133\include\vector
; File C:\Program Files (x86)\Microsoft Visual Studio\2019\Community\VC\Tools\MSVC\14.29.30133\include\xutility
; File C:\Program Files (x86)\Microsoft Visual Studio\2019\Community\VC\Tools\MSVC\14.29.30133\include\vector
;	COMDAT ??$_Emplace_reallocate@PAX@?$vector@PAXV?$allocator@PAX@std@@@std@@QAEPAPAXQAPAX$$QAPAX@Z
_TEXT	SEGMENT
__Newvec$1$ = -12					; size = 4
__Newsize$1$ = -8					; size = 4
tv503 = -4						; size = 4
__Whereptr$ = 8						; size = 4
_<_Val_0>$ = 12						; size = 4
??$_Emplace_reallocate@PAX@?$vector@PAXV?$allocator@PAX@std@@@std@@QAEPAPAXQAPAX$$QAPAX@Z PROC ; std::vector<void *,std::allocator<void *> >::_Emplace_reallocate<void *>, COMDAT
; _this$ = ecx

; 752  :     _CONSTEXPR20_CONTAINER pointer _Emplace_reallocate(const pointer _Whereptr, _Valty&&... _Val) {

  00000	55		 push	 ebp
  00001	8b ec		 mov	 ebp, esp
  00003	83 ec 0c	 sub	 esp, 12			; 0000000cH
  00006	53		 push	 ebx

; 753  :         // reallocate and insert by perfectly forwarding _Val at _Whereptr
; 754  :         _Alty& _Al        = _Getal();
; 755  :         auto& _My_data    = _Mypair._Myval2;
; 756  :         pointer& _Myfirst = _My_data._Myfirst;
; 757  :         pointer& _Mylast  = _My_data._Mylast;
; 758  : 
; 759  :         _STL_INTERNAL_CHECK(_Mylast == _My_data._Myend); // check that we have no unused capacity
; 760  : 
; 761  :         const auto _Whereoff = static_cast<size_type>(_Whereptr - _Myfirst);

  00007	8b 5d 08	 mov	 ebx, DWORD PTR __Whereptr$[ebp]
  0000a	56		 push	 esi
  0000b	8b f1		 mov	 esi, ecx
  0000d	57		 push	 edi
  0000e	8b 16		 mov	 edx, DWORD PTR [esi]
  00010	2b da		 sub	 ebx, edx

; 762  :         const auto _Oldsize  = static_cast<size_type>(_Mylast - _Myfirst);

  00012	8b 46 04	 mov	 eax, DWORD PTR [esi+4]
  00015	2b c2		 sub	 eax, edx
  00017	c1 fb 02	 sar	 ebx, 2
  0001a	c1 f8 02	 sar	 eax, 2

; 763  : 
; 764  :         if (_Oldsize == max_size()) {

  0001d	3d ff ff ff 3f	 cmp	 eax, 1073741823		; 3fffffffH
  00022	0f 84 a1 00 00
	00		 je	 $LN66@Emplace_re

; 1546 :         return static_cast<size_type>(_My_data._Myend - _My_data._Myfirst);

  00028	8b 4e 08	 mov	 ecx, DWORD PTR [esi+8]

; 766  :         }
; 767  : 
; 768  :         const size_type _Newsize     = _Oldsize + 1;

  0002b	40		 inc	 eax

; 1546 :         return static_cast<size_type>(_My_data._Myend - _My_data._Myfirst);

  0002c	2b ca		 sub	 ecx, edx

; 766  :         }
; 767  : 
; 768  :         const size_type _Newsize     = _Oldsize + 1;

  0002e	89 45 f8	 mov	 DWORD PTR __Newsize$1$[ebp], eax

; 1546 :         return static_cast<size_type>(_My_data._Myend - _My_data._Myfirst);

  00031	c1 f9 02	 sar	 ecx, 2

; 1675 :         if (_Oldcapacity > _Max - _Oldcapacity / 2) {

  00034	b8 ff ff ff 3f	 mov	 eax, 1073741823		; 3fffffffH
  00039	8b d1		 mov	 edx, ecx
  0003b	d1 ea		 shr	 edx, 1
  0003d	2b c2		 sub	 eax, edx
  0003f	3b c8		 cmp	 ecx, eax
  00041	76 07		 jbe	 SHORT $LN12@Emplace_re

; 1676 :             return _Max; // geometric growth would overflow

  00043	bf ff ff ff 3f	 mov	 edi, 1073741823		; 3fffffffH
  00048	eb 0a		 jmp	 SHORT $LN13@Emplace_re
$LN12@Emplace_re:

; 1677 :         }
; 1678 : 
; 1679 :         const size_type _Geometric = _Oldcapacity + _Oldcapacity / 2;

  0004a	8d 3c 0a	 lea	 edi, DWORD PTR [edx+ecx]

; 1680 : 
; 1681 :         if (_Geometric < _Newsize) {

  0004d	3b 7d f8	 cmp	 edi, DWORD PTR __Newsize$1$[ebp]
  00050	0f 42 7d f8	 cmovb	 edi, DWORD PTR __Newsize$1$[ebp]
$LN13@Emplace_re:

; 769  :         const size_type _Newcapacity = _Calculate_growth(_Newsize);
; 770  : 
; 771  :         const pointer _Newvec           = _Al.allocate(_Newcapacity);

  00054	57		 push	 edi
  00055	8b ce		 mov	 ecx, esi
  00057	e8 00 00 00 00	 call	 ?allocate@?$allocator@PAX@std@@QAEPAPAXI@Z ; std::allocator<void *>::allocate

; 772  :         const pointer _Constructed_last = _Newvec + _Whereoff + 1;
; 773  :         pointer _Constructed_first      = _Constructed_last;
; 774  : 
; 775  :         _TRY_BEGIN
; 776  :         _Alty_traits::construct(_Al, _Unfancy(_Newvec + _Whereoff), _STD forward<_Valty>(_Val)...);

  0005c	8b 4d 0c	 mov	 ecx, DWORD PTR _<_Val_0>$[ebp]
  0005f	8b d0		 mov	 edx, eax
  00061	8d 04 9a	 lea	 eax, DWORD PTR [edx+ebx*4]
  00064	89 55 f4	 mov	 DWORD PTR __Newvec$1$[ebp], edx

; 777  :         _Constructed_first = _Newvec + _Whereoff;
; 778  : 
; 779  :         if (_Whereptr == _Mylast) { // at back, provide strong guarantee

  00067	8b 5d 08	 mov	 ebx, DWORD PTR __Whereptr$[ebp]
  0006a	89 45 fc	 mov	 DWORD PTR tv503[ebp], eax
  0006d	8b 09		 mov	 ecx, DWORD PTR [ecx]
  0006f	89 08		 mov	 DWORD PTR [eax], ecx
  00071	8b 4e 04	 mov	 ecx, DWORD PTR [esi+4]
  00074	8b 06		 mov	 eax, DWORD PTR [esi]
  00076	3b d9		 cmp	 ebx, ecx
  00078	75 12		 jne	 SHORT $LN4@Emplace_re
; File C:\Program Files (x86)\Microsoft Visual Studio\2019\Community\VC\Tools\MSVC\14.29.30133\include\xutility

; 4065 :     const auto _Count           = static_cast<size_t>(_Last_ch - _First_ch);

  0007a	2b c8		 sub	 ecx, eax

; 4066 :     _CSTD memmove(_Dest_ch, _First_ch, _Count);

  0007c	51		 push	 ecx
  0007d	50		 push	 eax
  0007e	52		 push	 edx
  0007f	e8 00 00 00 00	 call	 _memmove
; File C:\Program Files (x86)\Microsoft Visual Studio\2019\Community\VC\Tools\MSVC\14.29.30133\include\vector

; 781  :         } else { // provide basic guarantee

  00084	8b 5d fc	 mov	 ebx, DWORD PTR tv503[ebp]
; File C:\Program Files (x86)\Microsoft Visual Studio\2019\Community\VC\Tools\MSVC\14.29.30133\include\xutility

; 4066 :     _CSTD memmove(_Dest_ch, _First_ch, _Count);

  00087	83 c4 0c	 add	 esp, 12			; 0000000cH
; File C:\Program Files (x86)\Microsoft Visual Studio\2019\Community\VC\Tools\MSVC\14.29.30133\include\vector

; 781  :         } else { // provide basic guarantee

  0008a	eb 24		 jmp	 SHORT $LN51@Emplace_re
$LN4@Emplace_re:
; File C:\Program Files (x86)\Microsoft Visual Studio\2019\Community\VC\Tools\MSVC\14.29.30133\include\xutility

; 4065 :     const auto _Count           = static_cast<size_t>(_Last_ch - _First_ch);

  0008c	8b 0e		 mov	 ecx, DWORD PTR [esi]
  0008e	8b c3		 mov	 eax, ebx
  00090	2b c1		 sub	 eax, ecx

; 4066 :     _CSTD memmove(_Dest_ch, _First_ch, _Count);

  00092	50		 push	 eax
  00093	51		 push	 ecx
  00094	52		 push	 edx
  00095	e8 00 00 00 00	 call	 _memmove

; 4065 :     const auto _Count           = static_cast<size_t>(_Last_ch - _First_ch);

  0009a	8b 46 04	 mov	 eax, DWORD PTR [esi+4]
  0009d	2b c3		 sub	 eax, ebx

; 4066 :     _CSTD memmove(_Dest_ch, _First_ch, _Count);

  0009f	50		 push	 eax
  000a0	53		 push	 ebx
; File C:\Program Files (x86)\Microsoft Visual Studio\2019\Community\VC\Tools\MSVC\14.29.30133\include\vector

; 784  :             _Umove(_Whereptr, _Mylast, _Newvec + _Whereoff + 1);

  000a1	8b 5d fc	 mov	 ebx, DWORD PTR tv503[ebp]
  000a4	8d 43 04	 lea	 eax, DWORD PTR [ebx+4]
; File C:\Program Files (x86)\Microsoft Visual Studio\2019\Community\VC\Tools\MSVC\14.29.30133\include\xutility

; 4066 :     _CSTD memmove(_Dest_ch, _First_ch, _Count);

  000a7	50		 push	 eax
  000a8	e8 00 00 00 00	 call	 _memmove
  000ad	83 c4 18	 add	 esp, 24			; 00000018H
$LN51@Emplace_re:
; File C:\Program Files (x86)\Microsoft Visual Studio\2019\Community\VC\Tools\MSVC\14.29.30133\include\vector

; 792  :         _Change_array(_Newvec, _Newsize, _Newcapacity);

  000b0	57		 push	 edi
  000b1	ff 75 f8	 push	 DWORD PTR __Newsize$1$[ebp]
  000b4	8b ce		 mov	 ecx, esi
  000b6	ff 75 f4	 push	 DWORD PTR __Newvec$1$[ebp]
  000b9	e8 00 00 00 00	 call	 ?_Change_array@?$vector@PAXV?$allocator@PAX@std@@@std@@AAEXQAPAXII@Z ; std::vector<void *,std::allocator<void *> >::_Change_array

; 793  :         return _Newvec + _Whereoff;

  000be	5f		 pop	 edi
  000bf	5e		 pop	 esi
  000c0	8b c3		 mov	 eax, ebx
  000c2	5b		 pop	 ebx

; 794  :     }

  000c3	8b e5		 mov	 esp, ebp
  000c5	5d		 pop	 ebp
  000c6	c2 08 00	 ret	 8
$LN66@Emplace_re:

; 765  :             _Xlength();

  000c9	e8 00 00 00 00	 call	 ?_Xlength@?$vector@PAXV?$allocator@PAX@std@@@std@@CAXXZ ; std::vector<void *,std::allocator<void *> >::_Xlength
$LN64@Emplace_re:
  000ce	cc		 int	 3
??$_Emplace_reallocate@PAX@?$vector@PAXV?$allocator@PAX@std@@@std@@QAEPAPAXQAPAX$$QAPAX@Z ENDP ; std::vector<void *,std::allocator<void *> >::_Emplace_reallocate<void *>
_TEXT	ENDS
; Function compile flags: /Ogtp
; File D:\git\src\IBK\IBK_DRFN\ProjSrc\SrcChartEx\ChartOCX\Include_Chart\DataBlockList.cpp
; File C:\Program Files (x86)\Microsoft Visual Studio\2019\Community\VC\Tools\MSVC\14.29.30133\include\vector
; File D:\git\src\IBK\IBK_DRFN\ProjSrc\SrcChartEx\ChartOCX\Include_Chart\DataBlockList.cpp
; File C:\Program Files (x86)\Microsoft Visual Studio\2019\Community\VC\Tools\MSVC\14.29.30133\include\vector
; File D:\git\src\IBK\IBK_DRFN\ProjSrc\SrcChartEx\ChartOCX\Include_Chart\DataBlockList.cpp
; File C:\Program Files (x86)\Microsoft Visual Studio\2019\Community\VC\Tools\MSVC\14.29.30133\include\vector
; File D:\git\src\IBK\IBK_DRFN\ProjSrc\SrcChartEx\ChartOCX\Include_Chart\DataBlockList.cpp
; File C:\Program Files (x86)\Microsoft Visual Studio\2019\Community\VC\Tools\MSVC\14.29.30133\include\vector
; File C:\Program Files (x86)\Microsoft Visual Studio\2019\Community\VC\Tools\MSVC\14.29.30133\include\xmemory
; File C:\Program Files (x86)\Microsoft Visual Studio\2019\Community\VC\Tools\MSVC\14.29.30133\include\vector
; File C:\Program Files (x86)\Microsoft Visual Studio\2019\Community\VC\Tools\MSVC\14.29.30133\include\xmemory
; File C:\Program Files (x86)\Microsoft Visual Studio\2019\Community\VC\Tools\MSVC\14.29.30133\include\vector
; File C:\Program Files (x86)\Microsoft Visual Studio\2019\Community\VC\Tools\MSVC\14.29.30133\include\xmemory
;	COMDAT ??_GCDataBlockListUNK@@UAEPAXI@Z
_TEXT	SEGMENT
___flags$ = 8						; size = 4
??_GCDataBlockListUNK@@UAEPAXI@Z PROC			; CDataBlockListUNK::`scalar deleting destructor', COMDAT
; _this$ = ecx
  00000	55		 push	 ebp
  00001	8b ec		 mov	 ebp, esp
; File D:\git\src\IBK\IBK_DRFN\ProjSrc\SrcChartEx\ChartOCX\Include_Chart\DataBlockList.cpp

; 5    : {

  00003	56		 push	 esi
  00004	57		 push	 edi
  00005	8b f9		 mov	 edi, ecx
  00007	c7 07 00 00 00
	00		 mov	 DWORD PTR [edi], OFFSET ??_7CDataBlockListUNK@@6B@

; 11   : 	m_nItemCount = 0;

  0000d	c7 47 0c 00 00
	00 00		 mov	 DWORD PTR [edi+12], 0

; 12   : 	m_nFirstBlockStartIndex = 0;

  00014	c7 47 10 00 00
	00 00		 mov	 DWORD PTR [edi+16], 0

; 13   : 	m_nLastBlockEndIndex = 0;

  0001b	c7 47 14 00 00
	00 00		 mov	 DWORD PTR [edi+20], 0

; 14   : 
; 15   : 	m_nIndex = 0;

  00022	c7 47 18 00 00
	00 00		 mov	 DWORD PTR [edi+24], 0

; 16   : 	m_nBlockIndex = 0;

  00029	c7 47 1c 00 00
	00 00		 mov	 DWORD PTR [edi+28], 0

; 17   : 	m_nIndexInBlock = 0;

  00030	c7 47 24 00 00
	00 00		 mov	 DWORD PTR [edi+36], 0

; 18   : 	m_lpBlockIndex = NULL;

  00037	c7 47 20 00 00
	00 00		 mov	 DWORD PTR [edi+32], 0
; File C:\Program Files (x86)\Microsoft Visual Studio\2019\Community\VC\Tools\MSVC\14.29.30133\include\vector

; 41   :     _CONSTEXPR20_CONTAINER _Vector_const_iterator(_Tptr _Parg, const _Container_base* _Pvector) noexcept : _Ptr(_Parg) {

  0003e	8b 77 28	 mov	 esi, DWORD PTR [edi+40]
  00041	3b 77 2c	 cmp	 esi, DWORD PTR [edi+44]
; File D:\git\src\IBK\IBK_DRFN\ProjSrc\SrcChartEx\ChartOCX\Include_Chart\DataBlockList.cpp

; 21   : 	while(it != m_vtBlockPointer.end())

  00044	74 1d		 je	 SHORT $LN9@scalar
  00046	53		 push	 ebx
  00047	8b 1d 00 00 00
	00		 mov	 ebx, DWORD PTR __imp__free
  0004d	0f 1f 00	 npad	 3
$LL8@scalar:

; 23   : 		free(*it);

  00050	ff 36		 push	 DWORD PTR [esi]
  00052	ff d3		 call	 ebx
; File C:\Program Files (x86)\Microsoft Visual Studio\2019\Community\VC\Tools\MSVC\14.29.30133\include\vector

; 74   :         ++_Ptr;

  00054	83 c6 04	 add	 esi, 4
; File D:\git\src\IBK\IBK_DRFN\ProjSrc\SrcChartEx\ChartOCX\Include_Chart\DataBlockList.cpp

; 23   : 		free(*it);

  00057	83 c4 04	 add	 esp, 4
; File C:\Program Files (x86)\Microsoft Visual Studio\2019\Community\VC\Tools\MSVC\14.29.30133\include\vector

; 150  :         return _Ptr == _Right._Ptr;

  0005a	3b 77 2c	 cmp	 esi, DWORD PTR [edi+44]
; File D:\git\src\IBK\IBK_DRFN\ProjSrc\SrcChartEx\ChartOCX\Include_Chart\DataBlockList.cpp

; 21   : 	while(it != m_vtBlockPointer.end())

  0005d	75 f1		 jne	 SHORT $LL8@scalar
  0005f	8b 77 28	 mov	 esi, DWORD PTR [edi+40]
  00062	5b		 pop	 ebx
$LN9@scalar:

; 24   : 		it++;
; 25   : 	}
; 26   : 
; 27   : 	m_vtBlockPointer.clear();

  00063	89 77 2c	 mov	 DWORD PTR [edi+44], esi
; File C:\Program Files (x86)\Microsoft Visual Studio\2019\Community\VC\Tools\MSVC\14.29.30133\include\vector

; 1750 :         if (_Myfirst) { // destroy and deallocate old array

  00066	85 f6		 test	 esi, esi
  00068	74 41		 je	 SHORT $LN34@scalar

; 1751 :             _Destroy(_Myfirst, _Mylast);
; 1752 :             _Getal().deallocate(_Myfirst, static_cast<size_type>(_Myend - _Myfirst));

  0006a	8b 4f 30	 mov	 ecx, DWORD PTR [edi+48]
  0006d	2b ce		 sub	 ecx, esi
; File C:\Program Files (x86)\Microsoft Visual Studio\2019\Community\VC\Tools\MSVC\14.29.30133\include\xmemory

; 797  :         _Deallocate<_New_alignof<_Ty>>(_Ptr, sizeof(_Ty) * _Count);

  0006f	83 e1 fc	 and	 ecx, -4			; fffffffcH

; 251  :         if (_Bytes >= _Big_allocation_threshold) { // boost the alignment of big allocations to help autovectorization

  00072	81 f9 00 10 00
	00		 cmp	 ecx, 4096		; 00001000H
  00078	72 12		 jb	 SHORT $LN50@scalar

; 150  :     const uintptr_t _Ptr_container   = _Ptr_user[-1];

  0007a	8b 56 fc	 mov	 edx, DWORD PTR [esi-4]
  0007d	83 c1 23	 add	 ecx, 35			; 00000023H

; 151  : 
; 152  :     // If the following asserts, it likely means that we are performing
; 153  :     // an aligned delete on memory coming from an unaligned allocation.
; 154  :     _STL_ASSERT(_Ptr_user[-2] == _Big_allocation_sentinel, "invalid argument");
; 155  : 
; 156  :     // Extra paranoia on aligned allocation/deallocation; ensure _Ptr_container is
; 157  :     // in range [_Min_back_shift, _Non_user_size]
; 158  : #ifdef _DEBUG
; 159  :     constexpr uintptr_t _Min_back_shift = 2 * sizeof(void*);
; 160  : #else // ^^^ _DEBUG ^^^ // vvv !_DEBUG vvv
; 161  :     constexpr uintptr_t _Min_back_shift = sizeof(void*);
; 162  : #endif // _DEBUG
; 163  :     const uintptr_t _Back_shift = reinterpret_cast<uintptr_t>(_Ptr) - _Ptr_container;

  00080	2b f2		 sub	 esi, edx

; 164  :     _STL_VERIFY(_Back_shift >= _Min_back_shift && _Back_shift <= _Non_user_size, "invalid argument");

  00082	8d 46 fc	 lea	 eax, DWORD PTR [esi-4]
  00085	83 f8 1f	 cmp	 eax, 31			; 0000001fH
  00088	77 3a		 ja	 SHORT $LN47@scalar

; 165  :     _Ptr = reinterpret_cast<void*>(_Ptr_container);

  0008a	8b f2		 mov	 esi, edx
$LN50@scalar:

; 255  :         ::operator delete(_Ptr, _Bytes);

  0008c	51		 push	 ecx
  0008d	56		 push	 esi
  0008e	e8 00 00 00 00	 call	 ??3@YAXPAXI@Z		; operator delete
; File C:\Program Files (x86)\Microsoft Visual Studio\2019\Community\VC\Tools\MSVC\14.29.30133\include\vector

; 1754 :             _Myfirst = nullptr;

  00093	c7 47 28 00 00
	00 00		 mov	 DWORD PTR [edi+40], 0
; File C:\Program Files (x86)\Microsoft Visual Studio\2019\Community\VC\Tools\MSVC\14.29.30133\include\xmemory

; 255  :         ::operator delete(_Ptr, _Bytes);

  0009a	83 c4 08	 add	 esp, 8
; File C:\Program Files (x86)\Microsoft Visual Studio\2019\Community\VC\Tools\MSVC\14.29.30133\include\vector

; 1755 :             _Mylast  = nullptr;

  0009d	c7 47 2c 00 00
	00 00		 mov	 DWORD PTR [edi+44], 0

; 1756 :             _Myend   = nullptr;

  000a4	c7 47 30 00 00
	00 00		 mov	 DWORD PTR [edi+48], 0
$LN34@scalar:
  000ab	f6 45 08 01	 test	 BYTE PTR ___flags$[ebp], 1
  000af	74 0b		 je	 SHORT $LN2@scalar
  000b1	6a 34		 push	 52			; 00000034H
  000b3	57		 push	 edi
  000b4	e8 00 00 00 00	 call	 ??3@YAXPAXI@Z		; operator delete
  000b9	83 c4 08	 add	 esp, 8
$LN2@scalar:
  000bc	8b c7		 mov	 eax, edi
  000be	5f		 pop	 edi
  000bf	5e		 pop	 esi
  000c0	5d		 pop	 ebp
  000c1	c2 04 00	 ret	 4
$LN47@scalar:
; File C:\Program Files (x86)\Microsoft Visual Studio\2019\Community\VC\Tools\MSVC\14.29.30133\include\xmemory

; 164  :     _STL_VERIFY(_Back_shift >= _Min_back_shift && _Back_shift <= _Non_user_size, "invalid argument");

  000c4	ff 15 00 00 00
	00		 call	 DWORD PTR __imp___invalid_parameter_noinfo_noreturn
$LN61@scalar:
  000ca	cc		 int	 3
??_GCDataBlockListUNK@@UAEPAXI@Z ENDP			; CDataBlockListUNK::`scalar deleting destructor'
_TEXT	ENDS
; Function compile flags: /Ogtp
; File D:\git\src\IBK\IBK_DRFN\ProjSrc\SrcChartEx\ChartOCX\Include_Chart\DataBlockList.cpp
;	COMDAT ?GetAtUNK@CDataBlockListUNK@@QAEPAXAAVDblCursor@1@@Z
_TEXT	SEGMENT
_p_dblCursor$ = 8					; size = 4
?GetAtUNK@CDataBlockListUNK@@QAEPAXAAVDblCursor@1@@Z PROC ; CDataBlockListUNK::GetAtUNK, COMDAT
; _this$ = ecx

; 361  : {

  00000	55		 push	 ebp
  00001	8b ec		 mov	 ebp, esp

; 362  : 	if( 0 == p_dblCursor.m_nItemCount || p_dblCursor.m_nItemCount <= p_dblCursor.m_nIndex || p_dblCursor.m_nIndex < 0) return NULL;

  00003	8b 45 08	 mov	 eax, DWORD PTR _p_dblCursor$[ebp]
  00006	57		 push	 edi
  00007	8b f9		 mov	 edi, ecx
  00009	83 38 00	 cmp	 DWORD PTR [eax], 0
  0000c	74 2b		 je	 SHORT $LN3@GetAtUNK
  0000e	8b 50 04	 mov	 edx, DWORD PTR [eax+4]
  00011	39 10		 cmp	 DWORD PTR [eax], edx
  00013	7e 24		 jle	 SHORT $LN3@GetAtUNK
  00015	85 d2		 test	 edx, edx
  00017	78 20		 js	 SHORT $LN3@GetAtUNK

; 363  : 	if( !p_dblCursor.m_lpBlockIndex || p_dblCursor.m_nIndexInBlock < 0 || m_nBlockSize <= p_dblCursor.m_nIndexInBlock) return NULL;

  00019	8b 50 0c	 mov	 edx, DWORD PTR [eax+12]
  0001c	85 d2		 test	 edx, edx
  0001e	74 19		 je	 SHORT $LN3@GetAtUNK
  00020	8b 48 10	 mov	 ecx, DWORD PTR [eax+16]
  00023	85 c9		 test	 ecx, ecx
  00025	78 12		 js	 SHORT $LN3@GetAtUNK
  00027	39 4f 08	 cmp	 DWORD PTR [edi+8], ecx
  0002a	7e 0d		 jle	 SHORT $LN3@GetAtUNK

; 364  : 	return ( ( PBYTE)p_dblCursor.m_lpBlockIndex + ( p_dblCursor.m_nIndexInBlock * m_nItemSize));

  0002c	8b 47 04	 mov	 eax, DWORD PTR [edi+4]
  0002f	0f af c1	 imul	 eax, ecx
  00032	5f		 pop	 edi
  00033	03 c2		 add	 eax, edx

; 365  : }

  00035	5d		 pop	 ebp
  00036	c2 04 00	 ret	 4
$LN3@GetAtUNK:

; 362  : 	if( 0 == p_dblCursor.m_nItemCount || p_dblCursor.m_nItemCount <= p_dblCursor.m_nIndex || p_dblCursor.m_nIndex < 0) return NULL;

  00039	33 c0		 xor	 eax, eax
  0003b	5f		 pop	 edi

; 365  : }

  0003c	5d		 pop	 ebp
  0003d	c2 04 00	 ret	 4
?GetAtUNK@CDataBlockListUNK@@QAEPAXAAVDblCursor@1@@Z ENDP ; CDataBlockListUNK::GetAtUNK
_TEXT	ENDS
; Function compile flags: /Ogtp
; File D:\git\src\IBK\IBK_DRFN\ProjSrc\SrcChartEx\ChartOCX\Include_Chart\DataBlockList.cpp
; File C:\Program Files (x86)\Microsoft Visual Studio\2019\Community\VC\Tools\MSVC\14.29.30133\include\vector
; File D:\git\src\IBK\IBK_DRFN\ProjSrc\SrcChartEx\ChartOCX\Include_Chart\DataBlockList.cpp
; File C:\Program Files (x86)\Microsoft Visual Studio\2019\Community\VC\Tools\MSVC\14.29.30133\include\vector
; File D:\git\src\IBK\IBK_DRFN\ProjSrc\SrcChartEx\ChartOCX\Include_Chart\DataBlockList.cpp
;	COMDAT ?GetDblCursorUNK@CDataBlockListUNK@@QAEXHHAAVDblCursor@1@@Z
_TEXT	SEGMENT
tv269 = 8						; size = 4
_nIndex$ = 8						; size = 4
_nZeroDTI$ = 12						; size = 4
_p_dblCursor$ = 16					; size = 4
?GetDblCursorUNK@CDataBlockListUNK@@QAEXHHAAVDblCursor@1@@Z PROC ; CDataBlockListUNK::GetDblCursorUNK, COMDAT
; _this$ = ecx

; 337  : {

  00000	55		 push	 ebp
  00001	8b ec		 mov	 ebp, esp
  00003	56		 push	 esi

; 338  : 	nIndex -= nZeroDTI;

  00004	8b 75 08	 mov	 esi, DWORD PTR _nIndex$[ebp]
  00007	2b 75 0c	 sub	 esi, DWORD PTR _nZeroDTI$[ebp]
  0000a	57		 push	 edi
  0000b	8b f9		 mov	 edi, ecx

; 339  : 
; 340  : 	if( m_nItemCount <= nIndex || nIndex < 0) return;

  0000d	8b 47 0c	 mov	 eax, DWORD PTR [edi+12]
  00010	3b c6		 cmp	 eax, esi
  00012	7e 65		 jle	 SHORT $LN3@GetDblCurs
  00014	85 f6		 test	 esi, esi
  00016	78 61		 js	 SHORT $LN3@GetDblCurs

; 341  : 
; 342  : 	p_dblCursor.m_nItemCount = m_nItemCount;

  00018	53		 push	 ebx
  00019	8b 5d 10	 mov	 ebx, DWORD PTR _p_dblCursor$[ebp]
  0001c	89 03		 mov	 DWORD PTR [ebx], eax

; 343  : 	p_dblCursor.m_nIndex = nIndex;

  0001e	89 73 04	 mov	 DWORD PTR [ebx+4], esi

; 344  : 
; 345  : 	nIndex += m_nFirstBlockStartIndex;

  00021	03 77 10	 add	 esi, DWORD PTR [edi+16]

; 346  : 	p_dblCursor.m_nBlockIndex = nIndex / m_nBlockSize;

  00024	8b c6		 mov	 eax, esi
  00026	99		 cdq
  00027	f7 7f 08	 idiv	 DWORD PTR [edi+8]
  0002a	89 43 08	 mov	 DWORD PTR [ebx+8], eax
  0002d	89 45 08	 mov	 DWORD PTR tv269[ebp], eax

; 347  : 
; 348  : 	p_dblCursor.m_nIndexInBlock = nIndex % m_nBlockSize;

  00030	8b c6		 mov	 eax, esi
  00032	99		 cdq
  00033	f7 7f 08	 idiv	 DWORD PTR [edi+8]
  00036	89 53 10	 mov	 DWORD PTR [ebx+16], edx

; 349  : 
; 350  : 	if( ( m_nBlockSize - m_nFirstBlockStartIndex) > nIndex)

  00039	8b 4f 08	 mov	 ecx, DWORD PTR [edi+8]
  0003c	2b 4f 10	 sub	 ecx, DWORD PTR [edi+16]
  0003f	3b ce		 cmp	 ecx, esi
  00041	7e 0f		 jle	 SHORT $LN4@GetDblCurs

; 351  : 			p_dblCursor.m_lpBlockIndex = m_vtBlockPointer.front();

  00043	8b 47 28	 mov	 eax, DWORD PTR [edi+40]
  00046	8b 00		 mov	 eax, DWORD PTR [eax]

; 357  : 		else	p_dblCursor.m_lpBlockIndex = m_vtBlockPointer[ p_dblCursor.m_nBlockIndex];

  00048	89 43 0c	 mov	 DWORD PTR [ebx+12], eax
  0004b	5b		 pop	 ebx
  0004c	5f		 pop	 edi

; 358  : 	}
; 359  : }

  0004d	5e		 pop	 esi
  0004e	5d		 pop	 ebp
  0004f	c2 0c 00	 ret	 12			; 0000000cH
$LN4@GetDblCurs:
; File C:\Program Files (x86)\Microsoft Visual Studio\2019\Community\VC\Tools\MSVC\14.29.30133\include\vector

; 1536 :         return static_cast<size_type>(_My_data._Mylast - _My_data._Myfirst);

  00052	8b 47 2c	 mov	 eax, DWORD PTR [edi+44]
  00055	8b 4f 28	 mov	 ecx, DWORD PTR [edi+40]
  00058	2b c1		 sub	 eax, ecx
; File D:\git\src\IBK\IBK_DRFN\ProjSrc\SrcChartEx\ChartOCX\Include_Chart\DataBlockList.cpp

; 355  : 		if( m_vtBlockPointer.size() <= p_dblCursor.m_nBlockIndex)

  0005a	8b 55 08	 mov	 edx, DWORD PTR tv269[ebp]
; File C:\Program Files (x86)\Microsoft Visual Studio\2019\Community\VC\Tools\MSVC\14.29.30133\include\vector

; 1536 :         return static_cast<size_type>(_My_data._Mylast - _My_data._Myfirst);

  0005d	c1 f8 02	 sar	 eax, 2
; File D:\git\src\IBK\IBK_DRFN\ProjSrc\SrcChartEx\ChartOCX\Include_Chart\DataBlockList.cpp

; 355  : 		if( m_vtBlockPointer.size() <= p_dblCursor.m_nBlockIndex)

  00060	3b c2		 cmp	 eax, edx
  00062	77 0e		 ja	 SHORT $LN6@GetDblCurs

; 356  : 				p_dblCursor.m_lpBlockIndex = NULL;

  00064	c7 43 0c 00 00
	00 00		 mov	 DWORD PTR [ebx+12], 0
  0006b	5b		 pop	 ebx
  0006c	5f		 pop	 edi

; 358  : 	}
; 359  : }

  0006d	5e		 pop	 esi
  0006e	5d		 pop	 ebp
  0006f	c2 0c 00	 ret	 12			; 0000000cH
$LN6@GetDblCurs:

; 357  : 		else	p_dblCursor.m_lpBlockIndex = m_vtBlockPointer[ p_dblCursor.m_nBlockIndex];

  00072	8b 04 91	 mov	 eax, DWORD PTR [ecx+edx*4]
  00075	89 43 0c	 mov	 DWORD PTR [ebx+12], eax
  00078	5b		 pop	 ebx
$LN3@GetDblCurs:

; 358  : 	}
; 359  : }

  00079	5f		 pop	 edi
  0007a	5e		 pop	 esi
  0007b	5d		 pop	 ebp
  0007c	c2 0c 00	 ret	 12			; 0000000cH
?GetDblCursorUNK@CDataBlockListUNK@@QAEXHHAAVDblCursor@1@@Z ENDP ; CDataBlockListUNK::GetDblCursorUNK
_TEXT	ENDS
; Function compile flags: /Ogtp
; File D:\git\src\IBK\IBK_DRFN\ProjSrc\SrcChartEx\ChartOCX\Include_Chart\DataBlockList.cpp
;	COMDAT ??0DblCursor@CDataBlockListUNK@@QAE@XZ
_TEXT	SEGMENT
??0DblCursor@CDataBlockListUNK@@QAE@XZ PROC		; CDataBlockListUNK::DblCursor::DblCursor, COMDAT
; _this$ = ecx

; 330  : 	m_nItemCount	= 0;

  00000	c7 01 00 00 00
	00		 mov	 DWORD PTR [ecx], 0

; 331  : 	m_nIndex		= -1;
; 332  : 	m_nBlockIndex	= -1;
; 333  : 	m_lpBlockIndex	= NULL;
; 334  : 	m_nIndexInBlock	= -1;
; 335  : }

  00006	8b c1		 mov	 eax, ecx
  00008	c7 41 04 ff ff
	ff ff		 mov	 DWORD PTR [ecx+4], -1
  0000f	c7 41 08 ff ff
	ff ff		 mov	 DWORD PTR [ecx+8], -1
  00016	c7 41 0c 00 00
	00 00		 mov	 DWORD PTR [ecx+12], 0
  0001d	c7 41 10 ff ff
	ff ff		 mov	 DWORD PTR [ecx+16], -1
  00024	c3		 ret	 0
??0DblCursor@CDataBlockListUNK@@QAE@XZ ENDP		; CDataBlockListUNK::DblCursor::DblCursor
_TEXT	ENDS
; Function compile flags: /Ogtp
; File D:\git\src\IBK\IBK_DRFN\ProjSrc\SrcChartEx\ChartOCX\Include_Chart\DataBlockList.cpp
; File C:\Program Files (x86)\Microsoft Visual Studio\2019\Community\VC\Tools\MSVC\14.29.30133\include\vector
; File D:\git\src\IBK\IBK_DRFN\ProjSrc\SrcChartEx\ChartOCX\Include_Chart\DataBlockList.cpp
;	COMDAT ?GetPrevUNK@CDataBlockListUNK@@QAEPAXXZ
_TEXT	SEGMENT
?GetPrevUNK@CDataBlockListUNK@@QAEPAXXZ PROC		; CDataBlockListUNK::GetPrevUNK, COMDAT
; _this$ = ecx

; 302  : {

  00000	53		 push	 ebx
  00001	57		 push	 edi

; 303  : 	// ? How do you believe m_lpBlockIndex is not NULL?
; 304  : 	if( !m_lpBlockIndex || m_nIndexInBlock < 0 || m_nBlockSize <= m_nIndexInBlock) return NULL;

  00002	8b 79 20	 mov	 edi, DWORD PTR [ecx+32]
  00005	85 ff		 test	 edi, edi
  00007	74 68		 je	 SHORT $LN3@GetPrevUNK
  00009	8b 51 24	 mov	 edx, DWORD PTR [ecx+36]
  0000c	85 d2		 test	 edx, edx
  0000e	78 61		 js	 SHORT $LN3@GetPrevUNK
  00010	8b 59 08	 mov	 ebx, DWORD PTR [ecx+8]
  00013	3b da		 cmp	 ebx, edx
  00015	7e 5a		 jle	 SHORT $LN3@GetPrevUNK

; 305  : 	if( m_nItemCount <= m_nIndex || m_nIndex < 0) return NULL;

  00017	8b 41 18	 mov	 eax, DWORD PTR [ecx+24]
  0001a	39 41 0c	 cmp	 DWORD PTR [ecx+12], eax
  0001d	7e 52		 jle	 SHORT $LN3@GetPrevUNK
  0001f	85 c0		 test	 eax, eax
  00021	78 4e		 js	 SHORT $LN3@GetPrevUNK

; 306  : 	LPVOID lpResult = ( ( PBYTE)m_lpBlockIndex + ( m_nIndexInBlock * m_nItemSize));

  00023	56		 push	 esi
  00024	8b 71 04	 mov	 esi, DWORD PTR [ecx+4]

; 307  : 
; 308  : 	m_nIndex--;

  00027	48		 dec	 eax
  00028	0f af f2	 imul	 esi, edx
  0002b	89 41 18	 mov	 DWORD PTR [ecx+24], eax

; 309  : 	m_nIndexInBlock--;

  0002e	8d 42 ff	 lea	 eax, DWORD PTR [edx-1]
  00031	89 41 24	 mov	 DWORD PTR [ecx+36], eax
  00034	03 f7		 add	 esi, edi

; 310  : 	if( m_nIndexInBlock < 0)

  00036	85 c0		 test	 eax, eax
  00038	79 31		 jns	 SHORT $LN10@GetPrevUNK

; 311  : 	{
; 312  : 		m_nIndexInBlock = m_nBlockSize - 1;
; 313  : 		m_nBlockIndex--;

  0003a	83 41 1c ff	 add	 DWORD PTR [ecx+28], -1
  0003e	8d 43 ff	 lea	 eax, DWORD PTR [ebx-1]
  00041	8b 51 1c	 mov	 edx, DWORD PTR [ecx+28]
  00044	89 41 24	 mov	 DWORD PTR [ecx+36], eax

; 314  : 		if( m_nBlockIndex < 0)	m_lpBlockIndex = NULL;

  00047	78 1b		 js	 SHORT $LN16@GetPrevUNK
; File C:\Program Files (x86)\Microsoft Visual Studio\2019\Community\VC\Tools\MSVC\14.29.30133\include\vector

; 1536 :         return static_cast<size_type>(_My_data._Mylast - _My_data._Myfirst);

  00049	8b 41 2c	 mov	 eax, DWORD PTR [ecx+44]
  0004c	8b 79 28	 mov	 edi, DWORD PTR [ecx+40]
  0004f	2b c7		 sub	 eax, edi
  00051	c1 f8 02	 sar	 eax, 2
; File D:\git\src\IBK\IBK_DRFN\ProjSrc\SrcChartEx\ChartOCX\Include_Chart\DataBlockList.cpp

; 318  : 			if( m_vtBlockPointer.size() <= m_nBlockIndex)

  00054	3b c2		 cmp	 eax, edx
  00056	76 0c		 jbe	 SHORT $LN16@GetPrevUNK

; 320  : 			else	m_lpBlockIndex = m_vtBlockPointer[ m_nBlockIndex];

  00058	8b 04 97	 mov	 eax, DWORD PTR [edi+edx*4]
  0005b	89 41 20	 mov	 DWORD PTR [ecx+32], eax

; 321  : 		}
; 322  : 	}
; 323  : 
; 324  : 	return lpResult;

  0005e	8b c6		 mov	 eax, esi
  00060	5e		 pop	 esi
  00061	5f		 pop	 edi

; 325  : }

  00062	5b		 pop	 ebx
  00063	c3		 ret	 0
$LN16@GetPrevUNK:

; 319  : 					m_lpBlockIndex = NULL;

  00064	c7 41 20 00 00
	00 00		 mov	 DWORD PTR [ecx+32], 0
$LN10@GetPrevUNK:

; 321  : 		}
; 322  : 	}
; 323  : 
; 324  : 	return lpResult;

  0006b	8b c6		 mov	 eax, esi
  0006d	5e		 pop	 esi
  0006e	5f		 pop	 edi

; 325  : }

  0006f	5b		 pop	 ebx
  00070	c3		 ret	 0
$LN3@GetPrevUNK:
  00071	5f		 pop	 edi

; 303  : 	// ? How do you believe m_lpBlockIndex is not NULL?
; 304  : 	if( !m_lpBlockIndex || m_nIndexInBlock < 0 || m_nBlockSize <= m_nIndexInBlock) return NULL;

  00072	33 c0		 xor	 eax, eax

; 325  : }

  00074	5b		 pop	 ebx
  00075	c3		 ret	 0
?GetPrevUNK@CDataBlockListUNK@@QAEPAXXZ ENDP		; CDataBlockListUNK::GetPrevUNK
_TEXT	ENDS
; Function compile flags: /Ogtp
; File D:\git\src\IBK\IBK_DRFN\ProjSrc\SrcChartEx\ChartOCX\Include_Chart\DataBlockList.cpp
; File C:\Program Files (x86)\Microsoft Visual Studio\2019\Community\VC\Tools\MSVC\14.29.30133\include\vector
; File D:\git\src\IBK\IBK_DRFN\ProjSrc\SrcChartEx\ChartOCX\Include_Chart\DataBlockList.cpp
;	COMDAT ?GetNextUNK@CDataBlockListUNK@@QAEPAXXZ
_TEXT	SEGMENT
?GetNextUNK@CDataBlockListUNK@@QAEPAXXZ PROC		; CDataBlockListUNK::GetNextUNK, COMDAT
; _this$ = ecx

; 277  : {

  00000	8b d1		 mov	 edx, ecx
  00002	57		 push	 edi

; 278  : 	// ? How do you believe m_lpBlockIndex is not NULL?
; 279  : 	if( !m_lpBlockIndex || m_nIndexInBlock < 0 || m_nBlockSize <= m_nIndexInBlock) return NULL;

  00003	8b 7a 20	 mov	 edi, DWORD PTR [edx+32]
  00006	85 ff		 test	 edi, edi
  00008	74 63		 je	 SHORT $LN3@GetNextUNK
  0000a	8b 4a 24	 mov	 ecx, DWORD PTR [edx+36]
  0000d	85 c9		 test	 ecx, ecx
  0000f	78 5c		 js	 SHORT $LN3@GetNextUNK
  00011	39 4a 08	 cmp	 DWORD PTR [edx+8], ecx
  00014	7e 57		 jle	 SHORT $LN3@GetNextUNK

; 280  : 	if( m_nItemCount <= m_nIndex || m_nIndex < 0) return NULL;

  00016	8b 42 18	 mov	 eax, DWORD PTR [edx+24]
  00019	39 42 0c	 cmp	 DWORD PTR [edx+12], eax
  0001c	7e 4f		 jle	 SHORT $LN3@GetNextUNK
  0001e	85 c0		 test	 eax, eax
  00020	78 4b		 js	 SHORT $LN3@GetNextUNK

; 281  : 	LPVOID lpResult = ( ( PBYTE)m_lpBlockIndex + ( m_nIndexInBlock * m_nItemSize));

  00022	56		 push	 esi
  00023	8b 72 04	 mov	 esi, DWORD PTR [edx+4]

; 282  : 
; 283  : 	m_nIndex++;

  00026	40		 inc	 eax
  00027	0f af f1	 imul	 esi, ecx
  0002a	89 42 18	 mov	 DWORD PTR [edx+24], eax

; 284  : 	m_nIndexInBlock++;

  0002d	8d 41 01	 lea	 eax, DWORD PTR [ecx+1]
  00030	89 42 24	 mov	 DWORD PTR [edx+36], eax
  00033	03 f7		 add	 esi, edi

; 285  : 	if( m_nBlockSize <= m_nIndexInBlock)

  00035	39 42 08	 cmp	 DWORD PTR [edx+8], eax
  00038	7f 2e		 jg	 SHORT $LN8@GetNextUNK

; 286  : 	{
; 287  : 		m_nBlockIndex++;

  0003a	ff 42 1c	 inc	 DWORD PTR [edx+28]
  0003d	8b 4a 1c	 mov	 ecx, DWORD PTR [edx+28]

; 288  : 		m_nIndexInBlock = 0;

  00040	c7 42 24 00 00
	00 00		 mov	 DWORD PTR [edx+36], 0
; File C:\Program Files (x86)\Microsoft Visual Studio\2019\Community\VC\Tools\MSVC\14.29.30133\include\vector

; 1536 :         return static_cast<size_type>(_My_data._Mylast - _My_data._Myfirst);

  00047	8b 42 2c	 mov	 eax, DWORD PTR [edx+44]
  0004a	8b 7a 28	 mov	 edi, DWORD PTR [edx+40]
  0004d	2b c7		 sub	 eax, edi
  0004f	c1 f8 02	 sar	 eax, 2
; File D:\git\src\IBK\IBK_DRFN\ProjSrc\SrcChartEx\ChartOCX\Include_Chart\DataBlockList.cpp

; 291  : 		if( m_vtBlockPointer.size() <= m_nBlockIndex)

  00052	3b c1		 cmp	 eax, ecx
  00054	77 0c		 ja	 SHORT $LN7@GetNextUNK

; 294  : 	}
; 295  : 
; 296  : 	return lpResult;

  00056	8b c6		 mov	 eax, esi
  00058	c7 42 20 00 00
	00 00		 mov	 DWORD PTR [edx+32], 0
  0005f	5e		 pop	 esi
  00060	5f		 pop	 edi

; 297  : }

  00061	c3		 ret	 0
$LN7@GetNextUNK:

; 292  : 				m_lpBlockIndex = NULL;
; 293  : 		else	m_lpBlockIndex = m_vtBlockPointer[ m_nBlockIndex];

  00062	8b 0c 8f	 mov	 ecx, DWORD PTR [edi+ecx*4]
  00065	89 4a 20	 mov	 DWORD PTR [edx+32], ecx
$LN8@GetNextUNK:

; 294  : 	}
; 295  : 
; 296  : 	return lpResult;

  00068	8b c6		 mov	 eax, esi
  0006a	5e		 pop	 esi
  0006b	5f		 pop	 edi

; 297  : }

  0006c	c3		 ret	 0
$LN3@GetNextUNK:

; 278  : 	// ? How do you believe m_lpBlockIndex is not NULL?
; 279  : 	if( !m_lpBlockIndex || m_nIndexInBlock < 0 || m_nBlockSize <= m_nIndexInBlock) return NULL;

  0006d	33 c0		 xor	 eax, eax
  0006f	5f		 pop	 edi

; 297  : }

  00070	c3		 ret	 0
?GetNextUNK@CDataBlockListUNK@@QAEPAXXZ ENDP		; CDataBlockListUNK::GetNextUNK
_TEXT	ENDS
; Function compile flags: /Ogtp
; File D:\git\src\IBK\IBK_DRFN\ProjSrc\SrcChartEx\ChartOCX\Include_Chart\DataBlockList.cpp
;	COMDAT ?GetIndex@CDataBlockListUNK@@QAEHXZ
_TEXT	SEGMENT
?GetIndex@CDataBlockListUNK@@QAEHXZ PROC		; CDataBlockListUNK::GetIndex, COMDAT
; _this$ = ecx

; 271  : 	return m_nIndex;

  00000	8b 41 18	 mov	 eax, DWORD PTR [ecx+24]

; 272  : }

  00003	c3		 ret	 0
?GetIndex@CDataBlockListUNK@@QAEHXZ ENDP		; CDataBlockListUNK::GetIndex
_TEXT	ENDS
; Function compile flags: /Ogtp
; File D:\git\src\IBK\IBK_DRFN\ProjSrc\SrcChartEx\ChartOCX\Include_Chart\DataBlockList.cpp
; File C:\Program Files (x86)\Microsoft Visual Studio\2019\Community\VC\Tools\MSVC\14.29.30133\include\vector
; File D:\git\src\IBK\IBK_DRFN\ProjSrc\SrcChartEx\ChartOCX\Include_Chart\DataBlockList.cpp
; File C:\Program Files (x86)\Microsoft Visual Studio\2019\Community\VC\Tools\MSVC\14.29.30133\include\vector
; File D:\git\src\IBK\IBK_DRFN\ProjSrc\SrcChartEx\ChartOCX\Include_Chart\DataBlockList.cpp
;	COMDAT ?SetIndex@CDataBlockListUNK@@QAEXH@Z
_TEXT	SEGMENT
tv295 = 8						; size = 4
_nIndex$ = 8						; size = 4
?SetIndex@CDataBlockListUNK@@QAEXH@Z PROC		; CDataBlockListUNK::SetIndex, COMDAT
; _this$ = ecx

; 248  : {

  00000	55		 push	 ebp
  00001	8b ec		 mov	 ebp, esp
  00003	53		 push	 ebx

; 249  : 	if( m_nItemCount <= nIndex) return;

  00004	8b 5d 08	 mov	 ebx, DWORD PTR _nIndex$[ebp]
  00007	39 59 0c	 cmp	 DWORD PTR [ecx+12], ebx
  0000a	7e 53		 jle	 SHORT $LN6@SetIndex

; 250  : 
; 251  : 	m_nIndex = nIndex;

  0000c	89 59 18	 mov	 DWORD PTR [ecx+24], ebx

; 252  : 
; 253  : 	nIndex += m_nFirstBlockStartIndex;

  0000f	03 59 10	 add	 ebx, DWORD PTR [ecx+16]

; 254  : 	m_nBlockIndex = nIndex / m_nBlockSize;

  00012	8b c3		 mov	 eax, ebx
  00014	56		 push	 esi
  00015	8b 71 08	 mov	 esi, DWORD PTR [ecx+8]
  00018	99		 cdq
  00019	f7 fe		 idiv	 esi

; 255  : 
; 256  : 	m_nIndexInBlock = nIndex % m_nBlockSize;
; 257  : 
; 258  : 	if( ( m_nBlockSize - m_nFirstBlockStartIndex) > nIndex)

  0001b	2b 71 10	 sub	 esi, DWORD PTR [ecx+16]
  0001e	89 45 08	 mov	 DWORD PTR tv295[ebp], eax
  00021	89 41 1c	 mov	 DWORD PTR [ecx+28], eax
  00024	89 51 24	 mov	 DWORD PTR [ecx+36], edx
  00027	3b f3		 cmp	 esi, ebx
  00029	7e 0e		 jle	 SHORT $LN3@SetIndex

; 259  : 			m_lpBlockIndex = m_vtBlockPointer.front();

  0002b	8b 41 28	 mov	 eax, DWORD PTR [ecx+40]
  0002e	5e		 pop	 esi
  0002f	5b		 pop	 ebx
  00030	8b 00		 mov	 eax, DWORD PTR [eax]

; 265  : 		else	m_lpBlockIndex = m_vtBlockPointer[ m_nBlockIndex];

  00032	89 41 20	 mov	 DWORD PTR [ecx+32], eax

; 266  : 	}
; 267  : }

  00035	5d		 pop	 ebp
  00036	c2 04 00	 ret	 4
$LN3@SetIndex:
; File C:\Program Files (x86)\Microsoft Visual Studio\2019\Community\VC\Tools\MSVC\14.29.30133\include\vector

; 1536 :         return static_cast<size_type>(_My_data._Mylast - _My_data._Myfirst);

  00039	8b 41 2c	 mov	 eax, DWORD PTR [ecx+44]
  0003c	8b 51 28	 mov	 edx, DWORD PTR [ecx+40]
  0003f	2b c2		 sub	 eax, edx
; File D:\git\src\IBK\IBK_DRFN\ProjSrc\SrcChartEx\ChartOCX\Include_Chart\DataBlockList.cpp

; 263  : 		if( m_vtBlockPointer.size() <= m_nBlockIndex)

  00041	8b 75 08	 mov	 esi, DWORD PTR tv295[ebp]
; File C:\Program Files (x86)\Microsoft Visual Studio\2019\Community\VC\Tools\MSVC\14.29.30133\include\vector

; 1536 :         return static_cast<size_type>(_My_data._Mylast - _My_data._Myfirst);

  00044	c1 f8 02	 sar	 eax, 2
; File D:\git\src\IBK\IBK_DRFN\ProjSrc\SrcChartEx\ChartOCX\Include_Chart\DataBlockList.cpp

; 263  : 		if( m_vtBlockPointer.size() <= m_nBlockIndex)

  00047	3b c6		 cmp	 eax, esi
  00049	77 0d		 ja	 SHORT $LN5@SetIndex

; 264  : 				m_lpBlockIndex = NULL;

  0004b	5e		 pop	 esi
  0004c	c7 41 20 00 00
	00 00		 mov	 DWORD PTR [ecx+32], 0
  00053	5b		 pop	 ebx

; 266  : 	}
; 267  : }

  00054	5d		 pop	 ebp
  00055	c2 04 00	 ret	 4
$LN5@SetIndex:

; 265  : 		else	m_lpBlockIndex = m_vtBlockPointer[ m_nBlockIndex];

  00058	8b 04 b2	 mov	 eax, DWORD PTR [edx+esi*4]
  0005b	89 41 20	 mov	 DWORD PTR [ecx+32], eax
  0005e	5e		 pop	 esi
$LN6@SetIndex:
  0005f	5b		 pop	 ebx

; 266  : 	}
; 267  : }

  00060	5d		 pop	 ebp
  00061	c2 04 00	 ret	 4
?SetIndex@CDataBlockListUNK@@QAEXH@Z ENDP		; CDataBlockListUNK::SetIndex
_TEXT	ENDS
; Function compile flags: /Ogtp
; File D:\git\src\IBK\IBK_DRFN\ProjSrc\SrcChartEx\ChartOCX\Include_Chart\DataBlockList.cpp
; File C:\Program Files (x86)\Microsoft Visual Studio\2019\Community\VC\Tools\MSVC\14.29.30133\include\vector
; File D:\git\src\IBK\IBK_DRFN\ProjSrc\SrcChartEx\ChartOCX\Include_Chart\DataBlockList.cpp
; File C:\Program Files (x86)\Microsoft Visual Studio\2019\Community\VC\Tools\MSVC\14.29.30133\include\vector
; File D:\git\src\IBK\IBK_DRFN\ProjSrc\SrcChartEx\ChartOCX\Include_Chart\DataBlockList.cpp
;	COMDAT ?GetAtUNK@CDataBlockListUNK@@QAEPAXH@Z
_TEXT	SEGMENT
_nIndex$ = 8						; size = 4
?GetAtUNK@CDataBlockListUNK@@QAEPAXH@Z PROC		; CDataBlockListUNK::GetAtUNK, COMDAT
; _this$ = ecx

; 207  : {

  00000	55		 push	 ebp
  00001	8b ec		 mov	 ebp, esp

; 208  : 	if( nIndex < 0 || m_nItemCount <= nIndex) return NULL;

  00003	8b 45 08	 mov	 eax, DWORD PTR _nIndex$[ebp]
  00006	53		 push	 ebx
  00007	56		 push	 esi
  00008	8b f1		 mov	 esi, ecx
  0000a	57		 push	 edi
  0000b	85 c0		 test	 eax, eax
  0000d	78 44		 js	 SHORT $LN3@GetAtUNK
  0000f	8b 56 0c	 mov	 edx, DWORD PTR [esi+12]
  00012	3b d0		 cmp	 edx, eax
  00014	7e 3d		 jle	 SHORT $LN3@GetAtUNK

; 209  : 	if( m_nItemCount < 0 || m_vtBlockPointer.size() * m_nBlockSize < m_nItemCount) return NULL;

  00016	85 d2		 test	 edx, edx
  00018	78 39		 js	 SHORT $LN3@GetAtUNK
; File C:\Program Files (x86)\Microsoft Visual Studio\2019\Community\VC\Tools\MSVC\14.29.30133\include\vector

; 1536 :         return static_cast<size_type>(_My_data._Mylast - _My_data._Myfirst);

  0001a	8b 7e 2c	 mov	 edi, DWORD PTR [esi+44]
  0001d	2b 7e 28	 sub	 edi, DWORD PTR [esi+40]
; File D:\git\src\IBK\IBK_DRFN\ProjSrc\SrcChartEx\ChartOCX\Include_Chart\DataBlockList.cpp

; 209  : 	if( m_nItemCount < 0 || m_vtBlockPointer.size() * m_nBlockSize < m_nItemCount) return NULL;

  00020	8b 5e 08	 mov	 ebx, DWORD PTR [esi+8]
; File C:\Program Files (x86)\Microsoft Visual Studio\2019\Community\VC\Tools\MSVC\14.29.30133\include\vector

; 1536 :         return static_cast<size_type>(_My_data._Mylast - _My_data._Myfirst);

  00023	c1 ff 02	 sar	 edi, 2
; File D:\git\src\IBK\IBK_DRFN\ProjSrc\SrcChartEx\ChartOCX\Include_Chart\DataBlockList.cpp

; 209  : 	if( m_nItemCount < 0 || m_vtBlockPointer.size() * m_nBlockSize < m_nItemCount) return NULL;

  00026	8b cf		 mov	 ecx, edi
  00028	0f af cb	 imul	 ecx, ebx
  0002b	3b ca		 cmp	 ecx, edx
  0002d	72 24		 jb	 SHORT $LN3@GetAtUNK

; 210  : 	if( m_nBlockSize <= 0) return NULL;

  0002f	85 db		 test	 ebx, ebx
  00031	7e 20		 jle	 SHORT $LN3@GetAtUNK

; 211  : 
; 212  : 	int nBlockIndex = nIndex / m_nBlockSize;

  00033	99		 cdq
  00034	f7 fb		 idiv	 ebx

; 213  : 	int nIndexInBlock = nIndex % m_nBlockSize;
; 214  : 
; 215  : 	if( m_vtBlockPointer.size() <= nBlockIndex) return NULL;

  00036	3b f8		 cmp	 edi, eax
  00038	76 19		 jbe	 SHORT $LN3@GetAtUNK

; 216  : 
; 217  : 	LPVOID lpBlock = m_vtBlockPointer[ nBlockIndex];

  0003a	8b 4e 28	 mov	 ecx, DWORD PTR [esi+40]
  0003d	8b 0c 81	 mov	 ecx, DWORD PTR [ecx+eax*4]

; 218  : 	if( !lpBlock) return NULL;

  00040	85 c9		 test	 ecx, ecx
  00042	74 0f		 je	 SHORT $LN3@GetAtUNK

; 219  : 	return ( PBYTE)lpBlock + ( nIndexInBlock * m_nItemSize);

  00044	8b 46 04	 mov	 eax, DWORD PTR [esi+4]
  00047	0f af c2	 imul	 eax, edx
  0004a	5f		 pop	 edi

; 220  : }

  0004b	5e		 pop	 esi
  0004c	5b		 pop	 ebx
  0004d	03 c1		 add	 eax, ecx
  0004f	5d		 pop	 ebp
  00050	c2 04 00	 ret	 4
$LN3@GetAtUNK:
  00053	5f		 pop	 edi
  00054	5e		 pop	 esi
  00055	33 c0		 xor	 eax, eax
  00057	5b		 pop	 ebx
  00058	5d		 pop	 ebp
  00059	c2 04 00	 ret	 4
?GetAtUNK@CDataBlockListUNK@@QAEPAXH@Z ENDP		; CDataBlockListUNK::GetAtUNK
_TEXT	ENDS
; Function compile flags: /Ogtp
; File D:\git\src\IBK\IBK_DRFN\ProjSrc\SrcChartEx\ChartOCX\Include_Chart\DataBlockList.cpp
; File C:\Program Files (x86)\Microsoft Visual Studio\2019\Community\VC\Tools\MSVC\14.29.30133\include\vector
; File D:\git\src\IBK\IBK_DRFN\ProjSrc\SrcChartEx\ChartOCX\Include_Chart\DataBlockList.cpp
; File C:\Program Files (x86)\Microsoft Visual Studio\2019\Community\VC\Tools\MSVC\14.29.30133\include\vector
; File D:\git\src\IBK\IBK_DRFN\ProjSrc\SrcChartEx\ChartOCX\Include_Chart\DataBlockList.cpp
;	COMDAT ?SetAtUNK@CDataBlockListUNK@@QAEHHPAX@Z
_TEXT	SEGMENT
_nIndex$ = 8						; size = 4
_Item$ = 12						; size = 4
?SetAtUNK@CDataBlockListUNK@@QAEHHPAX@Z PROC		; CDataBlockListUNK::SetAtUNK, COMDAT
; _this$ = ecx

; 224  : {

  00000	55		 push	 ebp
  00001	8b ec		 mov	 ebp, esp
  00003	53		 push	 ebx
  00004	56		 push	 esi
  00005	57		 push	 edi
  00006	8b f9		 mov	 edi, ecx

; 225  : 	if( m_nItemCount <= nIndex) return FALSE;

  00008	8b 4d 08	 mov	 ecx, DWORD PTR _nIndex$[ebp]
  0000b	39 4f 0c	 cmp	 DWORD PTR [edi+12], ecx
  0000e	7e 74		 jle	 SHORT $LN10@SetAtUNK

; 226  : 	
; 227  : 	if( nIndex < ( m_nBlockSize - m_nFirstBlockStartIndex))

  00010	8b 77 08	 mov	 esi, DWORD PTR [edi+8]
  00013	8b c6		 mov	 eax, esi
  00015	8b 57 10	 mov	 edx, DWORD PTR [edi+16]
  00018	2b c2		 sub	 eax, edx
  0001a	3b c8		 cmp	 ecx, eax
  0001c	7d 26		 jge	 SHORT $LN3@SetAtUNK

; 228  : 	{
; 229  : 		memcpy( ( PBYTE)m_vtBlockPointer.front() + ( ( m_nFirstBlockStartIndex + nIndex) * m_nItemSize), Item, m_nItemSize);

  0001e	8b 47 04	 mov	 eax, DWORD PTR [edi+4]
  00021	03 ca		 add	 ecx, edx
  00023	50		 push	 eax
  00024	ff 75 0c	 push	 DWORD PTR _Item$[ebp]
  00027	0f af c8	 imul	 ecx, eax
  0002a	8b 47 28	 mov	 eax, DWORD PTR [edi+40]
  0002d	03 08		 add	 ecx, DWORD PTR [eax]
  0002f	51		 push	 ecx
  00030	e8 00 00 00 00	 call	 _memcpy
  00035	83 c4 0c	 add	 esp, 12			; 0000000cH

; 230  : 		return TRUE;

  00038	b8 01 00 00 00	 mov	 eax, 1
  0003d	5f		 pop	 edi

; 243  : }

  0003e	5e		 pop	 esi
  0003f	5b		 pop	 ebx
  00040	5d		 pop	 ebp
  00041	c2 08 00	 ret	 8
$LN3@SetAtUNK:

; 231  : 	}
; 232  : 
; 233  : 	nIndex -= ( m_nBlockSize - m_nFirstBlockStartIndex);

  00044	2b d6		 sub	 edx, esi
  00046	8d 04 0a	 lea	 eax, DWORD PTR [edx+ecx]

; 234  : 	int nBlockIndex = nIndex / m_nBlockSize;

  00049	99		 cdq
  0004a	f7 fe		 idiv	 esi
; File C:\Program Files (x86)\Microsoft Visual Studio\2019\Community\VC\Tools\MSVC\14.29.30133\include\vector

; 1536 :         return static_cast<size_type>(_My_data._Mylast - _My_data._Myfirst);

  0004c	8b 77 2c	 mov	 esi, DWORD PTR [edi+44]
  0004f	2b 77 28	 sub	 esi, DWORD PTR [edi+40]
; File D:\git\src\IBK\IBK_DRFN\ProjSrc\SrcChartEx\ChartOCX\Include_Chart\DataBlockList.cpp

; 234  : 	int nBlockIndex = nIndex / m_nBlockSize;

  00052	8b d8		 mov	 ebx, eax
; File C:\Program Files (x86)\Microsoft Visual Studio\2019\Community\VC\Tools\MSVC\14.29.30133\include\vector

; 1536 :         return static_cast<size_type>(_My_data._Mylast - _My_data._Myfirst);

  00054	c1 fe 02	 sar	 esi, 2
; File D:\git\src\IBK\IBK_DRFN\ProjSrc\SrcChartEx\ChartOCX\Include_Chart\DataBlockList.cpp

; 238  : 	if( m_vtBlockPointer.size() <= nBlockIndex + 1) return FALSE;

  00057	8d 4b 01	 lea	 ecx, DWORD PTR [ebx+1]
  0005a	3b f1		 cmp	 esi, ecx
  0005c	76 26		 jbe	 SHORT $LN10@SetAtUNK

; 239  : 	LPVOID lpBlock = m_vtBlockPointer[ nBlockIndex + 1];
; 240  : 
; 241  : 	memcpy( ( PBYTE)lpBlock + ( nIndexInBlock * m_nItemSize), Item, m_nItemSize);

  0005e	8b 47 04	 mov	 eax, DWORD PTR [edi+4]
  00061	50		 push	 eax
  00062	ff 75 0c	 push	 DWORD PTR _Item$[ebp]
  00065	0f af d0	 imul	 edx, eax
  00068	8b 47 28	 mov	 eax, DWORD PTR [edi+40]
  0006b	03 54 98 04	 add	 edx, DWORD PTR [eax+ebx*4+4]
  0006f	52		 push	 edx
  00070	e8 00 00 00 00	 call	 _memcpy
  00075	83 c4 0c	 add	 esp, 12			; 0000000cH

; 242  : 	return TRUE;

  00078	b8 01 00 00 00	 mov	 eax, 1
  0007d	5f		 pop	 edi

; 243  : }

  0007e	5e		 pop	 esi
  0007f	5b		 pop	 ebx
  00080	5d		 pop	 ebp
  00081	c2 08 00	 ret	 8
$LN10@SetAtUNK:
  00084	5f		 pop	 edi
  00085	5e		 pop	 esi
  00086	33 c0		 xor	 eax, eax
  00088	5b		 pop	 ebx
  00089	5d		 pop	 ebp
  0008a	c2 08 00	 ret	 8
?SetAtUNK@CDataBlockListUNK@@QAEHHPAX@Z ENDP		; CDataBlockListUNK::SetAtUNK
_TEXT	ENDS
; Function compile flags: /Ogtp
; File D:\git\src\IBK\IBK_DRFN\ProjSrc\SrcChartEx\ChartOCX\Include_Chart\DataBlockList.cpp
; File C:\Program Files (x86)\Microsoft Visual Studio\2019\Community\VC\Tools\MSVC\14.29.30133\include\vector
; File D:\git\src\IBK\IBK_DRFN\ProjSrc\SrcChartEx\ChartOCX\Include_Chart\DataBlockList.cpp
;	COMDAT ?DeleteBack@CDataBlockListUNK@@QAEXH@Z
_TEXT	SEGMENT
_nCountOfItem$ = 8					; size = 4
?DeleteBack@CDataBlockListUNK@@QAEXH@Z PROC		; CDataBlockListUNK::DeleteBack, COMDAT
; _this$ = ecx

; 157  : {

  00000	55		 push	 ebp
  00001	8b ec		 mov	 ebp, esp
  00003	56		 push	 esi
  00004	57		 push	 edi

; 158  : 	while( nCountOfItem != 0 && m_nItemCount > 0)

  00005	8b 7d 08	 mov	 edi, DWORD PTR _nCountOfItem$[ebp]
  00008	8b f1		 mov	 esi, ecx
  0000a	85 ff		 test	 edi, edi
  0000c	74 47		 je	 SHORT $LN3@DeleteBack
  0000e	53		 push	 ebx
  0000f	8b 1d 00 00 00
	00		 mov	 ebx, DWORD PTR __imp__free
$LL2@DeleteBack:
  00015	8b 46 0c	 mov	 eax, DWORD PTR [esi+12]
  00018	85 c0		 test	 eax, eax
  0001a	7e 38		 jle	 SHORT $LN15@DeleteBack

; 159  : 	{
; 160  : 		if( nCountOfItem < m_nLastBlockEndIndex)

  0001c	8b 4e 14	 mov	 ecx, DWORD PTR [esi+20]
  0001f	3b f9		 cmp	 edi, ecx
  00021	7c 27		 jl	 SHORT $LN12@DeleteBack

; 164  : 			break;
; 165  : 		}
; 166  : 		else
; 167  : 		{
; 168  : 			nCountOfItem -= m_nLastBlockEndIndex;
; 169  : 			m_nItemCount -= m_nLastBlockEndIndex;

  00023	2b c1		 sub	 eax, ecx
  00025	2b f9		 sub	 edi, ecx
  00027	89 46 0c	 mov	 DWORD PTR [esi+12], eax

; 170  : 
; 171  : 			// How do you dare to be sure ? m_nFirstBlockStartIndex can be Non-Zero.
; 172  : 			// Or m_nFirstBlockStartIndex can not be Zero.
; 173  : 			m_nLastBlockEndIndex = m_nBlockSize;

  0002a	8b 46 08	 mov	 eax, DWORD PTR [esi+8]
  0002d	89 46 14	 mov	 DWORD PTR [esi+20], eax

; 175  : 			free(m_vtBlockPointer.back());

  00030	8b 46 2c	 mov	 eax, DWORD PTR [esi+44]
  00033	ff 70 fc	 push	 DWORD PTR [eax-4]
  00036	ff d3		 call	 ebx
; File C:\Program Files (x86)\Microsoft Visual Studio\2019\Community\VC\Tools\MSVC\14.29.30133\include\vector

; 1390 :         --_Mylast;

  00038	83 46 2c fc	 add	 DWORD PTR [esi+44], -4	; fffffffcH
; File D:\git\src\IBK\IBK_DRFN\ProjSrc\SrcChartEx\ChartOCX\Include_Chart\DataBlockList.cpp

; 175  : 			free(m_vtBlockPointer.back());

  0003c	83 c4 04	 add	 esp, 4
  0003f	85 ff		 test	 edi, edi
  00041	75 d2		 jne	 SHORT $LL2@DeleteBack

; 176  : 			m_vtBlockPointer.pop_back();
; 177  : 		}
; 178  : 	}
; 179  : }

  00043	5b		 pop	 ebx
  00044	5f		 pop	 edi
  00045	5e		 pop	 esi
  00046	5d		 pop	 ebp
  00047	c2 04 00	 ret	 4
$LN12@DeleteBack:

; 161  : 		{
; 162  : 			m_nLastBlockEndIndex -= nCountOfItem;

  0004a	2b cf		 sub	 ecx, edi

; 163  : 			m_nItemCount -= nCountOfItem;

  0004c	2b c7		 sub	 eax, edi
  0004e	89 4e 14	 mov	 DWORD PTR [esi+20], ecx
  00051	89 46 0c	 mov	 DWORD PTR [esi+12], eax
$LN15@DeleteBack:
  00054	5b		 pop	 ebx
$LN3@DeleteBack:
  00055	5f		 pop	 edi

; 176  : 			m_vtBlockPointer.pop_back();
; 177  : 		}
; 178  : 	}
; 179  : }

  00056	5e		 pop	 esi
  00057	5d		 pop	 ebp
  00058	c2 04 00	 ret	 4
?DeleteBack@CDataBlockListUNK@@QAEXH@Z ENDP		; CDataBlockListUNK::DeleteBack
_TEXT	ENDS
; Function compile flags: /Ogtp
; File D:\git\src\IBK\IBK_DRFN\ProjSrc\SrcChartEx\ChartOCX\Include_Chart\DataBlockList.cpp
;	COMDAT ?GetBlockSize@CDataBlockListUNK@@QAEHXZ
_TEXT	SEGMENT
?GetBlockSize@CDataBlockListUNK@@QAEHXZ PROC		; CDataBlockListUNK::GetBlockSize, COMDAT
; _this$ = ecx

; 103  : 	return m_nBlockSize;

  00000	8b 41 08	 mov	 eax, DWORD PTR [ecx+8]

; 104  : }

  00003	c3		 ret	 0
?GetBlockSize@CDataBlockListUNK@@QAEHXZ ENDP		; CDataBlockListUNK::GetBlockSize
_TEXT	ENDS
; Function compile flags: /Ogtp
; File D:\git\src\IBK\IBK_DRFN\ProjSrc\SrcChartEx\ChartOCX\Include_Chart\DataBlockList.cpp
;	COMDAT ?GetItemSize@CDataBlockListUNK@@QAEHXZ
_TEXT	SEGMENT
?GetItemSize@CDataBlockListUNK@@QAEHXZ PROC		; CDataBlockListUNK::GetItemSize, COMDAT
; _this$ = ecx

; 96   : 	return m_nItemSize;

  00000	8b 41 04	 mov	 eax, DWORD PTR [ecx+4]

; 97   : }

  00003	c3		 ret	 0
?GetItemSize@CDataBlockListUNK@@QAEHXZ ENDP		; CDataBlockListUNK::GetItemSize
_TEXT	ENDS
; Function compile flags: /Ogtp
; File D:\git\src\IBK\IBK_DRFN\ProjSrc\SrcChartEx\ChartOCX\Include_Chart\DataBlockList.cpp
;	COMDAT ?GetItemCount@CDataBlockListUNK@@QAEHXZ
_TEXT	SEGMENT
?GetItemCount@CDataBlockListUNK@@QAEHXZ PROC		; CDataBlockListUNK::GetItemCount, COMDAT
; _this$ = ecx

; 34   : 	return m_nItemCount;

  00000	8b 41 0c	 mov	 eax, DWORD PTR [ecx+12]

; 35   : }

  00003	c3		 ret	 0
?GetItemCount@CDataBlockListUNK@@QAEHXZ ENDP		; CDataBlockListUNK::GetItemCount
_TEXT	ENDS
; Function compile flags: /Ogtp
; File D:\git\src\IBK\IBK_DRFN\ProjSrc\SrcChartEx\ChartOCX\Include_Chart\DataBlockList.cpp
; File C:\Program Files (x86)\Microsoft Visual Studio\2019\Community\VC\Tools\MSVC\14.29.30133\include\vector
; File D:\git\src\IBK\IBK_DRFN\ProjSrc\SrcChartEx\ChartOCX\Include_Chart\DataBlockList.cpp
; File C:\Program Files (x86)\Microsoft Visual Studio\2019\Community\VC\Tools\MSVC\14.29.30133\include\vector
; File D:\git\src\IBK\IBK_DRFN\ProjSrc\SrcChartEx\ChartOCX\Include_Chart\DataBlockList.cpp
; File C:\Program Files (x86)\Microsoft Visual Studio\2019\Community\VC\Tools\MSVC\14.29.30133\include\vector
; File D:\git\src\IBK\IBK_DRFN\ProjSrc\SrcChartEx\ChartOCX\Include_Chart\DataBlockList.cpp
;	COMDAT ?SetItemCount@CDataBlockListUNK@@QAEHH@Z
_TEXT	SEGMENT
$T1 = -4						; size = 4
_nItemCount$ = 8					; size = 4
?SetItemCount@CDataBlockListUNK@@QAEHH@Z PROC		; CDataBlockListUNK::SetItemCount, COMDAT
; _this$ = ecx

; 40   : {

  00000	55		 push	 ebp
  00001	8b ec		 mov	 ebp, esp
  00003	51		 push	 ecx
  00004	56		 push	 esi
  00005	8b f1		 mov	 esi, ecx

; 41   : 	//    
; 42   : 	if( nItemCount == m_nItemCount) return TRUE;

  00007	8b 4d 08	 mov	 ecx, DWORD PTR _nItemCount$[ebp]
  0000a	57		 push	 edi
  0000b	8b 7e 0c	 mov	 edi, DWORD PTR [esi+12]
  0000e	3b cf		 cmp	 ecx, edi
  00010	0f 84 c4 00 00
	00		 je	 $LN33@SetItemCou

; 43   : 
; 44   : 	//     
; 45   : 	if( nItemCount < m_nItemCount)

  00016	53		 push	 ebx
  00017	7d 46		 jge	 SHORT $LN7@SetItemCou

; 46   : 	{
; 47   : 		int nDecCount_Total = m_nItemCount - nItemCount;

  00019	2b f9		 sub	 edi, ecx

; 48   : 
; 49   : 		while( nDecCount_Total != 0)

  0001b	0f 84 b5 00 00
	00		 je	 $LN5@SetItemCou
  00021	8b 1d 00 00 00
	00		 mov	 ebx, DWORD PTR __imp__free
$LL2@SetItemCou:

; 50   : 		{
; 51   : 			if( nDecCount_Total < m_nLastBlockEndIndex)

  00027	8b 46 14	 mov	 eax, DWORD PTR [esi+20]
  0002a	3b f8		 cmp	 edi, eax
  0002c	7c 2d		 jl	 SHORT $LN27@SetItemCou

; 54   : 				break;
; 55   : 			}
; 56   : 			else
; 57   : 			{
; 58   : 				nDecCount_Total -= m_nLastBlockEndIndex;

  0002e	2b f8		 sub	 edi, eax

; 59   : 				m_nLastBlockEndIndex = m_nBlockSize;

  00030	8b 46 08	 mov	 eax, DWORD PTR [esi+8]
  00033	89 46 14	 mov	 DWORD PTR [esi+20], eax

; 61   : 				free(m_vtBlockPointer.back());

  00036	8b 46 2c	 mov	 eax, DWORD PTR [esi+44]
  00039	ff 70 fc	 push	 DWORD PTR [eax-4]
  0003c	ff d3		 call	 ebx
; File C:\Program Files (x86)\Microsoft Visual Studio\2019\Community\VC\Tools\MSVC\14.29.30133\include\vector

; 1390 :         --_Mylast;

  0003e	83 46 2c fc	 add	 DWORD PTR [esi+44], -4	; fffffffcH
; File D:\git\src\IBK\IBK_DRFN\ProjSrc\SrcChartEx\ChartOCX\Include_Chart\DataBlockList.cpp

; 61   : 				free(m_vtBlockPointer.back());

  00042	83 c4 04	 add	 esp, 4
  00045	85 ff		 test	 edi, edi
  00047	75 de		 jne	 SHORT $LL2@SetItemCou

; 84   : 			}
; 85   : 		}
; 86   : 	}
; 87   : 
; 88   : 	m_nItemCount = nItemCount;

  00049	8b 4d 08	 mov	 ecx, DWORD PTR _nItemCount$[ebp]

; 90   : }

  0004c	8d 47 01	 lea	 eax, DWORD PTR [edi+1]
  0004f	5b		 pop	 ebx
  00050	5f		 pop	 edi
  00051	89 4e 0c	 mov	 DWORD PTR [esi+12], ecx
  00054	5e		 pop	 esi
  00055	8b e5		 mov	 esp, ebp
  00057	5d		 pop	 ebp
  00058	c2 04 00	 ret	 4
$LN27@SetItemCou:

; 52   : 			{
; 53   : 				m_nLastBlockEndIndex -= nDecCount_Total;

  0005b	2b c7		 sub	 eax, edi

; 62   : 				m_vtBlockPointer.pop_back();
; 63   : 			}
; 64   : 		}
; 65   : 	}

  0005d	eb 71		 jmp	 SHORT $LN35@SetItemCou
$LN7@SetItemCou:

; 66   : 	//     
; 67   : 	else
; 68   : 	{
; 69   : 		int nIncCount_Total = nItemCount - m_nItemCount;

  0005f	8b d9		 mov	 ebx, ecx
  00061	2b df		 sub	 ebx, edi

; 71   : 		while( nIncCount_Total != 0)

  00063	74 71		 je	 SHORT $LN5@SetItemCou
  00065	8b 3d 00 00 00
	00		 mov	 edi, DWORD PTR __imp__malloc
  0006b	0f 1f 44 00 00	 npad	 5
$LL4@SetItemCou:

; 72   : 		{
; 73   : 			if( nIncCount_Total < ( m_nBlockSize - m_nLastBlockEndIndex))

  00070	8b 56 08	 mov	 edx, DWORD PTR [esi+8]
  00073	8b c2		 mov	 eax, edx
  00075	8b 4e 14	 mov	 ecx, DWORD PTR [esi+20]
  00078	2b c1		 sub	 eax, ecx
  0007a	3b d8		 cmp	 ebx, eax
  0007c	7c 4f		 jl	 SHORT $LN28@SetItemCou

; 83   : 				m_vtBlockPointer.push_back( malloc( m_nBlockSize * m_nItemSize));

  0007e	8b 46 04	 mov	 eax, DWORD PTR [esi+4]
  00081	2b ca		 sub	 ecx, edx
  00083	0f af c2	 imul	 eax, edx
  00086	03 d9		 add	 ebx, ecx
  00088	c7 46 14 00 00
	00 00		 mov	 DWORD PTR [esi+20], 0
  0008f	50		 push	 eax
  00090	ff d7		 call	 edi
; File C:\Program Files (x86)\Microsoft Visual Studio\2019\Community\VC\Tools\MSVC\14.29.30133\include\vector

; 730  :         if (_Mylast != _My_data._Myend) {

  00092	8b 56 2c	 mov	 edx, DWORD PTR [esi+44]
; File D:\git\src\IBK\IBK_DRFN\ProjSrc\SrcChartEx\ChartOCX\Include_Chart\DataBlockList.cpp

; 83   : 				m_vtBlockPointer.push_back( malloc( m_nBlockSize * m_nItemSize));

  00095	8d 4e 28	 lea	 ecx, DWORD PTR [esi+40]
  00098	83 c4 04	 add	 esp, 4
  0009b	89 45 fc	 mov	 DWORD PTR $T1[ebp], eax
; File C:\Program Files (x86)\Microsoft Visual Studio\2019\Community\VC\Tools\MSVC\14.29.30133\include\vector

; 730  :         if (_Mylast != _My_data._Myend) {

  0009e	3b 51 08	 cmp	 edx, DWORD PTR [ecx+8]
  000a1	74 08		 je	 SHORT $LN21@SetItemCou

; 713  :         _Alty_traits::construct(_Getal(), _Unfancy(_Mylast), _STD forward<_Valty>(_Val)...);

  000a3	89 02		 mov	 DWORD PTR [edx], eax

; 714  :         _Orphan_range(_Mylast, _Mylast);
; 715  :         _Ty& _Result = *_Mylast;
; 716  :         ++_Mylast;

  000a5	83 41 04 04	 add	 DWORD PTR [ecx+4], 4

; 731  :             return _Emplace_back_with_unused_capacity(_STD forward<_Valty>(_Val)...);

  000a9	eb 0a		 jmp	 SHORT $LN20@SetItemCou
$LN21@SetItemCou:

; 732  :         }
; 733  : 
; 734  :         _Ty& _Result = *_Emplace_reallocate(_Mylast, _STD forward<_Valty>(_Val)...);

  000ab	8d 45 fc	 lea	 eax, DWORD PTR $T1[ebp]
  000ae	50		 push	 eax
  000af	52		 push	 edx
  000b0	e8 00 00 00 00	 call	 ??$_Emplace_reallocate@PAX@?$vector@PAXV?$allocator@PAX@std@@@std@@QAEPAPAXQAPAX$$QAPAX@Z ; std::vector<void *,std::allocator<void *> >::_Emplace_reallocate<void *>
$LN20@SetItemCou:
; File D:\git\src\IBK\IBK_DRFN\ProjSrc\SrcChartEx\ChartOCX\Include_Chart\DataBlockList.cpp

; 71   : 		while( nIncCount_Total != 0)

  000b5	85 db		 test	 ebx, ebx
  000b7	75 b7		 jne	 SHORT $LL4@SetItemCou

; 84   : 			}
; 85   : 		}
; 86   : 	}
; 87   : 
; 88   : 	m_nItemCount = nItemCount;

  000b9	8b 4d 08	 mov	 ecx, DWORD PTR _nItemCount$[ebp]

; 90   : }

  000bc	b8 01 00 00 00	 mov	 eax, 1
  000c1	5b		 pop	 ebx
  000c2	5f		 pop	 edi
  000c3	89 4e 0c	 mov	 DWORD PTR [esi+12], ecx
  000c6	5e		 pop	 esi
  000c7	8b e5		 mov	 esp, ebp
  000c9	5d		 pop	 ebp
  000ca	c2 04 00	 ret	 4
$LN28@SetItemCou:

; 74   : 			{
; 75   : 				m_nLastBlockEndIndex += nIncCount_Total;

  000cd	8d 04 19	 lea	 eax, DWORD PTR [ecx+ebx]
$LN35@SetItemCou:

; 84   : 			}
; 85   : 		}
; 86   : 	}
; 87   : 
; 88   : 	m_nItemCount = nItemCount;

  000d0	8b 4d 08	 mov	 ecx, DWORD PTR _nItemCount$[ebp]
  000d3	89 46 14	 mov	 DWORD PTR [esi+20], eax
$LN5@SetItemCou:
  000d6	89 4e 0c	 mov	 DWORD PTR [esi+12], ecx

; 89   : 	return TRUE;

  000d9	5b		 pop	 ebx
$LN33@SetItemCou:

; 90   : }

  000da	5f		 pop	 edi
  000db	b8 01 00 00 00	 mov	 eax, 1
  000e0	5e		 pop	 esi
  000e1	8b e5		 mov	 esp, ebp
  000e3	5d		 pop	 ebp
  000e4	c2 04 00	 ret	 4
?SetItemCount@CDataBlockListUNK@@QAEHH@Z ENDP		; CDataBlockListUNK::SetItemCount
_TEXT	ENDS
; Function compile flags: /Ogtp
; File D:\git\src\IBK\IBK_DRFN\ProjSrc\SrcChartEx\ChartOCX\Include_Chart\DataBlockList.cpp
; File C:\Program Files (x86)\Microsoft Visual Studio\2019\Community\VC\Tools\MSVC\14.29.30133\include\vector
; File D:\git\src\IBK\IBK_DRFN\ProjSrc\SrcChartEx\ChartOCX\Include_Chart\DataBlockList.cpp
; File C:\Program Files (x86)\Microsoft Visual Studio\2019\Community\VC\Tools\MSVC\14.29.30133\include\vector
; File D:\git\src\IBK\IBK_DRFN\ProjSrc\SrcChartEx\ChartOCX\Include_Chart\DataBlockList.cpp
; File C:\Program Files (x86)\Microsoft Visual Studio\2019\Community\VC\Tools\MSVC\14.29.30133\include\vector
; File D:\git\src\IBK\IBK_DRFN\ProjSrc\SrcChartEx\ChartOCX\Include_Chart\DataBlockList.cpp
;	COMDAT ?Clear@CDataBlockListUNK@@QAEXXZ
_TEXT	SEGMENT
?Clear@CDataBlockListUNK@@QAEXXZ PROC			; CDataBlockListUNK::Clear, COMDAT
; _this$ = ecx

; 10   : {

  00000	56		 push	 esi
  00001	57		 push	 edi
  00002	8b f9		 mov	 edi, ecx

; 11   : 	m_nItemCount = 0;

  00004	c7 47 0c 00 00
	00 00		 mov	 DWORD PTR [edi+12], 0

; 12   : 	m_nFirstBlockStartIndex = 0;

  0000b	c7 47 10 00 00
	00 00		 mov	 DWORD PTR [edi+16], 0

; 13   : 	m_nLastBlockEndIndex = 0;

  00012	c7 47 14 00 00
	00 00		 mov	 DWORD PTR [edi+20], 0

; 14   : 
; 15   : 	m_nIndex = 0;

  00019	c7 47 18 00 00
	00 00		 mov	 DWORD PTR [edi+24], 0

; 16   : 	m_nBlockIndex = 0;

  00020	c7 47 1c 00 00
	00 00		 mov	 DWORD PTR [edi+28], 0

; 17   : 	m_nIndexInBlock = 0;

  00027	c7 47 24 00 00
	00 00		 mov	 DWORD PTR [edi+36], 0

; 18   : 	m_lpBlockIndex = NULL;

  0002e	c7 47 20 00 00
	00 00		 mov	 DWORD PTR [edi+32], 0
; File C:\Program Files (x86)\Microsoft Visual Studio\2019\Community\VC\Tools\MSVC\14.29.30133\include\vector

; 41   :     _CONSTEXPR20_CONTAINER _Vector_const_iterator(_Tptr _Parg, const _Container_base* _Pvector) noexcept : _Ptr(_Parg) {

  00035	8b 77 28	 mov	 esi, DWORD PTR [edi+40]
  00038	3b 77 2c	 cmp	 esi, DWORD PTR [edi+44]
; File D:\git\src\IBK\IBK_DRFN\ProjSrc\SrcChartEx\ChartOCX\Include_Chart\DataBlockList.cpp

; 21   : 	while(it != m_vtBlockPointer.end())

  0003b	74 20		 je	 SHORT $LN29@Clear
  0003d	53		 push	 ebx
  0003e	8b 1d 00 00 00
	00		 mov	 ebx, DWORD PTR __imp__free
$LL2@Clear:

; 23   : 		free(*it);

  00044	ff 36		 push	 DWORD PTR [esi]
  00046	ff d3		 call	 ebx
; File C:\Program Files (x86)\Microsoft Visual Studio\2019\Community\VC\Tools\MSVC\14.29.30133\include\vector

; 74   :         ++_Ptr;

  00048	83 c6 04	 add	 esi, 4
; File D:\git\src\IBK\IBK_DRFN\ProjSrc\SrcChartEx\ChartOCX\Include_Chart\DataBlockList.cpp

; 23   : 		free(*it);

  0004b	83 c4 04	 add	 esp, 4
; File C:\Program Files (x86)\Microsoft Visual Studio\2019\Community\VC\Tools\MSVC\14.29.30133\include\vector

; 150  :         return _Ptr == _Right._Ptr;

  0004e	3b 77 2c	 cmp	 esi, DWORD PTR [edi+44]
; File D:\git\src\IBK\IBK_DRFN\ProjSrc\SrcChartEx\ChartOCX\Include_Chart\DataBlockList.cpp

; 21   : 	while(it != m_vtBlockPointer.end())

  00051	75 f1		 jne	 SHORT $LL2@Clear

; 24   : 		it++;
; 25   : 	}
; 26   : 
; 27   : 	m_vtBlockPointer.clear();

  00053	8b 47 28	 mov	 eax, DWORD PTR [edi+40]
  00056	5b		 pop	 ebx
  00057	89 47 2c	 mov	 DWORD PTR [edi+44], eax
  0005a	5f		 pop	 edi

; 28   : }

  0005b	5e		 pop	 esi
  0005c	c3		 ret	 0
$LN29@Clear:

; 24   : 		it++;
; 25   : 	}
; 26   : 
; 27   : 	m_vtBlockPointer.clear();

  0005d	89 77 2c	 mov	 DWORD PTR [edi+44], esi
  00060	5f		 pop	 edi

; 28   : }

  00061	5e		 pop	 esi
  00062	c3		 ret	 0
?Clear@CDataBlockListUNK@@QAEXXZ ENDP			; CDataBlockListUNK::Clear
_TEXT	ENDS
; Function compile flags: /Ogtp
; File C:\Program Files (x86)\Microsoft Visual Studio\2019\Community\VC\Tools\MSVC\14.29.30133\include\vector
;	COMDAT ?_Xlength@?$vector@PAXV?$allocator@PAX@std@@@std@@CAXXZ
_TEXT	SEGMENT
?_Xlength@?$vector@PAXV?$allocator@PAX@std@@@std@@CAXXZ PROC ; std::vector<void *,std::allocator<void *> >::_Xlength, COMDAT

; 1761 :         _Xlength_error("vector too long");

  00000	68 00 00 00 00	 push	 OFFSET ??_C@_0BA@FOIKENOD@vector?5too?5long@
  00005	e8 00 00 00 00	 call	 ?_Xlength_error@std@@YAXPBD@Z ; std::_Xlength_error
$LN3@Xlength:
  0000a	cc		 int	 3
?_Xlength@?$vector@PAXV?$allocator@PAX@std@@@std@@CAXXZ ENDP ; std::vector<void *,std::allocator<void *> >::_Xlength
_TEXT	ENDS
; Function compile flags: /Ogtp
; File C:\Program Files (x86)\Microsoft Visual Studio\2019\Community\VC\Tools\MSVC\14.29.30133\include\vector
; File C:\Program Files (x86)\Microsoft Visual Studio\2019\Community\VC\Tools\MSVC\14.29.30133\include\xmemory
; File C:\Program Files (x86)\Microsoft Visual Studio\2019\Community\VC\Tools\MSVC\14.29.30133\include\vector
; File C:\Program Files (x86)\Microsoft Visual Studio\2019\Community\VC\Tools\MSVC\14.29.30133\include\xmemory
; File C:\Program Files (x86)\Microsoft Visual Studio\2019\Community\VC\Tools\MSVC\14.29.30133\include\vector
;	COMDAT ?_Change_array@?$vector@PAXV?$allocator@PAX@std@@@std@@AAEXQAPAXII@Z
_TEXT	SEGMENT
__Newvec$ = 8						; size = 4
__Newsize$ = 12						; size = 4
__Newcapacity$ = 16					; size = 4
?_Change_array@?$vector@PAXV?$allocator@PAX@std@@@std@@AAEXQAPAXII@Z PROC ; std::vector<void *,std::allocator<void *> >::_Change_array, COMDAT
; _this$ = ecx

; 1723 :         const pointer _Newvec, const size_type _Newsize, const size_type _Newcapacity) {

  00000	55		 push	 ebp
  00001	8b ec		 mov	 ebp, esp
  00003	56		 push	 esi
  00004	8b f1		 mov	 esi, ecx

; 1724 :         // orphan all iterators, discard old array, acquire new array
; 1725 :         auto& _My_data    = _Mypair._Myval2;
; 1726 :         pointer& _Myfirst = _My_data._Myfirst;
; 1727 :         pointer& _Mylast  = _My_data._Mylast;
; 1728 :         pointer& _Myend   = _My_data._Myend;
; 1729 : 
; 1730 :         _My_data._Orphan_all();
; 1731 : 
; 1732 :         if (_Myfirst) { // destroy and deallocate old array

  00006	8b 06		 mov	 eax, DWORD PTR [esi]
  00008	85 c0		 test	 eax, eax
  0000a	74 2c		 je	 SHORT $LN8@Change_arr

; 1733 :             _Destroy(_Myfirst, _Mylast);
; 1734 :             _Getal().deallocate(_Myfirst, static_cast<size_type>(_Myend - _Myfirst));

  0000c	8b 4e 08	 mov	 ecx, DWORD PTR [esi+8]
  0000f	2b c8		 sub	 ecx, eax
; File C:\Program Files (x86)\Microsoft Visual Studio\2019\Community\VC\Tools\MSVC\14.29.30133\include\xmemory

; 797  :         _Deallocate<_New_alignof<_Ty>>(_Ptr, sizeof(_Ty) * _Count);

  00011	83 e1 fc	 and	 ecx, -4			; fffffffcH

; 251  :         if (_Bytes >= _Big_allocation_threshold) { // boost the alignment of big allocations to help autovectorization

  00014	81 f9 00 10 00
	00		 cmp	 ecx, 4096		; 00001000H
  0001a	72 12		 jb	 SHORT $LN18@Change_arr

; 150  :     const uintptr_t _Ptr_container   = _Ptr_user[-1];

  0001c	8b 50 fc	 mov	 edx, DWORD PTR [eax-4]
  0001f	83 c1 23	 add	 ecx, 35			; 00000023H

; 151  : 
; 152  :     // If the following asserts, it likely means that we are performing
; 153  :     // an aligned delete on memory coming from an unaligned allocation.
; 154  :     _STL_ASSERT(_Ptr_user[-2] == _Big_allocation_sentinel, "invalid argument");
; 155  : 
; 156  :     // Extra paranoia on aligned allocation/deallocation; ensure _Ptr_container is
; 157  :     // in range [_Min_back_shift, _Non_user_size]
; 158  : #ifdef _DEBUG
; 159  :     constexpr uintptr_t _Min_back_shift = 2 * sizeof(void*);
; 160  : #else // ^^^ _DEBUG ^^^ // vvv !_DEBUG vvv
; 161  :     constexpr uintptr_t _Min_back_shift = sizeof(void*);
; 162  : #endif // _DEBUG
; 163  :     const uintptr_t _Back_shift = reinterpret_cast<uintptr_t>(_Ptr) - _Ptr_container;

  00022	2b c2		 sub	 eax, edx

; 164  :     _STL_VERIFY(_Back_shift >= _Min_back_shift && _Back_shift <= _Non_user_size, "invalid argument");

  00024	83 c0 fc	 add	 eax, -4			; fffffffcH
  00027	83 f8 1f	 cmp	 eax, 31			; 0000001fH
  0002a	77 28		 ja	 SHORT $LN15@Change_arr

; 165  :     _Ptr = reinterpret_cast<void*>(_Ptr_container);

  0002c	8b c2		 mov	 eax, edx
$LN18@Change_arr:

; 255  :         ::operator delete(_Ptr, _Bytes);

  0002e	51		 push	 ecx
  0002f	50		 push	 eax
  00030	e8 00 00 00 00	 call	 ??3@YAXPAXI@Z		; operator delete
  00035	83 c4 08	 add	 esp, 8
$LN8@Change_arr:
; File C:\Program Files (x86)\Microsoft Visual Studio\2019\Community\VC\Tools\MSVC\14.29.30133\include\vector

; 1737 :         _Myfirst = _Newvec;

  00038	8b 4d 08	 mov	 ecx, DWORD PTR __Newvec$[ebp]

; 1738 :         _Mylast  = _Newvec + _Newsize;

  0003b	8b 45 0c	 mov	 eax, DWORD PTR __Newsize$[ebp]
  0003e	89 0e		 mov	 DWORD PTR [esi], ecx
  00040	8d 04 81	 lea	 eax, DWORD PTR [ecx+eax*4]
  00043	89 46 04	 mov	 DWORD PTR [esi+4], eax

; 1739 :         _Myend   = _Newvec + _Newcapacity;

  00046	8b 45 10	 mov	 eax, DWORD PTR __Newcapacity$[ebp]
  00049	8d 04 81	 lea	 eax, DWORD PTR [ecx+eax*4]
  0004c	89 46 08	 mov	 DWORD PTR [esi+8], eax
  0004f	5e		 pop	 esi

; 1740 :     }

  00050	5d		 pop	 ebp
  00051	c2 0c 00	 ret	 12			; 0000000cH
$LN15@Change_arr:
; File C:\Program Files (x86)\Microsoft Visual Studio\2019\Community\VC\Tools\MSVC\14.29.30133\include\xmemory

; 164  :     _STL_VERIFY(_Back_shift >= _Min_back_shift && _Back_shift <= _Non_user_size, "invalid argument");

  00054	ff 15 00 00 00
	00		 call	 DWORD PTR __imp___invalid_parameter_noinfo_noreturn
$LN22@Change_arr:
  0005a	cc		 int	 3
?_Change_array@?$vector@PAXV?$allocator@PAX@std@@@std@@AAEXQAPAXII@Z ENDP ; std::vector<void *,std::allocator<void *> >::_Change_array
_TEXT	ENDS
; Function compile flags: /Ogtp
; File C:\Program Files (x86)\Microsoft Visual Studio\2019\Community\VC\Tools\MSVC\14.29.30133\include\xmemory
;	COMDAT ?allocate@?$allocator@PAX@std@@QAEPAPAXI@Z
_TEXT	SEGMENT
__Count$ = 8						; size = 4
?allocate@?$allocator@PAX@std@@QAEPAPAXI@Z PROC		; std::allocator<void *>::allocate, COMDAT
; _this$ = ecx

; 800  :     _NODISCARD _CONSTEXPR20_DYNALLOC __declspec(allocator) _Ty* allocate(_CRT_GUARDOVERFLOW const size_t _Count) {

  00000	55		 push	 ebp
  00001	8b ec		 mov	 ebp, esp

; 60   :         if (_Count > _Max_possible) {

  00003	8b 45 08	 mov	 eax, DWORD PTR __Count$[ebp]
  00006	3d ff ff ff 3f	 cmp	 eax, 1073741823		; 3fffffffH
  0000b	77 4a		 ja	 SHORT $LN27@allocate

; 61   :             _Throw_bad_array_new_length(); // multiply overflow
; 62   :         }
; 63   :     }
; 64   : 
; 65   :     return _Count * _Ty_size;

  0000d	c1 e0 02	 shl	 eax, 2

; 228  :         if (_Bytes >= _Big_allocation_threshold) { // boost the alignment of big allocations to help autovectorization

  00010	3d 00 10 00 00	 cmp	 eax, 4096		; 00001000H
  00015	72 29		 jb	 SHORT $LN8@allocate

; 129  :     const size_t _Block_size = _Non_user_size + _Bytes;

  00017	8d 48 23	 lea	 ecx, DWORD PTR [eax+35]

; 130  :     if (_Block_size <= _Bytes) {

  0001a	3b c8		 cmp	 ecx, eax
  0001c	76 39		 jbe	 SHORT $LN27@allocate

; 79   :         return ::operator new(_Bytes);

  0001e	51		 push	 ecx
  0001f	e8 00 00 00 00	 call	 ??2@YAPAXI@Z		; operator new

; 134  :     const uintptr_t _Ptr_container = reinterpret_cast<uintptr_t>(_Traits::_Allocate(_Block_size));

  00024	8b c8		 mov	 ecx, eax

; 79   :         return ::operator new(_Bytes);

  00026	83 c4 04	 add	 esp, 4

; 135  :     _STL_VERIFY(_Ptr_container != 0, "invalid argument"); // validate even in release since we're doing p[-1]

  00029	85 c9		 test	 ecx, ecx
  0002b	74 0d		 je	 SHORT $LN17@allocate

; 136  :     void* const _Ptr = reinterpret_cast<void*>((_Ptr_container + _Non_user_size) & ~(_Big_allocation_alignment - 1));

  0002d	8d 41 23	 lea	 eax, DWORD PTR [ecx+35]
  00030	83 e0 e0	 and	 eax, -32		; ffffffe0H

; 137  :     static_cast<uintptr_t*>(_Ptr)[-1] = _Ptr_container;

  00033	89 48 fc	 mov	 DWORD PTR [eax-4], ecx

; 801  :         return static_cast<_Ty*>(_Allocate<_New_alignof<_Ty>>(_Get_size_of_n<sizeof(_Ty)>(_Count)));
; 802  :     }

  00036	5d		 pop	 ebp
  00037	c2 04 00	 ret	 4
$LN17@allocate:

; 135  :     _STL_VERIFY(_Ptr_container != 0, "invalid argument"); // validate even in release since we're doing p[-1]

  0003a	ff 15 00 00 00
	00		 call	 DWORD PTR __imp___invalid_parameter_noinfo_noreturn
$LN8@allocate:

; 234  :     if (_Bytes != 0) {

  00040	85 c0		 test	 eax, eax
  00042	74 0d		 je	 SHORT $LN9@allocate

; 79   :         return ::operator new(_Bytes);

  00044	50		 push	 eax
  00045	e8 00 00 00 00	 call	 ??2@YAPAXI@Z		; operator new
  0004a	83 c4 04	 add	 esp, 4

; 801  :         return static_cast<_Ty*>(_Allocate<_New_alignof<_Ty>>(_Get_size_of_n<sizeof(_Ty)>(_Count)));
; 802  :     }

  0004d	5d		 pop	 ebp
  0004e	c2 04 00	 ret	 4
$LN9@allocate:

; 238  :     return nullptr;

  00051	33 c0		 xor	 eax, eax

; 801  :         return static_cast<_Ty*>(_Allocate<_New_alignof<_Ty>>(_Get_size_of_n<sizeof(_Ty)>(_Count)));
; 802  :     }

  00053	5d		 pop	 ebp
  00054	c2 04 00	 ret	 4
$LN27@allocate:

; 131  :         _Throw_bad_array_new_length(); // add overflow

  00057	e8 00 00 00 00	 call	 ?_Throw_bad_array_new_length@std@@YAXXZ ; std::_Throw_bad_array_new_length
$LN28@allocate:
  0005c	cc		 int	 3
?allocate@?$allocator@PAX@std@@QAEPAPAXI@Z ENDP		; std::allocator<void *>::allocate
_TEXT	ENDS
; Function compile flags: /Ogtp
; File D:\git\src\IBK\IBK_DRFN\ProjSrc\SrcChartEx\ChartOCX\Include_Chart\DataBlockList.cpp
; File C:\Program Files (x86)\Microsoft Visual Studio\2019\Community\VC\Tools\MSVC\14.29.30133\include\vector
; File D:\git\src\IBK\IBK_DRFN\ProjSrc\SrcChartEx\ChartOCX\Include_Chart\DataBlockList.cpp
; File C:\Program Files (x86)\Microsoft Visual Studio\2019\Community\VC\Tools\MSVC\14.29.30133\include\vector
; File D:\git\src\IBK\IBK_DRFN\ProjSrc\SrcChartEx\ChartOCX\Include_Chart\DataBlockList.cpp
; File C:\Program Files (x86)\Microsoft Visual Studio\2019\Community\VC\Tools\MSVC\14.29.30133\include\vector
; File D:\git\src\IBK\IBK_DRFN\ProjSrc\SrcChartEx\ChartOCX\Include_Chart\DataBlockList.cpp
; File C:\Program Files (x86)\Microsoft Visual Studio\2019\Community\VC\Tools\MSVC\14.29.30133\include\vector
; File C:\Program Files (x86)\Microsoft Visual Studio\2019\Community\VC\Tools\MSVC\14.29.30133\include\xmemory
; File C:\Program Files (x86)\Microsoft Visual Studio\2019\Community\VC\Tools\MSVC\14.29.30133\include\vector
; File C:\Program Files (x86)\Microsoft Visual Studio\2019\Community\VC\Tools\MSVC\14.29.30133\include\xmemory
; File C:\Program Files (x86)\Microsoft Visual Studio\2019\Community\VC\Tools\MSVC\14.29.30133\include\vector
; File D:\git\src\IBK\IBK_DRFN\ProjSrc\SrcChartEx\ChartOCX\Include_Chart\DataBlockList.cpp
; File C:\Program Files (x86)\Microsoft Visual Studio\2019\Community\VC\Tools\MSVC\14.29.30133\include\xmemory
; File D:\git\src\IBK\IBK_DRFN\ProjSrc\SrcChartEx\ChartOCX\Include_Chart\DataBlockList.cpp
;	COMDAT ??1CDataBlockListUNK@@UAE@XZ
_TEXT	SEGMENT
??1CDataBlockListUNK@@UAE@XZ PROC			; CDataBlockListUNK::~CDataBlockListUNK, COMDAT
; _this$ = ecx

; 5    : {

  00000	56		 push	 esi
  00001	57		 push	 edi
  00002	8b f9		 mov	 edi, ecx
  00004	c7 07 00 00 00
	00		 mov	 DWORD PTR [edi], OFFSET ??_7CDataBlockListUNK@@6B@

; 11   : 	m_nItemCount = 0;

  0000a	c7 47 0c 00 00
	00 00		 mov	 DWORD PTR [edi+12], 0

; 12   : 	m_nFirstBlockStartIndex = 0;

  00011	c7 47 10 00 00
	00 00		 mov	 DWORD PTR [edi+16], 0

; 13   : 	m_nLastBlockEndIndex = 0;

  00018	c7 47 14 00 00
	00 00		 mov	 DWORD PTR [edi+20], 0

; 14   : 
; 15   : 	m_nIndex = 0;

  0001f	c7 47 18 00 00
	00 00		 mov	 DWORD PTR [edi+24], 0

; 16   : 	m_nBlockIndex = 0;

  00026	c7 47 1c 00 00
	00 00		 mov	 DWORD PTR [edi+28], 0

; 17   : 	m_nIndexInBlock = 0;

  0002d	c7 47 24 00 00
	00 00		 mov	 DWORD PTR [edi+36], 0

; 18   : 	m_lpBlockIndex = NULL;

  00034	c7 47 20 00 00
	00 00		 mov	 DWORD PTR [edi+32], 0
; File C:\Program Files (x86)\Microsoft Visual Studio\2019\Community\VC\Tools\MSVC\14.29.30133\include\vector

; 41   :     _CONSTEXPR20_CONTAINER _Vector_const_iterator(_Tptr _Parg, const _Container_base* _Pvector) noexcept : _Ptr(_Parg) {

  0003b	8b 77 28	 mov	 esi, DWORD PTR [edi+40]
  0003e	3b 77 2c	 cmp	 esi, DWORD PTR [edi+44]
; File D:\git\src\IBK\IBK_DRFN\ProjSrc\SrcChartEx\ChartOCX\Include_Chart\DataBlockList.cpp

; 21   : 	while(it != m_vtBlockPointer.end())

  00041	74 20		 je	 SHORT $LN5@CDataBlock
  00043	53		 push	 ebx
  00044	8b 1d 00 00 00
	00		 mov	 ebx, DWORD PTR __imp__free
  0004a	66 0f 1f 44 00
	00		 npad	 6
$LL4@CDataBlock:

; 23   : 		free(*it);

  00050	ff 36		 push	 DWORD PTR [esi]
  00052	ff d3		 call	 ebx
; File C:\Program Files (x86)\Microsoft Visual Studio\2019\Community\VC\Tools\MSVC\14.29.30133\include\vector

; 74   :         ++_Ptr;

  00054	83 c6 04	 add	 esi, 4
; File D:\git\src\IBK\IBK_DRFN\ProjSrc\SrcChartEx\ChartOCX\Include_Chart\DataBlockList.cpp

; 23   : 		free(*it);

  00057	83 c4 04	 add	 esp, 4
; File C:\Program Files (x86)\Microsoft Visual Studio\2019\Community\VC\Tools\MSVC\14.29.30133\include\vector

; 150  :         return _Ptr == _Right._Ptr;

  0005a	3b 77 2c	 cmp	 esi, DWORD PTR [edi+44]
; File D:\git\src\IBK\IBK_DRFN\ProjSrc\SrcChartEx\ChartOCX\Include_Chart\DataBlockList.cpp

; 21   : 	while(it != m_vtBlockPointer.end())

  0005d	75 f1		 jne	 SHORT $LL4@CDataBlock
  0005f	8b 77 28	 mov	 esi, DWORD PTR [edi+40]
  00062	5b		 pop	 ebx
$LN5@CDataBlock:

; 24   : 		it++;
; 25   : 	}
; 26   : 
; 27   : 	m_vtBlockPointer.clear();

  00063	89 77 2c	 mov	 DWORD PTR [edi+44], esi
; File C:\Program Files (x86)\Microsoft Visual Studio\2019\Community\VC\Tools\MSVC\14.29.30133\include\vector

; 1750 :         if (_Myfirst) { // destroy and deallocate old array

  00066	85 f6		 test	 esi, esi
  00068	74 41		 je	 SHORT $LN30@CDataBlock

; 1751 :             _Destroy(_Myfirst, _Mylast);
; 1752 :             _Getal().deallocate(_Myfirst, static_cast<size_type>(_Myend - _Myfirst));

  0006a	8b 4f 30	 mov	 ecx, DWORD PTR [edi+48]
  0006d	2b ce		 sub	 ecx, esi
; File C:\Program Files (x86)\Microsoft Visual Studio\2019\Community\VC\Tools\MSVC\14.29.30133\include\xmemory

; 797  :         _Deallocate<_New_alignof<_Ty>>(_Ptr, sizeof(_Ty) * _Count);

  0006f	83 e1 fc	 and	 ecx, -4			; fffffffcH

; 251  :         if (_Bytes >= _Big_allocation_threshold) { // boost the alignment of big allocations to help autovectorization

  00072	81 f9 00 10 00
	00		 cmp	 ecx, 4096		; 00001000H
  00078	72 12		 jb	 SHORT $LN46@CDataBlock

; 150  :     const uintptr_t _Ptr_container   = _Ptr_user[-1];

  0007a	8b 56 fc	 mov	 edx, DWORD PTR [esi-4]
  0007d	83 c1 23	 add	 ecx, 35			; 00000023H

; 151  : 
; 152  :     // If the following asserts, it likely means that we are performing
; 153  :     // an aligned delete on memory coming from an unaligned allocation.
; 154  :     _STL_ASSERT(_Ptr_user[-2] == _Big_allocation_sentinel, "invalid argument");
; 155  : 
; 156  :     // Extra paranoia on aligned allocation/deallocation; ensure _Ptr_container is
; 157  :     // in range [_Min_back_shift, _Non_user_size]
; 158  : #ifdef _DEBUG
; 159  :     constexpr uintptr_t _Min_back_shift = 2 * sizeof(void*);
; 160  : #else // ^^^ _DEBUG ^^^ // vvv !_DEBUG vvv
; 161  :     constexpr uintptr_t _Min_back_shift = sizeof(void*);
; 162  : #endif // _DEBUG
; 163  :     const uintptr_t _Back_shift = reinterpret_cast<uintptr_t>(_Ptr) - _Ptr_container;

  00080	2b f2		 sub	 esi, edx

; 164  :     _STL_VERIFY(_Back_shift >= _Min_back_shift && _Back_shift <= _Non_user_size, "invalid argument");

  00082	8d 46 fc	 lea	 eax, DWORD PTR [esi-4]
  00085	83 f8 1f	 cmp	 eax, 31			; 0000001fH
  00088	77 24		 ja	 SHORT $LN43@CDataBlock

; 165  :     _Ptr = reinterpret_cast<void*>(_Ptr_container);

  0008a	8b f2		 mov	 esi, edx
$LN46@CDataBlock:

; 255  :         ::operator delete(_Ptr, _Bytes);

  0008c	51		 push	 ecx
  0008d	56		 push	 esi
  0008e	e8 00 00 00 00	 call	 ??3@YAXPAXI@Z		; operator delete
; File C:\Program Files (x86)\Microsoft Visual Studio\2019\Community\VC\Tools\MSVC\14.29.30133\include\vector

; 1754 :             _Myfirst = nullptr;

  00093	c7 47 28 00 00
	00 00		 mov	 DWORD PTR [edi+40], 0
; File C:\Program Files (x86)\Microsoft Visual Studio\2019\Community\VC\Tools\MSVC\14.29.30133\include\xmemory

; 255  :         ::operator delete(_Ptr, _Bytes);

  0009a	83 c4 08	 add	 esp, 8
; File C:\Program Files (x86)\Microsoft Visual Studio\2019\Community\VC\Tools\MSVC\14.29.30133\include\vector

; 1755 :             _Mylast  = nullptr;

  0009d	c7 47 2c 00 00
	00 00		 mov	 DWORD PTR [edi+44], 0

; 1756 :             _Myend   = nullptr;

  000a4	c7 47 30 00 00
	00 00		 mov	 DWORD PTR [edi+48], 0
$LN30@CDataBlock:
  000ab	5f		 pop	 edi
; File D:\git\src\IBK\IBK_DRFN\ProjSrc\SrcChartEx\ChartOCX\Include_Chart\DataBlockList.cpp

; 7    : }

  000ac	5e		 pop	 esi
  000ad	c3		 ret	 0
$LN43@CDataBlock:
; File C:\Program Files (x86)\Microsoft Visual Studio\2019\Community\VC\Tools\MSVC\14.29.30133\include\xmemory

; 164  :     _STL_VERIFY(_Back_shift >= _Min_back_shift && _Back_shift <= _Non_user_size, "invalid argument");

  000ae	ff 15 00 00 00
	00		 call	 DWORD PTR __imp___invalid_parameter_noinfo_noreturn
$LN56@CDataBlock:
  000b4	cc		 int	 3
??1CDataBlockListUNK@@UAE@XZ ENDP			; CDataBlockListUNK::~CDataBlockListUNK
_TEXT	ENDS
; Function compile flags: /Ogtp
; File C:\Program Files (x86)\Microsoft Visual Studio\2019\Community\VC\Tools\MSVC\14.29.30133\include\exception
;	COMDAT ?_Throw_bad_array_new_length@std@@YAXXZ
_TEXT	SEGMENT
$T1 = -12						; size = 12
?_Throw_bad_array_new_length@std@@YAXXZ PROC		; std::_Throw_bad_array_new_length, COMDAT

; 315  : [[noreturn]] inline void _Throw_bad_array_new_length() {

  00000	55		 push	 ebp
  00001	8b ec		 mov	 ebp, esp
  00003	83 ec 0c	 sub	 esp, 12			; 0000000cH

; 316  :     _THROW(bad_array_new_length{});

  00006	8d 4d f4	 lea	 ecx, DWORD PTR $T1[ebp]
  00009	e8 00 00 00 00	 call	 ??0bad_array_new_length@std@@QAE@XZ ; std::bad_array_new_length::bad_array_new_length
  0000e	68 00 00 00 00	 push	 OFFSET __TI3?AVbad_array_new_length@std@@
  00013	8d 45 f4	 lea	 eax, DWORD PTR $T1[ebp]
  00016	50		 push	 eax
  00017	e8 00 00 00 00	 call	 __CxxThrowException@8
$LN3@Throw_bad_:
  0001c	cc		 int	 3
?_Throw_bad_array_new_length@std@@YAXXZ ENDP		; std::_Throw_bad_array_new_length
_TEXT	ENDS
; Function compile flags: /Ogtp
; File C:\Program Files (x86)\Microsoft Visual Studio\2019\Community\VC\Tools\MSVC\14.29.30133\include\vcruntime_exception.h
;	COMDAT ??_Gbad_array_new_length@std@@UAEPAXI@Z
_TEXT	SEGMENT
___flags$ = 8						; size = 4
??_Gbad_array_new_length@std@@UAEPAXI@Z PROC		; std::bad_array_new_length::`scalar deleting destructor', COMDAT
; _this$ = ecx
  00000	55		 push	 ebp
  00001	8b ec		 mov	 ebp, esp

; 89   :     {

  00003	56		 push	 esi
  00004	8b f1		 mov	 esi, ecx

; 90   :         __std_exception_destroy(&_Data);

  00006	8d 46 04	 lea	 eax, DWORD PTR [esi+4]
  00009	c7 06 00 00 00
	00		 mov	 DWORD PTR [esi], OFFSET ??_7exception@std@@6B@
  0000f	50		 push	 eax
  00010	e8 00 00 00 00	 call	 ___std_exception_destroy
  00015	83 c4 04	 add	 esp, 4
  00018	f6 45 08 01	 test	 BYTE PTR ___flags$[ebp], 1
  0001c	74 0b		 je	 SHORT $LN12@scalar
  0001e	6a 0c		 push	 12			; 0000000cH
  00020	56		 push	 esi
  00021	e8 00 00 00 00	 call	 ??3@YAXPAXI@Z		; operator delete
  00026	83 c4 08	 add	 esp, 8
$LN12@scalar:
  00029	8b c6		 mov	 eax, esi
  0002b	5e		 pop	 esi
  0002c	5d		 pop	 ebp
  0002d	c2 04 00	 ret	 4
??_Gbad_array_new_length@std@@UAEPAXI@Z ENDP		; std::bad_array_new_length::`scalar deleting destructor'
_TEXT	ENDS
; Function compile flags: /Ogtp
; File C:\Program Files (x86)\Microsoft Visual Studio\2019\Community\VC\Tools\MSVC\14.29.30133\include\vcruntime_exception.h
;	COMDAT ??0bad_array_new_length@std@@QAE@ABV01@@Z
_TEXT	SEGMENT
___that$ = 8						; size = 4
??0bad_array_new_length@std@@QAE@ABV01@@Z PROC		; std::bad_array_new_length::bad_array_new_length, COMDAT
; _this$ = ecx
  00000	55		 push	 ebp
  00001	8b ec		 mov	 ebp, esp

; 72   :     {

  00003	56		 push	 esi
  00004	8b f1		 mov	 esi, ecx
  00006	0f 57 c0	 xorps	 xmm0, xmm0

; 71   :         : _Data()

  00009	8d 46 04	 lea	 eax, DWORD PTR [esi+4]

; 73   :         __std_exception_copy(&_Other._Data, &_Data);

  0000c	50		 push	 eax
  0000d	c7 06 00 00 00
	00		 mov	 DWORD PTR [esi], OFFSET ??_7exception@std@@6B@
  00013	66 0f d6 00	 movq	 QWORD PTR [eax], xmm0
  00017	8b 45 08	 mov	 eax, DWORD PTR ___that$[ebp]
  0001a	83 c0 04	 add	 eax, 4
  0001d	50		 push	 eax
  0001e	e8 00 00 00 00	 call	 ___std_exception_copy
  00023	83 c4 08	 add	 esp, 8
  00026	c7 06 00 00 00
	00		 mov	 DWORD PTR [esi], OFFSET ??_7bad_array_new_length@std@@6B@
  0002c	8b c6		 mov	 eax, esi
  0002e	5e		 pop	 esi
  0002f	5d		 pop	 ebp
  00030	c2 04 00	 ret	 4
??0bad_array_new_length@std@@QAE@ABV01@@Z ENDP		; std::bad_array_new_length::bad_array_new_length
_TEXT	ENDS
; Function compile flags: /Ogtp
; File C:\Program Files (x86)\Microsoft Visual Studio\2019\Community\VC\Tools\MSVC\14.29.30133\include\vcruntime_exception.h
;	COMDAT ??1bad_array_new_length@std@@UAE@XZ
_TEXT	SEGMENT
??1bad_array_new_length@std@@UAE@XZ PROC		; std::bad_array_new_length::~bad_array_new_length, COMDAT
; _this$ = ecx

; 90   :         __std_exception_destroy(&_Data);

  00000	8d 41 04	 lea	 eax, DWORD PTR [ecx+4]
  00003	c7 01 00 00 00
	00		 mov	 DWORD PTR [ecx], OFFSET ??_7exception@std@@6B@
  00009	50		 push	 eax
  0000a	e8 00 00 00 00	 call	 ___std_exception_destroy
  0000f	59		 pop	 ecx
  00010	c3		 ret	 0
??1bad_array_new_length@std@@UAE@XZ ENDP		; std::bad_array_new_length::~bad_array_new_length
_TEXT	ENDS
; Function compile flags: /Ogtp
; File C:\Program Files (x86)\Microsoft Visual Studio\2019\Community\VC\Tools\MSVC\14.29.30133\include\vcruntime_exception.h
;	COMDAT ??0bad_array_new_length@std@@QAE@XZ
_TEXT	SEGMENT
??0bad_array_new_length@std@@QAE@XZ PROC		; std::bad_array_new_length::bad_array_new_length, COMDAT
; _this$ = ecx

; 141  :     {

  00000	0f 57 c0	 xorps	 xmm0, xmm0

; 142  :     }

  00003	8b c1		 mov	 eax, ecx

; 65   :         : _Data()

  00005	66 0f d6 41 04	 movq	 QWORD PTR [ecx+4], xmm0

; 66   :     {
; 67   :         _Data._What = _Message;

  0000a	c7 41 04 00 00
	00 00		 mov	 DWORD PTR [ecx+4], OFFSET ??_C@_0BF@KINCDENJ@bad?5array?5new?5length@

; 141  :     {

  00011	c7 01 00 00 00
	00		 mov	 DWORD PTR [ecx], OFFSET ??_7bad_array_new_length@std@@6B@

; 142  :     }

  00017	c3		 ret	 0
??0bad_array_new_length@std@@QAE@XZ ENDP		; std::bad_array_new_length::bad_array_new_length
_TEXT	ENDS
; Function compile flags: /Ogtp
; File C:\Program Files (x86)\Microsoft Visual Studio\2019\Community\VC\Tools\MSVC\14.29.30133\include\vcruntime_exception.h
;	COMDAT ??_Gbad_alloc@std@@UAEPAXI@Z
_TEXT	SEGMENT
___flags$ = 8						; size = 4
??_Gbad_alloc@std@@UAEPAXI@Z PROC			; std::bad_alloc::`scalar deleting destructor', COMDAT
; _this$ = ecx
  00000	55		 push	 ebp
  00001	8b ec		 mov	 ebp, esp

; 89   :     {

  00003	56		 push	 esi
  00004	8b f1		 mov	 esi, ecx

; 90   :         __std_exception_destroy(&_Data);

  00006	8d 46 04	 lea	 eax, DWORD PTR [esi+4]
  00009	c7 06 00 00 00
	00		 mov	 DWORD PTR [esi], OFFSET ??_7exception@std@@6B@
  0000f	50		 push	 eax
  00010	e8 00 00 00 00	 call	 ___std_exception_destroy
  00015	83 c4 04	 add	 esp, 4
  00018	f6 45 08 01	 test	 BYTE PTR ___flags$[ebp], 1
  0001c	74 0b		 je	 SHORT $LN9@scalar
  0001e	6a 0c		 push	 12			; 0000000cH
  00020	56		 push	 esi
  00021	e8 00 00 00 00	 call	 ??3@YAXPAXI@Z		; operator delete
  00026	83 c4 08	 add	 esp, 8
$LN9@scalar:
  00029	8b c6		 mov	 eax, esi
  0002b	5e		 pop	 esi
  0002c	5d		 pop	 ebp
  0002d	c2 04 00	 ret	 4
??_Gbad_alloc@std@@UAEPAXI@Z ENDP			; std::bad_alloc::`scalar deleting destructor'
_TEXT	ENDS
; Function compile flags: /Ogtp
; File C:\Program Files (x86)\Microsoft Visual Studio\2019\Community\VC\Tools\MSVC\14.29.30133\include\vcruntime_exception.h
;	COMDAT ??0bad_alloc@std@@QAE@ABV01@@Z
_TEXT	SEGMENT
___that$ = 8						; size = 4
??0bad_alloc@std@@QAE@ABV01@@Z PROC			; std::bad_alloc::bad_alloc, COMDAT
; _this$ = ecx
  00000	55		 push	 ebp
  00001	8b ec		 mov	 ebp, esp

; 72   :     {

  00003	56		 push	 esi
  00004	8b f1		 mov	 esi, ecx
  00006	0f 57 c0	 xorps	 xmm0, xmm0

; 71   :         : _Data()

  00009	8d 46 04	 lea	 eax, DWORD PTR [esi+4]

; 73   :         __std_exception_copy(&_Other._Data, &_Data);

  0000c	50		 push	 eax
  0000d	c7 06 00 00 00
	00		 mov	 DWORD PTR [esi], OFFSET ??_7exception@std@@6B@
  00013	66 0f d6 00	 movq	 QWORD PTR [eax], xmm0
  00017	8b 45 08	 mov	 eax, DWORD PTR ___that$[ebp]
  0001a	83 c0 04	 add	 eax, 4
  0001d	50		 push	 eax
  0001e	e8 00 00 00 00	 call	 ___std_exception_copy
  00023	83 c4 08	 add	 esp, 8
  00026	c7 06 00 00 00
	00		 mov	 DWORD PTR [esi], OFFSET ??_7bad_alloc@std@@6B@
  0002c	8b c6		 mov	 eax, esi
  0002e	5e		 pop	 esi
  0002f	5d		 pop	 ebp
  00030	c2 04 00	 ret	 4
??0bad_alloc@std@@QAE@ABV01@@Z ENDP			; std::bad_alloc::bad_alloc
_TEXT	ENDS
; Function compile flags: /Ogtp
; File C:\Program Files (x86)\Microsoft Visual Studio\2019\Community\VC\Tools\MSVC\14.29.30133\include\vcruntime_exception.h
;	COMDAT ??_Gexception@std@@UAEPAXI@Z
_TEXT	SEGMENT
___flags$ = 8						; size = 4
??_Gexception@std@@UAEPAXI@Z PROC			; std::exception::`scalar deleting destructor', COMDAT
; _this$ = ecx
  00000	55		 push	 ebp
  00001	8b ec		 mov	 ebp, esp

; 89   :     {

  00003	56		 push	 esi
  00004	8b f1		 mov	 esi, ecx

; 90   :         __std_exception_destroy(&_Data);

  00006	8d 46 04	 lea	 eax, DWORD PTR [esi+4]
  00009	c7 06 00 00 00
	00		 mov	 DWORD PTR [esi], OFFSET ??_7exception@std@@6B@
  0000f	50		 push	 eax
  00010	e8 00 00 00 00	 call	 ___std_exception_destroy
  00015	83 c4 04	 add	 esp, 4
  00018	f6 45 08 01	 test	 BYTE PTR ___flags$[ebp], 1
  0001c	74 0b		 je	 SHORT $LN6@scalar
  0001e	6a 0c		 push	 12			; 0000000cH
  00020	56		 push	 esi
  00021	e8 00 00 00 00	 call	 ??3@YAXPAXI@Z		; operator delete
  00026	83 c4 08	 add	 esp, 8
$LN6@scalar:
  00029	8b c6		 mov	 eax, esi
  0002b	5e		 pop	 esi
  0002c	5d		 pop	 ebp
  0002d	c2 04 00	 ret	 4
??_Gexception@std@@UAEPAXI@Z ENDP			; std::exception::`scalar deleting destructor'
_TEXT	ENDS
; Function compile flags: /Ogtp
; File C:\Program Files (x86)\Microsoft Visual Studio\2019\Community\VC\Tools\MSVC\14.29.30133\include\vcruntime_exception.h
;	COMDAT ?what@exception@std@@UBEPBDXZ
_TEXT	SEGMENT
?what@exception@std@@UBEPBDXZ PROC			; std::exception::what, COMDAT
; _this$ = ecx

; 95   :         return _Data._What ? _Data._What : "Unknown exception";

  00000	8b 49 04	 mov	 ecx, DWORD PTR [ecx+4]
  00003	b8 00 00 00 00	 mov	 eax, OFFSET ??_C@_0BC@EOODALEL@Unknown?5exception@
  00008	85 c9		 test	 ecx, ecx
  0000a	0f 45 c1	 cmovne	 eax, ecx

; 96   :     }

  0000d	c3		 ret	 0
?what@exception@std@@UBEPBDXZ ENDP			; std::exception::what
_TEXT	ENDS
; Function compile flags: /Ogtp
; File C:\Program Files (x86)\Microsoft Visual Studio\2019\Community\VC\Tools\MSVC\14.29.30133\include\vcruntime_exception.h
;	COMDAT ??1exception@std@@UAE@XZ
_TEXT	SEGMENT
??1exception@std@@UAE@XZ PROC				; std::exception::~exception, COMDAT
; _this$ = ecx

; 90   :         __std_exception_destroy(&_Data);

  00000	8d 41 04	 lea	 eax, DWORD PTR [ecx+4]
  00003	c7 01 00 00 00
	00		 mov	 DWORD PTR [ecx], OFFSET ??_7exception@std@@6B@
  00009	50		 push	 eax
  0000a	e8 00 00 00 00	 call	 ___std_exception_destroy
  0000f	59		 pop	 ecx

; 91   :     }

  00010	c3		 ret	 0
??1exception@std@@UAE@XZ ENDP				; std::exception::~exception
_TEXT	ENDS
; Function compile flags: /Ogtp
; File C:\Program Files (x86)\Microsoft Visual Studio\2019\Community\VC\Tools\MSVC\14.29.30133\include\vcruntime_exception.h
;	COMDAT ??0exception@std@@QAE@ABV01@@Z
_TEXT	SEGMENT
__Other$ = 8						; size = 4
??0exception@std@@QAE@ABV01@@Z PROC			; std::exception::exception, COMDAT
; _this$ = ecx

; 72   :     {

  00000	55		 push	 ebp
  00001	8b ec		 mov	 ebp, esp
  00003	56		 push	 esi
  00004	8b f1		 mov	 esi, ecx
  00006	0f 57 c0	 xorps	 xmm0, xmm0
  00009	8d 46 04	 lea	 eax, DWORD PTR [esi+4]

; 73   :         __std_exception_copy(&_Other._Data, &_Data);

  0000c	50		 push	 eax
  0000d	c7 06 00 00 00
	00		 mov	 DWORD PTR [esi], OFFSET ??_7exception@std@@6B@
  00013	66 0f d6 00	 movq	 QWORD PTR [eax], xmm0
  00017	8b 45 08	 mov	 eax, DWORD PTR __Other$[ebp]
  0001a	83 c0 04	 add	 eax, 4
  0001d	50		 push	 eax
  0001e	e8 00 00 00 00	 call	 ___std_exception_copy
  00023	83 c4 08	 add	 esp, 8

; 74   :     }

  00026	8b c6		 mov	 eax, esi
  00028	5e		 pop	 esi
  00029	5d		 pop	 ebp
  0002a	c2 04 00	 ret	 4
??0exception@std@@QAE@ABV01@@Z ENDP			; std::exception::exception
_TEXT	ENDS
; Function compile flags: /Ogtp
; File D:\git\src\IBK\IBK_DRFN\ProjSrc\SrcChartEx\ChartOCX\Include_Chart\DataBlockList.cpp
;	COMDAT ?__empty_global_delete@@YAXPAXI@Z
_TEXT	SEGMENT
___formal$ = 8						; size = 4
___formal$ = 12						; size = 4
?__empty_global_delete@@YAXPAXI@Z PROC			; __empty_global_delete, COMDAT

  00000	c2 00 00	 ret	 0
?__empty_global_delete@@YAXPAXI@Z ENDP			; __empty_global_delete
_TEXT	ENDS
; Function compile flags: /Ogtp
; File D:\git\src\IBK\IBK_DRFN\ProjSrc\SrcChartEx\ChartOCX\Include_Chart\DataBlockList.cpp
;	COMDAT ?__empty_global_delete@@YAXPAX@Z
_TEXT	SEGMENT
___formal$ = 8						; size = 4
?__empty_global_delete@@YAXPAX@Z PROC			; __empty_global_delete, COMDAT

  00000	c2 00 00	 ret	 0
?__empty_global_delete@@YAXPAX@Z ENDP			; __empty_global_delete
_TEXT	ENDS
END
