; Listing generated by Microsoft (R) Optimizing Compiler Version 19.29.30145.0 

	TITLE	D:\git\src\IBK\IBK_DRFN\#DRfn-CS\_Obj\GraphDraw\Draw.obj
	.686P
	.XMM
	include listing.inc
	.model	flat

INCLUDELIB MSVCRT
INCLUDELIB OLDNAMES

PUBLIC	??_H@YGXPAXIIP6EPAX0@Z@Z			; `vector constructor iterator'
PUBLIC	?__empty_global_delete@@YAXPAX@Z		; __empty_global_delete
PUBLIC	?__empty_global_delete@@YAXPAXI@Z		; __empty_global_delete
PUBLIC	??1CObject@@UAE@XZ				; CObject::~CObject
PUBLIC	?Serialize@CObject@@UAEXAAVCArchive@@@Z		; CObject::Serialize
PUBLIC	?AssertValid@CObject@@UBEXXZ			; CObject::AssertValid
PUBLIC	?Dump@CObject@@UBEXAAVCDumpContext@@@Z		; CObject::Dump
PUBLIC	??0CPoint@@QAE@XZ				; CPoint::CPoint
PUBLIC	??1CGdiObject@@UAE@XZ				; CGdiObject::~CGdiObject
PUBLIC	??_GCGdiObject@@UAEPAXI@Z			; CGdiObject::`scalar deleting destructor'
PUBLIC	??1CPen@@UAE@XZ					; CPen::~CPen
PUBLIC	??_GCPen@@UAEPAXI@Z				; CPen::`scalar deleting destructor'
PUBLIC	??1CBrush@@UAE@XZ				; CBrush::~CBrush
PUBLIC	??_GCBrush@@UAEPAXI@Z				; CBrush::`scalar deleting destructor'
PUBLIC	??1CBitmap@@UAE@XZ				; CBitmap::~CBitmap
PUBLIC	??_GCBitmap@@UAEPAXI@Z				; CBitmap::`scalar deleting destructor'
PUBLIC	??1CRgn@@UAE@XZ					; CRgn::~CRgn
PUBLIC	??_GCRgn@@UAEPAXI@Z				; CRgn::`scalar deleting destructor'
PUBLIC	?GetTextExtent@CDC@@QBE?AVCSize@@ABV?$CStringT@DV?$StrTraitMFC_DLL@DV?$ChTraitsCRT@D@ATL@@@@@ATL@@@Z ; CDC::GetTextExtent
PUBLIC	??0CDraw@@QAE@XZ				; CDraw::CDraw
PUBLIC	??1CDraw@@UAE@XZ				; CDraw::~CDraw
PUBLIC	?DrawGraph@CDraw@@UAE_NPAVCDC@@ABVCRect@@ABVCDisplayAttributes@@ABVCDrawingGraphData@@ABVCSubGraphData@@@Z ; CDraw::DrawGraph
PUBLIC	?DrawGraph@CDraw@@UAE_NPAVCDC@@ABVCRect@@ABVCDisplayAttributes@@ABVCDrawingGraphData@@ABVCSubGraphData@@ABV?$CStringT@DV?$StrTraitMFC_DLL@DV?$ChTraitsCRT@D@ATL@@@@@ATL@@PAVCXScaleManager@@@Z ; CDraw::DrawGraph
PUBLIC	?DrawLine@CDraw@@IAEXPAVCDC@@UtagPOINT@@1@Z	; CDraw::DrawLine
PUBLIC	?DrawLine@CDraw@@IAEXPAVCDC@@UtagPOINT@@JJ@Z	; CDraw::DrawLine
PUBLIC	?DrawLine@CDraw@@IAEXPAVCDC@@PAVCPen@@ABVCPoint@@2@Z ; CDraw::DrawLine
PUBLIC	?DrawLine@CDraw@@IAEXPAVCDC@@ABVCPoint@@1KH@Z	; CDraw::DrawLine
PUBLIC	?DrawRectangle@CDraw@@IAEXPAVCDC@@VCRect@@@Z	; CDraw::DrawRectangle
PUBLIC	?DrawRectangle@CDraw@@IAEXPAVCDC@@VCRect@@ABKHH_N@Z ; CDraw::DrawRectangle
PUBLIC	?DrawPolyLine@CDraw@@IAEXPAVCDC@@PAUtagPOINT@@HH@Z ; CDraw::DrawPolyLine
PUBLIC	?DrawArrow@CDraw@@IAEXPAVCDC@@VCPoint@@HHUtagSIZE@@KHH@Z ; CDraw::DrawArrow
PUBLIC	?DrawArrow@CDraw@@IAEXPAVCDC@@VCPoint@@HHUtagSIZE@@HH@Z ; CDraw::DrawArrow
PUBLIC	?DrawArrow@CDraw@@IAEXPAVCDC@@VCPoint@@H@Z	; CDraw::DrawArrow
PUBLIC	?DrawTriangle@CDraw@@IAEXPAVCDC@@VCPoint@@K@Z	; CDraw::DrawTriangle
PUBLIC	?TextOutA@CDraw@@IAEXPAVCDC@@VCRect@@ABV?$CStringT@DV?$StrTraitMFC_DLL@DV?$ChTraitsCRT@D@ATL@@@@@ATL@@_N33@Z ; CDraw::TextOutA
PUBLIC	?TextOutA@CDraw@@IAEXPAVCDC@@ABVCPoint@@ABV?$CStringT@DV?$StrTraitMFC_DLL@DV?$ChTraitsCRT@D@ATL@@@@@ATL@@ABKH@Z ; CDraw::TextOutA
PUBLIC	?TextOut_MultiLine@CDraw@@IAEXPAVCDC@@ABVCPoint@@HABV?$CList@V?$CStringT@DV?$StrTraitMFC_DLL@DV?$ChTraitsCRT@D@ATL@@@@@ATL@@V12@@@ABKH@Z ; CDraw::TextOut_MultiLine
PUBLIC	?CalUpLineThickness@CDraw@@IAEHABVCPenThickness@@H@Z ; CDraw::CalUpLineThickness
PUBLIC	?CalDownLineThickness@CDraw@@IAEHABVCPenThickness@@H@Z ; CDraw::CalDownLineThickness
PUBLIC	?CalStationaryLineThickness@CDraw@@IAEHABVCPenThickness@@H@Z ; CDraw::CalStationaryLineThickness
PUBLIC	?CalRealWidth@CDraw@@IAENABVCRect@@ABVCDisplayAttributes@@@Z ; CDraw::CalRealWidth
PUBLIC	?CalRealWidth@CDraw@@IAENABVCRect@@HH@Z		; CDraw::CalRealWidth
PUBLIC	?CalInclination@CDraw@@IAENVCPoint@@0@Z		; CDraw::CalInclination
PUBLIC	?CalLogValue@CDraw@@IAEN_NN@Z			; CDraw::CalLogValue
PUBLIC	?DrawSemiTransparentBitmap@CDraw@@IAEXPAVCDC@@PAVCPoint@@K@Z ; CDraw::DrawSemiTransparentBitmap
PUBLIC	?InsertFourPointToArray@CDraw@@IAEXPAVCPoint@@V2@111@Z ; CDraw::InsertFourPointToArray
PUBLIC	?InsertThreePointToArray@CDraw@@IAEXPAVCPoint@@V2@11@Z ; CDraw::InsertThreePointToArray
PUBLIC	?CreatePen@CDraw@@IAEXAAVCPen@@ABVCGraphDrawStyle@@HK@Z ; CDraw::CreatePen
PUBLIC	?CreatePen@CDraw@@IAEXAAVCPen@@ABVCGraphBaseLineStyle@@HK@Z ; CDraw::CreatePen
PUBLIC	?FindPosition@CDraw@@IAEPAU__POSITION@@HAAV?$CList@HH@@@Z ; CDraw::FindPosition
PUBLIC	?DrawBaseLineAndTexts@CDraw@@IAEHABVCRect@@PAVCPacket@@ABN222_N3@Z ; CDraw::DrawBaseLineAndTexts
PUBLIC	?DrawBaseLineAndTexts@CDraw@@IAEHPAVCDC@@ABVCRect@@ABVCGraphColor@@PAVCPacket@@ABN444_N5H5@Z ; CDraw::DrawBaseLineAndTexts
PUBLIC	?GetPriceMinMaxTime@CDraw@@IAEXAAV?$CStringT@DV?$StrTraitMFC_DLL@DV?$ChTraitsCRT@D@ATL@@@@@ATL@@PAVCPacket@@H@Z ; CDraw::GetPriceMinMaxTime
PUBLIC	?DrawPriceMaxText@CDraw@@IAEXPAVCDC@@ABVCRect@@ABVCGraphColor@@ABV?$CStringT@DV?$StrTraitMFC_DLL@DV?$ChTraitsCRT@D@ATL@@@@@ATL@@HHAB_N@Z ; CDraw::DrawPriceMaxText
PUBLIC	?DrawPriceMinText@CDraw@@IAEXPAVCDC@@ABVCRect@@ABVCGraphColor@@ABV?$CStringT@DV?$StrTraitMFC_DLL@DV?$ChTraitsCRT@D@ATL@@@@@ATL@@HHAB_N@Z ; CDraw::DrawPriceMinText
PUBLIC	?CalcMidPoint@CDraw@@IAE?BHABHABVCPoint@@1@Z	; CDraw::CalcMidPoint
PUBLIC	?GetThickness@CDraw@@IBEHHABN@Z			; CDraw::GetThickness
PUBLIC	?DrawElement_DrawPolygon@CDraw@@IAEXPAVCDC@@ABH1PAUtagPOINT@@PBKPAH1ABK11ABW4LINEDRAWSTYLE@CGraphBaseData@@@Z ; CDraw::DrawElement_DrawPolygon
PUBLIC	??_GCDraw@@UAEPAXI@Z				; CDraw::`scalar deleting destructor'
PUBLIC	??4CGraphDrawer@@QAEAAV0@ABV0@@Z		; CGraphDrawer::operator=
PUBLIC	??4CGraphDrawer@@QAEAAV0@$$QAV0@@Z		; CGraphDrawer::operator=
PUBLIC	?FindIndex@?$CList@NN@@QBEPAU__POSITION@@H@Z	; CList<double,double>::FindIndex
PUBLIC	??_R0PAVCException@@@8				; CException * `RTTI Type Descriptor'
PUBLIC	??_C@_00CNPNBAHC@@				; `string'
PUBLIC	??_7CGdiObject@@6B@				; CGdiObject::`vftable'
PUBLIC	??_7CPen@@6B@					; CPen::`vftable'
PUBLIC	??_7CBrush@@6B@					; CBrush::`vftable'
PUBLIC	??_7CBitmap@@6B@				; CBitmap::`vftable'
PUBLIC	??_7CRgn@@6B@					; CRgn::`vftable'
PUBLIC	??_C@_0HD@JJCHHHNK@C?3?2Program?5Files?5?$CIx86?$CJ?2Microsof@ ; `string'
PUBLIC	??_C@_0BP@OIEOKIDM@Exception?5thrown?5in?5destructor@ ; `string'
PUBLIC	??_C@_0BB@HBOOMJBF@?$CFTs?5?$CI?$CFTs?3?$CFd?$CJ?6?$CFTs@ ; `string'
PUBLIC	??_C@_0N@OMEMOKLE@?$CFTs?5?$CI?$CFTs?3?$CFd?$CJ@ ; `string'
PUBLIC	??_R0?AVCObject@@@8				; CObject `RTTI Type Descriptor'
PUBLIC	??_R3CObject@@8					; CObject::`RTTI Class Hierarchy Descriptor'
PUBLIC	??_R2CObject@@8					; CObject::`RTTI Base Class Array'
PUBLIC	??_R1A@?0A@EA@CObject@@8			; CObject::`RTTI Base Class Descriptor at (0,-1,0,64)'
PUBLIC	??_R4CGdiObject@@6B@				; CGdiObject::`RTTI Complete Object Locator'
PUBLIC	??_R0?AVCGdiObject@@@8				; CGdiObject `RTTI Type Descriptor'
PUBLIC	??_R3CGdiObject@@8				; CGdiObject::`RTTI Class Hierarchy Descriptor'
PUBLIC	??_R2CGdiObject@@8				; CGdiObject::`RTTI Base Class Array'
PUBLIC	??_R1A@?0A@EA@CGdiObject@@8			; CGdiObject::`RTTI Base Class Descriptor at (0,-1,0,64)'
PUBLIC	??_R4CPen@@6B@					; CPen::`RTTI Complete Object Locator'
PUBLIC	??_R0?AVCPen@@@8				; CPen `RTTI Type Descriptor'
PUBLIC	??_R3CPen@@8					; CPen::`RTTI Class Hierarchy Descriptor'
PUBLIC	??_R2CPen@@8					; CPen::`RTTI Base Class Array'
PUBLIC	??_R1A@?0A@EA@CPen@@8				; CPen::`RTTI Base Class Descriptor at (0,-1,0,64)'
PUBLIC	??_R4CBrush@@6B@				; CBrush::`RTTI Complete Object Locator'
PUBLIC	??_R0?AVCBrush@@@8				; CBrush `RTTI Type Descriptor'
PUBLIC	??_R3CBrush@@8					; CBrush::`RTTI Class Hierarchy Descriptor'
PUBLIC	??_R2CBrush@@8					; CBrush::`RTTI Base Class Array'
PUBLIC	??_R1A@?0A@EA@CBrush@@8				; CBrush::`RTTI Base Class Descriptor at (0,-1,0,64)'
PUBLIC	??_R4CBitmap@@6B@				; CBitmap::`RTTI Complete Object Locator'
PUBLIC	??_R0?AVCBitmap@@@8				; CBitmap `RTTI Type Descriptor'
PUBLIC	??_R3CBitmap@@8					; CBitmap::`RTTI Class Hierarchy Descriptor'
PUBLIC	??_R2CBitmap@@8					; CBitmap::`RTTI Base Class Array'
PUBLIC	??_R1A@?0A@EA@CBitmap@@8			; CBitmap::`RTTI Base Class Descriptor at (0,-1,0,64)'
PUBLIC	??_R4CRgn@@6B@					; CRgn::`RTTI Complete Object Locator'
PUBLIC	??_R0?AVCRgn@@@8				; CRgn `RTTI Type Descriptor'
PUBLIC	??_R3CRgn@@8					; CRgn::`RTTI Class Hierarchy Descriptor'
PUBLIC	??_R2CRgn@@8					; CRgn::`RTTI Base Class Array'
PUBLIC	??_R1A@?0A@EA@CRgn@@8				; CRgn::`RTTI Base Class Descriptor at (0,-1,0,64)'
PUBLIC	??_7CDraw@@6B@					; CDraw::`vftable'
PUBLIC	??_C@_01GBGANLPD@0@				; `string'
PUBLIC	??_C@_02NJPGOMH@?$CFf@				; `string'
PUBLIC	??_C@_0P@IMPIBBAB@YYYYMMDDHHMMSS@		; `string'
PUBLIC	??_C@_01PKGAHCOL@?$CJ@				; `string'
PUBLIC	??_C@_02GFKOMOKH@?5?$CI@			; `string'
PUBLIC	??_R4CDraw@@6B@					; CDraw::`RTTI Complete Object Locator'
PUBLIC	??_R0?AVCDraw@@@8				; CDraw `RTTI Type Descriptor'
PUBLIC	??_R3CDraw@@8					; CDraw::`RTTI Class Hierarchy Descriptor'
PUBLIC	??_R2CDraw@@8					; CDraw::`RTTI Base Class Array'
PUBLIC	??_R1A@?0A@EA@CDraw@@8				; CDraw::`RTTI Base Class Descriptor at (0,-1,0,64)'
PUBLIC	__real@0000000000000000
PUBLIC	__real@400921fb54442d18
PUBLIC	__real@4020000000000000
PUBLIC	__real@4059000000000000
PUBLIC	__real@40c3880000000000
PUBLIC	__real@fff0000000000000
EXTRN	??3@YAXPAX@Z:PROC				; operator delete
EXTRN	??3@YAXPAXI@Z:PROC				; operator delete
EXTRN	?__global_delete@@YAXPAXI@Z:PROC		; __global_delete
EXTRN	__imp__BitBlt@36:PROC
EXTRN	__imp__CreateCompatibleBitmap@12:PROC
EXTRN	__imp__CreateCompatibleDC@4:PROC
EXTRN	__imp__CreatePen@12:PROC
EXTRN	__imp__CreateSolidBrush@4:PROC
EXTRN	__imp__GetRgnBox@8:PROC
EXTRN	__imp__GetStockObject@4:PROC
EXTRN	__imp__GetTextColor@4:PROC
EXTRN	__imp__GetTextExtentPoint32A@16:PROC
EXTRN	__imp__OffsetRgn@12:PROC
EXTRN	__imp__PaintRgn@8:PROC
EXTRN	__imp__PolyPolygon@16:PROC
EXTRN	__imp__Rectangle@20:PROC
EXTRN	__imp__SelectObject@8:PROC
EXTRN	__imp__PolyPolyline@16:PROC
EXTRN	__imp__ExtCreatePen@20:PROC
EXTRN	__imp__CreatePolygonRgn@12:PROC
EXTRN	__imp__Polygon@12:PROC
EXTRN	__imp__Polyline@12:PROC
EXTRN	__imp__InflateRect@12:PROC
EXTRN	__imp_?Empty@?$CSimpleStringT@D$00@ATL@@QAEXXZ:PROC
EXTRN	__imp_?Concatenate@?$CSimpleStringT@D$00@ATL@@KAXAAV12@PBDH1H@Z:PROC
EXTRN	__imp_??0?$CStringT@DV?$StrTraitMFC_DLL@DV?$ChTraitsCRT@D@ATL@@@@@ATL@@QAE@XZ:PROC
EXTRN	__imp_??0?$CStringT@DV?$StrTraitMFC_DLL@DV?$ChTraitsCRT@D@ATL@@@@@ATL@@QAE@PAUIAtlStringMgr@1@@Z:PROC
EXTRN	__imp_??0?$CStringT@DV?$StrTraitMFC_DLL@DV?$ChTraitsCRT@D@ATL@@@@@ATL@@QAE@ABV01@@Z:PROC
EXTRN	__imp_??0?$CStringT@DV?$StrTraitMFC_DLL@DV?$ChTraitsCRT@D@ATL@@@@@ATL@@QAE@PBD@Z:PROC
EXTRN	__imp_??1?$CStringT@DV?$StrTraitMFC_DLL@DV?$ChTraitsCRT@D@ATL@@@@@ATL@@QAE@XZ:PROC
EXTRN	__imp_??4?$CStringT@DV?$StrTraitMFC_DLL@DV?$ChTraitsCRT@D@ATL@@@@@ATL@@QAEAAV01@ABV01@@Z:PROC
EXTRN	__imp_??4?$CStringT@DV?$StrTraitMFC_DLL@DV?$ChTraitsCRT@D@ATL@@@@@ATL@@QAEAAV01@PBD@Z:PROC
EXTRN	__imp_?GetManager@?$CStringT@DV?$StrTraitMFC_DLL@DV?$ChTraitsCRT@D@ATL@@@@@ATL@@QBEPAUIAtlStringMgr@2@XZ:PROC
EXTRN	__imp_?Compare@?$CStringT@DV?$StrTraitMFC_DLL@DV?$ChTraitsCRT@D@ATL@@@@@ATL@@QBEHPBD@Z:PROC
EXTRN	__imp_?Find@?$CStringT@DV?$StrTraitMFC_DLL@DV?$ChTraitsCRT@D@ATL@@@@@ATL@@QBEHDH@Z:PROC
EXTRN	__imp_?Left@?$CStringT@DV?$StrTraitMFC_DLL@DV?$ChTraitsCRT@D@ATL@@@@@ATL@@QBE?AV12@H@Z:PROC
EXTRN	__imp_?Format@?$CStringT@DV?$StrTraitMFC_DLL@DV?$ChTraitsCRT@D@ATL@@@@@ATL@@QAAXPBDZZ:PROC
EXTRN	?GetRuntimeClass@CGdiObject@@UBEPAUCRuntimeClass@@XZ:PROC ; CGdiObject::GetRuntimeClass
EXTRN	?Attach@CGdiObject@@QAEHPAX@Z:PROC		; CGdiObject::Attach
EXTRN	?DeleteObject@CGdiObject@@QAEHXZ:PROC		; CGdiObject::DeleteObject
EXTRN	??_ECGdiObject@@UAEPAXI@Z:PROC			; CGdiObject::`vector deleting destructor'
EXTRN	?GetRuntimeClass@CPen@@UBEPAUCRuntimeClass@@XZ:PROC ; CPen::GetRuntimeClass
EXTRN	??0CPen@@QAE@HHK@Z:PROC				; CPen::CPen
EXTRN	??_ECPen@@UAEPAXI@Z:PROC			; CPen::`vector deleting destructor'
EXTRN	?GetRuntimeClass@CBrush@@UBEPAUCRuntimeClass@@XZ:PROC ; CBrush::GetRuntimeClass
EXTRN	??0CBrush@@QAE@K@Z:PROC				; CBrush::CBrush
EXTRN	??_ECBrush@@UAEPAXI@Z:PROC			; CBrush::`vector deleting destructor'
EXTRN	?GetRuntimeClass@CBitmap@@UBEPAUCRuntimeClass@@XZ:PROC ; CBitmap::GetRuntimeClass
EXTRN	??_ECBitmap@@UAEPAXI@Z:PROC			; CBitmap::`vector deleting destructor'
EXTRN	?GetRuntimeClass@CRgn@@UBEPAUCRuntimeClass@@XZ:PROC ; CRgn::GetRuntimeClass
EXTRN	??_ECRgn@@UAEPAXI@Z:PROC			; CRgn::`vector deleting destructor'
EXTRN	?Attach@CDC@@QAEHPAUHDC__@@@Z:PROC		; CDC::Attach
EXTRN	??0CDC@@QAE@XZ:PROC				; CDC::CDC
EXTRN	?DeleteDC@CDC@@QAEHXZ:PROC			; CDC::DeleteDC
EXTRN	?SelectObject@CDC@@QAEPAVCPen@@PAV2@@Z:PROC	; CDC::SelectObject
EXTRN	?SelectObject@CDC@@QAEPAVCBrush@@PAV2@@Z:PROC	; CDC::SelectObject
EXTRN	?SetBkMode@CDC@@QAEHH@Z:PROC			; CDC::SetBkMode
EXTRN	?MoveTo@CDC@@QAE?AVCPoint@@HH@Z:PROC		; CDC::MoveTo
EXTRN	?LineTo@CDC@@QAEHHH@Z:PROC			; CDC::LineTo
EXTRN	?FillSolidRect@CDC@@QAEXPBUtagRECT@@K@Z:PROC	; CDC::FillSolidRect
EXTRN	??1CDC@@UAE@XZ:PROC				; CDC::~CDC
EXTRN	?SelectGdiObject@CDC@@KGPAVCGdiObject@@PAUHDC__@@PAX@Z:PROC ; CDC::SelectGdiObject
EXTRN	?AfxMessageBox@@YGHPBDII@Z:PROC			; AfxMessageBox
EXTRN	??_ECDraw@@UAEPAXI@Z:PROC			; CDraw::`vector deleting destructor'
EXTRN	?Round@CMath@@SAHN@Z:PROC			; CMath::Round
EXTRN	?Log@CMath@@SANABN@Z:PROC			; CMath::Log
EXTRN	?DoubleToString@CDataConversion@@SA?AV?$CStringT@DV?$StrTraitMFC_DLL@DV?$ChTraitsCRT@D@ATL@@@@@ATL@@ABN@Z:PROC ; CDataConversion::DoubleToString
EXTRN	?GetStringFormatTrans@CDataConversion@@QAE?AV?$CStringT@DV?$StrTraitMFC_DLL@DV?$ChTraitsCRT@D@ATL@@@@@ATL@@ABV23@0@Z:PROC ; CDataConversion::GetStringFormatTrans
EXTRN	?GetStringFormatTrans2@CDataConversion@@QAE?AV?$CStringT@DV?$StrTraitMFC_DLL@DV?$ChTraitsCRT@D@ATL@@@@@ATL@@ABV23@ABH@Z:PROC ; CDataConversion::GetStringFormatTrans2
EXTRN	?InvertGraphDataPt@CDataConversion@@SAHABVCRect@@H@Z:PROC ; CDataConversion::InvertGraphDataPt
EXTRN	?GetChangingPosition@CDataConversion@@SAHHHABN00@Z:PROC ; CDataConversion::GetChangingPosition
EXTRN	__imp_?GetColor1@CGraphColor@@QBEKXZ:PROC
EXTRN	__imp_?GetColor3@CGraphColor@@QBEKXZ:PROC
EXTRN	__imp_?GetColor6@CGraphColor@@QBEKXZ:PROC
EXTRN	__imp_?GetDrawingThickness1@CPenThickness@@QBEHXZ:PROC
EXTRN	__imp_?GetDrawingThickness2@CPenThickness@@QBEHXZ:PROC
EXTRN	__imp_?GetDrawingThickness3@CPenThickness@@QBEHXZ:PROC
EXTRN	?GetDataCountInBlock@CDisplayAttributes@@QBEHXZ:PROC ; CDisplayAttributes::GetDataCountInBlock
EXTRN	__imp_?GetDatePacket@CPacket@@QAEPAV1@XZ:PROC
EXTRN	__imp_?GetDateUnitType@CPacket@@QAEHXZ:PROC
EXTRN	__imp_?GetStandardValue@CPacket@@QAENH@Z:PROC
EXTRN	__imp_?GetType@CPacket@@QAE?AV?$CStringT@DV?$StrTraitMFC_DLL@DV?$ChTraitsCRT@D@ATL@@@@@ATL@@_N@Z:PROC
EXTRN	__imp_?GetnumericDataList@CPacket@@QAEPAV?$CList@NN@@XZ:PROC
EXTRN	@__security_check_cookie@4:PROC
EXTRN	___CxxFrameHandler3:PROC
EXTRN	??_7type_info@@6B@:QWORD			; type_info::`vftable'
EXTRN	___security_cookie:DWORD
EXTRN	__fltused:DWORD
;	COMDAT __real@fff0000000000000
CONST	SEGMENT
__real@fff0000000000000 DQ 0fff0000000000000r	; -inf
CONST	ENDS
;	COMDAT __real@40c3880000000000
CONST	SEGMENT
__real@40c3880000000000 DQ 040c3880000000000r	; 10000
CONST	ENDS
;	COMDAT __real@4059000000000000
CONST	SEGMENT
__real@4059000000000000 DQ 04059000000000000r	; 100
CONST	ENDS
;	COMDAT __real@4020000000000000
CONST	SEGMENT
__real@4020000000000000 DQ 04020000000000000r	; 8
CONST	ENDS
;	COMDAT __real@400921fb54442d18
CONST	SEGMENT
__real@400921fb54442d18 DQ 0400921fb54442d18r	; 3.14159
CONST	ENDS
;	COMDAT __real@0000000000000000
CONST	SEGMENT
__real@0000000000000000 DQ 00000000000000000r	; 0
CONST	ENDS
;	COMDAT ??_R1A@?0A@EA@CDraw@@8
rdata$r	SEGMENT
??_R1A@?0A@EA@CDraw@@8 DD FLAT:??_R0?AVCDraw@@@8	; CDraw::`RTTI Base Class Descriptor at (0,-1,0,64)'
	DD	00H
	DD	00H
	DD	0ffffffffH
	DD	00H
	DD	040H
	DD	FLAT:??_R3CDraw@@8
rdata$r	ENDS
;	COMDAT ??_R2CDraw@@8
rdata$r	SEGMENT
??_R2CDraw@@8 DD FLAT:??_R1A@?0A@EA@CDraw@@8		; CDraw::`RTTI Base Class Array'
rdata$r	ENDS
;	COMDAT ??_R3CDraw@@8
rdata$r	SEGMENT
??_R3CDraw@@8 DD 00H					; CDraw::`RTTI Class Hierarchy Descriptor'
	DD	00H
	DD	01H
	DD	FLAT:??_R2CDraw@@8
rdata$r	ENDS
;	COMDAT ??_R0?AVCDraw@@@8
data$rs	SEGMENT
??_R0?AVCDraw@@@8 DD FLAT:??_7type_info@@6B@		; CDraw `RTTI Type Descriptor'
	DD	00H
	DB	'.?AVCDraw@@', 00H
data$rs	ENDS
;	COMDAT ??_R4CDraw@@6B@
rdata$r	SEGMENT
??_R4CDraw@@6B@ DD 00H					; CDraw::`RTTI Complete Object Locator'
	DD	00H
	DD	00H
	DD	FLAT:??_R0?AVCDraw@@@8
	DD	FLAT:??_R3CDraw@@8
rdata$r	ENDS
;	COMDAT ??_C@_02GFKOMOKH@?5?$CI@
CONST	SEGMENT
??_C@_02GFKOMOKH@?5?$CI@ DB ' (', 00H			; `string'
CONST	ENDS
;	COMDAT ??_C@_01PKGAHCOL@?$CJ@
CONST	SEGMENT
??_C@_01PKGAHCOL@?$CJ@ DB ')', 00H			; `string'
CONST	ENDS
;	COMDAT ??_C@_0P@IMPIBBAB@YYYYMMDDHHMMSS@
CONST	SEGMENT
??_C@_0P@IMPIBBAB@YYYYMMDDHHMMSS@ DB 'YYYYMMDDHHMMSS', 00H ; `string'
CONST	ENDS
;	COMDAT ??_C@_02NJPGOMH@?$CFf@
CONST	SEGMENT
??_C@_02NJPGOMH@?$CFf@ DB '%f', 00H			; `string'
CONST	ENDS
;	COMDAT ??_C@_01GBGANLPD@0@
CONST	SEGMENT
??_C@_01GBGANLPD@0@ DB '0', 00H				; `string'
CONST	ENDS
;	COMDAT ??_7CDraw@@6B@
CONST	SEGMENT
??_7CDraw@@6B@ DD FLAT:??_R4CDraw@@6B@			; CDraw::`vftable'
	DD	FLAT:??_ECDraw@@UAEPAXI@Z
	DD	FLAT:?DrawGraph@CDraw@@UAE_NPAVCDC@@ABVCRect@@ABVCDisplayAttributes@@ABVCDrawingGraphData@@ABVCSubGraphData@@ABV?$CStringT@DV?$StrTraitMFC_DLL@DV?$ChTraitsCRT@D@ATL@@@@@ATL@@PAVCXScaleManager@@@Z
	DD	FLAT:?DrawGraph@CDraw@@UAE_NPAVCDC@@ABVCRect@@ABVCDisplayAttributes@@ABVCDrawingGraphData@@ABVCSubGraphData@@@Z
CONST	ENDS
;	COMDAT ??_R1A@?0A@EA@CRgn@@8
rdata$r	SEGMENT
??_R1A@?0A@EA@CRgn@@8 DD FLAT:??_R0?AVCRgn@@@8		; CRgn::`RTTI Base Class Descriptor at (0,-1,0,64)'
	DD	02H
	DD	00H
	DD	0ffffffffH
	DD	00H
	DD	040H
	DD	FLAT:??_R3CRgn@@8
rdata$r	ENDS
;	COMDAT ??_R2CRgn@@8
rdata$r	SEGMENT
??_R2CRgn@@8 DD	FLAT:??_R1A@?0A@EA@CRgn@@8		; CRgn::`RTTI Base Class Array'
	DD	FLAT:??_R1A@?0A@EA@CGdiObject@@8
	DD	FLAT:??_R1A@?0A@EA@CObject@@8
rdata$r	ENDS
;	COMDAT ??_R3CRgn@@8
rdata$r	SEGMENT
??_R3CRgn@@8 DD	00H					; CRgn::`RTTI Class Hierarchy Descriptor'
	DD	00H
	DD	03H
	DD	FLAT:??_R2CRgn@@8
rdata$r	ENDS
;	COMDAT ??_R0?AVCRgn@@@8
data$rs	SEGMENT
??_R0?AVCRgn@@@8 DD FLAT:??_7type_info@@6B@		; CRgn `RTTI Type Descriptor'
	DD	00H
	DB	'.?AVCRgn@@', 00H
data$rs	ENDS
;	COMDAT ??_R4CRgn@@6B@
rdata$r	SEGMENT
??_R4CRgn@@6B@ DD 00H					; CRgn::`RTTI Complete Object Locator'
	DD	00H
	DD	00H
	DD	FLAT:??_R0?AVCRgn@@@8
	DD	FLAT:??_R3CRgn@@8
rdata$r	ENDS
;	COMDAT ??_R1A@?0A@EA@CBitmap@@8
rdata$r	SEGMENT
??_R1A@?0A@EA@CBitmap@@8 DD FLAT:??_R0?AVCBitmap@@@8	; CBitmap::`RTTI Base Class Descriptor at (0,-1,0,64)'
	DD	02H
	DD	00H
	DD	0ffffffffH
	DD	00H
	DD	040H
	DD	FLAT:??_R3CBitmap@@8
rdata$r	ENDS
;	COMDAT ??_R2CBitmap@@8
rdata$r	SEGMENT
??_R2CBitmap@@8 DD FLAT:??_R1A@?0A@EA@CBitmap@@8	; CBitmap::`RTTI Base Class Array'
	DD	FLAT:??_R1A@?0A@EA@CGdiObject@@8
	DD	FLAT:??_R1A@?0A@EA@CObject@@8
rdata$r	ENDS
;	COMDAT ??_R3CBitmap@@8
rdata$r	SEGMENT
??_R3CBitmap@@8 DD 00H					; CBitmap::`RTTI Class Hierarchy Descriptor'
	DD	00H
	DD	03H
	DD	FLAT:??_R2CBitmap@@8
rdata$r	ENDS
;	COMDAT ??_R0?AVCBitmap@@@8
data$rs	SEGMENT
??_R0?AVCBitmap@@@8 DD FLAT:??_7type_info@@6B@		; CBitmap `RTTI Type Descriptor'
	DD	00H
	DB	'.?AVCBitmap@@', 00H
data$rs	ENDS
;	COMDAT ??_R4CBitmap@@6B@
rdata$r	SEGMENT
??_R4CBitmap@@6B@ DD 00H				; CBitmap::`RTTI Complete Object Locator'
	DD	00H
	DD	00H
	DD	FLAT:??_R0?AVCBitmap@@@8
	DD	FLAT:??_R3CBitmap@@8
rdata$r	ENDS
;	COMDAT ??_R1A@?0A@EA@CBrush@@8
rdata$r	SEGMENT
??_R1A@?0A@EA@CBrush@@8 DD FLAT:??_R0?AVCBrush@@@8	; CBrush::`RTTI Base Class Descriptor at (0,-1,0,64)'
	DD	02H
	DD	00H
	DD	0ffffffffH
	DD	00H
	DD	040H
	DD	FLAT:??_R3CBrush@@8
rdata$r	ENDS
;	COMDAT ??_R2CBrush@@8
rdata$r	SEGMENT
??_R2CBrush@@8 DD FLAT:??_R1A@?0A@EA@CBrush@@8		; CBrush::`RTTI Base Class Array'
	DD	FLAT:??_R1A@?0A@EA@CGdiObject@@8
	DD	FLAT:??_R1A@?0A@EA@CObject@@8
rdata$r	ENDS
;	COMDAT ??_R3CBrush@@8
rdata$r	SEGMENT
??_R3CBrush@@8 DD 00H					; CBrush::`RTTI Class Hierarchy Descriptor'
	DD	00H
	DD	03H
	DD	FLAT:??_R2CBrush@@8
rdata$r	ENDS
;	COMDAT ??_R0?AVCBrush@@@8
data$rs	SEGMENT
??_R0?AVCBrush@@@8 DD FLAT:??_7type_info@@6B@		; CBrush `RTTI Type Descriptor'
	DD	00H
	DB	'.?AVCBrush@@', 00H
data$rs	ENDS
;	COMDAT ??_R4CBrush@@6B@
rdata$r	SEGMENT
??_R4CBrush@@6B@ DD 00H					; CBrush::`RTTI Complete Object Locator'
	DD	00H
	DD	00H
	DD	FLAT:??_R0?AVCBrush@@@8
	DD	FLAT:??_R3CBrush@@8
rdata$r	ENDS
;	COMDAT ??_R1A@?0A@EA@CPen@@8
rdata$r	SEGMENT
??_R1A@?0A@EA@CPen@@8 DD FLAT:??_R0?AVCPen@@@8		; CPen::`RTTI Base Class Descriptor at (0,-1,0,64)'
	DD	02H
	DD	00H
	DD	0ffffffffH
	DD	00H
	DD	040H
	DD	FLAT:??_R3CPen@@8
rdata$r	ENDS
;	COMDAT ??_R2CPen@@8
rdata$r	SEGMENT
??_R2CPen@@8 DD	FLAT:??_R1A@?0A@EA@CPen@@8		; CPen::`RTTI Base Class Array'
	DD	FLAT:??_R1A@?0A@EA@CGdiObject@@8
	DD	FLAT:??_R1A@?0A@EA@CObject@@8
rdata$r	ENDS
;	COMDAT ??_R3CPen@@8
rdata$r	SEGMENT
??_R3CPen@@8 DD	00H					; CPen::`RTTI Class Hierarchy Descriptor'
	DD	00H
	DD	03H
	DD	FLAT:??_R2CPen@@8
rdata$r	ENDS
;	COMDAT ??_R0?AVCPen@@@8
data$rs	SEGMENT
??_R0?AVCPen@@@8 DD FLAT:??_7type_info@@6B@		; CPen `RTTI Type Descriptor'
	DD	00H
	DB	'.?AVCPen@@', 00H
data$rs	ENDS
;	COMDAT ??_R4CPen@@6B@
rdata$r	SEGMENT
??_R4CPen@@6B@ DD 00H					; CPen::`RTTI Complete Object Locator'
	DD	00H
	DD	00H
	DD	FLAT:??_R0?AVCPen@@@8
	DD	FLAT:??_R3CPen@@8
rdata$r	ENDS
;	COMDAT ??_R1A@?0A@EA@CGdiObject@@8
rdata$r	SEGMENT
??_R1A@?0A@EA@CGdiObject@@8 DD FLAT:??_R0?AVCGdiObject@@@8 ; CGdiObject::`RTTI Base Class Descriptor at (0,-1,0,64)'
	DD	01H
	DD	00H
	DD	0ffffffffH
	DD	00H
	DD	040H
	DD	FLAT:??_R3CGdiObject@@8
rdata$r	ENDS
;	COMDAT ??_R2CGdiObject@@8
rdata$r	SEGMENT
??_R2CGdiObject@@8 DD FLAT:??_R1A@?0A@EA@CGdiObject@@8	; CGdiObject::`RTTI Base Class Array'
	DD	FLAT:??_R1A@?0A@EA@CObject@@8
rdata$r	ENDS
;	COMDAT ??_R3CGdiObject@@8
rdata$r	SEGMENT
??_R3CGdiObject@@8 DD 00H				; CGdiObject::`RTTI Class Hierarchy Descriptor'
	DD	00H
	DD	02H
	DD	FLAT:??_R2CGdiObject@@8
rdata$r	ENDS
;	COMDAT ??_R0?AVCGdiObject@@@8
data$rs	SEGMENT
??_R0?AVCGdiObject@@@8 DD FLAT:??_7type_info@@6B@	; CGdiObject `RTTI Type Descriptor'
	DD	00H
	DB	'.?AVCGdiObject@@', 00H
data$rs	ENDS
;	COMDAT ??_R4CGdiObject@@6B@
rdata$r	SEGMENT
??_R4CGdiObject@@6B@ DD 00H				; CGdiObject::`RTTI Complete Object Locator'
	DD	00H
	DD	00H
	DD	FLAT:??_R0?AVCGdiObject@@@8
	DD	FLAT:??_R3CGdiObject@@8
rdata$r	ENDS
;	COMDAT ??_R1A@?0A@EA@CObject@@8
rdata$r	SEGMENT
??_R1A@?0A@EA@CObject@@8 DD FLAT:??_R0?AVCObject@@@8	; CObject::`RTTI Base Class Descriptor at (0,-1,0,64)'
	DD	00H
	DD	00H
	DD	0ffffffffH
	DD	00H
	DD	040H
	DD	FLAT:??_R3CObject@@8
rdata$r	ENDS
;	COMDAT ??_R2CObject@@8
rdata$r	SEGMENT
??_R2CObject@@8 DD FLAT:??_R1A@?0A@EA@CObject@@8	; CObject::`RTTI Base Class Array'
rdata$r	ENDS
;	COMDAT ??_R3CObject@@8
rdata$r	SEGMENT
??_R3CObject@@8 DD 00H					; CObject::`RTTI Class Hierarchy Descriptor'
	DD	00H
	DD	01H
	DD	FLAT:??_R2CObject@@8
rdata$r	ENDS
;	COMDAT ??_R0?AVCObject@@@8
data$rs	SEGMENT
??_R0?AVCObject@@@8 DD FLAT:??_7type_info@@6B@		; CObject `RTTI Type Descriptor'
	DD	00H
	DB	'.?AVCObject@@', 00H
data$rs	ENDS
;	COMDAT ??_C@_0N@OMEMOKLE@?$CFTs?5?$CI?$CFTs?3?$CFd?$CJ@
CONST	SEGMENT
??_C@_0N@OMEMOKLE@?$CFTs?5?$CI?$CFTs?3?$CFd?$CJ@ DB '%Ts (%Ts:%d)', 00H ; `string'
CONST	ENDS
;	COMDAT ??_C@_0BB@HBOOMJBF@?$CFTs?5?$CI?$CFTs?3?$CFd?$CJ?6?$CFTs@
CONST	SEGMENT
??_C@_0BB@HBOOMJBF@?$CFTs?5?$CI?$CFTs?3?$CFd?$CJ?6?$CFTs@ DB '%Ts (%Ts:%d'
	DB	')', 0aH, '%Ts', 00H				; `string'
CONST	ENDS
;	COMDAT ??_C@_0BP@OIEOKIDM@Exception?5thrown?5in?5destructor@
CONST	SEGMENT
??_C@_0BP@OIEOKIDM@Exception?5thrown?5in?5destructor@ DB 'Exception throw'
	DB	'n in destructor', 00H			; `string'
CONST	ENDS
;	COMDAT ??_C@_0HD@JJCHHHNK@C?3?2Program?5Files?5?$CIx86?$CJ?2Microsof@
CONST	SEGMENT
??_C@_0HD@JJCHHHNK@C?3?2Program?5Files?5?$CIx86?$CJ?2Microsof@ DB 'C:\Pro'
	DB	'gram Files (x86)\Microsoft Visual Studio\2019\Community\VC\To'
	DB	'ols\MSVC\14.29.30133\atlmfc\include\afxwin1.inl', 00H ; `string'
CONST	ENDS
;	COMDAT ??_7CRgn@@6B@
CONST	SEGMENT
??_7CRgn@@6B@ DD FLAT:??_R4CRgn@@6B@			; CRgn::`vftable'
	DD	FLAT:?GetRuntimeClass@CRgn@@UBEPAUCRuntimeClass@@XZ
	DD	FLAT:??_ECRgn@@UAEPAXI@Z
	DD	FLAT:?Serialize@CObject@@UAEXAAVCArchive@@@Z
	DD	FLAT:?AssertValid@CObject@@UBEXXZ
	DD	FLAT:?Dump@CObject@@UBEXAAVCDumpContext@@@Z
CONST	ENDS
;	COMDAT ??_7CBitmap@@6B@
CONST	SEGMENT
??_7CBitmap@@6B@ DD FLAT:??_R4CBitmap@@6B@		; CBitmap::`vftable'
	DD	FLAT:?GetRuntimeClass@CBitmap@@UBEPAUCRuntimeClass@@XZ
	DD	FLAT:??_ECBitmap@@UAEPAXI@Z
	DD	FLAT:?Serialize@CObject@@UAEXAAVCArchive@@@Z
	DD	FLAT:?AssertValid@CObject@@UBEXXZ
	DD	FLAT:?Dump@CObject@@UBEXAAVCDumpContext@@@Z
CONST	ENDS
;	COMDAT ??_7CBrush@@6B@
CONST	SEGMENT
??_7CBrush@@6B@ DD FLAT:??_R4CBrush@@6B@		; CBrush::`vftable'
	DD	FLAT:?GetRuntimeClass@CBrush@@UBEPAUCRuntimeClass@@XZ
	DD	FLAT:??_ECBrush@@UAEPAXI@Z
	DD	FLAT:?Serialize@CObject@@UAEXAAVCArchive@@@Z
	DD	FLAT:?AssertValid@CObject@@UBEXXZ
	DD	FLAT:?Dump@CObject@@UBEXAAVCDumpContext@@@Z
CONST	ENDS
;	COMDAT ??_7CPen@@6B@
CONST	SEGMENT
??_7CPen@@6B@ DD FLAT:??_R4CPen@@6B@			; CPen::`vftable'
	DD	FLAT:?GetRuntimeClass@CPen@@UBEPAUCRuntimeClass@@XZ
	DD	FLAT:??_ECPen@@UAEPAXI@Z
	DD	FLAT:?Serialize@CObject@@UAEXAAVCArchive@@@Z
	DD	FLAT:?AssertValid@CObject@@UBEXXZ
	DD	FLAT:?Dump@CObject@@UBEXAAVCDumpContext@@@Z
CONST	ENDS
;	COMDAT ??_7CGdiObject@@6B@
CONST	SEGMENT
??_7CGdiObject@@6B@ DD FLAT:??_R4CGdiObject@@6B@	; CGdiObject::`vftable'
	DD	FLAT:?GetRuntimeClass@CGdiObject@@UBEPAUCRuntimeClass@@XZ
	DD	FLAT:??_ECGdiObject@@UAEPAXI@Z
	DD	FLAT:?Serialize@CObject@@UAEXAAVCArchive@@@Z
	DD	FLAT:?AssertValid@CObject@@UBEXXZ
	DD	FLAT:?Dump@CObject@@UBEXAAVCDumpContext@@@Z
CONST	ENDS
;	COMDAT ??_C@_00CNPNBAHC@@
CONST	SEGMENT
??_C@_00CNPNBAHC@@ DB 00H				; `string'
CONST	ENDS
;	COMDAT ??_R0PAVCException@@@8
data$r	SEGMENT
??_R0PAVCException@@@8 DD FLAT:??_7type_info@@6B@	; CException * `RTTI Type Descriptor'
	DD	00H
	DB	'.PAVCException@@', 00H
data$r	ENDS
;	COMDAT xdata$x
xdata$x	SEGMENT
__unwindtable$?DrawElement_DrawPolygon@CDraw@@IAEXPAVCDC@@ABH1PAUtagPOINT@@PBKPAH1ABK11ABW4LINEDRAWSTYLE@CGraphBaseData@@@Z DD 0ffffffffH
	DD	FLAT:__unwindfunclet$?DrawElement_DrawPolygon@CDraw@@IAEXPAVCDC@@ABH1PAUtagPOINT@@PBKPAH1ABK11ABW4LINEDRAWSTYLE@CGraphBaseData@@@Z$0
	DD	00H
	DD	FLAT:__unwindfunclet$?DrawElement_DrawPolygon@CDraw@@IAEXPAVCDC@@ABH1PAUtagPOINT@@PBKPAH1ABK11ABW4LINEDRAWSTYLE@CGraphBaseData@@@Z$1
__ehfuncinfo$?DrawElement_DrawPolygon@CDraw@@IAEXPAVCDC@@ABH1PAUtagPOINT@@PBKPAH1ABK11ABW4LINEDRAWSTYLE@CGraphBaseData@@@Z DD 019930522H
	DD	02H
	DD	FLAT:__unwindtable$?DrawElement_DrawPolygon@CDraw@@IAEXPAVCDC@@ABH1PAUtagPOINT@@PBKPAH1ABK11ABW4LINEDRAWSTYLE@CGraphBaseData@@@Z
	DD	2 DUP(00H)
	DD	2 DUP(00H)
	DD	00H
	DD	01H
xdata$x	ENDS
;	COMDAT xdata$x
xdata$x	SEGMENT
__ehfuncinfo$?GetPriceMinMaxTime@CDraw@@IAEXAAV?$CStringT@DV?$StrTraitMFC_DLL@DV?$ChTraitsCRT@D@ATL@@@@@ATL@@PAVCPacket@@H@Z DD 019930522H
	DD	0aH
	DD	FLAT:__unwindtable$?GetPriceMinMaxTime@CDraw@@IAEXAAV?$CStringT@DV?$StrTraitMFC_DLL@DV?$ChTraitsCRT@D@ATL@@@@@ATL@@PAVCPacket@@H@Z
	DD	2 DUP(00H)
	DD	2 DUP(00H)
	DD	00H
	DD	01H
__unwindtable$?GetPriceMinMaxTime@CDraw@@IAEXAAV?$CStringT@DV?$StrTraitMFC_DLL@DV?$ChTraitsCRT@D@ATL@@@@@ATL@@PAVCPacket@@H@Z DD 0ffffffffH
	DD	FLAT:__unwindfunclet$?GetPriceMinMaxTime@CDraw@@IAEXAAV?$CStringT@DV?$StrTraitMFC_DLL@DV?$ChTraitsCRT@D@ATL@@@@@ATL@@PAVCPacket@@H@Z$0
	DD	00H
	DD	FLAT:__unwindfunclet$?GetPriceMinMaxTime@CDraw@@IAEXAAV?$CStringT@DV?$StrTraitMFC_DLL@DV?$ChTraitsCRT@D@ATL@@@@@ATL@@PAVCPacket@@H@Z$1
	DD	01H
	DD	FLAT:__unwindfunclet$?GetPriceMinMaxTime@CDraw@@IAEXAAV?$CStringT@DV?$StrTraitMFC_DLL@DV?$ChTraitsCRT@D@ATL@@@@@ATL@@PAVCPacket@@H@Z$2
	DD	02H
	DD	FLAT:__unwindfunclet$?GetPriceMinMaxTime@CDraw@@IAEXAAV?$CStringT@DV?$StrTraitMFC_DLL@DV?$ChTraitsCRT@D@ATL@@@@@ATL@@PAVCPacket@@H@Z$11
	DD	03H
	DD	FLAT:__unwindfunclet$?GetPriceMinMaxTime@CDraw@@IAEXAAV?$CStringT@DV?$StrTraitMFC_DLL@DV?$ChTraitsCRT@D@ATL@@@@@ATL@@PAVCPacket@@H@Z$12
	DD	00H
	DD	FLAT:__unwindfunclet$?GetPriceMinMaxTime@CDraw@@IAEXAAV?$CStringT@DV?$StrTraitMFC_DLL@DV?$ChTraitsCRT@D@ATL@@@@@ATL@@PAVCPacket@@H@Z$6
	DD	00H
	DD	FLAT:__unwindfunclet$?GetPriceMinMaxTime@CDraw@@IAEXAAV?$CStringT@DV?$StrTraitMFC_DLL@DV?$ChTraitsCRT@D@ATL@@@@@ATL@@PAVCPacket@@H@Z$7
	DD	06H
	DD	FLAT:__unwindfunclet$?GetPriceMinMaxTime@CDraw@@IAEXAAV?$CStringT@DV?$StrTraitMFC_DLL@DV?$ChTraitsCRT@D@ATL@@@@@ATL@@PAVCPacket@@H@Z$8
	DD	07H
	DD	FLAT:__unwindfunclet$?GetPriceMinMaxTime@CDraw@@IAEXAAV?$CStringT@DV?$StrTraitMFC_DLL@DV?$ChTraitsCRT@D@ATL@@@@@ATL@@PAVCPacket@@H@Z$13
	DD	08H
	DD	FLAT:__unwindfunclet$?GetPriceMinMaxTime@CDraw@@IAEXAAV?$CStringT@DV?$StrTraitMFC_DLL@DV?$ChTraitsCRT@D@ATL@@@@@ATL@@PAVCPacket@@H@Z$14
xdata$x	ENDS
;	COMDAT xdata$x
xdata$x	SEGMENT
__ehfuncinfo$?DrawBaseLineAndTexts@CDraw@@IAEHPAVCDC@@ABVCRect@@ABVCGraphColor@@PAVCPacket@@ABN444_N5H5@Z DD 019930522H
	DD	07H
	DD	FLAT:__unwindtable$?DrawBaseLineAndTexts@CDraw@@IAEHPAVCDC@@ABVCRect@@ABVCGraphColor@@PAVCPacket@@ABN444_N5H5@Z
	DD	2 DUP(00H)
	DD	2 DUP(00H)
	DD	00H
	DD	01H
__unwindtable$?DrawBaseLineAndTexts@CDraw@@IAEHPAVCDC@@ABVCRect@@ABVCGraphColor@@PAVCPacket@@ABN444_N5H5@Z DD 0ffffffffH
	DD	FLAT:__unwindfunclet$?DrawBaseLineAndTexts@CDraw@@IAEHPAVCDC@@ABVCRect@@ABVCGraphColor@@PAVCPacket@@ABN444_N5H5@Z$0
	DD	00H
	DD	FLAT:__unwindfunclet$?DrawBaseLineAndTexts@CDraw@@IAEHPAVCDC@@ABVCRect@@ABVCGraphColor@@PAVCPacket@@ABN444_N5H5@Z$1
	DD	01H
	DD	FLAT:__unwindfunclet$?DrawBaseLineAndTexts@CDraw@@IAEHPAVCDC@@ABVCRect@@ABVCGraphColor@@PAVCPacket@@ABN444_N5H5@Z$2
	DD	02H
	DD	FLAT:__unwindfunclet$?DrawBaseLineAndTexts@CDraw@@IAEHPAVCDC@@ABVCRect@@ABVCGraphColor@@PAVCPacket@@ABN444_N5H5@Z$3
	DD	03H
	DD	FLAT:__unwindfunclet$?DrawBaseLineAndTexts@CDraw@@IAEHPAVCDC@@ABVCRect@@ABVCGraphColor@@PAVCPacket@@ABN444_N5H5@Z$4
	DD	03H
	DD	FLAT:__unwindfunclet$?DrawBaseLineAndTexts@CDraw@@IAEHPAVCDC@@ABVCRect@@ABVCGraphColor@@PAVCPacket@@ABN444_N5H5@Z$5
	DD	03H
	DD	FLAT:__unwindfunclet$?DrawBaseLineAndTexts@CDraw@@IAEHPAVCDC@@ABVCRect@@ABVCGraphColor@@PAVCPacket@@ABN444_N5H5@Z$6
xdata$x	ENDS
;	COMDAT xdata$x
xdata$x	SEGMENT
__ehfuncinfo$?DrawBaseLineAndTexts@CDraw@@IAEHABVCRect@@PAVCPacket@@ABN222_N3@Z DD 019930522H
	DD	05H
	DD	FLAT:__unwindtable$?DrawBaseLineAndTexts@CDraw@@IAEHABVCRect@@PAVCPacket@@ABN222_N3@Z
	DD	2 DUP(00H)
	DD	2 DUP(00H)
	DD	00H
	DD	01H
__unwindtable$?DrawBaseLineAndTexts@CDraw@@IAEHABVCRect@@PAVCPacket@@ABN222_N3@Z DD 0ffffffffH
	DD	FLAT:__unwindfunclet$?DrawBaseLineAndTexts@CDraw@@IAEHABVCRect@@PAVCPacket@@ABN222_N3@Z$0
	DD	00H
	DD	FLAT:__unwindfunclet$?DrawBaseLineAndTexts@CDraw@@IAEHABVCRect@@PAVCPacket@@ABN222_N3@Z$1
	DD	01H
	DD	FLAT:__unwindfunclet$?DrawBaseLineAndTexts@CDraw@@IAEHABVCRect@@PAVCPacket@@ABN222_N3@Z$2
	DD	02H
	DD	FLAT:__unwindfunclet$?DrawBaseLineAndTexts@CDraw@@IAEHABVCRect@@PAVCPacket@@ABN222_N3@Z$3
	DD	03H
	DD	FLAT:__unwindfunclet$?DrawBaseLineAndTexts@CDraw@@IAEHABVCRect@@PAVCPacket@@ABN222_N3@Z$4
xdata$x	ENDS
;	COMDAT xdata$x
xdata$x	SEGMENT
__unwindtable$?DrawSemiTransparentBitmap@CDraw@@IAEXPAVCDC@@PAVCPoint@@K@Z DD 0ffffffffH
	DD	FLAT:__unwindfunclet$?DrawSemiTransparentBitmap@CDraw@@IAEXPAVCDC@@PAVCPoint@@K@Z$0
	DD	00H
	DD	FLAT:__unwindfunclet$?DrawSemiTransparentBitmap@CDraw@@IAEXPAVCDC@@PAVCPoint@@K@Z$1
	DD	01H
	DD	FLAT:__unwindfunclet$?DrawSemiTransparentBitmap@CDraw@@IAEXPAVCDC@@PAVCPoint@@K@Z$2
	DD	02H
	DD	FLAT:__unwindfunclet$?DrawSemiTransparentBitmap@CDraw@@IAEXPAVCDC@@PAVCPoint@@K@Z$3
__ehfuncinfo$?DrawSemiTransparentBitmap@CDraw@@IAEXPAVCDC@@PAVCPoint@@K@Z DD 019930522H
	DD	04H
	DD	FLAT:__unwindtable$?DrawSemiTransparentBitmap@CDraw@@IAEXPAVCDC@@PAVCPoint@@K@Z
	DD	2 DUP(00H)
	DD	2 DUP(00H)
	DD	00H
	DD	01H
xdata$x	ENDS
;	COMDAT xdata$x
xdata$x	SEGMENT
__unwindtable$?TextOut_MultiLine@CDraw@@IAEXPAVCDC@@ABVCPoint@@HABV?$CList@V?$CStringT@DV?$StrTraitMFC_DLL@DV?$ChTraitsCRT@D@ATL@@@@@ATL@@V12@@@ABKH@Z DD 0ffffffffH
	DD	FLAT:__unwindfunclet$?TextOut_MultiLine@CDraw@@IAEXPAVCDC@@ABVCPoint@@HABV?$CList@V?$CStringT@DV?$StrTraitMFC_DLL@DV?$ChTraitsCRT@D@ATL@@@@@ATL@@V12@@@ABKH@Z$1
__ehfuncinfo$?TextOut_MultiLine@CDraw@@IAEXPAVCDC@@ABVCPoint@@HABV?$CList@V?$CStringT@DV?$StrTraitMFC_DLL@DV?$ChTraitsCRT@D@ATL@@@@@ATL@@V12@@@ABKH@Z DD 019930522H
	DD	01H
	DD	FLAT:__unwindtable$?TextOut_MultiLine@CDraw@@IAEXPAVCDC@@ABVCPoint@@HABV?$CList@V?$CStringT@DV?$StrTraitMFC_DLL@DV?$ChTraitsCRT@D@ATL@@@@@ATL@@V12@@@ABKH@Z
	DD	2 DUP(00H)
	DD	2 DUP(00H)
	DD	00H
	DD	01H
xdata$x	ENDS
;	COMDAT xdata$x
xdata$x	SEGMENT
__unwindtable$?DrawTriangle@CDraw@@IAEXPAVCDC@@VCPoint@@K@Z DD 0ffffffffH
	DD	FLAT:__unwindfunclet$?DrawTriangle@CDraw@@IAEXPAVCDC@@VCPoint@@K@Z$0
__ehfuncinfo$?DrawTriangle@CDraw@@IAEXPAVCDC@@VCPoint@@K@Z DD 019930522H
	DD	01H
	DD	FLAT:__unwindtable$?DrawTriangle@CDraw@@IAEXPAVCDC@@VCPoint@@K@Z
	DD	2 DUP(00H)
	DD	2 DUP(00H)
	DD	00H
	DD	01H
xdata$x	ENDS
;	COMDAT xdata$x
xdata$x	SEGMENT
__unwindtable$?DrawArrow@CDraw@@IAEXPAVCDC@@VCPoint@@HHUtagSIZE@@KHH@Z DD 0ffffffffH
	DD	FLAT:__unwindfunclet$?DrawArrow@CDraw@@IAEXPAVCDC@@VCPoint@@HHUtagSIZE@@KHH@Z$0
	DD	00H
	DD	FLAT:__unwindfunclet$?DrawArrow@CDraw@@IAEXPAVCDC@@VCPoint@@HHUtagSIZE@@KHH@Z$1
__ehfuncinfo$?DrawArrow@CDraw@@IAEXPAVCDC@@VCPoint@@HHUtagSIZE@@KHH@Z DD 019930522H
	DD	02H
	DD	FLAT:__unwindtable$?DrawArrow@CDraw@@IAEXPAVCDC@@VCPoint@@HHUtagSIZE@@KHH@Z
	DD	2 DUP(00H)
	DD	2 DUP(00H)
	DD	00H
	DD	01H
xdata$x	ENDS
;	COMDAT xdata$x
xdata$x	SEGMENT
__unwindtable$?DrawRectangle@CDraw@@IAEXPAVCDC@@VCRect@@ABKHH_N@Z DD 0ffffffffH
	DD	FLAT:__unwindfunclet$?DrawRectangle@CDraw@@IAEXPAVCDC@@VCRect@@ABKHH_N@Z$0
__ehfuncinfo$?DrawRectangle@CDraw@@IAEXPAVCDC@@VCRect@@ABKHH_N@Z DD 019930522H
	DD	01H
	DD	FLAT:__unwindtable$?DrawRectangle@CDraw@@IAEXPAVCDC@@VCRect@@ABKHH_N@Z
	DD	2 DUP(00H)
	DD	2 DUP(00H)
	DD	00H
	DD	01H
xdata$x	ENDS
;	COMDAT xdata$x
xdata$x	SEGMENT
__unwindtable$?DrawLine@CDraw@@IAEXPAVCDC@@ABVCPoint@@1KH@Z DD 0ffffffffH
	DD	FLAT:__unwindfunclet$?DrawLine@CDraw@@IAEXPAVCDC@@ABVCPoint@@1KH@Z$0
__ehfuncinfo$?DrawLine@CDraw@@IAEXPAVCDC@@ABVCPoint@@1KH@Z DD 019930522H
	DD	01H
	DD	FLAT:__unwindtable$?DrawLine@CDraw@@IAEXPAVCDC@@ABVCPoint@@1KH@Z
	DD	2 DUP(00H)
	DD	2 DUP(00H)
	DD	00H
	DD	01H
xdata$x	ENDS
;	COMDAT xdata$x
xdata$x	SEGMENT
__catchsym$??1CGdiObject@@UAE@XZ$3 DD 00H
	DD	FLAT:??_R0PAVCException@@@8
	DD	0fffffde4H
	DD	FLAT:__catch$??1CGdiObject@@UAE@XZ$0
__tryblocktable$??1CGdiObject@@UAE@XZ DD 00H
	DD	00H
	DD	02H
	DD	01H
	DD	FLAT:__catchsym$??1CGdiObject@@UAE@XZ$3
__unwindtable$??1CGdiObject@@UAE@XZ DD 0ffffffffH
	DD	00H
	DD	0ffffffffH
	DD	00H
	DD	01H
	DD	FLAT:__unwindfunclet$??1CGdiObject@@UAE@XZ$2
__ehfuncinfo$??1CGdiObject@@UAE@XZ DD 019930522H
	DD	03H
	DD	FLAT:__unwindtable$??1CGdiObject@@UAE@XZ
	DD	01H
	DD	FLAT:__tryblocktable$??1CGdiObject@@UAE@XZ
	DD	2 DUP(00H)
	DD	00H
	DD	05H
xdata$x	ENDS
;	COMDAT xdata$x
xdata$x	SEGMENT
__unwindtable$??HATL@@YA?AV?$CStringT@DV?$StrTraitMFC_DLL@DV?$ChTraitsCRT@D@ATL@@@@@0@PBDABV10@@Z DD 0ffffffffH
	DD	FLAT:__unwindfunclet$??HATL@@YA?AV?$CStringT@DV?$StrTraitMFC_DLL@DV?$ChTraitsCRT@D@ATL@@@@@0@PBDABV10@@Z$0
__ehfuncinfo$??HATL@@YA?AV?$CStringT@DV?$StrTraitMFC_DLL@DV?$ChTraitsCRT@D@ATL@@@@@0@PBDABV10@@Z DD 019930522H
	DD	01H
	DD	FLAT:__unwindtable$??HATL@@YA?AV?$CStringT@DV?$StrTraitMFC_DLL@DV?$ChTraitsCRT@D@ATL@@@@@0@PBDABV10@@Z
	DD	2 DUP(00H)
	DD	2 DUP(00H)
	DD	00H
	DD	01H
xdata$x	ENDS
;	COMDAT xdata$x
xdata$x	SEGMENT
__unwindtable$??HATL@@YA?AV?$CStringT@DV?$StrTraitMFC_DLL@DV?$ChTraitsCRT@D@ATL@@@@@0@ABV10@PBD@Z DD 0ffffffffH
	DD	FLAT:__unwindfunclet$??HATL@@YA?AV?$CStringT@DV?$StrTraitMFC_DLL@DV?$ChTraitsCRT@D@ATL@@@@@0@ABV10@PBD@Z$0
__ehfuncinfo$??HATL@@YA?AV?$CStringT@DV?$StrTraitMFC_DLL@DV?$ChTraitsCRT@D@ATL@@@@@0@ABV10@PBD@Z DD 019930522H
	DD	01H
	DD	FLAT:__unwindtable$??HATL@@YA?AV?$CStringT@DV?$StrTraitMFC_DLL@DV?$ChTraitsCRT@D@ATL@@@@@0@ABV10@PBD@Z
	DD	2 DUP(00H)
	DD	2 DUP(00H)
	DD	00H
	DD	01H
xdata$x	ENDS
; Function compile flags: /Ogtp
; File C:\Program Files (x86)\Microsoft Visual Studio\2019\Community\VC\Tools\MSVC\14.29.30133\atlmfc\include\afxtempl.h
;	COMDAT ?FindIndex@?$CList@NN@@QBEPAU__POSITION@@H@Z
_TEXT	SEGMENT
_nIndex$ = 8						; size = 4
?FindIndex@?$CList@NN@@QBEPAU__POSITION@@H@Z PROC	; CList<double,double>::FindIndex, COMDAT
; _this$ = ecx

; 1130 : {

  00000	55		 push	 ebp
  00001	8b ec		 mov	 ebp, esp

; 1131 : 	ASSERT_VALID(this);
; 1132 : 
; 1133 : 	if (nIndex >= m_nCount || nIndex < 0)

  00003	8b 55 08	 mov	 edx, DWORD PTR _nIndex$[ebp]
  00006	3b 51 0c	 cmp	 edx, DWORD PTR [ecx+12]
  00009	7d 14		 jge	 SHORT $LN5@FindIndex
  0000b	85 d2		 test	 edx, edx
  0000d	78 10		 js	 SHORT $LN5@FindIndex

; 1135 : 
; 1136 : 	CNode* pNode = m_pNodeHead;

  0000f	8b 41 04	 mov	 eax, DWORD PTR [ecx+4]

; 1137 : 	while (nIndex--)

  00012	74 0d		 je	 SHORT $LN1@FindIndex
$LL2@FindIndex:

; 1138 : 	{
; 1139 : 		ASSERT(AfxIsValidAddress(pNode, sizeof(CNode)));
; 1140 : 		pNode = pNode->pNext;

  00014	8b 00		 mov	 eax, DWORD PTR [eax]
  00016	83 ea 01	 sub	 edx, 1
  00019	75 f9		 jne	 SHORT $LL2@FindIndex

; 1141 : 	}
; 1142 : 	return (POSITION) pNode;
; 1143 : }

  0001b	5d		 pop	 ebp
  0001c	c2 04 00	 ret	 4
$LN5@FindIndex:

; 1134 : 		return NULL;  // went too far

  0001f	33 c0		 xor	 eax, eax
$LN1@FindIndex:

; 1141 : 	}
; 1142 : 	return (POSITION) pNode;
; 1143 : }

  00021	5d		 pop	 ebp
  00022	c2 04 00	 ret	 4
?FindIndex@?$CList@NN@@QBEPAU__POSITION@@H@Z ENDP	; CList<double,double>::FindIndex
_TEXT	ENDS
; Function compile flags: /Ogtp
;	COMDAT ??4CGraphDrawer@@QAEAAV0@$$QAV0@@Z
_TEXT	SEGMENT
___that$ = 8						; size = 4
??4CGraphDrawer@@QAEAAV0@$$QAV0@@Z PROC			; CGraphDrawer::operator=, COMDAT
; _this$ = ecx
  00000	8b c1		 mov	 eax, ecx
  00002	c2 04 00	 ret	 4
??4CGraphDrawer@@QAEAAV0@$$QAV0@@Z ENDP			; CGraphDrawer::operator=
_TEXT	ENDS
; Function compile flags: /Ogtp
;	COMDAT ??4CGraphDrawer@@QAEAAV0@ABV0@@Z
_TEXT	SEGMENT
___that$ = 8						; size = 4
??4CGraphDrawer@@QAEAAV0@ABV0@@Z PROC			; CGraphDrawer::operator=, COMDAT
; _this$ = ecx
  00000	8b c1		 mov	 eax, ecx
  00002	c2 04 00	 ret	 4
??4CGraphDrawer@@QAEAAV0@ABV0@@Z ENDP			; CGraphDrawer::operator=
_TEXT	ENDS
; Function compile flags: /Ogtp
;	COMDAT ??_GCDraw@@UAEPAXI@Z
_TEXT	SEGMENT
___flags$ = 8						; size = 4
??_GCDraw@@UAEPAXI@Z PROC				; CDraw::`scalar deleting destructor', COMDAT
; _this$ = ecx
  00000	55		 push	 ebp
  00001	8b ec		 mov	 ebp, esp
  00003	f6 45 08 01	 test	 BYTE PTR ___flags$[ebp], 1
  00007	56		 push	 esi
  00008	8b f1		 mov	 esi, ecx
  0000a	c7 06 00 00 00
	00		 mov	 DWORD PTR [esi], OFFSET ??_7CDraw@@6B@
  00010	74 0b		 je	 SHORT $LN4@scalar
  00012	6a 28		 push	 40			; 00000028H
  00014	56		 push	 esi
  00015	e8 00 00 00 00	 call	 ??3@YAXPAXI@Z		; operator delete
  0001a	83 c4 08	 add	 esp, 8
$LN4@scalar:
  0001d	8b c6		 mov	 eax, esi
  0001f	5e		 pop	 esi
  00020	5d		 pop	 ebp
  00021	c2 04 00	 ret	 4
??_GCDraw@@UAEPAXI@Z ENDP				; CDraw::`scalar deleting destructor'
_TEXT	ENDS
; Function compile flags: /Ogtp
; File D:\git\src\IBK\IBK_DRFN\ProjSrc\SrcChartEx\ChartOCX\GraphDraw\Draw.cpp
; File C:\Program Files (x86)\Microsoft Visual Studio\2019\Community\VC\Tools\MSVC\14.29.30133\atlmfc\include\afxwin1.inl
; File D:\git\src\IBK\IBK_DRFN\ProjSrc\SrcChartEx\ChartOCX\GraphDraw\Draw.cpp
; File C:\Program Files (x86)\Microsoft Visual Studio\2019\Community\VC\Tools\MSVC\14.29.30133\atlmfc\include\afxwin1.inl
; File D:\git\src\IBK\IBK_DRFN\ProjSrc\SrcChartEx\ChartOCX\GraphDraw\Draw.cpp
; File C:\Program Files (x86)\Microsoft Visual Studio\2019\Community\VC\Tools\MSVC\14.29.30133\atlmfc\include\afxwin1.inl
; File D:\git\src\IBK\IBK_DRFN\ProjSrc\SrcChartEx\ChartOCX\GraphDraw\Draw.cpp
; File C:\Program Files (x86)\Microsoft Visual Studio\2019\Community\VC\Tools\MSVC\14.29.30133\atlmfc\include\afxwin1.inl
; File D:\git\src\IBK\IBK_DRFN\ProjSrc\SrcChartEx\ChartOCX\GraphDraw\Draw.cpp
; File C:\Program Files (x86)\Microsoft Visual Studio\2019\Community\VC\Tools\MSVC\14.29.30133\atlmfc\include\afxwin1.inl
; File D:\git\src\IBK\IBK_DRFN\ProjSrc\SrcChartEx\ChartOCX\GraphDraw\Draw.cpp
; File C:\Program Files (x86)\Microsoft Visual Studio\2019\Community\VC\Tools\MSVC\14.29.30133\atlmfc\include\afxwin1.inl
; File D:\git\src\IBK\IBK_DRFN\ProjSrc\SrcChartEx\ChartOCX\GraphDraw\Draw.cpp
; File C:\Program Files (x86)\Microsoft Visual Studio\2019\Community\VC\Tools\MSVC\14.29.30133\atlmfc\include\afxwin1.inl
; File D:\git\src\IBK\IBK_DRFN\ProjSrc\SrcChartEx\ChartOCX\GraphDraw\Draw.cpp
; File C:\Program Files (x86)\Microsoft Visual Studio\2019\Community\VC\Tools\MSVC\14.29.30133\atlmfc\include\afxwin1.inl
; File D:\git\src\IBK\IBK_DRFN\ProjSrc\SrcChartEx\ChartOCX\GraphDraw\Draw.cpp
; File C:\Program Files (x86)\Microsoft Visual Studio\2019\Community\VC\Tools\MSVC\14.29.30133\atlmfc\include\afxwin1.inl
; File D:\git\src\IBK\IBK_DRFN\ProjSrc\SrcChartEx\ChartOCX\GraphDraw\Draw.cpp
; File C:\Program Files (x86)\Microsoft Visual Studio\2019\Community\VC\Tools\MSVC\14.29.30133\atlmfc\include\afxwin1.inl
; File D:\git\src\IBK\IBK_DRFN\ProjSrc\SrcChartEx\ChartOCX\GraphDraw\Draw.cpp
; File C:\Program Files (x86)\Microsoft Visual Studio\2019\Community\VC\Tools\MSVC\14.29.30133\atlmfc\include\afxwin1.inl
; File D:\git\src\IBK\IBK_DRFN\ProjSrc\SrcChartEx\ChartOCX\GraphDraw\Draw.cpp
; File C:\Program Files (x86)\Microsoft Visual Studio\2019\Community\VC\Tools\MSVC\14.29.30133\atlmfc\include\afxwin1.inl
; File D:\git\src\IBK\IBK_DRFN\ProjSrc\SrcChartEx\ChartOCX\GraphDraw\Draw.cpp
; File C:\Program Files (x86)\Microsoft Visual Studio\2019\Community\VC\Tools\MSVC\14.29.30133\atlmfc\include\afxwin1.inl
; File D:\git\src\IBK\IBK_DRFN\ProjSrc\SrcChartEx\ChartOCX\GraphDraw\Draw.cpp
;	COMDAT ?DrawElement_DrawPolygon@CDraw@@IAEXPAVCDC@@ABH1PAUtagPOINT@@PBKPAH1ABK11ABW4LINEDRAWSTYLE@CGraphBaseData@@@Z
_TEXT	SEGMENT
_pOldPen$1$ = -72					; size = 4
_nCountOfPoly$GSCopy$1$ = -68				; size = 4
_clrColor$GSCopy$1$ = -64				; size = 4
_pOldBrush$1$ = -60					; size = 4
_nPointCounts$GSCopy$1$ = -56				; size = 4
_dwPointCounts$GSCopy$1$ = -52				; size = 4
_brBrush$ = -48						; size = 8
_pnPen$ = -40						; size = 8
_ptPolyPoints$GSCopy$1$ = -32				; size = 4
_logBrush$2 = -28					; size = 12
__$ArrayPad$ = -16					; size = 4
__$EHRec$ = -12						; size = 12
_pDC$ = 8						; size = 4
_nOneLineMode$ = 12					; size = 4
_nCountOfPoly$ = 16					; size = 4
_ptPolyPoints$ = 20					; size = 4
_dwPointCounts$ = 24					; size = 4
_nPointCounts$ = 28					; size = 4
_nPenThick$ = 32					; size = 4
_clrColor$ = 36						; size = 4
_bFill$ = 40						; size = 4
_bLineBar$ = 44						; size = 4
_eLineStyle$ = 48					; size = 4
?DrawElement_DrawPolygon@CDraw@@IAEXPAVCDC@@ABH1PAUtagPOINT@@PBKPAH1ABK11ABW4LINEDRAWSTYLE@CGraphBaseData@@@Z PROC ; CDraw::DrawElement_DrawPolygon, COMDAT
; _this$ = ecx

; 736  : {

  00000	55		 push	 ebp
  00001	8b ec		 mov	 ebp, esp
  00003	6a ff		 push	 -1
  00005	68 00 00 00 00	 push	 __ehhandler$?DrawElement_DrawPolygon@CDraw@@IAEXPAVCDC@@ABH1PAUtagPOINT@@PBKPAH1ABK11ABW4LINEDRAWSTYLE@CGraphBaseData@@@Z
  0000a	64 a1 00 00 00
	00		 mov	 eax, DWORD PTR fs:0
  00010	50		 push	 eax
  00011	83 ec 3c	 sub	 esp, 60			; 0000003cH
  00014	a1 00 00 00 00	 mov	 eax, DWORD PTR ___security_cookie
  00019	33 c5		 xor	 eax, ebp
  0001b	89 45 f0	 mov	 DWORD PTR __$ArrayPad$[ebp], eax
  0001e	53		 push	 ebx
  0001f	56		 push	 esi
  00020	57		 push	 edi
  00021	50		 push	 eax
  00022	8d 45 f4	 lea	 eax, DWORD PTR __$EHRec$[ebp]
  00025	64 a3 00 00 00
	00		 mov	 DWORD PTR fs:0, eax
  0002b	8b 45 10	 mov	 eax, DWORD PTR _nCountOfPoly$[ebp]
  0002e	8b 55 24	 mov	 edx, DWORD PTR _clrColor$[ebp]
  00031	8b 75 08	 mov	 esi, DWORD PTR _pDC$[ebp]
  00034	8b 7d 20	 mov	 edi, DWORD PTR _nPenThick$[ebp]
  00037	89 45 bc	 mov	 DWORD PTR _nCountOfPoly$GSCopy$1$[ebp], eax
  0003a	8b 45 14	 mov	 eax, DWORD PTR _ptPolyPoints$[ebp]
  0003d	89 45 e0	 mov	 DWORD PTR _ptPolyPoints$GSCopy$1$[ebp], eax
  00040	8b 45 18	 mov	 eax, DWORD PTR _dwPointCounts$[ebp]
  00043	89 45 cc	 mov	 DWORD PTR _dwPointCounts$GSCopy$1$[ebp], eax
  00046	8b 45 1c	 mov	 eax, DWORD PTR _nPointCounts$[ebp]
  00049	89 45 c8	 mov	 DWORD PTR _nPointCounts$GSCopy$1$[ebp], eax
  0004c	89 55 c0	 mov	 DWORD PTR _clrColor$GSCopy$1$[ebp], edx
; File C:\Program Files (x86)\Microsoft Visual Studio\2019\Community\VC\Tools\MSVC\14.29.30133\atlmfc\include\afxwin1.inl

; 70   : 	{ m_hObject = NULL; }

  0004f	c7 45 dc 00 00
	00 00		 mov	 DWORD PTR _pnPen$[ebp+4], 0

; 104  : 	{ }

  00056	c7 45 d8 00 00
	00 00		 mov	 DWORD PTR _pnPen$[ebp], OFFSET ??_7CPen@@6B@
; File D:\git\src\IBK\IBK_DRFN\ProjSrc\SrcChartEx\ChartOCX\GraphDraw\Draw.cpp

; 738  : 	if( bLineBar)

  0005d	8b 45 2c	 mov	 eax, DWORD PTR _bLineBar$[ebp]
  00060	c7 45 fc 00 00
	00 00		 mov	 DWORD PTR __$EHRec$[ebp+8], 0
  00067	83 38 00	 cmp	 DWORD PTR [eax], 0
  0006a	74 23		 je	 SHORT $LN4@DrawElemen

; 741  : 		logBrush.lbColor = clrColor;

  0006c	8b 02		 mov	 eax, DWORD PTR [edx]
; File C:\Program Files (x86)\Microsoft Visual Studio\2019\Community\VC\Tools\MSVC\14.29.30133\atlmfc\include\afxwin1.inl

; 113  : 	{ return Attach(::ExtCreatePen(nPenStyle, nWidth, pLogBrush, nStyleCount,

  0006e	6a 00		 push	 0
  00070	6a 00		 push	 0
; File D:\git\src\IBK\IBK_DRFN\ProjSrc\SrcChartEx\ChartOCX\GraphDraw\Draw.cpp

; 741  : 		logBrush.lbColor = clrColor;

  00072	89 45 e8	 mov	 DWORD PTR _logBrush$2[ebp+4], eax
; File C:\Program Files (x86)\Microsoft Visual Studio\2019\Community\VC\Tools\MSVC\14.29.30133\atlmfc\include\afxwin1.inl

; 113  : 	{ return Attach(::ExtCreatePen(nPenStyle, nWidth, pLogBrush, nStyleCount,

  00075	8d 45 e4	 lea	 eax, DWORD PTR _logBrush$2[ebp]
  00078	50		 push	 eax
  00079	ff 37		 push	 DWORD PTR [edi]
; File D:\git\src\IBK\IBK_DRFN\ProjSrc\SrcChartEx\ChartOCX\GraphDraw\Draw.cpp

; 742  : 		logBrush.lbStyle = BS_SOLID;

  0007b	c7 45 e4 00 00
	00 00		 mov	 DWORD PTR _logBrush$2[ebp], 0
; File C:\Program Files (x86)\Microsoft Visual Studio\2019\Community\VC\Tools\MSVC\14.29.30133\atlmfc\include\afxwin1.inl

; 113  : 	{ return Attach(::ExtCreatePen(nPenStyle, nWidth, pLogBrush, nStyleCount,

  00082	68 00 02 01 00	 push	 66048			; 00010200H
  00087	ff 15 00 00 00
	00		 call	 DWORD PTR __imp__ExtCreatePen@20
; File D:\git\src\IBK\IBK_DRFN\ProjSrc\SrcChartEx\ChartOCX\GraphDraw\Draw.cpp

; 744  : 	}

  0008d	eb 39		 jmp	 SHORT $LN66@DrawElemen
$LN4@DrawElemen:

; 745  : 	else
; 746  : 	{
; 747  : 		int nPenStyle = PS_SOLID;
; 748  : 		switch( eLineStyle)

  0008f	8b 45 30	 mov	 eax, DWORD PTR _eLineStyle$[ebp]
  00092	33 c9		 xor	 ecx, ecx
  00094	8b 00		 mov	 eax, DWORD PTR [eax]
  00096	48		 dec	 eax
  00097	83 f8 03	 cmp	 eax, 3
  0009a	77 21		 ja	 SHORT $LN2@DrawElemen
  0009c	ff 24 85 00 00
	00 00		 jmp	 DWORD PTR $LN64@DrawElemen[eax*4]
$LN6@DrawElemen:

; 749  : 		{
; 750  : 		case CGraphBaseData::Dot_Draw:			nPenStyle = PS_DOT;			// 좌표점형

  000a3	b9 02 00 00 00	 mov	 ecx, 2

; 751  : 			break;

  000a8	eb 13		 jmp	 SHORT $LN2@DrawElemen
$LN7@DrawElemen:

; 752  : 		case CGraphBaseData::DottedLine_Draw:	nPenStyle = PS_DASH;		// 선형 점선

  000aa	b9 01 00 00 00	 mov	 ecx, 1

; 753  : 			break;

  000af	eb 0c		 jmp	 SHORT $LN2@DrawElemen
$LN8@DrawElemen:

; 754  : 		case CGraphBaseData::DashDot_Draw:		nPenStyle = PS_DASHDOT;		// 선점형

  000b1	b9 03 00 00 00	 mov	 ecx, 3

; 755  : 			break;

  000b6	eb 05		 jmp	 SHORT $LN2@DrawElemen
$LN9@DrawElemen:

; 756  : 		case CGraphBaseData::DashDotDot_Draw:	nPenStyle = PS_DASHDOTDOT;	// 선점점형

  000b8	b9 04 00 00 00	 mov	 ecx, 4
$LN2@DrawElemen:
; File C:\Program Files (x86)\Microsoft Visual Studio\2019\Community\VC\Tools\MSVC\14.29.30133\atlmfc\include\afxwin1.inl

; 108  : 	{ return Attach(::CreatePen(nPenStyle, nWidth, crColor)); }

  000bd	ff 32		 push	 DWORD PTR [edx]
  000bf	ff 37		 push	 DWORD PTR [edi]
  000c1	51		 push	 ecx
  000c2	ff 15 00 00 00
	00		 call	 DWORD PTR __imp__CreatePen@12
$LN66@DrawElemen:
; File D:\git\src\IBK\IBK_DRFN\ProjSrc\SrcChartEx\ChartOCX\GraphDraw\Draw.cpp

; 761  : 	CPen *pOldPen = pDC->SelectObject( &pnPen);

  000c8	50		 push	 eax
  000c9	8d 4d d8	 lea	 ecx, DWORD PTR _pnPen$[ebp]
  000cc	e8 00 00 00 00	 call	 ?Attach@CGdiObject@@QAEHPAX@Z ; CGdiObject::Attach
  000d1	8d 45 d8	 lea	 eax, DWORD PTR _pnPen$[ebp]
  000d4	8b ce		 mov	 ecx, esi
  000d6	50		 push	 eax
  000d7	e8 00 00 00 00	 call	 ?SelectObject@CDC@@QAEPAVCPen@@PAV2@@Z ; CDC::SelectObject
  000dc	89 45 b8	 mov	 DWORD PTR _pOldPen$1$[ebp], eax

; 762  : 	
; 763  : 	CBrush *pOldBrush = NULL;

  000df	c7 45 c4 00 00
	00 00		 mov	 DWORD PTR _pOldBrush$1$[ebp], 0
; File C:\Program Files (x86)\Microsoft Visual Studio\2019\Community\VC\Tools\MSVC\14.29.30133\atlmfc\include\afxwin1.inl

; 70   : 	{ m_hObject = NULL; }

  000e6	c7 45 d4 00 00
	00 00		 mov	 DWORD PTR _brBrush$[ebp+4], 0

; 128  : 	{ }

  000ed	c7 45 d0 00 00
	00 00		 mov	 DWORD PTR _brBrush$[ebp], OFFSET ??_7CBrush@@6B@
; File D:\git\src\IBK\IBK_DRFN\ProjSrc\SrcChartEx\ChartOCX\GraphDraw\Draw.cpp

; 766  : 	if( bFill && 1 != nOneLineMode)

  000f4	8b 4d 28	 mov	 ecx, DWORD PTR _bFill$[ebp]
  000f7	33 ff		 xor	 edi, edi
  000f9	8b 5d 0c	 mov	 ebx, DWORD PTR _nOneLineMode$[ebp]
  000fc	c6 45 fc 01	 mov	 BYTE PTR __$EHRec$[ebp+8], 1
  00100	39 39		 cmp	 DWORD PTR [ecx], edi
  00102	74 29		 je	 SHORT $LN63@DrawElemen
  00104	83 3b 01	 cmp	 DWORD PTR [ebx], 1
  00107	74 24		 je	 SHORT $LN63@DrawElemen
; File C:\Program Files (x86)\Microsoft Visual Studio\2019\Community\VC\Tools\MSVC\14.29.30133\atlmfc\include\afxwin1.inl

; 132  : 	{ return Attach(::CreateSolidBrush(crColor)); }

  00109	8b 45 c0	 mov	 eax, DWORD PTR _clrColor$GSCopy$1$[ebp]
  0010c	ff 30		 push	 DWORD PTR [eax]
  0010e	ff 15 00 00 00
	00		 call	 DWORD PTR __imp__CreateSolidBrush@4
  00114	50		 push	 eax
  00115	8d 4d d0	 lea	 ecx, DWORD PTR _brBrush$[ebp]
  00118	e8 00 00 00 00	 call	 ?Attach@CGdiObject@@QAEHPAX@Z ; CGdiObject::Attach
; File D:\git\src\IBK\IBK_DRFN\ProjSrc\SrcChartEx\ChartOCX\GraphDraw\Draw.cpp

; 769  : 		pOldBrush = pDC->SelectObject( &brBrush);

  0011d	8d 45 d0	 lea	 eax, DWORD PTR _brBrush$[ebp]
  00120	8b ce		 mov	 ecx, esi
  00122	50		 push	 eax
  00123	e8 00 00 00 00	 call	 ?SelectObject@CDC@@QAEPAVCBrush@@PAV2@@Z ; CDC::SelectObject
  00128	89 45 c4	 mov	 DWORD PTR _pOldBrush$1$[ebp], eax

; 770  : 	}

  0012b	eb 1c		 jmp	 SHORT $LN43@DrawElemen
$LN63@DrawElemen:

; 771  : 	else hBrush = pDC->SelectObject( GetStockObject( NULL_BRUSH));

  0012d	6a 05		 push	 5
  0012f	ff 15 00 00 00
	00		 call	 DWORD PTR __imp__GetStockObject@4
; File C:\Program Files (x86)\Microsoft Visual Studio\2019\Community\VC\Tools\MSVC\14.29.30133\atlmfc\include\afxwin1.inl

; 366  : 		return (hObject != NULL) ? ::SelectObject(m_hDC, hObject) : NULL; }

  00135	85 c0		 test	 eax, eax
  00137	74 0e		 je	 SHORT $LN42@DrawElemen
  00139	50		 push	 eax
  0013a	ff 76 04	 push	 DWORD PTR [esi+4]
  0013d	ff 15 00 00 00
	00		 call	 DWORD PTR __imp__SelectObject@8
  00143	8b f8		 mov	 edi, eax
  00145	eb 02		 jmp	 SHORT $LN43@DrawElemen
$LN42@DrawElemen:
  00147	33 ff		 xor	 edi, edi
$LN43@DrawElemen:
; File D:\git\src\IBK\IBK_DRFN\ProjSrc\SrcChartEx\ChartOCX\GraphDraw\Draw.cpp

; 773  : 	if( 1 < nCountOfPoly)

  00149	8b 45 bc	 mov	 eax, DWORD PTR _nCountOfPoly$GSCopy$1$[ebp]
  0014c	8b 00		 mov	 eax, DWORD PTR [eax]
  0014e	83 f8 01	 cmp	 eax, 1
  00151	7e 29		 jle	 SHORT $LN12@DrawElemen

; 775  : 		if( nOneLineMode)	pDC->PolyPolyline( ptPolyPoints, dwPointCounts, nCountOfPoly);

  00153	83 3b 00	 cmp	 DWORD PTR [ebx], 0
  00156	8b 4e 04	 mov	 ecx, DWORD PTR [esi+4]
  00159	50		 push	 eax
  0015a	74 10		 je	 SHORT $LN14@DrawElemen
; File C:\Program Files (x86)\Microsoft Visual Studio\2019\Community\VC\Tools\MSVC\14.29.30133\atlmfc\include\afxwin1.inl

; 786  : 	{ ASSERT(m_hDC != NULL); return ::PolyPolyline(m_hDC, lpPoints, lpPolyPoints, nCount); }

  0015c	8b 45 cc	 mov	 eax, DWORD PTR _dwPointCounts$GSCopy$1$[ebp]
  0015f	50		 push	 eax
  00160	ff 75 e0	 push	 DWORD PTR _ptPolyPoints$GSCopy$1$[ebp]
  00163	51		 push	 ecx
  00164	ff 15 00 00 00
	00		 call	 DWORD PTR __imp__PolyPolyline@16
; File D:\git\src\IBK\IBK_DRFN\ProjSrc\SrcChartEx\ChartOCX\GraphDraw\Draw.cpp

; 775  : 		if( nOneLineMode)	pDC->PolyPolyline( ptPolyPoints, dwPointCounts, nCountOfPoly);

  0016a	eb 47		 jmp	 SHORT $LN20@DrawElemen
$LN14@DrawElemen:
; File C:\Program Files (x86)\Microsoft Visual Studio\2019\Community\VC\Tools\MSVC\14.29.30133\atlmfc\include\afxwin1.inl

; 537  : 	{ ASSERT(m_hDC != NULL); return ::PolyPolygon(m_hDC, lpPoints, lpPolyCounts, nCount); }

  0016c	8b 45 c8	 mov	 eax, DWORD PTR _nPointCounts$GSCopy$1$[ebp]
  0016f	50		 push	 eax
  00170	ff 75 e0	 push	 DWORD PTR _ptPolyPoints$GSCopy$1$[ebp]
  00173	51		 push	 ecx
  00174	ff 15 00 00 00
	00		 call	 DWORD PTR __imp__PolyPolygon@16
; File D:\git\src\IBK\IBK_DRFN\ProjSrc\SrcChartEx\ChartOCX\GraphDraw\Draw.cpp

; 777  : 	}

  0017a	eb 37		 jmp	 SHORT $LN20@DrawElemen
$LN12@DrawElemen:

; 778  : 	else if( 1 == nCountOfPoly)

  0017c	75 35		 jne	 SHORT $LN20@DrawElemen

; 779  : 	{
; 780  : 		if( nOneLineMode)

  0017e	83 3b 00	 cmp	 DWORD PTR [ebx], 0
  00181	74 19		 je	 SHORT $LN17@DrawElemen

; 781  : 		{
; 782  : 			if( 1 < dwPointCounts[ 0]) pDC->Polyline( ptPolyPoints, dwPointCounts[ 0]);

  00183	8b 45 cc	 mov	 eax, DWORD PTR _dwPointCounts$GSCopy$1$[ebp]
  00186	8b 00		 mov	 eax, DWORD PTR [eax]
  00188	83 f8 01	 cmp	 eax, 1
  0018b	76 26		 jbe	 SHORT $LN20@DrawElemen
; File C:\Program Files (x86)\Microsoft Visual Studio\2019\Community\VC\Tools\MSVC\14.29.30133\atlmfc\include\afxwin1.inl

; 474  : 	{ ASSERT(m_hDC != NULL); return ::Polyline(m_hDC, lpPoints, nCount); }

  0018d	50		 push	 eax
  0018e	ff 75 e0	 push	 DWORD PTR _ptPolyPoints$GSCopy$1$[ebp]
  00191	ff 76 04	 push	 DWORD PTR [esi+4]
  00194	ff 15 00 00 00
	00		 call	 DWORD PTR __imp__Polyline@12
; File D:\git\src\IBK\IBK_DRFN\ProjSrc\SrcChartEx\ChartOCX\GraphDraw\Draw.cpp

; 783  : 		}

  0019a	eb 17		 jmp	 SHORT $LN20@DrawElemen
$LN17@DrawElemen:

; 784  : 		else
; 785  : 		{
; 786  : 			if( 2 < nPointCounts[ 0]) pDC->Polygon( ptPolyPoints, nPointCounts[ 0]);

  0019c	8b 45 c8	 mov	 eax, DWORD PTR _nPointCounts$GSCopy$1$[ebp]
  0019f	8b 00		 mov	 eax, DWORD PTR [eax]
  001a1	83 f8 02	 cmp	 eax, 2
  001a4	7e 0d		 jle	 SHORT $LN20@DrawElemen
; File C:\Program Files (x86)\Microsoft Visual Studio\2019\Community\VC\Tools\MSVC\14.29.30133\atlmfc\include\afxwin1.inl

; 535  : 	{ ASSERT(m_hDC != NULL); return ::Polygon(m_hDC, lpPoints, nCount); }

  001a6	50		 push	 eax
  001a7	ff 75 e0	 push	 DWORD PTR _ptPolyPoints$GSCopy$1$[ebp]
  001aa	ff 76 04	 push	 DWORD PTR [esi+4]
  001ad	ff 15 00 00 00
	00		 call	 DWORD PTR __imp__Polygon@12
$LN20@DrawElemen:
; File D:\git\src\IBK\IBK_DRFN\ProjSrc\SrcChartEx\ChartOCX\GraphDraw\Draw.cpp

; 790  : 	pDC->SelectObject( pOldPen);

  001b3	ff 75 b8	 push	 DWORD PTR _pOldPen$1$[ebp]
  001b6	8b ce		 mov	 ecx, esi
  001b8	e8 00 00 00 00	 call	 ?SelectObject@CDC@@QAEPAVCPen@@PAV2@@Z ; CDC::SelectObject

; 791  : 	pnPen.DeleteObject();

  001bd	8d 4d d8	 lea	 ecx, DWORD PTR _pnPen$[ebp]
  001c0	e8 00 00 00 00	 call	 ?DeleteObject@CGdiObject@@QAEHXZ ; CGdiObject::DeleteObject

; 792  : 	if( bFill && 1 != nOneLineMode)

  001c5	8b 45 28	 mov	 eax, DWORD PTR _bFill$[ebp]
  001c8	83 38 00	 cmp	 DWORD PTR [eax], 0
  001cb	74 19		 je	 SHORT $LN21@DrawElemen
  001cd	83 3b 01	 cmp	 DWORD PTR [ebx], 1
  001d0	74 14		 je	 SHORT $LN21@DrawElemen

; 793  : 	{
; 794  : 		pDC->SelectObject( pOldBrush);

  001d2	ff 75 c4	 push	 DWORD PTR _pOldBrush$1$[ebp]
  001d5	8b ce		 mov	 ecx, esi
  001d7	e8 00 00 00 00	 call	 ?SelectObject@CDC@@QAEPAVCBrush@@PAV2@@Z ; CDC::SelectObject

; 795  : 		brBrush.DeleteObject();

  001dc	8d 4d d0	 lea	 ecx, DWORD PTR _brBrush$[ebp]
  001df	e8 00 00 00 00	 call	 ?DeleteObject@CGdiObject@@QAEHXZ ; CGdiObject::DeleteObject

; 796  : 	}

  001e4	eb 0e		 jmp	 SHORT $LN54@DrawElemen
$LN21@DrawElemen:
; File C:\Program Files (x86)\Microsoft Visual Studio\2019\Community\VC\Tools\MSVC\14.29.30133\atlmfc\include\afxwin1.inl

; 366  : 		return (hObject != NULL) ? ::SelectObject(m_hDC, hObject) : NULL; }

  001e6	85 ff		 test	 edi, edi
  001e8	74 0a		 je	 SHORT $LN54@DrawElemen
  001ea	57		 push	 edi
  001eb	ff 76 04	 push	 DWORD PTR [esi+4]
  001ee	ff 15 00 00 00
	00		 call	 DWORD PTR __imp__SelectObject@8
$LN54@DrawElemen:

; 130  : 	{ }

  001f4	8d 4d d0	 lea	 ecx, DWORD PTR _brBrush$[ebp]
  001f7	c7 45 d0 00 00
	00 00		 mov	 DWORD PTR _brBrush$[ebp], OFFSET ??_7CBrush@@6B@
  001fe	e8 00 00 00 00	 call	 ??1CGdiObject@@UAE@XZ	; CGdiObject::~CGdiObject

; 106  : 	{ }

  00203	8d 4d d8	 lea	 ecx, DWORD PTR _pnPen$[ebp]
  00206	c7 45 d8 00 00
	00 00		 mov	 DWORD PTR _pnPen$[ebp], OFFSET ??_7CPen@@6B@
  0020d	e8 00 00 00 00	 call	 ??1CGdiObject@@UAE@XZ	; CGdiObject::~CGdiObject
; File D:\git\src\IBK\IBK_DRFN\ProjSrc\SrcChartEx\ChartOCX\GraphDraw\Draw.cpp

; 798  : }

  00212	8b 4d f4	 mov	 ecx, DWORD PTR __$EHRec$[ebp]
  00215	64 89 0d 00 00
	00 00		 mov	 DWORD PTR fs:0, ecx
  0021c	59		 pop	 ecx
  0021d	5f		 pop	 edi
  0021e	5e		 pop	 esi
  0021f	5b		 pop	 ebx
  00220	8b 4d f0	 mov	 ecx, DWORD PTR __$ArrayPad$[ebp]
  00223	33 cd		 xor	 ecx, ebp
  00225	e8 00 00 00 00	 call	 @__security_check_cookie@4
  0022a	8b e5		 mov	 esp, ebp
  0022c	5d		 pop	 ebp
  0022d	c2 2c 00	 ret	 44			; 0000002cH
$LN64@DrawElemen:
  00230	00 00 00 00	 DD	 $LN6@DrawElemen
  00234	00 00 00 00	 DD	 $LN7@DrawElemen
  00238	00 00 00 00	 DD	 $LN8@DrawElemen
  0023c	00 00 00 00	 DD	 $LN9@DrawElemen
_TEXT	ENDS
;	COMDAT text$x
text$x	SEGMENT
__unwindfunclet$?DrawElement_DrawPolygon@CDraw@@IAEXPAVCDC@@ABH1PAUtagPOINT@@PBKPAH1ABK11ABW4LINEDRAWSTYLE@CGraphBaseData@@@Z$0:
  00000	8d 4d d8	 lea	 ecx, DWORD PTR _pnPen$[ebp]
  00003	e9 00 00 00 00	 jmp	 ??1CPen@@UAE@XZ		; CPen::~CPen
__unwindfunclet$?DrawElement_DrawPolygon@CDraw@@IAEXPAVCDC@@ABH1PAUtagPOINT@@PBKPAH1ABK11ABW4LINEDRAWSTYLE@CGraphBaseData@@@Z$1:
  00008	8d 4d d0	 lea	 ecx, DWORD PTR _brBrush$[ebp]
  0000b	e9 00 00 00 00	 jmp	 ??1CBrush@@UAE@XZ	; CBrush::~CBrush
  00010	cc		 int	 3
  00011	cc		 int	 3
  00012	cc		 int	 3
  00013	cc		 int	 3
  00014	cc		 int	 3
__ehhandler$?DrawElement_DrawPolygon@CDraw@@IAEXPAVCDC@@ABH1PAUtagPOINT@@PBKPAH1ABK11ABW4LINEDRAWSTYLE@CGraphBaseData@@@Z:
  00015	90		 npad	 1
  00016	90		 npad	 1
  00017	8b 54 24 08	 mov	 edx, DWORD PTR [esp+8]
  0001b	8d 42 0c	 lea	 eax, DWORD PTR [edx+12]
  0001e	8b 4a b4	 mov	 ecx, DWORD PTR [edx-76]
  00021	33 c8		 xor	 ecx, eax
  00023	e8 00 00 00 00	 call	 @__security_check_cookie@4
  00028	8b 4a fc	 mov	 ecx, DWORD PTR [edx-4]
  0002b	33 c8		 xor	 ecx, eax
  0002d	e8 00 00 00 00	 call	 @__security_check_cookie@4
  00032	b8 00 00 00 00	 mov	 eax, OFFSET __ehfuncinfo$?DrawElement_DrawPolygon@CDraw@@IAEXPAVCDC@@ABH1PAUtagPOINT@@PBKPAH1ABK11ABW4LINEDRAWSTYLE@CGraphBaseData@@@Z
  00037	e9 00 00 00 00	 jmp	 ___CxxFrameHandler3
text$x	ENDS
?DrawElement_DrawPolygon@CDraw@@IAEXPAVCDC@@ABH1PAUtagPOINT@@PBKPAH1ABK11ABW4LINEDRAWSTYLE@CGraphBaseData@@@Z ENDP ; CDraw::DrawElement_DrawPolygon
; Function compile flags: /Ogtp
; File D:\git\src\IBK\IBK_DRFN\ProjSrc\SrcChartEx\ChartOCX\GraphDraw\Draw.cpp
;	COMDAT ?GetThickness@CDraw@@IBEHHABN@Z
_TEXT	SEGMENT
_nThickness$ = 8					; size = 4
_dWidth$ = 12						; size = 4
?GetThickness@CDraw@@IBEHHABN@Z PROC			; CDraw::GetThickness, COMDAT
; _this$ = ecx

; 725  : {

  00000	55		 push	 ebp
  00001	8b ec		 mov	 ebp, esp

; 726  : 	if(dWidth <= nThickness * 3)

  00003	8b 45 08	 mov	 eax, DWORD PTR _nThickness$[ebp]
  00006	ba 01 00 00 00	 mov	 edx, 1
  0000b	8d 0c 40	 lea	 ecx, DWORD PTR [eax+eax*2]
  0000e	66 0f 6e c1	 movd	 xmm0, ecx
  00012	8b 4d 0c	 mov	 ecx, DWORD PTR _dWidth$[ebp]
  00015	f3 0f e6 c0	 cvtdq2pd xmm0, xmm0
  00019	66 0f 2f 01	 comisd	 xmm0, QWORD PTR [ecx]
  0001d	0f 43 c2	 cmovae	 eax, edx

; 727  : 		return 1;
; 728  : 
; 729  : 	return nThickness;
; 730  : }

  00020	5d		 pop	 ebp
  00021	c2 08 00	 ret	 8
?GetThickness@CDraw@@IBEHHABN@Z ENDP			; CDraw::GetThickness
_TEXT	ENDS
; Function compile flags: /Ogtp
; File D:\git\src\IBK\IBK_DRFN\ProjSrc\SrcChartEx\ChartOCX\GraphDraw\Draw.cpp
;	COMDAT ?CalcMidPoint@CDraw@@IAE?BHABHABVCPoint@@1@Z
_TEXT	SEGMENT
_X1$1$ = -8						; size = 8
_nBase$ = 8						; size = 4
_lPt$ = 12						; size = 4
_rPt$ = 16						; size = 4
?CalcMidPoint@CDraw@@IAE?BHABHABVCPoint@@1@Z PROC	; CDraw::CalcMidPoint, COMDAT
; _this$ = ecx

; 719  : {

  00000	55		 push	 ebp
  00001	8b ec		 mov	 ebp, esp
  00003	83 ec 08	 sub	 esp, 8

; 720  : 	double X1=lPt.x, Y1=lPt.y, Y2=nBase, X3=rPt.x, Y3=rPt.y;

  00006	8b 45 0c	 mov	 eax, DWORD PTR _lPt$[ebp]

; 721  : 	return CMath::Round( ( Y2 -Y1) / ( Y3 - Y1) * ( X3 - X1)) + X1;

  00009	83 ec 08	 sub	 esp, 8
  0000c	66 0f 6e 20	 movd	 xmm4, DWORD PTR [eax]
  00010	66 0f 6e 50 04	 movd	 xmm2, DWORD PTR [eax+4]
  00015	8b 45 08	 mov	 eax, DWORD PTR _nBase$[ebp]
  00018	f3 0f e6 d2	 cvtdq2pd xmm2, xmm2
  0001c	66 0f 6e 18	 movd	 xmm3, DWORD PTR [eax]
  00020	8b 45 10	 mov	 eax, DWORD PTR _rPt$[ebp]
  00023	f3 0f e6 db	 cvtdq2pd xmm3, xmm3
  00027	66 0f 6e 40 04	 movd	 xmm0, DWORD PTR [eax+4]
  0002c	f3 0f e6 c0	 cvtdq2pd xmm0, xmm0
  00030	f2 0f 5c da	 subsd	 xmm3, xmm2
  00034	66 0f 6e 08	 movd	 xmm1, DWORD PTR [eax]
  00038	f2 0f 5c c2	 subsd	 xmm0, xmm2
  0003c	f3 0f e6 e4	 cvtdq2pd xmm4, xmm4
  00040	f2 0f 5e d8	 divsd	 xmm3, xmm0
  00044	f3 0f e6 c9	 cvtdq2pd xmm1, xmm1
  00048	f2 0f 11 65 f8	 movsd	 QWORD PTR _X1$1$[ebp], xmm4
  0004d	f2 0f 5c cc	 subsd	 xmm1, xmm4
  00051	f2 0f 59 d9	 mulsd	 xmm3, xmm1
  00055	f2 0f 11 1c 24	 movsd	 QWORD PTR [esp], xmm3
  0005a	e8 00 00 00 00	 call	 ?Round@CMath@@SAHN@Z	; CMath::Round
  0005f	83 c4 08	 add	 esp, 8
  00062	66 0f 6e c0	 movd	 xmm0, eax
  00066	f3 0f e6 c0	 cvtdq2pd xmm0, xmm0
  0006a	f2 0f 58 45 f8	 addsd	 xmm0, QWORD PTR _X1$1$[ebp]
  0006f	f2 0f 2c c0	 cvttsd2si eax, xmm0

; 722  : }

  00073	8b e5		 mov	 esp, ebp
  00075	5d		 pop	 ebp
  00076	c2 0c 00	 ret	 12			; 0000000cH
?CalcMidPoint@CDraw@@IAE?BHABHABVCPoint@@1@Z ENDP	; CDraw::CalcMidPoint
_TEXT	ENDS
; Function compile flags: /Ogtp
; File D:\git\src\IBK\IBK_DRFN\ProjSrc\SrcChartEx\ChartOCX\GraphDraw\Draw.cpp
; File C:\Program Files (x86)\Microsoft Visual Studio\2019\Community\VC\Tools\MSVC\14.29.30133\atlmfc\include\atlsimpstr.h
; File D:\git\src\IBK\IBK_DRFN\ProjSrc\SrcChartEx\ChartOCX\GraphDraw\Draw.cpp
; File C:\Program Files (x86)\Microsoft Visual Studio\2019\Community\VC\Tools\MSVC\14.29.30133\atlmfc\include\afxwin1.inl
; File C:\Program Files (x86)\Microsoft Visual Studio\2019\Community\VC\Tools\MSVC\14.29.30133\atlmfc\include\atlsimpstr.h
; File C:\Program Files (x86)\Microsoft Visual Studio\2019\Community\VC\Tools\MSVC\14.29.30133\atlmfc\include\afxwin1.inl
; File D:\git\src\IBK\IBK_DRFN\ProjSrc\SrcChartEx\ChartOCX\GraphDraw\Draw.cpp
; File C:\Program Files (x86)\Microsoft Visual Studio\2019\Community\VC\Tools\MSVC\14.29.30133\atlmfc\include\afxwin1.inl
; File D:\git\src\IBK\IBK_DRFN\ProjSrc\SrcChartEx\ChartOCX\GraphDraw\Draw.cpp
; File C:\Program Files (x86)\Microsoft Visual Studio\2019\Community\VC\Tools\MSVC\14.29.30133\atlmfc\include\afxwin1.inl
; File D:\git\src\IBK\IBK_DRFN\ProjSrc\SrcChartEx\ChartOCX\GraphDraw\Draw.cpp
; File C:\Program Files (x86)\Microsoft Visual Studio\2019\Community\VC\Tools\MSVC\14.29.30133\atlmfc\include\afxwin1.inl
; File D:\git\src\IBK\IBK_DRFN\ProjSrc\SrcChartEx\ChartOCX\GraphDraw\Draw.cpp
; File C:\Program Files (x86)\Microsoft Visual Studio\2019\Community\VC\Tools\MSVC\14.29.30133\atlmfc\include\afxwin1.inl
; File D:\git\src\IBK\IBK_DRFN\ProjSrc\SrcChartEx\ChartOCX\GraphDraw\Draw.cpp
; File C:\Program Files (x86)\Microsoft Visual Studio\2019\Community\VC\Tools\MSVC\14.29.30133\atlmfc\include\afxwin1.inl
; File D:\git\src\IBK\IBK_DRFN\ProjSrc\SrcChartEx\ChartOCX\GraphDraw\Draw.cpp
; File C:\Program Files (x86)\Microsoft Visual Studio\2019\Community\VC\Tools\MSVC\14.29.30133\atlmfc\include\afxwin1.inl
; File D:\git\src\IBK\IBK_DRFN\ProjSrc\SrcChartEx\ChartOCX\GraphDraw\Draw.cpp
;	COMDAT ?DrawPriceMinText@CDraw@@IAEXPAVCDC@@ABVCRect@@ABVCGraphColor@@ABV?$CStringT@DV?$StrTraitMFC_DLL@DV?$ChTraitsCRT@D@ATL@@@@@ATL@@HHAB_N@Z
_TEXT	SEGMENT
_size$1 = -16						; size = 8
_textClr$1$ = -8					; size = 4
_this$1$ = -4						; size = 4
_pDC$ = 8						; size = 4
tv496 = 11						; size = 1
tv507 = 12						; size = 4
_graphRegion$ = 12					; size = 4
_graphColor$ = 16					; size = 4
tv500 = 20						; size = 4
_strData$ = 20						; size = 4
_nViewX$ = 24						; size = 4
_nViewY$ = 28						; size = 4
_bInvert$ = 32						; size = 4
?DrawPriceMinText@CDraw@@IAEXPAVCDC@@ABVCRect@@ABVCGraphColor@@ABV?$CStringT@DV?$StrTraitMFC_DLL@DV?$ChTraitsCRT@D@ATL@@@@@ATL@@HHAB_N@Z PROC ; CDraw::DrawPriceMinText, COMDAT
; _this$ = ecx

; 689  : {

  00000	55		 push	 ebp
  00001	8b ec		 mov	 ebp, esp
  00003	83 ec 10	 sub	 esp, 16			; 00000010H
  00006	53		 push	 ebx
  00007	56		 push	 esi
  00008	57		 push	 edi

; 690  : 	COLORREF textClr = pDC->SetTextColor(graphColor.GetColor3());

  00009	8b 7d 08	 mov	 edi, DWORD PTR _pDC$[ebp]
  0000c	89 4d fc	 mov	 DWORD PTR _this$1$[ebp], ecx
  0000f	8b 4d 10	 mov	 ecx, DWORD PTR _graphColor$[ebp]
  00012	8b 37		 mov	 esi, DWORD PTR [edi]
  00014	ff 15 00 00 00
	00		 call	 DWORD PTR __imp_?GetColor3@CGraphColor@@QBEKXZ
  0001a	50		 push	 eax
  0001b	8b cf		 mov	 ecx, edi
  0001d	ff 56 38	 call	 DWORD PTR [esi+56]
; File C:\Program Files (x86)\Microsoft Visual Studio\2019\Community\VC\Tools\MSVC\14.29.30133\atlmfc\include\atlsimpstr.h

; 519  : 		return( GetData()->nDataLength );

  00020	8b 75 14	 mov	 esi, DWORD PTR _strData$[ebp]
; File D:\git\src\IBK\IBK_DRFN\ProjSrc\SrcChartEx\ChartOCX\GraphDraw\Draw.cpp

; 690  : 	COLORREF textClr = pDC->SetTextColor(graphColor.GetColor3());

  00023	89 45 f8	 mov	 DWORD PTR _textClr$1$[ebp], eax
; File C:\Program Files (x86)\Microsoft Visual Studio\2019\Community\VC\Tools\MSVC\14.29.30133\atlmfc\include\afxwin1.inl

; 639  : 		VERIFY(::GetTextExtentPoint32(m_hAttribDC, str, (int)str.GetLength(), &size));

  00026	8d 45 f0	 lea	 eax, DWORD PTR _size$1[ebp]
  00029	50		 push	 eax
; File C:\Program Files (x86)\Microsoft Visual Studio\2019\Community\VC\Tools\MSVC\14.29.30133\atlmfc\include\atlsimpstr.h

; 519  : 		return( GetData()->nDataLength );

  0002a	8b 0e		 mov	 ecx, DWORD PTR [esi]
; File C:\Program Files (x86)\Microsoft Visual Studio\2019\Community\VC\Tools\MSVC\14.29.30133\atlmfc\include\afxwin1.inl

; 639  : 		VERIFY(::GetTextExtentPoint32(m_hAttribDC, str, (int)str.GetLength(), &size));

  0002c	ff 71 f4	 push	 DWORD PTR [ecx-12]
  0002f	51		 push	 ecx
  00030	ff 77 08	 push	 DWORD PTR [edi+8]
  00033	ff 15 00 00 00
	00		 call	 DWORD PTR __imp__GetTextExtentPoint32A@16
; File D:\git\src\IBK\IBK_DRFN\ProjSrc\SrcChartEx\ChartOCX\GraphDraw\Draw.cpp

; 693  : 	bool bToLeft = ( ( graphRegion.left + graphRegion.right) / 2 < nViewX);

  00039	8b 4d 0c	 mov	 ecx, DWORD PTR _graphRegion$[ebp]

; 694  : 	if( bToLeft)

  0003c	8b 5d 18	 mov	 ebx, DWORD PTR _nViewX$[ebp]
  0003f	8b 41 08	 mov	 eax, DWORD PTR [ecx+8]
  00042	03 01		 add	 eax, DWORD PTR [ecx]
  00044	8b 0e		 mov	 ecx, DWORD PTR [esi]
  00046	8b 75 1c	 mov	 esi, DWORD PTR _nViewY$[ebp]
  00049	99		 cdq
  0004a	2b c2		 sub	 eax, edx
  0004c	ff 71 f4	 push	 DWORD PTR [ecx-12]
  0004f	8b d0		 mov	 edx, eax
  00051	8b 45 20	 mov	 eax, DWORD PTR _bInvert$[ebp]
  00054	d1 fa		 sar	 edx, 1
  00056	51		 push	 ecx
  00057	89 55 0c	 mov	 DWORD PTR tv507[ebp], edx
  0005a	8b cf		 mov	 ecx, edi
  0005c	8a 00		 mov	 al, BYTE PTR [eax]
  0005e	88 45 0b	 mov	 BYTE PTR tv496[ebp], al
  00061	8b 07		 mov	 eax, DWORD PTR [edi]
  00063	83 c0 64	 add	 eax, 100		; 00000064H
  00066	89 45 14	 mov	 DWORD PTR tv500[ebp], eax
  00069	3b d3		 cmp	 edx, ebx
  0006b	7d 2f		 jge	 SHORT $LN2@DrawPriceM

; 695  : 	{
; 696  : 		if(bInvert)

  0006d	80 7d 0b 00	 cmp	 BYTE PTR tv496[ebp], 0
  00071	8b 10		 mov	 edx, DWORD PTR [eax]
  00073	74 16		 je	 SHORT $LN4@DrawPriceM
; File C:\Program Files (x86)\Microsoft Visual Studio\2019\Community\VC\Tools\MSVC\14.29.30133\atlmfc\include\afxwin1.inl

; 574  : 	{ ASSERT(m_hDC != NULL); return TextOut(x, y, (LPCTSTR)str, (int)str.GetLength()); } // call virtual

  00075	8b c6		 mov	 eax, esi
  00077	2b 45 f4	 sub	 eax, DWORD PTR _size$1[ebp+4]
; File D:\git\src\IBK\IBK_DRFN\ProjSrc\SrcChartEx\ChartOCX\GraphDraw\Draw.cpp

; 697  : 			pDC->TextOut(nViewX - g_nArrowLength - 2 - size.cx, nViewY - size.cy -2, strData);

  0007a	83 e8 02	 sub	 eax, 2
; File C:\Program Files (x86)\Microsoft Visual Studio\2019\Community\VC\Tools\MSVC\14.29.30133\atlmfc\include\afxwin1.inl

; 574  : 	{ ASSERT(m_hDC != NULL); return TextOut(x, y, (LPCTSTR)str, (int)str.GetLength()); } // call virtual

  0007d	50		 push	 eax
  0007e	8b c3		 mov	 eax, ebx
  00080	2b 45 f0	 sub	 eax, DWORD PTR _size$1[ebp]
; File D:\git\src\IBK\IBK_DRFN\ProjSrc\SrcChartEx\ChartOCX\GraphDraw\Draw.cpp

; 697  : 			pDC->TextOut(nViewX - g_nArrowLength - 2 - size.cx, nViewY - size.cy -2, strData);

  00083	83 e8 0d	 sub	 eax, 13			; 0000000dH
; File C:\Program Files (x86)\Microsoft Visual Studio\2019\Community\VC\Tools\MSVC\14.29.30133\atlmfc\include\afxwin1.inl

; 574  : 	{ ASSERT(m_hDC != NULL); return TextOut(x, y, (LPCTSTR)str, (int)str.GetLength()); } // call virtual

  00086	50		 push	 eax
  00087	ff d2		 call	 edx
; File D:\git\src\IBK\IBK_DRFN\ProjSrc\SrcChartEx\ChartOCX\GraphDraw\Draw.cpp

; 697  : 			pDC->TextOut(nViewX - g_nArrowLength - 2 - size.cx, nViewY - size.cy -2, strData);

  00089	eb 30		 jmp	 SHORT $LN7@DrawPriceM
$LN4@DrawPriceM:

; 699  : 			pDC->TextOut(nViewX - g_nArrowLength - 2 - size.cx, nViewY +2, strData);

  0008b	8d 46 02	 lea	 eax, DWORD PTR [esi+2]
; File C:\Program Files (x86)\Microsoft Visual Studio\2019\Community\VC\Tools\MSVC\14.29.30133\atlmfc\include\afxwin1.inl

; 574  : 	{ ASSERT(m_hDC != NULL); return TextOut(x, y, (LPCTSTR)str, (int)str.GetLength()); } // call virtual

  0008e	50		 push	 eax
  0008f	8b c3		 mov	 eax, ebx
  00091	2b 45 f0	 sub	 eax, DWORD PTR _size$1[ebp]
; File D:\git\src\IBK\IBK_DRFN\ProjSrc\SrcChartEx\ChartOCX\GraphDraw\Draw.cpp

; 699  : 			pDC->TextOut(nViewX - g_nArrowLength - 2 - size.cx, nViewY +2, strData);

  00094	83 e8 0d	 sub	 eax, 13			; 0000000dH
; File C:\Program Files (x86)\Microsoft Visual Studio\2019\Community\VC\Tools\MSVC\14.29.30133\atlmfc\include\afxwin1.inl

; 574  : 	{ ASSERT(m_hDC != NULL); return TextOut(x, y, (LPCTSTR)str, (int)str.GetLength()); } // call virtual

  00097	50		 push	 eax
  00098	ff d2		 call	 edx
; File D:\git\src\IBK\IBK_DRFN\ProjSrc\SrcChartEx\ChartOCX\GraphDraw\Draw.cpp

; 700  : 	}

  0009a	eb 1f		 jmp	 SHORT $LN7@DrawPriceM
$LN2@DrawPriceM:

; 701  : 	else
; 702  : 	{
; 703  : 		if(bInvert)

  0009c	80 7d 0b 00	 cmp	 BYTE PTR tv496[ebp], 0
  000a0	8d 53 0d	 lea	 edx, DWORD PTR [ebx+13]
  000a3	74 0a		 je	 SHORT $LN6@DrawPriceM
; File C:\Program Files (x86)\Microsoft Visual Studio\2019\Community\VC\Tools\MSVC\14.29.30133\atlmfc\include\afxwin1.inl

; 574  : 	{ ASSERT(m_hDC != NULL); return TextOut(x, y, (LPCTSTR)str, (int)str.GetLength()); } // call virtual

  000a5	8b c6		 mov	 eax, esi
  000a7	2b 45 f4	 sub	 eax, DWORD PTR _size$1[ebp+4]
; File D:\git\src\IBK\IBK_DRFN\ProjSrc\SrcChartEx\ChartOCX\GraphDraw\Draw.cpp

; 704  : 			pDC->TextOut(nViewX + g_nArrowLength + 2, nViewY - size.cy -3, strData);

  000aa	83 e8 03	 sub	 eax, 3
  000ad	eb 03		 jmp	 SHORT $LN53@DrawPriceM
$LN6@DrawPriceM:

; 705  : 		else
; 706  : 			pDC->TextOut(nViewX + g_nArrowLength + 2, nViewY +5, strData);

  000af	8d 46 05	 lea	 eax, DWORD PTR [esi+5]
$LN53@DrawPriceM:

; 707  : 	}
; 708  : 
; 709  : 	//pDC->SelectObject(brushArray[DOWN_BRUSH]);
; 710  : 	//pDC->SelectObject(penArray[DOWN_PEN]);
; 711  : 	DrawArrow(pDC, CPoint(nViewX, nViewY), bToLeft, bInvert, size, graphColor.GetColor3());

  000b2	50		 push	 eax
  000b3	52		 push	 edx
  000b4	8b 55 14	 mov	 edx, DWORD PTR tv500[ebp]
  000b7	8b 02		 mov	 eax, DWORD PTR [edx]
  000b9	ff d0		 call	 eax
$LN7@DrawPriceM:
  000bb	8b 4d 10	 mov	 ecx, DWORD PTR _graphColor$[ebp]
  000be	6a 08		 push	 8
  000c0	6a 0b		 push	 11			; 0000000bH
  000c2	ff 15 00 00 00
	00		 call	 DWORD PTR __imp_?GetColor3@CGraphColor@@QBEKXZ
  000c8	50		 push	 eax
  000c9	ff 75 f4	 push	 DWORD PTR _size$1[ebp+4]
  000cc	8b 45 20	 mov	 eax, DWORD PTR _bInvert$[ebp]
  000cf	ff 75 f0	 push	 DWORD PTR _size$1[ebp]
  000d2	8b 4d fc	 mov	 ecx, DWORD PTR _this$1$[ebp]
  000d5	0f b6 00	 movzx	 eax, BYTE PTR [eax]
  000d8	50		 push	 eax
  000d9	33 c0		 xor	 eax, eax
  000db	39 5d 0c	 cmp	 DWORD PTR tv507[ebp], ebx
  000de	0f 9c c0	 setl	 al
  000e1	50		 push	 eax
  000e2	56		 push	 esi
  000e3	53		 push	 ebx
  000e4	57		 push	 edi
  000e5	e8 00 00 00 00	 call	 ?DrawArrow@CDraw@@IAEXPAVCDC@@VCPoint@@HHUtagSIZE@@KHH@Z ; CDraw::DrawArrow

; 712  : 
; 713  : 	pDC->SetTextColor(textClr);

  000ea	8b 07		 mov	 eax, DWORD PTR [edi]
  000ec	8b cf		 mov	 ecx, edi
  000ee	ff 75 f8	 push	 DWORD PTR _textClr$1$[ebp]
  000f1	ff 50 38	 call	 DWORD PTR [eax+56]
  000f4	5f		 pop	 edi
  000f5	5e		 pop	 esi
  000f6	5b		 pop	 ebx

; 714  : }

  000f7	8b e5		 mov	 esp, ebp
  000f9	5d		 pop	 ebp
  000fa	c2 1c 00	 ret	 28			; 0000001cH
?DrawPriceMinText@CDraw@@IAEXPAVCDC@@ABVCRect@@ABVCGraphColor@@ABV?$CStringT@DV?$StrTraitMFC_DLL@DV?$ChTraitsCRT@D@ATL@@@@@ATL@@HHAB_N@Z ENDP ; CDraw::DrawPriceMinText
_TEXT	ENDS
; Function compile flags: /Ogtp
; File D:\git\src\IBK\IBK_DRFN\ProjSrc\SrcChartEx\ChartOCX\GraphDraw\Draw.cpp
; File C:\Program Files (x86)\Microsoft Visual Studio\2019\Community\VC\Tools\MSVC\14.29.30133\atlmfc\include\atlsimpstr.h
; File D:\git\src\IBK\IBK_DRFN\ProjSrc\SrcChartEx\ChartOCX\GraphDraw\Draw.cpp
; File C:\Program Files (x86)\Microsoft Visual Studio\2019\Community\VC\Tools\MSVC\14.29.30133\atlmfc\include\afxwin1.inl
; File C:\Program Files (x86)\Microsoft Visual Studio\2019\Community\VC\Tools\MSVC\14.29.30133\atlmfc\include\atlsimpstr.h
; File C:\Program Files (x86)\Microsoft Visual Studio\2019\Community\VC\Tools\MSVC\14.29.30133\atlmfc\include\afxwin1.inl
; File D:\git\src\IBK\IBK_DRFN\ProjSrc\SrcChartEx\ChartOCX\GraphDraw\Draw.cpp
; File C:\Program Files (x86)\Microsoft Visual Studio\2019\Community\VC\Tools\MSVC\14.29.30133\atlmfc\include\afxwin1.inl
; File D:\git\src\IBK\IBK_DRFN\ProjSrc\SrcChartEx\ChartOCX\GraphDraw\Draw.cpp
; File C:\Program Files (x86)\Microsoft Visual Studio\2019\Community\VC\Tools\MSVC\14.29.30133\atlmfc\include\afxwin1.inl
; File D:\git\src\IBK\IBK_DRFN\ProjSrc\SrcChartEx\ChartOCX\GraphDraw\Draw.cpp
; File C:\Program Files (x86)\Microsoft Visual Studio\2019\Community\VC\Tools\MSVC\14.29.30133\atlmfc\include\afxwin1.inl
; File D:\git\src\IBK\IBK_DRFN\ProjSrc\SrcChartEx\ChartOCX\GraphDraw\Draw.cpp
; File C:\Program Files (x86)\Microsoft Visual Studio\2019\Community\VC\Tools\MSVC\14.29.30133\atlmfc\include\afxwin1.inl
; File D:\git\src\IBK\IBK_DRFN\ProjSrc\SrcChartEx\ChartOCX\GraphDraw\Draw.cpp
; File C:\Program Files (x86)\Microsoft Visual Studio\2019\Community\VC\Tools\MSVC\14.29.30133\atlmfc\include\afxwin1.inl
; File D:\git\src\IBK\IBK_DRFN\ProjSrc\SrcChartEx\ChartOCX\GraphDraw\Draw.cpp
; File C:\Program Files (x86)\Microsoft Visual Studio\2019\Community\VC\Tools\MSVC\14.29.30133\atlmfc\include\afxwin1.inl
; File D:\git\src\IBK\IBK_DRFN\ProjSrc\SrcChartEx\ChartOCX\GraphDraw\Draw.cpp
;	COMDAT ?DrawPriceMaxText@CDraw@@IAEXPAVCDC@@ABVCRect@@ABVCGraphColor@@ABV?$CStringT@DV?$StrTraitMFC_DLL@DV?$ChTraitsCRT@D@ATL@@@@@ATL@@HHAB_N@Z
_TEXT	SEGMENT
_size$1 = -16						; size = 8
_textClr$1$ = -8					; size = 4
_this$1$ = -4						; size = 4
_pDC$ = 8						; size = 4
tv491 = 11						; size = 1
tv502 = 12						; size = 4
_graphRegion$ = 12					; size = 4
_graphColor$ = 16					; size = 4
tv494 = 20						; size = 4
_strData$ = 20						; size = 4
_nViewX$ = 24						; size = 4
_nViewY$ = 28						; size = 4
_bInvert$ = 32						; size = 4
?DrawPriceMaxText@CDraw@@IAEXPAVCDC@@ABVCRect@@ABVCGraphColor@@ABV?$CStringT@DV?$StrTraitMFC_DLL@DV?$ChTraitsCRT@D@ATL@@@@@ATL@@HHAB_N@Z PROC ; CDraw::DrawPriceMaxText, COMDAT
; _this$ = ecx

; 662  : {

  00000	55		 push	 ebp
  00001	8b ec		 mov	 ebp, esp
  00003	83 ec 10	 sub	 esp, 16			; 00000010H
  00006	53		 push	 ebx
  00007	56		 push	 esi
  00008	57		 push	 edi

; 663  : 	COLORREF textClr = pDC->SetTextColor(graphColor.GetColor1());

  00009	8b 7d 08	 mov	 edi, DWORD PTR _pDC$[ebp]
  0000c	89 4d fc	 mov	 DWORD PTR _this$1$[ebp], ecx
  0000f	8b 4d 10	 mov	 ecx, DWORD PTR _graphColor$[ebp]
  00012	8b 37		 mov	 esi, DWORD PTR [edi]
  00014	ff 15 00 00 00
	00		 call	 DWORD PTR __imp_?GetColor1@CGraphColor@@QBEKXZ
  0001a	50		 push	 eax
  0001b	8b cf		 mov	 ecx, edi
  0001d	ff 56 38	 call	 DWORD PTR [esi+56]
; File C:\Program Files (x86)\Microsoft Visual Studio\2019\Community\VC\Tools\MSVC\14.29.30133\atlmfc\include\atlsimpstr.h

; 519  : 		return( GetData()->nDataLength );

  00020	8b 75 14	 mov	 esi, DWORD PTR _strData$[ebp]
; File D:\git\src\IBK\IBK_DRFN\ProjSrc\SrcChartEx\ChartOCX\GraphDraw\Draw.cpp

; 663  : 	COLORREF textClr = pDC->SetTextColor(graphColor.GetColor1());

  00023	89 45 f8	 mov	 DWORD PTR _textClr$1$[ebp], eax
; File C:\Program Files (x86)\Microsoft Visual Studio\2019\Community\VC\Tools\MSVC\14.29.30133\atlmfc\include\afxwin1.inl

; 639  : 		VERIFY(::GetTextExtentPoint32(m_hAttribDC, str, (int)str.GetLength(), &size));

  00026	8d 45 f0	 lea	 eax, DWORD PTR _size$1[ebp]
  00029	50		 push	 eax
; File C:\Program Files (x86)\Microsoft Visual Studio\2019\Community\VC\Tools\MSVC\14.29.30133\atlmfc\include\atlsimpstr.h

; 519  : 		return( GetData()->nDataLength );

  0002a	8b 0e		 mov	 ecx, DWORD PTR [esi]
; File C:\Program Files (x86)\Microsoft Visual Studio\2019\Community\VC\Tools\MSVC\14.29.30133\atlmfc\include\afxwin1.inl

; 639  : 		VERIFY(::GetTextExtentPoint32(m_hAttribDC, str, (int)str.GetLength(), &size));

  0002c	ff 71 f4	 push	 DWORD PTR [ecx-12]
  0002f	51		 push	 ecx
  00030	ff 77 08	 push	 DWORD PTR [edi+8]
  00033	ff 15 00 00 00
	00		 call	 DWORD PTR __imp__GetTextExtentPoint32A@16
; File D:\git\src\IBK\IBK_DRFN\ProjSrc\SrcChartEx\ChartOCX\GraphDraw\Draw.cpp

; 666  : 	bool bToLeft = ( ( graphRegion.left + graphRegion.right) / 2 < nViewX);

  00039	8b 4d 0c	 mov	 ecx, DWORD PTR _graphRegion$[ebp]

; 667  : 	if( bToLeft)

  0003c	8b 5d 18	 mov	 ebx, DWORD PTR _nViewX$[ebp]
  0003f	8b 41 08	 mov	 eax, DWORD PTR [ecx+8]
  00042	03 01		 add	 eax, DWORD PTR [ecx]
  00044	8b 0e		 mov	 ecx, DWORD PTR [esi]
  00046	8b 75 1c	 mov	 esi, DWORD PTR _nViewY$[ebp]
  00049	99		 cdq
  0004a	2b c2		 sub	 eax, edx
  0004c	ff 71 f4	 push	 DWORD PTR [ecx-12]
  0004f	8b d0		 mov	 edx, eax
  00051	8b 45 20	 mov	 eax, DWORD PTR _bInvert$[ebp]
  00054	d1 fa		 sar	 edx, 1
  00056	51		 push	 ecx
  00057	89 55 0c	 mov	 DWORD PTR tv502[ebp], edx
  0005a	8b cf		 mov	 ecx, edi
  0005c	8a 00		 mov	 al, BYTE PTR [eax]
  0005e	88 45 0b	 mov	 BYTE PTR tv491[ebp], al
  00061	8b 07		 mov	 eax, DWORD PTR [edi]
  00063	83 c0 64	 add	 eax, 100		; 00000064H
  00066	89 45 14	 mov	 DWORD PTR tv494[ebp], eax
  00069	3b d3		 cmp	 edx, ebx
  0006b	7d 2f		 jge	 SHORT $LN2@DrawPriceM

; 668  : 	{
; 669  : 		if( bInvert)

  0006d	80 7d 0b 00	 cmp	 BYTE PTR tv491[ebp], 0
  00071	8b 10		 mov	 edx, DWORD PTR [eax]
  00073	74 11		 je	 SHORT $LN4@DrawPriceM

; 670  : 			pDC->TextOut(nViewX - g_nArrowLength - 2 - size.cx, nViewY + 5, strData);

  00075	8d 46 05	 lea	 eax, DWORD PTR [esi+5]
; File C:\Program Files (x86)\Microsoft Visual Studio\2019\Community\VC\Tools\MSVC\14.29.30133\atlmfc\include\afxwin1.inl

; 574  : 	{ ASSERT(m_hDC != NULL); return TextOut(x, y, (LPCTSTR)str, (int)str.GetLength()); } // call virtual

  00078	50		 push	 eax
  00079	8b c3		 mov	 eax, ebx
  0007b	2b 45 f0	 sub	 eax, DWORD PTR _size$1[ebp]
; File D:\git\src\IBK\IBK_DRFN\ProjSrc\SrcChartEx\ChartOCX\GraphDraw\Draw.cpp

; 670  : 			pDC->TextOut(nViewX - g_nArrowLength - 2 - size.cx, nViewY + 5, strData);

  0007e	83 e8 0d	 sub	 eax, 13			; 0000000dH
; File C:\Program Files (x86)\Microsoft Visual Studio\2019\Community\VC\Tools\MSVC\14.29.30133\atlmfc\include\afxwin1.inl

; 574  : 	{ ASSERT(m_hDC != NULL); return TextOut(x, y, (LPCTSTR)str, (int)str.GetLength()); } // call virtual

  00081	50		 push	 eax
  00082	ff d2		 call	 edx
; File D:\git\src\IBK\IBK_DRFN\ProjSrc\SrcChartEx\ChartOCX\GraphDraw\Draw.cpp

; 670  : 			pDC->TextOut(nViewX - g_nArrowLength - 2 - size.cx, nViewY + 5, strData);

  00084	eb 35		 jmp	 SHORT $LN7@DrawPriceM
$LN4@DrawPriceM:
; File C:\Program Files (x86)\Microsoft Visual Studio\2019\Community\VC\Tools\MSVC\14.29.30133\atlmfc\include\afxwin1.inl

; 574  : 	{ ASSERT(m_hDC != NULL); return TextOut(x, y, (LPCTSTR)str, (int)str.GetLength()); } // call virtual

  00086	8b c6		 mov	 eax, esi
  00088	2b 45 f4	 sub	 eax, DWORD PTR _size$1[ebp+4]
; File D:\git\src\IBK\IBK_DRFN\ProjSrc\SrcChartEx\ChartOCX\GraphDraw\Draw.cpp

; 672  : 			pDC->TextOut(nViewX - g_nArrowLength - 2 - size.cx, nViewY - size.cy -3, strData);

  0008b	83 e8 03	 sub	 eax, 3
; File C:\Program Files (x86)\Microsoft Visual Studio\2019\Community\VC\Tools\MSVC\14.29.30133\atlmfc\include\afxwin1.inl

; 574  : 	{ ASSERT(m_hDC != NULL); return TextOut(x, y, (LPCTSTR)str, (int)str.GetLength()); } // call virtual

  0008e	50		 push	 eax
  0008f	8b c3		 mov	 eax, ebx
  00091	2b 45 f0	 sub	 eax, DWORD PTR _size$1[ebp]
; File D:\git\src\IBK\IBK_DRFN\ProjSrc\SrcChartEx\ChartOCX\GraphDraw\Draw.cpp

; 672  : 			pDC->TextOut(nViewX - g_nArrowLength - 2 - size.cx, nViewY - size.cy -3, strData);

  00094	83 e8 0d	 sub	 eax, 13			; 0000000dH
; File C:\Program Files (x86)\Microsoft Visual Studio\2019\Community\VC\Tools\MSVC\14.29.30133\atlmfc\include\afxwin1.inl

; 574  : 	{ ASSERT(m_hDC != NULL); return TextOut(x, y, (LPCTSTR)str, (int)str.GetLength()); } // call virtual

  00097	50		 push	 eax
  00098	ff d2		 call	 edx
; File D:\git\src\IBK\IBK_DRFN\ProjSrc\SrcChartEx\ChartOCX\GraphDraw\Draw.cpp

; 673  : 	}

  0009a	eb 1f		 jmp	 SHORT $LN7@DrawPriceM
$LN2@DrawPriceM:

; 674  : 	else
; 675  : 	{
; 676  : 		if( bInvert)

  0009c	80 7d 0b 00	 cmp	 BYTE PTR tv491[ebp], 0
  000a0	8d 53 0d	 lea	 edx, DWORD PTR [ebx+13]
  000a3	74 05		 je	 SHORT $LN6@DrawPriceM

; 677  : 			pDC->TextOut(nViewX + g_nArrowLength + 2, nViewY +5, strData);

  000a5	8d 46 05	 lea	 eax, DWORD PTR [esi+5]
  000a8	eb 08		 jmp	 SHORT $LN53@DrawPriceM
$LN6@DrawPriceM:
; File C:\Program Files (x86)\Microsoft Visual Studio\2019\Community\VC\Tools\MSVC\14.29.30133\atlmfc\include\afxwin1.inl

; 574  : 	{ ASSERT(m_hDC != NULL); return TextOut(x, y, (LPCTSTR)str, (int)str.GetLength()); } // call virtual

  000aa	8b c6		 mov	 eax, esi
  000ac	2b 45 f4	 sub	 eax, DWORD PTR _size$1[ebp+4]
; File D:\git\src\IBK\IBK_DRFN\ProjSrc\SrcChartEx\ChartOCX\GraphDraw\Draw.cpp

; 679  : 			pDC->TextOut(nViewX + g_nArrowLength + 2, nViewY - size.cy -3, strData);

  000af	83 e8 03	 sub	 eax, 3
$LN53@DrawPriceM:

; 680  : 	}
; 681  : 
; 682  : 	//pDC->SelectObject(&brushArray[UP_BRUSH]);
; 683  : 	//pDC->SelectObject(&penArray[UP_PEN]);
; 684  : 	DrawArrow( pDC, CPoint( nViewX, nViewY), bToLeft, !bInvert, size, graphColor.GetColor1());

  000b2	50		 push	 eax
  000b3	52		 push	 edx
  000b4	8b 55 14	 mov	 edx, DWORD PTR tv494[ebp]
  000b7	8b 02		 mov	 eax, DWORD PTR [edx]
  000b9	ff d0		 call	 eax
$LN7@DrawPriceM:
  000bb	8b 4d 10	 mov	 ecx, DWORD PTR _graphColor$[ebp]
  000be	6a 08		 push	 8
  000c0	6a 0b		 push	 11			; 0000000bH
  000c2	ff 15 00 00 00
	00		 call	 DWORD PTR __imp_?GetColor1@CGraphColor@@QBEKXZ
  000c8	8b 4d 20	 mov	 ecx, DWORD PTR _bInvert$[ebp]
  000cb	50		 push	 eax
  000cc	ff 75 f4	 push	 DWORD PTR _size$1[ebp+4]
  000cf	33 c0		 xor	 eax, eax
  000d1	38 01		 cmp	 BYTE PTR [ecx], al
  000d3	ff 75 f0	 push	 DWORD PTR _size$1[ebp]
  000d6	8b 4d fc	 mov	 ecx, DWORD PTR _this$1$[ebp]
  000d9	0f 94 c0	 sete	 al
  000dc	50		 push	 eax
  000dd	33 c0		 xor	 eax, eax
  000df	39 5d 0c	 cmp	 DWORD PTR tv502[ebp], ebx
  000e2	0f 9c c0	 setl	 al
  000e5	50		 push	 eax
  000e6	56		 push	 esi
  000e7	53		 push	 ebx
  000e8	57		 push	 edi
  000e9	e8 00 00 00 00	 call	 ?DrawArrow@CDraw@@IAEXPAVCDC@@VCPoint@@HHUtagSIZE@@KHH@Z ; CDraw::DrawArrow

; 685  : 
; 686  : 	pDC->SetTextColor(textClr);

  000ee	8b 07		 mov	 eax, DWORD PTR [edi]
  000f0	8b cf		 mov	 ecx, edi
  000f2	ff 75 f8	 push	 DWORD PTR _textClr$1$[ebp]
  000f5	ff 50 38	 call	 DWORD PTR [eax+56]
  000f8	5f		 pop	 edi
  000f9	5e		 pop	 esi
  000fa	5b		 pop	 ebx

; 687  : }

  000fb	8b e5		 mov	 esp, ebp
  000fd	5d		 pop	 ebp
  000fe	c2 1c 00	 ret	 28			; 0000001cH
?DrawPriceMaxText@CDraw@@IAEXPAVCDC@@ABVCRect@@ABVCGraphColor@@ABV?$CStringT@DV?$StrTraitMFC_DLL@DV?$ChTraitsCRT@D@ATL@@@@@ATL@@HHAB_N@Z ENDP ; CDraw::DrawPriceMaxText
_TEXT	ENDS
; Function compile flags: /Ogtp
; File D:\git\src\IBK\IBK_DRFN\ProjSrc\SrcChartEx\ChartOCX\GraphDraw\Draw.cpp
; File C:\Program Files (x86)\Microsoft Visual Studio\2019\Community\VC\Tools\MSVC\14.29.30133\atlmfc\include\afxtempl.h
; File D:\git\src\IBK\IBK_DRFN\ProjSrc\SrcChartEx\ChartOCX\GraphDraw\Draw.cpp
; File C:\Program Files (x86)\Microsoft Visual Studio\2019\Community\VC\Tools\MSVC\14.29.30133\atlmfc\include\cstringt.h
; File D:\git\src\IBK\IBK_DRFN\ProjSrc\SrcChartEx\ChartOCX\GraphDraw\Draw.cpp
; File D:\git\src\IBK\IBK_DRFN\ProjSrc\SrcChartEx\ChartOCX\Include_Chart\Conversion.h
; File C:\Program Files (x86)\Microsoft Visual Studio\2019\Community\VC\Tools\MSVC\14.29.30133\atlmfc\include\cstringt.h
; File D:\git\src\IBK\IBK_DRFN\ProjSrc\SrcChartEx\ChartOCX\Include_Chart\Conversion.h
; File C:\Program Files (x86)\Microsoft Visual Studio\2019\Community\VC\Tools\MSVC\14.29.30133\atlmfc\include\cstringt.h
; File D:\git\src\IBK\IBK_DRFN\ProjSrc\SrcChartEx\ChartOCX\GraphDraw\Draw.cpp
; File C:\Program Files (x86)\Microsoft Visual Studio\2019\Community\VC\Tools\MSVC\14.29.30133\atlmfc\include\cstringt.h
; File D:\git\src\IBK\IBK_DRFN\ProjSrc\SrcChartEx\ChartOCX\GraphDraw\Draw.cpp
; File C:\Program Files (x86)\Microsoft Visual Studio\2019\Community\VC\Tools\MSVC\14.29.30133\atlmfc\include\cstringt.h
; File D:\git\src\IBK\IBK_DRFN\ProjSrc\SrcChartEx\ChartOCX\GraphDraw\Draw.cpp
; File C:\Program Files (x86)\Microsoft Visual Studio\2019\Community\VC\Tools\MSVC\14.29.30133\atlmfc\include\cstringt.h
; File C:\Program Files (x86)\Microsoft Visual Studio\2019\Community\VC\Tools\MSVC\14.29.30133\atlmfc\include\atlsimpstr.h
; File C:\Program Files (x86)\Microsoft Visual Studio\2019\Community\VC\Tools\MSVC\14.29.30133\atlmfc\include\cstringt.h
; File D:\git\src\IBK\IBK_DRFN\ProjSrc\SrcChartEx\ChartOCX\GraphDraw\Draw.cpp
; File C:\Program Files (x86)\Microsoft Visual Studio\2019\Community\VC\Tools\MSVC\14.29.30133\atlmfc\include\cstringt.h
; File D:\git\src\IBK\IBK_DRFN\ProjSrc\SrcChartEx\ChartOCX\GraphDraw\Draw.cpp
; File C:\Program Files (x86)\Microsoft Visual Studio\2019\Community\VC\Tools\MSVC\14.29.30133\atlmfc\include\cstringt.h
; File D:\git\src\IBK\IBK_DRFN\ProjSrc\SrcChartEx\ChartOCX\GraphDraw\Draw.cpp
; File C:\Program Files (x86)\Microsoft Visual Studio\2019\Community\VC\Tools\MSVC\14.29.30133\atlmfc\include\atlsimpstr.h
; File D:\git\src\IBK\IBK_DRFN\ProjSrc\SrcChartEx\ChartOCX\GraphDraw\Draw.cpp
; File C:\Program Files (x86)\Microsoft Visual Studio\2019\Community\VC\Tools\MSVC\14.29.30133\atlmfc\include\cstringt.h
; File D:\git\src\IBK\IBK_DRFN\ProjSrc\SrcChartEx\ChartOCX\GraphDraw\Draw.cpp
; File C:\Program Files (x86)\Microsoft Visual Studio\2019\Community\VC\Tools\MSVC\14.29.30133\atlmfc\include\cstringt.h
; File C:\Program Files (x86)\Microsoft Visual Studio\2019\Community\VC\Tools\MSVC\14.29.30133\atlmfc\include\atlsimpstr.h
; File C:\Program Files (x86)\Microsoft Visual Studio\2019\Community\VC\Tools\MSVC\14.29.30133\atlmfc\include\cstringt.h
; File D:\git\src\IBK\IBK_DRFN\ProjSrc\SrcChartEx\ChartOCX\GraphDraw\Draw.cpp
; File C:\Program Files (x86)\Microsoft Visual Studio\2019\Community\VC\Tools\MSVC\14.29.30133\atlmfc\include\cstringt.h
; File D:\git\src\IBK\IBK_DRFN\ProjSrc\SrcChartEx\ChartOCX\GraphDraw\Draw.cpp
; File C:\Program Files (x86)\Microsoft Visual Studio\2019\Community\VC\Tools\MSVC\14.29.30133\atlmfc\include\cstringt.h
; File D:\git\src\IBK\IBK_DRFN\ProjSrc\SrcChartEx\ChartOCX\GraphDraw\Draw.cpp
;	COMDAT ?GetPriceMinMaxTime@CDraw@@IAEXAAV?$CStringT@DV?$StrTraitMFC_DLL@DV?$ChTraitsCRT@D@ATL@@@@@ATL@@PAVCPacket@@H@Z
_TEXT	SEGMENT
_dataConversion$ = -48					; size = 8
_date$ = -40						; size = 8
$T2 = -32						; size = 4
$T3 = -32						; size = 4
$T4 = -28						; size = 4
$T5 = -28						; size = 4
_this$1$ = -24						; size = 4
_nDataUnit$6 = -24					; size = 4
$T7 = -20						; size = 4
_datePacketType$ = -16					; size = 4
__$EHRec$ = -12						; size = 12
_strTime$ = 8						; size = 4
$T8 = 12						; size = 4
$T9 = 12						; size = 4
$T10 = 12						; size = 4
$T11 = 12						; size = 4
_pDataPacket$ = 12					; size = 4
$T12 = 16						; size = 4
$T13 = 16						; size = 4
_p_nIndex$ = 16						; size = 4
?GetPriceMinMaxTime@CDraw@@IAEXAAV?$CStringT@DV?$StrTraitMFC_DLL@DV?$ChTraitsCRT@D@ATL@@@@@ATL@@PAVCPacket@@H@Z PROC ; CDraw::GetPriceMinMaxTime, COMDAT
; _this$ = ecx

; 624  : {

  00000	55		 push	 ebp
  00001	8b ec		 mov	 ebp, esp
  00003	6a ff		 push	 -1
  00005	68 00 00 00 00	 push	 __ehhandler$?GetPriceMinMaxTime@CDraw@@IAEXAAV?$CStringT@DV?$StrTraitMFC_DLL@DV?$ChTraitsCRT@D@ATL@@@@@ATL@@PAVCPacket@@H@Z
  0000a	64 a1 00 00 00
	00		 mov	 eax, DWORD PTR fs:0
  00010	50		 push	 eax
  00011	83 ec 24	 sub	 esp, 36			; 00000024H
  00014	53		 push	 ebx
  00015	56		 push	 esi
  00016	57		 push	 edi
  00017	a1 00 00 00 00	 mov	 eax, DWORD PTR ___security_cookie
  0001c	33 c5		 xor	 eax, ebp
  0001e	50		 push	 eax
  0001f	8d 45 f4	 lea	 eax, DWORD PTR __$EHRec$[ebp]
  00022	64 a3 00 00 00
	00		 mov	 DWORD PTR fs:0, eax
  00028	8b d9		 mov	 ebx, ecx
  0002a	89 5d e8	 mov	 DWORD PTR _this$1$[ebp], ebx

; 625  : 	strTime.Empty();

  0002d	8b 4d 08	 mov	 ecx, DWORD PTR _strTime$[ebp]
  00030	c7 45 ec 00 00
	00 00		 mov	 DWORD PTR $T7[ebp], 0
  00037	ff 15 00 00 00
	00		 call	 DWORD PTR __imp_?Empty@?$CSimpleStringT@D$00@ATL@@QAEXXZ

; 626  : 	// (2007/1/17 - Seung-Won, Bae) Do not support the Time Info in Line Graph.
; 627  : 	if( !pDataPacket || m_eGraphType == CGraphBaseData::Line_Type
; 628  : 		|| ( m_eGraphType == CGraphBaseData::Bong_Type && m_graphDrawStyle.GetDrawStyle() == CGraphBaseData::Line_Draw)) return;

  0003d	8b 4d 0c	 mov	 ecx, DWORD PTR _pDataPacket$[ebp]
  00040	85 c9		 test	 ecx, ecx
  00042	0f 84 cb 02 00
	00		 je	 $LN7@GetPriceMi
  00048	8b 43 10	 mov	 eax, DWORD PTR [ebx+16]
  0004b	83 f8 01	 cmp	 eax, 1
  0004e	0f 84 bf 02 00
	00		 je	 $LN7@GetPriceMi
  00054	85 c0		 test	 eax, eax
  00056	75 0a		 jne	 SHORT $LN2@GetPriceMi
  00058	83 7b 18 02	 cmp	 DWORD PTR [ebx+24], 2
  0005c	0f 84 b1 02 00
	00		 je	 $LN7@GetPriceMi
$LN2@GetPriceMi:

; 629  : 
; 630  : 	CPacket * pDatePacket = pDataPacket->GetDatePacket();

  00062	ff 15 00 00 00
	00		 call	 DWORD PTR __imp_?GetDatePacket@CPacket@@QAEPAV1@XZ
  00068	8b d8		 mov	 ebx, eax

; 631  : 	if( !pDatePacket) return;

  0006a	85 db		 test	 ebx, ebx
  0006c	0f 84 a1 02 00
	00		 je	 $LN7@GetPriceMi

; 632  : 
; 633  : 	POSITION datePos = pDatePacket->GetnumericDataList()->FindIndex( p_nIndex);

  00072	8b 75 10	 mov	 esi, DWORD PTR _p_nIndex$[ebp]
  00075	8b cb		 mov	 ecx, ebx
  00077	ff 15 00 00 00
	00		 call	 DWORD PTR __imp_?GetnumericDataList@CPacket@@QAEPAV?$CList@NN@@XZ
; File C:\Program Files (x86)\Microsoft Visual Studio\2019\Community\VC\Tools\MSVC\14.29.30133\atlmfc\include\afxtempl.h

; 1133 : 	if (nIndex >= m_nCount || nIndex < 0)

  0007d	3b 70 0c	 cmp	 esi, DWORD PTR [eax+12]
  00080	0f 8d 8d 02 00
	00		 jge	 $LN7@GetPriceMi
  00086	85 f6		 test	 esi, esi
  00088	0f 88 85 02 00
	00		 js	 $LN7@GetPriceMi

; 1134 : 		return NULL;  // went too far
; 1135 : 
; 1136 : 	CNode* pNode = m_pNodeHead;

  0008e	8b 78 04	 mov	 edi, DWORD PTR [eax+4]

; 1137 : 	while (nIndex--)

  00091	74 07		 je	 SHORT $LN93@GetPriceMi
$LL25@GetPriceMi:

; 1138 : 	{
; 1139 : 		ASSERT(AfxIsValidAddress(pNode, sizeof(CNode)));
; 1140 : 		pNode = pNode->pNext;

  00093	8b 3f		 mov	 edi, DWORD PTR [edi]
  00095	83 ee 01	 sub	 esi, 1
  00098	75 f9		 jne	 SHORT $LL25@GetPriceMi
$LN93@GetPriceMi:
; File D:\git\src\IBK\IBK_DRFN\ProjSrc\SrcChartEx\ChartOCX\GraphDraw\Draw.cpp

; 634  : 	if( !datePos) return;

  0009a	85 ff		 test	 edi, edi
  0009c	0f 84 71 02 00
	00		 je	 $LN7@GetPriceMi

; 635  : 
; 636  : 	CList<double, double>* pDateList = pDatePacket->GetnumericDataList();

  000a2	8b cb		 mov	 ecx, ebx
  000a4	ff 15 00 00 00
	00		 call	 DWORD PTR __imp_?GetnumericDataList@CPacket@@QAEPAV?$CList@NN@@XZ

; 637  : 	if( !pDateList || datePos == NULL) return;

  000aa	85 c0		 test	 eax, eax
  000ac	0f 84 61 02 00
	00		 je	 $LN7@GetPriceMi

; 638  : 
; 639  : 	double date = pDateList->GetNext( datePos);

  000b2	f2 0f 10 47 08	 movsd	 xmm0, QWORD PTR [edi+8]

; 640  : 	CString datePacketType = pDatePacket->GetType();

  000b7	8d 45 f0	 lea	 eax, DWORD PTR _datePacketType$[ebp]
  000ba	6a 01		 push	 1
  000bc	50		 push	 eax
  000bd	8b cb		 mov	 ecx, ebx
  000bf	f2 0f 11 45 d8	 movsd	 QWORD PTR _date$[ebp], xmm0
  000c4	ff 15 00 00 00
	00		 call	 DWORD PTR __imp_?GetType@CPacket@@QAE?AV?$CStringT@DV?$StrTraitMFC_DLL@DV?$ChTraitsCRT@D@ATL@@@@@ATL@@_N@Z

; 641  : 
; 642  : 	// 2011.02.08 by onlyojt >> 분차트 YYYY(년) 추가 : 날짜/시간 14Byte형태 변경 (YYYYMMDDhhmmss)
; 643  : 	// 추세선 공유 기능 수정 - onlyojt
; 644  : 	CDataConversion dataConversion( m_hOcxWnd, m_eChartMode);

  000ca	8b 45 e8	 mov	 eax, DWORD PTR _this$1$[ebp]
; File C:\Program Files (x86)\Microsoft Visual Studio\2019\Community\VC\Tools\MSVC\14.29.30133\atlmfc\include\cstringt.h

; 2486 : 		return(str1.Compare(psz2) == 0);

  000cd	68 00 00 00 00	 push	 OFFSET ??_C@_0P@IMPIBBAB@YYYYMMDDHHMMSS@
; File D:\git\src\IBK\IBK_DRFN\ProjSrc\SrcChartEx\ChartOCX\GraphDraw\Draw.cpp

; 640  : 	CString datePacketType = pDatePacket->GetType();

  000d2	c7 45 fc 00 00
	00 00		 mov	 DWORD PTR __$EHRec$[ebp+8], 0

; 641  : 
; 642  : 	// 2011.02.08 by onlyojt >> 분차트 YYYY(년) 추가 : 날짜/시간 14Byte형태 변경 (YYYYMMDDhhmmss)
; 643  : 	// 추세선 공유 기능 수정 - onlyojt
; 644  : 	CDataConversion dataConversion( m_hOcxWnd, m_eChartMode);

  000d9	8b 48 20	 mov	 ecx, DWORD PTR [eax+32]
; File D:\git\src\IBK\IBK_DRFN\ProjSrc\SrcChartEx\ChartOCX\Include_Chart\Conversion.h

; 27   : 		{	m_hOcxWnd = p_hOcxWnd;	m_eChartMode = p_eChartMode;	}

  000dc	8b 40 1c	 mov	 eax, DWORD PTR [eax+28]
  000df	89 4d d4	 mov	 DWORD PTR _dataConversion$[ebp+4], ecx
; File C:\Program Files (x86)\Microsoft Visual Studio\2019\Community\VC\Tools\MSVC\14.29.30133\atlmfc\include\cstringt.h

; 2486 : 		return(str1.Compare(psz2) == 0);

  000e2	8d 4d f0	 lea	 ecx, DWORD PTR _datePacketType$[ebp]
; File D:\git\src\IBK\IBK_DRFN\ProjSrc\SrcChartEx\ChartOCX\Include_Chart\Conversion.h

; 27   : 		{	m_hOcxWnd = p_hOcxWnd;	m_eChartMode = p_eChartMode;	}

  000e5	89 45 d0	 mov	 DWORD PTR _dataConversion$[ebp], eax
; File C:\Program Files (x86)\Microsoft Visual Studio\2019\Community\VC\Tools\MSVC\14.29.30133\atlmfc\include\cstringt.h

; 2486 : 		return(str1.Compare(psz2) == 0);

  000e8	ff 15 00 00 00
	00		 call	 DWORD PTR __imp_?Compare@?$CStringT@DV?$StrTraitMFC_DLL@DV?$ChTraitsCRT@D@ATL@@@@@ATL@@QBEHPBD@Z
; File D:\git\src\IBK\IBK_DRFN\ProjSrc\SrcChartEx\ChartOCX\GraphDraw\Draw.cpp

; 645  : 	if (datePacketType == _T("YYYYMMDDHHMMSS"))

  000ee	8b cb		 mov	 ecx, ebx
; File C:\Program Files (x86)\Microsoft Visual Studio\2019\Community\VC\Tools\MSVC\14.29.30133\atlmfc\include\cstringt.h

; 2486 : 		return(str1.Compare(psz2) == 0);

  000f0	85 c0		 test	 eax, eax
; File D:\git\src\IBK\IBK_DRFN\ProjSrc\SrcChartEx\ChartOCX\GraphDraw\Draw.cpp

; 645  : 	if (datePacketType == _T("YYYYMMDDHHMMSS"))

  000f2	0f 85 d0 00 00
	00		 jne	 $LN8@GetPriceMi

; 646  : 	{
; 647  : 		int nDataUnit = pDatePacket->GetDateUnitType();

  000f8	ff 15 00 00 00
	00		 call	 DWORD PTR __imp_?GetDateUnitType@CPacket@@QAEHXZ
  000fe	89 45 e8	 mov	 DWORD PTR _nDataUnit$6[ebp], eax

; 648  : 		strTime = " (" + dataConversion.GetStringFormatTrans2( CDataConversion::DoubleToString( date), nDataUnit) + ")";

  00101	8d 45 d8	 lea	 eax, DWORD PTR _date$[ebp]
  00104	50		 push	 eax
  00105	8d 45 e0	 lea	 eax, DWORD PTR $T3[ebp]
  00108	50		 push	 eax
  00109	e8 00 00 00 00	 call	 ?DoubleToString@CDataConversion@@SA?AV?$CStringT@DV?$StrTraitMFC_DLL@DV?$ChTraitsCRT@D@ATL@@@@@ATL@@ABN@Z ; CDataConversion::DoubleToString
  0010e	83 c4 08	 add	 esp, 8
  00111	8d 4d e8	 lea	 ecx, DWORD PTR _nDataUnit$6[ebp]
  00114	c6 45 fc 01	 mov	 BYTE PTR __$EHRec$[ebp+8], 1
  00118	51		 push	 ecx
  00119	50		 push	 eax
  0011a	8d 45 e4	 lea	 eax, DWORD PTR $T5[ebp]
  0011d	50		 push	 eax
  0011e	8d 4d d0	 lea	 ecx, DWORD PTR _dataConversion$[ebp]
  00121	e8 00 00 00 00	 call	 ?GetStringFormatTrans2@CDataConversion@@QAE?AV?$CStringT@DV?$StrTraitMFC_DLL@DV?$ChTraitsCRT@D@ATL@@@@@ATL@@ABV23@ABH@Z ; CDataConversion::GetStringFormatTrans2
  00126	8b f0		 mov	 esi, eax
; File C:\Program Files (x86)\Microsoft Visual Studio\2019\Community\VC\Tools\MSVC\14.29.30133\atlmfc\include\cstringt.h

; 2412 : 		CStringT strResult( str2.GetManager() );

  00128	8b ce		 mov	 ecx, esi
; File D:\git\src\IBK\IBK_DRFN\ProjSrc\SrcChartEx\ChartOCX\GraphDraw\Draw.cpp

; 648  : 		strTime = " (" + dataConversion.GetStringFormatTrans2( CDataConversion::DoubleToString( date), nDataUnit) + ")";

  0012a	c6 45 fc 03	 mov	 BYTE PTR __$EHRec$[ebp+8], 3
; File C:\Program Files (x86)\Microsoft Visual Studio\2019\Community\VC\Tools\MSVC\14.29.30133\atlmfc\include\cstringt.h

; 2412 : 		CStringT strResult( str2.GetManager() );

  0012e	ff 15 00 00 00
	00		 call	 DWORD PTR __imp_?GetManager@?$CStringT@DV?$StrTraitMFC_DLL@DV?$ChTraitsCRT@D@ATL@@@@@ATL@@QBEPAUIAtlStringMgr@2@XZ
  00134	50		 push	 eax
  00135	8d 4d 0c	 lea	 ecx, DWORD PTR $T11[ebp]
  00138	ff 15 00 00 00
	00		 call	 DWORD PTR __imp_??0?$CStringT@DV?$StrTraitMFC_DLL@DV?$ChTraitsCRT@D@ATL@@@@@ATL@@QAE@PAUIAtlStringMgr@1@@Z
; File C:\Program Files (x86)\Microsoft Visual Studio\2019\Community\VC\Tools\MSVC\14.29.30133\atlmfc\include\atlsimpstr.h

; 519  : 		return( GetData()->nDataLength );

  0013e	8b 06		 mov	 eax, DWORD PTR [esi]
; File C:\Program Files (x86)\Microsoft Visual Studio\2019\Community\VC\Tools\MSVC\14.29.30133\atlmfc\include\cstringt.h

; 2416 : 		return( strResult );

  00140	c7 45 ec 01 00
	00 00		 mov	 DWORD PTR $T7[ebp], 1
  00147	ff 70 f4	 push	 DWORD PTR [eax-12]
  0014a	50		 push	 eax
  0014b	6a 02		 push	 2
  0014d	8d 45 0c	 lea	 eax, DWORD PTR $T11[ebp]
  00150	68 00 00 00 00	 push	 OFFSET ??_C@_02GFKOMOKH@?5?$CI@
  00155	50		 push	 eax
  00156	ff 15 00 00 00
	00		 call	 DWORD PTR __imp_?Concatenate@?$CSimpleStringT@D$00@ATL@@KAXAAV12@PBDH1H@Z
  0015c	83 c4 14	 add	 esp, 20			; 00000014H

; 2401 : 		CStringT strResult( str1.GetManager() );

  0015f	8d 4d 0c	 lea	 ecx, DWORD PTR $T11[ebp]
; File D:\git\src\IBK\IBK_DRFN\ProjSrc\SrcChartEx\ChartOCX\GraphDraw\Draw.cpp

; 648  : 		strTime = " (" + dataConversion.GetStringFormatTrans2( CDataConversion::DoubleToString( date), nDataUnit) + ")";

  00162	c6 45 fc 04	 mov	 BYTE PTR __$EHRec$[ebp+8], 4
; File C:\Program Files (x86)\Microsoft Visual Studio\2019\Community\VC\Tools\MSVC\14.29.30133\atlmfc\include\cstringt.h

; 2401 : 		CStringT strResult( str1.GetManager() );

  00166	ff 15 00 00 00
	00		 call	 DWORD PTR __imp_?GetManager@?$CStringT@DV?$StrTraitMFC_DLL@DV?$ChTraitsCRT@D@ATL@@@@@ATL@@QBEPAUIAtlStringMgr@2@XZ
  0016c	50		 push	 eax
  0016d	8d 4d 10	 lea	 ecx, DWORD PTR $T13[ebp]
  00170	ff 15 00 00 00
	00		 call	 DWORD PTR __imp_??0?$CStringT@DV?$StrTraitMFC_DLL@DV?$ChTraitsCRT@D@ATL@@@@@ATL@@QAE@PAUIAtlStringMgr@1@@Z

; 2403 : 		CThisSimpleString::Concatenate( strResult, str1, str1.GetLength(), psz2, CThisSimpleString::StringLength( psz2 ) );

  00176	8b 45 0c	 mov	 eax, DWORD PTR $T11[ebp]
  00179	6a 01		 push	 1
  0017b	68 00 00 00 00	 push	 OFFSET ??_C@_01PKGAHCOL@?$CJ@

; 2404 : 
; 2405 : 		return( strResult );

  00180	c7 45 ec 03 00
	00 00		 mov	 DWORD PTR $T7[ebp], 3
  00187	ff 70 f4	 push	 DWORD PTR [eax-12]
  0018a	50		 push	 eax
  0018b	8d 45 10	 lea	 eax, DWORD PTR $T13[ebp]
  0018e	50		 push	 eax
  0018f	ff 15 00 00 00
	00		 call	 DWORD PTR __imp_?Concatenate@?$CSimpleStringT@D$00@ATL@@KAXAAV12@PBDH1H@Z
; File D:\git\src\IBK\IBK_DRFN\ProjSrc\SrcChartEx\ChartOCX\GraphDraw\Draw.cpp

; 648  : 		strTime = " (" + dataConversion.GetStringFormatTrans2( CDataConversion::DoubleToString( date), nDataUnit) + ")";

  00195	8b 4d 08	 mov	 ecx, DWORD PTR _strTime$[ebp]
  00198	8d 45 10	 lea	 eax, DWORD PTR $T13[ebp]
; File C:\Program Files (x86)\Microsoft Visual Studio\2019\Community\VC\Tools\MSVC\14.29.30133\atlmfc\include\cstringt.h

; 2403 : 		CThisSimpleString::Concatenate( strResult, str1, str1.GetLength(), psz2, CThisSimpleString::StringLength( psz2 ) );

  0019b	83 c4 14	 add	 esp, 20			; 00000014H
; File D:\git\src\IBK\IBK_DRFN\ProjSrc\SrcChartEx\ChartOCX\GraphDraw\Draw.cpp

; 648  : 		strTime = " (" + dataConversion.GetStringFormatTrans2( CDataConversion::DoubleToString( date), nDataUnit) + ")";

  0019e	50		 push	 eax
  0019f	ff 15 00 00 00
	00		 call	 DWORD PTR __imp_??4?$CStringT@DV?$StrTraitMFC_DLL@DV?$ChTraitsCRT@D@ATL@@@@@ATL@@QAEAAV01@ABV01@@Z
  001a5	8d 4d 10	 lea	 ecx, DWORD PTR $T13[ebp]
  001a8	ff 15 00 00 00
	00		 call	 DWORD PTR __imp_??1?$CStringT@DV?$StrTraitMFC_DLL@DV?$ChTraitsCRT@D@ATL@@@@@ATL@@QAE@XZ
  001ae	8d 4d 0c	 lea	 ecx, DWORD PTR $T11[ebp]
  001b1	ff 15 00 00 00
	00		 call	 DWORD PTR __imp_??1?$CStringT@DV?$StrTraitMFC_DLL@DV?$ChTraitsCRT@D@ATL@@@@@ATL@@QAE@XZ
  001b7	8d 4d e4	 lea	 ecx, DWORD PTR $T5[ebp]
  001ba	ff 15 00 00 00
	00		 call	 DWORD PTR __imp_??1?$CStringT@DV?$StrTraitMFC_DLL@DV?$ChTraitsCRT@D@ATL@@@@@ATL@@QAE@XZ
  001c0	8d 4d e0	 lea	 ecx, DWORD PTR $T3[ebp]

; 649  : 	}

  001c3	e9 3c 01 00 00	 jmp	 $LN98@GetPriceMi
$LN8@GetPriceMi:

; 650  : 	else
; 651  : 	// 2011.02.08 by onlyojt <<
; 652  : 	{
; 653  : 		if( pDatePacket->GetDateUnitType() == CScaleBaseData::HORZ_MONTHLY)

  001c8	ff 15 00 00 00
	00		 call	 DWORD PTR __imp_?GetDateUnitType@CPacket@@QAEHXZ
  001ce	83 f8 03	 cmp	 eax, 3
  001d1	75 6f		 jne	 SHORT $LN10@GetPriceMi

; 655  : 			if( CDataConversion::DoubleToString( date).GetLength() >= 8.0) date = date/100.0;

  001d3	8d 45 d8	 lea	 eax, DWORD PTR _date$[ebp]
  001d6	50		 push	 eax
  001d7	8d 45 0c	 lea	 eax, DWORD PTR $T10[ebp]
  001da	50		 push	 eax
  001db	e8 00 00 00 00	 call	 ?DoubleToString@CDataConversion@@SA?AV?$CStringT@DV?$StrTraitMFC_DLL@DV?$ChTraitsCRT@D@ATL@@@@@ATL@@ABN@Z ; CDataConversion::DoubleToString
  001e0	83 c4 08	 add	 esp, 8
  001e3	8d 4d 0c	 lea	 ecx, DWORD PTR $T10[ebp]
; File C:\Program Files (x86)\Microsoft Visual Studio\2019\Community\VC\Tools\MSVC\14.29.30133\atlmfc\include\atlsimpstr.h

; 519  : 		return( GetData()->nDataLength );

  001e6	8b 00		 mov	 eax, DWORD PTR [eax]
  001e8	66 0f 6e 40 f4	 movd	 xmm0, DWORD PTR [eax-12]
; File D:\git\src\IBK\IBK_DRFN\ProjSrc\SrcChartEx\ChartOCX\GraphDraw\Draw.cpp

; 655  : 			if( CDataConversion::DoubleToString( date).GetLength() >= 8.0) date = date/100.0;

  001ed	f3 0f e6 c0	 cvtdq2pd xmm0, xmm0
  001f1	66 0f 2f 05 00
	00 00 00	 comisd	 xmm0, QWORD PTR __real@4020000000000000
  001f9	0f 93 c3	 setae	 bl
  001fc	ff 15 00 00 00
	00		 call	 DWORD PTR __imp_??1?$CStringT@DV?$StrTraitMFC_DLL@DV?$ChTraitsCRT@D@ATL@@@@@ATL@@QAE@XZ
  00202	84 db		 test	 bl, bl
  00204	74 12		 je	 SHORT $LN11@GetPriceMi
  00206	f2 0f 10 45 d8	 movsd	 xmm0, QWORD PTR _date$[ebp]
  0020b	f2 0f 5e 05 00
	00 00 00	 divsd	 xmm0, QWORD PTR __real@4059000000000000
  00213	f2 0f 11 45 d8	 movsd	 QWORD PTR _date$[ebp], xmm0
$LN11@GetPriceMi:

; 656  : 			datePacketType = datePacketType.Left(6);

  00218	6a 06		 push	 6
  0021a	8d 45 0c	 lea	 eax, DWORD PTR $T9[ebp]
  0021d	50		 push	 eax
  0021e	8d 4d f0	 lea	 ecx, DWORD PTR _datePacketType$[ebp]
  00221	ff 15 00 00 00
	00		 call	 DWORD PTR __imp_?Left@?$CStringT@DV?$StrTraitMFC_DLL@DV?$ChTraitsCRT@D@ATL@@@@@ATL@@QBE?AV12@H@Z
  00227	50		 push	 eax
  00228	8d 4d f0	 lea	 ecx, DWORD PTR _datePacketType$[ebp]
  0022b	c6 45 fc 05	 mov	 BYTE PTR __$EHRec$[ebp+8], 5
  0022f	ff 15 00 00 00
	00		 call	 DWORD PTR __imp_??4?$CStringT@DV?$StrTraitMFC_DLL@DV?$ChTraitsCRT@D@ATL@@@@@ATL@@QAEAAV01@ABV01@@Z
  00235	8d 4d 0c	 lea	 ecx, DWORD PTR $T9[ebp]
  00238	c6 45 fc 00	 mov	 BYTE PTR __$EHRec$[ebp+8], 0
  0023c	ff 15 00 00 00
	00		 call	 DWORD PTR __imp_??1?$CStringT@DV?$StrTraitMFC_DLL@DV?$ChTraitsCRT@D@ATL@@@@@ATL@@QAE@XZ
$LN10@GetPriceMi:

; 658  : 		strTime = " (" + dataConversion.GetStringFormatTrans( CDataConversion::DoubleToString( date), datePacketType) + ")";

  00242	8d 45 d8	 lea	 eax, DWORD PTR _date$[ebp]
  00245	50		 push	 eax
  00246	8d 45 e4	 lea	 eax, DWORD PTR $T4[ebp]
  00249	50		 push	 eax
  0024a	e8 00 00 00 00	 call	 ?DoubleToString@CDataConversion@@SA?AV?$CStringT@DV?$StrTraitMFC_DLL@DV?$ChTraitsCRT@D@ATL@@@@@ATL@@ABN@Z ; CDataConversion::DoubleToString
  0024f	83 c4 08	 add	 esp, 8
  00252	8d 4d f0	 lea	 ecx, DWORD PTR _datePacketType$[ebp]
  00255	c6 45 fc 06	 mov	 BYTE PTR __$EHRec$[ebp+8], 6
  00259	51		 push	 ecx
  0025a	50		 push	 eax
  0025b	8d 45 e0	 lea	 eax, DWORD PTR $T2[ebp]
  0025e	50		 push	 eax
  0025f	8d 4d d0	 lea	 ecx, DWORD PTR _dataConversion$[ebp]
  00262	e8 00 00 00 00	 call	 ?GetStringFormatTrans@CDataConversion@@QAE?AV?$CStringT@DV?$StrTraitMFC_DLL@DV?$ChTraitsCRT@D@ATL@@@@@ATL@@ABV23@0@Z ; CDataConversion::GetStringFormatTrans
  00267	8b f0		 mov	 esi, eax
; File C:\Program Files (x86)\Microsoft Visual Studio\2019\Community\VC\Tools\MSVC\14.29.30133\atlmfc\include\cstringt.h

; 2412 : 		CStringT strResult( str2.GetManager() );

  00269	8b ce		 mov	 ecx, esi
; File D:\git\src\IBK\IBK_DRFN\ProjSrc\SrcChartEx\ChartOCX\GraphDraw\Draw.cpp

; 658  : 		strTime = " (" + dataConversion.GetStringFormatTrans( CDataConversion::DoubleToString( date), datePacketType) + ")";

  0026b	c6 45 fc 08	 mov	 BYTE PTR __$EHRec$[ebp+8], 8
; File C:\Program Files (x86)\Microsoft Visual Studio\2019\Community\VC\Tools\MSVC\14.29.30133\atlmfc\include\cstringt.h

; 2412 : 		CStringT strResult( str2.GetManager() );

  0026f	ff 15 00 00 00
	00		 call	 DWORD PTR __imp_?GetManager@?$CStringT@DV?$StrTraitMFC_DLL@DV?$ChTraitsCRT@D@ATL@@@@@ATL@@QBEPAUIAtlStringMgr@2@XZ
  00275	50		 push	 eax
  00276	8d 4d 0c	 lea	 ecx, DWORD PTR $T8[ebp]
  00279	ff 15 00 00 00
	00		 call	 DWORD PTR __imp_??0?$CStringT@DV?$StrTraitMFC_DLL@DV?$ChTraitsCRT@D@ATL@@@@@ATL@@QAE@PAUIAtlStringMgr@1@@Z
; File C:\Program Files (x86)\Microsoft Visual Studio\2019\Community\VC\Tools\MSVC\14.29.30133\atlmfc\include\atlsimpstr.h

; 519  : 		return( GetData()->nDataLength );

  0027f	8b 06		 mov	 eax, DWORD PTR [esi]
; File C:\Program Files (x86)\Microsoft Visual Studio\2019\Community\VC\Tools\MSVC\14.29.30133\atlmfc\include\cstringt.h

; 2416 : 		return( strResult );

  00281	c7 45 ec 04 00
	00 00		 mov	 DWORD PTR $T7[ebp], 4
  00288	ff 70 f4	 push	 DWORD PTR [eax-12]
  0028b	50		 push	 eax
  0028c	6a 02		 push	 2
  0028e	8d 45 0c	 lea	 eax, DWORD PTR $T8[ebp]
  00291	68 00 00 00 00	 push	 OFFSET ??_C@_02GFKOMOKH@?5?$CI@
  00296	50		 push	 eax
  00297	ff 15 00 00 00
	00		 call	 DWORD PTR __imp_?Concatenate@?$CSimpleStringT@D$00@ATL@@KAXAAV12@PBDH1H@Z
  0029d	83 c4 14	 add	 esp, 20			; 00000014H

; 2401 : 		CStringT strResult( str1.GetManager() );

  002a0	8d 4d 0c	 lea	 ecx, DWORD PTR $T8[ebp]
; File D:\git\src\IBK\IBK_DRFN\ProjSrc\SrcChartEx\ChartOCX\GraphDraw\Draw.cpp

; 658  : 		strTime = " (" + dataConversion.GetStringFormatTrans( CDataConversion::DoubleToString( date), datePacketType) + ")";

  002a3	c6 45 fc 09	 mov	 BYTE PTR __$EHRec$[ebp+8], 9
; File C:\Program Files (x86)\Microsoft Visual Studio\2019\Community\VC\Tools\MSVC\14.29.30133\atlmfc\include\cstringt.h

; 2401 : 		CStringT strResult( str1.GetManager() );

  002a7	ff 15 00 00 00
	00		 call	 DWORD PTR __imp_?GetManager@?$CStringT@DV?$StrTraitMFC_DLL@DV?$ChTraitsCRT@D@ATL@@@@@ATL@@QBEPAUIAtlStringMgr@2@XZ
  002ad	50		 push	 eax
  002ae	8d 4d 10	 lea	 ecx, DWORD PTR $T12[ebp]
  002b1	ff 15 00 00 00
	00		 call	 DWORD PTR __imp_??0?$CStringT@DV?$StrTraitMFC_DLL@DV?$ChTraitsCRT@D@ATL@@@@@ATL@@QAE@PAUIAtlStringMgr@1@@Z

; 2403 : 		CThisSimpleString::Concatenate( strResult, str1, str1.GetLength(), psz2, CThisSimpleString::StringLength( psz2 ) );

  002b7	8b 45 0c	 mov	 eax, DWORD PTR $T8[ebp]
  002ba	6a 01		 push	 1
  002bc	68 00 00 00 00	 push	 OFFSET ??_C@_01PKGAHCOL@?$CJ@

; 2404 : 
; 2405 : 		return( strResult );

  002c1	c7 45 ec 0c 00
	00 00		 mov	 DWORD PTR $T7[ebp], 12	; 0000000cH
  002c8	ff 70 f4	 push	 DWORD PTR [eax-12]
  002cb	50		 push	 eax
  002cc	8d 45 10	 lea	 eax, DWORD PTR $T12[ebp]
  002cf	50		 push	 eax
  002d0	ff 15 00 00 00
	00		 call	 DWORD PTR __imp_?Concatenate@?$CSimpleStringT@D$00@ATL@@KAXAAV12@PBDH1H@Z
; File D:\git\src\IBK\IBK_DRFN\ProjSrc\SrcChartEx\ChartOCX\GraphDraw\Draw.cpp

; 658  : 		strTime = " (" + dataConversion.GetStringFormatTrans( CDataConversion::DoubleToString( date), datePacketType) + ")";

  002d6	8b 4d 08	 mov	 ecx, DWORD PTR _strTime$[ebp]
  002d9	8d 45 10	 lea	 eax, DWORD PTR $T12[ebp]
; File C:\Program Files (x86)\Microsoft Visual Studio\2019\Community\VC\Tools\MSVC\14.29.30133\atlmfc\include\cstringt.h

; 2403 : 		CThisSimpleString::Concatenate( strResult, str1, str1.GetLength(), psz2, CThisSimpleString::StringLength( psz2 ) );

  002dc	83 c4 14	 add	 esp, 20			; 00000014H
; File D:\git\src\IBK\IBK_DRFN\ProjSrc\SrcChartEx\ChartOCX\GraphDraw\Draw.cpp

; 658  : 		strTime = " (" + dataConversion.GetStringFormatTrans( CDataConversion::DoubleToString( date), datePacketType) + ")";

  002df	50		 push	 eax
  002e0	ff 15 00 00 00
	00		 call	 DWORD PTR __imp_??4?$CStringT@DV?$StrTraitMFC_DLL@DV?$ChTraitsCRT@D@ATL@@@@@ATL@@QAEAAV01@ABV01@@Z
  002e6	8d 4d 10	 lea	 ecx, DWORD PTR $T12[ebp]
  002e9	ff 15 00 00 00
	00		 call	 DWORD PTR __imp_??1?$CStringT@DV?$StrTraitMFC_DLL@DV?$ChTraitsCRT@D@ATL@@@@@ATL@@QAE@XZ
  002ef	8d 4d 0c	 lea	 ecx, DWORD PTR $T8[ebp]
  002f2	ff 15 00 00 00
	00		 call	 DWORD PTR __imp_??1?$CStringT@DV?$StrTraitMFC_DLL@DV?$ChTraitsCRT@D@ATL@@@@@ATL@@QAE@XZ
  002f8	8d 4d e0	 lea	 ecx, DWORD PTR $T2[ebp]
  002fb	ff 15 00 00 00
	00		 call	 DWORD PTR __imp_??1?$CStringT@DV?$StrTraitMFC_DLL@DV?$ChTraitsCRT@D@ATL@@@@@ATL@@QAE@XZ
  00301	8d 4d e4	 lea	 ecx, DWORD PTR $T4[ebp]
$LN98@GetPriceMi:

; 659  : 	}
; 660  : }

  00304	ff 15 00 00 00
	00		 call	 DWORD PTR __imp_??1?$CStringT@DV?$StrTraitMFC_DLL@DV?$ChTraitsCRT@D@ATL@@@@@ATL@@QAE@XZ
  0030a	8d 4d f0	 lea	 ecx, DWORD PTR _datePacketType$[ebp]
  0030d	ff 15 00 00 00
	00		 call	 DWORD PTR __imp_??1?$CStringT@DV?$StrTraitMFC_DLL@DV?$ChTraitsCRT@D@ATL@@@@@ATL@@QAE@XZ
$LN7@GetPriceMi:
  00313	8b 4d f4	 mov	 ecx, DWORD PTR __$EHRec$[ebp]
  00316	64 89 0d 00 00
	00 00		 mov	 DWORD PTR fs:0, ecx
  0031d	59		 pop	 ecx
  0031e	5f		 pop	 edi
  0031f	5e		 pop	 esi
  00320	5b		 pop	 ebx
  00321	8b e5		 mov	 esp, ebp
  00323	5d		 pop	 ebp
  00324	c2 0c 00	 ret	 12			; 0000000cH
_TEXT	ENDS
;	COMDAT text$x
text$x	SEGMENT
__unwindfunclet$?GetPriceMinMaxTime@CDraw@@IAEXAAV?$CStringT@DV?$StrTraitMFC_DLL@DV?$ChTraitsCRT@D@ATL@@@@@ATL@@PAVCPacket@@H@Z$0:
  00000	8d 4d f0	 lea	 ecx, DWORD PTR _datePacketType$[ebp]
  00003	ff 25 00 00 00
	00		 jmp	 DWORD PTR __imp_??1?$CStringT@DV?$StrTraitMFC_DLL@DV?$ChTraitsCRT@D@ATL@@@@@ATL@@QAE@XZ
__unwindfunclet$?GetPriceMinMaxTime@CDraw@@IAEXAAV?$CStringT@DV?$StrTraitMFC_DLL@DV?$ChTraitsCRT@D@ATL@@@@@ATL@@PAVCPacket@@H@Z$1:
  00009	8d 4d e0	 lea	 ecx, DWORD PTR $T3[ebp]
  0000c	ff 25 00 00 00
	00		 jmp	 DWORD PTR __imp_??1?$CStringT@DV?$StrTraitMFC_DLL@DV?$ChTraitsCRT@D@ATL@@@@@ATL@@QAE@XZ
__unwindfunclet$?GetPriceMinMaxTime@CDraw@@IAEXAAV?$CStringT@DV?$StrTraitMFC_DLL@DV?$ChTraitsCRT@D@ATL@@@@@ATL@@PAVCPacket@@H@Z$2:
  00012	8d 4d e4	 lea	 ecx, DWORD PTR $T5[ebp]
  00015	ff 25 00 00 00
	00		 jmp	 DWORD PTR __imp_??1?$CStringT@DV?$StrTraitMFC_DLL@DV?$ChTraitsCRT@D@ATL@@@@@ATL@@QAE@XZ
__unwindfunclet$?GetPriceMinMaxTime@CDraw@@IAEXAAV?$CStringT@DV?$StrTraitMFC_DLL@DV?$ChTraitsCRT@D@ATL@@@@@ATL@@PAVCPacket@@H@Z$11:
  0001b	8b 45 ec	 mov	 eax, DWORD PTR $T7[ebp]
  0001e	83 e0 01	 and	 eax, 1
  00021	0f 84 0d 00 00
	00		 je	 $LN39@GetPriceMi
  00027	83 65 ec fe	 and	 DWORD PTR $T7[ebp], -2	; fffffffeH
  0002b	8d 4d 0c	 lea	 ecx, DWORD PTR $T11[ebp]
  0002e	ff 25 00 00 00
	00		 jmp	 DWORD PTR __imp_??1?$CStringT@DV?$StrTraitMFC_DLL@DV?$ChTraitsCRT@D@ATL@@@@@ATL@@QAE@XZ
$LN39@GetPriceMi:
  00034	c3		 ret	 0
__unwindfunclet$?GetPriceMinMaxTime@CDraw@@IAEXAAV?$CStringT@DV?$StrTraitMFC_DLL@DV?$ChTraitsCRT@D@ATL@@@@@ATL@@PAVCPacket@@H@Z$12:
  00035	8b 45 ec	 mov	 eax, DWORD PTR $T7[ebp]
  00038	83 e0 02	 and	 eax, 2
  0003b	0f 84 0d 00 00
	00		 je	 $LN52@GetPriceMi
  00041	83 65 ec fd	 and	 DWORD PTR $T7[ebp], -3	; fffffffdH
  00045	8d 4d 10	 lea	 ecx, DWORD PTR $T13[ebp]
  00048	ff 25 00 00 00
	00		 jmp	 DWORD PTR __imp_??1?$CStringT@DV?$StrTraitMFC_DLL@DV?$ChTraitsCRT@D@ATL@@@@@ATL@@QAE@XZ
$LN52@GetPriceMi:
  0004e	c3		 ret	 0
__unwindfunclet$?GetPriceMinMaxTime@CDraw@@IAEXAAV?$CStringT@DV?$StrTraitMFC_DLL@DV?$ChTraitsCRT@D@ATL@@@@@ATL@@PAVCPacket@@H@Z$6:
  0004f	8d 4d 0c	 lea	 ecx, DWORD PTR $T9[ebp]
  00052	ff 25 00 00 00
	00		 jmp	 DWORD PTR __imp_??1?$CStringT@DV?$StrTraitMFC_DLL@DV?$ChTraitsCRT@D@ATL@@@@@ATL@@QAE@XZ
__unwindfunclet$?GetPriceMinMaxTime@CDraw@@IAEXAAV?$CStringT@DV?$StrTraitMFC_DLL@DV?$ChTraitsCRT@D@ATL@@@@@ATL@@PAVCPacket@@H@Z$7:
  00058	8d 4d e4	 lea	 ecx, DWORD PTR $T4[ebp]
  0005b	ff 25 00 00 00
	00		 jmp	 DWORD PTR __imp_??1?$CStringT@DV?$StrTraitMFC_DLL@DV?$ChTraitsCRT@D@ATL@@@@@ATL@@QAE@XZ
__unwindfunclet$?GetPriceMinMaxTime@CDraw@@IAEXAAV?$CStringT@DV?$StrTraitMFC_DLL@DV?$ChTraitsCRT@D@ATL@@@@@ATL@@PAVCPacket@@H@Z$8:
  00061	8d 4d e0	 lea	 ecx, DWORD PTR $T2[ebp]
  00064	ff 25 00 00 00
	00		 jmp	 DWORD PTR __imp_??1?$CStringT@DV?$StrTraitMFC_DLL@DV?$ChTraitsCRT@D@ATL@@@@@ATL@@QAE@XZ
__unwindfunclet$?GetPriceMinMaxTime@CDraw@@IAEXAAV?$CStringT@DV?$StrTraitMFC_DLL@DV?$ChTraitsCRT@D@ATL@@@@@ATL@@PAVCPacket@@H@Z$13:
  0006a	8b 45 ec	 mov	 eax, DWORD PTR $T7[ebp]
  0006d	83 e0 04	 and	 eax, 4
  00070	0f 84 0d 00 00
	00		 je	 $LN69@GetPriceMi
  00076	83 65 ec fb	 and	 DWORD PTR $T7[ebp], -5	; fffffffbH
  0007a	8d 4d 0c	 lea	 ecx, DWORD PTR $T8[ebp]
  0007d	ff 25 00 00 00
	00		 jmp	 DWORD PTR __imp_??1?$CStringT@DV?$StrTraitMFC_DLL@DV?$ChTraitsCRT@D@ATL@@@@@ATL@@QAE@XZ
$LN69@GetPriceMi:
  00083	c3		 ret	 0
__unwindfunclet$?GetPriceMinMaxTime@CDraw@@IAEXAAV?$CStringT@DV?$StrTraitMFC_DLL@DV?$ChTraitsCRT@D@ATL@@@@@ATL@@PAVCPacket@@H@Z$14:
  00084	8b 45 ec	 mov	 eax, DWORD PTR $T7[ebp]
  00087	83 e0 08	 and	 eax, 8
  0008a	0f 84 0d 00 00
	00		 je	 $LN82@GetPriceMi
  00090	83 65 ec f7	 and	 DWORD PTR $T7[ebp], -9	; fffffff7H
  00094	8d 4d 10	 lea	 ecx, DWORD PTR $T12[ebp]
  00097	ff 25 00 00 00
	00		 jmp	 DWORD PTR __imp_??1?$CStringT@DV?$StrTraitMFC_DLL@DV?$ChTraitsCRT@D@ATL@@@@@ATL@@QAE@XZ
$LN82@GetPriceMi:
  0009d	c3		 ret	 0
  0009e	cc		 int	 3
  0009f	cc		 int	 3
  000a0	cc		 int	 3
  000a1	cc		 int	 3
  000a2	cc		 int	 3
__ehhandler$?GetPriceMinMaxTime@CDraw@@IAEXAAV?$CStringT@DV?$StrTraitMFC_DLL@DV?$ChTraitsCRT@D@ATL@@@@@ATL@@PAVCPacket@@H@Z:
  000a3	90		 npad	 1
  000a4	90		 npad	 1
  000a5	8b 54 24 08	 mov	 edx, DWORD PTR [esp+8]
  000a9	8d 42 0c	 lea	 eax, DWORD PTR [edx+12]
  000ac	8b 4a cc	 mov	 ecx, DWORD PTR [edx-52]
  000af	33 c8		 xor	 ecx, eax
  000b1	e8 00 00 00 00	 call	 @__security_check_cookie@4
  000b6	b8 00 00 00 00	 mov	 eax, OFFSET __ehfuncinfo$?GetPriceMinMaxTime@CDraw@@IAEXAAV?$CStringT@DV?$StrTraitMFC_DLL@DV?$ChTraitsCRT@D@ATL@@@@@ATL@@PAVCPacket@@H@Z
  000bb	e9 00 00 00 00	 jmp	 ___CxxFrameHandler3
text$x	ENDS
?GetPriceMinMaxTime@CDraw@@IAEXAAV?$CStringT@DV?$StrTraitMFC_DLL@DV?$ChTraitsCRT@D@ATL@@@@@ATL@@PAVCPacket@@H@Z ENDP ; CDraw::GetPriceMinMaxTime
; Function compile flags: /Ogtp
; File D:\git\src\IBK\IBK_DRFN\ProjSrc\SrcChartEx\ChartOCX\GraphDraw\Draw.cpp
; File D:\git\src\IBK\IBK_DRFN\ProjSrc\SrcChartEx\ChartOCX\Include_Chart\Conversion.h
; File D:\git\src\IBK\IBK_DRFN\ProjSrc\SrcChartEx\ChartOCX\GraphDraw\Draw.cpp
; File D:\git\src\IBK\IBK_DRFN\ProjSrc\SrcChartEx\ChartOCX\Include_Chart\Conversion.h
; File D:\git\src\IBK\IBK_DRFN\ProjSrc\SrcChartEx\ChartOCX\GraphDraw\Draw.cpp
; File D:\git\src\IBK\IBK_DRFN\ProjSrc\SrcChartEx\ChartOCX\Include_Chart\Conversion.h
; File D:\git\src\IBK\IBK_DRFN\ProjSrc\SrcChartEx\ChartOCX\GraphDraw\Draw.cpp
; File D:\git\src\IBK\IBK_DRFN\ProjSrc\SrcChartEx\ChartOCX\Include_Chart\Conversion.h
; File D:\git\src\IBK\IBK_DRFN\ProjSrc\SrcChartEx\ChartOCX\GraphDraw\Draw.cpp
; File D:\git\src\IBK\IBK_DRFN\ProjSrc\SrcChartEx\ChartOCX\Include_Chart\Conversion.h
; File D:\git\src\IBK\IBK_DRFN\ProjSrc\SrcChartEx\ChartOCX\GraphDraw\Draw.cpp
; File D:\git\src\IBK\IBK_DRFN\ProjSrc\SrcChartEx\ChartOCX\Include_Chart\Conversion.h
; File D:\git\src\IBK\IBK_DRFN\ProjSrc\SrcChartEx\ChartOCX\GraphDraw\Draw.cpp
; File D:\git\src\IBK\IBK_DRFN\ProjSrc\SrcChartEx\ChartOCX\Include_Chart\Conversion.h
; File D:\git\src\IBK\IBK_DRFN\ProjSrc\SrcChartEx\ChartOCX\GraphDraw\Draw.cpp
; File D:\git\src\IBK\IBK_DRFN\ProjSrc\SrcChartEx\ChartOCX\Include_Chart\Conversion.h
; File D:\git\src\IBK\IBK_DRFN\ProjSrc\SrcChartEx\ChartOCX\GraphDraw\Draw.cpp
; File D:\git\src\IBK\IBK_DRFN\ProjSrc\SrcChartEx\ChartOCX\Include_Chart\Conversion.h
; File D:\git\src\IBK\IBK_DRFN\ProjSrc\SrcChartEx\ChartOCX\GraphDraw\Draw.cpp
; File C:\Program Files (x86)\Microsoft Visual Studio\2019\Community\VC\Tools\MSVC\14.29.30133\atlmfc\include\afxwin1.inl
; File C:\Program Files (x86)\Microsoft Visual Studio\2019\Community\VC\Tools\MSVC\14.29.30133\atlmfc\include\atlsimpstr.h
; File D:\git\src\IBK\IBK_DRFN\ProjSrc\SrcChartEx\ChartOCX\GraphDraw\Draw.cpp
; File C:\Program Files (x86)\Microsoft Visual Studio\2019\Community\VC\Tools\MSVC\14.29.30133\atlmfc\include\atlsimpstr.h
; File D:\git\src\IBK\IBK_DRFN\ProjSrc\SrcChartEx\ChartOCX\GraphDraw\Draw.cpp
; File C:\Program Files (x86)\Microsoft Visual Studio\2019\Community\VC\Tools\MSVC\14.29.30133\atlmfc\include\atltypes.h
; File D:\git\src\IBK\IBK_DRFN\ProjSrc\SrcChartEx\ChartOCX\GraphDraw\Draw.cpp
; File C:\Program Files (x86)\Microsoft Visual Studio\2019\Community\VC\Tools\MSVC\14.29.30133\atlmfc\include\atltypes.h
; File D:\git\src\IBK\IBK_DRFN\ProjSrc\SrcChartEx\ChartOCX\GraphDraw\Draw.cpp
; File C:\Program Files (x86)\Microsoft Visual Studio\2019\Community\VC\Tools\MSVC\14.29.30133\atlmfc\include\atltypes.h
; File D:\git\src\IBK\IBK_DRFN\ProjSrc\SrcChartEx\ChartOCX\GraphDraw\Draw.cpp
; File C:\Program Files (x86)\Microsoft Visual Studio\2019\Community\VC\Tools\MSVC\14.29.30133\atlmfc\include\atltypes.h
; File C:\Program Files (x86)\Microsoft Visual Studio\2019\Community\VC\Tools\MSVC\14.29.30133\atlmfc\include\afxwin1.inl
; File D:\git\src\IBK\IBK_DRFN\ProjSrc\SrcChartEx\ChartOCX\GraphDraw\Draw.cpp
; File C:\Program Files (x86)\Microsoft Visual Studio\2019\Community\VC\Tools\MSVC\14.29.30133\atlmfc\include\afxwin1.inl
; File D:\git\src\IBK\IBK_DRFN\ProjSrc\SrcChartEx\ChartOCX\GraphDraw\Draw.cpp
; File C:\Program Files (x86)\Microsoft Visual Studio\2019\Community\VC\Tools\MSVC\14.29.30133\atlmfc\include\afxwin1.inl
; File D:\git\src\IBK\IBK_DRFN\ProjSrc\SrcChartEx\ChartOCX\GraphDraw\Draw.cpp
; File C:\Program Files (x86)\Microsoft Visual Studio\2019\Community\VC\Tools\MSVC\14.29.30133\atlmfc\include\afxwin1.inl
; File D:\git\src\IBK\IBK_DRFN\ProjSrc\SrcChartEx\ChartOCX\GraphDraw\Draw.cpp
; File C:\Program Files (x86)\Microsoft Visual Studio\2019\Community\VC\Tools\MSVC\14.29.30133\atlmfc\include\afxwin1.inl
; File D:\git\src\IBK\IBK_DRFN\ProjSrc\SrcChartEx\ChartOCX\GraphDraw\Draw.cpp
; File C:\Program Files (x86)\Microsoft Visual Studio\2019\Community\VC\Tools\MSVC\14.29.30133\atlmfc\include\atlsimpstr.h
; File D:\git\src\IBK\IBK_DRFN\ProjSrc\SrcChartEx\ChartOCX\GraphDraw\Draw.cpp
; File C:\Program Files (x86)\Microsoft Visual Studio\2019\Community\VC\Tools\MSVC\14.29.30133\atlmfc\include\afxwin1.inl
; File D:\git\src\IBK\IBK_DRFN\ProjSrc\SrcChartEx\ChartOCX\GraphDraw\Draw.cpp
; File C:\Program Files (x86)\Microsoft Visual Studio\2019\Community\VC\Tools\MSVC\14.29.30133\atlmfc\include\afxwin1.inl
; File D:\git\src\IBK\IBK_DRFN\ProjSrc\SrcChartEx\ChartOCX\GraphDraw\Draw.cpp
; File C:\Program Files (x86)\Microsoft Visual Studio\2019\Community\VC\Tools\MSVC\14.29.30133\atlmfc\include\afxwin1.inl
; File D:\git\src\IBK\IBK_DRFN\ProjSrc\SrcChartEx\ChartOCX\GraphDraw\Draw.cpp
; File C:\Program Files (x86)\Microsoft Visual Studio\2019\Community\VC\Tools\MSVC\14.29.30133\atlmfc\include\afxwin1.inl
; File C:\Program Files (x86)\Microsoft Visual Studio\2019\Community\VC\Tools\MSVC\14.29.30133\atlmfc\include\atlsimpstr.h
; File D:\git\src\IBK\IBK_DRFN\ProjSrc\SrcChartEx\ChartOCX\GraphDraw\Draw.cpp
; File C:\Program Files (x86)\Microsoft Visual Studio\2019\Community\VC\Tools\MSVC\14.29.30133\atlmfc\include\afxwin1.inl
; File D:\git\src\IBK\IBK_DRFN\ProjSrc\SrcChartEx\ChartOCX\GraphDraw\Draw.cpp
; File C:\Program Files (x86)\Microsoft Visual Studio\2019\Community\VC\Tools\MSVC\14.29.30133\atlmfc\include\afxwin1.inl
; File D:\git\src\IBK\IBK_DRFN\ProjSrc\SrcChartEx\ChartOCX\GraphDraw\Draw.cpp
; File C:\Program Files (x86)\Microsoft Visual Studio\2019\Community\VC\Tools\MSVC\14.29.30133\atlmfc\include\afxwin1.inl
; File D:\git\src\IBK\IBK_DRFN\ProjSrc\SrcChartEx\ChartOCX\GraphDraw\Draw.cpp
; File C:\Program Files (x86)\Microsoft Visual Studio\2019\Community\VC\Tools\MSVC\14.29.30133\atlmfc\include\afxwin1.inl
; File D:\git\src\IBK\IBK_DRFN\ProjSrc\SrcChartEx\ChartOCX\GraphDraw\Draw.cpp
;	COMDAT ?DrawBaseLineAndTexts@CDraw@@IAEHPAVCDC@@ABVCRect@@ABVCGraphColor@@PAVCPacket@@ABN444_N5H5@Z
_TEXT	SEGMENT
$T6 = -64						; size = 8
$T7 = -64						; size = 8
_data$ = -64						; size = 8
_sizBase$8 = -64					; size = 8
_dLBase$ = -64						; size = 8
$T9 = -56						; size = 8
_dBase$ = -56						; size = 8
_size$10 = -48						; size = 8
$T11 = -48						; size = 8
$T12 = -48						; size = 8
$T13 = -48						; size = 8
_size$14 = -40						; size = 8
_dUBase$ = -40						; size = 8
_nBkMode$1$ = -32					; size = 4
_strPacketType$ = -28					; size = 4
$T15 = -24						; size = 8
_nBase$1$ = -20						; size = 4
_strBase$ = -16						; size = 4
__$EHRec$ = -12						; size = 12
_strUBase$ = 8						; size = 4
_p_pDC$ = 8						; size = 4
_clrOldText$1$ = 12					; size = 4
$T16 = 12						; size = 4
$T17 = 12						; size = 4
$T18 = 12						; size = 4
_graphRegion$ = 12					; size = 4
_graphColor$ = 16					; size = 4
_strLBase$ = 20						; size = 4
_p_pBasePacket$ = 20					; size = 4
_dViewMax$ = 24						; size = 4
_dViewMin$ = 28						; size = 4
_dLoggedViewMax$ = 32					; size = 4
_dLoggedViewMin$ = 36					; size = 4
_bLog$ = 40						; size = 1
_bInvert$ = 44						; size = 1
_p_bWithText$ = 48					; size = 4
_bBaseLine$ = 52					; size = 1
?DrawBaseLineAndTexts@CDraw@@IAEHPAVCDC@@ABVCRect@@ABVCGraphColor@@PAVCPacket@@ABN444_N5H5@Z PROC ; CDraw::DrawBaseLineAndTexts, COMDAT
; _this$ = ecx

; 543  : {

  00000	55		 push	 ebp
  00001	8b ec		 mov	 ebp, esp
  00003	6a ff		 push	 -1
  00005	68 00 00 00 00	 push	 __ehhandler$?DrawBaseLineAndTexts@CDraw@@IAEHPAVCDC@@ABVCRect@@ABVCGraphColor@@PAVCPacket@@ABN444_N5H5@Z
  0000a	64 a1 00 00 00
	00		 mov	 eax, DWORD PTR fs:0
  00010	50		 push	 eax
  00011	83 ec 34	 sub	 esp, 52			; 00000034H
  00014	53		 push	 ebx
  00015	56		 push	 esi
  00016	57		 push	 edi
  00017	a1 00 00 00 00	 mov	 eax, DWORD PTR ___security_cookie
  0001c	33 c5		 xor	 eax, ebp
  0001e	50		 push	 eax
  0001f	8d 45 f4	 lea	 eax, DWORD PTR __$EHRec$[ebp]
  00022	64 a3 00 00 00
	00		 mov	 DWORD PTR fs:0, eax
  00028	8b f1		 mov	 esi, ecx

; 544  : 	if( !p_pDC || !p_pBasePacket) return 0;

  0002a	8b 7d 08	 mov	 edi, DWORD PTR _p_pDC$[ebp]
  0002d	85 ff		 test	 edi, edi
  0002f	0f 84 20 04 00
	00		 je	 $LN3@DrawBaseLi
  00035	8b 5d 14	 mov	 ebx, DWORD PTR _p_pBasePacket$[ebp]
  00038	85 db		 test	 ebx, ebx
  0003a	0f 84 15 04 00
	00		 je	 $LN3@DrawBaseLi

; 545  : 	
; 546  : 	int	nBkMode = p_pDC->SetBkMode( TRANSPARENT);

  00040	6a 01		 push	 1
  00042	8b cf		 mov	 ecx, edi
  00044	e8 00 00 00 00	 call	 ?SetBkMode@CDC@@QAEHH@Z	; CDC::SetBkMode

; 547  : 	
; 548  : 	double dBase	= p_pBasePacket->GetStandardValue( 0);

  00049	6a 00		 push	 0
  0004b	8b cb		 mov	 ecx, ebx
  0004d	89 45 e0	 mov	 DWORD PTR _nBkMode$1$[ebp], eax
  00050	ff 15 00 00 00
	00		 call	 DWORD PTR __imp_?GetStandardValue@CPacket@@QAENH@Z
  00056	dd 5d c8	 fstp	 QWORD PTR _dBase$[ebp]

; 549  : 	double dUBase	= p_pBasePacket->GetStandardValue( 1);

  00059	6a 01		 push	 1
  0005b	8b cb		 mov	 ecx, ebx
  0005d	ff 15 00 00 00
	00		 call	 DWORD PTR __imp_?GetStandardValue@CPacket@@QAENH@Z
  00063	dd 5d d8	 fstp	 QWORD PTR _dUBase$[ebp]

; 550  : 	double dLBase	= p_pBasePacket->GetStandardValue( 2);

  00066	6a 02		 push	 2
  00068	8b cb		 mov	 ecx, ebx
  0006a	ff 15 00 00 00
	00		 call	 DWORD PTR __imp_?GetStandardValue@CPacket@@QAENH@Z

; 551  : 	
; 552  : 	int nBase = 0;
; 553  : 	CString strPacketType = p_pBasePacket->GetType();

  00070	6a 01		 push	 1
  00072	8d 45 e4	 lea	 eax, DWORD PTR _strPacketType$[ebp]
  00075	c7 45 ec 00 00
	00 00		 mov	 DWORD PTR _nBase$1$[ebp], 0
  0007c	50		 push	 eax
  0007d	8b cb		 mov	 ecx, ebx
  0007f	dd 5d c0	 fstp	 QWORD PTR _dLBase$[ebp]
  00082	ff 15 00 00 00
	00		 call	 DWORD PTR __imp_?GetType@CPacket@@QAE?AV?$CStringT@DV?$StrTraitMFC_DLL@DV?$ChTraitsCRT@D@ATL@@@@@ATL@@_N@Z

; 554  : 	CString strBase, strUBase, strLBase;

  00088	8d 4d f0	 lea	 ecx, DWORD PTR _strBase$[ebp]
  0008b	c7 45 fc 00 00
	00 00		 mov	 DWORD PTR __$EHRec$[ebp+8], 0
  00092	ff 15 00 00 00
	00		 call	 DWORD PTR __imp_??0?$CStringT@DV?$StrTraitMFC_DLL@DV?$ChTraitsCRT@D@ATL@@@@@ATL@@QAE@XZ
  00098	8d 4d 08	 lea	 ecx, DWORD PTR _strUBase$[ebp]
  0009b	ff 15 00 00 00
	00		 call	 DWORD PTR __imp_??0?$CStringT@DV?$StrTraitMFC_DLL@DV?$ChTraitsCRT@D@ATL@@@@@ATL@@QAE@XZ
  000a1	8d 4d 14	 lea	 ecx, DWORD PTR _strLBase$[ebp]
  000a4	ff 15 00 00 00
	00		 call	 DWORD PTR __imp_??0?$CStringT@DV?$StrTraitMFC_DLL@DV?$ChTraitsCRT@D@ATL@@@@@ATL@@QAE@XZ

; 555  : 	if( dBase != -HUGE_VAL && dViewMin <= dBase && dBase <= dViewMax)

  000aa	f2 0f 10 4d c8	 movsd	 xmm1, QWORD PTR _dBase$[ebp]
  000af	66 0f 2e 0d 00
	00 00 00	 ucomisd xmm1, QWORD PTR __real@fff0000000000000
  000b7	8b 5d 0c	 mov	 ebx, DWORD PTR _graphRegion$[ebp]
  000ba	8b 15 00 00 00
	00		 mov	 edx, DWORD PTR __imp_?Format@?$CStringT@DV?$StrTraitMFC_DLL@DV?$ChTraitsCRT@D@ATL@@@@@ATL@@QAAXPBDZZ
  000c0	8b 4d 18	 mov	 ecx, DWORD PTR _dViewMax$[ebp]
  000c3	c6 45 fc 03	 mov	 BYTE PTR __$EHRec$[ebp+8], 3
  000c7	9f		 lahf
  000c8	f6 c4 44	 test	 ah, 68			; 00000044H
  000cb	8b 45 1c	 mov	 eax, DWORD PTR _dViewMin$[ebp]
  000ce	7b 69		 jnp	 SHORT $LN4@DrawBaseLi
  000d0	66 0f 2f 08	 comisd	 xmm1, QWORD PTR [eax]
  000d4	72 63		 jb	 SHORT $LN4@DrawBaseLi
  000d6	f2 0f 10 01	 movsd	 xmm0, QWORD PTR [ecx]
  000da	66 0f 2f c1	 comisd	 xmm0, xmm1
  000de	72 59		 jb	 SHORT $LN4@DrawBaseLi

; 557  : 		strBase.Format( "%f", dBase);

  000e0	83 ec 08	 sub	 esp, 8
  000e3	8d 45 f0	 lea	 eax, DWORD PTR _strBase$[ebp]
  000e6	f2 0f 11 0c 24	 movsd	 QWORD PTR [esp], xmm1
  000eb	68 00 00 00 00	 push	 OFFSET ??_C@_02NJPGOMH@?$CFf@
  000f0	50		 push	 eax
  000f1	ff d2		 call	 edx
; File D:\git\src\IBK\IBK_DRFN\ProjSrc\SrcChartEx\ChartOCX\Include_Chart\Conversion.h

; 27   : 		{	m_hOcxWnd = p_hOcxWnd;	m_eChartMode = p_eChartMode;	}

  000f3	8b 46 1c	 mov	 eax, DWORD PTR [esi+28]
; File D:\git\src\IBK\IBK_DRFN\ProjSrc\SrcChartEx\ChartOCX\GraphDraw\Draw.cpp

; 557  : 		strBase.Format( "%f", dBase);

  000f6	83 c4 10	 add	 esp, 16			; 00000010H

; 558  : 		strBase = CDataConversion( m_hOcxWnd, m_eChartMode).GetStringFormatTrans( strBase, strPacketType);

  000f9	8b 4e 20	 mov	 ecx, DWORD PTR [esi+32]
; File D:\git\src\IBK\IBK_DRFN\ProjSrc\SrcChartEx\ChartOCX\Include_Chart\Conversion.h

; 27   : 		{	m_hOcxWnd = p_hOcxWnd;	m_eChartMode = p_eChartMode;	}

  000fc	89 45 d0	 mov	 DWORD PTR $T13[ebp], eax
; File D:\git\src\IBK\IBK_DRFN\ProjSrc\SrcChartEx\ChartOCX\GraphDraw\Draw.cpp

; 558  : 		strBase = CDataConversion( m_hOcxWnd, m_eChartMode).GetStringFormatTrans( strBase, strPacketType);

  000ff	8d 45 e4	 lea	 eax, DWORD PTR _strPacketType$[ebp]
; File D:\git\src\IBK\IBK_DRFN\ProjSrc\SrcChartEx\ChartOCX\Include_Chart\Conversion.h

; 27   : 		{	m_hOcxWnd = p_hOcxWnd;	m_eChartMode = p_eChartMode;	}

  00102	89 4d d4	 mov	 DWORD PTR $T13[ebp+4], ecx
; File D:\git\src\IBK\IBK_DRFN\ProjSrc\SrcChartEx\ChartOCX\GraphDraw\Draw.cpp

; 558  : 		strBase = CDataConversion( m_hOcxWnd, m_eChartMode).GetStringFormatTrans( strBase, strPacketType);

  00105	8d 4d d0	 lea	 ecx, DWORD PTR $T13[ebp]
  00108	50		 push	 eax
  00109	8d 45 f0	 lea	 eax, DWORD PTR _strBase$[ebp]
  0010c	50		 push	 eax
  0010d	8d 45 0c	 lea	 eax, DWORD PTR $T18[ebp]
  00110	50		 push	 eax
  00111	e8 00 00 00 00	 call	 ?GetStringFormatTrans@CDataConversion@@QAE?AV?$CStringT@DV?$StrTraitMFC_DLL@DV?$ChTraitsCRT@D@ATL@@@@@ATL@@ABV23@0@Z ; CDataConversion::GetStringFormatTrans
  00116	50		 push	 eax
  00117	8d 4d f0	 lea	 ecx, DWORD PTR _strBase$[ebp]
  0011a	c6 45 fc 04	 mov	 BYTE PTR __$EHRec$[ebp+8], 4
  0011e	ff 15 00 00 00
	00		 call	 DWORD PTR __imp_??4?$CStringT@DV?$StrTraitMFC_DLL@DV?$ChTraitsCRT@D@ATL@@@@@ATL@@QAEAAV01@ABV01@@Z
  00124	8d 4d 0c	 lea	 ecx, DWORD PTR $T18[ebp]
  00127	c6 45 fc 03	 mov	 BYTE PTR __$EHRec$[ebp+8], 3
  0012b	ff 15 00 00 00
	00		 call	 DWORD PTR __imp_??1?$CStringT@DV?$StrTraitMFC_DLL@DV?$ChTraitsCRT@D@ATL@@@@@ATL@@QAE@XZ

; 559  : 	}

  00131	8b 15 00 00 00
	00		 mov	 edx, DWORD PTR __imp_?Format@?$CStringT@DV?$StrTraitMFC_DLL@DV?$ChTraitsCRT@D@ATL@@@@@ATL@@QAAXPBDZZ
  00137	eb 1e		 jmp	 SHORT $LN8@DrawBaseLi
$LN4@DrawBaseLi:

; 560  : 	else if( dBase < dViewMin) nBase = graphRegion.bottom;

  00139	f2 0f 10 00	 movsd	 xmm0, QWORD PTR [eax]
  0013d	66 0f 2f c1	 comisd	 xmm0, xmm1
  00141	76 08		 jbe	 SHORT $LN6@DrawBaseLi
  00143	8b 4b 0c	 mov	 ecx, DWORD PTR [ebx+12]
  00146	89 4d ec	 mov	 DWORD PTR _nBase$1$[ebp], ecx
  00149	eb 0c		 jmp	 SHORT $LN8@DrawBaseLi
$LN6@DrawBaseLi:

; 561  : 	else if( dViewMax < dBase) nBase = graphRegion.top;

  0014b	66 0f 2f 09	 comisd	 xmm1, QWORD PTR [ecx]
  0014f	76 06		 jbe	 SHORT $LN8@DrawBaseLi
  00151	8b 43 04	 mov	 eax, DWORD PTR [ebx+4]
  00154	89 45 ec	 mov	 DWORD PTR _nBase$1$[ebp], eax
$LN8@DrawBaseLi:

; 562  : 	
; 563  : 	if( dUBase != -HUGE_VAL)

  00157	f2 0f 10 45 d8	 movsd	 xmm0, QWORD PTR _dUBase$[ebp]
  0015c	f2 0f 10 0d 00
	00 00 00	 movsd	 xmm1, QWORD PTR __real@fff0000000000000
  00164	66 0f 2e c1	 ucomisd xmm0, xmm1
  00168	9f		 lahf
  00169	f6 c4 44	 test	 ah, 68			; 00000044H
  0016c	7b 77		 jnp	 SHORT $LN9@DrawBaseLi

; 564  : 	{
; 565  : 		if(dUBase == 0)

  0016e	66 0f 2e 05 00
	00 00 00	 ucomisd xmm0, QWORD PTR __real@0000000000000000
  00176	9f		 lahf
  00177	f6 c4 44	 test	 ah, 68			; 00000044H
  0017a	7a 10		 jp	 SHORT $LN10@DrawBaseLi

; 566  : 			strUBase = "";

  0017c	68 00 00 00 00	 push	 OFFSET ??_C@_00CNPNBAHC@@
  00181	8d 4d 08	 lea	 ecx, DWORD PTR _strUBase$[ebp]
  00184	ff 15 00 00 00
	00		 call	 DWORD PTR __imp_??4?$CStringT@DV?$StrTraitMFC_DLL@DV?$ChTraitsCRT@D@ATL@@@@@ATL@@QAEAAV01@PBD@Z
  0018a	eb 16		 jmp	 SHORT $LN11@DrawBaseLi
$LN10@DrawBaseLi:

; 567  : 		else
; 568  : 			strUBase.Format( "%f", dUBase);

  0018c	83 ec 08	 sub	 esp, 8
  0018f	8d 45 08	 lea	 eax, DWORD PTR _strUBase$[ebp]
  00192	f2 0f 11 04 24	 movsd	 QWORD PTR [esp], xmm0
  00197	68 00 00 00 00	 push	 OFFSET ??_C@_02NJPGOMH@?$CFf@
  0019c	50		 push	 eax
  0019d	ff d2		 call	 edx
  0019f	83 c4 10	 add	 esp, 16			; 00000010H
$LN11@DrawBaseLi:
; File D:\git\src\IBK\IBK_DRFN\ProjSrc\SrcChartEx\ChartOCX\Include_Chart\Conversion.h

; 27   : 		{	m_hOcxWnd = p_hOcxWnd;	m_eChartMode = p_eChartMode;	}

  001a2	8b 46 1c	 mov	 eax, DWORD PTR [esi+28]
; File D:\git\src\IBK\IBK_DRFN\ProjSrc\SrcChartEx\ChartOCX\GraphDraw\Draw.cpp

; 569  : 		strUBase = CDataConversion( m_hOcxWnd, m_eChartMode).GetStringFormatTrans( strUBase, strPacketType);

  001a5	8b 4e 20	 mov	 ecx, DWORD PTR [esi+32]
; File D:\git\src\IBK\IBK_DRFN\ProjSrc\SrcChartEx\ChartOCX\Include_Chart\Conversion.h

; 27   : 		{	m_hOcxWnd = p_hOcxWnd;	m_eChartMode = p_eChartMode;	}

  001a8	89 45 d0	 mov	 DWORD PTR $T12[ebp], eax
; File D:\git\src\IBK\IBK_DRFN\ProjSrc\SrcChartEx\ChartOCX\GraphDraw\Draw.cpp

; 569  : 		strUBase = CDataConversion( m_hOcxWnd, m_eChartMode).GetStringFormatTrans( strUBase, strPacketType);

  001ab	8d 45 e4	 lea	 eax, DWORD PTR _strPacketType$[ebp]
  001ae	50		 push	 eax
  001af	8d 45 08	 lea	 eax, DWORD PTR _strUBase$[ebp]
; File D:\git\src\IBK\IBK_DRFN\ProjSrc\SrcChartEx\ChartOCX\Include_Chart\Conversion.h

; 27   : 		{	m_hOcxWnd = p_hOcxWnd;	m_eChartMode = p_eChartMode;	}

  001b2	89 4d d4	 mov	 DWORD PTR $T12[ebp+4], ecx
; File D:\git\src\IBK\IBK_DRFN\ProjSrc\SrcChartEx\ChartOCX\GraphDraw\Draw.cpp

; 569  : 		strUBase = CDataConversion( m_hOcxWnd, m_eChartMode).GetStringFormatTrans( strUBase, strPacketType);

  001b5	50		 push	 eax
  001b6	8d 45 0c	 lea	 eax, DWORD PTR $T17[ebp]
  001b9	50		 push	 eax
  001ba	8d 4d d0	 lea	 ecx, DWORD PTR $T12[ebp]
  001bd	e8 00 00 00 00	 call	 ?GetStringFormatTrans@CDataConversion@@QAE?AV?$CStringT@DV?$StrTraitMFC_DLL@DV?$ChTraitsCRT@D@ATL@@@@@ATL@@ABV23@0@Z ; CDataConversion::GetStringFormatTrans
  001c2	50		 push	 eax
  001c3	8d 4d 08	 lea	 ecx, DWORD PTR _strUBase$[ebp]
  001c6	c6 45 fc 05	 mov	 BYTE PTR __$EHRec$[ebp+8], 5
  001ca	ff 15 00 00 00
	00		 call	 DWORD PTR __imp_??4?$CStringT@DV?$StrTraitMFC_DLL@DV?$ChTraitsCRT@D@ATL@@@@@ATL@@QAEAAV01@ABV01@@Z
  001d0	8d 4d 0c	 lea	 ecx, DWORD PTR $T17[ebp]
  001d3	c6 45 fc 03	 mov	 BYTE PTR __$EHRec$[ebp+8], 3
  001d7	ff 15 00 00 00
	00		 call	 DWORD PTR __imp_??1?$CStringT@DV?$StrTraitMFC_DLL@DV?$ChTraitsCRT@D@ATL@@@@@ATL@@QAE@XZ
  001dd	f2 0f 10 0d 00
	00 00 00	 movsd	 xmm1, QWORD PTR __real@fff0000000000000
$LN9@DrawBaseLi:

; 570  : 	}
; 571  : 	if( dLBase != -HUGE_VAL)

  001e5	f2 0f 10 45 c0	 movsd	 xmm0, QWORD PTR _dLBase$[ebp]
  001ea	66 0f 2e c1	 ucomisd xmm0, xmm1
  001ee	9f		 lahf
  001ef	f6 c4 44	 test	 ah, 68			; 00000044H
  001f2	7b 55		 jnp	 SHORT $LN12@DrawBaseLi

; 573  : 		strLBase.Format( "%f", dLBase);

  001f4	83 ec 08	 sub	 esp, 8
  001f7	8d 45 14	 lea	 eax, DWORD PTR _strLBase$[ebp]
  001fa	f2 0f 11 04 24	 movsd	 QWORD PTR [esp], xmm0
  001ff	68 00 00 00 00	 push	 OFFSET ??_C@_02NJPGOMH@?$CFf@
  00204	50		 push	 eax
  00205	ff 15 00 00 00
	00		 call	 DWORD PTR __imp_?Format@?$CStringT@DV?$StrTraitMFC_DLL@DV?$ChTraitsCRT@D@ATL@@@@@ATL@@QAAXPBDZZ
; File D:\git\src\IBK\IBK_DRFN\ProjSrc\SrcChartEx\ChartOCX\Include_Chart\Conversion.h

; 27   : 		{	m_hOcxWnd = p_hOcxWnd;	m_eChartMode = p_eChartMode;	}

  0020b	8b 46 1c	 mov	 eax, DWORD PTR [esi+28]
; File D:\git\src\IBK\IBK_DRFN\ProjSrc\SrcChartEx\ChartOCX\GraphDraw\Draw.cpp

; 573  : 		strLBase.Format( "%f", dLBase);

  0020e	83 c4 10	 add	 esp, 16			; 00000010H

; 574  : 		strLBase = CDataConversion( m_hOcxWnd, m_eChartMode).GetStringFormatTrans( strLBase, strPacketType);

  00211	8b 4e 20	 mov	 ecx, DWORD PTR [esi+32]
; File D:\git\src\IBK\IBK_DRFN\ProjSrc\SrcChartEx\ChartOCX\Include_Chart\Conversion.h

; 27   : 		{	m_hOcxWnd = p_hOcxWnd;	m_eChartMode = p_eChartMode;	}

  00214	89 45 d0	 mov	 DWORD PTR $T11[ebp], eax
; File D:\git\src\IBK\IBK_DRFN\ProjSrc\SrcChartEx\ChartOCX\GraphDraw\Draw.cpp

; 574  : 		strLBase = CDataConversion( m_hOcxWnd, m_eChartMode).GetStringFormatTrans( strLBase, strPacketType);

  00217	8d 45 e4	 lea	 eax, DWORD PTR _strPacketType$[ebp]
; File D:\git\src\IBK\IBK_DRFN\ProjSrc\SrcChartEx\ChartOCX\Include_Chart\Conversion.h

; 27   : 		{	m_hOcxWnd = p_hOcxWnd;	m_eChartMode = p_eChartMode;	}

  0021a	89 4d d4	 mov	 DWORD PTR $T11[ebp+4], ecx
; File D:\git\src\IBK\IBK_DRFN\ProjSrc\SrcChartEx\ChartOCX\GraphDraw\Draw.cpp

; 574  : 		strLBase = CDataConversion( m_hOcxWnd, m_eChartMode).GetStringFormatTrans( strLBase, strPacketType);

  0021d	8d 4d d0	 lea	 ecx, DWORD PTR $T11[ebp]
  00220	50		 push	 eax
  00221	8d 45 14	 lea	 eax, DWORD PTR _strLBase$[ebp]
  00224	50		 push	 eax
  00225	8d 45 0c	 lea	 eax, DWORD PTR $T16[ebp]
  00228	50		 push	 eax
  00229	e8 00 00 00 00	 call	 ?GetStringFormatTrans@CDataConversion@@QAE?AV?$CStringT@DV?$StrTraitMFC_DLL@DV?$ChTraitsCRT@D@ATL@@@@@ATL@@ABV23@0@Z ; CDataConversion::GetStringFormatTrans
  0022e	50		 push	 eax
  0022f	8d 4d 14	 lea	 ecx, DWORD PTR _strLBase$[ebp]
  00232	c6 45 fc 06	 mov	 BYTE PTR __$EHRec$[ebp+8], 6
  00236	ff 15 00 00 00
	00		 call	 DWORD PTR __imp_??4?$CStringT@DV?$StrTraitMFC_DLL@DV?$ChTraitsCRT@D@ATL@@@@@ATL@@QAEAAV01@ABV01@@Z
  0023c	8d 4d 0c	 lea	 ecx, DWORD PTR $T16[ebp]
  0023f	c6 45 fc 03	 mov	 BYTE PTR __$EHRec$[ebp+8], 3
  00243	ff 15 00 00 00
	00		 call	 DWORD PTR __imp_??1?$CStringT@DV?$StrTraitMFC_DLL@DV?$ChTraitsCRT@D@ATL@@@@@ATL@@QAE@XZ
$LN12@DrawBaseLi:
; File C:\Program Files (x86)\Microsoft Visual Studio\2019\Community\VC\Tools\MSVC\14.29.30133\atlmfc\include\afxwin1.inl

; 639  : 		VERIFY(::GetTextExtentPoint32(m_hAttribDC, str, (int)str.GetLength(), &size));

  00249	8b 35 00 00 00
	00		 mov	 esi, DWORD PTR __imp__GetTextExtentPoint32A@16
  0024f	8d 45 d8	 lea	 eax, DWORD PTR _size$14[ebp]
  00252	50		 push	 eax
  00253	8b 45 08	 mov	 eax, DWORD PTR _strUBase$[ebp]
  00256	ff 70 f4	 push	 DWORD PTR [eax-12]
  00259	50		 push	 eax
  0025a	ff 77 08	 push	 DWORD PTR [edi+8]
  0025d	ff d6		 call	 esi
  0025f	8d 45 d0	 lea	 eax, DWORD PTR _size$10[ebp]
  00262	50		 push	 eax
  00263	8b 45 14	 mov	 eax, DWORD PTR _strLBase$[ebp]
  00266	ff 70 f4	 push	 DWORD PTR [eax-12]
  00269	50		 push	 eax
  0026a	ff 77 08	 push	 DWORD PTR [edi+8]
  0026d	ff d6		 call	 esi

; 384  : 	{ ASSERT(m_hAttribDC != NULL); return ::GetTextColor(m_hAttribDC); }

  0026f	ff 77 08	 push	 DWORD PTR [edi+8]
  00272	ff 15 00 00 00
	00		 call	 DWORD PTR __imp__GetTextColor@4
; File C:\Program Files (x86)\Microsoft Visual Studio\2019\Community\VC\Tools\MSVC\14.29.30133\atlmfc\include\atlsimpstr.h

; 533  : 		return( GetLength() == 0 );

  00278	8b 4d f0	 mov	 ecx, DWORD PTR _strBase$[ebp]
; File D:\git\src\IBK\IBK_DRFN\ProjSrc\SrcChartEx\ChartOCX\GraphDraw\Draw.cpp

; 579  : 	COLORREF clrOldText = p_pDC->GetTextColor();

  0027b	89 45 0c	 mov	 DWORD PTR _clrOldText$1$[ebp], eax
; File C:\Program Files (x86)\Microsoft Visual Studio\2019\Community\VC\Tools\MSVC\14.29.30133\atlmfc\include\atlsimpstr.h

; 533  : 		return( GetLength() == 0 );

  0027e	83 79 f4 00	 cmp	 DWORD PTR [ecx-12], 0
; File D:\git\src\IBK\IBK_DRFN\ProjSrc\SrcChartEx\ChartOCX\GraphDraw\Draw.cpp

; 581  : 	if( !strBase.IsEmpty())

  00282	0f 84 ee 00 00
	00		 je	 $LN16@DrawBaseLi

; 297  : 	if(checkLog)

  00288	80 7d 28 00	 cmp	 BYTE PTR _bLog$[ebp], 0

; 583  : 		nBase = CDataConversion::GetChangingPosition( graphRegion.bottom, graphRegion.Height(), dLoggedViewMin, dLoggedViewMax - dLoggedViewMin, CDraw::CalLogValue( bLog, dBase));

  0028c	f2 0f 10 45 c8	 movsd	 xmm0, QWORD PTR _dBase$[ebp]
  00291	f2 0f 11 45 c0	 movsd	 QWORD PTR _data$[ebp], xmm0

; 297  : 	if(checkLog)

  00296	74 14		 je	 SHORT $LN69@DrawBaseLi

; 298  : 		return CMath::Log(data);

  00298	8d 45 c0	 lea	 eax, DWORD PTR _data$[ebp]
  0029b	50		 push	 eax
  0029c	e8 00 00 00 00	 call	 ?Log@CMath@@SANABN@Z	; CMath::Log
  002a1	dd 5d c0	 fstp	 QWORD PTR $T7[ebp]
  002a4	f2 0f 10 45 c0	 movsd	 xmm0, QWORD PTR $T7[ebp]
  002a9	83 c4 04	 add	 esp, 4
$LN69@DrawBaseLi:

; 583  : 		nBase = CDataConversion::GetChangingPosition( graphRegion.bottom, graphRegion.Height(), dLoggedViewMin, dLoggedViewMax - dLoggedViewMin, CDraw::CalLogValue( bLog, dBase));

  002ac	8b 45 20	 mov	 eax, DWORD PTR _dLoggedViewMax$[ebp]
  002af	8d 75 c8	 lea	 esi, DWORD PTR $T9[ebp]
  002b2	8b 55 24	 mov	 edx, DWORD PTR _dLoggedViewMin$[ebp]
; File C:\Program Files (x86)\Microsoft Visual Studio\2019\Community\VC\Tools\MSVC\14.29.30133\atlmfc\include\atltypes.h

; 581  : 	return bottom - top;

  002b5	8b 4b 0c	 mov	 ecx, DWORD PTR [ebx+12]
; File D:\git\src\IBK\IBK_DRFN\ProjSrc\SrcChartEx\ChartOCX\GraphDraw\Draw.cpp

; 583  : 		nBase = CDataConversion::GetChangingPosition( graphRegion.bottom, graphRegion.Height(), dLoggedViewMin, dLoggedViewMax - dLoggedViewMin, CDraw::CalLogValue( bLog, dBase));

  002b8	56		 push	 esi
  002b9	f2 0f 11 45 c8	 movsd	 QWORD PTR $T9[ebp], xmm0
  002be	8d 75 e8	 lea	 esi, DWORD PTR $T15[ebp]
  002c1	f2 0f 10 00	 movsd	 xmm0, QWORD PTR [eax]
; File C:\Program Files (x86)\Microsoft Visual Studio\2019\Community\VC\Tools\MSVC\14.29.30133\atlmfc\include\atltypes.h

; 581  : 	return bottom - top;

  002c5	8b c1		 mov	 eax, ecx
; File D:\git\src\IBK\IBK_DRFN\ProjSrc\SrcChartEx\ChartOCX\GraphDraw\Draw.cpp

; 583  : 		nBase = CDataConversion::GetChangingPosition( graphRegion.bottom, graphRegion.Height(), dLoggedViewMin, dLoggedViewMax - dLoggedViewMin, CDraw::CalLogValue( bLog, dBase));

  002c7	f2 0f 5c 02	 subsd	 xmm0, QWORD PTR [edx]
; File C:\Program Files (x86)\Microsoft Visual Studio\2019\Community\VC\Tools\MSVC\14.29.30133\atlmfc\include\atltypes.h

; 581  : 	return bottom - top;

  002cb	2b 43 04	 sub	 eax, DWORD PTR [ebx+4]
; File D:\git\src\IBK\IBK_DRFN\ProjSrc\SrcChartEx\ChartOCX\GraphDraw\Draw.cpp

; 583  : 		nBase = CDataConversion::GetChangingPosition( graphRegion.bottom, graphRegion.Height(), dLoggedViewMin, dLoggedViewMax - dLoggedViewMin, CDraw::CalLogValue( bLog, dBase));

  002ce	56		 push	 esi
  002cf	52		 push	 edx
  002d0	50		 push	 eax
  002d1	51		 push	 ecx
  002d2	f2 0f 11 45 e8	 movsd	 QWORD PTR $T15[ebp], xmm0
  002d7	e8 00 00 00 00	 call	 ?GetChangingPosition@CDataConversion@@SAHHHABN00@Z ; CDataConversion::GetChangingPosition
  002dc	83 c4 14	 add	 esp, 20			; 00000014H
  002df	89 45 ec	 mov	 DWORD PTR _nBase$1$[ebp], eax

; 584  : 		if( bInvert) nBase = CDataConversion::InvertGraphDataPt( graphRegion, nBase);

  002e2	80 7d 2c 00	 cmp	 BYTE PTR _bInvert$[ebp], 0
  002e6	74 0d		 je	 SHORT $LN14@DrawBaseLi
  002e8	50		 push	 eax
  002e9	53		 push	 ebx
  002ea	e8 00 00 00 00	 call	 ?InvertGraphDataPt@CDataConversion@@SAHABVCRect@@H@Z ; CDataConversion::InvertGraphDataPt
  002ef	83 c4 08	 add	 esp, 8
  002f2	89 45 ec	 mov	 DWORD PTR _nBase$1$[ebp], eax
$LN14@DrawBaseLi:

; 585  : 		
; 586  : 		// 기준선 보임 환경설정과 Scale 자동포함 기능 - ojtaso (20071101)
; 587  : 		if(bBaseLine)

  002f5	80 7d 34 00	 cmp	 BYTE PTR _bBaseLine$[ebp], 0
  002f9	74 7b		 je	 SHORT $LN16@DrawBaseLi
; File C:\Program Files (x86)\Microsoft Visual Studio\2019\Community\VC\Tools\MSVC\14.29.30133\atlmfc\include\atltypes.h

; 408  : 	x = initX;

  002fb	8b 73 08	 mov	 esi, DWORD PTR [ebx+8]
; File C:\Program Files (x86)\Microsoft Visual Studio\2019\Community\VC\Tools\MSVC\14.29.30133\atlmfc\include\afxwin1.inl

; 464  : 	{ ASSERT(m_hDC != NULL); return MoveTo(point.x, point.y); }

  002fe	8b cf		 mov	 ecx, edi
  00300	50		 push	 eax
  00301	ff 33		 push	 DWORD PTR [ebx]
  00303	8d 45 c0	 lea	 eax, DWORD PTR $T6[ebp]
  00306	50		 push	 eax
  00307	e8 00 00 00 00	 call	 ?MoveTo@CDC@@QAE?AVCPoint@@HH@Z ; CDC::MoveTo

; 466  : 	{ ASSERT(m_hDC != NULL); return LineTo(point.x, point.y); }

  0030c	ff 75 ec	 push	 DWORD PTR _nBase$1$[ebp]
  0030f	8b cf		 mov	 ecx, edi
  00311	56		 push	 esi
  00312	e8 00 00 00 00	 call	 ?LineTo@CDC@@QAEHHH@Z	; CDC::LineTo
; File D:\git\src\IBK\IBK_DRFN\ProjSrc\SrcChartEx\ChartOCX\GraphDraw\Draw.cpp

; 591  : 			if( p_bWithText)

  00317	83 7d 30 00	 cmp	 DWORD PTR _p_bWithText$[ebp], 0
  0031b	0f 84 e5 00 00
	00		 je	 $LN19@DrawBaseLi

; 592  : 			{
; 593  : 				CSize sizBase = p_pDC->GetTextExtent( strBase);

  00321	8d 45 f0	 lea	 eax, DWORD PTR _strBase$[ebp]
  00324	8b cf		 mov	 ecx, edi
  00326	50		 push	 eax
  00327	8d 45 c0	 lea	 eax, DWORD PTR _sizBase$8[ebp]
  0032a	50		 push	 eax
  0032b	e8 00 00 00 00	 call	 ?GetTextExtent@CDC@@QBE?AVCSize@@ABV?$CStringT@DV?$StrTraitMFC_DLL@DV?$ChTraitsCRT@D@ATL@@@@@ATL@@@Z ; CDC::GetTextExtent

; 594  : 				p_pDC->SetTextColor( graphColor.GetColor6());

  00330	8b 4d 10	 mov	 ecx, DWORD PTR _graphColor$[ebp]
  00333	8b 37		 mov	 esi, DWORD PTR [edi]
  00335	ff 15 00 00 00
	00		 call	 DWORD PTR __imp_?GetColor6@CGraphColor@@QBEKXZ
  0033b	50		 push	 eax
  0033c	8b cf		 mov	 ecx, edi
  0033e	ff 56 38	 call	 DWORD PTR [esi+56]

; 595  : 				p_pDC->TextOut( graphRegion.left + ( sizUBase.cx < sizLBase.cx ? sizLBase.cx : sizUBase.cx) + 5, ( nBase - sizBase.cy < graphRegion.top ? nBase + 2 : nBase - sizBase.cy), strBase);

  00341	8b 45 ec	 mov	 eax, DWORD PTR _nBase$1$[ebp]
  00344	8b c8		 mov	 ecx, eax
  00346	2b 4d c4	 sub	 ecx, DWORD PTR _sizBase$8[ebp+4]
  00349	3b 4b 04	 cmp	 ecx, DWORD PTR [ebx+4]
  0034c	7d 03		 jge	 SHORT $LN21@DrawBaseLi
  0034e	8d 48 02	 lea	 ecx, DWORD PTR [eax+2]
$LN21@DrawBaseLi:
; File C:\Program Files (x86)\Microsoft Visual Studio\2019\Community\VC\Tools\MSVC\14.29.30133\atlmfc\include\afxwin1.inl

; 574  : 	{ ASSERT(m_hDC != NULL); return TextOut(x, y, (LPCTSTR)str, (int)str.GetLength()); } // call virtual

  00351	8b 45 f0	 mov	 eax, DWORD PTR _strBase$[ebp]
; File D:\git\src\IBK\IBK_DRFN\ProjSrc\SrcChartEx\ChartOCX\GraphDraw\Draw.cpp

; 595  : 				p_pDC->TextOut( graphRegion.left + ( sizUBase.cx < sizLBase.cx ? sizLBase.cx : sizUBase.cx) + 5, ( nBase - sizBase.cy < graphRegion.top ? nBase + 2 : nBase - sizBase.cy), strBase);

  00354	8b 75 d8	 mov	 esi, DWORD PTR _size$14[ebp]
  00357	3b 75 d0	 cmp	 esi, DWORD PTR _size$10[ebp]
; File C:\Program Files (x86)\Microsoft Visual Studio\2019\Community\VC\Tools\MSVC\14.29.30133\atlmfc\include\afxwin1.inl

; 574  : 	{ ASSERT(m_hDC != NULL); return TextOut(x, y, (LPCTSTR)str, (int)str.GetLength()); } // call virtual

  0035a	8b 17		 mov	 edx, DWORD PTR [edi]
  0035c	ff 70 f4	 push	 DWORD PTR [eax-12]
  0035f	50		 push	 eax
; File D:\git\src\IBK\IBK_DRFN\ProjSrc\SrcChartEx\ChartOCX\GraphDraw\Draw.cpp

; 595  : 				p_pDC->TextOut( graphRegion.left + ( sizUBase.cx < sizLBase.cx ? sizLBase.cx : sizUBase.cx) + 5, ( nBase - sizBase.cy < graphRegion.top ? nBase + 2 : nBase - sizBase.cy), strBase);

  00360	8b 03		 mov	 eax, DWORD PTR [ebx]
; File C:\Program Files (x86)\Microsoft Visual Studio\2019\Community\VC\Tools\MSVC\14.29.30133\atlmfc\include\afxwin1.inl

; 574  : 	{ ASSERT(m_hDC != NULL); return TextOut(x, y, (LPCTSTR)str, (int)str.GetLength()); } // call virtual

  00362	51		 push	 ecx
; File D:\git\src\IBK\IBK_DRFN\ProjSrc\SrcChartEx\ChartOCX\GraphDraw\Draw.cpp

; 595  : 				p_pDC->TextOut( graphRegion.left + ( sizUBase.cx < sizLBase.cx ? sizLBase.cx : sizUBase.cx) + 5, ( nBase - sizBase.cy < graphRegion.top ? nBase + 2 : nBase - sizBase.cy), strBase);

  00363	8b ce		 mov	 ecx, esi
  00365	0f 4c 4d d0	 cmovl	 ecx, DWORD PTR _size$10[ebp]
  00369	83 c0 05	 add	 eax, 5
  0036c	03 c1		 add	 eax, ecx
; File C:\Program Files (x86)\Microsoft Visual Studio\2019\Community\VC\Tools\MSVC\14.29.30133\atlmfc\include\afxwin1.inl

; 574  : 	{ ASSERT(m_hDC != NULL); return TextOut(x, y, (LPCTSTR)str, (int)str.GetLength()); } // call virtual

  0036e	8b cf		 mov	 ecx, edi
  00370	50		 push	 eax
  00371	ff 52 64	 call	 DWORD PTR [edx+100]
  00374	eb 0a		 jmp	 SHORT $LN119@DrawBaseLi
$LN16@DrawBaseLi:
; File D:\git\src\IBK\IBK_DRFN\ProjSrc\SrcChartEx\ChartOCX\GraphDraw\Draw.cpp

; 600  : 	if( p_bWithText)

  00376	83 7d 30 00	 cmp	 DWORD PTR _p_bWithText$[ebp], 0
  0037a	0f 84 86 00 00
	00		 je	 $LN19@DrawBaseLi
$LN119@DrawBaseLi:
; File C:\Program Files (x86)\Microsoft Visual Studio\2019\Community\VC\Tools\MSVC\14.29.30133\atlmfc\include\atlsimpstr.h

; 533  : 		return( GetLength() == 0 );

  00380	8b 45 08	 mov	 eax, DWORD PTR _strUBase$[ebp]
  00383	83 78 f4 00	 cmp	 DWORD PTR [eax-12], 0
; File D:\git\src\IBK\IBK_DRFN\ProjSrc\SrcChartEx\ChartOCX\GraphDraw\Draw.cpp

; 602  : 		if( !strUBase.IsEmpty())

  00387	74 39		 je	 SHORT $LN18@DrawBaseLi

; 603  : 		{
; 604  : 			p_pDC->SetTextColor( graphColor.GetColor1());

  00389	8b 4d 10	 mov	 ecx, DWORD PTR _graphColor$[ebp]
  0038c	8b 37		 mov	 esi, DWORD PTR [edi]
  0038e	ff 15 00 00 00
	00		 call	 DWORD PTR __imp_?GetColor1@CGraphColor@@QBEKXZ
  00394	50		 push	 eax
  00395	8b cf		 mov	 ecx, edi
  00397	ff 56 38	 call	 DWORD PTR [esi+56]

; 605  : 			p_pDC->TextOut( graphRegion.left + ( sizUBase.cx < sizLBase.cx ? sizLBase.cx - sizUBase.cx : 0), graphRegion.top + 1, strUBase);

  0039a	8b 55 d0	 mov	 edx, DWORD PTR _size$10[ebp]
  0039d	33 c9		 xor	 ecx, ecx
  0039f	8b c2		 mov	 eax, edx
  003a1	2b 45 d8	 sub	 eax, DWORD PTR _size$14[ebp]
  003a4	39 55 d8	 cmp	 DWORD PTR _size$14[ebp], edx
; File C:\Program Files (x86)\Microsoft Visual Studio\2019\Community\VC\Tools\MSVC\14.29.30133\atlmfc\include\afxwin1.inl

; 574  : 	{ ASSERT(m_hDC != NULL); return TextOut(x, y, (LPCTSTR)str, (int)str.GetLength()); } // call virtual

  003a7	8b 17		 mov	 edx, DWORD PTR [edi]
; File D:\git\src\IBK\IBK_DRFN\ProjSrc\SrcChartEx\ChartOCX\GraphDraw\Draw.cpp

; 605  : 			p_pDC->TextOut( graphRegion.left + ( sizUBase.cx < sizLBase.cx ? sizLBase.cx - sizUBase.cx : 0), graphRegion.top + 1, strUBase);

  003a9	0f 4c c8	 cmovl	 ecx, eax
; File C:\Program Files (x86)\Microsoft Visual Studio\2019\Community\VC\Tools\MSVC\14.29.30133\atlmfc\include\afxwin1.inl

; 574  : 	{ ASSERT(m_hDC != NULL); return TextOut(x, y, (LPCTSTR)str, (int)str.GetLength()); } // call virtual

  003ac	8b 45 08	 mov	 eax, DWORD PTR _strUBase$[ebp]
  003af	ff 70 f4	 push	 DWORD PTR [eax-12]
  003b2	50		 push	 eax
; File D:\git\src\IBK\IBK_DRFN\ProjSrc\SrcChartEx\ChartOCX\GraphDraw\Draw.cpp

; 605  : 			p_pDC->TextOut( graphRegion.left + ( sizUBase.cx < sizLBase.cx ? sizLBase.cx - sizUBase.cx : 0), graphRegion.top + 1, strUBase);

  003b3	8b 43 04	 mov	 eax, DWORD PTR [ebx+4]
  003b6	40		 inc	 eax
; File C:\Program Files (x86)\Microsoft Visual Studio\2019\Community\VC\Tools\MSVC\14.29.30133\atlmfc\include\afxwin1.inl

; 574  : 	{ ASSERT(m_hDC != NULL); return TextOut(x, y, (LPCTSTR)str, (int)str.GetLength()); } // call virtual

  003b7	50		 push	 eax
; File D:\git\src\IBK\IBK_DRFN\ProjSrc\SrcChartEx\ChartOCX\GraphDraw\Draw.cpp

; 605  : 			p_pDC->TextOut( graphRegion.left + ( sizUBase.cx < sizLBase.cx ? sizLBase.cx - sizUBase.cx : 0), graphRegion.top + 1, strUBase);

  003b8	8b 03		 mov	 eax, DWORD PTR [ebx]
  003ba	03 c1		 add	 eax, ecx
; File C:\Program Files (x86)\Microsoft Visual Studio\2019\Community\VC\Tools\MSVC\14.29.30133\atlmfc\include\afxwin1.inl

; 574  : 	{ ASSERT(m_hDC != NULL); return TextOut(x, y, (LPCTSTR)str, (int)str.GetLength()); } // call virtual

  003bc	8b cf		 mov	 ecx, edi
  003be	50		 push	 eax
  003bf	ff 52 64	 call	 DWORD PTR [edx+100]
$LN18@DrawBaseLi:
; File C:\Program Files (x86)\Microsoft Visual Studio\2019\Community\VC\Tools\MSVC\14.29.30133\atlmfc\include\atlsimpstr.h

; 533  : 		return( GetLength() == 0 );

  003c2	8b 45 14	 mov	 eax, DWORD PTR _strLBase$[ebp]
  003c5	83 78 f4 00	 cmp	 DWORD PTR [eax-12], 0
; File D:\git\src\IBK\IBK_DRFN\ProjSrc\SrcChartEx\ChartOCX\GraphDraw\Draw.cpp

; 608  : 		if( !strLBase.IsEmpty())

  003c9	74 3b		 je	 SHORT $LN19@DrawBaseLi

; 609  : 		{
; 610  : 			p_pDC->SetTextColor( graphColor.GetColor3());

  003cb	8b 4d 10	 mov	 ecx, DWORD PTR _graphColor$[ebp]
  003ce	8b 37		 mov	 esi, DWORD PTR [edi]
  003d0	ff 15 00 00 00
	00		 call	 DWORD PTR __imp_?GetColor3@CGraphColor@@QBEKXZ
  003d6	50		 push	 eax
  003d7	8b cf		 mov	 ecx, edi
  003d9	ff 56 38	 call	 DWORD PTR [esi+56]

; 611  : 			p_pDC->TextOut( graphRegion.left + ( sizLBase.cx < sizUBase.cx ? sizUBase.cx - sizLBase.cx : 0), graphRegion.bottom  - sizUBase.cy, strLBase);

  003dc	8b 55 d8	 mov	 edx, DWORD PTR _size$14[ebp]
  003df	33 c9		 xor	 ecx, ecx
  003e1	8b c2		 mov	 eax, edx
  003e3	2b 45 d0	 sub	 eax, DWORD PTR _size$10[ebp]
  003e6	39 55 d0	 cmp	 DWORD PTR _size$10[ebp], edx
; File C:\Program Files (x86)\Microsoft Visual Studio\2019\Community\VC\Tools\MSVC\14.29.30133\atlmfc\include\afxwin1.inl

; 574  : 	{ ASSERT(m_hDC != NULL); return TextOut(x, y, (LPCTSTR)str, (int)str.GetLength()); } // call virtual

  003e9	8b 17		 mov	 edx, DWORD PTR [edi]
; File D:\git\src\IBK\IBK_DRFN\ProjSrc\SrcChartEx\ChartOCX\GraphDraw\Draw.cpp

; 611  : 			p_pDC->TextOut( graphRegion.left + ( sizLBase.cx < sizUBase.cx ? sizUBase.cx - sizLBase.cx : 0), graphRegion.bottom  - sizUBase.cy, strLBase);

  003eb	0f 4c c8	 cmovl	 ecx, eax
; File C:\Program Files (x86)\Microsoft Visual Studio\2019\Community\VC\Tools\MSVC\14.29.30133\atlmfc\include\afxwin1.inl

; 574  : 	{ ASSERT(m_hDC != NULL); return TextOut(x, y, (LPCTSTR)str, (int)str.GetLength()); } // call virtual

  003ee	8b 45 14	 mov	 eax, DWORD PTR _strLBase$[ebp]
  003f1	ff 70 f4	 push	 DWORD PTR [eax-12]
  003f4	50		 push	 eax
; File D:\git\src\IBK\IBK_DRFN\ProjSrc\SrcChartEx\ChartOCX\GraphDraw\Draw.cpp

; 611  : 			p_pDC->TextOut( graphRegion.left + ( sizLBase.cx < sizUBase.cx ? sizUBase.cx - sizLBase.cx : 0), graphRegion.bottom  - sizUBase.cy, strLBase);

  003f5	8b 43 0c	 mov	 eax, DWORD PTR [ebx+12]
  003f8	2b 45 dc	 sub	 eax, DWORD PTR _size$14[ebp+4]
; File C:\Program Files (x86)\Microsoft Visual Studio\2019\Community\VC\Tools\MSVC\14.29.30133\atlmfc\include\afxwin1.inl

; 574  : 	{ ASSERT(m_hDC != NULL); return TextOut(x, y, (LPCTSTR)str, (int)str.GetLength()); } // call virtual

  003fb	50		 push	 eax
; File D:\git\src\IBK\IBK_DRFN\ProjSrc\SrcChartEx\ChartOCX\GraphDraw\Draw.cpp

; 611  : 			p_pDC->TextOut( graphRegion.left + ( sizLBase.cx < sizUBase.cx ? sizUBase.cx - sizLBase.cx : 0), graphRegion.bottom  - sizUBase.cy, strLBase);

  003fc	8b 03		 mov	 eax, DWORD PTR [ebx]
  003fe	03 c1		 add	 eax, ecx
; File C:\Program Files (x86)\Microsoft Visual Studio\2019\Community\VC\Tools\MSVC\14.29.30133\atlmfc\include\afxwin1.inl

; 574  : 	{ ASSERT(m_hDC != NULL); return TextOut(x, y, (LPCTSTR)str, (int)str.GetLength()); } // call virtual

  00400	8b cf		 mov	 ecx, edi
  00402	50		 push	 eax
  00403	ff 52 64	 call	 DWORD PTR [edx+100]
$LN19@DrawBaseLi:
; File D:\git\src\IBK\IBK_DRFN\ProjSrc\SrcChartEx\ChartOCX\GraphDraw\Draw.cpp

; 615  : 	p_pDC->SetTextColor( clrOldText);

  00406	8b 07		 mov	 eax, DWORD PTR [edi]
  00408	8b cf		 mov	 ecx, edi
  0040a	ff 75 0c	 push	 DWORD PTR _clrOldText$1$[ebp]
  0040d	ff 50 38	 call	 DWORD PTR [eax+56]

; 616  : 	p_pDC->SetBkMode( nBkMode);

  00410	ff 75 e0	 push	 DWORD PTR _nBkMode$1$[ebp]
  00413	8b cf		 mov	 ecx, edi
  00415	e8 00 00 00 00	 call	 ?SetBkMode@CDC@@QAEHH@Z	; CDC::SetBkMode

; 617  : 	
; 618  : 	return nBase;

  0041a	8d 4d 14	 lea	 ecx, DWORD PTR _strLBase$[ebp]
  0041d	ff 15 00 00 00
	00		 call	 DWORD PTR __imp_??1?$CStringT@DV?$StrTraitMFC_DLL@DV?$ChTraitsCRT@D@ATL@@@@@ATL@@QAE@XZ
  00423	8d 4d 08	 lea	 ecx, DWORD PTR _strUBase$[ebp]
  00426	ff 15 00 00 00
	00		 call	 DWORD PTR __imp_??1?$CStringT@DV?$StrTraitMFC_DLL@DV?$ChTraitsCRT@D@ATL@@@@@ATL@@QAE@XZ
  0042c	8d 4d f0	 lea	 ecx, DWORD PTR _strBase$[ebp]
  0042f	ff 15 00 00 00
	00		 call	 DWORD PTR __imp_??1?$CStringT@DV?$StrTraitMFC_DLL@DV?$ChTraitsCRT@D@ATL@@@@@ATL@@QAE@XZ
  00435	8d 4d e4	 lea	 ecx, DWORD PTR _strPacketType$[ebp]
  00438	ff 15 00 00 00
	00		 call	 DWORD PTR __imp_??1?$CStringT@DV?$StrTraitMFC_DLL@DV?$ChTraitsCRT@D@ATL@@@@@ATL@@QAE@XZ
  0043e	8b 45 ec	 mov	 eax, DWORD PTR _nBase$1$[ebp]

; 619  : }

  00441	8b 4d f4	 mov	 ecx, DWORD PTR __$EHRec$[ebp]
  00444	64 89 0d 00 00
	00 00		 mov	 DWORD PTR fs:0, ecx
  0044b	59		 pop	 ecx
  0044c	5f		 pop	 edi
  0044d	5e		 pop	 esi
  0044e	5b		 pop	 ebx
  0044f	8b e5		 mov	 esp, ebp
  00451	5d		 pop	 ebp
  00452	c2 30 00	 ret	 48			; 00000030H
$LN3@DrawBaseLi:

; 544  : 	if( !p_pDC || !p_pBasePacket) return 0;

  00455	33 c0		 xor	 eax, eax

; 619  : }

  00457	8b 4d f4	 mov	 ecx, DWORD PTR __$EHRec$[ebp]
  0045a	64 89 0d 00 00
	00 00		 mov	 DWORD PTR fs:0, ecx
  00461	59		 pop	 ecx
  00462	5f		 pop	 edi
  00463	5e		 pop	 esi
  00464	5b		 pop	 ebx
  00465	8b e5		 mov	 esp, ebp
  00467	5d		 pop	 ebp
  00468	c2 30 00	 ret	 48			; 00000030H
_TEXT	ENDS
;	COMDAT text$x
text$x	SEGMENT
__unwindfunclet$?DrawBaseLineAndTexts@CDraw@@IAEHPAVCDC@@ABVCRect@@ABVCGraphColor@@PAVCPacket@@ABN444_N5H5@Z$0:
  00000	8d 4d e4	 lea	 ecx, DWORD PTR _strPacketType$[ebp]
  00003	ff 25 00 00 00
	00		 jmp	 DWORD PTR __imp_??1?$CStringT@DV?$StrTraitMFC_DLL@DV?$ChTraitsCRT@D@ATL@@@@@ATL@@QAE@XZ
__unwindfunclet$?DrawBaseLineAndTexts@CDraw@@IAEHPAVCDC@@ABVCRect@@ABVCGraphColor@@PAVCPacket@@ABN444_N5H5@Z$1:
  00009	8d 4d f0	 lea	 ecx, DWORD PTR _strBase$[ebp]
  0000c	ff 25 00 00 00
	00		 jmp	 DWORD PTR __imp_??1?$CStringT@DV?$StrTraitMFC_DLL@DV?$ChTraitsCRT@D@ATL@@@@@ATL@@QAE@XZ
__unwindfunclet$?DrawBaseLineAndTexts@CDraw@@IAEHPAVCDC@@ABVCRect@@ABVCGraphColor@@PAVCPacket@@ABN444_N5H5@Z$2:
  00012	8d 4d 08	 lea	 ecx, DWORD PTR _strUBase$[ebp]
  00015	ff 25 00 00 00
	00		 jmp	 DWORD PTR __imp_??1?$CStringT@DV?$StrTraitMFC_DLL@DV?$ChTraitsCRT@D@ATL@@@@@ATL@@QAE@XZ
__unwindfunclet$?DrawBaseLineAndTexts@CDraw@@IAEHPAVCDC@@ABVCRect@@ABVCGraphColor@@PAVCPacket@@ABN444_N5H5@Z$3:
  0001b	8d 4d 14	 lea	 ecx, DWORD PTR _strLBase$[ebp]
  0001e	ff 25 00 00 00
	00		 jmp	 DWORD PTR __imp_??1?$CStringT@DV?$StrTraitMFC_DLL@DV?$ChTraitsCRT@D@ATL@@@@@ATL@@QAE@XZ
__unwindfunclet$?DrawBaseLineAndTexts@CDraw@@IAEHPAVCDC@@ABVCRect@@ABVCGraphColor@@PAVCPacket@@ABN444_N5H5@Z$4:
  00024	8d 4d 0c	 lea	 ecx, DWORD PTR $T18[ebp]
  00027	ff 25 00 00 00
	00		 jmp	 DWORD PTR __imp_??1?$CStringT@DV?$StrTraitMFC_DLL@DV?$ChTraitsCRT@D@ATL@@@@@ATL@@QAE@XZ
__unwindfunclet$?DrawBaseLineAndTexts@CDraw@@IAEHPAVCDC@@ABVCRect@@ABVCGraphColor@@PAVCPacket@@ABN444_N5H5@Z$5:
  0002d	8d 4d 0c	 lea	 ecx, DWORD PTR $T17[ebp]
  00030	ff 25 00 00 00
	00		 jmp	 DWORD PTR __imp_??1?$CStringT@DV?$StrTraitMFC_DLL@DV?$ChTraitsCRT@D@ATL@@@@@ATL@@QAE@XZ
__unwindfunclet$?DrawBaseLineAndTexts@CDraw@@IAEHPAVCDC@@ABVCRect@@ABVCGraphColor@@PAVCPacket@@ABN444_N5H5@Z$6:
  00036	8d 4d 0c	 lea	 ecx, DWORD PTR $T16[ebp]
  00039	ff 25 00 00 00
	00		 jmp	 DWORD PTR __imp_??1?$CStringT@DV?$StrTraitMFC_DLL@DV?$ChTraitsCRT@D@ATL@@@@@ATL@@QAE@XZ
  0003f	cc		 int	 3
  00040	cc		 int	 3
  00041	cc		 int	 3
  00042	cc		 int	 3
  00043	cc		 int	 3
__ehhandler$?DrawBaseLineAndTexts@CDraw@@IAEHPAVCDC@@ABVCRect@@ABVCGraphColor@@PAVCPacket@@ABN444_N5H5@Z:
  00044	90		 npad	 1
  00045	90		 npad	 1
  00046	8b 54 24 08	 mov	 edx, DWORD PTR [esp+8]
  0004a	8d 42 0c	 lea	 eax, DWORD PTR [edx+12]
  0004d	8b 4a bc	 mov	 ecx, DWORD PTR [edx-68]
  00050	33 c8		 xor	 ecx, eax
  00052	e8 00 00 00 00	 call	 @__security_check_cookie@4
  00057	b8 00 00 00 00	 mov	 eax, OFFSET __ehfuncinfo$?DrawBaseLineAndTexts@CDraw@@IAEHPAVCDC@@ABVCRect@@ABVCGraphColor@@PAVCPacket@@ABN444_N5H5@Z
  0005c	e9 00 00 00 00	 jmp	 ___CxxFrameHandler3
text$x	ENDS
?DrawBaseLineAndTexts@CDraw@@IAEHPAVCDC@@ABVCRect@@ABVCGraphColor@@PAVCPacket@@ABN444_N5H5@Z ENDP ; CDraw::DrawBaseLineAndTexts
; Function compile flags: /Ogtp
; File D:\git\src\IBK\IBK_DRFN\ProjSrc\SrcChartEx\ChartOCX\GraphDraw\Draw.cpp
; File D:\git\src\IBK\IBK_DRFN\ProjSrc\SrcChartEx\ChartOCX\Include_Chart\Conversion.h
; File D:\git\src\IBK\IBK_DRFN\ProjSrc\SrcChartEx\ChartOCX\GraphDraw\Draw.cpp
; File D:\git\src\IBK\IBK_DRFN\ProjSrc\SrcChartEx\ChartOCX\Include_Chart\Conversion.h
; File D:\git\src\IBK\IBK_DRFN\ProjSrc\SrcChartEx\ChartOCX\GraphDraw\Draw.cpp
; File D:\git\src\IBK\IBK_DRFN\ProjSrc\SrcChartEx\ChartOCX\Include_Chart\Conversion.h
; File D:\git\src\IBK\IBK_DRFN\ProjSrc\SrcChartEx\ChartOCX\GraphDraw\Draw.cpp
; File C:\Program Files (x86)\Microsoft Visual Studio\2019\Community\VC\Tools\MSVC\14.29.30133\atlmfc\include\atltypes.h
; File D:\git\src\IBK\IBK_DRFN\ProjSrc\SrcChartEx\ChartOCX\GraphDraw\Draw.cpp
; File C:\Program Files (x86)\Microsoft Visual Studio\2019\Community\VC\Tools\MSVC\14.29.30133\atlmfc\include\atltypes.h
; File D:\git\src\IBK\IBK_DRFN\ProjSrc\SrcChartEx\ChartOCX\GraphDraw\Draw.cpp
; File C:\Program Files (x86)\Microsoft Visual Studio\2019\Community\VC\Tools\MSVC\14.29.30133\atlmfc\include\atltypes.h
; File D:\git\src\IBK\IBK_DRFN\ProjSrc\SrcChartEx\ChartOCX\GraphDraw\Draw.cpp
;	COMDAT ?DrawBaseLineAndTexts@CDraw@@IAEHABVCRect@@PAVCPacket@@ABN222_N3@Z
_TEXT	SEGMENT
$T2 = -56						; size = 8
$T3 = -48						; size = 8
_dBase$ = -48						; size = 8
_data$ = -40						; size = 8
$T4 = -40						; size = 8
_strUBase$ = -32					; size = 4
_strLBase$ = -28					; size = 4
$T5 = -24						; size = 8
$T6 = -20						; size = 4
_strPacketType$ = -16					; size = 4
__$EHRec$ = -12						; size = 12
_graphRegion$ = 8					; size = 4
_strBase$ = 12						; size = 4
_p_pBasePacket$ = 12					; size = 4
_dViewMax$ = 16						; size = 4
_dViewMin$ = 20						; size = 4
_dLoggedViewMax$ = 24					; size = 4
_dLoggedViewMin$ = 28					; size = 4
_bLog$ = 32						; size = 1
_bInvert$ = 36						; size = 1
?DrawBaseLineAndTexts@CDraw@@IAEHABVCRect@@PAVCPacket@@ABN222_N3@Z PROC ; CDraw::DrawBaseLineAndTexts, COMDAT
; _this$ = ecx

; 519  : {

  00000	55		 push	 ebp
  00001	8b ec		 mov	 ebp, esp
  00003	6a ff		 push	 -1
  00005	68 00 00 00 00	 push	 __ehhandler$?DrawBaseLineAndTexts@CDraw@@IAEHABVCRect@@PAVCPacket@@ABN222_N3@Z
  0000a	64 a1 00 00 00
	00		 mov	 eax, DWORD PTR fs:0
  00010	50		 push	 eax
  00011	83 ec 2c	 sub	 esp, 44			; 0000002cH
  00014	56		 push	 esi
  00015	57		 push	 edi
  00016	a1 00 00 00 00	 mov	 eax, DWORD PTR ___security_cookie
  0001b	33 c5		 xor	 eax, ebp
  0001d	50		 push	 eax
  0001e	8d 45 f4	 lea	 eax, DWORD PTR __$EHRec$[ebp]
  00021	64 a3 00 00 00
	00		 mov	 DWORD PTR fs:0, eax
  00027	8b f9		 mov	 edi, ecx

; 520  : 	if( !p_pBasePacket) return INT_MAX;

  00029	8b 75 0c	 mov	 esi, DWORD PTR _p_pBasePacket$[ebp]
  0002c	85 f6		 test	 esi, esi
  0002e	75 18		 jne	 SHORT $LN2@DrawBaseLi
  00030	b8 ff ff ff 7f	 mov	 eax, 2147483647		; 7fffffffH

; 536  : }

  00035	8b 4d f4	 mov	 ecx, DWORD PTR __$EHRec$[ebp]
  00038	64 89 0d 00 00
	00 00		 mov	 DWORD PTR fs:0, ecx
  0003f	59		 pop	 ecx
  00040	5f		 pop	 edi
  00041	5e		 pop	 esi
  00042	8b e5		 mov	 esp, ebp
  00044	5d		 pop	 ebp
  00045	c2 20 00	 ret	 32			; 00000020H
$LN2@DrawBaseLi:

; 521  : 
; 522  : 	double dBase	= p_pBasePacket->GetStandardValue( 0);

  00048	6a 00		 push	 0
  0004a	8b ce		 mov	 ecx, esi
  0004c	ff 15 00 00 00
	00		 call	 DWORD PTR __imp_?GetStandardValue@CPacket@@QAENH@Z
  00052	dd 5d d0	 fstp	 QWORD PTR _dBase$[ebp]

; 523  : 	double dUBase	= p_pBasePacket->GetStandardValue( 1);

  00055	6a 01		 push	 1
  00057	8b ce		 mov	 ecx, esi
  00059	ff 15 00 00 00
	00		 call	 DWORD PTR __imp_?GetStandardValue@CPacket@@QAENH@Z
  0005f	dd d8		 fstp	 ST(0)

; 524  : 	double dLBase	= p_pBasePacket->GetStandardValue( 2);

  00061	8b ce		 mov	 ecx, esi
  00063	6a 02		 push	 2
  00065	ff 15 00 00 00
	00		 call	 DWORD PTR __imp_?GetStandardValue@CPacket@@QAENH@Z

; 525  : 
; 526  : 	int nBase = 0;
; 527  : 	CString strPacketType = p_pBasePacket->GetType();

  0006b	6a 01		 push	 1
  0006d	8d 45 f0	 lea	 eax, DWORD PTR _strPacketType$[ebp]
  00070	8b ce		 mov	 ecx, esi
  00072	50		 push	 eax
  00073	dd d8		 fstp	 ST(0)
  00075	ff 15 00 00 00
	00		 call	 DWORD PTR __imp_?GetType@CPacket@@QAE?AV?$CStringT@DV?$StrTraitMFC_DLL@DV?$ChTraitsCRT@D@ATL@@@@@ATL@@_N@Z

; 528  : 	CString strBase, strUBase, strLBase;

  0007b	8d 4d 0c	 lea	 ecx, DWORD PTR _strBase$[ebp]
  0007e	c7 45 fc 00 00
	00 00		 mov	 DWORD PTR __$EHRec$[ebp+8], 0
  00085	ff 15 00 00 00
	00		 call	 DWORD PTR __imp_??0?$CStringT@DV?$StrTraitMFC_DLL@DV?$ChTraitsCRT@D@ATL@@@@@ATL@@QAE@XZ
  0008b	8d 4d e0	 lea	 ecx, DWORD PTR _strUBase$[ebp]
  0008e	ff 15 00 00 00
	00		 call	 DWORD PTR __imp_??0?$CStringT@DV?$StrTraitMFC_DLL@DV?$ChTraitsCRT@D@ATL@@@@@ATL@@QAE@XZ
  00094	8d 4d e4	 lea	 ecx, DWORD PTR _strLBase$[ebp]
  00097	ff 15 00 00 00
	00		 call	 DWORD PTR __imp_??0?$CStringT@DV?$StrTraitMFC_DLL@DV?$ChTraitsCRT@D@ATL@@@@@ATL@@QAE@XZ

; 529  : 	if( dBase == -HUGE_VAL) return INT_MAX;

  0009d	f2 0f 10 45 d0	 movsd	 xmm0, QWORD PTR _dBase$[ebp]
  000a2	66 0f 2e 05 00
	00 00 00	 ucomisd xmm0, QWORD PTR __real@fff0000000000000
  000aa	c6 45 fc 03	 mov	 BYTE PTR __$EHRec$[ebp+8], 3
  000ae	9f		 lahf
  000af	f6 c4 44	 test	 ah, 68			; 00000044H
  000b2	7a 0a		 jp	 SHORT $LN3@DrawBaseLi
  000b4	be ff ff ff 7f	 mov	 esi, 2147483647		; 7fffffffH
  000b9	e9 c3 00 00 00	 jmp	 $LN4@DrawBaseLi
$LN3@DrawBaseLi:

; 531  : 	strBase.Format( "%f", dBase);

  000be	83 ec 08	 sub	 esp, 8
  000c1	8d 45 0c	 lea	 eax, DWORD PTR _strBase$[ebp]
  000c4	f2 0f 11 04 24	 movsd	 QWORD PTR [esp], xmm0
  000c9	68 00 00 00 00	 push	 OFFSET ??_C@_02NJPGOMH@?$CFf@
  000ce	50		 push	 eax
  000cf	ff 15 00 00 00
	00		 call	 DWORD PTR __imp_?Format@?$CStringT@DV?$StrTraitMFC_DLL@DV?$ChTraitsCRT@D@ATL@@@@@ATL@@QAAXPBDZZ
; File D:\git\src\IBK\IBK_DRFN\ProjSrc\SrcChartEx\ChartOCX\Include_Chart\Conversion.h

; 27   : 		{	m_hOcxWnd = p_hOcxWnd;	m_eChartMode = p_eChartMode;	}

  000d5	8b 47 1c	 mov	 eax, DWORD PTR [edi+28]
; File D:\git\src\IBK\IBK_DRFN\ProjSrc\SrcChartEx\ChartOCX\GraphDraw\Draw.cpp

; 531  : 	strBase.Format( "%f", dBase);

  000d8	83 c4 10	 add	 esp, 16			; 00000010H

; 532  : 	strBase = CDataConversion( m_hOcxWnd, m_eChartMode).GetStringFormatTrans( strBase, strPacketType);

  000db	8b 4f 20	 mov	 ecx, DWORD PTR [edi+32]
; File D:\git\src\IBK\IBK_DRFN\ProjSrc\SrcChartEx\ChartOCX\Include_Chart\Conversion.h

; 27   : 		{	m_hOcxWnd = p_hOcxWnd;	m_eChartMode = p_eChartMode;	}

  000de	89 45 d8	 mov	 DWORD PTR $T4[ebp], eax
; File D:\git\src\IBK\IBK_DRFN\ProjSrc\SrcChartEx\ChartOCX\GraphDraw\Draw.cpp

; 532  : 	strBase = CDataConversion( m_hOcxWnd, m_eChartMode).GetStringFormatTrans( strBase, strPacketType);

  000e1	8d 45 f0	 lea	 eax, DWORD PTR _strPacketType$[ebp]
; File D:\git\src\IBK\IBK_DRFN\ProjSrc\SrcChartEx\ChartOCX\Include_Chart\Conversion.h

; 27   : 		{	m_hOcxWnd = p_hOcxWnd;	m_eChartMode = p_eChartMode;	}

  000e4	89 4d dc	 mov	 DWORD PTR $T4[ebp+4], ecx
; File D:\git\src\IBK\IBK_DRFN\ProjSrc\SrcChartEx\ChartOCX\GraphDraw\Draw.cpp

; 532  : 	strBase = CDataConversion( m_hOcxWnd, m_eChartMode).GetStringFormatTrans( strBase, strPacketType);

  000e7	8d 4d d8	 lea	 ecx, DWORD PTR $T4[ebp]
  000ea	50		 push	 eax
  000eb	8d 45 0c	 lea	 eax, DWORD PTR _strBase$[ebp]
  000ee	50		 push	 eax
  000ef	8d 45 ec	 lea	 eax, DWORD PTR $T6[ebp]
  000f2	50		 push	 eax
  000f3	e8 00 00 00 00	 call	 ?GetStringFormatTrans@CDataConversion@@QAE?AV?$CStringT@DV?$StrTraitMFC_DLL@DV?$ChTraitsCRT@D@ATL@@@@@ATL@@ABV23@0@Z ; CDataConversion::GetStringFormatTrans
  000f8	50		 push	 eax
  000f9	8d 4d 0c	 lea	 ecx, DWORD PTR _strBase$[ebp]
  000fc	c6 45 fc 04	 mov	 BYTE PTR __$EHRec$[ebp+8], 4
  00100	ff 15 00 00 00
	00		 call	 DWORD PTR __imp_??4?$CStringT@DV?$StrTraitMFC_DLL@DV?$ChTraitsCRT@D@ATL@@@@@ATL@@QAEAAV01@ABV01@@Z
  00106	8d 4d ec	 lea	 ecx, DWORD PTR $T6[ebp]
  00109	c6 45 fc 03	 mov	 BYTE PTR __$EHRec$[ebp+8], 3
  0010d	ff 15 00 00 00
	00		 call	 DWORD PTR __imp_??1?$CStringT@DV?$StrTraitMFC_DLL@DV?$ChTraitsCRT@D@ATL@@@@@ATL@@QAE@XZ

; 297  : 	if(checkLog)

  00113	80 7d 20 00	 cmp	 BYTE PTR _bLog$[ebp], 0

; 533  : 	nBase = CDataConversion::GetChangingPosition( graphRegion.bottom, graphRegion.Height(), dLoggedViewMin, dLoggedViewMax - dLoggedViewMin, CDraw::CalLogValue( bLog, dBase));

  00117	f2 0f 10 45 d0	 movsd	 xmm0, QWORD PTR _dBase$[ebp]
  0011c	f2 0f 11 45 d8	 movsd	 QWORD PTR _data$[ebp], xmm0

; 297  : 	if(checkLog)

  00121	74 14		 je	 SHORT $LN15@DrawBaseLi

; 298  : 		return CMath::Log(data);

  00123	8d 45 d8	 lea	 eax, DWORD PTR _data$[ebp]
  00126	50		 push	 eax
  00127	e8 00 00 00 00	 call	 ?Log@CMath@@SANABN@Z	; CMath::Log
  0012c	dd 5d d0	 fstp	 QWORD PTR $T3[ebp]
  0012f	f2 0f 10 45 d0	 movsd	 xmm0, QWORD PTR $T3[ebp]
  00134	83 c4 04	 add	 esp, 4
$LN15@DrawBaseLi:

; 533  : 	nBase = CDataConversion::GetChangingPosition( graphRegion.bottom, graphRegion.Height(), dLoggedViewMin, dLoggedViewMax - dLoggedViewMin, CDraw::CalLogValue( bLog, dBase));

  00137	8b 45 18	 mov	 eax, DWORD PTR _dLoggedViewMax$[ebp]
  0013a	8d 75 e8	 lea	 esi, DWORD PTR $T5[ebp]
; File C:\Program Files (x86)\Microsoft Visual Studio\2019\Community\VC\Tools\MSVC\14.29.30133\atlmfc\include\atltypes.h

; 581  : 	return bottom - top;

  0013d	8b 7d 08	 mov	 edi, DWORD PTR _graphRegion$[ebp]
; File D:\git\src\IBK\IBK_DRFN\ProjSrc\SrcChartEx\ChartOCX\GraphDraw\Draw.cpp

; 533  : 	nBase = CDataConversion::GetChangingPosition( graphRegion.bottom, graphRegion.Height(), dLoggedViewMin, dLoggedViewMax - dLoggedViewMin, CDraw::CalLogValue( bLog, dBase));

  00140	8b 55 1c	 mov	 edx, DWORD PTR _dLoggedViewMin$[ebp]
  00143	56		 push	 esi
  00144	f2 0f 11 45 e8	 movsd	 QWORD PTR $T5[ebp], xmm0
  00149	8d 75 c8	 lea	 esi, DWORD PTR $T2[ebp]
  0014c	f2 0f 10 00	 movsd	 xmm0, QWORD PTR [eax]
; File C:\Program Files (x86)\Microsoft Visual Studio\2019\Community\VC\Tools\MSVC\14.29.30133\atlmfc\include\atltypes.h

; 581  : 	return bottom - top;

  00150	8b 4f 0c	 mov	 ecx, DWORD PTR [edi+12]
  00153	8b c1		 mov	 eax, ecx
; File D:\git\src\IBK\IBK_DRFN\ProjSrc\SrcChartEx\ChartOCX\GraphDraw\Draw.cpp

; 533  : 	nBase = CDataConversion::GetChangingPosition( graphRegion.bottom, graphRegion.Height(), dLoggedViewMin, dLoggedViewMax - dLoggedViewMin, CDraw::CalLogValue( bLog, dBase));

  00155	f2 0f 5c 02	 subsd	 xmm0, QWORD PTR [edx]
; File C:\Program Files (x86)\Microsoft Visual Studio\2019\Community\VC\Tools\MSVC\14.29.30133\atlmfc\include\atltypes.h

; 581  : 	return bottom - top;

  00159	2b 47 04	 sub	 eax, DWORD PTR [edi+4]
; File D:\git\src\IBK\IBK_DRFN\ProjSrc\SrcChartEx\ChartOCX\GraphDraw\Draw.cpp

; 533  : 	nBase = CDataConversion::GetChangingPosition( graphRegion.bottom, graphRegion.Height(), dLoggedViewMin, dLoggedViewMax - dLoggedViewMin, CDraw::CalLogValue( bLog, dBase));

  0015c	56		 push	 esi
  0015d	52		 push	 edx
  0015e	50		 push	 eax
  0015f	51		 push	 ecx
  00160	f2 0f 11 45 c8	 movsd	 QWORD PTR $T2[ebp], xmm0
  00165	e8 00 00 00 00	 call	 ?GetChangingPosition@CDataConversion@@SAHHHABN00@Z ; CDataConversion::GetChangingPosition
  0016a	83 c4 14	 add	 esp, 20			; 00000014H
  0016d	8b f0		 mov	 esi, eax

; 534  : 	if( bInvert) nBase = CDataConversion::InvertGraphDataPt( graphRegion, nBase);

  0016f	80 7d 24 00	 cmp	 BYTE PTR _bInvert$[ebp], 0
  00173	74 0c		 je	 SHORT $LN4@DrawBaseLi
  00175	56		 push	 esi
  00176	57		 push	 edi
  00177	e8 00 00 00 00	 call	 ?InvertGraphDataPt@CDataConversion@@SAHABVCRect@@H@Z ; CDataConversion::InvertGraphDataPt
  0017c	83 c4 08	 add	 esp, 8
  0017f	8b f0		 mov	 esi, eax
$LN4@DrawBaseLi:

; 535  : 	return nBase;

  00181	8d 4d e4	 lea	 ecx, DWORD PTR _strLBase$[ebp]
  00184	ff 15 00 00 00
	00		 call	 DWORD PTR __imp_??1?$CStringT@DV?$StrTraitMFC_DLL@DV?$ChTraitsCRT@D@ATL@@@@@ATL@@QAE@XZ
  0018a	8d 4d e0	 lea	 ecx, DWORD PTR _strUBase$[ebp]
  0018d	ff 15 00 00 00
	00		 call	 DWORD PTR __imp_??1?$CStringT@DV?$StrTraitMFC_DLL@DV?$ChTraitsCRT@D@ATL@@@@@ATL@@QAE@XZ
  00193	8d 4d 0c	 lea	 ecx, DWORD PTR _strBase$[ebp]
  00196	ff 15 00 00 00
	00		 call	 DWORD PTR __imp_??1?$CStringT@DV?$StrTraitMFC_DLL@DV?$ChTraitsCRT@D@ATL@@@@@ATL@@QAE@XZ
  0019c	8d 4d f0	 lea	 ecx, DWORD PTR _strPacketType$[ebp]
  0019f	ff 15 00 00 00
	00		 call	 DWORD PTR __imp_??1?$CStringT@DV?$StrTraitMFC_DLL@DV?$ChTraitsCRT@D@ATL@@@@@ATL@@QAE@XZ
  001a5	8b c6		 mov	 eax, esi

; 536  : }

  001a7	8b 4d f4	 mov	 ecx, DWORD PTR __$EHRec$[ebp]
  001aa	64 89 0d 00 00
	00 00		 mov	 DWORD PTR fs:0, ecx
  001b1	59		 pop	 ecx
  001b2	5f		 pop	 edi
  001b3	5e		 pop	 esi
  001b4	8b e5		 mov	 esp, ebp
  001b6	5d		 pop	 ebp
  001b7	c2 20 00	 ret	 32			; 00000020H
_TEXT	ENDS
;	COMDAT text$x
text$x	SEGMENT
__unwindfunclet$?DrawBaseLineAndTexts@CDraw@@IAEHABVCRect@@PAVCPacket@@ABN222_N3@Z$0:
  00000	8d 4d f0	 lea	 ecx, DWORD PTR _strPacketType$[ebp]
  00003	ff 25 00 00 00
	00		 jmp	 DWORD PTR __imp_??1?$CStringT@DV?$StrTraitMFC_DLL@DV?$ChTraitsCRT@D@ATL@@@@@ATL@@QAE@XZ
__unwindfunclet$?DrawBaseLineAndTexts@CDraw@@IAEHABVCRect@@PAVCPacket@@ABN222_N3@Z$1:
  00009	8d 4d 0c	 lea	 ecx, DWORD PTR _strBase$[ebp]
  0000c	ff 25 00 00 00
	00		 jmp	 DWORD PTR __imp_??1?$CStringT@DV?$StrTraitMFC_DLL@DV?$ChTraitsCRT@D@ATL@@@@@ATL@@QAE@XZ
__unwindfunclet$?DrawBaseLineAndTexts@CDraw@@IAEHABVCRect@@PAVCPacket@@ABN222_N3@Z$2:
  00012	8d 4d e0	 lea	 ecx, DWORD PTR _strUBase$[ebp]
  00015	ff 25 00 00 00
	00		 jmp	 DWORD PTR __imp_??1?$CStringT@DV?$StrTraitMFC_DLL@DV?$ChTraitsCRT@D@ATL@@@@@ATL@@QAE@XZ
__unwindfunclet$?DrawBaseLineAndTexts@CDraw@@IAEHABVCRect@@PAVCPacket@@ABN222_N3@Z$3:
  0001b	8d 4d e4	 lea	 ecx, DWORD PTR _strLBase$[ebp]
  0001e	ff 25 00 00 00
	00		 jmp	 DWORD PTR __imp_??1?$CStringT@DV?$StrTraitMFC_DLL@DV?$ChTraitsCRT@D@ATL@@@@@ATL@@QAE@XZ
__unwindfunclet$?DrawBaseLineAndTexts@CDraw@@IAEHABVCRect@@PAVCPacket@@ABN222_N3@Z$4:
  00024	8d 4d ec	 lea	 ecx, DWORD PTR $T6[ebp]
  00027	ff 25 00 00 00
	00		 jmp	 DWORD PTR __imp_??1?$CStringT@DV?$StrTraitMFC_DLL@DV?$ChTraitsCRT@D@ATL@@@@@ATL@@QAE@XZ
  0002d	cc		 int	 3
  0002e	cc		 int	 3
  0002f	cc		 int	 3
  00030	cc		 int	 3
  00031	cc		 int	 3
__ehhandler$?DrawBaseLineAndTexts@CDraw@@IAEHABVCRect@@PAVCPacket@@ABN222_N3@Z:
  00032	90		 npad	 1
  00033	90		 npad	 1
  00034	8b 54 24 08	 mov	 edx, DWORD PTR [esp+8]
  00038	8d 42 0c	 lea	 eax, DWORD PTR [edx+12]
  0003b	8b 4a c8	 mov	 ecx, DWORD PTR [edx-56]
  0003e	33 c8		 xor	 ecx, eax
  00040	e8 00 00 00 00	 call	 @__security_check_cookie@4
  00045	b8 00 00 00 00	 mov	 eax, OFFSET __ehfuncinfo$?DrawBaseLineAndTexts@CDraw@@IAEHABVCRect@@PAVCPacket@@ABN222_N3@Z
  0004a	e9 00 00 00 00	 jmp	 ___CxxFrameHandler3
text$x	ENDS
?DrawBaseLineAndTexts@CDraw@@IAEHABVCRect@@PAVCPacket@@ABN222_N3@Z ENDP ; CDraw::DrawBaseLineAndTexts
; Function compile flags: /Ogtp
; File D:\git\src\IBK\IBK_DRFN\ProjSrc\SrcChartEx\ChartOCX\GraphDraw\Draw.cpp
; File C:\Program Files (x86)\Microsoft Visual Studio\2019\Community\VC\Tools\MSVC\14.29.30133\atlmfc\include\afxtempl.h
; File D:\git\src\IBK\IBK_DRFN\ProjSrc\SrcChartEx\ChartOCX\GraphDraw\Draw.cpp
; File C:\Program Files (x86)\Microsoft Visual Studio\2019\Community\VC\Tools\MSVC\14.29.30133\atlmfc\include\afxtempl.h
; File D:\git\src\IBK\IBK_DRFN\ProjSrc\SrcChartEx\ChartOCX\GraphDraw\Draw.cpp
;	COMDAT ?FindPosition@CDraw@@IAEPAU__POSITION@@HAAV?$CList@HH@@@Z
_TEXT	SEGMENT
_nIndex$ = 8						; size = 4
_dataIndex$ = 12					; size = 4
?FindPosition@CDraw@@IAEPAU__POSITION@@HAAV?$CList@HH@@@Z PROC ; CDraw::FindPosition, COMDAT
; _this$ = ecx

; 489  : {

  00000	55		 push	 ebp
  00001	8b ec		 mov	 ebp, esp
  00003	56		 push	 esi
  00004	57		 push	 edi

; 491  : 	if(nIndex < 0 || nIndex > nTailIndex)

  00005	8b 7d 08	 mov	 edi, DWORD PTR _nIndex$[ebp]
  00008	85 ff		 test	 edi, edi
  0000a	78 58		 js	 SHORT $LN7@FindPositi

; 490  : 	int nTailIndex = dataIndex.GetCount() -1;

  0000c	8b 4d 0c	 mov	 ecx, DWORD PTR _dataIndex$[ebp]
  0000f	8b 71 0c	 mov	 esi, DWORD PTR [ecx+12]
  00012	4e		 dec	 esi

; 491  : 	if(nIndex < 0 || nIndex > nTailIndex)

  00013	3b fe		 cmp	 edi, esi
  00015	7f 4d		 jg	 SHORT $LN7@FindPositi

; 493  : 
; 494  : 	if(nIndex > nTailIndex/2){

  00017	8b c6		 mov	 eax, esi
  00019	99		 cdq
  0001a	2b c2		 sub	 eax, edx
  0001c	d1 f8		 sar	 eax, 1
  0001e	3b f8		 cmp	 edi, eax
  00020	7e 2c		 jle	 SHORT $LN8@FindPositi

; 495  : 		int nCount = nTailIndex;
; 496  : 		POSITION pos = dataIndex.GetTailPosition();

  00022	8b 49 08	 mov	 ecx, DWORD PTR [ecx+8]

; 497  : 		while(pos != NULL){

  00025	85 c9		 test	 ecx, ecx
  00027	74 3b		 je	 SHORT $LN7@FindPositi
  00029	0f 1f 80 00 00
	00 00		 npad	 7
$LL2@FindPositi:

; 498  : 			if(nCount-- == nIndex)

  00030	8b c6		 mov	 eax, esi
  00032	4e		 dec	 esi
  00033	3b c7		 cmp	 eax, edi
  00035	74 0f		 je	 SHORT $LN19@FindPositi
; File C:\Program Files (x86)\Microsoft Visual Studio\2019\Community\VC\Tools\MSVC\14.29.30133\atlmfc\include\afxtempl.h

; 825  : 		rPosition = (POSITION) pNode->pPrev;

  00037	8b 49 04	 mov	 ecx, DWORD PTR [ecx+4]
; File D:\git\src\IBK\IBK_DRFN\ProjSrc\SrcChartEx\ChartOCX\GraphDraw\Draw.cpp

; 497  : 		while(pos != NULL){

  0003a	85 c9		 test	 ecx, ecx
  0003c	75 f2		 jne	 SHORT $LL2@FindPositi

; 492  : 		return NULL;

  0003e	5f		 pop	 edi
  0003f	33 c0		 xor	 eax, eax

; 508  : 				return pos;
; 509  : 			dataIndex.GetNext(pos);
; 510  : 		}
; 511  : 	}
; 512  : 
; 513  : 	return NULL;
; 514  : }

  00041	5e		 pop	 esi
  00042	5d		 pop	 ebp
  00043	c2 08 00	 ret	 8
$LN19@FindPositi:
  00046	5f		 pop	 edi
  00047	8b c1		 mov	 eax, ecx
  00049	5e		 pop	 esi
  0004a	5d		 pop	 ebp
  0004b	c2 08 00	 ret	 8
$LN8@FindPositi:

; 499  : 				return pos;
; 500  : 			dataIndex.GetPrev(pos);
; 501  : 		}
; 502  : 	}
; 503  : 	else{
; 504  : 		int nCount = 0;
; 505  : 		POSITION pos = dataIndex.GetHeadPosition();

  0004e	8b 49 04	 mov	 ecx, DWORD PTR [ecx+4]
  00051	33 d2		 xor	 edx, edx

; 506  : 		while(pos != NULL){

  00053	85 c9		 test	 ecx, ecx
  00055	74 0d		 je	 SHORT $LN7@FindPositi
$LL4@FindPositi:

; 507  : 			if(nCount++ == nIndex)

  00057	8b c2		 mov	 eax, edx
  00059	42		 inc	 edx
  0005a	3b c7		 cmp	 eax, edi
  0005c	74 e8		 je	 SHORT $LN19@FindPositi
; File C:\Program Files (x86)\Microsoft Visual Studio\2019\Community\VC\Tools\MSVC\14.29.30133\atlmfc\include\afxtempl.h

; 813  : 		rPosition = (POSITION) pNode->pNext;

  0005e	8b 09		 mov	 ecx, DWORD PTR [ecx]
; File D:\git\src\IBK\IBK_DRFN\ProjSrc\SrcChartEx\ChartOCX\GraphDraw\Draw.cpp

; 506  : 		while(pos != NULL){

  00060	85 c9		 test	 ecx, ecx
  00062	75 f3		 jne	 SHORT $LL4@FindPositi
$LN7@FindPositi:
  00064	5f		 pop	 edi

; 492  : 		return NULL;

  00065	33 c0		 xor	 eax, eax

; 508  : 				return pos;
; 509  : 			dataIndex.GetNext(pos);
; 510  : 		}
; 511  : 	}
; 512  : 
; 513  : 	return NULL;
; 514  : }

  00067	5e		 pop	 esi
  00068	5d		 pop	 ebp
  00069	c2 08 00	 ret	 8
?FindPosition@CDraw@@IAEPAU__POSITION@@HAAV?$CList@HH@@@Z ENDP ; CDraw::FindPosition
_TEXT	ENDS
; Function compile flags: /Ogtp
; File D:\git\src\IBK\IBK_DRFN\ProjSrc\SrcChartEx\ChartOCX\GraphDraw\Draw.cpp
; File C:\Program Files (x86)\Microsoft Visual Studio\2019\Community\VC\Tools\MSVC\14.29.30133\atlmfc\include\afxwin1.inl
; File D:\git\src\IBK\IBK_DRFN\ProjSrc\SrcChartEx\ChartOCX\GraphDraw\Draw.cpp
; File C:\Program Files (x86)\Microsoft Visual Studio\2019\Community\VC\Tools\MSVC\14.29.30133\atlmfc\include\afxwin1.inl
; File D:\git\src\IBK\IBK_DRFN\ProjSrc\SrcChartEx\ChartOCX\GraphDraw\Draw.cpp
; File C:\Program Files (x86)\Microsoft Visual Studio\2019\Community\VC\Tools\MSVC\14.29.30133\atlmfc\include\afxwin1.inl
; File D:\git\src\IBK\IBK_DRFN\ProjSrc\SrcChartEx\ChartOCX\GraphDraw\Draw.cpp
; File C:\Program Files (x86)\Microsoft Visual Studio\2019\Community\VC\Tools\MSVC\14.29.30133\atlmfc\include\afxwin1.inl
; File D:\git\src\IBK\IBK_DRFN\ProjSrc\SrcChartEx\ChartOCX\GraphDraw\Draw.cpp
; File C:\Program Files (x86)\Microsoft Visual Studio\2019\Community\VC\Tools\MSVC\14.29.30133\atlmfc\include\afxwin1.inl
; File D:\git\src\IBK\IBK_DRFN\ProjSrc\SrcChartEx\ChartOCX\GraphDraw\Draw.cpp
;	COMDAT ?CreatePen@CDraw@@IAEXAAVCPen@@ABVCGraphBaseLineStyle@@HK@Z
_TEXT	SEGMENT
_pen$ = 8						; size = 4
_drawStyle$ = 12					; size = 4
_penThickness$ = 16					; size = 4
_color$ = 20						; size = 4
?CreatePen@CDraw@@IAEXAAVCPen@@ABVCGraphBaseLineStyle@@HK@Z PROC ; CDraw::CreatePen, COMDAT
; _this$ = ecx

; 366  : {

  00000	55		 push	 ebp
  00001	8b ec		 mov	 ebp, esp

; 367  : 	if(drawStyle.GetBaseLineDrawStyle() == CGraphBaseData::Dot_Draw)			  // 좌표점형

  00003	8b 45 0c	 mov	 eax, DWORD PTR _drawStyle$[ebp]
  00006	ff 75 14	 push	 DWORD PTR _color$[ebp]
  00009	ff 75 10	 push	 DWORD PTR _penThickness$[ebp]
  0000c	8b 00		 mov	 eax, DWORD PTR [eax]
  0000e	83 f8 01	 cmp	 eax, 1
  00011	75 15		 jne	 SHORT $LN2@CreatePen
; File C:\Program Files (x86)\Microsoft Visual Studio\2019\Community\VC\Tools\MSVC\14.29.30133\atlmfc\include\afxwin1.inl

; 108  : 	{ return Attach(::CreatePen(nPenStyle, nWidth, crColor)); }

  00013	6a 02		 push	 2
; File D:\git\src\IBK\IBK_DRFN\ProjSrc\SrcChartEx\ChartOCX\GraphDraw\Draw.cpp

; 377  : }

  00015	ff 15 00 00 00
	00		 call	 DWORD PTR __imp__CreatePen@12
  0001b	8b 4d 08	 mov	 ecx, DWORD PTR _pen$[ebp]
  0001e	50		 push	 eax
  0001f	e8 00 00 00 00	 call	 ?Attach@CGdiObject@@QAEHPAX@Z ; CGdiObject::Attach
  00024	5d		 pop	 ebp
  00025	c2 10 00	 ret	 16			; 00000010H
$LN2@CreatePen:

; 368  : 		pen.CreatePen(PS_DOT, penThickness, color);
; 369  : 	else if(drawStyle.GetBaseLineDrawStyle() == CGraphBaseData::DottedLine_Draw) // 선형 점선

  00028	83 f8 02	 cmp	 eax, 2
  0002b	75 15		 jne	 SHORT $LN4@CreatePen
; File C:\Program Files (x86)\Microsoft Visual Studio\2019\Community\VC\Tools\MSVC\14.29.30133\atlmfc\include\afxwin1.inl

; 108  : 	{ return Attach(::CreatePen(nPenStyle, nWidth, crColor)); }

  0002d	6a 01		 push	 1
; File D:\git\src\IBK\IBK_DRFN\ProjSrc\SrcChartEx\ChartOCX\GraphDraw\Draw.cpp

; 377  : }

  0002f	ff 15 00 00 00
	00		 call	 DWORD PTR __imp__CreatePen@12
  00035	8b 4d 08	 mov	 ecx, DWORD PTR _pen$[ebp]
  00038	50		 push	 eax
  00039	e8 00 00 00 00	 call	 ?Attach@CGdiObject@@QAEHPAX@Z ; CGdiObject::Attach
  0003e	5d		 pop	 ebp
  0003f	c2 10 00	 ret	 16			; 00000010H
$LN4@CreatePen:

; 370  : 		pen.CreatePen(PS_DASH, penThickness, color);
; 371  : 	else if(drawStyle.GetBaseLineDrawStyle() == CGraphBaseData::DashDot_Draw)	  // 선점형

  00042	83 f8 03	 cmp	 eax, 3
  00045	75 14		 jne	 SHORT $LN6@CreatePen
; File C:\Program Files (x86)\Microsoft Visual Studio\2019\Community\VC\Tools\MSVC\14.29.30133\atlmfc\include\afxwin1.inl

; 108  : 	{ return Attach(::CreatePen(nPenStyle, nWidth, crColor)); }

  00047	50		 push	 eax
; File D:\git\src\IBK\IBK_DRFN\ProjSrc\SrcChartEx\ChartOCX\GraphDraw\Draw.cpp

; 377  : }

  00048	ff 15 00 00 00
	00		 call	 DWORD PTR __imp__CreatePen@12
  0004e	8b 4d 08	 mov	 ecx, DWORD PTR _pen$[ebp]
  00051	50		 push	 eax
  00052	e8 00 00 00 00	 call	 ?Attach@CGdiObject@@QAEHPAX@Z ; CGdiObject::Attach
  00057	5d		 pop	 ebp
  00058	c2 10 00	 ret	 16			; 00000010H
$LN6@CreatePen:

; 372  : 		pen.CreatePen(PS_DASHDOT, penThickness, color);
; 373  : 	else if(drawStyle.GetBaseLineDrawStyle() == CGraphBaseData::DashDotDot_Draw) // 선점점형

  0005b	83 f8 04	 cmp	 eax, 4
  0005e	75 14		 jne	 SHORT $LN8@CreatePen
; File C:\Program Files (x86)\Microsoft Visual Studio\2019\Community\VC\Tools\MSVC\14.29.30133\atlmfc\include\afxwin1.inl

; 108  : 	{ return Attach(::CreatePen(nPenStyle, nWidth, crColor)); }

  00060	50		 push	 eax
; File D:\git\src\IBK\IBK_DRFN\ProjSrc\SrcChartEx\ChartOCX\GraphDraw\Draw.cpp

; 377  : }

  00061	ff 15 00 00 00
	00		 call	 DWORD PTR __imp__CreatePen@12
  00067	8b 4d 08	 mov	 ecx, DWORD PTR _pen$[ebp]
  0006a	50		 push	 eax
  0006b	e8 00 00 00 00	 call	 ?Attach@CGdiObject@@QAEHPAX@Z ; CGdiObject::Attach
  00070	5d		 pop	 ebp
  00071	c2 10 00	 ret	 16			; 00000010H
$LN8@CreatePen:
; File C:\Program Files (x86)\Microsoft Visual Studio\2019\Community\VC\Tools\MSVC\14.29.30133\atlmfc\include\afxwin1.inl

; 108  : 	{ return Attach(::CreatePen(nPenStyle, nWidth, crColor)); }

  00074	6a 00		 push	 0
; File D:\git\src\IBK\IBK_DRFN\ProjSrc\SrcChartEx\ChartOCX\GraphDraw\Draw.cpp

; 377  : }

  00076	ff 15 00 00 00
	00		 call	 DWORD PTR __imp__CreatePen@12
  0007c	8b 4d 08	 mov	 ecx, DWORD PTR _pen$[ebp]
  0007f	50		 push	 eax
  00080	e8 00 00 00 00	 call	 ?Attach@CGdiObject@@QAEHPAX@Z ; CGdiObject::Attach
  00085	5d		 pop	 ebp
  00086	c2 10 00	 ret	 16			; 00000010H
?CreatePen@CDraw@@IAEXAAVCPen@@ABVCGraphBaseLineStyle@@HK@Z ENDP ; CDraw::CreatePen
_TEXT	ENDS
; Function compile flags: /Ogtp
; File D:\git\src\IBK\IBK_DRFN\ProjSrc\SrcChartEx\ChartOCX\GraphDraw\Draw.cpp
; File C:\Program Files (x86)\Microsoft Visual Studio\2019\Community\VC\Tools\MSVC\14.29.30133\atlmfc\include\afxwin1.inl
; File D:\git\src\IBK\IBK_DRFN\ProjSrc\SrcChartEx\ChartOCX\GraphDraw\Draw.cpp
; File C:\Program Files (x86)\Microsoft Visual Studio\2019\Community\VC\Tools\MSVC\14.29.30133\atlmfc\include\afxwin1.inl
; File D:\git\src\IBK\IBK_DRFN\ProjSrc\SrcChartEx\ChartOCX\GraphDraw\Draw.cpp
; File C:\Program Files (x86)\Microsoft Visual Studio\2019\Community\VC\Tools\MSVC\14.29.30133\atlmfc\include\afxwin1.inl
; File D:\git\src\IBK\IBK_DRFN\ProjSrc\SrcChartEx\ChartOCX\GraphDraw\Draw.cpp
; File C:\Program Files (x86)\Microsoft Visual Studio\2019\Community\VC\Tools\MSVC\14.29.30133\atlmfc\include\afxwin1.inl
; File D:\git\src\IBK\IBK_DRFN\ProjSrc\SrcChartEx\ChartOCX\GraphDraw\Draw.cpp
; File C:\Program Files (x86)\Microsoft Visual Studio\2019\Community\VC\Tools\MSVC\14.29.30133\atlmfc\include\afxwin1.inl
; File D:\git\src\IBK\IBK_DRFN\ProjSrc\SrcChartEx\ChartOCX\GraphDraw\Draw.cpp
;	COMDAT ?CreatePen@CDraw@@IAEXAAVCPen@@ABVCGraphDrawStyle@@HK@Z
_TEXT	SEGMENT
_pen$ = 8						; size = 4
_drawStyle$ = 12					; size = 4
_penThickness$ = 16					; size = 4
_color$ = 20						; size = 4
?CreatePen@CDraw@@IAEXAAVCPen@@ABVCGraphDrawStyle@@HK@Z PROC ; CDraw::CreatePen, COMDAT
; _this$ = ecx

; 351  : {

  00000	55		 push	 ebp
  00001	8b ec		 mov	 ebp, esp

; 352  : 	if(drawStyle.GetGraphLineDrawStyle() == CGraphBaseData::Dot_Draw)			  // 좌표점형

  00003	8b 45 0c	 mov	 eax, DWORD PTR _drawStyle$[ebp]
  00006	ff 75 14	 push	 DWORD PTR _color$[ebp]
  00009	ff 75 10	 push	 DWORD PTR _penThickness$[ebp]
  0000c	8b 00		 mov	 eax, DWORD PTR [eax]
  0000e	83 f8 01	 cmp	 eax, 1
  00011	75 15		 jne	 SHORT $LN2@CreatePen
; File C:\Program Files (x86)\Microsoft Visual Studio\2019\Community\VC\Tools\MSVC\14.29.30133\atlmfc\include\afxwin1.inl

; 108  : 	{ return Attach(::CreatePen(nPenStyle, nWidth, crColor)); }

  00013	6a 02		 push	 2
; File D:\git\src\IBK\IBK_DRFN\ProjSrc\SrcChartEx\ChartOCX\GraphDraw\Draw.cpp

; 362  : }

  00015	ff 15 00 00 00
	00		 call	 DWORD PTR __imp__CreatePen@12
  0001b	8b 4d 08	 mov	 ecx, DWORD PTR _pen$[ebp]
  0001e	50		 push	 eax
  0001f	e8 00 00 00 00	 call	 ?Attach@CGdiObject@@QAEHPAX@Z ; CGdiObject::Attach
  00024	5d		 pop	 ebp
  00025	c2 10 00	 ret	 16			; 00000010H
$LN2@CreatePen:

; 353  : 		pen.CreatePen(PS_DOT, penThickness, color);
; 354  : 	else if(drawStyle.GetGraphLineDrawStyle() == CGraphBaseData::DottedLine_Draw) // 선형 점선

  00028	83 f8 02	 cmp	 eax, 2
  0002b	75 15		 jne	 SHORT $LN4@CreatePen
; File C:\Program Files (x86)\Microsoft Visual Studio\2019\Community\VC\Tools\MSVC\14.29.30133\atlmfc\include\afxwin1.inl

; 108  : 	{ return Attach(::CreatePen(nPenStyle, nWidth, crColor)); }

  0002d	6a 01		 push	 1
; File D:\git\src\IBK\IBK_DRFN\ProjSrc\SrcChartEx\ChartOCX\GraphDraw\Draw.cpp

; 362  : }

  0002f	ff 15 00 00 00
	00		 call	 DWORD PTR __imp__CreatePen@12
  00035	8b 4d 08	 mov	 ecx, DWORD PTR _pen$[ebp]
  00038	50		 push	 eax
  00039	e8 00 00 00 00	 call	 ?Attach@CGdiObject@@QAEHPAX@Z ; CGdiObject::Attach
  0003e	5d		 pop	 ebp
  0003f	c2 10 00	 ret	 16			; 00000010H
$LN4@CreatePen:

; 355  : 		pen.CreatePen(PS_DASH, penThickness, color);
; 356  : 	else if(drawStyle.GetGraphLineDrawStyle() == CGraphBaseData::DashDot_Draw)	  // 선점형

  00042	83 f8 03	 cmp	 eax, 3
  00045	75 14		 jne	 SHORT $LN6@CreatePen
; File C:\Program Files (x86)\Microsoft Visual Studio\2019\Community\VC\Tools\MSVC\14.29.30133\atlmfc\include\afxwin1.inl

; 108  : 	{ return Attach(::CreatePen(nPenStyle, nWidth, crColor)); }

  00047	50		 push	 eax
; File D:\git\src\IBK\IBK_DRFN\ProjSrc\SrcChartEx\ChartOCX\GraphDraw\Draw.cpp

; 362  : }

  00048	ff 15 00 00 00
	00		 call	 DWORD PTR __imp__CreatePen@12
  0004e	8b 4d 08	 mov	 ecx, DWORD PTR _pen$[ebp]
  00051	50		 push	 eax
  00052	e8 00 00 00 00	 call	 ?Attach@CGdiObject@@QAEHPAX@Z ; CGdiObject::Attach
  00057	5d		 pop	 ebp
  00058	c2 10 00	 ret	 16			; 00000010H
$LN6@CreatePen:

; 357  : 		pen.CreatePen(PS_DASHDOT, penThickness, color);
; 358  : 	else if(drawStyle.GetGraphLineDrawStyle() == CGraphBaseData::DashDotDot_Draw) // 선점점형

  0005b	83 f8 04	 cmp	 eax, 4
  0005e	75 14		 jne	 SHORT $LN8@CreatePen
; File C:\Program Files (x86)\Microsoft Visual Studio\2019\Community\VC\Tools\MSVC\14.29.30133\atlmfc\include\afxwin1.inl

; 108  : 	{ return Attach(::CreatePen(nPenStyle, nWidth, crColor)); }

  00060	50		 push	 eax
; File D:\git\src\IBK\IBK_DRFN\ProjSrc\SrcChartEx\ChartOCX\GraphDraw\Draw.cpp

; 362  : }

  00061	ff 15 00 00 00
	00		 call	 DWORD PTR __imp__CreatePen@12
  00067	8b 4d 08	 mov	 ecx, DWORD PTR _pen$[ebp]
  0006a	50		 push	 eax
  0006b	e8 00 00 00 00	 call	 ?Attach@CGdiObject@@QAEHPAX@Z ; CGdiObject::Attach
  00070	5d		 pop	 ebp
  00071	c2 10 00	 ret	 16			; 00000010H
$LN8@CreatePen:
; File C:\Program Files (x86)\Microsoft Visual Studio\2019\Community\VC\Tools\MSVC\14.29.30133\atlmfc\include\afxwin1.inl

; 108  : 	{ return Attach(::CreatePen(nPenStyle, nWidth, crColor)); }

  00074	6a 00		 push	 0
; File D:\git\src\IBK\IBK_DRFN\ProjSrc\SrcChartEx\ChartOCX\GraphDraw\Draw.cpp

; 362  : }

  00076	ff 15 00 00 00
	00		 call	 DWORD PTR __imp__CreatePen@12
  0007c	8b 4d 08	 mov	 ecx, DWORD PTR _pen$[ebp]
  0007f	50		 push	 eax
  00080	e8 00 00 00 00	 call	 ?Attach@CGdiObject@@QAEHPAX@Z ; CGdiObject::Attach
  00085	5d		 pop	 ebp
  00086	c2 10 00	 ret	 16			; 00000010H
?CreatePen@CDraw@@IAEXAAVCPen@@ABVCGraphDrawStyle@@HK@Z ENDP ; CDraw::CreatePen
_TEXT	ENDS
; Function compile flags: /Ogtp
; File D:\git\src\IBK\IBK_DRFN\ProjSrc\SrcChartEx\ChartOCX\GraphDraw\Draw.cpp
;	COMDAT ?InsertThreePointToArray@CDraw@@IAEXPAVCPoint@@V2@11@Z
_TEXT	SEGMENT
_point$ = 8						; size = 4
_point0$ = 12						; size = 8
_point1$ = 20						; size = 8
_point2$ = 28						; size = 8
?InsertThreePointToArray@CDraw@@IAEXPAVCPoint@@V2@11@Z PROC ; CDraw::InsertThreePointToArray, COMDAT
; _this$ = ecx

; 344  : {

  00000	55		 push	 ebp
  00001	8b ec		 mov	 ebp, esp

; 345  : 	point[0] = point0;

  00003	8b 55 08	 mov	 edx, DWORD PTR _point$[ebp]
  00006	8b 45 0c	 mov	 eax, DWORD PTR _point0$[ebp]
  00009	8b 4d 10	 mov	 ecx, DWORD PTR _point0$[ebp+4]
  0000c	89 02		 mov	 DWORD PTR [edx], eax

; 346  : 	point[1] = point1;

  0000e	8b 45 14	 mov	 eax, DWORD PTR _point1$[ebp]
  00011	89 4a 04	 mov	 DWORD PTR [edx+4], ecx
  00014	8b 4d 18	 mov	 ecx, DWORD PTR _point1$[ebp+4]
  00017	89 42 08	 mov	 DWORD PTR [edx+8], eax

; 347  : 	point[2] = point2;

  0001a	8b 45 1c	 mov	 eax, DWORD PTR _point2$[ebp]
  0001d	89 4a 0c	 mov	 DWORD PTR [edx+12], ecx
  00020	8b 4d 20	 mov	 ecx, DWORD PTR _point2$[ebp+4]
  00023	89 42 10	 mov	 DWORD PTR [edx+16], eax
  00026	89 4a 14	 mov	 DWORD PTR [edx+20], ecx

; 348  : }

  00029	5d		 pop	 ebp
  0002a	c2 1c 00	 ret	 28			; 0000001cH
?InsertThreePointToArray@CDraw@@IAEXPAVCPoint@@V2@11@Z ENDP ; CDraw::InsertThreePointToArray
_TEXT	ENDS
; Function compile flags: /Ogtp
; File D:\git\src\IBK\IBK_DRFN\ProjSrc\SrcChartEx\ChartOCX\GraphDraw\Draw.cpp
;	COMDAT ?InsertFourPointToArray@CDraw@@IAEXPAVCPoint@@V2@111@Z
_TEXT	SEGMENT
_point$ = 8						; size = 4
_point0$ = 12						; size = 8
_point1$ = 20						; size = 8
_point2$ = 28						; size = 8
_point3$ = 36						; size = 8
?InsertFourPointToArray@CDraw@@IAEXPAVCPoint@@V2@111@Z PROC ; CDraw::InsertFourPointToArray, COMDAT
; _this$ = ecx

; 336  : {

  00000	55		 push	 ebp
  00001	8b ec		 mov	 ebp, esp

; 337  : 	point[0] = point0;

  00003	8b 55 08	 mov	 edx, DWORD PTR _point$[ebp]
  00006	8b 45 0c	 mov	 eax, DWORD PTR _point0$[ebp]
  00009	8b 4d 10	 mov	 ecx, DWORD PTR _point0$[ebp+4]
  0000c	89 02		 mov	 DWORD PTR [edx], eax

; 338  : 	point[1] = point1;

  0000e	8b 45 14	 mov	 eax, DWORD PTR _point1$[ebp]
  00011	89 4a 04	 mov	 DWORD PTR [edx+4], ecx
  00014	8b 4d 18	 mov	 ecx, DWORD PTR _point1$[ebp+4]
  00017	89 42 08	 mov	 DWORD PTR [edx+8], eax

; 339  : 	point[2] = point2;

  0001a	8b 45 1c	 mov	 eax, DWORD PTR _point2$[ebp]
  0001d	89 4a 0c	 mov	 DWORD PTR [edx+12], ecx
  00020	8b 4d 20	 mov	 ecx, DWORD PTR _point2$[ebp+4]
  00023	89 42 10	 mov	 DWORD PTR [edx+16], eax

; 340  : 	point[3] = point3;

  00026	8b 45 24	 mov	 eax, DWORD PTR _point3$[ebp]
  00029	89 4a 14	 mov	 DWORD PTR [edx+20], ecx
  0002c	8b 4d 28	 mov	 ecx, DWORD PTR _point3$[ebp+4]
  0002f	89 42 18	 mov	 DWORD PTR [edx+24], eax
  00032	89 4a 1c	 mov	 DWORD PTR [edx+28], ecx

; 341  : }

  00035	5d		 pop	 ebp
  00036	c2 24 00	 ret	 36			; 00000024H
?InsertFourPointToArray@CDraw@@IAEXPAVCPoint@@V2@111@Z ENDP ; CDraw::InsertFourPointToArray
_TEXT	ENDS
; Function compile flags: /Ogtp
; File D:\git\src\IBK\IBK_DRFN\ProjSrc\SrcChartEx\ChartOCX\GraphDraw\Draw.cpp
; File C:\Program Files (x86)\Microsoft Visual Studio\2019\Community\VC\Tools\MSVC\14.29.30133\atlmfc\include\afxwin1.inl
; File D:\git\src\IBK\IBK_DRFN\ProjSrc\SrcChartEx\ChartOCX\GraphDraw\Draw.cpp
; File C:\Program Files (x86)\Microsoft Visual Studio\2019\Community\VC\Tools\MSVC\14.29.30133\atlmfc\include\afxwin1.inl
; File D:\git\src\IBK\IBK_DRFN\ProjSrc\SrcChartEx\ChartOCX\GraphDraw\Draw.cpp
; File C:\Program Files (x86)\Microsoft Visual Studio\2019\Community\VC\Tools\MSVC\14.29.30133\atlmfc\include\afxwin1.inl
; File C:\Program Files (x86)\Microsoft Visual Studio\2019\Community\VC\Tools\MSVC\14.29.30133\atlmfc\include\atltypes.h
; File C:\Program Files (x86)\Microsoft Visual Studio\2019\Community\VC\Tools\MSVC\14.29.30133\atlmfc\include\afxwin1.inl
; File D:\git\src\IBK\IBK_DRFN\ProjSrc\SrcChartEx\ChartOCX\GraphDraw\Draw.cpp
; File C:\Program Files (x86)\Microsoft Visual Studio\2019\Community\VC\Tools\MSVC\14.29.30133\atlmfc\include\afxwin1.inl
; File D:\git\src\IBK\IBK_DRFN\ProjSrc\SrcChartEx\ChartOCX\GraphDraw\Draw.cpp
; File C:\Program Files (x86)\Microsoft Visual Studio\2019\Community\VC\Tools\MSVC\14.29.30133\atlmfc\include\afxwin1.inl
; File D:\git\src\IBK\IBK_DRFN\ProjSrc\SrcChartEx\ChartOCX\GraphDraw\Draw.cpp
; File C:\Program Files (x86)\Microsoft Visual Studio\2019\Community\VC\Tools\MSVC\14.29.30133\atlmfc\include\afxwin1.inl
; File D:\git\src\IBK\IBK_DRFN\ProjSrc\SrcChartEx\ChartOCX\GraphDraw\Draw.cpp
; File C:\Program Files (x86)\Microsoft Visual Studio\2019\Community\VC\Tools\MSVC\14.29.30133\atlmfc\include\afxwin1.inl
; File D:\git\src\IBK\IBK_DRFN\ProjSrc\SrcChartEx\ChartOCX\GraphDraw\Draw.cpp
; File C:\Program Files (x86)\Microsoft Visual Studio\2019\Community\VC\Tools\MSVC\14.29.30133\atlmfc\include\afxwin1.inl
; File C:\Program Files (x86)\Microsoft Visual Studio\2019\Community\VC\Tools\MSVC\14.29.30133\atlmfc\include\atltypes.h
; File D:\git\src\IBK\IBK_DRFN\ProjSrc\SrcChartEx\ChartOCX\GraphDraw\Draw.cpp
; File C:\Program Files (x86)\Microsoft Visual Studio\2019\Community\VC\Tools\MSVC\14.29.30133\atlmfc\include\atltypes.h
; File D:\git\src\IBK\IBK_DRFN\ProjSrc\SrcChartEx\ChartOCX\GraphDraw\Draw.cpp
; File C:\Program Files (x86)\Microsoft Visual Studio\2019\Community\VC\Tools\MSVC\14.29.30133\atlmfc\include\atltypes.h
; File D:\git\src\IBK\IBK_DRFN\ProjSrc\SrcChartEx\ChartOCX\GraphDraw\Draw.cpp
; File C:\Program Files (x86)\Microsoft Visual Studio\2019\Community\VC\Tools\MSVC\14.29.30133\atlmfc\include\afxwin1.inl
; File C:\Program Files (x86)\Microsoft Visual Studio\2019\Community\VC\Tools\MSVC\14.29.30133\atlmfc\include\atltypes.h
; File C:\Program Files (x86)\Microsoft Visual Studio\2019\Community\VC\Tools\MSVC\14.29.30133\atlmfc\include\afxwin1.inl
; File C:\Program Files (x86)\Microsoft Visual Studio\2019\Community\VC\Tools\MSVC\14.29.30133\atlmfc\include\atltypes.h
; File C:\Program Files (x86)\Microsoft Visual Studio\2019\Community\VC\Tools\MSVC\14.29.30133\atlmfc\include\afxwin1.inl
; File D:\git\src\IBK\IBK_DRFN\ProjSrc\SrcChartEx\ChartOCX\GraphDraw\Draw.cpp
; File C:\Program Files (x86)\Microsoft Visual Studio\2019\Community\VC\Tools\MSVC\14.29.30133\atlmfc\include\afxwin1.inl
; File D:\git\src\IBK\IBK_DRFN\ProjSrc\SrcChartEx\ChartOCX\GraphDraw\Draw.cpp
; File C:\Program Files (x86)\Microsoft Visual Studio\2019\Community\VC\Tools\MSVC\14.29.30133\atlmfc\include\afxwin1.inl
; File D:\git\src\IBK\IBK_DRFN\ProjSrc\SrcChartEx\ChartOCX\GraphDraw\Draw.cpp
;	COMDAT ?DrawSemiTransparentBitmap@CDraw@@IAEXPAVCDC@@PAVCPoint@@K@Z
_TEXT	SEGMENT
_OriginalRect$5$ = -112					; size = 16
_pOldBrush$1$ = -96					; size = 4
_pOldBitmap$1$ = -92					; size = 4
_brush$ = -88						; size = 8
_CompatibleDC$ = -80					; size = 16
_bm$ = -64						; size = 8
_rgn$ = -56						; size = 8
$T2 = -48						; size = 16
_rgnRect$ = -32						; size = 16
__$ArrayPad$ = -16					; size = 4
__$EHRec$ = -12						; size = 12
_pDC$ = 8						; size = 4
_ptArr$ = 12						; size = 4
_rgb$ = 16						; size = 4
?DrawSemiTransparentBitmap@CDraw@@IAEXPAVCDC@@PAVCPoint@@K@Z PROC ; CDraw::DrawSemiTransparentBitmap, COMDAT
; _this$ = ecx

; 304  : {

  00000	55		 push	 ebp
  00001	8b ec		 mov	 ebp, esp
  00003	6a ff		 push	 -1
  00005	68 00 00 00 00	 push	 __ehhandler$?DrawSemiTransparentBitmap@CDraw@@IAEXPAVCDC@@PAVCPoint@@K@Z
  0000a	64 a1 00 00 00
	00		 mov	 eax, DWORD PTR fs:0
  00010	50		 push	 eax
  00011	83 ec 64	 sub	 esp, 100		; 00000064H
  00014	a1 00 00 00 00	 mov	 eax, DWORD PTR ___security_cookie
  00019	33 c5		 xor	 eax, ebp
  0001b	89 45 f0	 mov	 DWORD PTR __$ArrayPad$[ebp], eax
  0001e	56		 push	 esi
  0001f	57		 push	 edi
  00020	50		 push	 eax
  00021	8d 45 f4	 lea	 eax, DWORD PTR __$EHRec$[ebp]
  00024	64 a3 00 00 00
	00		 mov	 DWORD PTR fs:0, eax
  0002a	8b 45 10	 mov	 eax, DWORD PTR _rgb$[ebp]

; 305  : 	CBrush brush(rgb), *pOldBrush=NULL;

  0002d	8d 4d a8	 lea	 ecx, DWORD PTR _brush$[ebp]
  00030	8b 7d 08	 mov	 edi, DWORD PTR _pDC$[ebp]
  00033	8b 75 0c	 mov	 esi, DWORD PTR _ptArr$[ebp]
  00036	50		 push	 eax
  00037	e8 00 00 00 00	 call	 ??0CBrush@@QAE@K@Z	; CBrush::CBrush
  0003c	c7 45 fc 00 00
	00 00		 mov	 DWORD PTR __$EHRec$[ebp+8], 0
; File C:\Program Files (x86)\Microsoft Visual Studio\2019\Community\VC\Tools\MSVC\14.29.30133\atlmfc\include\afxwin1.inl

; 70   : 	{ m_hObject = NULL; }

  00043	c7 45 cc 00 00
	00 00		 mov	 DWORD PTR _rgn$[ebp+4], 0

; 264  : 	{ }

  0004a	c7 45 c8 00 00
	00 00		 mov	 DWORD PTR _rgn$[ebp], OFFSET ??_7CRgn@@6B@

; 276  : 	{ return Attach(::CreatePolygonRgn(lpPoints, nCount, nMode)); }

  00051	6a 02		 push	 2
  00053	6a 04		 push	 4
  00055	56		 push	 esi
; File D:\git\src\IBK\IBK_DRFN\ProjSrc\SrcChartEx\ChartOCX\GraphDraw\Draw.cpp

; 306  : 	CRgn rgn;

  00056	c6 45 fc 01	 mov	 BYTE PTR __$EHRec$[ebp+8], 1
; File C:\Program Files (x86)\Microsoft Visual Studio\2019\Community\VC\Tools\MSVC\14.29.30133\atlmfc\include\afxwin1.inl

; 276  : 	{ return Attach(::CreatePolygonRgn(lpPoints, nCount, nMode)); }

  0005a	ff 15 00 00 00
	00		 call	 DWORD PTR __imp__CreatePolygonRgn@12
  00060	50		 push	 eax
  00061	8d 4d c8	 lea	 ecx, DWORD PTR _rgn$[ebp]
  00064	e8 00 00 00 00	 call	 ?Attach@CGdiObject@@QAEHPAX@Z ; CGdiObject::Attach
; File D:\git\src\IBK\IBK_DRFN\ProjSrc\SrcChartEx\ChartOCX\GraphDraw\Draw.cpp

; 308  : 	CDC CompatibleDC;

  00069	8d 4d b0	 lea	 ecx, DWORD PTR _CompatibleDC$[ebp]
  0006c	e8 00 00 00 00	 call	 ??0CDC@@QAE@XZ		; CDC::CDC
  00071	c6 45 fc 02	 mov	 BYTE PTR __$EHRec$[ebp+8], 2
; File C:\Program Files (x86)\Microsoft Visual Studio\2019\Community\VC\Tools\MSVC\14.29.30133\atlmfc\include\afxwin1.inl

; 316  : 	{ return this == NULL ? NULL : m_hDC; }

  00075	85 ff		 test	 edi, edi
  00077	75 04		 jne	 SHORT $LN17@DrawSemiTr
  00079	33 c0		 xor	 eax, eax
  0007b	eb 03		 jmp	 SHORT $LN18@DrawSemiTr
$LN17@DrawSemiTr:
  0007d	8b 47 04	 mov	 eax, DWORD PTR [edi+4]
$LN18@DrawSemiTr:

; 330  : 	{ return Attach(::CreateCompatibleDC(pDC->GetSafeHdc())); }

  00080	50		 push	 eax
  00081	ff 15 00 00 00
	00		 call	 DWORD PTR __imp__CreateCompatibleDC@4
  00087	50		 push	 eax
  00088	8d 4d b0	 lea	 ecx, DWORD PTR _CompatibleDC$[ebp]
  0008b	e8 00 00 00 00	 call	 ?Attach@CDC@@QAEHPAUHDC__@@@Z ; CDC::Attach

; 304  : 	{ ASSERT(m_hObject != NULL); return ::GetRgnBox((HRGN)m_hObject, lpRect); }

  00090	8d 45 e0	 lea	 eax, DWORD PTR _rgnRect$[ebp]
  00093	0f 57 c0	 xorps	 xmm0, xmm0
  00096	50		 push	 eax
  00097	ff 75 cc	 push	 DWORD PTR _rgn$[ebp+4]
; File C:\Program Files (x86)\Microsoft Visual Studio\2019\Community\VC\Tools\MSVC\14.29.30133\atlmfc\include\atltypes.h

; 528  : 	left = 0;

  0009a	0f 11 45 e0	 movups	 XMMWORD PTR _rgnRect$[ebp], xmm0
; File C:\Program Files (x86)\Microsoft Visual Studio\2019\Community\VC\Tools\MSVC\14.29.30133\atlmfc\include\afxwin1.inl

; 304  : 	{ ASSERT(m_hObject != NULL); return ::GetRgnBox((HRGN)m_hObject, lpRect); }

  0009e	ff 15 00 00 00
	00		 call	 DWORD PTR __imp__GetRgnBox@8
; File D:\git\src\IBK\IBK_DRFN\ProjSrc\SrcChartEx\ChartOCX\GraphDraw\Draw.cpp

; 312  : 	OriginalRect = rgnRect;

  000a4	0f 10 4d e0	 movups	 xmm1, XMMWORD PTR _rgnRect$[ebp]

; 313  : 	rgn.OffsetRgn(-OriginalRect.left, -OriginalRect.top);

  000a8	0f 28 c1	 movaps	 xmm0, xmm1
  000ab	66 0f 7e c8	 movd	 eax, xmm1
  000af	66 0f 73 d8 04	 psrldq	 xmm0, 4
  000b4	66 0f 7e c1	 movd	 ecx, xmm0
  000b8	f7 d8		 neg	 eax
  000ba	0f 11 4d 90	 movups	 XMMWORD PTR _OriginalRect$5$[ebp], xmm1
  000be	f7 d9		 neg	 ecx
; File C:\Program Files (x86)\Microsoft Visual Studio\2019\Community\VC\Tools\MSVC\14.29.30133\atlmfc\include\afxwin1.inl

; 300  : 	{ ASSERT(m_hObject != NULL); return ::OffsetRgn((HRGN)m_hObject, x, y); }

  000c0	51		 push	 ecx
  000c1	50		 push	 eax
  000c2	ff 75 cc	 push	 DWORD PTR _rgn$[ebp+4]
  000c5	ff 15 00 00 00
	00		 call	 DWORD PTR __imp__OffsetRgn@12
; File D:\git\src\IBK\IBK_DRFN\ProjSrc\SrcChartEx\ChartOCX\GraphDraw\Draw.cpp

; 314  : 	rgnRect.bottom -= rgnRect.top;

  000cb	8b 4d ec	 mov	 ecx, DWORD PTR _rgnRect$[ebp+12]

; 315  : 	rgnRect.right -= rgnRect.left;

  000ce	8b 45 e8	 mov	 eax, DWORD PTR _rgnRect$[ebp+8]
  000d1	2b 4d e4	 sub	 ecx, DWORD PTR _rgnRect$[ebp+4]
  000d4	2b 45 e0	 sub	 eax, DWORD PTR _rgnRect$[ebp]
  000d7	89 4d ec	 mov	 DWORD PTR _rgnRect$[ebp+12], ecx
  000da	89 45 e8	 mov	 DWORD PTR _rgnRect$[ebp+8], eax

; 316  : 	rgnRect.top = 0;

  000dd	c7 45 e4 00 00
	00 00		 mov	 DWORD PTR _rgnRect$[ebp+4], 0

; 317  : 	rgnRect.left = 0;

  000e4	c7 45 e0 00 00
	00 00		 mov	 DWORD PTR _rgnRect$[ebp], 0
; File C:\Program Files (x86)\Microsoft Visual Studio\2019\Community\VC\Tools\MSVC\14.29.30133\atlmfc\include\afxwin1.inl

; 70   : 	{ m_hObject = NULL; }

  000eb	c7 45 c4 00 00
	00 00		 mov	 DWORD PTR _bm$[ebp+4], 0

; 177  : 	{ }

  000f2	c7 45 c0 00 00
	00 00		 mov	 DWORD PTR _bm$[ebp], OFFSET ??_7CBitmap@@6B@

; 217  : 	{ return Attach(::CreateCompatibleBitmap(pDC->m_hDC, nWidth, nHeight)); }

  000f9	51		 push	 ecx
  000fa	50		 push	 eax
  000fb	ff 77 04	 push	 DWORD PTR [edi+4]
; File D:\git\src\IBK\IBK_DRFN\ProjSrc\SrcChartEx\ChartOCX\GraphDraw\Draw.cpp

; 318  : 	CBitmap bm, *pOldBitmap=NULL;

  000fe	c6 45 fc 03	 mov	 BYTE PTR __$EHRec$[ebp+8], 3
; File C:\Program Files (x86)\Microsoft Visual Studio\2019\Community\VC\Tools\MSVC\14.29.30133\atlmfc\include\afxwin1.inl

; 217  : 	{ return Attach(::CreateCompatibleBitmap(pDC->m_hDC, nWidth, nHeight)); }

  00102	ff 15 00 00 00
	00		 call	 DWORD PTR __imp__CreateCompatibleBitmap@12
  00108	50		 push	 eax
  00109	8d 4d c0	 lea	 ecx, DWORD PTR _bm$[ebp]
  0010c	e8 00 00 00 00	 call	 ?Attach@CGdiObject@@QAEHPAX@Z ; CGdiObject::Attach
; File D:\git\src\IBK\IBK_DRFN\ProjSrc\SrcChartEx\ChartOCX\GraphDraw\Draw.cpp

; 320  : 	pOldBrush = CompatibleDC.SelectObject(&brush);

  00111	8d 45 a8	 lea	 eax, DWORD PTR _brush$[ebp]
  00114	50		 push	 eax
  00115	8d 4d b0	 lea	 ecx, DWORD PTR _CompatibleDC$[ebp]
  00118	e8 00 00 00 00	 call	 ?SelectObject@CDC@@QAEPAVCBrush@@PAV2@@Z ; CDC::SelectObject
; File C:\Program Files (x86)\Microsoft Visual Studio\2019\Community\VC\Tools\MSVC\14.29.30133\atlmfc\include\afxwin1.inl

; 361  : 	{ ASSERT(m_hDC != NULL); return (CBitmap*) SelectGdiObject(m_hDC, pBitmap->GetSafeHandle()); }

  0011d	ff 75 c4	 push	 DWORD PTR _bm$[ebp+4]
; File D:\git\src\IBK\IBK_DRFN\ProjSrc\SrcChartEx\ChartOCX\GraphDraw\Draw.cpp

; 320  : 	pOldBrush = CompatibleDC.SelectObject(&brush);

  00120	89 45 a0	 mov	 DWORD PTR _pOldBrush$1$[ebp], eax
; File C:\Program Files (x86)\Microsoft Visual Studio\2019\Community\VC\Tools\MSVC\14.29.30133\atlmfc\include\afxwin1.inl

; 361  : 	{ ASSERT(m_hDC != NULL); return (CBitmap*) SelectGdiObject(m_hDC, pBitmap->GetSafeHandle()); }

  00123	ff 75 b4	 push	 DWORD PTR _CompatibleDC$[ebp+4]
  00126	e8 00 00 00 00	 call	 ?SelectGdiObject@CDC@@KGPAVCGdiObject@@PAUHDC__@@PAX@Z ; CDC::SelectGdiObject
; File C:\Program Files (x86)\Microsoft Visual Studio\2019\Community\VC\Tools\MSVC\14.29.30133\atlmfc\include\atltypes.h

; 576  : 	return right - left;

  0012b	8b 4d e8	 mov	 ecx, DWORD PTR _rgnRect$[ebp+8]
  0012e	2b 4d e0	 sub	 ecx, DWORD PTR _rgnRect$[ebp]

; 542  : 	right = r;

  00131	89 4d d8	 mov	 DWORD PTR $T2[ebp+8], ecx

; 581  : 	return bottom - top;

  00134	8b 4d ec	 mov	 ecx, DWORD PTR _rgnRect$[ebp+12]
  00137	2b 4d e4	 sub	 ecx, DWORD PTR _rgnRect$[ebp+4]
; File D:\git\src\IBK\IBK_DRFN\ProjSrc\SrcChartEx\ChartOCX\GraphDraw\Draw.cpp

; 321  : 	pOldBitmap = CompatibleDC.SelectObject(&bm);

  0013a	89 45 a4	 mov	 DWORD PTR _pOldBitmap$1$[ebp], eax

; 323  : 	CompatibleDC.FillSolidRect(CRect(0,0, rgnRect.Width(), rgnRect.Height()), RGB(255, 255, 255));

  0013d	8d 45 d0	 lea	 eax, DWORD PTR $T2[ebp]
  00140	68 ff ff ff 00	 push	 16777215		; 00ffffffH
; File C:\Program Files (x86)\Microsoft Visual Studio\2019\Community\VC\Tools\MSVC\14.29.30133\atlmfc\include\atltypes.h

; 543  : 	bottom = b;

  00145	89 4d dc	 mov	 DWORD PTR $T2[ebp+12], ecx
; File D:\git\src\IBK\IBK_DRFN\ProjSrc\SrcChartEx\ChartOCX\GraphDraw\Draw.cpp

; 323  : 	CompatibleDC.FillSolidRect(CRect(0,0, rgnRect.Width(), rgnRect.Height()), RGB(255, 255, 255));

  00148	8d 4d b0	 lea	 ecx, DWORD PTR _CompatibleDC$[ebp]
  0014b	50		 push	 eax
; File C:\Program Files (x86)\Microsoft Visual Studio\2019\Community\VC\Tools\MSVC\14.29.30133\atlmfc\include\atltypes.h

; 540  : 	left = l;

  0014c	c7 45 d0 00 00
	00 00		 mov	 DWORD PTR $T2[ebp], 0

; 541  : 	top = t;

  00153	c7 45 d4 00 00
	00 00		 mov	 DWORD PTR $T2[ebp+4], 0
; File D:\git\src\IBK\IBK_DRFN\ProjSrc\SrcChartEx\ChartOCX\GraphDraw\Draw.cpp

; 323  : 	CompatibleDC.FillSolidRect(CRect(0,0, rgnRect.Width(), rgnRect.Height()), RGB(255, 255, 255));

  0015a	e8 00 00 00 00	 call	 ?FillSolidRect@CDC@@QAEXPBUtagRECT@@K@Z ; CDC::FillSolidRect
; File C:\Program Files (x86)\Microsoft Visual Studio\2019\Community\VC\Tools\MSVC\14.29.30133\atlmfc\include\afxwin1.inl

; 448  : 	{ ASSERT(m_hDC != NULL); return ::PaintRgn(m_hDC, (HRGN)pRgn->GetSafeHandle()); }

  0015f	ff 75 cc	 push	 DWORD PTR _rgn$[ebp+4]
  00162	ff 75 b4	 push	 DWORD PTR _CompatibleDC$[ebp+4]
  00165	ff 15 00 00 00
	00		 call	 DWORD PTR __imp__PaintRgn@8
; File C:\Program Files (x86)\Microsoft Visual Studio\2019\Community\VC\Tools\MSVC\14.29.30133\atlmfc\include\atltypes.h

; 581  : 	return bottom - top;

  0016b	0f 10 4d 90	 movups	 xmm1, XMMWORD PTR _OriginalRect$5$[ebp]
; File C:\Program Files (x86)\Microsoft Visual Studio\2019\Community\VC\Tools\MSVC\14.29.30133\atlmfc\include\afxwin1.inl

; 552  : 	{ ASSERT(m_hDC != NULL); return ::BitBlt(m_hDC, x, y, nWidth, nHeight,

  0016f	68 c6 00 88 00	 push	 8913094			; 008800c6H
; File C:\Program Files (x86)\Microsoft Visual Studio\2019\Community\VC\Tools\MSVC\14.29.30133\atlmfc\include\atltypes.h

; 581  : 	return bottom - top;

  00174	0f 28 c1	 movaps	 xmm0, xmm1

; 576  : 	return right - left;

  00177	66 0f 7e c8	 movd	 eax, xmm1

; 581  : 	return bottom - top;

  0017b	66 0f 73 d8 0c	 psrldq	 xmm0, 12		; 0000000cH
  00180	66 0f 7e c6	 movd	 esi, xmm0
  00184	0f 28 c1	 movaps	 xmm0, xmm1
  00187	66 0f 73 d8 04	 psrldq	 xmm0, 4
  0018c	66 0f 7e c2	 movd	 edx, xmm0

; 576  : 	return right - left;

  00190	0f 28 c1	 movaps	 xmm0, xmm1
  00193	66 0f 73 d8 08	 psrldq	 xmm0, 8
  00198	66 0f 7e c1	 movd	 ecx, xmm0

; 581  : 	return bottom - top;

  0019c	2b f2		 sub	 esi, edx

; 576  : 	return right - left;

  0019e	2b c8		 sub	 ecx, eax
; File C:\Program Files (x86)\Microsoft Visual Studio\2019\Community\VC\Tools\MSVC\14.29.30133\atlmfc\include\afxwin1.inl

; 552  : 	{ ASSERT(m_hDC != NULL); return ::BitBlt(m_hDC, x, y, nWidth, nHeight,

  001a0	6a 00		 push	 0
  001a2	6a 00		 push	 0
  001a4	ff 75 b4	 push	 DWORD PTR _CompatibleDC$[ebp+4]
  001a7	56		 push	 esi
  001a8	51		 push	 ecx
  001a9	52		 push	 edx
  001aa	50		 push	 eax
  001ab	ff 77 04	 push	 DWORD PTR [edi+4]
  001ae	ff 15 00 00 00
	00		 call	 DWORD PTR __imp__BitBlt@36

; 68   : 	{ return this == NULL ? NULL : m_hObject; }

  001b4	8b 45 a4	 mov	 eax, DWORD PTR _pOldBitmap$1$[ebp]
  001b7	85 c0		 test	 eax, eax
  001b9	74 03		 je	 SHORT $LN70@DrawSemiTr
$LN69@DrawSemiTr:
  001bb	8b 40 04	 mov	 eax, DWORD PTR [eax+4]
$LN70@DrawSemiTr:

; 361  : 	{ ASSERT(m_hDC != NULL); return (CBitmap*) SelectGdiObject(m_hDC, pBitmap->GetSafeHandle()); }

  001be	50		 push	 eax
  001bf	ff 75 b4	 push	 DWORD PTR _CompatibleDC$[ebp+4]
  001c2	e8 00 00 00 00	 call	 ?SelectGdiObject@CDC@@KGPAVCGdiObject@@PAUHDC__@@PAX@Z ; CDC::SelectGdiObject
; File D:\git\src\IBK\IBK_DRFN\ProjSrc\SrcChartEx\ChartOCX\GraphDraw\Draw.cpp

; 328  : 	bm.DeleteObject();

  001c7	8d 4d c0	 lea	 ecx, DWORD PTR _bm$[ebp]
  001ca	e8 00 00 00 00	 call	 ?DeleteObject@CGdiObject@@QAEHXZ ; CGdiObject::DeleteObject

; 329  : 	CompatibleDC.SelectObject(pOldBrush);

  001cf	ff 75 a0	 push	 DWORD PTR _pOldBrush$1$[ebp]
  001d2	8d 4d b0	 lea	 ecx, DWORD PTR _CompatibleDC$[ebp]
  001d5	e8 00 00 00 00	 call	 ?SelectObject@CDC@@QAEPAVCBrush@@PAV2@@Z ; CDC::SelectObject

; 330  : 	brush.DeleteObject();

  001da	8d 4d a8	 lea	 ecx, DWORD PTR _brush$[ebp]
  001dd	e8 00 00 00 00	 call	 ?DeleteObject@CGdiObject@@QAEHXZ ; CGdiObject::DeleteObject

; 331  : 	CompatibleDC.DeleteDC();

  001e2	8d 4d b0	 lea	 ecx, DWORD PTR _CompatibleDC$[ebp]
  001e5	e8 00 00 00 00	 call	 ?DeleteDC@CDC@@QAEHXZ	; CDC::DeleteDC

; 332  : 	rgn.DeleteObject();

  001ea	8d 4d c8	 lea	 ecx, DWORD PTR _rgn$[ebp]
  001ed	e8 00 00 00 00	 call	 ?DeleteObject@CGdiObject@@QAEHXZ ; CGdiObject::DeleteObject
; File C:\Program Files (x86)\Microsoft Visual Studio\2019\Community\VC\Tools\MSVC\14.29.30133\atlmfc\include\afxwin1.inl

; 179  : 	{ }

  001f2	8d 4d c0	 lea	 ecx, DWORD PTR _bm$[ebp]
  001f5	c7 45 c0 00 00
	00 00		 mov	 DWORD PTR _bm$[ebp], OFFSET ??_7CBitmap@@6B@
  001fc	e8 00 00 00 00	 call	 ??1CGdiObject@@UAE@XZ	; CGdiObject::~CGdiObject
; File D:\git\src\IBK\IBK_DRFN\ProjSrc\SrcChartEx\ChartOCX\GraphDraw\Draw.cpp

; 333  : }

  00201	8d 4d b0	 lea	 ecx, DWORD PTR _CompatibleDC$[ebp]
  00204	e8 00 00 00 00	 call	 ??1CDC@@UAE@XZ		; CDC::~CDC
; File C:\Program Files (x86)\Microsoft Visual Studio\2019\Community\VC\Tools\MSVC\14.29.30133\atlmfc\include\afxwin1.inl

; 266  : 	{ }

  00209	8d 4d c8	 lea	 ecx, DWORD PTR _rgn$[ebp]
  0020c	c7 45 c8 00 00
	00 00		 mov	 DWORD PTR _rgn$[ebp], OFFSET ??_7CRgn@@6B@
  00213	e8 00 00 00 00	 call	 ??1CGdiObject@@UAE@XZ	; CGdiObject::~CGdiObject

; 130  : 	{ }

  00218	8d 4d a8	 lea	 ecx, DWORD PTR _brush$[ebp]
  0021b	c7 45 a8 00 00
	00 00		 mov	 DWORD PTR _brush$[ebp], OFFSET ??_7CBrush@@6B@
  00222	e8 00 00 00 00	 call	 ??1CGdiObject@@UAE@XZ	; CGdiObject::~CGdiObject
; File D:\git\src\IBK\IBK_DRFN\ProjSrc\SrcChartEx\ChartOCX\GraphDraw\Draw.cpp

; 333  : }

  00227	8b 4d f4	 mov	 ecx, DWORD PTR __$EHRec$[ebp]
  0022a	64 89 0d 00 00
	00 00		 mov	 DWORD PTR fs:0, ecx
  00231	59		 pop	 ecx
  00232	5f		 pop	 edi
  00233	5e		 pop	 esi
  00234	8b 4d f0	 mov	 ecx, DWORD PTR __$ArrayPad$[ebp]
  00237	33 cd		 xor	 ecx, ebp
  00239	e8 00 00 00 00	 call	 @__security_check_cookie@4
  0023e	8b e5		 mov	 esp, ebp
  00240	5d		 pop	 ebp
  00241	c2 0c 00	 ret	 12			; 0000000cH
_TEXT	ENDS
;	COMDAT text$x
text$x	SEGMENT
__unwindfunclet$?DrawSemiTransparentBitmap@CDraw@@IAEXPAVCDC@@PAVCPoint@@K@Z$0:
  00000	8d 4d a8	 lea	 ecx, DWORD PTR _brush$[ebp]
  00003	e9 00 00 00 00	 jmp	 ??1CBrush@@UAE@XZ	; CBrush::~CBrush
__unwindfunclet$?DrawSemiTransparentBitmap@CDraw@@IAEXPAVCDC@@PAVCPoint@@K@Z$1:
  00008	8d 4d c8	 lea	 ecx, DWORD PTR _rgn$[ebp]
  0000b	e9 00 00 00 00	 jmp	 ??1CRgn@@UAE@XZ		; CRgn::~CRgn
__unwindfunclet$?DrawSemiTransparentBitmap@CDraw@@IAEXPAVCDC@@PAVCPoint@@K@Z$2:
  00010	8d 4d b0	 lea	 ecx, DWORD PTR _CompatibleDC$[ebp]
  00013	e9 00 00 00 00	 jmp	 ??1CDC@@UAE@XZ		; CDC::~CDC
__unwindfunclet$?DrawSemiTransparentBitmap@CDraw@@IAEXPAVCDC@@PAVCPoint@@K@Z$3:
  00018	8d 4d c0	 lea	 ecx, DWORD PTR _bm$[ebp]
  0001b	e9 00 00 00 00	 jmp	 ??1CBitmap@@UAE@XZ	; CBitmap::~CBitmap
  00020	cc		 int	 3
  00021	cc		 int	 3
  00022	cc		 int	 3
  00023	cc		 int	 3
  00024	cc		 int	 3
__ehhandler$?DrawSemiTransparentBitmap@CDraw@@IAEXPAVCDC@@PAVCPoint@@K@Z:
  00025	90		 npad	 1
  00026	90		 npad	 1
  00027	8b 54 24 08	 mov	 edx, DWORD PTR [esp+8]
  0002b	8d 42 0c	 lea	 eax, DWORD PTR [edx+12]
  0002e	8b 4a 90	 mov	 ecx, DWORD PTR [edx-112]
  00031	33 c8		 xor	 ecx, eax
  00033	e8 00 00 00 00	 call	 @__security_check_cookie@4
  00038	8b 4a fc	 mov	 ecx, DWORD PTR [edx-4]
  0003b	33 c8		 xor	 ecx, eax
  0003d	e8 00 00 00 00	 call	 @__security_check_cookie@4
  00042	b8 00 00 00 00	 mov	 eax, OFFSET __ehfuncinfo$?DrawSemiTransparentBitmap@CDraw@@IAEXPAVCDC@@PAVCPoint@@K@Z
  00047	e9 00 00 00 00	 jmp	 ___CxxFrameHandler3
text$x	ENDS
?DrawSemiTransparentBitmap@CDraw@@IAEXPAVCDC@@PAVCPoint@@K@Z ENDP ; CDraw::DrawSemiTransparentBitmap
; Function compile flags: /Ogtp
; File D:\git\src\IBK\IBK_DRFN\ProjSrc\SrcChartEx\ChartOCX\GraphDraw\Draw.cpp
;	COMDAT ?CalLogValue@CDraw@@IAEN_NN@Z
_TEXT	SEGMENT
_checkLog$ = 8						; size = 1
_data$ = 12						; size = 8
?CalLogValue@CDraw@@IAEN_NN@Z PROC			; CDraw::CalLogValue, COMDAT
; _this$ = ecx

; 296  : {

  00000	55		 push	 ebp
  00001	8b ec		 mov	 ebp, esp

; 297  : 	if(checkLog)

  00003	80 7d 08 00	 cmp	 BYTE PTR _checkLog$[ebp], 0
  00007	74 10		 je	 SHORT $LN2@CalLogValu

; 298  : 		return CMath::Log(data);

  00009	8d 45 0c	 lea	 eax, DWORD PTR _data$[ebp]
  0000c	50		 push	 eax
  0000d	e8 00 00 00 00	 call	 ?Log@CMath@@SANABN@Z	; CMath::Log
  00012	83 c4 04	 add	 esp, 4

; 301  : }

  00015	5d		 pop	 ebp
  00016	c2 0c 00	 ret	 12			; 0000000cH
$LN2@CalLogValu:

; 299  : 
; 300  : 	return double(data);

  00019	dd 45 0c	 fld	 QWORD PTR _data$[ebp]

; 301  : }

  0001c	5d		 pop	 ebp
  0001d	c2 0c 00	 ret	 12			; 0000000cH
?CalLogValue@CDraw@@IAEN_NN@Z ENDP			; CDraw::CalLogValue
_TEXT	ENDS
; Function compile flags: /Ogtp
; File D:\git\src\IBK\IBK_DRFN\ProjSrc\SrcChartEx\ChartOCX\GraphDraw\Draw.cpp
;	COMDAT ?CalInclination@CDraw@@IAENVCPoint@@0@Z
_TEXT	SEGMENT
_startPoint$ = 8					; size = 8
tv136 = 16						; size = 8
_endPoint$ = 16						; size = 8
?CalInclination@CDraw@@IAENVCPoint@@0@Z PROC		; CDraw::CalInclination, COMDAT
; _this$ = ecx

; 288  : {

  00000	55		 push	 ebp
  00001	8b ec		 mov	 ebp, esp

; 289  : 	if(endPoint.x - startPoint.x == 0)

  00003	8b 4d 10	 mov	 ecx, DWORD PTR _endPoint$[ebp]
  00006	2b 4d 08	 sub	 ecx, DWORD PTR _startPoint$[ebp]
  00009	75 0a		 jne	 SHORT $LN2@CalInclina

; 290  : 		return 10000.0;

  0000b	dd 05 00 00 00
	00		 fld	 QWORD PTR __real@40c3880000000000

; 293  : }

  00011	5d		 pop	 ebp
  00012	c2 10 00	 ret	 16			; 00000010H
$LN2@CalInclina:

; 291  : 	else
; 292  : 		return double(endPoint.y - startPoint.y) / double(endPoint.x - startPoint.x);

  00015	8b 45 14	 mov	 eax, DWORD PTR _endPoint$[ebp+4]
  00018	2b 45 0c	 sub	 eax, DWORD PTR _startPoint$[ebp+4]
  0001b	66 0f 6e c1	 movd	 xmm0, ecx
  0001f	f3 0f e6 c0	 cvtdq2pd xmm0, xmm0
  00023	66 0f 6e c8	 movd	 xmm1, eax
  00027	f3 0f e6 c9	 cvtdq2pd xmm1, xmm1
  0002b	f2 0f 5e c8	 divsd	 xmm1, xmm0
  0002f	f2 0f 11 4d 10	 movsd	 QWORD PTR tv136[ebp], xmm1
  00034	dd 45 10	 fld	 QWORD PTR tv136[ebp]

; 293  : }

  00037	5d		 pop	 ebp
  00038	c2 10 00	 ret	 16			; 00000010H
?CalInclination@CDraw@@IAENVCPoint@@0@Z ENDP		; CDraw::CalInclination
_TEXT	ENDS
; Function compile flags: /Ogtp
; File D:\git\src\IBK\IBK_DRFN\ProjSrc\SrcChartEx\ChartOCX\GraphDraw\Draw.cpp
; File C:\Program Files (x86)\Microsoft Visual Studio\2019\Community\VC\Tools\MSVC\14.29.30133\atlmfc\include\atltypes.h
; File D:\git\src\IBK\IBK_DRFN\ProjSrc\SrcChartEx\ChartOCX\GraphDraw\Draw.cpp
;	COMDAT ?CalRealWidth@CDraw@@IAENABVCRect@@HH@Z
_TEXT	SEGMENT
tv134 = -8						; size = 8
_graphDrawingRegion$ = 8				; size = 4
_dataStart$ = 12					; size = 4
_dataEnd$ = 16						; size = 4
?CalRealWidth@CDraw@@IAENABVCRect@@HH@Z PROC		; CDraw::CalRealWidth, COMDAT
; _this$ = ecx

; 280  : {

  00000	55		 push	 ebp
  00001	8b ec		 mov	 ebp, esp

; 281  : 	// (2004.07.19, 배승원) 0으로 나누는 경우를 예외처리한다. (0으로 Return한다.)
; 282  : 	double dDataCount = dataEnd - dataStart + 1;

  00003	8b 45 10	 mov	 eax, DWORD PTR _dataEnd$[ebp]
  00006	0f 57 c0	 xorps	 xmm0, xmm0
  00009	2b 45 0c	 sub	 eax, DWORD PTR _dataStart$[ebp]
  0000c	83 ec 08	 sub	 esp, 8
  0000f	40		 inc	 eax
  00010	66 0f 6e c8	 movd	 xmm1, eax
  00014	f3 0f e6 c9	 cvtdq2pd xmm1, xmm1

; 283  : 	if( dDataCount <= 0) return 0;

  00018	66 0f 2f c1	 comisd	 xmm0, xmm1
  0001c	72 08		 jb	 SHORT $LN2@CalRealWid
  0001e	d9 ee		 fldz

; 285  : }

  00020	8b e5		 mov	 esp, ebp
  00022	5d		 pop	 ebp
  00023	c2 0c 00	 ret	 12			; 0000000cH
$LN2@CalRealWid:
; File C:\Program Files (x86)\Microsoft Visual Studio\2019\Community\VC\Tools\MSVC\14.29.30133\atlmfc\include\atltypes.h

; 576  : 	return right - left;

  00026	8b 45 08	 mov	 eax, DWORD PTR _graphDrawingRegion$[ebp]
  00029	8b 48 08	 mov	 ecx, DWORD PTR [eax+8]
  0002c	2b 08		 sub	 ecx, DWORD PTR [eax]
  0002e	66 0f 6e c1	 movd	 xmm0, ecx
; File D:\git\src\IBK\IBK_DRFN\ProjSrc\SrcChartEx\ChartOCX\GraphDraw\Draw.cpp

; 284  : 	return (double)graphDrawingRegion.Width()/dDataCount;

  00032	f3 0f e6 c0	 cvtdq2pd xmm0, xmm0
  00036	f2 0f 5e c1	 divsd	 xmm0, xmm1
  0003a	f2 0f 11 45 f8	 movsd	 QWORD PTR tv134[ebp], xmm0
  0003f	dd 45 f8	 fld	 QWORD PTR tv134[ebp]

; 285  : }

  00042	8b e5		 mov	 esp, ebp
  00044	5d		 pop	 ebp
  00045	c2 0c 00	 ret	 12			; 0000000cH
?CalRealWidth@CDraw@@IAENABVCRect@@HH@Z ENDP		; CDraw::CalRealWidth
_TEXT	ENDS
; Function compile flags: /Ogtp
; File D:\git\src\IBK\IBK_DRFN\ProjSrc\SrcChartEx\ChartOCX\GraphDraw\Draw.cpp
; File C:\Program Files (x86)\Microsoft Visual Studio\2019\Community\VC\Tools\MSVC\14.29.30133\atlmfc\include\atltypes.h
; File D:\git\src\IBK\IBK_DRFN\ProjSrc\SrcChartEx\ChartOCX\GraphDraw\Draw.cpp
;	COMDAT ?CalRealWidth@CDraw@@IAENABVCRect@@ABVCDisplayAttributes@@@Z
_TEXT	SEGMENT
tv134 = -8						; size = 8
_graphDrawingRegion$ = 8				; size = 4
_displayAttributes$ = 12				; size = 4
?CalRealWidth@CDraw@@IAENABVCRect@@ABVCDisplayAttributes@@@Z PROC ; CDraw::CalRealWidth, COMDAT
; _this$ = ecx

; 272  : {

  00000	55		 push	 ebp
  00001	8b ec		 mov	 ebp, esp

; 273  : 	// (2004.07.19, 배승원) 0으로 나누는 경우를 예외처리한다. (0으로 Return한다.)
; 274  : 	double dDataCount = displayAttributes.GetDataCountInBlock();

  00003	8b 4d 0c	 mov	 ecx, DWORD PTR _displayAttributes$[ebp]
  00006	83 ec 08	 sub	 esp, 8
  00009	e8 00 00 00 00	 call	 ?GetDataCountInBlock@CDisplayAttributes@@QBEHXZ ; CDisplayAttributes::GetDataCountInBlock
  0000e	0f 57 c0	 xorps	 xmm0, xmm0
  00011	66 0f 6e c8	 movd	 xmm1, eax
  00015	f3 0f e6 c9	 cvtdq2pd xmm1, xmm1

; 275  : 	if( dDataCount <= 0) return 0;

  00019	66 0f 2f c1	 comisd	 xmm0, xmm1
  0001d	72 08		 jb	 SHORT $LN2@CalRealWid
  0001f	d9 ee		 fldz

; 277  : }

  00021	8b e5		 mov	 esp, ebp
  00023	5d		 pop	 ebp
  00024	c2 08 00	 ret	 8
$LN2@CalRealWid:
; File C:\Program Files (x86)\Microsoft Visual Studio\2019\Community\VC\Tools\MSVC\14.29.30133\atlmfc\include\atltypes.h

; 576  : 	return right - left;

  00027	8b 45 08	 mov	 eax, DWORD PTR _graphDrawingRegion$[ebp]
  0002a	8b 48 08	 mov	 ecx, DWORD PTR [eax+8]
  0002d	2b 08		 sub	 ecx, DWORD PTR [eax]
  0002f	66 0f 6e c1	 movd	 xmm0, ecx
; File D:\git\src\IBK\IBK_DRFN\ProjSrc\SrcChartEx\ChartOCX\GraphDraw\Draw.cpp

; 276  : 	return (double)graphDrawingRegion.Width()/dDataCount;

  00033	f3 0f e6 c0	 cvtdq2pd xmm0, xmm0
  00037	f2 0f 5e c1	 divsd	 xmm0, xmm1
  0003b	f2 0f 11 45 f8	 movsd	 QWORD PTR tv134[ebp], xmm0
  00040	dd 45 f8	 fld	 QWORD PTR tv134[ebp]

; 277  : }

  00043	8b e5		 mov	 esp, ebp
  00045	5d		 pop	 ebp
  00046	c2 08 00	 ret	 8
?CalRealWidth@CDraw@@IAENABVCRect@@ABVCDisplayAttributes@@@Z ENDP ; CDraw::CalRealWidth
_TEXT	ENDS
; Function compile flags: /Ogtp
; File D:\git\src\IBK\IBK_DRFN\ProjSrc\SrcChartEx\ChartOCX\GraphDraw\Draw.cpp
;	COMDAT ?CalStationaryLineThickness@CDraw@@IAEHABVCPenThickness@@H@Z
_TEXT	SEGMENT
_penThickness$ = 8					; size = 4
_barWidth$ = 12						; size = 4
?CalStationaryLineThickness@CDraw@@IAEHABVCPenThickness@@H@Z PROC ; CDraw::CalStationaryLineThickness, COMDAT
; _this$ = ecx

; 263  : {

  00000	55		 push	 ebp
  00001	8b ec		 mov	 ebp, esp

; 264  : 	int lineThickness = 1;
; 265  : 	
; 266  : 	if(barWidth > penThickness.GetDrawingThickness3() * 2)  

  00003	8b 4d 08	 mov	 ecx, DWORD PTR _penThickness$[ebp]
  00006	ff 15 00 00 00
	00		 call	 DWORD PTR __imp_?GetDrawingThickness3@CPenThickness@@QBEHXZ
  0000c	03 c0		 add	 eax, eax
  0000e	39 45 0c	 cmp	 DWORD PTR _barWidth$[ebp], eax
  00011	7e 0d		 jle	 SHORT $LN4@CalStation

; 267  : 		lineThickness = penThickness.GetDrawingThickness3();

  00013	8b 4d 08	 mov	 ecx, DWORD PTR _penThickness$[ebp]
  00016	ff 15 00 00 00
	00		 call	 DWORD PTR __imp_?GetDrawingThickness3@CPenThickness@@QBEHXZ

; 269  : }

  0001c	5d		 pop	 ebp
  0001d	c2 08 00	 ret	 8
$LN4@CalStation:

; 268  : 	return lineThickness;

  00020	b8 01 00 00 00	 mov	 eax, 1

; 269  : }

  00025	5d		 pop	 ebp
  00026	c2 08 00	 ret	 8
?CalStationaryLineThickness@CDraw@@IAEHABVCPenThickness@@H@Z ENDP ; CDraw::CalStationaryLineThickness
_TEXT	ENDS
; Function compile flags: /Ogtp
; File D:\git\src\IBK\IBK_DRFN\ProjSrc\SrcChartEx\ChartOCX\GraphDraw\Draw.cpp
;	COMDAT ?CalDownLineThickness@CDraw@@IAEHABVCPenThickness@@H@Z
_TEXT	SEGMENT
_penThickness$ = 8					; size = 4
_barWidth$ = 12						; size = 4
?CalDownLineThickness@CDraw@@IAEHABVCPenThickness@@H@Z PROC ; CDraw::CalDownLineThickness, COMDAT
; _this$ = ecx

; 254  : {

  00000	55		 push	 ebp
  00001	8b ec		 mov	 ebp, esp

; 255  : 	int lineThickness = 1;
; 256  : 	
; 257  : 	if(barWidth > penThickness.GetDrawingThickness2() * 2)  

  00003	8b 4d 08	 mov	 ecx, DWORD PTR _penThickness$[ebp]
  00006	ff 15 00 00 00
	00		 call	 DWORD PTR __imp_?GetDrawingThickness2@CPenThickness@@QBEHXZ
  0000c	03 c0		 add	 eax, eax
  0000e	39 45 0c	 cmp	 DWORD PTR _barWidth$[ebp], eax
  00011	7e 0d		 jle	 SHORT $LN4@CalDownLin

; 258  : 		lineThickness = penThickness.GetDrawingThickness2();

  00013	8b 4d 08	 mov	 ecx, DWORD PTR _penThickness$[ebp]
  00016	ff 15 00 00 00
	00		 call	 DWORD PTR __imp_?GetDrawingThickness2@CPenThickness@@QBEHXZ

; 260  : 
; 261  : }

  0001c	5d		 pop	 ebp
  0001d	c2 08 00	 ret	 8
$LN4@CalDownLin:

; 259  : 	return lineThickness;

  00020	b8 01 00 00 00	 mov	 eax, 1

; 260  : 
; 261  : }

  00025	5d		 pop	 ebp
  00026	c2 08 00	 ret	 8
?CalDownLineThickness@CDraw@@IAEHABVCPenThickness@@H@Z ENDP ; CDraw::CalDownLineThickness
_TEXT	ENDS
; Function compile flags: /Ogtp
; File D:\git\src\IBK\IBK_DRFN\ProjSrc\SrcChartEx\ChartOCX\GraphDraw\Draw.cpp
;	COMDAT ?CalUpLineThickness@CDraw@@IAEHABVCPenThickness@@H@Z
_TEXT	SEGMENT
_penThickness$ = 8					; size = 4
_barWidth$ = 12						; size = 4
?CalUpLineThickness@CDraw@@IAEHABVCPenThickness@@H@Z PROC ; CDraw::CalUpLineThickness, COMDAT
; _this$ = ecx

; 247  : {

  00000	55		 push	 ebp
  00001	8b ec		 mov	 ebp, esp

; 248  : 	if(barWidth > penThickness.GetDrawingThickness1() * 2)  

  00003	8b 4d 08	 mov	 ecx, DWORD PTR _penThickness$[ebp]
  00006	ff 15 00 00 00
	00		 call	 DWORD PTR __imp_?GetDrawingThickness1@CPenThickness@@QBEHXZ
  0000c	03 c0		 add	 eax, eax
  0000e	39 45 0c	 cmp	 DWORD PTR _barWidth$[ebp], eax
  00011	7e 0d		 jle	 SHORT $LN2@CalUpLineT

; 249  : 		return penThickness.GetDrawingThickness1();

  00013	8b 4d 08	 mov	 ecx, DWORD PTR _penThickness$[ebp]
  00016	ff 15 00 00 00
	00		 call	 DWORD PTR __imp_?GetDrawingThickness1@CPenThickness@@QBEHXZ

; 251  : }

  0001c	5d		 pop	 ebp
  0001d	c2 08 00	 ret	 8
$LN2@CalUpLineT:

; 250  : 	return 1;

  00020	b8 01 00 00 00	 mov	 eax, 1

; 251  : }

  00025	5d		 pop	 ebp
  00026	c2 08 00	 ret	 8
?CalUpLineThickness@CDraw@@IAEHABVCPenThickness@@H@Z ENDP ; CDraw::CalUpLineThickness
_TEXT	ENDS
; Function compile flags: /Ogtp
; File D:\git\src\IBK\IBK_DRFN\ProjSrc\SrcChartEx\ChartOCX\GraphDraw\Draw.cpp
; File C:\Program Files (x86)\Microsoft Visual Studio\2019\Community\VC\Tools\MSVC\14.29.30133\atlmfc\include\atlsimpstr.h
; File C:\Program Files (x86)\Microsoft Visual Studio\2019\Community\VC\Tools\MSVC\14.29.30133\atlmfc\include\afxwin1.inl
; File D:\git\src\IBK\IBK_DRFN\ProjSrc\SrcChartEx\ChartOCX\GraphDraw\Draw.cpp
; File C:\Program Files (x86)\Microsoft Visual Studio\2019\Community\VC\Tools\MSVC\14.29.30133\atlmfc\include\afxtempl.h
; File D:\git\src\IBK\IBK_DRFN\ProjSrc\SrcChartEx\ChartOCX\GraphDraw\Draw.cpp
; File C:\Program Files (x86)\Microsoft Visual Studio\2019\Community\VC\Tools\MSVC\14.29.30133\atlmfc\include\afxtempl.h
; File D:\git\src\IBK\IBK_DRFN\ProjSrc\SrcChartEx\ChartOCX\GraphDraw\Draw.cpp
; File C:\Program Files (x86)\Microsoft Visual Studio\2019\Community\VC\Tools\MSVC\14.29.30133\atlmfc\include\atlsimpstr.h
; File C:\Program Files (x86)\Microsoft Visual Studio\2019\Community\VC\Tools\MSVC\14.29.30133\atlmfc\include\afxwin1.inl
; File D:\git\src\IBK\IBK_DRFN\ProjSrc\SrcChartEx\ChartOCX\GraphDraw\Draw.cpp
; File C:\Program Files (x86)\Microsoft Visual Studio\2019\Community\VC\Tools\MSVC\14.29.30133\atlmfc\include\afxwin1.inl
; File D:\git\src\IBK\IBK_DRFN\ProjSrc\SrcChartEx\ChartOCX\GraphDraw\Draw.cpp
;	COMDAT ?TextOut_MultiLine@CDraw@@IAEXPAVCDC@@ABVCPoint@@HABV?$CList@V?$CStringT@DV?$StrTraitMFC_DLL@DV?$ChTraitsCRT@D@ATL@@@@@ATL@@V12@@@ABKH@Z
_TEXT	SEGMENT
_size$2 = -20						; size = 8
__$EHRec$ = -12						; size = 12
_nOldBkMode$1$ = 8					; size = 4
_pDC$ = 8						; size = 4
_textStartPt$ = 12					; size = 4
_nLineGap$ = 16						; size = 4
$T3 = 20						; size = 4
_strTextList$ = 20					; size = 4
_oldTextColor$1$ = 24					; size = 4
_textColor$ = 24					; size = 4
_strText$4 = 28						; size = 4
_nBkMode$ = 28						; size = 4
?TextOut_MultiLine@CDraw@@IAEXPAVCDC@@ABVCPoint@@HABV?$CList@V?$CStringT@DV?$StrTraitMFC_DLL@DV?$ChTraitsCRT@D@ATL@@@@@ATL@@V12@@@ABKH@Z PROC ; CDraw::TextOut_MultiLine, COMDAT
; _this$ = ecx

; 226  : {

  00000	55		 push	 ebp
  00001	8b ec		 mov	 ebp, esp
  00003	6a ff		 push	 -1
  00005	68 00 00 00 00	 push	 __ehhandler$?TextOut_MultiLine@CDraw@@IAEXPAVCDC@@ABVCPoint@@HABV?$CList@V?$CStringT@DV?$StrTraitMFC_DLL@DV?$ChTraitsCRT@D@ATL@@@@@ATL@@V12@@@ABKH@Z
  0000a	64 a1 00 00 00
	00		 mov	 eax, DWORD PTR fs:0
  00010	50		 push	 eax
  00011	83 ec 08	 sub	 esp, 8
  00014	53		 push	 ebx
  00015	56		 push	 esi
  00016	57		 push	 edi
  00017	a1 00 00 00 00	 mov	 eax, DWORD PTR ___security_cookie
  0001c	33 c5		 xor	 eax, ebp
  0001e	50		 push	 eax
  0001f	8d 45 f4	 lea	 eax, DWORD PTR __$EHRec$[ebp]
  00022	64 a3 00 00 00
	00		 mov	 DWORD PTR fs:0, eax

; 227  : 	if(strTextList.GetCount() <= 0)

  00028	8b 7d 14	 mov	 edi, DWORD PTR _strTextList$[ebp]
  0002b	83 7f 0c 00	 cmp	 DWORD PTR [edi+12], 0
  0002f	0f 8e b7 00 00
	00		 jle	 $LN1@TextOut_Mu

; 228  : 		return;
; 229  : 
; 230  : 	int nOldBkMode = pDC->SetBkMode(nBkMode);

  00035	ff 75 1c	 push	 DWORD PTR _nBkMode$[ebp]
  00038	8b 75 08	 mov	 esi, DWORD PTR _pDC$[ebp]
  0003b	8b ce		 mov	 ecx, esi
  0003d	e8 00 00 00 00	 call	 ?SetBkMode@CDC@@QAEHH@Z	; CDC::SetBkMode

; 231  : 	COLORREF oldTextColor = pDC->SetTextColor(textColor);

  00042	8b 4d 18	 mov	 ecx, DWORD PTR _textColor$[ebp]
  00045	8b 16		 mov	 edx, DWORD PTR [esi]
  00047	89 45 08	 mov	 DWORD PTR _nOldBkMode$1$[ebp], eax
  0004a	ff 31		 push	 DWORD PTR [ecx]
  0004c	8b ce		 mov	 ecx, esi
  0004e	ff 52 38	 call	 DWORD PTR [edx+56]

; 233  : 	int nTextHeight = pDC->GetTextExtent("0").cy;

  00051	68 00 00 00 00	 push	 OFFSET ??_C@_01GBGANLPD@0@
  00056	8d 4d 14	 lea	 ecx, DWORD PTR $T3[ebp]
  00059	89 45 18	 mov	 DWORD PTR _oldTextColor$1$[ebp], eax
  0005c	ff 15 00 00 00
	00		 call	 DWORD PTR __imp_??0?$CStringT@DV?$StrTraitMFC_DLL@DV?$ChTraitsCRT@D@ATL@@@@@ATL@@QAE@PBD@Z
; File C:\Program Files (x86)\Microsoft Visual Studio\2019\Community\VC\Tools\MSVC\14.29.30133\atlmfc\include\atlsimpstr.h

; 519  : 		return( GetData()->nDataLength );

  00062	8b 4d 14	 mov	 ecx, DWORD PTR $T3[ebp]
; File C:\Program Files (x86)\Microsoft Visual Studio\2019\Community\VC\Tools\MSVC\14.29.30133\atlmfc\include\afxwin1.inl

; 639  : 		VERIFY(::GetTextExtentPoint32(m_hAttribDC, str, (int)str.GetLength(), &size));

  00065	8d 45 ec	 lea	 eax, DWORD PTR _size$2[ebp]
  00068	50		 push	 eax
  00069	ff 71 f4	 push	 DWORD PTR [ecx-12]
  0006c	51		 push	 ecx
  0006d	ff 76 08	 push	 DWORD PTR [esi+8]
  00070	ff 15 00 00 00
	00		 call	 DWORD PTR __imp__GetTextExtentPoint32A@16
; File D:\git\src\IBK\IBK_DRFN\ProjSrc\SrcChartEx\ChartOCX\GraphDraw\Draw.cpp

; 233  : 	int nTextHeight = pDC->GetTextExtent("0").cy;

  00076	8d 4d 14	 lea	 ecx, DWORD PTR $T3[ebp]
  00079	ff 15 00 00 00
	00		 call	 DWORD PTR __imp_??1?$CStringT@DV?$StrTraitMFC_DLL@DV?$ChTraitsCRT@D@ATL@@@@@ATL@@QAE@XZ

; 234  : 	int nPrevTextStart_y = textStartPt.y;

  0007f	8b 5d 0c	 mov	 ebx, DWORD PTR _textStartPt$[ebp]

; 235  : 	POSITION pos = strTextList.GetHeadPosition();

  00082	8b 7f 04	 mov	 edi, DWORD PTR [edi+4]
  00085	8b 5b 04	 mov	 ebx, DWORD PTR [ebx+4]

; 236  : 	while(pos != NULL){

  00088	85 ff		 test	 edi, edi
  0008a	74 4c		 je	 SHORT $LN3@TextOut_Mu
  0008c	0f 1f 40 00	 npad	 4
$LL2@TextOut_Mu:
; File C:\Program Files (x86)\Microsoft Visual Studio\2019\Community\VC\Tools\MSVC\14.29.30133\atlmfc\include\afxtempl.h

; 817  : 	{ CNode* pNode = (CNode*) rPosition;

  00090	8b c7		 mov	 eax, edi
; File D:\git\src\IBK\IBK_DRFN\ProjSrc\SrcChartEx\ChartOCX\GraphDraw\Draw.cpp

; 237  : 		CString strText = strTextList.GetNext(pos);

  00092	8d 4d 1c	 lea	 ecx, DWORD PTR _strText$4[ebp]
; File C:\Program Files (x86)\Microsoft Visual Studio\2019\Community\VC\Tools\MSVC\14.29.30133\atlmfc\include\afxtempl.h

; 819  : 		rPosition = (POSITION) pNode->pNext;

  00095	8b 3f		 mov	 edi, DWORD PTR [edi]

; 820  : 		return pNode->data; }

  00097	83 c0 08	 add	 eax, 8
; File D:\git\src\IBK\IBK_DRFN\ProjSrc\SrcChartEx\ChartOCX\GraphDraw\Draw.cpp

; 237  : 		CString strText = strTextList.GetNext(pos);

  0009a	50		 push	 eax
  0009b	ff 15 00 00 00
	00		 call	 DWORD PTR __imp_??0?$CStringT@DV?$StrTraitMFC_DLL@DV?$ChTraitsCRT@D@ATL@@@@@ATL@@QAE@ABV01@@Z
; File C:\Program Files (x86)\Microsoft Visual Studio\2019\Community\VC\Tools\MSVC\14.29.30133\atlmfc\include\atlsimpstr.h

; 519  : 		return( GetData()->nDataLength );

  000a1	8b 45 1c	 mov	 eax, DWORD PTR _strText$4[ebp]
; File C:\Program Files (x86)\Microsoft Visual Studio\2019\Community\VC\Tools\MSVC\14.29.30133\atlmfc\include\afxwin1.inl

; 574  : 	{ ASSERT(m_hDC != NULL); return TextOut(x, y, (LPCTSTR)str, (int)str.GetLength()); } // call virtual

  000a4	8b ce		 mov	 ecx, esi
  000a6	8b 16		 mov	 edx, DWORD PTR [esi]
; File D:\git\src\IBK\IBK_DRFN\ProjSrc\SrcChartEx\ChartOCX\GraphDraw\Draw.cpp

; 237  : 		CString strText = strTextList.GetNext(pos);

  000a8	c7 45 fc 00 00
	00 00		 mov	 DWORD PTR __$EHRec$[ebp+8], 0
; File C:\Program Files (x86)\Microsoft Visual Studio\2019\Community\VC\Tools\MSVC\14.29.30133\atlmfc\include\afxwin1.inl

; 574  : 	{ ASSERT(m_hDC != NULL); return TextOut(x, y, (LPCTSTR)str, (int)str.GetLength()); } // call virtual

  000af	ff 70 f4	 push	 DWORD PTR [eax-12]
  000b2	50		 push	 eax
  000b3	8b 45 0c	 mov	 eax, DWORD PTR _textStartPt$[ebp]
  000b6	53		 push	 ebx
  000b7	ff 30		 push	 DWORD PTR [eax]
  000b9	ff 52 64	 call	 DWORD PTR [edx+100]
; File D:\git\src\IBK\IBK_DRFN\ProjSrc\SrcChartEx\ChartOCX\GraphDraw\Draw.cpp

; 239  : 		nPrevTextStart_y += (nTextHeight + nLineGap);

  000bc	8b 45 f0	 mov	 eax, DWORD PTR _size$2[ebp+4]

; 240  : 	}

  000bf	8d 4d 1c	 lea	 ecx, DWORD PTR _strText$4[ebp]
  000c2	03 45 10	 add	 eax, DWORD PTR _nLineGap$[ebp]
  000c5	03 d8		 add	 ebx, eax
  000c7	c7 45 fc ff ff
	ff ff		 mov	 DWORD PTR __$EHRec$[ebp+8], -1
  000ce	ff 15 00 00 00
	00		 call	 DWORD PTR __imp_??1?$CStringT@DV?$StrTraitMFC_DLL@DV?$ChTraitsCRT@D@ATL@@@@@ATL@@QAE@XZ
  000d4	85 ff		 test	 edi, edi
  000d6	75 b8		 jne	 SHORT $LL2@TextOut_Mu
$LN3@TextOut_Mu:

; 241  : 
; 242  : 	pDC->SetBkMode(nOldBkMode);

  000d8	ff 75 08	 push	 DWORD PTR _nOldBkMode$1$[ebp]
  000db	8b ce		 mov	 ecx, esi
  000dd	e8 00 00 00 00	 call	 ?SetBkMode@CDC@@QAEHH@Z	; CDC::SetBkMode

; 243  : 	pDC->SetTextColor(oldTextColor);

  000e2	8b 06		 mov	 eax, DWORD PTR [esi]
  000e4	8b ce		 mov	 ecx, esi
  000e6	ff 75 18	 push	 DWORD PTR _oldTextColor$1$[ebp]
  000e9	ff 50 38	 call	 DWORD PTR [eax+56]
$LN1@TextOut_Mu:

; 244  : }

  000ec	8b 4d f4	 mov	 ecx, DWORD PTR __$EHRec$[ebp]
  000ef	64 89 0d 00 00
	00 00		 mov	 DWORD PTR fs:0, ecx
  000f6	59		 pop	 ecx
  000f7	5f		 pop	 edi
  000f8	5e		 pop	 esi
  000f9	5b		 pop	 ebx
  000fa	8b e5		 mov	 esp, ebp
  000fc	5d		 pop	 ebp
  000fd	c2 18 00	 ret	 24			; 00000018H
_TEXT	ENDS
;	COMDAT text$x
text$x	SEGMENT
__unwindfunclet$?TextOut_MultiLine@CDraw@@IAEXPAVCDC@@ABVCPoint@@HABV?$CList@V?$CStringT@DV?$StrTraitMFC_DLL@DV?$ChTraitsCRT@D@ATL@@@@@ATL@@V12@@@ABKH@Z$1:
  00000	8d 4d 1c	 lea	 ecx, DWORD PTR _strText$4[ebp]
  00003	ff 25 00 00 00
	00		 jmp	 DWORD PTR __imp_??1?$CStringT@DV?$StrTraitMFC_DLL@DV?$ChTraitsCRT@D@ATL@@@@@ATL@@QAE@XZ
  00009	cc		 int	 3
  0000a	cc		 int	 3
  0000b	cc		 int	 3
  0000c	cc		 int	 3
  0000d	cc		 int	 3
__ehhandler$?TextOut_MultiLine@CDraw@@IAEXPAVCDC@@ABVCPoint@@HABV?$CList@V?$CStringT@DV?$StrTraitMFC_DLL@DV?$ChTraitsCRT@D@ATL@@@@@ATL@@V12@@@ABKH@Z:
  0000e	90		 npad	 1
  0000f	90		 npad	 1
  00010	8b 54 24 08	 mov	 edx, DWORD PTR [esp+8]
  00014	8d 42 0c	 lea	 eax, DWORD PTR [edx+12]
  00017	8b 4a e8	 mov	 ecx, DWORD PTR [edx-24]
  0001a	33 c8		 xor	 ecx, eax
  0001c	e8 00 00 00 00	 call	 @__security_check_cookie@4
  00021	b8 00 00 00 00	 mov	 eax, OFFSET __ehfuncinfo$?TextOut_MultiLine@CDraw@@IAEXPAVCDC@@ABVCPoint@@HABV?$CList@V?$CStringT@DV?$StrTraitMFC_DLL@DV?$ChTraitsCRT@D@ATL@@@@@ATL@@V12@@@ABKH@Z
  00026	e9 00 00 00 00	 jmp	 ___CxxFrameHandler3
text$x	ENDS
?TextOut_MultiLine@CDraw@@IAEXPAVCDC@@ABVCPoint@@HABV?$CList@V?$CStringT@DV?$StrTraitMFC_DLL@DV?$ChTraitsCRT@D@ATL@@@@@ATL@@V12@@@ABKH@Z ENDP ; CDraw::TextOut_MultiLine
; Function compile flags: /Ogtp
; File D:\git\src\IBK\IBK_DRFN\ProjSrc\SrcChartEx\ChartOCX\GraphDraw\Draw.cpp
; File C:\Program Files (x86)\Microsoft Visual Studio\2019\Community\VC\Tools\MSVC\14.29.30133\atlmfc\include\atlsimpstr.h
; File D:\git\src\IBK\IBK_DRFN\ProjSrc\SrcChartEx\ChartOCX\GraphDraw\Draw.cpp
; File C:\Program Files (x86)\Microsoft Visual Studio\2019\Community\VC\Tools\MSVC\14.29.30133\atlmfc\include\afxwin1.inl
; File D:\git\src\IBK\IBK_DRFN\ProjSrc\SrcChartEx\ChartOCX\GraphDraw\Draw.cpp
; File C:\Program Files (x86)\Microsoft Visual Studio\2019\Community\VC\Tools\MSVC\14.29.30133\atlmfc\include\atlsimpstr.h
; File C:\Program Files (x86)\Microsoft Visual Studio\2019\Community\VC\Tools\MSVC\14.29.30133\atlmfc\include\afxwin1.inl
; File C:\Program Files (x86)\Microsoft Visual Studio\2019\Community\VC\Tools\MSVC\14.29.30133\atlmfc\include\atlsimpstr.h
; File C:\Program Files (x86)\Microsoft Visual Studio\2019\Community\VC\Tools\MSVC\14.29.30133\atlmfc\include\afxwin1.inl
; File D:\git\src\IBK\IBK_DRFN\ProjSrc\SrcChartEx\ChartOCX\GraphDraw\Draw.cpp
;	COMDAT ?TextOutA@CDraw@@IAEXPAVCDC@@ABVCPoint@@ABV?$CStringT@DV?$StrTraitMFC_DLL@DV?$ChTraitsCRT@D@ATL@@@@@ATL@@ABKH@Z
_TEXT	SEGMENT
_pDC$ = 8						; size = 4
_point$ = 12						; size = 4
_strText$ = 16						; size = 4
_textColor$ = 20					; size = 4
_nBkMode$ = 24						; size = 4
?TextOutA@CDraw@@IAEXPAVCDC@@ABVCPoint@@ABV?$CStringT@DV?$StrTraitMFC_DLL@DV?$ChTraitsCRT@D@ATL@@@@@ATL@@ABKH@Z PROC ; CDraw::TextOutA, COMDAT
; _this$ = ecx

; 211  : {

  00000	55		 push	 ebp
  00001	8b ec		 mov	 ebp, esp
; File C:\Program Files (x86)\Microsoft Visual Studio\2019\Community\VC\Tools\MSVC\14.29.30133\atlmfc\include\atlsimpstr.h

; 533  : 		return( GetLength() == 0 );

  00003	8b 45 10	 mov	 eax, DWORD PTR _strText$[ebp]
  00006	8b 00		 mov	 eax, DWORD PTR [eax]
  00008	83 78 f4 00	 cmp	 DWORD PTR [eax-12], 0
; File D:\git\src\IBK\IBK_DRFN\ProjSrc\SrcChartEx\ChartOCX\GraphDraw\Draw.cpp

; 212  : 	if(strText.IsEmpty())

  0000c	74 4f		 je	 SHORT $LN1@TextOutA

; 213  : 		return;
; 214  : 
; 215  : 	int nOldBkMode = pDC->SetBkMode(nBkMode);

  0000e	53		 push	 ebx
  0000f	56		 push	 esi
  00010	8b 75 08	 mov	 esi, DWORD PTR _pDC$[ebp]
  00013	8b ce		 mov	 ecx, esi
  00015	57		 push	 edi
  00016	ff 75 18	 push	 DWORD PTR _nBkMode$[ebp]
  00019	e8 00 00 00 00	 call	 ?SetBkMode@CDC@@QAEHH@Z	; CDC::SetBkMode

; 216  : 	COLORREF oldTextColor = pDC->SetTextColor(textColor);

  0001e	8b 4d 14	 mov	 ecx, DWORD PTR _textColor$[ebp]
  00021	8b d8		 mov	 ebx, eax
  00023	8b 16		 mov	 edx, DWORD PTR [esi]
  00025	ff 31		 push	 DWORD PTR [ecx]
  00027	8b ce		 mov	 ecx, esi
  00029	ff 52 38	 call	 DWORD PTR [edx+56]
; File C:\Program Files (x86)\Microsoft Visual Studio\2019\Community\VC\Tools\MSVC\14.29.30133\atlmfc\include\afxwin1.inl

; 574  : 	{ ASSERT(m_hDC != NULL); return TextOut(x, y, (LPCTSTR)str, (int)str.GetLength()); } // call virtual

  0002c	8b 55 0c	 mov	 edx, DWORD PTR _point$[ebp]
; File D:\git\src\IBK\IBK_DRFN\ProjSrc\SrcChartEx\ChartOCX\GraphDraw\Draw.cpp

; 216  : 	COLORREF oldTextColor = pDC->SetTextColor(textColor);

  0002f	8b f8		 mov	 edi, eax
; File C:\Program Files (x86)\Microsoft Visual Studio\2019\Community\VC\Tools\MSVC\14.29.30133\atlmfc\include\atlsimpstr.h

; 519  : 		return( GetData()->nDataLength );

  00031	8b 45 10	 mov	 eax, DWORD PTR _strText$[ebp]
; File C:\Program Files (x86)\Microsoft Visual Studio\2019\Community\VC\Tools\MSVC\14.29.30133\atlmfc\include\afxwin1.inl

; 574  : 	{ ASSERT(m_hDC != NULL); return TextOut(x, y, (LPCTSTR)str, (int)str.GetLength()); } // call virtual

  00034	8b 36		 mov	 esi, DWORD PTR [esi]
; File C:\Program Files (x86)\Microsoft Visual Studio\2019\Community\VC\Tools\MSVC\14.29.30133\atlmfc\include\atlsimpstr.h

; 519  : 		return( GetData()->nDataLength );

  00036	8b 08		 mov	 ecx, DWORD PTR [eax]
; File C:\Program Files (x86)\Microsoft Visual Studio\2019\Community\VC\Tools\MSVC\14.29.30133\atlmfc\include\afxwin1.inl

; 574  : 	{ ASSERT(m_hDC != NULL); return TextOut(x, y, (LPCTSTR)str, (int)str.GetLength()); } // call virtual

  00038	ff 71 f4	 push	 DWORD PTR [ecx-12]
  0003b	51		 push	 ecx
  0003c	ff 72 04	 push	 DWORD PTR [edx+4]
  0003f	8b 4d 08	 mov	 ecx, DWORD PTR _pDC$[ebp]
  00042	ff 32		 push	 DWORD PTR [edx]
  00044	ff 56 64	 call	 DWORD PTR [esi+100]
; File D:\git\src\IBK\IBK_DRFN\ProjSrc\SrcChartEx\ChartOCX\GraphDraw\Draw.cpp

; 220  : 	pDC->SetBkMode(nOldBkMode);

  00047	53		 push	 ebx
  00048	8b 5d 08	 mov	 ebx, DWORD PTR _pDC$[ebp]
  0004b	8b cb		 mov	 ecx, ebx
  0004d	e8 00 00 00 00	 call	 ?SetBkMode@CDC@@QAEHH@Z	; CDC::SetBkMode

; 221  : 	pDC->SetTextColor(oldTextColor);

  00052	8b 03		 mov	 eax, DWORD PTR [ebx]
  00054	8b cb		 mov	 ecx, ebx
  00056	57		 push	 edi
  00057	ff 50 38	 call	 DWORD PTR [eax+56]
  0005a	5f		 pop	 edi
  0005b	5e		 pop	 esi
  0005c	5b		 pop	 ebx
$LN1@TextOutA:

; 222  : }

  0005d	5d		 pop	 ebp
  0005e	c2 14 00	 ret	 20			; 00000014H
?TextOutA@CDraw@@IAEXPAVCDC@@ABVCPoint@@ABV?$CStringT@DV?$StrTraitMFC_DLL@DV?$ChTraitsCRT@D@ATL@@@@@ATL@@ABKH@Z ENDP ; CDraw::TextOutA
_TEXT	ENDS
; Function compile flags: /Ogtp
; File D:\git\src\IBK\IBK_DRFN\ProjSrc\SrcChartEx\ChartOCX\GraphDraw\Draw.cpp
; File C:\Program Files (x86)\Microsoft Visual Studio\2019\Community\VC\Tools\MSVC\14.29.30133\atlmfc\include\atlsimpstr.h
; File D:\git\src\IBK\IBK_DRFN\ProjSrc\SrcChartEx\ChartOCX\GraphDraw\Draw.cpp
; File C:\Program Files (x86)\Microsoft Visual Studio\2019\Community\VC\Tools\MSVC\14.29.30133\atlmfc\include\afxwin1.inl
; File D:\git\src\IBK\IBK_DRFN\ProjSrc\SrcChartEx\ChartOCX\GraphDraw\Draw.cpp
; File C:\Program Files (x86)\Microsoft Visual Studio\2019\Community\VC\Tools\MSVC\14.29.30133\atlmfc\include\atltypes.h
; File D:\git\src\IBK\IBK_DRFN\ProjSrc\SrcChartEx\ChartOCX\GraphDraw\Draw.cpp
; File C:\Program Files (x86)\Microsoft Visual Studio\2019\Community\VC\Tools\MSVC\14.29.30133\atlmfc\include\atltypes.h
; File D:\git\src\IBK\IBK_DRFN\ProjSrc\SrcChartEx\ChartOCX\GraphDraw\Draw.cpp
; File C:\Program Files (x86)\Microsoft Visual Studio\2019\Community\VC\Tools\MSVC\14.29.30133\atlmfc\include\atltypes.h
; File D:\git\src\IBK\IBK_DRFN\ProjSrc\SrcChartEx\ChartOCX\GraphDraw\Draw.cpp
; File C:\Program Files (x86)\Microsoft Visual Studio\2019\Community\VC\Tools\MSVC\14.29.30133\atlmfc\include\atltypes.h
; File D:\git\src\IBK\IBK_DRFN\ProjSrc\SrcChartEx\ChartOCX\GraphDraw\Draw.cpp
; File C:\Program Files (x86)\Microsoft Visual Studio\2019\Community\VC\Tools\MSVC\14.29.30133\atlmfc\include\afxwin1.inl
; File D:\git\src\IBK\IBK_DRFN\ProjSrc\SrcChartEx\ChartOCX\GraphDraw\Draw.cpp
; File C:\Program Files (x86)\Microsoft Visual Studio\2019\Community\VC\Tools\MSVC\14.29.30133\atlmfc\include\afxwin1.inl
; File D:\git\src\IBK\IBK_DRFN\ProjSrc\SrcChartEx\ChartOCX\GraphDraw\Draw.cpp
;	COMDAT ?TextOutA@CDraw@@IAEXPAVCDC@@VCRect@@ABV?$CStringT@DV?$StrTraitMFC_DLL@DV?$ChTraitsCRT@D@ATL@@@@@ATL@@_N33@Z
_TEXT	SEGMENT
_size$1 = -8						; size = 8
_pDC$ = 8						; size = 4
_textRegion$ = 12					; size = 16
_strText$ = 28						; size = 4
_bIsFullText$ = 32					; size = 1
_bIsVertCenter$ = 36					; size = 1
_bIsHorzCenter$ = 40					; size = 1
?TextOutA@CDraw@@IAEXPAVCDC@@VCRect@@ABV?$CStringT@DV?$StrTraitMFC_DLL@DV?$ChTraitsCRT@D@ATL@@@@@ATL@@_N33@Z PROC ; CDraw::TextOutA, COMDAT
; _this$ = ecx

; 175  : {

  00000	55		 push	 ebp
  00001	8b ec		 mov	 ebp, esp
  00003	83 ec 08	 sub	 esp, 8
  00006	53		 push	 ebx
  00007	8b 5d 1c	 mov	 ebx, DWORD PTR _strText$[ebp]
  0000a	57		 push	 edi
  0000b	8b 7d 08	 mov	 edi, DWORD PTR _pDC$[ebp]
; File C:\Program Files (x86)\Microsoft Visual Studio\2019\Community\VC\Tools\MSVC\14.29.30133\atlmfc\include\atlsimpstr.h

; 519  : 		return( GetData()->nDataLength );

  0000e	8b 03		 mov	 eax, DWORD PTR [ebx]

; 533  : 		return( GetLength() == 0 );

  00010	8b 48 f4	 mov	 ecx, DWORD PTR [eax-12]
  00013	85 c9		 test	 ecx, ecx
; File D:\git\src\IBK\IBK_DRFN\ProjSrc\SrcChartEx\ChartOCX\GraphDraw\Draw.cpp

; 176  : 	if(strText.IsEmpty())

  00015	0f 84 b2 00 00
	00		 je	 $LN11@TextOutA
; File C:\Program Files (x86)\Microsoft Visual Studio\2019\Community\VC\Tools\MSVC\14.29.30133\atlmfc\include\afxwin1.inl

; 639  : 		VERIFY(::GetTextExtentPoint32(m_hAttribDC, str, (int)str.GetLength(), &size));

  0001b	56		 push	 esi
  0001c	8d 55 f8	 lea	 edx, DWORD PTR _size$1[ebp]
  0001f	52		 push	 edx
  00020	51		 push	 ecx
  00021	50		 push	 eax
  00022	ff 77 08	 push	 DWORD PTR [edi+8]
  00025	ff 15 00 00 00
	00		 call	 DWORD PTR __imp__GetTextExtentPoint32A@16
; File D:\git\src\IBK\IBK_DRFN\ProjSrc\SrcChartEx\ChartOCX\GraphDraw\Draw.cpp

; 180  : 	if(bIsFullText)

  0002b	80 7d 20 00	 cmp	 BYTE PTR _bIsFullText$[ebp], 0
  0002f	74 2c		 je	 SHORT $LN5@TextOutA
; File C:\Program Files (x86)\Microsoft Visual Studio\2019\Community\VC\Tools\MSVC\14.29.30133\atlmfc\include\atltypes.h

; 576  : 	return right - left;

  00031	8b 55 14	 mov	 edx, DWORD PTR _textRegion$[ebp+8]
  00034	8b ca		 mov	 ecx, edx
  00036	8b 75 0c	 mov	 esi, DWORD PTR _textRegion$[ebp]
  00039	2b ce		 sub	 ecx, esi
; File D:\git\src\IBK\IBK_DRFN\ProjSrc\SrcChartEx\ChartOCX\GraphDraw\Draw.cpp

; 182  : 		if(textRegion.Width() < size.cx)

  0003b	8b 45 f8	 mov	 eax, DWORD PTR _size$1[ebp]
  0003e	3b c8		 cmp	 ecx, eax
  00040	7d 1b		 jge	 SHORT $LN5@TextOutA

; 183  : 		{
; 184  : 			int nOffset_x = (size.cx - textRegion.Width())/2 + 1;

  00042	2b c2		 sub	 eax, edx
  00044	03 c6		 add	 eax, esi
  00046	99		 cdq
  00047	2b c2		 sub	 eax, edx
  00049	d1 f8		 sar	 eax, 1
  0004b	40		 inc	 eax

; 185  : 			if(nOffset_x > 0)

  0004c	85 c0		 test	 eax, eax
  0004e	7e 0d		 jle	 SHORT $LN5@TextOutA
; File C:\Program Files (x86)\Microsoft Visual Studio\2019\Community\VC\Tools\MSVC\14.29.30133\atlmfc\include\atltypes.h

; 686  : 	::InflateRect(this, x, y);

  00050	6a 00		 push	 0
  00052	50		 push	 eax
  00053	8d 45 0c	 lea	 eax, DWORD PTR _textRegion$[ebp]
  00056	50		 push	 eax
  00057	ff 15 00 00 00
	00		 call	 DWORD PTR __imp__InflateRect@12
$LN5@TextOutA:
; File D:\git\src\IBK\IBK_DRFN\ProjSrc\SrcChartEx\ChartOCX\GraphDraw\Draw.cpp

; 190  : 	if(bIsVertCenter)

  0005d	80 7d 24 00	 cmp	 BYTE PTR _bIsVertCenter$[ebp], 0
  00061	74 3b		 je	 SHORT $LN9@TextOutA
; File C:\Program Files (x86)\Microsoft Visual Studio\2019\Community\VC\Tools\MSVC\14.29.30133\atlmfc\include\atltypes.h

; 581  : 	return bottom - top;

  00063	8b 45 18	 mov	 eax, DWORD PTR _textRegion$[ebp+12]
  00066	2b 45 10	 sub	 eax, DWORD PTR _textRegion$[ebp+4]
; File D:\git\src\IBK\IBK_DRFN\ProjSrc\SrcChartEx\ChartOCX\GraphDraw\Draw.cpp

; 192  : 		if(textRegion.Height() > size.cy)

  00069	8b 4d fc	 mov	 ecx, DWORD PTR _size$1[ebp+4]
  0006c	3b c1		 cmp	 eax, ecx
  0006e	7e 2e		 jle	 SHORT $LN9@TextOutA

; 193  : 		{
; 194  : 			int nOffset_y = (textRegion.Height() - size.cy)/2;

  00070	2b c1		 sub	 eax, ecx

; 195  : 			// ',' 은 1픽셀을 더 소요한다.
; 196  : 			if(strText.Find(',') < 0)

  00072	8b cb		 mov	 ecx, ebx
  00074	99		 cdq
  00075	2b c2		 sub	 eax, edx
  00077	6a 00		 push	 0
  00079	8b f0		 mov	 esi, eax
  0007b	6a 2c		 push	 44			; 0000002cH
  0007d	d1 fe		 sar	 esi, 1
  0007f	ff 15 00 00 00
	00		 call	 DWORD PTR __imp_?Find@?$CStringT@DV?$StrTraitMFC_DLL@DV?$ChTraitsCRT@D@ATL@@@@@ATL@@QBEHDH@Z
  00085	85 c0		 test	 eax, eax
  00087	79 01		 jns	 SHORT $LN8@TextOutA

; 197  : 				nOffset_y += 1;

  00089	46		 inc	 esi
$LN8@TextOutA:

; 198  : 
; 199  : 			if(nOffset_y > 1)

  0008a	83 fe 01	 cmp	 esi, 1
  0008d	7e 0f		 jle	 SHORT $LN9@TextOutA
; File C:\Program Files (x86)\Microsoft Visual Studio\2019\Community\VC\Tools\MSVC\14.29.30133\atlmfc\include\atltypes.h

; 698  : 	::InflateRect(this, -x, -y);

  0008f	f7 de		 neg	 esi
  00091	8d 45 0c	 lea	 eax, DWORD PTR _textRegion$[ebp]
  00094	56		 push	 esi
  00095	6a 00		 push	 0
  00097	50		 push	 eax
  00098	ff 15 00 00 00
	00		 call	 DWORD PTR __imp__InflateRect@12
$LN9@TextOutA:
; File D:\git\src\IBK\IBK_DRFN\ProjSrc\SrcChartEx\ChartOCX\GraphDraw\Draw.cpp

; 204  : 	if(bIsHorzCenter)

  0009e	80 7d 28 00	 cmp	 BYTE PTR _bIsHorzCenter$[ebp], 0
  000a2	8d 75 0c	 lea	 esi, DWORD PTR _textRegion$[ebp]
  000a5	8b 0b		 mov	 ecx, DWORD PTR [ebx]
  000a7	8b 07		 mov	 eax, DWORD PTR [edi]
  000a9	8b 51 f4	 mov	 edx, DWORD PTR [ecx-12]
  000ac	8b 40 70	 mov	 eax, DWORD PTR [eax+112]
  000af	74 12		 je	 SHORT $LN10@TextOutA
; File C:\Program Files (x86)\Microsoft Visual Studio\2019\Community\VC\Tools\MSVC\14.29.30133\atlmfc\include\afxwin1.inl

; 600  : 		return _AFX_FUNCNAME(DrawText)((LPCTSTR)str, (int)str.GetLength(), lpRect, nFormat); }

  000b1	6a 05		 push	 5
  000b3	56		 push	 esi
  000b4	52		 push	 edx
  000b5	51		 push	 ecx
  000b6	8b cf		 mov	 ecx, edi
  000b8	ff d0		 call	 eax
  000ba	5e		 pop	 esi
  000bb	5f		 pop	 edi
; File D:\git\src\IBK\IBK_DRFN\ProjSrc\SrcChartEx\ChartOCX\GraphDraw\Draw.cpp

; 208  : }

  000bc	5b		 pop	 ebx
  000bd	8b e5		 mov	 esp, ebp
  000bf	5d		 pop	 ebp
  000c0	c2 24 00	 ret	 36			; 00000024H
$LN10@TextOutA:
; File C:\Program Files (x86)\Microsoft Visual Studio\2019\Community\VC\Tools\MSVC\14.29.30133\atlmfc\include\afxwin1.inl

; 600  : 		return _AFX_FUNCNAME(DrawText)((LPCTSTR)str, (int)str.GetLength(), lpRect, nFormat); }

  000c3	6a 04		 push	 4
  000c5	56		 push	 esi
  000c6	52		 push	 edx
  000c7	51		 push	 ecx
  000c8	8b cf		 mov	 ecx, edi
  000ca	ff d0		 call	 eax
  000cc	5e		 pop	 esi
$LN11@TextOutA:
  000cd	5f		 pop	 edi
; File D:\git\src\IBK\IBK_DRFN\ProjSrc\SrcChartEx\ChartOCX\GraphDraw\Draw.cpp

; 208  : }

  000ce	5b		 pop	 ebx
  000cf	8b e5		 mov	 esp, ebp
  000d1	5d		 pop	 ebp
  000d2	c2 24 00	 ret	 36			; 00000024H
?TextOutA@CDraw@@IAEXPAVCDC@@VCRect@@ABV?$CStringT@DV?$StrTraitMFC_DLL@DV?$ChTraitsCRT@D@ATL@@@@@ATL@@_N33@Z ENDP ; CDraw::TextOutA
_TEXT	ENDS
; Function compile flags: /Ogtp
; File D:\git\src\IBK\IBK_DRFN\ProjSrc\SrcChartEx\ChartOCX\GraphDraw\Draw.cpp
; File C:\Program Files (x86)\Microsoft Visual Studio\2019\Community\VC\Tools\MSVC\14.29.30133\atlmfc\include\afxwin1.inl
; File D:\git\src\IBK\IBK_DRFN\ProjSrc\SrcChartEx\ChartOCX\GraphDraw\Draw.cpp
; File C:\Program Files (x86)\Microsoft Visual Studio\2019\Community\VC\Tools\MSVC\14.29.30133\atlmfc\include\afxwin1.inl
; File D:\git\src\IBK\IBK_DRFN\ProjSrc\SrcChartEx\ChartOCX\GraphDraw\Draw.cpp
; File C:\Program Files (x86)\Microsoft Visual Studio\2019\Community\VC\Tools\MSVC\14.29.30133\atlmfc\include\afxwin1.inl
; File D:\git\src\IBK\IBK_DRFN\ProjSrc\SrcChartEx\ChartOCX\GraphDraw\Draw.cpp
; File C:\Program Files (x86)\Microsoft Visual Studio\2019\Community\VC\Tools\MSVC\14.29.30133\atlmfc\include\afxwin1.inl
; File D:\git\src\IBK\IBK_DRFN\ProjSrc\SrcChartEx\ChartOCX\GraphDraw\Draw.cpp
;	COMDAT ?DrawTriangle@CDraw@@IAEXPAVCDC@@VCPoint@@K@Z
_TEXT	SEGMENT
_brush$ = -48						; size = 8
_pt$ = -40						; size = 24
__$ArrayPad$ = -16					; size = 4
__$EHRec$ = -12						; size = 12
_pDC$ = 8						; size = 4
_point$ = 12						; size = 8
_color$ = 20						; size = 4
?DrawTriangle@CDraw@@IAEXPAVCDC@@VCPoint@@K@Z PROC	; CDraw::DrawTriangle, COMDAT
; _this$ = ecx

; 464  : {

  00000	55		 push	 ebp
  00001	8b ec		 mov	 ebp, esp
  00003	6a ff		 push	 -1
  00005	68 00 00 00 00	 push	 __ehhandler$?DrawTriangle@CDraw@@IAEXPAVCDC@@VCPoint@@K@Z
  0000a	64 a1 00 00 00
	00		 mov	 eax, DWORD PTR fs:0
  00010	50		 push	 eax
  00011	83 ec 24	 sub	 esp, 36			; 00000024H
  00014	a1 00 00 00 00	 mov	 eax, DWORD PTR ___security_cookie
  00019	33 c5		 xor	 eax, ebp
  0001b	89 45 f0	 mov	 DWORD PTR __$ArrayPad$[ebp], eax
  0001e	56		 push	 esi
  0001f	57		 push	 edi
  00020	50		 push	 eax
  00021	8d 45 f4	 lea	 eax, DWORD PTR __$EHRec$[ebp]
  00024	64 a3 00 00 00
	00		 mov	 DWORD PTR fs:0, eax
  0002a	8b 45 14	 mov	 eax, DWORD PTR _color$[ebp]

; 465  : 	int nHeight = 7;
; 466  : 
; 467  : 	CBrush brush(color);

  0002d	8d 4d d0	 lea	 ecx, DWORD PTR _brush$[ebp]
  00030	8b 7d 08	 mov	 edi, DWORD PTR _pDC$[ebp]
  00033	50		 push	 eax
  00034	e8 00 00 00 00	 call	 ??0CBrush@@QAE@K@Z	; CBrush::CBrush

; 468  : 	CBrush* pOldBrush = pDC->SelectObject(&brush);

  00039	8d 45 d0	 lea	 eax, DWORD PTR _brush$[ebp]
  0003c	c7 45 fc 00 00
	00 00		 mov	 DWORD PTR __$EHRec$[ebp+8], 0
  00043	50		 push	 eax
  00044	8b cf		 mov	 ecx, edi
  00046	e8 00 00 00 00	 call	 ?SelectObject@CDC@@QAEPAVCBrush@@PAV2@@Z ; CDC::SelectObject

; 473  : 	pt[i++].y 	= (int)(point.y - nHeight / 2);

  0004b	8b 55 10	 mov	 edx, DWORD PTR _point$[ebp+4]
