; Listing generated by Microsoft (R) Optimizing Compiler Version 19.29.30145.0 

	TITLE	D:\git\src\IBK\IBK_DRFN\#DRfn-CS\_Obj\GraphDraw\FundDraw.obj
	.686P
	.XMM
	include listing.inc
	.model	flat

INCLUDELIB MSVCRT
INCLUDELIB OLDNAMES

CONST	SEGMENT
?_Fake_alloc@std@@3U_Fake_allocator@1@B	ORG $+1		; std::_Fake_alloc
CONST	ENDS
PUBLIC	??_H@YGXPAXIIP6EPAX0@Z@Z			; `vector constructor iterator'
PUBLIC	?__empty_global_delete@@YAXPAX@Z		; __empty_global_delete
PUBLIC	?__empty_global_delete@@YAXPAXI@Z		; __empty_global_delete
PUBLIC	??1CObject@@UAE@XZ				; CObject::~CObject
PUBLIC	?Serialize@CObject@@UAEXAAVCArchive@@@Z		; CObject::Serialize
PUBLIC	?AssertValid@CObject@@UBEXXZ			; CObject::AssertValid
PUBLIC	?Dump@CObject@@UBEXAAVCDumpContext@@@Z		; CObject::Dump
PUBLIC	??0CPoint@@QAE@XZ				; CPoint::CPoint
PUBLIC	??1CGdiObject@@UAE@XZ				; CGdiObject::~CGdiObject
PUBLIC	??_GCGdiObject@@UAEPAXI@Z			; CGdiObject::`scalar deleting destructor'
PUBLIC	??1CPen@@UAE@XZ					; CPen::~CPen
PUBLIC	??_GCPen@@UAEPAXI@Z				; CPen::`scalar deleting destructor'
PUBLIC	??1CBrush@@UAE@XZ				; CBrush::~CBrush
PUBLIC	??_GCBrush@@UAEPAXI@Z				; CBrush::`scalar deleting destructor'
PUBLIC	??0CFundDraw@@QAE@XZ				; CFundDraw::CFundDraw
PUBLIC	??1CFundDraw@@UAE@XZ				; CFundDraw::~CFundDraw
PUBLIC	?DrawGraph@CFundDraw@@UAE_NPAVCDC@@ABVCRect@@ABVCDisplayAttributes@@ABVCDrawingGraphData@@ABVCSubGraphData@@@Z ; CFundDraw::DrawGraph
PUBLIC	?DrawGraph@CFundDraw@@UAE_NPAVCDC@@ABVCRect@@ABVCDisplayAttributes@@ABVCDrawingGraphData@@ABVCSubGraphData@@PAVCXScaleManager@@@Z ; CFundDraw::DrawGraph
PUBLIC	?DrawComponentRatio_Bar@CFundDraw@@AAE_NPAVCDC@@ABVCEtcGraphColor@@ABVCRect@@ABVCGraphColor@@HHHABN4ABV?$CList@PAVCPacket@@PAV1@@@VCPenThickness@@@Z ; CFundDraw::DrawComponentRatio_Bar
PUBLIC	?DrawStyleBox@CFundDraw@@AAE_NPAVCDC@@ABVCEtcGraphColor@@ABVCRect@@ABVCGraphColor@@HABN4ABV?$CList@PAVCPacket@@PAV1@@@VCPenThickness@@@Z ; CFundDraw::DrawStyleBox
PUBLIC	?DrawReturnRiskGrade@CFundDraw@@AAE_NPAVCDC@@ABVCEtcGraphColor@@ABVCRect@@ABVCGraphColor@@HABN4ABV?$CList@PAVCPacket@@PAV1@@@VCPenThickness@@@Z ; CFundDraw::DrawReturnRiskGrade
PUBLIC	?DrawComponentRatio_Line@CFundDraw@@AAE_NPAVCDC@@ABVCEtcGraphColor@@ABVCRect@@ABVCGraphColor@@HHHABN4ABV?$CList@PAVCPacket@@PAV1@@@VCPenThickness@@@Z ; CFundDraw::DrawComponentRatio_Line
PUBLIC	?DrawReturnRiskDispersion@CFundDraw@@AAE_NPAVCDC@@ABVCEtcGraphColor@@ABVCRect@@ABVCGraphColor@@HABN444ABV?$CList@PAVCPacket@@PAV1@@@@Z ; CFundDraw::DrawReturnRiskDispersion
PUBLIC	?DrawFundMarketDispersion@CFundDraw@@AAE_NPAVCDC@@ABVCEtcGraphColor@@ABVCRect@@ABVCGraphColor@@HABN4ABV?$CList@PAVCPacket@@PAV1@@@VCPenThickness@@@Z ; CFundDraw::DrawFundMarketDispersion
PUBLIC	?DrawComponentRatio_Pie@CFundDraw@@AAE_NPAVCDC@@ABVCRect@@ABVCDisplayAttributes@@ABVCDrawingGraphData@@ABVCSubGraphData@@@Z ; CFundDraw::DrawComponentRatio_Pie
PUBLIC	?DrawComponentRatio_Bar_Line@CFundDraw@@AAE_NPAVCDC@@ABVCEtcGraphColor@@ABVCRect@@ABVCGraphColor@@HHHABN4ABV?$CList@PAVCPacket@@PAV1@@@VCPenThickness@@@Z ; CFundDraw::DrawComponentRatio_Bar_Line
PUBLIC	?DrawGroupBar@CFundDraw@@AAE_NPAVCDC@@ABVCEtcGraphColor@@ABVCRect@@ABVCGraphColor@@HHHABN4ABV?$CList@PAVCPacket@@PAV1@@@VCPenThickness@@@Z ; CFundDraw::DrawGroupBar
PUBLIC	?DrawBox@CFundDraw@@AAEXPAVCDC@@VCRect@@@Z	; CFundDraw::DrawBox
PUBLIC	??_GCFundDraw@@UAEPAXI@Z			; CFundDraw::`scalar deleting destructor'
PUBLIC	??4CGraphDrawer@@QAEAAV0@ABV0@@Z		; CGraphDrawer::operator=
PUBLIC	??4CGraphDrawer@@QAEAAV0@$$QAV0@@Z		; CGraphDrawer::operator=
PUBLIC	??0?$CList@PAU__POSITION@@PAU1@@@QAE@H@Z	; CList<__POSITION *,__POSITION *>::CList<__POSITION *,__POSITION *>
PUBLIC	?AddTail@?$CList@PAU__POSITION@@PAU1@@@QAEPAU__POSITION@@PAU2@@Z ; CList<__POSITION *,__POSITION *>::AddTail
PUBLIC	?RemoveAll@?$CList@PAU__POSITION@@PAU1@@@QAEXXZ	; CList<__POSITION *,__POSITION *>::RemoveAll
PUBLIC	?FindIndex@?$CList@PAU__POSITION@@PAU1@@@QBEPAU__POSITION@@H@Z ; CList<__POSITION *,__POSITION *>::FindIndex
PUBLIC	?NewNode@?$CList@PAU__POSITION@@PAU1@@@IAEPAUCNode@1@PAU21@0@Z ; CList<__POSITION *,__POSITION *>::NewNode
PUBLIC	??1?$CList@PAU__POSITION@@PAU1@@@UAE@XZ		; CList<__POSITION *,__POSITION *>::~CList<__POSITION *,__POSITION *>
PUBLIC	?Serialize@?$CList@PAU__POSITION@@PAU1@@@UAEXAAVCArchive@@@Z ; CList<__POSITION *,__POSITION *>::Serialize
PUBLIC	??_G?$CList@PAU__POSITION@@PAU1@@@UAEPAXI@Z	; CList<__POSITION *,__POSITION *>::`scalar deleting destructor'
PUBLIC	?FindIndex@?$CList@NN@@QBEPAU__POSITION@@H@Z	; CList<double,double>::FindIndex
PUBLIC	?FindIndex@?$CList@V?$CStringT@DV?$StrTraitMFC_DLL@DV?$ChTraitsCRT@D@ATL@@@@@ATL@@V12@@@QBEPAU__POSITION@@H@Z ; CList<ATL::CStringT<char,StrTraitMFC_DLL<char,ATL::ChTraitsCRT<char> > >,ATL::CStringT<char,StrTraitMFC_DLL<char,ATL::ChTraitsCRT<char> > > >::FindIndex
PUBLIC	??$SerializeElements@PAU__POSITION@@@@YGXAAVCArchive@@PAPAU__POSITION@@H@Z ; SerializeElements<__POSITION *>
PUBLIC	??_R0PAVCException@@@8				; CException * `RTTI Type Descriptor'
PUBLIC	??_C@_01HMGJMAIH@B@				; `string'
PUBLIC	??_7CGdiObject@@6B@				; CGdiObject::`vftable'
PUBLIC	??_7CPen@@6B@					; CPen::`vftable'
PUBLIC	??_7CBrush@@6B@					; CBrush::`vftable'
PUBLIC	??_C@_0HD@JJCHHHNK@C?3?2Program?5Files?5?$CIx86?$CJ?2Microsof@ ; `string'
PUBLIC	??_C@_0BP@OIEOKIDM@Exception?5thrown?5in?5destructor@ ; `string'
PUBLIC	??_C@_0BB@HBOOMJBF@?$CFTs?5?$CI?$CFTs?3?$CFd?$CJ?6?$CFTs@ ; `string'
PUBLIC	??_C@_0N@OMEMOKLE@?$CFTs?5?$CI?$CFTs?3?$CFd?$CJ@ ; `string'
PUBLIC	??_R0?AVCObject@@@8				; CObject `RTTI Type Descriptor'
PUBLIC	??_R3CObject@@8					; CObject::`RTTI Class Hierarchy Descriptor'
PUBLIC	??_R2CObject@@8					; CObject::`RTTI Base Class Array'
PUBLIC	??_R1A@?0A@EA@CObject@@8			; CObject::`RTTI Base Class Descriptor at (0,-1,0,64)'
PUBLIC	??_R4CGdiObject@@6B@				; CGdiObject::`RTTI Complete Object Locator'
PUBLIC	??_R0?AVCGdiObject@@@8				; CGdiObject `RTTI Type Descriptor'
PUBLIC	??_R3CGdiObject@@8				; CGdiObject::`RTTI Class Hierarchy Descriptor'
PUBLIC	??_R2CGdiObject@@8				; CGdiObject::`RTTI Base Class Array'
PUBLIC	??_R1A@?0A@EA@CGdiObject@@8			; CGdiObject::`RTTI Base Class Descriptor at (0,-1,0,64)'
PUBLIC	??_R4CPen@@6B@					; CPen::`RTTI Complete Object Locator'
PUBLIC	??_R0?AVCPen@@@8				; CPen `RTTI Type Descriptor'
PUBLIC	??_R3CPen@@8					; CPen::`RTTI Class Hierarchy Descriptor'
PUBLIC	??_R2CPen@@8					; CPen::`RTTI Base Class Array'
PUBLIC	??_R1A@?0A@EA@CPen@@8				; CPen::`RTTI Base Class Descriptor at (0,-1,0,64)'
PUBLIC	??_R4CBrush@@6B@				; CBrush::`RTTI Complete Object Locator'
PUBLIC	??_R0?AVCBrush@@@8				; CBrush `RTTI Type Descriptor'
PUBLIC	??_R3CBrush@@8					; CBrush::`RTTI Class Hierarchy Descriptor'
PUBLIC	??_R2CBrush@@8					; CBrush::`RTTI Base Class Array'
PUBLIC	??_R1A@?0A@EA@CBrush@@8				; CBrush::`RTTI Base Class Descriptor at (0,-1,0,64)'
PUBLIC	??_7CFundDraw@@6B@				; CFundDraw::`vftable'
PUBLIC	??_7?$CList@PAU__POSITION@@PAU1@@@6B@		; CList<__POSITION *,__POSITION *>::`vftable'
PUBLIC	??_C@_01FGNFDNOH@?$CF@				; `string'
PUBLIC	??_C@_01BIAFAFID@F@				; `string'
PUBLIC	??_C@_01HJOKEEBB@U@				; `string'
PUBLIC	??_C@_01KNKLHLMO@K@				; `string'
PUBLIC	??_R4CFundDraw@@6B@				; CFundDraw::`RTTI Complete Object Locator'
PUBLIC	??_R0?AVCFundDraw@@@8				; CFundDraw `RTTI Type Descriptor'
PUBLIC	??_R3CFundDraw@@8				; CFundDraw::`RTTI Class Hierarchy Descriptor'
PUBLIC	??_R2CFundDraw@@8				; CFundDraw::`RTTI Base Class Array'
PUBLIC	??_R1A@?0A@EA@CFundDraw@@8			; CFundDraw::`RTTI Base Class Descriptor at (0,-1,0,64)'
PUBLIC	??_R1A@?0A@EA@CDraw@@8				; CDraw::`RTTI Base Class Descriptor at (0,-1,0,64)'
PUBLIC	??_R0?AVCDraw@@@8				; CDraw `RTTI Type Descriptor'
PUBLIC	??_R3CDraw@@8					; CDraw::`RTTI Class Hierarchy Descriptor'
PUBLIC	??_R2CDraw@@8					; CDraw::`RTTI Base Class Array'
PUBLIC	??_R4?$CList@PAU__POSITION@@PAU1@@@6B@		; CList<__POSITION *,__POSITION *>::`RTTI Complete Object Locator'
PUBLIC	??_R0?AV?$CList@PAU__POSITION@@PAU1@@@@8	; CList<__POSITION *,__POSITION *> `RTTI Type Descriptor'
PUBLIC	??_R3?$CList@PAU__POSITION@@PAU1@@@8		; CList<__POSITION *,__POSITION *>::`RTTI Class Hierarchy Descriptor'
PUBLIC	??_R2?$CList@PAU__POSITION@@PAU1@@@8		; CList<__POSITION *,__POSITION *>::`RTTI Base Class Array'
PUBLIC	??_R1A@?0A@EA@?$CList@PAU__POSITION@@PAU1@@@8	; CList<__POSITION *,__POSITION *>::`RTTI Base Class Descriptor at (0,-1,0,64)'
PUBLIC	__real@3fe0000000000000
PUBLIC	__real@3fe999999999999a
PUBLIC	__real@3ff0000000000000
PUBLIC	__real@4010000000000000
PUBLIC	__real@4014000000000000
PUBLIC	__real@402e000000000000
EXTRN	??3@YAXPAX@Z:PROC				; operator delete
EXTRN	??3@YAXPAXI@Z:PROC				; operator delete
EXTRN	?__global_delete@@YAXPAXI@Z:PROC		; __global_delete
EXTRN	___std_terminate:PROC
EXTRN	__imp__CreatePen@12:PROC
EXTRN	__imp__Ellipse@20:PROC
EXTRN	__imp__GetStockObject@4:PROC
EXTRN	__imp__SelectObject@8:PROC
EXTRN	__imp__Polygon@12:PROC
EXTRN	__imp__DrawEdge@16:PROC
EXTRN	__imp__FillRect@12:PROC
EXTRN	__imp__atof:PROC
EXTRN	?AfxThrowInvalidArgException@@YGXXZ:PROC	; AfxThrowInvalidArgException
EXTRN	?AfxThrowArchiveException@@YGXHPBD@Z:PROC	; AfxThrowArchiveException
EXTRN	?GetRuntimeClass@CObject@@UBEPAUCRuntimeClass@@XZ:PROC ; CObject::GetRuntimeClass
EXTRN	__imp_??0?$CStringT@DV?$StrTraitMFC_DLL@DV?$ChTraitsCRT@D@ATL@@@@@ATL@@QAE@XZ:PROC
EXTRN	__imp_??0?$CStringT@DV?$StrTraitMFC_DLL@DV?$ChTraitsCRT@D@ATL@@@@@ATL@@QAE@ABV01@@Z:PROC
EXTRN	__imp_??1?$CStringT@DV?$StrTraitMFC_DLL@DV?$ChTraitsCRT@D@ATL@@@@@ATL@@QAE@XZ:PROC
EXTRN	__imp_?Compare@?$CStringT@DV?$StrTraitMFC_DLL@DV?$ChTraitsCRT@D@ATL@@@@@ATL@@QBEHPBD@Z:PROC
EXTRN	__imp_?TrimRight@?$CStringT@DV?$StrTraitMFC_DLL@DV?$ChTraitsCRT@D@ATL@@@@@ATL@@QAEAAV12@PBD@Z:PROC
EXTRN	__imp_?Format@?$CStringT@DV?$StrTraitMFC_DLL@DV?$ChTraitsCRT@D@ATL@@@@@ATL@@QAAXPBDZZ:PROC
EXTRN	?Read@CArchive@@QAEIPAXI@Z:PROC			; CArchive::Read
EXTRN	?Write@CArchive@@QAEXPBXI@Z:PROC		; CArchive::Write
EXTRN	?ReadCount@CArchive@@QAEKXZ:PROC		; CArchive::ReadCount
EXTRN	?WriteCount@CArchive@@QAEXK@Z:PROC		; CArchive::WriteCount
EXTRN	?Create@CPlex@@SGPAU1@AAPAU1@II@Z:PROC		; CPlex::Create
EXTRN	?FreeDataChain@CPlex@@QAEXXZ:PROC		; CPlex::FreeDataChain
EXTRN	?GetRuntimeClass@CGdiObject@@UBEPAUCRuntimeClass@@XZ:PROC ; CGdiObject::GetRuntimeClass
EXTRN	?Attach@CGdiObject@@QAEHPAX@Z:PROC		; CGdiObject::Attach
EXTRN	?DeleteObject@CGdiObject@@QAEHXZ:PROC		; CGdiObject::DeleteObject
EXTRN	??_ECGdiObject@@UAEPAXI@Z:PROC			; CGdiObject::`vector deleting destructor'
EXTRN	?GetRuntimeClass@CPen@@UBEPAUCRuntimeClass@@XZ:PROC ; CPen::GetRuntimeClass
EXTRN	??_ECPen@@UAEPAXI@Z:PROC			; CPen::`vector deleting destructor'
EXTRN	?GetRuntimeClass@CBrush@@UBEPAUCRuntimeClass@@XZ:PROC ; CBrush::GetRuntimeClass
EXTRN	??0CBrush@@QAE@K@Z:PROC				; CBrush::CBrush
EXTRN	??_ECBrush@@UAEPAXI@Z:PROC			; CBrush::`vector deleting destructor'
EXTRN	?SelectObject@CDC@@QAEPAVCPen@@PAV2@@Z:PROC	; CDC::SelectObject
EXTRN	?SelectObject@CDC@@QAEPAVCBrush@@PAV2@@Z:PROC	; CDC::SelectObject
EXTRN	?AfxMessageBox@@YGHPBDII@Z:PROC			; AfxMessageBox
EXTRN	??0CDraw@@QAE@XZ:PROC				; CDraw::CDraw
EXTRN	??1CDraw@@UAE@XZ:PROC				; CDraw::~CDraw
EXTRN	?DrawGraph@CDraw@@UAE_NPAVCDC@@ABVCRect@@ABVCDisplayAttributes@@ABVCDrawingGraphData@@ABVCSubGraphData@@ABV?$CStringT@DV?$StrTraitMFC_DLL@DV?$ChTraitsCRT@D@ATL@@@@@ATL@@PAVCXScaleManager@@@Z:PROC ; CDraw::DrawGraph
EXTRN	?DrawLine@CDraw@@IAEXPAVCDC@@UtagPOINT@@1@Z:PROC ; CDraw::DrawLine
EXTRN	?DrawRectangle@CDraw@@IAEXPAVCDC@@VCRect@@@Z:PROC ; CDraw::DrawRectangle
EXTRN	?CalUpLineThickness@CDraw@@IAEHABVCPenThickness@@H@Z:PROC ; CDraw::CalUpLineThickness
EXTRN	?CalRealWidth@CDraw@@IAENABVCRect@@HH@Z:PROC	; CDraw::CalRealWidth
EXTRN	?InsertFourPointToArray@CDraw@@IAEXPAVCPoint@@V2@111@Z:PROC ; CDraw::InsertFourPointToArray
EXTRN	??_ECFundDraw@@UAEPAXI@Z:PROC			; CFundDraw::`vector deleting destructor'
EXTRN	?DoubleToString@CDataConversion@@SA?AV?$CStringT@DV?$StrTraitMFC_DLL@DV?$ChTraitsCRT@D@ATL@@@@@ATL@@ABN@Z:PROC ; CDataConversion::DoubleToString
EXTRN	?GetStringFormatTrans@CDataConversion@@QAE?AV?$CStringT@DV?$StrTraitMFC_DLL@DV?$ChTraitsCRT@D@ATL@@@@@ATL@@ABV23@0@Z:PROC ; CDataConversion::GetStringFormatTrans
EXTRN	?GetVerticalPoint@CDataConversion@@SA?AVCPoint@@ABVCRect@@HABN111_N@Z:PROC ; CDataConversion::GetVerticalPoint
EXTRN	?GetVerticalPoint@CDataConversion@@SA?AVCPoint@@ABVCRect@@ABN11111@Z:PROC ; CDataConversion::GetVerticalPoint
EXTRN	__imp_?GetDisplayMin@CDisplayDataMinMax@@QBENXZ:PROC
EXTRN	__imp_?GetDisplayMax@CDisplayDataMinMax@@QBENXZ:PROC
EXTRN	__imp_?GetGraphColor1@CEtcGraphColor@@QBEKXZ:PROC
EXTRN	__imp_?GetGraphColor2@CEtcGraphColor@@QBEKXZ:PROC
EXTRN	__imp_?GetGraphColor3@CEtcGraphColor@@QBEKXZ:PROC
EXTRN	__imp_?GetGraphColor4@CEtcGraphColor@@QBEKXZ:PROC
EXTRN	__imp_?GetGraphColor5@CEtcGraphColor@@QBEKXZ:PROC
EXTRN	__imp_?GetColor1@CGraphColor@@QBEKXZ:PROC
EXTRN	__imp_?GetColor2@CGraphColor@@QBEKXZ:PROC
EXTRN	__imp_?GetColor3@CGraphColor@@QBEKXZ:PROC
EXTRN	__imp_?GetColor4@CGraphColor@@QBEKXZ:PROC
EXTRN	__imp_?GetColor5@CGraphColor@@QBEKXZ:PROC
EXTRN	__imp_?GetColor6@CGraphColor@@QBEKXZ:PROC
EXTRN	__imp_??0CPenThickness@@QAE@ABV0@@Z:PROC
EXTRN	__imp_?GetThickness1@CPenThickness@@QBEHXZ:PROC
EXTRN	__imp_?GetStyle@CSubGraphDataBase@@QBE?AVCGraphStyle@@XZ:PROC
EXTRN	__imp_?GetColor@CSubGraphDataBase@@QBE?AVCGraphColor@@XZ:PROC
EXTRN	__imp_?GetPenThickness@CSubGraphDataBase@@QBE?AVCPenThickness@@XZ:PROC
EXTRN	?GetDataStartInBlock@CDisplayAttributes@@QBEHXZ:PROC ; CDisplayAttributes::GetDataStartInBlock
EXTRN	?GetDataEndInBlock@CDisplayAttributes@@QBEHXZ:PROC ; CDisplayAttributes::GetDataEndInBlock
EXTRN	?GetDisplayDataHorzMinMax@CDrawingGraphData@@QBE?AVCDisplayDataMinMax@@XZ:PROC ; CDrawingGraphData::GetDisplayDataHorzMinMax
EXTRN	?GetDisplayDataVertMinMax@CDrawingGraphData@@QBE?AVCDisplayDataMinMax@@XZ:PROC ; CDrawingGraphData::GetDisplayDataVertMinMax
EXTRN	?GetDisplayAttributes@CDrawingGraphData@@QBE?AVCDisplayAttributes@@XZ:PROC ; CDrawingGraphData::GetDisplayAttributes
EXTRN	?GetEtcGraphColor@CDrawingGraphData@@QBE?AVCEtcGraphColor@@XZ:PROC ; CDrawingGraphData::GetEtcGraphColor
EXTRN	?GetSubGraphPacketList@CDrawingGraphData@@QBEPAVCSubGraphPacketList@@XZ:PROC ; CDrawingGraphData::GetSubGraphPacketList
EXTRN	?GetSubGraphPacketList@CSubGraphPacketList@@QBEABV?$CList@PAVCPacket@@PAV1@@@XZ:PROC ; CSubGraphPacketList::GetSubGraphPacketList
EXTRN	??0CPieDraw@@QAE@XZ:PROC			; CPieDraw::CPieDraw
EXTRN	??1CPieDraw@@UAE@XZ:PROC			; CPieDraw::~CPieDraw
EXTRN	__imp_?GetStartPeriod@CPacket@@QAEHXZ:PROC
EXTRN	__imp_?GetType@CPacket@@QAE?AV?$CStringT@DV?$StrTraitMFC_DLL@DV?$ChTraitsCRT@D@ATL@@@@@ATL@@_N@Z:PROC
EXTRN	__imp_?GetnumericDataList@CPacket@@QAEPAV?$CList@NN@@XZ:PROC
EXTRN	__imp_?GetstrDataList@CPacket@@QAEPAV?$CList@V?$CStringT@DV?$StrTraitMFC_DLL@DV?$ChTraitsCRT@D@ATL@@@@@ATL@@V12@@@XZ:PROC
EXTRN	__imp_?GetMinMax@CPacket@@QAEHHHAAN0H@Z:PROC
EXTRN	??_E?$CList@PAU__POSITION@@PAU1@@@UAEPAXI@Z:PROC ; CList<__POSITION *,__POSITION *>::`vector deleting destructor'
EXTRN	@__security_check_cookie@4:PROC
EXTRN	___CxxFrameHandler3:PROC
EXTRN	??_7type_info@@6B@:QWORD			; type_info::`vftable'
EXTRN	___security_cookie:DWORD
EXTRN	__fltused:DWORD
;	COMDAT __real@402e000000000000
CONST	SEGMENT
__real@402e000000000000 DQ 0402e000000000000r	; 15
CONST	ENDS
;	COMDAT __real@4014000000000000
CONST	SEGMENT
__real@4014000000000000 DQ 04014000000000000r	; 5
CONST	ENDS
;	COMDAT __real@4010000000000000
CONST	SEGMENT
__real@4010000000000000 DQ 04010000000000000r	; 4
CONST	ENDS
;	COMDAT __real@3ff0000000000000
CONST	SEGMENT
__real@3ff0000000000000 DQ 03ff0000000000000r	; 1
CONST	ENDS
;	COMDAT __real@3fe999999999999a
CONST	SEGMENT
__real@3fe999999999999a DQ 03fe999999999999ar	; 0.8
CONST	ENDS
;	COMDAT __real@3fe0000000000000
CONST	SEGMENT
__real@3fe0000000000000 DQ 03fe0000000000000r	; 0.5
CONST	ENDS
;	COMDAT ??_R1A@?0A@EA@?$CList@PAU__POSITION@@PAU1@@@8
rdata$r	SEGMENT
??_R1A@?0A@EA@?$CList@PAU__POSITION@@PAU1@@@8 DD FLAT:??_R0?AV?$CList@PAU__POSITION@@PAU1@@@@8 ; CList<__POSITION *,__POSITION *>::`RTTI Base Class Descriptor at (0,-1,0,64)'
	DD	01H
	DD	00H
	DD	0ffffffffH
	DD	00H
	DD	040H
	DD	FLAT:??_R3?$CList@PAU__POSITION@@PAU1@@@8
rdata$r	ENDS
;	COMDAT ??_R2?$CList@PAU__POSITION@@PAU1@@@8
rdata$r	SEGMENT
??_R2?$CList@PAU__POSITION@@PAU1@@@8 DD FLAT:??_R1A@?0A@EA@?$CList@PAU__POSITION@@PAU1@@@8 ; CList<__POSITION *,__POSITION *>::`RTTI Base Class Array'
	DD	FLAT:??_R1A@?0A@EA@CObject@@8
rdata$r	ENDS
;	COMDAT ??_R3?$CList@PAU__POSITION@@PAU1@@@8
rdata$r	SEGMENT
??_R3?$CList@PAU__POSITION@@PAU1@@@8 DD 00H		; CList<__POSITION *,__POSITION *>::`RTTI Class Hierarchy Descriptor'
	DD	00H
	DD	02H
	DD	FLAT:??_R2?$CList@PAU__POSITION@@PAU1@@@8
rdata$r	ENDS
;	COMDAT ??_R0?AV?$CList@PAU__POSITION@@PAU1@@@@8
data$rs	SEGMENT
??_R0?AV?$CList@PAU__POSITION@@PAU1@@@@8 DD FLAT:??_7type_info@@6B@ ; CList<__POSITION *,__POSITION *> `RTTI Type Descriptor'
	DD	00H
	DB	'.?AV?$CList@PAU__POSITION@@PAU1@@@', 00H
data$rs	ENDS
;	COMDAT ??_R4?$CList@PAU__POSITION@@PAU1@@@6B@
rdata$r	SEGMENT
??_R4?$CList@PAU__POSITION@@PAU1@@@6B@ DD 00H		; CList<__POSITION *,__POSITION *>::`RTTI Complete Object Locator'
	DD	00H
	DD	00H
	DD	FLAT:??_R0?AV?$CList@PAU__POSITION@@PAU1@@@@8
	DD	FLAT:??_R3?$CList@PAU__POSITION@@PAU1@@@8
rdata$r	ENDS
;	COMDAT ??_R2CDraw@@8
rdata$r	SEGMENT
??_R2CDraw@@8 DD FLAT:??_R1A@?0A@EA@CDraw@@8		; CDraw::`RTTI Base Class Array'
rdata$r	ENDS
;	COMDAT ??_R3CDraw@@8
rdata$r	SEGMENT
??_R3CDraw@@8 DD 00H					; CDraw::`RTTI Class Hierarchy Descriptor'
	DD	00H
	DD	01H
	DD	FLAT:??_R2CDraw@@8
rdata$r	ENDS
;	COMDAT ??_R0?AVCDraw@@@8
data$rs	SEGMENT
??_R0?AVCDraw@@@8 DD FLAT:??_7type_info@@6B@		; CDraw `RTTI Type Descriptor'
	DD	00H
	DB	'.?AVCDraw@@', 00H
data$rs	ENDS
;	COMDAT ??_R1A@?0A@EA@CDraw@@8
rdata$r	SEGMENT
??_R1A@?0A@EA@CDraw@@8 DD FLAT:??_R0?AVCDraw@@@8	; CDraw::`RTTI Base Class Descriptor at (0,-1,0,64)'
	DD	00H
	DD	00H
	DD	0ffffffffH
	DD	00H
	DD	040H
	DD	FLAT:??_R3CDraw@@8
rdata$r	ENDS
;	COMDAT ??_R1A@?0A@EA@CFundDraw@@8
rdata$r	SEGMENT
??_R1A@?0A@EA@CFundDraw@@8 DD FLAT:??_R0?AVCFundDraw@@@8 ; CFundDraw::`RTTI Base Class Descriptor at (0,-1,0,64)'
	DD	01H
	DD	00H
	DD	0ffffffffH
	DD	00H
	DD	040H
	DD	FLAT:??_R3CFundDraw@@8
rdata$r	ENDS
;	COMDAT ??_R2CFundDraw@@8
rdata$r	SEGMENT
??_R2CFundDraw@@8 DD FLAT:??_R1A@?0A@EA@CFundDraw@@8	; CFundDraw::`RTTI Base Class Array'
	DD	FLAT:??_R1A@?0A@EA@CDraw@@8
rdata$r	ENDS
;	COMDAT ??_R3CFundDraw@@8
rdata$r	SEGMENT
??_R3CFundDraw@@8 DD 00H				; CFundDraw::`RTTI Class Hierarchy Descriptor'
	DD	00H
	DD	02H
	DD	FLAT:??_R2CFundDraw@@8
rdata$r	ENDS
;	COMDAT ??_R0?AVCFundDraw@@@8
data$rs	SEGMENT
??_R0?AVCFundDraw@@@8 DD FLAT:??_7type_info@@6B@	; CFundDraw `RTTI Type Descriptor'
	DD	00H
	DB	'.?AVCFundDraw@@', 00H
data$rs	ENDS
;	COMDAT ??_R4CFundDraw@@6B@
rdata$r	SEGMENT
??_R4CFundDraw@@6B@ DD 00H				; CFundDraw::`RTTI Complete Object Locator'
	DD	00H
	DD	00H
	DD	FLAT:??_R0?AVCFundDraw@@@8
	DD	FLAT:??_R3CFundDraw@@8
rdata$r	ENDS
;	COMDAT ??_C@_01KNKLHLMO@K@
CONST	SEGMENT
??_C@_01KNKLHLMO@K@ DB 'K', 00H				; `string'
CONST	ENDS
;	COMDAT ??_C@_01HJOKEEBB@U@
CONST	SEGMENT
??_C@_01HJOKEEBB@U@ DB 'U', 00H				; `string'
CONST	ENDS
;	COMDAT ??_C@_01BIAFAFID@F@
CONST	SEGMENT
??_C@_01BIAFAFID@F@ DB 'F', 00H				; `string'
CONST	ENDS
;	COMDAT ??_C@_01FGNFDNOH@?$CF@
CONST	SEGMENT
??_C@_01FGNFDNOH@?$CF@ DB '%', 00H			; `string'
CONST	ENDS
;	COMDAT ??_7?$CList@PAU__POSITION@@PAU1@@@6B@
CONST	SEGMENT
??_7?$CList@PAU__POSITION@@PAU1@@@6B@ DD FLAT:??_R4?$CList@PAU__POSITION@@PAU1@@@6B@ ; CList<__POSITION *,__POSITION *>::`vftable'
	DD	FLAT:?GetRuntimeClass@CObject@@UBEPAUCRuntimeClass@@XZ
	DD	FLAT:??_E?$CList@PAU__POSITION@@PAU1@@@UAEPAXI@Z
	DD	FLAT:?Serialize@?$CList@PAU__POSITION@@PAU1@@@UAEXAAVCArchive@@@Z
	DD	FLAT:?AssertValid@CObject@@UBEXXZ
	DD	FLAT:?Dump@CObject@@UBEXAAVCDumpContext@@@Z
CONST	ENDS
;	COMDAT ??_7CFundDraw@@6B@
CONST	SEGMENT
??_7CFundDraw@@6B@ DD FLAT:??_R4CFundDraw@@6B@		; CFundDraw::`vftable'
	DD	FLAT:??_ECFundDraw@@UAEPAXI@Z
	DD	FLAT:?DrawGraph@CDraw@@UAE_NPAVCDC@@ABVCRect@@ABVCDisplayAttributes@@ABVCDrawingGraphData@@ABVCSubGraphData@@ABV?$CStringT@DV?$StrTraitMFC_DLL@DV?$ChTraitsCRT@D@ATL@@@@@ATL@@PAVCXScaleManager@@@Z
	DD	FLAT:?DrawGraph@CFundDraw@@UAE_NPAVCDC@@ABVCRect@@ABVCDisplayAttributes@@ABVCDrawingGraphData@@ABVCSubGraphData@@@Z
	DD	FLAT:?DrawGraph@CFundDraw@@UAE_NPAVCDC@@ABVCRect@@ABVCDisplayAttributes@@ABVCDrawingGraphData@@ABVCSubGraphData@@PAVCXScaleManager@@@Z
CONST	ENDS
;	COMDAT ??_R1A@?0A@EA@CBrush@@8
rdata$r	SEGMENT
??_R1A@?0A@EA@CBrush@@8 DD FLAT:??_R0?AVCBrush@@@8	; CBrush::`RTTI Base Class Descriptor at (0,-1,0,64)'
	DD	02H
	DD	00H
	DD	0ffffffffH
	DD	00H
	DD	040H
	DD	FLAT:??_R3CBrush@@8
rdata$r	ENDS
;	COMDAT ??_R2CBrush@@8
rdata$r	SEGMENT
??_R2CBrush@@8 DD FLAT:??_R1A@?0A@EA@CBrush@@8		; CBrush::`RTTI Base Class Array'
	DD	FLAT:??_R1A@?0A@EA@CGdiObject@@8
	DD	FLAT:??_R1A@?0A@EA@CObject@@8
rdata$r	ENDS
;	COMDAT ??_R3CBrush@@8
rdata$r	SEGMENT
??_R3CBrush@@8 DD 00H					; CBrush::`RTTI Class Hierarchy Descriptor'
	DD	00H
	DD	03H
	DD	FLAT:??_R2CBrush@@8
rdata$r	ENDS
;	COMDAT ??_R0?AVCBrush@@@8
data$rs	SEGMENT
??_R0?AVCBrush@@@8 DD FLAT:??_7type_info@@6B@		; CBrush `RTTI Type Descriptor'
	DD	00H
	DB	'.?AVCBrush@@', 00H
data$rs	ENDS
;	COMDAT ??_R4CBrush@@6B@
rdata$r	SEGMENT
??_R4CBrush@@6B@ DD 00H					; CBrush::`RTTI Complete Object Locator'
	DD	00H
	DD	00H
	DD	FLAT:??_R0?AVCBrush@@@8
	DD	FLAT:??_R3CBrush@@8
rdata$r	ENDS
;	COMDAT ??_R1A@?0A@EA@CPen@@8
rdata$r	SEGMENT
??_R1A@?0A@EA@CPen@@8 DD FLAT:??_R0?AVCPen@@@8		; CPen::`RTTI Base Class Descriptor at (0,-1,0,64)'
	DD	02H
	DD	00H
	DD	0ffffffffH
	DD	00H
	DD	040H
	DD	FLAT:??_R3CPen@@8
rdata$r	ENDS
;	COMDAT ??_R2CPen@@8
rdata$r	SEGMENT
??_R2CPen@@8 DD	FLAT:??_R1A@?0A@EA@CPen@@8		; CPen::`RTTI Base Class Array'
	DD	FLAT:??_R1A@?0A@EA@CGdiObject@@8
	DD	FLAT:??_R1A@?0A@EA@CObject@@8
rdata$r	ENDS
;	COMDAT ??_R3CPen@@8
rdata$r	SEGMENT
??_R3CPen@@8 DD	00H					; CPen::`RTTI Class Hierarchy Descriptor'
	DD	00H
	DD	03H
	DD	FLAT:??_R2CPen@@8
rdata$r	ENDS
;	COMDAT ??_R0?AVCPen@@@8
data$rs	SEGMENT
??_R0?AVCPen@@@8 DD FLAT:??_7type_info@@6B@		; CPen `RTTI Type Descriptor'
	DD	00H
	DB	'.?AVCPen@@', 00H
data$rs	ENDS
;	COMDAT ??_R4CPen@@6B@
rdata$r	SEGMENT
??_R4CPen@@6B@ DD 00H					; CPen::`RTTI Complete Object Locator'
	DD	00H
	DD	00H
	DD	FLAT:??_R0?AVCPen@@@8
	DD	FLAT:??_R3CPen@@8
rdata$r	ENDS
;	COMDAT ??_R1A@?0A@EA@CGdiObject@@8
rdata$r	SEGMENT
??_R1A@?0A@EA@CGdiObject@@8 DD FLAT:??_R0?AVCGdiObject@@@8 ; CGdiObject::`RTTI Base Class Descriptor at (0,-1,0,64)'
	DD	01H
	DD	00H
	DD	0ffffffffH
	DD	00H
	DD	040H
	DD	FLAT:??_R3CGdiObject@@8
rdata$r	ENDS
;	COMDAT ??_R2CGdiObject@@8
rdata$r	SEGMENT
??_R2CGdiObject@@8 DD FLAT:??_R1A@?0A@EA@CGdiObject@@8	; CGdiObject::`RTTI Base Class Array'
	DD	FLAT:??_R1A@?0A@EA@CObject@@8
rdata$r	ENDS
;	COMDAT ??_R3CGdiObject@@8
rdata$r	SEGMENT
??_R3CGdiObject@@8 DD 00H				; CGdiObject::`RTTI Class Hierarchy Descriptor'
	DD	00H
	DD	02H
	DD	FLAT:??_R2CGdiObject@@8
rdata$r	ENDS
;	COMDAT ??_R0?AVCGdiObject@@@8
data$rs	SEGMENT
??_R0?AVCGdiObject@@@8 DD FLAT:??_7type_info@@6B@	; CGdiObject `RTTI Type Descriptor'
	DD	00H
	DB	'.?AVCGdiObject@@', 00H
data$rs	ENDS
;	COMDAT ??_R4CGdiObject@@6B@
rdata$r	SEGMENT
??_R4CGdiObject@@6B@ DD 00H				; CGdiObject::`RTTI Complete Object Locator'
	DD	00H
	DD	00H
	DD	FLAT:??_R0?AVCGdiObject@@@8
	DD	FLAT:??_R3CGdiObject@@8
rdata$r	ENDS
;	COMDAT ??_R1A@?0A@EA@CObject@@8
rdata$r	SEGMENT
??_R1A@?0A@EA@CObject@@8 DD FLAT:??_R0?AVCObject@@@8	; CObject::`RTTI Base Class Descriptor at (0,-1,0,64)'
	DD	00H
	DD	00H
	DD	0ffffffffH
	DD	00H
	DD	040H
	DD	FLAT:??_R3CObject@@8
rdata$r	ENDS
;	COMDAT ??_R2CObject@@8
rdata$r	SEGMENT
??_R2CObject@@8 DD FLAT:??_R1A@?0A@EA@CObject@@8	; CObject::`RTTI Base Class Array'
rdata$r	ENDS
;	COMDAT ??_R3CObject@@8
rdata$r	SEGMENT
??_R3CObject@@8 DD 00H					; CObject::`RTTI Class Hierarchy Descriptor'
	DD	00H
	DD	01H
	DD	FLAT:??_R2CObject@@8
rdata$r	ENDS
;	COMDAT ??_R0?AVCObject@@@8
data$rs	SEGMENT
??_R0?AVCObject@@@8 DD FLAT:??_7type_info@@6B@		; CObject `RTTI Type Descriptor'
	DD	00H
	DB	'.?AVCObject@@', 00H
data$rs	ENDS
;	COMDAT ??_C@_0N@OMEMOKLE@?$CFTs?5?$CI?$CFTs?3?$CFd?$CJ@
CONST	SEGMENT
??_C@_0N@OMEMOKLE@?$CFTs?5?$CI?$CFTs?3?$CFd?$CJ@ DB '%Ts (%Ts:%d)', 00H ; `string'
CONST	ENDS
;	COMDAT ??_C@_0BB@HBOOMJBF@?$CFTs?5?$CI?$CFTs?3?$CFd?$CJ?6?$CFTs@
CONST	SEGMENT
??_C@_0BB@HBOOMJBF@?$CFTs?5?$CI?$CFTs?3?$CFd?$CJ?6?$CFTs@ DB '%Ts (%Ts:%d'
	DB	')', 0aH, '%Ts', 00H				; `string'
CONST	ENDS
;	COMDAT ??_C@_0BP@OIEOKIDM@Exception?5thrown?5in?5destructor@
CONST	SEGMENT
??_C@_0BP@OIEOKIDM@Exception?5thrown?5in?5destructor@ DB 'Exception throw'
	DB	'n in destructor', 00H			; `string'
CONST	ENDS
;	COMDAT ??_C@_0HD@JJCHHHNK@C?3?2Program?5Files?5?$CIx86?$CJ?2Microsof@
CONST	SEGMENT
??_C@_0HD@JJCHHHNK@C?3?2Program?5Files?5?$CIx86?$CJ?2Microsof@ DB 'C:\Pro'
	DB	'gram Files (x86)\Microsoft Visual Studio\2019\Community\VC\To'
	DB	'ols\MSVC\14.29.30133\atlmfc\include\afxwin1.inl', 00H ; `string'
CONST	ENDS
;	COMDAT ??_7CBrush@@6B@
CONST	SEGMENT
??_7CBrush@@6B@ DD FLAT:??_R4CBrush@@6B@		; CBrush::`vftable'
	DD	FLAT:?GetRuntimeClass@CBrush@@UBEPAUCRuntimeClass@@XZ
	DD	FLAT:??_ECBrush@@UAEPAXI@Z
	DD	FLAT:?Serialize@CObject@@UAEXAAVCArchive@@@Z
	DD	FLAT:?AssertValid@CObject@@UBEXXZ
	DD	FLAT:?Dump@CObject@@UBEXAAVCDumpContext@@@Z
CONST	ENDS
;	COMDAT ??_7CPen@@6B@
CONST	SEGMENT
??_7CPen@@6B@ DD FLAT:??_R4CPen@@6B@			; CPen::`vftable'
	DD	FLAT:?GetRuntimeClass@CPen@@UBEPAUCRuntimeClass@@XZ
	DD	FLAT:??_ECPen@@UAEPAXI@Z
	DD	FLAT:?Serialize@CObject@@UAEXAAVCArchive@@@Z
	DD	FLAT:?AssertValid@CObject@@UBEXXZ
	DD	FLAT:?Dump@CObject@@UBEXAAVCDumpContext@@@Z
CONST	ENDS
;	COMDAT ??_7CGdiObject@@6B@
CONST	SEGMENT
??_7CGdiObject@@6B@ DD FLAT:??_R4CGdiObject@@6B@	; CGdiObject::`vftable'
	DD	FLAT:?GetRuntimeClass@CGdiObject@@UBEPAUCRuntimeClass@@XZ
	DD	FLAT:??_ECGdiObject@@UAEPAXI@Z
	DD	FLAT:?Serialize@CObject@@UAEXAAVCArchive@@@Z
	DD	FLAT:?AssertValid@CObject@@UBEXXZ
	DD	FLAT:?Dump@CObject@@UBEXAAVCDumpContext@@@Z
CONST	ENDS
;	COMDAT ??_C@_01HMGJMAIH@B@
CONST	SEGMENT
??_C@_01HMGJMAIH@B@ DB 'B', 00H				; `string'
CONST	ENDS
;	COMDAT ??_R0PAVCException@@@8
data$r	SEGMENT
??_R0PAVCException@@@8 DD FLAT:??_7type_info@@6B@	; CException * `RTTI Type Descriptor'
	DD	00H
	DB	'.PAVCException@@', 00H
data$r	ENDS
;	COMDAT xdata$x
xdata$x	SEGMENT
__unwindtable$??_G?$CList@PAU__POSITION@@PAU1@@@UAEPAXI@Z DD 0ffffffffH
	DD	FLAT:___std_terminate
__ehfuncinfo$??_G?$CList@PAU__POSITION@@PAU1@@@UAEPAXI@Z DD 019930522H
	DD	01H
	DD	FLAT:__unwindtable$??_G?$CList@PAU__POSITION@@PAU1@@@UAEPAXI@Z
	DD	2 DUP(00H)
	DD	2 DUP(00H)
	DD	00H
	DD	05H
xdata$x	ENDS
;	COMDAT xdata$x
xdata$x	SEGMENT
__ehfuncinfo$??1?$CList@PAU__POSITION@@PAU1@@@UAE@XZ DD 019930522H
	DD	00H
	DD	00H
	DD	2 DUP(00H)
	DD	2 DUP(00H)
	DD	00H
	DD	05H
xdata$x	ENDS
;	COMDAT xdata$x
xdata$x	SEGMENT
__ehfuncinfo$?DrawGroupBar@CFundDraw@@AAE_NPAVCDC@@ABVCEtcGraphColor@@ABVCRect@@ABVCGraphColor@@HHHABN4ABV?$CList@PAVCPacket@@PAV1@@@VCPenThickness@@@Z DD 019930522H
	DD	0bH
	DD	FLAT:__unwindtable$?DrawGroupBar@CFundDraw@@AAE_NPAVCDC@@ABVCEtcGraphColor@@ABVCRect@@ABVCGraphColor@@HHHABN4ABV?$CList@PAVCPacket@@PAV1@@@VCPenThickness@@@Z
	DD	2 DUP(00H)
	DD	2 DUP(00H)
	DD	00H
	DD	01H
__unwindtable$?DrawGroupBar@CFundDraw@@AAE_NPAVCDC@@ABVCEtcGraphColor@@ABVCRect@@ABVCGraphColor@@HHHABN4ABV?$CList@PAVCPacket@@PAV1@@@VCPenThickness@@@Z DD 0ffffffffH
	DD	FLAT:__unwindfunclet$?DrawGroupBar@CFundDraw@@AAE_NPAVCDC@@ABVCEtcGraphColor@@ABVCRect@@ABVCGraphColor@@HHHABN4ABV?$CList@PAVCPacket@@PAV1@@@VCPenThickness@@@Z$0
	DD	00H
	DD	FLAT:__unwindfunclet$?DrawGroupBar@CFundDraw@@AAE_NPAVCDC@@ABVCEtcGraphColor@@ABVCRect@@ABVCGraphColor@@HHHABN4ABV?$CList@PAVCPacket@@PAV1@@@VCPenThickness@@@Z$1
	DD	01H
	DD	FLAT:__unwindfunclet$?DrawGroupBar@CFundDraw@@AAE_NPAVCDC@@ABVCEtcGraphColor@@ABVCRect@@ABVCGraphColor@@HHHABN4ABV?$CList@PAVCPacket@@PAV1@@@VCPenThickness@@@Z$2
	DD	02H
	DD	FLAT:__unwindfunclet$?DrawGroupBar@CFundDraw@@AAE_NPAVCDC@@ABVCEtcGraphColor@@ABVCRect@@ABVCGraphColor@@HHHABN4ABV?$CList@PAVCPacket@@PAV1@@@VCPenThickness@@@Z$3
	DD	03H
	DD	FLAT:__unwindfunclet$?DrawGroupBar@CFundDraw@@AAE_NPAVCDC@@ABVCEtcGraphColor@@ABVCRect@@ABVCGraphColor@@HHHABN4ABV?$CList@PAVCPacket@@PAV1@@@VCPenThickness@@@Z$4
	DD	04H
	DD	FLAT:__unwindfunclet$?DrawGroupBar@CFundDraw@@AAE_NPAVCDC@@ABVCEtcGraphColor@@ABVCRect@@ABVCGraphColor@@HHHABN4ABV?$CList@PAVCPacket@@PAV1@@@VCPenThickness@@@Z$5
	DD	05H
	DD	FLAT:__unwindfunclet$?DrawGroupBar@CFundDraw@@AAE_NPAVCDC@@ABVCEtcGraphColor@@ABVCRect@@ABVCGraphColor@@HHHABN4ABV?$CList@PAVCPacket@@PAV1@@@VCPenThickness@@@Z$6
	DD	06H
	DD	FLAT:__unwindfunclet$?DrawGroupBar@CFundDraw@@AAE_NPAVCDC@@ABVCEtcGraphColor@@ABVCRect@@ABVCGraphColor@@HHHABN4ABV?$CList@PAVCPacket@@PAV1@@@VCPenThickness@@@Z$7
	DD	07H
	DD	FLAT:__unwindfunclet$?DrawGroupBar@CFundDraw@@AAE_NPAVCDC@@ABVCEtcGraphColor@@ABVCRect@@ABVCGraphColor@@HHHABN4ABV?$CList@PAVCPacket@@PAV1@@@VCPenThickness@@@Z$8
	DD	08H
	DD	FLAT:__unwindfunclet$?DrawGroupBar@CFundDraw@@AAE_NPAVCDC@@ABVCEtcGraphColor@@ABVCRect@@ABVCGraphColor@@HHHABN4ABV?$CList@PAVCPacket@@PAV1@@@VCPenThickness@@@Z$9
	DD	09H
	DD	FLAT:__unwindfunclet$?DrawGroupBar@CFundDraw@@AAE_NPAVCDC@@ABVCEtcGraphColor@@ABVCRect@@ABVCGraphColor@@HHHABN4ABV?$CList@PAVCPacket@@PAV1@@@VCPenThickness@@@Z$10
xdata$x	ENDS
;	COMDAT xdata$x
xdata$x	SEGMENT
__ehfuncinfo$?DrawComponentRatio_Bar_Line@CFundDraw@@AAE_NPAVCDC@@ABVCEtcGraphColor@@ABVCRect@@ABVCGraphColor@@HHHABN4ABV?$CList@PAVCPacket@@PAV1@@@VCPenThickness@@@Z DD 019930522H
	DD	021H
	DD	FLAT:__unwindtable$?DrawComponentRatio_Bar_Line@CFundDraw@@AAE_NPAVCDC@@ABVCEtcGraphColor@@ABVCRect@@ABVCGraphColor@@HHHABN4ABV?$CList@PAVCPacket@@PAV1@@@VCPenThickness@@@Z
	DD	2 DUP(00H)
	DD	2 DUP(00H)
	DD	00H
	DD	01H
__unwindtable$?DrawComponentRatio_Bar_Line@CFundDraw@@AAE_NPAVCDC@@ABVCEtcGraphColor@@ABVCRect@@ABVCGraphColor@@HHHABN4ABV?$CList@PAVCPacket@@PAV1@@@VCPenThickness@@@Z DD 0ffffffffH
	DD	FLAT:__unwindfunclet$?DrawComponentRatio_Bar_Line@CFundDraw@@AAE_NPAVCDC@@ABVCEtcGraphColor@@ABVCRect@@ABVCGraphColor@@HHHABN4ABV?$CList@PAVCPacket@@PAV1@@@VCPenThickness@@@Z$0
	DD	00H
	DD	FLAT:__unwindfunclet$?DrawComponentRatio_Bar_Line@CFundDraw@@AAE_NPAVCDC@@ABVCEtcGraphColor@@ABVCRect@@ABVCGraphColor@@HHHABN4ABV?$CList@PAVCPacket@@PAV1@@@VCPenThickness@@@Z$1
	DD	01H
	DD	FLAT:__unwindfunclet$?DrawComponentRatio_Bar_Line@CFundDraw@@AAE_NPAVCDC@@ABVCEtcGraphColor@@ABVCRect@@ABVCGraphColor@@HHHABN4ABV?$CList@PAVCPacket@@PAV1@@@VCPenThickness@@@Z$2
	DD	02H
	DD	FLAT:__unwindfunclet$?DrawComponentRatio_Bar_Line@CFundDraw@@AAE_NPAVCDC@@ABVCEtcGraphColor@@ABVCRect@@ABVCGraphColor@@HHHABN4ABV?$CList@PAVCPacket@@PAV1@@@VCPenThickness@@@Z$3
	DD	03H
	DD	FLAT:__unwindfunclet$?DrawComponentRatio_Bar_Line@CFundDraw@@AAE_NPAVCDC@@ABVCEtcGraphColor@@ABVCRect@@ABVCGraphColor@@HHHABN4ABV?$CList@PAVCPacket@@PAV1@@@VCPenThickness@@@Z$4
	DD	04H
	DD	FLAT:__unwindfunclet$?DrawComponentRatio_Bar_Line@CFundDraw@@AAE_NPAVCDC@@ABVCEtcGraphColor@@ABVCRect@@ABVCGraphColor@@HHHABN4ABV?$CList@PAVCPacket@@PAV1@@@VCPenThickness@@@Z$5
	DD	05H
	DD	FLAT:__unwindfunclet$?DrawComponentRatio_Bar_Line@CFundDraw@@AAE_NPAVCDC@@ABVCEtcGraphColor@@ABVCRect@@ABVCGraphColor@@HHHABN4ABV?$CList@PAVCPacket@@PAV1@@@VCPenThickness@@@Z$6
	DD	06H
	DD	FLAT:__unwindfunclet$?DrawComponentRatio_Bar_Line@CFundDraw@@AAE_NPAVCDC@@ABVCEtcGraphColor@@ABVCRect@@ABVCGraphColor@@HHHABN4ABV?$CList@PAVCPacket@@PAV1@@@VCPenThickness@@@Z$7
	DD	07H
	DD	FLAT:__unwindfunclet$?DrawComponentRatio_Bar_Line@CFundDraw@@AAE_NPAVCDC@@ABVCEtcGraphColor@@ABVCRect@@ABVCGraphColor@@HHHABN4ABV?$CList@PAVCPacket@@PAV1@@@VCPenThickness@@@Z$8
	DD	08H
	DD	FLAT:__unwindfunclet$?DrawComponentRatio_Bar_Line@CFundDraw@@AAE_NPAVCDC@@ABVCEtcGraphColor@@ABVCRect@@ABVCGraphColor@@HHHABN4ABV?$CList@PAVCPacket@@PAV1@@@VCPenThickness@@@Z$9
	DD	09H
	DD	FLAT:__unwindfunclet$?DrawComponentRatio_Bar_Line@CFundDraw@@AAE_NPAVCDC@@ABVCEtcGraphColor@@ABVCRect@@ABVCGraphColor@@HHHABN4ABV?$CList@PAVCPacket@@PAV1@@@VCPenThickness@@@Z$10
	DD	0aH
	DD	FLAT:__unwindfunclet$?DrawComponentRatio_Bar_Line@CFundDraw@@AAE_NPAVCDC@@ABVCEtcGraphColor@@ABVCRect@@ABVCGraphColor@@HHHABN4ABV?$CList@PAVCPacket@@PAV1@@@VCPenThickness@@@Z$11
	DD	0bH
	DD	FLAT:__unwindfunclet$?DrawComponentRatio_Bar_Line@CFundDraw@@AAE_NPAVCDC@@ABVCEtcGraphColor@@ABVCRect@@ABVCGraphColor@@HHHABN4ABV?$CList@PAVCPacket@@PAV1@@@VCPenThickness@@@Z$12
	DD	0cH
	DD	FLAT:__unwindfunclet$?DrawComponentRatio_Bar_Line@CFundDraw@@AAE_NPAVCDC@@ABVCEtcGraphColor@@ABVCRect@@ABVCGraphColor@@HHHABN4ABV?$CList@PAVCPacket@@PAV1@@@VCPenThickness@@@Z$13
	DD	0dH
	DD	FLAT:__unwindfunclet$?DrawComponentRatio_Bar_Line@CFundDraw@@AAE_NPAVCDC@@ABVCEtcGraphColor@@ABVCRect@@ABVCGraphColor@@HHHABN4ABV?$CList@PAVCPacket@@PAV1@@@VCPenThickness@@@Z$14
	DD	0eH
	DD	FLAT:__unwindfunclet$?DrawComponentRatio_Bar_Line@CFundDraw@@AAE_NPAVCDC@@ABVCEtcGraphColor@@ABVCRect@@ABVCGraphColor@@HHHABN4ABV?$CList@PAVCPacket@@PAV1@@@VCPenThickness@@@Z$15
	DD	0fH
	DD	FLAT:__unwindfunclet$?DrawComponentRatio_Bar_Line@CFundDraw@@AAE_NPAVCDC@@ABVCEtcGraphColor@@ABVCRect@@ABVCGraphColor@@HHHABN4ABV?$CList@PAVCPacket@@PAV1@@@VCPenThickness@@@Z$16
	DD	010H
	DD	FLAT:__unwindfunclet$?DrawComponentRatio_Bar_Line@CFundDraw@@AAE_NPAVCDC@@ABVCEtcGraphColor@@ABVCRect@@ABVCGraphColor@@HHHABN4ABV?$CList@PAVCPacket@@PAV1@@@VCPenThickness@@@Z$17
	DD	011H
	DD	FLAT:__unwindfunclet$?DrawComponentRatio_Bar_Line@CFundDraw@@AAE_NPAVCDC@@ABVCEtcGraphColor@@ABVCRect@@ABVCGraphColor@@HHHABN4ABV?$CList@PAVCPacket@@PAV1@@@VCPenThickness@@@Z$18
	DD	012H
	DD	FLAT:__unwindfunclet$?DrawComponentRatio_Bar_Line@CFundDraw@@AAE_NPAVCDC@@ABVCEtcGraphColor@@ABVCRect@@ABVCGraphColor@@HHHABN4ABV?$CList@PAVCPacket@@PAV1@@@VCPenThickness@@@Z$19
	DD	013H
	DD	FLAT:__unwindfunclet$?DrawComponentRatio_Bar_Line@CFundDraw@@AAE_NPAVCDC@@ABVCEtcGraphColor@@ABVCRect@@ABVCGraphColor@@HHHABN4ABV?$CList@PAVCPacket@@PAV1@@@VCPenThickness@@@Z$20
	DD	014H
	DD	FLAT:__unwindfunclet$?DrawComponentRatio_Bar_Line@CFundDraw@@AAE_NPAVCDC@@ABVCEtcGraphColor@@ABVCRect@@ABVCGraphColor@@HHHABN4ABV?$CList@PAVCPacket@@PAV1@@@VCPenThickness@@@Z$21
	DD	015H
	DD	FLAT:__unwindfunclet$?DrawComponentRatio_Bar_Line@CFundDraw@@AAE_NPAVCDC@@ABVCEtcGraphColor@@ABVCRect@@ABVCGraphColor@@HHHABN4ABV?$CList@PAVCPacket@@PAV1@@@VCPenThickness@@@Z$22
	DD	016H
	DD	FLAT:__unwindfunclet$?DrawComponentRatio_Bar_Line@CFundDraw@@AAE_NPAVCDC@@ABVCEtcGraphColor@@ABVCRect@@ABVCGraphColor@@HHHABN4ABV?$CList@PAVCPacket@@PAV1@@@VCPenThickness@@@Z$23
	DD	017H
	DD	FLAT:__unwindfunclet$?DrawComponentRatio_Bar_Line@CFundDraw@@AAE_NPAVCDC@@ABVCEtcGraphColor@@ABVCRect@@ABVCGraphColor@@HHHABN4ABV?$CList@PAVCPacket@@PAV1@@@VCPenThickness@@@Z$24
	DD	016H
	DD	FLAT:__unwindfunclet$?DrawComponentRatio_Bar_Line@CFundDraw@@AAE_NPAVCDC@@ABVCEtcGraphColor@@ABVCRect@@ABVCGraphColor@@HHHABN4ABV?$CList@PAVCPacket@@PAV1@@@VCPenThickness@@@Z$24
	DD	015H
	DD	FLAT:__unwindfunclet$?DrawComponentRatio_Bar_Line@CFundDraw@@AAE_NPAVCDC@@ABVCEtcGraphColor@@ABVCRect@@ABVCGraphColor@@HHHABN4ABV?$CList@PAVCPacket@@PAV1@@@VCPenThickness@@@Z$24
	DD	01aH
	DD	FLAT:__unwindfunclet$?DrawComponentRatio_Bar_Line@CFundDraw@@AAE_NPAVCDC@@ABVCEtcGraphColor@@ABVCRect@@ABVCGraphColor@@HHHABN4ABV?$CList@PAVCPacket@@PAV1@@@VCPenThickness@@@Z$25
	DD	01bH
	DD	FLAT:__unwindfunclet$?DrawComponentRatio_Bar_Line@CFundDraw@@AAE_NPAVCDC@@ABVCEtcGraphColor@@ABVCRect@@ABVCGraphColor@@HHHABN4ABV?$CList@PAVCPacket@@PAV1@@@VCPenThickness@@@Z$26
	DD	01cH
	DD	FLAT:__unwindfunclet$?DrawComponentRatio_Bar_Line@CFundDraw@@AAE_NPAVCDC@@ABVCEtcGraphColor@@ABVCRect@@ABVCGraphColor@@HHHABN4ABV?$CList@PAVCPacket@@PAV1@@@VCPenThickness@@@Z$27
	DD	01bH
	DD	FLAT:__unwindfunclet$?DrawComponentRatio_Bar_Line@CFundDraw@@AAE_NPAVCDC@@ABVCEtcGraphColor@@ABVCRect@@ABVCGraphColor@@HHHABN4ABV?$CList@PAVCPacket@@PAV1@@@VCPenThickness@@@Z$27
	DD	01aH
	DD	FLAT:__unwindfunclet$?DrawComponentRatio_Bar_Line@CFundDraw@@AAE_NPAVCDC@@ABVCEtcGraphColor@@ABVCRect@@ABVCGraphColor@@HHHABN4ABV?$CList@PAVCPacket@@PAV1@@@VCPenThickness@@@Z$27
	DD	0ffffffffH
	DD	FLAT:___std_terminate
xdata$x	ENDS
;	COMDAT xdata$x
xdata$x	SEGMENT
__unwindtable$?DrawComponentRatio_Pie@CFundDraw@@AAE_NPAVCDC@@ABVCRect@@ABVCDisplayAttributes@@ABVCDrawingGraphData@@ABVCSubGraphData@@@Z DD 0ffffffffH
	DD	FLAT:__unwindfunclet$?DrawComponentRatio_Pie@CFundDraw@@AAE_NPAVCDC@@ABVCRect@@ABVCDisplayAttributes@@ABVCDrawingGraphData@@ABVCSubGraphData@@@Z$0
__ehfuncinfo$?DrawComponentRatio_Pie@CFundDraw@@AAE_NPAVCDC@@ABVCRect@@ABVCDisplayAttributes@@ABVCDrawingGraphData@@ABVCSubGraphData@@@Z DD 019930522H
	DD	01H
	DD	FLAT:__unwindtable$?DrawComponentRatio_Pie@CFundDraw@@AAE_NPAVCDC@@ABVCRect@@ABVCDisplayAttributes@@ABVCDrawingGraphData@@ABVCSubGraphData@@@Z
	DD	2 DUP(00H)
	DD	2 DUP(00H)
	DD	00H
	DD	01H
xdata$x	ENDS
;	COMDAT xdata$x
xdata$x	SEGMENT
__unwindtable$?DrawFundMarketDispersion@CFundDraw@@AAE_NPAVCDC@@ABVCEtcGraphColor@@ABVCRect@@ABVCGraphColor@@HABN4ABV?$CList@PAVCPacket@@PAV1@@@VCPenThickness@@@Z DD 0ffffffffH
	DD	FLAT:__unwindfunclet$?DrawFundMarketDispersion@CFundDraw@@AAE_NPAVCDC@@ABVCEtcGraphColor@@ABVCRect@@ABVCGraphColor@@HABN4ABV?$CList@PAVCPacket@@PAV1@@@VCPenThickness@@@Z$0
	DD	00H
	DD	FLAT:__unwindfunclet$?DrawFundMarketDispersion@CFundDraw@@AAE_NPAVCDC@@ABVCEtcGraphColor@@ABVCRect@@ABVCGraphColor@@HABN4ABV?$CList@PAVCPacket@@PAV1@@@VCPenThickness@@@Z$1
	DD	01H
	DD	FLAT:__unwindfunclet$?DrawFundMarketDispersion@CFundDraw@@AAE_NPAVCDC@@ABVCEtcGraphColor@@ABVCRect@@ABVCGraphColor@@HABN4ABV?$CList@PAVCPacket@@PAV1@@@VCPenThickness@@@Z$2
__ehfuncinfo$?DrawFundMarketDispersion@CFundDraw@@AAE_NPAVCDC@@ABVCEtcGraphColor@@ABVCRect@@ABVCGraphColor@@HABN4ABV?$CList@PAVCPacket@@PAV1@@@VCPenThickness@@@Z DD 019930522H
	DD	03H
	DD	FLAT:__unwindtable$?DrawFundMarketDispersion@CFundDraw@@AAE_NPAVCDC@@ABVCEtcGraphColor@@ABVCRect@@ABVCGraphColor@@HABN4ABV?$CList@PAVCPacket@@PAV1@@@VCPenThickness@@@Z
	DD	2 DUP(00H)
	DD	2 DUP(00H)
	DD	00H
	DD	01H
xdata$x	ENDS
;	COMDAT xdata$x
xdata$x	SEGMENT
__ehfuncinfo$?DrawReturnRiskDispersion@CFundDraw@@AAE_NPAVCDC@@ABVCEtcGraphColor@@ABVCRect@@ABVCGraphColor@@HABN444ABV?$CList@PAVCPacket@@PAV1@@@@Z DD 019930522H
	DD	06H
	DD	FLAT:__unwindtable$?DrawReturnRiskDispersion@CFundDraw@@AAE_NPAVCDC@@ABVCEtcGraphColor@@ABVCRect@@ABVCGraphColor@@HABN444ABV?$CList@PAVCPacket@@PAV1@@@@Z
	DD	2 DUP(00H)
	DD	2 DUP(00H)
	DD	00H
	DD	01H
__unwindtable$?DrawReturnRiskDispersion@CFundDraw@@AAE_NPAVCDC@@ABVCEtcGraphColor@@ABVCRect@@ABVCGraphColor@@HABN444ABV?$CList@PAVCPacket@@PAV1@@@@Z DD 0ffffffffH
	DD	FLAT:__unwindfunclet$?DrawReturnRiskDispersion@CFundDraw@@AAE_NPAVCDC@@ABVCEtcGraphColor@@ABVCRect@@ABVCGraphColor@@HABN444ABV?$CList@PAVCPacket@@PAV1@@@@Z$0
	DD	00H
	DD	FLAT:__unwindfunclet$?DrawReturnRiskDispersion@CFundDraw@@AAE_NPAVCDC@@ABVCEtcGraphColor@@ABVCRect@@ABVCGraphColor@@HABN444ABV?$CList@PAVCPacket@@PAV1@@@@Z$1
	DD	01H
	DD	FLAT:__unwindfunclet$?DrawReturnRiskDispersion@CFundDraw@@AAE_NPAVCDC@@ABVCEtcGraphColor@@ABVCRect@@ABVCGraphColor@@HABN444ABV?$CList@PAVCPacket@@PAV1@@@@Z$2
	DD	02H
	DD	FLAT:__unwindfunclet$?DrawReturnRiskDispersion@CFundDraw@@AAE_NPAVCDC@@ABVCEtcGraphColor@@ABVCRect@@ABVCGraphColor@@HABN444ABV?$CList@PAVCPacket@@PAV1@@@@Z$3
	DD	03H
	DD	FLAT:__unwindfunclet$?DrawReturnRiskDispersion@CFundDraw@@AAE_NPAVCDC@@ABVCEtcGraphColor@@ABVCRect@@ABVCGraphColor@@HABN444ABV?$CList@PAVCPacket@@PAV1@@@@Z$4
	DD	04H
	DD	FLAT:__unwindfunclet$?DrawReturnRiskDispersion@CFundDraw@@AAE_NPAVCDC@@ABVCEtcGraphColor@@ABVCRect@@ABVCGraphColor@@HABN444ABV?$CList@PAVCPacket@@PAV1@@@@Z$5
xdata$x	ENDS
;	COMDAT xdata$x
xdata$x	SEGMENT
__ehfuncinfo$?DrawComponentRatio_Line@CFundDraw@@AAE_NPAVCDC@@ABVCEtcGraphColor@@ABVCRect@@ABVCGraphColor@@HHHABN4ABV?$CList@PAVCPacket@@PAV1@@@VCPenThickness@@@Z DD 019930522H
	DD	020H
	DD	FLAT:__unwindtable$?DrawComponentRatio_Line@CFundDraw@@AAE_NPAVCDC@@ABVCEtcGraphColor@@ABVCRect@@ABVCGraphColor@@HHHABN4ABV?$CList@PAVCPacket@@PAV1@@@VCPenThickness@@@Z
	DD	2 DUP(00H)
	DD	2 DUP(00H)
	DD	00H
	DD	01H
__unwindtable$?DrawComponentRatio_Line@CFundDraw@@AAE_NPAVCDC@@ABVCEtcGraphColor@@ABVCRect@@ABVCGraphColor@@HHHABN4ABV?$CList@PAVCPacket@@PAV1@@@VCPenThickness@@@Z DD 0ffffffffH
	DD	FLAT:__unwindfunclet$?DrawComponentRatio_Line@CFundDraw@@AAE_NPAVCDC@@ABVCEtcGraphColor@@ABVCRect@@ABVCGraphColor@@HHHABN4ABV?$CList@PAVCPacket@@PAV1@@@VCPenThickness@@@Z$0
	DD	00H
	DD	FLAT:__unwindfunclet$?DrawComponentRatio_Line@CFundDraw@@AAE_NPAVCDC@@ABVCEtcGraphColor@@ABVCRect@@ABVCGraphColor@@HHHABN4ABV?$CList@PAVCPacket@@PAV1@@@VCPenThickness@@@Z$1
	DD	01H
	DD	FLAT:__unwindfunclet$?DrawComponentRatio_Line@CFundDraw@@AAE_NPAVCDC@@ABVCEtcGraphColor@@ABVCRect@@ABVCGraphColor@@HHHABN4ABV?$CList@PAVCPacket@@PAV1@@@VCPenThickness@@@Z$2
	DD	02H
	DD	FLAT:__unwindfunclet$?DrawComponentRatio_Line@CFundDraw@@AAE_NPAVCDC@@ABVCEtcGraphColor@@ABVCRect@@ABVCGraphColor@@HHHABN4ABV?$CList@PAVCPacket@@PAV1@@@VCPenThickness@@@Z$3
	DD	03H
	DD	FLAT:__unwindfunclet$?DrawComponentRatio_Line@CFundDraw@@AAE_NPAVCDC@@ABVCEtcGraphColor@@ABVCRect@@ABVCGraphColor@@HHHABN4ABV?$CList@PAVCPacket@@PAV1@@@VCPenThickness@@@Z$4
	DD	04H
	DD	FLAT:__unwindfunclet$?DrawComponentRatio_Line@CFundDraw@@AAE_NPAVCDC@@ABVCEtcGraphColor@@ABVCRect@@ABVCGraphColor@@HHHABN4ABV?$CList@PAVCPacket@@PAV1@@@VCPenThickness@@@Z$5
	DD	05H
	DD	FLAT:__unwindfunclet$?DrawComponentRatio_Line@CFundDraw@@AAE_NPAVCDC@@ABVCEtcGraphColor@@ABVCRect@@ABVCGraphColor@@HHHABN4ABV?$CList@PAVCPacket@@PAV1@@@VCPenThickness@@@Z$6
	DD	06H
	DD	FLAT:__unwindfunclet$?DrawComponentRatio_Line@CFundDraw@@AAE_NPAVCDC@@ABVCEtcGraphColor@@ABVCRect@@ABVCGraphColor@@HHHABN4ABV?$CList@PAVCPacket@@PAV1@@@VCPenThickness@@@Z$7
	DD	07H
	DD	FLAT:__unwindfunclet$?DrawComponentRatio_Line@CFundDraw@@AAE_NPAVCDC@@ABVCEtcGraphColor@@ABVCRect@@ABVCGraphColor@@HHHABN4ABV?$CList@PAVCPacket@@PAV1@@@VCPenThickness@@@Z$8
	DD	08H
	DD	FLAT:__unwindfunclet$?DrawComponentRatio_Line@CFundDraw@@AAE_NPAVCDC@@ABVCEtcGraphColor@@ABVCRect@@ABVCGraphColor@@HHHABN4ABV?$CList@PAVCPacket@@PAV1@@@VCPenThickness@@@Z$9
	DD	09H
	DD	FLAT:__unwindfunclet$?DrawComponentRatio_Line@CFundDraw@@AAE_NPAVCDC@@ABVCEtcGraphColor@@ABVCRect@@ABVCGraphColor@@HHHABN4ABV?$CList@PAVCPacket@@PAV1@@@VCPenThickness@@@Z$10
	DD	0aH
	DD	FLAT:__unwindfunclet$?DrawComponentRatio_Line@CFundDraw@@AAE_NPAVCDC@@ABVCEtcGraphColor@@ABVCRect@@ABVCGraphColor@@HHHABN4ABV?$CList@PAVCPacket@@PAV1@@@VCPenThickness@@@Z$11
	DD	0bH
	DD	FLAT:__unwindfunclet$?DrawComponentRatio_Line@CFundDraw@@AAE_NPAVCDC@@ABVCEtcGraphColor@@ABVCRect@@ABVCGraphColor@@HHHABN4ABV?$CList@PAVCPacket@@PAV1@@@VCPenThickness@@@Z$12
	DD	0cH
	DD	FLAT:__unwindfunclet$?DrawComponentRatio_Line@CFundDraw@@AAE_NPAVCDC@@ABVCEtcGraphColor@@ABVCRect@@ABVCGraphColor@@HHHABN4ABV?$CList@PAVCPacket@@PAV1@@@VCPenThickness@@@Z$13
	DD	0dH
	DD	FLAT:__unwindfunclet$?DrawComponentRatio_Line@CFundDraw@@AAE_NPAVCDC@@ABVCEtcGraphColor@@ABVCRect@@ABVCGraphColor@@HHHABN4ABV?$CList@PAVCPacket@@PAV1@@@VCPenThickness@@@Z$14
	DD	0eH
	DD	FLAT:__unwindfunclet$?DrawComponentRatio_Line@CFundDraw@@AAE_NPAVCDC@@ABVCEtcGraphColor@@ABVCRect@@ABVCGraphColor@@HHHABN4ABV?$CList@PAVCPacket@@PAV1@@@VCPenThickness@@@Z$15
	DD	0fH
	DD	FLAT:__unwindfunclet$?DrawComponentRatio_Line@CFundDraw@@AAE_NPAVCDC@@ABVCEtcGraphColor@@ABVCRect@@ABVCGraphColor@@HHHABN4ABV?$CList@PAVCPacket@@PAV1@@@VCPenThickness@@@Z$16
	DD	010H
	DD	FLAT:__unwindfunclet$?DrawComponentRatio_Line@CFundDraw@@AAE_NPAVCDC@@ABVCEtcGraphColor@@ABVCRect@@ABVCGraphColor@@HHHABN4ABV?$CList@PAVCPacket@@PAV1@@@VCPenThickness@@@Z$17
	DD	011H
	DD	FLAT:__unwindfunclet$?DrawComponentRatio_Line@CFundDraw@@AAE_NPAVCDC@@ABVCEtcGraphColor@@ABVCRect@@ABVCGraphColor@@HHHABN4ABV?$CList@PAVCPacket@@PAV1@@@VCPenThickness@@@Z$18
	DD	012H
	DD	FLAT:__unwindfunclet$?DrawComponentRatio_Line@CFundDraw@@AAE_NPAVCDC@@ABVCEtcGraphColor@@ABVCRect@@ABVCGraphColor@@HHHABN4ABV?$CList@PAVCPacket@@PAV1@@@VCPenThickness@@@Z$19
	DD	013H
	DD	FLAT:__unwindfunclet$?DrawComponentRatio_Line@CFundDraw@@AAE_NPAVCDC@@ABVCEtcGraphColor@@ABVCRect@@ABVCGraphColor@@HHHABN4ABV?$CList@PAVCPacket@@PAV1@@@VCPenThickness@@@Z$20
	DD	014H
	DD	FLAT:__unwindfunclet$?DrawComponentRatio_Line@CFundDraw@@AAE_NPAVCDC@@ABVCEtcGraphColor@@ABVCRect@@ABVCGraphColor@@HHHABN4ABV?$CList@PAVCPacket@@PAV1@@@VCPenThickness@@@Z$21
	DD	015H
	DD	FLAT:__unwindfunclet$?DrawComponentRatio_Line@CFundDraw@@AAE_NPAVCDC@@ABVCEtcGraphColor@@ABVCRect@@ABVCGraphColor@@HHHABN4ABV?$CList@PAVCPacket@@PAV1@@@VCPenThickness@@@Z$22
	DD	016H
	DD	FLAT:__unwindfunclet$?DrawComponentRatio_Line@CFundDraw@@AAE_NPAVCDC@@ABVCEtcGraphColor@@ABVCRect@@ABVCGraphColor@@HHHABN4ABV?$CList@PAVCPacket@@PAV1@@@VCPenThickness@@@Z$23
	DD	015H
	DD	FLAT:__unwindfunclet$?DrawComponentRatio_Line@CFundDraw@@AAE_NPAVCDC@@ABVCEtcGraphColor@@ABVCRect@@ABVCGraphColor@@HHHABN4ABV?$CList@PAVCPacket@@PAV1@@@VCPenThickness@@@Z$23
	DD	014H
	DD	FLAT:__unwindfunclet$?DrawComponentRatio_Line@CFundDraw@@AAE_NPAVCDC@@ABVCEtcGraphColor@@ABVCRect@@ABVCGraphColor@@HHHABN4ABV?$CList@PAVCPacket@@PAV1@@@VCPenThickness@@@Z$23
	DD	019H
	DD	FLAT:__unwindfunclet$?DrawComponentRatio_Line@CFundDraw@@AAE_NPAVCDC@@ABVCEtcGraphColor@@ABVCRect@@ABVCGraphColor@@HHHABN4ABV?$CList@PAVCPacket@@PAV1@@@VCPenThickness@@@Z$24
	DD	01aH
	DD	FLAT:__unwindfunclet$?DrawComponentRatio_Line@CFundDraw@@AAE_NPAVCDC@@ABVCEtcGraphColor@@ABVCRect@@ABVCGraphColor@@HHHABN4ABV?$CList@PAVCPacket@@PAV1@@@VCPenThickness@@@Z$25
	DD	01bH
	DD	FLAT:__unwindfunclet$?DrawComponentRatio_Line@CFundDraw@@AAE_NPAVCDC@@ABVCEtcGraphColor@@ABVCRect@@ABVCGraphColor@@HHHABN4ABV?$CList@PAVCPacket@@PAV1@@@VCPenThickness@@@Z$26
	DD	01aH
	DD	FLAT:__unwindfunclet$?DrawComponentRatio_Line@CFundDraw@@AAE_NPAVCDC@@ABVCEtcGraphColor@@ABVCRect@@ABVCGraphColor@@HHHABN4ABV?$CList@PAVCPacket@@PAV1@@@VCPenThickness@@@Z$26
	DD	019H
	DD	FLAT:__unwindfunclet$?DrawComponentRatio_Line@CFundDraw@@AAE_NPAVCDC@@ABVCEtcGraphColor@@ABVCRect@@ABVCGraphColor@@HHHABN4ABV?$CList@PAVCPacket@@PAV1@@@VCPenThickness@@@Z$26
	DD	0ffffffffH
	DD	FLAT:___std_terminate
xdata$x	ENDS
;	COMDAT xdata$x
xdata$x	SEGMENT
__ehfuncinfo$?DrawReturnRiskGrade@CFundDraw@@AAE_NPAVCDC@@ABVCEtcGraphColor@@ABVCRect@@ABVCGraphColor@@HABN4ABV?$CList@PAVCPacket@@PAV1@@@VCPenThickness@@@Z DD 019930522H
	DD	05H
	DD	FLAT:__unwindtable$?DrawReturnRiskGrade@CFundDraw@@AAE_NPAVCDC@@ABVCEtcGraphColor@@ABVCRect@@ABVCGraphColor@@HABN4ABV?$CList@PAVCPacket@@PAV1@@@VCPenThickness@@@Z
	DD	2 DUP(00H)
	DD	2 DUP(00H)
	DD	00H
	DD	01H
__unwindtable$?DrawReturnRiskGrade@CFundDraw@@AAE_NPAVCDC@@ABVCEtcGraphColor@@ABVCRect@@ABVCGraphColor@@HABN4ABV?$CList@PAVCPacket@@PAV1@@@VCPenThickness@@@Z DD 0ffffffffH
	DD	FLAT:__unwindfunclet$?DrawReturnRiskGrade@CFundDraw@@AAE_NPAVCDC@@ABVCEtcGraphColor@@ABVCRect@@ABVCGraphColor@@HABN4ABV?$CList@PAVCPacket@@PAV1@@@VCPenThickness@@@Z$0
	DD	00H
	DD	FLAT:__unwindfunclet$?DrawReturnRiskGrade@CFundDraw@@AAE_NPAVCDC@@ABVCEtcGraphColor@@ABVCRect@@ABVCGraphColor@@HABN4ABV?$CList@PAVCPacket@@PAV1@@@VCPenThickness@@@Z$1
	DD	01H
	DD	FLAT:__unwindfunclet$?DrawReturnRiskGrade@CFundDraw@@AAE_NPAVCDC@@ABVCEtcGraphColor@@ABVCRect@@ABVCGraphColor@@HABN4ABV?$CList@PAVCPacket@@PAV1@@@VCPenThickness@@@Z$2
	DD	02H
	DD	FLAT:__unwindfunclet$?DrawReturnRiskGrade@CFundDraw@@AAE_NPAVCDC@@ABVCEtcGraphColor@@ABVCRect@@ABVCGraphColor@@HABN4ABV?$CList@PAVCPacket@@PAV1@@@VCPenThickness@@@Z$3
	DD	03H
	DD	FLAT:__unwindfunclet$?DrawReturnRiskGrade@CFundDraw@@AAE_NPAVCDC@@ABVCEtcGraphColor@@ABVCRect@@ABVCGraphColor@@HABN4ABV?$CList@PAVCPacket@@PAV1@@@VCPenThickness@@@Z$4
xdata$x	ENDS
;	COMDAT xdata$x
xdata$x	SEGMENT
__unwindtable$?DrawStyleBox@CFundDraw@@AAE_NPAVCDC@@ABVCEtcGraphColor@@ABVCRect@@ABVCGraphColor@@HABN4ABV?$CList@PAVCPacket@@PAV1@@@VCPenThickness@@@Z DD 0ffffffffH
	DD	FLAT:__unwindfunclet$?DrawStyleBox@CFundDraw@@AAE_NPAVCDC@@ABVCEtcGraphColor@@ABVCRect@@ABVCGraphColor@@HABN4ABV?$CList@PAVCPacket@@PAV1@@@VCPenThickness@@@Z$0
	DD	00H
	DD	FLAT:__unwindfunclet$?DrawStyleBox@CFundDraw@@AAE_NPAVCDC@@ABVCEtcGraphColor@@ABVCRect@@ABVCGraphColor@@HABN4ABV?$CList@PAVCPacket@@PAV1@@@VCPenThickness@@@Z$1
	DD	01H
	DD	FLAT:__unwindfunclet$?DrawStyleBox@CFundDraw@@AAE_NPAVCDC@@ABVCEtcGraphColor@@ABVCRect@@ABVCGraphColor@@HABN4ABV?$CList@PAVCPacket@@PAV1@@@VCPenThickness@@@Z$2
	DD	02H
	DD	FLAT:__unwindfunclet$?DrawStyleBox@CFundDraw@@AAE_NPAVCDC@@ABVCEtcGraphColor@@ABVCRect@@ABVCGraphColor@@HABN4ABV?$CList@PAVCPacket@@PAV1@@@VCPenThickness@@@Z$3
__ehfuncinfo$?DrawStyleBox@CFundDraw@@AAE_NPAVCDC@@ABVCEtcGraphColor@@ABVCRect@@ABVCGraphColor@@HABN4ABV?$CList@PAVCPacket@@PAV1@@@VCPenThickness@@@Z DD 019930522H
	DD	04H
	DD	FLAT:__unwindtable$?DrawStyleBox@CFundDraw@@AAE_NPAVCDC@@ABVCEtcGraphColor@@ABVCRect@@ABVCGraphColor@@HABN4ABV?$CList@PAVCPacket@@PAV1@@@VCPenThickness@@@Z
	DD	2 DUP(00H)
	DD	2 DUP(00H)
	DD	00H
	DD	01H
xdata$x	ENDS
;	COMDAT xdata$x
xdata$x	SEGMENT
__ehfuncinfo$?DrawComponentRatio_Bar@CFundDraw@@AAE_NPAVCDC@@ABVCEtcGraphColor@@ABVCRect@@ABVCGraphColor@@HHHABN4ABV?$CList@PAVCPacket@@PAV1@@@VCPenThickness@@@Z DD 019930522H
	DD	01cH
	DD	FLAT:__unwindtable$?DrawComponentRatio_Bar@CFundDraw@@AAE_NPAVCDC@@ABVCEtcGraphColor@@ABVCRect@@ABVCGraphColor@@HHHABN4ABV?$CList@PAVCPacket@@PAV1@@@VCPenThickness@@@Z
	DD	2 DUP(00H)
	DD	2 DUP(00H)
	DD	00H
	DD	01H
__unwindtable$?DrawComponentRatio_Bar@CFundDraw@@AAE_NPAVCDC@@ABVCEtcGraphColor@@ABVCRect@@ABVCGraphColor@@HHHABN4ABV?$CList@PAVCPacket@@PAV1@@@VCPenThickness@@@Z DD 0ffffffffH
	DD	FLAT:__unwindfunclet$?DrawComponentRatio_Bar@CFundDraw@@AAE_NPAVCDC@@ABVCEtcGraphColor@@ABVCRect@@ABVCGraphColor@@HHHABN4ABV?$CList@PAVCPacket@@PAV1@@@VCPenThickness@@@Z$0
	DD	00H
	DD	FLAT:__unwindfunclet$?DrawComponentRatio_Bar@CFundDraw@@AAE_NPAVCDC@@ABVCEtcGraphColor@@ABVCRect@@ABVCGraphColor@@HHHABN4ABV?$CList@PAVCPacket@@PAV1@@@VCPenThickness@@@Z$1
	DD	01H
	DD	FLAT:__unwindfunclet$?DrawComponentRatio_Bar@CFundDraw@@AAE_NPAVCDC@@ABVCEtcGraphColor@@ABVCRect@@ABVCGraphColor@@HHHABN4ABV?$CList@PAVCPacket@@PAV1@@@VCPenThickness@@@Z$2
	DD	02H
	DD	FLAT:__unwindfunclet$?DrawComponentRatio_Bar@CFundDraw@@AAE_NPAVCDC@@ABVCEtcGraphColor@@ABVCRect@@ABVCGraphColor@@HHHABN4ABV?$CList@PAVCPacket@@PAV1@@@VCPenThickness@@@Z$3
	DD	03H
	DD	FLAT:__unwindfunclet$?DrawComponentRatio_Bar@CFundDraw@@AAE_NPAVCDC@@ABVCEtcGraphColor@@ABVCRect@@ABVCGraphColor@@HHHABN4ABV?$CList@PAVCPacket@@PAV1@@@VCPenThickness@@@Z$4
	DD	04H
	DD	FLAT:__unwindfunclet$?DrawComponentRatio_Bar@CFundDraw@@AAE_NPAVCDC@@ABVCEtcGraphColor@@ABVCRect@@ABVCGraphColor@@HHHABN4ABV?$CList@PAVCPacket@@PAV1@@@VCPenThickness@@@Z$5
	DD	05H
	DD	FLAT:__unwindfunclet$?DrawComponentRatio_Bar@CFundDraw@@AAE_NPAVCDC@@ABVCEtcGraphColor@@ABVCRect@@ABVCGraphColor@@HHHABN4ABV?$CList@PAVCPacket@@PAV1@@@VCPenThickness@@@Z$6
	DD	06H
	DD	FLAT:__unwindfunclet$?DrawComponentRatio_Bar@CFundDraw@@AAE_NPAVCDC@@ABVCEtcGraphColor@@ABVCRect@@ABVCGraphColor@@HHHABN4ABV?$CList@PAVCPacket@@PAV1@@@VCPenThickness@@@Z$7
	DD	07H
	DD	FLAT:__unwindfunclet$?DrawComponentRatio_Bar@CFundDraw@@AAE_NPAVCDC@@ABVCEtcGraphColor@@ABVCRect@@ABVCGraphColor@@HHHABN4ABV?$CList@PAVCPacket@@PAV1@@@VCPenThickness@@@Z$8
	DD	08H
	DD	FLAT:__unwindfunclet$?DrawComponentRatio_Bar@CFundDraw@@AAE_NPAVCDC@@ABVCEtcGraphColor@@ABVCRect@@ABVCGraphColor@@HHHABN4ABV?$CList@PAVCPacket@@PAV1@@@VCPenThickness@@@Z$9
	DD	09H
	DD	FLAT:__unwindfunclet$?DrawComponentRatio_Bar@CFundDraw@@AAE_NPAVCDC@@ABVCEtcGraphColor@@ABVCRect@@ABVCGraphColor@@HHHABN4ABV?$CList@PAVCPacket@@PAV1@@@VCPenThickness@@@Z$10
	DD	0aH
	DD	FLAT:__unwindfunclet$?DrawComponentRatio_Bar@CFundDraw@@AAE_NPAVCDC@@ABVCEtcGraphColor@@ABVCRect@@ABVCGraphColor@@HHHABN4ABV?$CList@PAVCPacket@@PAV1@@@VCPenThickness@@@Z$11
	DD	0bH
	DD	FLAT:__unwindfunclet$?DrawComponentRatio_Bar@CFundDraw@@AAE_NPAVCDC@@ABVCEtcGraphColor@@ABVCRect@@ABVCGraphColor@@HHHABN4ABV?$CList@PAVCPacket@@PAV1@@@VCPenThickness@@@Z$12
	DD	0cH
	DD	FLAT:__unwindfunclet$?DrawComponentRatio_Bar@CFundDraw@@AAE_NPAVCDC@@ABVCEtcGraphColor@@ABVCRect@@ABVCGraphColor@@HHHABN4ABV?$CList@PAVCPacket@@PAV1@@@VCPenThickness@@@Z$13
	DD	0dH
	DD	FLAT:__unwindfunclet$?DrawComponentRatio_Bar@CFundDraw@@AAE_NPAVCDC@@ABVCEtcGraphColor@@ABVCRect@@ABVCGraphColor@@HHHABN4ABV?$CList@PAVCPacket@@PAV1@@@VCPenThickness@@@Z$14
	DD	0eH
	DD	FLAT:__unwindfunclet$?DrawComponentRatio_Bar@CFundDraw@@AAE_NPAVCDC@@ABVCEtcGraphColor@@ABVCRect@@ABVCGraphColor@@HHHABN4ABV?$CList@PAVCPacket@@PAV1@@@VCPenThickness@@@Z$15
	DD	0fH
	DD	FLAT:__unwindfunclet$?DrawComponentRatio_Bar@CFundDraw@@AAE_NPAVCDC@@ABVCEtcGraphColor@@ABVCRect@@ABVCGraphColor@@HHHABN4ABV?$CList@PAVCPacket@@PAV1@@@VCPenThickness@@@Z$16
	DD	010H
	DD	FLAT:__unwindfunclet$?DrawComponentRatio_Bar@CFundDraw@@AAE_NPAVCDC@@ABVCEtcGraphColor@@ABVCRect@@ABVCGraphColor@@HHHABN4ABV?$CList@PAVCPacket@@PAV1@@@VCPenThickness@@@Z$17
	DD	011H
	DD	FLAT:__unwindfunclet$?DrawComponentRatio_Bar@CFundDraw@@AAE_NPAVCDC@@ABVCEtcGraphColor@@ABVCRect@@ABVCGraphColor@@HHHABN4ABV?$CList@PAVCPacket@@PAV1@@@VCPenThickness@@@Z$18
	DD	012H
	DD	FLAT:__unwindfunclet$?DrawComponentRatio_Bar@CFundDraw@@AAE_NPAVCDC@@ABVCEtcGraphColor@@ABVCRect@@ABVCGraphColor@@HHHABN4ABV?$CList@PAVCPacket@@PAV1@@@VCPenThickness@@@Z$19
	DD	013H
	DD	FLAT:__unwindfunclet$?DrawComponentRatio_Bar@CFundDraw@@AAE_NPAVCDC@@ABVCEtcGraphColor@@ABVCRect@@ABVCGraphColor@@HHHABN4ABV?$CList@PAVCPacket@@PAV1@@@VCPenThickness@@@Z$20
	DD	014H
	DD	FLAT:__unwindfunclet$?DrawComponentRatio_Bar@CFundDraw@@AAE_NPAVCDC@@ABVCEtcGraphColor@@ABVCRect@@ABVCGraphColor@@HHHABN4ABV?$CList@PAVCPacket@@PAV1@@@VCPenThickness@@@Z$21
	DD	015H
	DD	FLAT:__unwindfunclet$?DrawComponentRatio_Bar@CFundDraw@@AAE_NPAVCDC@@ABVCEtcGraphColor@@ABVCRect@@ABVCGraphColor@@HHHABN4ABV?$CList@PAVCPacket@@PAV1@@@VCPenThickness@@@Z$22
	DD	016H
	DD	FLAT:__unwindfunclet$?DrawComponentRatio_Bar@CFundDraw@@AAE_NPAVCDC@@ABVCEtcGraphColor@@ABVCRect@@ABVCGraphColor@@HHHABN4ABV?$CList@PAVCPacket@@PAV1@@@VCPenThickness@@@Z$23
	DD	017H
	DD	FLAT:__unwindfunclet$?DrawComponentRatio_Bar@CFundDraw@@AAE_NPAVCDC@@ABVCEtcGraphColor@@ABVCRect@@ABVCGraphColor@@HHHABN4ABV?$CList@PAVCPacket@@PAV1@@@VCPenThickness@@@Z$24
	DD	016H
	DD	FLAT:__unwindfunclet$?DrawComponentRatio_Bar@CFundDraw@@AAE_NPAVCDC@@ABVCEtcGraphColor@@ABVCRect@@ABVCGraphColor@@HHHABN4ABV?$CList@PAVCPacket@@PAV1@@@VCPenThickness@@@Z$24
	DD	015H
	DD	FLAT:__unwindfunclet$?DrawComponentRatio_Bar@CFundDraw@@AAE_NPAVCDC@@ABVCEtcGraphColor@@ABVCRect@@ABVCGraphColor@@HHHABN4ABV?$CList@PAVCPacket@@PAV1@@@VCPenThickness@@@Z$24
	DD	0ffffffffH
	DD	FLAT:___std_terminate
xdata$x	ENDS
;	COMDAT xdata$x
xdata$x	SEGMENT
__catchsym$??1CGdiObject@@UAE@XZ$3 DD 00H
	DD	FLAT:??_R0PAVCException@@@8
	DD	0fffffde4H
	DD	FLAT:__catch$??1CGdiObject@@UAE@XZ$0
__tryblocktable$??1CGdiObject@@UAE@XZ DD 00H
	DD	00H
	DD	02H
	DD	01H
	DD	FLAT:__catchsym$??1CGdiObject@@UAE@XZ$3
__unwindtable$??1CGdiObject@@UAE@XZ DD 0ffffffffH
	DD	00H
	DD	0ffffffffH
	DD	00H
	DD	01H
	DD	FLAT:__unwindfunclet$??1CGdiObject@@UAE@XZ$2
__ehfuncinfo$??1CGdiObject@@UAE@XZ DD 019930522H
	DD	03H
	DD	FLAT:__unwindtable$??1CGdiObject@@UAE@XZ
	DD	01H
	DD	FLAT:__tryblocktable$??1CGdiObject@@UAE@XZ
	DD	2 DUP(00H)
	DD	00H
	DD	05H
xdata$x	ENDS
; Function compile flags: /Ogtp
; File C:\Program Files (x86)\Microsoft Visual Studio\2019\Community\VC\Tools\MSVC\14.29.30133\atlmfc\include\afxtempl.h
; File C:\Program Files (x86)\Microsoft Visual Studio\2019\Community\VC\Tools\MSVC\14.29.30133\atlmfc\include\afx.inl
; File C:\Program Files (x86)\Microsoft Visual Studio\2019\Community\VC\Tools\MSVC\14.29.30133\atlmfc\include\afxtempl.h
; File C:\Program Files (x86)\Microsoft Visual Studio\2019\Community\VC\Tools\MSVC\14.29.30133\atlmfc\include\afx.inl
; File C:\Program Files (x86)\Microsoft Visual Studio\2019\Community\VC\Tools\MSVC\14.29.30133\atlmfc\include\afxtempl.h
; File C:\Program Files (x86)\Microsoft Visual Studio\2019\Community\VC\Tools\MSVC\14.29.30133\atlmfc\include\afx.inl
; File C:\Program Files (x86)\Microsoft Visual Studio\2019\Community\VC\Tools\MSVC\14.29.30133\atlmfc\include\afxtempl.h
;	COMDAT ??$SerializeElements@PAU__POSITION@@@@YGXAAVCArchive@@PAPAU__POSITION@@H@Z
_TEXT	SEGMENT
_ar$ = 8						; size = 4
_pElements$ = 12					; size = 4
_nCount$ = 16						; size = 4
??$SerializeElements@PAU__POSITION@@@@YGXAAVCArchive@@PAPAU__POSITION@@H@Z PROC ; SerializeElements<__POSITION *>, COMDAT

; 67   : {

  00000	55		 push	 ebp
  00001	8b ec		 mov	 ebp, esp

; 68   : 	ENSURE(nCount == 0 || pElements != NULL);

  00003	8b 4d 0c	 mov	 ecx, DWORD PTR _pElements$[ebp]
  00006	53		 push	 ebx
  00007	56		 push	 esi
  00008	8b 75 10	 mov	 esi, DWORD PTR _nCount$[ebp]
  0000b	57		 push	 edi
  0000c	85 f6		 test	 esi, esi
  0000e	74 08		 je	 SHORT $LN2@SerializeE
  00010	85 c9		 test	 ecx, ecx
  00012	0f 84 89 00 00
	00		 je	 $LN34@SerializeE
$LN2@SerializeE:
; File C:\Program Files (x86)\Microsoft Visual Studio\2019\Community\VC\Tools\MSVC\14.29.30133\atlmfc\include\afx.inl

; 212  : 	{ return (m_nMode & CArchive::load) == 0; }

  00018	8b 55 08	 mov	 edx, DWORD PTR _ar$[ebp]
  0001b	8b 42 18	 mov	 eax, DWORD PTR [edx+24]
  0001e	f7 d0		 not	 eax
  00020	a8 01		 test	 al, 1
; File C:\Program Files (x86)\Microsoft Visual Studio\2019\Community\VC\Tools\MSVC\14.29.30133\atlmfc\include\afxtempl.h

; 73   : 	if (ar.IsStoring())

  00022	74 3c		 je	 SHORT $LN10@SerializeE

; 74   : 	{
; 75   : 		TYPE* pData;
; 76   : 		UINT_PTR nElementsLeft;
; 77   : 
; 78   : 		nElementsLeft = nCount;
; 79   : 		pData = pElements;
; 80   : 		while( nElementsLeft > 0 )

  00024	85 f6		 test	 esi, esi
  00026	74 31		 je	 SHORT $LN8@SerializeE
  00028	0f 1f 84 00 00
	00 00 00	 npad	 8
$LL5@SerializeE:

; 81   : 		{
; 82   : 			UINT nElementsToWrite;
; 83   : 
; 84   : 			nElementsToWrite = UINT(__min(nElementsLeft, INT_MAX/sizeof(TYPE)));

  00030	bb ff ff ff 1f	 mov	 ebx, 536870911		; 1fffffffH
  00035	3b f3		 cmp	 esi, ebx
  00037	0f 42 de	 cmovb	 ebx, esi

; 85   : 			ar.Write(pData, nElementsToWrite*sizeof(TYPE));

  0003a	8d 3c 9d 00 00
	00 00		 lea	 edi, DWORD PTR [ebx*4]
  00041	57		 push	 edi
  00042	51		 push	 ecx
  00043	8b ca		 mov	 ecx, edx
  00045	e8 00 00 00 00	 call	 ?Write@CArchive@@QAEXPBXI@Z ; CArchive::Write

; 86   : 			nElementsLeft -= nElementsToWrite;
; 87   : 			pData += nElementsToWrite;

  0004a	8b 4d 0c	 mov	 ecx, DWORD PTR _pElements$[ebp]
  0004d	8b 55 08	 mov	 edx, DWORD PTR _ar$[ebp]
  00050	03 cf		 add	 ecx, edi
  00052	89 4d 0c	 mov	 DWORD PTR _pElements$[ebp], ecx
  00055	2b f3		 sub	 esi, ebx
  00057	75 d7		 jne	 SHORT $LL5@SerializeE
$LN8@SerializeE:
  00059	5f		 pop	 edi

; 105  : 		}
; 106  : 	}
; 107  : }

  0005a	5e		 pop	 esi
  0005b	5b		 pop	 ebx
  0005c	5d		 pop	 ebp
  0005d	c2 0c 00	 ret	 12			; 0000000cH
$LN10@SerializeE:

; 97   : 		while( nElementsLeft > 0 )

  00060	85 f6		 test	 esi, esi
  00062	74 f5		 je	 SHORT $LN8@SerializeE
$LL7@SerializeE:

; 98   : 		{
; 99   : 			UINT nElementsToRead;
; 100  : 
; 101  : 			nElementsToRead = UINT(__min(nElementsLeft, INT_MAX/sizeof(TYPE)));

  00064	bf ff ff ff 1f	 mov	 edi, 536870911		; 1fffffffH
  00069	3b f7		 cmp	 esi, edi
  0006b	0f 42 fe	 cmovb	 edi, esi

; 102  : 			ar.EnsureRead(pData, nElementsToRead*sizeof(TYPE));

  0006e	8d 1c bd 00 00
	00 00		 lea	 ebx, DWORD PTR [edi*4]
; File C:\Program Files (x86)\Microsoft Visual Studio\2019\Community\VC\Tools\MSVC\14.29.30133\atlmfc\include\afx.inl

; 399  : 	UINT nRead=Read(lpBuf, nCount);

  00075	53		 push	 ebx
  00076	51		 push	 ecx
  00077	8b ca		 mov	 ecx, edx
  00079	e8 00 00 00 00	 call	 ?Read@CArchive@@QAEIPAXI@Z ; CArchive::Read

; 400  : 	if(nRead!=nCount)

  0007e	3b c3		 cmp	 eax, ebx
  00080	75 16		 jne	 SHORT $LN23@SerializeE
; File C:\Program Files (x86)\Microsoft Visual Studio\2019\Community\VC\Tools\MSVC\14.29.30133\atlmfc\include\afxtempl.h

; 97   : 		while( nElementsLeft > 0 )

  00082	8b 4d 0c	 mov	 ecx, DWORD PTR _pElements$[ebp]
  00085	8b 55 08	 mov	 edx, DWORD PTR _ar$[ebp]

; 103  : 			nElementsLeft -= nElementsToRead;
; 104  : 			pData += nElementsToRead;

  00088	03 cb		 add	 ecx, ebx
  0008a	89 4d 0c	 mov	 DWORD PTR _pElements$[ebp], ecx
  0008d	2b f7		 sub	 esi, edi
  0008f	75 d3		 jne	 SHORT $LL7@SerializeE

; 105  : 		}
; 106  : 	}
; 107  : }

  00091	5f		 pop	 edi
  00092	5e		 pop	 esi
  00093	5b		 pop	 ebx
  00094	5d		 pop	 ebp
  00095	c2 0c 00	 ret	 12			; 0000000cH
$LN23@SerializeE:
; File C:\Program Files (x86)\Microsoft Visual Studio\2019\Community\VC\Tools\MSVC\14.29.30133\atlmfc\include\afx.inl

; 402  : 		AfxThrowArchiveException(CArchiveException::endOfFile);

  00098	6a 00		 push	 0
  0009a	6a 03		 push	 3
  0009c	e8 00 00 00 00	 call	 ?AfxThrowArchiveException@@YGXHPBD@Z ; AfxThrowArchiveException
$LN34@SerializeE:
; File C:\Program Files (x86)\Microsoft Visual Studio\2019\Community\VC\Tools\MSVC\14.29.30133\atlmfc\include\afxtempl.h

; 68   : 	ENSURE(nCount == 0 || pElements != NULL);

  000a1	e8 00 00 00 00	 call	 ?AfxThrowInvalidArgException@@YGXXZ ; AfxThrowInvalidArgException
$LN32@SerializeE:
  000a6	cc		 int	 3
??$SerializeElements@PAU__POSITION@@@@YGXAAVCArchive@@PAPAU__POSITION@@H@Z ENDP ; SerializeElements<__POSITION *>
_TEXT	ENDS
; Function compile flags: /Ogtp
; File C:\Program Files (x86)\Microsoft Visual Studio\2019\Community\VC\Tools\MSVC\14.29.30133\atlmfc\include\afxtempl.h
;	COMDAT ?FindIndex@?$CList@V?$CStringT@DV?$StrTraitMFC_DLL@DV?$ChTraitsCRT@D@ATL@@@@@ATL@@V12@@@QBEPAU__POSITION@@H@Z
_TEXT	SEGMENT
_nIndex$ = 8						; size = 4
?FindIndex@?$CList@V?$CStringT@DV?$StrTraitMFC_DLL@DV?$ChTraitsCRT@D@ATL@@@@@ATL@@V12@@@QBEPAU__POSITION@@H@Z PROC ; CList<ATL::CStringT<char,StrTraitMFC_DLL<char,ATL::ChTraitsCRT<char> > >,ATL::CStringT<char,StrTraitMFC_DLL<char,ATL::ChTraitsCRT<char> > > >::FindIndex, COMDAT
; _this$ = ecx

; 1130 : {

  00000	55		 push	 ebp
  00001	8b ec		 mov	 ebp, esp

; 1131 : 	ASSERT_VALID(this);
; 1132 : 
; 1133 : 	if (nIndex >= m_nCount || nIndex < 0)

  00003	8b 55 08	 mov	 edx, DWORD PTR _nIndex$[ebp]
  00006	3b 51 0c	 cmp	 edx, DWORD PTR [ecx+12]
  00009	7d 14		 jge	 SHORT $LN5@FindIndex
  0000b	85 d2		 test	 edx, edx
  0000d	78 10		 js	 SHORT $LN5@FindIndex

; 1135 : 
; 1136 : 	CNode* pNode = m_pNodeHead;

  0000f	8b 41 04	 mov	 eax, DWORD PTR [ecx+4]

; 1137 : 	while (nIndex--)

  00012	74 0d		 je	 SHORT $LN1@FindIndex
$LL2@FindIndex:

; 1138 : 	{
; 1139 : 		ASSERT(AfxIsValidAddress(pNode, sizeof(CNode)));
; 1140 : 		pNode = pNode->pNext;

  00014	8b 00		 mov	 eax, DWORD PTR [eax]
  00016	83 ea 01	 sub	 edx, 1
  00019	75 f9		 jne	 SHORT $LL2@FindIndex

; 1141 : 	}
; 1142 : 	return (POSITION) pNode;
; 1143 : }

  0001b	5d		 pop	 ebp
  0001c	c2 04 00	 ret	 4
$LN5@FindIndex:

; 1134 : 		return NULL;  // went too far

  0001f	33 c0		 xor	 eax, eax
$LN1@FindIndex:

; 1141 : 	}
; 1142 : 	return (POSITION) pNode;
; 1143 : }

  00021	5d		 pop	 ebp
  00022	c2 04 00	 ret	 4
?FindIndex@?$CList@V?$CStringT@DV?$StrTraitMFC_DLL@DV?$ChTraitsCRT@D@ATL@@@@@ATL@@V12@@@QBEPAU__POSITION@@H@Z ENDP ; CList<ATL::CStringT<char,StrTraitMFC_DLL<char,ATL::ChTraitsCRT<char> > >,ATL::CStringT<char,StrTraitMFC_DLL<char,ATL::ChTraitsCRT<char> > > >::FindIndex
_TEXT	ENDS
; Function compile flags: /Ogtp
; File C:\Program Files (x86)\Microsoft Visual Studio\2019\Community\VC\Tools\MSVC\14.29.30133\atlmfc\include\afxtempl.h
;	COMDAT ?FindIndex@?$CList@NN@@QBEPAU__POSITION@@H@Z
_TEXT	SEGMENT
_nIndex$ = 8						; size = 4
?FindIndex@?$CList@NN@@QBEPAU__POSITION@@H@Z PROC	; CList<double,double>::FindIndex, COMDAT
; _this$ = ecx

; 1130 : {

  00000	55		 push	 ebp
  00001	8b ec		 mov	 ebp, esp

; 1131 : 	ASSERT_VALID(this);
; 1132 : 
; 1133 : 	if (nIndex >= m_nCount || nIndex < 0)

  00003	8b 55 08	 mov	 edx, DWORD PTR _nIndex$[ebp]
  00006	3b 51 0c	 cmp	 edx, DWORD PTR [ecx+12]
  00009	7d 14		 jge	 SHORT $LN5@FindIndex
  0000b	85 d2		 test	 edx, edx
  0000d	78 10		 js	 SHORT $LN5@FindIndex

; 1135 : 
; 1136 : 	CNode* pNode = m_pNodeHead;

  0000f	8b 41 04	 mov	 eax, DWORD PTR [ecx+4]

; 1137 : 	while (nIndex--)

  00012	74 0d		 je	 SHORT $LN1@FindIndex
$LL2@FindIndex:

; 1138 : 	{
; 1139 : 		ASSERT(AfxIsValidAddress(pNode, sizeof(CNode)));
; 1140 : 		pNode = pNode->pNext;

  00014	8b 00		 mov	 eax, DWORD PTR [eax]
  00016	83 ea 01	 sub	 edx, 1
  00019	75 f9		 jne	 SHORT $LL2@FindIndex

; 1141 : 	}
; 1142 : 	return (POSITION) pNode;
; 1143 : }

  0001b	5d		 pop	 ebp
  0001c	c2 04 00	 ret	 4
$LN5@FindIndex:

; 1134 : 		return NULL;  // went too far

  0001f	33 c0		 xor	 eax, eax
$LN1@FindIndex:

; 1141 : 	}
; 1142 : 	return (POSITION) pNode;
; 1143 : }

  00021	5d		 pop	 ebp
  00022	c2 04 00	 ret	 4
?FindIndex@?$CList@NN@@QBEPAU__POSITION@@H@Z ENDP	; CList<double,double>::FindIndex
_TEXT	ENDS
; Function compile flags: /Ogtp
; File C:\Program Files (x86)\Microsoft Visual Studio\2019\Community\VC\Tools\MSVC\14.29.30133\atlmfc\include\afxtempl.h
; File C:\Program Files (x86)\Microsoft Visual Studio\2019\Community\VC\Tools\MSVC\14.29.30133\atlmfc\include\afx.inl
;	COMDAT ??_G?$CList@PAU__POSITION@@PAU1@@@UAEPAXI@Z
_TEXT	SEGMENT
__$EHRec$ = -12						; size = 12
___flags$ = 8						; size = 4
??_G?$CList@PAU__POSITION@@PAU1@@@UAEPAXI@Z PROC	; CList<__POSITION *,__POSITION *>::`scalar deleting destructor', COMDAT
; _this$ = ecx
  00000	55		 push	 ebp
  00001	8b ec		 mov	 ebp, esp
  00003	6a ff		 push	 -1
  00005	68 00 00 00 00	 push	 __ehhandler$??_G?$CList@PAU__POSITION@@PAU1@@@UAEPAXI@Z
  0000a	64 a1 00 00 00
	00		 mov	 eax, DWORD PTR fs:0
  00010	50		 push	 eax
  00011	56		 push	 esi
  00012	a1 00 00 00 00	 mov	 eax, DWORD PTR ___security_cookie
  00017	33 c5		 xor	 eax, ebp
  00019	50		 push	 eax
  0001a	8d 45 f4	 lea	 eax, DWORD PTR __$EHRec$[ebp]
  0001d	64 a3 00 00 00
	00		 mov	 DWORD PTR fs:0, eax
  00023	8b f1		 mov	 esi, ecx
; File C:\Program Files (x86)\Microsoft Visual Studio\2019\Community\VC\Tools\MSVC\14.29.30133\atlmfc\include\afxtempl.h

; 872  : 	m_pBlocks->FreeDataChain();

  00025	8b 4e 14	 mov	 ecx, DWORD PTR [esi+20]

; 878  : {

  00028	c7 45 fc 00 00
	00 00		 mov	 DWORD PTR __$EHRec$[ebp+8], 0
  0002f	c7 06 00 00 00
	00		 mov	 DWORD PTR [esi], OFFSET ??_7?$CList@PAU__POSITION@@PAU1@@@6B@

; 870  : 	m_nCount = 0;

  00035	c7 46 0c 00 00
	00 00		 mov	 DWORD PTR [esi+12], 0

; 871  : 	m_pNodeHead = m_pNodeTail = m_pNodeFree = NULL;

  0003c	c7 46 10 00 00
	00 00		 mov	 DWORD PTR [esi+16], 0
  00043	c7 46 08 00 00
	00 00		 mov	 DWORD PTR [esi+8], 0
  0004a	c7 46 04 00 00
	00 00		 mov	 DWORD PTR [esi+4], 0

; 872  : 	m_pBlocks->FreeDataChain();

  00051	e8 00 00 00 00	 call	 ?FreeDataChain@CPlex@@QAEXXZ ; CPlex::FreeDataChain

; 873  : 	m_pBlocks = NULL;

  00056	8b 45 08	 mov	 eax, DWORD PTR ___flags$[ebp]
  00059	c7 46 14 00 00
	00 00		 mov	 DWORD PTR [esi+20], 0
  00060	a8 01		 test	 al, 1
  00062	74 2c		 je	 SHORT $LN22@scalar
  00064	a8 04		 test	 al, 4
  00066	75 1d		 jne	 SHORT $LN3@scalar
; File C:\Program Files (x86)\Microsoft Visual Studio\2019\Community\VC\Tools\MSVC\14.29.30133\atlmfc\include\afx.inl

; 112  : 	{ ::operator delete(p); }

  00068	56		 push	 esi
  00069	e8 00 00 00 00	 call	 ??3@YAXPAX@Z		; operator delete
  0006e	83 c4 04	 add	 esp, 4
  00071	8b c6		 mov	 eax, esi
  00073	8b 4d f4	 mov	 ecx, DWORD PTR __$EHRec$[ebp]
  00076	64 89 0d 00 00
	00 00		 mov	 DWORD PTR fs:0, ecx
  0007d	59		 pop	 ecx
  0007e	5e		 pop	 esi
  0007f	8b e5		 mov	 esp, ebp
  00081	5d		 pop	 ebp
  00082	c2 04 00	 ret	 4
$LN3@scalar:
  00085	6a 1c		 push	 28			; 0000001cH
  00087	56		 push	 esi
  00088	e8 00 00 00 00	 call	 ?__global_delete@@YAXPAXI@Z ; __global_delete
  0008d	83 c4 08	 add	 esp, 8
$LN22@scalar:
  00090	8b c6		 mov	 eax, esi
  00092	8b 4d f4	 mov	 ecx, DWORD PTR __$EHRec$[ebp]
  00095	64 89 0d 00 00
	00 00		 mov	 DWORD PTR fs:0, ecx
  0009c	59		 pop	 ecx
  0009d	5e		 pop	 esi
  0009e	8b e5		 mov	 esp, ebp
  000a0	5d		 pop	 ebp
  000a1	c2 04 00	 ret	 4
  000a4	cc		 int	 3
  000a5	cc		 int	 3
  000a6	cc		 int	 3
  000a7	cc		 int	 3
  000a8	cc		 int	 3
_TEXT	ENDS
;	COMDAT text$x
text$x	SEGMENT
__ehhandler$??_G?$CList@PAU__POSITION@@PAU1@@@UAEPAXI@Z:
  00000	90		 npad	 1
  00001	90		 npad	 1
  00002	8b 54 24 08	 mov	 edx, DWORD PTR [esp+8]
  00006	8d 42 0c	 lea	 eax, DWORD PTR [edx+12]
  00009	8b 4a f8	 mov	 ecx, DWORD PTR [edx-8]
  0000c	33 c8		 xor	 ecx, eax
  0000e	e8 00 00 00 00	 call	 @__security_check_cookie@4
  00013	b8 00 00 00 00	 mov	 eax, OFFSET __ehfuncinfo$??_G?$CList@PAU__POSITION@@PAU1@@@UAEPAXI@Z
  00018	e9 00 00 00 00	 jmp	 ___CxxFrameHandler3
text$x	ENDS
??_G?$CList@PAU__POSITION@@PAU1@@@UAEPAXI@Z ENDP	; CList<__POSITION *,__POSITION *>::`scalar deleting destructor'
; Function compile flags: /Ogtp
; File C:\Program Files (x86)\Microsoft Visual Studio\2019\Community\VC\Tools\MSVC\14.29.30133\atlmfc\include\afxtempl.h
; File C:\Program Files (x86)\Microsoft Visual Studio\2019\Community\VC\Tools\MSVC\14.29.30133\atlmfc\include\afx.inl
; File C:\Program Files (x86)\Microsoft Visual Studio\2019\Community\VC\Tools\MSVC\14.29.30133\atlmfc\include\afxtempl.h
; File C:\Program Files (x86)\Microsoft Visual Studio\2019\Community\VC\Tools\MSVC\14.29.30133\atlmfc\include\afx.inl
; File C:\Program Files (x86)\Microsoft Visual Studio\2019\Community\VC\Tools\MSVC\14.29.30133\atlmfc\include\afxtempl.h
; File C:\Program Files (x86)\Microsoft Visual Studio\2019\Community\VC\Tools\MSVC\14.29.30133\atlmfc\include\afx.inl
; File C:\Program Files (x86)\Microsoft Visual Studio\2019\Community\VC\Tools\MSVC\14.29.30133\atlmfc\include\afxtempl.h
; File C:\Program Files (x86)\Microsoft Visual Studio\2019\Community\VC\Tools\MSVC\14.29.30133\atlmfc\include\afx.inl
; File C:\Program Files (x86)\Microsoft Visual Studio\2019\Community\VC\Tools\MSVC\14.29.30133\atlmfc\include\afxtempl.h
; File C:\Program Files (x86)\Microsoft Visual Studio\2019\Community\VC\Tools\MSVC\14.29.30133\atlmfc\include\afx.inl
; File C:\Program Files (x86)\Microsoft Visual Studio\2019\Community\VC\Tools\MSVC\14.29.30133\atlmfc\include\afxtempl.h
; File C:\Program Files (x86)\Microsoft Visual Studio\2019\Community\VC\Tools\MSVC\14.29.30133\atlmfc\include\afx.inl
; File C:\Program Files (x86)\Microsoft Visual Studio\2019\Community\VC\Tools\MSVC\14.29.30133\atlmfc\include\afxtempl.h
;	COMDAT ?Serialize@?$CList@PAU__POSITION@@PAU1@@@UAEXAAVCArchive@@@Z
_TEXT	SEGMENT
_nNewCount$1$ = -16					; size = 4
_newData$1 = -12					; size = 4
_pData$1$ = -8						; size = 4
_pNode$1$ = -8						; size = 4
_nElementsLeft$1$ = -4					; size = 4
_this$1$ = -4						; size = 4
_ar$ = 8						; size = 4
?Serialize@?$CList@PAU__POSITION@@PAU1@@@UAEXAAVCArchive@@@Z PROC ; CList<__POSITION *,__POSITION *>::Serialize, COMDAT
; _this$ = ecx

; 1169 : {

  00000	55		 push	 ebp
  00001	8b ec		 mov	 ebp, esp
  00003	83 ec 10	 sub	 esp, 16			; 00000010H
  00006	53		 push	 ebx
  00007	8b d9		 mov	 ebx, ecx
; File C:\Program Files (x86)\Microsoft Visual Studio\2019\Community\VC\Tools\MSVC\14.29.30133\atlmfc\include\afx.inl

; 212  : 	{ return (m_nMode & CArchive::load) == 0; }

  00009	8b 4d 08	 mov	 ecx, DWORD PTR _ar$[ebp]
; File C:\Program Files (x86)\Microsoft Visual Studio\2019\Community\VC\Tools\MSVC\14.29.30133\atlmfc\include\afxtempl.h

; 1169 : {

  0000c	56		 push	 esi
  0000d	57		 push	 edi
  0000e	89 5d fc	 mov	 DWORD PTR _this$1$[ebp], ebx
; File C:\Program Files (x86)\Microsoft Visual Studio\2019\Community\VC\Tools\MSVC\14.29.30133\atlmfc\include\afx.inl

; 212  : 	{ return (m_nMode & CArchive::load) == 0; }

  00011	8b 41 18	 mov	 eax, DWORD PTR [ecx+24]
  00014	f7 d0		 not	 eax
  00016	a8 01		 test	 al, 1
; File C:\Program Files (x86)\Microsoft Visual Studio\2019\Community\VC\Tools\MSVC\14.29.30133\atlmfc\include\afxtempl.h

; 1174 : 	if (ar.IsStoring())

  00018	0f 84 ae 00 00
	00		 je	 $LN7@Serialize

; 1175 : 	{
; 1176 : 		ar.WriteCount(m_nCount);

  0001e	ff 73 0c	 push	 DWORD PTR [ebx+12]
  00021	e8 00 00 00 00	 call	 ?WriteCount@CArchive@@QAEXK@Z ; CArchive::WriteCount

; 1177 : 		for (CNode* pNode = m_pNodeHead; pNode != NULL; pNode = pNode->pNext)

  00026	8b 43 04	 mov	 eax, DWORD PTR [ebx+4]
  00029	89 45 f8	 mov	 DWORD PTR _pNode$1$[ebp], eax
  0002c	85 c0		 test	 eax, eax
  0002e	0f 84 43 01 00
	00		 je	 $LN68@Serialize
$LL4@Serialize:

; 1178 : 		{
; 1179 : 			ASSERT(AfxIsValidAddress(pNode, sizeof(CNode)));
; 1180 : 			TYPE* pData;
; 1181 : 			/*
; 1182 : 			 * in some cases the & operator might be overloaded, and we cannot use it to obtain
; 1183 : 			 * the address of a given object.  We then use the following trick to get the address
; 1184 : 			 */
; 1185 : 			pData = reinterpret_cast< TYPE* >( &reinterpret_cast< int& >( static_cast< TYPE& >( pNode->data ) ) );

  00034	8d 70 08	 lea	 esi, DWORD PTR [eax+8]

; 68   : 	ENSURE(nCount == 0 || pElements != NULL);

  00037	85 f6		 test	 esi, esi
  00039	0f 84 4a 01 00
	00		 je	 $LN60@Serialize
; File C:\Program Files (x86)\Microsoft Visual Studio\2019\Community\VC\Tools\MSVC\14.29.30133\atlmfc\include\afx.inl

; 212  : 	{ return (m_nMode & CArchive::load) == 0; }

  0003f	8b 4d 08	 mov	 ecx, DWORD PTR _ar$[ebp]
  00042	8b 41 18	 mov	 eax, DWORD PTR [ecx+24]
  00045	f7 d0		 not	 eax
  00047	a8 01		 test	 al, 1
; File C:\Program Files (x86)\Microsoft Visual Studio\2019\Community\VC\Tools\MSVC\14.29.30133\atlmfc\include\afxtempl.h

; 73   : 	if (ar.IsStoring())

  00049	74 33		 je	 SHORT $LN21@Serialize

; 74   : 	{
; 75   : 		TYPE* pData;
; 76   : 		UINT_PTR nElementsLeft;
; 77   : 
; 78   : 		nElementsLeft = nCount;

  0004b	b8 01 00 00 00	 mov	 eax, 1
  00050	89 45 fc	 mov	 DWORD PTR _nElementsLeft$1$[ebp], eax
$LL16@Serialize:

; 80   : 		while( nElementsLeft > 0 )
; 81   : 		{
; 82   : 			UINT nElementsToWrite;
; 83   : 
; 84   : 			nElementsToWrite = UINT(__min(nElementsLeft, INT_MAX/sizeof(TYPE)));

  00053	bb ff ff ff 1f	 mov	 ebx, 536870911		; 1fffffffH
  00058	3b c3		 cmp	 eax, ebx
  0005a	0f 42 d8	 cmovb	 ebx, eax

; 85   : 			ar.Write(pData, nElementsToWrite*sizeof(TYPE));

  0005d	8d 3c 9d 00 00
	00 00		 lea	 edi, DWORD PTR [ebx*4]
  00064	57		 push	 edi
  00065	56		 push	 esi
  00066	e8 00 00 00 00	 call	 ?Write@CArchive@@QAEXPBXI@Z ; CArchive::Write

; 86   : 			nElementsLeft -= nElementsToWrite;

  0006b	8b 45 fc	 mov	 eax, DWORD PTR _nElementsLeft$1$[ebp]

; 87   : 			pData += nElementsToWrite;

  0006e	03 f7		 add	 esi, edi
  00070	8b 4d 08	 mov	 ecx, DWORD PTR _ar$[ebp]
  00073	2b c3		 sub	 eax, ebx
  00075	89 45 fc	 mov	 DWORD PTR _nElementsLeft$1$[ebp], eax
  00078	85 c0		 test	 eax, eax
  0007a	75 d7		 jne	 SHORT $LL16@Serialize

; 88   : 		}
; 89   : 	}

  0007c	eb 35		 jmp	 SHORT $LN2@Serialize
$LN21@Serialize:

; 90   : 	else
; 91   : 	{
; 92   : 		TYPE* pData;
; 93   : 		UINT_PTR nElementsLeft;
; 94   : 
; 95   : 		nElementsLeft = nCount;

  0007e	bf 01 00 00 00	 mov	 edi, 1
$LL18@Serialize:

; 98   : 		{
; 99   : 			UINT nElementsToRead;
; 100  : 
; 101  : 			nElementsToRead = UINT(__min(nElementsLeft, INT_MAX/sizeof(TYPE)));

  00083	bb ff ff ff 1f	 mov	 ebx, 536870911		; 1fffffffH
  00088	3b fb		 cmp	 edi, ebx
  0008a	0f 42 df	 cmovb	 ebx, edi

; 102  : 			ar.EnsureRead(pData, nElementsToRead*sizeof(TYPE));

  0008d	8d 04 9d 00 00
	00 00		 lea	 eax, DWORD PTR [ebx*4]
; File C:\Program Files (x86)\Microsoft Visual Studio\2019\Community\VC\Tools\MSVC\14.29.30133\atlmfc\include\afx.inl

; 399  : 	UINT nRead=Read(lpBuf, nCount);

  00094	50		 push	 eax
  00095	56		 push	 esi
  00096	e8 00 00 00 00	 call	 ?Read@CArchive@@QAEIPAXI@Z ; CArchive::Read

; 400  : 	if(nRead!=nCount)

  0009b	8d 0c 9d 00 00
	00 00		 lea	 ecx, DWORD PTR [ebx*4]
  000a2	3b c1		 cmp	 eax, ecx
  000a4	0f 85 d6 00 00
	00		 jne	 $LN59@Serialize
; File C:\Program Files (x86)\Microsoft Visual Studio\2019\Community\VC\Tools\MSVC\14.29.30133\atlmfc\include\afxtempl.h

; 97   : 		while( nElementsLeft > 0 )

  000aa	03 f1		 add	 esi, ecx
  000ac	8b 4d 08	 mov	 ecx, DWORD PTR _ar$[ebp]

; 103  : 			nElementsLeft -= nElementsToRead;

  000af	2b fb		 sub	 edi, ebx
  000b1	75 d0		 jne	 SHORT $LL18@Serialize
$LN2@Serialize:

; 1177 : 		for (CNode* pNode = m_pNodeHead; pNode != NULL; pNode = pNode->pNext)

  000b3	8b 45 f8	 mov	 eax, DWORD PTR _pNode$1$[ebp]
  000b6	8b 00		 mov	 eax, DWORD PTR [eax]
  000b8	89 45 f8	 mov	 DWORD PTR _pNode$1$[ebp], eax
  000bb	85 c0		 test	 eax, eax
  000bd	0f 85 71 ff ff
	ff		 jne	 $LL4@Serialize

; 1197 : 		}
; 1198 : 	}
; 1199 : }

  000c3	5f		 pop	 edi
  000c4	5e		 pop	 esi
  000c5	5b		 pop	 ebx
  000c6	8b e5		 mov	 esp, ebp
  000c8	5d		 pop	 ebp
  000c9	c2 04 00	 ret	 4
$LN7@Serialize:

; 1186 : 			SerializeElements<TYPE>(ar, pData, 1);
; 1187 : 		}
; 1188 : 	}
; 1189 : 	else
; 1190 : 	{
; 1191 : 		DWORD_PTR nNewCount = ar.ReadCount();

  000cc	e8 00 00 00 00	 call	 ?ReadCount@CArchive@@QAEKXZ ; CArchive::ReadCount

; 1192 : 		while (nNewCount--)

  000d1	85 c0		 test	 eax, eax
  000d3	0f 84 9e 00 00
	00		 je	 $LN68@Serialize
  000d9	0f 1f 80 00 00
	00 00		 npad	 7
$LL5@Serialize:
  000e0	48		 dec	 eax
  000e1	89 45 f0	 mov	 DWORD PTR _nNewCount$1$[ebp], eax
; File C:\Program Files (x86)\Microsoft Visual Studio\2019\Community\VC\Tools\MSVC\14.29.30133\atlmfc\include\afx.inl

; 212  : 	{ return (m_nMode & CArchive::load) == 0; }

  000e4	8b 45 08	 mov	 eax, DWORD PTR _ar$[ebp]
  000e7	8b 48 18	 mov	 ecx, DWORD PTR [eax+24]
  000ea	f7 d1		 not	 ecx
  000ec	f6 c1 01	 test	 cl, 1
; File C:\Program Files (x86)\Microsoft Visual Studio\2019\Community\VC\Tools\MSVC\14.29.30133\atlmfc\include\afxtempl.h

; 73   : 	if (ar.IsStoring())

  000ef	74 3a		 je	 SHORT $LN42@Serialize

; 79   : 		pData = pElements;

  000f1	8d 4d f4	 lea	 ecx, DWORD PTR _newData$1[ebp]
  000f4	bb 01 00 00 00	 mov	 ebx, 1
  000f9	89 4d f8	 mov	 DWORD PTR _pData$1$[ebp], ecx
  000fc	0f 1f 40 00	 npad	 4
$LL37@Serialize:

; 80   : 		while( nElementsLeft > 0 )
; 81   : 		{
; 82   : 			UINT nElementsToWrite;
; 83   : 
; 84   : 			nElementsToWrite = UINT(__min(nElementsLeft, INT_MAX/sizeof(TYPE)));

  00100	bf ff ff ff 1f	 mov	 edi, 536870911		; 1fffffffH
  00105	3b df		 cmp	 ebx, edi
  00107	0f 42 fb	 cmovb	 edi, ebx

; 85   : 			ar.Write(pData, nElementsToWrite*sizeof(TYPE));

  0010a	8d 34 bd 00 00
	00 00		 lea	 esi, DWORD PTR [edi*4]
  00111	56		 push	 esi
  00112	51		 push	 ecx
  00113	8b c8		 mov	 ecx, eax
  00115	e8 00 00 00 00	 call	 ?Write@CArchive@@QAEXPBXI@Z ; CArchive::Write

; 87   : 			pData += nElementsToWrite;

  0011a	8b 4d f8	 mov	 ecx, DWORD PTR _pData$1$[ebp]
  0011d	8b 45 08	 mov	 eax, DWORD PTR _ar$[ebp]
  00120	03 ce		 add	 ecx, esi
  00122	89 4d f8	 mov	 DWORD PTR _pData$1$[ebp], ecx
  00125	2b df		 sub	 ebx, edi
  00127	75 d7		 jne	 SHORT $LL37@Serialize

; 88   : 		}
; 89   : 	}

  00129	eb 36		 jmp	 SHORT $LN40@Serialize
$LN42@Serialize:

; 90   : 	else
; 91   : 	{
; 92   : 		TYPE* pData;
; 93   : 		UINT_PTR nElementsLeft;
; 94   : 
; 95   : 		nElementsLeft = nCount;

  0012b	be 01 00 00 00	 mov	 esi, 1

; 96   : 		pData = pElements;

  00130	8d 5d f4	 lea	 ebx, DWORD PTR _newData$1[ebp]
$LL39@Serialize:

; 98   : 		{
; 99   : 			UINT nElementsToRead;
; 100  : 
; 101  : 			nElementsToRead = UINT(__min(nElementsLeft, INT_MAX/sizeof(TYPE)));

  00133	bf ff ff ff 1f	 mov	 edi, 536870911		; 1fffffffH
  00138	3b f7		 cmp	 esi, edi
  0013a	0f 42 fe	 cmovb	 edi, esi

; 102  : 			ar.EnsureRead(pData, nElementsToRead*sizeof(TYPE));

  0013d	8d 0c bd 00 00
	00 00		 lea	 ecx, DWORD PTR [edi*4]
; File C:\Program Files (x86)\Microsoft Visual Studio\2019\Community\VC\Tools\MSVC\14.29.30133\atlmfc\include\afx.inl

; 399  : 	UINT nRead=Read(lpBuf, nCount);

  00144	51		 push	 ecx
  00145	53		 push	 ebx
  00146	8b c8		 mov	 ecx, eax
  00148	e8 00 00 00 00	 call	 ?Read@CArchive@@QAEIPAXI@Z ; CArchive::Read

; 400  : 	if(nRead!=nCount)

  0014d	8d 0c bd 00 00
	00 00		 lea	 ecx, DWORD PTR [edi*4]
  00154	3b c1		 cmp	 eax, ecx
  00156	75 28		 jne	 SHORT $LN59@Serialize
; File C:\Program Files (x86)\Microsoft Visual Studio\2019\Community\VC\Tools\MSVC\14.29.30133\atlmfc\include\afxtempl.h

; 104  : 			pData += nElementsToRead;

  00158	8b 45 08	 mov	 eax, DWORD PTR _ar$[ebp]
  0015b	03 d9		 add	 ebx, ecx
  0015d	2b f7		 sub	 esi, edi
  0015f	75 d2		 jne	 SHORT $LL39@Serialize
$LN40@Serialize:

; 1193 : 		{
; 1194 : 			TYPE newData[1];
; 1195 : 			SerializeElements<TYPE>(ar, newData, 1);
; 1196 : 			AddTail(newData[0]);

  00161	ff 75 f4	 push	 DWORD PTR _newData$1[ebp]
  00164	8b 4d fc	 mov	 ecx, DWORD PTR _this$1$[ebp]
  00167	e8 00 00 00 00	 call	 ?AddTail@?$CList@PAU__POSITION@@PAU1@@@QAEPAU__POSITION@@PAU2@@Z ; CList<__POSITION *,__POSITION *>::AddTail
  0016c	8b 45 f0	 mov	 eax, DWORD PTR _nNewCount$1$[ebp]
  0016f	85 c0		 test	 eax, eax
  00171	0f 85 69 ff ff
	ff		 jne	 $LL5@Serialize
$LN68@Serialize:
  00177	5f		 pop	 edi

; 1197 : 		}
; 1198 : 	}
; 1199 : }

  00178	5e		 pop	 esi
  00179	5b		 pop	 ebx
  0017a	8b e5		 mov	 esp, ebp
  0017c	5d		 pop	 ebp
  0017d	c2 04 00	 ret	 4
$LN59@Serialize:
  00180	6a 00		 push	 0
  00182	6a 03		 push	 3
  00184	e8 00 00 00 00	 call	 ?AfxThrowArchiveException@@YGXHPBD@Z ; AfxThrowArchiveException
$LN60@Serialize:

; 68   : 	ENSURE(nCount == 0 || pElements != NULL);

  00189	e8 00 00 00 00	 call	 ?AfxThrowInvalidArgException@@YGXXZ ; AfxThrowInvalidArgException
$LN85@Serialize:
  0018e	cc		 int	 3
?Serialize@?$CList@PAU__POSITION@@PAU1@@@UAEXAAVCArchive@@@Z ENDP ; CList<__POSITION *,__POSITION *>::Serialize
_TEXT	ENDS
; Function compile flags: /Ogtp
; File C:\Program Files (x86)\Microsoft Visual Studio\2019\Community\VC\Tools\MSVC\14.29.30133\atlmfc\include\afxtempl.h
;	COMDAT ??1?$CList@PAU__POSITION@@PAU1@@@UAE@XZ
_TEXT	SEGMENT
__$EHRec$ = -12						; size = 12
??1?$CList@PAU__POSITION@@PAU1@@@UAE@XZ PROC		; CList<__POSITION *,__POSITION *>::~CList<__POSITION *,__POSITION *>, COMDAT
; _this$ = ecx

; 878  : {

  00000	55		 push	 ebp
  00001	8b ec		 mov	 ebp, esp
  00003	6a ff		 push	 -1
  00005	68 00 00 00 00	 push	 __ehhandler$??1?$CList@PAU__POSITION@@PAU1@@@UAE@XZ
  0000a	64 a1 00 00 00
	00		 mov	 eax, DWORD PTR fs:0
  00010	50		 push	 eax
  00011	56		 push	 esi
  00012	a1 00 00 00 00	 mov	 eax, DWORD PTR ___security_cookie
  00017	33 c5		 xor	 eax, ebp
  00019	50		 push	 eax
  0001a	8d 45 f4	 lea	 eax, DWORD PTR __$EHRec$[ebp]
  0001d	64 a3 00 00 00
	00		 mov	 DWORD PTR fs:0, eax
  00023	8b f1		 mov	 esi, ecx

; 872  : 	m_pBlocks->FreeDataChain();

  00025	8b 4e 14	 mov	 ecx, DWORD PTR [esi+20]

; 878  : {

  00028	c7 06 00 00 00
	00		 mov	 DWORD PTR [esi], OFFSET ??_7?$CList@PAU__POSITION@@PAU1@@@6B@

; 870  : 	m_nCount = 0;

  0002e	c7 46 0c 00 00
	00 00		 mov	 DWORD PTR [esi+12], 0

; 871  : 	m_pNodeHead = m_pNodeTail = m_pNodeFree = NULL;

  00035	c7 46 10 00 00
	00 00		 mov	 DWORD PTR [esi+16], 0
  0003c	c7 46 08 00 00
	00 00		 mov	 DWORD PTR [esi+8], 0
  00043	c7 46 04 00 00
	00 00		 mov	 DWORD PTR [esi+4], 0

; 872  : 	m_pBlocks->FreeDataChain();

  0004a	e8 00 00 00 00	 call	 ?FreeDataChain@CPlex@@QAEXXZ ; CPlex::FreeDataChain

; 873  : 	m_pBlocks = NULL;

  0004f	c7 46 14 00 00
	00 00		 mov	 DWORD PTR [esi+20], 0

; 879  : 	RemoveAll();
; 880  : 	ASSERT(m_nCount == 0);
; 881  : }

  00056	8b 4d f4	 mov	 ecx, DWORD PTR __$EHRec$[ebp]
  00059	64 89 0d 00 00
	00 00		 mov	 DWORD PTR fs:0, ecx
  00060	59		 pop	 ecx
  00061	5e		 pop	 esi
  00062	8b e5		 mov	 esp, ebp
  00064	5d		 pop	 ebp
  00065	c3		 ret	 0
  00066	cc		 int	 3
  00067	cc		 int	 3
  00068	cc		 int	 3
  00069	cc		 int	 3
  0006a	cc		 int	 3
_TEXT	ENDS
;	COMDAT text$x
text$x	SEGMENT
__ehhandler$??1?$CList@PAU__POSITION@@PAU1@@@UAE@XZ:
  00000	90		 npad	 1
  00001	90		 npad	 1
  00002	8b 54 24 08	 mov	 edx, DWORD PTR [esp+8]
  00006	8d 42 0c	 lea	 eax, DWORD PTR [edx+12]
  00009	8b 4a f8	 mov	 ecx, DWORD PTR [edx-8]
  0000c	33 c8		 xor	 ecx, eax
  0000e	e8 00 00 00 00	 call	 @__security_check_cookie@4
  00013	b8 00 00 00 00	 mov	 eax, OFFSET __ehfuncinfo$??1?$CList@PAU__POSITION@@PAU1@@@UAE@XZ
  00018	e9 00 00 00 00	 jmp	 ___CxxFrameHandler3
text$x	ENDS
??1?$CList@PAU__POSITION@@PAU1@@@UAE@XZ ENDP		; CList<__POSITION *,__POSITION *>::~CList<__POSITION *,__POSITION *>
; Function compile flags: /Ogtp
; File C:\Program Files (x86)\Microsoft Visual Studio\2019\Community\VC\Tools\MSVC\14.29.30133\atlmfc\include\afxtempl.h
;	COMDAT ?NewNode@?$CList@PAU__POSITION@@PAU1@@@IAEPAUCNode@1@PAU21@0@Z
_TEXT	SEGMENT
_pPrev$ = 8						; size = 4
_pNext$ = 12						; size = 4
?NewNode@?$CList@PAU__POSITION@@PAU1@@@IAEPAUCNode@1@PAU21@0@Z PROC ; CList<__POSITION *,__POSITION *>::NewNode, COMDAT
; _this$ = ecx

; 901  : {

  00000	55		 push	 ebp
  00001	8b ec		 mov	 ebp, esp
  00003	56		 push	 esi
  00004	8b f1		 mov	 esi, ecx

; 902  : 	if (m_pNodeFree == NULL)

  00006	83 7e 10 00	 cmp	 DWORD PTR [esi+16], 0
  0000a	75 34		 jne	 SHORT $LN7@NewNode

; 903  : 	{
; 904  : 		// add another block
; 905  : 		CPlex* pNewBlock = CPlex::Create(m_pBlocks, m_nBlockSize,

  0000c	6a 0c		 push	 12			; 0000000cH
  0000e	ff 76 18	 push	 DWORD PTR [esi+24]
  00011	8d 46 14	 lea	 eax, DWORD PTR [esi+20]
  00014	50		 push	 eax
  00015	e8 00 00 00 00	 call	 ?Create@CPlex@@SGPAU1@AAPAU1@II@Z ; CPlex::Create

; 906  : 				 sizeof(CNode));
; 907  : 
; 908  : 		// chain them into free list
; 909  : 		CNode* pNode = (CNode*) pNewBlock->data();
; 910  : 		// free in reverse order to make it easier to debug
; 911  : 		pNode += m_nBlockSize - 1;

  0001a	8b 56 18	 mov	 edx, DWORD PTR [esi+24]
  0001d	83 c0 08	 add	 eax, 8
  00020	8d 0c 52	 lea	 ecx, DWORD PTR [edx+edx*2]
  00023	8d 04 88	 lea	 eax, DWORD PTR [eax+ecx*4]
  00026	83 c0 f4	 add	 eax, -12		; fffffff4H

; 912  : 		for (INT_PTR i = m_nBlockSize-1; i >= 0; i--, pNode--)

  00029	83 c2 ff	 add	 edx, -1
  0002c	78 12		 js	 SHORT $LN7@NewNode
  0002e	66 90		 npad	 2
$LL4@NewNode:

; 913  : 		{
; 914  : 			pNode->pNext = m_pNodeFree;

  00030	8b 4e 10	 mov	 ecx, DWORD PTR [esi+16]
  00033	89 08		 mov	 DWORD PTR [eax], ecx

; 915  : 			m_pNodeFree = pNode;

  00035	89 46 10	 mov	 DWORD PTR [esi+16], eax
  00038	83 e8 0c	 sub	 eax, 12			; 0000000cH
  0003b	83 ea 01	 sub	 edx, 1
  0003e	79 f0		 jns	 SHORT $LL4@NewNode
$LN7@NewNode:

; 916  : 		}
; 917  : 	}
; 918  : 	ENSURE(m_pNodeFree != NULL);  // we must have something

  00040	8b 46 10	 mov	 eax, DWORD PTR [esi+16]
  00043	85 c0		 test	 eax, eax
  00045	74 18		 je	 SHORT $LN17@NewNode

; 919  : 
; 920  : 	CList::CNode* pNode = m_pNodeFree;
; 921  : 	m_pNodeFree = m_pNodeFree->pNext;

  00047	8b 08		 mov	 ecx, DWORD PTR [eax]
  00049	89 4e 10	 mov	 DWORD PTR [esi+16], ecx

; 922  : 	pNode->pPrev = pPrev;

  0004c	8b 4d 08	 mov	 ecx, DWORD PTR _pPrev$[ebp]
  0004f	89 48 04	 mov	 DWORD PTR [eax+4], ecx

; 923  : 	pNode->pNext = pNext;

  00052	8b 4d 0c	 mov	 ecx, DWORD PTR _pNext$[ebp]
  00055	89 08		 mov	 DWORD PTR [eax], ecx

; 924  : 	m_nCount++;

  00057	ff 46 0c	 inc	 DWORD PTR [esi+12]

; 925  : 	ASSERT(m_nCount > 0);  // make sure we don't overflow
; 926  : 
; 927  : #pragma push_macro("new")
; 928  : #undef new
; 929  : 	::new( (void*)( &pNode->data ) ) TYPE;
; 930  : #pragma pop_macro("new")
; 931  : 	return pNode;

  0005a	5e		 pop	 esi

; 932  : }

  0005b	5d		 pop	 ebp
  0005c	c2 08 00	 ret	 8
$LN17@NewNode:

; 916  : 		}
; 917  : 	}
; 918  : 	ENSURE(m_pNodeFree != NULL);  // we must have something

  0005f	e8 00 00 00 00	 call	 ?AfxThrowInvalidArgException@@YGXXZ ; AfxThrowInvalidArgException
$LN15@NewNode:
  00064	cc		 int	 3
?NewNode@?$CList@PAU__POSITION@@PAU1@@@IAEPAUCNode@1@PAU21@0@Z ENDP ; CList<__POSITION *,__POSITION *>::NewNode
_TEXT	ENDS
; Function compile flags: /Ogtp
; File C:\Program Files (x86)\Microsoft Visual Studio\2019\Community\VC\Tools\MSVC\14.29.30133\atlmfc\include\afxtempl.h
;	COMDAT ?FindIndex@?$CList@PAU__POSITION@@PAU1@@@QBEPAU__POSITION@@H@Z
_TEXT	SEGMENT
_nIndex$ = 8						; size = 4
?FindIndex@?$CList@PAU__POSITION@@PAU1@@@QBEPAU__POSITION@@H@Z PROC ; CList<__POSITION *,__POSITION *>::FindIndex, COMDAT
; _this$ = ecx

; 1130 : {

  00000	55		 push	 ebp
  00001	8b ec		 mov	 ebp, esp

; 1131 : 	ASSERT_VALID(this);
; 1132 : 
; 1133 : 	if (nIndex >= m_nCount || nIndex < 0)

  00003	8b 55 08	 mov	 edx, DWORD PTR _nIndex$[ebp]
  00006	3b 51 0c	 cmp	 edx, DWORD PTR [ecx+12]
  00009	7d 14		 jge	 SHORT $LN5@FindIndex
  0000b	85 d2		 test	 edx, edx
  0000d	78 10		 js	 SHORT $LN5@FindIndex

; 1135 : 
; 1136 : 	CNode* pNode = m_pNodeHead;

  0000f	8b 41 04	 mov	 eax, DWORD PTR [ecx+4]

; 1137 : 	while (nIndex--)

  00012	74 0d		 je	 SHORT $LN1@FindIndex
$LL2@FindIndex:

; 1138 : 	{
; 1139 : 		ASSERT(AfxIsValidAddress(pNode, sizeof(CNode)));
; 1140 : 		pNode = pNode->pNext;

  00014	8b 00		 mov	 eax, DWORD PTR [eax]
  00016	83 ea 01	 sub	 edx, 1
  00019	75 f9		 jne	 SHORT $LL2@FindIndex

; 1141 : 	}
; 1142 : 	return (POSITION) pNode;
; 1143 : }

  0001b	5d		 pop	 ebp
  0001c	c2 04 00	 ret	 4
$LN5@FindIndex:

; 1134 : 		return NULL;  // went too far

  0001f	33 c0		 xor	 eax, eax
$LN1@FindIndex:

; 1141 : 	}
; 1142 : 	return (POSITION) pNode;
; 1143 : }

  00021	5d		 pop	 ebp
  00022	c2 04 00	 ret	 4
?FindIndex@?$CList@PAU__POSITION@@PAU1@@@QBEPAU__POSITION@@H@Z ENDP ; CList<__POSITION *,__POSITION *>::FindIndex
_TEXT	ENDS
; Function compile flags: /Ogtp
; File C:\Program Files (x86)\Microsoft Visual Studio\2019\Community\VC\Tools\MSVC\14.29.30133\atlmfc\include\afxtempl.h
;	COMDAT ?RemoveAll@?$CList@PAU__POSITION@@PAU1@@@QAEXXZ
_TEXT	SEGMENT
?RemoveAll@?$CList@PAU__POSITION@@PAU1@@@QAEXXZ PROC	; CList<__POSITION *,__POSITION *>::RemoveAll, COMDAT
; _this$ = ecx

; 862  : {

  00000	56		 push	 esi
  00001	8b f1		 mov	 esi, ecx

; 863  : 	ASSERT_VALID(this);
; 864  : 
; 865  : 	// destroy elements
; 866  : 	CNode* pNode;
; 867  : 	for (pNode = m_pNodeHead; pNode != NULL; pNode = pNode->pNext)
; 868  : 		pNode->data.~TYPE();
; 869  : 
; 870  : 	m_nCount = 0;
; 871  : 	m_pNodeHead = m_pNodeTail = m_pNodeFree = NULL;
; 872  : 	m_pBlocks->FreeDataChain();

  00003	8b 4e 14	 mov	 ecx, DWORD PTR [esi+20]
  00006	c7 46 0c 00 00
	00 00		 mov	 DWORD PTR [esi+12], 0
  0000d	c7 46 10 00 00
	00 00		 mov	 DWORD PTR [esi+16], 0
  00014	c7 46 08 00 00
	00 00		 mov	 DWORD PTR [esi+8], 0
  0001b	c7 46 04 00 00
	00 00		 mov	 DWORD PTR [esi+4], 0
  00022	e8 00 00 00 00	 call	 ?FreeDataChain@CPlex@@QAEXXZ ; CPlex::FreeDataChain

; 873  : 	m_pBlocks = NULL;

  00027	c7 46 14 00 00
	00 00		 mov	 DWORD PTR [esi+20], 0
  0002e	5e		 pop	 esi

; 874  : }

  0002f	c3		 ret	 0
?RemoveAll@?$CList@PAU__POSITION@@PAU1@@@QAEXXZ ENDP	; CList<__POSITION *,__POSITION *>::RemoveAll
_TEXT	ENDS
; Function compile flags: /Ogtp
; File C:\Program Files (x86)\Microsoft Visual Studio\2019\Community\VC\Tools\MSVC\14.29.30133\atlmfc\include\afxtempl.h
;	COMDAT ?AddTail@?$CList@PAU__POSITION@@PAU1@@@QAEPAU__POSITION@@PAU2@@Z
_TEXT	SEGMENT
_newElement$ = 8					; size = 4
?AddTail@?$CList@PAU__POSITION@@PAU1@@@QAEPAU__POSITION@@PAU2@@Z PROC ; CList<__POSITION *,__POSITION *>::AddTail, COMDAT
; _this$ = ecx

; 965  : {

  00000	55		 push	 ebp
  00001	8b ec		 mov	 ebp, esp
  00003	56		 push	 esi
  00004	8b f1		 mov	 esi, ecx
  00006	57		 push	 edi

; 902  : 	if (m_pNodeFree == NULL)

  00007	83 7e 10 00	 cmp	 DWORD PTR [esi+16], 0

; 966  : 	ASSERT_VALID(this);
; 967  : 
; 968  : 	CNode* pNewNode = NewNode(m_pNodeTail, NULL);

  0000b	8b 7e 08	 mov	 edi, DWORD PTR [esi+8]

; 902  : 	if (m_pNodeFree == NULL)

  0000e	75 32		 jne	 SHORT $LN11@AddTail

; 903  : 	{
; 904  : 		// add another block
; 905  : 		CPlex* pNewBlock = CPlex::Create(m_pBlocks, m_nBlockSize,

  00010	6a 0c		 push	 12			; 0000000cH
  00012	ff 76 18	 push	 DWORD PTR [esi+24]
  00015	8d 46 14	 lea	 eax, DWORD PTR [esi+20]
  00018	50		 push	 eax
  00019	e8 00 00 00 00	 call	 ?Create@CPlex@@SGPAU1@AAPAU1@II@Z ; CPlex::Create

; 906  : 				 sizeof(CNode));
; 907  : 
; 908  : 		// chain them into free list
; 909  : 		CNode* pNode = (CNode*) pNewBlock->data();
; 910  : 		// free in reverse order to make it easier to debug
; 911  : 		pNode += m_nBlockSize - 1;

  0001e	8b 56 18	 mov	 edx, DWORD PTR [esi+24]
  00021	83 c0 08	 add	 eax, 8
  00024	8d 4a ff	 lea	 ecx, DWORD PTR [edx-1]

; 912  : 		for (INT_PTR i = m_nBlockSize-1; i >= 0; i--, pNode--)

  00027	83 c2 ff	 add	 edx, -1
  0002a	8d 0c 49	 lea	 ecx, DWORD PTR [ecx+ecx*2]
  0002d	8d 0c 88	 lea	 ecx, DWORD PTR [eax+ecx*4]
  00030	78 10		 js	 SHORT $LN11@AddTail
$LL8@AddTail:

; 913  : 		{
; 914  : 			pNode->pNext = m_pNodeFree;

  00032	8b 46 10	 mov	 eax, DWORD PTR [esi+16]
  00035	89 01		 mov	 DWORD PTR [ecx], eax

; 915  : 			m_pNodeFree = pNode;

  00037	89 4e 10	 mov	 DWORD PTR [esi+16], ecx
  0003a	83 e9 0c	 sub	 ecx, 12			; 0000000cH
  0003d	83 ea 01	 sub	 edx, 1
  00040	79 f0		 jns	 SHORT $LL8@AddTail
$LN11@AddTail:

; 916  : 		}
; 917  : 	}
; 918  : 	ENSURE(m_pNodeFree != NULL);  // we must have something

  00042	8b 4e 10	 mov	 ecx, DWORD PTR [esi+16]
  00045	85 c9		 test	 ecx, ecx
  00047	74 39		 je	 SHORT $LN22@AddTail

; 919  : 
; 920  : 	CList::CNode* pNode = m_pNodeFree;
; 921  : 	m_pNodeFree = m_pNodeFree->pNext;

  00049	8b 01		 mov	 eax, DWORD PTR [ecx]
  0004b	89 46 10	 mov	 DWORD PTR [esi+16], eax

; 969  : 	pNewNode->data = newElement;

  0004e	8b 45 08	 mov	 eax, DWORD PTR _newElement$[ebp]

; 922  : 	pNode->pPrev = pPrev;

  00051	89 79 04	 mov	 DWORD PTR [ecx+4], edi

; 923  : 	pNode->pNext = pNext;

  00054	c7 01 00 00 00
	00		 mov	 DWORD PTR [ecx], 0

; 924  : 	m_nCount++;

  0005a	ff 46 0c	 inc	 DWORD PTR [esi+12]

; 969  : 	pNewNode->data = newElement;

  0005d	89 41 08	 mov	 DWORD PTR [ecx+8], eax

; 970  : 	if (m_pNodeTail != NULL)

  00060	8b 46 08	 mov	 eax, DWORD PTR [esi+8]
  00063	85 c0		 test	 eax, eax
  00065	74 0d		 je	 SHORT $LN2@AddTail

; 971  : 		m_pNodeTail->pNext = pNewNode;

  00067	89 08		 mov	 DWORD PTR [eax], ecx

; 972  : 	else
; 973  : 		m_pNodeHead = pNewNode;
; 974  : 	m_pNodeTail = pNewNode;
; 975  : 	return (POSITION) pNewNode;

  00069	8b c1		 mov	 eax, ecx
  0006b	5f		 pop	 edi
  0006c	89 4e 08	 mov	 DWORD PTR [esi+8], ecx
  0006f	5e		 pop	 esi

; 976  : }

  00070	5d		 pop	 ebp
  00071	c2 04 00	 ret	 4
$LN2@AddTail:

; 972  : 	else
; 973  : 		m_pNodeHead = pNewNode;
; 974  : 	m_pNodeTail = pNewNode;
; 975  : 	return (POSITION) pNewNode;

  00074	5f		 pop	 edi
  00075	89 4e 04	 mov	 DWORD PTR [esi+4], ecx
  00078	8b c1		 mov	 eax, ecx
  0007a	89 4e 08	 mov	 DWORD PTR [esi+8], ecx
  0007d	5e		 pop	 esi

; 976  : }

  0007e	5d		 pop	 ebp
  0007f	c2 04 00	 ret	 4
$LN22@AddTail:

; 918  : 	ENSURE(m_pNodeFree != NULL);  // we must have something

  00082	e8 00 00 00 00	 call	 ?AfxThrowInvalidArgException@@YGXXZ ; AfxThrowInvalidArgException
$LN20@AddTail:
  00087	cc		 int	 3
?AddTail@?$CList@PAU__POSITION@@PAU1@@@QAEPAU__POSITION@@PAU2@@Z ENDP ; CList<__POSITION *,__POSITION *>::AddTail
_TEXT	ENDS
; Function compile flags: /Ogtp
; File C:\Program Files (x86)\Microsoft Visual Studio\2019\Community\VC\Tools\MSVC\14.29.30133\atlmfc\include\afxtempl.h
;	COMDAT ??0?$CList@PAU__POSITION@@PAU1@@@QAE@H@Z
_TEXT	SEGMENT
_nBlockSize$ = 8					; size = 4
??0?$CList@PAU__POSITION@@PAU1@@@QAE@H@Z PROC		; CList<__POSITION *,__POSITION *>::CList<__POSITION *,__POSITION *>, COMDAT
; _this$ = ecx

; 851  : {

  00000	55		 push	 ebp
  00001	8b ec		 mov	 ebp, esp

; 852  : 	ASSERT(nBlockSize > 0);
; 853  : 
; 854  : 	m_nCount = 0;
; 855  : 	m_pNodeHead = m_pNodeTail = m_pNodeFree = NULL;
; 856  : 	m_pBlocks = NULL;
; 857  : 	m_nBlockSize = nBlockSize;

  00003	8b 45 08	 mov	 eax, DWORD PTR _nBlockSize$[ebp]
  00006	89 41 18	 mov	 DWORD PTR [ecx+24], eax

; 858  : }

  00009	8b c1		 mov	 eax, ecx
  0000b	c7 01 00 00 00
	00		 mov	 DWORD PTR [ecx], OFFSET ??_7?$CList@PAU__POSITION@@PAU1@@@6B@
  00011	c7 41 0c 00 00
	00 00		 mov	 DWORD PTR [ecx+12], 0
  00018	c7 41 10 00 00
	00 00		 mov	 DWORD PTR [ecx+16], 0
  0001f	c7 41 08 00 00
	00 00		 mov	 DWORD PTR [ecx+8], 0
  00026	c7 41 04 00 00
	00 00		 mov	 DWORD PTR [ecx+4], 0
  0002d	c7 41 14 00 00
	00 00		 mov	 DWORD PTR [ecx+20], 0
  00034	5d		 pop	 ebp
  00035	c2 04 00	 ret	 4
??0?$CList@PAU__POSITION@@PAU1@@@QAE@H@Z ENDP		; CList<__POSITION *,__POSITION *>::CList<__POSITION *,__POSITION *>
_TEXT	ENDS
; Function compile flags: /Ogtp
;	COMDAT ??4CGraphDrawer@@QAEAAV0@$$QAV0@@Z
_TEXT	SEGMENT
___that$ = 8						; size = 4
??4CGraphDrawer@@QAEAAV0@$$QAV0@@Z PROC			; CGraphDrawer::operator=, COMDAT
; _this$ = ecx
  00000	8b c1		 mov	 eax, ecx
  00002	c2 04 00	 ret	 4
??4CGraphDrawer@@QAEAAV0@$$QAV0@@Z ENDP			; CGraphDrawer::operator=
_TEXT	ENDS
; Function compile flags: /Ogtp
;	COMDAT ??4CGraphDrawer@@QAEAAV0@ABV0@@Z
_TEXT	SEGMENT
___that$ = 8						; size = 4
??4CGraphDrawer@@QAEAAV0@ABV0@@Z PROC			; CGraphDrawer::operator=, COMDAT
; _this$ = ecx
  00000	8b c1		 mov	 eax, ecx
  00002	c2 04 00	 ret	 4
??4CGraphDrawer@@QAEAAV0@ABV0@@Z ENDP			; CGraphDrawer::operator=
_TEXT	ENDS
; Function compile flags: /Ogtp
; File D:\git\src\IBK\IBK_DRFN\ProjSrc\SrcChartEx\ChartOCX\GraphDraw\FundDraw.cpp
;	COMDAT ??_GCFundDraw@@UAEPAXI@Z
_TEXT	SEGMENT
___flags$ = 8						; size = 4
??_GCFundDraw@@UAEPAXI@Z PROC				; CFundDraw::`scalar deleting destructor', COMDAT
; _this$ = ecx
  00000	55		 push	 ebp
  00001	8b ec		 mov	 ebp, esp

; 34   : {

  00003	56		 push	 esi
  00004	8b f1		 mov	 esi, ecx
  00006	c7 06 00 00 00
	00		 mov	 DWORD PTR [esi], OFFSET ??_7CFundDraw@@6B@

; 35   : }

  0000c	e8 00 00 00 00	 call	 ??1CDraw@@UAE@XZ	; CDraw::~CDraw
  00011	f6 45 08 01	 test	 BYTE PTR ___flags$[ebp], 1
  00015	74 0b		 je	 SHORT $LN7@scalar
  00017	6a 28		 push	 40			; 00000028H
  00019	56		 push	 esi
  0001a	e8 00 00 00 00	 call	 ??3@YAXPAXI@Z		; operator delete
  0001f	83 c4 08	 add	 esp, 8
$LN7@scalar:
  00022	8b c6		 mov	 eax, esi
  00024	5e		 pop	 esi
  00025	5d		 pop	 ebp
  00026	c2 04 00	 ret	 4
??_GCFundDraw@@UAEPAXI@Z ENDP				; CFundDraw::`scalar deleting destructor'
_TEXT	ENDS
; Function compile flags: /Ogtp
; File D:\git\src\IBK\IBK_DRFN\ProjSrc\SrcChartEx\ChartOCX\GraphDraw\FundDraw.cpp
; File C:\Program Files (x86)\Microsoft Visual Studio\2019\Community\VC\Tools\MSVC\14.29.30133\atlmfc\include\afxwin1.inl
; File D:\git\src\IBK\IBK_DRFN\ProjSrc\SrcChartEx\ChartOCX\GraphDraw\FundDraw.cpp
;	COMDAT ?DrawBox@CFundDraw@@AAEXPAVCDC@@VCRect@@@Z
_TEXT	SEGMENT
_pDC$ = 8						; size = 4
_rect$ = 12						; size = 16
?DrawBox@CFundDraw@@AAEXPAVCDC@@VCRect@@@Z PROC		; CFundDraw::DrawBox, COMDAT
; _this$ = ecx

; 1288 : {

  00000	55		 push	 ebp
  00001	8b ec		 mov	 ebp, esp

; 1289 : 	CDraw::DrawRectangle(pDC, rect);

  00003	0f 10 45 0c	 movups	 xmm0, XMMWORD PTR _rect$[ebp]
  00007	56		 push	 esi
  00008	8b 75 08	 mov	 esi, DWORD PTR _pDC$[ebp]
  0000b	83 ec 10	 sub	 esp, 16			; 00000010H
  0000e	8b c4		 mov	 eax, esp
  00010	56		 push	 esi
  00011	0f 11 00	 movups	 XMMWORD PTR [eax], xmm0
  00014	e8 00 00 00 00	 call	 ?DrawRectangle@CDraw@@IAEXPAVCDC@@VCRect@@@Z ; CDraw::DrawRectangle
; File C:\Program Files (x86)\Microsoft Visual Studio\2019\Community\VC\Tools\MSVC\14.29.30133\atlmfc\include\afxwin1.inl

; 510  : 	{ ASSERT(m_hDC != NULL); return ::DrawEdge(m_hDC, lpRect, nEdge, nFlags); }

  00019	6a 0f		 push	 15			; 0000000fH
  0001b	6a 0a		 push	 10			; 0000000aH
  0001d	8d 45 0c	 lea	 eax, DWORD PTR _rect$[ebp]
  00020	50		 push	 eax
  00021	ff 76 04	 push	 DWORD PTR [esi+4]
  00024	ff 15 00 00 00
	00		 call	 DWORD PTR __imp__DrawEdge@16
; File D:\git\src\IBK\IBK_DRFN\ProjSrc\SrcChartEx\ChartOCX\GraphDraw\FundDraw.cpp

; 1291 : }

  0002a	5e		 pop	 esi
  0002b	5d		 pop	 ebp
  0002c	c2 14 00	 ret	 20			; 00000014H
?DrawBox@CFundDraw@@AAEXPAVCDC@@VCRect@@@Z ENDP		; CFundDraw::DrawBox
_TEXT	ENDS
; Function compile flags: /Ogtp
; File D:\git\src\IBK\IBK_DRFN\ProjSrc\SrcChartEx\ChartOCX\GraphDraw\FundDraw.cpp
; File C:\Program Files (x86)\Microsoft Visual Studio\2019\Community\VC\Tools\MSVC\14.29.30133\atlmfc\include\afxtempl.h
; File D:\git\src\IBK\IBK_DRFN\ProjSrc\SrcChartEx\ChartOCX\GraphDraw\FundDraw.cpp
; File C:\Program Files (x86)\Microsoft Visual Studio\2019\Community\VC\Tools\MSVC\14.29.30133\atlmfc\include\afxwin1.inl
; File D:\git\src\IBK\IBK_DRFN\ProjSrc\SrcChartEx\ChartOCX\GraphDraw\FundDraw.cpp
; File C:\Program Files (x86)\Microsoft Visual Studio\2019\Community\VC\Tools\MSVC\14.29.30133\atlmfc\include\afxwin1.inl
; File D:\git\src\IBK\IBK_DRFN\ProjSrc\SrcChartEx\ChartOCX\GraphDraw\FundDraw.cpp
; File C:\Program Files (x86)\Microsoft Visual Studio\2019\Community\VC\Tools\MSVC\14.29.30133\atlmfc\include\afxtempl.h
; File D:\git\src\IBK\IBK_DRFN\ProjSrc\SrcChartEx\ChartOCX\GraphDraw\FundDraw.cpp
; File C:\Program Files (x86)\Microsoft Visual Studio\2019\Community\VC\Tools\MSVC\14.29.30133\atlmfc\include\afxtempl.h
; File D:\git\src\IBK\IBK_DRFN\ProjSrc\SrcChartEx\ChartOCX\GraphDraw\FundDraw.cpp
; File C:\Program Files (x86)\Microsoft Visual Studio\2019\Community\VC\Tools\MSVC\14.29.30133\atlmfc\include\afxtempl.h
; File D:\git\src\IBK\IBK_DRFN\ProjSrc\SrcChartEx\ChartOCX\GraphDraw\FundDraw.cpp
; File C:\Program Files (x86)\Microsoft Visual Studio\2019\Community\VC\Tools\MSVC\14.29.30133\atlmfc\include\atltypes.h
; File D:\git\src\IBK\IBK_DRFN\ProjSrc\SrcChartEx\ChartOCX\GraphDraw\FundDraw.cpp
; File C:\Program Files (x86)\Microsoft Visual Studio\2019\Community\VC\Tools\MSVC\14.29.30133\atlmfc\include\atltypes.h
; File D:\git\src\IBK\IBK_DRFN\ProjSrc\SrcChartEx\ChartOCX\GraphDraw\FundDraw.cpp
; File C:\Program Files (x86)\Microsoft Visual Studio\2019\Community\VC\Tools\MSVC\14.29.30133\atlmfc\include\atltypes.h
; File D:\git\src\IBK\IBK_DRFN\ProjSrc\SrcChartEx\ChartOCX\GraphDraw\FundDraw.cpp
; File C:\Program Files (x86)\Microsoft Visual Studio\2019\Community\VC\Tools\MSVC\14.29.30133\atlmfc\include\atltypes.h
; File D:\git\src\IBK\IBK_DRFN\ProjSrc\SrcChartEx\ChartOCX\GraphDraw\FundDraw.cpp
; File C:\Program Files (x86)\Microsoft Visual Studio\2019\Community\VC\Tools\MSVC\14.29.30133\atlmfc\include\atltypes.h
; File D:\git\src\IBK\IBK_DRFN\ProjSrc\SrcChartEx\ChartOCX\GraphDraw\FundDraw.cpp
; File C:\Program Files (x86)\Microsoft Visual Studio\2019\Community\VC\Tools\MSVC\14.29.30133\atlmfc\include\afxwin1.inl
; File D:\git\src\IBK\IBK_DRFN\ProjSrc\SrcChartEx\ChartOCX\GraphDraw\FundDraw.cpp
;	COMDAT ?DrawGroupBar@CFundDraw@@AAE_NPAVCDC@@ABVCEtcGraphColor@@ABVCRect@@ABVCGraphColor@@HHHABN4ABV?$CList@PAVCPacket@@PAV1@@@VCPenThickness@@@Z
_TEXT	SEGMENT
_realBarWidth$1$ = -184					; size = 8
_volumnData$2 = -176					; size = 8
_standardDataPt$ = -168					; size = 8
_rect$3 = -160						; size = 16
_realWidth$ = -144					; size = 8
_pOldPen$1$ = -136					; size = 4
_pOldBrush$1$ = -132					; size = 4
_pos$2$ = -128						; size = 4
_dataPt$4 = -124					; size = 8
$T5 = -124						; size = 8
_secondBrush$ = -116					; size = 8
_thirdBrush$ = -108					; size = 8
_fourBrush$ = -100					; size = 8
_fiveBrush$ = -92					; size = 8
_sixBrush$ = -84					; size = 8
_sevenBrush$ = -76					; size = 8
_eightBrush$ = -68					; size = 8
_nineBrush$ = -60					; size = 8
_tenBrush$ = -52					; size = 8
_firstBrush$ = -44					; size = 8
_pen$ = -36						; size = 8
_packetCount$1$ = -28					; size = 4
_nIndex$1$ = -24					; size = 4
tv1271 = -24						; size = 4
$T6 = -20						; size = 4
_pPacket$2$ = -20					; size = 4
_this$1$ = -16						; size = 4
__$EHRec$ = -12						; size = 12
_pDC$ = 8						; size = 4
tv1278 = 12						; size = 4
_etcGraphColor$ = 12					; size = 4
_graphDrawingRegion$ = 16				; size = 4
_count$1$ = 20						; size = 4
_graphColor$ = 20					; size = 4
$T7 = 24						; size = 4
$T8 = 24						; size = 4
_dataStart$ = 24					; size = 4
_lineThickness$1$ = 28					; size = 4
tv1274 = 28						; size = 4
_dataEnd$ = 28						; size = 4
_dataRealEnd$ = 32					; size = 4
_dataViewMax$ = 36					; size = 4
_dataViewMin$ = 40					; size = 4
_packetList$ = 44					; size = 4
_penThickness$ = 48					; size = 20
?DrawGroupBar@CFundDraw@@AAE_NPAVCDC@@ABVCEtcGraphColor@@ABVCRect@@ABVCGraphColor@@HHHABN4ABV?$CList@PAVCPacket@@PAV1@@@VCPenThickness@@@Z PROC ; CFundDraw::DrawGroupBar, COMDAT
; _this$ = ecx

; 1161 : {

  00000	55		 push	 ebp
  00001	8b ec		 mov	 ebp, esp
  00003	6a ff		 push	 -1
  00005	68 00 00 00 00	 push	 __ehhandler$?DrawGroupBar@CFundDraw@@AAE_NPAVCDC@@ABVCEtcGraphColor@@ABVCRect@@ABVCGraphColor@@HHHABN4ABV?$CList@PAVCPacket@@PAV1@@@VCPenThickness@@@Z
  0000a	64 a1 00 00 00
	00		 mov	 eax, DWORD PTR fs:0
  00010	50		 push	 eax
  00011	81 ec ac 00 00
	00		 sub	 esp, 172		; 000000acH
  00017	56		 push	 esi
  00018	57		 push	 edi
  00019	a1 00 00 00 00	 mov	 eax, DWORD PTR ___security_cookie
  0001e	33 c5		 xor	 eax, ebp
  00020	50		 push	 eax
  00021	8d 45 f4	 lea	 eax, DWORD PTR __$EHRec$[ebp]
  00024	64 a3 00 00 00
	00		 mov	 DWORD PTR fs:0, eax
  0002a	8b f9		 mov	 edi, ecx
  0002c	89 7d f0	 mov	 DWORD PTR _this$1$[ebp], edi

; 1162 : 	POSITION pos = packetList.GetHeadPosition();

  0002f	8b 45 2c	 mov	 eax, DWORD PTR _packetList$[ebp]

; 1163 : 	
; 1164 : 	int packetCount = packetList.GetCount();
; 1165 : 
; 1166 : 	CPacket* pPacket;
; 1167 : 	for(int j = 0; j < packetCount; j++){

  00032	33 f6		 xor	 esi, esi
  00034	8b 48 0c	 mov	 ecx, DWORD PTR [eax+12]
  00037	8b 50 04	 mov	 edx, DWORD PTR [eax+4]
  0003a	89 4d e4	 mov	 DWORD PTR _packetCount$1$[ebp], ecx
  0003d	85 c9		 test	 ecx, ecx
  0003f	7e 1b		 jle	 SHORT $LN3@DrawGroupB
$LL4@DrawGroupB:

; 1168 : 		if(pos == NULL)

  00041	85 d2		 test	 edx, edx
  00043	0f 84 8f 05 00
	00		 je	 $LN123@DrawGroupB
; File C:\Program Files (x86)\Microsoft Visual Studio\2019\Community\VC\Tools\MSVC\14.29.30133\atlmfc\include\afxtempl.h

; 817  : 	{ CNode* pNode = (CNode*) rPosition;

  00049	8b c2		 mov	 eax, edx

; 819  : 		rPosition = (POSITION) pNode->pNext;

  0004b	8b 12		 mov	 edx, DWORD PTR [edx]
; File D:\git\src\IBK\IBK_DRFN\ProjSrc\SrcChartEx\ChartOCX\GraphDraw\FundDraw.cpp

; 1171 : 		if(pPacket == NULL)

  0004d	83 78 08 00	 cmp	 DWORD PTR [eax+8], 0
  00051	0f 84 81 05 00
	00		 je	 $LN123@DrawGroupB

; 1163 : 	
; 1164 : 	int packetCount = packetList.GetCount();
; 1165 : 
; 1166 : 	CPacket* pPacket;
; 1167 : 	for(int j = 0; j < packetCount; j++){

  00057	46		 inc	 esi
  00058	3b f1		 cmp	 esi, ecx
  0005a	7c e5		 jl	 SHORT $LL4@DrawGroupB
$LN3@DrawGroupB:

; 1172 : 			return false;
; 1173 : 	}
; 1174 : 
; 1175 : 	double widthRatio=8.0/10.0;	// barwidth     
; 1176 : 	double realWidth = CDraw::CalRealWidth(graphDrawingRegion, dataStart, dataEnd);

  0005c	ff 75 1c	 push	 DWORD PTR _dataEnd$[ebp]
  0005f	8b cf		 mov	 ecx, edi
  00061	ff 75 18	 push	 DWORD PTR _dataStart$[ebp]
  00064	ff 75 10	 push	 DWORD PTR _graphDrawingRegion$[ebp]
  00067	e8 00 00 00 00	 call	 ?CalRealWidth@CDraw@@IAENABVCRect@@HH@Z ; CDraw::CalRealWidth
  0006c	dd 9d 70 ff ff
	ff		 fstp	 QWORD PTR _realWidth$[ebp]

; 1177 : 	double barWidth = int(realWidth*widthRatio);

  00072	f2 0f 10 85 70
	ff ff ff	 movsd	 xmm0, QWORD PTR _realWidth$[ebp]

; 1178 : 	double realBarWidth = barWidth / packetCount;
; 1179 : 
; 1180 : 	int lineThickness = CDraw::CalUpLineThickness(penThickness, int(realBarWidth));

  0007a	8b cf		 mov	 ecx, edi
  0007c	f2 0f 59 05 00
	00 00 00	 mulsd	 xmm0, QWORD PTR __real@3fe999999999999a
  00084	f2 0f 2c f0	 cvttsd2si esi, xmm0
  00088	66 0f 6e 45 e4	 movd	 xmm0, DWORD PTR _packetCount$1$[ebp]
  0008d	f3 0f e6 c0	 cvtdq2pd xmm0, xmm0
  00091	66 0f 6e ce	 movd	 xmm1, esi
  00095	f3 0f e6 c9	 cvtdq2pd xmm1, xmm1
  00099	f2 0f 5e c8	 divsd	 xmm1, xmm0
  0009d	f2 0f 2c c1	 cvttsd2si eax, xmm1
  000a1	f2 0f 11 8d 48
	ff ff ff	 movsd	 QWORD PTR _realBarWidth$1$[ebp], xmm1
  000a9	50		 push	 eax
  000aa	8d 45 30	 lea	 eax, DWORD PTR _penThickness$[ebp]
  000ad	50		 push	 eax
  000ae	e8 00 00 00 00	 call	 ?CalUpLineThickness@CDraw@@IAEHABVCPenThickness@@H@Z ; CDraw::CalUpLineThickness

; 1181 : 
; 1182 : 	int brushCount = 10;
; 1183 : 	CBrush firstBrush	(graphColor.GetColor1());

  000b3	8b 7d 14	 mov	 edi, DWORD PTR _graphColor$[ebp]
  000b6	8b cf		 mov	 ecx, edi
  000b8	89 45 1c	 mov	 DWORD PTR _lineThickness$1$[ebp], eax
  000bb	ff 15 00 00 00
	00		 call	 DWORD PTR __imp_?GetColor1@CGraphColor@@QBEKXZ
  000c1	50		 push	 eax
  000c2	8d 4d d4	 lea	 ecx, DWORD PTR _firstBrush$[ebp]
  000c5	e8 00 00 00 00	 call	 ??0CBrush@@QAE@K@Z	; CBrush::CBrush

; 1184 : 	CBrush secondBrush	(graphColor.GetColor2());

  000ca	8b cf		 mov	 ecx, edi
  000cc	c7 45 fc 00 00
	00 00		 mov	 DWORD PTR __$EHRec$[ebp+8], 0
  000d3	ff 15 00 00 00
	00		 call	 DWORD PTR __imp_?GetColor2@CGraphColor@@QBEKXZ
  000d9	50		 push	 eax
  000da	8d 4d 8c	 lea	 ecx, DWORD PTR _secondBrush$[ebp]
  000dd	e8 00 00 00 00	 call	 ??0CBrush@@QAE@K@Z	; CBrush::CBrush

; 1185 : 	CBrush thirdBrush	(graphColor.GetColor3());

  000e2	8b cf		 mov	 ecx, edi
  000e4	c6 45 fc 01	 mov	 BYTE PTR __$EHRec$[ebp+8], 1
  000e8	ff 15 00 00 00
	00		 call	 DWORD PTR __imp_?GetColor3@CGraphColor@@QBEKXZ
  000ee	50		 push	 eax
  000ef	8d 4d 94	 lea	 ecx, DWORD PTR _thirdBrush$[ebp]
  000f2	e8 00 00 00 00	 call	 ??0CBrush@@QAE@K@Z	; CBrush::CBrush

; 1186 : 	CBrush fourBrush	(graphColor.GetColor4());

  000f7	8b cf		 mov	 ecx, edi
  000f9	c6 45 fc 02	 mov	 BYTE PTR __$EHRec$[ebp+8], 2
  000fd	ff 15 00 00 00
	00		 call	 DWORD PTR __imp_?GetColor4@CGraphColor@@QBEKXZ
  00103	50		 push	 eax
  00104	8d 4d 9c	 lea	 ecx, DWORD PTR _fourBrush$[ebp]
  00107	e8 00 00 00 00	 call	 ??0CBrush@@QAE@K@Z	; CBrush::CBrush

; 1187 : 	CBrush fiveBrush	(graphColor.GetColor5());

  0010c	8b cf		 mov	 ecx, edi
  0010e	c6 45 fc 03	 mov	 BYTE PTR __$EHRec$[ebp+8], 3
  00112	ff 15 00 00 00
	00		 call	 DWORD PTR __imp_?GetColor5@CGraphColor@@QBEKXZ
  00118	50		 push	 eax
  00119	8d 4d a4	 lea	 ecx, DWORD PTR _fiveBrush$[ebp]
  0011c	e8 00 00 00 00	 call	 ??0CBrush@@QAE@K@Z	; CBrush::CBrush

; 1188 : 	CBrush sixBrush		(graphColor.GetColor6());

  00121	8b cf		 mov	 ecx, edi
  00123	c6 45 fc 04	 mov	 BYTE PTR __$EHRec$[ebp+8], 4
  00127	ff 15 00 00 00
	00		 call	 DWORD PTR __imp_?GetColor6@CGraphColor@@QBEKXZ
  0012d	50		 push	 eax
  0012e	8d 4d ac	 lea	 ecx, DWORD PTR _sixBrush$[ebp]
  00131	e8 00 00 00 00	 call	 ??0CBrush@@QAE@K@Z	; CBrush::CBrush

; 1189 : 	CBrush sevenBrush	(etcGraphColor.GetGraphColor1());

  00136	8b 7d 0c	 mov	 edi, DWORD PTR _etcGraphColor$[ebp]
  00139	8b cf		 mov	 ecx, edi
  0013b	c6 45 fc 05	 mov	 BYTE PTR __$EHRec$[ebp+8], 5
  0013f	ff 15 00 00 00
	00		 call	 DWORD PTR __imp_?GetGraphColor1@CEtcGraphColor@@QBEKXZ
  00145	50		 push	 eax
  00146	8d 4d b4	 lea	 ecx, DWORD PTR _sevenBrush$[ebp]
  00149	e8 00 00 00 00	 call	 ??0CBrush@@QAE@K@Z	; CBrush::CBrush

; 1190 : 	CBrush eightBrush	(etcGraphColor.GetGraphColor2());

  0014e	8b cf		 mov	 ecx, edi
  00150	c6 45 fc 06	 mov	 BYTE PTR __$EHRec$[ebp+8], 6
  00154	ff 15 00 00 00
	00		 call	 DWORD PTR __imp_?GetGraphColor2@CEtcGraphColor@@QBEKXZ
  0015a	50		 push	 eax
  0015b	8d 4d bc	 lea	 ecx, DWORD PTR _eightBrush$[ebp]
  0015e	e8 00 00 00 00	 call	 ??0CBrush@@QAE@K@Z	; CBrush::CBrush
  00163	c6 45 fc 07	 mov	 BYTE PTR __$EHRec$[ebp+8], 7

; 1191 : 	CBrush nineBrush	(etcGraphColor.GetGraphColor3());

  00167	8b cf		 mov	 ecx, edi
  00169	ff 15 00 00 00
	00		 call	 DWORD PTR __imp_?GetGraphColor3@CEtcGraphColor@@QBEKXZ
  0016f	50		 push	 eax
  00170	8d 4d c4	 lea	 ecx, DWORD PTR _nineBrush$[ebp]
  00173	e8 00 00 00 00	 call	 ??0CBrush@@QAE@K@Z	; CBrush::CBrush

; 1192 : 	CBrush tenBrush		(etcGraphColor.GetGraphColor4());

  00178	8b cf		 mov	 ecx, edi
  0017a	c6 45 fc 08	 mov	 BYTE PTR __$EHRec$[ebp+8], 8
  0017e	ff 15 00 00 00
	00		 call	 DWORD PTR __imp_?GetGraphColor4@CEtcGraphColor@@QBEKXZ
  00184	50		 push	 eax
  00185	8d 4d cc	 lea	 ecx, DWORD PTR _tenBrush$[ebp]
  00188	e8 00 00 00 00	 call	 ??0CBrush@@QAE@K@Z	; CBrush::CBrush
; File C:\Program Files (x86)\Microsoft Visual Studio\2019\Community\VC\Tools\MSVC\14.29.30133\atlmfc\include\afxwin1.inl

; 70   : 	{ m_hObject = NULL; }

  0018d	c7 45 e0 00 00
	00 00		 mov	 DWORD PTR _pen$[ebp+4], 0

; 104  : 	{ }

  00194	c7 45 dc 00 00
	00 00		 mov	 DWORD PTR _pen$[ebp], OFFSET ??_7CPen@@6B@
; File D:\git\src\IBK\IBK_DRFN\ProjSrc\SrcChartEx\ChartOCX\GraphDraw\FundDraw.cpp

; 1195 : 	pen.CreatePen(PS_SOLID, lineThickness, etcGraphColor.GetGraphColor5());

  0019b	8b cf		 mov	 ecx, edi
  0019d	c6 45 fc 0a	 mov	 BYTE PTR __$EHRec$[ebp+8], 10 ; 0000000aH
  001a1	ff 15 00 00 00
	00		 call	 DWORD PTR __imp_?GetGraphColor5@CEtcGraphColor@@QBEKXZ
; File C:\Program Files (x86)\Microsoft Visual Studio\2019\Community\VC\Tools\MSVC\14.29.30133\atlmfc\include\afxwin1.inl

; 108  : 	{ return Attach(::CreatePen(nPenStyle, nWidth, crColor)); }

  001a7	50		 push	 eax
  001a8	ff 75 1c	 push	 DWORD PTR _lineThickness$1$[ebp]
  001ab	6a 00		 push	 0
  001ad	ff 15 00 00 00
	00		 call	 DWORD PTR __imp__CreatePen@12
  001b3	50		 push	 eax
  001b4	8d 4d dc	 lea	 ecx, DWORD PTR _pen$[ebp]
  001b7	e8 00 00 00 00	 call	 ?Attach@CGdiObject@@QAEHPAX@Z ; CGdiObject::Attach
; File D:\git\src\IBK\IBK_DRFN\ProjSrc\SrcChartEx\ChartOCX\GraphDraw\FundDraw.cpp

; 1199 : 	pOldBrush = (CBrush*)pDC->SelectObject(&firstBrush);

  001bc	8b 7d 08	 mov	 edi, DWORD PTR _pDC$[ebp]
  001bf	8d 45 d4	 lea	 eax, DWORD PTR _firstBrush$[ebp]
  001c2	50		 push	 eax
  001c3	8b cf		 mov	 ecx, edi
  001c5	e8 00 00 00 00	 call	 ?SelectObject@CDC@@QAEPAVCBrush@@PAV2@@Z ; CDC::SelectObject
  001ca	89 85 7c ff ff
	ff		 mov	 DWORD PTR _pOldBrush$1$[ebp], eax

; 1200 : 	pOldPen = (CPen*)pDC->SelectObject(&pen);

  001d0	8b cf		 mov	 ecx, edi
  001d2	8d 45 dc	 lea	 eax, DWORD PTR _pen$[ebp]
  001d5	50		 push	 eax
  001d6	e8 00 00 00 00	 call	 ?SelectObject@CDC@@QAEPAVCPen@@PAV2@@Z ; CDC::SelectObject

; 1201 : 
; 1202 : 	//  = 0.0
; 1203 : 	CPoint standardDataPt = CDataConversion::GetVerticalPoint(graphDrawingRegion, 1, realWidth, dataViewMin, dataViewMax, 0.0);

  001db	6a 01		 push	 1
  001dd	89 85 78 ff ff
	ff		 mov	 DWORD PTR _pOldPen$1$[ebp], eax
  001e3	0f 57 c0	 xorps	 xmm0, xmm0
  001e6	8d 45 84	 lea	 eax, DWORD PTR $T5[ebp]
  001e9	f2 0f 11 45 84	 movsd	 QWORD PTR $T5[ebp], xmm0
  001ee	50		 push	 eax
  001ef	ff 75 24	 push	 DWORD PTR _dataViewMax$[ebp]
  001f2	8d 85 70 ff ff
	ff		 lea	 eax, DWORD PTR _realWidth$[ebp]
  001f8	ff 75 28	 push	 DWORD PTR _dataViewMin$[ebp]
  001fb	50		 push	 eax
  001fc	6a 01		 push	 1
  001fe	ff 75 10	 push	 DWORD PTR _graphDrawingRegion$[ebp]
  00201	8d 85 58 ff ff
	ff		 lea	 eax, DWORD PTR _standardDataPt$[ebp]
  00207	50		 push	 eax
  00208	e8 00 00 00 00	 call	 ?GetVerticalPoint@CDataConversion@@SA?AVCPoint@@ABVCRect@@HABN111_N@Z ; CDataConversion::GetVerticalPoint

; 1204 : 	if(standardDataPt.y > graphDrawingRegion.top && standardDataPt.y < graphDrawingRegion.bottom)

  0020d	8b 4d 10	 mov	 ecx, DWORD PTR _graphDrawingRegion$[ebp]
  00210	83 c4 20	 add	 esp, 32			; 00000020H
  00213	8b 85 5c ff ff
	ff		 mov	 eax, DWORD PTR _standardDataPt$[ebp+4]
  00219	3b 41 04	 cmp	 eax, DWORD PTR [ecx+4]
  0021c	7e 15		 jle	 SHORT $LN13@DrawGroupB
  0021e	3b 41 0c	 cmp	 eax, DWORD PTR [ecx+12]
  00221	7d 10		 jge	 SHORT $LN13@DrawGroupB

; 1205 : 		CDraw::DrawLine(pDC, CPoint(graphDrawingRegion.left, standardDataPt.y), CPoint(graphDrawingRegion.right, standardDataPt.y));

  00223	50		 push	 eax
  00224	ff 71 08	 push	 DWORD PTR [ecx+8]
  00227	50		 push	 eax
  00228	ff 31		 push	 DWORD PTR [ecx]
  0022a	8b 4d f0	 mov	 ecx, DWORD PTR _this$1$[ebp]
  0022d	57		 push	 edi
  0022e	e8 00 00 00 00	 call	 ?DrawLine@CDraw@@IAEXPAVCDC@@UtagPOINT@@1@Z ; CDraw::DrawLine
$LN13@DrawGroupB:

; 1208 : 	for(int i = dataStart; i <= dataRealEnd; i++){

  00233	8b 45 18	 mov	 eax, DWORD PTR _dataStart$[ebp]
  00236	8b 55 20	 mov	 edx, DWORD PTR _dataRealEnd$[ebp]
  00239	c7 45 14 00 00
	00 00		 mov	 DWORD PTR _count$1$[ebp], 0
  00240	3b c2		 cmp	 eax, edx
  00242	0f 8f 79 02 00
	00		 jg	 $LN6@DrawGroupB

; 1206 : 
; 1207 : 	int count = 0;

  00248	2b d0		 sub	 edx, eax
  0024a	8d 48 ff	 lea	 ecx, DWORD PTR [eax-1]
  0024d	8b 45 e4	 mov	 eax, DWORD PTR _packetCount$1$[ebp]
  00250	42		 inc	 edx
  00251	89 4d 1c	 mov	 DWORD PTR tv1274[ebp], ecx
  00254	89 55 20	 mov	 DWORD PTR _dataRealEnd$[ebp], edx
$LL7@DrawGroupB:

; 1209 : 		count++;
; 1210 : 		pos = packetList.GetHeadPosition();

  00257	8b 55 2c	 mov	 edx, DWORD PTR _packetList$[ebp]
  0025a	33 ff		 xor	 edi, edi
  0025c	ff 45 14	 inc	 DWORD PTR _count$1$[ebp]
  0025f	8b 52 04	 mov	 edx, DWORD PTR [edx+4]

; 1211 : 		for(int k = 0; k < packetCount; k++){

  00262	85 c0		 test	 eax, eax
  00264	0f 8e 46 02 00
	00		 jle	 $LN5@DrawGroupB
  0026a	66 0f 6e c6	 movd	 xmm0, esi
  0026e	f3 0f e6 c0	 cvtdq2pd xmm0, xmm0
  00272	f2 0f 59 05 00
	00 00 00	 mulsd	 xmm0, QWORD PTR __real@3fe0000000000000
  0027a	f2 0f 2c c0	 cvttsd2si eax, xmm0
  0027e	89 45 0c	 mov	 DWORD PTR tv1278[ebp], eax
$LL10@DrawGroupB:

; 1212 : 			pPacket = packetList.GetNext(pos);

  00281	8b 42 08	 mov	 eax, DWORD PTR [edx+8]
; File C:\Program Files (x86)\Microsoft Visual Studio\2019\Community\VC\Tools\MSVC\14.29.30133\atlmfc\include\afxtempl.h

; 819  : 		rPosition = (POSITION) pNode->pNext;

  00284	8b 12		 mov	 edx, DWORD PTR [edx]
; File D:\git\src\IBK\IBK_DRFN\ProjSrc\SrcChartEx\ChartOCX\GraphDraw\FundDraw.cpp

; 1214 : 			POSITION packetPos = pPacket->GetnumericDataList()->FindIndex(i - 1);

  00286	89 4d e8	 mov	 DWORD PTR _nIndex$1$[ebp], ecx
  00289	8b c8		 mov	 ecx, eax
; File C:\Program Files (x86)\Microsoft Visual Studio\2019\Community\VC\Tools\MSVC\14.29.30133\atlmfc\include\afxtempl.h

; 819  : 		rPosition = (POSITION) pNode->pNext;

  0028b	89 55 80	 mov	 DWORD PTR _pos$2$[ebp], edx
; File D:\git\src\IBK\IBK_DRFN\ProjSrc\SrcChartEx\ChartOCX\GraphDraw\FundDraw.cpp

; 1212 : 			pPacket = packetList.GetNext(pos);

  0028e	89 45 ec	 mov	 DWORD PTR _pPacket$2$[ebp], eax

; 1214 : 			POSITION packetPos = pPacket->GetnumericDataList()->FindIndex(i - 1);

  00291	ff 15 00 00 00
	00		 call	 DWORD PTR __imp_?GetnumericDataList@CPacket@@QAEPAV?$CList@NN@@XZ
; File C:\Program Files (x86)\Microsoft Visual Studio\2019\Community\VC\Tools\MSVC\14.29.30133\atlmfc\include\afxtempl.h

; 1133 : 	if (nIndex >= m_nCount || nIndex < 0)

  00297	8b 4d 1c	 mov	 ecx, DWORD PTR tv1274[ebp]
  0029a	3b 48 0c	 cmp	 ecx, DWORD PTR [eax+12]
  0029d	7d 1d		 jge	 SHORT $LN71@DrawGroupB
  0029f	85 c9		 test	 ecx, ecx
  002a1	78 19		 js	 SHORT $LN71@DrawGroupB

; 1135 : 
; 1136 : 	CNode* pNode = m_pNodeHead;

  002a3	8b 40 04	 mov	 eax, DWORD PTR [eax+4]
  002a6	89 45 18	 mov	 DWORD PTR $T8[ebp], eax

; 1137 : 	while (nIndex--)

  002a9	74 18		 je	 SHORT $LN67@DrawGroupB
  002ab	8b 4d e8	 mov	 ecx, DWORD PTR _nIndex$1$[ebp]
  002ae	66 90		 npad	 2
$LL68@DrawGroupB:

; 1138 : 	{
; 1139 : 		ASSERT(AfxIsValidAddress(pNode, sizeof(CNode)));
; 1140 : 		pNode = pNode->pNext;

  002b0	8b 00		 mov	 eax, DWORD PTR [eax]
  002b2	83 e9 01	 sub	 ecx, 1
  002b5	75 f9		 jne	 SHORT $LL68@DrawGroupB
  002b7	89 45 18	 mov	 DWORD PTR $T8[ebp], eax

; 1141 : 	}
; 1142 : 	return (POSITION) pNode;

  002ba	eb 07		 jmp	 SHORT $LN67@DrawGroupB
$LN71@DrawGroupB:

; 1134 : 		return NULL;  // went too far

  002bc	c7 45 18 00 00
	00 00		 mov	 DWORD PTR $T8[ebp], 0
$LN67@DrawGroupB:
; File D:\git\src\IBK\IBK_DRFN\ProjSrc\SrcChartEx\ChartOCX\GraphDraw\FundDraw.cpp

; 1218 : 			double volumnData = pPacket->GetnumericDataList()->GetNext(packetPos);

  002c3	8b 4d ec	 mov	 ecx, DWORD PTR _pPacket$2$[ebp]
  002c6	ff 15 00 00 00
	00		 call	 DWORD PTR __imp_?GetnumericDataList@CPacket@@QAEPAV?$CList@NN@@XZ
  002cc	8b 45 18	 mov	 eax, DWORD PTR $T8[ebp]

; 1219 : 			
; 1220 : 			CPoint dataPt = CDataConversion::GetVerticalPoint(graphDrawingRegion, count, realWidth, dataViewMin, dataViewMax, volumnData);

  002cf	6a 01		 push	 1
  002d1	f2 0f 10 40 08	 movsd	 xmm0, QWORD PTR [eax+8]
  002d6	8d 85 50 ff ff
	ff		 lea	 eax, DWORD PTR _volumnData$2[ebp]
  002dc	50		 push	 eax
  002dd	ff 75 24	 push	 DWORD PTR _dataViewMax$[ebp]
  002e0	8d 85 70 ff ff
	ff		 lea	 eax, DWORD PTR _realWidth$[ebp]
  002e6	f2 0f 11 85 50
	ff ff ff	 movsd	 QWORD PTR _volumnData$2[ebp], xmm0
  002ee	ff 75 28	 push	 DWORD PTR _dataViewMin$[ebp]
  002f1	50		 push	 eax
  002f2	ff 75 14	 push	 DWORD PTR _count$1$[ebp]
  002f5	8d 45 84	 lea	 eax, DWORD PTR _dataPt$4[ebp]
  002f8	ff 75 10	 push	 DWORD PTR _graphDrawingRegion$[ebp]
  002fb	50		 push	 eax
  002fc	e8 00 00 00 00	 call	 ?GetVerticalPoint@CDataConversion@@SA?AVCPoint@@ABVCRect@@HABN111_N@Z ; CDataConversion::GetVerticalPoint
  00301	66 0f 6e c7	 movd	 xmm0, edi
  00305	83 c4 20	 add	 esp, 32			; 00000020H

; 1221 : 			CRect rect(dataPt.x - int(barWidth/2) + int(realBarWidth * k), dataPt.y, dataPt.x - int(barWidth/2) + int(realBarWidth * (k+1)), standardDataPt.y);

  00308	f3 0f e6 c0	 cvtdq2pd xmm0, xmm0

; 1223 : 			if(rect.top < graphDrawingRegion.top)

  0030c	8b 45 10	 mov	 eax, DWORD PTR _graphDrawingRegion$[ebp]
; File C:\Program Files (x86)\Microsoft Visual Studio\2019\Community\VC\Tools\MSVC\14.29.30133\atlmfc\include\atltypes.h

; 541  : 	top = t;

  0030f	8b 55 88	 mov	 edx, DWORD PTR _dataPt$4[ebp+4]
; File D:\git\src\IBK\IBK_DRFN\ProjSrc\SrcChartEx\ChartOCX\GraphDraw\FundDraw.cpp

; 1223 : 			if(rect.top < graphDrawingRegion.top)

  00312	8b 40 04	 mov	 eax, DWORD PTR [eax+4]
  00315	f2 0f 59 85 48
	ff ff ff	 mulsd	 xmm0, QWORD PTR _realBarWidth$1$[ebp]
  0031d	f2 0f 2c c8	 cvttsd2si ecx, xmm0
; File C:\Program Files (x86)\Microsoft Visual Studio\2019\Community\VC\Tools\MSVC\14.29.30133\atlmfc\include\atltypes.h

; 540  : 	left = l;

  00321	2b 4d 0c	 sub	 ecx, DWORD PTR tv1278[ebp]
; File D:\git\src\IBK\IBK_DRFN\ProjSrc\SrcChartEx\ChartOCX\GraphDraw\FundDraw.cpp

; 1221 : 			CRect rect(dataPt.x - int(barWidth/2) + int(realBarWidth * k), dataPt.y, dataPt.x - int(barWidth/2) + int(realBarWidth * (k+1)), standardDataPt.y);

  00324	03 4d 84	 add	 ecx, DWORD PTR _dataPt$4[ebp]
; File C:\Program Files (x86)\Microsoft Visual Studio\2019\Community\VC\Tools\MSVC\14.29.30133\atlmfc\include\atltypes.h

; 540  : 	left = l;

  00327	89 8d 60 ff ff
	ff		 mov	 DWORD PTR _rect$3[ebp], ecx
; File D:\git\src\IBK\IBK_DRFN\ProjSrc\SrcChartEx\ChartOCX\GraphDraw\FundDraw.cpp

; 1221 : 			CRect rect(dataPt.x - int(barWidth/2) + int(realBarWidth * k), dataPt.y, dataPt.x - int(barWidth/2) + int(realBarWidth * (k+1)), standardDataPt.y);

  0032d	8d 4f 01	 lea	 ecx, DWORD PTR [edi+1]
  00330	66 0f 6e c1	 movd	 xmm0, ecx
  00334	f3 0f e6 c0	 cvtdq2pd xmm0, xmm0
  00338	89 4d e8	 mov	 DWORD PTR tv1271[ebp], ecx
  0033b	f2 0f 59 85 48
	ff ff ff	 mulsd	 xmm0, QWORD PTR _realBarWidth$1$[ebp]
  00343	f2 0f 2c c8	 cvttsd2si ecx, xmm0
; File C:\Program Files (x86)\Microsoft Visual Studio\2019\Community\VC\Tools\MSVC\14.29.30133\atlmfc\include\atltypes.h

; 542  : 	right = r;

  00347	2b 4d 0c	 sub	 ecx, DWORD PTR tv1278[ebp]
; File D:\git\src\IBK\IBK_DRFN\ProjSrc\SrcChartEx\ChartOCX\GraphDraw\FundDraw.cpp

; 1221 : 			CRect rect(dataPt.x - int(barWidth/2) + int(realBarWidth * k), dataPt.y, dataPt.x - int(barWidth/2) + int(realBarWidth * (k+1)), standardDataPt.y);

  0034a	03 4d 84	 add	 ecx, DWORD PTR _dataPt$4[ebp]

; 1223 : 			if(rect.top < graphDrawingRegion.top)

  0034d	3b d0		 cmp	 edx, eax
; File C:\Program Files (x86)\Microsoft Visual Studio\2019\Community\VC\Tools\MSVC\14.29.30133\atlmfc\include\atltypes.h

; 542  : 	right = r;

  0034f	89 8d 68 ff ff
	ff		 mov	 DWORD PTR _rect$3[ebp+8], ecx

; 543  : 	bottom = b;

  00355	8b 8d 5c ff ff
	ff		 mov	 ecx, DWORD PTR _standardDataPt$[ebp+4]
; File D:\git\src\IBK\IBK_DRFN\ProjSrc\SrcChartEx\ChartOCX\GraphDraw\FundDraw.cpp

; 1223 : 			if(rect.top < graphDrawingRegion.top)

  0035b	0f 4c d0	 cmovl	 edx, eax

; 1224 : 				rect.top = graphDrawingRegion.top;
; 1225 : 			if(rect.bottom < graphDrawingRegion.top)

  0035e	3b c8		 cmp	 ecx, eax
  00360	0f 4c c8	 cmovl	 ecx, eax

; 1226 : 				rect.bottom = graphDrawingRegion.top;
; 1227 : 			if(rect.bottom > graphDrawingRegion.bottom)

  00363	8b 45 10	 mov	 eax, DWORD PTR _graphDrawingRegion$[ebp]
  00366	8b 40 0c	 mov	 eax, DWORD PTR [eax+12]
  00369	89 45 18	 mov	 DWORD PTR $T7[ebp], eax
  0036c	8b c1		 mov	 eax, ecx
  0036e	3b 4d 18	 cmp	 ecx, DWORD PTR $T7[ebp]
  00371	0f 4f 45 18	 cmovg	 eax, DWORD PTR $T7[ebp]
  00375	89 85 6c ff ff
	ff		 mov	 DWORD PTR _rect$3[ebp+12], eax

; 1228 : 				rect.bottom = graphDrawingRegion.bottom;
; 1229 : 			if(rect.top > graphDrawingRegion.bottom)

  0037b	8b 45 18	 mov	 eax, DWORD PTR $T7[ebp]
  0037e	0f 4e c1	 cmovle	 eax, ecx
  00381	8b 4d 18	 mov	 ecx, DWORD PTR $T7[ebp]
  00384	89 45 ec	 mov	 DWORD PTR $T6[ebp], eax
  00387	3b d1		 cmp	 edx, ecx
  00389	8b c2		 mov	 eax, edx
  0038b	0f 4f c1	 cmovg	 eax, ecx

; 1230 : 				rect.top = graphDrawingRegion.bottom;
; 1231 : 
; 1232 : 			int selectBrush = (k+1) - (brushCount * ((k+1)/ brushCount));

  0038e	0f 4e ca	 cmovle	 ecx, edx
  00391	89 85 64 ff ff
	ff		 mov	 DWORD PTR _rect$3[ebp+4], eax
  00397	b8 67 66 66 66	 mov	 eax, 1717986919		; 66666667H
  0039c	f7 6d e8	 imul	 DWORD PTR tv1271[ebp]
  0039f	89 4d 18	 mov	 DWORD PTR $T7[ebp], ecx
  003a2	c1 fa 02	 sar	 edx, 2
  003a5	8b c2		 mov	 eax, edx
  003a7	c1 e8 1f	 shr	 eax, 31			; 0000001fH
  003aa	03 c2		 add	 eax, edx
  003ac	8d 04 80	 lea	 eax, DWORD PTR [eax+eax*4]
  003af	03 c0		 add	 eax, eax
  003b1	2b f8		 sub	 edi, eax

; 1233 : 
; 1234 : 			if(selectBrush == 1)

  003b3	75 08		 jne	 SHORT $LN18@DrawGroupB

; 1235 : 				pDC->SelectObject(&firstBrush);

  003b5	8b 7d 08	 mov	 edi, DWORD PTR _pDC$[ebp]
  003b8	8d 45 d4	 lea	 eax, DWORD PTR _firstBrush$[ebp]
  003bb	eb 73		 jmp	 SHORT $LN139@DrawGroupB
$LN18@DrawGroupB:

; 1236 : 			else if(selectBrush == 2)				

  003bd	83 ff 01	 cmp	 edi, 1
  003c0	75 08		 jne	 SHORT $LN20@DrawGroupB

; 1237 : 				pDC->SelectObject(&secondBrush);

  003c2	8b 7d 08	 mov	 edi, DWORD PTR _pDC$[ebp]
  003c5	8d 45 8c	 lea	 eax, DWORD PTR _secondBrush$[ebp]
  003c8	eb 66		 jmp	 SHORT $LN139@DrawGroupB
$LN20@DrawGroupB:

; 1238 : 			else if(selectBrush == 3)

  003ca	83 ff 02	 cmp	 edi, 2
  003cd	75 08		 jne	 SHORT $LN22@DrawGroupB

; 1239 : 				pDC->SelectObject(&thirdBrush);

  003cf	8b 7d 08	 mov	 edi, DWORD PTR _pDC$[ebp]
  003d2	8d 45 94	 lea	 eax, DWORD PTR _thirdBrush$[ebp]
  003d5	eb 59		 jmp	 SHORT $LN139@DrawGroupB
$LN22@DrawGroupB:

; 1240 : 			else if(selectBrush == 4)

  003d7	83 ff 03	 cmp	 edi, 3
  003da	75 08		 jne	 SHORT $LN24@DrawGroupB

; 1241 : 				pDC->SelectObject(&fourBrush);

  003dc	8b 7d 08	 mov	 edi, DWORD PTR _pDC$[ebp]
  003df	8d 45 9c	 lea	 eax, DWORD PTR _fourBrush$[ebp]
  003e2	eb 4c		 jmp	 SHORT $LN139@DrawGroupB
$LN24@DrawGroupB:

; 1242 : 			else if(selectBrush == 5)

  003e4	83 ff 04	 cmp	 edi, 4
  003e7	75 08		 jne	 SHORT $LN26@DrawGroupB

; 1243 : 				pDC->SelectObject(&fiveBrush);

  003e9	8b 7d 08	 mov	 edi, DWORD PTR _pDC$[ebp]
  003ec	8d 45 a4	 lea	 eax, DWORD PTR _fiveBrush$[ebp]
  003ef	eb 3f		 jmp	 SHORT $LN139@DrawGroupB
$LN26@DrawGroupB:

; 1244 : 			else if(selectBrush == 6)

  003f1	83 ff 05	 cmp	 edi, 5
  003f4	75 08		 jne	 SHORT $LN28@DrawGroupB

; 1245 : 				pDC->SelectObject(&sixBrush);

  003f6	8b 7d 08	 mov	 edi, DWORD PTR _pDC$[ebp]
  003f9	8d 45 ac	 lea	 eax, DWORD PTR _sixBrush$[ebp]
  003fc	eb 32		 jmp	 SHORT $LN139@DrawGroupB
$LN28@DrawGroupB:

; 1246 : 			else if(selectBrush == 7)

  003fe	83 ff 06	 cmp	 edi, 6
  00401	75 08		 jne	 SHORT $LN30@DrawGroupB

; 1247 : 				pDC->SelectObject(&sevenBrush);

  00403	8b 7d 08	 mov	 edi, DWORD PTR _pDC$[ebp]
  00406	8d 45 b4	 lea	 eax, DWORD PTR _sevenBrush$[ebp]
  00409	eb 25		 jmp	 SHORT $LN139@DrawGroupB
$LN30@DrawGroupB:

; 1248 : 			else if(selectBrush == 8)

  0040b	83 ff 07	 cmp	 edi, 7
  0040e	75 08		 jne	 SHORT $LN32@DrawGroupB

; 1249 : 				pDC->SelectObject(&eightBrush);

  00410	8b 7d 08	 mov	 edi, DWORD PTR _pDC$[ebp]
  00413	8d 45 bc	 lea	 eax, DWORD PTR _eightBrush$[ebp]
  00416	eb 18		 jmp	 SHORT $LN139@DrawGroupB
$LN32@DrawGroupB:

; 1250 : 			else if(selectBrush == 9)

  00418	83 ff 08	 cmp	 edi, 8
  0041b	75 08		 jne	 SHORT $LN34@DrawGroupB

; 1251 : 				pDC->SelectObject(&nineBrush);

  0041d	8b 7d 08	 mov	 edi, DWORD PTR _pDC$[ebp]
  00420	8d 45 c4	 lea	 eax, DWORD PTR _nineBrush$[ebp]
  00423	eb 0b		 jmp	 SHORT $LN139@DrawGroupB
$LN34@DrawGroupB:

; 1252 : 			else if(selectBrush == 10)

  00425	83 ff 09	 cmp	 edi, 9
  00428	8b 7d 08	 mov	 edi, DWORD PTR _pDC$[ebp]
  0042b	75 0e		 jne	 SHORT $LN36@DrawGroupB

; 1253 : 				pDC->SelectObject(&tenBrush);

  0042d	8d 45 cc	 lea	 eax, DWORD PTR _tenBrush$[ebp]
$LN139@DrawGroupB:

; 1254 : //			else
; 1255 : //				pDC->SelectObject(&firstBrush);
; 1256 : 
; 1257 : 			//    
; 1258 : 			if(barWidth < 1)

  00430	50		 push	 eax
  00431	8b cf		 mov	 ecx, edi
  00433	e8 00 00 00 00	 call	 ?SelectObject@CDC@@QAEPAVCBrush@@PAV2@@Z ; CDC::SelectObject
  00438	8b 4d 18	 mov	 ecx, DWORD PTR $T7[ebp]
$LN36@DrawGroupB:
  0043b	f2 0f 10 0d 00
	00 00 00	 movsd	 xmm1, QWORD PTR __real@3ff0000000000000
  00443	8b 45 ec	 mov	 eax, DWORD PTR $T6[ebp]
  00446	66 0f 6e c6	 movd	 xmm0, esi
  0044a	f3 0f e6 c0	 cvtdq2pd xmm0, xmm0
  0044e	66 0f 2f c8	 comisd	 xmm1, xmm0
  00452	76 15		 jbe	 SHORT $LN37@DrawGroupB

; 1259 : 					CDraw::DrawLine(pDC, CPoint(rect.left, rect.top), CPoint(rect.left, rect.bottom));

  00454	50		 push	 eax
  00455	8b 85 60 ff ff
	ff		 mov	 eax, DWORD PTR _rect$3[ebp]
  0045b	50		 push	 eax
  0045c	51		 push	 ecx
  0045d	8b 4d f0	 mov	 ecx, DWORD PTR _this$1$[ebp]
  00460	50		 push	 eax
  00461	57		 push	 edi
  00462	e8 00 00 00 00	 call	 ?DrawLine@CDraw@@IAEXPAVCDC@@UtagPOINT@@1@Z ; CDraw::DrawLine
  00467	eb 33		 jmp	 SHORT $LN8@DrawGroupB
$LN37@DrawGroupB:

; 1260 : 			else{
; 1261 : 				if(rect.top == rect.bottom)

  00469	3b c8		 cmp	 ecx, eax
  0046b	8b 4d f0	 mov	 ecx, DWORD PTR _this$1$[ebp]
  0046e	75 17		 jne	 SHORT $LN39@DrawGroupB

; 1262 : 					CDraw::DrawLine(pDC, CPoint(rect.left, rect.bottom), CPoint(rect.right, rect.bottom));

  00470	50		 push	 eax
  00471	ff b5 68 ff ff
	ff		 push	 DWORD PTR _rect$3[ebp+8]
  00477	50		 push	 eax
  00478	8b 85 60 ff ff
	ff		 mov	 eax, DWORD PTR _rect$3[ebp]
  0047e	50		 push	 eax
  0047f	57		 push	 edi
  00480	e8 00 00 00 00	 call	 ?DrawLine@CDraw@@IAEXPAVCDC@@UtagPOINT@@1@Z ; CDraw::DrawLine
  00485	eb 15		 jmp	 SHORT $LN8@DrawGroupB
$LN39@DrawGroupB:

; 1263 : 				else
; 1264 : 					CDraw::DrawRectangle(pDC, rect);

  00487	0f 10 85 60 ff
	ff ff		 movups	 xmm0, XMMWORD PTR _rect$3[ebp]
  0048e	83 ec 10	 sub	 esp, 16			; 00000010H
  00491	8b c4		 mov	 eax, esp
  00493	57		 push	 edi
  00494	0f 11 00	 movups	 XMMWORD PTR [eax], xmm0
  00497	e8 00 00 00 00	 call	 ?DrawRectangle@CDraw@@IAEXPAVCDC@@VCRect@@@Z ; CDraw::DrawRectangle
$LN8@DrawGroupB:

; 1211 : 		for(int k = 0; k < packetCount; k++){

  0049c	8b 7d e8	 mov	 edi, DWORD PTR tv1271[ebp]
  0049f	8b 45 e4	 mov	 eax, DWORD PTR _packetCount$1$[ebp]
  004a2	8b 4d 1c	 mov	 ecx, DWORD PTR tv1274[ebp]
  004a5	8b 55 80	 mov	 edx, DWORD PTR _pos$2$[ebp]
  004a8	3b f8		 cmp	 edi, eax
  004aa	0f 8c d1 fd ff
	ff		 jl	 $LL10@DrawGroupB
$LN5@DrawGroupB:

; 1208 : 	for(int i = dataStart; i <= dataRealEnd; i++){

  004b0	41		 inc	 ecx
  004b1	83 6d 20 01	 sub	 DWORD PTR _dataRealEnd$[ebp], 1
  004b5	89 4d 1c	 mov	 DWORD PTR tv1274[ebp], ecx
  004b8	0f 85 99 fd ff
	ff		 jne	 $LL7@DrawGroupB
  004be	8b 7d 08	 mov	 edi, DWORD PTR _pDC$[ebp]
$LN6@DrawGroupB:

; 1265 : 			}
; 1266 : 		}	
; 1267 : 	}
; 1268 : 
; 1269 : 	pDC->SelectObject(pOldBrush);

  004c1	ff b5 7c ff ff
	ff		 push	 DWORD PTR _pOldBrush$1$[ebp]
  004c7	8b cf		 mov	 ecx, edi
  004c9	e8 00 00 00 00	 call	 ?SelectObject@CDC@@QAEPAVCBrush@@PAV2@@Z ; CDC::SelectObject

; 1270 : 	pDC->SelectObject(pOldPen);

  004ce	ff b5 78 ff ff
	ff		 push	 DWORD PTR _pOldPen$1$[ebp]
  004d4	8b cf		 mov	 ecx, edi
  004d6	e8 00 00 00 00	 call	 ?SelectObject@CDC@@QAEPAVCPen@@PAV2@@Z ; CDC::SelectObject

; 1271 : 
; 1272 : 	firstBrush.DeleteObject();

  004db	8d 4d d4	 lea	 ecx, DWORD PTR _firstBrush$[ebp]
  004de	e8 00 00 00 00	 call	 ?DeleteObject@CGdiObject@@QAEHXZ ; CGdiObject::DeleteObject

; 1273 : 	secondBrush.DeleteObject();

  004e3	8d 4d 8c	 lea	 ecx, DWORD PTR _secondBrush$[ebp]
  004e6	e8 00 00 00 00	 call	 ?DeleteObject@CGdiObject@@QAEHXZ ; CGdiObject::DeleteObject

; 1274 : 	thirdBrush.DeleteObject();

  004eb	8d 4d 94	 lea	 ecx, DWORD PTR _thirdBrush$[ebp]
  004ee	e8 00 00 00 00	 call	 ?DeleteObject@CGdiObject@@QAEHXZ ; CGdiObject::DeleteObject

; 1275 : 	fourBrush.DeleteObject();

  004f3	8d 4d 9c	 lea	 ecx, DWORD PTR _fourBrush$[ebp]
  004f6	e8 00 00 00 00	 call	 ?DeleteObject@CGdiObject@@QAEHXZ ; CGdiObject::DeleteObject

; 1276 : 	fiveBrush.DeleteObject();

  004fb	8d 4d a4	 lea	 ecx, DWORD PTR _fiveBrush$[ebp]
  004fe	e8 00 00 00 00	 call	 ?DeleteObject@CGdiObject@@QAEHXZ ; CGdiObject::DeleteObject

; 1277 : 	sixBrush.DeleteObject();

  00503	8d 4d ac	 lea	 ecx, DWORD PTR _sixBrush$[ebp]
  00506	e8 00 00 00 00	 call	 ?DeleteObject@CGdiObject@@QAEHXZ ; CGdiObject::DeleteObject

; 1278 : 	sevenBrush.DeleteObject();

  0050b	8d 4d b4	 lea	 ecx, DWORD PTR _sevenBrush$[ebp]
  0050e	e8 00 00 00 00	 call	 ?DeleteObject@CGdiObject@@QAEHXZ ; CGdiObject::DeleteObject

; 1279 : 	eightBrush.DeleteObject();

  00513	8d 4d bc	 lea	 ecx, DWORD PTR _eightBrush$[ebp]
  00516	e8 00 00 00 00	 call	 ?DeleteObject@CGdiObject@@QAEHXZ ; CGdiObject::DeleteObject

; 1280 : 	nineBrush.DeleteObject();

  0051b	8d 4d c4	 lea	 ecx, DWORD PTR _nineBrush$[ebp]
  0051e	e8 00 00 00 00	 call	 ?DeleteObject@CGdiObject@@QAEHXZ ; CGdiObject::DeleteObject

; 1281 : 	tenBrush.DeleteObject();

  00523	8d 4d cc	 lea	 ecx, DWORD PTR _tenBrush$[ebp]
  00526	e8 00 00 00 00	 call	 ?DeleteObject@CGdiObject@@QAEHXZ ; CGdiObject::DeleteObject

; 1282 : 
; 1283 : 	pen.DeleteObject();

  0052b	8d 4d dc	 lea	 ecx, DWORD PTR _pen$[ebp]
  0052e	e8 00 00 00 00	 call	 ?DeleteObject@CGdiObject@@QAEHXZ ; CGdiObject::DeleteObject
; File C:\Program Files (x86)\Microsoft Visual Studio\2019\Community\VC\Tools\MSVC\14.29.30133\atlmfc\include\afxwin1.inl

; 106  : 	{ }

  00533	8d 4d dc	 lea	 ecx, DWORD PTR _pen$[ebp]
  00536	c7 45 dc 00 00
	00 00		 mov	 DWORD PTR _pen$[ebp], OFFSET ??_7CPen@@6B@
  0053d	e8 00 00 00 00	 call	 ??1CGdiObject@@UAE@XZ	; CGdiObject::~CGdiObject

; 130  : 	{ }

  00542	8d 4d cc	 lea	 ecx, DWORD PTR _tenBrush$[ebp]
  00545	c7 45 cc 00 00
	00 00		 mov	 DWORD PTR _tenBrush$[ebp], OFFSET ??_7CBrush@@6B@
  0054c	e8 00 00 00 00	 call	 ??1CGdiObject@@UAE@XZ	; CGdiObject::~CGdiObject
  00551	8d 4d c4	 lea	 ecx, DWORD PTR _nineBrush$[ebp]
  00554	c7 45 c4 00 00
	00 00		 mov	 DWORD PTR _nineBrush$[ebp], OFFSET ??_7CBrush@@6B@
  0055b	e8 00 00 00 00	 call	 ??1CGdiObject@@UAE@XZ	; CGdiObject::~CGdiObject
  00560	8d 4d bc	 lea	 ecx, DWORD PTR _eightBrush$[ebp]
  00563	c7 45 bc 00 00
	00 00		 mov	 DWORD PTR _eightBrush$[ebp], OFFSET ??_7CBrush@@6B@
  0056a	e8 00 00 00 00	 call	 ??1CGdiObject@@UAE@XZ	; CGdiObject::~CGdiObject
  0056f	8d 4d b4	 lea	 ecx, DWORD PTR _sevenBrush$[ebp]
  00572	c7 45 b4 00 00
	00 00		 mov	 DWORD PTR _sevenBrush$[ebp], OFFSET ??_7CBrush@@6B@
  00579	e8 00 00 00 00	 call	 ??1CGdiObject@@UAE@XZ	; CGdiObject::~CGdiObject
  0057e	8d 4d ac	 lea	 ecx, DWORD PTR _sixBrush$[ebp]
  00581	c7 45 ac 00 00
	00 00		 mov	 DWORD PTR _sixBrush$[ebp], OFFSET ??_7CBrush@@6B@
  00588	e8 00 00 00 00	 call	 ??1CGdiObject@@UAE@XZ	; CGdiObject::~CGdiObject
  0058d	8d 4d a4	 lea	 ecx, DWORD PTR _fiveBrush$[ebp]
  00590	c7 45 a4 00 00
	00 00		 mov	 DWORD PTR _fiveBrush$[ebp], OFFSET ??_7CBrush@@6B@
  00597	e8 00 00 00 00	 call	 ??1CGdiObject@@UAE@XZ	; CGdiObject::~CGdiObject
  0059c	8d 4d 9c	 lea	 ecx, DWORD PTR _fourBrush$[ebp]
  0059f	c7 45 9c 00 00
	00 00		 mov	 DWORD PTR _fourBrush$[ebp], OFFSET ??_7CBrush@@6B@
  005a6	e8 00 00 00 00	 call	 ??1CGdiObject@@UAE@XZ	; CGdiObject::~CGdiObject
  005ab	8d 4d 94	 lea	 ecx, DWORD PTR _thirdBrush$[ebp]
  005ae	c7 45 94 00 00
	00 00		 mov	 DWORD PTR _thirdBrush$[ebp], OFFSET ??_7CBrush@@6B@
  005b5	e8 00 00 00 00	 call	 ??1CGdiObject@@UAE@XZ	; CGdiObject::~CGdiObject
  005ba	8d 4d 8c	 lea	 ecx, DWORD PTR _secondBrush$[ebp]
  005bd	c7 45 8c 00 00
	00 00		 mov	 DWORD PTR _secondBrush$[ebp], OFFSET ??_7CBrush@@6B@
  005c4	e8 00 00 00 00	 call	 ??1CGdiObject@@UAE@XZ	; CGdiObject::~CGdiObject
  005c9	8d 4d d4	 lea	 ecx, DWORD PTR _firstBrush$[ebp]
  005cc	c7 45 d4 00 00
	00 00		 mov	 DWORD PTR _firstBrush$[ebp], OFFSET ??_7CBrush@@6B@
  005d3	e8 00 00 00 00	 call	 ??1CGdiObject@@UAE@XZ	; CGdiObject::~CGdiObject
$LN123@DrawGroupB:
; File D:\git\src\IBK\IBK_DRFN\ProjSrc\SrcChartEx\ChartOCX\GraphDraw\FundDraw.cpp

; 1285 : }

  005d8	32 c0		 xor	 al, al
  005da	8b 4d f4	 mov	 ecx, DWORD PTR __$EHRec$[ebp]
  005dd	64 89 0d 00 00
	00 00		 mov	 DWORD PTR fs:0, ecx
  005e4	59		 pop	 ecx
  005e5	5f		 pop	 edi
  005e6	5e		 pop	 esi
  005e7	8b e5		 mov	 esp, ebp
  005e9	5d		 pop	 ebp
  005ea	c2 3c 00	 ret	 60			; 0000003cH
_TEXT	ENDS
;	COMDAT text$x
text$x	SEGMENT
__unwindfunclet$?DrawGroupBar@CFundDraw@@AAE_NPAVCDC@@ABVCEtcGraphColor@@ABVCRect@@ABVCGraphColor@@HHHABN4ABV?$CList@PAVCPacket@@PAV1@@@VCPenThickness@@@Z$0:
  00000	8d 4d d4	 lea	 ecx, DWORD PTR _firstBrush$[ebp]
  00003	e9 00 00 00 00	 jmp	 ??1CBrush@@UAE@XZ	; CBrush::~CBrush
__unwindfunclet$?DrawGroupBar@CFundDraw@@AAE_NPAVCDC@@ABVCEtcGraphColor@@ABVCRect@@ABVCGraphColor@@HHHABN4ABV?$CList@PAVCPacket@@PAV1@@@VCPenThickness@@@Z$1:
  00008	8d 4d 8c	 lea	 ecx, DWORD PTR _secondBrush$[ebp]
  0000b	e9 00 00 00 00	 jmp	 ??1CBrush@@UAE@XZ	; CBrush::~CBrush
__unwindfunclet$?DrawGroupBar@CFundDraw@@AAE_NPAVCDC@@ABVCEtcGraphColor@@ABVCRect@@ABVCGraphColor@@HHHABN4ABV?$CList@PAVCPacket@@PAV1@@@VCPenThickness@@@Z$2:
  00010	8d 4d 94	 lea	 ecx, DWORD PTR _thirdBrush$[ebp]
  00013	e9 00 00 00 00	 jmp	 ??1CBrush@@UAE@XZ	; CBrush::~CBrush
__unwindfunclet$?DrawGroupBar@CFundDraw@@AAE_NPAVCDC@@ABVCEtcGraphColor@@ABVCRect@@ABVCGraphColor@@HHHABN4ABV?$CList@PAVCPacket@@PAV1@@@VCPenThickness@@@Z$3:
  00018	8d 4d 9c	 lea	 ecx, DWORD PTR _fourBrush$[ebp]
  0001b	e9 00 00 00 00	 jmp	 ??1CBrush@@UAE@XZ	; CBrush::~CBrush
__unwindfunclet$?DrawGroupBar@CFundDraw@@AAE_NPAVCDC@@ABVCEtcGraphColor@@ABVCRect@@ABVCGraphColor@@HHHABN4ABV?$CList@PAVCPacket@@PAV1@@@VCPenThickness@@@Z$4:
  00020	8d 4d a4	 lea	 ecx, DWORD PTR _fiveBrush$[ebp]
  00023	e9 00 00 00 00	 jmp	 ??1CBrush@@UAE@XZ	; CBrush::~CBrush
__unwindfunclet$?DrawGroupBar@CFundDraw@@AAE_NPAVCDC@@ABVCEtcGraphColor@@ABVCRect@@ABVCGraphColor@@HHHABN4ABV?$CList@PAVCPacket@@PAV1@@@VCPenThickness@@@Z$5:
  00028	8d 4d ac	 lea	 ecx, DWORD PTR _sixBrush$[ebp]
  0002b	e9 00 00 00 00	 jmp	 ??1CBrush@@UAE@XZ	; CBrush::~CBrush
__unwindfunclet$?DrawGroupBar@CFundDraw@@AAE_NPAVCDC@@ABVCEtcGraphColor@@ABVCRect@@ABVCGraphColor@@HHHABN4ABV?$CList@PAVCPacket@@PAV1@@@VCPenThickness@@@Z$6:
  00030	8d 4d b4	 lea	 ecx, DWORD PTR _sevenBrush$[ebp]
  00033	e9 00 00 00 00	 jmp	 ??1CBrush@@UAE@XZ	; CBrush::~CBrush
__unwindfunclet$?DrawGroupBar@CFundDraw@@AAE_NPAVCDC@@ABVCEtcGraphColor@@ABVCRect@@ABVCGraphColor@@HHHABN4ABV?$CList@PAVCPacket@@PAV1@@@VCPenThickness@@@Z$7:
  00038	8d 4d bc	 lea	 ecx, DWORD PTR _eightBrush$[ebp]
  0003b	e9 00 00 00 00	 jmp	 ??1CBrush@@UAE@XZ	; CBrush::~CBrush
__unwindfunclet$?DrawGroupBar@CFundDraw@@AAE_NPAVCDC@@ABVCEtcGraphColor@@ABVCRect@@ABVCGraphColor@@HHHABN4ABV?$CList@PAVCPacket@@PAV1@@@VCPenThickness@@@Z$8:
  00040	8d 4d c4	 lea	 ecx, DWORD PTR _nineBrush$[ebp]
  00043	e9 00 00 00 00	 jmp	 ??1CBrush@@UAE@XZ	; CBrush::~CBrush
__unwindfunclet$?DrawGroupBar@CFundDraw@@AAE_NPAVCDC@@ABVCEtcGraphColor@@ABVCRect@@ABVCGraphColor@@HHHABN4ABV?$CList@PAVCPacket@@PAV1@@@VCPenThickness@@@Z$9:
  00048	8d 4d cc	 lea	 ecx, DWORD PTR _tenBrush$[ebp]
  0004b	e9 00 00 00 00	 jmp	 ??1CBrush@@UAE@XZ	; CBrush::~CBrush
__unwindfunclet$?DrawGroupBar@CFundDraw@@AAE_NPAVCDC@@ABVCEtcGraphColor@@ABVCRect@@ABVCGraphColor@@HHHABN4ABV?$CList@PAVCPacket@@PAV1@@@VCPenThickness@@@Z$10:
  00050	8d 4d dc	 lea	 ecx, DWORD PTR _pen$[ebp]
  00053	e9 00 00 00 00	 jmp	 ??1CPen@@UAE@XZ		; CPen::~CPen
  00058	cc		 int	 3
  00059	cc		 int	 3
  0005a	cc		 int	 3
  0005b	cc		 int	 3
  0005c	cc		 int	 3
__ehhandler$?DrawGroupBar@CFundDraw@@AAE_NPAVCDC@@ABVCEtcGraphColor@@ABVCRect@@ABVCGraphColor@@HHHABN4ABV?$CList@PAVCPacket@@PAV1@@@VCPenThickness@@@Z:
  0005d	90		 npad	 1
  0005e	90		 npad	 1
  0005f	8b 54 24 08	 mov	 edx, DWORD PTR [esp+8]
  00063	8d 42 0c	 lea	 eax, DWORD PTR [edx+12]
  00066	8b 8a 48 ff ff
	ff		 mov	 ecx, DWORD PTR [edx-184]
  0006c	33 c8		 xor	 ecx, eax
  0006e	e8 00 00 00 00	 call	 @__security_check_cookie@4
  00073	b8 00 00 00 00	 mov	 eax, OFFSET __ehfuncinfo$?DrawGroupBar@CFundDraw@@AAE_NPAVCDC@@ABVCEtcGraphColor@@ABVCRect@@ABVCGraphColor@@HHHABN4ABV?$CList@PAVCPacket@@PAV1@@@VCPenThickness@@@Z
  00078	e9 00 00 00 00	 jmp	 ___CxxFrameHandler3
text$x	ENDS
?DrawGroupBar@CFundDraw@@AAE_NPAVCDC@@ABVCEtcGraphColor@@ABVCRect@@ABVCGraphColor@@HHHABN4ABV?$CList@PAVCPacket@@PAV1@@@VCPenThickness@@@Z ENDP ; CFundDraw::DrawGroupBar
; Function compile flags: /Ogtp
; File D:\git\src\IBK\IBK_DRFN\ProjSrc\SrcChartEx\ChartOCX\GraphDraw\FundDraw.cpp
; File C:\Program Files (x86)\Microsoft Visual Studio\2019\Community\VC\Tools\MSVC\14.29.30133\atlmfc\include\afxtempl.h
; File D:\git\src\IBK\IBK_DRFN\ProjSrc\SrcChartEx\ChartOCX\GraphDraw\FundDraw.cpp
; File C:\Program Files (x86)\Microsoft Visual Studio\2019\Community\VC\Tools\MSVC\14.29.30133\atlmfc\include\afxtempl.h
; File D:\git\src\IBK\IBK_DRFN\ProjSrc\SrcChartEx\ChartOCX\GraphDraw\FundDraw.cpp
; File C:\Program Files (x86)\Microsoft Visual Studio\2019\Community\VC\Tools\MSVC\14.29.30133\atlmfc\include\afxtempl.h
; File D:\git\src\IBK\IBK_DRFN\ProjSrc\SrcChartEx\ChartOCX\GraphDraw\FundDraw.cpp
; File C:\Program Files (x86)\Microsoft Visual Studio\2019\Community\VC\Tools\MSVC\14.29.30133\atlmfc\include\afxwin1.inl
; File D:\git\src\IBK\IBK_DRFN\ProjSrc\SrcChartEx\ChartOCX\GraphDraw\FundDraw.cpp
; File C:\Program Files (x86)\Microsoft Visual Studio\2019\Community\VC\Tools\MSVC\14.29.30133\atlmfc\include\afxwin1.inl
; File D:\git\src\IBK\IBK_DRFN\ProjSrc\SrcChartEx\ChartOCX\GraphDraw\FundDraw.cpp
; File C:\Program Files (x86)\Microsoft Visual Studio\2019\Community\VC\Tools\MSVC\14.29.30133\atlmfc\include\afxwin1.inl
; File D:\git\src\IBK\IBK_DRFN\ProjSrc\SrcChartEx\ChartOCX\GraphDraw\FundDraw.cpp
; File C:\Program Files (x86)\Microsoft Visual Studio\2019\Community\VC\Tools\MSVC\14.29.30133\atlmfc\include\afxwin1.inl
; File D:\git\src\IBK\IBK_DRFN\ProjSrc\SrcChartEx\ChartOCX\GraphDraw\FundDraw.cpp
; File C:\Program Files (x86)\Microsoft Visual Studio\2019\Community\VC\Tools\MSVC\14.29.30133\atlmfc\include\afxwin1.inl
; File D:\git\src\IBK\IBK_DRFN\ProjSrc\SrcChartEx\ChartOCX\GraphDraw\FundDraw.cpp
; File C:\Program Files (x86)\Microsoft Visual Studio\2019\Community\VC\Tools\MSVC\14.29.30133\atlmfc\include\afxwin1.inl
; File D:\git\src\IBK\IBK_DRFN\ProjSrc\SrcChartEx\ChartOCX\GraphDraw\FundDraw.cpp
; File C:\Program Files (x86)\Microsoft Visual Studio\2019\Community\VC\Tools\MSVC\14.29.30133\atlmfc\include\afxwin1.inl
; File D:\git\src\IBK\IBK_DRFN\ProjSrc\SrcChartEx\ChartOCX\GraphDraw\FundDraw.cpp
; File C:\Program Files (x86)\Microsoft Visual Studio\2019\Community\VC\Tools\MSVC\14.29.30133\atlmfc\include\afxwin1.inl
; File D:\git\src\IBK\IBK_DRFN\ProjSrc\SrcChartEx\ChartOCX\GraphDraw\FundDraw.cpp
; File C:\Program Files (x86)\Microsoft Visual Studio\2019\Community\VC\Tools\MSVC\14.29.30133\atlmfc\include\afxwin1.inl
; File D:\git\src\IBK\IBK_DRFN\ProjSrc\SrcChartEx\ChartOCX\GraphDraw\FundDraw.cpp
; File C:\Program Files (x86)\Microsoft Visual Studio\2019\Community\VC\Tools\MSVC\14.29.30133\atlmfc\include\afxwin1.inl
; File D:\git\src\IBK\IBK_DRFN\ProjSrc\SrcChartEx\ChartOCX\GraphDraw\FundDraw.cpp
; File C:\Program Files (x86)\Microsoft Visual Studio\2019\Community\VC\Tools\MSVC\14.29.30133\atlmfc\include\afxwin1.inl
; File D:\git\src\IBK\IBK_DRFN\ProjSrc\SrcChartEx\ChartOCX\GraphDraw\FundDraw.cpp
; File C:\Program Files (x86)\Microsoft Visual Studio\2019\Community\VC\Tools\MSVC\14.29.30133\atlmfc\include\afxwin1.inl
; File D:\git\src\IBK\IBK_DRFN\ProjSrc\SrcChartEx\ChartOCX\GraphDraw\FundDraw.cpp
; File C:\Program Files (x86)\Microsoft Visual Studio\2019\Community\VC\Tools\MSVC\14.29.30133\atlmfc\include\afxwin1.inl
; File D:\git\src\IBK\IBK_DRFN\ProjSrc\SrcChartEx\ChartOCX\GraphDraw\FundDraw.cpp
; File C:\Program Files (x86)\Microsoft Visual Studio\2019\Community\VC\Tools\MSVC\14.29.30133\atlmfc\include\afxwin1.inl
; File D:\git\src\IBK\IBK_DRFN\ProjSrc\SrcChartEx\ChartOCX\GraphDraw\FundDraw.cpp
; File C:\Program Files (x86)\Microsoft Visual Studio\2019\Community\VC\Tools\MSVC\14.29.30133\atlmfc\include\atltypes.h
; File D:\git\src\IBK\IBK_DRFN\ProjSrc\SrcChartEx\ChartOCX\GraphDraw\FundDraw.cpp
; File C:\Program Files (x86)\Microsoft Visual Studio\2019\Community\VC\Tools\MSVC\14.29.30133\atlmfc\include\afxtempl.h
; File D:\git\src\IBK\IBK_DRFN\ProjSrc\SrcChartEx\ChartOCX\GraphDraw\FundDraw.cpp
; File C:\Program Files (x86)\Microsoft Visual Studio\2019\Community\VC\Tools\MSVC\14.29.30133\atlmfc\include\afxtempl.h
; File D:\git\src\IBK\IBK_DRFN\ProjSrc\SrcChartEx\ChartOCX\GraphDraw\FundDraw.cpp
; File C:\Program Files (x86)\Microsoft Visual Studio\2019\Community\VC\Tools\MSVC\14.29.30133\atlmfc\include\afxtempl.h
; File D:\git\src\IBK\IBK_DRFN\ProjSrc\SrcChartEx\ChartOCX\GraphDraw\FundDraw.cpp
; File C:\Program Files (x86)\Microsoft Visual Studio\2019\Community\VC\Tools\MSVC\14.29.30133\atlmfc\include\afxtempl.h
; File D:\git\src\IBK\IBK_DRFN\ProjSrc\SrcChartEx\ChartOCX\GraphDraw\FundDraw.cpp
; File D:\git\src\IBK\IBK_DRFN\ProjSrc\SrcChartEx\ChartOCX\Include_Chart\Conversion.h
; File D:\git\src\IBK\IBK_DRFN\ProjSrc\SrcChartEx\ChartOCX\GraphDraw\FundDraw.cpp
; File D:\git\src\IBK\IBK_DRFN\ProjSrc\SrcChartEx\ChartOCX\Include_Chart\Conversion.h
; File D:\git\src\IBK\IBK_DRFN\ProjSrc\SrcChartEx\ChartOCX\GraphDraw\FundDraw.cpp
; File C:\Program Files (x86)\Microsoft Visual Studio\2019\Community\VC\Tools\MSVC\14.29.30133\atlmfc\include\atltypes.h
; File D:\git\src\IBK\IBK_DRFN\ProjSrc\SrcChartEx\ChartOCX\GraphDraw\FundDraw.cpp
; File C:\Program Files (x86)\Microsoft Visual Studio\2019\Community\VC\Tools\MSVC\14.29.30133\atlmfc\include\afxtempl.h
; File D:\git\src\IBK\IBK_DRFN\ProjSrc\SrcChartEx\ChartOCX\GraphDraw\FundDraw.cpp
; File C:\Program Files (x86)\Microsoft Visual Studio\2019\Community\VC\Tools\MSVC\14.29.30133\atlmfc\include\afxtempl.h
; File D:\git\src\IBK\IBK_DRFN\ProjSrc\SrcChartEx\ChartOCX\GraphDraw\FundDraw.cpp
; File C:\Program Files (x86)\Microsoft Visual Studio\2019\Community\VC\Tools\MSVC\14.29.30133\atlmfc\include\afxtempl.h
; File D:\git\src\IBK\IBK_DRFN\ProjSrc\SrcChartEx\ChartOCX\GraphDraw\FundDraw.cpp
; File D:\git\src\IBK\IBK_DRFN\ProjSrc\SrcChartEx\ChartOCX\Include_Chart\Conversion.h
; File D:\git\src\IBK\IBK_DRFN\ProjSrc\SrcChartEx\ChartOCX\GraphDraw\FundDraw.cpp
; File D:\git\src\IBK\IBK_DRFN\ProjSrc\SrcChartEx\ChartOCX\Include_Chart\Conversion.h
; File D:\git\src\IBK\IBK_DRFN\ProjSrc\SrcChartEx\ChartOCX\GraphDraw\FundDraw.cpp
; File C:\Program Files (x86)\Microsoft Visual Studio\2019\Community\VC\Tools\MSVC\14.29.30133\atlmfc\include\atltypes.h
; File D:\git\src\IBK\IBK_DRFN\ProjSrc\SrcChartEx\ChartOCX\GraphDraw\FundDraw.cpp
; File C:\Program Files (x86)\Microsoft Visual Studio\2019\Community\VC\Tools\MSVC\14.29.30133\atlmfc\include\atltypes.h
; File D:\git\src\IBK\IBK_DRFN\ProjSrc\SrcChartEx\ChartOCX\GraphDraw\FundDraw.cpp
; File C:\Program Files (x86)\Microsoft Visual Studio\2019\Community\VC\Tools\MSVC\14.29.30133\atlmfc\include\atltypes.h
; File D:\git\src\IBK\IBK_DRFN\ProjSrc\SrcChartEx\ChartOCX\GraphDraw\FundDraw.cpp
; File C:\Program Files (x86)\Microsoft Visual Studio\2019\Community\VC\Tools\MSVC\14.29.30133\atlmfc\include\afxwin1.inl
; File D:\git\src\IBK\IBK_DRFN\ProjSrc\SrcChartEx\ChartOCX\GraphDraw\FundDraw.cpp
; File C:\Program Files (x86)\Microsoft Visual Studio\2019\Community\VC\Tools\MSVC\14.29.30133\atlmfc\include\afxwin1.inl
; File D:\git\src\IBK\IBK_DRFN\ProjSrc\SrcChartEx\ChartOCX\GraphDraw\FundDraw.cpp
; File C:\Program Files (x86)\Microsoft Visual Studio\2019\Community\VC\Tools\MSVC\14.29.30133\atlmfc\include\afxwin1.inl
; File D:\git\src\IBK\IBK_DRFN\ProjSrc\SrcChartEx\ChartOCX\GraphDraw\FundDraw.cpp
; File C:\Program Files (x86)\Microsoft Visual Studio\2019\Community\VC\Tools\MSVC\14.29.30133\atlmfc\include\afxwin1.inl
; File D:\git\src\IBK\IBK_DRFN\ProjSrc\SrcChartEx\ChartOCX\GraphDraw\FundDraw.cpp
; File C:\Program Files (x86)\Microsoft Visual Studio\2019\Community\VC\Tools\MSVC\14.29.30133\atlmfc\include\afxwin1.inl
; File D:\git\src\IBK\IBK_DRFN\ProjSrc\SrcChartEx\ChartOCX\GraphDraw\FundDraw.cpp
; File C:\Program Files (x86)\Microsoft Visual Studio\2019\Community\VC\Tools\MSVC\14.29.30133\atlmfc\include\afxwin1.inl
; File D:\git\src\IBK\IBK_DRFN\ProjSrc\SrcChartEx\ChartOCX\GraphDraw\FundDraw.cpp
; File C:\Program Files (x86)\Microsoft Visual Studio\2019\Community\VC\Tools\MSVC\14.29.30133\atlmfc\include\afxwin1.inl
; File D:\git\src\IBK\IBK_DRFN\ProjSrc\SrcChartEx\ChartOCX\GraphDraw\FundDraw.cpp
; File C:\Program Files (x86)\Microsoft Visual Studio\2019\Community\VC\Tools\MSVC\14.29.30133\atlmfc\include\afxwin1.inl
; File D:\git\src\IBK\IBK_DRFN\ProjSrc\SrcChartEx\ChartOCX\GraphDraw\FundDraw.cpp
; File C:\Program Files (x86)\Microsoft Visual Studio\2019\Community\VC\Tools\MSVC\14.29.30133\atlmfc\include\afxwin1.inl
; File D:\git\src\IBK\IBK_DRFN\ProjSrc\SrcChartEx\ChartOCX\GraphDraw\FundDraw.cpp
; File C:\Program Files (x86)\Microsoft Visual Studio\2019\Community\VC\Tools\MSVC\14.29.30133\atlmfc\include\afxwin1.inl
; File D:\git\src\IBK\IBK_DRFN\ProjSrc\SrcChartEx\ChartOCX\GraphDraw\FundDraw.cpp
; File C:\Program Files (x86)\Microsoft Visual Studio\2019\Community\VC\Tools\MSVC\14.29.30133\atlmfc\include\afxwin1.inl
; File C:\Program Files (x86)\Microsoft Visual Studio\2019\Community\VC\Tools\MSVC\14.29.30133\atlmfc\include\atltypes.h
; File D:\git\src\IBK\IBK_DRFN\ProjSrc\SrcChartEx\ChartOCX\GraphDraw\FundDraw.cpp
; File C:\Program Files (x86)\Microsoft Visual Studio\2019\Community\VC\Tools\MSVC\14.29.30133\atlmfc\include\afxwin1.inl
; File D:\git\src\IBK\IBK_DRFN\ProjSrc\SrcChartEx\ChartOCX\GraphDraw\FundDraw.cpp
; File C:\Program Files (x86)\Microsoft Visual Studio\2019\Community\VC\Tools\MSVC\14.29.30133\atlmfc\include\afxwin1.inl
; File D:\git\src\IBK\IBK_DRFN\ProjSrc\SrcChartEx\ChartOCX\GraphDraw\FundDraw.cpp
; File C:\Program Files (x86)\Microsoft Visual Studio\2019\Community\VC\Tools\MSVC\14.29.30133\atlmfc\include\afxwin1.inl
; File C:\Program Files (x86)\Microsoft Visual Studio\2019\Community\VC\Tools\MSVC\14.29.30133\atlmfc\include\afxtempl.h
; File D:\git\src\IBK\IBK_DRFN\ProjSrc\SrcChartEx\ChartOCX\GraphDraw\FundDraw.cpp
;	COMDAT ?DrawComponentRatio_Bar_Line@CFundDraw@@AAE_NPAVCDC@@ABVCEtcGraphColor@@ABVCRect@@ABVCGraphColor@@HHHABN4ABV?$CList@PAVCPacket@@PAV1@@@VCPenThickness@@@Z
_TEXT	SEGMENT
$T2 = -428						; size = 8
$T3 = -420						; size = 8
$T4 = -412						; size = 16
_data$5 = -396						; size = 8
_beforeData$6 = -388					; size = 8
$T7 = -380						; size = 8
$T8 = -372						; size = 8
_pOldPen$1$ = -364					; size = 4
_realWidth$ = -360					; size = 8
$T9 = -352						; size = 4
_pOldBrush$1$ = -348					; size = 4
tv3262 = -344						; size = 4
$T10 = -340						; size = 4
$T11 = -336						; size = 4
$T12 = -332						; size = 4
_packetList$GSCopy$1$ = -328				; size = 4
_packetPosition$ = -324					; size = 28
_secondBrush$ = -296					; size = 8
_thirdBrush$ = -288					; size = 8
_fourBrush$ = -280					; size = 8
_fiveBrush$ = -272					; size = 8
_sixBrush$ = -264					; size = 8
_sevenBrush$ = -256					; size = 8
_eightBrush$ = -248					; size = 8
_nineBrush$ = -240					; size = 8
_tenBrush$ = -232					; size = 8
tv3265 = -224						; size = 4
_dataViewMin$GSCopy$1$ = -220				; size = 4
_dataViewMax$GSCopy$1$ = -216				; size = 4
_packetHeadPos$2$ = -212				; size = 4
_pen5$ = -208						; size = 8
_pen1$ = -200						; size = 8
_pen2$ = -192						; size = 8
_pen3$ = -184						; size = 8
_pen4$ = -176						; size = 8
_pen6$ = -168						; size = 8
_pen7$ = -160						; size = 8
_pen8$ = -152						; size = 8
_pen9$ = -144						; size = 8
_pen10$ = -136						; size = 8
_firstBrush$ = -128					; size = 8
_pen$ = -120						; size = 8
_packetCount$1$ = -112					; size = 4
_beforeStrData$13 = -108				; size = 4
_nIndex$1$ = -104					; size = 4
_j$1$ = -104						; size = 4
_packetHeadPos$1$ = -100				; size = 4
_beforeDataY$14 = -100					; size = 4
_dataPacket$1$ = -96					; size = 4
_saveDataY$1$ = -92					; size = 4
_dataStart$GSCopy$1$ = -88				; size = 4
_i$1$ = -84						; size = 4
_strData$15 = -84					; size = 4
_beforeDataPt$16 = -80					; size = 8
$T17 = -76						; size = 4
$T18 = -76						; size = 4
$T19 = -76						; size = 4
$T20 = -76						; size = 4
_DataPt$1$ = -72					; size = 4
_dataPos$2$ = -72					; size = 4
tv3261 = -72						; size = 4
$T21 = -65						; size = 1
_linePt$1$ = -64					; size = 4
_bongWidth$3$ = -60					; size = 4
_graphDrawingRegion$GSCopy$1$ = -56			; size = 4
_lineThickness$1$ = -52					; size = 4
_etcGraphColor$GSCopy$1$ = -48				; size = 4
_count$1$ = -48						; size = 4
_graphColor$GSCopy$1$ = -44				; size = 4
_beforeDataPt$1$ = -44					; size = 4
tv3259 = -44						; size = 4
_pDC$GSCopy$1$ = -40					; size = 4
_this$GSCopy$1$ = -36					; size = 4
_rect$22 = -32						; size = 16
__$ArrayPad$ = -16					; size = 4
__$EHRec$ = -12						; size = 12
_pDC$ = 8						; size = 4
_etcGraphColor$ = 12					; size = 4
_graphDrawingRegion$ = 16				; size = 4
_graphColor$ = 20					; size = 4
_dataStart$ = 24					; size = 4
_dataEnd$ = 28						; size = 4
_dataRealEnd$ = 32					; size = 4
_dataViewMax$ = 36					; size = 4
_dataViewMin$ = 40					; size = 4
_packetList$ = 44					; size = 4
_penThickness$ = 48					; size = 20
?DrawComponentRatio_Bar_Line@CFundDraw@@AAE_NPAVCDC@@ABVCEtcGraphColor@@ABVCRect@@ABVCGraphColor@@HHHABN4ABV?$CList@PAVCPacket@@PAV1@@@VCPenThickness@@@Z PROC ; CFundDraw::DrawComponentRatio_Bar_Line, COMDAT
; _this$ = ecx

; 932  : {

  00000	55		 push	 ebp
  00001	8b ec		 mov	 ebp, esp
  00003	6a ff		 push	 -1
  00005	68 00 00 00 00	 push	 __ehhandler$?DrawComponentRatio_Bar_Line@CFundDraw@@AAE_NPAVCDC@@ABVCEtcGraphColor@@ABVCRect@@ABVCGraphColor@@HHHABN4ABV?$CList@PAVCPacket@@PAV1@@@VCPenThickness@@@Z
  0000a	64 a1 00 00 00
	00		 mov	 eax, DWORD PTR fs:0
  00010	50		 push	 eax
  00011	81 ec a0 01 00
	00		 sub	 esp, 416		; 000001a0H
  00017	a1 00 00 00 00	 mov	 eax, DWORD PTR ___security_cookie
  0001c	33 c5		 xor	 eax, ebp
  0001e	89 45 f0	 mov	 DWORD PTR __$ArrayPad$[ebp], eax
  00021	56		 push	 esi
  00022	57		 push	 edi
  00023	50		 push	 eax
  00024	8d 45 f4	 lea	 eax, DWORD PTR __$EHRec$[ebp]
  00027	64 a3 00 00 00
	00		 mov	 DWORD PTR fs:0, eax
  0002d	8b f9		 mov	 edi, ecx
  0002f	89 7d dc	 mov	 DWORD PTR _this$GSCopy$1$[ebp], edi
  00032	8b 45 08	 mov	 eax, DWORD PTR _pDC$[ebp]
  00035	8b 75 10	 mov	 esi, DWORD PTR _graphDrawingRegion$[ebp]
  00038	8b 55 18	 mov	 edx, DWORD PTR _dataStart$[ebp]
  0003b	89 45 d8	 mov	 DWORD PTR _pDC$GSCopy$1$[ebp], eax
  0003e	8b 45 0c	 mov	 eax, DWORD PTR _etcGraphColor$[ebp]
  00041	89 45 d0	 mov	 DWORD PTR _etcGraphColor$GSCopy$1$[ebp], eax
  00044	8b 45 14	 mov	 eax, DWORD PTR _graphColor$[ebp]
  00047	89 45 d4	 mov	 DWORD PTR _graphColor$GSCopy$1$[ebp], eax
  0004a	8b 45 24	 mov	 eax, DWORD PTR _dataViewMax$[ebp]
  0004d	89 85 28 ff ff
	ff		 mov	 DWORD PTR _dataViewMax$GSCopy$1$[ebp], eax
  00053	8b 45 28	 mov	 eax, DWORD PTR _dataViewMin$[ebp]
  00056	89 85 24 ff ff
	ff		 mov	 DWORD PTR _dataViewMin$GSCopy$1$[ebp], eax
  0005c	8b 45 2c	 mov	 eax, DWORD PTR _packetList$[ebp]
  0005f	89 75 c8	 mov	 DWORD PTR _graphDrawingRegion$GSCopy$1$[ebp], esi
  00062	89 55 a8	 mov	 DWORD PTR _dataStart$GSCopy$1$[ebp], edx
  00065	89 85 b8 fe ff
	ff		 mov	 DWORD PTR _packetList$GSCopy$1$[ebp], eax

; 933  : 	POSITION packetHeadPos = packetList.GetHeadPosition();

  0006b	8b 48 04	 mov	 ecx, DWORD PTR [eax+4]

; 934  : 	if(packetHeadPos == NULL) 

  0006e	85 c9		 test	 ecx, ecx
  00070	75 07		 jne	 SHORT $LN11@DrawCompon

; 935  : 		return false;

  00072	32 c0		 xor	 al, al
  00074	e9 f8 0e 00 00	 jmp	 $LN1@DrawCompon
$LN11@DrawCompon:

; 936  : 
; 937  : 	int i = 0;
; 938  : 	int packetCount = packetList.GetCount();

  00079	8b 40 0c	 mov	 eax, DWORD PTR [eax+12]
  0007c	89 45 90	 mov	 DWORD PTR _packetCount$1$[ebp], eax
; File C:\Program Files (x86)\Microsoft Visual Studio\2019\Community\VC\Tools\MSVC\14.29.30133\atlmfc\include\afxtempl.h

; 851  : {

  0007f	c7 85 bc fe ff
	ff 00 00 00 00	 mov	 DWORD PTR _packetPosition$[ebp], OFFSET ??_7?$CList@PAU__POSITION@@PAU1@@@6B@

; 852  : 	ASSERT(nBlockSize > 0);
; 853  : 
; 854  : 	m_nCount = 0;

  00089	c7 85 c8 fe ff
	ff 00 00 00 00	 mov	 DWORD PTR _packetPosition$[ebp+12], 0

; 855  : 	m_pNodeHead = m_pNodeTail = m_pNodeFree = NULL;

  00093	c7 85 cc fe ff
	ff 00 00 00 00	 mov	 DWORD PTR _packetPosition$[ebp+16], 0
  0009d	c7 85 c4 fe ff
	ff 00 00 00 00	 mov	 DWORD PTR _packetPosition$[ebp+8], 0
  000a7	c7 85 c0 fe ff
	ff 00 00 00 00	 mov	 DWORD PTR _packetPosition$[ebp+4], 0

; 856  : 	m_pBlocks = NULL;

  000b1	c7 85 d0 fe ff
	ff 00 00 00 00	 mov	 DWORD PTR _packetPosition$[ebp+20], 0

; 857  : 	m_nBlockSize = nBlockSize;

  000bb	c7 85 d4 fe ff
	ff 0a 00 00 00	 mov	 DWORD PTR _packetPosition$[ebp+24], 10 ; 0000000aH
; File D:\git\src\IBK\IBK_DRFN\ProjSrc\SrcChartEx\ChartOCX\GraphDraw\FundDraw.cpp

; 939  : 	CList<POSITION, POSITION> packetPosition;

  000c5	c7 45 fc 00 00
	00 00		 mov	 DWORD PTR __$EHRec$[ebp+8], 0

; 940  : 	for( i = 0; i < packetCount; i++){

  000cc	c7 45 ac 00 00
	00 00		 mov	 DWORD PTR _i$1$[ebp], 0
  000d3	85 c0		 test	 eax, eax
  000d5	7e 5f		 jle	 SHORT $LN3@DrawCompon
$LL4@DrawCompon:
; File C:\Program Files (x86)\Microsoft Visual Studio\2019\Community\VC\Tools\MSVC\14.29.30133\atlmfc\include\afxtempl.h

; 817  : 	{ CNode* pNode = (CNode*) rPosition;

  000d7	8d 01		 lea	 eax, DWORD PTR [ecx]

; 819  : 		rPosition = (POSITION) pNode->pNext;

  000d9	8b 09		 mov	 ecx, DWORD PTR [ecx]
  000db	89 4d 9c	 mov	 DWORD PTR _packetHeadPos$1$[ebp], ecx
; File D:\git\src\IBK\IBK_DRFN\ProjSrc\SrcChartEx\ChartOCX\GraphDraw\FundDraw.cpp

; 941  : 		CPacket* pPacket = packetList.GetNext(packetHeadPos);

  000de	8b 48 08	 mov	 ecx, DWORD PTR [eax+8]

; 942  : 		if(pPacket == NULL)

  000e1	85 c9		 test	 ecx, ecx
  000e3	74 48		 je	 SHORT $LN396@DrawCompon

; 943  : 			return false;
; 944  : 		else{
; 945  : 			//displayData
; 946  : 			//POSITION pos = pPacket->GetnumericDataList()->FindIndex(dataStart-1);
; 947  : 			POSITION pos = pPacket->GetnumericDataList()->FindIndex(dataStart);

  000e5	89 55 98	 mov	 DWORD PTR _nIndex$1$[ebp], edx
  000e8	ff 15 00 00 00
	00		 call	 DWORD PTR __imp_?GetnumericDataList@CPacket@@QAEPAV?$CList@NN@@XZ
; File C:\Program Files (x86)\Microsoft Visual Studio\2019\Community\VC\Tools\MSVC\14.29.30133\atlmfc\include\afxtempl.h

; 1133 : 	if (nIndex >= m_nCount || nIndex < 0)

  000ee	8b 4d a8	 mov	 ecx, DWORD PTR _dataStart$GSCopy$1$[ebp]
  000f1	3b 48 0c	 cmp	 ecx, DWORD PTR [eax+12]
  000f4	7d 37		 jge	 SHORT $LN396@DrawCompon
  000f6	85 c9		 test	 ecx, ecx
  000f8	78 33		 js	 SHORT $LN396@DrawCompon

; 1135 : 
; 1136 : 	CNode* pNode = m_pNodeHead;

  000fa	8b 40 04	 mov	 eax, DWORD PTR [eax+4]

; 1137 : 	while (nIndex--)

  000fd	74 0a		 je	 SHORT $LN398@DrawCompon
  000ff	8b 4d 98	 mov	 ecx, DWORD PTR _nIndex$1$[ebp]
$LL91@DrawCompon:

; 1138 : 	{
; 1139 : 		ASSERT(AfxIsValidAddress(pNode, sizeof(CNode)));
; 1140 : 		pNode = pNode->pNext;

  00102	8b 00		 mov	 eax, DWORD PTR [eax]
  00104	83 e9 01	 sub	 ecx, 1
  00107	75 f9		 jne	 SHORT $LL91@DrawCompon
$LN398@DrawCompon:
; File D:\git\src\IBK\IBK_DRFN\ProjSrc\SrcChartEx\ChartOCX\GraphDraw\FundDraw.cpp

; 948  : 			if(pos == NULL)

  00109	85 c0		 test	 eax, eax
  0010b	74 20		 je	 SHORT $LN396@DrawCompon

; 949  : 				return false;
; 950  : 			else
; 951  : 				packetPosition.AddTail(pos);

  0010d	50		 push	 eax
  0010e	8d 8d bc fe ff
	ff		 lea	 ecx, DWORD PTR _packetPosition$[ebp]
  00114	e8 00 00 00 00	 call	 ?AddTail@?$CList@PAU__POSITION@@PAU1@@@QAEPAU__POSITION@@PAU2@@Z ; CList<__POSITION *,__POSITION *>::AddTail
  00119	8b 55 ac	 mov	 edx, DWORD PTR _i$1$[ebp]
  0011c	42		 inc	 edx
  0011d	3b 55 90	 cmp	 edx, DWORD PTR _packetCount$1$[ebp]
  00120	89 55 ac	 mov	 DWORD PTR _i$1$[ebp], edx
  00123	8b 55 a8	 mov	 edx, DWORD PTR _dataStart$GSCopy$1$[ebp]
  00126	7d 0e		 jge	 SHORT $LN3@DrawCompon

; 940  : 	for( i = 0; i < packetCount; i++){

  00128	8b 4d 9c	 mov	 ecx, DWORD PTR _packetHeadPos$1$[ebp]
  0012b	eb aa		 jmp	 SHORT $LL4@DrawCompon
$LN396@DrawCompon:
  0012d	c6 45 bf 00	 mov	 BYTE PTR $T21[ebp], 0
  00131	e9 f4 0d 00 00	 jmp	 $LN379@DrawCompon
$LN3@DrawCompon:

; 952  : 		}
; 953  : 	}
; 954  : 	double widthRatio = 8.0/10.0;
; 955  : 	double realWidth = CDraw::CalRealWidth(graphDrawingRegion, dataStart, dataEnd);

  00136	ff 75 1c	 push	 DWORD PTR _dataEnd$[ebp]
  00139	8b cf		 mov	 ecx, edi
  0013b	52		 push	 edx
  0013c	56		 push	 esi
  0013d	e8 00 00 00 00	 call	 ?CalRealWidth@CDraw@@IAENABVCRect@@HH@Z ; CDraw::CalRealWidth
  00142	dd 9d 98 fe ff
	ff		 fstp	 QWORD PTR _realWidth$[ebp]

; 956  : 	int bongWidth = (int)(realWidth*widthRatio);

  00148	f2 0f 10 85 98
	fe ff ff	 movsd	 xmm0, QWORD PTR _realWidth$[ebp]

; 957  : 	if(bongWidth <= 1) 

  00150	b8 01 00 00 00	 mov	 eax, 1
  00155	f2 0f 59 05 00
	00 00 00	 mulsd	 xmm0, QWORD PTR __real@3fe999999999999a

; 958  : 		bongWidth = 1;
; 959  : 	int lineThickness = CDraw::CalUpLineThickness(penThickness, bongWidth);

  0015d	8b cf		 mov	 ecx, edi
  0015f	f2 0f 2c f0	 cvttsd2si esi, xmm0
  00163	3b f0		 cmp	 esi, eax
  00165	0f 4e f0	 cmovle	 esi, eax
  00168	8d 45 30	 lea	 eax, DWORD PTR _penThickness$[ebp]
  0016b	56		 push	 esi
  0016c	50		 push	 eax
  0016d	e8 00 00 00 00	 call	 ?CalUpLineThickness@CDraw@@IAEHABVCPenThickness@@H@Z ; CDraw::CalUpLineThickness
  00172	8b f8		 mov	 edi, eax
; File C:\Program Files (x86)\Microsoft Visual Studio\2019\Community\VC\Tools\MSVC\14.29.30133\atlmfc\include\afxwin1.inl

; 70   : 	{ m_hObject = NULL; }

  00174	c7 45 8c 00 00
	00 00		 mov	 DWORD PTR _pen$[ebp+4], 0
; File D:\git\src\IBK\IBK_DRFN\ProjSrc\SrcChartEx\ChartOCX\GraphDraw\FundDraw.cpp

; 961  : 	bongWidth = bongWidth - lineThickness;

  0017b	2b f7		 sub	 esi, edi
  0017d	89 7d cc	 mov	 DWORD PTR _lineThickness$1$[ebp], edi

; 962  : 	bongWidth = bongWidth / 3;

  00180	b8 56 55 55 55	 mov	 eax, 1431655766		; 55555556H
; File C:\Program Files (x86)\Microsoft Visual Studio\2019\Community\VC\Tools\MSVC\14.29.30133\atlmfc\include\afxwin1.inl

; 104  : 	{ }

  00185	c7 45 88 00 00
	00 00		 mov	 DWORD PTR _pen$[ebp], OFFSET ??_7CPen@@6B@
; File D:\git\src\IBK\IBK_DRFN\ProjSrc\SrcChartEx\ChartOCX\GraphDraw\FundDraw.cpp

; 962  : 	bongWidth = bongWidth / 3;

  0018c	f7 ee		 imul	 esi
  0018e	8b c2		 mov	 eax, edx
  00190	c1 e8 1f	 shr	 eax, 31			; 0000001fH
  00193	03 c2		 add	 eax, edx
  00195	89 45 c4	 mov	 DWORD PTR _bongWidth$3$[ebp], eax
; File C:\Program Files (x86)\Microsoft Visual Studio\2019\Community\VC\Tools\MSVC\14.29.30133\atlmfc\include\afxwin1.inl

; 70   : 	{ m_hObject = NULL; }

  00198	c7 85 3c ff ff
	ff 00 00 00 00	 mov	 DWORD PTR _pen1$[ebp+4], 0

; 104  : 	{ }

  001a2	c7 85 38 ff ff
	ff 00 00 00 00	 mov	 DWORD PTR _pen1$[ebp], OFFSET ??_7CPen@@6B@

; 70   : 	{ m_hObject = NULL; }

  001ac	c7 85 44 ff ff
	ff 00 00 00 00	 mov	 DWORD PTR _pen2$[ebp+4], 0

; 104  : 	{ }

  001b6	c7 85 40 ff ff
	ff 00 00 00 00	 mov	 DWORD PTR _pen2$[ebp], OFFSET ??_7CPen@@6B@

; 70   : 	{ m_hObject = NULL; }

  001c0	c7 85 4c ff ff
	ff 00 00 00 00	 mov	 DWORD PTR _pen3$[ebp+4], 0

; 104  : 	{ }

  001ca	c7 85 48 ff ff
	ff 00 00 00 00	 mov	 DWORD PTR _pen3$[ebp], OFFSET ??_7CPen@@6B@

; 70   : 	{ m_hObject = NULL; }

  001d4	c7 85 54 ff ff
	ff 00 00 00 00	 mov	 DWORD PTR _pen4$[ebp+4], 0

; 104  : 	{ }

  001de	c7 85 50 ff ff
	ff 00 00 00 00	 mov	 DWORD PTR _pen4$[ebp], OFFSET ??_7CPen@@6B@

; 70   : 	{ m_hObject = NULL; }

  001e8	c7 85 34 ff ff
	ff 00 00 00 00	 mov	 DWORD PTR _pen5$[ebp+4], 0

; 104  : 	{ }

  001f2	c7 85 30 ff ff
	ff 00 00 00 00	 mov	 DWORD PTR _pen5$[ebp], OFFSET ??_7CPen@@6B@

; 70   : 	{ m_hObject = NULL; }

  001fc	c7 85 5c ff ff
	ff 00 00 00 00	 mov	 DWORD PTR _pen6$[ebp+4], 0

; 104  : 	{ }

  00206	c7 85 58 ff ff
	ff 00 00 00 00	 mov	 DWORD PTR _pen6$[ebp], OFFSET ??_7CPen@@6B@

; 70   : 	{ m_hObject = NULL; }

  00210	c7 85 64 ff ff
	ff 00 00 00 00	 mov	 DWORD PTR _pen7$[ebp+4], 0

; 104  : 	{ }

  0021a	c7 85 60 ff ff
	ff 00 00 00 00	 mov	 DWORD PTR _pen7$[ebp], OFFSET ??_7CPen@@6B@

; 70   : 	{ m_hObject = NULL; }

  00224	c7 85 6c ff ff
	ff 00 00 00 00	 mov	 DWORD PTR _pen8$[ebp+4], 0

; 104  : 	{ }

  0022e	c7 85 68 ff ff
	ff 00 00 00 00	 mov	 DWORD PTR _pen8$[ebp], OFFSET ??_7CPen@@6B@

; 70   : 	{ m_hObject = NULL; }

  00238	c7 85 74 ff ff
	ff 00 00 00 00	 mov	 DWORD PTR _pen9$[ebp+4], 0

; 104  : 	{ }

  00242	c7 85 70 ff ff
	ff 00 00 00 00	 mov	 DWORD PTR _pen9$[ebp], OFFSET ??_7CPen@@6B@

; 70   : 	{ m_hObject = NULL; }

  0024c	c7 85 7c ff ff
	ff 00 00 00 00	 mov	 DWORD PTR _pen10$[ebp+4], 0

; 104  : 	{ }

  00256	c7 85 78 ff ff
	ff 00 00 00 00	 mov	 DWORD PTR _pen10$[ebp], OFFSET ??_7CPen@@6B@
; File D:\git\src\IBK\IBK_DRFN\ProjSrc\SrcChartEx\ChartOCX\GraphDraw\FundDraw.cpp

; 965  : 	pen.CreatePen(PS_SOLID, lineThickness, etcGraphColor.GetGraphColor5());

  00260	8b 4d d0	 mov	 ecx, DWORD PTR _etcGraphColor$GSCopy$1$[ebp]
  00263	c6 45 fc 0b	 mov	 BYTE PTR __$EHRec$[ebp+8], 11 ; 0000000bH
  00267	ff 15 00 00 00
	00		 call	 DWORD PTR __imp_?GetGraphColor5@CEtcGraphColor@@QBEKXZ
; File C:\Program Files (x86)\Microsoft Visual Studio\2019\Community\VC\Tools\MSVC\14.29.30133\atlmfc\include\afxwin1.inl

; 108  : 	{ return Attach(::CreatePen(nPenStyle, nWidth, crColor)); }

  0026d	8b 35 00 00 00
	00		 mov	 esi, DWORD PTR __imp__CreatePen@12
  00273	50		 push	 eax
  00274	57		 push	 edi
  00275	6a 00		 push	 0
  00277	ff d6		 call	 esi
  00279	50		 push	 eax
  0027a	8d 4d 88	 lea	 ecx, DWORD PTR _pen$[ebp]
  0027d	e8 00 00 00 00	 call	 ?Attach@CGdiObject@@QAEHPAX@Z ; CGdiObject::Attach
; File D:\git\src\IBK\IBK_DRFN\ProjSrc\SrcChartEx\ChartOCX\GraphDraw\FundDraw.cpp

; 967  : 	pen1.CreatePen	(PS_SOLID, lineThickness, graphColor.GetColor1());

  00282	8b 7d d4	 mov	 edi, DWORD PTR _graphColor$GSCopy$1$[ebp]
  00285	8b cf		 mov	 ecx, edi
  00287	ff 15 00 00 00
	00		 call	 DWORD PTR __imp_?GetColor1@CGraphColor@@QBEKXZ
; File C:\Program Files (x86)\Microsoft Visual Studio\2019\Community\VC\Tools\MSVC\14.29.30133\atlmfc\include\afxwin1.inl

; 108  : 	{ return Attach(::CreatePen(nPenStyle, nWidth, crColor)); }

  0028d	50		 push	 eax
  0028e	ff 75 cc	 push	 DWORD PTR _lineThickness$1$[ebp]
  00291	6a 00		 push	 0
  00293	ff d6		 call	 esi
  00295	50		 push	 eax
  00296	8d 8d 38 ff ff
	ff		 lea	 ecx, DWORD PTR _pen1$[ebp]
  0029c	e8 00 00 00 00	 call	 ?Attach@CGdiObject@@QAEHPAX@Z ; CGdiObject::Attach
; File D:\git\src\IBK\IBK_DRFN\ProjSrc\SrcChartEx\ChartOCX\GraphDraw\FundDraw.cpp

; 968  : 	pen2.CreatePen	(PS_SOLID, lineThickness, graphColor.GetColor2());

  002a1	8b cf		 mov	 ecx, edi
  002a3	ff 15 00 00 00
	00		 call	 DWORD PTR __imp_?GetColor2@CGraphColor@@QBEKXZ
; File C:\Program Files (x86)\Microsoft Visual Studio\2019\Community\VC\Tools\MSVC\14.29.30133\atlmfc\include\afxwin1.inl

; 108  : 	{ return Attach(::CreatePen(nPenStyle, nWidth, crColor)); }

  002a9	50		 push	 eax
  002aa	ff 75 cc	 push	 DWORD PTR _lineThickness$1$[ebp]
  002ad	6a 00		 push	 0
  002af	ff d6		 call	 esi
  002b1	50		 push	 eax
  002b2	8d 8d 40 ff ff
	ff		 lea	 ecx, DWORD PTR _pen2$[ebp]
  002b8	e8 00 00 00 00	 call	 ?Attach@CGdiObject@@QAEHPAX@Z ; CGdiObject::Attach
; File D:\git\src\IBK\IBK_DRFN\ProjSrc\SrcChartEx\ChartOCX\GraphDraw\FundDraw.cpp

; 969  : 	pen3.CreatePen	(PS_SOLID, lineThickness, graphColor.GetColor3());

  002bd	8b cf		 mov	 ecx, edi
  002bf	ff 15 00 00 00
	00		 call	 DWORD PTR __imp_?GetColor3@CGraphColor@@QBEKXZ
; File C:\Program Files (x86)\Microsoft Visual Studio\2019\Community\VC\Tools\MSVC\14.29.30133\atlmfc\include\afxwin1.inl

; 108  : 	{ return Attach(::CreatePen(nPenStyle, nWidth, crColor)); }

  002c5	50		 push	 eax
  002c6	ff 75 cc	 push	 DWORD PTR _lineThickness$1$[ebp]
  002c9	6a 00		 push	 0
  002cb	ff d6		 call	 esi
  002cd	50		 push	 eax
  002ce	8d 8d 48 ff ff
	ff		 lea	 ecx, DWORD PTR _pen3$[ebp]
  002d4	e8 00 00 00 00	 call	 ?Attach@CGdiObject@@QAEHPAX@Z ; CGdiObject::Attach
; File D:\git\src\IBK\IBK_DRFN\ProjSrc\SrcChartEx\ChartOCX\GraphDraw\FundDraw.cpp

; 970  : 	pen4.CreatePen	(PS_SOLID, lineThickness, graphColor.GetColor4());

  002d9	8b cf		 mov	 ecx, edi
  002db	ff 15 00 00 00
	00		 call	 DWORD PTR __imp_?GetColor4@CGraphColor@@QBEKXZ
; File C:\Program Files (x86)\Microsoft Visual Studio\2019\Community\VC\Tools\MSVC\14.29.30133\atlmfc\include\afxwin1.inl

; 108  : 	{ return Attach(::CreatePen(nPenStyle, nWidth, crColor)); }

  002e1	50		 push	 eax
  002e2	ff 75 cc	 push	 DWORD PTR _lineThickness$1$[ebp]
  002e5	6a 00		 push	 0
  002e7	ff d6		 call	 esi
  002e9	50		 push	 eax
  002ea	8d 8d 50 ff ff
	ff		 lea	 ecx, DWORD PTR _pen4$[ebp]
  002f0	e8 00 00 00 00	 call	 ?Attach@CGdiObject@@QAEHPAX@Z ; CGdiObject::Attach
; File D:\git\src\IBK\IBK_DRFN\ProjSrc\SrcChartEx\ChartOCX\GraphDraw\FundDraw.cpp

; 971  : 	pen5.CreatePen	(PS_SOLID, lineThickness, graphColor.GetColor5());

  002f5	8b cf		 mov	 ecx, edi
  002f7	ff 15 00 00 00
	00		 call	 DWORD PTR __imp_?GetColor5@CGraphColor@@QBEKXZ
; File C:\Program Files (x86)\Microsoft Visual Studio\2019\Community\VC\Tools\MSVC\14.29.30133\atlmfc\include\afxwin1.inl

; 108  : 	{ return Attach(::CreatePen(nPenStyle, nWidth, crColor)); }

  002fd	50		 push	 eax
  002fe	ff 75 cc	 push	 DWORD PTR _lineThickness$1$[ebp]
  00301	6a 00		 push	 0
  00303	ff d6		 call	 esi
  00305	50		 push	 eax
  00306	8d 8d 30 ff ff
	ff		 lea	 ecx, DWORD PTR _pen5$[ebp]
  0030c	e8 00 00 00 00	 call	 ?Attach@CGdiObject@@QAEHPAX@Z ; CGdiObject::Attach
; File D:\git\src\IBK\IBK_DRFN\ProjSrc\SrcChartEx\ChartOCX\GraphDraw\FundDraw.cpp

; 972  : 	pen6.CreatePen	(PS_SOLID, lineThickness, graphColor.GetColor6());

  00311	8b cf		 mov	 ecx, edi
  00313	ff 15 00 00 00
	00		 call	 DWORD PTR __imp_?GetColor6@CGraphColor@@QBEKXZ
; File C:\Program Files (x86)\Microsoft Visual Studio\2019\Community\VC\Tools\MSVC\14.29.30133\atlmfc\include\afxwin1.inl

; 108  : 	{ return Attach(::CreatePen(nPenStyle, nWidth, crColor)); }

  00319	50		 push	 eax
  0031a	ff 75 cc	 push	 DWORD PTR _lineThickness$1$[ebp]
  0031d	6a 00		 push	 0
  0031f	ff d6		 call	 esi
  00321	50		 push	 eax
  00322	8d 8d 58 ff ff
	ff		 lea	 ecx, DWORD PTR _pen6$[ebp]
  00328	e8 00 00 00 00	 call	 ?Attach@CGdiObject@@QAEHPAX@Z ; CGdiObject::Attach
; File D:\git\src\IBK\IBK_DRFN\ProjSrc\SrcChartEx\ChartOCX\GraphDraw\FundDraw.cpp

; 973  : 	pen7.CreatePen	(PS_SOLID, lineThickness, etcGraphColor.GetGraphColor1());

  0032d	8b 7d d0	 mov	 edi, DWORD PTR _etcGraphColor$GSCopy$1$[ebp]
  00330	8b cf		 mov	 ecx, edi
  00332	ff 15 00 00 00
	00		 call	 DWORD PTR __imp_?GetGraphColor1@CEtcGraphColor@@QBEKXZ
; File C:\Program Files (x86)\Microsoft Visual Studio\2019\Community\VC\Tools\MSVC\14.29.30133\atlmfc\include\afxwin1.inl

; 108  : 	{ return Attach(::CreatePen(nPenStyle, nWidth, crColor)); }

  00338	50		 push	 eax
  00339	ff 75 cc	 push	 DWORD PTR _lineThickness$1$[ebp]
  0033c	6a 00		 push	 0
  0033e	ff d6		 call	 esi
  00340	50		 push	 eax
  00341	8d 8d 60 ff ff
	ff		 lea	 ecx, DWORD PTR _pen7$[ebp]
  00347	e8 00 00 00 00	 call	 ?Attach@CGdiObject@@QAEHPAX@Z ; CGdiObject::Attach
; File D:\git\src\IBK\IBK_DRFN\ProjSrc\SrcChartEx\ChartOCX\GraphDraw\FundDraw.cpp

; 974  : 	pen8.CreatePen	(PS_SOLID, lineThickness, etcGraphColor.GetGraphColor2());

  0034c	8b cf		 mov	 ecx, edi
  0034e	ff 15 00 00 00
	00		 call	 DWORD PTR __imp_?GetGraphColor2@CEtcGraphColor@@QBEKXZ
; File C:\Program Files (x86)\Microsoft Visual Studio\2019\Community\VC\Tools\MSVC\14.29.30133\atlmfc\include\afxwin1.inl

; 108  : 	{ return Attach(::CreatePen(nPenStyle, nWidth, crColor)); }

  00354	50		 push	 eax
  00355	ff 75 cc	 push	 DWORD PTR _lineThickness$1$[ebp]
  00358	6a 00		 push	 0
  0035a	ff d6		 call	 esi
  0035c	50		 push	 eax
  0035d	8d 8d 68 ff ff
	ff		 lea	 ecx, DWORD PTR _pen8$[ebp]
  00363	e8 00 00 00 00	 call	 ?Attach@CGdiObject@@QAEHPAX@Z ; CGdiObject::Attach
; File D:\git\src\IBK\IBK_DRFN\ProjSrc\SrcChartEx\ChartOCX\GraphDraw\FundDraw.cpp

; 975  : 	pen9.CreatePen	(PS_SOLID, lineThickness, etcGraphColor.GetGraphColor3());

  00368	8b cf		 mov	 ecx, edi
  0036a	8b 3d 00 00 00
	00		 mov	 edi, DWORD PTR __imp_?GetGraphColor3@CEtcGraphColor@@QBEKXZ
  00370	ff d7		 call	 edi
; File C:\Program Files (x86)\Microsoft Visual Studio\2019\Community\VC\Tools\MSVC\14.29.30133\atlmfc\include\afxwin1.inl

; 108  : 	{ return Attach(::CreatePen(nPenStyle, nWidth, crColor)); }

  00372	50		 push	 eax
  00373	ff 75 cc	 push	 DWORD PTR _lineThickness$1$[ebp]
  00376	6a 00		 push	 0
  00378	ff d6		 call	 esi
  0037a	50		 push	 eax
  0037b	8d 8d 70 ff ff
	ff		 lea	 ecx, DWORD PTR _pen9$[ebp]
  00381	e8 00 00 00 00	 call	 ?Attach@CGdiObject@@QAEHPAX@Z ; CGdiObject::Attach
; File D:\git\src\IBK\IBK_DRFN\ProjSrc\SrcChartEx\ChartOCX\GraphDraw\FundDraw.cpp

; 976  : 	pen10.CreatePen	(PS_SOLID, lineThickness, etcGraphColor.GetGraphColor4());

  00386	8b 4d d0	 mov	 ecx, DWORD PTR _etcGraphColor$GSCopy$1$[ebp]
  00389	8b 35 00 00 00
	00		 mov	 esi, DWORD PTR __imp_?GetGraphColor4@CEtcGraphColor@@QBEKXZ
  0038f	ff d6		 call	 esi
; File C:\Program Files (x86)\Microsoft Visual Studio\2019\Community\VC\Tools\MSVC\14.29.30133\atlmfc\include\afxwin1.inl

; 108  : 	{ return Attach(::CreatePen(nPenStyle, nWidth, crColor)); }

  00391	50		 push	 eax
  00392	ff 75 cc	 push	 DWORD PTR _lineThickness$1$[ebp]
  00395	6a 00		 push	 0
  00397	ff 15 00 00 00
	00		 call	 DWORD PTR __imp__CreatePen@12
  0039d	50		 push	 eax
  0039e	8d 8d 78 ff ff
	ff		 lea	 ecx, DWORD PTR _pen10$[ebp]
  003a4	e8 00 00 00 00	 call	 ?Attach@CGdiObject@@QAEHPAX@Z ; CGdiObject::Attach
; File D:\git\src\IBK\IBK_DRFN\ProjSrc\SrcChartEx\ChartOCX\GraphDraw\FundDraw.cpp

; 979  : 	CBrush firstBrush	(graphColor.GetColor1());

  003a9	8b 4d d4	 mov	 ecx, DWORD PTR _graphColor$GSCopy$1$[ebp]
  003ac	ff 15 00 00 00
	00		 call	 DWORD PTR __imp_?GetColor1@CGraphColor@@QBEKXZ
  003b2	50		 push	 eax
  003b3	8d 4d 80	 lea	 ecx, DWORD PTR _firstBrush$[ebp]
  003b6	e8 00 00 00 00	 call	 ??0CBrush@@QAE@K@Z	; CBrush::CBrush

; 980  : 	CBrush secondBrush	(graphColor.GetColor2());

  003bb	8b 4d d4	 mov	 ecx, DWORD PTR _graphColor$GSCopy$1$[ebp]
  003be	c6 45 fc 0c	 mov	 BYTE PTR __$EHRec$[ebp+8], 12 ; 0000000cH
  003c2	ff 15 00 00 00
	00		 call	 DWORD PTR __imp_?GetColor2@CGraphColor@@QBEKXZ
  003c8	50		 push	 eax
  003c9	8d 8d d8 fe ff
	ff		 lea	 ecx, DWORD PTR _secondBrush$[ebp]
  003cf	e8 00 00 00 00	 call	 ??0CBrush@@QAE@K@Z	; CBrush::CBrush

; 981  : 	CBrush thirdBrush	(graphColor.GetColor3());

  003d4	8b 4d d4	 mov	 ecx, DWORD PTR _graphColor$GSCopy$1$[ebp]
  003d7	c6 45 fc 0d	 mov	 BYTE PTR __$EHRec$[ebp+8], 13 ; 0000000dH
  003db	ff 15 00 00 00
	00		 call	 DWORD PTR __imp_?GetColor3@CGraphColor@@QBEKXZ
  003e1	50		 push	 eax
  003e2	8d 8d e0 fe ff
	ff		 lea	 ecx, DWORD PTR _thirdBrush$[ebp]
  003e8	e8 00 00 00 00	 call	 ??0CBrush@@QAE@K@Z	; CBrush::CBrush

; 982  : 	CBrush fourBrush	(graphColor.GetColor4());

  003ed	8b 4d d4	 mov	 ecx, DWORD PTR _graphColor$GSCopy$1$[ebp]
  003f0	c6 45 fc 0e	 mov	 BYTE PTR __$EHRec$[ebp+8], 14 ; 0000000eH
  003f4	ff 15 00 00 00
	00		 call	 DWORD PTR __imp_?GetColor4@CGraphColor@@QBEKXZ
  003fa	50		 push	 eax
  003fb	8d 8d e8 fe ff
	ff		 lea	 ecx, DWORD PTR _fourBrush$[ebp]
  00401	e8 00 00 00 00	 call	 ??0CBrush@@QAE@K@Z	; CBrush::CBrush

; 983  : 	CBrush fiveBrush	(graphColor.GetColor5());

  00406	8b 4d d4	 mov	 ecx, DWORD PTR _graphColor$GSCopy$1$[ebp]
  00409	c6 45 fc 0f	 mov	 BYTE PTR __$EHRec$[ebp+8], 15 ; 0000000fH
  0040d	ff 15 00 00 00
	00		 call	 DWORD PTR __imp_?GetColor5@CGraphColor@@QBEKXZ
  00413	50		 push	 eax
  00414	8d 8d f0 fe ff
	ff		 lea	 ecx, DWORD PTR _fiveBrush$[ebp]
  0041a	e8 00 00 00 00	 call	 ??0CBrush@@QAE@K@Z	; CBrush::CBrush

; 984  : 	CBrush sixBrush		(graphColor.GetColor6());

  0041f	8b 4d d4	 mov	 ecx, DWORD PTR _graphColor$GSCopy$1$[ebp]
  00422	c6 45 fc 10	 mov	 BYTE PTR __$EHRec$[ebp+8], 16 ; 00000010H
  00426	ff 15 00 00 00
	00		 call	 DWORD PTR __imp_?GetColor6@CGraphColor@@QBEKXZ
  0042c	50		 push	 eax
  0042d	8d 8d f8 fe ff
	ff		 lea	 ecx, DWORD PTR _sixBrush$[ebp]
  00433	e8 00 00 00 00	 call	 ??0CBrush@@QAE@K@Z	; CBrush::CBrush

; 985  : 	CBrush sevenBrush	(etcGraphColor.GetGraphColor1());

  00438	8b 4d d0	 mov	 ecx, DWORD PTR _etcGraphColor$GSCopy$1$[ebp]
  0043b	c6 45 fc 11	 mov	 BYTE PTR __$EHRec$[ebp+8], 17 ; 00000011H
  0043f	ff 15 00 00 00
	00		 call	 DWORD PTR __imp_?GetGraphColor1@CEtcGraphColor@@QBEKXZ
  00445	50		 push	 eax
  00446	8d 8d 00 ff ff
	ff		 lea	 ecx, DWORD PTR _sevenBrush$[ebp]
  0044c	e8 00 00 00 00	 call	 ??0CBrush@@QAE@K@Z	; CBrush::CBrush

; 986  : 	CBrush eightBrush	(etcGraphColor.GetGraphColor2());

  00451	8b 4d d0	 mov	 ecx, DWORD PTR _etcGraphColor$GSCopy$1$[ebp]
  00454	c6 45 fc 12	 mov	 BYTE PTR __$EHRec$[ebp+8], 18 ; 00000012H
  00458	ff 15 00 00 00
	00		 call	 DWORD PTR __imp_?GetGraphColor2@CEtcGraphColor@@QBEKXZ
  0045e	50		 push	 eax
  0045f	8d 8d 08 ff ff
	ff		 lea	 ecx, DWORD PTR _eightBrush$[ebp]
  00465	e8 00 00 00 00	 call	 ??0CBrush@@QAE@K@Z	; CBrush::CBrush

; 987  : 	CBrush nineBrush	(etcGraphColor.GetGraphColor3());

  0046a	8b 4d d0	 mov	 ecx, DWORD PTR _etcGraphColor$GSCopy$1$[ebp]
  0046d	c6 45 fc 13	 mov	 BYTE PTR __$EHRec$[ebp+8], 19 ; 00000013H
  00471	ff d7		 call	 edi
  00473	50		 push	 eax
  00474	8d 8d 10 ff ff
	ff		 lea	 ecx, DWORD PTR _nineBrush$[ebp]
  0047a	e8 00 00 00 00	 call	 ??0CBrush@@QAE@K@Z	; CBrush::CBrush

; 988  : 	CBrush tenBrush		(etcGraphColor.GetGraphColor4());

  0047f	8b 4d d0	 mov	 ecx, DWORD PTR _etcGraphColor$GSCopy$1$[ebp]
  00482	c6 45 fc 14	 mov	 BYTE PTR __$EHRec$[ebp+8], 20 ; 00000014H
  00486	ff d6		 call	 esi
  00488	50		 push	 eax
  00489	8d 8d 18 ff ff
	ff		 lea	 ecx, DWORD PTR _tenBrush$[ebp]
  0048f	e8 00 00 00 00	 call	 ??0CBrush@@QAE@K@Z	; CBrush::CBrush

; 989  : 
; 990  : 	CBrush* pOldBrush;
; 991  : 	CPen* pOldPen; 
; 992  : 	pOldBrush = (CBrush*)pDC->SelectObject(&firstBrush);

  00494	8b 75 d8	 mov	 esi, DWORD PTR _pDC$GSCopy$1$[ebp]
  00497	8d 45 80	 lea	 eax, DWORD PTR _firstBrush$[ebp]
  0049a	50		 push	 eax
  0049b	8b ce		 mov	 ecx, esi
  0049d	c6 45 fc 15	 mov	 BYTE PTR __$EHRec$[ebp+8], 21 ; 00000015H
  004a1	e8 00 00 00 00	 call	 ?SelectObject@CDC@@QAEPAVCBrush@@PAV2@@Z ; CDC::SelectObject
  004a6	89 85 a4 fe ff
	ff		 mov	 DWORD PTR _pOldBrush$1$[ebp], eax

; 993  : 	pOldPen = (CPen*)pDC->SelectObject(&pen);

  004ac	8b ce		 mov	 ecx, esi
  004ae	8d 45 88	 lea	 eax, DWORD PTR _pen$[ebp]
  004b1	50		 push	 eax
  004b2	e8 00 00 00 00	 call	 ?SelectObject@CDC@@QAEPAVCPen@@PAV2@@Z ; CDC::SelectObject

; 994  : 
; 995  : 	int count = 0;
; 996  : 	for(i = dataStart; i <= dataRealEnd; i++){

  004b7	8b 4d a8	 mov	 ecx, DWORD PTR _dataStart$GSCopy$1$[ebp]
  004ba	8b 55 20	 mov	 edx, DWORD PTR _dataRealEnd$[ebp]
  004bd	89 85 94 fe ff
	ff		 mov	 DWORD PTR _pOldPen$1$[ebp], eax
  004c3	33 c0		 xor	 eax, eax
  004c5	3b ca		 cmp	 ecx, edx
  004c7	0f 8f b1 07 00
	00		 jg	 $LN6@DrawCompon

; 958  : 		bongWidth = 1;
; 959  : 	int lineThickness = CDraw::CalUpLineThickness(penThickness, bongWidth);

  004cd	bf 01 00 00 00	 mov	 edi, 1
  004d2	2b d1		 sub	 edx, ecx
  004d4	2b f9		 sub	 edi, ecx
  004d6	42		 inc	 edx
  004d7	89 bd a8 fe ff
	ff		 mov	 DWORD PTR tv3262[ebp], edi
  004dd	89 55 20	 mov	 DWORD PTR _dataRealEnd$[ebp], edx
$LL7@DrawCompon:

; 997  : 		count++;
; 998  : 		packetHeadPos = packetList.GetHeadPosition();

  004e0	8b 8d b8 fe ff
	ff		 mov	 ecx, DWORD PTR _packetList$GSCopy$1$[ebp]
  004e6	40		 inc	 eax

; 1004 : 		for(int j = 0; j < packetCount; j++){

  004e7	33 ff		 xor	 edi, edi
  004e9	89 45 d0	 mov	 DWORD PTR _count$1$[ebp], eax
  004ec	c7 45 a4 00 00
	00 00		 mov	 DWORD PTR _saveDataY$1$[ebp], 0
  004f3	c7 45 c0 00 00
	00 00		 mov	 DWORD PTR _linePt$1$[ebp], 0
  004fa	8b 41 04	 mov	 eax, DWORD PTR [ecx+4]
  004fd	89 85 2c ff ff
	ff		 mov	 DWORD PTR _packetHeadPos$2$[ebp], eax
; File C:\Program Files (x86)\Microsoft Visual Studio\2019\Community\VC\Tools\MSVC\14.29.30133\atlmfc\include\atltypes.h

; 400  : 	x = 0;

  00503	c7 45 d4 00 00
	00 00		 mov	 DWORD PTR _beforeDataPt$1$[ebp], 0
; File D:\git\src\IBK\IBK_DRFN\ProjSrc\SrcChartEx\ChartOCX\GraphDraw\FundDraw.cpp

; 1004 : 		for(int j = 0; j < packetCount; j++){

  0050a	89 7d 98	 mov	 DWORD PTR _j$1$[ebp], edi
  0050d	39 7d 90	 cmp	 DWORD PTR _packetCount$1$[ebp], edi
  00510	0f 8e 3a 07 00
	00		 jle	 $LN9@DrawCompon
  00516	8b 45 cc	 mov	 eax, DWORD PTR _lineThickness$1$[ebp]
  00519	99		 cdq
  0051a	2b c2		 sub	 eax, edx
  0051c	d1 f8		 sar	 eax, 1
  0051e	89 85 20 ff ff
	ff		 mov	 DWORD PTR tv3265[ebp], eax
$LL10@DrawCompon:

; 1006 : 			POSITION dataPosPosition = packetPosition.FindIndex(j);

  00524	8b cf		 mov	 ecx, edi
; File C:\Program Files (x86)\Microsoft Visual Studio\2019\Community\VC\Tools\MSVC\14.29.30133\atlmfc\include\afxtempl.h

; 817  : 	{ CNode* pNode = (CNode*) rPosition;

  00526	8b 85 2c ff ff
	ff		 mov	 eax, DWORD PTR _packetHeadPos$2$[ebp]
; File D:\git\src\IBK\IBK_DRFN\ProjSrc\SrcChartEx\ChartOCX\GraphDraw\FundDraw.cpp

; 1005 : 			CPacket* dataPacket = packetList.GetNext(packetHeadPos);

  0052c	8b 50 08	 mov	 edx, DWORD PTR [eax+8]
; File C:\Program Files (x86)\Microsoft Visual Studio\2019\Community\VC\Tools\MSVC\14.29.30133\atlmfc\include\afxtempl.h

; 819  : 		rPosition = (POSITION) pNode->pNext;

  0052f	8b 00		 mov	 eax, DWORD PTR [eax]
  00531	89 85 2c ff ff
	ff		 mov	 DWORD PTR _packetHeadPos$2$[ebp], eax
; File D:\git\src\IBK\IBK_DRFN\ProjSrc\SrcChartEx\ChartOCX\GraphDraw\FundDraw.cpp

; 1005 : 			CPacket* dataPacket = packetList.GetNext(packetHeadPos);

  00537	89 55 a0	 mov	 DWORD PTR _dataPacket$1$[ebp], edx
; File C:\Program Files (x86)\Microsoft Visual Studio\2019\Community\VC\Tools\MSVC\14.29.30133\atlmfc\include\afxtempl.h

; 1133 : 	if (nIndex >= m_nCount || nIndex < 0)

  0053a	3b bd c8 fe ff
	ff		 cmp	 edi, DWORD PTR _packetPosition$[ebp+12]
  00540	7d 18		 jge	 SHORT $LN172@DrawCompon
  00542	85 ff		 test	 edi, edi
  00544	78 14		 js	 SHORT $LN172@DrawCompon

; 1135 : 
; 1136 : 	CNode* pNode = m_pNodeHead;

  00546	8b 85 c0 fe ff
	ff		 mov	 eax, DWORD PTR _packetPosition$[ebp+4]
  0054c	89 45 b4	 mov	 DWORD PTR $T20[ebp], eax

; 1137 : 	while (nIndex--)

  0054f	74 0e		 je	 SHORT $LN168@DrawCompon
$LL169@DrawCompon:

; 1138 : 	{
; 1139 : 		ASSERT(AfxIsValidAddress(pNode, sizeof(CNode)));
; 1140 : 		pNode = pNode->pNext;

  00551	8b 00		 mov	 eax, DWORD PTR [eax]
  00553	83 e9 01	 sub	 ecx, 1
  00556	75 f9		 jne	 SHORT $LL169@DrawCompon

; 1141 : 	}
; 1142 : 	return (POSITION) pNode;

  00558	eb 02		 jmp	 SHORT $LN440@DrawCompon
$LN172@DrawCompon:

; 1134 : 		return NULL;  // went too far

  0055a	33 c0		 xor	 eax, eax
$LN440@DrawCompon:
; File D:\git\src\IBK\IBK_DRFN\ProjSrc\SrcChartEx\ChartOCX\GraphDraw\FundDraw.cpp

; 1008 : 			POSITION dataPos = packetPosition.GetNext(dataPosPosition);

  0055c	89 45 b4	 mov	 DWORD PTR $T20[ebp], eax
$LN168@DrawCompon:
  0055f	8b 70 08	 mov	 esi, DWORD PTR [eax+8]

; 1009 : 			CString strData = CDataConversion( m_hOcxWnd, m_eChartMode).GetStringFormatTrans(CDataConversion::DoubleToString(dataPacket->GetnumericDataList()->GetNext(dataPos)), dataPacket->GetType());

  00562	8b ca		 mov	 ecx, edx
  00564	6a 01		 push	 1
  00566	8d 85 b4 fe ff
	ff		 lea	 eax, DWORD PTR $T12[ebp]
  0056c	50		 push	 eax
  0056d	ff 15 00 00 00
	00		 call	 DWORD PTR __imp_?GetType@CPacket@@QAE?AV?$CStringT@DV?$StrTraitMFC_DLL@DV?$ChTraitsCRT@D@ATL@@@@@ATL@@_N@Z
  00573	8b f8		 mov	 edi, eax
  00575	8b 4d a0	 mov	 ecx, DWORD PTR _dataPacket$1$[ebp]
  00578	c6 45 fc 16	 mov	 BYTE PTR __$EHRec$[ebp+8], 22 ; 00000016H
  0057c	ff 15 00 00 00
	00		 call	 DWORD PTR __imp_?GetnumericDataList@CPacket@@QAEPAV?$CList@NN@@XZ
; File C:\Program Files (x86)\Microsoft Visual Studio\2019\Community\VC\Tools\MSVC\14.29.30133\atlmfc\include\afxtempl.h

; 813  : 		rPosition = (POSITION) pNode->pNext;

  00582	8b 06		 mov	 eax, DWORD PTR [esi]

; 814  : 		return pNode->data; }

  00584	8d 4e 08	 lea	 ecx, DWORD PTR [esi+8]
  00587	89 45 b8	 mov	 DWORD PTR _dataPos$2$[ebp], eax
; File D:\git\src\IBK\IBK_DRFN\ProjSrc\SrcChartEx\ChartOCX\GraphDraw\FundDraw.cpp

; 1009 : 			CString strData = CDataConversion( m_hOcxWnd, m_eChartMode).GetStringFormatTrans(CDataConversion::DoubleToString(dataPacket->GetnumericDataList()->GetNext(dataPos)), dataPacket->GetType());

  0058a	8d 85 a0 fe ff
	ff		 lea	 eax, DWORD PTR $T9[ebp]
  00590	51		 push	 ecx
  00591	50		 push	 eax
  00592	e8 00 00 00 00	 call	 ?DoubleToString@CDataConversion@@SA?AV?$CStringT@DV?$StrTraitMFC_DLL@DV?$ChTraitsCRT@D@ATL@@@@@ATL@@ABN@Z ; CDataConversion::DoubleToString
  00597	83 c4 08	 add	 esp, 8
  0059a	8b 4d dc	 mov	 ecx, DWORD PTR _this$GSCopy$1$[ebp]
  0059d	57		 push	 edi
  0059e	50		 push	 eax
  0059f	8d 45 ac	 lea	 eax, DWORD PTR _strData$15[ebp]
  005a2	c6 45 fc 17	 mov	 BYTE PTR __$EHRec$[ebp+8], 23 ; 00000017H
  005a6	8b 51 20	 mov	 edx, DWORD PTR [ecx+32]
; File D:\git\src\IBK\IBK_DRFN\ProjSrc\SrcChartEx\ChartOCX\Include_Chart\Conversion.h

; 27   : 		{	m_hOcxWnd = p_hOcxWnd;	m_eChartMode = p_eChartMode;	}

  005a9	8b 49 1c	 mov	 ecx, DWORD PTR [ecx+28]
  005ac	89 8d 8c fe ff
	ff		 mov	 DWORD PTR $T8[ebp], ecx
; File D:\git\src\IBK\IBK_DRFN\ProjSrc\SrcChartEx\ChartOCX\GraphDraw\FundDraw.cpp

; 1009 : 			CString strData = CDataConversion( m_hOcxWnd, m_eChartMode).GetStringFormatTrans(CDataConversion::DoubleToString(dataPacket->GetnumericDataList()->GetNext(dataPos)), dataPacket->GetType());

  005b2	8d 8d 8c fe ff
	ff		 lea	 ecx, DWORD PTR $T8[ebp]
  005b8	50		 push	 eax
; File D:\git\src\IBK\IBK_DRFN\ProjSrc\SrcChartEx\ChartOCX\Include_Chart\Conversion.h

; 27   : 		{	m_hOcxWnd = p_hOcxWnd;	m_eChartMode = p_eChartMode;	}

  005b9	89 95 90 fe ff
	ff		 mov	 DWORD PTR $T8[ebp+4], edx
; File D:\git\src\IBK\IBK_DRFN\ProjSrc\SrcChartEx\ChartOCX\GraphDraw\FundDraw.cpp

; 1009 : 			CString strData = CDataConversion( m_hOcxWnd, m_eChartMode).GetStringFormatTrans(CDataConversion::DoubleToString(dataPacket->GetnumericDataList()->GetNext(dataPos)), dataPacket->GetType());

  005bf	e8 00 00 00 00	 call	 ?GetStringFormatTrans@CDataConversion@@QAE?AV?$CStringT@DV?$StrTraitMFC_DLL@DV?$ChTraitsCRT@D@ATL@@@@@ATL@@ABV23@0@Z ; CDataConversion::GetStringFormatTrans
  005c4	8d 8d a0 fe ff
	ff		 lea	 ecx, DWORD PTR $T9[ebp]
  005ca	ff 15 00 00 00
	00		 call	 DWORD PTR __imp_??1?$CStringT@DV?$StrTraitMFC_DLL@DV?$ChTraitsCRT@D@ATL@@@@@ATL@@QAE@XZ
  005d0	8d 8d b4 fe ff
	ff		 lea	 ecx, DWORD PTR $T12[ebp]
  005d6	c6 45 fc 1a	 mov	 BYTE PTR __$EHRec$[ebp+8], 26 ; 0000001aH
  005da	ff 15 00 00 00
	00		 call	 DWORD PTR __imp_??1?$CStringT@DV?$StrTraitMFC_DLL@DV?$ChTraitsCRT@D@ATL@@@@@ATL@@QAE@XZ

; 1010 : 			strData.TrimRight("%");

  005e0	68 00 00 00 00	 push	 OFFSET ??_C@_01FGNFDNOH@?$CF@
  005e5	8d 4d ac	 lea	 ecx, DWORD PTR _strData$15[ebp]
  005e8	ff 15 00 00 00
	00		 call	 DWORD PTR __imp_?TrimRight@?$CStringT@DV?$StrTraitMFC_DLL@DV?$ChTraitsCRT@D@ATL@@@@@ATL@@QAEAAV12@PBD@Z

; 1011 : 
; 1012 : 			double data = atof(strData);

  005ee	ff 75 ac	 push	 DWORD PTR _strData$15[ebp]
  005f1	ff 15 00 00 00
	00		 call	 DWORD PTR __imp__atof

; 1013 : 
; 1014 : 			packetPosition.SetAt(tempPos, dataPos);

  005f7	8b 4d b4	 mov	 ecx, DWORD PTR $T20[ebp]
  005fa	8b 45 b8	 mov	 eax, DWORD PTR _dataPos$2$[ebp]

; 1015 : 			DataPt = CDataConversion::GetVerticalPoint(graphDrawingRegion, count, realWidth, dataViewMin, dataViewMax, data);

  005fd	8b 75 d0	 mov	 esi, DWORD PTR _count$1$[ebp]
  00600	6a 01		 push	 1
  00602	dd 9d 74 fe ff
	ff		 fstp	 QWORD PTR _data$5[ebp]
  00608	89 41 08	 mov	 DWORD PTR [ecx+8], eax
  0060b	8d 85 74 fe ff
	ff		 lea	 eax, DWORD PTR _data$5[ebp]
  00611	50		 push	 eax
  00612	ff b5 28 ff ff
	ff		 push	 DWORD PTR _dataViewMax$GSCopy$1$[ebp]
  00618	8d 85 98 fe ff
	ff		 lea	 eax, DWORD PTR _realWidth$[ebp]
  0061e	ff b5 24 ff ff
	ff		 push	 DWORD PTR _dataViewMin$GSCopy$1$[ebp]
  00624	50		 push	 eax
  00625	56		 push	 esi
  00626	ff 75 c8	 push	 DWORD PTR _graphDrawingRegion$GSCopy$1$[ebp]
  00629	8d 85 5c fe ff
	ff		 lea	 eax, DWORD PTR $T3[ebp]
  0062f	50		 push	 eax
  00630	e8 00 00 00 00	 call	 ?GetVerticalPoint@CDataConversion@@SA?AVCPoint@@ABVCRect@@HABN111_N@Z ; CDataConversion::GetVerticalPoint

; 1016 : 
; 1017 : 			if(data == 0)

  00635	f2 0f 10 85 74
	fe ff ff	 movsd	 xmm0, QWORD PTR _data$5[ebp]
  0063d	83 c4 24	 add	 esp, 36			; 00000024H
  00640	0f 57 c9	 xorps	 xmm1, xmm1
  00643	66 0f 2e c1	 ucomisd xmm0, xmm1
  00647	8b 48 04	 mov	 ecx, DWORD PTR [eax+4]
  0064a	8b 38		 mov	 edi, DWORD PTR [eax]
  0064c	8b 45 c8	 mov	 eax, DWORD PTR _graphDrawingRegion$GSCopy$1$[ebp]
  0064f	89 4d b8	 mov	 DWORD PTR _DataPt$1$[ebp], ecx
  00652	8b 50 0c	 mov	 edx, DWORD PTR [eax+12]
  00655	9f		 lahf
  00656	f6 c4 44	 test	 ah, 68			; 00000044H
  00659	7a 05		 jp	 SHORT $LN415@DrawCompon

; 1018 : 				DataPt.y = graphDrawingRegion.bottom;

  0065b	89 55 b8	 mov	 DWORD PTR _DataPt$1$[ebp], edx
  0065e	8b ca		 mov	 ecx, edx
$LN415@DrawCompon:

; 1019 : 			if(data != 0 && graphDrawingRegion.bottom == DataPt.y)

  00660	66 0f 2e c1	 ucomisd xmm0, xmm1
  00664	89 4d b4	 mov	 DWORD PTR $T17[ebp], ecx
  00667	9f		 lahf
  00668	f6 c4 44	 test	 ah, 68			; 00000044H
  0066b	7b 10		 jnp	 SHORT $LN18@DrawCompon
  0066d	89 4d b4	 mov	 DWORD PTR $T17[ebp], ecx
  00670	3b d1		 cmp	 edx, ecx
  00672	75 09		 jne	 SHORT $LN18@DrawCompon

; 1020 : 				DataPt.y --;

  00674	8d 41 ff	 lea	 eax, DWORD PTR [ecx-1]
  00677	89 45 b8	 mov	 DWORD PTR _DataPt$1$[ebp], eax
  0067a	89 45 b4	 mov	 DWORD PTR $T17[ebp], eax
$LN18@DrawCompon:

; 1021 : 
; 1022 : 			saveDataY = saveDataY + (graphDrawingRegion.bottom - DataPt.y);

  0067d	8b c2		 mov	 eax, edx
  0067f	0f 57 c0	 xorps	 xmm0, xmm0
  00682	2b 45 b4	 sub	 eax, DWORD PTR $T17[ebp]
  00685	01 45 a4	 add	 DWORD PTR _saveDataY$1$[ebp], eax
; File C:\Program Files (x86)\Microsoft Visual Studio\2019\Community\VC\Tools\MSVC\14.29.30133\atlmfc\include\atltypes.h

; 528  : 	left = 0;

  00688	0f 11 45 e0	 movups	 XMMWORD PTR _rect$22[ebp], xmm0
; File D:\git\src\IBK\IBK_DRFN\ProjSrc\SrcChartEx\ChartOCX\GraphDraw\FundDraw.cpp

; 1025 : 			if(count > 1){

  0068c	83 fe 01	 cmp	 esi, 1
  0068f	0f 8e 65 01 00
	00		 jle	 $LN19@DrawCompon

; 1026 : 				//displayData
; 1027 : 				//POSITION beforeDataPos = dataPacket->GetnumericDataList()->FindIndex(dataStart + count - 3);
; 1028 : 				POSITION beforeDataPos = dataPacket->GetnumericDataList()->FindIndex(dataStart + count - 2);

  00695	8b 45 a8	 mov	 eax, DWORD PTR _dataStart$GSCopy$1$[ebp]
  00698	83 c6 fe	 add	 esi, -2			; fffffffeH
  0069b	8b 4d a0	 mov	 ecx, DWORD PTR _dataPacket$1$[ebp]
  0069e	03 c6		 add	 eax, esi
  006a0	89 45 d4	 mov	 DWORD PTR tv3259[ebp], eax
  006a3	8b f0		 mov	 esi, eax
  006a5	ff 15 00 00 00
	00		 call	 DWORD PTR __imp_?GetnumericDataList@CPacket@@QAEPAV?$CList@NN@@XZ
; File C:\Program Files (x86)\Microsoft Visual Studio\2019\Community\VC\Tools\MSVC\14.29.30133\atlmfc\include\afxtempl.h

; 1133 : 	if (nIndex >= m_nCount || nIndex < 0)

  006ab	8b ce		 mov	 ecx, esi
  006ad	3b 48 0c	 cmp	 ecx, DWORD PTR [eax+12]
  006b0	7d 1a		 jge	 SHORT $LN188@DrawCompon
  006b2	85 c9		 test	 ecx, ecx
  006b4	78 16		 js	 SHORT $LN188@DrawCompon

; 1135 : 
; 1136 : 	CNode* pNode = m_pNodeHead;

  006b6	8b 40 04	 mov	 eax, DWORD PTR [eax+4]
  006b9	89 45 b4	 mov	 DWORD PTR $T19[ebp], eax

; 1137 : 	while (nIndex--)

  006bc	74 15		 je	 SHORT $LN184@DrawCompon
  006be	66 90		 npad	 2
$LL185@DrawCompon:

; 1138 : 	{
; 1139 : 		ASSERT(AfxIsValidAddress(pNode, sizeof(CNode)));
; 1140 : 		pNode = pNode->pNext;

  006c0	8b 00		 mov	 eax, DWORD PTR [eax]
  006c2	83 ee 01	 sub	 esi, 1
  006c5	75 f9		 jne	 SHORT $LL185@DrawCompon
  006c7	89 45 b4	 mov	 DWORD PTR $T19[ebp], eax

; 1141 : 	}
; 1142 : 	return (POSITION) pNode;

  006ca	eb 07		 jmp	 SHORT $LN184@DrawCompon
$LN188@DrawCompon:

; 1134 : 		return NULL;  // went too far

  006cc	c7 45 b4 00 00
	00 00		 mov	 DWORD PTR $T19[ebp], 0
$LN184@DrawCompon:
; File D:\git\src\IBK\IBK_DRFN\ProjSrc\SrcChartEx\ChartOCX\GraphDraw\FundDraw.cpp

; 1029 : 				CString beforeStrData = CDataConversion( m_hOcxWnd, m_eChartMode).GetStringFormatTrans(CDataConversion::DoubleToString(dataPacket->GetnumericDataList()->GetNext(beforeDataPos)), dataPacket->GetType());

  006d3	8b 4d a0	 mov	 ecx, DWORD PTR _dataPacket$1$[ebp]
  006d6	8d 85 ac fe ff
	ff		 lea	 eax, DWORD PTR $T10[ebp]
  006dc	6a 01		 push	 1
  006de	50		 push	 eax
  006df	ff 15 00 00 00
	00		 call	 DWORD PTR __imp_?GetType@CPacket@@QAE?AV?$CStringT@DV?$StrTraitMFC_DLL@DV?$ChTraitsCRT@D@ATL@@@@@ATL@@_N@Z
  006e5	8b f0		 mov	 esi, eax
  006e7	8b 4d a0	 mov	 ecx, DWORD PTR _dataPacket$1$[ebp]
  006ea	c6 45 fc 1b	 mov	 BYTE PTR __$EHRec$[ebp+8], 27 ; 0000001bH
  006ee	ff 15 00 00 00
	00		 call	 DWORD PTR __imp_?GetnumericDataList@CPacket@@QAEPAV?$CList@NN@@XZ
; File C:\Program Files (x86)\Microsoft Visual Studio\2019\Community\VC\Tools\MSVC\14.29.30133\atlmfc\include\afxtempl.h

; 814  : 		return pNode->data; }

  006f4	8b 4d b4	 mov	 ecx, DWORD PTR $T19[ebp]
; File D:\git\src\IBK\IBK_DRFN\ProjSrc\SrcChartEx\ChartOCX\GraphDraw\FundDraw.cpp

; 1029 : 				CString beforeStrData = CDataConversion( m_hOcxWnd, m_eChartMode).GetStringFormatTrans(CDataConversion::DoubleToString(dataPacket->GetnumericDataList()->GetNext(beforeDataPos)), dataPacket->GetType());

  006f7	8d 85 b0 fe ff
	ff		 lea	 eax, DWORD PTR $T11[ebp]
; File C:\Program Files (x86)\Microsoft Visual Studio\2019\Community\VC\Tools\MSVC\14.29.30133\atlmfc\include\afxtempl.h

; 814  : 		return pNode->data; }

  006fd	83 c1 08	 add	 ecx, 8
; File D:\git\src\IBK\IBK_DRFN\ProjSrc\SrcChartEx\ChartOCX\GraphDraw\FundDraw.cpp

; 1029 : 				CString beforeStrData = CDataConversion( m_hOcxWnd, m_eChartMode).GetStringFormatTrans(CDataConversion::DoubleToString(dataPacket->GetnumericDataList()->GetNext(beforeDataPos)), dataPacket->GetType());

  00700	51		 push	 ecx
  00701	50		 push	 eax
  00702	e8 00 00 00 00	 call	 ?DoubleToString@CDataConversion@@SA?AV?$CStringT@DV?$StrTraitMFC_DLL@DV?$ChTraitsCRT@D@ATL@@@@@ATL@@ABN@Z ; CDataConversion::DoubleToString
  00707	83 c4 08	 add	 esp, 8
  0070a	8b 4d dc	 mov	 ecx, DWORD PTR _this$GSCopy$1$[ebp]
  0070d	56		 push	 esi
  0070e	50		 push	 eax
  0070f	8d 45 94	 lea	 eax, DWORD PTR _beforeStrData$13[ebp]
  00712	c6 45 fc 1c	 mov	 BYTE PTR __$EHRec$[ebp+8], 28 ; 0000001cH
  00716	8b 51 20	 mov	 edx, DWORD PTR [ecx+32]
; File D:\git\src\IBK\IBK_DRFN\ProjSrc\SrcChartEx\ChartOCX\Include_Chart\Conversion.h

; 27   : 		{	m_hOcxWnd = p_hOcxWnd;	m_eChartMode = p_eChartMode;	}

  00719	8b 49 1c	 mov	 ecx, DWORD PTR [ecx+28]
  0071c	89 8d 84 fe ff
	ff		 mov	 DWORD PTR $T7[ebp], ecx
; File D:\git\src\IBK\IBK_DRFN\ProjSrc\SrcChartEx\ChartOCX\GraphDraw\FundDraw.cpp

; 1029 : 				CString beforeStrData = CDataConversion( m_hOcxWnd, m_eChartMode).GetStringFormatTrans(CDataConversion::DoubleToString(dataPacket->GetnumericDataList()->GetNext(beforeDataPos)), dataPacket->GetType());

  00722	8d 8d 84 fe ff
	ff		 lea	 ecx, DWORD PTR $T7[ebp]
  00728	50		 push	 eax
; File D:\git\src\IBK\IBK_DRFN\ProjSrc\SrcChartEx\ChartOCX\Include_Chart\Conversion.h

; 27   : 		{	m_hOcxWnd = p_hOcxWnd;	m_eChartMode = p_eChartMode;	}

  00729	89 95 88 fe ff
	ff		 mov	 DWORD PTR $T7[ebp+4], edx
; File D:\git\src\IBK\IBK_DRFN\ProjSrc\SrcChartEx\ChartOCX\GraphDraw\FundDraw.cpp

; 1029 : 				CString beforeStrData = CDataConversion( m_hOcxWnd, m_eChartMode).GetStringFormatTrans(CDataConversion::DoubleToString(dataPacket->GetnumericDataList()->GetNext(beforeDataPos)), dataPacket->GetType());

  0072f	e8 00 00 00 00	 call	 ?GetStringFormatTrans@CDataConversion@@QAE?AV?$CStringT@DV?$StrTraitMFC_DLL@DV?$ChTraitsCRT@D@ATL@@@@@ATL@@ABV23@0@Z ; CDataConversion::GetStringFormatTrans
  00734	8d 8d b0 fe ff
	ff		 lea	 ecx, DWORD PTR $T11[ebp]
  0073a	ff 15 00 00 00
	00		 call	 DWORD PTR __imp_??1?$CStringT@DV?$StrTraitMFC_DLL@DV?$ChTraitsCRT@D@ATL@@@@@ATL@@QAE@XZ
  00740	8d 8d ac fe ff
	ff		 lea	 ecx, DWORD PTR $T10[ebp]
  00746	c6 45 fc 1f	 mov	 BYTE PTR __$EHRec$[ebp+8], 31 ; 0000001fH
  0074a	ff 15 00 00 00
	00		 call	 DWORD PTR __imp_??1?$CStringT@DV?$StrTraitMFC_DLL@DV?$ChTraitsCRT@D@ATL@@@@@ATL@@QAE@XZ

; 1030 : 				beforeStrData.TrimRight("%");

  00750	68 00 00 00 00	 push	 OFFSET ??_C@_01FGNFDNOH@?$CF@
  00755	8d 4d 94	 lea	 ecx, DWORD PTR _beforeStrData$13[ebp]
  00758	ff 15 00 00 00
	00		 call	 DWORD PTR __imp_?TrimRight@?$CStringT@DV?$StrTraitMFC_DLL@DV?$ChTraitsCRT@D@ATL@@@@@ATL@@QAEAAV12@PBD@Z

; 1031 : 
; 1032 : 				double beforeData = atof(beforeStrData);

  0075e	ff 75 94	 push	 DWORD PTR _beforeStrData$13[ebp]
  00761	ff 15 00 00 00
	00		 call	 DWORD PTR __imp__atof

; 1033 : 				beforeDataPt = CDataConversion::GetVerticalPoint(graphDrawingRegion, count-1, realWidth, dataViewMin, dataViewMax, beforeData);

  00767	8b 75 c8	 mov	 esi, DWORD PTR _graphDrawingRegion$GSCopy$1$[ebp]
  0076a	8d 85 7c fe ff
	ff		 lea	 eax, DWORD PTR _beforeData$6[ebp]
  00770	6a 01		 push	 1
  00772	50		 push	 eax
  00773	ff b5 28 ff ff
	ff		 push	 DWORD PTR _dataViewMax$GSCopy$1$[ebp]
  00779	8d 85 98 fe ff
	ff		 lea	 eax, DWORD PTR _realWidth$[ebp]
  0077f	ff b5 24 ff ff
	ff		 push	 DWORD PTR _dataViewMin$GSCopy$1$[ebp]
  00785	dd 9d 7c fe ff
	ff		 fstp	 QWORD PTR _beforeData$6[ebp]
  0078b	50		 push	 eax
  0078c	8b 45 d4	 mov	 eax, DWORD PTR tv3259[ebp]
  0078f	03 85 a8 fe ff
	ff		 add	 eax, DWORD PTR tv3262[ebp]
  00795	50		 push	 eax
  00796	8d 85 54 fe ff
	ff		 lea	 eax, DWORD PTR $T2[ebp]
  0079c	56		 push	 esi
  0079d	50		 push	 eax
  0079e	e8 00 00 00 00	 call	 ?GetVerticalPoint@CDataConversion@@SA?AVCPoint@@ABVCRect@@HABN111_N@Z ; CDataConversion::GetVerticalPoint

; 1034 : 				if(beforeData == 0)

  007a3	f2 0f 10 85 7c
	fe ff ff	 movsd	 xmm0, QWORD PTR _beforeData$6[ebp]
  007ab	83 c4 24	 add	 esp, 36			; 00000024H
  007ae	8b 56 0c	 mov	 edx, DWORD PTR [esi+12]
  007b1	0f 57 c9	 xorps	 xmm1, xmm1
  007b4	66 0f 2e c1	 ucomisd xmm0, xmm1
  007b8	8b 08		 mov	 ecx, DWORD PTR [eax]
  007ba	89 4d d4	 mov	 DWORD PTR _beforeDataPt$1$[ebp], ecx
  007bd	8b 48 04	 mov	 ecx, DWORD PTR [eax+4]
  007c0	89 4d b4	 mov	 DWORD PTR _beforeDataPt$16[ebp+4], ecx
  007c3	9f		 lahf
  007c4	f6 c4 44	 test	 ah, 68			; 00000044H
  007c7	0f 4b ca	 cmovnp	 ecx, edx

; 1035 : 					beforeDataPt.y = graphDrawingRegion.bottom;
; 1036 : 				if(beforeData != 0 && graphDrawingRegion.bottom == beforeDataPt.y)

  007ca	66 0f 2e c1	 ucomisd xmm0, xmm1
  007ce	89 4d b4	 mov	 DWORD PTR $T18[ebp], ecx
  007d1	9f		 lahf
  007d2	f6 c4 44	 test	 ah, 68			; 00000044H
  007d5	7b 0b		 jnp	 SHORT $LN437@DrawCompon
  007d7	8b c1		 mov	 eax, ecx
  007d9	3b d1		 cmp	 edx, ecx
  007db	75 08		 jne	 SHORT $LN21@DrawCompon

; 1037 : 					beforeDataPt.y --;

  007dd	8d 41 ff	 lea	 eax, DWORD PTR [ecx-1]
  007e0	eb 03		 jmp	 SHORT $LN21@DrawCompon
$LN437@DrawCompon:

; 1035 : 					beforeDataPt.y = graphDrawingRegion.bottom;
; 1036 : 				if(beforeData != 0 && graphDrawingRegion.bottom == beforeDataPt.y)

  007e2	8b 45 b4	 mov	 eax, DWORD PTR $T18[ebp]
$LN21@DrawCompon:

; 1038 : 
; 1039 : 				linePt = linePt + (graphDrawingRegion.bottom - beforeDataPt.y);

  007e5	2b d0		 sub	 edx, eax

; 1040 : 			}

  007e7	c6 45 fc 1a	 mov	 BYTE PTR __$EHRec$[ebp+8], 26 ; 0000001aH
  007eb	01 55 c0	 add	 DWORD PTR _linePt$1$[ebp], edx
  007ee	8d 4d 94	 lea	 ecx, DWORD PTR _beforeStrData$13[ebp]
  007f1	ff 15 00 00 00
	00		 call	 DWORD PTR __imp_??1?$CStringT@DV?$StrTraitMFC_DLL@DV?$ChTraitsCRT@D@ATL@@@@@ATL@@QAE@XZ
  007f7	8b 56 0c	 mov	 edx, DWORD PTR [esi+12]
$LN19@DrawCompon:

; 1041 : 			//============================================================================================
; 1042 : 			
; 1043 : 			if(j == 0)

  007fa	8b 45 cc	 mov	 eax, DWORD PTR _lineThickness$1$[ebp]
  007fd	8b 75 98	 mov	 esi, DWORD PTR _j$1$[ebp]
  00800	03 c7		 add	 eax, edi
  00802	2b bd 20 ff ff
	ff		 sub	 edi, DWORD PTR tv3265[ebp]
  00808	03 45 c4	 add	 eax, DWORD PTR _bongWidth$3$[ebp]
  0080b	2b 7d c4	 sub	 edi, DWORD PTR _bongWidth$3$[ebp]
  0080e	85 f6		 test	 esi, esi
  00810	75 34		 jne	 SHORT $LN22@DrawCompon
; File C:\Program Files (x86)\Microsoft Visual Studio\2019\Community\VC\Tools\MSVC\14.29.30133\atlmfc\include\atltypes.h

; 541  : 	top = t;

  00812	8b 4d b8	 mov	 ecx, DWORD PTR _DataPt$1$[ebp]
  00815	89 bd 64 fe ff
	ff		 mov	 DWORD PTR $T4[ebp], edi
; File D:\git\src\IBK\IBK_DRFN\ProjSrc\SrcChartEx\ChartOCX\GraphDraw\FundDraw.cpp

; 1044 : 				rect = CRect(DataPt.x - bongWidth - lineThickness/2, DataPt.y, DataPt.x + bongWidth + lineThickness, graphDrawingRegion.bottom);

  0081b	8b 7d a4	 mov	 edi, DWORD PTR _saveDataY$1$[ebp]
; File C:\Program Files (x86)\Microsoft Visual Studio\2019\Community\VC\Tools\MSVC\14.29.30133\atlmfc\include\atltypes.h

; 542  : 	right = r;

  0081e	89 85 6c fe ff
	ff		 mov	 DWORD PTR $T4[ebp+8], eax
; File D:\git\src\IBK\IBK_DRFN\ProjSrc\SrcChartEx\ChartOCX\GraphDraw\FundDraw.cpp

; 1044 : 				rect = CRect(DataPt.x - bongWidth - lineThickness/2, DataPt.y, DataPt.x + bongWidth + lineThickness, graphDrawingRegion.bottom);

  00824	8d 46 01	 lea	 eax, DWORD PTR [esi+1]
; File C:\Program Files (x86)\Microsoft Visual Studio\2019\Community\VC\Tools\MSVC\14.29.30133\atlmfc\include\atltypes.h

; 541  : 	top = t;

  00827	89 8d 68 fe ff
	ff		 mov	 DWORD PTR $T4[ebp+4], ecx

; 543  : 	bottom = b;

  0082d	89 95 70 fe ff
	ff		 mov	 DWORD PTR $T4[ebp+12], edx
; File D:\git\src\IBK\IBK_DRFN\ProjSrc\SrcChartEx\ChartOCX\GraphDraw\FundDraw.cpp

; 1044 : 				rect = CRect(DataPt.x - bongWidth - lineThickness/2, DataPt.y, DataPt.x + bongWidth + lineThickness, graphDrawingRegion.bottom);

  00833	0f 10 85 64 fe
	ff ff		 movups	 xmm0, XMMWORD PTR $T4[ebp]
  0083a	89 7d 9c	 mov	 DWORD PTR _beforeDataY$14[ebp], edi
  0083d	89 45 b8	 mov	 DWORD PTR tv3261[ebp], eax
  00840	0f 11 45 e0	 movups	 XMMWORD PTR _rect$22[ebp], xmm0
  00844	eb 3a		 jmp	 SHORT $LN425@DrawCompon
$LN22@DrawCompon:

; 1045 : 			else
; 1046 : 				rect = CRect(DataPt.x - bongWidth - lineThickness/2, graphDrawingRegion.bottom - saveDataY, DataPt.x + bongWidth + lineThickness, graphDrawingRegion.bottom - beforeDataY);

  00846	89 45 e8	 mov	 DWORD PTR _rect$22[ebp+8], eax
  00849	8b ca		 mov	 ecx, edx
  0084b	2b 4d 9c	 sub	 ecx, DWORD PTR _beforeDataY$14[ebp]
  0084e	2b 55 a4	 sub	 edx, DWORD PTR _saveDataY$1$[ebp]

; 1047 : 				
; 1048 : 			beforeDataY	= saveDataY;

  00851	8b 45 a4	 mov	 eax, DWORD PTR _saveDataY$1$[ebp]
  00854	89 45 9c	 mov	 DWORD PTR _beforeDataY$14[ebp], eax

; 1049 : 			
; 1050 : 			int selectBrush = (j+1) - (brushCount * ((j+1)/ brushCount));

  00857	b8 67 66 66 66	 mov	 eax, 1717986919		; 66666667H
  0085c	89 4d ec	 mov	 DWORD PTR _rect$22[ebp+12], ecx
  0085f	8d 4e 01	 lea	 ecx, DWORD PTR [esi+1]
  00862	89 55 e4	 mov	 DWORD PTR _rect$22[ebp+4], edx
  00865	f7 e9		 imul	 ecx
  00867	89 7d e0	 mov	 DWORD PTR _rect$22[ebp], edi
  0086a	c1 fa 02	 sar	 edx, 2
  0086d	8b c2		 mov	 eax, edx
  0086f	89 4d b8	 mov	 DWORD PTR tv3261[ebp], ecx
  00872	c1 e8 1f	 shr	 eax, 31			; 0000001fH
  00875	03 c2		 add	 eax, edx
  00877	8d 04 80	 lea	 eax, DWORD PTR [eax+eax*4]
  0087a	03 c0		 add	 eax, eax
  0087c	2b f0		 sub	 esi, eax

; 1051 : 				
; 1052 : 			if(selectBrush == 1){

  0087e	75 53		 jne	 SHORT $LN24@DrawCompon
$LN425@DrawCompon:

; 1053 : 				if(count > 1){

  00880	83 7d d0 01	 cmp	 DWORD PTR _count$1$[ebp], 1
  00884	8b 75 d8	 mov	 esi, DWORD PTR _pDC$GSCopy$1$[ebp]
  00887	7e 32		 jle	 SHORT $LN436@DrawCompon

; 1054 : 					pDC->SelectObject(&pen1);

  00889	8d 85 38 ff ff
	ff		 lea	 eax, DWORD PTR _pen1$[ebp]
  0088f	8b ce		 mov	 ecx, esi
  00891	50		 push	 eax
  00892	e8 00 00 00 00	 call	 ?SelectObject@CDC@@QAEPAVCPen@@PAV2@@Z ; CDC::SelectObject

; 1055 : 					CDraw::DrawLine(pDC, CPoint(beforeDataPt.x + bongWidth, graphDrawingRegion.bottom - linePt), CPoint(rect.left, rect.top));

  00897	8b 45 c8	 mov	 eax, DWORD PTR _graphDrawingRegion$GSCopy$1$[ebp]
  0089a	ff 75 e4	 push	 DWORD PTR _rect$22[ebp+4]
  0089d	8b 7d dc	 mov	 edi, DWORD PTR _this$GSCopy$1$[ebp]
  008a0	ff 75 e0	 push	 DWORD PTR _rect$22[ebp]
  008a3	8b 48 0c	 mov	 ecx, DWORD PTR [eax+12]
  008a6	2b 4d c0	 sub	 ecx, DWORD PTR _linePt$1$[ebp]
  008a9	8b 45 c4	 mov	 eax, DWORD PTR _bongWidth$3$[ebp]
  008ac	03 45 d4	 add	 eax, DWORD PTR _beforeDataPt$1$[ebp]
  008af	51		 push	 ecx
  008b0	50		 push	 eax
  008b1	56		 push	 esi
  008b2	8b cf		 mov	 ecx, edi
  008b4	e8 00 00 00 00	 call	 ?DrawLine@CDraw@@IAEXPAVCDC@@UtagPOINT@@1@Z ; CDraw::DrawLine
  008b9	eb 03		 jmp	 SHORT $LN26@DrawCompon
$LN436@DrawCompon:

; 1053 : 				if(count > 1){

  008bb	8b 7d dc	 mov	 edi, DWORD PTR _this$GSCopy$1$[ebp]
$LN26@DrawCompon:
; File C:\Program Files (x86)\Microsoft Visual Studio\2019\Community\VC\Tools\MSVC\14.29.30133\atlmfc\include\afxwin1.inl

; 476  : 	{ ASSERT(m_hDC != NULL); ::FillRect(m_hDC, lpRect, (HBRUSH)pBrush->GetSafeHandle()); }

  008be	ff 75 84	 push	 DWORD PTR _firstBrush$[ebp+4]
  008c1	8d 45 e0	 lea	 eax, DWORD PTR _rect$22[ebp]
  008c4	50		 push	 eax
  008c5	ff 76 04	 push	 DWORD PTR [esi+4]
  008c8	ff 15 00 00 00
	00		 call	 DWORD PTR __imp__FillRect@12
; File D:\git\src\IBK\IBK_DRFN\ProjSrc\SrcChartEx\ChartOCX\GraphDraw\FundDraw.cpp

; 1058 : 			}

  008ce	e9 40 03 00 00	 jmp	 $LN52@DrawCompon
$LN24@DrawCompon:

; 1059 : 			else if(selectBrush == 2){	

  008d3	83 fe 01	 cmp	 esi, 1
  008d6	75 56		 jne	 SHORT $LN27@DrawCompon

; 1060 : 				if(count > 1){

  008d8	83 7d d0 01	 cmp	 DWORD PTR _count$1$[ebp], 1
  008dc	8b 75 d8	 mov	 esi, DWORD PTR _pDC$GSCopy$1$[ebp]
  008df	7e 32		 jle	 SHORT $LN435@DrawCompon

; 1061 : 					pDC->SelectObject(&pen2);

  008e1	8d 85 40 ff ff
	ff		 lea	 eax, DWORD PTR _pen2$[ebp]
  008e7	8b ce		 mov	 ecx, esi
  008e9	50		 push	 eax
  008ea	e8 00 00 00 00	 call	 ?SelectObject@CDC@@QAEPAVCPen@@PAV2@@Z ; CDC::SelectObject

; 1062 : 					CDraw::DrawLine(pDC, CPoint(beforeDataPt.x + bongWidth, graphDrawingRegion.bottom - linePt), CPoint(rect.left, rect.top));

  008ef	8b 45 c8	 mov	 eax, DWORD PTR _graphDrawingRegion$GSCopy$1$[ebp]
  008f2	ff 75 e4	 push	 DWORD PTR _rect$22[ebp+4]
  008f5	8b 7d dc	 mov	 edi, DWORD PTR _this$GSCopy$1$[ebp]
  008f8	ff 75 e0	 push	 DWORD PTR _rect$22[ebp]
  008fb	8b 48 0c	 mov	 ecx, DWORD PTR [eax+12]
  008fe	2b 4d c0	 sub	 ecx, DWORD PTR _linePt$1$[ebp]
  00901	8b 45 c4	 mov	 eax, DWORD PTR _bongWidth$3$[ebp]
  00904	03 45 d4	 add	 eax, DWORD PTR _beforeDataPt$1$[ebp]
  00907	51		 push	 ecx
  00908	50		 push	 eax
  00909	56		 push	 esi
  0090a	8b cf		 mov	 ecx, edi
  0090c	e8 00 00 00 00	 call	 ?DrawLine@CDraw@@IAEXPAVCDC@@UtagPOINT@@1@Z ; CDraw::DrawLine
  00911	eb 03		 jmp	 SHORT $LN29@DrawCompon
$LN435@DrawCompon:

; 1060 : 				if(count > 1){

  00913	8b 7d dc	 mov	 edi, DWORD PTR _this$GSCopy$1$[ebp]
$LN29@DrawCompon:
; File C:\Program Files (x86)\Microsoft Visual Studio\2019\Community\VC\Tools\MSVC\14.29.30133\atlmfc\include\afxwin1.inl

; 476  : 	{ ASSERT(m_hDC != NULL); ::FillRect(m_hDC, lpRect, (HBRUSH)pBrush->GetSafeHandle()); }

  00916	ff b5 dc fe ff
	ff		 push	 DWORD PTR _secondBrush$[ebp+4]
  0091c	8d 45 e0	 lea	 eax, DWORD PTR _rect$22[ebp]
  0091f	50		 push	 eax
  00920	ff 76 04	 push	 DWORD PTR [esi+4]
  00923	ff 15 00 00 00
	00		 call	 DWORD PTR __imp__FillRect@12
; File D:\git\src\IBK\IBK_DRFN\ProjSrc\SrcChartEx\ChartOCX\GraphDraw\FundDraw.cpp

; 1065 : 			}

  00929	e9 e5 02 00 00	 jmp	 $LN52@DrawCompon
$LN27@DrawCompon:

; 1066 : 			else if(selectBrush == 3){

  0092e	83 fe 02	 cmp	 esi, 2
  00931	75 56		 jne	 SHORT $LN30@DrawCompon

; 1067 : 				if(count > 1){

  00933	83 7d d0 01	 cmp	 DWORD PTR _count$1$[ebp], 1
  00937	8b 75 d8	 mov	 esi, DWORD PTR _pDC$GSCopy$1$[ebp]
  0093a	7e 32		 jle	 SHORT $LN434@DrawCompon

; 1068 : 					pDC->SelectObject(&pen3);

  0093c	8d 85 48 ff ff
	ff		 lea	 eax, DWORD PTR _pen3$[ebp]
  00942	8b ce		 mov	 ecx, esi
  00944	50		 push	 eax
  00945	e8 00 00 00 00	 call	 ?SelectObject@CDC@@QAEPAVCPen@@PAV2@@Z ; CDC::SelectObject

; 1069 : 					CDraw::DrawLine(pDC, CPoint(beforeDataPt.x + bongWidth, graphDrawingRegion.bottom - linePt), CPoint(rect.left, rect.top));

  0094a	8b 45 c8	 mov	 eax, DWORD PTR _graphDrawingRegion$GSCopy$1$[ebp]
  0094d	ff 75 e4	 push	 DWORD PTR _rect$22[ebp+4]
  00950	8b 7d dc	 mov	 edi, DWORD PTR _this$GSCopy$1$[ebp]
  00953	ff 75 e0	 push	 DWORD PTR _rect$22[ebp]
  00956	8b 48 0c	 mov	 ecx, DWORD PTR [eax+12]
  00959	2b 4d c0	 sub	 ecx, DWORD PTR _linePt$1$[ebp]
  0095c	8b 45 c4	 mov	 eax, DWORD PTR _bongWidth$3$[ebp]
  0095f	03 45 d4	 add	 eax, DWORD PTR _beforeDataPt$1$[ebp]
  00962	51		 push	 ecx
  00963	50		 push	 eax
  00964	56		 push	 esi
  00965	8b cf		 mov	 ecx, edi
  00967	e8 00 00 00 00	 call	 ?DrawLine@CDraw@@IAEXPAVCDC@@UtagPOINT@@1@Z ; CDraw::DrawLine
  0096c	eb 03		 jmp	 SHORT $LN32@DrawCompon
$LN434@DrawCompon:

; 1067 : 				if(count > 1){

  0096e	8b 7d dc	 mov	 edi, DWORD PTR _this$GSCopy$1$[ebp]
$LN32@DrawCompon:
; File C:\Program Files (x86)\Microsoft Visual Studio\2019\Community\VC\Tools\MSVC\14.29.30133\atlmfc\include\afxwin1.inl

; 476  : 	{ ASSERT(m_hDC != NULL); ::FillRect(m_hDC, lpRect, (HBRUSH)pBrush->GetSafeHandle()); }

  00971	ff b5 e4 fe ff
	ff		 push	 DWORD PTR _thirdBrush$[ebp+4]
  00977	8d 45 e0	 lea	 eax, DWORD PTR _rect$22[ebp]
  0097a	50		 push	 eax
  0097b	ff 76 04	 push	 DWORD PTR [esi+4]
  0097e	ff 15 00 00 00
	00		 call	 DWORD PTR __imp__FillRect@12
; File D:\git\src\IBK\IBK_DRFN\ProjSrc\SrcChartEx\ChartOCX\GraphDraw\FundDraw.cpp

; 1072 : 			}

  00984	e9 8a 02 00 00	 jmp	 $LN52@DrawCompon
$LN30@DrawCompon:

; 1073 : 			else if(selectBrush == 4){

  00989	83 fe 03	 cmp	 esi, 3
  0098c	75 56		 jne	 SHORT $LN33@DrawCompon

; 1074 : 				if(count > 1){

  0098e	83 7d d0 01	 cmp	 DWORD PTR _count$1$[ebp], 1
  00992	8b 75 d8	 mov	 esi, DWORD PTR _pDC$GSCopy$1$[ebp]
  00995	7e 32		 jle	 SHORT $LN433@DrawCompon

; 1075 : 					pDC->SelectObject(&pen4);

  00997	8d 85 50 ff ff
	ff		 lea	 eax, DWORD PTR _pen4$[ebp]
  0099d	8b ce		 mov	 ecx, esi
  0099f	50		 push	 eax
  009a0	e8 00 00 00 00	 call	 ?SelectObject@CDC@@QAEPAVCPen@@PAV2@@Z ; CDC::SelectObject

; 1076 : 					CDraw::DrawLine(pDC, CPoint(beforeDataPt.x + bongWidth, graphDrawingRegion.bottom - linePt), CPoint(rect.left, rect.top));

  009a5	8b 45 c8	 mov	 eax, DWORD PTR _graphDrawingRegion$GSCopy$1$[ebp]
  009a8	ff 75 e4	 push	 DWORD PTR _rect$22[ebp+4]
  009ab	8b 7d dc	 mov	 edi, DWORD PTR _this$GSCopy$1$[ebp]
  009ae	ff 75 e0	 push	 DWORD PTR _rect$22[ebp]
  009b1	8b 48 0c	 mov	 ecx, DWORD PTR [eax+12]
  009b4	2b 4d c0	 sub	 ecx, DWORD PTR _linePt$1$[ebp]
  009b7	8b 45 c4	 mov	 eax, DWORD PTR _bongWidth$3$[ebp]
  009ba	03 45 d4	 add	 eax, DWORD PTR _beforeDataPt$1$[ebp]
  009bd	51		 push	 ecx
  009be	50		 push	 eax
  009bf	56		 push	 esi
  009c0	8b cf		 mov	 ecx, edi
  009c2	e8 00 00 00 00	 call	 ?DrawLine@CDraw@@IAEXPAVCDC@@UtagPOINT@@1@Z ; CDraw::DrawLine
  009c7	eb 03		 jmp	 SHORT $LN35@DrawCompon
$LN433@DrawCompon:

; 1074 : 				if(count > 1){

  009c9	8b 7d dc	 mov	 edi, DWORD PTR _this$GSCopy$1$[ebp]
$LN35@DrawCompon:
; File C:\Program Files (x86)\Microsoft Visual Studio\2019\Community\VC\Tools\MSVC\14.29.30133\atlmfc\include\afxwin1.inl

; 476  : 	{ ASSERT(m_hDC != NULL); ::FillRect(m_hDC, lpRect, (HBRUSH)pBrush->GetSafeHandle()); }

  009cc	ff b5 ec fe ff
	ff		 push	 DWORD PTR _fourBrush$[ebp+4]
  009d2	8d 45 e0	 lea	 eax, DWORD PTR _rect$22[ebp]
  009d5	50		 push	 eax
  009d6	ff 76 04	 push	 DWORD PTR [esi+4]
  009d9	ff 15 00 00 00
	00		 call	 DWORD PTR __imp__FillRect@12
; File D:\git\src\IBK\IBK_DRFN\ProjSrc\SrcChartEx\ChartOCX\GraphDraw\FundDraw.cpp

; 1079 : 			}

  009df	e9 2f 02 00 00	 jmp	 $LN52@DrawCompon
$LN33@DrawCompon:

; 1080 : 			else if(selectBrush == 5){

  009e4	83 fe 04	 cmp	 esi, 4
  009e7	75 56		 jne	 SHORT $LN36@DrawCompon

; 1081 : 				if(count > 1){

  009e9	83 7d d0 01	 cmp	 DWORD PTR _count$1$[ebp], 1
  009ed	8b 75 d8	 mov	 esi, DWORD PTR _pDC$GSCopy$1$[ebp]
  009f0	7e 32		 jle	 SHORT $LN432@DrawCompon

; 1082 : 					pDC->SelectObject(&pen5);

  009f2	8d 85 30 ff ff
	ff		 lea	 eax, DWORD PTR _pen5$[ebp]
  009f8	8b ce		 mov	 ecx, esi
  009fa	50		 push	 eax
  009fb	e8 00 00 00 00	 call	 ?SelectObject@CDC@@QAEPAVCPen@@PAV2@@Z ; CDC::SelectObject

; 1083 : 					CDraw::DrawLine(pDC, CPoint(beforeDataPt.x + bongWidth, graphDrawingRegion.bottom - linePt), CPoint(rect.left, rect.top));

  00a00	8b 45 c8	 mov	 eax, DWORD PTR _graphDrawingRegion$GSCopy$1$[ebp]
  00a03	ff 75 e4	 push	 DWORD PTR _rect$22[ebp+4]
  00a06	8b 7d dc	 mov	 edi, DWORD PTR _this$GSCopy$1$[ebp]
  00a09	ff 75 e0	 push	 DWORD PTR _rect$22[ebp]
  00a0c	8b 48 0c	 mov	 ecx, DWORD PTR [eax+12]
  00a0f	2b 4d c0	 sub	 ecx, DWORD PTR _linePt$1$[ebp]
  00a12	8b 45 c4	 mov	 eax, DWORD PTR _bongWidth$3$[ebp]
  00a15	03 45 d4	 add	 eax, DWORD PTR _beforeDataPt$1$[ebp]
  00a18	51		 push	 ecx
  00a19	50		 push	 eax
  00a1a	56		 push	 esi
  00a1b	8b cf		 mov	 ecx, edi
  00a1d	e8 00 00 00 00	 call	 ?DrawLine@CDraw@@IAEXPAVCDC@@UtagPOINT@@1@Z ; CDraw::DrawLine
  00a22	eb 03		 jmp	 SHORT $LN38@DrawCompon
$LN432@DrawCompon:

; 1081 : 				if(count > 1){

  00a24	8b 7d dc	 mov	 edi, DWORD PTR _this$GSCopy$1$[ebp]
$LN38@DrawCompon:
; File C:\Program Files (x86)\Microsoft Visual Studio\2019\Community\VC\Tools\MSVC\14.29.30133\atlmfc\include\afxwin1.inl

; 476  : 	{ ASSERT(m_hDC != NULL); ::FillRect(m_hDC, lpRect, (HBRUSH)pBrush->GetSafeHandle()); }

  00a27	ff b5 f4 fe ff
	ff		 push	 DWORD PTR _fiveBrush$[ebp+4]
  00a2d	8d 45 e0	 lea	 eax, DWORD PTR _rect$22[ebp]
  00a30	50		 push	 eax
  00a31	ff 76 04	 push	 DWORD PTR [esi+4]
  00a34	ff 15 00 00 00
	00		 call	 DWORD PTR __imp__FillRect@12
; File D:\git\src\IBK\IBK_DRFN\ProjSrc\SrcChartEx\ChartOCX\GraphDraw\FundDraw.cpp

; 1086 : 			}

  00a3a	e9 d4 01 00 00	 jmp	 $LN52@DrawCompon
$LN36@DrawCompon:

; 1087 : 			else if(selectBrush == 6){

  00a3f	83 fe 05	 cmp	 esi, 5
  00a42	75 56		 jne	 SHORT $LN39@DrawCompon

; 1088 : 				if(count > 1){

  00a44	83 7d d0 01	 cmp	 DWORD PTR _count$1$[ebp], 1
  00a48	8b 75 d8	 mov	 esi, DWORD PTR _pDC$GSCopy$1$[ebp]
  00a4b	7e 32		 jle	 SHORT $LN431@DrawCompon

; 1089 : 					pDC->SelectObject(&pen6);

  00a4d	8d 85 58 ff ff
	ff		 lea	 eax, DWORD PTR _pen6$[ebp]
  00a53	8b ce		 mov	 ecx, esi
  00a55	50		 push	 eax
  00a56	e8 00 00 00 00	 call	 ?SelectObject@CDC@@QAEPAVCPen@@PAV2@@Z ; CDC::SelectObject

; 1090 : 					CDraw::DrawLine(pDC, CPoint(beforeDataPt.x + bongWidth, graphDrawingRegion.bottom - linePt), CPoint(rect.left, rect.top));

  00a5b	8b 45 c8	 mov	 eax, DWORD PTR _graphDrawingRegion$GSCopy$1$[ebp]
  00a5e	ff 75 e4	 push	 DWORD PTR _rect$22[ebp+4]
  00a61	8b 7d dc	 mov	 edi, DWORD PTR _this$GSCopy$1$[ebp]
  00a64	ff 75 e0	 push	 DWORD PTR _rect$22[ebp]
  00a67	8b 48 0c	 mov	 ecx, DWORD PTR [eax+12]
  00a6a	2b 4d c0	 sub	 ecx, DWORD PTR _linePt$1$[ebp]
  00a6d	8b 45 c4	 mov	 eax, DWORD PTR _bongWidth$3$[ebp]
  00a70	03 45 d4	 add	 eax, DWORD PTR _beforeDataPt$1$[ebp]
  00a73	51		 push	 ecx
  00a74	50		 push	 eax
  00a75	56		 push	 esi
  00a76	8b cf		 mov	 ecx, edi
  00a78	e8 00 00 00 00	 call	 ?DrawLine@CDraw@@IAEXPAVCDC@@UtagPOINT@@1@Z ; CDraw::DrawLine
  00a7d	eb 03		 jmp	 SHORT $LN41@DrawCompon
$LN431@DrawCompon:

; 1088 : 				if(count > 1){

  00a7f	8b 7d dc	 mov	 edi, DWORD PTR _this$GSCopy$1$[ebp]
$LN41@DrawCompon:
; File C:\Program Files (x86)\Microsoft Visual Studio\2019\Community\VC\Tools\MSVC\14.29.30133\atlmfc\include\afxwin1.inl

; 476  : 	{ ASSERT(m_hDC != NULL); ::FillRect(m_hDC, lpRect, (HBRUSH)pBrush->GetSafeHandle()); }

  00a82	ff b5 fc fe ff
	ff		 push	 DWORD PTR _sixBrush$[ebp+4]
  00a88	8d 45 e0	 lea	 eax, DWORD PTR _rect$22[ebp]
  00a8b	50		 push	 eax
  00a8c	ff 76 04	 push	 DWORD PTR [esi+4]
  00a8f	ff 15 00 00 00
	00		 call	 DWORD PTR __imp__FillRect@12
; File D:\git\src\IBK\IBK_DRFN\ProjSrc\SrcChartEx\ChartOCX\GraphDraw\FundDraw.cpp

; 1093 : 			}

  00a95	e9 79 01 00 00	 jmp	 $LN52@DrawCompon
$LN39@DrawCompon:

; 1094 : 			else if(selectBrush == 7){

  00a9a	83 fe 06	 cmp	 esi, 6
  00a9d	75 56		 jne	 SHORT $LN42@DrawCompon

; 1095 : 				if(count > 1){

  00a9f	83 7d d0 01	 cmp	 DWORD PTR _count$1$[ebp], 1
  00aa3	8b 75 d8	 mov	 esi, DWORD PTR _pDC$GSCopy$1$[ebp]
  00aa6	7e 32		 jle	 SHORT $LN430@DrawCompon

; 1096 : 					pDC->SelectObject(&pen7);

  00aa8	8d 85 60 ff ff
	ff		 lea	 eax, DWORD PTR _pen7$[ebp]
  00aae	8b ce		 mov	 ecx, esi
  00ab0	50		 push	 eax
  00ab1	e8 00 00 00 00	 call	 ?SelectObject@CDC@@QAEPAVCPen@@PAV2@@Z ; CDC::SelectObject

; 1097 : 					CDraw::DrawLine(pDC, CPoint(beforeDataPt.x + bongWidth, graphDrawingRegion.bottom - linePt), CPoint(rect.left, rect.top));

  00ab6	8b 45 c8	 mov	 eax, DWORD PTR _graphDrawingRegion$GSCopy$1$[ebp]
  00ab9	ff 75 e4	 push	 DWORD PTR _rect$22[ebp+4]
  00abc	8b 7d dc	 mov	 edi, DWORD PTR _this$GSCopy$1$[ebp]
  00abf	ff 75 e0	 push	 DWORD PTR _rect$22[ebp]
  00ac2	8b 48 0c	 mov	 ecx, DWORD PTR [eax+12]
  00ac5	2b 4d c0	 sub	 ecx, DWORD PTR _linePt$1$[ebp]
  00ac8	8b 45 c4	 mov	 eax, DWORD PTR _bongWidth$3$[ebp]
  00acb	03 45 d4	 add	 eax, DWORD PTR _beforeDataPt$1$[ebp]
  00ace	51		 push	 ecx
  00acf	50		 push	 eax
  00ad0	56		 push	 esi
  00ad1	8b cf		 mov	 ecx, edi
  00ad3	e8 00 00 00 00	 call	 ?DrawLine@CDraw@@IAEXPAVCDC@@UtagPOINT@@1@Z ; CDraw::DrawLine
  00ad8	eb 03		 jmp	 SHORT $LN44@DrawCompon
$LN430@DrawCompon:

; 1095 : 				if(count > 1){

  00ada	8b 7d dc	 mov	 edi, DWORD PTR _this$GSCopy$1$[ebp]
$LN44@DrawCompon:
; File C:\Program Files (x86)\Microsoft Visual Studio\2019\Community\VC\Tools\MSVC\14.29.30133\atlmfc\include\afxwin1.inl

; 476  : 	{ ASSERT(m_hDC != NULL); ::FillRect(m_hDC, lpRect, (HBRUSH)pBrush->GetSafeHandle()); }

  00add	ff b5 04 ff ff
	ff		 push	 DWORD PTR _sevenBrush$[ebp+4]
  00ae3	8d 45 e0	 lea	 eax, DWORD PTR _rect$22[ebp]
  00ae6	50		 push	 eax
  00ae7	ff 76 04	 push	 DWORD PTR [esi+4]
  00aea	ff 15 00 00 00
	00		 call	 DWORD PTR __imp__FillRect@12
; File D:\git\src\IBK\IBK_DRFN\ProjSrc\SrcChartEx\ChartOCX\GraphDraw\FundDraw.cpp

; 1100 : 			}

  00af0	e9 1e 01 00 00	 jmp	 $LN52@DrawCompon
$LN42@DrawCompon:

; 1101 : 			else if(selectBrush == 8){

  00af5	83 fe 07	 cmp	 esi, 7
  00af8	75 56		 jne	 SHORT $LN45@DrawCompon

; 1102 : 				if(count > 1){

  00afa	83 7d d0 01	 cmp	 DWORD PTR _count$1$[ebp], 1
  00afe	8b 75 d8	 mov	 esi, DWORD PTR _pDC$GSCopy$1$[ebp]
  00b01	7e 32		 jle	 SHORT $LN429@DrawCompon

; 1103 : 					pDC->SelectObject(&pen8);

  00b03	8d 85 68 ff ff
	ff		 lea	 eax, DWORD PTR _pen8$[ebp]
  00b09	8b ce		 mov	 ecx, esi
  00b0b	50		 push	 eax
  00b0c	e8 00 00 00 00	 call	 ?SelectObject@CDC@@QAEPAVCPen@@PAV2@@Z ; CDC::SelectObject

; 1104 : 					CDraw::DrawLine(pDC, CPoint(beforeDataPt.x + bongWidth, graphDrawingRegion.bottom - linePt), CPoint(rect.left, rect.top));

  00b11	8b 45 c8	 mov	 eax, DWORD PTR _graphDrawingRegion$GSCopy$1$[ebp]
  00b14	ff 75 e4	 push	 DWORD PTR _rect$22[ebp+4]
  00b17	8b 7d dc	 mov	 edi, DWORD PTR _this$GSCopy$1$[ebp]
  00b1a	ff 75 e0	 push	 DWORD PTR _rect$22[ebp]
  00b1d	8b 48 0c	 mov	 ecx, DWORD PTR [eax+12]
  00b20	2b 4d c0	 sub	 ecx, DWORD PTR _linePt$1$[ebp]
  00b23	8b 45 c4	 mov	 eax, DWORD PTR _bongWidth$3$[ebp]
  00b26	03 45 d4	 add	 eax, DWORD PTR _beforeDataPt$1$[ebp]
  00b29	51		 push	 ecx
  00b2a	50		 push	 eax
  00b2b	56		 push	 esi
  00b2c	8b cf		 mov	 ecx, edi
  00b2e	e8 00 00 00 00	 call	 ?DrawLine@CDraw@@IAEXPAVCDC@@UtagPOINT@@1@Z ; CDraw::DrawLine
  00b33	eb 03		 jmp	 SHORT $LN47@DrawCompon
$LN429@DrawCompon:

; 1102 : 				if(count > 1){

  00b35	8b 7d dc	 mov	 edi, DWORD PTR _this$GSCopy$1$[ebp]
$LN47@DrawCompon:
; File C:\Program Files (x86)\Microsoft Visual Studio\2019\Community\VC\Tools\MSVC\14.29.30133\atlmfc\include\afxwin1.inl

; 476  : 	{ ASSERT(m_hDC != NULL); ::FillRect(m_hDC, lpRect, (HBRUSH)pBrush->GetSafeHandle()); }

  00b38	ff b5 0c ff ff
	ff		 push	 DWORD PTR _eightBrush$[ebp+4]
  00b3e	8d 45 e0	 lea	 eax, DWORD PTR _rect$22[ebp]
  00b41	50		 push	 eax
  00b42	ff 76 04	 push	 DWORD PTR [esi+4]
  00b45	ff 15 00 00 00
	00		 call	 DWORD PTR __imp__FillRect@12
; File D:\git\src\IBK\IBK_DRFN\ProjSrc\SrcChartEx\ChartOCX\GraphDraw\FundDraw.cpp

; 1107 : 			}

  00b4b	e9 c3 00 00 00	 jmp	 $LN52@DrawCompon
$LN45@DrawCompon:

; 1108 : 			else if(selectBrush == 9){

  00b50	83 fe 08	 cmp	 esi, 8
  00b53	75 53		 jne	 SHORT $LN48@DrawCompon

; 1109 : 				if(count > 1){

  00b55	83 7d d0 01	 cmp	 DWORD PTR _count$1$[ebp], 1
  00b59	8b 75 d8	 mov	 esi, DWORD PTR _pDC$GSCopy$1$[ebp]
  00b5c	7e 32		 jle	 SHORT $LN428@DrawCompon

; 1110 : 					pDC->SelectObject(&pen9);

  00b5e	8d 85 70 ff ff
	ff		 lea	 eax, DWORD PTR _pen9$[ebp]
  00b64	8b ce		 mov	 ecx, esi
  00b66	50		 push	 eax
  00b67	e8 00 00 00 00	 call	 ?SelectObject@CDC@@QAEPAVCPen@@PAV2@@Z ; CDC::SelectObject

; 1111 : 					CDraw::DrawLine(pDC, CPoint(beforeDataPt.x + bongWidth, graphDrawingRegion.bottom - linePt), CPoint(rect.left, rect.top));

  00b6c	8b 45 c8	 mov	 eax, DWORD PTR _graphDrawingRegion$GSCopy$1$[ebp]
  00b6f	ff 75 e4	 push	 DWORD PTR _rect$22[ebp+4]
  00b72	8b 7d dc	 mov	 edi, DWORD PTR _this$GSCopy$1$[ebp]
  00b75	ff 75 e0	 push	 DWORD PTR _rect$22[ebp]
  00b78	8b 48 0c	 mov	 ecx, DWORD PTR [eax+12]
  00b7b	2b 4d c0	 sub	 ecx, DWORD PTR _linePt$1$[ebp]
  00b7e	8b 45 c4	 mov	 eax, DWORD PTR _bongWidth$3$[ebp]
  00b81	03 45 d4	 add	 eax, DWORD PTR _beforeDataPt$1$[ebp]
  00b84	51		 push	 ecx
  00b85	50		 push	 eax
  00b86	56		 push	 esi
  00b87	8b cf		 mov	 ecx, edi
  00b89	e8 00 00 00 00	 call	 ?DrawLine@CDraw@@IAEXPAVCDC@@UtagPOINT@@1@Z ; CDraw::DrawLine
  00b8e	eb 03		 jmp	 SHORT $LN50@DrawCompon
$LN428@DrawCompon:

; 1109 : 				if(count > 1){

  00b90	8b 7d dc	 mov	 edi, DWORD PTR _this$GSCopy$1$[ebp]
$LN50@DrawCompon:
; File C:\Program Files (x86)\Microsoft Visual Studio\2019\Community\VC\Tools\MSVC\14.29.30133\atlmfc\include\afxwin1.inl

; 476  : 	{ ASSERT(m_hDC != NULL); ::FillRect(m_hDC, lpRect, (HBRUSH)pBrush->GetSafeHandle()); }

  00b93	ff b5 14 ff ff
	ff		 push	 DWORD PTR _nineBrush$[ebp+4]
  00b99	8d 45 e0	 lea	 eax, DWORD PTR _rect$22[ebp]
  00b9c	50		 push	 eax
  00b9d	ff 76 04	 push	 DWORD PTR [esi+4]
  00ba0	ff 15 00 00 00
	00		 call	 DWORD PTR __imp__FillRect@12
; File D:\git\src\IBK\IBK_DRFN\ProjSrc\SrcChartEx\ChartOCX\GraphDraw\FundDraw.cpp

; 1114 : 			}

  00ba6	eb 6b		 jmp	 SHORT $LN52@DrawCompon
$LN48@DrawCompon:

; 1115 : 			else if(selectBrush == 10){

  00ba8	83 fe 09	 cmp	 esi, 9
  00bab	8b 75 d8	 mov	 esi, DWORD PTR _pDC$GSCopy$1$[ebp]
  00bae	75 50		 jne	 SHORT $LN51@DrawCompon

; 1116 : 				if(count > 1){

  00bb0	83 7d d0 01	 cmp	 DWORD PTR _count$1$[ebp], 1
  00bb4	7e 32		 jle	 SHORT $LN427@DrawCompon

; 1117 : 					pDC->SelectObject(&pen10);

  00bb6	8d 85 78 ff ff
	ff		 lea	 eax, DWORD PTR _pen10$[ebp]
  00bbc	8b ce		 mov	 ecx, esi
  00bbe	50		 push	 eax
  00bbf	e8 00 00 00 00	 call	 ?SelectObject@CDC@@QAEPAVCPen@@PAV2@@Z ; CDC::SelectObject

; 1118 : 					CDraw::DrawLine(pDC, CPoint(beforeDataPt.x + bongWidth, graphDrawingRegion.bottom - linePt), CPoint(rect.left, rect.top));

  00bc4	8b 45 c8	 mov	 eax, DWORD PTR _graphDrawingRegion$GSCopy$1$[ebp]
  00bc7	ff 75 e4	 push	 DWORD PTR _rect$22[ebp+4]
  00bca	8b 7d dc	 mov	 edi, DWORD PTR _this$GSCopy$1$[ebp]
  00bcd	ff 75 e0	 push	 DWORD PTR _rect$22[ebp]
  00bd0	8b 48 0c	 mov	 ecx, DWORD PTR [eax+12]
  00bd3	2b 4d c0	 sub	 ecx, DWORD PTR _linePt$1$[ebp]
  00bd6	8b 45 c4	 mov	 eax, DWORD PTR _bongWidth$3$[ebp]
  00bd9	03 45 d4	 add	 eax, DWORD PTR _beforeDataPt$1$[ebp]
  00bdc	51		 push	 ecx
  00bdd	50		 push	 eax
  00bde	56		 push	 esi
  00bdf	8b cf		 mov	 ecx, edi
  00be1	e8 00 00 00 00	 call	 ?DrawLine@CDraw@@IAEXPAVCDC@@UtagPOINT@@1@Z ; CDraw::DrawLine
  00be6	eb 03		 jmp	 SHORT $LN53@DrawCompon
$LN427@DrawCompon:

; 1116 : 				if(count > 1){

  00be8	8b 7d dc	 mov	 edi, DWORD PTR _this$GSCopy$1$[ebp]
$LN53@DrawCompon:
; File C:\Program Files (x86)\Microsoft Visual Studio\2019\Community\VC\Tools\MSVC\14.29.30133\atlmfc\include\afxwin1.inl

; 476  : 	{ ASSERT(m_hDC != NULL); ::FillRect(m_hDC, lpRect, (HBRUSH)pBrush->GetSafeHandle()); }

  00beb	ff b5 1c ff ff
	ff		 push	 DWORD PTR _tenBrush$[ebp+4]
  00bf1	8d 45 e0	 lea	 eax, DWORD PTR _rect$22[ebp]
  00bf4	50		 push	 eax
  00bf5	ff 76 04	 push	 DWORD PTR [esi+4]
  00bf8	ff 15 00 00 00
	00		 call	 DWORD PTR __imp__FillRect@12
; File D:\git\src\IBK\IBK_DRFN\ProjSrc\SrcChartEx\ChartOCX\GraphDraw\FundDraw.cpp

; 1121 : 			}

  00bfe	eb 13		 jmp	 SHORT $LN52@DrawCompon
$LN51@DrawCompon:
; File C:\Program Files (x86)\Microsoft Visual Studio\2019\Community\VC\Tools\MSVC\14.29.30133\atlmfc\include\afxwin1.inl

; 476  : 	{ ASSERT(m_hDC != NULL); ::FillRect(m_hDC, lpRect, (HBRUSH)pBrush->GetSafeHandle()); }

  00c00	ff 75 84	 push	 DWORD PTR _firstBrush$[ebp+4]
  00c03	8d 45 e0	 lea	 eax, DWORD PTR _rect$22[ebp]
  00c06	50		 push	 eax
  00c07	ff 76 04	 push	 DWORD PTR [esi+4]
  00c0a	ff 15 00 00 00
	00		 call	 DWORD PTR __imp__FillRect@12
  00c10	8b 7d dc	 mov	 edi, DWORD PTR _this$GSCopy$1$[ebp]
$LN52@DrawCompon:
; File C:\Program Files (x86)\Microsoft Visual Studio\2019\Community\VC\Tools\MSVC\14.29.30133\atlmfc\include\atltypes.h

; 581  : 	return bottom - top;

  00c13	8b 45 ec	 mov	 eax, DWORD PTR _rect$22[ebp+12]
  00c16	8b 4d e4	 mov	 ecx, DWORD PTR _rect$22[ebp+4]
  00c19	2b c1		 sub	 eax, ecx
; File D:\git\src\IBK\IBK_DRFN\ProjSrc\SrcChartEx\ChartOCX\GraphDraw\FundDraw.cpp

; 1125 : 			if(rect.Height() <= 1 && rect.Height() > 0)

  00c1b	83 f8 01	 cmp	 eax, 1
  00c1e	7f 14		 jg	 SHORT $LN54@DrawCompon
  00c20	85 c0		 test	 eax, eax
  00c22	7e 10		 jle	 SHORT $LN54@DrawCompon

; 1126 : 				CDraw::DrawLine(pDC, CPoint(rect.left, rect.top), CPoint(rect.right, rect.top));

  00c24	51		 push	 ecx
  00c25	ff 75 e8	 push	 DWORD PTR _rect$22[ebp+8]
  00c28	51		 push	 ecx
  00c29	ff 75 e0	 push	 DWORD PTR _rect$22[ebp]
  00c2c	8b cf		 mov	 ecx, edi
  00c2e	56		 push	 esi
  00c2f	e8 00 00 00 00	 call	 ?DrawLine@CDraw@@IAEXPAVCDC@@UtagPOINT@@1@Z ; CDraw::DrawLine
$LN54@DrawCompon:

; 1127 : 		}

  00c34	8d 4d ac	 lea	 ecx, DWORD PTR _strData$15[ebp]
  00c37	c6 45 fc 15	 mov	 BYTE PTR __$EHRec$[ebp+8], 21 ; 00000015H
  00c3b	ff 15 00 00 00
	00		 call	 DWORD PTR __imp_??1?$CStringT@DV?$StrTraitMFC_DLL@DV?$ChTraitsCRT@D@ATL@@@@@ATL@@QAE@XZ
  00c41	8b 7d b8	 mov	 edi, DWORD PTR tv3261[ebp]
  00c44	89 7d 98	 mov	 DWORD PTR _j$1$[ebp], edi
  00c47	3b 7d 90	 cmp	 edi, DWORD PTR _packetCount$1$[ebp]
  00c4a	0f 8c d4 f8 ff
	ff		 jl	 $LL10@DrawCompon
$LN9@DrawCompon:

; 1128 : 		pDC->SelectObject(GetStockObject(NULL_BRUSH));

  00c50	6a 05		 push	 5
  00c52	ff 15 00 00 00
	00		 call	 DWORD PTR __imp__GetStockObject@4
; File C:\Program Files (x86)\Microsoft Visual Studio\2019\Community\VC\Tools\MSVC\14.29.30133\atlmfc\include\afxwin1.inl

; 366  : 		return (hObject != NULL) ? ::SelectObject(m_hDC, hObject) : NULL; }

  00c58	85 c0		 test	 eax, eax
  00c5a	74 0a		 je	 SHORT $LN316@DrawCompon
  00c5c	50		 push	 eax
  00c5d	ff 76 04	 push	 DWORD PTR [esi+4]
  00c60	ff 15 00 00 00
	00		 call	 DWORD PTR __imp__SelectObject@8
$LN316@DrawCompon:
; File D:\git\src\IBK\IBK_DRFN\ProjSrc\SrcChartEx\ChartOCX\GraphDraw\FundDraw.cpp

; 1129 : 		pDC->SelectObject(&pen);

  00c66	8d 45 88	 lea	 eax, DWORD PTR _pen$[ebp]
  00c69	8b ce		 mov	 ecx, esi
  00c6b	50		 push	 eax
  00c6c	e8 00 00 00 00	 call	 ?SelectObject@CDC@@QAEPAVCPen@@PAV2@@Z ; CDC::SelectObject
  00c71	83 6d 20 01	 sub	 DWORD PTR _dataRealEnd$[ebp], 1
  00c75	8b 45 d0	 mov	 eax, DWORD PTR _count$1$[ebp]
  00c78	0f 85 62 f8 ff
	ff		 jne	 $LL7@DrawCompon
$LN6@DrawCompon:

; 1130 : 	//	CDraw::DrawRectangle(pDC, CRect(DataPt.x - bongWidth - lineThickness/2, graphDrawingRegion.top, DataPt.x + bongWidth + lineThickness, graphDrawingRegion.bottom));
; 1131 : 	}
; 1132 : 	pDC->SelectObject(pOldBrush);

  00c7e	ff b5 a4 fe ff
	ff		 push	 DWORD PTR _pOldBrush$1$[ebp]
  00c84	8b ce		 mov	 ecx, esi
  00c86	e8 00 00 00 00	 call	 ?SelectObject@CDC@@QAEPAVCBrush@@PAV2@@Z ; CDC::SelectObject

; 1133 : 	pDC->SelectObject(pOldPen);

  00c8b	ff b5 94 fe ff
	ff		 push	 DWORD PTR _pOldPen$1$[ebp]
  00c91	8b ce		 mov	 ecx, esi
  00c93	e8 00 00 00 00	 call	 ?SelectObject@CDC@@QAEPAVCPen@@PAV2@@Z ; CDC::SelectObject

; 1134 : 
; 1135 : 	firstBrush.DeleteObject();

  00c98	8d 4d 80	 lea	 ecx, DWORD PTR _firstBrush$[ebp]
  00c9b	e8 00 00 00 00	 call	 ?DeleteObject@CGdiObject@@QAEHXZ ; CGdiObject::DeleteObject

; 1136 : 	secondBrush.DeleteObject();

  00ca0	8d 8d d8 fe ff
	ff		 lea	 ecx, DWORD PTR _secondBrush$[ebp]
  00ca6	e8 00 00 00 00	 call	 ?DeleteObject@CGdiObject@@QAEHXZ ; CGdiObject::DeleteObject

; 1137 : 	thirdBrush.DeleteObject();

  00cab	8d 8d e0 fe ff
	ff		 lea	 ecx, DWORD PTR _thirdBrush$[ebp]
  00cb1	e8 00 00 00 00	 call	 ?DeleteObject@CGdiObject@@QAEHXZ ; CGdiObject::DeleteObject

; 1138 : 	fourBrush.DeleteObject();

  00cb6	8d 8d e8 fe ff
	ff		 lea	 ecx, DWORD PTR _fourBrush$[ebp]
  00cbc	e8 00 00 00 00	 call	 ?DeleteObject@CGdiObject@@QAEHXZ ; CGdiObject::DeleteObject

; 1139 : 	fiveBrush.DeleteObject();

  00cc1	8d 8d f0 fe ff
	ff		 lea	 ecx, DWORD PTR _fiveBrush$[ebp]
  00cc7	e8 00 00 00 00	 call	 ?DeleteObject@CGdiObject@@QAEHXZ ; CGdiObject::DeleteObject

; 1140 : 	sixBrush.DeleteObject();

  00ccc	8d 8d f8 fe ff
	ff		 lea	 ecx, DWORD PTR _sixBrush$[ebp]
  00cd2	e8 00 00 00 00	 call	 ?DeleteObject@CGdiObject@@QAEHXZ ; CGdiObject::DeleteObject

; 1141 : 	sevenBrush.DeleteObject();

  00cd7	8d 8d 00 ff ff
	ff		 lea	 ecx, DWORD PTR _sevenBrush$[ebp]
  00cdd	e8 00 00 00 00	 call	 ?DeleteObject@CGdiObject@@QAEHXZ ; CGdiObject::DeleteObject

; 1142 : 	eightBrush.DeleteObject();

  00ce2	8d 8d 08 ff ff
	ff		 lea	 ecx, DWORD PTR _eightBrush$[ebp]
  00ce8	e8 00 00 00 00	 call	 ?DeleteObject@CGdiObject@@QAEHXZ ; CGdiObject::DeleteObject

; 1143 : 	nineBrush.DeleteObject();

  00ced	8d 8d 10 ff ff
	ff		 lea	 ecx, DWORD PTR _nineBrush$[ebp]
  00cf3	e8 00 00 00 00	 call	 ?DeleteObject@CGdiObject@@QAEHXZ ; CGdiObject::DeleteObject

; 1144 : 	tenBrush.DeleteObject();

  00cf8	8d 8d 18 ff ff
	ff		 lea	 ecx, DWORD PTR _tenBrush$[ebp]
  00cfe	e8 00 00 00 00	 call	 ?DeleteObject@CGdiObject@@QAEHXZ ; CGdiObject::DeleteObject

; 1145 : 
; 1146 : 	pen.DeleteObject();

  00d03	8d 4d 88	 lea	 ecx, DWORD PTR _pen$[ebp]
  00d06	e8 00 00 00 00	 call	 ?DeleteObject@CGdiObject@@QAEHXZ ; CGdiObject::DeleteObject

; 1147 : 	pen1.DeleteObject();

  00d0b	8d 8d 38 ff ff
	ff		 lea	 ecx, DWORD PTR _pen1$[ebp]
  00d11	e8 00 00 00 00	 call	 ?DeleteObject@CGdiObject@@QAEHXZ ; CGdiObject::DeleteObject

; 1148 : 	pen2.DeleteObject();

  00d16	8d 8d 40 ff ff
	ff		 lea	 ecx, DWORD PTR _pen2$[ebp]
  00d1c	e8 00 00 00 00	 call	 ?DeleteObject@CGdiObject@@QAEHXZ ; CGdiObject::DeleteObject

; 1149 : 	pen3.DeleteObject();

  00d21	8d 8d 48 ff ff
	ff		 lea	 ecx, DWORD PTR _pen3$[ebp]
  00d27	e8 00 00 00 00	 call	 ?DeleteObject@CGdiObject@@QAEHXZ ; CGdiObject::DeleteObject

; 1150 : 	pen4.DeleteObject();

  00d2c	8d 8d 50 ff ff
	ff		 lea	 ecx, DWORD PTR _pen4$[ebp]
  00d32	e8 00 00 00 00	 call	 ?DeleteObject@CGdiObject@@QAEHXZ ; CGdiObject::DeleteObject

; 1151 : 	pen5.DeleteObject();

  00d37	8d 8d 30 ff ff
	ff		 lea	 ecx, DWORD PTR _pen5$[ebp]
  00d3d	e8 00 00 00 00	 call	 ?DeleteObject@CGdiObject@@QAEHXZ ; CGdiObject::DeleteObject

; 1152 : 	pen6.DeleteObject();

  00d42	8d 8d 58 ff ff
	ff		 lea	 ecx, DWORD PTR _pen6$[ebp]
  00d48	e8 00 00 00 00	 call	 ?DeleteObject@CGdiObject@@QAEHXZ ; CGdiObject::DeleteObject

; 1153 : 	pen7.DeleteObject();

  00d4d	8d 8d 60 ff ff
	ff		 lea	 ecx, DWORD PTR _pen7$[ebp]
  00d53	e8 00 00 00 00	 call	 ?DeleteObject@CGdiObject@@QAEHXZ ; CGdiObject::DeleteObject

; 1154 : 	pen8.DeleteObject();

  00d58	8d 8d 68 ff ff
	ff		 lea	 ecx, DWORD PTR _pen8$[ebp]
  00d5e	e8 00 00 00 00	 call	 ?DeleteObject@CGdiObject@@QAEHXZ ; CGdiObject::DeleteObject

; 1155 : 	pen9.DeleteObject();

  00d63	8d 8d 70 ff ff
	ff		 lea	 ecx, DWORD PTR _pen9$[ebp]
  00d69	e8 00 00 00 00	 call	 ?DeleteObject@CGdiObject@@QAEHXZ ; CGdiObject::DeleteObject

; 1156 : 	pen10.DeleteObject();

  00d6e	8d 8d 78 ff ff
	ff		 lea	 ecx, DWORD PTR _pen10$[ebp]
  00d74	e8 00 00 00 00	 call	 ?DeleteObject@CGdiObject@@QAEHXZ ; CGdiObject::DeleteObject
; File C:\Program Files (x86)\Microsoft Visual Studio\2019\Community\VC\Tools\MSVC\14.29.30133\atlmfc\include\afxwin1.inl

; 130  : 	{ }

  00d79	8d 8d 18 ff ff
	ff		 lea	 ecx, DWORD PTR _tenBrush$[ebp]
; File D:\git\src\IBK\IBK_DRFN\ProjSrc\SrcChartEx\ChartOCX\GraphDraw\FundDraw.cpp

; 1157 : 	return true;

  00d7f	c6 45 bf 01	 mov	 BYTE PTR $T21[ebp], 1
; File C:\Program Files (x86)\Microsoft Visual Studio\2019\Community\VC\Tools\MSVC\14.29.30133\atlmfc\include\afxwin1.inl

; 130  : 	{ }

  00d83	c7 85 18 ff ff
	ff 00 00 00 00	 mov	 DWORD PTR _tenBrush$[ebp], OFFSET ??_7CBrush@@6B@
  00d8d	e8 00 00 00 00	 call	 ??1CGdiObject@@UAE@XZ	; CGdiObject::~CGdiObject
  00d92	8d 8d 10 ff ff
	ff		 lea	 ecx, DWORD PTR _nineBrush$[ebp]
  00d98	c7 85 10 ff ff
	ff 00 00 00 00	 mov	 DWORD PTR _nineBrush$[ebp], OFFSET ??_7CBrush@@6B@
  00da2	e8 00 00 00 00	 call	 ??1CGdiObject@@UAE@XZ	; CGdiObject::~CGdiObject
  00da7	8d 8d 08 ff ff
	ff		 lea	 ecx, DWORD PTR _eightBrush$[ebp]
  00dad	c7 85 08 ff ff
	ff 00 00 00 00	 mov	 DWORD PTR _eightBrush$[ebp], OFFSET ??_7CBrush@@6B@
  00db7	e8 00 00 00 00	 call	 ??1CGdiObject@@UAE@XZ	; CGdiObject::~CGdiObject
  00dbc	8d 8d 00 ff ff
	ff		 lea	 ecx, DWORD PTR _sevenBrush$[ebp]
  00dc2	c7 85 00 ff ff
	ff 00 00 00 00	 mov	 DWORD PTR _sevenBrush$[ebp], OFFSET ??_7CBrush@@6B@
  00dcc	e8 00 00 00 00	 call	 ??1CGdiObject@@UAE@XZ	; CGdiObject::~CGdiObject
  00dd1	8d 8d f8 fe ff
	ff		 lea	 ecx, DWORD PTR _sixBrush$[ebp]
  00dd7	c7 85 f8 fe ff
	ff 00 00 00 00	 mov	 DWORD PTR _sixBrush$[ebp], OFFSET ??_7CBrush@@6B@
  00de1	e8 00 00 00 00	 call	 ??1CGdiObject@@UAE@XZ	; CGdiObject::~CGdiObject
  00de6	8d 8d f0 fe ff
	ff		 lea	 ecx, DWORD PTR _fiveBrush$[ebp]
  00dec	c7 85 f0 fe ff
	ff 00 00 00 00	 mov	 DWORD PTR _fiveBrush$[ebp], OFFSET ??_7CBrush@@6B@
  00df6	e8 00 00 00 00	 call	 ??1CGdiObject@@UAE@XZ	; CGdiObject::~CGdiObject
  00dfb	8d 8d e8 fe ff
	ff		 lea	 ecx, DWORD PTR _fourBrush$[ebp]
  00e01	c7 85 e8 fe ff
	ff 00 00 00 00	 mov	 DWORD PTR _fourBrush$[ebp], OFFSET ??_7CBrush@@6B@
  00e0b	e8 00 00 00 00	 call	 ??1CGdiObject@@UAE@XZ	; CGdiObject::~CGdiObject
  00e10	8d 8d e0 fe ff
	ff		 lea	 ecx, DWORD PTR _thirdBrush$[ebp]
  00e16	c7 85 e0 fe ff
	ff 00 00 00 00	 mov	 DWORD PTR _thirdBrush$[ebp], OFFSET ??_7CBrush@@6B@
  00e20	e8 00 00 00 00	 call	 ??1CGdiObject@@UAE@XZ	; CGdiObject::~CGdiObject
  00e25	8d 8d d8 fe ff
	ff		 lea	 ecx, DWORD PTR _secondBrush$[ebp]
  00e2b	c7 85 d8 fe ff
	ff 00 00 00 00	 mov	 DWORD PTR _secondBrush$[ebp], OFFSET ??_7CBrush@@6B@
  00e35	e8 00 00 00 00	 call	 ??1CGdiObject@@UAE@XZ	; CGdiObject::~CGdiObject
  00e3a	8d 4d 80	 lea	 ecx, DWORD PTR _firstBrush$[ebp]
  00e3d	c7 45 80 00 00
	00 00		 mov	 DWORD PTR _firstBrush$[ebp], OFFSET ??_7CBrush@@6B@
  00e44	e8 00 00 00 00	 call	 ??1CGdiObject@@UAE@XZ	; CGdiObject::~CGdiObject

; 106  : 	{ }

  00e49	c7 85 78 ff ff
	ff 00 00 00 00	 mov	 DWORD PTR _pen10$[ebp], OFFSET ??_7CPen@@6B@
  00e53	8d 8d 78 ff ff
	ff		 lea	 ecx, DWORD PTR _pen10$[ebp]
  00e59	e8 00 00 00 00	 call	 ??1CGdiObject@@UAE@XZ	; CGdiObject::~CGdiObject
  00e5e	8d 8d 70 ff ff
	ff		 lea	 ecx, DWORD PTR _pen9$[ebp]
  00e64	c7 85 70 ff ff
	ff 00 00 00 00	 mov	 DWORD PTR _pen9$[ebp], OFFSET ??_7CPen@@6B@
  00e6e	e8 00 00 00 00	 call	 ??1CGdiObject@@UAE@XZ	; CGdiObject::~CGdiObject
  00e73	8d 8d 68 ff ff
	ff		 lea	 ecx, DWORD PTR _pen8$[ebp]
  00e79	c7 85 68 ff ff
	ff 00 00 00 00	 mov	 DWORD PTR _pen8$[ebp], OFFSET ??_7CPen@@6B@
  00e83	e8 00 00 00 00	 call	 ??1CGdiObject@@UAE@XZ	; CGdiObject::~CGdiObject
  00e88	8d 8d 60 ff ff
	ff		 lea	 ecx, DWORD PTR _pen7$[ebp]
  00e8e	c7 85 60 ff ff
	ff 00 00 00 00	 mov	 DWORD PTR _pen7$[ebp], OFFSET ??_7CPen@@6B@
  00e98	e8 00 00 00 00	 call	 ??1CGdiObject@@UAE@XZ	; CGdiObject::~CGdiObject
  00e9d	8d 8d 58 ff ff
	ff		 lea	 ecx, DWORD PTR _pen6$[ebp]
  00ea3	c7 85 58 ff ff
	ff 00 00 00 00	 mov	 DWORD PTR _pen6$[ebp], OFFSET ??_7CPen@@6B@
  00ead	e8 00 00 00 00	 call	 ??1CGdiObject@@UAE@XZ	; CGdiObject::~CGdiObject
  00eb2	8d 8d 30 ff ff
	ff		 lea	 ecx, DWORD PTR _pen5$[ebp]
  00eb8	c7 85 30 ff ff
	ff 00 00 00 00	 mov	 DWORD PTR _pen5$[ebp], OFFSET ??_7CPen@@6B@
  00ec2	e8 00 00 00 00	 call	 ??1CGdiObject@@UAE@XZ	; CGdiObject::~CGdiObject
  00ec7	8d 8d 50 ff ff
	ff		 lea	 ecx, DWORD PTR _pen4$[ebp]
  00ecd	c7 85 50 ff ff
	ff 00 00 00 00	 mov	 DWORD PTR _pen4$[ebp], OFFSET ??_7CPen@@6B@
  00ed7	e8 00 00 00 00	 call	 ??1CGdiObject@@UAE@XZ	; CGdiObject::~CGdiObject
  00edc	8d 8d 48 ff ff
	ff		 lea	 ecx, DWORD PTR _pen3$[ebp]
  00ee2	c7 85 48 ff ff
	ff 00 00 00 00	 mov	 DWORD PTR _pen3$[ebp], OFFSET ??_7CPen@@6B@
  00eec	e8 00 00 00 00	 call	 ??1CGdiObject@@UAE@XZ	; CGdiObject::~CGdiObject
  00ef1	8d 8d 40 ff ff
	ff		 lea	 ecx, DWORD PTR _pen2$[ebp]
  00ef7	c7 85 40 ff ff
	ff 00 00 00 00	 mov	 DWORD PTR _pen2$[ebp], OFFSET ??_7CPen@@6B@
  00f01	e8 00 00 00 00	 call	 ??1CGdiObject@@UAE@XZ	; CGdiObject::~CGdiObject
  00f06	8d 8d 38 ff ff
	ff		 lea	 ecx, DWORD PTR _pen1$[ebp]
  00f0c	c7 85 38 ff ff
	ff 00 00 00 00	 mov	 DWORD PTR _pen1$[ebp], OFFSET ??_7CPen@@6B@
  00f16	e8 00 00 00 00	 call	 ??1CGdiObject@@UAE@XZ	; CGdiObject::~CGdiObject
  00f1b	8d 4d 88	 lea	 ecx, DWORD PTR _pen$[ebp]
  00f1e	c7 45 88 00 00
	00 00		 mov	 DWORD PTR _pen$[ebp], OFFSET ??_7CPen@@6B@
  00f25	e8 00 00 00 00	 call	 ??1CGdiObject@@UAE@XZ	; CGdiObject::~CGdiObject
$LN379@DrawCompon:
; File C:\Program Files (x86)\Microsoft Visual Studio\2019\Community\VC\Tools\MSVC\14.29.30133\atlmfc\include\afxtempl.h

; 872  : 	m_pBlocks->FreeDataChain();

  00f2a	8b 8d d0 fe ff
	ff		 mov	 ecx, DWORD PTR _packetPosition$[ebp+20]

; 878  : {

  00f30	c7 45 fc 20 00
	00 00		 mov	 DWORD PTR __$EHRec$[ebp+8], 32 ; 00000020H
  00f37	c7 85 bc fe ff
	ff 00 00 00 00	 mov	 DWORD PTR _packetPosition$[ebp], OFFSET ??_7?$CList@PAU__POSITION@@PAU1@@@6B@

; 870  : 	m_nCount = 0;

  00f41	c7 85 c8 fe ff
	ff 00 00 00 00	 mov	 DWORD PTR _packetPosition$[ebp+12], 0

; 871  : 	m_pNodeHead = m_pNodeTail = m_pNodeFree = NULL;

  00f4b	c7 85 cc fe ff
	ff 00 00 00 00	 mov	 DWORD PTR _packetPosition$[ebp+16], 0
  00f55	c7 85 c4 fe ff
	ff 00 00 00 00	 mov	 DWORD PTR _packetPosition$[ebp+8], 0
  00f5f	c7 85 c0 fe ff
	ff 00 00 00 00	 mov	 DWORD PTR _packetPosition$[ebp+4], 0

; 872  : 	m_pBlocks->FreeDataChain();

  00f69	e8 00 00 00 00	 call	 ?FreeDataChain@CPlex@@QAEXXZ ; CPlex::FreeDataChain
; File D:\git\src\IBK\IBK_DRFN\ProjSrc\SrcChartEx\ChartOCX\GraphDraw\FundDraw.cpp

; 1157 : 	return true;

  00f6e	8a 45 bf	 mov	 al, BYTE PTR $T21[ebp]
$LN1@DrawCompon:

; 1158 : }

  00f71	8b 4d f4	 mov	 ecx, DWORD PTR __$EHRec$[ebp]
  00f74	64 89 0d 00 00
	00 00		 mov	 DWORD PTR fs:0, ecx
  00f7b	59		 pop	 ecx
  00f7c	5f		 pop	 edi
  00f7d	5e		 pop	 esi
  00f7e	8b 4d f0	 mov	 ecx, DWORD PTR __$ArrayPad$[ebp]
  00f81	33 cd		 xor	 ecx, ebp
  00f83	e8 00 00 00 00	 call	 @__security_check_cookie@4
  00f88	8b e5		 mov	 esp, ebp
  00f8a	5d		 pop	 ebp
  00f8b	c2 3c 00	 ret	 60			; 0000003cH
_TEXT	ENDS
;	COMDAT text$x
text$x	SEGMENT
__unwindfunclet$?DrawComponentRatio_Bar_Line@CFundDraw@@AAE_NPAVCDC@@ABVCEtcGraphColor@@ABVCRect@@ABVCGraphColor@@HHHABN4ABV?$CList@PAVCPacket@@PAV1@@@VCPenThickness@@@Z$0:
  00000	8d 8d bc fe ff
	ff		 lea	 ecx, DWORD PTR _packetPosition$[ebp]
  00006	e9 00 00 00 00	 jmp	 ??1?$CList@PAU__POSITION@@PAU1@@@UAE@XZ ; CList<__POSITION *,__POSITION *>::~CList<__POSITION *,__POSITION *>
__unwindfunclet$?DrawComponentRatio_Bar_Line@CFundDraw@@AAE_NPAVCDC@@ABVCEtcGraphColor@@ABVCRect@@ABVCGraphColor@@HHHABN4ABV?$CList@PAVCPacket@@PAV1@@@VCPenThickness@@@Z$1:
  0000b	8d 4d 88	 lea	 ecx, DWORD PTR _pen$[ebp]
  0000e	e9 00 00 00 00	 jmp	 ??1CPen@@UAE@XZ		; CPen::~CPen
__unwindfunclet$?DrawComponentRatio_Bar_Line@CFundDraw@@AAE_NPAVCDC@@ABVCEtcGraphColor@@ABVCRect@@ABVCGraphColor@@HHHABN4ABV?$CList@PAVCPacket@@PAV1@@@VCPenThickness@@@Z$2:
  00013	8d 8d 38 ff ff
	ff		 lea	 ecx, DWORD PTR _pen1$[ebp]
  00019	e9 00 00 00 00	 jmp	 ??1CPen@@UAE@XZ		; CPen::~CPen
__unwindfunclet$?DrawComponentRatio_Bar_Line@CFundDraw@@AAE_NPAVCDC@@ABVCEtcGraphColor@@ABVCRect@@ABVCGraphColor@@HHHABN4ABV?$CList@PAVCPacket@@PAV1@@@VCPenThickness@@@Z$3:
  0001e	8d 8d 40 ff ff
	ff		 lea	 ecx, DWORD PTR _pen2$[ebp]
  00024	e9 00 00 00 00	 jmp	 ??1CPen@@UAE@XZ		; CPen::~CPen
__unwindfunclet$?DrawComponentRatio_Bar_Line@CFundDraw@@AAE_NPAVCDC@@ABVCEtcGraphColor@@ABVCRect@@ABVCGraphColor@@HHHABN4ABV?$CList@PAVCPacket@@PAV1@@@VCPenThickness@@@Z$4:
  00029	8d 8d 48 ff ff
	ff		 lea	 ecx, DWORD PTR _pen3$[ebp]
  0002f	e9 00 00 00 00	 jmp	 ??1CPen@@UAE@XZ		; CPen::~CPen
__unwindfunclet$?DrawComponentRatio_Bar_Line@CFundDraw@@AAE_NPAVCDC@@ABVCEtcGraphColor@@ABVCRect@@ABVCGraphColor@@HHHABN4ABV?$CList@PAVCPacket@@PAV1@@@VCPenThickness@@@Z$5:
  00034	8d 8d 50 ff ff
	ff		 lea	 ecx, DWORD PTR _pen4$[ebp]
  0003a	e9 00 00 00 00	 jmp	 ??1CPen@@UAE@XZ		; CPen::~CPen
__unwindfunclet$?DrawComponentRatio_Bar_Line@CFundDraw@@AAE_NPAVCDC@@ABVCEtcGraphColor@@ABVCRect@@ABVCGraphColor@@HHHABN4ABV?$CList@PAVCPacket@@PAV1@@@VCPenThickness@@@Z$6:
  0003f	8d 8d 30 ff ff
	ff		 lea	 ecx, DWORD PTR _pen5$[ebp]
  00045	e9 00 00 00 00	 jmp	 ??1CPen@@UAE@XZ		; CPen::~CPen
__unwindfunclet$?DrawComponentRatio_Bar_Line@CFundDraw@@AAE_NPAVCDC@@ABVCEtcGraphColor@@ABVCRect@@ABVCGraphColor@@HHHABN4ABV?$CList@PAVCPacket@@PAV1@@@VCPenThickness@@@Z$7:
  0004a	8d 8d 58 ff ff
	ff		 lea	 ecx, DWORD PTR _pen6$[ebp]
  00050	e9 00 00 00 00	 jmp	 ??1CPen@@UAE@XZ		; CPen::~CPen
__unwindfunclet$?DrawComponentRatio_Bar_Line@CFundDraw@@AAE_NPAVCDC@@ABVCEtcGraphColor@@ABVCRect@@ABVCGraphColor@@HHHABN4ABV?$CList@PAVCPacket@@PAV1@@@VCPenThickness@@@Z$8:
  00055	8d 8d 60 ff ff
	ff		 lea	 ecx, DWORD PTR _pen7$[ebp]
  0005b	e9 00 00 00 00	 jmp	 ??1CPen@@UAE@XZ		; CPen::~CPen
__unwindfunclet$?DrawComponentRatio_Bar_Line@CFundDraw@@AAE_NPAVCDC@@ABVCEtcGraphColor@@ABVCRect@@ABVCGraphColor@@HHHABN4ABV?$CList@PAVCPacket@@PAV1@@@VCPenThickness@@@Z$9:
  00060	8d 8d 68 ff ff
	ff		 lea	 ecx, DWORD PTR _pen8$[ebp]
  00066	e9 00 00 00 00	 jmp	 ??1CPen@@UAE@XZ		; CPen::~CPen
__unwindfunclet$?DrawComponentRatio_Bar_Line@CFundDraw@@AAE_NPAVCDC@@ABVCEtcGraphColor@@ABVCRect@@ABVCGraphColor@@HHHABN4ABV?$CList@PAVCPacket@@PAV1@@@VCPenThickness@@@Z$10:
  0006b	8d 8d 70 ff ff
	ff		 lea	 ecx, DWORD PTR _pen9$[ebp]
  00071	e9 00 00 00 00	 jmp	 ??1CPen@@UAE@XZ		; CPen::~CPen
__unwindfunclet$?DrawComponentRatio_Bar_Line@CFundDraw@@AAE_NPAVCDC@@ABVCEtcGraphColor@@ABVCRect@@ABVCGraphColor@@HHHABN4ABV?$CList@PAVCPacket@@PAV1@@@VCPenThickness@@@Z$11:
  00076	8d 8d 78 ff ff
	ff		 lea	 ecx, DWORD PTR _pen10$[ebp]
  0007c	e9 00 00 00 00	 jmp	 ??1CPen@@UAE@XZ		; CPen::~CPen
__unwindfunclet$?DrawComponentRatio_Bar_Line@CFundDraw@@AAE_NPAVCDC@@ABVCEtcGraphColor@@ABVCRect@@ABVCGraphColor@@HHHABN4ABV?$CList@PAVCPacket@@PAV1@@@VCPenThickness@@@Z$12:
  00081	8d 4d 80	 lea	 ecx, DWORD PTR _firstBrush$[ebp]
  00084	e9 00 00 00 00	 jmp	 ??1CBrush@@UAE@XZ	; CBrush::~CBrush
__unwindfunclet$?DrawComponentRatio_Bar_Line@CFundDraw@@AAE_NPAVCDC@@ABVCEtcGraphColor@@ABVCRect@@ABVCGraphColor@@HHHABN4ABV?$CList@PAVCPacket@@PAV1@@@VCPenThickness@@@Z$13:
  00089	8d 8d d8 fe ff
	ff		 lea	 ecx, DWORD PTR _secondBrush$[ebp]
  0008f	e9 00 00 00 00	 jmp	 ??1CBrush@@UAE@XZ	; CBrush::~CBrush
__unwindfunclet$?DrawComponentRatio_Bar_Line@CFundDraw@@AAE_NPAVCDC@@ABVCEtcGraphColor@@ABVCRect@@ABVCGraphColor@@HHHABN4ABV?$CList@PAVCPacket@@PAV1@@@VCPenThickness@@@Z$14:
  00094	8d 8d e0 fe ff
	ff		 lea	 ecx, DWORD PTR _thirdBrush$[ebp]
  0009a	e9 00 00 00 00	 jmp	 ??1CBrush@@UAE@XZ	; CBrush::~CBrush
__unwindfunclet$?DrawComponentRatio_Bar_Line@CFundDraw@@AAE_NPAVCDC@@ABVCEtcGraphColor@@ABVCRect@@ABVCGraphColor@@HHHABN4ABV?$CList@PAVCPacket@@PAV1@@@VCPenThickness@@@Z$15:
  0009f	8d 8d e8 fe ff
	ff		 lea	 ecx, DWORD PTR _fourBrush$[ebp]
  000a5	e9 00 00 00 00	 jmp	 ??1CBrush@@UAE@XZ	; CBrush::~CBrush
__unwindfunclet$?DrawComponentRatio_Bar_Line@CFundDraw@@AAE_NPAVCDC@@ABVCEtcGraphColor@@ABVCRect@@ABVCGraphColor@@HHHABN4ABV?$CList@PAVCPacket@@PAV1@@@VCPenThickness@@@Z$16:
  000aa	8d 8d f0 fe ff
	ff		 lea	 ecx, DWORD PTR _fiveBrush$[ebp]
  000b0	e9 00 00 00 00	 jmp	 ??1CBrush@@UAE@XZ	; CBrush::~CBrush
__unwindfunclet$?DrawComponentRatio_Bar_Line@CFundDraw@@AAE_NPAVCDC@@ABVCEtcGraphColor@@ABVCRect@@ABVCGraphColor@@HHHABN4ABV?$CList@PAVCPacket@@PAV1@@@VCPenThickness@@@Z$17:
  000b5	8d 8d f8 fe ff
	ff		 lea	 ecx, DWORD PTR _sixBrush$[ebp]
  000bb	e9 00 00 00 00	 jmp	 ??1CBrush@@UAE@XZ	; CBrush::~CBrush
__unwindfunclet$?DrawComponentRatio_Bar_Line@CFundDraw@@AAE_NPAVCDC@@ABVCEtcGraphColor@@ABVCRect@@ABVCGraphColor@@HHHABN4ABV?$CList@PAVCPacket@@PAV1@@@VCPenThickness@@@Z$18:
  000c0	8d 8d 00 ff ff
	ff		 lea	 ecx, DWORD PTR _sevenBrush$[ebp]
  000c6	e9 00 00 00 00	 jmp	 ??1CBrush@@UAE@XZ	; CBrush::~CBrush
__unwindfunclet$?DrawComponentRatio_Bar_Line@CFundDraw@@AAE_NPAVCDC@@ABVCEtcGraphColor@@ABVCRect@@ABVCGraphColor@@HHHABN4ABV?$CList@PAVCPacket@@PAV1@@@VCPenThickness@@@Z$19:
  000cb	8d 8d 08 ff ff
	ff		 lea	 ecx, DWORD PTR _eightBrush$[ebp]
  000d1	e9 00 00 00 00	 jmp	 ??1CBrush@@UAE@XZ	; CBrush::~CBrush
__unwindfunclet$?DrawComponentRatio_Bar_Line@CFundDraw@@AAE_NPAVCDC@@ABVCEtcGraphColor@@ABVCRect@@ABVCGraphColor@@HHHABN4ABV?$CList@PAVCPacket@@PAV1@@@VCPenThickness@@@Z$20:
  000d6	8d 8d 10 ff ff
	ff		 lea	 ecx, DWORD PTR _nineBrush$[ebp]
  000dc	e9 00 00 00 00	 jmp	 ??1CBrush@@UAE@XZ	; CBrush::~CBrush
__unwindfunclet$?DrawComponentRatio_Bar_Line@CFundDraw@@AAE_NPAVCDC@@ABVCEtcGraphColor@@ABVCRect@@ABVCGraphColor@@HHHABN4ABV?$CList@PAVCPacket@@PAV1@@@VCPenThickness@@@Z$21:
  000e1	8d 8d 18 ff ff
	ff		 lea	 ecx, DWORD PTR _tenBrush$[ebp]
  000e7	e9 00 00 00 00	 jmp	 ??1CBrush@@UAE@XZ	; CBrush::~CBrush
__unwindfunclet$?DrawComponentRatio_Bar_Line@CFundDraw@@AAE_NPAVCDC@@ABVCEtcGraphColor@@ABVCRect@@ABVCGraphColor@@HHHABN4ABV?$CList@PAVCPacket@@PAV1@@@VCPenThickness@@@Z$22:
  000ec	8d 8d b4 fe ff
	ff		 lea	 ecx, DWORD PTR $T12[ebp]
  000f2	ff 25 00 00 00
	00		 jmp	 DWORD PTR __imp_??1?$CStringT@DV?$StrTraitMFC_DLL@DV?$ChTraitsCRT@D@ATL@@@@@ATL@@QAE@XZ
__unwindfunclet$?DrawComponentRatio_Bar_Line@CFundDraw@@AAE_NPAVCDC@@ABVCEtcGraphColor@@ABVCRect@@ABVCGraphColor@@HHHABN4ABV?$CList@PAVCPacket@@PAV1@@@VCPenThickness@@@Z$23:
  000f8	8d 8d a0 fe ff
	ff		 lea	 ecx, DWORD PTR $T9[ebp]
  000fe	ff 25 00 00 00
	00		 jmp	 DWORD PTR __imp_??1?$CStringT@DV?$StrTraitMFC_DLL@DV?$ChTraitsCRT@D@ATL@@@@@ATL@@QAE@XZ
__unwindfunclet$?DrawComponentRatio_Bar_Line@CFundDraw@@AAE_NPAVCDC@@ABVCEtcGraphColor@@ABVCRect@@ABVCGraphColor@@HHHABN4ABV?$CList@PAVCPacket@@PAV1@@@VCPenThickness@@@Z$24:
  00104	8d 4d ac	 lea	 ecx, DWORD PTR _strData$15[ebp]
  00107	ff 25 00 00 00
	00		 jmp	 DWORD PTR __imp_??1?$CStringT@DV?$StrTraitMFC_DLL@DV?$ChTraitsCRT@D@ATL@@@@@ATL@@QAE@XZ
__unwindfunclet$?DrawComponentRatio_Bar_Line@CFundDraw@@AAE_NPAVCDC@@ABVCEtcGraphColor@@ABVCRect@@ABVCGraphColor@@HHHABN4ABV?$CList@PAVCPacket@@PAV1@@@VCPenThickness@@@Z$25:
  0010d	8d 8d ac fe ff
	ff		 lea	 ecx, DWORD PTR $T10[ebp]
  00113	ff 25 00 00 00
	00		 jmp	 DWORD PTR __imp_??1?$CStringT@DV?$StrTraitMFC_DLL@DV?$ChTraitsCRT@D@ATL@@@@@ATL@@QAE@XZ
__unwindfunclet$?DrawComponentRatio_Bar_Line@CFundDraw@@AAE_NPAVCDC@@ABVCEtcGraphColor@@ABVCRect@@ABVCGraphColor@@HHHABN4ABV?$CList@PAVCPacket@@PAV1@@@VCPenThickness@@@Z$26:
  00119	8d 8d b0 fe ff
	ff		 lea	 ecx, DWORD PTR $T11[ebp]
  0011f	ff 25 00 00 00
	00		 jmp	 DWORD PTR __imp_??1?$CStringT@DV?$StrTraitMFC_DLL@DV?$ChTraitsCRT@D@ATL@@@@@ATL@@QAE@XZ
__unwindfunclet$?DrawComponentRatio_Bar_Line@CFundDraw@@AAE_NPAVCDC@@ABVCEtcGraphColor@@ABVCRect@@ABVCGraphColor@@HHHABN4ABV?$CList@PAVCPacket@@PAV1@@@VCPenThickness@@@Z$27:
  00125	8d 4d 94	 lea	 ecx, DWORD PTR _beforeStrData$13[ebp]
  00128	ff 25 00 00 00
	00		 jmp	 DWORD PTR __imp_??1?$CStringT@DV?$StrTraitMFC_DLL@DV?$ChTraitsCRT@D@ATL@@@@@ATL@@QAE@XZ
  0012e	cc		 int	 3
  0012f	cc		 int	 3
  00130	cc		 int	 3
  00131	cc		 int	 3
  00132	cc		 int	 3
__ehhandler$?DrawComponentRatio_Bar_Line@CFundDraw@@AAE_NPAVCDC@@ABVCEtcGraphColor@@ABVCRect@@ABVCGraphColor@@HHHABN4ABV?$CList@PAVCPacket@@PAV1@@@VCPenThickness@@@Z:
  00133	90		 npad	 1
  00134	90		 npad	 1
  00135	8b 54 24 08	 mov	 edx, DWORD PTR [esp+8]
  00139	8d 42 0c	 lea	 eax, DWORD PTR [edx+12]
  0013c	8b 8a 54 fe ff
	ff		 mov	 ecx, DWORD PTR [edx-428]
  00142	33 c8		 xor	 ecx, eax
  00144	e8 00 00 00 00	 call	 @__security_check_cookie@4
  00149	8b 4a fc	 mov	 ecx, DWORD PTR [edx-4]
  0014c	33 c8		 xor	 ecx, eax
  0014e	e8 00 00 00 00	 call	 @__security_check_cookie@4
  00153	b8 00 00 00 00	 mov	 eax, OFFSET __ehfuncinfo$?DrawComponentRatio_Bar_Line@CFundDraw@@AAE_NPAVCDC@@ABVCEtcGraphColor@@ABVCRect@@ABVCGraphColor@@HHHABN4ABV?$CList@PAVCPacket@@PAV1@@@VCPenThickness@@@Z
  00158	e9 00 00 00 00	 jmp	 ___CxxFrameHandler3
text$x	ENDS
?DrawComponentRatio_Bar_Line@CFundDraw@@AAE_NPAVCDC@@ABVCEtcGraphColor@@ABVCRect@@ABVCGraphColor@@HHHABN4ABV?$CList@PAVCPacket@@PAV1@@@VCPenThickness@@@Z ENDP ; CFundDraw::DrawComponentRatio_Bar_Line
; Function compile flags: /Ogtp
; File D:\git\src\IBK\IBK_DRFN\ProjSrc\SrcChartEx\ChartOCX\GraphDraw\FundDraw.cpp
;	COMDAT ?DrawComponentRatio_Pie@CFundDraw@@AAE_NPAVCDC@@ABVCRect@@ABVCDisplayAttributes@@ABVCDrawingGraphData@@ABVCSubGraphData@@@Z
_TEXT	SEGMENT
$T2 = -52						; size = 40
__$EHRec$ = -12						; size = 12
_pDC$ = 8						; size = 4
_realRegion$ = 12					; size = 4
_displayAttributes$ = 16				; size = 4
_drawingGraphData$ = 20					; size = 4
_subGraphData$ = 24					; size = 4
?DrawComponentRatio_Pie@CFundDraw@@AAE_NPAVCDC@@ABVCRect@@ABVCDisplayAttributes@@ABVCDrawingGraphData@@ABVCSubGraphData@@@Z PROC ; CFundDraw::DrawComponentRatio_Pie, COMDAT
; _this$ = ecx

; 927  : {

  00000	55		 push	 ebp
  00001	8b ec		 mov	 ebp, esp
  00003	6a ff		 push	 -1
  00005	68 00 00 00 00	 push	 __ehhandler$?DrawComponentRatio_Pie@CFundDraw@@AAE_NPAVCDC@@ABVCRect@@ABVCDisplayAttributes@@ABVCDrawingGraphData@@ABVCSubGraphData@@@Z
  0000a	64 a1 00 00 00
	00		 mov	 eax, DWORD PTR fs:0
  00010	50		 push	 eax
  00011	83 ec 28	 sub	 esp, 40			; 00000028H
  00014	53		 push	 ebx
  00015	a1 00 00 00 00	 mov	 eax, DWORD PTR ___security_cookie
  0001a	33 c5		 xor	 eax, ebp
  0001c	50		 push	 eax
  0001d	8d 45 f4	 lea	 eax, DWORD PTR __$EHRec$[ebp]
