; Listing generated by Microsoft (R) Optimizing Compiler Version 19.29.30145.0 

	TITLE	D:\git\src\IBK\IBK_DRFN\#DRfn-CS\_Obj\GraphDraw\FundDraw.obj
	.686P
	.XMM
	include listing.inc
	.model	flat

INCLUDELIB MSVCRT
INCLUDELIB OLDNAMES

CONST	SEGMENT
?_Fake_alloc@std@@3U_Fake_allocator@1@B	ORG $+1		; std::_Fake_alloc
CONST	ENDS
PUBLIC	??_H@YGXPAXIIP6EPAX0@Z@Z			; `vector constructor iterator'
PUBLIC	?__empty_global_delete@@YAXPAX@Z		; __empty_global_delete
PUBLIC	?__empty_global_delete@@YAXPAXI@Z		; __empty_global_delete
PUBLIC	??1CObject@@UAE@XZ				; CObject::~CObject
PUBLIC	?Serialize@CObject@@UAEXAAVCArchive@@@Z		; CObject::Serialize
PUBLIC	?AssertValid@CObject@@UBEXXZ			; CObject::AssertValid
PUBLIC	?Dump@CObject@@UBEXAAVCDumpContext@@@Z		; CObject::Dump
PUBLIC	??0CPoint@@QAE@XZ				; CPoint::CPoint
PUBLIC	??1CGdiObject@@UAE@XZ				; CGdiObject::~CGdiObject
PUBLIC	??_GCGdiObject@@UAEPAXI@Z			; CGdiObject::`scalar deleting destructor'
PUBLIC	??1CPen@@UAE@XZ					; CPen::~CPen
PUBLIC	??_GCPen@@UAEPAXI@Z				; CPen::`scalar deleting destructor'
PUBLIC	??1CBrush@@UAE@XZ				; CBrush::~CBrush
PUBLIC	??_GCBrush@@UAEPAXI@Z				; CBrush::`scalar deleting destructor'
PUBLIC	??0CFundDraw@@QAE@XZ				; CFundDraw::CFundDraw
PUBLIC	??1CFundDraw@@UAE@XZ				; CFundDraw::~CFundDraw
PUBLIC	?DrawGraph@CFundDraw@@UAE_NPAVCDC@@ABVCRect@@ABVCDisplayAttributes@@ABVCDrawingGraphData@@ABVCSubGraphData@@@Z ; CFundDraw::DrawGraph
PUBLIC	?DrawGraph@CFundDraw@@UAE_NPAVCDC@@ABVCRect@@ABVCDisplayAttributes@@ABVCDrawingGraphData@@ABVCSubGraphData@@PAVCXScaleManager@@@Z ; CFundDraw::DrawGraph
PUBLIC	?DrawComponentRatio_Bar@CFundDraw@@AAE_NPAVCDC@@ABVCEtcGraphColor@@ABVCRect@@ABVCGraphColor@@HHHABN4ABV?$CList@PAVCPacket@@PAV1@@@VCPenThickness@@@Z ; CFundDraw::DrawComponentRatio_Bar
PUBLIC	?DrawStyleBox@CFundDraw@@AAE_NPAVCDC@@ABVCEtcGraphColor@@ABVCRect@@ABVCGraphColor@@HABN4ABV?$CList@PAVCPacket@@PAV1@@@VCPenThickness@@@Z ; CFundDraw::DrawStyleBox
PUBLIC	?DrawReturnRiskGrade@CFundDraw@@AAE_NPAVCDC@@ABVCEtcGraphColor@@ABVCRect@@ABVCGraphColor@@HABN4ABV?$CList@PAVCPacket@@PAV1@@@VCPenThickness@@@Z ; CFundDraw::DrawReturnRiskGrade
PUBLIC	?DrawComponentRatio_Line@CFundDraw@@AAE_NPAVCDC@@ABVCEtcGraphColor@@ABVCRect@@ABVCGraphColor@@HHHABN4ABV?$CList@PAVCPacket@@PAV1@@@VCPenThickness@@@Z ; CFundDraw::DrawComponentRatio_Line
PUBLIC	?DrawReturnRiskDispersion@CFundDraw@@AAE_NPAVCDC@@ABVCEtcGraphColor@@ABVCRect@@ABVCGraphColor@@HABN444ABV?$CList@PAVCPacket@@PAV1@@@@Z ; CFundDraw::DrawReturnRiskDispersion
PUBLIC	?DrawFundMarketDispersion@CFundDraw@@AAE_NPAVCDC@@ABVCEtcGraphColor@@ABVCRect@@ABVCGraphColor@@HABN4ABV?$CList@PAVCPacket@@PAV1@@@VCPenThickness@@@Z ; CFundDraw::DrawFundMarketDispersion
PUBLIC	?DrawComponentRatio_Pie@CFundDraw@@AAE_NPAVCDC@@ABVCRect@@ABVCDisplayAttributes@@ABVCDrawingGraphData@@ABVCSubGraphData@@@Z ; CFundDraw::DrawComponentRatio_Pie
PUBLIC	?DrawComponentRatio_Bar_Line@CFundDraw@@AAE_NPAVCDC@@ABVCEtcGraphColor@@ABVCRect@@ABVCGraphColor@@HHHABN4ABV?$CList@PAVCPacket@@PAV1@@@VCPenThickness@@@Z ; CFundDraw::DrawComponentRatio_Bar_Line
PUBLIC	?DrawGroupBar@CFundDraw@@AAE_NPAVCDC@@ABVCEtcGraphColor@@ABVCRect@@ABVCGraphColor@@HHHABN4ABV?$CList@PAVCPacket@@PAV1@@@VCPenThickness@@@Z ; CFundDraw::DrawGroupBar
PUBLIC	?DrawBox@CFundDraw@@AAEXPAVCDC@@VCRect@@@Z	; CFundDraw::DrawBox
PUBLIC	??_GCFundDraw@@UAEPAXI@Z			; CFundDraw::`scalar deleting destructor'
PUBLIC	??4CGraphDrawer@@QAEAAV0@ABV0@@Z		; CGraphDrawer::operator=
PUBLIC	??4CGraphDrawer@@QAEAAV0@$$QAV0@@Z		; CGraphDrawer::operator=
PUBLIC	??0?$CList@PAU__POSITION@@PAU1@@@QAE@H@Z	; CList<__POSITION *,__POSITION *>::CList<__POSITION *,__POSITION *>
PUBLIC	?AddTail@?$CList@PAU__POSITION@@PAU1@@@QAEPAU__POSITION@@PAU2@@Z ; CList<__POSITION *,__POSITION *>::AddTail
PUBLIC	?RemoveAll@?$CList@PAU__POSITION@@PAU1@@@QAEXXZ	; CList<__POSITION *,__POSITION *>::RemoveAll
PUBLIC	?FindIndex@?$CList@PAU__POSITION@@PAU1@@@QBEPAU__POSITION@@H@Z ; CList<__POSITION *,__POSITION *>::FindIndex
PUBLIC	?NewNode@?$CList@PAU__POSITION@@PAU1@@@IAEPAUCNode@1@PAU21@0@Z ; CList<__POSITION *,__POSITION *>::NewNode
PUBLIC	??1?$CList@PAU__POSITION@@PAU1@@@UAE@XZ		; CList<__POSITION *,__POSITION *>::~CList<__POSITION *,__POSITION *>
PUBLIC	?Serialize@?$CList@PAU__POSITION@@PAU1@@@UAEXAAVCArchive@@@Z ; CList<__POSITION *,__POSITION *>::Serialize
PUBLIC	??_G?$CList@PAU__POSITION@@PAU1@@@UAEPAXI@Z	; CList<__POSITION *,__POSITION *>::`scalar deleting destructor'
PUBLIC	?FindIndex@?$CList@NN@@QBEPAU__POSITION@@H@Z	; CList<double,double>::FindIndex
PUBLIC	?FindIndex@?$CList@V?$CStringT@DV?$StrTraitMFC_DLL@DV?$ChTraitsCRT@D@ATL@@@@@ATL@@V12@@@QBEPAU__POSITION@@H@Z ; CList<ATL::CStringT<char,StrTraitMFC_DLL<char,ATL::ChTraitsCRT<char> > >,ATL::CStringT<char,StrTraitMFC_DLL<char,ATL::ChTraitsCRT<char> > > >::FindIndex
PUBLIC	??$SerializeElements@PAU__POSITION@@@@YGXAAVCArchive@@PAPAU__POSITION@@H@Z ; SerializeElements<__POSITION *>
PUBLIC	??_R0PAVCException@@@8				; CException * `RTTI Type Descriptor'
PUBLIC	??_C@_01HMGJMAIH@B@				; `string'
PUBLIC	??_7CGdiObject@@6B@				; CGdiObject::`vftable'
PUBLIC	??_7CPen@@6B@					; CPen::`vftable'
PUBLIC	??_7CBrush@@6B@					; CBrush::`vftable'
PUBLIC	??_C@_0HD@JJCHHHNK@C?3?2Program?5Files?5?$CIx86?$CJ?2Microsof@ ; `string'
PUBLIC	??_C@_0BP@OIEOKIDM@Exception?5thrown?5in?5destructor@ ; `string'
PUBLIC	??_C@_0BB@HBOOMJBF@?$CFTs?5?$CI?$CFTs?3?$CFd?$CJ?6?$CFTs@ ; `string'
PUBLIC	??_C@_0N@OMEMOKLE@?$CFTs?5?$CI?$CFTs?3?$CFd?$CJ@ ; `string'
PUBLIC	??_R0?AVCObject@@@8				; CObject `RTTI Type Descriptor'
PUBLIC	??_R3CObject@@8					; CObject::`RTTI Class Hierarchy Descriptor'
PUBLIC	??_R2CObject@@8					; CObject::`RTTI Base Class Array'
PUBLIC	??_R1A@?0A@EA@CObject@@8			; CObject::`RTTI Base Class Descriptor at (0,-1,0,64)'
PUBLIC	??_R4CGdiObject@@6B@				; CGdiObject::`RTTI Complete Object Locator'
PUBLIC	??_R0?AVCGdiObject@@@8				; CGdiObject `RTTI Type Descriptor'
PUBLIC	??_R3CGdiObject@@8				; CGdiObject::`RTTI Class Hierarchy Descriptor'
PUBLIC	??_R2CGdiObject@@8				; CGdiObject::`RTTI Base Class Array'
PUBLIC	??_R1A@?0A@EA@CGdiObject@@8			; CGdiObject::`RTTI Base Class Descriptor at (0,-1,0,64)'
PUBLIC	??_R4CPen@@6B@					; CPen::`RTTI Complete Object Locator'
PUBLIC	??_R0?AVCPen@@@8				; CPen `RTTI Type Descriptor'
PUBLIC	??_R3CPen@@8					; CPen::`RTTI Class Hierarchy Descriptor'
PUBLIC	??_R2CPen@@8					; CPen::`RTTI Base Class Array'
PUBLIC	??_R1A@?0A@EA@CPen@@8				; CPen::`RTTI Base Class Descriptor at (0,-1,0,64)'
PUBLIC	??_R4CBrush@@6B@				; CBrush::`RTTI Complete Object Locator'
PUBLIC	??_R0?AVCBrush@@@8				; CBrush `RTTI Type Descriptor'
PUBLIC	??_R3CBrush@@8					; CBrush::`RTTI Class Hierarchy Descriptor'
PUBLIC	??_R2CBrush@@8					; CBrush::`RTTI Base Class Array'
PUBLIC	??_R1A@?0A@EA@CBrush@@8				; CBrush::`RTTI Base Class Descriptor at (0,-1,0,64)'
PUBLIC	??_7CFundDraw@@6B@				; CFundDraw::`vftable'
PUBLIC	??_7?$CList@PAU__POSITION@@PAU1@@@6B@		; CList<__POSITION *,__POSITION *>::`vftable'
PUBLIC	??_C@_01FGNFDNOH@?$CF@				; `string'
PUBLIC	??_C@_01BIAFAFID@F@				; `string'
PUBLIC	??_C@_01HJOKEEBB@U@				; `string'
PUBLIC	??_C@_01KNKLHLMO@K@				; `string'
PUBLIC	??_R4CFundDraw@@6B@				; CFundDraw::`RTTI Complete Object Locator'
PUBLIC	??_R0?AVCFundDraw@@@8				; CFundDraw `RTTI Type Descriptor'
PUBLIC	??_R3CFundDraw@@8				; CFundDraw::`RTTI Class Hierarchy Descriptor'
PUBLIC	??_R2CFundDraw@@8				; CFundDraw::`RTTI Base Class Array'
PUBLIC	??_R1A@?0A@EA@CFundDraw@@8			; CFundDraw::`RTTI Base Class Descriptor at (0,-1,0,64)'
PUBLIC	??_R1A@?0A@EA@CDraw@@8				; CDraw::`RTTI Base Class Descriptor at (0,-1,0,64)'
PUBLIC	??_R0?AVCDraw@@@8				; CDraw `RTTI Type Descriptor'
PUBLIC	??_R3CDraw@@8					; CDraw::`RTTI Class Hierarchy Descriptor'
PUBLIC	??_R2CDraw@@8					; CDraw::`RTTI Base Class Array'
PUBLIC	??_R4?$CList@PAU__POSITION@@PAU1@@@6B@		; CList<__POSITION *,__POSITION *>::`RTTI Complete Object Locator'
PUBLIC	??_R0?AV?$CList@PAU__POSITION@@PAU1@@@@8	; CList<__POSITION *,__POSITION *> `RTTI Type Descriptor'
PUBLIC	??_R3?$CList@PAU__POSITION@@PAU1@@@8		; CList<__POSITION *,__POSITION *>::`RTTI Class Hierarchy Descriptor'
PUBLIC	??_R2?$CList@PAU__POSITION@@PAU1@@@8		; CList<__POSITION *,__POSITION *>::`RTTI Base Class Array'
PUBLIC	??_R1A@?0A@EA@?$CList@PAU__POSITION@@PAU1@@@8	; CList<__POSITION *,__POSITION *>::`RTTI Base Class Descriptor at (0,-1,0,64)'
PUBLIC	__real@3fe0000000000000
PUBLIC	__real@3fe999999999999a
PUBLIC	__real@3ff0000000000000
PUBLIC	__real@4010000000000000
PUBLIC	__real@4014000000000000
PUBLIC	__real@402e000000000000
EXTRN	??3@YAXPAX@Z:PROC				; operator delete
EXTRN	??3@YAXPAXI@Z:PROC				; operator delete
EXTRN	?__global_delete@@YAXPAXI@Z:PROC		; __global_delete
EXTRN	___std_terminate:PROC
EXTRN	__imp__CreatePen@12:PROC
EXTRN	__imp__Ellipse@20:PROC
EXTRN	__imp__GetStockObject@4:PROC
EXTRN	__imp__SelectObject@8:PROC
EXTRN	__imp__Polygon@12:PROC
EXTRN	__imp__DrawEdge@16:PROC
EXTRN	__imp__FillRect@12:PROC
EXTRN	__imp__atof:PROC
EXTRN	?AfxThrowInvalidArgException@@YGXXZ:PROC	; AfxThrowInvalidArgException
EXTRN	?AfxThrowArchiveException@@YGXHPBD@Z:PROC	; AfxThrowArchiveException
EXTRN	?GetRuntimeClass@CObject@@UBEPAUCRuntimeClass@@XZ:PROC ; CObject::GetRuntimeClass
EXTRN	__imp_??0?$CStringT@DV?$StrTraitMFC_DLL@DV?$ChTraitsCRT@D@ATL@@@@@ATL@@QAE@XZ:PROC
EXTRN	__imp_??0?$CStringT@DV?$StrTraitMFC_DLL@DV?$ChTraitsCRT@D@ATL@@@@@ATL@@QAE@ABV01@@Z:PROC
EXTRN	__imp_??1?$CStringT@DV?$StrTraitMFC_DLL@DV?$ChTraitsCRT@D@ATL@@@@@ATL@@QAE@XZ:PROC
EXTRN	__imp_?Compare@?$CStringT@DV?$StrTraitMFC_DLL@DV?$ChTraitsCRT@D@ATL@@@@@ATL@@QBEHPBD@Z:PROC
EXTRN	__imp_?TrimRight@?$CStringT@DV?$StrTraitMFC_DLL@DV?$ChTraitsCRT@D@ATL@@@@@ATL@@QAEAAV12@PBD@Z:PROC
EXTRN	__imp_?Format@?$CStringT@DV?$StrTraitMFC_DLL@DV?$ChTraitsCRT@D@ATL@@@@@ATL@@QAAXPBDZZ:PROC
EXTRN	?Read@CArchive@@QAEIPAXI@Z:PROC			; CArchive::Read
EXTRN	?Write@CArchive@@QAEXPBXI@Z:PROC		; CArchive::Write
EXTRN	?ReadCount@CArchive@@QAEKXZ:PROC		; CArchive::ReadCount
EXTRN	?WriteCount@CArchive@@QAEXK@Z:PROC		; CArchive::WriteCount
EXTRN	?Create@CPlex@@SGPAU1@AAPAU1@II@Z:PROC		; CPlex::Create
EXTRN	?FreeDataChain@CPlex@@QAEXXZ:PROC		; CPlex::FreeDataChain
EXTRN	?GetRuntimeClass@CGdiObject@@UBEPAUCRuntimeClass@@XZ:PROC ; CGdiObject::GetRuntimeClass
EXTRN	?Attach@CGdiObject@@QAEHPAX@Z:PROC		; CGdiObject::Attach
EXTRN	?DeleteObject@CGdiObject@@QAEHXZ:PROC		; CGdiObject::DeleteObject
EXTRN	??_ECGdiObject@@UAEPAXI@Z:PROC			; CGdiObject::`vector deleting destructor'
EXTRN	?GetRuntimeClass@CPen@@UBEPAUCRuntimeClass@@XZ:PROC ; CPen::GetRuntimeClass
EXTRN	??_ECPen@@UAEPAXI@Z:PROC			; CPen::`vector deleting destructor'
EXTRN	?GetRuntimeClass@CBrush@@UBEPAUCRuntimeClass@@XZ:PROC ; CBrush::GetRuntimeClass
EXTRN	??0CBrush@@QAE@K@Z:PROC				; CBrush::CBrush
EXTRN	??_ECBrush@@UAEPAXI@Z:PROC			; CBrush::`vector deleting destructor'
EXTRN	?SelectObject@CDC@@QAEPAVCPen@@PAV2@@Z:PROC	; CDC::SelectObject
EXTRN	?SelectObject@CDC@@QAEPAVCBrush@@PAV2@@Z:PROC	; CDC::SelectObject
EXTRN	?AfxMessageBox@@YGHPBDII@Z:PROC			; AfxMessageBox
EXTRN	??0CDraw@@QAE@XZ:PROC				; CDraw::CDraw
EXTRN	??1CDraw@@UAE@XZ:PROC				; CDraw::~CDraw
EXTRN	?DrawGraph@CDraw@@UAE_NPAVCDC@@ABVCRect@@ABVCDisplayAttributes@@ABVCDrawingGraphData@@ABVCSubGraphData@@ABV?$CStringT@DV?$StrTraitMFC_DLL@DV?$ChTraitsCRT@D@ATL@@@@@ATL@@PAVCXScaleManager@@@Z:PROC ; CDraw::DrawGraph
EXTRN	?DrawLine@CDraw@@IAEXPAVCDC@@UtagPOINT@@1@Z:PROC ; CDraw::DrawLine
EXTRN	?DrawRectangle@CDraw@@IAEXPAVCDC@@VCRect@@@Z:PROC ; CDraw::DrawRectangle
EXTRN	?CalUpLineThickness@CDraw@@IAEHABVCPenThickness@@H@Z:PROC ; CDraw::CalUpLineThickness
EXTRN	?CalRealWidth@CDraw@@IAENABVCRect@@HH@Z:PROC	; CDraw::CalRealWidth
EXTRN	?InsertFourPointToArray@CDraw@@IAEXPAVCPoint@@V2@111@Z:PROC ; CDraw::InsertFourPointToArray
EXTRN	??_ECFundDraw@@UAEPAXI@Z:PROC			; CFundDraw::`vector deleting destructor'
EXTRN	?DoubleToString@CDataConversion@@SA?AV?$CStringT@DV?$StrTraitMFC_DLL@DV?$ChTraitsCRT@D@ATL@@@@@ATL@@ABN@Z:PROC ; CDataConversion::DoubleToString
EXTRN	?GetStringFormatTrans@CDataConversion@@QAE?AV?$CStringT@DV?$StrTraitMFC_DLL@DV?$ChTraitsCRT@D@ATL@@@@@ATL@@ABV23@0@Z:PROC ; CDataConversion::GetStringFormatTrans
EXTRN	?GetVerticalPoint@CDataConversion@@SA?AVCPoint@@ABVCRect@@HABN111_N@Z:PROC ; CDataConversion::GetVerticalPoint
EXTRN	?GetVerticalPoint@CDataConversion@@SA?AVCPoint@@ABVCRect@@ABN11111@Z:PROC ; CDataConversion::GetVerticalPoint
EXTRN	__imp_?GetDisplayMin@CDisplayDataMinMax@@QBENXZ:PROC
EXTRN	__imp_?GetDisplayMax@CDisplayDataMinMax@@QBENXZ:PROC
EXTRN	__imp_?GetGraphColor1@CEtcGraphColor@@QBEKXZ:PROC
EXTRN	__imp_?GetGraphColor2@CEtcGraphColor@@QBEKXZ:PROC
EXTRN	__imp_?GetGraphColor3@CEtcGraphColor@@QBEKXZ:PROC
EXTRN	__imp_?GetGraphColor4@CEtcGraphColor@@QBEKXZ:PROC
EXTRN	__imp_?GetGraphColor5@CEtcGraphColor@@QBEKXZ:PROC
EXTRN	__imp_?GetColor1@CGraphColor@@QBEKXZ:PROC
EXTRN	__imp_?GetColor2@CGraphColor@@QBEKXZ:PROC
EXTRN	__imp_?GetColor3@CGraphColor@@QBEKXZ:PROC
EXTRN	__imp_?GetColor4@CGraphColor@@QBEKXZ:PROC
EXTRN	__imp_?GetColor5@CGraphColor@@QBEKXZ:PROC
EXTRN	__imp_?GetColor6@CGraphColor@@QBEKXZ:PROC
EXTRN	__imp_??0CPenThickness@@QAE@ABV0@@Z:PROC
EXTRN	__imp_?GetThickness1@CPenThickness@@QBEHXZ:PROC
EXTRN	__imp_?GetStyle@CSubGraphDataBase@@QBE?AVCGraphStyle@@XZ:PROC
EXTRN	__imp_?GetColor@CSubGraphDataBase@@QBE?AVCGraphColor@@XZ:PROC
EXTRN	__imp_?GetPenThickness@CSubGraphDataBase@@QBE?AVCPenThickness@@XZ:PROC
EXTRN	?GetDataStartInBlock@CDisplayAttributes@@QBEHXZ:PROC ; CDisplayAttributes::GetDataStartInBlock
EXTRN	?GetDataEndInBlock@CDisplayAttributes@@QBEHXZ:PROC ; CDisplayAttributes::GetDataEndInBlock
EXTRN	?GetDisplayDataHorzMinMax@CDrawingGraphData@@QBE?AVCDisplayDataMinMax@@XZ:PROC ; CDrawingGraphData::GetDisplayDataHorzMinMax
EXTRN	?GetDisplayDataVertMinMax@CDrawingGraphData@@QBE?AVCDisplayDataMinMax@@XZ:PROC ; CDrawingGraphData::GetDisplayDataVertMinMax
EXTRN	?GetDisplayAttributes@CDrawingGraphData@@QBE?AVCDisplayAttributes@@XZ:PROC ; CDrawingGraphData::GetDisplayAttributes
EXTRN	?GetEtcGraphColor@CDrawingGraphData@@QBE?AVCEtcGraphColor@@XZ:PROC ; CDrawingGraphData::GetEtcGraphColor
EXTRN	?GetSubGraphPacketList@CDrawingGraphData@@QBEPAVCSubGraphPacketList@@XZ:PROC ; CDrawingGraphData::GetSubGraphPacketList
EXTRN	?GetSubGraphPacketList@CSubGraphPacketList@@QBEABV?$CList@PAVCPacket@@PAV1@@@XZ:PROC ; CSubGraphPacketList::GetSubGraphPacketList
EXTRN	??0CPieDraw@@QAE@XZ:PROC			; CPieDraw::CPieDraw
EXTRN	??1CPieDraw@@UAE@XZ:PROC			; CPieDraw::~CPieDraw
EXTRN	__imp_?GetStartPeriod@CPacket@@QAEHXZ:PROC
EXTRN	__imp_?GetType@CPacket@@QAE?AV?$CStringT@DV?$StrTraitMFC_DLL@DV?$ChTraitsCRT@D@ATL@@@@@ATL@@_N@Z:PROC
EXTRN	__imp_?GetnumericDataList@CPacket@@QAEPAV?$CList@NN@@XZ:PROC
EXTRN	__imp_?GetstrDataList@CPacket@@QAEPAV?$CList@V?$CStringT@DV?$StrTraitMFC_DLL@DV?$ChTraitsCRT@D@ATL@@@@@ATL@@V12@@@XZ:PROC
EXTRN	__imp_?GetMinMax@CPacket@@QAEHHHAAN0H@Z:PROC
EXTRN	??_E?$CList@PAU__POSITION@@PAU1@@@UAEPAXI@Z:PROC ; CList<__POSITION *,__POSITION *>::`vector deleting destructor'
EXTRN	@__security_check_cookie@4:PROC
EXTRN	___CxxFrameHandler3:PROC
EXTRN	??_7type_info@@6B@:QWORD			; type_info::`vftable'
EXTRN	___security_cookie:DWORD
EXTRN	__fltused:DWORD
;	COMDAT __real@402e000000000000
CONST	SEGMENT
__real@402e000000000000 DQ 0402e000000000000r	; 15
CONST	ENDS
;	COMDAT __real@4014000000000000
CONST	SEGMENT
__real@4014000000000000 DQ 04014000000000000r	; 5
CONST	ENDS
;	COMDAT __real@4010000000000000
CONST	SEGMENT
__real@4010000000000000 DQ 04010000000000000r	; 4
CONST	ENDS
;	COMDAT __real@3ff0000000000000
CONST	SEGMENT
__real@3ff0000000000000 DQ 03ff0000000000000r	; 1
CONST	ENDS
;	COMDAT __real@3fe999999999999a
CONST	SEGMENT
__real@3fe999999999999a DQ 03fe999999999999ar	; 0.8
CONST	ENDS
;	COMDAT __real@3fe0000000000000
CONST	SEGMENT
__real@3fe0000000000000 DQ 03fe0000000000000r	; 0.5
CONST	ENDS
;	COMDAT ??_R1A@?0A@EA@?$CList@PAU__POSITION@@PAU1@@@8
rdata$r	SEGMENT
??_R1A@?0A@EA@?$CList@PAU__POSITION@@PAU1@@@8 DD FLAT:??_R0?AV?$CList@PAU__POSITION@@PAU1@@@@8 ; CList<__POSITION *,__POSITION *>::`RTTI Base Class Descriptor at (0,-1,0,64)'
	DD	01H
	DD	00H
	DD	0ffffffffH
	DD	00H
	DD	040H
	DD	FLAT:??_R3?$CList@PAU__POSITION@@PAU1@@@8
rdata$r	ENDS
;	COMDAT ??_R2?$CList@PAU__POSITION@@PAU1@@@8
rdata$r	SEGMENT
??_R2?$CList@PAU__POSITION@@PAU1@@@8 DD FLAT:??_R1A@?0A@EA@?$CList@PAU__POSITION@@PAU1@@@8 ; CList<__POSITION *,__POSITION *>::`RTTI Base Class Array'
	DD	FLAT:??_R1A@?0A@EA@CObject@@8
rdata$r	ENDS
;	COMDAT ??_R3?$CList@PAU__POSITION@@PAU1@@@8
rdata$r	SEGMENT
??_R3?$CList@PAU__POSITION@@PAU1@@@8 DD 00H		; CList<__POSITION *,__POSITION *>::`RTTI Class Hierarchy Descriptor'
	DD	00H
	DD	02H
	DD	FLAT:??_R2?$CList@PAU__POSITION@@PAU1@@@8
rdata$r	ENDS
;	COMDAT ??_R0?AV?$CList@PAU__POSITION@@PAU1@@@@8
data$rs	SEGMENT
??_R0?AV?$CList@PAU__POSITION@@PAU1@@@@8 DD FLAT:??_7type_info@@6B@ ; CList<__POSITION *,__POSITION *> `RTTI Type Descriptor'
	DD	00H
	DB	'.?AV?$CList@PAU__POSITION@@PAU1@@@', 00H
data$rs	ENDS
;	COMDAT ??_R4?$CList@PAU__POSITION@@PAU1@@@6B@
rdata$r	SEGMENT
??_R4?$CList@PAU__POSITION@@PAU1@@@6B@ DD 00H		; CList<__POSITION *,__POSITION *>::`RTTI Complete Object Locator'
	DD	00H
	DD	00H
	DD	FLAT:??_R0?AV?$CList@PAU__POSITION@@PAU1@@@@8
	DD	FLAT:??_R3?$CList@PAU__POSITION@@PAU1@@@8
rdata$r	ENDS
;	COMDAT ??_R2CDraw@@8
rdata$r	SEGMENT
??_R2CDraw@@8 DD FLAT:??_R1A@?0A@EA@CDraw@@8		; CDraw::`RTTI Base Class Array'
rdata$r	ENDS
;	COMDAT ??_R3CDraw@@8
rdata$r	SEGMENT
??_R3CDraw@@8 DD 00H					; CDraw::`RTTI Class Hierarchy Descriptor'
	DD	00H
	DD	01H
	DD	FLAT:??_R2CDraw@@8
rdata$r	ENDS
;	COMDAT ??_R0?AVCDraw@@@8
data$rs	SEGMENT
??_R0?AVCDraw@@@8 DD FLAT:??_7type_info@@6B@		; CDraw `RTTI Type Descriptor'
	DD	00H
	DB	'.?AVCDraw@@', 00H
data$rs	ENDS
;	COMDAT ??_R1A@?0A@EA@CDraw@@8
rdata$r	SEGMENT
??_R1A@?0A@EA@CDraw@@8 DD FLAT:??_R0?AVCDraw@@@8	; CDraw::`RTTI Base Class Descriptor at (0,-1,0,64)'
	DD	00H
	DD	00H
	DD	0ffffffffH
	DD	00H
	DD	040H
	DD	FLAT:??_R3CDraw@@8
rdata$r	ENDS
;	COMDAT ??_R1A@?0A@EA@CFundDraw@@8
rdata$r	SEGMENT
??_R1A@?0A@EA@CFundDraw@@8 DD FLAT:??_R0?AVCFundDraw@@@8 ; CFundDraw::`RTTI Base Class Descriptor at (0,-1,0,64)'
	DD	01H
	DD	00H
	DD	0ffffffffH
	DD	00H
	DD	040H
	DD	FLAT:??_R3CFundDraw@@8
rdata$r	ENDS
;	COMDAT ??_R2CFundDraw@@8
rdata$r	SEGMENT
??_R2CFundDraw@@8 DD FLAT:??_R1A@?0A@EA@CFundDraw@@8	; CFundDraw::`RTTI Base Class Array'
	DD	FLAT:??_R1A@?0A@EA@CDraw@@8
rdata$r	ENDS
;	COMDAT ??_R3CFundDraw@@8
rdata$r	SEGMENT
??_R3CFundDraw@@8 DD 00H				; CFundDraw::`RTTI Class Hierarchy Descriptor'
	DD	00H
	DD	02H
	DD	FLAT:??_R2CFundDraw@@8
rdata$r	ENDS
;	COMDAT ??_R0?AVCFundDraw@@@8
data$rs	SEGMENT
??_R0?AVCFundDraw@@@8 DD FLAT:??_7type_info@@6B@	; CFundDraw `RTTI Type Descriptor'
	DD	00H
	DB	'.?AVCFundDraw@@', 00H
data$rs	ENDS
;	COMDAT ??_R4CFundDraw@@6B@
rdata$r	SEGMENT
??_R4CFundDraw@@6B@ DD 00H				; CFundDraw::`RTTI Complete Object Locator'
	DD	00H
	DD	00H
	DD	FLAT:??_R0?AVCFundDraw@@@8
	DD	FLAT:??_R3CFundDraw@@8
rdata$r	ENDS
;	COMDAT ??_C@_01KNKLHLMO@K@
CONST	SEGMENT
??_C@_01KNKLHLMO@K@ DB 'K', 00H				; `string'
CONST	ENDS
;	COMDAT ??_C@_01HJOKEEBB@U@
CONST	SEGMENT
??_C@_01HJOKEEBB@U@ DB 'U', 00H				; `string'
CONST	ENDS
;	COMDAT ??_C@_01BIAFAFID@F@
CONST	SEGMENT
??_C@_01BIAFAFID@F@ DB 'F', 00H				; `string'
CONST	ENDS
;	COMDAT ??_C@_01FGNFDNOH@?$CF@
CONST	SEGMENT
??_C@_01FGNFDNOH@?$CF@ DB '%', 00H			; `string'
CONST	ENDS
;	COMDAT ??_7?$CList@PAU__POSITION@@PAU1@@@6B@
CONST	SEGMENT
??_7?$CList@PAU__POSITION@@PAU1@@@6B@ DD FLAT:??_R4?$CList@PAU__POSITION@@PAU1@@@6B@ ; CList<__POSITION *,__POSITION *>::`vftable'
	DD	FLAT:?GetRuntimeClass@CObject@@UBEPAUCRuntimeClass@@XZ
	DD	FLAT:??_E?$CList@PAU__POSITION@@PAU1@@@UAEPAXI@Z
	DD	FLAT:?Serialize@?$CList@PAU__POSITION@@PAU1@@@UAEXAAVCArchive@@@Z
	DD	FLAT:?AssertValid@CObject@@UBEXXZ
	DD	FLAT:?Dump@CObject@@UBEXAAVCDumpContext@@@Z
CONST	ENDS
;	COMDAT ??_7CFundDraw@@6B@
CONST	SEGMENT
??_7CFundDraw@@6B@ DD FLAT:??_R4CFundDraw@@6B@		; CFundDraw::`vftable'
	DD	FLAT:??_ECFundDraw@@UAEPAXI@Z
	DD	FLAT:?DrawGraph@CDraw@@UAE_NPAVCDC@@ABVCRect@@ABVCDisplayAttributes@@ABVCDrawingGraphData@@ABVCSubGraphData@@ABV?$CStringT@DV?$StrTraitMFC_DLL@DV?$ChTraitsCRT@D@ATL@@@@@ATL@@PAVCXScaleManager@@@Z
	DD	FLAT:?DrawGraph@CFundDraw@@UAE_NPAVCDC@@ABVCRect@@ABVCDisplayAttributes@@ABVCDrawingGraphData@@ABVCSubGraphData@@@Z
	DD	FLAT:?DrawGraph@CFundDraw@@UAE_NPAVCDC@@ABVCRect@@ABVCDisplayAttributes@@ABVCDrawingGraphData@@ABVCSubGraphData@@PAVCXScaleManager@@@Z
CONST	ENDS
;	COMDAT ??_R1A@?0A@EA@CBrush@@8
rdata$r	SEGMENT
??_R1A@?0A@EA@CBrush@@8 DD FLAT:??_R0?AVCBrush@@@8	; CBrush::`RTTI Base Class Descriptor at (0,-1,0,64)'
	DD	02H
	DD	00H
	DD	0ffffffffH
	DD	00H
	DD	040H
	DD	FLAT:??_R3CBrush@@8
rdata$r	ENDS
;	COMDAT ??_R2CBrush@@8
rdata$r	SEGMENT
??_R2CBrush@@8 DD FLAT:??_R1A@?0A@EA@CBrush@@8		; CBrush::`RTTI Base Class Array'
	DD	FLAT:??_R1A@?0A@EA@CGdiObject@@8
	DD	FLAT:??_R1A@?0A@EA@CObject@@8
rdata$r	ENDS
;	COMDAT ??_R3CBrush@@8
rdata$r	SEGMENT
??_R3CBrush@@8 DD 00H					; CBrush::`RTTI Class Hierarchy Descriptor'
	DD	00H
	DD	03H
	DD	FLAT:??_R2CBrush@@8
rdata$r	ENDS
;	COMDAT ??_R0?AVCBrush@@@8
data$rs	SEGMENT
??_R0?AVCBrush@@@8 DD FLAT:??_7type_info@@6B@		; CBrush `RTTI Type Descriptor'
	DD	00H
	DB	'.?AVCBrush@@', 00H
data$rs	ENDS
;	COMDAT ??_R4CBrush@@6B@
rdata$r	SEGMENT
??_R4CBrush@@6B@ DD 00H					; CBrush::`RTTI Complete Object Locator'
	DD	00H
	DD	00H
	DD	FLAT:??_R0?AVCBrush@@@8
	DD	FLAT:??_R3CBrush@@8
rdata$r	ENDS
;	COMDAT ??_R1A@?0A@EA@CPen@@8
rdata$r	SEGMENT
??_R1A@?0A@EA@CPen@@8 DD FLAT:??_R0?AVCPen@@@8		; CPen::`RTTI Base Class Descriptor at (0,-1,0,64)'
	DD	02H
	DD	00H
	DD	0ffffffffH
	DD	00H
	DD	040H
	DD	FLAT:??_R3CPen@@8
rdata$r	ENDS
;	COMDAT ??_R2CPen@@8
rdata$r	SEGMENT
??_R2CPen@@8 DD	FLAT:??_R1A@?0A@EA@CPen@@8		; CPen::`RTTI Base Class Array'
	DD	FLAT:??_R1A@?0A@EA@CGdiObject@@8
	DD	FLAT:??_R1A@?0A@EA@CObject@@8
rdata$r	ENDS
;	COMDAT ??_R3CPen@@8
rdata$r	SEGMENT
??_R3CPen@@8 DD	00H					; CPen::`RTTI Class Hierarchy Descriptor'
	DD	00H
	DD	03H
	DD	FLAT:??_R2CPen@@8
rdata$r	ENDS
;	COMDAT ??_R0?AVCPen@@@8
data$rs	SEGMENT
??_R0?AVCPen@@@8 DD FLAT:??_7type_info@@6B@		; CPen `RTTI Type Descriptor'
	DD	00H
	DB	'.?AVCPen@@', 00H
data$rs	ENDS
;	COMDAT ??_R4CPen@@6B@
rdata$r	SEGMENT
??_R4CPen@@6B@ DD 00H					; CPen::`RTTI Complete Object Locator'
	DD	00H
	DD	00H
	DD	FLAT:??_R0?AVCPen@@@8
	DD	FLAT:??_R3CPen@@8
rdata$r	ENDS
;	COMDAT ??_R1A@?0A@EA@CGdiObject@@8
rdata$r	SEGMENT
??_R1A@?0A@EA@CGdiObject@@8 DD FLAT:??_R0?AVCGdiObject@@@8 ; CGdiObject::`RTTI Base Class Descriptor at (0,-1,0,64)'
	DD	01H
	DD	00H
	DD	0ffffffffH
	DD	00H
	DD	040H
	DD	FLAT:??_R3CGdiObject@@8
rdata$r	ENDS
;	COMDAT ??_R2CGdiObject@@8
rdata$r	SEGMENT
??_R2CGdiObject@@8 DD FLAT:??_R1A@?0A@EA@CGdiObject@@8	; CGdiObject::`RTTI Base Class Array'
	DD	FLAT:??_R1A@?0A@EA@CObject@@8
rdata$r	ENDS
;	COMDAT ??_R3CGdiObject@@8
rdata$r	SEGMENT
??_R3CGdiObject@@8 DD 00H				; CGdiObject::`RTTI Class Hierarchy Descriptor'
	DD	00H
	DD	02H
	DD	FLAT:??_R2CGdiObject@@8
rdata$r	ENDS
;	COMDAT ??_R0?AVCGdiObject@@@8
data$rs	SEGMENT
??_R0?AVCGdiObject@@@8 DD FLAT:??_7type_info@@6B@	; CGdiObject `RTTI Type Descriptor'
	DD	00H
	DB	'.?AVCGdiObject@@', 00H
data$rs	ENDS
;	COMDAT ??_R4CGdiObject@@6B@
rdata$r	SEGMENT
??_R4CGdiObject@@6B@ DD 00H				; CGdiObject::`RTTI Complete Object Locator'
	DD	00H
	DD	00H
	DD	FLAT:??_R0?AVCGdiObject@@@8
	DD	FLAT:??_R3CGdiObject@@8
rdata$r	ENDS
;	COMDAT ??_R1A@?0A@EA@CObject@@8
rdata$r	SEGMENT
??_R1A@?0A@EA@CObject@@8 DD FLAT:??_R0?AVCObject@@@8	; CObject::`RTTI Base Class Descriptor at (0,-1,0,64)'
	DD	00H
	DD	00H
	DD	0ffffffffH
	DD	00H
	DD	040H
	DD	FLAT:??_R3CObject@@8
rdata$r	ENDS
;	COMDAT ??_R2CObject@@8
rdata$r	SEGMENT
??_R2CObject@@8 DD FLAT:??_R1A@?0A@EA@CObject@@8	; CObject::`RTTI Base Class Array'
rdata$r	ENDS
;	COMDAT ??_R3CObject@@8
rdata$r	SEGMENT
??_R3CObject@@8 DD 00H					; CObject::`RTTI Class Hierarchy Descriptor'
	DD	00H
	DD	01H
	DD	FLAT:??_R2CObject@@8
rdata$r	ENDS
;	COMDAT ??_R0?AVCObject@@@8
data$rs	SEGMENT
??_R0?AVCObject@@@8 DD FLAT:??_7type_info@@6B@		; CObject `RTTI Type Descriptor'
	DD	00H
	DB	'.?AVCObject@@', 00H
data$rs	ENDS
;	COMDAT ??_C@_0N@OMEMOKLE@?$CFTs?5?$CI?$CFTs?3?$CFd?$CJ@
CONST	SEGMENT
??_C@_0N@OMEMOKLE@?$CFTs?5?$CI?$CFTs?3?$CFd?$CJ@ DB '%Ts (%Ts:%d)', 00H ; `string'
CONST	ENDS
;	COMDAT ??_C@_0BB@HBOOMJBF@?$CFTs?5?$CI?$CFTs?3?$CFd?$CJ?6?$CFTs@
CONST	SEGMENT
??_C@_0BB@HBOOMJBF@?$CFTs?5?$CI?$CFTs?3?$CFd?$CJ?6?$CFTs@ DB '%Ts (%Ts:%d'
	DB	')', 0aH, '%Ts', 00H				; `string'
CONST	ENDS
;	COMDAT ??_C@_0BP@OIEOKIDM@Exception?5thrown?5in?5destructor@
CONST	SEGMENT
??_C@_0BP@OIEOKIDM@Exception?5thrown?5in?5destructor@ DB 'Exception throw'
	DB	'n in destructor', 00H			; `string'
CONST	ENDS
;	COMDAT ??_C@_0HD@JJCHHHNK@C?3?2Program?5Files?5?$CIx86?$CJ?2Microsof@
CONST	SEGMENT
??_C@_0HD@JJCHHHNK@C?3?2Program?5Files?5?$CIx86?$CJ?2Microsof@ DB 'C:\Pro'
	DB	'gram Files (x86)\Microsoft Visual Studio\2019\Community\VC\To'
	DB	'ols\MSVC\14.29.30133\atlmfc\include\afxwin1.inl', 00H ; `string'
CONST	ENDS
;	COMDAT ??_7CBrush@@6B@
CONST	SEGMENT
??_7CBrush@@6B@ DD FLAT:??_R4CBrush@@6B@		; CBrush::`vftable'
	DD	FLAT:?GetRuntimeClass@CBrush@@UBEPAUCRuntimeClass@@XZ
	DD	FLAT:??_ECBrush@@UAEPAXI@Z
	DD	FLAT:?Serialize@CObject@@UAEXAAVCArchive@@@Z
	DD	FLAT:?AssertValid@CObject@@UBEXXZ
	DD	FLAT:?Dump@CObject@@UBEXAAVCDumpContext@@@Z
CONST	ENDS
;	COMDAT ??_7CPen@@6B@
CONST	SEGMENT
??_7CPen@@6B@ DD FLAT:??_R4CPen@@6B@			; CPen::`vftable'
	DD	FLAT:?GetRuntimeClass@CPen@@UBEPAUCRuntimeClass@@XZ
	DD	FLAT:??_ECPen@@UAEPAXI@Z
	DD	FLAT:?Serialize@CObject@@UAEXAAVCArchive@@@Z
	DD	FLAT:?AssertValid@CObject@@UBEXXZ
	DD	FLAT:?Dump@CObject@@UBEXAAVCDumpContext@@@Z
CONST	ENDS
;	COMDAT ??_7CGdiObject@@6B@
CONST	SEGMENT
??_7CGdiObject@@6B@ DD FLAT:??_R4CGdiObject@@6B@	; CGdiObject::`vftable'
	DD	FLAT:?GetRuntimeClass@CGdiObject@@UBEPAUCRuntimeClass@@XZ
	DD	FLAT:??_ECGdiObject@@UAEPAXI@Z
	DD	FLAT:?Serialize@CObject@@UAEXAAVCArchive@@@Z
	DD	FLAT:?AssertValid@CObject@@UBEXXZ
	DD	FLAT:?Dump@CObject@@UBEXAAVCDumpContext@@@Z
CONST	ENDS
;	COMDAT ??_C@_01HMGJMAIH@B@
CONST	SEGMENT
??_C@_01HMGJMAIH@B@ DB 'B', 00H				; `string'
CONST	ENDS
;	COMDAT ??_R0PAVCException@@@8
data$r	SEGMENT
??_R0PAVCException@@@8 DD FLAT:??_7type_info@@6B@	; CException * `RTTI Type Descriptor'
	DD	00H
	DB	'.PAVCException@@', 00H
data$r	ENDS
;	COMDAT xdata$x
xdata$x	SEGMENT
__unwindtable$??_G?$CList@PAU__POSITION@@PAU1@@@UAEPAXI@Z DD 0ffffffffH
	DD	FLAT:___std_terminate
__ehfuncinfo$??_G?$CList@PAU__POSITION@@PAU1@@@UAEPAXI@Z DD 019930522H
	DD	01H
	DD	FLAT:__unwindtable$??_G?$CList@PAU__POSITION@@PAU1@@@UAEPAXI@Z
	DD	2 DUP(00H)
	DD	2 DUP(00H)
	DD	00H
	DD	05H
xdata$x	ENDS
;	COMDAT xdata$x
xdata$x	SEGMENT
__ehfuncinfo$??1?$CList@PAU__POSITION@@PAU1@@@UAE@XZ DD 019930522H
	DD	00H
	DD	00H
	DD	2 DUP(00H)
	DD	2 DUP(00H)
	DD	00H
	DD	05H
xdata$x	ENDS
;	COMDAT xdata$x
xdata$x	SEGMENT
__ehfuncinfo$?DrawGroupBar@CFundDraw@@AAE_NPAVCDC@@ABVCEtcGraphColor@@ABVCRect@@ABVCGraphColor@@HHHABN4ABV?$CList@PAVCPacket@@PAV1@@@VCPenThickness@@@Z DD 019930522H
	DD	0bH
	DD	FLAT:__unwindtable$?DrawGroupBar@CFundDraw@@AAE_NPAVCDC@@ABVCEtcGraphColor@@ABVCRect@@ABVCGraphColor@@HHHABN4ABV?$CList@PAVCPacket@@PAV1@@@VCPenThickness@@@Z
	DD	2 DUP(00H)
	DD	2 DUP(00H)
	DD	00H
	DD	01H
__unwindtable$?DrawGroupBar@CFundDraw@@AAE_NPAVCDC@@ABVCEtcGraphColor@@ABVCRect@@ABVCGraphColor@@HHHABN4ABV?$CList@PAVCPacket@@PAV1@@@VCPenThickness@@@Z DD 0ffffffffH
	DD	FLAT:__unwindfunclet$?DrawGroupBar@CFundDraw@@AAE_NPAVCDC@@ABVCEtcGraphColor@@ABVCRect@@ABVCGraphColor@@HHHABN4ABV?$CList@PAVCPacket@@PAV1@@@VCPenThickness@@@Z$0
	DD	00H
	DD	FLAT:__unwindfunclet$?DrawGroupBar@CFundDraw@@AAE_NPAVCDC@@ABVCEtcGraphColor@@ABVCRect@@ABVCGraphColor@@HHHABN4ABV?$CList@PAVCPacket@@PAV1@@@VCPenThickness@@@Z$1
	DD	01H
	DD	FLAT:__unwindfunclet$?DrawGroupBar@CFundDraw@@AAE_NPAVCDC@@ABVCEtcGraphColor@@ABVCRect@@ABVCGraphColor@@HHHABN4ABV?$CList@PAVCPacket@@PAV1@@@VCPenThickness@@@Z$2
	DD	02H
	DD	FLAT:__unwindfunclet$?DrawGroupBar@CFundDraw@@AAE_NPAVCDC@@ABVCEtcGraphColor@@ABVCRect@@ABVCGraphColor@@HHHABN4ABV?$CList@PAVCPacket@@PAV1@@@VCPenThickness@@@Z$3
	DD	03H
	DD	FLAT:__unwindfunclet$?DrawGroupBar@CFundDraw@@AAE_NPAVCDC@@ABVCEtcGraphColor@@ABVCRect@@ABVCGraphColor@@HHHABN4ABV?$CList@PAVCPacket@@PAV1@@@VCPenThickness@@@Z$4
	DD	04H
	DD	FLAT:__unwindfunclet$?DrawGroupBar@CFundDraw@@AAE_NPAVCDC@@ABVCEtcGraphColor@@ABVCRect@@ABVCGraphColor@@HHHABN4ABV?$CList@PAVCPacket@@PAV1@@@VCPenThickness@@@Z$5
	DD	05H
	DD	FLAT:__unwindfunclet$?DrawGroupBar@CFundDraw@@AAE_NPAVCDC@@ABVCEtcGraphColor@@ABVCRect@@ABVCGraphColor@@HHHABN4ABV?$CList@PAVCPacket@@PAV1@@@VCPenThickness@@@Z$6
	DD	06H
	DD	FLAT:__unwindfunclet$?DrawGroupBar@CFundDraw@@AAE_NPAVCDC@@ABVCEtcGraphColor@@ABVCRect@@ABVCGraphColor@@HHHABN4ABV?$CList@PAVCPacket@@PAV1@@@VCPenThickness@@@Z$7
	DD	07H
	DD	FLAT:__unwindfunclet$?DrawGroupBar@CFundDraw@@AAE_NPAVCDC@@ABVCEtcGraphColor@@ABVCRect@@ABVCGraphColor@@HHHABN4ABV?$CList@PAVCPacket@@PAV1@@@VCPenThickness@@@Z$8
	DD	08H
	DD	FLAT:__unwindfunclet$?DrawGroupBar@CFundDraw@@AAE_NPAVCDC@@ABVCEtcGraphColor@@ABVCRect@@ABVCGraphColor@@HHHABN4ABV?$CList@PAVCPacket@@PAV1@@@VCPenThickness@@@Z$9
	DD	09H
	DD	FLAT:__unwindfunclet$?DrawGroupBar@CFundDraw@@AAE_NPAVCDC@@ABVCEtcGraphColor@@ABVCRect@@ABVCGraphColor@@HHHABN4ABV?$CList@PAVCPacket@@PAV1@@@VCPenThickness@@@Z$10
xdata$x	ENDS
;	COMDAT xdata$x
xdata$x	SEGMENT
__ehfuncinfo$?DrawComponentRatio_Bar_Line@CFundDraw@@AAE_NPAVCDC@@ABVCEtcGraphColor@@ABVCRect@@ABVCGraphColor@@HHHABN4ABV?$CList@PAVCPacket@@PAV1@@@VCPenThickness@@@Z DD 019930522H
	DD	021H
	DD	FLAT:__unwindtable$?DrawComponentRatio_Bar_Line@CFundDraw@@AAE_NPAVCDC@@ABVCEtcGraphColor@@ABVCRect@@ABVCGraphColor@@HHHABN4ABV?$CList@PAVCPacket@@PAV1@@@VCPenThickness@@@Z
	DD	2 DUP(00H)
	DD	2 DUP(00H)
	DD	00H
	DD	01H
__unwindtable$?DrawComponentRatio_Bar_Line@CFundDraw@@AAE_NPAVCDC@@ABVCEtcGraphColor@@ABVCRect@@ABVCGraphColor@@HHHABN4ABV?$CList@PAVCPacket@@PAV1@@@VCPenThickness@@@Z DD 0ffffffffH
	DD	FLAT:__unwindfunclet$?DrawComponentRatio_Bar_Line@CFundDraw@@AAE_NPAVCDC@@ABVCEtcGraphColor@@ABVCRect@@ABVCGraphColor@@HHHABN4ABV?$CList@PAVCPacket@@PAV1@@@VCPenThickness@@@Z$0
	DD	00H
	DD	FLAT:__unwindfunclet$?DrawComponentRatio_Bar_Line@CFundDraw@@AAE_NPAVCDC@@ABVCEtcGraphColor@@ABVCRect@@ABVCGraphColor@@HHHABN4ABV?$CList@PAVCPacket@@PAV1@@@VCPenThickness@@@Z$1
	DD	01H
	DD	FLAT:__unwindfunclet$?DrawComponentRatio_Bar_Line@CFundDraw@@AAE_NPAVCDC@@ABVCEtcGraphColor@@ABVCRect@@ABVCGraphColor@@HHHABN4ABV?$CList@PAVCPacket@@PAV1@@@VCPenThickness@@@Z$2
	DD	02H
	DD	FLAT:__unwindfunclet$?DrawComponentRatio_Bar_Line@CFundDraw@@AAE_NPAVCDC@@ABVCEtcGraphColor@@ABVCRect@@ABVCGraphColor@@HHHABN4ABV?$CList@PAVCPacket@@PAV1@@@VCPenThickness@@@Z$3
	DD	03H
	DD	FLAT:__unwindfunclet$?DrawComponentRatio_Bar_Line@CFundDraw@@AAE_NPAVCDC@@ABVCEtcGraphColor@@ABVCRect@@ABVCGraphColor@@HHHABN4ABV?$CList@PAVCPacket@@PAV1@@@VCPenThickness@@@Z$4
	DD	04H
	DD	FLAT:__unwindfunclet$?DrawComponentRatio_Bar_Line@CFundDraw@@AAE_NPAVCDC@@ABVCEtcGraphColor@@ABVCRect@@ABVCGraphColor@@HHHABN4ABV?$CList@PAVCPacket@@PAV1@@@VCPenThickness@@@Z$5
	DD	05H
	DD	FLAT:__unwindfunclet$?DrawComponentRatio_Bar_Line@CFundDraw@@AAE_NPAVCDC@@ABVCEtcGraphColor@@ABVCRect@@ABVCGraphColor@@HHHABN4ABV?$CList@PAVCPacket@@PAV1@@@VCPenThickness@@@Z$6
	DD	06H
	DD	FLAT:__unwindfunclet$?DrawComponentRatio_Bar_Line@CFundDraw@@AAE_NPAVCDC@@ABVCEtcGraphColor@@ABVCRect@@ABVCGraphColor@@HHHABN4ABV?$CList@PAVCPacket@@PAV1@@@VCPenThickness@@@Z$7
	DD	07H
	DD	FLAT:__unwindfunclet$?DrawComponentRatio_Bar_Line@CFundDraw@@AAE_NPAVCDC@@ABVCEtcGraphColor@@ABVCRect@@ABVCGraphColor@@HHHABN4ABV?$CList@PAVCPacket@@PAV1@@@VCPenThickness@@@Z$8
	DD	08H
	DD	FLAT:__unwindfunclet$?DrawComponentRatio_Bar_Line@CFundDraw@@AAE_NPAVCDC@@ABVCEtcGraphColor@@ABVCRect@@ABVCGraphColor@@HHHABN4ABV?$CList@PAVCPacket@@PAV1@@@VCPenThickness@@@Z$9
	DD	09H
	DD	FLAT:__unwindfunclet$?DrawComponentRatio_Bar_Line@CFundDraw@@AAE_NPAVCDC@@ABVCEtcGraphColor@@ABVCRect@@ABVCGraphColor@@HHHABN4ABV?$CList@PAVCPacket@@PAV1@@@VCPenThickness@@@Z$10
	DD	0aH
	DD	FLAT:__unwindfunclet$?DrawComponentRatio_Bar_Line@CFundDraw@@AAE_NPAVCDC@@ABVCEtcGraphColor@@ABVCRect@@ABVCGraphColor@@HHHABN4ABV?$CList@PAVCPacket@@PAV1@@@VCPenThickness@@@Z$11
	DD	0bH
	DD	FLAT:__unwindfunclet$?DrawComponentRatio_Bar_Line@CFundDraw@@AAE_NPAVCDC@@ABVCEtcGraphColor@@ABVCRect@@ABVCGraphColor@@HHHABN4ABV?$CList@PAVCPacket@@PAV1@@@VCPenThickness@@@Z$12
	DD	0cH
	DD	FLAT:__unwindfunclet$?DrawComponentRatio_Bar_Line@CFundDraw@@AAE_NPAVCDC@@ABVCEtcGraphColor@@ABVCRect@@ABVCGraphColor@@HHHABN4ABV?$CList@PAVCPacket@@PAV1@@@VCPenThickness@@@Z$13
	DD	0dH
	DD	FLAT:__unwindfunclet$?DrawComponentRatio_Bar_Line@CFundDraw@@AAE_NPAVCDC@@ABVCEtcGraphColor@@ABVCRect@@ABVCGraphColor@@HHHABN4ABV?$CList@PAVCPacket@@PAV1@@@VCPenThickness@@@Z$14
	DD	0eH
	DD	FLAT:__unwindfunclet$?DrawComponentRatio_Bar_Line@CFundDraw@@AAE_NPAVCDC@@ABVCEtcGraphColor@@ABVCRect@@ABVCGraphColor@@HHHABN4ABV?$CList@PAVCPacket@@PAV1@@@VCPenThickness@@@Z$15
	DD	0fH
	DD	FLAT:__unwindfunclet$?DrawComponentRatio_Bar_Line@CFundDraw@@AAE_NPAVCDC@@ABVCEtcGraphColor@@ABVCRect@@ABVCGraphColor@@HHHABN4ABV?$CList@PAVCPacket@@PAV1@@@VCPenThickness@@@Z$16
	DD	010H
	DD	FLAT:__unwindfunclet$?DrawComponentRatio_Bar_Line@CFundDraw@@AAE_NPAVCDC@@ABVCEtcGraphColor@@ABVCRect@@ABVCGraphColor@@HHHABN4ABV?$CList@PAVCPacket@@PAV1@@@VCPenThickness@@@Z$17
	DD	011H
	DD	FLAT:__unwindfunclet$?DrawComponentRatio_Bar_Line@CFundDraw@@AAE_NPAVCDC@@ABVCEtcGraphColor@@ABVCRect@@ABVCGraphColor@@HHHABN4ABV?$CList@PAVCPacket@@PAV1@@@VCPenThickness@@@Z$18
	DD	012H
	DD	FLAT:__unwindfunclet$?DrawComponentRatio_Bar_Line@CFundDraw@@AAE_NPAVCDC@@ABVCEtcGraphColor@@ABVCRect@@ABVCGraphColor@@HHHABN4ABV?$CList@PAVCPacket@@PAV1@@@VCPenThickness@@@Z$19
	DD	013H
	DD	FLAT:__unwindfunclet$?DrawComponentRatio_Bar_Line@CFundDraw@@AAE_NPAVCDC@@ABVCEtcGraphColor@@ABVCRect@@ABVCGraphColor@@HHHABN4ABV?$CList@PAVCPacket@@PAV1@@@VCPenThickness@@@Z$20
	DD	014H
	DD	FLAT:__unwindfunclet$?DrawComponentRatio_Bar_Line@CFundDraw@@AAE_NPAVCDC@@ABVCEtcGraphColor@@ABVCRect@@ABVCGraphColor@@HHHABN4ABV?$CList@PAVCPacket@@PAV1@@@VCPenThickness@@@Z$21
	DD	015H
	DD	FLAT:__unwindfunclet$?DrawComponentRatio_Bar_Line@CFundDraw@@AAE_NPAVCDC@@ABVCEtcGraphColor@@ABVCRect@@ABVCGraphColor@@HHHABN4ABV?$CList@PAVCPacket@@PAV1@@@VCPenThickness@@@Z$22
	DD	016H
	DD	FLAT:__unwindfunclet$?DrawComponentRatio_Bar_Line@CFundDraw@@AAE_NPAVCDC@@ABVCEtcGraphColor@@ABVCRect@@ABVCGraphColor@@HHHABN4ABV?$CList@PAVCPacket@@PAV1@@@VCPenThickness@@@Z$23
	DD	017H
	DD	FLAT:__unwindfunclet$?DrawComponentRatio_Bar_Line@CFundDraw@@AAE_NPAVCDC@@ABVCEtcGraphColor@@ABVCRect@@ABVCGraphColor@@HHHABN4ABV?$CList@PAVCPacket@@PAV1@@@VCPenThickness@@@Z$24
	DD	016H
	DD	FLAT:__unwindfunclet$?DrawComponentRatio_Bar_Line@CFundDraw@@AAE_NPAVCDC@@ABVCEtcGraphColor@@ABVCRect@@ABVCGraphColor@@HHHABN4ABV?$CList@PAVCPacket@@PAV1@@@VCPenThickness@@@Z$24
	DD	015H
	DD	FLAT:__unwindfunclet$?DrawComponentRatio_Bar_Line@CFundDraw@@AAE_NPAVCDC@@ABVCEtcGraphColor@@ABVCRect@@ABVCGraphColor@@HHHABN4ABV?$CList@PAVCPacket@@PAV1@@@VCPenThickness@@@Z$24
	DD	01aH
	DD	FLAT:__unwindfunclet$?DrawComponentRatio_Bar_Line@CFundDraw@@AAE_NPAVCDC@@ABVCEtcGraphColor@@ABVCRect@@ABVCGraphColor@@HHHABN4ABV?$CList@PAVCPacket@@PAV1@@@VCPenThickness@@@Z$25
	DD	01bH
	DD	FLAT:__unwindfunclet$?DrawComponentRatio_Bar_Line@CFundDraw@@AAE_NPAVCDC@@ABVCEtcGraphColor@@ABVCRect@@ABVCGraphColor@@HHHABN4ABV?$CList@PAVCPacket@@PAV1@@@VCPenThickness@@@Z$26
	DD	01cH
	DD	FLAT:__unwindfunclet$?DrawComponentRatio_Bar_Line@CFundDraw@@AAE_NPAVCDC@@ABVCEtcGraphColor@@ABVCRect@@ABVCGraphColor@@HHHABN4ABV?$CList@PAVCPacket@@PAV1@@@VCPenThickness@@@Z$27
	DD	01bH
	DD	FLAT:__unwindfunclet$?DrawComponentRatio_Bar_Line@CFundDraw@@AAE_NPAVCDC@@ABVCEtcGraphColor@@ABVCRect@@ABVCGraphColor@@HHHABN4ABV?$CList@PAVCPacket@@PAV1@@@VCPenThickness@@@Z$27
	DD	01aH
	DD	FLAT:__unwindfunclet$?DrawComponentRatio_Bar_Line@CFundDraw@@AAE_NPAVCDC@@ABVCEtcGraphColor@@ABVCRect@@ABVCGraphColor@@HHHABN4ABV?$CList@PAVCPacket@@PAV1@@@VCPenThickness@@@Z$27
	DD	0ffffffffH
	DD	FLAT:___std_terminate
xdata$x	ENDS
;	COMDAT xdata$x
xdata$x	SEGMENT
__unwindtable$?DrawComponentRatio_Pie@CFundDraw@@AAE_NPAVCDC@@ABVCRect@@ABVCDisplayAttributes@@ABVCDrawingGraphData@@ABVCSubGraphData@@@Z DD 0ffffffffH
	DD	FLAT:__unwindfunclet$?DrawComponentRatio_Pie@CFundDraw@@AAE_NPAVCDC@@ABVCRect@@ABVCDisplayAttributes@@ABVCDrawingGraphData@@ABVCSubGraphData@@@Z$0
__ehfuncinfo$?DrawComponentRatio_Pie@CFundDraw@@AAE_NPAVCDC@@ABVCRect@@ABVCDisplayAttributes@@ABVCDrawingGraphData@@ABVCSubGraphData@@@Z DD 019930522H
	DD	01H
	DD	FLAT:__unwindtable$?DrawComponentRatio_Pie@CFundDraw@@AAE_NPAVCDC@@ABVCRect@@ABVCDisplayAttributes@@ABVCDrawingGraphData@@ABVCSubGraphData@@@Z
	DD	2 DUP(00H)
	DD	2 DUP(00H)
	DD	00H
	DD	01H
xdata$x	ENDS
;	COMDAT xdata$x
xdata$x	SEGMENT
__unwindtable$?DrawFundMarketDispersion@CFundDraw@@AAE_NPAVCDC@@ABVCEtcGraphColor@@ABVCRect@@ABVCGraphColor@@HABN4ABV?$CList@PAVCPacket@@PAV1@@@VCPenThickness@@@Z DD 0ffffffffH
	DD	FLAT:__unwindfunclet$?DrawFundMarketDispersion@CFundDraw@@AAE_NPAVCDC@@ABVCEtcGraphColor@@ABVCRect@@ABVCGraphColor@@HABN4ABV?$CList@PAVCPacket@@PAV1@@@VCPenThickness@@@Z$0
	DD	00H
	DD	FLAT:__unwindfunclet$?DrawFundMarketDispersion@CFundDraw@@AAE_NPAVCDC@@ABVCEtcGraphColor@@ABVCRect@@ABVCGraphColor@@HABN4ABV?$CList@PAVCPacket@@PAV1@@@VCPenThickness@@@Z$1
	DD	01H
	DD	FLAT:__unwindfunclet$?DrawFundMarketDispersion@CFundDraw@@AAE_NPAVCDC@@ABVCEtcGraphColor@@ABVCRect@@ABVCGraphColor@@HABN4ABV?$CList@PAVCPacket@@PAV1@@@VCPenThickness@@@Z$2
__ehfuncinfo$?DrawFundMarketDispersion@CFundDraw@@AAE_NPAVCDC@@ABVCEtcGraphColor@@ABVCRect@@ABVCGraphColor@@HABN4ABV?$CList@PAVCPacket@@PAV1@@@VCPenThickness@@@Z DD 019930522H
	DD	03H
	DD	FLAT:__unwindtable$?DrawFundMarketDispersion@CFundDraw@@AAE_NPAVCDC@@ABVCEtcGraphColor@@ABVCRect@@ABVCGraphColor@@HABN4ABV?$CList@PAVCPacket@@PAV1@@@VCPenThickness@@@Z
	DD	2 DUP(00H)
	DD	2 DUP(00H)
	DD	00H
	DD	01H
xdata$x	ENDS
;	COMDAT xdata$x
xdata$x	SEGMENT
__ehfuncinfo$?DrawReturnRiskDispersion@CFundDraw@@AAE_NPAVCDC@@ABVCEtcGraphColor@@ABVCRect@@ABVCGraphColor@@HABN444ABV?$CList@PAVCPacket@@PAV1@@@@Z DD 019930522H
	DD	06H
	DD	FLAT:__unwindtable$?DrawReturnRiskDispersion@CFundDraw@@AAE_NPAVCDC@@ABVCEtcGraphColor@@ABVCRect@@ABVCGraphColor@@HABN444ABV?$CList@PAVCPacket@@PAV1@@@@Z
	DD	2 DUP(00H)
	DD	2 DUP(00H)
	DD	00H
	DD	01H
__unwindtable$?DrawReturnRiskDispersion@CFundDraw@@AAE_NPAVCDC@@ABVCEtcGraphColor@@ABVCRect@@ABVCGraphColor@@HABN444ABV?$CList@PAVCPacket@@PAV1@@@@Z DD 0ffffffffH
	DD	FLAT:__unwindfunclet$?DrawReturnRiskDispersion@CFundDraw@@AAE_NPAVCDC@@ABVCEtcGraphColor@@ABVCRect@@ABVCGraphColor@@HABN444ABV?$CList@PAVCPacket@@PAV1@@@@Z$0
	DD	00H
	DD	FLAT:__unwindfunclet$?DrawReturnRiskDispersion@CFundDraw@@AAE_NPAVCDC@@ABVCEtcGraphColor@@ABVCRect@@ABVCGraphColor@@HABN444ABV?$CList@PAVCPacket@@PAV1@@@@Z$1
	DD	01H
	DD	FLAT:__unwindfunclet$?DrawReturnRiskDispersion@CFundDraw@@AAE_NPAVCDC@@ABVCEtcGraphColor@@ABVCRect@@ABVCGraphColor@@HABN444ABV?$CList@PAVCPacket@@PAV1@@@@Z$2
	DD	02H
	DD	FLAT:__unwindfunclet$?DrawReturnRiskDispersion@CFundDraw@@AAE_NPAVCDC@@ABVCEtcGraphColor@@ABVCRect@@ABVCGraphColor@@HABN444ABV?$CList@PAVCPacket@@PAV1@@@@Z$3
	DD	03H
	DD	FLAT:__unwindfunclet$?DrawReturnRiskDispersion@CFundDraw@@AAE_NPAVCDC@@ABVCEtcGraphColor@@ABVCRect@@ABVCGraphColor@@HABN444ABV?$CList@PAVCPacket@@PAV1@@@@Z$4
	DD	04H
	DD	FLAT:__unwindfunclet$?DrawReturnRiskDispersion@CFundDraw@@AAE_NPAVCDC@@ABVCEtcGraphColor@@ABVCRect@@ABVCGraphColor@@HABN444ABV?$CList@PAVCPacket@@PAV1@@@@Z$5
xdata$x	ENDS
;	COMDAT xdata$x
xdata$x	SEGMENT
__ehfuncinfo$?DrawComponentRatio_Line@CFundDraw@@AAE_NPAVCDC@@ABVCEtcGraphColor@@ABVCRect@@ABVCGraphColor@@HHHABN4ABV?$CList@PAVCPacket@@PAV1@@@VCPenThickness@@@Z DD 019930522H
	DD	020H
	DD	FLAT:__unwindtable$?DrawComponentRatio_Line@CFundDraw@@AAE_NPAVCDC@@ABVCEtcGraphColor@@ABVCRect@@ABVCGraphColor@@HHHABN4ABV?$CList@PAVCPacket@@PAV1@@@VCPenThickness@@@Z
	DD	2 DUP(00H)
	DD	2 DUP(00H)
	DD	00H
	DD	01H
__unwindtable$?DrawComponentRatio_Line@CFundDraw@@AAE_NPAVCDC@@ABVCEtcGraphColor@@ABVCRect@@ABVCGraphColor@@HHHABN4ABV?$CList@PAVCPacket@@PAV1@@@VCPenThickness@@@Z DD 0ffffffffH
	DD	FLAT:__unwindfunclet$?DrawComponentRatio_Line@CFundDraw@@AAE_NPAVCDC@@ABVCEtcGraphColor@@ABVCRect@@ABVCGraphColor@@HHHABN4ABV?$CList@PAVCPacket@@PAV1@@@VCPenThickness@@@Z$0
	DD	00H
	DD	FLAT:__unwindfunclet$?DrawComponentRatio_Line@CFundDraw@@AAE_NPAVCDC@@ABVCEtcGraphColor@@ABVCRect@@ABVCGraphColor@@HHHABN4ABV?$CList@PAVCPacket@@PAV1@@@VCPenThickness@@@Z$1
	DD	01H
	DD	FLAT:__unwindfunclet$?DrawComponentRatio_Line@CFundDraw@@AAE_NPAVCDC@@ABVCEtcGraphColor@@ABVCRect@@ABVCGraphColor@@HHHABN4ABV?$CList@PAVCPacket@@PAV1@@@VCPenThickness@@@Z$2
	DD	02H
	DD	FLAT:__unwindfunclet$?DrawComponentRatio_Line@CFundDraw@@AAE_NPAVCDC@@ABVCEtcGraphColor@@ABVCRect@@ABVCGraphColor@@HHHABN4ABV?$CList@PAVCPacket@@PAV1@@@VCPenThickness@@@Z$3
	DD	03H
	DD	FLAT:__unwindfunclet$?DrawComponentRatio_Line@CFundDraw@@AAE_NPAVCDC@@ABVCEtcGraphColor@@ABVCRect@@ABVCGraphColor@@HHHABN4ABV?$CList@PAVCPacket@@PAV1@@@VCPenThickness@@@Z$4
	DD	04H
	DD	FLAT:__unwindfunclet$?DrawComponentRatio_Line@CFundDraw@@AAE_NPAVCDC@@ABVCEtcGraphColor@@ABVCRect@@ABVCGraphColor@@HHHABN4ABV?$CList@PAVCPacket@@PAV1@@@VCPenThickness@@@Z$5
	DD	05H
	DD	FLAT:__unwindfunclet$?DrawComponentRatio_Line@CFundDraw@@AAE_NPAVCDC@@ABVCEtcGraphColor@@ABVCRect@@ABVCGraphColor@@HHHABN4ABV?$CList@PAVCPacket@@PAV1@@@VCPenThickness@@@Z$6
	DD	06H
	DD	FLAT:__unwindfunclet$?DrawComponentRatio_Line@CFundDraw@@AAE_NPAVCDC@@ABVCEtcGraphColor@@ABVCRect@@ABVCGraphColor@@HHHABN4ABV?$CList@PAVCPacket@@PAV1@@@VCPenThickness@@@Z$7
	DD	07H
	DD	FLAT:__unwindfunclet$?DrawComponentRatio_Line@CFundDraw@@AAE_NPAVCDC@@ABVCEtcGraphColor@@ABVCRect@@ABVCGraphColor@@HHHABN4ABV?$CList@PAVCPacket@@PAV1@@@VCPenThickness@@@Z$8
	DD	08H
	DD	FLAT:__unwindfunclet$?DrawComponentRatio_Line@CFundDraw@@AAE_NPAVCDC@@ABVCEtcGraphColor@@ABVCRect@@ABVCGraphColor@@HHHABN4ABV?$CList@PAVCPacket@@PAV1@@@VCPenThickness@@@Z$9
	DD	09H
	DD	FLAT:__unwindfunclet$?DrawComponentRatio_Line@CFundDraw@@AAE_NPAVCDC@@ABVCEtcGraphColor@@ABVCRect@@ABVCGraphColor@@HHHABN4ABV?$CList@PAVCPacket@@PAV1@@@VCPenThickness@@@Z$10
	DD	0aH
	DD	FLAT:__unwindfunclet$?DrawComponentRatio_Line@CFundDraw@@AAE_NPAVCDC@@ABVCEtcGraphColor@@ABVCRect@@ABVCGraphColor@@HHHABN4ABV?$CList@PAVCPacket@@PAV1@@@VCPenThickness@@@Z$11
	DD	0bH
	DD	FLAT:__unwindfunclet$?DrawComponentRatio_Line@CFundDraw@@AAE_NPAVCDC@@ABVCEtcGraphColor@@ABVCRect@@ABVCGraphColor@@HHHABN4ABV?$CList@PAVCPacket@@PAV1@@@VCPenThickness@@@Z$12
	DD	0cH
	DD	FLAT:__unwindfunclet$?DrawComponentRatio_Line@CFundDraw@@AAE_NPAVCDC@@ABVCEtcGraphColor@@ABVCRect@@ABVCGraphColor@@HHHABN4ABV?$CList@PAVCPacket@@PAV1@@@VCPenThickness@@@Z$13
	DD	0dH
	DD	FLAT:__unwindfunclet$?DrawComponentRatio_Line@CFundDraw@@AAE_NPAVCDC@@ABVCEtcGraphColor@@ABVCRect@@ABVCGraphColor@@HHHABN4ABV?$CList@PAVCPacket@@PAV1@@@VCPenThickness@@@Z$14
	DD	0eH
	DD	FLAT:__unwindfunclet$?DrawComponentRatio_Line@CFundDraw@@AAE_NPAVCDC@@ABVCEtcGraphColor@@ABVCRect@@ABVCGraphColor@@HHHABN4ABV?$CList@PAVCPacket@@PAV1@@@VCPenThickness@@@Z$15
	DD	0fH
	DD	FLAT:__unwindfunclet$?DrawComponentRatio_Line@CFundDraw@@AAE_NPAVCDC@@ABVCEtcGraphColor@@ABVCRect@@ABVCGraphColor@@HHHABN4ABV?$CList@PAVCPacket@@PAV1@@@VCPenThickness@@@Z$16
	DD	010H
	DD	FLAT:__unwindfunclet$?DrawComponentRatio_Line@CFundDraw@@AAE_NPAVCDC@@ABVCEtcGraphColor@@ABVCRect@@ABVCGraphColor@@HHHABN4ABV?$CList@PAVCPacket@@PAV1@@@VCPenThickness@@@Z$17
	DD	011H
	DD	FLAT:__unwindfunclet$?DrawComponentRatio_Line@CFundDraw@@AAE_NPAVCDC@@ABVCEtcGraphColor@@ABVCRect@@ABVCGraphColor@@HHHABN4ABV?$CList@PAVCPacket@@PAV1@@@VCPenThickness@@@Z$18
	DD	012H
	DD	FLAT:__unwindfunclet$?DrawComponentRatio_Line@CFundDraw@@AAE_NPAVCDC@@ABVCEtcGraphColor@@ABVCRect@@ABVCGraphColor@@HHHABN4ABV?$CList@PAVCPacket@@PAV1@@@VCPenThickness@@@Z$19
	DD	013H
	DD	FLAT:__unwindfunclet$?DrawComponentRatio_Line@CFundDraw@@AAE_NPAVCDC@@ABVCEtcGraphColor@@ABVCRect@@ABVCGraphColor@@HHHABN4ABV?$CList@PAVCPacket@@PAV1@@@VCPenThickness@@@Z$20
	DD	014H
	DD	FLAT:__unwindfunclet$?DrawComponentRatio_Line@CFundDraw@@AAE_NPAVCDC@@ABVCEtcGraphColor@@ABVCRect@@ABVCGraphColor@@HHHABN4ABV?$CList@PAVCPacket@@PAV1@@@VCPenThickness@@@Z$21
	DD	015H
	DD	FLAT:__unwindfunclet$?DrawComponentRatio_Line@CFundDraw@@AAE_NPAVCDC@@ABVCEtcGraphColor@@ABVCRect@@ABVCGraphColor@@HHHABN4ABV?$CList@PAVCPacket@@PAV1@@@VCPenThickness@@@Z$22
	DD	016H
	DD	FLAT:__unwindfunclet$?DrawComponentRatio_Line@CFundDraw@@AAE_NPAVCDC@@ABVCEtcGraphColor@@ABVCRect@@ABVCGraphColor@@HHHABN4ABV?$CList@PAVCPacket@@PAV1@@@VCPenThickness@@@Z$23
	DD	015H
	DD	FLAT:__unwindfunclet$?DrawComponentRatio_Line@CFundDraw@@AAE_NPAVCDC@@ABVCEtcGraphColor@@ABVCRect@@ABVCGraphColor@@HHHABN4ABV?$CList@PAVCPacket@@PAV1@@@VCPenThickness@@@Z$23
	DD	014H
	DD	FLAT:__unwindfunclet$?DrawComponentRatio_Line@CFundDraw@@AAE_NPAVCDC@@ABVCEtcGraphColor@@ABVCRect@@ABVCGraphColor@@HHHABN4ABV?$CList@PAVCPacket@@PAV1@@@VCPenThickness@@@Z$23
	DD	019H
	DD	FLAT:__unwindfunclet$?DrawComponentRatio_Line@CFundDraw@@AAE_NPAVCDC@@ABVCEtcGraphColor@@ABVCRect@@ABVCGraphColor@@HHHABN4ABV?$CList@PAVCPacket@@PAV1@@@VCPenThickness@@@Z$24
	DD	01aH
	DD	FLAT:__unwindfunclet$?DrawComponentRatio_Line@CFundDraw@@AAE_NPAVCDC@@ABVCEtcGraphColor@@ABVCRect@@ABVCGraphColor@@HHHABN4ABV?$CList@PAVCPacket@@PAV1@@@VCPenThickness@@@Z$25
	DD	01bH
	DD	FLAT:__unwindfunclet$?DrawComponentRatio_Line@CFundDraw@@AAE_NPAVCDC@@ABVCEtcGraphColor@@ABVCRect@@ABVCGraphColor@@HHHABN4ABV?$CList@PAVCPacket@@PAV1@@@VCPenThickness@@@Z$26
	DD	01aH
	DD	FLAT:__unwindfunclet$?DrawComponentRatio_Line@CFundDraw@@AAE_NPAVCDC@@ABVCEtcGraphColor@@ABVCRect@@ABVCGraphColor@@HHHABN4ABV?$CList@PAVCPacket@@PAV1@@@VCPenThickness@@@Z$26
	DD	019H
	DD	FLAT:__unwindfunclet$?DrawComponentRatio_Line@CFundDraw@@AAE_NPAVCDC@@ABVCEtcGraphColor@@ABVCRect@@ABVCGraphColor@@HHHABN4ABV?$CList@PAVCPacket@@PAV1@@@VCPenThickness@@@Z$26
	DD	0ffffffffH
	DD	FLAT:___std_terminate
xdata$x	ENDS
;	COMDAT xdata$x
xdata$x	SEGMENT
__ehfuncinfo$?DrawReturnRiskGrade@CFundDraw@@AAE_NPAVCDC@@ABVCEtcGraphColor@@ABVCRect@@ABVCGraphColor@@HABN4ABV?$CList@PAVCPacket@@PAV1@@@VCPenThickness@@@Z DD 019930522H
	DD	05H
	DD	FLAT:__unwindtable$?DrawReturnRiskGrade@CFundDraw@@AAE_NPAVCDC@@ABVCEtcGraphColor@@ABVCRect@@ABVCGraphColor@@HABN4ABV?$CList@PAVCPacket@@PAV1@@@VCPenThickness@@@Z
	DD	2 DUP(00H)
	DD	2 DUP(00H)
	DD	00H
	DD	01H
__unwindtable$?DrawReturnRiskGrade@CFundDraw@@AAE_NPAVCDC@@ABVCEtcGraphColor@@ABVCRect@@ABVCGraphColor@@HABN4ABV?$CList@PAVCPacket@@PAV1@@@VCPenThickness@@@Z DD 0ffffffffH
	DD	FLAT:__unwindfunclet$?DrawReturnRiskGrade@CFundDraw@@AAE_NPAVCDC@@ABVCEtcGraphColor@@ABVCRect@@ABVCGraphColor@@HABN4ABV?$CList@PAVCPacket@@PAV1@@@VCPenThickness@@@Z$0
	DD	00H
	DD	FLAT:__unwindfunclet$?DrawReturnRiskGrade@CFundDraw@@AAE_NPAVCDC@@ABVCEtcGraphColor@@ABVCRect@@ABVCGraphColor@@HABN4ABV?$CList@PAVCPacket@@PAV1@@@VCPenThickness@@@Z$1
	DD	01H
	DD	FLAT:__unwindfunclet$?DrawReturnRiskGrade@CFundDraw@@AAE_NPAVCDC@@ABVCEtcGraphColor@@ABVCRect@@ABVCGraphColor@@HABN4ABV?$CList@PAVCPacket@@PAV1@@@VCPenThickness@@@Z$2
	DD	02H
	DD	FLAT:__unwindfunclet$?DrawReturnRiskGrade@CFundDraw@@AAE_NPAVCDC@@ABVCEtcGraphColor@@ABVCRect@@ABVCGraphColor@@HABN4ABV?$CList@PAVCPacket@@PAV1@@@VCPenThickness@@@Z$3
	DD	03H
	DD	FLAT:__unwindfunclet$?DrawReturnRiskGrade@CFundDraw@@AAE_NPAVCDC@@ABVCEtcGraphColor@@ABVCRect@@ABVCGraphColor@@HABN4ABV?$CList@PAVCPacket@@PAV1@@@VCPenThickness@@@Z$4
xdata$x	ENDS
;	COMDAT xdata$x
xdata$x	SEGMENT
__unwindtable$?DrawStyleBox@CFundDraw@@AAE_NPAVCDC@@ABVCEtcGraphColor@@ABVCRect@@ABVCGraphColor@@HABN4ABV?$CList@PAVCPacket@@PAV1@@@VCPenThickness@@@Z DD 0ffffffffH
	DD	FLAT:__unwindfunclet$?DrawStyleBox@CFundDraw@@AAE_NPAVCDC@@ABVCEtcGraphColor@@ABVCRect@@ABVCGraphColor@@HABN4ABV?$CList@PAVCPacket@@PAV1@@@VCPenThickness@@@Z$0
	DD	00H
	DD	FLAT:__unwindfunclet$?DrawStyleBox@CFundDraw@@AAE_NPAVCDC@@ABVCEtcGraphColor@@ABVCRect@@ABVCGraphColor@@HABN4ABV?$CList@PAVCPacket@@PAV1@@@VCPenThickness@@@Z$1
	DD	01H
	DD	FLAT:__unwindfunclet$?DrawStyleBox@CFundDraw@@AAE_NPAVCDC@@ABVCEtcGraphColor@@ABVCRect@@ABVCGraphColor@@HABN4ABV?$CList@PAVCPacket@@PAV1@@@VCPenThickness@@@Z$2
	DD	02H
	DD	FLAT:__unwindfunclet$?DrawStyleBox@CFundDraw@@AAE_NPAVCDC@@ABVCEtcGraphColor@@ABVCRect@@ABVCGraphColor@@HABN4ABV?$CList@PAVCPacket@@PAV1@@@VCPenThickness@@@Z$3
__ehfuncinfo$?DrawStyleBox@CFundDraw@@AAE_NPAVCDC@@ABVCEtcGraphColor@@ABVCRect@@ABVCGraphColor@@HABN4ABV?$CList@PAVCPacket@@PAV1@@@VCPenThickness@@@Z DD 019930522H
	DD	04H
	DD	FLAT:__unwindtable$?DrawStyleBox@CFundDraw@@AAE_NPAVCDC@@ABVCEtcGraphColor@@ABVCRect@@ABVCGraphColor@@HABN4ABV?$CList@PAVCPacket@@PAV1@@@VCPenThickness@@@Z
	DD	2 DUP(00H)
	DD	2 DUP(00H)
	DD	00H
	DD	01H
xdata$x	ENDS
;	COMDAT xdata$x
xdata$x	SEGMENT
__ehfuncinfo$?DrawComponentRatio_Bar@CFundDraw@@AAE_NPAVCDC@@ABVCEtcGraphColor@@ABVCRect@@ABVCGraphColor@@HHHABN4ABV?$CList@PAVCPacket@@PAV1@@@VCPenThickness@@@Z DD 019930522H
	DD	01cH
	DD	FLAT:__unwindtable$?DrawComponentRatio_Bar@CFundDraw@@AAE_NPAVCDC@@ABVCEtcGraphColor@@ABVCRect@@ABVCGraphColor@@HHHABN4ABV?$CList@PAVCPacket@@PAV1@@@VCPenThickness@@@Z
	DD	2 DUP(00H)
	DD	2 DUP(00H)
	DD	00H
	DD	01H
__unwindtable$?DrawComponentRatio_Bar@CFundDraw@@AAE_NPAVCDC@@ABVCEtcGraphColor@@ABVCRect@@ABVCGraphColor@@HHHABN4ABV?$CList@PAVCPacket@@PAV1@@@VCPenThickness@@@Z DD 0ffffffffH
	DD	FLAT:__unwindfunclet$?DrawComponentRatio_Bar@CFundDraw@@AAE_NPAVCDC@@ABVCEtcGraphColor@@ABVCRect@@ABVCGraphColor@@HHHABN4ABV?$CList@PAVCPacket@@PAV1@@@VCPenThickness@@@Z$0
	DD	00H
	DD	FLAT:__unwindfunclet$?DrawComponentRatio_Bar@CFundDraw@@AAE_NPAVCDC@@ABVCEtcGraphColor@@ABVCRect@@ABVCGraphColor@@HHHABN4ABV?$CList@PAVCPacket@@PAV1@@@VCPenThickness@@@Z$1
	DD	01H
	DD	FLAT:__unwindfunclet$?DrawComponentRatio_Bar@CFundDraw@@AAE_NPAVCDC@@ABVCEtcGraphColor@@ABVCRect@@ABVCGraphColor@@HHHABN4ABV?$CList@PAVCPacket@@PAV1@@@VCPenThickness@@@Z$2
	DD	02H
	DD	FLAT:__unwindfunclet$?DrawComponentRatio_Bar@CFundDraw@@AAE_NPAVCDC@@ABVCEtcGraphColor@@ABVCRect@@ABVCGraphColor@@HHHABN4ABV?$CList@PAVCPacket@@PAV1@@@VCPenThickness@@@Z$3
	DD	03H
	DD	FLAT:__unwindfunclet$?DrawComponentRatio_Bar@CFundDraw@@AAE_NPAVCDC@@ABVCEtcGraphColor@@ABVCRect@@ABVCGraphColor@@HHHABN4ABV?$CList@PAVCPacket@@PAV1@@@VCPenThickness@@@Z$4
	DD	04H
	DD	FLAT:__unwindfunclet$?DrawComponentRatio_Bar@CFundDraw@@AAE_NPAVCDC@@ABVCEtcGraphColor@@ABVCRect@@ABVCGraphColor@@HHHABN4ABV?$CList@PAVCPacket@@PAV1@@@VCPenThickness@@@Z$5
	DD	05H
	DD	FLAT:__unwindfunclet$?DrawComponentRatio_Bar@CFundDraw@@AAE_NPAVCDC@@ABVCEtcGraphColor@@ABVCRect@@ABVCGraphColor@@HHHABN4ABV?$CList@PAVCPacket@@PAV1@@@VCPenThickness@@@Z$6
	DD	06H
	DD	FLAT:__unwindfunclet$?DrawComponentRatio_Bar@CFundDraw@@AAE_NPAVCDC@@ABVCEtcGraphColor@@ABVCRect@@ABVCGraphColor@@HHHABN4ABV?$CList@PAVCPacket@@PAV1@@@VCPenThickness@@@Z$7
	DD	07H
	DD	FLAT:__unwindfunclet$?DrawComponentRatio_Bar@CFundDraw@@AAE_NPAVCDC@@ABVCEtcGraphColor@@ABVCRect@@ABVCGraphColor@@HHHABN4ABV?$CList@PAVCPacket@@PAV1@@@VCPenThickness@@@Z$8
	DD	08H
	DD	FLAT:__unwindfunclet$?DrawComponentRatio_Bar@CFundDraw@@AAE_NPAVCDC@@ABVCEtcGraphColor@@ABVCRect@@ABVCGraphColor@@HHHABN4ABV?$CList@PAVCPacket@@PAV1@@@VCPenThickness@@@Z$9
	DD	09H
	DD	FLAT:__unwindfunclet$?DrawComponentRatio_Bar@CFundDraw@@AAE_NPAVCDC@@ABVCEtcGraphColor@@ABVCRect@@ABVCGraphColor@@HHHABN4ABV?$CList@PAVCPacket@@PAV1@@@VCPenThickness@@@Z$10
	DD	0aH
	DD	FLAT:__unwindfunclet$?DrawComponentRatio_Bar@CFundDraw@@AAE_NPAVCDC@@ABVCEtcGraphColor@@ABVCRect@@ABVCGraphColor@@HHHABN4ABV?$CList@PAVCPacket@@PAV1@@@VCPenThickness@@@Z$11
	DD	0bH
	DD	FLAT:__unwindfunclet$?DrawComponentRatio_Bar@CFundDraw@@AAE_NPAVCDC@@ABVCEtcGraphColor@@ABVCRect@@ABVCGraphColor@@HHHABN4ABV?$CList@PAVCPacket@@PAV1@@@VCPenThickness@@@Z$12
	DD	0cH
	DD	FLAT:__unwindfunclet$?DrawComponentRatio_Bar@CFundDraw@@AAE_NPAVCDC@@ABVCEtcGraphColor@@ABVCRect@@ABVCGraphColor@@HHHABN4ABV?$CList@PAVCPacket@@PAV1@@@VCPenThickness@@@Z$13
	DD	0dH
	DD	FLAT:__unwindfunclet$?DrawComponentRatio_Bar@CFundDraw@@AAE_NPAVCDC@@ABVCEtcGraphColor@@ABVCRect@@ABVCGraphColor@@HHHABN4ABV?$CList@PAVCPacket@@PAV1@@@VCPenThickness@@@Z$14
	DD	0eH
	DD	FLAT:__unwindfunclet$?DrawComponentRatio_Bar@CFundDraw@@AAE_NPAVCDC@@ABVCEtcGraphColor@@ABVCRect@@ABVCGraphColor@@HHHABN4ABV?$CList@PAVCPacket@@PAV1@@@VCPenThickness@@@Z$15
	DD	0fH
	DD	FLAT:__unwindfunclet$?DrawComponentRatio_Bar@CFundDraw@@AAE_NPAVCDC@@ABVCEtcGraphColor@@ABVCRect@@ABVCGraphColor@@HHHABN4ABV?$CList@PAVCPacket@@PAV1@@@VCPenThickness@@@Z$16
	DD	010H
	DD	FLAT:__unwindfunclet$?DrawComponentRatio_Bar@CFundDraw@@AAE_NPAVCDC@@ABVCEtcGraphColor@@ABVCRect@@ABVCGraphColor@@HHHABN4ABV?$CList@PAVCPacket@@PAV1@@@VCPenThickness@@@Z$17
	DD	011H
	DD	FLAT:__unwindfunclet$?DrawComponentRatio_Bar@CFundDraw@@AAE_NPAVCDC@@ABVCEtcGraphColor@@ABVCRect@@ABVCGraphColor@@HHHABN4ABV?$CList@PAVCPacket@@PAV1@@@VCPenThickness@@@Z$18
	DD	012H
	DD	FLAT:__unwindfunclet$?DrawComponentRatio_Bar@CFundDraw@@AAE_NPAVCDC@@ABVCEtcGraphColor@@ABVCRect@@ABVCGraphColor@@HHHABN4ABV?$CList@PAVCPacket@@PAV1@@@VCPenThickness@@@Z$19
	DD	013H
	DD	FLAT:__unwindfunclet$?DrawComponentRatio_Bar@CFundDraw@@AAE_NPAVCDC@@ABVCEtcGraphColor@@ABVCRect@@ABVCGraphColor@@HHHABN4ABV?$CList@PAVCPacket@@PAV1@@@VCPenThickness@@@Z$20
	DD	014H
	DD	FLAT:__unwindfunclet$?DrawComponentRatio_Bar@CFundDraw@@AAE_NPAVCDC@@ABVCEtcGraphColor@@ABVCRect@@ABVCGraphColor@@HHHABN4ABV?$CList@PAVCPacket@@PAV1@@@VCPenThickness@@@Z$21
	DD	015H
	DD	FLAT:__unwindfunclet$?DrawComponentRatio_Bar@CFundDraw@@AAE_NPAVCDC@@ABVCEtcGraphColor@@ABVCRect@@ABVCGraphColor@@HHHABN4ABV?$CList@PAVCPacket@@PAV1@@@VCPenThickness@@@Z$22
	DD	016H
	DD	FLAT:__unwindfunclet$?DrawComponentRatio_Bar@CFundDraw@@AAE_NPAVCDC@@ABVCEtcGraphColor@@ABVCRect@@ABVCGraphColor@@HHHABN4ABV?$CList@PAVCPacket@@PAV1@@@VCPenThickness@@@Z$23
	DD	017H
	DD	FLAT:__unwindfunclet$?DrawComponentRatio_Bar@CFundDraw@@AAE_NPAVCDC@@ABVCEtcGraphColor@@ABVCRect@@ABVCGraphColor@@HHHABN4ABV?$CList@PAVCPacket@@PAV1@@@VCPenThickness@@@Z$24
	DD	016H
	DD	FLAT:__unwindfunclet$?DrawComponentRatio_Bar@CFundDraw@@AAE_NPAVCDC@@ABVCEtcGraphColor@@ABVCRect@@ABVCGraphColor@@HHHABN4ABV?$CList@PAVCPacket@@PAV1@@@VCPenThickness@@@Z$24
	DD	015H
	DD	FLAT:__unwindfunclet$?DrawComponentRatio_Bar@CFundDraw@@AAE_NPAVCDC@@ABVCEtcGraphColor@@ABVCRect@@ABVCGraphColor@@HHHABN4ABV?$CList@PAVCPacket@@PAV1@@@VCPenThickness@@@Z$24
	DD	0ffffffffH
	DD	FLAT:___std_terminate
xdata$x	ENDS
;	COMDAT xdata$x
xdata$x	SEGMENT
__catchsym$??1CGdiObject@@UAE@XZ$3 DD 00H
	DD	FLAT:??_R0PAVCException@@@8
	DD	0fffffde4H
	DD	FLAT:__catch$??1CGdiObject@@UAE@XZ$0
__tryblocktable$??1CGdiObject@@UAE@XZ DD 00H
	DD	00H
	DD	02H
	DD	01H
	DD	FLAT:__catchsym$??1CGdiObject@@UAE@XZ$3
__unwindtable$??1CGdiObject@@UAE@XZ DD 0ffffffffH
	DD	00H
	DD	0ffffffffH
	DD	00H
	DD	01H
	DD	FLAT:__unwindfunclet$??1CGdiObject@@UAE@XZ$2
__ehfuncinfo$??1CGdiObject@@UAE@XZ DD 019930522H
	DD	03H
	DD	FLAT:__unwindtable$??1CGdiObject@@UAE@XZ
	DD	01H
	DD	FLAT:__tryblocktable$??1CGdiObject@@UAE@XZ
	DD	2 DUP(00H)
	DD	00H
	DD	05H
xdata$x	ENDS
; Function compile flags: /Ogtp
; File C:\Program Files (x86)\Microsoft Visual Studio\2019\Community\VC\Tools\MSVC\14.29.30133\atlmfc\include\afxtempl.h
; File C:\Program Files (x86)\Microsoft Visual Studio\2019\Community\VC\Tools\MSVC\14.29.30133\atlmfc\include\afx.inl
; File C:\Program Files (x86)\Microsoft Visual Studio\2019\Community\VC\Tools\MSVC\14.29.30133\atlmfc\include\afxtempl.h
; File C:\Program Files (x86)\Microsoft Visual Studio\2019\Community\VC\Tools\MSVC\14.29.30133\atlmfc\include\afx.inl
; File C:\Program Files (x86)\Microsoft Visual Studio\2019\Community\VC\Tools\MSVC\14.29.30133\atlmfc\include\afxtempl.h
; File C:\Program Files (x86)\Microsoft Visual Studio\2019\Community\VC\Tools\MSVC\14.29.30133\atlmfc\include\afx.inl
; File C:\Program Files (x86)\Microsoft Visual Studio\2019\Community\VC\Tools\MSVC\14.29.30133\atlmfc\include\afxtempl.h
;	COMDAT ??$SerializeElements@PAU__POSITION@@@@YGXAAVCArchive@@PAPAU__POSITION@@H@Z
_TEXT	SEGMENT
_ar$ = 8						; size = 4
_pElements$ = 12					; size = 4
_nCount$ = 16						; size = 4
??$SerializeElements@PAU__POSITION@@@@YGXAAVCArchive@@PAPAU__POSITION@@H@Z PROC ; SerializeElements<__POSITION *>, COMDAT

; 67   : {

  00000	55		 push	 ebp
  00001	8b ec		 mov	 ebp, esp

; 68   : 	ENSURE(nCount == 0 || pElements != NULL);

  00003	8b 4d 0c	 mov	 ecx, DWORD PTR _pElements$[ebp]
  00006	53		 push	 ebx
  00007	56		 push	 esi
  00008	8b 75 10	 mov	 esi, DWORD PTR _nCount$[ebp]
  0000b	57		 push	 edi
  0000c	85 f6		 test	 esi, esi
  0000e	74 08		 je	 SHORT $LN2@SerializeE
  00010	85 c9		 test	 ecx, ecx
  00012	0f 84 89 00 00
	00		 je	 $LN34@SerializeE
$LN2@SerializeE:
; File C:\Program Files (x86)\Microsoft Visual Studio\2019\Community\VC\Tools\MSVC\14.29.30133\atlmfc\include\afx.inl

; 212  : 	{ return (m_nMode & CArchive::load) == 0; }

  00018	8b 55 08	 mov	 edx, DWORD PTR _ar$[ebp]
  0001b	8b 42 18	 mov	 eax, DWORD PTR [edx+24]
  0001e	f7 d0		 not	 eax
  00020	a8 01		 test	 al, 1
; File C:\Program Files (x86)\Microsoft Visual Studio\2019\Community\VC\Tools\MSVC\14.29.30133\atlmfc\include\afxtempl.h

; 73   : 	if (ar.IsStoring())

  00022	74 3c		 je	 SHORT $LN10@SerializeE

; 74   : 	{
; 75   : 		TYPE* pData;
; 76   : 		UINT_PTR nElementsLeft;
; 77   : 
; 78   : 		nElementsLeft = nCount;
; 79   : 		pData = pElements;
; 80   : 		while( nElementsLeft > 0 )

  00024	85 f6		 test	 esi, esi
  00026	74 31		 je	 SHORT $LN8@SerializeE
  00028	0f 1f 84 00 00
	00 00 00	 npad	 8
$LL5@SerializeE:

; 81   : 		{
; 82   : 			UINT nElementsToWrite;
; 83   : 
; 84   : 			nElementsToWrite = UINT(__min(nElementsLeft, INT_MAX/sizeof(TYPE)));

  00030	bb ff ff ff 1f	 mov	 ebx, 536870911		; 1fffffffH
  00035	3b f3		 cmp	 esi, ebx
  00037	0f 42 de	 cmovb	 ebx, esi

; 85   : 			ar.Write(pData, nElementsToWrite*sizeof(TYPE));

  0003a	8d 3c 9d 00 00
	00 00		 lea	 edi, DWORD PTR [ebx*4]
  00041	57		 push	 edi
  00042	51		 push	 ecx
  00043	8b ca		 mov	 ecx, edx
  00045	e8 00 00 00 00	 call	 ?Write@CArchive@@QAEXPBXI@Z ; CArchive::Write

; 86   : 			nElementsLeft -= nElementsToWrite;
; 87   : 			pData += nElementsToWrite;

  0004a	8b 4d 0c	 mov	 ecx, DWORD PTR _pElements$[ebp]
  0004d	8b 55 08	 mov	 edx, DWORD PTR _ar$[ebp]
  00050	03 cf		 add	 ecx, edi
  00052	89 4d 0c	 mov	 DWORD PTR _pElements$[ebp], ecx
  00055	2b f3		 sub	 esi, ebx
  00057	75 d7		 jne	 SHORT $LL5@SerializeE
$LN8@SerializeE:
  00059	5f		 pop	 edi

; 105  : 		}
; 106  : 	}
; 107  : }

  0005a	5e		 pop	 esi
  0005b	5b		 pop	 ebx
  0005c	5d		 pop	 ebp
  0005d	c2 0c 00	 ret	 12			; 0000000cH
$LN10@SerializeE:

; 97   : 		while( nElementsLeft > 0 )

  00060	85 f6		 test	 esi, esi
  00062	74 f5		 je	 SHORT $LN8@SerializeE
$LL7@SerializeE:

; 98   : 		{
; 99   : 			UINT nElementsToRead;
; 100  : 
; 101  : 			nElementsToRead = UINT(__min(nElementsLeft, INT_MAX/sizeof(TYPE)));

  00064	bf ff ff ff 1f	 mov	 edi, 536870911		; 1fffffffH
  00069	3b f7		 cmp	 esi, edi
  0006b	0f 42 fe	 cmovb	 edi, esi

; 102  : 			ar.EnsureRead(pData, nElementsToRead*sizeof(TYPE));

  0006e	8d 1c bd 00 00
	00 00		 lea	 ebx, DWORD PTR [edi*4]
; File C:\Program Files (x86)\Microsoft Visual Studio\2019\Community\VC\Tools\MSVC\14.29.30133\atlmfc\include\afx.inl

; 399  : 	UINT nRead=Read(lpBuf, nCount);

  00075	53		 push	 ebx
  00076	51		 push	 ecx
  00077	8b ca		 mov	 ecx, edx
  00079	e8 00 00 00 00	 call	 ?Read@CArchive@@QAEIPAXI@Z ; CArchive::Read

; 400  : 	if(nRead!=nCount)

  0007e	3b c3		 cmp	 eax, ebx
  00080	75 16		 jne	 SHORT $LN23@SerializeE
; File C:\Program Files (x86)\Microsoft Visual Studio\2019\Community\VC\Tools\MSVC\14.29.30133\atlmfc\include\afxtempl.h

; 97   : 		while( nElementsLeft > 0 )

  00082	8b 4d 0c	 mov	 ecx, DWORD PTR _pElements$[ebp]
  00085	8b 55 08	 mov	 edx, DWORD PTR _ar$[ebp]

; 103  : 			nElementsLeft -= nElementsToRead;
; 104  : 			pData += nElementsToRead;

  00088	03 cb		 add	 ecx, ebx
  0008a	89 4d 0c	 mov	 DWORD PTR _pElements$[ebp], ecx
  0008d	2b f7		 sub	 esi, edi
  0008f	75 d3		 jne	 SHORT $LL7@SerializeE

; 105  : 		}
; 106  : 	}
; 107  : }

  00091	5f		 pop	 edi
  00092	5e		 pop	 esi
  00093	5b		 pop	 ebx
  00094	5d		 pop	 ebp
  00095	c2 0c 00	 ret	 12			; 0000000cH
$LN23@SerializeE:
; File C:\Program Files (x86)\Microsoft Visual Studio\2019\Community\VC\Tools\MSVC\14.29.30133\atlmfc\include\afx.inl

; 402  : 		AfxThrowArchiveException(CArchiveException::endOfFile);

  00098	6a 00		 push	 0
  0009a	6a 03		 push	 3
  0009c	e8 00 00 00 00	 call	 ?AfxThrowArchiveException@@YGXHPBD@Z ; AfxThrowArchiveException
$LN34@SerializeE:
; File C:\Program Files (x86)\Microsoft Visual Studio\2019\Community\VC\Tools\MSVC\14.29.30133\atlmfc\include\afxtempl.h

; 68   : 	ENSURE(nCount == 0 || pElements != NULL);

  000a1	e8 00 00 00 00	 call	 ?AfxThrowInvalidArgException@@YGXXZ ; AfxThrowInvalidArgException
$LN32@SerializeE:
  000a6	cc		 int	 3
??$SerializeElements@PAU__POSITION@@@@YGXAAVCArchive@@PAPAU__POSITION@@H@Z ENDP ; SerializeElements<__POSITION *>
_TEXT	ENDS
; Function compile flags: /Ogtp
; File C:\Program Files (x86)\Microsoft Visual Studio\2019\Community\VC\Tools\MSVC\14.29.30133\atlmfc\include\afxtempl.h
;	COMDAT ?FindIndex@?$CList@V?$CStringT@DV?$StrTraitMFC_DLL@DV?$ChTraitsCRT@D@ATL@@@@@ATL@@V12@@@QBEPAU__POSITION@@H@Z
_TEXT	SEGMENT
_nIndex$ = 8						; size = 4
?FindIndex@?$CList@V?$CStringT@DV?$StrTraitMFC_DLL@DV?$ChTraitsCRT@D@ATL@@@@@ATL@@V12@@@QBEPAU__POSITION@@H@Z PROC ; CList<ATL::CStringT<char,StrTraitMFC_DLL<char,ATL::ChTraitsCRT<char> > >,ATL::CStringT<char,StrTraitMFC_DLL<char,ATL::ChTraitsCRT<char> > > >::FindIndex, COMDAT
; _this$ = ecx

; 1130 : {

  00000	55		 push	 ebp
  00001	8b ec		 mov	 ebp, esp

; 1131 : 	ASSERT_VALID(this);
; 1132 : 
; 1133 : 	if (nIndex >= m_nCount || nIndex < 0)

  00003	8b 55 08	 mov	 edx, DWORD PTR _nIndex$[ebp]
  00006	3b 51 0c	 cmp	 edx, DWORD PTR [ecx+12]
  00009	7d 14		 jge	 SHORT $LN5@FindIndex
  0000b	85 d2		 test	 edx, edx
  0000d	78 10		 js	 SHORT $LN5@FindIndex

; 1135 : 
; 1136 : 	CNode* pNode = m_pNodeHead;

  0000f	8b 41 04	 mov	 eax, DWORD PTR [ecx+4]

; 1137 : 	while (nIndex--)

  00012	74 0d		 je	 SHORT $LN1@FindIndex
$LL2@FindIndex:

; 1138 : 	{
; 1139 : 		ASSERT(AfxIsValidAddress(pNode, sizeof(CNode)));
; 1140 : 		pNode = pNode->pNext;

  00014	8b 00		 mov	 eax, DWORD PTR [eax]
  00016	83 ea 01	 sub	 edx, 1
  00019	75 f9		 jne	 SHORT $LL2@FindIndex

; 1141 : 	}
; 1142 : 	return (POSITION) pNode;
; 1143 : }

  0001b	5d		 pop	 ebp
  0001c	c2 04 00	 ret	 4
$LN5@FindIndex:

; 1134 : 		return NULL;  // went too far

  0001f	33 c0		 xor	 eax, eax
$LN1@FindIndex:

; 1141 : 	}
; 1142 : 	return (POSITION) pNode;
; 1143 : }

  00021	5d		 pop	 ebp
  00022	c2 04 00	 ret	 4
?FindIndex@?$CList@V?$CStringT@DV?$StrTraitMFC_DLL@DV?$ChTraitsCRT@D@ATL@@@@@ATL@@V12@@@QBEPAU__POSITION@@H@Z ENDP ; CList<ATL::CStringT<char,StrTraitMFC_DLL<char,ATL::ChTraitsCRT<char> > >,ATL::CStringT<char,StrTraitMFC_DLL<char,ATL::ChTraitsCRT<char> > > >::FindIndex
_TEXT	ENDS
; Function compile flags: /Ogtp
; File C:\Program Files (x86)\Microsoft Visual Studio\2019\Community\VC\Tools\MSVC\14.29.30133\atlmfc\include\afxtempl.h
;	COMDAT ?FindIndex@?$CList@NN@@QBEPAU__POSITION@@H@Z
_TEXT	SEGMENT
_nIndex$ = 8						; size = 4
?FindIndex@?$CList@NN@@QBEPAU__POSITION@@H@Z PROC	; CList<double,double>::FindIndex, COMDAT
; _this$ = ecx

; 1130 : {

  00000	55		 push	 ebp
  00001	8b ec		 mov	 ebp, esp

; 1131 : 	ASSERT_VALID(this);
; 1132 : 
; 1133 : 	if (nIndex >= m_nCount || nIndex < 0)

  00003	8b 55 08	 mov	 edx, DWORD PTR _nIndex$[ebp]
  00006	3b 51 0c	 cmp	 edx, DWORD PTR [ecx+12]
  00009	7d 14		 jge	 SHORT $LN5@FindIndex
  0000b	85 d2		 test	 edx, edx
  0000d	78 10		 js	 SHORT $LN5@FindIndex

; 1135 : 
; 1136 : 	CNode* pNode = m_pNodeHead;

  0000f	8b 41 04	 mov	 eax, DWORD PTR [ecx+4]

; 1137 : 	while (nIndex--)

  00012	74 0d		 je	 SHORT $LN1@FindIndex
$LL2@FindIndex:

; 1138 : 	{
; 1139 : 		ASSERT(AfxIsValidAddress(pNode, sizeof(CNode)));
; 1140 : 		pNode = pNode->pNext;

  00014	8b 00		 mov	 eax, DWORD PTR [eax]
  00016	83 ea 01	 sub	 edx, 1
  00019	75 f9		 jne	 SHORT $LL2@FindIndex

; 1141 : 	}
; 1142 : 	return (POSITION) pNode;
; 1143 : }

  0001b	5d		 pop	 ebp
  0001c	c2 04 00	 ret	 4
$LN5@FindIndex:

; 1134 : 		return NULL;  // went too far

  0001f	33 c0		 xor	 eax, eax
$LN1@FindIndex:

; 1141 : 	}
; 1142 : 	return (POSITION) pNode;
; 1143 : }

  00021	5d		 pop	 ebp
  00022	c2 04 00	 ret	 4
?FindIndex@?$CList@NN@@QBEPAU__POSITION@@H@Z ENDP	; CList<double,double>::FindIndex
_TEXT	ENDS
; Function compile flags: /Ogtp
; File C:\Program Files (x86)\Microsoft Visual Studio\2019\Community\VC\Tools\MSVC\14.29.30133\atlmfc\include\afxtempl.h
; File C:\Program Files (x86)\Microsoft Visual Studio\2019\Community\VC\Tools\MSVC\14.29.30133\atlmfc\include\afx.inl
;	COMDAT ??_G?$CList@PAU__POSITION@@PAU1@@@UAEPAXI@Z
_TEXT	SEGMENT
__$EHRec$ = -12						; size = 12
___flags$ = 8						; size = 4
??_G?$CList@PAU__POSITION@@PAU1@@@UAEPAXI@Z PROC	; CList<__POSITION *,__POSITION *>::`scalar deleting destructor', COMDAT
; _this$ = ecx
  00000	55		 push	 ebp
  00001	8b ec		 mov	 ebp, esp
  00003	6a ff		 push	 -1
  00005	68 00 00 00 00	 push	 __ehhandler$??_G?$CList@PAU__POSITION@@PAU1@@@UAEPAXI@Z
  0000a	64 a1 00 00 00
	00		 mov	 eax, DWORD PTR fs:0
  00010	50		 push	 eax
  00011	56		 push	 esi
  00012	a1 00 00 00 00	 mov	 eax, DWORD PTR ___security_cookie
  00017	33 c5		 xor	 eax, ebp
  00019	50		 push	 eax
  0001a	8d 45 f4	 lea	 eax, DWORD PTR __$EHRec$[ebp]
  0001d	64 a3 00 00 00
	00		 mov	 DWORD PTR fs:0, eax
  00023	8b f1		 mov	 esi, ecx
; File C:\Program Files (x86)\Microsoft Visual Studio\2019\Community\VC\Tools\MSVC\14.29.30133\atlmfc\include\afxtempl.h

; 872  : 	m_pBlocks->FreeDataChain();

  00025	8b 4e 14	 mov	 ecx, DWORD PTR [esi+20]

; 878  : {

  00028	c7 45 fc 00 00
	00 00		 mov	 DWORD PTR __$EHRec$[ebp+8], 0
  0002f	c7 06 00 00 00
	00		 mov	 DWORD PTR [esi], OFFSET ??_7?$CList@PAU__POSITION@@PAU1@@@6B@

; 870  : 	m_nCount = 0;

  00035	c7 46 0c 00 00
	00 00		 mov	 DWORD PTR [esi+12], 0

; 871  : 	m_pNodeHead = m_pNodeTail = m_pNodeFree = NULL;

  0003c	c7 46 10 00 00
	00 00		 mov	 DWORD PTR [esi+16], 0
  00043	c7 46 08 00 00
	00 00		 mov	 DWORD PTR [esi+8], 0
  0004a	c7 46 04 00 00
	00 00		 mov	 DWORD PTR [esi+4], 0

; 872  : 	m_pBlocks->FreeDataChain();

  00051	e8 00 00 00 00	 call	 ?FreeDataChain@CPlex@@QAEXXZ ; CPlex::FreeDataChain

; 873  : 	m_pBlocks = NULL;

  00056	8b 45 08	 mov	 eax, DWORD PTR ___flags$[ebp]
  00059	c7 46 14 00 00
	00 00		 mov	 DWORD PTR [esi+20], 0
  00060	a8 01		 test	 al, 1
  00062	74 2c		 je	 SHORT $LN22@scalar
  00064	a8 04		 test	 al, 4
  00066	75 1d		 jne	 SHORT $LN3@scalar
; File C:\Program Files (x86)\Microsoft Visual Studio\2019\Community\VC\Tools\MSVC\14.29.30133\atlmfc\include\afx.inl

; 112  : 	{ ::operator delete(p); }

  00068	56		 push	 esi
  00069	e8 00 00 00 00	 call	 ??3@YAXPAX@Z		; operator delete
  0006e	83 c4 04	 add	 esp, 4
  00071	8b c6		 mov	 eax, esi
  00073	8b 4d f4	 mov	 ecx, DWORD PTR __$EHRec$[ebp]
  00076	64 89 0d 00 00
	00 00		 mov	 DWORD PTR fs:0, ecx
  0007d	59		 pop	 ecx
  0007e	5e		 pop	 esi
  0007f	8b e5		 mov	 esp, ebp
  00081	5d		 pop	 ebp
  00082	c2 04 00	 ret	 4
$LN3@scalar:
  00085	6a 1c		 push	 28			; 0000001cH
  00087	56		 push	 esi
  00088	e8 00 00 00 00	 call	 ?__global_delete@@YAXPAXI@Z ; __global_delete
  0008d	83 c4 08	 add	 esp, 8
$LN22@scalar:
  00090	8b c6		 mov	 eax, esi
  00092	8b 4d f4	 mov	 ecx, DWORD PTR __$EHRec$[ebp]
  00095	64 89 0d 00 00
	00 00		 mov	 DWORD PTR fs:0, ecx
  0009c	59		 pop	 ecx
  0009d	5e		 pop	 esi
  0009e	8b e5		 mov	 esp, ebp
  000a0	5d		 pop	 ebp
  000a1	c2 04 00	 ret	 4
  000a4	cc		 int	 3
  000a5	cc		 int	 3
  000a6	cc		 int	 3
  000a7	cc		 int	 3
  000a8	cc		 int	 3
_TEXT	ENDS
;	COMDAT text$x
text$x	SEGMENT
__ehhandler$??_G?$CList@PAU__POSITION@@PAU1@@@UAEPAXI@Z:
  00000	90		 npad	 1
  00001	90		 npad	 1
  00002	8b 54 24 08	 mov	 edx, DWORD PTR [esp+8]
  00006	8d 42 0c	 lea	 eax, DWORD PTR [edx+12]
  00009	8b 4a f8	 mov	 ecx, DWORD PTR [edx-8]
  0000c	33 c8		 xor	 ecx, eax
  0000e	e8 00 00 00 00	 call	 @__security_check_cookie@4
  00013	b8 00 00 00 00	 mov	 eax, OFFSET __ehfuncinfo$??_G?$CList@PAU__POSITION@@PAU1@@@UAEPAXI@Z
  00018	e9 00 00 00 00	 jmp	 ___CxxFrameHandler3
text$x	ENDS
??_G?$CList@PAU__POSITION@@PAU1@@@UAEPAXI@Z ENDP	; CList<__POSITION *,__POSITION *>::`scalar deleting destructor'
; Function compile flags: /Ogtp
; File C:\Program Files (x86)\Microsoft Visual Studio\2019\Community\VC\Tools\MSVC\14.29.30133\atlmfc\include\afxtempl.h
; File C:\Program Files (x86)\Microsoft Visual Studio\2019\Community\VC\Tools\MSVC\14.29.30133\atlmfc\include\afx.inl
; File C:\Program Files (x86)\Microsoft Visual Studio\2019\Community\VC\Tools\MSVC\14.29.30133\atlmfc\include\afxtempl.h
; File C:\Program Files (x86)\Microsoft Visual Studio\2019\Community\VC\Tools\MSVC\14.29.30133\atlmfc\include\afx.inl
; File C:\Program Files (x86)\Microsoft Visual Studio\2019\Community\VC\Tools\MSVC\14.29.30133\atlmfc\include\afxtempl.h
; File C:\Program Files (x86)\Microsoft Visual Studio\2019\Community\VC\Tools\MSVC\14.29.30133\atlmfc\include\afx.inl
; File C:\Program Files (x86)\Microsoft Visual Studio\2019\Community\VC\Tools\MSVC\14.29.30133\atlmfc\include\afxtempl.h
; File C:\Program Files (x86)\Microsoft Visual Studio\2019\Community\VC\Tools\MSVC\14.29.30133\atlmfc\include\afx.inl
; File C:\Program Files (x86)\Microsoft Visual Studio\2019\Community\VC\Tools\MSVC\14.29.30133\atlmfc\include\afxtempl.h
; File C:\Program Files (x86)\Microsoft Visual Studio\2019\Community\VC\Tools\MSVC\14.29.30133\atlmfc\include\afx.inl
; File C:\Program Files (x86)\Microsoft Visual Studio\2019\Community\VC\Tools\MSVC\14.29.30133\atlmfc\include\afxtempl.h
; File C:\Program Files (x86)\Microsoft Visual Studio\2019\Community\VC\Tools\MSVC\14.29.30133\atlmfc\include\afx.inl
; File C:\Program Files (x86)\Microsoft Visual Studio\2019\Community\VC\Tools\MSVC\14.29.30133\atlmfc\include\afxtempl.h
;	COMDAT ?Serialize@?$CList@PAU__POSITION@@PAU1@@@UAEXAAVCArchive@@@Z
_TEXT	SEGMENT
_nNewCount$1$ = -16					; size = 4
_newData$1 = -12					; size = 4
_pData$1$ = -8						; size = 4
_pNode$1$ = -8						; size = 4
_nElementsLeft$1$ = -4					; size = 4
_this$1$ = -4						; size = 4
_ar$ = 8						; size = 4
?Serialize@?$CList@PAU__POSITION@@PAU1@@@UAEXAAVCArchive@@@Z PROC ; CList<__POSITION *,__POSITION *>::Serialize, COMDAT
; _this$ = ecx

; 1169 : {

  00000	55		 push	 ebp
  00001	8b ec		 mov	 ebp, esp
  00003	83 ec 10	 sub	 esp, 16			; 00000010H
  00006	53		 push	 ebx
  00007	8b d9		 mov	 ebx, ecx
; File C:\Program Files (x86)\Microsoft Visual Studio\2019\Community\VC\Tools\MSVC\14.29.30133\atlmfc\include\afx.inl

; 212  : 	{ return (m_nMode & CArchive::load) == 0; }

  00009	8b 4d 08	 mov	 ecx, DWORD PTR _ar$[ebp]
; File C:\Program Files (x86)\Microsoft Visual Studio\2019\Community\VC\Tools\MSVC\14.29.30133\atlmfc\include\afxtempl.h

; 1169 : {

  0000c	56		 push	 esi
  0000d	57		 push	 edi
  0000e	89 5d fc	 mov	 DWORD PTR _this$1$[ebp], ebx
; File C:\Program Files (x86)\Microsoft Visual Studio\2019\Community\VC\Tools\MSVC\14.29.30133\atlmfc\include\afx.inl

; 212  : 	{ return (m_nMode & CArchive::load) == 0; }

  00011	8b 41 18	 mov	 eax, DWORD PTR [ecx+24]
  00014	f7 d0		 not	 eax
  00016	a8 01		 test	 al, 1
; File C:\Program Files (x86)\Microsoft Visual Studio\2019\Community\VC\Tools\MSVC\14.29.30133\atlmfc\include\afxtempl.h

; 1174 : 	if (ar.IsStoring())

  00018	0f 84 ae 00 00
	00		 je	 $LN7@Serialize

; 1175 : 	{
; 1176 : 		ar.WriteCount(m_nCount);

  0001e	ff 73 0c	 push	 DWORD PTR [ebx+12]
  00021	e8 00 00 00 00	 call	 ?WriteCount@CArchive@@QAEXK@Z ; CArchive::WriteCount

; 1177 : 		for (CNode* pNode = m_pNodeHead; pNode != NULL; pNode = pNode->pNext)

  00026	8b 43 04	 mov	 eax, DWORD PTR [ebx+4]
  00029	89 45 f8	 mov	 DWORD PTR _pNode$1$[ebp], eax
  0002c	85 c0		 test	 eax, eax
  0002e	0f 84 43 01 00
	00		 je	 $LN68@Serialize
$LL4@Serialize:

; 1178 : 		{
; 1179 : 			ASSERT(AfxIsValidAddress(pNode, sizeof(CNode)));
; 1180 : 			TYPE* pData;
; 1181 : 			/*
; 1182 : 			 * in some cases the & operator might be overloaded, and we cannot use it to obtain
; 1183 : 			 * the address of a given object.  We then use the following trick to get the address
; 1184 : 			 */
; 1185 : 			pData = reinterpret_cast< TYPE* >( &reinterpret_cast< int& >( static_cast< TYPE& >( pNode->data ) ) );

  00034	8d 70 08	 lea	 esi, DWORD PTR [eax+8]

; 68   : 	ENSURE(nCount == 0 || pElements != NULL);

  00037	85 f6		 test	 esi, esi
  00039	0f 84 4a 01 00
	00		 je	 $LN60@Serialize
; File C:\Program Files (x86)\Microsoft Visual Studio\2019\Community\VC\Tools\MSVC\14.29.30133\atlmfc\include\afx.inl

; 212  : 	{ return (m_nMode & CArchive::load) == 0; }

  0003f	8b 4d 08	 mov	 ecx, DWORD PTR _ar$[ebp]
  00042	8b 41 18	 mov	 eax, DWORD PTR [ecx+24]
  00045	f7 d0		 not	 eax
  00047	a8 01		 test	 al, 1
; File C:\Program Files (x86)\Microsoft Visual Studio\2019\Community\VC\Tools\MSVC\14.29.30133\atlmfc\include\afxtempl.h

; 73   : 	if (ar.IsStoring())

  00049	74 33		 je	 SHORT $LN21@Serialize

; 74   : 	{
; 75   : 		TYPE* pData;
; 76   : 		UINT_PTR nElementsLeft;
; 77   : 
; 78   : 		nElementsLeft = nCount;

  0004b	b8 01 00 00 00	 mov	 eax, 1
  00050	89 45 fc	 mov	 DWORD PTR _nElementsLeft$1$[ebp], eax
$LL16@Serialize:

; 80   : 		while( nElementsLeft > 0 )
; 81   : 		{
; 82   : 			UINT nElementsToWrite;
; 83   : 
; 84   : 			nElementsToWrite = UINT(__min(nElementsLeft, INT_MAX/sizeof(TYPE)));

  00053	bb ff ff ff 1f	 mov	 ebx, 536870911		; 1fffffffH
  00058	3b c3		 cmp	 eax, ebx
  0005a	0f 42 d8	 cmovb	 ebx, eax

; 85   : 			ar.Write(pData, nElementsToWrite*sizeof(TYPE));

  0005d	8d 3c 9d 00 00
	00 00		 lea	 edi, DWORD PTR [ebx*4]
  00064	57		 push	 edi
  00065	56		 push	 esi
  00066	e8 00 00 00 00	 call	 ?Write@CArchive@@QAEXPBXI@Z ; CArchive::Write

; 86   : 			nElementsLeft -= nElementsToWrite;

  0006b	8b 45 fc	 mov	 eax, DWORD PTR _nElementsLeft$1$[ebp]

; 87   : 			pData += nElementsToWrite;

  0006e	03 f7		 add	 esi, edi
  00070	8b 4d 08	 mov	 ecx, DWORD PTR _ar$[ebp]
  00073	2b c3		 sub	 eax, ebx
  00075	89 45 fc	 mov	 DWORD PTR _nElementsLeft$1$[ebp], eax
  00078	85 c0		 test	 eax, eax
  0007a	75 d7		 jne	 SHORT $LL16@Serialize

; 88   : 		}
; 89   : 	}

  0007c	eb 35		 jmp	 SHORT $LN2@Serialize
$LN21@Serialize:

; 90   : 	else
; 91   : 	{
; 92   : 		TYPE* pData;
; 93   : 		UINT_PTR nElementsLeft;
; 94   : 
; 95   : 		nElementsLeft = nCount;

  0007e	bf 01 00 00 00	 mov	 edi, 1
$LL18@Serialize:

; 98   : 		{
; 99   : 			UINT nElementsToRead;
; 100  : 
; 101  : 			nElementsToRead = UINT(__min(nElementsLeft, INT_MAX/sizeof(TYPE)));

  00083	bb ff ff ff 1f	 mov	 ebx, 536870911		; 1fffffffH
  00088	3b fb		 cmp	 edi, ebx
  0008a	0f 42 df	 cmovb	 ebx, edi

; 102  : 			ar.EnsureRead(pData, nElementsToRead*sizeof(TYPE));

  0008d	8d 04 9d 00 00
	00 00		 lea	 eax, DWORD PTR [ebx*4]
; File C:\Program Files (x86)\Microsoft Visual Studio\2019\Community\VC\Tools\MSVC\14.29.30133\atlmfc\include\afx.inl

; 399  : 	UINT nRead=Read(lpBuf, nCount);

  00094	50		 push	 eax
  00095	56		 push	 esi
  00096	e8 00 00 00 00	 call	 ?Read@CArchive@@QAEIPAXI@Z ; CArchive::Read

; 400  : 	if(nRead!=nCount)

  0009b	8d 0c 9d 00 00
	00 00		 lea	 ecx, DWORD PTR [ebx*4]
  000a2	3b c1		 cmp	 eax, ecx
  000a4	0f 85 d6 00 00
	00		 jne	 $LN59@Serialize
; File C:\Program Files (x86)\Microsoft Visual Studio\2019\Community\VC\Tools\MSVC\14.29.30133\atlmfc\include\afxtempl.h

; 97   : 		while( nElementsLeft > 0 )

  000aa	03 f1		 add	 esi, ecx
  000ac	8b 4d 08	 mov	 ecx, DWORD PTR _ar$[ebp]

; 103  : 			nElementsLeft -= nElementsToRead;

  000af	2b fb		 sub	 edi, ebx
  000b1	75 d0		 jne	 SHORT $LL18@Serialize
$LN2@Serialize:

; 1177 : 		for (CNode* pNode = m_pNodeHead; pNode != NULL; pNode = pNode->pNext)

  000b3	8b 45 f8	 mov	 eax, DWORD PTR _pNode$1$[ebp]
  000b6	8b 00		 mov	 eax, DWORD PTR [eax]
  000b8	89 45 f8	 mov	 DWORD PTR _pNode$1$[ebp], eax
  000bb	85 c0		 test	 eax, eax
  000bd	0f 85 71 ff ff
	ff		 jne	 $LL4@Serialize

; 1197 : 		}
; 1198 : 	}
; 1199 : }

  000c3	5f		 pop	 edi
  000c4	5e		 pop	 esi
  000c5	5b		 pop	 ebx
  000c6	8b e5		 mov	 esp, ebp
  000c8	5d		 pop	 ebp
  000c9	c2 04 00	 ret	 4
$LN7@Serialize:

; 1186 : 			SerializeElements<TYPE>(ar, pData, 1);
; 1187 : 		}
; 1188 : 	}
; 1189 : 	else
; 1190 : 	{
; 1191 : 		DWORD_PTR nNewCount = ar.ReadCount();

  000cc	e8 00 00 00 00	 call	 ?ReadCount@CArchive@@QAEKXZ ; CArchive::ReadCount

; 1192 : 		while (nNewCount--)

  000d1	85 c0		 test	 eax, eax
  000d3	0f 84 9e 00 00
	00		 je	 $LN68@Serialize
  000d9	0f 1f 80 00 00
	00 00		 npad	 7
$LL5@Serialize:
  000e0	48		 dec	 eax
  000e1	89 45 f0	 mov	 DWORD PTR _nNewCount$1$[ebp], eax
; File C:\Program Files (x86)\Microsoft Visual Studio\2019\Community\VC\Tools\MSVC\14.29.30133\atlmfc\include\afx.inl

; 212  : 	{ return (m_nMode & CArchive::load) == 0; }

  000e4	8b 45 08	 mov	 eax, DWORD PTR _ar$[ebp]
  000e7	8b 48 18	 mov	 ecx, DWORD PTR [eax+24]
  000ea	f7 d1		 not	 ecx
  000ec	f6 c1 01	 test	 cl, 1
; File C:\Program Files (x86)\Microsoft Visual Studio\2019\Community\VC\Tools\MSVC\14.29.30133\atlmfc\include\afxtempl.h

; 73   : 	if (ar.IsStoring())

  000ef	74 3a		 je	 SHORT $LN42@Serialize

; 79   : 		pData = pElements;

  000f1	8d 4d f4	 lea	 ecx, DWORD PTR _newData$1[ebp]
  000f4	bb 01 00 00 00	 mov	 ebx, 1
  000f9	89 4d f8	 mov	 DWORD PTR _pData$1$[ebp], ecx
  000fc	0f 1f 40 00	 npad	 4
$LL37@Serialize:

; 80   : 		while( nElementsLeft > 0 )
; 81   : 		{
; 82   : 			UINT nElementsToWrite;
; 83   : 
; 84   : 			nElementsToWrite = UINT(__min(nElementsLeft, INT_MAX/sizeof(TYPE)));

  00100	bf ff ff ff 1f	 mov	 edi, 536870911		; 1fffffffH
  00105	3b df		 cmp	 ebx, edi
  00107	0f 42 fb	 cmovb	 edi, ebx

; 85   : 			ar.Write(pData, nElementsToWrite*sizeof(TYPE));

  0010a	8d 34 bd 00 00
	00 00		 lea	 esi, DWORD PTR [edi*4]
  00111	56		 push	 esi
  00112	51		 push	 ecx
  00113	8b c8		 mov	 ecx, eax
  00115	e8 00 00 00 00	 call	 ?Write@CArchive@@QAEXPBXI@Z ; CArchive::Write

; 87   : 			pData += nElementsToWrite;

  0011a	8b 4d f8	 mov	 ecx, DWORD PTR _pData$1$[ebp]
  0011d	8b 45 08	 mov	 eax, DWORD PTR _ar$[ebp]
  00120	03 ce		 add	 ecx, esi
  00122	89 4d f8	 mov	 DWORD PTR _pData$1$[ebp], ecx
  00125	2b df		 sub	 ebx, edi
  00127	75 d7		 jne	 SHORT $LL37@Serialize

; 88   : 		}
; 89   : 	}

  00129	eb 36		 jmp	 SHORT $LN40@Serialize
$LN42@Serialize:

; 90   : 	else
; 91   : 	{
; 92   : 		TYPE* pData;
; 93   : 		UINT_PTR nElementsLeft;
; 94   : 
; 95   : 		nElementsLeft = nCount;

  0012b	be 01 00 00 00	 mov	 esi, 1

; 96   : 		pData = pElements;

  00130	8d 5d f4	 lea	 ebx, DWORD PTR _newData$1[ebp]
$LL39@Serialize:

; 98   : 		{
; 99   : 			UINT nElementsToRead;
; 100  : 
; 101  : 			nElementsToRead = UINT(__min(nElementsLeft, INT_MAX/sizeof(TYPE)));

  00133	bf ff ff ff 1f	 mov	 edi, 536870911		; 1fffffffH
  00138	3b f7		 cmp	 esi, edi
  0013a	0f 42 fe	 cmovb	 edi, esi

; 102  : 			ar.EnsureRead(pData, nElementsToRead*sizeof(TYPE));

  0013d	8d 0c bd 00 00
	00 00		 lea	 ecx, DWORD PTR [edi*4]
; File C:\Program Files (x86)\Microsoft Visual Studio\2019\Community\VC\Tools\MSVC\14.29.30133\atlmfc\include\afx.inl

; 399  : 	UINT nRead=Read(lpBuf, nCount);

  00144	51		 push	 ecx
  00145	53		 push	 ebx
  00146	8b c8		 mov	 ecx, eax
  00148	e8 00 00 00 00	 call	 ?Read@CArchive@@QAEIPAXI@Z ; CArchive::Read

; 400  : 	if(nRead!=nCount)

  0014d	8d 0c bd 00 00
	00 00		 lea	 ecx, DWORD PTR [edi*4]
  00154	3b c1		 cmp	 eax, ecx
  00156	75 28		 jne	 SHORT $LN59@Serialize
; File C:\Program Files (x86)\Microsoft Visual Studio\2019\Community\VC\Tools\MSVC\14.29.30133\atlmfc\include\afxtempl.h

; 104  : 			pData += nElementsToRead;

  00158	8b 45 08	 mov	 eax, DWORD PTR _ar$[ebp]
  0015b	03 d9		 add	 ebx, ecx
  0015d	2b f7		 sub	 esi, edi
  0015f	75 d2		 jne	 SHORT $LL39@Serialize
$LN40@Serialize:

; 1193 : 		{
; 1194 : 			TYPE newData[1];
; 1195 : 			SerializeElements<TYPE>(ar, newData, 1);
; 1196 : 			AddTail(newData[0]);

  00161	ff 75 f4	 push	 DWORD PTR _newData$1[ebp]
  00164	8b 4d fc	 mov	 ecx, DWORD PTR _this$1$[ebp]
  00167	e8 00 00 00 00	 call	 ?AddTail@?$CList@PAU__POSITION@@PAU1@@@QAEPAU__POSITION@@PAU2@@Z ; CList<__POSITION *,__POSITION *>::AddTail
  0016c	8b 45 f0	 mov	 eax, DWORD PTR _nNewCount$1$[ebp]
  0016f	85 c0		 test	 eax, eax
  00171	0f 85 69 ff ff
	ff		 jne	 $LL5@Serialize
$LN68@Serialize:
  00177	5f		 pop	 edi

; 1197 : 		}
; 1198 : 	}
; 1199 : }

  00178	5e		 pop	 esi
  00179	5b		 pop	 ebx
  0017a	8b e5		 mov	 esp, ebp
  0017c	5d		 pop	 ebp
  0017d	c2 04 00	 ret	 4
$LN59@Serialize:
  00180	6a 00		 push	 0
  00182	6a 03		 push	 3
  00184	e8 00 00 00 00	 call	 ?AfxThrowArchiveException@@YGXHPBD@Z ; AfxThrowArchiveException
$LN60@Serialize:

; 68   : 	ENSURE(nCount == 0 || pElements != NULL);

  00189	e8 00 00 00 00	 call	 ?AfxThrowInvalidArgException@@YGXXZ ; AfxThrowInvalidArgException
$LN85@Serialize:
  0018e	cc		 int	 3
?Serialize@?$CList@PAU__POSITION@@PAU1@@@UAEXAAVCArchive@@@Z ENDP ; CList<__POSITION *,__POSITION *>::Serialize
_TEXT	ENDS
; Function compile flags: /Ogtp
; File C:\Program Files (x86)\Microsoft Visual Studio\2019\Community\VC\Tools\MSVC\14.29.30133\atlmfc\include\afxtempl.h
;	COMDAT ??1?$CList@PAU__POSITION@@PAU1@@@UAE@XZ
_TEXT	SEGMENT
__$EHRec$ = -12						; size = 12
??1?$CList@PAU__POSITION@@PAU1@@@UAE@XZ PROC		; CList<__POSITION *,__POSITION *>::~CList<__POSITION *,__POSITION *>, COMDAT
; _this$ = ecx

; 878  : {

  00000	55		 push	 ebp
  00001	8b ec		 mov	 ebp, esp
  00003	6a ff		 push	 -1
  00005	68 00 00 00 00	 push	 __ehhandler$??1?$CList@PAU__POSITION@@PAU1@@@UAE@XZ
  0000a	64 a1 00 00 00
	00		 mov	 eax, DWORD PTR fs:0
  00010	50		 push	 eax
  00011	56		 push	 esi
  00012	a1 00 00 00 00	 mov	 eax, DWORD PTR ___security_cookie
  00017	33 c5		 xor	 eax, ebp
  00019	50		 push	 eax
  0001a	8d 45 f4	 lea	 eax, DWORD PTR __$EHRec$[ebp]
  0001d	64 a3 00 00 00
	00		 mov	 DWORD PTR fs:0, eax
  00023	8b f1		 mov	 esi, ecx

; 872  : 	m_pBlocks->FreeDataChain();

  00025	8b 4e 14	 mov	 ecx, DWORD PTR [esi+20]

; 878  : {

  00028	c7 06 00 00 00
	00		 mov	 DWORD PTR [esi], OFFSET ??_7?$CList@PAU__POSITION@@PAU1@@@6B@

; 870  : 	m_nCount = 0;

  0002e	c7 46 0c 00 00
	00 00		 mov	 DWORD PTR [esi+12], 0

; 871  : 	m_pNodeHead = m_pNodeTail = m_pNodeFree = NULL;

  00035	c7 46 10 00 00
	00 00		 mov	 DWORD PTR [esi+16], 0
  0003c	c7 46 08 00 00
	00 00		 mov	 DWORD PTR [esi+8], 0
  00043	c7 46 04 00 00
	00 00		 mov	 DWORD PTR [esi+4], 0

; 872  : 	m_pBlocks->FreeDataChain();

  0004a	e8 00 00 00 00	 call	 ?FreeDataChain@CPlex@@QAEXXZ ; CPlex::FreeDataChain

; 873  : 	m_pBlocks = NULL;

  0004f	c7 46 14 00 00
	00 00		 mov	 DWORD PTR [esi+20], 0

; 879  : 	RemoveAll();
; 880  : 	ASSERT(m_nCount == 0);
; 881  : }

  00056	8b 4d f4	 mov	 ecx, DWORD PTR __$EHRec$[ebp]
  00059	64 89 0d 00 00
	00 00		 mov	 DWORD PTR fs:0, ecx
  00060	59		 pop	 ecx
  00061	5e		 pop	 esi
  00062	8b e5		 mov	 esp, ebp
  00064	5d		 pop	 ebp
  00065	c3		 ret	 0
  00066	cc		 int	 3
  00067	cc		 int	 3
  00068	cc		 int	 3
  00069	cc		 int	 3
  0006a	cc		 int	 3
_TEXT	ENDS
;	COMDAT text$x
text$x	SEGMENT
__ehhandler$??1?$CList@PAU__POSITION@@PAU1@@@UAE@XZ:
  00000	90		 npad	 1
  00001	90		 npad	 1
  00002	8b 54 24 08	 mov	 edx, DWORD PTR [esp+8]
  00006	8d 42 0c	 lea	 eax, DWORD PTR [edx+12]
  00009	8b 4a f8	 mov	 ecx, DWORD PTR [edx-8]
  0000c	33 c8		 xor	 ecx, eax
  0000e	e8 00 00 00 00	 call	 @__security_check_cookie@4
  00013	b8 00 00 00 00	 mov	 eax, OFFSET __ehfuncinfo$??1?$CList@PAU__POSITION@@PAU1@@@UAE@XZ
  00018	e9 00 00 00 00	 jmp	 ___CxxFrameHandler3
text$x	ENDS
??1?$CList@PAU__POSITION@@PAU1@@@UAE@XZ ENDP		; CList<__POSITION *,__POSITION *>::~CList<__POSITION *,__POSITION *>
; Function compile flags: /Ogtp
; File C:\Program Files (x86)\Microsoft Visual Studio\2019\Community\VC\Tools\MSVC\14.29.30133\atlmfc\include\afxtempl.h
;	COMDAT ?NewNode@?$CList@PAU__POSITION@@PAU1@@@IAEPAUCNode@1@PAU21@0@Z
_TEXT	SEGMENT
_pPrev$ = 8						; size = 4
_pNext$ = 12						; size = 4
?NewNode@?$CList@PAU__POSITION@@PAU1@@@IAEPAUCNode@1@PAU21@0@Z PROC ; CList<__POSITION *,__POSITION *>::NewNode, COMDAT
; _this$ = ecx

; 901  : {

  00000	55		 push	 ebp
  00001	8b ec		 mov	 ebp, esp
  00003	56		 push	 esi
  00004	8b f1		 mov	 esi, ecx

; 902  : 	if (m_pNodeFree == NULL)

  00006	83 7e 10 00	 cmp	 DWORD PTR [esi+16], 0
  0000a	75 34		 jne	 SHORT $LN7@NewNode

; 903  : 	{
; 904  : 		// add another block
; 905  : 		CPlex* pNewBlock = CPlex::Create(m_pBlocks, m_nBlockSize,

  0000c	6a 0c		 push	 12			; 0000000cH
  0000e	ff 76 18	 push	 DWORD PTR [esi+24]
  00011	8d 46 14	 lea	 eax, DWORD PTR [esi+20]
  00014	50		 push	 eax
  00015	e8 00 00 00 00	 call	 ?Create@CPlex@@SGPAU1@AAPAU1@II@Z ; CPlex::Create

; 906  : 				 sizeof(CNode));
; 907  : 
; 908  : 		// chain them into free list
; 909  : 		CNode* pNode = (CNode*) pNewBlock->data();
; 910  : 		// free in reverse order to make it easier to debug
; 911  : 		pNode += m_nBlockSize - 1;

  0001a	8b 56 18	 mov	 edx, DWORD PTR [esi+24]
  0001d	83 c0 08	 add	 eax, 8
  00020	8d 0c 52	 lea	 ecx, DWORD PTR [edx+edx*2]
  00023	8d 04 88	 lea	 eax, DWORD PTR [eax+ecx*4]
  00026	83 c0 f4	 add	 eax, -12		; fffffff4H

; 912  : 		for (INT_PTR i = m_nBlockSize-1; i >= 0; i--, pNode--)

  00029	83 c2 ff	 add	 edx, -1
  0002c	78 12		 js	 SHORT $LN7@NewNode
  0002e	66 90		 npad	 2
$LL4@NewNode:

; 913  : 		{
; 914  : 			pNode->pNext = m_pNodeFree;

  00030	8b 4e 10	 mov	 ecx, DWORD PTR [esi+16]
  00033	89 08		 mov	 DWORD PTR [eax], ecx

; 915  : 			m_pNodeFree = pNode;

  00035	89 46 10	 mov	 DWORD PTR [esi+16], eax
  00038	83 e8 0c	 sub	 eax, 12			; 0000000cH
  0003b	83 ea 01	 sub	 edx, 1
  0003e	79 f0		 jns	 SHORT $LL4@NewNode
$LN7@NewNode:

; 916  : 		}
; 917  : 	}
; 918  : 	ENSURE(m_pNodeFree != NULL);  // we must have something

  00040	8b 46 10	 mov	 eax, DWORD PTR [esi+16]
  00043	85 c0		 test	 eax, eax
  00045	74 18		 je	 SHORT $LN17@NewNode

; 919  : 
; 920  : 	CList::CNode* pNode = m_pNodeFree;
; 921  : 	m_pNodeFree = m_pNodeFree->pNext;

  00047	8b 08		 mov	 ecx, DWORD PTR [eax]
  00049	89 4e 10	 mov	 DWORD PTR [esi+16], ecx

; 922  : 	pNode->pPrev = pPrev;

  0004c	8b 4d 08	 mov	 ecx, DWORD PTR _pPrev$[ebp]
  0004f	89 48 04	 mov	 DWORD PTR [eax+4], ecx

; 923  : 	pNode->pNext = pNext;

  00052	8b 4d 0c	 mov	 ecx, DWORD PTR _pNext$[ebp]
  00055	89 08		 mov	 DWORD PTR [eax], ecx

; 924  : 	m_nCount++;

  00057	ff 46 0c	 inc	 DWORD PTR [esi+12]

; 925  : 	ASSERT(m_nCount > 0);  // make sure we don't overflow
; 926  : 
; 927  : #pragma push_macro("new")
; 928  : #undef new
; 929  : 	::new( (void*)( &pNode->data ) ) TYPE;
; 930  : #pragma pop_macro("new")
; 931  : 	return pNode;

  0005a	5e		 pop	 esi

; 932  : }

  0005b	5d		 pop	 ebp
  0005c	c2 08 00	 ret	 8
$LN17@NewNode:

; 916  : 		}
; 917  : 	}
; 918  : 	ENSURE(m_pNodeFree != NULL);  // we must have something

  0005f	e8 00 00 00 00	 call	 ?AfxThrowInvalidArgException@@YGXXZ ; AfxThrowInvalidArgException
$LN15@NewNode:
  00064	cc		 int	 3
?NewNode@?$CList@PAU__POSITION@@PAU1@@@IAEPAUCNode@1@PAU21@0@Z ENDP ; CList<__POSITION *,__POSITION *>::NewNode
_TEXT	ENDS
; Function compile flags: /Ogtp
; File C:\Program Files (x86)\Microsoft Visual Studio\2019\Community\VC\Tools\MSVC\14.29.30133\atlmfc\include\afxtempl.h
;	COMDAT ?FindIndex@?$CList@PAU__POSITION@@PAU1@@@QBEPAU__POSITION@@H@Z
_TEXT	SEGMENT
_nIndex$ = 8						; size = 4
?FindIndex@?$CList@PAU__POSITION@@PAU1@@@QBEPAU__POSITION@@H@Z PROC ; CList<__POSITION *,__POSITION *>::FindIndex, COMDAT
; _this$ = ecx

; 1130 : {

  00000	55		 push	 ebp
  00001	8b ec		 mov	 ebp, esp

; 1131 : 	ASSERT_VALID(this);
; 1132 : 
; 1133 : 	if (nIndex >= m_nCount || nIndex < 0)

  00003	8b 55 08	 mov	 edx, DWORD PTR _nIndex$[ebp]
  00006	3b 51 0c	 cmp	 edx, DWORD PTR [ecx+12]
  00009	7d 14		 jge	 SHORT $LN5@FindIndex
  0000b	85 d2		 test	 edx, edx
  0000d	78 10		 js	 SHORT $LN5@FindIndex

; 1135 : 
; 1136 : 	CNode* pNode = m_pNodeHead;

  0000f	8b 41 04	 mov	 eax, DWORD PTR [ecx+4]

; 1137 : 	while (nIndex--)

  00012	74 0d		 je	 SHORT $LN1@FindIndex
$LL2@FindIndex:

; 1138 : 	{
; 1139 : 		ASSERT(AfxIsValidAddress(pNode, sizeof(CNode)));
; 1140 : 		pNode = pNode->pNext;

  00014	8b 00		 mov	 eax, DWORD PTR [eax]
  00016	83 ea 01	 sub	 edx, 1
  00019	75 f9		 jne	 SHORT $LL2@FindIndex

; 1141 : 	}
; 1142 : 	return (POSITION) pNode;
; 1143 : }

  0001b	5d		 pop	 ebp
  0001c	c2 04 00	 ret	 4
$LN5@FindIndex:

; 1134 : 		return NULL;  // went too far

  0001f	33 c0		 xor	 eax, eax
$LN1@FindIndex:

; 1141 : 	}
; 1142 : 	return (POSITION) pNode;
; 1143 : }

  00021	5d		 pop	 ebp
  00022	c2 04 00	 ret	 4
?FindIndex@?$CList@PAU__POSITION@@PAU1@@@QBEPAU__POSITION@@H@Z ENDP ; CList<__POSITION *,__POSITION *>::FindIndex
_TEXT	ENDS
; Function compile flags: /Ogtp
; File C:\Program Files (x86)\Microsoft Visual Studio\2019\Community\VC\Tools\MSVC\14.29.30133\atlmfc\include\afxtempl.h
;	COMDAT ?RemoveAll@?$CList@PAU__POSITION@@PAU1@@@QAEXXZ
_TEXT	SEGMENT
?RemoveAll@?$CList@PAU__POSITION@@PAU1@@@QAEXXZ PROC	; CList<__POSITION *,__POSITION *>::RemoveAll, COMDAT
; _this$ = ecx

; 862  : {

  00000	56		 push	 esi
  00001	8b f1		 mov	 esi, ecx

; 863  : 	ASSERT_VALID(this);
; 864  : 
; 865  : 	// destroy elements
; 866  : 	CNode* pNode;
; 867  : 	for (pNode = m_pNodeHead; pNode != NULL; pNode = pNode->pNext)
; 868  : 		pNode->data.~TYPE();
; 869  : 
; 870  : 	m_nCount = 0;
; 871  : 	m_pNodeHead = m_pNodeTail = m_pNodeFree = NULL;
; 872  : 	m_pBlocks->FreeDataChain();

  00003	8b 4e 14	 mov	 ecx, DWORD PTR [esi+20]
  00006	c7 46 0c 00 00
	00 00		 mov	 DWORD PTR [esi+12], 0
  0000d	c7 46 10 00 00
	00 00		 mov	 DWORD PTR [esi+16], 0
  00014	c7 46 08 00 00
	00 00		 mov	 DWORD PTR [esi+8], 0
  0001b	c7 46 04 00 00
	00 00		 mov	 DWORD PTR [esi+4], 0
  00022	e8 00 00 00 00	 call	 ?FreeDataChain@CPlex@@QAEXXZ ; CPlex::FreeDataChain

; 873  : 	m_pBlocks = NULL;

  00027	c7 46 14 00 00
	00 00		 mov	 DWORD PTR [esi+20], 0
  0002e	5e		 pop	 esi

; 874  : }

  0002f	c3		 ret	 0
?RemoveAll@?$CList@PAU__POSITION@@PAU1@@@QAEXXZ ENDP	; CList<__POSITION *,__POSITION *>::RemoveAll
_TEXT	ENDS
; Function compile flags: /Ogtp
; File C:\Program Files (x86)\Microsoft Visual Studio\2019\Community\VC\Tools\MSVC\14.29.30133\atlmfc\include\afxtempl.h
;	COMDAT ?AddTail@?$CList@PAU__POSITION@@PAU1@@@QAEPAU__POSITION@@PAU2@@Z
_TEXT	SEGMENT
_newElement$ = 8					; size = 4
?AddTail@?$CList@PAU__POSITION@@PAU1@@@QAEPAU__POSITION@@PAU2@@Z PROC ; CList<__POSITION *,__POSITION *>::AddTail, COMDAT
; _this$ = ecx

; 965  : {

  00000	55		 push	 ebp
  00001	8b ec		 mov	 ebp, esp
  00003	56		 push	 esi
  00004	8b f1		 mov	 esi, ecx
  00006	57		 push	 edi

; 902  : 	if (m_pNodeFree == NULL)

  00007	83 7e 10 00	 cmp	 DWORD PTR [esi+16], 0

; 966  : 	ASSERT_VALID(this);
; 967  : 
; 968  : 	CNode* pNewNode = NewNode(m_pNodeTail, NULL);

  0000b	8b 7e 08	 mov	 edi, DWORD PTR [esi+8]

; 902  : 	if (m_pNodeFree == NULL)

  0000e	75 32		 jne	 SHORT $LN11@AddTail

; 903  : 	{
; 904  : 		// add another block
; 905  : 		CPlex* pNewBlock = CPlex::Create(m_pBlocks, m_nBlockSize,

  00010	6a 0c		 push	 12			; 0000000cH
  00012	ff 76 18	 push	 DWORD PTR [esi+24]
  00015	8d 46 14	 lea	 eax, DWORD PTR [esi+20]
  00018	50		 push	 eax
  00019	e8 00 00 00 00	 call	 ?Create@CPlex@@SGPAU1@AAPAU1@II@Z ; CPlex::Create

; 906  : 				 sizeof(CNode));
; 907  : 
; 908  : 		// chain them into free list
; 909  : 		CNode* pNode = (CNode*) pNewBlock->data();
; 910  : 		// free in reverse order to make it easier to debug
; 911  : 		pNode += m_nBlockSize - 1;

  0001e	8b 56 18	 mov	 edx, DWORD PTR [esi+24]
  00021	83 c0 08	 add	 eax, 8
  00024	8d 4a ff	 lea	 ecx, DWORD PTR [edx-1]

; 912  : 		for (INT_PTR i = m_nBlockSize-1; i >= 0; i--, pNode--)

  00027	83 c2 ff	 add	 edx, -1
  0002a	8d 0c 49	 lea	 ecx, DWORD PTR [ecx+ecx*2]
  0002d	8d 0c 88	 lea	 ecx, DWORD PTR [eax+ecx*4]
  00030	78 10		 js	 SHORT $LN11@AddTail
$LL8@AddTail:

; 913  : 		{
; 914  : 			pNode->pNext = m_pNodeFree;

  00032	8b 46 10	 mov	 eax, DWORD PTR [esi+16]
  00035	89 01		 mov	 DWORD PTR [ecx], eax

; 915  : 			m_pNodeFree = pNode;

  00037	89 4e 10	 mov	 DWORD PTR [esi+16], ecx
  0003a	83 e9 0c	 sub	 ecx, 12			; 0000000cH
  0003d	83 ea 01	 sub	 edx, 1
  00040	79 f0		 jns	 SHORT $LL8@AddTail
$LN11@AddTail:

; 916  : 		}
; 917  : 	}
; 918  : 	ENSURE(m_pNodeFree != NULL);  // we must have something

  00042	8b 4e 10	 mov	 ecx, DWORD PTR [esi+16]
  00045	85 c9		 test	 ecx, ecx
  00047	74 39		 je	 SHORT $LN22@AddTail

; 919  : 
; 920  : 	CList::CNode* pNode = m_pNodeFree;
; 921  : 	m_pNodeFree = m_pNodeFree->pNext;

  00049	8b 01		 mov	 eax, DWORD PTR [ecx]
  0004b	89 46 10	 mov	 DWORD PTR [esi+16], eax

; 969  : 	pNewNode->data = newElement;

  0004e	8b 45 08	 mov	 eax, DWORD PTR _newElement$[ebp]

; 922  : 	pNode->pPrev = pPrev;

  00051	89 79 04	 mov	 DWORD PTR [ecx+4], edi

; 923  : 	pNode->pNext = pNext;

  00054	c7 01 00 00 00
	00		 mov	 DWORD PTR [ecx], 0

; 924  : 	m_nCount++;

  0005a	ff 46 0c	 inc	 DWORD PTR [esi+12]

; 969  : 	pNewNode->data = newElement;

  0005d	89 41 08	 mov	 DWORD PTR [ecx+8], eax

; 970  : 	if (m_pNodeTail != NULL)

  00060	8b 46 08	 mov	 eax, DWORD PTR [esi+8]
  00063	85 c0		 test	 eax, eax
  00065	74 0d		 je	 SHORT $LN2@AddTail

; 971  : 		m_pNodeTail->pNext = pNewNode;

  00067	89 08		 mov	 DWORD PTR [eax], ecx

; 972  : 	else
; 973  : 		m_pNodeHead = pNewNode;
; 974  : 	m_pNodeTail = pNewNode;
; 975  : 	return (POSITION) pNewNode;

  00069	8b c1		 mov	 eax, ecx
  0006b	5f		 pop	 edi
  0006c	89 4e 08	 mov	 DWORD PTR [esi+8], ecx
  0006f	5e		 pop	 esi

; 976  : }

  00070	5d		 pop	 ebp
  00071	c2 04 00	 ret	 4
$LN2@AddTail:

; 972  : 	else
; 973  : 		m_pNodeHead = pNewNode;
; 974  : 	m_pNodeTail = pNewNode;
; 975  : 	return (POSITION) pNewNode;

  00074	5f		 pop	 edi
  00075	89 4e 04	 mov	 DWORD PTR [esi+4], ecx
  00078	8b c1		 mov	 eax, ecx
  0007a	89 4e 08	 mov	 DWORD PTR [esi+8], ecx
  0007d	5e		 pop	 esi

; 976  : }

  0007e	5d		 pop	 ebp
  0007f	c2 04 00	 ret	 4
$LN22@AddTail:

; 918  : 	ENSURE(m_pNodeFree != NULL);  // we must have something

  00082	e8 00 00 00 00	 call	 ?AfxThrowInvalidArgException@@YGXXZ ; AfxThrowInvalidArgException
$LN20@AddTail:
  00087	cc		 int	 3
?AddTail@?$CList@PAU__POSITION@@PAU1@@@QAEPAU__POSITION@@PAU2@@Z ENDP ; CList<__POSITION *,__POSITION *>::AddTail
_TEXT	ENDS
; Function compile flags: /Ogtp
; File C:\Program Files (x86)\Microsoft Visual Studio\2019\Community\VC\Tools\MSVC\14.29.30133\atlmfc\include\afxtempl.h
;	COMDAT ??0?$CList@PAU__POSITION@@PAU1@@@QAE@H@Z
_TEXT	SEGMENT
_nBlockSize$ = 8					; size = 4
??0?$CList@PAU__POSITION@@PAU1@@@QAE@H@Z PROC		; CList<__POSITION *,__POSITION *>::CList<__POSITION *,__POSITION *>, COMDAT
; _this$ = ecx

; 851  : {

  00000	55		 push	 ebp
  00001	8b ec		 mov	 ebp, esp

; 852  : 	ASSERT(nBlockSize > 0);
; 853  : 
; 854  : 	m_nCount = 0;
; 855  : 	m_pNodeHead = m_pNodeTail = m_pNodeFree = NULL;
; 856  : 	m_pBlocks = NULL;
; 857  : 	m_nBlockSize = nBlockSize;

  00003	8b 45 08	 mov	 eax, DWORD PTR _nBlockSize$[ebp]
  00006	89 41 18	 mov	 DWORD PTR [ecx+24], eax

; 858  : }

  00009	8b c1		 mov	 eax, ecx
  0000b	c7 01 00 00 00
	00		 mov	 DWORD PTR [ecx], OFFSET ??_7?$CList@PAU__POSITION@@PAU1@@@6B@
  00011	c7 41 0c 00 00
	00 00		 mov	 DWORD PTR [ecx+12], 0
  00018	c7 41 10 00 00
	00 00		 mov	 DWORD PTR [ecx+16], 0
  0001f	c7 41 08 00 00
	00 00		 mov	 DWORD PTR [ecx+8], 0
  00026	c7 41 04 00 00
	00 00		 mov	 DWORD PTR [ecx+4], 0
  0002d	c7 41 14 00 00
	00 00		 mov	 DWORD PTR [ecx+20], 0
  00034	5d		 pop	 ebp
  00035	c2 04 00	 ret	 4
??0?$CList@PAU__POSITION@@PAU1@@@QAE@H@Z ENDP		; CList<__POSITION *,__POSITION *>::CList<__POSITION *,__POSITION *>
_TEXT	ENDS
; Function compile flags: /Ogtp
;	COMDAT ??4CGraphDrawer@@QAEAAV0@$$QAV0@@Z
_TEXT	SEGMENT
___that$ = 8						; size = 4
??4CGraphDrawer@@QAEAAV0@$$QAV0@@Z PROC			; CGraphDrawer::operator=, COMDAT
; _this$ = ecx
  00000	8b c1		 mov	 eax, ecx
  00002	c2 04 00	 ret	 4
??4CGraphDrawer@@QAEAAV0@$$QAV0@@Z ENDP			; CGraphDrawer::operator=
_TEXT	ENDS
; Function compile flags: /Ogtp
;	COMDAT ??4CGraphDrawer@@QAEAAV0@ABV0@@Z
_TEXT	SEGMENT
___that$ = 8						; size = 4
??4CGraphDrawer@@QAEAAV0@ABV0@@Z PROC			; CGraphDrawer::operator=, COMDAT
; _this$ = ecx
  00000	8b c1		 mov	 eax, ecx
  00002	c2 04 00	 ret	 4
??4CGraphDrawer@@QAEAAV0@ABV0@@Z ENDP			; CGraphDrawer::operator=
_TEXT	ENDS
; Function compile flags: /Ogtp
; File D:\git\src\IBK\IBK_DRFN\ProjSrc\SrcChartEx\ChartOCX\GraphDraw\FundDraw.cpp
;	COMDAT ??_GCFundDraw@@UAEPAXI@Z
_TEXT	SEGMENT
___flags$ = 8						; size = 4
??_GCFundDraw@@UAEPAXI@Z PROC				; CFundDraw::`scalar deleting destructor', COMDAT
; _this$ = ecx
  00000	55		 push	 ebp
  00001	8b ec		 mov	 ebp, esp

; 34   : {

  00003	56		 push	 esi
  00004	8b f1		 mov	 esi, ecx
  00006	c7 06 00 00 00
	00		 mov	 DWORD PTR [esi], OFFSET ??_7CFundDraw@@6B@

; 35   : }

  0000c	e8 00 00 00 00	 call	 ??1CDraw@@UAE@XZ	; CDraw::~CDraw
  00011	f6 45 08 01	 test	 BYTE PTR ___flags$[ebp], 1
  00015	74 0b		 je	 SHORT $LN7@scalar
  00017	6a 28		 push	 40			; 00000028H
  00019	56		 push	 esi
  0001a	e8 00 00 00 00	 call	 ??3@YAXPAXI@Z		; operator delete
  0001f	83 c4 08	 add	 esp, 8
$LN7@scalar:
  00022	8b c6		 mov	 eax, esi
  00024	5e		 pop	 esi
  00025	5d		 pop	 ebp
  00026	c2 04 00	 ret	 4
??_GCFundDraw@@UAEPAXI@Z ENDP				; CFundDraw::`scalar deleting destructor'
_TEXT	ENDS
; Function compile flags: /Ogtp
; File D:\git\src\IBK\IBK_DRFN\ProjSrc\SrcChartEx\ChartOCX\GraphDraw\FundDraw.cpp
; File C:\Program Files (x86)\Microsoft Visual Studio\2019\Community\VC\Tools\MSVC\14.29.30133\atlmfc\include\afxwin1.inl
; File D:\git\src\IBK\IBK_DRFN\ProjSrc\SrcChartEx\ChartOCX\GraphDraw\FundDraw.cpp
;	COMDAT ?DrawBox@CFundDraw@@AAEXPAVCDC@@VCRect@@@Z
_TEXT	SEGMENT
_pDC$ = 8						; size = 4
_rect$ = 12						; size = 16
?DrawBox@CFundDraw@@AAEXPAVCDC@@VCRect@@@Z PROC		; CFundDraw::DrawBox, COMDAT
; _this$ = ecx

; 1288 : {

  00000	55		 push	 ebp
  00001	8b ec		 mov	 ebp, esp

; 1289 : 	CDraw::DrawRectangle(pDC, rect);

  00003	0f 10 45 0c	 movups	 xmm0, XMMWORD PTR _rect$[ebp]
  00007	56		 push	 esi
  00008	8b 75 08	 mov	 esi, DWORD PTR _pDC$[ebp]
  0000b	83 ec 10	 sub	 esp, 16			; 00000010H
  0000e	8b c4		 mov	 eax, esp
  00010	56		 push	 esi
  00011	0f 11 00	 movups	 XMMWORD PTR [eax], xmm0
  00014	e8 00 00 00 00	 call	 ?DrawRectangle@CDraw@@IAEXPAVCDC@@VCRect@@@Z ; CDraw::DrawRectangle
; File C:\Program Files (x86)\Microsoft Visual Studio\2019\Community\VC\Tools\MSVC\14.29.30133\atlmfc\include\afxwin1.inl

; 510  : 	{ ASSERT(m_hDC != NULL); return ::DrawEdge(m_hDC, lpRect, nEdge, nFlags); }

  00019	6a 0f		 push	 15			; 0000000fH
  0001b	6a 0a		 push	 10			; 0000000aH
  0001d	8d 45 0c	 lea	 eax, DWORD PTR _rect$[ebp]
  00020	50		 push	 eax
  00021	ff 76 04	 push	 DWORD PTR [esi+4]
  00024	ff 15 00 00 00
	00		 call	 DWORD PTR __imp__DrawEdge@16
; File D:\git\src\IBK\IBK_DRFN\ProjSrc\SrcChartEx\ChartOCX\GraphDraw\FundDraw.cpp

; 1291 : }

  0002a	5e		 pop	 esi
  0002b	5d		 pop	 ebp
  0002c	c2 14 00	 ret	 20			; 00000014H
?DrawBox@CFundDraw@@AAEXPAVCDC@@VCRect@@@Z ENDP		; CFundDraw::DrawBox
_TEXT	ENDS
; Function compile flags: /Ogtp
; File D:\git\src\IBK\IBK_DRFN\ProjSrc\SrcChartEx\ChartOCX\GraphDraw\FundDraw.cpp
; File C:\Program Files (x86)\Microsoft Visual Studio\2019\Community\VC\Tools\MSVC\14.29.30133\atlmfc\include\afxtempl.h
; File D:\git\src\IBK\IBK_DRFN\ProjSrc\SrcChartEx\ChartOCX\GraphDraw\FundDraw.cpp
; File C:\Program Files (x86)\Microsoft Visual Studio\2019\Community\VC\Tools\MSVC\14.29.30133\atlmfc\include\afxwin1.inl
; File D:\git\src\IBK\IBK_DRFN\ProjSrc\SrcChartEx\ChartOCX\GraphDraw\FundDraw.cpp
; File C:\Program Files (x86)\Microsoft Visual Studio\2019\Community\VC\Tools\MSVC\14.29.30133\atlmfc\include\afxwin1.inl
; File D:\git\src\IBK\IBK_DRFN\ProjSrc\SrcChartEx\ChartOCX\GraphDraw\FundDraw.cpp
; File C:\Program Files (x86)\Microsoft Visual Studio\2019\Community\VC\Tools\MSVC\14.29.30133\atlmfc\include\afxtempl.h
; File D:\git\src\IBK\IBK_DRFN\ProjSrc\SrcChartEx\ChartOCX\GraphDraw\FundDraw.cpp
; File C:\Program Files (x86)\Microsoft Visual Studio\2019\Community\VC\Tools\MSVC\14.29.30133\atlmfc\include\afxtempl.h
; File D:\git\src\IBK\IBK_DRFN\ProjSrc\SrcChartEx\ChartOCX\GraphDraw\FundDraw.cpp
; File C:\Program Files (x86)\Microsoft Visual Studio\2019\Community\VC\Tools\MSVC\14.29.30133\atlmfc\include\afxtempl.h
; File D:\git\src\IBK\IBK_DRFN\ProjSrc\SrcChartEx\ChartOCX\GraphDraw\FundDraw.cpp
; File C:\Program Files (x86)\Microsoft Visual Studio\2019\Community\VC\Tools\MSVC\14.29.30133\atlmfc\include\atltypes.h
; File D:\git\src\IBK\IBK_DRFN\ProjSrc\SrcChartEx\ChartOCX\GraphDraw\FundDraw.cpp
; File C:\Program Files (x86)\Microsoft Visual Studio\2019\Community\VC\Tools\MSVC\14.29.30133\atlmfc\include\atltypes.h
; File D:\git\src\IBK\IBK_DRFN\ProjSrc\SrcChartEx\ChartOCX\GraphDraw\FundDraw.cpp
; File C:\Program Files (x86)\Microsoft Visual Studio\2019\Community\VC\Tools\MSVC\14.29.30133\atlmfc\include\atltypes.h
; File D:\git\src\IBK\IBK_DRFN\ProjSrc\SrcChartEx\ChartOCX\GraphDraw\FundDraw.cpp
; File C:\Program Files (x86)\Microsoft Visual Studio\2019\Community\VC\Tools\MSVC\14.29.30133\atlmfc\include\atltypes.h
; File D:\git\src\IBK\IBK_DRFN\ProjSrc\SrcChartEx\ChartOCX\GraphDraw\FundDraw.cpp
; File C:\Program Files (x86)\Microsoft Visual Studio\2019\Community\VC\Tools\MSVC\14.29.30133\atlmfc\include\atltypes.h
; File D:\git\src\IBK\IBK_DRFN\ProjSrc\SrcChartEx\ChartOCX\GraphDraw\FundDraw.cpp
; File C:\Program Files (x86)\Microsoft Visual Studio\2019\Community\VC\Tools\MSVC\14.29.30133\atlmfc\include\afxwin1.inl
; File D:\git\src\IBK\IBK_DRFN\ProjSrc\SrcChartEx\ChartOCX\GraphDraw\FundDraw.cpp
;	COMDAT ?DrawGroupBar@CFundDraw@@AAE_NPAVCDC@@ABVCEtcGraphColor@@ABVCRect@@ABVCGraphColor@@HHHABN4ABV?$CList@PAVCPacket@@PAV1@@@VCPenThickness@@@Z
_TEXT	SEGMENT
_realBarWidth$1$ = -184					; size = 8
_volumnData$2 = -176					; size = 8
_standardDataPt$ = -168					; size = 8
_rect$3 = -160						; size = 16
_realWidth$ = -144					; size = 8
_pOldPen$1$ = -136					; size = 4
_pOldBrush$1$ = -132					; size = 4
_pos$2$ = -128						; size = 4
_dataPt$4 = -124					; size = 8
$T5 = -124						; size = 8
_secondBrush$ = -116					; size = 8
_thirdBrush$ = -108					; size = 8
_fourBrush$ = -100					; size = 8
_fiveBrush$ = -92					; size = 8
_sixBrush$ = -84					; size = 8
_sevenBrush$ = -76					; size = 8
_eightBrush$ = -68					; size = 8
_nineBrush$ = -60					; size = 8
_tenBrush$ = -52					; size = 8
_firstBrush$ = -44					; size = 8
_pen$ = -36						; size = 8
_packetCount$1$ = -28					; size = 4
_nIndex$1$ = -24					; size = 4
tv1271 = -24						; size = 4
$T6 = -20						; size = 4
_pPacket$2$ = -20					; size = 4
_this$1$ = -16						; size = 4
__$EHRec$ = -12						; size = 12
_pDC$ = 8						; size = 4
tv1278 = 12						; size = 4
_etcGraphColor$ = 12					; size = 4
_graphDrawingRegion$ = 16				; size = 4
_count$1$ = 20						; size = 4
_graphColor$ = 20					; size = 4
$T7 = 24						; size = 4
$T8 = 24						; size = 4
_dataStart$ = 24					; size = 4
_lineThickness$1$ = 28					; size = 4
tv1274 = 28						; size = 4
_dataEnd$ = 28						; size = 4
_dataRealEnd$ = 32					; size = 4
_dataViewMax$ = 36					; size = 4
_dataViewMin$ = 40					; size = 4
_packetList$ = 44					; size = 4
_penThickness$ = 48					; size = 20
?DrawGroupBar@CFundDraw@@AAE_NPAVCDC@@ABVCEtcGraphColor@@ABVCRect@@ABVCGraphColor@@HHHABN4ABV?$CList@PAVCPacket@@PAV1@@@VCPenThickness@@@Z PROC ; CFundDraw::DrawGroupBar, COMDAT
; _this$ = ecx

; 1161 : {

  00000	55		 push	 ebp
  00001	8b ec		 mov	 ebp, esp
  00003	6a ff		 push	 -1
  00005	68 00 00 00 00	 push	 __ehhandler$?DrawGroupBar@CFundDraw@@AAE_NPAVCDC@@ABVCEtcGraphColor@@ABVCRect@@ABVCGraphColor@@HHHABN4ABV?$CList@PAVCPacket@@PAV1@@@VCPenThickness@@@Z
  0000a	64 a1 00 00 00
	00		 mov	 eax, DWORD PTR fs:0
  00010	50		 push	 eax
  00011	81 ec ac 00 00
	00		 sub	 esp, 172		; 000000acH
  00017	56		 push	 esi
  00018	57		 push	 edi
  00019	a1 00 00 00 00	 mov	 eax, DWORD PTR ___security_cookie
  0001e	33 c5		 xor	 eax, ebp
  00020	50		 push	 eax
  00021	8d 45 f4	 lea	 eax, DWORD PTR __$EHRec$[ebp]
  00024	64 a3 00 00 00
	00		 mov	 DWORD PTR fs:0, eax
  0002a	8b f9		 mov	 edi, ecx
  0002c	89 7d f0	 mov	 DWORD PTR _this$1$[ebp], edi

; 1162 : 	POSITION pos = packetList.GetHeadPosition();

  0002f	8b 45 2c	 mov	 eax, DWORD PTR _packetList$[ebp]

; 1163 : 	
; 1164 : 	int packetCount = packetList.GetCount();
; 1165 : 
; 1166 : 	CPacket* pPacket;
; 1167 : 	for(int j = 0; j < packetCount; j++){

  00032	33 f6		 xor	 esi, esi
  00034	8b 48 0c	 mov	 ecx, DWORD PTR [eax+12]
  00037	8b 50 04	 mov	 edx, DWORD PTR [eax+4]
  0003a	89 4d e4	 mov	 DWORD PTR _packetCount$1$[ebp], ecx
  0003d	85 c9		 test	 ecx, ecx
  0003f	7e 1b		 jle	 SHORT $LN3@DrawGroupB
$LL4@DrawGroupB:

; 1168 : 		if(pos == NULL)

  00041	85 d2		 test	 edx, edx
  00043	0f 84 8f 05 00
	00		 je	 $LN123@DrawGroupB
; File C:\Program Files (x86)\Microsoft Visual Studio\2019\Community\VC\Tools\MSVC\14.29.30133\atlmfc\include\afxtempl.h

; 817  : 	{ CNode* pNode = (CNode*) rPosition;

  00049	8b c2		 mov	 eax, edx

; 819  : 		rPosition = (POSITION) pNode->pNext;

  0004b	8b 12		 mov	 edx, DWORD PTR [edx]
; File D:\git\src\IBK\IBK_DRFN\ProjSrc\SrcChartEx\ChartOCX\GraphDraw\FundDraw.cpp

; 1171 : 		if(pPacket == NULL)

  0004d	83 78 08 00	 cmp	 DWORD PTR [eax+8], 0
  00051	0f 84 81 05 00
	00		 je	 $LN123@DrawGroupB

; 1163 : 	
; 1164 : 	int packetCount = packetList.GetCount();
; 1165 : 
; 1166 : 	CPacket* pPacket;
; 1167 : 	for(int j = 0; j < packetCount; j++){

  00057	46		 inc	 esi
  00058	3b f1		 cmp	 esi, ecx
  0005a	7c e5		 jl	 SHORT $LL4@DrawGroupB
$LN3@DrawGroupB:

; 1172 : 			return false;
; 1173 : 	}
; 1174 : 
; 1175 : 	double widthRatio=8.0/10.0;	// barwidth     
; 1176 : 	double realWidth = CDraw::CalRealWidth(graphDrawingRegion, dataStart, dataEnd);

  0005c	ff 75 1c	 push	 DWORD PTR _dataEnd$[ebp]
  0005f	8b cf		 mov	 ecx, edi
  00061	ff 75 18	 push	 DWORD PTR _dataStart$[ebp]
  00064	ff 75 10	 push	 DWORD PTR _graphDrawingRegion$[ebp]
  00067	e8 00 00 00 00	 call	 ?CalRealWidth@CDraw@@IAENABVCRect@@HH@Z ; CDraw::CalRealWidth
  0006c	dd 9d 70 ff ff
	ff		 fstp	 QWORD PTR _realWidth$[ebp]

; 1177 : 	double barWidth = int(realWidth*widthRatio);

  00072	f2 0f 10 85 70
	ff ff ff	 movsd	 xmm0, QWORD PTR _realWidth$[ebp]

; 1178 : 	double realBarWidth = barWidth / packetCount;
; 1179 : 
; 1180 : 	int lineThickness = CDraw::CalUpLineThickness(penThickness, int(realBarWidth));

  0007a	8b cf		 mov	 ecx, edi
  0007c	f2 0f 59 05 00
	00 00 00	 mulsd	 xmm0, QWORD PTR __real@3fe999999999999a
  00084	f2 0f 2c f0	 cvttsd2si esi, xmm0
  00088	66 0f 6e 45 e4	 movd	 xmm0, DWORD PTR _packetCount$1$[ebp]
  0008d	f3 0f e6 c0	 cvtdq2pd xmm0, xmm0
  00091	66 0f 6e ce	 movd	 xmm1, esi
  00095	f3 0f e6 c9	 cvtdq2pd xmm1, xmm1
  00099	f2 0f 5e c8	 divsd	 xmm1, xmm0
  0009d	f2 0f 2c c1	 cvttsd2si eax, xmm1
  000a1	f2 0f 11 8d 48
	ff ff ff	 movsd	 QWORD PTR _realBarWidth$1$[ebp], xmm1
  000a9	50		 push	 eax
  000aa	8d 45 30	 lea	 eax, DWORD PTR _penThickness$[ebp]
  000ad	50		 push	 eax
  000ae	e8 00 00 00 00	 call	 ?CalUpLineThickness@CDraw@@IAEHABVCPenThickness@@H@Z ; CDraw::CalUpLineThickness

; 1181 : 
; 1182 : 	int brushCount = 10;
; 1183 : 	CBrush firstBrush	(graphColor.GetColor1());

  000b3	8b 7d 14	 mov	 edi, DWORD PTR _graphColor$[ebp]
  000b6	8b cf		 mov	 ecx, edi
  000b8	89 45 1c	 mov	 DWORD PTR _lineThickness$1$[ebp], eax
  000bb	ff 15 00 00 00
	00		 call	 DWORD PTR __imp_?GetColor1@CGraphColor@@QBEKXZ
  000c1	50		 push	 eax
  000c2	8d 4d d4	 lea	 ecx, DWORD PTR _firstBrush$[ebp]
  000c5	e8 00 00 00 00	 call	 ??0CBrush@@QAE@K@Z	; CBrush::CBrush

; 1184 : 	CBrush secondBrush	(graphColor.GetColor2());

  000ca	8b cf		 mov	 ecx, edi
  000cc	c7 45 fc 00 00
	00 00		 mov	 DWORD PTR __$EHRec$[ebp+8], 0
  000d3	ff 15 00 00 00
	00		 call	 DWORD PTR __imp_?GetColor2@CGraphColor@@QBEKXZ
  000d9	50		 push	 eax
  000da	8d 4d 8c	 lea	 ecx, DWORD PTR _secondBrush$[ebp]
  000dd	e8 00 00 00 00	 call	 ??0CBrush@@QAE@K@Z	; CBrush::CBrush

; 1185 : 	CBrush thirdBrush	(graphColor.GetColor3());

  000e2	8b cf		 mov	 ecx, edi
  000e4	c6 45 fc 01	 mov	 BYTE PTR __$EHRec$[ebp+8], 1
  000e8	ff 15 00 00 00
	00		 call	 DWORD PTR __imp_?GetColor3@CGraphColor@@QBEKXZ
  000ee	50		 push	 eax
  000ef	8d 4d 94	 lea	 ecx, DWORD PTR _thirdBrush$[ebp]
  000f2	e8 00 00 00 00	 call	 ??0CBrush@@QAE@K@Z	; CBrush::CBrush

; 1186 : 	CBrush fourBrush	(graphColor.GetColor4());

  000f7	8b cf		 mov	 ecx, edi
  000f9	c6 45 fc 02	 mov	 BYTE PTR __$EHRec$[ebp+8], 2
  000fd	ff 15 00 00 00
	00		 call	 DWORD PTR __imp_?GetColor4@CGraphColor@@QBEKXZ
  00103	50		 push	 eax
  00104	8d 4d 9c	 lea	 ecx, DWORD PTR _fourBrush$[ebp]
  00107	e8 00 00 00 00	 call	 ??0CBrush@@QAE@K@Z	; CBrush::CBrush

; 1187 : 	CBrush fiveBrush	(graphColor.GetColor5());

  0010c	8b cf		 mov	 ecx, edi
  0010e	c6 45 fc 03	 mov	 BYTE PTR __$EHRec$[ebp+8], 3
  00112	ff 15 00 00 00
	00		 call	 DWORD PTR __imp_?GetColor5@CGraphColor@@QBEKXZ
  00118	50		 push	 eax
  00119	8d 4d a4	 lea	 ecx, DWORD PTR _fiveBrush$[ebp]
  0011c	e8 00 00 00 00	 call	 ??0CBrush@@QAE@K@Z	; CBrush::CBrush

; 1188 : 	CBrush sixBrush		(graphColor.GetColor6());

  00121	8b cf		 mov	 ecx, edi
  00123	c6 45 fc 04	 mov	 BYTE PTR __$EHRec$[ebp+8], 4
  00127	ff 15 00 00 00
	00		 call	 DWORD PTR __imp_?GetColor6@CGraphColor@@QBEKXZ
  0012d	50		 push	 eax
  0012e	8d 4d ac	 lea	 ecx, DWORD PTR _sixBrush$[ebp]
  00131	e8 00 00 00 00	 call	 ??0CBrush@@QAE@K@Z	; CBrush::CBrush

; 1189 : 	CBrush sevenBrush	(etcGraphColor.GetGraphColor1());

  00136	8b 7d 0c	 mov	 edi, DWORD PTR _etcGraphColor$[ebp]
  00139	8b cf		 mov	 ecx, edi
  0013b	c6 45 fc 05	 mov	 BYTE PTR __$EHRec$[ebp+8], 5
  0013f	ff 15 00 00 00
	00		 call	 DWORD PTR __imp_?GetGraphColor1@CEtcGraphColor@@QBEKXZ
  00145	50		 push	 eax
  00146	8d 4d b4	 lea	 ecx, DWORD PTR _sevenBrush$[ebp]
  00149	e8 00 00 00 00	 call	 ??0CBrush@@QAE@K@Z	; CBrush::CBrush

; 1190 : 	CBrush eightBrush	(etcGraphColor.GetGraphColor2());

  0014e	8b cf		 mov	 ecx, edi
  00150	c6 45 fc 06	 mov	 BYTE PTR __$EHRec$[ebp+8], 6
  00154	ff 15 00 00 00
	00		 call	 DWORD PTR __imp_?GetGraphColor2@CEtcGraphColor@@QBEKXZ
  0015a	50		 push	 eax
  0015b	8d 4d bc	 lea	 ecx, DWORD PTR _eightBrush$[ebp]
  0015e	e8 00 00 00 00	 call	 ??0CBrush@@QAE@K@Z	; CBrush::CBrush
  00163	c6 45 fc 07	 mov	 BYTE PTR __$EHRec$[ebp+8], 7

; 1191 : 	CBrush nineBrush	(etcGraphColor.GetGraphColor3());

  00167	8b cf		 mov	 ecx, edi
  00169	ff 15 00 00 00
	00		 call	 DWORD PTR __imp_?GetGraphColor3@CEtcGraphColor@@QBEKXZ
  0016f	50		 push	 eax
  00170	8d 4d c4	 lea	 ecx, DWORD PTR _nineBrush$[ebp]
  00173	e8 00 00 00 00	 call	 ??0CBrush@@QAE@K@Z	; CBrush::CBrush

; 1192 : 	CBrush tenBrush		(etcGraphColor.GetGraphColor4());

  00178	8b cf		 mov	 ecx, edi
  0017a	c6 45 fc 08	 mov	 BYTE PTR __$EHRec$[ebp+8], 8
  0017e	ff 15 00 00 00
	00		 call	 DWORD PTR __imp_?GetGraphColor4@CEtcGraphColor@@QBEKXZ
  00184	50		 push	 eax
  00185	8d 4d cc	 lea	 ecx, DWORD PTR _tenBrush$[ebp]
  00188	e8 00 00 00 00	 call	 ??0CBrush@@QAE@K@Z	; CBrush::CBrush
; File C:\Program Files (x86)\Microsoft Visual Studio\2019\Community\VC\Tools\MSVC\14.29.30133\atlmfc\include\afxwin1.inl

; 70   : 	{ m_hObject = NULL; }

  0018d	c7 45 e0 00 00
	00 00		 mov	 DWORD PTR _pen$[ebp+4], 0

; 104  : 	{ }

  00194	c7 45 dc 00 00
	00 00		 mov	 DWORD PTR _pen$[ebp], OFFSET ??_7CPen@@6B@
; File D:\git\src\IBK\IBK_DRFN\ProjSrc\SrcChartEx\ChartOCX\GraphDraw\FundDraw.cpp

; 1195 : 	pen.CreatePen(PS_SOLID, lineThickness, etcGraphColor.GetGraphColor5());

  0019b	8b cf		 mov	 ecx, edi
  0019d	c6 45 fc 0a	 mov	 BYTE PTR __$EHRec$[ebp+8], 10 ; 0000000aH
  001a1	ff 15 00 00 00
	00		 call	 DWORD PTR __imp_?GetGraphColor5@CEtcGraphColor@@QBEKXZ
; File C:\Program Files (x86)\Microsoft Visual Studio\2019\Community\VC\Tools\MSVC\14.29.30133\atlmfc\include\afxwin1.inl

; 108  : 	{ return Attach(::CreatePen(nPenStyle, nWidth, crColor)); }

  001a7	50		 push	 eax
  001a8	ff 75 1c	 push	 DWORD PTR _lineThickness$1$[ebp]
  001ab	6a 00		 push	 0
  001ad	ff 15 00 00 00
	00		 call	 DWORD PTR __imp__CreatePen@12
  001b3	50		 push	 eax
  001b4	8d 4d dc	 lea	 ecx, DWORD PTR _pen$[ebp]
  001b7	e8 00 00 00 00	 call	 ?Attach@CGdiObject@@QAEHPAX@Z ; CGdiObject::Attach
; File D:\git\src\IBK\IBK_DRFN\ProjSrc\SrcChartEx\ChartOCX\GraphDraw\FundDraw.cpp

; 1199 : 	pOldBrush = (CBrush*)pDC->SelectObject(&firstBrush);

  001bc	8b 7d 08	 mov	 edi, DWORD PTR _pDC$[ebp]
  001bf	8d 45 d4	 lea	 eax, DWORD PTR _firstBrush$[ebp]
  001c2	50		 push	 eax
  001c3	8b cf		 mov	 ecx, edi
  001c5	e8 00 00 00 00	 call	 ?SelectObject@CDC@@QAEPAVCBrush@@PAV2@@Z ; CDC::SelectObject
  001ca	89 85 7c ff ff
	ff		 mov	 DWORD PTR _pOldBrush$1$[ebp], eax

; 1200 : 	pOldPen = (CPen*)pDC->SelectObject(&pen);

  001d0	8b cf		 mov	 ecx, edi
  001d2	8d 45 dc	 lea	 eax, DWORD PTR _pen$[ebp]
  001d5	50		 push	 eax
  001d6	e8 00 00 00 00	 call	 ?SelectObject@CDC@@QAEPAVCPen@@PAV2@@Z ; CDC::SelectObject

; 1201 : 
; 1202 : 	//  = 0.0
; 1203 : 	CPoint standardDataPt = CDataConversion::GetVerticalPoint(graphDrawingRegion, 1, realWidth, dataViewMin, dataViewMax, 0.0);

  001db	6a 01		 push	 1
  001dd	89 85 78 ff ff
	ff		 mov	 DWORD PTR _pOldPen$1$[ebp], eax
  001e3	0f 57 c0	 xorps	 xmm0, xmm0
  001e6	8d 45 84	 lea	 eax, DWORD PTR $T5[ebp]
  001e9	f2 0f 11 45 84	 movsd	 QWORD PTR $T5[ebp], xmm0
  001ee	50		 push	 eax
  001ef	ff 75 24	 push	 DWORD PTR _dataViewMax$[ebp]
  001f2	8d 85 70 ff ff
	ff		 lea	 eax, DWORD PTR _realWidth$[ebp]
  001f8	ff 75 28	 push	 DWORD PTR _dataViewMin$[ebp]
  001fb	50		 push	 eax
  001fc	6a 01		 push	 1
  001fe	ff 75 10	 push	 DWORD PTR _graphDrawingRegion$[ebp]
  00201	8d 85 58 ff ff
	ff		 lea	 eax, DWORD PTR _standardDataPt$[ebp]
  00207	50		 push	 eax
  00208	e8 00 00 00 00	 call	 ?GetVerticalPoint@CDataConversion@@SA?AVCPoint@@ABVCRect@@HABN111_N@Z ; CDataConversion::GetVerticalPoint

; 1204 : 	if(standardDataPt.y > graphDrawingRegion.top && standardDataPt.y < graphDrawingRegion.bottom)

  0020d	8b 4d 10	 mov	 ecx, DWORD PTR _graphDrawingRegion$[ebp]
  00210	83 c4 20	 add	 esp, 32			; 00000020H
  00213	8b 85 5c ff ff
	ff		 mov	 eax, DWORD PTR _standardDataPt$[ebp+4]
  00219	3b 41 04	 cmp	 eax, DWORD PTR [ecx+4]
  0021c	7e 15		 jle	 SHORT $LN13@DrawGroupB
  0021e	3b 41 0c	 cmp	 eax, DWORD PTR [ecx+12]
  00221	7d 10		 jge	 SHORT $LN13@DrawGroupB

; 1205 : 		CDraw::DrawLine(pDC, CPoint(graphDrawingRegion.left, standardDataPt.y), CPoint(graphDrawingRegion.right, standardDataPt.y));

  00223	50		 push	 eax
  00224	ff 71 08	 push	 DWORD PTR [ecx+8]
  00227	50		 push	 eax
  00228	ff 31		 push	 DWORD PTR [ecx]
  0022a	8b 4d f0	 mov	 ecx, DWORD PTR _this$1$[ebp]
  0022d	57		 push	 edi
  0022e	e8 00 00 00 00	 call	 ?DrawLine@CDraw@@IAEXPAVCDC@@UtagPOINT@@1@Z ; CDraw::DrawLine
$LN13@DrawGroupB:

; 1208 : 	for(int i = dataStart; i <= dataRealEnd; i++){

  00233	8b 45 18	 mov	 eax, DWORD PTR _dataStart$[ebp]
  00236	8b 55 20	 mov	 edx, DWORD PTR _dataRealEnd$[ebp]
  00239	c7 45 14 00 00
	00 00		 mov	 DWORD PTR _count$1$[ebp], 0
  00240	3b c2		 cmp	 eax, edx
  00242	0f 8f 79 02 00
	00		 jg	 $LN6@DrawGroupB

; 1206 : 
; 1207 : 	int count = 0;

  00248	2b d0		 sub	 edx, eax
  0024a	8d 48 ff	 lea	 ecx, DWORD PTR [eax-1]
  0024d	8b 45 e4	 mov	 eax, DWORD PTR _packetCount$1$[ebp]
  00250	42		 inc	 edx
  00251	89 4d 1c	 mov	 DWORD PTR tv1274[ebp], ecx
  00254	89 55 20	 mov	 DWORD PTR _dataRealEnd$[ebp], edx
$LL7@DrawGroupB:

; 1209 : 		count++;
; 1210 : 		pos = packetList.GetHeadPosition();

  00257	8b 55 2c	 mov	 edx, DWORD PTR _packetList$[ebp]
  0025a	33 ff		 xor	 edi, edi
  0025c	ff 45 14	 inc	 DWORD PTR _count$1$[ebp]
  0025f	8b 52 04	 mov	 edx, DWORD PTR [edx+4]

; 1211 : 		for(int k = 0; k < packetCount; k++){

  00262	85 c0		 test	 eax, eax
  00264	0f 8e 46 02 00
	00		 jle	 $LN5@DrawGroupB
  0026a	66 0f 6e c6	 movd	 xmm0, esi
  0026e	f3 0f e6 c0	 cvtdq2pd xmm0, xmm0
  00272	f2 0f 59 05 00
	00 00 00	 mulsd	 xmm0, QWORD PTR __real@3fe0000000000000
  0027a	f2 0f 2c c0	 cvttsd2si eax, xmm0
  0027e	89 45 0c	 mov	 DWORD PTR tv1278[ebp], eax
$LL10@DrawGroupB:

; 1212 : 			pPacket = packetList.GetNext(pos);

  00281	8b 42 08	 mov	 eax, DWORD PTR [edx+8]
; File C:\Program Files (x86)\Microsoft Visual Studio\2019\Community\VC\Tools\MSVC\14.29.30133\atlmfc\include\afxtempl.h

; 819  : 		rPosition = (POSITION) pNode->pNext;

  00284	8b 12		 mov	 edx, DWORD PTR [edx]
; File D:\git\src\IBK\IBK_DRFN\ProjSrc\SrcChartEx\ChartOCX\GraphDraw\FundDraw.cpp

; 1214 : 			POSITION packetPos = pPacket->GetnumericDataList()->FindIndex(i - 1);

  00286	89 4d e8	 mov	 DWORD PTR _nIndex$1$[ebp], ecx
  00289	8b c8		 mov	 ecx, eax
; File C:\Program Files (x86)\Microsoft Visual Studio\2019\Community\VC\Tools\MSVC\14.29.30133\atlmfc\include\afxtempl.h

; 819  : 		rPosition = (POSITION) pNode->pNext;

  0028b	89 55 80	 mov	 DWORD PTR _pos$2$[ebp], edx
; File D:\git\src\IBK\IBK_DRFN\ProjSrc\SrcChartEx\ChartOCX\GraphDraw\FundDraw.cpp

; 1212 : 			pPacket = packetList.GetNext(pos);

  0028e	89 45 ec	 mov	 DWORD PTR _pPacket$2$[ebp], eax

; 1214 : 			POSITION packetPos = pPacket->GetnumericDataList()->FindIndex(i - 1);

  00291	ff 15 00 00 00
	00		 call	 DWORD PTR __imp_?GetnumericDataList@CPacket@@QAEPAV?$CList@NN@@XZ
; File C:\Program Files (x86)\Microsoft Visual Studio\2019\Community\VC\Tools\MSVC\14.29.30133\atlmfc\include\afxtempl.h

; 1133 : 	if (nIndex >= m_nCount || nIndex < 0)

  00297	8b 4d 1c	 mov	 ecx, DWORD PTR tv1274[ebp]
  0029a	3b 48 0c	 cmp	 ecx, DWORD PTR [eax+12]
  0029d	7d 1d		 jge	 SHORT $LN71@DrawGroupB
  0029f	85 c9		 test	 ecx, ecx
  002a1	78 19		 js	 SHORT $LN71@DrawGroupB

; 1135 : 
; 1136 : 	CNode* pNode = m_pNodeHead;

  002a3	8b 40 04	 mov	 eax, DWORD PTR [eax+4]
  002a6	89 45 18	 mov	 DWORD PTR $T8[ebp], eax

; 1137 : 	while (nIndex--)

  002a9	74 18		 je	 SHORT $LN67@DrawGroupB
  002ab	8b 4d e8	 mov	 ecx, DWORD PTR _nIndex$1$[ebp]
  002ae	66 90		 npad	 2
$LL68@DrawGroupB:

; 1138 : 	{
; 1139 : 		ASSERT(AfxIsValidAddress(pNode, sizeof(CNode)));
; 1140 : 		pNode = pNode->pNext;

  002b0	8b 00		 mov	 eax, DWORD PTR [eax]
  002b2	83 e9 01	 sub	 ecx, 1
  002b5	75 f9		 jne	 SHORT $LL68@DrawGroupB
  002b7	89 45 18	 mov	 DWORD PTR $T8[ebp], eax

; 1141 : 	}
; 1142 : 	return (POSITION) pNode;

  002ba	eb 07		 jmp	 SHORT $LN67@DrawGroupB
$LN71@DrawGroupB:

; 1134 : 		return NULL;  // went too far

  002bc	c7 45 18 00 00
	00 00		 mov	 DWORD PTR $T8[ebp], 0
$LN67@DrawGroupB:
; File D:\git\src\IBK\IBK_DRFN\ProjSrc\SrcChartEx\ChartOCX\GraphDraw\FundDraw.cpp

; 1218 : 			double volumnData = pPacket->GetnumericDataList()->GetNext(packetPos);

  002c3	8b 4d ec	 mov	 ecx, DWORD PTR _pPacket$2$[ebp]
  002c6	ff 15 00 00 00
	00		 call	 DWORD PTR __imp_?GetnumericDataList@CPacket@@QAEPAV?$CList@NN@@XZ
  002cc	8b 45 18	 mov	 eax, DWORD PTR $T8[ebp]

; 1219 : 			
; 1220 : 			CPoint dataPt = CDataConversion::GetVerticalPoint(graphDrawingRegion, count, realWidth, dataViewMin, dataViewMax, volumnData);

  002cf	6a 01		 push	 1
  002d1	f2 0f 10 40 08	 movsd	 xmm0, QWORD PTR [eax+8]
  002d6	8d 85 50 ff ff
	ff		 lea	 eax, DWORD PTR _volumnData$2[ebp]
  002dc	50		 push	 eax
  002dd	ff 75 24	 push	 DWORD PTR _dataViewMax$[ebp]
  002e0	8d 85 70 ff ff
	ff		 lea	 eax, DWORD PTR _realWidth$[ebp]
  002e6	f2 0f 11 85 50
	ff ff ff	 movsd	 QWORD PTR _volumnData$2[ebp], xmm0
  002ee	ff 75 28	 push	 DWORD PTR _dataViewMin$[ebp]
  002f1	50		 push	 eax
  002f2	ff 75 14	 push	 DWORD PTR _count$1$[ebp]
  002f5	8d 45 84	 lea	 eax, DWORD PTR _dataPt$4[ebp]
  002f8	ff 75 10	 push	 DWORD PTR _graphDrawingRegion$[ebp]
  002fb	50		 push	 eax
  002fc	e8 00 00 00 00	 call	 ?GetVerticalPoint@CDataConversion@@SA?AVCPoint@@ABVCRect@@HABN111_N@Z ; CDataConversion::GetVerticalPoint
  00301	66 0f 6e c7	 movd	 xmm0, edi
  00305	83 c4 20	 add	 esp, 32			; 00000020H

; 1221 : 			CRect rect(dataPt.x - int(barWidth/2) + int(realBarWidth * k), dataPt.y, dataPt.x - int(barWidth/2) + int(realBarWidth * (k+1)), standardDataPt.y);

  00308	f3 0f e6 c0	 cvtdq2pd xmm0, xmm0

; 1223 : 			if(rect.top < graphDrawingRegion.top)

  0030c	8b 45 10	 mov	 eax, DWORD PTR _graphDrawingRegion$[ebp]
; File C:\Program Files (x86)\Microsoft Visual Studio\2019\Community\VC\Tools\MSVC\14.29.30133\atlmfc\include\atltypes.h

; 541  : 	top = t;

  0030f	8b 55 88	 mov	 edx, DWORD PTR _dataPt$4[ebp+4]
; File D:\git\src\IBK\IBK_DRFN\ProjSrc\SrcChartEx\ChartOCX\GraphDraw\FundDraw.cpp

; 1223 : 			if(rect.top < graphDrawingRegion.top)

  00312	8b 40 04	 mov	 eax, DWORD PTR [eax+4]
  00315	f2 0f 59 85 48
	ff ff ff	 mulsd	 xmm0, QWORD PTR _realBarWidth$1$[ebp]
  0031d	f2 0f 2c c8	 cvttsd2si ecx, xmm0
; File C:\Program Files (x86)\Microsoft Visual Studio\2019\Community\VC\Tools\MSVC\14.29.30133\atlmfc\include\atltypes.h

; 540  : 	left = l;

  00321	2b 4d 0c	 sub	 ecx, DWORD PTR tv1278[ebp]
; File D:\git\src\IBK\IBK_DRFN\ProjSrc\SrcChartEx\ChartOCX\GraphDraw\FundDraw.cpp

; 1221 : 			CRect rect(dataPt.x - int(barWidth/2) + int(realBarWidth * k), dataPt.y, dataPt.x - int(barWidth/2) + int(realBarWidth * (k+1)), standardDataPt.y);

  00324	03 4d 84	 add	 ecx, DWORD PTR _dataPt$4[ebp]
; File C:\Program Files (x86)\Microsoft Visual Studio\2019\Community\VC\Tools\MSVC\14.29.30133\atlmfc\include\atltypes.h

; 540  : 	left = l;

  00327	89 8d 60 ff ff
	ff		 mov	 DWORD PTR _rect$3[ebp], ecx
; File D:\git\src\IBK\IBK_DRFN\ProjSrc\SrcChartEx\ChartOCX\GraphDraw\FundDraw.cpp

; 1221 : 			CRect rect(dataPt.x - int(barWidth/2) + int(realBarWidth * k), dataPt.y, dataPt.x - int(barWidth/2) + int(realBarWidth * (k+1)), standardDataPt.y);

  0032d	8d 4f 01	 lea	 ecx, DWORD PTR [edi+1]
  00330	66 0f 6e c1	 movd	 xmm0, ecx
  00334	f3 0f e6 c0	 cvtdq2pd xmm0, xmm0
  00338	89 4d e8	 mov	 DWORD PTR tv1271[ebp], ecx
  0033b	f2 0f 59 85 48
	ff ff ff	 mulsd	 xmm0, QWORD PTR _realBarWidth$1$[ebp]
  00343	f2 0f 2c c8	 cvttsd2si ecx, xmm0
; File C:\Program Files (x86)\Microsoft Visual Studio\2019\Community\VC\Tools\MSVC\14.29.30133\atlmfc\include\atltypes.h

; 542  : 	right = r;

  00347	2b 4d 0c	 sub	 ecx, DWORD PTR tv1278[ebp]
; File D:\git\src\IBK\IBK_DRFN\ProjSrc\SrcChartEx\ChartOCX\GraphDraw\FundDraw.cpp

; 1221 : 			CRect rect(dataPt.x - int(barWidth/2) + int(realBarWidth * k), dataPt.y, dataPt.x - int(barWidth/2) + int(realBarWidth * (k+1)), standardDataPt.y);

  0034a	03 4d 84	 add	 ecx, DWORD PTR _dataPt$4[ebp]

; 1223 : 			if(rect.top < graphDrawingRegion.top)

  0034d	3b d0		 cmp	 edx, eax
; File C:\Program Files (x86)\Microsoft Visual Studio\2019\Community\VC\Tools\MSVC\14.29.30133\atlmfc\include\atltypes.h

; 542  : 	right = r;

  0034f	89 8d 68 ff ff
	ff		 mov	 DWORD PTR _rect$3[ebp+8], ecx

; 543  : 	bottom = b;

  00355	8b 8d 5c ff ff
	ff		 mov	 ecx, DWORD PTR _standardDataPt$[ebp+4]
; File D:\git\src\IBK\IBK_DRFN\ProjSrc\SrcChartEx\ChartOCX\GraphDraw\FundDraw.cpp

; 1223 : 			if(rect.top < graphDrawingRegion.top)

  0035b	0f 4c d0	 cmovl	 edx, eax

; 1224 : 				rect.top = graphDrawingRegion.top;
; 1225 : 			if(rect.bottom < graphDrawingRegion.top)

  0035e	3b c8		 cmp	 ecx, eax
  00360	0f 4c c8	 cmovl	 ecx, eax

; 1226 : 				rect.bottom = graphDrawingRegion.top;
; 1227 : 			if(rect.bottom > graphDrawingRegion.bottom)

  00363	8b 45 10	 mov	 eax, DWORD PTR _graphDrawingRegion$[ebp]
  00366	8b 40 0c	 mov	 eax, DWORD PTR [eax+12]
  00369	89 45 18	 mov	 DWORD PTR $T7[ebp], eax
  0036c	8b c1		 mov	 eax, ecx
  0036e	3b 4d 18	 cmp	 ecx, DWORD PTR $T7[ebp]
  00371	0f 4f 45 18	 cmovg	 eax, DWORD PTR $T7[ebp]
  00375	89 85 6c ff ff
	ff		 mov	 DWORD PTR _rect$3[ebp+12], eax

; 1228 : 				rect.bottom = graphDrawingRegion.bottom;
; 1229 : 			if(rect.top > graphDrawingRegion.bottom)

  0037b	8b 45 18	 mov	 eax, DWORD PTR $T7[ebp]
  0037e	0f 4e c1	 cmovle	 eax, ecx
  00381	8b 4d 18	 mov	 ecx, DWORD PTR $T7[ebp]
  00384	89 45 ec	 mov	 DWORD PTR $T6[ebp], eax
  00387	3b d1		 cmp	 edx, ecx
  00389	8b c2		 mov	 eax, edx
  0038b	0f 4f c1	 cmovg	 eax, ecx

; 1230 : 				rect.top = graphDrawingRegion.bottom;
; 1231 : 
; 1232 : 			int selectBrush = (k+1) - (brushCount * ((k+1)/ brushCount));

  0038e	0f 4e ca	 cmovle	 ecx, edx
  00391	89 85 64 ff ff
	ff		 mov	 DWORD PTR _rect$3[ebp+4], eax
  00397	b8 67 66 66 66	 mov	 eax, 1717986919		; 66666667H
  0039c	f7 6d e8	 imul	 DWORD PTR tv1271[ebp]
  0039f	89 4d 18	 mov	 DWORD PTR $T7[ebp], ecx
  003a2	c1 fa 02	 sar	 edx, 2
  003a5	8b c2		 mov	 eax, edx
  003a7	c1 e8 1f	 shr	 eax, 31			; 0000001fH
  003aa	03 c2		 add	 eax, edx
  003ac	8d 04 80	 lea	 eax, DWORD PTR [eax+eax*4]
  003af	03 c0		 add	 eax, eax
  003b1	2b f8		 sub	 edi, eax

; 1233 : 
; 1234 : 			if(selectBrush == 1)

  003b3	75 08		 jne	 SHORT $LN18@DrawGroupB

; 1235 : 				pDC->SelectObject(&firstBrush);

  003b5	8b 7d 08	 mov	 edi, DWORD PTR _pDC$[ebp]
  003b8	8d 45 d4	 lea	 eax, DWORD PTR _firstBrush$[ebp]
  003bb	eb 73		 jmp	 SHORT $LN139@DrawGroupB
$LN18@DrawGroupB:

; 1236 : 			else if(selectBrush == 2)				

  003bd	83 ff 01	 cmp	 edi, 1
  003c0	75 08		 jne	 SHORT $LN20@DrawGroupB

; 1237 : 				pDC->SelectObject(&secondBrush);

  003c2	8b 7d 08	 mov	 edi, DWORD PTR _pDC$[ebp]
  003c5	8d 45 8c	 lea	 eax, DWORD PTR _secondBrush$[ebp]
  003c8	eb 66		 jmp	 SHORT $LN139@DrawGroupB
$LN20@DrawGroupB:

; 1238 : 			else if(selectBrush == 3)

  003ca	83 ff 02	 cmp	 edi, 2
  003cd	75 08		 jne	 SHORT $LN22@DrawGroupB

; 1239 : 				pDC->SelectObject(&thirdBrush);

  003cf	8b 7d 08	 mov	 edi, DWORD PTR _pDC$[ebp]
  003d2	8d 45 94	 lea	 eax, DWORD PTR _thirdBrush$[ebp]
  003d5	eb 59		 jmp	 SHORT $LN139@DrawGroupB
$LN22@DrawGroupB:

; 1240 : 			else if(selectBrush == 4)

  003d7	83 ff 03	 cmp	 edi, 3
  003da	75 08		 jne	 SHORT $LN24@DrawGroupB

; 1241 : 				pDC->SelectObject(&fourBrush);

  003dc	8b 7d 08	 mov	 edi, DWORD PTR _pDC$[ebp]
  003df	8d 45 9c	 lea	 eax, DWORD PTR _fourBrush$[ebp]
  003e2	eb 4c		 jmp	 SHORT $LN139@DrawGroupB
$LN24@DrawGroupB:

; 1242 : 			else if(selectBrush == 5)

  003e4	83 ff 04	 cmp	 edi, 4
  003e7	75 08		 jne	 SHORT $LN26@DrawGroupB

; 1243 : 				pDC->SelectObject(&fiveBrush);

  003e9	8b 7d 08	 mov	 edi, DWORD PTR _pDC$[ebp]
  003ec	8d 45 a4	 lea	 eax, DWORD PTR _fiveBrush$[ebp]
  003ef	eb 3f		 jmp	 SHORT $LN139@DrawGroupB
$LN26@DrawGroupB:

; 1244 : 			else if(selectBrush == 6)

  003f1	83 ff 05	 cmp	 edi, 5
  003f4	75 08		 jne	 SHORT $LN28@DrawGroupB

; 1245 : 				pDC->SelectObject(&sixBrush);

  003f6	8b 7d 08	 mov	 edi, DWORD PTR _pDC$[ebp]
  003f9	8d 45 ac	 lea	 eax, DWORD PTR _sixBrush$[ebp]
  003fc	eb 32		 jmp	 SHORT $LN139@DrawGroupB
$LN28@DrawGroupB:

; 1246 : 			else if(selectBrush == 7)

  003fe	83 ff 06	 cmp	 edi, 6
  00401	75 08		 jne	 SHORT $LN30@DrawGroupB

; 1247 : 				pDC->SelectObject(&sevenBrush);

  00403	8b 7d 08	 mov	 edi, DWORD PTR _pDC$[ebp]
  00406	8d 45 b4	 lea	 eax, DWORD PTR _sevenBrush$[ebp]
  00409	eb 25		 jmp	 SHORT $LN139@DrawGroupB
$LN30@DrawGroupB:

; 1248 : 			else if(selectBrush == 8)

  0040b	83 ff 07	 cmp	 edi, 7
  0040e	75 08		 jne	 SHORT $LN32@DrawGroupB

; 1249 : 				pDC->SelectObject(&eightBrush);

  00410	8b 7d 08	 mov	 edi, DWORD PTR _pDC$[ebp]
  00413	8d 45 bc	 lea	 eax, DWORD PTR _eightBrush$[ebp]
  00416	eb 18		 jmp	 SHORT $LN139@DrawGroupB
$LN32@DrawGroupB:

; 1250 : 			else if(selectBrush == 9)

  00418	83 ff 08	 cmp	 edi, 8
  0041b	75 08		 jne	 SHORT $LN34@DrawGroupB

; 1251 : 				pDC->SelectObject(&nineBrush);

  0041d	8b 7d 08	 mov	 edi, DWORD PTR _pDC$[ebp]
  00420	8d 45 c4	 lea	 eax, DWORD PTR _nineBrush$[ebp]
  00423	eb 0b		 jmp	 SHORT $LN139@DrawGroupB
$LN34@DrawGroupB:

; 1252 : 			else if(selectBrush == 10)

  00425	83 ff 09	 cmp	 edi, 9
  00428	8b 7d 08	 mov	 edi, DWORD PTR _pDC$[ebp]
  0042b	75 0e		 jne	 SHORT $LN36@DrawGroupB

; 1253 : 				pDC->SelectObject(&tenBrush);

  0042d	8d 45 cc	 lea	 eax, DWORD PTR _tenBrush$[ebp]
$LN139@DrawGroupB:

; 1254 : //			else
; 1255 : //				pDC->SelectObject(&firstBrush);
; 1256 : 
; 1257 : 			//    
; 1258 : 			if(barWidth < 1)

  00430	50		 push	 eax
  00431	8b cf		 mov	 ecx, edi
  00433	e8 00 00 00 00	 call	 ?SelectObject@CDC@@QAEPAVCBrush@@PAV2@@Z ; CDC::SelectObject
  00438	8b 4d 18	 mov	 ecx, DWORD PTR $T7[ebp]
$LN36@DrawGroupB:
  0043b	f2 0f 10 0d 00
	00 00 00	 movsd	 xmm1, QWORD PTR __real@3ff0000000000000
  00443	8b 45 ec	 mov	 eax, DWORD PTR $T6[ebp]
  00446	66 0f 6e c6	 movd	 xmm0, esi
  0044a	f3 0f e6 c0	 cvtdq2pd xmm0, xmm0
  0044e	66 0f 2f c8	 comisd	 xmm1, xmm0
  00452	76 15		 jbe	 SHORT $LN37@DrawGroupB

; 1259 : 					CDraw::DrawLine(pDC, CPoint(rect.left, rect.top), CPoint(rect.left, rect.bottom));

  00454	50		 push	 eax
  00455	8b 85 60 ff ff
	ff		 mov	 eax, DWORD PTR _rect$3[ebp]
  0045b	50		 push	 eax
  0045c	51		 push	 ecx
  0045d	8b 4d f0	 mov	 ecx, DWORD PTR _this$1$[ebp]
  00460	50		 push	 eax
  00461	57		 push	 edi
  00462	e8 00 00 00 00	 call	 ?DrawLine@CDraw@@IAEXPAVCDC@@UtagPOINT@@1@Z ; CDraw::DrawLine
  00467	eb 33		 jmp	 SHORT $LN8@DrawGroupB
$LN37@DrawGroupB:

; 1260 : 			else{
; 1261 : 				if(rect.top == rect.bottom)

  00469	3b c8		 cmp	 ecx, eax
  0046b	8b 4d f0	 mov	 ecx, DWORD PTR _this$1$[ebp]
  0046e	75 17		 jne	 SHORT $LN39@DrawGroupB

; 1262 : 					CDraw::DrawLine(pDC, CPoint(rect.left, rect.bottom), CPoint(rect.right, rect.bottom));

  00470	50		 push	 eax
  00471	ff b5 68 ff ff
	ff		 push	 DWORD PTR _rect$3[ebp+8]
  00477	50		 push	 eax
  00478	8b 85 60 ff ff
	ff		 mov	 eax, DWORD PTR _rect$3[ebp]
  0047e	50		 push	 eax
  0047f	57		 push	 edi
  00480	e8 00 00 00 00	 call	 ?DrawLine@CDraw@@IAEXPAVCDC@@UtagPOINT@@1@Z ; CDraw::DrawLine
  00485	eb 15		 jmp	 SHORT $LN8@DrawGroupB
$LN39@DrawGroupB:

; 1263 : 				else
; 1264 : 					CDraw::DrawRectangle(pDC, rect);

  00487	0f 10 85 60 ff
	ff ff		 movups	 xmm0, XMMWORD PTR _rect$3[ebp]
  0048e	83 ec 10	 sub	 esp, 16			; 00000010H
  00491	8b c4		 mov	 eax, esp
  00493	57		 push	 edi
  00494	0f 11 00	 movups	 XMMWORD PTR [eax], xmm0
  00497	e8 00 00 00 00	 call	 ?DrawRectangle@CDraw@@IAEXPAVCDC@@VCRect@@@Z ; CDraw::DrawRectangle
$LN8@DrawGroupB:

; 1211 : 		for(int k = 0; k < packetCount; k++){

  0049c	8b 7d e8	 mov	 edi, DWORD PTR tv1271[ebp]
  0049f	8b 45 e4	 mov	 eax, DWORD PTR _packetCount$1$[ebp]
  004a2	8b 4d 1c	 mov	 ecx, DWORD PTR tv1274[ebp]
  004a5	8b 55 80	 mov	 edx, DWORD PTR _pos$2$[ebp]
  004a8	3b f8		 cmp	 edi, eax
  004aa	0f 8c d1 fd ff
	ff		 jl	 $LL10@DrawGroupB
$LN5@DrawGroupB:

; 1208 : 	for(int i = dataStart; i <= dataRealEnd; i++){

  004b0	41		 inc	 ecx
  004b1	83 6d 20 01	 sub	 DWORD PTR _dataRealEnd$[ebp], 1
  004b5	89 4d 1c	 mov	 DWORD PTR tv1274[ebp], ecx
  004b8	0f 85 99 fd ff
	ff		 jne	 $LL7@DrawGroupB
  004be	8b 7d 08	 mov	 edi, DWORD PTR _pDC$[ebp]
$LN6@DrawGroupB:

; 1265 : 			}
; 1266 : 		}	
; 1267 : 	}
; 1268 : 
; 1269 : 	pDC->SelectObject(pOldBrush);

  004c1	ff b5 7c ff ff
	ff		 push	 DWORD PTR _pOldBrush$1$[ebp]
  004c7	8b cf		 mov	 ecx, edi
  004c9	e8 00 00 00 00	 call	 ?SelectObject@CDC@@QAEPAVCBrush@@PAV2@@Z ; CDC::SelectObject

; 1270 : 	pDC->SelectObject(pOldPen);

  004ce	ff b5 78 ff ff
	ff		 push	 DWORD PTR _pOldPen$1$[ebp]
  004d4	8b cf		 mov	 ecx, edi
  004d6	e8 00 00 00 00	 call	 ?SelectObject@CDC@@QAEPAVCPen@@PAV2@@Z ; CDC::SelectObject

; 1271 : 
; 1272 : 	firstBrush.DeleteObject();

  004db	8d 4d d4	 lea	 ecx, DWORD PTR _firstBrush$[ebp]
  004de	e8 00 00 00 00	 call	 ?DeleteObject@CGdiObject@@QAEHXZ ; CGdiObject::DeleteObject

; 1273 : 	secondBrush.DeleteObject();

  004e3	8d 4d 8c	 lea	 ecx, DWORD PTR _secondBrush$[ebp]
  004e6	e8 00 00 00 00	 call	 ?DeleteObject@CGdiObject@@QAEHXZ ; CGdiObject::DeleteObject

; 1274 : 	thirdBrush.DeleteObject();

  004eb	8d 4d 94	 lea	 ecx, DWORD PTR _thirdBrush$[ebp]
  004ee	e8 00 00 00 00	 call	 ?DeleteObject@CGdiObject@@QAEHXZ ; CGdiObject::DeleteObject

; 1275 : 	fourBrush.DeleteObject();

  004f3	8d 4d 9c	 lea	 ecx, DWORD PTR _fourBrush$[ebp]
  004f6	e8 00 00 00 00	 call	 ?DeleteObject@CGdiObject@@QAEHXZ ; CGdiObject::DeleteObject

; 1276 : 	fiveBrush.DeleteObject();

  004fb	8d 4d a4	 lea	 ecx, DWORD PTR _fiveBrush$[ebp]
  004fe	e8 00 00 00 00	 call	 ?DeleteObject@CGdiObject@@QAEHXZ ; CGdiObject::DeleteObject

; 1277 : 	sixBrush.DeleteObject();

  00503	8d 4d ac	 lea	 ecx, DWORD PTR _sixBrush$[ebp]
  00506	e8 00 00 00 00	 call	 ?DeleteObject@CGdiObject@@QAEHXZ ; CGdiObject::DeleteObject

; 1278 : 	sevenBrush.DeleteObject();

  0050b	8d 4d b4	 lea	 ecx, DWORD PTR _sevenBrush$[ebp]
  0050e	e8 00 00 00 00	 call	 ?DeleteObject@CGdiObject@@QAEHXZ ; CGdiObject::DeleteObject

; 1279 : 	eightBrush.DeleteObject();

  00513	8d 4d bc	 lea	 ecx, DWORD PTR _eightBrush$[ebp]
  00516	e8 00 00 00 00	 call	 ?DeleteObject@CGdiObject@@QAEHXZ ; CGdiObject::DeleteObject

; 1280 : 	nineBrush.DeleteObject();

  0051b	8d 4d c4	 lea	 ecx, DWORD PTR _nineBrush$[ebp]
  0051e	e8 00 00 00 00	 call	 ?DeleteObject@CGdiObject@@QAEHXZ ; CGdiObject::DeleteObject

; 1281 : 	tenBrush.DeleteObject();

  00523	8d 4d cc	 lea	 ecx, DWORD PTR _tenBrush$[ebp]
  00526	e8 00 00 00 00	 call	 ?DeleteObject@CGdiObject@@QAEHXZ ; CGdiObject::DeleteObject

; 1282 : 
; 1283 : 	pen.DeleteObject();

  0052b	8d 4d dc	 lea	 ecx, DWORD PTR _pen$[ebp]
  0052e	e8 00 00 00 00	 call	 ?DeleteObject@CGdiObject@@QAEHXZ ; CGdiObject::DeleteObject
; File C:\Program Files (x86)\Microsoft Visual Studio\2019\Community\VC\Tools\MSVC\14.29.30133\atlmfc\include\afxwin1.inl

; 106  : 	{ }

  00533	8d 4d dc	 lea	 ecx, DWORD PTR _pen$[ebp]
  00536	c7 45 dc 00 00
	00 00		 mov	 DWORD PTR _pen$[ebp], OFFSET ??_7CPen@@6B@
  0053d	e8 00 00 00 00	 call	 ??1CGdiObject@@UAE@XZ	; CGdiObject::~CGdiObject

; 130  : 	{ }

  00542	8d 4d cc	 lea	 ecx, DWORD PTR _tenBrush$[ebp]
  00545	c7 45 cc 00 00
	00 00		 mov	 DWORD PTR _tenBrush$[ebp], OFFSET ??_7CBrush@@6B@
  0054c	e8 00 00 00 00	 call	 ??1CGdiObject@@UAE@XZ	; CGdiObject::~CGdiObject
  00551	8d 4d c4	 lea	 ecx, DWORD PTR _nineBrush$[ebp]
  00554	c7 45 c4 00 00
	00 00		 mov	 DWORD PTR _nineBrush$[ebp], OFFSET ??_7CBrush@@6B@
  0055b	e8 00 00 00 00	 call	 ??1CGdiObject@@UAE@XZ	; CGdiObject::~CGdiObject
  00560	8d 4d bc	 lea	 ecx, DWORD PTR _eightBrush$[ebp]
  00563	c7 45 bc 00 00
	00 00		 mov	 DWORD PTR _eightBrush$[ebp], OFFSET ??_7CBrush@@6B@
  0056a	e8 00 00 00 00	 call	 ??1CGdiObject@@UAE@XZ	; CGdiObject::~CGdiObject
  0056f	8d 4d b4	 lea	 ecx, DWORD PTR _sevenBrush$[ebp]
  00572	c7 45 b4 00 00
	00 00		 mov	 DWORD PTR _sevenBrush$[ebp], OFFSET ??_7CBrush@@6B@
  00579	e8 00 00 00 00	 call	 ??1CGdiObject@@UAE@XZ	; CGdiObject::~CGdiObject
  0057e	8d 4d ac	 lea	 ecx, DWORD PTR _sixBrush$[ebp]
  00581	c7 45 ac 00 00
	00 00		 mov	 DWORD PTR _sixBrush$[ebp], OFFSET ??_7CBrush@@6B@
  00588	e8 00 00 00 00	 call	 ??1CGdiObject@@UAE@XZ	; CGdiObject::~CGdiObject
  0058d	8d 4d a4	 lea	 ecx, DWORD PTR _fiveBrush$[ebp]
  00590	c7 45 a4 00 00
	00 00		 mov	 DWORD PTR _fiveBrush$[ebp], OFFSET ??_7CBrush@@6B@
  00597	e8 00 00 00 00	 call	 ??1CGdiObject@@UAE@XZ	; CGdiObject::~CGdiObject
  0059c	8d 4d 9c	 lea	 ecx, DWORD PTR _fourBrush$[ebp]
  0059f	c7 45 9c 00 00
	00 00		 mov	 DWORD PTR _fourBrush$[ebp], OFFSET ??_7CBrush@@6B@
  005a6	e8 00 00 00 00	 call	 ??1CGdiObject@@UAE@XZ	; CGdiObject::~CGdiObject
  005ab	8d 4d 94	 lea	 ecx, DWORD PTR _thirdBrush$[ebp]
  005ae	c7 45 94 00 00
	00 00		 mov	 DWORD PTR _thirdBrush$[ebp], OFFSET ??_7CBrush@@6B@
  005b5	e8 00 00 00 00	 call	 ??1CGdiObject@@UAE@XZ	; CGdiObject::~CGdiObject
  005ba	8d 4d 8c	 lea	 ecx, DWORD PTR _secondBrush$[ebp]
  005bd	c7 45 8c 00 00
	00 00		 mov	 DWORD PTR _secondBrush$[ebp], OFFSET ??_7CBrush@@6B@
  005c4	e8 00 00 00 00	 call	 ??1CGdiObject@@UAE@XZ	; CGdiObject::~CGdiObject
  005c9	8d 4d d4	 lea	 ecx, DWORD PTR _firstBrush$[ebp]
  005cc	c7 45 d4 00 00
	00 00		 mov	 DWORD PTR _firstBrush$[ebp], OFFSET ??_7CBrush@@6B@
  005d3	e8 00 00 00 00	 call	 ??1CGdiObject@@UAE@XZ	; CGdiObject::~CGdiObject
$LN123@DrawGroupB:
; File D:\git\src\IBK\IBK_DRFN\ProjSrc\SrcChartEx\ChartOCX\GraphDraw\FundDraw.cpp

; 1285 : }

  005d8	32 c0		 xor	 al, al
  005da	8b 4d f4	 mov	 ecx, DWORD PTR __$EHRec$[ebp]
  005dd	64 89 0d 00 00
	00 00		 mov	 DWORD PTR fs:0, ecx
  005e4	59		 pop	 ecx
  005e5	5f		 pop	 edi
  005e6	5e		 pop	 esi
  005e7	8b e5		 mov	 esp, ebp
  005e9	5d		 pop	 ebp
  005ea	c2 3c 00	 ret	 60			; 0000003cH
_TEXT	ENDS
;	COMDAT text$x
text$x	SEGMENT
__unwindfunclet$?DrawGroupBar@CFundDraw@@AAE_NPAVCDC@@ABVCEtcGraphColor@@ABVCRect@@ABVCGraphColor@@HHHABN4ABV?$CList@PAVCPacket@@PAV1@@@VCPenThickness@@@Z$0:
  00000	8d 4d d4	 lea	 ecx, DWORD PTR _firstBrush$[ebp]
  00003	e9 00 00 00 00	 jmp	 ??1CBrush@@UAE@XZ	; CBrush::~CBrush
__unwindfunclet$?DrawGroupBar@CFundDraw@@AAE_NPAVCDC@@ABVCEtcGraphColor@@ABVCRect@@ABVCGraphColor@@HHHABN4ABV?$CList@PAVCPacket@@PAV1@@@VCPenThickness@@@Z$1:
  00008	8d 4d 8c	 lea	 ecx, DWORD PTR _secondBrush$[ebp]
  0000b	e9 00 00 00 00	 jmp	 ??1CBrush@@UAE@XZ	; CBrush::~CBrush
__unwindfunclet$?DrawGroupBar@CFundDraw@@AAE_NPAVCDC@@ABVCEtcGraphColor@@ABVCRect@@ABVCGraphColor@@HHHABN4ABV?$CList@PAVCPacket@@PAV1@@@VCPenThickness@@@Z$2:
  00010	8d 4d 94	 lea	 ecx, DWORD PTR _thirdBrush$[ebp]
  00013	e9 00 00 00 00	 jmp	 ??1CBrush@@UAE@XZ	; CBrush::~CBrush
__unwindfunclet$?DrawGroupBar@CFundDraw@@AAE_NPAVCDC@@ABVCEtcGraphColor@@ABVCRect@@ABVCGraphColor@@HHHABN4ABV?$CList@PAVCPacket@@PAV1@@@VCPenThickness@@@Z$3:
  00018	8d 4d 9c	 lea	 ecx, DWORD PTR _fourBrush$[ebp]
  0001b	e9 00 00 00 00	 jmp	 ??1CBrush@@UAE@XZ	; CBrush::~CBrush
__unwindfunclet$?DrawGroupBar@CFundDraw@@AAE_NPAVCDC@@ABVCEtcGraphColor@@ABVCRect@@ABVCGraphColor@@HHHABN4ABV?$CList@PAVCPacket@@PAV1@@@VCPenThickness@@@Z$4:
  00020	8d 4d a4	 lea	 ecx, DWORD PTR _fiveBrush$[ebp]
  00023	e9 00 00 00 00	 jmp	 ??1CBrush@@UAE@XZ	; CBrush::~CBrush
__unwindfunclet$?DrawGroupBar@CFundDraw@@AAE_NPAVCDC@@ABVCEtcGraphColor@@ABVCRect@@ABVCGraphColor@@HHHABN4ABV?$CList@PAVCPacket@@PAV1@@@VCPenThickness@@@Z$5:
  00028	8d 4d ac	 lea	 ecx, DWORD PTR _sixBrush$[ebp]
  0002b	e9 00 00 00 00	 jmp	 ??1CBrush@@UAE@XZ	; CBrush::~CBrush
__unwindfunclet$?DrawGroupBar@CFundDraw@@AAE_NPAVCDC@@ABVCEtcGraphColor@@ABVCRect@@ABVCGraphColor@@HHHABN4ABV?$CList@PAVCPacket@@PAV1@@@VCPenThickness@@@Z$6:
  00030	8d 4d b4	 lea	 ecx, DWORD PTR _sevenBrush$[ebp]
  00033	e9 00 00 00 00	 jmp	 ??1CBrush@@UAE@XZ	; CBrush::~CBrush
__unwindfunclet$?DrawGroupBar@CFundDraw@@AAE_NPAVCDC@@ABVCEtcGraphColor@@ABVCRect@@ABVCGraphColor@@HHHABN4ABV?$CList@PAVCPacket@@PAV1@@@VCPenThickness@@@Z$7:
  00038	8d 4d bc	 lea	 ecx, DWORD PTR _eightBrush$[ebp]
  0003b	e9 00 00 00 00	 jmp	 ??1CBrush@@UAE@XZ	; CBrush::~CBrush
__unwindfunclet$?DrawGroupBar@CFundDraw@@AAE_NPAVCDC@@ABVCEtcGraphColor@@ABVCRect@@ABVCGraphColor@@HHHABN4ABV?$CList@PAVCPacket@@PAV1@@@VCPenThickness@@@Z$8:
  00040	8d 4d c4	 lea	 ecx, DWORD PTR _nineBrush$[ebp]
  00043	e9 00 00 00 00	 jmp	 ??1CBrush@@UAE@XZ	; CBrush::~CBrush
__unwindfunclet$?DrawGroupBar@CFundDraw@@AAE_NPAVCDC@@ABVCEtcGraphColor@@ABVCRect@@ABVCGraphColor@@HHHABN4ABV?$CList@PAVCPacket@@PAV1@@@VCPenThickness@@@Z$9:
  00048	8d 4d cc	 lea	 ecx, DWORD PTR _tenBrush$[ebp]
  0004b	e9 00 00 00 00	 jmp	 ??1CBrush@@UAE@XZ	; CBrush::~CBrush
__unwindfunclet$?DrawGroupBar@CFundDraw@@AAE_NPAVCDC@@ABVCEtcGraphColor@@ABVCRect@@ABVCGraphColor@@HHHABN4ABV?$CList@PAVCPacket@@PAV1@@@VCPenThickness@@@Z$10:
  00050	8d 4d dc	 lea	 ecx, DWORD PTR _pen$[ebp]
  00053	e9 00 00 00 00	 jmp	 ??1CPen@@UAE@XZ		; CPen::~CPen
  00058	cc		 int	 3
  00059	cc		 int	 3
  0005a	cc		 int	 3
  0005b	cc		 int	 3
  0005c	cc		 int	 3
__ehhandler$?DrawGroupBar@CFundDraw@@AAE_NPAVCDC@@ABVCEtcGraphColor@@ABVCRect@@ABVCGraphColor@@HHHABN4ABV?$CList@PAVCPacket@@PAV1@@@VCPenThickness@@@Z:
  0005d	90		 npad	 1
  0005e	90		 npad	 1
  0005f	8b 54 24 08	 mov	 edx, DWORD PTR [esp+8]
  00063	8d 42 0c	 lea	 eax, DWORD PTR [edx+12]
  00066	8b 8a 48 ff ff
	ff		 mov	 ecx, DWORD PTR [edx-184]
  0006c	33 c8		 xor	 ecx, eax
  0006e	e8 00 00 00 00	 call	 @__security_check_cookie@4
  00073	b8 00 00 00 00	 mov	 eax, OFFSET __ehfuncinfo$?DrawGroupBar@CFundDraw@@AAE_NPAVCDC@@ABVCEtcGraphColor@@ABVCRect@@ABVCGraphColor@@HHHABN4ABV?$CList@PAVCPacket@@PAV1@@@VCPenThickness@@@Z
  00078	e9 00 00 00 00	 jmp	 ___CxxFrameHandler3
text$x	ENDS
?DrawGroupBar@CFundDraw@@AAE_NPAVCDC@@ABVCEtcGraphColor@@ABVCRect@@ABVCGraphColor@@HHHABN4ABV?$CList@PAVCPacket@@PAV1@@@VCPenThickness@@@Z ENDP ; CFundDraw::DrawGroupBar
; Function compile flags: /Ogtp
; File D:\git\src\IBK\IBK_DRFN\ProjSrc\SrcChartEx\ChartOCX\GraphDraw\FundDraw.cpp
; File C:\Program Files (x86)\Microsoft Visual Studio\2019\Community\VC\Tools\MSVC\14.29.30133\atlmfc\include\afxtempl.h
; File D:\git\src\IBK\IBK_DRFN\ProjSrc\SrcChartEx\ChartOCX\GraphDraw\FundDraw.cpp
; File C:\Program Files (x86)\Microsoft Visual Studio\2019\Community\VC\Tools\MSVC\14.29.30133\atlmfc\include\afxtempl.h
; File D:\git\src\IBK\IBK_DRFN\ProjSrc\SrcChartEx\ChartOCX\GraphDraw\FundDraw.cpp
; File C:\Program Files (x86)\Microsoft Visual Studio\2019\Community\VC\Tools\MSVC\14.29.30133\atlmfc\include\afxtempl.h
; File D:\git\src\IBK\IBK_DRFN\ProjSrc\SrcChartEx\ChartOCX\GraphDraw\FundDraw.cpp
; File C:\Program Files (x86)\Microsoft Visual Studio\2019\Community\VC\Tools\MSVC\14.29.30133\atlmfc\include\afxwin1.inl
; File D:\git\src\IBK\IBK_DRFN\ProjSrc\SrcChartEx\ChartOCX\GraphDraw\FundDraw.cpp
; File C:\Program Files (x86)\Microsoft Visual Studio\2019\Community\VC\Tools\MSVC\14.29.30133\atlmfc\include\afxwin1.inl
; File D:\git\src\IBK\IBK_DRFN\ProjSrc\SrcChartEx\ChartOCX\GraphDraw\FundDraw.cpp
; File C:\Program Files (x86)\Microsoft Visual Studio\2019\Community\VC\Tools\MSVC\14.29.30133\atlmfc\include\afxwin1.inl
; File D:\git\src\IBK\IBK_DRFN\ProjSrc\SrcChartEx\ChartOCX\GraphDraw\FundDraw.cpp
; File C:\Program Files (x86)\Microsoft Visual Studio\2019\Community\VC\Tools\MSVC\14.29.30133\atlmfc\include\afxwin1.inl
; File D:\git\src\IBK\IBK_DRFN\ProjSrc\SrcChartEx\ChartOCX\GraphDraw\FundDraw.cpp
; File C:\Program Files (x86)\Microsoft Visual Studio\2019\Community\VC\Tools\MSVC\14.29.30133\atlmfc\include\afxwin1.inl
; File D:\git\src\IBK\IBK_DRFN\ProjSrc\SrcChartEx\ChartOCX\GraphDraw\FundDraw.cpp
; File C:\Program Files (x86)\Microsoft Visual Studio\2019\Community\VC\Tools\MSVC\14.29.30133\atlmfc\include\afxwin1.inl
; File D:\git\src\IBK\IBK_DRFN\ProjSrc\SrcChartEx\ChartOCX\GraphDraw\FundDraw.cpp
; File C:\Program Files (x86)\Microsoft Visual Studio\2019\Community\VC\Tools\MSVC\14.29.30133\atlmfc\include\afxwin1.inl
; File D:\git\src\IBK\IBK_DRFN\ProjSrc\SrcChartEx\ChartOCX\GraphDraw\FundDraw.cpp
; File C:\Program Files (x86)\Microsoft Visual Studio\2019\Community\VC\Tools\MSVC\14.29.30133\atlmfc\include\afxwin1.inl
; File D:\git\src\IBK\IBK_DRFN\ProjSrc\SrcChartEx\ChartOCX\GraphDraw\FundDraw.cpp
; File C:\Program Files (x86)\Microsoft Visual Studio\2019\Community\VC\Tools\MSVC\14.29.30133\atlmfc\include\afxwin1.inl
; File D:\git\src\IBK\IBK_DRFN\ProjSrc\SrcChartEx\ChartOCX\GraphDraw\FundDraw.cpp
; File C:\Program Files (x86)\Microsoft Visual Studio\2019\Community\VC\Tools\MSVC\14.29.30133\atlmfc\include\afxwin1.inl
; File D:\git\src\IBK\IBK_DRFN\ProjSrc\SrcChartEx\ChartOCX\GraphDraw\FundDraw.cpp
; File C:\Program Files (x86)\Microsoft Visual Studio\2019\Community\VC\Tools\MSVC\14.29.30133\atlmfc\include\afxwin1.inl
; File D:\git\src\IBK\IBK_DRFN\ProjSrc\SrcChartEx\ChartOCX\GraphDraw\FundDraw.cpp
; File C:\Program Files (x86)\Microsoft Visual Studio\2019\Community\VC\Tools\MSVC\14.29.30133\atlmfc\include\afxwin1.inl
; File D:\git\src\IBK\IBK_DRFN\ProjSrc\SrcChartEx\ChartOCX\GraphDraw\FundDraw.cpp
; File C:\Program Files (x86)\Microsoft Visual Studio\2019\Community\VC\Tools\MSVC\14.29.30133\atlmfc\include\afxwin1.inl
; File D:\git\src\IBK\IBK_DRFN\ProjSrc\SrcChartEx\ChartOCX\GraphDraw\FundDraw.cpp
; File C:\Program Files (x86)\Microsoft Visual Studio\2019\Community\VC\Tools\MSVC\14.29.30133\atlmfc\include\afxwin1.inl
; File D:\git\src\IBK\IBK_DRFN\ProjSrc\SrcChartEx\ChartOCX\GraphDraw\FundDraw.cpp
; File C:\Program Files (x86)\Microsoft Visual Studio\2019\Community\VC\Tools\MSVC\14.29.30133\atlmfc\include\atltypes.h
; File D:\git\src\IBK\IBK_DRFN\ProjSrc\SrcChartEx\ChartOCX\GraphDraw\FundDraw.cpp
; File C:\Program Files (x86)\Microsoft Visual Studio\2019\Community\VC\Tools\MSVC\14.29.30133\atlmfc\include\afxtempl.h
; File D:\git\src\IBK\IBK_DRFN\ProjSrc\SrcChartEx\ChartOCX\GraphDraw\FundDraw.cpp
; File C:\Program Files (x86)\Microsoft Visual Studio\2019\Community\VC\Tools\MSVC\14.29.30133\atlmfc\include\afxtempl.h
; File D:\git\src\IBK\IBK_DRFN\ProjSrc\SrcChartEx\ChartOCX\GraphDraw\FundDraw.cpp
; File C:\Program Files (x86)\Microsoft Visual Studio\2019\Community\VC\Tools\MSVC\14.29.30133\atlmfc\include\afxtempl.h
; File D:\git\src\IBK\IBK_DRFN\ProjSrc\SrcChartEx\ChartOCX\GraphDraw\FundDraw.cpp
; File C:\Program Files (x86)\Microsoft Visual Studio\2019\Community\VC\Tools\MSVC\14.29.30133\atlmfc\include\afxtempl.h
; File D:\git\src\IBK\IBK_DRFN\ProjSrc\SrcChartEx\ChartOCX\GraphDraw\FundDraw.cpp
; File D:\git\src\IBK\IBK_DRFN\ProjSrc\SrcChartEx\ChartOCX\Include_Chart\Conversion.h
; File D:\git\src\IBK\IBK_DRFN\ProjSrc\SrcChartEx\ChartOCX\GraphDraw\FundDraw.cpp
; File D:\git\src\IBK\IBK_DRFN\ProjSrc\SrcChartEx\ChartOCX\Include_Chart\Conversion.h
; File D:\git\src\IBK\IBK_DRFN\ProjSrc\SrcChartEx\ChartOCX\GraphDraw\FundDraw.cpp
; File C:\Program Files (x86)\Microsoft Visual Studio\2019\Community\VC\Tools\MSVC\14.29.30133\atlmfc\include\atltypes.h
; File D:\git\src\IBK\IBK_DRFN\ProjSrc\SrcChartEx\ChartOCX\GraphDraw\FundDraw.cpp
; File C:\Program Files (x86)\Microsoft Visual Studio\2019\Community\VC\Tools\MSVC\14.29.30133\atlmfc\include\afxtempl.h
; File D:\git\src\IBK\IBK_DRFN\ProjSrc\SrcChartEx\ChartOCX\GraphDraw\FundDraw.cpp
; File C:\Program Files (x86)\Microsoft Visual Studio\2019\Community\VC\Tools\MSVC\14.29.30133\atlmfc\include\afxtempl.h
; File D:\git\src\IBK\IBK_DRFN\ProjSrc\SrcChartEx\ChartOCX\GraphDraw\FundDraw.cpp
; File C:\Program Files (x86)\Microsoft Visual Studio\2019\Community\VC\Tools\MSVC\14.29.30133\atlmfc\include\afxtempl.h
; File D:\git\src\IBK\IBK_DRFN\ProjSrc\SrcChartEx\ChartOCX\GraphDraw\FundDraw.cpp
; File D:\git\src\IBK\IBK_DRFN\ProjSrc\SrcChartEx\ChartOCX\Include_Chart\Conversion.h
; File D:\git\src\IBK\IBK_DRFN\ProjSrc\SrcChartEx\ChartOCX\GraphDraw\FundDraw.cpp
; File D:\git\src\IBK\IBK_DRFN\ProjSrc\SrcChartEx\ChartOCX\Include_Chart\Conversion.h
; File D:\git\src\IBK\IBK_DRFN\ProjSrc\SrcChartEx\ChartOCX\GraphDraw\FundDraw.cpp
; File C:\Program Files (x86)\Microsoft Visual Studio\2019\Community\VC\Tools\MSVC\14.29.30133\atlmfc\include\atltypes.h
; File D:\git\src\IBK\IBK_DRFN\ProjSrc\SrcChartEx\ChartOCX\GraphDraw\FundDraw.cpp
; File C:\Program Files (x86)\Microsoft Visual Studio\2019\Community\VC\Tools\MSVC\14.29.30133\atlmfc\include\atltypes.h
; File D:\git\src\IBK\IBK_DRFN\ProjSrc\SrcChartEx\ChartOCX\GraphDraw\FundDraw.cpp
; File C:\Program Files (x86)\Microsoft Visual Studio\2019\Community\VC\Tools\MSVC\14.29.30133\atlmfc\include\atltypes.h
; File D:\git\src\IBK\IBK_DRFN\ProjSrc\SrcChartEx\ChartOCX\GraphDraw\FundDraw.cpp
; File C:\Program Files (x86)\Microsoft Visual Studio\2019\Community\VC\Tools\MSVC\14.29.30133\atlmfc\include\afxwin1.inl
; File D:\git\src\IBK\IBK_DRFN\ProjSrc\SrcChartEx\ChartOCX\GraphDraw\FundDraw.cpp
; File C:\Program Files (x86)\Microsoft Visual Studio\2019\Community\VC\Tools\MSVC\14.29.30133\atlmfc\include\afxwin1.inl
; File D:\git\src\IBK\IBK_DRFN\ProjSrc\SrcChartEx\ChartOCX\GraphDraw\FundDraw.cpp
; File C:\Program Files (x86)\Microsoft Visual Studio\2019\Community\VC\Tools\MSVC\14.29.30133\atlmfc\include\afxwin1.inl
; File D:\git\src\IBK\IBK_DRFN\ProjSrc\SrcChartEx\ChartOCX\GraphDraw\FundDraw.cpp
; File C:\Program Files (x86)\Microsoft Visual Studio\2019\Community\VC\Tools\MSVC\14.29.30133\atlmfc\include\afxwin1.inl
; File D:\git\src\IBK\IBK_DRFN\ProjSrc\SrcChartEx\ChartOCX\GraphDraw\FundDraw.cpp
; File C:\Program Files (x86)\Microsoft Visual Studio\2019\Community\VC\Tools\MSVC\14.29.30133\atlmfc\include\afxwin1.inl
; File D:\git\src\IBK\IBK_DRFN\ProjSrc\SrcChartEx\ChartOCX\GraphDraw\FundDraw.cpp
; File C:\Program Files (x86)\Microsoft Visual Studio\2019\Community\VC\Tools\MSVC\14.29.30133\atlmfc\include\afxwin1.inl
; File D:\git\src\IBK\IBK_DRFN\ProjSrc\SrcChartEx\ChartOCX\GraphDraw\FundDraw.cpp
; File C:\Program Files (x86)\Microsoft Visual Studio\2019\Community\VC\Tools\MSVC\14.29.30133\atlmfc\include\afxwin1.inl
; File D:\git\src\IBK\IBK_DRFN\ProjSrc\SrcChartEx\ChartOCX\GraphDraw\FundDraw.cpp
; File C:\Program Files (x86)\Microsoft Visual Studio\2019\Community\VC\Tools\MSVC\14.29.30133\atlmfc\include\afxwin1.inl
; File D:\git\src\IBK\IBK_DRFN\ProjSrc\SrcChartEx\ChartOCX\GraphDraw\FundDraw.cpp
; File C:\Program Files (x86)\Microsoft Visual Studio\2019\Community\VC\Tools\MSVC\14.29.30133\atlmfc\include\afxwin1.inl
; File D:\git\src\IBK\IBK_DRFN\ProjSrc\SrcChartEx\ChartOCX\GraphDraw\FundDraw.cpp
; File C:\Program Files (x86)\Microsoft Visual Studio\2019\Community\VC\Tools\MSVC\14.29.30133\atlmfc\include\afxwin1.inl
; File D:\git\src\IBK\IBK_DRFN\ProjSrc\SrcChartEx\ChartOCX\GraphDraw\FundDraw.cpp
; File C:\Program Files (x86)\Microsoft Visual Studio\2019\Community\VC\Tools\MSVC\14.29.30133\atlmfc\include\afxwin1.inl
; File C:\Program Files (x86)\Microsoft Visual Studio\2019\Community\VC\Tools\MSVC\14.29.30133\atlmfc\include\atltypes.h
; File D:\git\src\IBK\IBK_DRFN\ProjSrc\SrcChartEx\ChartOCX\GraphDraw\FundDraw.cpp
; File C:\Program Files (x86)\Microsoft Visual Studio\2019\Community\VC\Tools\MSVC\14.29.30133\atlmfc\include\afxwin1.inl
; File D:\git\src\IBK\IBK_DRFN\ProjSrc\SrcChartEx\ChartOCX\GraphDraw\FundDraw.cpp
; File C:\Program Files (x86)\Microsoft Visual Studio\2019\Community\VC\Tools\MSVC\14.29.30133\atlmfc\include\afxwin1.inl
; File D:\git\src\IBK\IBK_DRFN\ProjSrc\SrcChartEx\ChartOCX\GraphDraw\FundDraw.cpp
; File C:\Program Files (x86)\Microsoft Visual Studio\2019\Community\VC\Tools\MSVC\14.29.30133\atlmfc\include\afxwin1.inl
; File C:\Program Files (x86)\Microsoft Visual Studio\2019\Community\VC\Tools\MSVC\14.29.30133\atlmfc\include\afxtempl.h
; File D:\git\src\IBK\IBK_DRFN\ProjSrc\SrcChartEx\ChartOCX\GraphDraw\FundDraw.cpp
;	COMDAT ?DrawComponentRatio_Bar_Line@CFundDraw@@AAE_NPAVCDC@@ABVCEtcGraphColor@@ABVCRect@@ABVCGraphColor@@HHHABN4ABV?$CList@PAVCPacket@@PAV1@@@VCPenThickness@@@Z
_TEXT	SEGMENT
$T2 = -428						; size = 8
$T3 = -420						; size = 8
$T4 = -412						; size = 16
_data$5 = -396						; size = 8
_beforeData$6 = -388					; size = 8
$T7 = -380						; size = 8
$T8 = -372						; size = 8
_pOldPen$1$ = -364					; size = 4
_realWidth$ = -360					; size = 8
$T9 = -352						; size = 4
_pOldBrush$1$ = -348					; size = 4
tv3262 = -344						; size = 4
$T10 = -340						; size = 4
$T11 = -336						; size = 4
$T12 = -332						; size = 4
_packetList$GSCopy$1$ = -328				; size = 4
_packetPosition$ = -324					; size = 28
_secondBrush$ = -296					; size = 8
_thirdBrush$ = -288					; size = 8
_fourBrush$ = -280					; size = 8
_fiveBrush$ = -272					; size = 8
_sixBrush$ = -264					; size = 8
_sevenBrush$ = -256					; size = 8
_eightBrush$ = -248					; size = 8
_nineBrush$ = -240					; size = 8
_tenBrush$ = -232					; size = 8
tv3265 = -224						; size = 4
_dataViewMin$GSCopy$1$ = -220				; size = 4
_dataViewMax$GSCopy$1$ = -216				; size = 4
_packetHeadPos$2$ = -212				; size = 4
_pen5$ = -208						; size = 8
_pen1$ = -200						; size = 8
_pen2$ = -192						; size = 8
_pen3$ = -184						; size = 8
_pen4$ = -176						; size = 8
_pen6$ = -168						; size = 8
_pen7$ = -160						; size = 8
_pen8$ = -152						; size = 8
_pen9$ = -144						; size = 8
_pen10$ = -136						; size = 8
_firstBrush$ = -128					; size = 8
_pen$ = -120						; size = 8
_packetCount$1$ = -112					; size = 4
_beforeStrData$13 = -108				; size = 4
_nIndex$1$ = -104					; size = 4
_j$1$ = -104						; size = 4
_packetHeadPos$1$ = -100				; size = 4
_beforeDataY$14 = -100					; size = 4
_dataPacket$1$ = -96					; size = 4
_saveDataY$1$ = -92					; size = 4
_dataStart$GSCopy$1$ = -88				; size = 4
_i$1$ = -84						; size = 4
_strData$15 = -84					; size = 4
_beforeDataPt$16 = -80					; size = 8
$T17 = -76						; size = 4
$T18 = -76						; size = 4
$T19 = -76						; size = 4
$T20 = -76						; size = 4
_DataPt$1$ = -72					; size = 4
_dataPos$2$ = -72					; size = 4
tv3261 = -72						; size = 4
$T21 = -65						; size = 1
_linePt$1$ = -64					; size = 4
_bongWidth$3$ = -60					; size = 4
_graphDrawingRegion$GSCopy$1$ = -56			; size = 4
_lineThickness$1$ = -52					; size = 4
_etcGraphColor$GSCopy$1$ = -48				; size = 4
_count$1$ = -48						; size = 4
_graphColor$GSCopy$1$ = -44				; size = 4
_beforeDataPt$1$ = -44					; size = 4
tv3259 = -44						; size = 4
_pDC$GSCopy$1$ = -40					; size = 4
_this$GSCopy$1$ = -36					; size = 4
_rect$22 = -32						; size = 16
__$ArrayPad$ = -16					; size = 4
__$EHRec$ = -12						; size = 12
_pDC$ = 8						; size = 4
_etcGraphColor$ = 12					; size = 4
_graphDrawingRegion$ = 16				; size = 4
_graphColor$ = 20					; size = 4
_dataStart$ = 24					; size = 4
_dataEnd$ = 28						; size = 4
_dataRealEnd$ = 32					; size = 4
_dataViewMax$ = 36					; size = 4
_dataViewMin$ = 40					; size = 4
_packetList$ = 44					; size = 4
_penThickness$ = 48					; size = 20
?DrawComponentRatio_Bar_Line@CFundDraw@@AAE_NPAVCDC@@ABVCEtcGraphColor@@ABVCRect@@ABVCGraphColor@@HHHABN4ABV?$CList@PAVCPacket@@PAV1@@@VCPenThickness@@@Z PROC ; CFundDraw::DrawComponentRatio_Bar_Line, COMDAT
; _this$ = ecx

; 932  : {

  00000	55		 push	 ebp
  00001	8b ec		 mov	 ebp, esp
  00003	6a ff		 push	 -1
  00005	68 00 00 00 00	 push	 __ehhandler$?DrawComponentRatio_Bar_Line@CFundDraw@@AAE_NPAVCDC@@ABVCEtcGraphColor@@ABVCRect@@ABVCGraphColor@@HHHABN4ABV?$CList@PAVCPacket@@PAV1@@@VCPenThickness@@@Z
  0000a	64 a1 00 00 00
	00		 mov	 eax, DWORD PTR fs:0
  00010	50		 push	 eax
  00011	81 ec a0 01 00
	00		 sub	 esp, 416		; 000001a0H
  00017	a1 00 00 00 00	 mov	 eax, DWORD PTR ___security_cookie
  0001c	33 c5		 xor	 eax, ebp
  0001e	89 45 f0	 mov	 DWORD PTR __$ArrayPad$[ebp], eax
  00021	56		 push	 esi
  00022	57		 push	 edi
  00023	50		 push	 eax
  00024	8d 45 f4	 lea	 eax, DWORD PTR __$EHRec$[ebp]
  00027	64 a3 00 00 00
	00		 mov	 DWORD PTR fs:0, eax
  0002d	8b f9		 mov	 edi, ecx
  0002f	89 7d dc	 mov	 DWORD PTR _this$GSCopy$1$[ebp], edi
  00032	8b 45 08	 mov	 eax, DWORD PTR _pDC$[ebp]
  00035	8b 75 10	 mov	 esi, DWORD PTR _graphDrawingRegion$[ebp]
  00038	8b 55 18	 mov	 edx, DWORD PTR _dataStart$[ebp]
  0003b	89 45 d8	 mov	 DWORD PTR _pDC$GSCopy$1$[ebp], eax
  0003e	8b 45 0c	 mov	 eax, DWORD PTR _etcGraphColor$[ebp]
  00041	89 45 d0	 mov	 DWORD PTR _etcGraphColor$GSCopy$1$[ebp], eax
  00044	8b 45 14	 mov	 eax, DWORD PTR _graphColor$[ebp]
  00047	89 45 d4	 mov	 DWORD PTR _graphColor$GSCopy$1$[ebp], eax
  0004a	8b 45 24	 mov	 eax, DWORD PTR _dataViewMax$[ebp]
  0004d	89 85 28 ff ff
	ff		 mov	 DWORD PTR _dataViewMax$GSCopy$1$[ebp], eax
  00053	8b 45 28	 mov	 eax, DWORD PTR _dataViewMin$[ebp]
  00056	89 85 24 ff ff
	ff		 mov	 DWORD PTR _dataViewMin$GSCopy$1$[ebp], eax
  0005c	8b 45 2c	 mov	 eax, DWORD PTR _packetList$[ebp]
  0005f	89 75 c8	 mov	 DWORD PTR _graphDrawingRegion$GSCopy$1$[ebp], esi
  00062	89 55 a8	 mov	 DWORD PTR _dataStart$GSCopy$1$[ebp], edx
  00065	89 85 b8 fe ff
	ff		 mov	 DWORD PTR _packetList$GSCopy$1$[ebp], eax

; 933  : 	POSITION packetHeadPos = packetList.GetHeadPosition();

  0006b	8b 48 04	 mov	 ecx, DWORD PTR [eax+4]

; 934  : 	if(packetHeadPos == NULL) 

  0006e	85 c9		 test	 ecx, ecx
  00070	75 07		 jne	 SHORT $LN11@DrawCompon

; 935  : 		return false;

  00072	32 c0		 xor	 al, al
  00074	e9 f8 0e 00 00	 jmp	 $LN1@DrawCompon
$LN11@DrawCompon:

; 936  : 
; 937  : 	int i = 0;
; 938  : 	int packetCount = packetList.GetCount();

  00079	8b 40 0c	 mov	 eax, DWORD PTR [eax+12]
  0007c	89 45 90	 mov	 DWORD PTR _packetCount$1$[ebp], eax
; File C:\Program Files (x86)\Microsoft Visual Studio\2019\Community\VC\Tools\MSVC\14.29.30133\atlmfc\include\afxtempl.h

; 851  : {

  0007f	c7 85 bc fe ff
	ff 00 00 00 00	 mov	 DWORD PTR _packetPosition$[ebp], OFFSET ??_7?$CList@PAU__POSITION@@PAU1@@@6B@

; 852  : 	ASSERT(nBlockSize > 0);
; 853  : 
; 854  : 	m_nCount = 0;

  00089	c7 85 c8 fe ff
	ff 00 00 00 00	 mov	 DWORD PTR _packetPosition$[ebp+12], 0

; 855  : 	m_pNodeHead = m_pNodeTail = m_pNodeFree = NULL;

  00093	c7 85 cc fe ff
	ff 00 00 00 00	 mov	 DWORD PTR _packetPosition$[ebp+16], 0
  0009d	c7 85 c4 fe ff
	ff 00 00 00 00	 mov	 DWORD PTR _packetPosition$[ebp+8], 0
  000a7	c7 85 c0 fe ff
	ff 00 00 00 00	 mov	 DWORD PTR _packetPosition$[ebp+4], 0

; 856  : 	m_pBlocks = NULL;

  000b1	c7 85 d0 fe ff
	ff 00 00 00 00	 mov	 DWORD PTR _packetPosition$[ebp+20], 0

; 857  : 	m_nBlockSize = nBlockSize;

  000bb	c7 85 d4 fe ff
	ff 0a 00 00 00	 mov	 DWORD PTR _packetPosition$[ebp+24], 10 ; 0000000aH
; File D:\git\src\IBK\IBK_DRFN\ProjSrc\SrcChartEx\ChartOCX\GraphDraw\FundDraw.cpp

; 939  : 	CList<POSITION, POSITION> packetPosition;

  000c5	c7 45 fc 00 00
	00 00		 mov	 DWORD PTR __$EHRec$[ebp+8], 0

; 940  : 	for( i = 0; i < packetCount; i++){

  000cc	c7 45 ac 00 00
	00 00		 mov	 DWORD PTR _i$1$[ebp], 0
  000d3	85 c0		 test	 eax, eax
  000d5	7e 5f		 jle	 SHORT $LN3@DrawCompon
$LL4@DrawCompon:
; File C:\Program Files (x86)\Microsoft Visual Studio\2019\Community\VC\Tools\MSVC\14.29.30133\atlmfc\include\afxtempl.h

; 817  : 	{ CNode* pNode = (CNode*) rPosition;

  000d7	8d 01		 lea	 eax, DWORD PTR [ecx]

; 819  : 		rPosition = (POSITION) pNode->pNext;

  000d9	8b 09		 mov	 ecx, DWORD PTR [ecx]
  000db	89 4d 9c	 mov	 DWORD PTR _packetHeadPos$1$[ebp], ecx
; File D:\git\src\IBK\IBK_DRFN\ProjSrc\SrcChartEx\ChartOCX\GraphDraw\FundDraw.cpp

; 941  : 		CPacket* pPacket = packetList.GetNext(packetHeadPos);

  000de	8b 48 08	 mov	 ecx, DWORD PTR [eax+8]

; 942  : 		if(pPacket == NULL)

  000e1	85 c9		 test	 ecx, ecx
  000e3	74 48		 je	 SHORT $LN396@DrawCompon

; 943  : 			return false;
; 944  : 		else{
; 945  : 			//displayData
; 946  : 			//POSITION pos = pPacket->GetnumericDataList()->FindIndex(dataStart-1);
; 947  : 			POSITION pos = pPacket->GetnumericDataList()->FindIndex(dataStart);

  000e5	89 55 98	 mov	 DWORD PTR _nIndex$1$[ebp], edx
  000e8	ff 15 00 00 00
	00		 call	 DWORD PTR __imp_?GetnumericDataList@CPacket@@QAEPAV?$CList@NN@@XZ
; File C:\Program Files (x86)\Microsoft Visual Studio\2019\Community\VC\Tools\MSVC\14.29.30133\atlmfc\include\afxtempl.h

; 1133 : 	if (nIndex >= m_nCount || nIndex < 0)

  000ee	8b 4d a8	 mov	 ecx, DWORD PTR _dataStart$GSCopy$1$[ebp]
  000f1	3b 48 0c	 cmp	 ecx, DWORD PTR [eax+12]
  000f4	7d 37		 jge	 SHORT $LN396@DrawCompon
  000f6	85 c9		 test	 ecx, ecx
  000f8	78 33		 js	 SHORT $LN396@DrawCompon

; 1135 : 
; 1136 : 	CNode* pNode = m_pNodeHead;

  000fa	8b 40 04	 mov	 eax, DWORD PTR [eax+4]

; 1137 : 	while (nIndex--)

  000fd	74 0a		 je	 SHORT $LN398@DrawCompon
  000ff	8b 4d 98	 mov	 ecx, DWORD PTR _nIndex$1$[ebp]
$LL91@DrawCompon:

; 1138 : 	{
; 1139 : 		ASSERT(AfxIsValidAddress(pNode, sizeof(CNode)));
; 1140 : 		pNode = pNode->pNext;

  00102	8b 00		 mov	 eax, DWORD PTR [eax]
  00104	83 e9 01	 sub	 ecx, 1
  00107	75 f9		 jne	 SHORT $LL91@DrawCompon
$LN398@DrawCompon:
; File D:\git\src\IBK\IBK_DRFN\ProjSrc\SrcChartEx\ChartOCX\GraphDraw\FundDraw.cpp

; 948  : 			if(pos == NULL)

  00109	85 c0		 test	 eax, eax
  0010b	74 20		 je	 SHORT $LN396@DrawCompon

; 949  : 				return false;
; 950  : 			else
; 951  : 				packetPosition.AddTail(pos);

  0010d	50		 push	 eax
  0010e	8d 8d bc fe ff
	ff		 lea	 ecx, DWORD PTR _packetPosition$[ebp]
  00114	e8 00 00 00 00	 call	 ?AddTail@?$CList@PAU__POSITION@@PAU1@@@QAEPAU__POSITION@@PAU2@@Z ; CList<__POSITION *,__POSITION *>::AddTail
  00119	8b 55 ac	 mov	 edx, DWORD PTR _i$1$[ebp]
  0011c	42		 inc	 edx
  0011d	3b 55 90	 cmp	 edx, DWORD PTR _packetCount$1$[ebp]
  00120	89 55 ac	 mov	 DWORD PTR _i$1$[ebp], edx
  00123	8b 55 a8	 mov	 edx, DWORD PTR _dataStart$GSCopy$1$[ebp]
  00126	7d 0e		 jge	 SHORT $LN3@DrawCompon

; 940  : 	for( i = 0; i < packetCount; i++){

  00128	8b 4d 9c	 mov	 ecx, DWORD PTR _packetHeadPos$1$[ebp]
  0012b	eb aa		 jmp	 SHORT $LL4@DrawCompon
$LN396@DrawCompon:
  0012d	c6 45 bf 00	 mov	 BYTE PTR $T21[ebp], 0
  00131	e9 f4 0d 00 00	 jmp	 $LN379@DrawCompon
$LN3@DrawCompon:

; 952  : 		}
; 953  : 	}
; 954  : 	double widthRatio = 8.0/10.0;
; 955  : 	double realWidth = CDraw::CalRealWidth(graphDrawingRegion, dataStart, dataEnd);

  00136	ff 75 1c	 push	 DWORD PTR _dataEnd$[ebp]
  00139	8b cf		 mov	 ecx, edi
  0013b	52		 push	 edx
  0013c	56		 push	 esi
  0013d	e8 00 00 00 00	 call	 ?CalRealWidth@CDraw@@IAENABVCRect@@HH@Z ; CDraw::CalRealWidth
  00142	dd 9d 98 fe ff
	ff		 fstp	 QWORD PTR _realWidth$[ebp]

; 956  : 	int bongWidth = (int)(realWidth*widthRatio);

  00148	f2 0f 10 85 98
	fe ff ff	 movsd	 xmm0, QWORD PTR _realWidth$[ebp]

; 957  : 	if(bongWidth <= 1) 

  00150	b8 01 00 00 00	 mov	 eax, 1
  00155	f2 0f 59 05 00
	00 00 00	 mulsd	 xmm0, QWORD PTR __real@3fe999999999999a

; 958  : 		bongWidth = 1;
; 959  : 	int lineThickness = CDraw::CalUpLineThickness(penThickness, bongWidth);

  0015d	8b cf		 mov	 ecx, edi
  0015f	f2 0f 2c f0	 cvttsd2si esi, xmm0
  00163	3b f0		 cmp	 esi, eax
  00165	0f 4e f0	 cmovle	 esi, eax
  00168	8d 45 30	 lea	 eax, DWORD PTR _penThickness$[ebp]
  0016b	56		 push	 esi
  0016c	50		 push	 eax
  0016d	e8 00 00 00 00	 call	 ?CalUpLineThickness@CDraw@@IAEHABVCPenThickness@@H@Z ; CDraw::CalUpLineThickness
  00172	8b f8		 mov	 edi, eax
; File C:\Program Files (x86)\Microsoft Visual Studio\2019\Community\VC\Tools\MSVC\14.29.30133\atlmfc\include\afxwin1.inl

; 70   : 	{ m_hObject = NULL; }

  00174	c7 45 8c 00 00
	00 00		 mov	 DWORD PTR _pen$[ebp+4], 0
; File D:\git\src\IBK\IBK_DRFN\ProjSrc\SrcChartEx\ChartOCX\GraphDraw\FundDraw.cpp

; 961  : 	bongWidth = bongWidth - lineThickness;

  0017b	2b f7		 sub	 esi, edi
  0017d	89 7d cc	 mov	 DWORD PTR _lineThickness$1$[ebp], edi

; 962  : 	bongWidth = bongWidth / 3;

  00180	b8 56 55 55 55	 mov	 eax, 1431655766		; 55555556H
; File C:\Program Files (x86)\Microsoft Visual Studio\2019\Community\VC\Tools\MSVC\14.29.30133\atlmfc\include\afxwin1.inl

; 104  : 	{ }

  00185	c7 45 88 00 00
	00 00		 mov	 DWORD PTR _pen$[ebp], OFFSET ??_7CPen@@6B@
; File D:\git\src\IBK\IBK_DRFN\ProjSrc\SrcChartEx\ChartOCX\GraphDraw\FundDraw.cpp

; 962  : 	bongWidth = bongWidth / 3;

  0018c	f7 ee		 imul	 esi
  0018e	8b c2		 mov	 eax, edx
  00190	c1 e8 1f	 shr	 eax, 31			; 0000001fH
  00193	03 c2		 add	 eax, edx
  00195	89 45 c4	 mov	 DWORD PTR _bongWidth$3$[ebp], eax
; File C:\Program Files (x86)\Microsoft Visual Studio\2019\Community\VC\Tools\MSVC\14.29.30133\atlmfc\include\afxwin1.inl

; 70   : 	{ m_hObject = NULL; }

  00198	c7 85 3c ff ff
	ff 00 00 00 00	 mov	 DWORD PTR _pen1$[ebp+4], 0

; 104  : 	{ }

  001a2	c7 85 38 ff ff
	ff 00 00 00 00	 mov	 DWORD PTR _pen1$[ebp], OFFSET ??_7CPen@@6B@

; 70   : 	{ m_hObject = NULL; }

  001ac	c7 85 44 ff ff
	ff 00 00 00 00	 mov	 DWORD PTR _pen2$[ebp+4], 0

; 104  : 	{ }

  001b6	c7 85 40 ff ff
	ff 00 00 00 00	 mov	 DWORD PTR _pen2$[ebp], OFFSET ??_7CPen@@6B@

; 70   : 	{ m_hObject = NULL; }

  001c0	c7 85 4c ff ff
	ff 00 00 00 00	 mov	 DWORD PTR _pen3$[ebp+4], 0

; 104  : 	{ }

  001ca	c7 85 48 ff ff
	ff 00 00 00 00	 mov	 DWORD PTR _pen3$[ebp], OFFSET ??_7CPen@@6B@

; 70   : 	{ m_hObject = NULL; }

  001d4	c7 85 54 ff ff
	ff 00 00 00 00	 mov	 DWORD PTR _pen4$[ebp+4], 0

; 104  : 	{ }

  001de	c7 85 50 ff ff
	ff 00 00 00 00	 mov	 DWORD PTR _pen4$[ebp], OFFSET ??_7CPen@@6B@

; 70   : 	{ m_hObject = NULL; }

  001e8	c7 85 34 ff ff
	ff 00 00 00 00	 mov	 DWORD PTR _pen5$[ebp+4], 0

; 104  : 	{ }

  001f2	c7 85 30 ff ff
	ff 00 00 00 00	 mov	 DWORD PTR _pen5$[ebp], OFFSET ??_7CPen@@6B@

; 70   : 	{ m_hObject = NULL; }

  001fc	c7 85 5c ff ff
	ff 00 00 00 00	 mov	 DWORD PTR _pen6$[ebp+4], 0

; 104  : 	{ }

  00206	c7 85 58 ff ff
	ff 00 00 00 00	 mov	 DWORD PTR _pen6$[ebp], OFFSET ??_7CPen@@6B@

; 70   : 	{ m_hObject = NULL; }

  00210	c7 85 64 ff ff
	ff 00 00 00 00	 mov	 DWORD PTR _pen7$[ebp+4], 0

; 104  : 	{ }

  0021a	c7 85 60 ff ff
	ff 00 00 00 00	 mov	 DWORD PTR _pen7$[ebp], OFFSET ??_7CPen@@6B@

; 70   : 	{ m_hObject = NULL; }

  00224	c7 85 6c ff ff
	ff 00 00 00 00	 mov	 DWORD PTR _pen8$[ebp+4], 0

; 104  : 	{ }

  0022e	c7 85 68 ff ff
	ff 00 00 00 00	 mov	 DWORD PTR _pen8$[ebp], OFFSET ??_7CPen@@6B@

; 70   : 	{ m_hObject = NULL; }

  00238	c7 85 74 ff ff
	ff 00 00 00 00	 mov	 DWORD PTR _pen9$[ebp+4], 0

; 104  : 	{ }

  00242	c7 85 70 ff ff
	ff 00 00 00 00	 mov	 DWORD PTR _pen9$[ebp], OFFSET ??_7CPen@@6B@

; 70   : 	{ m_hObject = NULL; }

  0024c	c7 85 7c ff ff
	ff 00 00 00 00	 mov	 DWORD PTR _pen10$[ebp+4], 0

; 104  : 	{ }

  00256	c7 85 78 ff ff
	ff 00 00 00 00	 mov	 DWORD PTR _pen10$[ebp], OFFSET ??_7CPen@@6B@
; File D:\git\src\IBK\IBK_DRFN\ProjSrc\SrcChartEx\ChartOCX\GraphDraw\FundDraw.cpp

; 965  : 	pen.CreatePen(PS_SOLID, lineThickness, etcGraphColor.GetGraphColor5());

  00260	8b 4d d0	 mov	 ecx, DWORD PTR _etcGraphColor$GSCopy$1$[ebp]
  00263	c6 45 fc 0b	 mov	 BYTE PTR __$EHRec$[ebp+8], 11 ; 0000000bH
  00267	ff 15 00 00 00
	00		 call	 DWORD PTR __imp_?GetGraphColor5@CEtcGraphColor@@QBEKXZ
; File C:\Program Files (x86)\Microsoft Visual Studio\2019\Community\VC\Tools\MSVC\14.29.30133\atlmfc\include\afxwin1.inl

; 108  : 	{ return Attach(::CreatePen(nPenStyle, nWidth, crColor)); }

  0026d	8b 35 00 00 00
	00		 mov	 esi, DWORD PTR __imp__CreatePen@12
  00273	50		 push	 eax
  00274	57		 push	 edi
  00275	6a 00		 push	 0
  00277	ff d6		 call	 esi
  00279	50		 push	 eax
  0027a	8d 4d 88	 lea	 ecx, DWORD PTR _pen$[ebp]
  0027d	e8 00 00 00 00	 call	 ?Attach@CGdiObject@@QAEHPAX@Z ; CGdiObject::Attach
; File D:\git\src\IBK\IBK_DRFN\ProjSrc\SrcChartEx\ChartOCX\GraphDraw\FundDraw.cpp

; 967  : 	pen1.CreatePen	(PS_SOLID, lineThickness, graphColor.GetColor1());

  00282	8b 7d d4	 mov	 edi, DWORD PTR _graphColor$GSCopy$1$[ebp]
  00285	8b cf		 mov	 ecx, edi
  00287	ff 15 00 00 00
	00		 call	 DWORD PTR __imp_?GetColor1@CGraphColor@@QBEKXZ
; File C:\Program Files (x86)\Microsoft Visual Studio\2019\Community\VC\Tools\MSVC\14.29.30133\atlmfc\include\afxwin1.inl

; 108  : 	{ return Attach(::CreatePen(nPenStyle, nWidth, crColor)); }

  0028d	50		 push	 eax
  0028e	ff 75 cc	 push	 DWORD PTR _lineThickness$1$[ebp]
  00291	6a 00		 push	 0
  00293	ff d6		 call	 esi
  00295	50		 push	 eax
  00296	8d 8d 38 ff ff
	ff		 lea	 ecx, DWORD PTR _pen1$[ebp]
  0029c	e8 00 00 00 00	 call	 ?Attach@CGdiObject@@QAEHPAX@Z ; CGdiObject::Attach
; File D:\git\src\IBK\IBK_DRFN\ProjSrc\SrcChartEx\ChartOCX\GraphDraw\FundDraw.cpp

; 968  : 	pen2.CreatePen	(PS_SOLID, lineThickness, graphColor.GetColor2());

  002a1	8b cf		 mov	 ecx, edi
  002a3	ff 15 00 00 00
	00		 call	 DWORD PTR __imp_?GetColor2@CGraphColor@@QBEKXZ
; File C:\Program Files (x86)\Microsoft Visual Studio\2019\Community\VC\Tools\MSVC\14.29.30133\atlmfc\include\afxwin1.inl

; 108  : 	{ return Attach(::CreatePen(nPenStyle, nWidth, crColor)); }

  002a9	50		 push	 eax
  002aa	ff 75 cc	 push	 DWORD PTR _lineThickness$1$[ebp]
  002ad	6a 00		 push	 0
  002af	ff d6		 call	 esi
  002b1	50		 push	 eax
  002b2	8d 8d 40 ff ff
	ff		 lea	 ecx, DWORD PTR _pen2$[ebp]
  002b8	e8 00 00 00 00	 call	 ?Attach@CGdiObject@@QAEHPAX@Z ; CGdiObject::Attach
; File D:\git\src\IBK\IBK_DRFN\ProjSrc\SrcChartEx\ChartOCX\GraphDraw\FundDraw.cpp

; 969  : 	pen3.CreatePen	(PS_SOLID, lineThickness, graphColor.GetColor3());

  002bd	8b cf		 mov	 ecx, edi
  002bf	ff 15 00 00 00
	00		 call	 DWORD PTR __imp_?GetColor3@CGraphColor@@QBEKXZ
; File C:\Program Files (x86)\Microsoft Visual Studio\2019\Community\VC\Tools\MSVC\14.29.30133\atlmfc\include\afxwin1.inl

; 108  : 	{ return Attach(::CreatePen(nPenStyle, nWidth, crColor)); }

  002c5	50		 push	 eax
  002c6	ff 75 cc	 push	 DWORD PTR _lineThickness$1$[ebp]
  002c9	6a 00		 push	 0
  002cb	ff d6		 call	 esi
  002cd	50		 push	 eax
  002ce	8d 8d 48 ff ff
	ff		 lea	 ecx, DWORD PTR _pen3$[ebp]
  002d4	e8 00 00 00 00	 call	 ?Attach@CGdiObject@@QAEHPAX@Z ; CGdiObject::Attach
; File D:\git\src\IBK\IBK_DRFN\ProjSrc\SrcChartEx\ChartOCX\GraphDraw\FundDraw.cpp

; 970  : 	pen4.CreatePen	(PS_SOLID, lineThickness, graphColor.GetColor4());

  002d9	8b cf		 mov	 ecx, edi
  002db	ff 15 00 00 00
	00		 call	 DWORD PTR __imp_?GetColor4@CGraphColor@@QBEKXZ
; File C:\Program Files (x86)\Microsoft Visual Studio\2019\Community\VC\Tools\MSVC\14.29.30133\atlmfc\include\afxwin1.inl

; 108  : 	{ return Attach(::CreatePen(nPenStyle, nWidth, crColor)); }

  002e1	50		 push	 eax
  002e2	ff 75 cc	 push	 DWORD PTR _lineThickness$1$[ebp]
  002e5	6a 00		 push	 0
  002e7	ff d6		 call	 esi
  002e9	50		 push	 eax
  002ea	8d 8d 50 ff ff
	ff		 lea	 ecx, DWORD PTR _pen4$[ebp]
  002f0	e8 00 00 00 00	 call	 ?Attach@CGdiObject@@QAEHPAX@Z ; CGdiObject::Attach
; File D:\git\src\IBK\IBK_DRFN\ProjSrc\SrcChartEx\ChartOCX\GraphDraw\FundDraw.cpp

; 971  : 	pen5.CreatePen	(PS_SOLID, lineThickness, graphColor.GetColor5());

  002f5	8b cf		 mov	 ecx, edi
  002f7	ff 15 00 00 00
	00		 call	 DWORD PTR __imp_?GetColor5@CGraphColor@@QBEKXZ
; File C:\Program Files (x86)\Microsoft Visual Studio\2019\Community\VC\Tools\MSVC\14.29.30133\atlmfc\include\afxwin1.inl

; 108  : 	{ return Attach(::CreatePen(nPenStyle, nWidth, crColor)); }

  002fd	50		 push	 eax
  002fe	ff 75 cc	 push	 DWORD PTR _lineThickness$1$[ebp]
  00301	6a 00		 push	 0
  00303	ff d6		 call	 esi
  00305	50		 push	 eax
  00306	8d 8d 30 ff ff
	ff		 lea	 ecx, DWORD PTR _pen5$[ebp]
  0030c	e8 00 00 00 00	 call	 ?Attach@CGdiObject@@QAEHPAX@Z ; CGdiObject::Attach
; File D:\git\src\IBK\IBK_DRFN\ProjSrc\SrcChartEx\ChartOCX\GraphDraw\FundDraw.cpp

; 972  : 	pen6.CreatePen	(PS_SOLID, lineThickness, graphColor.GetColor6());

  00311	8b cf		 mov	 ecx, edi
  00313	ff 15 00 00 00
	00		 call	 DWORD PTR __imp_?GetColor6@CGraphColor@@QBEKXZ
; File C:\Program Files (x86)\Microsoft Visual Studio\2019\Community\VC\Tools\MSVC\14.29.30133\atlmfc\include\afxwin1.inl

; 108  : 	{ return Attach(::CreatePen(nPenStyle, nWidth, crColor)); }

  00319	50		 push	 eax
  0031a	ff 75 cc	 push	 DWORD PTR _lineThickness$1$[ebp]
  0031d	6a 00		 push	 0
  0031f	ff d6		 call	 esi
  00321	50		 push	 eax
  00322	8d 8d 58 ff ff
	ff		 lea	 ecx, DWORD PTR _pen6$[ebp]
  00328	e8 00 00 00 00	 call	 ?Attach@CGdiObject@@QAEHPAX@Z ; CGdiObject::Attach
; File D:\git\src\IBK\IBK_DRFN\ProjSrc\SrcChartEx\ChartOCX\GraphDraw\FundDraw.cpp

; 973  : 	pen7.CreatePen	(PS_SOLID, lineThickness, etcGraphColor.GetGraphColor1());

  0032d	8b 7d d0	 mov	 edi, DWORD PTR _etcGraphColor$GSCopy$1$[ebp]
  00330	8b cf		 mov	 ecx, edi
  00332	ff 15 00 00 00
	00		 call	 DWORD PTR __imp_?GetGraphColor1@CEtcGraphColor@@QBEKXZ
; File C:\Program Files (x86)\Microsoft Visual Studio\2019\Community\VC\Tools\MSVC\14.29.30133\atlmfc\include\afxwin1.inl

; 108  : 	{ return Attach(::CreatePen(nPenStyle, nWidth, crColor)); }

  00338	50		 push	 eax
  00339	ff 75 cc	 push	 DWORD PTR _lineThickness$1$[ebp]
  0033c	6a 00		 push	 0
  0033e	ff d6		 call	 esi
  00340	50		 push	 eax
  00341	8d 8d 60 ff ff
	ff		 lea	 ecx, DWORD PTR _pen7$[ebp]
  00347	e8 00 00 00 00	 call	 ?Attach@CGdiObject@@QAEHPAX@Z ; CGdiObject::Attach
; File D:\git\src\IBK\IBK_DRFN\ProjSrc\SrcChartEx\ChartOCX\GraphDraw\FundDraw.cpp

; 974  : 	pen8.CreatePen	(PS_SOLID, lineThickness, etcGraphColor.GetGraphColor2());

  0034c	8b cf		 mov	 ecx, edi
  0034e	ff 15 00 00 00
	00		 call	 DWORD PTR __imp_?GetGraphColor2@CEtcGraphColor@@QBEKXZ
; File C:\Program Files (x86)\Microsoft Visual Studio\2019\Community\VC\Tools\MSVC\14.29.30133\atlmfc\include\afxwin1.inl

; 108  : 	{ return Attach(::CreatePen(nPenStyle, nWidth, crColor)); }

  00354	50		 push	 eax
  00355	ff 75 cc	 push	 DWORD PTR _lineThickness$1$[ebp]
  00358	6a 00		 push	 0
  0035a	ff d6		 call	 esi
  0035c	50		 push	 eax
  0035d	8d 8d 68 ff ff
	ff		 lea	 ecx, DWORD PTR _pen8$[ebp]
  00363	e8 00 00 00 00	 call	 ?Attach@CGdiObject@@QAEHPAX@Z ; CGdiObject::Attach
; File D:\git\src\IBK\IBK_DRFN\ProjSrc\SrcChartEx\ChartOCX\GraphDraw\FundDraw.cpp

; 975  : 	pen9.CreatePen	(PS_SOLID, lineThickness, etcGraphColor.GetGraphColor3());

  00368	8b cf		 mov	 ecx, edi
  0036a	8b 3d 00 00 00
	00		 mov	 edi, DWORD PTR __imp_?GetGraphColor3@CEtcGraphColor@@QBEKXZ
  00370	ff d7		 call	 edi
; File C:\Program Files (x86)\Microsoft Visual Studio\2019\Community\VC\Tools\MSVC\14.29.30133\atlmfc\include\afxwin1.inl

; 108  : 	{ return Attach(::CreatePen(nPenStyle, nWidth, crColor)); }

  00372	50		 push	 eax
  00373	ff 75 cc	 push	 DWORD PTR _lineThickness$1$[ebp]
  00376	6a 00		 push	 0
  00378	ff d6		 call	 esi
  0037a	50		 push	 eax
  0037b	8d 8d 70 ff ff
	ff		 lea	 ecx, DWORD PTR _pen9$[ebp]
  00381	e8 00 00 00 00	 call	 ?Attach@CGdiObject@@QAEHPAX@Z ; CGdiObject::Attach
; File D:\git\src\IBK\IBK_DRFN\ProjSrc\SrcChartEx\ChartOCX\GraphDraw\FundDraw.cpp

; 976  : 	pen10.CreatePen	(PS_SOLID, lineThickness, etcGraphColor.GetGraphColor4());

  00386	8b 4d d0	 mov	 ecx, DWORD PTR _etcGraphColor$GSCopy$1$[ebp]
  00389	8b 35 00 00 00
	00		 mov	 esi, DWORD PTR __imp_?GetGraphColor4@CEtcGraphColor@@QBEKXZ
  0038f	ff d6		 call	 esi
; File C:\Program Files (x86)\Microsoft Visual Studio\2019\Community\VC\Tools\MSVC\14.29.30133\atlmfc\include\afxwin1.inl

; 108  : 	{ return Attach(::CreatePen(nPenStyle, nWidth, crColor)); }

  00391	50		 push	 eax
  00392	ff 75 cc	 push	 DWORD PTR _lineThickness$1$[ebp]
  00395	6a 00		 push	 0
  00397	ff 15 00 00 00
	00		 call	 DWORD PTR __imp__CreatePen@12
  0039d	50		 push	 eax
  0039e	8d 8d 78 ff ff
	ff		 lea	 ecx, DWORD PTR _pen10$[ebp]
  003a4	e8 00 00 00 00	 call	 ?Attach@CGdiObject@@QAEHPAX@Z ; CGdiObject::Attach
; File D:\git\src\IBK\IBK_DRFN\ProjSrc\SrcChartEx\ChartOCX\GraphDraw\FundDraw.cpp

; 979  : 	CBrush firstBrush	(graphColor.GetColor1());

  003a9	8b 4d d4	 mov	 ecx, DWORD PTR _graphColor$GSCopy$1$[ebp]
  003ac	ff 15 00 00 00
	00		 call	 DWORD PTR __imp_?GetColor1@CGraphColor@@QBEKXZ
  003b2	50		 push	 eax
  003b3	8d 4d 80	 lea	 ecx, DWORD PTR _firstBrush$[ebp]
  003b6	e8 00 00 00 00	 call	 ??0CBrush@@QAE@K@Z	; CBrush::CBrush

; 980  : 	CBrush secondBrush	(graphColor.GetColor2());

  003bb	8b 4d d4	 mov	 ecx, DWORD PTR _graphColor$GSCopy$1$[ebp]
  003be	c6 45 fc 0c	 mov	 BYTE PTR __$EHRec$[ebp+8], 12 ; 0000000cH
  003c2	ff 15 00 00 00
	00		 call	 DWORD PTR __imp_?GetColor2@CGraphColor@@QBEKXZ
  003c8	50		 push	 eax
  003c9	8d 8d d8 fe ff
	ff		 lea	 ecx, DWORD PTR _secondBrush$[ebp]
  003cf	e8 00 00 00 00	 call	 ??0CBrush@@QAE@K@Z	; CBrush::CBrush

; 981  : 	CBrush thirdBrush	(graphColor.GetColor3());

  003d4	8b 4d d4	 mov	 ecx, DWORD PTR _graphColor$GSCopy$1$[ebp]
  003d7	c6 45 fc 0d	 mov	 BYTE PTR __$EHRec$[ebp+8], 13 ; 0000000dH
  003db	ff 15 00 00 00
	00		 call	 DWORD PTR __imp_?GetColor3@CGraphColor@@QBEKXZ
  003e1	50		 push	 eax
  003e2	8d 8d e0 fe ff
	ff		 lea	 ecx, DWORD PTR _thirdBrush$[ebp]
  003e8	e8 00 00 00 00	 call	 ??0CBrush@@QAE@K@Z	; CBrush::CBrush

; 982  : 	CBrush fourBrush	(graphColor.GetColor4());

  003ed	8b 4d d4	 mov	 ecx, DWORD PTR _graphColor$GSCopy$1$[ebp]
  003f0	c6 45 fc 0e	 mov	 BYTE PTR __$EHRec$[ebp+8], 14 ; 0000000eH
  003f4	ff 15 00 00 00
	00		 call	 DWORD PTR __imp_?GetColor4@CGraphColor@@QBEKXZ
  003fa	50		 push	 eax
  003fb	8d 8d e8 fe ff
	ff		 lea	 ecx, DWORD PTR _fourBrush$[ebp]
  00401	e8 00 00 00 00	 call	 ??0CBrush@@QAE@K@Z	; CBrush::CBrush

; 983  : 	CBrush fiveBrush	(graphColor.GetColor5());

  00406	8b 4d d4	 mov	 ecx, DWORD PTR _graphColor$GSCopy$1$[ebp]
  00409	c6 45 fc 0f	 mov	 BYTE PTR __$EHRec$[ebp+8], 15 ; 0000000fH
  0040d	ff 15 00 00 00
	00		 call	 DWORD PTR __imp_?GetColor5@CGraphColor@@QBEKXZ
  00413	50		 push	 eax
  00414	8d 8d f0 fe ff
	ff		 lea	 ecx, DWORD PTR _fiveBrush$[ebp]
  0041a	e8 00 00 00 00	 call	 ??0CBrush@@QAE@K@Z	; CBrush::CBrush

; 984  : 	CBrush sixBrush		(graphColor.GetColor6());

  0041f	8b 4d d4	 mov	 ecx, DWORD PTR _graphColor$GSCopy$1$[ebp]
  00422	c6 45 fc 10	 mov	 BYTE PTR __$EHRec$[ebp+8], 16 ; 00000010H
  00426	ff 15 00 00 00
	00		 call	 DWORD PTR __imp_?GetColor6@CGraphColor@@QBEKXZ
  0042c	50		 push	 eax
  0042d	8d 8d f8 fe ff
	ff		 lea	 ecx, DWORD PTR _sixBrush$[ebp]
  00433	e8 00 00 00 00	 call	 ??0CBrush@@QAE@K@Z	; CBrush::CBrush

; 985  : 	CBrush sevenBrush	(etcGraphColor.GetGraphColor1());

  00438	8b 4d d0	 mov	 ecx, DWORD PTR _etcGraphColor$GSCopy$1$[ebp]
  0043b	c6 45 fc 11	 mov	 BYTE PTR __$EHRec$[ebp+8], 17 ; 00000011H
  0043f	ff 15 00 00 00
	00		 call	 DWORD PTR __imp_?GetGraphColor1@CEtcGraphColor@@QBEKXZ
  00445	50		 push	 eax
  00446	8d 8d 00 ff ff
	ff		 lea	 ecx, DWORD PTR _sevenBrush$[ebp]
  0044c	e8 00 00 00 00	 call	 ??0CBrush@@QAE@K@Z	; CBrush::CBrush

; 986  : 	CBrush eightBrush	(etcGraphColor.GetGraphColor2());

  00451	8b 4d d0	 mov	 ecx, DWORD PTR _etcGraphColor$GSCopy$1$[ebp]
  00454	c6 45 fc 12	 mov	 BYTE PTR __$EHRec$[ebp+8], 18 ; 00000012H
  00458	ff 15 00 00 00
	00		 call	 DWORD PTR __imp_?GetGraphColor2@CEtcGraphColor@@QBEKXZ
  0045e	50		 push	 eax
  0045f	8d 8d 08 ff ff
	ff		 lea	 ecx, DWORD PTR _eightBrush$[ebp]
  00465	e8 00 00 00 00	 call	 ??0CBrush@@QAE@K@Z	; CBrush::CBrush

; 987  : 	CBrush nineBrush	(etcGraphColor.GetGraphColor3());

  0046a	8b 4d d0	 mov	 ecx, DWORD PTR _etcGraphColor$GSCopy$1$[ebp]
  0046d	c6 45 fc 13	 mov	 BYTE PTR __$EHRec$[ebp+8], 19 ; 00000013H
  00471	ff d7		 call	 edi
  00473	50		 push	 eax
  00474	8d 8d 10 ff ff
	ff		 lea	 ecx, DWORD PTR _nineBrush$[ebp]
  0047a	e8 00 00 00 00	 call	 ??0CBrush@@QAE@K@Z	; CBrush::CBrush

; 988  : 	CBrush tenBrush		(etcGraphColor.GetGraphColor4());

  0047f	8b 4d d0	 mov	 ecx, DWORD PTR _etcGraphColor$GSCopy$1$[ebp]
  00482	c6 45 fc 14	 mov	 BYTE PTR __$EHRec$[ebp+8], 20 ; 00000014H
  00486	ff d6		 call	 esi
  00488	50		 push	 eax
  00489	8d 8d 18 ff ff
	ff		 lea	 ecx, DWORD PTR _tenBrush$[ebp]
  0048f	e8 00 00 00 00	 call	 ??0CBrush@@QAE@K@Z	; CBrush::CBrush

; 989  : 
; 990  : 	CBrush* pOldBrush;
; 991  : 	CPen* pOldPen; 
; 992  : 	pOldBrush = (CBrush*)pDC->SelectObject(&firstBrush);

  00494	8b 75 d8	 mov	 esi, DWORD PTR _pDC$GSCopy$1$[ebp]
  00497	8d 45 80	 lea	 eax, DWORD PTR _firstBrush$[ebp]
  0049a	50		 push	 eax
  0049b	8b ce		 mov	 ecx, esi
  0049d	c6 45 fc 15	 mov	 BYTE PTR __$EHRec$[ebp+8], 21 ; 00000015H
  004a1	e8 00 00 00 00	 call	 ?SelectObject@CDC@@QAEPAVCBrush@@PAV2@@Z ; CDC::SelectObject
  004a6	89 85 a4 fe ff
	ff		 mov	 DWORD PTR _pOldBrush$1$[ebp], eax

; 993  : 	pOldPen = (CPen*)pDC->SelectObject(&pen);

  004ac	8b ce		 mov	 ecx, esi
  004ae	8d 45 88	 lea	 eax, DWORD PTR _pen$[ebp]
  004b1	50		 push	 eax
  004b2	e8 00 00 00 00	 call	 ?SelectObject@CDC@@QAEPAVCPen@@PAV2@@Z ; CDC::SelectObject

; 994  : 
; 995  : 	int count = 0;
; 996  : 	for(i = dataStart; i <= dataRealEnd; i++){

  004b7	8b 4d a8	 mov	 ecx, DWORD PTR _dataStart$GSCopy$1$[ebp]
  004ba	8b 55 20	 mov	 edx, DWORD PTR _dataRealEnd$[ebp]
  004bd	89 85 94 fe ff
	ff		 mov	 DWORD PTR _pOldPen$1$[ebp], eax
  004c3	33 c0		 xor	 eax, eax
  004c5	3b ca		 cmp	 ecx, edx
  004c7	0f 8f b1 07 00
	00		 jg	 $LN6@DrawCompon

; 958  : 		bongWidth = 1;
; 959  : 	int lineThickness = CDraw::CalUpLineThickness(penThickness, bongWidth);

  004cd	bf 01 00 00 00	 mov	 edi, 1
  004d2	2b d1		 sub	 edx, ecx
  004d4	2b f9		 sub	 edi, ecx
  004d6	42		 inc	 edx
  004d7	89 bd a8 fe ff
	ff		 mov	 DWORD PTR tv3262[ebp], edi
  004dd	89 55 20	 mov	 DWORD PTR _dataRealEnd$[ebp], edx
$LL7@DrawCompon:

; 997  : 		count++;
; 998  : 		packetHeadPos = packetList.GetHeadPosition();

  004e0	8b 8d b8 fe ff
	ff		 mov	 ecx, DWORD PTR _packetList$GSCopy$1$[ebp]
  004e6	40		 inc	 eax

; 1004 : 		for(int j = 0; j < packetCount; j++){

  004e7	33 ff		 xor	 edi, edi
  004e9	89 45 d0	 mov	 DWORD PTR _count$1$[ebp], eax
  004ec	c7 45 a4 00 00
	00 00		 mov	 DWORD PTR _saveDataY$1$[ebp], 0
  004f3	c7 45 c0 00 00
	00 00		 mov	 DWORD PTR _linePt$1$[ebp], 0
  004fa	8b 41 04	 mov	 eax, DWORD PTR [ecx+4]
  004fd	89 85 2c ff ff
	ff		 mov	 DWORD PTR _packetHeadPos$2$[ebp], eax
; File C:\Program Files (x86)\Microsoft Visual Studio\2019\Community\VC\Tools\MSVC\14.29.30133\atlmfc\include\atltypes.h

; 400  : 	x = 0;

  00503	c7 45 d4 00 00
	00 00		 mov	 DWORD PTR _beforeDataPt$1$[ebp], 0
; File D:\git\src\IBK\IBK_DRFN\ProjSrc\SrcChartEx\ChartOCX\GraphDraw\FundDraw.cpp

; 1004 : 		for(int j = 0; j < packetCount; j++){

  0050a	89 7d 98	 mov	 DWORD PTR _j$1$[ebp], edi
  0050d	39 7d 90	 cmp	 DWORD PTR _packetCount$1$[ebp], edi
  00510	0f 8e 3a 07 00
	00		 jle	 $LN9@DrawCompon
  00516	8b 45 cc	 mov	 eax, DWORD PTR _lineThickness$1$[ebp]
  00519	99		 cdq
  0051a	2b c2		 sub	 eax, edx
  0051c	d1 f8		 sar	 eax, 1
  0051e	89 85 20 ff ff
	ff		 mov	 DWORD PTR tv3265[ebp], eax
$LL10@DrawCompon:

; 1006 : 			POSITION dataPosPosition = packetPosition.FindIndex(j);

  00524	8b cf		 mov	 ecx, edi
; File C:\Program Files (x86)\Microsoft Visual Studio\2019\Community\VC\Tools\MSVC\14.29.30133\atlmfc\include\afxtempl.h

; 817  : 	{ CNode* pNode = (CNode*) rPosition;

  00526	8b 85 2c ff ff
	ff		 mov	 eax, DWORD PTR _packetHeadPos$2$[ebp]
; File D:\git\src\IBK\IBK_DRFN\ProjSrc\SrcChartEx\ChartOCX\GraphDraw\FundDraw.cpp

; 1005 : 			CPacket* dataPacket = packetList.GetNext(packetHeadPos);

  0052c	8b 50 08	 mov	 edx, DWORD PTR [eax+8]
; File C:\Program Files (x86)\Microsoft Visual Studio\2019\Community\VC\Tools\MSVC\14.29.30133\atlmfc\include\afxtempl.h

; 819  : 		rPosition = (POSITION) pNode->pNext;

  0052f	8b 00		 mov	 eax, DWORD PTR [eax]
  00531	89 85 2c ff ff
	ff		 mov	 DWORD PTR _packetHeadPos$2$[ebp], eax
; File D:\git\src\IBK\IBK_DRFN\ProjSrc\SrcChartEx\ChartOCX\GraphDraw\FundDraw.cpp

; 1005 : 			CPacket* dataPacket = packetList.GetNext(packetHeadPos);

  00537	89 55 a0	 mov	 DWORD PTR _dataPacket$1$[ebp], edx
; File C:\Program Files (x86)\Microsoft Visual Studio\2019\Community\VC\Tools\MSVC\14.29.30133\atlmfc\include\afxtempl.h

; 1133 : 	if (nIndex >= m_nCount || nIndex < 0)

  0053a	3b bd c8 fe ff
	ff		 cmp	 edi, DWORD PTR _packetPosition$[ebp+12]
  00540	7d 18		 jge	 SHORT $LN172@DrawCompon
  00542	85 ff		 test	 edi, edi
  00544	78 14		 js	 SHORT $LN172@DrawCompon

; 1135 : 
; 1136 : 	CNode* pNode = m_pNodeHead;

  00546	8b 85 c0 fe ff
	ff		 mov	 eax, DWORD PTR _packetPosition$[ebp+4]
  0054c	89 45 b4	 mov	 DWORD PTR $T20[ebp], eax

; 1137 : 	while (nIndex--)

  0054f	74 0e		 je	 SHORT $LN168@DrawCompon
$LL169@DrawCompon:

; 1138 : 	{
; 1139 : 		ASSERT(AfxIsValidAddress(pNode, sizeof(CNode)));
; 1140 : 		pNode = pNode->pNext;

  00551	8b 00		 mov	 eax, DWORD PTR [eax]
  00553	83 e9 01	 sub	 ecx, 1
  00556	75 f9		 jne	 SHORT $LL169@DrawCompon

; 1141 : 	}
; 1142 : 	return (POSITION) pNode;

  00558	eb 02		 jmp	 SHORT $LN440@DrawCompon
$LN172@DrawCompon:

; 1134 : 		return NULL;  // went too far

  0055a	33 c0		 xor	 eax, eax
$LN440@DrawCompon:
; File D:\git\src\IBK\IBK_DRFN\ProjSrc\SrcChartEx\ChartOCX\GraphDraw\FundDraw.cpp

; 1008 : 			POSITION dataPos = packetPosition.GetNext(dataPosPosition);

  0055c	89 45 b4	 mov	 DWORD PTR $T20[ebp], eax
$LN168@DrawCompon:
  0055f	8b 70 08	 mov	 esi, DWORD PTR [eax+8]

; 1009 : 			CString strData = CDataConversion( m_hOcxWnd, m_eChartMode).GetStringFormatTrans(CDataConversion::DoubleToString(dataPacket->GetnumericDataList()->GetNext(dataPos)), dataPacket->GetType());

  00562	8b ca		 mov	 ecx, edx
  00564	6a 01		 push	 1
  00566	8d 85 b4 fe ff
	ff		 lea	 eax, DWORD PTR $T12[ebp]
  0056c	50		 push	 eax
  0056d	ff 15 00 00 00
	00		 call	 DWORD PTR __imp_?GetType@CPacket@@QAE?AV?$CStringT@DV?$StrTraitMFC_DLL@DV?$ChTraitsCRT@D@ATL@@@@@ATL@@_N@Z
  00573	8b f8		 mov	 edi, eax
  00575	8b 4d a0	 mov	 ecx, DWORD PTR _dataPacket$1$[ebp]
  00578	c6 45 fc 16	 mov	 BYTE PTR __$EHRec$[ebp+8], 22 ; 00000016H
  0057c	ff 15 00 00 00
	00		 call	 DWORD PTR __imp_?GetnumericDataList@CPacket@@QAEPAV?$CList@NN@@XZ
; File C:\Program Files (x86)\Microsoft Visual Studio\2019\Community\VC\Tools\MSVC\14.29.30133\atlmfc\include\afxtempl.h

; 813  : 		rPosition = (POSITION) pNode->pNext;

  00582	8b 06		 mov	 eax, DWORD PTR [esi]

; 814  : 		return pNode->data; }

  00584	8d 4e 08	 lea	 ecx, DWORD PTR [esi+8]
  00587	89 45 b8	 mov	 DWORD PTR _dataPos$2$[ebp], eax
; File D:\git\src\IBK\IBK_DRFN\ProjSrc\SrcChartEx\ChartOCX\GraphDraw\FundDraw.cpp

; 1009 : 			CString strData = CDataConversion( m_hOcxWnd, m_eChartMode).GetStringFormatTrans(CDataConversion::DoubleToString(dataPacket->GetnumericDataList()->GetNext(dataPos)), dataPacket->GetType());

  0058a	8d 85 a0 fe ff
	ff		 lea	 eax, DWORD PTR $T9[ebp]
  00590	51		 push	 ecx
  00591	50		 push	 eax
  00592	e8 00 00 00 00	 call	 ?DoubleToString@CDataConversion@@SA?AV?$CStringT@DV?$StrTraitMFC_DLL@DV?$ChTraitsCRT@D@ATL@@@@@ATL@@ABN@Z ; CDataConversion::DoubleToString
  00597	83 c4 08	 add	 esp, 8
  0059a	8b 4d dc	 mov	 ecx, DWORD PTR _this$GSCopy$1$[ebp]
  0059d	57		 push	 edi
  0059e	50		 push	 eax
  0059f	8d 45 ac	 lea	 eax, DWORD PTR _strData$15[ebp]
  005a2	c6 45 fc 17	 mov	 BYTE PTR __$EHRec$[ebp+8], 23 ; 00000017H
  005a6	8b 51 20	 mov	 edx, DWORD PTR [ecx+32]
; File D:\git\src\IBK\IBK_DRFN\ProjSrc\SrcChartEx\ChartOCX\Include_Chart\Conversion.h

; 27   : 		{	m_hOcxWnd = p_hOcxWnd;	m_eChartMode = p_eChartMode;	}

  005a9	8b 49 1c	 mov	 ecx, DWORD PTR [ecx+28]
  005ac	89 8d 8c fe ff
	ff		 mov	 DWORD PTR $T8[ebp], ecx
; File D:\git\src\IBK\IBK_DRFN\ProjSrc\SrcChartEx\ChartOCX\GraphDraw\FundDraw.cpp

; 1009 : 			CString strData = CDataConversion( m_hOcxWnd, m_eChartMode).GetStringFormatTrans(CDataConversion::DoubleToString(dataPacket->GetnumericDataList()->GetNext(dataPos)), dataPacket->GetType());

  005b2	8d 8d 8c fe ff
	ff		 lea	 ecx, DWORD PTR $T8[ebp]
  005b8	50		 push	 eax
; File D:\git\src\IBK\IBK_DRFN\ProjSrc\SrcChartEx\ChartOCX\Include_Chart\Conversion.h

; 27   : 		{	m_hOcxWnd = p_hOcxWnd;	m_eChartMode = p_eChartMode;	}

  005b9	89 95 90 fe ff
	ff		 mov	 DWORD PTR $T8[ebp+4], edx
; File D:\git\src\IBK\IBK_DRFN\ProjSrc\SrcChartEx\ChartOCX\GraphDraw\FundDraw.cpp

; 1009 : 			CString strData = CDataConversion( m_hOcxWnd, m_eChartMode).GetStringFormatTrans(CDataConversion::DoubleToString(dataPacket->GetnumericDataList()->GetNext(dataPos)), dataPacket->GetType());

  005bf	e8 00 00 00 00	 call	 ?GetStringFormatTrans@CDataConversion@@QAE?AV?$CStringT@DV?$StrTraitMFC_DLL@DV?$ChTraitsCRT@D@ATL@@@@@ATL@@ABV23@0@Z ; CDataConversion::GetStringFormatTrans
  005c4	8d 8d a0 fe ff
	ff		 lea	 ecx, DWORD PTR $T9[ebp]
  005ca	ff 15 00 00 00
	00		 call	 DWORD PTR __imp_??1?$CStringT@DV?$StrTraitMFC_DLL@DV?$ChTraitsCRT@D@ATL@@@@@ATL@@QAE@XZ
  005d0	8d 8d b4 fe ff
	ff		 lea	 ecx, DWORD PTR $T12[ebp]
  005d6	c6 45 fc 1a	 mov	 BYTE PTR __$EHRec$[ebp+8], 26 ; 0000001aH
  005da	ff 15 00 00 00
	00		 call	 DWORD PTR __imp_??1?$CStringT@DV?$StrTraitMFC_DLL@DV?$ChTraitsCRT@D@ATL@@@@@ATL@@QAE@XZ

; 1010 : 			strData.TrimRight("%");

  005e0	68 00 00 00 00	 push	 OFFSET ??_C@_01FGNFDNOH@?$CF@
  005e5	8d 4d ac	 lea	 ecx, DWORD PTR _strData$15[ebp]
  005e8	ff 15 00 00 00
	00		 call	 DWORD PTR __imp_?TrimRight@?$CStringT@DV?$StrTraitMFC_DLL@DV?$ChTraitsCRT@D@ATL@@@@@ATL@@QAEAAV12@PBD@Z

; 1011 : 
; 1012 : 			double data = atof(strData);

  005ee	ff 75 ac	 push	 DWORD PTR _strData$15[ebp]
  005f1	ff 15 00 00 00
	00		 call	 DWORD PTR __imp__atof

; 1013 : 
; 1014 : 			packetPosition.SetAt(tempPos, dataPos);

  005f7	8b 4d b4	 mov	 ecx, DWORD PTR $T20[ebp]
  005fa	8b 45 b8	 mov	 eax, DWORD PTR _dataPos$2$[ebp]

; 1015 : 			DataPt = CDataConversion::GetVerticalPoint(graphDrawingRegion, count, realWidth, dataViewMin, dataViewMax, data);

  005fd	8b 75 d0	 mov	 esi, DWORD PTR _count$1$[ebp]
  00600	6a 01		 push	 1
  00602	dd 9d 74 fe ff
	ff		 fstp	 QWORD PTR _data$5[ebp]
  00608	89 41 08	 mov	 DWORD PTR [ecx+8], eax
  0060b	8d 85 74 fe ff
	ff		 lea	 eax, DWORD PTR _data$5[ebp]
  00611	50		 push	 eax
  00612	ff b5 28 ff ff
	ff		 push	 DWORD PTR _dataViewMax$GSCopy$1$[ebp]
  00618	8d 85 98 fe ff
	ff		 lea	 eax, DWORD PTR _realWidth$[ebp]
  0061e	ff b5 24 ff ff
	ff		 push	 DWORD PTR _dataViewMin$GSCopy$1$[ebp]
  00624	50		 push	 eax
  00625	56		 push	 esi
  00626	ff 75 c8	 push	 DWORD PTR _graphDrawingRegion$GSCopy$1$[ebp]
  00629	8d 85 5c fe ff
	ff		 lea	 eax, DWORD PTR $T3[ebp]
  0062f	50		 push	 eax
  00630	e8 00 00 00 00	 call	 ?GetVerticalPoint@CDataConversion@@SA?AVCPoint@@ABVCRect@@HABN111_N@Z ; CDataConversion::GetVerticalPoint

; 1016 : 
; 1017 : 			if(data == 0)

  00635	f2 0f 10 85 74
	fe ff ff	 movsd	 xmm0, QWORD PTR _data$5[ebp]
  0063d	83 c4 24	 add	 esp, 36			; 00000024H
  00640	0f 57 c9	 xorps	 xmm1, xmm1
  00643	66 0f 2e c1	 ucomisd xmm0, xmm1
  00647	8b 48 04	 mov	 ecx, DWORD PTR [eax+4]
  0064a	8b 38		 mov	 edi, DWORD PTR [eax]
  0064c	8b 45 c8	 mov	 eax, DWORD PTR _graphDrawingRegion$GSCopy$1$[ebp]
  0064f	89 4d b8	 mov	 DWORD PTR _DataPt$1$[ebp], ecx
  00652	8b 50 0c	 mov	 edx, DWORD PTR [eax+12]
  00655	9f		 lahf
  00656	f6 c4 44	 test	 ah, 68			; 00000044H
  00659	7a 05		 jp	 SHORT $LN415@DrawCompon

; 1018 : 				DataPt.y = graphDrawingRegion.bottom;

  0065b	89 55 b8	 mov	 DWORD PTR _DataPt$1$[ebp], edx
  0065e	8b ca		 mov	 ecx, edx
$LN415@DrawCompon:

; 1019 : 			if(data != 0 && graphDrawingRegion.bottom == DataPt.y)

  00660	66 0f 2e c1	 ucomisd xmm0, xmm1
  00664	89 4d b4	 mov	 DWORD PTR $T17[ebp], ecx
  00667	9f		 lahf
  00668	f6 c4 44	 test	 ah, 68			; 00000044H
  0066b	7b 10		 jnp	 SHORT $LN18@DrawCompon
  0066d	89 4d b4	 mov	 DWORD PTR $T17[ebp], ecx
  00670	3b d1		 cmp	 edx, ecx
  00672	75 09		 jne	 SHORT $LN18@DrawCompon

; 1020 : 				DataPt.y --;

  00674	8d 41 ff	 lea	 eax, DWORD PTR [ecx-1]
  00677	89 45 b8	 mov	 DWORD PTR _DataPt$1$[ebp], eax
  0067a	89 45 b4	 mov	 DWORD PTR $T17[ebp], eax
$LN18@DrawCompon:

; 1021 : 
; 1022 : 			saveDataY = saveDataY + (graphDrawingRegion.bottom - DataPt.y);

  0067d	8b c2		 mov	 eax, edx
  0067f	0f 57 c0	 xorps	 xmm0, xmm0
  00682	2b 45 b4	 sub	 eax, DWORD PTR $T17[ebp]
  00685	01 45 a4	 add	 DWORD PTR _saveDataY$1$[ebp], eax
; File C:\Program Files (x86)\Microsoft Visual Studio\2019\Community\VC\Tools\MSVC\14.29.30133\atlmfc\include\atltypes.h

; 528  : 	left = 0;

  00688	0f 11 45 e0	 movups	 XMMWORD PTR _rect$22[ebp], xmm0
; File D:\git\src\IBK\IBK_DRFN\ProjSrc\SrcChartEx\ChartOCX\GraphDraw\FundDraw.cpp

; 1025 : 			if(count > 1){

  0068c	83 fe 01	 cmp	 esi, 1
  0068f	0f 8e 65 01 00
	00		 jle	 $LN19@DrawCompon

; 1026 : 				//displayData
; 1027 : 				//POSITION beforeDataPos = dataPacket->GetnumericDataList()->FindIndex(dataStart + count - 3);
; 1028 : 				POSITION beforeDataPos = dataPacket->GetnumericDataList()->FindIndex(dataStart + count - 2);

  00695	8b 45 a8	 mov	 eax, DWORD PTR _dataStart$GSCopy$1$[ebp]
  00698	83 c6 fe	 add	 esi, -2			; fffffffeH
  0069b	8b 4d a0	 mov	 ecx, DWORD PTR _dataPacket$1$[ebp]
  0069e	03 c6		 add	 eax, esi
  006a0	89 45 d4	 mov	 DWORD PTR tv3259[ebp], eax
  006a3	8b f0		 mov	 esi, eax
  006a5	ff 15 00 00 00
	00		 call	 DWORD PTR __imp_?GetnumericDataList@CPacket@@QAEPAV?$CList@NN@@XZ
; File C:\Program Files (x86)\Microsoft Visual Studio\2019\Community\VC\Tools\MSVC\14.29.30133\atlmfc\include\afxtempl.h

; 1133 : 	if (nIndex >= m_nCount || nIndex < 0)

  006ab	8b ce		 mov	 ecx, esi
  006ad	3b 48 0c	 cmp	 ecx, DWORD PTR [eax+12]
  006b0	7d 1a		 jge	 SHORT $LN188@DrawCompon
  006b2	85 c9		 test	 ecx, ecx
  006b4	78 16		 js	 SHORT $LN188@DrawCompon

; 1135 : 
; 1136 : 	CNode* pNode = m_pNodeHead;

  006b6	8b 40 04	 mov	 eax, DWORD PTR [eax+4]
  006b9	89 45 b4	 mov	 DWORD PTR $T19[ebp], eax

; 1137 : 	while (nIndex--)

  006bc	74 15		 je	 SHORT $LN184@DrawCompon
  006be	66 90		 npad	 2
$LL185@DrawCompon:

; 1138 : 	{
; 1139 : 		ASSERT(AfxIsValidAddress(pNode, sizeof(CNode)));
; 1140 : 		pNode = pNode->pNext;

  006c0	8b 00		 mov	 eax, DWORD PTR [eax]
  006c2	83 ee 01	 sub	 esi, 1
  006c5	75 f9		 jne	 SHORT $LL185@DrawCompon
  006c7	89 45 b4	 mov	 DWORD PTR $T19[ebp], eax

; 1141 : 	}
; 1142 : 	return (POSITION) pNode;

  006ca	eb 07		 jmp	 SHORT $LN184@DrawCompon
$LN188@DrawCompon:

; 1134 : 		return NULL;  // went too far

  006cc	c7 45 b4 00 00
	00 00		 mov	 DWORD PTR $T19[ebp], 0
$LN184@DrawCompon:
; File D:\git\src\IBK\IBK_DRFN\ProjSrc\SrcChartEx\ChartOCX\GraphDraw\FundDraw.cpp

; 1029 : 				CString beforeStrData = CDataConversion( m_hOcxWnd, m_eChartMode).GetStringFormatTrans(CDataConversion::DoubleToString(dataPacket->GetnumericDataList()->GetNext(beforeDataPos)), dataPacket->GetType());

  006d3	8b 4d a0	 mov	 ecx, DWORD PTR _dataPacket$1$[ebp]
  006d6	8d 85 ac fe ff
	ff		 lea	 eax, DWORD PTR $T10[ebp]
  006dc	6a 01		 push	 1
  006de	50		 push	 eax
  006df	ff 15 00 00 00
	00		 call	 DWORD PTR __imp_?GetType@CPacket@@QAE?AV?$CStringT@DV?$StrTraitMFC_DLL@DV?$ChTraitsCRT@D@ATL@@@@@ATL@@_N@Z
  006e5	8b f0		 mov	 esi, eax
  006e7	8b 4d a0	 mov	 ecx, DWORD PTR _dataPacket$1$[ebp]
  006ea	c6 45 fc 1b	 mov	 BYTE PTR __$EHRec$[ebp+8], 27 ; 0000001bH
  006ee	ff 15 00 00 00
	00		 call	 DWORD PTR __imp_?GetnumericDataList@CPacket@@QAEPAV?$CList@NN@@XZ
; File C:\Program Files (x86)\Microsoft Visual Studio\2019\Community\VC\Tools\MSVC\14.29.30133\atlmfc\include\afxtempl.h

; 814  : 		return pNode->data; }

  006f4	8b 4d b4	 mov	 ecx, DWORD PTR $T19[ebp]
; File D:\git\src\IBK\IBK_DRFN\ProjSrc\SrcChartEx\ChartOCX\GraphDraw\FundDraw.cpp

; 1029 : 				CString beforeStrData = CDataConversion( m_hOcxWnd, m_eChartMode).GetStringFormatTrans(CDataConversion::DoubleToString(dataPacket->GetnumericDataList()->GetNext(beforeDataPos)), dataPacket->GetType());

  006f7	8d 85 b0 fe ff
	ff		 lea	 eax, DWORD PTR $T11[ebp]
; File C:\Program Files (x86)\Microsoft Visual Studio\2019\Community\VC\Tools\MSVC\14.29.30133\atlmfc\include\afxtempl.h

; 814  : 		return pNode->data; }

  006fd	83 c1 08	 add	 ecx, 8
; File D:\git\src\IBK\IBK_DRFN\ProjSrc\SrcChartEx\ChartOCX\GraphDraw\FundDraw.cpp

; 1029 : 				CString beforeStrData = CDataConversion( m_hOcxWnd, m_eChartMode).GetStringFormatTrans(CDataConversion::DoubleToString(dataPacket->GetnumericDataList()->GetNext(beforeDataPos)), dataPacket->GetType());

  00700	51		 push	 ecx
  00701	50		 push	 eax
  00702	e8 00 00 00 00	 call	 ?DoubleToString@CDataConversion@@SA?AV?$CStringT@DV?$StrTraitMFC_DLL@DV?$ChTraitsCRT@D@ATL@@@@@ATL@@ABN@Z ; CDataConversion::DoubleToString
  00707	83 c4 08	 add	 esp, 8
  0070a	8b 4d dc	 mov	 ecx, DWORD PTR _this$GSCopy$1$[ebp]
  0070d	56		 push	 esi
  0070e	50		 push	 eax
  0070f	8d 45 94	 lea	 eax, DWORD PTR _beforeStrData$13[ebp]
  00712	c6 45 fc 1c	 mov	 BYTE PTR __$EHRec$[ebp+8], 28 ; 0000001cH
  00716	8b 51 20	 mov	 edx, DWORD PTR [ecx+32]
; File D:\git\src\IBK\IBK_DRFN\ProjSrc\SrcChartEx\ChartOCX\Include_Chart\Conversion.h

; 27   : 		{	m_hOcxWnd = p_hOcxWnd;	m_eChartMode = p_eChartMode;	}

  00719	8b 49 1c	 mov	 ecx, DWORD PTR [ecx+28]
  0071c	89 8d 84 fe ff
	ff		 mov	 DWORD PTR $T7[ebp], ecx
; File D:\git\src\IBK\IBK_DRFN\ProjSrc\SrcChartEx\ChartOCX\GraphDraw\FundDraw.cpp

; 1029 : 				CString beforeStrData = CDataConversion( m_hOcxWnd, m_eChartMode).GetStringFormatTrans(CDataConversion::DoubleToString(dataPacket->GetnumericDataList()->GetNext(beforeDataPos)), dataPacket->GetType());

  00722	8d 8d 84 fe ff
	ff		 lea	 ecx, DWORD PTR $T7[ebp]
  00728	50		 push	 eax
; File D:\git\src\IBK\IBK_DRFN\ProjSrc\SrcChartEx\ChartOCX\Include_Chart\Conversion.h

; 27   : 		{	m_hOcxWnd = p_hOcxWnd;	m_eChartMode = p_eChartMode;	}

  00729	89 95 88 fe ff
	ff		 mov	 DWORD PTR $T7[ebp+4], edx
; File D:\git\src\IBK\IBK_DRFN\ProjSrc\SrcChartEx\ChartOCX\GraphDraw\FundDraw.cpp

; 1029 : 				CString beforeStrData = CDataConversion( m_hOcxWnd, m_eChartMode).GetStringFormatTrans(CDataConversion::DoubleToString(dataPacket->GetnumericDataList()->GetNext(beforeDataPos)), dataPacket->GetType());

  0072f	e8 00 00 00 00	 call	 ?GetStringFormatTrans@CDataConversion@@QAE?AV?$CStringT@DV?$StrTraitMFC_DLL@DV?$ChTraitsCRT@D@ATL@@@@@ATL@@ABV23@0@Z ; CDataConversion::GetStringFormatTrans
  00734	8d 8d b0 fe ff
	ff		 lea	 ecx, DWORD PTR $T11[ebp]
  0073a	ff 15 00 00 00
	00		 call	 DWORD PTR __imp_??1?$CStringT@DV?$StrTraitMFC_DLL@DV?$ChTraitsCRT@D@ATL@@@@@ATL@@QAE@XZ
  00740	8d 8d ac fe ff
	ff		 lea	 ecx, DWORD PTR $T10[ebp]
  00746	c6 45 fc 1f	 mov	 BYTE PTR __$EHRec$[ebp+8], 31 ; 0000001fH
  0074a	ff 15 00 00 00
	00		 call	 DWORD PTR __imp_??1?$CStringT@DV?$StrTraitMFC_DLL@DV?$ChTraitsCRT@D@ATL@@@@@ATL@@QAE@XZ

; 1030 : 				beforeStrData.TrimRight("%");

  00750	68 00 00 00 00	 push	 OFFSET ??_C@_01FGNFDNOH@?$CF@
  00755	8d 4d 94	 lea	 ecx, DWORD PTR _beforeStrData$13[ebp]
  00758	ff 15 00 00 00
	00		 call	 DWORD PTR __imp_?TrimRight@?$CStringT@DV?$StrTraitMFC_DLL@DV?$ChTraitsCRT@D@ATL@@@@@ATL@@QAEAAV12@PBD@Z

; 1031 : 
; 1032 : 				double beforeData = atof(beforeStrData);

  0075e	ff 75 94	 push	 DWORD PTR _beforeStrData$13[ebp]
  00761	ff 15 00 00 00
	00		 call	 DWORD PTR __imp__atof

; 1033 : 				beforeDataPt = CDataConversion::GetVerticalPoint(graphDrawingRegion, count-1, realWidth, dataViewMin, dataViewMax, beforeData);

  00767	8b 75 c8	 mov	 esi, DWORD PTR _graphDrawingRegion$GSCopy$1$[ebp]
  0076a	8d 85 7c fe ff
	ff		 lea	 eax, DWORD PTR _beforeData$6[ebp]
  00770	6a 01		 push	 1
  00772	50		 push	 eax
  00773	ff b5 28 ff ff
	ff		 push	 DWORD PTR _dataViewMax$GSCopy$1$[ebp]
  00779	8d 85 98 fe ff
	ff		 lea	 eax, DWORD PTR _realWidth$[ebp]
  0077f	ff b5 24 ff ff
	ff		 push	 DWORD PTR _dataViewMin$GSCopy$1$[ebp]
  00785	dd 9d 7c fe ff
	ff		 fstp	 QWORD PTR _beforeData$6[ebp]
  0078b	50		 push	 eax
  0078c	8b 45 d4	 mov	 eax, DWORD PTR tv3259[ebp]
  0078f	03 85 a8 fe ff
	ff		 add	 eax, DWORD PTR tv3262[ebp]
  00795	50		 push	 eax
  00796	8d 85 54 fe ff
	ff		 lea	 eax, DWORD PTR $T2[ebp]
  0079c	56		 push	 esi
  0079d	50		 push	 eax
  0079e	e8 00 00 00 00	 call	 ?GetVerticalPoint@CDataConversion@@SA?AVCPoint@@ABVCRect@@HABN111_N@Z ; CDataConversion::GetVerticalPoint

; 1034 : 				if(beforeData == 0)

  007a3	f2 0f 10 85 7c
	fe ff ff	 movsd	 xmm0, QWORD PTR _beforeData$6[ebp]
  007ab	83 c4 24	 add	 esp, 36			; 00000024H
  007ae	8b 56 0c	 mov	 edx, DWORD PTR [esi+12]
  007b1	0f 57 c9	 xorps	 xmm1, xmm1
  007b4	66 0f 2e c1	 ucomisd xmm0, xmm1
  007b8	8b 08		 mov	 ecx, DWORD PTR [eax]
  007ba	89 4d d4	 mov	 DWORD PTR _beforeDataPt$1$[ebp], ecx
  007bd	8b 48 04	 mov	 ecx, DWORD PTR [eax+4]
  007c0	89 4d b4	 mov	 DWORD PTR _beforeDataPt$16[ebp+4], ecx
  007c3	9f		 lahf
  007c4	f6 c4 44	 test	 ah, 68			; 00000044H
  007c7	0f 4b ca	 cmovnp	 ecx, edx

; 1035 : 					beforeDataPt.y = graphDrawingRegion.bottom;
; 1036 : 				if(beforeData != 0 && graphDrawingRegion.bottom == beforeDataPt.y)

  007ca	66 0f 2e c1	 ucomisd xmm0, xmm1
  007ce	89 4d b4	 mov	 DWORD PTR $T18[ebp], ecx
  007d1	9f		 lahf
  007d2	f6 c4 44	 test	 ah, 68			; 00000044H
  007d5	7b 0b		 jnp	 SHORT $LN437@DrawCompon
  007d7	8b c1		 mov	 eax, ecx
  007d9	3b d1		 cmp	 edx, ecx
  007db	75 08		 jne	 SHORT $LN21@DrawCompon

; 1037 : 					beforeDataPt.y --;

  007dd	8d 41 ff	 lea	 eax, DWORD PTR [ecx-1]
  007e0	eb 03		 jmp	 SHORT $LN21@DrawCompon
$LN437@DrawCompon:

; 1035 : 					beforeDataPt.y = graphDrawingRegion.bottom;
; 1036 : 				if(beforeData != 0 && graphDrawingRegion.bottom == beforeDataPt.y)

  007e2	8b 45 b4	 mov	 eax, DWORD PTR $T18[ebp]
$LN21@DrawCompon:

; 1038 : 
; 1039 : 				linePt = linePt + (graphDrawingRegion.bottom - beforeDataPt.y);

  007e5	2b d0		 sub	 edx, eax

; 1040 : 			}

  007e7	c6 45 fc 1a	 mov	 BYTE PTR __$EHRec$[ebp+8], 26 ; 0000001aH
  007eb	01 55 c0	 add	 DWORD PTR _linePt$1$[ebp], edx
  007ee	8d 4d 94	 lea	 ecx, DWORD PTR _beforeStrData$13[ebp]
  007f1	ff 15 00 00 00
	00		 call	 DWORD PTR __imp_??1?$CStringT@DV?$StrTraitMFC_DLL@DV?$ChTraitsCRT@D@ATL@@@@@ATL@@QAE@XZ
  007f7	8b 56 0c	 mov	 edx, DWORD PTR [esi+12]
$LN19@DrawCompon:

; 1041 : 			//============================================================================================
; 1042 : 			
; 1043 : 			if(j == 0)

  007fa	8b 45 cc	 mov	 eax, DWORD PTR _lineThickness$1$[ebp]
  007fd	8b 75 98	 mov	 esi, DWORD PTR _j$1$[ebp]
  00800	03 c7		 add	 eax, edi
  00802	2b bd 20 ff ff
	ff		 sub	 edi, DWORD PTR tv3265[ebp]
  00808	03 45 c4	 add	 eax, DWORD PTR _bongWidth$3$[ebp]
  0080b	2b 7d c4	 sub	 edi, DWORD PTR _bongWidth$3$[ebp]
  0080e	85 f6		 test	 esi, esi
  00810	75 34		 jne	 SHORT $LN22@DrawCompon
; File C:\Program Files (x86)\Microsoft Visual Studio\2019\Community\VC\Tools\MSVC\14.29.30133\atlmfc\include\atltypes.h

; 541  : 	top = t;

  00812	8b 4d b8	 mov	 ecx, DWORD PTR _DataPt$1$[ebp]
  00815	89 bd 64 fe ff
	ff		 mov	 DWORD PTR $T4[ebp], edi
; File D:\git\src\IBK\IBK_DRFN\ProjSrc\SrcChartEx\ChartOCX\GraphDraw\FundDraw.cpp

; 1044 : 				rect = CRect(DataPt.x - bongWidth - lineThickness/2, DataPt.y, DataPt.x + bongWidth + lineThickness, graphDrawingRegion.bottom);

  0081b	8b 7d a4	 mov	 edi, DWORD PTR _saveDataY$1$[ebp]
; File C:\Program Files (x86)\Microsoft Visual Studio\2019\Community\VC\Tools\MSVC\14.29.30133\atlmfc\include\atltypes.h

; 542  : 	right = r;

  0081e	89 85 6c fe ff
	ff		 mov	 DWORD PTR $T4[ebp+8], eax
; File D:\git\src\IBK\IBK_DRFN\ProjSrc\SrcChartEx\ChartOCX\GraphDraw\FundDraw.cpp

; 1044 : 				rect = CRect(DataPt.x - bongWidth - lineThickness/2, DataPt.y, DataPt.x + bongWidth + lineThickness, graphDrawingRegion.bottom);

  00824	8d 46 01	 lea	 eax, DWORD PTR [esi+1]
; File C:\Program Files (x86)\Microsoft Visual Studio\2019\Community\VC\Tools\MSVC\14.29.30133\atlmfc\include\atltypes.h

; 541  : 	top = t;

  00827	89 8d 68 fe ff
	ff		 mov	 DWORD PTR $T4[ebp+4], ecx

; 543  : 	bottom = b;

  0082d	89 95 70 fe ff
	ff		 mov	 DWORD PTR $T4[ebp+12], edx
; File D:\git\src\IBK\IBK_DRFN\ProjSrc\SrcChartEx\ChartOCX\GraphDraw\FundDraw.cpp

; 1044 : 				rect = CRect(DataPt.x - bongWidth - lineThickness/2, DataPt.y, DataPt.x + bongWidth + lineThickness, graphDrawingRegion.bottom);

  00833	0f 10 85 64 fe
	ff ff		 movups	 xmm0, XMMWORD PTR $T4[ebp]
  0083a	89 7d 9c	 mov	 DWORD PTR _beforeDataY$14[ebp], edi
  0083d	89 45 b8	 mov	 DWORD PTR tv3261[ebp], eax
  00840	0f 11 45 e0	 movups	 XMMWORD PTR _rect$22[ebp], xmm0
  00844	eb 3a		 jmp	 SHORT $LN425@DrawCompon
$LN22@DrawCompon:

; 1045 : 			else
; 1046 : 				rect = CRect(DataPt.x - bongWidth - lineThickness/2, graphDrawingRegion.bottom - saveDataY, DataPt.x + bongWidth + lineThickness, graphDrawingRegion.bottom - beforeDataY);

  00846	89 45 e8	 mov	 DWORD PTR _rect$22[ebp+8], eax
  00849	8b ca		 mov	 ecx, edx
  0084b	2b 4d 9c	 sub	 ecx, DWORD PTR _beforeDataY$14[ebp]
  0084e	2b 55 a4	 sub	 edx, DWORD PTR _saveDataY$1$[ebp]

; 1047 : 				
; 1048 : 			beforeDataY	= saveDataY;

  00851	8b 45 a4	 mov	 eax, DWORD PTR _saveDataY$1$[ebp]
  00854	89 45 9c	 mov	 DWORD PTR _beforeDataY$14[ebp], eax

; 1049 : 			
; 1050 : 			int selectBrush = (j+1) - (brushCount * ((j+1)/ brushCount));

  00857	b8 67 66 66 66	 mov	 eax, 1717986919		; 66666667H
  0085c	89 4d ec	 mov	 DWORD PTR _rect$22[ebp+12], ecx
  0085f	8d 4e 01	 lea	 ecx, DWORD PTR [esi+1]
  00862	89 55 e4	 mov	 DWORD PTR _rect$22[ebp+4], edx
  00865	f7 e9		 imul	 ecx
  00867	89 7d e0	 mov	 DWORD PTR _rect$22[ebp], edi
  0086a	c1 fa 02	 sar	 edx, 2
  0086d	8b c2		 mov	 eax, edx
  0086f	89 4d b8	 mov	 DWORD PTR tv3261[ebp], ecx
  00872	c1 e8 1f	 shr	 eax, 31			; 0000001fH
  00875	03 c2		 add	 eax, edx
  00877	8d 04 80	 lea	 eax, DWORD PTR [eax+eax*4]
  0087a	03 c0		 add	 eax, eax
  0087c	2b f0		 sub	 esi, eax

; 1051 : 				
; 1052 : 			if(selectBrush == 1){

  0087e	75 53		 jne	 SHORT $LN24@DrawCompon
$LN425@DrawCompon:

; 1053 : 				if(count > 1){

  00880	83 7d d0 01	 cmp	 DWORD PTR _count$1$[ebp], 1
  00884	8b 75 d8	 mov	 esi, DWORD PTR _pDC$GSCopy$1$[ebp]
  00887	7e 32		 jle	 SHORT $LN436@DrawCompon

; 1054 : 					pDC->SelectObject(&pen1);

  00889	8d 85 38 ff ff
	ff		 lea	 eax, DWORD PTR _pen1$[ebp]
  0088f	8b ce		 mov	 ecx, esi
  00891	50		 push	 eax
  00892	e8 00 00 00 00	 call	 ?SelectObject@CDC@@QAEPAVCPen@@PAV2@@Z ; CDC::SelectObject

; 1055 : 					CDraw::DrawLine(pDC, CPoint(beforeDataPt.x + bongWidth, graphDrawingRegion.bottom - linePt), CPoint(rect.left, rect.top));

  00897	8b 45 c8	 mov	 eax, DWORD PTR _graphDrawingRegion$GSCopy$1$[ebp]
  0089a	ff 75 e4	 push	 DWORD PTR _rect$22[ebp+4]
  0089d	8b 7d dc	 mov	 edi, DWORD PTR _this$GSCopy$1$[ebp]
  008a0	ff 75 e0	 push	 DWORD PTR _rect$22[ebp]
  008a3	8b 48 0c	 mov	 ecx, DWORD PTR [eax+12]
  008a6	2b 4d c0	 sub	 ecx, DWORD PTR _linePt$1$[ebp]
  008a9	8b 45 c4	 mov	 eax, DWORD PTR _bongWidth$3$[ebp]
  008ac	03 45 d4	 add	 eax, DWORD PTR _beforeDataPt$1$[ebp]
  008af	51		 push	 ecx
  008b0	50		 push	 eax
  008b1	56		 push	 esi
  008b2	8b cf		 mov	 ecx, edi
  008b4	e8 00 00 00 00	 call	 ?DrawLine@CDraw@@IAEXPAVCDC@@UtagPOINT@@1@Z ; CDraw::DrawLine
  008b9	eb 03		 jmp	 SHORT $LN26@DrawCompon
$LN436@DrawCompon:

; 1053 : 				if(count > 1){

  008bb	8b 7d dc	 mov	 edi, DWORD PTR _this$GSCopy$1$[ebp]
$LN26@DrawCompon:
; File C:\Program Files (x86)\Microsoft Visual Studio\2019\Community\VC\Tools\MSVC\14.29.30133\atlmfc\include\afxwin1.inl

; 476  : 	{ ASSERT(m_hDC != NULL); ::FillRect(m_hDC, lpRect, (HBRUSH)pBrush->GetSafeHandle()); }

  008be	ff 75 84	 push	 DWORD PTR _firstBrush$[ebp+4]
  008c1	8d 45 e0	 lea	 eax, DWORD PTR _rect$22[ebp]
  008c4	50		 push	 eax
  008c5	ff 76 04	 push	 DWORD PTR [esi+4]
  008c8	ff 15 00 00 00
	00		 call	 DWORD PTR __imp__FillRect@12
; File D:\git\src\IBK\IBK_DRFN\ProjSrc\SrcChartEx\ChartOCX\GraphDraw\FundDraw.cpp

; 1058 : 			}

  008ce	e9 40 03 00 00	 jmp	 $LN52@DrawCompon
$LN24@DrawCompon:

; 1059 : 			else if(selectBrush == 2){	

  008d3	83 fe 01	 cmp	 esi, 1
  008d6	75 56		 jne	 SHORT $LN27@DrawCompon

; 1060 : 				if(count > 1){

  008d8	83 7d d0 01	 cmp	 DWORD PTR _count$1$[ebp], 1
  008dc	8b 75 d8	 mov	 esi, DWORD PTR _pDC$GSCopy$1$[ebp]
  008df	7e 32		 jle	 SHORT $LN435@DrawCompon

; 1061 : 					pDC->SelectObject(&pen2);

  008e1	8d 85 40 ff ff
	ff		 lea	 eax, DWORD PTR _pen2$[ebp]
  008e7	8b ce		 mov	 ecx, esi
  008e9	50		 push	 eax
  008ea	e8 00 00 00 00	 call	 ?SelectObject@CDC@@QAEPAVCPen@@PAV2@@Z ; CDC::SelectObject

; 1062 : 					CDraw::DrawLine(pDC, CPoint(beforeDataPt.x + bongWidth, graphDrawingRegion.bottom - linePt), CPoint(rect.left, rect.top));

  008ef	8b 45 c8	 mov	 eax, DWORD PTR _graphDrawingRegion$GSCopy$1$[ebp]
  008f2	ff 75 e4	 push	 DWORD PTR _rect$22[ebp+4]
  008f5	8b 7d dc	 mov	 edi, DWORD PTR _this$GSCopy$1$[ebp]
  008f8	ff 75 e0	 push	 DWORD PTR _rect$22[ebp]
  008fb	8b 48 0c	 mov	 ecx, DWORD PTR [eax+12]
  008fe	2b 4d c0	 sub	 ecx, DWORD PTR _linePt$1$[ebp]
  00901	8b 45 c4	 mov	 eax, DWORD PTR _bongWidth$3$[ebp]
  00904	03 45 d4	 add	 eax, DWORD PTR _beforeDataPt$1$[ebp]
  00907	51		 push	 ecx
  00908	50		 push	 eax
  00909	56		 push	 esi
  0090a	8b cf		 mov	 ecx, edi
  0090c	e8 00 00 00 00	 call	 ?DrawLine@CDraw@@IAEXPAVCDC@@UtagPOINT@@1@Z ; CDraw::DrawLine
  00911	eb 03		 jmp	 SHORT $LN29@DrawCompon
$LN435@DrawCompon:

; 1060 : 				if(count > 1){

  00913	8b 7d dc	 mov	 edi, DWORD PTR _this$GSCopy$1$[ebp]
$LN29@DrawCompon:
; File C:\Program Files (x86)\Microsoft Visual Studio\2019\Community\VC\Tools\MSVC\14.29.30133\atlmfc\include\afxwin1.inl

; 476  : 	{ ASSERT(m_hDC != NULL); ::FillRect(m_hDC, lpRect, (HBRUSH)pBrush->GetSafeHandle()); }

  00916	ff b5 dc fe ff
	ff		 push	 DWORD PTR _secondBrush$[ebp+4]
  0091c	8d 45 e0	 lea	 eax, DWORD PTR _rect$22[ebp]
  0091f	50		 push	 eax
  00920	ff 76 04	 push	 DWORD PTR [esi+4]
  00923	ff 15 00 00 00
	00		 call	 DWORD PTR __imp__FillRect@12
; File D:\git\src\IBK\IBK_DRFN\ProjSrc\SrcChartEx\ChartOCX\GraphDraw\FundDraw.cpp

; 1065 : 			}

  00929	e9 e5 02 00 00	 jmp	 $LN52@DrawCompon
$LN27@DrawCompon:

; 1066 : 			else if(selectBrush == 3){

  0092e	83 fe 02	 cmp	 esi, 2
  00931	75 56		 jne	 SHORT $LN30@DrawCompon

; 1067 : 				if(count > 1){

  00933	83 7d d0 01	 cmp	 DWORD PTR _count$1$[ebp], 1
  00937	8b 75 d8	 mov	 esi, DWORD PTR _pDC$GSCopy$1$[ebp]
  0093a	7e 32		 jle	 SHORT $LN434@DrawCompon

; 1068 : 					pDC->SelectObject(&pen3);

  0093c	8d 85 48 ff ff
	ff		 lea	 eax, DWORD PTR _pen3$[ebp]
  00942	8b ce		 mov	 ecx, esi
  00944	50		 push	 eax
  00945	e8 00 00 00 00	 call	 ?SelectObject@CDC@@QAEPAVCPen@@PAV2@@Z ; CDC::SelectObject

; 1069 : 					CDraw::DrawLine(pDC, CPoint(beforeDataPt.x + bongWidth, graphDrawingRegion.bottom - linePt), CPoint(rect.left, rect.top));

  0094a	8b 45 c8	 mov	 eax, DWORD PTR _graphDrawingRegion$GSCopy$1$[ebp]
  0094d	ff 75 e4	 push	 DWORD PTR _rect$22[ebp+4]
  00950	8b 7d dc	 mov	 edi, DWORD PTR _this$GSCopy$1$[ebp]
  00953	ff 75 e0	 push	 DWORD PTR _rect$22[ebp]
  00956	8b 48 0c	 mov	 ecx, DWORD PTR [eax+12]
  00959	2b 4d c0	 sub	 ecx, DWORD PTR _linePt$1$[ebp]
  0095c	8b 45 c4	 mov	 eax, DWORD PTR _bongWidth$3$[ebp]
  0095f	03 45 d4	 add	 eax, DWORD PTR _beforeDataPt$1$[ebp]
  00962	51		 push	 ecx
  00963	50		 push	 eax
  00964	56		 push	 esi
  00965	8b cf		 mov	 ecx, edi
  00967	e8 00 00 00 00	 call	 ?DrawLine@CDraw@@IAEXPAVCDC@@UtagPOINT@@1@Z ; CDraw::DrawLine
  0096c	eb 03		 jmp	 SHORT $LN32@DrawCompon
$LN434@DrawCompon:

; 1067 : 				if(count > 1){

  0096e	8b 7d dc	 mov	 edi, DWORD PTR _this$GSCopy$1$[ebp]
$LN32@DrawCompon:
; File C:\Program Files (x86)\Microsoft Visual Studio\2019\Community\VC\Tools\MSVC\14.29.30133\atlmfc\include\afxwin1.inl

; 476  : 	{ ASSERT(m_hDC != NULL); ::FillRect(m_hDC, lpRect, (HBRUSH)pBrush->GetSafeHandle()); }

  00971	ff b5 e4 fe ff
	ff		 push	 DWORD PTR _thirdBrush$[ebp+4]
  00977	8d 45 e0	 lea	 eax, DWORD PTR _rect$22[ebp]
  0097a	50		 push	 eax
  0097b	ff 76 04	 push	 DWORD PTR [esi+4]
  0097e	ff 15 00 00 00
	00		 call	 DWORD PTR __imp__FillRect@12
; File D:\git\src\IBK\IBK_DRFN\ProjSrc\SrcChartEx\ChartOCX\GraphDraw\FundDraw.cpp

; 1072 : 			}

  00984	e9 8a 02 00 00	 jmp	 $LN52@DrawCompon
$LN30@DrawCompon:

; 1073 : 			else if(selectBrush == 4){

  00989	83 fe 03	 cmp	 esi, 3
  0098c	75 56		 jne	 SHORT $LN33@DrawCompon

; 1074 : 				if(count > 1){

  0098e	83 7d d0 01	 cmp	 DWORD PTR _count$1$[ebp], 1
  00992	8b 75 d8	 mov	 esi, DWORD PTR _pDC$GSCopy$1$[ebp]
  00995	7e 32		 jle	 SHORT $LN433@DrawCompon

; 1075 : 					pDC->SelectObject(&pen4);

  00997	8d 85 50 ff ff
	ff		 lea	 eax, DWORD PTR _pen4$[ebp]
  0099d	8b ce		 mov	 ecx, esi
  0099f	50		 push	 eax
  009a0	e8 00 00 00 00	 call	 ?SelectObject@CDC@@QAEPAVCPen@@PAV2@@Z ; CDC::SelectObject

; 1076 : 					CDraw::DrawLine(pDC, CPoint(beforeDataPt.x + bongWidth, graphDrawingRegion.bottom - linePt), CPoint(rect.left, rect.top));

  009a5	8b 45 c8	 mov	 eax, DWORD PTR _graphDrawingRegion$GSCopy$1$[ebp]
  009a8	ff 75 e4	 push	 DWORD PTR _rect$22[ebp+4]
  009ab	8b 7d dc	 mov	 edi, DWORD PTR _this$GSCopy$1$[ebp]
  009ae	ff 75 e0	 push	 DWORD PTR _rect$22[ebp]
  009b1	8b 48 0c	 mov	 ecx, DWORD PTR [eax+12]
  009b4	2b 4d c0	 sub	 ecx, DWORD PTR _linePt$1$[ebp]
  009b7	8b 45 c4	 mov	 eax, DWORD PTR _bongWidth$3$[ebp]
  009ba	03 45 d4	 add	 eax, DWORD PTR _beforeDataPt$1$[ebp]
  009bd	51		 push	 ecx
  009be	50		 push	 eax
  009bf	56		 push	 esi
  009c0	8b cf		 mov	 ecx, edi
  009c2	e8 00 00 00 00	 call	 ?DrawLine@CDraw@@IAEXPAVCDC@@UtagPOINT@@1@Z ; CDraw::DrawLine
  009c7	eb 03		 jmp	 SHORT $LN35@DrawCompon
$LN433@DrawCompon:

; 1074 : 				if(count > 1){

  009c9	8b 7d dc	 mov	 edi, DWORD PTR _this$GSCopy$1$[ebp]
$LN35@DrawCompon:
; File C:\Program Files (x86)\Microsoft Visual Studio\2019\Community\VC\Tools\MSVC\14.29.30133\atlmfc\include\afxwin1.inl

; 476  : 	{ ASSERT(m_hDC != NULL); ::FillRect(m_hDC, lpRect, (HBRUSH)pBrush->GetSafeHandle()); }

  009cc	ff b5 ec fe ff
	ff		 push	 DWORD PTR _fourBrush$[ebp+4]
  009d2	8d 45 e0	 lea	 eax, DWORD PTR _rect$22[ebp]
  009d5	50		 push	 eax
  009d6	ff 76 04	 push	 DWORD PTR [esi+4]
  009d9	ff 15 00 00 00
	00		 call	 DWORD PTR __imp__FillRect@12
; File D:\git\src\IBK\IBK_DRFN\ProjSrc\SrcChartEx\ChartOCX\GraphDraw\FundDraw.cpp

; 1079 : 			}

  009df	e9 2f 02 00 00	 jmp	 $LN52@DrawCompon
$LN33@DrawCompon:

; 1080 : 			else if(selectBrush == 5){

  009e4	83 fe 04	 cmp	 esi, 4
  009e7	75 56		 jne	 SHORT $LN36@DrawCompon

; 1081 : 				if(count > 1){

  009e9	83 7d d0 01	 cmp	 DWORD PTR _count$1$[ebp], 1
  009ed	8b 75 d8	 mov	 esi, DWORD PTR _pDC$GSCopy$1$[ebp]
  009f0	7e 32		 jle	 SHORT $LN432@DrawCompon

; 1082 : 					pDC->SelectObject(&pen5);

  009f2	8d 85 30 ff ff
	ff		 lea	 eax, DWORD PTR _pen5$[ebp]
  009f8	8b ce		 mov	 ecx, esi
  009fa	50		 push	 eax
  009fb	e8 00 00 00 00	 call	 ?SelectObject@CDC@@QAEPAVCPen@@PAV2@@Z ; CDC::SelectObject

; 1083 : 					CDraw::DrawLine(pDC, CPoint(beforeDataPt.x + bongWidth, graphDrawingRegion.bottom - linePt), CPoint(rect.left, rect.top));

  00a00	8b 45 c8	 mov	 eax, DWORD PTR _graphDrawingRegion$GSCopy$1$[ebp]
  00a03	ff 75 e4	 push	 DWORD PTR _rect$22[ebp+4]
  00a06	8b 7d dc	 mov	 edi, DWORD PTR _this$GSCopy$1$[ebp]
  00a09	ff 75 e0	 push	 DWORD PTR _rect$22[ebp]
  00a0c	8b 48 0c	 mov	 ecx, DWORD PTR [eax+12]
  00a0f	2b 4d c0	 sub	 ecx, DWORD PTR _linePt$1$[ebp]
  00a12	8b 45 c4	 mov	 eax, DWORD PTR _bongWidth$3$[ebp]
  00a15	03 45 d4	 add	 eax, DWORD PTR _beforeDataPt$1$[ebp]
  00a18	51		 push	 ecx
  00a19	50		 push	 eax
  00a1a	56		 push	 esi
  00a1b	8b cf		 mov	 ecx, edi
  00a1d	e8 00 00 00 00	 call	 ?DrawLine@CDraw@@IAEXPAVCDC@@UtagPOINT@@1@Z ; CDraw::DrawLine
  00a22	eb 03		 jmp	 SHORT $LN38@DrawCompon
$LN432@DrawCompon:

; 1081 : 				if(count > 1){

  00a24	8b 7d dc	 mov	 edi, DWORD PTR _this$GSCopy$1$[ebp]
$LN38@DrawCompon:
; File C:\Program Files (x86)\Microsoft Visual Studio\2019\Community\VC\Tools\MSVC\14.29.30133\atlmfc\include\afxwin1.inl

; 476  : 	{ ASSERT(m_hDC != NULL); ::FillRect(m_hDC, lpRect, (HBRUSH)pBrush->GetSafeHandle()); }

  00a27	ff b5 f4 fe ff
	ff		 push	 DWORD PTR _fiveBrush$[ebp+4]
  00a2d	8d 45 e0	 lea	 eax, DWORD PTR _rect$22[ebp]
  00a30	50		 push	 eax
  00a31	ff 76 04	 push	 DWORD PTR [esi+4]
  00a34	ff 15 00 00 00
	00		 call	 DWORD PTR __imp__FillRect@12
; File D:\git\src\IBK\IBK_DRFN\ProjSrc\SrcChartEx\ChartOCX\GraphDraw\FundDraw.cpp

; 1086 : 			}

  00a3a	e9 d4 01 00 00	 jmp	 $LN52@DrawCompon
$LN36@DrawCompon:

; 1087 : 			else if(selectBrush == 6){

  00a3f	83 fe 05	 cmp	 esi, 5
  00a42	75 56		 jne	 SHORT $LN39@DrawCompon

; 1088 : 				if(count > 1){

  00a44	83 7d d0 01	 cmp	 DWORD PTR _count$1$[ebp], 1
  00a48	8b 75 d8	 mov	 esi, DWORD PTR _pDC$GSCopy$1$[ebp]
  00a4b	7e 32		 jle	 SHORT $LN431@DrawCompon

; 1089 : 					pDC->SelectObject(&pen6);

  00a4d	8d 85 58 ff ff
	ff		 lea	 eax, DWORD PTR _pen6$[ebp]
  00a53	8b ce		 mov	 ecx, esi
  00a55	50		 push	 eax
  00a56	e8 00 00 00 00	 call	 ?SelectObject@CDC@@QAEPAVCPen@@PAV2@@Z ; CDC::SelectObject

; 1090 : 					CDraw::DrawLine(pDC, CPoint(beforeDataPt.x + bongWidth, graphDrawingRegion.bottom - linePt), CPoint(rect.left, rect.top));

  00a5b	8b 45 c8	 mov	 eax, DWORD PTR _graphDrawingRegion$GSCopy$1$[ebp]
  00a5e	ff 75 e4	 push	 DWORD PTR _rect$22[ebp+4]
  00a61	8b 7d dc	 mov	 edi, DWORD PTR _this$GSCopy$1$[ebp]
  00a64	ff 75 e0	 push	 DWORD PTR _rect$22[ebp]
  00a67	8b 48 0c	 mov	 ecx, DWORD PTR [eax+12]
  00a6a	2b 4d c0	 sub	 ecx, DWORD PTR _linePt$1$[ebp]
  00a6d	8b 45 c4	 mov	 eax, DWORD PTR _bongWidth$3$[ebp]
  00a70	03 45 d4	 add	 eax, DWORD PTR _beforeDataPt$1$[ebp]
  00a73	51		 push	 ecx
  00a74	50		 push	 eax
  00a75	56		 push	 esi
  00a76	8b cf		 mov	 ecx, edi
  00a78	e8 00 00 00 00	 call	 ?DrawLine@CDraw@@IAEXPAVCDC@@UtagPOINT@@1@Z ; CDraw::DrawLine
  00a7d	eb 03		 jmp	 SHORT $LN41@DrawCompon
$LN431@DrawCompon:

; 1088 : 				if(count > 1){

  00a7f	8b 7d dc	 mov	 edi, DWORD PTR _this$GSCopy$1$[ebp]
$LN41@DrawCompon:
; File C:\Program Files (x86)\Microsoft Visual Studio\2019\Community\VC\Tools\MSVC\14.29.30133\atlmfc\include\afxwin1.inl

; 476  : 	{ ASSERT(m_hDC != NULL); ::FillRect(m_hDC, lpRect, (HBRUSH)pBrush->GetSafeHandle()); }

  00a82	ff b5 fc fe ff
	ff		 push	 DWORD PTR _sixBrush$[ebp+4]
  00a88	8d 45 e0	 lea	 eax, DWORD PTR _rect$22[ebp]
  00a8b	50		 push	 eax
  00a8c	ff 76 04	 push	 DWORD PTR [esi+4]
  00a8f	ff 15 00 00 00
	00		 call	 DWORD PTR __imp__FillRect@12
; File D:\git\src\IBK\IBK_DRFN\ProjSrc\SrcChartEx\ChartOCX\GraphDraw\FundDraw.cpp

; 1093 : 			}

  00a95	e9 79 01 00 00	 jmp	 $LN52@DrawCompon
$LN39@DrawCompon:

; 1094 : 			else if(selectBrush == 7){

  00a9a	83 fe 06	 cmp	 esi, 6
  00a9d	75 56		 jne	 SHORT $LN42@DrawCompon

; 1095 : 				if(count > 1){

  00a9f	83 7d d0 01	 cmp	 DWORD PTR _count$1$[ebp], 1
  00aa3	8b 75 d8	 mov	 esi, DWORD PTR _pDC$GSCopy$1$[ebp]
  00aa6	7e 32		 jle	 SHORT $LN430@DrawCompon

; 1096 : 					pDC->SelectObject(&pen7);

  00aa8	8d 85 60 ff ff
	ff		 lea	 eax, DWORD PTR _pen7$[ebp]
  00aae	8b ce		 mov	 ecx, esi
  00ab0	50		 push	 eax
  00ab1	e8 00 00 00 00	 call	 ?SelectObject@CDC@@QAEPAVCPen@@PAV2@@Z ; CDC::SelectObject

; 1097 : 					CDraw::DrawLine(pDC, CPoint(beforeDataPt.x + bongWidth, graphDrawingRegion.bottom - linePt), CPoint(rect.left, rect.top));

  00ab6	8b 45 c8	 mov	 eax, DWORD PTR _graphDrawingRegion$GSCopy$1$[ebp]
  00ab9	ff 75 e4	 push	 DWORD PTR _rect$22[ebp+4]
  00abc	8b 7d dc	 mov	 edi, DWORD PTR _this$GSCopy$1$[ebp]
  00abf	ff 75 e0	 push	 DWORD PTR _rect$22[ebp]
  00ac2	8b 48 0c	 mov	 ecx, DWORD PTR [eax+12]
  00ac5	2b 4d c0	 sub	 ecx, DWORD PTR _linePt$1$[ebp]
  00ac8	8b 45 c4	 mov	 eax, DWORD PTR _bongWidth$3$[ebp]
  00acb	03 45 d4	 add	 eax, DWORD PTR _beforeDataPt$1$[ebp]
  00ace	51		 push	 ecx
  00acf	50		 push	 eax
  00ad0	56		 push	 esi
  00ad1	8b cf		 mov	 ecx, edi
  00ad3	e8 00 00 00 00	 call	 ?DrawLine@CDraw@@IAEXPAVCDC@@UtagPOINT@@1@Z ; CDraw::DrawLine
  00ad8	eb 03		 jmp	 SHORT $LN44@DrawCompon
$LN430@DrawCompon:

; 1095 : 				if(count > 1){

  00ada	8b 7d dc	 mov	 edi, DWORD PTR _this$GSCopy$1$[ebp]
$LN44@DrawCompon:
; File C:\Program Files (x86)\Microsoft Visual Studio\2019\Community\VC\Tools\MSVC\14.29.30133\atlmfc\include\afxwin1.inl

; 476  : 	{ ASSERT(m_hDC != NULL); ::FillRect(m_hDC, lpRect, (HBRUSH)pBrush->GetSafeHandle()); }

  00add	ff b5 04 ff ff
	ff		 push	 DWORD PTR _sevenBrush$[ebp+4]
  00ae3	8d 45 e0	 lea	 eax, DWORD PTR _rect$22[ebp]
  00ae6	50		 push	 eax
  00ae7	ff 76 04	 push	 DWORD PTR [esi+4]
  00aea	ff 15 00 00 00
	00		 call	 DWORD PTR __imp__FillRect@12
; File D:\git\src\IBK\IBK_DRFN\ProjSrc\SrcChartEx\ChartOCX\GraphDraw\FundDraw.cpp

; 1100 : 			}

  00af0	e9 1e 01 00 00	 jmp	 $LN52@DrawCompon
$LN42@DrawCompon:

; 1101 : 			else if(selectBrush == 8){

  00af5	83 fe 07	 cmp	 esi, 7
  00af8	75 56		 jne	 SHORT $LN45@DrawCompon

; 1102 : 				if(count > 1){

  00afa	83 7d d0 01	 cmp	 DWORD PTR _count$1$[ebp], 1
  00afe	8b 75 d8	 mov	 esi, DWORD PTR _pDC$GSCopy$1$[ebp]
  00b01	7e 32		 jle	 SHORT $LN429@DrawCompon

; 1103 : 					pDC->SelectObject(&pen8);

  00b03	8d 85 68 ff ff
	ff		 lea	 eax, DWORD PTR _pen8$[ebp]
  00b09	8b ce		 mov	 ecx, esi
  00b0b	50		 push	 eax
  00b0c	e8 00 00 00 00	 call	 ?SelectObject@CDC@@QAEPAVCPen@@PAV2@@Z ; CDC::SelectObject

; 1104 : 					CDraw::DrawLine(pDC, CPoint(beforeDataPt.x + bongWidth, graphDrawingRegion.bottom - linePt), CPoint(rect.left, rect.top));

  00b11	8b 45 c8	 mov	 eax, DWORD PTR _graphDrawingRegion$GSCopy$1$[ebp]
  00b14	ff 75 e4	 push	 DWORD PTR _rect$22[ebp+4]
  00b17	8b 7d dc	 mov	 edi, DWORD PTR _this$GSCopy$1$[ebp]
  00b1a	ff 75 e0	 push	 DWORD PTR _rect$22[ebp]
  00b1d	8b 48 0c	 mov	 ecx, DWORD PTR [eax+12]
  00b20	2b 4d c0	 sub	 ecx, DWORD PTR _linePt$1$[ebp]
  00b23	8b 45 c4	 mov	 eax, DWORD PTR _bongWidth$3$[ebp]
  00b26	03 45 d4	 add	 eax, DWORD PTR _beforeDataPt$1$[ebp]
  00b29	51		 push	 ecx
  00b2a	50		 push	 eax
  00b2b	56		 push	 esi
  00b2c	8b cf		 mov	 ecx, edi
  00b2e	e8 00 00 00 00	 call	 ?DrawLine@CDraw@@IAEXPAVCDC@@UtagPOINT@@1@Z ; CDraw::DrawLine
  00b33	eb 03		 jmp	 SHORT $LN47@DrawCompon
$LN429@DrawCompon:

; 1102 : 				if(count > 1){

  00b35	8b 7d dc	 mov	 edi, DWORD PTR _this$GSCopy$1$[ebp]
$LN47@DrawCompon:
; File C:\Program Files (x86)\Microsoft Visual Studio\2019\Community\VC\Tools\MSVC\14.29.30133\atlmfc\include\afxwin1.inl

; 476  : 	{ ASSERT(m_hDC != NULL); ::FillRect(m_hDC, lpRect, (HBRUSH)pBrush->GetSafeHandle()); }

  00b38	ff b5 0c ff ff
	ff		 push	 DWORD PTR _eightBrush$[ebp+4]
  00b3e	8d 45 e0	 lea	 eax, DWORD PTR _rect$22[ebp]
  00b41	50		 push	 eax
  00b42	ff 76 04	 push	 DWORD PTR [esi+4]
  00b45	ff 15 00 00 00
	00		 call	 DWORD PTR __imp__FillRect@12
; File D:\git\src\IBK\IBK_DRFN\ProjSrc\SrcChartEx\ChartOCX\GraphDraw\FundDraw.cpp

; 1107 : 			}

  00b4b	e9 c3 00 00 00	 jmp	 $LN52@DrawCompon
$LN45@DrawCompon:

; 1108 : 			else if(selectBrush == 9){

  00b50	83 fe 08	 cmp	 esi, 8
  00b53	75 53		 jne	 SHORT $LN48@DrawCompon

; 1109 : 				if(count > 1){

  00b55	83 7d d0 01	 cmp	 DWORD PTR _count$1$[ebp], 1
  00b59	8b 75 d8	 mov	 esi, DWORD PTR _pDC$GSCopy$1$[ebp]
  00b5c	7e 32		 jle	 SHORT $LN428@DrawCompon

; 1110 : 					pDC->SelectObject(&pen9);

  00b5e	8d 85 70 ff ff
	ff		 lea	 eax, DWORD PTR _pen9$[ebp]
  00b64	8b ce		 mov	 ecx, esi
  00b66	50		 push	 eax
  00b67	e8 00 00 00 00	 call	 ?SelectObject@CDC@@QAEPAVCPen@@PAV2@@Z ; CDC::SelectObject

; 1111 : 					CDraw::DrawLine(pDC, CPoint(beforeDataPt.x + bongWidth, graphDrawingRegion.bottom - linePt), CPoint(rect.left, rect.top));

  00b6c	8b 45 c8	 mov	 eax, DWORD PTR _graphDrawingRegion$GSCopy$1$[ebp]
  00b6f	ff 75 e4	 push	 DWORD PTR _rect$22[ebp+4]
  00b72	8b 7d dc	 mov	 edi, DWORD PTR _this$GSCopy$1$[ebp]
  00b75	ff 75 e0	 push	 DWORD PTR _rect$22[ebp]
  00b78	8b 48 0c	 mov	 ecx, DWORD PTR [eax+12]
  00b7b	2b 4d c0	 sub	 ecx, DWORD PTR _linePt$1$[ebp]
  00b7e	8b 45 c4	 mov	 eax, DWORD PTR _bongWidth$3$[ebp]
  00b81	03 45 d4	 add	 eax, DWORD PTR _beforeDataPt$1$[ebp]
  00b84	51		 push	 ecx
  00b85	50		 push	 eax
  00b86	56		 push	 esi
  00b87	8b cf		 mov	 ecx, edi
  00b89	e8 00 00 00 00	 call	 ?DrawLine@CDraw@@IAEXPAVCDC@@UtagPOINT@@1@Z ; CDraw::DrawLine
  00b8e	eb 03		 jmp	 SHORT $LN50@DrawCompon
$LN428@DrawCompon:

; 1109 : 				if(count > 1){

  00b90	8b 7d dc	 mov	 edi, DWORD PTR _this$GSCopy$1$[ebp]
$LN50@DrawCompon:
; File C:\Program Files (x86)\Microsoft Visual Studio\2019\Community\VC\Tools\MSVC\14.29.30133\atlmfc\include\afxwin1.inl

; 476  : 	{ ASSERT(m_hDC != NULL); ::FillRect(m_hDC, lpRect, (HBRUSH)pBrush->GetSafeHandle()); }

  00b93	ff b5 14 ff ff
	ff		 push	 DWORD PTR _nineBrush$[ebp+4]
  00b99	8d 45 e0	 lea	 eax, DWORD PTR _rect$22[ebp]
  00b9c	50		 push	 eax
  00b9d	ff 76 04	 push	 DWORD PTR [esi+4]
  00ba0	ff 15 00 00 00
	00		 call	 DWORD PTR __imp__FillRect@12
; File D:\git\src\IBK\IBK_DRFN\ProjSrc\SrcChartEx\ChartOCX\GraphDraw\FundDraw.cpp

; 1114 : 			}

  00ba6	eb 6b		 jmp	 SHORT $LN52@DrawCompon
$LN48@DrawCompon:

; 1115 : 			else if(selectBrush == 10){

  00ba8	83 fe 09	 cmp	 esi, 9
  00bab	8b 75 d8	 mov	 esi, DWORD PTR _pDC$GSCopy$1$[ebp]
  00bae	75 50		 jne	 SHORT $LN51@DrawCompon

; 1116 : 				if(count > 1){

  00bb0	83 7d d0 01	 cmp	 DWORD PTR _count$1$[ebp], 1
  00bb4	7e 32		 jle	 SHORT $LN427@DrawCompon

; 1117 : 					pDC->SelectObject(&pen10);

  00bb6	8d 85 78 ff ff
	ff		 lea	 eax, DWORD PTR _pen10$[ebp]
  00bbc	8b ce		 mov	 ecx, esi
  00bbe	50		 push	 eax
  00bbf	e8 00 00 00 00	 call	 ?SelectObject@CDC@@QAEPAVCPen@@PAV2@@Z ; CDC::SelectObject

; 1118 : 					CDraw::DrawLine(pDC, CPoint(beforeDataPt.x + bongWidth, graphDrawingRegion.bottom - linePt), CPoint(rect.left, rect.top));

  00bc4	8b 45 c8	 mov	 eax, DWORD PTR _graphDrawingRegion$GSCopy$1$[ebp]
  00bc7	ff 75 e4	 push	 DWORD PTR _rect$22[ebp+4]
  00bca	8b 7d dc	 mov	 edi, DWORD PTR _this$GSCopy$1$[ebp]
  00bcd	ff 75 e0	 push	 DWORD PTR _rect$22[ebp]
  00bd0	8b 48 0c	 mov	 ecx, DWORD PTR [eax+12]
  00bd3	2b 4d c0	 sub	 ecx, DWORD PTR _linePt$1$[ebp]
  00bd6	8b 45 c4	 mov	 eax, DWORD PTR _bongWidth$3$[ebp]
  00bd9	03 45 d4	 add	 eax, DWORD PTR _beforeDataPt$1$[ebp]
  00bdc	51		 push	 ecx
  00bdd	50		 push	 eax
  00bde	56		 push	 esi
  00bdf	8b cf		 mov	 ecx, edi
  00be1	e8 00 00 00 00	 call	 ?DrawLine@CDraw@@IAEXPAVCDC@@UtagPOINT@@1@Z ; CDraw::DrawLine
  00be6	eb 03		 jmp	 SHORT $LN53@DrawCompon
$LN427@DrawCompon:

; 1116 : 				if(count > 1){

  00be8	8b 7d dc	 mov	 edi, DWORD PTR _this$GSCopy$1$[ebp]
$LN53@DrawCompon:
; File C:\Program Files (x86)\Microsoft Visual Studio\2019\Community\VC\Tools\MSVC\14.29.30133\atlmfc\include\afxwin1.inl

; 476  : 	{ ASSERT(m_hDC != NULL); ::FillRect(m_hDC, lpRect, (HBRUSH)pBrush->GetSafeHandle()); }

  00beb	ff b5 1c ff ff
	ff		 push	 DWORD PTR _tenBrush$[ebp+4]
  00bf1	8d 45 e0	 lea	 eax, DWORD PTR _rect$22[ebp]
  00bf4	50		 push	 eax
  00bf5	ff 76 04	 push	 DWORD PTR [esi+4]
  00bf8	ff 15 00 00 00
	00		 call	 DWORD PTR __imp__FillRect@12
; File D:\git\src\IBK\IBK_DRFN\ProjSrc\SrcChartEx\ChartOCX\GraphDraw\FundDraw.cpp

; 1121 : 			}

  00bfe	eb 13		 jmp	 SHORT $LN52@DrawCompon
$LN51@DrawCompon:
; File C:\Program Files (x86)\Microsoft Visual Studio\2019\Community\VC\Tools\MSVC\14.29.30133\atlmfc\include\afxwin1.inl

; 476  : 	{ ASSERT(m_hDC != NULL); ::FillRect(m_hDC, lpRect, (HBRUSH)pBrush->GetSafeHandle()); }

  00c00	ff 75 84	 push	 DWORD PTR _firstBrush$[ebp+4]
  00c03	8d 45 e0	 lea	 eax, DWORD PTR _rect$22[ebp]
  00c06	50		 push	 eax
  00c07	ff 76 04	 push	 DWORD PTR [esi+4]
  00c0a	ff 15 00 00 00
	00		 call	 DWORD PTR __imp__FillRect@12
  00c10	8b 7d dc	 mov	 edi, DWORD PTR _this$GSCopy$1$[ebp]
$LN52@DrawCompon:
; File C:\Program Files (x86)\Microsoft Visual Studio\2019\Community\VC\Tools\MSVC\14.29.30133\atlmfc\include\atltypes.h

; 581  : 	return bottom - top;

  00c13	8b 45 ec	 mov	 eax, DWORD PTR _rect$22[ebp+12]
  00c16	8b 4d e4	 mov	 ecx, DWORD PTR _rect$22[ebp+4]
  00c19	2b c1		 sub	 eax, ecx
; File D:\git\src\IBK\IBK_DRFN\ProjSrc\SrcChartEx\ChartOCX\GraphDraw\FundDraw.cpp

; 1125 : 			if(rect.Height() <= 1 && rect.Height() > 0)

  00c1b	83 f8 01	 cmp	 eax, 1
  00c1e	7f 14		 jg	 SHORT $LN54@DrawCompon
  00c20	85 c0		 test	 eax, eax
  00c22	7e 10		 jle	 SHORT $LN54@DrawCompon

; 1126 : 				CDraw::DrawLine(pDC, CPoint(rect.left, rect.top), CPoint(rect.right, rect.top));

  00c24	51		 push	 ecx
  00c25	ff 75 e8	 push	 DWORD PTR _rect$22[ebp+8]
  00c28	51		 push	 ecx
  00c29	ff 75 e0	 push	 DWORD PTR _rect$22[ebp]
  00c2c	8b cf		 mov	 ecx, edi
  00c2e	56		 push	 esi
  00c2f	e8 00 00 00 00	 call	 ?DrawLine@CDraw@@IAEXPAVCDC@@UtagPOINT@@1@Z ; CDraw::DrawLine
$LN54@DrawCompon:

; 1127 : 		}

  00c34	8d 4d ac	 lea	 ecx, DWORD PTR _strData$15[ebp]
  00c37	c6 45 fc 15	 mov	 BYTE PTR __$EHRec$[ebp+8], 21 ; 00000015H
  00c3b	ff 15 00 00 00
	00		 call	 DWORD PTR __imp_??1?$CStringT@DV?$StrTraitMFC_DLL@DV?$ChTraitsCRT@D@ATL@@@@@ATL@@QAE@XZ
  00c41	8b 7d b8	 mov	 edi, DWORD PTR tv3261[ebp]
  00c44	89 7d 98	 mov	 DWORD PTR _j$1$[ebp], edi
  00c47	3b 7d 90	 cmp	 edi, DWORD PTR _packetCount$1$[ebp]
  00c4a	0f 8c d4 f8 ff
	ff		 jl	 $LL10@DrawCompon
$LN9@DrawCompon:

; 1128 : 		pDC->SelectObject(GetStockObject(NULL_BRUSH));

  00c50	6a 05		 push	 5
  00c52	ff 15 00 00 00
	00		 call	 DWORD PTR __imp__GetStockObject@4
; File C:\Program Files (x86)\Microsoft Visual Studio\2019\Community\VC\Tools\MSVC\14.29.30133\atlmfc\include\afxwin1.inl

; 366  : 		return (hObject != NULL) ? ::SelectObject(m_hDC, hObject) : NULL; }

  00c58	85 c0		 test	 eax, eax
  00c5a	74 0a		 je	 SHORT $LN316@DrawCompon
  00c5c	50		 push	 eax
  00c5d	ff 76 04	 push	 DWORD PTR [esi+4]
  00c60	ff 15 00 00 00
	00		 call	 DWORD PTR __imp__SelectObject@8
$LN316@DrawCompon:
; File D:\git\src\IBK\IBK_DRFN\ProjSrc\SrcChartEx\ChartOCX\GraphDraw\FundDraw.cpp

; 1129 : 		pDC->SelectObject(&pen);

  00c66	8d 45 88	 lea	 eax, DWORD PTR _pen$[ebp]
  00c69	8b ce		 mov	 ecx, esi
  00c6b	50		 push	 eax
  00c6c	e8 00 00 00 00	 call	 ?SelectObject@CDC@@QAEPAVCPen@@PAV2@@Z ; CDC::SelectObject
  00c71	83 6d 20 01	 sub	 DWORD PTR _dataRealEnd$[ebp], 1
  00c75	8b 45 d0	 mov	 eax, DWORD PTR _count$1$[ebp]
  00c78	0f 85 62 f8 ff
	ff		 jne	 $LL7@DrawCompon
$LN6@DrawCompon:

; 1130 : 	//	CDraw::DrawRectangle(pDC, CRect(DataPt.x - bongWidth - lineThickness/2, graphDrawingRegion.top, DataPt.x + bongWidth + lineThickness, graphDrawingRegion.bottom));
; 1131 : 	}
; 1132 : 	pDC->SelectObject(pOldBrush);

  00c7e	ff b5 a4 fe ff
	ff		 push	 DWORD PTR _pOldBrush$1$[ebp]
  00c84	8b ce		 mov	 ecx, esi
  00c86	e8 00 00 00 00	 call	 ?SelectObject@CDC@@QAEPAVCBrush@@PAV2@@Z ; CDC::SelectObject

; 1133 : 	pDC->SelectObject(pOldPen);

  00c8b	ff b5 94 fe ff
	ff		 push	 DWORD PTR _pOldPen$1$[ebp]
  00c91	8b ce		 mov	 ecx, esi
  00c93	e8 00 00 00 00	 call	 ?SelectObject@CDC@@QAEPAVCPen@@PAV2@@Z ; CDC::SelectObject

; 1134 : 
; 1135 : 	firstBrush.DeleteObject();

  00c98	8d 4d 80	 lea	 ecx, DWORD PTR _firstBrush$[ebp]
  00c9b	e8 00 00 00 00	 call	 ?DeleteObject@CGdiObject@@QAEHXZ ; CGdiObject::DeleteObject

; 1136 : 	secondBrush.DeleteObject();

  00ca0	8d 8d d8 fe ff
	ff		 lea	 ecx, DWORD PTR _secondBrush$[ebp]
  00ca6	e8 00 00 00 00	 call	 ?DeleteObject@CGdiObject@@QAEHXZ ; CGdiObject::DeleteObject

; 1137 : 	thirdBrush.DeleteObject();

  00cab	8d 8d e0 fe ff
	ff		 lea	 ecx, DWORD PTR _thirdBrush$[ebp]
  00cb1	e8 00 00 00 00	 call	 ?DeleteObject@CGdiObject@@QAEHXZ ; CGdiObject::DeleteObject

; 1138 : 	fourBrush.DeleteObject();

  00cb6	8d 8d e8 fe ff
	ff		 lea	 ecx, DWORD PTR _fourBrush$[ebp]
  00cbc	e8 00 00 00 00	 call	 ?DeleteObject@CGdiObject@@QAEHXZ ; CGdiObject::DeleteObject

; 1139 : 	fiveBrush.DeleteObject();

  00cc1	8d 8d f0 fe ff
	ff		 lea	 ecx, DWORD PTR _fiveBrush$[ebp]
  00cc7	e8 00 00 00 00	 call	 ?DeleteObject@CGdiObject@@QAEHXZ ; CGdiObject::DeleteObject

; 1140 : 	sixBrush.DeleteObject();

  00ccc	8d 8d f8 fe ff
	ff		 lea	 ecx, DWORD PTR _sixBrush$[ebp]
  00cd2	e8 00 00 00 00	 call	 ?DeleteObject@CGdiObject@@QAEHXZ ; CGdiObject::DeleteObject

; 1141 : 	sevenBrush.DeleteObject();

  00cd7	8d 8d 00 ff ff
	ff		 lea	 ecx, DWORD PTR _sevenBrush$[ebp]
  00cdd	e8 00 00 00 00	 call	 ?DeleteObject@CGdiObject@@QAEHXZ ; CGdiObject::DeleteObject

; 1142 : 	eightBrush.DeleteObject();

  00ce2	8d 8d 08 ff ff
	ff		 lea	 ecx, DWORD PTR _eightBrush$[ebp]
  00ce8	e8 00 00 00 00	 call	 ?DeleteObject@CGdiObject@@QAEHXZ ; CGdiObject::DeleteObject

; 1143 : 	nineBrush.DeleteObject();

  00ced	8d 8d 10 ff ff
	ff		 lea	 ecx, DWORD PTR _nineBrush$[ebp]
  00cf3	e8 00 00 00 00	 call	 ?DeleteObject@CGdiObject@@QAEHXZ ; CGdiObject::DeleteObject

; 1144 : 	tenBrush.DeleteObject();

  00cf8	8d 8d 18 ff ff
	ff		 lea	 ecx, DWORD PTR _tenBrush$[ebp]
  00cfe	e8 00 00 00 00	 call	 ?DeleteObject@CGdiObject@@QAEHXZ ; CGdiObject::DeleteObject

; 1145 : 
; 1146 : 	pen.DeleteObject();

  00d03	8d 4d 88	 lea	 ecx, DWORD PTR _pen$[ebp]
  00d06	e8 00 00 00 00	 call	 ?DeleteObject@CGdiObject@@QAEHXZ ; CGdiObject::DeleteObject

; 1147 : 	pen1.DeleteObject();

  00d0b	8d 8d 38 ff ff
	ff		 lea	 ecx, DWORD PTR _pen1$[ebp]
  00d11	e8 00 00 00 00	 call	 ?DeleteObject@CGdiObject@@QAEHXZ ; CGdiObject::DeleteObject

; 1148 : 	pen2.DeleteObject();

  00d16	8d 8d 40 ff ff
	ff		 lea	 ecx, DWORD PTR _pen2$[ebp]
  00d1c	e8 00 00 00 00	 call	 ?DeleteObject@CGdiObject@@QAEHXZ ; CGdiObject::DeleteObject

; 1149 : 	pen3.DeleteObject();

  00d21	8d 8d 48 ff ff
	ff		 lea	 ecx, DWORD PTR _pen3$[ebp]
  00d27	e8 00 00 00 00	 call	 ?DeleteObject@CGdiObject@@QAEHXZ ; CGdiObject::DeleteObject

; 1150 : 	pen4.DeleteObject();

  00d2c	8d 8d 50 ff ff
	ff		 lea	 ecx, DWORD PTR _pen4$[ebp]
  00d32	e8 00 00 00 00	 call	 ?DeleteObject@CGdiObject@@QAEHXZ ; CGdiObject::DeleteObject

; 1151 : 	pen5.DeleteObject();

  00d37	8d 8d 30 ff ff
	ff		 lea	 ecx, DWORD PTR _pen5$[ebp]
  00d3d	e8 00 00 00 00	 call	 ?DeleteObject@CGdiObject@@QAEHXZ ; CGdiObject::DeleteObject

; 1152 : 	pen6.DeleteObject();

  00d42	8d 8d 58 ff ff
	ff		 lea	 ecx, DWORD PTR _pen6$[ebp]
  00d48	e8 00 00 00 00	 call	 ?DeleteObject@CGdiObject@@QAEHXZ ; CGdiObject::DeleteObject

; 1153 : 	pen7.DeleteObject();

  00d4d	8d 8d 60 ff ff
	ff		 lea	 ecx, DWORD PTR _pen7$[ebp]
  00d53	e8 00 00 00 00	 call	 ?DeleteObject@CGdiObject@@QAEHXZ ; CGdiObject::DeleteObject

; 1154 : 	pen8.DeleteObject();

  00d58	8d 8d 68 ff ff
	ff		 lea	 ecx, DWORD PTR _pen8$[ebp]
  00d5e	e8 00 00 00 00	 call	 ?DeleteObject@CGdiObject@@QAEHXZ ; CGdiObject::DeleteObject

; 1155 : 	pen9.DeleteObject();

  00d63	8d 8d 70 ff ff
	ff		 lea	 ecx, DWORD PTR _pen9$[ebp]
  00d69	e8 00 00 00 00	 call	 ?DeleteObject@CGdiObject@@QAEHXZ ; CGdiObject::DeleteObject

; 1156 : 	pen10.DeleteObject();

  00d6e	8d 8d 78 ff ff
	ff		 lea	 ecx, DWORD PTR _pen10$[ebp]
  00d74	e8 00 00 00 00	 call	 ?DeleteObject@CGdiObject@@QAEHXZ ; CGdiObject::DeleteObject
; File C:\Program Files (x86)\Microsoft Visual Studio\2019\Community\VC\Tools\MSVC\14.29.30133\atlmfc\include\afxwin1.inl

; 130  : 	{ }

  00d79	8d 8d 18 ff ff
	ff		 lea	 ecx, DWORD PTR _tenBrush$[ebp]
; File D:\git\src\IBK\IBK_DRFN\ProjSrc\SrcChartEx\ChartOCX\GraphDraw\FundDraw.cpp

; 1157 : 	return true;

  00d7f	c6 45 bf 01	 mov	 BYTE PTR $T21[ebp], 1
; File C:\Program Files (x86)\Microsoft Visual Studio\2019\Community\VC\Tools\MSVC\14.29.30133\atlmfc\include\afxwin1.inl

; 130  : 	{ }

  00d83	c7 85 18 ff ff
	ff 00 00 00 00	 mov	 DWORD PTR _tenBrush$[ebp], OFFSET ??_7CBrush@@6B@
  00d8d	e8 00 00 00 00	 call	 ??1CGdiObject@@UAE@XZ	; CGdiObject::~CGdiObject
  00d92	8d 8d 10 ff ff
	ff		 lea	 ecx, DWORD PTR _nineBrush$[ebp]
  00d98	c7 85 10 ff ff
	ff 00 00 00 00	 mov	 DWORD PTR _nineBrush$[ebp], OFFSET ??_7CBrush@@6B@
  00da2	e8 00 00 00 00	 call	 ??1CGdiObject@@UAE@XZ	; CGdiObject::~CGdiObject
  00da7	8d 8d 08 ff ff
	ff		 lea	 ecx, DWORD PTR _eightBrush$[ebp]
  00dad	c7 85 08 ff ff
	ff 00 00 00 00	 mov	 DWORD PTR _eightBrush$[ebp], OFFSET ??_7CBrush@@6B@
  00db7	e8 00 00 00 00	 call	 ??1CGdiObject@@UAE@XZ	; CGdiObject::~CGdiObject
  00dbc	8d 8d 00 ff ff
	ff		 lea	 ecx, DWORD PTR _sevenBrush$[ebp]
  00dc2	c7 85 00 ff ff
	ff 00 00 00 00	 mov	 DWORD PTR _sevenBrush$[ebp], OFFSET ??_7CBrush@@6B@
  00dcc	e8 00 00 00 00	 call	 ??1CGdiObject@@UAE@XZ	; CGdiObject::~CGdiObject
  00dd1	8d 8d f8 fe ff
	ff		 lea	 ecx, DWORD PTR _sixBrush$[ebp]
  00dd7	c7 85 f8 fe ff
	ff 00 00 00 00	 mov	 DWORD PTR _sixBrush$[ebp], OFFSET ??_7CBrush@@6B@
  00de1	e8 00 00 00 00	 call	 ??1CGdiObject@@UAE@XZ	; CGdiObject::~CGdiObject
  00de6	8d 8d f0 fe ff
	ff		 lea	 ecx, DWORD PTR _fiveBrush$[ebp]
  00dec	c7 85 f0 fe ff
	ff 00 00 00 00	 mov	 DWORD PTR _fiveBrush$[ebp], OFFSET ??_7CBrush@@6B@
  00df6	e8 00 00 00 00	 call	 ??1CGdiObject@@UAE@XZ	; CGdiObject::~CGdiObject
  00dfb	8d 8d e8 fe ff
	ff		 lea	 ecx, DWORD PTR _fourBrush$[ebp]
  00e01	c7 85 e8 fe ff
	ff 00 00 00 00	 mov	 DWORD PTR _fourBrush$[ebp], OFFSET ??_7CBrush@@6B@
  00e0b	e8 00 00 00 00	 call	 ??1CGdiObject@@UAE@XZ	; CGdiObject::~CGdiObject
  00e10	8d 8d e0 fe ff
	ff		 lea	 ecx, DWORD PTR _thirdBrush$[ebp]
  00e16	c7 85 e0 fe ff
	ff 00 00 00 00	 mov	 DWORD PTR _thirdBrush$[ebp], OFFSET ??_7CBrush@@6B@
  00e20	e8 00 00 00 00	 call	 ??1CGdiObject@@UAE@XZ	; CGdiObject::~CGdiObject
  00e25	8d 8d d8 fe ff
	ff		 lea	 ecx, DWORD PTR _secondBrush$[ebp]
  00e2b	c7 85 d8 fe ff
	ff 00 00 00 00	 mov	 DWORD PTR _secondBrush$[ebp], OFFSET ??_7CBrush@@6B@
  00e35	e8 00 00 00 00	 call	 ??1CGdiObject@@UAE@XZ	; CGdiObject::~CGdiObject
  00e3a	8d 4d 80	 lea	 ecx, DWORD PTR _firstBrush$[ebp]
  00e3d	c7 45 80 00 00
	00 00		 mov	 DWORD PTR _firstBrush$[ebp], OFFSET ??_7CBrush@@6B@
  00e44	e8 00 00 00 00	 call	 ??1CGdiObject@@UAE@XZ	; CGdiObject::~CGdiObject

; 106  : 	{ }

  00e49	c7 85 78 ff ff
	ff 00 00 00 00	 mov	 DWORD PTR _pen10$[ebp], OFFSET ??_7CPen@@6B@
  00e53	8d 8d 78 ff ff
	ff		 lea	 ecx, DWORD PTR _pen10$[ebp]
  00e59	e8 00 00 00 00	 call	 ??1CGdiObject@@UAE@XZ	; CGdiObject::~CGdiObject
  00e5e	8d 8d 70 ff ff
	ff		 lea	 ecx, DWORD PTR _pen9$[ebp]
  00e64	c7 85 70 ff ff
	ff 00 00 00 00	 mov	 DWORD PTR _pen9$[ebp], OFFSET ??_7CPen@@6B@
  00e6e	e8 00 00 00 00	 call	 ??1CGdiObject@@UAE@XZ	; CGdiObject::~CGdiObject
  00e73	8d 8d 68 ff ff
	ff		 lea	 ecx, DWORD PTR _pen8$[ebp]
  00e79	c7 85 68 ff ff
	ff 00 00 00 00	 mov	 DWORD PTR _pen8$[ebp], OFFSET ??_7CPen@@6B@
  00e83	e8 00 00 00 00	 call	 ??1CGdiObject@@UAE@XZ	; CGdiObject::~CGdiObject
  00e88	8d 8d 60 ff ff
	ff		 lea	 ecx, DWORD PTR _pen7$[ebp]
  00e8e	c7 85 60 ff ff
	ff 00 00 00 00	 mov	 DWORD PTR _pen7$[ebp], OFFSET ??_7CPen@@6B@
  00e98	e8 00 00 00 00	 call	 ??1CGdiObject@@UAE@XZ	; CGdiObject::~CGdiObject
  00e9d	8d 8d 58 ff ff
	ff		 lea	 ecx, DWORD PTR _pen6$[ebp]
  00ea3	c7 85 58 ff ff
	ff 00 00 00 00	 mov	 DWORD PTR _pen6$[ebp], OFFSET ??_7CPen@@6B@
  00ead	e8 00 00 00 00	 call	 ??1CGdiObject@@UAE@XZ	; CGdiObject::~CGdiObject
  00eb2	8d 8d 30 ff ff
	ff		 lea	 ecx, DWORD PTR _pen5$[ebp]
  00eb8	c7 85 30 ff ff
	ff 00 00 00 00	 mov	 DWORD PTR _pen5$[ebp], OFFSET ??_7CPen@@6B@
  00ec2	e8 00 00 00 00	 call	 ??1CGdiObject@@UAE@XZ	; CGdiObject::~CGdiObject
  00ec7	8d 8d 50 ff ff
	ff		 lea	 ecx, DWORD PTR _pen4$[ebp]
  00ecd	c7 85 50 ff ff
	ff 00 00 00 00	 mov	 DWORD PTR _pen4$[ebp], OFFSET ??_7CPen@@6B@
  00ed7	e8 00 00 00 00	 call	 ??1CGdiObject@@UAE@XZ	; CGdiObject::~CGdiObject
  00edc	8d 8d 48 ff ff
	ff		 lea	 ecx, DWORD PTR _pen3$[ebp]
  00ee2	c7 85 48 ff ff
	ff 00 00 00 00	 mov	 DWORD PTR _pen3$[ebp], OFFSET ??_7CPen@@6B@
  00eec	e8 00 00 00 00	 call	 ??1CGdiObject@@UAE@XZ	; CGdiObject::~CGdiObject
  00ef1	8d 8d 40 ff ff
	ff		 lea	 ecx, DWORD PTR _pen2$[ebp]
  00ef7	c7 85 40 ff ff
	ff 00 00 00 00	 mov	 DWORD PTR _pen2$[ebp], OFFSET ??_7CPen@@6B@
  00f01	e8 00 00 00 00	 call	 ??1CGdiObject@@UAE@XZ	; CGdiObject::~CGdiObject
  00f06	8d 8d 38 ff ff
	ff		 lea	 ecx, DWORD PTR _pen1$[ebp]
  00f0c	c7 85 38 ff ff
	ff 00 00 00 00	 mov	 DWORD PTR _pen1$[ebp], OFFSET ??_7CPen@@6B@
  00f16	e8 00 00 00 00	 call	 ??1CGdiObject@@UAE@XZ	; CGdiObject::~CGdiObject
  00f1b	8d 4d 88	 lea	 ecx, DWORD PTR _pen$[ebp]
  00f1e	c7 45 88 00 00
	00 00		 mov	 DWORD PTR _pen$[ebp], OFFSET ??_7CPen@@6B@
  00f25	e8 00 00 00 00	 call	 ??1CGdiObject@@UAE@XZ	; CGdiObject::~CGdiObject
$LN379@DrawCompon:
; File C:\Program Files (x86)\Microsoft Visual Studio\2019\Community\VC\Tools\MSVC\14.29.30133\atlmfc\include\afxtempl.h

; 872  : 	m_pBlocks->FreeDataChain();

  00f2a	8b 8d d0 fe ff
	ff		 mov	 ecx, DWORD PTR _packetPosition$[ebp+20]

; 878  : {

  00f30	c7 45 fc 20 00
	00 00		 mov	 DWORD PTR __$EHRec$[ebp+8], 32 ; 00000020H
  00f37	c7 85 bc fe ff
	ff 00 00 00 00	 mov	 DWORD PTR _packetPosition$[ebp], OFFSET ??_7?$CList@PAU__POSITION@@PAU1@@@6B@

; 870  : 	m_nCount = 0;

  00f41	c7 85 c8 fe ff
	ff 00 00 00 00	 mov	 DWORD PTR _packetPosition$[ebp+12], 0

; 871  : 	m_pNodeHead = m_pNodeTail = m_pNodeFree = NULL;

  00f4b	c7 85 cc fe ff
	ff 00 00 00 00	 mov	 DWORD PTR _packetPosition$[ebp+16], 0
  00f55	c7 85 c4 fe ff
	ff 00 00 00 00	 mov	 DWORD PTR _packetPosition$[ebp+8], 0
  00f5f	c7 85 c0 fe ff
	ff 00 00 00 00	 mov	 DWORD PTR _packetPosition$[ebp+4], 0

; 872  : 	m_pBlocks->FreeDataChain();

  00f69	e8 00 00 00 00	 call	 ?FreeDataChain@CPlex@@QAEXXZ ; CPlex::FreeDataChain
; File D:\git\src\IBK\IBK_DRFN\ProjSrc\SrcChartEx\ChartOCX\GraphDraw\FundDraw.cpp

; 1157 : 	return true;

  00f6e	8a 45 bf	 mov	 al, BYTE PTR $T21[ebp]
$LN1@DrawCompon:

; 1158 : }

  00f71	8b 4d f4	 mov	 ecx, DWORD PTR __$EHRec$[ebp]
  00f74	64 89 0d 00 00
	00 00		 mov	 DWORD PTR fs:0, ecx
  00f7b	59		 pop	 ecx
  00f7c	5f		 pop	 edi
  00f7d	5e		 pop	 esi
  00f7e	8b 4d f0	 mov	 ecx, DWORD PTR __$ArrayPad$[ebp]
  00f81	33 cd		 xor	 ecx, ebp
  00f83	e8 00 00 00 00	 call	 @__security_check_cookie@4
  00f88	8b e5		 mov	 esp, ebp
  00f8a	5d		 pop	 ebp
  00f8b	c2 3c 00	 ret	 60			; 0000003cH
_TEXT	ENDS
;	COMDAT text$x
text$x	SEGMENT
__unwindfunclet$?DrawComponentRatio_Bar_Line@CFundDraw@@AAE_NPAVCDC@@ABVCEtcGraphColor@@ABVCRect@@ABVCGraphColor@@HHHABN4ABV?$CList@PAVCPacket@@PAV1@@@VCPenThickness@@@Z$0:
  00000	8d 8d bc fe ff
	ff		 lea	 ecx, DWORD PTR _packetPosition$[ebp]
  00006	e9 00 00 00 00	 jmp	 ??1?$CList@PAU__POSITION@@PAU1@@@UAE@XZ ; CList<__POSITION *,__POSITION *>::~CList<__POSITION *,__POSITION *>
__unwindfunclet$?DrawComponentRatio_Bar_Line@CFundDraw@@AAE_NPAVCDC@@ABVCEtcGraphColor@@ABVCRect@@ABVCGraphColor@@HHHABN4ABV?$CList@PAVCPacket@@PAV1@@@VCPenThickness@@@Z$1:
  0000b	8d 4d 88	 lea	 ecx, DWORD PTR _pen$[ebp]
  0000e	e9 00 00 00 00	 jmp	 ??1CPen@@UAE@XZ		; CPen::~CPen
__unwindfunclet$?DrawComponentRatio_Bar_Line@CFundDraw@@AAE_NPAVCDC@@ABVCEtcGraphColor@@ABVCRect@@ABVCGraphColor@@HHHABN4ABV?$CList@PAVCPacket@@PAV1@@@VCPenThickness@@@Z$2:
  00013	8d 8d 38 ff ff
	ff		 lea	 ecx, DWORD PTR _pen1$[ebp]
  00019	e9 00 00 00 00	 jmp	 ??1CPen@@UAE@XZ		; CPen::~CPen
__unwindfunclet$?DrawComponentRatio_Bar_Line@CFundDraw@@AAE_NPAVCDC@@ABVCEtcGraphColor@@ABVCRect@@ABVCGraphColor@@HHHABN4ABV?$CList@PAVCPacket@@PAV1@@@VCPenThickness@@@Z$3:
  0001e	8d 8d 40 ff ff
	ff		 lea	 ecx, DWORD PTR _pen2$[ebp]
  00024	e9 00 00 00 00	 jmp	 ??1CPen@@UAE@XZ		; CPen::~CPen
__unwindfunclet$?DrawComponentRatio_Bar_Line@CFundDraw@@AAE_NPAVCDC@@ABVCEtcGraphColor@@ABVCRect@@ABVCGraphColor@@HHHABN4ABV?$CList@PAVCPacket@@PAV1@@@VCPenThickness@@@Z$4:
  00029	8d 8d 48 ff ff
	ff		 lea	 ecx, DWORD PTR _pen3$[ebp]
  0002f	e9 00 00 00 00	 jmp	 ??1CPen@@UAE@XZ		; CPen::~CPen
__unwindfunclet$?DrawComponentRatio_Bar_Line@CFundDraw@@AAE_NPAVCDC@@ABVCEtcGraphColor@@ABVCRect@@ABVCGraphColor@@HHHABN4ABV?$CList@PAVCPacket@@PAV1@@@VCPenThickness@@@Z$5:
  00034	8d 8d 50 ff ff
	ff		 lea	 ecx, DWORD PTR _pen4$[ebp]
  0003a	e9 00 00 00 00	 jmp	 ??1CPen@@UAE@XZ		; CPen::~CPen
__unwindfunclet$?DrawComponentRatio_Bar_Line@CFundDraw@@AAE_NPAVCDC@@ABVCEtcGraphColor@@ABVCRect@@ABVCGraphColor@@HHHABN4ABV?$CList@PAVCPacket@@PAV1@@@VCPenThickness@@@Z$6:
  0003f	8d 8d 30 ff ff
	ff		 lea	 ecx, DWORD PTR _pen5$[ebp]
  00045	e9 00 00 00 00	 jmp	 ??1CPen@@UAE@XZ		; CPen::~CPen
__unwindfunclet$?DrawComponentRatio_Bar_Line@CFundDraw@@AAE_NPAVCDC@@ABVCEtcGraphColor@@ABVCRect@@ABVCGraphColor@@HHHABN4ABV?$CList@PAVCPacket@@PAV1@@@VCPenThickness@@@Z$7:
  0004a	8d 8d 58 ff ff
	ff		 lea	 ecx, DWORD PTR _pen6$[ebp]
  00050	e9 00 00 00 00	 jmp	 ??1CPen@@UAE@XZ		; CPen::~CPen
__unwindfunclet$?DrawComponentRatio_Bar_Line@CFundDraw@@AAE_NPAVCDC@@ABVCEtcGraphColor@@ABVCRect@@ABVCGraphColor@@HHHABN4ABV?$CList@PAVCPacket@@PAV1@@@VCPenThickness@@@Z$8:
  00055	8d 8d 60 ff ff
	ff		 lea	 ecx, DWORD PTR _pen7$[ebp]
  0005b	e9 00 00 00 00	 jmp	 ??1CPen@@UAE@XZ		; CPen::~CPen
__unwindfunclet$?DrawComponentRatio_Bar_Line@CFundDraw@@AAE_NPAVCDC@@ABVCEtcGraphColor@@ABVCRect@@ABVCGraphColor@@HHHABN4ABV?$CList@PAVCPacket@@PAV1@@@VCPenThickness@@@Z$9:
  00060	8d 8d 68 ff ff
	ff		 lea	 ecx, DWORD PTR _pen8$[ebp]
  00066	e9 00 00 00 00	 jmp	 ??1CPen@@UAE@XZ		; CPen::~CPen
__unwindfunclet$?DrawComponentRatio_Bar_Line@CFundDraw@@AAE_NPAVCDC@@ABVCEtcGraphColor@@ABVCRect@@ABVCGraphColor@@HHHABN4ABV?$CList@PAVCPacket@@PAV1@@@VCPenThickness@@@Z$10:
  0006b	8d 8d 70 ff ff
	ff		 lea	 ecx, DWORD PTR _pen9$[ebp]
  00071	e9 00 00 00 00	 jmp	 ??1CPen@@UAE@XZ		; CPen::~CPen
__unwindfunclet$?DrawComponentRatio_Bar_Line@CFundDraw@@AAE_NPAVCDC@@ABVCEtcGraphColor@@ABVCRect@@ABVCGraphColor@@HHHABN4ABV?$CList@PAVCPacket@@PAV1@@@VCPenThickness@@@Z$11:
  00076	8d 8d 78 ff ff
	ff		 lea	 ecx, DWORD PTR _pen10$[ebp]
  0007c	e9 00 00 00 00	 jmp	 ??1CPen@@UAE@XZ		; CPen::~CPen
__unwindfunclet$?DrawComponentRatio_Bar_Line@CFundDraw@@AAE_NPAVCDC@@ABVCEtcGraphColor@@ABVCRect@@ABVCGraphColor@@HHHABN4ABV?$CList@PAVCPacket@@PAV1@@@VCPenThickness@@@Z$12:
  00081	8d 4d 80	 lea	 ecx, DWORD PTR _firstBrush$[ebp]
  00084	e9 00 00 00 00	 jmp	 ??1CBrush@@UAE@XZ	; CBrush::~CBrush
__unwindfunclet$?DrawComponentRatio_Bar_Line@CFundDraw@@AAE_NPAVCDC@@ABVCEtcGraphColor@@ABVCRect@@ABVCGraphColor@@HHHABN4ABV?$CList@PAVCPacket@@PAV1@@@VCPenThickness@@@Z$13:
  00089	8d 8d d8 fe ff
	ff		 lea	 ecx, DWORD PTR _secondBrush$[ebp]
  0008f	e9 00 00 00 00	 jmp	 ??1CBrush@@UAE@XZ	; CBrush::~CBrush
__unwindfunclet$?DrawComponentRatio_Bar_Line@CFundDraw@@AAE_NPAVCDC@@ABVCEtcGraphColor@@ABVCRect@@ABVCGraphColor@@HHHABN4ABV?$CList@PAVCPacket@@PAV1@@@VCPenThickness@@@Z$14:
  00094	8d 8d e0 fe ff
	ff		 lea	 ecx, DWORD PTR _thirdBrush$[ebp]
  0009a	e9 00 00 00 00	 jmp	 ??1CBrush@@UAE@XZ	; CBrush::~CBrush
__unwindfunclet$?DrawComponentRatio_Bar_Line@CFundDraw@@AAE_NPAVCDC@@ABVCEtcGraphColor@@ABVCRect@@ABVCGraphColor@@HHHABN4ABV?$CList@PAVCPacket@@PAV1@@@VCPenThickness@@@Z$15:
  0009f	8d 8d e8 fe ff
	ff		 lea	 ecx, DWORD PTR _fourBrush$[ebp]
  000a5	e9 00 00 00 00	 jmp	 ??1CBrush@@UAE@XZ	; CBrush::~CBrush
__unwindfunclet$?DrawComponentRatio_Bar_Line@CFundDraw@@AAE_NPAVCDC@@ABVCEtcGraphColor@@ABVCRect@@ABVCGraphColor@@HHHABN4ABV?$CList@PAVCPacket@@PAV1@@@VCPenThickness@@@Z$16:
  000aa	8d 8d f0 fe ff
	ff		 lea	 ecx, DWORD PTR _fiveBrush$[ebp]
  000b0	e9 00 00 00 00	 jmp	 ??1CBrush@@UAE@XZ	; CBrush::~CBrush
__unwindfunclet$?DrawComponentRatio_Bar_Line@CFundDraw@@AAE_NPAVCDC@@ABVCEtcGraphColor@@ABVCRect@@ABVCGraphColor@@HHHABN4ABV?$CList@PAVCPacket@@PAV1@@@VCPenThickness@@@Z$17:
  000b5	8d 8d f8 fe ff
	ff		 lea	 ecx, DWORD PTR _sixBrush$[ebp]
  000bb	e9 00 00 00 00	 jmp	 ??1CBrush@@UAE@XZ	; CBrush::~CBrush
__unwindfunclet$?DrawComponentRatio_Bar_Line@CFundDraw@@AAE_NPAVCDC@@ABVCEtcGraphColor@@ABVCRect@@ABVCGraphColor@@HHHABN4ABV?$CList@PAVCPacket@@PAV1@@@VCPenThickness@@@Z$18:
  000c0	8d 8d 00 ff ff
	ff		 lea	 ecx, DWORD PTR _sevenBrush$[ebp]
  000c6	e9 00 00 00 00	 jmp	 ??1CBrush@@UAE@XZ	; CBrush::~CBrush
__unwindfunclet$?DrawComponentRatio_Bar_Line@CFundDraw@@AAE_NPAVCDC@@ABVCEtcGraphColor@@ABVCRect@@ABVCGraphColor@@HHHABN4ABV?$CList@PAVCPacket@@PAV1@@@VCPenThickness@@@Z$19:
  000cb	8d 8d 08 ff ff
	ff		 lea	 ecx, DWORD PTR _eightBrush$[ebp]
  000d1	e9 00 00 00 00	 jmp	 ??1CBrush@@UAE@XZ	; CBrush::~CBrush
__unwindfunclet$?DrawComponentRatio_Bar_Line@CFundDraw@@AAE_NPAVCDC@@ABVCEtcGraphColor@@ABVCRect@@ABVCGraphColor@@HHHABN4ABV?$CList@PAVCPacket@@PAV1@@@VCPenThickness@@@Z$20:
  000d6	8d 8d 10 ff ff
	ff		 lea	 ecx, DWORD PTR _nineBrush$[ebp]
  000dc	e9 00 00 00 00	 jmp	 ??1CBrush@@UAE@XZ	; CBrush::~CBrush
__unwindfunclet$?DrawComponentRatio_Bar_Line@CFundDraw@@AAE_NPAVCDC@@ABVCEtcGraphColor@@ABVCRect@@ABVCGraphColor@@HHHABN4ABV?$CList@PAVCPacket@@PAV1@@@VCPenThickness@@@Z$21:
  000e1	8d 8d 18 ff ff
	ff		 lea	 ecx, DWORD PTR _tenBrush$[ebp]
  000e7	e9 00 00 00 00	 jmp	 ??1CBrush@@UAE@XZ	; CBrush::~CBrush
__unwindfunclet$?DrawComponentRatio_Bar_Line@CFundDraw@@AAE_NPAVCDC@@ABVCEtcGraphColor@@ABVCRect@@ABVCGraphColor@@HHHABN4ABV?$CList@PAVCPacket@@PAV1@@@VCPenThickness@@@Z$22:
  000ec	8d 8d b4 fe ff
	ff		 lea	 ecx, DWORD PTR $T12[ebp]
  000f2	ff 25 00 00 00
	00		 jmp	 DWORD PTR __imp_??1?$CStringT@DV?$StrTraitMFC_DLL@DV?$ChTraitsCRT@D@ATL@@@@@ATL@@QAE@XZ
__unwindfunclet$?DrawComponentRatio_Bar_Line@CFundDraw@@AAE_NPAVCDC@@ABVCEtcGraphColor@@ABVCRect@@ABVCGraphColor@@HHHABN4ABV?$CList@PAVCPacket@@PAV1@@@VCPenThickness@@@Z$23:
  000f8	8d 8d a0 fe ff
	ff		 lea	 ecx, DWORD PTR $T9[ebp]
  000fe	ff 25 00 00 00
	00		 jmp	 DWORD PTR __imp_??1?$CStringT@DV?$StrTraitMFC_DLL@DV?$ChTraitsCRT@D@ATL@@@@@ATL@@QAE@XZ
__unwindfunclet$?DrawComponentRatio_Bar_Line@CFundDraw@@AAE_NPAVCDC@@ABVCEtcGraphColor@@ABVCRect@@ABVCGraphColor@@HHHABN4ABV?$CList@PAVCPacket@@PAV1@@@VCPenThickness@@@Z$24:
  00104	8d 4d ac	 lea	 ecx, DWORD PTR _strData$15[ebp]
  00107	ff 25 00 00 00
	00		 jmp	 DWORD PTR __imp_??1?$CStringT@DV?$StrTraitMFC_DLL@DV?$ChTraitsCRT@D@ATL@@@@@ATL@@QAE@XZ
__unwindfunclet$?DrawComponentRatio_Bar_Line@CFundDraw@@AAE_NPAVCDC@@ABVCEtcGraphColor@@ABVCRect@@ABVCGraphColor@@HHHABN4ABV?$CList@PAVCPacket@@PAV1@@@VCPenThickness@@@Z$25:
  0010d	8d 8d ac fe ff
	ff		 lea	 ecx, DWORD PTR $T10[ebp]
  00113	ff 25 00 00 00
	00		 jmp	 DWORD PTR __imp_??1?$CStringT@DV?$StrTraitMFC_DLL@DV?$ChTraitsCRT@D@ATL@@@@@ATL@@QAE@XZ
__unwindfunclet$?DrawComponentRatio_Bar_Line@CFundDraw@@AAE_NPAVCDC@@ABVCEtcGraphColor@@ABVCRect@@ABVCGraphColor@@HHHABN4ABV?$CList@PAVCPacket@@PAV1@@@VCPenThickness@@@Z$26:
  00119	8d 8d b0 fe ff
	ff		 lea	 ecx, DWORD PTR $T11[ebp]
  0011f	ff 25 00 00 00
	00		 jmp	 DWORD PTR __imp_??1?$CStringT@DV?$StrTraitMFC_DLL@DV?$ChTraitsCRT@D@ATL@@@@@ATL@@QAE@XZ
__unwindfunclet$?DrawComponentRatio_Bar_Line@CFundDraw@@AAE_NPAVCDC@@ABVCEtcGraphColor@@ABVCRect@@ABVCGraphColor@@HHHABN4ABV?$CList@PAVCPacket@@PAV1@@@VCPenThickness@@@Z$27:
  00125	8d 4d 94	 lea	 ecx, DWORD PTR _beforeStrData$13[ebp]
  00128	ff 25 00 00 00
	00		 jmp	 DWORD PTR __imp_??1?$CStringT@DV?$StrTraitMFC_DLL@DV?$ChTraitsCRT@D@ATL@@@@@ATL@@QAE@XZ
  0012e	cc		 int	 3
  0012f	cc		 int	 3
  00130	cc		 int	 3
  00131	cc		 int	 3
  00132	cc		 int	 3
__ehhandler$?DrawComponentRatio_Bar_Line@CFundDraw@@AAE_NPAVCDC@@ABVCEtcGraphColor@@ABVCRect@@ABVCGraphColor@@HHHABN4ABV?$CList@PAVCPacket@@PAV1@@@VCPenThickness@@@Z:
  00133	90		 npad	 1
  00134	90		 npad	 1
  00135	8b 54 24 08	 mov	 edx, DWORD PTR [esp+8]
  00139	8d 42 0c	 lea	 eax, DWORD PTR [edx+12]
  0013c	8b 8a 54 fe ff
	ff		 mov	 ecx, DWORD PTR [edx-428]
  00142	33 c8		 xor	 ecx, eax
  00144	e8 00 00 00 00	 call	 @__security_check_cookie@4
  00149	8b 4a fc	 mov	 ecx, DWORD PTR [edx-4]
  0014c	33 c8		 xor	 ecx, eax
  0014e	e8 00 00 00 00	 call	 @__security_check_cookie@4
  00153	b8 00 00 00 00	 mov	 eax, OFFSET __ehfuncinfo$?DrawComponentRatio_Bar_Line@CFundDraw@@AAE_NPAVCDC@@ABVCEtcGraphColor@@ABVCRect@@ABVCGraphColor@@HHHABN4ABV?$CList@PAVCPacket@@PAV1@@@VCPenThickness@@@Z
  00158	e9 00 00 00 00	 jmp	 ___CxxFrameHandler3
text$x	ENDS
?DrawComponentRatio_Bar_Line@CFundDraw@@AAE_NPAVCDC@@ABVCEtcGraphColor@@ABVCRect@@ABVCGraphColor@@HHHABN4ABV?$CList@PAVCPacket@@PAV1@@@VCPenThickness@@@Z ENDP ; CFundDraw::DrawComponentRatio_Bar_Line
; Function compile flags: /Ogtp
; File D:\git\src\IBK\IBK_DRFN\ProjSrc\SrcChartEx\ChartOCX\GraphDraw\FundDraw.cpp
;	COMDAT ?DrawComponentRatio_Pie@CFundDraw@@AAE_NPAVCDC@@ABVCRect@@ABVCDisplayAttributes@@ABVCDrawingGraphData@@ABVCSubGraphData@@@Z
_TEXT	SEGMENT
$T2 = -52						; size = 40
__$EHRec$ = -12						; size = 12
_pDC$ = 8						; size = 4
_realRegion$ = 12					; size = 4
_displayAttributes$ = 16				; size = 4
_drawingGraphData$ = 20					; size = 4
_subGraphData$ = 24					; size = 4
?DrawComponentRatio_Pie@CFundDraw@@AAE_NPAVCDC@@ABVCRect@@ABVCDisplayAttributes@@ABVCDrawingGraphData@@ABVCSubGraphData@@@Z PROC ; CFundDraw::DrawComponentRatio_Pie, COMDAT
; _this$ = ecx

; 927  : {

  00000	55		 push	 ebp
  00001	8b ec		 mov	 ebp, esp
  00003	6a ff		 push	 -1
  00005	68 00 00 00 00	 push	 __ehhandler$?DrawComponentRatio_Pie@CFundDraw@@AAE_NPAVCDC@@ABVCRect@@ABVCDisplayAttributes@@ABVCDrawingGraphData@@ABVCSubGraphData@@@Z
  0000a	64 a1 00 00 00
	00		 mov	 eax, DWORD PTR fs:0
  00010	50		 push	 eax
  00011	83 ec 28	 sub	 esp, 40			; 00000028H
  00014	53		 push	 ebx
  00015	a1 00 00 00 00	 mov	 eax, DWORD PTR ___security_cookie
  0001a	33 c5		 xor	 eax, ebp
  0001c	50		 push	 eax
  0001d	8d 45 f4	 lea	 eax, DWORD PTR __$EHRec$[ebp]
  00020	64 a3 00 00 00
	00		 mov	 DWORD PTR fs:0, eax

; 928  : 	return CPieDraw().DrawGraph(pDC, realRegion, displayAttributes, drawingGraphData, subGraphData);

  00026	8d 4d cc	 lea	 ecx, DWORD PTR $T2[ebp]
  00029	e8 00 00 00 00	 call	 ??0CPieDraw@@QAE@XZ	; CPieDraw::CPieDraw
  0002e	8b c8		 mov	 ecx, eax
  00030	ff 75 18	 push	 DWORD PTR _subGraphData$[ebp]
  00033	8b 01		 mov	 eax, DWORD PTR [ecx]
  00035	ff 75 14	 push	 DWORD PTR _drawingGraphData$[ebp]
  00038	c7 45 fc 00 00
	00 00		 mov	 DWORD PTR __$EHRec$[ebp+8], 0
  0003f	ff 75 10	 push	 DWORD PTR _displayAttributes$[ebp]
  00042	8b 40 08	 mov	 eax, DWORD PTR [eax+8]
  00045	ff 75 0c	 push	 DWORD PTR _realRegion$[ebp]
  00048	ff 75 08	 push	 DWORD PTR _pDC$[ebp]
  0004b	ff d0		 call	 eax
  0004d	8d 4d cc	 lea	 ecx, DWORD PTR $T2[ebp]
  00050	8a d8		 mov	 bl, al
  00052	e8 00 00 00 00	 call	 ??1CPieDraw@@UAE@XZ	; CPieDraw::~CPieDraw
  00057	8a c3		 mov	 al, bl

; 929  : }

  00059	8b 4d f4	 mov	 ecx, DWORD PTR __$EHRec$[ebp]
  0005c	64 89 0d 00 00
	00 00		 mov	 DWORD PTR fs:0, ecx
  00063	59		 pop	 ecx
  00064	5b		 pop	 ebx
  00065	8b e5		 mov	 esp, ebp
  00067	5d		 pop	 ebp
  00068	c2 14 00	 ret	 20			; 00000014H
_TEXT	ENDS
;	COMDAT text$x
text$x	SEGMENT
__unwindfunclet$?DrawComponentRatio_Pie@CFundDraw@@AAE_NPAVCDC@@ABVCRect@@ABVCDisplayAttributes@@ABVCDrawingGraphData@@ABVCSubGraphData@@@Z$0:
  00000	8d 4d cc	 lea	 ecx, DWORD PTR $T2[ebp]
  00003	e9 00 00 00 00	 jmp	 ??1CPieDraw@@UAE@XZ	; CPieDraw::~CPieDraw
  00008	cc		 int	 3
  00009	cc		 int	 3
  0000a	cc		 int	 3
  0000b	cc		 int	 3
  0000c	cc		 int	 3
__ehhandler$?DrawComponentRatio_Pie@CFundDraw@@AAE_NPAVCDC@@ABVCRect@@ABVCDisplayAttributes@@ABVCDrawingGraphData@@ABVCSubGraphData@@@Z:
  0000d	90		 npad	 1
  0000e	90		 npad	 1
  0000f	8b 54 24 08	 mov	 edx, DWORD PTR [esp+8]
  00013	8d 42 0c	 lea	 eax, DWORD PTR [edx+12]
  00016	8b 4a d0	 mov	 ecx, DWORD PTR [edx-48]
  00019	33 c8		 xor	 ecx, eax
  0001b	e8 00 00 00 00	 call	 @__security_check_cookie@4
  00020	b8 00 00 00 00	 mov	 eax, OFFSET __ehfuncinfo$?DrawComponentRatio_Pie@CFundDraw@@AAE_NPAVCDC@@ABVCRect@@ABVCDisplayAttributes@@ABVCDrawingGraphData@@ABVCSubGraphData@@@Z
  00025	e9 00 00 00 00	 jmp	 ___CxxFrameHandler3
text$x	ENDS
?DrawComponentRatio_Pie@CFundDraw@@AAE_NPAVCDC@@ABVCRect@@ABVCDisplayAttributes@@ABVCDrawingGraphData@@ABVCSubGraphData@@@Z ENDP ; CFundDraw::DrawComponentRatio_Pie
; Function compile flags: /Ogtp
; File D:\git\src\IBK\IBK_DRFN\ProjSrc\SrcChartEx\ChartOCX\GraphDraw\FundDraw.cpp
; File C:\Program Files (x86)\Microsoft Visual Studio\2019\Community\VC\Tools\MSVC\14.29.30133\atlmfc\include\afxtempl.h
; File D:\git\src\IBK\IBK_DRFN\ProjSrc\SrcChartEx\ChartOCX\GraphDraw\FundDraw.cpp
; File C:\Program Files (x86)\Microsoft Visual Studio\2019\Community\VC\Tools\MSVC\14.29.30133\atlmfc\include\afxtempl.h
; File D:\git\src\IBK\IBK_DRFN\ProjSrc\SrcChartEx\ChartOCX\GraphDraw\FundDraw.cpp
; File C:\Program Files (x86)\Microsoft Visual Studio\2019\Community\VC\Tools\MSVC\14.29.30133\atlmfc\include\afxtempl.h
; File D:\git\src\IBK\IBK_DRFN\ProjSrc\SrcChartEx\ChartOCX\GraphDraw\FundDraw.cpp
; File C:\Program Files (x86)\Microsoft Visual Studio\2019\Community\VC\Tools\MSVC\14.29.30133\atlmfc\include\afxwin1.inl
; File D:\git\src\IBK\IBK_DRFN\ProjSrc\SrcChartEx\ChartOCX\GraphDraw\FundDraw.cpp
; File C:\Program Files (x86)\Microsoft Visual Studio\2019\Community\VC\Tools\MSVC\14.29.30133\atlmfc\include\afxwin1.inl
; File D:\git\src\IBK\IBK_DRFN\ProjSrc\SrcChartEx\ChartOCX\GraphDraw\FundDraw.cpp
; File C:\Program Files (x86)\Microsoft Visual Studio\2019\Community\VC\Tools\MSVC\14.29.30133\atlmfc\include\afxwin1.inl
; File D:\git\src\IBK\IBK_DRFN\ProjSrc\SrcChartEx\ChartOCX\GraphDraw\FundDraw.cpp
; File C:\Program Files (x86)\Microsoft Visual Studio\2019\Community\VC\Tools\MSVC\14.29.30133\atlmfc\include\atltypes.h
; File D:\git\src\IBK\IBK_DRFN\ProjSrc\SrcChartEx\ChartOCX\GraphDraw\FundDraw.cpp
; File C:\Program Files (x86)\Microsoft Visual Studio\2019\Community\VC\Tools\MSVC\14.29.30133\atlmfc\include\afxtempl.h
; File D:\git\src\IBK\IBK_DRFN\ProjSrc\SrcChartEx\ChartOCX\GraphDraw\FundDraw.cpp
; File C:\Program Files (x86)\Microsoft Visual Studio\2019\Community\VC\Tools\MSVC\14.29.30133\atlmfc\include\afxtempl.h
; File D:\git\src\IBK\IBK_DRFN\ProjSrc\SrcChartEx\ChartOCX\GraphDraw\FundDraw.cpp
; File C:\Program Files (x86)\Microsoft Visual Studio\2019\Community\VC\Tools\MSVC\14.29.30133\atlmfc\include\afxtempl.h
; File D:\git\src\IBK\IBK_DRFN\ProjSrc\SrcChartEx\ChartOCX\GraphDraw\FundDraw.cpp
; File C:\Program Files (x86)\Microsoft Visual Studio\2019\Community\VC\Tools\MSVC\14.29.30133\atlmfc\include\afxtempl.h
; File D:\git\src\IBK\IBK_DRFN\ProjSrc\SrcChartEx\ChartOCX\GraphDraw\FundDraw.cpp
; File C:\Program Files (x86)\Microsoft Visual Studio\2019\Community\VC\Tools\MSVC\14.29.30133\atlmfc\include\afxtempl.h
; File D:\git\src\IBK\IBK_DRFN\ProjSrc\SrcChartEx\ChartOCX\GraphDraw\FundDraw.cpp
; File C:\Program Files (x86)\Microsoft Visual Studio\2019\Community\VC\Tools\MSVC\14.29.30133\atlmfc\include\atltypes.h
; File D:\git\src\IBK\IBK_DRFN\ProjSrc\SrcChartEx\ChartOCX\GraphDraw\FundDraw.cpp
; File C:\Program Files (x86)\Microsoft Visual Studio\2019\Community\VC\Tools\MSVC\14.29.30133\atlmfc\include\afxwin1.inl
; File D:\git\src\IBK\IBK_DRFN\ProjSrc\SrcChartEx\ChartOCX\GraphDraw\FundDraw.cpp
; File C:\Program Files (x86)\Microsoft Visual Studio\2019\Community\VC\Tools\MSVC\14.29.30133\atlmfc\include\atltypes.h
; File D:\git\src\IBK\IBK_DRFN\ProjSrc\SrcChartEx\ChartOCX\GraphDraw\FundDraw.cpp
; File C:\Program Files (x86)\Microsoft Visual Studio\2019\Community\VC\Tools\MSVC\14.29.30133\atlmfc\include\atltypes.h
; File D:\git\src\IBK\IBK_DRFN\ProjSrc\SrcChartEx\ChartOCX\GraphDraw\FundDraw.cpp
; File C:\Program Files (x86)\Microsoft Visual Studio\2019\Community\VC\Tools\MSVC\14.29.30133\atlmfc\include\afxwin1.inl
; File D:\git\src\IBK\IBK_DRFN\ProjSrc\SrcChartEx\ChartOCX\GraphDraw\FundDraw.cpp
;	COMDAT ?DrawFundMarketDispersion@CFundDraw@@AAE_NPAVCDC@@ABVCEtcGraphColor@@ABVCRect@@ABVCGraphColor@@HABN4ABV?$CList@PAVCPacket@@PAV1@@@VCPenThickness@@@Z
_TEXT	SEGMENT
_startPoint$ = -192					; size = 8
_endPoint$ = -184					; size = 8
_zeroPoint$ = -176					; size = 8
_DataPt$2 = -168					; size = 8
_pOldPen$1$ = -160					; size = 4
_pOldBrush$1$ = -156					; size = 4
_unitBrush$ = -152					; size = 8
_graphDrawingRegion$GSCopy$1$ = -144			; size = 4
_this$GSCopy$1$ = -140					; size = 4
_pDC$GSCopy$1$ = -136					; size = 4
_fundPacket$1$ = -132					; size = 4
_zoroLinePen$ = -128					; size = 8
_yPosMin$ = -120					; size = 8
_yPosMax$ = -112					; size = 8
_xPosMin$ = -104					; size = 8
_xPosMax$ = -96						; size = 8
$T3 = -88						; size = 8
$T4 = -88						; size = 8
$T5 = -88						; size = 8
_fundData$6 = -88					; size = 8
$T7 = -80						; size = 8
$T8 = -80						; size = 8
$T9 = -80						; size = 8
_marketData$10 = -80					; size = 8
_linePen$ = -72						; size = 8
_marketPacket$1$ = -64					; size = 4
_graphColor$GSCopy$1$ = -60				; size = 4
_fundPosition$1$ = -60					; size = 4
_marketPosition$1$ = -56				; size = 4
_dataCount$1$ = -52					; size = 4
_point4$11 = -48					; size = 32
__$ArrayPad$ = -16					; size = 4
__$EHRec$ = -12						; size = 12
_pDC$ = 8						; size = 4
_etcGraphColor$ = 12					; size = 4
_graphDrawingRegion$ = 16				; size = 4
_graphColor$ = 20					; size = 4
_dataStart$ = 24					; size = 4
_dataViewMax$ = 28					; size = 4
_dataViewMin$ = 32					; size = 4
_packetList$ = 36					; size = 4
_penThickness$ = 40					; size = 20
?DrawFundMarketDispersion@CFundDraw@@AAE_NPAVCDC@@ABVCEtcGraphColor@@ABVCRect@@ABVCGraphColor@@HABN4ABV?$CList@PAVCPacket@@PAV1@@@VCPenThickness@@@Z PROC ; CFundDraw::DrawFundMarketDispersion, COMDAT
; _this$ = ecx

; 833  : {

  00000	55		 push	 ebp
  00001	8b ec		 mov	 ebp, esp
  00003	6a ff		 push	 -1
  00005	68 00 00 00 00	 push	 __ehhandler$?DrawFundMarketDispersion@CFundDraw@@AAE_NPAVCDC@@ABVCEtcGraphColor@@ABVCRect@@ABVCGraphColor@@HABN4ABV?$CList@PAVCPacket@@PAV1@@@VCPenThickness@@@Z
  0000a	64 a1 00 00 00
	00		 mov	 eax, DWORD PTR fs:0
  00010	50		 push	 eax
  00011	81 ec b4 00 00
	00		 sub	 esp, 180		; 000000b4H
  00017	a1 00 00 00 00	 mov	 eax, DWORD PTR ___security_cookie
  0001c	33 c5		 xor	 eax, ebp
  0001e	89 45 f0	 mov	 DWORD PTR __$ArrayPad$[ebp], eax
  00021	53		 push	 ebx
  00022	56		 push	 esi
  00023	57		 push	 edi
  00024	50		 push	 eax
  00025	8d 45 f4	 lea	 eax, DWORD PTR __$EHRec$[ebp]
  00028	64 a3 00 00 00
	00		 mov	 DWORD PTR fs:0, eax
  0002e	89 8d 74 ff ff
	ff		 mov	 DWORD PTR _this$GSCopy$1$[ebp], ecx
  00034	8b 45 08	 mov	 eax, DWORD PTR _pDC$[ebp]
  00037	89 85 78 ff ff
	ff		 mov	 DWORD PTR _pDC$GSCopy$1$[ebp], eax
  0003d	8b 45 10	 mov	 eax, DWORD PTR _graphDrawingRegion$[ebp]
  00040	89 85 70 ff ff
	ff		 mov	 DWORD PTR _graphDrawingRegion$GSCopy$1$[ebp], eax
  00046	8b 45 14	 mov	 eax, DWORD PTR _graphColor$[ebp]
  00049	89 45 c4	 mov	 DWORD PTR _graphColor$GSCopy$1$[ebp], eax
  0004c	8b 45 24	 mov	 eax, DWORD PTR _packetList$[ebp]

; 834  : 	POSITION headPos = packetList.GetHeadPosition();

  0004f	8b 48 04	 mov	 ecx, DWORD PTR [eax+4]

; 835  : 	if(headPos == NULL) 

  00052	85 c9		 test	 ecx, ecx
  00054	0f 84 fa 03 00
	00		 je	 $LN6@DrawFundMa

; 836  : 		return false;
; 837  : 	CPacket* fundPacket;        // fund packet
; 838  : 	CPacket* marketPacket;		// market packet	
; 839  : 
; 840  : 	if(packetList.GetCount() >= 2){

  0005a	83 78 0c 02	 cmp	 DWORD PTR [eax+12], 2
  0005e	0f 8c f0 03 00
	00		 jl	 $LN6@DrawFundMa
; File C:\Program Files (x86)\Microsoft Visual Studio\2019\Community\VC\Tools\MSVC\14.29.30133\atlmfc\include\afxtempl.h

; 819  : 		rPosition = (POSITION) pNode->pNext;

  00064	8b 01		 mov	 eax, DWORD PTR [ecx]
; File D:\git\src\IBK\IBK_DRFN\ProjSrc\SrcChartEx\ChartOCX\GraphDraw\FundDraw.cpp

; 841  : 		fundPacket = packetList.GetNext(headPos);

  00066	8b 49 08	 mov	 ecx, DWORD PTR [ecx+8]

; 846  : 
; 847  : 	//displayData
; 848  : 	//POSITION fundPosition = fundPacket->GetnumericDataList()->FindIndex(dataStart-1);
; 849  : 	//POSITION marketPosition = marketPacket->GetnumericDataList()->FindIndex(dataStart-1);
; 850  : 	POSITION fundPosition = fundPacket->GetnumericDataList()->FindIndex(dataStart);

  00069	8b 75 18	 mov	 esi, DWORD PTR _dataStart$[ebp]
  0006c	8b fe		 mov	 edi, esi
  0006e	89 8d 7c ff ff
	ff		 mov	 DWORD PTR _fundPacket$1$[ebp], ecx
  00074	8b 40 08	 mov	 eax, DWORD PTR [eax+8]
  00077	89 45 c0	 mov	 DWORD PTR _marketPacket$1$[ebp], eax
  0007a	ff 15 00 00 00
	00		 call	 DWORD PTR __imp_?GetnumericDataList@CPacket@@QAEPAV?$CList@NN@@XZ
; File C:\Program Files (x86)\Microsoft Visual Studio\2019\Community\VC\Tools\MSVC\14.29.30133\atlmfc\include\afxtempl.h

; 1133 : 	if (nIndex >= m_nCount || nIndex < 0)

  00080	3b 70 0c	 cmp	 esi, DWORD PTR [eax+12]
  00083	7d 14		 jge	 SHORT $LN24@DrawFundMa
  00085	85 f6		 test	 esi, esi
  00087	78 10		 js	 SHORT $LN24@DrawFundMa

; 1135 : 
; 1136 : 	CNode* pNode = m_pNodeHead;

  00089	8b 58 04	 mov	 ebx, DWORD PTR [eax+4]

; 1137 : 	while (nIndex--)

  0008c	74 0d		 je	 SHORT $LN20@DrawFundMa
  0008e	66 90		 npad	 2
$LL21@DrawFundMa:

; 1138 : 	{
; 1139 : 		ASSERT(AfxIsValidAddress(pNode, sizeof(CNode)));
; 1140 : 		pNode = pNode->pNext;

  00090	8b 1b		 mov	 ebx, DWORD PTR [ebx]
  00092	83 ef 01	 sub	 edi, 1
  00095	75 f9		 jne	 SHORT $LL21@DrawFundMa

; 1141 : 	}
; 1142 : 	return (POSITION) pNode;

  00097	eb 02		 jmp	 SHORT $LN20@DrawFundMa
$LN24@DrawFundMa:

; 1134 : 		return NULL;  // went too far

  00099	33 db		 xor	 ebx, ebx
$LN20@DrawFundMa:
; File D:\git\src\IBK\IBK_DRFN\ProjSrc\SrcChartEx\ChartOCX\GraphDraw\FundDraw.cpp

; 851  : 	POSITION marketPosition = marketPacket->GetnumericDataList()->FindIndex(dataStart);

  0009b	8b 4d c0	 mov	 ecx, DWORD PTR _marketPacket$1$[ebp]
  0009e	8b fe		 mov	 edi, esi
  000a0	ff 15 00 00 00
	00		 call	 DWORD PTR __imp_?GetnumericDataList@CPacket@@QAEPAV?$CList@NN@@XZ
; File C:\Program Files (x86)\Microsoft Visual Studio\2019\Community\VC\Tools\MSVC\14.29.30133\atlmfc\include\afxtempl.h

; 1133 : 	if (nIndex >= m_nCount || nIndex < 0)

  000a6	3b 70 0c	 cmp	 esi, DWORD PTR [eax+12]
  000a9	7d 15		 jge	 SHORT $LN30@DrawFundMa
  000ab	85 f6		 test	 esi, esi
  000ad	78 11		 js	 SHORT $LN30@DrawFundMa

; 1135 : 
; 1136 : 	CNode* pNode = m_pNodeHead;

  000af	8b 40 04	 mov	 eax, DWORD PTR [eax+4]
  000b2	89 45 c8	 mov	 DWORD PTR _marketPosition$1$[ebp], eax

; 1137 : 	while (nIndex--)

  000b5	74 0e		 je	 SHORT $LN26@DrawFundMa
$LL27@DrawFundMa:

; 1138 : 	{
; 1139 : 		ASSERT(AfxIsValidAddress(pNode, sizeof(CNode)));
; 1140 : 		pNode = pNode->pNext;

  000b7	8b 00		 mov	 eax, DWORD PTR [eax]
  000b9	83 ef 01	 sub	 edi, 1
  000bc	75 f9		 jne	 SHORT $LL27@DrawFundMa

; 1141 : 	}
; 1142 : 	return (POSITION) pNode;

  000be	eb 02		 jmp	 SHORT $LN110@DrawFundMa
$LN30@DrawFundMa:

; 1134 : 		return NULL;  // went too far

  000c0	33 c0		 xor	 eax, eax
$LN110@DrawFundMa:
; File D:\git\src\IBK\IBK_DRFN\ProjSrc\SrcChartEx\ChartOCX\GraphDraw\FundDraw.cpp

; 853  : 	if(fundPosition == NULL || marketPosition == NULL)

  000c2	89 45 c8	 mov	 DWORD PTR _marketPosition$1$[ebp], eax
$LN26@DrawFundMa:
  000c5	85 db		 test	 ebx, ebx
  000c7	0f 84 87 03 00
	00		 je	 $LN6@DrawFundMa
  000cd	85 c0		 test	 eax, eax
  000cf	0f 84 7f 03 00
	00		 je	 $LN6@DrawFundMa

; 854  : 		return false;
; 855  : 	
; 856  : 	int realDrawStart = fundPacket->GetStartPeriod() +1;

  000d5	8b b5 7c ff ff
	ff		 mov	 esi, DWORD PTR _fundPacket$1$[ebp]
  000db	8b ce		 mov	 ecx, esi
  000dd	ff 15 00 00 00
	00		 call	 DWORD PTR __imp_?GetStartPeriod@CPacket@@QAEHXZ

; 857  : 	int dataCount = fundPacket->GetCount();

  000e3	8b 16		 mov	 edx, DWORD PTR [esi]
  000e5	8b ce		 mov	 ecx, esi
  000e7	8d 78 01	 lea	 edi, DWORD PTR [eax+1]
  000ea	ff 52 14	 call	 DWORD PTR [edx+20]

; 858  : 	double xPosMin = 0.0, xPosMax = 0.0, yPosMin = 0.0, yPosMax = 0.0;
; 859  : 	fundPacket->GetMinMax(realDrawStart, dataCount, yPosMin, yPosMax);

  000ed	6a 00		 push	 0
  000ef	8d 4d 90	 lea	 ecx, DWORD PTR _yPosMax$[ebp]
  000f2	89 45 cc	 mov	 DWORD PTR _dataCount$1$[ebp], eax
  000f5	51		 push	 ecx
  000f6	8d 4d 88	 lea	 ecx, DWORD PTR _yPosMin$[ebp]
  000f9	0f 57 c0	 xorps	 xmm0, xmm0
  000fc	51		 push	 ecx
  000fd	50		 push	 eax
  000fe	8b ce		 mov	 ecx, esi
  00100	f2 0f 11 45 98	 movsd	 QWORD PTR _xPosMin$[ebp], xmm0
  00105	8b 35 00 00 00
	00		 mov	 esi, DWORD PTR __imp_?GetMinMax@CPacket@@QAEHHHAAN0H@Z
  0010b	57		 push	 edi
  0010c	f2 0f 11 45 a0	 movsd	 QWORD PTR _xPosMax$[ebp], xmm0
  00111	f2 0f 11 45 88	 movsd	 QWORD PTR _yPosMin$[ebp], xmm0
  00116	f2 0f 11 45 90	 movsd	 QWORD PTR _yPosMax$[ebp], xmm0
  0011b	ff d6		 call	 esi

; 860  : 	marketPacket->GetMinMax(realDrawStart, dataCount, xPosMin, xPosMax);

  0011d	8b 4d c0	 mov	 ecx, DWORD PTR _marketPacket$1$[ebp]
  00120	8d 45 a0	 lea	 eax, DWORD PTR _xPosMax$[ebp]
  00123	6a 00		 push	 0
  00125	50		 push	 eax
  00126	8d 45 98	 lea	 eax, DWORD PTR _xPosMin$[ebp]
  00129	50		 push	 eax
  0012a	ff 75 cc	 push	 DWORD PTR _dataCount$1$[ebp]
  0012d	57		 push	 edi
  0012e	ff d6		 call	 esi

; 861  : 	
; 862  : 	CBrush unitBrush(graphColor.GetColor2());

  00130	8b 4d c4	 mov	 ecx, DWORD PTR _graphColor$GSCopy$1$[ebp]
  00133	ff 15 00 00 00
	00		 call	 DWORD PTR __imp_?GetColor2@CGraphColor@@QBEKXZ
  00139	50		 push	 eax
  0013a	8d 8d 68 ff ff
	ff		 lea	 ecx, DWORD PTR _unitBrush$[ebp]
  00140	e8 00 00 00 00	 call	 ??0CBrush@@QAE@K@Z	; CBrush::CBrush
  00145	c7 45 fc 00 00
	00 00		 mov	 DWORD PTR __$EHRec$[ebp+8], 0
; File C:\Program Files (x86)\Microsoft Visual Studio\2019\Community\VC\Tools\MSVC\14.29.30133\atlmfc\include\afxwin1.inl

; 70   : 	{ m_hObject = NULL; }

  0014c	c7 45 bc 00 00
	00 00		 mov	 DWORD PTR _linePen$[ebp+4], 0

; 104  : 	{ }

  00153	c7 45 b8 00 00
	00 00		 mov	 DWORD PTR _linePen$[ebp], OFFSET ??_7CPen@@6B@

; 70   : 	{ m_hObject = NULL; }

  0015a	c7 45 84 00 00
	00 00		 mov	 DWORD PTR _zoroLinePen$[ebp+4], 0

; 104  : 	{ }

  00161	c7 45 80 00 00
	00 00		 mov	 DWORD PTR _zoroLinePen$[ebp], OFFSET ??_7CPen@@6B@
; File D:\git\src\IBK\IBK_DRFN\ProjSrc\SrcChartEx\ChartOCX\GraphDraw\FundDraw.cpp

; 866  : 	int lineThickness = penThickness.GetThickness1();

  00168	8d 4d 28	 lea	 ecx, DWORD PTR _penThickness$[ebp]
  0016b	c6 45 fc 02	 mov	 BYTE PTR __$EHRec$[ebp+8], 2
  0016f	ff 15 00 00 00
	00		 call	 DWORD PTR __imp_?GetThickness1@CPenThickness@@QBEHXZ

; 867  : 	zoroLinePen.CreatePen(PS_SOLID, 1, graphColor.GetColor1());

  00175	8b 4d c4	 mov	 ecx, DWORD PTR _graphColor$GSCopy$1$[ebp]
  00178	8b f8		 mov	 edi, eax
  0017a	ff 15 00 00 00
	00		 call	 DWORD PTR __imp_?GetColor1@CGraphColor@@QBEKXZ
; File C:\Program Files (x86)\Microsoft Visual Studio\2019\Community\VC\Tools\MSVC\14.29.30133\atlmfc\include\afxwin1.inl

; 108  : 	{ return Attach(::CreatePen(nPenStyle, nWidth, crColor)); }

  00180	8b 35 00 00 00
	00		 mov	 esi, DWORD PTR __imp__CreatePen@12
  00186	50		 push	 eax
  00187	6a 01		 push	 1
  00189	6a 00		 push	 0
  0018b	ff d6		 call	 esi
  0018d	50		 push	 eax
  0018e	8d 4d 80	 lea	 ecx, DWORD PTR _zoroLinePen$[ebp]
  00191	e8 00 00 00 00	 call	 ?Attach@CGdiObject@@QAEHPAX@Z ; CGdiObject::Attach
; File D:\git\src\IBK\IBK_DRFN\ProjSrc\SrcChartEx\ChartOCX\GraphDraw\FundDraw.cpp

; 868  : 	linePen.CreatePen(PS_SOLID, lineThickness, graphColor.GetColor6());

  00196	8b 4d c4	 mov	 ecx, DWORD PTR _graphColor$GSCopy$1$[ebp]
  00199	ff 15 00 00 00
	00		 call	 DWORD PTR __imp_?GetColor6@CGraphColor@@QBEKXZ
; File C:\Program Files (x86)\Microsoft Visual Studio\2019\Community\VC\Tools\MSVC\14.29.30133\atlmfc\include\afxwin1.inl

; 108  : 	{ return Attach(::CreatePen(nPenStyle, nWidth, crColor)); }

  0019f	50		 push	 eax
  001a0	57		 push	 edi
  001a1	6a 00		 push	 0
  001a3	ff d6		 call	 esi
  001a5	50		 push	 eax
  001a6	8d 4d b8	 lea	 ecx, DWORD PTR _linePen$[ebp]
  001a9	e8 00 00 00 00	 call	 ?Attach@CGdiObject@@QAEHPAX@Z ; CGdiObject::Attach
; File D:\git\src\IBK\IBK_DRFN\ProjSrc\SrcChartEx\ChartOCX\GraphDraw\FundDraw.cpp

; 872  : 	pOldBrush = (CBrush*)pDC->SelectObject(&unitBrush);

  001ae	8b b5 78 ff ff
	ff		 mov	 esi, DWORD PTR _pDC$GSCopy$1$[ebp]
  001b4	8d 85 68 ff ff
	ff		 lea	 eax, DWORD PTR _unitBrush$[ebp]
  001ba	50		 push	 eax
  001bb	8b ce		 mov	 ecx, esi
  001bd	e8 00 00 00 00	 call	 ?SelectObject@CDC@@QAEPAVCBrush@@PAV2@@Z ; CDC::SelectObject
  001c2	89 85 64 ff ff
	ff		 mov	 DWORD PTR _pOldBrush$1$[ebp], eax

; 873  : 	pOldPen = (CPen*)pDC->SelectObject(&linePen);

  001c8	8b ce		 mov	 ecx, esi
  001ca	8d 45 b8	 lea	 eax, DWORD PTR _linePen$[ebp]
  001cd	50		 push	 eax
  001ce	e8 00 00 00 00	 call	 ?SelectObject@CDC@@QAEPAVCPen@@PAV2@@Z ; CDC::SelectObject

; 876  : 	for(int i = dataStart; i <= dataCount; i++){

  001d3	8b 4d 18	 mov	 ecx, DWORD PTR _dataStart$[ebp]
  001d6	89 85 60 ff ff
	ff		 mov	 DWORD PTR _pOldPen$1$[ebp], eax
  001dc	8b 45 cc	 mov	 eax, DWORD PTR _dataCount$1$[ebp]
  001df	3b c8		 cmp	 ecx, eax
  001e1	0f 8f ce 00 00
	00		 jg	 $LN108@DrawFundMa

; 854  : 		return false;
; 855  : 	
; 856  : 	int realDrawStart = fundPacket->GetStartPeriod() +1;

  001e7	2b c1		 sub	 eax, ecx
  001e9	40		 inc	 eax
  001ea	89 45 cc	 mov	 DWORD PTR _dataCount$1$[ebp], eax
  001ed	0f 1f 00	 npad	 3
$LL4@DrawFundMa:

; 879  : 		double fundData = fundPacket->GetnumericDataList()->GetNext(fundPosition);

  001f0	8b 8d 7c ff ff
	ff		 mov	 ecx, DWORD PTR _fundPacket$1$[ebp]
  001f6	0f 57 c0	 xorps	 xmm0, xmm0
  001f9	8b 35 00 00 00
	00		 mov	 esi, DWORD PTR __imp_?GetnumericDataList@CPacket@@QAEPAV?$CList@NN@@XZ
; File C:\Program Files (x86)\Microsoft Visual Studio\2019\Community\VC\Tools\MSVC\14.29.30133\atlmfc\include\atltypes.h

; 400  : 	x = 0;

  001ff	0f 11 45 d0	 movups	 XMMWORD PTR _point4$11[ebp], xmm0
  00203	0f 11 45 e0	 movups	 XMMWORD PTR _point4$11[ebp+16], xmm0
; File D:\git\src\IBK\IBK_DRFN\ProjSrc\SrcChartEx\ChartOCX\GraphDraw\FundDraw.cpp

; 879  : 		double fundData = fundPacket->GetnumericDataList()->GetNext(fundPosition);

  00207	ff d6		 call	 esi
  00209	f2 0f 10 43 08	 movsd	 xmm0, QWORD PTR [ebx+8]
; File C:\Program Files (x86)\Microsoft Visual Studio\2019\Community\VC\Tools\MSVC\14.29.30133\atlmfc\include\afxtempl.h

; 811  : 	{ CNode* pNode = (CNode*) rPosition;

  0020e	8d 03		 lea	 eax, DWORD PTR [ebx]

; 813  : 		rPosition = (POSITION) pNode->pNext;

  00210	8b 1b		 mov	 ebx, DWORD PTR [ebx]
; File D:\git\src\IBK\IBK_DRFN\ProjSrc\SrcChartEx\ChartOCX\GraphDraw\FundDraw.cpp

; 880  : 		double marketData = marketPacket->GetnumericDataList()->GetNext(marketPosition);

  00212	8b 4d c0	 mov	 ecx, DWORD PTR _marketPacket$1$[ebp]
; File C:\Program Files (x86)\Microsoft Visual Studio\2019\Community\VC\Tools\MSVC\14.29.30133\atlmfc\include\afxtempl.h

; 813  : 		rPosition = (POSITION) pNode->pNext;

  00215	89 5d c4	 mov	 DWORD PTR _fundPosition$1$[ebp], ebx
; File D:\git\src\IBK\IBK_DRFN\ProjSrc\SrcChartEx\ChartOCX\GraphDraw\FundDraw.cpp

; 879  : 		double fundData = fundPacket->GetnumericDataList()->GetNext(fundPosition);

  00218	f2 0f 11 45 a8	 movsd	 QWORD PTR _fundData$6[ebp], xmm0

; 880  : 		double marketData = marketPacket->GetnumericDataList()->GetNext(marketPosition);

  0021d	ff d6		 call	 esi
; File C:\Program Files (x86)\Microsoft Visual Studio\2019\Community\VC\Tools\MSVC\14.29.30133\atlmfc\include\afxtempl.h

; 811  : 	{ CNode* pNode = (CNode*) rPosition;

  0021f	8b 4d c8	 mov	 ecx, DWORD PTR _marketPosition$1$[ebp]
  00222	8b c1		 mov	 eax, ecx
; File D:\git\src\IBK\IBK_DRFN\ProjSrc\SrcChartEx\ChartOCX\GraphDraw\FundDraw.cpp

; 880  : 		double marketData = marketPacket->GetnumericDataList()->GetNext(marketPosition);

  00224	f2 0f 10 40 08	 movsd	 xmm0, QWORD PTR [eax+8]

; 882  : 		CPoint DataPt = CDataConversion::GetVerticalPoint(graphDrawingRegion, yPosMin, yPosMax, xPosMin, xPosMax, fundData, marketData);

  00229	8d 45 b0	 lea	 eax, DWORD PTR _marketData$10[ebp]
; File C:\Program Files (x86)\Microsoft Visual Studio\2019\Community\VC\Tools\MSVC\14.29.30133\atlmfc\include\afxtempl.h

; 813  : 		rPosition = (POSITION) pNode->pNext;

  0022c	8b 09		 mov	 ecx, DWORD PTR [ecx]
; File D:\git\src\IBK\IBK_DRFN\ProjSrc\SrcChartEx\ChartOCX\GraphDraw\FundDraw.cpp

; 882  : 		CPoint DataPt = CDataConversion::GetVerticalPoint(graphDrawingRegion, yPosMin, yPosMax, xPosMin, xPosMax, fundData, marketData);

  0022e	50		 push	 eax
  0022f	8d 45 a8	 lea	 eax, DWORD PTR _fundData$6[ebp]
; File C:\Program Files (x86)\Microsoft Visual Studio\2019\Community\VC\Tools\MSVC\14.29.30133\atlmfc\include\afxtempl.h

; 813  : 		rPosition = (POSITION) pNode->pNext;

  00232	89 4d c8	 mov	 DWORD PTR _marketPosition$1$[ebp], ecx
; File D:\git\src\IBK\IBK_DRFN\ProjSrc\SrcChartEx\ChartOCX\GraphDraw\FundDraw.cpp

; 882  : 		CPoint DataPt = CDataConversion::GetVerticalPoint(graphDrawingRegion, yPosMin, yPosMax, xPosMin, xPosMax, fundData, marketData);

  00235	50		 push	 eax
  00236	8d 45 a0	 lea	 eax, DWORD PTR _xPosMax$[ebp]
  00239	f2 0f 11 45 b0	 movsd	 QWORD PTR _marketData$10[ebp], xmm0
  0023e	50		 push	 eax
  0023f	8d 45 98	 lea	 eax, DWORD PTR _xPosMin$[ebp]
  00242	50		 push	 eax
  00243	8d 45 90	 lea	 eax, DWORD PTR _yPosMax$[ebp]
  00246	50		 push	 eax
  00247	8d 45 88	 lea	 eax, DWORD PTR _yPosMin$[ebp]
  0024a	50		 push	 eax
  0024b	ff b5 70 ff ff
	ff		 push	 DWORD PTR _graphDrawingRegion$GSCopy$1$[ebp]
  00251	8d 85 58 ff ff
	ff		 lea	 eax, DWORD PTR _DataPt$2[ebp]
  00257	50		 push	 eax
  00258	e8 00 00 00 00	 call	 ?GetVerticalPoint@CDataConversion@@SA?AVCPoint@@ABVCRect@@ABN11111@Z ; CDataConversion::GetVerticalPoint

; 883  : 		InsertFourPointToArray(point4, CPoint(DataPt.x - unitSize, DataPt.y), CPoint(DataPt.x, DataPt.y - unitSize), CPoint(DataPt.x + unitSize, DataPt.y), CPoint(DataPt.x, DataPt.y + unitSize));

  0025d	8b 9d 5c ff ff
	ff		 mov	 ebx, DWORD PTR _DataPt$2[ebp+4]
  00263	83 c4 20	 add	 esp, 32			; 00000020H
; File C:\Program Files (x86)\Microsoft Visual Studio\2019\Community\VC\Tools\MSVC\14.29.30133\atlmfc\include\atltypes.h

; 408  : 	x = initX;

  00266	8b bd 58 ff ff
	ff		 mov	 edi, DWORD PTR _DataPt$2[ebp]
; File D:\git\src\IBK\IBK_DRFN\ProjSrc\SrcChartEx\ChartOCX\GraphDraw\FundDraw.cpp

; 883  : 		InsertFourPointToArray(point4, CPoint(DataPt.x - unitSize, DataPt.y), CPoint(DataPt.x, DataPt.y - unitSize), CPoint(DataPt.x + unitSize, DataPt.y), CPoint(DataPt.x, DataPt.y + unitSize));

  0026c	8d 43 05	 lea	 eax, DWORD PTR [ebx+5]
  0026f	50		 push	 eax
  00270	57		 push	 edi
  00271	53		 push	 ebx
  00272	8d 57 05	 lea	 edx, DWORD PTR [edi+5]
  00275	52		 push	 edx
  00276	8d 4b fb	 lea	 ecx, DWORD PTR [ebx-5]
  00279	51		 push	 ecx
  0027a	57		 push	 edi
  0027b	53		 push	 ebx
  0027c	8d 77 fb	 lea	 esi, DWORD PTR [edi-5]
  0027f	8b bd 74 ff ff
	ff		 mov	 edi, DWORD PTR _this$GSCopy$1$[ebp]
  00285	56		 push	 esi
  00286	8d 45 d0	 lea	 eax, DWORD PTR _point4$11[ebp]
  00289	8b cf		 mov	 ecx, edi
  0028b	50		 push	 eax
  0028c	e8 00 00 00 00	 call	 ?InsertFourPointToArray@CDraw@@IAEXPAVCPoint@@V2@111@Z ; CDraw::InsertFourPointToArray
; File C:\Program Files (x86)\Microsoft Visual Studio\2019\Community\VC\Tools\MSVC\14.29.30133\atlmfc\include\afxwin1.inl

; 535  : 	{ ASSERT(m_hDC != NULL); return ::Polygon(m_hDC, lpPoints, nCount); }

  00291	8b b5 78 ff ff
	ff		 mov	 esi, DWORD PTR _pDC$GSCopy$1$[ebp]
  00297	8d 45 d0	 lea	 eax, DWORD PTR _point4$11[ebp]
  0029a	6a 04		 push	 4
  0029c	50		 push	 eax
  0029d	ff 76 04	 push	 DWORD PTR [esi+4]
  002a0	ff 15 00 00 00
	00		 call	 DWORD PTR __imp__Polygon@12
; File D:\git\src\IBK\IBK_DRFN\ProjSrc\SrcChartEx\ChartOCX\GraphDraw\FundDraw.cpp

; 876  : 	for(int i = dataStart; i <= dataCount; i++){

  002a6	83 6d cc 01	 sub	 DWORD PTR _dataCount$1$[ebp], 1
  002aa	8b 5d c4	 mov	 ebx, DWORD PTR _fundPosition$1$[ebp]
  002ad	0f 85 3d ff ff
	ff		 jne	 $LL4@DrawFundMa
  002b3	eb 06		 jmp	 SHORT $LN3@DrawFundMa
$LN108@DrawFundMa:
  002b5	8b bd 74 ff ff
	ff		 mov	 edi, DWORD PTR _this$GSCopy$1$[ebp]
$LN3@DrawFundMa:

; 884  : 		pDC->Polygon(point4, 4);
; 885  : 	}
; 886  : 
; 887  : 	//0  
; 888  : 	pDC->SelectObject(&zoroLinePen);

  002bb	8d 45 80	 lea	 eax, DWORD PTR _zoroLinePen$[ebp]
  002be	8b ce		 mov	 ecx, esi
  002c0	50		 push	 eax
  002c1	e8 00 00 00 00	 call	 ?SelectObject@CDC@@QAEPAVCPen@@PAV2@@Z ; CDC::SelectObject

; 889  : 	CPoint zeroPoint = CDataConversion::GetVerticalPoint(graphDrawingRegion, yPosMin, yPosMax, xPosMin, xPosMax, 0.0, 0.0);

  002c6	8b 9d 70 ff ff
	ff		 mov	 ebx, DWORD PTR _graphDrawingRegion$GSCopy$1$[ebp]
  002cc	8d 45 a8	 lea	 eax, DWORD PTR $T5[ebp]
  002cf	50		 push	 eax
  002d0	8d 45 b0	 lea	 eax, DWORD PTR $T9[ebp]
  002d3	0f 57 c0	 xorps	 xmm0, xmm0
  002d6	50		 push	 eax
  002d7	8d 45 a0	 lea	 eax, DWORD PTR _xPosMax$[ebp]
  002da	f2 0f 11 45 a8	 movsd	 QWORD PTR $T5[ebp], xmm0
  002df	50		 push	 eax
  002e0	8d 45 98	 lea	 eax, DWORD PTR _xPosMin$[ebp]
  002e3	f2 0f 11 45 b0	 movsd	 QWORD PTR $T9[ebp], xmm0
  002e8	50		 push	 eax
  002e9	8d 45 90	 lea	 eax, DWORD PTR _yPosMax$[ebp]
  002ec	50		 push	 eax
  002ed	8d 45 88	 lea	 eax, DWORD PTR _yPosMin$[ebp]
  002f0	50		 push	 eax
  002f1	8d 85 50 ff ff
	ff		 lea	 eax, DWORD PTR _zeroPoint$[ebp]
  002f7	53		 push	 ebx
  002f8	50		 push	 eax
  002f9	e8 00 00 00 00	 call	 ?GetVerticalPoint@CDataConversion@@SA?AVCPoint@@ABVCRect@@ABN11111@Z ; CDataConversion::GetVerticalPoint
  002fe	0f 57 c9	 xorps	 xmm1, xmm1
  00301	83 c4 20	 add	 esp, 32			; 00000020H

; 890  : 	if(yPosMin < 0 && yPosMax > 0 )

  00304	66 0f 2f 4d 88	 comisd	 xmm1, QWORD PTR _yPosMin$[ebp]
  00309	76 23		 jbe	 SHORT $LN10@DrawFundMa
  0030b	f2 0f 10 45 90	 movsd	 xmm0, QWORD PTR _yPosMax$[ebp]
  00310	66 0f 2f c1	 comisd	 xmm0, xmm1
  00314	76 18		 jbe	 SHORT $LN10@DrawFundMa
; File C:\Program Files (x86)\Microsoft Visual Studio\2019\Community\VC\Tools\MSVC\14.29.30133\atlmfc\include\atltypes.h

; 409  : 	y = initY;

  00316	8b 85 54 ff ff
	ff		 mov	 eax, DWORD PTR _zeroPoint$[ebp+4]
; File D:\git\src\IBK\IBK_DRFN\ProjSrc\SrcChartEx\ChartOCX\GraphDraw\FundDraw.cpp

; 891  : 		CDraw::DrawLine(pDC, CPoint(graphDrawingRegion.left, zeroPoint.y), CPoint(graphDrawingRegion.right, zeroPoint.y));

  0031c	8b cf		 mov	 ecx, edi
  0031e	50		 push	 eax
  0031f	ff 73 08	 push	 DWORD PTR [ebx+8]
  00322	50		 push	 eax
  00323	ff 33		 push	 DWORD PTR [ebx]
  00325	56		 push	 esi
  00326	e8 00 00 00 00	 call	 ?DrawLine@CDraw@@IAEXPAVCDC@@UtagPOINT@@1@Z ; CDraw::DrawLine
  0032b	0f 57 c9	 xorps	 xmm1, xmm1
$LN10@DrawFundMa:

; 892  : 	if(xPosMin < 0 && xPosMax > 0 )

  0032e	66 0f 2f 4d 98	 comisd	 xmm1, QWORD PTR _xPosMin$[ebp]
  00333	76 21		 jbe	 SHORT $LN11@DrawFundMa
  00335	f2 0f 10 45 a0	 movsd	 xmm0, QWORD PTR _xPosMax$[ebp]
  0033a	66 0f 2f c1	 comisd	 xmm0, xmm1
  0033e	76 16		 jbe	 SHORT $LN11@DrawFundMa

; 893  : 		CDraw::DrawLine(pDC, CPoint(zeroPoint.x, graphDrawingRegion.top), CPoint(zeroPoint.x, graphDrawingRegion.bottom));

  00340	ff 73 0c	 push	 DWORD PTR [ebx+12]
; File C:\Program Files (x86)\Microsoft Visual Studio\2019\Community\VC\Tools\MSVC\14.29.30133\atlmfc\include\atltypes.h

; 408  : 	x = initX;

  00343	8b 85 50 ff ff
	ff		 mov	 eax, DWORD PTR _zeroPoint$[ebp]
; File D:\git\src\IBK\IBK_DRFN\ProjSrc\SrcChartEx\ChartOCX\GraphDraw\FundDraw.cpp

; 893  : 		CDraw::DrawLine(pDC, CPoint(zeroPoint.x, graphDrawingRegion.top), CPoint(zeroPoint.x, graphDrawingRegion.bottom));

  00349	8b cf		 mov	 ecx, edi
  0034b	50		 push	 eax
  0034c	ff 73 04	 push	 DWORD PTR [ebx+4]
  0034f	50		 push	 eax
  00350	56		 push	 esi
  00351	e8 00 00 00 00	 call	 ?DrawLine@CDraw@@IAEXPAVCDC@@UtagPOINT@@1@Z ; CDraw::DrawLine
$LN11@DrawFundMa:

; 894  : 
; 895  : 	// line     .
; 896  : 	CPoint ptStart( 0, 0);
; 897  : 	CPoint ptEnd( 0, 0);
; 898  : 
; 899  : 	pDC->SelectObject(&linePen);

  00356	8d 45 b8	 lea	 eax, DWORD PTR _linePen$[ebp]
  00359	8b ce		 mov	 ecx, esi
  0035b	50		 push	 eax
  0035c	e8 00 00 00 00	 call	 ?SelectObject@CDC@@QAEPAVCPen@@PAV2@@Z ; CDC::SelectObject

; 900  : 	//==============================================================================
; 901  : 	//sy 2005.10.04 fund     
; 902  : 	//fundPacket->GetFundTypeStartandEndPoint(ptStart, ptEnd);
; 903  : 	//==============================================================================
; 904  : 	CPoint startPoint = CDataConversion::GetVerticalPoint(graphDrawingRegion, yPosMin, yPosMax, xPosMin, xPosMax, ptStart.y, ptStart.x);

  00361	8d 45 a8	 lea	 eax, DWORD PTR $T4[ebp]
  00364	0f 57 c0	 xorps	 xmm0, xmm0
  00367	50		 push	 eax
  00368	8d 45 b0	 lea	 eax, DWORD PTR $T8[ebp]
  0036b	f2 0f 11 45 a8	 movsd	 QWORD PTR $T4[ebp], xmm0
  00370	50		 push	 eax
  00371	8d 45 a0	 lea	 eax, DWORD PTR _xPosMax$[ebp]
  00374	f2 0f 11 45 b0	 movsd	 QWORD PTR $T8[ebp], xmm0
  00379	50		 push	 eax
  0037a	8d 45 98	 lea	 eax, DWORD PTR _xPosMin$[ebp]
  0037d	50		 push	 eax
  0037e	8d 45 90	 lea	 eax, DWORD PTR _yPosMax$[ebp]
  00381	50		 push	 eax
  00382	8d 45 88	 lea	 eax, DWORD PTR _yPosMin$[ebp]
  00385	50		 push	 eax
  00386	8d 85 40 ff ff
	ff		 lea	 eax, DWORD PTR _startPoint$[ebp]
  0038c	53		 push	 ebx
  0038d	50		 push	 eax
  0038e	e8 00 00 00 00	 call	 ?GetVerticalPoint@CDataConversion@@SA?AVCPoint@@ABVCRect@@ABN11111@Z ; CDataConversion::GetVerticalPoint

; 905  : 	CPoint endPoint = CDataConversion::GetVerticalPoint(graphDrawingRegion, yPosMin, yPosMax, xPosMin, xPosMax, ptEnd.y, ptEnd.x);

  00393	8d 45 a8	 lea	 eax, DWORD PTR $T3[ebp]
  00396	0f 57 c0	 xorps	 xmm0, xmm0
  00399	50		 push	 eax
  0039a	8d 45 b0	 lea	 eax, DWORD PTR $T7[ebp]
  0039d	f2 0f 11 45 a8	 movsd	 QWORD PTR $T3[ebp], xmm0
  003a2	50		 push	 eax
  003a3	8d 45 a0	 lea	 eax, DWORD PTR _xPosMax$[ebp]
  003a6	f2 0f 11 45 b0	 movsd	 QWORD PTR $T7[ebp], xmm0
  003ab	50		 push	 eax
  003ac	8d 45 98	 lea	 eax, DWORD PTR _xPosMin$[ebp]
  003af	50		 push	 eax
  003b0	8d 45 90	 lea	 eax, DWORD PTR _yPosMax$[ebp]
  003b3	50		 push	 eax
  003b4	8d 45 88	 lea	 eax, DWORD PTR _yPosMin$[ebp]
  003b7	50		 push	 eax
  003b8	8d 85 48 ff ff
	ff		 lea	 eax, DWORD PTR _endPoint$[ebp]
  003be	53		 push	 ebx
  003bf	50		 push	 eax
  003c0	e8 00 00 00 00	 call	 ?GetVerticalPoint@CDataConversion@@SA?AVCPoint@@ABVCRect@@ABN11111@Z ; CDataConversion::GetVerticalPoint
  003c5	83 c4 40	 add	 esp, 64			; 00000040H

; 906  : 	
; 907  : 	CDraw::DrawLine(pDC, startPoint, endPoint);

  003c8	8b cf		 mov	 ecx, edi
  003ca	ff b5 4c ff ff
	ff		 push	 DWORD PTR _endPoint$[ebp+4]
  003d0	ff b5 48 ff ff
	ff		 push	 DWORD PTR _endPoint$[ebp]
  003d6	ff b5 44 ff ff
	ff		 push	 DWORD PTR _startPoint$[ebp+4]
  003dc	ff b5 40 ff ff
	ff		 push	 DWORD PTR _startPoint$[ebp]
  003e2	56		 push	 esi
  003e3	e8 00 00 00 00	 call	 ?DrawLine@CDraw@@IAEXPAVCDC@@UtagPOINT@@1@Z ; CDraw::DrawLine

; 908  : 
; 909  : 	pDC->SelectObject(pOldBrush);

  003e8	ff b5 64 ff ff
	ff		 push	 DWORD PTR _pOldBrush$1$[ebp]
  003ee	8b ce		 mov	 ecx, esi
  003f0	e8 00 00 00 00	 call	 ?SelectObject@CDC@@QAEPAVCBrush@@PAV2@@Z ; CDC::SelectObject

; 910  : 	pDC->SelectObject(pOldPen);

  003f5	ff b5 60 ff ff
	ff		 push	 DWORD PTR _pOldPen$1$[ebp]
  003fb	8b ce		 mov	 ecx, esi
  003fd	e8 00 00 00 00	 call	 ?SelectObject@CDC@@QAEPAVCPen@@PAV2@@Z ; CDC::SelectObject

; 911  : 	
; 912  : 	unitBrush.DeleteObject();

  00402	8d 8d 68 ff ff
	ff		 lea	 ecx, DWORD PTR _unitBrush$[ebp]
  00408	e8 00 00 00 00	 call	 ?DeleteObject@CGdiObject@@QAEHXZ ; CGdiObject::DeleteObject

; 913  : 
; 914  : 
; 915  : 	linePen.DeleteObject();

  0040d	8d 4d b8	 lea	 ecx, DWORD PTR _linePen$[ebp]
  00410	e8 00 00 00 00	 call	 ?DeleteObject@CGdiObject@@QAEHXZ ; CGdiObject::DeleteObject

; 916  : 	zoroLinePen.DeleteObject();

  00415	8d 4d 80	 lea	 ecx, DWORD PTR _zoroLinePen$[ebp]
  00418	e8 00 00 00 00	 call	 ?DeleteObject@CGdiObject@@QAEHXZ ; CGdiObject::DeleteObject
; File C:\Program Files (x86)\Microsoft Visual Studio\2019\Community\VC\Tools\MSVC\14.29.30133\atlmfc\include\afxwin1.inl

; 106  : 	{ }

  0041d	8d 4d 80	 lea	 ecx, DWORD PTR _zoroLinePen$[ebp]
  00420	c7 45 80 00 00
	00 00		 mov	 DWORD PTR _zoroLinePen$[ebp], OFFSET ??_7CPen@@6B@
  00427	e8 00 00 00 00	 call	 ??1CGdiObject@@UAE@XZ	; CGdiObject::~CGdiObject
  0042c	8d 4d b8	 lea	 ecx, DWORD PTR _linePen$[ebp]
  0042f	c7 45 b8 00 00
	00 00		 mov	 DWORD PTR _linePen$[ebp], OFFSET ??_7CPen@@6B@
  00436	e8 00 00 00 00	 call	 ??1CGdiObject@@UAE@XZ	; CGdiObject::~CGdiObject

; 130  : 	{ }

  0043b	8d 8d 68 ff ff
	ff		 lea	 ecx, DWORD PTR _unitBrush$[ebp]
  00441	c7 85 68 ff ff
	ff 00 00 00 00	 mov	 DWORD PTR _unitBrush$[ebp], OFFSET ??_7CBrush@@6B@
  0044b	e8 00 00 00 00	 call	 ??1CGdiObject@@UAE@XZ	; CGdiObject::~CGdiObject
; File D:\git\src\IBK\IBK_DRFN\ProjSrc\SrcChartEx\ChartOCX\GraphDraw\FundDraw.cpp

; 918  : 	return true;

  00450	b0 01		 mov	 al, 1
  00452	eb 02		 jmp	 SHORT $LN1@DrawFundMa
$LN6@DrawFundMa:

; 842  : 		marketPacket = packetList.GetNext(headPos);
; 843  : 	}
; 844  : 	else
; 845  : 		return false;

  00454	32 c0		 xor	 al, al
$LN1@DrawFundMa:

; 919  : }

  00456	8b 4d f4	 mov	 ecx, DWORD PTR __$EHRec$[ebp]
  00459	64 89 0d 00 00
	00 00		 mov	 DWORD PTR fs:0, ecx
  00460	59		 pop	 ecx
  00461	5f		 pop	 edi
  00462	5e		 pop	 esi
  00463	5b		 pop	 ebx
  00464	8b 4d f0	 mov	 ecx, DWORD PTR __$ArrayPad$[ebp]
  00467	33 cd		 xor	 ecx, ebp
  00469	e8 00 00 00 00	 call	 @__security_check_cookie@4
  0046e	8b e5		 mov	 esp, ebp
  00470	5d		 pop	 ebp
  00471	c2 34 00	 ret	 52			; 00000034H
_TEXT	ENDS
;	COMDAT text$x
text$x	SEGMENT
__unwindfunclet$?DrawFundMarketDispersion@CFundDraw@@AAE_NPAVCDC@@ABVCEtcGraphColor@@ABVCRect@@ABVCGraphColor@@HABN4ABV?$CList@PAVCPacket@@PAV1@@@VCPenThickness@@@Z$0:
  00000	8d 8d 68 ff ff
	ff		 lea	 ecx, DWORD PTR _unitBrush$[ebp]
  00006	e9 00 00 00 00	 jmp	 ??1CBrush@@UAE@XZ	; CBrush::~CBrush
__unwindfunclet$?DrawFundMarketDispersion@CFundDraw@@AAE_NPAVCDC@@ABVCEtcGraphColor@@ABVCRect@@ABVCGraphColor@@HABN4ABV?$CList@PAVCPacket@@PAV1@@@VCPenThickness@@@Z$1:
  0000b	8d 4d b8	 lea	 ecx, DWORD PTR _linePen$[ebp]
  0000e	e9 00 00 00 00	 jmp	 ??1CPen@@UAE@XZ		; CPen::~CPen
__unwindfunclet$?DrawFundMarketDispersion@CFundDraw@@AAE_NPAVCDC@@ABVCEtcGraphColor@@ABVCRect@@ABVCGraphColor@@HABN4ABV?$CList@PAVCPacket@@PAV1@@@VCPenThickness@@@Z$2:
  00013	8d 4d 80	 lea	 ecx, DWORD PTR _zoroLinePen$[ebp]
  00016	e9 00 00 00 00	 jmp	 ??1CPen@@UAE@XZ		; CPen::~CPen
  0001b	cc		 int	 3
  0001c	cc		 int	 3
  0001d	cc		 int	 3
  0001e	cc		 int	 3
  0001f	cc		 int	 3
__ehhandler$?DrawFundMarketDispersion@CFundDraw@@AAE_NPAVCDC@@ABVCEtcGraphColor@@ABVCRect@@ABVCGraphColor@@HABN4ABV?$CList@PAVCPacket@@PAV1@@@VCPenThickness@@@Z:
  00020	90		 npad	 1
  00021	90		 npad	 1
  00022	8b 54 24 08	 mov	 edx, DWORD PTR [esp+8]
  00026	8d 42 0c	 lea	 eax, DWORD PTR [edx+12]
  00029	8b 8a 3c ff ff
	ff		 mov	 ecx, DWORD PTR [edx-196]
  0002f	33 c8		 xor	 ecx, eax
  00031	e8 00 00 00 00	 call	 @__security_check_cookie@4
  00036	8b 4a fc	 mov	 ecx, DWORD PTR [edx-4]
  00039	33 c8		 xor	 ecx, eax
  0003b	e8 00 00 00 00	 call	 @__security_check_cookie@4
  00040	b8 00 00 00 00	 mov	 eax, OFFSET __ehfuncinfo$?DrawFundMarketDispersion@CFundDraw@@AAE_NPAVCDC@@ABVCEtcGraphColor@@ABVCRect@@ABVCGraphColor@@HABN4ABV?$CList@PAVCPacket@@PAV1@@@VCPenThickness@@@Z
  00045	e9 00 00 00 00	 jmp	 ___CxxFrameHandler3
text$x	ENDS
?DrawFundMarketDispersion@CFundDraw@@AAE_NPAVCDC@@ABVCEtcGraphColor@@ABVCRect@@ABVCGraphColor@@HABN4ABV?$CList@PAVCPacket@@PAV1@@@VCPenThickness@@@Z ENDP ; CFundDraw::DrawFundMarketDispersion
; Function compile flags: /Ogtp
; File D:\git\src\IBK\IBK_DRFN\ProjSrc\SrcChartEx\ChartOCX\GraphDraw\FundDraw.cpp
; File C:\Program Files (x86)\Microsoft Visual Studio\2019\Community\VC\Tools\MSVC\14.29.30133\atlmfc\include\afxtempl.h
; File D:\git\src\IBK\IBK_DRFN\ProjSrc\SrcChartEx\ChartOCX\GraphDraw\FundDraw.cpp
; File C:\Program Files (x86)\Microsoft Visual Studio\2019\Community\VC\Tools\MSVC\14.29.30133\atlmfc\include\afxtempl.h
; File D:\git\src\IBK\IBK_DRFN\ProjSrc\SrcChartEx\ChartOCX\GraphDraw\FundDraw.cpp
; File C:\Program Files (x86)\Microsoft Visual Studio\2019\Community\VC\Tools\MSVC\14.29.30133\atlmfc\include\afxtempl.h
; File D:\git\src\IBK\IBK_DRFN\ProjSrc\SrcChartEx\ChartOCX\GraphDraw\FundDraw.cpp
; File C:\Program Files (x86)\Microsoft Visual Studio\2019\Community\VC\Tools\MSVC\14.29.30133\atlmfc\include\afxtempl.h
; File D:\git\src\IBK\IBK_DRFN\ProjSrc\SrcChartEx\ChartOCX\GraphDraw\FundDraw.cpp
; File C:\Program Files (x86)\Microsoft Visual Studio\2019\Community\VC\Tools\MSVC\14.29.30133\atlmfc\include\afxtempl.h
; File D:\git\src\IBK\IBK_DRFN\ProjSrc\SrcChartEx\ChartOCX\GraphDraw\FundDraw.cpp
; File C:\Program Files (x86)\Microsoft Visual Studio\2019\Community\VC\Tools\MSVC\14.29.30133\atlmfc\include\atltypes.h
; File D:\git\src\IBK\IBK_DRFN\ProjSrc\SrcChartEx\ChartOCX\GraphDraw\FundDraw.cpp
; File C:\Program Files (x86)\Microsoft Visual Studio\2019\Community\VC\Tools\MSVC\14.29.30133\atlmfc\include\afxtempl.h
; File D:\git\src\IBK\IBK_DRFN\ProjSrc\SrcChartEx\ChartOCX\GraphDraw\FundDraw.cpp
; File C:\Program Files (x86)\Microsoft Visual Studio\2019\Community\VC\Tools\MSVC\14.29.30133\atlmfc\include\afxtempl.h
; File D:\git\src\IBK\IBK_DRFN\ProjSrc\SrcChartEx\ChartOCX\GraphDraw\FundDraw.cpp
; File C:\Program Files (x86)\Microsoft Visual Studio\2019\Community\VC\Tools\MSVC\14.29.30133\atlmfc\include\afxtempl.h
; File D:\git\src\IBK\IBK_DRFN\ProjSrc\SrcChartEx\ChartOCX\GraphDraw\FundDraw.cpp
; File C:\Program Files (x86)\Microsoft Visual Studio\2019\Community\VC\Tools\MSVC\14.29.30133\atlmfc\include\afxtempl.h
; File D:\git\src\IBK\IBK_DRFN\ProjSrc\SrcChartEx\ChartOCX\GraphDraw\FundDraw.cpp
; File C:\Program Files (x86)\Microsoft Visual Studio\2019\Community\VC\Tools\MSVC\14.29.30133\atlmfc\include\afxtempl.h
; File D:\git\src\IBK\IBK_DRFN\ProjSrc\SrcChartEx\ChartOCX\GraphDraw\FundDraw.cpp
; File C:\Program Files (x86)\Microsoft Visual Studio\2019\Community\VC\Tools\MSVC\14.29.30133\atlmfc\include\afxtempl.h
; File D:\git\src\IBK\IBK_DRFN\ProjSrc\SrcChartEx\ChartOCX\GraphDraw\FundDraw.cpp
; File C:\Program Files (x86)\Microsoft Visual Studio\2019\Community\VC\Tools\MSVC\14.29.30133\atlmfc\include\cstringt.h
; File D:\git\src\IBK\IBK_DRFN\ProjSrc\SrcChartEx\ChartOCX\GraphDraw\FundDraw.cpp
; File C:\Program Files (x86)\Microsoft Visual Studio\2019\Community\VC\Tools\MSVC\14.29.30133\atlmfc\include\cstringt.h
; File D:\git\src\IBK\IBK_DRFN\ProjSrc\SrcChartEx\ChartOCX\GraphDraw\FundDraw.cpp
; File C:\Program Files (x86)\Microsoft Visual Studio\2019\Community\VC\Tools\MSVC\14.29.30133\atlmfc\include\afxwin1.inl
; File D:\git\src\IBK\IBK_DRFN\ProjSrc\SrcChartEx\ChartOCX\GraphDraw\FundDraw.cpp
; File C:\Program Files (x86)\Microsoft Visual Studio\2019\Community\VC\Tools\MSVC\14.29.30133\atlmfc\include\atltypes.h
; File D:\git\src\IBK\IBK_DRFN\ProjSrc\SrcChartEx\ChartOCX\GraphDraw\FundDraw.cpp
; File C:\Program Files (x86)\Microsoft Visual Studio\2019\Community\VC\Tools\MSVC\14.29.30133\atlmfc\include\afxwin1.inl
; File C:\Program Files (x86)\Microsoft Visual Studio\2019\Community\VC\Tools\MSVC\14.29.30133\atlmfc\include\atltypes.h
; File C:\Program Files (x86)\Microsoft Visual Studio\2019\Community\VC\Tools\MSVC\14.29.30133\atlmfc\include\afxwin1.inl
; File D:\git\src\IBK\IBK_DRFN\ProjSrc\SrcChartEx\ChartOCX\GraphDraw\FundDraw.cpp
; File C:\Program Files (x86)\Microsoft Visual Studio\2019\Community\VC\Tools\MSVC\14.29.30133\atlmfc\include\atltypes.h
; File C:\Program Files (x86)\Microsoft Visual Studio\2019\Community\VC\Tools\MSVC\14.29.30133\atlmfc\include\afxwin1.inl
; File D:\git\src\IBK\IBK_DRFN\ProjSrc\SrcChartEx\ChartOCX\GraphDraw\FundDraw.cpp
; File C:\Program Files (x86)\Microsoft Visual Studio\2019\Community\VC\Tools\MSVC\14.29.30133\atlmfc\include\cstringt.h
; File D:\git\src\IBK\IBK_DRFN\ProjSrc\SrcChartEx\ChartOCX\GraphDraw\FundDraw.cpp
; File C:\Program Files (x86)\Microsoft Visual Studio\2019\Community\VC\Tools\MSVC\14.29.30133\atlmfc\include\cstringt.h
; File D:\git\src\IBK\IBK_DRFN\ProjSrc\SrcChartEx\ChartOCX\GraphDraw\FundDraw.cpp
; File C:\Program Files (x86)\Microsoft Visual Studio\2019\Community\VC\Tools\MSVC\14.29.30133\atlmfc\include\atltypes.h
; File D:\git\src\IBK\IBK_DRFN\ProjSrc\SrcChartEx\ChartOCX\GraphDraw\FundDraw.cpp
; File C:\Program Files (x86)\Microsoft Visual Studio\2019\Community\VC\Tools\MSVC\14.29.30133\atlmfc\include\afxwin1.inl
; File D:\git\src\IBK\IBK_DRFN\ProjSrc\SrcChartEx\ChartOCX\GraphDraw\FundDraw.cpp
; File C:\Program Files (x86)\Microsoft Visual Studio\2019\Community\VC\Tools\MSVC\14.29.30133\atlmfc\include\cstringt.h
; File D:\git\src\IBK\IBK_DRFN\ProjSrc\SrcChartEx\ChartOCX\GraphDraw\FundDraw.cpp
; File C:\Program Files (x86)\Microsoft Visual Studio\2019\Community\VC\Tools\MSVC\14.29.30133\atlmfc\include\cstringt.h
; File D:\git\src\IBK\IBK_DRFN\ProjSrc\SrcChartEx\ChartOCX\GraphDraw\FundDraw.cpp
; File C:\Program Files (x86)\Microsoft Visual Studio\2019\Community\VC\Tools\MSVC\14.29.30133\atlmfc\include\atltypes.h
; File D:\git\src\IBK\IBK_DRFN\ProjSrc\SrcChartEx\ChartOCX\GraphDraw\FundDraw.cpp
; File C:\Program Files (x86)\Microsoft Visual Studio\2019\Community\VC\Tools\MSVC\14.29.30133\atlmfc\include\afxwin1.inl
; File D:\git\src\IBK\IBK_DRFN\ProjSrc\SrcChartEx\ChartOCX\GraphDraw\FundDraw.cpp
; File C:\Program Files (x86)\Microsoft Visual Studio\2019\Community\VC\Tools\MSVC\14.29.30133\atlmfc\include\afxwin1.inl
; File D:\git\src\IBK\IBK_DRFN\ProjSrc\SrcChartEx\ChartOCX\GraphDraw\FundDraw.cpp
;	COMDAT ?DrawReturnRiskDispersion@CFundDraw@@AAE_NPAVCDC@@ABVCEtcGraphColor@@ABVCRect@@ABVCGraphColor@@HABN444ABV?$CList@PAVCPacket@@PAV1@@@@Z
_TEXT	SEGMENT
_yPosMin$ = -196					; size = 8
_yPosMax$ = -188					; size = 8
_xPosMin$ = -180					; size = 8
_xPosMax$ = -172					; size = 8
_partPacket$1$ = -164					; size = 4
_graphDrawingRegion$GSCopy$1$ = -160			; size = 4
_dataViewXMax$GSCopy$1$ = -156				; size = 4
_dataViewXMin$GSCopy$1$ = -152				; size = 4
_BBrush$ = -148						; size = 8
_KBrush$ = -140						; size = 8
_FBrush$ = -132						; size = 8
_elseBrush$ = -124					; size = 8
_pDC$GSCopy$1$ = -116					; size = 4
_this$GSCopy$1$ = -112					; size = 4
_UBrush$ = -108						; size = 8
_dataViewMax$GSCopy$1$ = -100				; size = 4
_pOldBrush$1$ = -100					; size = 4
_yPositionPacket$1$ = -96				; size = 4
_partPosition$1$ = -92					; size = 4
_yPosition$1$ = -88					; size = 4
_xPosition$1$ = -84					; size = 4
_xPositionPacket$1$ = -80				; size = 4
_DataPt$4 = -76						; size = 8
_dataViewMin$GSCopy$1$ = -72				; size = 4
_graphColor$GSCopy$1$ = -68				; size = 4
_part$5 = -68						; size = 4
$T6 = -64						; size = 16
_point4$7 = -48						; size = 32
__$ArrayPad$ = -16					; size = 4
__$EHRec$ = -12						; size = 12
_pDC$ = 8						; size = 4
_etcGraphColor$ = 12					; size = 4
_graphDrawingRegion$ = 16				; size = 4
_graphColor$ = 20					; size = 4
_dataStart$ = 24					; size = 4
_dataViewMax$ = 28					; size = 4
_dataViewMin$ = 32					; size = 4
_dataViewXMax$ = 36					; size = 4
_dataViewXMin$ = 40					; size = 4
_packetList$ = 44					; size = 4
?DrawReturnRiskDispersion@CFundDraw@@AAE_NPAVCDC@@ABVCEtcGraphColor@@ABVCRect@@ABVCGraphColor@@HABN444ABV?$CList@PAVCPacket@@PAV1@@@@Z PROC ; CFundDraw::DrawReturnRiskDispersion, COMDAT
; _this$ = ecx

; 741  : {

  00000	55		 push	 ebp
  00001	8b ec		 mov	 ebp, esp
  00003	6a ff		 push	 -1
  00005	68 00 00 00 00	 push	 __ehhandler$?DrawReturnRiskDispersion@CFundDraw@@AAE_NPAVCDC@@ABVCEtcGraphColor@@ABVCRect@@ABVCGraphColor@@HABN444ABV?$CList@PAVCPacket@@PAV1@@@@Z
  0000a	64 a1 00 00 00
	00		 mov	 eax, DWORD PTR fs:0
  00010	50		 push	 eax
  00011	81 ec b8 00 00
	00		 sub	 esp, 184		; 000000b8H
  00017	a1 00 00 00 00	 mov	 eax, DWORD PTR ___security_cookie
  0001c	33 c5		 xor	 eax, ebp
  0001e	89 45 f0	 mov	 DWORD PTR __$ArrayPad$[ebp], eax
  00021	53		 push	 ebx
  00022	56		 push	 esi
  00023	57		 push	 edi
  00024	50		 push	 eax
  00025	8d 45 f4	 lea	 eax, DWORD PTR __$EHRec$[ebp]
  00028	64 a3 00 00 00
	00		 mov	 DWORD PTR fs:0, eax
  0002e	89 4d 90	 mov	 DWORD PTR _this$GSCopy$1$[ebp], ecx
  00031	8b 45 10	 mov	 eax, DWORD PTR _graphDrawingRegion$[ebp]
  00034	8b 4d 2c	 mov	 ecx, DWORD PTR _packetList$[ebp]
  00037	8b 7d 08	 mov	 edi, DWORD PTR _pDC$[ebp]
  0003a	89 85 60 ff ff
	ff		 mov	 DWORD PTR _graphDrawingRegion$GSCopy$1$[ebp], eax
  00040	8b 45 14	 mov	 eax, DWORD PTR _graphColor$[ebp]
  00043	89 45 bc	 mov	 DWORD PTR _graphColor$GSCopy$1$[ebp], eax
  00046	8b 45 1c	 mov	 eax, DWORD PTR _dataViewMax$[ebp]
  00049	89 45 9c	 mov	 DWORD PTR _dataViewMax$GSCopy$1$[ebp], eax
  0004c	8b 45 20	 mov	 eax, DWORD PTR _dataViewMin$[ebp]
  0004f	89 45 b8	 mov	 DWORD PTR _dataViewMin$GSCopy$1$[ebp], eax
  00052	8b 45 24	 mov	 eax, DWORD PTR _dataViewXMax$[ebp]
  00055	89 85 64 ff ff
	ff		 mov	 DWORD PTR _dataViewXMax$GSCopy$1$[ebp], eax
  0005b	8b 45 28	 mov	 eax, DWORD PTR _dataViewXMin$[ebp]
  0005e	89 85 68 ff ff
	ff		 mov	 DWORD PTR _dataViewXMin$GSCopy$1$[ebp], eax

; 742  : 	int count = 0;
; 743  : 	POSITION headPos = packetList.GetHeadPosition();

  00064	8b 41 04	 mov	 eax, DWORD PTR [ecx+4]
  00067	89 7d 8c	 mov	 DWORD PTR _pDC$GSCopy$1$[ebp], edi

; 744  : 	if(headPos == NULL) 

  0006a	85 c0		 test	 eax, eax
  0006c	0f 84 62 04 00
	00		 je	 $LN6@DrawReturn

; 745  : 		return false;
; 746  : 	CPacket* partPacket;      //  packet
; 747  : 	CPacket* fundNamePacket;
; 748  : 	CPacket* xPositionPacket; // x  packet
; 749  : 	CPacket* yPositionPacket; // y  packet
; 750  : 
; 751  : 	if(packetList.GetCount() >= 3){

  00072	83 79 0c 03	 cmp	 DWORD PTR [ecx+12], 3
  00076	0f 8c 58 04 00
	00		 jl	 $LN6@DrawReturn

; 752  : 		partPacket = packetList.GetNext(headPos);

  0007c	8b 50 08	 mov	 edx, DWORD PTR [eax+8]
; File C:\Program Files (x86)\Microsoft Visual Studio\2019\Community\VC\Tools\MSVC\14.29.30133\atlmfc\include\afxtempl.h

; 819  : 		rPosition = (POSITION) pNode->pNext;

  0007f	8b 00		 mov	 eax, DWORD PTR [eax]
; File D:\git\src\IBK\IBK_DRFN\ProjSrc\SrcChartEx\ChartOCX\GraphDraw\FundDraw.cpp

; 764  : 	POSITION partPosition = partPacket->GetstrDataList()->FindIndex(dataStart);

  00081	8b 5d 18	 mov	 ebx, DWORD PTR _dataStart$[ebp]
  00084	89 95 5c ff ff
	ff		 mov	 DWORD PTR _partPacket$1$[ebp], edx
; File C:\Program Files (x86)\Microsoft Visual Studio\2019\Community\VC\Tools\MSVC\14.29.30133\atlmfc\include\afxtempl.h

; 817  : 	{ CNode* pNode = (CNode*) rPosition;

  0008a	8b 00		 mov	 eax, DWORD PTR [eax]

; 819  : 		rPosition = (POSITION) pNode->pNext;

  0008c	8b 08		 mov	 ecx, DWORD PTR [eax]
; File D:\git\src\IBK\IBK_DRFN\ProjSrc\SrcChartEx\ChartOCX\GraphDraw\FundDraw.cpp

; 754  : 		yPositionPacket = packetList.GetNext(headPos);

  0008e	8b 40 08	 mov	 eax, DWORD PTR [eax+8]
  00091	89 45 a0	 mov	 DWORD PTR _yPositionPacket$1$[ebp], eax

; 755  : 		xPositionPacket = packetList.GetNext(headPos);

  00094	8b 41 08	 mov	 eax, DWORD PTR [ecx+8]

; 764  : 	POSITION partPosition = partPacket->GetstrDataList()->FindIndex(dataStart);

  00097	8b ca		 mov	 ecx, edx
  00099	89 45 b0	 mov	 DWORD PTR _xPositionPacket$1$[ebp], eax
  0009c	ff 15 00 00 00
	00		 call	 DWORD PTR __imp_?GetstrDataList@CPacket@@QAEPAV?$CList@V?$CStringT@DV?$StrTraitMFC_DLL@DV?$ChTraitsCRT@D@ATL@@@@@ATL@@V12@@@XZ
; File C:\Program Files (x86)\Microsoft Visual Studio\2019\Community\VC\Tools\MSVC\14.29.30133\atlmfc\include\afxtempl.h

; 1133 : 	if (nIndex >= m_nCount || nIndex < 0)

  000a2	3b 58 0c	 cmp	 ebx, DWORD PTR [eax+12]
  000a5	7d 1a		 jge	 SHORT $LN37@DrawReturn
  000a7	85 db		 test	 ebx, ebx
  000a9	78 16		 js	 SHORT $LN37@DrawReturn

; 1135 : 
; 1136 : 	CNode* pNode = m_pNodeHead;

  000ab	8b 70 04	 mov	 esi, DWORD PTR [eax+4]
  000ae	89 75 a4	 mov	 DWORD PTR _partPosition$1$[ebp], esi

; 1137 : 	while (nIndex--)

  000b1	74 15		 je	 SHORT $LN33@DrawReturn
  000b3	8b c3		 mov	 eax, ebx
$LL34@DrawReturn:

; 1138 : 	{
; 1139 : 		ASSERT(AfxIsValidAddress(pNode, sizeof(CNode)));
; 1140 : 		pNode = pNode->pNext;

  000b5	8b 36		 mov	 esi, DWORD PTR [esi]
  000b7	83 e8 01	 sub	 eax, 1
  000ba	75 f9		 jne	 SHORT $LL34@DrawReturn
  000bc	89 75 a4	 mov	 DWORD PTR _partPosition$1$[ebp], esi

; 1141 : 	}
; 1142 : 	return (POSITION) pNode;

  000bf	eb 07		 jmp	 SHORT $LN33@DrawReturn
$LN37@DrawReturn:

; 1134 : 		return NULL;  // went too far

  000c1	c7 45 a4 00 00
	00 00		 mov	 DWORD PTR _partPosition$1$[ebp], 0
$LN33@DrawReturn:
; File D:\git\src\IBK\IBK_DRFN\ProjSrc\SrcChartEx\ChartOCX\GraphDraw\FundDraw.cpp

; 765  : 	POSITION xPosition = xPositionPacket->GetnumericDataList()->FindIndex(dataStart);

  000c8	8b 4d b0	 mov	 ecx, DWORD PTR _xPositionPacket$1$[ebp]
  000cb	ff 15 00 00 00
	00		 call	 DWORD PTR __imp_?GetnumericDataList@CPacket@@QAEPAV?$CList@NN@@XZ
; File C:\Program Files (x86)\Microsoft Visual Studio\2019\Community\VC\Tools\MSVC\14.29.30133\atlmfc\include\afxtempl.h

; 1133 : 	if (nIndex >= m_nCount || nIndex < 0)

  000d1	3b 58 0c	 cmp	 ebx, DWORD PTR [eax+12]
  000d4	7d 17		 jge	 SHORT $LN43@DrawReturn
  000d6	85 db		 test	 ebx, ebx
  000d8	78 13		 js	 SHORT $LN43@DrawReturn

; 1135 : 
; 1136 : 	CNode* pNode = m_pNodeHead;

  000da	8b 70 04	 mov	 esi, DWORD PTR [eax+4]
  000dd	89 75 ac	 mov	 DWORD PTR _xPosition$1$[ebp], esi

; 1137 : 	while (nIndex--)

  000e0	74 10		 je	 SHORT $LN39@DrawReturn
  000e2	8b c3		 mov	 eax, ebx
$LL40@DrawReturn:

; 1138 : 	{
; 1139 : 		ASSERT(AfxIsValidAddress(pNode, sizeof(CNode)));
; 1140 : 		pNode = pNode->pNext;

  000e4	8b 36		 mov	 esi, DWORD PTR [esi]
  000e6	83 e8 01	 sub	 eax, 1
  000e9	75 f9		 jne	 SHORT $LL40@DrawReturn

; 1141 : 	}
; 1142 : 	return (POSITION) pNode;

  000eb	eb 02		 jmp	 SHORT $LN151@DrawReturn
$LN43@DrawReturn:

; 1134 : 		return NULL;  // went too far

  000ed	33 f6		 xor	 esi, esi
$LN151@DrawReturn:
; File D:\git\src\IBK\IBK_DRFN\ProjSrc\SrcChartEx\ChartOCX\GraphDraw\FundDraw.cpp

; 766  : 	POSITION yPosition = yPositionPacket->GetnumericDataList()->FindIndex(dataStart);

  000ef	89 75 ac	 mov	 DWORD PTR _xPosition$1$[ebp], esi
$LN39@DrawReturn:
  000f2	8b 4d a0	 mov	 ecx, DWORD PTR _yPositionPacket$1$[ebp]
  000f5	ff 15 00 00 00
	00		 call	 DWORD PTR __imp_?GetnumericDataList@CPacket@@QAEPAV?$CList@NN@@XZ
; File C:\Program Files (x86)\Microsoft Visual Studio\2019\Community\VC\Tools\MSVC\14.29.30133\atlmfc\include\afxtempl.h

; 1133 : 	if (nIndex >= m_nCount || nIndex < 0)

  000fb	3b 58 0c	 cmp	 ebx, DWORD PTR [eax+12]
  000fe	7d 19		 jge	 SHORT $LN49@DrawReturn
  00100	85 db		 test	 ebx, ebx
  00102	78 15		 js	 SHORT $LN49@DrawReturn

; 1135 : 
; 1136 : 	CNode* pNode = m_pNodeHead;

  00104	8b 40 04	 mov	 eax, DWORD PTR [eax+4]
  00107	89 45 a8	 mov	 DWORD PTR _yPosition$1$[ebp], eax

; 1137 : 	while (nIndex--)

  0010a	74 12		 je	 SHORT $LN45@DrawReturn
  0010c	8b cb		 mov	 ecx, ebx
  0010e	66 90		 npad	 2
$LL46@DrawReturn:

; 1138 : 	{
; 1139 : 		ASSERT(AfxIsValidAddress(pNode, sizeof(CNode)));
; 1140 : 		pNode = pNode->pNext;

  00110	8b 00		 mov	 eax, DWORD PTR [eax]
  00112	83 e9 01	 sub	 ecx, 1
  00115	75 f9		 jne	 SHORT $LL46@DrawReturn

; 1141 : 	}
; 1142 : 	return (POSITION) pNode;

  00117	eb 02		 jmp	 SHORT $LN152@DrawReturn
$LN49@DrawReturn:

; 1134 : 		return NULL;  // went too far

  00119	33 c0		 xor	 eax, eax
$LN152@DrawReturn:
; File D:\git\src\IBK\IBK_DRFN\ProjSrc\SrcChartEx\ChartOCX\GraphDraw\FundDraw.cpp

; 767  : 	if(xPosition == NULL || yPosition == NULL)

  0011b	89 45 a8	 mov	 DWORD PTR _yPosition$1$[ebp], eax
$LN45@DrawReturn:
  0011e	85 f6		 test	 esi, esi
  00120	0f 84 ae 03 00
	00		 je	 $LN6@DrawReturn
  00126	85 c0		 test	 eax, eax
  00128	0f 84 a6 03 00
	00		 je	 $LN6@DrawReturn

; 768  : 		return false;
; 769  : 	
; 770  : 	int realDrawStart = yPositionPacket->GetStartPeriod() +1;

  0012e	8b 4d a0	 mov	 ecx, DWORD PTR _yPositionPacket$1$[ebp]
  00131	ff 15 00 00 00
	00		 call	 DWORD PTR __imp_?GetStartPeriod@CPacket@@QAEHXZ

; 771  : 	int dataCount = xPositionPacket->GetCount();

  00137	8b 4d b0	 mov	 ecx, DWORD PTR _xPositionPacket$1$[ebp]
  0013a	8b 01		 mov	 eax, DWORD PTR [ecx]
  0013c	ff 50 14	 call	 DWORD PTR [eax+20]

; 772  : 	double xPosMin = 0.0, xPosMax = 0.0, yPosMin = 0.0, yPosMax = 0.0;
; 773  : 	xPosMin = dataViewXMin;

  0013f	8b 85 68 ff ff
	ff		 mov	 eax, DWORD PTR _dataViewXMin$GSCopy$1$[ebp]

; 774  : 	xPosMax = dataViewXMax;
; 775  : 	yPosMin = dataViewMin;
; 776  : 	yPosMax = dataViewMax;
; 777  : 	
; 778  : 	CBrush UBrush	(graphColor.GetColor2());

  00145	8b 4d bc	 mov	 ecx, DWORD PTR _graphColor$GSCopy$1$[ebp]
  00148	f2 0f 10 00	 movsd	 xmm0, QWORD PTR [eax]
  0014c	8b 85 64 ff ff
	ff		 mov	 eax, DWORD PTR _dataViewXMax$GSCopy$1$[ebp]
  00152	f2 0f 11 85 4c
	ff ff ff	 movsd	 QWORD PTR _xPosMin$[ebp], xmm0
  0015a	f2 0f 10 00	 movsd	 xmm0, QWORD PTR [eax]
  0015e	8b 45 b8	 mov	 eax, DWORD PTR _dataViewMin$GSCopy$1$[ebp]
  00161	f2 0f 11 85 54
	ff ff ff	 movsd	 QWORD PTR _xPosMax$[ebp], xmm0
  00169	f2 0f 10 00	 movsd	 xmm0, QWORD PTR [eax]
  0016d	8b 45 9c	 mov	 eax, DWORD PTR _dataViewMax$GSCopy$1$[ebp]
  00170	f2 0f 11 85 3c
	ff ff ff	 movsd	 QWORD PTR _yPosMin$[ebp], xmm0
  00178	f2 0f 10 00	 movsd	 xmm0, QWORD PTR [eax]
  0017c	f2 0f 11 85 44
	ff ff ff	 movsd	 QWORD PTR _yPosMax$[ebp], xmm0
  00184	ff 15 00 00 00
	00		 call	 DWORD PTR __imp_?GetColor2@CGraphColor@@QBEKXZ
  0018a	50		 push	 eax
  0018b	8d 4d 94	 lea	 ecx, DWORD PTR _UBrush$[ebp]
  0018e	e8 00 00 00 00	 call	 ??0CBrush@@QAE@K@Z	; CBrush::CBrush

; 779  : 	CBrush BBrush	(graphColor.GetColor1());

  00193	8b 4d bc	 mov	 ecx, DWORD PTR _graphColor$GSCopy$1$[ebp]
  00196	c7 45 fc 00 00
	00 00		 mov	 DWORD PTR __$EHRec$[ebp+8], 0
  0019d	ff 15 00 00 00
	00		 call	 DWORD PTR __imp_?GetColor1@CGraphColor@@QBEKXZ
  001a3	50		 push	 eax
  001a4	8d 8d 6c ff ff
	ff		 lea	 ecx, DWORD PTR _BBrush$[ebp]
  001aa	e8 00 00 00 00	 call	 ??0CBrush@@QAE@K@Z	; CBrush::CBrush

; 780  : 	CBrush KBrush	(graphColor.GetColor4());

  001af	8b 4d bc	 mov	 ecx, DWORD PTR _graphColor$GSCopy$1$[ebp]
  001b2	c6 45 fc 01	 mov	 BYTE PTR __$EHRec$[ebp+8], 1
  001b6	ff 15 00 00 00
	00		 call	 DWORD PTR __imp_?GetColor4@CGraphColor@@QBEKXZ
  001bc	50		 push	 eax
  001bd	8d 8d 74 ff ff
	ff		 lea	 ecx, DWORD PTR _KBrush$[ebp]
  001c3	e8 00 00 00 00	 call	 ??0CBrush@@QAE@K@Z	; CBrush::CBrush

; 781  : 	CBrush FBrush	(graphColor.GetColor3());

  001c8	8b 4d bc	 mov	 ecx, DWORD PTR _graphColor$GSCopy$1$[ebp]
  001cb	c6 45 fc 02	 mov	 BYTE PTR __$EHRec$[ebp+8], 2
  001cf	ff 15 00 00 00
	00		 call	 DWORD PTR __imp_?GetColor3@CGraphColor@@QBEKXZ
  001d5	50		 push	 eax
  001d6	8d 8d 7c ff ff
	ff		 lea	 ecx, DWORD PTR _FBrush$[ebp]
  001dc	e8 00 00 00 00	 call	 ??0CBrush@@QAE@K@Z	; CBrush::CBrush

; 782  : 	CBrush elseBrush(graphColor.GetColor6());

  001e1	8b 4d bc	 mov	 ecx, DWORD PTR _graphColor$GSCopy$1$[ebp]
  001e4	c6 45 fc 03	 mov	 BYTE PTR __$EHRec$[ebp+8], 3
  001e8	ff 15 00 00 00
	00		 call	 DWORD PTR __imp_?GetColor6@CGraphColor@@QBEKXZ
  001ee	50		 push	 eax
  001ef	8d 4d 84	 lea	 ecx, DWORD PTR _elseBrush$[ebp]
  001f2	e8 00 00 00 00	 call	 ??0CBrush@@QAE@K@Z	; CBrush::CBrush

; 783  : 	
; 784  : 	CBrush* pOldBrush;
; 785  : 	pOldBrush = (CBrush*)pDC->SelectObject(&UBrush);

  001f7	8d 45 94	 lea	 eax, DWORD PTR _UBrush$[ebp]
  001fa	c6 45 fc 04	 mov	 BYTE PTR __$EHRec$[ebp+8], 4
  001fe	50		 push	 eax
  001ff	8b cf		 mov	 ecx, edi
  00201	e8 00 00 00 00	 call	 ?SelectObject@CDC@@QAEPAVCBrush@@PAV2@@Z ; CDC::SelectObject
  00206	89 45 9c	 mov	 DWORD PTR _pOldBrush$1$[ebp], eax

; 786  : 	int unitSize = 8;
; 787  : 	for(int i = dataStart; i <= xPositionPacket->GetCount(); i++){

  00209	8b 45 b0	 mov	 eax, DWORD PTR _xPositionPacket$1$[ebp]
  0020c	8b c8		 mov	 ecx, eax
  0020e	8b 10		 mov	 edx, DWORD PTR [eax]
  00210	ff 52 14	 call	 DWORD PTR [edx+20]
  00213	3b d8		 cmp	 ebx, eax
  00215	0f 8f 1d 02 00
	00		 jg	 $LN3@DrawReturn
  0021b	0f 1f 44 00 00	 npad	 5
$LL4@DrawReturn:

; 791  : 		CPoint DataPt = CDataConversion::GetVerticalPoint(graphDrawingRegion, yPosMin, yPosMax, xPosMin, xPosMax, yPositionPacket->GetnumericDataList()->GetNext(yPosition), xPositionPacket->GetnumericDataList()->GetNext(xPosition));

  00220	8b 4d b0	 mov	 ecx, DWORD PTR _xPositionPacket$1$[ebp]
  00223	0f 57 c0	 xorps	 xmm0, xmm0
; File C:\Program Files (x86)\Microsoft Visual Studio\2019\Community\VC\Tools\MSVC\14.29.30133\atlmfc\include\atltypes.h

; 400  : 	x = 0;

  00226	0f 11 45 d0	 movups	 XMMWORD PTR _point4$7[ebp], xmm0
  0022a	0f 11 45 e0	 movups	 XMMWORD PTR _point4$7[ebp+16], xmm0
; File D:\git\src\IBK\IBK_DRFN\ProjSrc\SrcChartEx\ChartOCX\GraphDraw\FundDraw.cpp

; 791  : 		CPoint DataPt = CDataConversion::GetVerticalPoint(graphDrawingRegion, yPosMin, yPosMax, xPosMin, xPosMax, yPositionPacket->GetnumericDataList()->GetNext(yPosition), xPositionPacket->GetnumericDataList()->GetNext(xPosition));

  0022e	ff 15 00 00 00
	00		 call	 DWORD PTR __imp_?GetnumericDataList@CPacket@@QAEPAV?$CList@NN@@XZ
; File C:\Program Files (x86)\Microsoft Visual Studio\2019\Community\VC\Tools\MSVC\14.29.30133\atlmfc\include\afxtempl.h

; 813  : 		rPosition = (POSITION) pNode->pNext;

  00234	8b 45 ac	 mov	 eax, DWORD PTR _xPosition$1$[ebp]
; File D:\git\src\IBK\IBK_DRFN\ProjSrc\SrcChartEx\ChartOCX\GraphDraw\FundDraw.cpp

; 791  : 		CPoint DataPt = CDataConversion::GetVerticalPoint(graphDrawingRegion, yPosMin, yPosMax, xPosMin, xPosMax, yPositionPacket->GetnumericDataList()->GetNext(yPosition), xPositionPacket->GetnumericDataList()->GetNext(xPosition));

  00237	8b 4d a0	 mov	 ecx, DWORD PTR _yPositionPacket$1$[ebp]
; File C:\Program Files (x86)\Microsoft Visual Studio\2019\Community\VC\Tools\MSVC\14.29.30133\atlmfc\include\afxtempl.h

; 813  : 		rPosition = (POSITION) pNode->pNext;

  0023a	8b 00		 mov	 eax, DWORD PTR [eax]
  0023c	89 45 ac	 mov	 DWORD PTR _xPosition$1$[ebp], eax
; File D:\git\src\IBK\IBK_DRFN\ProjSrc\SrcChartEx\ChartOCX\GraphDraw\FundDraw.cpp

; 791  : 		CPoint DataPt = CDataConversion::GetVerticalPoint(graphDrawingRegion, yPosMin, yPosMax, xPosMin, xPosMax, yPositionPacket->GetnumericDataList()->GetNext(yPosition), xPositionPacket->GetnumericDataList()->GetNext(xPosition));

  0023f	ff 15 00 00 00
	00		 call	 DWORD PTR __imp_?GetnumericDataList@CPacket@@QAEPAV?$CList@NN@@XZ
; File C:\Program Files (x86)\Microsoft Visual Studio\2019\Community\VC\Tools\MSVC\14.29.30133\atlmfc\include\afxtempl.h

; 811  : 	{ CNode* pNode = (CNode*) rPosition;

  00245	8b 45 a8	 mov	 eax, DWORD PTR _yPosition$1$[ebp]
  00248	8b c8		 mov	 ecx, eax

; 813  : 		rPosition = (POSITION) pNode->pNext;

  0024a	8b 00		 mov	 eax, DWORD PTR [eax]
  0024c	89 45 a8	 mov	 DWORD PTR _yPosition$1$[ebp], eax

; 814  : 		return pNode->data; }

  0024f	8d 46 08	 lea	 eax, DWORD PTR [esi+8]
; File D:\git\src\IBK\IBK_DRFN\ProjSrc\SrcChartEx\ChartOCX\GraphDraw\FundDraw.cpp

; 791  : 		CPoint DataPt = CDataConversion::GetVerticalPoint(graphDrawingRegion, yPosMin, yPosMax, xPosMin, xPosMax, yPositionPacket->GetnumericDataList()->GetNext(yPosition), xPositionPacket->GetnumericDataList()->GetNext(xPosition));

  00252	50		 push	 eax
; File C:\Program Files (x86)\Microsoft Visual Studio\2019\Community\VC\Tools\MSVC\14.29.30133\atlmfc\include\afxtempl.h

; 814  : 		return pNode->data; }

  00253	8d 41 08	 lea	 eax, DWORD PTR [ecx+8]
; File D:\git\src\IBK\IBK_DRFN\ProjSrc\SrcChartEx\ChartOCX\GraphDraw\FundDraw.cpp

; 791  : 		CPoint DataPt = CDataConversion::GetVerticalPoint(graphDrawingRegion, yPosMin, yPosMax, xPosMin, xPosMax, yPositionPacket->GetnumericDataList()->GetNext(yPosition), xPositionPacket->GetnumericDataList()->GetNext(xPosition));

  00256	50		 push	 eax
  00257	8d 85 54 ff ff
	ff		 lea	 eax, DWORD PTR _xPosMax$[ebp]
  0025d	50		 push	 eax
  0025e	8d 85 4c ff ff
	ff		 lea	 eax, DWORD PTR _xPosMin$[ebp]
  00264	50		 push	 eax
  00265	8d 85 44 ff ff
	ff		 lea	 eax, DWORD PTR _yPosMax$[ebp]
  0026b	50		 push	 eax
  0026c	8d 85 3c ff ff
	ff		 lea	 eax, DWORD PTR _yPosMin$[ebp]
  00272	50		 push	 eax
  00273	ff b5 60 ff ff
	ff		 push	 DWORD PTR _graphDrawingRegion$GSCopy$1$[ebp]
  00279	8d 45 b4	 lea	 eax, DWORD PTR _DataPt$4[ebp]
  0027c	50		 push	 eax
  0027d	e8 00 00 00 00	 call	 ?GetVerticalPoint@CDataConversion@@SA?AVCPoint@@ABVCRect@@ABN11111@Z ; CDataConversion::GetVerticalPoint

; 793  : 		CString part = partPacket->GetstrDataList()->GetNext(partPosition);

  00282	8b 8d 5c ff ff
	ff		 mov	 ecx, DWORD PTR _partPacket$1$[ebp]
  00288	83 c4 20	 add	 esp, 32			; 00000020H
  0028b	ff 15 00 00 00
	00		 call	 DWORD PTR __imp_?GetstrDataList@CPacket@@QAEPAV?$CList@V?$CStringT@DV?$StrTraitMFC_DLL@DV?$ChTraitsCRT@D@ATL@@@@@ATL@@V12@@@XZ
; File C:\Program Files (x86)\Microsoft Visual Studio\2019\Community\VC\Tools\MSVC\14.29.30133\atlmfc\include\afxtempl.h

; 811  : 	{ CNode* pNode = (CNode*) rPosition;

  00291	8b 4d a4	 mov	 ecx, DWORD PTR _partPosition$1$[ebp]
  00294	8b c1		 mov	 eax, ecx

; 814  : 		return pNode->data; }

  00296	83 c0 08	 add	 eax, 8
; File D:\git\src\IBK\IBK_DRFN\ProjSrc\SrcChartEx\ChartOCX\GraphDraw\FundDraw.cpp

; 793  : 		CString part = partPacket->GetstrDataList()->GetNext(partPosition);

  00299	50		 push	 eax
; File C:\Program Files (x86)\Microsoft Visual Studio\2019\Community\VC\Tools\MSVC\14.29.30133\atlmfc\include\afxtempl.h

; 813  : 		rPosition = (POSITION) pNode->pNext;

  0029a	8b 09		 mov	 ecx, DWORD PTR [ecx]
  0029c	89 4d a4	 mov	 DWORD PTR _partPosition$1$[ebp], ecx
; File D:\git\src\IBK\IBK_DRFN\ProjSrc\SrcChartEx\ChartOCX\GraphDraw\FundDraw.cpp

; 793  : 		CString part = partPacket->GetstrDataList()->GetNext(partPosition);

  0029f	8d 4d bc	 lea	 ecx, DWORD PTR _part$5[ebp]
  002a2	ff 15 00 00 00
	00		 call	 DWORD PTR __imp_??0?$CStringT@DV?$StrTraitMFC_DLL@DV?$ChTraitsCRT@D@ATL@@@@@ATL@@QAE@ABV01@@Z
; File C:\Program Files (x86)\Microsoft Visual Studio\2019\Community\VC\Tools\MSVC\14.29.30133\atlmfc\include\cstringt.h

; 2486 : 		return(str1.Compare(psz2) == 0);

  002a8	68 00 00 00 00	 push	 OFFSET ??_C@_01HJOKEEBB@U@
  002ad	8d 4d bc	 lea	 ecx, DWORD PTR _part$5[ebp]
; File D:\git\src\IBK\IBK_DRFN\ProjSrc\SrcChartEx\ChartOCX\GraphDraw\FundDraw.cpp

; 793  : 		CString part = partPacket->GetstrDataList()->GetNext(partPosition);

  002b0	c6 45 fc 05	 mov	 BYTE PTR __$EHRec$[ebp+8], 5
; File C:\Program Files (x86)\Microsoft Visual Studio\2019\Community\VC\Tools\MSVC\14.29.30133\atlmfc\include\cstringt.h

; 2486 : 		return(str1.Compare(psz2) == 0);

  002b4	ff 15 00 00 00
	00		 call	 DWORD PTR __imp_?Compare@?$CStringT@DV?$StrTraitMFC_DLL@DV?$ChTraitsCRT@D@ATL@@@@@ATL@@QBEHPBD@Z
  002ba	85 c0		 test	 eax, eax
; File D:\git\src\IBK\IBK_DRFN\ProjSrc\SrcChartEx\ChartOCX\GraphDraw\FundDraw.cpp

; 794  : 		if(part == "U"){

  002bc	75 3e		 jne	 SHORT $LN10@DrawReturn

; 795  : 			pDC->SelectObject(&UBrush);

  002be	8d 45 94	 lea	 eax, DWORD PTR _UBrush$[ebp]
  002c1	8b cf		 mov	 ecx, edi
  002c3	50		 push	 eax
  002c4	e8 00 00 00 00	 call	 ?SelectObject@CDC@@QAEPAVCBrush@@PAV2@@Z ; CDC::SelectObject

; 796  : 			pDC->FillRect(CRect(DataPt.x - unitSize, DataPt.y - unitSize, DataPt.x + unitSize, DataPt.y + unitSize), &UBrush); 

  002c9	8b 45 b4	 mov	 eax, DWORD PTR _DataPt$4[ebp]
  002cc	8b 4d b8	 mov	 ecx, DWORD PTR _DataPt$4[ebp+4]
; File C:\Program Files (x86)\Microsoft Visual Studio\2019\Community\VC\Tools\MSVC\14.29.30133\atlmfc\include\afxwin1.inl

; 476  : 	{ ASSERT(m_hDC != NULL); ::FillRect(m_hDC, lpRect, (HBRUSH)pBrush->GetSafeHandle()); }

  002cf	ff 75 98	 push	 DWORD PTR _UBrush$[ebp+4]
; File D:\git\src\IBK\IBK_DRFN\ProjSrc\SrcChartEx\ChartOCX\GraphDraw\FundDraw.cpp

; 796  : 			pDC->FillRect(CRect(DataPt.x - unitSize, DataPt.y - unitSize, DataPt.x + unitSize, DataPt.y + unitSize), &UBrush); 

  002d2	8d 50 08	 lea	 edx, DWORD PTR [eax+8]
  002d5	83 c0 f8	 add	 eax, -8			; fffffff8H
; File C:\Program Files (x86)\Microsoft Visual Studio\2019\Community\VC\Tools\MSVC\14.29.30133\atlmfc\include\atltypes.h

; 540  : 	left = l;

  002d8	89 45 c0	 mov	 DWORD PTR $T6[ebp], eax
; File D:\git\src\IBK\IBK_DRFN\ProjSrc\SrcChartEx\ChartOCX\GraphDraw\FundDraw.cpp

; 796  : 			pDC->FillRect(CRect(DataPt.x - unitSize, DataPt.y - unitSize, DataPt.x + unitSize, DataPt.y + unitSize), &UBrush); 

  002db	8d 71 08	 lea	 esi, DWORD PTR [ecx+8]
; File C:\Program Files (x86)\Microsoft Visual Studio\2019\Community\VC\Tools\MSVC\14.29.30133\atlmfc\include\afxwin1.inl

; 476  : 	{ ASSERT(m_hDC != NULL); ::FillRect(m_hDC, lpRect, (HBRUSH)pBrush->GetSafeHandle()); }

  002de	8d 45 c0	 lea	 eax, DWORD PTR $T6[ebp]
; File C:\Program Files (x86)\Microsoft Visual Studio\2019\Community\VC\Tools\MSVC\14.29.30133\atlmfc\include\atltypes.h

; 542  : 	right = r;

  002e1	89 55 c8	 mov	 DWORD PTR $T6[ebp+8], edx
; File C:\Program Files (x86)\Microsoft Visual Studio\2019\Community\VC\Tools\MSVC\14.29.30133\atlmfc\include\afxwin1.inl

; 476  : 	{ ASSERT(m_hDC != NULL); ::FillRect(m_hDC, lpRect, (HBRUSH)pBrush->GetSafeHandle()); }

  002e4	50		 push	 eax
  002e5	ff 77 04	 push	 DWORD PTR [edi+4]
; File D:\git\src\IBK\IBK_DRFN\ProjSrc\SrcChartEx\ChartOCX\GraphDraw\FundDraw.cpp

; 796  : 			pDC->FillRect(CRect(DataPt.x - unitSize, DataPt.y - unitSize, DataPt.x + unitSize, DataPt.y + unitSize), &UBrush); 

  002e8	83 c1 f8	 add	 ecx, -8			; fffffff8H
; File C:\Program Files (x86)\Microsoft Visual Studio\2019\Community\VC\Tools\MSVC\14.29.30133\atlmfc\include\atltypes.h

; 543  : 	bottom = b;

  002eb	89 75 cc	 mov	 DWORD PTR $T6[ebp+12], esi
  002ee	89 4d c4	 mov	 DWORD PTR $T6[ebp+4], ecx
; File C:\Program Files (x86)\Microsoft Visual Studio\2019\Community\VC\Tools\MSVC\14.29.30133\atlmfc\include\afxwin1.inl

; 476  : 	{ ASSERT(m_hDC != NULL); ::FillRect(m_hDC, lpRect, (HBRUSH)pBrush->GetSafeHandle()); }

  002f1	ff 15 00 00 00
	00		 call	 DWORD PTR __imp__FillRect@12
; File D:\git\src\IBK\IBK_DRFN\ProjSrc\SrcChartEx\ChartOCX\GraphDraw\FundDraw.cpp

; 797  : 		}

  002f7	e9 18 01 00 00	 jmp	 $LN17@DrawReturn
$LN10@DrawReturn:
; File C:\Program Files (x86)\Microsoft Visual Studio\2019\Community\VC\Tools\MSVC\14.29.30133\atlmfc\include\cstringt.h

; 2486 : 		return(str1.Compare(psz2) == 0);

  002fc	68 00 00 00 00	 push	 OFFSET ??_C@_01HMGJMAIH@B@
  00301	8d 4d bc	 lea	 ecx, DWORD PTR _part$5[ebp]
  00304	ff 15 00 00 00
	00		 call	 DWORD PTR __imp_?Compare@?$CStringT@DV?$StrTraitMFC_DLL@DV?$ChTraitsCRT@D@ATL@@@@@ATL@@QBEHPBD@Z
  0030a	85 c0		 test	 eax, eax
; File D:\git\src\IBK\IBK_DRFN\ProjSrc\SrcChartEx\ChartOCX\GraphDraw\FundDraw.cpp

; 798  : 		else if(part == "B"){

  0030c	75 25		 jne	 SHORT $LN12@DrawReturn

; 799  : 			pDC->SelectObject(&BBrush);

  0030e	8d 85 6c ff ff
	ff		 lea	 eax, DWORD PTR _BBrush$[ebp]
  00314	8b cf		 mov	 ecx, edi
  00316	50		 push	 eax
  00317	e8 00 00 00 00	 call	 ?SelectObject@CDC@@QAEPAVCBrush@@PAV2@@Z ; CDC::SelectObject

; 800  : 			pDC->Ellipse(CRect(DataPt.x - unitSize, DataPt.y - unitSize, DataPt.x + unitSize, DataPt.y + unitSize));

  0031c	8b 4d b8	 mov	 ecx, DWORD PTR _DataPt$4[ebp+4]
  0031f	8b 45 b4	 mov	 eax, DWORD PTR _DataPt$4[ebp]
  00322	8d 71 08	 lea	 esi, DWORD PTR [ecx+8]
  00325	83 c1 f8	 add	 ecx, -8			; fffffff8H
  00328	8d 50 08	 lea	 edx, DWORD PTR [eax+8]
  0032b	83 c0 f8	 add	 eax, -8			; fffffff8H

; 801  : 		}

  0032e	e9 d4 00 00 00	 jmp	 $LN153@DrawReturn
$LN12@DrawReturn:
; File C:\Program Files (x86)\Microsoft Visual Studio\2019\Community\VC\Tools\MSVC\14.29.30133\atlmfc\include\cstringt.h

; 2486 : 		return(str1.Compare(psz2) == 0);

  00333	68 00 00 00 00	 push	 OFFSET ??_C@_01KNKLHLMO@K@
  00338	8d 4d bc	 lea	 ecx, DWORD PTR _part$5[ebp]
  0033b	ff 15 00 00 00
	00		 call	 DWORD PTR __imp_?Compare@?$CStringT@DV?$StrTraitMFC_DLL@DV?$ChTraitsCRT@D@ATL@@@@@ATL@@QBEHPBD@Z
  00341	85 c0		 test	 eax, eax
; File D:\git\src\IBK\IBK_DRFN\ProjSrc\SrcChartEx\ChartOCX\GraphDraw\FundDraw.cpp

; 802  : 		else if(part == "K"){

  00343	75 4e		 jne	 SHORT $LN14@DrawReturn

; 803  : 			pDC->SelectObject(&KBrush);

  00345	8d 85 74 ff ff
	ff		 lea	 eax, DWORD PTR _KBrush$[ebp]
  0034b	8b cf		 mov	 ecx, edi
  0034d	50		 push	 eax
  0034e	e8 00 00 00 00	 call	 ?SelectObject@CDC@@QAEPAVCBrush@@PAV2@@Z ; CDC::SelectObject

; 804  : 			InsertFourPointToArray(point4, CPoint(DataPt.x - unitSize, DataPt.y), CPoint(DataPt.x, DataPt.y - unitSize), CPoint(DataPt.x + unitSize, DataPt.y), CPoint(DataPt.x, DataPt.y + unitSize));

  00353	8b 5d b8	 mov	 ebx, DWORD PTR _DataPt$4[ebp+4]
; File C:\Program Files (x86)\Microsoft Visual Studio\2019\Community\VC\Tools\MSVC\14.29.30133\atlmfc\include\atltypes.h

; 408  : 	x = initX;

  00356	8b 7d b4	 mov	 edi, DWORD PTR _DataPt$4[ebp]
; File D:\git\src\IBK\IBK_DRFN\ProjSrc\SrcChartEx\ChartOCX\GraphDraw\FundDraw.cpp

; 804  : 			InsertFourPointToArray(point4, CPoint(DataPt.x - unitSize, DataPt.y), CPoint(DataPt.x, DataPt.y - unitSize), CPoint(DataPt.x + unitSize, DataPt.y), CPoint(DataPt.x, DataPt.y + unitSize));

  00359	8d 43 08	 lea	 eax, DWORD PTR [ebx+8]
  0035c	50		 push	 eax
  0035d	57		 push	 edi
  0035e	53		 push	 ebx
  0035f	8d 57 08	 lea	 edx, DWORD PTR [edi+8]
  00362	52		 push	 edx
  00363	8d 4b f8	 lea	 ecx, DWORD PTR [ebx-8]
  00366	51		 push	 ecx
  00367	8b 4d 90	 mov	 ecx, DWORD PTR _this$GSCopy$1$[ebp]
  0036a	8d 77 f8	 lea	 esi, DWORD PTR [edi-8]
  0036d	57		 push	 edi
  0036e	53		 push	 ebx
  0036f	56		 push	 esi
  00370	8d 45 d0	 lea	 eax, DWORD PTR _point4$7[ebp]
  00373	50		 push	 eax
  00374	e8 00 00 00 00	 call	 ?InsertFourPointToArray@CDraw@@IAEXPAVCPoint@@V2@111@Z ; CDraw::InsertFourPointToArray
; File C:\Program Files (x86)\Microsoft Visual Studio\2019\Community\VC\Tools\MSVC\14.29.30133\atlmfc\include\afxwin1.inl

; 535  : 	{ ASSERT(m_hDC != NULL); return ::Polygon(m_hDC, lpPoints, nCount); }

  00379	8b 7d 8c	 mov	 edi, DWORD PTR _pDC$GSCopy$1$[ebp]
  0037c	8d 45 d0	 lea	 eax, DWORD PTR _point4$7[ebp]
  0037f	6a 04		 push	 4
  00381	50		 push	 eax
  00382	ff 77 04	 push	 DWORD PTR [edi+4]
  00385	ff 15 00 00 00
	00		 call	 DWORD PTR __imp__Polygon@12
; File D:\git\src\IBK\IBK_DRFN\ProjSrc\SrcChartEx\ChartOCX\GraphDraw\FundDraw.cpp

; 806  : 		}

  0038b	8b 5d 18	 mov	 ebx, DWORD PTR _dataStart$[ebp]
  0038e	e9 81 00 00 00	 jmp	 $LN17@DrawReturn
$LN14@DrawReturn:
; File C:\Program Files (x86)\Microsoft Visual Studio\2019\Community\VC\Tools\MSVC\14.29.30133\atlmfc\include\cstringt.h

; 2486 : 		return(str1.Compare(psz2) == 0);

  00393	68 00 00 00 00	 push	 OFFSET ??_C@_01BIAFAFID@F@
  00398	8d 4d bc	 lea	 ecx, DWORD PTR _part$5[ebp]
  0039b	ff 15 00 00 00
	00		 call	 DWORD PTR __imp_?Compare@?$CStringT@DV?$StrTraitMFC_DLL@DV?$ChTraitsCRT@D@ATL@@@@@ATL@@QBEHPBD@Z
; File D:\git\src\IBK\IBK_DRFN\ProjSrc\SrcChartEx\ChartOCX\GraphDraw\FundDraw.cpp

; 807  : 		else if(part == "F"){

  003a1	8b cf		 mov	 ecx, edi
; File C:\Program Files (x86)\Microsoft Visual Studio\2019\Community\VC\Tools\MSVC\14.29.30133\atlmfc\include\cstringt.h

; 2486 : 		return(str1.Compare(psz2) == 0);

  003a3	85 c0		 test	 eax, eax
; File D:\git\src\IBK\IBK_DRFN\ProjSrc\SrcChartEx\ChartOCX\GraphDraw\FundDraw.cpp

; 807  : 		else if(part == "F"){

  003a5	75 45		 jne	 SHORT $LN16@DrawReturn

; 808  : 			pDC->SelectObject(&FBrush);

  003a7	8d 85 7c ff ff
	ff		 lea	 eax, DWORD PTR _FBrush$[ebp]
  003ad	50		 push	 eax
  003ae	e8 00 00 00 00	 call	 ?SelectObject@CDC@@QAEPAVCBrush@@PAV2@@Z ; CDC::SelectObject

; 809  : 			InsertFourPointToArray(point4, CPoint(DataPt.x - unitSize, DataPt.y), CPoint(DataPt.x, DataPt.y - unitSize), CPoint(DataPt.x + unitSize, DataPt.y), CPoint(0, 0));

  003b3	8b 7d b4	 mov	 edi, DWORD PTR _DataPt$4[ebp]
; File C:\Program Files (x86)\Microsoft Visual Studio\2019\Community\VC\Tools\MSVC\14.29.30133\atlmfc\include\atltypes.h

; 409  : 	y = initY;

  003b6	8b 75 b8	 mov	 esi, DWORD PTR _DataPt$4[ebp+4]
; File D:\git\src\IBK\IBK_DRFN\ProjSrc\SrcChartEx\ChartOCX\GraphDraw\FundDraw.cpp

; 809  : 			InsertFourPointToArray(point4, CPoint(DataPt.x - unitSize, DataPt.y), CPoint(DataPt.x, DataPt.y - unitSize), CPoint(DataPt.x + unitSize, DataPt.y), CPoint(0, 0));

  003b9	6a 00		 push	 0
  003bb	6a 00		 push	 0
  003bd	56		 push	 esi
  003be	8d 4f 08	 lea	 ecx, DWORD PTR [edi+8]
  003c1	51		 push	 ecx
  003c2	8b 4d 90	 mov	 ecx, DWORD PTR _this$GSCopy$1$[ebp]
  003c5	8d 46 f8	 lea	 eax, DWORD PTR [esi-8]
  003c8	50		 push	 eax
  003c9	57		 push	 edi
  003ca	56		 push	 esi
  003cb	8d 57 f8	 lea	 edx, DWORD PTR [edi-8]
  003ce	52		 push	 edx
  003cf	8d 45 d0	 lea	 eax, DWORD PTR _point4$7[ebp]
  003d2	50		 push	 eax
  003d3	e8 00 00 00 00	 call	 ?InsertFourPointToArray@CDraw@@IAEXPAVCPoint@@V2@111@Z ; CDraw::InsertFourPointToArray
; File C:\Program Files (x86)\Microsoft Visual Studio\2019\Community\VC\Tools\MSVC\14.29.30133\atlmfc\include\afxwin1.inl

; 535  : 	{ ASSERT(m_hDC != NULL); return ::Polygon(m_hDC, lpPoints, nCount); }

  003d8	8b 7d 8c	 mov	 edi, DWORD PTR _pDC$GSCopy$1$[ebp]
  003db	8d 45 d0	 lea	 eax, DWORD PTR _point4$7[ebp]
  003de	6a 03		 push	 3
  003e0	50		 push	 eax
  003e1	ff 77 04	 push	 DWORD PTR [edi+4]
  003e4	ff 15 00 00 00
	00		 call	 DWORD PTR __imp__Polygon@12
; File D:\git\src\IBK\IBK_DRFN\ProjSrc\SrcChartEx\ChartOCX\GraphDraw\FundDraw.cpp

; 811  : 		}

  003ea	eb 28		 jmp	 SHORT $LN17@DrawReturn
$LN16@DrawReturn:

; 812  : 		else{
; 813  : 			pDC->SelectObject(&elseBrush);

  003ec	8d 45 84	 lea	 eax, DWORD PTR _elseBrush$[ebp]
  003ef	50		 push	 eax
  003f0	e8 00 00 00 00	 call	 ?SelectObject@CDC@@QAEPAVCBrush@@PAV2@@Z ; CDC::SelectObject

; 814  : 			pDC->Ellipse(CRect(DataPt.x - unitSize/4, DataPt.y - unitSize/4, DataPt.x + unitSize/4, DataPt.y + unitSize/4));

  003f5	8b 4d b8	 mov	 ecx, DWORD PTR _DataPt$4[ebp+4]
  003f8	8b 45 b4	 mov	 eax, DWORD PTR _DataPt$4[ebp]
  003fb	8d 71 02	 lea	 esi, DWORD PTR [ecx+2]
  003fe	83 c1 fe	 add	 ecx, -2			; fffffffeH
  00401	8d 50 02	 lea	 edx, DWORD PTR [eax+2]
  00404	83 c0 fe	 add	 eax, -2			; fffffffeH
$LN153@DrawReturn:

; 815  : 		}
; 816  : 	}

  00407	56		 push	 esi
  00408	52		 push	 edx
  00409	51		 push	 ecx
  0040a	50		 push	 eax
  0040b	ff 77 04	 push	 DWORD PTR [edi+4]
  0040e	ff 15 00 00 00
	00		 call	 DWORD PTR __imp__Ellipse@20
$LN17@DrawReturn:
  00414	8d 4d bc	 lea	 ecx, DWORD PTR _part$5[ebp]
  00417	c6 45 fc 04	 mov	 BYTE PTR __$EHRec$[ebp+8], 4
  0041b	ff 15 00 00 00
	00		 call	 DWORD PTR __imp_??1?$CStringT@DV?$StrTraitMFC_DLL@DV?$ChTraitsCRT@D@ATL@@@@@ATL@@QAE@XZ
  00421	8b 4d b0	 mov	 ecx, DWORD PTR _xPositionPacket$1$[ebp]
  00424	43		 inc	 ebx
  00425	89 5d 18	 mov	 DWORD PTR _dataStart$[ebp], ebx
  00428	8b 01		 mov	 eax, DWORD PTR [ecx]
  0042a	ff 50 14	 call	 DWORD PTR [eax+20]
  0042d	8b 75 ac	 mov	 esi, DWORD PTR _xPosition$1$[ebp]
  00430	3b d8		 cmp	 ebx, eax
  00432	0f 8e e8 fd ff
	ff		 jle	 $LL4@DrawReturn
$LN3@DrawReturn:

; 817  : 
; 818  : 	pDC->SelectObject(pOldBrush);

  00438	ff 75 9c	 push	 DWORD PTR _pOldBrush$1$[ebp]
  0043b	8b cf		 mov	 ecx, edi
  0043d	e8 00 00 00 00	 call	 ?SelectObject@CDC@@QAEPAVCBrush@@PAV2@@Z ; CDC::SelectObject

; 819  : 
; 820  : 	UBrush.DeleteObject();

  00442	8d 4d 94	 lea	 ecx, DWORD PTR _UBrush$[ebp]
  00445	e8 00 00 00 00	 call	 ?DeleteObject@CGdiObject@@QAEHXZ ; CGdiObject::DeleteObject

; 821  : 	BBrush.DeleteObject();

  0044a	8d 8d 6c ff ff
	ff		 lea	 ecx, DWORD PTR _BBrush$[ebp]
  00450	e8 00 00 00 00	 call	 ?DeleteObject@CGdiObject@@QAEHXZ ; CGdiObject::DeleteObject

; 822  : 	KBrush.DeleteObject();

  00455	8d 8d 74 ff ff
	ff		 lea	 ecx, DWORD PTR _KBrush$[ebp]
  0045b	e8 00 00 00 00	 call	 ?DeleteObject@CGdiObject@@QAEHXZ ; CGdiObject::DeleteObject

; 823  : 	FBrush.DeleteObject();

  00460	8d 8d 7c ff ff
	ff		 lea	 ecx, DWORD PTR _FBrush$[ebp]
  00466	e8 00 00 00 00	 call	 ?DeleteObject@CGdiObject@@QAEHXZ ; CGdiObject::DeleteObject

; 824  : 	elseBrush.DeleteObject();

  0046b	8d 4d 84	 lea	 ecx, DWORD PTR _elseBrush$[ebp]
  0046e	e8 00 00 00 00	 call	 ?DeleteObject@CGdiObject@@QAEHXZ ; CGdiObject::DeleteObject
; File C:\Program Files (x86)\Microsoft Visual Studio\2019\Community\VC\Tools\MSVC\14.29.30133\atlmfc\include\afxwin1.inl

; 130  : 	{ }

  00473	8d 4d 84	 lea	 ecx, DWORD PTR _elseBrush$[ebp]
  00476	c7 45 84 00 00
	00 00		 mov	 DWORD PTR _elseBrush$[ebp], OFFSET ??_7CBrush@@6B@
  0047d	e8 00 00 00 00	 call	 ??1CGdiObject@@UAE@XZ	; CGdiObject::~CGdiObject
  00482	8d 8d 7c ff ff
	ff		 lea	 ecx, DWORD PTR _FBrush$[ebp]
  00488	c7 85 7c ff ff
	ff 00 00 00 00	 mov	 DWORD PTR _FBrush$[ebp], OFFSET ??_7CBrush@@6B@
  00492	e8 00 00 00 00	 call	 ??1CGdiObject@@UAE@XZ	; CGdiObject::~CGdiObject
  00497	8d 8d 74 ff ff
	ff		 lea	 ecx, DWORD PTR _KBrush$[ebp]
  0049d	c7 85 74 ff ff
	ff 00 00 00 00	 mov	 DWORD PTR _KBrush$[ebp], OFFSET ??_7CBrush@@6B@
  004a7	e8 00 00 00 00	 call	 ??1CGdiObject@@UAE@XZ	; CGdiObject::~CGdiObject
  004ac	8d 8d 6c ff ff
	ff		 lea	 ecx, DWORD PTR _BBrush$[ebp]
  004b2	c7 85 6c ff ff
	ff 00 00 00 00	 mov	 DWORD PTR _BBrush$[ebp], OFFSET ??_7CBrush@@6B@
  004bc	e8 00 00 00 00	 call	 ??1CGdiObject@@UAE@XZ	; CGdiObject::~CGdiObject
  004c1	8d 4d 94	 lea	 ecx, DWORD PTR _UBrush$[ebp]
  004c4	c7 45 94 00 00
	00 00		 mov	 DWORD PTR _UBrush$[ebp], OFFSET ??_7CBrush@@6B@
  004cb	e8 00 00 00 00	 call	 ??1CGdiObject@@UAE@XZ	; CGdiObject::~CGdiObject
; File D:\git\src\IBK\IBK_DRFN\ProjSrc\SrcChartEx\ChartOCX\GraphDraw\FundDraw.cpp

; 826  : 	return true;

  004d0	b0 01		 mov	 al, 1
  004d2	eb 02		 jmp	 SHORT $LN1@DrawReturn
$LN6@DrawReturn:

; 756  : 	}
; 757  : 	else
; 758  : 		return false;

  004d4	32 c0		 xor	 al, al
$LN1@DrawReturn:

; 827  : }

  004d6	8b 4d f4	 mov	 ecx, DWORD PTR __$EHRec$[ebp]
  004d9	64 89 0d 00 00
	00 00		 mov	 DWORD PTR fs:0, ecx
  004e0	59		 pop	 ecx
  004e1	5f		 pop	 edi
  004e2	5e		 pop	 esi
  004e3	5b		 pop	 ebx
  004e4	8b 4d f0	 mov	 ecx, DWORD PTR __$ArrayPad$[ebp]
  004e7	33 cd		 xor	 ecx, ebp
  004e9	e8 00 00 00 00	 call	 @__security_check_cookie@4
  004ee	8b e5		 mov	 esp, ebp
  004f0	5d		 pop	 ebp
  004f1	c2 28 00	 ret	 40			; 00000028H
_TEXT	ENDS
;	COMDAT text$x
text$x	SEGMENT
__unwindfunclet$?DrawReturnRiskDispersion@CFundDraw@@AAE_NPAVCDC@@ABVCEtcGraphColor@@ABVCRect@@ABVCGraphColor@@HABN444ABV?$CList@PAVCPacket@@PAV1@@@@Z$0:
  00000	8d 4d 94	 lea	 ecx, DWORD PTR _UBrush$[ebp]
  00003	e9 00 00 00 00	 jmp	 ??1CBrush@@UAE@XZ	; CBrush::~CBrush
__unwindfunclet$?DrawReturnRiskDispersion@CFundDraw@@AAE_NPAVCDC@@ABVCEtcGraphColor@@ABVCRect@@ABVCGraphColor@@HABN444ABV?$CList@PAVCPacket@@PAV1@@@@Z$1:
  00008	8d 8d 6c ff ff
	ff		 lea	 ecx, DWORD PTR _BBrush$[ebp]
  0000e	e9 00 00 00 00	 jmp	 ??1CBrush@@UAE@XZ	; CBrush::~CBrush
__unwindfunclet$?DrawReturnRiskDispersion@CFundDraw@@AAE_NPAVCDC@@ABVCEtcGraphColor@@ABVCRect@@ABVCGraphColor@@HABN444ABV?$CList@PAVCPacket@@PAV1@@@@Z$2:
  00013	8d 8d 74 ff ff
	ff		 lea	 ecx, DWORD PTR _KBrush$[ebp]
  00019	e9 00 00 00 00	 jmp	 ??1CBrush@@UAE@XZ	; CBrush::~CBrush
__unwindfunclet$?DrawReturnRiskDispersion@CFundDraw@@AAE_NPAVCDC@@ABVCEtcGraphColor@@ABVCRect@@ABVCGraphColor@@HABN444ABV?$CList@PAVCPacket@@PAV1@@@@Z$3:
  0001e	8d 8d 7c ff ff
	ff		 lea	 ecx, DWORD PTR _FBrush$[ebp]
  00024	e9 00 00 00 00	 jmp	 ??1CBrush@@UAE@XZ	; CBrush::~CBrush
__unwindfunclet$?DrawReturnRiskDispersion@CFundDraw@@AAE_NPAVCDC@@ABVCEtcGraphColor@@ABVCRect@@ABVCGraphColor@@HABN444ABV?$CList@PAVCPacket@@PAV1@@@@Z$4:
  00029	8d 4d 84	 lea	 ecx, DWORD PTR _elseBrush$[ebp]
  0002c	e9 00 00 00 00	 jmp	 ??1CBrush@@UAE@XZ	; CBrush::~CBrush
__unwindfunclet$?DrawReturnRiskDispersion@CFundDraw@@AAE_NPAVCDC@@ABVCEtcGraphColor@@ABVCRect@@ABVCGraphColor@@HABN444ABV?$CList@PAVCPacket@@PAV1@@@@Z$5:
  00031	8d 4d bc	 lea	 ecx, DWORD PTR _part$5[ebp]
  00034	ff 25 00 00 00
	00		 jmp	 DWORD PTR __imp_??1?$CStringT@DV?$StrTraitMFC_DLL@DV?$ChTraitsCRT@D@ATL@@@@@ATL@@QAE@XZ
  0003a	cc		 int	 3
  0003b	cc		 int	 3
  0003c	cc		 int	 3
  0003d	cc		 int	 3
  0003e	cc		 int	 3
__ehhandler$?DrawReturnRiskDispersion@CFundDraw@@AAE_NPAVCDC@@ABVCEtcGraphColor@@ABVCRect@@ABVCGraphColor@@HABN444ABV?$CList@PAVCPacket@@PAV1@@@@Z:
  0003f	90		 npad	 1
  00040	90		 npad	 1
  00041	8b 54 24 08	 mov	 edx, DWORD PTR [esp+8]
  00045	8d 42 0c	 lea	 eax, DWORD PTR [edx+12]
  00048	8b 8a 38 ff ff
	ff		 mov	 ecx, DWORD PTR [edx-200]
  0004e	33 c8		 xor	 ecx, eax
  00050	e8 00 00 00 00	 call	 @__security_check_cookie@4
  00055	8b 4a fc	 mov	 ecx, DWORD PTR [edx-4]
  00058	33 c8		 xor	 ecx, eax
  0005a	e8 00 00 00 00	 call	 @__security_check_cookie@4
  0005f	b8 00 00 00 00	 mov	 eax, OFFSET __ehfuncinfo$?DrawReturnRiskDispersion@CFundDraw@@AAE_NPAVCDC@@ABVCEtcGraphColor@@ABVCRect@@ABVCGraphColor@@HABN444ABV?$CList@PAVCPacket@@PAV1@@@@Z
  00064	e9 00 00 00 00	 jmp	 ___CxxFrameHandler3
text$x	ENDS
?DrawReturnRiskDispersion@CFundDraw@@AAE_NPAVCDC@@ABVCEtcGraphColor@@ABVCRect@@ABVCGraphColor@@HABN444ABV?$CList@PAVCPacket@@PAV1@@@@Z ENDP ; CFundDraw::DrawReturnRiskDispersion
; Function compile flags: /Ogtp
; File D:\git\src\IBK\IBK_DRFN\ProjSrc\SrcChartEx\ChartOCX\GraphDraw\FundDraw.cpp
; File C:\Program Files (x86)\Microsoft Visual Studio\2019\Community\VC\Tools\MSVC\14.29.30133\atlmfc\include\afxtempl.h
; File D:\git\src\IBK\IBK_DRFN\ProjSrc\SrcChartEx\ChartOCX\GraphDraw\FundDraw.cpp
; File C:\Program Files (x86)\Microsoft Visual Studio\2019\Community\VC\Tools\MSVC\14.29.30133\atlmfc\include\afxtempl.h
; File D:\git\src\IBK\IBK_DRFN\ProjSrc\SrcChartEx\ChartOCX\GraphDraw\FundDraw.cpp
; File C:\Program Files (x86)\Microsoft Visual Studio\2019\Community\VC\Tools\MSVC\14.29.30133\atlmfc\include\afxtempl.h
; File D:\git\src\IBK\IBK_DRFN\ProjSrc\SrcChartEx\ChartOCX\GraphDraw\FundDraw.cpp
; File C:\Program Files (x86)\Microsoft Visual Studio\2019\Community\VC\Tools\MSVC\14.29.30133\atlmfc\include\afxwin1.inl
; File D:\git\src\IBK\IBK_DRFN\ProjSrc\SrcChartEx\ChartOCX\GraphDraw\FundDraw.cpp
; File C:\Program Files (x86)\Microsoft Visual Studio\2019\Community\VC\Tools\MSVC\14.29.30133\atlmfc\include\afxwin1.inl
; File D:\git\src\IBK\IBK_DRFN\ProjSrc\SrcChartEx\ChartOCX\GraphDraw\FundDraw.cpp
; File C:\Program Files (x86)\Microsoft Visual Studio\2019\Community\VC\Tools\MSVC\14.29.30133\atlmfc\include\afxwin1.inl
; File D:\git\src\IBK\IBK_DRFN\ProjSrc\SrcChartEx\ChartOCX\GraphDraw\FundDraw.cpp
; File C:\Program Files (x86)\Microsoft Visual Studio\2019\Community\VC\Tools\MSVC\14.29.30133\atlmfc\include\afxwin1.inl
; File D:\git\src\IBK\IBK_DRFN\ProjSrc\SrcChartEx\ChartOCX\GraphDraw\FundDraw.cpp
; File C:\Program Files (x86)\Microsoft Visual Studio\2019\Community\VC\Tools\MSVC\14.29.30133\atlmfc\include\afxwin1.inl
; File D:\git\src\IBK\IBK_DRFN\ProjSrc\SrcChartEx\ChartOCX\GraphDraw\FundDraw.cpp
; File C:\Program Files (x86)\Microsoft Visual Studio\2019\Community\VC\Tools\MSVC\14.29.30133\atlmfc\include\afxwin1.inl
; File D:\git\src\IBK\IBK_DRFN\ProjSrc\SrcChartEx\ChartOCX\GraphDraw\FundDraw.cpp
; File C:\Program Files (x86)\Microsoft Visual Studio\2019\Community\VC\Tools\MSVC\14.29.30133\atlmfc\include\afxwin1.inl
; File D:\git\src\IBK\IBK_DRFN\ProjSrc\SrcChartEx\ChartOCX\GraphDraw\FundDraw.cpp
; File C:\Program Files (x86)\Microsoft Visual Studio\2019\Community\VC\Tools\MSVC\14.29.30133\atlmfc\include\afxwin1.inl
; File D:\git\src\IBK\IBK_DRFN\ProjSrc\SrcChartEx\ChartOCX\GraphDraw\FundDraw.cpp
; File C:\Program Files (x86)\Microsoft Visual Studio\2019\Community\VC\Tools\MSVC\14.29.30133\atlmfc\include\afxwin1.inl
; File D:\git\src\IBK\IBK_DRFN\ProjSrc\SrcChartEx\ChartOCX\GraphDraw\FundDraw.cpp
; File C:\Program Files (x86)\Microsoft Visual Studio\2019\Community\VC\Tools\MSVC\14.29.30133\atlmfc\include\afxwin1.inl
; File D:\git\src\IBK\IBK_DRFN\ProjSrc\SrcChartEx\ChartOCX\GraphDraw\FundDraw.cpp
; File C:\Program Files (x86)\Microsoft Visual Studio\2019\Community\VC\Tools\MSVC\14.29.30133\atlmfc\include\afxwin1.inl
; File D:\git\src\IBK\IBK_DRFN\ProjSrc\SrcChartEx\ChartOCX\GraphDraw\FundDraw.cpp
; File C:\Program Files (x86)\Microsoft Visual Studio\2019\Community\VC\Tools\MSVC\14.29.30133\atlmfc\include\atltypes.h
; File D:\git\src\IBK\IBK_DRFN\ProjSrc\SrcChartEx\ChartOCX\GraphDraw\FundDraw.cpp
; File C:\Program Files (x86)\Microsoft Visual Studio\2019\Community\VC\Tools\MSVC\14.29.30133\atlmfc\include\atltypes.h
; File D:\git\src\IBK\IBK_DRFN\ProjSrc\SrcChartEx\ChartOCX\GraphDraw\FundDraw.cpp
; File C:\Program Files (x86)\Microsoft Visual Studio\2019\Community\VC\Tools\MSVC\14.29.30133\atlmfc\include\atltypes.h
; File D:\git\src\IBK\IBK_DRFN\ProjSrc\SrcChartEx\ChartOCX\GraphDraw\FundDraw.cpp
; File C:\Program Files (x86)\Microsoft Visual Studio\2019\Community\VC\Tools\MSVC\14.29.30133\atlmfc\include\afxtempl.h
; File D:\git\src\IBK\IBK_DRFN\ProjSrc\SrcChartEx\ChartOCX\GraphDraw\FundDraw.cpp
; File C:\Program Files (x86)\Microsoft Visual Studio\2019\Community\VC\Tools\MSVC\14.29.30133\atlmfc\include\afxtempl.h
; File D:\git\src\IBK\IBK_DRFN\ProjSrc\SrcChartEx\ChartOCX\GraphDraw\FundDraw.cpp
; File C:\Program Files (x86)\Microsoft Visual Studio\2019\Community\VC\Tools\MSVC\14.29.30133\atlmfc\include\afxtempl.h
; File D:\git\src\IBK\IBK_DRFN\ProjSrc\SrcChartEx\ChartOCX\GraphDraw\FundDraw.cpp
; File D:\git\src\IBK\IBK_DRFN\ProjSrc\SrcChartEx\ChartOCX\Include_Chart\Conversion.h
; File D:\git\src\IBK\IBK_DRFN\ProjSrc\SrcChartEx\ChartOCX\GraphDraw\FundDraw.cpp
; File D:\git\src\IBK\IBK_DRFN\ProjSrc\SrcChartEx\ChartOCX\Include_Chart\Conversion.h
; File D:\git\src\IBK\IBK_DRFN\ProjSrc\SrcChartEx\ChartOCX\GraphDraw\FundDraw.cpp
; File C:\Program Files (x86)\Microsoft Visual Studio\2019\Community\VC\Tools\MSVC\14.29.30133\atlmfc\include\afxtempl.h
; File D:\git\src\IBK\IBK_DRFN\ProjSrc\SrcChartEx\ChartOCX\GraphDraw\FundDraw.cpp
; File C:\Program Files (x86)\Microsoft Visual Studio\2019\Community\VC\Tools\MSVC\14.29.30133\atlmfc\include\afxtempl.h
; File D:\git\src\IBK\IBK_DRFN\ProjSrc\SrcChartEx\ChartOCX\GraphDraw\FundDraw.cpp
; File D:\git\src\IBK\IBK_DRFN\ProjSrc\SrcChartEx\ChartOCX\Include_Chart\Conversion.h
; File D:\git\src\IBK\IBK_DRFN\ProjSrc\SrcChartEx\ChartOCX\GraphDraw\FundDraw.cpp
; File D:\git\src\IBK\IBK_DRFN\ProjSrc\SrcChartEx\ChartOCX\Include_Chart\Conversion.h
; File D:\git\src\IBK\IBK_DRFN\ProjSrc\SrcChartEx\ChartOCX\GraphDraw\FundDraw.cpp
; File D:\git\src\IBK\IBK_DRFN\ProjSrc\SrcChartEx\ChartOCX\Include_Chart\Conversion.h
; File D:\git\src\IBK\IBK_DRFN\ProjSrc\SrcChartEx\ChartOCX\GraphDraw\FundDraw.cpp
; File C:\Program Files (x86)\Microsoft Visual Studio\2019\Community\VC\Tools\MSVC\14.29.30133\atlmfc\include\atltypes.h
; File D:\git\src\IBK\IBK_DRFN\ProjSrc\SrcChartEx\ChartOCX\GraphDraw\FundDraw.cpp
; File C:\Program Files (x86)\Microsoft Visual Studio\2019\Community\VC\Tools\MSVC\14.29.30133\atlmfc\include\atltypes.h
; File D:\git\src\IBK\IBK_DRFN\ProjSrc\SrcChartEx\ChartOCX\GraphDraw\FundDraw.cpp
; File C:\Program Files (x86)\Microsoft Visual Studio\2019\Community\VC\Tools\MSVC\14.29.30133\atlmfc\include\afxwin1.inl
; File D:\git\src\IBK\IBK_DRFN\ProjSrc\SrcChartEx\ChartOCX\GraphDraw\FundDraw.cpp
; File C:\Program Files (x86)\Microsoft Visual Studio\2019\Community\VC\Tools\MSVC\14.29.30133\atlmfc\include\afxwin1.inl
; File D:\git\src\IBK\IBK_DRFN\ProjSrc\SrcChartEx\ChartOCX\GraphDraw\FundDraw.cpp
; File C:\Program Files (x86)\Microsoft Visual Studio\2019\Community\VC\Tools\MSVC\14.29.30133\atlmfc\include\afxwin1.inl
; File C:\Program Files (x86)\Microsoft Visual Studio\2019\Community\VC\Tools\MSVC\14.29.30133\atlmfc\include\afxtempl.h
; File D:\git\src\IBK\IBK_DRFN\ProjSrc\SrcChartEx\ChartOCX\GraphDraw\FundDraw.cpp
;	COMDAT ?DrawComponentRatio_Line@CFundDraw@@AAE_NPAVCDC@@ABVCEtcGraphColor@@ABVCRect@@ABVCGraphColor@@HHHABN4ABV?$CList@PAVCPacket@@PAV1@@@VCPenThickness@@@Z
_TEXT	SEGMENT
_beforeData$4 = -408					; size = 8
_data$5 = -400						; size = 8
_realWidth$ = -392					; size = 8
_beforeTempData$6 = -384				; size = 8
$T7 = -376						; size = 8
$T8 = -368						; size = 8
_pOldPen$1$ = -360					; size = 4
_packetHeadPos$2$ = -356				; size = 4
_pOldBrush$1$ = -352					; size = 4
tv1966 = -348						; size = 4
_dataViewMax$GSCopy$1$ = -344				; size = 4
$T9 = -340						; size = 4
$T10 = -336						; size = 4
$T11 = -332						; size = 4
$T12 = -328						; size = 4
_packetList$GSCopy$1$ = -324				; size = 4
_packetPosition$ = -320					; size = 28
_fiveBrush$ = -292					; size = 8
_secondBrush$ = -284					; size = 8
_thirdBrush$ = -276					; size = 8
_fourBrush$ = -268					; size = 8
_sixBrush$ = -260					; size = 8
_sevenBrush$ = -252					; size = 8
_eightBrush$ = -244					; size = 8
_nineBrush$ = -236					; size = 8
_tenBrush$ = -228					; size = 8
tv1724 = -220						; size = 8
_tempData$13 = -220					; size = 8
_firstBrush$ = -212					; size = 8
_dataViewMin$GSCopy$1$ = -204				; size = 4
_graphDrawingRegion$GSCopy$1$ = -200			; size = 4
_this$GSCopy$1$ = -196					; size = 4
_pen5$ = -192						; size = 8
_pen6$ = -184						; size = 8
_pen7$ = -176						; size = 8
_pen8$ = -168						; size = 8
_pen9$ = -160						; size = 8
_pen4$ = -152						; size = 8
_pen2$ = -144						; size = 8
_pen10$ = -136						; size = 8
_pen3$ = -128						; size = 8
_pen1$ = -120						; size = 8
tv1745 = -112						; size = 8
_dataStart$GSCopy$1$ = -108				; size = 4
_dataPacket$1$ = -108					; size = 4
_packetCount$1$ = -104					; size = 4
_strData$14 = -100					; size = 4
tv1958 = -96						; size = 4
_beforeStrData$15 = -92					; size = 4
$T16 = -88						; size = 4
_beforeDataPt$17 = -84					; size = 8
_nowDataPt$18 = -76					; size = 8
tv1955 = -68						; size = 4
_packetHeadPos$1$ = -68					; size = 4
_pDC$GSCopy$1$ = -64					; size = 4
_j$1$ = -60						; size = 4
_i$1$ = -60						; size = 4
_etcGraphColor$GSCopy$1$ = -56				; size = 4
$T19 = -56						; size = 4
tv1954 = -56						; size = 4
$T20 = -52						; size = 4
_graphColor$GSCopy$1$ = -52				; size = 4
_fourPoint$ = -48					; size = 32
__$ArrayPad$ = -16					; size = 4
__$EHRec$ = -12						; size = 12
_pDC$ = 8						; size = 4
_etcGraphColor$ = 12					; size = 4
_graphDrawingRegion$ = 16				; size = 4
_graphColor$ = 20					; size = 4
_dataStart$ = 24					; size = 4
_dataEnd$ = 28						; size = 4
_dataRealEnd$ = 32					; size = 4
_dataViewMax$ = 36					; size = 4
_dataViewMin$ = 40					; size = 4
_packetList$ = 44					; size = 4
_penThickness$ = 48					; size = 20
?DrawComponentRatio_Line@CFundDraw@@AAE_NPAVCDC@@ABVCEtcGraphColor@@ABVCRect@@ABVCGraphColor@@HHHABN4ABV?$CList@PAVCPacket@@PAV1@@@VCPenThickness@@@Z PROC ; CFundDraw::DrawComponentRatio_Line, COMDAT
; _this$ = ecx

; 550  : {

  00000	55		 push	 ebp
  00001	8b ec		 mov	 ebp, esp
  00003	6a ff		 push	 -1
  00005	68 00 00 00 00	 push	 __ehhandler$?DrawComponentRatio_Line@CFundDraw@@AAE_NPAVCDC@@ABVCEtcGraphColor@@ABVCRect@@ABVCGraphColor@@HHHABN4ABV?$CList@PAVCPacket@@PAV1@@@VCPenThickness@@@Z
  0000a	64 a1 00 00 00
	00		 mov	 eax, DWORD PTR fs:0
  00010	50		 push	 eax
  00011	81 ec 8c 01 00
	00		 sub	 esp, 396		; 0000018cH
  00017	a1 00 00 00 00	 mov	 eax, DWORD PTR ___security_cookie
  0001c	33 c5		 xor	 eax, ebp
  0001e	89 45 f0	 mov	 DWORD PTR __$ArrayPad$[ebp], eax
  00021	53		 push	 ebx
  00022	56		 push	 esi
  00023	57		 push	 edi
  00024	50		 push	 eax
  00025	8d 45 f4	 lea	 eax, DWORD PTR __$EHRec$[ebp]
  00028	64 a3 00 00 00
	00		 mov	 DWORD PTR fs:0, eax
  0002e	8b f1		 mov	 esi, ecx
  00030	89 b5 3c ff ff
	ff		 mov	 DWORD PTR _this$GSCopy$1$[ebp], esi
  00036	8b 4d 08	 mov	 ecx, DWORD PTR _pDC$[ebp]
  00039	8b 55 2c	 mov	 edx, DWORD PTR _packetList$[ebp]
  0003c	8b 45 0c	 mov	 eax, DWORD PTR _etcGraphColor$[ebp]
  0003f	8b 7d 14	 mov	 edi, DWORD PTR _graphColor$[ebp]
  00042	8b 5d 18	 mov	 ebx, DWORD PTR _dataStart$[ebp]
  00045	89 4d c0	 mov	 DWORD PTR _pDC$GSCopy$1$[ebp], ecx
  00048	8b 4d 24	 mov	 ecx, DWORD PTR _dataViewMax$[ebp]
  0004b	89 8d a8 fe ff
	ff		 mov	 DWORD PTR _dataViewMax$GSCopy$1$[ebp], ecx
  00051	8b 4d 28	 mov	 ecx, DWORD PTR _dataViewMin$[ebp]
  00054	89 8d 34 ff ff
	ff		 mov	 DWORD PTR _dataViewMin$GSCopy$1$[ebp], ecx

; 551  : 	POSITION packetHeadPos = packetList.GetHeadPosition();

  0005a	8b 4a 04	 mov	 ecx, DWORD PTR [edx+4]
  0005d	89 45 c8	 mov	 DWORD PTR _etcGraphColor$GSCopy$1$[ebp], eax
  00060	8b 45 10	 mov	 eax, DWORD PTR _graphDrawingRegion$[ebp]
  00063	89 85 38 ff ff
	ff		 mov	 DWORD PTR _graphDrawingRegion$GSCopy$1$[ebp], eax
  00069	89 7d cc	 mov	 DWORD PTR _graphColor$GSCopy$1$[ebp], edi
  0006c	89 5d 94	 mov	 DWORD PTR _dataStart$GSCopy$1$[ebp], ebx
  0006f	89 95 bc fe ff
	ff		 mov	 DWORD PTR _packetList$GSCopy$1$[ebp], edx

; 552  : 	if(packetHeadPos == NULL) 

  00075	85 c9		 test	 ecx, ecx
  00077	75 07		 jne	 SHORT $LN11@DrawCompon

; 553  : 		return false;

  00079	32 c0		 xor	 al, al
  0007b	e9 1b 0b 00 00	 jmp	 $LN1@DrawCompon
$LN11@DrawCompon:

; 554  : 
; 555  : 	int packetCount = packetList.GetCount();

  00080	8b 52 0c	 mov	 edx, DWORD PTR [edx+12]
  00083	89 55 98	 mov	 DWORD PTR _packetCount$1$[ebp], edx
; File C:\Program Files (x86)\Microsoft Visual Studio\2019\Community\VC\Tools\MSVC\14.29.30133\atlmfc\include\afxtempl.h

; 851  : {

  00086	c7 85 c0 fe ff
	ff 00 00 00 00	 mov	 DWORD PTR _packetPosition$[ebp], OFFSET ??_7?$CList@PAU__POSITION@@PAU1@@@6B@

; 852  : 	ASSERT(nBlockSize > 0);
; 853  : 
; 854  : 	m_nCount = 0;

  00090	c7 85 cc fe ff
	ff 00 00 00 00	 mov	 DWORD PTR _packetPosition$[ebp+12], 0

; 855  : 	m_pNodeHead = m_pNodeTail = m_pNodeFree = NULL;

  0009a	c7 85 d0 fe ff
	ff 00 00 00 00	 mov	 DWORD PTR _packetPosition$[ebp+16], 0
  000a4	c7 85 c8 fe ff
	ff 00 00 00 00	 mov	 DWORD PTR _packetPosition$[ebp+8], 0
  000ae	c7 85 c4 fe ff
	ff 00 00 00 00	 mov	 DWORD PTR _packetPosition$[ebp+4], 0

; 856  : 	m_pBlocks = NULL;

  000b8	c7 85 d4 fe ff
	ff 00 00 00 00	 mov	 DWORD PTR _packetPosition$[ebp+20], 0

; 857  : 	m_nBlockSize = nBlockSize;

  000c2	c7 85 d8 fe ff
	ff 0a 00 00 00	 mov	 DWORD PTR _packetPosition$[ebp+24], 10 ; 0000000aH
; File D:\git\src\IBK\IBK_DRFN\ProjSrc\SrcChartEx\ChartOCX\GraphDraw\FundDraw.cpp

; 558  : 	CList<POSITION, POSITION> packetPosition;

  000cc	c7 45 fc 00 00
	00 00		 mov	 DWORD PTR __$EHRec$[ebp+8], 0

; 559  : 	for(i = 0; i < packetCount; i++){

  000d3	c7 45 c4 00 00
	00 00		 mov	 DWORD PTR _i$1$[ebp], 0
  000da	85 d2		 test	 edx, edx
  000dc	7e 62		 jle	 SHORT $LN3@DrawCompon
  000de	66 90		 npad	 2
$LL4@DrawCompon:

; 560  : 		if(packetHeadPos == NULL)

  000e0	85 c9		 test	 ecx, ecx
  000e2	74 4c		 je	 SHORT $LN263@DrawCompon
; File C:\Program Files (x86)\Microsoft Visual Studio\2019\Community\VC\Tools\MSVC\14.29.30133\atlmfc\include\afxtempl.h

; 817  : 	{ CNode* pNode = (CNode*) rPosition;

  000e4	8b c1		 mov	 eax, ecx

; 819  : 		rPosition = (POSITION) pNode->pNext;

  000e6	8b 09		 mov	 ecx, DWORD PTR [ecx]
  000e8	89 4d bc	 mov	 DWORD PTR _packetHeadPos$1$[ebp], ecx
; File D:\git\src\IBK\IBK_DRFN\ProjSrc\SrcChartEx\ChartOCX\GraphDraw\FundDraw.cpp

; 563  : 		CPacket* pPacket = packetList.GetNext(packetHeadPos);

  000eb	8b 48 08	 mov	 ecx, DWORD PTR [eax+8]

; 564  : 		if(pPacket == NULL)

  000ee	85 c9		 test	 ecx, ecx
  000f0	74 3e		 je	 SHORT $LN263@DrawCompon

; 565  : 			return false;
; 566  : 		else{
; 567  : 			//displayData
; 568  : 			//POSITION pos = pPacket->GetnumericDataList()->FindIndex(dataStart-1);
; 569  : 			POSITION pos = pPacket->GetnumericDataList()->FindIndex(dataStart);

  000f2	8b fb		 mov	 edi, ebx
  000f4	ff 15 00 00 00
	00		 call	 DWORD PTR __imp_?GetnumericDataList@CPacket@@QAEPAV?$CList@NN@@XZ
; File C:\Program Files (x86)\Microsoft Visual Studio\2019\Community\VC\Tools\MSVC\14.29.30133\atlmfc\include\afxtempl.h

; 1133 : 	if (nIndex >= m_nCount || nIndex < 0)

  000fa	3b 58 0c	 cmp	 ebx, DWORD PTR [eax+12]
  000fd	7d 31		 jge	 SHORT $LN263@DrawCompon
  000ff	85 db		 test	 ebx, ebx
  00101	78 2d		 js	 SHORT $LN263@DrawCompon

; 1135 : 
; 1136 : 	CNode* pNode = m_pNodeHead;

  00103	8b 40 04	 mov	 eax, DWORD PTR [eax+4]

; 1137 : 	while (nIndex--)

  00106	74 07		 je	 SHORT $LN266@DrawCompon
$LL74@DrawCompon:

; 1138 : 	{
; 1139 : 		ASSERT(AfxIsValidAddress(pNode, sizeof(CNode)));
; 1140 : 		pNode = pNode->pNext;

  00108	8b 00		 mov	 eax, DWORD PTR [eax]
  0010a	83 ef 01	 sub	 edi, 1
  0010d	75 f9		 jne	 SHORT $LL74@DrawCompon
$LN266@DrawCompon:
; File D:\git\src\IBK\IBK_DRFN\ProjSrc\SrcChartEx\ChartOCX\GraphDraw\FundDraw.cpp

; 570  : 			if(pos == NULL)

  0010f	85 c0		 test	 eax, eax
  00111	74 1d		 je	 SHORT $LN263@DrawCompon

; 571  : 				return false;
; 572  : 			else
; 573  : 				packetPosition.AddTail(pos);

  00113	50		 push	 eax
  00114	8d 8d c0 fe ff
	ff		 lea	 ecx, DWORD PTR _packetPosition$[ebp]
  0011a	e8 00 00 00 00	 call	 ?AddTail@?$CList@PAU__POSITION@@PAU1@@@QAEPAU__POSITION@@PAU2@@Z ; CList<__POSITION *,__POSITION *>::AddTail
  0011f	8b 45 c4	 mov	 eax, DWORD PTR _i$1$[ebp]
  00122	40		 inc	 eax
  00123	89 45 c4	 mov	 DWORD PTR _i$1$[ebp], eax
  00126	3b 45 98	 cmp	 eax, DWORD PTR _packetCount$1$[ebp]
  00129	7d 0c		 jge	 SHORT $LN302@DrawCompon

; 559  : 	for(i = 0; i < packetCount; i++){

  0012b	8b 4d bc	 mov	 ecx, DWORD PTR _packetHeadPos$1$[ebp]
  0012e	eb b0		 jmp	 SHORT $LL4@DrawCompon
$LN263@DrawCompon:
  00130	32 db		 xor	 bl, bl
  00132	e9 1e 0a 00 00	 jmp	 $LN245@DrawCompon
$LN302@DrawCompon:
  00137	8b 85 38 ff ff
	ff		 mov	 eax, DWORD PTR _graphDrawingRegion$GSCopy$1$[ebp]
  0013d	8b 7d cc	 mov	 edi, DWORD PTR _graphColor$GSCopy$1$[ebp]
$LN3@DrawCompon:

; 574  : 		}
; 575  : 	}
; 576  : 
; 577  : 	double realWidth = CDraw::CalRealWidth(graphDrawingRegion, dataStart, dataEnd);

  00140	ff 75 1c	 push	 DWORD PTR _dataEnd$[ebp]
  00143	8b ce		 mov	 ecx, esi
  00145	53		 push	 ebx
  00146	50		 push	 eax
  00147	e8 00 00 00 00	 call	 ?CalRealWidth@CDraw@@IAENABVCRect@@HH@Z ; CDraw::CalRealWidth

; 578  : 	int lineThickness = penThickness.GetThickness1();

  0014c	8d 4d 30	 lea	 ecx, DWORD PTR _penThickness$[ebp]
  0014f	dd 9d 78 fe ff
	ff		 fstp	 QWORD PTR _realWidth$[ebp]
  00155	ff 15 00 00 00
	00		 call	 DWORD PTR __imp_?GetThickness1@CPenThickness@@QBEHXZ
; File C:\Program Files (x86)\Microsoft Visual Studio\2019\Community\VC\Tools\MSVC\14.29.30133\atlmfc\include\afxwin1.inl

; 70   : 	{ m_hObject = NULL; }

  0015b	c7 45 8c 00 00
	00 00		 mov	 DWORD PTR _pen1$[ebp+4], 0

; 104  : 	{ }

  00162	c7 45 88 00 00
	00 00		 mov	 DWORD PTR _pen1$[ebp], OFFSET ??_7CPen@@6B@

; 70   : 	{ m_hObject = NULL; }

  00169	c7 85 74 ff ff
	ff 00 00 00 00	 mov	 DWORD PTR _pen2$[ebp+4], 0

; 104  : 	{ }

  00173	c7 85 70 ff ff
	ff 00 00 00 00	 mov	 DWORD PTR _pen2$[ebp], OFFSET ??_7CPen@@6B@

; 70   : 	{ m_hObject = NULL; }

  0017d	c7 45 84 00 00
	00 00		 mov	 DWORD PTR _pen3$[ebp+4], 0

; 104  : 	{ }

  00184	c7 45 80 00 00
	00 00		 mov	 DWORD PTR _pen3$[ebp], OFFSET ??_7CPen@@6B@

; 70   : 	{ m_hObject = NULL; }

  0018b	c7 85 6c ff ff
	ff 00 00 00 00	 mov	 DWORD PTR _pen4$[ebp+4], 0

; 104  : 	{ }

  00195	c7 85 68 ff ff
	ff 00 00 00 00	 mov	 DWORD PTR _pen4$[ebp], OFFSET ??_7CPen@@6B@

; 70   : 	{ m_hObject = NULL; }

  0019f	c7 85 44 ff ff
	ff 00 00 00 00	 mov	 DWORD PTR _pen5$[ebp+4], 0

; 104  : 	{ }

  001a9	c7 85 40 ff ff
	ff 00 00 00 00	 mov	 DWORD PTR _pen5$[ebp], OFFSET ??_7CPen@@6B@

; 70   : 	{ m_hObject = NULL; }

  001b3	c7 85 4c ff ff
	ff 00 00 00 00	 mov	 DWORD PTR _pen6$[ebp+4], 0

; 104  : 	{ }

  001bd	c7 85 48 ff ff
	ff 00 00 00 00	 mov	 DWORD PTR _pen6$[ebp], OFFSET ??_7CPen@@6B@

; 70   : 	{ m_hObject = NULL; }

  001c7	c7 85 54 ff ff
	ff 00 00 00 00	 mov	 DWORD PTR _pen7$[ebp+4], 0

; 104  : 	{ }

  001d1	c7 85 50 ff ff
	ff 00 00 00 00	 mov	 DWORD PTR _pen7$[ebp], OFFSET ??_7CPen@@6B@

; 70   : 	{ m_hObject = NULL; }

  001db	c7 85 5c ff ff
	ff 00 00 00 00	 mov	 DWORD PTR _pen8$[ebp+4], 0

; 104  : 	{ }

  001e5	c7 85 58 ff ff
	ff 00 00 00 00	 mov	 DWORD PTR _pen8$[ebp], OFFSET ??_7CPen@@6B@

; 70   : 	{ m_hObject = NULL; }

  001ef	c7 85 64 ff ff
	ff 00 00 00 00	 mov	 DWORD PTR _pen9$[ebp+4], 0

; 104  : 	{ }

  001f9	c7 85 60 ff ff
	ff 00 00 00 00	 mov	 DWORD PTR _pen9$[ebp], OFFSET ??_7CPen@@6B@

; 70   : 	{ m_hObject = NULL; }

  00203	c7 85 7c ff ff
	ff 00 00 00 00	 mov	 DWORD PTR _pen10$[ebp+4], 0

; 104  : 	{ }

  0020d	c7 85 78 ff ff
	ff 00 00 00 00	 mov	 DWORD PTR _pen10$[ebp], OFFSET ??_7CPen@@6B@
; File D:\git\src\IBK\IBK_DRFN\ProjSrc\SrcChartEx\ChartOCX\GraphDraw\FundDraw.cpp

; 583  : 	pen1.CreatePen	(PS_SOLID, lineThickness, graphColor.GetColor1());

  00217	8b cf		 mov	 ecx, edi
  00219	c6 45 fc 0a	 mov	 BYTE PTR __$EHRec$[ebp+8], 10 ; 0000000aH
  0021d	ff 15 00 00 00
	00		 call	 DWORD PTR __imp_?GetColor1@CGraphColor@@QBEKXZ
; File C:\Program Files (x86)\Microsoft Visual Studio\2019\Community\VC\Tools\MSVC\14.29.30133\atlmfc\include\afxwin1.inl

; 108  : 	{ return Attach(::CreatePen(nPenStyle, nWidth, crColor)); }

  00223	8b 35 00 00 00
	00		 mov	 esi, DWORD PTR __imp__CreatePen@12
  00229	50		 push	 eax
  0022a	6a 03		 push	 3
  0022c	6a 00		 push	 0
  0022e	ff d6		 call	 esi
  00230	50		 push	 eax
  00231	8d 4d 88	 lea	 ecx, DWORD PTR _pen1$[ebp]
  00234	e8 00 00 00 00	 call	 ?Attach@CGdiObject@@QAEHPAX@Z ; CGdiObject::Attach
; File D:\git\src\IBK\IBK_DRFN\ProjSrc\SrcChartEx\ChartOCX\GraphDraw\FundDraw.cpp

; 584  : 	pen2.CreatePen	(PS_SOLID, lineThickness, graphColor.GetColor2());

  00239	8b cf		 mov	 ecx, edi
  0023b	ff 15 00 00 00
	00		 call	 DWORD PTR __imp_?GetColor2@CGraphColor@@QBEKXZ
; File C:\Program Files (x86)\Microsoft Visual Studio\2019\Community\VC\Tools\MSVC\14.29.30133\atlmfc\include\afxwin1.inl

; 108  : 	{ return Attach(::CreatePen(nPenStyle, nWidth, crColor)); }

  00241	50		 push	 eax
  00242	6a 03		 push	 3
  00244	6a 00		 push	 0
  00246	ff d6		 call	 esi
  00248	50		 push	 eax
  00249	8d 8d 70 ff ff
	ff		 lea	 ecx, DWORD PTR _pen2$[ebp]
  0024f	e8 00 00 00 00	 call	 ?Attach@CGdiObject@@QAEHPAX@Z ; CGdiObject::Attach
; File D:\git\src\IBK\IBK_DRFN\ProjSrc\SrcChartEx\ChartOCX\GraphDraw\FundDraw.cpp

; 585  : 	pen3.CreatePen	(PS_SOLID, lineThickness, graphColor.GetColor3());

  00254	8b cf		 mov	 ecx, edi
  00256	ff 15 00 00 00
	00		 call	 DWORD PTR __imp_?GetColor3@CGraphColor@@QBEKXZ
; File C:\Program Files (x86)\Microsoft Visual Studio\2019\Community\VC\Tools\MSVC\14.29.30133\atlmfc\include\afxwin1.inl

; 108  : 	{ return Attach(::CreatePen(nPenStyle, nWidth, crColor)); }

  0025c	50		 push	 eax
  0025d	6a 03		 push	 3
  0025f	6a 00		 push	 0
  00261	ff d6		 call	 esi
  00263	50		 push	 eax
  00264	8d 4d 80	 lea	 ecx, DWORD PTR _pen3$[ebp]
  00267	e8 00 00 00 00	 call	 ?Attach@CGdiObject@@QAEHPAX@Z ; CGdiObject::Attach
; File D:\git\src\IBK\IBK_DRFN\ProjSrc\SrcChartEx\ChartOCX\GraphDraw\FundDraw.cpp

; 586  : 	pen4.CreatePen	(PS_SOLID, lineThickness, graphColor.GetColor4());

  0026c	8b cf		 mov	 ecx, edi
  0026e	ff 15 00 00 00
	00		 call	 DWORD PTR __imp_?GetColor4@CGraphColor@@QBEKXZ
; File C:\Program Files (x86)\Microsoft Visual Studio\2019\Community\VC\Tools\MSVC\14.29.30133\atlmfc\include\afxwin1.inl

; 108  : 	{ return Attach(::CreatePen(nPenStyle, nWidth, crColor)); }

  00274	50		 push	 eax
  00275	6a 03		 push	 3
  00277	6a 00		 push	 0
  00279	ff d6		 call	 esi
  0027b	50		 push	 eax
  0027c	8d 8d 68 ff ff
	ff		 lea	 ecx, DWORD PTR _pen4$[ebp]
  00282	e8 00 00 00 00	 call	 ?Attach@CGdiObject@@QAEHPAX@Z ; CGdiObject::Attach
; File D:\git\src\IBK\IBK_DRFN\ProjSrc\SrcChartEx\ChartOCX\GraphDraw\FundDraw.cpp

; 587  : 	pen5.CreatePen	(PS_SOLID, lineThickness, graphColor.GetColor5());

  00287	8b cf		 mov	 ecx, edi
  00289	ff 15 00 00 00
	00		 call	 DWORD PTR __imp_?GetColor5@CGraphColor@@QBEKXZ
; File C:\Program Files (x86)\Microsoft Visual Studio\2019\Community\VC\Tools\MSVC\14.29.30133\atlmfc\include\afxwin1.inl

; 108  : 	{ return Attach(::CreatePen(nPenStyle, nWidth, crColor)); }

  0028f	50		 push	 eax
  00290	6a 03		 push	 3
  00292	6a 00		 push	 0
  00294	ff d6		 call	 esi
  00296	50		 push	 eax
  00297	8d 8d 40 ff ff
	ff		 lea	 ecx, DWORD PTR _pen5$[ebp]
  0029d	e8 00 00 00 00	 call	 ?Attach@CGdiObject@@QAEHPAX@Z ; CGdiObject::Attach
; File D:\git\src\IBK\IBK_DRFN\ProjSrc\SrcChartEx\ChartOCX\GraphDraw\FundDraw.cpp

; 588  : 	pen6.CreatePen	(PS_SOLID, lineThickness, graphColor.GetColor6());

  002a2	8b cf		 mov	 ecx, edi
  002a4	ff 15 00 00 00
	00		 call	 DWORD PTR __imp_?GetColor6@CGraphColor@@QBEKXZ
; File C:\Program Files (x86)\Microsoft Visual Studio\2019\Community\VC\Tools\MSVC\14.29.30133\atlmfc\include\afxwin1.inl

; 108  : 	{ return Attach(::CreatePen(nPenStyle, nWidth, crColor)); }

  002aa	50		 push	 eax
  002ab	6a 03		 push	 3
  002ad	6a 00		 push	 0
  002af	ff d6		 call	 esi
  002b1	50		 push	 eax
  002b2	8d 8d 48 ff ff
	ff		 lea	 ecx, DWORD PTR _pen6$[ebp]
  002b8	e8 00 00 00 00	 call	 ?Attach@CGdiObject@@QAEHPAX@Z ; CGdiObject::Attach
; File D:\git\src\IBK\IBK_DRFN\ProjSrc\SrcChartEx\ChartOCX\GraphDraw\FundDraw.cpp

; 589  : 	pen7.CreatePen	(PS_SOLID, lineThickness, etcGraphColor.GetGraphColor1());

  002bd	8b 7d c8	 mov	 edi, DWORD PTR _etcGraphColor$GSCopy$1$[ebp]
  002c0	8b cf		 mov	 ecx, edi
  002c2	ff 15 00 00 00
	00		 call	 DWORD PTR __imp_?GetGraphColor1@CEtcGraphColor@@QBEKXZ
; File C:\Program Files (x86)\Microsoft Visual Studio\2019\Community\VC\Tools\MSVC\14.29.30133\atlmfc\include\afxwin1.inl

; 108  : 	{ return Attach(::CreatePen(nPenStyle, nWidth, crColor)); }

  002c8	50		 push	 eax
  002c9	6a 03		 push	 3
  002cb	6a 00		 push	 0
  002cd	ff d6		 call	 esi
  002cf	50		 push	 eax
  002d0	8d 8d 50 ff ff
	ff		 lea	 ecx, DWORD PTR _pen7$[ebp]
  002d6	e8 00 00 00 00	 call	 ?Attach@CGdiObject@@QAEHPAX@Z ; CGdiObject::Attach
; File D:\git\src\IBK\IBK_DRFN\ProjSrc\SrcChartEx\ChartOCX\GraphDraw\FundDraw.cpp

; 590  : 	pen8.CreatePen	(PS_SOLID, lineThickness, etcGraphColor.GetGraphColor2());

  002db	8b 1d 00 00 00
	00		 mov	 ebx, DWORD PTR __imp_?GetGraphColor2@CEtcGraphColor@@QBEKXZ
  002e1	8b cf		 mov	 ecx, edi
  002e3	ff d3		 call	 ebx
; File C:\Program Files (x86)\Microsoft Visual Studio\2019\Community\VC\Tools\MSVC\14.29.30133\atlmfc\include\afxwin1.inl

; 108  : 	{ return Attach(::CreatePen(nPenStyle, nWidth, crColor)); }

  002e5	50		 push	 eax
  002e6	6a 03		 push	 3
  002e8	6a 00		 push	 0
  002ea	ff d6		 call	 esi
  002ec	50		 push	 eax
  002ed	8d 8d 58 ff ff
	ff		 lea	 ecx, DWORD PTR _pen8$[ebp]
  002f3	e8 00 00 00 00	 call	 ?Attach@CGdiObject@@QAEHPAX@Z ; CGdiObject::Attach
; File D:\git\src\IBK\IBK_DRFN\ProjSrc\SrcChartEx\ChartOCX\GraphDraw\FundDraw.cpp

; 591  : 	pen9.CreatePen	(PS_SOLID, lineThickness, etcGraphColor.GetGraphColor3());

  002f8	8b cf		 mov	 ecx, edi
  002fa	8b 3d 00 00 00
	00		 mov	 edi, DWORD PTR __imp_?GetGraphColor3@CEtcGraphColor@@QBEKXZ
  00300	ff d7		 call	 edi
; File C:\Program Files (x86)\Microsoft Visual Studio\2019\Community\VC\Tools\MSVC\14.29.30133\atlmfc\include\afxwin1.inl

; 108  : 	{ return Attach(::CreatePen(nPenStyle, nWidth, crColor)); }

  00302	50		 push	 eax
  00303	6a 03		 push	 3
  00305	6a 00		 push	 0
  00307	ff d6		 call	 esi
  00309	50		 push	 eax
  0030a	8d 8d 60 ff ff
	ff		 lea	 ecx, DWORD PTR _pen9$[ebp]
  00310	e8 00 00 00 00	 call	 ?Attach@CGdiObject@@QAEHPAX@Z ; CGdiObject::Attach
; File D:\git\src\IBK\IBK_DRFN\ProjSrc\SrcChartEx\ChartOCX\GraphDraw\FundDraw.cpp

; 592  : 	pen10.CreatePen	(PS_SOLID, lineThickness, etcGraphColor.GetGraphColor4());

  00315	8b 4d c8	 mov	 ecx, DWORD PTR _etcGraphColor$GSCopy$1$[ebp]
  00318	8b 35 00 00 00
	00		 mov	 esi, DWORD PTR __imp_?GetGraphColor4@CEtcGraphColor@@QBEKXZ
  0031e	ff d6		 call	 esi
; File C:\Program Files (x86)\Microsoft Visual Studio\2019\Community\VC\Tools\MSVC\14.29.30133\atlmfc\include\afxwin1.inl

; 108  : 	{ return Attach(::CreatePen(nPenStyle, nWidth, crColor)); }

  00320	50		 push	 eax
  00321	6a 03		 push	 3
  00323	6a 00		 push	 0
  00325	ff 15 00 00 00
	00		 call	 DWORD PTR __imp__CreatePen@12
  0032b	50		 push	 eax
  0032c	8d 8d 78 ff ff
	ff		 lea	 ecx, DWORD PTR _pen10$[ebp]
  00332	e8 00 00 00 00	 call	 ?Attach@CGdiObject@@QAEHPAX@Z ; CGdiObject::Attach
; File D:\git\src\IBK\IBK_DRFN\ProjSrc\SrcChartEx\ChartOCX\GraphDraw\FundDraw.cpp

; 594  : 	CBrush firstBrush	(graphColor.GetColor1());

  00337	8b 4d cc	 mov	 ecx, DWORD PTR _graphColor$GSCopy$1$[ebp]
  0033a	ff 15 00 00 00
	00		 call	 DWORD PTR __imp_?GetColor1@CGraphColor@@QBEKXZ
  00340	50		 push	 eax
  00341	8d 8d 2c ff ff
	ff		 lea	 ecx, DWORD PTR _firstBrush$[ebp]
  00347	e8 00 00 00 00	 call	 ??0CBrush@@QAE@K@Z	; CBrush::CBrush

; 595  : 	CBrush secondBrush	(graphColor.GetColor2());

  0034c	8b 4d cc	 mov	 ecx, DWORD PTR _graphColor$GSCopy$1$[ebp]
  0034f	c6 45 fc 0b	 mov	 BYTE PTR __$EHRec$[ebp+8], 11 ; 0000000bH
  00353	ff 15 00 00 00
	00		 call	 DWORD PTR __imp_?GetColor2@CGraphColor@@QBEKXZ
  00359	50		 push	 eax
  0035a	8d 8d e4 fe ff
	ff		 lea	 ecx, DWORD PTR _secondBrush$[ebp]
  00360	e8 00 00 00 00	 call	 ??0CBrush@@QAE@K@Z	; CBrush::CBrush

; 596  : 	CBrush thirdBrush	(graphColor.GetColor3());

  00365	8b 4d cc	 mov	 ecx, DWORD PTR _graphColor$GSCopy$1$[ebp]
  00368	c6 45 fc 0c	 mov	 BYTE PTR __$EHRec$[ebp+8], 12 ; 0000000cH
  0036c	ff 15 00 00 00
	00		 call	 DWORD PTR __imp_?GetColor3@CGraphColor@@QBEKXZ
  00372	50		 push	 eax
  00373	8d 8d ec fe ff
	ff		 lea	 ecx, DWORD PTR _thirdBrush$[ebp]
  00379	e8 00 00 00 00	 call	 ??0CBrush@@QAE@K@Z	; CBrush::CBrush

; 597  : 	CBrush fourBrush	(graphColor.GetColor4());

  0037e	8b 4d cc	 mov	 ecx, DWORD PTR _graphColor$GSCopy$1$[ebp]
  00381	c6 45 fc 0d	 mov	 BYTE PTR __$EHRec$[ebp+8], 13 ; 0000000dH
  00385	ff 15 00 00 00
	00		 call	 DWORD PTR __imp_?GetColor4@CGraphColor@@QBEKXZ
  0038b	50		 push	 eax
  0038c	8d 8d f4 fe ff
	ff		 lea	 ecx, DWORD PTR _fourBrush$[ebp]
  00392	e8 00 00 00 00	 call	 ??0CBrush@@QAE@K@Z	; CBrush::CBrush
  00397	c6 45 fc 0e	 mov	 BYTE PTR __$EHRec$[ebp+8], 14 ; 0000000eH

; 598  : 	CBrush fiveBrush	(graphColor.GetColor5());

  0039b	8b 4d cc	 mov	 ecx, DWORD PTR _graphColor$GSCopy$1$[ebp]
  0039e	ff 15 00 00 00
	00		 call	 DWORD PTR __imp_?GetColor5@CGraphColor@@QBEKXZ
  003a4	50		 push	 eax
  003a5	8d 8d dc fe ff
	ff		 lea	 ecx, DWORD PTR _fiveBrush$[ebp]
  003ab	e8 00 00 00 00	 call	 ??0CBrush@@QAE@K@Z	; CBrush::CBrush

; 599  : 	CBrush sixBrush		(graphColor.GetColor6());

  003b0	8b 4d cc	 mov	 ecx, DWORD PTR _graphColor$GSCopy$1$[ebp]
  003b3	c6 45 fc 0f	 mov	 BYTE PTR __$EHRec$[ebp+8], 15 ; 0000000fH
  003b7	ff 15 00 00 00
	00		 call	 DWORD PTR __imp_?GetColor6@CGraphColor@@QBEKXZ
  003bd	50		 push	 eax
  003be	8d 8d fc fe ff
	ff		 lea	 ecx, DWORD PTR _sixBrush$[ebp]
  003c4	e8 00 00 00 00	 call	 ??0CBrush@@QAE@K@Z	; CBrush::CBrush

; 600  : 	CBrush sevenBrush	(etcGraphColor.GetGraphColor1());

  003c9	8b 4d c8	 mov	 ecx, DWORD PTR _etcGraphColor$GSCopy$1$[ebp]
  003cc	c6 45 fc 10	 mov	 BYTE PTR __$EHRec$[ebp+8], 16 ; 00000010H
  003d0	ff 15 00 00 00
	00		 call	 DWORD PTR __imp_?GetGraphColor1@CEtcGraphColor@@QBEKXZ
  003d6	50		 push	 eax
  003d7	8d 8d 04 ff ff
	ff		 lea	 ecx, DWORD PTR _sevenBrush$[ebp]
  003dd	e8 00 00 00 00	 call	 ??0CBrush@@QAE@K@Z	; CBrush::CBrush

; 601  : 	CBrush eightBrush	(etcGraphColor.GetGraphColor2());

  003e2	8b 4d c8	 mov	 ecx, DWORD PTR _etcGraphColor$GSCopy$1$[ebp]
  003e5	c6 45 fc 11	 mov	 BYTE PTR __$EHRec$[ebp+8], 17 ; 00000011H
  003e9	ff d3		 call	 ebx
  003eb	50		 push	 eax
  003ec	8d 8d 0c ff ff
	ff		 lea	 ecx, DWORD PTR _eightBrush$[ebp]
  003f2	e8 00 00 00 00	 call	 ??0CBrush@@QAE@K@Z	; CBrush::CBrush

; 602  : 	CBrush nineBrush	(etcGraphColor.GetGraphColor3());

  003f7	8b 4d c8	 mov	 ecx, DWORD PTR _etcGraphColor$GSCopy$1$[ebp]
  003fa	c6 45 fc 12	 mov	 BYTE PTR __$EHRec$[ebp+8], 18 ; 00000012H
  003fe	ff d7		 call	 edi
  00400	50		 push	 eax
  00401	8d 8d 14 ff ff
	ff		 lea	 ecx, DWORD PTR _nineBrush$[ebp]
  00407	e8 00 00 00 00	 call	 ??0CBrush@@QAE@K@Z	; CBrush::CBrush

; 603  : 	CBrush tenBrush		(etcGraphColor.GetGraphColor4());

  0040c	8b 4d c8	 mov	 ecx, DWORD PTR _etcGraphColor$GSCopy$1$[ebp]
  0040f	c6 45 fc 13	 mov	 BYTE PTR __$EHRec$[ebp+8], 19 ; 00000013H
  00413	ff d6		 call	 esi
  00415	50		 push	 eax
  00416	8d 8d 1c ff ff
	ff		 lea	 ecx, DWORD PTR _tenBrush$[ebp]
  0041c	e8 00 00 00 00	 call	 ??0CBrush@@QAE@K@Z	; CBrush::CBrush

; 604  : 
; 605  : 	CBrush* pOldBrush;
; 606  : 	CPen* pOldPen; 
; 607  : 	pOldBrush = (CBrush*)pDC->SelectObject(&firstBrush);

  00421	8b 75 c0	 mov	 esi, DWORD PTR _pDC$GSCopy$1$[ebp]
  00424	8d 85 2c ff ff
	ff		 lea	 eax, DWORD PTR _firstBrush$[ebp]
  0042a	50		 push	 eax
  0042b	8b ce		 mov	 ecx, esi
  0042d	c6 45 fc 14	 mov	 BYTE PTR __$EHRec$[ebp+8], 20 ; 00000014H
  00431	e8 00 00 00 00	 call	 ?SelectObject@CDC@@QAEPAVCBrush@@PAV2@@Z ; CDC::SelectObject
  00436	89 85 a0 fe ff
	ff		 mov	 DWORD PTR _pOldBrush$1$[ebp], eax

; 608  : 	pOldPen = (CPen*)pDC->SelectObject(&pen1);

  0043c	8b ce		 mov	 ecx, esi
  0043e	8d 45 88	 lea	 eax, DWORD PTR _pen1$[ebp]
  00441	50		 push	 eax
  00442	e8 00 00 00 00	 call	 ?SelectObject@CDC@@QAEPAVCPen@@PAV2@@Z ; CDC::SelectObject

; 612  : 	for(i = dataStart; i <= dataRealEnd; i++){

  00447	8b 4d 94	 mov	 ecx, DWORD PTR _dataStart$GSCopy$1$[ebp]
  0044a	0f 57 c0	 xorps	 xmm0, xmm0
  0044d	89 85 98 fe ff
	ff		 mov	 DWORD PTR _pOldPen$1$[ebp], eax
  00453	8b 45 20	 mov	 eax, DWORD PTR _dataRealEnd$[ebp]
; File C:\Program Files (x86)\Microsoft Visual Studio\2019\Community\VC\Tools\MSVC\14.29.30133\atlmfc\include\atltypes.h

; 400  : 	x = 0;

  00456	0f 11 45 d0	 movups	 XMMWORD PTR _fourPoint$[ebp], xmm0
  0045a	0f 11 45 e0	 movups	 XMMWORD PTR _fourPoint$[ebp+16], xmm0
; File D:\git\src\IBK\IBK_DRFN\ProjSrc\SrcChartEx\ChartOCX\GraphDraw\FundDraw.cpp

; 612  : 	for(i = dataStart; i <= dataRealEnd; i++){

  0045e	3b c8		 cmp	 ecx, eax
  00460	0f 8f 65 04 00
	00		 jg	 $LN6@DrawCompon

; 574  : 		}
; 575  : 	}
; 576  : 
; 577  : 	double realWidth = CDraw::CalRealWidth(graphDrawingRegion, dataStart, dataEnd);

  00466	ba 02 00 00 00	 mov	 edx, 2
  0046b	8d 79 fe	 lea	 edi, DWORD PTR [ecx-2]
  0046e	2b c1		 sub	 eax, ecx
  00470	2b d1		 sub	 edx, ecx
  00472	40		 inc	 eax
  00473	89 55 bc	 mov	 DWORD PTR tv1955[ebp], edx
  00476	89 45 20	 mov	 DWORD PTR _dataRealEnd$[ebp], eax
  00479	8b 45 98	 mov	 eax, DWORD PTR _packetCount$1$[ebp]
  0047c	0f 1f 40 00	 npad	 4
$LL7@DrawCompon:

; 613  : 		count++;

  00480	8d 0c 3a	 lea	 ecx, DWORD PTR [edx+edi]
; File C:\Program Files (x86)\Microsoft Visual Studio\2019\Community\VC\Tools\MSVC\14.29.30133\atlmfc\include\atltypes.h

; 409  : 	y = initY;

  00483	c7 45 cc 00 00
	00 00		 mov	 DWORD PTR $T20[ebp], 0
; File D:\git\src\IBK\IBK_DRFN\ProjSrc\SrcChartEx\ChartOCX\GraphDraw\FundDraw.cpp

; 613  : 		count++;

  0048a	89 8d a4 fe ff
	ff		 mov	 DWORD PTR tv1966[ebp], ecx
  00490	47		 inc	 edi

; 614  : 		packetHeadPos = packetList.GetHeadPosition();

  00491	8b 8d bc fe ff
	ff		 mov	 ecx, DWORD PTR _packetList$GSCopy$1$[ebp]

; 619  : 
; 620  : 		for(int j = 0; j < packetCount; j++){

  00497	33 db		 xor	 ebx, ebx
  00499	89 7d a0	 mov	 DWORD PTR tv1958[ebp], edi
; File C:\Program Files (x86)\Microsoft Visual Studio\2019\Community\VC\Tools\MSVC\14.29.30133\atlmfc\include\atltypes.h

; 409  : 	y = initY;

  0049c	c7 45 a8 00 00
	00 00		 mov	 DWORD PTR $T16[ebp], 0
; File D:\git\src\IBK\IBK_DRFN\ProjSrc\SrcChartEx\ChartOCX\GraphDraw\FundDraw.cpp

; 617  : 		double tempData = 0;

  004a3	f2 0f 11 85 24
	ff ff ff	 movsd	 QWORD PTR _tempData$13[ebp], xmm0
  004ab	8b 49 04	 mov	 ecx, DWORD PTR [ecx+4]

; 618  : 		double beforeTempData = 0;

  004ae	f2 0f 11 85 80
	fe ff ff	 movsd	 QWORD PTR _beforeTempData$6[ebp], xmm0

; 619  : 
; 620  : 		for(int j = 0; j < packetCount; j++){

  004b6	89 5d c4	 mov	 DWORD PTR _j$1$[ebp], ebx
  004b9	85 c0		 test	 eax, eax
  004bb	0f 8e 00 04 00
	00		 jle	 $LN5@DrawCompon
$LL10@DrawCompon:

; 621  : 			CPacket* dataPacket = packetList.GetNext(packetHeadPos);

  004c1	8b 51 08	 mov	 edx, DWORD PTR [ecx+8]
; File C:\Program Files (x86)\Microsoft Visual Studio\2019\Community\VC\Tools\MSVC\14.29.30133\atlmfc\include\afxtempl.h

; 819  : 		rPosition = (POSITION) pNode->pNext;

  004c4	8b 09		 mov	 ecx, DWORD PTR [ecx]
  004c6	89 8d 9c fe ff
	ff		 mov	 DWORD PTR _packetHeadPos$2$[ebp], ecx
; File D:\git\src\IBK\IBK_DRFN\ProjSrc\SrcChartEx\ChartOCX\GraphDraw\FundDraw.cpp

; 623  : 			POSITION dataPosPosition = packetPosition.FindIndex(j);

  004cc	8b cb		 mov	 ecx, ebx
  004ce	89 55 94	 mov	 DWORD PTR _dataPacket$1$[ebp], edx
; File C:\Program Files (x86)\Microsoft Visual Studio\2019\Community\VC\Tools\MSVC\14.29.30133\atlmfc\include\afxtempl.h

; 1133 : 	if (nIndex >= m_nCount || nIndex < 0)

  004d1	3b 9d cc fe ff
	ff		 cmp	 ebx, DWORD PTR _packetPosition$[ebp+12]
  004d7	7d 16		 jge	 SHORT $LN155@DrawCompon

; 1135 : 
; 1136 : 	CNode* pNode = m_pNodeHead;

  004d9	8b 85 c4 fe ff
	ff		 mov	 eax, DWORD PTR _packetPosition$[ebp+4]
  004df	89 45 c8	 mov	 DWORD PTR $T19[ebp], eax

; 1137 : 	while (nIndex--)

  004e2	85 db		 test	 ebx, ebx
  004e4	74 0e		 je	 SHORT $LN151@DrawCompon
$LL152@DrawCompon:

; 1138 : 	{
; 1139 : 		ASSERT(AfxIsValidAddress(pNode, sizeof(CNode)));
; 1140 : 		pNode = pNode->pNext;

  004e6	8b 00		 mov	 eax, DWORD PTR [eax]
  004e8	83 e9 01	 sub	 ecx, 1
  004eb	75 f9		 jne	 SHORT $LL152@DrawCompon

; 1141 : 	}
; 1142 : 	return (POSITION) pNode;

  004ed	eb 02		 jmp	 SHORT $LN304@DrawCompon
$LN155@DrawCompon:

; 1134 : 		return NULL;  // went too far

  004ef	33 c0		 xor	 eax, eax
$LN304@DrawCompon:
; File D:\git\src\IBK\IBK_DRFN\ProjSrc\SrcChartEx\ChartOCX\GraphDraw\FundDraw.cpp

; 625  : 			POSITION dataPos = packetPosition.GetNext(dataPosPosition);

  004f1	89 45 c8	 mov	 DWORD PTR $T19[ebp], eax
$LN151@DrawCompon:
  004f4	8b 70 08	 mov	 esi, DWORD PTR [eax+8]

; 627  : 			CString strData = CDataConversion( m_hOcxWnd, m_eChartMode).GetStringFormatTrans(CDataConversion::DoubleToString(dataPacket->GetnumericDataList()->GetNext(dataPos)), dataPacket->GetType());

  004f7	8b ca		 mov	 ecx, edx
  004f9	6a 01		 push	 1
  004fb	8d 85 b4 fe ff
	ff		 lea	 eax, DWORD PTR $T11[ebp]
  00501	50		 push	 eax
  00502	ff 15 00 00 00
	00		 call	 DWORD PTR __imp_?GetType@CPacket@@QAE?AV?$CStringT@DV?$StrTraitMFC_DLL@DV?$ChTraitsCRT@D@ATL@@@@@ATL@@_N@Z
  00508	8b f8		 mov	 edi, eax
  0050a	8b 4d 94	 mov	 ecx, DWORD PTR _dataPacket$1$[ebp]
  0050d	c6 45 fc 15	 mov	 BYTE PTR __$EHRec$[ebp+8], 21 ; 00000015H
  00511	ff 15 00 00 00
	00		 call	 DWORD PTR __imp_?GetnumericDataList@CPacket@@QAEPAV?$CList@NN@@XZ
; File C:\Program Files (x86)\Microsoft Visual Studio\2019\Community\VC\Tools\MSVC\14.29.30133\atlmfc\include\afxtempl.h

; 813  : 		rPosition = (POSITION) pNode->pNext;

  00517	8b 1e		 mov	 ebx, DWORD PTR [esi]

; 814  : 		return pNode->data; }

  00519	8d 4e 08	 lea	 ecx, DWORD PTR [esi+8]
; File D:\git\src\IBK\IBK_DRFN\ProjSrc\SrcChartEx\ChartOCX\GraphDraw\FundDraw.cpp

; 627  : 			CString strData = CDataConversion( m_hOcxWnd, m_eChartMode).GetStringFormatTrans(CDataConversion::DoubleToString(dataPacket->GetnumericDataList()->GetNext(dataPos)), dataPacket->GetType());

  0051c	51		 push	 ecx
  0051d	8d 85 b8 fe ff
	ff		 lea	 eax, DWORD PTR $T12[ebp]
  00523	50		 push	 eax
  00524	e8 00 00 00 00	 call	 ?DoubleToString@CDataConversion@@SA?AV?$CStringT@DV?$StrTraitMFC_DLL@DV?$ChTraitsCRT@D@ATL@@@@@ATL@@ABN@Z ; CDataConversion::DoubleToString
  00529	83 c4 08	 add	 esp, 8
  0052c	8b 8d 3c ff ff
	ff		 mov	 ecx, DWORD PTR _this$GSCopy$1$[ebp]
  00532	57		 push	 edi
  00533	50		 push	 eax
  00534	8d 45 9c	 lea	 eax, DWORD PTR _strData$14[ebp]
  00537	c6 45 fc 16	 mov	 BYTE PTR __$EHRec$[ebp+8], 22 ; 00000016H
  0053b	8b 51 20	 mov	 edx, DWORD PTR [ecx+32]
; File D:\git\src\IBK\IBK_DRFN\ProjSrc\SrcChartEx\ChartOCX\Include_Chart\Conversion.h

; 27   : 		{	m_hOcxWnd = p_hOcxWnd;	m_eChartMode = p_eChartMode;	}

  0053e	8b 49 1c	 mov	 ecx, DWORD PTR [ecx+28]
  00541	89 8d 90 fe ff
	ff		 mov	 DWORD PTR $T8[ebp], ecx
; File D:\git\src\IBK\IBK_DRFN\ProjSrc\SrcChartEx\ChartOCX\GraphDraw\FundDraw.cpp

; 627  : 			CString strData = CDataConversion( m_hOcxWnd, m_eChartMode).GetStringFormatTrans(CDataConversion::DoubleToString(dataPacket->GetnumericDataList()->GetNext(dataPos)), dataPacket->GetType());

  00547	8d 8d 90 fe ff
	ff		 lea	 ecx, DWORD PTR $T8[ebp]
  0054d	50		 push	 eax
; File D:\git\src\IBK\IBK_DRFN\ProjSrc\SrcChartEx\ChartOCX\Include_Chart\Conversion.h

; 27   : 		{	m_hOcxWnd = p_hOcxWnd;	m_eChartMode = p_eChartMode;	}

  0054e	89 95 94 fe ff
	ff		 mov	 DWORD PTR $T8[ebp+4], edx
; File D:\git\src\IBK\IBK_DRFN\ProjSrc\SrcChartEx\ChartOCX\GraphDraw\FundDraw.cpp

; 627  : 			CString strData = CDataConversion( m_hOcxWnd, m_eChartMode).GetStringFormatTrans(CDataConversion::DoubleToString(dataPacket->GetnumericDataList()->GetNext(dataPos)), dataPacket->GetType());

  00554	e8 00 00 00 00	 call	 ?GetStringFormatTrans@CDataConversion@@QAE?AV?$CStringT@DV?$StrTraitMFC_DLL@DV?$ChTraitsCRT@D@ATL@@@@@ATL@@ABV23@0@Z ; CDataConversion::GetStringFormatTrans
  00559	8d 8d b8 fe ff
	ff		 lea	 ecx, DWORD PTR $T12[ebp]
  0055f	ff 15 00 00 00
	00		 call	 DWORD PTR __imp_??1?$CStringT@DV?$StrTraitMFC_DLL@DV?$ChTraitsCRT@D@ATL@@@@@ATL@@QAE@XZ
  00565	8d 8d b4 fe ff
	ff		 lea	 ecx, DWORD PTR $T11[ebp]
  0056b	c6 45 fc 19	 mov	 BYTE PTR __$EHRec$[ebp+8], 25 ; 00000019H
  0056f	ff 15 00 00 00
	00		 call	 DWORD PTR __imp_??1?$CStringT@DV?$StrTraitMFC_DLL@DV?$ChTraitsCRT@D@ATL@@@@@ATL@@QAE@XZ

; 628  : 			strData.TrimRight("%");

  00575	68 00 00 00 00	 push	 OFFSET ??_C@_01FGNFDNOH@?$CF@
  0057a	8d 4d 9c	 lea	 ecx, DWORD PTR _strData$14[ebp]
  0057d	ff 15 00 00 00
	00		 call	 DWORD PTR __imp_?TrimRight@?$CStringT@DV?$StrTraitMFC_DLL@DV?$ChTraitsCRT@D@ATL@@@@@ATL@@QAEAAV12@PBD@Z

; 629  : 			double data = atof(strData);

  00583	ff 75 9c	 push	 DWORD PTR _strData$14[ebp]
  00586	ff 15 00 00 00
	00		 call	 DWORD PTR __imp__atof

; 630  : 			data = data + tempData;

  0058c	dc 85 24 ff ff
	ff		 fadd	 QWORD PTR _tempData$13[ebp]

; 631  : 			tempData = data;
; 632  : 		
; 633  : 			packetPosition.SetAt(tempPos, dataPos);

  00592	8b 45 c8	 mov	 eax, DWORD PTR $T19[ebp]
  00595	83 c4 04	 add	 esp, 4

; 634  : 			if(count > 1){

  00598	8b 7d a0	 mov	 edi, DWORD PTR tv1958[ebp]
  0059b	dd 9d 24 ff ff
	ff		 fstp	 QWORD PTR tv1724[ebp]
  005a1	f2 0f 10 85 24
	ff ff ff	 movsd	 xmm0, QWORD PTR tv1724[ebp]
  005a9	f2 0f 11 85 70
	fe ff ff	 movsd	 QWORD PTR _data$5[ebp], xmm0
  005b1	89 58 08	 mov	 DWORD PTR [eax+8], ebx
  005b4	8b 45 bc	 mov	 eax, DWORD PTR tv1955[ebp]
  005b7	03 c7		 add	 eax, edi
  005b9	89 45 c8	 mov	 DWORD PTR tv1954[ebp], eax
  005bc	83 f8 01	 cmp	 eax, 1
  005bf	0f 8e be 02 00
	00		 jle	 $LN301@DrawCompon

; 635  : 				//displayData
; 636  : 				//POSITION beforeDataPos = dataPacket->GetnumericDataList()->FindIndex(dataStart + count - 3);
; 637  : 				POSITION beforeDataPos = dataPacket->GetnumericDataList()->FindIndex(dataStart + count - 2);

  005c5	8b 5d 94	 mov	 ebx, DWORD PTR _dataPacket$1$[ebp]
  005c8	8b f7		 mov	 esi, edi
  005ca	8b cb		 mov	 ecx, ebx
  005cc	ff 15 00 00 00
	00		 call	 DWORD PTR __imp_?GetnumericDataList@CPacket@@QAEPAV?$CList@NN@@XZ
; File C:\Program Files (x86)\Microsoft Visual Studio\2019\Community\VC\Tools\MSVC\14.29.30133\atlmfc\include\afxtempl.h

; 1133 : 	if (nIndex >= m_nCount || nIndex < 0)

  005d2	3b 78 0c	 cmp	 edi, DWORD PTR [eax+12]
  005d5	7d 14		 jge	 SHORT $LN169@DrawCompon
  005d7	85 ff		 test	 edi, edi
  005d9	78 10		 js	 SHORT $LN169@DrawCompon

; 1135 : 
; 1136 : 	CNode* pNode = m_pNodeHead;

  005db	8b 78 04	 mov	 edi, DWORD PTR [eax+4]

; 1137 : 	while (nIndex--)

  005de	85 f6		 test	 esi, esi
  005e0	74 0b		 je	 SHORT $LN165@DrawCompon
$LL166@DrawCompon:

; 1138 : 	{
; 1139 : 		ASSERT(AfxIsValidAddress(pNode, sizeof(CNode)));
; 1140 : 		pNode = pNode->pNext;

  005e2	8b 3f		 mov	 edi, DWORD PTR [edi]
  005e4	83 ee 01	 sub	 esi, 1
  005e7	75 f9		 jne	 SHORT $LL166@DrawCompon

; 1141 : 	}
; 1142 : 	return (POSITION) pNode;

  005e9	eb 02		 jmp	 SHORT $LN165@DrawCompon
$LN169@DrawCompon:

; 1134 : 		return NULL;  // went too far

  005eb	33 ff		 xor	 edi, edi
$LN165@DrawCompon:
; File D:\git\src\IBK\IBK_DRFN\ProjSrc\SrcChartEx\ChartOCX\GraphDraw\FundDraw.cpp

; 638  : 				CString beforeStrData = CDataConversion( m_hOcxWnd, m_eChartMode).GetStringFormatTrans(CDataConversion::DoubleToString(dataPacket->GetnumericDataList()->GetNext(beforeDataPos)), dataPacket->GetType());

  005ed	6a 01		 push	 1
  005ef	8d 85 ac fe ff
	ff		 lea	 eax, DWORD PTR $T9[ebp]
  005f5	8b cb		 mov	 ecx, ebx
  005f7	50		 push	 eax
  005f8	ff 15 00 00 00
	00		 call	 DWORD PTR __imp_?GetType@CPacket@@QAE?AV?$CStringT@DV?$StrTraitMFC_DLL@DV?$ChTraitsCRT@D@ATL@@@@@ATL@@_N@Z
  005fe	8b f0		 mov	 esi, eax
  00600	8b cb		 mov	 ecx, ebx
  00602	c6 45 fc 1a	 mov	 BYTE PTR __$EHRec$[ebp+8], 26 ; 0000001aH
  00606	ff 15 00 00 00
	00		 call	 DWORD PTR __imp_?GetnumericDataList@CPacket@@QAEPAV?$CList@NN@@XZ
; File C:\Program Files (x86)\Microsoft Visual Studio\2019\Community\VC\Tools\MSVC\14.29.30133\atlmfc\include\afxtempl.h

; 814  : 		return pNode->data; }

  0060c	8d 4f 08	 lea	 ecx, DWORD PTR [edi+8]
; File D:\git\src\IBK\IBK_DRFN\ProjSrc\SrcChartEx\ChartOCX\GraphDraw\FundDraw.cpp

; 638  : 				CString beforeStrData = CDataConversion( m_hOcxWnd, m_eChartMode).GetStringFormatTrans(CDataConversion::DoubleToString(dataPacket->GetnumericDataList()->GetNext(beforeDataPos)), dataPacket->GetType());

  0060f	51		 push	 ecx
  00610	8d 85 b0 fe ff
	ff		 lea	 eax, DWORD PTR $T10[ebp]
  00616	50		 push	 eax
  00617	e8 00 00 00 00	 call	 ?DoubleToString@CDataConversion@@SA?AV?$CStringT@DV?$StrTraitMFC_DLL@DV?$ChTraitsCRT@D@ATL@@@@@ATL@@ABN@Z ; CDataConversion::DoubleToString
  0061c	83 c4 08	 add	 esp, 8
  0061f	8b bd 3c ff ff
	ff		 mov	 edi, DWORD PTR _this$GSCopy$1$[ebp]
  00625	56		 push	 esi
  00626	50		 push	 eax
  00627	8d 45 a4	 lea	 eax, DWORD PTR _beforeStrData$15[ebp]
  0062a	c6 45 fc 1b	 mov	 BYTE PTR __$EHRec$[ebp+8], 27 ; 0000001bH
; File D:\git\src\IBK\IBK_DRFN\ProjSrc\SrcChartEx\ChartOCX\Include_Chart\Conversion.h

; 27   : 		{	m_hOcxWnd = p_hOcxWnd;	m_eChartMode = p_eChartMode;	}

  0062e	8b 4f 1c	 mov	 ecx, DWORD PTR [edi+28]
; File D:\git\src\IBK\IBK_DRFN\ProjSrc\SrcChartEx\ChartOCX\GraphDraw\FundDraw.cpp

; 638  : 				CString beforeStrData = CDataConversion( m_hOcxWnd, m_eChartMode).GetStringFormatTrans(CDataConversion::DoubleToString(dataPacket->GetnumericDataList()->GetNext(beforeDataPos)), dataPacket->GetType());

  00631	8b 57 20	 mov	 edx, DWORD PTR [edi+32]
; File D:\git\src\IBK\IBK_DRFN\ProjSrc\SrcChartEx\ChartOCX\Include_Chart\Conversion.h

; 27   : 		{	m_hOcxWnd = p_hOcxWnd;	m_eChartMode = p_eChartMode;	}

  00634	89 8d 88 fe ff
	ff		 mov	 DWORD PTR $T7[ebp], ecx
; File D:\git\src\IBK\IBK_DRFN\ProjSrc\SrcChartEx\ChartOCX\GraphDraw\FundDraw.cpp

; 638  : 				CString beforeStrData = CDataConversion( m_hOcxWnd, m_eChartMode).GetStringFormatTrans(CDataConversion::DoubleToString(dataPacket->GetnumericDataList()->GetNext(beforeDataPos)), dataPacket->GetType());

  0063a	8d 8d 88 fe ff
	ff		 lea	 ecx, DWORD PTR $T7[ebp]
  00640	50		 push	 eax
; File D:\git\src\IBK\IBK_DRFN\ProjSrc\SrcChartEx\ChartOCX\Include_Chart\Conversion.h

; 27   : 		{	m_hOcxWnd = p_hOcxWnd;	m_eChartMode = p_eChartMode;	}

  00641	89 95 8c fe ff
	ff		 mov	 DWORD PTR $T7[ebp+4], edx
; File D:\git\src\IBK\IBK_DRFN\ProjSrc\SrcChartEx\ChartOCX\GraphDraw\FundDraw.cpp

; 638  : 				CString beforeStrData = CDataConversion( m_hOcxWnd, m_eChartMode).GetStringFormatTrans(CDataConversion::DoubleToString(dataPacket->GetnumericDataList()->GetNext(beforeDataPos)), dataPacket->GetType());

  00647	e8 00 00 00 00	 call	 ?GetStringFormatTrans@CDataConversion@@QAE?AV?$CStringT@DV?$StrTraitMFC_DLL@DV?$ChTraitsCRT@D@ATL@@@@@ATL@@ABV23@0@Z ; CDataConversion::GetStringFormatTrans
  0064c	8d 8d b0 fe ff
	ff		 lea	 ecx, DWORD PTR $T10[ebp]
  00652	ff 15 00 00 00
	00		 call	 DWORD PTR __imp_??1?$CStringT@DV?$StrTraitMFC_DLL@DV?$ChTraitsCRT@D@ATL@@@@@ATL@@QAE@XZ
  00658	8d 8d ac fe ff
	ff		 lea	 ecx, DWORD PTR $T9[ebp]
  0065e	c6 45 fc 1e	 mov	 BYTE PTR __$EHRec$[ebp+8], 30 ; 0000001eH
  00662	ff 15 00 00 00
	00		 call	 DWORD PTR __imp_??1?$CStringT@DV?$StrTraitMFC_DLL@DV?$ChTraitsCRT@D@ATL@@@@@ATL@@QAE@XZ

; 639  : 				beforeStrData.TrimRight("%");

  00668	68 00 00 00 00	 push	 OFFSET ??_C@_01FGNFDNOH@?$CF@
  0066d	8d 4d a4	 lea	 ecx, DWORD PTR _beforeStrData$15[ebp]
  00670	ff 15 00 00 00
	00		 call	 DWORD PTR __imp_?TrimRight@?$CStringT@DV?$StrTraitMFC_DLL@DV?$ChTraitsCRT@D@ATL@@@@@ATL@@QAEAAV12@PBD@Z

; 640  : 			
; 641  : 				double beforeData = atof(beforeStrData);

  00676	ff 75 a4	 push	 DWORD PTR _beforeStrData$15[ebp]
  00679	ff 15 00 00 00
	00		 call	 DWORD PTR __imp__atof

; 642  : 				beforeData = beforeData + beforeTempData;
; 643  : 				beforeTempData = beforeData;
; 644  : 
; 645  : 				CPoint nowDataPt = CDataConversion::GetVerticalPoint(graphDrawingRegion, count, realWidth, dataViewMin, dataViewMax, data);

  0067f	8b 9d a8 fe ff
	ff		 mov	 ebx, DWORD PTR _dataViewMax$GSCopy$1$[ebp]
  00685	8d 85 70 fe ff
	ff		 lea	 eax, DWORD PTR _data$5[ebp]
  0068b	dc 85 80 fe ff
	ff		 fadd	 QWORD PTR _beforeTempData$6[ebp]
  00691	8b b5 38 ff ff
	ff		 mov	 esi, DWORD PTR _graphDrawingRegion$GSCopy$1$[ebp]
  00697	6a 01		 push	 1
  00699	50		 push	 eax
  0069a	53		 push	 ebx
  0069b	ff b5 34 ff ff
	ff		 push	 DWORD PTR _dataViewMin$GSCopy$1$[ebp]
  006a1	8d 85 78 fe ff
	ff		 lea	 eax, DWORD PTR _realWidth$[ebp]
  006a7	50		 push	 eax
  006a8	ff 75 c8	 push	 DWORD PTR tv1954[ebp]
  006ab	dd 5d 90	 fstp	 QWORD PTR tv1745[ebp]
  006ae	f2 0f 10 45 90	 movsd	 xmm0, QWORD PTR tv1745[ebp]
  006b3	8d 45 b4	 lea	 eax, DWORD PTR _nowDataPt$18[ebp]
  006b6	56		 push	 esi
  006b7	50		 push	 eax
  006b8	f2 0f 11 85 68
	fe ff ff	 movsd	 QWORD PTR _beforeData$4[ebp], xmm0
  006c0	e8 00 00 00 00	 call	 ?GetVerticalPoint@CDataConversion@@SA?AVCPoint@@ABVCRect@@HABN111_N@Z ; CDataConversion::GetVerticalPoint

; 646  : 				CPoint beforeDataPt = CDataConversion::GetVerticalPoint(graphDrawingRegion, count-1, realWidth, dataViewMin, dataViewMax, beforeData);

  006c5	6a 01		 push	 1
  006c7	8d 85 68 fe ff
	ff		 lea	 eax, DWORD PTR _beforeData$4[ebp]
  006cd	50		 push	 eax
  006ce	53		 push	 ebx
  006cf	ff b5 34 ff ff
	ff		 push	 DWORD PTR _dataViewMin$GSCopy$1$[ebp]
  006d5	8d 85 78 fe ff
	ff		 lea	 eax, DWORD PTR _realWidth$[ebp]
  006db	50		 push	 eax
  006dc	ff b5 a4 fe ff
	ff		 push	 DWORD PTR tv1966[ebp]
  006e2	8d 45 ac	 lea	 eax, DWORD PTR _beforeDataPt$17[ebp]
  006e5	56		 push	 esi
  006e6	50		 push	 eax
  006e7	e8 00 00 00 00	 call	 ?GetVerticalPoint@CDataConversion@@SA?AVCPoint@@ABVCRect@@HABN111_N@Z ; CDataConversion::GetVerticalPoint

; 647  : 
; 648  : 				if(j==0)

  006ec	8b 5d c4	 mov	 ebx, DWORD PTR _j$1$[ebp]
  006ef	83 c4 44	 add	 esp, 68			; 00000044H
  006f2	85 db		 test	 ebx, ebx
  006f4	75 3a		 jne	 SHORT $LN18@DrawCompon

; 649  : 					InsertFourPointToArray(fourPoint, beforeDataPt, nowDataPt, CPoint(nowDataPt.x, graphDrawingRegion.bottom), CPoint(beforeDataPt.x, graphDrawingRegion.bottom));

  006f6	8b 46 0c	 mov	 eax, DWORD PTR [esi+12]
; File C:\Program Files (x86)\Microsoft Visual Studio\2019\Community\VC\Tools\MSVC\14.29.30133\atlmfc\include\atltypes.h

; 408  : 	x = initX;

  006f9	8b 55 ac	 mov	 edx, DWORD PTR _beforeDataPt$17[ebp]
  006fc	8b 4d b4	 mov	 ecx, DWORD PTR _nowDataPt$18[ebp]
; File D:\git\src\IBK\IBK_DRFN\ProjSrc\SrcChartEx\ChartOCX\GraphDraw\FundDraw.cpp

; 649  : 					InsertFourPointToArray(fourPoint, beforeDataPt, nowDataPt, CPoint(nowDataPt.x, graphDrawingRegion.bottom), CPoint(beforeDataPt.x, graphDrawingRegion.bottom));

  006ff	50		 push	 eax
  00700	52		 push	 edx
  00701	50		 push	 eax
  00702	51		 push	 ecx
  00703	ff 75 b8	 push	 DWORD PTR _nowDataPt$18[ebp+4]
  00706	8d 45 d0	 lea	 eax, DWORD PTR _fourPoint$[ebp]
  00709	51		 push	 ecx
  0070a	ff 75 b0	 push	 DWORD PTR _beforeDataPt$17[ebp+4]
  0070d	8b cf		 mov	 ecx, edi
  0070f	52		 push	 edx
  00710	50		 push	 eax
  00711	e8 00 00 00 00	 call	 ?InsertFourPointToArray@CDraw@@IAEXPAVCPoint@@V2@111@Z ; CDraw::InsertFourPointToArray
  00716	8b 45 b8	 mov	 eax, DWORD PTR _nowDataPt$18[ebp+4]

; 662  : 					pDC->SelectObject(&firstBrush);
; 663  : 					pDC->SelectObject(&pen1);

  00719	8d 75 88	 lea	 esi, DWORD PTR _pen1$[ebp]
  0071c	89 45 cc	 mov	 DWORD PTR $T20[ebp], eax
  0071f	8b 45 b0	 mov	 eax, DWORD PTR _beforeDataPt$17[ebp+4]
  00722	89 45 a8	 mov	 DWORD PTR $T16[ebp], eax
  00725	8d 85 2c ff ff
	ff		 lea	 eax, DWORD PTR _firstBrush$[ebp]

; 664  : 				}

  0072b	e9 01 01 00 00	 jmp	 $LN37@DrawCompon
$LN18@DrawCompon:

; 651  : 					InsertFourPointToArray(fourPoint, beforeDataPt, nowDataPt, CPoint(nowDataPt.x, tempDataPt.y), CPoint(beforeDataPt.x, tempBeforeDataPt.y));

  00730	ff 75 a8	 push	 DWORD PTR $T16[ebp]
; File C:\Program Files (x86)\Microsoft Visual Studio\2019\Community\VC\Tools\MSVC\14.29.30133\atlmfc\include\atltypes.h

; 408  : 	x = initX;

  00733	8b 4d ac	 mov	 ecx, DWORD PTR _beforeDataPt$17[ebp]
  00736	8b 45 b4	 mov	 eax, DWORD PTR _nowDataPt$18[ebp]
; File D:\git\src\IBK\IBK_DRFN\ProjSrc\SrcChartEx\ChartOCX\GraphDraw\FundDraw.cpp

; 651  : 					InsertFourPointToArray(fourPoint, beforeDataPt, nowDataPt, CPoint(nowDataPt.x, tempDataPt.y), CPoint(beforeDataPt.x, tempBeforeDataPt.y));

  00739	51		 push	 ecx
  0073a	ff 75 cc	 push	 DWORD PTR $T20[ebp]
  0073d	50		 push	 eax
  0073e	ff 75 b8	 push	 DWORD PTR _nowDataPt$18[ebp+4]
  00741	50		 push	 eax
  00742	ff 75 b0	 push	 DWORD PTR _beforeDataPt$17[ebp+4]
  00745	8d 45 d0	 lea	 eax, DWORD PTR _fourPoint$[ebp]
  00748	51		 push	 ecx
  00749	50		 push	 eax
  0074a	8b cf		 mov	 ecx, edi
  0074c	e8 00 00 00 00	 call	 ?InsertFourPointToArray@CDraw@@IAEXPAVCPoint@@V2@111@Z ; CDraw::InsertFourPointToArray

; 652  : 				
; 653  : 				tempDataPt.y = nowDataPt.y;

  00751	8b 45 b8	 mov	 eax, DWORD PTR _nowDataPt$18[ebp+4]

; 654  : 				tempBeforeDataPt.y = beforeDataPt.y;
; 655  : 
; 656  : 				//pen, brush   ~~
; 657  : 				int residual = 0;
; 658  : 				int brushNumber = 10;
; 659  : 				residual = (j+1) - (brushNumber * ((j+1)/ brushNumber));

  00754	8d 4b 01	 lea	 ecx, DWORD PTR [ebx+1]
  00757	89 45 cc	 mov	 DWORD PTR $T20[ebp], eax
  0075a	8b 45 b0	 mov	 eax, DWORD PTR _beforeDataPt$17[ebp+4]
  0075d	89 45 a8	 mov	 DWORD PTR $T16[ebp], eax
  00760	b8 67 66 66 66	 mov	 eax, 1717986919		; 66666667H
  00765	f7 e9		 imul	 ecx
  00767	8b cb		 mov	 ecx, ebx
  00769	c1 fa 02	 sar	 edx, 2
  0076c	8b c2		 mov	 eax, edx
  0076e	c1 e8 1f	 shr	 eax, 31			; 0000001fH
  00771	03 c2		 add	 eax, edx
  00773	8d 04 80	 lea	 eax, DWORD PTR [eax+eax*4]
  00776	03 c0		 add	 eax, eax
  00778	2b c8		 sub	 ecx, eax

; 660  : 
; 661  : 				if(residual == 1){

  0077a	75 0e		 jne	 SHORT $LN20@DrawCompon

; 662  : 					pDC->SelectObject(&firstBrush);
; 663  : 					pDC->SelectObject(&pen1);

  0077c	8d 75 88	 lea	 esi, DWORD PTR _pen1$[ebp]
  0077f	8d 85 2c ff ff
	ff		 lea	 eax, DWORD PTR _firstBrush$[ebp]

; 664  : 				}

  00785	e9 a7 00 00 00	 jmp	 $LN37@DrawCompon
$LN20@DrawCompon:

; 665  : 				else if(residual == 2){

  0078a	83 f9 01	 cmp	 ecx, 1
  0078d	75 11		 jne	 SHORT $LN22@DrawCompon

; 666  : 					pDC->SelectObject(&secondBrush);
; 667  : 					pDC->SelectObject(&pen2);

  0078f	8d b5 70 ff ff
	ff		 lea	 esi, DWORD PTR _pen2$[ebp]
  00795	8d 85 e4 fe ff
	ff		 lea	 eax, DWORD PTR _secondBrush$[ebp]

; 668  : 				}

  0079b	e9 91 00 00 00	 jmp	 $LN37@DrawCompon
$LN22@DrawCompon:

; 669  : 				else if(residual == 3){

  007a0	83 f9 02	 cmp	 ecx, 2
  007a3	75 0e		 jne	 SHORT $LN24@DrawCompon

; 670  : 					pDC->SelectObject(&thirdBrush);
; 671  : 					pDC->SelectObject(&pen3);

  007a5	8d 75 80	 lea	 esi, DWORD PTR _pen3$[ebp]
  007a8	8d 85 ec fe ff
	ff		 lea	 eax, DWORD PTR _thirdBrush$[ebp]

; 672  : 				}

  007ae	e9 7e 00 00 00	 jmp	 $LN37@DrawCompon
$LN24@DrawCompon:

; 673  : 				else if(residual == 4){

  007b3	83 f9 03	 cmp	 ecx, 3
  007b6	75 0e		 jne	 SHORT $LN26@DrawCompon

; 674  : 					pDC->SelectObject(&fourBrush);
; 675  : 					pDC->SelectObject(&pen4);

  007b8	8d b5 68 ff ff
	ff		 lea	 esi, DWORD PTR _pen4$[ebp]
  007be	8d 85 f4 fe ff
	ff		 lea	 eax, DWORD PTR _fourBrush$[ebp]

; 676  : 				}

  007c4	eb 6b		 jmp	 SHORT $LN37@DrawCompon
$LN26@DrawCompon:

; 677  : 				else if(residual == 5){

  007c6	83 f9 04	 cmp	 ecx, 4
  007c9	75 0e		 jne	 SHORT $LN28@DrawCompon

; 678  : 					pDC->SelectObject(&fiveBrush);
; 679  : 					pDC->SelectObject(&pen5);

  007cb	8d b5 40 ff ff
	ff		 lea	 esi, DWORD PTR _pen5$[ebp]
  007d1	8d 85 dc fe ff
	ff		 lea	 eax, DWORD PTR _fiveBrush$[ebp]

; 680  : 				}

  007d7	eb 58		 jmp	 SHORT $LN37@DrawCompon
$LN28@DrawCompon:

; 681  : 				else if(residual == 6){

  007d9	83 f9 05	 cmp	 ecx, 5
  007dc	75 0e		 jne	 SHORT $LN30@DrawCompon

; 682  : 					pDC->SelectObject(&sixBrush);
; 683  : 					pDC->SelectObject(&pen6);

  007de	8d b5 48 ff ff
	ff		 lea	 esi, DWORD PTR _pen6$[ebp]
  007e4	8d 85 fc fe ff
	ff		 lea	 eax, DWORD PTR _sixBrush$[ebp]

; 684  : 				}

  007ea	eb 45		 jmp	 SHORT $LN37@DrawCompon
$LN30@DrawCompon:

; 685  : 				else if(residual == 7){

  007ec	83 f9 06	 cmp	 ecx, 6
  007ef	75 0e		 jne	 SHORT $LN32@DrawCompon

; 686  : 					pDC->SelectObject(&sevenBrush);
; 687  : 					pDC->SelectObject(&pen7);

  007f1	8d b5 50 ff ff
	ff		 lea	 esi, DWORD PTR _pen7$[ebp]
  007f7	8d 85 04 ff ff
	ff		 lea	 eax, DWORD PTR _sevenBrush$[ebp]

; 688  : 				}

  007fd	eb 32		 jmp	 SHORT $LN37@DrawCompon
$LN32@DrawCompon:

; 689  : 				else if(residual == 8){

  007ff	83 f9 07	 cmp	 ecx, 7
  00802	75 0e		 jne	 SHORT $LN34@DrawCompon

; 690  : 					pDC->SelectObject(&eightBrush);
; 691  : 					pDC->SelectObject(&pen8);

  00804	8d b5 58 ff ff
	ff		 lea	 esi, DWORD PTR _pen8$[ebp]
  0080a	8d 85 0c ff ff
	ff		 lea	 eax, DWORD PTR _eightBrush$[ebp]

; 692  : 				}

  00810	eb 1f		 jmp	 SHORT $LN37@DrawCompon
$LN34@DrawCompon:

; 693  : 				else if(residual == 9){

  00812	83 f9 08	 cmp	 ecx, 8
  00815	75 0e		 jne	 SHORT $LN36@DrawCompon

; 694  : 					pDC->SelectObject(&nineBrush);
; 695  : 					pDC->SelectObject(&pen9);

  00817	8d b5 60 ff ff
	ff		 lea	 esi, DWORD PTR _pen9$[ebp]
  0081d	8d 85 14 ff ff
	ff		 lea	 eax, DWORD PTR _nineBrush$[ebp]

; 696  : 				}

  00823	eb 0c		 jmp	 SHORT $LN37@DrawCompon
$LN36@DrawCompon:

; 697  : 				else{
; 698  : 					pDC->SelectObject(&tenBrush);
; 699  : 					pDC->SelectObject(&pen10);

  00825	8d b5 78 ff ff
	ff		 lea	 esi, DWORD PTR _pen10$[ebp]
  0082b	8d 85 1c ff ff
	ff		 lea	 eax, DWORD PTR _tenBrush$[ebp]
$LN37@DrawCompon:
; File C:\Program Files (x86)\Microsoft Visual Studio\2019\Community\VC\Tools\MSVC\14.29.30133\atlmfc\include\afxwin1.inl

; 535  : 	{ ASSERT(m_hDC != NULL); return ::Polygon(m_hDC, lpPoints, nCount); }

  00831	8b 4d c0	 mov	 ecx, DWORD PTR _pDC$GSCopy$1$[ebp]
  00834	50		 push	 eax
  00835	e8 00 00 00 00	 call	 ?SelectObject@CDC@@QAEPAVCBrush@@PAV2@@Z ; CDC::SelectObject
  0083a	56		 push	 esi
  0083b	8b 75 c0	 mov	 esi, DWORD PTR _pDC$GSCopy$1$[ebp]
  0083e	8b ce		 mov	 ecx, esi
  00840	e8 00 00 00 00	 call	 ?SelectObject@CDC@@QAEPAVCPen@@PAV2@@Z ; CDC::SelectObject
  00845	6a 04		 push	 4
  00847	8d 45 d0	 lea	 eax, DWORD PTR _fourPoint$[ebp]
  0084a	50		 push	 eax
  0084b	ff 76 04	 push	 DWORD PTR [esi+4]
  0084e	ff 15 00 00 00
	00		 call	 DWORD PTR __imp__Polygon@12
; File D:\git\src\IBK\IBK_DRFN\ProjSrc\SrcChartEx\ChartOCX\GraphDraw\FundDraw.cpp

; 702  : 				CDraw::DrawLine(pDC, beforeDataPt, nowDataPt);

  00854	ff 75 b8	 push	 DWORD PTR _nowDataPt$18[ebp+4]
  00857	8b cf		 mov	 ecx, edi
  00859	ff 75 b4	 push	 DWORD PTR _nowDataPt$18[ebp]
  0085c	ff 75 b0	 push	 DWORD PTR _beforeDataPt$17[ebp+4]
  0085f	ff 75 ac	 push	 DWORD PTR _beforeDataPt$17[ebp]
  00862	56		 push	 esi
  00863	e8 00 00 00 00	 call	 ?DrawLine@CDraw@@IAEXPAVCDC@@UtagPOINT@@1@Z ; CDraw::DrawLine

; 703  : 			}

  00868	8d 4d a4	 lea	 ecx, DWORD PTR _beforeStrData$15[ebp]
  0086b	ff 15 00 00 00
	00		 call	 DWORD PTR __imp_??1?$CStringT@DV?$StrTraitMFC_DLL@DV?$ChTraitsCRT@D@ATL@@@@@ATL@@QAE@XZ
  00871	f2 0f 10 45 90	 movsd	 xmm0, QWORD PTR tv1745[ebp]
  00876	8b 7d a0	 mov	 edi, DWORD PTR tv1958[ebp]
  00879	f2 0f 11 85 80
	fe ff ff	 movsd	 QWORD PTR _beforeTempData$6[ebp], xmm0
  00881	eb 06		 jmp	 SHORT $LN17@DrawCompon
$LN301@DrawCompon:

; 634  : 			if(count > 1){

  00883	8b 5d c4	 mov	 ebx, DWORD PTR _j$1$[ebp]
  00886	8b 75 c0	 mov	 esi, DWORD PTR _pDC$GSCopy$1$[ebp]
$LN17@DrawCompon:

; 704  : 		}

  00889	8d 4d 9c	 lea	 ecx, DWORD PTR _strData$14[ebp]
  0088c	c6 45 fc 14	 mov	 BYTE PTR __$EHRec$[ebp+8], 20 ; 00000014H
  00890	ff 15 00 00 00
	00		 call	 DWORD PTR __imp_??1?$CStringT@DV?$StrTraitMFC_DLL@DV?$ChTraitsCRT@D@ATL@@@@@ATL@@QAE@XZ
  00896	f2 0f 10 85 24
	ff ff ff	 movsd	 xmm0, QWORD PTR tv1724[ebp]
  0089e	43		 inc	 ebx
  0089f	8b 45 98	 mov	 eax, DWORD PTR _packetCount$1$[ebp]
  008a2	8b 8d 9c fe ff
	ff		 mov	 ecx, DWORD PTR _packetHeadPos$2$[ebp]
  008a8	89 5d c4	 mov	 DWORD PTR _j$1$[ebp], ebx
  008ab	f2 0f 11 85 24
	ff ff ff	 movsd	 QWORD PTR _tempData$13[ebp], xmm0
  008b3	3b d8		 cmp	 ebx, eax
  008b5	0f 8c 06 fc ff
	ff		 jl	 $LL10@DrawCompon
  008bb	8b 55 bc	 mov	 edx, DWORD PTR tv1955[ebp]
  008be	0f 57 c0	 xorps	 xmm0, xmm0
$LN5@DrawCompon:

; 612  : 	for(i = dataStart; i <= dataRealEnd; i++){

  008c1	83 6d 20 01	 sub	 DWORD PTR _dataRealEnd$[ebp], 1
  008c5	0f 85 b5 fb ff
	ff		 jne	 $LL7@DrawCompon
$LN6@DrawCompon:

; 705  : 	}
; 706  : 	pDC->SelectObject(pOldBrush);

  008cb	ff b5 a0 fe ff
	ff		 push	 DWORD PTR _pOldBrush$1$[ebp]
  008d1	8b ce		 mov	 ecx, esi
  008d3	e8 00 00 00 00	 call	 ?SelectObject@CDC@@QAEPAVCBrush@@PAV2@@Z ; CDC::SelectObject

; 707  : 	pDC->SelectObject(pOldPen);

  008d8	ff b5 98 fe ff
	ff		 push	 DWORD PTR _pOldPen$1$[ebp]
  008de	8b ce		 mov	 ecx, esi
  008e0	e8 00 00 00 00	 call	 ?SelectObject@CDC@@QAEPAVCPen@@PAV2@@Z ; CDC::SelectObject

; 708  : 
; 709  : 	firstBrush.DeleteObject();

  008e5	8d 8d 2c ff ff
	ff		 lea	 ecx, DWORD PTR _firstBrush$[ebp]
  008eb	e8 00 00 00 00	 call	 ?DeleteObject@CGdiObject@@QAEHXZ ; CGdiObject::DeleteObject

; 710  : 	secondBrush.DeleteObject();

  008f0	8d 8d e4 fe ff
	ff		 lea	 ecx, DWORD PTR _secondBrush$[ebp]
  008f6	e8 00 00 00 00	 call	 ?DeleteObject@CGdiObject@@QAEHXZ ; CGdiObject::DeleteObject

; 711  : 	thirdBrush.DeleteObject();

  008fb	8d 8d ec fe ff
	ff		 lea	 ecx, DWORD PTR _thirdBrush$[ebp]
  00901	e8 00 00 00 00	 call	 ?DeleteObject@CGdiObject@@QAEHXZ ; CGdiObject::DeleteObject

; 712  : 	fourBrush.DeleteObject();

  00906	8d 8d f4 fe ff
	ff		 lea	 ecx, DWORD PTR _fourBrush$[ebp]
  0090c	e8 00 00 00 00	 call	 ?DeleteObject@CGdiObject@@QAEHXZ ; CGdiObject::DeleteObject

; 713  : 	fiveBrush.DeleteObject();

  00911	8d 8d dc fe ff
	ff		 lea	 ecx, DWORD PTR _fiveBrush$[ebp]
  00917	e8 00 00 00 00	 call	 ?DeleteObject@CGdiObject@@QAEHXZ ; CGdiObject::DeleteObject

; 714  : 	sixBrush.DeleteObject();

  0091c	8d 8d fc fe ff
	ff		 lea	 ecx, DWORD PTR _sixBrush$[ebp]
  00922	e8 00 00 00 00	 call	 ?DeleteObject@CGdiObject@@QAEHXZ ; CGdiObject::DeleteObject

; 715  : 	sevenBrush.DeleteObject();

  00927	8d 8d 04 ff ff
	ff		 lea	 ecx, DWORD PTR _sevenBrush$[ebp]
  0092d	e8 00 00 00 00	 call	 ?DeleteObject@CGdiObject@@QAEHXZ ; CGdiObject::DeleteObject

; 716  : 	eightBrush.DeleteObject();

  00932	8d 8d 0c ff ff
	ff		 lea	 ecx, DWORD PTR _eightBrush$[ebp]
  00938	e8 00 00 00 00	 call	 ?DeleteObject@CGdiObject@@QAEHXZ ; CGdiObject::DeleteObject

; 717  : 	nineBrush.DeleteObject();

  0093d	8d 8d 14 ff ff
	ff		 lea	 ecx, DWORD PTR _nineBrush$[ebp]
  00943	e8 00 00 00 00	 call	 ?DeleteObject@CGdiObject@@QAEHXZ ; CGdiObject::DeleteObject

; 718  : 	tenBrush.DeleteObject();

  00948	8d 8d 1c ff ff
	ff		 lea	 ecx, DWORD PTR _tenBrush$[ebp]
  0094e	e8 00 00 00 00	 call	 ?DeleteObject@CGdiObject@@QAEHXZ ; CGdiObject::DeleteObject

; 719  : 
; 720  : 	pen1.DeleteObject();

  00953	8d 4d 88	 lea	 ecx, DWORD PTR _pen1$[ebp]
  00956	e8 00 00 00 00	 call	 ?DeleteObject@CGdiObject@@QAEHXZ ; CGdiObject::DeleteObject

; 721  : 	pen2.DeleteObject();

  0095b	8d 8d 70 ff ff
	ff		 lea	 ecx, DWORD PTR _pen2$[ebp]
  00961	e8 00 00 00 00	 call	 ?DeleteObject@CGdiObject@@QAEHXZ ; CGdiObject::DeleteObject

; 722  : 	pen3.DeleteObject();

  00966	8d 4d 80	 lea	 ecx, DWORD PTR _pen3$[ebp]
  00969	e8 00 00 00 00	 call	 ?DeleteObject@CGdiObject@@QAEHXZ ; CGdiObject::DeleteObject

; 723  : 	pen4.DeleteObject();

  0096e	8d 8d 68 ff ff
	ff		 lea	 ecx, DWORD PTR _pen4$[ebp]
  00974	e8 00 00 00 00	 call	 ?DeleteObject@CGdiObject@@QAEHXZ ; CGdiObject::DeleteObject

; 724  : 	pen5.DeleteObject();

  00979	8d 8d 40 ff ff
	ff		 lea	 ecx, DWORD PTR _pen5$[ebp]
  0097f	e8 00 00 00 00	 call	 ?DeleteObject@CGdiObject@@QAEHXZ ; CGdiObject::DeleteObject

; 725  : 	pen6.DeleteObject();

  00984	8d 8d 48 ff ff
	ff		 lea	 ecx, DWORD PTR _pen6$[ebp]
  0098a	e8 00 00 00 00	 call	 ?DeleteObject@CGdiObject@@QAEHXZ ; CGdiObject::DeleteObject

; 726  : 	pen7.DeleteObject();

  0098f	8d 8d 50 ff ff
	ff		 lea	 ecx, DWORD PTR _pen7$[ebp]
  00995	e8 00 00 00 00	 call	 ?DeleteObject@CGdiObject@@QAEHXZ ; CGdiObject::DeleteObject

; 727  : 	pen8.DeleteObject();

  0099a	8d 8d 58 ff ff
	ff		 lea	 ecx, DWORD PTR _pen8$[ebp]
  009a0	e8 00 00 00 00	 call	 ?DeleteObject@CGdiObject@@QAEHXZ ; CGdiObject::DeleteObject

; 728  : 	pen9.DeleteObject();

  009a5	8d 8d 60 ff ff
	ff		 lea	 ecx, DWORD PTR _pen9$[ebp]
  009ab	e8 00 00 00 00	 call	 ?DeleteObject@CGdiObject@@QAEHXZ ; CGdiObject::DeleteObject

; 729  : 	pen10.DeleteObject();

  009b0	8d 8d 78 ff ff
	ff		 lea	 ecx, DWORD PTR _pen10$[ebp]
  009b6	e8 00 00 00 00	 call	 ?DeleteObject@CGdiObject@@QAEHXZ ; CGdiObject::DeleteObject
; File C:\Program Files (x86)\Microsoft Visual Studio\2019\Community\VC\Tools\MSVC\14.29.30133\atlmfc\include\afxwin1.inl

; 130  : 	{ }

  009bb	8d 8d 1c ff ff
	ff		 lea	 ecx, DWORD PTR _tenBrush$[ebp]
  009c1	c7 85 1c ff ff
	ff 00 00 00 00	 mov	 DWORD PTR _tenBrush$[ebp], OFFSET ??_7CBrush@@6B@
; File D:\git\src\IBK\IBK_DRFN\ProjSrc\SrcChartEx\ChartOCX\GraphDraw\FundDraw.cpp

; 731  : 	return true;

  009cb	b3 01		 mov	 bl, 1
; File C:\Program Files (x86)\Microsoft Visual Studio\2019\Community\VC\Tools\MSVC\14.29.30133\atlmfc\include\afxwin1.inl

; 130  : 	{ }

  009cd	e8 00 00 00 00	 call	 ??1CGdiObject@@UAE@XZ	; CGdiObject::~CGdiObject
  009d2	8d 8d 14 ff ff
	ff		 lea	 ecx, DWORD PTR _nineBrush$[ebp]
  009d8	c7 85 14 ff ff
	ff 00 00 00 00	 mov	 DWORD PTR _nineBrush$[ebp], OFFSET ??_7CBrush@@6B@
  009e2	e8 00 00 00 00	 call	 ??1CGdiObject@@UAE@XZ	; CGdiObject::~CGdiObject
  009e7	8d 8d 0c ff ff
	ff		 lea	 ecx, DWORD PTR _eightBrush$[ebp]
  009ed	c7 85 0c ff ff
	ff 00 00 00 00	 mov	 DWORD PTR _eightBrush$[ebp], OFFSET ??_7CBrush@@6B@
  009f7	e8 00 00 00 00	 call	 ??1CGdiObject@@UAE@XZ	; CGdiObject::~CGdiObject
  009fc	8d 8d 04 ff ff
	ff		 lea	 ecx, DWORD PTR _sevenBrush$[ebp]
  00a02	c7 85 04 ff ff
	ff 00 00 00 00	 mov	 DWORD PTR _sevenBrush$[ebp], OFFSET ??_7CBrush@@6B@
  00a0c	e8 00 00 00 00	 call	 ??1CGdiObject@@UAE@XZ	; CGdiObject::~CGdiObject
  00a11	8d 8d fc fe ff
	ff		 lea	 ecx, DWORD PTR _sixBrush$[ebp]
  00a17	c7 85 fc fe ff
	ff 00 00 00 00	 mov	 DWORD PTR _sixBrush$[ebp], OFFSET ??_7CBrush@@6B@
  00a21	e8 00 00 00 00	 call	 ??1CGdiObject@@UAE@XZ	; CGdiObject::~CGdiObject
  00a26	8d 8d dc fe ff
	ff		 lea	 ecx, DWORD PTR _fiveBrush$[ebp]
  00a2c	c7 85 dc fe ff
	ff 00 00 00 00	 mov	 DWORD PTR _fiveBrush$[ebp], OFFSET ??_7CBrush@@6B@
  00a36	e8 00 00 00 00	 call	 ??1CGdiObject@@UAE@XZ	; CGdiObject::~CGdiObject
  00a3b	8d 8d f4 fe ff
	ff		 lea	 ecx, DWORD PTR _fourBrush$[ebp]
  00a41	c7 85 f4 fe ff
	ff 00 00 00 00	 mov	 DWORD PTR _fourBrush$[ebp], OFFSET ??_7CBrush@@6B@
  00a4b	e8 00 00 00 00	 call	 ??1CGdiObject@@UAE@XZ	; CGdiObject::~CGdiObject
  00a50	8d 8d ec fe ff
	ff		 lea	 ecx, DWORD PTR _thirdBrush$[ebp]
  00a56	c7 85 ec fe ff
	ff 00 00 00 00	 mov	 DWORD PTR _thirdBrush$[ebp], OFFSET ??_7CBrush@@6B@
  00a60	e8 00 00 00 00	 call	 ??1CGdiObject@@UAE@XZ	; CGdiObject::~CGdiObject
  00a65	8d 8d e4 fe ff
	ff		 lea	 ecx, DWORD PTR _secondBrush$[ebp]
  00a6b	c7 85 e4 fe ff
	ff 00 00 00 00	 mov	 DWORD PTR _secondBrush$[ebp], OFFSET ??_7CBrush@@6B@
  00a75	e8 00 00 00 00	 call	 ??1CGdiObject@@UAE@XZ	; CGdiObject::~CGdiObject
  00a7a	8d 8d 2c ff ff
	ff		 lea	 ecx, DWORD PTR _firstBrush$[ebp]
  00a80	c7 85 2c ff ff
	ff 00 00 00 00	 mov	 DWORD PTR _firstBrush$[ebp], OFFSET ??_7CBrush@@6B@
  00a8a	e8 00 00 00 00	 call	 ??1CGdiObject@@UAE@XZ	; CGdiObject::~CGdiObject

; 106  : 	{ }

  00a8f	8d 8d 78 ff ff
	ff		 lea	 ecx, DWORD PTR _pen10$[ebp]
  00a95	c7 85 78 ff ff
	ff 00 00 00 00	 mov	 DWORD PTR _pen10$[ebp], OFFSET ??_7CPen@@6B@
  00a9f	e8 00 00 00 00	 call	 ??1CGdiObject@@UAE@XZ	; CGdiObject::~CGdiObject
  00aa4	c7 85 60 ff ff
	ff 00 00 00 00	 mov	 DWORD PTR _pen9$[ebp], OFFSET ??_7CPen@@6B@
  00aae	8d 8d 60 ff ff
	ff		 lea	 ecx, DWORD PTR _pen9$[ebp]
  00ab4	e8 00 00 00 00	 call	 ??1CGdiObject@@UAE@XZ	; CGdiObject::~CGdiObject
  00ab9	8d 8d 58 ff ff
	ff		 lea	 ecx, DWORD PTR _pen8$[ebp]
  00abf	c7 85 58 ff ff
	ff 00 00 00 00	 mov	 DWORD PTR _pen8$[ebp], OFFSET ??_7CPen@@6B@
  00ac9	e8 00 00 00 00	 call	 ??1CGdiObject@@UAE@XZ	; CGdiObject::~CGdiObject
  00ace	8d 8d 50 ff ff
	ff		 lea	 ecx, DWORD PTR _pen7$[ebp]
  00ad4	c7 85 50 ff ff
	ff 00 00 00 00	 mov	 DWORD PTR _pen7$[ebp], OFFSET ??_7CPen@@6B@
  00ade	e8 00 00 00 00	 call	 ??1CGdiObject@@UAE@XZ	; CGdiObject::~CGdiObject
  00ae3	8d 8d 48 ff ff
	ff		 lea	 ecx, DWORD PTR _pen6$[ebp]
  00ae9	c7 85 48 ff ff
	ff 00 00 00 00	 mov	 DWORD PTR _pen6$[ebp], OFFSET ??_7CPen@@6B@
  00af3	e8 00 00 00 00	 call	 ??1CGdiObject@@UAE@XZ	; CGdiObject::~CGdiObject
  00af8	8d 8d 40 ff ff
	ff		 lea	 ecx, DWORD PTR _pen5$[ebp]
  00afe	c7 85 40 ff ff
	ff 00 00 00 00	 mov	 DWORD PTR _pen5$[ebp], OFFSET ??_7CPen@@6B@
  00b08	e8 00 00 00 00	 call	 ??1CGdiObject@@UAE@XZ	; CGdiObject::~CGdiObject
  00b0d	8d 8d 68 ff ff
	ff		 lea	 ecx, DWORD PTR _pen4$[ebp]
  00b13	c7 85 68 ff ff
	ff 00 00 00 00	 mov	 DWORD PTR _pen4$[ebp], OFFSET ??_7CPen@@6B@
  00b1d	e8 00 00 00 00	 call	 ??1CGdiObject@@UAE@XZ	; CGdiObject::~CGdiObject
  00b22	8d 4d 80	 lea	 ecx, DWORD PTR _pen3$[ebp]
  00b25	c7 45 80 00 00
	00 00		 mov	 DWORD PTR _pen3$[ebp], OFFSET ??_7CPen@@6B@
  00b2c	e8 00 00 00 00	 call	 ??1CGdiObject@@UAE@XZ	; CGdiObject::~CGdiObject
  00b31	8d 8d 70 ff ff
	ff		 lea	 ecx, DWORD PTR _pen2$[ebp]
  00b37	c7 85 70 ff ff
	ff 00 00 00 00	 mov	 DWORD PTR _pen2$[ebp], OFFSET ??_7CPen@@6B@
  00b41	e8 00 00 00 00	 call	 ??1CGdiObject@@UAE@XZ	; CGdiObject::~CGdiObject
  00b46	8d 4d 88	 lea	 ecx, DWORD PTR _pen1$[ebp]
  00b49	c7 45 88 00 00
	00 00		 mov	 DWORD PTR _pen1$[ebp], OFFSET ??_7CPen@@6B@
  00b50	e8 00 00 00 00	 call	 ??1CGdiObject@@UAE@XZ	; CGdiObject::~CGdiObject
$LN245@DrawCompon:
; File C:\Program Files (x86)\Microsoft Visual Studio\2019\Community\VC\Tools\MSVC\14.29.30133\atlmfc\include\afxtempl.h

; 872  : 	m_pBlocks->FreeDataChain();

  00b55	8b 8d d4 fe ff
	ff		 mov	 ecx, DWORD PTR _packetPosition$[ebp+20]

; 878  : {

  00b5b	c7 45 fc 1f 00
	00 00		 mov	 DWORD PTR __$EHRec$[ebp+8], 31 ; 0000001fH
  00b62	c7 85 c0 fe ff
	ff 00 00 00 00	 mov	 DWORD PTR _packetPosition$[ebp], OFFSET ??_7?$CList@PAU__POSITION@@PAU1@@@6B@

; 870  : 	m_nCount = 0;

  00b6c	c7 85 cc fe ff
	ff 00 00 00 00	 mov	 DWORD PTR _packetPosition$[ebp+12], 0

; 871  : 	m_pNodeHead = m_pNodeTail = m_pNodeFree = NULL;

  00b76	c7 85 d0 fe ff
	ff 00 00 00 00	 mov	 DWORD PTR _packetPosition$[ebp+16], 0
  00b80	c7 85 c8 fe ff
	ff 00 00 00 00	 mov	 DWORD PTR _packetPosition$[ebp+8], 0
  00b8a	c7 85 c4 fe ff
	ff 00 00 00 00	 mov	 DWORD PTR _packetPosition$[ebp+4], 0

; 872  : 	m_pBlocks->FreeDataChain();

  00b94	e8 00 00 00 00	 call	 ?FreeDataChain@CPlex@@QAEXXZ ; CPlex::FreeDataChain
; File D:\git\src\IBK\IBK_DRFN\ProjSrc\SrcChartEx\ChartOCX\GraphDraw\FundDraw.cpp

; 731  : 	return true;

  00b99	8a c3		 mov	 al, bl
$LN1@DrawCompon:

; 732  : }

  00b9b	8b 4d f4	 mov	 ecx, DWORD PTR __$EHRec$[ebp]
  00b9e	64 89 0d 00 00
	00 00		 mov	 DWORD PTR fs:0, ecx
  00ba5	59		 pop	 ecx
  00ba6	5f		 pop	 edi
  00ba7	5e		 pop	 esi
  00ba8	5b		 pop	 ebx
  00ba9	8b 4d f0	 mov	 ecx, DWORD PTR __$ArrayPad$[ebp]
  00bac	33 cd		 xor	 ecx, ebp
  00bae	e8 00 00 00 00	 call	 @__security_check_cookie@4
  00bb3	8b e5		 mov	 esp, ebp
  00bb5	5d		 pop	 ebp
  00bb6	c2 3c 00	 ret	 60			; 0000003cH
_TEXT	ENDS
;	COMDAT text$x
text$x	SEGMENT
__unwindfunclet$?DrawComponentRatio_Line@CFundDraw@@AAE_NPAVCDC@@ABVCEtcGraphColor@@ABVCRect@@ABVCGraphColor@@HHHABN4ABV?$CList@PAVCPacket@@PAV1@@@VCPenThickness@@@Z$0:
  00000	8d 8d c0 fe ff
	ff		 lea	 ecx, DWORD PTR _packetPosition$[ebp]
  00006	e9 00 00 00 00	 jmp	 ??1?$CList@PAU__POSITION@@PAU1@@@UAE@XZ ; CList<__POSITION *,__POSITION *>::~CList<__POSITION *,__POSITION *>
__unwindfunclet$?DrawComponentRatio_Line@CFundDraw@@AAE_NPAVCDC@@ABVCEtcGraphColor@@ABVCRect@@ABVCGraphColor@@HHHABN4ABV?$CList@PAVCPacket@@PAV1@@@VCPenThickness@@@Z$1:
  0000b	8d 4d 88	 lea	 ecx, DWORD PTR _pen1$[ebp]
  0000e	e9 00 00 00 00	 jmp	 ??1CPen@@UAE@XZ		; CPen::~CPen
__unwindfunclet$?DrawComponentRatio_Line@CFundDraw@@AAE_NPAVCDC@@ABVCEtcGraphColor@@ABVCRect@@ABVCGraphColor@@HHHABN4ABV?$CList@PAVCPacket@@PAV1@@@VCPenThickness@@@Z$2:
  00013	8d 8d 70 ff ff
	ff		 lea	 ecx, DWORD PTR _pen2$[ebp]
  00019	e9 00 00 00 00	 jmp	 ??1CPen@@UAE@XZ		; CPen::~CPen
__unwindfunclet$?DrawComponentRatio_Line@CFundDraw@@AAE_NPAVCDC@@ABVCEtcGraphColor@@ABVCRect@@ABVCGraphColor@@HHHABN4ABV?$CList@PAVCPacket@@PAV1@@@VCPenThickness@@@Z$3:
  0001e	8d 4d 80	 lea	 ecx, DWORD PTR _pen3$[ebp]
  00021	e9 00 00 00 00	 jmp	 ??1CPen@@UAE@XZ		; CPen::~CPen
__unwindfunclet$?DrawComponentRatio_Line@CFundDraw@@AAE_NPAVCDC@@ABVCEtcGraphColor@@ABVCRect@@ABVCGraphColor@@HHHABN4ABV?$CList@PAVCPacket@@PAV1@@@VCPenThickness@@@Z$4:
  00026	8d 8d 68 ff ff
	ff		 lea	 ecx, DWORD PTR _pen4$[ebp]
  0002c	e9 00 00 00 00	 jmp	 ??1CPen@@UAE@XZ		; CPen::~CPen
__unwindfunclet$?DrawComponentRatio_Line@CFundDraw@@AAE_NPAVCDC@@ABVCEtcGraphColor@@ABVCRect@@ABVCGraphColor@@HHHABN4ABV?$CList@PAVCPacket@@PAV1@@@VCPenThickness@@@Z$5:
  00031	8d 8d 40 ff ff
	ff		 lea	 ecx, DWORD PTR _pen5$[ebp]
  00037	e9 00 00 00 00	 jmp	 ??1CPen@@UAE@XZ		; CPen::~CPen
__unwindfunclet$?DrawComponentRatio_Line@CFundDraw@@AAE_NPAVCDC@@ABVCEtcGraphColor@@ABVCRect@@ABVCGraphColor@@HHHABN4ABV?$CList@PAVCPacket@@PAV1@@@VCPenThickness@@@Z$6:
  0003c	8d 8d 48 ff ff
	ff		 lea	 ecx, DWORD PTR _pen6$[ebp]
  00042	e9 00 00 00 00	 jmp	 ??1CPen@@UAE@XZ		; CPen::~CPen
__unwindfunclet$?DrawComponentRatio_Line@CFundDraw@@AAE_NPAVCDC@@ABVCEtcGraphColor@@ABVCRect@@ABVCGraphColor@@HHHABN4ABV?$CList@PAVCPacket@@PAV1@@@VCPenThickness@@@Z$7:
  00047	8d 8d 50 ff ff
	ff		 lea	 ecx, DWORD PTR _pen7$[ebp]
  0004d	e9 00 00 00 00	 jmp	 ??1CPen@@UAE@XZ		; CPen::~CPen
__unwindfunclet$?DrawComponentRatio_Line@CFundDraw@@AAE_NPAVCDC@@ABVCEtcGraphColor@@ABVCRect@@ABVCGraphColor@@HHHABN4ABV?$CList@PAVCPacket@@PAV1@@@VCPenThickness@@@Z$8:
  00052	8d 8d 58 ff ff
	ff		 lea	 ecx, DWORD PTR _pen8$[ebp]
  00058	e9 00 00 00 00	 jmp	 ??1CPen@@UAE@XZ		; CPen::~CPen
__unwindfunclet$?DrawComponentRatio_Line@CFundDraw@@AAE_NPAVCDC@@ABVCEtcGraphColor@@ABVCRect@@ABVCGraphColor@@HHHABN4ABV?$CList@PAVCPacket@@PAV1@@@VCPenThickness@@@Z$9:
  0005d	8d 8d 60 ff ff
	ff		 lea	 ecx, DWORD PTR _pen9$[ebp]
  00063	e9 00 00 00 00	 jmp	 ??1CPen@@UAE@XZ		; CPen::~CPen
__unwindfunclet$?DrawComponentRatio_Line@CFundDraw@@AAE_NPAVCDC@@ABVCEtcGraphColor@@ABVCRect@@ABVCGraphColor@@HHHABN4ABV?$CList@PAVCPacket@@PAV1@@@VCPenThickness@@@Z$10:
  00068	8d 8d 78 ff ff
	ff		 lea	 ecx, DWORD PTR _pen10$[ebp]
  0006e	e9 00 00 00 00	 jmp	 ??1CPen@@UAE@XZ		; CPen::~CPen
__unwindfunclet$?DrawComponentRatio_Line@CFundDraw@@AAE_NPAVCDC@@ABVCEtcGraphColor@@ABVCRect@@ABVCGraphColor@@HHHABN4ABV?$CList@PAVCPacket@@PAV1@@@VCPenThickness@@@Z$11:
  00073	8d 8d 2c ff ff
	ff		 lea	 ecx, DWORD PTR _firstBrush$[ebp]
  00079	e9 00 00 00 00	 jmp	 ??1CBrush@@UAE@XZ	; CBrush::~CBrush
__unwindfunclet$?DrawComponentRatio_Line@CFundDraw@@AAE_NPAVCDC@@ABVCEtcGraphColor@@ABVCRect@@ABVCGraphColor@@HHHABN4ABV?$CList@PAVCPacket@@PAV1@@@VCPenThickness@@@Z$12:
  0007e	8d 8d e4 fe ff
	ff		 lea	 ecx, DWORD PTR _secondBrush$[ebp]
  00084	e9 00 00 00 00	 jmp	 ??1CBrush@@UAE@XZ	; CBrush::~CBrush
__unwindfunclet$?DrawComponentRatio_Line@CFundDraw@@AAE_NPAVCDC@@ABVCEtcGraphColor@@ABVCRect@@ABVCGraphColor@@HHHABN4ABV?$CList@PAVCPacket@@PAV1@@@VCPenThickness@@@Z$13:
  00089	8d 8d ec fe ff
	ff		 lea	 ecx, DWORD PTR _thirdBrush$[ebp]
  0008f	e9 00 00 00 00	 jmp	 ??1CBrush@@UAE@XZ	; CBrush::~CBrush
__unwindfunclet$?DrawComponentRatio_Line@CFundDraw@@AAE_NPAVCDC@@ABVCEtcGraphColor@@ABVCRect@@ABVCGraphColor@@HHHABN4ABV?$CList@PAVCPacket@@PAV1@@@VCPenThickness@@@Z$14:
  00094	8d 8d f4 fe ff
	ff		 lea	 ecx, DWORD PTR _fourBrush$[ebp]
  0009a	e9 00 00 00 00	 jmp	 ??1CBrush@@UAE@XZ	; CBrush::~CBrush
__unwindfunclet$?DrawComponentRatio_Line@CFundDraw@@AAE_NPAVCDC@@ABVCEtcGraphColor@@ABVCRect@@ABVCGraphColor@@HHHABN4ABV?$CList@PAVCPacket@@PAV1@@@VCPenThickness@@@Z$15:
  0009f	8d 8d dc fe ff
	ff		 lea	 ecx, DWORD PTR _fiveBrush$[ebp]
  000a5	e9 00 00 00 00	 jmp	 ??1CBrush@@UAE@XZ	; CBrush::~CBrush
__unwindfunclet$?DrawComponentRatio_Line@CFundDraw@@AAE_NPAVCDC@@ABVCEtcGraphColor@@ABVCRect@@ABVCGraphColor@@HHHABN4ABV?$CList@PAVCPacket@@PAV1@@@VCPenThickness@@@Z$16:
  000aa	8d 8d fc fe ff
	ff		 lea	 ecx, DWORD PTR _sixBrush$[ebp]
  000b0	e9 00 00 00 00	 jmp	 ??1CBrush@@UAE@XZ	; CBrush::~CBrush
__unwindfunclet$?DrawComponentRatio_Line@CFundDraw@@AAE_NPAVCDC@@ABVCEtcGraphColor@@ABVCRect@@ABVCGraphColor@@HHHABN4ABV?$CList@PAVCPacket@@PAV1@@@VCPenThickness@@@Z$17:
  000b5	8d 8d 04 ff ff
	ff		 lea	 ecx, DWORD PTR _sevenBrush$[ebp]
  000bb	e9 00 00 00 00	 jmp	 ??1CBrush@@UAE@XZ	; CBrush::~CBrush
__unwindfunclet$?DrawComponentRatio_Line@CFundDraw@@AAE_NPAVCDC@@ABVCEtcGraphColor@@ABVCRect@@ABVCGraphColor@@HHHABN4ABV?$CList@PAVCPacket@@PAV1@@@VCPenThickness@@@Z$18:
  000c0	8d 8d 0c ff ff
	ff		 lea	 ecx, DWORD PTR _eightBrush$[ebp]
  000c6	e9 00 00 00 00	 jmp	 ??1CBrush@@UAE@XZ	; CBrush::~CBrush
__unwindfunclet$?DrawComponentRatio_Line@CFundDraw@@AAE_NPAVCDC@@ABVCEtcGraphColor@@ABVCRect@@ABVCGraphColor@@HHHABN4ABV?$CList@PAVCPacket@@PAV1@@@VCPenThickness@@@Z$19:
  000cb	8d 8d 14 ff ff
	ff		 lea	 ecx, DWORD PTR _nineBrush$[ebp]
  000d1	e9 00 00 00 00	 jmp	 ??1CBrush@@UAE@XZ	; CBrush::~CBrush
__unwindfunclet$?DrawComponentRatio_Line@CFundDraw@@AAE_NPAVCDC@@ABVCEtcGraphColor@@ABVCRect@@ABVCGraphColor@@HHHABN4ABV?$CList@PAVCPacket@@PAV1@@@VCPenThickness@@@Z$20:
  000d6	8d 8d 1c ff ff
	ff		 lea	 ecx, DWORD PTR _tenBrush$[ebp]
  000dc	e9 00 00 00 00	 jmp	 ??1CBrush@@UAE@XZ	; CBrush::~CBrush
__unwindfunclet$?DrawComponentRatio_Line@CFundDraw@@AAE_NPAVCDC@@ABVCEtcGraphColor@@ABVCRect@@ABVCGraphColor@@HHHABN4ABV?$CList@PAVCPacket@@PAV1@@@VCPenThickness@@@Z$21:
  000e1	8d 8d b4 fe ff
	ff		 lea	 ecx, DWORD PTR $T11[ebp]
  000e7	ff 25 00 00 00
	00		 jmp	 DWORD PTR __imp_??1?$CStringT@DV?$StrTraitMFC_DLL@DV?$ChTraitsCRT@D@ATL@@@@@ATL@@QAE@XZ
__unwindfunclet$?DrawComponentRatio_Line@CFundDraw@@AAE_NPAVCDC@@ABVCEtcGraphColor@@ABVCRect@@ABVCGraphColor@@HHHABN4ABV?$CList@PAVCPacket@@PAV1@@@VCPenThickness@@@Z$22:
  000ed	8d 8d b8 fe ff
	ff		 lea	 ecx, DWORD PTR $T12[ebp]
  000f3	ff 25 00 00 00
	00		 jmp	 DWORD PTR __imp_??1?$CStringT@DV?$StrTraitMFC_DLL@DV?$ChTraitsCRT@D@ATL@@@@@ATL@@QAE@XZ
__unwindfunclet$?DrawComponentRatio_Line@CFundDraw@@AAE_NPAVCDC@@ABVCEtcGraphColor@@ABVCRect@@ABVCGraphColor@@HHHABN4ABV?$CList@PAVCPacket@@PAV1@@@VCPenThickness@@@Z$23:
  000f9	8d 4d 9c	 lea	 ecx, DWORD PTR _strData$14[ebp]
  000fc	ff 25 00 00 00
	00		 jmp	 DWORD PTR __imp_??1?$CStringT@DV?$StrTraitMFC_DLL@DV?$ChTraitsCRT@D@ATL@@@@@ATL@@QAE@XZ
__unwindfunclet$?DrawComponentRatio_Line@CFundDraw@@AAE_NPAVCDC@@ABVCEtcGraphColor@@ABVCRect@@ABVCGraphColor@@HHHABN4ABV?$CList@PAVCPacket@@PAV1@@@VCPenThickness@@@Z$24:
  00102	8d 8d ac fe ff
	ff		 lea	 ecx, DWORD PTR $T9[ebp]
  00108	ff 25 00 00 00
	00		 jmp	 DWORD PTR __imp_??1?$CStringT@DV?$StrTraitMFC_DLL@DV?$ChTraitsCRT@D@ATL@@@@@ATL@@QAE@XZ
__unwindfunclet$?DrawComponentRatio_Line@CFundDraw@@AAE_NPAVCDC@@ABVCEtcGraphColor@@ABVCRect@@ABVCGraphColor@@HHHABN4ABV?$CList@PAVCPacket@@PAV1@@@VCPenThickness@@@Z$25:
  0010e	8d 8d b0 fe ff
	ff		 lea	 ecx, DWORD PTR $T10[ebp]
  00114	ff 25 00 00 00
	00		 jmp	 DWORD PTR __imp_??1?$CStringT@DV?$StrTraitMFC_DLL@DV?$ChTraitsCRT@D@ATL@@@@@ATL@@QAE@XZ
__unwindfunclet$?DrawComponentRatio_Line@CFundDraw@@AAE_NPAVCDC@@ABVCEtcGraphColor@@ABVCRect@@ABVCGraphColor@@HHHABN4ABV?$CList@PAVCPacket@@PAV1@@@VCPenThickness@@@Z$26:
  0011a	8d 4d a4	 lea	 ecx, DWORD PTR _beforeStrData$15[ebp]
  0011d	ff 25 00 00 00
	00		 jmp	 DWORD PTR __imp_??1?$CStringT@DV?$StrTraitMFC_DLL@DV?$ChTraitsCRT@D@ATL@@@@@ATL@@QAE@XZ
  00123	cc		 int	 3
  00124	cc		 int	 3
  00125	cc		 int	 3
  00126	cc		 int	 3
  00127	cc		 int	 3
__ehhandler$?DrawComponentRatio_Line@CFundDraw@@AAE_NPAVCDC@@ABVCEtcGraphColor@@ABVCRect@@ABVCGraphColor@@HHHABN4ABV?$CList@PAVCPacket@@PAV1@@@VCPenThickness@@@Z:
  00128	90		 npad	 1
  00129	90		 npad	 1
  0012a	8b 54 24 08	 mov	 edx, DWORD PTR [esp+8]
  0012e	8d 42 0c	 lea	 eax, DWORD PTR [edx+12]
  00131	8b 8a 64 fe ff
	ff		 mov	 ecx, DWORD PTR [edx-412]
  00137	33 c8		 xor	 ecx, eax
  00139	e8 00 00 00 00	 call	 @__security_check_cookie@4
  0013e	8b 4a fc	 mov	 ecx, DWORD PTR [edx-4]
  00141	33 c8		 xor	 ecx, eax
  00143	e8 00 00 00 00	 call	 @__security_check_cookie@4
  00148	b8 00 00 00 00	 mov	 eax, OFFSET __ehfuncinfo$?DrawComponentRatio_Line@CFundDraw@@AAE_NPAVCDC@@ABVCEtcGraphColor@@ABVCRect@@ABVCGraphColor@@HHHABN4ABV?$CList@PAVCPacket@@PAV1@@@VCPenThickness@@@Z
  0014d	e9 00 00 00 00	 jmp	 ___CxxFrameHandler3
text$x	ENDS
?DrawComponentRatio_Line@CFundDraw@@AAE_NPAVCDC@@ABVCEtcGraphColor@@ABVCRect@@ABVCGraphColor@@HHHABN4ABV?$CList@PAVCPacket@@PAV1@@@VCPenThickness@@@Z ENDP ; CFundDraw::DrawComponentRatio_Line
; Function compile flags: /Ogtp
; File D:\git\src\IBK\IBK_DRFN\ProjSrc\SrcChartEx\ChartOCX\GraphDraw\FundDraw.cpp
; File C:\Program Files (x86)\Microsoft Visual Studio\2019\Community\VC\Tools\MSVC\14.29.30133\atlmfc\include\afxtempl.h
; File D:\git\src\IBK\IBK_DRFN\ProjSrc\SrcChartEx\ChartOCX\GraphDraw\FundDraw.cpp
; File C:\Program Files (x86)\Microsoft Visual Studio\2019\Community\VC\Tools\MSVC\14.29.30133\atlmfc\include\afxtempl.h
; File D:\git\src\IBK\IBK_DRFN\ProjSrc\SrcChartEx\ChartOCX\GraphDraw\FundDraw.cpp
; File C:\Program Files (x86)\Microsoft Visual Studio\2019\Community\VC\Tools\MSVC\14.29.30133\atlmfc\include\afxtempl.h
; File D:\git\src\IBK\IBK_DRFN\ProjSrc\SrcChartEx\ChartOCX\GraphDraw\FundDraw.cpp
; File C:\Program Files (x86)\Microsoft Visual Studio\2019\Community\VC\Tools\MSVC\14.29.30133\atlmfc\include\afxtempl.h
; File D:\git\src\IBK\IBK_DRFN\ProjSrc\SrcChartEx\ChartOCX\GraphDraw\FundDraw.cpp
; File C:\Program Files (x86)\Microsoft Visual Studio\2019\Community\VC\Tools\MSVC\14.29.30133\atlmfc\include\afxtempl.h
; File D:\git\src\IBK\IBK_DRFN\ProjSrc\SrcChartEx\ChartOCX\GraphDraw\FundDraw.cpp
; File C:\Program Files (x86)\Microsoft Visual Studio\2019\Community\VC\Tools\MSVC\14.29.30133\atlmfc\include\afxwin1.inl
; File D:\git\src\IBK\IBK_DRFN\ProjSrc\SrcChartEx\ChartOCX\GraphDraw\FundDraw.cpp
; File C:\Program Files (x86)\Microsoft Visual Studio\2019\Community\VC\Tools\MSVC\14.29.30133\atlmfc\include\afxwin1.inl
; File D:\git\src\IBK\IBK_DRFN\ProjSrc\SrcChartEx\ChartOCX\GraphDraw\FundDraw.cpp
; File C:\Program Files (x86)\Microsoft Visual Studio\2019\Community\VC\Tools\MSVC\14.29.30133\atlmfc\include\afxtempl.h
; File D:\git\src\IBK\IBK_DRFN\ProjSrc\SrcChartEx\ChartOCX\GraphDraw\FundDraw.cpp
; File C:\Program Files (x86)\Microsoft Visual Studio\2019\Community\VC\Tools\MSVC\14.29.30133\atlmfc\include\afxtempl.h
; File D:\git\src\IBK\IBK_DRFN\ProjSrc\SrcChartEx\ChartOCX\GraphDraw\FundDraw.cpp
; File C:\Program Files (x86)\Microsoft Visual Studio\2019\Community\VC\Tools\MSVC\14.29.30133\atlmfc\include\afxtempl.h
; File D:\git\src\IBK\IBK_DRFN\ProjSrc\SrcChartEx\ChartOCX\GraphDraw\FundDraw.cpp
; File C:\Program Files (x86)\Microsoft Visual Studio\2019\Community\VC\Tools\MSVC\14.29.30133\atlmfc\include\afxtempl.h
; File D:\git\src\IBK\IBK_DRFN\ProjSrc\SrcChartEx\ChartOCX\GraphDraw\FundDraw.cpp
; File C:\Program Files (x86)\Microsoft Visual Studio\2019\Community\VC\Tools\MSVC\14.29.30133\atlmfc\include\atltypes.h
; File D:\git\src\IBK\IBK_DRFN\ProjSrc\SrcChartEx\ChartOCX\GraphDraw\FundDraw.cpp
; File C:\Program Files (x86)\Microsoft Visual Studio\2019\Community\VC\Tools\MSVC\14.29.30133\atlmfc\include\atltypes.h
; File D:\git\src\IBK\IBK_DRFN\ProjSrc\SrcChartEx\ChartOCX\GraphDraw\FundDraw.cpp
; File C:\Program Files (x86)\Microsoft Visual Studio\2019\Community\VC\Tools\MSVC\14.29.30133\atlmfc\include\atltypes.h
; File D:\git\src\IBK\IBK_DRFN\ProjSrc\SrcChartEx\ChartOCX\GraphDraw\FundDraw.cpp
; File C:\Program Files (x86)\Microsoft Visual Studio\2019\Community\VC\Tools\MSVC\14.29.30133\atlmfc\include\atltypes.h
; File D:\git\src\IBK\IBK_DRFN\ProjSrc\SrcChartEx\ChartOCX\GraphDraw\FundDraw.cpp
; File C:\Program Files (x86)\Microsoft Visual Studio\2019\Community\VC\Tools\MSVC\14.29.30133\atlmfc\include\afxtempl.h
; File D:\git\src\IBK\IBK_DRFN\ProjSrc\SrcChartEx\ChartOCX\GraphDraw\FundDraw.cpp
; File C:\Program Files (x86)\Microsoft Visual Studio\2019\Community\VC\Tools\MSVC\14.29.30133\atlmfc\include\afxtempl.h
; File D:\git\src\IBK\IBK_DRFN\ProjSrc\SrcChartEx\ChartOCX\GraphDraw\FundDraw.cpp
; File C:\Program Files (x86)\Microsoft Visual Studio\2019\Community\VC\Tools\MSVC\14.29.30133\atlmfc\include\cstringt.h
; File D:\git\src\IBK\IBK_DRFN\ProjSrc\SrcChartEx\ChartOCX\GraphDraw\FundDraw.cpp
; File C:\Program Files (x86)\Microsoft Visual Studio\2019\Community\VC\Tools\MSVC\14.29.30133\atlmfc\include\cstringt.h
; File D:\git\src\IBK\IBK_DRFN\ProjSrc\SrcChartEx\ChartOCX\GraphDraw\FundDraw.cpp
; File C:\Program Files (x86)\Microsoft Visual Studio\2019\Community\VC\Tools\MSVC\14.29.30133\atlmfc\include\afxwin1.inl
; File D:\git\src\IBK\IBK_DRFN\ProjSrc\SrcChartEx\ChartOCX\GraphDraw\FundDraw.cpp
; File C:\Program Files (x86)\Microsoft Visual Studio\2019\Community\VC\Tools\MSVC\14.29.30133\atlmfc\include\cstringt.h
; File D:\git\src\IBK\IBK_DRFN\ProjSrc\SrcChartEx\ChartOCX\GraphDraw\FundDraw.cpp
; File C:\Program Files (x86)\Microsoft Visual Studio\2019\Community\VC\Tools\MSVC\14.29.30133\atlmfc\include\afxwin1.inl
; File D:\git\src\IBK\IBK_DRFN\ProjSrc\SrcChartEx\ChartOCX\GraphDraw\FundDraw.cpp
; File C:\Program Files (x86)\Microsoft Visual Studio\2019\Community\VC\Tools\MSVC\14.29.30133\atlmfc\include\cstringt.h
; File D:\git\src\IBK\IBK_DRFN\ProjSrc\SrcChartEx\ChartOCX\GraphDraw\FundDraw.cpp
; File C:\Program Files (x86)\Microsoft Visual Studio\2019\Community\VC\Tools\MSVC\14.29.30133\atlmfc\include\afxwin1.inl
; File D:\git\src\IBK\IBK_DRFN\ProjSrc\SrcChartEx\ChartOCX\GraphDraw\FundDraw.cpp
; File C:\Program Files (x86)\Microsoft Visual Studio\2019\Community\VC\Tools\MSVC\14.29.30133\atlmfc\include\atltypes.h
; File D:\git\src\IBK\IBK_DRFN\ProjSrc\SrcChartEx\ChartOCX\GraphDraw\FundDraw.cpp
; File C:\Program Files (x86)\Microsoft Visual Studio\2019\Community\VC\Tools\MSVC\14.29.30133\atlmfc\include\atltypes.h
; File D:\git\src\IBK\IBK_DRFN\ProjSrc\SrcChartEx\ChartOCX\GraphDraw\FundDraw.cpp
; File C:\Program Files (x86)\Microsoft Visual Studio\2019\Community\VC\Tools\MSVC\14.29.30133\atlmfc\include\afxwin1.inl
; File D:\git\src\IBK\IBK_DRFN\ProjSrc\SrcChartEx\ChartOCX\GraphDraw\FundDraw.cpp
; File C:\Program Files (x86)\Microsoft Visual Studio\2019\Community\VC\Tools\MSVC\14.29.30133\atlmfc\include\afxwin1.inl
; File D:\git\src\IBK\IBK_DRFN\ProjSrc\SrcChartEx\ChartOCX\GraphDraw\FundDraw.cpp
; File C:\Program Files (x86)\Microsoft Visual Studio\2019\Community\VC\Tools\MSVC\14.29.30133\atlmfc\include\afxwin1.inl
; File D:\git\src\IBK\IBK_DRFN\ProjSrc\SrcChartEx\ChartOCX\GraphDraw\FundDraw.cpp
;	COMDAT ?DrawReturnRiskGrade@CFundDraw@@AAE_NPAVCDC@@ABVCEtcGraphColor@@ABVCRect@@ABVCGraphColor@@HABN4ABV?$CList@PAVCPacket@@PAV1@@@VCPenThickness@@@Z
_TEXT	SEGMENT
$T2 = -172						; size = 8
$T3 = -164						; size = 8
_dataPt$4 = -156					; size = 8
_width$1$ = -148					; size = 8
$T5 = -148						; size = 8
_height$1$ = -140					; size = 8
$T6 = -140						; size = 8
_pOldPen$1$ = -132					; size = 4
_pOldBrush$1$ = -128					; size = 4
_this$GSCopy$1$ = -124					; size = 4
_UBrush$ = -120						; size = 8
_BBrush$ = -112						; size = 8
_FBrush$ = -104						; size = 8
_gridPen$ = -96						; size = 8
_partPacket$1$ = -88					; size = 4
tv1134 = -88						; size = 4
_graphColor$GSCopy$1$ = -84				; size = 4
tv1141 = -84						; size = 4
_xPositionPacket$1$ = -80				; size = 4
_graphDrawingRegion$GSCopy$1$ = -76			; size = 4
tv1140 = -76						; size = 4
tv1135 = -76						; size = 4
_k$1$ = -72						; size = 4
_yPositionPacket$1$ = -72				; size = 4
_yPosition$1$ = -68					; size = 4
_pDC$GSCopy$1$ = -64					; size = 4
tv1130 = -64						; size = 4
_strpart$7 = -60					; size = 4
_partPosition$1$ = -56					; size = 4
_xPosition$1$ = -52					; size = 4
_graphRegion$ = -48					; size = 16
_rect$ = -32						; size = 16
_rect$8 = -32						; size = 16
__$ArrayPad$ = -16					; size = 4
__$EHRec$ = -12						; size = 12
_pDC$ = 8						; size = 4
_etcGraphColor$ = 12					; size = 4
_graphDrawingRegion$ = 16				; size = 4
_graphColor$ = 20					; size = 4
_dataStart$ = 24					; size = 4
_dataViewMax$ = 28					; size = 4
_dataViewMin$ = 32					; size = 4
_packetList$ = 36					; size = 4
_penThickness$ = 40					; size = 20
?DrawReturnRiskGrade@CFundDraw@@AAE_NPAVCDC@@ABVCEtcGraphColor@@ABVCRect@@ABVCGraphColor@@HABN4ABV?$CList@PAVCPacket@@PAV1@@@VCPenThickness@@@Z PROC ; CFundDraw::DrawReturnRiskGrade, COMDAT
; _this$ = ecx

; 452  : {

  00000	55		 push	 ebp
  00001	8b ec		 mov	 ebp, esp
  00003	6a ff		 push	 -1
  00005	68 00 00 00 00	 push	 __ehhandler$?DrawReturnRiskGrade@CFundDraw@@AAE_NPAVCDC@@ABVCEtcGraphColor@@ABVCRect@@ABVCGraphColor@@HABN4ABV?$CList@PAVCPacket@@PAV1@@@VCPenThickness@@@Z
  0000a	64 a1 00 00 00
	00		 mov	 eax, DWORD PTR fs:0
  00010	50		 push	 eax
  00011	81 ec a0 00 00
	00		 sub	 esp, 160		; 000000a0H
  00017	a1 00 00 00 00	 mov	 eax, DWORD PTR ___security_cookie
  0001c	33 c5		 xor	 eax, ebp
  0001e	89 45 f0	 mov	 DWORD PTR __$ArrayPad$[ebp], eax
  00021	56		 push	 esi
  00022	57		 push	 edi
  00023	50		 push	 eax
  00024	8d 45 f4	 lea	 eax, DWORD PTR __$EHRec$[ebp]
  00027	64 a3 00 00 00
	00		 mov	 DWORD PTR fs:0, eax
  0002d	89 4d 84	 mov	 DWORD PTR _this$GSCopy$1$[ebp], ecx
  00030	8b 45 10	 mov	 eax, DWORD PTR _graphDrawingRegion$[ebp]
  00033	8b 4d 24	 mov	 ecx, DWORD PTR _packetList$[ebp]
  00036	8b 75 08	 mov	 esi, DWORD PTR _pDC$[ebp]
  00039	89 45 b4	 mov	 DWORD PTR _graphDrawingRegion$GSCopy$1$[ebp], eax
  0003c	8b 45 14	 mov	 eax, DWORD PTR _graphColor$[ebp]
  0003f	89 45 ac	 mov	 DWORD PTR _graphColor$GSCopy$1$[ebp], eax

; 453  : 	POSITION headPos = packetList.GetHeadPosition();

  00042	8b 41 04	 mov	 eax, DWORD PTR [ecx+4]
  00045	89 75 c0	 mov	 DWORD PTR _pDC$GSCopy$1$[ebp], esi

; 454  : 	if(headPos == NULL) 

  00048	85 c0		 test	 eax, eax
  0004a	0f 84 d7 04 00
	00		 je	 $LN12@DrawReturn

; 455  : 		return false;
; 456  : 	CPacket* partPacket;      //  packet
; 457  : 	CPacket* xPositionPacket; // x  packet
; 458  : 	CPacket* yPositionPacket; // y  packet
; 459  : 
; 460  : 	if(packetList.GetCount() >= 3){

  00050	83 79 0c 03	 cmp	 DWORD PTR [ecx+12], 3
  00054	0f 8c cd 04 00
	00		 jl	 $LN12@DrawReturn

; 461  : 		partPacket = packetList.GetNext(headPos);

  0005a	8b 50 08	 mov	 edx, DWORD PTR [eax+8]
; File C:\Program Files (x86)\Microsoft Visual Studio\2019\Community\VC\Tools\MSVC\14.29.30133\atlmfc\include\afxtempl.h

; 817  : 	{ CNode* pNode = (CNode*) rPosition;

  0005d	8b 00		 mov	 eax, DWORD PTR [eax]
; File D:\git\src\IBK\IBK_DRFN\ProjSrc\SrcChartEx\ChartOCX\GraphDraw\FundDraw.cpp

; 472  : 	POSITION partPosition = partPacket->GetstrDataList()->FindIndex(dataStart);

  0005f	8b 7d 18	 mov	 edi, DWORD PTR _dataStart$[ebp]
  00062	89 55 a8	 mov	 DWORD PTR _partPacket$1$[ebp], edx
; File C:\Program Files (x86)\Microsoft Visual Studio\2019\Community\VC\Tools\MSVC\14.29.30133\atlmfc\include\afxtempl.h

; 819  : 		rPosition = (POSITION) pNode->pNext;

  00065	8b 08		 mov	 ecx, DWORD PTR [eax]
; File D:\git\src\IBK\IBK_DRFN\ProjSrc\SrcChartEx\ChartOCX\GraphDraw\FundDraw.cpp

; 462  : 		xPositionPacket = packetList.GetNext(headPos);

  00067	8b 40 08	 mov	 eax, DWORD PTR [eax+8]
  0006a	89 45 b0	 mov	 DWORD PTR _xPositionPacket$1$[ebp], eax

; 463  : 		yPositionPacket = packetList.GetNext(headPos);

  0006d	8b 41 08	 mov	 eax, DWORD PTR [ecx+8]

; 472  : 	POSITION partPosition = partPacket->GetstrDataList()->FindIndex(dataStart);

  00070	8b ca		 mov	 ecx, edx
  00072	89 45 b8	 mov	 DWORD PTR _yPositionPacket$1$[ebp], eax
  00075	ff 15 00 00 00
	00		 call	 DWORD PTR __imp_?GetstrDataList@CPacket@@QAEPAV?$CList@V?$CStringT@DV?$StrTraitMFC_DLL@DV?$ChTraitsCRT@D@ATL@@@@@ATL@@V12@@@XZ
; File C:\Program Files (x86)\Microsoft Visual Studio\2019\Community\VC\Tools\MSVC\14.29.30133\atlmfc\include\afxtempl.h

; 1133 : 	if (nIndex >= m_nCount || nIndex < 0)

  0007b	3b 78 0c	 cmp	 edi, DWORD PTR [eax+12]
  0007e	7d 1c		 jge	 SHORT $LN39@DrawReturn
  00080	85 ff		 test	 edi, edi
  00082	78 18		 js	 SHORT $LN39@DrawReturn

; 1135 : 
; 1136 : 	CNode* pNode = m_pNodeHead;

  00084	8b 40 04	 mov	 eax, DWORD PTR [eax+4]
  00087	89 45 c8	 mov	 DWORD PTR _partPosition$1$[ebp], eax

; 1137 : 	while (nIndex--)

  0008a	74 17		 je	 SHORT $LN35@DrawReturn
  0008c	8b cf		 mov	 ecx, edi
  0008e	66 90		 npad	 2
$LL36@DrawReturn:

; 1138 : 	{
; 1139 : 		ASSERT(AfxIsValidAddress(pNode, sizeof(CNode)));
; 1140 : 		pNode = pNode->pNext;

  00090	8b 00		 mov	 eax, DWORD PTR [eax]
  00092	83 e9 01	 sub	 ecx, 1
  00095	75 f9		 jne	 SHORT $LL36@DrawReturn
  00097	89 45 c8	 mov	 DWORD PTR _partPosition$1$[ebp], eax

; 1141 : 	}
; 1142 : 	return (POSITION) pNode;

  0009a	eb 07		 jmp	 SHORT $LN35@DrawReturn
$LN39@DrawReturn:

; 1134 : 		return NULL;  // went too far

  0009c	c7 45 c8 00 00
	00 00		 mov	 DWORD PTR _partPosition$1$[ebp], 0
$LN35@DrawReturn:
; File D:\git\src\IBK\IBK_DRFN\ProjSrc\SrcChartEx\ChartOCX\GraphDraw\FundDraw.cpp

; 473  : 	POSITION xPosition = xPositionPacket->GetnumericDataList()->FindIndex(dataStart);

  000a3	8b 4d b0	 mov	 ecx, DWORD PTR _xPositionPacket$1$[ebp]
  000a6	ff 15 00 00 00
	00		 call	 DWORD PTR __imp_?GetnumericDataList@CPacket@@QAEPAV?$CList@NN@@XZ
; File C:\Program Files (x86)\Microsoft Visual Studio\2019\Community\VC\Tools\MSVC\14.29.30133\atlmfc\include\afxtempl.h

; 1133 : 	if (nIndex >= m_nCount || nIndex < 0)

  000ac	3b 78 0c	 cmp	 edi, DWORD PTR [eax+12]
  000af	7d 1b		 jge	 SHORT $LN45@DrawReturn
  000b1	85 ff		 test	 edi, edi
  000b3	78 17		 js	 SHORT $LN45@DrawReturn

; 1135 : 
; 1136 : 	CNode* pNode = m_pNodeHead;

  000b5	8b 40 04	 mov	 eax, DWORD PTR [eax+4]
  000b8	89 45 cc	 mov	 DWORD PTR _xPosition$1$[ebp], eax

; 1137 : 	while (nIndex--)

  000bb	74 16		 je	 SHORT $LN41@DrawReturn
  000bd	8b cf		 mov	 ecx, edi
  000bf	90		 npad	 1
$LL42@DrawReturn:

; 1138 : 	{
; 1139 : 		ASSERT(AfxIsValidAddress(pNode, sizeof(CNode)));
; 1140 : 		pNode = pNode->pNext;

  000c0	8b 00		 mov	 eax, DWORD PTR [eax]
  000c2	83 e9 01	 sub	 ecx, 1
  000c5	75 f9		 jne	 SHORT $LL42@DrawReturn
  000c7	89 45 cc	 mov	 DWORD PTR _xPosition$1$[ebp], eax

; 1141 : 	}
; 1142 : 	return (POSITION) pNode;

  000ca	eb 07		 jmp	 SHORT $LN41@DrawReturn
$LN45@DrawReturn:

; 1134 : 		return NULL;  // went too far

  000cc	c7 45 cc 00 00
	00 00		 mov	 DWORD PTR _xPosition$1$[ebp], 0
$LN41@DrawReturn:
; File D:\git\src\IBK\IBK_DRFN\ProjSrc\SrcChartEx\ChartOCX\GraphDraw\FundDraw.cpp

; 474  : 	POSITION yPosition = yPositionPacket->GetnumericDataList()->FindIndex(dataStart);

  000d3	8b 4d b8	 mov	 ecx, DWORD PTR _yPositionPacket$1$[ebp]
  000d6	ff 15 00 00 00
	00		 call	 DWORD PTR __imp_?GetnumericDataList@CPacket@@QAEPAV?$CList@NN@@XZ
; File C:\Program Files (x86)\Microsoft Visual Studio\2019\Community\VC\Tools\MSVC\14.29.30133\atlmfc\include\afxtempl.h

; 1133 : 	if (nIndex >= m_nCount || nIndex < 0)

  000dc	3b 78 0c	 cmp	 edi, DWORD PTR [eax+12]
  000df	7d 18		 jge	 SHORT $LN51@DrawReturn
  000e1	85 ff		 test	 edi, edi
  000e3	78 14		 js	 SHORT $LN51@DrawReturn

; 1135 : 
; 1136 : 	CNode* pNode = m_pNodeHead;

  000e5	8b 40 04	 mov	 eax, DWORD PTR [eax+4]
  000e8	89 45 bc	 mov	 DWORD PTR _yPosition$1$[ebp], eax

; 1137 : 	while (nIndex--)

  000eb	74 11		 je	 SHORT $LN47@DrawReturn
  000ed	8b cf		 mov	 ecx, edi
  000ef	90		 npad	 1
$LL48@DrawReturn:

; 1138 : 	{
; 1139 : 		ASSERT(AfxIsValidAddress(pNode, sizeof(CNode)));
; 1140 : 		pNode = pNode->pNext;

  000f0	8b 00		 mov	 eax, DWORD PTR [eax]
  000f2	83 e9 01	 sub	 ecx, 1
  000f5	75 f9		 jne	 SHORT $LL48@DrawReturn

; 1141 : 	}
; 1142 : 	return (POSITION) pNode;

  000f7	eb 02		 jmp	 SHORT $LN156@DrawReturn
$LN51@DrawReturn:

; 1134 : 		return NULL;  // went too far

  000f9	33 c0		 xor	 eax, eax
$LN156@DrawReturn:
; File D:\git\src\IBK\IBK_DRFN\ProjSrc\SrcChartEx\ChartOCX\GraphDraw\FundDraw.cpp

; 475  : 	if(partPosition == NULL || xPosition == NULL || yPosition == NULL)

  000fb	89 45 bc	 mov	 DWORD PTR _yPosition$1$[ebp], eax
$LN47@DrawReturn:
  000fe	83 7d c8 00	 cmp	 DWORD PTR _partPosition$1$[ebp], 0
  00102	0f 84 1f 04 00
	00		 je	 $LN12@DrawReturn
  00108	83 7d cc 00	 cmp	 DWORD PTR _xPosition$1$[ebp], 0
  0010c	0f 84 15 04 00
	00		 je	 $LN12@DrawReturn
  00112	85 c0		 test	 eax, eax
  00114	0f 84 0d 04 00
	00		 je	 $LN12@DrawReturn

; 476  : 		return false;
; 477  : 	
; 478  : 	CBrush FBrush(graphColor.GetColor2());

  0011a	8b 7d ac	 mov	 edi, DWORD PTR _graphColor$GSCopy$1$[ebp]
  0011d	8b cf		 mov	 ecx, edi
  0011f	ff 15 00 00 00
	00		 call	 DWORD PTR __imp_?GetColor2@CGraphColor@@QBEKXZ
  00125	50		 push	 eax
  00126	8d 4d 98	 lea	 ecx, DWORD PTR _FBrush$[ebp]
  00129	e8 00 00 00 00	 call	 ??0CBrush@@QAE@K@Z	; CBrush::CBrush

; 479  : 	CBrush UBrush(graphColor.GetColor1());

  0012e	8b cf		 mov	 ecx, edi
  00130	c7 45 fc 00 00
	00 00		 mov	 DWORD PTR __$EHRec$[ebp+8], 0
  00137	ff 15 00 00 00
	00		 call	 DWORD PTR __imp_?GetColor1@CGraphColor@@QBEKXZ
  0013d	50		 push	 eax
  0013e	8d 4d 88	 lea	 ecx, DWORD PTR _UBrush$[ebp]
  00141	e8 00 00 00 00	 call	 ??0CBrush@@QAE@K@Z	; CBrush::CBrush

; 480  : 	CBrush BBrush(graphColor.GetColor4());

  00146	8b cf		 mov	 ecx, edi
  00148	c6 45 fc 01	 mov	 BYTE PTR __$EHRec$[ebp+8], 1
  0014c	ff 15 00 00 00
	00		 call	 DWORD PTR __imp_?GetColor4@CGraphColor@@QBEKXZ
  00152	50		 push	 eax
  00153	8d 4d 90	 lea	 ecx, DWORD PTR _BBrush$[ebp]
  00156	e8 00 00 00 00	 call	 ??0CBrush@@QAE@K@Z	; CBrush::CBrush
; File C:\Program Files (x86)\Microsoft Visual Studio\2019\Community\VC\Tools\MSVC\14.29.30133\atlmfc\include\afxwin1.inl

; 70   : 	{ m_hObject = NULL; }

  0015b	c7 45 a4 00 00
	00 00		 mov	 DWORD PTR _gridPen$[ebp+4], 0

; 104  : 	{ }

  00162	c7 45 a0 00 00
	00 00		 mov	 DWORD PTR _gridPen$[ebp], OFFSET ??_7CPen@@6B@
; File D:\git\src\IBK\IBK_DRFN\ProjSrc\SrcChartEx\ChartOCX\GraphDraw\FundDraw.cpp

; 483  : 	int lineThickness = penThickness.GetThickness1();

  00169	8d 4d 28	 lea	 ecx, DWORD PTR _penThickness$[ebp]
  0016c	c6 45 fc 03	 mov	 BYTE PTR __$EHRec$[ebp+8], 3
  00170	ff 15 00 00 00
	00		 call	 DWORD PTR __imp_?GetThickness1@CPenThickness@@QBEHXZ
; File C:\Program Files (x86)\Microsoft Visual Studio\2019\Community\VC\Tools\MSVC\14.29.30133\atlmfc\include\afxwin1.inl

; 108  : 	{ return Attach(::CreatePen(nPenStyle, nWidth, crColor)); }

  00176	68 c0 c0 c0 00	 push	 12632256		; 00c0c0c0H
  0017b	6a 04		 push	 4
  0017d	6a 06		 push	 6
  0017f	ff 15 00 00 00
	00		 call	 DWORD PTR __imp__CreatePen@12
  00185	50		 push	 eax
  00186	8d 4d a0	 lea	 ecx, DWORD PTR _gridPen$[ebp]
  00189	e8 00 00 00 00	 call	 ?Attach@CGdiObject@@QAEHPAX@Z ; CGdiObject::Attach
; File D:\git\src\IBK\IBK_DRFN\ProjSrc\SrcChartEx\ChartOCX\GraphDraw\FundDraw.cpp

; 489  : 	pOldBrush = (CBrush*)pDC->SelectObject(&FBrush);

  0018e	8d 45 98	 lea	 eax, DWORD PTR _FBrush$[ebp]
  00191	8b ce		 mov	 ecx, esi
  00193	50		 push	 eax
  00194	e8 00 00 00 00	 call	 ?SelectObject@CDC@@QAEPAVCBrush@@PAV2@@Z ; CDC::SelectObject
  00199	89 45 80	 mov	 DWORD PTR _pOldBrush$1$[ebp], eax

; 490  : 	pOldPen = (CPen*)pDC->SelectObject(&gridPen);

  0019c	8b ce		 mov	 ecx, esi
  0019e	8d 45 a0	 lea	 eax, DWORD PTR _gridPen$[ebp]
  001a1	50		 push	 eax
  001a2	e8 00 00 00 00	 call	 ?SelectObject@CDC@@QAEPAVCPen@@PAV2@@Z ; CDC::SelectObject
  001a7	89 85 7c ff ff
	ff		 mov	 DWORD PTR _pOldPen$1$[ebp], eax

; 491  : 
; 492  : 	CRect graphRegion = graphDrawingRegion;

  001ad	8b 45 b4	 mov	 eax, DWORD PTR _graphDrawingRegion$GSCopy$1$[ebp]

; 493  : 	graphRegion.bottom = graphDrawingRegion.bottom;
; 494  : 	graphRegion.left = graphDrawingRegion.left;
; 495  : 	graphRegion.right = graphDrawingRegion.right + MARGIN * 2;

  001b0	8b 70 08	 mov	 esi, DWORD PTR [eax+8]
  001b3	0f 10 00	 movups	 xmm0, XMMWORD PTR [eax]
  001b6	8b 10		 mov	 edx, DWORD PTR [eax]
  001b8	8b 78 0c	 mov	 edi, DWORD PTR [eax+12]

; 496  : 	double height = graphRegion.Height();
; 497  : 	double width = graphRegion.Width();
; 498  : 
; 499  : 	//grid line   width .
; 500  : 	width = (graphRegion.Width() - 5 * lineThickness) / 5;

  001bb	b8 67 66 66 66	 mov	 eax, 1717986919		; 66666667H
  001c0	8d 4e 08	 lea	 ecx, DWORD PTR [esi+8]
  001c3	2b f2		 sub	 esi, edx
  001c5	0f 11 45 d0	 movups	 XMMWORD PTR _graphRegion$[ebp], xmm0
  001c9	89 55 d0	 mov	 DWORD PTR _graphRegion$[ebp], edx
  001cc	83 ee 0c	 sub	 esi, 12			; 0000000cH
  001cf	f7 ee		 imul	 esi

; 501  : 	height = (graphRegion.Height() - 5 * lineThickness) / 5;
; 502  : 	int count = 0;
; 503  : 	for(int i = dataStart; i <= xPositionPacket->GetCount(); i++){

  001d1	8b 75 b0	 mov	 esi, DWORD PTR _xPositionPacket$1$[ebp]
  001d4	d1 fa		 sar	 edx, 1
  001d6	8b c2		 mov	 eax, edx
  001d8	89 7d dc	 mov	 DWORD PTR _graphRegion$[ebp+12], edi
  001db	2b 7d d4	 sub	 edi, DWORD PTR _graphRegion$[ebp+4]
  001de	c1 e8 1f	 shr	 eax, 31			; 0000001fH
  001e1	83 ef 14	 sub	 edi, 20			; 00000014H
  001e4	03 c2		 add	 eax, edx
  001e6	89 4d d8	 mov	 DWORD PTR _graphRegion$[ebp+8], ecx
  001e9	89 45 ac	 mov	 DWORD PTR tv1141[ebp], eax
  001ec	8b ce		 mov	 ecx, esi
  001ee	b8 67 66 66 66	 mov	 eax, 1717986919		; 66666667H
  001f3	f7 ef		 imul	 edi
  001f5	d1 fa		 sar	 edx, 1
  001f7	8b c2		 mov	 eax, edx
  001f9	c1 e8 1f	 shr	 eax, 31			; 0000001fH
  001fc	03 c2		 add	 eax, edx
  001fe	89 45 b4	 mov	 DWORD PTR tv1140[ebp], eax
  00201	8b 06		 mov	 eax, DWORD PTR [esi]
  00203	8b 40 14	 mov	 eax, DWORD PTR [eax+20]
  00206	ff d0		 call	 eax
  00208	39 45 18	 cmp	 DWORD PTR _dataStart$[ebp], eax
  0020b	0f 8f 68 01 00
	00		 jg	 $LN153@DrawReturn
  00211	8b 7d c0	 mov	 edi, DWORD PTR _pDC$GSCopy$1$[ebp]
$LL4@DrawReturn:

; 504  : 		if(yPosition == NULL || xPosition == NULL || partPosition == NULL)

  00214	83 7d bc 00	 cmp	 DWORD PTR _yPosition$1$[ebp], 0
  00218	0f 84 5b 01 00
	00		 je	 $LN153@DrawReturn
  0021e	83 7d cc 00	 cmp	 DWORD PTR _xPosition$1$[ebp], 0
  00222	0f 84 51 01 00
	00		 je	 $LN153@DrawReturn
  00228	83 7d c8 00	 cmp	 DWORD PTR _partPosition$1$[ebp], 0
  0022c	0f 84 47 01 00
	00		 je	 $LN153@DrawReturn

; 509  : 		CPoint dataPt = CDataConversion::GetVerticalPoint(graphRegion, (double)gridMin, (double)gridCount, (double)gridMin, (double)gridCount, yPositionPacket->GetnumericDataList()->GetNext(yPosition), xPositionPacket->GetnumericDataList()->GetNext(xPosition));

  00232	f2 0f 10 05 00
	00 00 00	 movsd	 xmm0, QWORD PTR __real@4014000000000000
  0023a	0f 57 c9	 xorps	 xmm1, xmm1
  0023d	8b ce		 mov	 ecx, esi
  0023f	f2 0f 11 85 5c
	ff ff ff	 movsd	 QWORD PTR $T3[ebp], xmm0
  00247	f2 0f 11 8d 54
	ff ff ff	 movsd	 QWORD PTR $T2[ebp], xmm1
  0024f	f2 0f 11 85 74
	ff ff ff	 movsd	 QWORD PTR $T6[ebp], xmm0
  00257	f2 0f 11 8d 6c
	ff ff ff	 movsd	 QWORD PTR $T5[ebp], xmm1
  0025f	ff 15 00 00 00
	00		 call	 DWORD PTR __imp_?GetnumericDataList@CPacket@@QAEPAV?$CList@NN@@XZ
; File C:\Program Files (x86)\Microsoft Visual Studio\2019\Community\VC\Tools\MSVC\14.29.30133\atlmfc\include\afxtempl.h

; 811  : 	{ CNode* pNode = (CNode*) rPosition;

  00265	8b 45 cc	 mov	 eax, DWORD PTR _xPosition$1$[ebp]
  00268	8b f0		 mov	 esi, eax
; File D:\git\src\IBK\IBK_DRFN\ProjSrc\SrcChartEx\ChartOCX\GraphDraw\FundDraw.cpp

; 509  : 		CPoint dataPt = CDataConversion::GetVerticalPoint(graphRegion, (double)gridMin, (double)gridCount, (double)gridMin, (double)gridCount, yPositionPacket->GetnumericDataList()->GetNext(yPosition), xPositionPacket->GetnumericDataList()->GetNext(xPosition));

  0026a	8b 4d b8	 mov	 ecx, DWORD PTR _yPositionPacket$1$[ebp]
; File C:\Program Files (x86)\Microsoft Visual Studio\2019\Community\VC\Tools\MSVC\14.29.30133\atlmfc\include\afxtempl.h

; 813  : 		rPosition = (POSITION) pNode->pNext;

  0026d	8b 00		 mov	 eax, DWORD PTR [eax]
  0026f	89 45 cc	 mov	 DWORD PTR _xPosition$1$[ebp], eax
; File D:\git\src\IBK\IBK_DRFN\ProjSrc\SrcChartEx\ChartOCX\GraphDraw\FundDraw.cpp

; 509  : 		CPoint dataPt = CDataConversion::GetVerticalPoint(graphRegion, (double)gridMin, (double)gridCount, (double)gridMin, (double)gridCount, yPositionPacket->GetnumericDataList()->GetNext(yPosition), xPositionPacket->GetnumericDataList()->GetNext(xPosition));

  00272	ff 15 00 00 00
	00		 call	 DWORD PTR __imp_?GetnumericDataList@CPacket@@QAEPAV?$CList@NN@@XZ
; File C:\Program Files (x86)\Microsoft Visual Studio\2019\Community\VC\Tools\MSVC\14.29.30133\atlmfc\include\afxtempl.h

; 811  : 	{ CNode* pNode = (CNode*) rPosition;

  00278	8b 45 bc	 mov	 eax, DWORD PTR _yPosition$1$[ebp]
  0027b	8b c8		 mov	 ecx, eax

; 813  : 		rPosition = (POSITION) pNode->pNext;

  0027d	8b 00		 mov	 eax, DWORD PTR [eax]
  0027f	89 45 bc	 mov	 DWORD PTR _yPosition$1$[ebp], eax

; 814  : 		return pNode->data; }

  00282	8d 46 08	 lea	 eax, DWORD PTR [esi+8]
; File D:\git\src\IBK\IBK_DRFN\ProjSrc\SrcChartEx\ChartOCX\GraphDraw\FundDraw.cpp

; 509  : 		CPoint dataPt = CDataConversion::GetVerticalPoint(graphRegion, (double)gridMin, (double)gridCount, (double)gridMin, (double)gridCount, yPositionPacket->GetnumericDataList()->GetNext(yPosition), xPositionPacket->GetnumericDataList()->GetNext(xPosition));

  00285	50		 push	 eax
; File C:\Program Files (x86)\Microsoft Visual Studio\2019\Community\VC\Tools\MSVC\14.29.30133\atlmfc\include\afxtempl.h

; 814  : 		return pNode->data; }

  00286	8d 41 08	 lea	 eax, DWORD PTR [ecx+8]
; File D:\git\src\IBK\IBK_DRFN\ProjSrc\SrcChartEx\ChartOCX\GraphDraw\FundDraw.cpp

; 509  : 		CPoint dataPt = CDataConversion::GetVerticalPoint(graphRegion, (double)gridMin, (double)gridCount, (double)gridMin, (double)gridCount, yPositionPacket->GetnumericDataList()->GetNext(yPosition), xPositionPacket->GetnumericDataList()->GetNext(xPosition));

  00289	50		 push	 eax
  0028a	8d 85 5c ff ff
	ff		 lea	 eax, DWORD PTR $T3[ebp]
  00290	50		 push	 eax
  00291	8d 85 54 ff ff
	ff		 lea	 eax, DWORD PTR $T2[ebp]
  00297	50		 push	 eax
  00298	8d 85 74 ff ff
	ff		 lea	 eax, DWORD PTR $T6[ebp]
  0029e	50		 push	 eax
  0029f	8d 85 6c ff ff
	ff		 lea	 eax, DWORD PTR $T5[ebp]
  002a5	50		 push	 eax
  002a6	8d 45 d0	 lea	 eax, DWORD PTR _graphRegion$[ebp]
  002a9	50		 push	 eax
  002aa	8d 85 64 ff ff
	ff		 lea	 eax, DWORD PTR _dataPt$4[ebp]
  002b0	50		 push	 eax
  002b1	e8 00 00 00 00	 call	 ?GetVerticalPoint@CDataConversion@@SA?AVCPoint@@ABVCRect@@ABN11111@Z ; CDataConversion::GetVerticalPoint
; File C:\Program Files (x86)\Microsoft Visual Studio\2019\Community\VC\Tools\MSVC\14.29.30133\atlmfc\include\atltypes.h

; 540  : 	left = l;

  002b6	8b 8d 64 ff ff
	ff		 mov	 ecx, DWORD PTR _dataPt$4[ebp]
; File D:\git\src\IBK\IBK_DRFN\ProjSrc\SrcChartEx\ChartOCX\GraphDraw\FundDraw.cpp

; 509  : 		CPoint dataPt = CDataConversion::GetVerticalPoint(graphRegion, (double)gridMin, (double)gridCount, (double)gridMin, (double)gridCount, yPositionPacket->GetnumericDataList()->GetNext(yPosition), xPositionPacket->GetnumericDataList()->GetNext(xPosition));

  002bc	83 c4 20	 add	 esp, 32			; 00000020H

; 511  : 		CRect rect(dataPt.x - int(width) - 1, dataPt.y + int(height), dataPt.x, dataPt.y);

  002bf	8b b5 68 ff ff
	ff		 mov	 esi, DWORD PTR _dataPt$4[ebp+4]
; File C:\Program Files (x86)\Microsoft Visual Studio\2019\Community\VC\Tools\MSVC\14.29.30133\atlmfc\include\atltypes.h

; 540  : 	left = l;

  002c5	8b c1		 mov	 eax, ecx
  002c7	2b 45 ac	 sub	 eax, DWORD PTR tv1141[ebp]
; File D:\git\src\IBK\IBK_DRFN\ProjSrc\SrcChartEx\ChartOCX\GraphDraw\FundDraw.cpp

; 511  : 		CRect rect(dataPt.x - int(width) - 1, dataPt.y + int(height), dataPt.x, dataPt.y);

  002ca	8b 55 b4	 mov	 edx, DWORD PTR tv1140[ebp]
  002cd	48		 dec	 eax
  002ce	03 d6		 add	 edx, esi
; File C:\Program Files (x86)\Microsoft Visual Studio\2019\Community\VC\Tools\MSVC\14.29.30133\atlmfc\include\atltypes.h

; 542  : 	right = r;

  002d0	89 4d e8	 mov	 DWORD PTR _rect$8[ebp+8], ecx
; File D:\git\src\IBK\IBK_DRFN\ProjSrc\SrcChartEx\ChartOCX\GraphDraw\FundDraw.cpp

; 512  : 		CString strpart = partPacket->GetstrDataList()->GetNext(partPosition);

  002d3	8b 4d a8	 mov	 ecx, DWORD PTR _partPacket$1$[ebp]
; File C:\Program Files (x86)\Microsoft Visual Studio\2019\Community\VC\Tools\MSVC\14.29.30133\atlmfc\include\atltypes.h

; 540  : 	left = l;

  002d6	89 45 e0	 mov	 DWORD PTR _rect$8[ebp], eax

; 541  : 	top = t;

  002d9	89 55 e4	 mov	 DWORD PTR _rect$8[ebp+4], edx

; 543  : 	bottom = b;

  002dc	89 75 ec	 mov	 DWORD PTR _rect$8[ebp+12], esi
; File D:\git\src\IBK\IBK_DRFN\ProjSrc\SrcChartEx\ChartOCX\GraphDraw\FundDraw.cpp

; 512  : 		CString strpart = partPacket->GetstrDataList()->GetNext(partPosition);

  002df	ff 15 00 00 00
	00		 call	 DWORD PTR __imp_?GetstrDataList@CPacket@@QAEPAV?$CList@V?$CStringT@DV?$StrTraitMFC_DLL@DV?$ChTraitsCRT@D@ATL@@@@@ATL@@V12@@@XZ
; File C:\Program Files (x86)\Microsoft Visual Studio\2019\Community\VC\Tools\MSVC\14.29.30133\atlmfc\include\afxtempl.h

; 811  : 	{ CNode* pNode = (CNode*) rPosition;

  002e5	8b 4d c8	 mov	 ecx, DWORD PTR _partPosition$1$[ebp]
  002e8	8b c1		 mov	 eax, ecx

; 814  : 		return pNode->data; }

  002ea	83 c0 08	 add	 eax, 8
; File D:\git\src\IBK\IBK_DRFN\ProjSrc\SrcChartEx\ChartOCX\GraphDraw\FundDraw.cpp

; 512  : 		CString strpart = partPacket->GetstrDataList()->GetNext(partPosition);

  002ed	50		 push	 eax
; File C:\Program Files (x86)\Microsoft Visual Studio\2019\Community\VC\Tools\MSVC\14.29.30133\atlmfc\include\afxtempl.h

; 813  : 		rPosition = (POSITION) pNode->pNext;

  002ee	8b 09		 mov	 ecx, DWORD PTR [ecx]
  002f0	89 4d c8	 mov	 DWORD PTR _partPosition$1$[ebp], ecx
; File D:\git\src\IBK\IBK_DRFN\ProjSrc\SrcChartEx\ChartOCX\GraphDraw\FundDraw.cpp

; 512  : 		CString strpart = partPacket->GetstrDataList()->GetNext(partPosition);

  002f3	8d 4d c4	 lea	 ecx, DWORD PTR _strpart$7[ebp]
  002f6	ff 15 00 00 00
	00		 call	 DWORD PTR __imp_??0?$CStringT@DV?$StrTraitMFC_DLL@DV?$ChTraitsCRT@D@ATL@@@@@ATL@@QAE@ABV01@@Z
; File C:\Program Files (x86)\Microsoft Visual Studio\2019\Community\VC\Tools\MSVC\14.29.30133\atlmfc\include\cstringt.h

; 2486 : 		return(str1.Compare(psz2) == 0);

  002fc	68 00 00 00 00	 push	 OFFSET ??_C@_01BIAFAFID@F@
  00301	8d 4d c4	 lea	 ecx, DWORD PTR _strpart$7[ebp]
; File D:\git\src\IBK\IBK_DRFN\ProjSrc\SrcChartEx\ChartOCX\GraphDraw\FundDraw.cpp

; 512  : 		CString strpart = partPacket->GetstrDataList()->GetNext(partPosition);

  00304	c6 45 fc 04	 mov	 BYTE PTR __$EHRec$[ebp+8], 4
; File C:\Program Files (x86)\Microsoft Visual Studio\2019\Community\VC\Tools\MSVC\14.29.30133\atlmfc\include\cstringt.h

; 2486 : 		return(str1.Compare(psz2) == 0);

  00308	ff 15 00 00 00
	00		 call	 DWORD PTR __imp_?Compare@?$CStringT@DV?$StrTraitMFC_DLL@DV?$ChTraitsCRT@D@ATL@@@@@ATL@@QBEHPBD@Z
  0030e	85 c0		 test	 eax, eax
; File D:\git\src\IBK\IBK_DRFN\ProjSrc\SrcChartEx\ChartOCX\GraphDraw\FundDraw.cpp

; 514  : 		if(strpart == "F")

  00310	75 05		 jne	 SHORT $LN18@DrawReturn
; File C:\Program Files (x86)\Microsoft Visual Studio\2019\Community\VC\Tools\MSVC\14.29.30133\atlmfc\include\afxwin1.inl

; 476  : 	{ ASSERT(m_hDC != NULL); ::FillRect(m_hDC, lpRect, (HBRUSH)pBrush->GetSafeHandle()); }

  00312	ff 75 9c	 push	 DWORD PTR _FBrush$[ebp+4]
; File D:\git\src\IBK\IBK_DRFN\ProjSrc\SrcChartEx\ChartOCX\GraphDraw\FundDraw.cpp

; 515  : 			pDC->FillRect(rect, &FBrush);

  00315	eb 2c		 jmp	 SHORT $LN157@DrawReturn
$LN18@DrawReturn:
; File C:\Program Files (x86)\Microsoft Visual Studio\2019\Community\VC\Tools\MSVC\14.29.30133\atlmfc\include\cstringt.h

; 2486 : 		return(str1.Compare(psz2) == 0);

  00317	68 00 00 00 00	 push	 OFFSET ??_C@_01HJOKEEBB@U@
  0031c	8d 4d c4	 lea	 ecx, DWORD PTR _strpart$7[ebp]
  0031f	ff 15 00 00 00
	00		 call	 DWORD PTR __imp_?Compare@?$CStringT@DV?$StrTraitMFC_DLL@DV?$ChTraitsCRT@D@ATL@@@@@ATL@@QBEHPBD@Z
  00325	85 c0		 test	 eax, eax
; File D:\git\src\IBK\IBK_DRFN\ProjSrc\SrcChartEx\ChartOCX\GraphDraw\FundDraw.cpp

; 516  : 		else if(strpart == "U")

  00327	75 05		 jne	 SHORT $LN20@DrawReturn
; File C:\Program Files (x86)\Microsoft Visual Studio\2019\Community\VC\Tools\MSVC\14.29.30133\atlmfc\include\afxwin1.inl

; 476  : 	{ ASSERT(m_hDC != NULL); ::FillRect(m_hDC, lpRect, (HBRUSH)pBrush->GetSafeHandle()); }

  00329	ff 75 8c	 push	 DWORD PTR _UBrush$[ebp+4]
; File D:\git\src\IBK\IBK_DRFN\ProjSrc\SrcChartEx\ChartOCX\GraphDraw\FundDraw.cpp

; 517  : 			pDC->FillRect(rect, &UBrush);

  0032c	eb 15		 jmp	 SHORT $LN157@DrawReturn
$LN20@DrawReturn:
; File C:\Program Files (x86)\Microsoft Visual Studio\2019\Community\VC\Tools\MSVC\14.29.30133\atlmfc\include\cstringt.h

; 2486 : 		return(str1.Compare(psz2) == 0);

  0032e	68 00 00 00 00	 push	 OFFSET ??_C@_01HMGJMAIH@B@
  00333	8d 4d c4	 lea	 ecx, DWORD PTR _strpart$7[ebp]
  00336	ff 15 00 00 00
	00		 call	 DWORD PTR __imp_?Compare@?$CStringT@DV?$StrTraitMFC_DLL@DV?$ChTraitsCRT@D@ATL@@@@@ATL@@QBEHPBD@Z
  0033c	85 c0		 test	 eax, eax
; File D:\git\src\IBK\IBK_DRFN\ProjSrc\SrcChartEx\ChartOCX\GraphDraw\FundDraw.cpp

; 518  : 		else if(strpart == "B")

  0033e	75 10		 jne	 SHORT $LN22@DrawReturn
; File C:\Program Files (x86)\Microsoft Visual Studio\2019\Community\VC\Tools\MSVC\14.29.30133\atlmfc\include\afxwin1.inl

; 476  : 	{ ASSERT(m_hDC != NULL); ::FillRect(m_hDC, lpRect, (HBRUSH)pBrush->GetSafeHandle()); }

  00340	ff 75 94	 push	 DWORD PTR _BBrush$[ebp+4]
$LN157@DrawReturn:
; File D:\git\src\IBK\IBK_DRFN\ProjSrc\SrcChartEx\ChartOCX\GraphDraw\FundDraw.cpp

; 520  : 	}

  00343	8d 45 e0	 lea	 eax, DWORD PTR _rect$8[ebp]
  00346	50		 push	 eax
  00347	ff 77 04	 push	 DWORD PTR [edi+4]
  0034a	ff 15 00 00 00
	00		 call	 DWORD PTR __imp__FillRect@12
$LN22@DrawReturn:
  00350	8d 4d c4	 lea	 ecx, DWORD PTR _strpart$7[ebp]
  00353	c6 45 fc 03	 mov	 BYTE PTR __$EHRec$[ebp+8], 3
  00357	ff 15 00 00 00
	00		 call	 DWORD PTR __imp_??1?$CStringT@DV?$StrTraitMFC_DLL@DV?$ChTraitsCRT@D@ATL@@@@@ATL@@QAE@XZ
  0035d	8b 4d b0	 mov	 ecx, DWORD PTR _xPositionPacket$1$[ebp]
  00360	8b 75 18	 mov	 esi, DWORD PTR _dataStart$[ebp]
  00363	46		 inc	 esi
  00364	89 75 18	 mov	 DWORD PTR _dataStart$[ebp], esi
  00367	8b 01		 mov	 eax, DWORD PTR [ecx]
  00369	8b 40 14	 mov	 eax, DWORD PTR [eax+20]
  0036c	ff d0		 call	 eax
  0036e	3b f0		 cmp	 esi, eax
  00370	8b 75 b0	 mov	 esi, DWORD PTR _xPositionPacket$1$[ebp]
  00373	0f 8e 9b fe ff
	ff		 jle	 $LL4@DrawReturn
$LN153@DrawReturn:
; File C:\Program Files (x86)\Microsoft Visual Studio\2019\Community\VC\Tools\MSVC\14.29.30133\atlmfc\include\atltypes.h

; 581  : 	return bottom - top;

  00379	8b 45 dc	 mov	 eax, DWORD PTR _graphRegion$[ebp+12]
  0037c	2b 45 d4	 sub	 eax, DWORD PTR _graphRegion$[ebp+4]
; File D:\git\src\IBK\IBK_DRFN\ProjSrc\SrcChartEx\ChartOCX\GraphDraw\FundDraw.cpp

; 525  : 	pDC->SelectObject(GetStockObject(NULL_BRUSH));

  0037f	6a 05		 push	 5
  00381	66 0f 6e c0	 movd	 xmm0, eax
  00385	f3 0f e6 c0	 cvtdq2pd xmm0, xmm0
; File C:\Program Files (x86)\Microsoft Visual Studio\2019\Community\VC\Tools\MSVC\14.29.30133\atlmfc\include\atltypes.h

; 576  : 	return right - left;

  00389	8b 45 d8	 mov	 eax, DWORD PTR _graphRegion$[ebp+8]
  0038c	2b 45 d0	 sub	 eax, DWORD PTR _graphRegion$[ebp]
; File D:\git\src\IBK\IBK_DRFN\ProjSrc\SrcChartEx\ChartOCX\GraphDraw\FundDraw.cpp

; 522  : 	height = double (double(graphRegion.Height())/5);

  0038f	f2 0f 5e 05 00
	00 00 00	 divsd	 xmm0, QWORD PTR __real@4014000000000000
  00397	f2 0f 11 85 74
	ff ff ff	 movsd	 QWORD PTR _height$1$[ebp], xmm0
  0039f	66 0f 6e c0	 movd	 xmm0, eax

; 523  : 	width = double (double(graphRegion.Width())/5);

  003a3	f3 0f e6 c0	 cvtdq2pd xmm0, xmm0
  003a7	f2 0f 5e 05 00
	00 00 00	 divsd	 xmm0, QWORD PTR __real@4014000000000000
  003af	f2 0f 11 85 6c
	ff ff ff	 movsd	 QWORD PTR _width$1$[ebp], xmm0

; 525  : 	pDC->SelectObject(GetStockObject(NULL_BRUSH));

  003b7	ff 15 00 00 00
	00		 call	 DWORD PTR __imp__GetStockObject@4
; File C:\Program Files (x86)\Microsoft Visual Studio\2019\Community\VC\Tools\MSVC\14.29.30133\atlmfc\include\afxwin1.inl

; 366  : 		return (hObject != NULL) ? ::SelectObject(m_hDC, hObject) : NULL; }

  003bd	8b 7d c0	 mov	 edi, DWORD PTR _pDC$GSCopy$1$[ebp]
  003c0	85 c0		 test	 eax, eax
  003c2	74 0a		 je	 SHORT $LN105@DrawReturn
  003c4	50		 push	 eax
  003c5	ff 77 04	 push	 DWORD PTR [edi+4]
  003c8	ff 15 00 00 00
	00		 call	 DWORD PTR __imp__SelectObject@8
$LN105@DrawReturn:
; File D:\git\src\IBK\IBK_DRFN\ProjSrc\SrcChartEx\ChartOCX\GraphDraw\FundDraw.cpp

; 526  : 	for(int k = 0; k < 5 ; k++){ 

  003ce	33 c9		 xor	 ecx, ecx
  003d0	b8 04 00 00 00	 mov	 eax, 4
  003d5	89 4d b8	 mov	 DWORD PTR _k$1$[ebp], ecx
  003d8	89 45 c0	 mov	 DWORD PTR tv1130[ebp], eax
  003db	0f 1f 44 00 00	 npad	 5
$LL7@DrawReturn:

; 527  : 		double plusWidth = width * k;
; 528  : 		double minusWidth = width * (4 - k) - 4;

  003e0	66 0f 6e c0	 movd	 xmm0, eax
  003e4	f3 0f e6 c0	 cvtdq2pd xmm0, xmm0
  003e8	66 0f 6e c9	 movd	 xmm1, ecx
  003ec	33 c9		 xor	 ecx, ecx
  003ee	f2 0f 59 85 6c
	ff ff ff	 mulsd	 xmm0, QWORD PTR _width$1$[ebp]
  003f6	f3 0f e6 c9	 cvtdq2pd xmm1, xmm1
  003fa	f2 0f 5c 05 00
	00 00 00	 subsd	 xmm0, QWORD PTR __real@4010000000000000
  00402	f2 0f 59 8d 6c
	ff ff ff	 mulsd	 xmm1, QWORD PTR _width$1$[ebp]
  0040a	f2 0f 2c d0	 cvttsd2si edx, xmm0
  0040e	f2 0f 2c c1	 cvttsd2si eax, xmm1
  00412	89 55 a8	 mov	 DWORD PTR tv1134[ebp], edx
  00415	89 45 b4	 mov	 DWORD PTR tv1135[ebp], eax
  00418	0f 1f 84 00 00
	00 00 00	 npad	 8
$LL10@DrawReturn:

; 531  : 			double plusHeight = height * (j + 1);
; 532  : 			DrawBox(pDC, CRect(graphRegion.left + int(plusWidth), graphRegion.top + int(Height), graphRegion.right - (graphRegion.left + int(minusWidth)), graphRegion.top + int(plusHeight)));

  00420	03 45 d0	 add	 eax, DWORD PTR _graphRegion$[ebp]
  00423	8d 71 01	 lea	 esi, DWORD PTR [ecx+1]
  00426	66 0f 6e c1	 movd	 xmm0, ecx

; 1289 : 	CDraw::DrawRectangle(pDC, rect);

  0042a	83 ec 10	 sub	 esp, 16			; 00000010H

; 530  : 			double Height = height * j;

  0042d	f3 0f e6 c0	 cvtdq2pd xmm0, xmm0

; 531  : 			double plusHeight = height * (j + 1);
; 532  : 			DrawBox(pDC, CRect(graphRegion.left + int(plusWidth), graphRegion.top + int(Height), graphRegion.right - (graphRegion.left + int(minusWidth)), graphRegion.top + int(plusHeight)));

  00431	89 45 e0	 mov	 DWORD PTR _rect$[ebp], eax

; 1289 : 	CDraw::DrawRectangle(pDC, rect);

  00434	8b 4d 84	 mov	 ecx, DWORD PTR _this$GSCopy$1$[ebp]

; 530  : 			double Height = height * j;

  00437	f2 0f 59 85 74
	ff ff ff	 mulsd	 xmm0, QWORD PTR _height$1$[ebp]

; 531  : 			double plusHeight = height * (j + 1);
; 532  : 			DrawBox(pDC, CRect(graphRegion.left + int(plusWidth), graphRegion.top + int(Height), graphRegion.right - (graphRegion.left + int(minusWidth)), graphRegion.top + int(plusHeight)));

  0043f	f2 0f 2c c0	 cvttsd2si eax, xmm0
  00443	66 0f 6e c6	 movd	 xmm0, esi
  00447	03 45 d4	 add	 eax, DWORD PTR _graphRegion$[ebp+4]
  0044a	f3 0f e6 c0	 cvtdq2pd xmm0, xmm0
  0044e	89 45 e4	 mov	 DWORD PTR _rect$[ebp+4], eax
  00451	8b 45 d8	 mov	 eax, DWORD PTR _graphRegion$[ebp+8]
  00454	2b 45 a8	 sub	 eax, DWORD PTR tv1134[ebp]
  00457	2b 45 d0	 sub	 eax, DWORD PTR _graphRegion$[ebp]
  0045a	89 45 e8	 mov	 DWORD PTR _rect$[ebp+8], eax
  0045d	f2 0f 59 85 74
	ff ff ff	 mulsd	 xmm0, QWORD PTR _height$1$[ebp]
  00465	f2 0f 2c c0	 cvttsd2si eax, xmm0
  00469	03 45 d4	 add	 eax, DWORD PTR _graphRegion$[ebp+4]
  0046c	89 45 ec	 mov	 DWORD PTR _rect$[ebp+12], eax

; 1289 : 	CDraw::DrawRectangle(pDC, rect);

  0046f	8b c4		 mov	 eax, esp
  00471	0f 10 45 e0	 movups	 xmm0, XMMWORD PTR _rect$[ebp]
  00475	57		 push	 edi
  00476	0f 11 00	 movups	 XMMWORD PTR [eax], xmm0
  00479	e8 00 00 00 00	 call	 ?DrawRectangle@CDraw@@IAEXPAVCDC@@VCRect@@@Z ; CDraw::DrawRectangle
; File C:\Program Files (x86)\Microsoft Visual Studio\2019\Community\VC\Tools\MSVC\14.29.30133\atlmfc\include\afxwin1.inl

; 510  : 	{ ASSERT(m_hDC != NULL); return ::DrawEdge(m_hDC, lpRect, nEdge, nFlags); }

  0047e	6a 0f		 push	 15			; 0000000fH
  00480	6a 0a		 push	 10			; 0000000aH
  00482	8d 45 e0	 lea	 eax, DWORD PTR _rect$[ebp]
  00485	50		 push	 eax
  00486	ff 77 04	 push	 DWORD PTR [edi+4]
  00489	ff 15 00 00 00
	00		 call	 DWORD PTR __imp__DrawEdge@16
; File D:\git\src\IBK\IBK_DRFN\ProjSrc\SrcChartEx\ChartOCX\GraphDraw\FundDraw.cpp

; 529  : 		for(int j = 0; j < 5 ; j++){ 

  0048f	8b 45 b4	 mov	 eax, DWORD PTR tv1135[ebp]
  00492	8b ce		 mov	 ecx, esi
  00494	83 f9 05	 cmp	 ecx, 5
  00497	7c 87		 jl	 SHORT $LL10@DrawReturn

; 526  : 	for(int k = 0; k < 5 ; k++){ 

  00499	8b 45 c0	 mov	 eax, DWORD PTR tv1130[ebp]
  0049c	8b 4d b8	 mov	 ecx, DWORD PTR _k$1$[ebp]
  0049f	48		 dec	 eax
  004a0	41		 inc	 ecx
  004a1	89 45 c0	 mov	 DWORD PTR tv1130[ebp], eax
  004a4	89 4d b8	 mov	 DWORD PTR _k$1$[ebp], ecx
  004a7	83 f8 ff	 cmp	 eax, -1
  004aa	0f 8f 30 ff ff
	ff		 jg	 $LL7@DrawReturn

; 533  : 		}
; 534  : 	}
; 535  : 	pDC->SelectObject(pOldBrush);

  004b0	ff 75 80	 push	 DWORD PTR _pOldBrush$1$[ebp]
  004b3	8b cf		 mov	 ecx, edi
  004b5	e8 00 00 00 00	 call	 ?SelectObject@CDC@@QAEPAVCBrush@@PAV2@@Z ; CDC::SelectObject

; 536  : 	pDC->SelectObject(pOldPen);

  004ba	ff b5 7c ff ff
	ff		 push	 DWORD PTR _pOldPen$1$[ebp]
  004c0	8b cf		 mov	 ecx, edi
  004c2	e8 00 00 00 00	 call	 ?SelectObject@CDC@@QAEPAVCPen@@PAV2@@Z ; CDC::SelectObject

; 537  : 
; 538  : 	FBrush.DeleteObject();

  004c7	8d 4d 98	 lea	 ecx, DWORD PTR _FBrush$[ebp]
  004ca	e8 00 00 00 00	 call	 ?DeleteObject@CGdiObject@@QAEHXZ ; CGdiObject::DeleteObject

; 539  : 	UBrush.DeleteObject();

  004cf	8d 4d 88	 lea	 ecx, DWORD PTR _UBrush$[ebp]
  004d2	e8 00 00 00 00	 call	 ?DeleteObject@CGdiObject@@QAEHXZ ; CGdiObject::DeleteObject

; 540  : 	BBrush.DeleteObject();

  004d7	8d 4d 90	 lea	 ecx, DWORD PTR _BBrush$[ebp]
  004da	e8 00 00 00 00	 call	 ?DeleteObject@CGdiObject@@QAEHXZ ; CGdiObject::DeleteObject

; 541  : 	
; 542  : 	gridPen.DeleteObject();

  004df	8d 4d a0	 lea	 ecx, DWORD PTR _gridPen$[ebp]
  004e2	e8 00 00 00 00	 call	 ?DeleteObject@CGdiObject@@QAEHXZ ; CGdiObject::DeleteObject
; File C:\Program Files (x86)\Microsoft Visual Studio\2019\Community\VC\Tools\MSVC\14.29.30133\atlmfc\include\afxwin1.inl

; 106  : 	{ }

  004e7	8d 4d a0	 lea	 ecx, DWORD PTR _gridPen$[ebp]
  004ea	c7 45 a0 00 00
	00 00		 mov	 DWORD PTR _gridPen$[ebp], OFFSET ??_7CPen@@6B@
  004f1	e8 00 00 00 00	 call	 ??1CGdiObject@@UAE@XZ	; CGdiObject::~CGdiObject

; 130  : 	{ }

  004f6	8d 4d 90	 lea	 ecx, DWORD PTR _BBrush$[ebp]
  004f9	c7 45 90 00 00
	00 00		 mov	 DWORD PTR _BBrush$[ebp], OFFSET ??_7CBrush@@6B@
  00500	e8 00 00 00 00	 call	 ??1CGdiObject@@UAE@XZ	; CGdiObject::~CGdiObject
  00505	8d 4d 88	 lea	 ecx, DWORD PTR _UBrush$[ebp]
  00508	c7 45 88 00 00
	00 00		 mov	 DWORD PTR _UBrush$[ebp], OFFSET ??_7CBrush@@6B@
  0050f	e8 00 00 00 00	 call	 ??1CGdiObject@@UAE@XZ	; CGdiObject::~CGdiObject
  00514	8d 4d 98	 lea	 ecx, DWORD PTR _FBrush$[ebp]
  00517	c7 45 98 00 00
	00 00		 mov	 DWORD PTR _FBrush$[ebp], OFFSET ??_7CBrush@@6B@
  0051e	e8 00 00 00 00	 call	 ??1CGdiObject@@UAE@XZ	; CGdiObject::~CGdiObject
; File D:\git\src\IBK\IBK_DRFN\ProjSrc\SrcChartEx\ChartOCX\GraphDraw\FundDraw.cpp

; 544  : 	return true;

  00523	b0 01		 mov	 al, 1
  00525	eb 02		 jmp	 SHORT $LN1@DrawReturn
$LN12@DrawReturn:

; 464  : 	}
; 465  : 	else
; 466  : 		return false;

  00527	32 c0		 xor	 al, al
$LN1@DrawReturn:

; 545  : }

  00529	8b 4d f4	 mov	 ecx, DWORD PTR __$EHRec$[ebp]
  0052c	64 89 0d 00 00
	00 00		 mov	 DWORD PTR fs:0, ecx
  00533	59		 pop	 ecx
  00534	5f		 pop	 edi
  00535	5e		 pop	 esi
  00536	8b 4d f0	 mov	 ecx, DWORD PTR __$ArrayPad$[ebp]
  00539	33 cd		 xor	 ecx, ebp
  0053b	e8 00 00 00 00	 call	 @__security_check_cookie@4
  00540	8b e5		 mov	 esp, ebp
  00542	5d		 pop	 ebp
  00543	c2 34 00	 ret	 52			; 00000034H
_TEXT	ENDS
;	COMDAT text$x
text$x	SEGMENT
__unwindfunclet$?DrawReturnRiskGrade@CFundDraw@@AAE_NPAVCDC@@ABVCEtcGraphColor@@ABVCRect@@ABVCGraphColor@@HABN4ABV?$CList@PAVCPacket@@PAV1@@@VCPenThickness@@@Z$0:
  00000	8d 4d 98	 lea	 ecx, DWORD PTR _FBrush$[ebp]
  00003	e9 00 00 00 00	 jmp	 ??1CBrush@@UAE@XZ	; CBrush::~CBrush
__unwindfunclet$?DrawReturnRiskGrade@CFundDraw@@AAE_NPAVCDC@@ABVCEtcGraphColor@@ABVCRect@@ABVCGraphColor@@HABN4ABV?$CList@PAVCPacket@@PAV1@@@VCPenThickness@@@Z$1:
  00008	8d 4d 88	 lea	 ecx, DWORD PTR _UBrush$[ebp]
  0000b	e9 00 00 00 00	 jmp	 ??1CBrush@@UAE@XZ	; CBrush::~CBrush
__unwindfunclet$?DrawReturnRiskGrade@CFundDraw@@AAE_NPAVCDC@@ABVCEtcGraphColor@@ABVCRect@@ABVCGraphColor@@HABN4ABV?$CList@PAVCPacket@@PAV1@@@VCPenThickness@@@Z$2:
  00010	8d 4d 90	 lea	 ecx, DWORD PTR _BBrush$[ebp]
  00013	e9 00 00 00 00	 jmp	 ??1CBrush@@UAE@XZ	; CBrush::~CBrush
__unwindfunclet$?DrawReturnRiskGrade@CFundDraw@@AAE_NPAVCDC@@ABVCEtcGraphColor@@ABVCRect@@ABVCGraphColor@@HABN4ABV?$CList@PAVCPacket@@PAV1@@@VCPenThickness@@@Z$3:
  00018	8d 4d a0	 lea	 ecx, DWORD PTR _gridPen$[ebp]
  0001b	e9 00 00 00 00	 jmp	 ??1CPen@@UAE@XZ		; CPen::~CPen
__unwindfunclet$?DrawReturnRiskGrade@CFundDraw@@AAE_NPAVCDC@@ABVCEtcGraphColor@@ABVCRect@@ABVCGraphColor@@HABN4ABV?$CList@PAVCPacket@@PAV1@@@VCPenThickness@@@Z$4:
  00020	8d 4d c4	 lea	 ecx, DWORD PTR _strpart$7[ebp]
  00023	ff 25 00 00 00
	00		 jmp	 DWORD PTR __imp_??1?$CStringT@DV?$StrTraitMFC_DLL@DV?$ChTraitsCRT@D@ATL@@@@@ATL@@QAE@XZ
  00029	cc		 int	 3
  0002a	cc		 int	 3
  0002b	cc		 int	 3
  0002c	cc		 int	 3
  0002d	cc		 int	 3
__ehhandler$?DrawReturnRiskGrade@CFundDraw@@AAE_NPAVCDC@@ABVCEtcGraphColor@@ABVCRect@@ABVCGraphColor@@HABN4ABV?$CList@PAVCPacket@@PAV1@@@VCPenThickness@@@Z:
  0002e	90		 npad	 1
  0002f	90		 npad	 1
  00030	8b 54 24 08	 mov	 edx, DWORD PTR [esp+8]
  00034	8d 42 0c	 lea	 eax, DWORD PTR [edx+12]
  00037	8b 8a 54 ff ff
	ff		 mov	 ecx, DWORD PTR [edx-172]
  0003d	33 c8		 xor	 ecx, eax
  0003f	e8 00 00 00 00	 call	 @__security_check_cookie@4
  00044	8b 4a fc	 mov	 ecx, DWORD PTR [edx-4]
  00047	33 c8		 xor	 ecx, eax
  00049	e8 00 00 00 00	 call	 @__security_check_cookie@4
  0004e	b8 00 00 00 00	 mov	 eax, OFFSET __ehfuncinfo$?DrawReturnRiskGrade@CFundDraw@@AAE_NPAVCDC@@ABVCEtcGraphColor@@ABVCRect@@ABVCGraphColor@@HABN4ABV?$CList@PAVCPacket@@PAV1@@@VCPenThickness@@@Z
  00053	e9 00 00 00 00	 jmp	 ___CxxFrameHandler3
text$x	ENDS
?DrawReturnRiskGrade@CFundDraw@@AAE_NPAVCDC@@ABVCEtcGraphColor@@ABVCRect@@ABVCGraphColor@@HABN4ABV?$CList@PAVCPacket@@PAV1@@@VCPenThickness@@@Z ENDP ; CFundDraw::DrawReturnRiskGrade
; Function compile flags: /Ogtp
; File D:\git\src\IBK\IBK_DRFN\ProjSrc\SrcChartEx\ChartOCX\GraphDraw\FundDraw.cpp
; File C:\Program Files (x86)\Microsoft Visual Studio\2019\Community\VC\Tools\MSVC\14.29.30133\atlmfc\include\afxtempl.h
; File D:\git\src\IBK\IBK_DRFN\ProjSrc\SrcChartEx\ChartOCX\GraphDraw\FundDraw.cpp
; File C:\Program Files (x86)\Microsoft Visual Studio\2019\Community\VC\Tools\MSVC\14.29.30133\atlmfc\include\afxtempl.h
; File D:\git\src\IBK\IBK_DRFN\ProjSrc\SrcChartEx\ChartOCX\GraphDraw\FundDraw.cpp
; File C:\Program Files (x86)\Microsoft Visual Studio\2019\Community\VC\Tools\MSVC\14.29.30133\atlmfc\include\afxtempl.h
; File D:\git\src\IBK\IBK_DRFN\ProjSrc\SrcChartEx\ChartOCX\GraphDraw\FundDraw.cpp
; File C:\Program Files (x86)\Microsoft Visual Studio\2019\Community\VC\Tools\MSVC\14.29.30133\atlmfc\include\afxwin1.inl
; File D:\git\src\IBK\IBK_DRFN\ProjSrc\SrcChartEx\ChartOCX\GraphDraw\FundDraw.cpp
; File C:\Program Files (x86)\Microsoft Visual Studio\2019\Community\VC\Tools\MSVC\14.29.30133\atlmfc\include\afxwin1.inl
; File D:\git\src\IBK\IBK_DRFN\ProjSrc\SrcChartEx\ChartOCX\GraphDraw\FundDraw.cpp
; File C:\Program Files (x86)\Microsoft Visual Studio\2019\Community\VC\Tools\MSVC\14.29.30133\atlmfc\include\afxwin1.inl
; File D:\git\src\IBK\IBK_DRFN\ProjSrc\SrcChartEx\ChartOCX\GraphDraw\FundDraw.cpp
; File C:\Program Files (x86)\Microsoft Visual Studio\2019\Community\VC\Tools\MSVC\14.29.30133\atlmfc\include\afxwin1.inl
; File D:\git\src\IBK\IBK_DRFN\ProjSrc\SrcChartEx\ChartOCX\GraphDraw\FundDraw.cpp
; File C:\Program Files (x86)\Microsoft Visual Studio\2019\Community\VC\Tools\MSVC\14.29.30133\atlmfc\include\atltypes.h
; File D:\git\src\IBK\IBK_DRFN\ProjSrc\SrcChartEx\ChartOCX\GraphDraw\FundDraw.cpp
; File C:\Program Files (x86)\Microsoft Visual Studio\2019\Community\VC\Tools\MSVC\14.29.30133\atlmfc\include\atltypes.h
; File D:\git\src\IBK\IBK_DRFN\ProjSrc\SrcChartEx\ChartOCX\GraphDraw\FundDraw.cpp
; File C:\Program Files (x86)\Microsoft Visual Studio\2019\Community\VC\Tools\MSVC\14.29.30133\atlmfc\include\atltypes.h
; File D:\git\src\IBK\IBK_DRFN\ProjSrc\SrcChartEx\ChartOCX\GraphDraw\FundDraw.cpp
; File C:\Program Files (x86)\Microsoft Visual Studio\2019\Community\VC\Tools\MSVC\14.29.30133\atlmfc\include\atltypes.h
; File D:\git\src\IBK\IBK_DRFN\ProjSrc\SrcChartEx\ChartOCX\GraphDraw\FundDraw.cpp
; File C:\Program Files (x86)\Microsoft Visual Studio\2019\Community\VC\Tools\MSVC\14.29.30133\atlmfc\include\atltypes.h
; File D:\git\src\IBK\IBK_DRFN\ProjSrc\SrcChartEx\ChartOCX\GraphDraw\FundDraw.cpp
; File C:\Program Files (x86)\Microsoft Visual Studio\2019\Community\VC\Tools\MSVC\14.29.30133\atlmfc\include\atltypes.h
; File D:\git\src\IBK\IBK_DRFN\ProjSrc\SrcChartEx\ChartOCX\GraphDraw\FundDraw.cpp
; File C:\Program Files (x86)\Microsoft Visual Studio\2019\Community\VC\Tools\MSVC\14.29.30133\atlmfc\include\atltypes.h
; File D:\git\src\IBK\IBK_DRFN\ProjSrc\SrcChartEx\ChartOCX\GraphDraw\FundDraw.cpp
; File C:\Program Files (x86)\Microsoft Visual Studio\2019\Community\VC\Tools\MSVC\14.29.30133\atlmfc\include\atltypes.h
; File D:\git\src\IBK\IBK_DRFN\ProjSrc\SrcChartEx\ChartOCX\GraphDraw\FundDraw.cpp
; File C:\Program Files (x86)\Microsoft Visual Studio\2019\Community\VC\Tools\MSVC\14.29.30133\atlmfc\include\afxtempl.h
; File D:\git\src\IBK\IBK_DRFN\ProjSrc\SrcChartEx\ChartOCX\GraphDraw\FundDraw.cpp
; File C:\Program Files (x86)\Microsoft Visual Studio\2019\Community\VC\Tools\MSVC\14.29.30133\atlmfc\include\afxtempl.h
; File D:\git\src\IBK\IBK_DRFN\ProjSrc\SrcChartEx\ChartOCX\GraphDraw\FundDraw.cpp
; File C:\Program Files (x86)\Microsoft Visual Studio\2019\Community\VC\Tools\MSVC\14.29.30133\atlmfc\include\afxtempl.h
; File D:\git\src\IBK\IBK_DRFN\ProjSrc\SrcChartEx\ChartOCX\GraphDraw\FundDraw.cpp
; File C:\Program Files (x86)\Microsoft Visual Studio\2019\Community\VC\Tools\MSVC\14.29.30133\atlmfc\include\afxtempl.h
; File D:\git\src\IBK\IBK_DRFN\ProjSrc\SrcChartEx\ChartOCX\GraphDraw\FundDraw.cpp
; File C:\Program Files (x86)\Microsoft Visual Studio\2019\Community\VC\Tools\MSVC\14.29.30133\atlmfc\include\afxtempl.h
; File D:\git\src\IBK\IBK_DRFN\ProjSrc\SrcChartEx\ChartOCX\GraphDraw\FundDraw.cpp
; File C:\Program Files (x86)\Microsoft Visual Studio\2019\Community\VC\Tools\MSVC\14.29.30133\atlmfc\include\afxtempl.h
; File D:\git\src\IBK\IBK_DRFN\ProjSrc\SrcChartEx\ChartOCX\GraphDraw\FundDraw.cpp
; File C:\Program Files (x86)\Microsoft Visual Studio\2019\Community\VC\Tools\MSVC\14.29.30133\atlmfc\include\afxtempl.h
; File D:\git\src\IBK\IBK_DRFN\ProjSrc\SrcChartEx\ChartOCX\GraphDraw\FundDraw.cpp
; File C:\Program Files (x86)\Microsoft Visual Studio\2019\Community\VC\Tools\MSVC\14.29.30133\atlmfc\include\afxtempl.h
; File D:\git\src\IBK\IBK_DRFN\ProjSrc\SrcChartEx\ChartOCX\GraphDraw\FundDraw.cpp
; File C:\Program Files (x86)\Microsoft Visual Studio\2019\Community\VC\Tools\MSVC\14.29.30133\atlmfc\include\afxtempl.h
; File D:\git\src\IBK\IBK_DRFN\ProjSrc\SrcChartEx\ChartOCX\GraphDraw\FundDraw.cpp
; File C:\Program Files (x86)\Microsoft Visual Studio\2019\Community\VC\Tools\MSVC\14.29.30133\atlmfc\include\atltypes.h
; File D:\git\src\IBK\IBK_DRFN\ProjSrc\SrcChartEx\ChartOCX\GraphDraw\FundDraw.cpp
; File C:\Program Files (x86)\Microsoft Visual Studio\2019\Community\VC\Tools\MSVC\14.29.30133\atlmfc\include\atltypes.h
; File D:\git\src\IBK\IBK_DRFN\ProjSrc\SrcChartEx\ChartOCX\GraphDraw\FundDraw.cpp
; File C:\Program Files (x86)\Microsoft Visual Studio\2019\Community\VC\Tools\MSVC\14.29.30133\atlmfc\include\afxwin1.inl
; File D:\git\src\IBK\IBK_DRFN\ProjSrc\SrcChartEx\ChartOCX\GraphDraw\FundDraw.cpp
; File C:\Program Files (x86)\Microsoft Visual Studio\2019\Community\VC\Tools\MSVC\14.29.30133\atlmfc\include\afxwin1.inl
; File D:\git\src\IBK\IBK_DRFN\ProjSrc\SrcChartEx\ChartOCX\GraphDraw\FundDraw.cpp
; File C:\Program Files (x86)\Microsoft Visual Studio\2019\Community\VC\Tools\MSVC\14.29.30133\atlmfc\include\afxwin1.inl
; File D:\git\src\IBK\IBK_DRFN\ProjSrc\SrcChartEx\ChartOCX\GraphDraw\FundDraw.cpp
;	COMDAT ?DrawStyleBox@CFundDraw@@AAE_NPAVCDC@@ABVCEtcGraphColor@@ABVCRect@@ABVCGraphColor@@HABN4ABV?$CList@PAVCPacket@@PAV1@@@VCPenThickness@@@Z
_TEXT	SEGMENT
$T2 = -240						; size = 8
$T3 = -232						; size = 8
$T4 = -224						; size = 8
$T5 = -216						; size = 8
$T6 = -208						; size = 8
$T7 = -200						; size = 8
$T8 = -192						; size = 8
$T9 = -184						; size = 8
$T10 = -176						; size = 8
$T11 = -168						; size = 8
$T12 = -160						; size = 8
_pOldPen$1$ = -152					; size = 4
_pOldBrush$1$ = -148					; size = 4
_rect$13 = -144						; size = 16
_ellipsBrush$ = -128					; size = 8
$T14 = -120						; size = 8
_endDataPt$1$ = -116					; size = 4
$T15 = -112						; size = 8
_endDataPt$2$ = -108					; size = 4
_linePen$ = -104					; size = 8
_gridPen$ = -96						; size = 8
$T16 = -88						; size = 8
_startDataPt$2$ = -84					; size = 4
_graphDrawingRegion$GSCopy$1$ = -84			; size = 4
_ellipsPen$ = -80					; size = 8
_count$1$ = -72						; size = 4
_startDataPt$1$ = -68					; size = 4
_yPositionPacket$1$ = -64				; size = 4
$T17 = -60						; size = 8
_yPosition$1$ = -56					; size = 4
_xPositionPacket$1$ = -52				; size = 4
_xPositionEnd$1$ = -48					; size = 4
_xPosition$1$ = -48					; size = 4
_graphColor$GSCopy$1$ = -44				; size = 4
_yPositionEnd$1$ = -44					; size = 4
_pDC$GSCopy$1$ = -40					; size = 4
_this$GSCopy$1$ = -36					; size = 4
_graphRegion$ = -32					; size = 16
__$ArrayPad$ = -16					; size = 4
__$EHRec$ = -12						; size = 12
_pDC$ = 8						; size = 4
_etcGraphColor$ = 12					; size = 4
_graphDrawingRegion$ = 16				; size = 4
_graphColor$ = 20					; size = 4
_dataStart$ = 24					; size = 4
_dataViewMax$ = 28					; size = 4
_dataViewMin$ = 32					; size = 4
_packetList$ = 36					; size = 4
_penThickness$ = 40					; size = 20
?DrawStyleBox@CFundDraw@@AAE_NPAVCDC@@ABVCEtcGraphColor@@ABVCRect@@ABVCGraphColor@@HABN4ABV?$CList@PAVCPacket@@PAV1@@@VCPenThickness@@@Z PROC ; CFundDraw::DrawStyleBox, COMDAT
; _this$ = ecx

; 339  : {

  00000	55		 push	 ebp
  00001	8b ec		 mov	 ebp, esp
  00003	6a ff		 push	 -1
  00005	68 00 00 00 00	 push	 __ehhandler$?DrawStyleBox@CFundDraw@@AAE_NPAVCDC@@ABVCEtcGraphColor@@ABVCRect@@ABVCGraphColor@@HABN4ABV?$CList@PAVCPacket@@PAV1@@@VCPenThickness@@@Z
  0000a	64 a1 00 00 00
	00		 mov	 eax, DWORD PTR fs:0
  00010	50		 push	 eax
  00011	81 ec e4 00 00
	00		 sub	 esp, 228		; 000000e4H
  00017	a1 00 00 00 00	 mov	 eax, DWORD PTR ___security_cookie
  0001c	33 c5		 xor	 eax, ebp
  0001e	89 45 f0	 mov	 DWORD PTR __$ArrayPad$[ebp], eax
  00021	56		 push	 esi
  00022	57		 push	 edi
  00023	50		 push	 eax
  00024	8d 45 f4	 lea	 eax, DWORD PTR __$EHRec$[ebp]
  00027	64 a3 00 00 00
	00		 mov	 DWORD PTR fs:0, eax
  0002d	89 4d dc	 mov	 DWORD PTR _this$GSCopy$1$[ebp], ecx
  00030	8b 45 08	 mov	 eax, DWORD PTR _pDC$[ebp]
  00033	8b 55 24	 mov	 edx, DWORD PTR _packetList$[ebp]
  00036	89 45 d8	 mov	 DWORD PTR _pDC$GSCopy$1$[ebp], eax
  00039	8b 45 10	 mov	 eax, DWORD PTR _graphDrawingRegion$[ebp]
  0003c	89 45 ac	 mov	 DWORD PTR _graphDrawingRegion$GSCopy$1$[ebp], eax
  0003f	8b 45 14	 mov	 eax, DWORD PTR _graphColor$[ebp]

; 340  : 	int count = 0;
; 341  : 	POSITION headPos = packetList.GetHeadPosition();

  00042	8b 4a 04	 mov	 ecx, DWORD PTR [edx+4]
  00045	89 45 d4	 mov	 DWORD PTR _graphColor$GSCopy$1$[ebp], eax
  00048	33 c0		 xor	 eax, eax
  0004a	89 45 b8	 mov	 DWORD PTR _count$1$[ebp], eax

; 342  : 	if(headPos == NULL) 

  0004d	85 c9		 test	 ecx, ecx
  0004f	0f 84 8b 05 00
	00		 je	 $LN6@DrawStyleB

; 343  : 		return false;
; 344  : 	CPacket* xPositionPacket; // x  packet
; 345  : 	CPacket* yPositionPacket; // y  packet
; 346  : 
; 347  : 	if(packetList.GetCount() >= 3){

  00055	83 7a 0c 03	 cmp	 DWORD PTR [edx+12], 3
  00059	0f 8c 81 05 00
	00		 jl	 $LN6@DrawStyleB
; File C:\Program Files (x86)\Microsoft Visual Studio\2019\Community\VC\Tools\MSVC\14.29.30133\atlmfc\include\afxtempl.h

; 819  : 		rPosition = (POSITION) pNode->pNext;

  0005f	8b 01		 mov	 eax, DWORD PTR [ecx]
; File D:\git\src\IBK\IBK_DRFN\ProjSrc\SrcChartEx\ChartOCX\GraphDraw\FundDraw.cpp

; 348  : 		xPositionPacket = packetList.GetNext(headPos);

  00061	8b 49 08	 mov	 ecx, DWORD PTR [ecx+8]

; 353  : 
; 354  : 	//displayData
; 355  : 	//POSITION xPosition = xPositionPacket->GetnumericDataList()->FindIndex(dataStart-1);
; 356  : 	//POSITION yPosition = yPositionPacket->GetnumericDataList()->FindIndex(dataStart-1);
; 357  : 	POSITION xPosition = xPositionPacket->GetnumericDataList()->FindIndex(dataStart);

  00064	8b 3d 00 00 00
	00		 mov	 edi, DWORD PTR __imp_?GetnumericDataList@CPacket@@QAEPAV?$CList@NN@@XZ
  0006a	89 4d cc	 mov	 DWORD PTR _xPositionPacket$1$[ebp], ecx
  0006d	8b 40 08	 mov	 eax, DWORD PTR [eax+8]
  00070	89 45 c0	 mov	 DWORD PTR _yPositionPacket$1$[ebp], eax
  00073	ff d7		 call	 edi
  00075	8b f0		 mov	 esi, eax
; File C:\Program Files (x86)\Microsoft Visual Studio\2019\Community\VC\Tools\MSVC\14.29.30133\atlmfc\include\afxtempl.h

; 1133 : 	if (nIndex >= m_nCount || nIndex < 0)

  00077	8b 45 18	 mov	 eax, DWORD PTR _dataStart$[ebp]
  0007a	3b 46 0c	 cmp	 eax, DWORD PTR [esi+12]
  0007d	7d 1a		 jge	 SHORT $LN29@DrawStyleB
  0007f	85 c0		 test	 eax, eax
  00081	78 16		 js	 SHORT $LN29@DrawStyleB

; 1135 : 
; 1136 : 	CNode* pNode = m_pNodeHead;

  00083	8b 76 04	 mov	 esi, DWORD PTR [esi+4]
  00086	89 75 d0	 mov	 DWORD PTR _xPosition$1$[ebp], esi

; 1137 : 	while (nIndex--)

  00089	74 13		 je	 SHORT $LN25@DrawStyleB
  0008b	8b c8		 mov	 ecx, eax
  0008d	0f 1f 00	 npad	 3
$LL26@DrawStyleB:

; 1138 : 	{
; 1139 : 		ASSERT(AfxIsValidAddress(pNode, sizeof(CNode)));
; 1140 : 		pNode = pNode->pNext;

  00090	8b 36		 mov	 esi, DWORD PTR [esi]
  00092	83 e9 01	 sub	 ecx, 1
  00095	75 f9		 jne	 SHORT $LL26@DrawStyleB

; 1141 : 	}
; 1142 : 	return (POSITION) pNode;

  00097	eb 02		 jmp	 SHORT $LN158@DrawStyleB
$LN29@DrawStyleB:

; 1134 : 		return NULL;  // went too far

  00099	33 f6		 xor	 esi, esi
$LN158@DrawStyleB:
; File D:\git\src\IBK\IBK_DRFN\ProjSrc\SrcChartEx\ChartOCX\GraphDraw\FundDraw.cpp

; 358  : 	POSITION yPosition = yPositionPacket->GetnumericDataList()->FindIndex(dataStart);

  0009b	89 75 d0	 mov	 DWORD PTR _xPosition$1$[ebp], esi
$LN25@DrawStyleB:
  0009e	8b 4d c0	 mov	 ecx, DWORD PTR _yPositionPacket$1$[ebp]
  000a1	ff d7		 call	 edi
; File C:\Program Files (x86)\Microsoft Visual Studio\2019\Community\VC\Tools\MSVC\14.29.30133\atlmfc\include\afxtempl.h

; 1133 : 	if (nIndex >= m_nCount || nIndex < 0)

  000a3	8b 4d 18	 mov	 ecx, DWORD PTR _dataStart$[ebp]
  000a6	3b 48 0c	 cmp	 ecx, DWORD PTR [eax+12]
  000a9	7d 15		 jge	 SHORT $LN35@DrawStyleB
  000ab	85 c9		 test	 ecx, ecx
  000ad	78 11		 js	 SHORT $LN35@DrawStyleB

; 1135 : 
; 1136 : 	CNode* pNode = m_pNodeHead;

  000af	8b 40 04	 mov	 eax, DWORD PTR [eax+4]
  000b2	89 45 c8	 mov	 DWORD PTR _yPosition$1$[ebp], eax

; 1137 : 	while (nIndex--)

  000b5	74 0e		 je	 SHORT $LN31@DrawStyleB
$LL32@DrawStyleB:

; 1138 : 	{
; 1139 : 		ASSERT(AfxIsValidAddress(pNode, sizeof(CNode)));
; 1140 : 		pNode = pNode->pNext;

  000b7	8b 00		 mov	 eax, DWORD PTR [eax]
  000b9	83 e9 01	 sub	 ecx, 1
  000bc	75 f9		 jne	 SHORT $LL32@DrawStyleB

; 1141 : 	}
; 1142 : 	return (POSITION) pNode;

  000be	eb 02		 jmp	 SHORT $LN159@DrawStyleB
$LN35@DrawStyleB:

; 1134 : 		return NULL;  // went too far

  000c0	33 c0		 xor	 eax, eax
$LN159@DrawStyleB:
; File D:\git\src\IBK\IBK_DRFN\ProjSrc\SrcChartEx\ChartOCX\GraphDraw\FundDraw.cpp

; 359  : 	if(xPosition == NULL || yPosition == NULL)

  000c2	89 45 c8	 mov	 DWORD PTR _yPosition$1$[ebp], eax
$LN31@DrawStyleB:
  000c5	85 f6		 test	 esi, esi
  000c7	0f 84 13 05 00
	00		 je	 $LN6@DrawStyleB
  000cd	85 c0		 test	 eax, eax
  000cf	0f 84 0b 05 00
	00		 je	 $LN6@DrawStyleB

; 360  : 		return false;
; 361  : 	
; 362  : 	CBrush ellipsBrush(graphColor.GetColor2());

  000d5	8b 4d d4	 mov	 ecx, DWORD PTR _graphColor$GSCopy$1$[ebp]
  000d8	ff 15 00 00 00
	00		 call	 DWORD PTR __imp_?GetColor2@CGraphColor@@QBEKXZ
  000de	50		 push	 eax
  000df	8d 4d 80	 lea	 ecx, DWORD PTR _ellipsBrush$[ebp]
  000e2	e8 00 00 00 00	 call	 ??0CBrush@@QAE@K@Z	; CBrush::CBrush
  000e7	c7 45 fc 00 00
	00 00		 mov	 DWORD PTR __$EHRec$[ebp+8], 0
; File C:\Program Files (x86)\Microsoft Visual Studio\2019\Community\VC\Tools\MSVC\14.29.30133\atlmfc\include\afxwin1.inl

; 70   : 	{ m_hObject = NULL; }

  000ee	c7 45 b4 00 00
	00 00		 mov	 DWORD PTR _ellipsPen$[ebp+4], 0

; 104  : 	{ }

  000f5	c7 45 b0 00 00
	00 00		 mov	 DWORD PTR _ellipsPen$[ebp], OFFSET ??_7CPen@@6B@

; 70   : 	{ m_hObject = NULL; }

  000fc	c7 45 9c 00 00
	00 00		 mov	 DWORD PTR _linePen$[ebp+4], 0

; 104  : 	{ }

  00103	c7 45 98 00 00
	00 00		 mov	 DWORD PTR _linePen$[ebp], OFFSET ??_7CPen@@6B@

; 70   : 	{ m_hObject = NULL; }

  0010a	c7 45 a4 00 00
	00 00		 mov	 DWORD PTR _gridPen$[ebp+4], 0

; 104  : 	{ }

  00111	c7 45 a0 00 00
	00 00		 mov	 DWORD PTR _gridPen$[ebp], OFFSET ??_7CPen@@6B@
; File D:\git\src\IBK\IBK_DRFN\ProjSrc\SrcChartEx\ChartOCX\GraphDraw\FundDraw.cpp

; 368  :  	ellipsPen.CreatePen	(PS_SOLID, penThickness.GetThickness1(), graphColor.GetColor1());

  00118	8b 4d d4	 mov	 ecx, DWORD PTR _graphColor$GSCopy$1$[ebp]
  0011b	c6 45 fc 03	 mov	 BYTE PTR __$EHRec$[ebp+8], 3
  0011f	ff 15 00 00 00
	00		 call	 DWORD PTR __imp_?GetColor1@CGraphColor@@QBEKXZ
  00125	8d 4d 28	 lea	 ecx, DWORD PTR _penThickness$[ebp]
  00128	8b f0		 mov	 esi, eax
  0012a	ff 15 00 00 00
	00		 call	 DWORD PTR __imp_?GetThickness1@CPenThickness@@QBEHXZ
; File C:\Program Files (x86)\Microsoft Visual Studio\2019\Community\VC\Tools\MSVC\14.29.30133\atlmfc\include\afxwin1.inl

; 108  : 	{ return Attach(::CreatePen(nPenStyle, nWidth, crColor)); }

  00130	8b 3d 00 00 00
	00		 mov	 edi, DWORD PTR __imp__CreatePen@12
  00136	56		 push	 esi
  00137	50		 push	 eax
  00138	6a 00		 push	 0
  0013a	ff d7		 call	 edi
  0013c	50		 push	 eax
  0013d	8d 4d b0	 lea	 ecx, DWORD PTR _ellipsPen$[ebp]
  00140	e8 00 00 00 00	 call	 ?Attach@CGdiObject@@QAEHPAX@Z ; CGdiObject::Attach
; File D:\git\src\IBK\IBK_DRFN\ProjSrc\SrcChartEx\ChartOCX\GraphDraw\FundDraw.cpp

; 369  : 	linePen.CreatePen	(PS_SOLID, penThickness.GetThickness1(), graphColor.GetColor4());

  00145	8b 4d d4	 mov	 ecx, DWORD PTR _graphColor$GSCopy$1$[ebp]
  00148	ff 15 00 00 00
	00		 call	 DWORD PTR __imp_?GetColor4@CGraphColor@@QBEKXZ
  0014e	8d 4d 28	 lea	 ecx, DWORD PTR _penThickness$[ebp]
  00151	8b f0		 mov	 esi, eax
  00153	ff 15 00 00 00
	00		 call	 DWORD PTR __imp_?GetThickness1@CPenThickness@@QBEHXZ
; File C:\Program Files (x86)\Microsoft Visual Studio\2019\Community\VC\Tools\MSVC\14.29.30133\atlmfc\include\afxwin1.inl

; 108  : 	{ return Attach(::CreatePen(nPenStyle, nWidth, crColor)); }

  00159	56		 push	 esi
  0015a	50		 push	 eax
  0015b	6a 00		 push	 0
  0015d	ff d7		 call	 edi
  0015f	50		 push	 eax
  00160	8d 4d 98	 lea	 ecx, DWORD PTR _linePen$[ebp]
  00163	e8 00 00 00 00	 call	 ?Attach@CGdiObject@@QAEHPAX@Z ; CGdiObject::Attach
; File D:\git\src\IBK\IBK_DRFN\ProjSrc\SrcChartEx\ChartOCX\GraphDraw\FundDraw.cpp

; 370  : 	gridPen.CreatePen	(PS_SOLID, penThickness.GetThickness1(), graphColor.GetColor3());

  00168	8b 4d d4	 mov	 ecx, DWORD PTR _graphColor$GSCopy$1$[ebp]
  0016b	ff 15 00 00 00
	00		 call	 DWORD PTR __imp_?GetColor3@CGraphColor@@QBEKXZ
  00171	8d 4d 28	 lea	 ecx, DWORD PTR _penThickness$[ebp]
  00174	8b f0		 mov	 esi, eax
  00176	ff 15 00 00 00
	00		 call	 DWORD PTR __imp_?GetThickness1@CPenThickness@@QBEHXZ
; File C:\Program Files (x86)\Microsoft Visual Studio\2019\Community\VC\Tools\MSVC\14.29.30133\atlmfc\include\afxwin1.inl

; 108  : 	{ return Attach(::CreatePen(nPenStyle, nWidth, crColor)); }

  0017c	56		 push	 esi
  0017d	50		 push	 eax
  0017e	6a 00		 push	 0
  00180	ff d7		 call	 edi
  00182	50		 push	 eax
  00183	8d 4d a0	 lea	 ecx, DWORD PTR _gridPen$[ebp]
  00186	e8 00 00 00 00	 call	 ?Attach@CGdiObject@@QAEHPAX@Z ; CGdiObject::Attach
; File D:\git\src\IBK\IBK_DRFN\ProjSrc\SrcChartEx\ChartOCX\GraphDraw\FundDraw.cpp

; 374  : 	pOldBrush = (CBrush*)pDC->SelectObject(&ellipsBrush);

  0018b	8b 75 d8	 mov	 esi, DWORD PTR _pDC$GSCopy$1$[ebp]
  0018e	8d 45 80	 lea	 eax, DWORD PTR _ellipsBrush$[ebp]
  00191	50		 push	 eax
  00192	8b ce		 mov	 ecx, esi
  00194	e8 00 00 00 00	 call	 ?SelectObject@CDC@@QAEPAVCBrush@@PAV2@@Z ; CDC::SelectObject
  00199	89 85 6c ff ff
	ff		 mov	 DWORD PTR _pOldBrush$1$[ebp], eax

; 375  : 	pOldPen = (CPen*)pDC->SelectObject(&gridPen);

  0019f	8b ce		 mov	 ecx, esi
  001a1	8d 45 a0	 lea	 eax, DWORD PTR _gridPen$[ebp]
  001a4	50		 push	 eax
  001a5	e8 00 00 00 00	 call	 ?SelectObject@CDC@@QAEPAVCPen@@PAV2@@Z ; CDC::SelectObject

; 376  : 	
; 377  : 	POSITION xPositionEnd = xPosition, yPositionEnd = yPosition;

  001aa	8b 7d d0	 mov	 edi, DWORD PTR _xPosition$1$[ebp]
  001ad	89 85 68 ff ff
	ff		 mov	 DWORD PTR _pOldPen$1$[ebp], eax
  001b3	8b 45 c8	 mov	 eax, DWORD PTR _yPosition$1$[ebp]
  001b6	89 45 d4	 mov	 DWORD PTR _yPositionEnd$1$[ebp], eax

; 378  : 	int gridCount = 15;
; 379  : 	int ellipsThickness = 5;
; 380  : 	CPoint startDataPt;
; 381  : 	CPoint endDataPt;
; 382  : 	//grid . ========================================================================================
; 383  : 	CRect graphRegion = graphDrawingRegion;

  001b9	8b 45 ac	 mov	 eax, DWORD PTR _graphDrawingRegion$GSCopy$1$[ebp]
  001bc	89 7d d0	 mov	 DWORD PTR _xPositionEnd$1$[ebp], edi
  001bf	0f 10 00	 movups	 xmm0, XMMWORD PTR [eax]

; 384  : 	graphRegion.right = graphDrawingRegion.right + MARGIN * 2;

  001c2	8b 48 08	 mov	 ecx, DWORD PTR [eax+8]
  001c5	83 c1 08	 add	 ecx, 8
  001c8	0f 11 45 e0	 movups	 XMMWORD PTR _graphRegion$[ebp], xmm0
; File C:\Program Files (x86)\Microsoft Visual Studio\2019\Community\VC\Tools\MSVC\14.29.30133\atlmfc\include\atltypes.h

; 409  : 	y = initY;

  001cc	8b 45 e4	 mov	 eax, DWORD PTR _graphRegion$[ebp+4]
; File D:\git\src\IBK\IBK_DRFN\ProjSrc\SrcChartEx\ChartOCX\GraphDraw\FundDraw.cpp

; 385  : 	CDraw::DrawLine(pDC, CPoint(graphRegion.left, graphRegion.top), CPoint(graphRegion.right, graphRegion.top));

  001cf	50		 push	 eax
  001d0	51		 push	 ecx
  001d1	50		 push	 eax
  001d2	ff 75 e0	 push	 DWORD PTR _graphRegion$[ebp]
  001d5	89 4d e8	 mov	 DWORD PTR _graphRegion$[ebp+8], ecx
  001d8	56		 push	 esi
  001d9	8b 4d dc	 mov	 ecx, DWORD PTR _this$GSCopy$1$[ebp]
  001dc	e8 00 00 00 00	 call	 ?DrawLine@CDraw@@IAEXPAVCDC@@UtagPOINT@@1@Z ; CDraw::DrawLine
; File C:\Program Files (x86)\Microsoft Visual Studio\2019\Community\VC\Tools\MSVC\14.29.30133\atlmfc\include\atltypes.h

; 581  : 	return bottom - top;

  001e1	8b 4d ec	 mov	 ecx, DWORD PTR _graphRegion$[ebp+12]
; File D:\git\src\IBK\IBK_DRFN\ProjSrc\SrcChartEx\ChartOCX\GraphDraw\FundDraw.cpp

; 386  : 	CDraw::DrawLine(pDC, CPoint(graphRegion.left, graphRegion.top + graphRegion.Height()/3), CPoint(graphRegion.right, graphRegion.top + graphRegion.Height()/3));

  001e4	b8 56 55 55 55	 mov	 eax, 1431655766		; 55555556H
; File C:\Program Files (x86)\Microsoft Visual Studio\2019\Community\VC\Tools\MSVC\14.29.30133\atlmfc\include\atltypes.h

; 581  : 	return bottom - top;

  001e9	2b 4d e4	 sub	 ecx, DWORD PTR _graphRegion$[ebp+4]
; File D:\git\src\IBK\IBK_DRFN\ProjSrc\SrcChartEx\ChartOCX\GraphDraw\FundDraw.cpp

; 386  : 	CDraw::DrawLine(pDC, CPoint(graphRegion.left, graphRegion.top + graphRegion.Height()/3), CPoint(graphRegion.right, graphRegion.top + graphRegion.Height()/3));

  001ec	f7 e9		 imul	 ecx
  001ee	8b 4d dc	 mov	 ecx, DWORD PTR _this$GSCopy$1$[ebp]
  001f1	8b c2		 mov	 eax, edx
  001f3	c1 e8 1f	 shr	 eax, 31			; 0000001fH
  001f6	03 c2		 add	 eax, edx
  001f8	03 45 e4	 add	 eax, DWORD PTR _graphRegion$[ebp+4]
  001fb	50		 push	 eax
  001fc	ff 75 e8	 push	 DWORD PTR _graphRegion$[ebp+8]
  001ff	50		 push	 eax
  00200	ff 75 e0	 push	 DWORD PTR _graphRegion$[ebp]
  00203	8b c6		 mov	 eax, esi
  00205	50		 push	 eax
  00206	e8 00 00 00 00	 call	 ?DrawLine@CDraw@@IAEXPAVCDC@@UtagPOINT@@1@Z ; CDraw::DrawLine

; 387  : 	CDraw::DrawLine(pDC, CPoint(graphRegion.left, graphRegion.top + graphRegion.Height()*2/3), CPoint(graphRegion.right, graphRegion.top + graphRegion.Height()*2/3));

  0020b	8b 4d ec	 mov	 ecx, DWORD PTR _graphRegion$[ebp+12]
  0020e	b8 56 55 55 55	 mov	 eax, 1431655766		; 55555556H
  00213	2b 4d e4	 sub	 ecx, DWORD PTR _graphRegion$[ebp+4]
  00216	03 c9		 add	 ecx, ecx
  00218	f7 e9		 imul	 ecx
  0021a	8b 4d dc	 mov	 ecx, DWORD PTR _this$GSCopy$1$[ebp]
  0021d	8b c2		 mov	 eax, edx
  0021f	c1 e8 1f	 shr	 eax, 31			; 0000001fH
  00222	03 c2		 add	 eax, edx
  00224	03 45 e4	 add	 eax, DWORD PTR _graphRegion$[ebp+4]
  00227	50		 push	 eax
  00228	ff 75 e8	 push	 DWORD PTR _graphRegion$[ebp+8]
  0022b	50		 push	 eax
  0022c	ff 75 e0	 push	 DWORD PTR _graphRegion$[ebp]
  0022f	56		 push	 esi
  00230	e8 00 00 00 00	 call	 ?DrawLine@CDraw@@IAEXPAVCDC@@UtagPOINT@@1@Z ; CDraw::DrawLine
; File C:\Program Files (x86)\Microsoft Visual Studio\2019\Community\VC\Tools\MSVC\14.29.30133\atlmfc\include\atltypes.h

; 409  : 	y = initY;

  00235	8b 45 ec	 mov	 eax, DWORD PTR _graphRegion$[ebp+12]
; File D:\git\src\IBK\IBK_DRFN\ProjSrc\SrcChartEx\ChartOCX\GraphDraw\FundDraw.cpp

; 388  : 	CDraw::DrawLine(pDC, CPoint(graphRegion.left, graphRegion.bottom), CPoint(graphRegion.right, graphRegion.bottom));

  00238	8b 4d dc	 mov	 ecx, DWORD PTR _this$GSCopy$1$[ebp]
  0023b	50		 push	 eax
  0023c	ff 75 e8	 push	 DWORD PTR _graphRegion$[ebp+8]
  0023f	50		 push	 eax
  00240	ff 75 e0	 push	 DWORD PTR _graphRegion$[ebp]
  00243	56		 push	 esi
  00244	e8 00 00 00 00	 call	 ?DrawLine@CDraw@@IAEXPAVCDC@@UtagPOINT@@1@Z ; CDraw::DrawLine

; 389  : 	CDraw::DrawLine(pDC, CPoint(graphRegion.left, graphRegion.top), CPoint(graphRegion.left, graphRegion.bottom));

  00249	ff 75 ec	 push	 DWORD PTR _graphRegion$[ebp+12]
; File C:\Program Files (x86)\Microsoft Visual Studio\2019\Community\VC\Tools\MSVC\14.29.30133\atlmfc\include\atltypes.h

; 408  : 	x = initX;

  0024c	8b 45 e0	 mov	 eax, DWORD PTR _graphRegion$[ebp]
; File D:\git\src\IBK\IBK_DRFN\ProjSrc\SrcChartEx\ChartOCX\GraphDraw\FundDraw.cpp

; 389  : 	CDraw::DrawLine(pDC, CPoint(graphRegion.left, graphRegion.top), CPoint(graphRegion.left, graphRegion.bottom));

  0024f	8b 4d dc	 mov	 ecx, DWORD PTR _this$GSCopy$1$[ebp]
  00252	50		 push	 eax
  00253	ff 75 e4	 push	 DWORD PTR _graphRegion$[ebp+4]
  00256	50		 push	 eax
  00257	56		 push	 esi
  00258	e8 00 00 00 00	 call	 ?DrawLine@CDraw@@IAEXPAVCDC@@UtagPOINT@@1@Z ; CDraw::DrawLine
; File C:\Program Files (x86)\Microsoft Visual Studio\2019\Community\VC\Tools\MSVC\14.29.30133\atlmfc\include\atltypes.h

; 576  : 	return right - left;

  0025d	8b 4d e8	 mov	 ecx, DWORD PTR _graphRegion$[ebp+8]
; File D:\git\src\IBK\IBK_DRFN\ProjSrc\SrcChartEx\ChartOCX\GraphDraw\FundDraw.cpp

; 390  : 	CDraw::DrawLine(pDC, CPoint(graphRegion.left + graphRegion.Width()/3, graphRegion.top), CPoint(graphRegion.left + graphRegion.Width()/3, graphRegion.bottom));

  00260	b8 56 55 55 55	 mov	 eax, 1431655766		; 55555556H
; File C:\Program Files (x86)\Microsoft Visual Studio\2019\Community\VC\Tools\MSVC\14.29.30133\atlmfc\include\atltypes.h

; 576  : 	return right - left;

  00265	2b 4d e0	 sub	 ecx, DWORD PTR _graphRegion$[ebp]
; File D:\git\src\IBK\IBK_DRFN\ProjSrc\SrcChartEx\ChartOCX\GraphDraw\FundDraw.cpp

; 390  : 	CDraw::DrawLine(pDC, CPoint(graphRegion.left + graphRegion.Width()/3, graphRegion.top), CPoint(graphRegion.left + graphRegion.Width()/3, graphRegion.bottom));

  00268	ff 75 ec	 push	 DWORD PTR _graphRegion$[ebp+12]
  0026b	f7 e9		 imul	 ecx
  0026d	8b c6		 mov	 eax, esi
  0026f	8b ca		 mov	 ecx, edx
  00271	c1 e9 1f	 shr	 ecx, 31			; 0000001fH
  00274	03 ca		 add	 ecx, edx
  00276	03 4d e0	 add	 ecx, DWORD PTR _graphRegion$[ebp]
  00279	51		 push	 ecx
  0027a	ff 75 e4	 push	 DWORD PTR _graphRegion$[ebp+4]
  0027d	51		 push	 ecx
  0027e	8b 4d dc	 mov	 ecx, DWORD PTR _this$GSCopy$1$[ebp]
  00281	50		 push	 eax
  00282	e8 00 00 00 00	 call	 ?DrawLine@CDraw@@IAEXPAVCDC@@UtagPOINT@@1@Z ; CDraw::DrawLine

; 391  : 	CDraw::DrawLine(pDC, CPoint(graphRegion.left + graphRegion.Width()*2/3, graphRegion.top), CPoint(graphRegion.left + graphRegion.Width()*2/3, graphRegion.bottom));

  00287	8b 4d e8	 mov	 ecx, DWORD PTR _graphRegion$[ebp+8]
  0028a	b8 56 55 55 55	 mov	 eax, 1431655766		; 55555556H
  0028f	2b 4d e0	 sub	 ecx, DWORD PTR _graphRegion$[ebp]
  00292	ff 75 ec	 push	 DWORD PTR _graphRegion$[ebp+12]
  00295	03 c9		 add	 ecx, ecx
  00297	f7 e9		 imul	 ecx
  00299	8b 4d dc	 mov	 ecx, DWORD PTR _this$GSCopy$1$[ebp]
  0029c	8b c2		 mov	 eax, edx
  0029e	c1 e8 1f	 shr	 eax, 31			; 0000001fH
  002a1	03 c2		 add	 eax, edx
  002a3	03 45 e0	 add	 eax, DWORD PTR _graphRegion$[ebp]
  002a6	50		 push	 eax
  002a7	ff 75 e4	 push	 DWORD PTR _graphRegion$[ebp+4]
  002aa	50		 push	 eax
  002ab	56		 push	 esi
  002ac	e8 00 00 00 00	 call	 ?DrawLine@CDraw@@IAEXPAVCDC@@UtagPOINT@@1@Z ; CDraw::DrawLine

; 392  : 	CDraw::DrawLine(pDC, CPoint(graphRegion.right, graphRegion.top), CPoint(graphRegion.right, graphRegion.bottom));

  002b1	ff 75 ec	 push	 DWORD PTR _graphRegion$[ebp+12]
; File C:\Program Files (x86)\Microsoft Visual Studio\2019\Community\VC\Tools\MSVC\14.29.30133\atlmfc\include\atltypes.h

; 408  : 	x = initX;

  002b4	8b 45 e8	 mov	 eax, DWORD PTR _graphRegion$[ebp+8]
; File D:\git\src\IBK\IBK_DRFN\ProjSrc\SrcChartEx\ChartOCX\GraphDraw\FundDraw.cpp

; 392  : 	CDraw::DrawLine(pDC, CPoint(graphRegion.right, graphRegion.top), CPoint(graphRegion.right, graphRegion.bottom));

  002b7	8b 4d dc	 mov	 ecx, DWORD PTR _this$GSCopy$1$[ebp]
  002ba	50		 push	 eax
  002bb	ff 75 e4	 push	 DWORD PTR _graphRegion$[ebp+4]
  002be	50		 push	 eax
  002bf	56		 push	 esi
  002c0	e8 00 00 00 00	 call	 ?DrawLine@CDraw@@IAEXPAVCDC@@UtagPOINT@@1@Z ; CDraw::DrawLine

; 394  : 	for(int i = dataStart; i <= xPositionPacket->GetCount(); i++){

  002c5	8b 4d cc	 mov	 ecx, DWORD PTR _xPositionPacket$1$[ebp]
  002c8	8b 01		 mov	 eax, DWORD PTR [ecx]
  002ca	8b 40 14	 mov	 eax, DWORD PTR [eax+20]
  002cd	ff d0		 call	 eax
  002cf	39 45 18	 cmp	 DWORD PTR _dataStart$[ebp], eax
  002d2	0f 8f 8e 02 00
	00		 jg	 $LN154@DrawStyleB
$LL4@DrawStyleB:

; 395  : 		if(xPosition == NULL || xPositionEnd == NULL || yPosition == NULL || yPositionEnd == NULL)

  002d8	85 ff		 test	 edi, edi
  002da	0f 84 86 02 00
	00		 je	 $LN154@DrawStyleB
  002e0	83 7d d0 00	 cmp	 DWORD PTR _xPositionEnd$1$[ebp], 0
  002e4	0f 84 7c 02 00
	00		 je	 $LN154@DrawStyleB
  002ea	8b 75 c8	 mov	 esi, DWORD PTR _yPosition$1$[ebp]
  002ed	85 f6		 test	 esi, esi
  002ef	0f 84 6e 02 00
	00		 je	 $LN156@DrawStyleB
  002f5	83 7d d4 00	 cmp	 DWORD PTR _yPositionEnd$1$[ebp], 0
  002f9	0f 84 64 02 00
	00		 je	 $LN156@DrawStyleB

; 396  : 			break;
; 397  : 
; 398  : 		count++;

  002ff	8b 45 b8	 mov	 eax, DWORD PTR _count$1$[ebp]

; 399  : 		if(count == 1){

  00302	0f 57 c9	 xorps	 xmm1, xmm1
  00305	f2 0f 10 05 00
	00 00 00	 movsd	 xmm0, QWORD PTR __real@402e000000000000
  0030d	40		 inc	 eax
  0030e	8b 4d cc	 mov	 ecx, DWORD PTR _xPositionPacket$1$[ebp]
  00311	89 45 b8	 mov	 DWORD PTR _count$1$[ebp], eax
  00314	83 f8 01	 cmp	 eax, 1
  00317	75 64		 jne	 SHORT $LN12@DrawStyleB

; 400  : 			startDataPt = CDataConversion::GetVerticalPoint(graphRegion, 0.0, (double)gridCount, 0.0, (double)gridCount, 

  00319	f2 0f 11 45 a8	 movsd	 QWORD PTR $T16[ebp], xmm0
  0031e	f2 0f 11 4d 88	 movsd	 QWORD PTR $T14[ebp], xmm1
  00323	f2 0f 11 45 90	 movsd	 QWORD PTR $T15[ebp], xmm0
  00328	f2 0f 11 4d c4	 movsd	 QWORD PTR $T17[ebp], xmm1
  0032d	ff 15 00 00 00
	00		 call	 DWORD PTR __imp_?GetnumericDataList@CPacket@@QAEPAV?$CList@NN@@XZ
  00333	8b 4d c0	 mov	 ecx, DWORD PTR _yPositionPacket$1$[ebp]
  00336	ff 15 00 00 00
	00		 call	 DWORD PTR __imp_?GetnumericDataList@CPacket@@QAEPAV?$CList@NN@@XZ
; File C:\Program Files (x86)\Microsoft Visual Studio\2019\Community\VC\Tools\MSVC\14.29.30133\atlmfc\include\afxtempl.h

; 814  : 		return pNode->data; }

  0033c	8d 47 08	 lea	 eax, DWORD PTR [edi+8]
; File D:\git\src\IBK\IBK_DRFN\ProjSrc\SrcChartEx\ChartOCX\GraphDraw\FundDraw.cpp

; 400  : 			startDataPt = CDataConversion::GetVerticalPoint(graphRegion, 0.0, (double)gridCount, 0.0, (double)gridCount, 

  0033f	50		 push	 eax
; File C:\Program Files (x86)\Microsoft Visual Studio\2019\Community\VC\Tools\MSVC\14.29.30133\atlmfc\include\afxtempl.h

; 814  : 		return pNode->data; }

  00340	8d 46 08	 lea	 eax, DWORD PTR [esi+8]
; File D:\git\src\IBK\IBK_DRFN\ProjSrc\SrcChartEx\ChartOCX\GraphDraw\FundDraw.cpp

; 400  : 			startDataPt = CDataConversion::GetVerticalPoint(graphRegion, 0.0, (double)gridCount, 0.0, (double)gridCount, 

  00343	50		 push	 eax
  00344	8d 45 a8	 lea	 eax, DWORD PTR $T16[ebp]
  00347	50		 push	 eax
  00348	8d 45 88	 lea	 eax, DWORD PTR $T14[ebp]
  0034b	50		 push	 eax
  0034c	8d 45 90	 lea	 eax, DWORD PTR $T15[ebp]
  0034f	50		 push	 eax
  00350	8d 45 c4	 lea	 eax, DWORD PTR $T17[ebp]
  00353	50		 push	 eax
  00354	8d 45 e0	 lea	 eax, DWORD PTR _graphRegion$[ebp]
  00357	50		 push	 eax
  00358	8d 85 20 ff ff
	ff		 lea	 eax, DWORD PTR $T4[ebp]
  0035e	50		 push	 eax
  0035f	e8 00 00 00 00	 call	 ?GetVerticalPoint@CDataConversion@@SA?AVCPoint@@ABVCRect@@ABN11111@Z ; CDataConversion::GetVerticalPoint

; 401  : 				yPositionPacket->GetnumericDataList()->GetNext(yPosition), xPositionPacket->GetnumericDataList()->GetNext(xPosition));
; 402  : 			endDataPt = startDataPt;
; 403  : 			yPosition = yPositionEnd;

  00364	8b 55 d4	 mov	 edx, DWORD PTR _yPositionEnd$1$[ebp]

; 404  : 			xPosition = xPositionEnd;

  00367	8b 7d d0	 mov	 edi, DWORD PTR _xPositionEnd$1$[ebp]
  0036a	8b 08		 mov	 ecx, DWORD PTR [eax]
  0036c	8b 40 04	 mov	 eax, DWORD PTR [eax+4]
  0036f	89 4d bc	 mov	 DWORD PTR _startDataPt$1$[ebp], ecx
  00372	89 45 ac	 mov	 DWORD PTR _startDataPt$2$[ebp], eax
  00375	89 55 c8	 mov	 DWORD PTR _yPosition$1$[ebp], edx

; 405  : 		}

  00378	e9 00 01 00 00	 jmp	 $LN160@DrawStyleB
$LN12@DrawStyleB:

; 407  : 			startDataPt = CDataConversion::GetVerticalPoint(graphRegion, 0.0, (double)gridCount, 0.0, (double)gridCount, yPositionPacket->GetnumericDataList()->GetNext(yPosition), xPositionPacket->GetnumericDataList()->GetNext(xPosition));

  0037d	f2 0f 11 85 60
	ff ff ff	 movsd	 QWORD PTR $T12[ebp], xmm0
  00385	f2 0f 11 8d 58
	ff ff ff	 movsd	 QWORD PTR $T11[ebp], xmm1
  0038d	f2 0f 11 85 50
	ff ff ff	 movsd	 QWORD PTR $T10[ebp], xmm0
  00395	f2 0f 11 8d 48
	ff ff ff	 movsd	 QWORD PTR $T9[ebp], xmm1
  0039d	ff 15 00 00 00
	00		 call	 DWORD PTR __imp_?GetnumericDataList@CPacket@@QAEPAV?$CList@NN@@XZ
  003a3	8b 4d c0	 mov	 ecx, DWORD PTR _yPositionPacket$1$[ebp]
; File C:\Program Files (x86)\Microsoft Visual Studio\2019\Community\VC\Tools\MSVC\14.29.30133\atlmfc\include\afxtempl.h

; 811  : 	{ CNode* pNode = (CNode*) rPosition;

  003a6	8b f7		 mov	 esi, edi

; 813  : 		rPosition = (POSITION) pNode->pNext;

  003a8	8b 3f		 mov	 edi, DWORD PTR [edi]
; File D:\git\src\IBK\IBK_DRFN\ProjSrc\SrcChartEx\ChartOCX\GraphDraw\FundDraw.cpp

; 407  : 			startDataPt = CDataConversion::GetVerticalPoint(graphRegion, 0.0, (double)gridCount, 0.0, (double)gridCount, yPositionPacket->GetnumericDataList()->GetNext(yPosition), xPositionPacket->GetnumericDataList()->GetNext(xPosition));

  003aa	ff 15 00 00 00
	00		 call	 DWORD PTR __imp_?GetnumericDataList@CPacket@@QAEPAV?$CList@NN@@XZ
; File C:\Program Files (x86)\Microsoft Visual Studio\2019\Community\VC\Tools\MSVC\14.29.30133\atlmfc\include\afxtempl.h

; 811  : 	{ CNode* pNode = (CNode*) rPosition;

  003b0	8b 45 c8	 mov	 eax, DWORD PTR _yPosition$1$[ebp]
  003b3	8b c8		 mov	 ecx, eax

; 813  : 		rPosition = (POSITION) pNode->pNext;

  003b5	8b 00		 mov	 eax, DWORD PTR [eax]
  003b7	89 45 c8	 mov	 DWORD PTR _yPosition$1$[ebp], eax

; 814  : 		return pNode->data; }

  003ba	8d 46 08	 lea	 eax, DWORD PTR [esi+8]
; File D:\git\src\IBK\IBK_DRFN\ProjSrc\SrcChartEx\ChartOCX\GraphDraw\FundDraw.cpp

; 407  : 			startDataPt = CDataConversion::GetVerticalPoint(graphRegion, 0.0, (double)gridCount, 0.0, (double)gridCount, yPositionPacket->GetnumericDataList()->GetNext(yPosition), xPositionPacket->GetnumericDataList()->GetNext(xPosition));

  003bd	50		 push	 eax
; File C:\Program Files (x86)\Microsoft Visual Studio\2019\Community\VC\Tools\MSVC\14.29.30133\atlmfc\include\afxtempl.h

; 814  : 		return pNode->data; }

  003be	8d 41 08	 lea	 eax, DWORD PTR [ecx+8]
; File D:\git\src\IBK\IBK_DRFN\ProjSrc\SrcChartEx\ChartOCX\GraphDraw\FundDraw.cpp

; 407  : 			startDataPt = CDataConversion::GetVerticalPoint(graphRegion, 0.0, (double)gridCount, 0.0, (double)gridCount, yPositionPacket->GetnumericDataList()->GetNext(yPosition), xPositionPacket->GetnumericDataList()->GetNext(xPosition));

  003c1	50		 push	 eax
  003c2	8d 85 60 ff ff
	ff		 lea	 eax, DWORD PTR $T12[ebp]
  003c8	50		 push	 eax
  003c9	8d 85 58 ff ff
	ff		 lea	 eax, DWORD PTR $T11[ebp]
  003cf	50		 push	 eax
  003d0	8d 85 50 ff ff
	ff		 lea	 eax, DWORD PTR $T10[ebp]
  003d6	50		 push	 eax
  003d7	8d 85 48 ff ff
	ff		 lea	 eax, DWORD PTR $T9[ebp]
  003dd	50		 push	 eax
  003de	8d 45 e0	 lea	 eax, DWORD PTR _graphRegion$[ebp]
  003e1	50		 push	 eax
  003e2	8d 85 18 ff ff
	ff		 lea	 eax, DWORD PTR $T3[ebp]
  003e8	50		 push	 eax
  003e9	e8 00 00 00 00	 call	 ?GetVerticalPoint@CDataConversion@@SA?AVCPoint@@ABVCRect@@ABN11111@Z ; CDataConversion::GetVerticalPoint

; 410  : 			endDataPt = CDataConversion::GetVerticalPoint(graphRegion, 0.0, (double)gridCount, 0.0, (double)gridCount, yPositionPacket->GetnumericDataList()->GetNext(yPositionEnd), xPositionPacket->GetnumericDataList()->GetNext(xPositionEnd));

  003ee	f2 0f 10 05 00
	00 00 00	 movsd	 xmm0, QWORD PTR __real@402e000000000000
  003f6	83 c4 20	 add	 esp, 32			; 00000020H
  003f9	8b 35 00 00 00
	00		 mov	 esi, DWORD PTR __imp_?GetnumericDataList@CPacket@@QAEPAV?$CList@NN@@XZ
  003ff	0f 57 c9	 xorps	 xmm1, xmm1
  00402	f2 0f 11 85 40
	ff ff ff	 movsd	 QWORD PTR $T8[ebp], xmm0
  0040a	8b 08		 mov	 ecx, DWORD PTR [eax]
  0040c	8b 40 04	 mov	 eax, DWORD PTR [eax+4]
  0040f	89 4d bc	 mov	 DWORD PTR _startDataPt$1$[ebp], ecx
  00412	8b 4d cc	 mov	 ecx, DWORD PTR _xPositionPacket$1$[ebp]
  00415	89 45 ac	 mov	 DWORD PTR _startDataPt$2$[ebp], eax
  00418	f2 0f 11 8d 38
	ff ff ff	 movsd	 QWORD PTR $T7[ebp], xmm1
  00420	f2 0f 11 85 30
	ff ff ff	 movsd	 QWORD PTR $T6[ebp], xmm0
  00428	f2 0f 11 8d 28
	ff ff ff	 movsd	 QWORD PTR $T5[ebp], xmm1
  00430	ff d6		 call	 esi
; File C:\Program Files (x86)\Microsoft Visual Studio\2019\Community\VC\Tools\MSVC\14.29.30133\atlmfc\include\afxtempl.h

; 813  : 		rPosition = (POSITION) pNode->pNext;

  00432	8b 07		 mov	 eax, DWORD PTR [edi]
; File D:\git\src\IBK\IBK_DRFN\ProjSrc\SrcChartEx\ChartOCX\GraphDraw\FundDraw.cpp

; 410  : 			endDataPt = CDataConversion::GetVerticalPoint(graphRegion, 0.0, (double)gridCount, 0.0, (double)gridCount, yPositionPacket->GetnumericDataList()->GetNext(yPositionEnd), xPositionPacket->GetnumericDataList()->GetNext(xPositionEnd));

  00434	8b 4d c0	 mov	 ecx, DWORD PTR _yPositionPacket$1$[ebp]
; File C:\Program Files (x86)\Microsoft Visual Studio\2019\Community\VC\Tools\MSVC\14.29.30133\atlmfc\include\afxtempl.h

; 813  : 		rPosition = (POSITION) pNode->pNext;

  00437	89 45 d0	 mov	 DWORD PTR _xPositionEnd$1$[ebp], eax
; File D:\git\src\IBK\IBK_DRFN\ProjSrc\SrcChartEx\ChartOCX\GraphDraw\FundDraw.cpp

; 410  : 			endDataPt = CDataConversion::GetVerticalPoint(graphRegion, 0.0, (double)gridCount, 0.0, (double)gridCount, yPositionPacket->GetnumericDataList()->GetNext(yPositionEnd), xPositionPacket->GetnumericDataList()->GetNext(xPositionEnd));

  0043a	ff d6		 call	 esi
; File C:\Program Files (x86)\Microsoft Visual Studio\2019\Community\VC\Tools\MSVC\14.29.30133\atlmfc\include\afxtempl.h

; 813  : 		rPosition = (POSITION) pNode->pNext;

  0043c	8b 75 c8	 mov	 esi, DWORD PTR _yPosition$1$[ebp]
  0043f	8b 06		 mov	 eax, DWORD PTR [esi]
  00441	89 45 d4	 mov	 DWORD PTR _yPositionEnd$1$[ebp], eax

; 814  : 		return pNode->data; }

  00444	8d 47 08	 lea	 eax, DWORD PTR [edi+8]
; File D:\git\src\IBK\IBK_DRFN\ProjSrc\SrcChartEx\ChartOCX\GraphDraw\FundDraw.cpp

; 410  : 			endDataPt = CDataConversion::GetVerticalPoint(graphRegion, 0.0, (double)gridCount, 0.0, (double)gridCount, yPositionPacket->GetnumericDataList()->GetNext(yPositionEnd), xPositionPacket->GetnumericDataList()->GetNext(xPositionEnd));

  00447	50		 push	 eax
; File C:\Program Files (x86)\Microsoft Visual Studio\2019\Community\VC\Tools\MSVC\14.29.30133\atlmfc\include\afxtempl.h

; 814  : 		return pNode->data; }

  00448	8d 46 08	 lea	 eax, DWORD PTR [esi+8]
; File D:\git\src\IBK\IBK_DRFN\ProjSrc\SrcChartEx\ChartOCX\GraphDraw\FundDraw.cpp

; 410  : 			endDataPt = CDataConversion::GetVerticalPoint(graphRegion, 0.0, (double)gridCount, 0.0, (double)gridCount, yPositionPacket->GetnumericDataList()->GetNext(yPositionEnd), xPositionPacket->GetnumericDataList()->GetNext(xPositionEnd));

  0044b	50		 push	 eax
  0044c	8d 85 40 ff ff
	ff		 lea	 eax, DWORD PTR $T8[ebp]
  00452	50		 push	 eax
  00453	8d 85 38 ff ff
	ff		 lea	 eax, DWORD PTR $T7[ebp]
  00459	50		 push	 eax
  0045a	8d 85 30 ff ff
	ff		 lea	 eax, DWORD PTR $T6[ebp]
  00460	50		 push	 eax
  00461	8d 85 28 ff ff
	ff		 lea	 eax, DWORD PTR $T5[ebp]
  00467	50		 push	 eax
  00468	8d 45 e0	 lea	 eax, DWORD PTR _graphRegion$[ebp]
  0046b	50		 push	 eax
  0046c	8d 85 10 ff ff
	ff		 lea	 eax, DWORD PTR $T2[ebp]
  00472	50		 push	 eax
  00473	e8 00 00 00 00	 call	 ?GetVerticalPoint@CDataConversion@@SA?AVCPoint@@ABVCRect@@ABN11111@Z ; CDataConversion::GetVerticalPoint
  00478	8b 08		 mov	 ecx, DWORD PTR [eax]
  0047a	8b 40 04	 mov	 eax, DWORD PTR [eax+4]
$LN160@DrawStyleB:

; 411  : 		}
; 412  : 		// line  .
; 413  : 		pDC->SelectObject(&linePen);

  0047d	8b 75 d8	 mov	 esi, DWORD PTR _pDC$GSCopy$1$[ebp]
  00480	83 c4 20	 add	 esp, 32			; 00000020H
  00483	89 45 8c	 mov	 DWORD PTR _endDataPt$1$[ebp], eax
  00486	8d 45 98	 lea	 eax, DWORD PTR _linePen$[ebp]
  00489	89 4d 94	 mov	 DWORD PTR _endDataPt$2$[ebp], ecx
  0048c	8b ce		 mov	 ecx, esi
  0048e	50		 push	 eax
  0048f	e8 00 00 00 00	 call	 ?SelectObject@CDC@@QAEPAVCPen@@PAV2@@Z ; CDC::SelectObject

; 414  : 		CDraw::DrawLine(pDC, startDataPt, endDataPt);

  00494	ff 75 8c	 push	 DWORD PTR _endDataPt$1$[ebp]
  00497	8b 4d dc	 mov	 ecx, DWORD PTR _this$GSCopy$1$[ebp]
  0049a	ff 75 94	 push	 DWORD PTR _endDataPt$2$[ebp]
  0049d	ff 75 ac	 push	 DWORD PTR _startDataPt$2$[ebp]
  004a0	ff 75 bc	 push	 DWORD PTR _startDataPt$1$[ebp]
  004a3	56		 push	 esi
  004a4	e8 00 00 00 00	 call	 ?DrawLine@CDraw@@IAEXPAVCDC@@UtagPOINT@@1@Z ; CDraw::DrawLine
  004a9	8b 45 94	 mov	 eax, DWORD PTR _endDataPt$2$[ebp]
  004ac	8d 48 fb	 lea	 ecx, DWORD PTR [eax-5]
; File C:\Program Files (x86)\Microsoft Visual Studio\2019\Community\VC\Tools\MSVC\14.29.30133\atlmfc\include\atltypes.h

; 541  : 	top = t;

  004af	83 c0 05	 add	 eax, 5
; File D:\git\src\IBK\IBK_DRFN\ProjSrc\SrcChartEx\ChartOCX\GraphDraw\FundDraw.cpp

; 419  : 		if(count == 1){

  004b2	83 7d b8 01	 cmp	 DWORD PTR _count$1$[ebp], 1
; File C:\Program Files (x86)\Microsoft Visual Studio\2019\Community\VC\Tools\MSVC\14.29.30133\atlmfc\include\atltypes.h

; 540  : 	left = l;

  004b6	89 8d 70 ff ff
	ff		 mov	 DWORD PTR _rect$13[ebp], ecx
  004bc	8b 4d 8c	 mov	 ecx, DWORD PTR _endDataPt$1$[ebp]

; 542  : 	right = r;

  004bf	89 85 78 ff ff
	ff		 mov	 DWORD PTR _rect$13[ebp+8], eax
  004c5	8d 51 fb	 lea	 edx, DWORD PTR [ecx-5]
  004c8	8d 41 05	 lea	 eax, DWORD PTR [ecx+5]
  004cb	89 95 74 ff ff
	ff		 mov	 DWORD PTR _rect$13[ebp+4], edx

; 543  : 	bottom = b;

  004d1	89 85 7c ff ff
	ff		 mov	 DWORD PTR _rect$13[ebp+12], eax
; File D:\git\src\IBK\IBK_DRFN\ProjSrc\SrcChartEx\ChartOCX\GraphDraw\FundDraw.cpp

; 419  : 		if(count == 1){

  004d7	75 3b		 jne	 SHORT $LN14@DrawStyleB

; 420  : 			pDC->SelectObject(GetStockObject(NULL_BRUSH));

  004d9	6a 05		 push	 5
  004db	ff 15 00 00 00
	00		 call	 DWORD PTR __imp__GetStockObject@4
; File C:\Program Files (x86)\Microsoft Visual Studio\2019\Community\VC\Tools\MSVC\14.29.30133\atlmfc\include\afxwin1.inl

; 366  : 		return (hObject != NULL) ? ::SelectObject(m_hDC, hObject) : NULL; }

  004e1	85 c0		 test	 eax, eax
  004e3	74 0a		 je	 SHORT $LN123@DrawStyleB
  004e5	50		 push	 eax
  004e6	ff 76 04	 push	 DWORD PTR [esi+4]
  004e9	ff 15 00 00 00
	00		 call	 DWORD PTR __imp__SelectObject@8
$LN123@DrawStyleB:
; File D:\git\src\IBK\IBK_DRFN\ProjSrc\SrcChartEx\ChartOCX\GraphDraw\FundDraw.cpp

; 421  : 			pDC->SelectObject(&ellipsPen);

  004ef	8d 45 b0	 lea	 eax, DWORD PTR _ellipsPen$[ebp]
  004f2	8b ce		 mov	 ecx, esi
  004f4	50		 push	 eax
  004f5	e8 00 00 00 00	 call	 ?SelectObject@CDC@@QAEPAVCPen@@PAV2@@Z ; CDC::SelectObject

; 422  : 			CDraw::DrawRectangle(pDC, rect);

  004fa	0f 10 85 70 ff
	ff ff		 movups	 xmm0, XMMWORD PTR _rect$13[ebp]
  00501	8b 4d dc	 mov	 ecx, DWORD PTR _this$GSCopy$1$[ebp]
  00504	83 ec 10	 sub	 esp, 16			; 00000010H
  00507	8b c4		 mov	 eax, esp
  00509	56		 push	 esi
  0050a	0f 11 00	 movups	 XMMWORD PTR [eax], xmm0
  0050d	e8 00 00 00 00	 call	 ?DrawRectangle@CDraw@@IAEXPAVCDC@@VCRect@@@Z ; CDraw::DrawRectangle

; 423  : 		}

  00512	eb 37		 jmp	 SHORT $LN2@DrawStyleB
$LN14@DrawStyleB:

; 424  : 		else{
; 425  : 			pDC->SelectObject(&ellipsBrush);

  00514	8d 45 80	 lea	 eax, DWORD PTR _ellipsBrush$[ebp]
  00517	8b ce		 mov	 ecx, esi
  00519	50		 push	 eax
  0051a	e8 00 00 00 00	 call	 ?SelectObject@CDC@@QAEPAVCBrush@@PAV2@@Z ; CDC::SelectObject

; 426  : 			pDC->SelectObject(&ellipsPen);

  0051f	8d 45 b0	 lea	 eax, DWORD PTR _ellipsPen$[ebp]
  00522	8b ce		 mov	 ecx, esi
  00524	50		 push	 eax
  00525	e8 00 00 00 00	 call	 ?SelectObject@CDC@@QAEPAVCPen@@PAV2@@Z ; CDC::SelectObject
; File C:\Program Files (x86)\Microsoft Visual Studio\2019\Community\VC\Tools\MSVC\14.29.30133\atlmfc\include\afxwin1.inl

; 526  : 	{ ASSERT(m_hDC != NULL); return ::Ellipse(m_hDC, lpRect->left, lpRect->top,

  0052a	ff b5 7c ff ff
	ff		 push	 DWORD PTR _rect$13[ebp+12]
  00530	ff b5 78 ff ff
	ff		 push	 DWORD PTR _rect$13[ebp+8]
  00536	ff b5 74 ff ff
	ff		 push	 DWORD PTR _rect$13[ebp+4]
  0053c	ff b5 70 ff ff
	ff		 push	 DWORD PTR _rect$13[ebp]
  00542	ff 76 04	 push	 DWORD PTR [esi+4]
  00545	ff 15 00 00 00
	00		 call	 DWORD PTR __imp__Ellipse@20
$LN2@DrawStyleB:
; File D:\git\src\IBK\IBK_DRFN\ProjSrc\SrcChartEx\ChartOCX\GraphDraw\FundDraw.cpp

; 394  : 	for(int i = dataStart; i <= xPositionPacket->GetCount(); i++){

  0054b	8b 4d cc	 mov	 ecx, DWORD PTR _xPositionPacket$1$[ebp]
  0054e	ff 45 18	 inc	 DWORD PTR _dataStart$[ebp]
  00551	8b 01		 mov	 eax, DWORD PTR [ecx]
  00553	8b 40 14	 mov	 eax, DWORD PTR [eax+20]
  00556	ff d0		 call	 eax
  00558	39 45 18	 cmp	 DWORD PTR _dataStart$[ebp], eax
  0055b	0f 8e 77 fd ff
	ff		 jle	 $LL4@DrawStyleB

; 395  : 		if(xPosition == NULL || xPositionEnd == NULL || yPosition == NULL || yPositionEnd == NULL)

  00561	eb 03		 jmp	 SHORT $LN154@DrawStyleB
$LN156@DrawStyleB:

; 427  : 			pDC->Ellipse(rect);
; 428  : 		}
; 429  : 	}
; 430  : 
; 431  : 	pDC->SelectObject(pOldBrush);

  00563	8b 75 d8	 mov	 esi, DWORD PTR _pDC$GSCopy$1$[ebp]
$LN154@DrawStyleB:
  00566	ff b5 6c ff ff
	ff		 push	 DWORD PTR _pOldBrush$1$[ebp]
  0056c	8b ce		 mov	 ecx, esi
  0056e	e8 00 00 00 00	 call	 ?SelectObject@CDC@@QAEPAVCBrush@@PAV2@@Z ; CDC::SelectObject

; 432  : 	pDC->SelectObject(pOldPen);

  00573	ff b5 68 ff ff
	ff		 push	 DWORD PTR _pOldPen$1$[ebp]
  00579	8b ce		 mov	 ecx, esi
  0057b	e8 00 00 00 00	 call	 ?SelectObject@CDC@@QAEPAVCPen@@PAV2@@Z ; CDC::SelectObject

; 433  : 
; 434  : 	ellipsBrush.DeleteObject();

  00580	8d 4d 80	 lea	 ecx, DWORD PTR _ellipsBrush$[ebp]
  00583	e8 00 00 00 00	 call	 ?DeleteObject@CGdiObject@@QAEHXZ ; CGdiObject::DeleteObject

; 435  : 
; 436  : 	ellipsPen.DeleteObject();

  00588	8d 4d b0	 lea	 ecx, DWORD PTR _ellipsPen$[ebp]
  0058b	e8 00 00 00 00	 call	 ?DeleteObject@CGdiObject@@QAEHXZ ; CGdiObject::DeleteObject

; 437  : 	linePen.DeleteObject();

  00590	8d 4d 98	 lea	 ecx, DWORD PTR _linePen$[ebp]
  00593	e8 00 00 00 00	 call	 ?DeleteObject@CGdiObject@@QAEHXZ ; CGdiObject::DeleteObject

; 438  : 	gridPen.DeleteObject();

  00598	8d 4d a0	 lea	 ecx, DWORD PTR _gridPen$[ebp]
  0059b	e8 00 00 00 00	 call	 ?DeleteObject@CGdiObject@@QAEHXZ ; CGdiObject::DeleteObject
; File C:\Program Files (x86)\Microsoft Visual Studio\2019\Community\VC\Tools\MSVC\14.29.30133\atlmfc\include\afxwin1.inl

; 106  : 	{ }

  005a0	8d 4d a0	 lea	 ecx, DWORD PTR _gridPen$[ebp]
  005a3	c7 45 a0 00 00
	00 00		 mov	 DWORD PTR _gridPen$[ebp], OFFSET ??_7CPen@@6B@
  005aa	e8 00 00 00 00	 call	 ??1CGdiObject@@UAE@XZ	; CGdiObject::~CGdiObject
  005af	8d 4d 98	 lea	 ecx, DWORD PTR _linePen$[ebp]
  005b2	c7 45 98 00 00
	00 00		 mov	 DWORD PTR _linePen$[ebp], OFFSET ??_7CPen@@6B@
  005b9	e8 00 00 00 00	 call	 ??1CGdiObject@@UAE@XZ	; CGdiObject::~CGdiObject
  005be	8d 4d b0	 lea	 ecx, DWORD PTR _ellipsPen$[ebp]
  005c1	c7 45 b0 00 00
	00 00		 mov	 DWORD PTR _ellipsPen$[ebp], OFFSET ??_7CPen@@6B@
  005c8	e8 00 00 00 00	 call	 ??1CGdiObject@@UAE@XZ	; CGdiObject::~CGdiObject

; 130  : 	{ }

  005cd	8d 4d 80	 lea	 ecx, DWORD PTR _ellipsBrush$[ebp]
  005d0	c7 45 80 00 00
	00 00		 mov	 DWORD PTR _ellipsBrush$[ebp], OFFSET ??_7CBrush@@6B@
  005d7	e8 00 00 00 00	 call	 ??1CGdiObject@@UAE@XZ	; CGdiObject::~CGdiObject
; File D:\git\src\IBK\IBK_DRFN\ProjSrc\SrcChartEx\ChartOCX\GraphDraw\FundDraw.cpp

; 440  : 	return true;

  005dc	b0 01		 mov	 al, 1
  005de	eb 02		 jmp	 SHORT $LN1@DrawStyleB
$LN6@DrawStyleB:

; 349  : 		yPositionPacket = packetList.GetNext(headPos);
; 350  : 	}
; 351  : 	else
; 352  : 		return false;

  005e0	32 c0		 xor	 al, al
$LN1@DrawStyleB:

; 441  : }

  005e2	8b 4d f4	 mov	 ecx, DWORD PTR __$EHRec$[ebp]
  005e5	64 89 0d 00 00
	00 00		 mov	 DWORD PTR fs:0, ecx
  005ec	59		 pop	 ecx
  005ed	5f		 pop	 edi
  005ee	5e		 pop	 esi
  005ef	8b 4d f0	 mov	 ecx, DWORD PTR __$ArrayPad$[ebp]
  005f2	33 cd		 xor	 ecx, ebp
  005f4	e8 00 00 00 00	 call	 @__security_check_cookie@4
  005f9	8b e5		 mov	 esp, ebp
  005fb	5d		 pop	 ebp
  005fc	c2 34 00	 ret	 52			; 00000034H
_TEXT	ENDS
;	COMDAT text$x
text$x	SEGMENT
__unwindfunclet$?DrawStyleBox@CFundDraw@@AAE_NPAVCDC@@ABVCEtcGraphColor@@ABVCRect@@ABVCGraphColor@@HABN4ABV?$CList@PAVCPacket@@PAV1@@@VCPenThickness@@@Z$0:
  00000	8d 4d 80	 lea	 ecx, DWORD PTR _ellipsBrush$[ebp]
  00003	e9 00 00 00 00	 jmp	 ??1CBrush@@UAE@XZ	; CBrush::~CBrush
__unwindfunclet$?DrawStyleBox@CFundDraw@@AAE_NPAVCDC@@ABVCEtcGraphColor@@ABVCRect@@ABVCGraphColor@@HABN4ABV?$CList@PAVCPacket@@PAV1@@@VCPenThickness@@@Z$1:
  00008	8d 4d b0	 lea	 ecx, DWORD PTR _ellipsPen$[ebp]
  0000b	e9 00 00 00 00	 jmp	 ??1CPen@@UAE@XZ		; CPen::~CPen
__unwindfunclet$?DrawStyleBox@CFundDraw@@AAE_NPAVCDC@@ABVCEtcGraphColor@@ABVCRect@@ABVCGraphColor@@HABN4ABV?$CList@PAVCPacket@@PAV1@@@VCPenThickness@@@Z$2:
  00010	8d 4d 98	 lea	 ecx, DWORD PTR _linePen$[ebp]
  00013	e9 00 00 00 00	 jmp	 ??1CPen@@UAE@XZ		; CPen::~CPen
__unwindfunclet$?DrawStyleBox@CFundDraw@@AAE_NPAVCDC@@ABVCEtcGraphColor@@ABVCRect@@ABVCGraphColor@@HABN4ABV?$CList@PAVCPacket@@PAV1@@@VCPenThickness@@@Z$3:
  00018	8d 4d a0	 lea	 ecx, DWORD PTR _gridPen$[ebp]
  0001b	e9 00 00 00 00	 jmp	 ??1CPen@@UAE@XZ		; CPen::~CPen
  00020	cc		 int	 3
  00021	cc		 int	 3
  00022	cc		 int	 3
  00023	cc		 int	 3
  00024	cc		 int	 3
__ehhandler$?DrawStyleBox@CFundDraw@@AAE_NPAVCDC@@ABVCEtcGraphColor@@ABVCRect@@ABVCGraphColor@@HABN4ABV?$CList@PAVCPacket@@PAV1@@@VCPenThickness@@@Z:
  00025	90		 npad	 1
  00026	90		 npad	 1
  00027	8b 54 24 08	 mov	 edx, DWORD PTR [esp+8]
  0002b	8d 42 0c	 lea	 eax, DWORD PTR [edx+12]
  0002e	8b 8a 10 ff ff
	ff		 mov	 ecx, DWORD PTR [edx-240]
  00034	33 c8		 xor	 ecx, eax
  00036	e8 00 00 00 00	 call	 @__security_check_cookie@4
  0003b	8b 4a fc	 mov	 ecx, DWORD PTR [edx-4]
  0003e	33 c8		 xor	 ecx, eax
  00040	e8 00 00 00 00	 call	 @__security_check_cookie@4
  00045	b8 00 00 00 00	 mov	 eax, OFFSET __ehfuncinfo$?DrawStyleBox@CFundDraw@@AAE_NPAVCDC@@ABVCEtcGraphColor@@ABVCRect@@ABVCGraphColor@@HABN4ABV?$CList@PAVCPacket@@PAV1@@@VCPenThickness@@@Z
  0004a	e9 00 00 00 00	 jmp	 ___CxxFrameHandler3
text$x	ENDS
?DrawStyleBox@CFundDraw@@AAE_NPAVCDC@@ABVCEtcGraphColor@@ABVCRect@@ABVCGraphColor@@HABN4ABV?$CList@PAVCPacket@@PAV1@@@VCPenThickness@@@Z ENDP ; CFundDraw::DrawStyleBox
; Function compile flags: /Ogtp
; File D:\git\src\IBK\IBK_DRFN\ProjSrc\SrcChartEx\ChartOCX\GraphDraw\FundDraw.cpp
; File C:\Program Files (x86)\Microsoft Visual Studio\2019\Community\VC\Tools\MSVC\14.29.30133\atlmfc\include\afxtempl.h
; File D:\git\src\IBK\IBK_DRFN\ProjSrc\SrcChartEx\ChartOCX\GraphDraw\FundDraw.cpp
; File C:\Program Files (x86)\Microsoft Visual Studio\2019\Community\VC\Tools\MSVC\14.29.30133\atlmfc\include\afxtempl.h
; File D:\git\src\IBK\IBK_DRFN\ProjSrc\SrcChartEx\ChartOCX\GraphDraw\FundDraw.cpp
; File C:\Program Files (x86)\Microsoft Visual Studio\2019\Community\VC\Tools\MSVC\14.29.30133\atlmfc\include\afxtempl.h
; File D:\git\src\IBK\IBK_DRFN\ProjSrc\SrcChartEx\ChartOCX\GraphDraw\FundDraw.cpp
; File C:\Program Files (x86)\Microsoft Visual Studio\2019\Community\VC\Tools\MSVC\14.29.30133\atlmfc\include\afxwin1.inl
; File D:\git\src\IBK\IBK_DRFN\ProjSrc\SrcChartEx\ChartOCX\GraphDraw\FundDraw.cpp
; File C:\Program Files (x86)\Microsoft Visual Studio\2019\Community\VC\Tools\MSVC\14.29.30133\atlmfc\include\afxwin1.inl
; File D:\git\src\IBK\IBK_DRFN\ProjSrc\SrcChartEx\ChartOCX\GraphDraw\FundDraw.cpp
; File C:\Program Files (x86)\Microsoft Visual Studio\2019\Community\VC\Tools\MSVC\14.29.30133\atlmfc\include\afxwin1.inl
; File D:\git\src\IBK\IBK_DRFN\ProjSrc\SrcChartEx\ChartOCX\GraphDraw\FundDraw.cpp
; File C:\Program Files (x86)\Microsoft Visual Studio\2019\Community\VC\Tools\MSVC\14.29.30133\atlmfc\include\afxwin1.inl
; File D:\git\src\IBK\IBK_DRFN\ProjSrc\SrcChartEx\ChartOCX\GraphDraw\FundDraw.cpp
; File C:\Program Files (x86)\Microsoft Visual Studio\2019\Community\VC\Tools\MSVC\14.29.30133\atlmfc\include\afxwin1.inl
; File D:\git\src\IBK\IBK_DRFN\ProjSrc\SrcChartEx\ChartOCX\GraphDraw\FundDraw.cpp
; File C:\Program Files (x86)\Microsoft Visual Studio\2019\Community\VC\Tools\MSVC\14.29.30133\atlmfc\include\afxwin1.inl
; File D:\git\src\IBK\IBK_DRFN\ProjSrc\SrcChartEx\ChartOCX\GraphDraw\FundDraw.cpp
; File C:\Program Files (x86)\Microsoft Visual Studio\2019\Community\VC\Tools\MSVC\14.29.30133\atlmfc\include\afxwin1.inl
; File D:\git\src\IBK\IBK_DRFN\ProjSrc\SrcChartEx\ChartOCX\GraphDraw\FundDraw.cpp
; File C:\Program Files (x86)\Microsoft Visual Studio\2019\Community\VC\Tools\MSVC\14.29.30133\atlmfc\include\afxwin1.inl
; File D:\git\src\IBK\IBK_DRFN\ProjSrc\SrcChartEx\ChartOCX\GraphDraw\FundDraw.cpp
; File C:\Program Files (x86)\Microsoft Visual Studio\2019\Community\VC\Tools\MSVC\14.29.30133\atlmfc\include\afxwin1.inl
; File D:\git\src\IBK\IBK_DRFN\ProjSrc\SrcChartEx\ChartOCX\GraphDraw\FundDraw.cpp
; File C:\Program Files (x86)\Microsoft Visual Studio\2019\Community\VC\Tools\MSVC\14.29.30133\atlmfc\include\afxwin1.inl
; File D:\git\src\IBK\IBK_DRFN\ProjSrc\SrcChartEx\ChartOCX\GraphDraw\FundDraw.cpp
; File C:\Program Files (x86)\Microsoft Visual Studio\2019\Community\VC\Tools\MSVC\14.29.30133\atlmfc\include\afxwin1.inl
; File D:\git\src\IBK\IBK_DRFN\ProjSrc\SrcChartEx\ChartOCX\GraphDraw\FundDraw.cpp
; File C:\Program Files (x86)\Microsoft Visual Studio\2019\Community\VC\Tools\MSVC\14.29.30133\atlmfc\include\afxwin1.inl
; File D:\git\src\IBK\IBK_DRFN\ProjSrc\SrcChartEx\ChartOCX\GraphDraw\FundDraw.cpp
; File C:\Program Files (x86)\Microsoft Visual Studio\2019\Community\VC\Tools\MSVC\14.29.30133\atlmfc\include\afxwin1.inl
; File D:\git\src\IBK\IBK_DRFN\ProjSrc\SrcChartEx\ChartOCX\GraphDraw\FundDraw.cpp
; File C:\Program Files (x86)\Microsoft Visual Studio\2019\Community\VC\Tools\MSVC\14.29.30133\atlmfc\include\afxwin1.inl
; File D:\git\src\IBK\IBK_DRFN\ProjSrc\SrcChartEx\ChartOCX\GraphDraw\FundDraw.cpp
; File C:\Program Files (x86)\Microsoft Visual Studio\2019\Community\VC\Tools\MSVC\14.29.30133\atlmfc\include\afxtempl.h
; File D:\git\src\IBK\IBK_DRFN\ProjSrc\SrcChartEx\ChartOCX\GraphDraw\FundDraw.cpp
; File C:\Program Files (x86)\Microsoft Visual Studio\2019\Community\VC\Tools\MSVC\14.29.30133\atlmfc\include\afxtempl.h
; File D:\git\src\IBK\IBK_DRFN\ProjSrc\SrcChartEx\ChartOCX\GraphDraw\FundDraw.cpp
; File C:\Program Files (x86)\Microsoft Visual Studio\2019\Community\VC\Tools\MSVC\14.29.30133\atlmfc\include\afxtempl.h
; File D:\git\src\IBK\IBK_DRFN\ProjSrc\SrcChartEx\ChartOCX\GraphDraw\FundDraw.cpp
; File C:\Program Files (x86)\Microsoft Visual Studio\2019\Community\VC\Tools\MSVC\14.29.30133\atlmfc\include\afxtempl.h
; File D:\git\src\IBK\IBK_DRFN\ProjSrc\SrcChartEx\ChartOCX\GraphDraw\FundDraw.cpp
; File D:\git\src\IBK\IBK_DRFN\ProjSrc\SrcChartEx\ChartOCX\Include_Chart\Conversion.h
; File D:\git\src\IBK\IBK_DRFN\ProjSrc\SrcChartEx\ChartOCX\GraphDraw\FundDraw.cpp
; File D:\git\src\IBK\IBK_DRFN\ProjSrc\SrcChartEx\ChartOCX\Include_Chart\Conversion.h
; File D:\git\src\IBK\IBK_DRFN\ProjSrc\SrcChartEx\ChartOCX\GraphDraw\FundDraw.cpp
; File C:\Program Files (x86)\Microsoft Visual Studio\2019\Community\VC\Tools\MSVC\14.29.30133\atlmfc\include\atltypes.h
; File D:\git\src\IBK\IBK_DRFN\ProjSrc\SrcChartEx\ChartOCX\GraphDraw\FundDraw.cpp
; File C:\Program Files (x86)\Microsoft Visual Studio\2019\Community\VC\Tools\MSVC\14.29.30133\atlmfc\include\atltypes.h
; File D:\git\src\IBK\IBK_DRFN\ProjSrc\SrcChartEx\ChartOCX\GraphDraw\FundDraw.cpp
; File C:\Program Files (x86)\Microsoft Visual Studio\2019\Community\VC\Tools\MSVC\14.29.30133\atlmfc\include\atltypes.h
; File D:\git\src\IBK\IBK_DRFN\ProjSrc\SrcChartEx\ChartOCX\GraphDraw\FundDraw.cpp
; File C:\Program Files (x86)\Microsoft Visual Studio\2019\Community\VC\Tools\MSVC\14.29.30133\atlmfc\include\atltypes.h
; File D:\git\src\IBK\IBK_DRFN\ProjSrc\SrcChartEx\ChartOCX\GraphDraw\FundDraw.cpp
; File C:\Program Files (x86)\Microsoft Visual Studio\2019\Community\VC\Tools\MSVC\14.29.30133\atlmfc\include\atltypes.h
; File D:\git\src\IBK\IBK_DRFN\ProjSrc\SrcChartEx\ChartOCX\GraphDraw\FundDraw.cpp
; File C:\Program Files (x86)\Microsoft Visual Studio\2019\Community\VC\Tools\MSVC\14.29.30133\atlmfc\include\atltypes.h
; File D:\git\src\IBK\IBK_DRFN\ProjSrc\SrcChartEx\ChartOCX\GraphDraw\FundDraw.cpp
; File C:\Program Files (x86)\Microsoft Visual Studio\2019\Community\VC\Tools\MSVC\14.29.30133\atlmfc\include\afxwin1.inl
; File D:\git\src\IBK\IBK_DRFN\ProjSrc\SrcChartEx\ChartOCX\GraphDraw\FundDraw.cpp
; File C:\Program Files (x86)\Microsoft Visual Studio\2019\Community\VC\Tools\MSVC\14.29.30133\atlmfc\include\afxwin1.inl
; File D:\git\src\IBK\IBK_DRFN\ProjSrc\SrcChartEx\ChartOCX\GraphDraw\FundDraw.cpp
; File C:\Program Files (x86)\Microsoft Visual Studio\2019\Community\VC\Tools\MSVC\14.29.30133\atlmfc\include\afxwin1.inl
; File C:\Program Files (x86)\Microsoft Visual Studio\2019\Community\VC\Tools\MSVC\14.29.30133\atlmfc\include\afxtempl.h
; File D:\git\src\IBK\IBK_DRFN\ProjSrc\SrcChartEx\ChartOCX\GraphDraw\FundDraw.cpp
; File C:\Program Files (x86)\Microsoft Visual Studio\2019\Community\VC\Tools\MSVC\14.29.30133\atlmfc\include\afxwin1.inl
; File D:\git\src\IBK\IBK_DRFN\ProjSrc\SrcChartEx\ChartOCX\GraphDraw\FundDraw.cpp
; File C:\Program Files (x86)\Microsoft Visual Studio\2019\Community\VC\Tools\MSVC\14.29.30133\atlmfc\include\afxwin1.inl
; File D:\git\src\IBK\IBK_DRFN\ProjSrc\SrcChartEx\ChartOCX\GraphDraw\FundDraw.cpp
; File C:\Program Files (x86)\Microsoft Visual Studio\2019\Community\VC\Tools\MSVC\14.29.30133\atlmfc\include\afxwin1.inl
; File D:\git\src\IBK\IBK_DRFN\ProjSrc\SrcChartEx\ChartOCX\GraphDraw\FundDraw.cpp
; File C:\Program Files (x86)\Microsoft Visual Studio\2019\Community\VC\Tools\MSVC\14.29.30133\atlmfc\include\afxwin1.inl
; File D:\git\src\IBK\IBK_DRFN\ProjSrc\SrcChartEx\ChartOCX\GraphDraw\FundDraw.cpp
; File C:\Program Files (x86)\Microsoft Visual Studio\2019\Community\VC\Tools\MSVC\14.29.30133\atlmfc\include\afxwin1.inl
; File D:\git\src\IBK\IBK_DRFN\ProjSrc\SrcChartEx\ChartOCX\GraphDraw\FundDraw.cpp
; File C:\Program Files (x86)\Microsoft Visual Studio\2019\Community\VC\Tools\MSVC\14.29.30133\atlmfc\include\afxwin1.inl
; File D:\git\src\IBK\IBK_DRFN\ProjSrc\SrcChartEx\ChartOCX\GraphDraw\FundDraw.cpp
; File C:\Program Files (x86)\Microsoft Visual Studio\2019\Community\VC\Tools\MSVC\14.29.30133\atlmfc\include\afxwin1.inl
; File D:\git\src\IBK\IBK_DRFN\ProjSrc\SrcChartEx\ChartOCX\GraphDraw\FundDraw.cpp
; File C:\Program Files (x86)\Microsoft Visual Studio\2019\Community\VC\Tools\MSVC\14.29.30133\atlmfc\include\afxwin1.inl
; File D:\git\src\IBK\IBK_DRFN\ProjSrc\SrcChartEx\ChartOCX\GraphDraw\FundDraw.cpp
; File C:\Program Files (x86)\Microsoft Visual Studio\2019\Community\VC\Tools\MSVC\14.29.30133\atlmfc\include\afxwin1.inl
; File D:\git\src\IBK\IBK_DRFN\ProjSrc\SrcChartEx\ChartOCX\GraphDraw\FundDraw.cpp
;	COMDAT ?DrawComponentRatio_Bar@CFundDraw@@AAE_NPAVCDC@@ABVCEtcGraphColor@@ABVCRect@@ABVCGraphColor@@HHHABN4ABV?$CList@PAVCPacket@@PAV1@@@VCPenThickness@@@Z
_TEXT	SEGMENT
$T2 = -368						; size = 8
$T3 = -360						; size = 16
$T4 = -344						; size = 8
_data$5 = -336						; size = 8
_realWidth$ = -328					; size = 8
_pOldPen$1$ = -320					; size = 4
_dataViewMax$GSCopy$1$ = -316				; size = 4
_pOldBrush$1$ = -312					; size = 4
_dataViewMin$GSCopy$1$ = -308				; size = 4
$T6 = -304						; size = 4
$T7 = -300						; size = 4
_packetList$GSCopy$1$ = -296				; size = 4
_packetPosition$ = -292					; size = 28
_secondBrush$ = -264					; size = 8
_thirdBrush$ = -256					; size = 8
_fourBrush$ = -248					; size = 8
_fiveBrush$ = -240					; size = 8
_sixBrush$ = -232					; size = 8
_sevenBrush$ = -224					; size = 8
_eightBrush$ = -216					; size = 8
_nineBrush$ = -208					; size = 8
_tenBrush$ = -200					; size = 8
_packetHeadPos$2$ = -192				; size = 4
_j$1$ = -188						; size = 4
_beforeDataY$8 = -184					; size = 4
_pen4$ = -180						; size = 8
_firstBrush$ = -172					; size = 8
_pen1$ = -164						; size = 8
_pen2$ = -156						; size = 8
_pen10$ = -148						; size = 8
_pen3$ = -140						; size = 8
_pen5$ = -132						; size = 8
_pen6$ = -124						; size = 8
_pen7$ = -116						; size = 8
_pen8$ = -108						; size = 8
_pen9$ = -100						; size = 8
_pen$ = -92						; size = 8
_pNode$1$ = -84						; size = 4
tv2213 = -84						; size = 4
_packetCount$1$ = -80					; size = 4
_this$GSCopy$1$ = -76					; size = 4
_bongWidth$3$ = -72					; size = 4
_lineThickness$1$ = -68					; size = 4
_graphDrawingRegion$GSCopy$1$ = -64			; size = 4
_count$1$ = -60						; size = 4
_i$1$ = -56						; size = 4
_strData$9 = -56					; size = 4
$T10 = -49						; size = 1
_dataStart$GSCopy$1$ = -48				; size = 4
$T11 = -48						; size = 4
_DataPt$1$ = -48					; size = 4
_pDC$GSCopy$1$ = -44					; size = 4
_etcGraphColor$GSCopy$1$ = -40				; size = 4
_saveDataY$1$ = -40					; size = 4
_graphColor$GSCopy$1$ = -36				; size = 4
_t$1$ = -36						; size = 4
_dataPacket$1$ = -36					; size = 4
_rect$12 = -32						; size = 16
__$ArrayPad$ = -16					; size = 4
__$EHRec$ = -12						; size = 12
_pDC$ = 8						; size = 4
_etcGraphColor$ = 12					; size = 4
_graphDrawingRegion$ = 16				; size = 4
_graphColor$ = 20					; size = 4
_dataStart$ = 24					; size = 4
_dataEnd$ = 28						; size = 4
_dataRealEnd$ = 32					; size = 4
_dataViewMax$ = 36					; size = 4
_dataViewMin$ = 40					; size = 4
_packetList$ = 44					; size = 4
_penThickness$ = 48					; size = 20
?DrawComponentRatio_Bar@CFundDraw@@AAE_NPAVCDC@@ABVCEtcGraphColor@@ABVCRect@@ABVCGraphColor@@HHHABN4ABV?$CList@PAVCPacket@@PAV1@@@VCPenThickness@@@Z PROC ; CFundDraw::DrawComponentRatio_Bar, COMDAT
; _this$ = ecx

; 147  : {

  00000	55		 push	 ebp
  00001	8b ec		 mov	 ebp, esp
  00003	6a ff		 push	 -1
  00005	68 00 00 00 00	 push	 __ehhandler$?DrawComponentRatio_Bar@CFundDraw@@AAE_NPAVCDC@@ABVCEtcGraphColor@@ABVCRect@@ABVCGraphColor@@HHHABN4ABV?$CList@PAVCPacket@@PAV1@@@VCPenThickness@@@Z
  0000a	64 a1 00 00 00
	00		 mov	 eax, DWORD PTR fs:0
  00010	50		 push	 eax
  00011	81 ec 64 01 00
	00		 sub	 esp, 356		; 00000164H
  00017	a1 00 00 00 00	 mov	 eax, DWORD PTR ___security_cookie
  0001c	33 c5		 xor	 eax, ebp
  0001e	89 45 f0	 mov	 DWORD PTR __$ArrayPad$[ebp], eax
  00021	56		 push	 esi
  00022	57		 push	 edi
  00023	50		 push	 eax
  00024	8d 45 f4	 lea	 eax, DWORD PTR __$EHRec$[ebp]
  00027	64 a3 00 00 00
	00		 mov	 DWORD PTR fs:0, eax
  0002d	89 4d b4	 mov	 DWORD PTR _this$GSCopy$1$[ebp], ecx
  00030	8b 45 10	 mov	 eax, DWORD PTR _graphDrawingRegion$[ebp]
  00033	8b 4d 18	 mov	 ecx, DWORD PTR _dataStart$[ebp]
  00036	89 45 c0	 mov	 DWORD PTR _graphDrawingRegion$GSCopy$1$[ebp], eax
  00039	8b 45 08	 mov	 eax, DWORD PTR _pDC$[ebp]
  0003c	89 45 d4	 mov	 DWORD PTR _pDC$GSCopy$1$[ebp], eax
  0003f	8b 45 0c	 mov	 eax, DWORD PTR _etcGraphColor$[ebp]
  00042	89 45 d8	 mov	 DWORD PTR _etcGraphColor$GSCopy$1$[ebp], eax
  00045	8b 45 14	 mov	 eax, DWORD PTR _graphColor$[ebp]
  00048	89 45 dc	 mov	 DWORD PTR _graphColor$GSCopy$1$[ebp], eax
  0004b	8b 45 24	 mov	 eax, DWORD PTR _dataViewMax$[ebp]
  0004e	89 85 c4 fe ff
	ff		 mov	 DWORD PTR _dataViewMax$GSCopy$1$[ebp], eax
  00054	8b 45 28	 mov	 eax, DWORD PTR _dataViewMin$[ebp]
  00057	89 85 cc fe ff
	ff		 mov	 DWORD PTR _dataViewMin$GSCopy$1$[ebp], eax
  0005d	8b 45 2c	 mov	 eax, DWORD PTR _packetList$[ebp]
  00060	89 4d d0	 mov	 DWORD PTR _dataStart$GSCopy$1$[ebp], ecx
  00063	89 85 d8 fe ff
	ff		 mov	 DWORD PTR _packetList$GSCopy$1$[ebp], eax

; 148  : 	int count = 0;

  00069	c7 45 c4 00 00
	00 00		 mov	 DWORD PTR _count$1$[ebp], 0

; 149  : 	POSITION packetHeadPos = packetList.GetHeadPosition();

  00070	8b 78 04	 mov	 edi, DWORD PTR [eax+4]

; 150  : 	if(packetHeadPos == NULL) 

  00073	85 ff		 test	 edi, edi
  00075	75 07		 jne	 SHORT $LN11@DrawCompon

; 151  : 		return false;

  00077	32 c0		 xor	 al, al
  00079	e9 f9 09 00 00	 jmp	 $LN1@DrawCompon
$LN11@DrawCompon:

; 152  : 
; 153  : 	int packetCount = packetList.GetCount();

  0007e	8b 40 0c	 mov	 eax, DWORD PTR [eax+12]
  00081	89 45 b0	 mov	 DWORD PTR _packetCount$1$[ebp], eax
; File C:\Program Files (x86)\Microsoft Visual Studio\2019\Community\VC\Tools\MSVC\14.29.30133\atlmfc\include\afxtempl.h

; 851  : {

  00084	c7 85 dc fe ff
	ff 00 00 00 00	 mov	 DWORD PTR _packetPosition$[ebp], OFFSET ??_7?$CList@PAU__POSITION@@PAU1@@@6B@

; 852  : 	ASSERT(nBlockSize > 0);
; 853  : 
; 854  : 	m_nCount = 0;

  0008e	c7 85 e8 fe ff
	ff 00 00 00 00	 mov	 DWORD PTR _packetPosition$[ebp+12], 0

; 855  : 	m_pNodeHead = m_pNodeTail = m_pNodeFree = NULL;

  00098	c7 85 ec fe ff
	ff 00 00 00 00	 mov	 DWORD PTR _packetPosition$[ebp+16], 0
  000a2	c7 85 e4 fe ff
	ff 00 00 00 00	 mov	 DWORD PTR _packetPosition$[ebp+8], 0
  000ac	c7 85 e0 fe ff
	ff 00 00 00 00	 mov	 DWORD PTR _packetPosition$[ebp+4], 0

; 856  : 	m_pBlocks = NULL;

  000b6	c7 85 f0 fe ff
	ff 00 00 00 00	 mov	 DWORD PTR _packetPosition$[ebp+20], 0

; 857  : 	m_nBlockSize = nBlockSize;

  000c0	c7 85 f4 fe ff
	ff 0a 00 00 00	 mov	 DWORD PTR _packetPosition$[ebp+24], 10 ; 0000000aH
; File D:\git\src\IBK\IBK_DRFN\ProjSrc\SrcChartEx\ChartOCX\GraphDraw\FundDraw.cpp

; 156  : 	CList<POSITION, POSITION> packetPosition;

  000ca	c7 45 fc 00 00
	00 00		 mov	 DWORD PTR __$EHRec$[ebp+8], 0

; 157  : 	for(i = 0; i < packetCount; i++){

  000d1	c7 45 c8 00 00
	00 00		 mov	 DWORD PTR _i$1$[ebp], 0
  000d8	85 c0		 test	 eax, eax
  000da	7e 66		 jle	 SHORT $LN3@DrawCompon
  000dc	0f 1f 40 00	 npad	 4
$LL4@DrawCompon:

; 158  : 		if(packetHeadPos == NULL)

  000e0	85 ff		 test	 edi, edi
  000e2	0f 84 21 04 00
	00		 je	 $LN329@DrawCompon

; 159  : 			return false;
; 160  : 
; 161  : 		CPacket* pPacket = packetList.GetNext(packetHeadPos);

  000e8	8b 47 08	 mov	 eax, DWORD PTR [edi+8]
; File C:\Program Files (x86)\Microsoft Visual Studio\2019\Community\VC\Tools\MSVC\14.29.30133\atlmfc\include\afxtempl.h

; 819  : 		rPosition = (POSITION) pNode->pNext;

  000eb	8b 3f		 mov	 edi, DWORD PTR [edi]
; File D:\git\src\IBK\IBK_DRFN\ProjSrc\SrcChartEx\ChartOCX\GraphDraw\FundDraw.cpp

; 162  : 		if(pPacket == NULL)

  000ed	85 c0		 test	 eax, eax
  000ef	0f 84 14 04 00
	00		 je	 $LN329@DrawCompon

; 163  : 			return false;
; 164  : 		else{
; 165  : 			//displayData
; 166  : 			//POSITION pos = pPacket->GetnumericDataList()->FindIndex(dataStart-1);
; 167  : 			POSITION pos = pPacket->GetnumericDataList()->FindIndex(dataStart);

  000f5	8b f1		 mov	 esi, ecx
  000f7	8b c8		 mov	 ecx, eax
  000f9	ff 15 00 00 00
	00		 call	 DWORD PTR __imp_?GetnumericDataList@CPacket@@QAEPAV?$CList@NN@@XZ
; File C:\Program Files (x86)\Microsoft Visual Studio\2019\Community\VC\Tools\MSVC\14.29.30133\atlmfc\include\afxtempl.h

; 1133 : 	if (nIndex >= m_nCount || nIndex < 0)

  000ff	8b 4d d0	 mov	 ecx, DWORD PTR _dataStart$GSCopy$1$[ebp]
  00102	3b 48 0c	 cmp	 ecx, DWORD PTR [eax+12]
  00105	0f 8d fe 03 00
	00		 jge	 $LN329@DrawCompon
  0010b	85 c9		 test	 ecx, ecx
  0010d	0f 88 f6 03 00
	00		 js	 $LN329@DrawCompon

; 1135 : 
; 1136 : 	CNode* pNode = m_pNodeHead;

  00113	8b 40 04	 mov	 eax, DWORD PTR [eax+4]

; 1137 : 	while (nIndex--)

  00116	74 07		 je	 SHORT $LN333@DrawCompon
$LL79@DrawCompon:

; 1138 : 	{
; 1139 : 		ASSERT(AfxIsValidAddress(pNode, sizeof(CNode)));
; 1140 : 		pNode = pNode->pNext;

  00118	8b 00		 mov	 eax, DWORD PTR [eax]
  0011a	83 ee 01	 sub	 esi, 1
  0011d	75 f9		 jne	 SHORT $LL79@DrawCompon
$LN333@DrawCompon:
; File D:\git\src\IBK\IBK_DRFN\ProjSrc\SrcChartEx\ChartOCX\GraphDraw\FundDraw.cpp

; 168  : 			if(pos == NULL)

  0011f	85 c0		 test	 eax, eax
  00121	0f 84 e2 03 00
	00		 je	 $LN329@DrawCompon

; 169  : 				return false;
; 170  : 			else
; 171  : 				packetPosition.AddTail(pos);

  00127	50		 push	 eax
  00128	8d 8d dc fe ff
	ff		 lea	 ecx, DWORD PTR _packetPosition$[ebp]
  0012e	e8 00 00 00 00	 call	 ?AddTail@?$CList@PAU__POSITION@@PAU1@@@QAEPAU__POSITION@@PAU2@@Z ; CList<__POSITION *,__POSITION *>::AddTail
  00133	8b 45 c8	 mov	 eax, DWORD PTR _i$1$[ebp]
  00136	8b 4d d0	 mov	 ecx, DWORD PTR _dataStart$GSCopy$1$[ebp]
  00139	40		 inc	 eax
  0013a	89 45 c8	 mov	 DWORD PTR _i$1$[ebp], eax
  0013d	3b 45 b0	 cmp	 eax, DWORD PTR _packetCount$1$[ebp]
  00140	7c 9e		 jl	 SHORT $LL4@DrawCompon
$LN3@DrawCompon:

; 172  : 		}
; 173  : 	}
; 174  : 	double widthRatio = 8.0/10.0;
; 175  : 	double realWidth = CDraw::CalRealWidth(graphDrawingRegion, dataStart, dataEnd);

  00142	ff 75 1c	 push	 DWORD PTR _dataEnd$[ebp]
  00145	51		 push	 ecx
  00146	ff 75 c0	 push	 DWORD PTR _graphDrawingRegion$GSCopy$1$[ebp]
  00149	8b 4d b4	 mov	 ecx, DWORD PTR _this$GSCopy$1$[ebp]
  0014c	e8 00 00 00 00	 call	 ?CalRealWidth@CDraw@@IAENABVCRect@@HH@Z ; CDraw::CalRealWidth

; 176  : 	int bongWidth = (int)(realWidth*widthRatio);
; 177  : 	if(bongWidth <= 1) 
; 178  : 		bongWidth = 1;
; 179  : 	int lineThickness = CDraw::CalUpLineThickness(penThickness, bongWidth);

  00151	8b 4d b4	 mov	 ecx, DWORD PTR _this$GSCopy$1$[ebp]
  00154	b8 01 00 00 00	 mov	 eax, 1
  00159	dd 9d b8 fe ff
	ff		 fstp	 QWORD PTR _realWidth$[ebp]
  0015f	f2 0f 10 85 b8
	fe ff ff	 movsd	 xmm0, QWORD PTR _realWidth$[ebp]
  00167	f2 0f 59 05 00
	00 00 00	 mulsd	 xmm0, QWORD PTR __real@3fe999999999999a
  0016f	f2 0f 2c f0	 cvttsd2si esi, xmm0
  00173	3b f0		 cmp	 esi, eax
  00175	0f 4e f0	 cmovle	 esi, eax
  00178	8d 45 30	 lea	 eax, DWORD PTR _penThickness$[ebp]
  0017b	56		 push	 esi
  0017c	50		 push	 eax
  0017d	e8 00 00 00 00	 call	 ?CalUpLineThickness@CDraw@@IAEHABVCPenThickness@@H@Z ; CDraw::CalUpLineThickness

; 180  : 
; 181  : 	bongWidth = bongWidth - lineThickness;

  00182	2b f0		 sub	 esi, eax
  00184	89 45 bc	 mov	 DWORD PTR _lineThickness$1$[ebp], eax

; 182  : 	bongWidth = bongWidth / 2;

  00187	8b c6		 mov	 eax, esi
; File C:\Program Files (x86)\Microsoft Visual Studio\2019\Community\VC\Tools\MSVC\14.29.30133\atlmfc\include\afxwin1.inl

; 70   : 	{ m_hObject = NULL; }

  00189	c7 45 a8 00 00
	00 00		 mov	 DWORD PTR _pen$[ebp+4], 0
; File D:\git\src\IBK\IBK_DRFN\ProjSrc\SrcChartEx\ChartOCX\GraphDraw\FundDraw.cpp

; 182  : 	bongWidth = bongWidth / 2;

  00190	99		 cdq
  00191	2b c2		 sub	 eax, edx
; File C:\Program Files (x86)\Microsoft Visual Studio\2019\Community\VC\Tools\MSVC\14.29.30133\atlmfc\include\afxwin1.inl

; 104  : 	{ }

  00193	c7 45 a4 00 00
	00 00		 mov	 DWORD PTR _pen$[ebp], OFFSET ??_7CPen@@6B@
; File D:\git\src\IBK\IBK_DRFN\ProjSrc\SrcChartEx\ChartOCX\GraphDraw\FundDraw.cpp

; 182  : 	bongWidth = bongWidth / 2;

  0019a	d1 f8		 sar	 eax, 1
  0019c	89 45 b8	 mov	 DWORD PTR _bongWidth$3$[ebp], eax
; File C:\Program Files (x86)\Microsoft Visual Studio\2019\Community\VC\Tools\MSVC\14.29.30133\atlmfc\include\afxwin1.inl

; 70   : 	{ m_hObject = NULL; }

  0019f	c7 85 60 ff ff
	ff 00 00 00 00	 mov	 DWORD PTR _pen1$[ebp+4], 0

; 104  : 	{ }

  001a9	c7 85 5c ff ff
	ff 00 00 00 00	 mov	 DWORD PTR _pen1$[ebp], OFFSET ??_7CPen@@6B@

; 70   : 	{ m_hObject = NULL; }

  001b3	c7 85 68 ff ff
	ff 00 00 00 00	 mov	 DWORD PTR _pen2$[ebp+4], 0

; 104  : 	{ }

  001bd	c7 85 64 ff ff
	ff 00 00 00 00	 mov	 DWORD PTR _pen2$[ebp], OFFSET ??_7CPen@@6B@

; 70   : 	{ m_hObject = NULL; }

  001c7	c7 85 78 ff ff
	ff 00 00 00 00	 mov	 DWORD PTR _pen3$[ebp+4], 0

; 104  : 	{ }

  001d1	c7 85 74 ff ff
	ff 00 00 00 00	 mov	 DWORD PTR _pen3$[ebp], OFFSET ??_7CPen@@6B@

; 70   : 	{ m_hObject = NULL; }

  001db	c7 85 50 ff ff
	ff 00 00 00 00	 mov	 DWORD PTR _pen4$[ebp+4], 0

; 104  : 	{ }

  001e5	c7 85 4c ff ff
	ff 00 00 00 00	 mov	 DWORD PTR _pen4$[ebp], OFFSET ??_7CPen@@6B@

; 70   : 	{ m_hObject = NULL; }

  001ef	c7 45 80 00 00
	00 00		 mov	 DWORD PTR _pen5$[ebp+4], 0

; 104  : 	{ }

  001f6	c7 85 7c ff ff
	ff 00 00 00 00	 mov	 DWORD PTR _pen5$[ebp], OFFSET ??_7CPen@@6B@

; 70   : 	{ m_hObject = NULL; }

  00200	c7 45 88 00 00
	00 00		 mov	 DWORD PTR _pen6$[ebp+4], 0

; 104  : 	{ }

  00207	c7 45 84 00 00
	00 00		 mov	 DWORD PTR _pen6$[ebp], OFFSET ??_7CPen@@6B@

; 70   : 	{ m_hObject = NULL; }

  0020e	c7 45 90 00 00
	00 00		 mov	 DWORD PTR _pen7$[ebp+4], 0

; 104  : 	{ }

  00215	c7 45 8c 00 00
	00 00		 mov	 DWORD PTR _pen7$[ebp], OFFSET ??_7CPen@@6B@

; 70   : 	{ m_hObject = NULL; }

  0021c	c7 45 98 00 00
	00 00		 mov	 DWORD PTR _pen8$[ebp+4], 0

; 104  : 	{ }

  00223	c7 45 94 00 00
	00 00		 mov	 DWORD PTR _pen8$[ebp], OFFSET ??_7CPen@@6B@

; 70   : 	{ m_hObject = NULL; }

  0022a	c7 45 a0 00 00
	00 00		 mov	 DWORD PTR _pen9$[ebp+4], 0

; 104  : 	{ }

  00231	c7 45 9c 00 00
	00 00		 mov	 DWORD PTR _pen9$[ebp], OFFSET ??_7CPen@@6B@

; 70   : 	{ m_hObject = NULL; }

  00238	c7 85 70 ff ff
	ff 00 00 00 00	 mov	 DWORD PTR _pen10$[ebp+4], 0

; 104  : 	{ }

  00242	c7 85 6c ff ff
	ff 00 00 00 00	 mov	 DWORD PTR _pen10$[ebp], OFFSET ??_7CPen@@6B@
; File D:\git\src\IBK\IBK_DRFN\ProjSrc\SrcChartEx\ChartOCX\GraphDraw\FundDraw.cpp

; 185  : 	pen.CreatePen(PS_SOLID, 1, etcGraphColor.GetGraphColor5());

  0024c	8b 4d d8	 mov	 ecx, DWORD PTR _etcGraphColor$GSCopy$1$[ebp]
  0024f	c6 45 fc 0b	 mov	 BYTE PTR __$EHRec$[ebp+8], 11 ; 0000000bH
  00253	ff 15 00 00 00
	00		 call	 DWORD PTR __imp_?GetGraphColor5@CEtcGraphColor@@QBEKXZ
; File C:\Program Files (x86)\Microsoft Visual Studio\2019\Community\VC\Tools\MSVC\14.29.30133\atlmfc\include\afxwin1.inl

; 108  : 	{ return Attach(::CreatePen(nPenStyle, nWidth, crColor)); }

  00259	8b 35 00 00 00
	00		 mov	 esi, DWORD PTR __imp__CreatePen@12
  0025f	50		 push	 eax
  00260	6a 01		 push	 1
  00262	6a 00		 push	 0
  00264	ff d6		 call	 esi
  00266	50		 push	 eax
  00267	8d 4d a4	 lea	 ecx, DWORD PTR _pen$[ebp]
  0026a	e8 00 00 00 00	 call	 ?Attach@CGdiObject@@QAEHPAX@Z ; CGdiObject::Attach
; File D:\git\src\IBK\IBK_DRFN\ProjSrc\SrcChartEx\ChartOCX\GraphDraw\FundDraw.cpp

; 187  : 	pen1.CreatePen	(PS_SOLID, 1, graphColor.GetColor1());

  0026f	8b 7d dc	 mov	 edi, DWORD PTR _graphColor$GSCopy$1$[ebp]
  00272	8b cf		 mov	 ecx, edi
  00274	ff 15 00 00 00
	00		 call	 DWORD PTR __imp_?GetColor1@CGraphColor@@QBEKXZ
; File C:\Program Files (x86)\Microsoft Visual Studio\2019\Community\VC\Tools\MSVC\14.29.30133\atlmfc\include\afxwin1.inl

; 108  : 	{ return Attach(::CreatePen(nPenStyle, nWidth, crColor)); }

  0027a	50		 push	 eax
  0027b	6a 01		 push	 1
  0027d	6a 00		 push	 0
  0027f	ff d6		 call	 esi
  00281	50		 push	 eax
  00282	8d 8d 5c ff ff
	ff		 lea	 ecx, DWORD PTR _pen1$[ebp]
  00288	e8 00 00 00 00	 call	 ?Attach@CGdiObject@@QAEHPAX@Z ; CGdiObject::Attach
; File D:\git\src\IBK\IBK_DRFN\ProjSrc\SrcChartEx\ChartOCX\GraphDraw\FundDraw.cpp

; 188  : 	pen2.CreatePen	(PS_SOLID, 1, graphColor.GetColor2());

  0028d	8b cf		 mov	 ecx, edi
  0028f	ff 15 00 00 00
	00		 call	 DWORD PTR __imp_?GetColor2@CGraphColor@@QBEKXZ
; File C:\Program Files (x86)\Microsoft Visual Studio\2019\Community\VC\Tools\MSVC\14.29.30133\atlmfc\include\afxwin1.inl

; 108  : 	{ return Attach(::CreatePen(nPenStyle, nWidth, crColor)); }

  00295	50		 push	 eax
  00296	6a 01		 push	 1
  00298	6a 00		 push	 0
  0029a	ff d6		 call	 esi
  0029c	50		 push	 eax
  0029d	8d 8d 64 ff ff
	ff		 lea	 ecx, DWORD PTR _pen2$[ebp]
  002a3	e8 00 00 00 00	 call	 ?Attach@CGdiObject@@QAEHPAX@Z ; CGdiObject::Attach
; File D:\git\src\IBK\IBK_DRFN\ProjSrc\SrcChartEx\ChartOCX\GraphDraw\FundDraw.cpp

; 189  : 	pen3.CreatePen	(PS_SOLID, 1, graphColor.GetColor3());

  002a8	8b cf		 mov	 ecx, edi
  002aa	ff 15 00 00 00
	00		 call	 DWORD PTR __imp_?GetColor3@CGraphColor@@QBEKXZ
; File C:\Program Files (x86)\Microsoft Visual Studio\2019\Community\VC\Tools\MSVC\14.29.30133\atlmfc\include\afxwin1.inl

; 108  : 	{ return Attach(::CreatePen(nPenStyle, nWidth, crColor)); }

  002b0	50		 push	 eax
  002b1	6a 01		 push	 1
  002b3	6a 00		 push	 0
  002b5	ff d6		 call	 esi
  002b7	50		 push	 eax
  002b8	8d 8d 74 ff ff
	ff		 lea	 ecx, DWORD PTR _pen3$[ebp]
  002be	e8 00 00 00 00	 call	 ?Attach@CGdiObject@@QAEHPAX@Z ; CGdiObject::Attach
; File D:\git\src\IBK\IBK_DRFN\ProjSrc\SrcChartEx\ChartOCX\GraphDraw\FundDraw.cpp

; 190  : 	pen4.CreatePen	(PS_SOLID, 1, graphColor.GetColor4());

  002c3	8b cf		 mov	 ecx, edi
  002c5	ff 15 00 00 00
	00		 call	 DWORD PTR __imp_?GetColor4@CGraphColor@@QBEKXZ
; File C:\Program Files (x86)\Microsoft Visual Studio\2019\Community\VC\Tools\MSVC\14.29.30133\atlmfc\include\afxwin1.inl

; 108  : 	{ return Attach(::CreatePen(nPenStyle, nWidth, crColor)); }

  002cb	50		 push	 eax
  002cc	6a 01		 push	 1
  002ce	6a 00		 push	 0
  002d0	ff d6		 call	 esi
  002d2	50		 push	 eax
  002d3	8d 8d 4c ff ff
	ff		 lea	 ecx, DWORD PTR _pen4$[ebp]
  002d9	e8 00 00 00 00	 call	 ?Attach@CGdiObject@@QAEHPAX@Z ; CGdiObject::Attach
; File D:\git\src\IBK\IBK_DRFN\ProjSrc\SrcChartEx\ChartOCX\GraphDraw\FundDraw.cpp

; 191  : 	pen5.CreatePen	(PS_SOLID, 1, graphColor.GetColor5());

  002de	8b cf		 mov	 ecx, edi
  002e0	ff 15 00 00 00
	00		 call	 DWORD PTR __imp_?GetColor5@CGraphColor@@QBEKXZ
; File C:\Program Files (x86)\Microsoft Visual Studio\2019\Community\VC\Tools\MSVC\14.29.30133\atlmfc\include\afxwin1.inl

; 108  : 	{ return Attach(::CreatePen(nPenStyle, nWidth, crColor)); }

  002e6	50		 push	 eax
  002e7	6a 01		 push	 1
  002e9	6a 00		 push	 0
  002eb	ff d6		 call	 esi
  002ed	50		 push	 eax
  002ee	8d 8d 7c ff ff
	ff		 lea	 ecx, DWORD PTR _pen5$[ebp]
  002f4	e8 00 00 00 00	 call	 ?Attach@CGdiObject@@QAEHPAX@Z ; CGdiObject::Attach
; File D:\git\src\IBK\IBK_DRFN\ProjSrc\SrcChartEx\ChartOCX\GraphDraw\FundDraw.cpp

; 192  : 	pen6.CreatePen	(PS_SOLID, 1, graphColor.GetColor6());

  002f9	8b cf		 mov	 ecx, edi
  002fb	ff 15 00 00 00
	00		 call	 DWORD PTR __imp_?GetColor6@CGraphColor@@QBEKXZ
; File C:\Program Files (x86)\Microsoft Visual Studio\2019\Community\VC\Tools\MSVC\14.29.30133\atlmfc\include\afxwin1.inl

; 108  : 	{ return Attach(::CreatePen(nPenStyle, nWidth, crColor)); }

  00301	50		 push	 eax
  00302	6a 01		 push	 1
  00304	6a 00		 push	 0
  00306	ff d6		 call	 esi
  00308	50		 push	 eax
  00309	8d 4d 84	 lea	 ecx, DWORD PTR _pen6$[ebp]
  0030c	e8 00 00 00 00	 call	 ?Attach@CGdiObject@@QAEHPAX@Z ; CGdiObject::Attach
; File D:\git\src\IBK\IBK_DRFN\ProjSrc\SrcChartEx\ChartOCX\GraphDraw\FundDraw.cpp

; 193  : 	pen7.CreatePen	(PS_SOLID, 1, etcGraphColor.GetGraphColor1());

  00311	8b 7d d8	 mov	 edi, DWORD PTR _etcGraphColor$GSCopy$1$[ebp]
  00314	8b cf		 mov	 ecx, edi
  00316	ff 15 00 00 00
	00		 call	 DWORD PTR __imp_?GetGraphColor1@CEtcGraphColor@@QBEKXZ
; File C:\Program Files (x86)\Microsoft Visual Studio\2019\Community\VC\Tools\MSVC\14.29.30133\atlmfc\include\afxwin1.inl

; 108  : 	{ return Attach(::CreatePen(nPenStyle, nWidth, crColor)); }

  0031c	50		 push	 eax
  0031d	6a 01		 push	 1
  0031f	6a 00		 push	 0
  00321	ff d6		 call	 esi
  00323	50		 push	 eax
  00324	8d 4d 8c	 lea	 ecx, DWORD PTR _pen7$[ebp]
  00327	e8 00 00 00 00	 call	 ?Attach@CGdiObject@@QAEHPAX@Z ; CGdiObject::Attach
; File D:\git\src\IBK\IBK_DRFN\ProjSrc\SrcChartEx\ChartOCX\GraphDraw\FundDraw.cpp

; 194  : 	pen8.CreatePen	(PS_SOLID, 1, etcGraphColor.GetGraphColor2());

  0032c	8b cf		 mov	 ecx, edi
  0032e	ff 15 00 00 00
	00		 call	 DWORD PTR __imp_?GetGraphColor2@CEtcGraphColor@@QBEKXZ
; File C:\Program Files (x86)\Microsoft Visual Studio\2019\Community\VC\Tools\MSVC\14.29.30133\atlmfc\include\afxwin1.inl

; 108  : 	{ return Attach(::CreatePen(nPenStyle, nWidth, crColor)); }

  00334	50		 push	 eax
  00335	6a 01		 push	 1
  00337	6a 00		 push	 0
  00339	ff d6		 call	 esi
  0033b	50		 push	 eax
  0033c	8d 4d 94	 lea	 ecx, DWORD PTR _pen8$[ebp]
  0033f	e8 00 00 00 00	 call	 ?Attach@CGdiObject@@QAEHPAX@Z ; CGdiObject::Attach
; File D:\git\src\IBK\IBK_DRFN\ProjSrc\SrcChartEx\ChartOCX\GraphDraw\FundDraw.cpp

; 195  : 	pen9.CreatePen	(PS_SOLID, 1, etcGraphColor.GetGraphColor3());

  00344	8b cf		 mov	 ecx, edi
  00346	8b 3d 00 00 00
	00		 mov	 edi, DWORD PTR __imp_?GetGraphColor3@CEtcGraphColor@@QBEKXZ
  0034c	ff d7		 call	 edi
; File C:\Program Files (x86)\Microsoft Visual Studio\2019\Community\VC\Tools\MSVC\14.29.30133\atlmfc\include\afxwin1.inl

; 108  : 	{ return Attach(::CreatePen(nPenStyle, nWidth, crColor)); }

  0034e	50		 push	 eax
  0034f	6a 01		 push	 1
  00351	6a 00		 push	 0
  00353	ff d6		 call	 esi
  00355	50		 push	 eax
  00356	8d 4d 9c	 lea	 ecx, DWORD PTR _pen9$[ebp]
  00359	e8 00 00 00 00	 call	 ?Attach@CGdiObject@@QAEHPAX@Z ; CGdiObject::Attach
; File D:\git\src\IBK\IBK_DRFN\ProjSrc\SrcChartEx\ChartOCX\GraphDraw\FundDraw.cpp

; 196  : 	pen10.CreatePen	(PS_SOLID, 1, etcGraphColor.GetGraphColor4());

  0035e	8b 4d d8	 mov	 ecx, DWORD PTR _etcGraphColor$GSCopy$1$[ebp]
  00361	8b 35 00 00 00
	00		 mov	 esi, DWORD PTR __imp_?GetGraphColor4@CEtcGraphColor@@QBEKXZ
  00367	ff d6		 call	 esi
; File C:\Program Files (x86)\Microsoft Visual Studio\2019\Community\VC\Tools\MSVC\14.29.30133\atlmfc\include\afxwin1.inl

; 108  : 	{ return Attach(::CreatePen(nPenStyle, nWidth, crColor)); }

  00369	50		 push	 eax
  0036a	6a 01		 push	 1
  0036c	6a 00		 push	 0
  0036e	ff 15 00 00 00
	00		 call	 DWORD PTR __imp__CreatePen@12
  00374	50		 push	 eax
  00375	8d 8d 6c ff ff
	ff		 lea	 ecx, DWORD PTR _pen10$[ebp]
  0037b	e8 00 00 00 00	 call	 ?Attach@CGdiObject@@QAEHPAX@Z ; CGdiObject::Attach
; File D:\git\src\IBK\IBK_DRFN\ProjSrc\SrcChartEx\ChartOCX\GraphDraw\FundDraw.cpp

; 199  : 	CBrush firstBrush	(graphColor.GetColor1());

  00380	8b 4d dc	 mov	 ecx, DWORD PTR _graphColor$GSCopy$1$[ebp]
  00383	ff 15 00 00 00
	00		 call	 DWORD PTR __imp_?GetColor1@CGraphColor@@QBEKXZ
  00389	50		 push	 eax
  0038a	8d 8d 54 ff ff
	ff		 lea	 ecx, DWORD PTR _firstBrush$[ebp]
  00390	e8 00 00 00 00	 call	 ??0CBrush@@QAE@K@Z	; CBrush::CBrush

; 200  : 	CBrush secondBrush	(graphColor.GetColor2());

  00395	8b 4d dc	 mov	 ecx, DWORD PTR _graphColor$GSCopy$1$[ebp]
  00398	c6 45 fc 0c	 mov	 BYTE PTR __$EHRec$[ebp+8], 12 ; 0000000cH
  0039c	ff 15 00 00 00
	00		 call	 DWORD PTR __imp_?GetColor2@CGraphColor@@QBEKXZ
  003a2	50		 push	 eax
  003a3	8d 8d f8 fe ff
	ff		 lea	 ecx, DWORD PTR _secondBrush$[ebp]
  003a9	e8 00 00 00 00	 call	 ??0CBrush@@QAE@K@Z	; CBrush::CBrush

; 201  : 	CBrush thirdBrush	(graphColor.GetColor3());

  003ae	8b 4d dc	 mov	 ecx, DWORD PTR _graphColor$GSCopy$1$[ebp]
  003b1	c6 45 fc 0d	 mov	 BYTE PTR __$EHRec$[ebp+8], 13 ; 0000000dH
  003b5	ff 15 00 00 00
	00		 call	 DWORD PTR __imp_?GetColor3@CGraphColor@@QBEKXZ
  003bb	50		 push	 eax
  003bc	8d 8d 00 ff ff
	ff		 lea	 ecx, DWORD PTR _thirdBrush$[ebp]
  003c2	e8 00 00 00 00	 call	 ??0CBrush@@QAE@K@Z	; CBrush::CBrush

; 202  : 	CBrush fourBrush	(graphColor.GetColor4());

  003c7	8b 4d dc	 mov	 ecx, DWORD PTR _graphColor$GSCopy$1$[ebp]
  003ca	c6 45 fc 0e	 mov	 BYTE PTR __$EHRec$[ebp+8], 14 ; 0000000eH
  003ce	ff 15 00 00 00
	00		 call	 DWORD PTR __imp_?GetColor4@CGraphColor@@QBEKXZ
  003d4	50		 push	 eax
  003d5	8d 8d 08 ff ff
	ff		 lea	 ecx, DWORD PTR _fourBrush$[ebp]
  003db	e8 00 00 00 00	 call	 ??0CBrush@@QAE@K@Z	; CBrush::CBrush

; 203  : 	CBrush fiveBrush	(graphColor.GetColor5());

  003e0	8b 4d dc	 mov	 ecx, DWORD PTR _graphColor$GSCopy$1$[ebp]
  003e3	c6 45 fc 0f	 mov	 BYTE PTR __$EHRec$[ebp+8], 15 ; 0000000fH
  003e7	ff 15 00 00 00
	00		 call	 DWORD PTR __imp_?GetColor5@CGraphColor@@QBEKXZ
  003ed	50		 push	 eax
  003ee	8d 8d 10 ff ff
	ff		 lea	 ecx, DWORD PTR _fiveBrush$[ebp]
  003f4	e8 00 00 00 00	 call	 ??0CBrush@@QAE@K@Z	; CBrush::CBrush

; 204  : 	CBrush sixBrush		(graphColor.GetColor6());

  003f9	8b 4d dc	 mov	 ecx, DWORD PTR _graphColor$GSCopy$1$[ebp]
  003fc	c6 45 fc 10	 mov	 BYTE PTR __$EHRec$[ebp+8], 16 ; 00000010H
  00400	ff 15 00 00 00
	00		 call	 DWORD PTR __imp_?GetColor6@CGraphColor@@QBEKXZ
  00406	50		 push	 eax
  00407	8d 8d 18 ff ff
	ff		 lea	 ecx, DWORD PTR _sixBrush$[ebp]
  0040d	e8 00 00 00 00	 call	 ??0CBrush@@QAE@K@Z	; CBrush::CBrush

; 205  : 	CBrush sevenBrush	(etcGraphColor.GetGraphColor1());

  00412	8b 4d d8	 mov	 ecx, DWORD PTR _etcGraphColor$GSCopy$1$[ebp]
  00415	c6 45 fc 11	 mov	 BYTE PTR __$EHRec$[ebp+8], 17 ; 00000011H
  00419	ff 15 00 00 00
	00		 call	 DWORD PTR __imp_?GetGraphColor1@CEtcGraphColor@@QBEKXZ
  0041f	50		 push	 eax
  00420	8d 8d 20 ff ff
	ff		 lea	 ecx, DWORD PTR _sevenBrush$[ebp]
  00426	e8 00 00 00 00	 call	 ??0CBrush@@QAE@K@Z	; CBrush::CBrush

; 206  : 	CBrush eightBrush	(etcGraphColor.GetGraphColor2());

  0042b	8b 4d d8	 mov	 ecx, DWORD PTR _etcGraphColor$GSCopy$1$[ebp]
  0042e	c6 45 fc 12	 mov	 BYTE PTR __$EHRec$[ebp+8], 18 ; 00000012H
  00432	ff 15 00 00 00
	00		 call	 DWORD PTR __imp_?GetGraphColor2@CEtcGraphColor@@QBEKXZ
  00438	50		 push	 eax
  00439	8d 8d 28 ff ff
	ff		 lea	 ecx, DWORD PTR _eightBrush$[ebp]
  0043f	e8 00 00 00 00	 call	 ??0CBrush@@QAE@K@Z	; CBrush::CBrush

; 207  : 	CBrush nineBrush	(etcGraphColor.GetGraphColor3());

  00444	8b 4d d8	 mov	 ecx, DWORD PTR _etcGraphColor$GSCopy$1$[ebp]
  00447	c6 45 fc 13	 mov	 BYTE PTR __$EHRec$[ebp+8], 19 ; 00000013H
  0044b	ff d7		 call	 edi
  0044d	50		 push	 eax
  0044e	8d 8d 30 ff ff
	ff		 lea	 ecx, DWORD PTR _nineBrush$[ebp]
  00454	e8 00 00 00 00	 call	 ??0CBrush@@QAE@K@Z	; CBrush::CBrush

; 208  : 	CBrush tenBrush		(etcGraphColor.GetGraphColor4());

  00459	8b 4d d8	 mov	 ecx, DWORD PTR _etcGraphColor$GSCopy$1$[ebp]
  0045c	c6 45 fc 14	 mov	 BYTE PTR __$EHRec$[ebp+8], 20 ; 00000014H
  00460	ff d6		 call	 esi
  00462	50		 push	 eax
  00463	8d 8d 38 ff ff
	ff		 lea	 ecx, DWORD PTR _tenBrush$[ebp]
  00469	e8 00 00 00 00	 call	 ??0CBrush@@QAE@K@Z	; CBrush::CBrush

; 209  : 
; 210  : 	CBrush* pOldBrush;
; 211  : 	CPen* pOldPen; 
; 212  : 	pOldBrush = (CBrush*)pDC->SelectObject(&firstBrush);

  0046e	8b 75 d4	 mov	 esi, DWORD PTR _pDC$GSCopy$1$[ebp]
  00471	8d 85 54 ff ff
	ff		 lea	 eax, DWORD PTR _firstBrush$[ebp]
  00477	50		 push	 eax
  00478	8b ce		 mov	 ecx, esi
  0047a	c6 45 fc 15	 mov	 BYTE PTR __$EHRec$[ebp+8], 21 ; 00000015H
  0047e	e8 00 00 00 00	 call	 ?SelectObject@CDC@@QAEPAVCBrush@@PAV2@@Z ; CDC::SelectObject
  00483	89 85 c8 fe ff
	ff		 mov	 DWORD PTR _pOldBrush$1$[ebp], eax

; 213  : 	pOldPen = (CPen*)pDC->SelectObject(&pen);

  00489	8b ce		 mov	 ecx, esi
  0048b	8d 45 a4	 lea	 eax, DWORD PTR _pen$[ebp]
  0048e	50		 push	 eax
  0048f	e8 00 00 00 00	 call	 ?SelectObject@CDC@@QAEPAVCPen@@PAV2@@Z ; CDC::SelectObject
  00494	89 85 c0 fe ff
	ff		 mov	 DWORD PTR _pOldPen$1$[ebp], eax

; 214  : 
; 215  : 	for(i = dataStart; i <= dataRealEnd; i++){

  0049a	8b 4d d0	 mov	 ecx, DWORD PTR _dataStart$GSCopy$1$[ebp]
  0049d	8b 7d 20	 mov	 edi, DWORD PTR _dataRealEnd$[ebp]
  004a0	3b cf		 cmp	 ecx, edi
  004a2	0f 8f f7 02 00
	00		 jg	 $LN6@DrawCompon

; 176  : 	int bongWidth = (int)(realWidth*widthRatio);
; 177  : 	if(bongWidth <= 1) 
; 178  : 		bongWidth = 1;
; 179  : 	int lineThickness = CDraw::CalUpLineThickness(penThickness, bongWidth);

  004a8	2b f9		 sub	 edi, ecx
  004aa	47		 inc	 edi
  004ab	89 7d 20	 mov	 DWORD PTR _dataRealEnd$[ebp], edi
  004ae	66 90		 npad	 2
$LL7@DrawCompon:

; 216  : 		count++;
; 217  : 		packetHeadPos = packetList.GetHeadPosition();

  004b0	8b 85 d8 fe ff
	ff		 mov	 eax, DWORD PTR _packetList$GSCopy$1$[ebp]

; 218  : 		int saveDataY = 0;
; 219  : 		int beforeDataY;
; 220  : 		CPoint DataPt;
; 221  : 		
; 222  : 		for(int j = 0; j < packetCount; j++){

  004b6	33 c9		 xor	 ecx, ecx
  004b8	ff 45 c4	 inc	 DWORD PTR _count$1$[ebp]
  004bb	c7 45 d8 00 00
	00 00		 mov	 DWORD PTR _saveDataY$1$[ebp], 0
  004c2	89 8d 44 ff ff
	ff		 mov	 DWORD PTR _j$1$[ebp], ecx
  004c8	8b 50 04	 mov	 edx, DWORD PTR [eax+4]
  004cb	39 4d b0	 cmp	 DWORD PTR _packetCount$1$[ebp], ecx
  004ce	0f 8e 9e 02 00
	00		 jle	 $LN332@DrawCompon
$LL10@DrawCompon:

; 223  : 			CPacket* dataPacket = packetList.GetNext(packetHeadPos);

  004d4	8b 42 08	 mov	 eax, DWORD PTR [edx+8]
; File C:\Program Files (x86)\Microsoft Visual Studio\2019\Community\VC\Tools\MSVC\14.29.30133\atlmfc\include\afxtempl.h

; 819  : 		rPosition = (POSITION) pNode->pNext;

  004d7	8b 12		 mov	 edx, DWORD PTR [edx]
  004d9	89 95 40 ff ff
	ff		 mov	 DWORD PTR _packetHeadPos$2$[ebp], edx
; File D:\git\src\IBK\IBK_DRFN\ProjSrc\SrcChartEx\ChartOCX\GraphDraw\FundDraw.cpp

; 224  : 			POSITION dataPosPosition = packetPosition.FindIndex(j);

  004df	8b d1		 mov	 edx, ecx
  004e1	89 45 dc	 mov	 DWORD PTR _dataPacket$1$[ebp], eax
; File C:\Program Files (x86)\Microsoft Visual Studio\2019\Community\VC\Tools\MSVC\14.29.30133\atlmfc\include\afxtempl.h

; 1133 : 	if (nIndex >= m_nCount || nIndex < 0)

  004e4	3b 8d e8 fe ff
	ff		 cmp	 ecx, DWORD PTR _packetPosition$[ebp+12]
  004ea	7d 26		 jge	 SHORT $LN158@DrawCompon
  004ec	85 c9		 test	 ecx, ecx
  004ee	78 22		 js	 SHORT $LN158@DrawCompon

; 1135 : 
; 1136 : 	CNode* pNode = m_pNodeHead;

  004f0	8b 85 e0 fe ff
	ff		 mov	 eax, DWORD PTR _packetPosition$[ebp+4]
  004f6	89 45 d0	 mov	 DWORD PTR $T11[ebp], eax

; 1137 : 	while (nIndex--)

  004f9	74 1c		 je	 SHORT $LN154@DrawCompon
  004fb	0f 1f 44 00 00	 npad	 5
$LL155@DrawCompon:

; 1138 : 	{
; 1139 : 		ASSERT(AfxIsValidAddress(pNode, sizeof(CNode)));
; 1140 : 		pNode = pNode->pNext;

  00500	8b 00		 mov	 eax, DWORD PTR [eax]
  00502	83 ea 01	 sub	 edx, 1
  00505	75 f9		 jne	 SHORT $LL155@DrawCompon

; 1141 : 	}
; 1142 : 	return (POSITION) pNode;

  00507	eb 0b		 jmp	 SHORT $LN360@DrawCompon
$LN329@DrawCompon:
  00509	c6 45 cf 00	 mov	 BYTE PTR $T10[ebp], 0
  0050d	e9 1e 05 00 00	 jmp	 $LN313@DrawCompon
$LN158@DrawCompon:

; 1134 : 		return NULL;  // went too far

  00512	33 c0		 xor	 eax, eax
$LN360@DrawCompon:
; File D:\git\src\IBK\IBK_DRFN\ProjSrc\SrcChartEx\ChartOCX\GraphDraw\FundDraw.cpp

; 226  : 			POSITION dataPos = packetPosition.GetNext(dataPosPosition);

  00514	89 45 d0	 mov	 DWORD PTR $T11[ebp], eax
$LN154@DrawCompon:

; 227  : 			if(packetHeadPos == NULL || dataPosPosition == NULL || dataPos == NULL)

  00517	83 bd 40 ff ff
	ff 00		 cmp	 DWORD PTR _packetHeadPos$2$[ebp], 0
  0051e	8b 78 08	 mov	 edi, DWORD PTR [eax+8]
  00521	89 7d ac	 mov	 DWORD PTR _pNode$1$[ebp], edi
  00524	0f 84 45 02 00
	00		 je	 $LN357@DrawCompon
  0052a	83 38 00	 cmp	 DWORD PTR [eax], 0
  0052d	0f 84 3c 02 00
	00		 je	 $LN357@DrawCompon
  00533	85 ff		 test	 edi, edi
  00535	0f 84 34 02 00
	00		 je	 $LN357@DrawCompon

; 229  : 			CString strData = CDataConversion( m_hOcxWnd, m_eChartMode).GetStringFormatTrans(CDataConversion::DoubleToString(dataPacket->GetnumericDataList()->GetNext(dataPos)), dataPacket->GetType());

  0053b	8b 4d dc	 mov	 ecx, DWORD PTR _dataPacket$1$[ebp]
  0053e	8d 85 d0 fe ff
	ff		 lea	 eax, DWORD PTR $T6[ebp]
  00544	6a 01		 push	 1
  00546	50		 push	 eax
  00547	ff 15 00 00 00
	00		 call	 DWORD PTR __imp_?GetType@CPacket@@QAE?AV?$CStringT@DV?$StrTraitMFC_DLL@DV?$ChTraitsCRT@D@ATL@@@@@ATL@@_N@Z
  0054d	8b f0		 mov	 esi, eax
  0054f	8b 4d dc	 mov	 ecx, DWORD PTR _dataPacket$1$[ebp]
  00552	c6 45 fc 16	 mov	 BYTE PTR __$EHRec$[ebp+8], 22 ; 00000016H
  00556	ff 15 00 00 00
	00		 call	 DWORD PTR __imp_?GetnumericDataList@CPacket@@QAEPAV?$CList@NN@@XZ
; File C:\Program Files (x86)\Microsoft Visual Studio\2019\Community\VC\Tools\MSVC\14.29.30133\atlmfc\include\afxtempl.h

; 814  : 		return pNode->data; }

  0055c	8b 4d ac	 mov	 ecx, DWORD PTR _pNode$1$[ebp]
; File D:\git\src\IBK\IBK_DRFN\ProjSrc\SrcChartEx\ChartOCX\GraphDraw\FundDraw.cpp

; 229  : 			CString strData = CDataConversion( m_hOcxWnd, m_eChartMode).GetStringFormatTrans(CDataConversion::DoubleToString(dataPacket->GetnumericDataList()->GetNext(dataPos)), dataPacket->GetType());

  0055f	8d 85 d4 fe ff
	ff		 lea	 eax, DWORD PTR $T7[ebp]
; File C:\Program Files (x86)\Microsoft Visual Studio\2019\Community\VC\Tools\MSVC\14.29.30133\atlmfc\include\afxtempl.h

; 813  : 		rPosition = (POSITION) pNode->pNext;

  00565	8b 3f		 mov	 edi, DWORD PTR [edi]

; 814  : 		return pNode->data; }

  00567	83 c1 08	 add	 ecx, 8
; File D:\git\src\IBK\IBK_DRFN\ProjSrc\SrcChartEx\ChartOCX\GraphDraw\FundDraw.cpp

; 229  : 			CString strData = CDataConversion( m_hOcxWnd, m_eChartMode).GetStringFormatTrans(CDataConversion::DoubleToString(dataPacket->GetnumericDataList()->GetNext(dataPos)), dataPacket->GetType());

  0056a	51		 push	 ecx
  0056b	50		 push	 eax
  0056c	e8 00 00 00 00	 call	 ?DoubleToString@CDataConversion@@SA?AV?$CStringT@DV?$StrTraitMFC_DLL@DV?$ChTraitsCRT@D@ATL@@@@@ATL@@ABN@Z ; CDataConversion::DoubleToString
  00571	83 c4 08	 add	 esp, 8
  00574	8b 4d b4	 mov	 ecx, DWORD PTR _this$GSCopy$1$[ebp]
  00577	56		 push	 esi
  00578	50		 push	 eax
  00579	8d 45 c8	 lea	 eax, DWORD PTR _strData$9[ebp]
  0057c	c6 45 fc 17	 mov	 BYTE PTR __$EHRec$[ebp+8], 23 ; 00000017H
  00580	8b 51 20	 mov	 edx, DWORD PTR [ecx+32]
; File D:\git\src\IBK\IBK_DRFN\ProjSrc\SrcChartEx\ChartOCX\Include_Chart\Conversion.h

; 27   : 		{	m_hOcxWnd = p_hOcxWnd;	m_eChartMode = p_eChartMode;	}

  00583	8b 49 1c	 mov	 ecx, DWORD PTR [ecx+28]
  00586	89 8d a8 fe ff
	ff		 mov	 DWORD PTR $T4[ebp], ecx
; File D:\git\src\IBK\IBK_DRFN\ProjSrc\SrcChartEx\ChartOCX\GraphDraw\FundDraw.cpp

; 229  : 			CString strData = CDataConversion( m_hOcxWnd, m_eChartMode).GetStringFormatTrans(CDataConversion::DoubleToString(dataPacket->GetnumericDataList()->GetNext(dataPos)), dataPacket->GetType());

  0058c	8d 8d a8 fe ff
	ff		 lea	 ecx, DWORD PTR $T4[ebp]
  00592	50		 push	 eax
; File D:\git\src\IBK\IBK_DRFN\ProjSrc\SrcChartEx\ChartOCX\Include_Chart\Conversion.h

; 27   : 		{	m_hOcxWnd = p_hOcxWnd;	m_eChartMode = p_eChartMode;	}

  00593	89 95 ac fe ff
	ff		 mov	 DWORD PTR $T4[ebp+4], edx
; File D:\git\src\IBK\IBK_DRFN\ProjSrc\SrcChartEx\ChartOCX\GraphDraw\FundDraw.cpp

; 229  : 			CString strData = CDataConversion( m_hOcxWnd, m_eChartMode).GetStringFormatTrans(CDataConversion::DoubleToString(dataPacket->GetnumericDataList()->GetNext(dataPos)), dataPacket->GetType());

  00599	e8 00 00 00 00	 call	 ?GetStringFormatTrans@CDataConversion@@QAE?AV?$CStringT@DV?$StrTraitMFC_DLL@DV?$ChTraitsCRT@D@ATL@@@@@ATL@@ABV23@0@Z ; CDataConversion::GetStringFormatTrans
  0059e	8d 8d d4 fe ff
	ff		 lea	 ecx, DWORD PTR $T7[ebp]
  005a4	ff 15 00 00 00
	00		 call	 DWORD PTR __imp_??1?$CStringT@DV?$StrTraitMFC_DLL@DV?$ChTraitsCRT@D@ATL@@@@@ATL@@QAE@XZ
  005aa	8d 8d d0 fe ff
	ff		 lea	 ecx, DWORD PTR $T6[ebp]
  005b0	c6 45 fc 1a	 mov	 BYTE PTR __$EHRec$[ebp+8], 26 ; 0000001aH
  005b4	ff 15 00 00 00
	00		 call	 DWORD PTR __imp_??1?$CStringT@DV?$StrTraitMFC_DLL@DV?$ChTraitsCRT@D@ATL@@@@@ATL@@QAE@XZ

; 230  : 			strData.TrimRight("%");

  005ba	68 00 00 00 00	 push	 OFFSET ??_C@_01FGNFDNOH@?$CF@
  005bf	8d 4d c8	 lea	 ecx, DWORD PTR _strData$9[ebp]
  005c2	ff 15 00 00 00
	00		 call	 DWORD PTR __imp_?TrimRight@?$CStringT@DV?$StrTraitMFC_DLL@DV?$ChTraitsCRT@D@ATL@@@@@ATL@@QAEAAV12@PBD@Z

; 231  : 			double data = atof(strData);

  005c8	ff 75 c8	 push	 DWORD PTR _strData$9[ebp]
  005cb	ff 15 00 00 00
	00		 call	 DWORD PTR __imp__atof

; 232  : 			packetPosition.SetAt(tempPos, dataPos);

  005d1	8b 45 d0	 mov	 eax, DWORD PTR $T11[ebp]

; 233  : 			DataPt = CDataConversion::GetVerticalPoint(graphDrawingRegion, count, realWidth, dataViewMin, dataViewMax, data);

  005d4	6a 01		 push	 1
  005d6	dd 9d b0 fe ff
	ff		 fstp	 QWORD PTR _data$5[ebp]
  005dc	89 78 08	 mov	 DWORD PTR [eax+8], edi
  005df	8d 85 b0 fe ff
	ff		 lea	 eax, DWORD PTR _data$5[ebp]
  005e5	50		 push	 eax
  005e6	ff b5 c4 fe ff
	ff		 push	 DWORD PTR _dataViewMax$GSCopy$1$[ebp]
  005ec	8d 85 b8 fe ff
	ff		 lea	 eax, DWORD PTR _realWidth$[ebp]
  005f2	ff b5 cc fe ff
	ff		 push	 DWORD PTR _dataViewMin$GSCopy$1$[ebp]
  005f8	50		 push	 eax
  005f9	ff 75 c4	 push	 DWORD PTR _count$1$[ebp]
  005fc	8d 85 90 fe ff
	ff		 lea	 eax, DWORD PTR $T2[ebp]
  00602	ff 75 c0	 push	 DWORD PTR _graphDrawingRegion$GSCopy$1$[ebp]
  00605	50		 push	 eax
  00606	e8 00 00 00 00	 call	 ?GetVerticalPoint@CDataConversion@@SA?AVCPoint@@ABVCRect@@HABN111_N@Z ; CDataConversion::GetVerticalPoint

; 234  : 			if(data == 0)

  0060b	f2 0f 10 85 b0
	fe ff ff	 movsd	 xmm0, QWORD PTR _data$5[ebp]
  00613	83 c4 24	 add	 esp, 36			; 00000024H
  00616	0f 57 c9	 xorps	 xmm1, xmm1
  00619	66 0f 2e c1	 ucomisd xmm0, xmm1
  0061d	8b 70 04	 mov	 esi, DWORD PTR [eax+4]
  00620	8b 38		 mov	 edi, DWORD PTR [eax]
  00622	8b 45 c0	 mov	 eax, DWORD PTR _graphDrawingRegion$GSCopy$1$[ebp]
  00625	89 75 d0	 mov	 DWORD PTR _DataPt$1$[ebp], esi
  00628	8b 48 0c	 mov	 ecx, DWORD PTR [eax+12]
  0062b	89 4d dc	 mov	 DWORD PTR _t$1$[ebp], ecx
  0062e	9f		 lahf
  0062f	f6 c4 44	 test	 ah, 68			; 00000044H
  00632	7a 07		 jp	 SHORT $LN347@DrawCompon

; 235  : 				DataPt.y = graphDrawingRegion.bottom;

  00634	89 4d d0	 mov	 DWORD PTR _DataPt$1$[ebp], ecx
  00637	8b d1		 mov	 edx, ecx
  00639	eb 05		 jmp	 SHORT $LN20@DrawCompon
$LN347@DrawCompon:
  0063b	89 4d dc	 mov	 DWORD PTR _t$1$[ebp], ecx
  0063e	8b d6		 mov	 edx, esi
$LN20@DrawCompon:

; 236  : 			if(data != 0 && graphDrawingRegion.bottom == DataPt.y)

  00640	66 0f 2e c1	 ucomisd xmm0, xmm1
  00644	8b f2		 mov	 esi, edx
  00646	9f		 lahf
  00647	f6 c4 44	 test	 ah, 68			; 00000044H
  0064a	7b 0c		 jnp	 SHORT $LN21@DrawCompon
  0064c	3b ca		 cmp	 ecx, edx
  0064e	75 08		 jne	 SHORT $LN21@DrawCompon

; 237  : 				DataPt.y --;

  00650	8d 42 ff	 lea	 eax, DWORD PTR [edx-1]
  00653	89 45 d0	 mov	 DWORD PTR _DataPt$1$[ebp], eax
  00656	8b f0		 mov	 esi, eax
$LN21@DrawCompon:

; 238  : 
; 239  : 			saveDataY = saveDataY + (graphDrawingRegion.bottom - DataPt.y);

  00658	8b c1		 mov	 eax, ecx
  0065a	2b c6		 sub	 eax, esi

; 240  : 			CRect rect;
; 241  : 			if(j == 0)

  0065c	8b b5 44 ff ff
	ff		 mov	 esi, DWORD PTR _j$1$[ebp]
  00662	01 45 d8	 add	 DWORD PTR _saveDataY$1$[ebp], eax
  00665	8b 45 bc	 mov	 eax, DWORD PTR _lineThickness$1$[ebp]
  00668	99		 cdq
  00669	2b c2		 sub	 eax, edx
  0066b	8b 55 dc	 mov	 edx, DWORD PTR _t$1$[ebp]
  0066e	d1 f8		 sar	 eax, 1
  00670	89 45 ac	 mov	 DWORD PTR tv2213[ebp], eax
  00673	85 f6		 test	 esi, esi
  00675	75 41		 jne	 SHORT $LN22@DrawCompon

; 242  : 				rect = CRect(DataPt.x - bongWidth - lineThickness/2, DataPt.y, DataPt.x + bongWidth + lineThickness, graphDrawingRegion.bottom);

  00677	8b 4d bc	 mov	 ecx, DWORD PTR _lineThickness$1$[ebp]
  0067a	03 cf		 add	 ecx, edi
; File C:\Program Files (x86)\Microsoft Visual Studio\2019\Community\VC\Tools\MSVC\14.29.30133\atlmfc\include\atltypes.h

; 543  : 	bottom = b;

  0067c	89 95 a4 fe ff
	ff		 mov	 DWORD PTR $T3[ebp+12], edx
; File D:\git\src\IBK\IBK_DRFN\ProjSrc\SrcChartEx\ChartOCX\GraphDraw\FundDraw.cpp

; 242  : 				rect = CRect(DataPt.x - bongWidth - lineThickness/2, DataPt.y, DataPt.x + bongWidth + lineThickness, graphDrawingRegion.bottom);

  00682	03 4d b8	 add	 ecx, DWORD PTR _bongWidth$3$[ebp]
; File C:\Program Files (x86)\Microsoft Visual Studio\2019\Community\VC\Tools\MSVC\14.29.30133\atlmfc\include\atltypes.h

; 540  : 	left = l;

  00685	2b f8		 sub	 edi, eax
; File D:\git\src\IBK\IBK_DRFN\ProjSrc\SrcChartEx\ChartOCX\GraphDraw\FundDraw.cpp

; 242  : 				rect = CRect(DataPt.x - bongWidth - lineThickness/2, DataPt.y, DataPt.x + bongWidth + lineThickness, graphDrawingRegion.bottom);

  00687	2b 7d b8	 sub	 edi, DWORD PTR _bongWidth$3$[ebp]
; File C:\Program Files (x86)\Microsoft Visual Studio\2019\Community\VC\Tools\MSVC\14.29.30133\atlmfc\include\atltypes.h

; 541  : 	top = t;

  0068a	8b 45 d0	 mov	 eax, DWORD PTR _DataPt$1$[ebp]
  0068d	89 bd 98 fe ff
	ff		 mov	 DWORD PTR $T3[ebp], edi
; File D:\git\src\IBK\IBK_DRFN\ProjSrc\SrcChartEx\ChartOCX\GraphDraw\FundDraw.cpp

; 242  : 				rect = CRect(DataPt.x - bongWidth - lineThickness/2, DataPt.y, DataPt.x + bongWidth + lineThickness, graphDrawingRegion.bottom);

  00693	8d 7e 01	 lea	 edi, DWORD PTR [esi+1]
; File C:\Program Files (x86)\Microsoft Visual Studio\2019\Community\VC\Tools\MSVC\14.29.30133\atlmfc\include\atltypes.h

; 541  : 	top = t;

  00696	89 85 9c fe ff
	ff		 mov	 DWORD PTR $T3[ebp+4], eax
; File D:\git\src\IBK\IBK_DRFN\ProjSrc\SrcChartEx\ChartOCX\GraphDraw\FundDraw.cpp

; 242  : 				rect = CRect(DataPt.x - bongWidth - lineThickness/2, DataPt.y, DataPt.x + bongWidth + lineThickness, graphDrawingRegion.bottom);

  0069c	8b 45 d8	 mov	 eax, DWORD PTR _saveDataY$1$[ebp]
; File C:\Program Files (x86)\Microsoft Visual Studio\2019\Community\VC\Tools\MSVC\14.29.30133\atlmfc\include\atltypes.h

; 542  : 	right = r;

  0069f	89 8d a0 fe ff
	ff		 mov	 DWORD PTR $T3[ebp+8], ecx
; File D:\git\src\IBK\IBK_DRFN\ProjSrc\SrcChartEx\ChartOCX\GraphDraw\FundDraw.cpp

; 242  : 				rect = CRect(DataPt.x - bongWidth - lineThickness/2, DataPt.y, DataPt.x + bongWidth + lineThickness, graphDrawingRegion.bottom);

  006a5	0f 10 85 98 fe
	ff ff		 movups	 xmm0, XMMWORD PTR $T3[ebp]
  006ac	89 85 48 ff ff
	ff		 mov	 DWORD PTR _beforeDataY$8[ebp], eax
  006b2	0f 11 45 e0	 movups	 XMMWORD PTR _rect$12[ebp], xmm0
  006b6	eb 4d		 jmp	 SHORT $LN355@DrawCompon
$LN22@DrawCompon:

; 243  : 			else
; 244  : 				rect = CRect(DataPt.x - bongWidth - lineThickness/2, graphDrawingRegion.bottom - saveDataY, DataPt.x + bongWidth + lineThickness, graphDrawingRegion.bottom - beforeDataY);

  006b8	8b 45 bc	 mov	 eax, DWORD PTR _lineThickness$1$[ebp]
  006bb	2b 8d 48 ff ff
	ff		 sub	 ecx, DWORD PTR _beforeDataY$8[ebp]
  006c1	03 c7		 add	 eax, edi
  006c3	03 45 b8	 add	 eax, DWORD PTR _bongWidth$3$[ebp]
  006c6	2b 7d ac	 sub	 edi, DWORD PTR tv2213[ebp]
  006c9	2b 7d b8	 sub	 edi, DWORD PTR _bongWidth$3$[ebp]
  006cc	2b 55 d8	 sub	 edx, DWORD PTR _saveDataY$1$[ebp]
  006cf	89 45 e8	 mov	 DWORD PTR _rect$12[ebp+8], eax

; 245  : 			
; 246  : 			beforeDataY	= saveDataY;

  006d2	8b 45 d8	 mov	 eax, DWORD PTR _saveDataY$1$[ebp]
  006d5	89 85 48 ff ff
	ff		 mov	 DWORD PTR _beforeDataY$8[ebp], eax

; 247  : 			
; 248  : 			int selectBrush = (j+1) - (brushCount * ((j+1)/ brushCount));

  006db	b8 67 66 66 66	 mov	 eax, 1717986919		; 66666667H
  006e0	89 7d e0	 mov	 DWORD PTR _rect$12[ebp], edi
  006e3	8d 7e 01	 lea	 edi, DWORD PTR [esi+1]
  006e6	89 55 e4	 mov	 DWORD PTR _rect$12[ebp+4], edx
  006e9	f7 ef		 imul	 edi
  006eb	89 4d ec	 mov	 DWORD PTR _rect$12[ebp+12], ecx
  006ee	c1 fa 02	 sar	 edx, 2
  006f1	8b c2		 mov	 eax, edx
  006f3	c1 e8 1f	 shr	 eax, 31			; 0000001fH
  006f6	03 c2		 add	 eax, edx
  006f8	8d 04 80	 lea	 eax, DWORD PTR [eax+eax*4]
  006fb	03 c0		 add	 eax, eax
  006fd	2b f0		 sub	 esi, eax

; 249  : 			if(selectBrush == 1){

  006ff	0f 85 8f 03 00
	00		 jne	 $LN24@DrawCompon
$LN355@DrawCompon:

; 250  : 				pDC->SelectObject(&pen1);

  00705	8b 75 d4	 mov	 esi, DWORD PTR _pDC$GSCopy$1$[ebp]
  00708	8d 85 5c ff ff
	ff		 lea	 eax, DWORD PTR _pen1$[ebp]
  0070e	50		 push	 eax
  0070f	8b ce		 mov	 ecx, esi
  00711	e8 00 00 00 00	 call	 ?SelectObject@CDC@@QAEPAVCPen@@PAV2@@Z ; CDC::SelectObject
$LN361@DrawCompon:
; File C:\Program Files (x86)\Microsoft Visual Studio\2019\Community\VC\Tools\MSVC\14.29.30133\atlmfc\include\atltypes.h

; 581  : 	return bottom - top;

  00716	ff b5 58 ff ff
	ff		 push	 DWORD PTR _firstBrush$[ebp+4]
$LN362@DrawCompon:
  0071c	8d 45 e0	 lea	 eax, DWORD PTR _rect$12[ebp]
  0071f	50		 push	 eax
  00720	ff 76 04	 push	 DWORD PTR [esi+4]
  00723	ff 15 00 00 00
	00		 call	 DWORD PTR __imp__FillRect@12
  00729	8b 45 ec	 mov	 eax, DWORD PTR _rect$12[ebp+12]
  0072c	8b 4d e4	 mov	 ecx, DWORD PTR _rect$12[ebp+4]
  0072f	2b c1		 sub	 eax, ecx
; File D:\git\src\IBK\IBK_DRFN\ProjSrc\SrcChartEx\ChartOCX\GraphDraw\FundDraw.cpp

; 292  : 			if(rect.Height() <= 1 && rect.Height() > 0)

  00731	83 f8 01	 cmp	 eax, 1
  00734	7f 15		 jg	 SHORT $LN44@DrawCompon
  00736	85 c0		 test	 eax, eax
  00738	7e 11		 jle	 SHORT $LN44@DrawCompon

; 293  : 				CDraw::DrawLine(pDC, CPoint(rect.left, rect.top), CPoint(rect.right, rect.top));

  0073a	51		 push	 ecx
  0073b	ff 75 e8	 push	 DWORD PTR _rect$12[ebp+8]
  0073e	51		 push	 ecx
  0073f	ff 75 e0	 push	 DWORD PTR _rect$12[ebp]
  00742	8b 4d b4	 mov	 ecx, DWORD PTR _this$GSCopy$1$[ebp]
  00745	56		 push	 esi
  00746	e8 00 00 00 00	 call	 ?DrawLine@CDraw@@IAEXPAVCDC@@UtagPOINT@@1@Z ; CDraw::DrawLine
$LN44@DrawCompon:

; 294  : 
; 295  : 		}

  0074b	8d 4d c8	 lea	 ecx, DWORD PTR _strData$9[ebp]
  0074e	c6 45 fc 15	 mov	 BYTE PTR __$EHRec$[ebp+8], 21 ; 00000015H
  00752	ff 15 00 00 00
	00		 call	 DWORD PTR __imp_??1?$CStringT@DV?$StrTraitMFC_DLL@DV?$ChTraitsCRT@D@ATL@@@@@ATL@@QAE@XZ
  00758	8b 95 40 ff ff
	ff		 mov	 edx, DWORD PTR _packetHeadPos$2$[ebp]
  0075e	8b cf		 mov	 ecx, edi
  00760	89 bd 44 ff ff
	ff		 mov	 DWORD PTR _j$1$[ebp], edi
  00766	3b 4d b0	 cmp	 ecx, DWORD PTR _packetCount$1$[ebp]
  00769	0f 8c 65 fd ff
	ff		 jl	 $LL10@DrawCompon
$LN357@DrawCompon:
  0076f	8b 7d 20	 mov	 edi, DWORD PTR _dataRealEnd$[ebp]
$LN332@DrawCompon:

; 296  : 
; 297  : 		pDC->SelectObject(GetStockObject(NULL_BRUSH));

  00772	6a 05		 push	 5
  00774	ff 15 00 00 00
	00		 call	 DWORD PTR __imp__GetStockObject@4
; File C:\Program Files (x86)\Microsoft Visual Studio\2019\Community\VC\Tools\MSVC\14.29.30133\atlmfc\include\afxwin1.inl

; 366  : 		return (hObject != NULL) ? ::SelectObject(m_hDC, hObject) : NULL; }

  0077a	85 c0		 test	 eax, eax
  0077c	74 0a		 je	 SHORT $LN250@DrawCompon
  0077e	50		 push	 eax
  0077f	ff 76 04	 push	 DWORD PTR [esi+4]
  00782	ff 15 00 00 00
	00		 call	 DWORD PTR __imp__SelectObject@8
$LN250@DrawCompon:
; File D:\git\src\IBK\IBK_DRFN\ProjSrc\SrcChartEx\ChartOCX\GraphDraw\FundDraw.cpp

; 298  : 		pDC->SelectObject(&pen);

  00788	8d 45 a4	 lea	 eax, DWORD PTR _pen$[ebp]
  0078b	8b ce		 mov	 ecx, esi
  0078d	50		 push	 eax
  0078e	e8 00 00 00 00	 call	 ?SelectObject@CDC@@QAEPAVCPen@@PAV2@@Z ; CDC::SelectObject
  00793	83 ef 01	 sub	 edi, 1
  00796	89 7d 20	 mov	 DWORD PTR _dataRealEnd$[ebp], edi
  00799	0f 85 11 fd ff
	ff		 jne	 $LL7@DrawCompon
$LN6@DrawCompon:

; 299  : 		//CDraw::DrawRectangle(pDC, CRect(DataPt.x - bongWidth - lineThickness/2, graphDrawingRegion.top, DataPt.x + bongWidth + lineThickness, graphDrawingRegion.bottom));
; 300  : 	}
; 301  : 	pDC->SelectObject(pOldBrush);

  0079f	ff b5 c8 fe ff
	ff		 push	 DWORD PTR _pOldBrush$1$[ebp]
  007a5	8b ce		 mov	 ecx, esi
  007a7	e8 00 00 00 00	 call	 ?SelectObject@CDC@@QAEPAVCBrush@@PAV2@@Z ; CDC::SelectObject

; 302  : 	pDC->SelectObject(pOldPen);

  007ac	ff b5 c0 fe ff
	ff		 push	 DWORD PTR _pOldPen$1$[ebp]
  007b2	8b ce		 mov	 ecx, esi
  007b4	e8 00 00 00 00	 call	 ?SelectObject@CDC@@QAEPAVCPen@@PAV2@@Z ; CDC::SelectObject

; 303  : 
; 304  : 	firstBrush.DeleteObject();

  007b9	8d 8d 54 ff ff
	ff		 lea	 ecx, DWORD PTR _firstBrush$[ebp]
  007bf	e8 00 00 00 00	 call	 ?DeleteObject@CGdiObject@@QAEHXZ ; CGdiObject::DeleteObject

; 305  : 	secondBrush.DeleteObject();

  007c4	8d 8d f8 fe ff
	ff		 lea	 ecx, DWORD PTR _secondBrush$[ebp]
  007ca	e8 00 00 00 00	 call	 ?DeleteObject@CGdiObject@@QAEHXZ ; CGdiObject::DeleteObject

; 306  : 	thirdBrush.DeleteObject();

  007cf	8d 8d 00 ff ff
	ff		 lea	 ecx, DWORD PTR _thirdBrush$[ebp]
  007d5	e8 00 00 00 00	 call	 ?DeleteObject@CGdiObject@@QAEHXZ ; CGdiObject::DeleteObject

; 307  : 	fourBrush.DeleteObject();

  007da	8d 8d 08 ff ff
	ff		 lea	 ecx, DWORD PTR _fourBrush$[ebp]
  007e0	e8 00 00 00 00	 call	 ?DeleteObject@CGdiObject@@QAEHXZ ; CGdiObject::DeleteObject

; 308  : 	fiveBrush.DeleteObject();

  007e5	8d 8d 10 ff ff
	ff		 lea	 ecx, DWORD PTR _fiveBrush$[ebp]
  007eb	e8 00 00 00 00	 call	 ?DeleteObject@CGdiObject@@QAEHXZ ; CGdiObject::DeleteObject

; 309  : 	sixBrush.DeleteObject();

  007f0	8d 8d 18 ff ff
	ff		 lea	 ecx, DWORD PTR _sixBrush$[ebp]
  007f6	e8 00 00 00 00	 call	 ?DeleteObject@CGdiObject@@QAEHXZ ; CGdiObject::DeleteObject

; 310  : 	sevenBrush.DeleteObject();

  007fb	8d 8d 20 ff ff
	ff		 lea	 ecx, DWORD PTR _sevenBrush$[ebp]
  00801	e8 00 00 00 00	 call	 ?DeleteObject@CGdiObject@@QAEHXZ ; CGdiObject::DeleteObject

; 311  : 	eightBrush.DeleteObject();

  00806	8d 8d 28 ff ff
	ff		 lea	 ecx, DWORD PTR _eightBrush$[ebp]
  0080c	e8 00 00 00 00	 call	 ?DeleteObject@CGdiObject@@QAEHXZ ; CGdiObject::DeleteObject

; 312  : 	nineBrush.DeleteObject();

  00811	8d 8d 30 ff ff
	ff		 lea	 ecx, DWORD PTR _nineBrush$[ebp]
  00817	e8 00 00 00 00	 call	 ?DeleteObject@CGdiObject@@QAEHXZ ; CGdiObject::DeleteObject

; 313  : 	tenBrush.DeleteObject();

  0081c	8d 8d 38 ff ff
	ff		 lea	 ecx, DWORD PTR _tenBrush$[ebp]
  00822	e8 00 00 00 00	 call	 ?DeleteObject@CGdiObject@@QAEHXZ ; CGdiObject::DeleteObject

; 314  : 
; 315  : 	pen.DeleteObject();

  00827	8d 4d a4	 lea	 ecx, DWORD PTR _pen$[ebp]
  0082a	e8 00 00 00 00	 call	 ?DeleteObject@CGdiObject@@QAEHXZ ; CGdiObject::DeleteObject

; 316  : 	pen1.DeleteObject();

  0082f	8d 8d 5c ff ff
	ff		 lea	 ecx, DWORD PTR _pen1$[ebp]
  00835	e8 00 00 00 00	 call	 ?DeleteObject@CGdiObject@@QAEHXZ ; CGdiObject::DeleteObject

; 317  : 	pen2.DeleteObject();

  0083a	8d 8d 64 ff ff
	ff		 lea	 ecx, DWORD PTR _pen2$[ebp]
  00840	e8 00 00 00 00	 call	 ?DeleteObject@CGdiObject@@QAEHXZ ; CGdiObject::DeleteObject

; 318  : 	pen3.DeleteObject();

  00845	8d 8d 74 ff ff
	ff		 lea	 ecx, DWORD PTR _pen3$[ebp]
  0084b	e8 00 00 00 00	 call	 ?DeleteObject@CGdiObject@@QAEHXZ ; CGdiObject::DeleteObject

; 319  : 	pen4.DeleteObject();

  00850	8d 8d 4c ff ff
	ff		 lea	 ecx, DWORD PTR _pen4$[ebp]
  00856	e8 00 00 00 00	 call	 ?DeleteObject@CGdiObject@@QAEHXZ ; CGdiObject::DeleteObject

; 320  : 	pen5.DeleteObject();

  0085b	8d 8d 7c ff ff
	ff		 lea	 ecx, DWORD PTR _pen5$[ebp]
  00861	e8 00 00 00 00	 call	 ?DeleteObject@CGdiObject@@QAEHXZ ; CGdiObject::DeleteObject

; 321  : 	pen6.DeleteObject();

  00866	8d 4d 84	 lea	 ecx, DWORD PTR _pen6$[ebp]
  00869	e8 00 00 00 00	 call	 ?DeleteObject@CGdiObject@@QAEHXZ ; CGdiObject::DeleteObject

; 322  : 	pen7.DeleteObject();

  0086e	8d 4d 8c	 lea	 ecx, DWORD PTR _pen7$[ebp]
  00871	e8 00 00 00 00	 call	 ?DeleteObject@CGdiObject@@QAEHXZ ; CGdiObject::DeleteObject

; 323  : 	pen8.DeleteObject();

  00876	8d 4d 94	 lea	 ecx, DWORD PTR _pen8$[ebp]
  00879	e8 00 00 00 00	 call	 ?DeleteObject@CGdiObject@@QAEHXZ ; CGdiObject::DeleteObject

; 324  : 	pen9.DeleteObject();

  0087e	8d 4d 9c	 lea	 ecx, DWORD PTR _pen9$[ebp]
  00881	e8 00 00 00 00	 call	 ?DeleteObject@CGdiObject@@QAEHXZ ; CGdiObject::DeleteObject

; 325  : 	pen10.DeleteObject();

  00886	8d 8d 6c ff ff
	ff		 lea	 ecx, DWORD PTR _pen10$[ebp]
  0088c	e8 00 00 00 00	 call	 ?DeleteObject@CGdiObject@@QAEHXZ ; CGdiObject::DeleteObject
; File C:\Program Files (x86)\Microsoft Visual Studio\2019\Community\VC\Tools\MSVC\14.29.30133\atlmfc\include\afxwin1.inl

; 130  : 	{ }

  00891	8d 8d 38 ff ff
	ff		 lea	 ecx, DWORD PTR _tenBrush$[ebp]
; File D:\git\src\IBK\IBK_DRFN\ProjSrc\SrcChartEx\ChartOCX\GraphDraw\FundDraw.cpp

; 327  : 	return true;

  00897	c6 45 cf 01	 mov	 BYTE PTR $T10[ebp], 1
; File C:\Program Files (x86)\Microsoft Visual Studio\2019\Community\VC\Tools\MSVC\14.29.30133\atlmfc\include\afxwin1.inl

; 130  : 	{ }

  0089b	c7 85 38 ff ff
	ff 00 00 00 00	 mov	 DWORD PTR _tenBrush$[ebp], OFFSET ??_7CBrush@@6B@
  008a5	e8 00 00 00 00	 call	 ??1CGdiObject@@UAE@XZ	; CGdiObject::~CGdiObject
  008aa	8d 8d 30 ff ff
	ff		 lea	 ecx, DWORD PTR _nineBrush$[ebp]
  008b0	c7 85 30 ff ff
	ff 00 00 00 00	 mov	 DWORD PTR _nineBrush$[ebp], OFFSET ??_7CBrush@@6B@
  008ba	e8 00 00 00 00	 call	 ??1CGdiObject@@UAE@XZ	; CGdiObject::~CGdiObject
  008bf	8d 8d 28 ff ff
	ff		 lea	 ecx, DWORD PTR _eightBrush$[ebp]
  008c5	c7 85 28 ff ff
	ff 00 00 00 00	 mov	 DWORD PTR _eightBrush$[ebp], OFFSET ??_7CBrush@@6B@
  008cf	e8 00 00 00 00	 call	 ??1CGdiObject@@UAE@XZ	; CGdiObject::~CGdiObject
  008d4	8d 8d 20 ff ff
	ff		 lea	 ecx, DWORD PTR _sevenBrush$[ebp]
  008da	c7 85 20 ff ff
	ff 00 00 00 00	 mov	 DWORD PTR _sevenBrush$[ebp], OFFSET ??_7CBrush@@6B@
  008e4	e8 00 00 00 00	 call	 ??1CGdiObject@@UAE@XZ	; CGdiObject::~CGdiObject
  008e9	8d 8d 18 ff ff
	ff		 lea	 ecx, DWORD PTR _sixBrush$[ebp]
  008ef	c7 85 18 ff ff
	ff 00 00 00 00	 mov	 DWORD PTR _sixBrush$[ebp], OFFSET ??_7CBrush@@6B@
  008f9	e8 00 00 00 00	 call	 ??1CGdiObject@@UAE@XZ	; CGdiObject::~CGdiObject
  008fe	8d 8d 10 ff ff
	ff		 lea	 ecx, DWORD PTR _fiveBrush$[ebp]
  00904	c7 85 10 ff ff
	ff 00 00 00 00	 mov	 DWORD PTR _fiveBrush$[ebp], OFFSET ??_7CBrush@@6B@
  0090e	e8 00 00 00 00	 call	 ??1CGdiObject@@UAE@XZ	; CGdiObject::~CGdiObject
  00913	8d 8d 08 ff ff
	ff		 lea	 ecx, DWORD PTR _fourBrush$[ebp]
  00919	c7 85 08 ff ff
	ff 00 00 00 00	 mov	 DWORD PTR _fourBrush$[ebp], OFFSET ??_7CBrush@@6B@
  00923	e8 00 00 00 00	 call	 ??1CGdiObject@@UAE@XZ	; CGdiObject::~CGdiObject
  00928	8d 8d 00 ff ff
	ff		 lea	 ecx, DWORD PTR _thirdBrush$[ebp]
  0092e	c7 85 00 ff ff
	ff 00 00 00 00	 mov	 DWORD PTR _thirdBrush$[ebp], OFFSET ??_7CBrush@@6B@
  00938	e8 00 00 00 00	 call	 ??1CGdiObject@@UAE@XZ	; CGdiObject::~CGdiObject
  0093d	8d 8d f8 fe ff
	ff		 lea	 ecx, DWORD PTR _secondBrush$[ebp]
  00943	c7 85 f8 fe ff
	ff 00 00 00 00	 mov	 DWORD PTR _secondBrush$[ebp], OFFSET ??_7CBrush@@6B@
  0094d	e8 00 00 00 00	 call	 ??1CGdiObject@@UAE@XZ	; CGdiObject::~CGdiObject
  00952	8d 8d 54 ff ff
	ff		 lea	 ecx, DWORD PTR _firstBrush$[ebp]
  00958	c7 85 54 ff ff
	ff 00 00 00 00	 mov	 DWORD PTR _firstBrush$[ebp], OFFSET ??_7CBrush@@6B@
  00962	e8 00 00 00 00	 call	 ??1CGdiObject@@UAE@XZ	; CGdiObject::~CGdiObject

; 106  : 	{ }

  00967	c7 85 6c ff ff
	ff 00 00 00 00	 mov	 DWORD PTR _pen10$[ebp], OFFSET ??_7CPen@@6B@
  00971	8d 8d 6c ff ff
	ff		 lea	 ecx, DWORD PTR _pen10$[ebp]
  00977	e8 00 00 00 00	 call	 ??1CGdiObject@@UAE@XZ	; CGdiObject::~CGdiObject
  0097c	8d 4d 9c	 lea	 ecx, DWORD PTR _pen9$[ebp]
  0097f	c7 45 9c 00 00
	00 00		 mov	 DWORD PTR _pen9$[ebp], OFFSET ??_7CPen@@6B@
  00986	e8 00 00 00 00	 call	 ??1CGdiObject@@UAE@XZ	; CGdiObject::~CGdiObject
  0098b	8d 4d 94	 lea	 ecx, DWORD PTR _pen8$[ebp]
  0098e	c7 45 94 00 00
	00 00		 mov	 DWORD PTR _pen8$[ebp], OFFSET ??_7CPen@@6B@
  00995	e8 00 00 00 00	 call	 ??1CGdiObject@@UAE@XZ	; CGdiObject::~CGdiObject
  0099a	8d 4d 8c	 lea	 ecx, DWORD PTR _pen7$[ebp]
  0099d	c7 45 8c 00 00
	00 00		 mov	 DWORD PTR _pen7$[ebp], OFFSET ??_7CPen@@6B@
  009a4	e8 00 00 00 00	 call	 ??1CGdiObject@@UAE@XZ	; CGdiObject::~CGdiObject
  009a9	8d 4d 84	 lea	 ecx, DWORD PTR _pen6$[ebp]
  009ac	c7 45 84 00 00
	00 00		 mov	 DWORD PTR _pen6$[ebp], OFFSET ??_7CPen@@6B@
  009b3	e8 00 00 00 00	 call	 ??1CGdiObject@@UAE@XZ	; CGdiObject::~CGdiObject
  009b8	8d 8d 7c ff ff
	ff		 lea	 ecx, DWORD PTR _pen5$[ebp]
  009be	c7 85 7c ff ff
	ff 00 00 00 00	 mov	 DWORD PTR _pen5$[ebp], OFFSET ??_7CPen@@6B@
  009c8	e8 00 00 00 00	 call	 ??1CGdiObject@@UAE@XZ	; CGdiObject::~CGdiObject
  009cd	8d 8d 4c ff ff
	ff		 lea	 ecx, DWORD PTR _pen4$[ebp]
  009d3	c7 85 4c ff ff
	ff 00 00 00 00	 mov	 DWORD PTR _pen4$[ebp], OFFSET ??_7CPen@@6B@
  009dd	e8 00 00 00 00	 call	 ??1CGdiObject@@UAE@XZ	; CGdiObject::~CGdiObject
  009e2	8d 8d 74 ff ff
	ff		 lea	 ecx, DWORD PTR _pen3$[ebp]
  009e8	c7 85 74 ff ff
	ff 00 00 00 00	 mov	 DWORD PTR _pen3$[ebp], OFFSET ??_7CPen@@6B@
  009f2	e8 00 00 00 00	 call	 ??1CGdiObject@@UAE@XZ	; CGdiObject::~CGdiObject
  009f7	8d 8d 64 ff ff
	ff		 lea	 ecx, DWORD PTR _pen2$[ebp]
  009fd	c7 85 64 ff ff
	ff 00 00 00 00	 mov	 DWORD PTR _pen2$[ebp], OFFSET ??_7CPen@@6B@
  00a07	e8 00 00 00 00	 call	 ??1CGdiObject@@UAE@XZ	; CGdiObject::~CGdiObject
  00a0c	8d 8d 5c ff ff
	ff		 lea	 ecx, DWORD PTR _pen1$[ebp]
  00a12	c7 85 5c ff ff
	ff 00 00 00 00	 mov	 DWORD PTR _pen1$[ebp], OFFSET ??_7CPen@@6B@
  00a1c	e8 00 00 00 00	 call	 ??1CGdiObject@@UAE@XZ	; CGdiObject::~CGdiObject
  00a21	8d 4d a4	 lea	 ecx, DWORD PTR _pen$[ebp]
  00a24	c7 45 a4 00 00
	00 00		 mov	 DWORD PTR _pen$[ebp], OFFSET ??_7CPen@@6B@
  00a2b	e8 00 00 00 00	 call	 ??1CGdiObject@@UAE@XZ	; CGdiObject::~CGdiObject
$LN313@DrawCompon:
; File C:\Program Files (x86)\Microsoft Visual Studio\2019\Community\VC\Tools\MSVC\14.29.30133\atlmfc\include\afxtempl.h

; 872  : 	m_pBlocks->FreeDataChain();

  00a30	8b 8d f0 fe ff
	ff		 mov	 ecx, DWORD PTR _packetPosition$[ebp+20]

; 878  : {

  00a36	c7 45 fc 1b 00
	00 00		 mov	 DWORD PTR __$EHRec$[ebp+8], 27 ; 0000001bH
  00a3d	c7 85 dc fe ff
	ff 00 00 00 00	 mov	 DWORD PTR _packetPosition$[ebp], OFFSET ??_7?$CList@PAU__POSITION@@PAU1@@@6B@

; 870  : 	m_nCount = 0;

  00a47	c7 85 e8 fe ff
	ff 00 00 00 00	 mov	 DWORD PTR _packetPosition$[ebp+12], 0

; 871  : 	m_pNodeHead = m_pNodeTail = m_pNodeFree = NULL;

  00a51	c7 85 ec fe ff
	ff 00 00 00 00	 mov	 DWORD PTR _packetPosition$[ebp+16], 0
  00a5b	c7 85 e4 fe ff
	ff 00 00 00 00	 mov	 DWORD PTR _packetPosition$[ebp+8], 0
  00a65	c7 85 e0 fe ff
	ff 00 00 00 00	 mov	 DWORD PTR _packetPosition$[ebp+4], 0

; 872  : 	m_pBlocks->FreeDataChain();

  00a6f	e8 00 00 00 00	 call	 ?FreeDataChain@CPlex@@QAEXXZ ; CPlex::FreeDataChain
; File D:\git\src\IBK\IBK_DRFN\ProjSrc\SrcChartEx\ChartOCX\GraphDraw\FundDraw.cpp

; 327  : 	return true;

  00a74	8a 45 cf	 mov	 al, BYTE PTR $T10[ebp]
$LN1@DrawCompon:

; 328  : }

  00a77	8b 4d f4	 mov	 ecx, DWORD PTR __$EHRec$[ebp]
  00a7a	64 89 0d 00 00
	00 00		 mov	 DWORD PTR fs:0, ecx
  00a81	59		 pop	 ecx
  00a82	5f		 pop	 edi
  00a83	5e		 pop	 esi
  00a84	8b 4d f0	 mov	 ecx, DWORD PTR __$ArrayPad$[ebp]
  00a87	33 cd		 xor	 ecx, ebp
  00a89	e8 00 00 00 00	 call	 @__security_check_cookie@4
  00a8e	8b e5		 mov	 esp, ebp
  00a90	5d		 pop	 ebp
  00a91	c2 3c 00	 ret	 60			; 0000003cH
$LN24@DrawCompon:

; 251  : 				pDC->FillRect(rect, &firstBrush);
; 252  : 			}
; 253  : 			else if(selectBrush == 2){				

  00a94	83 fe 01	 cmp	 esi, 1
  00a97	75 1c		 jne	 SHORT $LN26@DrawCompon

; 254  : 				pDC->SelectObject(&pen2);

  00a99	8b 75 d4	 mov	 esi, DWORD PTR _pDC$GSCopy$1$[ebp]
  00a9c	8d 85 64 ff ff
	ff		 lea	 eax, DWORD PTR _pen2$[ebp]
  00aa2	50		 push	 eax
  00aa3	8b ce		 mov	 ecx, esi
  00aa5	e8 00 00 00 00	 call	 ?SelectObject@CDC@@QAEPAVCPen@@PAV2@@Z ; CDC::SelectObject
; File C:\Program Files (x86)\Microsoft Visual Studio\2019\Community\VC\Tools\MSVC\14.29.30133\atlmfc\include\afxwin1.inl

; 476  : 	{ ASSERT(m_hDC != NULL); ::FillRect(m_hDC, lpRect, (HBRUSH)pBrush->GetSafeHandle()); }

  00aaa	ff b5 fc fe ff
	ff		 push	 DWORD PTR _secondBrush$[ebp+4]
; File D:\git\src\IBK\IBK_DRFN\ProjSrc\SrcChartEx\ChartOCX\GraphDraw\FundDraw.cpp

; 256  : 			}

  00ab0	e9 67 fc ff ff	 jmp	 $LN362@DrawCompon
$LN26@DrawCompon:

; 257  : 			else if(selectBrush == 3){

  00ab5	83 fe 02	 cmp	 esi, 2
  00ab8	75 1c		 jne	 SHORT $LN28@DrawCompon

; 258  : 				pDC->SelectObject(&pen3);

  00aba	8b 75 d4	 mov	 esi, DWORD PTR _pDC$GSCopy$1$[ebp]
  00abd	8d 85 74 ff ff
	ff		 lea	 eax, DWORD PTR _pen3$[ebp]
  00ac3	50		 push	 eax
  00ac4	8b ce		 mov	 ecx, esi
  00ac6	e8 00 00 00 00	 call	 ?SelectObject@CDC@@QAEPAVCPen@@PAV2@@Z ; CDC::SelectObject
; File C:\Program Files (x86)\Microsoft Visual Studio\2019\Community\VC\Tools\MSVC\14.29.30133\atlmfc\include\afxwin1.inl

; 476  : 	{ ASSERT(m_hDC != NULL); ::FillRect(m_hDC, lpRect, (HBRUSH)pBrush->GetSafeHandle()); }

  00acb	ff b5 04 ff ff
	ff		 push	 DWORD PTR _thirdBrush$[ebp+4]
; File D:\git\src\IBK\IBK_DRFN\ProjSrc\SrcChartEx\ChartOCX\GraphDraw\FundDraw.cpp

; 260  : 			}

  00ad1	e9 46 fc ff ff	 jmp	 $LN362@DrawCompon
$LN28@DrawCompon:

; 261  : 			else if(selectBrush == 4){

  00ad6	83 fe 03	 cmp	 esi, 3
  00ad9	75 1c		 jne	 SHORT $LN30@DrawCompon

; 262  : 				pDC->SelectObject(&pen4);

  00adb	8b 75 d4	 mov	 esi, DWORD PTR _pDC$GSCopy$1$[ebp]
  00ade	8d 85 4c ff ff
	ff		 lea	 eax, DWORD PTR _pen4$[ebp]
  00ae4	50		 push	 eax
  00ae5	8b ce		 mov	 ecx, esi
  00ae7	e8 00 00 00 00	 call	 ?SelectObject@CDC@@QAEPAVCPen@@PAV2@@Z ; CDC::SelectObject
; File C:\Program Files (x86)\Microsoft Visual Studio\2019\Community\VC\Tools\MSVC\14.29.30133\atlmfc\include\afxwin1.inl

; 476  : 	{ ASSERT(m_hDC != NULL); ::FillRect(m_hDC, lpRect, (HBRUSH)pBrush->GetSafeHandle()); }

  00aec	ff b5 0c ff ff
	ff		 push	 DWORD PTR _fourBrush$[ebp+4]
; File D:\git\src\IBK\IBK_DRFN\ProjSrc\SrcChartEx\ChartOCX\GraphDraw\FundDraw.cpp

; 264  : 			}

  00af2	e9 25 fc ff ff	 jmp	 $LN362@DrawCompon
$LN30@DrawCompon:

; 265  : 			else if(selectBrush == 5){

  00af7	83 fe 04	 cmp	 esi, 4
  00afa	75 1c		 jne	 SHORT $LN32@DrawCompon

; 266  : 				pDC->SelectObject(&pen5);

  00afc	8b 75 d4	 mov	 esi, DWORD PTR _pDC$GSCopy$1$[ebp]
  00aff	8d 85 7c ff ff
	ff		 lea	 eax, DWORD PTR _pen5$[ebp]
  00b05	50		 push	 eax
  00b06	8b ce		 mov	 ecx, esi
  00b08	e8 00 00 00 00	 call	 ?SelectObject@CDC@@QAEPAVCPen@@PAV2@@Z ; CDC::SelectObject
; File C:\Program Files (x86)\Microsoft Visual Studio\2019\Community\VC\Tools\MSVC\14.29.30133\atlmfc\include\afxwin1.inl

; 476  : 	{ ASSERT(m_hDC != NULL); ::FillRect(m_hDC, lpRect, (HBRUSH)pBrush->GetSafeHandle()); }

  00b0d	ff b5 14 ff ff
	ff		 push	 DWORD PTR _fiveBrush$[ebp+4]
; File D:\git\src\IBK\IBK_DRFN\ProjSrc\SrcChartEx\ChartOCX\GraphDraw\FundDraw.cpp

; 268  : 			}

  00b13	e9 04 fc ff ff	 jmp	 $LN362@DrawCompon
$LN32@DrawCompon:

; 269  : 			else if(selectBrush == 6){

  00b18	83 fe 05	 cmp	 esi, 5
  00b1b	75 19		 jne	 SHORT $LN34@DrawCompon

; 270  : 				pDC->SelectObject(&pen6);

  00b1d	8b 75 d4	 mov	 esi, DWORD PTR _pDC$GSCopy$1$[ebp]
  00b20	8d 45 84	 lea	 eax, DWORD PTR _pen6$[ebp]
  00b23	50		 push	 eax
  00b24	8b ce		 mov	 ecx, esi
  00b26	e8 00 00 00 00	 call	 ?SelectObject@CDC@@QAEPAVCPen@@PAV2@@Z ; CDC::SelectObject
; File C:\Program Files (x86)\Microsoft Visual Studio\2019\Community\VC\Tools\MSVC\14.29.30133\atlmfc\include\afxwin1.inl

; 476  : 	{ ASSERT(m_hDC != NULL); ::FillRect(m_hDC, lpRect, (HBRUSH)pBrush->GetSafeHandle()); }

  00b2b	ff b5 1c ff ff
	ff		 push	 DWORD PTR _sixBrush$[ebp+4]
; File D:\git\src\IBK\IBK_DRFN\ProjSrc\SrcChartEx\ChartOCX\GraphDraw\FundDraw.cpp

; 272  : 			}

  00b31	e9 e6 fb ff ff	 jmp	 $LN362@DrawCompon
$LN34@DrawCompon:

; 273  : 			else if(selectBrush == 7){

  00b36	83 fe 06	 cmp	 esi, 6
  00b39	75 19		 jne	 SHORT $LN36@DrawCompon

; 274  : 				pDC->SelectObject(&pen7);

  00b3b	8b 75 d4	 mov	 esi, DWORD PTR _pDC$GSCopy$1$[ebp]
  00b3e	8d 45 8c	 lea	 eax, DWORD PTR _pen7$[ebp]
  00b41	50		 push	 eax
  00b42	8b ce		 mov	 ecx, esi
  00b44	e8 00 00 00 00	 call	 ?SelectObject@CDC@@QAEPAVCPen@@PAV2@@Z ; CDC::SelectObject
; File C:\Program Files (x86)\Microsoft Visual Studio\2019\Community\VC\Tools\MSVC\14.29.30133\atlmfc\include\afxwin1.inl

; 476  : 	{ ASSERT(m_hDC != NULL); ::FillRect(m_hDC, lpRect, (HBRUSH)pBrush->GetSafeHandle()); }

  00b49	ff b5 24 ff ff
	ff		 push	 DWORD PTR _sevenBrush$[ebp+4]
; File D:\git\src\IBK\IBK_DRFN\ProjSrc\SrcChartEx\ChartOCX\GraphDraw\FundDraw.cpp

; 276  : 			}

  00b4f	e9 c8 fb ff ff	 jmp	 $LN362@DrawCompon
$LN36@DrawCompon:

; 277  : 			else if(selectBrush == 8){

  00b54	83 fe 07	 cmp	 esi, 7
  00b57	75 19		 jne	 SHORT $LN38@DrawCompon

; 278  : 				pDC->SelectObject(&pen8);

  00b59	8b 75 d4	 mov	 esi, DWORD PTR _pDC$GSCopy$1$[ebp]
  00b5c	8d 45 94	 lea	 eax, DWORD PTR _pen8$[ebp]
  00b5f	50		 push	 eax
  00b60	8b ce		 mov	 ecx, esi
  00b62	e8 00 00 00 00	 call	 ?SelectObject@CDC@@QAEPAVCPen@@PAV2@@Z ; CDC::SelectObject
; File C:\Program Files (x86)\Microsoft Visual Studio\2019\Community\VC\Tools\MSVC\14.29.30133\atlmfc\include\afxwin1.inl

; 476  : 	{ ASSERT(m_hDC != NULL); ::FillRect(m_hDC, lpRect, (HBRUSH)pBrush->GetSafeHandle()); }

  00b67	ff b5 2c ff ff
	ff		 push	 DWORD PTR _eightBrush$[ebp+4]
; File D:\git\src\IBK\IBK_DRFN\ProjSrc\SrcChartEx\ChartOCX\GraphDraw\FundDraw.cpp

; 280  : 			}

  00b6d	e9 aa fb ff ff	 jmp	 $LN362@DrawCompon
$LN38@DrawCompon:

; 281  : 			else if(selectBrush == 9){

  00b72	83 fe 08	 cmp	 esi, 8
  00b75	75 19		 jne	 SHORT $LN40@DrawCompon

; 282  : 				pDC->SelectObject(&pen9);

  00b77	8b 75 d4	 mov	 esi, DWORD PTR _pDC$GSCopy$1$[ebp]
  00b7a	8d 45 9c	 lea	 eax, DWORD PTR _pen9$[ebp]
  00b7d	50		 push	 eax
  00b7e	8b ce		 mov	 ecx, esi
  00b80	e8 00 00 00 00	 call	 ?SelectObject@CDC@@QAEPAVCPen@@PAV2@@Z ; CDC::SelectObject
; File C:\Program Files (x86)\Microsoft Visual Studio\2019\Community\VC\Tools\MSVC\14.29.30133\atlmfc\include\afxwin1.inl

; 476  : 	{ ASSERT(m_hDC != NULL); ::FillRect(m_hDC, lpRect, (HBRUSH)pBrush->GetSafeHandle()); }

  00b85	ff b5 34 ff ff
	ff		 push	 DWORD PTR _nineBrush$[ebp+4]
; File D:\git\src\IBK\IBK_DRFN\ProjSrc\SrcChartEx\ChartOCX\GraphDraw\FundDraw.cpp

; 284  : 			}

  00b8b	e9 8c fb ff ff	 jmp	 $LN362@DrawCompon
$LN40@DrawCompon:

; 285  : 			else if(selectBrush == 10){

  00b90	83 fe 09	 cmp	 esi, 9
  00b93	8b 75 d4	 mov	 esi, DWORD PTR _pDC$GSCopy$1$[ebp]
  00b96	0f 85 7a fb ff
	ff		 jne	 $LN361@DrawCompon

; 286  : 				pDC->SelectObject(&pen10);

  00b9c	8d 85 6c ff ff
	ff		 lea	 eax, DWORD PTR _pen10$[ebp]
  00ba2	8b ce		 mov	 ecx, esi
  00ba4	50		 push	 eax
  00ba5	e8 00 00 00 00	 call	 ?SelectObject@CDC@@QAEPAVCPen@@PAV2@@Z ; CDC::SelectObject
; File C:\Program Files (x86)\Microsoft Visual Studio\2019\Community\VC\Tools\MSVC\14.29.30133\atlmfc\include\afxwin1.inl

; 476  : 	{ ASSERT(m_hDC != NULL); ::FillRect(m_hDC, lpRect, (HBRUSH)pBrush->GetSafeHandle()); }

  00baa	ff b5 3c ff ff
	ff		 push	 DWORD PTR _tenBrush$[ebp+4]
; File D:\git\src\IBK\IBK_DRFN\ProjSrc\SrcChartEx\ChartOCX\GraphDraw\FundDraw.cpp

; 288  : 			}

  00bb0	e9 67 fb ff ff	 jmp	 $LN362@DrawCompon
_TEXT	ENDS
;	COMDAT text$x
text$x	SEGMENT
__unwindfunclet$?DrawComponentRatio_Bar@CFundDraw@@AAE_NPAVCDC@@ABVCEtcGraphColor@@ABVCRect@@ABVCGraphColor@@HHHABN4ABV?$CList@PAVCPacket@@PAV1@@@VCPenThickness@@@Z$0:
  00000	8d 8d dc fe ff
	ff		 lea	 ecx, DWORD PTR _packetPosition$[ebp]
  00006	e9 00 00 00 00	 jmp	 ??1?$CList@PAU__POSITION@@PAU1@@@UAE@XZ ; CList<__POSITION *,__POSITION *>::~CList<__POSITION *,__POSITION *>
__unwindfunclet$?DrawComponentRatio_Bar@CFundDraw@@AAE_NPAVCDC@@ABVCEtcGraphColor@@ABVCRect@@ABVCGraphColor@@HHHABN4ABV?$CList@PAVCPacket@@PAV1@@@VCPenThickness@@@Z$1:
  0000b	8d 4d a4	 lea	 ecx, DWORD PTR _pen$[ebp]
  0000e	e9 00 00 00 00	 jmp	 ??1CPen@@UAE@XZ		; CPen::~CPen
__unwindfunclet$?DrawComponentRatio_Bar@CFundDraw@@AAE_NPAVCDC@@ABVCEtcGraphColor@@ABVCRect@@ABVCGraphColor@@HHHABN4ABV?$CList@PAVCPacket@@PAV1@@@VCPenThickness@@@Z$2:
  00013	8d 8d 5c ff ff
	ff		 lea	 ecx, DWORD PTR _pen1$[ebp]
  00019	e9 00 00 00 00	 jmp	 ??1CPen@@UAE@XZ		; CPen::~CPen
__unwindfunclet$?DrawComponentRatio_Bar@CFundDraw@@AAE_NPAVCDC@@ABVCEtcGraphColor@@ABVCRect@@ABVCGraphColor@@HHHABN4ABV?$CList@PAVCPacket@@PAV1@@@VCPenThickness@@@Z$3:
  0001e	8d 8d 64 ff ff
	ff		 lea	 ecx, DWORD PTR _pen2$[ebp]
  00024	e9 00 00 00 00	 jmp	 ??1CPen@@UAE@XZ		; CPen::~CPen
__unwindfunclet$?DrawComponentRatio_Bar@CFundDraw@@AAE_NPAVCDC@@ABVCEtcGraphColor@@ABVCRect@@ABVCGraphColor@@HHHABN4ABV?$CList@PAVCPacket@@PAV1@@@VCPenThickness@@@Z$4:
  00029	8d 8d 74 ff ff
	ff		 lea	 ecx, DWORD PTR _pen3$[ebp]
  0002f	e9 00 00 00 00	 jmp	 ??1CPen@@UAE@XZ		; CPen::~CPen
__unwindfunclet$?DrawComponentRatio_Bar@CFundDraw@@AAE_NPAVCDC@@ABVCEtcGraphColor@@ABVCRect@@ABVCGraphColor@@HHHABN4ABV?$CList@PAVCPacket@@PAV1@@@VCPenThickness@@@Z$5:
  00034	8d 8d 4c ff ff
	ff		 lea	 ecx, DWORD PTR _pen4$[ebp]
  0003a	e9 00 00 00 00	 jmp	 ??1CPen@@UAE@XZ		; CPen::~CPen
__unwindfunclet$?DrawComponentRatio_Bar@CFundDraw@@AAE_NPAVCDC@@ABVCEtcGraphColor@@ABVCRect@@ABVCGraphColor@@HHHABN4ABV?$CList@PAVCPacket@@PAV1@@@VCPenThickness@@@Z$6:
  0003f	8d 8d 7c ff ff
	ff		 lea	 ecx, DWORD PTR _pen5$[ebp]
  00045	e9 00 00 00 00	 jmp	 ??1CPen@@UAE@XZ		; CPen::~CPen
__unwindfunclet$?DrawComponentRatio_Bar@CFundDraw@@AAE_NPAVCDC@@ABVCEtcGraphColor@@ABVCRect@@ABVCGraphColor@@HHHABN4ABV?$CList@PAVCPacket@@PAV1@@@VCPenThickness@@@Z$7:
  0004a	8d 4d 84	 lea	 ecx, DWORD PTR _pen6$[ebp]
  0004d	e9 00 00 00 00	 jmp	 ??1CPen@@UAE@XZ		; CPen::~CPen
__unwindfunclet$?DrawComponentRatio_Bar@CFundDraw@@AAE_NPAVCDC@@ABVCEtcGraphColor@@ABVCRect@@ABVCGraphColor@@HHHABN4ABV?$CList@PAVCPacket@@PAV1@@@VCPenThickness@@@Z$8:
  00052	8d 4d 8c	 lea	 ecx, DWORD PTR _pen7$[ebp]
  00055	e9 00 00 00 00	 jmp	 ??1CPen@@UAE@XZ		; CPen::~CPen
__unwindfunclet$?DrawComponentRatio_Bar@CFundDraw@@AAE_NPAVCDC@@ABVCEtcGraphColor@@ABVCRect@@ABVCGraphColor@@HHHABN4ABV?$CList@PAVCPacket@@PAV1@@@VCPenThickness@@@Z$9:
  0005a	8d 4d 94	 lea	 ecx, DWORD PTR _pen8$[ebp]
  0005d	e9 00 00 00 00	 jmp	 ??1CPen@@UAE@XZ		; CPen::~CPen
__unwindfunclet$?DrawComponentRatio_Bar@CFundDraw@@AAE_NPAVCDC@@ABVCEtcGraphColor@@ABVCRect@@ABVCGraphColor@@HHHABN4ABV?$CList@PAVCPacket@@PAV1@@@VCPenThickness@@@Z$10:
  00062	8d 4d 9c	 lea	 ecx, DWORD PTR _pen9$[ebp]
  00065	e9 00 00 00 00	 jmp	 ??1CPen@@UAE@XZ		; CPen::~CPen
__unwindfunclet$?DrawComponentRatio_Bar@CFundDraw@@AAE_NPAVCDC@@ABVCEtcGraphColor@@ABVCRect@@ABVCGraphColor@@HHHABN4ABV?$CList@PAVCPacket@@PAV1@@@VCPenThickness@@@Z$11:
  0006a	8d 8d 6c ff ff
	ff		 lea	 ecx, DWORD PTR _pen10$[ebp]
  00070	e9 00 00 00 00	 jmp	 ??1CPen@@UAE@XZ		; CPen::~CPen
__unwindfunclet$?DrawComponentRatio_Bar@CFundDraw@@AAE_NPAVCDC@@ABVCEtcGraphColor@@ABVCRect@@ABVCGraphColor@@HHHABN4ABV?$CList@PAVCPacket@@PAV1@@@VCPenThickness@@@Z$12:
  00075	8d 8d 54 ff ff
	ff		 lea	 ecx, DWORD PTR _firstBrush$[ebp]
  0007b	e9 00 00 00 00	 jmp	 ??1CBrush@@UAE@XZ	; CBrush::~CBrush
__unwindfunclet$?DrawComponentRatio_Bar@CFundDraw@@AAE_NPAVCDC@@ABVCEtcGraphColor@@ABVCRect@@ABVCGraphColor@@HHHABN4ABV?$CList@PAVCPacket@@PAV1@@@VCPenThickness@@@Z$13:
  00080	8d 8d f8 fe ff
	ff		 lea	 ecx, DWORD PTR _secondBrush$[ebp]
  00086	e9 00 00 00 00	 jmp	 ??1CBrush@@UAE@XZ	; CBrush::~CBrush
__unwindfunclet$?DrawComponentRatio_Bar@CFundDraw@@AAE_NPAVCDC@@ABVCEtcGraphColor@@ABVCRect@@ABVCGraphColor@@HHHABN4ABV?$CList@PAVCPacket@@PAV1@@@VCPenThickness@@@Z$14:
  0008b	8d 8d 00 ff ff
	ff		 lea	 ecx, DWORD PTR _thirdBrush$[ebp]
  00091	e9 00 00 00 00	 jmp	 ??1CBrush@@UAE@XZ	; CBrush::~CBrush
__unwindfunclet$?DrawComponentRatio_Bar@CFundDraw@@AAE_NPAVCDC@@ABVCEtcGraphColor@@ABVCRect@@ABVCGraphColor@@HHHABN4ABV?$CList@PAVCPacket@@PAV1@@@VCPenThickness@@@Z$15:
  00096	8d 8d 08 ff ff
	ff		 lea	 ecx, DWORD PTR _fourBrush$[ebp]
  0009c	e9 00 00 00 00	 jmp	 ??1CBrush@@UAE@XZ	; CBrush::~CBrush
__unwindfunclet$?DrawComponentRatio_Bar@CFundDraw@@AAE_NPAVCDC@@ABVCEtcGraphColor@@ABVCRect@@ABVCGraphColor@@HHHABN4ABV?$CList@PAVCPacket@@PAV1@@@VCPenThickness@@@Z$16:
  000a1	8d 8d 10 ff ff
	ff		 lea	 ecx, DWORD PTR _fiveBrush$[ebp]
  000a7	e9 00 00 00 00	 jmp	 ??1CBrush@@UAE@XZ	; CBrush::~CBrush
__unwindfunclet$?DrawComponentRatio_Bar@CFundDraw@@AAE_NPAVCDC@@ABVCEtcGraphColor@@ABVCRect@@ABVCGraphColor@@HHHABN4ABV?$CList@PAVCPacket@@PAV1@@@VCPenThickness@@@Z$17:
  000ac	8d 8d 18 ff ff
	ff		 lea	 ecx, DWORD PTR _sixBrush$[ebp]
  000b2	e9 00 00 00 00	 jmp	 ??1CBrush@@UAE@XZ	; CBrush::~CBrush
__unwindfunclet$?DrawComponentRatio_Bar@CFundDraw@@AAE_NPAVCDC@@ABVCEtcGraphColor@@ABVCRect@@ABVCGraphColor@@HHHABN4ABV?$CList@PAVCPacket@@PAV1@@@VCPenThickness@@@Z$18:
  000b7	8d 8d 20 ff ff
	ff		 lea	 ecx, DWORD PTR _sevenBrush$[ebp]
  000bd	e9 00 00 00 00	 jmp	 ??1CBrush@@UAE@XZ	; CBrush::~CBrush
__unwindfunclet$?DrawComponentRatio_Bar@CFundDraw@@AAE_NPAVCDC@@ABVCEtcGraphColor@@ABVCRect@@ABVCGraphColor@@HHHABN4ABV?$CList@PAVCPacket@@PAV1@@@VCPenThickness@@@Z$19:
  000c2	8d 8d 28 ff ff
	ff		 lea	 ecx, DWORD PTR _eightBrush$[ebp]
  000c8	e9 00 00 00 00	 jmp	 ??1CBrush@@UAE@XZ	; CBrush::~CBrush
__unwindfunclet$?DrawComponentRatio_Bar@CFundDraw@@AAE_NPAVCDC@@ABVCEtcGraphColor@@ABVCRect@@ABVCGraphColor@@HHHABN4ABV?$CList@PAVCPacket@@PAV1@@@VCPenThickness@@@Z$20:
  000cd	8d 8d 30 ff ff
	ff		 lea	 ecx, DWORD PTR _nineBrush$[ebp]
  000d3	e9 00 00 00 00	 jmp	 ??1CBrush@@UAE@XZ	; CBrush::~CBrush
__unwindfunclet$?DrawComponentRatio_Bar@CFundDraw@@AAE_NPAVCDC@@ABVCEtcGraphColor@@ABVCRect@@ABVCGraphColor@@HHHABN4ABV?$CList@PAVCPacket@@PAV1@@@VCPenThickness@@@Z$21:
  000d8	8d 8d 38 ff ff
	ff		 lea	 ecx, DWORD PTR _tenBrush$[ebp]
  000de	e9 00 00 00 00	 jmp	 ??1CBrush@@UAE@XZ	; CBrush::~CBrush
__unwindfunclet$?DrawComponentRatio_Bar@CFundDraw@@AAE_NPAVCDC@@ABVCEtcGraphColor@@ABVCRect@@ABVCGraphColor@@HHHABN4ABV?$CList@PAVCPacket@@PAV1@@@VCPenThickness@@@Z$22:
  000e3	8d 8d d0 fe ff
	ff		 lea	 ecx, DWORD PTR $T6[ebp]
  000e9	ff 25 00 00 00
	00		 jmp	 DWORD PTR __imp_??1?$CStringT@DV?$StrTraitMFC_DLL@DV?$ChTraitsCRT@D@ATL@@@@@ATL@@QAE@XZ
__unwindfunclet$?DrawComponentRatio_Bar@CFundDraw@@AAE_NPAVCDC@@ABVCEtcGraphColor@@ABVCRect@@ABVCGraphColor@@HHHABN4ABV?$CList@PAVCPacket@@PAV1@@@VCPenThickness@@@Z$23:
  000ef	8d 8d d4 fe ff
	ff		 lea	 ecx, DWORD PTR $T7[ebp]
  000f5	ff 25 00 00 00
	00		 jmp	 DWORD PTR __imp_??1?$CStringT@DV?$StrTraitMFC_DLL@DV?$ChTraitsCRT@D@ATL@@@@@ATL@@QAE@XZ
__unwindfunclet$?DrawComponentRatio_Bar@CFundDraw@@AAE_NPAVCDC@@ABVCEtcGraphColor@@ABVCRect@@ABVCGraphColor@@HHHABN4ABV?$CList@PAVCPacket@@PAV1@@@VCPenThickness@@@Z$24:
  000fb	8d 4d c8	 lea	 ecx, DWORD PTR _strData$9[ebp]
  000fe	ff 25 00 00 00
	00		 jmp	 DWORD PTR __imp_??1?$CStringT@DV?$StrTraitMFC_DLL@DV?$ChTraitsCRT@D@ATL@@@@@ATL@@QAE@XZ
  00104	cc		 int	 3
  00105	cc		 int	 3
  00106	cc		 int	 3
  00107	cc		 int	 3
  00108	cc		 int	 3
__ehhandler$?DrawComponentRatio_Bar@CFundDraw@@AAE_NPAVCDC@@ABVCEtcGraphColor@@ABVCRect@@ABVCGraphColor@@HHHABN4ABV?$CList@PAVCPacket@@PAV1@@@VCPenThickness@@@Z:
  00109	90		 npad	 1
  0010a	90		 npad	 1
  0010b	8b 54 24 08	 mov	 edx, DWORD PTR [esp+8]
  0010f	8d 42 0c	 lea	 eax, DWORD PTR [edx+12]
  00112	8b 8a 90 fe ff
	ff		 mov	 ecx, DWORD PTR [edx-368]
  00118	33 c8		 xor	 ecx, eax
  0011a	e8 00 00 00 00	 call	 @__security_check_cookie@4
  0011f	8b 4a fc	 mov	 ecx, DWORD PTR [edx-4]
  00122	33 c8		 xor	 ecx, eax
  00124	e8 00 00 00 00	 call	 @__security_check_cookie@4
  00129	b8 00 00 00 00	 mov	 eax, OFFSET __ehfuncinfo$?DrawComponentRatio_Bar@CFundDraw@@AAE_NPAVCDC@@ABVCEtcGraphColor@@ABVCRect@@ABVCGraphColor@@HHHABN4ABV?$CList@PAVCPacket@@PAV1@@@VCPenThickness@@@Z
  0012e	e9 00 00 00 00	 jmp	 ___CxxFrameHandler3
text$x	ENDS
?DrawComponentRatio_Bar@CFundDraw@@AAE_NPAVCDC@@ABVCEtcGraphColor@@ABVCRect@@ABVCGraphColor@@HHHABN4ABV?$CList@PAVCPacket@@PAV1@@@VCPenThickness@@@Z ENDP ; CFundDraw::DrawComponentRatio_Bar
; Function compile flags: /Ogtp
; File D:\git\src\IBK\IBK_DRFN\ProjSrc\SrcChartEx\ChartOCX\GraphDraw\FundDraw.cpp
;	COMDAT ?DrawGraph@CFundDraw@@UAE_NPAVCDC@@ABVCRect@@ABVCDisplayAttributes@@ABVCDrawingGraphData@@ABVCSubGraphData@@PAVCXScaleManager@@@Z
_TEXT	SEGMENT
$T1 = -152						; size = 16
$T2 = -136						; size = 16
$T3 = -136						; size = 16
$T4 = -136						; size = 16
_$S16$ = -120						; size = 44
_$S17$ = -76						; size = 24
_$S18$ = -52						; size = 20
$T5 = -32						; size = 8
_nRealEnd$1$ = -28					; size = 4
$T6 = -24						; size = 8
$T7 = -24						; size = 8
_nDataEnd$1$ = -20					; size = 4
_dViewMax$ = -16					; size = 8
_dViewMin$ = -8						; size = 8
_pDC$ = 8						; size = 4
_realRegion$ = 12					; size = 4
_displayAttributes$ = 16				; size = 4
_drawingGraphData$ = 20					; size = 4
_subGraphData$ = 24					; size = 4
$T8 = 28						; size = 4
_pxScaleManager$ = 28					; size = 4
?DrawGraph@CFundDraw@@UAE_NPAVCDC@@ABVCRect@@ABVCDisplayAttributes@@ABVCDrawingGraphData@@ABVCSubGraphData@@PAVCXScaleManager@@@Z PROC ; CFundDraw::DrawGraph, COMDAT
; _this$ = ecx

; 93   : {

  00000	55		 push	 ebp
  00001	8b ec		 mov	 ebp, esp
  00003	81 ec 98 00 00
	00		 sub	 esp, 152		; 00000098H
  00009	53		 push	 ebx
  0000a	56		 push	 esi
  0000b	57		 push	 edi

; 94   : 	const CGraphColor& graphColor = subGraphData.GetColor();

  0000c	8d 45 88	 lea	 eax, DWORD PTR _$S16$[ebp]
  0000f	8b f1		 mov	 esi, ecx
  00011	8b 4d 18	 mov	 ecx, DWORD PTR _subGraphData$[ebp]
  00014	50		 push	 eax
  00015	ff 15 00 00 00
	00		 call	 DWORD PTR __imp_?GetColor@CSubGraphDataBase@@QBE?AVCGraphColor@@XZ

; 95   : 	const CEtcGraphColor& etcGraphColor = drawingGraphData.GetEtcGraphColor();

  0001b	8b 5d 14	 mov	 ebx, DWORD PTR _drawingGraphData$[ebp]
  0001e	8d 45 b4	 lea	 eax, DWORD PTR _$S17$[ebp]
  00021	50		 push	 eax
  00022	8b cb		 mov	 ecx, ebx
  00024	e8 00 00 00 00	 call	 ?GetEtcGraphColor@CDrawingGraphData@@QBE?AVCEtcGraphColor@@XZ ; CDrawingGraphData::GetEtcGraphColor

; 96   : 	int nRealStart = displayAttributes.GetDataStartInBlock();

  00029	8b 4d 10	 mov	 ecx, DWORD PTR _displayAttributes$[ebp]
  0002c	e8 00 00 00 00	 call	 ?GetDataStartInBlock@CDisplayAttributes@@QBEHXZ ; CDisplayAttributes::GetDataStartInBlock

; 97   : 	int nRealEnd = displayAttributes.GetDataEndInBlock();

  00031	8b 4d 10	 mov	 ecx, DWORD PTR _displayAttributes$[ebp]
  00034	8b f8		 mov	 edi, eax
  00036	e8 00 00 00 00	 call	 ?GetDataEndInBlock@CDisplayAttributes@@QBEHXZ ; CDisplayAttributes::GetDataEndInBlock
  0003b	89 45 e4	 mov	 DWORD PTR _nRealEnd$1$[ebp], eax

; 98   : 	int nDataEnd = drawingGraphData.GetDisplayAttributes().GetDataEndInBlock();

  0003e	8b cb		 mov	 ecx, ebx
  00040	8d 45 e8	 lea	 eax, DWORD PTR $T7[ebp]
  00043	50		 push	 eax
  00044	e8 00 00 00 00	 call	 ?GetDisplayAttributes@CDrawingGraphData@@QBE?AVCDisplayAttributes@@XZ ; CDrawingGraphData::GetDisplayAttributes
  00049	8b c8		 mov	 ecx, eax
  0004b	e8 00 00 00 00	 call	 ?GetDataEndInBlock@CDisplayAttributes@@QBEHXZ ; CDisplayAttributes::GetDataEndInBlock
  00050	89 45 ec	 mov	 DWORD PTR _nDataEnd$1$[ebp], eax

; 99   : 	double dViewMax = drawingGraphData.GetDisplayDataVertMinMax().GetDisplayMax(); 

  00053	8b cb		 mov	 ecx, ebx
  00055	8d 85 78 ff ff
	ff		 lea	 eax, DWORD PTR $T4[ebp]
  0005b	50		 push	 eax
  0005c	e8 00 00 00 00	 call	 ?GetDisplayDataVertMinMax@CDrawingGraphData@@QBE?AVCDisplayDataMinMax@@XZ ; CDrawingGraphData::GetDisplayDataVertMinMax
  00061	8b c8		 mov	 ecx, eax
  00063	ff 15 00 00 00
	00		 call	 DWORD PTR __imp_?GetDisplayMax@CDisplayDataMinMax@@QBENXZ

; 100  : 	double dViewMin = drawingGraphData.GetDisplayDataVertMinMax().GetDisplayMin();

  00069	8d 85 78 ff ff
	ff		 lea	 eax, DWORD PTR $T3[ebp]
  0006f	8b cb		 mov	 ecx, ebx
  00071	50		 push	 eax
  00072	dd 5d f0	 fstp	 QWORD PTR _dViewMax$[ebp]
  00075	e8 00 00 00 00	 call	 ?GetDisplayDataVertMinMax@CDrawingGraphData@@QBE?AVCDisplayDataMinMax@@XZ ; CDrawingGraphData::GetDisplayDataVertMinMax
  0007a	8b c8		 mov	 ecx, eax
  0007c	ff 15 00 00 00
	00		 call	 DWORD PTR __imp_?GetDisplayMin@CDisplayDataMinMax@@QBENXZ

; 101  : 	const CList<CPacket*, CPacket*> &packetList = drawingGraphData.GetSubGraphPacketList()->GetSubGraphPacketList();

  00082	8b cb		 mov	 ecx, ebx
  00084	dd 5d f8	 fstp	 QWORD PTR _dViewMin$[ebp]
  00087	e8 00 00 00 00	 call	 ?GetSubGraphPacketList@CDrawingGraphData@@QBEPAVCSubGraphPacketList@@XZ ; CDrawingGraphData::GetSubGraphPacketList
  0008c	8b c8		 mov	 ecx, eax
  0008e	e8 00 00 00 00	 call	 ?GetSubGraphPacketList@CSubGraphPacketList@@QBEABV?$CList@PAVCPacket@@PAV1@@@XZ ; CSubGraphPacketList::GetSubGraphPacketList

; 102  : 	const CPenThickness& penThickness = subGraphData.GetPenThickness();

  00093	8b 4d 18	 mov	 ecx, DWORD PTR _subGraphData$[ebp]
  00096	8b d8		 mov	 ebx, eax
  00098	8d 45 cc	 lea	 eax, DWORD PTR _$S18$[ebp]
  0009b	50		 push	 eax
  0009c	ff 15 00 00 00
	00		 call	 DWORD PTR __imp_?GetPenThickness@CSubGraphDataBase@@QBE?AVCPenThickness@@XZ

; 103  : 	
; 104  : 	if(pxScaleManager && pxScaleManager->GetThreadFlag() == THREAD_CALCULATION)

  000a2	8b 4d 1c	 mov	 ecx, DWORD PTR _pxScaleManager$[ebp]
  000a5	85 c9		 test	 ecx, ecx
  000a7	74 18		 je	 SHORT $LN4@DrawGraph
  000a9	8b 11		 mov	 edx, DWORD PTR [ecx]
  000ab	ff 92 f8 00 00
	00		 call	 DWORD PTR [edx+248]
  000b1	83 f8 01	 cmp	 eax, 1
  000b4	75 0b		 jne	 SHORT $LN4@DrawGraph

; 105  : 		return true;

  000b6	8a c0		 mov	 al, al

; 135  : 			nDataEnd, nRealEnd, dViewMax, dViewMin, packetList, penThickness);
; 136  : 	}
; 137  : 	
; 138  : 	return false;
; 139  : 
; 140  : }

  000b8	5f		 pop	 edi
  000b9	5e		 pop	 esi
  000ba	5b		 pop	 ebx
  000bb	8b e5		 mov	 esp, ebp
  000bd	5d		 pop	 ebp
  000be	c2 18 00	 ret	 24			; 00000018H
$LN4@DrawGraph:

; 106  : 
; 107  : 	switch(subGraphData.GetStyle().GetGraphSpecialStyle()){

  000c1	8b 4d 18	 mov	 ecx, DWORD PTR _subGraphData$[ebp]
  000c4	8d 45 1c	 lea	 eax, DWORD PTR $T8[ebp]
  000c7	50		 push	 eax
  000c8	ff 15 00 00 00
	00		 call	 DWORD PTR __imp_?GetStyle@CSubGraphDataBase@@QBE?AVCGraphStyle@@XZ
  000ce	8b 00		 mov	 eax, DWORD PTR [eax]
  000d0	83 f8 08	 cmp	 eax, 8
  000d3	0f 87 23 02 00
	00		 ja	 $LN2@DrawGraph
  000d9	ff 24 85 00 00
	00 00		 jmp	 DWORD PTR $LN15@DrawGraph[eax*4]
$LN5@DrawGraph:

; 108  : 	case CGraphBaseData::ComponentRatio_Bar:
; 109  : 		return DrawComponentRatio_Bar(pDC, etcGraphColor, realRegion, graphColor, 

  000e0	83 ec 14	 sub	 esp, 20			; 00000014H
  000e3	8d 45 cc	 lea	 eax, DWORD PTR _$S18$[ebp]
  000e6	8b cc		 mov	 ecx, esp
  000e8	50		 push	 eax
  000e9	ff 15 00 00 00
	00		 call	 DWORD PTR __imp_??0CPenThickness@@QAE@ABV0@@Z
  000ef	53		 push	 ebx
  000f0	8d 45 f8	 lea	 eax, DWORD PTR _dViewMin$[ebp]
  000f3	8b ce		 mov	 ecx, esi
  000f5	50		 push	 eax
  000f6	8d 45 f0	 lea	 eax, DWORD PTR _dViewMax$[ebp]
  000f9	50		 push	 eax
  000fa	ff 75 e4	 push	 DWORD PTR _nRealEnd$1$[ebp]
  000fd	8d 45 88	 lea	 eax, DWORD PTR _$S16$[ebp]
  00100	ff 75 ec	 push	 DWORD PTR _nDataEnd$1$[ebp]
  00103	57		 push	 edi
  00104	50		 push	 eax
  00105	ff 75 0c	 push	 DWORD PTR _realRegion$[ebp]
  00108	8d 45 b4	 lea	 eax, DWORD PTR _$S17$[ebp]
  0010b	50		 push	 eax
  0010c	ff 75 08	 push	 DWORD PTR _pDC$[ebp]
  0010f	e8 00 00 00 00	 call	 ?DrawComponentRatio_Bar@CFundDraw@@AAE_NPAVCDC@@ABVCEtcGraphColor@@ABVCRect@@ABVCGraphColor@@HHHABN4ABV?$CList@PAVCPacket@@PAV1@@@VCPenThickness@@@Z ; CFundDraw::DrawComponentRatio_Bar

; 135  : 			nDataEnd, nRealEnd, dViewMax, dViewMin, packetList, penThickness);
; 136  : 	}
; 137  : 	
; 138  : 	return false;
; 139  : 
; 140  : }

  00114	5f		 pop	 edi
  00115	5e		 pop	 esi
  00116	5b		 pop	 ebx
  00117	8b e5		 mov	 esp, ebp
  00119	5d		 pop	 ebp
  0011a	c2 18 00	 ret	 24			; 00000018H
$LN6@DrawGraph:

; 110  : 			nRealStart, nDataEnd, nRealEnd, dViewMax, dViewMin, packetList, penThickness);
; 111  : 	case CGraphBaseData::StyleBox:
; 112  : 		return DrawStyleBox(pDC, etcGraphColor, realRegion, graphColor, nRealStart, 

  0011d	83 ec 14	 sub	 esp, 20			; 00000014H
  00120	8d 45 cc	 lea	 eax, DWORD PTR _$S18$[ebp]
  00123	8b cc		 mov	 ecx, esp
  00125	50		 push	 eax
  00126	ff 15 00 00 00
	00		 call	 DWORD PTR __imp_??0CPenThickness@@QAE@ABV0@@Z
  0012c	53		 push	 ebx
  0012d	8d 45 f8	 lea	 eax, DWORD PTR _dViewMin$[ebp]
  00130	8b ce		 mov	 ecx, esi
  00132	50		 push	 eax
  00133	8d 45 f0	 lea	 eax, DWORD PTR _dViewMax$[ebp]
  00136	50		 push	 eax
  00137	57		 push	 edi
  00138	8d 45 88	 lea	 eax, DWORD PTR _$S16$[ebp]
  0013b	50		 push	 eax
  0013c	ff 75 0c	 push	 DWORD PTR _realRegion$[ebp]
  0013f	8d 45 b4	 lea	 eax, DWORD PTR _$S17$[ebp]
  00142	50		 push	 eax
  00143	ff 75 08	 push	 DWORD PTR _pDC$[ebp]
  00146	e8 00 00 00 00	 call	 ?DrawStyleBox@CFundDraw@@AAE_NPAVCDC@@ABVCEtcGraphColor@@ABVCRect@@ABVCGraphColor@@HABN4ABV?$CList@PAVCPacket@@PAV1@@@VCPenThickness@@@Z ; CFundDraw::DrawStyleBox

; 135  : 			nDataEnd, nRealEnd, dViewMax, dViewMin, packetList, penThickness);
; 136  : 	}
; 137  : 	
; 138  : 	return false;
; 139  : 
; 140  : }

  0014b	5f		 pop	 edi
  0014c	5e		 pop	 esi
  0014d	5b		 pop	 ebx
  0014e	8b e5		 mov	 esp, ebp
  00150	5d		 pop	 ebp
  00151	c2 18 00	 ret	 24			; 00000018H
$LN7@DrawGraph:

; 113  : 			dViewMax, dViewMin, packetList, penThickness);
; 114  : 	case CGraphBaseData::ReturnRiskGrade:
; 115  : 		return DrawReturnRiskGrade(pDC, etcGraphColor, realRegion, graphColor, 

  00154	83 ec 14	 sub	 esp, 20			; 00000014H
  00157	8d 45 cc	 lea	 eax, DWORD PTR _$S18$[ebp]
  0015a	8b cc		 mov	 ecx, esp
  0015c	50		 push	 eax
  0015d	ff 15 00 00 00
	00		 call	 DWORD PTR __imp_??0CPenThickness@@QAE@ABV0@@Z
  00163	53		 push	 ebx
  00164	8d 45 f8	 lea	 eax, DWORD PTR _dViewMin$[ebp]
  00167	8b ce		 mov	 ecx, esi
  00169	50		 push	 eax
  0016a	8d 45 f0	 lea	 eax, DWORD PTR _dViewMax$[ebp]
  0016d	50		 push	 eax
  0016e	57		 push	 edi
  0016f	8d 45 88	 lea	 eax, DWORD PTR _$S16$[ebp]
  00172	50		 push	 eax
  00173	ff 75 0c	 push	 DWORD PTR _realRegion$[ebp]
  00176	8d 45 b4	 lea	 eax, DWORD PTR _$S17$[ebp]
  00179	50		 push	 eax
  0017a	ff 75 08	 push	 DWORD PTR _pDC$[ebp]
  0017d	e8 00 00 00 00	 call	 ?DrawReturnRiskGrade@CFundDraw@@AAE_NPAVCDC@@ABVCEtcGraphColor@@ABVCRect@@ABVCGraphColor@@HABN4ABV?$CList@PAVCPacket@@PAV1@@@VCPenThickness@@@Z ; CFundDraw::DrawReturnRiskGrade

; 135  : 			nDataEnd, nRealEnd, dViewMax, dViewMin, packetList, penThickness);
; 136  : 	}
; 137  : 	
; 138  : 	return false;
; 139  : 
; 140  : }

  00182	5f		 pop	 edi
  00183	5e		 pop	 esi
  00184	5b		 pop	 ebx
  00185	8b e5		 mov	 esp, ebp
  00187	5d		 pop	 ebp
  00188	c2 18 00	 ret	 24			; 00000018H
$LN8@DrawGraph:

; 116  : 			nRealStart, dViewMax, dViewMin, packetList, penThickness);
; 117  : 	case CGraphBaseData::ComponentRatio_Line:
; 118  : 		return DrawComponentRatio_Line(pDC, etcGraphColor, realRegion, graphColor, 

  0018b	83 ec 14	 sub	 esp, 20			; 00000014H
  0018e	8d 45 cc	 lea	 eax, DWORD PTR _$S18$[ebp]
  00191	8b cc		 mov	 ecx, esp
  00193	50		 push	 eax
  00194	ff 15 00 00 00
	00		 call	 DWORD PTR __imp_??0CPenThickness@@QAE@ABV0@@Z
  0019a	53		 push	 ebx
  0019b	8d 45 f8	 lea	 eax, DWORD PTR _dViewMin$[ebp]
  0019e	8b ce		 mov	 ecx, esi
  001a0	50		 push	 eax
  001a1	8d 45 f0	 lea	 eax, DWORD PTR _dViewMax$[ebp]
  001a4	50		 push	 eax
  001a5	ff 75 e4	 push	 DWORD PTR _nRealEnd$1$[ebp]
  001a8	8d 45 88	 lea	 eax, DWORD PTR _$S16$[ebp]
  001ab	ff 75 ec	 push	 DWORD PTR _nDataEnd$1$[ebp]
  001ae	57		 push	 edi
  001af	50		 push	 eax
  001b0	ff 75 0c	 push	 DWORD PTR _realRegion$[ebp]
  001b3	8d 45 b4	 lea	 eax, DWORD PTR _$S17$[ebp]
  001b6	50		 push	 eax
  001b7	ff 75 08	 push	 DWORD PTR _pDC$[ebp]
  001ba	e8 00 00 00 00	 call	 ?DrawComponentRatio_Line@CFundDraw@@AAE_NPAVCDC@@ABVCEtcGraphColor@@ABVCRect@@ABVCGraphColor@@HHHABN4ABV?$CList@PAVCPacket@@PAV1@@@VCPenThickness@@@Z ; CFundDraw::DrawComponentRatio_Line

; 135  : 			nDataEnd, nRealEnd, dViewMax, dViewMin, packetList, penThickness);
; 136  : 	}
; 137  : 	
; 138  : 	return false;
; 139  : 
; 140  : }

  001bf	5f		 pop	 edi
  001c0	5e		 pop	 esi
  001c1	5b		 pop	 ebx
  001c2	8b e5		 mov	 esp, ebp
  001c4	5d		 pop	 ebp
  001c5	c2 18 00	 ret	 24			; 00000018H
$LN9@DrawGraph:

; 119  : 			nRealStart, nDataEnd, nRealEnd, dViewMax, dViewMin, packetList, penThickness);
; 120  : 	case CGraphBaseData::ReturnRiskDispersion:
; 121  : 		return DrawReturnRiskDispersion(pDC, etcGraphColor, realRegion, graphColor, 

  001c8	8b 4d 14	 mov	 ecx, DWORD PTR _drawingGraphData$[ebp]
  001cb	8d 85 78 ff ff
	ff		 lea	 eax, DWORD PTR $T2[ebp]
  001d1	50		 push	 eax
  001d2	e8 00 00 00 00	 call	 ?GetDisplayDataHorzMinMax@CDrawingGraphData@@QBE?AVCDisplayDataMinMax@@XZ ; CDrawingGraphData::GetDisplayDataHorzMinMax
  001d7	8b c8		 mov	 ecx, eax
  001d9	ff 15 00 00 00
	00		 call	 DWORD PTR __imp_?GetDisplayMin@CDisplayDataMinMax@@QBENXZ
  001df	8b 4d 14	 mov	 ecx, DWORD PTR _drawingGraphData$[ebp]
  001e2	8d 85 68 ff ff
	ff		 lea	 eax, DWORD PTR $T1[ebp]
  001e8	50		 push	 eax
  001e9	dd 5d e8	 fstp	 QWORD PTR $T6[ebp]
  001ec	e8 00 00 00 00	 call	 ?GetDisplayDataHorzMinMax@CDrawingGraphData@@QBE?AVCDisplayDataMinMax@@XZ ; CDrawingGraphData::GetDisplayDataHorzMinMax
  001f1	8b c8		 mov	 ecx, eax
  001f3	ff 15 00 00 00
	00		 call	 DWORD PTR __imp_?GetDisplayMax@CDisplayDataMinMax@@QBENXZ
  001f9	53		 push	 ebx
  001fa	8d 45 e8	 lea	 eax, DWORD PTR $T6[ebp]
  001fd	8b ce		 mov	 ecx, esi
  001ff	50		 push	 eax
  00200	8d 45 e0	 lea	 eax, DWORD PTR $T5[ebp]
  00203	50		 push	 eax
  00204	8d 45 f8	 lea	 eax, DWORD PTR _dViewMin$[ebp]
  00207	50		 push	 eax
  00208	8d 45 f0	 lea	 eax, DWORD PTR _dViewMax$[ebp]
  0020b	50		 push	 eax
  0020c	57		 push	 edi
  0020d	8d 45 88	 lea	 eax, DWORD PTR _$S16$[ebp]
  00210	50		 push	 eax
  00211	ff 75 0c	 push	 DWORD PTR _realRegion$[ebp]
  00214	8d 45 b4	 lea	 eax, DWORD PTR _$S17$[ebp]
  00217	50		 push	 eax
  00218	ff 75 08	 push	 DWORD PTR _pDC$[ebp]
  0021b	dd 5d e0	 fstp	 QWORD PTR $T5[ebp]
  0021e	e8 00 00 00 00	 call	 ?DrawReturnRiskDispersion@CFundDraw@@AAE_NPAVCDC@@ABVCEtcGraphColor@@ABVCRect@@ABVCGraphColor@@HABN444ABV?$CList@PAVCPacket@@PAV1@@@@Z ; CFundDraw::DrawReturnRiskDispersion

; 135  : 			nDataEnd, nRealEnd, dViewMax, dViewMin, packetList, penThickness);
; 136  : 	}
; 137  : 	
; 138  : 	return false;
; 139  : 
; 140  : }

  00223	5f		 pop	 edi
  00224	5e		 pop	 esi
  00225	5b		 pop	 ebx
  00226	8b e5		 mov	 esp, ebp
  00228	5d		 pop	 ebp
  00229	c2 18 00	 ret	 24			; 00000018H
$LN10@DrawGraph:

; 122  : 			nRealStart, dViewMax, dViewMin, 
; 123  : 			drawingGraphData.GetDisplayDataHorzMinMax().GetDisplayMax(), 
; 124  : 			drawingGraphData.GetDisplayDataHorzMinMax().GetDisplayMin(), packetList);
; 125  : 	case CGraphBaseData::FundMarketDispersion:
; 126  : 		return DrawFundMarketDispersion(pDC, etcGraphColor, realRegion, graphColor, 

  0022c	83 ec 14	 sub	 esp, 20			; 00000014H
  0022f	8d 45 cc	 lea	 eax, DWORD PTR _$S18$[ebp]
  00232	8b cc		 mov	 ecx, esp
  00234	50		 push	 eax
  00235	ff 15 00 00 00
	00		 call	 DWORD PTR __imp_??0CPenThickness@@QAE@ABV0@@Z
  0023b	53		 push	 ebx
  0023c	8d 45 f8	 lea	 eax, DWORD PTR _dViewMin$[ebp]
  0023f	8b ce		 mov	 ecx, esi
  00241	50		 push	 eax
  00242	8d 45 f0	 lea	 eax, DWORD PTR _dViewMax$[ebp]
  00245	50		 push	 eax
  00246	57		 push	 edi
  00247	8d 45 88	 lea	 eax, DWORD PTR _$S16$[ebp]
  0024a	50		 push	 eax
  0024b	ff 75 0c	 push	 DWORD PTR _realRegion$[ebp]
  0024e	8d 45 b4	 lea	 eax, DWORD PTR _$S17$[ebp]
  00251	50		 push	 eax
  00252	ff 75 08	 push	 DWORD PTR _pDC$[ebp]
  00255	e8 00 00 00 00	 call	 ?DrawFundMarketDispersion@CFundDraw@@AAE_NPAVCDC@@ABVCEtcGraphColor@@ABVCRect@@ABVCGraphColor@@HABN4ABV?$CList@PAVCPacket@@PAV1@@@VCPenThickness@@@Z ; CFundDraw::DrawFundMarketDispersion

; 135  : 			nDataEnd, nRealEnd, dViewMax, dViewMin, packetList, penThickness);
; 136  : 	}
; 137  : 	
; 138  : 	return false;
; 139  : 
; 140  : }

  0025a	5f		 pop	 edi
  0025b	5e		 pop	 esi
  0025c	5b		 pop	 ebx
  0025d	8b e5		 mov	 esp, ebp
  0025f	5d		 pop	 ebp
  00260	c2 18 00	 ret	 24			; 00000018H
$LN11@DrawGraph:

; 127  : 			nRealStart, dViewMax, dViewMin, packetList, penThickness);
; 128  : 	case CGraphBaseData::ComponentRatio_Pie:
; 129  : 		return DrawComponentRatio_Pie(pDC, realRegion, displayAttributes, drawingGraphData, subGraphData);

  00263	ff 75 18	 push	 DWORD PTR _subGraphData$[ebp]
  00266	8b ce		 mov	 ecx, esi
  00268	ff 75 14	 push	 DWORD PTR _drawingGraphData$[ebp]
  0026b	ff 75 10	 push	 DWORD PTR _displayAttributes$[ebp]
  0026e	ff 75 0c	 push	 DWORD PTR _realRegion$[ebp]
  00271	ff 75 08	 push	 DWORD PTR _pDC$[ebp]
  00274	e8 00 00 00 00	 call	 ?DrawComponentRatio_Pie@CFundDraw@@AAE_NPAVCDC@@ABVCRect@@ABVCDisplayAttributes@@ABVCDrawingGraphData@@ABVCSubGraphData@@@Z ; CFundDraw::DrawComponentRatio_Pie

; 135  : 			nDataEnd, nRealEnd, dViewMax, dViewMin, packetList, penThickness);
; 136  : 	}
; 137  : 	
; 138  : 	return false;
; 139  : 
; 140  : }

  00279	5f		 pop	 edi
  0027a	5e		 pop	 esi
  0027b	5b		 pop	 ebx
  0027c	8b e5		 mov	 esp, ebp
  0027e	5d		 pop	 ebp
  0027f	c2 18 00	 ret	 24			; 00000018H
$LN12@DrawGraph:

; 130  : 	case CGraphBaseData::ComponentRatio_Bar_Line:
; 131  : 		return DrawComponentRatio_Bar_Line(pDC, etcGraphColor, realRegion, graphColor, 

  00282	83 ec 14	 sub	 esp, 20			; 00000014H
  00285	8d 45 cc	 lea	 eax, DWORD PTR _$S18$[ebp]
  00288	8b cc		 mov	 ecx, esp
  0028a	50		 push	 eax
  0028b	ff 15 00 00 00
	00		 call	 DWORD PTR __imp_??0CPenThickness@@QAE@ABV0@@Z
  00291	53		 push	 ebx
  00292	8d 45 f8	 lea	 eax, DWORD PTR _dViewMin$[ebp]
  00295	8b ce		 mov	 ecx, esi
  00297	50		 push	 eax
  00298	8d 45 f0	 lea	 eax, DWORD PTR _dViewMax$[ebp]
  0029b	50		 push	 eax
  0029c	ff 75 e4	 push	 DWORD PTR _nRealEnd$1$[ebp]
  0029f	8d 45 88	 lea	 eax, DWORD PTR _$S16$[ebp]
  002a2	ff 75 ec	 push	 DWORD PTR _nDataEnd$1$[ebp]
  002a5	57		 push	 edi
  002a6	50		 push	 eax
  002a7	ff 75 0c	 push	 DWORD PTR _realRegion$[ebp]
  002aa	8d 45 b4	 lea	 eax, DWORD PTR _$S17$[ebp]
  002ad	50		 push	 eax
  002ae	ff 75 08	 push	 DWORD PTR _pDC$[ebp]
  002b1	e8 00 00 00 00	 call	 ?DrawComponentRatio_Bar_Line@CFundDraw@@AAE_NPAVCDC@@ABVCEtcGraphColor@@ABVCRect@@ABVCGraphColor@@HHHABN4ABV?$CList@PAVCPacket@@PAV1@@@VCPenThickness@@@Z ; CFundDraw::DrawComponentRatio_Bar_Line

; 135  : 			nDataEnd, nRealEnd, dViewMax, dViewMin, packetList, penThickness);
; 136  : 	}
; 137  : 	
; 138  : 	return false;
; 139  : 
; 140  : }

  002b6	5f		 pop	 edi
  002b7	5e		 pop	 esi
  002b8	5b		 pop	 ebx
  002b9	8b e5		 mov	 esp, ebp
  002bb	5d		 pop	 ebp
  002bc	c2 18 00	 ret	 24			; 00000018H
$LN13@DrawGraph:

; 132  : 			nRealStart, nDataEnd, nRealEnd, dViewMax, dViewMin, packetList, penThickness);
; 133  : 	case CGraphBaseData::Group_Bar:
; 134  : 		return DrawGroupBar(pDC, etcGraphColor, realRegion, graphColor, nRealStart, 

  002bf	83 ec 14	 sub	 esp, 20			; 00000014H
  002c2	8d 45 cc	 lea	 eax, DWORD PTR _$S18$[ebp]
  002c5	8b cc		 mov	 ecx, esp
  002c7	50		 push	 eax
  002c8	ff 15 00 00 00
	00		 call	 DWORD PTR __imp_??0CPenThickness@@QAE@ABV0@@Z
  002ce	53		 push	 ebx
  002cf	8d 45 f8	 lea	 eax, DWORD PTR _dViewMin$[ebp]
  002d2	8b ce		 mov	 ecx, esi
  002d4	50		 push	 eax
  002d5	8d 45 f0	 lea	 eax, DWORD PTR _dViewMax$[ebp]
  002d8	50		 push	 eax
  002d9	ff 75 e4	 push	 DWORD PTR _nRealEnd$1$[ebp]
  002dc	8d 45 88	 lea	 eax, DWORD PTR _$S16$[ebp]
  002df	ff 75 ec	 push	 DWORD PTR _nDataEnd$1$[ebp]
  002e2	57		 push	 edi
  002e3	50		 push	 eax
  002e4	ff 75 0c	 push	 DWORD PTR _realRegion$[ebp]
  002e7	8d 45 b4	 lea	 eax, DWORD PTR _$S17$[ebp]
  002ea	50		 push	 eax
  002eb	ff 75 08	 push	 DWORD PTR _pDC$[ebp]
  002ee	e8 00 00 00 00	 call	 ?DrawGroupBar@CFundDraw@@AAE_NPAVCDC@@ABVCEtcGraphColor@@ABVCRect@@ABVCGraphColor@@HHHABN4ABV?$CList@PAVCPacket@@PAV1@@@VCPenThickness@@@Z ; CFundDraw::DrawGroupBar

; 135  : 			nDataEnd, nRealEnd, dViewMax, dViewMin, packetList, penThickness);
; 136  : 	}
; 137  : 	
; 138  : 	return false;
; 139  : 
; 140  : }

  002f3	5f		 pop	 edi
  002f4	5e		 pop	 esi
  002f5	5b		 pop	 ebx
  002f6	8b e5		 mov	 esp, ebp
  002f8	5d		 pop	 ebp
  002f9	c2 18 00	 ret	 24			; 00000018H
$LN2@DrawGraph:
  002fc	5f		 pop	 edi
  002fd	5e		 pop	 esi
  002fe	32 c0		 xor	 al, al
  00300	5b		 pop	 ebx
  00301	8b e5		 mov	 esp, ebp
  00303	5d		 pop	 ebp
  00304	c2 18 00	 ret	 24			; 00000018H
  00307	90		 npad	 1
$LN15@DrawGraph:
  00308	00 00 00 00	 DD	 $LN8@DrawGraph
  0030c	00 00 00 00	 DD	 $LN5@DrawGraph
  00310	00 00 00 00	 DD	 $LN12@DrawGraph
  00314	00 00 00 00	 DD	 $LN11@DrawGraph
  00318	00 00 00 00	 DD	 $LN9@DrawGraph
  0031c	00 00 00 00	 DD	 $LN7@DrawGraph
  00320	00 00 00 00	 DD	 $LN6@DrawGraph
  00324	00 00 00 00	 DD	 $LN10@DrawGraph
  00328	00 00 00 00	 DD	 $LN13@DrawGraph
?DrawGraph@CFundDraw@@UAE_NPAVCDC@@ABVCRect@@ABVCDisplayAttributes@@ABVCDrawingGraphData@@ABVCSubGraphData@@PAVCXScaleManager@@@Z ENDP ; CFundDraw::DrawGraph
_TEXT	ENDS
; Function compile flags: /Ogtp
; File D:\git\src\IBK\IBK_DRFN\ProjSrc\SrcChartEx\ChartOCX\GraphDraw\FundDraw.cpp
;	COMDAT ?DrawGraph@CFundDraw@@UAE_NPAVCDC@@ABVCRect@@ABVCDisplayAttributes@@ABVCDrawingGraphData@@ABVCSubGraphData@@@Z
_TEXT	SEGMENT
$T1 = -168						; size = 16
$T2 = -152						; size = 16
_$S13$ = -136						; size = 44
$T3 = -92						; size = 16
$T4 = -92						; size = 16
$T5 = -84						; size = 8
$T6 = -80						; size = 4
_$S14$ = -76						; size = 24
_$S15$ = -52						; size = 20
$T7 = -32						; size = 8
_nDataEnd$1$ = -28					; size = 4
$T8 = -24						; size = 8
_nRealEnd$1$ = -20					; size = 4
_dViewMax$ = -16					; size = 8
_dViewMin$ = -8						; size = 8
_pDC$ = 8						; size = 4
_realRegion$ = 12					; size = 4
_displayAttributes$ = 16				; size = 4
_drawingGraphData$ = 20					; size = 4
_subGraphData$ = 24					; size = 4
?DrawGraph@CFundDraw@@UAE_NPAVCDC@@ABVCRect@@ABVCDisplayAttributes@@ABVCDrawingGraphData@@ABVCSubGraphData@@@Z PROC ; CFundDraw::DrawGraph, COMDAT
; _this$ = ecx

; 42   : {

  00000	55		 push	 ebp
  00001	8b ec		 mov	 ebp, esp
  00003	81 ec a8 00 00
	00		 sub	 esp, 168		; 000000a8H
  00009	53		 push	 ebx
  0000a	56		 push	 esi
  0000b	57		 push	 edi

; 43   : 	const CGraphColor& graphColor = subGraphData.GetColor();

  0000c	8d 85 78 ff ff
	ff		 lea	 eax, DWORD PTR _$S13$[ebp]
  00012	8b f1		 mov	 esi, ecx
  00014	8b 4d 18	 mov	 ecx, DWORD PTR _subGraphData$[ebp]
  00017	50		 push	 eax
  00018	ff 15 00 00 00
	00		 call	 DWORD PTR __imp_?GetColor@CSubGraphDataBase@@QBE?AVCGraphColor@@XZ

; 44   : 	const CEtcGraphColor& etcGraphColor = drawingGraphData.GetEtcGraphColor();

  0001e	8b 5d 14	 mov	 ebx, DWORD PTR _drawingGraphData$[ebp]
  00021	8d 45 b4	 lea	 eax, DWORD PTR _$S14$[ebp]
  00024	50		 push	 eax
  00025	8b cb		 mov	 ecx, ebx
  00027	e8 00 00 00 00	 call	 ?GetEtcGraphColor@CDrawingGraphData@@QBE?AVCEtcGraphColor@@XZ ; CDrawingGraphData::GetEtcGraphColor

; 45   : 	int nRealStart = displayAttributes.GetDataStartInBlock();

  0002c	8b 4d 10	 mov	 ecx, DWORD PTR _displayAttributes$[ebp]
  0002f	e8 00 00 00 00	 call	 ?GetDataStartInBlock@CDisplayAttributes@@QBEHXZ ; CDisplayAttributes::GetDataStartInBlock

; 46   : 	int nRealEnd = displayAttributes.GetDataEndInBlock();

  00034	8b 4d 10	 mov	 ecx, DWORD PTR _displayAttributes$[ebp]
  00037	8b f8		 mov	 edi, eax
  00039	e8 00 00 00 00	 call	 ?GetDataEndInBlock@CDisplayAttributes@@QBEHXZ ; CDisplayAttributes::GetDataEndInBlock
  0003e	89 45 ec	 mov	 DWORD PTR _nRealEnd$1$[ebp], eax

; 47   : 	int nDataEnd = drawingGraphData.GetDisplayAttributes().GetDataEndInBlock();

  00041	8b cb		 mov	 ecx, ebx
  00043	8d 45 ac	 lea	 eax, DWORD PTR $T5[ebp]
  00046	50		 push	 eax
  00047	e8 00 00 00 00	 call	 ?GetDisplayAttributes@CDrawingGraphData@@QBE?AVCDisplayAttributes@@XZ ; CDrawingGraphData::GetDisplayAttributes
  0004c	8b c8		 mov	 ecx, eax
  0004e	e8 00 00 00 00	 call	 ?GetDataEndInBlock@CDisplayAttributes@@QBEHXZ ; CDisplayAttributes::GetDataEndInBlock
  00053	89 45 e4	 mov	 DWORD PTR _nDataEnd$1$[ebp], eax

; 48   : 	double dViewMax = drawingGraphData.GetDisplayDataVertMinMax().GetDisplayMax(); 

  00056	8b cb		 mov	 ecx, ebx
  00058	8d 45 a4	 lea	 eax, DWORD PTR $T4[ebp]
  0005b	50		 push	 eax
  0005c	e8 00 00 00 00	 call	 ?GetDisplayDataVertMinMax@CDrawingGraphData@@QBE?AVCDisplayDataMinMax@@XZ ; CDrawingGraphData::GetDisplayDataVertMinMax
  00061	8b c8		 mov	 ecx, eax
  00063	ff 15 00 00 00
	00		 call	 DWORD PTR __imp_?GetDisplayMax@CDisplayDataMinMax@@QBENXZ

; 49   : 	double dViewMin = drawingGraphData.GetDisplayDataVertMinMax().GetDisplayMin();

  00069	8d 45 a4	 lea	 eax, DWORD PTR $T3[ebp]
  0006c	8b cb		 mov	 ecx, ebx
  0006e	50		 push	 eax
  0006f	dd 5d f0	 fstp	 QWORD PTR _dViewMax$[ebp]
  00072	e8 00 00 00 00	 call	 ?GetDisplayDataVertMinMax@CDrawingGraphData@@QBE?AVCDisplayDataMinMax@@XZ ; CDrawingGraphData::GetDisplayDataVertMinMax
  00077	8b c8		 mov	 ecx, eax
  00079	ff 15 00 00 00
	00		 call	 DWORD PTR __imp_?GetDisplayMin@CDisplayDataMinMax@@QBENXZ

; 50   : 	const CList<CPacket*, CPacket*> &packetList = drawingGraphData.GetSubGraphPacketList()->GetSubGraphPacketList();

  0007f	8b cb		 mov	 ecx, ebx
  00081	dd 5d f8	 fstp	 QWORD PTR _dViewMin$[ebp]
  00084	e8 00 00 00 00	 call	 ?GetSubGraphPacketList@CDrawingGraphData@@QBEPAVCSubGraphPacketList@@XZ ; CDrawingGraphData::GetSubGraphPacketList
  00089	8b c8		 mov	 ecx, eax
  0008b	e8 00 00 00 00	 call	 ?GetSubGraphPacketList@CSubGraphPacketList@@QBEABV?$CList@PAVCPacket@@PAV1@@@XZ ; CSubGraphPacketList::GetSubGraphPacketList

; 51   : 	const CPenThickness& penThickness = subGraphData.GetPenThickness();

  00090	8b 4d 18	 mov	 ecx, DWORD PTR _subGraphData$[ebp]
  00093	8b d8		 mov	 ebx, eax
  00095	8d 45 cc	 lea	 eax, DWORD PTR _$S15$[ebp]
  00098	50		 push	 eax
  00099	ff 15 00 00 00
	00		 call	 DWORD PTR __imp_?GetPenThickness@CSubGraphDataBase@@QBE?AVCPenThickness@@XZ

; 52   : 
; 53   : 	switch(subGraphData.GetStyle().GetGraphSpecialStyle()){

  0009f	8b 4d 18	 mov	 ecx, DWORD PTR _subGraphData$[ebp]
  000a2	8d 45 b0	 lea	 eax, DWORD PTR $T6[ebp]
  000a5	50		 push	 eax
  000a6	ff 15 00 00 00
	00		 call	 DWORD PTR __imp_?GetStyle@CSubGraphDataBase@@QBE?AVCGraphStyle@@XZ
  000ac	8b 00		 mov	 eax, DWORD PTR [eax]
  000ae	83 f8 08	 cmp	 eax, 8
  000b1	0f 87 3b 02 00
	00		 ja	 $LN2@DrawGraph
  000b7	ff 24 85 00 00
	00 00		 jmp	 DWORD PTR $LN14@DrawGraph[eax*4]
$LN4@DrawGraph:

; 54   : 	case CGraphBaseData::ComponentRatio_Bar:
; 55   : 		return DrawComponentRatio_Bar(pDC, etcGraphColor, realRegion, graphColor, 

  000be	83 ec 14	 sub	 esp, 20			; 00000014H
  000c1	8d 45 cc	 lea	 eax, DWORD PTR _$S15$[ebp]
  000c4	8b cc		 mov	 ecx, esp
  000c6	50		 push	 eax
  000c7	ff 15 00 00 00
	00		 call	 DWORD PTR __imp_??0CPenThickness@@QAE@ABV0@@Z
  000cd	53		 push	 ebx
  000ce	8d 45 f8	 lea	 eax, DWORD PTR _dViewMin$[ebp]
  000d1	8b ce		 mov	 ecx, esi
  000d3	50		 push	 eax
  000d4	8d 45 f0	 lea	 eax, DWORD PTR _dViewMax$[ebp]
  000d7	50		 push	 eax
  000d8	ff 75 ec	 push	 DWORD PTR _nRealEnd$1$[ebp]
  000db	8d 85 78 ff ff
	ff		 lea	 eax, DWORD PTR _$S13$[ebp]
  000e1	ff 75 e4	 push	 DWORD PTR _nDataEnd$1$[ebp]
  000e4	57		 push	 edi
  000e5	50		 push	 eax
  000e6	ff 75 0c	 push	 DWORD PTR _realRegion$[ebp]
  000e9	8d 45 b4	 lea	 eax, DWORD PTR _$S14$[ebp]
  000ec	50		 push	 eax
  000ed	ff 75 08	 push	 DWORD PTR _pDC$[ebp]
  000f0	e8 00 00 00 00	 call	 ?DrawComponentRatio_Bar@CFundDraw@@AAE_NPAVCDC@@ABVCEtcGraphColor@@ABVCRect@@ABVCGraphColor@@HHHABN4ABV?$CList@PAVCPacket@@PAV1@@@VCPenThickness@@@Z ; CFundDraw::DrawComponentRatio_Bar

; 81   : 			nDataEnd, nRealEnd, dViewMax, dViewMin, packetList, penThickness);
; 82   : 	}
; 83   : 
; 84   : 	return false;
; 85   : }

  000f5	5f		 pop	 edi
  000f6	5e		 pop	 esi
  000f7	5b		 pop	 ebx
  000f8	8b e5		 mov	 esp, ebp
  000fa	5d		 pop	 ebp
  000fb	c2 14 00	 ret	 20			; 00000014H
$LN5@DrawGraph:

; 56   : 			nRealStart, nDataEnd, nRealEnd, dViewMax, dViewMin, packetList, penThickness);
; 57   : 	case CGraphBaseData::StyleBox:
; 58   : 		return DrawStyleBox(pDC, etcGraphColor, realRegion, graphColor, nRealStart, 

  000fe	83 ec 14	 sub	 esp, 20			; 00000014H
  00101	8d 45 cc	 lea	 eax, DWORD PTR _$S15$[ebp]
  00104	8b cc		 mov	 ecx, esp
  00106	50		 push	 eax
  00107	ff 15 00 00 00
	00		 call	 DWORD PTR __imp_??0CPenThickness@@QAE@ABV0@@Z
  0010d	53		 push	 ebx
  0010e	8d 45 f8	 lea	 eax, DWORD PTR _dViewMin$[ebp]
  00111	8b ce		 mov	 ecx, esi
  00113	50		 push	 eax
  00114	8d 45 f0	 lea	 eax, DWORD PTR _dViewMax$[ebp]
  00117	50		 push	 eax
  00118	57		 push	 edi
  00119	8d 85 78 ff ff
	ff		 lea	 eax, DWORD PTR _$S13$[ebp]
  0011f	50		 push	 eax
  00120	ff 75 0c	 push	 DWORD PTR _realRegion$[ebp]
  00123	8d 45 b4	 lea	 eax, DWORD PTR _$S14$[ebp]
  00126	50		 push	 eax
  00127	ff 75 08	 push	 DWORD PTR _pDC$[ebp]
  0012a	e8 00 00 00 00	 call	 ?DrawStyleBox@CFundDraw@@AAE_NPAVCDC@@ABVCEtcGraphColor@@ABVCRect@@ABVCGraphColor@@HABN4ABV?$CList@PAVCPacket@@PAV1@@@VCPenThickness@@@Z ; CFundDraw::DrawStyleBox

; 81   : 			nDataEnd, nRealEnd, dViewMax, dViewMin, packetList, penThickness);
; 82   : 	}
; 83   : 
; 84   : 	return false;
; 85   : }

  0012f	5f		 pop	 edi
  00130	5e		 pop	 esi
  00131	5b		 pop	 ebx
  00132	8b e5		 mov	 esp, ebp
  00134	5d		 pop	 ebp
  00135	c2 14 00	 ret	 20			; 00000014H
$LN6@DrawGraph:

; 59   : 			dViewMax, dViewMin, packetList, penThickness);
; 60   : 	case CGraphBaseData::ReturnRiskGrade:
; 61   : 		return DrawReturnRiskGrade(pDC, etcGraphColor, realRegion, graphColor, 

  00138	83 ec 14	 sub	 esp, 20			; 00000014H
  0013b	8d 45 cc	 lea	 eax, DWORD PTR _$S15$[ebp]
  0013e	8b cc		 mov	 ecx, esp
  00140	50		 push	 eax
  00141	ff 15 00 00 00
	00		 call	 DWORD PTR __imp_??0CPenThickness@@QAE@ABV0@@Z
  00147	53		 push	 ebx
  00148	8d 45 f8	 lea	 eax, DWORD PTR _dViewMin$[ebp]
  0014b	8b ce		 mov	 ecx, esi
  0014d	50		 push	 eax
  0014e	8d 45 f0	 lea	 eax, DWORD PTR _dViewMax$[ebp]
  00151	50		 push	 eax
  00152	57		 push	 edi
  00153	8d 85 78 ff ff
	ff		 lea	 eax, DWORD PTR _$S13$[ebp]
  00159	50		 push	 eax
  0015a	ff 75 0c	 push	 DWORD PTR _realRegion$[ebp]
  0015d	8d 45 b4	 lea	 eax, DWORD PTR _$S14$[ebp]
  00160	50		 push	 eax
  00161	ff 75 08	 push	 DWORD PTR _pDC$[ebp]
  00164	e8 00 00 00 00	 call	 ?DrawReturnRiskGrade@CFundDraw@@AAE_NPAVCDC@@ABVCEtcGraphColor@@ABVCRect@@ABVCGraphColor@@HABN4ABV?$CList@PAVCPacket@@PAV1@@@VCPenThickness@@@Z ; CFundDraw::DrawReturnRiskGrade

; 81   : 			nDataEnd, nRealEnd, dViewMax, dViewMin, packetList, penThickness);
; 82   : 	}
; 83   : 
; 84   : 	return false;
; 85   : }

  00169	5f		 pop	 edi
  0016a	5e		 pop	 esi
  0016b	5b		 pop	 ebx
  0016c	8b e5		 mov	 esp, ebp
  0016e	5d		 pop	 ebp
  0016f	c2 14 00	 ret	 20			; 00000014H
$LN7@DrawGraph:

; 62   : 			nRealStart, dViewMax, dViewMin, packetList, penThickness);
; 63   : 	case CGraphBaseData::ComponentRatio_Line:
; 64   : 		return DrawComponentRatio_Line(pDC, etcGraphColor, realRegion, graphColor, 

  00172	83 ec 14	 sub	 esp, 20			; 00000014H
  00175	8d 45 cc	 lea	 eax, DWORD PTR _$S15$[ebp]
  00178	8b cc		 mov	 ecx, esp
  0017a	50		 push	 eax
  0017b	ff 15 00 00 00
	00		 call	 DWORD PTR __imp_??0CPenThickness@@QAE@ABV0@@Z
  00181	53		 push	 ebx
  00182	8d 45 f8	 lea	 eax, DWORD PTR _dViewMin$[ebp]
  00185	8b ce		 mov	 ecx, esi
  00187	50		 push	 eax
  00188	8d 45 f0	 lea	 eax, DWORD PTR _dViewMax$[ebp]
  0018b	50		 push	 eax
  0018c	ff 75 ec	 push	 DWORD PTR _nRealEnd$1$[ebp]
  0018f	8d 85 78 ff ff
	ff		 lea	 eax, DWORD PTR _$S13$[ebp]
  00195	ff 75 e4	 push	 DWORD PTR _nDataEnd$1$[ebp]
  00198	57		 push	 edi
  00199	50		 push	 eax
  0019a	ff 75 0c	 push	 DWORD PTR _realRegion$[ebp]
  0019d	8d 45 b4	 lea	 eax, DWORD PTR _$S14$[ebp]
  001a0	50		 push	 eax
  001a1	ff 75 08	 push	 DWORD PTR _pDC$[ebp]
  001a4	e8 00 00 00 00	 call	 ?DrawComponentRatio_Line@CFundDraw@@AAE_NPAVCDC@@ABVCEtcGraphColor@@ABVCRect@@ABVCGraphColor@@HHHABN4ABV?$CList@PAVCPacket@@PAV1@@@VCPenThickness@@@Z ; CFundDraw::DrawComponentRatio_Line

; 81   : 			nDataEnd, nRealEnd, dViewMax, dViewMin, packetList, penThickness);
; 82   : 	}
; 83   : 
; 84   : 	return false;
; 85   : }

  001a9	5f		 pop	 edi
  001aa	5e		 pop	 esi
  001ab	5b		 pop	 ebx
  001ac	8b e5		 mov	 esp, ebp
  001ae	5d		 pop	 ebp
  001af	c2 14 00	 ret	 20			; 00000014H
$LN8@DrawGraph:

; 65   : 			nRealStart, nDataEnd, nRealEnd, dViewMax, dViewMin, packetList, penThickness);
; 66   : 	case CGraphBaseData::ReturnRiskDispersion:
; 67   : 		return DrawReturnRiskDispersion(pDC, etcGraphColor, realRegion, graphColor, 

  001b2	8b 4d 14	 mov	 ecx, DWORD PTR _drawingGraphData$[ebp]
  001b5	8d 85 68 ff ff
	ff		 lea	 eax, DWORD PTR $T2[ebp]
  001bb	50		 push	 eax
  001bc	e8 00 00 00 00	 call	 ?GetDisplayDataHorzMinMax@CDrawingGraphData@@QBE?AVCDisplayDataMinMax@@XZ ; CDrawingGraphData::GetDisplayDataHorzMinMax
  001c1	8b c8		 mov	 ecx, eax
  001c3	ff 15 00 00 00
	00		 call	 DWORD PTR __imp_?GetDisplayMin@CDisplayDataMinMax@@QBENXZ
  001c9	8b 4d 14	 mov	 ecx, DWORD PTR _drawingGraphData$[ebp]
  001cc	8d 85 58 ff ff
	ff		 lea	 eax, DWORD PTR $T1[ebp]
  001d2	50		 push	 eax
  001d3	dd 5d e0	 fstp	 QWORD PTR $T7[ebp]
  001d6	e8 00 00 00 00	 call	 ?GetDisplayDataHorzMinMax@CDrawingGraphData@@QBE?AVCDisplayDataMinMax@@XZ ; CDrawingGraphData::GetDisplayDataHorzMinMax
  001db	8b c8		 mov	 ecx, eax
  001dd	ff 15 00 00 00
	00		 call	 DWORD PTR __imp_?GetDisplayMax@CDisplayDataMinMax@@QBENXZ
  001e3	53		 push	 ebx
  001e4	8d 45 e0	 lea	 eax, DWORD PTR $T7[ebp]
  001e7	8b ce		 mov	 ecx, esi
  001e9	50		 push	 eax
  001ea	8d 45 e8	 lea	 eax, DWORD PTR $T8[ebp]
  001ed	50		 push	 eax
  001ee	8d 45 f8	 lea	 eax, DWORD PTR _dViewMin$[ebp]
  001f1	50		 push	 eax
  001f2	8d 45 f0	 lea	 eax, DWORD PTR _dViewMax$[ebp]
  001f5	50		 push	 eax
  001f6	57		 push	 edi
  001f7	8d 85 78 ff ff
	ff		 lea	 eax, DWORD PTR _$S13$[ebp]
  001fd	50		 push	 eax
  001fe	ff 75 0c	 push	 DWORD PTR _realRegion$[ebp]
  00201	8d 45 b4	 lea	 eax, DWORD PTR _$S14$[ebp]
  00204	50		 push	 eax
  00205	ff 75 08	 push	 DWORD PTR _pDC$[ebp]
  00208	dd 5d e8	 fstp	 QWORD PTR $T8[ebp]
  0020b	e8 00 00 00 00	 call	 ?DrawReturnRiskDispersion@CFundDraw@@AAE_NPAVCDC@@ABVCEtcGraphColor@@ABVCRect@@ABVCGraphColor@@HABN444ABV?$CList@PAVCPacket@@PAV1@@@@Z ; CFundDraw::DrawReturnRiskDispersion

; 81   : 			nDataEnd, nRealEnd, dViewMax, dViewMin, packetList, penThickness);
; 82   : 	}
; 83   : 
; 84   : 	return false;
; 85   : }

  00210	5f		 pop	 edi
  00211	5e		 pop	 esi
  00212	5b		 pop	 ebx
  00213	8b e5		 mov	 esp, ebp
  00215	5d		 pop	 ebp
  00216	c2 14 00	 ret	 20			; 00000014H
$LN9@DrawGraph:

; 68   : 			nRealStart, dViewMax, dViewMin, 
; 69   : 			drawingGraphData.GetDisplayDataHorzMinMax().GetDisplayMax(), 
; 70   : 			drawingGraphData.GetDisplayDataHorzMinMax().GetDisplayMin(), packetList);
; 71   : 	case CGraphBaseData::FundMarketDispersion:
; 72   : 		return DrawFundMarketDispersion(pDC, etcGraphColor, realRegion, graphColor, 

  00219	83 ec 14	 sub	 esp, 20			; 00000014H
  0021c	8d 45 cc	 lea	 eax, DWORD PTR _$S15$[ebp]
  0021f	8b cc		 mov	 ecx, esp
  00221	50		 push	 eax
  00222	ff 15 00 00 00
	00		 call	 DWORD PTR __imp_??0CPenThickness@@QAE@ABV0@@Z
  00228	53		 push	 ebx
  00229	8d 45 f8	 lea	 eax, DWORD PTR _dViewMin$[ebp]
  0022c	8b ce		 mov	 ecx, esi
  0022e	50		 push	 eax
  0022f	8d 45 f0	 lea	 eax, DWORD PTR _dViewMax$[ebp]
  00232	50		 push	 eax
  00233	57		 push	 edi
  00234	8d 85 78 ff ff
	ff		 lea	 eax, DWORD PTR _$S13$[ebp]
  0023a	50		 push	 eax
  0023b	ff 75 0c	 push	 DWORD PTR _realRegion$[ebp]
  0023e	8d 45 b4	 lea	 eax, DWORD PTR _$S14$[ebp]
  00241	50		 push	 eax
  00242	ff 75 08	 push	 DWORD PTR _pDC$[ebp]
  00245	e8 00 00 00 00	 call	 ?DrawFundMarketDispersion@CFundDraw@@AAE_NPAVCDC@@ABVCEtcGraphColor@@ABVCRect@@ABVCGraphColor@@HABN4ABV?$CList@PAVCPacket@@PAV1@@@VCPenThickness@@@Z ; CFundDraw::DrawFundMarketDispersion

; 81   : 			nDataEnd, nRealEnd, dViewMax, dViewMin, packetList, penThickness);
; 82   : 	}
; 83   : 
; 84   : 	return false;
; 85   : }

  0024a	5f		 pop	 edi
  0024b	5e		 pop	 esi
  0024c	5b		 pop	 ebx
  0024d	8b e5		 mov	 esp, ebp
  0024f	5d		 pop	 ebp
  00250	c2 14 00	 ret	 20			; 00000014H
$LN10@DrawGraph:

; 73   : 			nRealStart, dViewMax, dViewMin, packetList, penThickness);
; 74   : 	case CGraphBaseData::ComponentRatio_Pie:
; 75   : 		return DrawComponentRatio_Pie(pDC, realRegion, displayAttributes, drawingGraphData, subGraphData);

  00253	ff 75 18	 push	 DWORD PTR _subGraphData$[ebp]
  00256	8b ce		 mov	 ecx, esi
  00258	ff 75 14	 push	 DWORD PTR _drawingGraphData$[ebp]
  0025b	ff 75 10	 push	 DWORD PTR _displayAttributes$[ebp]
  0025e	ff 75 0c	 push	 DWORD PTR _realRegion$[ebp]
  00261	ff 75 08	 push	 DWORD PTR _pDC$[ebp]
  00264	e8 00 00 00 00	 call	 ?DrawComponentRatio_Pie@CFundDraw@@AAE_NPAVCDC@@ABVCRect@@ABVCDisplayAttributes@@ABVCDrawingGraphData@@ABVCSubGraphData@@@Z ; CFundDraw::DrawComponentRatio_Pie

; 81   : 			nDataEnd, nRealEnd, dViewMax, dViewMin, packetList, penThickness);
; 82   : 	}
; 83   : 
; 84   : 	return false;
; 85   : }

  00269	5f		 pop	 edi
  0026a	5e		 pop	 esi
  0026b	5b		 pop	 ebx
  0026c	8b e5		 mov	 esp, ebp
  0026e	5d		 pop	 ebp
  0026f	c2 14 00	 ret	 20			; 00000014H
$LN11@DrawGraph:

; 76   : 	case CGraphBaseData::ComponentRatio_Bar_Line:
; 77   : 		return DrawComponentRatio_Bar_Line(pDC, etcGraphColor, realRegion, graphColor, 

  00272	83 ec 14	 sub	 esp, 20			; 00000014H
  00275	8d 45 cc	 lea	 eax, DWORD PTR _$S15$[ebp]
  00278	8b cc		 mov	 ecx, esp
  0027a	50		 push	 eax
  0027b	ff 15 00 00 00
	00		 call	 DWORD PTR __imp_??0CPenThickness@@QAE@ABV0@@Z
  00281	53		 push	 ebx
  00282	8d 45 f8	 lea	 eax, DWORD PTR _dViewMin$[ebp]
  00285	8b ce		 mov	 ecx, esi
  00287	50		 push	 eax
  00288	8d 45 f0	 lea	 eax, DWORD PTR _dViewMax$[ebp]
  0028b	50		 push	 eax
  0028c	ff 75 ec	 push	 DWORD PTR _nRealEnd$1$[ebp]
  0028f	8d 85 78 ff ff
	ff		 lea	 eax, DWORD PTR _$S13$[ebp]
  00295	ff 75 e4	 push	 DWORD PTR _nDataEnd$1$[ebp]
  00298	57		 push	 edi
  00299	50		 push	 eax
  0029a	ff 75 0c	 push	 DWORD PTR _realRegion$[ebp]
  0029d	8d 45 b4	 lea	 eax, DWORD PTR _$S14$[ebp]
  002a0	50		 push	 eax
  002a1	ff 75 08	 push	 DWORD PTR _pDC$[ebp]
  002a4	e8 00 00 00 00	 call	 ?DrawComponentRatio_Bar_Line@CFundDraw@@AAE_NPAVCDC@@ABVCEtcGraphColor@@ABVCRect@@ABVCGraphColor@@HHHABN4ABV?$CList@PAVCPacket@@PAV1@@@VCPenThickness@@@Z ; CFundDraw::DrawComponentRatio_Bar_Line

; 81   : 			nDataEnd, nRealEnd, dViewMax, dViewMin, packetList, penThickness);
; 82   : 	}
; 83   : 
; 84   : 	return false;
; 85   : }

  002a9	5f		 pop	 edi
  002aa	5e		 pop	 esi
  002ab	5b		 pop	 ebx
  002ac	8b e5		 mov	 esp, ebp
  002ae	5d		 pop	 ebp
  002af	c2 14 00	 ret	 20			; 00000014H
$LN12@DrawGraph:

; 78   : 			nRealStart, nDataEnd, nRealEnd, dViewMax, dViewMin, packetList, penThickness);
; 79   : 	case CGraphBaseData::Group_Bar:
; 80   : 		return DrawGroupBar(pDC, etcGraphColor, realRegion, graphColor, nRealStart, 

  002b2	83 ec 14	 sub	 esp, 20			; 00000014H
  002b5	8d 45 cc	 lea	 eax, DWORD PTR _$S15$[ebp]
  002b8	8b cc		 mov	 ecx, esp
  002ba	50		 push	 eax
  002bb	ff 15 00 00 00
	00		 call	 DWORD PTR __imp_??0CPenThickness@@QAE@ABV0@@Z
  002c1	53		 push	 ebx
  002c2	8d 45 f8	 lea	 eax, DWORD PTR _dViewMin$[ebp]
  002c5	8b ce		 mov	 ecx, esi
  002c7	50		 push	 eax
  002c8	8d 45 f0	 lea	 eax, DWORD PTR _dViewMax$[ebp]
  002cb	50		 push	 eax
  002cc	ff 75 ec	 push	 DWORD PTR _nRealEnd$1$[ebp]
  002cf	8d 85 78 ff ff
	ff		 lea	 eax, DWORD PTR _$S13$[ebp]
  002d5	ff 75 e4	 push	 DWORD PTR _nDataEnd$1$[ebp]
  002d8	57		 push	 edi
  002d9	50		 push	 eax
  002da	ff 75 0c	 push	 DWORD PTR _realRegion$[ebp]
  002dd	8d 45 b4	 lea	 eax, DWORD PTR _$S14$[ebp]
  002e0	50		 push	 eax
  002e1	ff 75 08	 push	 DWORD PTR _pDC$[ebp]
  002e4	e8 00 00 00 00	 call	 ?DrawGroupBar@CFundDraw@@AAE_NPAVCDC@@ABVCEtcGraphColor@@ABVCRect@@ABVCGraphColor@@HHHABN4ABV?$CList@PAVCPacket@@PAV1@@@VCPenThickness@@@Z ; CFundDraw::DrawGroupBar

; 81   : 			nDataEnd, nRealEnd, dViewMax, dViewMin, packetList, penThickness);
; 82   : 	}
; 83   : 
; 84   : 	return false;
; 85   : }

  002e9	5f		 pop	 edi
  002ea	5e		 pop	 esi
  002eb	5b		 pop	 ebx
  002ec	8b e5		 mov	 esp, ebp
  002ee	5d		 pop	 ebp
  002ef	c2 14 00	 ret	 20			; 00000014H
$LN2@DrawGraph:
  002f2	5f		 pop	 edi
  002f3	5e		 pop	 esi
  002f4	32 c0		 xor	 al, al
  002f6	5b		 pop	 ebx
  002f7	8b e5		 mov	 esp, ebp
  002f9	5d		 pop	 ebp
  002fa	c2 14 00	 ret	 20			; 00000014H
  002fd	0f 1f 00	 npad	 3
$LN14@DrawGraph:
  00300	00 00 00 00	 DD	 $LN7@DrawGraph
  00304	00 00 00 00	 DD	 $LN4@DrawGraph
  00308	00 00 00 00	 DD	 $LN11@DrawGraph
  0030c	00 00 00 00	 DD	 $LN10@DrawGraph
  00310	00 00 00 00	 DD	 $LN8@DrawGraph
  00314	00 00 00 00	 DD	 $LN6@DrawGraph
  00318	00 00 00 00	 DD	 $LN5@DrawGraph
  0031c	00 00 00 00	 DD	 $LN9@DrawGraph
  00320	00 00 00 00	 DD	 $LN12@DrawGraph
?DrawGraph@CFundDraw@@UAE_NPAVCDC@@ABVCRect@@ABVCDisplayAttributes@@ABVCDrawingGraphData@@ABVCSubGraphData@@@Z ENDP ; CFundDraw::DrawGraph
_TEXT	ENDS
; Function compile flags: /Ogtp
; File D:\git\src\IBK\IBK_DRFN\ProjSrc\SrcChartEx\ChartOCX\GraphDraw\FundDraw.cpp
;	COMDAT ??1CFundDraw@@UAE@XZ
_TEXT	SEGMENT
??1CFundDraw@@UAE@XZ PROC				; CFundDraw::~CFundDraw, COMDAT
; _this$ = ecx

; 34   : {

  00000	c7 01 00 00 00
	00		 mov	 DWORD PTR [ecx], OFFSET ??_7CFundDraw@@6B@

; 35   : }

  00006	e9 00 00 00 00	 jmp	 ??1CDraw@@UAE@XZ	; CDraw::~CDraw
??1CFundDraw@@UAE@XZ ENDP				; CFundDraw::~CFundDraw
_TEXT	ENDS
; Function compile flags: /Ogtp
; File D:\git\src\IBK\IBK_DRFN\ProjSrc\SrcChartEx\ChartOCX\GraphDraw\FundDraw.cpp
;	COMDAT ??0CFundDraw@@QAE@XZ
_TEXT	SEGMENT
_this$ = -4						; size = 4
??0CFundDraw@@QAE@XZ PROC				; CFundDraw::CFundDraw, COMDAT
; _this$ = ecx

; 29   : {

  00000	55		 push	 ebp
  00001	8b ec		 mov	 ebp, esp
  00003	51		 push	 ecx
  00004	56		 push	 esi
  00005	8b f1		 mov	 esi, ecx
  00007	89 75 fc	 mov	 DWORD PTR _this$[ebp], esi
  0000a	e8 00 00 00 00	 call	 ??0CDraw@@QAE@XZ	; CDraw::CDraw
  0000f	c7 06 00 00 00
	00		 mov	 DWORD PTR [esi], OFFSET ??_7CFundDraw@@6B@

; 30   : 	m_eGraphType = CGraphBaseData::Fund_Type;
; 31   : }

  00015	8b c6		 mov	 eax, esi
  00017	c7 46 10 05 00
	00 00		 mov	 DWORD PTR [esi+16], 5
  0001e	5e		 pop	 esi
  0001f	8b e5		 mov	 esp, ebp
  00021	5d		 pop	 ebp
  00022	c3		 ret	 0
??0CFundDraw@@QAE@XZ ENDP				; CFundDraw::CFundDraw
_TEXT	ENDS
; Function compile flags: /Ogtp
; File C:\Program Files (x86)\Microsoft Visual Studio\2019\Community\VC\Tools\MSVC\14.29.30133\atlmfc\include\afxwin1.inl
; File C:\Program Files (x86)\Microsoft Visual Studio\2019\Community\VC\Tools\MSVC\14.29.30133\atlmfc\include\afx.inl
;	COMDAT ??_GCBrush@@UAEPAXI@Z
_TEXT	SEGMENT
___flags$ = 8						; size = 4
??_GCBrush@@UAEPAXI@Z PROC				; CBrush::`scalar deleting destructor', COMDAT
; _this$ = ecx
  00000	55		 push	 ebp
  00001	8b ec		 mov	 ebp, esp
; File C:\Program Files (x86)\Microsoft Visual Studio\2019\Community\VC\Tools\MSVC\14.29.30133\atlmfc\include\afxwin1.inl

; 130  : 	{ }

  00003	56		 push	 esi
  00004	8b f1		 mov	 esi, ecx
  00006	c7 06 00 00 00
	00		 mov	 DWORD PTR [esi], OFFSET ??_7CBrush@@6B@
  0000c	e8 00 00 00 00	 call	 ??1CGdiObject@@UAE@XZ	; CGdiObject::~CGdiObject
  00011	8b 45 08	 mov	 eax, DWORD PTR ___flags$[ebp]
  00014	a8 01		 test	 al, 1
  00016	74 1f		 je	 SHORT $LN12@scalar
  00018	a8 04		 test	 al, 4
  0001a	75 10		 jne	 SHORT $LN3@scalar
; File C:\Program Files (x86)\Microsoft Visual Studio\2019\Community\VC\Tools\MSVC\14.29.30133\atlmfc\include\afx.inl

; 112  : 	{ ::operator delete(p); }

  0001c	56		 push	 esi
  0001d	e8 00 00 00 00	 call	 ??3@YAXPAX@Z		; operator delete
  00022	83 c4 04	 add	 esp, 4
  00025	8b c6		 mov	 eax, esi
  00027	5e		 pop	 esi
  00028	5d		 pop	 ebp
  00029	c2 04 00	 ret	 4
$LN3@scalar:
  0002c	6a 08		 push	 8
  0002e	56		 push	 esi
  0002f	e8 00 00 00 00	 call	 ?__global_delete@@YAXPAXI@Z ; __global_delete
  00034	83 c4 08	 add	 esp, 8
$LN12@scalar:
  00037	8b c6		 mov	 eax, esi
  00039	5e		 pop	 esi
  0003a	5d		 pop	 ebp
  0003b	c2 04 00	 ret	 4
??_GCBrush@@UAEPAXI@Z ENDP				; CBrush::`scalar deleting destructor'
_TEXT	ENDS
; Function compile flags: /Ogtp
; File C:\Program Files (x86)\Microsoft Visual Studio\2019\Community\VC\Tools\MSVC\14.29.30133\atlmfc\include\afxwin1.inl
;	COMDAT ??1CBrush@@UAE@XZ
_TEXT	SEGMENT
??1CBrush@@UAE@XZ PROC					; CBrush::~CBrush, COMDAT
; _this$ = ecx

; 130  : 	{ }

  00000	c7 01 00 00 00
	00		 mov	 DWORD PTR [ecx], OFFSET ??_7CBrush@@6B@
  00006	e9 00 00 00 00	 jmp	 ??1CGdiObject@@UAE@XZ	; CGdiObject::~CGdiObject
??1CBrush@@UAE@XZ ENDP					; CBrush::~CBrush
_TEXT	ENDS
; Function compile flags: /Ogtp
; File C:\Program Files (x86)\Microsoft Visual Studio\2019\Community\VC\Tools\MSVC\14.29.30133\atlmfc\include\afxwin1.inl
; File C:\Program Files (x86)\Microsoft Visual Studio\2019\Community\VC\Tools\MSVC\14.29.30133\atlmfc\include\afx.inl
;	COMDAT ??_GCPen@@UAEPAXI@Z
_TEXT	SEGMENT
___flags$ = 8						; size = 4
??_GCPen@@UAEPAXI@Z PROC				; CPen::`scalar deleting destructor', COMDAT
; _this$ = ecx
  00000	55		 push	 ebp
  00001	8b ec		 mov	 ebp, esp
; File C:\Program Files (x86)\Microsoft Visual Studio\2019\Community\VC\Tools\MSVC\14.29.30133\atlmfc\include\afxwin1.inl

; 106  : 	{ }

  00003	56		 push	 esi
  00004	8b f1		 mov	 esi, ecx
  00006	c7 06 00 00 00
	00		 mov	 DWORD PTR [esi], OFFSET ??_7CPen@@6B@
  0000c	e8 00 00 00 00	 call	 ??1CGdiObject@@UAE@XZ	; CGdiObject::~CGdiObject
  00011	8b 45 08	 mov	 eax, DWORD PTR ___flags$[ebp]
  00014	a8 01		 test	 al, 1
  00016	74 1f		 je	 SHORT $LN12@scalar
  00018	a8 04		 test	 al, 4
  0001a	75 10		 jne	 SHORT $LN3@scalar
; File C:\Program Files (x86)\Microsoft Visual Studio\2019\Community\VC\Tools\MSVC\14.29.30133\atlmfc\include\afx.inl

; 112  : 	{ ::operator delete(p); }

  0001c	56		 push	 esi
  0001d	e8 00 00 00 00	 call	 ??3@YAXPAX@Z		; operator delete
  00022	83 c4 04	 add	 esp, 4
  00025	8b c6		 mov	 eax, esi
  00027	5e		 pop	 esi
  00028	5d		 pop	 ebp
  00029	c2 04 00	 ret	 4
$LN3@scalar:
  0002c	6a 08		 push	 8
  0002e	56		 push	 esi
  0002f	e8 00 00 00 00	 call	 ?__global_delete@@YAXPAXI@Z ; __global_delete
  00034	83 c4 08	 add	 esp, 8
$LN12@scalar:
  00037	8b c6		 mov	 eax, esi
  00039	5e		 pop	 esi
  0003a	5d		 pop	 ebp
  0003b	c2 04 00	 ret	 4
??_GCPen@@UAEPAXI@Z ENDP				; CPen::`scalar deleting destructor'
_TEXT	ENDS
; Function compile flags: /Ogtp
; File C:\Program Files (x86)\Microsoft Visual Studio\2019\Community\VC\Tools\MSVC\14.29.30133\atlmfc\include\afxwin1.inl
;	COMDAT ??1CPen@@UAE@XZ
_TEXT	SEGMENT
??1CPen@@UAE@XZ PROC					; CPen::~CPen, COMDAT
; _this$ = ecx

; 106  : 	{ }

  00000	c7 01 00 00 00
	00		 mov	 DWORD PTR [ecx], OFFSET ??_7CPen@@6B@
  00006	e9 00 00 00 00	 jmp	 ??1CGdiObject@@UAE@XZ	; CGdiObject::~CGdiObject
??1CPen@@UAE@XZ ENDP					; CPen::~CPen
_TEXT	ENDS
; Function compile flags: /Ogtp
; File C:\Program Files (x86)\Microsoft Visual Studio\2019\Community\VC\Tools\MSVC\14.29.30133\atlmfc\include\afx.inl
;	COMDAT ??_GCGdiObject@@UAEPAXI@Z
_TEXT	SEGMENT
___flags$ = 8						; size = 4
??_GCGdiObject@@UAEPAXI@Z PROC				; CGdiObject::`scalar deleting destructor', COMDAT
; _this$ = ecx
  00000	55		 push	 ebp
  00001	8b ec		 mov	 ebp, esp
  00003	56		 push	 esi
  00004	8b f1		 mov	 esi, ecx
  00006	e8 00 00 00 00	 call	 ??1CGdiObject@@UAE@XZ	; CGdiObject::~CGdiObject
  0000b	8b 45 08	 mov	 eax, DWORD PTR ___flags$[ebp]
  0000e	a8 01		 test	 al, 1
  00010	74 1f		 je	 SHORT $LN9@scalar
  00012	a8 04		 test	 al, 4
  00014	75 10		 jne	 SHORT $LN3@scalar

; 112  : 	{ ::operator delete(p); }

  00016	56		 push	 esi
  00017	e8 00 00 00 00	 call	 ??3@YAXPAX@Z		; operator delete
  0001c	83 c4 04	 add	 esp, 4
  0001f	8b c6		 mov	 eax, esi
  00021	5e		 pop	 esi
  00022	5d		 pop	 ebp
  00023	c2 04 00	 ret	 4
$LN3@scalar:
  00026	6a 08		 push	 8
  00028	56		 push	 esi
  00029	e8 00 00 00 00	 call	 ?__global_delete@@YAXPAXI@Z ; __global_delete
  0002e	83 c4 08	 add	 esp, 8
$LN9@scalar:
  00031	8b c6		 mov	 eax, esi
  00033	5e		 pop	 esi
  00034	5d		 pop	 ebp
  00035	c2 04 00	 ret	 4
??_GCGdiObject@@UAEPAXI@Z ENDP				; CGdiObject::`scalar deleting destructor'
_TEXT	ENDS
; Function compile flags: /Ogtp
; File C:\Program Files (x86)\Microsoft Visual Studio\2019\Community\VC\Tools\MSVC\14.29.30133\atlmfc\include\afxwin1.inl
;	COMDAT ??1CGdiObject@@UAE@XZ
_TEXT	SEGMENT
_pException$2 = -540					; size = 4
_strMsg$3 = -536					; size = 4
_szErrorMessage$4 = -532				; size = 512
__$ArrayPad$ = -20					; size = 4
__$EHRec$ = -16						; size = 16
??1CGdiObject@@UAE@XZ PROC				; CGdiObject::~CGdiObject, COMDAT
; _this$ = ecx

; 74   : {

  00000	55		 push	 ebp
  00001	8b ec		 mov	 ebp, esp
  00003	6a ff		 push	 -1
  00005	68 00 00 00 00	 push	 __ehhandler$??1CGdiObject@@UAE@XZ
  0000a	64 a1 00 00 00
	00		 mov	 eax, DWORD PTR fs:0
  00010	50		 push	 eax
  00011	81 ec 10 02 00
	00		 sub	 esp, 528		; 00000210H
  00017	a1 00 00 00 00	 mov	 eax, DWORD PTR ___security_cookie
  0001c	33 c5		 xor	 eax, ebp
  0001e	89 45 ec	 mov	 DWORD PTR __$ArrayPad$[ebp], eax
  00021	53		 push	 ebx
  00022	56		 push	 esi
  00023	57		 push	 edi
  00024	50		 push	 eax
  00025	8d 45 f4	 lea	 eax, DWORD PTR __$EHRec$[ebp+4]
  00028	64 a3 00 00 00
	00		 mov	 DWORD PTR fs:0, eax
  0002e	89 65 f0	 mov	 DWORD PTR __$EHRec$[ebp], esp
  00031	c7 01 00 00 00
	00		 mov	 DWORD PTR [ecx], OFFSET ??_7CGdiObject@@6B@

; 75   : 	AFX_BEGIN_DESTRUCTOR

  00037	c7 45 fc 00 00
	00 00		 mov	 DWORD PTR __$EHRec$[ebp+12], 0

; 76   : 	DeleteObject();

  0003e	e8 00 00 00 00	 call	 ?DeleteObject@CGdiObject@@QAEHXZ ; CGdiObject::DeleteObject
$LN18@CGdiObject:

; 78   : }

  00043	8b 4d f4	 mov	 ecx, DWORD PTR __$EHRec$[ebp+4]
  00046	64 89 0d 00 00
	00 00		 mov	 DWORD PTR fs:0, ecx
  0004d	59		 pop	 ecx
  0004e	5f		 pop	 edi
  0004f	5e		 pop	 esi
  00050	5b		 pop	 ebx
  00051	8b 4d ec	 mov	 ecx, DWORD PTR __$ArrayPad$[ebp]
  00054	33 cd		 xor	 ecx, ebp
  00056	e8 00 00 00 00	 call	 @__security_check_cookie@4
  0005b	8b e5		 mov	 esp, ebp
  0005d	5d		 pop	 ebp
  0005e	c3		 ret	 0
__catch$??1CGdiObject@@UAE@XZ$0:

; 77   : 	AFX_END_DESTRUCTOR

  0005f	8d 8d e8 fd ff
	ff		 lea	 ecx, DWORD PTR _strMsg$3[ebp]
  00065	ff 15 00 00 00
	00		 call	 DWORD PTR __imp_??0?$CStringT@DV?$StrTraitMFC_DLL@DV?$ChTraitsCRT@D@ATL@@@@@ATL@@QAE@XZ
  0006b	8b b5 e4 fd ff
	ff		 mov	 esi, DWORD PTR _pException$2[ebp]
  00071	8d 8d ec fd ff
	ff		 lea	 ecx, DWORD PTR _szErrorMessage$4[ebp]
  00077	6a 00		 push	 0
  00079	68 00 02 00 00	 push	 512			; 00000200H
  0007e	51		 push	 ecx
  0007f	8b 06		 mov	 eax, DWORD PTR [esi]
  00081	8b ce		 mov	 ecx, esi
  00083	c6 45 fc 02	 mov	 BYTE PTR __$EHRec$[ebp+12], 2
  00087	ff 50 14	 call	 DWORD PTR [eax+20]
  0008a	85 c0		 test	 eax, eax
  0008c	74 2a		 je	 SHORT $LN9@CGdiObject
  0008e	8d 85 ec fd ff
	ff		 lea	 eax, DWORD PTR _szErrorMessage$4[ebp]
  00094	50		 push	 eax
  00095	6a 4d		 push	 77			; 0000004dH
  00097	68 00 00 00 00	 push	 OFFSET ??_C@_0HD@JJCHHHNK@C?3?2Program?5Files?5?$CIx86?$CJ?2Microsof@
  0009c	68 00 00 00 00	 push	 OFFSET ??_C@_0BP@OIEOKIDM@Exception?5thrown?5in?5destructor@
  000a1	8d 85 e8 fd ff
	ff		 lea	 eax, DWORD PTR _strMsg$3[ebp]
  000a7	68 00 00 00 00	 push	 OFFSET ??_C@_0BB@HBOOMJBF@?$CFTs?5?$CI?$CFTs?3?$CFd?$CJ?6?$CFTs@
  000ac	50		 push	 eax
  000ad	ff 15 00 00 00
	00		 call	 DWORD PTR __imp_?Format@?$CStringT@DV?$StrTraitMFC_DLL@DV?$ChTraitsCRT@D@ATL@@@@@ATL@@QAAXPBDZZ
  000b3	83 c4 18	 add	 esp, 24			; 00000018H
  000b6	eb 21		 jmp	 SHORT $LN10@CGdiObject
$LN9@CGdiObject:
  000b8	6a 4d		 push	 77			; 0000004dH
  000ba	68 00 00 00 00	 push	 OFFSET ??_C@_0HD@JJCHHHNK@C?3?2Program?5Files?5?$CIx86?$CJ?2Microsof@
  000bf	68 00 00 00 00	 push	 OFFSET ??_C@_0BP@OIEOKIDM@Exception?5thrown?5in?5destructor@
  000c4	8d 85 e8 fd ff
	ff		 lea	 eax, DWORD PTR _strMsg$3[ebp]
  000ca	68 00 00 00 00	 push	 OFFSET ??_C@_0N@OMEMOKLE@?$CFTs?5?$CI?$CFTs?3?$CFd?$CJ@
  000cf	50		 push	 eax
  000d0	ff 15 00 00 00
	00		 call	 DWORD PTR __imp_?Format@?$CStringT@DV?$StrTraitMFC_DLL@DV?$ChTraitsCRT@D@ATL@@@@@ATL@@QAAXPBDZZ
  000d6	83 c4 14	 add	 esp, 20			; 00000014H
$LN10@CGdiObject:
  000d9	6a 00		 push	 0
  000db	6a 00		 push	 0
  000dd	ff b5 e8 fd ff
	ff		 push	 DWORD PTR _strMsg$3[ebp]
  000e3	e8 00 00 00 00	 call	 ?AfxMessageBox@@YGHPBDII@Z ; AfxMessageBox
  000e8	8d 8d e8 fd ff
	ff		 lea	 ecx, DWORD PTR _strMsg$3[ebp]
  000ee	ff 15 00 00 00
	00		 call	 DWORD PTR __imp_??1?$CStringT@DV?$StrTraitMFC_DLL@DV?$ChTraitsCRT@D@ATL@@@@@ATL@@QAE@XZ
  000f4	8b 06		 mov	 eax, DWORD PTR [esi]
  000f6	8b ce		 mov	 ecx, esi
  000f8	6a 01		 push	 1
  000fa	ff 50 04	 call	 DWORD PTR [eax+4]
  000fd	b8 00 00 00 00	 mov	 eax, $LN18@CGdiObject
  00102	c3		 ret	 0
_TEXT	ENDS
;	COMDAT text$x
text$x	SEGMENT
__unwindfunclet$??1CGdiObject@@UAE@XZ$2:
  00000	8d 8d e8 fd ff
	ff		 lea	 ecx, DWORD PTR _strMsg$3[ebp]
  00006	ff 25 00 00 00
	00		 jmp	 DWORD PTR __imp_??1?$CStringT@DV?$StrTraitMFC_DLL@DV?$ChTraitsCRT@D@ATL@@@@@ATL@@QAE@XZ
  0000c	cc		 int	 3
  0000d	cc		 int	 3
  0000e	cc		 int	 3
  0000f	cc		 int	 3
  00010	cc		 int	 3
__ehhandler$??1CGdiObject@@UAE@XZ:
  00011	90		 npad	 1
  00012	90		 npad	 1
  00013	8b 54 24 08	 mov	 edx, DWORD PTR [esp+8]
  00017	8d 42 0c	 lea	 eax, DWORD PTR [edx+12]
  0001a	8b 8a e0 fd ff
	ff		 mov	 ecx, DWORD PTR [edx-544]
  00020	33 c8		 xor	 ecx, eax
  00022	e8 00 00 00 00	 call	 @__security_check_cookie@4
  00027	8b 4a f8	 mov	 ecx, DWORD PTR [edx-8]
  0002a	33 c8		 xor	 ecx, eax
  0002c	e8 00 00 00 00	 call	 @__security_check_cookie@4
  00031	b8 00 00 00 00	 mov	 eax, OFFSET __ehfuncinfo$??1CGdiObject@@UAE@XZ
  00036	e9 00 00 00 00	 jmp	 ___CxxFrameHandler3
text$x	ENDS
??1CGdiObject@@UAE@XZ ENDP				; CGdiObject::~CGdiObject
; Function compile flags: /Ogtp
; File C:\Program Files (x86)\Microsoft Visual Studio\2019\Community\VC\Tools\MSVC\14.29.30133\atlmfc\include\atltypes.h
;	COMDAT ??0CPoint@@QAE@XZ
_TEXT	SEGMENT
??0CPoint@@QAE@XZ PROC					; CPoint::CPoint, COMDAT
; _this$ = ecx

; 400  : 	x = 0;

  00000	c7 01 00 00 00
	00		 mov	 DWORD PTR [ecx], 0

; 401  : 	y = 0;
; 402  : }

  00006	8b c1		 mov	 eax, ecx
  00008	c7 41 04 00 00
	00 00		 mov	 DWORD PTR [ecx+4], 0
  0000f	c3		 ret	 0
??0CPoint@@QAE@XZ ENDP					; CPoint::CPoint
_TEXT	ENDS
; Function compile flags: /Ogtp
; File C:\Program Files (x86)\Microsoft Visual Studio\2019\Community\VC\Tools\MSVC\14.29.30133\atlmfc\include\afx.inl
;	COMDAT ?Dump@CObject@@UBEXAAVCDumpContext@@@Z
_TEXT	SEGMENT
___formal$ = 8						; size = 4
?Dump@CObject@@UBEXAAVCDumpContext@@@Z PROC		; CObject::Dump, COMDAT
; _this$ = ecx

; 122  : 	{ /* no dumping in release builds */ }

  00000	c2 04 00	 ret	 4
?Dump@CObject@@UBEXAAVCDumpContext@@@Z ENDP		; CObject::Dump
_TEXT	ENDS
; Function compile flags: /Ogtp
; File C:\Program Files (x86)\Microsoft Visual Studio\2019\Community\VC\Tools\MSVC\14.29.30133\atlmfc\include\afx.inl
;	COMDAT ?AssertValid@CObject@@UBEXXZ
_TEXT	SEGMENT
?AssertValid@CObject@@UBEXXZ PROC			; CObject::AssertValid, COMDAT
; _this$ = ecx

; 120  : 	{ /* no asserts in release builds */ }

  00000	c2 00 00	 ret	 0
?AssertValid@CObject@@UBEXXZ ENDP			; CObject::AssertValid
_TEXT	ENDS
; Function compile flags: /Ogtp
; File C:\Program Files (x86)\Microsoft Visual Studio\2019\Community\VC\Tools\MSVC\14.29.30133\atlmfc\include\afx.inl
;	COMDAT ?Serialize@CObject@@UAEXAAVCArchive@@@Z
_TEXT	SEGMENT
___formal$ = 8						; size = 4
?Serialize@CObject@@UAEXAAVCArchive@@@Z PROC		; CObject::Serialize, COMDAT
; _this$ = ecx

; 106  : 	{ /* CObject does not serialize anything by default */ }

  00000	c2 04 00	 ret	 4
?Serialize@CObject@@UAEXAAVCArchive@@@Z ENDP		; CObject::Serialize
_TEXT	ENDS
; Function compile flags: /Ogtp
; File C:\Program Files (x86)\Microsoft Visual Studio\2019\Community\VC\Tools\MSVC\14.29.30133\atlmfc\include\afx.inl
;	COMDAT ??1CObject@@UAE@XZ
_TEXT	SEGMENT
??1CObject@@UAE@XZ PROC					; CObject::~CObject, COMDAT
; _this$ = ecx

; 104  : 	{ }

  00000	c2 00 00	 ret	 0
??1CObject@@UAE@XZ ENDP					; CObject::~CObject
_TEXT	ENDS
; Function compile flags: /Ogtp
; File D:\git\src\IBK\IBK_DRFN\ProjSrc\SrcChartEx\ChartOCX\GraphDraw\FundDraw.cpp
;	COMDAT ?__empty_global_delete@@YAXPAXI@Z
_TEXT	SEGMENT
___formal$ = 8						; size = 4
___formal$ = 12						; size = 4
?__empty_global_delete@@YAXPAXI@Z PROC			; __empty_global_delete, COMDAT

  00000	c2 00 00	 ret	 0
?__empty_global_delete@@YAXPAXI@Z ENDP			; __empty_global_delete
_TEXT	ENDS
; Function compile flags: /Ogtp
; File D:\git\src\IBK\IBK_DRFN\ProjSrc\SrcChartEx\ChartOCX\GraphDraw\FundDraw.cpp
;	COMDAT ?__empty_global_delete@@YAXPAX@Z
_TEXT	SEGMENT
___formal$ = 8						; size = 4
?__empty_global_delete@@YAXPAX@Z PROC			; __empty_global_delete, COMDAT

  00000	c2 00 00	 ret	 0
?__empty_global_delete@@YAXPAX@Z ENDP			; __empty_global_delete
_TEXT	ENDS
; Function compile flags: /Ogtp
;	COMDAT ??_H@YGXPAXIIP6EPAX0@Z@Z
_TEXT	SEGMENT
___t$ = 8						; size = 4
___s$ = 12						; size = 4
___n$ = 16						; size = 4
___f$ = 20						; size = 4
??_H@YGXPAXIIP6EPAX0@Z@Z PROC				; `vector constructor iterator', COMDAT
  00000	55		 push	 ebp
  00001	8b ec		 mov	 ebp, esp
  00003	56		 push	 esi
  00004	8b 75 10	 mov	 esi, DWORD PTR ___n$[ebp]
  00007	85 f6		 test	 esi, esi
  00009	74 16		 je	 SHORT $LN6@vector
  0000b	53		 push	 ebx
  0000c	8b 5d 14	 mov	 ebx, DWORD PTR ___f$[ebp]
  0000f	57		 push	 edi
  00010	8b 7d 08	 mov	 edi, DWORD PTR ___t$[ebp]
$LL2@vector:
  00013	8b cf		 mov	 ecx, edi
  00015	ff d3		 call	 ebx
  00017	03 7d 0c	 add	 edi, DWORD PTR ___s$[ebp]
  0001a	83 ee 01	 sub	 esi, 1
  0001d	75 f4		 jne	 SHORT $LL2@vector
  0001f	5f		 pop	 edi
  00020	5b		 pop	 ebx
$LN6@vector:
  00021	5e		 pop	 esi
  00022	5d		 pop	 ebp
  00023	c2 10 00	 ret	 16			; 00000010H
??_H@YGXPAXIIP6EPAX0@Z@Z ENDP				; `vector constructor iterator'
_TEXT	ENDS
END
