; Listing generated by Microsoft (R) Optimizing Compiler Version 19.29.30145.0 

	TITLE	D:\git\src\IBK\IBK_DRFN\#DRfn-CS\_Obj\GraphDraw\GraphDrawerImplementation.obj
	.686P
	.XMM
	include listing.inc
	.model	flat

INCLUDELIB MSVCRT
INCLUDELIB OLDNAMES

CONST	SEGMENT
?_Fake_alloc@std@@3U_Fake_allocator@1@B	ORG $+1		; std::_Fake_alloc
CONST	ENDS
PUBLIC	?__empty_global_delete@@YAXPAX@Z		; __empty_global_delete
PUBLIC	?__empty_global_delete@@YAXPAXI@Z		; __empty_global_delete
PUBLIC	??1CObject@@UAE@XZ				; CObject::~CObject
PUBLIC	?Serialize@CObject@@UAEXAAVCArchive@@@Z		; CObject::Serialize
PUBLIC	?AssertValid@CObject@@UBEXXZ			; CObject::AssertValid
PUBLIC	?Dump@CObject@@UBEXAAVCDumpContext@@@Z		; CObject::Dump
PUBLIC	??1CGdiObject@@UAE@XZ				; CGdiObject::~CGdiObject
PUBLIC	??_GCGdiObject@@UAEPAXI@Z			; CGdiObject::`scalar deleting destructor'
PUBLIC	??1CRgn@@UAE@XZ					; CRgn::~CRgn
PUBLIC	??_GCRgn@@UAEPAXI@Z				; CRgn::`scalar deleting destructor'
PUBLIC	?DrawGraphTitle@CGraphDrawerImplementation@@QAE_NPAVCDC@@ABVCDrawingGraphData@@ABVCSubGraphData@@AAH3@Z ; CGraphDrawerImplementation::DrawGraphTitle
PUBLIC	?DrawGraph@CGraphDrawerImplementation@@QAE_NPAVCDC@@ABVCDrawingGraphData@@ABVCSubGraphData@@ABV?$CStringT@DV?$StrTraitMFC_DLL@DV?$ChTraitsCRT@D@ATL@@@@@ATL@@PAVCXScaleManager@@@Z ; CGraphDrawerImplementation::DrawGraph
PUBLIC	?DrawSignal@CGraphDrawerImplementation@@QAEXPAVCDC@@ABVCDrawingGraphData@@PBV?$CList@NN@@AAVCSignalData@@ABV?$CStringT@DV?$StrTraitMFC_DLL@DV?$ChTraitsCRT@D@ATL@@@@@ATL@@PAVCXScaleManager@@@Z ; CGraphDrawerImplementation::DrawSignal
PUBLIC	?DrawGrip@CGraphDrawerImplementation@@QAE_NPAVCDC@@HABVCSelectSubGraphData@@@Z ; CGraphDrawerImplementation::DrawGrip
PUBLIC	?PointInSubGraph@CGraphDrawerImplementation@@QAEHABVCPoint@@ABVCSelectSubGraphData@@PAVCIndicatorList@@@Z ; CGraphDrawerImplementation::PointInSubGraph
PUBLIC	?GetTextInRightScaleRegionDrawer@CGraphDrawerImplementation@@QBE_NABVCTextInRightScaleRegionDrawer@@AAV?$CStringT@DV?$StrTraitMFC_DLL@DV?$ChTraitsCRT@D@ATL@@@@@ATL@@111@Z ; CGraphDrawerImplementation::GetTextInRightScaleRegionDrawer
PUBLIC	?IsAction@CGraphDrawerImplementation@@ABE_NPAVCSubGraphPacketList@@@Z ; CGraphDrawerImplementation::IsAction
PUBLIC	?DrawGraphDatas@CGraphDrawerImplementation@@AAEXPAVCDC@@ABVCRect@@ABVCDisplayAttributes@@ABVCDrawingGraphData@@ABVCSubGraphData@@@Z ; CGraphDrawerImplementation::DrawGraphDatas
PUBLIC	?GetDisplayDataEnd@CGraphDrawerImplementation@@ABEHABW4GRAPHTYPE@CGraphBaseData@@HABV?$CList@PAVCPacket@@PAV1@@@@Z ; CGraphDrawerImplementation::GetDisplayDataEnd
PUBLIC	?GetDisplayAttributes@CGraphDrawerImplementation@@ABE_NABVCSubGraphData@@HAAVCDisplayAttributes@@@Z ; CGraphDrawerImplementation::GetDisplayAttributes
PUBLIC	??1CGraphTitleDrawer@@QAE@XZ			; CGraphTitleDrawer::~CGraphTitleDrawer
PUBLIC	??1CSignalDraw@@UAE@XZ				; CSignalDraw::~CSignalDraw
PUBLIC	??_GCSignalDraw@@UAEPAXI@Z			; CSignalDraw::`scalar deleting destructor'
PUBLIC	??4CGraphDrawer@@QAEAAV0@ABV0@@Z		; CGraphDrawer::operator=
PUBLIC	??4CGraphDrawer@@QAEAAV0@$$QAV0@@Z		; CGraphDrawer::operator=
PUBLIC	??_R0PAVCException@@@8				; CException * `RTTI Type Descriptor'
PUBLIC	??_7CGdiObject@@6B@				; CGdiObject::`vftable'
PUBLIC	??_7CRgn@@6B@					; CRgn::`vftable'
PUBLIC	??_C@_0HD@JJCHHHNK@C?3?2Program?5Files?5?$CIx86?$CJ?2Microsof@ ; `string'
PUBLIC	??_C@_0BP@OIEOKIDM@Exception?5thrown?5in?5destructor@ ; `string'
PUBLIC	??_C@_0BB@HBOOMJBF@?$CFTs?5?$CI?$CFTs?3?$CFd?$CJ?6?$CFTs@ ; `string'
PUBLIC	??_C@_0N@OMEMOKLE@?$CFTs?5?$CI?$CFTs?3?$CFd?$CJ@ ; `string'
PUBLIC	??_R0?AVCObject@@@8				; CObject `RTTI Type Descriptor'
PUBLIC	??_R3CObject@@8					; CObject::`RTTI Class Hierarchy Descriptor'
PUBLIC	??_R2CObject@@8					; CObject::`RTTI Base Class Array'
PUBLIC	??_R1A@?0A@EA@CObject@@8			; CObject::`RTTI Base Class Descriptor at (0,-1,0,64)'
PUBLIC	??_R4CGdiObject@@6B@				; CGdiObject::`RTTI Complete Object Locator'
PUBLIC	??_R0?AVCGdiObject@@@8				; CGdiObject `RTTI Type Descriptor'
PUBLIC	??_R3CGdiObject@@8				; CGdiObject::`RTTI Class Hierarchy Descriptor'
PUBLIC	??_R2CGdiObject@@8				; CGdiObject::`RTTI Base Class Array'
PUBLIC	??_R1A@?0A@EA@CGdiObject@@8			; CGdiObject::`RTTI Base Class Descriptor at (0,-1,0,64)'
PUBLIC	??_R4CRgn@@6B@					; CRgn::`RTTI Complete Object Locator'
PUBLIC	??_R0?AVCRgn@@@8				; CRgn `RTTI Type Descriptor'
PUBLIC	??_R3CRgn@@8					; CRgn::`RTTI Class Hierarchy Descriptor'
PUBLIC	??_R2CRgn@@8					; CRgn::`RTTI Base Class Array'
PUBLIC	??_R1A@?0A@EA@CRgn@@8				; CRgn::`RTTI Base Class Descriptor at (0,-1,0,64)'
PUBLIC	??_7CSignalDraw@@6B@				; CSignalDraw::`vftable'
PUBLIC	??_R4CSignalDraw@@6B@				; CSignalDraw::`RTTI Complete Object Locator'
PUBLIC	??_R0?AVCSignalDraw@@@8				; CSignalDraw `RTTI Type Descriptor'
PUBLIC	??_R3CSignalDraw@@8				; CSignalDraw::`RTTI Class Hierarchy Descriptor'
PUBLIC	??_R2CSignalDraw@@8				; CSignalDraw::`RTTI Base Class Array'
PUBLIC	??_R1A@?0A@EA@CSignalDraw@@8			; CSignalDraw::`RTTI Base Class Descriptor at (0,-1,0,64)'
PUBLIC	??_R1A@?0A@EA@CDraw@@8				; CDraw::`RTTI Base Class Descriptor at (0,-1,0,64)'
PUBLIC	??_R0?AVCDraw@@@8				; CDraw `RTTI Type Descriptor'
PUBLIC	??_R3CDraw@@8					; CDraw::`RTTI Class Hierarchy Descriptor'
PUBLIC	??_R2CDraw@@8					; CDraw::`RTTI Base Class Array'
EXTRN	??3@YAXPAX@Z:PROC				; operator delete
EXTRN	??3@YAXPAXI@Z:PROC				; operator delete
EXTRN	?__global_delete@@YAXPAXI@Z:PROC		; __global_delete
EXTRN	__imp__CreateRectRgn@16:PROC
EXTRN	__imp_??0?$CStringT@DV?$StrTraitMFC_DLL@DV?$ChTraitsCRT@D@ATL@@@@@ATL@@QAE@XZ:PROC
EXTRN	__imp_??1?$CStringT@DV?$StrTraitMFC_DLL@DV?$ChTraitsCRT@D@ATL@@@@@ATL@@QAE@XZ:PROC
EXTRN	__imp_?Compare@?$CStringT@DV?$StrTraitMFC_DLL@DV?$ChTraitsCRT@D@ATL@@@@@ATL@@QBEHPBD@Z:PROC
EXTRN	__imp_?Format@?$CStringT@DV?$StrTraitMFC_DLL@DV?$ChTraitsCRT@D@ATL@@@@@ATL@@QAAXPBDZZ:PROC
EXTRN	?GetRuntimeClass@CGdiObject@@UBEPAUCRuntimeClass@@XZ:PROC ; CGdiObject::GetRuntimeClass
EXTRN	?Attach@CGdiObject@@QAEHPAX@Z:PROC		; CGdiObject::Attach
EXTRN	?DeleteObject@CGdiObject@@QAEHXZ:PROC		; CGdiObject::DeleteObject
EXTRN	??_ECGdiObject@@UAEPAXI@Z:PROC			; CGdiObject::`vector deleting destructor'
EXTRN	?GetRuntimeClass@CRgn@@UBEPAUCRuntimeClass@@XZ:PROC ; CRgn::GetRuntimeClass
EXTRN	??_ECRgn@@UAEPAXI@Z:PROC			; CRgn::`vector deleting destructor'
EXTRN	?SelectClipRgn@CDC@@QAEHPAVCRgn@@@Z:PROC	; CDC::SelectClipRgn
EXTRN	?AfxMessageBox@@YGHPBDII@Z:PROC			; AfxMessageBox
EXTRN	?IsVolumeForSale@IMetaTable@@QAEHABV?$CStringT@DV?$StrTraitMFC_DLL@DV?$ChTraitsCRT@D@ATL@@@@@ATL@@@Z:PROC ; IMetaTable::IsVolumeForSale
EXTRN	??0CDraw@@QAE@XZ:PROC				; CDraw::CDraw
EXTRN	??1CDraw@@UAE@XZ:PROC				; CDraw::~CDraw
EXTRN	?DrawGraph@CDraw@@UAE_NPAVCDC@@ABVCRect@@ABVCDisplayAttributes@@ABVCDrawingGraphData@@ABVCSubGraphData@@@Z:PROC ; CDraw::DrawGraph
EXTRN	?DrawGraph@CDraw@@UAE_NPAVCDC@@ABVCRect@@ABVCDisplayAttributes@@ABVCDrawingGraphData@@ABVCSubGraphData@@ABV?$CStringT@DV?$StrTraitMFC_DLL@DV?$ChTraitsCRT@D@ATL@@@@@ATL@@PAVCXScaleManager@@@Z:PROC ; CDraw::DrawGraph
EXTRN	??0CSelectSubGraph@@QAE@XZ:PROC			; CSelectSubGraph::CSelectSubGraph
EXTRN	??1CSelectSubGraph@@UAE@XZ:PROC			; CSelectSubGraph::~CSelectSubGraph
EXTRN	?PointInSubGraph@CSelectSubGraph@@QAEHABVCPoint@@PBVCSelectSubGraphData@@PAVCIndicatorList@@@Z:PROC ; CSelectSubGraph::PointInSubGraph
EXTRN	?Find@CDrawSingleton@@SAPAVCDraw@@W4GRAPHTYPE@CGraphBaseData@@AAVCGraphStyle@@ABVCDrawingGraphData@@@Z:PROC ; CDrawSingleton::Find
EXTRN	??0CGraphTitleDrawer@@QAE@XZ:PROC		; CGraphTitleDrawer::CGraphTitleDrawer
EXTRN	?DrawGraphTitle@CGraphTitleDrawer@@QAE_NPAVCDC@@ABVCDrawingGraphData@@ABVCSubGraphData@@AAH3@Z:PROC ; CGraphTitleDrawer::DrawGraphTitle
EXTRN	?GetText@CDataInRightScaleRegionDrawer@@QBE_NABVCTextInRightScaleRegionDrawer@@AAV?$CStringT@DV?$StrTraitMFC_DLL@DV?$ChTraitsCRT@D@ATL@@@@@ATL@@111@Z:PROC ; CDataInRightScaleRegionDrawer::GetText
EXTRN	?DrawGraphDatas@CGraphDataDrawer@@QAEXPAVCDC@@ABVCRect@@ABVCDisplayAttributes@@ABVCDrawingGraphData@@ABVCSubGraphData@@@Z:PROC ; CGraphDataDrawer::DrawGraphDatas
EXTRN	?DrawSignal@CSignalDraw@@QAE_NPAVCDC@@ABVCDrawingGraphData@@ABVCDisplayAttributes@@PAVCPacket@@PBV?$CList@NN@@AAVCSignalData@@ABV?$CStringT@DV?$StrTraitMFC_DLL@DV?$ChTraitsCRT@D@ATL@@@@@ATL@@PAVCXScaleManager@@H@Z:PROC ; CSignalDraw::DrawSignal
EXTRN	??_ECSignalDraw@@UAEPAXI@Z:PROC			; CSignalDraw::`vector deleting destructor'
EXTRN	__imp_?GetType@CSubGraphDataBase@@QBE?AW4GRAPHTYPE@CGraphBaseData@@XZ:PROC
EXTRN	__imp_?GetStyle@CSubGraphDataBase@@QBE?AVCGraphStyle@@XZ:PROC
EXTRN	?SetDataEndInBlock@CDisplayAttributes@@QAEXH@Z:PROC ; CDisplayAttributes::SetDataEndInBlock
EXTRN	?GetDataStartInBlock@CDisplayAttributes@@QBEHXZ:PROC ; CDisplayAttributes::GetDataStartInBlock
EXTRN	?GetDataEndInBlock@CDisplayAttributes@@QBEHXZ:PROC ; CDisplayAttributes::GetDataEndInBlock
EXTRN	?GetDrawingRegion@CGraphRegions@@QBE?AVCRect@@W4GRAPHTYPE@CGraphBaseData@@ABVCGraphStyle@@@Z:PROC ; CGraphRegions::GetDrawingRegion
EXTRN	?GetGraphRegions@CDrawingGraphData@@QBEABVCGraphRegions@@XZ:PROC ; CDrawingGraphData::GetGraphRegions
EXTRN	?GetDisplayAttributes@CDrawingGraphData@@QBE?AVCDisplayAttributes@@XZ:PROC ; CDrawingGraphData::GetDisplayAttributes
EXTRN	?GetSubGraphPacketList@CDrawingGraphData@@QBEPAVCSubGraphPacketList@@XZ:PROC ; CDrawingGraphData::GetSubGraphPacketList
EXTRN	??0CGripDraw@@QAE@XZ:PROC			; CGripDraw::CGripDraw
EXTRN	??1CGripDraw@@UAE@XZ:PROC			; CGripDraw::~CGripDraw
EXTRN	?DrawGrip@CGripDraw@@QAE_NPAVCDC@@HABVCSelectSubGraphData@@@Z:PROC ; CGripDraw::DrawGrip
EXTRN	?GetCount@CSubGraphPacketList@@QBEHXZ:PROC	; CSubGraphPacketList::GetCount
EXTRN	?GetHeadPacket@CSubGraphPacketList@@QAEPAVCPacket@@XZ:PROC ; CSubGraphPacketList::GetHeadPacket
EXTRN	?GetSubGraphPacketList@CSubGraphPacketList@@QBEABV?$CList@PAVCPacket@@PAV1@@@XZ:PROC ; CSubGraphPacketList::GetSubGraphPacketList
EXTRN	__imp_?GetName@CPacket@@QAE?AV?$CStringT@DV?$StrTraitMFC_DLL@DV?$ChTraitsCRT@D@ATL@@@@@ATL@@XZ:PROC
EXTRN	__imp_?GetType@CPacket@@QAE?AV?$CStringT@DV?$StrTraitMFC_DLL@DV?$ChTraitsCRT@D@ATL@@@@@ATL@@_N@Z:PROC
EXTRN	__imp_?GetnumericDataList@CPacket@@QAEPAV?$CList@NN@@XZ:PROC
EXTRN	__imp_?GetstrDataList@CPacket@@QAEPAV?$CList@V?$CStringT@DV?$StrTraitMFC_DLL@DV?$ChTraitsCRT@D@ATL@@@@@ATL@@V12@@@XZ:PROC
EXTRN	@__security_check_cookie@4:PROC
EXTRN	___CxxFrameHandler3:PROC
EXTRN	??_7type_info@@6B@:QWORD			; type_info::`vftable'
EXTRN	?g_iMetaTable@@3VIMetaTable@@A:BYTE		; g_iMetaTable
EXTRN	___security_cookie:DWORD
;	COMDAT ??_R2CDraw@@8
rdata$r	SEGMENT
??_R2CDraw@@8 DD FLAT:??_R1A@?0A@EA@CDraw@@8		; CDraw::`RTTI Base Class Array'
rdata$r	ENDS
;	COMDAT ??_R3CDraw@@8
rdata$r	SEGMENT
??_R3CDraw@@8 DD 00H					; CDraw::`RTTI Class Hierarchy Descriptor'
	DD	00H
	DD	01H
	DD	FLAT:??_R2CDraw@@8
rdata$r	ENDS
;	COMDAT ??_R0?AVCDraw@@@8
data$rs	SEGMENT
??_R0?AVCDraw@@@8 DD FLAT:??_7type_info@@6B@		; CDraw `RTTI Type Descriptor'
	DD	00H
	DB	'.?AVCDraw@@', 00H
data$rs	ENDS
;	COMDAT ??_R1A@?0A@EA@CDraw@@8
rdata$r	SEGMENT
??_R1A@?0A@EA@CDraw@@8 DD FLAT:??_R0?AVCDraw@@@8	; CDraw::`RTTI Base Class Descriptor at (0,-1,0,64)'
	DD	00H
	DD	00H
	DD	0ffffffffH
	DD	00H
	DD	040H
	DD	FLAT:??_R3CDraw@@8
rdata$r	ENDS
;	COMDAT ??_R1A@?0A@EA@CSignalDraw@@8
rdata$r	SEGMENT
??_R1A@?0A@EA@CSignalDraw@@8 DD FLAT:??_R0?AVCSignalDraw@@@8 ; CSignalDraw::`RTTI Base Class Descriptor at (0,-1,0,64)'
	DD	01H
	DD	00H
	DD	0ffffffffH
	DD	00H
	DD	040H
	DD	FLAT:??_R3CSignalDraw@@8
rdata$r	ENDS
;	COMDAT ??_R2CSignalDraw@@8
rdata$r	SEGMENT
??_R2CSignalDraw@@8 DD FLAT:??_R1A@?0A@EA@CSignalDraw@@8 ; CSignalDraw::`RTTI Base Class Array'
	DD	FLAT:??_R1A@?0A@EA@CDraw@@8
rdata$r	ENDS
;	COMDAT ??_R3CSignalDraw@@8
rdata$r	SEGMENT
??_R3CSignalDraw@@8 DD 00H				; CSignalDraw::`RTTI Class Hierarchy Descriptor'
	DD	00H
	DD	02H
	DD	FLAT:??_R2CSignalDraw@@8
rdata$r	ENDS
;	COMDAT ??_R0?AVCSignalDraw@@@8
data$rs	SEGMENT
??_R0?AVCSignalDraw@@@8 DD FLAT:??_7type_info@@6B@	; CSignalDraw `RTTI Type Descriptor'
	DD	00H
	DB	'.?AVCSignalDraw@@', 00H
data$rs	ENDS
;	COMDAT ??_R4CSignalDraw@@6B@
rdata$r	SEGMENT
??_R4CSignalDraw@@6B@ DD 00H				; CSignalDraw::`RTTI Complete Object Locator'
	DD	00H
	DD	00H
	DD	FLAT:??_R0?AVCSignalDraw@@@8
	DD	FLAT:??_R3CSignalDraw@@8
rdata$r	ENDS
;	COMDAT ??_7CSignalDraw@@6B@
CONST	SEGMENT
??_7CSignalDraw@@6B@ DD FLAT:??_R4CSignalDraw@@6B@	; CSignalDraw::`vftable'
	DD	FLAT:??_ECSignalDraw@@UAEPAXI@Z
	DD	FLAT:?DrawGraph@CDraw@@UAE_NPAVCDC@@ABVCRect@@ABVCDisplayAttributes@@ABVCDrawingGraphData@@ABVCSubGraphData@@ABV?$CStringT@DV?$StrTraitMFC_DLL@DV?$ChTraitsCRT@D@ATL@@@@@ATL@@PAVCXScaleManager@@@Z
	DD	FLAT:?DrawGraph@CDraw@@UAE_NPAVCDC@@ABVCRect@@ABVCDisplayAttributes@@ABVCDrawingGraphData@@ABVCSubGraphData@@@Z
CONST	ENDS
;	COMDAT ??_R1A@?0A@EA@CRgn@@8
rdata$r	SEGMENT
??_R1A@?0A@EA@CRgn@@8 DD FLAT:??_R0?AVCRgn@@@8		; CRgn::`RTTI Base Class Descriptor at (0,-1,0,64)'
	DD	02H
	DD	00H
	DD	0ffffffffH
	DD	00H
	DD	040H
	DD	FLAT:??_R3CRgn@@8
rdata$r	ENDS
;	COMDAT ??_R2CRgn@@8
rdata$r	SEGMENT
??_R2CRgn@@8 DD	FLAT:??_R1A@?0A@EA@CRgn@@8		; CRgn::`RTTI Base Class Array'
	DD	FLAT:??_R1A@?0A@EA@CGdiObject@@8
	DD	FLAT:??_R1A@?0A@EA@CObject@@8
rdata$r	ENDS
;	COMDAT ??_R3CRgn@@8
rdata$r	SEGMENT
??_R3CRgn@@8 DD	00H					; CRgn::`RTTI Class Hierarchy Descriptor'
	DD	00H
	DD	03H
	DD	FLAT:??_R2CRgn@@8
rdata$r	ENDS
;	COMDAT ??_R0?AVCRgn@@@8
data$rs	SEGMENT
??_R0?AVCRgn@@@8 DD FLAT:??_7type_info@@6B@		; CRgn `RTTI Type Descriptor'
	DD	00H
	DB	'.?AVCRgn@@', 00H
data$rs	ENDS
;	COMDAT ??_R4CRgn@@6B@
rdata$r	SEGMENT
??_R4CRgn@@6B@ DD 00H					; CRgn::`RTTI Complete Object Locator'
	DD	00H
	DD	00H
	DD	FLAT:??_R0?AVCRgn@@@8
	DD	FLAT:??_R3CRgn@@8
rdata$r	ENDS
;	COMDAT ??_R1A@?0A@EA@CGdiObject@@8
rdata$r	SEGMENT
??_R1A@?0A@EA@CGdiObject@@8 DD FLAT:??_R0?AVCGdiObject@@@8 ; CGdiObject::`RTTI Base Class Descriptor at (0,-1,0,64)'
	DD	01H
	DD	00H
	DD	0ffffffffH
	DD	00H
	DD	040H
	DD	FLAT:??_R3CGdiObject@@8
rdata$r	ENDS
;	COMDAT ??_R2CGdiObject@@8
rdata$r	SEGMENT
??_R2CGdiObject@@8 DD FLAT:??_R1A@?0A@EA@CGdiObject@@8	; CGdiObject::`RTTI Base Class Array'
	DD	FLAT:??_R1A@?0A@EA@CObject@@8
rdata$r	ENDS
;	COMDAT ??_R3CGdiObject@@8
rdata$r	SEGMENT
??_R3CGdiObject@@8 DD 00H				; CGdiObject::`RTTI Class Hierarchy Descriptor'
	DD	00H
	DD	02H
	DD	FLAT:??_R2CGdiObject@@8
rdata$r	ENDS
;	COMDAT ??_R0?AVCGdiObject@@@8
data$rs	SEGMENT
??_R0?AVCGdiObject@@@8 DD FLAT:??_7type_info@@6B@	; CGdiObject `RTTI Type Descriptor'
	DD	00H
	DB	'.?AVCGdiObject@@', 00H
data$rs	ENDS
;	COMDAT ??_R4CGdiObject@@6B@
rdata$r	SEGMENT
??_R4CGdiObject@@6B@ DD 00H				; CGdiObject::`RTTI Complete Object Locator'
	DD	00H
	DD	00H
	DD	FLAT:??_R0?AVCGdiObject@@@8
	DD	FLAT:??_R3CGdiObject@@8
rdata$r	ENDS
;	COMDAT ??_R1A@?0A@EA@CObject@@8
rdata$r	SEGMENT
??_R1A@?0A@EA@CObject@@8 DD FLAT:??_R0?AVCObject@@@8	; CObject::`RTTI Base Class Descriptor at (0,-1,0,64)'
	DD	00H
	DD	00H
	DD	0ffffffffH
	DD	00H
	DD	040H
	DD	FLAT:??_R3CObject@@8
rdata$r	ENDS
;	COMDAT ??_R2CObject@@8
rdata$r	SEGMENT
??_R2CObject@@8 DD FLAT:??_R1A@?0A@EA@CObject@@8	; CObject::`RTTI Base Class Array'
rdata$r	ENDS
;	COMDAT ??_R3CObject@@8
rdata$r	SEGMENT
??_R3CObject@@8 DD 00H					; CObject::`RTTI Class Hierarchy Descriptor'
	DD	00H
	DD	01H
	DD	FLAT:??_R2CObject@@8
rdata$r	ENDS
;	COMDAT ??_R0?AVCObject@@@8
data$rs	SEGMENT
??_R0?AVCObject@@@8 DD FLAT:??_7type_info@@6B@		; CObject `RTTI Type Descriptor'
	DD	00H
	DB	'.?AVCObject@@', 00H
data$rs	ENDS
;	COMDAT ??_C@_0N@OMEMOKLE@?$CFTs?5?$CI?$CFTs?3?$CFd?$CJ@
CONST	SEGMENT
??_C@_0N@OMEMOKLE@?$CFTs?5?$CI?$CFTs?3?$CFd?$CJ@ DB '%Ts (%Ts:%d)', 00H ; `string'
CONST	ENDS
;	COMDAT ??_C@_0BB@HBOOMJBF@?$CFTs?5?$CI?$CFTs?3?$CFd?$CJ?6?$CFTs@
CONST	SEGMENT
??_C@_0BB@HBOOMJBF@?$CFTs?5?$CI?$CFTs?3?$CFd?$CJ?6?$CFTs@ DB '%Ts (%Ts:%d'
	DB	')', 0aH, '%Ts', 00H				; `string'
CONST	ENDS
;	COMDAT ??_C@_0BP@OIEOKIDM@Exception?5thrown?5in?5destructor@
CONST	SEGMENT
??_C@_0BP@OIEOKIDM@Exception?5thrown?5in?5destructor@ DB 'Exception throw'
	DB	'n in destructor', 00H			; `string'
CONST	ENDS
;	COMDAT ??_C@_0HD@JJCHHHNK@C?3?2Program?5Files?5?$CIx86?$CJ?2Microsof@
CONST	SEGMENT
??_C@_0HD@JJCHHHNK@C?3?2Program?5Files?5?$CIx86?$CJ?2Microsof@ DB 'C:\Pro'
	DB	'gram Files (x86)\Microsoft Visual Studio\2019\Community\VC\To'
	DB	'ols\MSVC\14.29.30133\atlmfc\include\afxwin1.inl', 00H ; `string'
CONST	ENDS
;	COMDAT ??_7CRgn@@6B@
CONST	SEGMENT
??_7CRgn@@6B@ DD FLAT:??_R4CRgn@@6B@			; CRgn::`vftable'
	DD	FLAT:?GetRuntimeClass@CRgn@@UBEPAUCRuntimeClass@@XZ
	DD	FLAT:??_ECRgn@@UAEPAXI@Z
	DD	FLAT:?Serialize@CObject@@UAEXAAVCArchive@@@Z
	DD	FLAT:?AssertValid@CObject@@UBEXXZ
	DD	FLAT:?Dump@CObject@@UBEXAAVCDumpContext@@@Z
CONST	ENDS
;	COMDAT ??_7CGdiObject@@6B@
CONST	SEGMENT
??_7CGdiObject@@6B@ DD FLAT:??_R4CGdiObject@@6B@	; CGdiObject::`vftable'
	DD	FLAT:?GetRuntimeClass@CGdiObject@@UBEPAUCRuntimeClass@@XZ
	DD	FLAT:??_ECGdiObject@@UAEPAXI@Z
	DD	FLAT:?Serialize@CObject@@UAEXAAVCArchive@@@Z
	DD	FLAT:?AssertValid@CObject@@UBEXXZ
	DD	FLAT:?Dump@CObject@@UBEXAAVCDumpContext@@@Z
CONST	ENDS
;	COMDAT ??_R0PAVCException@@@8
data$r	SEGMENT
??_R0PAVCException@@@8 DD FLAT:??_7type_info@@6B@	; CException * `RTTI Type Descriptor'
	DD	00H
	DB	'.PAVCException@@', 00H
data$r	ENDS
;	COMDAT xdata$x
xdata$x	SEGMENT
__unwindtable$?GetDisplayDataEnd@CGraphDrawerImplementation@@ABEHABW4GRAPHTYPE@CGraphBaseData@@HABV?$CList@PAVCPacket@@PAV1@@@@Z DD 0ffffffffH
	DD	FLAT:__unwindfunclet$?GetDisplayDataEnd@CGraphDrawerImplementation@@ABEHABW4GRAPHTYPE@CGraphBaseData@@HABV?$CList@PAVCPacket@@PAV1@@@@Z$0
	DD	0ffffffffH
	DD	FLAT:__unwindfunclet$?GetDisplayDataEnd@CGraphDrawerImplementation@@ABEHABW4GRAPHTYPE@CGraphBaseData@@HABV?$CList@PAVCPacket@@PAV1@@@@Z$1
__ehfuncinfo$?GetDisplayDataEnd@CGraphDrawerImplementation@@ABEHABW4GRAPHTYPE@CGraphBaseData@@HABV?$CList@PAVCPacket@@PAV1@@@@Z DD 019930522H
	DD	02H
	DD	FLAT:__unwindtable$?GetDisplayDataEnd@CGraphDrawerImplementation@@ABEHABW4GRAPHTYPE@CGraphBaseData@@HABV?$CList@PAVCPacket@@PAV1@@@@Z
	DD	2 DUP(00H)
	DD	2 DUP(00H)
	DD	00H
	DD	01H
xdata$x	ENDS
;	COMDAT xdata$x
xdata$x	SEGMENT
__unwindtable$?PointInSubGraph@CGraphDrawerImplementation@@QAEHABVCPoint@@ABVCSelectSubGraphData@@PAVCIndicatorList@@@Z DD 0ffffffffH
	DD	FLAT:__unwindfunclet$?PointInSubGraph@CGraphDrawerImplementation@@QAEHABVCPoint@@ABVCSelectSubGraphData@@PAVCIndicatorList@@@Z$0
__ehfuncinfo$?PointInSubGraph@CGraphDrawerImplementation@@QAEHABVCPoint@@ABVCSelectSubGraphData@@PAVCIndicatorList@@@Z DD 019930522H
	DD	01H
	DD	FLAT:__unwindtable$?PointInSubGraph@CGraphDrawerImplementation@@QAEHABVCPoint@@ABVCSelectSubGraphData@@PAVCIndicatorList@@@Z
	DD	2 DUP(00H)
	DD	2 DUP(00H)
	DD	00H
	DD	01H
xdata$x	ENDS
;	COMDAT xdata$x
xdata$x	SEGMENT
__unwindtable$?DrawGrip@CGraphDrawerImplementation@@QAE_NPAVCDC@@HABVCSelectSubGraphData@@@Z DD 0ffffffffH
	DD	FLAT:__unwindfunclet$?DrawGrip@CGraphDrawerImplementation@@QAE_NPAVCDC@@HABVCSelectSubGraphData@@@Z$0
__ehfuncinfo$?DrawGrip@CGraphDrawerImplementation@@QAE_NPAVCDC@@HABVCSelectSubGraphData@@@Z DD 019930522H
	DD	01H
	DD	FLAT:__unwindtable$?DrawGrip@CGraphDrawerImplementation@@QAE_NPAVCDC@@HABVCSelectSubGraphData@@@Z
	DD	2 DUP(00H)
	DD	2 DUP(00H)
	DD	00H
	DD	01H
xdata$x	ENDS
;	COMDAT xdata$x
xdata$x	SEGMENT
__unwindtable$?DrawSignal@CGraphDrawerImplementation@@QAEXPAVCDC@@ABVCDrawingGraphData@@PBV?$CList@NN@@AAVCSignalData@@ABV?$CStringT@DV?$StrTraitMFC_DLL@DV?$ChTraitsCRT@D@ATL@@@@@ATL@@PAVCXScaleManager@@@Z DD 0ffffffffH
	DD	FLAT:__unwindfunclet$?DrawSignal@CGraphDrawerImplementation@@QAEXPAVCDC@@ABVCDrawingGraphData@@PBV?$CList@NN@@AAVCSignalData@@ABV?$CStringT@DV?$StrTraitMFC_DLL@DV?$ChTraitsCRT@D@ATL@@@@@ATL@@PAVCXScaleManager@@@Z$0
	DD	00H
	DD	FLAT:__unwindfunclet$?DrawSignal@CGraphDrawerImplementation@@QAEXPAVCDC@@ABVCDrawingGraphData@@PBV?$CList@NN@@AAVCSignalData@@ABV?$CStringT@DV?$StrTraitMFC_DLL@DV?$ChTraitsCRT@D@ATL@@@@@ATL@@PAVCXScaleManager@@@Z$1
__ehfuncinfo$?DrawSignal@CGraphDrawerImplementation@@QAEXPAVCDC@@ABVCDrawingGraphData@@PBV?$CList@NN@@AAVCSignalData@@ABV?$CStringT@DV?$StrTraitMFC_DLL@DV?$ChTraitsCRT@D@ATL@@@@@ATL@@PAVCXScaleManager@@@Z DD 019930522H
	DD	02H
	DD	FLAT:__unwindtable$?DrawSignal@CGraphDrawerImplementation@@QAEXPAVCDC@@ABVCDrawingGraphData@@PBV?$CList@NN@@AAVCSignalData@@ABV?$CStringT@DV?$StrTraitMFC_DLL@DV?$ChTraitsCRT@D@ATL@@@@@ATL@@PAVCXScaleManager@@@Z
	DD	2 DUP(00H)
	DD	2 DUP(00H)
	DD	00H
	DD	01H
xdata$x	ENDS
;	COMDAT xdata$x
xdata$x	SEGMENT
__unwindtable$?DrawGraph@CGraphDrawerImplementation@@QAE_NPAVCDC@@ABVCDrawingGraphData@@ABVCSubGraphData@@ABV?$CStringT@DV?$StrTraitMFC_DLL@DV?$ChTraitsCRT@D@ATL@@@@@ATL@@PAVCXScaleManager@@@Z DD 0ffffffffH
	DD	FLAT:__unwindfunclet$?DrawGraph@CGraphDrawerImplementation@@QAE_NPAVCDC@@ABVCDrawingGraphData@@ABVCSubGraphData@@ABV?$CStringT@DV?$StrTraitMFC_DLL@DV?$ChTraitsCRT@D@ATL@@@@@ATL@@PAVCXScaleManager@@@Z$0
	DD	00H
	DD	FLAT:__unwindfunclet$?DrawGraph@CGraphDrawerImplementation@@QAE_NPAVCDC@@ABVCDrawingGraphData@@ABVCSubGraphData@@ABV?$CStringT@DV?$StrTraitMFC_DLL@DV?$ChTraitsCRT@D@ATL@@@@@ATL@@PAVCXScaleManager@@@Z$1
	DD	00H
	DD	FLAT:__unwindfunclet$?DrawGraph@CGraphDrawerImplementation@@QAE_NPAVCDC@@ABVCDrawingGraphData@@ABVCSubGraphData@@ABV?$CStringT@DV?$StrTraitMFC_DLL@DV?$ChTraitsCRT@D@ATL@@@@@ATL@@PAVCXScaleManager@@@Z$2
__ehfuncinfo$?DrawGraph@CGraphDrawerImplementation@@QAE_NPAVCDC@@ABVCDrawingGraphData@@ABVCSubGraphData@@ABV?$CStringT@DV?$StrTraitMFC_DLL@DV?$ChTraitsCRT@D@ATL@@@@@ATL@@PAVCXScaleManager@@@Z DD 019930522H
	DD	03H
	DD	FLAT:__unwindtable$?DrawGraph@CGraphDrawerImplementation@@QAE_NPAVCDC@@ABVCDrawingGraphData@@ABVCSubGraphData@@ABV?$CStringT@DV?$StrTraitMFC_DLL@DV?$ChTraitsCRT@D@ATL@@@@@ATL@@PAVCXScaleManager@@@Z
	DD	2 DUP(00H)
	DD	2 DUP(00H)
	DD	00H
	DD	01H
xdata$x	ENDS
;	COMDAT xdata$x
xdata$x	SEGMENT
__unwindtable$?DrawGraphTitle@CGraphDrawerImplementation@@QAE_NPAVCDC@@ABVCDrawingGraphData@@ABVCSubGraphData@@AAH3@Z DD 0ffffffffH
	DD	FLAT:__unwindfunclet$?DrawGraphTitle@CGraphDrawerImplementation@@QAE_NPAVCDC@@ABVCDrawingGraphData@@ABVCSubGraphData@@AAH3@Z$0
__ehfuncinfo$?DrawGraphTitle@CGraphDrawerImplementation@@QAE_NPAVCDC@@ABVCDrawingGraphData@@ABVCSubGraphData@@AAH3@Z DD 019930522H
	DD	01H
	DD	FLAT:__unwindtable$?DrawGraphTitle@CGraphDrawerImplementation@@QAE_NPAVCDC@@ABVCDrawingGraphData@@ABVCSubGraphData@@AAH3@Z
	DD	2 DUP(00H)
	DD	2 DUP(00H)
	DD	00H
	DD	01H
xdata$x	ENDS
;	COMDAT xdata$x
xdata$x	SEGMENT
__catchsym$??1CGdiObject@@UAE@XZ$3 DD 00H
	DD	FLAT:??_R0PAVCException@@@8
	DD	0fffffde4H
	DD	FLAT:__catch$??1CGdiObject@@UAE@XZ$0
__tryblocktable$??1CGdiObject@@UAE@XZ DD 00H
	DD	00H
	DD	02H
	DD	01H
	DD	FLAT:__catchsym$??1CGdiObject@@UAE@XZ$3
__unwindtable$??1CGdiObject@@UAE@XZ DD 0ffffffffH
	DD	00H
	DD	0ffffffffH
	DD	00H
	DD	01H
	DD	FLAT:__unwindfunclet$??1CGdiObject@@UAE@XZ$2
__ehfuncinfo$??1CGdiObject@@UAE@XZ DD 019930522H
	DD	03H
	DD	FLAT:__unwindtable$??1CGdiObject@@UAE@XZ
	DD	01H
	DD	FLAT:__tryblocktable$??1CGdiObject@@UAE@XZ
	DD	2 DUP(00H)
	DD	00H
	DD	05H
xdata$x	ENDS
; Function compile flags: /Ogtp
;	COMDAT ??4CGraphDrawer@@QAEAAV0@$$QAV0@@Z
_TEXT	SEGMENT
___that$ = 8						; size = 4
??4CGraphDrawer@@QAEAAV0@$$QAV0@@Z PROC			; CGraphDrawer::operator=, COMDAT
; _this$ = ecx
  00000	8b c1		 mov	 eax, ecx
  00002	c2 04 00	 ret	 4
??4CGraphDrawer@@QAEAAV0@$$QAV0@@Z ENDP			; CGraphDrawer::operator=
_TEXT	ENDS
; Function compile flags: /Ogtp
;	COMDAT ??4CGraphDrawer@@QAEAAV0@ABV0@@Z
_TEXT	SEGMENT
___that$ = 8						; size = 4
??4CGraphDrawer@@QAEAAV0@ABV0@@Z PROC			; CGraphDrawer::operator=, COMDAT
; _this$ = ecx
  00000	8b c1		 mov	 eax, ecx
  00002	c2 04 00	 ret	 4
??4CGraphDrawer@@QAEAAV0@ABV0@@Z ENDP			; CGraphDrawer::operator=
_TEXT	ENDS
; Function compile flags: /Ogtp
;	COMDAT ??_GCSignalDraw@@UAEPAXI@Z
_TEXT	SEGMENT
___flags$ = 8						; size = 4
??_GCSignalDraw@@UAEPAXI@Z PROC				; CSignalDraw::`scalar deleting destructor', COMDAT
; _this$ = ecx
  00000	55		 push	 ebp
  00001	8b ec		 mov	 ebp, esp
  00003	56		 push	 esi
  00004	8b f1		 mov	 esi, ecx
  00006	e8 00 00 00 00	 call	 ??1CDraw@@UAE@XZ	; CDraw::~CDraw
  0000b	f6 45 08 01	 test	 BYTE PTR ___flags$[ebp], 1
  0000f	74 0b		 je	 SHORT $LN7@scalar
  00011	6a 28		 push	 40			; 00000028H
  00013	56		 push	 esi
  00014	e8 00 00 00 00	 call	 ??3@YAXPAXI@Z		; operator delete
  00019	83 c4 08	 add	 esp, 8
$LN7@scalar:
  0001c	8b c6		 mov	 eax, esi
  0001e	5e		 pop	 esi
  0001f	5d		 pop	 ebp
  00020	c2 04 00	 ret	 4
??_GCSignalDraw@@UAEPAXI@Z ENDP				; CSignalDraw::`scalar deleting destructor'
_TEXT	ENDS
; Function compile flags: /Ogtp
;	COMDAT ??1CSignalDraw@@UAE@XZ
_TEXT	SEGMENT
??1CSignalDraw@@UAE@XZ PROC				; CSignalDraw::~CSignalDraw, COMDAT
; _this$ = ecx
  00000	e9 00 00 00 00	 jmp	 ??1CDraw@@UAE@XZ	; CDraw::~CDraw
??1CSignalDraw@@UAE@XZ ENDP				; CSignalDraw::~CSignalDraw
_TEXT	ENDS
; Function compile flags: /Ogtp
;	COMDAT ??1CGraphTitleDrawer@@QAE@XZ
_TEXT	SEGMENT
??1CGraphTitleDrawer@@QAE@XZ PROC			; CGraphTitleDrawer::~CGraphTitleDrawer, COMDAT
; _this$ = ecx
  00000	56		 push	 esi
  00001	8b f1		 mov	 esi, ecx
  00003	8d 4e 04	 lea	 ecx, DWORD PTR [esi+4]
  00006	ff 15 00 00 00
	00		 call	 DWORD PTR __imp_??1?$CStringT@DV?$StrTraitMFC_DLL@DV?$ChTraitsCRT@D@ATL@@@@@ATL@@QAE@XZ
  0000c	8b ce		 mov	 ecx, esi
  0000e	5e		 pop	 esi
  0000f	ff 25 00 00 00
	00		 jmp	 DWORD PTR __imp_??1?$CStringT@DV?$StrTraitMFC_DLL@DV?$ChTraitsCRT@D@ATL@@@@@ATL@@QAE@XZ
??1CGraphTitleDrawer@@QAE@XZ ENDP			; CGraphTitleDrawer::~CGraphTitleDrawer
_TEXT	ENDS
; Function compile flags: /Ogtp
; File D:\git\src\IBK\IBK_DRFN\ProjSrc\SrcChartEx\ChartOCX\GraphDraw\GraphDrawerImplementation.cpp
;	COMDAT ?GetDisplayAttributes@CGraphDrawerImplementation@@ABE_NABVCSubGraphData@@HAAVCDisplayAttributes@@@Z
_TEXT	SEGMENT
$T1 = -4						; size = 4
_subGraphData$ = 8					; size = 4
_nDataEnd$ = 12						; size = 4
_displayAttributes$ = 16				; size = 4
?GetDisplayAttributes@CGraphDrawerImplementation@@ABE_NABVCSubGraphData@@HAAVCDisplayAttributes@@@Z PROC ; CGraphDrawerImplementation::GetDisplayAttributes, COMDAT
; _this$ = ecx

; 173  : {

  00000	55		 push	 ebp
  00001	8b ec		 mov	 ebp, esp
  00003	51		 push	 ecx

; 174  : 	if(subGraphData.GetType() != CGraphBaseData::Bar_Type)

  00004	8b 4d 08	 mov	 ecx, DWORD PTR _subGraphData$[ebp]
  00007	ff 15 00 00 00
	00		 call	 DWORD PTR __imp_?GetType@CSubGraphDataBase@@QBE?AW4GRAPHTYPE@CGraphBaseData@@XZ
  0000d	83 f8 02	 cmp	 eax, 2
  00010	75 25		 jne	 SHORT $LN5@GetDisplay

; 175  : 		return false;
; 176  : 
; 177  : 	// <Bar_Type>의 <FixedRateCombBar : 고정비율빗형식> 일 경우만 RealEnd 값으로 변경한다.
; 178  : 	if(subGraphData.GetStyle().GetGraphBarStyle() != CGraphBaseData::FixedRateCombBar)

  00012	8b 4d 08	 mov	 ecx, DWORD PTR _subGraphData$[ebp]
  00015	8d 45 fc	 lea	 eax, DWORD PTR $T1[ebp]
  00018	50		 push	 eax
  00019	ff 15 00 00 00
	00		 call	 DWORD PTR __imp_?GetStyle@CSubGraphDataBase@@QBE?AVCGraphStyle@@XZ
  0001f	83 38 0e	 cmp	 DWORD PTR [eax], 14	; 0000000eH
  00022	75 13		 jne	 SHORT $LN5@GetDisplay

; 180  : 
; 181  : 	displayAttributes.SetDataEndInBlock(nDataEnd);

  00024	ff 75 0c	 push	 DWORD PTR _nDataEnd$[ebp]
  00027	8b 4d 10	 mov	 ecx, DWORD PTR _displayAttributes$[ebp]
  0002a	e8 00 00 00 00	 call	 ?SetDataEndInBlock@CDisplayAttributes@@QAEXH@Z ; CDisplayAttributes::SetDataEndInBlock

; 182  : 	return true;

  0002f	b0 01		 mov	 al, 1

; 183  : }

  00031	8b e5		 mov	 esp, ebp
  00033	5d		 pop	 ebp
  00034	c2 0c 00	 ret	 12			; 0000000cH
$LN5@GetDisplay:

; 179  : 		return false;

  00037	32 c0		 xor	 al, al

; 183  : }

  00039	8b e5		 mov	 esp, ebp
  0003b	5d		 pop	 ebp
  0003c	c2 0c 00	 ret	 12			; 0000000cH
?GetDisplayAttributes@CGraphDrawerImplementation@@ABE_NABVCSubGraphData@@HAAVCDisplayAttributes@@@Z ENDP ; CGraphDrawerImplementation::GetDisplayAttributes
_TEXT	ENDS
; Function compile flags: /Ogtp
; File D:\git\src\IBK\IBK_DRFN\ProjSrc\SrcChartEx\ChartOCX\GraphDraw\GraphDrawerImplementation.cpp
; File C:\Program Files (x86)\Microsoft Visual Studio\2019\Community\VC\Tools\MSVC\14.29.30133\atlmfc\include\afxtempl.h
; File D:\git\src\IBK\IBK_DRFN\ProjSrc\SrcChartEx\ChartOCX\GraphDraw\GraphDrawerImplementation.cpp
; File C:\Program Files (x86)\Microsoft Visual Studio\2019\Community\VC\Tools\MSVC\14.29.30133\atlmfc\include\cstringt.h
; File D:\git\src\IBK\IBK_DRFN\ProjSrc\SrcChartEx\ChartOCX\GraphDraw\GraphDrawerImplementation.cpp
; File C:\Program Files (x86)\Microsoft Visual Studio\2019\Community\VC\Tools\MSVC\14.29.30133\atlmfc\include\cstringt.h
; File D:\git\src\IBK\IBK_DRFN\ProjSrc\SrcChartEx\ChartOCX\GraphDraw\GraphDrawerImplementation.cpp
;	COMDAT ?GetDisplayDataEnd@CGraphDrawerImplementation@@ABEHABW4GRAPHTYPE@CGraphBaseData@@HABV?$CList@PAVCPacket@@PAV1@@@@Z
_TEXT	SEGMENT
_pos$1$ = -28						; size = 4
$T2 = -24						; size = 4
$T3 = -20						; size = 4
_nMaxDataCount$1$ = -16					; size = 4
__$EHRec$ = -12						; size = 12
_eGraphType$ = 8					; size = 4
$T4 = 11						; size = 1
_nOrgEnd$ = 12						; size = 4
$T5 = 16						; size = 4
_PacketList$ = 16					; size = 4
?GetDisplayDataEnd@CGraphDrawerImplementation@@ABEHABW4GRAPHTYPE@CGraphBaseData@@HABV?$CList@PAVCPacket@@PAV1@@@@Z PROC ; CGraphDrawerImplementation::GetDisplayDataEnd, COMDAT
; _this$ = ecx

; 139  : {

  00000	55		 push	 ebp
  00001	8b ec		 mov	 ebp, esp
  00003	6a ff		 push	 -1
  00005	68 00 00 00 00	 push	 __ehhandler$?GetDisplayDataEnd@CGraphDrawerImplementation@@ABEHABW4GRAPHTYPE@CGraphBaseData@@HABV?$CList@PAVCPacket@@PAV1@@@@Z
  0000a	64 a1 00 00 00
	00		 mov	 eax, DWORD PTR fs:0
  00010	50		 push	 eax
  00011	83 ec 10	 sub	 esp, 16			; 00000010H
  00014	53		 push	 ebx
  00015	56		 push	 esi
  00016	57		 push	 edi
  00017	a1 00 00 00 00	 mov	 eax, DWORD PTR ___security_cookie
  0001c	33 c5		 xor	 eax, ebp
  0001e	50		 push	 eax
  0001f	8d 45 f4	 lea	 eax, DWORD PTR __$EHRec$[ebp]
  00022	64 a3 00 00 00
	00		 mov	 DWORD PTR fs:0, eax

; 140  : 	if(eGraphType == CGraphBaseData::Special_Type || eGraphType == CGraphBaseData::FuOp_Type)

  00028	8b 45 08	 mov	 eax, DWORD PTR _eGraphType$[ebp]
  0002b	33 db		 xor	 ebx, ebx
  0002d	89 5d ec	 mov	 DWORD PTR $T3[ebp], ebx
  00030	8b 00		 mov	 eax, DWORD PTR [eax]
  00032	83 f8 04	 cmp	 eax, 4
  00035	0f 84 35 01 00
	00		 je	 $LN5@GetDisplay
  0003b	83 f8 07	 cmp	 eax, 7
  0003e	0f 84 2c 01 00
	00		 je	 $LN5@GetDisplay

; 142  : 
; 143  : 	int nMaxDataCount = 0;
; 144  : 	POSITION pos = PacketList.GetHeadPosition();

  00044	8b 45 10	 mov	 eax, DWORD PTR _PacketList$[ebp]
  00047	33 d2		 xor	 edx, edx
  00049	89 55 f0	 mov	 DWORD PTR _nMaxDataCount$1$[ebp], edx
  0004c	8b 48 04	 mov	 ecx, DWORD PTR [eax+4]

; 145  : 	while(pos != NULL){

  0004f	85 c9		 test	 ecx, ecx
  00051	0f 84 cc 00 00
	00		 je	 $LN3@GetDisplay
$LL2@GetDisplay:

; 146  : 		CPacket* pPacket = PacketList.GetNext(pos);

  00057	8b 79 08	 mov	 edi, DWORD PTR [ecx+8]
; File C:\Program Files (x86)\Microsoft Visual Studio\2019\Community\VC\Tools\MSVC\14.29.30133\atlmfc\include\afxtempl.h

; 819  : 		rPosition = (POSITION) pNode->pNext;

  0005a	8b 09		 mov	 ecx, DWORD PTR [ecx]
  0005c	89 4d e4	 mov	 DWORD PTR _pos$1$[ebp], ecx
; File D:\git\src\IBK\IBK_DRFN\ProjSrc\SrcChartEx\ChartOCX\GraphDraw\GraphDrawerImplementation.cpp

; 147  : 		if(pPacket == NULL)

  0005f	85 ff		 test	 edi, edi
  00061	0f 84 f2 00 00
	00		 je	 $LN23@GetDisplay

; 151  : 		if(pPacket->GetType() == _MTEXT( C6_CHARACTER))

  00067	6a 01		 push	 1
  00069	8d 45 10	 lea	 eax, DWORD PTR $T5[ebp]
  0006c	8b cf		 mov	 ecx, edi
  0006e	50		 push	 eax
  0006f	ff 15 00 00 00
	00		 call	 DWORD PTR __imp_?GetType@CPacket@@QAE?AV?$CStringT@DV?$StrTraitMFC_DLL@DV?$ChTraitsCRT@D@ATL@@@@@ATL@@_N@Z
  00075	8b 0d 54 00 00
	00		 mov	 ecx, DWORD PTR ?g_iMetaTable@@3VIMetaTable@@A+84
  0007b	c7 45 fc 00 00
	00 00		 mov	 DWORD PTR __$EHRec$[ebp+8], 0
; File C:\Program Files (x86)\Microsoft Visual Studio\2019\Community\VC\Tools\MSVC\14.29.30133\atlmfc\include\cstringt.h

; 2486 : 		return(str1.Compare(psz2) == 0);

  00082	ff b1 60 09 00
	00		 push	 DWORD PTR [ecx+2400]
  00088	8b c8		 mov	 ecx, eax
  0008a	ff 15 00 00 00
	00		 call	 DWORD PTR __imp_?Compare@?$CStringT@DV?$StrTraitMFC_DLL@DV?$ChTraitsCRT@D@ATL@@@@@ATL@@QBEHPBD@Z
; File D:\git\src\IBK\IBK_DRFN\ProjSrc\SrcChartEx\ChartOCX\GraphDraw\GraphDrawerImplementation.cpp

; 151  : 		if(pPacket->GetType() == _MTEXT( C6_CHARACTER))

  00090	8d 4d 10	 lea	 ecx, DWORD PTR $T5[ebp]
  00093	c7 45 fc ff ff
	ff ff		 mov	 DWORD PTR __$EHRec$[ebp+8], -1
; File C:\Program Files (x86)\Microsoft Visual Studio\2019\Community\VC\Tools\MSVC\14.29.30133\atlmfc\include\cstringt.h

; 2486 : 		return(str1.Compare(psz2) == 0);

  0009a	8b f0		 mov	 esi, eax
; File D:\git\src\IBK\IBK_DRFN\ProjSrc\SrcChartEx\ChartOCX\GraphDraw\GraphDrawerImplementation.cpp

; 151  : 		if(pPacket->GetType() == _MTEXT( C6_CHARACTER))

  0009c	ff 15 00 00 00
	00		 call	 DWORD PTR __imp_??1?$CStringT@DV?$StrTraitMFC_DLL@DV?$ChTraitsCRT@D@ATL@@@@@ATL@@QAE@XZ
  000a2	8b cf		 mov	 ecx, edi
  000a4	85 f6		 test	 esi, esi
  000a6	75 08		 jne	 SHORT $LN7@GetDisplay

; 152  : 			nDataCount = pPacket->GetstrDataList()->GetCount();

  000a8	ff 15 00 00 00
	00		 call	 DWORD PTR __imp_?GetstrDataList@CPacket@@QAEPAV?$CList@V?$CStringT@DV?$StrTraitMFC_DLL@DV?$ChTraitsCRT@D@ATL@@@@@ATL@@V12@@@XZ
  000ae	eb 06		 jmp	 SHORT $LN28@GetDisplay
$LN7@GetDisplay:

; 153  : 		else
; 154  : 			nDataCount = pPacket->GetnumericDataList()->GetCount();

  000b0	ff 15 00 00 00
	00		 call	 DWORD PTR __imp_?GetnumericDataList@CPacket@@QAEPAV?$CList@NN@@XZ
$LN28@GetDisplay:

; 155  : 
; 156  : 		// "대기매물" 일 경우
; 157  : // (2006.12.06) Seunghwan Ahn
; 158  : 		if( g_iMetaTable.IsVolumeForSale(pPacket->GetName()) && nDataCount >= 2)

  000b6	8b 70 0c	 mov	 esi, DWORD PTR [eax+12]
  000b9	8b cf		 mov	 ecx, edi
  000bb	8d 45 e8	 lea	 eax, DWORD PTR $T2[ebp]
  000be	50		 push	 eax
  000bf	ff 15 00 00 00
	00		 call	 DWORD PTR __imp_?GetName@CPacket@@QAE?AV?$CStringT@DV?$StrTraitMFC_DLL@DV?$ChTraitsCRT@D@ATL@@@@@ATL@@XZ
  000c5	83 cb 01	 or	 ebx, 1
  000c8	c7 45 fc 01 00
	00 00		 mov	 DWORD PTR __$EHRec$[ebp+8], 1
  000cf	50		 push	 eax
  000d0	b9 00 00 00 00	 mov	 ecx, OFFSET ?g_iMetaTable@@3VIMetaTable@@A ; g_iMetaTable
  000d5	89 5d ec	 mov	 DWORD PTR $T3[ebp], ebx
  000d8	e8 00 00 00 00	 call	 ?IsVolumeForSale@IMetaTable@@QAEHABV?$CStringT@DV?$StrTraitMFC_DLL@DV?$ChTraitsCRT@D@ATL@@@@@ATL@@@Z ; IMetaTable::IsVolumeForSale
  000dd	85 c0		 test	 eax, eax
  000df	74 09		 je	 SHORT $LN12@GetDisplay
  000e1	c6 45 0b 01	 mov	 BYTE PTR $T4[ebp], 1
  000e5	83 fe 02	 cmp	 esi, 2
  000e8	7d 04		 jge	 SHORT $LN13@GetDisplay
$LN12@GetDisplay:
  000ea	c6 45 0b 00	 mov	 BYTE PTR $T4[ebp], 0
$LN13@GetDisplay:
  000ee	c7 45 fc ff ff
	ff ff		 mov	 DWORD PTR __$EHRec$[ebp+8], -1
  000f5	f6 c3 01	 test	 bl, 1
  000f8	74 0c		 je	 SHORT $LN17@GetDisplay
  000fa	8d 4d e8	 lea	 ecx, DWORD PTR $T2[ebp]
  000fd	83 e3 fe	 and	 ebx, -2			; fffffffeH
  00100	ff 15 00 00 00
	00		 call	 DWORD PTR __imp_??1?$CStringT@DV?$StrTraitMFC_DLL@DV?$ChTraitsCRT@D@ATL@@@@@ATL@@QAE@XZ
$LN17@GetDisplay:
  00106	80 7d 0b 00	 cmp	 BYTE PTR $T4[ebp], 0
  0010a	75 36		 jne	 SHORT $LN24@GetDisplay

; 145  : 	while(pos != NULL){

  0010c	3b 75 f0	 cmp	 esi, DWORD PTR _nMaxDataCount$1$[ebp]
  0010f	8b 4d e4	 mov	 ecx, DWORD PTR _pos$1$[ebp]
  00112	0f 4e 75 f0	 cmovle	 esi, DWORD PTR _nMaxDataCount$1$[ebp]
  00116	89 75 f0	 mov	 DWORD PTR _nMaxDataCount$1$[ebp], esi
  00119	8b d6		 mov	 edx, esi
  0011b	85 c9		 test	 ecx, ecx
  0011d	0f 85 34 ff ff
	ff		 jne	 $LL2@GetDisplay
$LN3@GetDisplay:

; 162  : 
; 163  : 		if(nDataCount > nMaxDataCount)
; 164  : 			nMaxDataCount = nDataCount;
; 165  : 	}
; 166  : 
; 167  : 	int nDataEndIndex = nMaxDataCount -1;
; 168  : 	return (nDataEndIndex < nOrgEnd ? nDataEndIndex : nOrgEnd);

  00123	8b 45 0c	 mov	 eax, DWORD PTR _nOrgEnd$[ebp]
  00126	8d 4a ff	 lea	 ecx, DWORD PTR [edx-1]
  00129	3b c8		 cmp	 ecx, eax
  0012b	0f 4c c1	 cmovl	 eax, ecx

; 169  : }

  0012e	8b 4d f4	 mov	 ecx, DWORD PTR __$EHRec$[ebp]
  00131	64 89 0d 00 00
	00 00		 mov	 DWORD PTR fs:0, ecx
  00138	59		 pop	 ecx
  00139	5f		 pop	 edi
  0013a	5e		 pop	 esi
  0013b	5b		 pop	 ebx
  0013c	8b e5		 mov	 esp, ebp
  0013e	5d		 pop	 ebp
  0013f	c2 0c 00	 ret	 12			; 0000000cH
$LN24@GetDisplay:

; 159  : // (2006.12.06) Seunghwan Ahn
; 160  : //		if(pPacket->GetName() == _MTEXT( C2_OVERHANGING_SUPPLY) && nDataCount >= 2)
; 161  : 			return (nDataCount - 2);

  00142	8d 46 fe	 lea	 eax, DWORD PTR [esi-2]

; 169  : }

  00145	8b 4d f4	 mov	 ecx, DWORD PTR __$EHRec$[ebp]
  00148	64 89 0d 00 00
	00 00		 mov	 DWORD PTR fs:0, ecx
  0014f	59		 pop	 ecx
  00150	5f		 pop	 edi
  00151	5e		 pop	 esi
  00152	5b		 pop	 ebx
  00153	8b e5		 mov	 esp, ebp
  00155	5d		 pop	 ebp
  00156	c2 0c 00	 ret	 12			; 0000000cH
$LN23@GetDisplay:

; 148  : 			return -1;

  00159	83 c8 ff	 or	 eax, -1

; 169  : }

  0015c	8b 4d f4	 mov	 ecx, DWORD PTR __$EHRec$[ebp]
  0015f	64 89 0d 00 00
	00 00		 mov	 DWORD PTR fs:0, ecx
  00166	59		 pop	 ecx
  00167	5f		 pop	 edi
  00168	5e		 pop	 esi
  00169	5b		 pop	 ebx
  0016a	8b e5		 mov	 esp, ebp
  0016c	5d		 pop	 ebp
  0016d	c2 0c 00	 ret	 12			; 0000000cH
$LN5@GetDisplay:

; 141  : 		return nOrgEnd;

  00170	8b 45 0c	 mov	 eax, DWORD PTR _nOrgEnd$[ebp]

; 169  : }

  00173	8b 4d f4	 mov	 ecx, DWORD PTR __$EHRec$[ebp]
  00176	64 89 0d 00 00
	00 00		 mov	 DWORD PTR fs:0, ecx
  0017d	59		 pop	 ecx
  0017e	5f		 pop	 edi
  0017f	5e		 pop	 esi
  00180	5b		 pop	 ebx
  00181	8b e5		 mov	 esp, ebp
  00183	5d		 pop	 ebp
  00184	c2 0c 00	 ret	 12			; 0000000cH
_TEXT	ENDS
;	COMDAT text$x
text$x	SEGMENT
__unwindfunclet$?GetDisplayDataEnd@CGraphDrawerImplementation@@ABEHABW4GRAPHTYPE@CGraphBaseData@@HABV?$CList@PAVCPacket@@PAV1@@@@Z$0:
  00000	8d 4d 10	 lea	 ecx, DWORD PTR $T5[ebp]
  00003	ff 25 00 00 00
	00		 jmp	 DWORD PTR __imp_??1?$CStringT@DV?$StrTraitMFC_DLL@DV?$ChTraitsCRT@D@ATL@@@@@ATL@@QAE@XZ
__unwindfunclet$?GetDisplayDataEnd@CGraphDrawerImplementation@@ABEHABW4GRAPHTYPE@CGraphBaseData@@HABV?$CList@PAVCPacket@@PAV1@@@@Z$1:
  00009	8b 45 ec	 mov	 eax, DWORD PTR $T3[ebp]
  0000c	83 e0 01	 and	 eax, 1
  0000f	0f 84 0d 00 00
	00		 je	 $LN16@GetDisplay
  00015	83 65 ec fe	 and	 DWORD PTR $T3[ebp], -2	; fffffffeH
  00019	8d 4d e8	 lea	 ecx, DWORD PTR $T2[ebp]
  0001c	ff 25 00 00 00
	00		 jmp	 DWORD PTR __imp_??1?$CStringT@DV?$StrTraitMFC_DLL@DV?$ChTraitsCRT@D@ATL@@@@@ATL@@QAE@XZ
$LN16@GetDisplay:
  00022	c3		 ret	 0
  00023	cc		 int	 3
  00024	cc		 int	 3
  00025	cc		 int	 3
  00026	cc		 int	 3
  00027	cc		 int	 3
__ehhandler$?GetDisplayDataEnd@CGraphDrawerImplementation@@ABEHABW4GRAPHTYPE@CGraphBaseData@@HABV?$CList@PAVCPacket@@PAV1@@@@Z:
  00028	90		 npad	 1
  00029	90		 npad	 1
  0002a	8b 54 24 08	 mov	 edx, DWORD PTR [esp+8]
  0002e	8d 42 0c	 lea	 eax, DWORD PTR [edx+12]
  00031	8b 4a e0	 mov	 ecx, DWORD PTR [edx-32]
  00034	33 c8		 xor	 ecx, eax
  00036	e8 00 00 00 00	 call	 @__security_check_cookie@4
  0003b	b8 00 00 00 00	 mov	 eax, OFFSET __ehfuncinfo$?GetDisplayDataEnd@CGraphDrawerImplementation@@ABEHABW4GRAPHTYPE@CGraphBaseData@@HABV?$CList@PAVCPacket@@PAV1@@@@Z
  00040	e9 00 00 00 00	 jmp	 ___CxxFrameHandler3
text$x	ENDS
?GetDisplayDataEnd@CGraphDrawerImplementation@@ABEHABW4GRAPHTYPE@CGraphBaseData@@HABV?$CList@PAVCPacket@@PAV1@@@@Z ENDP ; CGraphDrawerImplementation::GetDisplayDataEnd
; Function compile flags: /Ogtp
; File D:\git\src\IBK\IBK_DRFN\ProjSrc\SrcChartEx\ChartOCX\GraphDraw\GraphDrawerImplementation.cpp
;	COMDAT ?DrawGraphDatas@CGraphDrawerImplementation@@AAEXPAVCDC@@ABVCRect@@ABVCDisplayAttributes@@ABVCDrawingGraphData@@ABVCSubGraphData@@@Z
_TEXT	SEGMENT
$T1 = -8						; size = 8
_pDC$ = 8						; size = 4
_realDrawingRegion$ = 12				; size = 4
_realDisplayAttributes$ = 16				; size = 4
_drawingGraphData$ = 20					; size = 4
_subGraphData$ = 24					; size = 4
?DrawGraphDatas@CGraphDrawerImplementation@@AAEXPAVCDC@@ABVCRect@@ABVCDisplayAttributes@@ABVCDrawingGraphData@@ABVCSubGraphData@@@Z PROC ; CGraphDrawerImplementation::DrawGraphDatas, COMDAT
; _this$ = ecx

; 132  : {

  00000	55		 push	 ebp
  00001	8b ec		 mov	 ebp, esp
  00003	83 ec 08	 sub	 esp, 8

; 133  : 	CGraphDataDrawer().DrawGraphDatas(pDC, realDrawingRegion, realDisplayAttributes, drawingGraphData, subGraphData);

  00006	ff 75 18	 push	 DWORD PTR _subGraphData$[ebp]
  00009	0f 57 c0	 xorps	 xmm0, xmm0
  0000c	8d 4d f8	 lea	 ecx, DWORD PTR $T1[ebp]
  0000f	ff 75 14	 push	 DWORD PTR _drawingGraphData$[ebp]
  00012	66 0f 13 45 f8	 movlpd	 QWORD PTR $T1[ebp], xmm0
  00017	ff 75 10	 push	 DWORD PTR _realDisplayAttributes$[ebp]
  0001a	ff 75 0c	 push	 DWORD PTR _realDrawingRegion$[ebp]
  0001d	ff 75 08	 push	 DWORD PTR _pDC$[ebp]
  00020	e8 00 00 00 00	 call	 ?DrawGraphDatas@CGraphDataDrawer@@QAEXPAVCDC@@ABVCRect@@ABVCDisplayAttributes@@ABVCDrawingGraphData@@ABVCSubGraphData@@@Z ; CGraphDataDrawer::DrawGraphDatas

; 134  : }

  00025	8b e5		 mov	 esp, ebp
  00027	5d		 pop	 ebp
  00028	c2 14 00	 ret	 20			; 00000014H
?DrawGraphDatas@CGraphDrawerImplementation@@AAEXPAVCDC@@ABVCRect@@ABVCDisplayAttributes@@ABVCDrawingGraphData@@ABVCSubGraphData@@@Z ENDP ; CGraphDrawerImplementation::DrawGraphDatas
_TEXT	ENDS
; Function compile flags: /Ogtp
; File D:\git\src\IBK\IBK_DRFN\ProjSrc\SrcChartEx\ChartOCX\GraphDraw\GraphDrawerImplementation.cpp
;	COMDAT ?IsAction@CGraphDrawerImplementation@@ABE_NPAVCSubGraphPacketList@@@Z
_TEXT	SEGMENT
_m_pSubGraphPacketList$ = 8				; size = 4
?IsAction@CGraphDrawerImplementation@@ABE_NPAVCSubGraphPacketList@@@Z PROC ; CGraphDrawerImplementation::IsAction, COMDAT
; _this$ = ecx

; 118  : {

  00000	55		 push	 ebp
  00001	8b ec		 mov	 ebp, esp

; 119  : 	return (m_pSubGraphPacketList != NULL && m_pSubGraphPacketList->GetCount() > 0);

  00003	8b 4d 08	 mov	 ecx, DWORD PTR _m_pSubGraphPacketList$[ebp]
  00006	85 c9		 test	 ecx, ecx
  00008	74 0f		 je	 SHORT $LN3@IsAction
  0000a	e8 00 00 00 00	 call	 ?GetCount@CSubGraphPacketList@@QBEHXZ ; CSubGraphPacketList::GetCount
  0000f	85 c0		 test	 eax, eax
  00011	7e 06		 jle	 SHORT $LN3@IsAction
  00013	b0 01		 mov	 al, 1

; 120  : }

  00015	5d		 pop	 ebp
  00016	c2 04 00	 ret	 4
$LN3@IsAction:

; 119  : 	return (m_pSubGraphPacketList != NULL && m_pSubGraphPacketList->GetCount() > 0);

  00019	32 c0		 xor	 al, al

; 120  : }

  0001b	5d		 pop	 ebp
  0001c	c2 04 00	 ret	 4
?IsAction@CGraphDrawerImplementation@@ABE_NPAVCSubGraphPacketList@@@Z ENDP ; CGraphDrawerImplementation::IsAction
_TEXT	ENDS
; Function compile flags: /Ogtp
; File D:\git\src\IBK\IBK_DRFN\ProjSrc\SrcChartEx\ChartOCX\GraphDraw\GraphDrawerImplementation.cpp
;	COMDAT ?GetTextInRightScaleRegionDrawer@CGraphDrawerImplementation@@QBE_NABVCTextInRightScaleRegionDrawer@@AAV?$CStringT@DV?$StrTraitMFC_DLL@DV?$ChTraitsCRT@D@ATL@@@@@ATL@@111@Z
_TEXT	SEGMENT
_textData$ = 8						; size = 4
_strCurPrice$ = 12					; size = 4
_strDiffPrice$ = 16					; size = 4
_strPipPrice$ = 20					; size = 4
_strRiseFallRate$ = 24					; size = 4
$T1 = 27						; size = 1
?GetTextInRightScaleRegionDrawer@CGraphDrawerImplementation@@QBE_NABVCTextInRightScaleRegionDrawer@@AAV?$CStringT@DV?$StrTraitMFC_DLL@DV?$ChTraitsCRT@D@ATL@@@@@ATL@@111@Z PROC ; CGraphDrawerImplementation::GetTextInRightScaleRegionDrawer, COMDAT
; _this$ = ecx

; 111  : {

  00000	55		 push	 ebp
  00001	8b ec		 mov	 ebp, esp

; 112  : 	return CDataInRightScaleRegionDrawer().GetText(textData, strCurPrice, strDiffPrice, strPipPrice, strRiseFallRate);

  00003	ff 75 18	 push	 DWORD PTR _strRiseFallRate$[ebp]
  00006	8d 4d 1b	 lea	 ecx, DWORD PTR $T1[ebp]
  00009	ff 75 14	 push	 DWORD PTR _strPipPrice$[ebp]
  0000c	ff 75 10	 push	 DWORD PTR _strDiffPrice$[ebp]
  0000f	ff 75 0c	 push	 DWORD PTR _strCurPrice$[ebp]
  00012	ff 75 08	 push	 DWORD PTR _textData$[ebp]
  00015	e8 00 00 00 00	 call	 ?GetText@CDataInRightScaleRegionDrawer@@QBE_NABVCTextInRightScaleRegionDrawer@@AAV?$CStringT@DV?$StrTraitMFC_DLL@DV?$ChTraitsCRT@D@ATL@@@@@ATL@@111@Z ; CDataInRightScaleRegionDrawer::GetText

; 113  : }

  0001a	5d		 pop	 ebp
  0001b	c2 14 00	 ret	 20			; 00000014H
?GetTextInRightScaleRegionDrawer@CGraphDrawerImplementation@@QBE_NABVCTextInRightScaleRegionDrawer@@AAV?$CStringT@DV?$StrTraitMFC_DLL@DV?$ChTraitsCRT@D@ATL@@@@@ATL@@111@Z ENDP ; CGraphDrawerImplementation::GetTextInRightScaleRegionDrawer
_TEXT	ENDS
; Function compile flags: /Ogtp
; File D:\git\src\IBK\IBK_DRFN\ProjSrc\SrcChartEx\ChartOCX\GraphDraw\GraphDrawerImplementation.cpp
;	COMDAT ?PointInSubGraph@CGraphDrawerImplementation@@QAEHABVCPoint@@ABVCSelectSubGraphData@@PAVCIndicatorList@@@Z
_TEXT	SEGMENT
_selectSubGraph$ = -52					; size = 40
__$EHRec$ = -12						; size = 12
_point$ = 8						; size = 4
_selectSubGraphData$ = 12				; size = 4
_pIndicatorList$ = 16					; size = 4
?PointInSubGraph@CGraphDrawerImplementation@@QAEHABVCPoint@@ABVCSelectSubGraphData@@PAVCIndicatorList@@@Z PROC ; CGraphDrawerImplementation::PointInSubGraph, COMDAT
; _this$ = ecx

; 104  : {

  00000	55		 push	 ebp
  00001	8b ec		 mov	 ebp, esp
  00003	6a ff		 push	 -1
  00005	68 00 00 00 00	 push	 __ehhandler$?PointInSubGraph@CGraphDrawerImplementation@@QAEHABVCPoint@@ABVCSelectSubGraphData@@PAVCIndicatorList@@@Z
  0000a	64 a1 00 00 00
	00		 mov	 eax, DWORD PTR fs:0
  00010	50		 push	 eax
  00011	83 ec 28	 sub	 esp, 40			; 00000028H
  00014	56		 push	 esi
  00015	a1 00 00 00 00	 mov	 eax, DWORD PTR ___security_cookie
  0001a	33 c5		 xor	 eax, ebp
  0001c	50		 push	 eax
  0001d	8d 45 f4	 lea	 eax, DWORD PTR __$EHRec$[ebp]
  00020	64 a3 00 00 00
	00		 mov	 DWORD PTR fs:0, eax

; 105  : 	CSelectSubGraph selectSubGraph;

  00026	8d 4d cc	 lea	 ecx, DWORD PTR _selectSubGraph$[ebp]
  00029	e8 00 00 00 00	 call	 ??0CSelectSubGraph@@QAE@XZ ; CSelectSubGraph::CSelectSubGraph

; 106  : 	return selectSubGraph.PointInSubGraph(point, &selectSubGraphData, pIndicatorList);

  0002e	ff 75 10	 push	 DWORD PTR _pIndicatorList$[ebp]
  00031	8d 4d cc	 lea	 ecx, DWORD PTR _selectSubGraph$[ebp]
  00034	c7 45 fc 00 00
	00 00		 mov	 DWORD PTR __$EHRec$[ebp+8], 0
  0003b	ff 75 0c	 push	 DWORD PTR _selectSubGraphData$[ebp]
  0003e	ff 75 08	 push	 DWORD PTR _point$[ebp]
  00041	e8 00 00 00 00	 call	 ?PointInSubGraph@CSelectSubGraph@@QAEHABVCPoint@@PBVCSelectSubGraphData@@PAVCIndicatorList@@@Z ; CSelectSubGraph::PointInSubGraph
  00046	8d 4d cc	 lea	 ecx, DWORD PTR _selectSubGraph$[ebp]
  00049	8b f0		 mov	 esi, eax
  0004b	e8 00 00 00 00	 call	 ??1CSelectSubGraph@@UAE@XZ ; CSelectSubGraph::~CSelectSubGraph
  00050	8b c6		 mov	 eax, esi

; 107  : }

  00052	8b 4d f4	 mov	 ecx, DWORD PTR __$EHRec$[ebp]
  00055	64 89 0d 00 00
	00 00		 mov	 DWORD PTR fs:0, ecx
  0005c	59		 pop	 ecx
  0005d	5e		 pop	 esi
  0005e	8b e5		 mov	 esp, ebp
  00060	5d		 pop	 ebp
  00061	c2 0c 00	 ret	 12			; 0000000cH
_TEXT	ENDS
;	COMDAT text$x
text$x	SEGMENT
__unwindfunclet$?PointInSubGraph@CGraphDrawerImplementation@@QAEHABVCPoint@@ABVCSelectSubGraphData@@PAVCIndicatorList@@@Z$0:
  00000	8d 4d cc	 lea	 ecx, DWORD PTR _selectSubGraph$[ebp]
  00003	e9 00 00 00 00	 jmp	 ??1CSelectSubGraph@@UAE@XZ ; CSelectSubGraph::~CSelectSubGraph
  00008	cc		 int	 3
  00009	cc		 int	 3
  0000a	cc		 int	 3
  0000b	cc		 int	 3
  0000c	cc		 int	 3
__ehhandler$?PointInSubGraph@CGraphDrawerImplementation@@QAEHABVCPoint@@ABVCSelectSubGraphData@@PAVCIndicatorList@@@Z:
  0000d	90		 npad	 1
  0000e	90		 npad	 1
  0000f	8b 54 24 08	 mov	 edx, DWORD PTR [esp+8]
  00013	8d 42 0c	 lea	 eax, DWORD PTR [edx+12]
  00016	8b 4a d0	 mov	 ecx, DWORD PTR [edx-48]
  00019	33 c8		 xor	 ecx, eax
  0001b	e8 00 00 00 00	 call	 @__security_check_cookie@4
  00020	b8 00 00 00 00	 mov	 eax, OFFSET __ehfuncinfo$?PointInSubGraph@CGraphDrawerImplementation@@QAEHABVCPoint@@ABVCSelectSubGraphData@@PAVCIndicatorList@@@Z
  00025	e9 00 00 00 00	 jmp	 ___CxxFrameHandler3
text$x	ENDS
?PointInSubGraph@CGraphDrawerImplementation@@QAEHABVCPoint@@ABVCSelectSubGraphData@@PAVCIndicatorList@@@Z ENDP ; CGraphDrawerImplementation::PointInSubGraph
; Function compile flags: /Ogtp
; File D:\git\src\IBK\IBK_DRFN\ProjSrc\SrcChartEx\ChartOCX\GraphDraw\GraphDrawerImplementation.cpp
;	COMDAT ?DrawGrip@CGraphDrawerImplementation@@QAE_NPAVCDC@@HABVCSelectSubGraphData@@@Z
_TEXT	SEGMENT
$T2 = -52						; size = 40
__$EHRec$ = -12						; size = 12
_pDC$ = 8						; size = 4
_index$ = 12						; size = 4
_selectSubGraphData$ = 16				; size = 4
?DrawGrip@CGraphDrawerImplementation@@QAE_NPAVCDC@@HABVCSelectSubGraphData@@@Z PROC ; CGraphDrawerImplementation::DrawGrip, COMDAT
; _this$ = ecx

; 98   : {

  00000	55		 push	 ebp
  00001	8b ec		 mov	 ebp, esp
  00003	6a ff		 push	 -1
  00005	68 00 00 00 00	 push	 __ehhandler$?DrawGrip@CGraphDrawerImplementation@@QAE_NPAVCDC@@HABVCSelectSubGraphData@@@Z
  0000a	64 a1 00 00 00
	00		 mov	 eax, DWORD PTR fs:0
  00010	50		 push	 eax
  00011	83 ec 28	 sub	 esp, 40			; 00000028H
  00014	53		 push	 ebx
  00015	a1 00 00 00 00	 mov	 eax, DWORD PTR ___security_cookie
  0001a	33 c5		 xor	 eax, ebp
  0001c	50		 push	 eax
  0001d	8d 45 f4	 lea	 eax, DWORD PTR __$EHRec$[ebp]
  00020	64 a3 00 00 00
	00		 mov	 DWORD PTR fs:0, eax

; 99   : 	return CGripDraw().DrawGrip(pDC, index, selectSubGraphData);

  00026	8d 4d cc	 lea	 ecx, DWORD PTR $T2[ebp]
  00029	e8 00 00 00 00	 call	 ??0CGripDraw@@QAE@XZ	; CGripDraw::CGripDraw
  0002e	ff 75 10	 push	 DWORD PTR _selectSubGraphData$[ebp]
  00031	8b c8		 mov	 ecx, eax
  00033	c7 45 fc 00 00
	00 00		 mov	 DWORD PTR __$EHRec$[ebp+8], 0
  0003a	ff 75 0c	 push	 DWORD PTR _index$[ebp]
  0003d	ff 75 08	 push	 DWORD PTR _pDC$[ebp]
  00040	e8 00 00 00 00	 call	 ?DrawGrip@CGripDraw@@QAE_NPAVCDC@@HABVCSelectSubGraphData@@@Z ; CGripDraw::DrawGrip
  00045	8d 4d cc	 lea	 ecx, DWORD PTR $T2[ebp]
  00048	8a d8		 mov	 bl, al
  0004a	e8 00 00 00 00	 call	 ??1CGripDraw@@UAE@XZ	; CGripDraw::~CGripDraw
  0004f	8a c3		 mov	 al, bl

; 100  : }

  00051	8b 4d f4	 mov	 ecx, DWORD PTR __$EHRec$[ebp]
  00054	64 89 0d 00 00
	00 00		 mov	 DWORD PTR fs:0, ecx
  0005b	59		 pop	 ecx
  0005c	5b		 pop	 ebx
  0005d	8b e5		 mov	 esp, ebp
  0005f	5d		 pop	 ebp
  00060	c2 0c 00	 ret	 12			; 0000000cH
_TEXT	ENDS
;	COMDAT text$x
text$x	SEGMENT
__unwindfunclet$?DrawGrip@CGraphDrawerImplementation@@QAE_NPAVCDC@@HABVCSelectSubGraphData@@@Z$0:
  00000	8d 4d cc	 lea	 ecx, DWORD PTR $T2[ebp]
  00003	e9 00 00 00 00	 jmp	 ??1CGripDraw@@UAE@XZ	; CGripDraw::~CGripDraw
  00008	cc		 int	 3
  00009	cc		 int	 3
  0000a	cc		 int	 3
  0000b	cc		 int	 3
  0000c	cc		 int	 3
__ehhandler$?DrawGrip@CGraphDrawerImplementation@@QAE_NPAVCDC@@HABVCSelectSubGraphData@@@Z:
  0000d	90		 npad	 1
  0000e	90		 npad	 1
  0000f	8b 54 24 08	 mov	 edx, DWORD PTR [esp+8]
  00013	8d 42 0c	 lea	 eax, DWORD PTR [edx+12]
  00016	8b 4a d0	 mov	 ecx, DWORD PTR [edx-48]
  00019	33 c8		 xor	 ecx, eax
  0001b	e8 00 00 00 00	 call	 @__security_check_cookie@4
  00020	b8 00 00 00 00	 mov	 eax, OFFSET __ehfuncinfo$?DrawGrip@CGraphDrawerImplementation@@QAE_NPAVCDC@@HABVCSelectSubGraphData@@@Z
  00025	e9 00 00 00 00	 jmp	 ___CxxFrameHandler3
text$x	ENDS
?DrawGrip@CGraphDrawerImplementation@@QAE_NPAVCDC@@HABVCSelectSubGraphData@@@Z ENDP ; CGraphDrawerImplementation::DrawGrip
; Function compile flags: /Ogtp
; File D:\git\src\IBK\IBK_DRFN\ProjSrc\SrcChartEx\ChartOCX\GraphDraw\GraphDrawerImplementation.cpp
; File D:\git\src\IBK\IBK_DRFN\ProjSrc\SrcChartEx\ChartOCX\Include_Chart\BaseData.h
; File C:\Program Files (x86)\Microsoft Visual Studio\2019\Community\VC\Tools\MSVC\14.29.30133\atlmfc\include\afxwin1.inl
; File D:\git\src\IBK\IBK_DRFN\ProjSrc\SrcChartEx\ChartOCX\GraphDraw\GraphDrawerImplementation.cpp
; File C:\Program Files (x86)\Microsoft Visual Studio\2019\Community\VC\Tools\MSVC\14.29.30133\atlmfc\include\afxwin1.inl
; File D:\git\src\IBK\IBK_DRFN\ProjSrc\SrcChartEx\ChartOCX\GraphDraw\GraphDrawerImplementation.cpp
; File C:\Program Files (x86)\Microsoft Visual Studio\2019\Community\VC\Tools\MSVC\14.29.30133\atlmfc\include\afxwin1.inl
; File D:\git\src\IBK\IBK_DRFN\ProjSrc\SrcChartEx\ChartOCX\GraphDraw\GraphDrawerImplementation.cpp
;	COMDAT ?DrawSignal@CGraphDrawerImplementation@@QAEXPAVCDC@@ABVCDrawingGraphData@@PBV?$CList@NN@@AAVCSignalData@@ABV?$CStringT@DV?$StrTraitMFC_DLL@DV?$ChTraitsCRT@D@ATL@@@@@ATL@@PAVCXScaleManager@@@Z
_TEXT	SEGMENT
$T2 = -68						; size = 40
_displayAttributes$ = -28				; size = 8
_rgn$ = -20						; size = 8
__$EHRec$ = -12						; size = 12
_pDC$ = 8						; size = 4
_drawingGraphData$ = 12					; size = 4
_pSignalData$ = 16					; size = 4
_p_signalData$ = 20					; size = 4
_strRQ$ = 24						; size = 4
_pxScaleManager$ = 28					; size = 4
?DrawSignal@CGraphDrawerImplementation@@QAEXPAVCDC@@ABVCDrawingGraphData@@PBV?$CList@NN@@AAVCSignalData@@ABV?$CStringT@DV?$StrTraitMFC_DLL@DV?$ChTraitsCRT@D@ATL@@@@@ATL@@PAVCXScaleManager@@@Z PROC ; CGraphDrawerImplementation::DrawSignal, COMDAT
; _this$ = ecx

; 78   : {

  00000	55		 push	 ebp
  00001	8b ec		 mov	 ebp, esp
  00003	6a ff		 push	 -1
  00005	68 00 00 00 00	 push	 __ehhandler$?DrawSignal@CGraphDrawerImplementation@@QAEXPAVCDC@@ABVCDrawingGraphData@@PBV?$CList@NN@@AAVCSignalData@@ABV?$CStringT@DV?$StrTraitMFC_DLL@DV?$ChTraitsCRT@D@ATL@@@@@ATL@@PAVCXScaleManager@@@Z
  0000a	64 a1 00 00 00
	00		 mov	 eax, DWORD PTR fs:0
  00010	50		 push	 eax
  00011	83 ec 38	 sub	 esp, 56			; 00000038H
  00014	56		 push	 esi
  00015	57		 push	 edi
  00016	a1 00 00 00 00	 mov	 eax, DWORD PTR ___security_cookie
  0001b	33 c5		 xor	 eax, ebp
  0001d	50		 push	 eax
  0001e	8d 45 f4	 lea	 eax, DWORD PTR __$EHRec$[ebp]
  00021	64 a3 00 00 00
	00		 mov	 DWORD PTR fs:0, eax

; 79   : 	if(pSignalData == NULL || pSignalData->GetCount() <= 0)

  00027	8b 45 10	 mov	 eax, DWORD PTR _pSignalData$[ebp]
  0002a	85 c0		 test	 eax, eax
  0002c	0f 84 1a 01 00
	00		 je	 $LN3@DrawSignal
  00032	83 78 0c 00	 cmp	 DWORD PTR [eax+12], 0
  00036	0f 8e 10 01 00
	00		 jle	 $LN3@DrawSignal

; 80   : 		return;
; 81   : 
; 82   : 	if(!IsAction(drawingGraphData.GetSubGraphPacketList()))

  0003c	8b 75 0c	 mov	 esi, DWORD PTR _drawingGraphData$[ebp]
  0003f	8b ce		 mov	 ecx, esi
  00041	e8 00 00 00 00	 call	 ?GetSubGraphPacketList@CDrawingGraphData@@QBEPAVCSubGraphPacketList@@XZ ; CDrawingGraphData::GetSubGraphPacketList

; 119  : 	return (m_pSubGraphPacketList != NULL && m_pSubGraphPacketList->GetCount() > 0);

  00046	85 c0		 test	 eax, eax
  00048	0f 84 fe 00 00
	00		 je	 $LN3@DrawSignal
  0004e	8b c8		 mov	 ecx, eax
  00050	e8 00 00 00 00	 call	 ?GetCount@CSubGraphPacketList@@QBEHXZ ; CSubGraphPacketList::GetCount
  00055	85 c0		 test	 eax, eax
  00057	0f 8e ef 00 00
	00		 jle	 $LN3@DrawSignal

; 83   : 		return;
; 84   : 
; 85   : 	CRect rctNoFrameRegion = drawingGraphData.GetGraphRegions().GetNoFrameRegion();

  0005d	8b ce		 mov	 ecx, esi
  0005f	e8 00 00 00 00	 call	 ?GetGraphRegions@CDrawingGraphData@@QBEABVCGraphRegions@@XZ ; CDrawingGraphData::GetGraphRegions
; File D:\git\src\IBK\IBK_DRFN\ProjSrc\SrcChartEx\ChartOCX\Include_Chart\BaseData.h

; 93   : 	CRect	GetNoFrameRegion() const			{	return m_rctNoFrameRegion;	}

  00064	0f 10 48 14	 movups	 xmm1, XMMWORD PTR [eax+20]
; File C:\Program Files (x86)\Microsoft Visual Studio\2019\Community\VC\Tools\MSVC\14.29.30133\atlmfc\include\afxwin1.inl

; 70   : 	{ m_hObject = NULL; }

  00068	c7 45 f0 00 00
	00 00		 mov	 DWORD PTR _rgn$[ebp+4], 0

; 264  : 	{ }

  0006f	c7 45 ec 00 00
	00 00		 mov	 DWORD PTR _rgn$[ebp], OFFSET ??_7CRgn@@6B@

; 268  : 	{ return Attach(::CreateRectRgn(x1, y1, x2, y2)); }

  00076	0f 28 c1	 movaps	 xmm0, xmm1
; File D:\git\src\IBK\IBK_DRFN\ProjSrc\SrcChartEx\ChartOCX\GraphDraw\GraphDrawerImplementation.cpp

; 86   : 	CRgn rgn;

  00079	c7 45 fc 00 00
	00 00		 mov	 DWORD PTR __$EHRec$[ebp+8], 0
; File C:\Program Files (x86)\Microsoft Visual Studio\2019\Community\VC\Tools\MSVC\14.29.30133\atlmfc\include\afxwin1.inl

; 268  : 	{ return Attach(::CreateRectRgn(x1, y1, x2, y2)); }

  00080	66 0f 73 d8 0c	 psrldq	 xmm0, 12		; 0000000cH
  00085	66 0f 7e c0	 movd	 eax, xmm0
  00089	0f 28 c1	 movaps	 xmm0, xmm1
  0008c	66 0f 73 d8 08	 psrldq	 xmm0, 8
  00091	50		 push	 eax
  00092	66 0f 7e c0	 movd	 eax, xmm0
  00096	0f 28 c1	 movaps	 xmm0, xmm1
  00099	66 0f 73 d8 04	 psrldq	 xmm0, 4
  0009e	50		 push	 eax
  0009f	66 0f 7e c0	 movd	 eax, xmm0
  000a3	50		 push	 eax
  000a4	66 0f 7e c8	 movd	 eax, xmm1
  000a8	50		 push	 eax
  000a9	ff 15 00 00 00
	00		 call	 DWORD PTR __imp__CreateRectRgn@16
  000af	50		 push	 eax
  000b0	8d 4d ec	 lea	 ecx, DWORD PTR _rgn$[ebp]
  000b3	e8 00 00 00 00	 call	 ?Attach@CGdiObject@@QAEHPAX@Z ; CGdiObject::Attach
; File D:\git\src\IBK\IBK_DRFN\ProjSrc\SrcChartEx\ChartOCX\GraphDraw\GraphDrawerImplementation.cpp

; 88   : 	pDC->SelectClipRgn( &rgn);

  000b8	8b 7d 08	 mov	 edi, DWORD PTR _pDC$[ebp]
  000bb	8d 45 ec	 lea	 eax, DWORD PTR _rgn$[ebp]
  000be	50		 push	 eax
  000bf	8b cf		 mov	 ecx, edi
  000c1	e8 00 00 00 00	 call	 ?SelectClipRgn@CDC@@QAEHPAVCRgn@@@Z ; CDC::SelectClipRgn

; 89   : 
; 90   : 	CDisplayAttributes displayAttributes = drawingGraphData.GetDisplayAttributes();

  000c6	8d 45 e4	 lea	 eax, DWORD PTR _displayAttributes$[ebp]
  000c9	8b ce		 mov	 ecx, esi
  000cb	50		 push	 eax
  000cc	e8 00 00 00 00	 call	 ?GetDisplayAttributes@CDrawingGraphData@@QBE?AVCDisplayAttributes@@XZ ; CDrawingGraphData::GetDisplayAttributes

; 91   : 	CPacket* pPacket = drawingGraphData.GetSubGraphPacketList()->GetHeadPacket();

  000d1	8b ce		 mov	 ecx, esi
  000d3	e8 00 00 00 00	 call	 ?GetSubGraphPacketList@CDrawingGraphData@@QBEPAVCSubGraphPacketList@@XZ ; CDrawingGraphData::GetSubGraphPacketList
  000d8	8b c8		 mov	 ecx, eax
  000da	e8 00 00 00 00	 call	 ?GetHeadPacket@CSubGraphPacketList@@QAEPAVCPacket@@XZ ; CSubGraphPacketList::GetHeadPacket
  000df	0f 57 c0	 xorps	 xmm0, xmm0
  000e2	8d 4d bc	 lea	 ecx, DWORD PTR $T2[ebp]
  000e5	8b f0		 mov	 esi, eax

; 92   : 	CSignalDraw().DrawSignal(pDC, drawingGraphData, displayAttributes, pPacket, pSignalData, p_signalData, strRQ, pxScaleManager, drawingGraphData.GetColumnIndex());

  000e7	66 0f d6 45 dc	 movq	 QWORD PTR $T2[ebp+32], xmm0
  000ec	0f 11 45 bc	 movups	 XMMWORD PTR $T2[ebp], xmm0
  000f0	0f 11 45 cc	 movups	 XMMWORD PTR $T2[ebp+16], xmm0
  000f4	e8 00 00 00 00	 call	 ??0CDraw@@QAE@XZ	; CDraw::CDraw
  000f9	c7 45 bc 00 00
	00 00		 mov	 DWORD PTR $T2[ebp], OFFSET ??_7CSignalDraw@@6B@
  00100	8b 45 0c	 mov	 eax, DWORD PTR _drawingGraphData$[ebp]
  00103	8d 4d e4	 lea	 ecx, DWORD PTR _displayAttributes$[ebp]
  00106	c6 45 fc 01	 mov	 BYTE PTR __$EHRec$[ebp+8], 1
  0010a	ff b0 f0 00 00
	00		 push	 DWORD PTR [eax+240]
  00110	ff 75 1c	 push	 DWORD PTR _pxScaleManager$[ebp]
  00113	ff 75 18	 push	 DWORD PTR _strRQ$[ebp]
  00116	ff 75 14	 push	 DWORD PTR _p_signalData$[ebp]
  00119	ff 75 10	 push	 DWORD PTR _pSignalData$[ebp]
  0011c	56		 push	 esi
  0011d	51		 push	 ecx
  0011e	50		 push	 eax
  0011f	57		 push	 edi
  00120	8d 4d bc	 lea	 ecx, DWORD PTR $T2[ebp]
  00123	e8 00 00 00 00	 call	 ?DrawSignal@CSignalDraw@@QAE_NPAVCDC@@ABVCDrawingGraphData@@ABVCDisplayAttributes@@PAVCPacket@@PBV?$CList@NN@@AAVCSignalData@@ABV?$CStringT@DV?$StrTraitMFC_DLL@DV?$ChTraitsCRT@D@ATL@@@@@ATL@@PAVCXScaleManager@@H@Z ; CSignalDraw::DrawSignal
  00128	8d 4d bc	 lea	 ecx, DWORD PTR $T2[ebp]
  0012b	c6 45 fc 00	 mov	 BYTE PTR __$EHRec$[ebp+8], 0
  0012f	e8 00 00 00 00	 call	 ??1CDraw@@UAE@XZ	; CDraw::~CDraw

; 93   : 
; 94   : 	pDC->SelectClipRgn( NULL);

  00134	6a 00		 push	 0
  00136	8b cf		 mov	 ecx, edi
  00138	e8 00 00 00 00	 call	 ?SelectClipRgn@CDC@@QAEHPAVCRgn@@@Z ; CDC::SelectClipRgn
; File C:\Program Files (x86)\Microsoft Visual Studio\2019\Community\VC\Tools\MSVC\14.29.30133\atlmfc\include\afxwin1.inl

; 266  : 	{ }

  0013d	8d 4d ec	 lea	 ecx, DWORD PTR _rgn$[ebp]
  00140	c7 45 ec 00 00
	00 00		 mov	 DWORD PTR _rgn$[ebp], OFFSET ??_7CRgn@@6B@
  00147	e8 00 00 00 00	 call	 ??1CGdiObject@@UAE@XZ	; CGdiObject::~CGdiObject
$LN3@DrawSignal:
; File D:\git\src\IBK\IBK_DRFN\ProjSrc\SrcChartEx\ChartOCX\GraphDraw\GraphDrawerImplementation.cpp

; 95   : }

  0014c	8b 4d f4	 mov	 ecx, DWORD PTR __$EHRec$[ebp]
  0014f	64 89 0d 00 00
	00 00		 mov	 DWORD PTR fs:0, ecx
  00156	59		 pop	 ecx
  00157	5f		 pop	 edi
  00158	5e		 pop	 esi
  00159	8b e5		 mov	 esp, ebp
  0015b	5d		 pop	 ebp
  0015c	c2 18 00	 ret	 24			; 00000018H
_TEXT	ENDS
;	COMDAT text$x
text$x	SEGMENT
__unwindfunclet$?DrawSignal@CGraphDrawerImplementation@@QAEXPAVCDC@@ABVCDrawingGraphData@@PBV?$CList@NN@@AAVCSignalData@@ABV?$CStringT@DV?$StrTraitMFC_DLL@DV?$ChTraitsCRT@D@ATL@@@@@ATL@@PAVCXScaleManager@@@Z$0:
  00000	8d 4d ec	 lea	 ecx, DWORD PTR _rgn$[ebp]
  00003	e9 00 00 00 00	 jmp	 ??1CRgn@@UAE@XZ		; CRgn::~CRgn
__unwindfunclet$?DrawSignal@CGraphDrawerImplementation@@QAEXPAVCDC@@ABVCDrawingGraphData@@PBV?$CList@NN@@AAVCSignalData@@ABV?$CStringT@DV?$StrTraitMFC_DLL@DV?$ChTraitsCRT@D@ATL@@@@@ATL@@PAVCXScaleManager@@@Z$1:
  00008	8d 4d bc	 lea	 ecx, DWORD PTR $T2[ebp]
  0000b	e9 00 00 00 00	 jmp	 ??1CSignalDraw@@UAE@XZ
  00010	cc		 int	 3
  00011	cc		 int	 3
  00012	cc		 int	 3
  00013	cc		 int	 3
  00014	cc		 int	 3
__ehhandler$?DrawSignal@CGraphDrawerImplementation@@QAEXPAVCDC@@ABVCDrawingGraphData@@PBV?$CList@NN@@AAVCSignalData@@ABV?$CStringT@DV?$StrTraitMFC_DLL@DV?$ChTraitsCRT@D@ATL@@@@@ATL@@PAVCXScaleManager@@@Z:
  00015	90		 npad	 1
  00016	90		 npad	 1
  00017	8b 54 24 08	 mov	 edx, DWORD PTR [esp+8]
  0001b	8d 42 0c	 lea	 eax, DWORD PTR [edx+12]
  0001e	8b 4a bc	 mov	 ecx, DWORD PTR [edx-68]
  00021	33 c8		 xor	 ecx, eax
  00023	e8 00 00 00 00	 call	 @__security_check_cookie@4
  00028	b8 00 00 00 00	 mov	 eax, OFFSET __ehfuncinfo$?DrawSignal@CGraphDrawerImplementation@@QAEXPAVCDC@@ABVCDrawingGraphData@@PBV?$CList@NN@@AAVCSignalData@@ABV?$CStringT@DV?$StrTraitMFC_DLL@DV?$ChTraitsCRT@D@ATL@@@@@ATL@@PAVCXScaleManager@@@Z
  0002d	e9 00 00 00 00	 jmp	 ___CxxFrameHandler3
text$x	ENDS
?DrawSignal@CGraphDrawerImplementation@@QAEXPAVCDC@@ABVCDrawingGraphData@@PBV?$CList@NN@@AAVCSignalData@@ABV?$CStringT@DV?$StrTraitMFC_DLL@DV?$ChTraitsCRT@D@ATL@@@@@ATL@@PAVCXScaleManager@@@Z ENDP ; CGraphDrawerImplementation::DrawSignal
; Function compile flags: /Ogtp
; File D:\git\src\IBK\IBK_DRFN\ProjSrc\SrcChartEx\ChartOCX\GraphDraw\GraphDrawerImplementation.cpp
; File D:\git\src\IBK\IBK_DRFN\ProjSrc\SrcChartEx\ChartOCX\Include_Chart\BaseData.h
; File C:\Program Files (x86)\Microsoft Visual Studio\2019\Community\VC\Tools\MSVC\14.29.30133\atlmfc\include\afxwin1.inl
; File D:\git\src\IBK\IBK_DRFN\ProjSrc\SrcChartEx\ChartOCX\GraphDraw\GraphDrawerImplementation.cpp
; File C:\Program Files (x86)\Microsoft Visual Studio\2019\Community\VC\Tools\MSVC\14.29.30133\atlmfc\include\afxwin1.inl
; File D:\git\src\IBK\IBK_DRFN\ProjSrc\SrcChartEx\ChartOCX\GraphDraw\GraphDrawerImplementation.cpp
; File C:\Program Files (x86)\Microsoft Visual Studio\2019\Community\VC\Tools\MSVC\14.29.30133\atlmfc\include\afxtempl.h
; File D:\git\src\IBK\IBK_DRFN\ProjSrc\SrcChartEx\ChartOCX\GraphDraw\GraphDrawerImplementation.cpp
; File C:\Program Files (x86)\Microsoft Visual Studio\2019\Community\VC\Tools\MSVC\14.29.30133\atlmfc\include\cstringt.h
; File D:\git\src\IBK\IBK_DRFN\ProjSrc\SrcChartEx\ChartOCX\GraphDraw\GraphDrawerImplementation.cpp
; File C:\Program Files (x86)\Microsoft Visual Studio\2019\Community\VC\Tools\MSVC\14.29.30133\atlmfc\include\cstringt.h
; File D:\git\src\IBK\IBK_DRFN\ProjSrc\SrcChartEx\ChartOCX\GraphDraw\GraphDrawerImplementation.cpp
; File C:\Program Files (x86)\Microsoft Visual Studio\2019\Community\VC\Tools\MSVC\14.29.30133\atlmfc\include\afxwin1.inl
; File D:\git\src\IBK\IBK_DRFN\ProjSrc\SrcChartEx\ChartOCX\GraphDraw\GraphDrawerImplementation.cpp
;	COMDAT ?DrawGraph@CGraphDrawerImplementation@@QAE_NPAVCDC@@ABVCDrawingGraphData@@ABVCSubGraphData@@ABV?$CStringT@DV?$StrTraitMFC_DLL@DV?$ChTraitsCRT@D@ATL@@@@@ATL@@PAVCXScaleManager@@@Z
_TEXT	SEGMENT
$T2 = -112						; size = 4
_strRQ$GSCopy$1$ = -108					; size = 4
$T3 = -104						; size = 8
_dataRealEnd$1$ = -100					; size = 4
_pos$1$ = -96						; size = 4
$T4 = -92						; size = 4
$T5 = -88						; size = 4
_rgn$ = -84						; size = 8
_pxScaleManager$GSCopy$1$ = -76				; size = 4
_pDraw$1$ = -72						; size = 4
_nMaxDataCount$1$ = -68					; size = 4
_realDisplayAttributes$ = -64				; size = 8
_subGraphData$GSCopy$1$ = -56				; size = 4
$T6 = -56						; size = 4
$T7 = -56						; size = 4
_PacketList$1$ = -52					; size = 4
$T8 = -52						; size = 4
_drawingGraphData$GSCopy$1$ = -48			; size = 4
$T9 = -44						; size = 4
_pDC$GSCopy$1$ = -40					; size = 4
$T10 = -33						; size = 1
_realDrawingRegion$11 = -32				; size = 16
__$ArrayPad$ = -16					; size = 4
__$EHRec$ = -12						; size = 12
_pDC$ = 8						; size = 4
_drawingGraphData$ = 12					; size = 4
_subGraphData$ = 16					; size = 4
_strRQ$ = 20						; size = 4
_pxScaleManager$ = 24					; size = 4
?DrawGraph@CGraphDrawerImplementation@@QAE_NPAVCDC@@ABVCDrawingGraphData@@ABVCSubGraphData@@ABV?$CStringT@DV?$StrTraitMFC_DLL@DV?$ChTraitsCRT@D@ATL@@@@@ATL@@PAVCXScaleManager@@@Z PROC ; CGraphDrawerImplementation::DrawGraph, COMDAT
; _this$ = ecx

; 32   : {

  00000	55		 push	 ebp
  00001	8b ec		 mov	 ebp, esp
  00003	6a ff		 push	 -1
  00005	68 00 00 00 00	 push	 __ehhandler$?DrawGraph@CGraphDrawerImplementation@@QAE_NPAVCDC@@ABVCDrawingGraphData@@ABVCSubGraphData@@ABV?$CStringT@DV?$StrTraitMFC_DLL@DV?$ChTraitsCRT@D@ATL@@@@@ATL@@PAVCXScaleManager@@@Z
  0000a	64 a1 00 00 00
	00		 mov	 eax, DWORD PTR fs:0
  00010	50		 push	 eax
  00011	83 ec 64	 sub	 esp, 100		; 00000064H
  00014	a1 00 00 00 00	 mov	 eax, DWORD PTR ___security_cookie
  00019	33 c5		 xor	 eax, ebp
  0001b	89 45 f0	 mov	 DWORD PTR __$ArrayPad$[ebp], eax
  0001e	56		 push	 esi
  0001f	57		 push	 edi
  00020	50		 push	 eax
  00021	8d 45 f4	 lea	 eax, DWORD PTR __$EHRec$[ebp]
  00024	64 a3 00 00 00
	00		 mov	 DWORD PTR fs:0, eax
  0002a	8b 45 08	 mov	 eax, DWORD PTR _pDC$[ebp]
  0002d	8b 7d 0c	 mov	 edi, DWORD PTR _drawingGraphData$[ebp]

; 33   : 
; 34   : 	if(drawingGraphData.GetSubGraphPacketList() == NULL)

  00030	8b cf		 mov	 ecx, edi
  00032	8b 75 10	 mov	 esi, DWORD PTR _subGraphData$[ebp]
  00035	89 45 d8	 mov	 DWORD PTR _pDC$GSCopy$1$[ebp], eax
  00038	8b 45 14	 mov	 eax, DWORD PTR _strRQ$[ebp]
  0003b	89 45 94	 mov	 DWORD PTR _strRQ$GSCopy$1$[ebp], eax
  0003e	8b 45 18	 mov	 eax, DWORD PTR _pxScaleManager$[ebp]
  00041	89 45 b4	 mov	 DWORD PTR _pxScaleManager$GSCopy$1$[ebp], eax
  00044	33 c0		 xor	 eax, eax
  00046	89 7d d0	 mov	 DWORD PTR _drawingGraphData$GSCopy$1$[ebp], edi
  00049	89 75 c8	 mov	 DWORD PTR _subGraphData$GSCopy$1$[ebp], esi
  0004c	89 45 d4	 mov	 DWORD PTR $T9[ebp], eax
  0004f	89 45 a8	 mov	 DWORD PTR $T5[ebp], eax
  00052	e8 00 00 00 00	 call	 ?GetSubGraphPacketList@CDrawingGraphData@@QBEPAVCSubGraphPacketList@@XZ ; CDrawingGraphData::GetSubGraphPacketList
  00057	85 c0		 test	 eax, eax
  00059	0f 84 d3 02 00
	00		 je	 $LN57@DrawGraph

; 35   : 		return false;
; 36   : 
; 37   : 	CDraw* pDraw = CDrawSingleton::Find( subGraphData.GetType(), subGraphData.GetStyle(), drawingGraphData);

  0005f	57		 push	 edi
  00060	8d 45 90	 lea	 eax, DWORD PTR $T2[ebp]
  00063	8b ce		 mov	 ecx, esi
  00065	50		 push	 eax
  00066	ff 15 00 00 00
	00		 call	 DWORD PTR __imp_?GetStyle@CSubGraphDataBase@@QBE?AVCGraphStyle@@XZ
  0006c	50		 push	 eax
  0006d	8b ce		 mov	 ecx, esi
  0006f	ff 15 00 00 00
	00		 call	 DWORD PTR __imp_?GetType@CSubGraphDataBase@@QBE?AW4GRAPHTYPE@CGraphBaseData@@XZ
  00075	50		 push	 eax
  00076	e8 00 00 00 00	 call	 ?Find@CDrawSingleton@@SAPAVCDraw@@W4GRAPHTYPE@CGraphBaseData@@AAVCGraphStyle@@ABVCDrawingGraphData@@@Z ; CDrawSingleton::Find
  0007b	83 c4 0c	 add	 esp, 12			; 0000000cH
  0007e	89 45 b8	 mov	 DWORD PTR _pDraw$1$[ebp], eax

; 38   : 	if(pDraw == NULL) 

  00081	85 c0		 test	 eax, eax
  00083	0f 84 a9 02 00
	00		 je	 $LN57@DrawGraph

; 40   : 
; 41   : 	// (2006/10/11 - Seung-Won, Bae) Use Clipping
; 42   : 	CRect rctNoFrameRegion = drawingGraphData.GetGraphRegions().GetNoFrameRegion();

  00089	8b cf		 mov	 ecx, edi
  0008b	e8 00 00 00 00	 call	 ?GetGraphRegions@CDrawingGraphData@@QBEABVCGraphRegions@@XZ ; CDrawingGraphData::GetGraphRegions
; File D:\git\src\IBK\IBK_DRFN\ProjSrc\SrcChartEx\ChartOCX\Include_Chart\BaseData.h

; 93   : 	CRect	GetNoFrameRegion() const			{	return m_rctNoFrameRegion;	}

  00090	0f 10 48 14	 movups	 xmm1, XMMWORD PTR [eax+20]
; File C:\Program Files (x86)\Microsoft Visual Studio\2019\Community\VC\Tools\MSVC\14.29.30133\atlmfc\include\afxwin1.inl

; 70   : 	{ m_hObject = NULL; }

  00094	c7 45 b0 00 00
	00 00		 mov	 DWORD PTR _rgn$[ebp+4], 0

; 264  : 	{ }

  0009b	c7 45 ac 00 00
	00 00		 mov	 DWORD PTR _rgn$[ebp], OFFSET ??_7CRgn@@6B@

; 268  : 	{ return Attach(::CreateRectRgn(x1, y1, x2, y2)); }

  000a2	0f 28 c1	 movaps	 xmm0, xmm1
; File D:\git\src\IBK\IBK_DRFN\ProjSrc\SrcChartEx\ChartOCX\GraphDraw\GraphDrawerImplementation.cpp

; 47   : 	CRgn rgn;

  000a5	c7 45 fc 00 00
	00 00		 mov	 DWORD PTR __$EHRec$[ebp+8], 0
; File C:\Program Files (x86)\Microsoft Visual Studio\2019\Community\VC\Tools\MSVC\14.29.30133\atlmfc\include\afxwin1.inl

; 268  : 	{ return Attach(::CreateRectRgn(x1, y1, x2, y2)); }

  000ac	66 0f 73 d8 0c	 psrldq	 xmm0, 12		; 0000000cH
  000b1	66 0f 7e c0	 movd	 eax, xmm0
  000b5	0f 28 c1	 movaps	 xmm0, xmm1
  000b8	66 0f 73 d8 08	 psrldq	 xmm0, 8
  000bd	50		 push	 eax
  000be	66 0f 7e c0	 movd	 eax, xmm0
  000c2	0f 28 c1	 movaps	 xmm0, xmm1
  000c5	66 0f 73 d8 04	 psrldq	 xmm0, 4
  000ca	50		 push	 eax
  000cb	66 0f 7e c0	 movd	 eax, xmm0
  000cf	50		 push	 eax
  000d0	66 0f 7e c8	 movd	 eax, xmm1
  000d4	50		 push	 eax
  000d5	ff 15 00 00 00
	00		 call	 DWORD PTR __imp__CreateRectRgn@16
  000db	50		 push	 eax
  000dc	8d 4d ac	 lea	 ecx, DWORD PTR _rgn$[ebp]
  000df	e8 00 00 00 00	 call	 ?Attach@CGdiObject@@QAEHPAX@Z ; CGdiObject::Attach
; File D:\git\src\IBK\IBK_DRFN\ProjSrc\SrcChartEx\ChartOCX\GraphDraw\GraphDrawerImplementation.cpp

; 49   : 	pDC->SelectClipRgn( &rgn);

  000e4	8b 4d d8	 mov	 ecx, DWORD PTR _pDC$GSCopy$1$[ebp]
  000e7	8d 45 ac	 lea	 eax, DWORD PTR _rgn$[ebp]
  000ea	50		 push	 eax
  000eb	e8 00 00 00 00	 call	 ?SelectClipRgn@CDC@@QAEHPAVCRgn@@@Z ; CDC::SelectClipRgn

; 50   : 
; 51   : 	// graph 그리기
; 52   : 	const CList< CPacket *, CPacket *> &PacketList = drawingGraphData.GetSubGraphPacketList()->GetSubGraphPacketList();

  000f0	8b cf		 mov	 ecx, edi
  000f2	e8 00 00 00 00	 call	 ?GetSubGraphPacketList@CDrawingGraphData@@QBEPAVCSubGraphPacketList@@XZ ; CDrawingGraphData::GetSubGraphPacketList
  000f7	8b c8		 mov	 ecx, eax
  000f9	e8 00 00 00 00	 call	 ?GetSubGraphPacketList@CSubGraphPacketList@@QBEABV?$CList@PAVCPacket@@PAV1@@@XZ ; CSubGraphPacketList::GetSubGraphPacketList
  000fe	89 45 cc	 mov	 DWORD PTR _PacketList$1$[ebp], eax

; 53   : 	CDisplayAttributes realDisplayAttributes = drawingGraphData.GetDisplayAttributes();

  00101	8b cf		 mov	 ecx, edi
  00103	8d 45 c0	 lea	 eax, DWORD PTR _realDisplayAttributes$[ebp]
  00106	50		 push	 eax
  00107	e8 00 00 00 00	 call	 ?GetDisplayAttributes@CDrawingGraphData@@QBE?AVCDisplayAttributes@@XZ ; CDrawingGraphData::GetDisplayAttributes

; 54   : 	int dataRealEnd = GetDisplayDataEnd(subGraphData.GetType(), realDisplayAttributes.GetDataEndInBlock(), PacketList);

  0010c	8b ce		 mov	 ecx, esi
  0010e	ff 15 00 00 00
	00		 call	 DWORD PTR __imp_?GetType@CSubGraphDataBase@@QBE?AW4GRAPHTYPE@CGraphBaseData@@XZ
  00114	8d 4d c0	 lea	 ecx, DWORD PTR _realDisplayAttributes$[ebp]
  00117	8b f8		 mov	 edi, eax
  00119	e8 00 00 00 00	 call	 ?GetDataEndInBlock@CDisplayAttributes@@QBEHXZ ; CDisplayAttributes::GetDataEndInBlock
  0011e	8b f0		 mov	 esi, eax
  00120	89 75 9c	 mov	 DWORD PTR _dataRealEnd$1$[ebp], esi

; 140  : 	if(eGraphType == CGraphBaseData::Special_Type || eGraphType == CGraphBaseData::FuOp_Type)

  00123	83 ff 04	 cmp	 edi, 4
  00126	0f 84 f7 00 00
	00		 je	 $LN23@DrawGraph
  0012c	83 ff 07	 cmp	 edi, 7
  0012f	0f 84 ee 00 00
	00		 je	 $LN23@DrawGraph

; 141  : 		return nOrgEnd;
; 142  : 
; 143  : 	int nMaxDataCount = 0;
; 144  : 	POSITION pos = PacketList.GetHeadPosition();

  00135	8b 4d cc	 mov	 ecx, DWORD PTR _PacketList$1$[ebp]
  00138	33 c0		 xor	 eax, eax
  0013a	89 45 bc	 mov	 DWORD PTR _nMaxDataCount$1$[ebp], eax
  0013d	8b 49 04	 mov	 ecx, DWORD PTR [ecx+4]

; 145  : 	while(pos != NULL){

  00140	85 c9		 test	 ecx, ecx
  00142	0f 84 d5 00 00
	00		 je	 $LN21@DrawGraph
$LL20@DrawGraph:

; 146  : 		CPacket* pPacket = PacketList.GetNext(pos);

  00148	8b 79 08	 mov	 edi, DWORD PTR [ecx+8]
; File C:\Program Files (x86)\Microsoft Visual Studio\2019\Community\VC\Tools\MSVC\14.29.30133\atlmfc\include\afxtempl.h

; 819  : 		rPosition = (POSITION) pNode->pNext;

  0014b	8b 09		 mov	 ecx, DWORD PTR [ecx]
  0014d	89 4d a0	 mov	 DWORD PTR _pos$1$[ebp], ecx
; File D:\git\src\IBK\IBK_DRFN\ProjSrc\SrcChartEx\ChartOCX\GraphDraw\GraphDrawerImplementation.cpp

; 147  : 		if(pPacket == NULL)

  00150	85 ff		 test	 edi, edi
  00152	0f 84 d2 01 00
	00		 je	 $LN53@DrawGraph

; 151  : 		if(pPacket->GetType() == _MTEXT( C6_CHARACTER))

  00158	6a 01		 push	 1
  0015a	8d 45 cc	 lea	 eax, DWORD PTR $T8[ebp]
  0015d	8b cf		 mov	 ecx, edi
  0015f	50		 push	 eax
  00160	ff 15 00 00 00
	00		 call	 DWORD PTR __imp_?GetType@CPacket@@QAE?AV?$CStringT@DV?$StrTraitMFC_DLL@DV?$ChTraitsCRT@D@ATL@@@@@ATL@@_N@Z
  00166	8b 0d 54 00 00
	00		 mov	 ecx, DWORD PTR ?g_iMetaTable@@3VIMetaTable@@A+84
  0016c	c6 45 fc 01	 mov	 BYTE PTR __$EHRec$[ebp+8], 1
; File C:\Program Files (x86)\Microsoft Visual Studio\2019\Community\VC\Tools\MSVC\14.29.30133\atlmfc\include\cstringt.h

; 2486 : 		return(str1.Compare(psz2) == 0);

  00170	ff b1 60 09 00
	00		 push	 DWORD PTR [ecx+2400]
  00176	8b c8		 mov	 ecx, eax
  00178	ff 15 00 00 00
	00		 call	 DWORD PTR __imp_?Compare@?$CStringT@DV?$StrTraitMFC_DLL@DV?$ChTraitsCRT@D@ATL@@@@@ATL@@QBEHPBD@Z
; File D:\git\src\IBK\IBK_DRFN\ProjSrc\SrcChartEx\ChartOCX\GraphDraw\GraphDrawerImplementation.cpp

; 151  : 		if(pPacket->GetType() == _MTEXT( C6_CHARACTER))

  0017e	8d 4d cc	 lea	 ecx, DWORD PTR $T8[ebp]
  00181	c6 45 fc 00	 mov	 BYTE PTR __$EHRec$[ebp+8], 0
; File C:\Program Files (x86)\Microsoft Visual Studio\2019\Community\VC\Tools\MSVC\14.29.30133\atlmfc\include\cstringt.h

; 2486 : 		return(str1.Compare(psz2) == 0);

  00185	8b f0		 mov	 esi, eax
; File D:\git\src\IBK\IBK_DRFN\ProjSrc\SrcChartEx\ChartOCX\GraphDraw\GraphDrawerImplementation.cpp

; 151  : 		if(pPacket->GetType() == _MTEXT( C6_CHARACTER))

  00187	ff 15 00 00 00
	00		 call	 DWORD PTR __imp_??1?$CStringT@DV?$StrTraitMFC_DLL@DV?$ChTraitsCRT@D@ATL@@@@@ATL@@QAE@XZ
  0018d	8b cf		 mov	 ecx, edi
  0018f	85 f6		 test	 esi, esi
  00191	75 08		 jne	 SHORT $LN25@DrawGraph

; 152  : 			nDataCount = pPacket->GetstrDataList()->GetCount();

  00193	ff 15 00 00 00
	00		 call	 DWORD PTR __imp_?GetstrDataList@CPacket@@QAEPAV?$CList@V?$CStringT@DV?$StrTraitMFC_DLL@DV?$ChTraitsCRT@D@ATL@@@@@ATL@@V12@@@XZ
  00199	eb 06		 jmp	 SHORT $LN59@DrawGraph
$LN25@DrawGraph:

; 153  : 		else
; 154  : 			nDataCount = pPacket->GetnumericDataList()->GetCount();

  0019b	ff 15 00 00 00
	00		 call	 DWORD PTR __imp_?GetnumericDataList@CPacket@@QAEPAV?$CList@NN@@XZ
$LN59@DrawGraph:

; 155  : 
; 156  : 		// "대기매물" 일 경우
; 157  : // (2006.12.06) Seunghwan Ahn
; 158  : 		if( g_iMetaTable.IsVolumeForSale(pPacket->GetName()) && nDataCount >= 2)

  001a1	8b 70 0c	 mov	 esi, DWORD PTR [eax+12]
  001a4	8b cf		 mov	 ecx, edi
  001a6	8d 45 a4	 lea	 eax, DWORD PTR $T4[ebp]
  001a9	50		 push	 eax
  001aa	ff 15 00 00 00
	00		 call	 DWORD PTR __imp_?GetName@CPacket@@QAE?AV?$CStringT@DV?$StrTraitMFC_DLL@DV?$ChTraitsCRT@D@ATL@@@@@ATL@@XZ
  001b0	8b 4d d4	 mov	 ecx, DWORD PTR $T9[ebp]
  001b3	83 c9 01	 or	 ecx, 1
  001b6	c6 45 fc 02	 mov	 BYTE PTR __$EHRec$[ebp+8], 2
  001ba	89 4d d4	 mov	 DWORD PTR $T9[ebp], ecx
  001bd	89 4d a8	 mov	 DWORD PTR $T5[ebp], ecx
  001c0	b9 00 00 00 00	 mov	 ecx, OFFSET ?g_iMetaTable@@3VIMetaTable@@A ; g_iMetaTable
  001c5	50		 push	 eax
  001c6	e8 00 00 00 00	 call	 ?IsVolumeForSale@IMetaTable@@QAEHABV?$CStringT@DV?$StrTraitMFC_DLL@DV?$ChTraitsCRT@D@ATL@@@@@ATL@@@Z ; IMetaTable::IsVolumeForSale
  001cb	85 c0		 test	 eax, eax
  001cd	74 09		 je	 SHORT $LN30@DrawGraph
  001cf	c6 45 df 01	 mov	 BYTE PTR $T10[ebp], 1
  001d3	83 fe 02	 cmp	 esi, 2
  001d6	7d 04		 jge	 SHORT $LN31@DrawGraph
$LN30@DrawGraph:
  001d8	c6 45 df 00	 mov	 BYTE PTR $T10[ebp], 0
$LN31@DrawGraph:
  001dc	8b 45 d4	 mov	 eax, DWORD PTR $T9[ebp]
  001df	c7 45 fc 00 00
	00 00		 mov	 DWORD PTR __$EHRec$[ebp+8], 0
  001e6	a8 01		 test	 al, 1
  001e8	74 0f		 je	 SHORT $LN35@DrawGraph
  001ea	83 e0 fe	 and	 eax, -2			; fffffffeH
  001ed	8d 4d a4	 lea	 ecx, DWORD PTR $T4[ebp]
  001f0	89 45 d4	 mov	 DWORD PTR $T9[ebp], eax
  001f3	ff 15 00 00 00
	00		 call	 DWORD PTR __imp_??1?$CStringT@DV?$StrTraitMFC_DLL@DV?$ChTraitsCRT@D@ATL@@@@@ATL@@QAE@XZ
$LN35@DrawGraph:
  001f9	80 7d df 00	 cmp	 BYTE PTR $T10[ebp], 0
  001fd	0f 85 1f 01 00
	00		 jne	 $LN54@DrawGraph

; 145  : 	while(pos != NULL){

  00203	3b 75 bc	 cmp	 esi, DWORD PTR _nMaxDataCount$1$[ebp]
  00206	8b 4d a0	 mov	 ecx, DWORD PTR _pos$1$[ebp]
  00209	0f 4e 75 bc	 cmovle	 esi, DWORD PTR _nMaxDataCount$1$[ebp]
  0020d	89 75 bc	 mov	 DWORD PTR _nMaxDataCount$1$[ebp], esi
  00210	8b c6		 mov	 eax, esi
  00212	85 c9		 test	 ecx, ecx
  00214	0f 85 2e ff ff
	ff		 jne	 $LL20@DrawGraph

; 155  : 
; 156  : 		// "대기매물" 일 경우
; 157  : // (2006.12.06) Seunghwan Ahn
; 158  : 		if( g_iMetaTable.IsVolumeForSale(pPacket->GetName()) && nDataCount >= 2)

  0021a	8b 75 9c	 mov	 esi, DWORD PTR _dataRealEnd$1$[ebp]
$LN21@DrawGraph:

; 162  : 
; 163  : 		if(nDataCount > nMaxDataCount)
; 164  : 			nMaxDataCount = nDataCount;
; 165  : 	}
; 166  : 
; 167  : 	int nDataEndIndex = nMaxDataCount -1;

  0021d	48		 dec	 eax

; 168  : 	return (nDataEndIndex < nOrgEnd ? nDataEndIndex : nOrgEnd);

  0021e	3b c6		 cmp	 eax, esi
  00220	0f 4c f0	 cmovl	 esi, eax
$LN23@DrawGraph:

; 55   : 	if( 0 <= realDisplayAttributes.GetDataStartInBlock() && 0 <= dataRealEnd) 

  00223	8d 4d c0	 lea	 ecx, DWORD PTR _realDisplayAttributes$[ebp]
  00226	e8 00 00 00 00	 call	 ?GetDataStartInBlock@CDisplayAttributes@@QBEHXZ ; CDisplayAttributes::GetDataStartInBlock
  0022b	85 c0		 test	 eax, eax
  0022d	0f 88 dc 00 00
	00		 js	 $LN7@DrawGraph
  00233	85 f6		 test	 esi, esi
  00235	0f 88 d4 00 00
	00		 js	 $LN7@DrawGraph

; 174  : 	if(subGraphData.GetType() != CGraphBaseData::Bar_Type)

  0023b	8b 7d c8	 mov	 edi, DWORD PTR _subGraphData$GSCopy$1$[ebp]
  0023e	8b cf		 mov	 ecx, edi
  00240	ff 15 00 00 00
	00		 call	 DWORD PTR __imp_?GetType@CSubGraphDataBase@@QBE?AW4GRAPHTYPE@CGraphBaseData@@XZ
  00246	83 f8 02	 cmp	 eax, 2
  00249	75 1a		 jne	 SHORT $LN40@DrawGraph

; 175  : 		return false;
; 176  : 
; 177  : 	// <Bar_Type>의 <FixedRateCombBar : 고정비율빗형식> 일 경우만 RealEnd 값으로 변경한다.
; 178  : 	if(subGraphData.GetStyle().GetGraphBarStyle() != CGraphBaseData::FixedRateCombBar)

  0024b	8d 45 c8	 lea	 eax, DWORD PTR $T6[ebp]
  0024e	8b cf		 mov	 ecx, edi
  00250	50		 push	 eax
  00251	ff 15 00 00 00
	00		 call	 DWORD PTR __imp_?GetStyle@CSubGraphDataBase@@QBE?AVCGraphStyle@@XZ
  00257	83 38 0e	 cmp	 DWORD PTR [eax], 14	; 0000000eH
  0025a	75 09		 jne	 SHORT $LN40@DrawGraph

; 179  : 		return false;
; 180  : 
; 181  : 	displayAttributes.SetDataEndInBlock(nDataEnd);

  0025c	56		 push	 esi
  0025d	8d 4d c0	 lea	 ecx, DWORD PTR _realDisplayAttributes$[ebp]
  00260	e8 00 00 00 00	 call	 ?SetDataEndInBlock@CDisplayAttributes@@QAEXH@Z ; CDisplayAttributes::SetDataEndInBlock
$LN40@DrawGraph:

; 56   : 	{
; 57   : 		// graph style 에 따라 displyaAttribute 가 변경된다.
; 58   : 		GetDisplayAttributes(subGraphData, dataRealEnd, realDisplayAttributes);
; 59   : 
; 60   : 		CRect realDrawingRegion = drawingGraphData.GetGraphRegions().GetDrawingRegion( subGraphData.GetType(), subGraphData.GetStyle());

  00265	8d 45 c8	 lea	 eax, DWORD PTR $T7[ebp]
  00268	8b cf		 mov	 ecx, edi
  0026a	50		 push	 eax
  0026b	ff 15 00 00 00
	00		 call	 DWORD PTR __imp_?GetStyle@CSubGraphDataBase@@QBE?AVCGraphStyle@@XZ
  00271	50		 push	 eax
  00272	8b cf		 mov	 ecx, edi
  00274	ff 15 00 00 00
	00		 call	 DWORD PTR __imp_?GetType@CSubGraphDataBase@@QBE?AW4GRAPHTYPE@CGraphBaseData@@XZ
  0027a	8b 75 d0	 mov	 esi, DWORD PTR _drawingGraphData$GSCopy$1$[ebp]
  0027d	8b ce		 mov	 ecx, esi
  0027f	50		 push	 eax
  00280	8d 45 e0	 lea	 eax, DWORD PTR _realDrawingRegion$11[ebp]
  00283	50		 push	 eax
  00284	e8 00 00 00 00	 call	 ?GetGraphRegions@CDrawingGraphData@@QBEABVCGraphRegions@@XZ ; CDrawingGraphData::GetGraphRegions
  00289	8b c8		 mov	 ecx, eax
  0028b	e8 00 00 00 00	 call	 ?GetDrawingRegion@CGraphRegions@@QBE?AVCRect@@W4GRAPHTYPE@CGraphBaseData@@ABVCGraphStyle@@@Z ; CGraphRegions::GetDrawingRegion

; 61   : 		BOOL bResult2 =pDraw->DrawGraph(pDC, realDrawingRegion, realDisplayAttributes, drawingGraphData, subGraphData, strRQ, pxScaleManager);

  00290	ff 75 b4	 push	 DWORD PTR _pxScaleManager$GSCopy$1$[ebp]
  00293	8b 4d b8	 mov	 ecx, DWORD PTR _pDraw$1$[ebp]
  00296	8d 55 c0	 lea	 edx, DWORD PTR _realDisplayAttributes$[ebp]
  00299	ff 75 94	 push	 DWORD PTR _strRQ$GSCopy$1$[ebp]
  0029c	57		 push	 edi
  0029d	8b 01		 mov	 eax, DWORD PTR [ecx]
  0029f	56		 push	 esi
  002a0	52		 push	 edx
  002a1	8d 55 e0	 lea	 edx, DWORD PTR _realDrawingRegion$11[ebp]
  002a4	8b 40 04	 mov	 eax, DWORD PTR [eax+4]
  002a7	52		 push	 edx
  002a8	ff 75 d8	 push	 DWORD PTR _pDC$GSCopy$1$[ebp]
  002ab	ff d0		 call	 eax
  002ad	0f b6 f0	 movzx	 esi, al

; 62   : 		if(bResult2 == false)

  002b0	84 c0		 test	 al, al
  002b2	75 1c		 jne	 SHORT $LN5@DrawGraph

; 63   : 			bResult2 = pDraw->DrawGraph(pDC, realDrawingRegion, realDisplayAttributes, drawingGraphData, subGraphData);

  002b4	8b 4d b8	 mov	 ecx, DWORD PTR _pDraw$1$[ebp]
  002b7	8d 55 c0	 lea	 edx, DWORD PTR _realDisplayAttributes$[ebp]
  002ba	57		 push	 edi
  002bb	ff 75 d0	 push	 DWORD PTR _drawingGraphData$GSCopy$1$[ebp]
  002be	8b 01		 mov	 eax, DWORD PTR [ecx]
  002c0	52		 push	 edx
  002c1	8d 55 e0	 lea	 edx, DWORD PTR _realDrawingRegion$11[ebp]
  002c4	52		 push	 edx
  002c5	ff 75 d8	 push	 DWORD PTR _pDC$GSCopy$1$[ebp]
  002c8	8b 40 08	 mov	 eax, DWORD PTR [eax+8]
  002cb	ff d0		 call	 eax
  002cd	0f b6 f0	 movzx	 esi, al
$LN5@DrawGraph:

; 64   :  
; 65   : 		pDC->SelectClipRgn(NULL);

  002d0	8b 4d d8	 mov	 ecx, DWORD PTR _pDC$GSCopy$1$[ebp]
  002d3	6a 00		 push	 0
  002d5	e8 00 00 00 00	 call	 ?SelectClipRgn@CDC@@QAEHPAVCRgn@@@Z ; CDC::SelectClipRgn

; 66   : 		if( !bResult2) return true;

  002da	85 f6		 test	 esi, esi
  002dc	74 31		 je	 SHORT $LN7@DrawGraph

; 67   : 
; 68   : 		// (2009/2/19 - Seung-Won, Bae) Do not draw on caclulation-thread.
; 69   : 		if( pxScaleManager->GetThreadFlag() == THREAD_DRAWING)

  002de	8b 4d b4	 mov	 ecx, DWORD PTR _pxScaleManager$GSCopy$1$[ebp]
  002e1	8b 01		 mov	 eax, DWORD PTR [ecx]
  002e3	8b 80 f8 00 00
	00		 mov	 eax, DWORD PTR [eax+248]
  002e9	ff d0		 call	 eax
  002eb	83 f8 02	 cmp	 eax, 2
  002ee	75 1f		 jne	 SHORT $LN7@DrawGraph

; 133  : 	CGraphDataDrawer().DrawGraphDatas(pDC, realDrawingRegion, realDisplayAttributes, drawingGraphData, subGraphData);

  002f0	57		 push	 edi
  002f1	ff 75 d0	 push	 DWORD PTR _drawingGraphData$GSCopy$1$[ebp]
  002f4	8d 45 c0	 lea	 eax, DWORD PTR _realDisplayAttributes$[ebp]
  002f7	0f 57 c0	 xorps	 xmm0, xmm0
  002fa	50		 push	 eax
  002fb	8d 45 e0	 lea	 eax, DWORD PTR _realDrawingRegion$11[ebp]
  002fe	66 0f 13 45 98	 movlpd	 QWORD PTR $T3[ebp], xmm0
  00303	50		 push	 eax
  00304	ff 75 d8	 push	 DWORD PTR _pDC$GSCopy$1$[ebp]
  00307	8d 4d 98	 lea	 ecx, DWORD PTR $T3[ebp]
  0030a	e8 00 00 00 00	 call	 ?DrawGraphDatas@CGraphDataDrawer@@QAEXPAVCDC@@ABVCRect@@ABVCDisplayAttributes@@ABVCDrawingGraphData@@ABVCSubGraphData@@@Z ; CGraphDataDrawer::DrawGraphDatas
$LN7@DrawGraph:
; File C:\Program Files (x86)\Microsoft Visual Studio\2019\Community\VC\Tools\MSVC\14.29.30133\atlmfc\include\afxwin1.inl

; 266  : 	{ }

  0030f	8d 4d ac	 lea	 ecx, DWORD PTR _rgn$[ebp]
  00312	c7 45 ac 00 00
	00 00		 mov	 DWORD PTR _rgn$[ebp], OFFSET ??_7CRgn@@6B@
  00319	e8 00 00 00 00	 call	 ??1CGdiObject@@UAE@XZ	; CGdiObject::~CGdiObject
; File D:\git\src\IBK\IBK_DRFN\ProjSrc\SrcChartEx\ChartOCX\GraphDraw\GraphDrawerImplementation.cpp

; 73   : 	return true;

  0031e	b0 01		 mov	 al, 1
  00320	eb 12		 jmp	 SHORT $LN1@DrawGraph
$LN54@DrawGraph:

; 161  : 			return (nDataCount - 2);

  00322	83 c6 fe	 add	 esi, -2			; fffffffeH
  00325	e9 f9 fe ff ff	 jmp	 $LN23@DrawGraph
$LN53@DrawGraph:

; 148  : 			return -1;

  0032a	83 ce ff	 or	 esi, -1
  0032d	e9 f1 fe ff ff	 jmp	 $LN23@DrawGraph
$LN57@DrawGraph:

; 39   : 		return false;

  00332	32 c0		 xor	 al, al
$LN1@DrawGraph:

; 74   : }

  00334	8b 4d f4	 mov	 ecx, DWORD PTR __$EHRec$[ebp]
  00337	64 89 0d 00 00
	00 00		 mov	 DWORD PTR fs:0, ecx
  0033e	59		 pop	 ecx
  0033f	5f		 pop	 edi
  00340	5e		 pop	 esi
  00341	8b 4d f0	 mov	 ecx, DWORD PTR __$ArrayPad$[ebp]
  00344	33 cd		 xor	 ecx, ebp
  00346	e8 00 00 00 00	 call	 @__security_check_cookie@4
  0034b	8b e5		 mov	 esp, ebp
  0034d	5d		 pop	 ebp
  0034e	c2 14 00	 ret	 20			; 00000014H
_TEXT	ENDS
;	COMDAT text$x
text$x	SEGMENT
__unwindfunclet$?DrawGraph@CGraphDrawerImplementation@@QAE_NPAVCDC@@ABVCDrawingGraphData@@ABVCSubGraphData@@ABV?$CStringT@DV?$StrTraitMFC_DLL@DV?$ChTraitsCRT@D@ATL@@@@@ATL@@PAVCXScaleManager@@@Z$0:
  00000	8d 4d ac	 lea	 ecx, DWORD PTR _rgn$[ebp]
  00003	e9 00 00 00 00	 jmp	 ??1CRgn@@UAE@XZ		; CRgn::~CRgn
__unwindfunclet$?DrawGraph@CGraphDrawerImplementation@@QAE_NPAVCDC@@ABVCDrawingGraphData@@ABVCSubGraphData@@ABV?$CStringT@DV?$StrTraitMFC_DLL@DV?$ChTraitsCRT@D@ATL@@@@@ATL@@PAVCXScaleManager@@@Z$1:
  00008	8d 4d cc	 lea	 ecx, DWORD PTR $T8[ebp]
  0000b	ff 25 00 00 00
	00		 jmp	 DWORD PTR __imp_??1?$CStringT@DV?$StrTraitMFC_DLL@DV?$ChTraitsCRT@D@ATL@@@@@ATL@@QAE@XZ
__unwindfunclet$?DrawGraph@CGraphDrawerImplementation@@QAE_NPAVCDC@@ABVCDrawingGraphData@@ABVCSubGraphData@@ABV?$CStringT@DV?$StrTraitMFC_DLL@DV?$ChTraitsCRT@D@ATL@@@@@ATL@@PAVCXScaleManager@@@Z$2:
  00011	8b 45 a8	 mov	 eax, DWORD PTR $T5[ebp]
  00014	83 e0 01	 and	 eax, 1
  00017	0f 84 0d 00 00
	00		 je	 $LN34@DrawGraph
  0001d	83 65 a8 fe	 and	 DWORD PTR $T5[ebp], -2	; fffffffeH
  00021	8d 4d a4	 lea	 ecx, DWORD PTR $T4[ebp]
  00024	ff 25 00 00 00
	00		 jmp	 DWORD PTR __imp_??1?$CStringT@DV?$StrTraitMFC_DLL@DV?$ChTraitsCRT@D@ATL@@@@@ATL@@QAE@XZ
$LN34@DrawGraph:
  0002a	c3		 ret	 0
  0002b	cc		 int	 3
  0002c	cc		 int	 3
  0002d	cc		 int	 3
  0002e	cc		 int	 3
  0002f	cc		 int	 3
__ehhandler$?DrawGraph@CGraphDrawerImplementation@@QAE_NPAVCDC@@ABVCDrawingGraphData@@ABVCSubGraphData@@ABV?$CStringT@DV?$StrTraitMFC_DLL@DV?$ChTraitsCRT@D@ATL@@@@@ATL@@PAVCXScaleManager@@@Z:
  00030	90		 npad	 1
  00031	90		 npad	 1
  00032	8b 54 24 08	 mov	 edx, DWORD PTR [esp+8]
  00036	8d 42 0c	 lea	 eax, DWORD PTR [edx+12]
  00039	8b 4a 90	 mov	 ecx, DWORD PTR [edx-112]
  0003c	33 c8		 xor	 ecx, eax
  0003e	e8 00 00 00 00	 call	 @__security_check_cookie@4
  00043	8b 4a fc	 mov	 ecx, DWORD PTR [edx-4]
  00046	33 c8		 xor	 ecx, eax
  00048	e8 00 00 00 00	 call	 @__security_check_cookie@4
  0004d	b8 00 00 00 00	 mov	 eax, OFFSET __ehfuncinfo$?DrawGraph@CGraphDrawerImplementation@@QAE_NPAVCDC@@ABVCDrawingGraphData@@ABVCSubGraphData@@ABV?$CStringT@DV?$StrTraitMFC_DLL@DV?$ChTraitsCRT@D@ATL@@@@@ATL@@PAVCXScaleManager@@@Z
  00052	e9 00 00 00 00	 jmp	 ___CxxFrameHandler3
text$x	ENDS
?DrawGraph@CGraphDrawerImplementation@@QAE_NPAVCDC@@ABVCDrawingGraphData@@ABVCSubGraphData@@ABV?$CStringT@DV?$StrTraitMFC_DLL@DV?$ChTraitsCRT@D@ATL@@@@@ATL@@PAVCXScaleManager@@@Z ENDP ; CGraphDrawerImplementation::DrawGraph
; Function compile flags: /Ogtp
; File D:\git\src\IBK\IBK_DRFN\ProjSrc\SrcChartEx\ChartOCX\GraphDraw\GraphDrawerImplementation.cpp
;	COMDAT ?DrawGraphTitle@CGraphDrawerImplementation@@QAE_NPAVCDC@@ABVCDrawingGraphData@@ABVCSubGraphData@@AAH3@Z
_TEXT	SEGMENT
$T2 = -20						; size = 8
__$EHRec$ = -12						; size = 12
_pDC$ = 8						; size = 4
_drawingGraphData$ = 12					; size = 4
_subGraphData$ = 16					; size = 4
_nTitleEndPosition$ = 20				; size = 4
_nTitleEndLine$ = 24					; size = 4
?DrawGraphTitle@CGraphDrawerImplementation@@QAE_NPAVCDC@@ABVCDrawingGraphData@@ABVCSubGraphData@@AAH3@Z PROC ; CGraphDrawerImplementation::DrawGraphTitle, COMDAT
; _this$ = ecx

; 125  : {

  00000	55		 push	 ebp
  00001	8b ec		 mov	 ebp, esp
  00003	6a ff		 push	 -1
  00005	68 00 00 00 00	 push	 __ehhandler$?DrawGraphTitle@CGraphDrawerImplementation@@QAE_NPAVCDC@@ABVCDrawingGraphData@@ABVCSubGraphData@@AAH3@Z
  0000a	64 a1 00 00 00
	00		 mov	 eax, DWORD PTR fs:0
  00010	50		 push	 eax
  00011	83 ec 08	 sub	 esp, 8
  00014	53		 push	 ebx
  00015	a1 00 00 00 00	 mov	 eax, DWORD PTR ___security_cookie
  0001a	33 c5		 xor	 eax, ebp
  0001c	50		 push	 eax
  0001d	8d 45 f4	 lea	 eax, DWORD PTR __$EHRec$[ebp]
  00020	64 a3 00 00 00
	00		 mov	 DWORD PTR fs:0, eax

; 126  : 	// 타이틀 여러줄로 표시 : 복수종목 - ojtaso (20070227)
; 127  : 	return CGraphTitleDrawer().DrawGraphTitle(pDC, drawingGraphData, subGraphData, nTitleEndPosition, nTitleEndLine);

  00026	8d 4d ec	 lea	 ecx, DWORD PTR $T2[ebp]
  00029	e8 00 00 00 00	 call	 ??0CGraphTitleDrawer@@QAE@XZ ; CGraphTitleDrawer::CGraphTitleDrawer
  0002e	ff 75 18	 push	 DWORD PTR _nTitleEndLine$[ebp]
  00031	8b c8		 mov	 ecx, eax
  00033	c7 45 fc 00 00
	00 00		 mov	 DWORD PTR __$EHRec$[ebp+8], 0
  0003a	ff 75 14	 push	 DWORD PTR _nTitleEndPosition$[ebp]
  0003d	ff 75 10	 push	 DWORD PTR _subGraphData$[ebp]
  00040	ff 75 0c	 push	 DWORD PTR _drawingGraphData$[ebp]
  00043	ff 75 08	 push	 DWORD PTR _pDC$[ebp]
  00046	e8 00 00 00 00	 call	 ?DrawGraphTitle@CGraphTitleDrawer@@QAE_NPAVCDC@@ABVCDrawingGraphData@@ABVCSubGraphData@@AAH3@Z ; CGraphTitleDrawer::DrawGraphTitle
  0004b	8d 4d f0	 lea	 ecx, DWORD PTR $T2[ebp+4]
  0004e	8a d8		 mov	 bl, al
  00050	ff 15 00 00 00
	00		 call	 DWORD PTR __imp_??1?$CStringT@DV?$StrTraitMFC_DLL@DV?$ChTraitsCRT@D@ATL@@@@@ATL@@QAE@XZ
  00056	8d 4d ec	 lea	 ecx, DWORD PTR $T2[ebp]
  00059	ff 15 00 00 00
	00		 call	 DWORD PTR __imp_??1?$CStringT@DV?$StrTraitMFC_DLL@DV?$ChTraitsCRT@D@ATL@@@@@ATL@@QAE@XZ
  0005f	8a c3		 mov	 al, bl

; 128  : }

  00061	8b 4d f4	 mov	 ecx, DWORD PTR __$EHRec$[ebp]
  00064	64 89 0d 00 00
	00 00		 mov	 DWORD PTR fs:0, ecx
  0006b	59		 pop	 ecx
  0006c	5b		 pop	 ebx
  0006d	8b e5		 mov	 esp, ebp
  0006f	5d		 pop	 ebp
  00070	c2 14 00	 ret	 20			; 00000014H
_TEXT	ENDS
;	COMDAT text$x
text$x	SEGMENT
__unwindfunclet$?DrawGraphTitle@CGraphDrawerImplementation@@QAE_NPAVCDC@@ABVCDrawingGraphData@@ABVCSubGraphData@@AAH3@Z$0:
  00000	8d 4d ec	 lea	 ecx, DWORD PTR $T2[ebp]
  00003	e9 00 00 00 00	 jmp	 ??1CGraphTitleDrawer@@QAE@XZ
  00008	cc		 int	 3
  00009	cc		 int	 3
  0000a	cc		 int	 3
  0000b	cc		 int	 3
  0000c	cc		 int	 3
__ehhandler$?DrawGraphTitle@CGraphDrawerImplementation@@QAE_NPAVCDC@@ABVCDrawingGraphData@@ABVCSubGraphData@@AAH3@Z:
  0000d	90		 npad	 1
  0000e	90		 npad	 1
  0000f	8b 54 24 08	 mov	 edx, DWORD PTR [esp+8]
  00013	8d 42 0c	 lea	 eax, DWORD PTR [edx+12]
  00016	8b 4a f0	 mov	 ecx, DWORD PTR [edx-16]
  00019	33 c8		 xor	 ecx, eax
  0001b	e8 00 00 00 00	 call	 @__security_check_cookie@4
  00020	b8 00 00 00 00	 mov	 eax, OFFSET __ehfuncinfo$?DrawGraphTitle@CGraphDrawerImplementation@@QAE_NPAVCDC@@ABVCDrawingGraphData@@ABVCSubGraphData@@AAH3@Z
  00025	e9 00 00 00 00	 jmp	 ___CxxFrameHandler3
text$x	ENDS
?DrawGraphTitle@CGraphDrawerImplementation@@QAE_NPAVCDC@@ABVCDrawingGraphData@@ABVCSubGraphData@@AAH3@Z ENDP ; CGraphDrawerImplementation::DrawGraphTitle
; Function compile flags: /Ogtp
; File C:\Program Files (x86)\Microsoft Visual Studio\2019\Community\VC\Tools\MSVC\14.29.30133\atlmfc\include\afxwin1.inl
; File C:\Program Files (x86)\Microsoft Visual Studio\2019\Community\VC\Tools\MSVC\14.29.30133\atlmfc\include\afx.inl
;	COMDAT ??_GCRgn@@UAEPAXI@Z
_TEXT	SEGMENT
___flags$ = 8						; size = 4
??_GCRgn@@UAEPAXI@Z PROC				; CRgn::`scalar deleting destructor', COMDAT
; _this$ = ecx
  00000	55		 push	 ebp
  00001	8b ec		 mov	 ebp, esp
; File C:\Program Files (x86)\Microsoft Visual Studio\2019\Community\VC\Tools\MSVC\14.29.30133\atlmfc\include\afxwin1.inl

; 266  : 	{ }

  00003	56		 push	 esi
  00004	8b f1		 mov	 esi, ecx
  00006	c7 06 00 00 00
	00		 mov	 DWORD PTR [esi], OFFSET ??_7CRgn@@6B@
  0000c	e8 00 00 00 00	 call	 ??1CGdiObject@@UAE@XZ	; CGdiObject::~CGdiObject
  00011	8b 45 08	 mov	 eax, DWORD PTR ___flags$[ebp]
  00014	a8 01		 test	 al, 1
  00016	74 1f		 je	 SHORT $LN12@scalar
  00018	a8 04		 test	 al, 4
  0001a	75 10		 jne	 SHORT $LN3@scalar
; File C:\Program Files (x86)\Microsoft Visual Studio\2019\Community\VC\Tools\MSVC\14.29.30133\atlmfc\include\afx.inl

; 112  : 	{ ::operator delete(p); }

  0001c	56		 push	 esi
  0001d	e8 00 00 00 00	 call	 ??3@YAXPAX@Z		; operator delete
  00022	83 c4 04	 add	 esp, 4
  00025	8b c6		 mov	 eax, esi
  00027	5e		 pop	 esi
  00028	5d		 pop	 ebp
  00029	c2 04 00	 ret	 4
$LN3@scalar:
  0002c	6a 08		 push	 8
  0002e	56		 push	 esi
  0002f	e8 00 00 00 00	 call	 ?__global_delete@@YAXPAXI@Z ; __global_delete
  00034	83 c4 08	 add	 esp, 8
$LN12@scalar:
  00037	8b c6		 mov	 eax, esi
  00039	5e		 pop	 esi
  0003a	5d		 pop	 ebp
  0003b	c2 04 00	 ret	 4
??_GCRgn@@UAEPAXI@Z ENDP				; CRgn::`scalar deleting destructor'
_TEXT	ENDS
; Function compile flags: /Ogtp
; File C:\Program Files (x86)\Microsoft Visual Studio\2019\Community\VC\Tools\MSVC\14.29.30133\atlmfc\include\afxwin1.inl
;	COMDAT ??1CRgn@@UAE@XZ
_TEXT	SEGMENT
??1CRgn@@UAE@XZ PROC					; CRgn::~CRgn, COMDAT
; _this$ = ecx

; 266  : 	{ }

  00000	c7 01 00 00 00
	00		 mov	 DWORD PTR [ecx], OFFSET ??_7CRgn@@6B@
  00006	e9 00 00 00 00	 jmp	 ??1CGdiObject@@UAE@XZ	; CGdiObject::~CGdiObject
??1CRgn@@UAE@XZ ENDP					; CRgn::~CRgn
_TEXT	ENDS
; Function compile flags: /Ogtp
; File C:\Program Files (x86)\Microsoft Visual Studio\2019\Community\VC\Tools\MSVC\14.29.30133\atlmfc\include\afx.inl
;	COMDAT ??_GCGdiObject@@UAEPAXI@Z
_TEXT	SEGMENT
___flags$ = 8						; size = 4
??_GCGdiObject@@UAEPAXI@Z PROC				; CGdiObject::`scalar deleting destructor', COMDAT
; _this$ = ecx
  00000	55		 push	 ebp
  00001	8b ec		 mov	 ebp, esp
  00003	56		 push	 esi
  00004	8b f1		 mov	 esi, ecx
  00006	e8 00 00 00 00	 call	 ??1CGdiObject@@UAE@XZ	; CGdiObject::~CGdiObject
  0000b	8b 45 08	 mov	 eax, DWORD PTR ___flags$[ebp]
  0000e	a8 01		 test	 al, 1
  00010	74 1f		 je	 SHORT $LN9@scalar
  00012	a8 04		 test	 al, 4
  00014	75 10		 jne	 SHORT $LN3@scalar

; 112  : 	{ ::operator delete(p); }

  00016	56		 push	 esi
  00017	e8 00 00 00 00	 call	 ??3@YAXPAX@Z		; operator delete
  0001c	83 c4 04	 add	 esp, 4
  0001f	8b c6		 mov	 eax, esi
  00021	5e		 pop	 esi
  00022	5d		 pop	 ebp
  00023	c2 04 00	 ret	 4
$LN3@scalar:
  00026	6a 08		 push	 8
  00028	56		 push	 esi
  00029	e8 00 00 00 00	 call	 ?__global_delete@@YAXPAXI@Z ; __global_delete
  0002e	83 c4 08	 add	 esp, 8
$LN9@scalar:
  00031	8b c6		 mov	 eax, esi
  00033	5e		 pop	 esi
  00034	5d		 pop	 ebp
  00035	c2 04 00	 ret	 4
??_GCGdiObject@@UAEPAXI@Z ENDP				; CGdiObject::`scalar deleting destructor'
_TEXT	ENDS
; Function compile flags: /Ogtp
; File C:\Program Files (x86)\Microsoft Visual Studio\2019\Community\VC\Tools\MSVC\14.29.30133\atlmfc\include\afxwin1.inl
;	COMDAT ??1CGdiObject@@UAE@XZ
_TEXT	SEGMENT
_pException$2 = -540					; size = 4
_strMsg$3 = -536					; size = 4
_szErrorMessage$4 = -532				; size = 512
__$ArrayPad$ = -20					; size = 4
__$EHRec$ = -16						; size = 16
??1CGdiObject@@UAE@XZ PROC				; CGdiObject::~CGdiObject, COMDAT
; _this$ = ecx

; 74   : {

  00000	55		 push	 ebp
  00001	8b ec		 mov	 ebp, esp
  00003	6a ff		 push	 -1
  00005	68 00 00 00 00	 push	 __ehhandler$??1CGdiObject@@UAE@XZ
  0000a	64 a1 00 00 00
	00		 mov	 eax, DWORD PTR fs:0
  00010	50		 push	 eax
  00011	81 ec 10 02 00
	00		 sub	 esp, 528		; 00000210H
  00017	a1 00 00 00 00	 mov	 eax, DWORD PTR ___security_cookie
  0001c	33 c5		 xor	 eax, ebp
  0001e	89 45 ec	 mov	 DWORD PTR __$ArrayPad$[ebp], eax
  00021	53		 push	 ebx
  00022	56		 push	 esi
  00023	57		 push	 edi
  00024	50		 push	 eax
  00025	8d 45 f4	 lea	 eax, DWORD PTR __$EHRec$[ebp+4]
  00028	64 a3 00 00 00
	00		 mov	 DWORD PTR fs:0, eax
  0002e	89 65 f0	 mov	 DWORD PTR __$EHRec$[ebp], esp
  00031	c7 01 00 00 00
	00		 mov	 DWORD PTR [ecx], OFFSET ??_7CGdiObject@@6B@

; 75   : 	AFX_BEGIN_DESTRUCTOR

  00037	c7 45 fc 00 00
	00 00		 mov	 DWORD PTR __$EHRec$[ebp+12], 0

; 76   : 	DeleteObject();

  0003e	e8 00 00 00 00	 call	 ?DeleteObject@CGdiObject@@QAEHXZ ; CGdiObject::DeleteObject
$LN18@CGdiObject:

; 78   : }

  00043	8b 4d f4	 mov	 ecx, DWORD PTR __$EHRec$[ebp+4]
  00046	64 89 0d 00 00
	00 00		 mov	 DWORD PTR fs:0, ecx
  0004d	59		 pop	 ecx
  0004e	5f		 pop	 edi
  0004f	5e		 pop	 esi
  00050	5b		 pop	 ebx
  00051	8b 4d ec	 mov	 ecx, DWORD PTR __$ArrayPad$[ebp]
  00054	33 cd		 xor	 ecx, ebp
  00056	e8 00 00 00 00	 call	 @__security_check_cookie@4
  0005b	8b e5		 mov	 esp, ebp
  0005d	5d		 pop	 ebp
  0005e	c3		 ret	 0
__catch$??1CGdiObject@@UAE@XZ$0:

; 77   : 	AFX_END_DESTRUCTOR

  0005f	8d 8d e8 fd ff
	ff		 lea	 ecx, DWORD PTR _strMsg$3[ebp]
  00065	ff 15 00 00 00
	00		 call	 DWORD PTR __imp_??0?$CStringT@DV?$StrTraitMFC_DLL@DV?$ChTraitsCRT@D@ATL@@@@@ATL@@QAE@XZ
  0006b	8b b5 e4 fd ff
	ff		 mov	 esi, DWORD PTR _pException$2[ebp]
  00071	8d 8d ec fd ff
	ff		 lea	 ecx, DWORD PTR _szErrorMessage$4[ebp]
  00077	6a 00		 push	 0
  00079	68 00 02 00 00	 push	 512			; 00000200H
  0007e	51		 push	 ecx
  0007f	8b 06		 mov	 eax, DWORD PTR [esi]
  00081	8b ce		 mov	 ecx, esi
  00083	c6 45 fc 02	 mov	 BYTE PTR __$EHRec$[ebp+12], 2
  00087	ff 50 14	 call	 DWORD PTR [eax+20]
  0008a	85 c0		 test	 eax, eax
  0008c	74 2a		 je	 SHORT $LN9@CGdiObject
  0008e	8d 85 ec fd ff
	ff		 lea	 eax, DWORD PTR _szErrorMessage$4[ebp]
  00094	50		 push	 eax
  00095	6a 4d		 push	 77			; 0000004dH
  00097	68 00 00 00 00	 push	 OFFSET ??_C@_0HD@JJCHHHNK@C?3?2Program?5Files?5?$CIx86?$CJ?2Microsof@
  0009c	68 00 00 00 00	 push	 OFFSET ??_C@_0BP@OIEOKIDM@Exception?5thrown?5in?5destructor@
  000a1	8d 85 e8 fd ff
	ff		 lea	 eax, DWORD PTR _strMsg$3[ebp]
  000a7	68 00 00 00 00	 push	 OFFSET ??_C@_0BB@HBOOMJBF@?$CFTs?5?$CI?$CFTs?3?$CFd?$CJ?6?$CFTs@
  000ac	50		 push	 eax
  000ad	ff 15 00 00 00
	00		 call	 DWORD PTR __imp_?Format@?$CStringT@DV?$StrTraitMFC_DLL@DV?$ChTraitsCRT@D@ATL@@@@@ATL@@QAAXPBDZZ
  000b3	83 c4 18	 add	 esp, 24			; 00000018H
  000b6	eb 21		 jmp	 SHORT $LN10@CGdiObject
$LN9@CGdiObject:
  000b8	6a 4d		 push	 77			; 0000004dH
  000ba	68 00 00 00 00	 push	 OFFSET ??_C@_0HD@JJCHHHNK@C?3?2Program?5Files?5?$CIx86?$CJ?2Microsof@
  000bf	68 00 00 00 00	 push	 OFFSET ??_C@_0BP@OIEOKIDM@Exception?5thrown?5in?5destructor@
  000c4	8d 85 e8 fd ff
	ff		 lea	 eax, DWORD PTR _strMsg$3[ebp]
  000ca	68 00 00 00 00	 push	 OFFSET ??_C@_0N@OMEMOKLE@?$CFTs?5?$CI?$CFTs?3?$CFd?$CJ@
  000cf	50		 push	 eax
  000d0	ff 15 00 00 00
	00		 call	 DWORD PTR __imp_?Format@?$CStringT@DV?$StrTraitMFC_DLL@DV?$ChTraitsCRT@D@ATL@@@@@ATL@@QAAXPBDZZ
  000d6	83 c4 14	 add	 esp, 20			; 00000014H
$LN10@CGdiObject:
  000d9	6a 00		 push	 0
  000db	6a 00		 push	 0
  000dd	ff b5 e8 fd ff
	ff		 push	 DWORD PTR _strMsg$3[ebp]
  000e3	e8 00 00 00 00	 call	 ?AfxMessageBox@@YGHPBDII@Z ; AfxMessageBox
  000e8	8d 8d e8 fd ff
	ff		 lea	 ecx, DWORD PTR _strMsg$3[ebp]
  000ee	ff 15 00 00 00
	00		 call	 DWORD PTR __imp_??1?$CStringT@DV?$StrTraitMFC_DLL@DV?$ChTraitsCRT@D@ATL@@@@@ATL@@QAE@XZ
  000f4	8b 06		 mov	 eax, DWORD PTR [esi]
  000f6	8b ce		 mov	 ecx, esi
  000f8	6a 01		 push	 1
  000fa	ff 50 04	 call	 DWORD PTR [eax+4]
  000fd	b8 00 00 00 00	 mov	 eax, $LN18@CGdiObject
  00102	c3		 ret	 0
_TEXT	ENDS
;	COMDAT text$x
text$x	SEGMENT
__unwindfunclet$??1CGdiObject@@UAE@XZ$2:
  00000	8d 8d e8 fd ff
	ff		 lea	 ecx, DWORD PTR _strMsg$3[ebp]
  00006	ff 25 00 00 00
	00		 jmp	 DWORD PTR __imp_??1?$CStringT@DV?$StrTraitMFC_DLL@DV?$ChTraitsCRT@D@ATL@@@@@ATL@@QAE@XZ
  0000c	cc		 int	 3
  0000d	cc		 int	 3
  0000e	cc		 int	 3
  0000f	cc		 int	 3
  00010	cc		 int	 3
__ehhandler$??1CGdiObject@@UAE@XZ:
  00011	90		 npad	 1
  00012	90		 npad	 1
  00013	8b 54 24 08	 mov	 edx, DWORD PTR [esp+8]
  00017	8d 42 0c	 lea	 eax, DWORD PTR [edx+12]
  0001a	8b 8a e0 fd ff
	ff		 mov	 ecx, DWORD PTR [edx-544]
  00020	33 c8		 xor	 ecx, eax
  00022	e8 00 00 00 00	 call	 @__security_check_cookie@4
  00027	8b 4a f8	 mov	 ecx, DWORD PTR [edx-8]
  0002a	33 c8		 xor	 ecx, eax
  0002c	e8 00 00 00 00	 call	 @__security_check_cookie@4
  00031	b8 00 00 00 00	 mov	 eax, OFFSET __ehfuncinfo$??1CGdiObject@@UAE@XZ
  00036	e9 00 00 00 00	 jmp	 ___CxxFrameHandler3
text$x	ENDS
??1CGdiObject@@UAE@XZ ENDP				; CGdiObject::~CGdiObject
; Function compile flags: /Ogtp
; File C:\Program Files (x86)\Microsoft Visual Studio\2019\Community\VC\Tools\MSVC\14.29.30133\atlmfc\include\afx.inl
;	COMDAT ?Dump@CObject@@UBEXAAVCDumpContext@@@Z
_TEXT	SEGMENT
___formal$ = 8						; size = 4
?Dump@CObject@@UBEXAAVCDumpContext@@@Z PROC		; CObject::Dump, COMDAT
; _this$ = ecx

; 122  : 	{ /* no dumping in release builds */ }

  00000	c2 04 00	 ret	 4
?Dump@CObject@@UBEXAAVCDumpContext@@@Z ENDP		; CObject::Dump
_TEXT	ENDS
; Function compile flags: /Ogtp
; File C:\Program Files (x86)\Microsoft Visual Studio\2019\Community\VC\Tools\MSVC\14.29.30133\atlmfc\include\afx.inl
;	COMDAT ?AssertValid@CObject@@UBEXXZ
_TEXT	SEGMENT
?AssertValid@CObject@@UBEXXZ PROC			; CObject::AssertValid, COMDAT
; _this$ = ecx

; 120  : 	{ /* no asserts in release builds */ }

  00000	c2 00 00	 ret	 0
?AssertValid@CObject@@UBEXXZ ENDP			; CObject::AssertValid
_TEXT	ENDS
; Function compile flags: /Ogtp
; File C:\Program Files (x86)\Microsoft Visual Studio\2019\Community\VC\Tools\MSVC\14.29.30133\atlmfc\include\afx.inl
;	COMDAT ?Serialize@CObject@@UAEXAAVCArchive@@@Z
_TEXT	SEGMENT
___formal$ = 8						; size = 4
?Serialize@CObject@@UAEXAAVCArchive@@@Z PROC		; CObject::Serialize, COMDAT
; _this$ = ecx

; 106  : 	{ /* CObject does not serialize anything by default */ }

  00000	c2 04 00	 ret	 4
?Serialize@CObject@@UAEXAAVCArchive@@@Z ENDP		; CObject::Serialize
_TEXT	ENDS
; Function compile flags: /Ogtp
; File C:\Program Files (x86)\Microsoft Visual Studio\2019\Community\VC\Tools\MSVC\14.29.30133\atlmfc\include\afx.inl
;	COMDAT ??1CObject@@UAE@XZ
_TEXT	SEGMENT
??1CObject@@UAE@XZ PROC					; CObject::~CObject, COMDAT
; _this$ = ecx

; 104  : 	{ }

  00000	c2 00 00	 ret	 0
??1CObject@@UAE@XZ ENDP					; CObject::~CObject
_TEXT	ENDS
; Function compile flags: /Ogtp
; File D:\git\src\IBK\IBK_DRFN\ProjSrc\SrcChartEx\ChartOCX\GraphDraw\GraphDrawerImplementation.cpp
;	COMDAT ?__empty_global_delete@@YAXPAXI@Z
_TEXT	SEGMENT
___formal$ = 8						; size = 4
___formal$ = 12						; size = 4
?__empty_global_delete@@YAXPAXI@Z PROC			; __empty_global_delete, COMDAT

  00000	c2 00 00	 ret	 0
?__empty_global_delete@@YAXPAXI@Z ENDP			; __empty_global_delete
_TEXT	ENDS
; Function compile flags: /Ogtp
; File D:\git\src\IBK\IBK_DRFN\ProjSrc\SrcChartEx\ChartOCX\GraphDraw\GraphDrawerImplementation.cpp
;	COMDAT ?__empty_global_delete@@YAXPAX@Z
_TEXT	SEGMENT
___formal$ = 8						; size = 4
?__empty_global_delete@@YAXPAX@Z PROC			; __empty_global_delete, COMDAT

  00000	c2 00 00	 ret	 0
?__empty_global_delete@@YAXPAX@Z ENDP			; __empty_global_delete
_TEXT	ENDS
END
