; Listing generated by Microsoft (R) Optimizing Compiler Version 19.29.30145.0 

	TITLE	D:\git\src\IBK\IBK_DRFN\#DRfn-CS\_Obj\GraphDraw\GraphDrawer.obj
	.686P
	.XMM
	include listing.inc
	.model	flat

INCLUDELIB MSVCRT
INCLUDELIB OLDNAMES

PUBLIC	?__empty_global_delete@@YAXPAX@Z		; __empty_global_delete
PUBLIC	?__empty_global_delete@@YAXPAXI@Z		; __empty_global_delete
PUBLIC	?DrawGraphTitle@CGraphDrawer@@QAE_NPAVCDC@@ABVCDrawingGraphData@@ABVCSubGraphData@@AAH3@Z ; CGraphDrawer::DrawGraphTitle
PUBLIC	?DrawGraph@CGraphDrawer@@QAE_NPAVCDC@@ABVCDrawingGraphData@@ABVCSubGraphData@@ABV?$CStringT@DV?$StrTraitMFC_DLL@DV?$ChTraitsCRT@D@ATL@@@@@ATL@@PAVCXScaleManager@@@Z ; CGraphDrawer::DrawGraph
PUBLIC	?DrawSignal@CGraphDrawer@@QAEXPAVCDC@@ABVCDrawingGraphData@@PBV?$CList@NN@@AAVCSignalData@@ABV?$CStringT@DV?$StrTraitMFC_DLL@DV?$ChTraitsCRT@D@ATL@@@@@ATL@@PAVCXScaleManager@@@Z ; CGraphDrawer::DrawSignal
PUBLIC	?DrawGrip@CGraphDrawer@@QAE_NPAVCDC@@HABVCSelectSubGraphData@@@Z ; CGraphDrawer::DrawGrip
PUBLIC	?PointInSubGraph@CGraphDrawer@@QAEHABVCPoint@@ABVCSelectSubGraphData@@PAVCIndicatorList@@@Z ; CGraphDrawer::PointInSubGraph
PUBLIC	?GetTextInRightScaleRegionDrawer@CGraphDrawer@@QBE_NABVCTextInRightScaleRegionDrawer@@AAV?$CStringT@DV?$StrTraitMFC_DLL@DV?$ChTraitsCRT@D@ATL@@@@@ATL@@111@Z ; CGraphDrawer::GetTextInRightScaleRegionDrawer
PUBLIC	??4CGraphDrawer@@QAEAAV0@ABV0@@Z		; CGraphDrawer::operator=
PUBLIC	??4CGraphDrawer@@QAEAAV0@$$QAV0@@Z		; CGraphDrawer::operator=
EXTRN	?DrawGraphTitle@CGraphDrawerImplementation@@QAE_NPAVCDC@@ABVCDrawingGraphData@@ABVCSubGraphData@@AAH3@Z:PROC ; CGraphDrawerImplementation::DrawGraphTitle
EXTRN	?DrawGraph@CGraphDrawerImplementation@@QAE_NPAVCDC@@ABVCDrawingGraphData@@ABVCSubGraphData@@ABV?$CStringT@DV?$StrTraitMFC_DLL@DV?$ChTraitsCRT@D@ATL@@@@@ATL@@PAVCXScaleManager@@@Z:PROC ; CGraphDrawerImplementation::DrawGraph
EXTRN	?DrawSignal@CGraphDrawerImplementation@@QAEXPAVCDC@@ABVCDrawingGraphData@@PBV?$CList@NN@@AAVCSignalData@@ABV?$CStringT@DV?$StrTraitMFC_DLL@DV?$ChTraitsCRT@D@ATL@@@@@ATL@@PAVCXScaleManager@@@Z:PROC ; CGraphDrawerImplementation::DrawSignal
EXTRN	?DrawGrip@CGraphDrawerImplementation@@QAE_NPAVCDC@@HABVCSelectSubGraphData@@@Z:PROC ; CGraphDrawerImplementation::DrawGrip
EXTRN	?PointInSubGraph@CGraphDrawerImplementation@@QAEHABVCPoint@@ABVCSelectSubGraphData@@PAVCIndicatorList@@@Z:PROC ; CGraphDrawerImplementation::PointInSubGraph
EXTRN	?GetTextInRightScaleRegionDrawer@CGraphDrawerImplementation@@QBE_NABVCTextInRightScaleRegionDrawer@@AAV?$CStringT@DV?$StrTraitMFC_DLL@DV?$ChTraitsCRT@D@ATL@@@@@ATL@@111@Z:PROC ; CGraphDrawerImplementation::GetTextInRightScaleRegionDrawer
; Function compile flags: /Ogtp
;	COMDAT ??4CGraphDrawer@@QAEAAV0@$$QAV0@@Z
_TEXT	SEGMENT
___that$ = 8						; size = 4
??4CGraphDrawer@@QAEAAV0@$$QAV0@@Z PROC			; CGraphDrawer::operator=, COMDAT
; _this$ = ecx
  00000	8b c1		 mov	 eax, ecx
  00002	c2 04 00	 ret	 4
??4CGraphDrawer@@QAEAAV0@$$QAV0@@Z ENDP			; CGraphDrawer::operator=
_TEXT	ENDS
; Function compile flags: /Ogtp
;	COMDAT ??4CGraphDrawer@@QAEAAV0@ABV0@@Z
_TEXT	SEGMENT
___that$ = 8						; size = 4
??4CGraphDrawer@@QAEAAV0@ABV0@@Z PROC			; CGraphDrawer::operator=, COMDAT
; _this$ = ecx
  00000	8b c1		 mov	 eax, ecx
  00002	c2 04 00	 ret	 4
??4CGraphDrawer@@QAEAAV0@ABV0@@Z ENDP			; CGraphDrawer::operator=
_TEXT	ENDS
; Function compile flags: /Ogtp
; File D:\git\src\IBK\IBK_DRFN\ProjSrc\SrcChartEx\ChartOCX\GraphDraw\GraphDrawer.cpp
;	COMDAT ?GetTextInRightScaleRegionDrawer@CGraphDrawer@@QBE_NABVCTextInRightScaleRegionDrawer@@AAV?$CStringT@DV?$StrTraitMFC_DLL@DV?$ChTraitsCRT@D@ATL@@@@@ATL@@111@Z
_TEXT	SEGMENT
_textData$ = 8						; size = 4
_strCurPrice$ = 12					; size = 4
_strDiffPrice$ = 16					; size = 4
_strPipPrice$ = 20					; size = 4
_strRiseFallRate$ = 24					; size = 4
_graphDrawerImplementation$ = 27			; size = 1
?GetTextInRightScaleRegionDrawer@CGraphDrawer@@QBE_NABVCTextInRightScaleRegionDrawer@@AAV?$CStringT@DV?$StrTraitMFC_DLL@DV?$ChTraitsCRT@D@ATL@@@@@ATL@@111@Z PROC ; CGraphDrawer::GetTextInRightScaleRegionDrawer, COMDAT
; _this$ = ecx

; 69   : {

  00000	55		 push	 ebp
  00001	8b ec		 mov	 ebp, esp

; 70   : 	CGraphDrawerImplementation graphDrawerImplementation;
; 71   : 	return graphDrawerImplementation.GetTextInRightScaleRegionDrawer(textData, strCurPrice, strDiffPrice, strPipPrice, strRiseFallRate);

  00003	ff 75 18	 push	 DWORD PTR _strRiseFallRate$[ebp]
  00006	8d 4d 1b	 lea	 ecx, DWORD PTR _graphDrawerImplementation$[ebp]
  00009	ff 75 14	 push	 DWORD PTR _strPipPrice$[ebp]
  0000c	ff 75 10	 push	 DWORD PTR _strDiffPrice$[ebp]
  0000f	ff 75 0c	 push	 DWORD PTR _strCurPrice$[ebp]
  00012	ff 75 08	 push	 DWORD PTR _textData$[ebp]
  00015	e8 00 00 00 00	 call	 ?GetTextInRightScaleRegionDrawer@CGraphDrawerImplementation@@QBE_NABVCTextInRightScaleRegionDrawer@@AAV?$CStringT@DV?$StrTraitMFC_DLL@DV?$ChTraitsCRT@D@ATL@@@@@ATL@@111@Z ; CGraphDrawerImplementation::GetTextInRightScaleRegionDrawer

; 72   : }

  0001a	5d		 pop	 ebp
  0001b	c2 14 00	 ret	 20			; 00000014H
?GetTextInRightScaleRegionDrawer@CGraphDrawer@@QBE_NABVCTextInRightScaleRegionDrawer@@AAV?$CStringT@DV?$StrTraitMFC_DLL@DV?$ChTraitsCRT@D@ATL@@@@@ATL@@111@Z ENDP ; CGraphDrawer::GetTextInRightScaleRegionDrawer
_TEXT	ENDS
; Function compile flags: /Ogtp
; File D:\git\src\IBK\IBK_DRFN\ProjSrc\SrcChartEx\ChartOCX\GraphDraw\GraphDrawer.cpp
;	COMDAT ?PointInSubGraph@CGraphDrawer@@QAEHABVCPoint@@ABVCSelectSubGraphData@@PAVCIndicatorList@@@Z
_TEXT	SEGMENT
_point$ = 8						; size = 4
_selectSubGraphData$ = 12				; size = 4
_pIndicatorList$ = 16					; size = 4
_graphDrawerImplementation$ = 19			; size = 1
?PointInSubGraph@CGraphDrawer@@QAEHABVCPoint@@ABVCSelectSubGraphData@@PAVCIndicatorList@@@Z PROC ; CGraphDrawer::PointInSubGraph, COMDAT
; _this$ = ecx

; 62   : {

  00000	55		 push	 ebp
  00001	8b ec		 mov	 ebp, esp

; 63   : 	CGraphDrawerImplementation graphDrawerImplementation;
; 64   : 	return graphDrawerImplementation.PointInSubGraph(point, selectSubGraphData, pIndicatorList);

  00003	ff 75 10	 push	 DWORD PTR _pIndicatorList$[ebp]
  00006	8d 4d 13	 lea	 ecx, DWORD PTR _graphDrawerImplementation$[ebp]
  00009	ff 75 0c	 push	 DWORD PTR _selectSubGraphData$[ebp]
  0000c	ff 75 08	 push	 DWORD PTR _point$[ebp]
  0000f	e8 00 00 00 00	 call	 ?PointInSubGraph@CGraphDrawerImplementation@@QAEHABVCPoint@@ABVCSelectSubGraphData@@PAVCIndicatorList@@@Z ; CGraphDrawerImplementation::PointInSubGraph

; 65   : }

  00014	5d		 pop	 ebp
  00015	c2 0c 00	 ret	 12			; 0000000cH
?PointInSubGraph@CGraphDrawer@@QAEHABVCPoint@@ABVCSelectSubGraphData@@PAVCIndicatorList@@@Z ENDP ; CGraphDrawer::PointInSubGraph
_TEXT	ENDS
; Function compile flags: /Ogtp
; File D:\git\src\IBK\IBK_DRFN\ProjSrc\SrcChartEx\ChartOCX\GraphDraw\GraphDrawer.cpp
;	COMDAT ?DrawGrip@CGraphDrawer@@QAE_NPAVCDC@@HABVCSelectSubGraphData@@@Z
_TEXT	SEGMENT
_pDC$ = 8						; size = 4
_index$ = 12						; size = 4
_selectSubGraphData$ = 16				; size = 4
_graphDrawerImplementation$ = 19			; size = 1
?DrawGrip@CGraphDrawer@@QAE_NPAVCDC@@HABVCSelectSubGraphData@@@Z PROC ; CGraphDrawer::DrawGrip, COMDAT
; _this$ = ecx

; 56   : {

  00000	55		 push	 ebp
  00001	8b ec		 mov	 ebp, esp

; 57   : 	CGraphDrawerImplementation graphDrawerImplementation;
; 58   : 	return graphDrawerImplementation.DrawGrip(pDC, index, selectSubGraphData);

  00003	ff 75 10	 push	 DWORD PTR _selectSubGraphData$[ebp]
  00006	8d 4d 13	 lea	 ecx, DWORD PTR _graphDrawerImplementation$[ebp]
  00009	ff 75 0c	 push	 DWORD PTR _index$[ebp]
  0000c	ff 75 08	 push	 DWORD PTR _pDC$[ebp]
  0000f	e8 00 00 00 00	 call	 ?DrawGrip@CGraphDrawerImplementation@@QAE_NPAVCDC@@HABVCSelectSubGraphData@@@Z ; CGraphDrawerImplementation::DrawGrip

; 59   : }

  00014	5d		 pop	 ebp
  00015	c2 0c 00	 ret	 12			; 0000000cH
?DrawGrip@CGraphDrawer@@QAE_NPAVCDC@@HABVCSelectSubGraphData@@@Z ENDP ; CGraphDrawer::DrawGrip
_TEXT	ENDS
; Function compile flags: /Ogtp
; File D:\git\src\IBK\IBK_DRFN\ProjSrc\SrcChartEx\ChartOCX\GraphDraw\GraphDrawer.cpp
;	COMDAT ?DrawSignal@CGraphDrawer@@QAEXPAVCDC@@ABVCDrawingGraphData@@PBV?$CList@NN@@AAVCSignalData@@ABV?$CStringT@DV?$StrTraitMFC_DLL@DV?$ChTraitsCRT@D@ATL@@@@@ATL@@PAVCXScaleManager@@@Z
_TEXT	SEGMENT
_pDC$ = 8						; size = 4
_drawingGraphData$ = 12					; size = 4
_pSignalData$ = 16					; size = 4
_p_signalData$ = 20					; size = 4
_strRQ$ = 24						; size = 4
_pxScaleManager$ = 28					; size = 4
_graphDrawerImplementation$ = 31			; size = 1
?DrawSignal@CGraphDrawer@@QAEXPAVCDC@@ABVCDrawingGraphData@@PBV?$CList@NN@@AAVCSignalData@@ABV?$CStringT@DV?$StrTraitMFC_DLL@DV?$ChTraitsCRT@D@ATL@@@@@ATL@@PAVCXScaleManager@@@Z PROC ; CGraphDrawer::DrawSignal, COMDAT
; _this$ = ecx

; 50   : {

  00000	55		 push	 ebp
  00001	8b ec		 mov	 ebp, esp

; 51   : 	CGraphDrawerImplementation graphDrawerImplementation;
; 52   : 	graphDrawerImplementation.DrawSignal(pDC, drawingGraphData, pSignalData, p_signalData, strRQ, pxScaleManager);

  00003	ff 75 1c	 push	 DWORD PTR _pxScaleManager$[ebp]
  00006	8d 4d 1f	 lea	 ecx, DWORD PTR _graphDrawerImplementation$[ebp]
  00009	ff 75 18	 push	 DWORD PTR _strRQ$[ebp]
  0000c	ff 75 14	 push	 DWORD PTR _p_signalData$[ebp]
  0000f	ff 75 10	 push	 DWORD PTR _pSignalData$[ebp]
  00012	ff 75 0c	 push	 DWORD PTR _drawingGraphData$[ebp]
  00015	ff 75 08	 push	 DWORD PTR _pDC$[ebp]
  00018	e8 00 00 00 00	 call	 ?DrawSignal@CGraphDrawerImplementation@@QAEXPAVCDC@@ABVCDrawingGraphData@@PBV?$CList@NN@@AAVCSignalData@@ABV?$CStringT@DV?$StrTraitMFC_DLL@DV?$ChTraitsCRT@D@ATL@@@@@ATL@@PAVCXScaleManager@@@Z ; CGraphDrawerImplementation::DrawSignal

; 53   : }

  0001d	5d		 pop	 ebp
  0001e	c2 18 00	 ret	 24			; 00000018H
?DrawSignal@CGraphDrawer@@QAEXPAVCDC@@ABVCDrawingGraphData@@PBV?$CList@NN@@AAVCSignalData@@ABV?$CStringT@DV?$StrTraitMFC_DLL@DV?$ChTraitsCRT@D@ATL@@@@@ATL@@PAVCXScaleManager@@@Z ENDP ; CGraphDrawer::DrawSignal
_TEXT	ENDS
; Function compile flags: /Ogtp
; File D:\git\src\IBK\IBK_DRFN\ProjSrc\SrcChartEx\ChartOCX\GraphDraw\GraphDrawer.cpp
;	COMDAT ?DrawGraph@CGraphDrawer@@QAE_NPAVCDC@@ABVCDrawingGraphData@@ABVCSubGraphData@@ABV?$CStringT@DV?$StrTraitMFC_DLL@DV?$ChTraitsCRT@D@ATL@@@@@ATL@@PAVCXScaleManager@@@Z
_TEXT	SEGMENT
_pDC$ = 8						; size = 4
_drawingGraphData$ = 12					; size = 4
_subGraphData$ = 16					; size = 4
_strRQ$ = 20						; size = 4
_pxScaleManager$ = 24					; size = 4
_graphDrawerImplementation$ = 27			; size = 1
?DrawGraph@CGraphDrawer@@QAE_NPAVCDC@@ABVCDrawingGraphData@@ABVCSubGraphData@@ABV?$CStringT@DV?$StrTraitMFC_DLL@DV?$ChTraitsCRT@D@ATL@@@@@ATL@@PAVCXScaleManager@@@Z PROC ; CGraphDrawer::DrawGraph, COMDAT
; _this$ = ecx

; 39   : {

  00000	55		 push	 ebp
  00001	8b ec		 mov	 ebp, esp

; 40   : 	CGraphDrawerImplementation graphDrawerImplementation;
; 41   : 	return graphDrawerImplementation.DrawGraph(pDC, drawingGraphData, subGraphData, strRQ, pxScaleManager);

  00003	ff 75 18	 push	 DWORD PTR _pxScaleManager$[ebp]
  00006	8d 4d 1b	 lea	 ecx, DWORD PTR _graphDrawerImplementation$[ebp]
  00009	ff 75 14	 push	 DWORD PTR _strRQ$[ebp]
  0000c	ff 75 10	 push	 DWORD PTR _subGraphData$[ebp]
  0000f	ff 75 0c	 push	 DWORD PTR _drawingGraphData$[ebp]
  00012	ff 75 08	 push	 DWORD PTR _pDC$[ebp]
  00015	e8 00 00 00 00	 call	 ?DrawGraph@CGraphDrawerImplementation@@QAE_NPAVCDC@@ABVCDrawingGraphData@@ABVCSubGraphData@@ABV?$CStringT@DV?$StrTraitMFC_DLL@DV?$ChTraitsCRT@D@ATL@@@@@ATL@@PAVCXScaleManager@@@Z ; CGraphDrawerImplementation::DrawGraph

; 42   : }

  0001a	5d		 pop	 ebp
  0001b	c2 14 00	 ret	 20			; 00000014H
?DrawGraph@CGraphDrawer@@QAE_NPAVCDC@@ABVCDrawingGraphData@@ABVCSubGraphData@@ABV?$CStringT@DV?$StrTraitMFC_DLL@DV?$ChTraitsCRT@D@ATL@@@@@ATL@@PAVCXScaleManager@@@Z ENDP ; CGraphDrawer::DrawGraph
_TEXT	ENDS
; Function compile flags: /Ogtp
; File D:\git\src\IBK\IBK_DRFN\ProjSrc\SrcChartEx\ChartOCX\GraphDraw\GraphDrawer.cpp
;	COMDAT ?DrawGraphTitle@CGraphDrawer@@QAE_NPAVCDC@@ABVCDrawingGraphData@@ABVCSubGraphData@@AAH3@Z
_TEXT	SEGMENT
_pDC$ = 8						; size = 4
_drawingGraphData$ = 12					; size = 4
_subGraphData$ = 16					; size = 4
_titlePosition$ = 20					; size = 4
_titleLine$ = 24					; size = 4
_graphDrawerImplementation$ = 27			; size = 1
?DrawGraphTitle@CGraphDrawer@@QAE_NPAVCDC@@ABVCDrawingGraphData@@ABVCSubGraphData@@AAH3@Z PROC ; CGraphDrawer::DrawGraphTitle, COMDAT
; _this$ = ecx

; 27   : {

  00000	55		 push	 ebp
  00001	8b ec		 mov	 ebp, esp

; 28   : 	CGraphDrawerImplementation graphDrawerImplementation;
; 29   : 	// 타이틀 여러줄로 표시 : 복수종목 - ojtaso (20070227)
; 30   : 	return graphDrawerImplementation.DrawGraphTitle( pDC, drawingGraphData, subGraphData, titlePosition, titleLine);

  00003	ff 75 18	 push	 DWORD PTR _titleLine$[ebp]
  00006	8d 4d 1b	 lea	 ecx, DWORD PTR _graphDrawerImplementation$[ebp]
  00009	ff 75 14	 push	 DWORD PTR _titlePosition$[ebp]
  0000c	ff 75 10	 push	 DWORD PTR _subGraphData$[ebp]
  0000f	ff 75 0c	 push	 DWORD PTR _drawingGraphData$[ebp]
  00012	ff 75 08	 push	 DWORD PTR _pDC$[ebp]
  00015	e8 00 00 00 00	 call	 ?DrawGraphTitle@CGraphDrawerImplementation@@QAE_NPAVCDC@@ABVCDrawingGraphData@@ABVCSubGraphData@@AAH3@Z ; CGraphDrawerImplementation::DrawGraphTitle

; 31   : }

  0001a	5d		 pop	 ebp
  0001b	c2 14 00	 ret	 20			; 00000014H
?DrawGraphTitle@CGraphDrawer@@QAE_NPAVCDC@@ABVCDrawingGraphData@@ABVCSubGraphData@@AAH3@Z ENDP ; CGraphDrawer::DrawGraphTitle
_TEXT	ENDS
; Function compile flags: /Ogtp
; File D:\git\src\IBK\IBK_DRFN\ProjSrc\SrcChartEx\ChartOCX\GraphDraw\GraphDrawer.cpp
;	COMDAT ?__empty_global_delete@@YAXPAXI@Z
_TEXT	SEGMENT
___formal$ = 8						; size = 4
___formal$ = 12						; size = 4
?__empty_global_delete@@YAXPAXI@Z PROC			; __empty_global_delete, COMDAT

  00000	c2 00 00	 ret	 0
?__empty_global_delete@@YAXPAXI@Z ENDP			; __empty_global_delete
_TEXT	ENDS
; Function compile flags: /Ogtp
; File D:\git\src\IBK\IBK_DRFN\ProjSrc\SrcChartEx\ChartOCX\GraphDraw\GraphDrawer.cpp
;	COMDAT ?__empty_global_delete@@YAXPAX@Z
_TEXT	SEGMENT
___formal$ = 8						; size = 4
?__empty_global_delete@@YAXPAX@Z PROC			; __empty_global_delete, COMDAT

  00000	c2 00 00	 ret	 0
?__empty_global_delete@@YAXPAX@Z ENDP			; __empty_global_delete
_TEXT	ENDS
END
