; Listing generated by Microsoft (R) Optimizing Compiler Version 19.29.30145.0 

	TITLE	D:\git\src\IBK\IBK_DRFN\#DRfn-CS\_Obj\GraphDraw\GraphTitleDrawer.obj
	.686P
	.XMM
	include listing.inc
	.model	flat

INCLUDELIB MSVCRT
INCLUDELIB OLDNAMES

PUBLIC	?__empty_global_delete@@YAXPAX@Z		; __empty_global_delete
PUBLIC	?__empty_global_delete@@YAXPAXI@Z		; __empty_global_delete
PUBLIC	??1CObject@@UAE@XZ				; CObject::~CObject
PUBLIC	?Serialize@CObject@@UAEXAAVCArchive@@@Z		; CObject::Serialize
PUBLIC	?AssertValid@CObject@@UBEXXZ			; CObject::AssertValid
PUBLIC	?Dump@CObject@@UBEXAAVCDumpContext@@@Z		; CObject::Dump
PUBLIC	??HATL@@YA?AV?$CStringT@DV?$StrTraitMFC_DLL@DV?$ChTraitsCRT@D@ATL@@@@@0@ABV10@0@Z ; ATL::operator+
PUBLIC	??HATL@@YA?AV?$CStringT@DV?$StrTraitMFC_DLL@DV?$ChTraitsCRT@D@ATL@@@@@0@ABV10@D@Z ; ATL::operator+
PUBLIC	??1CGdiObject@@UAE@XZ				; CGdiObject::~CGdiObject
PUBLIC	??_GCGdiObject@@UAEPAXI@Z			; CGdiObject::`scalar deleting destructor'
PUBLIC	??1CPen@@UAE@XZ					; CPen::~CPen
PUBLIC	??_GCPen@@UAEPAXI@Z				; CPen::`scalar deleting destructor'
PUBLIC	??1CBrush@@UAE@XZ				; CBrush::~CBrush
PUBLIC	??_GCBrush@@UAEPAXI@Z				; CBrush::`scalar deleting destructor'
PUBLIC	??0CGraphTitleDrawer@@QAE@XZ			; CGraphTitleDrawer::CGraphTitleDrawer
PUBLIC	?DrawGraphTitle@CGraphTitleDrawer@@QAE_NPAVCDC@@ABVCDrawingGraphData@@ABVCSubGraphData@@AAH3@Z ; CGraphTitleDrawer::DrawGraphTitle
PUBLIC	?DrawGraphTitle@CGraphTitleDrawer@@AAE_NPAVCDC@@ABVCDrawingGraphData@@ABVCSubGraphData@@ABV?$CStringT@DV?$StrTraitMFC_DLL@DV?$ChTraitsCRT@D@ATL@@@@@ATL@@HAAH4H@Z ; CGraphTitleDrawer::DrawGraphTitle
PUBLIC	?DrawGraphTitle@CGraphTitleDrawer@@AAEXPAVCDC@@ABVCRect@@ABV?$CStringT@DV?$StrTraitMFC_DLL@DV?$ChTraitsCRT@D@ATL@@@@@ATL@@ABK3@Z ; CGraphTitleDrawer::DrawGraphTitle
PUBLIC	?DrawGraphTitleRegion@CGraphTitleDrawer@@AAEXPAVCDC@@ABVCRect@@ABK@Z ; CGraphTitleDrawer::DrawGraphTitleRegion
PUBLIC	?DrawGraphTitleText@CGraphTitleDrawer@@AAEXPAVCDC@@ABVCPoint@@ABV?$CStringT@DV?$StrTraitMFC_DLL@DV?$ChTraitsCRT@D@ATL@@@@@ATL@@ABK3@Z ; CGraphTitleDrawer::DrawGraphTitleText
PUBLIC	?IsGraphTitleDraw@CGraphTitleDrawer@@ABE_NABV?$CStringT@DV?$StrTraitMFC_DLL@DV?$ChTraitsCRT@D@ATL@@@@@ATL@@ABVCGraphRegions@@@Z ; CGraphTitleDrawer::IsGraphTitleDraw
PUBLIC	?IsGraphTitleRegionDraw@CGraphTitleDrawer@@ABE_NABV?$CStringT@DV?$StrTraitMFC_DLL@DV?$ChTraitsCRT@D@ATL@@@@@ATL@@@Z ; CGraphTitleDrawer::IsGraphTitleRegionDraw
PUBLIC	?IsTitleTextColor_StandardValue@CGraphTitleDrawer@@ABE_NPAVCPacket@@ABVCSubGraphData@@@Z ; CGraphTitleDrawer::IsTitleTextColor_StandardValue
PUBLIC	?IsTitleTextColor_Five@CGraphTitleDrawer@@ABE_NABVCSubGraphData@@@Z ; CGraphTitleDrawer::IsTitleTextColor_Five
PUBLIC	?GetGraphTitle@CGraphTitleDrawer@@ABE?AV?$CStringT@DV?$StrTraitMFC_DLL@DV?$ChTraitsCRT@D@ATL@@@@@ATL@@ABVCSubGraphData@@PAUHWND__@@@Z ; CGraphTitleDrawer::GetGraphTitle
PUBLIC	?GetGraphTitle@CGraphTitleDrawer@@ABE?AV?$CStringT@DV?$StrTraitMFC_DLL@DV?$ChTraitsCRT@D@ATL@@@@@ATL@@ABVCDrawingGraphData@@ABV23@HH@Z ; CGraphTitleDrawer::GetGraphTitle
PUBLIC	?GetGraphTitle_Condition@CGraphTitleDrawer@@ABE?AV?$CStringT@DV?$StrTraitMFC_DLL@DV?$ChTraitsCRT@D@ATL@@@@@ATL@@ABVCDrawingGraphData@@H@Z ; CGraphTitleDrawer::GetGraphTitle_Condition
PUBLIC	?GetGraphTitle_Price@CGraphTitleDrawer@@ABE?AV?$CStringT@DV?$StrTraitMFC_DLL@DV?$ChTraitsCRT@D@ATL@@@@@ATL@@ABVCDrawingGraphData@@H@Z ; CGraphTitleDrawer::GetGraphTitle_Price
PUBLIC	?GetTitleTextColor@CGraphTitleDrawer@@ABEKABVCDrawingGraphData@@ABVCSubGraphData@@H@Z ; CGraphTitleDrawer::GetTitleTextColor
PUBLIC	?GetTitleTextColor_General@CGraphTitleDrawer@@ABEKABVCGraphColor@@H@Z ; CGraphTitleDrawer::GetTitleTextColor_General
PUBLIC	?GetTitleTextColor_PriceChart@CGraphTitleDrawer@@ABEKABVCDrawingGraphData@@ABVCSubGraphData@@@Z ; CGraphTitleDrawer::GetTitleTextColor_PriceChart
PUBLIC	?GetTitleTextColor_VolumeChart@CGraphTitleDrawer@@ABEKABVCDrawingGraphData@@ABVCSubGraphData@@@Z ; CGraphTitleDrawer::GetTitleTextColor_VolumeChart
PUBLIC	?GetTitleTextColor_Five@CGraphTitleDrawer@@ABEKABVCSubGraphData@@@Z ; CGraphTitleDrawer::GetTitleTextColor_Five
PUBLIC	?GetGraphTitleRegion@CGraphTitleDrawer@@ABE?AVCRect@@PAVCDC@@ABVCPoint@@ABV?$CStringT@DV?$StrTraitMFC_DLL@DV?$ChTraitsCRT@D@ATL@@@@@ATL@@AAH3@Z ; CGraphTitleDrawer::GetGraphTitleRegion
PUBLIC	?GetPacket@CGraphTitleDrawer@@ABEPAVCPacket@@ABVCDrawingGraphData@@H@Z ; CGraphTitleDrawer::GetPacket
PUBLIC	?GetDrawConditionData@CGraphTitleDrawer@@ABE_NPBVCIndicatorInfo@@HAAH@Z ; CGraphTitleDrawer::GetDrawConditionData
PUBLIC	??4CGraphDrawer@@QAEAAV0@ABV0@@Z		; CGraphDrawer::operator=
PUBLIC	??4CGraphDrawer@@QAEAAV0@$$QAV0@@Z		; CGraphDrawer::operator=
PUBLIC	?FindIndex@?$CList@NN@@QBEPAU__POSITION@@H@Z	; CList<double,double>::FindIndex
PUBLIC	??_R0PAVCException@@@8				; CException * `RTTI Type Descriptor'
PUBLIC	??_C@_00CNPNBAHC@@				; `string'
PUBLIC	??_7CGdiObject@@6B@				; CGdiObject::`vftable'
PUBLIC	??_7CPen@@6B@					; CPen::`vftable'
PUBLIC	??_7CBrush@@6B@					; CBrush::`vftable'
PUBLIC	??_C@_0HD@JJCHHHNK@C?3?2Program?5Files?5?$CIx86?$CJ?2Microsof@ ; `string'
PUBLIC	??_C@_0BP@OIEOKIDM@Exception?5thrown?5in?5destructor@ ; `string'
PUBLIC	??_C@_0BB@HBOOMJBF@?$CFTs?5?$CI?$CFTs?3?$CFd?$CJ?6?$CFTs@ ; `string'
PUBLIC	??_C@_0N@OMEMOKLE@?$CFTs?5?$CI?$CFTs?3?$CFd?$CJ@ ; `string'
PUBLIC	??_R0?AVCObject@@@8				; CObject `RTTI Type Descriptor'
PUBLIC	??_R3CObject@@8					; CObject::`RTTI Class Hierarchy Descriptor'
PUBLIC	??_R2CObject@@8					; CObject::`RTTI Base Class Array'
PUBLIC	??_R1A@?0A@EA@CObject@@8			; CObject::`RTTI Base Class Descriptor at (0,-1,0,64)'
PUBLIC	??_R4CGdiObject@@6B@				; CGdiObject::`RTTI Complete Object Locator'
PUBLIC	??_R0?AVCGdiObject@@@8				; CGdiObject `RTTI Type Descriptor'
PUBLIC	??_R3CGdiObject@@8				; CGdiObject::`RTTI Class Hierarchy Descriptor'
PUBLIC	??_R2CGdiObject@@8				; CGdiObject::`RTTI Base Class Array'
PUBLIC	??_R1A@?0A@EA@CGdiObject@@8			; CGdiObject::`RTTI Base Class Descriptor at (0,-1,0,64)'
PUBLIC	??_R4CPen@@6B@					; CPen::`RTTI Complete Object Locator'
PUBLIC	??_R0?AVCPen@@@8				; CPen `RTTI Type Descriptor'
PUBLIC	??_R3CPen@@8					; CPen::`RTTI Class Hierarchy Descriptor'
PUBLIC	??_R2CPen@@8					; CPen::`RTTI Base Class Array'
PUBLIC	??_R1A@?0A@EA@CPen@@8				; CPen::`RTTI Base Class Descriptor at (0,-1,0,64)'
PUBLIC	??_R4CBrush@@6B@				; CBrush::`RTTI Complete Object Locator'
PUBLIC	??_R0?AVCBrush@@@8				; CBrush `RTTI Type Descriptor'
PUBLIC	??_R3CBrush@@8					; CBrush::`RTTI Class Hierarchy Descriptor'
PUBLIC	??_R2CBrush@@8					; CBrush::`RTTI Base Class Array'
PUBLIC	??_R1A@?0A@EA@CBrush@@8				; CBrush::`RTTI Base Class Descriptor at (0,-1,0,64)'
PUBLIC	??_C@_01HNPIGOCE@?$CG@				; `string'
PUBLIC	??_C@_01IHBHIGKO@?0@				; `string'
PUBLIC	??_C@_01CLKCMJKC@?5@				; `string'
PUBLIC	??_C@_09HHHFLLBP@?$LI?E?$LF?$LF?5?$LI?E?$LM?v@	; `string'
PUBLIC	??_C@_05OFOMAOBO@?$LI?E?$LF?$LF?5@		; `string'
PUBLIC	??_C@_04NGFLBEEM@?$LI?E?$LM?v@			; `string'
PUBLIC	??_C@_01FDFGLJHB@2@				; `string'
PUBLIC	??_C@_01HIHLOKLC@1@				; `string'
PUBLIC	??_C@_05CCMOGDN@?$CFs?3?$CFs@			; `string'
PUBLIC	??_C@_02GKHPPFCI@?$CJ?$CI@			; `string'
EXTRN	??3@YAXPAX@Z:PROC				; operator delete
EXTRN	?__global_delete@@YAXPAXI@Z:PROC		; __global_delete
EXTRN	__imp__GetStockObject@4:PROC
EXTRN	__imp__GetTextColor@4:PROC
EXTRN	__imp__GetTextExtentPoint32A@16:PROC
EXTRN	__imp__Rectangle@20:PROC
EXTRN	__imp__SelectObject@8:PROC
EXTRN	?AfxThrowInvalidArgException@@YGXXZ:PROC	; AfxThrowInvalidArgException
EXTRN	__imp_?Concatenate@?$CSimpleStringT@D$00@ATL@@KAXAAV12@PBDH1H@Z:PROC
EXTRN	__imp_??0?$CStringT@DV?$StrTraitMFC_DLL@DV?$ChTraitsCRT@D@ATL@@@@@ATL@@QAE@XZ:PROC
EXTRN	__imp_??0?$CStringT@DV?$StrTraitMFC_DLL@DV?$ChTraitsCRT@D@ATL@@@@@ATL@@QAE@PAUIAtlStringMgr@1@@Z:PROC
EXTRN	__imp_??0?$CStringT@DV?$StrTraitMFC_DLL@DV?$ChTraitsCRT@D@ATL@@@@@ATL@@QAE@ABV01@@Z:PROC
EXTRN	__imp_??0?$CStringT@DV?$StrTraitMFC_DLL@DV?$ChTraitsCRT@D@ATL@@@@@ATL@@QAE@PBD@Z:PROC
EXTRN	__imp_??1?$CStringT@DV?$StrTraitMFC_DLL@DV?$ChTraitsCRT@D@ATL@@@@@ATL@@QAE@XZ:PROC
EXTRN	__imp_??4?$CStringT@DV?$StrTraitMFC_DLL@DV?$ChTraitsCRT@D@ATL@@@@@ATL@@QAEAAV01@ABV01@@Z:PROC
EXTRN	__imp_??4?$CStringT@DV?$StrTraitMFC_DLL@DV?$ChTraitsCRT@D@ATL@@@@@ATL@@QAEAAV01@PBD@Z:PROC
EXTRN	__imp_??Y?$CStringT@DV?$StrTraitMFC_DLL@DV?$ChTraitsCRT@D@ATL@@@@@ATL@@QAEAAV01@ABV?$CSimpleStringT@D$00@1@@Z:PROC
EXTRN	__imp_?GetManager@?$CStringT@DV?$StrTraitMFC_DLL@DV?$ChTraitsCRT@D@ATL@@@@@ATL@@QBEPAUIAtlStringMgr@2@XZ:PROC
EXTRN	__imp_?Compare@?$CStringT@DV?$StrTraitMFC_DLL@DV?$ChTraitsCRT@D@ATL@@@@@ATL@@QBEHPBD@Z:PROC
EXTRN	__imp_?TrimRight@?$CStringT@DV?$StrTraitMFC_DLL@DV?$ChTraitsCRT@D@ATL@@@@@ATL@@QAEAAV12@D@Z:PROC
EXTRN	__imp_?TrimLeft@?$CStringT@DV?$StrTraitMFC_DLL@DV?$ChTraitsCRT@D@ATL@@@@@ATL@@QAEAAV12@PBD@Z:PROC
EXTRN	__imp_?Right@?$CStringT@DV?$StrTraitMFC_DLL@DV?$ChTraitsCRT@D@ATL@@@@@ATL@@QBE?AV12@H@Z:PROC
EXTRN	__imp_?Left@?$CStringT@DV?$StrTraitMFC_DLL@DV?$ChTraitsCRT@D@ATL@@@@@ATL@@QBE?AV12@H@Z:PROC
EXTRN	__imp_?Format@?$CStringT@DV?$StrTraitMFC_DLL@DV?$ChTraitsCRT@D@ATL@@@@@ATL@@QAAXPBDZZ:PROC
EXTRN	?GetRuntimeClass@CGdiObject@@UBEPAUCRuntimeClass@@XZ:PROC ; CGdiObject::GetRuntimeClass
EXTRN	?DeleteObject@CGdiObject@@QAEHXZ:PROC		; CGdiObject::DeleteObject
EXTRN	??_ECGdiObject@@UAEPAXI@Z:PROC			; CGdiObject::`vector deleting destructor'
EXTRN	?GetRuntimeClass@CPen@@UBEPAUCRuntimeClass@@XZ:PROC ; CPen::GetRuntimeClass
EXTRN	??0CPen@@QAE@HHK@Z:PROC				; CPen::CPen
EXTRN	??_ECPen@@UAEPAXI@Z:PROC			; CPen::`vector deleting destructor'
EXTRN	?GetRuntimeClass@CBrush@@UBEPAUCRuntimeClass@@XZ:PROC ; CBrush::GetRuntimeClass
EXTRN	??0CBrush@@QAE@K@Z:PROC				; CBrush::CBrush
EXTRN	??_ECBrush@@UAEPAXI@Z:PROC			; CBrush::`vector deleting destructor'
EXTRN	?SelectObject@CDC@@QAEPAVCPen@@PAV2@@Z:PROC	; CDC::SelectObject
EXTRN	?SelectObject@CDC@@QAEPAVCBrush@@PAV2@@Z:PROC	; CDC::SelectObject
EXTRN	?SetBkMode@CDC@@QAEHH@Z:PROC			; CDC::SetBkMode
EXTRN	?MoveTo@CDC@@QAE?AVCPoint@@HH@Z:PROC		; CDC::MoveTo
EXTRN	?LineTo@CDC@@QAEHHH@Z:PROC			; CDC::LineTo
EXTRN	?AfxMessageBox@@YGHPBDII@Z:PROC			; AfxMessageBox
EXTRN	?GetLanguageText@IMetaTable@@QAEPBDPAUHWND__@@W4E_CODEPAGE@1@PBDH@Z:PROC ; IMetaTable::GetLanguageText
EXTRN	__imp_?GetColor1@CGraphColor@@QBEKXZ:PROC
EXTRN	__imp_?GetColor2@CGraphColor@@QBEKXZ:PROC
EXTRN	__imp_?GetColor3@CGraphColor@@QBEKXZ:PROC
EXTRN	__imp_?GetColor5@CGraphColor@@QBEKXZ:PROC
EXTRN	__imp_?GetType@CSubGraphDataBase@@QBE?AW4GRAPHTYPE@CGraphBaseData@@XZ:PROC
EXTRN	__imp_?GetStyle@CSubGraphDataBase@@QBE?AVCGraphStyle@@XZ:PROC
EXTRN	__imp_?GetName@CSubGraphDataBase@@QBE?AV?$CStringT@DV?$StrTraitMFC_DLL@DV?$ChTraitsCRT@D@ATL@@@@@ATL@@XZ:PROC
EXTRN	__imp_?GetTitle@CSubGraphDataBase@@QBE?AV?$CStringT@DV?$StrTraitMFC_DLL@DV?$ChTraitsCRT@D@ATL@@@@@ATL@@XZ:PROC
EXTRN	__imp_?GetColor@CSubGraphDataBase@@QBE?AVCGraphColor@@XZ:PROC
EXTRN	__imp_?GetItemName@CSubGraphDataBase@@QBE?AV?$CStringT@DV?$StrTraitMFC_DLL@DV?$ChTraitsCRT@D@ATL@@@@@ATL@@XZ:PROC
EXTRN	__imp_?GetSubGraphIndex@CSubGraphDataBase@@QBEHXZ:PROC
EXTRN	?GetDataStartInBlock@CDisplayAttributes@@QBEHXZ:PROC ; CDisplayAttributes::GetDataStartInBlock
EXTRN	?GetDataEndInBlock@CDisplayAttributes@@QBEHXZ:PROC ; CDisplayAttributes::GetDataEndInBlock
EXTRN	?IsTitle@CGraphRegions@@QBE_NXZ:PROC		; CGraphRegions::IsTitle
EXTRN	?GetGraphRegions@CDrawingGraphData@@QBEABVCGraphRegions@@XZ:PROC ; CDrawingGraphData::GetGraphRegions
EXTRN	?GetGraphName@CDrawingGraphData@@QBE?AV?$CStringT@DV?$StrTraitMFC_DLL@DV?$ChTraitsCRT@D@ATL@@@@@ATL@@XZ:PROC ; CDrawingGraphData::GetGraphName
EXTRN	?DoesConditionTitleDraw@CDrawingGraphData@@QBE_NXZ:PROC ; CDrawingGraphData::DoesConditionTitleDraw
EXTRN	?DoesDataTitleDraw@CDrawingGraphData@@QBE_NXZ:PROC ; CDrawingGraphData::DoesDataTitleDraw
EXTRN	?GetDisplayAttributes@CDrawingGraphData@@QBE?AVCDisplayAttributes@@XZ:PROC ; CDrawingGraphData::GetDisplayAttributes
EXTRN	?GetIndicatorInfo@CDrawingGraphData@@QBEPAVCIndicatorInfo@@XZ:PROC ; CDrawingGraphData::GetIndicatorInfo
EXTRN	?GetSubGraphPacketList@CDrawingGraphData@@QBEPAVCSubGraphPacketList@@XZ:PROC ; CDrawingGraphData::GetSubGraphPacketList
EXTRN	?GetIndicatorName@CDrawingGraphData@@QBE?AV?$CStringT@DV?$StrTraitMFC_DLL@DV?$ChTraitsCRT@D@ATL@@@@@ATL@@XZ:PROC ; CDrawingGraphData::GetIndicatorName
EXTRN	?DoubleToString@CDataConversion@@SA?AV?$CStringT@DV?$StrTraitMFC_DLL@DV?$ChTraitsCRT@D@ATL@@@@@ATL@@ABN@Z:PROC ; CDataConversion::DoubleToString
EXTRN	?DoubleToString@CDataConversion@@SA?AV?$CStringT@DV?$StrTraitMFC_DLL@DV?$ChTraitsCRT@D@ATL@@@@@ATL@@ABNABV23@@Z:PROC ; CDataConversion::DoubleToString
EXTRN	?GetStringData@CDataConversion@@SA?AV?$CStringT@DV?$StrTraitMFC_DLL@DV?$ChTraitsCRT@D@ATL@@@@@ATL@@AAV23@ABV23@_N@Z:PROC ; CDataConversion::GetStringData
EXTRN	?GetStringThousandFormat@CDataConversion@@SA?AV?$CStringT@DV?$StrTraitMFC_DLL@DV?$ChTraitsCRT@D@ATL@@@@@ATL@@ABNABV23@@Z:PROC ; CDataConversion::GetStringThousandFormat
EXTRN	?IsBaseFormat@CDataConversion@@SA_NABV?$CStringT@DV?$StrTraitMFC_DLL@DV?$ChTraitsCRT@D@ATL@@@@@ATL@@@Z:PROC ; CDataConversion::IsBaseFormat
EXTRN	?GetPracticalPacket@CDrawingPacketFinder@@QBEPAVCPacket@@ABV?$CStringT@DV?$StrTraitMFC_DLL@DV?$ChTraitsCRT@D@ATL@@@@@ATL@@ABV?$CList@PAVCPacket@@PAV1@@@@Z:PROC ; CDrawingPacketFinder::GetPracticalPacket
EXTRN	?GetPacket@CDrawingPacketFinder@@QBEPAVCPacket@@ABV?$CList@PAVCPacket@@PAV1@@@H@Z:PROC ; CDrawingPacketFinder::GetPacket
EXTRN	?GetSubGraphPacketList@CSubGraphPacketList@@QBEABV?$CList@PAVCPacket@@PAV1@@@XZ:PROC ; CSubGraphPacketList::GetSubGraphPacketList
EXTRN	__imp_?GetCommonCalConditionList@CIndicatorInfo@@QAEPAV?$CList@NN@@XZ:PROC
EXTRN	__imp_?GetDrawConditionList@CIndicatorInfo@@QBEPAV?$CList@NN@@XZ:PROC
EXTRN	__imp_?GetDataCount@CPacket@@QAEHXZ:PROC
EXTRN	__imp_?IsUseStandardValue@CPacket@@QBE_NH@Z:PROC
EXTRN	__imp_?GetStandardValue@CPacket@@QAENH@Z:PROC
EXTRN	__imp_?GetType@CPacket@@QAE?AV?$CStringT@DV?$StrTraitMFC_DLL@DV?$ChTraitsCRT@D@ATL@@@@@ATL@@_N@Z:PROC
EXTRN	__imp_?GetnumericDataList@CPacket@@QAEPAV?$CList@NN@@XZ:PROC
EXTRN	__imp_?GetMinMax@CPacket@@QAEHHHAAN0H@Z:PROC
EXTRN	@__security_check_cookie@4:PROC
EXTRN	___CxxFrameHandler3:PROC
EXTRN	??_7type_info@@6B@:QWORD			; type_info::`vftable'
EXTRN	?g_iMetaTable@@3VIMetaTable@@A:BYTE		; g_iMetaTable
EXTRN	___security_cookie:DWORD
EXTRN	__fltused:DWORD
;	COMDAT ??_C@_02GKHPPFCI@?$CJ?$CI@
CONST	SEGMENT
??_C@_02GKHPPFCI@?$CJ?$CI@ DB ')(', 00H			; `string'
CONST	ENDS
;	COMDAT ??_C@_05CCMOGDN@?$CFs?3?$CFs@
CONST	SEGMENT
??_C@_05CCMOGDN@?$CFs?3?$CFs@ DB '%s:%s', 00H		; `string'
CONST	ENDS
;	COMDAT ??_C@_01HIHLOKLC@1@
CONST	SEGMENT
??_C@_01HIHLOKLC@1@ DB '1', 00H				; `string'
CONST	ENDS
;	COMDAT ??_C@_01FDFGLJHB@2@
CONST	SEGMENT
??_C@_01FDFGLJHB@2@ DB '2', 00H				; `string'
CONST	ENDS
;	COMDAT ??_C@_04NGFLBEEM@?$LI?E?$LM?v@
CONST	SEGMENT
??_C@_04NGFLBEEM@?$LI?E?$LM?v@ DB 0b8H, 0c5H, 0bcH, 0f6H, 00H ; `string'
CONST	ENDS
;	COMDAT ??_C@_05OFOMAOBO@?$LI?E?$LF?$LF?5@
CONST	SEGMENT
??_C@_05OFOMAOBO@?$LI?E?$LF?$LF?5@ DB 0b8H, 0c5H, 0b5H, 0b5H, ' ', 00H ; `string'
CONST	ENDS
;	COMDAT ??_C@_09HHHFLLBP@?$LI?E?$LF?$LF?5?$LI?E?$LM?v@
CONST	SEGMENT
??_C@_09HHHFLLBP@?$LI?E?$LF?$LF?5?$LI?E?$LM?v@ DB 0b8H, 0c5H, 0b5H, 0b5H, ' '
	DB	0b8H, 0c5H, 0bcH, 0f6H, 00H			; `string'
CONST	ENDS
;	COMDAT ??_C@_01CLKCMJKC@?5@
CONST	SEGMENT
??_C@_01CLKCMJKC@?5@ DB ' ', 00H			; `string'
CONST	ENDS
;	COMDAT ??_C@_01IHBHIGKO@?0@
CONST	SEGMENT
??_C@_01IHBHIGKO@?0@ DB ',', 00H			; `string'
CONST	ENDS
;	COMDAT ??_C@_01HNPIGOCE@?$CG@
CONST	SEGMENT
??_C@_01HNPIGOCE@?$CG@ DB '&', 00H			; `string'
CONST	ENDS
;	COMDAT ??_R1A@?0A@EA@CBrush@@8
rdata$r	SEGMENT
??_R1A@?0A@EA@CBrush@@8 DD FLAT:??_R0?AVCBrush@@@8	; CBrush::`RTTI Base Class Descriptor at (0,-1,0,64)'
	DD	02H
	DD	00H
	DD	0ffffffffH
	DD	00H
	DD	040H
	DD	FLAT:??_R3CBrush@@8
rdata$r	ENDS
;	COMDAT ??_R2CBrush@@8
rdata$r	SEGMENT
??_R2CBrush@@8 DD FLAT:??_R1A@?0A@EA@CBrush@@8		; CBrush::`RTTI Base Class Array'
	DD	FLAT:??_R1A@?0A@EA@CGdiObject@@8
	DD	FLAT:??_R1A@?0A@EA@CObject@@8
rdata$r	ENDS
;	COMDAT ??_R3CBrush@@8
rdata$r	SEGMENT
??_R3CBrush@@8 DD 00H					; CBrush::`RTTI Class Hierarchy Descriptor'
	DD	00H
	DD	03H
	DD	FLAT:??_R2CBrush@@8
rdata$r	ENDS
;	COMDAT ??_R0?AVCBrush@@@8
data$rs	SEGMENT
??_R0?AVCBrush@@@8 DD FLAT:??_7type_info@@6B@		; CBrush `RTTI Type Descriptor'
	DD	00H
	DB	'.?AVCBrush@@', 00H
data$rs	ENDS
;	COMDAT ??_R4CBrush@@6B@
rdata$r	SEGMENT
??_R4CBrush@@6B@ DD 00H					; CBrush::`RTTI Complete Object Locator'
	DD	00H
	DD	00H
	DD	FLAT:??_R0?AVCBrush@@@8
	DD	FLAT:??_R3CBrush@@8
rdata$r	ENDS
;	COMDAT ??_R1A@?0A@EA@CPen@@8
rdata$r	SEGMENT
??_R1A@?0A@EA@CPen@@8 DD FLAT:??_R0?AVCPen@@@8		; CPen::`RTTI Base Class Descriptor at (0,-1,0,64)'
	DD	02H
	DD	00H
	DD	0ffffffffH
	DD	00H
	DD	040H
	DD	FLAT:??_R3CPen@@8
rdata$r	ENDS
;	COMDAT ??_R2CPen@@8
rdata$r	SEGMENT
??_R2CPen@@8 DD	FLAT:??_R1A@?0A@EA@CPen@@8		; CPen::`RTTI Base Class Array'
	DD	FLAT:??_R1A@?0A@EA@CGdiObject@@8
	DD	FLAT:??_R1A@?0A@EA@CObject@@8
rdata$r	ENDS
;	COMDAT ??_R3CPen@@8
rdata$r	SEGMENT
??_R3CPen@@8 DD	00H					; CPen::`RTTI Class Hierarchy Descriptor'
	DD	00H
	DD	03H
	DD	FLAT:??_R2CPen@@8
rdata$r	ENDS
;	COMDAT ??_R0?AVCPen@@@8
data$rs	SEGMENT
??_R0?AVCPen@@@8 DD FLAT:??_7type_info@@6B@		; CPen `RTTI Type Descriptor'
	DD	00H
	DB	'.?AVCPen@@', 00H
data$rs	ENDS
;	COMDAT ??_R4CPen@@6B@
rdata$r	SEGMENT
??_R4CPen@@6B@ DD 00H					; CPen::`RTTI Complete Object Locator'
	DD	00H
	DD	00H
	DD	FLAT:??_R0?AVCPen@@@8
	DD	FLAT:??_R3CPen@@8
rdata$r	ENDS
;	COMDAT ??_R1A@?0A@EA@CGdiObject@@8
rdata$r	SEGMENT
??_R1A@?0A@EA@CGdiObject@@8 DD FLAT:??_R0?AVCGdiObject@@@8 ; CGdiObject::`RTTI Base Class Descriptor at (0,-1,0,64)'
	DD	01H
	DD	00H
	DD	0ffffffffH
	DD	00H
	DD	040H
	DD	FLAT:??_R3CGdiObject@@8
rdata$r	ENDS
;	COMDAT ??_R2CGdiObject@@8
rdata$r	SEGMENT
??_R2CGdiObject@@8 DD FLAT:??_R1A@?0A@EA@CGdiObject@@8	; CGdiObject::`RTTI Base Class Array'
	DD	FLAT:??_R1A@?0A@EA@CObject@@8
rdata$r	ENDS
;	COMDAT ??_R3CGdiObject@@8
rdata$r	SEGMENT
??_R3CGdiObject@@8 DD 00H				; CGdiObject::`RTTI Class Hierarchy Descriptor'
	DD	00H
	DD	02H
	DD	FLAT:??_R2CGdiObject@@8
rdata$r	ENDS
;	COMDAT ??_R0?AVCGdiObject@@@8
data$rs	SEGMENT
??_R0?AVCGdiObject@@@8 DD FLAT:??_7type_info@@6B@	; CGdiObject `RTTI Type Descriptor'
	DD	00H
	DB	'.?AVCGdiObject@@', 00H
data$rs	ENDS
;	COMDAT ??_R4CGdiObject@@6B@
rdata$r	SEGMENT
??_R4CGdiObject@@6B@ DD 00H				; CGdiObject::`RTTI Complete Object Locator'
	DD	00H
	DD	00H
	DD	FLAT:??_R0?AVCGdiObject@@@8
	DD	FLAT:??_R3CGdiObject@@8
rdata$r	ENDS
;	COMDAT ??_R1A@?0A@EA@CObject@@8
rdata$r	SEGMENT
??_R1A@?0A@EA@CObject@@8 DD FLAT:??_R0?AVCObject@@@8	; CObject::`RTTI Base Class Descriptor at (0,-1,0,64)'
	DD	00H
	DD	00H
	DD	0ffffffffH
	DD	00H
	DD	040H
	DD	FLAT:??_R3CObject@@8
rdata$r	ENDS
;	COMDAT ??_R2CObject@@8
rdata$r	SEGMENT
??_R2CObject@@8 DD FLAT:??_R1A@?0A@EA@CObject@@8	; CObject::`RTTI Base Class Array'
rdata$r	ENDS
;	COMDAT ??_R3CObject@@8
rdata$r	SEGMENT
??_R3CObject@@8 DD 00H					; CObject::`RTTI Class Hierarchy Descriptor'
	DD	00H
	DD	01H
	DD	FLAT:??_R2CObject@@8
rdata$r	ENDS
;	COMDAT ??_R0?AVCObject@@@8
data$rs	SEGMENT
??_R0?AVCObject@@@8 DD FLAT:??_7type_info@@6B@		; CObject `RTTI Type Descriptor'
	DD	00H
	DB	'.?AVCObject@@', 00H
data$rs	ENDS
;	COMDAT ??_C@_0N@OMEMOKLE@?$CFTs?5?$CI?$CFTs?3?$CFd?$CJ@
CONST	SEGMENT
??_C@_0N@OMEMOKLE@?$CFTs?5?$CI?$CFTs?3?$CFd?$CJ@ DB '%Ts (%Ts:%d)', 00H ; `string'
CONST	ENDS
;	COMDAT ??_C@_0BB@HBOOMJBF@?$CFTs?5?$CI?$CFTs?3?$CFd?$CJ?6?$CFTs@
CONST	SEGMENT
??_C@_0BB@HBOOMJBF@?$CFTs?5?$CI?$CFTs?3?$CFd?$CJ?6?$CFTs@ DB '%Ts (%Ts:%d'
	DB	')', 0aH, '%Ts', 00H				; `string'
CONST	ENDS
;	COMDAT ??_C@_0BP@OIEOKIDM@Exception?5thrown?5in?5destructor@
CONST	SEGMENT
??_C@_0BP@OIEOKIDM@Exception?5thrown?5in?5destructor@ DB 'Exception throw'
	DB	'n in destructor', 00H			; `string'
CONST	ENDS
;	COMDAT ??_C@_0HD@JJCHHHNK@C?3?2Program?5Files?5?$CIx86?$CJ?2Microsof@
CONST	SEGMENT
??_C@_0HD@JJCHHHNK@C?3?2Program?5Files?5?$CIx86?$CJ?2Microsof@ DB 'C:\Pro'
	DB	'gram Files (x86)\Microsoft Visual Studio\2019\Community\VC\To'
	DB	'ols\MSVC\14.29.30133\atlmfc\include\afxwin1.inl', 00H ; `string'
CONST	ENDS
;	COMDAT ??_7CBrush@@6B@
CONST	SEGMENT
??_7CBrush@@6B@ DD FLAT:??_R4CBrush@@6B@		; CBrush::`vftable'
	DD	FLAT:?GetRuntimeClass@CBrush@@UBEPAUCRuntimeClass@@XZ
	DD	FLAT:??_ECBrush@@UAEPAXI@Z
	DD	FLAT:?Serialize@CObject@@UAEXAAVCArchive@@@Z
	DD	FLAT:?AssertValid@CObject@@UBEXXZ
	DD	FLAT:?Dump@CObject@@UBEXAAVCDumpContext@@@Z
CONST	ENDS
;	COMDAT ??_7CPen@@6B@
CONST	SEGMENT
??_7CPen@@6B@ DD FLAT:??_R4CPen@@6B@			; CPen::`vftable'
	DD	FLAT:?GetRuntimeClass@CPen@@UBEPAUCRuntimeClass@@XZ
	DD	FLAT:??_ECPen@@UAEPAXI@Z
	DD	FLAT:?Serialize@CObject@@UAEXAAVCArchive@@@Z
	DD	FLAT:?AssertValid@CObject@@UBEXXZ
	DD	FLAT:?Dump@CObject@@UBEXAAVCDumpContext@@@Z
CONST	ENDS
;	COMDAT ??_7CGdiObject@@6B@
CONST	SEGMENT
??_7CGdiObject@@6B@ DD FLAT:??_R4CGdiObject@@6B@	; CGdiObject::`vftable'
	DD	FLAT:?GetRuntimeClass@CGdiObject@@UBEPAUCRuntimeClass@@XZ
	DD	FLAT:??_ECGdiObject@@UAEPAXI@Z
	DD	FLAT:?Serialize@CObject@@UAEXAAVCArchive@@@Z
	DD	FLAT:?AssertValid@CObject@@UBEXXZ
	DD	FLAT:?Dump@CObject@@UBEXAAVCDumpContext@@@Z
CONST	ENDS
;	COMDAT ??_C@_00CNPNBAHC@@
CONST	SEGMENT
??_C@_00CNPNBAHC@@ DB 00H				; `string'
CONST	ENDS
;	COMDAT ??_R0PAVCException@@@8
data$r	SEGMENT
??_R0PAVCException@@@8 DD FLAT:??_7type_info@@6B@	; CException * `RTTI Type Descriptor'
	DD	00H
	DB	'.PAVCException@@', 00H
data$r	ENDS
;	COMDAT xdata$x
xdata$x	SEGMENT
__unwindtable$?GetPacket@CGraphTitleDrawer@@ABEPAVCPacket@@ABVCDrawingGraphData@@H@Z DD 0ffffffffH
	DD	FLAT:__unwindfunclet$?GetPacket@CGraphTitleDrawer@@ABEPAVCPacket@@ABVCDrawingGraphData@@H@Z$0
__ehfuncinfo$?GetPacket@CGraphTitleDrawer@@ABEPAVCPacket@@ABVCDrawingGraphData@@H@Z DD 019930522H
	DD	01H
	DD	FLAT:__unwindtable$?GetPacket@CGraphTitleDrawer@@ABEPAVCPacket@@ABVCDrawingGraphData@@H@Z
	DD	2 DUP(00H)
	DD	2 DUP(00H)
	DD	00H
	DD	01H
xdata$x	ENDS
;	COMDAT xdata$x
xdata$x	SEGMENT
__unwindtable$?GetTitleTextColor@CGraphTitleDrawer@@ABEKABVCDrawingGraphData@@ABVCSubGraphData@@H@Z DD 0ffffffffH
	DD	FLAT:__unwindfunclet$?GetTitleTextColor@CGraphTitleDrawer@@ABEKABVCDrawingGraphData@@ABVCSubGraphData@@H@Z$0
	DD	0ffffffffH
	DD	FLAT:__unwindfunclet$?GetTitleTextColor@CGraphTitleDrawer@@ABEKABVCDrawingGraphData@@ABVCSubGraphData@@H@Z$1
	DD	01H
	DD	FLAT:__unwindfunclet$?GetTitleTextColor@CGraphTitleDrawer@@ABEKABVCDrawingGraphData@@ABVCSubGraphData@@H@Z$2
__ehfuncinfo$?GetTitleTextColor@CGraphTitleDrawer@@ABEKABVCDrawingGraphData@@ABVCSubGraphData@@H@Z DD 019930522H
	DD	03H
	DD	FLAT:__unwindtable$?GetTitleTextColor@CGraphTitleDrawer@@ABEKABVCDrawingGraphData@@ABVCSubGraphData@@H@Z
	DD	2 DUP(00H)
	DD	2 DUP(00H)
	DD	00H
	DD	01H
xdata$x	ENDS
;	COMDAT xdata$x
xdata$x	SEGMENT
__unwindtable$?GetGraphTitle_Price@CGraphTitleDrawer@@ABE?AV?$CStringT@DV?$StrTraitMFC_DLL@DV?$ChTraitsCRT@D@ATL@@@@@ATL@@ABVCDrawingGraphData@@H@Z DD 0ffffffffH
	DD	FLAT:__unwindfunclet$?GetGraphTitle_Price@CGraphTitleDrawer@@ABE?AV?$CStringT@DV?$StrTraitMFC_DLL@DV?$ChTraitsCRT@D@ATL@@@@@ATL@@ABVCDrawingGraphData@@H@Z$1
__ehfuncinfo$?GetGraphTitle_Price@CGraphTitleDrawer@@ABE?AV?$CStringT@DV?$StrTraitMFC_DLL@DV?$ChTraitsCRT@D@ATL@@@@@ATL@@ABVCDrawingGraphData@@H@Z DD 019930522H
	DD	01H
	DD	FLAT:__unwindtable$?GetGraphTitle_Price@CGraphTitleDrawer@@ABE?AV?$CStringT@DV?$StrTraitMFC_DLL@DV?$ChTraitsCRT@D@ATL@@@@@ATL@@ABVCDrawingGraphData@@H@Z
	DD	2 DUP(00H)
	DD	2 DUP(00H)
	DD	00H
	DD	01H
xdata$x	ENDS
;	COMDAT xdata$x
xdata$x	SEGMENT
__ehfuncinfo$?GetGraphTitle_Condition@CGraphTitleDrawer@@ABE?AV?$CStringT@DV?$StrTraitMFC_DLL@DV?$ChTraitsCRT@D@ATL@@@@@ATL@@ABVCDrawingGraphData@@H@Z DD 019930522H
	DD	0fH
	DD	FLAT:__unwindtable$?GetGraphTitle_Condition@CGraphTitleDrawer@@ABE?AV?$CStringT@DV?$StrTraitMFC_DLL@DV?$ChTraitsCRT@D@ATL@@@@@ATL@@ABVCDrawingGraphData@@H@Z
	DD	2 DUP(00H)
	DD	2 DUP(00H)
	DD	00H
	DD	01H
__unwindtable$?GetGraphTitle_Condition@CGraphTitleDrawer@@ABE?AV?$CStringT@DV?$StrTraitMFC_DLL@DV?$ChTraitsCRT@D@ATL@@@@@ATL@@ABVCDrawingGraphData@@H@Z DD 0ffffffffH
	DD	FLAT:__unwindfunclet$?GetGraphTitle_Condition@CGraphTitleDrawer@@ABE?AV?$CStringT@DV?$StrTraitMFC_DLL@DV?$ChTraitsCRT@D@ATL@@@@@ATL@@ABVCDrawingGraphData@@H@Z$1
	DD	00H
	DD	FLAT:__unwindfunclet$?GetGraphTitle_Condition@CGraphTitleDrawer@@ABE?AV?$CStringT@DV?$StrTraitMFC_DLL@DV?$ChTraitsCRT@D@ATL@@@@@ATL@@ABVCDrawingGraphData@@H@Z$2
	DD	01H
	DD	FLAT:__unwindfunclet$?GetGraphTitle_Condition@CGraphTitleDrawer@@ABE?AV?$CStringT@DV?$StrTraitMFC_DLL@DV?$ChTraitsCRT@D@ATL@@@@@ATL@@ABVCDrawingGraphData@@H@Z$3
	DD	01H
	DD	FLAT:__unwindfunclet$?GetGraphTitle_Condition@CGraphTitleDrawer@@ABE?AV?$CStringT@DV?$StrTraitMFC_DLL@DV?$ChTraitsCRT@D@ATL@@@@@ATL@@ABVCDrawingGraphData@@H@Z$4
	DD	01H
	DD	FLAT:__unwindfunclet$?GetGraphTitle_Condition@CGraphTitleDrawer@@ABE?AV?$CStringT@DV?$StrTraitMFC_DLL@DV?$ChTraitsCRT@D@ATL@@@@@ATL@@ABVCDrawingGraphData@@H@Z$5
	DD	01H
	DD	FLAT:__unwindfunclet$?GetGraphTitle_Condition@CGraphTitleDrawer@@ABE?AV?$CStringT@DV?$StrTraitMFC_DLL@DV?$ChTraitsCRT@D@ATL@@@@@ATL@@ABVCDrawingGraphData@@H@Z$6
	DD	01H
	DD	FLAT:__unwindfunclet$?GetGraphTitle_Condition@CGraphTitleDrawer@@ABE?AV?$CStringT@DV?$StrTraitMFC_DLL@DV?$ChTraitsCRT@D@ATL@@@@@ATL@@ABVCDrawingGraphData@@H@Z$7
	DD	06H
	DD	FLAT:__unwindfunclet$?GetGraphTitle_Condition@CGraphTitleDrawer@@ABE?AV?$CStringT@DV?$StrTraitMFC_DLL@DV?$ChTraitsCRT@D@ATL@@@@@ATL@@ABVCDrawingGraphData@@H@Z$8
	DD	07H
	DD	FLAT:__unwindfunclet$?GetGraphTitle_Condition@CGraphTitleDrawer@@ABE?AV?$CStringT@DV?$StrTraitMFC_DLL@DV?$ChTraitsCRT@D@ATL@@@@@ATL@@ABVCDrawingGraphData@@H@Z$9
	DD	07H
	DD	FLAT:__unwindfunclet$?GetGraphTitle_Condition@CGraphTitleDrawer@@ABE?AV?$CStringT@DV?$StrTraitMFC_DLL@DV?$ChTraitsCRT@D@ATL@@@@@ATL@@ABVCDrawingGraphData@@H@Z$16
	DD	07H
	DD	FLAT:__unwindfunclet$?GetGraphTitle_Condition@CGraphTitleDrawer@@ABE?AV?$CStringT@DV?$StrTraitMFC_DLL@DV?$ChTraitsCRT@D@ATL@@@@@ATL@@ABVCDrawingGraphData@@H@Z$11
	DD	0aH
	DD	FLAT:__unwindfunclet$?GetGraphTitle_Condition@CGraphTitleDrawer@@ABE?AV?$CStringT@DV?$StrTraitMFC_DLL@DV?$ChTraitsCRT@D@ATL@@@@@ATL@@ABVCDrawingGraphData@@H@Z$17
	DD	07H
	DD	FLAT:__unwindfunclet$?GetGraphTitle_Condition@CGraphTitleDrawer@@ABE?AV?$CStringT@DV?$StrTraitMFC_DLL@DV?$ChTraitsCRT@D@ATL@@@@@ATL@@ABVCDrawingGraphData@@H@Z$13
	DD	0cH
	DD	FLAT:__unwindfunclet$?GetGraphTitle_Condition@CGraphTitleDrawer@@ABE?AV?$CStringT@DV?$StrTraitMFC_DLL@DV?$ChTraitsCRT@D@ATL@@@@@ATL@@ABVCDrawingGraphData@@H@Z$18
	DD	06H
	DD	FLAT:__unwindfunclet$?GetGraphTitle_Condition@CGraphTitleDrawer@@ABE?AV?$CStringT@DV?$StrTraitMFC_DLL@DV?$ChTraitsCRT@D@ATL@@@@@ATL@@ABVCDrawingGraphData@@H@Z$15
xdata$x	ENDS
;	COMDAT xdata$x
xdata$x	SEGMENT
__ehfuncinfo$?GetGraphTitle@CGraphTitleDrawer@@ABE?AV?$CStringT@DV?$StrTraitMFC_DLL@DV?$ChTraitsCRT@D@ATL@@@@@ATL@@ABVCDrawingGraphData@@ABV23@HH@Z DD 019930522H
	DD	09H
	DD	FLAT:__unwindtable$?GetGraphTitle@CGraphTitleDrawer@@ABE?AV?$CStringT@DV?$StrTraitMFC_DLL@DV?$ChTraitsCRT@D@ATL@@@@@ATL@@ABVCDrawingGraphData@@ABV23@HH@Z
	DD	2 DUP(00H)
	DD	2 DUP(00H)
	DD	00H
	DD	01H
__unwindtable$?GetGraphTitle@CGraphTitleDrawer@@ABE?AV?$CStringT@DV?$StrTraitMFC_DLL@DV?$ChTraitsCRT@D@ATL@@@@@ATL@@ABVCDrawingGraphData@@ABV23@HH@Z DD 0ffffffffH
	DD	FLAT:__unwindfunclet$?GetGraphTitle@CGraphTitleDrawer@@ABE?AV?$CStringT@DV?$StrTraitMFC_DLL@DV?$ChTraitsCRT@D@ATL@@@@@ATL@@ABVCDrawingGraphData@@ABV23@HH@Z$1
	DD	00H
	DD	FLAT:__unwindfunclet$?GetGraphTitle@CGraphTitleDrawer@@ABE?AV?$CStringT@DV?$StrTraitMFC_DLL@DV?$ChTraitsCRT@D@ATL@@@@@ATL@@ABVCDrawingGraphData@@ABV23@HH@Z$2
	DD	00H
	DD	FLAT:__unwindfunclet$?GetGraphTitle@CGraphTitleDrawer@@ABE?AV?$CStringT@DV?$StrTraitMFC_DLL@DV?$ChTraitsCRT@D@ATL@@@@@ATL@@ABVCDrawingGraphData@@ABV23@HH@Z$3
	DD	02H
	DD	FLAT:__unwindfunclet$?GetGraphTitle@CGraphTitleDrawer@@ABE?AV?$CStringT@DV?$StrTraitMFC_DLL@DV?$ChTraitsCRT@D@ATL@@@@@ATL@@ABVCDrawingGraphData@@ABV23@HH@Z$10
	DD	02H
	DD	FLAT:__unwindfunclet$?GetGraphTitle@CGraphTitleDrawer@@ABE?AV?$CStringT@DV?$StrTraitMFC_DLL@DV?$ChTraitsCRT@D@ATL@@@@@ATL@@ABVCDrawingGraphData@@ABV23@HH@Z$4
	DD	02H
	DD	FLAT:__unwindfunclet$?GetGraphTitle@CGraphTitleDrawer@@ABE?AV?$CStringT@DV?$StrTraitMFC_DLL@DV?$ChTraitsCRT@D@ATL@@@@@ATL@@ABVCDrawingGraphData@@ABV23@HH@Z$11
	DD	02H
	DD	FLAT:__unwindfunclet$?GetGraphTitle@CGraphTitleDrawer@@ABE?AV?$CStringT@DV?$StrTraitMFC_DLL@DV?$ChTraitsCRT@D@ATL@@@@@ATL@@ABVCDrawingGraphData@@ABV23@HH@Z$6
	DD	06H
	DD	FLAT:__unwindfunclet$?GetGraphTitle@CGraphTitleDrawer@@ABE?AV?$CStringT@DV?$StrTraitMFC_DLL@DV?$ChTraitsCRT@D@ATL@@@@@ATL@@ABVCDrawingGraphData@@ABV23@HH@Z$7
	DD	07H
	DD	FLAT:__unwindfunclet$?GetGraphTitle@CGraphTitleDrawer@@ABE?AV?$CStringT@DV?$StrTraitMFC_DLL@DV?$ChTraitsCRT@D@ATL@@@@@ATL@@ABVCDrawingGraphData@@ABV23@HH@Z$8
xdata$x	ENDS
;	COMDAT xdata$x
xdata$x	SEGMENT
__ehfuncinfo$?GetGraphTitle@CGraphTitleDrawer@@ABE?AV?$CStringT@DV?$StrTraitMFC_DLL@DV?$ChTraitsCRT@D@ATL@@@@@ATL@@ABVCSubGraphData@@PAUHWND__@@@Z DD 019930522H
	DD	0cH
	DD	FLAT:__unwindtable$?GetGraphTitle@CGraphTitleDrawer@@ABE?AV?$CStringT@DV?$StrTraitMFC_DLL@DV?$ChTraitsCRT@D@ATL@@@@@ATL@@ABVCSubGraphData@@PAUHWND__@@@Z
	DD	2 DUP(00H)
	DD	2 DUP(00H)
	DD	00H
	DD	01H
__unwindtable$?GetGraphTitle@CGraphTitleDrawer@@ABE?AV?$CStringT@DV?$StrTraitMFC_DLL@DV?$ChTraitsCRT@D@ATL@@@@@ATL@@ABVCSubGraphData@@PAUHWND__@@@Z DD 0ffffffffH
	DD	FLAT:__unwindfunclet$?GetGraphTitle@CGraphTitleDrawer@@ABE?AV?$CStringT@DV?$StrTraitMFC_DLL@DV?$ChTraitsCRT@D@ATL@@@@@ATL@@ABVCSubGraphData@@PAUHWND__@@@Z$0
	DD	00H
	DD	FLAT:__unwindfunclet$?GetGraphTitle@CGraphTitleDrawer@@ABE?AV?$CStringT@DV?$StrTraitMFC_DLL@DV?$ChTraitsCRT@D@ATL@@@@@ATL@@ABVCSubGraphData@@PAUHWND__@@@Z$1
	DD	00H
	DD	FLAT:__unwindfunclet$?GetGraphTitle@CGraphTitleDrawer@@ABE?AV?$CStringT@DV?$StrTraitMFC_DLL@DV?$ChTraitsCRT@D@ATL@@@@@ATL@@ABVCSubGraphData@@PAUHWND__@@@Z$2
	DD	02H
	DD	FLAT:__unwindfunclet$?GetGraphTitle@CGraphTitleDrawer@@ABE?AV?$CStringT@DV?$StrTraitMFC_DLL@DV?$ChTraitsCRT@D@ATL@@@@@ATL@@ABVCSubGraphData@@PAUHWND__@@@Z$3
	DD	03H
	DD	FLAT:__unwindfunclet$?GetGraphTitle@CGraphTitleDrawer@@ABE?AV?$CStringT@DV?$StrTraitMFC_DLL@DV?$ChTraitsCRT@D@ATL@@@@@ATL@@ABVCSubGraphData@@PAUHWND__@@@Z$12
	DD	04H
	DD	FLAT:__unwindfunclet$?GetGraphTitle@CGraphTitleDrawer@@ABE?AV?$CStringT@DV?$StrTraitMFC_DLL@DV?$ChTraitsCRT@D@ATL@@@@@ATL@@ABVCSubGraphData@@PAUHWND__@@@Z$5
	DD	05H
	DD	FLAT:__unwindfunclet$?GetGraphTitle@CGraphTitleDrawer@@ABE?AV?$CStringT@DV?$StrTraitMFC_DLL@DV?$ChTraitsCRT@D@ATL@@@@@ATL@@ABVCSubGraphData@@PAUHWND__@@@Z$6
	DD	06H
	DD	FLAT:__unwindfunclet$?GetGraphTitle@CGraphTitleDrawer@@ABE?AV?$CStringT@DV?$StrTraitMFC_DLL@DV?$ChTraitsCRT@D@ATL@@@@@ATL@@ABVCSubGraphData@@PAUHWND__@@@Z$13
	DD	07H
	DD	FLAT:__unwindfunclet$?GetGraphTitle@CGraphTitleDrawer@@ABE?AV?$CStringT@DV?$StrTraitMFC_DLL@DV?$ChTraitsCRT@D@ATL@@@@@ATL@@ABVCSubGraphData@@PAUHWND__@@@Z$8
	DD	00H
	DD	FLAT:__unwindfunclet$?GetGraphTitle@CGraphTitleDrawer@@ABE?AV?$CStringT@DV?$StrTraitMFC_DLL@DV?$ChTraitsCRT@D@ATL@@@@@ATL@@ABVCSubGraphData@@PAUHWND__@@@Z$9
	DD	09H
	DD	FLAT:__unwindfunclet$?GetGraphTitle@CGraphTitleDrawer@@ABE?AV?$CStringT@DV?$StrTraitMFC_DLL@DV?$ChTraitsCRT@D@ATL@@@@@ATL@@ABVCSubGraphData@@PAUHWND__@@@Z$10
	DD	0aH
	DD	FLAT:__unwindfunclet$?GetGraphTitle@CGraphTitleDrawer@@ABE?AV?$CStringT@DV?$StrTraitMFC_DLL@DV?$ChTraitsCRT@D@ATL@@@@@ATL@@ABVCSubGraphData@@PAUHWND__@@@Z$11
xdata$x	ENDS
;	COMDAT xdata$x
xdata$x	SEGMENT
__unwindtable$?IsGraphTitleRegionDraw@CGraphTitleDrawer@@ABE_NABV?$CStringT@DV?$StrTraitMFC_DLL@DV?$ChTraitsCRT@D@ATL@@@@@ATL@@@Z DD 0ffffffffH
	DD	FLAT:__unwindfunclet$?IsGraphTitleRegionDraw@CGraphTitleDrawer@@ABE_NABV?$CStringT@DV?$StrTraitMFC_DLL@DV?$ChTraitsCRT@D@ATL@@@@@ATL@@@Z$0
__ehfuncinfo$?IsGraphTitleRegionDraw@CGraphTitleDrawer@@ABE_NABV?$CStringT@DV?$StrTraitMFC_DLL@DV?$ChTraitsCRT@D@ATL@@@@@ATL@@@Z DD 019930522H
	DD	01H
	DD	FLAT:__unwindtable$?IsGraphTitleRegionDraw@CGraphTitleDrawer@@ABE_NABV?$CStringT@DV?$StrTraitMFC_DLL@DV?$ChTraitsCRT@D@ATL@@@@@ATL@@@Z
	DD	2 DUP(00H)
	DD	2 DUP(00H)
	DD	00H
	DD	01H
xdata$x	ENDS
;	COMDAT xdata$x
xdata$x	SEGMENT
__ehfuncinfo$?DrawGraphTitleText@CGraphTitleDrawer@@AAEXPAVCDC@@ABVCPoint@@ABV?$CStringT@DV?$StrTraitMFC_DLL@DV?$ChTraitsCRT@D@ATL@@@@@ATL@@ABK3@Z DD 019930522H
	DD	05H
	DD	FLAT:__unwindtable$?DrawGraphTitleText@CGraphTitleDrawer@@AAEXPAVCDC@@ABVCPoint@@ABV?$CStringT@DV?$StrTraitMFC_DLL@DV?$ChTraitsCRT@D@ATL@@@@@ATL@@ABK3@Z
	DD	2 DUP(00H)
	DD	2 DUP(00H)
	DD	00H
	DD	01H
__unwindtable$?DrawGraphTitleText@CGraphTitleDrawer@@AAEXPAVCDC@@ABVCPoint@@ABV?$CStringT@DV?$StrTraitMFC_DLL@DV?$ChTraitsCRT@D@ATL@@@@@ATL@@ABK3@Z DD 0ffffffffH
	DD	FLAT:__unwindfunclet$?DrawGraphTitleText@CGraphTitleDrawer@@AAEXPAVCDC@@ABVCPoint@@ABV?$CStringT@DV?$StrTraitMFC_DLL@DV?$ChTraitsCRT@D@ATL@@@@@ATL@@ABK3@Z$0
	DD	00H
	DD	FLAT:__unwindfunclet$?DrawGraphTitleText@CGraphTitleDrawer@@AAEXPAVCDC@@ABVCPoint@@ABV?$CStringT@DV?$StrTraitMFC_DLL@DV?$ChTraitsCRT@D@ATL@@@@@ATL@@ABK3@Z$5
	DD	0ffffffffH
	DD	FLAT:__unwindfunclet$?DrawGraphTitleText@CGraphTitleDrawer@@AAEXPAVCDC@@ABVCPoint@@ABV?$CStringT@DV?$StrTraitMFC_DLL@DV?$ChTraitsCRT@D@ATL@@@@@ATL@@ABK3@Z$2
	DD	0ffffffffH
	DD	FLAT:__unwindfunclet$?DrawGraphTitleText@CGraphTitleDrawer@@AAEXPAVCDC@@ABVCPoint@@ABV?$CStringT@DV?$StrTraitMFC_DLL@DV?$ChTraitsCRT@D@ATL@@@@@ATL@@ABK3@Z$3
	DD	0ffffffffH
	DD	FLAT:__unwindfunclet$?DrawGraphTitleText@CGraphTitleDrawer@@AAEXPAVCDC@@ABVCPoint@@ABV?$CStringT@DV?$StrTraitMFC_DLL@DV?$ChTraitsCRT@D@ATL@@@@@ATL@@ABK3@Z$4
xdata$x	ENDS
;	COMDAT xdata$x
xdata$x	SEGMENT
__unwindtable$?DrawGraphTitleRegion@CGraphTitleDrawer@@AAEXPAVCDC@@ABVCRect@@ABK@Z DD 0ffffffffH
	DD	FLAT:__unwindfunclet$?DrawGraphTitleRegion@CGraphTitleDrawer@@AAEXPAVCDC@@ABVCRect@@ABK@Z$0
	DD	00H
	DD	FLAT:__unwindfunclet$?DrawGraphTitleRegion@CGraphTitleDrawer@@AAEXPAVCDC@@ABVCRect@@ABK@Z$1
__ehfuncinfo$?DrawGraphTitleRegion@CGraphTitleDrawer@@AAEXPAVCDC@@ABVCRect@@ABK@Z DD 019930522H
	DD	02H
	DD	FLAT:__unwindtable$?DrawGraphTitleRegion@CGraphTitleDrawer@@AAEXPAVCDC@@ABVCRect@@ABK@Z
	DD	2 DUP(00H)
	DD	2 DUP(00H)
	DD	00H
	DD	01H
xdata$x	ENDS
;	COMDAT xdata$x
xdata$x	SEGMENT
__unwindtable$?DrawGraphTitle@CGraphTitleDrawer@@AAEXPAVCDC@@ABVCRect@@ABV?$CStringT@DV?$StrTraitMFC_DLL@DV?$ChTraitsCRT@D@ATL@@@@@ATL@@ABK3@Z DD 0ffffffffH
	DD	FLAT:__unwindfunclet$?DrawGraphTitle@CGraphTitleDrawer@@AAEXPAVCDC@@ABVCRect@@ABV?$CStringT@DV?$StrTraitMFC_DLL@DV?$ChTraitsCRT@D@ATL@@@@@ATL@@ABK3@Z$0
	DD	00H
	DD	FLAT:__unwindfunclet$?DrawGraphTitle@CGraphTitleDrawer@@AAEXPAVCDC@@ABVCRect@@ABV?$CStringT@DV?$StrTraitMFC_DLL@DV?$ChTraitsCRT@D@ATL@@@@@ATL@@ABK3@Z$1
	DD	00H
	DD	FLAT:__unwindfunclet$?DrawGraphTitle@CGraphTitleDrawer@@AAEXPAVCDC@@ABVCRect@@ABV?$CStringT@DV?$StrTraitMFC_DLL@DV?$ChTraitsCRT@D@ATL@@@@@ATL@@ABK3@Z$2
	DD	02H
	DD	FLAT:__unwindfunclet$?DrawGraphTitle@CGraphTitleDrawer@@AAEXPAVCDC@@ABVCRect@@ABV?$CStringT@DV?$StrTraitMFC_DLL@DV?$ChTraitsCRT@D@ATL@@@@@ATL@@ABK3@Z$3
__ehfuncinfo$?DrawGraphTitle@CGraphTitleDrawer@@AAEXPAVCDC@@ABVCRect@@ABV?$CStringT@DV?$StrTraitMFC_DLL@DV?$ChTraitsCRT@D@ATL@@@@@ATL@@ABK3@Z DD 019930522H
	DD	04H
	DD	FLAT:__unwindtable$?DrawGraphTitle@CGraphTitleDrawer@@AAEXPAVCDC@@ABVCRect@@ABV?$CStringT@DV?$StrTraitMFC_DLL@DV?$ChTraitsCRT@D@ATL@@@@@ATL@@ABK3@Z
	DD	2 DUP(00H)
	DD	2 DUP(00H)
	DD	00H
	DD	01H
xdata$x	ENDS
;	COMDAT xdata$x
xdata$x	SEGMENT
__unwindtable$?DrawGraphTitle@CGraphTitleDrawer@@AAE_NPAVCDC@@ABVCDrawingGraphData@@ABVCSubGraphData@@ABV?$CStringT@DV?$StrTraitMFC_DLL@DV?$ChTraitsCRT@D@ATL@@@@@ATL@@HAAH4H@Z DD 0ffffffffH
	DD	FLAT:__unwindfunclet$?DrawGraphTitle@CGraphTitleDrawer@@AAE_NPAVCDC@@ABVCDrawingGraphData@@ABVCSubGraphData@@ABV?$CStringT@DV?$StrTraitMFC_DLL@DV?$ChTraitsCRT@D@ATL@@@@@ATL@@HAAH4H@Z$0
__ehfuncinfo$?DrawGraphTitle@CGraphTitleDrawer@@AAE_NPAVCDC@@ABVCDrawingGraphData@@ABVCSubGraphData@@ABV?$CStringT@DV?$StrTraitMFC_DLL@DV?$ChTraitsCRT@D@ATL@@@@@ATL@@HAAH4H@Z DD 019930522H
	DD	01H
	DD	FLAT:__unwindtable$?DrawGraphTitle@CGraphTitleDrawer@@AAE_NPAVCDC@@ABVCDrawingGraphData@@ABVCSubGraphData@@ABV?$CStringT@DV?$StrTraitMFC_DLL@DV?$ChTraitsCRT@D@ATL@@@@@ATL@@HAAH4H@Z
	DD	2 DUP(00H)
	DD	2 DUP(00H)
	DD	00H
	DD	01H
xdata$x	ENDS
;	COMDAT xdata$x
xdata$x	SEGMENT
__unwindtable$?DrawGraphTitle@CGraphTitleDrawer@@QAE_NPAVCDC@@ABVCDrawingGraphData@@ABVCSubGraphData@@AAH3@Z DD 0ffffffffH
	DD	FLAT:__unwindfunclet$?DrawGraphTitle@CGraphTitleDrawer@@QAE_NPAVCDC@@ABVCDrawingGraphData@@ABVCSubGraphData@@AAH3@Z$0
	DD	0ffffffffH
	DD	FLAT:__unwindfunclet$?DrawGraphTitle@CGraphTitleDrawer@@QAE_NPAVCDC@@ABVCDrawingGraphData@@ABVCSubGraphData@@AAH3@Z$1
	DD	01H
	DD	FLAT:__unwindfunclet$?DrawGraphTitle@CGraphTitleDrawer@@QAE_NPAVCDC@@ABVCDrawingGraphData@@ABVCSubGraphData@@AAH3@Z$2
	DD	02H
	DD	FLAT:__unwindfunclet$?DrawGraphTitle@CGraphTitleDrawer@@QAE_NPAVCDC@@ABVCDrawingGraphData@@ABVCSubGraphData@@AAH3@Z$3
__ehfuncinfo$?DrawGraphTitle@CGraphTitleDrawer@@QAE_NPAVCDC@@ABVCDrawingGraphData@@ABVCSubGraphData@@AAH3@Z DD 019930522H
	DD	04H
	DD	FLAT:__unwindtable$?DrawGraphTitle@CGraphTitleDrawer@@QAE_NPAVCDC@@ABVCDrawingGraphData@@ABVCSubGraphData@@AAH3@Z
	DD	2 DUP(00H)
	DD	2 DUP(00H)
	DD	00H
	DD	01H
xdata$x	ENDS
;	COMDAT xdata$x
xdata$x	SEGMENT
__unwindtable$??0CGraphTitleDrawer@@QAE@XZ DD 0ffffffffH
	DD	FLAT:__unwindfunclet$??0CGraphTitleDrawer@@QAE@XZ$0
__ehfuncinfo$??0CGraphTitleDrawer@@QAE@XZ DD 019930522H
	DD	01H
	DD	FLAT:__unwindtable$??0CGraphTitleDrawer@@QAE@XZ
	DD	2 DUP(00H)
	DD	2 DUP(00H)
	DD	00H
	DD	01H
xdata$x	ENDS
;	COMDAT xdata$x
xdata$x	SEGMENT
__catchsym$??1CGdiObject@@UAE@XZ$3 DD 00H
	DD	FLAT:??_R0PAVCException@@@8
	DD	0fffffde4H
	DD	FLAT:__catch$??1CGdiObject@@UAE@XZ$0
__tryblocktable$??1CGdiObject@@UAE@XZ DD 00H
	DD	00H
	DD	02H
	DD	01H
	DD	FLAT:__catchsym$??1CGdiObject@@UAE@XZ$3
__unwindtable$??1CGdiObject@@UAE@XZ DD 0ffffffffH
	DD	00H
	DD	0ffffffffH
	DD	00H
	DD	01H
	DD	FLAT:__unwindfunclet$??1CGdiObject@@UAE@XZ$2
__ehfuncinfo$??1CGdiObject@@UAE@XZ DD 019930522H
	DD	03H
	DD	FLAT:__unwindtable$??1CGdiObject@@UAE@XZ
	DD	01H
	DD	FLAT:__tryblocktable$??1CGdiObject@@UAE@XZ
	DD	2 DUP(00H)
	DD	00H
	DD	05H
xdata$x	ENDS
;	COMDAT xdata$x
xdata$x	SEGMENT
__unwindtable$??HATL@@YA?AV?$CStringT@DV?$StrTraitMFC_DLL@DV?$ChTraitsCRT@D@ATL@@@@@0@ABV10@D@Z DD 0ffffffffH
	DD	FLAT:__unwindfunclet$??HATL@@YA?AV?$CStringT@DV?$StrTraitMFC_DLL@DV?$ChTraitsCRT@D@ATL@@@@@0@ABV10@D@Z$0
__ehfuncinfo$??HATL@@YA?AV?$CStringT@DV?$StrTraitMFC_DLL@DV?$ChTraitsCRT@D@ATL@@@@@0@ABV10@D@Z DD 019930522H
	DD	01H
	DD	FLAT:__unwindtable$??HATL@@YA?AV?$CStringT@DV?$StrTraitMFC_DLL@DV?$ChTraitsCRT@D@ATL@@@@@0@ABV10@D@Z
	DD	2 DUP(00H)
	DD	2 DUP(00H)
	DD	00H
	DD	01H
xdata$x	ENDS
;	COMDAT xdata$x
xdata$x	SEGMENT
__unwindtable$??HATL@@YA?AV?$CStringT@DV?$StrTraitMFC_DLL@DV?$ChTraitsCRT@D@ATL@@@@@0@PBDABV10@@Z DD 0ffffffffH
	DD	FLAT:__unwindfunclet$??HATL@@YA?AV?$CStringT@DV?$StrTraitMFC_DLL@DV?$ChTraitsCRT@D@ATL@@@@@0@PBDABV10@@Z$0
__ehfuncinfo$??HATL@@YA?AV?$CStringT@DV?$StrTraitMFC_DLL@DV?$ChTraitsCRT@D@ATL@@@@@0@PBDABV10@@Z DD 019930522H
	DD	01H
	DD	FLAT:__unwindtable$??HATL@@YA?AV?$CStringT@DV?$StrTraitMFC_DLL@DV?$ChTraitsCRT@D@ATL@@@@@0@PBDABV10@@Z
	DD	2 DUP(00H)
	DD	2 DUP(00H)
	DD	00H
	DD	01H
xdata$x	ENDS
;	COMDAT xdata$x
xdata$x	SEGMENT
__unwindtable$??HATL@@YA?AV?$CStringT@DV?$StrTraitMFC_DLL@DV?$ChTraitsCRT@D@ATL@@@@@0@ABV10@PBD@Z DD 0ffffffffH
	DD	FLAT:__unwindfunclet$??HATL@@YA?AV?$CStringT@DV?$StrTraitMFC_DLL@DV?$ChTraitsCRT@D@ATL@@@@@0@ABV10@PBD@Z$0
__ehfuncinfo$??HATL@@YA?AV?$CStringT@DV?$StrTraitMFC_DLL@DV?$ChTraitsCRT@D@ATL@@@@@0@ABV10@PBD@Z DD 019930522H
	DD	01H
	DD	FLAT:__unwindtable$??HATL@@YA?AV?$CStringT@DV?$StrTraitMFC_DLL@DV?$ChTraitsCRT@D@ATL@@@@@0@ABV10@PBD@Z
	DD	2 DUP(00H)
	DD	2 DUP(00H)
	DD	00H
	DD	01H
xdata$x	ENDS
;	COMDAT xdata$x
xdata$x	SEGMENT
__unwindtable$??HATL@@YA?AV?$CStringT@DV?$StrTraitMFC_DLL@DV?$ChTraitsCRT@D@ATL@@@@@0@ABV10@0@Z DD 0ffffffffH
	DD	FLAT:__unwindfunclet$??HATL@@YA?AV?$CStringT@DV?$StrTraitMFC_DLL@DV?$ChTraitsCRT@D@ATL@@@@@0@ABV10@0@Z$0
__ehfuncinfo$??HATL@@YA?AV?$CStringT@DV?$StrTraitMFC_DLL@DV?$ChTraitsCRT@D@ATL@@@@@0@ABV10@0@Z DD 019930522H
	DD	01H
	DD	FLAT:__unwindtable$??HATL@@YA?AV?$CStringT@DV?$StrTraitMFC_DLL@DV?$ChTraitsCRT@D@ATL@@@@@0@ABV10@0@Z
	DD	2 DUP(00H)
	DD	2 DUP(00H)
	DD	00H
	DD	01H
xdata$x	ENDS
; Function compile flags: /Ogtp
; File C:\Program Files (x86)\Microsoft Visual Studio\2019\Community\VC\Tools\MSVC\14.29.30133\atlmfc\include\afxtempl.h
;	COMDAT ?FindIndex@?$CList@NN@@QBEPAU__POSITION@@H@Z
_TEXT	SEGMENT
_nIndex$ = 8						; size = 4
?FindIndex@?$CList@NN@@QBEPAU__POSITION@@H@Z PROC	; CList<double,double>::FindIndex, COMDAT
; _this$ = ecx

; 1130 : {

  00000	55		 push	 ebp
  00001	8b ec		 mov	 ebp, esp

; 1131 : 	ASSERT_VALID(this);
; 1132 : 
; 1133 : 	if (nIndex >= m_nCount || nIndex < 0)

  00003	8b 55 08	 mov	 edx, DWORD PTR _nIndex$[ebp]
  00006	3b 51 0c	 cmp	 edx, DWORD PTR [ecx+12]
  00009	7d 14		 jge	 SHORT $LN5@FindIndex
  0000b	85 d2		 test	 edx, edx
  0000d	78 10		 js	 SHORT $LN5@FindIndex

; 1135 : 
; 1136 : 	CNode* pNode = m_pNodeHead;

  0000f	8b 41 04	 mov	 eax, DWORD PTR [ecx+4]

; 1137 : 	while (nIndex--)

  00012	74 0d		 je	 SHORT $LN1@FindIndex
$LL2@FindIndex:

; 1138 : 	{
; 1139 : 		ASSERT(AfxIsValidAddress(pNode, sizeof(CNode)));
; 1140 : 		pNode = pNode->pNext;

  00014	8b 00		 mov	 eax, DWORD PTR [eax]
  00016	83 ea 01	 sub	 edx, 1
  00019	75 f9		 jne	 SHORT $LL2@FindIndex

; 1141 : 	}
; 1142 : 	return (POSITION) pNode;
; 1143 : }

  0001b	5d		 pop	 ebp
  0001c	c2 04 00	 ret	 4
$LN5@FindIndex:

; 1134 : 		return NULL;  // went too far

  0001f	33 c0		 xor	 eax, eax
$LN1@FindIndex:

; 1141 : 	}
; 1142 : 	return (POSITION) pNode;
; 1143 : }

  00021	5d		 pop	 ebp
  00022	c2 04 00	 ret	 4
?FindIndex@?$CList@NN@@QBEPAU__POSITION@@H@Z ENDP	; CList<double,double>::FindIndex
_TEXT	ENDS
; Function compile flags: /Ogtp
;	COMDAT ??4CGraphDrawer@@QAEAAV0@$$QAV0@@Z
_TEXT	SEGMENT
___that$ = 8						; size = 4
??4CGraphDrawer@@QAEAAV0@$$QAV0@@Z PROC			; CGraphDrawer::operator=, COMDAT
; _this$ = ecx
  00000	8b c1		 mov	 eax, ecx
  00002	c2 04 00	 ret	 4
??4CGraphDrawer@@QAEAAV0@$$QAV0@@Z ENDP			; CGraphDrawer::operator=
_TEXT	ENDS
; Function compile flags: /Ogtp
;	COMDAT ??4CGraphDrawer@@QAEAAV0@ABV0@@Z
_TEXT	SEGMENT
___that$ = 8						; size = 4
??4CGraphDrawer@@QAEAAV0@ABV0@@Z PROC			; CGraphDrawer::operator=, COMDAT
; _this$ = ecx
  00000	8b c1		 mov	 eax, ecx
  00002	c2 04 00	 ret	 4
??4CGraphDrawer@@QAEAAV0@ABV0@@Z ENDP			; CGraphDrawer::operator=
_TEXT	ENDS
; Function compile flags: /Ogtp
; File D:\git\src\IBK\IBK_DRFN\ProjSrc\SrcChartEx\ChartOCX\GraphDraw\GraphTitleDrawer.cpp
;	COMDAT ?GetDrawConditionData@CGraphTitleDrawer@@ABE_NPBVCIndicatorInfo@@HAAH@Z
_TEXT	SEGMENT
_pIndicatorInfo$ = 8					; size = 4
_nIndex$ = 12						; size = 4
_nDrawCond$ = 16					; size = 4
?GetDrawConditionData@CGraphTitleDrawer@@ABE_NPBVCIndicatorInfo@@HAAH@Z PROC ; CGraphTitleDrawer::GetDrawConditionData, COMDAT
; _this$ = ecx

; 515  : {

  00000	55		 push	 ebp
  00001	8b ec		 mov	 ebp, esp

; 516  : 	if(pIndicatorInfo == NULL || nIndex < 0)

  00003	8b 4d 08	 mov	 ecx, DWORD PTR _pIndicatorInfo$[ebp]
  00006	85 c9		 test	 ecx, ecx
  00008	74 34		 je	 SHORT $LN3@GetDrawCon
  0000a	83 7d 0c 00	 cmp	 DWORD PTR _nIndex$[ebp], 0
  0000e	7c 2e		 jl	 SHORT $LN3@GetDrawCon

; 518  : 
; 519  : 	CList<double, double>* pDrawCondList = pIndicatorInfo->GetDrawConditionList();

  00010	ff 15 00 00 00
	00		 call	 DWORD PTR __imp_?GetDrawConditionList@CIndicatorInfo@@QBEPAV?$CList@NN@@XZ

; 520  : 	if(pDrawCondList == NULL || pDrawCondList->GetCount() <= 0)

  00016	85 c0		 test	 eax, eax
  00018	74 24		 je	 SHORT $LN3@GetDrawCon
  0001a	83 78 0c 00	 cmp	 DWORD PTR [eax+12], 0
  0001e	7e 1e		 jle	 SHORT $LN3@GetDrawCon

; 521  : 		return false;
; 522  : 
; 523  : 	POSITION pos = pDrawCondList->FindIndex(nIndex);

  00020	ff 75 0c	 push	 DWORD PTR _nIndex$[ebp]
  00023	8b c8		 mov	 ecx, eax
  00025	e8 00 00 00 00	 call	 ?FindIndex@?$CList@NN@@QBEPAU__POSITION@@H@Z ; CList<double,double>::FindIndex

; 524  : 	if(pos == NULL)

  0002a	85 c0		 test	 eax, eax
  0002c	74 10		 je	 SHORT $LN3@GetDrawCon

; 525  : 		return false;
; 526  : 
; 527  : 	nDrawCond = (int)pDrawCondList->GetAt(pos);

  0002e	f2 0f 2c 48 08	 cvttsd2si ecx, QWORD PTR [eax+8]
  00033	8b 45 10	 mov	 eax, DWORD PTR _nDrawCond$[ebp]
  00036	89 08		 mov	 DWORD PTR [eax], ecx

; 528  : 	return true;

  00038	b0 01		 mov	 al, 1

; 529  : }

  0003a	5d		 pop	 ebp
  0003b	c2 0c 00	 ret	 12			; 0000000cH
$LN3@GetDrawCon:

; 517  : 		return false;

  0003e	32 c0		 xor	 al, al

; 529  : }

  00040	5d		 pop	 ebp
  00041	c2 0c 00	 ret	 12			; 0000000cH
?GetDrawConditionData@CGraphTitleDrawer@@ABE_NPBVCIndicatorInfo@@HAAH@Z ENDP ; CGraphTitleDrawer::GetDrawConditionData
_TEXT	ENDS
; Function compile flags: /Ogtp
; File D:\git\src\IBK\IBK_DRFN\ProjSrc\SrcChartEx\ChartOCX\GraphDraw\GraphTitleDrawer.cpp
;	COMDAT ?GetPacket@CGraphTitleDrawer@@ABEPAVCPacket@@ABVCDrawingGraphData@@H@Z
_TEXT	SEGMENT
$T2 = -16						; size = 4
__$EHRec$ = -12						; size = 12
_drawingGraphData$ = 8					; size = 4
$T3 = 11						; size = 1
_nIndex$ = 12						; size = 4
$T4 = 15						; size = 1
?GetPacket@CGraphTitleDrawer@@ABEPAVCPacket@@ABVCDrawingGraphData@@H@Z PROC ; CGraphTitleDrawer::GetPacket, COMDAT
; _this$ = ecx

; 501  : {

  00000	55		 push	 ebp
  00001	8b ec		 mov	 ebp, esp
  00003	6a ff		 push	 -1
  00005	68 00 00 00 00	 push	 __ehhandler$?GetPacket@CGraphTitleDrawer@@ABEPAVCPacket@@ABVCDrawingGraphData@@H@Z
  0000a	64 a1 00 00 00
	00		 mov	 eax, DWORD PTR fs:0
  00010	50		 push	 eax
  00011	51		 push	 ecx
  00012	56		 push	 esi
  00013	57		 push	 edi
  00014	a1 00 00 00 00	 mov	 eax, DWORD PTR ___security_cookie
  00019	33 c5		 xor	 eax, ebp
  0001b	50		 push	 eax
  0001c	8d 45 f4	 lea	 eax, DWORD PTR __$EHRec$[ebp]
  0001f	64 a3 00 00 00
	00		 mov	 DWORD PTR fs:0, eax

; 502  : 	CSubGraphPacketList* pSubGraphPacketList = drawingGraphData.GetSubGraphPacketList();

  00025	8b 75 08	 mov	 esi, DWORD PTR _drawingGraphData$[ebp]
  00028	8b ce		 mov	 ecx, esi
  0002a	e8 00 00 00 00	 call	 ?GetSubGraphPacketList@CDrawingGraphData@@QBEPAVCSubGraphPacketList@@XZ ; CDrawingGraphData::GetSubGraphPacketList

; 503  : 	if(pSubGraphPacketList == NULL)

  0002f	85 c0		 test	 eax, eax
  00031	75 13		 jne	 SHORT $LN2@GetPacket

; 512  : }

  00033	8b 4d f4	 mov	 ecx, DWORD PTR __$EHRec$[ebp]
  00036	64 89 0d 00 00
	00 00		 mov	 DWORD PTR fs:0, ecx
  0003d	59		 pop	 ecx
  0003e	5f		 pop	 edi
  0003f	5e		 pop	 esi
  00040	8b e5		 mov	 esp, ebp
  00042	5d		 pop	 ebp
  00043	c2 08 00	 ret	 8
$LN2@GetPacket:

; 504  : 		return NULL;
; 505  : 
; 506  : 	const CList<CPacket*, CPacket*> &packetList = pSubGraphPacketList->GetSubGraphPacketList();

  00046	8b c8		 mov	 ecx, eax
  00048	e8 00 00 00 00	 call	 ?GetSubGraphPacketList@CSubGraphPacketList@@QBEABV?$CList@PAVCPacket@@PAV1@@@XZ ; CSubGraphPacketList::GetSubGraphPacketList

; 507  : 	CPacket* pPacket = CDrawingPacketFinder().GetPacket( packetList, nIndex);

  0004d	ff 75 0c	 push	 DWORD PTR _nIndex$[ebp]
  00050	8b f8		 mov	 edi, eax
  00052	8d 4d 0b	 lea	 ecx, DWORD PTR $T3[ebp]
  00055	57		 push	 edi
  00056	e8 00 00 00 00	 call	 ?GetPacket@CDrawingPacketFinder@@QBEPAVCPacket@@ABV?$CList@PAVCPacket@@PAV1@@@H@Z ; CDrawingPacketFinder::GetPacket

; 508  : 	if(pPacket != NULL)

  0005b	85 c0		 test	 eax, eax
  0005d	75 29		 jne	 SHORT $LN1@GetPacket

; 509  : 		return pPacket;
; 510  : 
; 511  : 	return CDrawingPacketFinder().GetPracticalPacket( drawingGraphData.GetGraphName(), packetList);

  0005f	8d 45 f0	 lea	 eax, DWORD PTR $T2[ebp]
  00062	8b ce		 mov	 ecx, esi
  00064	50		 push	 eax
  00065	e8 00 00 00 00	 call	 ?GetGraphName@CDrawingGraphData@@QBE?AV?$CStringT@DV?$StrTraitMFC_DLL@DV?$ChTraitsCRT@D@ATL@@@@@ATL@@XZ ; CDrawingGraphData::GetGraphName
  0006a	57		 push	 edi
  0006b	50		 push	 eax
  0006c	8d 4d 0f	 lea	 ecx, DWORD PTR $T4[ebp]
  0006f	c7 45 fc 00 00
	00 00		 mov	 DWORD PTR __$EHRec$[ebp+8], 0
  00076	e8 00 00 00 00	 call	 ?GetPracticalPacket@CDrawingPacketFinder@@QBEPAVCPacket@@ABV?$CStringT@DV?$StrTraitMFC_DLL@DV?$ChTraitsCRT@D@ATL@@@@@ATL@@ABV?$CList@PAVCPacket@@PAV1@@@@Z ; CDrawingPacketFinder::GetPracticalPacket
  0007b	8d 4d f0	 lea	 ecx, DWORD PTR $T2[ebp]
  0007e	8b f0		 mov	 esi, eax
  00080	ff 15 00 00 00
	00		 call	 DWORD PTR __imp_??1?$CStringT@DV?$StrTraitMFC_DLL@DV?$ChTraitsCRT@D@ATL@@@@@ATL@@QAE@XZ
  00086	8b c6		 mov	 eax, esi
$LN1@GetPacket:

; 512  : }

  00088	8b 4d f4	 mov	 ecx, DWORD PTR __$EHRec$[ebp]
  0008b	64 89 0d 00 00
	00 00		 mov	 DWORD PTR fs:0, ecx
  00092	59		 pop	 ecx
  00093	5f		 pop	 edi
  00094	5e		 pop	 esi
  00095	8b e5		 mov	 esp, ebp
  00097	5d		 pop	 ebp
  00098	c2 08 00	 ret	 8
_TEXT	ENDS
;	COMDAT text$x
text$x	SEGMENT
__unwindfunclet$?GetPacket@CGraphTitleDrawer@@ABEPAVCPacket@@ABVCDrawingGraphData@@H@Z$0:
  00000	8d 4d f0	 lea	 ecx, DWORD PTR $T2[ebp]
  00003	ff 25 00 00 00
	00		 jmp	 DWORD PTR __imp_??1?$CStringT@DV?$StrTraitMFC_DLL@DV?$ChTraitsCRT@D@ATL@@@@@ATL@@QAE@XZ
  00009	cc		 int	 3
  0000a	cc		 int	 3
  0000b	cc		 int	 3
  0000c	cc		 int	 3
  0000d	cc		 int	 3
__ehhandler$?GetPacket@CGraphTitleDrawer@@ABEPAVCPacket@@ABVCDrawingGraphData@@H@Z:
  0000e	90		 npad	 1
  0000f	90		 npad	 1
  00010	8b 54 24 08	 mov	 edx, DWORD PTR [esp+8]
  00014	8d 42 0c	 lea	 eax, DWORD PTR [edx+12]
  00017	8b 4a f0	 mov	 ecx, DWORD PTR [edx-16]
  0001a	33 c8		 xor	 ecx, eax
  0001c	e8 00 00 00 00	 call	 @__security_check_cookie@4
  00021	b8 00 00 00 00	 mov	 eax, OFFSET __ehfuncinfo$?GetPacket@CGraphTitleDrawer@@ABEPAVCPacket@@ABVCDrawingGraphData@@H@Z
  00026	e9 00 00 00 00	 jmp	 ___CxxFrameHandler3
text$x	ENDS
?GetPacket@CGraphTitleDrawer@@ABEPAVCPacket@@ABVCDrawingGraphData@@H@Z ENDP ; CGraphTitleDrawer::GetPacket
; Function compile flags: /Ogtp
; File D:\git\src\IBK\IBK_DRFN\ProjSrc\SrcChartEx\ChartOCX\GraphDraw\GraphTitleDrawer.cpp
; File C:\Program Files (x86)\Microsoft Visual Studio\2019\Community\VC\Tools\MSVC\14.29.30133\atlmfc\include\atlsimpstr.h
; File C:\Program Files (x86)\Microsoft Visual Studio\2019\Community\VC\Tools\MSVC\14.29.30133\atlmfc\include\afxwin1.inl
; File D:\git\src\IBK\IBK_DRFN\ProjSrc\SrcChartEx\ChartOCX\GraphDraw\GraphTitleDrawer.cpp
; File C:\Program Files (x86)\Microsoft Visual Studio\2019\Community\VC\Tools\MSVC\14.29.30133\atlmfc\include\atlsimpstr.h
; File C:\Program Files (x86)\Microsoft Visual Studio\2019\Community\VC\Tools\MSVC\14.29.30133\atlmfc\include\afxwin1.inl
; File D:\git\src\IBK\IBK_DRFN\ProjSrc\SrcChartEx\ChartOCX\GraphDraw\GraphTitleDrawer.cpp
; File C:\Program Files (x86)\Microsoft Visual Studio\2019\Community\VC\Tools\MSVC\14.29.30133\atlmfc\include\atltypes.h
; File D:\git\src\IBK\IBK_DRFN\ProjSrc\SrcChartEx\ChartOCX\GraphDraw\GraphTitleDrawer.cpp
; File C:\Program Files (x86)\Microsoft Visual Studio\2019\Community\VC\Tools\MSVC\14.29.30133\atlmfc\include\atltypes.h
; File D:\git\src\IBK\IBK_DRFN\ProjSrc\SrcChartEx\ChartOCX\GraphDraw\GraphTitleDrawer.cpp
; File C:\Program Files (x86)\Microsoft Visual Studio\2019\Community\VC\Tools\MSVC\14.29.30133\atlmfc\include\atltypes.h
; File D:\git\src\IBK\IBK_DRFN\ProjSrc\SrcChartEx\ChartOCX\GraphDraw\GraphTitleDrawer.cpp
; File C:\Program Files (x86)\Microsoft Visual Studio\2019\Community\VC\Tools\MSVC\14.29.30133\atlmfc\include\atltypes.h
; File D:\git\src\IBK\IBK_DRFN\ProjSrc\SrcChartEx\ChartOCX\GraphDraw\GraphTitleDrawer.cpp
; File C:\Program Files (x86)\Microsoft Visual Studio\2019\Community\VC\Tools\MSVC\14.29.30133\atlmfc\include\atltypes.h
; File D:\git\src\IBK\IBK_DRFN\ProjSrc\SrcChartEx\ChartOCX\GraphDraw\GraphTitleDrawer.cpp
;	COMDAT ?GetGraphTitleRegion@CGraphTitleDrawer@@ABE?AVCRect@@PAVCDC@@ABVCPoint@@ABV?$CStringT@DV?$StrTraitMFC_DLL@DV?$ChTraitsCRT@D@ATL@@@@@ATL@@AAH3@Z
_TEXT	SEGMENT
_size$1 = -8						; size = 8
___$ReturnUdt$ = 8					; size = 4
_pDC$ = 12						; size = 4
_orgPoint$ = 16						; size = 4
_x$1$ = 20						; size = 4
_strTitle$ = 20						; size = 4
_nTitleEndPosition$ = 24				; size = 4
_nTitleEndLine$ = 28					; size = 4
?GetGraphTitleRegion@CGraphTitleDrawer@@ABE?AVCRect@@PAVCDC@@ABVCPoint@@ABV?$CStringT@DV?$StrTraitMFC_DLL@DV?$ChTraitsCRT@D@ATL@@@@@ATL@@AAH3@Z PROC ; CGraphTitleDrawer::GetGraphTitleRegion, COMDAT
; _this$ = ecx

; 489  : {

  00000	55		 push	 ebp
  00001	8b ec		 mov	 ebp, esp
  00003	83 ec 08	 sub	 esp, 8
; File C:\Program Files (x86)\Microsoft Visual Studio\2019\Community\VC\Tools\MSVC\14.29.30133\atlmfc\include\atlsimpstr.h

; 519  : 		return( GetData()->nDataLength );

  00006	8b 45 14	 mov	 eax, DWORD PTR _strTitle$[ebp]
; File C:\Program Files (x86)\Microsoft Visual Studio\2019\Community\VC\Tools\MSVC\14.29.30133\atlmfc\include\afxwin1.inl

; 639  : 		VERIFY(::GetTextExtentPoint32(m_hAttribDC, str, (int)str.GetLength(), &size));

  00009	8d 4d f8	 lea	 ecx, DWORD PTR _size$1[ebp]
; File D:\git\src\IBK\IBK_DRFN\ProjSrc\SrcChartEx\ChartOCX\GraphDraw\GraphTitleDrawer.cpp

; 489  : {

  0000c	53		 push	 ebx
  0000d	56		 push	 esi
  0000e	57		 push	 edi
; File C:\Program Files (x86)\Microsoft Visual Studio\2019\Community\VC\Tools\MSVC\14.29.30133\atlmfc\include\atlsimpstr.h

; 519  : 		return( GetData()->nDataLength );

  0000f	8b 00		 mov	 eax, DWORD PTR [eax]
; File C:\Program Files (x86)\Microsoft Visual Studio\2019\Community\VC\Tools\MSVC\14.29.30133\atlmfc\include\afxwin1.inl

; 639  : 		VERIFY(::GetTextExtentPoint32(m_hAttribDC, str, (int)str.GetLength(), &size));

  00011	51		 push	 ecx
  00012	ff 70 f4	 push	 DWORD PTR [eax-12]
  00015	50		 push	 eax
  00016	8b 45 0c	 mov	 eax, DWORD PTR _pDC$[ebp]
  00019	ff 70 08	 push	 DWORD PTR [eax+8]
  0001c	ff 15 00 00 00
	00		 call	 DWORD PTR __imp__GetTextExtentPoint32A@16
; File D:\git\src\IBK\IBK_DRFN\ProjSrc\SrcChartEx\ChartOCX\GraphDraw\GraphTitleDrawer.cpp

; 491  : 	int x = nTitleEndPosition + MARGIN;

  00022	8b 4d 18	 mov	 ecx, DWORD PTR _nTitleEndPosition$[ebp]

; 492  : 	//    :  - ojtaso (20070227)
; 493  : 	int y = orgPoint.y + ((titleSize.cy + MARGIN) * (nTitleEndLine - 1));

  00025	8b 7d fc	 mov	 edi, DWORD PTR _size$1[ebp+4]
  00028	8b 55 10	 mov	 edx, DWORD PTR _orgPoint$[ebp]

; 494  : 	nTitleEndPosition = x + titleSize.cx + MARGIN * 2;

  0002b	8b 75 f8	 mov	 esi, DWORD PTR _size$1[ebp]
  0002e	8b 01		 mov	 eax, DWORD PTR [ecx]
  00030	83 c0 04	 add	 eax, 4
  00033	89 45 14	 mov	 DWORD PTR _x$1$[ebp], eax
  00036	8b 45 1c	 mov	 eax, DWORD PTR _nTitleEndLine$[ebp]
  00039	8b 18		 mov	 ebx, DWORD PTR [eax]
  0003b	8d 47 04	 lea	 eax, DWORD PTR [edi+4]
  0003e	4b		 dec	 ebx
  0003f	0f af d8	 imul	 ebx, eax
  00042	8b 45 14	 mov	 eax, DWORD PTR _x$1$[ebp]
  00045	83 c0 08	 add	 eax, 8
  00048	03 c6		 add	 eax, esi
  0004a	03 5a 04	 add	 ebx, DWORD PTR [edx+4]
  0004d	89 01		 mov	 DWORD PTR [ecx], eax
; File C:\Program Files (x86)\Microsoft Visual Studio\2019\Community\VC\Tools\MSVC\14.29.30133\atlmfc\include\atltypes.h

; 540  : 	left = l;

  0004f	8b 45 08	 mov	 eax, DWORD PTR ___$ReturnUdt$[ebp]
; File D:\git\src\IBK\IBK_DRFN\ProjSrc\SrcChartEx\ChartOCX\GraphDraw\GraphTitleDrawer.cpp

; 497  : 	return CRect(orgPoint.x +x, y, orgPoint.x +x +titleSize.cx, y +titleSize.cy);

  00052	8b 12		 mov	 edx, DWORD PTR [edx]
  00054	8b 4d 14	 mov	 ecx, DWORD PTR _x$1$[ebp]
  00057	03 ca		 add	 ecx, edx
; File C:\Program Files (x86)\Microsoft Visual Studio\2019\Community\VC\Tools\MSVC\14.29.30133\atlmfc\include\atltypes.h

; 540  : 	left = l;

  00059	89 08		 mov	 DWORD PTR [eax], ecx
; File D:\git\src\IBK\IBK_DRFN\ProjSrc\SrcChartEx\ChartOCX\GraphDraw\GraphTitleDrawer.cpp

; 497  : 	return CRect(orgPoint.x +x, y, orgPoint.x +x +titleSize.cx, y +titleSize.cy);

  0005b	8d 0c 32	 lea	 ecx, DWORD PTR [edx+esi]
; File C:\Program Files (x86)\Microsoft Visual Studio\2019\Community\VC\Tools\MSVC\14.29.30133\atlmfc\include\atltypes.h

; 541  : 	top = t;

  0005e	89 58 04	 mov	 DWORD PTR [eax+4], ebx
; File D:\git\src\IBK\IBK_DRFN\ProjSrc\SrcChartEx\ChartOCX\GraphDraw\GraphTitleDrawer.cpp

; 497  : 	return CRect(orgPoint.x +x, y, orgPoint.x +x +titleSize.cx, y +titleSize.cy);

  00061	03 4d 14	 add	 ecx, DWORD PTR _x$1$[ebp]
; File C:\Program Files (x86)\Microsoft Visual Studio\2019\Community\VC\Tools\MSVC\14.29.30133\atlmfc\include\atltypes.h

; 542  : 	right = r;

  00064	89 48 08	 mov	 DWORD PTR [eax+8], ecx
; File D:\git\src\IBK\IBK_DRFN\ProjSrc\SrcChartEx\ChartOCX\GraphDraw\GraphTitleDrawer.cpp

; 497  : 	return CRect(orgPoint.x +x, y, orgPoint.x +x +titleSize.cx, y +titleSize.cy);

  00067	8d 0c 1f	 lea	 ecx, DWORD PTR [edi+ebx]
  0006a	5f		 pop	 edi
  0006b	5e		 pop	 esi
; File C:\Program Files (x86)\Microsoft Visual Studio\2019\Community\VC\Tools\MSVC\14.29.30133\atlmfc\include\atltypes.h

; 543  : 	bottom = b;

  0006c	89 48 0c	 mov	 DWORD PTR [eax+12], ecx
; File D:\git\src\IBK\IBK_DRFN\ProjSrc\SrcChartEx\ChartOCX\GraphDraw\GraphTitleDrawer.cpp

; 497  : 	return CRect(orgPoint.x +x, y, orgPoint.x +x +titleSize.cx, y +titleSize.cy);

  0006f	5b		 pop	 ebx

; 498  : }

  00070	8b e5		 mov	 esp, ebp
  00072	5d		 pop	 ebp
  00073	c2 18 00	 ret	 24			; 00000018H
?GetGraphTitleRegion@CGraphTitleDrawer@@ABE?AVCRect@@PAVCDC@@ABVCPoint@@ABV?$CStringT@DV?$StrTraitMFC_DLL@DV?$ChTraitsCRT@D@ATL@@@@@ATL@@AAH3@Z ENDP ; CGraphTitleDrawer::GetGraphTitleRegion
_TEXT	ENDS
; Function compile flags: /Ogtp
; File D:\git\src\IBK\IBK_DRFN\ProjSrc\SrcChartEx\ChartOCX\GraphDraw\GraphTitleDrawer.cpp
;	COMDAT ?GetTitleTextColor_Five@CGraphTitleDrawer@@ABEKABVCSubGraphData@@@Z
_TEXT	SEGMENT
$T1 = -44						; size = 44
_subGraphData$ = 8					; size = 4
?GetTitleTextColor_Five@CGraphTitleDrawer@@ABEKABVCSubGraphData@@@Z PROC ; CGraphTitleDrawer::GetTitleTextColor_Five, COMDAT
; _this$ = ecx

; 482  : {

  00000	55		 push	 ebp
  00001	8b ec		 mov	 ebp, esp

; 483  : 	return subGraphData.GetColor().GetColor5();

  00003	8b 4d 08	 mov	 ecx, DWORD PTR _subGraphData$[ebp]
  00006	8d 45 d4	 lea	 eax, DWORD PTR $T1[ebp]
  00009	83 ec 2c	 sub	 esp, 44			; 0000002cH
  0000c	50		 push	 eax
  0000d	ff 15 00 00 00
	00		 call	 DWORD PTR __imp_?GetColor@CSubGraphDataBase@@QBE?AVCGraphColor@@XZ
  00013	8b c8		 mov	 ecx, eax
  00015	ff 15 00 00 00
	00		 call	 DWORD PTR __imp_?GetColor5@CGraphColor@@QBEKXZ

; 484  : }

  0001b	8b e5		 mov	 esp, ebp
  0001d	5d		 pop	 ebp
  0001e	c2 04 00	 ret	 4
?GetTitleTextColor_Five@CGraphTitleDrawer@@ABEKABVCSubGraphData@@@Z ENDP ; CGraphTitleDrawer::GetTitleTextColor_Five
_TEXT	ENDS
; Function compile flags: /Ogtp
; File D:\git\src\IBK\IBK_DRFN\ProjSrc\SrcChartEx\ChartOCX\GraphDraw\GraphTitleDrawer.cpp
;	COMDAT ?GetTitleTextColor_VolumeChart@CGraphTitleDrawer@@ABEKABVCDrawingGraphData@@ABVCSubGraphData@@@Z
_TEXT	SEGMENT
$T1 = -44						; size = 44
_drawingGraphData$ = 8					; size = 4
_subGraphData$ = 12					; size = 4
?GetTitleTextColor_VolumeChart@CGraphTitleDrawer@@ABEKABVCDrawingGraphData@@ABVCSubGraphData@@@Z PROC ; CGraphTitleDrawer::GetTitleTextColor_VolumeChart, COMDAT
; _this$ = ecx

; 458  : {

  00000	55		 push	 ebp
  00001	8b ec		 mov	 ebp, esp

; 459  : 	//    
; 460  : 	return subGraphData.GetColor().GetColor5();

  00003	8b 4d 0c	 mov	 ecx, DWORD PTR _subGraphData$[ebp]
  00006	8d 45 d4	 lea	 eax, DWORD PTR $T1[ebp]
  00009	83 ec 2c	 sub	 esp, 44			; 0000002cH
  0000c	50		 push	 eax
  0000d	ff 15 00 00 00
	00		 call	 DWORD PTR __imp_?GetColor@CSubGraphDataBase@@QBE?AVCGraphColor@@XZ
  00013	8b c8		 mov	 ecx, eax
  00015	ff 15 00 00 00
	00		 call	 DWORD PTR __imp_?GetColor5@CGraphColor@@QBEKXZ

; 461  : /*
; 462  : 	int nDrawCond = 0;
; 463  : 	if(!GetDrawConditionData(drawingGraphData.GetIndicatorInfo(), 0, nDrawCond))
; 464  : 		return subGraphData.GetColor().GetColor5();
; 465  : 
; 466  : 	//  -> 1 : , 2 : , 3 :  , 4 :   /
; 467  : 	if(nDrawCond == 1)
; 468  : 		return subGraphData.GetColor().GetColor5();
; 469  : 	else if(nDrawCond == 3)
; 470  : 	{
; 471  : 		CGraphColor graphColor(subGraphData.GetColor());
; 472  : 		GetGraphColor(drawingGraphData.GetIndicatorList(), _MTEXT( C2_PRICE_CHART), 0, graphColor);
; 473  : 		return graphColor.GetColor1();
; 474  : 	}
; 475  : 
; 476  : 	return subGraphData.GetColor().GetColor1();
; 477  : */
; 478  : }

  0001b	8b e5		 mov	 esp, ebp
  0001d	5d		 pop	 ebp
  0001e	c2 08 00	 ret	 8
?GetTitleTextColor_VolumeChart@CGraphTitleDrawer@@ABEKABVCDrawingGraphData@@ABVCSubGraphData@@@Z ENDP ; CGraphTitleDrawer::GetTitleTextColor_VolumeChart
_TEXT	ENDS
; Function compile flags: /Ogtp
; File D:\git\src\IBK\IBK_DRFN\ProjSrc\SrcChartEx\ChartOCX\GraphDraw\GraphTitleDrawer.cpp
; File C:\Program Files (x86)\Microsoft Visual Studio\2019\Community\VC\Tools\MSVC\14.29.30133\atlmfc\include\afxtempl.h
; File D:\git\src\IBK\IBK_DRFN\ProjSrc\SrcChartEx\ChartOCX\GraphDraw\GraphTitleDrawer.cpp
; File C:\Program Files (x86)\Microsoft Visual Studio\2019\Community\VC\Tools\MSVC\14.29.30133\atlmfc\include\afxtempl.h
; File D:\git\src\IBK\IBK_DRFN\ProjSrc\SrcChartEx\ChartOCX\GraphDraw\GraphTitleDrawer.cpp
;	COMDAT ?GetTitleTextColor_PriceChart@CGraphTitleDrawer@@ABEKABVCDrawingGraphData@@ABVCSubGraphData@@@Z
_TEXT	SEGMENT
$T1 = -84						; size = 44
$T2 = -84						; size = 44
$T3 = -84						; size = 44
$T4 = -84						; size = 44
$T5 = -40						; size = 8
$T6 = -32						; size = 8
_dStandardValue$ = -24					; size = 8
_dMin$ = -16						; size = 8
_dMax$ = -8						; size = 8
_eType$1$ = 8						; size = 4
_drawingGraphData$ = 8					; size = 4
_style$7 = 12						; size = 4
_subGraphData$ = 12					; size = 4
?GetTitleTextColor_PriceChart@CGraphTitleDrawer@@ABEKABVCDrawingGraphData@@ABVCSubGraphData@@@Z PROC ; CGraphTitleDrawer::GetTitleTextColor_PriceChart, COMDAT
; _this$ = ecx

; 418  : {

  00000	55		 push	 ebp
  00001	8b ec		 mov	 ebp, esp
  00003	83 ec 54	 sub	 esp, 84			; 00000054H
  00006	57		 push	 edi

; 419  : 	// (2008/10/29 - Seung-Won, Bae) Do not use Color3. Use just only Color1.
; 420  : 	if( CChartInfo::WORLD_ON == drawingGraphData.GetChartMode())

  00007	8b 7d 08	 mov	 edi, DWORD PTR _drawingGraphData$[ebp]
  0000a	83 bf f4 00 00
	00 03		 cmp	 DWORD PTR [edi+244], 3
  00011	75 1c		 jne	 SHORT $LN2@GetTitleTe

; 421  : 		return subGraphData.GetColor().GetColor1();

  00013	8b 4d 0c	 mov	 ecx, DWORD PTR _subGraphData$[ebp]
  00016	8d 45 ac	 lea	 eax, DWORD PTR $T4[ebp]
  00019	50		 push	 eax
  0001a	ff 15 00 00 00
	00		 call	 DWORD PTR __imp_?GetColor@CSubGraphDataBase@@QBE?AVCGraphColor@@XZ
  00020	8b c8		 mov	 ecx, eax
  00022	ff 15 00 00 00
	00		 call	 DWORD PTR __imp_?GetColor1@CGraphColor@@QBEKXZ
  00028	5f		 pop	 edi

; 454  : }

  00029	8b e5		 mov	 esp, ebp
  0002b	5d		 pop	 ebp
  0002c	c2 08 00	 ret	 8
$LN2@GetTitleTe:
  0002f	53		 push	 ebx
  00030	56		 push	 esi

; 422  : 
; 423  : 	CPacket* pPacket = GetPacket(drawingGraphData, -1);

  00031	6a ff		 push	 -1
  00033	57		 push	 edi
  00034	e8 00 00 00 00	 call	 ?GetPacket@CGraphTitleDrawer@@ABEPAVCPacket@@ABVCDrawingGraphData@@H@Z ; CGraphTitleDrawer::GetPacket

; 190  : 	if(pPacket == NULL || !pPacket->IsUseStandardValue())

  00039	8b 75 0c	 mov	 esi, DWORD PTR _subGraphData$[ebp]

; 422  : 
; 423  : 	CPacket* pPacket = GetPacket(drawingGraphData, -1);

  0003c	8b d8		 mov	 ebx, eax

; 190  : 	if(pPacket == NULL || !pPacket->IsUseStandardValue())

  0003e	85 db		 test	 ebx, ebx
  00040	74 37		 je	 SHORT $LN27@GetTitleTe
  00042	6a 00		 push	 0
  00044	8b cb		 mov	 ecx, ebx
  00046	ff 15 00 00 00
	00		 call	 DWORD PTR __imp_?IsUseStandardValue@CPacket@@QBE_NH@Z
  0004c	84 c0		 test	 al, al
  0004e	74 29		 je	 SHORT $LN27@GetTitleTe

; 191  : 		return false;
; 192  : 
; 193  : 	CGraphBaseData::GRAPHTYPE eType = subGraphData.GetType();

  00050	8b ce		 mov	 ecx, esi
  00052	ff 15 00 00 00
	00		 call	 DWORD PTR __imp_?GetType@CSubGraphDataBase@@QBE?AW4GRAPHTYPE@CGraphBaseData@@XZ
  00058	89 45 08	 mov	 DWORD PTR _eType$1$[ebp], eax

; 194  : 	CGraphStyle style = subGraphData.GetStyle();

  0005b	8b ce		 mov	 ecx, esi
  0005d	8d 45 0c	 lea	 eax, DWORD PTR _style$7[ebp]
  00060	50		 push	 eax
  00061	ff 15 00 00 00
	00		 call	 DWORD PTR __imp_?GetStyle@CSubGraphDataBase@@QBE?AVCGraphStyle@@XZ

; 195  : 	if(eType == CGraphBaseData::Bong_Type)

  00067	8b 45 08	 mov	 eax, DWORD PTR _eType$1$[ebp]
  0006a	85 c0		 test	 eax, eax
  0006c	75 3b		 jne	 SHORT $LN14@GetTitleTe

; 196  : 		return (style.GetGraphBongStyle() == CGraphBaseData::LineBong);

  0006e	83 7d 0c 02	 cmp	 DWORD PTR _style$7[ebp], 2
  00072	0f 94 c0	 sete	 al

; 424  : // 	if(!IsTitleTextColor_StandardValue(pPacket, subGraphData))
; 425  : // 		return subGraphData.GetColor().GetColor1();
; 426  : 	if(!IsTitleTextColor_StandardValue(pPacket, subGraphData))

  00075	84 c0		 test	 al, al
  00077	75 42		 jne	 SHORT $LN3@GetTitleTe
$LN27@GetTitleTe:

; 427  : 	{
; 428  : 		// (2010/6/21 - Seung-Won, Bae) for Line only Price Chart.
; 429  : 		CSubGraphPacketList* pSubGraphPacketList = drawingGraphData.GetSubGraphPacketList();

  00079	8b cf		 mov	 ecx, edi
  0007b	e8 00 00 00 00	 call	 ?GetSubGraphPacketList@CDrawingGraphData@@QBEPAVCSubGraphPacketList@@XZ ; CDrawingGraphData::GetSubGraphPacketList

; 430  : 		if( pSubGraphPacketList)

  00080	85 c0		 test	 eax, eax
  00082	0f 84 e2 00 00
	00		 je	 $LN7@GetTitleTe

; 431  : 		{
; 432  : 			const CList<CPacket*, CPacket*> &packetList = pSubGraphPacketList->GetSubGraphPacketList();

  00088	8b c8		 mov	 ecx, eax
  0008a	e8 00 00 00 00	 call	 ?GetSubGraphPacketList@CSubGraphPacketList@@QBEABV?$CList@PAVCPacket@@PAV1@@@XZ ; CSubGraphPacketList::GetSubGraphPacketList

; 433  : 			if( packetList.GetCount() == 1)

  0008f	83 78 0c 01	 cmp	 DWORD PTR [eax+12], 1
  00093	0f 85 d1 00 00
	00		 jne	 $LN7@GetTitleTe
; File C:\Program Files (x86)\Microsoft Visual Studio\2019\Community\VC\Tools\MSVC\14.29.30133\atlmfc\include\afxtempl.h

; 793  : 	{ ENSURE(m_pNodeHead != NULL);

  00099	8b 40 04	 mov	 eax, DWORD PTR [eax+4]
  0009c	85 c0		 test	 eax, eax
  0009e	0f 84 e3 00 00
	00		 je	 $LN33@GetTitleTe
  000a4	e9 91 00 00 00	 jmp	 $LN21@GetTitleTe
$LN14@GetTitleTe:
; File D:\git\src\IBK\IBK_DRFN\ProjSrc\SrcChartEx\ChartOCX\GraphDraw\GraphTitleDrawer.cpp

; 197  : 	else if(eType == CGraphBaseData::Line_Type)

  000a9	83 f8 01	 cmp	 eax, 1
  000ac	75 cb		 jne	 SHORT $LN27@GetTitleTe

; 198  : 		return (style.GetGraphLineStyle() == CGraphBaseData::FillLine || style.GetGraphLineStyle() == CGraphBaseData::ComparisonLine);

  000ae	8b 45 0c	 mov	 eax, DWORD PTR _style$7[ebp]
  000b1	83 f8 01	 cmp	 eax, 1
  000b4	74 05		 je	 SHORT $LN3@GetTitleTe
  000b6	83 f8 06	 cmp	 eax, 6
  000b9	75 be		 jne	 SHORT $LN27@GetTitleTe
$LN3@GetTitleTe:

; 441  : 	}
; 442  : 
; 443  : 	// ()   -> packet("") Min/Max   
; 444  : 	// -> Max <=   :   ( : ) 
; 445  : 	double dStandardValue = pPacket->GetStandardValue();

  000bb	6a 00		 push	 0
  000bd	8b cb		 mov	 ecx, ebx
  000bf	ff 15 00 00 00
	00		 call	 DWORD PTR __imp_?GetStandardValue@CPacket@@QAENH@Z

; 446  : 	double dMin = 0.0, dMax = 0.0;
; 447  : 	if(pPacket->GetMinMax(drawingGraphData.GetDisplayAttributes().GetDataStartInBlock(), drawingGraphData.GetDisplayAttributes().GetDataEndInBlock(), dMin, dMax) >= 0)

  000c5	6a 00		 push	 0
  000c7	8d 45 f8	 lea	 eax, DWORD PTR _dMax$[ebp]
  000ca	0f 57 c0	 xorps	 xmm0, xmm0
  000cd	50		 push	 eax
  000ce	8d 45 f0	 lea	 eax, DWORD PTR _dMin$[ebp]
  000d1	f2 0f 11 45 f0	 movsd	 QWORD PTR _dMin$[ebp], xmm0
  000d6	50		 push	 eax
  000d7	8d 45 e0	 lea	 eax, DWORD PTR $T6[ebp]
  000da	f2 0f 11 45 f8	 movsd	 QWORD PTR _dMax$[ebp], xmm0
  000df	50		 push	 eax
  000e0	8b cf		 mov	 ecx, edi
  000e2	dd 5d e8	 fstp	 QWORD PTR _dStandardValue$[ebp]
  000e5	e8 00 00 00 00	 call	 ?GetDisplayAttributes@CDrawingGraphData@@QBE?AVCDisplayAttributes@@XZ ; CDrawingGraphData::GetDisplayAttributes
  000ea	8b c8		 mov	 ecx, eax
  000ec	e8 00 00 00 00	 call	 ?GetDataEndInBlock@CDisplayAttributes@@QBEHXZ ; CDisplayAttributes::GetDataEndInBlock
  000f1	50		 push	 eax
  000f2	8d 45 d8	 lea	 eax, DWORD PTR $T5[ebp]
  000f5	8b cf		 mov	 ecx, edi
  000f7	50		 push	 eax
  000f8	e8 00 00 00 00	 call	 ?GetDisplayAttributes@CDrawingGraphData@@QBE?AVCDisplayAttributes@@XZ ; CDrawingGraphData::GetDisplayAttributes
  000fd	8b c8		 mov	 ecx, eax
  000ff	e8 00 00 00 00	 call	 ?GetDataStartInBlock@CDisplayAttributes@@QBEHXZ ; CDisplayAttributes::GetDataStartInBlock
  00104	50		 push	 eax
  00105	8b cb		 mov	 ecx, ebx
  00107	ff 15 00 00 00
	00		 call	 DWORD PTR __imp_?GetMinMax@CPacket@@QAEHHHAAN0H@Z
  0010d	85 c0		 test	 eax, eax
  0010f	78 59		 js	 SHORT $LN7@GetTitleTe

; 448  : {
; 449  : 		if(dMax <= dStandardValue)

  00111	f2 0f 10 45 e8	 movsd	 xmm0, QWORD PTR _dStandardValue$[ebp]
  00116	66 0f 2f 45 f8	 comisd	 xmm0, QWORD PTR _dMax$[ebp]
  0011b	72 4d		 jb	 SHORT $LN7@GetTitleTe

; 450  : 			return subGraphData.GetColor().GetColor3();

  0011d	8d 45 ac	 lea	 eax, DWORD PTR $T1[ebp]
  00120	8b ce		 mov	 ecx, esi
  00122	50		 push	 eax
  00123	ff 15 00 00 00
	00		 call	 DWORD PTR __imp_?GetColor@CSubGraphDataBase@@QBE?AVCGraphColor@@XZ
  00129	8b c8		 mov	 ecx, eax
  0012b	ff 15 00 00 00
	00		 call	 DWORD PTR __imp_?GetColor3@CGraphColor@@QBEKXZ
  00131	5e		 pop	 esi
  00132	5b		 pop	 ebx
  00133	5f		 pop	 edi

; 454  : }

  00134	8b e5		 mov	 esp, ebp
  00136	5d		 pop	 ebp
  00137	c2 08 00	 ret	 8
$LN21@GetTitleTe:

; 434  : 			{
; 435  : 				CPacket *pPacket = packetList.GetHead();

  0013a	8b 48 08	 mov	 ecx, DWORD PTR [eax+8]

; 436  : 				if( pPacket) if( !pPacket->IsUseStandardValue()) return subGraphData.GetColor().GetColor5();

  0013d	85 c9		 test	 ecx, ecx
  0013f	74 29		 je	 SHORT $LN7@GetTitleTe
  00141	6a 00		 push	 0
  00143	ff 15 00 00 00
	00		 call	 DWORD PTR __imp_?IsUseStandardValue@CPacket@@QBE_NH@Z
  00149	84 c0		 test	 al, al
  0014b	75 1d		 jne	 SHORT $LN7@GetTitleTe
  0014d	8d 45 ac	 lea	 eax, DWORD PTR $T3[ebp]
  00150	8b ce		 mov	 ecx, esi
  00152	50		 push	 eax
  00153	ff 15 00 00 00
	00		 call	 DWORD PTR __imp_?GetColor@CSubGraphDataBase@@QBE?AVCGraphColor@@XZ
  00159	8b c8		 mov	 ecx, eax
  0015b	ff 15 00 00 00
	00		 call	 DWORD PTR __imp_?GetColor5@CGraphColor@@QBEKXZ
  00161	5e		 pop	 esi
  00162	5b		 pop	 ebx
  00163	5f		 pop	 edi

; 454  : }

  00164	8b e5		 mov	 esp, ebp
  00166	5d		 pop	 ebp
  00167	c2 08 00	 ret	 8
$LN7@GetTitleTe:

; 437  : 	}
; 438  : }
; 439  : 
; 440  : 		return subGraphData.GetColor().GetColor1();

  0016a	8d 45 ac	 lea	 eax, DWORD PTR $T2[ebp]
  0016d	8b ce		 mov	 ecx, esi
  0016f	50		 push	 eax
  00170	ff 15 00 00 00
	00		 call	 DWORD PTR __imp_?GetColor@CSubGraphDataBase@@QBE?AVCGraphColor@@XZ
  00176	8b c8		 mov	 ecx, eax
  00178	ff 15 00 00 00
	00		 call	 DWORD PTR __imp_?GetColor1@CGraphColor@@QBEKXZ
  0017e	5e		 pop	 esi
  0017f	5b		 pop	 ebx
  00180	5f		 pop	 edi

; 454  : }

  00181	8b e5		 mov	 esp, ebp
  00183	5d		 pop	 ebp
  00184	c2 08 00	 ret	 8
$LN33@GetTitleTe:
; File C:\Program Files (x86)\Microsoft Visual Studio\2019\Community\VC\Tools\MSVC\14.29.30133\atlmfc\include\afxtempl.h

; 793  : 	{ ENSURE(m_pNodeHead != NULL);

  00187	e8 00 00 00 00	 call	 ?AfxThrowInvalidArgException@@YGXXZ ; AfxThrowInvalidArgException
$LN30@GetTitleTe:
  0018c	cc		 int	 3
?GetTitleTextColor_PriceChart@CGraphTitleDrawer@@ABEKABVCDrawingGraphData@@ABVCSubGraphData@@@Z ENDP ; CGraphTitleDrawer::GetTitleTextColor_PriceChart
_TEXT	ENDS
; Function compile flags: /Ogtp
; File D:\git\src\IBK\IBK_DRFN\ProjSrc\SrcChartEx\ChartOCX\GraphDraw\GraphTitleDrawer.cpp
;	COMDAT ?GetTitleTextColor_General@CGraphTitleDrawer@@ABEKABVCGraphColor@@H@Z
_TEXT	SEGMENT
_graphColor$ = 8					; size = 4
_nIndex$ = 12						; size = 4
?GetTitleTextColor_General@CGraphTitleDrawer@@ABEKABVCGraphColor@@H@Z PROC ; CGraphTitleDrawer::GetTitleTextColor_General, COMDAT
; _this$ = ecx

; 398  : {

  00000	55		 push	 ebp
  00001	8b ec		 mov	 ebp, esp

; 399  : 	if(nIndex <= 0)

  00003	8b 45 0c	 mov	 eax, DWORD PTR _nIndex$[ebp]
  00006	85 c0		 test	 eax, eax
  00008	7f 0d		 jg	 SHORT $LN4@GetTitleTe

; 400  : 		return graphColor.GetColor1();

  0000a	8b 4d 08	 mov	 ecx, DWORD PTR _graphColor$[ebp]
$LN6@GetTitleTe:

; 411  : 	}
; 412  : 
; 413  : 	return graphColor.GetColor1();
; 414  : }

  0000d	ff 15 00 00 00
	00		 call	 DWORD PTR __imp_?GetColor1@CGraphColor@@QBEKXZ
  00013	5d		 pop	 ebp
  00014	c2 08 00	 ret	 8
$LN4@GetTitleTe:

; 401  : 
; 402  : 	int nNumber = (nIndex + 1) % 3;

  00017	40		 inc	 eax
  00018	b9 03 00 00 00	 mov	 ecx, 3
  0001d	99		 cdq
  0001e	f7 f9		 idiv	 ecx

; 403  : 	switch(nNumber)

  00020	8b 4d 08	 mov	 ecx, DWORD PTR _graphColor$[ebp]
  00023	83 ea 00	 sub	 edx, 0
  00026	74 14		 je	 SHORT $LN5@GetTitleTe
  00028	83 ea 01	 sub	 edx, 1
  0002b	74 e0		 je	 SHORT $LN6@GetTitleTe
  0002d	83 ea 01	 sub	 edx, 1
  00030	75 db		 jne	 SHORT $LN6@GetTitleTe

; 407  : 	case 1: // nIndex = 0, 3, 6, ...
; 408  : 		return graphColor.GetColor1();
; 409  : 	case 2: // nIndex = 1, 4, 7, ...
; 410  : 		return graphColor.GetColor3();

  00032	ff 15 00 00 00
	00		 call	 DWORD PTR __imp_?GetColor3@CGraphColor@@QBEKXZ

; 411  : 	}
; 412  : 
; 413  : 	return graphColor.GetColor1();
; 414  : }

  00038	5d		 pop	 ebp
  00039	c2 08 00	 ret	 8
$LN5@GetTitleTe:

; 404  : 	{
; 405  : 	case 0: // nIndex = 2, 5, 8, ...
; 406  : 		return graphColor.GetColor5();

  0003c	ff 15 00 00 00
	00		 call	 DWORD PTR __imp_?GetColor5@CGraphColor@@QBEKXZ

; 411  : 	}
; 412  : 
; 413  : 	return graphColor.GetColor1();
; 414  : }

  00042	5d		 pop	 ebp
  00043	c2 08 00	 ret	 8
?GetTitleTextColor_General@CGraphTitleDrawer@@ABEKABVCGraphColor@@H@Z ENDP ; CGraphTitleDrawer::GetTitleTextColor_General
_TEXT	ENDS
; Function compile flags: /Ogtp
; File D:\git\src\IBK\IBK_DRFN\ProjSrc\SrcChartEx\ChartOCX\GraphDraw\GraphTitleDrawer.cpp
; File C:\Program Files (x86)\Microsoft Visual Studio\2019\Community\VC\Tools\MSVC\14.29.30133\atlmfc\include\cstringt.h
; File D:\git\src\IBK\IBK_DRFN\ProjSrc\SrcChartEx\ChartOCX\GraphDraw\GraphTitleDrawer.cpp
; File C:\Program Files (x86)\Microsoft Visual Studio\2019\Community\VC\Tools\MSVC\14.29.30133\atlmfc\include\cstringt.h
; File D:\git\src\IBK\IBK_DRFN\ProjSrc\SrcChartEx\ChartOCX\GraphDraw\GraphTitleDrawer.cpp
; File C:\Program Files (x86)\Microsoft Visual Studio\2019\Community\VC\Tools\MSVC\14.29.30133\atlmfc\include\cstringt.h
; File D:\git\src\IBK\IBK_DRFN\ProjSrc\SrcChartEx\ChartOCX\GraphDraw\GraphTitleDrawer.cpp
; File C:\Program Files (x86)\Microsoft Visual Studio\2019\Community\VC\Tools\MSVC\14.29.30133\atlmfc\include\cstringt.h
; File D:\git\src\IBK\IBK_DRFN\ProjSrc\SrcChartEx\ChartOCX\GraphDraw\GraphTitleDrawer.cpp
; File C:\Program Files (x86)\Microsoft Visual Studio\2019\Community\VC\Tools\MSVC\14.29.30133\atlmfc\include\cstringt.h
; File D:\git\src\IBK\IBK_DRFN\ProjSrc\SrcChartEx\ChartOCX\GraphDraw\GraphTitleDrawer.cpp
; File C:\Program Files (x86)\Microsoft Visual Studio\2019\Community\VC\Tools\MSVC\14.29.30133\atlmfc\include\cstringt.h
; File D:\git\src\IBK\IBK_DRFN\ProjSrc\SrcChartEx\ChartOCX\GraphDraw\GraphTitleDrawer.cpp
;	COMDAT ?GetTitleTextColor@CGraphTitleDrawer@@ABEKABVCDrawingGraphData@@ABVCSubGraphData@@H@Z
_TEXT	SEGMENT
$T2 = -112						; size = 44
$T3 = -68						; size = 44
$T4 = -68						; size = 44
$T5 = -24						; size = 4
$T6 = -20						; size = 4
$T7 = -16						; size = 4
$T8 = -16						; size = 4
__$EHRec$ = -12						; size = 12
_drawingGraphData$ = 8					; size = 4
$T9 = 11						; size = 1
_style$10 = 12						; size = 4
_subGraphData$ = 12					; size = 4
_nIndex$ = 16						; size = 4
?GetTitleTextColor@CGraphTitleDrawer@@ABEKABVCDrawingGraphData@@ABVCSubGraphData@@H@Z PROC ; CGraphTitleDrawer::GetTitleTextColor, COMDAT
; _this$ = ecx

; 379  : {

  00000	55		 push	 ebp
  00001	8b ec		 mov	 ebp, esp
  00003	6a ff		 push	 -1
  00005	68 00 00 00 00	 push	 __ehhandler$?GetTitleTextColor@CGraphTitleDrawer@@ABEKABVCDrawingGraphData@@ABVCSubGraphData@@H@Z
  0000a	64 a1 00 00 00
	00		 mov	 eax, DWORD PTR fs:0
  00010	50		 push	 eax
  00011	83 ec 64	 sub	 esp, 100		; 00000064H
  00014	53		 push	 ebx
  00015	56		 push	 esi
  00016	57		 push	 edi
  00017	a1 00 00 00 00	 mov	 eax, DWORD PTR ___security_cookie
  0001c	33 c5		 xor	 eax, ebp
  0001e	50		 push	 eax
  0001f	8d 45 f4	 lea	 eax, DWORD PTR __$EHRec$[ebp]
  00022	64 a3 00 00 00
	00		 mov	 DWORD PTR fs:0, eax
  00028	8b d9		 mov	 ebx, ecx

; 385  : 	if(drawingGraphData.GetIndicatorName() == _MTEXT( C2_PRICE_CHART))

  0002a	8b 7d 08	 mov	 edi, DWORD PTR _drawingGraphData$[ebp]
  0002d	8d 45 f0	 lea	 eax, DWORD PTR $T8[ebp]
  00030	50		 push	 eax
  00031	8b cf		 mov	 ecx, edi
  00033	c7 45 f0 00 00
	00 00		 mov	 DWORD PTR $T7[ebp], 0
  0003a	e8 00 00 00 00	 call	 ?GetIndicatorName@CDrawingGraphData@@QBE?AV?$CStringT@DV?$StrTraitMFC_DLL@DV?$ChTraitsCRT@D@ATL@@@@@ATL@@XZ ; CDrawingGraphData::GetIndicatorName
  0003f	8b 0d 54 00 00
	00		 mov	 ecx, DWORD PTR ?g_iMetaTable@@3VIMetaTable@@A+84
  00045	c7 45 fc 00 00
	00 00		 mov	 DWORD PTR __$EHRec$[ebp+8], 0
; File C:\Program Files (x86)\Microsoft Visual Studio\2019\Community\VC\Tools\MSVC\14.29.30133\atlmfc\include\cstringt.h

; 2486 : 		return(str1.Compare(psz2) == 0);

  0004c	ff b1 28 03 00
	00		 push	 DWORD PTR [ecx+808]
  00052	8b c8		 mov	 ecx, eax
  00054	ff 15 00 00 00
	00		 call	 DWORD PTR __imp_?Compare@?$CStringT@DV?$StrTraitMFC_DLL@DV?$ChTraitsCRT@D@ATL@@@@@ATL@@QBEHPBD@Z
; File D:\git\src\IBK\IBK_DRFN\ProjSrc\SrcChartEx\ChartOCX\GraphDraw\GraphTitleDrawer.cpp

; 385  : 	if(drawingGraphData.GetIndicatorName() == _MTEXT( C2_PRICE_CHART))

  0005a	8d 4d f0	 lea	 ecx, DWORD PTR $T8[ebp]
  0005d	c7 45 fc ff ff
	ff ff		 mov	 DWORD PTR __$EHRec$[ebp+8], -1
; File C:\Program Files (x86)\Microsoft Visual Studio\2019\Community\VC\Tools\MSVC\14.29.30133\atlmfc\include\cstringt.h

; 2486 : 		return(str1.Compare(psz2) == 0);

  00064	8b f0		 mov	 esi, eax
; File D:\git\src\IBK\IBK_DRFN\ProjSrc\SrcChartEx\ChartOCX\GraphDraw\GraphTitleDrawer.cpp

; 385  : 	if(drawingGraphData.GetIndicatorName() == _MTEXT( C2_PRICE_CHART))

  00066	ff 15 00 00 00
	00		 call	 DWORD PTR __imp_??1?$CStringT@DV?$StrTraitMFC_DLL@DV?$ChTraitsCRT@D@ATL@@@@@ATL@@QAE@XZ
  0006c	85 f6		 test	 esi, esi
  0006e	75 1f		 jne	 SHORT $LN2@GetTitleTe

; 386  : 		return GetTitleTextColor_PriceChart(drawingGraphData, subGraphData);

  00070	ff 75 0c	 push	 DWORD PTR _subGraphData$[ebp]
  00073	8b cb		 mov	 ecx, ebx
  00075	57		 push	 edi
  00076	e8 00 00 00 00	 call	 ?GetTitleTextColor_PriceChart@CGraphTitleDrawer@@ABEKABVCDrawingGraphData@@ABVCSubGraphData@@@Z ; CGraphTitleDrawer::GetTitleTextColor_PriceChart

; 395  : }

  0007b	8b 4d f4	 mov	 ecx, DWORD PTR __$EHRec$[ebp]
  0007e	64 89 0d 00 00
	00 00		 mov	 DWORD PTR fs:0, ecx
  00085	59		 pop	 ecx
  00086	5f		 pop	 edi
  00087	5e		 pop	 esi
  00088	5b		 pop	 ebx
  00089	8b e5		 mov	 esp, ebp
  0008b	5d		 pop	 ebp
  0008c	c2 0c 00	 ret	 12			; 0000000cH
$LN2@GetTitleTe:

; 388  : 		|| drawingGraphData.GetIndicatorName() == _MTEXT( C2_VOLUME_AMOUNT))

  0008f	8d 45 e8	 lea	 eax, DWORD PTR $T5[ebp]
  00092	8b cf		 mov	 ecx, edi
  00094	50		 push	 eax
  00095	e8 00 00 00 00	 call	 ?GetIndicatorName@CDrawingGraphData@@QBE?AV?$CStringT@DV?$StrTraitMFC_DLL@DV?$ChTraitsCRT@D@ATL@@@@@ATL@@XZ ; CDrawingGraphData::GetIndicatorName
  0009a	8b 15 54 00 00
	00		 mov	 edx, DWORD PTR ?g_iMetaTable@@3VIMetaTable@@A+84
  000a0	bb 01 00 00 00	 mov	 ebx, 1
; File C:\Program Files (x86)\Microsoft Visual Studio\2019\Community\VC\Tools\MSVC\14.29.30133\atlmfc\include\cstringt.h

; 2486 : 		return(str1.Compare(psz2) == 0);

  000a5	8b c8		 mov	 ecx, eax
; File D:\git\src\IBK\IBK_DRFN\ProjSrc\SrcChartEx\ChartOCX\GraphDraw\GraphTitleDrawer.cpp

; 388  : 		|| drawingGraphData.GetIndicatorName() == _MTEXT( C2_VOLUME_AMOUNT))

  000a7	c7 45 fc 01 00
	00 00		 mov	 DWORD PTR __$EHRec$[ebp+8], 1
  000ae	89 5d f0	 mov	 DWORD PTR $T7[ebp], ebx
; File C:\Program Files (x86)\Microsoft Visual Studio\2019\Community\VC\Tools\MSVC\14.29.30133\atlmfc\include\cstringt.h

; 2486 : 		return(str1.Compare(psz2) == 0);

  000b1	ff b2 2c 03 00
	00		 push	 DWORD PTR [edx+812]
  000b7	ff 15 00 00 00
	00		 call	 DWORD PTR __imp_?Compare@?$CStringT@DV?$StrTraitMFC_DLL@DV?$ChTraitsCRT@D@ATL@@@@@ATL@@QBEHPBD@Z
  000bd	85 c0		 test	 eax, eax
; File D:\git\src\IBK\IBK_DRFN\ProjSrc\SrcChartEx\ChartOCX\GraphDraw\GraphTitleDrawer.cpp

; 388  : 		|| drawingGraphData.GetIndicatorName() == _MTEXT( C2_VOLUME_AMOUNT))

  000bf	74 36		 je	 SHORT $LN7@GetTitleTe
  000c1	8d 45 ec	 lea	 eax, DWORD PTR $T6[ebp]
  000c4	8b cf		 mov	 ecx, edi
  000c6	50		 push	 eax
  000c7	e8 00 00 00 00	 call	 ?GetIndicatorName@CDrawingGraphData@@QBE?AV?$CStringT@DV?$StrTraitMFC_DLL@DV?$ChTraitsCRT@D@ATL@@@@@ATL@@XZ ; CDrawingGraphData::GetIndicatorName
  000cc	8b 0d 54 00 00
	00		 mov	 ecx, DWORD PTR ?g_iMetaTable@@3VIMetaTable@@A+84
  000d2	bb 03 00 00 00	 mov	 ebx, 3
  000d7	c7 45 fc 02 00
	00 00		 mov	 DWORD PTR __$EHRec$[ebp+8], 2
  000de	89 5d f0	 mov	 DWORD PTR $T7[ebp], ebx
; File C:\Program Files (x86)\Microsoft Visual Studio\2019\Community\VC\Tools\MSVC\14.29.30133\atlmfc\include\cstringt.h

; 2486 : 		return(str1.Compare(psz2) == 0);

  000e1	ff b1 a0 04 00
	00		 push	 DWORD PTR [ecx+1184]
  000e7	8b c8		 mov	 ecx, eax
  000e9	ff 15 00 00 00
	00		 call	 DWORD PTR __imp_?Compare@?$CStringT@DV?$StrTraitMFC_DLL@DV?$ChTraitsCRT@D@ATL@@@@@ATL@@QBEHPBD@Z
; File D:\git\src\IBK\IBK_DRFN\ProjSrc\SrcChartEx\ChartOCX\GraphDraw\GraphTitleDrawer.cpp

; 388  : 		|| drawingGraphData.GetIndicatorName() == _MTEXT( C2_VOLUME_AMOUNT))

  000ef	c6 45 0b 00	 mov	 BYTE PTR $T9[ebp], 0
; File C:\Program Files (x86)\Microsoft Visual Studio\2019\Community\VC\Tools\MSVC\14.29.30133\atlmfc\include\cstringt.h

; 2486 : 		return(str1.Compare(psz2) == 0);

  000f3	85 c0		 test	 eax, eax
; File D:\git\src\IBK\IBK_DRFN\ProjSrc\SrcChartEx\ChartOCX\GraphDraw\GraphTitleDrawer.cpp

; 388  : 		|| drawingGraphData.GetIndicatorName() == _MTEXT( C2_VOLUME_AMOUNT))

  000f5	75 04		 jne	 SHORT $LN8@GetTitleTe
$LN7@GetTitleTe:
  000f7	c6 45 0b 01	 mov	 BYTE PTR $T9[ebp], 1
$LN8@GetTitleTe:
  000fb	f6 c3 02	 test	 bl, 2
  000fe	74 0c		 je	 SHORT $LN14@GetTitleTe
  00100	8d 4d ec	 lea	 ecx, DWORD PTR $T6[ebp]
  00103	83 e3 fd	 and	 ebx, -3			; fffffffdH
  00106	ff 15 00 00 00
	00		 call	 DWORD PTR __imp_??1?$CStringT@DV?$StrTraitMFC_DLL@DV?$ChTraitsCRT@D@ATL@@@@@ATL@@QAE@XZ
$LN14@GetTitleTe:
  0010c	c7 45 fc ff ff
	ff ff		 mov	 DWORD PTR __$EHRec$[ebp+8], -1
  00113	f6 c3 01	 test	 bl, 1
  00116	74 09		 je	 SHORT $LN15@GetTitleTe
  00118	8d 4d e8	 lea	 ecx, DWORD PTR $T5[ebp]
  0011b	ff 15 00 00 00
	00		 call	 DWORD PTR __imp_??1?$CStringT@DV?$StrTraitMFC_DLL@DV?$ChTraitsCRT@D@ATL@@@@@ATL@@QAE@XZ
$LN15@GetTitleTe:
  00121	80 7d 0b 00	 cmp	 BYTE PTR $T9[ebp], 0
  00125	74 29		 je	 SHORT $LN4@GetTitleTe

; 460  : 	return subGraphData.GetColor().GetColor5();

  00127	8b 4d 0c	 mov	 ecx, DWORD PTR _subGraphData$[ebp]
  0012a	8d 45 bc	 lea	 eax, DWORD PTR $T4[ebp]
  0012d	50		 push	 eax
$LN41@GetTitleTe:

; 395  : }

  0012e	ff 15 00 00 00
	00		 call	 DWORD PTR __imp_?GetColor@CSubGraphDataBase@@QBE?AVCGraphColor@@XZ
  00134	8b c8		 mov	 ecx, eax
$LN35@GetTitleTe:
  00136	ff 15 00 00 00
	00		 call	 DWORD PTR __imp_?GetColor5@CGraphColor@@QBEKXZ
  0013c	8b 4d f4	 mov	 ecx, DWORD PTR __$EHRec$[ebp]
  0013f	64 89 0d 00 00
	00 00		 mov	 DWORD PTR fs:0, ecx
  00146	59		 pop	 ecx
  00147	5f		 pop	 edi
  00148	5e		 pop	 esi
  00149	5b		 pop	 ebx
  0014a	8b e5		 mov	 esp, ebp
  0014c	5d		 pop	 ebp
  0014d	c2 0c 00	 ret	 12			; 0000000cH
$LN4@GetTitleTe:

; 207  : 	if(subGraphData.GetType() != CGraphBaseData::Line_Type)

  00150	8b 75 0c	 mov	 esi, DWORD PTR _subGraphData$[ebp]
  00153	8b ce		 mov	 ecx, esi
  00155	ff 15 00 00 00
	00		 call	 DWORD PTR __imp_?GetType@CSubGraphDataBase@@QBE?AW4GRAPHTYPE@CGraphBaseData@@XZ
  0015b	83 f8 01	 cmp	 eax, 1
  0015e	75 21		 jne	 SHORT $LN5@GetTitleTe

; 208  : 		return false;
; 209  : 
; 210  : 	CGraphStyle style = subGraphData.GetStyle();

  00160	8d 45 0c	 lea	 eax, DWORD PTR _style$10[ebp]
  00163	8b ce		 mov	 ecx, esi
  00165	50		 push	 eax
  00166	ff 15 00 00 00
	00		 call	 DWORD PTR __imp_?GetStyle@CSubGraphDataBase@@QBE?AVCGraphStyle@@XZ

; 211  : 	return (style.GetGraphLineStyle() == CGraphBaseData::FillLine || style.GetGraphLineStyle() == CGraphBaseData::ComparisonLine);

  0016c	8b 45 0c	 mov	 eax, DWORD PTR _style$10[ebp]
  0016f	83 f8 01	 cmp	 eax, 1
  00172	74 05		 je	 SHORT $LN27@GetTitleTe
  00174	83 f8 06	 cmp	 eax, 6
  00177	75 08		 jne	 SHORT $LN5@GetTitleTe
$LN27@GetTitleTe:

; 483  : 	return subGraphData.GetColor().GetColor5();

  00179	8d 45 bc	 lea	 eax, DWORD PTR $T3[ebp]
  0017c	8b ce		 mov	 ecx, esi
  0017e	50		 push	 eax

; 389  : 		return GetTitleTextColor_VolumeChart(drawingGraphData, subGraphData);
; 390  : 
; 391  : 	if(IsTitleTextColor_Five(subGraphData))
; 392  : 		return GetTitleTextColor_Five(subGraphData);

  0017f	eb ad		 jmp	 SHORT $LN41@GetTitleTe
$LN5@GetTitleTe:

; 393  : 
; 394  : 	return GetTitleTextColor_General(subGraphData.GetColor(), nIndex);

  00181	8d 45 90	 lea	 eax, DWORD PTR $T2[ebp]
  00184	8b ce		 mov	 ecx, esi
  00186	50		 push	 eax
  00187	ff 15 00 00 00
	00		 call	 DWORD PTR __imp_?GetColor@CSubGraphDataBase@@QBE?AVCGraphColor@@XZ
  0018d	8b c8		 mov	 ecx, eax

; 399  : 	if(nIndex <= 0)

  0018f	8b 45 10	 mov	 eax, DWORD PTR _nIndex$[ebp]
  00192	85 c0		 test	 eax, eax
  00194	7f 1a		 jg	 SHORT $LN34@GetTitleTe
$LN36@GetTitleTe:

; 395  : }

  00196	ff 15 00 00 00
	00		 call	 DWORD PTR __imp_?GetColor1@CGraphColor@@QBEKXZ
  0019c	8b 4d f4	 mov	 ecx, DWORD PTR __$EHRec$[ebp]
  0019f	64 89 0d 00 00
	00 00		 mov	 DWORD PTR fs:0, ecx
  001a6	59		 pop	 ecx
  001a7	5f		 pop	 edi
  001a8	5e		 pop	 esi
  001a9	5b		 pop	 ebx
  001aa	8b e5		 mov	 esp, ebp
  001ac	5d		 pop	 ebp
  001ad	c2 0c 00	 ret	 12			; 0000000cH
$LN34@GetTitleTe:

; 402  : 	int nNumber = (nIndex + 1) % 3;

  001b0	40		 inc	 eax
  001b1	be 03 00 00 00	 mov	 esi, 3
  001b6	99		 cdq
  001b7	f7 fe		 idiv	 esi

; 403  : 	switch(nNumber)

  001b9	83 ea 00	 sub	 edx, 0
  001bc	0f 84 74 ff ff
	ff		 je	 $LN35@GetTitleTe
  001c2	83 ea 01	 sub	 edx, 1
  001c5	74 cf		 je	 SHORT $LN36@GetTitleTe
  001c7	83 ea 01	 sub	 edx, 1
  001ca	75 ca		 jne	 SHORT $LN36@GetTitleTe

; 404  : 	{
; 405  : 	case 0: // nIndex = 2, 5, 8, ...
; 406  : 		return graphColor.GetColor5();
; 407  : 	case 1: // nIndex = 0, 3, 6, ...
; 408  : 		return graphColor.GetColor1();
; 409  : 	case 2: // nIndex = 1, 4, 7, ...
; 410  : 		return graphColor.GetColor3();

  001cc	ff 15 00 00 00
	00		 call	 DWORD PTR __imp_?GetColor3@CGraphColor@@QBEKXZ

; 395  : }

  001d2	8b 4d f4	 mov	 ecx, DWORD PTR __$EHRec$[ebp]
  001d5	64 89 0d 00 00
	00 00		 mov	 DWORD PTR fs:0, ecx
  001dc	59		 pop	 ecx
  001dd	5f		 pop	 edi
  001de	5e		 pop	 esi
  001df	5b		 pop	 ebx
  001e0	8b e5		 mov	 esp, ebp
  001e2	5d		 pop	 ebp
  001e3	c2 0c 00	 ret	 12			; 0000000cH
_TEXT	ENDS
;	COMDAT text$x
text$x	SEGMENT
__unwindfunclet$?GetTitleTextColor@CGraphTitleDrawer@@ABEKABVCDrawingGraphData@@ABVCSubGraphData@@H@Z$0:
  00000	8d 4d f0	 lea	 ecx, DWORD PTR $T8[ebp]
  00003	ff 25 00 00 00
	00		 jmp	 DWORD PTR __imp_??1?$CStringT@DV?$StrTraitMFC_DLL@DV?$ChTraitsCRT@D@ATL@@@@@ATL@@QAE@XZ
__unwindfunclet$?GetTitleTextColor@CGraphTitleDrawer@@ABEKABVCDrawingGraphData@@ABVCSubGraphData@@H@Z$1:
  00009	8b 45 f0	 mov	 eax, DWORD PTR $T7[ebp]
  0000c	83 e0 01	 and	 eax, 1
  0000f	0f 84 0d 00 00
	00		 je	 $LN11@GetTitleTe
  00015	83 65 f0 fe	 and	 DWORD PTR $T7[ebp], -2	; fffffffeH
  00019	8d 4d e8	 lea	 ecx, DWORD PTR $T5[ebp]
  0001c	ff 25 00 00 00
	00		 jmp	 DWORD PTR __imp_??1?$CStringT@DV?$StrTraitMFC_DLL@DV?$ChTraitsCRT@D@ATL@@@@@ATL@@QAE@XZ
$LN11@GetTitleTe:
  00022	c3		 ret	 0
__unwindfunclet$?GetTitleTextColor@CGraphTitleDrawer@@ABEKABVCDrawingGraphData@@ABVCSubGraphData@@H@Z$2:
  00023	8b 45 f0	 mov	 eax, DWORD PTR $T7[ebp]
  00026	83 e0 02	 and	 eax, 2
  00029	0f 84 0d 00 00
	00		 je	 $LN13@GetTitleTe
  0002f	83 65 f0 fd	 and	 DWORD PTR $T7[ebp], -3	; fffffffdH
  00033	8d 4d ec	 lea	 ecx, DWORD PTR $T6[ebp]
  00036	ff 25 00 00 00
	00		 jmp	 DWORD PTR __imp_??1?$CStringT@DV?$StrTraitMFC_DLL@DV?$ChTraitsCRT@D@ATL@@@@@ATL@@QAE@XZ
$LN13@GetTitleTe:
  0003c	c3		 ret	 0
  0003d	cc		 int	 3
  0003e	cc		 int	 3
  0003f	cc		 int	 3
  00040	cc		 int	 3
  00041	cc		 int	 3
__ehhandler$?GetTitleTextColor@CGraphTitleDrawer@@ABEKABVCDrawingGraphData@@ABVCSubGraphData@@H@Z:
  00042	90		 npad	 1
  00043	90		 npad	 1
  00044	8b 54 24 08	 mov	 edx, DWORD PTR [esp+8]
  00048	8d 42 0c	 lea	 eax, DWORD PTR [edx+12]
  0004b	8b 4a 8c	 mov	 ecx, DWORD PTR [edx-116]
  0004e	33 c8		 xor	 ecx, eax
  00050	e8 00 00 00 00	 call	 @__security_check_cookie@4
  00055	b8 00 00 00 00	 mov	 eax, OFFSET __ehfuncinfo$?GetTitleTextColor@CGraphTitleDrawer@@ABEKABVCDrawingGraphData@@ABVCSubGraphData@@H@Z
  0005a	e9 00 00 00 00	 jmp	 ___CxxFrameHandler3
text$x	ENDS
?GetTitleTextColor@CGraphTitleDrawer@@ABEKABVCDrawingGraphData@@ABVCSubGraphData@@H@Z ENDP ; CGraphTitleDrawer::GetTitleTextColor
; Function compile flags: /Ogtp
; File D:\git\src\IBK\IBK_DRFN\ProjSrc\SrcChartEx\ChartOCX\GraphDraw\GraphTitleDrawer.cpp
; File C:\Program Files (x86)\Microsoft Visual Studio\2019\Community\VC\Tools\MSVC\14.29.30133\atlmfc\include\afxtempl.h
; File D:\git\src\IBK\IBK_DRFN\ProjSrc\SrcChartEx\ChartOCX\GraphDraw\GraphTitleDrawer.cpp
; File C:\Program Files (x86)\Microsoft Visual Studio\2019\Community\VC\Tools\MSVC\14.29.30133\atlmfc\include\afxtempl.h
; File D:\git\src\IBK\IBK_DRFN\ProjSrc\SrcChartEx\ChartOCX\GraphDraw\GraphTitleDrawer.cpp
; File C:\Program Files (x86)\Microsoft Visual Studio\2019\Community\VC\Tools\MSVC\14.29.30133\atlmfc\include\afxtempl.h
; File D:\git\src\IBK\IBK_DRFN\ProjSrc\SrcChartEx\ChartOCX\GraphDraw\GraphTitleDrawer.cpp
;	COMDAT ?GetGraphTitle_Price@CGraphTitleDrawer@@ABE?AV?$CStringT@DV?$StrTraitMFC_DLL@DV?$ChTraitsCRT@D@ATL@@@@@ATL@@ABVCDrawingGraphData@@H@Z
_TEXT	SEGMENT
__$EHRec$ = -12						; size = 12
___$ReturnUdt$ = 8					; size = 4
_drawingGraphData$ = 12					; size = 4
$T2 = 16						; size = 4
_nIndex$ = 16						; size = 4
?GetGraphTitle_Price@CGraphTitleDrawer@@ABE?AV?$CStringT@DV?$StrTraitMFC_DLL@DV?$ChTraitsCRT@D@ATL@@@@@ATL@@ABVCDrawingGraphData@@H@Z PROC ; CGraphTitleDrawer::GetGraphTitle_Price, COMDAT
; _this$ = ecx

; 367  : {

  00000	55		 push	 ebp
  00001	8b ec		 mov	 ebp, esp
  00003	6a ff		 push	 -1
  00005	68 00 00 00 00	 push	 __ehhandler$?GetGraphTitle_Price@CGraphTitleDrawer@@ABE?AV?$CStringT@DV?$StrTraitMFC_DLL@DV?$ChTraitsCRT@D@ATL@@@@@ATL@@ABVCDrawingGraphData@@H@Z
  0000a	64 a1 00 00 00
	00		 mov	 eax, DWORD PTR fs:0
  00010	50		 push	 eax
  00011	53		 push	 ebx
  00012	56		 push	 esi
  00013	a1 00 00 00 00	 mov	 eax, DWORD PTR ___security_cookie
  00018	33 c5		 xor	 eax, ebp
  0001a	50		 push	 eax
  0001b	8d 45 f4	 lea	 eax, DWORD PTR __$EHRec$[ebp]
  0001e	64 a3 00 00 00
	00		 mov	 DWORD PTR fs:0, eax

; 368  : 	CPacket* pPacket = GetPacket(drawingGraphData, nIndex);

  00024	ff 75 10	 push	 DWORD PTR _nIndex$[ebp]
  00027	ff 75 0c	 push	 DWORD PTR _drawingGraphData$[ebp]
  0002a	e8 00 00 00 00	 call	 ?GetPacket@CGraphTitleDrawer@@ABEPAVCPacket@@ABVCDrawingGraphData@@H@Z ; CGraphTitleDrawer::GetPacket
  0002f	8b f0		 mov	 esi, eax

; 369  : 	if(pPacket == NULL || pPacket->GetnumericDataList() == NULL || pPacket->GetDataCount() <= 0)

  00031	85 f6		 test	 esi, esi
  00033	74 6d		 je	 SHORT $LN3@GetGraphTi
  00035	8b ce		 mov	 ecx, esi
  00037	ff 15 00 00 00
	00		 call	 DWORD PTR __imp_?GetnumericDataList@CPacket@@QAEPAV?$CList@NN@@XZ
  0003d	85 c0		 test	 eax, eax
  0003f	74 61		 je	 SHORT $LN3@GetGraphTi
  00041	8b ce		 mov	 ecx, esi
  00043	ff 15 00 00 00
	00		 call	 DWORD PTR __imp_?GetDataCount@CPacket@@QAEHXZ
  00049	85 c0		 test	 eax, eax
  0004b	7e 55		 jle	 SHORT $LN3@GetGraphTi

; 374  : 	return CDataConversion::GetStringThousandFormat(pPacket->GetnumericDataList()->GetTail(), pPacket->GetType(false));

  0004d	6a 00		 push	 0
  0004f	8d 45 10	 lea	 eax, DWORD PTR $T2[ebp]
  00052	8b ce		 mov	 ecx, esi
  00054	50		 push	 eax
  00055	ff 15 00 00 00
	00		 call	 DWORD PTR __imp_?GetType@CPacket@@QAE?AV?$CStringT@DV?$StrTraitMFC_DLL@DV?$ChTraitsCRT@D@ATL@@@@@ATL@@_N@Z
  0005b	8b d8		 mov	 ebx, eax
  0005d	8b ce		 mov	 ecx, esi
  0005f	c7 45 fc 00 00
	00 00		 mov	 DWORD PTR __$EHRec$[ebp+8], 0
  00066	ff 15 00 00 00
	00		 call	 DWORD PTR __imp_?GetnumericDataList@CPacket@@QAEPAV?$CList@NN@@XZ
; File C:\Program Files (x86)\Microsoft Visual Studio\2019\Community\VC\Tools\MSVC\14.29.30133\atlmfc\include\afxtempl.h

; 797  : 	{ ENSURE(m_pNodeTail != NULL);

  0006c	8b 40 08	 mov	 eax, DWORD PTR [eax+8]
  0006f	85 c0		 test	 eax, eax
  00071	74 53		 je	 SHORT $LN18@GetGraphTi
; File D:\git\src\IBK\IBK_DRFN\ProjSrc\SrcChartEx\ChartOCX\GraphDraw\GraphTitleDrawer.cpp

; 374  : 	return CDataConversion::GetStringThousandFormat(pPacket->GetnumericDataList()->GetTail(), pPacket->GetType(false));

  00073	8b 75 08	 mov	 esi, DWORD PTR ___$ReturnUdt$[ebp]
; File C:\Program Files (x86)\Microsoft Visual Studio\2019\Community\VC\Tools\MSVC\14.29.30133\atlmfc\include\afxtempl.h

; 798  : 		return m_pNodeTail->data; }

  00076	83 c0 08	 add	 eax, 8
; File D:\git\src\IBK\IBK_DRFN\ProjSrc\SrcChartEx\ChartOCX\GraphDraw\GraphTitleDrawer.cpp

; 374  : 	return CDataConversion::GetStringThousandFormat(pPacket->GetnumericDataList()->GetTail(), pPacket->GetType(false));

  00079	53		 push	 ebx
  0007a	50		 push	 eax
  0007b	56		 push	 esi
  0007c	e8 00 00 00 00	 call	 ?GetStringThousandFormat@CDataConversion@@SA?AV?$CStringT@DV?$StrTraitMFC_DLL@DV?$ChTraitsCRT@D@ATL@@@@@ATL@@ABNABV23@@Z ; CDataConversion::GetStringThousandFormat
  00081	83 c4 0c	 add	 esp, 12			; 0000000cH
  00084	8d 4d 10	 lea	 ecx, DWORD PTR $T2[ebp]
  00087	ff 15 00 00 00
	00		 call	 DWORD PTR __imp_??1?$CStringT@DV?$StrTraitMFC_DLL@DV?$ChTraitsCRT@D@ATL@@@@@ATL@@QAE@XZ
  0008d	8b c6		 mov	 eax, esi

; 375  : }

  0008f	8b 4d f4	 mov	 ecx, DWORD PTR __$EHRec$[ebp]
  00092	64 89 0d 00 00
	00 00		 mov	 DWORD PTR fs:0, ecx
  00099	59		 pop	 ecx
  0009a	5e		 pop	 esi
  0009b	5b		 pop	 ebx
  0009c	8b e5		 mov	 esp, ebp
  0009e	5d		 pop	 ebp
  0009f	c2 0c 00	 ret	 12			; 0000000cH
$LN3@GetGraphTi:

; 370  : 		return "";

  000a2	8b 4d 08	 mov	 ecx, DWORD PTR ___$ReturnUdt$[ebp]
  000a5	68 00 00 00 00	 push	 OFFSET ??_C@_00CNPNBAHC@@
  000aa	ff 15 00 00 00
	00		 call	 DWORD PTR __imp_??0?$CStringT@DV?$StrTraitMFC_DLL@DV?$ChTraitsCRT@D@ATL@@@@@ATL@@QAE@PBD@Z
  000b0	8b 45 08	 mov	 eax, DWORD PTR ___$ReturnUdt$[ebp]

; 375  : }

  000b3	8b 4d f4	 mov	 ecx, DWORD PTR __$EHRec$[ebp]
  000b6	64 89 0d 00 00
	00 00		 mov	 DWORD PTR fs:0, ecx
  000bd	59		 pop	 ecx
  000be	5e		 pop	 esi
  000bf	5b		 pop	 ebx
  000c0	8b e5		 mov	 esp, ebp
  000c2	5d		 pop	 ebp
  000c3	c2 0c 00	 ret	 12			; 0000000cH
$LN18@GetGraphTi:
; File C:\Program Files (x86)\Microsoft Visual Studio\2019\Community\VC\Tools\MSVC\14.29.30133\atlmfc\include\afxtempl.h

; 797  : 	{ ENSURE(m_pNodeTail != NULL);

  000c6	e8 00 00 00 00	 call	 ?AfxThrowInvalidArgException@@YGXXZ ; AfxThrowInvalidArgException
$LN16@GetGraphTi:
  000cb	cc		 int	 3
_TEXT	ENDS
;	COMDAT text$x
text$x	SEGMENT
__unwindfunclet$?GetGraphTitle_Price@CGraphTitleDrawer@@ABE?AV?$CStringT@DV?$StrTraitMFC_DLL@DV?$ChTraitsCRT@D@ATL@@@@@ATL@@ABVCDrawingGraphData@@H@Z$1:
  00000	8d 4d 10	 lea	 ecx, DWORD PTR $T2[ebp]
  00003	ff 25 00 00 00
	00		 jmp	 DWORD PTR __imp_??1?$CStringT@DV?$StrTraitMFC_DLL@DV?$ChTraitsCRT@D@ATL@@@@@ATL@@QAE@XZ
  00009	cc		 int	 3
  0000a	cc		 int	 3
  0000b	cc		 int	 3
  0000c	cc		 int	 3
  0000d	cc		 int	 3
__ehhandler$?GetGraphTitle_Price@CGraphTitleDrawer@@ABE?AV?$CStringT@DV?$StrTraitMFC_DLL@DV?$ChTraitsCRT@D@ATL@@@@@ATL@@ABVCDrawingGraphData@@H@Z:
  0000e	90		 npad	 1
  0000f	90		 npad	 1
  00010	8b 54 24 08	 mov	 edx, DWORD PTR [esp+8]
  00014	8d 42 0c	 lea	 eax, DWORD PTR [edx+12]
  00017	8b 4a f4	 mov	 ecx, DWORD PTR [edx-12]
  0001a	33 c8		 xor	 ecx, eax
  0001c	e8 00 00 00 00	 call	 @__security_check_cookie@4
  00021	b8 00 00 00 00	 mov	 eax, OFFSET __ehfuncinfo$?GetGraphTitle_Price@CGraphTitleDrawer@@ABE?AV?$CStringT@DV?$StrTraitMFC_DLL@DV?$ChTraitsCRT@D@ATL@@@@@ATL@@ABVCDrawingGraphData@@H@Z
  00026	e9 00 00 00 00	 jmp	 ___CxxFrameHandler3
text$x	ENDS
?GetGraphTitle_Price@CGraphTitleDrawer@@ABE?AV?$CStringT@DV?$StrTraitMFC_DLL@DV?$ChTraitsCRT@D@ATL@@@@@ATL@@ABVCDrawingGraphData@@H@Z ENDP ; CGraphTitleDrawer::GetGraphTitle_Price
; Function compile flags: /Ogtp
; File D:\git\src\IBK\IBK_DRFN\ProjSrc\SrcChartEx\ChartOCX\GraphDraw\GraphTitleDrawer.cpp
; File C:\Program Files (x86)\Microsoft Visual Studio\2019\Community\VC\Tools\MSVC\14.29.30133\atlmfc\include\cstringt.h
; File D:\git\src\IBK\IBK_DRFN\ProjSrc\SrcChartEx\ChartOCX\GraphDraw\GraphTitleDrawer.cpp
; File C:\Program Files (x86)\Microsoft Visual Studio\2019\Community\VC\Tools\MSVC\14.29.30133\atlmfc\include\cstringt.h
; File D:\git\src\IBK\IBK_DRFN\ProjSrc\SrcChartEx\ChartOCX\GraphDraw\GraphTitleDrawer.cpp
; File C:\Program Files (x86)\Microsoft Visual Studio\2019\Community\VC\Tools\MSVC\14.29.30133\atlmfc\include\afxtempl.h
; File D:\git\src\IBK\IBK_DRFN\ProjSrc\SrcChartEx\ChartOCX\GraphDraw\GraphTitleDrawer.cpp
; File C:\Program Files (x86)\Microsoft Visual Studio\2019\Community\VC\Tools\MSVC\14.29.30133\atlmfc\include\cstringt.h
; File C:\Program Files (x86)\Microsoft Visual Studio\2019\Community\VC\Tools\MSVC\14.29.30133\atlmfc\include\afxtempl.h
; File D:\git\src\IBK\IBK_DRFN\ProjSrc\SrcChartEx\ChartOCX\GraphDraw\GraphTitleDrawer.cpp
; File C:\Program Files (x86)\Microsoft Visual Studio\2019\Community\VC\Tools\MSVC\14.29.30133\atlmfc\include\cstringt.h
; File D:\git\src\IBK\IBK_DRFN\ProjSrc\SrcChartEx\ChartOCX\GraphDraw\GraphTitleDrawer.cpp
; File C:\Program Files (x86)\Microsoft Visual Studio\2019\Community\VC\Tools\MSVC\14.29.30133\atlmfc\include\cstringt.h
; File D:\git\src\IBK\IBK_DRFN\ProjSrc\SrcChartEx\ChartOCX\GraphDraw\GraphTitleDrawer.cpp
; File C:\Program Files (x86)\Microsoft Visual Studio\2019\Community\VC\Tools\MSVC\14.29.30133\atlmfc\include\cstringt.h
; File C:\Program Files (x86)\Microsoft Visual Studio\2019\Community\VC\Tools\MSVC\14.29.30133\atlmfc\include\atlsimpstr.h
; File C:\Program Files (x86)\Microsoft Visual Studio\2019\Community\VC\Tools\MSVC\14.29.30133\atlmfc\include\cstringt.h
; File D:\git\src\IBK\IBK_DRFN\ProjSrc\SrcChartEx\ChartOCX\GraphDraw\GraphTitleDrawer.cpp
; File C:\Program Files (x86)\Microsoft Visual Studio\2019\Community\VC\Tools\MSVC\14.29.30133\atlmfc\include\atlsimpstr.h
; File D:\git\src\IBK\IBK_DRFN\ProjSrc\SrcChartEx\ChartOCX\GraphDraw\GraphTitleDrawer.cpp
; File C:\Program Files (x86)\Microsoft Visual Studio\2019\Community\VC\Tools\MSVC\14.29.30133\atlmfc\include\cstringt.h
; File D:\git\src\IBK\IBK_DRFN\ProjSrc\SrcChartEx\ChartOCX\GraphDraw\GraphTitleDrawer.cpp
; File C:\Program Files (x86)\Microsoft Visual Studio\2019\Community\VC\Tools\MSVC\14.29.30133\atlmfc\include\cstringt.h
; File C:\Program Files (x86)\Microsoft Visual Studio\2019\Community\VC\Tools\MSVC\14.29.30133\atlmfc\include\atlsimpstr.h
; File C:\Program Files (x86)\Microsoft Visual Studio\2019\Community\VC\Tools\MSVC\14.29.30133\atlmfc\include\cstringt.h
; File D:\git\src\IBK\IBK_DRFN\ProjSrc\SrcChartEx\ChartOCX\GraphDraw\GraphTitleDrawer.cpp
; File C:\Program Files (x86)\Microsoft Visual Studio\2019\Community\VC\Tools\MSVC\14.29.30133\atlmfc\include\cstringt.h
; File D:\git\src\IBK\IBK_DRFN\ProjSrc\SrcChartEx\ChartOCX\GraphDraw\GraphTitleDrawer.cpp
; File C:\Program Files (x86)\Microsoft Visual Studio\2019\Community\VC\Tools\MSVC\14.29.30133\atlmfc\include\cstringt.h
; File C:\Program Files (x86)\Microsoft Visual Studio\2019\Community\VC\Tools\MSVC\14.29.30133\atlmfc\include\atlsimpstr.h
; File C:\Program Files (x86)\Microsoft Visual Studio\2019\Community\VC\Tools\MSVC\14.29.30133\atlmfc\include\cstringt.h
; File D:\git\src\IBK\IBK_DRFN\ProjSrc\SrcChartEx\ChartOCX\GraphDraw\GraphTitleDrawer.cpp
;	COMDAT ?GetGraphTitle_Condition@CGraphTitleDrawer@@ABE?AV?$CStringT@DV?$StrTraitMFC_DLL@DV?$ChTraitsCRT@D@ATL@@@@@ATL@@ABVCDrawingGraphData@@H@Z
_TEXT	SEGMENT
_dCondition$2 = -68					; size = 8
_dCondition$3 = -68					; size = 8
$T4 = -60						; size = 4
$T5 = -56						; size = 4
$T6 = -52						; size = 4
$T7 = -48						; size = 4
$T8 = -48						; size = 4
$T9 = -48						; size = 4
$T10 = -44						; size = 4
$T11 = -40						; size = 4
_strIndicatorName$ = -36				; size = 4
_strCondType$12 = -32					; size = 4
$T13 = -28						; size = 4
_strConditionType$ = -24				; size = 4
_strCondition$ = -20					; size = 4
_chTemp$14 = -13					; size = 1
$T15 = -13						; size = 1
__$EHRec$ = -12						; size = 12
___$ReturnUdt$ = 8					; size = 4
$T16 = 12						; size = 4
$T17 = 12						; size = 4
$T18 = 12						; size = 4
_drawingGraphData$ = 12					; size = 4
$T19 = 15						; size = 1
$T20 = 15						; size = 1
_chTemp$21 = 15						; size = 1
_nSubGraphIndex$ = 16					; size = 4
_chTemp$22 = 19						; size = 1
?GetGraphTitle_Condition@CGraphTitleDrawer@@ABE?AV?$CStringT@DV?$StrTraitMFC_DLL@DV?$ChTraitsCRT@D@ATL@@@@@ATL@@ABVCDrawingGraphData@@H@Z PROC ; CGraphTitleDrawer::GetGraphTitle_Condition, COMDAT
; _this$ = ecx

; 280  : {

  00000	55		 push	 ebp
  00001	8b ec		 mov	 ebp, esp
  00003	6a ff		 push	 -1
  00005	68 00 00 00 00	 push	 __ehhandler$?GetGraphTitle_Condition@CGraphTitleDrawer@@ABE?AV?$CStringT@DV?$StrTraitMFC_DLL@DV?$ChTraitsCRT@D@ATL@@@@@ATL@@ABVCDrawingGraphData@@H@Z
  0000a	64 a1 00 00 00
	00		 mov	 eax, DWORD PTR fs:0
  00010	50		 push	 eax
  00011	83 ec 38	 sub	 esp, 56			; 00000038H
  00014	53		 push	 ebx
  00015	56		 push	 esi
  00016	57		 push	 edi
  00017	a1 00 00 00 00	 mov	 eax, DWORD PTR ___security_cookie
  0001c	33 c5		 xor	 eax, ebp
  0001e	50		 push	 eax
  0001f	8d 45 f4	 lea	 eax, DWORD PTR __$EHRec$[ebp]
  00022	64 a3 00 00 00
	00		 mov	 DWORD PTR fs:0, eax
  00028	33 db		 xor	 ebx, ebx
  0002a	89 5d e4	 mov	 DWORD PTR $T13[ebp], ebx

; 281  : 	// 20080908 	8/32  
; 282  : 	CIndicatorInfo* pIndicatorInfo = drawingGraphData.GetIndicatorInfo();

  0002d	8b 75 0c	 mov	 esi, DWORD PTR _drawingGraphData$[ebp]
  00030	8b ce		 mov	 ecx, esi
  00032	e8 00 00 00 00	 call	 ?GetIndicatorInfo@CDrawingGraphData@@QBEPAVCIndicatorInfo@@XZ ; CDrawingGraphData::GetIndicatorInfo

; 283  : 	if(pIndicatorInfo == NULL)

  00037	85 c0		 test	 eax, eax
  00039	0f 84 c6 03 00
	00		 je	 $LN6@GetGraphTi

; 284  : 		return "";
; 285  : 
; 286  : 	//SubGraphPartData      .
; 287  : 	//   Title  .
; 288  : 	CList<double, double>* pCalConditionList = pIndicatorInfo->GetCommonCalConditionList();

  0003f	8b c8		 mov	 ecx, eax
  00041	ff 15 00 00 00
	00		 call	 DWORD PTR __imp_?GetCommonCalConditionList@CIndicatorInfo@@QAEPAV?$CList@NN@@XZ
  00047	8b f8		 mov	 edi, eax

; 289  : 	if(pCalConditionList == NULL || pCalConditionList->GetCount() <= 0)

  00049	85 ff		 test	 edi, edi
  0004b	0f 84 b4 03 00
	00		 je	 $LN6@GetGraphTi
  00051	39 5f 0c	 cmp	 DWORD PTR [edi+12], ebx
  00054	0f 8e ab 03 00
	00		 jle	 $LN6@GetGraphTi

; 291  : 
; 292  : 	// 20081107 JS.Kim	8/32        
; 293  : 	CString strIndicatorName = drawingGraphData.GetIndicatorName();

  0005a	8d 45 dc	 lea	 eax, DWORD PTR _strIndicatorName$[ebp]
  0005d	8b ce		 mov	 ecx, esi
  0005f	50		 push	 eax
  00060	e8 00 00 00 00	 call	 ?GetIndicatorName@CDrawingGraphData@@QBE?AV?$CStringT@DV?$StrTraitMFC_DLL@DV?$ChTraitsCRT@D@ATL@@@@@ATL@@XZ ; CDrawingGraphData::GetIndicatorName

; 294  : 
; 295  : 	// 20080908 	8/32   >>
; 296  : 	const CList< CPacket*, CPacket*> &packetList = drawingGraphData.GetSubGraphPacketList()->GetSubGraphPacketList();

  00065	8b ce		 mov	 ecx, esi
  00067	89 5d fc	 mov	 DWORD PTR __$EHRec$[ebp+8], ebx
  0006a	e8 00 00 00 00	 call	 ?GetSubGraphPacketList@CDrawingGraphData@@QBEPAVCSubGraphPacketList@@XZ ; CDrawingGraphData::GetSubGraphPacketList
  0006f	8b c8		 mov	 ecx, eax
  00071	e8 00 00 00 00	 call	 ?GetSubGraphPacketList@CSubGraphPacketList@@QBEABV?$CList@PAVCPacket@@PAV1@@@XZ ; CSubGraphPacketList::GetSubGraphPacketList

; 297  : 	CPacket* pPacket = NULL;

  00076	33 f6		 xor	 esi, esi

; 298  : 	if( packetList.GetCount() > 0)

  00078	39 70 0c	 cmp	 DWORD PTR [eax+12], esi
  0007b	7e 0f		 jle	 SHORT $LN7@GetGraphTi

; 299  : 		pPacket = CDrawingPacketFinder().GetPracticalPacket( strIndicatorName, packetList);

  0007d	50		 push	 eax
  0007e	8d 45 dc	 lea	 eax, DWORD PTR _strIndicatorName$[ebp]
  00081	50		 push	 eax
  00082	8d 4d f3	 lea	 ecx, DWORD PTR $T15[ebp]
  00085	e8 00 00 00 00	 call	 ?GetPracticalPacket@CDrawingPacketFinder@@QBEPAVCPacket@@ABV?$CStringT@DV?$StrTraitMFC_DLL@DV?$ChTraitsCRT@D@ATL@@@@@ATL@@ABV?$CList@PAVCPacket@@PAV1@@@@Z ; CDrawingPacketFinder::GetPracticalPacket
  0008a	8b f0		 mov	 esi, eax
$LN7@GetGraphTi:

; 300  : 	//>>
; 301  : 	// 20081107 JS.Kim	8/32         <<
; 302  : 	CString	strConditionType = "";

  0008c	68 00 00 00 00	 push	 OFFSET ??_C@_00CNPNBAHC@@
  00091	8d 4d e8	 lea	 ecx, DWORD PTR _strConditionType$[ebp]
  00094	ff 15 00 00 00
	00		 call	 DWORD PTR __imp_??0?$CStringT@DV?$StrTraitMFC_DLL@DV?$ChTraitsCRT@D@ATL@@@@@ATL@@QAE@PBD@Z

; 303  : 	if( strIndicatorName == _MTEXT( C2_RENKO_CHART) )

  0009a	8b 0d 54 00 00
	00		 mov	 ecx, DWORD PTR ?g_iMetaTable@@3VIMetaTable@@A+84
  000a0	c6 45 fc 01	 mov	 BYTE PTR __$EHRec$[ebp+8], 1
; File C:\Program Files (x86)\Microsoft Visual Studio\2019\Community\VC\Tools\MSVC\14.29.30133\atlmfc\include\cstringt.h

; 2486 : 		return(str1.Compare(psz2) == 0);

  000a4	ff b1 9c 04 00
	00		 push	 DWORD PTR [ecx+1180]
  000aa	8d 4d dc	 lea	 ecx, DWORD PTR _strIndicatorName$[ebp]
  000ad	ff 15 00 00 00
	00		 call	 DWORD PTR __imp_?Compare@?$CStringT@DV?$StrTraitMFC_DLL@DV?$ChTraitsCRT@D@ATL@@@@@ATL@@QBEHPBD@Z
  000b3	85 c0		 test	 eax, eax
; File D:\git\src\IBK\IBK_DRFN\ProjSrc\SrcChartEx\ChartOCX\GraphDraw\GraphTitleDrawer.cpp

; 303  : 	if( strIndicatorName == _MTEXT( C2_RENKO_CHART) )

  000b5	75 69		 jne	 SHORT $LN8@GetGraphTi

; 304  : 	{
; 305  : 		if( pPacket && CDataConversion::IsBaseFormat(pPacket->GetType()) )

  000b7	85 f6		 test	 esi, esi
  000b9	74 2b		 je	 SHORT $LN21@GetGraphTi
  000bb	6a 01		 push	 1
  000bd	8d 45 d0	 lea	 eax, DWORD PTR $T9[ebp]
  000c0	8b ce		 mov	 ecx, esi
  000c2	50		 push	 eax
  000c3	ff 15 00 00 00
	00		 call	 DWORD PTR __imp_?GetType@CPacket@@QAE?AV?$CStringT@DV?$StrTraitMFC_DLL@DV?$ChTraitsCRT@D@ATL@@@@@ATL@@_N@Z
  000c9	bb 02 00 00 00	 mov	 ebx, 2
  000ce	c6 45 fc 02	 mov	 BYTE PTR __$EHRec$[ebp+8], 2
  000d2	50		 push	 eax
  000d3	89 5d e4	 mov	 DWORD PTR $T13[ebp], ebx
  000d6	e8 00 00 00 00	 call	 ?IsBaseFormat@CDataConversion@@SA_NABV?$CStringT@DV?$StrTraitMFC_DLL@DV?$ChTraitsCRT@D@ATL@@@@@ATL@@@Z ; CDataConversion::IsBaseFormat
  000db	83 c4 04	 add	 esp, 4
  000de	c6 45 0f 01	 mov	 BYTE PTR $T20[ebp], 1
  000e2	84 c0		 test	 al, al
  000e4	75 04		 jne	 SHORT $LN22@GetGraphTi
$LN21@GetGraphTi:
  000e6	c6 45 0f 00	 mov	 BYTE PTR $T20[ebp], 0
$LN22@GetGraphTi:
  000ea	c7 45 fc 01 00
	00 00		 mov	 DWORD PTR __$EHRec$[ebp+8], 1
  000f1	f6 c3 02	 test	 bl, 2
  000f4	74 0c		 je	 SHORT $LN31@GetGraphTi
  000f6	8d 4d d0	 lea	 ecx, DWORD PTR $T9[ebp]
  000f9	83 e3 fd	 and	 ebx, -3			; fffffffdH
  000fc	ff 15 00 00 00
	00		 call	 DWORD PTR __imp_??1?$CStringT@DV?$StrTraitMFC_DLL@DV?$ChTraitsCRT@D@ATL@@@@@ATL@@QAE@XZ
$LN31@GetGraphTi:
  00102	80 7d 0f 00	 cmp	 BYTE PTR $T20[ebp], 0
  00106	0f 84 a2 00 00
	00		 je	 $LN12@GetGraphTi

; 306  : 			strConditionType = pPacket->GetType();

  0010c	6a 01		 push	 1
  0010e	8d 45 0c	 lea	 eax, DWORD PTR $T18[ebp]
  00111	8b ce		 mov	 ecx, esi
  00113	50		 push	 eax
  00114	ff 15 00 00 00
	00		 call	 DWORD PTR __imp_?GetType@CPacket@@QAE?AV?$CStringT@DV?$StrTraitMFC_DLL@DV?$ChTraitsCRT@D@ATL@@@@@ATL@@_N@Z
  0011a	c6 45 fc 03	 mov	 BYTE PTR __$EHRec$[ebp+8], 3

; 307  : 	}

  0011e	eb 7b		 jmp	 SHORT $LN94@GetGraphTi
$LN8@GetGraphTi:

; 309  : 	else if( strIndicatorName == _MTEXT( C2_PARABOLIC_SAR) )

  00120	a1 54 00 00 00	 mov	 eax, DWORD PTR ?g_iMetaTable@@3VIMetaTable@@A+84
; File C:\Program Files (x86)\Microsoft Visual Studio\2019\Community\VC\Tools\MSVC\14.29.30133\atlmfc\include\cstringt.h

; 2486 : 		return(str1.Compare(psz2) == 0);

  00125	8d 4d dc	 lea	 ecx, DWORD PTR _strIndicatorName$[ebp]
  00128	ff b0 54 03 00
	00		 push	 DWORD PTR [eax+852]
  0012e	ff 15 00 00 00
	00		 call	 DWORD PTR __imp_?Compare@?$CStringT@DV?$StrTraitMFC_DLL@DV?$ChTraitsCRT@D@ATL@@@@@ATL@@QBEHPBD@Z
  00134	85 c0		 test	 eax, eax
; File D:\git\src\IBK\IBK_DRFN\ProjSrc\SrcChartEx\ChartOCX\GraphDraw\GraphTitleDrawer.cpp

; 309  : 	else if( strIndicatorName == _MTEXT( C2_PARABOLIC_SAR) )

  00136	75 76		 jne	 SHORT $LN12@GetGraphTi

; 310  : 	{
; 311  : 		if( pPacket && !CDataConversion::IsBaseFormat(pPacket->GetType()) )

  00138	85 f6		 test	 esi, esi
  0013a	74 2b		 je	 SHORT $LN23@GetGraphTi
  0013c	6a 01		 push	 1
  0013e	8d 45 d0	 lea	 eax, DWORD PTR $T8[ebp]
  00141	8b ce		 mov	 ecx, esi
  00143	50		 push	 eax
  00144	ff 15 00 00 00
	00		 call	 DWORD PTR __imp_?GetType@CPacket@@QAE?AV?$CStringT@DV?$StrTraitMFC_DLL@DV?$ChTraitsCRT@D@ATL@@@@@ATL@@_N@Z
  0014a	bb 04 00 00 00	 mov	 ebx, 4
  0014f	c6 45 fc 04	 mov	 BYTE PTR __$EHRec$[ebp+8], 4
  00153	50		 push	 eax
  00154	89 5d e4	 mov	 DWORD PTR $T13[ebp], ebx
  00157	e8 00 00 00 00	 call	 ?IsBaseFormat@CDataConversion@@SA_NABV?$CStringT@DV?$StrTraitMFC_DLL@DV?$ChTraitsCRT@D@ATL@@@@@ATL@@@Z ; CDataConversion::IsBaseFormat
  0015c	83 c4 04	 add	 esp, 4
  0015f	c6 45 0f 01	 mov	 BYTE PTR $T19[ebp], 1
  00163	84 c0		 test	 al, al
  00165	74 04		 je	 SHORT $LN24@GetGraphTi
$LN23@GetGraphTi:
  00167	c6 45 0f 00	 mov	 BYTE PTR $T19[ebp], 0
$LN24@GetGraphTi:
  0016b	c7 45 fc 01 00
	00 00		 mov	 DWORD PTR __$EHRec$[ebp+8], 1
  00172	f6 c3 04	 test	 bl, 4
  00175	74 0c		 je	 SHORT $LN35@GetGraphTi
  00177	8d 4d d0	 lea	 ecx, DWORD PTR $T8[ebp]
  0017a	83 e3 fb	 and	 ebx, -5			; fffffffbH
  0017d	ff 15 00 00 00
	00		 call	 DWORD PTR __imp_??1?$CStringT@DV?$StrTraitMFC_DLL@DV?$ChTraitsCRT@D@ATL@@@@@ATL@@QAE@XZ
$LN35@GetGraphTi:
  00183	80 7d 0f 00	 cmp	 BYTE PTR $T19[ebp], 0
  00187	74 25		 je	 SHORT $LN12@GetGraphTi

; 312  : 			strConditionType = pPacket->GetType();

  00189	6a 01		 push	 1
  0018b	8d 45 0c	 lea	 eax, DWORD PTR $T17[ebp]
  0018e	8b ce		 mov	 ecx, esi
  00190	50		 push	 eax
  00191	ff 15 00 00 00
	00		 call	 DWORD PTR __imp_?GetType@CPacket@@QAE?AV?$CStringT@DV?$StrTraitMFC_DLL@DV?$ChTraitsCRT@D@ATL@@@@@ATL@@_N@Z
  00197	c6 45 fc 05	 mov	 BYTE PTR __$EHRec$[ebp+8], 5
$LN94@GetGraphTi:

; 313  : 	}
; 314  : //<< vntsorl(20090828)
; 315  : 	//>>
; 316  : 
; 317  : 	CString strCondition;

  0019b	50		 push	 eax
  0019c	8d 4d e8	 lea	 ecx, DWORD PTR _strConditionType$[ebp]
  0019f	ff 15 00 00 00
	00		 call	 DWORD PTR __imp_??4?$CStringT@DV?$StrTraitMFC_DLL@DV?$ChTraitsCRT@D@ATL@@@@@ATL@@QAEAAV01@ABV01@@Z
  001a5	8d 4d 0c	 lea	 ecx, DWORD PTR $T17[ebp]
  001a8	ff 15 00 00 00
	00		 call	 DWORD PTR __imp_??1?$CStringT@DV?$StrTraitMFC_DLL@DV?$ChTraitsCRT@D@ATL@@@@@ATL@@QAE@XZ
$LN12@GetGraphTi:
  001ae	8d 4d ec	 lea	 ecx, DWORD PTR _strCondition$[ebp]
  001b1	ff 15 00 00 00
	00		 call	 DWORD PTR __imp_??0?$CStringT@DV?$StrTraitMFC_DLL@DV?$ChTraitsCRT@D@ATL@@@@@ATL@@QAE@XZ

; 318  : 	//     - ojtaso (20071116)
; 319  : 	if(nSubGraphIndex < 0)

  001b7	8b 45 10	 mov	 eax, DWORD PTR _nSubGraphIndex$[ebp]
  001ba	c6 45 fc 06	 mov	 BYTE PTR __$EHRec$[ebp+8], 6
  001be	85 c0		 test	 eax, eax
  001c0	0f 89 d0 01 00
	00		 jns	 $LN13@GetGraphTi

; 320  : 	{
; 321  : 		CString strCondType;

  001c6	8d 4d e0	 lea	 ecx, DWORD PTR _strCondType$12[ebp]
  001c9	ff 15 00 00 00
	00		 call	 DWORD PTR __imp_??0?$CStringT@DV?$StrTraitMFC_DLL@DV?$ChTraitsCRT@D@ATL@@@@@ATL@@QAE@XZ

; 322  : 		POSITION pos = pCalConditionList->GetHeadPosition();

  001cf	8b 7f 04	 mov	 edi, DWORD PTR [edi+4]
  001d2	c6 45 fc 07	 mov	 BYTE PTR __$EHRec$[ebp+8], 7

; 323  : 		while(pos != NULL)

  001d6	85 ff		 test	 edi, edi
  001d8	0f 84 a8 01 00
	00		 je	 $LN3@GetGraphTi
  001de	66 90		 npad	 2
$LL2@GetGraphTi:

; 325  : 			double dCondition = pCalConditionList->GetNext(pos);

  001e0	f2 0f 10 47 08	 movsd	 xmm0, QWORD PTR [edi+8]
; File C:\Program Files (x86)\Microsoft Visual Studio\2019\Community\VC\Tools\MSVC\14.29.30133\atlmfc\include\afxtempl.h

; 811  : 	{ CNode* pNode = (CNode*) rPosition;

  001e5	8d 07		 lea	 eax, DWORD PTR [edi]
; File D:\git\src\IBK\IBK_DRFN\ProjSrc\SrcChartEx\ChartOCX\GraphDraw\GraphTitleDrawer.cpp

; 329  : 			if( strIndicatorName == _MTEXT( C2_PARABOLIC_SAR) )

  001e7	a1 54 00 00 00	 mov	 eax, DWORD PTR ?g_iMetaTable@@3VIMetaTable@@A+84
; File C:\Program Files (x86)\Microsoft Visual Studio\2019\Community\VC\Tools\MSVC\14.29.30133\atlmfc\include\cstringt.h

; 2486 : 		return(str1.Compare(psz2) == 0);

  001ec	8d 4d dc	 lea	 ecx, DWORD PTR _strIndicatorName$[ebp]
; File C:\Program Files (x86)\Microsoft Visual Studio\2019\Community\VC\Tools\MSVC\14.29.30133\atlmfc\include\afxtempl.h

; 813  : 		rPosition = (POSITION) pNode->pNext;

  001ef	8b 3f		 mov	 edi, DWORD PTR [edi]
; File D:\git\src\IBK\IBK_DRFN\ProjSrc\SrcChartEx\ChartOCX\GraphDraw\GraphTitleDrawer.cpp

; 325  : 			double dCondition = pCalConditionList->GetNext(pos);

  001f1	f2 0f 11 45 bc	 movsd	 QWORD PTR _dCondition$3[ebp], xmm0
; File C:\Program Files (x86)\Microsoft Visual Studio\2019\Community\VC\Tools\MSVC\14.29.30133\atlmfc\include\cstringt.h

; 2486 : 		return(str1.Compare(psz2) == 0);

  001f6	ff b0 54 03 00
	00		 push	 DWORD PTR [eax+852]
  001fc	ff 15 00 00 00
	00		 call	 DWORD PTR __imp_?Compare@?$CStringT@DV?$StrTraitMFC_DLL@DV?$ChTraitsCRT@D@ATL@@@@@ATL@@QBEHPBD@Z
  00202	85 c0		 test	 eax, eax
; File D:\git\src\IBK\IBK_DRFN\ProjSrc\SrcChartEx\ChartOCX\GraphDraw\GraphTitleDrawer.cpp

; 329  : 			if( strIndicatorName == _MTEXT( C2_PARABOLIC_SAR) )

  00204	0f 85 8d 00 00
	00		 jne	 $LN15@GetGraphTi

; 330  : 			{
; 331  : 				strCondType = CDataConversion::DoubleToString(dCondition, strConditionType);

  0020a	8d 45 e8	 lea	 eax, DWORD PTR _strConditionType$[ebp]
  0020d	50		 push	 eax
  0020e	8d 45 bc	 lea	 eax, DWORD PTR _dCondition$3[ebp]
  00211	50		 push	 eax
  00212	8d 45 cc	 lea	 eax, DWORD PTR $T6[ebp]
  00215	50		 push	 eax
  00216	e8 00 00 00 00	 call	 ?DoubleToString@CDataConversion@@SA?AV?$CStringT@DV?$StrTraitMFC_DLL@DV?$ChTraitsCRT@D@ATL@@@@@ATL@@ABNABV23@@Z ; CDataConversion::DoubleToString
  0021b	83 c4 0c	 add	 esp, 12			; 0000000cH
  0021e	50		 push	 eax
  0021f	8d 4d e0	 lea	 ecx, DWORD PTR _strCondType$12[ebp]
  00222	c6 45 fc 08	 mov	 BYTE PTR __$EHRec$[ebp+8], 8
  00226	ff 15 00 00 00
	00		 call	 DWORD PTR __imp_??4?$CStringT@DV?$StrTraitMFC_DLL@DV?$ChTraitsCRT@D@ATL@@@@@ATL@@QAEAAV01@ABV01@@Z
  0022c	8d 4d cc	 lea	 ecx, DWORD PTR $T6[ebp]
  0022f	c6 45 fc 07	 mov	 BYTE PTR __$EHRec$[ebp+8], 7
  00233	ff 15 00 00 00
	00		 call	 DWORD PTR __imp_??1?$CStringT@DV?$StrTraitMFC_DLL@DV?$ChTraitsCRT@D@ATL@@@@@ATL@@QAE@XZ

; 332  : 				strCondType.TrimRight('0');

  00239	6a 30		 push	 48			; 00000030H
  0023b	8d 4d e0	 lea	 ecx, DWORD PTR _strCondType$12[ebp]
  0023e	ff 15 00 00 00
	00		 call	 DWORD PTR __imp_?TrimRight@?$CStringT@DV?$StrTraitMFC_DLL@DV?$ChTraitsCRT@D@ATL@@@@@ATL@@QAEAAV12@D@Z
; File C:\Program Files (x86)\Microsoft Visual Studio\2019\Community\VC\Tools\MSVC\14.29.30133\atlmfc\include\cstringt.h

; 2429 : 		CStringT strResult( str1.GetManager() );

  00244	8d 4d e0	 lea	 ecx, DWORD PTR _strCondType$12[ebp]
; File D:\git\src\IBK\IBK_DRFN\ProjSrc\SrcChartEx\ChartOCX\GraphDraw\GraphTitleDrawer.cpp

; 333  : 				strCondition += (strCondType + ',');

  00247	c6 45 fc 09	 mov	 BYTE PTR __$EHRec$[ebp+8], 9
; File C:\Program Files (x86)\Microsoft Visual Studio\2019\Community\VC\Tools\MSVC\14.29.30133\atlmfc\include\cstringt.h

; 2429 : 		CStringT strResult( str1.GetManager() );

  0024b	ff 15 00 00 00
	00		 call	 DWORD PTR __imp_?GetManager@?$CStringT@DV?$StrTraitMFC_DLL@DV?$ChTraitsCRT@D@ATL@@@@@ATL@@QBEPAUIAtlStringMgr@2@XZ
  00251	50		 push	 eax
  00252	8d 4d d8	 lea	 ecx, DWORD PTR $T11[ebp]
  00255	ff 15 00 00 00
	00		 call	 DWORD PTR __imp_??0?$CStringT@DV?$StrTraitMFC_DLL@DV?$ChTraitsCRT@D@ATL@@@@@ATL@@QAE@PAUIAtlStringMgr@1@@Z
; File C:\Program Files (x86)\Microsoft Visual Studio\2019\Community\VC\Tools\MSVC\14.29.30133\atlmfc\include\atlsimpstr.h

; 519  : 		return( GetData()->nDataLength );

  0025b	8b 45 e0	 mov	 eax, DWORD PTR _strCondType$12[ebp]
; File C:\Program Files (x86)\Microsoft Visual Studio\2019\Community\VC\Tools\MSVC\14.29.30133\atlmfc\include\cstringt.h

; 2432 : 		CThisSimpleString::Concatenate( strResult, str1, str1.GetLength(), &chTemp, 1 );

  0025e	8d 4d 0f	 lea	 ecx, DWORD PTR _chTemp$21[ebp]
  00261	6a 01		 push	 1
  00263	51		 push	 ecx
  00264	c6 45 0f 2c	 mov	 BYTE PTR _chTemp$21[ebp], 44 ; 0000002cH

; 2433 : 
; 2434 : 		return( strResult );

  00268	83 cb 08	 or	 ebx, 8
  0026b	ff 70 f4	 push	 DWORD PTR [eax-12]
  0026e	89 5d e4	 mov	 DWORD PTR $T13[ebp], ebx
  00271	50		 push	 eax
  00272	8d 45 d8	 lea	 eax, DWORD PTR $T11[ebp]
  00275	50		 push	 eax
  00276	ff 15 00 00 00
	00		 call	 DWORD PTR __imp_?Concatenate@?$CSimpleStringT@D$00@ATL@@KAXAAV12@PBDH1H@Z
  0027c	83 c4 14	 add	 esp, 20			; 00000014H
; File D:\git\src\IBK\IBK_DRFN\ProjSrc\SrcChartEx\ChartOCX\GraphDraw\GraphTitleDrawer.cpp

; 333  : 				strCondition += (strCondType + ',');

  0027f	8d 45 d8	 lea	 eax, DWORD PTR $T11[ebp]
  00282	8d 4d ec	 lea	 ecx, DWORD PTR _strCondition$[ebp]
  00285	50		 push	 eax
  00286	ff 15 00 00 00
	00		 call	 DWORD PTR __imp_??Y?$CStringT@DV?$StrTraitMFC_DLL@DV?$ChTraitsCRT@D@ATL@@@@@ATL@@QAEAAV01@ABV?$CSimpleStringT@D$00@1@@Z
  0028c	83 e3 f7	 and	 ebx, -9			; fffffff7H
  0028f	8d 4d d8	 lea	 ecx, DWORD PTR $T11[ebp]

; 334  : 			}

  00292	e9 dd 00 00 00	 jmp	 $LN95@GetGraphTi
$LN15@GetGraphTi:
; File C:\Program Files (x86)\Microsoft Visual Studio\2019\Community\VC\Tools\MSVC\14.29.30133\atlmfc\include\atlsimpstr.h

; 519  : 		return( GetData()->nDataLength );

  00297	8b 45 e8	 mov	 eax, DWORD PTR _strConditionType$[ebp]

; 533  : 		return( GetLength() == 0 );

  0029a	83 78 f4 00	 cmp	 DWORD PTR [eax-12], 0
; File D:\git\src\IBK\IBK_DRFN\ProjSrc\SrcChartEx\ChartOCX\GraphDraw\GraphTitleDrawer.cpp

; 340  : 				if(strConditionType.IsEmpty())

  0029e	75 69		 jne	 SHORT $LN17@GetGraphTi

; 341  : 					strCondition += (CDataConversion::DoubleToString(dCondition) + ',');

  002a0	8d 45 bc	 lea	 eax, DWORD PTR _dCondition$3[ebp]
  002a3	50		 push	 eax
  002a4	8d 45 c8	 lea	 eax, DWORD PTR $T5[ebp]
  002a7	50		 push	 eax
  002a8	e8 00 00 00 00	 call	 ?DoubleToString@CDataConversion@@SA?AV?$CStringT@DV?$StrTraitMFC_DLL@DV?$ChTraitsCRT@D@ATL@@@@@ATL@@ABN@Z ; CDataConversion::DoubleToString
  002ad	83 c4 08	 add	 esp, 8
  002b0	8b f0		 mov	 esi, eax
; File C:\Program Files (x86)\Microsoft Visual Studio\2019\Community\VC\Tools\MSVC\14.29.30133\atlmfc\include\cstringt.h

; 2429 : 		CStringT strResult( str1.GetManager() );

  002b2	8b ce		 mov	 ecx, esi
; File D:\git\src\IBK\IBK_DRFN\ProjSrc\SrcChartEx\ChartOCX\GraphDraw\GraphTitleDrawer.cpp

; 341  : 					strCondition += (CDataConversion::DoubleToString(dCondition) + ',');

  002b4	c6 45 fc 0b	 mov	 BYTE PTR __$EHRec$[ebp+8], 11 ; 0000000bH
; File C:\Program Files (x86)\Microsoft Visual Studio\2019\Community\VC\Tools\MSVC\14.29.30133\atlmfc\include\cstringt.h

; 2429 : 		CStringT strResult( str1.GetManager() );

  002b8	ff 15 00 00 00
	00		 call	 DWORD PTR __imp_?GetManager@?$CStringT@DV?$StrTraitMFC_DLL@DV?$ChTraitsCRT@D@ATL@@@@@ATL@@QBEPAUIAtlStringMgr@2@XZ
  002be	50		 push	 eax
  002bf	8d 4d d4	 lea	 ecx, DWORD PTR $T10[ebp]
  002c2	ff 15 00 00 00
	00		 call	 DWORD PTR __imp_??0?$CStringT@DV?$StrTraitMFC_DLL@DV?$ChTraitsCRT@D@ATL@@@@@ATL@@QAE@PAUIAtlStringMgr@1@@Z
; File C:\Program Files (x86)\Microsoft Visual Studio\2019\Community\VC\Tools\MSVC\14.29.30133\atlmfc\include\atlsimpstr.h

; 519  : 		return( GetData()->nDataLength );

  002c8	8b 06		 mov	 eax, DWORD PTR [esi]
; File C:\Program Files (x86)\Microsoft Visual Studio\2019\Community\VC\Tools\MSVC\14.29.30133\atlmfc\include\cstringt.h

; 2432 : 		CThisSimpleString::Concatenate( strResult, str1, str1.GetLength(), &chTemp, 1 );

  002ca	8d 4d 13	 lea	 ecx, DWORD PTR _chTemp$22[ebp]
  002cd	6a 01		 push	 1
  002cf	51		 push	 ecx
  002d0	c6 45 13 2c	 mov	 BYTE PTR _chTemp$22[ebp], 44 ; 0000002cH

; 2433 : 
; 2434 : 		return( strResult );

  002d4	83 cb 10	 or	 ebx, 16			; 00000010H
  002d7	ff 70 f4	 push	 DWORD PTR [eax-12]
  002da	89 5d e4	 mov	 DWORD PTR $T13[ebp], ebx
  002dd	50		 push	 eax
  002de	8d 45 d4	 lea	 eax, DWORD PTR $T10[ebp]
  002e1	50		 push	 eax
  002e2	ff 15 00 00 00
	00		 call	 DWORD PTR __imp_?Concatenate@?$CSimpleStringT@D$00@ATL@@KAXAAV12@PBDH1H@Z
  002e8	83 c4 14	 add	 esp, 20			; 00000014H
; File D:\git\src\IBK\IBK_DRFN\ProjSrc\SrcChartEx\ChartOCX\GraphDraw\GraphTitleDrawer.cpp

; 341  : 					strCondition += (CDataConversion::DoubleToString(dCondition) + ',');

  002eb	8d 45 d4	 lea	 eax, DWORD PTR $T10[ebp]
  002ee	8d 4d ec	 lea	 ecx, DWORD PTR _strCondition$[ebp]
  002f1	50		 push	 eax
  002f2	ff 15 00 00 00
	00		 call	 DWORD PTR __imp_??Y?$CStringT@DV?$StrTraitMFC_DLL@DV?$ChTraitsCRT@D@ATL@@@@@ATL@@QAEAAV01@ABV?$CSimpleStringT@D$00@1@@Z
  002f8	8d 4d d4	 lea	 ecx, DWORD PTR $T10[ebp]
  002fb	83 e3 ef	 and	 ebx, -17		; ffffffefH
  002fe	ff 15 00 00 00
	00		 call	 DWORD PTR __imp_??1?$CStringT@DV?$StrTraitMFC_DLL@DV?$ChTraitsCRT@D@ATL@@@@@ATL@@QAE@XZ
  00304	8d 4d c8	 lea	 ecx, DWORD PTR $T5[ebp]
  00307	eb 6b		 jmp	 SHORT $LN95@GetGraphTi
$LN17@GetGraphTi:

; 343  : 				strCondition += (CDataConversion::DoubleToString(dCondition, strConditionType) + ',');

  00309	8d 45 e8	 lea	 eax, DWORD PTR _strConditionType$[ebp]
  0030c	50		 push	 eax
  0030d	8d 45 bc	 lea	 eax, DWORD PTR _dCondition$3[ebp]
  00310	50		 push	 eax
  00311	8d 45 c4	 lea	 eax, DWORD PTR $T4[ebp]
  00314	50		 push	 eax
  00315	e8 00 00 00 00	 call	 ?DoubleToString@CDataConversion@@SA?AV?$CStringT@DV?$StrTraitMFC_DLL@DV?$ChTraitsCRT@D@ATL@@@@@ATL@@ABNABV23@@Z ; CDataConversion::DoubleToString
  0031a	83 c4 0c	 add	 esp, 12			; 0000000cH
  0031d	8b f0		 mov	 esi, eax
; File C:\Program Files (x86)\Microsoft Visual Studio\2019\Community\VC\Tools\MSVC\14.29.30133\atlmfc\include\cstringt.h

; 2429 : 		CStringT strResult( str1.GetManager() );

  0031f	8b ce		 mov	 ecx, esi
; File D:\git\src\IBK\IBK_DRFN\ProjSrc\SrcChartEx\ChartOCX\GraphDraw\GraphTitleDrawer.cpp

; 343  : 				strCondition += (CDataConversion::DoubleToString(dCondition, strConditionType) + ',');

  00321	c6 45 fc 0d	 mov	 BYTE PTR __$EHRec$[ebp+8], 13 ; 0000000dH
; File C:\Program Files (x86)\Microsoft Visual Studio\2019\Community\VC\Tools\MSVC\14.29.30133\atlmfc\include\cstringt.h

; 2429 : 		CStringT strResult( str1.GetManager() );

  00325	ff 15 00 00 00
	00		 call	 DWORD PTR __imp_?GetManager@?$CStringT@DV?$StrTraitMFC_DLL@DV?$ChTraitsCRT@D@ATL@@@@@ATL@@QBEPAUIAtlStringMgr@2@XZ
  0032b	50		 push	 eax
  0032c	8d 4d d0	 lea	 ecx, DWORD PTR $T7[ebp]
  0032f	ff 15 00 00 00
	00		 call	 DWORD PTR __imp_??0?$CStringT@DV?$StrTraitMFC_DLL@DV?$ChTraitsCRT@D@ATL@@@@@ATL@@QAE@PAUIAtlStringMgr@1@@Z
; File C:\Program Files (x86)\Microsoft Visual Studio\2019\Community\VC\Tools\MSVC\14.29.30133\atlmfc\include\atlsimpstr.h

; 519  : 		return( GetData()->nDataLength );

  00335	8b 06		 mov	 eax, DWORD PTR [esi]
; File C:\Program Files (x86)\Microsoft Visual Studio\2019\Community\VC\Tools\MSVC\14.29.30133\atlmfc\include\cstringt.h

; 2432 : 		CThisSimpleString::Concatenate( strResult, str1, str1.GetLength(), &chTemp, 1 );

  00337	8d 4d f3	 lea	 ecx, DWORD PTR _chTemp$14[ebp]
  0033a	6a 01		 push	 1
  0033c	51		 push	 ecx
  0033d	c6 45 f3 2c	 mov	 BYTE PTR _chTemp$14[ebp], 44 ; 0000002cH

; 2433 : 
; 2434 : 		return( strResult );

  00341	83 cb 20	 or	 ebx, 32			; 00000020H
  00344	ff 70 f4	 push	 DWORD PTR [eax-12]
  00347	89 5d e4	 mov	 DWORD PTR $T13[ebp], ebx
  0034a	50		 push	 eax
  0034b	8d 45 d0	 lea	 eax, DWORD PTR $T7[ebp]
  0034e	50		 push	 eax
  0034f	ff 15 00 00 00
	00		 call	 DWORD PTR __imp_?Concatenate@?$CSimpleStringT@D$00@ATL@@KAXAAV12@PBDH1H@Z
  00355	83 c4 14	 add	 esp, 20			; 00000014H
; File D:\git\src\IBK\IBK_DRFN\ProjSrc\SrcChartEx\ChartOCX\GraphDraw\GraphTitleDrawer.cpp

; 343  : 				strCondition += (CDataConversion::DoubleToString(dCondition, strConditionType) + ',');

  00358	8d 45 d0	 lea	 eax, DWORD PTR $T7[ebp]
  0035b	8d 4d ec	 lea	 ecx, DWORD PTR _strCondition$[ebp]
  0035e	50		 push	 eax
  0035f	ff 15 00 00 00
	00		 call	 DWORD PTR __imp_??Y?$CStringT@DV?$StrTraitMFC_DLL@DV?$ChTraitsCRT@D@ATL@@@@@ATL@@QAEAAV01@ABV?$CSimpleStringT@D$00@1@@Z
  00365	8d 4d d0	 lea	 ecx, DWORD PTR $T7[ebp]
  00368	83 e3 df	 and	 ebx, -33		; ffffffdfH
  0036b	ff 15 00 00 00
	00		 call	 DWORD PTR __imp_??1?$CStringT@DV?$StrTraitMFC_DLL@DV?$ChTraitsCRT@D@ATL@@@@@ATL@@QAE@XZ
  00371	8d 4d c4	 lea	 ecx, DWORD PTR $T4[ebp]
$LN95@GetGraphTi:

; 323  : 		while(pos != NULL)

  00374	c6 45 fc 07	 mov	 BYTE PTR __$EHRec$[ebp+8], 7
  00378	ff 15 00 00 00
	00		 call	 DWORD PTR __imp_??1?$CStringT@DV?$StrTraitMFC_DLL@DV?$ChTraitsCRT@D@ATL@@@@@ATL@@QAE@XZ
  0037e	85 ff		 test	 edi, edi
  00380	0f 85 5a fe ff
	ff		 jne	 $LL2@GetGraphTi
$LN3@GetGraphTi:

; 344  : 		}
; 345  : 			//20100515  <<
; 346  : 	}
; 347  : 		
; 348  : 		strCondition.TrimRight(',');

  00386	6a 2c		 push	 44			; 0000002cH
  00388	8d 4d ec	 lea	 ecx, DWORD PTR _strCondition$[ebp]
  0038b	ff 15 00 00 00
	00		 call	 DWORD PTR __imp_?TrimRight@?$CStringT@DV?$StrTraitMFC_DLL@DV?$ChTraitsCRT@D@ATL@@@@@ATL@@QAEAAV12@D@Z

; 349  : 	}

  00391	8d 4d e0	 lea	 ecx, DWORD PTR _strCondType$12[ebp]
  00394	eb 3b		 jmp	 SHORT $LN96@GetGraphTi
$LN13@GetGraphTi:

; 350  : 	else
; 351  : 	{
; 352  : 		POSITION pos = pCalConditionList->FindIndex(nSubGraphIndex);

  00396	50		 push	 eax
  00397	8b cf		 mov	 ecx, edi
  00399	e8 00 00 00 00	 call	 ?FindIndex@?$CList@NN@@QBEPAU__POSITION@@H@Z ; CList<double,double>::FindIndex

; 353  : 		if(pos)

  0039e	85 c0		 test	 eax, eax
  003a0	74 39		 je	 SHORT $LN19@GetGraphTi

; 354  : 		{
; 355  : 			double dCondition = pCalConditionList->GetAt(pos);

  003a2	f2 0f 10 40 08	 movsd	 xmm0, QWORD PTR [eax+8]

; 356  : 			// 20081107 JS.Kim	8/32        
; 357  : 			// 20080908 JS.Kim	8/32  
; 358  : //			strCondition += (CDataConversion::DoubleToString(dCondition, pPacket ? pPacket->GetType() : ""));
; 359  : 			strCondition += (CDataConversion::DoubleToString(dCondition, strConditionType));

  003a7	8d 45 e8	 lea	 eax, DWORD PTR _strConditionType$[ebp]
  003aa	50		 push	 eax
  003ab	8d 45 bc	 lea	 eax, DWORD PTR _dCondition$2[ebp]
  003ae	f2 0f 11 45 bc	 movsd	 QWORD PTR _dCondition$2[ebp], xmm0
  003b3	50		 push	 eax
  003b4	8d 45 0c	 lea	 eax, DWORD PTR $T16[ebp]
  003b7	50		 push	 eax
  003b8	e8 00 00 00 00	 call	 ?DoubleToString@CDataConversion@@SA?AV?$CStringT@DV?$StrTraitMFC_DLL@DV?$ChTraitsCRT@D@ATL@@@@@ATL@@ABNABV23@@Z ; CDataConversion::DoubleToString
  003bd	83 c4 0c	 add	 esp, 12			; 0000000cH
  003c0	50		 push	 eax
  003c1	8d 4d ec	 lea	 ecx, DWORD PTR _strCondition$[ebp]
  003c4	c6 45 fc 0e	 mov	 BYTE PTR __$EHRec$[ebp+8], 14 ; 0000000eH
  003c8	ff 15 00 00 00
	00		 call	 DWORD PTR __imp_??Y?$CStringT@DV?$StrTraitMFC_DLL@DV?$ChTraitsCRT@D@ATL@@@@@ATL@@QAEAAV01@ABV?$CSimpleStringT@D$00@1@@Z
  003ce	8d 4d 0c	 lea	 ecx, DWORD PTR $T16[ebp]
$LN96@GetGraphTi:

; 360  : 		}
; 361  : 	}
; 362  : 
; 363  : 	return strCondition;

  003d1	c6 45 fc 06	 mov	 BYTE PTR __$EHRec$[ebp+8], 6
  003d5	ff 15 00 00 00
	00		 call	 DWORD PTR __imp_??1?$CStringT@DV?$StrTraitMFC_DLL@DV?$ChTraitsCRT@D@ATL@@@@@ATL@@QAE@XZ
$LN19@GetGraphTi:
  003db	8b 4d 08	 mov	 ecx, DWORD PTR ___$ReturnUdt$[ebp]
  003de	8d 45 ec	 lea	 eax, DWORD PTR _strCondition$[ebp]
  003e1	50		 push	 eax
  003e2	ff 15 00 00 00
	00		 call	 DWORD PTR __imp_??0?$CStringT@DV?$StrTraitMFC_DLL@DV?$ChTraitsCRT@D@ATL@@@@@ATL@@QAE@ABV01@@Z
  003e8	8d 4d ec	 lea	 ecx, DWORD PTR _strCondition$[ebp]
  003eb	ff 15 00 00 00
	00		 call	 DWORD PTR __imp_??1?$CStringT@DV?$StrTraitMFC_DLL@DV?$ChTraitsCRT@D@ATL@@@@@ATL@@QAE@XZ
  003f1	8d 4d e8	 lea	 ecx, DWORD PTR _strConditionType$[ebp]
  003f4	ff 15 00 00 00
	00		 call	 DWORD PTR __imp_??1?$CStringT@DV?$StrTraitMFC_DLL@DV?$ChTraitsCRT@D@ATL@@@@@ATL@@QAE@XZ
  003fa	8d 4d dc	 lea	 ecx, DWORD PTR _strIndicatorName$[ebp]
  003fd	ff 15 00 00 00
	00		 call	 DWORD PTR __imp_??1?$CStringT@DV?$StrTraitMFC_DLL@DV?$ChTraitsCRT@D@ATL@@@@@ATL@@QAE@XZ
  00403	eb 0e		 jmp	 SHORT $LN97@GetGraphTi
$LN6@GetGraphTi:

; 290  : 		return "";

  00405	8b 4d 08	 mov	 ecx, DWORD PTR ___$ReturnUdt$[ebp]
  00408	68 00 00 00 00	 push	 OFFSET ??_C@_00CNPNBAHC@@
  0040d	ff 15 00 00 00
	00		 call	 DWORD PTR __imp_??0?$CStringT@DV?$StrTraitMFC_DLL@DV?$ChTraitsCRT@D@ATL@@@@@ATL@@QAE@PBD@Z
$LN97@GetGraphTi:

; 364  : }

  00413	8b 45 08	 mov	 eax, DWORD PTR ___$ReturnUdt$[ebp]
  00416	8b 4d f4	 mov	 ecx, DWORD PTR __$EHRec$[ebp]
  00419	64 89 0d 00 00
	00 00		 mov	 DWORD PTR fs:0, ecx
  00420	59		 pop	 ecx
  00421	5f		 pop	 edi
  00422	5e		 pop	 esi
  00423	5b		 pop	 ebx
  00424	8b e5		 mov	 esp, ebp
  00426	5d		 pop	 ebp
  00427	c2 0c 00	 ret	 12			; 0000000cH
_TEXT	ENDS
;	COMDAT text$x
text$x	SEGMENT
__unwindfunclet$?GetGraphTitle_Condition@CGraphTitleDrawer@@ABE?AV?$CStringT@DV?$StrTraitMFC_DLL@DV?$ChTraitsCRT@D@ATL@@@@@ATL@@ABVCDrawingGraphData@@H@Z$1:
  00000	8d 4d dc	 lea	 ecx, DWORD PTR _strIndicatorName$[ebp]
  00003	ff 25 00 00 00
	00		 jmp	 DWORD PTR __imp_??1?$CStringT@DV?$StrTraitMFC_DLL@DV?$ChTraitsCRT@D@ATL@@@@@ATL@@QAE@XZ
__unwindfunclet$?GetGraphTitle_Condition@CGraphTitleDrawer@@ABE?AV?$CStringT@DV?$StrTraitMFC_DLL@DV?$ChTraitsCRT@D@ATL@@@@@ATL@@ABVCDrawingGraphData@@H@Z$2:
  00009	8d 4d e8	 lea	 ecx, DWORD PTR _strConditionType$[ebp]
  0000c	ff 25 00 00 00
	00		 jmp	 DWORD PTR __imp_??1?$CStringT@DV?$StrTraitMFC_DLL@DV?$ChTraitsCRT@D@ATL@@@@@ATL@@QAE@XZ
__unwindfunclet$?GetGraphTitle_Condition@CGraphTitleDrawer@@ABE?AV?$CStringT@DV?$StrTraitMFC_DLL@DV?$ChTraitsCRT@D@ATL@@@@@ATL@@ABVCDrawingGraphData@@H@Z$3:
  00012	8b 45 e4	 mov	 eax, DWORD PTR $T13[ebp]
  00015	83 e0 02	 and	 eax, 2
  00018	0f 84 0d 00 00
	00		 je	 $LN30@GetGraphTi
  0001e	83 65 e4 fd	 and	 DWORD PTR $T13[ebp], -3	; fffffffdH
  00022	8d 4d d0	 lea	 ecx, DWORD PTR $T9[ebp]
  00025	ff 25 00 00 00
	00		 jmp	 DWORD PTR __imp_??1?$CStringT@DV?$StrTraitMFC_DLL@DV?$ChTraitsCRT@D@ATL@@@@@ATL@@QAE@XZ
$LN30@GetGraphTi:
  0002b	c3		 ret	 0
__unwindfunclet$?GetGraphTitle_Condition@CGraphTitleDrawer@@ABE?AV?$CStringT@DV?$StrTraitMFC_DLL@DV?$ChTraitsCRT@D@ATL@@@@@ATL@@ABVCDrawingGraphData@@H@Z$4:
  0002c	8d 4d 0c	 lea	 ecx, DWORD PTR $T18[ebp]
  0002f	ff 25 00 00 00
	00		 jmp	 DWORD PTR __imp_??1?$CStringT@DV?$StrTraitMFC_DLL@DV?$ChTraitsCRT@D@ATL@@@@@ATL@@QAE@XZ
__unwindfunclet$?GetGraphTitle_Condition@CGraphTitleDrawer@@ABE?AV?$CStringT@DV?$StrTraitMFC_DLL@DV?$ChTraitsCRT@D@ATL@@@@@ATL@@ABVCDrawingGraphData@@H@Z$5:
  00035	8b 45 e4	 mov	 eax, DWORD PTR $T13[ebp]
  00038	83 e0 04	 and	 eax, 4
  0003b	0f 84 0d 00 00
	00		 je	 $LN34@GetGraphTi
  00041	83 65 e4 fb	 and	 DWORD PTR $T13[ebp], -5	; fffffffbH
  00045	8d 4d d0	 lea	 ecx, DWORD PTR $T8[ebp]
  00048	ff 25 00 00 00
	00		 jmp	 DWORD PTR __imp_??1?$CStringT@DV?$StrTraitMFC_DLL@DV?$ChTraitsCRT@D@ATL@@@@@ATL@@QAE@XZ
$LN34@GetGraphTi:
  0004e	c3		 ret	 0
__unwindfunclet$?GetGraphTitle_Condition@CGraphTitleDrawer@@ABE?AV?$CStringT@DV?$StrTraitMFC_DLL@DV?$ChTraitsCRT@D@ATL@@@@@ATL@@ABVCDrawingGraphData@@H@Z$6:
  0004f	8d 4d 0c	 lea	 ecx, DWORD PTR $T17[ebp]
  00052	ff 25 00 00 00
	00		 jmp	 DWORD PTR __imp_??1?$CStringT@DV?$StrTraitMFC_DLL@DV?$ChTraitsCRT@D@ATL@@@@@ATL@@QAE@XZ
__unwindfunclet$?GetGraphTitle_Condition@CGraphTitleDrawer@@ABE?AV?$CStringT@DV?$StrTraitMFC_DLL@DV?$ChTraitsCRT@D@ATL@@@@@ATL@@ABVCDrawingGraphData@@H@Z$7:
  00058	8d 4d ec	 lea	 ecx, DWORD PTR _strCondition$[ebp]
  0005b	ff 25 00 00 00
	00		 jmp	 DWORD PTR __imp_??1?$CStringT@DV?$StrTraitMFC_DLL@DV?$ChTraitsCRT@D@ATL@@@@@ATL@@QAE@XZ
__unwindfunclet$?GetGraphTitle_Condition@CGraphTitleDrawer@@ABE?AV?$CStringT@DV?$StrTraitMFC_DLL@DV?$ChTraitsCRT@D@ATL@@@@@ATL@@ABVCDrawingGraphData@@H@Z$8:
  00061	8d 4d e0	 lea	 ecx, DWORD PTR _strCondType$12[ebp]
  00064	ff 25 00 00 00
	00		 jmp	 DWORD PTR __imp_??1?$CStringT@DV?$StrTraitMFC_DLL@DV?$ChTraitsCRT@D@ATL@@@@@ATL@@QAE@XZ
__unwindfunclet$?GetGraphTitle_Condition@CGraphTitleDrawer@@ABE?AV?$CStringT@DV?$StrTraitMFC_DLL@DV?$ChTraitsCRT@D@ATL@@@@@ATL@@ABVCDrawingGraphData@@H@Z$9:
  0006a	8d 4d cc	 lea	 ecx, DWORD PTR $T6[ebp]
  0006d	ff 25 00 00 00
	00		 jmp	 DWORD PTR __imp_??1?$CStringT@DV?$StrTraitMFC_DLL@DV?$ChTraitsCRT@D@ATL@@@@@ATL@@QAE@XZ
__unwindfunclet$?GetGraphTitle_Condition@CGraphTitleDrawer@@ABE?AV?$CStringT@DV?$StrTraitMFC_DLL@DV?$ChTraitsCRT@D@ATL@@@@@ATL@@ABVCDrawingGraphData@@H@Z$16:
  00073	8b 45 e4	 mov	 eax, DWORD PTR $T13[ebp]
  00076	83 e0 08	 and	 eax, 8
  00079	0f 84 0d 00 00
	00		 je	 $LN57@GetGraphTi
  0007f	83 65 e4 f7	 and	 DWORD PTR $T13[ebp], -9	; fffffff7H
  00083	8d 4d d8	 lea	 ecx, DWORD PTR $T11[ebp]
  00086	ff 25 00 00 00
	00		 jmp	 DWORD PTR __imp_??1?$CStringT@DV?$StrTraitMFC_DLL@DV?$ChTraitsCRT@D@ATL@@@@@ATL@@QAE@XZ
$LN57@GetGraphTi:
  0008c	c3		 ret	 0
__unwindfunclet$?GetGraphTitle_Condition@CGraphTitleDrawer@@ABE?AV?$CStringT@DV?$StrTraitMFC_DLL@DV?$ChTraitsCRT@D@ATL@@@@@ATL@@ABVCDrawingGraphData@@H@Z$11:
  0008d	8d 4d c8	 lea	 ecx, DWORD PTR $T5[ebp]
  00090	ff 25 00 00 00
	00		 jmp	 DWORD PTR __imp_??1?$CStringT@DV?$StrTraitMFC_DLL@DV?$ChTraitsCRT@D@ATL@@@@@ATL@@QAE@XZ
__unwindfunclet$?GetGraphTitle_Condition@CGraphTitleDrawer@@ABE?AV?$CStringT@DV?$StrTraitMFC_DLL@DV?$ChTraitsCRT@D@ATL@@@@@ATL@@ABVCDrawingGraphData@@H@Z$17:
  00096	8b 45 e4	 mov	 eax, DWORD PTR $T13[ebp]
  00099	83 e0 10	 and	 eax, 16			; 00000010H
  0009c	0f 84 0d 00 00
	00		 je	 $LN73@GetGraphTi
  000a2	83 65 e4 ef	 and	 DWORD PTR $T13[ebp], -17 ; ffffffefH
  000a6	8d 4d d4	 lea	 ecx, DWORD PTR $T10[ebp]
  000a9	ff 25 00 00 00
	00		 jmp	 DWORD PTR __imp_??1?$CStringT@DV?$StrTraitMFC_DLL@DV?$ChTraitsCRT@D@ATL@@@@@ATL@@QAE@XZ
$LN73@GetGraphTi:
  000af	c3		 ret	 0
__unwindfunclet$?GetGraphTitle_Condition@CGraphTitleDrawer@@ABE?AV?$CStringT@DV?$StrTraitMFC_DLL@DV?$ChTraitsCRT@D@ATL@@@@@ATL@@ABVCDrawingGraphData@@H@Z$13:
  000b0	8d 4d c4	 lea	 ecx, DWORD PTR $T4[ebp]
  000b3	ff 25 00 00 00
	00		 jmp	 DWORD PTR __imp_??1?$CStringT@DV?$StrTraitMFC_DLL@DV?$ChTraitsCRT@D@ATL@@@@@ATL@@QAE@XZ
__unwindfunclet$?GetGraphTitle_Condition@CGraphTitleDrawer@@ABE?AV?$CStringT@DV?$StrTraitMFC_DLL@DV?$ChTraitsCRT@D@ATL@@@@@ATL@@ABVCDrawingGraphData@@H@Z$18:
  000b9	8b 45 e4	 mov	 eax, DWORD PTR $T13[ebp]
  000bc	83 e0 20	 and	 eax, 32			; 00000020H
  000bf	0f 84 0d 00 00
	00		 je	 $LN83@GetGraphTi
  000c5	83 65 e4 df	 and	 DWORD PTR $T13[ebp], -33 ; ffffffdfH
  000c9	8d 4d d0	 lea	 ecx, DWORD PTR $T7[ebp]
  000cc	ff 25 00 00 00
	00		 jmp	 DWORD PTR __imp_??1?$CStringT@DV?$StrTraitMFC_DLL@DV?$ChTraitsCRT@D@ATL@@@@@ATL@@QAE@XZ
$LN83@GetGraphTi:
  000d2	c3		 ret	 0
__unwindfunclet$?GetGraphTitle_Condition@CGraphTitleDrawer@@ABE?AV?$CStringT@DV?$StrTraitMFC_DLL@DV?$ChTraitsCRT@D@ATL@@@@@ATL@@ABVCDrawingGraphData@@H@Z$15:
  000d3	8d 4d 0c	 lea	 ecx, DWORD PTR $T16[ebp]
  000d6	ff 25 00 00 00
	00		 jmp	 DWORD PTR __imp_??1?$CStringT@DV?$StrTraitMFC_DLL@DV?$ChTraitsCRT@D@ATL@@@@@ATL@@QAE@XZ
  000dc	cc		 int	 3
  000dd	cc		 int	 3
  000de	cc		 int	 3
  000df	cc		 int	 3
  000e0	cc		 int	 3
__ehhandler$?GetGraphTitle_Condition@CGraphTitleDrawer@@ABE?AV?$CStringT@DV?$StrTraitMFC_DLL@DV?$ChTraitsCRT@D@ATL@@@@@ATL@@ABVCDrawingGraphData@@H@Z:
  000e1	90		 npad	 1
  000e2	90		 npad	 1
  000e3	8b 54 24 08	 mov	 edx, DWORD PTR [esp+8]
  000e7	8d 42 0c	 lea	 eax, DWORD PTR [edx+12]
  000ea	8b 4a b8	 mov	 ecx, DWORD PTR [edx-72]
  000ed	33 c8		 xor	 ecx, eax
  000ef	e8 00 00 00 00	 call	 @__security_check_cookie@4
  000f4	b8 00 00 00 00	 mov	 eax, OFFSET __ehfuncinfo$?GetGraphTitle_Condition@CGraphTitleDrawer@@ABE?AV?$CStringT@DV?$StrTraitMFC_DLL@DV?$ChTraitsCRT@D@ATL@@@@@ATL@@ABVCDrawingGraphData@@H@Z
  000f9	e9 00 00 00 00	 jmp	 ___CxxFrameHandler3
text$x	ENDS
?GetGraphTitle_Condition@CGraphTitleDrawer@@ABE?AV?$CStringT@DV?$StrTraitMFC_DLL@DV?$ChTraitsCRT@D@ATL@@@@@ATL@@ABVCDrawingGraphData@@H@Z ENDP ; CGraphTitleDrawer::GetGraphTitle_Condition
; Function compile flags: /Ogtp
; File D:\git\src\IBK\IBK_DRFN\ProjSrc\SrcChartEx\ChartOCX\GraphDraw\GraphTitleDrawer.cpp
; File C:\Program Files (x86)\Microsoft Visual Studio\2019\Community\VC\Tools\MSVC\14.29.30133\atlmfc\include\atlsimpstr.h
; File D:\git\src\IBK\IBK_DRFN\ProjSrc\SrcChartEx\ChartOCX\GraphDraw\GraphTitleDrawer.cpp
; File C:\Program Files (x86)\Microsoft Visual Studio\2019\Community\VC\Tools\MSVC\14.29.30133\atlmfc\include\afxtempl.h
; File D:\git\src\IBK\IBK_DRFN\ProjSrc\SrcChartEx\ChartOCX\GraphDraw\GraphTitleDrawer.cpp
; File C:\Program Files (x86)\Microsoft Visual Studio\2019\Community\VC\Tools\MSVC\14.29.30133\atlmfc\include\afxtempl.h
; File D:\git\src\IBK\IBK_DRFN\ProjSrc\SrcChartEx\ChartOCX\GraphDraw\GraphTitleDrawer.cpp
; File C:\Program Files (x86)\Microsoft Visual Studio\2019\Community\VC\Tools\MSVC\14.29.30133\atlmfc\include\atlsimpstr.h
; File D:\git\src\IBK\IBK_DRFN\ProjSrc\SrcChartEx\ChartOCX\GraphDraw\GraphTitleDrawer.cpp
; File C:\Program Files (x86)\Microsoft Visual Studio\2019\Community\VC\Tools\MSVC\14.29.30133\atlmfc\include\atlsimpstr.h
; File D:\git\src\IBK\IBK_DRFN\ProjSrc\SrcChartEx\ChartOCX\GraphDraw\GraphTitleDrawer.cpp
; File C:\Program Files (x86)\Microsoft Visual Studio\2019\Community\VC\Tools\MSVC\14.29.30133\atlmfc\include\atlsimpstr.h
; File D:\git\src\IBK\IBK_DRFN\ProjSrc\SrcChartEx\ChartOCX\GraphDraw\GraphTitleDrawer.cpp
; File C:\Program Files (x86)\Microsoft Visual Studio\2019\Community\VC\Tools\MSVC\14.29.30133\atlmfc\include\cstringt.h
; File D:\git\src\IBK\IBK_DRFN\ProjSrc\SrcChartEx\ChartOCX\GraphDraw\GraphTitleDrawer.cpp
; File C:\Program Files (x86)\Microsoft Visual Studio\2019\Community\VC\Tools\MSVC\14.29.30133\atlmfc\include\cstringt.h
; File C:\Program Files (x86)\Microsoft Visual Studio\2019\Community\VC\Tools\MSVC\14.29.30133\atlmfc\include\atlsimpstr.h
; File C:\Program Files (x86)\Microsoft Visual Studio\2019\Community\VC\Tools\MSVC\14.29.30133\atlmfc\include\cstringt.h
; File D:\git\src\IBK\IBK_DRFN\ProjSrc\SrcChartEx\ChartOCX\GraphDraw\GraphTitleDrawer.cpp
; File C:\Program Files (x86)\Microsoft Visual Studio\2019\Community\VC\Tools\MSVC\14.29.30133\atlmfc\include\afxtempl.h
; File D:\git\src\IBK\IBK_DRFN\ProjSrc\SrcChartEx\ChartOCX\GraphDraw\GraphTitleDrawer.cpp
;	COMDAT ?GetGraphTitle@CGraphTitleDrawer@@ABE?AV?$CStringT@DV?$StrTraitMFC_DLL@DV?$ChTraitsCRT@D@ATL@@@@@ATL@@ABVCDrawingGraphData@@ABV23@HH@Z
_TEXT	SEGMENT
$T2 = -24						; size = 4
_this$1$ = -20						; size = 4
_strCondition$ = -16					; size = 4
__$EHRec$ = -12						; size = 12
___$ReturnUdt$ = 8					; size = 4
$T3 = 12						; size = 4
$T4 = 12						; size = 4
$T5 = 12						; size = 4
$T6 = 12						; size = 4
_drawingGraphData$ = 12					; size = 4
_strData$ = 16						; size = 4
_strGraphTitle$ = 16					; size = 4
$T7 = 20						; size = 4
$T8 = 20						; size = 4
_nIndex$ = 20						; size = 4
tv522 = 24						; size = 4
$T9 = 24						; size = 4
_nSubGraphIndex$ = 24					; size = 4
?GetGraphTitle@CGraphTitleDrawer@@ABE?AV?$CStringT@DV?$StrTraitMFC_DLL@DV?$ChTraitsCRT@D@ATL@@@@@ATL@@ABVCDrawingGraphData@@ABV23@HH@Z PROC ; CGraphTitleDrawer::GetGraphTitle, COMDAT
; _this$ = ecx

; 251  : {

  00000	55		 push	 ebp
  00001	8b ec		 mov	 ebp, esp
  00003	6a ff		 push	 -1
  00005	68 00 00 00 00	 push	 __ehhandler$?GetGraphTitle@CGraphTitleDrawer@@ABE?AV?$CStringT@DV?$StrTraitMFC_DLL@DV?$ChTraitsCRT@D@ATL@@@@@ATL@@ABVCDrawingGraphData@@ABV23@HH@Z
  0000a	64 a1 00 00 00
	00		 mov	 eax, DWORD PTR fs:0
  00010	50		 push	 eax
  00011	83 ec 0c	 sub	 esp, 12			; 0000000cH
  00014	53		 push	 ebx
  00015	56		 push	 esi
  00016	57		 push	 edi
  00017	a1 00 00 00 00	 mov	 eax, DWORD PTR ___security_cookie
  0001c	33 c5		 xor	 eax, ebp
  0001e	50		 push	 eax
  0001f	8d 45 f4	 lea	 eax, DWORD PTR __$EHRec$[ebp]
  00022	64 a3 00 00 00
	00		 mov	 DWORD PTR fs:0, eax
  00028	89 4d ec	 mov	 DWORD PTR _this$1$[ebp], ecx
  0002b	33 f6		 xor	 esi, esi
  0002d	89 75 e8	 mov	 DWORD PTR $T2[ebp], esi
; File C:\Program Files (x86)\Microsoft Visual Studio\2019\Community\VC\Tools\MSVC\14.29.30133\atlmfc\include\atlsimpstr.h

; 519  : 		return( GetData()->nDataLength );

  00030	8b 5d 10	 mov	 ebx, DWORD PTR _strGraphTitle$[ebp]
  00033	8b 03		 mov	 eax, DWORD PTR [ebx]

; 533  : 		return( GetLength() == 0 );

  00035	39 70 f4	 cmp	 DWORD PTR [eax-12], esi
; File D:\git\src\IBK\IBK_DRFN\ProjSrc\SrcChartEx\ChartOCX\GraphDraw\GraphTitleDrawer.cpp

; 252  : 	if(strGraphTitle.IsEmpty())

  00038	75 25		 jne	 SHORT $LN2@GetGraphTi

; 253  : 		return "";

  0003a	8b 4d 08	 mov	 ecx, DWORD PTR ___$ReturnUdt$[ebp]
  0003d	68 00 00 00 00	 push	 OFFSET ??_C@_00CNPNBAHC@@
  00042	ff 15 00 00 00
	00		 call	 DWORD PTR __imp_??0?$CStringT@DV?$StrTraitMFC_DLL@DV?$ChTraitsCRT@D@ATL@@@@@ATL@@QAE@PBD@Z
  00048	8b 45 08	 mov	 eax, DWORD PTR ___$ReturnUdt$[ebp]

; 274  : }

  0004b	8b 4d f4	 mov	 ecx, DWORD PTR __$EHRec$[ebp]
  0004e	64 89 0d 00 00
	00 00		 mov	 DWORD PTR fs:0, ecx
  00055	59		 pop	 ecx
  00056	5f		 pop	 edi
  00057	5e		 pop	 esi
  00058	5b		 pop	 ebx
  00059	8b e5		 mov	 esp, ebp
  0005b	5d		 pop	 ebp
  0005c	c2 14 00	 ret	 20			; 00000014H
$LN2@GetGraphTi:

; 254  : 
; 255  : 	// cal condition .
; 256  : 	CString strCondition;

  0005f	8d 4d f0	 lea	 ecx, DWORD PTR _strCondition$[ebp]
  00062	ff 15 00 00 00
	00		 call	 DWORD PTR __imp_??0?$CStringT@DV?$StrTraitMFC_DLL@DV?$ChTraitsCRT@D@ATL@@@@@ATL@@QAE@XZ

; 257  : 	//     - ojtaso (20071116)
; 258  : 	if(drawingGraphData.DoesConditionTitleDraw())

  00068	8b 7d 0c	 mov	 edi, DWORD PTR _drawingGraphData$[ebp]
  0006b	8b cf		 mov	 ecx, edi
  0006d	c7 45 fc 00 00
	00 00		 mov	 DWORD PTR __$EHRec$[ebp+8], 0
  00074	e8 00 00 00 00	 call	 ?DoesConditionTitleDraw@CDrawingGraphData@@QBE_NXZ ; CDrawingGraphData::DoesConditionTitleDraw
  00079	84 c0		 test	 al, al
  0007b	74 27		 je	 SHORT $LN3@GetGraphTi

; 259  : 		// 20080908 	8/32  
; 260  : 		//strCondition = GetGraphTitle_Condition(drawingGraphData.GetIndicatorInfo(), nSubGraphIndex);
; 261  : 		strCondition = GetGraphTitle_Condition(drawingGraphData, nSubGraphIndex);

  0007d	ff 75 18	 push	 DWORD PTR _nSubGraphIndex$[ebp]
  00080	8b 4d ec	 mov	 ecx, DWORD PTR _this$1$[ebp]
  00083	8d 45 0c	 lea	 eax, DWORD PTR $T6[ebp]
  00086	57		 push	 edi
  00087	50		 push	 eax
  00088	e8 00 00 00 00	 call	 ?GetGraphTitle_Condition@CGraphTitleDrawer@@ABE?AV?$CStringT@DV?$StrTraitMFC_DLL@DV?$ChTraitsCRT@D@ATL@@@@@ATL@@ABVCDrawingGraphData@@H@Z ; CGraphTitleDrawer::GetGraphTitle_Condition
  0008d	50		 push	 eax
  0008e	8d 4d f0	 lea	 ecx, DWORD PTR _strCondition$[ebp]
  00091	c6 45 fc 01	 mov	 BYTE PTR __$EHRec$[ebp+8], 1
  00095	ff 15 00 00 00
	00		 call	 DWORD PTR __imp_??4?$CStringT@DV?$StrTraitMFC_DLL@DV?$ChTraitsCRT@D@ATL@@@@@ATL@@QAEAAV01@ABV01@@Z
  0009b	8d 4d 0c	 lea	 ecx, DWORD PTR $T6[ebp]
  0009e	ff 15 00 00 00
	00		 call	 DWORD PTR __imp_??1?$CStringT@DV?$StrTraitMFC_DLL@DV?$ChTraitsCRT@D@ATL@@@@@ATL@@QAE@XZ
$LN3@GetGraphTi:

; 262  : 
; 263  : 	//  price .
; 264  : 	CString strData;

  000a4	8d 4d 10	 lea	 ecx, DWORD PTR _strData$[ebp]
  000a7	ff 15 00 00 00
	00		 call	 DWORD PTR __imp_??0?$CStringT@DV?$StrTraitMFC_DLL@DV?$ChTraitsCRT@D@ATL@@@@@ATL@@QAE@XZ

; 265  : 	if(drawingGraphData.DoesDataTitleDraw())

  000ad	8b cf		 mov	 ecx, edi
  000af	c6 45 fc 02	 mov	 BYTE PTR __$EHRec$[ebp+8], 2
  000b3	e8 00 00 00 00	 call	 ?DoesDataTitleDraw@CDrawingGraphData@@QBE_NXZ ; CDrawingGraphData::DoesDataTitleDraw
  000b8	84 c0		 test	 al, al
  000ba	0f 84 a4 00 00
	00		 je	 $LN4@GetGraphTi

; 368  : 	CPacket* pPacket = GetPacket(drawingGraphData, nIndex);

  000c0	ff 75 14	 push	 DWORD PTR _nIndex$[ebp]
  000c3	8b 4d ec	 mov	 ecx, DWORD PTR _this$1$[ebp]
  000c6	57		 push	 edi
  000c7	e8 00 00 00 00	 call	 ?GetPacket@CGraphTitleDrawer@@ABEPAVCPacket@@ABVCDrawingGraphData@@H@Z ; CGraphTitleDrawer::GetPacket
  000cc	8b f0		 mov	 esi, eax

; 369  : 	if(pPacket == NULL || pPacket->GetnumericDataList() == NULL || pPacket->GetDataCount() <= 0)

  000ce	85 f6		 test	 esi, esi
  000d0	74 61		 je	 SHORT $LN26@GetGraphTi
  000d2	8b 3d 00 00 00
	00		 mov	 edi, DWORD PTR __imp_?GetnumericDataList@CPacket@@QAEPAV?$CList@NN@@XZ
  000d8	8b ce		 mov	 ecx, esi
  000da	ff d7		 call	 edi
  000dc	85 c0		 test	 eax, eax
  000de	74 53		 je	 SHORT $LN26@GetGraphTi
  000e0	8b ce		 mov	 ecx, esi
  000e2	ff 15 00 00 00
	00		 call	 DWORD PTR __imp_?GetDataCount@CPacket@@QAEHXZ
  000e8	85 c0		 test	 eax, eax
  000ea	7e 47		 jle	 SHORT $LN26@GetGraphTi

; 374  : 	return CDataConversion::GetStringThousandFormat(pPacket->GetnumericDataList()->GetTail(), pPacket->GetType(false));

  000ec	6a 00		 push	 0
  000ee	8d 45 14	 lea	 eax, DWORD PTR $T7[ebp]
  000f1	8b ce		 mov	 ecx, esi
  000f3	50		 push	 eax
  000f4	ff 15 00 00 00
	00		 call	 DWORD PTR __imp_?GetType@CPacket@@QAE?AV?$CStringT@DV?$StrTraitMFC_DLL@DV?$ChTraitsCRT@D@ATL@@@@@ATL@@_N@Z
  000fa	89 45 18	 mov	 DWORD PTR tv522[ebp], eax
  000fd	8b ce		 mov	 ecx, esi
  000ff	c6 45 fc 03	 mov	 BYTE PTR __$EHRec$[ebp+8], 3
  00103	ff d7		 call	 edi
; File C:\Program Files (x86)\Microsoft Visual Studio\2019\Community\VC\Tools\MSVC\14.29.30133\atlmfc\include\afxtempl.h

; 797  : 	{ ENSURE(m_pNodeTail != NULL);

  00105	8b 40 08	 mov	 eax, DWORD PTR [eax+8]
  00108	85 c0		 test	 eax, eax
  0010a	0f 84 7b 01 00
	00		 je	 $LN122@GetGraphTi
; File D:\git\src\IBK\IBK_DRFN\ProjSrc\SrcChartEx\ChartOCX\GraphDraw\GraphTitleDrawer.cpp

; 374  : 	return CDataConversion::GetStringThousandFormat(pPacket->GetnumericDataList()->GetTail(), pPacket->GetType(false));

  00110	ff 75 18	 push	 DWORD PTR tv522[ebp]
; File C:\Program Files (x86)\Microsoft Visual Studio\2019\Community\VC\Tools\MSVC\14.29.30133\atlmfc\include\afxtempl.h

; 798  : 		return m_pNodeTail->data; }

  00113	83 c0 08	 add	 eax, 8
; File D:\git\src\IBK\IBK_DRFN\ProjSrc\SrcChartEx\ChartOCX\GraphDraw\GraphTitleDrawer.cpp

; 374  : 	return CDataConversion::GetStringThousandFormat(pPacket->GetnumericDataList()->GetTail(), pPacket->GetType(false));

  00116	50		 push	 eax
  00117	8d 45 0c	 lea	 eax, DWORD PTR $T5[ebp]
  0011a	50		 push	 eax
  0011b	e8 00 00 00 00	 call	 ?GetStringThousandFormat@CDataConversion@@SA?AV?$CStringT@DV?$StrTraitMFC_DLL@DV?$ChTraitsCRT@D@ATL@@@@@ATL@@ABNABV23@@Z ; CDataConversion::GetStringThousandFormat
  00120	83 c4 0c	 add	 esp, 12			; 0000000cH
  00123	8d 4d 14	 lea	 ecx, DWORD PTR $T7[ebp]
  00126	be 02 00 00 00	 mov	 esi, 2
  0012b	ff 15 00 00 00
	00		 call	 DWORD PTR __imp_??1?$CStringT@DV?$StrTraitMFC_DLL@DV?$ChTraitsCRT@D@ATL@@@@@ATL@@QAE@XZ
  00131	eb 13		 jmp	 SHORT $LN24@GetGraphTi
$LN26@GetGraphTi:

; 370  : 		return "";

  00133	68 00 00 00 00	 push	 OFFSET ??_C@_00CNPNBAHC@@
  00138	8d 4d 0c	 lea	 ecx, DWORD PTR $T5[ebp]
  0013b	ff 15 00 00 00
	00		 call	 DWORD PTR __imp_??0?$CStringT@DV?$StrTraitMFC_DLL@DV?$ChTraitsCRT@D@ATL@@@@@ATL@@QAE@PBD@Z
  00141	be 02 00 00 00	 mov	 esi, 2
$LN24@GetGraphTi:

; 266  : 		strData = GetGraphTitle_Price(drawingGraphData, nIndex);

  00146	8d 45 0c	 lea	 eax, DWORD PTR $T5[ebp]
  00149	c6 45 fc 04	 mov	 BYTE PTR __$EHRec$[ebp+8], 4
  0014d	50		 push	 eax
  0014e	8d 4d 10	 lea	 ecx, DWORD PTR _strData$[ebp]
  00151	ff 15 00 00 00
	00		 call	 DWORD PTR __imp_??4?$CStringT@DV?$StrTraitMFC_DLL@DV?$ChTraitsCRT@D@ATL@@@@@ATL@@QAEAAV01@ABV01@@Z
  00157	8d 4d 0c	 lea	 ecx, DWORD PTR $T5[ebp]
  0015a	c6 45 fc 02	 mov	 BYTE PTR __$EHRec$[ebp+8], 2
  0015e	ff 15 00 00 00
	00		 call	 DWORD PTR __imp_??1?$CStringT@DV?$StrTraitMFC_DLL@DV?$ChTraitsCRT@D@ATL@@@@@ATL@@QAE@XZ
$LN4@GetGraphTi:
; File C:\Program Files (x86)\Microsoft Visual Studio\2019\Community\VC\Tools\MSVC\14.29.30133\atlmfc\include\atlsimpstr.h

; 519  : 		return( GetData()->nDataLength );

  00164	8b 45 f0	 mov	 eax, DWORD PTR _strCondition$[ebp]

; 533  : 		return( GetLength() == 0 );

  00167	83 78 f4 00	 cmp	 DWORD PTR [eax-12], 0
; File D:\git\src\IBK\IBK_DRFN\ProjSrc\SrcChartEx\ChartOCX\GraphDraw\GraphTitleDrawer.cpp

; 268  : 	if(strCondition.IsEmpty() && strData.IsEmpty())

  0016b	8b 45 10	 mov	 eax, DWORD PTR _strData$[ebp]
  0016e	75 3d		 jne	 SHORT $LN118@GetGraphTi
; File C:\Program Files (x86)\Microsoft Visual Studio\2019\Community\VC\Tools\MSVC\14.29.30133\atlmfc\include\atlsimpstr.h

; 533  : 		return( GetLength() == 0 );

  00170	83 78 f4 00	 cmp	 DWORD PTR [eax-12], 0
; File D:\git\src\IBK\IBK_DRFN\ProjSrc\SrcChartEx\ChartOCX\GraphDraw\GraphTitleDrawer.cpp

; 268  : 	if(strCondition.IsEmpty() && strData.IsEmpty())

  00174	0f 85 8b 00 00
	00		 jne	 $LN6@GetGraphTi

; 269  : 		return strGraphTitle;

  0017a	8b 4d 08	 mov	 ecx, DWORD PTR ___$ReturnUdt$[ebp]
  0017d	53		 push	 ebx
  0017e	ff 15 00 00 00
	00		 call	 DWORD PTR __imp_??0?$CStringT@DV?$StrTraitMFC_DLL@DV?$ChTraitsCRT@D@ATL@@@@@ATL@@QAE@ABV01@@Z
  00184	8d 4d 10	 lea	 ecx, DWORD PTR _strData$[ebp]
  00187	ff 15 00 00 00
	00		 call	 DWORD PTR __imp_??1?$CStringT@DV?$StrTraitMFC_DLL@DV?$ChTraitsCRT@D@ATL@@@@@ATL@@QAE@XZ
  0018d	8d 4d f0	 lea	 ecx, DWORD PTR _strCondition$[ebp]
  00190	ff 15 00 00 00
	00		 call	 DWORD PTR __imp_??1?$CStringT@DV?$StrTraitMFC_DLL@DV?$ChTraitsCRT@D@ATL@@@@@ATL@@QAE@XZ
  00196	8b 45 08	 mov	 eax, DWORD PTR ___$ReturnUdt$[ebp]

; 274  : }

  00199	8b 4d f4	 mov	 ecx, DWORD PTR __$EHRec$[ebp]
  0019c	64 89 0d 00 00
	00 00		 mov	 DWORD PTR fs:0, ecx
  001a3	59		 pop	 ecx
  001a4	5f		 pop	 edi
  001a5	5e		 pop	 esi
  001a6	5b		 pop	 ebx
  001a7	8b e5		 mov	 esp, ebp
  001a9	5d		 pop	 ebp
  001aa	c2 14 00	 ret	 20			; 00000014H
$LN118@GetGraphTi:
; File C:\Program Files (x86)\Microsoft Visual Studio\2019\Community\VC\Tools\MSVC\14.29.30133\atlmfc\include\atlsimpstr.h

; 533  : 		return( GetLength() == 0 );

  001ad	83 78 f4 00	 cmp	 DWORD PTR [eax-12], 0
; File D:\git\src\IBK\IBK_DRFN\ProjSrc\SrcChartEx\ChartOCX\GraphDraw\GraphTitleDrawer.cpp

; 270  : 	if(!strCondition.IsEmpty() && !strData.IsEmpty())

  001b1	74 52		 je	 SHORT $LN6@GetGraphTi
; File C:\Program Files (x86)\Microsoft Visual Studio\2019\Community\VC\Tools\MSVC\14.29.30133\atlmfc\include\cstringt.h

; 2412 : 		CStringT strResult( str2.GetManager() );

  001b3	8d 4d 10	 lea	 ecx, DWORD PTR _strData$[ebp]
; File D:\git\src\IBK\IBK_DRFN\ProjSrc\SrcChartEx\ChartOCX\GraphDraw\GraphTitleDrawer.cpp

; 271  : 		strData = ")(" + strData;

  001b6	c6 45 fc 05	 mov	 BYTE PTR __$EHRec$[ebp+8], 5
; File C:\Program Files (x86)\Microsoft Visual Studio\2019\Community\VC\Tools\MSVC\14.29.30133\atlmfc\include\cstringt.h

; 2412 : 		CStringT strResult( str2.GetManager() );

  001ba	ff 15 00 00 00
	00		 call	 DWORD PTR __imp_?GetManager@?$CStringT@DV?$StrTraitMFC_DLL@DV?$ChTraitsCRT@D@ATL@@@@@ATL@@QBEPAUIAtlStringMgr@2@XZ
  001c0	50		 push	 eax
  001c1	8d 4d 0c	 lea	 ecx, DWORD PTR $T4[ebp]
  001c4	ff 15 00 00 00
	00		 call	 DWORD PTR __imp_??0?$CStringT@DV?$StrTraitMFC_DLL@DV?$ChTraitsCRT@D@ATL@@@@@ATL@@QAE@PAUIAtlStringMgr@1@@Z
; File C:\Program Files (x86)\Microsoft Visual Studio\2019\Community\VC\Tools\MSVC\14.29.30133\atlmfc\include\atlsimpstr.h

; 519  : 		return( GetData()->nDataLength );

  001ca	8b 45 10	 mov	 eax, DWORD PTR _strData$[ebp]
; File C:\Program Files (x86)\Microsoft Visual Studio\2019\Community\VC\Tools\MSVC\14.29.30133\atlmfc\include\cstringt.h

; 2416 : 		return( strResult );

  001cd	83 ce 04	 or	 esi, 4
  001d0	89 75 e8	 mov	 DWORD PTR $T2[ebp], esi
  001d3	ff 70 f4	 push	 DWORD PTR [eax-12]
  001d6	50		 push	 eax
  001d7	6a 02		 push	 2
  001d9	8d 45 0c	 lea	 eax, DWORD PTR $T4[ebp]
  001dc	68 00 00 00 00	 push	 OFFSET ??_C@_02GKHPPFCI@?$CJ?$CI@
  001e1	50		 push	 eax
  001e2	ff 15 00 00 00
	00		 call	 DWORD PTR __imp_?Concatenate@?$CSimpleStringT@D$00@ATL@@KAXAAV12@PBDH1H@Z
  001e8	83 c4 14	 add	 esp, 20			; 00000014H
; File D:\git\src\IBK\IBK_DRFN\ProjSrc\SrcChartEx\ChartOCX\GraphDraw\GraphTitleDrawer.cpp

; 271  : 		strData = ")(" + strData;

  001eb	8d 45 0c	 lea	 eax, DWORD PTR $T4[ebp]
  001ee	8d 4d 10	 lea	 ecx, DWORD PTR _strData$[ebp]
  001f1	50		 push	 eax
  001f2	ff 15 00 00 00
	00		 call	 DWORD PTR __imp_??4?$CStringT@DV?$StrTraitMFC_DLL@DV?$ChTraitsCRT@D@ATL@@@@@ATL@@QAEAAV01@ABV01@@Z
  001f8	8d 4d 0c	 lea	 ecx, DWORD PTR $T4[ebp]
  001fb	c6 45 fc 02	 mov	 BYTE PTR __$EHRec$[ebp+8], 2
  001ff	ff 15 00 00 00
	00		 call	 DWORD PTR __imp_??1?$CStringT@DV?$StrTraitMFC_DLL@DV?$ChTraitsCRT@D@ATL@@@@@ATL@@QAE@XZ
$LN6@GetGraphTi:

; 272  : 
; 273  : 	return (strGraphTitle + '(' + strCondition + strData + ')');

  00205	6a 28		 push	 40			; 00000028H
  00207	8d 45 14	 lea	 eax, DWORD PTR $T8[ebp]
  0020a	53		 push	 ebx
  0020b	50		 push	 eax
  0020c	e8 00 00 00 00	 call	 ??HATL@@YA?AV?$CStringT@DV?$StrTraitMFC_DLL@DV?$ChTraitsCRT@D@ATL@@@@@0@ABV10@D@Z ; ATL::operator+
  00211	8d 4d f0	 lea	 ecx, DWORD PTR _strCondition$[ebp]
  00214	c6 45 fc 06	 mov	 BYTE PTR __$EHRec$[ebp+8], 6
  00218	51		 push	 ecx
  00219	50		 push	 eax
  0021a	8d 45 18	 lea	 eax, DWORD PTR $T9[ebp]
  0021d	50		 push	 eax
  0021e	e8 00 00 00 00	 call	 ??HATL@@YA?AV?$CStringT@DV?$StrTraitMFC_DLL@DV?$ChTraitsCRT@D@ATL@@@@@0@ABV10@0@Z ; ATL::operator+
  00223	8d 4d 10	 lea	 ecx, DWORD PTR _strData$[ebp]
  00226	c6 45 fc 07	 mov	 BYTE PTR __$EHRec$[ebp+8], 7
  0022a	51		 push	 ecx
  0022b	50		 push	 eax
  0022c	8d 45 0c	 lea	 eax, DWORD PTR $T3[ebp]
  0022f	50		 push	 eax
  00230	e8 00 00 00 00	 call	 ??HATL@@YA?AV?$CStringT@DV?$StrTraitMFC_DLL@DV?$ChTraitsCRT@D@ATL@@@@@0@ABV10@0@Z ; ATL::operator+
  00235	8b 75 08	 mov	 esi, DWORD PTR ___$ReturnUdt$[ebp]
  00238	6a 29		 push	 41			; 00000029H
  0023a	50		 push	 eax
  0023b	56		 push	 esi
  0023c	c6 45 fc 08	 mov	 BYTE PTR __$EHRec$[ebp+8], 8
  00240	e8 00 00 00 00	 call	 ??HATL@@YA?AV?$CStringT@DV?$StrTraitMFC_DLL@DV?$ChTraitsCRT@D@ATL@@@@@0@ABV10@D@Z ; ATL::operator+
  00245	83 c4 30	 add	 esp, 48			; 00000030H
  00248	8d 4d 0c	 lea	 ecx, DWORD PTR $T3[ebp]
  0024b	ff 15 00 00 00
	00		 call	 DWORD PTR __imp_??1?$CStringT@DV?$StrTraitMFC_DLL@DV?$ChTraitsCRT@D@ATL@@@@@ATL@@QAE@XZ
  00251	8d 4d 18	 lea	 ecx, DWORD PTR $T9[ebp]
  00254	ff 15 00 00 00
	00		 call	 DWORD PTR __imp_??1?$CStringT@DV?$StrTraitMFC_DLL@DV?$ChTraitsCRT@D@ATL@@@@@ATL@@QAE@XZ
  0025a	8d 4d 14	 lea	 ecx, DWORD PTR $T8[ebp]
  0025d	ff 15 00 00 00
	00		 call	 DWORD PTR __imp_??1?$CStringT@DV?$StrTraitMFC_DLL@DV?$ChTraitsCRT@D@ATL@@@@@ATL@@QAE@XZ
  00263	8d 4d 10	 lea	 ecx, DWORD PTR _strData$[ebp]
  00266	ff 15 00 00 00
	00		 call	 DWORD PTR __imp_??1?$CStringT@DV?$StrTraitMFC_DLL@DV?$ChTraitsCRT@D@ATL@@@@@ATL@@QAE@XZ
  0026c	8d 4d f0	 lea	 ecx, DWORD PTR _strCondition$[ebp]
  0026f	ff 15 00 00 00
	00		 call	 DWORD PTR __imp_??1?$CStringT@DV?$StrTraitMFC_DLL@DV?$ChTraitsCRT@D@ATL@@@@@ATL@@QAE@XZ
  00275	8b c6		 mov	 eax, esi

; 274  : }

  00277	8b 4d f4	 mov	 ecx, DWORD PTR __$EHRec$[ebp]
  0027a	64 89 0d 00 00
	00 00		 mov	 DWORD PTR fs:0, ecx
  00281	59		 pop	 ecx
  00282	5f		 pop	 edi
  00283	5e		 pop	 esi
  00284	5b		 pop	 ebx
  00285	8b e5		 mov	 esp, ebp
  00287	5d		 pop	 ebp
  00288	c2 14 00	 ret	 20			; 00000014H
$LN122@GetGraphTi:
; File C:\Program Files (x86)\Microsoft Visual Studio\2019\Community\VC\Tools\MSVC\14.29.30133\atlmfc\include\afxtempl.h

; 797  : 	{ ENSURE(m_pNodeTail != NULL);

  0028b	e8 00 00 00 00	 call	 ?AfxThrowInvalidArgException@@YGXXZ ; AfxThrowInvalidArgException
$LN120@GetGraphTi:
  00290	cc		 int	 3
_TEXT	ENDS
;	COMDAT text$x
text$x	SEGMENT
__unwindfunclet$?GetGraphTitle@CGraphTitleDrawer@@ABE?AV?$CStringT@DV?$StrTraitMFC_DLL@DV?$ChTraitsCRT@D@ATL@@@@@ATL@@ABVCDrawingGraphData@@ABV23@HH@Z$1:
  00000	8d 4d f0	 lea	 ecx, DWORD PTR _strCondition$[ebp]
  00003	ff 25 00 00 00
	00		 jmp	 DWORD PTR __imp_??1?$CStringT@DV?$StrTraitMFC_DLL@DV?$ChTraitsCRT@D@ATL@@@@@ATL@@QAE@XZ
__unwindfunclet$?GetGraphTitle@CGraphTitleDrawer@@ABE?AV?$CStringT@DV?$StrTraitMFC_DLL@DV?$ChTraitsCRT@D@ATL@@@@@ATL@@ABVCDrawingGraphData@@ABV23@HH@Z$2:
  00009	8d 4d 0c	 lea	 ecx, DWORD PTR $T6[ebp]
  0000c	ff 25 00 00 00
	00		 jmp	 DWORD PTR __imp_??1?$CStringT@DV?$StrTraitMFC_DLL@DV?$ChTraitsCRT@D@ATL@@@@@ATL@@QAE@XZ
__unwindfunclet$?GetGraphTitle@CGraphTitleDrawer@@ABE?AV?$CStringT@DV?$StrTraitMFC_DLL@DV?$ChTraitsCRT@D@ATL@@@@@ATL@@ABVCDrawingGraphData@@ABV23@HH@Z$3:
  00012	8d 4d 10	 lea	 ecx, DWORD PTR _strData$[ebp]
  00015	ff 25 00 00 00
	00		 jmp	 DWORD PTR __imp_??1?$CStringT@DV?$StrTraitMFC_DLL@DV?$ChTraitsCRT@D@ATL@@@@@ATL@@QAE@XZ
__unwindfunclet$?GetGraphTitle@CGraphTitleDrawer@@ABE?AV?$CStringT@DV?$StrTraitMFC_DLL@DV?$ChTraitsCRT@D@ATL@@@@@ATL@@ABVCDrawingGraphData@@ABV23@HH@Z$10:
  0001b	8d 4d 14	 lea	 ecx, DWORD PTR $T7[ebp]
  0001e	ff 25 00 00 00
	00		 jmp	 DWORD PTR __imp_??1?$CStringT@DV?$StrTraitMFC_DLL@DV?$ChTraitsCRT@D@ATL@@@@@ATL@@QAE@XZ
__unwindfunclet$?GetGraphTitle@CGraphTitleDrawer@@ABE?AV?$CStringT@DV?$StrTraitMFC_DLL@DV?$ChTraitsCRT@D@ATL@@@@@ATL@@ABVCDrawingGraphData@@ABV23@HH@Z$4:
  00024	8d 4d 0c	 lea	 ecx, DWORD PTR $T5[ebp]
  00027	ff 25 00 00 00
	00		 jmp	 DWORD PTR __imp_??1?$CStringT@DV?$StrTraitMFC_DLL@DV?$ChTraitsCRT@D@ATL@@@@@ATL@@QAE@XZ
__unwindfunclet$?GetGraphTitle@CGraphTitleDrawer@@ABE?AV?$CStringT@DV?$StrTraitMFC_DLL@DV?$ChTraitsCRT@D@ATL@@@@@ATL@@ABVCDrawingGraphData@@ABV23@HH@Z$11:
  0002d	8b 45 e8	 mov	 eax, DWORD PTR $T2[ebp]
  00030	83 e0 04	 and	 eax, 4
  00033	0f 84 0d 00 00
	00		 je	 $LN66@GetGraphTi
  00039	83 65 e8 fb	 and	 DWORD PTR $T2[ebp], -5	; fffffffbH
  0003d	8d 4d 0c	 lea	 ecx, DWORD PTR $T4[ebp]
  00040	ff 25 00 00 00
	00		 jmp	 DWORD PTR __imp_??1?$CStringT@DV?$StrTraitMFC_DLL@DV?$ChTraitsCRT@D@ATL@@@@@ATL@@QAE@XZ
$LN66@GetGraphTi:
  00046	c3		 ret	 0
__unwindfunclet$?GetGraphTitle@CGraphTitleDrawer@@ABE?AV?$CStringT@DV?$StrTraitMFC_DLL@DV?$ChTraitsCRT@D@ATL@@@@@ATL@@ABVCDrawingGraphData@@ABV23@HH@Z$6:
  00047	8d 4d 14	 lea	 ecx, DWORD PTR $T8[ebp]
  0004a	ff 25 00 00 00
	00		 jmp	 DWORD PTR __imp_??1?$CStringT@DV?$StrTraitMFC_DLL@DV?$ChTraitsCRT@D@ATL@@@@@ATL@@QAE@XZ
__unwindfunclet$?GetGraphTitle@CGraphTitleDrawer@@ABE?AV?$CStringT@DV?$StrTraitMFC_DLL@DV?$ChTraitsCRT@D@ATL@@@@@ATL@@ABVCDrawingGraphData@@ABV23@HH@Z$7:
  00050	8d 4d 18	 lea	 ecx, DWORD PTR $T9[ebp]
  00053	ff 25 00 00 00
	00		 jmp	 DWORD PTR __imp_??1?$CStringT@DV?$StrTraitMFC_DLL@DV?$ChTraitsCRT@D@ATL@@@@@ATL@@QAE@XZ
__unwindfunclet$?GetGraphTitle@CGraphTitleDrawer@@ABE?AV?$CStringT@DV?$StrTraitMFC_DLL@DV?$ChTraitsCRT@D@ATL@@@@@ATL@@ABVCDrawingGraphData@@ABV23@HH@Z$8:
  00059	8d 4d 0c	 lea	 ecx, DWORD PTR $T3[ebp]
  0005c	ff 25 00 00 00
	00		 jmp	 DWORD PTR __imp_??1?$CStringT@DV?$StrTraitMFC_DLL@DV?$ChTraitsCRT@D@ATL@@@@@ATL@@QAE@XZ
  00062	cc		 int	 3
  00063	cc		 int	 3
  00064	cc		 int	 3
  00065	cc		 int	 3
  00066	cc		 int	 3
__ehhandler$?GetGraphTitle@CGraphTitleDrawer@@ABE?AV?$CStringT@DV?$StrTraitMFC_DLL@DV?$ChTraitsCRT@D@ATL@@@@@ATL@@ABVCDrawingGraphData@@ABV23@HH@Z:
  00067	90		 npad	 1
  00068	90		 npad	 1
  00069	8b 54 24 08	 mov	 edx, DWORD PTR [esp+8]
  0006d	8d 42 0c	 lea	 eax, DWORD PTR [edx+12]
  00070	8b 4a e4	 mov	 ecx, DWORD PTR [edx-28]
  00073	33 c8		 xor	 ecx, eax
  00075	e8 00 00 00 00	 call	 @__security_check_cookie@4
  0007a	b8 00 00 00 00	 mov	 eax, OFFSET __ehfuncinfo$?GetGraphTitle@CGraphTitleDrawer@@ABE?AV?$CStringT@DV?$StrTraitMFC_DLL@DV?$ChTraitsCRT@D@ATL@@@@@ATL@@ABVCDrawingGraphData@@ABV23@HH@Z
  0007f	e9 00 00 00 00	 jmp	 ___CxxFrameHandler3
text$x	ENDS
?GetGraphTitle@CGraphTitleDrawer@@ABE?AV?$CStringT@DV?$StrTraitMFC_DLL@DV?$ChTraitsCRT@D@ATL@@@@@ATL@@ABVCDrawingGraphData@@ABV23@HH@Z ENDP ; CGraphTitleDrawer::GetGraphTitle
; Function compile flags: /Ogtp
; File D:\git\src\IBK\IBK_DRFN\ProjSrc\SrcChartEx\ChartOCX\GraphDraw\GraphTitleDrawer.cpp
; File C:\Program Files (x86)\Microsoft Visual Studio\2019\Community\VC\Tools\MSVC\14.29.30133\atlmfc\include\cstringt.h
; File D:\git\src\IBK\IBK_DRFN\ProjSrc\SrcChartEx\ChartOCX\GraphDraw\GraphTitleDrawer.cpp
; File C:\Program Files (x86)\Microsoft Visual Studio\2019\Community\VC\Tools\MSVC\14.29.30133\atlmfc\include\cstringt.h
; File D:\git\src\IBK\IBK_DRFN\ProjSrc\SrcChartEx\ChartOCX\GraphDraw\GraphTitleDrawer.cpp
; File C:\Program Files (x86)\Microsoft Visual Studio\2019\Community\VC\Tools\MSVC\14.29.30133\atlmfc\include\cstringt.h
; File D:\git\src\IBK\IBK_DRFN\ProjSrc\SrcChartEx\ChartOCX\GraphDraw\GraphTitleDrawer.cpp
; File C:\Program Files (x86)\Microsoft Visual Studio\2019\Community\VC\Tools\MSVC\14.29.30133\atlmfc\include\cstringt.h
; File D:\git\src\IBK\IBK_DRFN\ProjSrc\SrcChartEx\ChartOCX\GraphDraw\GraphTitleDrawer.cpp
; File C:\Program Files (x86)\Microsoft Visual Studio\2019\Community\VC\Tools\MSVC\14.29.30133\atlmfc\include\cstringt.h
; File C:\Program Files (x86)\Microsoft Visual Studio\2019\Community\VC\Tools\MSVC\14.29.30133\atlmfc\include\atlsimpstr.h
; File C:\Program Files (x86)\Microsoft Visual Studio\2019\Community\VC\Tools\MSVC\14.29.30133\atlmfc\include\cstringt.h
; File D:\git\src\IBK\IBK_DRFN\ProjSrc\SrcChartEx\ChartOCX\GraphDraw\GraphTitleDrawer.cpp
; File C:\Program Files (x86)\Microsoft Visual Studio\2019\Community\VC\Tools\MSVC\14.29.30133\atlmfc\include\cstringt.h
; File D:\git\src\IBK\IBK_DRFN\ProjSrc\SrcChartEx\ChartOCX\GraphDraw\GraphTitleDrawer.cpp
; File C:\Program Files (x86)\Microsoft Visual Studio\2019\Community\VC\Tools\MSVC\14.29.30133\atlmfc\include\cstringt.h
; File C:\Program Files (x86)\Microsoft Visual Studio\2019\Community\VC\Tools\MSVC\14.29.30133\atlmfc\include\atlsimpstr.h
; File C:\Program Files (x86)\Microsoft Visual Studio\2019\Community\VC\Tools\MSVC\14.29.30133\atlmfc\include\cstringt.h
; File D:\git\src\IBK\IBK_DRFN\ProjSrc\SrcChartEx\ChartOCX\GraphDraw\GraphTitleDrawer.cpp
; File C:\Program Files (x86)\Microsoft Visual Studio\2019\Community\VC\Tools\MSVC\14.29.30133\atlmfc\include\atlsimpstr.h
; File D:\git\src\IBK\IBK_DRFN\ProjSrc\SrcChartEx\ChartOCX\GraphDraw\GraphTitleDrawer.cpp
; File C:\Program Files (x86)\Microsoft Visual Studio\2019\Community\VC\Tools\MSVC\14.29.30133\atlmfc\include\atlsimpstr.h
; File D:\git\src\IBK\IBK_DRFN\ProjSrc\SrcChartEx\ChartOCX\GraphDraw\GraphTitleDrawer.cpp
; File C:\Program Files (x86)\Microsoft Visual Studio\2019\Community\VC\Tools\MSVC\14.29.30133\atlmfc\include\atlsimpstr.h
; File D:\git\src\IBK\IBK_DRFN\ProjSrc\SrcChartEx\ChartOCX\GraphDraw\GraphTitleDrawer.cpp
; File C:\Program Files (x86)\Microsoft Visual Studio\2019\Community\VC\Tools\MSVC\14.29.30133\atlmfc\include\atlsimpstr.h
; File D:\git\src\IBK\IBK_DRFN\ProjSrc\SrcChartEx\ChartOCX\GraphDraw\GraphTitleDrawer.cpp
; File C:\Program Files (x86)\Microsoft Visual Studio\2019\Community\VC\Tools\MSVC\14.29.30133\atlmfc\include\atlsimpstr.h
; File D:\git\src\IBK\IBK_DRFN\ProjSrc\SrcChartEx\ChartOCX\GraphDraw\GraphTitleDrawer.cpp
; File C:\Program Files (x86)\Microsoft Visual Studio\2019\Community\VC\Tools\MSVC\14.29.30133\atlmfc\include\atlsimpstr.h
; File D:\git\src\IBK\IBK_DRFN\ProjSrc\SrcChartEx\ChartOCX\GraphDraw\GraphTitleDrawer.cpp
; File C:\Program Files (x86)\Microsoft Visual Studio\2019\Community\VC\Tools\MSVC\14.29.30133\atlmfc\include\cstringt.h
; File D:\git\src\IBK\IBK_DRFN\ProjSrc\SrcChartEx\ChartOCX\GraphDraw\GraphTitleDrawer.cpp
; File C:\Program Files (x86)\Microsoft Visual Studio\2019\Community\VC\Tools\MSVC\14.29.30133\atlmfc\include\cstringt.h
; File D:\git\src\IBK\IBK_DRFN\ProjSrc\SrcChartEx\ChartOCX\GraphDraw\GraphTitleDrawer.cpp
; File C:\Program Files (x86)\Microsoft Visual Studio\2019\Community\VC\Tools\MSVC\14.29.30133\atlmfc\include\cstringt.h
; File D:\git\src\IBK\IBK_DRFN\ProjSrc\SrcChartEx\ChartOCX\GraphDraw\GraphTitleDrawer.cpp
;	COMDAT ?GetGraphTitle@CGraphTitleDrawer@@ABE?AV?$CStringT@DV?$StrTraitMFC_DLL@DV?$ChTraitsCRT@D@ATL@@@@@ATL@@ABVCSubGraphData@@PAUHWND__@@@Z
_TEXT	SEGMENT
$T2 = -56						; size = 4
$T3 = -52						; size = 4
$T4 = -48						; size = 4
$T5 = -44						; size = 4
$T6 = -40						; size = 4
_this$1$ = -36						; size = 4
$T7 = -32						; size = 4
$T8 = -32						; size = 4
$T9 = -28						; size = 4
_strItemName$ = -24					; size = 4
$T10 = -20						; size = 4
_strLanguageTitle$ = -16				; size = 4
__$EHRec$ = -12						; size = 12
___$ReturnUdt$ = 8					; size = 4
$T11 = 12						; size = 4
_subGraphData$ = 12					; size = 4
_p_hOcxWnd$ = 16					; size = 4
?GetGraphTitle@CGraphTitleDrawer@@ABE?AV?$CStringT@DV?$StrTraitMFC_DLL@DV?$ChTraitsCRT@D@ATL@@@@@ATL@@ABVCSubGraphData@@PAUHWND__@@@Z PROC ; CGraphTitleDrawer::GetGraphTitle, COMDAT
; _this$ = ecx

; 216  : {

  00000	55		 push	 ebp
  00001	8b ec		 mov	 ebp, esp
  00003	6a ff		 push	 -1
  00005	68 00 00 00 00	 push	 __ehhandler$?GetGraphTitle@CGraphTitleDrawer@@ABE?AV?$CStringT@DV?$StrTraitMFC_DLL@DV?$ChTraitsCRT@D@ATL@@@@@ATL@@ABVCSubGraphData@@PAUHWND__@@@Z
  0000a	64 a1 00 00 00
	00		 mov	 eax, DWORD PTR fs:0
  00010	50		 push	 eax
  00011	83 ec 2c	 sub	 esp, 44			; 0000002cH
  00014	53		 push	 ebx
  00015	56		 push	 esi
  00016	57		 push	 edi
  00017	a1 00 00 00 00	 mov	 eax, DWORD PTR ___security_cookie
  0001c	33 c5		 xor	 eax, ebp
  0001e	50		 push	 eax
  0001f	8d 45 f4	 lea	 eax, DWORD PTR __$EHRec$[ebp]
  00022	64 a3 00 00 00
	00		 mov	 DWORD PTR fs:0, eax
  00028	89 4d dc	 mov	 DWORD PTR _this$1$[ebp], ecx
  0002b	c7 45 ec 00 00
	00 00		 mov	 DWORD PTR $T10[ebp], 0

; 217  : 	CString strTitle = subGraphData.GetTitle();

  00032	8b 5d 08	 mov	 ebx, DWORD PTR ___$ReturnUdt$[ebp]
  00035	8b 7d 0c	 mov	 edi, DWORD PTR _subGraphData$[ebp]
  00038	8b cf		 mov	 ecx, edi
  0003a	53		 push	 ebx
  0003b	c7 45 fc 00 00
	00 00		 mov	 DWORD PTR __$EHRec$[ebp+8], 0
  00042	ff 15 00 00 00
	00		 call	 DWORD PTR __imp_?GetTitle@CSubGraphDataBase@@QBE?AV?$CStringT@DV?$StrTraitMFC_DLL@DV?$ChTraitsCRT@D@ATL@@@@@ATL@@XZ

; 244  : 
; 245  : 	return strTitle;

  00048	8d 45 e0	 lea	 eax, DWORD PTR $T8[ebp]
  0004b	c7 45 fc 00 00
	00 00		 mov	 DWORD PTR __$EHRec$[ebp+8], 0
  00052	50		 push	 eax
  00053	8b cf		 mov	 ecx, edi
  00055	c7 45 ec 01 00
	00 00		 mov	 DWORD PTR $T10[ebp], 1
  0005c	ff 15 00 00 00
	00		 call	 DWORD PTR __imp_?GetName@CSubGraphDataBase@@QBE?AV?$CStringT@DV?$StrTraitMFC_DLL@DV?$ChTraitsCRT@D@ATL@@@@@ATL@@XZ
  00062	8b c8		 mov	 ecx, eax
  00064	a1 54 00 00 00	 mov	 eax, DWORD PTR ?g_iMetaTable@@3VIMetaTable@@A+84
  00069	c7 45 fc 01 00
	00 00		 mov	 DWORD PTR __$EHRec$[ebp+8], 1
; File C:\Program Files (x86)\Microsoft Visual Studio\2019\Community\VC\Tools\MSVC\14.29.30133\atlmfc\include\cstringt.h

; 2486 : 		return(str1.Compare(psz2) == 0);

  00070	ff b0 c0 04 00
	00		 push	 DWORD PTR [eax+1216]
  00076	ff 15 00 00 00
	00		 call	 DWORD PTR __imp_?Compare@?$CStringT@DV?$StrTraitMFC_DLL@DV?$ChTraitsCRT@D@ATL@@@@@ATL@@QBEHPBD@Z
; File D:\git\src\IBK\IBK_DRFN\ProjSrc\SrcChartEx\ChartOCX\GraphDraw\GraphTitleDrawer.cpp

; 220  : 	if(subGraphData.GetName() == _MTEXT( C3_PRESPAN))

  0007c	8d 4d e0	 lea	 ecx, DWORD PTR $T8[ebp]
  0007f	c6 45 fc 00	 mov	 BYTE PTR __$EHRec$[ebp+8], 0
; File C:\Program Files (x86)\Microsoft Visual Studio\2019\Community\VC\Tools\MSVC\14.29.30133\atlmfc\include\cstringt.h

; 2486 : 		return(str1.Compare(psz2) == 0);

  00083	8b f0		 mov	 esi, eax
; File D:\git\src\IBK\IBK_DRFN\ProjSrc\SrcChartEx\ChartOCX\GraphDraw\GraphTitleDrawer.cpp

; 220  : 	if(subGraphData.GetName() == _MTEXT( C3_PRESPAN))

  00085	ff 15 00 00 00
	00		 call	 DWORD PTR __imp_??1?$CStringT@DV?$StrTraitMFC_DLL@DV?$ChTraitsCRT@D@ATL@@@@@ATL@@QAE@XZ
  0008b	85 f6		 test	 esi, esi
  0008d	0f 85 3a 01 00
	00		 jne	 $LN3@GetGraphTi

; 222  : 		if(strTitle == _MTEXT( C3_PRESPAN))

  00093	a1 54 00 00 00	 mov	 eax, DWORD PTR ?g_iMetaTable@@3VIMetaTable@@A+84
; File C:\Program Files (x86)\Microsoft Visual Studio\2019\Community\VC\Tools\MSVC\14.29.30133\atlmfc\include\cstringt.h

; 2486 : 		return(str1.Compare(psz2) == 0);

  00098	8b cb		 mov	 ecx, ebx
  0009a	ff b0 c0 04 00
	00		 push	 DWORD PTR [eax+1216]
  000a0	ff 15 00 00 00
	00		 call	 DWORD PTR __imp_?Compare@?$CStringT@DV?$StrTraitMFC_DLL@DV?$ChTraitsCRT@D@ATL@@@@@ATL@@QBEHPBD@Z
  000a6	85 c0		 test	 eax, eax
; File D:\git\src\IBK\IBK_DRFN\ProjSrc\SrcChartEx\ChartOCX\GraphDraw\GraphTitleDrawer.cpp

; 222  : 		if(strTitle == _MTEXT( C3_PRESPAN))

  000a8	0f 85 1f 01 00
	00		 jne	 $LN3@GetGraphTi

; 224  : 			strTitle = subGraphData.GetTitle() + "1" + TITLE_COMPART + subGraphData.GetTitle() + "2" + TITLE_COMPART;

  000ae	8b 35 00 00 00
	00		 mov	 esi, DWORD PTR __imp_?GetTitle@CSubGraphDataBase@@QBE?AV?$CStringT@DV?$StrTraitMFC_DLL@DV?$ChTraitsCRT@D@ATL@@@@@ATL@@XZ
  000b4	8d 45 c8	 lea	 eax, DWORD PTR $T2[ebp]
  000b7	50		 push	 eax
  000b8	8b cf		 mov	 ecx, edi
  000ba	ff d6		 call	 esi
  000bc	8b d8		 mov	 ebx, eax
  000be	8d 45 cc	 lea	 eax, DWORD PTR $T3[ebp]
  000c1	c7 45 fc 02 00
	00 00		 mov	 DWORD PTR __$EHRec$[ebp+8], 2
  000c8	50		 push	 eax
  000c9	8b cf		 mov	 ecx, edi
  000cb	ff d6		 call	 esi
  000cd	8b f0		 mov	 esi, eax
; File C:\Program Files (x86)\Microsoft Visual Studio\2019\Community\VC\Tools\MSVC\14.29.30133\atlmfc\include\cstringt.h

; 2401 : 		CStringT strResult( str1.GetManager() );

  000cf	8b ce		 mov	 ecx, esi
; File D:\git\src\IBK\IBK_DRFN\ProjSrc\SrcChartEx\ChartOCX\GraphDraw\GraphTitleDrawer.cpp

; 224  : 			strTitle = subGraphData.GetTitle() + "1" + TITLE_COMPART + subGraphData.GetTitle() + "2" + TITLE_COMPART;

  000d1	c6 45 fc 04	 mov	 BYTE PTR __$EHRec$[ebp+8], 4
; File C:\Program Files (x86)\Microsoft Visual Studio\2019\Community\VC\Tools\MSVC\14.29.30133\atlmfc\include\cstringt.h

; 2401 : 		CStringT strResult( str1.GetManager() );

  000d5	ff 15 00 00 00
	00		 call	 DWORD PTR __imp_?GetManager@?$CStringT@DV?$StrTraitMFC_DLL@DV?$ChTraitsCRT@D@ATL@@@@@ATL@@QBEPAUIAtlStringMgr@2@XZ
  000db	50		 push	 eax
  000dc	8d 4d e0	 lea	 ecx, DWORD PTR $T7[ebp]
  000df	ff 15 00 00 00
	00		 call	 DWORD PTR __imp_??0?$CStringT@DV?$StrTraitMFC_DLL@DV?$ChTraitsCRT@D@ATL@@@@@ATL@@QAE@PAUIAtlStringMgr@1@@Z
; File C:\Program Files (x86)\Microsoft Visual Studio\2019\Community\VC\Tools\MSVC\14.29.30133\atlmfc\include\atlsimpstr.h

; 519  : 		return( GetData()->nDataLength );

  000e5	8b 06		 mov	 eax, DWORD PTR [esi]
; File C:\Program Files (x86)\Microsoft Visual Studio\2019\Community\VC\Tools\MSVC\14.29.30133\atlmfc\include\cstringt.h

; 2403 : 		CThisSimpleString::Concatenate( strResult, str1, str1.GetLength(), psz2, CThisSimpleString::StringLength( psz2 ) );

  000e7	6a 01		 push	 1
  000e9	68 00 00 00 00	 push	 OFFSET ??_C@_01HIHLOKLC@1@

; 2404 : 
; 2405 : 		return( strResult );

  000ee	c7 45 ec 03 00
	00 00		 mov	 DWORD PTR $T10[ebp], 3
  000f5	ff 70 f4	 push	 DWORD PTR [eax-12]
  000f8	50		 push	 eax
  000f9	8d 45 e0	 lea	 eax, DWORD PTR $T7[ebp]
  000fc	50		 push	 eax
  000fd	ff 15 00 00 00
	00		 call	 DWORD PTR __imp_?Concatenate@?$CSimpleStringT@D$00@ATL@@KAXAAV12@PBDH1H@Z
; File D:\git\src\IBK\IBK_DRFN\ProjSrc\SrcChartEx\ChartOCX\GraphDraw\GraphTitleDrawer.cpp

; 224  : 			strTitle = subGraphData.GetTitle() + "1" + TITLE_COMPART + subGraphData.GetTitle() + "2" + TITLE_COMPART;

  00103	8b 7d dc	 mov	 edi, DWORD PTR _this$1$[ebp]
  00106	8d 45 e0	 lea	 eax, DWORD PTR $T7[ebp]
  00109	83 c7 04	 add	 edi, 4
  0010c	57		 push	 edi
  0010d	50		 push	 eax
  0010e	8d 45 d0	 lea	 eax, DWORD PTR $T4[ebp]
  00111	50		 push	 eax
  00112	e8 00 00 00 00	 call	 ??HATL@@YA?AV?$CStringT@DV?$StrTraitMFC_DLL@DV?$ChTraitsCRT@D@ATL@@@@@0@ABV10@0@Z ; ATL::operator+
  00117	53		 push	 ebx
  00118	50		 push	 eax
  00119	8d 45 d4	 lea	 eax, DWORD PTR $T5[ebp]
  0011c	c6 45 fc 05	 mov	 BYTE PTR __$EHRec$[ebp+8], 5
  00120	50		 push	 eax
  00121	e8 00 00 00 00	 call	 ??HATL@@YA?AV?$CStringT@DV?$StrTraitMFC_DLL@DV?$ChTraitsCRT@D@ATL@@@@@0@ABV10@0@Z ; ATL::operator+
  00126	83 c4 2c	 add	 esp, 44			; 0000002cH
  00129	8b f0		 mov	 esi, eax
; File C:\Program Files (x86)\Microsoft Visual Studio\2019\Community\VC\Tools\MSVC\14.29.30133\atlmfc\include\cstringt.h

; 2401 : 		CStringT strResult( str1.GetManager() );

  0012b	8b ce		 mov	 ecx, esi
; File D:\git\src\IBK\IBK_DRFN\ProjSrc\SrcChartEx\ChartOCX\GraphDraw\GraphTitleDrawer.cpp

; 224  : 			strTitle = subGraphData.GetTitle() + "1" + TITLE_COMPART + subGraphData.GetTitle() + "2" + TITLE_COMPART;

  0012d	c6 45 fc 07	 mov	 BYTE PTR __$EHRec$[ebp+8], 7
; File C:\Program Files (x86)\Microsoft Visual Studio\2019\Community\VC\Tools\MSVC\14.29.30133\atlmfc\include\cstringt.h

; 2401 : 		CStringT strResult( str1.GetManager() );

  00131	ff 15 00 00 00
	00		 call	 DWORD PTR __imp_?GetManager@?$CStringT@DV?$StrTraitMFC_DLL@DV?$ChTraitsCRT@D@ATL@@@@@ATL@@QBEPAUIAtlStringMgr@2@XZ
  00137	50		 push	 eax
  00138	8d 4d e4	 lea	 ecx, DWORD PTR $T9[ebp]
  0013b	ff 15 00 00 00
	00		 call	 DWORD PTR __imp_??0?$CStringT@DV?$StrTraitMFC_DLL@DV?$ChTraitsCRT@D@ATL@@@@@ATL@@QAE@PAUIAtlStringMgr@1@@Z
; File C:\Program Files (x86)\Microsoft Visual Studio\2019\Community\VC\Tools\MSVC\14.29.30133\atlmfc\include\atlsimpstr.h

; 519  : 		return( GetData()->nDataLength );

  00141	8b 06		 mov	 eax, DWORD PTR [esi]
; File C:\Program Files (x86)\Microsoft Visual Studio\2019\Community\VC\Tools\MSVC\14.29.30133\atlmfc\include\cstringt.h

; 2403 : 		CThisSimpleString::Concatenate( strResult, str1, str1.GetLength(), psz2, CThisSimpleString::StringLength( psz2 ) );

  00143	6a 01		 push	 1
  00145	68 00 00 00 00	 push	 OFFSET ??_C@_01FDFGLJHB@2@

; 2404 : 
; 2405 : 		return( strResult );

  0014a	c7 45 ec 07 00
	00 00		 mov	 DWORD PTR $T10[ebp], 7
  00151	ff 70 f4	 push	 DWORD PTR [eax-12]
  00154	50		 push	 eax
  00155	8d 45 e4	 lea	 eax, DWORD PTR $T9[ebp]
  00158	50		 push	 eax
  00159	ff 15 00 00 00
	00		 call	 DWORD PTR __imp_?Concatenate@?$CSimpleStringT@D$00@ATL@@KAXAAV12@PBDH1H@Z
; File D:\git\src\IBK\IBK_DRFN\ProjSrc\SrcChartEx\ChartOCX\GraphDraw\GraphTitleDrawer.cpp

; 224  : 			strTitle = subGraphData.GetTitle() + "1" + TITLE_COMPART + subGraphData.GetTitle() + "2" + TITLE_COMPART;

  0015f	57		 push	 edi
  00160	8d 45 e4	 lea	 eax, DWORD PTR $T9[ebp]
  00163	50		 push	 eax
  00164	8d 45 d8	 lea	 eax, DWORD PTR $T6[ebp]
  00167	50		 push	 eax
  00168	e8 00 00 00 00	 call	 ??HATL@@YA?AV?$CStringT@DV?$StrTraitMFC_DLL@DV?$ChTraitsCRT@D@ATL@@@@@0@ABV10@0@Z ; ATL::operator+
  0016d	83 c4 20	 add	 esp, 32			; 00000020H
  00170	8b 5d 08	 mov	 ebx, DWORD PTR ___$ReturnUdt$[ebp]
  00173	8b cb		 mov	 ecx, ebx
  00175	50		 push	 eax
  00176	c6 45 fc 08	 mov	 BYTE PTR __$EHRec$[ebp+8], 8
  0017a	ff 15 00 00 00
	00		 call	 DWORD PTR __imp_??4?$CStringT@DV?$StrTraitMFC_DLL@DV?$ChTraitsCRT@D@ATL@@@@@ATL@@QAEAAV01@ABV01@@Z
  00180	8d 4d d8	 lea	 ecx, DWORD PTR $T6[ebp]
  00183	ff 15 00 00 00
	00		 call	 DWORD PTR __imp_??1?$CStringT@DV?$StrTraitMFC_DLL@DV?$ChTraitsCRT@D@ATL@@@@@ATL@@QAE@XZ
  00189	8d 4d e4	 lea	 ecx, DWORD PTR $T9[ebp]
  0018c	ff 15 00 00 00
	00		 call	 DWORD PTR __imp_??1?$CStringT@DV?$StrTraitMFC_DLL@DV?$ChTraitsCRT@D@ATL@@@@@ATL@@QAE@XZ
  00192	8d 4d d4	 lea	 ecx, DWORD PTR $T5[ebp]
  00195	ff 15 00 00 00
	00		 call	 DWORD PTR __imp_??1?$CStringT@DV?$StrTraitMFC_DLL@DV?$ChTraitsCRT@D@ATL@@@@@ATL@@QAE@XZ
  0019b	8d 4d d0	 lea	 ecx, DWORD PTR $T4[ebp]
  0019e	ff 15 00 00 00
	00		 call	 DWORD PTR __imp_??1?$CStringT@DV?$StrTraitMFC_DLL@DV?$ChTraitsCRT@D@ATL@@@@@ATL@@QAE@XZ
  001a4	8d 4d e0	 lea	 ecx, DWORD PTR $T7[ebp]
  001a7	c7 45 ec 01 00
	00 00		 mov	 DWORD PTR $T10[ebp], 1
  001ae	ff 15 00 00 00
	00		 call	 DWORD PTR __imp_??1?$CStringT@DV?$StrTraitMFC_DLL@DV?$ChTraitsCRT@D@ATL@@@@@ATL@@QAE@XZ
  001b4	8d 4d cc	 lea	 ecx, DWORD PTR $T3[ebp]
  001b7	ff 15 00 00 00
	00		 call	 DWORD PTR __imp_??1?$CStringT@DV?$StrTraitMFC_DLL@DV?$ChTraitsCRT@D@ATL@@@@@ATL@@QAE@XZ
  001bd	8d 4d c8	 lea	 ecx, DWORD PTR $T2[ebp]
  001c0	c6 45 fc 00	 mov	 BYTE PTR __$EHRec$[ebp+8], 0
  001c4	ff 15 00 00 00
	00		 call	 DWORD PTR __imp_??1?$CStringT@DV?$StrTraitMFC_DLL@DV?$ChTraitsCRT@D@ATL@@@@@ATL@@QAE@XZ
  001ca	8b 7d 0c	 mov	 edi, DWORD PTR _subGraphData$[ebp]
$LN3@GetGraphTi:

; 229  : 	CString strLanguageTitle = _MTOL1_N( strTitle);

  001cd	8b 75 10	 mov	 esi, DWORD PTR _p_hOcxWnd$[ebp]
  001d0	b9 00 00 00 00	 mov	 ecx, OFFSET ?g_iMetaTable@@3VIMetaTable@@A ; g_iMetaTable
  001d5	6a 01		 push	 1
  001d7	ff 33		 push	 DWORD PTR [ebx]
  001d9	6a 01		 push	 1
  001db	56		 push	 esi
  001dc	e8 00 00 00 00	 call	 ?GetLanguageText@IMetaTable@@QAEPBDPAUHWND__@@W4E_CODEPAGE@1@PBDH@Z ; IMetaTable::GetLanguageText
  001e1	50		 push	 eax
  001e2	8d 4d f0	 lea	 ecx, DWORD PTR _strLanguageTitle$[ebp]
  001e5	ff 15 00 00 00
	00		 call	 DWORD PTR __imp_??0?$CStringT@DV?$StrTraitMFC_DLL@DV?$ChTraitsCRT@D@ATL@@@@@ATL@@QAE@PBD@Z
; File C:\Program Files (x86)\Microsoft Visual Studio\2019\Community\VC\Tools\MSVC\14.29.30133\atlmfc\include\atlsimpstr.h

; 519  : 		return( GetData()->nDataLength );

  001eb	8b 45 f0	 mov	 eax, DWORD PTR _strLanguageTitle$[ebp]
; File D:\git\src\IBK\IBK_DRFN\ProjSrc\SrcChartEx\ChartOCX\GraphDraw\GraphTitleDrawer.cpp

; 229  : 	CString strLanguageTitle = _MTOL1_N( strTitle);

  001ee	c7 45 fc 09 00
	00 00		 mov	 DWORD PTR __$EHRec$[ebp+8], 9
; File C:\Program Files (x86)\Microsoft Visual Studio\2019\Community\VC\Tools\MSVC\14.29.30133\atlmfc\include\atlsimpstr.h

; 533  : 		return( GetLength() == 0 );

  001f5	83 78 f4 00	 cmp	 DWORD PTR [eax-12], 0
; File D:\git\src\IBK\IBK_DRFN\ProjSrc\SrcChartEx\ChartOCX\GraphDraw\GraphTitleDrawer.cpp

; 230  : 	if( strLanguageTitle.IsEmpty()) strLanguageTitle = _MTOL3( strTitle);

  001f9	75 1b		 jne	 SHORT $LN4@GetGraphTi
  001fb	6a 00		 push	 0
  001fd	ff 33		 push	 DWORD PTR [ebx]
  001ff	b9 00 00 00 00	 mov	 ecx, OFFSET ?g_iMetaTable@@3VIMetaTable@@A ; g_iMetaTable
  00204	6a 03		 push	 3
  00206	56		 push	 esi
  00207	e8 00 00 00 00	 call	 ?GetLanguageText@IMetaTable@@QAEPBDPAUHWND__@@W4E_CODEPAGE@1@PBDH@Z ; IMetaTable::GetLanguageText
  0020c	50		 push	 eax
  0020d	8d 4d f0	 lea	 ecx, DWORD PTR _strLanguageTitle$[ebp]
  00210	ff 15 00 00 00
	00		 call	 DWORD PTR __imp_??4?$CStringT@DV?$StrTraitMFC_DLL@DV?$ChTraitsCRT@D@ATL@@@@@ATL@@QAEAAV01@PBD@Z
$LN4@GetGraphTi:

; 231  : 	//   :  - ojtaso (20070625)
; 232  : 	CString strItemName = subGraphData.GetItemName();

  00216	8d 45 e8	 lea	 eax, DWORD PTR _strItemName$[ebp]
  00219	8b cf		 mov	 ecx, edi
  0021b	50		 push	 eax
  0021c	ff 15 00 00 00
	00		 call	 DWORD PTR __imp_?GetItemName@CSubGraphDataBase@@QBE?AV?$CStringT@DV?$StrTraitMFC_DLL@DV?$ChTraitsCRT@D@ATL@@@@@ATL@@XZ
; File C:\Program Files (x86)\Microsoft Visual Studio\2019\Community\VC\Tools\MSVC\14.29.30133\atlmfc\include\atlsimpstr.h

; 519  : 		return( GetData()->nDataLength );

  00222	8b 45 e8	 mov	 eax, DWORD PTR _strItemName$[ebp]
; File D:\git\src\IBK\IBK_DRFN\ProjSrc\SrcChartEx\ChartOCX\GraphDraw\GraphTitleDrawer.cpp

; 233  : 	if( strItemName.IsEmpty()) strTitle = strLanguageTitle;

  00225	8b cb		 mov	 ecx, ebx
  00227	c6 45 fc 0a	 mov	 BYTE PTR __$EHRec$[ebp+8], 10 ; 0000000aH
; File C:\Program Files (x86)\Microsoft Visual Studio\2019\Community\VC\Tools\MSVC\14.29.30133\atlmfc\include\atlsimpstr.h

; 533  : 		return( GetLength() == 0 );

  0022b	83 78 f4 00	 cmp	 DWORD PTR [eax-12], 0
; File D:\git\src\IBK\IBK_DRFN\ProjSrc\SrcChartEx\ChartOCX\GraphDraw\GraphTitleDrawer.cpp

; 233  : 	if( strItemName.IsEmpty()) strTitle = strLanguageTitle;

  0022f	75 05		 jne	 SHORT $LN5@GetGraphTi
  00231	8d 45 f0	 lea	 eax, DWORD PTR _strLanguageTitle$[ebp]
  00234	eb 31		 jmp	 SHORT $LN79@GetGraphTi
$LN5@GetGraphTi:

; 234  : 	else
; 235  : 	{
; 236  : 		if(strTitle.Compare( _MTEXT( C3_PRICE)))

  00236	a1 54 00 00 00	 mov	 eax, DWORD PTR ?g_iMetaTable@@3VIMetaTable@@A+84
  0023b	ff b0 b4 04 00
	00		 push	 DWORD PTR [eax+1204]
  00241	ff 15 00 00 00
	00		 call	 DWORD PTR __imp_?Compare@?$CStringT@DV?$StrTraitMFC_DLL@DV?$ChTraitsCRT@D@ATL@@@@@ATL@@QBEHPBD@Z
  00247	85 c0		 test	 eax, eax
  00249	74 17		 je	 SHORT $LN7@GetGraphTi

; 237  : 			strTitle.Format(_T("%s:%s"), strItemName, strLanguageTitle);

  0024b	ff 75 f0	 push	 DWORD PTR _strLanguageTitle$[ebp]
  0024e	ff 75 e8	 push	 DWORD PTR _strItemName$[ebp]
  00251	68 00 00 00 00	 push	 OFFSET ??_C@_05CCMOGDN@?$CFs?3?$CFs@
  00256	53		 push	 ebx
  00257	ff 15 00 00 00
	00		 call	 DWORD PTR __imp_?Format@?$CStringT@DV?$StrTraitMFC_DLL@DV?$ChTraitsCRT@D@ATL@@@@@ATL@@QAAXPBDZZ
  0025d	83 c4 10	 add	 esp, 16			; 00000010H
  00260	eb 0c		 jmp	 SHORT $LN8@GetGraphTi
$LN7@GetGraphTi:

; 238  : 		else
; 239  : 			strTitle = strItemName;

  00262	8d 45 e8	 lea	 eax, DWORD PTR _strItemName$[ebp]
  00265	8b cb		 mov	 ecx, ebx
$LN79@GetGraphTi:
; File C:\Program Files (x86)\Microsoft Visual Studio\2019\Community\VC\Tools\MSVC\14.29.30133\atlmfc\include\atlsimpstr.h

; 800  : 		return( reinterpret_cast< CStringData* >( m_pszData )-1 );

  00267	50		 push	 eax
  00268	ff 15 00 00 00
	00		 call	 DWORD PTR __imp_??4?$CStringT@DV?$StrTraitMFC_DLL@DV?$ChTraitsCRT@D@ATL@@@@@ATL@@QAEAAV01@ABV01@@Z
$LN8@GetGraphTi:
  0026e	8b 7d dc	 mov	 edi, DWORD PTR _this$1$[ebp]
; File D:\git\src\IBK\IBK_DRFN\ProjSrc\SrcChartEx\ChartOCX\GraphDraw\GraphTitleDrawer.cpp

; 242  : 	if(strTitle.Right(TITLE_COMPART.GetLength()) != TITLE_COMPART)

  00271	8b cb		 mov	 ecx, ebx
; File C:\Program Files (x86)\Microsoft Visual Studio\2019\Community\VC\Tools\MSVC\14.29.30133\atlmfc\include\atlsimpstr.h

; 800  : 		return( reinterpret_cast< CStringData* >( m_pszData )-1 );

  00273	83 c7 04	 add	 edi, 4

; 519  : 		return( GetData()->nDataLength );

  00276	8b 07		 mov	 eax, DWORD PTR [edi]
; File D:\git\src\IBK\IBK_DRFN\ProjSrc\SrcChartEx\ChartOCX\GraphDraw\GraphTitleDrawer.cpp

; 242  : 	if(strTitle.Right(TITLE_COMPART.GetLength()) != TITLE_COMPART)

  00278	ff 70 f4	 push	 DWORD PTR [eax-12]
  0027b	8d 45 0c	 lea	 eax, DWORD PTR $T11[ebp]
  0027e	50		 push	 eax
  0027f	ff 15 00 00 00
	00		 call	 DWORD PTR __imp_?Right@?$CStringT@DV?$StrTraitMFC_DLL@DV?$ChTraitsCRT@D@ATL@@@@@ATL@@QBE?AV12@H@Z
; File C:\Program Files (x86)\Microsoft Visual Studio\2019\Community\VC\Tools\MSVC\14.29.30133\atlmfc\include\cstringt.h

; 2560 : 		return( str1.Compare( str2 ) != 0 );

  00285	ff 37		 push	 DWORD PTR [edi]
  00287	8b c8		 mov	 ecx, eax
; File D:\git\src\IBK\IBK_DRFN\ProjSrc\SrcChartEx\ChartOCX\GraphDraw\GraphTitleDrawer.cpp

; 242  : 	if(strTitle.Right(TITLE_COMPART.GetLength()) != TITLE_COMPART)

  00289	c6 45 fc 0b	 mov	 BYTE PTR __$EHRec$[ebp+8], 11 ; 0000000bH
; File C:\Program Files (x86)\Microsoft Visual Studio\2019\Community\VC\Tools\MSVC\14.29.30133\atlmfc\include\cstringt.h

; 2560 : 		return( str1.Compare( str2 ) != 0 );

  0028d	ff 15 00 00 00
	00		 call	 DWORD PTR __imp_?Compare@?$CStringT@DV?$StrTraitMFC_DLL@DV?$ChTraitsCRT@D@ATL@@@@@ATL@@QBEHPBD@Z
; File D:\git\src\IBK\IBK_DRFN\ProjSrc\SrcChartEx\ChartOCX\GraphDraw\GraphTitleDrawer.cpp

; 242  : 	if(strTitle.Right(TITLE_COMPART.GetLength()) != TITLE_COMPART)

  00293	8d 4d 0c	 lea	 ecx, DWORD PTR $T11[ebp]
  00296	c6 45 fc 0a	 mov	 BYTE PTR __$EHRec$[ebp+8], 10 ; 0000000aH
; File C:\Program Files (x86)\Microsoft Visual Studio\2019\Community\VC\Tools\MSVC\14.29.30133\atlmfc\include\cstringt.h

; 2560 : 		return( str1.Compare( str2 ) != 0 );

  0029a	8b f0		 mov	 esi, eax
; File D:\git\src\IBK\IBK_DRFN\ProjSrc\SrcChartEx\ChartOCX\GraphDraw\GraphTitleDrawer.cpp

; 242  : 	if(strTitle.Right(TITLE_COMPART.GetLength()) != TITLE_COMPART)

  0029c	ff 15 00 00 00
	00		 call	 DWORD PTR __imp_??1?$CStringT@DV?$StrTraitMFC_DLL@DV?$ChTraitsCRT@D@ATL@@@@@ATL@@QAE@XZ
  002a2	85 f6		 test	 esi, esi
  002a4	74 09		 je	 SHORT $LN9@GetGraphTi

; 243  : 		strTitle += TITLE_COMPART;

  002a6	57		 push	 edi
  002a7	8b cb		 mov	 ecx, ebx
  002a9	ff 15 00 00 00
	00		 call	 DWORD PTR __imp_??Y?$CStringT@DV?$StrTraitMFC_DLL@DV?$ChTraitsCRT@D@ATL@@@@@ATL@@QAEAAV01@ABV?$CSimpleStringT@D$00@1@@Z
$LN9@GetGraphTi:

; 244  : 
; 245  : 	return strTitle;

  002af	8d 4d e8	 lea	 ecx, DWORD PTR _strItemName$[ebp]
  002b2	ff 15 00 00 00
	00		 call	 DWORD PTR __imp_??1?$CStringT@DV?$StrTraitMFC_DLL@DV?$ChTraitsCRT@D@ATL@@@@@ATL@@QAE@XZ
  002b8	8d 4d f0	 lea	 ecx, DWORD PTR _strLanguageTitle$[ebp]
  002bb	ff 15 00 00 00
	00		 call	 DWORD PTR __imp_??1?$CStringT@DV?$StrTraitMFC_DLL@DV?$ChTraitsCRT@D@ATL@@@@@ATL@@QAE@XZ
  002c1	8b c3		 mov	 eax, ebx

; 246  : }

  002c3	8b 4d f4	 mov	 ecx, DWORD PTR __$EHRec$[ebp]
  002c6	64 89 0d 00 00
	00 00		 mov	 DWORD PTR fs:0, ecx
  002cd	59		 pop	 ecx
  002ce	5f		 pop	 edi
  002cf	5e		 pop	 esi
  002d0	5b		 pop	 ebx
  002d1	8b e5		 mov	 esp, ebp
  002d3	5d		 pop	 ebp
  002d4	c2 0c 00	 ret	 12			; 0000000cH
_TEXT	ENDS
;	COMDAT text$x
text$x	SEGMENT
__unwindfunclet$?GetGraphTitle@CGraphTitleDrawer@@ABE?AV?$CStringT@DV?$StrTraitMFC_DLL@DV?$ChTraitsCRT@D@ATL@@@@@ATL@@ABVCSubGraphData@@PAUHWND__@@@Z$0:
  00000	8b 45 ec	 mov	 eax, DWORD PTR $T10[ebp]
  00003	83 e0 01	 and	 eax, 1
  00006	0f 84 0d 00 00
	00		 je	 $LN12@GetGraphTi
  0000c	83 65 ec fe	 and	 DWORD PTR $T10[ebp], -2	; fffffffeH
  00010	8b 4d 08	 mov	 ecx, DWORD PTR ___$ReturnUdt$[ebp]
  00013	ff 25 00 00 00
	00		 jmp	 DWORD PTR __imp_??1?$CStringT@DV?$StrTraitMFC_DLL@DV?$ChTraitsCRT@D@ATL@@@@@ATL@@QAE@XZ
$LN12@GetGraphTi:
  00019	c3		 ret	 0
__unwindfunclet$?GetGraphTitle@CGraphTitleDrawer@@ABE?AV?$CStringT@DV?$StrTraitMFC_DLL@DV?$ChTraitsCRT@D@ATL@@@@@ATL@@ABVCSubGraphData@@PAUHWND__@@@Z$1:
  0001a	8d 4d e0	 lea	 ecx, DWORD PTR $T8[ebp]
  0001d	ff 25 00 00 00
	00		 jmp	 DWORD PTR __imp_??1?$CStringT@DV?$StrTraitMFC_DLL@DV?$ChTraitsCRT@D@ATL@@@@@ATL@@QAE@XZ
__unwindfunclet$?GetGraphTitle@CGraphTitleDrawer@@ABE?AV?$CStringT@DV?$StrTraitMFC_DLL@DV?$ChTraitsCRT@D@ATL@@@@@ATL@@ABVCSubGraphData@@PAUHWND__@@@Z$2:
  00023	8d 4d c8	 lea	 ecx, DWORD PTR $T2[ebp]
  00026	ff 25 00 00 00
	00		 jmp	 DWORD PTR __imp_??1?$CStringT@DV?$StrTraitMFC_DLL@DV?$ChTraitsCRT@D@ATL@@@@@ATL@@QAE@XZ
__unwindfunclet$?GetGraphTitle@CGraphTitleDrawer@@ABE?AV?$CStringT@DV?$StrTraitMFC_DLL@DV?$ChTraitsCRT@D@ATL@@@@@ATL@@ABVCSubGraphData@@PAUHWND__@@@Z$3:
  0002c	8d 4d cc	 lea	 ecx, DWORD PTR $T3[ebp]
  0002f	ff 25 00 00 00
	00		 jmp	 DWORD PTR __imp_??1?$CStringT@DV?$StrTraitMFC_DLL@DV?$ChTraitsCRT@D@ATL@@@@@ATL@@QAE@XZ
__unwindfunclet$?GetGraphTitle@CGraphTitleDrawer@@ABE?AV?$CStringT@DV?$StrTraitMFC_DLL@DV?$ChTraitsCRT@D@ATL@@@@@ATL@@ABVCSubGraphData@@PAUHWND__@@@Z$12:
  00035	8b 45 ec	 mov	 eax, DWORD PTR $T10[ebp]
  00038	83 e0 02	 and	 eax, 2
  0003b	0f 84 0d 00 00
	00		 je	 $LN31@GetGraphTi
  00041	83 65 ec fd	 and	 DWORD PTR $T10[ebp], -3	; fffffffdH
  00045	8d 4d e0	 lea	 ecx, DWORD PTR $T7[ebp]
  00048	ff 25 00 00 00
	00		 jmp	 DWORD PTR __imp_??1?$CStringT@DV?$StrTraitMFC_DLL@DV?$ChTraitsCRT@D@ATL@@@@@ATL@@QAE@XZ
$LN31@GetGraphTi:
  0004e	c3		 ret	 0
__unwindfunclet$?GetGraphTitle@CGraphTitleDrawer@@ABE?AV?$CStringT@DV?$StrTraitMFC_DLL@DV?$ChTraitsCRT@D@ATL@@@@@ATL@@ABVCSubGraphData@@PAUHWND__@@@Z$5:
  0004f	8d 4d d0	 lea	 ecx, DWORD PTR $T4[ebp]
  00052	ff 25 00 00 00
	00		 jmp	 DWORD PTR __imp_??1?$CStringT@DV?$StrTraitMFC_DLL@DV?$ChTraitsCRT@D@ATL@@@@@ATL@@QAE@XZ
__unwindfunclet$?GetGraphTitle@CGraphTitleDrawer@@ABE?AV?$CStringT@DV?$StrTraitMFC_DLL@DV?$ChTraitsCRT@D@ATL@@@@@ATL@@ABVCSubGraphData@@PAUHWND__@@@Z$6:
  00058	8d 4d d4	 lea	 ecx, DWORD PTR $T5[ebp]
  0005b	ff 25 00 00 00
	00		 jmp	 DWORD PTR __imp_??1?$CStringT@DV?$StrTraitMFC_DLL@DV?$ChTraitsCRT@D@ATL@@@@@ATL@@QAE@XZ
__unwindfunclet$?GetGraphTitle@CGraphTitleDrawer@@ABE?AV?$CStringT@DV?$StrTraitMFC_DLL@DV?$ChTraitsCRT@D@ATL@@@@@ATL@@ABVCSubGraphData@@PAUHWND__@@@Z$13:
  00061	8b 45 ec	 mov	 eax, DWORD PTR $T10[ebp]
  00064	83 e0 04	 and	 eax, 4
  00067	0f 84 0d 00 00
	00		 je	 $LN44@GetGraphTi
  0006d	83 65 ec fb	 and	 DWORD PTR $T10[ebp], -5	; fffffffbH
  00071	8d 4d e4	 lea	 ecx, DWORD PTR $T9[ebp]
  00074	ff 25 00 00 00
	00		 jmp	 DWORD PTR __imp_??1?$CStringT@DV?$StrTraitMFC_DLL@DV?$ChTraitsCRT@D@ATL@@@@@ATL@@QAE@XZ
$LN44@GetGraphTi:
  0007a	c3		 ret	 0
__unwindfunclet$?GetGraphTitle@CGraphTitleDrawer@@ABE?AV?$CStringT@DV?$StrTraitMFC_DLL@DV?$ChTraitsCRT@D@ATL@@@@@ATL@@ABVCSubGraphData@@PAUHWND__@@@Z$8:
  0007b	8d 4d d8	 lea	 ecx, DWORD PTR $T6[ebp]
  0007e	ff 25 00 00 00
	00		 jmp	 DWORD PTR __imp_??1?$CStringT@DV?$StrTraitMFC_DLL@DV?$ChTraitsCRT@D@ATL@@@@@ATL@@QAE@XZ
__unwindfunclet$?GetGraphTitle@CGraphTitleDrawer@@ABE?AV?$CStringT@DV?$StrTraitMFC_DLL@DV?$ChTraitsCRT@D@ATL@@@@@ATL@@ABVCSubGraphData@@PAUHWND__@@@Z$9:
  00084	8d 4d f0	 lea	 ecx, DWORD PTR _strLanguageTitle$[ebp]
  00087	ff 25 00 00 00
	00		 jmp	 DWORD PTR __imp_??1?$CStringT@DV?$StrTraitMFC_DLL@DV?$ChTraitsCRT@D@ATL@@@@@ATL@@QAE@XZ
__unwindfunclet$?GetGraphTitle@CGraphTitleDrawer@@ABE?AV?$CStringT@DV?$StrTraitMFC_DLL@DV?$ChTraitsCRT@D@ATL@@@@@ATL@@ABVCSubGraphData@@PAUHWND__@@@Z$10:
  0008d	8d 4d e8	 lea	 ecx, DWORD PTR _strItemName$[ebp]
  00090	ff 25 00 00 00
	00		 jmp	 DWORD PTR __imp_??1?$CStringT@DV?$StrTraitMFC_DLL@DV?$ChTraitsCRT@D@ATL@@@@@ATL@@QAE@XZ
__unwindfunclet$?GetGraphTitle@CGraphTitleDrawer@@ABE?AV?$CStringT@DV?$StrTraitMFC_DLL@DV?$ChTraitsCRT@D@ATL@@@@@ATL@@ABVCSubGraphData@@PAUHWND__@@@Z$11:
  00096	8d 4d 0c	 lea	 ecx, DWORD PTR $T11[ebp]
  00099	ff 25 00 00 00
	00		 jmp	 DWORD PTR __imp_??1?$CStringT@DV?$StrTraitMFC_DLL@DV?$ChTraitsCRT@D@ATL@@@@@ATL@@QAE@XZ
  0009f	cc		 int	 3
  000a0	cc		 int	 3
  000a1	cc		 int	 3
  000a2	cc		 int	 3
  000a3	cc		 int	 3
__ehhandler$?GetGraphTitle@CGraphTitleDrawer@@ABE?AV?$CStringT@DV?$StrTraitMFC_DLL@DV?$ChTraitsCRT@D@ATL@@@@@ATL@@ABVCSubGraphData@@PAUHWND__@@@Z:
  000a4	90		 npad	 1
  000a5	90		 npad	 1
  000a6	8b 54 24 08	 mov	 edx, DWORD PTR [esp+8]
  000aa	8d 42 0c	 lea	 eax, DWORD PTR [edx+12]
  000ad	8b 4a c4	 mov	 ecx, DWORD PTR [edx-60]
  000b0	33 c8		 xor	 ecx, eax
  000b2	e8 00 00 00 00	 call	 @__security_check_cookie@4
  000b7	b8 00 00 00 00	 mov	 eax, OFFSET __ehfuncinfo$?GetGraphTitle@CGraphTitleDrawer@@ABE?AV?$CStringT@DV?$StrTraitMFC_DLL@DV?$ChTraitsCRT@D@ATL@@@@@ATL@@ABVCSubGraphData@@PAUHWND__@@@Z
  000bc	e9 00 00 00 00	 jmp	 ___CxxFrameHandler3
text$x	ENDS
?GetGraphTitle@CGraphTitleDrawer@@ABE?AV?$CStringT@DV?$StrTraitMFC_DLL@DV?$ChTraitsCRT@D@ATL@@@@@ATL@@ABVCSubGraphData@@PAUHWND__@@@Z ENDP ; CGraphTitleDrawer::GetGraphTitle
; Function compile flags: /Ogtp
; File D:\git\src\IBK\IBK_DRFN\ProjSrc\SrcChartEx\ChartOCX\GraphDraw\GraphTitleDrawer.cpp
;	COMDAT ?IsTitleTextColor_Five@CGraphTitleDrawer@@ABE_NABVCSubGraphData@@@Z
_TEXT	SEGMENT
_style$ = -4						; size = 4
_subGraphData$ = 8					; size = 4
?IsTitleTextColor_Five@CGraphTitleDrawer@@ABE_NABVCSubGraphData@@@Z PROC ; CGraphTitleDrawer::IsTitleTextColor_Five, COMDAT
; _this$ = ecx

; 206  : {

  00000	55		 push	 ebp
  00001	8b ec		 mov	 ebp, esp
  00003	51		 push	 ecx

; 207  : 	if(subGraphData.GetType() != CGraphBaseData::Line_Type)

  00004	8b 4d 08	 mov	 ecx, DWORD PTR _subGraphData$[ebp]
  00007	ff 15 00 00 00
	00		 call	 DWORD PTR __imp_?GetType@CSubGraphDataBase@@QBE?AW4GRAPHTYPE@CGraphBaseData@@XZ
  0000d	83 f8 01	 cmp	 eax, 1
  00010	74 08		 je	 SHORT $LN2@IsTitleTex
$LN6@IsTitleTex:

; 212  : }

  00012	32 c0		 xor	 al, al
  00014	8b e5		 mov	 esp, ebp
  00016	5d		 pop	 ebp
  00017	c2 04 00	 ret	 4
$LN2@IsTitleTex:

; 208  : 		return false;
; 209  : 
; 210  : 	CGraphStyle style = subGraphData.GetStyle();

  0001a	8b 4d 08	 mov	 ecx, DWORD PTR _subGraphData$[ebp]
  0001d	8d 45 fc	 lea	 eax, DWORD PTR _style$[ebp]
  00020	50		 push	 eax
  00021	ff 15 00 00 00
	00		 call	 DWORD PTR __imp_?GetStyle@CSubGraphDataBase@@QBE?AVCGraphStyle@@XZ

; 211  : 	return (style.GetGraphLineStyle() == CGraphBaseData::FillLine || style.GetGraphLineStyle() == CGraphBaseData::ComparisonLine);

  00027	8b 45 fc	 mov	 eax, DWORD PTR _style$[ebp]
  0002a	83 f8 01	 cmp	 eax, 1
  0002d	74 05		 je	 SHORT $LN4@IsTitleTex
  0002f	83 f8 06	 cmp	 eax, 6
  00032	75 de		 jne	 SHORT $LN6@IsTitleTex
$LN4@IsTitleTex:
  00034	b0 01		 mov	 al, 1

; 212  : }

  00036	8b e5		 mov	 esp, ebp
  00038	5d		 pop	 ebp
  00039	c2 04 00	 ret	 4
?IsTitleTextColor_Five@CGraphTitleDrawer@@ABE_NABVCSubGraphData@@@Z ENDP ; CGraphTitleDrawer::IsTitleTextColor_Five
_TEXT	ENDS
; Function compile flags: /Ogtp
; File D:\git\src\IBK\IBK_DRFN\ProjSrc\SrcChartEx\ChartOCX\GraphDraw\GraphTitleDrawer.cpp
;	COMDAT ?IsTitleTextColor_StandardValue@CGraphTitleDrawer@@ABE_NPAVCPacket@@ABVCSubGraphData@@@Z
_TEXT	SEGMENT
_style$ = 8						; size = 4
_pPacket$ = 8						; size = 4
_subGraphData$ = 12					; size = 4
?IsTitleTextColor_StandardValue@CGraphTitleDrawer@@ABE_NPAVCPacket@@ABVCSubGraphData@@@Z PROC ; CGraphTitleDrawer::IsTitleTextColor_StandardValue, COMDAT
; _this$ = ecx

; 189  : {

  00000	55		 push	 ebp
  00001	8b ec		 mov	 ebp, esp

; 190  : 	if(pPacket == NULL || !pPacket->IsUseStandardValue())

  00003	8b 4d 08	 mov	 ecx, DWORD PTR _pPacket$[ebp]
  00006	57		 push	 edi
  00007	85 c9		 test	 ecx, ecx
  00009	74 4c		 je	 SHORT $LN3@IsTitleTex
  0000b	6a 00		 push	 0
  0000d	ff 15 00 00 00
	00		 call	 DWORD PTR __imp_?IsUseStandardValue@CPacket@@QBE_NH@Z
  00013	84 c0		 test	 al, al
  00015	74 40		 je	 SHORT $LN3@IsTitleTex

; 191  : 		return false;
; 192  : 
; 193  : 	CGraphBaseData::GRAPHTYPE eType = subGraphData.GetType();

  00017	8b 4d 0c	 mov	 ecx, DWORD PTR _subGraphData$[ebp]
  0001a	ff 15 00 00 00
	00		 call	 DWORD PTR __imp_?GetType@CSubGraphDataBase@@QBE?AW4GRAPHTYPE@CGraphBaseData@@XZ

; 194  : 	CGraphStyle style = subGraphData.GetStyle();

  00020	8b 4d 0c	 mov	 ecx, DWORD PTR _subGraphData$[ebp]
  00023	8b f8		 mov	 edi, eax
  00025	8d 45 08	 lea	 eax, DWORD PTR _style$[ebp]
  00028	50		 push	 eax
  00029	ff 15 00 00 00
	00		 call	 DWORD PTR __imp_?GetStyle@CSubGraphDataBase@@QBE?AVCGraphStyle@@XZ

; 195  : 	if(eType == CGraphBaseData::Bong_Type)

  0002f	85 ff		 test	 edi, edi
  00031	75 0c		 jne	 SHORT $LN4@IsTitleTex

; 196  : 		return (style.GetGraphBongStyle() == CGraphBaseData::LineBong);

  00033	83 7d 08 02	 cmp	 DWORD PTR _style$[ebp], 2
  00037	5f		 pop	 edi
  00038	0f 94 c0	 sete	 al

; 199  : 
; 200  : 	return false;
; 201  : }

  0003b	5d		 pop	 ebp
  0003c	c2 08 00	 ret	 8
$LN4@IsTitleTex:

; 197  : 	else if(eType == CGraphBaseData::Line_Type)

  0003f	83 ff 01	 cmp	 edi, 1
  00042	75 13		 jne	 SHORT $LN3@IsTitleTex

; 198  : 		return (style.GetGraphLineStyle() == CGraphBaseData::FillLine || style.GetGraphLineStyle() == CGraphBaseData::ComparisonLine);

  00044	8b 45 08	 mov	 eax, DWORD PTR _style$[ebp]
  00047	3b c7		 cmp	 eax, edi
  00049	74 05		 je	 SHORT $LN8@IsTitleTex
  0004b	83 f8 06	 cmp	 eax, 6
  0004e	75 07		 jne	 SHORT $LN3@IsTitleTex
$LN8@IsTitleTex:
  00050	b0 01		 mov	 al, 1
  00052	5f		 pop	 edi

; 199  : 
; 200  : 	return false;
; 201  : }

  00053	5d		 pop	 ebp
  00054	c2 08 00	 ret	 8
$LN3@IsTitleTex:
  00057	32 c0		 xor	 al, al
  00059	5f		 pop	 edi
  0005a	5d		 pop	 ebp
  0005b	c2 08 00	 ret	 8
?IsTitleTextColor_StandardValue@CGraphTitleDrawer@@ABE_NPAVCPacket@@ABVCSubGraphData@@@Z ENDP ; CGraphTitleDrawer::IsTitleTextColor_StandardValue
_TEXT	ENDS
; Function compile flags: /Ogtp
; File D:\git\src\IBK\IBK_DRFN\ProjSrc\SrcChartEx\ChartOCX\GraphDraw\GraphTitleDrawer.cpp
; File C:\Program Files (x86)\Microsoft Visual Studio\2019\Community\VC\Tools\MSVC\14.29.30133\atlmfc\include\atlsimpstr.h
; File D:\git\src\IBK\IBK_DRFN\ProjSrc\SrcChartEx\ChartOCX\GraphDraw\GraphTitleDrawer.cpp
; File C:\Program Files (x86)\Microsoft Visual Studio\2019\Community\VC\Tools\MSVC\14.29.30133\atlmfc\include\cstringt.h
; File D:\git\src\IBK\IBK_DRFN\ProjSrc\SrcChartEx\ChartOCX\GraphDraw\GraphTitleDrawer.cpp
; File C:\Program Files (x86)\Microsoft Visual Studio\2019\Community\VC\Tools\MSVC\14.29.30133\atlmfc\include\cstringt.h
; File D:\git\src\IBK\IBK_DRFN\ProjSrc\SrcChartEx\ChartOCX\GraphDraw\GraphTitleDrawer.cpp
; File C:\Program Files (x86)\Microsoft Visual Studio\2019\Community\VC\Tools\MSVC\14.29.30133\atlmfc\include\cstringt.h
; File D:\git\src\IBK\IBK_DRFN\ProjSrc\SrcChartEx\ChartOCX\GraphDraw\GraphTitleDrawer.cpp
;	COMDAT ?IsGraphTitleRegionDraw@CGraphTitleDrawer@@ABE_NABV?$CStringT@DV?$StrTraitMFC_DLL@DV?$ChTraitsCRT@D@ATL@@@@@ATL@@@Z
_TEXT	SEGMENT
$T2 = -16						; size = 4
__$EHRec$ = -12						; size = 12
_strTitle$ = 8						; size = 4
?IsGraphTitleRegionDraw@CGraphTitleDrawer@@ABE_NABV?$CStringT@DV?$StrTraitMFC_DLL@DV?$ChTraitsCRT@D@ATL@@@@@ATL@@@Z PROC ; CGraphTitleDrawer::IsGraphTitleRegionDraw, COMDAT
; _this$ = ecx

; 182  : {

  00000	55		 push	 ebp
  00001	8b ec		 mov	 ebp, esp
  00003	6a ff		 push	 -1
  00005	68 00 00 00 00	 push	 __ehhandler$?IsGraphTitleRegionDraw@CGraphTitleDrawer@@ABE_NABV?$CStringT@DV?$StrTraitMFC_DLL@DV?$ChTraitsCRT@D@ATL@@@@@ATL@@@Z
  0000a	64 a1 00 00 00
	00		 mov	 eax, DWORD PTR fs:0
  00010	50		 push	 eax
  00011	51		 push	 ecx
  00012	53		 push	 ebx
  00013	56		 push	 esi
  00014	a1 00 00 00 00	 mov	 eax, DWORD PTR ___security_cookie
  00019	33 c5		 xor	 eax, ebp
  0001b	50		 push	 eax
  0001c	8d 45 f4	 lea	 eax, DWORD PTR __$EHRec$[ebp]
  0001f	64 a3 00 00 00
	00		 mov	 DWORD PTR fs:0, eax
  00025	8b f1		 mov	 esi, ecx
; File C:\Program Files (x86)\Microsoft Visual Studio\2019\Community\VC\Tools\MSVC\14.29.30133\atlmfc\include\atlsimpstr.h

; 519  : 		return( GetData()->nDataLength );

  00027	8b 06		 mov	 eax, DWORD PTR [esi]
; File D:\git\src\IBK\IBK_DRFN\ProjSrc\SrcChartEx\ChartOCX\GraphDraw\GraphTitleDrawer.cpp

; 183  : 	return (strTitle.Left(NODRAW_TITLEREGION.GetLength()) != NODRAW_TITLEREGION);

  00029	8b 4d 08	 mov	 ecx, DWORD PTR _strTitle$[ebp]
  0002c	ff 70 f4	 push	 DWORD PTR [eax-12]
  0002f	8d 45 f0	 lea	 eax, DWORD PTR $T2[ebp]
  00032	50		 push	 eax
  00033	ff 15 00 00 00
	00		 call	 DWORD PTR __imp_?Left@?$CStringT@DV?$StrTraitMFC_DLL@DV?$ChTraitsCRT@D@ATL@@@@@ATL@@QBE?AV12@H@Z
; File C:\Program Files (x86)\Microsoft Visual Studio\2019\Community\VC\Tools\MSVC\14.29.30133\atlmfc\include\cstringt.h

; 2560 : 		return( str1.Compare( str2 ) != 0 );

  00039	ff 36		 push	 DWORD PTR [esi]
  0003b	8b c8		 mov	 ecx, eax
; File D:\git\src\IBK\IBK_DRFN\ProjSrc\SrcChartEx\ChartOCX\GraphDraw\GraphTitleDrawer.cpp

; 183  : 	return (strTitle.Left(NODRAW_TITLEREGION.GetLength()) != NODRAW_TITLEREGION);

  0003d	c7 45 fc 00 00
	00 00		 mov	 DWORD PTR __$EHRec$[ebp+8], 0
; File C:\Program Files (x86)\Microsoft Visual Studio\2019\Community\VC\Tools\MSVC\14.29.30133\atlmfc\include\cstringt.h

; 2560 : 		return( str1.Compare( str2 ) != 0 );

  00044	ff 15 00 00 00
	00		 call	 DWORD PTR __imp_?Compare@?$CStringT@DV?$StrTraitMFC_DLL@DV?$ChTraitsCRT@D@ATL@@@@@ATL@@QBEHPBD@Z
  0004a	85 c0		 test	 eax, eax
; File D:\git\src\IBK\IBK_DRFN\ProjSrc\SrcChartEx\ChartOCX\GraphDraw\GraphTitleDrawer.cpp

; 183  : 	return (strTitle.Left(NODRAW_TITLEREGION.GetLength()) != NODRAW_TITLEREGION);

  0004c	8d 4d f0	 lea	 ecx, DWORD PTR $T2[ebp]
; File C:\Program Files (x86)\Microsoft Visual Studio\2019\Community\VC\Tools\MSVC\14.29.30133\atlmfc\include\cstringt.h

; 2560 : 		return( str1.Compare( str2 ) != 0 );

  0004f	0f 95 c3	 setne	 bl
; File D:\git\src\IBK\IBK_DRFN\ProjSrc\SrcChartEx\ChartOCX\GraphDraw\GraphTitleDrawer.cpp

; 183  : 	return (strTitle.Left(NODRAW_TITLEREGION.GetLength()) != NODRAW_TITLEREGION);

  00052	ff 15 00 00 00
	00		 call	 DWORD PTR __imp_??1?$CStringT@DV?$StrTraitMFC_DLL@DV?$ChTraitsCRT@D@ATL@@@@@ATL@@QAE@XZ
  00058	8a c3		 mov	 al, bl

; 184  : }

  0005a	8b 4d f4	 mov	 ecx, DWORD PTR __$EHRec$[ebp]
  0005d	64 89 0d 00 00
	00 00		 mov	 DWORD PTR fs:0, ecx
  00064	59		 pop	 ecx
  00065	5e		 pop	 esi
  00066	5b		 pop	 ebx
  00067	8b e5		 mov	 esp, ebp
  00069	5d		 pop	 ebp
  0006a	c2 04 00	 ret	 4
_TEXT	ENDS
;	COMDAT text$x
text$x	SEGMENT
__unwindfunclet$?IsGraphTitleRegionDraw@CGraphTitleDrawer@@ABE_NABV?$CStringT@DV?$StrTraitMFC_DLL@DV?$ChTraitsCRT@D@ATL@@@@@ATL@@@Z$0:
  00000	8d 4d f0	 lea	 ecx, DWORD PTR $T2[ebp]
  00003	ff 25 00 00 00
	00		 jmp	 DWORD PTR __imp_??1?$CStringT@DV?$StrTraitMFC_DLL@DV?$ChTraitsCRT@D@ATL@@@@@ATL@@QAE@XZ
  00009	cc		 int	 3
  0000a	cc		 int	 3
  0000b	cc		 int	 3
  0000c	cc		 int	 3
  0000d	cc		 int	 3
__ehhandler$?IsGraphTitleRegionDraw@CGraphTitleDrawer@@ABE_NABV?$CStringT@DV?$StrTraitMFC_DLL@DV?$ChTraitsCRT@D@ATL@@@@@ATL@@@Z:
  0000e	90		 npad	 1
  0000f	90		 npad	 1
  00010	8b 54 24 08	 mov	 edx, DWORD PTR [esp+8]
  00014	8d 42 0c	 lea	 eax, DWORD PTR [edx+12]
  00017	8b 4a f0	 mov	 ecx, DWORD PTR [edx-16]
  0001a	33 c8		 xor	 ecx, eax
  0001c	e8 00 00 00 00	 call	 @__security_check_cookie@4
  00021	b8 00 00 00 00	 mov	 eax, OFFSET __ehfuncinfo$?IsGraphTitleRegionDraw@CGraphTitleDrawer@@ABE_NABV?$CStringT@DV?$StrTraitMFC_DLL@DV?$ChTraitsCRT@D@ATL@@@@@ATL@@@Z
  00026	e9 00 00 00 00	 jmp	 ___CxxFrameHandler3
text$x	ENDS
?IsGraphTitleRegionDraw@CGraphTitleDrawer@@ABE_NABV?$CStringT@DV?$StrTraitMFC_DLL@DV?$ChTraitsCRT@D@ATL@@@@@ATL@@@Z ENDP ; CGraphTitleDrawer::IsGraphTitleRegionDraw
; Function compile flags: /Ogtp
; File D:\git\src\IBK\IBK_DRFN\ProjSrc\SrcChartEx\ChartOCX\GraphDraw\GraphTitleDrawer.cpp
; File C:\Program Files (x86)\Microsoft Visual Studio\2019\Community\VC\Tools\MSVC\14.29.30133\atlmfc\include\atlsimpstr.h
; File D:\git\src\IBK\IBK_DRFN\ProjSrc\SrcChartEx\ChartOCX\GraphDraw\GraphTitleDrawer.cpp
; File C:\Program Files (x86)\Microsoft Visual Studio\2019\Community\VC\Tools\MSVC\14.29.30133\atlmfc\include\cstringt.h
; File D:\git\src\IBK\IBK_DRFN\ProjSrc\SrcChartEx\ChartOCX\GraphDraw\GraphTitleDrawer.cpp
;	COMDAT ?IsGraphTitleDraw@CGraphTitleDrawer@@ABE_NABV?$CStringT@DV?$StrTraitMFC_DLL@DV?$ChTraitsCRT@D@ATL@@@@@ATL@@ABVCGraphRegions@@@Z
_TEXT	SEGMENT
_strTitle$ = 8						; size = 4
_graphRegions$ = 12					; size = 4
?IsGraphTitleDraw@CGraphTitleDrawer@@ABE_NABV?$CStringT@DV?$StrTraitMFC_DLL@DV?$ChTraitsCRT@D@ATL@@@@@ATL@@ABVCGraphRegions@@@Z PROC ; CGraphTitleDrawer::IsGraphTitleDraw, COMDAT
; _this$ = ecx

; 172  : {

  00000	55		 push	 ebp
  00001	8b ec		 mov	 ebp, esp

; 173  : 	if(!graphRegions.IsTitle())

  00003	8b 4d 0c	 mov	 ecx, DWORD PTR _graphRegions$[ebp]
  00006	e8 00 00 00 00	 call	 ?IsTitle@CGraphRegions@@QBE_NXZ ; CGraphRegions::IsTitle
  0000b	84 c0		 test	 al, al
  0000d	74 20		 je	 SHORT $LN4@IsGraphTit
; File C:\Program Files (x86)\Microsoft Visual Studio\2019\Community\VC\Tools\MSVC\14.29.30133\atlmfc\include\atlsimpstr.h

; 533  : 		return( GetLength() == 0 );

  0000f	8b 4d 08	 mov	 ecx, DWORD PTR _strTitle$[ebp]
  00012	8b 01		 mov	 eax, DWORD PTR [ecx]
  00014	83 78 f4 00	 cmp	 DWORD PTR [eax-12], 0
; File D:\git\src\IBK\IBK_DRFN\ProjSrc\SrcChartEx\ChartOCX\GraphDraw\GraphTitleDrawer.cpp

; 177  : 	return (!strTitle.IsEmpty() && strTitle != " ");

  00018	74 15		 je	 SHORT $LN4@IsGraphTit
; File C:\Program Files (x86)\Microsoft Visual Studio\2019\Community\VC\Tools\MSVC\14.29.30133\atlmfc\include\cstringt.h

; 2567 : 		return( str1.Compare( psz2 ) != 0 );

  0001a	68 00 00 00 00	 push	 OFFSET ??_C@_01CLKCMJKC@?5@
  0001f	ff 15 00 00 00
	00		 call	 DWORD PTR __imp_?Compare@?$CStringT@DV?$StrTraitMFC_DLL@DV?$ChTraitsCRT@D@ATL@@@@@ATL@@QBEHPBD@Z
  00025	85 c0		 test	 eax, eax
; File D:\git\src\IBK\IBK_DRFN\ProjSrc\SrcChartEx\ChartOCX\GraphDraw\GraphTitleDrawer.cpp

; 177  : 	return (!strTitle.IsEmpty() && strTitle != " ");

  00027	74 06		 je	 SHORT $LN4@IsGraphTit
  00029	b0 01		 mov	 al, 1

; 178  : }

  0002b	5d		 pop	 ebp
  0002c	c2 08 00	 ret	 8
$LN4@IsGraphTit:
  0002f	32 c0		 xor	 al, al
  00031	5d		 pop	 ebp
  00032	c2 08 00	 ret	 8
?IsGraphTitleDraw@CGraphTitleDrawer@@ABE_NABV?$CStringT@DV?$StrTraitMFC_DLL@DV?$ChTraitsCRT@D@ATL@@@@@ATL@@ABVCGraphRegions@@@Z ENDP ; CGraphTitleDrawer::IsGraphTitleDraw
_TEXT	ENDS
; Function compile flags: /Ogtp
; File D:\git\src\IBK\IBK_DRFN\ProjSrc\SrcChartEx\ChartOCX\GraphDraw\GraphTitleDrawer.cpp
; File C:\Program Files (x86)\Microsoft Visual Studio\2019\Community\VC\Tools\MSVC\14.29.30133\atlmfc\include\afxwin1.inl
; File D:\git\src\IBK\IBK_DRFN\ProjSrc\SrcChartEx\ChartOCX\GraphDraw\GraphTitleDrawer.cpp
; File C:\Program Files (x86)\Microsoft Visual Studio\2019\Community\VC\Tools\MSVC\14.29.30133\atlmfc\include\afxwin1.inl
; File D:\git\src\IBK\IBK_DRFN\ProjSrc\SrcChartEx\ChartOCX\GraphDraw\GraphTitleDrawer.cpp
; File C:\Program Files (x86)\Microsoft Visual Studio\2019\Community\VC\Tools\MSVC\14.29.30133\atlmfc\include\cstringt.h
; File D:\git\src\IBK\IBK_DRFN\ProjSrc\SrcChartEx\ChartOCX\GraphDraw\GraphTitleDrawer.cpp
; File C:\Program Files (x86)\Microsoft Visual Studio\2019\Community\VC\Tools\MSVC\14.29.30133\atlmfc\include\cstringt.h
; File D:\git\src\IBK\IBK_DRFN\ProjSrc\SrcChartEx\ChartOCX\GraphDraw\GraphTitleDrawer.cpp
; File C:\Program Files (x86)\Microsoft Visual Studio\2019\Community\VC\Tools\MSVC\14.29.30133\atlmfc\include\cstringt.h
; File D:\git\src\IBK\IBK_DRFN\ProjSrc\SrcChartEx\ChartOCX\GraphDraw\GraphTitleDrawer.cpp
; File C:\Program Files (x86)\Microsoft Visual Studio\2019\Community\VC\Tools\MSVC\14.29.30133\atlmfc\include\cstringt.h
; File C:\Program Files (x86)\Microsoft Visual Studio\2019\Community\VC\Tools\MSVC\14.29.30133\atlmfc\include\atlsimpstr.h
; File C:\Program Files (x86)\Microsoft Visual Studio\2019\Community\VC\Tools\MSVC\14.29.30133\atlmfc\include\cstringt.h
; File C:\Program Files (x86)\Microsoft Visual Studio\2019\Community\VC\Tools\MSVC\14.29.30133\atlmfc\include\atlsimpstr.h
; File C:\Program Files (x86)\Microsoft Visual Studio\2019\Community\VC\Tools\MSVC\14.29.30133\atlmfc\include\cstringt.h
; File D:\git\src\IBK\IBK_DRFN\ProjSrc\SrcChartEx\ChartOCX\GraphDraw\GraphTitleDrawer.cpp
; File C:\Program Files (x86)\Microsoft Visual Studio\2019\Community\VC\Tools\MSVC\14.29.30133\atlmfc\include\afxwin1.inl
; File D:\git\src\IBK\IBK_DRFN\ProjSrc\SrcChartEx\ChartOCX\GraphDraw\GraphTitleDrawer.cpp
; File C:\Program Files (x86)\Microsoft Visual Studio\2019\Community\VC\Tools\MSVC\14.29.30133\atlmfc\include\afxwin1.inl
; File D:\git\src\IBK\IBK_DRFN\ProjSrc\SrcChartEx\ChartOCX\GraphDraw\GraphTitleDrawer.cpp
; File C:\Program Files (x86)\Microsoft Visual Studio\2019\Community\VC\Tools\MSVC\14.29.30133\atlmfc\include\atlsimpstr.h
; File D:\git\src\IBK\IBK_DRFN\ProjSrc\SrcChartEx\ChartOCX\GraphDraw\GraphTitleDrawer.cpp
; File C:\Program Files (x86)\Microsoft Visual Studio\2019\Community\VC\Tools\MSVC\14.29.30133\atlmfc\include\afxwin1.inl
; File D:\git\src\IBK\IBK_DRFN\ProjSrc\SrcChartEx\ChartOCX\GraphDraw\GraphTitleDrawer.cpp
; File C:\Program Files (x86)\Microsoft Visual Studio\2019\Community\VC\Tools\MSVC\14.29.30133\atlmfc\include\afxwin1.inl
; File D:\git\src\IBK\IBK_DRFN\ProjSrc\SrcChartEx\ChartOCX\GraphDraw\GraphTitleDrawer.cpp
; File C:\Program Files (x86)\Microsoft Visual Studio\2019\Community\VC\Tools\MSVC\14.29.30133\atlmfc\include\afxwin1.inl
; File D:\git\src\IBK\IBK_DRFN\ProjSrc\SrcChartEx\ChartOCX\GraphDraw\GraphTitleDrawer.cpp
; File C:\Program Files (x86)\Microsoft Visual Studio\2019\Community\VC\Tools\MSVC\14.29.30133\atlmfc\include\cstringt.h
; File D:\git\src\IBK\IBK_DRFN\ProjSrc\SrcChartEx\ChartOCX\GraphDraw\GraphTitleDrawer.cpp
; File C:\Program Files (x86)\Microsoft Visual Studio\2019\Community\VC\Tools\MSVC\14.29.30133\atlmfc\include\atlsimpstr.h
; File D:\git\src\IBK\IBK_DRFN\ProjSrc\SrcChartEx\ChartOCX\GraphDraw\GraphTitleDrawer.cpp
; File C:\Program Files (x86)\Microsoft Visual Studio\2019\Community\VC\Tools\MSVC\14.29.30133\atlmfc\include\afxwin1.inl
; File D:\git\src\IBK\IBK_DRFN\ProjSrc\SrcChartEx\ChartOCX\GraphDraw\GraphTitleDrawer.cpp
; File C:\Program Files (x86)\Microsoft Visual Studio\2019\Community\VC\Tools\MSVC\14.29.30133\atlmfc\include\afxwin1.inl
; File D:\git\src\IBK\IBK_DRFN\ProjSrc\SrcChartEx\ChartOCX\GraphDraw\GraphTitleDrawer.cpp
; File C:\Program Files (x86)\Microsoft Visual Studio\2019\Community\VC\Tools\MSVC\14.29.30133\atlmfc\include\afxwin1.inl
; File D:\git\src\IBK\IBK_DRFN\ProjSrc\SrcChartEx\ChartOCX\GraphDraw\GraphTitleDrawer.cpp
; File C:\Program Files (x86)\Microsoft Visual Studio\2019\Community\VC\Tools\MSVC\14.29.30133\atlmfc\include\atlsimpstr.h
; File D:\git\src\IBK\IBK_DRFN\ProjSrc\SrcChartEx\ChartOCX\GraphDraw\GraphTitleDrawer.cpp
; File C:\Program Files (x86)\Microsoft Visual Studio\2019\Community\VC\Tools\MSVC\14.29.30133\atlmfc\include\afxwin1.inl
; File D:\git\src\IBK\IBK_DRFN\ProjSrc\SrcChartEx\ChartOCX\GraphDraw\GraphTitleDrawer.cpp
; File C:\Program Files (x86)\Microsoft Visual Studio\2019\Community\VC\Tools\MSVC\14.29.30133\atlmfc\include\afxwin1.inl
; File D:\git\src\IBK\IBK_DRFN\ProjSrc\SrcChartEx\ChartOCX\GraphDraw\GraphTitleDrawer.cpp
; File C:\Program Files (x86)\Microsoft Visual Studio\2019\Community\VC\Tools\MSVC\14.29.30133\atlmfc\include\afxwin1.inl
; File D:\git\src\IBK\IBK_DRFN\ProjSrc\SrcChartEx\ChartOCX\GraphDraw\GraphTitleDrawer.cpp
; File C:\Program Files (x86)\Microsoft Visual Studio\2019\Community\VC\Tools\MSVC\14.29.30133\atlmfc\include\atlsimpstr.h
; File C:\Program Files (x86)\Microsoft Visual Studio\2019\Community\VC\Tools\MSVC\14.29.30133\atlmfc\include\afxwin1.inl
; File D:\git\src\IBK\IBK_DRFN\ProjSrc\SrcChartEx\ChartOCX\GraphDraw\GraphTitleDrawer.cpp
; File C:\Program Files (x86)\Microsoft Visual Studio\2019\Community\VC\Tools\MSVC\14.29.30133\atlmfc\include\afxwin1.inl
; File D:\git\src\IBK\IBK_DRFN\ProjSrc\SrcChartEx\ChartOCX\GraphDraw\GraphTitleDrawer.cpp
; File C:\Program Files (x86)\Microsoft Visual Studio\2019\Community\VC\Tools\MSVC\14.29.30133\atlmfc\include\afxwin1.inl
; File D:\git\src\IBK\IBK_DRFN\ProjSrc\SrcChartEx\ChartOCX\GraphDraw\GraphTitleDrawer.cpp
;	COMDAT ?DrawGraphTitleText@CGraphTitleDrawer@@AAEXPAVCDC@@ABVCPoint@@ABV?$CStringT@DV?$StrTraitMFC_DLL@DV?$ChTraitsCRT@D@ATL@@@@@ATL@@ABK3@Z
_TEXT	SEGMENT
_ordColor$1$ = -24					; size = 4
_nOldMode$1$ = -20					; size = 4
$T2 = -16						; size = 4
__$EHRec$ = -12						; size = 12
$T3 = 8							; size = 4
$T4 = 8							; size = 4
_pDC$ = 8						; size = 4
$T5 = 12						; size = 4
_titlePoint$ = 12					; size = 4
$T6 = 16						; size = 4
_strTitle$ = 16						; size = 4
$T7 = 20						; size = 4
_color1$ = 20						; size = 4
_color2$ = 24						; size = 4
?DrawGraphTitleText@CGraphTitleDrawer@@AAEXPAVCDC@@ABVCPoint@@ABV?$CStringT@DV?$StrTraitMFC_DLL@DV?$ChTraitsCRT@D@ATL@@@@@ATL@@ABK3@Z PROC ; CGraphTitleDrawer::DrawGraphTitleText, COMDAT
; _this$ = ecx

; 144  : {

  00000	55		 push	 ebp
  00001	8b ec		 mov	 ebp, esp
  00003	6a ff		 push	 -1
  00005	68 00 00 00 00	 push	 __ehhandler$?DrawGraphTitleText@CGraphTitleDrawer@@AAEXPAVCDC@@ABVCPoint@@ABV?$CStringT@DV?$StrTraitMFC_DLL@DV?$ChTraitsCRT@D@ATL@@@@@ATL@@ABK3@Z
  0000a	64 a1 00 00 00
	00		 mov	 eax, DWORD PTR fs:0
  00010	50		 push	 eax
  00011	83 ec 0c	 sub	 esp, 12			; 0000000cH
  00014	53		 push	 ebx
  00015	56		 push	 esi
  00016	57		 push	 edi
  00017	a1 00 00 00 00	 mov	 eax, DWORD PTR ___security_cookie
  0001c	33 c5		 xor	 eax, ebp
  0001e	50		 push	 eax
  0001f	8d 45 f4	 lea	 eax, DWORD PTR __$EHRec$[ebp]
  00022	64 a3 00 00 00
	00		 mov	 DWORD PTR fs:0, eax
  00028	c7 45 f0 00 00
	00 00		 mov	 DWORD PTR $T2[ebp], 0

; 145  : 	int nOldMode = pDC->SetBkMode(TRANSPARENT);

  0002f	8b 7d 08	 mov	 edi, DWORD PTR _pDC$[ebp]
  00032	8b cf		 mov	 ecx, edi
  00034	6a 01		 push	 1
  00036	e8 00 00 00 00	 call	 ?SetBkMode@CDC@@QAEHH@Z	; CDC::SetBkMode
; File C:\Program Files (x86)\Microsoft Visual Studio\2019\Community\VC\Tools\MSVC\14.29.30133\atlmfc\include\afxwin1.inl

; 384  : 	{ ASSERT(m_hAttribDC != NULL); return ::GetTextColor(m_hAttribDC); }

  0003b	ff 77 08	 push	 DWORD PTR [edi+8]
; File D:\git\src\IBK\IBK_DRFN\ProjSrc\SrcChartEx\ChartOCX\GraphDraw\GraphTitleDrawer.cpp

; 145  : 	int nOldMode = pDC->SetBkMode(TRANSPARENT);

  0003e	89 45 ec	 mov	 DWORD PTR _nOldMode$1$[ebp], eax
; File C:\Program Files (x86)\Microsoft Visual Studio\2019\Community\VC\Tools\MSVC\14.29.30133\atlmfc\include\afxwin1.inl

; 384  : 	{ ASSERT(m_hAttribDC != NULL); return ::GetTextColor(m_hAttribDC); }

  00041	ff 15 00 00 00
	00		 call	 DWORD PTR __imp__GetTextColor@4
; File D:\git\src\IBK\IBK_DRFN\ProjSrc\SrcChartEx\ChartOCX\GraphDraw\GraphTitleDrawer.cpp

; 147  : 	pDC->SetTextColor(color1);

  00047	8b 4d 14	 mov	 ecx, DWORD PTR _color1$[ebp]
  0004a	8b 17		 mov	 edx, DWORD PTR [edi]
  0004c	89 45 e8	 mov	 DWORD PTR _ordColor$1$[ebp], eax
  0004f	ff 31		 push	 DWORD PTR [ecx]
  00051	8b cf		 mov	 ecx, edi
  00053	ff 52 38	 call	 DWORD PTR [edx+56]

; 149  : 	if(strTitle == _MTEXT( C3_NEWS_AND_NOTICE))

  00056	8b 0d 54 00 00
	00		 mov	 ecx, DWORD PTR ?g_iMetaTable@@3VIMetaTable@@A+84
; File C:\Program Files (x86)\Microsoft Visual Studio\2019\Community\VC\Tools\MSVC\14.29.30133\atlmfc\include\cstringt.h

; 2486 : 		return(str1.Compare(psz2) == 0);

  0005c	8b 75 10	 mov	 esi, DWORD PTR _strTitle$[ebp]
  0005f	ff b1 d8 04 00
	00		 push	 DWORD PTR [ecx+1240]
  00065	8b ce		 mov	 ecx, esi
  00067	ff 15 00 00 00
	00		 call	 DWORD PTR __imp_?Compare@?$CStringT@DV?$StrTraitMFC_DLL@DV?$ChTraitsCRT@D@ATL@@@@@ATL@@QBEHPBD@Z
; File D:\git\src\IBK\IBK_DRFN\ProjSrc\SrcChartEx\ChartOCX\GraphDraw\GraphTitleDrawer.cpp

; 149  : 	if(strTitle == _MTEXT( C3_NEWS_AND_NOTICE))

  0006d	8b 5d 0c	 mov	 ebx, DWORD PTR _titlePoint$[ebp]
; File C:\Program Files (x86)\Microsoft Visual Studio\2019\Community\VC\Tools\MSVC\14.29.30133\atlmfc\include\cstringt.h

; 2486 : 		return(str1.Compare(psz2) == 0);

  00070	85 c0		 test	 eax, eax
; File D:\git\src\IBK\IBK_DRFN\ProjSrc\SrcChartEx\ChartOCX\GraphDraw\GraphTitleDrawer.cpp

; 149  : 	if(strTitle == _MTEXT( C3_NEWS_AND_NOTICE))

  00072	0f 85 d9 00 00
	00		 jne	 $LN2@DrawGraphT

; 151  : 		pDC->TextOut(titlePoint.x+4+MARGIN/2, titlePoint.y + MARGIN, CString( _MTEXT( C6_NEWS)) + " ");

  00078	a1 54 00 00 00	 mov	 eax, DWORD PTR ?g_iMetaTable@@3VIMetaTable@@A+84
  0007d	8d 4d 0c	 lea	 ecx, DWORD PTR $T5[ebp]
  00080	ff b0 a4 09 00
	00		 push	 DWORD PTR [eax+2468]
  00086	ff 15 00 00 00
	00		 call	 DWORD PTR __imp_??0?$CStringT@DV?$StrTraitMFC_DLL@DV?$ChTraitsCRT@D@ATL@@@@@ATL@@QAE@PBD@Z
  0008c	8b f0		 mov	 esi, eax
; File C:\Program Files (x86)\Microsoft Visual Studio\2019\Community\VC\Tools\MSVC\14.29.30133\atlmfc\include\cstringt.h

; 2401 : 		CStringT strResult( str1.GetManager() );

  0008e	8b ce		 mov	 ecx, esi
; File D:\git\src\IBK\IBK_DRFN\ProjSrc\SrcChartEx\ChartOCX\GraphDraw\GraphTitleDrawer.cpp

; 151  : 		pDC->TextOut(titlePoint.x+4+MARGIN/2, titlePoint.y + MARGIN, CString( _MTEXT( C6_NEWS)) + " ");

  00090	c7 45 fc 01 00
	00 00		 mov	 DWORD PTR __$EHRec$[ebp+8], 1
; File C:\Program Files (x86)\Microsoft Visual Studio\2019\Community\VC\Tools\MSVC\14.29.30133\atlmfc\include\cstringt.h

; 2401 : 		CStringT strResult( str1.GetManager() );

  00097	ff 15 00 00 00
	00		 call	 DWORD PTR __imp_?GetManager@?$CStringT@DV?$StrTraitMFC_DLL@DV?$ChTraitsCRT@D@ATL@@@@@ATL@@QBEPAUIAtlStringMgr@2@XZ
  0009d	50		 push	 eax
  0009e	8d 4d 08	 lea	 ecx, DWORD PTR $T4[ebp]
  000a1	ff 15 00 00 00
	00		 call	 DWORD PTR __imp_??0?$CStringT@DV?$StrTraitMFC_DLL@DV?$ChTraitsCRT@D@ATL@@@@@ATL@@QAE@PAUIAtlStringMgr@1@@Z
; File C:\Program Files (x86)\Microsoft Visual Studio\2019\Community\VC\Tools\MSVC\14.29.30133\atlmfc\include\atlsimpstr.h

; 519  : 		return( GetData()->nDataLength );

  000a7	8b 06		 mov	 eax, DWORD PTR [esi]
; File C:\Program Files (x86)\Microsoft Visual Studio\2019\Community\VC\Tools\MSVC\14.29.30133\atlmfc\include\cstringt.h

; 2403 : 		CThisSimpleString::Concatenate( strResult, str1, str1.GetLength(), psz2, CThisSimpleString::StringLength( psz2 ) );

  000a9	6a 01		 push	 1
  000ab	68 00 00 00 00	 push	 OFFSET ??_C@_01CLKCMJKC@?5@

; 2404 : 
; 2405 : 		return( strResult );

  000b0	c7 45 f0 01 00
	00 00		 mov	 DWORD PTR $T2[ebp], 1
  000b7	ff 70 f4	 push	 DWORD PTR [eax-12]
  000ba	50		 push	 eax
  000bb	8d 45 08	 lea	 eax, DWORD PTR $T4[ebp]
  000be	50		 push	 eax
  000bf	ff 15 00 00 00
	00		 call	 DWORD PTR __imp_?Concatenate@?$CSimpleStringT@D$00@ATL@@KAXAAV12@PBDH1H@Z
; File C:\Program Files (x86)\Microsoft Visual Studio\2019\Community\VC\Tools\MSVC\14.29.30133\atlmfc\include\atlsimpstr.h

; 519  : 		return( GetData()->nDataLength );

  000c5	8b 45 08	 mov	 eax, DWORD PTR $T4[ebp]
; File C:\Program Files (x86)\Microsoft Visual Studio\2019\Community\VC\Tools\MSVC\14.29.30133\atlmfc\include\cstringt.h

; 2403 : 		CThisSimpleString::Concatenate( strResult, str1, str1.GetLength(), psz2, CThisSimpleString::StringLength( psz2 ) );

  000c8	83 c4 14	 add	 esp, 20			; 00000014H
; File D:\git\src\IBK\IBK_DRFN\ProjSrc\SrcChartEx\ChartOCX\GraphDraw\GraphTitleDrawer.cpp

; 151  : 		pDC->TextOut(titlePoint.x+4+MARGIN/2, titlePoint.y + MARGIN, CString( _MTEXT( C6_NEWS)) + " ");

  000cb	8b 73 04	 mov	 esi, DWORD PTR [ebx+4]
  000ce	8b 0b		 mov	 ecx, DWORD PTR [ebx]
  000d0	83 c6 04	 add	 esi, 4
; File C:\Program Files (x86)\Microsoft Visual Studio\2019\Community\VC\Tools\MSVC\14.29.30133\atlmfc\include\afxwin1.inl

; 574  : 	{ ASSERT(m_hDC != NULL); return TextOut(x, y, (LPCTSTR)str, (int)str.GetLength()); } // call virtual

  000d3	8b 17		 mov	 edx, DWORD PTR [edi]
; File D:\git\src\IBK\IBK_DRFN\ProjSrc\SrcChartEx\ChartOCX\GraphDraw\GraphTitleDrawer.cpp

; 151  : 		pDC->TextOut(titlePoint.x+4+MARGIN/2, titlePoint.y + MARGIN, CString( _MTEXT( C6_NEWS)) + " ");

  000d5	83 c1 06	 add	 ecx, 6
; File C:\Program Files (x86)\Microsoft Visual Studio\2019\Community\VC\Tools\MSVC\14.29.30133\atlmfc\include\afxwin1.inl

; 574  : 	{ ASSERT(m_hDC != NULL); return TextOut(x, y, (LPCTSTR)str, (int)str.GetLength()); } // call virtual

  000d8	ff 70 f4	 push	 DWORD PTR [eax-12]
  000db	50		 push	 eax
  000dc	56		 push	 esi
  000dd	51		 push	 ecx
  000de	8b cf		 mov	 ecx, edi
  000e0	ff 52 64	 call	 DWORD PTR [edx+100]
; File D:\git\src\IBK\IBK_DRFN\ProjSrc\SrcChartEx\ChartOCX\GraphDraw\GraphTitleDrawer.cpp

; 151  : 		pDC->TextOut(titlePoint.x+4+MARGIN/2, titlePoint.y + MARGIN, CString( _MTEXT( C6_NEWS)) + " ");

  000e3	8d 4d 08	 lea	 ecx, DWORD PTR $T4[ebp]
  000e6	ff 15 00 00 00
	00		 call	 DWORD PTR __imp_??1?$CStringT@DV?$StrTraitMFC_DLL@DV?$ChTraitsCRT@D@ATL@@@@@ATL@@QAE@XZ
  000ec	8d 4d 0c	 lea	 ecx, DWORD PTR $T5[ebp]
  000ef	c7 45 fc ff ff
	ff ff		 mov	 DWORD PTR __$EHRec$[ebp+8], -1
  000f6	ff 15 00 00 00
	00		 call	 DWORD PTR __imp_??1?$CStringT@DV?$StrTraitMFC_DLL@DV?$ChTraitsCRT@D@ATL@@@@@ATL@@QAE@XZ

; 152  : 		pDC->SetTextColor(color2);

  000fc	8b 45 18	 mov	 eax, DWORD PTR _color2$[ebp]
  000ff	8b cf		 mov	 ecx, edi
  00101	8b 17		 mov	 edx, DWORD PTR [edi]
  00103	ff 30		 push	 DWORD PTR [eax]
  00105	ff 52 38	 call	 DWORD PTR [edx+56]

; 153  : 		pDC->TextOut(titlePoint.x+4+MARGIN/2 + 29, titlePoint.y + MARGIN, _MTEXT( C6_NOTICE));

  00108	a1 54 00 00 00	 mov	 eax, DWORD PTR ?g_iMetaTable@@3VIMetaTable@@A+84
  0010d	8d 4d 08	 lea	 ecx, DWORD PTR $T3[ebp]
  00110	ff b0 a8 09 00
	00		 push	 DWORD PTR [eax+2472]
  00116	ff 15 00 00 00
	00		 call	 DWORD PTR __imp_??0?$CStringT@DV?$StrTraitMFC_DLL@DV?$ChTraitsCRT@D@ATL@@@@@ATL@@QAE@PBD@Z
; File C:\Program Files (x86)\Microsoft Visual Studio\2019\Community\VC\Tools\MSVC\14.29.30133\atlmfc\include\atlsimpstr.h

; 519  : 		return( GetData()->nDataLength );

  0011c	8b 45 08	 mov	 eax, DWORD PTR $T3[ebp]
; File D:\git\src\IBK\IBK_DRFN\ProjSrc\SrcChartEx\ChartOCX\GraphDraw\GraphTitleDrawer.cpp

; 153  : 		pDC->TextOut(titlePoint.x+4+MARGIN/2 + 29, titlePoint.y + MARGIN, _MTEXT( C6_NOTICE));

  0011f	8b 73 04	 mov	 esi, DWORD PTR [ebx+4]
  00122	8b 0b		 mov	 ecx, DWORD PTR [ebx]
  00124	83 c6 04	 add	 esi, 4
; File C:\Program Files (x86)\Microsoft Visual Studio\2019\Community\VC\Tools\MSVC\14.29.30133\atlmfc\include\afxwin1.inl

; 574  : 	{ ASSERT(m_hDC != NULL); return TextOut(x, y, (LPCTSTR)str, (int)str.GetLength()); } // call virtual

  00127	8b 17		 mov	 edx, DWORD PTR [edi]
; File D:\git\src\IBK\IBK_DRFN\ProjSrc\SrcChartEx\ChartOCX\GraphDraw\GraphTitleDrawer.cpp

; 153  : 		pDC->TextOut(titlePoint.x+4+MARGIN/2 + 29, titlePoint.y + MARGIN, _MTEXT( C6_NOTICE));

  00129	83 c1 23	 add	 ecx, 35			; 00000023H
; File C:\Program Files (x86)\Microsoft Visual Studio\2019\Community\VC\Tools\MSVC\14.29.30133\atlmfc\include\afxwin1.inl

; 574  : 	{ ASSERT(m_hDC != NULL); return TextOut(x, y, (LPCTSTR)str, (int)str.GetLength()); } // call virtual

  0012c	ff 70 f4	 push	 DWORD PTR [eax-12]
; File D:\git\src\IBK\IBK_DRFN\ProjSrc\SrcChartEx\ChartOCX\GraphDraw\GraphTitleDrawer.cpp

; 153  : 		pDC->TextOut(titlePoint.x+4+MARGIN/2 + 29, titlePoint.y + MARGIN, _MTEXT( C6_NOTICE));

  0012f	c7 45 fc 02 00
	00 00		 mov	 DWORD PTR __$EHRec$[ebp+8], 2
; File C:\Program Files (x86)\Microsoft Visual Studio\2019\Community\VC\Tools\MSVC\14.29.30133\atlmfc\include\afxwin1.inl

; 574  : 	{ ASSERT(m_hDC != NULL); return TextOut(x, y, (LPCTSTR)str, (int)str.GetLength()); } // call virtual

  00136	50		 push	 eax
  00137	56		 push	 esi
  00138	51		 push	 ecx
  00139	8b cf		 mov	 ecx, edi
  0013b	ff 52 64	 call	 DWORD PTR [edx+100]
; File D:\git\src\IBK\IBK_DRFN\ProjSrc\SrcChartEx\ChartOCX\GraphDraw\GraphTitleDrawer.cpp

; 153  : 		pDC->TextOut(titlePoint.x+4+MARGIN/2 + 29, titlePoint.y + MARGIN, _MTEXT( C6_NOTICE));

  0013e	8d 4d 08	 lea	 ecx, DWORD PTR $T3[ebp]
  00141	c7 45 fc ff ff
	ff ff		 mov	 DWORD PTR __$EHRec$[ebp+8], -1
  00148	ff 15 00 00 00
	00		 call	 DWORD PTR __imp_??1?$CStringT@DV?$StrTraitMFC_DLL@DV?$ChTraitsCRT@D@ATL@@@@@ATL@@QAE@XZ
  0014e	8b 75 10	 mov	 esi, DWORD PTR _strTitle$[ebp]
$LN2@DrawGraphT:
; File C:\Program Files (x86)\Microsoft Visual Studio\2019\Community\VC\Tools\MSVC\14.29.30133\atlmfc\include\cstringt.h

; 2486 : 		return(str1.Compare(psz2) == 0);

  00151	68 00 00 00 00	 push	 OFFSET ??_C@_09HHHFLLBP@?$LI?E?$LF?$LF?5?$LI?E?$LM?v@
  00156	8b ce		 mov	 ecx, esi
  00158	ff 15 00 00 00
	00		 call	 DWORD PTR __imp_?Compare@?$CStringT@DV?$StrTraitMFC_DLL@DV?$ChTraitsCRT@D@ATL@@@@@ATL@@QBEHPBD@Z
  0015e	85 c0		 test	 eax, eax
; File D:\git\src\IBK\IBK_DRFN\ProjSrc\SrcChartEx\ChartOCX\GraphDraw\GraphTitleDrawer.cpp

; 156  : 	if(strTitle == " ")

  00160	0f 85 8e 00 00
	00		 jne	 $LN3@DrawGraphT

; 158  : 		pDC->TextOut(titlePoint.x+4+MARGIN/2, titlePoint.y + MARGIN, " ");

  00166	68 00 00 00 00	 push	 OFFSET ??_C@_05OFOMAOBO@?$LI?E?$LF?$LF?5@
  0016b	8d 4d 10	 lea	 ecx, DWORD PTR $T6[ebp]
  0016e	ff 15 00 00 00
	00		 call	 DWORD PTR __imp_??0?$CStringT@DV?$StrTraitMFC_DLL@DV?$ChTraitsCRT@D@ATL@@@@@ATL@@QAE@PBD@Z
; File C:\Program Files (x86)\Microsoft Visual Studio\2019\Community\VC\Tools\MSVC\14.29.30133\atlmfc\include\atlsimpstr.h

; 519  : 		return( GetData()->nDataLength );

  00174	8b 45 10	 mov	 eax, DWORD PTR $T6[ebp]
; File D:\git\src\IBK\IBK_DRFN\ProjSrc\SrcChartEx\ChartOCX\GraphDraw\GraphTitleDrawer.cpp

; 158  : 		pDC->TextOut(titlePoint.x+4+MARGIN/2, titlePoint.y + MARGIN, " ");

  00177	8b 73 04	 mov	 esi, DWORD PTR [ebx+4]
  0017a	8b 0b		 mov	 ecx, DWORD PTR [ebx]
  0017c	83 c6 04	 add	 esi, 4
; File C:\Program Files (x86)\Microsoft Visual Studio\2019\Community\VC\Tools\MSVC\14.29.30133\atlmfc\include\afxwin1.inl

; 574  : 	{ ASSERT(m_hDC != NULL); return TextOut(x, y, (LPCTSTR)str, (int)str.GetLength()); } // call virtual

  0017f	8b 17		 mov	 edx, DWORD PTR [edi]
; File D:\git\src\IBK\IBK_DRFN\ProjSrc\SrcChartEx\ChartOCX\GraphDraw\GraphTitleDrawer.cpp

; 158  : 		pDC->TextOut(titlePoint.x+4+MARGIN/2, titlePoint.y + MARGIN, " ");

  00181	83 c1 06	 add	 ecx, 6
; File C:\Program Files (x86)\Microsoft Visual Studio\2019\Community\VC\Tools\MSVC\14.29.30133\atlmfc\include\afxwin1.inl

; 574  : 	{ ASSERT(m_hDC != NULL); return TextOut(x, y, (LPCTSTR)str, (int)str.GetLength()); } // call virtual

  00184	ff 70 f4	 push	 DWORD PTR [eax-12]
; File D:\git\src\IBK\IBK_DRFN\ProjSrc\SrcChartEx\ChartOCX\GraphDraw\GraphTitleDrawer.cpp

; 158  : 		pDC->TextOut(titlePoint.x+4+MARGIN/2, titlePoint.y + MARGIN, " ");

  00187	c7 45 fc 03 00
	00 00		 mov	 DWORD PTR __$EHRec$[ebp+8], 3
; File C:\Program Files (x86)\Microsoft Visual Studio\2019\Community\VC\Tools\MSVC\14.29.30133\atlmfc\include\afxwin1.inl

; 574  : 	{ ASSERT(m_hDC != NULL); return TextOut(x, y, (LPCTSTR)str, (int)str.GetLength()); } // call virtual

  0018e	50		 push	 eax
  0018f	56		 push	 esi
  00190	51		 push	 ecx
  00191	8b cf		 mov	 ecx, edi
  00193	ff 52 64	 call	 DWORD PTR [edx+100]
; File D:\git\src\IBK\IBK_DRFN\ProjSrc\SrcChartEx\ChartOCX\GraphDraw\GraphTitleDrawer.cpp

; 158  : 		pDC->TextOut(titlePoint.x+4+MARGIN/2, titlePoint.y + MARGIN, " ");

  00196	8d 4d 10	 lea	 ecx, DWORD PTR $T6[ebp]
  00199	c7 45 fc ff ff
	ff ff		 mov	 DWORD PTR __$EHRec$[ebp+8], -1
  001a0	ff 15 00 00 00
	00		 call	 DWORD PTR __imp_??1?$CStringT@DV?$StrTraitMFC_DLL@DV?$ChTraitsCRT@D@ATL@@@@@ATL@@QAE@XZ

; 159  : 		//pDC->SetTextColor(color2);
; 160  : 		pDC->SetTextColor(RGB(255, 0, 0));

  001a6	8b 07		 mov	 eax, DWORD PTR [edi]
  001a8	8b cf		 mov	 ecx, edi
  001aa	68 ff 00 00 00	 push	 255			; 000000ffH
  001af	ff 50 38	 call	 DWORD PTR [eax+56]

; 161  : 		pDC->TextOut(titlePoint.x+4+MARGIN/2 + 29, titlePoint.y + MARGIN, "");

  001b2	68 00 00 00 00	 push	 OFFSET ??_C@_04NGFLBEEM@?$LI?E?$LM?v@
  001b7	8d 4d 14	 lea	 ecx, DWORD PTR $T7[ebp]
  001ba	ff 15 00 00 00
	00		 call	 DWORD PTR __imp_??0?$CStringT@DV?$StrTraitMFC_DLL@DV?$ChTraitsCRT@D@ATL@@@@@ATL@@QAE@PBD@Z
; File C:\Program Files (x86)\Microsoft Visual Studio\2019\Community\VC\Tools\MSVC\14.29.30133\atlmfc\include\atlsimpstr.h

; 519  : 		return( GetData()->nDataLength );

  001c0	8b 45 14	 mov	 eax, DWORD PTR $T7[ebp]
; File D:\git\src\IBK\IBK_DRFN\ProjSrc\SrcChartEx\ChartOCX\GraphDraw\GraphTitleDrawer.cpp

; 161  : 		pDC->TextOut(titlePoint.x+4+MARGIN/2 + 29, titlePoint.y + MARGIN, "");

  001c3	8b 73 04	 mov	 esi, DWORD PTR [ebx+4]
  001c6	8b 0b		 mov	 ecx, DWORD PTR [ebx]
  001c8	83 c6 04	 add	 esi, 4
; File C:\Program Files (x86)\Microsoft Visual Studio\2019\Community\VC\Tools\MSVC\14.29.30133\atlmfc\include\afxwin1.inl

; 574  : 	{ ASSERT(m_hDC != NULL); return TextOut(x, y, (LPCTSTR)str, (int)str.GetLength()); } // call virtual

  001cb	8b 17		 mov	 edx, DWORD PTR [edi]
; File D:\git\src\IBK\IBK_DRFN\ProjSrc\SrcChartEx\ChartOCX\GraphDraw\GraphTitleDrawer.cpp

; 161  : 		pDC->TextOut(titlePoint.x+4+MARGIN/2 + 29, titlePoint.y + MARGIN, "");

  001cd	83 c1 23	 add	 ecx, 35			; 00000023H
; File C:\Program Files (x86)\Microsoft Visual Studio\2019\Community\VC\Tools\MSVC\14.29.30133\atlmfc\include\afxwin1.inl

; 574  : 	{ ASSERT(m_hDC != NULL); return TextOut(x, y, (LPCTSTR)str, (int)str.GetLength()); } // call virtual

  001d0	ff 70 f4	 push	 DWORD PTR [eax-12]
; File D:\git\src\IBK\IBK_DRFN\ProjSrc\SrcChartEx\ChartOCX\GraphDraw\GraphTitleDrawer.cpp

; 161  : 		pDC->TextOut(titlePoint.x+4+MARGIN/2 + 29, titlePoint.y + MARGIN, "");

  001d3	c7 45 fc 04 00
	00 00		 mov	 DWORD PTR __$EHRec$[ebp+8], 4
; File C:\Program Files (x86)\Microsoft Visual Studio\2019\Community\VC\Tools\MSVC\14.29.30133\atlmfc\include\afxwin1.inl

; 574  : 	{ ASSERT(m_hDC != NULL); return TextOut(x, y, (LPCTSTR)str, (int)str.GetLength()); } // call virtual

  001da	50		 push	 eax
  001db	56		 push	 esi
  001dc	51		 push	 ecx
  001dd	8b cf		 mov	 ecx, edi
  001df	ff 52 64	 call	 DWORD PTR [edx+100]
; File D:\git\src\IBK\IBK_DRFN\ProjSrc\SrcChartEx\ChartOCX\GraphDraw\GraphTitleDrawer.cpp

; 161  : 		pDC->TextOut(titlePoint.x+4+MARGIN/2 + 29, titlePoint.y + MARGIN, "");

  001e2	8d 4d 14	 lea	 ecx, DWORD PTR $T7[ebp]
  001e5	c7 45 fc ff ff
	ff ff		 mov	 DWORD PTR __$EHRec$[ebp+8], -1
  001ec	ff 15 00 00 00
	00		 call	 DWORD PTR __imp_??1?$CStringT@DV?$StrTraitMFC_DLL@DV?$ChTraitsCRT@D@ATL@@@@@ATL@@QAE@XZ

; 162  : 	}

  001f2	eb 1a		 jmp	 SHORT $LN4@DrawGraphT
$LN3@DrawGraphT:
; File C:\Program Files (x86)\Microsoft Visual Studio\2019\Community\VC\Tools\MSVC\14.29.30133\atlmfc\include\atlsimpstr.h

; 519  : 		return( GetData()->nDataLength );

  001f4	8b 06		 mov	 eax, DWORD PTR [esi]
; File C:\Program Files (x86)\Microsoft Visual Studio\2019\Community\VC\Tools\MSVC\14.29.30133\atlmfc\include\afxwin1.inl

; 574  : 	{ ASSERT(m_hDC != NULL); return TextOut(x, y, (LPCTSTR)str, (int)str.GetLength()); } // call virtual

  001f6	8b cf		 mov	 ecx, edi
  001f8	8b 17		 mov	 edx, DWORD PTR [edi]
  001fa	ff 70 f4	 push	 DWORD PTR [eax-12]
  001fd	50		 push	 eax
; File D:\git\src\IBK\IBK_DRFN\ProjSrc\SrcChartEx\ChartOCX\GraphDraw\GraphTitleDrawer.cpp

; 164  : 		pDC->TextOut(titlePoint.x+4+MARGIN/2, titlePoint.y + MARGIN, strTitle);

  001fe	8b 43 04	 mov	 eax, DWORD PTR [ebx+4]
  00201	83 c0 04	 add	 eax, 4
; File C:\Program Files (x86)\Microsoft Visual Studio\2019\Community\VC\Tools\MSVC\14.29.30133\atlmfc\include\afxwin1.inl

; 574  : 	{ ASSERT(m_hDC != NULL); return TextOut(x, y, (LPCTSTR)str, (int)str.GetLength()); } // call virtual

  00204	50		 push	 eax
; File D:\git\src\IBK\IBK_DRFN\ProjSrc\SrcChartEx\ChartOCX\GraphDraw\GraphTitleDrawer.cpp

; 164  : 		pDC->TextOut(titlePoint.x+4+MARGIN/2, titlePoint.y + MARGIN, strTitle);

  00205	8b 03		 mov	 eax, DWORD PTR [ebx]
  00207	83 c0 06	 add	 eax, 6
; File C:\Program Files (x86)\Microsoft Visual Studio\2019\Community\VC\Tools\MSVC\14.29.30133\atlmfc\include\afxwin1.inl

; 574  : 	{ ASSERT(m_hDC != NULL); return TextOut(x, y, (LPCTSTR)str, (int)str.GetLength()); } // call virtual

  0020a	50		 push	 eax
  0020b	ff 52 64	 call	 DWORD PTR [edx+100]
$LN4@DrawGraphT:
; File D:\git\src\IBK\IBK_DRFN\ProjSrc\SrcChartEx\ChartOCX\GraphDraw\GraphTitleDrawer.cpp

; 166  : 	pDC->SetBkMode(nOldMode);

  0020e	ff 75 ec	 push	 DWORD PTR _nOldMode$1$[ebp]
  00211	8b cf		 mov	 ecx, edi
  00213	e8 00 00 00 00	 call	 ?SetBkMode@CDC@@QAEHH@Z	; CDC::SetBkMode

; 167  : 	pDC->SetTextColor(ordColor);

  00218	8b 07		 mov	 eax, DWORD PTR [edi]
  0021a	8b cf		 mov	 ecx, edi
  0021c	ff 75 e8	 push	 DWORD PTR _ordColor$1$[ebp]
  0021f	ff 50 38	 call	 DWORD PTR [eax+56]

; 168  : }

  00222	8b 4d f4	 mov	 ecx, DWORD PTR __$EHRec$[ebp]
  00225	64 89 0d 00 00
	00 00		 mov	 DWORD PTR fs:0, ecx
  0022c	59		 pop	 ecx
  0022d	5f		 pop	 edi
  0022e	5e		 pop	 esi
  0022f	5b		 pop	 ebx
  00230	8b e5		 mov	 esp, ebp
  00232	5d		 pop	 ebp
  00233	c2 14 00	 ret	 20			; 00000014H
_TEXT	ENDS
;	COMDAT text$x
text$x	SEGMENT
__unwindfunclet$?DrawGraphTitleText@CGraphTitleDrawer@@AAEXPAVCDC@@ABVCPoint@@ABV?$CStringT@DV?$StrTraitMFC_DLL@DV?$ChTraitsCRT@D@ATL@@@@@ATL@@ABK3@Z$0:
  00000	8d 4d 0c	 lea	 ecx, DWORD PTR $T5[ebp]
  00003	ff 25 00 00 00
	00		 jmp	 DWORD PTR __imp_??1?$CStringT@DV?$StrTraitMFC_DLL@DV?$ChTraitsCRT@D@ATL@@@@@ATL@@QAE@XZ
__unwindfunclet$?DrawGraphTitleText@CGraphTitleDrawer@@AAEXPAVCDC@@ABVCPoint@@ABV?$CStringT@DV?$StrTraitMFC_DLL@DV?$ChTraitsCRT@D@ATL@@@@@ATL@@ABK3@Z$5:
  00009	8b 45 f0	 mov	 eax, DWORD PTR $T2[ebp]
  0000c	83 e0 01	 and	 eax, 1
  0000f	0f 84 0d 00 00
	00		 je	 $LN18@DrawGraphT
  00015	83 65 f0 fe	 and	 DWORD PTR $T2[ebp], -2	; fffffffeH
  00019	8d 4d 08	 lea	 ecx, DWORD PTR $T4[ebp]
  0001c	ff 25 00 00 00
	00		 jmp	 DWORD PTR __imp_??1?$CStringT@DV?$StrTraitMFC_DLL@DV?$ChTraitsCRT@D@ATL@@@@@ATL@@QAE@XZ
$LN18@DrawGraphT:
  00022	c3		 ret	 0
__unwindfunclet$?DrawGraphTitleText@CGraphTitleDrawer@@AAEXPAVCDC@@ABVCPoint@@ABV?$CStringT@DV?$StrTraitMFC_DLL@DV?$ChTraitsCRT@D@ATL@@@@@ATL@@ABK3@Z$2:
  00023	8d 4d 08	 lea	 ecx, DWORD PTR $T3[ebp]
  00026	ff 25 00 00 00
	00		 jmp	 DWORD PTR __imp_??1?$CStringT@DV?$StrTraitMFC_DLL@DV?$ChTraitsCRT@D@ATL@@@@@ATL@@QAE@XZ
__unwindfunclet$?DrawGraphTitleText@CGraphTitleDrawer@@AAEXPAVCDC@@ABVCPoint@@ABV?$CStringT@DV?$StrTraitMFC_DLL@DV?$ChTraitsCRT@D@ATL@@@@@ATL@@ABK3@Z$3:
  0002c	8d 4d 10	 lea	 ecx, DWORD PTR $T6[ebp]
  0002f	ff 25 00 00 00
	00		 jmp	 DWORD PTR __imp_??1?$CStringT@DV?$StrTraitMFC_DLL@DV?$ChTraitsCRT@D@ATL@@@@@ATL@@QAE@XZ
__unwindfunclet$?DrawGraphTitleText@CGraphTitleDrawer@@AAEXPAVCDC@@ABVCPoint@@ABV?$CStringT@DV?$StrTraitMFC_DLL@DV?$ChTraitsCRT@D@ATL@@@@@ATL@@ABK3@Z$4:
  00035	8d 4d 14	 lea	 ecx, DWORD PTR $T7[ebp]
  00038	ff 25 00 00 00
	00		 jmp	 DWORD PTR __imp_??1?$CStringT@DV?$StrTraitMFC_DLL@DV?$ChTraitsCRT@D@ATL@@@@@ATL@@QAE@XZ
  0003e	cc		 int	 3
  0003f	cc		 int	 3
  00040	cc		 int	 3
  00041	cc		 int	 3
  00042	cc		 int	 3
__ehhandler$?DrawGraphTitleText@CGraphTitleDrawer@@AAEXPAVCDC@@ABVCPoint@@ABV?$CStringT@DV?$StrTraitMFC_DLL@DV?$ChTraitsCRT@D@ATL@@@@@ATL@@ABK3@Z:
  00043	90		 npad	 1
  00044	90		 npad	 1
  00045	8b 54 24 08	 mov	 edx, DWORD PTR [esp+8]
  00049	8d 42 0c	 lea	 eax, DWORD PTR [edx+12]
  0004c	8b 4a e4	 mov	 ecx, DWORD PTR [edx-28]
  0004f	33 c8		 xor	 ecx, eax
  00051	e8 00 00 00 00	 call	 @__security_check_cookie@4
  00056	b8 00 00 00 00	 mov	 eax, OFFSET __ehfuncinfo$?DrawGraphTitleText@CGraphTitleDrawer@@AAEXPAVCDC@@ABVCPoint@@ABV?$CStringT@DV?$StrTraitMFC_DLL@DV?$ChTraitsCRT@D@ATL@@@@@ATL@@ABK3@Z
  0005b	e9 00 00 00 00	 jmp	 ___CxxFrameHandler3
text$x	ENDS
?DrawGraphTitleText@CGraphTitleDrawer@@AAEXPAVCDC@@ABVCPoint@@ABV?$CStringT@DV?$StrTraitMFC_DLL@DV?$ChTraitsCRT@D@ATL@@@@@ATL@@ABK3@Z ENDP ; CGraphTitleDrawer::DrawGraphTitleText
; Function compile flags: /Ogtp
; File D:\git\src\IBK\IBK_DRFN\ProjSrc\SrcChartEx\ChartOCX\GraphDraw\GraphTitleDrawer.cpp
; File C:\Program Files (x86)\Microsoft Visual Studio\2019\Community\VC\Tools\MSVC\14.29.30133\atlmfc\include\atltypes.h
; File D:\git\src\IBK\IBK_DRFN\ProjSrc\SrcChartEx\ChartOCX\GraphDraw\GraphTitleDrawer.cpp
; File C:\Program Files (x86)\Microsoft Visual Studio\2019\Community\VC\Tools\MSVC\14.29.30133\atlmfc\include\atltypes.h
; File D:\git\src\IBK\IBK_DRFN\ProjSrc\SrcChartEx\ChartOCX\GraphDraw\GraphTitleDrawer.cpp
; File C:\Program Files (x86)\Microsoft Visual Studio\2019\Community\VC\Tools\MSVC\14.29.30133\atlmfc\include\atltypes.h
; File D:\git\src\IBK\IBK_DRFN\ProjSrc\SrcChartEx\ChartOCX\GraphDraw\GraphTitleDrawer.cpp
; File C:\Program Files (x86)\Microsoft Visual Studio\2019\Community\VC\Tools\MSVC\14.29.30133\atlmfc\include\atltypes.h
; File D:\git\src\IBK\IBK_DRFN\ProjSrc\SrcChartEx\ChartOCX\GraphDraw\GraphTitleDrawer.cpp
; File C:\Program Files (x86)\Microsoft Visual Studio\2019\Community\VC\Tools\MSVC\14.29.30133\atlmfc\include\afxwin1.inl
; File D:\git\src\IBK\IBK_DRFN\ProjSrc\SrcChartEx\ChartOCX\GraphDraw\GraphTitleDrawer.cpp
; File C:\Program Files (x86)\Microsoft Visual Studio\2019\Community\VC\Tools\MSVC\14.29.30133\atlmfc\include\afxwin1.inl
; File D:\git\src\IBK\IBK_DRFN\ProjSrc\SrcChartEx\ChartOCX\GraphDraw\GraphTitleDrawer.cpp
;	COMDAT ?DrawGraphTitleRegion@CGraphTitleDrawer@@AAEXPAVCDC@@ABVCRect@@ABK@Z
_TEXT	SEGMENT
$T2 = -48						; size = 8
_brush$ = -40						; size = 8
_pen$ = -32						; size = 8
_pOldBrush$1$ = -24					; size = 4
_pOldPen$1$ = -20					; size = 4
tv468 = -16						; size = 4
__$EHRec$ = -12						; size = 12
tv466 = 8						; size = 4
_pDC$ = 8						; size = 4
tv465 = 12						; size = 4
_titleRegion$ = 12					; size = 4
tv467 = 16						; size = 4
_color$ = 16						; size = 4
?DrawGraphTitleRegion@CGraphTitleDrawer@@AAEXPAVCDC@@ABVCRect@@ABK@Z PROC ; CGraphTitleDrawer::DrawGraphTitleRegion, COMDAT
; _this$ = ecx

; 120  : {

  00000	55		 push	 ebp
  00001	8b ec		 mov	 ebp, esp
  00003	6a ff		 push	 -1
  00005	68 00 00 00 00	 push	 __ehhandler$?DrawGraphTitleRegion@CGraphTitleDrawer@@AAEXPAVCDC@@ABVCRect@@ABK@Z
  0000a	64 a1 00 00 00
	00		 mov	 eax, DWORD PTR fs:0
  00010	50		 push	 eax
  00011	83 ec 24	 sub	 esp, 36			; 00000024H
  00014	53		 push	 ebx
  00015	56		 push	 esi
  00016	57		 push	 edi
  00017	a1 00 00 00 00	 mov	 eax, DWORD PTR ___security_cookie
  0001c	33 c5		 xor	 eax, ebp
  0001e	50		 push	 eax
  0001f	8d 45 f4	 lea	 eax, DWORD PTR __$EHRec$[ebp]
  00022	64 a3 00 00 00
	00		 mov	 DWORD PTR fs:0, eax

; 121  : 	CBrush brush(color);

  00028	8b 45 10	 mov	 eax, DWORD PTR _color$[ebp]
  0002b	8d 4d d8	 lea	 ecx, DWORD PTR _brush$[ebp]
  0002e	ff 30		 push	 DWORD PTR [eax]
  00030	e8 00 00 00 00	 call	 ??0CBrush@@QAE@K@Z	; CBrush::CBrush

; 122  : 	CPen pen(PS_SOLID, 1, RGB(217, 217, 217));

  00035	68 d9 d9 d9 00	 push	 14277081		; 00d9d9d9H
  0003a	6a 01		 push	 1
  0003c	6a 00		 push	 0
  0003e	8d 4d e0	 lea	 ecx, DWORD PTR _pen$[ebp]
  00041	c7 45 fc 00 00
	00 00		 mov	 DWORD PTR __$EHRec$[ebp+8], 0
  00048	e8 00 00 00 00	 call	 ??0CPen@@QAE@HHK@Z	; CPen::CPen

; 123  : 	CBrush* pOldBrush = pDC->SelectObject(&brush);

  0004d	8b 5d 08	 mov	 ebx, DWORD PTR _pDC$[ebp]
  00050	8d 45 d8	 lea	 eax, DWORD PTR _brush$[ebp]
  00053	50		 push	 eax
  00054	8b cb		 mov	 ecx, ebx
  00056	c6 45 fc 01	 mov	 BYTE PTR __$EHRec$[ebp+8], 1
  0005a	e8 00 00 00 00	 call	 ?SelectObject@CDC@@QAEPAVCBrush@@PAV2@@Z ; CDC::SelectObject
  0005f	89 45 e8	 mov	 DWORD PTR _pOldBrush$1$[ebp], eax

; 124  : 	CPen* pOldPen = pDC->SelectObject(&pen);

  00062	8b cb		 mov	 ecx, ebx
  00064	8d 45 e0	 lea	 eax, DWORD PTR _pen$[ebp]
  00067	50		 push	 eax
  00068	e8 00 00 00 00	 call	 ?SelectObject@CDC@@QAEPAVCPen@@PAV2@@Z ; CDC::SelectObject
  0006d	89 45 ec	 mov	 DWORD PTR _pOldPen$1$[ebp], eax
  00070	8b 45 0c	 mov	 eax, DWORD PTR _titleRegion$[ebp]
  00073	8b 30		 mov	 esi, DWORD PTR [eax]
; File C:\Program Files (x86)\Microsoft Visual Studio\2019\Community\VC\Tools\MSVC\14.29.30133\atlmfc\include\atltypes.h

; 581  : 	return bottom - top;

  00075	8b 48 04	 mov	 ecx, DWORD PTR [eax+4]
  00078	8b 40 0c	 mov	 eax, DWORD PTR [eax+12]
  0007b	2b c1		 sub	 eax, ecx
; File D:\git\src\IBK\IBK_DRFN\ProjSrc\SrcChartEx\ChartOCX\GraphDraw\GraphTitleDrawer.cpp

; 126  : 	CPoint point(titleRegion.left, titleRegion.top + titleRegion.Height()/2);

  0007d	99		 cdq
  0007e	2b c2		 sub	 eax, edx
  00080	d1 f8		 sar	 eax, 1
  00082	8d 14 08	 lea	 edx, DWORD PTR [eax+ecx]
; File C:\Program Files (x86)\Microsoft Visual Studio\2019\Community\VC\Tools\MSVC\14.29.30133\atlmfc\include\atltypes.h

; 541  : 	top = t;

  00085	8d 46 04	 lea	 eax, DWORD PTR [esi+4]

; 890  : 	if (top > bottom)

  00088	3b f0		 cmp	 esi, eax

; 542  : 	right = r;

  0008a	8d 4a 08	 lea	 ecx, DWORD PTR [edx+8]

; 890  : 	if (top > bottom)

  0008d	8b f8		 mov	 edi, eax
  0008f	0f 4e fe	 cmovle	 edi, esi
  00092	0f 4e f0	 cmovle	 esi, eax
; File D:\git\src\IBK\IBK_DRFN\ProjSrc\SrcChartEx\ChartOCX\GraphDraw\GraphTitleDrawer.cpp

; 130  : 	pDC->MoveTo(rect.right-1, rect.top+1);

  00095	3b d1		 cmp	 edx, ecx
; File C:\Program Files (x86)\Microsoft Visual Studio\2019\Community\VC\Tools\MSVC\14.29.30133\atlmfc\include\atltypes.h

; 890  : 	if (top > bottom)

  00097	89 7d 08	 mov	 DWORD PTR tv466[ebp], edi
; File D:\git\src\IBK\IBK_DRFN\ProjSrc\SrcChartEx\ChartOCX\GraphDraw\GraphTitleDrawer.cpp

; 130  : 	pDC->MoveTo(rect.right-1, rect.top+1);

  0009a	8b c1		 mov	 eax, ecx
; File C:\Program Files (x86)\Microsoft Visual Studio\2019\Community\VC\Tools\MSVC\14.29.30133\atlmfc\include\atltypes.h

; 890  : 	if (top > bottom)

  0009c	89 75 0c	 mov	 DWORD PTR tv465[ebp], esi
; File D:\git\src\IBK\IBK_DRFN\ProjSrc\SrcChartEx\ChartOCX\GraphDraw\GraphTitleDrawer.cpp

; 130  : 	pDC->MoveTo(rect.right-1, rect.top+1);

  0009f	0f 4e c2	 cmovle	 eax, edx
  000a2	0f 4e d1	 cmovle	 edx, ecx
  000a5	89 45 f0	 mov	 DWORD PTR tv468[ebp], eax
  000a8	8d 7e ff	 lea	 edi, DWORD PTR [esi-1]
  000ab	40		 inc	 eax
  000ac	89 55 10	 mov	 DWORD PTR tv467[ebp], edx
  000af	50		 push	 eax
  000b0	57		 push	 edi
  000b1	8d 45 d0	 lea	 eax, DWORD PTR $T2[ebp]
  000b4	8b cb		 mov	 ecx, ebx
  000b6	50		 push	 eax
  000b7	e8 00 00 00 00	 call	 ?MoveTo@CDC@@QAE?AVCPoint@@HH@Z ; CDC::MoveTo

; 131  : 	pDC->LineTo(rect.right-1, rect.bottom-1);

  000bc	8b 75 10	 mov	 esi, DWORD PTR tv467[ebp]
  000bf	8b cb		 mov	 ecx, ebx
  000c1	4e		 dec	 esi
  000c2	56		 push	 esi
  000c3	57		 push	 edi
  000c4	e8 00 00 00 00	 call	 ?LineTo@CDC@@QAEHHH@Z	; CDC::LineTo

; 132  : 	pDC->LineTo(rect.left, rect.bottom-1);

  000c9	56		 push	 esi
  000ca	8b 75 08	 mov	 esi, DWORD PTR tv466[ebp]
  000cd	8b cb		 mov	 ecx, ebx
  000cf	56		 push	 esi
  000d0	e8 00 00 00 00	 call	 ?LineTo@CDC@@QAEHHH@Z	; CDC::LineTo

; 133  : 
; 134  : 	pDC->SelectObject(GetStockObject(NULL_PEN));

  000d5	6a 08		 push	 8
  000d7	ff 15 00 00 00
	00		 call	 DWORD PTR __imp__GetStockObject@4
; File C:\Program Files (x86)\Microsoft Visual Studio\2019\Community\VC\Tools\MSVC\14.29.30133\atlmfc\include\afxwin1.inl

; 366  : 		return (hObject != NULL) ? ::SelectObject(m_hDC, hObject) : NULL; }

  000dd	85 c0		 test	 eax, eax
  000df	74 0a		 je	 SHORT $LN17@DrawGraphT
  000e1	50		 push	 eax
  000e2	ff 73 04	 push	 DWORD PTR [ebx+4]
  000e5	ff 15 00 00 00
	00		 call	 DWORD PTR __imp__SelectObject@8
$LN17@DrawGraphT:

; 541  : 	{ ASSERT(m_hDC != NULL); return ::Rectangle(m_hDC, lpRect->left, lpRect->top,

  000eb	ff 75 10	 push	 DWORD PTR tv467[ebp]
  000ee	ff 75 0c	 push	 DWORD PTR tv465[ebp]
  000f1	ff 75 f0	 push	 DWORD PTR tv468[ebp]
  000f4	56		 push	 esi
  000f5	ff 73 04	 push	 DWORD PTR [ebx+4]
  000f8	ff 15 00 00 00
	00		 call	 DWORD PTR __imp__Rectangle@20
; File D:\git\src\IBK\IBK_DRFN\ProjSrc\SrcChartEx\ChartOCX\GraphDraw\GraphTitleDrawer.cpp

; 137  : 	pDC->SelectObject(pOldPen);

  000fe	ff 75 ec	 push	 DWORD PTR _pOldPen$1$[ebp]
  00101	8b cb		 mov	 ecx, ebx
  00103	e8 00 00 00 00	 call	 ?SelectObject@CDC@@QAEPAVCPen@@PAV2@@Z ; CDC::SelectObject

; 138  : 	pDC->SelectObject(pOldBrush);

  00108	ff 75 e8	 push	 DWORD PTR _pOldBrush$1$[ebp]
  0010b	8b cb		 mov	 ecx, ebx
  0010d	e8 00 00 00 00	 call	 ?SelectObject@CDC@@QAEPAVCBrush@@PAV2@@Z ; CDC::SelectObject

; 139  : 	pen.DeleteObject();

  00112	8d 4d e0	 lea	 ecx, DWORD PTR _pen$[ebp]
  00115	e8 00 00 00 00	 call	 ?DeleteObject@CGdiObject@@QAEHXZ ; CGdiObject::DeleteObject

; 140  : 	brush.DeleteObject();

  0011a	8d 4d d8	 lea	 ecx, DWORD PTR _brush$[ebp]
  0011d	e8 00 00 00 00	 call	 ?DeleteObject@CGdiObject@@QAEHXZ ; CGdiObject::DeleteObject
; File C:\Program Files (x86)\Microsoft Visual Studio\2019\Community\VC\Tools\MSVC\14.29.30133\atlmfc\include\afxwin1.inl

; 106  : 	{ }

  00122	8d 4d e0	 lea	 ecx, DWORD PTR _pen$[ebp]
  00125	c7 45 e0 00 00
	00 00		 mov	 DWORD PTR _pen$[ebp], OFFSET ??_7CPen@@6B@
  0012c	e8 00 00 00 00	 call	 ??1CGdiObject@@UAE@XZ	; CGdiObject::~CGdiObject

; 130  : 	{ }

  00131	8d 4d d8	 lea	 ecx, DWORD PTR _brush$[ebp]
  00134	c7 45 d8 00 00
	00 00		 mov	 DWORD PTR _brush$[ebp], OFFSET ??_7CBrush@@6B@
  0013b	e8 00 00 00 00	 call	 ??1CGdiObject@@UAE@XZ	; CGdiObject::~CGdiObject
; File D:\git\src\IBK\IBK_DRFN\ProjSrc\SrcChartEx\ChartOCX\GraphDraw\GraphTitleDrawer.cpp

; 141  : }

  00140	8b 4d f4	 mov	 ecx, DWORD PTR __$EHRec$[ebp]
  00143	64 89 0d 00 00
	00 00		 mov	 DWORD PTR fs:0, ecx
  0014a	59		 pop	 ecx
  0014b	5f		 pop	 edi
  0014c	5e		 pop	 esi
  0014d	5b		 pop	 ebx
  0014e	8b e5		 mov	 esp, ebp
  00150	5d		 pop	 ebp
  00151	c2 0c 00	 ret	 12			; 0000000cH
_TEXT	ENDS
;	COMDAT text$x
text$x	SEGMENT
__unwindfunclet$?DrawGraphTitleRegion@CGraphTitleDrawer@@AAEXPAVCDC@@ABVCRect@@ABK@Z$0:
  00000	8d 4d d8	 lea	 ecx, DWORD PTR _brush$[ebp]
  00003	e9 00 00 00 00	 jmp	 ??1CBrush@@UAE@XZ	; CBrush::~CBrush
__unwindfunclet$?DrawGraphTitleRegion@CGraphTitleDrawer@@AAEXPAVCDC@@ABVCRect@@ABK@Z$1:
  00008	8d 4d e0	 lea	 ecx, DWORD PTR _pen$[ebp]
  0000b	e9 00 00 00 00	 jmp	 ??1CPen@@UAE@XZ		; CPen::~CPen
  00010	cc		 int	 3
  00011	cc		 int	 3
  00012	cc		 int	 3
  00013	cc		 int	 3
  00014	cc		 int	 3
__ehhandler$?DrawGraphTitleRegion@CGraphTitleDrawer@@AAEXPAVCDC@@ABVCRect@@ABK@Z:
  00015	90		 npad	 1
  00016	90		 npad	 1
  00017	8b 54 24 08	 mov	 edx, DWORD PTR [esp+8]
  0001b	8d 42 0c	 lea	 eax, DWORD PTR [edx+12]
  0001e	8b 4a cc	 mov	 ecx, DWORD PTR [edx-52]
  00021	33 c8		 xor	 ecx, eax
  00023	e8 00 00 00 00	 call	 @__security_check_cookie@4
  00028	b8 00 00 00 00	 mov	 eax, OFFSET __ehfuncinfo$?DrawGraphTitleRegion@CGraphTitleDrawer@@AAEXPAVCDC@@ABVCRect@@ABK@Z
  0002d	e9 00 00 00 00	 jmp	 ___CxxFrameHandler3
text$x	ENDS
?DrawGraphTitleRegion@CGraphTitleDrawer@@AAEXPAVCDC@@ABVCRect@@ABK@Z ENDP ; CGraphTitleDrawer::DrawGraphTitleRegion
; Function compile flags: /Ogtp
; File D:\git\src\IBK\IBK_DRFN\ProjSrc\SrcChartEx\ChartOCX\GraphDraw\GraphTitleDrawer.cpp
; File C:\Program Files (x86)\Microsoft Visual Studio\2019\Community\VC\Tools\MSVC\14.29.30133\atlmfc\include\atlsimpstr.h
; File D:\git\src\IBK\IBK_DRFN\ProjSrc\SrcChartEx\ChartOCX\GraphDraw\GraphTitleDrawer.cpp
; File C:\Program Files (x86)\Microsoft Visual Studio\2019\Community\VC\Tools\MSVC\14.29.30133\atlmfc\include\cstringt.h
; File D:\git\src\IBK\IBK_DRFN\ProjSrc\SrcChartEx\ChartOCX\GraphDraw\GraphTitleDrawer.cpp
; File C:\Program Files (x86)\Microsoft Visual Studio\2019\Community\VC\Tools\MSVC\14.29.30133\atlmfc\include\cstringt.h
; File D:\git\src\IBK\IBK_DRFN\ProjSrc\SrcChartEx\ChartOCX\GraphDraw\GraphTitleDrawer.cpp
; File C:\Program Files (x86)\Microsoft Visual Studio\2019\Community\VC\Tools\MSVC\14.29.30133\atlmfc\include\cstringt.h
; File D:\git\src\IBK\IBK_DRFN\ProjSrc\SrcChartEx\ChartOCX\GraphDraw\GraphTitleDrawer.cpp
; File C:\Program Files (x86)\Microsoft Visual Studio\2019\Community\VC\Tools\MSVC\14.29.30133\atlmfc\include\atltypes.h
; File D:\git\src\IBK\IBK_DRFN\ProjSrc\SrcChartEx\ChartOCX\GraphDraw\GraphTitleDrawer.cpp
; File C:\Program Files (x86)\Microsoft Visual Studio\2019\Community\VC\Tools\MSVC\14.29.30133\atlmfc\include\atltypes.h
; File D:\git\src\IBK\IBK_DRFN\ProjSrc\SrcChartEx\ChartOCX\GraphDraw\GraphTitleDrawer.cpp
; File C:\Program Files (x86)\Microsoft Visual Studio\2019\Community\VC\Tools\MSVC\14.29.30133\atlmfc\include\atltypes.h
; File D:\git\src\IBK\IBK_DRFN\ProjSrc\SrcChartEx\ChartOCX\GraphDraw\GraphTitleDrawer.cpp
; File C:\Program Files (x86)\Microsoft Visual Studio\2019\Community\VC\Tools\MSVC\14.29.30133\atlmfc\include\atltypes.h
; File D:\git\src\IBK\IBK_DRFN\ProjSrc\SrcChartEx\ChartOCX\GraphDraw\GraphTitleDrawer.cpp
; File C:\Program Files (x86)\Microsoft Visual Studio\2019\Community\VC\Tools\MSVC\14.29.30133\atlmfc\include\atltypes.h
; File D:\git\src\IBK\IBK_DRFN\ProjSrc\SrcChartEx\ChartOCX\GraphDraw\GraphTitleDrawer.cpp
; File C:\Program Files (x86)\Microsoft Visual Studio\2019\Community\VC\Tools\MSVC\14.29.30133\atlmfc\include\afxwin1.inl
; File D:\git\src\IBK\IBK_DRFN\ProjSrc\SrcChartEx\ChartOCX\GraphDraw\GraphTitleDrawer.cpp
; File C:\Program Files (x86)\Microsoft Visual Studio\2019\Community\VC\Tools\MSVC\14.29.30133\atlmfc\include\afxwin1.inl
; File D:\git\src\IBK\IBK_DRFN\ProjSrc\SrcChartEx\ChartOCX\GraphDraw\GraphTitleDrawer.cpp
; File C:\Program Files (x86)\Microsoft Visual Studio\2019\Community\VC\Tools\MSVC\14.29.30133\atlmfc\include\afxwin1.inl
; File D:\git\src\IBK\IBK_DRFN\ProjSrc\SrcChartEx\ChartOCX\GraphDraw\GraphTitleDrawer.cpp
;	COMDAT ?DrawGraphTitle@CGraphTitleDrawer@@AAEXPAVCDC@@ABVCRect@@ABV?$CStringT@DV?$StrTraitMFC_DLL@DV?$ChTraitsCRT@D@ATL@@@@@ATL@@ABK3@Z
_TEXT	SEGMENT
$T2 = -60						; size = 8
_brush$3 = -52						; size = 8
_pen$4 = -44						; size = 8
_this$1$ = -36						; size = 4
_pOldBrush$1$ = -32					; size = 4
_pOldPen$1$ = -28					; size = 4
tv576 = -24						; size = 4
tv573 = -20						; size = 4
tv574 = -16						; size = 4
$T5 = -16						; size = 4
__$EHRec$ = -12						; size = 12
tv575 = 8						; size = 4
_pDC$ = 8						; size = 4
_titleRegion$ = 12					; size = 4
_strRealTitle$ = 16					; size = 4
_strTitle$ = 16						; size = 4
_color1$ = 20						; size = 4
_color2$ = 24						; size = 4
?DrawGraphTitle@CGraphTitleDrawer@@AAEXPAVCDC@@ABVCRect@@ABV?$CStringT@DV?$StrTraitMFC_DLL@DV?$ChTraitsCRT@D@ATL@@@@@ATL@@ABK3@Z PROC ; CGraphTitleDrawer::DrawGraphTitle, COMDAT
; _this$ = ecx

; 107  : {

  00000	55		 push	 ebp
  00001	8b ec		 mov	 ebp, esp
  00003	6a ff		 push	 -1
  00005	68 00 00 00 00	 push	 __ehhandler$?DrawGraphTitle@CGraphTitleDrawer@@AAEXPAVCDC@@ABVCRect@@ABV?$CStringT@DV?$StrTraitMFC_DLL@DV?$ChTraitsCRT@D@ATL@@@@@ATL@@ABK3@Z
  0000a	64 a1 00 00 00
	00		 mov	 eax, DWORD PTR fs:0
  00010	50		 push	 eax
  00011	83 ec 30	 sub	 esp, 48			; 00000030H
  00014	53		 push	 ebx
  00015	56		 push	 esi
  00016	57		 push	 edi
  00017	a1 00 00 00 00	 mov	 eax, DWORD PTR ___security_cookie
  0001c	33 c5		 xor	 eax, ebp
  0001e	50		 push	 eax
  0001f	8d 45 f4	 lea	 eax, DWORD PTR __$EHRec$[ebp]
  00022	64 a3 00 00 00
	00		 mov	 DWORD PTR fs:0, eax
  00028	8b f9		 mov	 edi, ecx
  0002a	89 7d dc	 mov	 DWORD PTR _this$1$[ebp], edi

; 108  : 	CString strRealTitle = strTitle;

  0002d	ff 75 10	 push	 DWORD PTR _strTitle$[ebp]
  00030	8d 4d 10	 lea	 ecx, DWORD PTR _strRealTitle$[ebp]
  00033	ff 15 00 00 00
	00		 call	 DWORD PTR __imp_??0?$CStringT@DV?$StrTraitMFC_DLL@DV?$ChTraitsCRT@D@ATL@@@@@ATL@@QAE@ABV01@@Z
; File C:\Program Files (x86)\Microsoft Visual Studio\2019\Community\VC\Tools\MSVC\14.29.30133\atlmfc\include\atlsimpstr.h

; 519  : 		return( GetData()->nDataLength );

  00039	8b 07		 mov	 eax, DWORD PTR [edi]
; File D:\git\src\IBK\IBK_DRFN\ProjSrc\SrcChartEx\ChartOCX\GraphDraw\GraphTitleDrawer.cpp

; 183  : 	return (strTitle.Left(NODRAW_TITLEREGION.GetLength()) != NODRAW_TITLEREGION);

  0003b	8d 4d 10	 lea	 ecx, DWORD PTR _strRealTitle$[ebp]

; 108  : 	CString strRealTitle = strTitle;

  0003e	c7 45 fc 00 00
	00 00		 mov	 DWORD PTR __$EHRec$[ebp+8], 0

; 183  : 	return (strTitle.Left(NODRAW_TITLEREGION.GetLength()) != NODRAW_TITLEREGION);

  00045	ff 70 f4	 push	 DWORD PTR [eax-12]
  00048	8d 45 f0	 lea	 eax, DWORD PTR $T5[ebp]
  0004b	50		 push	 eax
  0004c	ff 15 00 00 00
	00		 call	 DWORD PTR __imp_?Left@?$CStringT@DV?$StrTraitMFC_DLL@DV?$ChTraitsCRT@D@ATL@@@@@ATL@@QBE?AV12@H@Z
; File C:\Program Files (x86)\Microsoft Visual Studio\2019\Community\VC\Tools\MSVC\14.29.30133\atlmfc\include\cstringt.h

; 2560 : 		return( str1.Compare( str2 ) != 0 );

  00052	ff 37		 push	 DWORD PTR [edi]
  00054	8b c8		 mov	 ecx, eax
; File D:\git\src\IBK\IBK_DRFN\ProjSrc\SrcChartEx\ChartOCX\GraphDraw\GraphTitleDrawer.cpp

; 183  : 	return (strTitle.Left(NODRAW_TITLEREGION.GetLength()) != NODRAW_TITLEREGION);

  00056	c6 45 fc 01	 mov	 BYTE PTR __$EHRec$[ebp+8], 1
; File C:\Program Files (x86)\Microsoft Visual Studio\2019\Community\VC\Tools\MSVC\14.29.30133\atlmfc\include\cstringt.h

; 2560 : 		return( str1.Compare( str2 ) != 0 );

  0005a	ff 15 00 00 00
	00		 call	 DWORD PTR __imp_?Compare@?$CStringT@DV?$StrTraitMFC_DLL@DV?$ChTraitsCRT@D@ATL@@@@@ATL@@QBEHPBD@Z
; File D:\git\src\IBK\IBK_DRFN\ProjSrc\SrcChartEx\ChartOCX\GraphDraw\GraphTitleDrawer.cpp

; 183  : 	return (strTitle.Left(NODRAW_TITLEREGION.GetLength()) != NODRAW_TITLEREGION);

  00060	8d 4d f0	 lea	 ecx, DWORD PTR $T5[ebp]
  00063	c6 45 fc 00	 mov	 BYTE PTR __$EHRec$[ebp+8], 0
; File C:\Program Files (x86)\Microsoft Visual Studio\2019\Community\VC\Tools\MSVC\14.29.30133\atlmfc\include\cstringt.h

; 2560 : 		return( str1.Compare( str2 ) != 0 );

  00067	8b f0		 mov	 esi, eax
; File D:\git\src\IBK\IBK_DRFN\ProjSrc\SrcChartEx\ChartOCX\GraphDraw\GraphTitleDrawer.cpp

; 183  : 	return (strTitle.Left(NODRAW_TITLEREGION.GetLength()) != NODRAW_TITLEREGION);

  00069	ff 15 00 00 00
	00		 call	 DWORD PTR __imp_??1?$CStringT@DV?$StrTraitMFC_DLL@DV?$ChTraitsCRT@D@ATL@@@@@ATL@@QAE@XZ

; 109  : 	// text region 
; 110  : 	if(IsGraphTitleRegionDraw(strRealTitle))

  0006f	8b 5d 08	 mov	 ebx, DWORD PTR _pDC$[ebp]
  00072	85 f6		 test	 esi, esi
