; Listing generated by Microsoft (R) Optimizing Compiler Version 19.29.30145.0 

	TITLE	D:\git\src\IBK\IBK_DRFN\#DRfn-CS\_Obj\GraphDraw\GraphDataDrawer.obj
	.686P
	.XMM
	include listing.inc
	.model	flat

INCLUDELIB MSVCRT
INCLUDELIB OLDNAMES

PUBLIC	?__empty_global_delete@@YAXPAX@Z		; __empty_global_delete
PUBLIC	?__empty_global_delete@@YAXPAXI@Z		; __empty_global_delete
PUBLIC	??1CObject@@UAE@XZ				; CObject::~CObject
PUBLIC	?Serialize@CObject@@UAEXAAVCArchive@@@Z		; CObject::Serialize
PUBLIC	?AssertValid@CObject@@UBEXXZ			; CObject::AssertValid
PUBLIC	?Dump@CObject@@UBEXAAVCDumpContext@@@Z		; CObject::Dump
PUBLIC	??1CGdiObject@@UAE@XZ				; CGdiObject::~CGdiObject
PUBLIC	??_GCGdiObject@@UAEPAXI@Z			; CGdiObject::`scalar deleting destructor'
PUBLIC	??1CPen@@UAE@XZ					; CPen::~CPen
PUBLIC	??_GCPen@@UAEPAXI@Z				; CPen::`scalar deleting destructor'
PUBLIC	??1CBrush@@UAE@XZ				; CBrush::~CBrush
PUBLIC	??_GCBrush@@UAEPAXI@Z				; CBrush::`scalar deleting destructor'
PUBLIC	??4CPrices@@QAEAAV0@ABV0@@Z			; CPrices::operator=
PUBLIC	??0CPrices@@QAE@XZ				; CPrices::CPrices
PUBLIC	??0CPrices@@QAE@ABN00@Z				; CPrices::CPrices
PUBLIC	?SetPrev@CPrices@@QAEXABN@Z			; CPrices::SetPrev
PUBLIC	?SetCur@CPrices@@QAEXABN@Z			; CPrices::SetCur
PUBLIC	?SetDecimalDownCount@CPrices@@QAEXH@Z		; CPrices::SetDecimalDownCount
PUBLIC	?SetPipSize@CPrices@@QAEXABN@Z			; CPrices::SetPipSize
PUBLIC	?SetDataUnit@CPrices@@QAEXABV?$CStringT@DV?$StrTraitMFC_DLL@DV?$ChTraitsCRT@D@ATL@@@@@ATL@@@Z ; CPrices::SetDataUnit
PUBLIC	?SetPacketType@CPrices@@QAEXABV?$CStringT@DV?$StrTraitMFC_DLL@DV?$ChTraitsCRT@D@ATL@@@@@ATL@@@Z ; CPrices::SetPacketType
PUBLIC	?GetPrev@CPrices@@QBENXZ			; CPrices::GetPrev
PUBLIC	?GetCur@CPrices@@QBENXZ				; CPrices::GetCur
PUBLIC	?GetDifference@CPrices@@QBENXZ			; CPrices::GetDifference
PUBLIC	?GetDecimalDownCount@CPrices@@QBEHXZ		; CPrices::GetDecimalDownCount
PUBLIC	?GetPipSize@CPrices@@QBENXZ			; CPrices::GetPipSize
PUBLIC	?GetDataUnit@CPrices@@QBE?AV?$CStringT@DV?$StrTraitMFC_DLL@DV?$ChTraitsCRT@D@ATL@@@@@ATL@@XZ ; CPrices::GetDataUnit
PUBLIC	?GetPacketType@CPrices@@QBE?AV?$CStringT@DV?$StrTraitMFC_DLL@DV?$ChTraitsCRT@D@ATL@@@@@ATL@@XZ ; CPrices::GetPacketType
PUBLIC	?IsEmpty@CPrices@@QBE_NXZ			; CPrices::IsEmpty
PUBLIC	?IsRose@CPrices@@QBE_NXZ			; CPrices::IsRose
PUBLIC	?IsFall@CPrices@@QBE_NXZ			; CPrices::IsFall
PUBLIC	??1CPrices@@QAE@XZ				; CPrices::~CPrices
PUBLIC	??4CTextData@@QAEAAV0@ABV0@@Z			; CTextData::operator=
PUBLIC	??0CTextData@@QAE@XZ				; CTextData::CTextData
PUBLIC	??0CTextData@@QAE@ABV?$CStringT@DV?$StrTraitMFC_DLL@DV?$ChTraitsCRT@D@ATL@@@@@ATL@@0ABK@Z ; CTextData::CTextData
PUBLIC	?Set@CTextData@@QAEXABV?$CStringT@DV?$StrTraitMFC_DLL@DV?$ChTraitsCRT@D@ATL@@@@@ATL@@0ABK@Z ; CTextData::Set
PUBLIC	?SetTitle@CTextData@@QAEXABV?$CStringT@DV?$StrTraitMFC_DLL@DV?$ChTraitsCRT@D@ATL@@@@@ATL@@@Z ; CTextData::SetTitle
PUBLIC	?SetData@CTextData@@QAEXABV?$CStringT@DV?$StrTraitMFC_DLL@DV?$ChTraitsCRT@D@ATL@@@@@ATL@@@Z ; CTextData::SetData
PUBLIC	?SetColor@CTextData@@QAEXABK@Z			; CTextData::SetColor
PUBLIC	?GetTitle@CTextData@@QBE?AV?$CStringT@DV?$StrTraitMFC_DLL@DV?$ChTraitsCRT@D@ATL@@@@@ATL@@XZ ; CTextData::GetTitle
PUBLIC	?GetData@CTextData@@QBE?AV?$CStringT@DV?$StrTraitMFC_DLL@DV?$ChTraitsCRT@D@ATL@@@@@ATL@@XZ ; CTextData::GetData
PUBLIC	?GetColor@CTextData@@QBEKXZ			; CTextData::GetColor
PUBLIC	?IsEmpty@CTextData@@QBE_NXZ			; CTextData::IsEmpty
PUBLIC	??1CTextData@@QAE@XZ				; CTextData::~CTextData
PUBLIC	?DrawTextOut@CRateDrawer@@IAEXPAVCDC@@ABVCPoint@@ABV?$CStringT@DV?$StrTraitMFC_DLL@DV?$ChTraitsCRT@D@ATL@@@@@ATL@@AAH@Z ; CRateDrawer::DrawTextOut
PUBLIC	?DrawTextOut@CRateDrawer@@IAEXPAVCDC@@ABKABVCPoint@@ABV?$CStringT@DV?$StrTraitMFC_DLL@DV?$ChTraitsCRT@D@ATL@@@@@ATL@@AAH@Z ; CRateDrawer::DrawTextOut
PUBLIC	?DrawRegion@CRateDrawer@@IAEXPAVCDC@@ABVCRect@@ABK2@Z ; CRateDrawer::DrawRegion
PUBLIC	?GetRateText@CRateDrawer@@IBE?AV?$CStringT@DV?$StrTraitMFC_DLL@DV?$ChTraitsCRT@D@ATL@@@@@ATL@@ABN0@Z ; CRateDrawer::GetRateText
PUBLIC	?GetPrices@CRateDrawer@@IBE_NPAVCPacket@@HAAVCPrices@@@Z ; CRateDrawer::GetPrices
PUBLIC	?GetDecimalDownCountAndDataType@CRateDrawer@@IBE_NPAVCPacket@@AAVCPrices@@@Z ; CRateDrawer::GetDecimalDownCountAndDataType
PUBLIC	?GetRealDataEnd@CRateDrawer@@IBEHPAVCPacket@@H@Z ; CRateDrawer::GetRealDataEnd
PUBLIC	?GetDecimalDownCount@CRateDrawer@@ABE_NPAVCPacket@@AAHAAV?$CStringT@DV?$StrTraitMFC_DLL@DV?$ChTraitsCRT@D@ATL@@@@@ATL@@@Z ; CRateDrawer::GetDecimalDownCount
PUBLIC	?DrawData@CDataInGraphRegionDrawer@@QAEXPAVCDC@@ABVCRect@@ABVCDisplayAttributes@@ABVCDrawingGraphData@@ABVCSubGraphData@@AAVCPrices@@@Z ; CDataInGraphRegionDrawer::DrawData
PUBLIC	?DrawData@CDataInGraphRegionDrawer@@AAEXPAVCDC@@ABVCRect@@ABVCDrawingGraphData@@ABVCDisplayDataMinMax@@ABVCPrices@@ABVCGraphColor@@@Z ; CDataInGraphRegionDrawer::DrawData
PUBLIC	?DrawData@CDataInGraphRegionDrawer@@AAEXPAVCDC@@ABVCRect@@ABVCDrawingGraphData@@ABVCPrices@@ABV?$CList@VCTextData@@AAV1@@@@Z ; CDataInGraphRegionDrawer::DrawData
PUBLIC	?IsGraphDataDraw@CDataInGraphRegionDrawer@@ABE_NABVCRect@@ABVCDisplayAttributes@@@Z ; CDataInGraphRegionDrawer::IsGraphDataDraw
PUBLIC	?GetDrawingDatas@CDataInGraphRegionDrawer@@ABE_NABV?$CStringT@DV?$StrTraitMFC_DLL@DV?$ChTraitsCRT@D@ATL@@@@@ATL@@ABVCGraphStyle@@ABV?$CList@PAVCPacket@@PAV1@@@ABVCDisplayAttributes@@AAVCDisplayDataMinMax@@AAVCPrices@@@Z ; CDataInGraphRegionDrawer::GetDrawingDatas
PUBLIC	?GetHighLow@CDataInGraphRegionDrawer@@ABE_NABV?$CStringT@DV?$StrTraitMFC_DLL@DV?$ChTraitsCRT@D@ATL@@@@@ATL@@ABVCGraphStyle@@ABV?$CList@PAVCPacket@@PAV1@@@ABVCDisplayAttributes@@AAVCDisplayDataMinMax@@@Z ; CDataInGraphRegionDrawer::GetHighLow
PUBLIC	?GetDataTexts@CDataInGraphRegionDrawer@@ABE_NABVCGraphDataDrawingData@@ABVCDisplayDataMinMax@@ABVCPrices@@ABVCGraphColor@@AAV?$CList@VCTextData@@AAV1@@@@Z ; CDataInGraphRegionDrawer::GetDataTexts
PUBLIC	?GetDataTexts@CDataInGraphRegionDrawer@@ABE_NABVCGraphDataDrawingData@@ABVCDisplayDataMinMax@@ABVCPrices@@ABVCGraphColor@@AAH4AAV?$CList@VCTextData@@AAV1@@@@Z ; CDataInGraphRegionDrawer::GetDataTexts
PUBLIC	?GetPosition_Y@CDataInGraphRegionDrawer@@ABEHPAVCDC@@HH_NABVCDisplayDataMinMax@@ABN@Z ; CDataInGraphRegionDrawer::GetPosition_Y
PUBLIC	?GetDrawingText@CDataInGraphRegionDrawer@@ABE?AV?$CStringT@DV?$StrTraitMFC_DLL@DV?$ChTraitsCRT@D@ATL@@@@@ATL@@ABVCTextData@@@Z ; CDataInGraphRegionDrawer::GetDrawingText
PUBLIC	?AddTailAndGetMaxLength@CDataInGraphRegionDrawer@@ABE_NABV?$CStringT@DV?$StrTraitMFC_DLL@DV?$ChTraitsCRT@D@ATL@@@@@ATL@@0ABKAAH2AAV?$CList@VCTextData@@AAV1@@@@Z ; CDataInGraphRegionDrawer::AddTailAndGetMaxLength
PUBLIC	?ChangeData@CDataInGraphRegionDrawer@@ABEXHHAAV?$CList@VCTextData@@AAV1@@@@Z ; CDataInGraphRegionDrawer::ChangeData
PUBLIC	?ChangeMaxLength@CDataInGraphRegionDrawer@@ABEXABV?$CStringT@DV?$StrTraitMFC_DLL@DV?$ChTraitsCRT@D@ATL@@@@@ATL@@AAH@Z ; CDataInGraphRegionDrawer::ChangeMaxLength
PUBLIC	?GetChangingData@CDataInGraphRegionDrawer@@ABE_NABV?$CStringT@DV?$StrTraitMFC_DLL@DV?$ChTraitsCRT@D@ATL@@@@@ATL@@H_NAAV23@@Z ; CDataInGraphRegionDrawer::GetChangingData
PUBLIC	?GetRiseFallRateText_LowHigh@CDataInGraphRegionDrawer@@ABE?AV?$CStringT@DV?$StrTraitMFC_DLL@DV?$ChTraitsCRT@D@ATL@@@@@ATL@@ABVCDisplayDataMinMax@@@Z ; CDataInGraphRegionDrawer::GetRiseFallRateText_LowHigh
PUBLIC	?GetRiseFallRateText_LowCur@CDataInGraphRegionDrawer@@ABE?AV?$CStringT@DV?$StrTraitMFC_DLL@DV?$ChTraitsCRT@D@ATL@@@@@ATL@@ABN0@Z ; CDataInGraphRegionDrawer::GetRiseFallRateText_LowCur
PUBLIC	?GetRiseFallRateText_HighCur@CDataInGraphRegionDrawer@@ABE?AV?$CStringT@DV?$StrTraitMFC_DLL@DV?$ChTraitsCRT@D@ATL@@@@@ATL@@ABN0@Z ; CDataInGraphRegionDrawer::GetRiseFallRateText_HighCur
PUBLIC	?GetRateText_PrevCur@CDataInGraphRegionDrawer@@ABE?AV?$CStringT@DV?$StrTraitMFC_DLL@DV?$ChTraitsCRT@D@ATL@@@@@ATL@@ABVCPrices@@@Z ; CDataInGraphRegionDrawer::GetRateText_PrevCur
PUBLIC	?DrawData@CDataInRightScaleRegionDrawer@@QAEXPAVCDC@@ABVCRect@@ABVCDisplayAttributes@@ABVCDrawingGraphData@@ABVCGraphColor@@ABVCPrices@@@Z ; CDataInRightScaleRegionDrawer::DrawData
PUBLIC	?GetText@CDataInRightScaleRegionDrawer@@QBE_NABVCTextInRightScaleRegionDrawer@@AAV?$CStringT@DV?$StrTraitMFC_DLL@DV?$ChTraitsCRT@D@ATL@@@@@ATL@@111@Z ; CDataInRightScaleRegionDrawer::GetText
PUBLIC	?GetPacket@CDataInRightScaleRegionDrawer@@QBEPAVCPacket@@ABVCDrawingGraphData@@@Z ; CDataInRightScaleRegionDrawer::GetPacket
PUBLIC	?DrawData@CDataInRightScaleRegionDrawer@@AAEXPAVCDC@@ABVCRect@@ABVCDrawingGraphData@@ABVCGraphColor@@ABVCPrices@@AAV?$CStringT@DV?$StrTraitMFC_DLL@DV?$ChTraitsCRT@D@ATL@@@@@ATL@@@Z ; CDataInRightScaleRegionDrawer::DrawData
PUBLIC	?DrawData@CDataInRightScaleRegionDrawer@@AAEXPAVCDC@@ABVCRect@@ABVCDrawingGraphData@@ABVCGraphColor@@ABVCPrices@@AAV?$CStringT@DV?$StrTraitMFC_DLL@DV?$ChTraitsCRT@D@ATL@@@@@ATL@@AAV3@@Z ; CDataInRightScaleRegionDrawer::DrawData
PUBLIC	?DrawData@CDataInRightScaleRegionDrawer@@AAEXPAVCDC@@ABVCRect@@ABV?$CStringT@DV?$StrTraitMFC_DLL@DV?$ChTraitsCRT@D@ATL@@@@@ATL@@ABK3AAH@Z ; CDataInRightScaleRegionDrawer::DrawData
PUBLIC	?GetDrawingDatas@CDataInRightScaleRegionDrawer@@ABE_NABVCDisplayAttributes@@ABVCDrawingGraphData@@ABVCPrices@@AAV4@AAV?$CStringT@DV?$StrTraitMFC_DLL@DV?$ChTraitsCRT@D@ATL@@@@@ATL@@@Z ; CDataInRightScaleRegionDrawer::GetDrawingDatas
PUBLIC	?GetDrawingDatas@CDataInRightScaleRegionDrawer@@ABE_NPAVCPacket@@HHABVCPrices@@AAV3@@Z ; CDataInRightScaleRegionDrawer::GetDrawingDatas
PUBLIC	?GetPricesInFull@CDataInRightScaleRegionDrawer@@ABE_NPAVCPacket@@AAVCPrices@@@Z ; CDataInRightScaleRegionDrawer::GetPricesInFull
PUBLIC	?GetPricesInView@CDataInRightScaleRegionDrawer@@ABE_NPAVCPacket@@HABVCPrices@@AAV3@@Z ; CDataInRightScaleRegionDrawer::GetPricesInView
PUBLIC	?GetPosition_Y@CDataInRightScaleRegionDrawer@@ABEHABVCSize@@ABVCDrawingGraphData@@ABNABVCRect@@@Z ; CDataInRightScaleRegionDrawer::GetPosition_Y
PUBLIC	?GetGripRegion@CDataInRightScaleRegionDrawer@@ABE?AVCRect@@ABVCDrawingGraphData@@ABV2@@Z ; CDataInRightScaleRegionDrawer::GetGripRegion
PUBLIC	?GetTextRegion@CDataInRightScaleRegionDrawer@@ABE?AVCRect@@PAVCDC@@ABVCDrawingGraphData@@ABVCPrices@@ABV?$CStringT@DV?$StrTraitMFC_DLL@DV?$ChTraitsCRT@D@ATL@@@@@ATL@@333ABV2@@Z ; CDataInRightScaleRegionDrawer::GetTextRegion
PUBLIC	?GetTextRegion@CDataInRightScaleRegionDrawer@@ABE?AVCRect@@PAVCDC@@ABVCPoint@@ABV?$CStringT@DV?$StrTraitMFC_DLL@DV?$ChTraitsCRT@D@ATL@@@@@ATL@@222@Z ; CDataInRightScaleRegionDrawer::GetTextRegion
PUBLIC	?GetDrawingTextRegion@CDataInRightScaleRegionDrawer@@ABE?AVCRect@@ABV2@H@Z ; CDataInRightScaleRegionDrawer::GetDrawingTextRegion
PUBLIC	?GetTextPosition@CDataInRightScaleRegionDrawer@@ABE?AVCPoint@@HHABVCSize@@H@Z ; CDataInRightScaleRegionDrawer::GetTextPosition
PUBLIC	?GetCurrentPriceTextColor@CDataInRightScaleRegionDrawer@@ABEKABVCGraphColor@@ABVCPrices@@@Z ; CDataInRightScaleRegionDrawer::GetCurrentPriceTextColor
PUBLIC	?GetTextColor@CDataInRightScaleRegionDrawer@@ABEKABK@Z ; CDataInRightScaleRegionDrawer::GetTextColor
PUBLIC	?GetText@CDataInRightScaleRegionDrawer@@ABE_NABVCRect@@ABVCPrices@@HAAV?$CStringT@DV?$StrTraitMFC_DLL@DV?$ChTraitsCRT@D@ATL@@@@@ATL@@222@Z ; CDataInRightScaleRegionDrawer::GetText
PUBLIC	?GetText_Price@CDataInRightScaleRegionDrawer@@ABE?AV?$CStringT@DV?$StrTraitMFC_DLL@DV?$ChTraitsCRT@D@ATL@@@@@ATL@@NABV23@0H@Z ; CDataInRightScaleRegionDrawer::GetText_Price
PUBLIC	?GetText_CurrentPrice@CDataInRightScaleRegionDrawer@@ABE?AV?$CStringT@DV?$StrTraitMFC_DLL@DV?$ChTraitsCRT@D@ATL@@@@@ATL@@ABVCPrices@@ABV23@@Z ; CDataInRightScaleRegionDrawer::GetText_CurrentPrice
PUBLIC	?IsGraphDataDraw@CDataInRightScaleRegionDrawer@@ABE_NABVCRect@@@Z ; CDataInRightScaleRegionDrawer::IsGraphDataDraw
PUBLIC	?IsGraphDataDraw_Rate@CDataInRightScaleRegionDrawer@@ABE_NABVCRect@@ABVCPrices@@@Z ; CDataInRightScaleRegionDrawer::IsGraphDataDraw_Rate
PUBLIC	?GetPacketAndDataEnd@CDataInRightScaleRegionDrawer@@ABE_NABVCTextInRightScaleRegionDrawer@@AAPAVCPacket@@AAH@Z ; CDataInRightScaleRegionDrawer::GetPacketAndDataEnd
PUBLIC	?DrawGraphDatas@CGraphDataDrawer@@QAEXPAVCDC@@ABVCRect@@ABVCDisplayAttributes@@ABVCDrawingGraphData@@ABVCSubGraphData@@@Z ; CGraphDataDrawer::DrawGraphDatas
PUBLIC	??4CGraphDrawer@@QAEAAV0@ABV0@@Z		; CGraphDrawer::operator=
PUBLIC	??4CGraphDrawer@@QAEAAV0@$$QAV0@@Z		; CGraphDrawer::operator=
PUBLIC	?FindIndex@?$CList@NN@@QBEPAU__POSITION@@H@Z	; CList<double,double>::FindIndex
PUBLIC	??0?$CList@VCTextData@@AAV1@@@QAE@H@Z		; CList<CTextData,CTextData &>::CList<CTextData,CTextData &>
PUBLIC	?AddTail@?$CList@VCTextData@@AAV1@@@QAEPAU__POSITION@@AAVCTextData@@@Z ; CList<CTextData,CTextData &>::AddTail
PUBLIC	?RemoveAll@?$CList@VCTextData@@AAV1@@@QAEXXZ	; CList<CTextData,CTextData &>::RemoveAll
PUBLIC	?NewNode@?$CList@VCTextData@@AAV1@@@IAEPAUCNode@1@PAU21@0@Z ; CList<CTextData,CTextData &>::NewNode
PUBLIC	??1?$CList@VCTextData@@AAV1@@@UAE@XZ		; CList<CTextData,CTextData &>::~CList<CTextData,CTextData &>
PUBLIC	?Serialize@?$CList@VCTextData@@AAV1@@@UAEXAAVCArchive@@@Z ; CList<CTextData,CTextData &>::Serialize
PUBLIC	??_G?$CList@VCTextData@@AAV1@@@UAEPAXI@Z	; CList<CTextData,CTextData &>::`scalar deleting destructor'
PUBLIC	??$SerializeElements@VCTextData@@@@YGXAAVCArchive@@PAVCTextData@@H@Z ; SerializeElements<CTextData>
PUBLIC	??_R0PAVCException@@@8				; CException * `RTTI Type Descriptor'
PUBLIC	??_C@_00CNPNBAHC@@				; `string'
PUBLIC	??_7CGdiObject@@6B@				; CGdiObject::`vftable'
PUBLIC	??_7CPen@@6B@					; CPen::`vftable'
PUBLIC	??_7CBrush@@6B@					; CBrush::`vftable'
PUBLIC	??_C@_0HD@JJCHHHNK@C?3?2Program?5Files?5?$CIx86?$CJ?2Microsof@ ; `string'
PUBLIC	??_C@_0BP@OIEOKIDM@Exception?5thrown?5in?5destructor@ ; `string'
PUBLIC	??_C@_0BB@HBOOMJBF@?$CFTs?5?$CI?$CFTs?3?$CFd?$CJ?6?$CFTs@ ; `string'
PUBLIC	??_C@_0N@OMEMOKLE@?$CFTs?5?$CI?$CFTs?3?$CFd?$CJ@ ; `string'
PUBLIC	??_R0?AVCObject@@@8				; CObject `RTTI Type Descriptor'
PUBLIC	??_R3CObject@@8					; CObject::`RTTI Class Hierarchy Descriptor'
PUBLIC	??_R2CObject@@8					; CObject::`RTTI Base Class Array'
PUBLIC	??_R1A@?0A@EA@CObject@@8			; CObject::`RTTI Base Class Descriptor at (0,-1,0,64)'
PUBLIC	??_R4CGdiObject@@6B@				; CGdiObject::`RTTI Complete Object Locator'
PUBLIC	??_R0?AVCGdiObject@@@8				; CGdiObject `RTTI Type Descriptor'
PUBLIC	??_R3CGdiObject@@8				; CGdiObject::`RTTI Class Hierarchy Descriptor'
PUBLIC	??_R2CGdiObject@@8				; CGdiObject::`RTTI Base Class Array'
PUBLIC	??_R1A@?0A@EA@CGdiObject@@8			; CGdiObject::`RTTI Base Class Descriptor at (0,-1,0,64)'
PUBLIC	??_R4CPen@@6B@					; CPen::`RTTI Complete Object Locator'
PUBLIC	??_R0?AVCPen@@@8				; CPen `RTTI Type Descriptor'
PUBLIC	??_R3CPen@@8					; CPen::`RTTI Class Hierarchy Descriptor'
PUBLIC	??_R2CPen@@8					; CPen::`RTTI Base Class Array'
PUBLIC	??_R1A@?0A@EA@CPen@@8				; CPen::`RTTI Base Class Descriptor at (0,-1,0,64)'
PUBLIC	??_R4CBrush@@6B@				; CBrush::`RTTI Complete Object Locator'
PUBLIC	??_R0?AVCBrush@@@8				; CBrush `RTTI Type Descriptor'
PUBLIC	??_R3CBrush@@8					; CBrush::`RTTI Class Hierarchy Descriptor'
PUBLIC	??_R2CBrush@@8					; CBrush::`RTTI Base Class Array'
PUBLIC	??_R1A@?0A@EA@CBrush@@8				; CBrush::`RTTI Base Class Descriptor at (0,-1,0,64)'
PUBLIC	??_C@_01FGNFDNOH@?$CF@				; `string'
PUBLIC	??_C@_01LFCBOECM@?4@				; `string'
PUBLIC	??_C@_01GBGANLPD@0@				; `string'
PUBLIC	??_7?$CList@VCTextData@@AAV1@@@6B@		; CList<CTextData,CTextData &>::`vftable'
PUBLIC	??_C@_02EBJOJHEE@LH@				; `string'
PUBLIC	??_C@_02KCGKEOIP@LC@				; `string'
PUBLIC	??_C@_02KFGDOGFD@HC@				; `string'
PUBLIC	??_C@_07IAFACCAD@?$CFs?5?3?5?$CFs@		; `string'
PUBLIC	??_C@_04DFBLBIBB@X0?41@				; `string'
PUBLIC	??_C@_01PKGAHCOL@?$CJ@				; `string'
PUBLIC	??_C@_01ODHLEDKK@?$CI@				; `string'
PUBLIC	??_R4?$CList@VCTextData@@AAV1@@@6B@		; CList<CTextData,CTextData &>::`RTTI Complete Object Locator'
PUBLIC	??_R0?AV?$CList@VCTextData@@AAV1@@@@8		; CList<CTextData,CTextData &> `RTTI Type Descriptor'
PUBLIC	??_R3?$CList@VCTextData@@AAV1@@@8		; CList<CTextData,CTextData &>::`RTTI Class Hierarchy Descriptor'
PUBLIC	??_R2?$CList@VCTextData@@AAV1@@@8		; CList<CTextData,CTextData &>::`RTTI Base Class Array'
PUBLIC	??_R1A@?0A@EA@?$CList@VCTextData@@AAV1@@@8	; CList<CTextData,CTextData &>::`RTTI Base Class Descriptor at (0,-1,0,64)'
PUBLIC	__real@0000000000000000
PUBLIC	__real@3ee4f8b588e368f1
PUBLIC	__real@3ff0000000000000
PUBLIC	__real@4024000000000000
PUBLIC	__real@4059000000000000
PUBLIC	__xmm@7fffffffffffffff7fffffffffffffff
EXTRN	??_L@YGXPAXIIP6EX0@Z1@Z:PROC			; `eh vector constructor iterator'
EXTRN	??_M@YGXPAXIIP6EX0@Z@Z:PROC			; `eh vector destructor iterator'
EXTRN	??3@YAXPAX@Z:PROC				; operator delete
EXTRN	??3@YAXPAXI@Z:PROC				; operator delete
EXTRN	?__global_delete@@YAXPAXI@Z:PROC		; __global_delete
EXTRN	___std_terminate:PROC
EXTRN	__imp__GetTextExtentPoint32A@16:PROC
EXTRN	__imp__Rectangle@20:PROC
EXTRN	__imp__OffsetRect@12:PROC
EXTRN	__imp__atoi:PROC
EXTRN	?AfxThrowInvalidArgException@@YGXXZ:PROC	; AfxThrowInvalidArgException
EXTRN	?AfxThrowArchiveException@@YGXHPBD@Z:PROC	; AfxThrowArchiveException
EXTRN	?GetRuntimeClass@CObject@@UBEPAUCRuntimeClass@@XZ:PROC ; CObject::GetRuntimeClass
EXTRN	__imp_?GetAt@?$CSimpleStringT@D$00@ATL@@QBEDH@Z:PROC
EXTRN	__imp_?Concatenate@?$CSimpleStringT@D$00@ATL@@KAXAAV12@PBDH1H@Z:PROC
EXTRN	__imp_??0?$CStringT@DV?$StrTraitMFC_DLL@DV?$ChTraitsCRT@D@ATL@@@@@ATL@@QAE@XZ:PROC
EXTRN	__imp_??0?$CStringT@DV?$StrTraitMFC_DLL@DV?$ChTraitsCRT@D@ATL@@@@@ATL@@QAE@PAUIAtlStringMgr@1@@Z:PROC
EXTRN	__imp_??0?$CStringT@DV?$StrTraitMFC_DLL@DV?$ChTraitsCRT@D@ATL@@@@@ATL@@QAE@ABV01@@Z:PROC
EXTRN	__imp_??0?$CStringT@DV?$StrTraitMFC_DLL@DV?$ChTraitsCRT@D@ATL@@@@@ATL@@QAE@PBD@Z:PROC
EXTRN	__imp_??1?$CStringT@DV?$StrTraitMFC_DLL@DV?$ChTraitsCRT@D@ATL@@@@@ATL@@QAE@XZ:PROC
EXTRN	__imp_??4?$CStringT@DV?$StrTraitMFC_DLL@DV?$ChTraitsCRT@D@ATL@@@@@ATL@@QAEAAV01@ABV01@@Z:PROC
EXTRN	__imp_??4?$CStringT@DV?$StrTraitMFC_DLL@DV?$ChTraitsCRT@D@ATL@@@@@ATL@@QAEAAV01@PBD@Z:PROC
EXTRN	__imp_?GetManager@?$CStringT@DV?$StrTraitMFC_DLL@DV?$ChTraitsCRT@D@ATL@@@@@ATL@@QBEPAUIAtlStringMgr@2@XZ:PROC
EXTRN	__imp_?Compare@?$CStringT@DV?$StrTraitMFC_DLL@DV?$ChTraitsCRT@D@ATL@@@@@ATL@@QBEHPBD@Z:PROC
EXTRN	__imp_?Replace@?$CStringT@DV?$StrTraitMFC_DLL@DV?$ChTraitsCRT@D@ATL@@@@@ATL@@QAEHDD@Z:PROC
EXTRN	__imp_?Find@?$CStringT@DV?$StrTraitMFC_DLL@DV?$ChTraitsCRT@D@ATL@@@@@ATL@@QBEHDH@Z:PROC
EXTRN	__imp_?Find@?$CStringT@DV?$StrTraitMFC_DLL@DV?$ChTraitsCRT@D@ATL@@@@@ATL@@QBEHPBDH@Z:PROC
EXTRN	__imp_?TrimRight@?$CStringT@DV?$StrTraitMFC_DLL@DV?$ChTraitsCRT@D@ATL@@@@@ATL@@QAEAAV12@PBD@Z:PROC
EXTRN	__imp_?Right@?$CStringT@DV?$StrTraitMFC_DLL@DV?$ChTraitsCRT@D@ATL@@@@@ATL@@QBE?AV12@H@Z:PROC
EXTRN	__imp_?Left@?$CStringT@DV?$StrTraitMFC_DLL@DV?$ChTraitsCRT@D@ATL@@@@@ATL@@QBE?AV12@H@Z:PROC
EXTRN	__imp_?Format@?$CStringT@DV?$StrTraitMFC_DLL@DV?$ChTraitsCRT@D@ATL@@@@@ATL@@QAAXPBDZZ:PROC
EXTRN	?Read@CArchive@@QAEIPAXI@Z:PROC			; CArchive::Read
EXTRN	?Write@CArchive@@QAEXPBXI@Z:PROC		; CArchive::Write
EXTRN	?ReadCount@CArchive@@QAEKXZ:PROC		; CArchive::ReadCount
EXTRN	?WriteCount@CArchive@@QAEXK@Z:PROC		; CArchive::WriteCount
EXTRN	?Create@CPlex@@SGPAU1@AAPAU1@II@Z:PROC		; CPlex::Create
EXTRN	?FreeDataChain@CPlex@@QAEXXZ:PROC		; CPlex::FreeDataChain
EXTRN	?GetRuntimeClass@CGdiObject@@UBEPAUCRuntimeClass@@XZ:PROC ; CGdiObject::GetRuntimeClass
EXTRN	?DeleteObject@CGdiObject@@QAEHXZ:PROC		; CGdiObject::DeleteObject
EXTRN	??_ECGdiObject@@UAEPAXI@Z:PROC			; CGdiObject::`vector deleting destructor'
EXTRN	?GetRuntimeClass@CPen@@UBEPAUCRuntimeClass@@XZ:PROC ; CPen::GetRuntimeClass
EXTRN	??0CPen@@QAE@HHK@Z:PROC				; CPen::CPen
EXTRN	??_ECPen@@UAEPAXI@Z:PROC			; CPen::`vector deleting destructor'
EXTRN	?GetRuntimeClass@CBrush@@UBEPAUCRuntimeClass@@XZ:PROC ; CBrush::GetRuntimeClass
EXTRN	??0CBrush@@QAE@K@Z:PROC				; CBrush::CBrush
EXTRN	??_ECBrush@@UAEPAXI@Z:PROC			; CBrush::`vector deleting destructor'
EXTRN	?SelectObject@CDC@@QAEPAVCPen@@PAV2@@Z:PROC	; CDC::SelectObject
EXTRN	?SelectObject@CDC@@QAEPAVCBrush@@PAV2@@Z:PROC	; CDC::SelectObject
EXTRN	?SetBkMode@CDC@@QAEHH@Z:PROC			; CDC::SetBkMode
EXTRN	?AfxMessageBox@@YGHPBDII@Z:PROC			; AfxMessageBox
EXTRN	?GetLanguageText@IMetaTable@@QAEPBDPAUHWND__@@W4E_CODEPAGE@1@PBDH@Z:PROC ; IMetaTable::GetLanguageText
EXTRN	__imp_?IsUseStandardValue@CPacket@@QBE_NH@Z:PROC
EXTRN	__imp_?GetStandardValue@CPacket@@QAENH@Z:PROC
EXTRN	__imp_?GetType@CPacket@@QAE?AV?$CStringT@DV?$StrTraitMFC_DLL@DV?$ChTraitsCRT@D@ATL@@@@@ATL@@_N@Z:PROC
EXTRN	__imp_?GetnumericDataList@CPacket@@QAEPAV?$CList@NN@@XZ:PROC
EXTRN	__imp_?GetMinMax@CPacket@@QAEHHHAAN0H@Z:PROC
EXTRN	?Log@CMath@@SANABN@Z:PROC			; CMath::Log
EXTRN	?DoubleToString@CDataConversion@@SA?AV?$CStringT@DV?$StrTraitMFC_DLL@DV?$ChTraitsCRT@D@ATL@@@@@ATL@@ABNH@Z:PROC ; CDataConversion::DoubleToString
EXTRN	?DoubleToString@CDataConversion@@SA?AV?$CStringT@DV?$StrTraitMFC_DLL@DV?$ChTraitsCRT@D@ATL@@@@@ATL@@ABNABV23@@Z:PROC ; CDataConversion::DoubleToString
EXTRN	?GetStringData@CDataConversion@@SA?AV?$CStringT@DV?$StrTraitMFC_DLL@DV?$ChTraitsCRT@D@ATL@@@@@ATL@@AAV23@ABV23@_N@Z:PROC ; CDataConversion::GetStringData
EXTRN	?GetDataType@CDataConversion@@SANV?$CStringT@DV?$StrTraitMFC_DLL@DV?$ChTraitsCRT@D@ATL@@@@@ATL@@@Z:PROC ; CDataConversion::GetDataType
EXTRN	?GetStringThousandFormat@CDataConversion@@SA?AV?$CStringT@DV?$StrTraitMFC_DLL@DV?$ChTraitsCRT@D@ATL@@@@@ATL@@ABV23@@Z:PROC ; CDataConversion::GetStringThousandFormat
EXTRN	?SelectClipRegion@CDataConversion@@SAXPAVCDC@@ABVCRect@@@Z:PROC ; CDataConversion::SelectClipRegion
EXTRN	?SelectClipRegion@CDataConversion@@SAXPAVCDC@@@Z:PROC ; CDataConversion::SelectClipRegion
EXTRN	?RelativeToAbsolute_Y@CDataConversion@@SAHABVCRect@@ABN11@Z:PROC ; CDataConversion::RelativeToAbsolute_Y
EXTRN	?IsBaseFormat@CDataConversion@@SA_NABV?$CStringT@DV?$StrTraitMFC_DLL@DV?$ChTraitsCRT@D@ATL@@@@@ATL@@@Z:PROC ; CDataConversion::IsBaseFormat
EXTRN	?GetBaseFormatInfo@CDataConversion@@SA_NABV?$CStringT@DV?$StrTraitMFC_DLL@DV?$ChTraitsCRT@D@ATL@@@@@ATL@@AAH11@Z:PROC ; CDataConversion::GetBaseFormatInfo
EXTRN	__imp_??0CDisplayDataMinMax@@QAE@XZ:PROC
EXTRN	__imp_?SetDisplayData@CDisplayDataMinMax@@QAEXABN0@Z:PROC
EXTRN	__imp_?GetDisplayMin@CDisplayDataMinMax@@QBENXZ:PROC
EXTRN	__imp_?GetDisplayMax@CDisplayDataMinMax@@QBENXZ:PROC
EXTRN	__imp_?GetCount@CDisplayDataMinMax@@QBENXZ:PROC
EXTRN	__imp_?IsCloseToMaxValue@CDisplayDataMinMax@@QBE_NABN_N@Z:PROC
EXTRN	__imp_?IsInitialized@CDisplayDataMinMax@@QBEHXZ:PROC
EXTRN	__imp_?GetColor1@CGraphColor@@QBEKXZ:PROC
EXTRN	__imp_?GetColor3@CGraphColor@@QBEKXZ:PROC
EXTRN	__imp_?GetColor5@CGraphColor@@QBEKXZ:PROC
EXTRN	__imp_?DoesCalcRiseFallRate_LowHigh@CGraphDataDrawingData@@QBE_NXZ:PROC
EXTRN	__imp_?DoesCalcRiseFallRate_LowCur@CGraphDataDrawingData@@QBE_NXZ:PROC
EXTRN	__imp_?DoesCalcRiseFallRate_HighCur@CGraphDataDrawingData@@QBE_NXZ:PROC
EXTRN	__imp_?DoesCalcRate_PrevCur@CGraphDataDrawingData@@QBE_NXZ:PROC
EXTRN	__imp_?GetCalcRiseFallRate_CurData@CGraphDataDrawingData@@QBEHXZ:PROC
EXTRN	__imp_?GetType@CSubGraphDataBase@@QBE?AW4GRAPHTYPE@CGraphBaseData@@XZ:PROC
EXTRN	__imp_?GetStyle@CSubGraphDataBase@@QBE?AVCGraphStyle@@XZ:PROC
EXTRN	__imp_?GetColor@CSubGraphDataBase@@QBE?AVCGraphColor@@XZ:PROC
EXTRN	__imp_?GetItemName@CSubGraphDataBase@@QBE?AV?$CStringT@DV?$StrTraitMFC_DLL@DV?$ChTraitsCRT@D@ATL@@@@@ATL@@XZ:PROC
EXTRN	?SetDataEndInBlock@CDisplayAttributes@@QAEXH@Z:PROC ; CDisplayAttributes::SetDataEndInBlock
EXTRN	?GetDataStartInBlock@CDisplayAttributes@@QBEHXZ:PROC ; CDisplayAttributes::GetDataStartInBlock
EXTRN	?GetDataEndInBlock@CDisplayAttributes@@QBEHXZ:PROC ; CDisplayAttributes::GetDataEndInBlock
EXTRN	?GetDataCountInBlock@CDisplayAttributes@@QBEHXZ:PROC ; CDisplayAttributes::GetDataCountInBlock
EXTRN	?DoesVertScaleLogType@CDrawingGraphData@@QBE_NXZ:PROC ; CDrawingGraphData::DoesVertScaleLogType
EXTRN	?DoesVertScaleInvertType@CDrawingGraphData@@QBE_NXZ:PROC ; CDrawingGraphData::DoesVertScaleInvertType
EXTRN	?GetGraphRegions@CDrawingGraphData@@QBEABVCGraphRegions@@XZ:PROC ; CDrawingGraphData::GetGraphRegions
EXTRN	?GetScaleTextRegion@CDrawingGraphData@@QBE?AVCRect@@XZ:PROC ; CDrawingGraphData::GetScaleTextRegion
EXTRN	?GetLeftScaleTextRegion@CDrawingGraphData@@QBE?AVCRect@@XZ:PROC ; CDrawingGraphData::GetLeftScaleTextRegion
EXTRN	?GetRightScaleTextRegion@CDrawingGraphData@@QBE?AVCRect@@XZ:PROC ; CDrawingGraphData::GetRightScaleTextRegion
EXTRN	?GetDisplayDataVertMinMax@CDrawingGraphData@@QBE?AVCDisplayDataMinMax@@XZ:PROC ; CDrawingGraphData::GetDisplayDataVertMinMax
EXTRN	?GetGraphDataDrawingData@CDrawingGraphData@@QBE?AVCGraphDataDrawingData@@XZ:PROC ; CDrawingGraphData::GetGraphDataDrawingData
EXTRN	?GetSubGraphPacketList@CDrawingGraphData@@QBEPAVCSubGraphPacketList@@XZ:PROC ; CDrawingGraphData::GetSubGraphPacketList
EXTRN	?GetIndicatorName@CDrawingGraphData@@QBE?AV?$CStringT@DV?$StrTraitMFC_DLL@DV?$ChTraitsCRT@D@ATL@@@@@ATL@@XZ:PROC ; CDrawingGraphData::GetIndicatorName
EXTRN	?GetGraphName@CTextInRightScaleRegionDrawer@@QBE?AV?$CStringT@DV?$StrTraitMFC_DLL@DV?$ChTraitsCRT@D@ATL@@@@@ATL@@XZ:PROC ; CTextInRightScaleRegionDrawer::GetGraphName
EXTRN	?GetSubGraphPacketList@CTextInRightScaleRegionDrawer@@QBEPAVCSubGraphPacketList@@XZ:PROC ; CTextInRightScaleRegionDrawer::GetSubGraphPacketList
EXTRN	?GetRegion@CTextInRightScaleRegionDrawer@@QBE?AVCRect@@XZ:PROC ; CTextInRightScaleRegionDrawer::GetRegion
EXTRN	?GetCurDataType@CTextInRightScaleRegionDrawer@@QBEHXZ:PROC ; CTextInRightScaleRegionDrawer::GetCurDataType
EXTRN	?GetDataEnd@CTextInRightScaleRegionDrawer@@QBEHXZ:PROC ; CTextInRightScaleRegionDrawer::GetDataEnd
EXTRN	?IsTextDrawing@CTextInRightScaleRegionDrawer@@QBE_NXZ:PROC ; CTextInRightScaleRegionDrawer::IsTextDrawing
EXTRN	?GetPracticalPacket@CDrawingPacketFinder@@QBEPAVCPacket@@ABV?$CStringT@DV?$StrTraitMFC_DLL@DV?$ChTraitsCRT@D@ATL@@@@@ATL@@ABV?$CList@PAVCPacket@@PAV1@@@@Z:PROC ; CDrawingPacketFinder::GetPracticalPacket
EXTRN	?GetPacket@CDrawingPacketFinder@@QBEPAVCPacket@@ABV?$CList@PAVCPacket@@PAV1@@@ABV?$CStringT@DV?$StrTraitMFC_DLL@DV?$ChTraitsCRT@D@ATL@@@@@ATL@@@Z:PROC ; CDrawingPacketFinder::GetPacket
EXTRN	?GetSubGraphPacketList@CSubGraphPacketList@@QBEABV?$CList@PAVCPacket@@PAV1@@@XZ:PROC ; CSubGraphPacketList::GetSubGraphPacketList
EXTRN	??_E?$CList@VCTextData@@AAV1@@@UAEPAXI@Z:PROC	; CList<CTextData,CTextData &>::`vector deleting destructor'
EXTRN	@__security_check_cookie@4:PROC
EXTRN	___CxxFrameHandler3:PROC
EXTRN	??_7type_info@@6B@:QWORD			; type_info::`vftable'
EXTRN	?g_iMetaTable@@3VIMetaTable@@A:BYTE		; g_iMetaTable
EXTRN	___security_cookie:DWORD
EXTRN	__fltused:DWORD
;	COMDAT __xmm@7fffffffffffffff7fffffffffffffff
CONST	SEGMENT
__xmm@7fffffffffffffff7fffffffffffffff DB 0ffH, 0ffH, 0ffH, 0ffH, 0ffH, 0ffH
	DB	0ffH, 07fH, 0ffH, 0ffH, 0ffH, 0ffH, 0ffH, 0ffH, 0ffH, 07fH
CONST	ENDS
;	COMDAT __real@4059000000000000
CONST	SEGMENT
__real@4059000000000000 DQ 04059000000000000r	; 100
CONST	ENDS
;	COMDAT __real@4024000000000000
CONST	SEGMENT
__real@4024000000000000 DQ 04024000000000000r	; 10
CONST	ENDS
;	COMDAT __real@3ff0000000000000
CONST	SEGMENT
__real@3ff0000000000000 DQ 03ff0000000000000r	; 1
CONST	ENDS
;	COMDAT __real@3ee4f8b588e368f1
CONST	SEGMENT
__real@3ee4f8b588e368f1 DQ 03ee4f8b588e368f1r	; 1e-05
CONST	ENDS
;	COMDAT __real@0000000000000000
CONST	SEGMENT
__real@0000000000000000 DQ 00000000000000000r	; 0
CONST	ENDS
;	COMDAT ??_R1A@?0A@EA@?$CList@VCTextData@@AAV1@@@8
rdata$r	SEGMENT
??_R1A@?0A@EA@?$CList@VCTextData@@AAV1@@@8 DD FLAT:??_R0?AV?$CList@VCTextData@@AAV1@@@@8 ; CList<CTextData,CTextData &>::`RTTI Base Class Descriptor at (0,-1,0,64)'
	DD	01H
	DD	00H
	DD	0ffffffffH
	DD	00H
	DD	040H
	DD	FLAT:??_R3?$CList@VCTextData@@AAV1@@@8
rdata$r	ENDS
;	COMDAT ??_R2?$CList@VCTextData@@AAV1@@@8
rdata$r	SEGMENT
??_R2?$CList@VCTextData@@AAV1@@@8 DD FLAT:??_R1A@?0A@EA@?$CList@VCTextData@@AAV1@@@8 ; CList<CTextData,CTextData &>::`RTTI Base Class Array'
	DD	FLAT:??_R1A@?0A@EA@CObject@@8
rdata$r	ENDS
;	COMDAT ??_R3?$CList@VCTextData@@AAV1@@@8
rdata$r	SEGMENT
??_R3?$CList@VCTextData@@AAV1@@@8 DD 00H		; CList<CTextData,CTextData &>::`RTTI Class Hierarchy Descriptor'
	DD	00H
	DD	02H
	DD	FLAT:??_R2?$CList@VCTextData@@AAV1@@@8
rdata$r	ENDS
;	COMDAT ??_R0?AV?$CList@VCTextData@@AAV1@@@@8
data$rs	SEGMENT
??_R0?AV?$CList@VCTextData@@AAV1@@@@8 DD FLAT:??_7type_info@@6B@ ; CList<CTextData,CTextData &> `RTTI Type Descriptor'
	DD	00H
	DB	'.?AV?$CList@VCTextData@@AAV1@@@', 00H
data$rs	ENDS
;	COMDAT ??_R4?$CList@VCTextData@@AAV1@@@6B@
rdata$r	SEGMENT
??_R4?$CList@VCTextData@@AAV1@@@6B@ DD 00H		; CList<CTextData,CTextData &>::`RTTI Complete Object Locator'
	DD	00H
	DD	00H
	DD	FLAT:??_R0?AV?$CList@VCTextData@@AAV1@@@@8
	DD	FLAT:??_R3?$CList@VCTextData@@AAV1@@@8
rdata$r	ENDS
;	COMDAT ??_C@_01ODHLEDKK@?$CI@
CONST	SEGMENT
??_C@_01ODHLEDKK@?$CI@ DB '(', 00H			; `string'
CONST	ENDS
;	COMDAT ??_C@_01PKGAHCOL@?$CJ@
CONST	SEGMENT
??_C@_01PKGAHCOL@?$CJ@ DB ')', 00H			; `string'
CONST	ENDS
;	COMDAT ??_C@_04DFBLBIBB@X0?41@
CONST	SEGMENT
??_C@_04DFBLBIBB@X0?41@ DB 'X0.1', 00H			; `string'
CONST	ENDS
;	COMDAT ??_C@_07IAFACCAD@?$CFs?5?3?5?$CFs@
CONST	SEGMENT
??_C@_07IAFACCAD@?$CFs?5?3?5?$CFs@ DB '%s : %s', 00H	; `string'
CONST	ENDS
;	COMDAT ??_C@_02KFGDOGFD@HC@
CONST	SEGMENT
??_C@_02KFGDOGFD@HC@ DB 'HC', 00H			; `string'
CONST	ENDS
;	COMDAT ??_C@_02KCGKEOIP@LC@
CONST	SEGMENT
??_C@_02KCGKEOIP@LC@ DB 'LC', 00H			; `string'
CONST	ENDS
;	COMDAT ??_C@_02EBJOJHEE@LH@
CONST	SEGMENT
??_C@_02EBJOJHEE@LH@ DB 'LH', 00H			; `string'
CONST	ENDS
;	COMDAT ??_7?$CList@VCTextData@@AAV1@@@6B@
CONST	SEGMENT
??_7?$CList@VCTextData@@AAV1@@@6B@ DD FLAT:??_R4?$CList@VCTextData@@AAV1@@@6B@ ; CList<CTextData,CTextData &>::`vftable'
	DD	FLAT:?GetRuntimeClass@CObject@@UBEPAUCRuntimeClass@@XZ
	DD	FLAT:??_E?$CList@VCTextData@@AAV1@@@UAEPAXI@Z
	DD	FLAT:?Serialize@?$CList@VCTextData@@AAV1@@@UAEXAAVCArchive@@@Z
	DD	FLAT:?AssertValid@CObject@@UBEXXZ
	DD	FLAT:?Dump@CObject@@UBEXAAVCDumpContext@@@Z
CONST	ENDS
;	COMDAT ??_C@_01GBGANLPD@0@
CONST	SEGMENT
??_C@_01GBGANLPD@0@ DB '0', 00H				; `string'
CONST	ENDS
;	COMDAT ??_C@_01LFCBOECM@?4@
CONST	SEGMENT
??_C@_01LFCBOECM@?4@ DB '.', 00H			; `string'
CONST	ENDS
;	COMDAT ??_C@_01FGNFDNOH@?$CF@
CONST	SEGMENT
??_C@_01FGNFDNOH@?$CF@ DB '%', 00H			; `string'
CONST	ENDS
;	COMDAT ??_R1A@?0A@EA@CBrush@@8
rdata$r	SEGMENT
??_R1A@?0A@EA@CBrush@@8 DD FLAT:??_R0?AVCBrush@@@8	; CBrush::`RTTI Base Class Descriptor at (0,-1,0,64)'
	DD	02H
	DD	00H
	DD	0ffffffffH
	DD	00H
	DD	040H
	DD	FLAT:??_R3CBrush@@8
rdata$r	ENDS
;	COMDAT ??_R2CBrush@@8
rdata$r	SEGMENT
??_R2CBrush@@8 DD FLAT:??_R1A@?0A@EA@CBrush@@8		; CBrush::`RTTI Base Class Array'
	DD	FLAT:??_R1A@?0A@EA@CGdiObject@@8
	DD	FLAT:??_R1A@?0A@EA@CObject@@8
rdata$r	ENDS
;	COMDAT ??_R3CBrush@@8
rdata$r	SEGMENT
??_R3CBrush@@8 DD 00H					; CBrush::`RTTI Class Hierarchy Descriptor'
	DD	00H
	DD	03H
	DD	FLAT:??_R2CBrush@@8
rdata$r	ENDS
;	COMDAT ??_R0?AVCBrush@@@8
data$rs	SEGMENT
??_R0?AVCBrush@@@8 DD FLAT:??_7type_info@@6B@		; CBrush `RTTI Type Descriptor'
	DD	00H
	DB	'.?AVCBrush@@', 00H
data$rs	ENDS
;	COMDAT ??_R4CBrush@@6B@
rdata$r	SEGMENT
??_R4CBrush@@6B@ DD 00H					; CBrush::`RTTI Complete Object Locator'
	DD	00H
	DD	00H
	DD	FLAT:??_R0?AVCBrush@@@8
	DD	FLAT:??_R3CBrush@@8
rdata$r	ENDS
;	COMDAT ??_R1A@?0A@EA@CPen@@8
rdata$r	SEGMENT
??_R1A@?0A@EA@CPen@@8 DD FLAT:??_R0?AVCPen@@@8		; CPen::`RTTI Base Class Descriptor at (0,-1,0,64)'
	DD	02H
	DD	00H
	DD	0ffffffffH
	DD	00H
	DD	040H
	DD	FLAT:??_R3CPen@@8
rdata$r	ENDS
;	COMDAT ??_R2CPen@@8
rdata$r	SEGMENT
??_R2CPen@@8 DD	FLAT:??_R1A@?0A@EA@CPen@@8		; CPen::`RTTI Base Class Array'
	DD	FLAT:??_R1A@?0A@EA@CGdiObject@@8
	DD	FLAT:??_R1A@?0A@EA@CObject@@8
rdata$r	ENDS
;	COMDAT ??_R3CPen@@8
rdata$r	SEGMENT
??_R3CPen@@8 DD	00H					; CPen::`RTTI Class Hierarchy Descriptor'
	DD	00H
	DD	03H
	DD	FLAT:??_R2CPen@@8
rdata$r	ENDS
;	COMDAT ??_R0?AVCPen@@@8
data$rs	SEGMENT
??_R0?AVCPen@@@8 DD FLAT:??_7type_info@@6B@		; CPen `RTTI Type Descriptor'
	DD	00H
	DB	'.?AVCPen@@', 00H
data$rs	ENDS
;	COMDAT ??_R4CPen@@6B@
rdata$r	SEGMENT
??_R4CPen@@6B@ DD 00H					; CPen::`RTTI Complete Object Locator'
	DD	00H
	DD	00H
	DD	FLAT:??_R0?AVCPen@@@8
	DD	FLAT:??_R3CPen@@8
rdata$r	ENDS
;	COMDAT ??_R1A@?0A@EA@CGdiObject@@8
rdata$r	SEGMENT
??_R1A@?0A@EA@CGdiObject@@8 DD FLAT:??_R0?AVCGdiObject@@@8 ; CGdiObject::`RTTI Base Class Descriptor at (0,-1,0,64)'
	DD	01H
	DD	00H
	DD	0ffffffffH
	DD	00H
	DD	040H
	DD	FLAT:??_R3CGdiObject@@8
rdata$r	ENDS
;	COMDAT ??_R2CGdiObject@@8
rdata$r	SEGMENT
??_R2CGdiObject@@8 DD FLAT:??_R1A@?0A@EA@CGdiObject@@8	; CGdiObject::`RTTI Base Class Array'
	DD	FLAT:??_R1A@?0A@EA@CObject@@8
rdata$r	ENDS
;	COMDAT ??_R3CGdiObject@@8
rdata$r	SEGMENT
??_R3CGdiObject@@8 DD 00H				; CGdiObject::`RTTI Class Hierarchy Descriptor'
	DD	00H
	DD	02H
	DD	FLAT:??_R2CGdiObject@@8
rdata$r	ENDS
;	COMDAT ??_R0?AVCGdiObject@@@8
data$rs	SEGMENT
??_R0?AVCGdiObject@@@8 DD FLAT:??_7type_info@@6B@	; CGdiObject `RTTI Type Descriptor'
	DD	00H
	DB	'.?AVCGdiObject@@', 00H
data$rs	ENDS
;	COMDAT ??_R4CGdiObject@@6B@
rdata$r	SEGMENT
??_R4CGdiObject@@6B@ DD 00H				; CGdiObject::`RTTI Complete Object Locator'
	DD	00H
	DD	00H
	DD	FLAT:??_R0?AVCGdiObject@@@8
	DD	FLAT:??_R3CGdiObject@@8
rdata$r	ENDS
;	COMDAT ??_R1A@?0A@EA@CObject@@8
rdata$r	SEGMENT
??_R1A@?0A@EA@CObject@@8 DD FLAT:??_R0?AVCObject@@@8	; CObject::`RTTI Base Class Descriptor at (0,-1,0,64)'
	DD	00H
	DD	00H
	DD	0ffffffffH
	DD	00H
	DD	040H
	DD	FLAT:??_R3CObject@@8
rdata$r	ENDS
;	COMDAT ??_R2CObject@@8
rdata$r	SEGMENT
??_R2CObject@@8 DD FLAT:??_R1A@?0A@EA@CObject@@8	; CObject::`RTTI Base Class Array'
rdata$r	ENDS
;	COMDAT ??_R3CObject@@8
rdata$r	SEGMENT
??_R3CObject@@8 DD 00H					; CObject::`RTTI Class Hierarchy Descriptor'
	DD	00H
	DD	01H
	DD	FLAT:??_R2CObject@@8
rdata$r	ENDS
;	COMDAT ??_R0?AVCObject@@@8
data$rs	SEGMENT
??_R0?AVCObject@@@8 DD FLAT:??_7type_info@@6B@		; CObject `RTTI Type Descriptor'
	DD	00H
	DB	'.?AVCObject@@', 00H
data$rs	ENDS
;	COMDAT ??_C@_0N@OMEMOKLE@?$CFTs?5?$CI?$CFTs?3?$CFd?$CJ@
CONST	SEGMENT
??_C@_0N@OMEMOKLE@?$CFTs?5?$CI?$CFTs?3?$CFd?$CJ@ DB '%Ts (%Ts:%d)', 00H ; `string'
CONST	ENDS
;	COMDAT ??_C@_0BB@HBOOMJBF@?$CFTs?5?$CI?$CFTs?3?$CFd?$CJ?6?$CFTs@
CONST	SEGMENT
??_C@_0BB@HBOOMJBF@?$CFTs?5?$CI?$CFTs?3?$CFd?$CJ?6?$CFTs@ DB '%Ts (%Ts:%d'
	DB	')', 0aH, '%Ts', 00H				; `string'
CONST	ENDS
;	COMDAT ??_C@_0BP@OIEOKIDM@Exception?5thrown?5in?5destructor@
CONST	SEGMENT
??_C@_0BP@OIEOKIDM@Exception?5thrown?5in?5destructor@ DB 'Exception throw'
	DB	'n in destructor', 00H			; `string'
CONST	ENDS
;	COMDAT ??_C@_0HD@JJCHHHNK@C?3?2Program?5Files?5?$CIx86?$CJ?2Microsof@
CONST	SEGMENT
??_C@_0HD@JJCHHHNK@C?3?2Program?5Files?5?$CIx86?$CJ?2Microsof@ DB 'C:\Pro'
	DB	'gram Files (x86)\Microsoft Visual Studio\2019\Community\VC\To'
	DB	'ols\MSVC\14.29.30133\atlmfc\include\afxwin1.inl', 00H ; `string'
CONST	ENDS
;	COMDAT ??_7CBrush@@6B@
CONST	SEGMENT
??_7CBrush@@6B@ DD FLAT:??_R4CBrush@@6B@		; CBrush::`vftable'
	DD	FLAT:?GetRuntimeClass@CBrush@@UBEPAUCRuntimeClass@@XZ
	DD	FLAT:??_ECBrush@@UAEPAXI@Z
	DD	FLAT:?Serialize@CObject@@UAEXAAVCArchive@@@Z
	DD	FLAT:?AssertValid@CObject@@UBEXXZ
	DD	FLAT:?Dump@CObject@@UBEXAAVCDumpContext@@@Z
CONST	ENDS
;	COMDAT ??_7CPen@@6B@
CONST	SEGMENT
??_7CPen@@6B@ DD FLAT:??_R4CPen@@6B@			; CPen::`vftable'
	DD	FLAT:?GetRuntimeClass@CPen@@UBEPAUCRuntimeClass@@XZ
	DD	FLAT:??_ECPen@@UAEPAXI@Z
	DD	FLAT:?Serialize@CObject@@UAEXAAVCArchive@@@Z
	DD	FLAT:?AssertValid@CObject@@UBEXXZ
	DD	FLAT:?Dump@CObject@@UBEXAAVCDumpContext@@@Z
CONST	ENDS
;	COMDAT ??_7CGdiObject@@6B@
CONST	SEGMENT
??_7CGdiObject@@6B@ DD FLAT:??_R4CGdiObject@@6B@	; CGdiObject::`vftable'
	DD	FLAT:?GetRuntimeClass@CGdiObject@@UBEPAUCRuntimeClass@@XZ
	DD	FLAT:??_ECGdiObject@@UAEPAXI@Z
	DD	FLAT:?Serialize@CObject@@UAEXAAVCArchive@@@Z
	DD	FLAT:?AssertValid@CObject@@UBEXXZ
	DD	FLAT:?Dump@CObject@@UBEXAAVCDumpContext@@@Z
CONST	ENDS
;	COMDAT ??_C@_00CNPNBAHC@@
CONST	SEGMENT
??_C@_00CNPNBAHC@@ DB 00H				; `string'
CONST	ENDS
;	COMDAT ??_R0PAVCException@@@8
data$r	SEGMENT
??_R0PAVCException@@@8 DD FLAT:??_7type_info@@6B@	; CException * `RTTI Type Descriptor'
	DD	00H
	DB	'.PAVCException@@', 00H
data$r	ENDS
;	COMDAT xdata$x
xdata$x	SEGMENT
__unwindtable$??_G?$CList@VCTextData@@AAV1@@@UAEPAXI@Z DD 0ffffffffH
	DD	FLAT:___std_terminate
__ehfuncinfo$??_G?$CList@VCTextData@@AAV1@@@UAEPAXI@Z DD 019930522H
	DD	01H
	DD	FLAT:__unwindtable$??_G?$CList@VCTextData@@AAV1@@@UAEPAXI@Z
	DD	2 DUP(00H)
	DD	2 DUP(00H)
	DD	00H
	DD	05H
xdata$x	ENDS
;	COMDAT xdata$x
xdata$x	SEGMENT
__unwindtable$?Serialize@?$CList@VCTextData@@AAV1@@@UAEXAAVCArchive@@@Z DD 0ffffffffH
	DD	FLAT:__unwindfunclet$?Serialize@?$CList@VCTextData@@AAV1@@@UAEXAAVCArchive@@@Z$0
__ehfuncinfo$?Serialize@?$CList@VCTextData@@AAV1@@@UAEXAAVCArchive@@@Z DD 019930522H
	DD	01H
	DD	FLAT:__unwindtable$?Serialize@?$CList@VCTextData@@AAV1@@@UAEXAAVCArchive@@@Z
	DD	2 DUP(00H)
	DD	2 DUP(00H)
	DD	00H
	DD	01H
xdata$x	ENDS
;	COMDAT xdata$x
xdata$x	SEGMENT
__ehfuncinfo$??1?$CList@VCTextData@@AAV1@@@UAE@XZ DD 019930522H
	DD	00H
	DD	00H
	DD	2 DUP(00H)
	DD	2 DUP(00H)
	DD	00H
	DD	05H
xdata$x	ENDS
;	COMDAT xdata$x
xdata$x	SEGMENT
__unwindtable$?AddTail@?$CList@VCTextData@@AAV1@@@QAEPAU__POSITION@@AAVCTextData@@@Z DD 0ffffffffH
	DD	FLAT:__unwindfunclet$?AddTail@?$CList@VCTextData@@AAV1@@@QAEPAU__POSITION@@AAVCTextData@@@Z$0
	DD	0ffffffffH
	DD	FLAT:__unwindfunclet$?AddTail@?$CList@VCTextData@@AAV1@@@QAEPAU__POSITION@@AAVCTextData@@@Z$1
__ehfuncinfo$?AddTail@?$CList@VCTextData@@AAV1@@@QAEPAU__POSITION@@AAVCTextData@@@Z DD 019930522H
	DD	02H
	DD	FLAT:__unwindtable$?AddTail@?$CList@VCTextData@@AAV1@@@QAEPAU__POSITION@@AAVCTextData@@@Z
	DD	2 DUP(00H)
	DD	2 DUP(00H)
	DD	00H
	DD	01H
xdata$x	ENDS
;	COMDAT xdata$x
xdata$x	SEGMENT
__unwindtable$?DrawGraphDatas@CGraphDataDrawer@@QAEXPAVCDC@@ABVCRect@@ABVCDisplayAttributes@@ABVCDrawingGraphData@@ABVCSubGraphData@@@Z DD 0ffffffffH
	DD	FLAT:__unwindfunclet$?DrawGraphDatas@CGraphDataDrawer@@QAEXPAVCDC@@ABVCRect@@ABVCDisplayAttributes@@ABVCDrawingGraphData@@ABVCSubGraphData@@@Z$0
__ehfuncinfo$?DrawGraphDatas@CGraphDataDrawer@@QAEXPAVCDC@@ABVCRect@@ABVCDisplayAttributes@@ABVCDrawingGraphData@@ABVCSubGraphData@@@Z DD 019930522H
	DD	01H
	DD	FLAT:__unwindtable$?DrawGraphDatas@CGraphDataDrawer@@QAEXPAVCDC@@ABVCRect@@ABVCDisplayAttributes@@ABVCDrawingGraphData@@ABVCSubGraphData@@@Z
	DD	2 DUP(00H)
	DD	2 DUP(00H)
	DD	00H
	DD	01H
xdata$x	ENDS
;	COMDAT xdata$x
xdata$x	SEGMENT
__unwindtable$?GetPacketAndDataEnd@CDataInRightScaleRegionDrawer@@ABE_NABVCTextInRightScaleRegionDrawer@@AAPAVCPacket@@AAH@Z DD 0ffffffffH
	DD	FLAT:__unwindfunclet$?GetPacketAndDataEnd@CDataInRightScaleRegionDrawer@@ABE_NABVCTextInRightScaleRegionDrawer@@AAPAVCPacket@@AAH@Z$0
__ehfuncinfo$?GetPacketAndDataEnd@CDataInRightScaleRegionDrawer@@ABE_NABVCTextInRightScaleRegionDrawer@@AAPAVCPacket@@AAH@Z DD 019930522H
	DD	01H
	DD	FLAT:__unwindtable$?GetPacketAndDataEnd@CDataInRightScaleRegionDrawer@@ABE_NABVCTextInRightScaleRegionDrawer@@AAPAVCPacket@@AAH@Z
	DD	2 DUP(00H)
	DD	2 DUP(00H)
	DD	00H
	DD	01H
xdata$x	ENDS
;	COMDAT xdata$x
xdata$x	SEGMENT
__unwindtable$?IsGraphDataDraw_Rate@CDataInRightScaleRegionDrawer@@ABE_NABVCRect@@ABVCPrices@@@Z DD 0ffffffffH
	DD	FLAT:__unwindfunclet$?IsGraphDataDraw_Rate@CDataInRightScaleRegionDrawer@@ABE_NABVCRect@@ABVCPrices@@@Z$0
__ehfuncinfo$?IsGraphDataDraw_Rate@CDataInRightScaleRegionDrawer@@ABE_NABVCRect@@ABVCPrices@@@Z DD 019930522H
	DD	01H
	DD	FLAT:__unwindtable$?IsGraphDataDraw_Rate@CDataInRightScaleRegionDrawer@@ABE_NABVCRect@@ABVCPrices@@@Z
	DD	2 DUP(00H)
	DD	2 DUP(00H)
	DD	00H
	DD	01H
xdata$x	ENDS
;	COMDAT xdata$x
xdata$x	SEGMENT
__ehfuncinfo$?GetText_CurrentPrice@CDataInRightScaleRegionDrawer@@ABE?AV?$CStringT@DV?$StrTraitMFC_DLL@DV?$ChTraitsCRT@D@ATL@@@@@ATL@@ABVCPrices@@ABV23@@Z DD 019930522H
	DD	08H
	DD	FLAT:__unwindtable$?GetText_CurrentPrice@CDataInRightScaleRegionDrawer@@ABE?AV?$CStringT@DV?$StrTraitMFC_DLL@DV?$ChTraitsCRT@D@ATL@@@@@ATL@@ABVCPrices@@ABV23@@Z
	DD	2 DUP(00H)
	DD	2 DUP(00H)
	DD	00H
	DD	01H
__unwindtable$?GetText_CurrentPrice@CDataInRightScaleRegionDrawer@@ABE?AV?$CStringT@DV?$StrTraitMFC_DLL@DV?$ChTraitsCRT@D@ATL@@@@@ATL@@ABVCPrices@@ABV23@@Z DD 0ffffffffH
	DD	FLAT:__unwindfunclet$?GetText_CurrentPrice@CDataInRightScaleRegionDrawer@@ABE?AV?$CStringT@DV?$StrTraitMFC_DLL@DV?$ChTraitsCRT@D@ATL@@@@@ATL@@ABVCPrices@@ABV23@@Z$0
	DD	00H
	DD	FLAT:__unwindfunclet$?GetText_CurrentPrice@CDataInRightScaleRegionDrawer@@ABE?AV?$CStringT@DV?$StrTraitMFC_DLL@DV?$ChTraitsCRT@D@ATL@@@@@ATL@@ABVCPrices@@ABV23@@Z$1
	DD	00H
	DD	FLAT:__unwindfunclet$?GetText_CurrentPrice@CDataInRightScaleRegionDrawer@@ABE?AV?$CStringT@DV?$StrTraitMFC_DLL@DV?$ChTraitsCRT@D@ATL@@@@@ATL@@ABVCPrices@@ABV23@@Z$2
	DD	00H
	DD	FLAT:__unwindfunclet$?GetText_CurrentPrice@CDataInRightScaleRegionDrawer@@ABE?AV?$CStringT@DV?$StrTraitMFC_DLL@DV?$ChTraitsCRT@D@ATL@@@@@ATL@@ABVCPrices@@ABV23@@Z$3
	DD	03H
	DD	FLAT:__unwindfunclet$?GetText_CurrentPrice@CDataInRightScaleRegionDrawer@@ABE?AV?$CStringT@DV?$StrTraitMFC_DLL@DV?$ChTraitsCRT@D@ATL@@@@@ATL@@ABVCPrices@@ABV23@@Z$4
	DD	00H
	DD	FLAT:__unwindfunclet$?GetText_CurrentPrice@CDataInRightScaleRegionDrawer@@ABE?AV?$CStringT@DV?$StrTraitMFC_DLL@DV?$ChTraitsCRT@D@ATL@@@@@ATL@@ABVCPrices@@ABV23@@Z$5
	DD	05H
	DD	FLAT:__unwindfunclet$?GetText_CurrentPrice@CDataInRightScaleRegionDrawer@@ABE?AV?$CStringT@DV?$StrTraitMFC_DLL@DV?$ChTraitsCRT@D@ATL@@@@@ATL@@ABVCPrices@@ABV23@@Z$6
	DD	06H
	DD	FLAT:__unwindfunclet$?GetText_CurrentPrice@CDataInRightScaleRegionDrawer@@ABE?AV?$CStringT@DV?$StrTraitMFC_DLL@DV?$ChTraitsCRT@D@ATL@@@@@ATL@@ABVCPrices@@ABV23@@Z$9
xdata$x	ENDS
;	COMDAT xdata$x
xdata$x	SEGMENT
__ehfuncinfo$?GetText_Price@CDataInRightScaleRegionDrawer@@ABE?AV?$CStringT@DV?$StrTraitMFC_DLL@DV?$ChTraitsCRT@D@ATL@@@@@ATL@@NABV23@0H@Z DD 019930522H
	DD	07H
	DD	FLAT:__unwindtable$?GetText_Price@CDataInRightScaleRegionDrawer@@ABE?AV?$CStringT@DV?$StrTraitMFC_DLL@DV?$ChTraitsCRT@D@ATL@@@@@ATL@@NABV23@0H@Z
	DD	2 DUP(00H)
	DD	2 DUP(00H)
	DD	00H
	DD	01H
__unwindtable$?GetText_Price@CDataInRightScaleRegionDrawer@@ABE?AV?$CStringT@DV?$StrTraitMFC_DLL@DV?$ChTraitsCRT@D@ATL@@@@@ATL@@NABV23@0H@Z DD 0ffffffffH
	DD	FLAT:__unwindfunclet$?GetText_Price@CDataInRightScaleRegionDrawer@@ABE?AV?$CStringT@DV?$StrTraitMFC_DLL@DV?$ChTraitsCRT@D@ATL@@@@@ATL@@NABV23@0H@Z$0
	DD	00H
	DD	FLAT:__unwindfunclet$?GetText_Price@CDataInRightScaleRegionDrawer@@ABE?AV?$CStringT@DV?$StrTraitMFC_DLL@DV?$ChTraitsCRT@D@ATL@@@@@ATL@@NABV23@0H@Z$1
	DD	00H
	DD	FLAT:__unwindfunclet$?GetText_Price@CDataInRightScaleRegionDrawer@@ABE?AV?$CStringT@DV?$StrTraitMFC_DLL@DV?$ChTraitsCRT@D@ATL@@@@@ATL@@NABV23@0H@Z$2
	DD	00H
	DD	FLAT:__unwindfunclet$?GetText_Price@CDataInRightScaleRegionDrawer@@ABE?AV?$CStringT@DV?$StrTraitMFC_DLL@DV?$ChTraitsCRT@D@ATL@@@@@ATL@@NABV23@0H@Z$3
	DD	03H
	DD	FLAT:__unwindfunclet$?GetText_Price@CDataInRightScaleRegionDrawer@@ABE?AV?$CStringT@DV?$StrTraitMFC_DLL@DV?$ChTraitsCRT@D@ATL@@@@@ATL@@NABV23@0H@Z$4
	DD	00H
	DD	FLAT:__unwindfunclet$?GetText_Price@CDataInRightScaleRegionDrawer@@ABE?AV?$CStringT@DV?$StrTraitMFC_DLL@DV?$ChTraitsCRT@D@ATL@@@@@ATL@@NABV23@0H@Z$5
	DD	05H
	DD	FLAT:__unwindfunclet$?GetText_Price@CDataInRightScaleRegionDrawer@@ABE?AV?$CStringT@DV?$StrTraitMFC_DLL@DV?$ChTraitsCRT@D@ATL@@@@@ATL@@NABV23@0H@Z$7
xdata$x	ENDS
;	COMDAT xdata$x
xdata$x	SEGMENT
__ehfuncinfo$?GetText@CDataInRightScaleRegionDrawer@@ABE_NABVCRect@@ABVCPrices@@HAAV?$CStringT@DV?$StrTraitMFC_DLL@DV?$ChTraitsCRT@D@ATL@@@@@ATL@@222@Z DD 019930522H
	DD	0eH
	DD	FLAT:__unwindtable$?GetText@CDataInRightScaleRegionDrawer@@ABE_NABVCRect@@ABVCPrices@@HAAV?$CStringT@DV?$StrTraitMFC_DLL@DV?$ChTraitsCRT@D@ATL@@@@@ATL@@222@Z
	DD	2 DUP(00H)
	DD	2 DUP(00H)
	DD	00H
	DD	01H
__unwindtable$?GetText@CDataInRightScaleRegionDrawer@@ABE_NABVCRect@@ABVCPrices@@HAAV?$CStringT@DV?$StrTraitMFC_DLL@DV?$ChTraitsCRT@D@ATL@@@@@ATL@@222@Z DD 0ffffffffH
	DD	FLAT:__unwindfunclet$?GetText@CDataInRightScaleRegionDrawer@@ABE_NABVCRect@@ABVCPrices@@HAAV?$CStringT@DV?$StrTraitMFC_DLL@DV?$ChTraitsCRT@D@ATL@@@@@ATL@@222@Z$0
	DD	00H
	DD	FLAT:__unwindfunclet$?GetText@CDataInRightScaleRegionDrawer@@ABE_NABVCRect@@ABVCPrices@@HAAV?$CStringT@DV?$StrTraitMFC_DLL@DV?$ChTraitsCRT@D@ATL@@@@@ATL@@222@Z$1
	DD	01H
	DD	FLAT:__unwindfunclet$?GetText@CDataInRightScaleRegionDrawer@@ABE_NABVCRect@@ABVCPrices@@HAAV?$CStringT@DV?$StrTraitMFC_DLL@DV?$ChTraitsCRT@D@ATL@@@@@ATL@@222@Z$2
	DD	02H
	DD	FLAT:__unwindfunclet$?GetText@CDataInRightScaleRegionDrawer@@ABE_NABVCRect@@ABVCPrices@@HAAV?$CStringT@DV?$StrTraitMFC_DLL@DV?$ChTraitsCRT@D@ATL@@@@@ATL@@222@Z$3
	DD	00H
	DD	FLAT:__unwindfunclet$?GetText@CDataInRightScaleRegionDrawer@@ABE_NABVCRect@@ABVCPrices@@HAAV?$CStringT@DV?$StrTraitMFC_DLL@DV?$ChTraitsCRT@D@ATL@@@@@ATL@@222@Z$4
	DD	04H
	DD	FLAT:__unwindfunclet$?GetText@CDataInRightScaleRegionDrawer@@ABE_NABVCRect@@ABVCPrices@@HAAV?$CStringT@DV?$StrTraitMFC_DLL@DV?$ChTraitsCRT@D@ATL@@@@@ATL@@222@Z$5
	DD	05H
	DD	FLAT:__unwindfunclet$?GetText@CDataInRightScaleRegionDrawer@@ABE_NABVCRect@@ABVCPrices@@HAAV?$CStringT@DV?$StrTraitMFC_DLL@DV?$ChTraitsCRT@D@ATL@@@@@ATL@@222@Z$6
	DD	00H
	DD	FLAT:__unwindfunclet$?GetText@CDataInRightScaleRegionDrawer@@ABE_NABVCRect@@ABVCPrices@@HAAV?$CStringT@DV?$StrTraitMFC_DLL@DV?$ChTraitsCRT@D@ATL@@@@@ATL@@222@Z$7
	DD	07H
	DD	FLAT:__unwindfunclet$?GetText@CDataInRightScaleRegionDrawer@@ABE_NABVCRect@@ABVCPrices@@HAAV?$CStringT@DV?$StrTraitMFC_DLL@DV?$ChTraitsCRT@D@ATL@@@@@ATL@@222@Z$8
	DD	08H
	DD	FLAT:__unwindfunclet$?GetText@CDataInRightScaleRegionDrawer@@ABE_NABVCRect@@ABVCPrices@@HAAV?$CStringT@DV?$StrTraitMFC_DLL@DV?$ChTraitsCRT@D@ATL@@@@@ATL@@222@Z$9
	DD	00H
	DD	FLAT:__unwindfunclet$?GetText@CDataInRightScaleRegionDrawer@@ABE_NABVCRect@@ABVCPrices@@HAAV?$CStringT@DV?$StrTraitMFC_DLL@DV?$ChTraitsCRT@D@ATL@@@@@ATL@@222@Z$10
	DD	00H
	DD	FLAT:__unwindfunclet$?GetText@CDataInRightScaleRegionDrawer@@ABE_NABVCRect@@ABVCPrices@@HAAV?$CStringT@DV?$StrTraitMFC_DLL@DV?$ChTraitsCRT@D@ATL@@@@@ATL@@222@Z$11
	DD	0bH
	DD	FLAT:__unwindfunclet$?GetText@CDataInRightScaleRegionDrawer@@ABE_NABVCRect@@ABVCPrices@@HAAV?$CStringT@DV?$StrTraitMFC_DLL@DV?$ChTraitsCRT@D@ATL@@@@@ATL@@222@Z$19
	DD	0cH
	DD	FLAT:__unwindfunclet$?GetText@CDataInRightScaleRegionDrawer@@ABE_NABVCRect@@ABVCPrices@@HAAV?$CStringT@DV?$StrTraitMFC_DLL@DV?$ChTraitsCRT@D@ATL@@@@@ATL@@222@Z$20
xdata$x	ENDS
;	COMDAT xdata$x
xdata$x	SEGMENT
__unwindtable$?GetTextRegion@CDataInRightScaleRegionDrawer@@ABE?AVCRect@@PAVCDC@@ABVCPoint@@ABV?$CStringT@DV?$StrTraitMFC_DLL@DV?$ChTraitsCRT@D@ATL@@@@@ATL@@222@Z DD 0ffffffffH
	DD	FLAT:__unwindfunclet$?GetTextRegion@CDataInRightScaleRegionDrawer@@ABE?AVCRect@@PAVCDC@@ABVCPoint@@ABV?$CStringT@DV?$StrTraitMFC_DLL@DV?$ChTraitsCRT@D@ATL@@@@@ATL@@222@Z$0
__ehfuncinfo$?GetTextRegion@CDataInRightScaleRegionDrawer@@ABE?AVCRect@@PAVCDC@@ABVCPoint@@ABV?$CStringT@DV?$StrTraitMFC_DLL@DV?$ChTraitsCRT@D@ATL@@@@@ATL@@222@Z DD 019930522H
	DD	01H
	DD	FLAT:__unwindtable$?GetTextRegion@CDataInRightScaleRegionDrawer@@ABE?AVCRect@@PAVCDC@@ABVCPoint@@ABV?$CStringT@DV?$StrTraitMFC_DLL@DV?$ChTraitsCRT@D@ATL@@@@@ATL@@222@Z
	DD	2 DUP(00H)
	DD	2 DUP(00H)
	DD	00H
	DD	01H
xdata$x	ENDS
;	COMDAT xdata$x
xdata$x	SEGMENT
__unwindtable$?GetTextRegion@CDataInRightScaleRegionDrawer@@ABE?AVCRect@@PAVCDC@@ABVCDrawingGraphData@@ABVCPrices@@ABV?$CStringT@DV?$StrTraitMFC_DLL@DV?$ChTraitsCRT@D@ATL@@@@@ATL@@333ABV2@@Z DD 0ffffffffH
	DD	FLAT:__unwindfunclet$?GetTextRegion@CDataInRightScaleRegionDrawer@@ABE?AVCRect@@PAVCDC@@ABVCDrawingGraphData@@ABVCPrices@@ABV?$CStringT@DV?$StrTraitMFC_DLL@DV?$ChTraitsCRT@D@ATL@@@@@ATL@@333ABV2@@Z$0
	DD	00H
	DD	FLAT:__unwindfunclet$?GetTextRegion@CDataInRightScaleRegionDrawer@@ABE?AVCRect@@PAVCDC@@ABVCDrawingGraphData@@ABVCPrices@@ABV?$CStringT@DV?$StrTraitMFC_DLL@DV?$ChTraitsCRT@D@ATL@@@@@ATL@@333ABV2@@Z$1
__ehfuncinfo$?GetTextRegion@CDataInRightScaleRegionDrawer@@ABE?AVCRect@@PAVCDC@@ABVCDrawingGraphData@@ABVCPrices@@ABV?$CStringT@DV?$StrTraitMFC_DLL@DV?$ChTraitsCRT@D@ATL@@@@@ATL@@333ABV2@@Z DD 019930522H
	DD	02H
	DD	FLAT:__unwindtable$?GetTextRegion@CDataInRightScaleRegionDrawer@@ABE?AVCRect@@PAVCDC@@ABVCDrawingGraphData@@ABVCPrices@@ABV?$CStringT@DV?$StrTraitMFC_DLL@DV?$ChTraitsCRT@D@ATL@@@@@ATL@@333ABV2@@Z
	DD	2 DUP(00H)
	DD	2 DUP(00H)
	DD	00H
	DD	01H
xdata$x	ENDS
;	COMDAT xdata$x
xdata$x	SEGMENT
__unwindtable$?GetPricesInFull@CDataInRightScaleRegionDrawer@@ABE_NPAVCPacket@@AAVCPrices@@@Z DD 0ffffffffH
	DD	FLAT:__unwindfunclet$?GetPricesInFull@CDataInRightScaleRegionDrawer@@ABE_NPAVCPacket@@AAVCPrices@@@Z$0
__ehfuncinfo$?GetPricesInFull@CDataInRightScaleRegionDrawer@@ABE_NPAVCPacket@@AAVCPrices@@@Z DD 019930522H
	DD	01H
	DD	FLAT:__unwindtable$?GetPricesInFull@CDataInRightScaleRegionDrawer@@ABE_NPAVCPacket@@AAVCPrices@@@Z
	DD	2 DUP(00H)
	DD	2 DUP(00H)
	DD	00H
	DD	01H
xdata$x	ENDS
;	COMDAT xdata$x
xdata$x	SEGMENT
__unwindtable$?GetDrawingDatas@CDataInRightScaleRegionDrawer@@ABE_NPAVCPacket@@HHABVCPrices@@AAV3@@Z DD 0ffffffffH
	DD	FLAT:__unwindfunclet$?GetDrawingDatas@CDataInRightScaleRegionDrawer@@ABE_NPAVCPacket@@HHABVCPrices@@AAV3@@Z$0
__ehfuncinfo$?GetDrawingDatas@CDataInRightScaleRegionDrawer@@ABE_NPAVCPacket@@HHABVCPrices@@AAV3@@Z DD 019930522H
	DD	01H
	DD	FLAT:__unwindtable$?GetDrawingDatas@CDataInRightScaleRegionDrawer@@ABE_NPAVCPacket@@HHABVCPrices@@AAV3@@Z
	DD	2 DUP(00H)
	DD	2 DUP(00H)
	DD	00H
	DD	01H
xdata$x	ENDS
;	COMDAT xdata$x
xdata$x	SEGMENT
__unwindtable$?GetDrawingDatas@CDataInRightScaleRegionDrawer@@ABE_NABVCDisplayAttributes@@ABVCDrawingGraphData@@ABVCPrices@@AAV4@AAV?$CStringT@DV?$StrTraitMFC_DLL@DV?$ChTraitsCRT@D@ATL@@@@@ATL@@@Z DD 0ffffffffH
	DD	FLAT:__unwindfunclet$?GetDrawingDatas@CDataInRightScaleRegionDrawer@@ABE_NABVCDisplayAttributes@@ABVCDrawingGraphData@@ABVCPrices@@AAV4@AAV?$CStringT@DV?$StrTraitMFC_DLL@DV?$ChTraitsCRT@D@ATL@@@@@ATL@@@Z$0
__ehfuncinfo$?GetDrawingDatas@CDataInRightScaleRegionDrawer@@ABE_NABVCDisplayAttributes@@ABVCDrawingGraphData@@ABVCPrices@@AAV4@AAV?$CStringT@DV?$StrTraitMFC_DLL@DV?$ChTraitsCRT@D@ATL@@@@@ATL@@@Z DD 019930522H
	DD	01H
	DD	FLAT:__unwindtable$?GetDrawingDatas@CDataInRightScaleRegionDrawer@@ABE_NABVCDisplayAttributes@@ABVCDrawingGraphData@@ABVCPrices@@AAV4@AAV?$CStringT@DV?$StrTraitMFC_DLL@DV?$ChTraitsCRT@D@ATL@@@@@ATL@@@Z
	DD	2 DUP(00H)
	DD	2 DUP(00H)
	DD	00H
	DD	01H
xdata$x	ENDS
;	COMDAT xdata$x
xdata$x	SEGMENT
__unwindtable$?DrawData@CDataInRightScaleRegionDrawer@@AAEXPAVCDC@@ABVCRect@@ABV?$CStringT@DV?$StrTraitMFC_DLL@DV?$ChTraitsCRT@D@ATL@@@@@ATL@@ABK3AAH@Z DD 0ffffffffH
	DD	FLAT:__unwindfunclet$?DrawData@CDataInRightScaleRegionDrawer@@AAEXPAVCDC@@ABVCRect@@ABV?$CStringT@DV?$StrTraitMFC_DLL@DV?$ChTraitsCRT@D@ATL@@@@@ATL@@ABK3AAH@Z$0
	DD	00H
	DD	FLAT:__unwindfunclet$?DrawData@CDataInRightScaleRegionDrawer@@AAEXPAVCDC@@ABVCRect@@ABV?$CStringT@DV?$StrTraitMFC_DLL@DV?$ChTraitsCRT@D@ATL@@@@@ATL@@ABK3AAH@Z$1
__ehfuncinfo$?DrawData@CDataInRightScaleRegionDrawer@@AAEXPAVCDC@@ABVCRect@@ABV?$CStringT@DV?$StrTraitMFC_DLL@DV?$ChTraitsCRT@D@ATL@@@@@ATL@@ABK3AAH@Z DD 019930522H
	DD	02H
	DD	FLAT:__unwindtable$?DrawData@CDataInRightScaleRegionDrawer@@AAEXPAVCDC@@ABVCRect@@ABV?$CStringT@DV?$StrTraitMFC_DLL@DV?$ChTraitsCRT@D@ATL@@@@@ATL@@ABK3AAH@Z
	DD	2 DUP(00H)
	DD	2 DUP(00H)
	DD	00H
	DD	01H
xdata$x	ENDS
;	COMDAT xdata$x
xdata$x	SEGMENT
__unwindtable$?DrawData@CDataInRightScaleRegionDrawer@@AAEXPAVCDC@@ABVCRect@@ABVCDrawingGraphData@@ABVCGraphColor@@ABVCPrices@@AAV?$CStringT@DV?$StrTraitMFC_DLL@DV?$ChTraitsCRT@D@ATL@@@@@ATL@@AAV3@@Z DD 0ffffffffH
	DD	FLAT:__unwindfunclet$?DrawData@CDataInRightScaleRegionDrawer@@AAEXPAVCDC@@ABVCRect@@ABVCDrawingGraphData@@ABVCGraphColor@@ABVCPrices@@AAV?$CStringT@DV?$StrTraitMFC_DLL@DV?$ChTraitsCRT@D@ATL@@@@@ATL@@AAV3@@Z$0
	DD	00H
	DD	FLAT:__unwindfunclet$?DrawData@CDataInRightScaleRegionDrawer@@AAEXPAVCDC@@ABVCRect@@ABVCDrawingGraphData@@ABVCGraphColor@@ABVCPrices@@AAV?$CStringT@DV?$StrTraitMFC_DLL@DV?$ChTraitsCRT@D@ATL@@@@@ATL@@AAV3@@Z$1
	DD	01H
	DD	FLAT:__unwindfunclet$?DrawData@CDataInRightScaleRegionDrawer@@AAEXPAVCDC@@ABVCRect@@ABVCDrawingGraphData@@ABVCGraphColor@@ABVCPrices@@AAV?$CStringT@DV?$StrTraitMFC_DLL@DV?$ChTraitsCRT@D@ATL@@@@@ATL@@AAV3@@Z$2
	DD	02H
	DD	FLAT:__unwindfunclet$?DrawData@CDataInRightScaleRegionDrawer@@AAEXPAVCDC@@ABVCRect@@ABVCDrawingGraphData@@ABVCGraphColor@@ABVCPrices@@AAV?$CStringT@DV?$StrTraitMFC_DLL@DV?$ChTraitsCRT@D@ATL@@@@@ATL@@AAV3@@Z$3
__ehfuncinfo$?DrawData@CDataInRightScaleRegionDrawer@@AAEXPAVCDC@@ABVCRect@@ABVCDrawingGraphData@@ABVCGraphColor@@ABVCPrices@@AAV?$CStringT@DV?$StrTraitMFC_DLL@DV?$ChTraitsCRT@D@ATL@@@@@ATL@@AAV3@@Z DD 019930522H
	DD	04H
	DD	FLAT:__unwindtable$?DrawData@CDataInRightScaleRegionDrawer@@AAEXPAVCDC@@ABVCRect@@ABVCDrawingGraphData@@ABVCGraphColor@@ABVCPrices@@AAV?$CStringT@DV?$StrTraitMFC_DLL@DV?$ChTraitsCRT@D@ATL@@@@@ATL@@AAV3@@Z
	DD	2 DUP(00H)
	DD	2 DUP(00H)
	DD	00H
	DD	01H
xdata$x	ENDS
;	COMDAT xdata$x
xdata$x	SEGMENT
__unwindtable$?GetPacket@CDataInRightScaleRegionDrawer@@QBEPAVCPacket@@ABVCDrawingGraphData@@@Z DD 0ffffffffH
	DD	FLAT:__unwindfunclet$?GetPacket@CDataInRightScaleRegionDrawer@@QBEPAVCPacket@@ABVCDrawingGraphData@@@Z$0
__ehfuncinfo$?GetPacket@CDataInRightScaleRegionDrawer@@QBEPAVCPacket@@ABVCDrawingGraphData@@@Z DD 019930522H
	DD	01H
	DD	FLAT:__unwindtable$?GetPacket@CDataInRightScaleRegionDrawer@@QBEPAVCPacket@@ABVCDrawingGraphData@@@Z
	DD	2 DUP(00H)
	DD	2 DUP(00H)
	DD	00H
	DD	01H
xdata$x	ENDS
;	COMDAT xdata$x
xdata$x	SEGMENT
__unwindtable$?GetText@CDataInRightScaleRegionDrawer@@QBE_NABVCTextInRightScaleRegionDrawer@@AAV?$CStringT@DV?$StrTraitMFC_DLL@DV?$ChTraitsCRT@D@ATL@@@@@ATL@@111@Z DD 0ffffffffH
	DD	FLAT:__unwindfunclet$?GetText@CDataInRightScaleRegionDrawer@@QBE_NABVCTextInRightScaleRegionDrawer@@AAV?$CStringT@DV?$StrTraitMFC_DLL@DV?$ChTraitsCRT@D@ATL@@@@@ATL@@111@Z$0
	DD	0ffffffffH
	DD	FLAT:__unwindfunclet$?GetText@CDataInRightScaleRegionDrawer@@QBE_NABVCTextInRightScaleRegionDrawer@@AAV?$CStringT@DV?$StrTraitMFC_DLL@DV?$ChTraitsCRT@D@ATL@@@@@ATL@@111@Z$1
	DD	01H
	DD	FLAT:__unwindfunclet$?GetText@CDataInRightScaleRegionDrawer@@QBE_NABVCTextInRightScaleRegionDrawer@@AAV?$CStringT@DV?$StrTraitMFC_DLL@DV?$ChTraitsCRT@D@ATL@@@@@ATL@@111@Z$2
__ehfuncinfo$?GetText@CDataInRightScaleRegionDrawer@@QBE_NABVCTextInRightScaleRegionDrawer@@AAV?$CStringT@DV?$StrTraitMFC_DLL@DV?$ChTraitsCRT@D@ATL@@@@@ATL@@111@Z DD 019930522H
	DD	03H
	DD	FLAT:__unwindtable$?GetText@CDataInRightScaleRegionDrawer@@QBE_NABVCTextInRightScaleRegionDrawer@@AAV?$CStringT@DV?$StrTraitMFC_DLL@DV?$ChTraitsCRT@D@ATL@@@@@ATL@@111@Z
	DD	2 DUP(00H)
	DD	2 DUP(00H)
	DD	00H
	DD	01H
xdata$x	ENDS
;	COMDAT xdata$x
xdata$x	SEGMENT
__unwindtable$?DrawData@CDataInRightScaleRegionDrawer@@QAEXPAVCDC@@ABVCRect@@ABVCDisplayAttributes@@ABVCDrawingGraphData@@ABVCGraphColor@@ABVCPrices@@@Z DD 0ffffffffH
	DD	FLAT:__unwindfunclet$?DrawData@CDataInRightScaleRegionDrawer@@QAEXPAVCDC@@ABVCRect@@ABVCDisplayAttributes@@ABVCDrawingGraphData@@ABVCGraphColor@@ABVCPrices@@@Z$0
	DD	00H
	DD	FLAT:__unwindfunclet$?DrawData@CDataInRightScaleRegionDrawer@@QAEXPAVCDC@@ABVCRect@@ABVCDisplayAttributes@@ABVCDrawingGraphData@@ABVCGraphColor@@ABVCPrices@@@Z$1
	DD	01H
	DD	FLAT:__unwindfunclet$?DrawData@CDataInRightScaleRegionDrawer@@QAEXPAVCDC@@ABVCRect@@ABVCDisplayAttributes@@ABVCDrawingGraphData@@ABVCGraphColor@@ABVCPrices@@@Z$2
__ehfuncinfo$?DrawData@CDataInRightScaleRegionDrawer@@QAEXPAVCDC@@ABVCRect@@ABVCDisplayAttributes@@ABVCDrawingGraphData@@ABVCGraphColor@@ABVCPrices@@@Z DD 019930522H
	DD	03H
	DD	FLAT:__unwindtable$?DrawData@CDataInRightScaleRegionDrawer@@QAEXPAVCDC@@ABVCRect@@ABVCDisplayAttributes@@ABVCDrawingGraphData@@ABVCGraphColor@@ABVCPrices@@@Z
	DD	2 DUP(00H)
	DD	2 DUP(00H)
	DD	00H
	DD	01H
xdata$x	ENDS
;	COMDAT xdata$x
xdata$x	SEGMENT
__unwindtable$?GetChangingData@CDataInGraphRegionDrawer@@ABE_NABV?$CStringT@DV?$StrTraitMFC_DLL@DV?$ChTraitsCRT@D@ATL@@@@@ATL@@H_NAAV23@@Z DD 0ffffffffH
	DD	FLAT:__unwindfunclet$?GetChangingData@CDataInGraphRegionDrawer@@ABE_NABV?$CStringT@DV?$StrTraitMFC_DLL@DV?$ChTraitsCRT@D@ATL@@@@@ATL@@H_NAAV23@@Z$2
	DD	0ffffffffH
	DD	FLAT:__unwindfunclet$?GetChangingData@CDataInGraphRegionDrawer@@ABE_NABV?$CStringT@DV?$StrTraitMFC_DLL@DV?$ChTraitsCRT@D@ATL@@@@@ATL@@H_NAAV23@@Z$3
__ehfuncinfo$?GetChangingData@CDataInGraphRegionDrawer@@ABE_NABV?$CStringT@DV?$StrTraitMFC_DLL@DV?$ChTraitsCRT@D@ATL@@@@@ATL@@H_NAAV23@@Z DD 019930522H
	DD	02H
	DD	FLAT:__unwindtable$?GetChangingData@CDataInGraphRegionDrawer@@ABE_NABV?$CStringT@DV?$StrTraitMFC_DLL@DV?$ChTraitsCRT@D@ATL@@@@@ATL@@H_NAAV23@@Z
	DD	2 DUP(00H)
	DD	2 DUP(00H)
	DD	00H
	DD	01H
xdata$x	ENDS
;	COMDAT xdata$x
xdata$x	SEGMENT
__unwindtable$?ChangeData@CDataInGraphRegionDrawer@@ABEXHHAAV?$CList@VCTextData@@AAV1@@@@Z DD 0ffffffffH
	DD	FLAT:__unwindfunclet$?ChangeData@CDataInGraphRegionDrawer@@ABEXHHAAV?$CList@VCTextData@@AAV1@@@@Z$0
	DD	00H
	DD	FLAT:__unwindfunclet$?ChangeData@CDataInGraphRegionDrawer@@ABEXHHAAV?$CList@VCTextData@@AAV1@@@@Z$1
	DD	00H
	DD	FLAT:__unwindfunclet$?ChangeData@CDataInGraphRegionDrawer@@ABEXHHAAV?$CList@VCTextData@@AAV1@@@@Z$2
__ehfuncinfo$?ChangeData@CDataInGraphRegionDrawer@@ABEXHHAAV?$CList@VCTextData@@AAV1@@@@Z DD 019930522H
	DD	03H
	DD	FLAT:__unwindtable$?ChangeData@CDataInGraphRegionDrawer@@ABEXHHAAV?$CList@VCTextData@@AAV1@@@@Z
	DD	2 DUP(00H)
	DD	2 DUP(00H)
	DD	00H
	DD	01H
xdata$x	ENDS
;	COMDAT xdata$x
xdata$x	SEGMENT
__unwindtable$?AddTailAndGetMaxLength@CDataInGraphRegionDrawer@@ABE_NABV?$CStringT@DV?$StrTraitMFC_DLL@DV?$ChTraitsCRT@D@ATL@@@@@ATL@@0ABKAAH2AAV?$CList@VCTextData@@AAV1@@@@Z DD 0ffffffffH
	DD	FLAT:__unwindfunclet$?AddTailAndGetMaxLength@CDataInGraphRegionDrawer@@ABE_NABV?$CStringT@DV?$StrTraitMFC_DLL@DV?$ChTraitsCRT@D@ATL@@@@@ATL@@0ABKAAH2AAV?$CList@VCTextData@@AAV1@@@@Z$1
	DD	0ffffffffH
	DD	FLAT:__unwindfunclet$?AddTailAndGetMaxLength@CDataInGraphRegionDrawer@@ABE_NABV?$CStringT@DV?$StrTraitMFC_DLL@DV?$ChTraitsCRT@D@ATL@@@@@ATL@@0ABKAAH2AAV?$CList@VCTextData@@AAV1@@@@Z$0
__ehfuncinfo$?AddTailAndGetMaxLength@CDataInGraphRegionDrawer@@ABE_NABV?$CStringT@DV?$StrTraitMFC_DLL@DV?$ChTraitsCRT@D@ATL@@@@@ATL@@0ABKAAH2AAV?$CList@VCTextData@@AAV1@@@@Z DD 019930522H
	DD	02H
	DD	FLAT:__unwindtable$?AddTailAndGetMaxLength@CDataInGraphRegionDrawer@@ABE_NABV?$CStringT@DV?$StrTraitMFC_DLL@DV?$ChTraitsCRT@D@ATL@@@@@ATL@@0ABKAAH2AAV?$CList@VCTextData@@AAV1@@@@Z
	DD	2 DUP(00H)
	DD	2 DUP(00H)
	DD	00H
	DD	01H
xdata$x	ENDS
;	COMDAT xdata$x
xdata$x	SEGMENT
__unwindtable$?GetDrawingText@CDataInGraphRegionDrawer@@ABE?AV?$CStringT@DV?$StrTraitMFC_DLL@DV?$ChTraitsCRT@D@ATL@@@@@ATL@@ABVCTextData@@@Z DD 0ffffffffH
	DD	FLAT:__unwindfunclet$?GetDrawingText@CDataInGraphRegionDrawer@@ABE?AV?$CStringT@DV?$StrTraitMFC_DLL@DV?$ChTraitsCRT@D@ATL@@@@@ATL@@ABVCTextData@@@Z$1
	DD	00H
	DD	FLAT:__unwindfunclet$?GetDrawingText@CDataInGraphRegionDrawer@@ABE?AV?$CStringT@DV?$StrTraitMFC_DLL@DV?$ChTraitsCRT@D@ATL@@@@@ATL@@ABVCTextData@@@Z$2
	DD	01H
	DD	FLAT:__unwindfunclet$?GetDrawingText@CDataInGraphRegionDrawer@@ABE?AV?$CStringT@DV?$StrTraitMFC_DLL@DV?$ChTraitsCRT@D@ATL@@@@@ATL@@ABVCTextData@@@Z$3
__ehfuncinfo$?GetDrawingText@CDataInGraphRegionDrawer@@ABE?AV?$CStringT@DV?$StrTraitMFC_DLL@DV?$ChTraitsCRT@D@ATL@@@@@ATL@@ABVCTextData@@@Z DD 019930522H
	DD	03H
	DD	FLAT:__unwindtable$?GetDrawingText@CDataInGraphRegionDrawer@@ABE?AV?$CStringT@DV?$StrTraitMFC_DLL@DV?$ChTraitsCRT@D@ATL@@@@@ATL@@ABVCTextData@@@Z
	DD	2 DUP(00H)
	DD	2 DUP(00H)
	DD	00H
	DD	01H
xdata$x	ENDS
;	COMDAT xdata$x
xdata$x	SEGMENT
__ehfuncinfo$?GetDataTexts@CDataInGraphRegionDrawer@@ABE_NABVCGraphDataDrawingData@@ABVCDisplayDataMinMax@@ABVCPrices@@ABVCGraphColor@@AAH4AAV?$CList@VCTextData@@AAV1@@@@Z DD 019930522H
	DD	08H
	DD	FLAT:__unwindtable$?GetDataTexts@CDataInGraphRegionDrawer@@ABE_NABVCGraphDataDrawingData@@ABVCDisplayDataMinMax@@ABVCPrices@@ABVCGraphColor@@AAH4AAV?$CList@VCTextData@@AAV1@@@@Z
	DD	2 DUP(00H)
	DD	2 DUP(00H)
	DD	00H
	DD	01H
__unwindtable$?GetDataTexts@CDataInGraphRegionDrawer@@ABE_NABVCGraphDataDrawingData@@ABVCDisplayDataMinMax@@ABVCPrices@@ABVCGraphColor@@AAH4AAV?$CList@VCTextData@@AAV1@@@@Z DD 0ffffffffH
	DD	FLAT:__unwindfunclet$?GetDataTexts@CDataInGraphRegionDrawer@@ABE_NABVCGraphDataDrawingData@@ABVCDisplayDataMinMax@@ABVCPrices@@ABVCGraphColor@@AAH4AAV?$CList@VCTextData@@AAV1@@@@Z$0
	DD	00H
	DD	FLAT:__unwindfunclet$?GetDataTexts@CDataInGraphRegionDrawer@@ABE_NABVCGraphDataDrawingData@@ABVCDisplayDataMinMax@@ABVCPrices@@ABVCGraphColor@@AAH4AAV?$CList@VCTextData@@AAV1@@@@Z$1
	DD	0ffffffffH
	DD	FLAT:__unwindfunclet$?GetDataTexts@CDataInGraphRegionDrawer@@ABE_NABVCGraphDataDrawingData@@ABVCDisplayDataMinMax@@ABVCPrices@@ABVCGraphColor@@AAH4AAV?$CList@VCTextData@@AAV1@@@@Z$2
	DD	02H
	DD	FLAT:__unwindfunclet$?GetDataTexts@CDataInGraphRegionDrawer@@ABE_NABVCGraphDataDrawingData@@ABVCDisplayDataMinMax@@ABVCPrices@@ABVCGraphColor@@AAH4AAV?$CList@VCTextData@@AAV1@@@@Z$3
	DD	0ffffffffH
	DD	FLAT:__unwindfunclet$?GetDataTexts@CDataInGraphRegionDrawer@@ABE_NABVCGraphDataDrawingData@@ABVCDisplayDataMinMax@@ABVCPrices@@ABVCGraphColor@@AAH4AAV?$CList@VCTextData@@AAV1@@@@Z$4
	DD	04H
	DD	FLAT:__unwindfunclet$?GetDataTexts@CDataInGraphRegionDrawer@@ABE_NABVCGraphDataDrawingData@@ABVCDisplayDataMinMax@@ABVCPrices@@ABVCGraphColor@@AAH4AAV?$CList@VCTextData@@AAV1@@@@Z$5
	DD	0ffffffffH
	DD	FLAT:__unwindfunclet$?GetDataTexts@CDataInGraphRegionDrawer@@ABE_NABVCGraphDataDrawingData@@ABVCDisplayDataMinMax@@ABVCPrices@@ABVCGraphColor@@AAH4AAV?$CList@VCTextData@@AAV1@@@@Z$6
	DD	06H
	DD	FLAT:__unwindfunclet$?GetDataTexts@CDataInGraphRegionDrawer@@ABE_NABVCGraphDataDrawingData@@ABVCDisplayDataMinMax@@ABVCPrices@@ABVCGraphColor@@AAH4AAV?$CList@VCTextData@@AAV1@@@@Z$7
xdata$x	ENDS
;	COMDAT xdata$x
xdata$x	SEGMENT
__unwindtable$?GetDataTexts@CDataInGraphRegionDrawer@@ABE_NABVCGraphDataDrawingData@@ABVCDisplayDataMinMax@@ABVCPrices@@ABVCGraphColor@@AAV?$CList@VCTextData@@AAV1@@@@Z DD 0ffffffffH
	DD	FLAT:__unwindfunclet$?GetDataTexts@CDataInGraphRegionDrawer@@ABE_NABVCGraphDataDrawingData@@ABVCDisplayDataMinMax@@ABVCPrices@@ABVCGraphColor@@AAV?$CList@VCTextData@@AAV1@@@@Z$0
	DD	00H
	DD	FLAT:__unwindfunclet$?GetDataTexts@CDataInGraphRegionDrawer@@ABE_NABVCGraphDataDrawingData@@ABVCDisplayDataMinMax@@ABVCPrices@@ABVCGraphColor@@AAV?$CList@VCTextData@@AAV1@@@@Z$1
	DD	00H
	DD	FLAT:__unwindfunclet$?GetDataTexts@CDataInGraphRegionDrawer@@ABE_NABVCGraphDataDrawingData@@ABVCDisplayDataMinMax@@ABVCPrices@@ABVCGraphColor@@AAV?$CList@VCTextData@@AAV1@@@@Z$2
__ehfuncinfo$?GetDataTexts@CDataInGraphRegionDrawer@@ABE_NABVCGraphDataDrawingData@@ABVCDisplayDataMinMax@@ABVCPrices@@ABVCGraphColor@@AAV?$CList@VCTextData@@AAV1@@@@Z DD 019930522H
	DD	03H
	DD	FLAT:__unwindtable$?GetDataTexts@CDataInGraphRegionDrawer@@ABE_NABVCGraphDataDrawingData@@ABVCDisplayDataMinMax@@ABVCPrices@@ABVCGraphColor@@AAV?$CList@VCTextData@@AAV1@@@@Z
	DD	2 DUP(00H)
	DD	2 DUP(00H)
	DD	00H
	DD	01H
xdata$x	ENDS
;	COMDAT xdata$x
xdata$x	SEGMENT
__unwindtable$?GetHighLow@CDataInGraphRegionDrawer@@ABE_NABV?$CStringT@DV?$StrTraitMFC_DLL@DV?$ChTraitsCRT@D@ATL@@@@@ATL@@ABVCGraphStyle@@ABV?$CList@PAVCPacket@@PAV1@@@ABVCDisplayAttributes@@AAVCDisplayDataMinMax@@@Z DD 0ffffffffH
	DD	FLAT:__unwindfunclet$?GetHighLow@CDataInGraphRegionDrawer@@ABE_NABV?$CStringT@DV?$StrTraitMFC_DLL@DV?$ChTraitsCRT@D@ATL@@@@@ATL@@ABVCGraphStyle@@ABV?$CList@PAVCPacket@@PAV1@@@ABVCDisplayAttributes@@AAVCDisplayDataMinMax@@@Z$0
	DD	0ffffffffH
	DD	FLAT:__unwindfunclet$?GetHighLow@CDataInGraphRegionDrawer@@ABE_NABV?$CStringT@DV?$StrTraitMFC_DLL@DV?$ChTraitsCRT@D@ATL@@@@@ATL@@ABVCGraphStyle@@ABV?$CList@PAVCPacket@@PAV1@@@ABVCDisplayAttributes@@AAVCDisplayDataMinMax@@@Z$1
__ehfuncinfo$?GetHighLow@CDataInGraphRegionDrawer@@ABE_NABV?$CStringT@DV?$StrTraitMFC_DLL@DV?$ChTraitsCRT@D@ATL@@@@@ATL@@ABVCGraphStyle@@ABV?$CList@PAVCPacket@@PAV1@@@ABVCDisplayAttributes@@AAVCDisplayDataMinMax@@@Z DD 019930522H
	DD	02H
	DD	FLAT:__unwindtable$?GetHighLow@CDataInGraphRegionDrawer@@ABE_NABV?$CStringT@DV?$StrTraitMFC_DLL@DV?$ChTraitsCRT@D@ATL@@@@@ATL@@ABVCGraphStyle@@ABV?$CList@PAVCPacket@@PAV1@@@ABVCDisplayAttributes@@AAVCDisplayDataMinMax@@@Z
	DD	2 DUP(00H)
	DD	2 DUP(00H)
	DD	00H
	DD	01H
xdata$x	ENDS
;	COMDAT xdata$x
xdata$x	SEGMENT
__unwindtable$?DrawData@CDataInGraphRegionDrawer@@AAEXPAVCDC@@ABVCRect@@ABVCDrawingGraphData@@ABVCPrices@@ABV?$CList@VCTextData@@AAV1@@@@Z DD 0ffffffffH
	DD	FLAT:__unwindfunclet$?DrawData@CDataInGraphRegionDrawer@@AAEXPAVCDC@@ABVCRect@@ABVCDrawingGraphData@@ABVCPrices@@ABV?$CList@VCTextData@@AAV1@@@@Z$3
	DD	00H
	DD	FLAT:__unwindfunclet$?DrawData@CDataInGraphRegionDrawer@@AAEXPAVCDC@@ABVCRect@@ABVCDrawingGraphData@@ABVCPrices@@ABV?$CList@VCTextData@@AAV1@@@@Z$4
	DD	01H
	DD	FLAT:__unwindfunclet$?DrawData@CDataInGraphRegionDrawer@@AAEXPAVCDC@@ABVCRect@@ABVCDrawingGraphData@@ABVCPrices@@ABV?$CList@VCTextData@@AAV1@@@@Z$5
	DD	0ffffffffH
	DD	FLAT:__unwindfunclet$?DrawData@CDataInGraphRegionDrawer@@AAEXPAVCDC@@ABVCRect@@ABVCDrawingGraphData@@ABVCPrices@@ABV?$CList@VCTextData@@AAV1@@@@Z$0
__ehfuncinfo$?DrawData@CDataInGraphRegionDrawer@@AAEXPAVCDC@@ABVCRect@@ABVCDrawingGraphData@@ABVCPrices@@ABV?$CList@VCTextData@@AAV1@@@@Z DD 019930522H
	DD	04H
	DD	FLAT:__unwindtable$?DrawData@CDataInGraphRegionDrawer@@AAEXPAVCDC@@ABVCRect@@ABVCDrawingGraphData@@ABVCPrices@@ABV?$CList@VCTextData@@AAV1@@@@Z
	DD	2 DUP(00H)
	DD	2 DUP(00H)
	DD	00H
	DD	01H
xdata$x	ENDS
;	COMDAT xdata$x
xdata$x	SEGMENT
__ehfuncinfo$?DrawData@CDataInGraphRegionDrawer@@AAEXPAVCDC@@ABVCRect@@ABVCDrawingGraphData@@ABVCDisplayDataMinMax@@ABVCPrices@@ABVCGraphColor@@@Z DD 019930522H
	DD	0aH
	DD	FLAT:__unwindtable$?DrawData@CDataInGraphRegionDrawer@@AAEXPAVCDC@@ABVCRect@@ABVCDrawingGraphData@@ABVCDisplayDataMinMax@@ABVCPrices@@ABVCGraphColor@@@Z
	DD	2 DUP(00H)
	DD	2 DUP(00H)
	DD	00H
	DD	01H
__unwindtable$?DrawData@CDataInGraphRegionDrawer@@AAEXPAVCDC@@ABVCRect@@ABVCDrawingGraphData@@ABVCDisplayDataMinMax@@ABVCPrices@@ABVCGraphColor@@@Z DD 0ffffffffH
	DD	FLAT:__unwindfunclet$?DrawData@CDataInGraphRegionDrawer@@AAEXPAVCDC@@ABVCRect@@ABVCDrawingGraphData@@ABVCDisplayDataMinMax@@ABVCPrices@@ABVCGraphColor@@@Z$0
	DD	00H
	DD	FLAT:__unwindfunclet$?DrawData@CDataInGraphRegionDrawer@@AAEXPAVCDC@@ABVCRect@@ABVCDrawingGraphData@@ABVCDisplayDataMinMax@@ABVCPrices@@ABVCGraphColor@@@Z$1
	DD	01H
	DD	FLAT:__unwindfunclet$?DrawData@CDataInGraphRegionDrawer@@AAEXPAVCDC@@ABVCRect@@ABVCDrawingGraphData@@ABVCDisplayDataMinMax@@ABVCPrices@@ABVCGraphColor@@@Z$2
	DD	01H
	DD	FLAT:__unwindfunclet$?DrawData@CDataInGraphRegionDrawer@@AAEXPAVCDC@@ABVCRect@@ABVCDrawingGraphData@@ABVCDisplayDataMinMax@@ABVCPrices@@ABVCGraphColor@@@Z$3
	DD	0ffffffffH
	DD	00H
	DD	00H
	DD	FLAT:__unwindfunclet$?DrawData@CDataInGraphRegionDrawer@@AAEXPAVCDC@@ABVCRect@@ABVCDrawingGraphData@@ABVCDisplayDataMinMax@@ABVCPrices@@ABVCGraphColor@@@Z$11
	DD	05H
	DD	FLAT:__unwindfunclet$?DrawData@CDataInGraphRegionDrawer@@AAEXPAVCDC@@ABVCRect@@ABVCDrawingGraphData@@ABVCDisplayDataMinMax@@ABVCPrices@@ABVCGraphColor@@@Z$12
	DD	06H
	DD	FLAT:__unwindfunclet$?DrawData@CDataInGraphRegionDrawer@@AAEXPAVCDC@@ABVCRect@@ABVCDrawingGraphData@@ABVCDisplayDataMinMax@@ABVCPrices@@ABVCGraphColor@@@Z$13
	DD	00H
	DD	FLAT:__unwindfunclet$?DrawData@CDataInGraphRegionDrawer@@AAEXPAVCDC@@ABVCRect@@ABVCDrawingGraphData@@ABVCDisplayDataMinMax@@ABVCPrices@@ABVCGraphColor@@@Z$8
	DD	0ffffffffH
	DD	FLAT:___std_terminate
xdata$x	ENDS
;	COMDAT xdata$x
xdata$x	SEGMENT
__unwindtable$?DrawData@CDataInGraphRegionDrawer@@QAEXPAVCDC@@ABVCRect@@ABVCDisplayAttributes@@ABVCDrawingGraphData@@ABVCSubGraphData@@AAVCPrices@@@Z DD 0ffffffffH
	DD	FLAT:__unwindfunclet$?DrawData@CDataInGraphRegionDrawer@@QAEXPAVCDC@@ABVCRect@@ABVCDisplayAttributes@@ABVCDrawingGraphData@@ABVCSubGraphData@@AAVCPrices@@@Z$0
	DD	0ffffffffH
	DD	FLAT:__unwindfunclet$?DrawData@CDataInGraphRegionDrawer@@QAEXPAVCDC@@ABVCRect@@ABVCDisplayAttributes@@ABVCDrawingGraphData@@ABVCSubGraphData@@AAVCPrices@@@Z$1
__ehfuncinfo$?DrawData@CDataInGraphRegionDrawer@@QAEXPAVCDC@@ABVCRect@@ABVCDisplayAttributes@@ABVCDrawingGraphData@@ABVCSubGraphData@@AAVCPrices@@@Z DD 019930522H
	DD	02H
	DD	FLAT:__unwindtable$?DrawData@CDataInGraphRegionDrawer@@QAEXPAVCDC@@ABVCRect@@ABVCDisplayAttributes@@ABVCDrawingGraphData@@ABVCSubGraphData@@AAVCPrices@@@Z
	DD	2 DUP(00H)
	DD	2 DUP(00H)
	DD	00H
	DD	01H
xdata$x	ENDS
;	COMDAT xdata$x
xdata$x	SEGMENT
__unwindtable$?GetDecimalDownCount@CRateDrawer@@ABE_NPAVCPacket@@AAHAAV?$CStringT@DV?$StrTraitMFC_DLL@DV?$ChTraitsCRT@D@ATL@@@@@ATL@@@Z DD 0ffffffffH
	DD	FLAT:__unwindfunclet$?GetDecimalDownCount@CRateDrawer@@ABE_NPAVCPacket@@AAHAAV?$CStringT@DV?$StrTraitMFC_DLL@DV?$ChTraitsCRT@D@ATL@@@@@ATL@@@Z$0
	DD	00H
	DD	FLAT:__unwindfunclet$?GetDecimalDownCount@CRateDrawer@@ABE_NPAVCPacket@@AAHAAV?$CStringT@DV?$StrTraitMFC_DLL@DV?$ChTraitsCRT@D@ATL@@@@@ATL@@@Z$1
	DD	00H
	DD	FLAT:__unwindfunclet$?GetDecimalDownCount@CRateDrawer@@ABE_NPAVCPacket@@AAHAAV?$CStringT@DV?$StrTraitMFC_DLL@DV?$ChTraitsCRT@D@ATL@@@@@ATL@@@Z$3
__ehfuncinfo$?GetDecimalDownCount@CRateDrawer@@ABE_NPAVCPacket@@AAHAAV?$CStringT@DV?$StrTraitMFC_DLL@DV?$ChTraitsCRT@D@ATL@@@@@ATL@@@Z DD 019930522H
	DD	03H
	DD	FLAT:__unwindtable$?GetDecimalDownCount@CRateDrawer@@ABE_NPAVCPacket@@AAHAAV?$CStringT@DV?$StrTraitMFC_DLL@DV?$ChTraitsCRT@D@ATL@@@@@ATL@@@Z
	DD	2 DUP(00H)
	DD	2 DUP(00H)
	DD	00H
	DD	01H
xdata$x	ENDS
;	COMDAT xdata$x
xdata$x	SEGMENT
__unwindtable$?GetDecimalDownCountAndDataType@CRateDrawer@@IBE_NPAVCPacket@@AAVCPrices@@@Z DD 0ffffffffH
	DD	FLAT:__unwindfunclet$?GetDecimalDownCountAndDataType@CRateDrawer@@IBE_NPAVCPacket@@AAVCPrices@@@Z$0
	DD	00H
	DD	FLAT:__unwindfunclet$?GetDecimalDownCountAndDataType@CRateDrawer@@IBE_NPAVCPacket@@AAVCPrices@@@Z$1
	DD	01H
	DD	FLAT:__unwindfunclet$?GetDecimalDownCountAndDataType@CRateDrawer@@IBE_NPAVCPacket@@AAVCPrices@@@Z$2
	DD	01H
	DD	FLAT:__unwindfunclet$?GetDecimalDownCountAndDataType@CRateDrawer@@IBE_NPAVCPacket@@AAVCPrices@@@Z$4
__ehfuncinfo$?GetDecimalDownCountAndDataType@CRateDrawer@@IBE_NPAVCPacket@@AAVCPrices@@@Z DD 019930522H
	DD	04H
	DD	FLAT:__unwindtable$?GetDecimalDownCountAndDataType@CRateDrawer@@IBE_NPAVCPacket@@AAVCPrices@@@Z
	DD	2 DUP(00H)
	DD	2 DUP(00H)
	DD	00H
	DD	01H
xdata$x	ENDS
;	COMDAT xdata$x
xdata$x	SEGMENT
__unwindtable$?GetPrices@CRateDrawer@@IBE_NPAVCPacket@@HAAVCPrices@@@Z DD 0ffffffffH
	DD	FLAT:__unwindfunclet$?GetPrices@CRateDrawer@@IBE_NPAVCPacket@@HAAVCPrices@@@Z$0
__ehfuncinfo$?GetPrices@CRateDrawer@@IBE_NPAVCPacket@@HAAVCPrices@@@Z DD 019930522H
	DD	01H
	DD	FLAT:__unwindtable$?GetPrices@CRateDrawer@@IBE_NPAVCPacket@@HAAVCPrices@@@Z
	DD	2 DUP(00H)
	DD	2 DUP(00H)
	DD	00H
	DD	01H
xdata$x	ENDS
;	COMDAT xdata$x
xdata$x	SEGMENT
__unwindtable$?GetRateText@CRateDrawer@@IBE?AV?$CStringT@DV?$StrTraitMFC_DLL@DV?$ChTraitsCRT@D@ATL@@@@@ATL@@ABN0@Z DD 0ffffffffH
	DD	FLAT:__unwindfunclet$?GetRateText@CRateDrawer@@IBE?AV?$CStringT@DV?$StrTraitMFC_DLL@DV?$ChTraitsCRT@D@ATL@@@@@ATL@@ABN0@Z$0
	DD	00H
	DD	FLAT:__unwindfunclet$?GetRateText@CRateDrawer@@IBE?AV?$CStringT@DV?$StrTraitMFC_DLL@DV?$ChTraitsCRT@D@ATL@@@@@ATL@@ABN0@Z$2
__ehfuncinfo$?GetRateText@CRateDrawer@@IBE?AV?$CStringT@DV?$StrTraitMFC_DLL@DV?$ChTraitsCRT@D@ATL@@@@@ATL@@ABN0@Z DD 019930522H
	DD	02H
	DD	FLAT:__unwindtable$?GetRateText@CRateDrawer@@IBE?AV?$CStringT@DV?$StrTraitMFC_DLL@DV?$ChTraitsCRT@D@ATL@@@@@ATL@@ABN0@Z
	DD	2 DUP(00H)
	DD	2 DUP(00H)
	DD	00H
	DD	01H
xdata$x	ENDS
;	COMDAT xdata$x
xdata$x	SEGMENT
__unwindtable$?DrawRegion@CRateDrawer@@IAEXPAVCDC@@ABVCRect@@ABK2@Z DD 0ffffffffH
	DD	FLAT:__unwindfunclet$?DrawRegion@CRateDrawer@@IAEXPAVCDC@@ABVCRect@@ABK2@Z$0
	DD	00H
	DD	FLAT:__unwindfunclet$?DrawRegion@CRateDrawer@@IAEXPAVCDC@@ABVCRect@@ABK2@Z$1
__ehfuncinfo$?DrawRegion@CRateDrawer@@IAEXPAVCDC@@ABVCRect@@ABK2@Z DD 019930522H
	DD	02H
	DD	FLAT:__unwindtable$?DrawRegion@CRateDrawer@@IAEXPAVCDC@@ABVCRect@@ABK2@Z
	DD	2 DUP(00H)
	DD	2 DUP(00H)
	DD	00H
	DD	01H
xdata$x	ENDS
;	COMDAT xdata$x
xdata$x	SEGMENT
__unwindtable$??0CTextData@@QAE@ABV?$CStringT@DV?$StrTraitMFC_DLL@DV?$ChTraitsCRT@D@ATL@@@@@ATL@@0ABK@Z DD 0ffffffffH
	DD	FLAT:__unwindfunclet$??0CTextData@@QAE@ABV?$CStringT@DV?$StrTraitMFC_DLL@DV?$ChTraitsCRT@D@ATL@@@@@ATL@@0ABK@Z$0
__ehfuncinfo$??0CTextData@@QAE@ABV?$CStringT@DV?$StrTraitMFC_DLL@DV?$ChTraitsCRT@D@ATL@@@@@ATL@@0ABK@Z DD 019930522H
	DD	01H
	DD	FLAT:__unwindtable$??0CTextData@@QAE@ABV?$CStringT@DV?$StrTraitMFC_DLL@DV?$ChTraitsCRT@D@ATL@@@@@ATL@@0ABK@Z
	DD	2 DUP(00H)
	DD	2 DUP(00H)
	DD	00H
	DD	01H
xdata$x	ENDS
;	COMDAT xdata$x
xdata$x	SEGMENT
__unwindtable$??4CTextData@@QAEAAV0@ABV0@@Z DD 0ffffffffH
	DD	FLAT:__unwindfunclet$??4CTextData@@QAEAAV0@ABV0@@Z$0
	DD	0ffffffffH
	DD	FLAT:__unwindfunclet$??4CTextData@@QAEAAV0@ABV0@@Z$1
__ehfuncinfo$??4CTextData@@QAEAAV0@ABV0@@Z DD 019930522H
	DD	02H
	DD	FLAT:__unwindtable$??4CTextData@@QAEAAV0@ABV0@@Z
	DD	2 DUP(00H)
	DD	2 DUP(00H)
	DD	00H
	DD	01H
xdata$x	ENDS
;	COMDAT xdata$x
xdata$x	SEGMENT
__catchsym$??1CGdiObject@@UAE@XZ$3 DD 00H
	DD	FLAT:??_R0PAVCException@@@8
	DD	0fffffde4H
	DD	FLAT:__catch$??1CGdiObject@@UAE@XZ$0
__tryblocktable$??1CGdiObject@@UAE@XZ DD 00H
	DD	00H
	DD	02H
	DD	01H
	DD	FLAT:__catchsym$??1CGdiObject@@UAE@XZ$3
__unwindtable$??1CGdiObject@@UAE@XZ DD 0ffffffffH
	DD	00H
	DD	0ffffffffH
	DD	00H
	DD	01H
	DD	FLAT:__unwindfunclet$??1CGdiObject@@UAE@XZ$2
__ehfuncinfo$??1CGdiObject@@UAE@XZ DD 019930522H
	DD	03H
	DD	FLAT:__unwindtable$??1CGdiObject@@UAE@XZ
	DD	01H
	DD	FLAT:__tryblocktable$??1CGdiObject@@UAE@XZ
	DD	2 DUP(00H)
	DD	00H
	DD	05H
xdata$x	ENDS
;	COMDAT xdata$x
xdata$x	SEGMENT
__unwindtable$??HATL@@YA?AV?$CStringT@DV?$StrTraitMFC_DLL@DV?$ChTraitsCRT@D@ATL@@@@@0@DABV10@@Z DD 0ffffffffH
	DD	FLAT:__unwindfunclet$??HATL@@YA?AV?$CStringT@DV?$StrTraitMFC_DLL@DV?$ChTraitsCRT@D@ATL@@@@@0@DABV10@@Z$0
__ehfuncinfo$??HATL@@YA?AV?$CStringT@DV?$StrTraitMFC_DLL@DV?$ChTraitsCRT@D@ATL@@@@@0@DABV10@@Z DD 019930522H
	DD	01H
	DD	FLAT:__unwindtable$??HATL@@YA?AV?$CStringT@DV?$StrTraitMFC_DLL@DV?$ChTraitsCRT@D@ATL@@@@@0@DABV10@@Z
	DD	2 DUP(00H)
	DD	2 DUP(00H)
	DD	00H
	DD	01H
xdata$x	ENDS
;	COMDAT xdata$x
xdata$x	SEGMENT
__unwindtable$??HATL@@YA?AV?$CStringT@DV?$StrTraitMFC_DLL@DV?$ChTraitsCRT@D@ATL@@@@@0@ABV10@D@Z DD 0ffffffffH
	DD	FLAT:__unwindfunclet$??HATL@@YA?AV?$CStringT@DV?$StrTraitMFC_DLL@DV?$ChTraitsCRT@D@ATL@@@@@0@ABV10@D@Z$0
__ehfuncinfo$??HATL@@YA?AV?$CStringT@DV?$StrTraitMFC_DLL@DV?$ChTraitsCRT@D@ATL@@@@@0@ABV10@D@Z DD 019930522H
	DD	01H
	DD	FLAT:__unwindtable$??HATL@@YA?AV?$CStringT@DV?$StrTraitMFC_DLL@DV?$ChTraitsCRT@D@ATL@@@@@0@ABV10@D@Z
	DD	2 DUP(00H)
	DD	2 DUP(00H)
	DD	00H
	DD	01H
xdata$x	ENDS
;	COMDAT xdata$x
xdata$x	SEGMENT
__unwindtable$??HATL@@YA?AV?$CStringT@DV?$StrTraitMFC_DLL@DV?$ChTraitsCRT@D@ATL@@@@@0@PBDABV10@@Z DD 0ffffffffH
	DD	FLAT:__unwindfunclet$??HATL@@YA?AV?$CStringT@DV?$StrTraitMFC_DLL@DV?$ChTraitsCRT@D@ATL@@@@@0@PBDABV10@@Z$0
__ehfuncinfo$??HATL@@YA?AV?$CStringT@DV?$StrTraitMFC_DLL@DV?$ChTraitsCRT@D@ATL@@@@@0@PBDABV10@@Z DD 019930522H
	DD	01H
	DD	FLAT:__unwindtable$??HATL@@YA?AV?$CStringT@DV?$StrTraitMFC_DLL@DV?$ChTraitsCRT@D@ATL@@@@@0@PBDABV10@@Z
	DD	2 DUP(00H)
	DD	2 DUP(00H)
	DD	00H
	DD	01H
xdata$x	ENDS
;	COMDAT xdata$x
xdata$x	SEGMENT
__unwindtable$??HATL@@YA?AV?$CStringT@DV?$StrTraitMFC_DLL@DV?$ChTraitsCRT@D@ATL@@@@@0@ABV10@PBD@Z DD 0ffffffffH
	DD	FLAT:__unwindfunclet$??HATL@@YA?AV?$CStringT@DV?$StrTraitMFC_DLL@DV?$ChTraitsCRT@D@ATL@@@@@0@ABV10@PBD@Z$0
__ehfuncinfo$??HATL@@YA?AV?$CStringT@DV?$StrTraitMFC_DLL@DV?$ChTraitsCRT@D@ATL@@@@@0@ABV10@PBD@Z DD 019930522H
	DD	01H
	DD	FLAT:__unwindtable$??HATL@@YA?AV?$CStringT@DV?$StrTraitMFC_DLL@DV?$ChTraitsCRT@D@ATL@@@@@0@ABV10@PBD@Z
	DD	2 DUP(00H)
	DD	2 DUP(00H)
	DD	00H
	DD	01H
xdata$x	ENDS
;	COMDAT xdata$x
xdata$x	SEGMENT
__unwindtable$??HATL@@YA?AV?$CStringT@DV?$StrTraitMFC_DLL@DV?$ChTraitsCRT@D@ATL@@@@@0@ABV10@0@Z DD 0ffffffffH
	DD	FLAT:__unwindfunclet$??HATL@@YA?AV?$CStringT@DV?$StrTraitMFC_DLL@DV?$ChTraitsCRT@D@ATL@@@@@0@ABV10@0@Z$0
__ehfuncinfo$??HATL@@YA?AV?$CStringT@DV?$StrTraitMFC_DLL@DV?$ChTraitsCRT@D@ATL@@@@@0@ABV10@0@Z DD 019930522H
	DD	01H
	DD	FLAT:__unwindtable$??HATL@@YA?AV?$CStringT@DV?$StrTraitMFC_DLL@DV?$ChTraitsCRT@D@ATL@@@@@0@ABV10@0@Z
	DD	2 DUP(00H)
	DD	2 DUP(00H)
	DD	00H
	DD	01H
xdata$x	ENDS
; Function compile flags: /Ogtp
; File C:\Program Files (x86)\Microsoft Visual Studio\2019\Community\VC\Tools\MSVC\14.29.30133\atlmfc\include\afxtempl.h
; File C:\Program Files (x86)\Microsoft Visual Studio\2019\Community\VC\Tools\MSVC\14.29.30133\atlmfc\include\afx.inl
; File C:\Program Files (x86)\Microsoft Visual Studio\2019\Community\VC\Tools\MSVC\14.29.30133\atlmfc\include\afxtempl.h
; File C:\Program Files (x86)\Microsoft Visual Studio\2019\Community\VC\Tools\MSVC\14.29.30133\atlmfc\include\afx.inl
; File C:\Program Files (x86)\Microsoft Visual Studio\2019\Community\VC\Tools\MSVC\14.29.30133\atlmfc\include\afxtempl.h
; File C:\Program Files (x86)\Microsoft Visual Studio\2019\Community\VC\Tools\MSVC\14.29.30133\atlmfc\include\afx.inl
; File C:\Program Files (x86)\Microsoft Visual Studio\2019\Community\VC\Tools\MSVC\14.29.30133\atlmfc\include\afxtempl.h
;	COMDAT ??$SerializeElements@VCTextData@@@@YGXAAVCArchive@@PAVCTextData@@H@Z
_TEXT	SEGMENT
_ar$ = 8						; size = 4
_pElements$ = 12					; size = 4
_nCount$ = 16						; size = 4
??$SerializeElements@VCTextData@@@@YGXAAVCArchive@@PAVCTextData@@H@Z PROC ; SerializeElements<CTextData>, COMDAT

; 67   : {

  00000	55		 push	 ebp
  00001	8b ec		 mov	 ebp, esp

; 68   : 	ENSURE(nCount == 0 || pElements != NULL);

  00003	8b 4d 0c	 mov	 ecx, DWORD PTR _pElements$[ebp]
  00006	53		 push	 ebx
  00007	56		 push	 esi
  00008	8b 75 10	 mov	 esi, DWORD PTR _nCount$[ebp]
  0000b	57		 push	 edi
  0000c	85 f6		 test	 esi, esi
  0000e	74 08		 je	 SHORT $LN2@SerializeE
  00010	85 c9		 test	 ecx, ecx
  00012	0f 84 87 00 00
	00		 je	 $LN34@SerializeE
$LN2@SerializeE:
; File C:\Program Files (x86)\Microsoft Visual Studio\2019\Community\VC\Tools\MSVC\14.29.30133\atlmfc\include\afx.inl

; 212  : 	{ return (m_nMode & CArchive::load) == 0; }

  00018	8b 55 08	 mov	 edx, DWORD PTR _ar$[ebp]
  0001b	8b 42 18	 mov	 eax, DWORD PTR [edx+24]
  0001e	f7 d0		 not	 eax
  00020	a8 01		 test	 al, 1
; File C:\Program Files (x86)\Microsoft Visual Studio\2019\Community\VC\Tools\MSVC\14.29.30133\atlmfc\include\afxtempl.h

; 73   : 	if (ar.IsStoring())

  00022	74 3b		 je	 SHORT $LN10@SerializeE

; 74   : 	{
; 75   : 		TYPE* pData;
; 76   : 		UINT_PTR nElementsLeft;
; 77   : 
; 78   : 		nElementsLeft = nCount;
; 79   : 		pData = pElements;
; 80   : 		while( nElementsLeft > 0 )

  00024	85 f6		 test	 esi, esi
  00026	74 30		 je	 SHORT $LN8@SerializeE
  00028	0f 1f 84 00 00
	00 00 00	 npad	 8
$LL5@SerializeE:

; 81   : 		{
; 82   : 			UINT nElementsToWrite;
; 83   : 
; 84   : 			nElementsToWrite = UINT(__min(nElementsLeft, INT_MAX/sizeof(TYPE)));

  00030	bb aa aa aa 0a	 mov	 ebx, 178956970		; 0aaaaaaaH
  00035	3b f3		 cmp	 esi, ebx
  00037	0f 42 de	 cmovb	 ebx, esi

; 85   : 			ar.Write(pData, nElementsToWrite*sizeof(TYPE));

  0003a	8d 3c 5b	 lea	 edi, DWORD PTR [ebx+ebx*2]
  0003d	c1 e7 02	 shl	 edi, 2
  00040	57		 push	 edi
  00041	51		 push	 ecx
  00042	8b ca		 mov	 ecx, edx
  00044	e8 00 00 00 00	 call	 ?Write@CArchive@@QAEXPBXI@Z ; CArchive::Write

; 86   : 			nElementsLeft -= nElementsToWrite;
; 87   : 			pData += nElementsToWrite;

  00049	8b 4d 0c	 mov	 ecx, DWORD PTR _pElements$[ebp]
  0004c	8b 55 08	 mov	 edx, DWORD PTR _ar$[ebp]
  0004f	03 cf		 add	 ecx, edi
  00051	89 4d 0c	 mov	 DWORD PTR _pElements$[ebp], ecx
  00054	2b f3		 sub	 esi, ebx
  00056	75 d8		 jne	 SHORT $LL5@SerializeE
$LN8@SerializeE:
  00058	5f		 pop	 edi

; 105  : 		}
; 106  : 	}
; 107  : }

  00059	5e		 pop	 esi
  0005a	5b		 pop	 ebx
  0005b	5d		 pop	 ebp
  0005c	c2 0c 00	 ret	 12			; 0000000cH
$LN10@SerializeE:

; 97   : 		while( nElementsLeft > 0 )

  0005f	85 f6		 test	 esi, esi
  00061	74 f5		 je	 SHORT $LN8@SerializeE
$LL7@SerializeE:

; 98   : 		{
; 99   : 			UINT nElementsToRead;
; 100  : 
; 101  : 			nElementsToRead = UINT(__min(nElementsLeft, INT_MAX/sizeof(TYPE)));

  00063	bf aa aa aa 0a	 mov	 edi, 178956970		; 0aaaaaaaH
  00068	3b f7		 cmp	 esi, edi
  0006a	0f 42 fe	 cmovb	 edi, esi

; 102  : 			ar.EnsureRead(pData, nElementsToRead*sizeof(TYPE));

  0006d	8d 1c 7f	 lea	 ebx, DWORD PTR [edi+edi*2]
  00070	c1 e3 02	 shl	 ebx, 2
; File C:\Program Files (x86)\Microsoft Visual Studio\2019\Community\VC\Tools\MSVC\14.29.30133\atlmfc\include\afx.inl

; 399  : 	UINT nRead=Read(lpBuf, nCount);

  00073	53		 push	 ebx
  00074	51		 push	 ecx
  00075	8b ca		 mov	 ecx, edx
  00077	e8 00 00 00 00	 call	 ?Read@CArchive@@QAEIPAXI@Z ; CArchive::Read

; 400  : 	if(nRead!=nCount)

  0007c	3b c3		 cmp	 eax, ebx
  0007e	75 16		 jne	 SHORT $LN23@SerializeE
; File C:\Program Files (x86)\Microsoft Visual Studio\2019\Community\VC\Tools\MSVC\14.29.30133\atlmfc\include\afxtempl.h

; 97   : 		while( nElementsLeft > 0 )

  00080	8b 4d 0c	 mov	 ecx, DWORD PTR _pElements$[ebp]
  00083	8b 55 08	 mov	 edx, DWORD PTR _ar$[ebp]

; 103  : 			nElementsLeft -= nElementsToRead;
; 104  : 			pData += nElementsToRead;

  00086	03 cb		 add	 ecx, ebx
  00088	89 4d 0c	 mov	 DWORD PTR _pElements$[ebp], ecx
  0008b	2b f7		 sub	 esi, edi
  0008d	75 d4		 jne	 SHORT $LL7@SerializeE

; 105  : 		}
; 106  : 	}
; 107  : }

  0008f	5f		 pop	 edi
  00090	5e		 pop	 esi
  00091	5b		 pop	 ebx
  00092	5d		 pop	 ebp
  00093	c2 0c 00	 ret	 12			; 0000000cH
$LN23@SerializeE:
; File C:\Program Files (x86)\Microsoft Visual Studio\2019\Community\VC\Tools\MSVC\14.29.30133\atlmfc\include\afx.inl

; 402  : 		AfxThrowArchiveException(CArchiveException::endOfFile);

  00096	6a 00		 push	 0
  00098	6a 03		 push	 3
  0009a	e8 00 00 00 00	 call	 ?AfxThrowArchiveException@@YGXHPBD@Z ; AfxThrowArchiveException
$LN34@SerializeE:
; File C:\Program Files (x86)\Microsoft Visual Studio\2019\Community\VC\Tools\MSVC\14.29.30133\atlmfc\include\afxtempl.h

; 68   : 	ENSURE(nCount == 0 || pElements != NULL);

  0009f	e8 00 00 00 00	 call	 ?AfxThrowInvalidArgException@@YGXXZ ; AfxThrowInvalidArgException
$LN32@SerializeE:
  000a4	cc		 int	 3
??$SerializeElements@VCTextData@@@@YGXAAVCArchive@@PAVCTextData@@H@Z ENDP ; SerializeElements<CTextData>
_TEXT	ENDS
; Function compile flags: /Ogtp
; File C:\Program Files (x86)\Microsoft Visual Studio\2019\Community\VC\Tools\MSVC\14.29.30133\atlmfc\include\afxtempl.h
; File C:\Program Files (x86)\Microsoft Visual Studio\2019\Community\VC\Tools\MSVC\14.29.30133\atlmfc\include\afx.inl
;	COMDAT ??_G?$CList@VCTextData@@AAV1@@@UAEPAXI@Z
_TEXT	SEGMENT
__$EHRec$ = -12						; size = 12
___flags$ = 8						; size = 4
??_G?$CList@VCTextData@@AAV1@@@UAEPAXI@Z PROC		; CList<CTextData,CTextData &>::`scalar deleting destructor', COMDAT
; _this$ = ecx
  00000	55		 push	 ebp
  00001	8b ec		 mov	 ebp, esp
  00003	6a ff		 push	 -1
  00005	68 00 00 00 00	 push	 __ehhandler$??_G?$CList@VCTextData@@AAV1@@@UAEPAXI@Z
  0000a	64 a1 00 00 00
	00		 mov	 eax, DWORD PTR fs:0
  00010	50		 push	 eax
  00011	56		 push	 esi
  00012	a1 00 00 00 00	 mov	 eax, DWORD PTR ___security_cookie
  00017	33 c5		 xor	 eax, ebp
  00019	50		 push	 eax
  0001a	8d 45 f4	 lea	 eax, DWORD PTR __$EHRec$[ebp]
  0001d	64 a3 00 00 00
	00		 mov	 DWORD PTR fs:0, eax
  00023	8b f1		 mov	 esi, ecx
; File C:\Program Files (x86)\Microsoft Visual Studio\2019\Community\VC\Tools\MSVC\14.29.30133\atlmfc\include\afxtempl.h

; 878  : {

  00025	c7 45 fc 00 00
	00 00		 mov	 DWORD PTR __$EHRec$[ebp+8], 0
  0002c	c7 06 00 00 00
	00		 mov	 DWORD PTR [esi], OFFSET ??_7?$CList@VCTextData@@AAV1@@@6B@

; 879  : 	RemoveAll();

  00032	e8 00 00 00 00	 call	 ?RemoveAll@?$CList@VCTextData@@AAV1@@@QAEXXZ ; CList<CTextData,CTextData &>::RemoveAll
  00037	8b 45 08	 mov	 eax, DWORD PTR ___flags$[ebp]
  0003a	a8 01		 test	 al, 1
  0003c	74 2c		 je	 SHORT $LN12@scalar
  0003e	a8 04		 test	 al, 4
  00040	75 1d		 jne	 SHORT $LN3@scalar
; File C:\Program Files (x86)\Microsoft Visual Studio\2019\Community\VC\Tools\MSVC\14.29.30133\atlmfc\include\afx.inl

; 112  : 	{ ::operator delete(p); }

  00042	56		 push	 esi
  00043	e8 00 00 00 00	 call	 ??3@YAXPAX@Z		; operator delete
  00048	83 c4 04	 add	 esp, 4
  0004b	8b c6		 mov	 eax, esi
  0004d	8b 4d f4	 mov	 ecx, DWORD PTR __$EHRec$[ebp]
  00050	64 89 0d 00 00
	00 00		 mov	 DWORD PTR fs:0, ecx
  00057	59		 pop	 ecx
  00058	5e		 pop	 esi
  00059	8b e5		 mov	 esp, ebp
  0005b	5d		 pop	 ebp
  0005c	c2 04 00	 ret	 4
$LN3@scalar:
  0005f	6a 1c		 push	 28			; 0000001cH
  00061	56		 push	 esi
  00062	e8 00 00 00 00	 call	 ?__global_delete@@YAXPAXI@Z ; __global_delete
  00067	83 c4 08	 add	 esp, 8
$LN12@scalar:
  0006a	8b c6		 mov	 eax, esi
  0006c	8b 4d f4	 mov	 ecx, DWORD PTR __$EHRec$[ebp]
  0006f	64 89 0d 00 00
	00 00		 mov	 DWORD PTR fs:0, ecx
  00076	59		 pop	 ecx
  00077	5e		 pop	 esi
  00078	8b e5		 mov	 esp, ebp
  0007a	5d		 pop	 ebp
  0007b	c2 04 00	 ret	 4
  0007e	cc		 int	 3
  0007f	cc		 int	 3
  00080	cc		 int	 3
  00081	cc		 int	 3
  00082	cc		 int	 3
_TEXT	ENDS
;	COMDAT text$x
text$x	SEGMENT
__ehhandler$??_G?$CList@VCTextData@@AAV1@@@UAEPAXI@Z:
  00000	90		 npad	 1
  00001	90		 npad	 1
  00002	8b 54 24 08	 mov	 edx, DWORD PTR [esp+8]
  00006	8d 42 0c	 lea	 eax, DWORD PTR [edx+12]
  00009	8b 4a f8	 mov	 ecx, DWORD PTR [edx-8]
  0000c	33 c8		 xor	 ecx, eax
  0000e	e8 00 00 00 00	 call	 @__security_check_cookie@4
  00013	b8 00 00 00 00	 mov	 eax, OFFSET __ehfuncinfo$??_G?$CList@VCTextData@@AAV1@@@UAEPAXI@Z
  00018	e9 00 00 00 00	 jmp	 ___CxxFrameHandler3
text$x	ENDS
??_G?$CList@VCTextData@@AAV1@@@UAEPAXI@Z ENDP		; CList<CTextData,CTextData &>::`scalar deleting destructor'
; Function compile flags: /Ogtp
; File C:\Program Files (x86)\Microsoft Visual Studio\2019\Community\VC\Tools\MSVC\14.29.30133\atlmfc\include\afxtempl.h
; File C:\Program Files (x86)\Microsoft Visual Studio\2019\Community\VC\Tools\MSVC\14.29.30133\atlmfc\include\afx.inl
; File C:\Program Files (x86)\Microsoft Visual Studio\2019\Community\VC\Tools\MSVC\14.29.30133\atlmfc\include\afxtempl.h
; File C:\Program Files (x86)\Microsoft Visual Studio\2019\Community\VC\Tools\MSVC\14.29.30133\atlmfc\include\afx.inl
; File C:\Program Files (x86)\Microsoft Visual Studio\2019\Community\VC\Tools\MSVC\14.29.30133\atlmfc\include\afxtempl.h
; File C:\Program Files (x86)\Microsoft Visual Studio\2019\Community\VC\Tools\MSVC\14.29.30133\atlmfc\include\afx.inl
; File C:\Program Files (x86)\Microsoft Visual Studio\2019\Community\VC\Tools\MSVC\14.29.30133\atlmfc\include\afxtempl.h
; File C:\Program Files (x86)\Microsoft Visual Studio\2019\Community\VC\Tools\MSVC\14.29.30133\atlmfc\include\afx.inl
; File C:\Program Files (x86)\Microsoft Visual Studio\2019\Community\VC\Tools\MSVC\14.29.30133\atlmfc\include\afxtempl.h
; File C:\Program Files (x86)\Microsoft Visual Studio\2019\Community\VC\Tools\MSVC\14.29.30133\atlmfc\include\afx.inl
; File C:\Program Files (x86)\Microsoft Visual Studio\2019\Community\VC\Tools\MSVC\14.29.30133\atlmfc\include\afxtempl.h
; File C:\Program Files (x86)\Microsoft Visual Studio\2019\Community\VC\Tools\MSVC\14.29.30133\atlmfc\include\afx.inl
; File C:\Program Files (x86)\Microsoft Visual Studio\2019\Community\VC\Tools\MSVC\14.29.30133\atlmfc\include\afxtempl.h
; File C:\Program Files (x86)\Microsoft Visual Studio\2019\Community\VC\Tools\MSVC\14.29.30133\atlmfc\include\afx.inl
; File C:\Program Files (x86)\Microsoft Visual Studio\2019\Community\VC\Tools\MSVC\14.29.30133\atlmfc\include\afxtempl.h
;	COMDAT ?Serialize@?$CList@VCTextData@@AAV1@@@UAEXAAVCArchive@@@Z
_TEXT	SEGMENT
_newData$2 = -36					; size = 12
_nNewCount$1$ = -24					; size = 4
_pData$1$ = -20						; size = 4
_pData$1$ = -20						; size = 4
_pNode$1$ = -20						; size = 4
_nCount$1$ = -16					; size = 4
_nElementsLeft$1$ = -16					; size = 4
_this$1$ = -16						; size = 4
__$EHRec$ = -12						; size = 12
_ar$ = 8						; size = 4
?Serialize@?$CList@VCTextData@@AAV1@@@UAEXAAVCArchive@@@Z PROC ; CList<CTextData,CTextData &>::Serialize, COMDAT
; _this$ = ecx

; 1169 : {

  00000	55		 push	 ebp
  00001	8b ec		 mov	 ebp, esp
  00003	6a ff		 push	 -1
  00005	68 00 00 00 00	 push	 __ehhandler$?Serialize@?$CList@VCTextData@@AAV1@@@UAEXAAVCArchive@@@Z
  0000a	64 a1 00 00 00
	00		 mov	 eax, DWORD PTR fs:0
  00010	50		 push	 eax
  00011	83 ec 18	 sub	 esp, 24			; 00000018H
  00014	53		 push	 ebx
  00015	56		 push	 esi
  00016	57		 push	 edi
  00017	a1 00 00 00 00	 mov	 eax, DWORD PTR ___security_cookie
  0001c	33 c5		 xor	 eax, ebp
  0001e	50		 push	 eax
  0001f	8d 45 f4	 lea	 eax, DWORD PTR __$EHRec$[ebp]
  00022	64 a3 00 00 00
	00		 mov	 DWORD PTR fs:0, eax
  00028	8b d9		 mov	 ebx, ecx
  0002a	89 5d f0	 mov	 DWORD PTR _this$1$[ebp], ebx
; File C:\Program Files (x86)\Microsoft Visual Studio\2019\Community\VC\Tools\MSVC\14.29.30133\atlmfc\include\afx.inl

; 212  : 	{ return (m_nMode & CArchive::load) == 0; }

  0002d	8b 4d 08	 mov	 ecx, DWORD PTR _ar$[ebp]
  00030	8b 41 18	 mov	 eax, DWORD PTR [ecx+24]
  00033	f7 d0		 not	 eax
  00035	a8 01		 test	 al, 1
; File C:\Program Files (x86)\Microsoft Visual Studio\2019\Community\VC\Tools\MSVC\14.29.30133\atlmfc\include\afxtempl.h

; 1174 : 	if (ar.IsStoring())

  00037	0f 84 b6 00 00
	00		 je	 $LN7@Serialize

; 1175 : 	{
; 1176 : 		ar.WriteCount(m_nCount);

  0003d	ff 73 0c	 push	 DWORD PTR [ebx+12]
  00040	e8 00 00 00 00	 call	 ?WriteCount@CArchive@@QAEXK@Z ; CArchive::WriteCount

; 1177 : 		for (CNode* pNode = m_pNodeHead; pNode != NULL; pNode = pNode->pNext)

  00045	8b 43 04	 mov	 eax, DWORD PTR [ebx+4]
  00048	89 45 ec	 mov	 DWORD PTR _pNode$1$[ebp], eax
  0004b	85 c0		 test	 eax, eax
  0004d	0f 84 77 01 00
	00		 je	 $LN69@Serialize
$LL4@Serialize:

; 1178 : 		{
; 1179 : 			ASSERT(AfxIsValidAddress(pNode, sizeof(CNode)));
; 1180 : 			TYPE* pData;
; 1181 : 			/*
; 1182 : 			 * in some cases the & operator might be overloaded, and we cannot use it to obtain
; 1183 : 			 * the address of a given object.  We then use the following trick to get the address
; 1184 : 			 */
; 1185 : 			pData = reinterpret_cast< TYPE* >( &reinterpret_cast< int& >( static_cast< TYPE& >( pNode->data ) ) );

  00053	8d 70 08	 lea	 esi, DWORD PTR [eax+8]

; 68   : 	ENSURE(nCount == 0 || pElements != NULL);

  00056	85 f6		 test	 esi, esi
  00058	0f 84 89 01 00
	00		 je	 $LN61@Serialize
; File C:\Program Files (x86)\Microsoft Visual Studio\2019\Community\VC\Tools\MSVC\14.29.30133\atlmfc\include\afx.inl

; 212  : 	{ return (m_nMode & CArchive::load) == 0; }

  0005e	8b 4d 08	 mov	 ecx, DWORD PTR _ar$[ebp]
  00061	8b 41 18	 mov	 eax, DWORD PTR [ecx+24]
  00064	f7 d0		 not	 eax
  00066	a8 01		 test	 al, 1
; File C:\Program Files (x86)\Microsoft Visual Studio\2019\Community\VC\Tools\MSVC\14.29.30133\atlmfc\include\afxtempl.h

; 73   : 	if (ar.IsStoring())

  00068	74 32		 je	 SHORT $LN22@Serialize

; 74   : 	{
; 75   : 		TYPE* pData;
; 76   : 		UINT_PTR nElementsLeft;
; 77   : 
; 78   : 		nElementsLeft = nCount;

  0006a	b8 01 00 00 00	 mov	 eax, 1
  0006f	89 45 f0	 mov	 DWORD PTR _nElementsLeft$1$[ebp], eax
$LL17@Serialize:

; 79   : 		pData = pElements;
; 80   : 		while( nElementsLeft > 0 )
; 81   : 		{
; 82   : 			UINT nElementsToWrite;
; 83   : 
; 84   : 			nElementsToWrite = UINT(__min(nElementsLeft, INT_MAX/sizeof(TYPE)));

  00072	bb aa aa aa 0a	 mov	 ebx, 178956970		; 0aaaaaaaH
  00077	3b c3		 cmp	 eax, ebx
  00079	0f 42 d8	 cmovb	 ebx, eax

; 85   : 			ar.Write(pData, nElementsToWrite*sizeof(TYPE));

  0007c	8d 3c 5b	 lea	 edi, DWORD PTR [ebx+ebx*2]
  0007f	c1 e7 02	 shl	 edi, 2
  00082	57		 push	 edi
  00083	56		 push	 esi
  00084	e8 00 00 00 00	 call	 ?Write@CArchive@@QAEXPBXI@Z ; CArchive::Write

; 86   : 			nElementsLeft -= nElementsToWrite;

  00089	8b 45 f0	 mov	 eax, DWORD PTR _nElementsLeft$1$[ebp]

; 87   : 			pData += nElementsToWrite;

  0008c	03 f7		 add	 esi, edi
  0008e	8b 4d 08	 mov	 ecx, DWORD PTR _ar$[ebp]
  00091	2b c3		 sub	 eax, ebx
  00093	89 45 f0	 mov	 DWORD PTR _nElementsLeft$1$[ebp], eax
  00096	85 c0		 test	 eax, eax
  00098	75 d8		 jne	 SHORT $LL17@Serialize

; 88   : 		}
; 89   : 	}

  0009a	eb 33		 jmp	 SHORT $LN2@Serialize
$LN22@Serialize:

; 90   : 	else
; 91   : 	{
; 92   : 		TYPE* pData;
; 93   : 		UINT_PTR nElementsLeft;
; 94   : 
; 95   : 		nElementsLeft = nCount;

  0009c	bf 01 00 00 00	 mov	 edi, 1
$LL19@Serialize:

; 98   : 		{
; 99   : 			UINT nElementsToRead;
; 100  : 
; 101  : 			nElementsToRead = UINT(__min(nElementsLeft, INT_MAX/sizeof(TYPE)));

  000a1	bb aa aa aa 0a	 mov	 ebx, 178956970		; 0aaaaaaaH
  000a6	3b fb		 cmp	 edi, ebx
  000a8	0f 42 df	 cmovb	 ebx, edi

; 102  : 			ar.EnsureRead(pData, nElementsToRead*sizeof(TYPE));

  000ab	8d 04 5b	 lea	 eax, DWORD PTR [ebx+ebx*2]
  000ae	c1 e0 02	 shl	 eax, 2
; File C:\Program Files (x86)\Microsoft Visual Studio\2019\Community\VC\Tools\MSVC\14.29.30133\atlmfc\include\afx.inl

; 399  : 	UINT nRead=Read(lpBuf, nCount);

  000b1	50		 push	 eax
  000b2	56		 push	 esi
; File C:\Program Files (x86)\Microsoft Visual Studio\2019\Community\VC\Tools\MSVC\14.29.30133\atlmfc\include\afxtempl.h

; 102  : 			ar.EnsureRead(pData, nElementsToRead*sizeof(TYPE));

  000b3	89 45 f0	 mov	 DWORD PTR _nCount$1$[ebp], eax
; File C:\Program Files (x86)\Microsoft Visual Studio\2019\Community\VC\Tools\MSVC\14.29.30133\atlmfc\include\afx.inl

; 399  : 	UINT nRead=Read(lpBuf, nCount);

  000b6	e8 00 00 00 00	 call	 ?Read@CArchive@@QAEIPAXI@Z ; CArchive::Read

; 400  : 	if(nRead!=nCount)

  000bb	8b 4d f0	 mov	 ecx, DWORD PTR _nCount$1$[ebp]
  000be	3b c1		 cmp	 eax, ecx
  000c0	0f 85 18 01 00
	00		 jne	 $LN60@Serialize
; File C:\Program Files (x86)\Microsoft Visual Studio\2019\Community\VC\Tools\MSVC\14.29.30133\atlmfc\include\afxtempl.h

; 97   : 		while( nElementsLeft > 0 )

  000c6	03 f1		 add	 esi, ecx
  000c8	8b 4d 08	 mov	 ecx, DWORD PTR _ar$[ebp]

; 103  : 			nElementsLeft -= nElementsToRead;

  000cb	2b fb		 sub	 edi, ebx
  000cd	75 d2		 jne	 SHORT $LL19@Serialize
$LN2@Serialize:

; 1177 : 		for (CNode* pNode = m_pNodeHead; pNode != NULL; pNode = pNode->pNext)

  000cf	8b 45 ec	 mov	 eax, DWORD PTR _pNode$1$[ebp]
  000d2	8b 00		 mov	 eax, DWORD PTR [eax]
  000d4	89 45 ec	 mov	 DWORD PTR _pNode$1$[ebp], eax
  000d7	85 c0		 test	 eax, eax
  000d9	0f 85 74 ff ff
	ff		 jne	 $LL4@Serialize

; 1198 : 	}
; 1199 : }

  000df	8b 4d f4	 mov	 ecx, DWORD PTR __$EHRec$[ebp]
  000e2	64 89 0d 00 00
	00 00		 mov	 DWORD PTR fs:0, ecx
  000e9	59		 pop	 ecx
  000ea	5f		 pop	 edi
  000eb	5e		 pop	 esi
  000ec	5b		 pop	 ebx
  000ed	8b e5		 mov	 esp, ebp
  000ef	5d		 pop	 ebp
  000f0	c2 04 00	 ret	 4
$LN7@Serialize:

; 1186 : 			SerializeElements<TYPE>(ar, pData, 1);
; 1187 : 		}
; 1188 : 	}
; 1189 : 	else
; 1190 : 	{
; 1191 : 		DWORD_PTR nNewCount = ar.ReadCount();

  000f3	e8 00 00 00 00	 call	 ?ReadCount@CArchive@@QAEKXZ ; CArchive::ReadCount

; 1192 : 		while (nNewCount--)

  000f8	85 c0		 test	 eax, eax
  000fa	0f 84 ca 00 00
	00		 je	 $LN69@Serialize
$LL5@Serialize:

; 1194 : 			TYPE newData[1];

  00100	68 00 00 00 00	 push	 OFFSET ??1CTextData@@QAE@XZ
  00105	68 00 00 00 00	 push	 OFFSET ??0CTextData@@QAE@XZ ; CTextData::CTextData
  0010a	48		 dec	 eax
  0010b	6a 01		 push	 1
  0010d	89 45 e8	 mov	 DWORD PTR _nNewCount$1$[ebp], eax
  00110	8d 45 dc	 lea	 eax, DWORD PTR _newData$2[ebp]
  00113	6a 0c		 push	 12			; 0000000cH
  00115	50		 push	 eax
  00116	e8 00 00 00 00	 call	 ??_L@YGXPAXIIP6EX0@Z1@Z
; File C:\Program Files (x86)\Microsoft Visual Studio\2019\Community\VC\Tools\MSVC\14.29.30133\atlmfc\include\afx.inl

; 212  : 	{ return (m_nMode & CArchive::load) == 0; }

  0011b	8b 4d 08	 mov	 ecx, DWORD PTR _ar$[ebp]
; File C:\Program Files (x86)\Microsoft Visual Studio\2019\Community\VC\Tools\MSVC\14.29.30133\atlmfc\include\afxtempl.h

; 1194 : 			TYPE newData[1];

  0011e	c7 45 fc 00 00
	00 00		 mov	 DWORD PTR __$EHRec$[ebp+8], 0
; File C:\Program Files (x86)\Microsoft Visual Studio\2019\Community\VC\Tools\MSVC\14.29.30133\atlmfc\include\afx.inl

; 212  : 	{ return (m_nMode & CArchive::load) == 0; }

  00125	8b 41 18	 mov	 eax, DWORD PTR [ecx+24]
  00128	f7 d0		 not	 eax
  0012a	a8 01		 test	 al, 1
; File C:\Program Files (x86)\Microsoft Visual Studio\2019\Community\VC\Tools\MSVC\14.29.30133\atlmfc\include\afxtempl.h

; 73   : 	if (ar.IsStoring())

  0012c	8d 45 dc	 lea	 eax, DWORD PTR _newData$2[ebp]
  0012f	89 45 ec	 mov	 DWORD PTR _pData$1$[ebp], eax
  00132	74 34		 je	 SHORT $LN43@Serialize

; 74   : 	{
; 75   : 		TYPE* pData;
; 76   : 		UINT_PTR nElementsLeft;
; 77   : 
; 78   : 		nElementsLeft = nCount;

  00134	bb 01 00 00 00	 mov	 ebx, 1
  00139	0f 1f 80 00 00
	00 00		 npad	 7
$LL38@Serialize:

; 79   : 		pData = pElements;
; 80   : 		while( nElementsLeft > 0 )
; 81   : 		{
; 82   : 			UINT nElementsToWrite;
; 83   : 
; 84   : 			nElementsToWrite = UINT(__min(nElementsLeft, INT_MAX/sizeof(TYPE)));

  00140	bf aa aa aa 0a	 mov	 edi, 178956970		; 0aaaaaaaH
  00145	3b df		 cmp	 ebx, edi
  00147	0f 42 fb	 cmovb	 edi, ebx

; 85   : 			ar.Write(pData, nElementsToWrite*sizeof(TYPE));

  0014a	8d 34 7f	 lea	 esi, DWORD PTR [edi+edi*2]
  0014d	c1 e6 02	 shl	 esi, 2
  00150	56		 push	 esi
  00151	50		 push	 eax
  00152	e8 00 00 00 00	 call	 ?Write@CArchive@@QAEXPBXI@Z ; CArchive::Write

; 87   : 			pData += nElementsToWrite;

  00157	8b 45 ec	 mov	 eax, DWORD PTR _pData$1$[ebp]
  0015a	8b 4d 08	 mov	 ecx, DWORD PTR _ar$[ebp]
  0015d	03 c6		 add	 eax, esi
  0015f	89 45 ec	 mov	 DWORD PTR _pData$1$[ebp], eax
  00162	2b df		 sub	 ebx, edi
  00164	75 da		 jne	 SHORT $LL38@Serialize

; 88   : 		}
; 89   : 	}

  00166	eb 32		 jmp	 SHORT $LN41@Serialize
$LN43@Serialize:

; 90   : 	else
; 91   : 	{
; 92   : 		TYPE* pData;
; 93   : 		UINT_PTR nElementsLeft;
; 94   : 
; 95   : 		nElementsLeft = nCount;

  00168	be 01 00 00 00	 mov	 esi, 1
  0016d	0f 1f 00	 npad	 3
$LL40@Serialize:

; 98   : 		{
; 99   : 			UINT nElementsToRead;
; 100  : 
; 101  : 			nElementsToRead = UINT(__min(nElementsLeft, INT_MAX/sizeof(TYPE)));

  00170	bf aa aa aa 0a	 mov	 edi, 178956970		; 0aaaaaaaH
  00175	3b f7		 cmp	 esi, edi
  00177	0f 42 fe	 cmovb	 edi, esi

; 102  : 			ar.EnsureRead(pData, nElementsToRead*sizeof(TYPE));

  0017a	8d 1c 7f	 lea	 ebx, DWORD PTR [edi+edi*2]
  0017d	c1 e3 02	 shl	 ebx, 2
; File C:\Program Files (x86)\Microsoft Visual Studio\2019\Community\VC\Tools\MSVC\14.29.30133\atlmfc\include\afx.inl

; 399  : 	UINT nRead=Read(lpBuf, nCount);

  00180	53		 push	 ebx
  00181	50		 push	 eax
  00182	e8 00 00 00 00	 call	 ?Read@CArchive@@QAEIPAXI@Z ; CArchive::Read

; 400  : 	if(nRead!=nCount)

  00187	3b c3		 cmp	 eax, ebx
  00189	75 53		 jne	 SHORT $LN60@Serialize
; File C:\Program Files (x86)\Microsoft Visual Studio\2019\Community\VC\Tools\MSVC\14.29.30133\atlmfc\include\afxtempl.h

; 97   : 		while( nElementsLeft > 0 )

  0018b	8b 45 ec	 mov	 eax, DWORD PTR _pData$1$[ebp]
  0018e	8b 4d 08	 mov	 ecx, DWORD PTR _ar$[ebp]

; 104  : 			pData += nElementsToRead;

  00191	03 c3		 add	 eax, ebx
  00193	89 45 ec	 mov	 DWORD PTR _pData$1$[ebp], eax
  00196	2b f7		 sub	 esi, edi
  00198	75 d6		 jne	 SHORT $LL40@Serialize
$LN41@Serialize:

; 1195 : 			SerializeElements<TYPE>(ar, newData, 1);
; 1196 : 			AddTail(newData[0]);

  0019a	8b 4d f0	 mov	 ecx, DWORD PTR _this$1$[ebp]
  0019d	8d 45 dc	 lea	 eax, DWORD PTR _newData$2[ebp]
  001a0	50		 push	 eax
  001a1	e8 00 00 00 00	 call	 ?AddTail@?$CList@VCTextData@@AAV1@@@QAEPAU__POSITION@@AAVCTextData@@@Z ; CList<CTextData,CTextData &>::AddTail

; 1197 : 		}

  001a6	68 00 00 00 00	 push	 OFFSET ??1CTextData@@QAE@XZ
  001ab	6a 01		 push	 1
  001ad	6a 0c		 push	 12			; 0000000cH
  001af	8d 45 dc	 lea	 eax, DWORD PTR _newData$2[ebp]
  001b2	c7 45 fc ff ff
	ff ff		 mov	 DWORD PTR __$EHRec$[ebp+8], -1
  001b9	50		 push	 eax
  001ba	e8 00 00 00 00	 call	 ??_M@YGXPAXIIP6EX0@Z@Z
  001bf	8b 45 e8	 mov	 eax, DWORD PTR _nNewCount$1$[ebp]
  001c2	85 c0		 test	 eax, eax
  001c4	0f 85 36 ff ff
	ff		 jne	 $LL5@Serialize
$LN69@Serialize:

; 1198 : 	}
; 1199 : }

  001ca	8b 4d f4	 mov	 ecx, DWORD PTR __$EHRec$[ebp]
  001cd	64 89 0d 00 00
	00 00		 mov	 DWORD PTR fs:0, ecx
  001d4	59		 pop	 ecx
  001d5	5f		 pop	 edi
  001d6	5e		 pop	 esi
  001d7	5b		 pop	 ebx
  001d8	8b e5		 mov	 esp, ebp
  001da	5d		 pop	 ebp
  001db	c2 04 00	 ret	 4
$LN60@Serialize:
  001de	6a 00		 push	 0
  001e0	6a 03		 push	 3
  001e2	e8 00 00 00 00	 call	 ?AfxThrowArchiveException@@YGXHPBD@Z ; AfxThrowArchiveException
$LN61@Serialize:

; 68   : 	ENSURE(nCount == 0 || pElements != NULL);

  001e7	e8 00 00 00 00	 call	 ?AfxThrowInvalidArgException@@YGXXZ ; AfxThrowInvalidArgException
$LN87@Serialize:
  001ec	cc		 int	 3
_TEXT	ENDS
;	COMDAT text$x
text$x	SEGMENT
__unwindfunclet$?Serialize@?$CList@VCTextData@@AAV1@@@UAEXAAVCArchive@@@Z$0:
  00000	68 00 00 00 00	 push	 OFFSET ??1CTextData@@QAE@XZ
  00005	6a 01		 push	 1
  00007	6a 0c		 push	 12			; 0000000cH
  00009	8d 45 dc	 lea	 eax, DWORD PTR _newData$2[ebp]
  0000c	50		 push	 eax
  0000d	e8 00 00 00 00	 call	 ??_M@YGXPAXIIP6EX0@Z@Z
  00012	c3		 ret	 0
  00013	cc		 int	 3
  00014	cc		 int	 3
  00015	cc		 int	 3
  00016	cc		 int	 3
  00017	cc		 int	 3
__ehhandler$?Serialize@?$CList@VCTextData@@AAV1@@@UAEXAAVCArchive@@@Z:
  00018	90		 npad	 1
  00019	90		 npad	 1
  0001a	8b 54 24 08	 mov	 edx, DWORD PTR [esp+8]
  0001e	8d 42 0c	 lea	 eax, DWORD PTR [edx+12]
  00021	8b 4a d8	 mov	 ecx, DWORD PTR [edx-40]
  00024	33 c8		 xor	 ecx, eax
  00026	e8 00 00 00 00	 call	 @__security_check_cookie@4
  0002b	b8 00 00 00 00	 mov	 eax, OFFSET __ehfuncinfo$?Serialize@?$CList@VCTextData@@AAV1@@@UAEXAAVCArchive@@@Z
  00030	e9 00 00 00 00	 jmp	 ___CxxFrameHandler3
text$x	ENDS
?Serialize@?$CList@VCTextData@@AAV1@@@UAEXAAVCArchive@@@Z ENDP ; CList<CTextData,CTextData &>::Serialize
; Function compile flags: /Ogtp
; File C:\Program Files (x86)\Microsoft Visual Studio\2019\Community\VC\Tools\MSVC\14.29.30133\atlmfc\include\afxtempl.h
;	COMDAT ??1?$CList@VCTextData@@AAV1@@@UAE@XZ
_TEXT	SEGMENT
__$EHRec$ = -12						; size = 12
??1?$CList@VCTextData@@AAV1@@@UAE@XZ PROC		; CList<CTextData,CTextData &>::~CList<CTextData,CTextData &>, COMDAT
; _this$ = ecx

; 878  : {

  00000	55		 push	 ebp
  00001	8b ec		 mov	 ebp, esp
  00003	6a ff		 push	 -1
  00005	68 00 00 00 00	 push	 __ehhandler$??1?$CList@VCTextData@@AAV1@@@UAE@XZ
  0000a	64 a1 00 00 00
	00		 mov	 eax, DWORD PTR fs:0
  00010	50		 push	 eax
  00011	a1 00 00 00 00	 mov	 eax, DWORD PTR ___security_cookie
  00016	33 c5		 xor	 eax, ebp
  00018	50		 push	 eax
  00019	8d 45 f4	 lea	 eax, DWORD PTR __$EHRec$[ebp]
  0001c	64 a3 00 00 00
	00		 mov	 DWORD PTR fs:0, eax
  00022	c7 01 00 00 00
	00		 mov	 DWORD PTR [ecx], OFFSET ??_7?$CList@VCTextData@@AAV1@@@6B@

; 879  : 	RemoveAll();

  00028	e8 00 00 00 00	 call	 ?RemoveAll@?$CList@VCTextData@@AAV1@@@QAEXXZ ; CList<CTextData,CTextData &>::RemoveAll

; 880  : 	ASSERT(m_nCount == 0);
; 881  : }

  0002d	8b 4d f4	 mov	 ecx, DWORD PTR __$EHRec$[ebp]
  00030	64 89 0d 00 00
	00 00		 mov	 DWORD PTR fs:0, ecx
  00037	59		 pop	 ecx
  00038	8b e5		 mov	 esp, ebp
  0003a	5d		 pop	 ebp
  0003b	c3		 ret	 0
  0003c	cc		 int	 3
  0003d	cc		 int	 3
  0003e	cc		 int	 3
  0003f	cc		 int	 3
  00040	cc		 int	 3
_TEXT	ENDS
;	COMDAT text$x
text$x	SEGMENT
__ehhandler$??1?$CList@VCTextData@@AAV1@@@UAE@XZ:
  00000	90		 npad	 1
  00001	90		 npad	 1
  00002	8b 54 24 08	 mov	 edx, DWORD PTR [esp+8]
  00006	8d 42 0c	 lea	 eax, DWORD PTR [edx+12]
  00009	8b 4a fc	 mov	 ecx, DWORD PTR [edx-4]
  0000c	33 c8		 xor	 ecx, eax
  0000e	e8 00 00 00 00	 call	 @__security_check_cookie@4
  00013	b8 00 00 00 00	 mov	 eax, OFFSET __ehfuncinfo$??1?$CList@VCTextData@@AAV1@@@UAE@XZ
  00018	e9 00 00 00 00	 jmp	 ___CxxFrameHandler3
text$x	ENDS
??1?$CList@VCTextData@@AAV1@@@UAE@XZ ENDP		; CList<CTextData,CTextData &>::~CList<CTextData,CTextData &>
; Function compile flags: /Ogtp
; File C:\Program Files (x86)\Microsoft Visual Studio\2019\Community\VC\Tools\MSVC\14.29.30133\atlmfc\include\afxtempl.h
; File D:\git\src\IBK\IBK_DRFN\ProjSrc\SrcChartEx\ChartOCX\GraphDraw\GraphDataDrawer.cpp
; File C:\Program Files (x86)\Microsoft Visual Studio\2019\Community\VC\Tools\MSVC\14.29.30133\atlmfc\include\afxtempl.h
; File D:\git\src\IBK\IBK_DRFN\ProjSrc\SrcChartEx\ChartOCX\GraphDraw\GraphDataDrawer.cpp
; File C:\Program Files (x86)\Microsoft Visual Studio\2019\Community\VC\Tools\MSVC\14.29.30133\atlmfc\include\afxtempl.h
;	COMDAT ?NewNode@?$CList@VCTextData@@AAV1@@@IAEPAUCNode@1@PAU21@0@Z
_TEXT	SEGMENT
_pPrev$ = 8						; size = 4
_pNext$ = 12						; size = 4
?NewNode@?$CList@VCTextData@@AAV1@@@IAEPAUCNode@1@PAU21@0@Z PROC ; CList<CTextData,CTextData &>::NewNode, COMDAT
; _this$ = ecx

; 901  : {

  00000	55		 push	 ebp
  00001	8b ec		 mov	 ebp, esp
  00003	56		 push	 esi
  00004	8b f1		 mov	 esi, ecx
  00006	57		 push	 edi

; 902  : 	if (m_pNodeFree == NULL)

  00007	83 7e 10 00	 cmp	 DWORD PTR [esi+16], 0
  0000b	75 33		 jne	 SHORT $LN7@NewNode

; 903  : 	{
; 904  : 		// add another block
; 905  : 		CPlex* pNewBlock = CPlex::Create(m_pBlocks, m_nBlockSize,

  0000d	6a 14		 push	 20			; 00000014H
  0000f	ff 76 18	 push	 DWORD PTR [esi+24]
  00012	8d 46 14	 lea	 eax, DWORD PTR [esi+20]
  00015	50		 push	 eax
  00016	e8 00 00 00 00	 call	 ?Create@CPlex@@SGPAU1@AAPAU1@II@Z ; CPlex::Create

; 906  : 				 sizeof(CNode));
; 907  : 
; 908  : 		// chain them into free list
; 909  : 		CNode* pNode = (CNode*) pNewBlock->data();
; 910  : 		// free in reverse order to make it easier to debug
; 911  : 		pNode += m_nBlockSize - 1;

  0001b	8b 56 18	 mov	 edx, DWORD PTR [esi+24]
  0001e	83 c0 08	 add	 eax, 8
  00021	8d 0c 92	 lea	 ecx, DWORD PTR [edx+edx*4]
  00024	8d 04 88	 lea	 eax, DWORD PTR [eax+ecx*4]
  00027	83 c0 ec	 add	 eax, -20		; ffffffecH

; 912  : 		for (INT_PTR i = m_nBlockSize-1; i >= 0; i--, pNode--)

  0002a	83 c2 ff	 add	 edx, -1
  0002d	78 11		 js	 SHORT $LN7@NewNode
  0002f	90		 npad	 1
$LL4@NewNode:

; 913  : 		{
; 914  : 			pNode->pNext = m_pNodeFree;

  00030	8b 4e 10	 mov	 ecx, DWORD PTR [esi+16]
  00033	89 08		 mov	 DWORD PTR [eax], ecx

; 915  : 			m_pNodeFree = pNode;

  00035	89 46 10	 mov	 DWORD PTR [esi+16], eax
  00038	83 e8 14	 sub	 eax, 20			; 00000014H
  0003b	83 ea 01	 sub	 edx, 1
  0003e	79 f0		 jns	 SHORT $LL4@NewNode
$LN7@NewNode:

; 916  : 		}
; 917  : 	}
; 918  : 	ENSURE(m_pNodeFree != NULL);  // we must have something

  00040	8b 7e 10	 mov	 edi, DWORD PTR [esi+16]
  00043	85 ff		 test	 edi, edi
  00045	74 34		 je	 SHORT $LN19@NewNode

; 921  : 	m_pNodeFree = m_pNodeFree->pNext;

  00047	8b 07		 mov	 eax, DWORD PTR [edi]
; File D:\git\src\IBK\IBK_DRFN\ProjSrc\SrcChartEx\ChartOCX\GraphDraw\GraphDataDrawer.cpp

; 165  : {

  00049	8d 4f 08	 lea	 ecx, DWORD PTR [edi+8]
; File C:\Program Files (x86)\Microsoft Visual Studio\2019\Community\VC\Tools\MSVC\14.29.30133\atlmfc\include\afxtempl.h

; 921  : 	m_pNodeFree = m_pNodeFree->pNext;

  0004c	89 46 10	 mov	 DWORD PTR [esi+16], eax

; 922  : 	pNode->pPrev = pPrev;

  0004f	8b 45 08	 mov	 eax, DWORD PTR _pPrev$[ebp]
  00052	89 47 04	 mov	 DWORD PTR [edi+4], eax

; 923  : 	pNode->pNext = pNext;

  00055	8b 45 0c	 mov	 eax, DWORD PTR _pNext$[ebp]
  00058	89 07		 mov	 DWORD PTR [edi], eax

; 924  : 	m_nCount++;

  0005a	ff 46 0c	 inc	 DWORD PTR [esi+12]
; File D:\git\src\IBK\IBK_DRFN\ProjSrc\SrcChartEx\ChartOCX\GraphDraw\GraphDataDrawer.cpp

; 165  : {

  0005d	ff 15 00 00 00
	00		 call	 DWORD PTR __imp_??0?$CStringT@DV?$StrTraitMFC_DLL@DV?$ChTraitsCRT@D@ATL@@@@@ATL@@QAE@XZ
  00063	8d 4f 0c	 lea	 ecx, DWORD PTR [edi+12]
  00066	ff 15 00 00 00
	00		 call	 DWORD PTR __imp_??0?$CStringT@DV?$StrTraitMFC_DLL@DV?$ChTraitsCRT@D@ATL@@@@@ATL@@QAE@XZ

; 164  : 	m_color(RGB(0, 0, 0))

  0006c	c7 47 10 00 00
	00 00		 mov	 DWORD PTR [edi+16], 0
; File C:\Program Files (x86)\Microsoft Visual Studio\2019\Community\VC\Tools\MSVC\14.29.30133\atlmfc\include\afxtempl.h

; 931  : 	return pNode;

  00073	8b c7		 mov	 eax, edi
  00075	5f		 pop	 edi
  00076	5e		 pop	 esi

; 932  : }

  00077	5d		 pop	 ebp
  00078	c2 08 00	 ret	 8
$LN19@NewNode:

; 916  : 		}
; 917  : 	}
; 918  : 	ENSURE(m_pNodeFree != NULL);  // we must have something

  0007b	e8 00 00 00 00	 call	 ?AfxThrowInvalidArgException@@YGXXZ ; AfxThrowInvalidArgException
$LN17@NewNode:
  00080	cc		 int	 3
?NewNode@?$CList@VCTextData@@AAV1@@@IAEPAUCNode@1@PAU21@0@Z ENDP ; CList<CTextData,CTextData &>::NewNode
_TEXT	ENDS
; Function compile flags: /Ogtp
; File C:\Program Files (x86)\Microsoft Visual Studio\2019\Community\VC\Tools\MSVC\14.29.30133\atlmfc\include\afxtempl.h
;	COMDAT ?RemoveAll@?$CList@VCTextData@@AAV1@@@QAEXXZ
_TEXT	SEGMENT
?RemoveAll@?$CList@VCTextData@@AAV1@@@QAEXXZ PROC	; CList<CTextData,CTextData &>::RemoveAll, COMDAT
; _this$ = ecx

; 862  : {

  00000	53		 push	 ebx
  00001	8b d9		 mov	 ebx, ecx
  00003	56		 push	 esi

; 863  : 	ASSERT_VALID(this);
; 864  : 
; 865  : 	// destroy elements
; 866  : 	CNode* pNode;
; 867  : 	for (pNode = m_pNodeHead; pNode != NULL; pNode = pNode->pNext)

  00004	8b 73 04	 mov	 esi, DWORD PTR [ebx+4]
  00007	85 f6		 test	 esi, esi
  00009	74 1e		 je	 SHORT $LN3@RemoveAll
  0000b	57		 push	 edi
  0000c	0f 1f 40 00	 npad	 4
$LL4@RemoveAll:
  00010	8d 4e 0c	 lea	 ecx, DWORD PTR [esi+12]
  00013	ff 15 00 00 00
	00		 call	 DWORD PTR __imp_??1?$CStringT@DV?$StrTraitMFC_DLL@DV?$ChTraitsCRT@D@ATL@@@@@ATL@@QAE@XZ
  00019	8d 4e 08	 lea	 ecx, DWORD PTR [esi+8]
  0001c	ff 15 00 00 00
	00		 call	 DWORD PTR __imp_??1?$CStringT@DV?$StrTraitMFC_DLL@DV?$ChTraitsCRT@D@ATL@@@@@ATL@@QAE@XZ
  00022	8b 36		 mov	 esi, DWORD PTR [esi]
  00024	85 f6		 test	 esi, esi
  00026	75 e8		 jne	 SHORT $LL4@RemoveAll
  00028	5f		 pop	 edi
$LN3@RemoveAll:

; 868  : 		pNode->data.~TYPE();
; 869  : 
; 870  : 	m_nCount = 0;
; 871  : 	m_pNodeHead = m_pNodeTail = m_pNodeFree = NULL;
; 872  : 	m_pBlocks->FreeDataChain();

  00029	8b 4b 14	 mov	 ecx, DWORD PTR [ebx+20]
  0002c	c7 43 0c 00 00
	00 00		 mov	 DWORD PTR [ebx+12], 0
  00033	c7 43 10 00 00
	00 00		 mov	 DWORD PTR [ebx+16], 0
  0003a	c7 43 08 00 00
	00 00		 mov	 DWORD PTR [ebx+8], 0
  00041	c7 43 04 00 00
	00 00		 mov	 DWORD PTR [ebx+4], 0
  00048	e8 00 00 00 00	 call	 ?FreeDataChain@CPlex@@QAEXXZ ; CPlex::FreeDataChain

; 873  : 	m_pBlocks = NULL;

  0004d	5e		 pop	 esi
  0004e	c7 43 14 00 00
	00 00		 mov	 DWORD PTR [ebx+20], 0
  00055	5b		 pop	 ebx

; 874  : }

  00056	c3		 ret	 0
?RemoveAll@?$CList@VCTextData@@AAV1@@@QAEXXZ ENDP	; CList<CTextData,CTextData &>::RemoveAll
_TEXT	ENDS
; Function compile flags: /Ogtp
; File C:\Program Files (x86)\Microsoft Visual Studio\2019\Community\VC\Tools\MSVC\14.29.30133\atlmfc\include\afxtempl.h
; File D:\git\src\IBK\IBK_DRFN\ProjSrc\SrcChartEx\ChartOCX\GraphDraw\GraphDataDrawer.cpp
; File C:\Program Files (x86)\Microsoft Visual Studio\2019\Community\VC\Tools\MSVC\14.29.30133\atlmfc\include\afxtempl.h
; File D:\git\src\IBK\IBK_DRFN\ProjSrc\SrcChartEx\ChartOCX\GraphDraw\GraphDataDrawer.cpp
; File C:\Program Files (x86)\Microsoft Visual Studio\2019\Community\VC\Tools\MSVC\14.29.30133\atlmfc\include\afxtempl.h
;	COMDAT ?AddTail@?$CList@VCTextData@@AAV1@@@QAEPAU__POSITION@@AAVCTextData@@@Z
_TEXT	SEGMENT
$T2 = -20						; size = 4
$T3 = -16						; size = 4
__$EHRec$ = -12						; size = 12
_newElement$ = 8					; size = 4
?AddTail@?$CList@VCTextData@@AAV1@@@QAEPAU__POSITION@@AAVCTextData@@@Z PROC ; CList<CTextData,CTextData &>::AddTail, COMDAT
; _this$ = ecx

; 965  : {

  00000	55		 push	 ebp
  00001	8b ec		 mov	 ebp, esp
  00003	6a ff		 push	 -1
  00005	68 00 00 00 00	 push	 __ehhandler$?AddTail@?$CList@VCTextData@@AAV1@@@QAEPAU__POSITION@@AAVCTextData@@@Z
  0000a	64 a1 00 00 00
	00		 mov	 eax, DWORD PTR fs:0
  00010	50		 push	 eax
  00011	83 ec 08	 sub	 esp, 8
  00014	53		 push	 ebx
  00015	56		 push	 esi
  00016	57		 push	 edi
  00017	a1 00 00 00 00	 mov	 eax, DWORD PTR ___security_cookie
  0001c	33 c5		 xor	 eax, ebp
  0001e	50		 push	 eax
  0001f	8d 45 f4	 lea	 eax, DWORD PTR __$EHRec$[ebp]
  00022	64 a3 00 00 00
	00		 mov	 DWORD PTR fs:0, eax
  00028	8b f1		 mov	 esi, ecx

; 902  : 	if (m_pNodeFree == NULL)

  0002a	83 7e 10 00	 cmp	 DWORD PTR [esi+16], 0

; 966  : 	ASSERT_VALID(this);
; 967  : 
; 968  : 	CNode* pNewNode = NewNode(m_pNodeTail, NULL);

  0002e	8b 5e 08	 mov	 ebx, DWORD PTR [esi+8]

; 902  : 	if (m_pNodeFree == NULL)

  00031	75 32		 jne	 SHORT $LN11@AddTail

; 903  : 	{
; 904  : 		// add another block
; 905  : 		CPlex* pNewBlock = CPlex::Create(m_pBlocks, m_nBlockSize,

  00033	6a 14		 push	 20			; 00000014H
  00035	ff 76 18	 push	 DWORD PTR [esi+24]
  00038	8d 46 14	 lea	 eax, DWORD PTR [esi+20]
  0003b	50		 push	 eax
  0003c	e8 00 00 00 00	 call	 ?Create@CPlex@@SGPAU1@AAPAU1@II@Z ; CPlex::Create

; 906  : 				 sizeof(CNode));
; 907  : 
; 908  : 		// chain them into free list
; 909  : 		CNode* pNode = (CNode*) pNewBlock->data();
; 910  : 		// free in reverse order to make it easier to debug
; 911  : 		pNode += m_nBlockSize - 1;

  00041	8b 56 18	 mov	 edx, DWORD PTR [esi+24]
  00044	8d 0c 95 fd ff
	ff ff		 lea	 ecx, DWORD PTR [edx*4-3]
  0004b	03 ca		 add	 ecx, edx

; 912  : 		for (INT_PTR i = m_nBlockSize-1; i >= 0; i--, pNode--)

  0004d	83 c2 ff	 add	 edx, -1
  00050	8d 0c 88	 lea	 ecx, DWORD PTR [eax+ecx*4]
  00053	78 10		 js	 SHORT $LN11@AddTail
$LL8@AddTail:

; 913  : 		{
; 914  : 			pNode->pNext = m_pNodeFree;

  00055	8b 46 10	 mov	 eax, DWORD PTR [esi+16]
  00058	89 01		 mov	 DWORD PTR [ecx], eax

; 915  : 			m_pNodeFree = pNode;

  0005a	89 4e 10	 mov	 DWORD PTR [esi+16], ecx
  0005d	83 e9 14	 sub	 ecx, 20			; 00000014H
  00060	83 ea 01	 sub	 edx, 1
  00063	79 f0		 jns	 SHORT $LL8@AddTail
$LN11@AddTail:

; 916  : 		}
; 917  : 	}
; 918  : 	ENSURE(m_pNodeFree != NULL);  // we must have something

  00065	8b 7e 10	 mov	 edi, DWORD PTR [esi+16]
  00068	85 ff		 test	 edi, edi
  0006a	0f 84 bd 00 00
	00		 je	 $LN38@AddTail

; 919  : 
; 920  : 	CList::CNode* pNode = m_pNodeFree;
; 921  : 	m_pNodeFree = m_pNodeFree->pNext;

  00070	8b 07		 mov	 eax, DWORD PTR [edi]
  00072	89 46 10	 mov	 DWORD PTR [esi+16], eax

; 922  : 	pNode->pPrev = pPrev;

  00075	89 5f 04	 mov	 DWORD PTR [edi+4], ebx

; 925  : 	ASSERT(m_nCount > 0);  // make sure we don't overflow
; 926  : 
; 927  : #pragma push_macro("new")
; 928  : #undef new
; 929  : 	::new( (void*)( &pNode->data ) ) TYPE;

  00078	8d 5f 08	 lea	 ebx, DWORD PTR [edi+8]
  0007b	c7 07 00 00 00
	00		 mov	 DWORD PTR [edi], 0
; File D:\git\src\IBK\IBK_DRFN\ProjSrc\SrcChartEx\ChartOCX\GraphDraw\GraphDataDrawer.cpp

; 165  : {

  00081	8b cb		 mov	 ecx, ebx
; File C:\Program Files (x86)\Microsoft Visual Studio\2019\Community\VC\Tools\MSVC\14.29.30133\atlmfc\include\afxtempl.h

; 924  : 	m_nCount++;

  00083	ff 46 0c	 inc	 DWORD PTR [esi+12]
; File D:\git\src\IBK\IBK_DRFN\ProjSrc\SrcChartEx\ChartOCX\GraphDraw\GraphDataDrawer.cpp

; 165  : {

  00086	ff 15 00 00 00
	00		 call	 DWORD PTR __imp_??0?$CStringT@DV?$StrTraitMFC_DLL@DV?$ChTraitsCRT@D@ATL@@@@@ATL@@QAE@XZ
  0008c	8d 4b 04	 lea	 ecx, DWORD PTR [ebx+4]
  0008f	ff 15 00 00 00
	00		 call	 DWORD PTR __imp_??0?$CStringT@DV?$StrTraitMFC_DLL@DV?$ChTraitsCRT@D@ATL@@@@@ATL@@QAE@XZ

; 154  : 	if(this == &data)

  00095	8b 45 08	 mov	 eax, DWORD PTR _newElement$[ebp]

; 164  : 	m_color(RGB(0, 0, 0))

  00098	c7 43 08 00 00
	00 00		 mov	 DWORD PTR [ebx+8], 0

; 154  : 	if(this == &data)

  0009f	3b d8		 cmp	 ebx, eax
  000a1	74 63		 je	 SHORT $LN18@AddTail

; 199  : 	return m_strTitle;

  000a3	50		 push	 eax
  000a4	8d 4d f0	 lea	 ecx, DWORD PTR $T3[ebp]
  000a7	ff 15 00 00 00
	00		 call	 DWORD PTR __imp_??0?$CStringT@DV?$StrTraitMFC_DLL@DV?$ChTraitsCRT@D@ATL@@@@@ATL@@QAE@ABV01@@Z

; 157  : 	m_strTitle = data.GetTitle();

  000ad	8d 45 f0	 lea	 eax, DWORD PTR $T3[ebp]
  000b0	c7 45 fc 00 00
	00 00		 mov	 DWORD PTR __$EHRec$[ebp+8], 0
  000b7	50		 push	 eax
  000b8	8b cb		 mov	 ecx, ebx
  000ba	ff 15 00 00 00
	00		 call	 DWORD PTR __imp_??4?$CStringT@DV?$StrTraitMFC_DLL@DV?$ChTraitsCRT@D@ATL@@@@@ATL@@QAEAAV01@ABV01@@Z
  000c0	8d 4d f0	 lea	 ecx, DWORD PTR $T3[ebp]
  000c3	c7 45 fc ff ff
	ff ff		 mov	 DWORD PTR __$EHRec$[ebp+8], -1
  000ca	ff 15 00 00 00
	00		 call	 DWORD PTR __imp_??1?$CStringT@DV?$StrTraitMFC_DLL@DV?$ChTraitsCRT@D@ATL@@@@@ATL@@QAE@XZ

; 204  : 	return m_strData;

  000d0	8b 45 08	 mov	 eax, DWORD PTR _newElement$[ebp]
  000d3	8d 4d ec	 lea	 ecx, DWORD PTR $T2[ebp]
  000d6	83 c0 04	 add	 eax, 4
  000d9	50		 push	 eax
  000da	ff 15 00 00 00
	00		 call	 DWORD PTR __imp_??0?$CStringT@DV?$StrTraitMFC_DLL@DV?$ChTraitsCRT@D@ATL@@@@@ATL@@QAE@ABV01@@Z

; 158  : 	m_strData = data.GetData();

  000e0	8d 45 ec	 lea	 eax, DWORD PTR $T2[ebp]
  000e3	c7 45 fc 01 00
	00 00		 mov	 DWORD PTR __$EHRec$[ebp+8], 1
  000ea	50		 push	 eax
  000eb	8d 4b 04	 lea	 ecx, DWORD PTR [ebx+4]
  000ee	ff 15 00 00 00
	00		 call	 DWORD PTR __imp_??4?$CStringT@DV?$StrTraitMFC_DLL@DV?$ChTraitsCRT@D@ATL@@@@@ATL@@QAEAAV01@ABV01@@Z
  000f4	8d 4d ec	 lea	 ecx, DWORD PTR $T2[ebp]
  000f7	ff 15 00 00 00
	00		 call	 DWORD PTR __imp_??1?$CStringT@DV?$StrTraitMFC_DLL@DV?$ChTraitsCRT@D@ATL@@@@@ATL@@QAE@XZ

; 159  : 	m_color = data.GetColor();

  000fd	8b 4d 08	 mov	 ecx, DWORD PTR _newElement$[ebp]
  00100	8b 41 08	 mov	 eax, DWORD PTR [ecx+8]
  00103	89 43 08	 mov	 DWORD PTR [ebx+8], eax
$LN18@AddTail:
; File C:\Program Files (x86)\Microsoft Visual Studio\2019\Community\VC\Tools\MSVC\14.29.30133\atlmfc\include\afxtempl.h

; 970  : 	if (m_pNodeTail != NULL)

  00106	8b 46 08	 mov	 eax, DWORD PTR [esi+8]
  00109	85 c0		 test	 eax, eax
  0010b	74 04		 je	 SHORT $LN2@AddTail

; 971  : 		m_pNodeTail->pNext = pNewNode;

  0010d	89 38		 mov	 DWORD PTR [eax], edi
  0010f	eb 03		 jmp	 SHORT $LN3@AddTail
$LN2@AddTail:

; 972  : 	else
; 973  : 		m_pNodeHead = pNewNode;

  00111	89 7e 04	 mov	 DWORD PTR [esi+4], edi
$LN3@AddTail:

; 974  : 	m_pNodeTail = pNewNode;

  00114	89 7e 08	 mov	 DWORD PTR [esi+8], edi

; 975  : 	return (POSITION) pNewNode;

  00117	8b c7		 mov	 eax, edi

; 976  : }

  00119	8b 4d f4	 mov	 ecx, DWORD PTR __$EHRec$[ebp]
  0011c	64 89 0d 00 00
	00 00		 mov	 DWORD PTR fs:0, ecx
  00123	59		 pop	 ecx
  00124	5f		 pop	 edi
  00125	5e		 pop	 esi
  00126	5b		 pop	 ebx
  00127	8b e5		 mov	 esp, ebp
  00129	5d		 pop	 ebp
  0012a	c2 04 00	 ret	 4
$LN38@AddTail:

; 918  : 	ENSURE(m_pNodeFree != NULL);  // we must have something

  0012d	e8 00 00 00 00	 call	 ?AfxThrowInvalidArgException@@YGXXZ ; AfxThrowInvalidArgException
$LN36@AddTail:
  00132	cc		 int	 3
_TEXT	ENDS
;	COMDAT text$x
text$x	SEGMENT
__unwindfunclet$?AddTail@?$CList@VCTextData@@AAV1@@@QAEPAU__POSITION@@AAVCTextData@@@Z$0:
  00000	8d 4d f0	 lea	 ecx, DWORD PTR $T3[ebp]
  00003	ff 25 00 00 00
	00		 jmp	 DWORD PTR __imp_??1?$CStringT@DV?$StrTraitMFC_DLL@DV?$ChTraitsCRT@D@ATL@@@@@ATL@@QAE@XZ
__unwindfunclet$?AddTail@?$CList@VCTextData@@AAV1@@@QAEPAU__POSITION@@AAVCTextData@@@Z$1:
  00009	8d 4d ec	 lea	 ecx, DWORD PTR $T2[ebp]
  0000c	ff 25 00 00 00
	00		 jmp	 DWORD PTR __imp_??1?$CStringT@DV?$StrTraitMFC_DLL@DV?$ChTraitsCRT@D@ATL@@@@@ATL@@QAE@XZ
  00012	cc		 int	 3
  00013	cc		 int	 3
  00014	cc		 int	 3
  00015	cc		 int	 3
  00016	cc		 int	 3
__ehhandler$?AddTail@?$CList@VCTextData@@AAV1@@@QAEPAU__POSITION@@AAVCTextData@@@Z:
  00017	90		 npad	 1
  00018	90		 npad	 1
  00019	8b 54 24 08	 mov	 edx, DWORD PTR [esp+8]
  0001d	8d 42 0c	 lea	 eax, DWORD PTR [edx+12]
  00020	8b 4a e8	 mov	 ecx, DWORD PTR [edx-24]
  00023	33 c8		 xor	 ecx, eax
  00025	e8 00 00 00 00	 call	 @__security_check_cookie@4
  0002a	b8 00 00 00 00	 mov	 eax, OFFSET __ehfuncinfo$?AddTail@?$CList@VCTextData@@AAV1@@@QAEPAU__POSITION@@AAVCTextData@@@Z
  0002f	e9 00 00 00 00	 jmp	 ___CxxFrameHandler3
text$x	ENDS
?AddTail@?$CList@VCTextData@@AAV1@@@QAEPAU__POSITION@@AAVCTextData@@@Z ENDP ; CList<CTextData,CTextData &>::AddTail
; Function compile flags: /Ogtp
; File C:\Program Files (x86)\Microsoft Visual Studio\2019\Community\VC\Tools\MSVC\14.29.30133\atlmfc\include\afxtempl.h
;	COMDAT ??0?$CList@VCTextData@@AAV1@@@QAE@H@Z
_TEXT	SEGMENT
_nBlockSize$ = 8					; size = 4
??0?$CList@VCTextData@@AAV1@@@QAE@H@Z PROC		; CList<CTextData,CTextData &>::CList<CTextData,CTextData &>, COMDAT
; _this$ = ecx

; 851  : {

  00000	55		 push	 ebp
  00001	8b ec		 mov	 ebp, esp

; 852  : 	ASSERT(nBlockSize > 0);
; 853  : 
; 854  : 	m_nCount = 0;
; 855  : 	m_pNodeHead = m_pNodeTail = m_pNodeFree = NULL;
; 856  : 	m_pBlocks = NULL;
; 857  : 	m_nBlockSize = nBlockSize;

  00003	8b 45 08	 mov	 eax, DWORD PTR _nBlockSize$[ebp]
  00006	89 41 18	 mov	 DWORD PTR [ecx+24], eax

; 858  : }

  00009	8b c1		 mov	 eax, ecx
  0000b	c7 01 00 00 00
	00		 mov	 DWORD PTR [ecx], OFFSET ??_7?$CList@VCTextData@@AAV1@@@6B@
  00011	c7 41 0c 00 00
	00 00		 mov	 DWORD PTR [ecx+12], 0
  00018	c7 41 10 00 00
	00 00		 mov	 DWORD PTR [ecx+16], 0
  0001f	c7 41 08 00 00
	00 00		 mov	 DWORD PTR [ecx+8], 0
  00026	c7 41 04 00 00
	00 00		 mov	 DWORD PTR [ecx+4], 0
  0002d	c7 41 14 00 00
	00 00		 mov	 DWORD PTR [ecx+20], 0
  00034	5d		 pop	 ebp
  00035	c2 04 00	 ret	 4
??0?$CList@VCTextData@@AAV1@@@QAE@H@Z ENDP		; CList<CTextData,CTextData &>::CList<CTextData,CTextData &>
_TEXT	ENDS
; Function compile flags: /Ogtp
; File C:\Program Files (x86)\Microsoft Visual Studio\2019\Community\VC\Tools\MSVC\14.29.30133\atlmfc\include\afxtempl.h
;	COMDAT ?FindIndex@?$CList@NN@@QBEPAU__POSITION@@H@Z
_TEXT	SEGMENT
_nIndex$ = 8						; size = 4
?FindIndex@?$CList@NN@@QBEPAU__POSITION@@H@Z PROC	; CList<double,double>::FindIndex, COMDAT
; _this$ = ecx

; 1130 : {

  00000	55		 push	 ebp
  00001	8b ec		 mov	 ebp, esp

; 1131 : 	ASSERT_VALID(this);
; 1132 : 
; 1133 : 	if (nIndex >= m_nCount || nIndex < 0)

  00003	8b 55 08	 mov	 edx, DWORD PTR _nIndex$[ebp]
  00006	3b 51 0c	 cmp	 edx, DWORD PTR [ecx+12]
  00009	7d 14		 jge	 SHORT $LN5@FindIndex
  0000b	85 d2		 test	 edx, edx
  0000d	78 10		 js	 SHORT $LN5@FindIndex

; 1135 : 
; 1136 : 	CNode* pNode = m_pNodeHead;

  0000f	8b 41 04	 mov	 eax, DWORD PTR [ecx+4]

; 1137 : 	while (nIndex--)

  00012	74 0d		 je	 SHORT $LN1@FindIndex
$LL2@FindIndex:

; 1138 : 	{
; 1139 : 		ASSERT(AfxIsValidAddress(pNode, sizeof(CNode)));
; 1140 : 		pNode = pNode->pNext;

  00014	8b 00		 mov	 eax, DWORD PTR [eax]
  00016	83 ea 01	 sub	 edx, 1
  00019	75 f9		 jne	 SHORT $LL2@FindIndex

; 1141 : 	}
; 1142 : 	return (POSITION) pNode;
; 1143 : }

  0001b	5d		 pop	 ebp
  0001c	c2 04 00	 ret	 4
$LN5@FindIndex:

; 1134 : 		return NULL;  // went too far

  0001f	33 c0		 xor	 eax, eax
$LN1@FindIndex:

; 1141 : 	}
; 1142 : 	return (POSITION) pNode;
; 1143 : }

  00021	5d		 pop	 ebp
  00022	c2 04 00	 ret	 4
?FindIndex@?$CList@NN@@QBEPAU__POSITION@@H@Z ENDP	; CList<double,double>::FindIndex
_TEXT	ENDS
; Function compile flags: /Ogtp
;	COMDAT ??4CGraphDrawer@@QAEAAV0@$$QAV0@@Z
_TEXT	SEGMENT
___that$ = 8						; size = 4
??4CGraphDrawer@@QAEAAV0@$$QAV0@@Z PROC			; CGraphDrawer::operator=, COMDAT
; _this$ = ecx
  00000	8b c1		 mov	 eax, ecx
  00002	c2 04 00	 ret	 4
??4CGraphDrawer@@QAEAAV0@$$QAV0@@Z ENDP			; CGraphDrawer::operator=
_TEXT	ENDS
; Function compile flags: /Ogtp
;	COMDAT ??4CGraphDrawer@@QAEAAV0@ABV0@@Z
_TEXT	SEGMENT
___that$ = 8						; size = 4
??4CGraphDrawer@@QAEAAV0@ABV0@@Z PROC			; CGraphDrawer::operator=, COMDAT
; _this$ = ecx
  00000	8b c1		 mov	 eax, ecx
  00002	c2 04 00	 ret	 4
??4CGraphDrawer@@QAEAAV0@ABV0@@Z ENDP			; CGraphDrawer::operator=
_TEXT	ENDS
; Function compile flags: /Ogtp
; File D:\git\src\IBK\IBK_DRFN\ProjSrc\SrcChartEx\ChartOCX\GraphDraw\GraphDataDrawer.cpp
;	COMDAT ?DrawGraphDatas@CGraphDataDrawer@@QAEXPAVCDC@@ABVCRect@@ABVCDisplayAttributes@@ABVCDrawingGraphData@@ABVCSubGraphData@@@Z
_TEXT	SEGMENT
$T2 = -112						; size = 44
_pricesInView$ = -68					; size = 40
$T3 = -28						; size = 16
__$EHRec$ = -12						; size = 12
_pDC$ = 8						; size = 4
_realRegion$ = 12					; size = 4
_displayAttributes$ = 16				; size = 4
_drawingGraphData$ = 20					; size = 4
$T4 = 24						; size = 4
_subGraphData$ = 24					; size = 4
?DrawGraphDatas@CGraphDataDrawer@@QAEXPAVCDC@@ABVCRect@@ABVCDisplayAttributes@@ABVCDrawingGraphData@@ABVCSubGraphData@@@Z PROC ; CGraphDataDrawer::DrawGraphDatas, COMDAT
; _this$ = ecx

; 1231 : {

  00000	55		 push	 ebp
  00001	8b ec		 mov	 ebp, esp
  00003	6a ff		 push	 -1
  00005	68 00 00 00 00	 push	 __ehhandler$?DrawGraphDatas@CGraphDataDrawer@@QAEXPAVCDC@@ABVCRect@@ABVCDisplayAttributes@@ABVCDrawingGraphData@@ABVCSubGraphData@@@Z
  0000a	64 a1 00 00 00
	00		 mov	 eax, DWORD PTR fs:0
  00010	50		 push	 eax
  00011	83 ec 64	 sub	 esp, 100		; 00000064H
  00014	53		 push	 ebx
  00015	56		 push	 esi
  00016	57		 push	 edi
  00017	a1 00 00 00 00	 mov	 eax, DWORD PTR ___security_cookie
  0001c	33 c5		 xor	 eax, ebp
  0001e	50		 push	 eax
  0001f	8d 45 f4	 lea	 eax, DWORD PTR __$EHRec$[ebp]
  00022	64 a3 00 00 00
	00		 mov	 DWORD PTR fs:0, eax
  00028	8b d9		 mov	 ebx, ecx
  0002a	0f 57 c0	 xorps	 xmm0, xmm0

; 49   : 	m_nDecimalDownCount(0),

  0002d	c7 45 cc 00 00
	00 00		 mov	 DWORD PTR _pricesInView$[ebp+16], 0

; 50   : 	m_dPipSize(0.0)
; 51   : {

  00034	8d 4d dc	 lea	 ecx, DWORD PTR _pricesInView$[ebp+32]
  00037	f2 0f 11 45 d4	 movsd	 QWORD PTR _pricesInView$[ebp+24], xmm0
  0003c	0f 11 45 bc	 movups	 XMMWORD PTR _pricesInView$[ebp], xmm0
  00040	ff 15 00 00 00
	00		 call	 DWORD PTR __imp_??0?$CStringT@DV?$StrTraitMFC_DLL@DV?$ChTraitsCRT@D@ATL@@@@@ATL@@QAE@XZ
  00046	8d 4d e0	 lea	 ecx, DWORD PTR _pricesInView$[ebp+36]
  00049	ff 15 00 00 00
	00		 call	 DWORD PTR __imp_??0?$CStringT@DV?$StrTraitMFC_DLL@DV?$ChTraitsCRT@D@ATL@@@@@ATL@@QAE@XZ

; 1232 : 	// ""
; 1233 : 	CPrices pricesInView;
; 1234 : 	m_dataInGraphRegionDrawer.DrawData(pDC, realRegion, displayAttributes, drawingGraphData, subGraphData, pricesInView);

  0004f	8b 7d 18	 mov	 edi, DWORD PTR _subGraphData$[ebp]
  00052	8d 45 bc	 lea	 eax, DWORD PTR _pricesInView$[ebp]
  00055	8b 75 14	 mov	 esi, DWORD PTR _drawingGraphData$[ebp]
  00058	8b cb		 mov	 ecx, ebx
  0005a	50		 push	 eax
  0005b	57		 push	 edi
  0005c	56		 push	 esi
  0005d	ff 75 10	 push	 DWORD PTR _displayAttributes$[ebp]
  00060	c7 45 fc 00 00
	00 00		 mov	 DWORD PTR __$EHRec$[ebp+8], 0
  00067	ff 75 0c	 push	 DWORD PTR _realRegion$[ebp]
  0006a	ff 75 08	 push	 DWORD PTR _pDC$[ebp]
  0006d	e8 00 00 00 00	 call	 ?DrawData@CDataInGraphRegionDrawer@@QAEXPAVCDC@@ABVCRect@@ABVCDisplayAttributes@@ABVCDrawingGraphData@@ABVCSubGraphData@@AAVCPrices@@@Z ; CDataInGraphRegionDrawer::DrawData

; 1235 : 
; 1236 : 	// (2007/2/22 - Seung-Won, Bae) Support Base Line Price in Compare Line
; 1237 : 	if( subGraphData.GetType() == CGraphBaseData::Line_Type && subGraphData.GetStyle().GetGraphLineStyle() == CGraphBaseData::ComparisonLine)

  00072	8b cf		 mov	 ecx, edi
  00074	ff 15 00 00 00
	00		 call	 DWORD PTR __imp_?GetType@CSubGraphDataBase@@QBE?AW4GRAPHTYPE@CGraphBaseData@@XZ
  0007a	83 f8 01	 cmp	 eax, 1
  0007d	75 2d		 jne	 SHORT $LN2@DrawGraphD
  0007f	8d 45 18	 lea	 eax, DWORD PTR $T4[ebp]
  00082	8b cf		 mov	 ecx, edi
  00084	50		 push	 eax
  00085	ff 15 00 00 00
	00		 call	 DWORD PTR __imp_?GetStyle@CSubGraphDataBase@@QBE?AVCGraphStyle@@XZ
  0008b	83 38 06	 cmp	 DWORD PTR [eax], 6
  0008e	75 1c		 jne	 SHORT $LN2@DrawGraphD

; 1238 : 	{
; 1239 : 		CPacket* pPacket = m_dataInRightScaleRegionDrawer.GetPacket( drawingGraphData);

  00090	56		 push	 esi
  00091	8d 4b 04	 lea	 ecx, DWORD PTR [ebx+4]
  00094	e8 00 00 00 00	 call	 ?GetPacket@CDataInRightScaleRegionDrawer@@QBEPAVCPacket@@ABVCDrawingGraphData@@@Z ; CDataInRightScaleRegionDrawer::GetPacket

; 1240 : 		if( pPacket) pricesInView.SetPrev( pPacket->GetStandardValue());

  00099	85 c0		 test	 eax, eax
  0009b	74 2d		 je	 SHORT $LN5@DrawGraphD
  0009d	6a 00		 push	 0
  0009f	8b c8		 mov	 ecx, eax
  000a1	ff 15 00 00 00
	00		 call	 DWORD PTR __imp_?GetStandardValue@CPacket@@QAENH@Z

; 65   : 	m_dPrevPrice = dPrice;

  000a7	dd 5d bc	 fstp	 QWORD PTR _pricesInView$[ebp]

; 1241 : 	}

  000aa	eb 1e		 jmp	 SHORT $LN5@DrawGraphD
$LN2@DrawGraphD:

; 1242 : 	// (2007/2/22 - Seung-Won, Bae) Do not support the Up/Down Info, But only Candle Graph
; 1243 : 	else if( subGraphData.GetType() != CGraphBaseData::Bong_Type) pricesInView.SetPrev( pricesInView.GetCur() - 1);

  000ac	8b cf		 mov	 ecx, edi
  000ae	ff 15 00 00 00
	00		 call	 DWORD PTR __imp_?GetType@CSubGraphDataBase@@QBE?AW4GRAPHTYPE@CGraphBaseData@@XZ
  000b4	85 c0		 test	 eax, eax
  000b6	74 12		 je	 SHORT $LN5@DrawGraphD
  000b8	f2 0f 10 45 c4	 movsd	 xmm0, QWORD PTR _pricesInView$[ebp+8]
  000bd	f2 0f 5c 05 00
	00 00 00	 subsd	 xmm0, QWORD PTR __real@3ff0000000000000

; 65   : 	m_dPrevPrice = dPrice;

  000c5	f2 0f 11 45 bc	 movsd	 QWORD PTR _pricesInView$[ebp], xmm0
$LN5@DrawGraphD:

; 1244 : 
; 1245 : 	// Y Scale    - ojtaso (20070807)
; 1246 : 	if(drawingGraphData.GetTextDrawing() && drawingGraphData.GetDisplayDataVertMinMax().IsInitialized())

  000ca	83 be e4 00 00
	00 00		 cmp	 DWORD PTR [esi+228], 0
  000d1	74 3a		 je	 SHORT $LN6@DrawGraphD
  000d3	8d 45 e4	 lea	 eax, DWORD PTR $T3[ebp]
  000d6	8b ce		 mov	 ecx, esi
  000d8	50		 push	 eax
  000d9	e8 00 00 00 00	 call	 ?GetDisplayDataVertMinMax@CDrawingGraphData@@QBE?AVCDisplayDataMinMax@@XZ ; CDrawingGraphData::GetDisplayDataVertMinMax
  000de	8b c8		 mov	 ecx, eax
  000e0	ff 15 00 00 00
	00		 call	 DWORD PTR __imp_?IsInitialized@CDisplayDataMinMax@@QBEHXZ
  000e6	85 c0		 test	 eax, eax
  000e8	74 23		 je	 SHORT $LN6@DrawGraphD

; 1247 : 	{
; 1248 : 		// "    ()"
; 1249 : 		m_dataInRightScaleRegionDrawer.DrawData(pDC, realRegion, displayAttributes, drawingGraphData, subGraphData.GetColor(), pricesInView);

  000ea	8d 45 bc	 lea	 eax, DWORD PTR _pricesInView$[ebp]
  000ed	8b cf		 mov	 ecx, edi
  000ef	50		 push	 eax
  000f0	8d 45 90	 lea	 eax, DWORD PTR $T2[ebp]
  000f3	50		 push	 eax
  000f4	ff 15 00 00 00
	00		 call	 DWORD PTR __imp_?GetColor@CSubGraphDataBase@@QBE?AVCGraphColor@@XZ
  000fa	50		 push	 eax
  000fb	56		 push	 esi
  000fc	ff 75 10	 push	 DWORD PTR _displayAttributes$[ebp]
  000ff	8d 4b 04	 lea	 ecx, DWORD PTR [ebx+4]
  00102	ff 75 0c	 push	 DWORD PTR _realRegion$[ebp]
  00105	ff 75 08	 push	 DWORD PTR _pDC$[ebp]
  00108	e8 00 00 00 00	 call	 ?DrawData@CDataInRightScaleRegionDrawer@@QAEXPAVCDC@@ABVCRect@@ABVCDisplayAttributes@@ABVCDrawingGraphData@@ABVCGraphColor@@ABVCPrices@@@Z ; CDataInRightScaleRegionDrawer::DrawData
$LN6@DrawGraphD:
  0010d	8d 4d e0	 lea	 ecx, DWORD PTR _pricesInView$[ebp+36]
  00110	ff 15 00 00 00
	00		 call	 DWORD PTR __imp_??1?$CStringT@DV?$StrTraitMFC_DLL@DV?$ChTraitsCRT@D@ATL@@@@@ATL@@QAE@XZ
  00116	8d 4d dc	 lea	 ecx, DWORD PTR _pricesInView$[ebp+32]
  00119	ff 15 00 00 00
	00		 call	 DWORD PTR __imp_??1?$CStringT@DV?$StrTraitMFC_DLL@DV?$ChTraitsCRT@D@ATL@@@@@ATL@@QAE@XZ

; 1250 : 	}
; 1251 : }

  0011f	8b 4d f4	 mov	 ecx, DWORD PTR __$EHRec$[ebp]
  00122	64 89 0d 00 00
	00 00		 mov	 DWORD PTR fs:0, ecx
  00129	59		 pop	 ecx
  0012a	5f		 pop	 edi
  0012b	5e		 pop	 esi
  0012c	5b		 pop	 ebx
  0012d	8b e5		 mov	 esp, ebp
  0012f	5d		 pop	 ebp
  00130	c2 14 00	 ret	 20			; 00000014H
_TEXT	ENDS
;	COMDAT text$x
text$x	SEGMENT
__unwindfunclet$?DrawGraphDatas@CGraphDataDrawer@@QAEXPAVCDC@@ABVCRect@@ABVCDisplayAttributes@@ABVCDrawingGraphData@@ABVCSubGraphData@@@Z$0:
  00000	8d 4d bc	 lea	 ecx, DWORD PTR _pricesInView$[ebp]
  00003	e9 00 00 00 00	 jmp	 ??1CPrices@@QAE@XZ
  00008	cc		 int	 3
  00009	cc		 int	 3
  0000a	cc		 int	 3
  0000b	cc		 int	 3
  0000c	cc		 int	 3
__ehhandler$?DrawGraphDatas@CGraphDataDrawer@@QAEXPAVCDC@@ABVCRect@@ABVCDisplayAttributes@@ABVCDrawingGraphData@@ABVCSubGraphData@@@Z:
  0000d	90		 npad	 1
  0000e	90		 npad	 1
  0000f	8b 54 24 08	 mov	 edx, DWORD PTR [esp+8]
  00013	8d 42 0c	 lea	 eax, DWORD PTR [edx+12]
  00016	8b 4a 8c	 mov	 ecx, DWORD PTR [edx-116]
  00019	33 c8		 xor	 ecx, eax
  0001b	e8 00 00 00 00	 call	 @__security_check_cookie@4
  00020	b8 00 00 00 00	 mov	 eax, OFFSET __ehfuncinfo$?DrawGraphDatas@CGraphDataDrawer@@QAEXPAVCDC@@ABVCRect@@ABVCDisplayAttributes@@ABVCDrawingGraphData@@ABVCSubGraphData@@@Z
  00025	e9 00 00 00 00	 jmp	 ___CxxFrameHandler3
text$x	ENDS
?DrawGraphDatas@CGraphDataDrawer@@QAEXPAVCDC@@ABVCRect@@ABVCDisplayAttributes@@ABVCDrawingGraphData@@ABVCSubGraphData@@@Z ENDP ; CGraphDataDrawer::DrawGraphDatas
; Function compile flags: /Ogtp
; File D:\git\src\IBK\IBK_DRFN\ProjSrc\SrcChartEx\ChartOCX\GraphDraw\GraphDataDrawer.cpp
;	COMDAT ?GetPacketAndDataEnd@CDataInRightScaleRegionDrawer@@ABE_NABVCTextInRightScaleRegionDrawer@@AAPAVCPacket@@AAH@Z
_TEXT	SEGMENT
$T2 = -16						; size = 4
__$EHRec$ = -12						; size = 12
_textData$ = 8						; size = 4
$T3 = 11						; size = 1
_pPacket$ = 12						; size = 4
_nRealDataEnd$ = 16					; size = 4
?GetPacketAndDataEnd@CDataInRightScaleRegionDrawer@@ABE_NABVCTextInRightScaleRegionDrawer@@AAPAVCPacket@@AAH@Z PROC ; CDataInRightScaleRegionDrawer::GetPacketAndDataEnd, COMDAT
; _this$ = ecx

; 1216 : {

  00000	55		 push	 ebp
  00001	8b ec		 mov	 ebp, esp
  00003	6a ff		 push	 -1
  00005	68 00 00 00 00	 push	 __ehhandler$?GetPacketAndDataEnd@CDataInRightScaleRegionDrawer@@ABE_NABVCTextInRightScaleRegionDrawer@@AAPAVCPacket@@AAH@Z
  0000a	64 a1 00 00 00
	00		 mov	 eax, DWORD PTR fs:0
  00010	50		 push	 eax
  00011	51		 push	 ecx
  00012	53		 push	 ebx
  00013	56		 push	 esi
  00014	57		 push	 edi
  00015	a1 00 00 00 00	 mov	 eax, DWORD PTR ___security_cookie
  0001a	33 c5		 xor	 eax, ebp
  0001c	50		 push	 eax
  0001d	8d 45 f4	 lea	 eax, DWORD PTR __$EHRec$[ebp]
  00020	64 a3 00 00 00
	00		 mov	 DWORD PTR fs:0, eax

; 1217 : 	if(!textData.IsTextDrawing())

  00026	8b 7d 08	 mov	 edi, DWORD PTR _textData$[ebp]
  00029	8b cf		 mov	 ecx, edi
  0002b	e8 00 00 00 00	 call	 ?IsTextDrawing@CTextInRightScaleRegionDrawer@@QBE_NXZ ; CTextInRightScaleRegionDrawer::IsTextDrawing
  00030	84 c0		 test	 al, al
  00032	75 14		 jne	 SHORT $LN2@GetPacketA

; 1223 : }

  00034	8b 4d f4	 mov	 ecx, DWORD PTR __$EHRec$[ebp]
  00037	64 89 0d 00 00
	00 00		 mov	 DWORD PTR fs:0, ecx
  0003e	59		 pop	 ecx
  0003f	5f		 pop	 edi
  00040	5e		 pop	 esi
  00041	5b		 pop	 ebx
  00042	8b e5		 mov	 esp, ebp
  00044	5d		 pop	 ebp
  00045	c2 0c 00	 ret	 12			; 0000000cH
$LN2@GetPacketA:

; 1218 : 		return false;
; 1219 : 
; 1220 : 	pPacket = CDrawingPacketFinder().GetPracticalPacket(textData.GetGraphName(), textData.GetSubGraphPacketList()->GetSubGraphPacketList());

  00048	8d 45 f0	 lea	 eax, DWORD PTR $T2[ebp]
  0004b	8b cf		 mov	 ecx, edi
  0004d	50		 push	 eax
  0004e	e8 00 00 00 00	 call	 ?GetGraphName@CTextInRightScaleRegionDrawer@@QBE?AV?$CStringT@DV?$StrTraitMFC_DLL@DV?$ChTraitsCRT@D@ATL@@@@@ATL@@XZ ; CTextInRightScaleRegionDrawer::GetGraphName
  00053	8b f0		 mov	 esi, eax
  00055	8b cf		 mov	 ecx, edi
  00057	c7 45 fc 00 00
	00 00		 mov	 DWORD PTR __$EHRec$[ebp+8], 0
  0005e	e8 00 00 00 00	 call	 ?GetSubGraphPacketList@CTextInRightScaleRegionDrawer@@QBEPAVCSubGraphPacketList@@XZ ; CTextInRightScaleRegionDrawer::GetSubGraphPacketList
  00063	8b c8		 mov	 ecx, eax
  00065	e8 00 00 00 00	 call	 ?GetSubGraphPacketList@CSubGraphPacketList@@QBEABV?$CList@PAVCPacket@@PAV1@@@XZ ; CSubGraphPacketList::GetSubGraphPacketList
  0006a	50		 push	 eax
  0006b	56		 push	 esi
  0006c	8d 4d 0b	 lea	 ecx, DWORD PTR $T3[ebp]
  0006f	e8 00 00 00 00	 call	 ?GetPracticalPacket@CDrawingPacketFinder@@QBEPAVCPacket@@ABV?$CStringT@DV?$StrTraitMFC_DLL@DV?$ChTraitsCRT@D@ATL@@@@@ATL@@ABV?$CList@PAVCPacket@@PAV1@@@@Z ; CDrawingPacketFinder::GetPracticalPacket
  00074	8b 75 0c	 mov	 esi, DWORD PTR _pPacket$[ebp]
  00077	8d 4d f0	 lea	 ecx, DWORD PTR $T2[ebp]
  0007a	c7 45 fc ff ff
	ff ff		 mov	 DWORD PTR __$EHRec$[ebp+8], -1
  00081	89 06		 mov	 DWORD PTR [esi], eax
  00083	ff 15 00 00 00
	00		 call	 DWORD PTR __imp_??1?$CStringT@DV?$StrTraitMFC_DLL@DV?$ChTraitsCRT@D@ATL@@@@@ATL@@QAE@XZ

; 1221 : 	nRealDataEnd = CRateDrawer::GetRealDataEnd(pPacket, textData.GetDataEnd());

  00089	8b cf		 mov	 ecx, edi
  0008b	e8 00 00 00 00	 call	 ?GetDataEnd@CTextInRightScaleRegionDrawer@@QBEHXZ ; CTextInRightScaleRegionDrawer::GetDataEnd
  00090	8b 1e		 mov	 ebx, DWORD PTR [esi]
  00092	8b f8		 mov	 edi, eax

; 318  : 	if(pPacket == NULL || pPacket->GetnumericDataList() == NULL)

  00094	85 db		 test	 ebx, ebx
  00096	74 1c		 je	 SHORT $LN7@GetPacketA
  00098	8b 35 00 00 00
	00		 mov	 esi, DWORD PTR __imp_?GetnumericDataList@CPacket@@QAEPAV?$CList@NN@@XZ
  0009e	8b cb		 mov	 ecx, ebx
  000a0	ff d6		 call	 esi
  000a2	85 c0		 test	 eax, eax
  000a4	74 0e		 je	 SHORT $LN7@GetPacketA

; 319  : 		return nDataEnd;
; 320  : 
; 321  : 	int nDataCount = pPacket->GetnumericDataList()->GetCount();

  000a6	8b cb		 mov	 ecx, ebx
  000a8	ff d6		 call	 esi
  000aa	8b 40 0c	 mov	 eax, DWORD PTR [eax+12]

; 322  : 	if(nDataEnd >= nDataCount)

  000ad	3b f8		 cmp	 edi, eax
  000af	7c 03		 jl	 SHORT $LN7@GetPacketA

; 323  : 		return (nDataCount - 1);

  000b1	8d 78 ff	 lea	 edi, DWORD PTR [eax-1]
$LN7@GetPacketA:

; 1221 : 	nRealDataEnd = CRateDrawer::GetRealDataEnd(pPacket, textData.GetDataEnd());

  000b4	8b 45 10	 mov	 eax, DWORD PTR _nRealDataEnd$[ebp]
  000b7	89 38		 mov	 DWORD PTR [eax], edi

; 1222 : 	return true;

  000b9	b0 01		 mov	 al, 1

; 1223 : }

  000bb	8b 4d f4	 mov	 ecx, DWORD PTR __$EHRec$[ebp]
  000be	64 89 0d 00 00
	00 00		 mov	 DWORD PTR fs:0, ecx
  000c5	59		 pop	 ecx
  000c6	5f		 pop	 edi
  000c7	5e		 pop	 esi
  000c8	5b		 pop	 ebx
  000c9	8b e5		 mov	 esp, ebp
  000cb	5d		 pop	 ebp
  000cc	c2 0c 00	 ret	 12			; 0000000cH
_TEXT	ENDS
;	COMDAT text$x
text$x	SEGMENT
__unwindfunclet$?GetPacketAndDataEnd@CDataInRightScaleRegionDrawer@@ABE_NABVCTextInRightScaleRegionDrawer@@AAPAVCPacket@@AAH@Z$0:
  00000	8d 4d f0	 lea	 ecx, DWORD PTR $T2[ebp]
  00003	ff 25 00 00 00
	00		 jmp	 DWORD PTR __imp_??1?$CStringT@DV?$StrTraitMFC_DLL@DV?$ChTraitsCRT@D@ATL@@@@@ATL@@QAE@XZ
  00009	cc		 int	 3
  0000a	cc		 int	 3
  0000b	cc		 int	 3
  0000c	cc		 int	 3
  0000d	cc		 int	 3
__ehhandler$?GetPacketAndDataEnd@CDataInRightScaleRegionDrawer@@ABE_NABVCTextInRightScaleRegionDrawer@@AAPAVCPacket@@AAH@Z:
  0000e	90		 npad	 1
  0000f	90		 npad	 1
  00010	8b 54 24 08	 mov	 edx, DWORD PTR [esp+8]
  00014	8d 42 0c	 lea	 eax, DWORD PTR [edx+12]
  00017	8b 4a ec	 mov	 ecx, DWORD PTR [edx-20]
  0001a	33 c8		 xor	 ecx, eax
  0001c	e8 00 00 00 00	 call	 @__security_check_cookie@4
  00021	b8 00 00 00 00	 mov	 eax, OFFSET __ehfuncinfo$?GetPacketAndDataEnd@CDataInRightScaleRegionDrawer@@ABE_NABVCTextInRightScaleRegionDrawer@@AAPAVCPacket@@AAH@Z
  00026	e9 00 00 00 00	 jmp	 ___CxxFrameHandler3
text$x	ENDS
?GetPacketAndDataEnd@CDataInRightScaleRegionDrawer@@ABE_NABVCTextInRightScaleRegionDrawer@@AAPAVCPacket@@AAH@Z ENDP ; CDataInRightScaleRegionDrawer::GetPacketAndDataEnd
; Function compile flags: /Ogtp
; File D:\git\src\IBK\IBK_DRFN\ProjSrc\SrcChartEx\ChartOCX\GraphDraw\GraphDataDrawer.cpp
; File C:\Program Files (x86)\Microsoft Visual Studio\2019\Community\VC\Tools\MSVC\14.29.30133\atlmfc\include\cstringt.h
; File D:\git\src\IBK\IBK_DRFN\ProjSrc\SrcChartEx\ChartOCX\GraphDraw\GraphDataDrawer.cpp
; File C:\Program Files (x86)\Microsoft Visual Studio\2019\Community\VC\Tools\MSVC\14.29.30133\atlmfc\include\cstringt.h
; File D:\git\src\IBK\IBK_DRFN\ProjSrc\SrcChartEx\ChartOCX\GraphDraw\GraphDataDrawer.cpp
; File C:\Program Files (x86)\Microsoft Visual Studio\2019\Community\VC\Tools\MSVC\14.29.30133\atlmfc\include\cstringt.h
; File D:\git\src\IBK\IBK_DRFN\ProjSrc\SrcChartEx\ChartOCX\GraphDraw\GraphDataDrawer.cpp
;	COMDAT ?IsGraphDataDraw_Rate@CDataInRightScaleRegionDrawer@@ABE_NABVCRect@@ABVCPrices@@@Z
_TEXT	SEGMENT
__$EHRec$ = -12						; size = 12
_region$ = 8						; size = 4
$T2 = 12						; size = 4
_prices$ = 12						; size = 4
?IsGraphDataDraw_Rate@CDataInRightScaleRegionDrawer@@ABE_NABVCRect@@ABVCPrices@@@Z PROC ; CDataInRightScaleRegionDrawer::IsGraphDataDraw_Rate, COMDAT
; _this$ = ecx

; 1201 : {

  00000	55		 push	 ebp
  00001	8b ec		 mov	 ebp, esp
  00003	6a ff		 push	 -1
  00005	68 00 00 00 00	 push	 __ehhandler$?IsGraphDataDraw_Rate@CDataInRightScaleRegionDrawer@@ABE_NABVCRect@@ABVCPrices@@@Z
  0000a	64 a1 00 00 00
	00		 mov	 eax, DWORD PTR fs:0
  00010	50		 push	 eax
  00011	53		 push	 ebx
  00012	a1 00 00 00 00	 mov	 eax, DWORD PTR ___security_cookie
  00017	33 c5		 xor	 eax, ebp
  00019	50		 push	 eax
  0001a	8d 45 f4	 lea	 eax, DWORD PTR __$EHRec$[ebp]
  0001d	64 a3 00 00 00
	00		 mov	 DWORD PTR fs:0, eax

; 96   : 	return m_dPrevPrice;

  00023	8b 4d 0c	 mov	 ecx, DWORD PTR _prices$[ebp]
  00026	f2 0f 10 01	 movsd	 xmm0, QWORD PTR [ecx]

; 1202 : 	//2007.06.21 by LYH (     )
; 1203 : 	//if(region.Height() < 20)
; 1204 : 	//	return false;
; 1205 : 
; 1206 : 	if(prices.GetPrev() != 0.0)

  0002a	66 0f 2e 05 00
	00 00 00	 ucomisd xmm0, QWORD PTR __real@0000000000000000
  00032	9f		 lahf
  00033	f6 c4 44	 test	 ah, 68			; 00000044H
  00036	7b 14		 jnp	 SHORT $LN2@IsGraphDat

; 1207 : 		return true;

  00038	b0 01		 mov	 al, 1

; 1212 : }

  0003a	8b 4d f4	 mov	 ecx, DWORD PTR __$EHRec$[ebp]
  0003d	64 89 0d 00 00
	00 00		 mov	 DWORD PTR fs:0, ecx
  00044	59		 pop	 ecx
  00045	5b		 pop	 ebx
  00046	8b e5		 mov	 esp, ebp
  00048	5d		 pop	 ebp
  00049	c2 08 00	 ret	 8
$LN2@IsGraphDat:

; 122  : 	return m_strDataUnit;

  0004c	8d 41 20	 lea	 eax, DWORD PTR [ecx+32]
  0004f	50		 push	 eax
  00050	8d 4d 0c	 lea	 ecx, DWORD PTR $T2[ebp]
  00053	ff 15 00 00 00
	00		 call	 DWORD PTR __imp_??0?$CStringT@DV?$StrTraitMFC_DLL@DV?$ChTraitsCRT@D@ATL@@@@@ATL@@QAE@ABV01@@Z
; File C:\Program Files (x86)\Microsoft Visual Studio\2019\Community\VC\Tools\MSVC\14.29.30133\atlmfc\include\cstringt.h

; 2567 : 		return( str1.Compare( psz2 ) != 0 );

  00059	68 00 00 00 00	 push	 OFFSET ??_C@_01FGNFDNOH@?$CF@
  0005e	8d 4d 0c	 lea	 ecx, DWORD PTR $T2[ebp]
; File D:\git\src\IBK\IBK_DRFN\ProjSrc\SrcChartEx\ChartOCX\GraphDraw\GraphDataDrawer.cpp

; 1211 : 	return (prices.GetDataUnit() != "%");

  00061	c7 45 fc 00 00
	00 00		 mov	 DWORD PTR __$EHRec$[ebp+8], 0
; File C:\Program Files (x86)\Microsoft Visual Studio\2019\Community\VC\Tools\MSVC\14.29.30133\atlmfc\include\cstringt.h

; 2567 : 		return( str1.Compare( psz2 ) != 0 );

  00068	ff 15 00 00 00
	00		 call	 DWORD PTR __imp_?Compare@?$CStringT@DV?$StrTraitMFC_DLL@DV?$ChTraitsCRT@D@ATL@@@@@ATL@@QBEHPBD@Z
  0006e	85 c0		 test	 eax, eax
; File D:\git\src\IBK\IBK_DRFN\ProjSrc\SrcChartEx\ChartOCX\GraphDraw\GraphDataDrawer.cpp

; 1211 : 	return (prices.GetDataUnit() != "%");

  00070	8d 4d 0c	 lea	 ecx, DWORD PTR $T2[ebp]
; File C:\Program Files (x86)\Microsoft Visual Studio\2019\Community\VC\Tools\MSVC\14.29.30133\atlmfc\include\cstringt.h

; 2567 : 		return( str1.Compare( psz2 ) != 0 );

  00073	0f 95 c3	 setne	 bl
; File D:\git\src\IBK\IBK_DRFN\ProjSrc\SrcChartEx\ChartOCX\GraphDraw\GraphDataDrawer.cpp

; 1211 : 	return (prices.GetDataUnit() != "%");

  00076	ff 15 00 00 00
	00		 call	 DWORD PTR __imp_??1?$CStringT@DV?$StrTraitMFC_DLL@DV?$ChTraitsCRT@D@ATL@@@@@ATL@@QAE@XZ
  0007c	8a c3		 mov	 al, bl

; 1212 : }

  0007e	8b 4d f4	 mov	 ecx, DWORD PTR __$EHRec$[ebp]
  00081	64 89 0d 00 00
	00 00		 mov	 DWORD PTR fs:0, ecx
  00088	59		 pop	 ecx
  00089	5b		 pop	 ebx
  0008a	8b e5		 mov	 esp, ebp
  0008c	5d		 pop	 ebp
  0008d	c2 08 00	 ret	 8
_TEXT	ENDS
;	COMDAT text$x
text$x	SEGMENT
__unwindfunclet$?IsGraphDataDraw_Rate@CDataInRightScaleRegionDrawer@@ABE_NABVCRect@@ABVCPrices@@@Z$0:
  00000	8d 4d 0c	 lea	 ecx, DWORD PTR $T2[ebp]
  00003	ff 25 00 00 00
	00		 jmp	 DWORD PTR __imp_??1?$CStringT@DV?$StrTraitMFC_DLL@DV?$ChTraitsCRT@D@ATL@@@@@ATL@@QAE@XZ
  00009	cc		 int	 3
  0000a	cc		 int	 3
  0000b	cc		 int	 3
  0000c	cc		 int	 3
  0000d	cc		 int	 3
__ehhandler$?IsGraphDataDraw_Rate@CDataInRightScaleRegionDrawer@@ABE_NABVCRect@@ABVCPrices@@@Z:
  0000e	90		 npad	 1
  0000f	90		 npad	 1
  00010	8b 54 24 08	 mov	 edx, DWORD PTR [esp+8]
  00014	8d 42 0c	 lea	 eax, DWORD PTR [edx+12]
  00017	8b 4a f8	 mov	 ecx, DWORD PTR [edx-8]
  0001a	33 c8		 xor	 ecx, eax
  0001c	e8 00 00 00 00	 call	 @__security_check_cookie@4
  00021	b8 00 00 00 00	 mov	 eax, OFFSET __ehfuncinfo$?IsGraphDataDraw_Rate@CDataInRightScaleRegionDrawer@@ABE_NABVCRect@@ABVCPrices@@@Z
  00026	e9 00 00 00 00	 jmp	 ___CxxFrameHandler3
text$x	ENDS
?IsGraphDataDraw_Rate@CDataInRightScaleRegionDrawer@@ABE_NABVCRect@@ABVCPrices@@@Z ENDP ; CDataInRightScaleRegionDrawer::IsGraphDataDraw_Rate
; Function compile flags: /Ogtp
; File D:\git\src\IBK\IBK_DRFN\ProjSrc\SrcChartEx\ChartOCX\GraphDraw\GraphDataDrawer.cpp
; File C:\Program Files (x86)\Microsoft Visual Studio\2019\Community\VC\Tools\MSVC\14.29.30133\atlmfc\include\atltypes.h
; File D:\git\src\IBK\IBK_DRFN\ProjSrc\SrcChartEx\ChartOCX\GraphDraw\GraphDataDrawer.cpp
;	COMDAT ?IsGraphDataDraw@CDataInRightScaleRegionDrawer@@ABE_NABVCRect@@@Z
_TEXT	SEGMENT
_region$ = 8						; size = 4
?IsGraphDataDraw@CDataInRightScaleRegionDrawer@@ABE_NABVCRect@@@Z PROC ; CDataInRightScaleRegionDrawer::IsGraphDataDraw, COMDAT
; _this$ = ecx

; 1196 : {

  00000	55		 push	 ebp
  00001	8b ec		 mov	 ebp, esp
; File C:\Program Files (x86)\Microsoft Visual Studio\2019\Community\VC\Tools\MSVC\14.29.30133\atlmfc\include\atltypes.h

; 576  : 	return right - left;

  00003	8b 45 08	 mov	 eax, DWORD PTR _region$[ebp]
  00006	8b 48 08	 mov	 ecx, DWORD PTR [eax+8]
  00009	2b 08		 sub	 ecx, DWORD PTR [eax]
; File D:\git\src\IBK\IBK_DRFN\ProjSrc\SrcChartEx\ChartOCX\GraphDraw\GraphDataDrawer.cpp

; 1197 : 	return (region.Width() > 10);

  0000b	83 f9 0a	 cmp	 ecx, 10			; 0000000aH
  0000e	0f 9f c0	 setg	 al

; 1198 : }

  00011	5d		 pop	 ebp
  00012	c2 04 00	 ret	 4
?IsGraphDataDraw@CDataInRightScaleRegionDrawer@@ABE_NABVCRect@@@Z ENDP ; CDataInRightScaleRegionDrawer::IsGraphDataDraw
_TEXT	ENDS
; Function compile flags: /Ogtp
; File D:\git\src\IBK\IBK_DRFN\ProjSrc\SrcChartEx\ChartOCX\GraphDraw\GraphDataDrawer.cpp
; File C:\Program Files (x86)\Microsoft Visual Studio\2019\Community\VC\Tools\MSVC\14.29.30133\atlmfc\include\atlsimpstr.h
; File D:\git\src\IBK\IBK_DRFN\ProjSrc\SrcChartEx\ChartOCX\GraphDraw\GraphDataDrawer.cpp
; File C:\Program Files (x86)\Microsoft Visual Studio\2019\Community\VC\Tools\MSVC\14.29.30133\atlmfc\include\cstringt.h
; File D:\git\src\IBK\IBK_DRFN\ProjSrc\SrcChartEx\ChartOCX\GraphDraw\GraphDataDrawer.cpp
; File C:\Program Files (x86)\Microsoft Visual Studio\2019\Community\VC\Tools\MSVC\14.29.30133\atlmfc\include\cstringt.h
; File C:\Program Files (x86)\Microsoft Visual Studio\2019\Community\VC\Tools\MSVC\14.29.30133\atlmfc\include\atlsimpstr.h
; File C:\Program Files (x86)\Microsoft Visual Studio\2019\Community\VC\Tools\MSVC\14.29.30133\atlmfc\include\cstringt.h
; File D:\git\src\IBK\IBK_DRFN\ProjSrc\SrcChartEx\ChartOCX\GraphDraw\GraphDataDrawer.cpp
;	COMDAT ?GetText_CurrentPrice@CDataInRightScaleRegionDrawer@@ABE?AV?$CStringT@DV?$StrTraitMFC_DLL@DV?$ChTraitsCRT@D@ATL@@@@@ATL@@ABVCPrices@@ABV23@@Z
_TEXT	SEGMENT
$T2 = -28						; size = 8
$T3 = -20						; size = 4
_strCurPrice$ = -16					; size = 4
__$EHRec$ = -12						; size = 12
___$ReturnUdt$ = 8					; size = 4
$T4 = 12						; size = 4
$T5 = 12						; size = 4
_prices$ = 12						; size = 4
$T6 = 16						; size = 4
_strPacketType$7 = 16					; size = 4
$T8 = 16						; size = 4
$T9 = 16						; size = 4
_p_strPacketType$ = 16					; size = 4
?GetText_CurrentPrice@CDataInRightScaleRegionDrawer@@ABE?AV?$CStringT@DV?$StrTraitMFC_DLL@DV?$ChTraitsCRT@D@ATL@@@@@ATL@@ABVCPrices@@ABV23@@Z PROC ; CDataInRightScaleRegionDrawer::GetText_CurrentPrice, COMDAT
; _this$ = ecx

; 1132 : {

  00000	55		 push	 ebp
  00001	8b ec		 mov	 ebp, esp
  00003	6a ff		 push	 -1
  00005	68 00 00 00 00	 push	 __ehhandler$?GetText_CurrentPrice@CDataInRightScaleRegionDrawer@@ABE?AV?$CStringT@DV?$StrTraitMFC_DLL@DV?$ChTraitsCRT@D@ATL@@@@@ATL@@ABVCPrices@@ABV23@@Z
  0000a	64 a1 00 00 00
	00		 mov	 eax, DWORD PTR fs:0
  00010	50		 push	 eax
  00011	83 ec 10	 sub	 esp, 16			; 00000010H
  00014	56		 push	 esi
  00015	57		 push	 edi
  00016	a1 00 00 00 00	 mov	 eax, DWORD PTR ___security_cookie
  0001b	33 c5		 xor	 eax, ebp
  0001d	50		 push	 eax
  0001e	8d 45 f4	 lea	 eax, DWORD PTR __$EHRec$[ebp]
  00021	64 a3 00 00 00
	00		 mov	 DWORD PTR fs:0, eax

; 1133 : 	// 20080910 JS.Kim		8/32 	<<
; 1134 : 	/*
; 1135 : 	CString strCurPrice = CDataConversion::DoubleToString(prices.GetCur(), prices.GetDecimalDownCount());
; 1136 : 
; 1137 : 	if( p_strPacketType.Find( '.') < 0)
; 1138 : 	{
; 1139 : 		CString strPacketType( p_strPacketType);
; 1140 : 		int nFactor = strPacketType.Replace( '0', '_');
; 1141 : 		strCurPrice = strCurPrice.Left( strCurPrice.GetLength() - nFactor);
; 1142 : 	}
; 1143 : 
; 1144 : 	return (CDataConversion::GetStringThousandFormat(strCurPrice) + prices.GetDataType());
; 1145 : 	*/
; 1146 : 	CString strCurPrice;

  00027	8d 4d f0	 lea	 ecx, DWORD PTR _strCurPrice$[ebp]
  0002a	c7 45 ec 00 00
	00 00		 mov	 DWORD PTR $T3[ebp], 0
  00031	ff 15 00 00 00
	00		 call	 DWORD PTR __imp_??0?$CStringT@DV?$StrTraitMFC_DLL@DV?$ChTraitsCRT@D@ATL@@@@@ATL@@QAE@XZ

; 1147 : 
; 1148 : 	if( CDataConversion::IsBaseFormat(p_strPacketType) )

  00037	8b 75 10	 mov	 esi, DWORD PTR _p_strPacketType$[ebp]
  0003a	56		 push	 esi
  0003b	c7 45 fc 00 00
	00 00		 mov	 DWORD PTR __$EHRec$[ebp+8], 0
  00042	e8 00 00 00 00	 call	 ?IsBaseFormat@CDataConversion@@SA_NABV?$CStringT@DV?$StrTraitMFC_DLL@DV?$ChTraitsCRT@D@ATL@@@@@ATL@@@Z ; CDataConversion::IsBaseFormat
  00047	8b 7d 0c	 mov	 edi, DWORD PTR _prices$[ebp]
  0004a	83 c4 04	 add	 esp, 4
  0004d	84 c0		 test	 al, al
  0004f	8d 45 e4	 lea	 eax, DWORD PTR $T2[ebp]
  00052	f2 0f 10 47 08	 movsd	 xmm0, QWORD PTR [edi+8]
  00057	f2 0f 11 45 e4	 movsd	 QWORD PTR $T2[ebp], xmm0
  0005c	74 21		 je	 SHORT $LN2@GetText_Cu

; 1149 : 	{
; 1150 : 		strCurPrice = CDataConversion::DoubleToString(prices.GetCur(), p_strPacketType);

  0005e	56		 push	 esi
  0005f	50		 push	 eax
  00060	8d 45 10	 lea	 eax, DWORD PTR $T9[ebp]
  00063	50		 push	 eax
  00064	e8 00 00 00 00	 call	 ?DoubleToString@CDataConversion@@SA?AV?$CStringT@DV?$StrTraitMFC_DLL@DV?$ChTraitsCRT@D@ATL@@@@@ATL@@ABNABV23@@Z ; CDataConversion::DoubleToString
  00069	83 c4 0c	 add	 esp, 12			; 0000000cH
  0006c	50		 push	 eax
  0006d	8d 4d f0	 lea	 ecx, DWORD PTR _strCurPrice$[ebp]
  00070	c6 45 fc 01	 mov	 BYTE PTR __$EHRec$[ebp+8], 1
  00074	ff 15 00 00 00
	00		 call	 DWORD PTR __imp_??4?$CStringT@DV?$StrTraitMFC_DLL@DV?$ChTraitsCRT@D@ATL@@@@@ATL@@QAEAAV01@ABV01@@Z

; 1151 : 	}

  0007a	e9 83 00 00 00	 jmp	 $LN40@GetText_Cu
$LN2@GetText_Cu:

; 1152 : 	else
; 1153 : 	{
; 1154 : 		strCurPrice = CDataConversion::DoubleToString(prices.GetCur(), prices.GetDecimalDownCount());

  0007f	ff 77 10	 push	 DWORD PTR [edi+16]
  00082	50		 push	 eax
  00083	8d 45 10	 lea	 eax, DWORD PTR $T8[ebp]
  00086	50		 push	 eax
  00087	e8 00 00 00 00	 call	 ?DoubleToString@CDataConversion@@SA?AV?$CStringT@DV?$StrTraitMFC_DLL@DV?$ChTraitsCRT@D@ATL@@@@@ATL@@ABNH@Z ; CDataConversion::DoubleToString
  0008c	83 c4 0c	 add	 esp, 12			; 0000000cH
  0008f	50		 push	 eax
  00090	8d 4d f0	 lea	 ecx, DWORD PTR _strCurPrice$[ebp]
  00093	c6 45 fc 02	 mov	 BYTE PTR __$EHRec$[ebp+8], 2
  00097	ff 15 00 00 00
	00		 call	 DWORD PTR __imp_??4?$CStringT@DV?$StrTraitMFC_DLL@DV?$ChTraitsCRT@D@ATL@@@@@ATL@@QAEAAV01@ABV01@@Z
  0009d	8d 4d 10	 lea	 ecx, DWORD PTR $T8[ebp]
  000a0	c6 45 fc 00	 mov	 BYTE PTR __$EHRec$[ebp+8], 0
  000a4	ff 15 00 00 00
	00		 call	 DWORD PTR __imp_??1?$CStringT@DV?$StrTraitMFC_DLL@DV?$ChTraitsCRT@D@ATL@@@@@ATL@@QAE@XZ

; 1155 : 
; 1156 : 		if( p_strPacketType.Find( '.') < 0)

  000aa	6a 00		 push	 0
  000ac	6a 2e		 push	 46			; 0000002eH
  000ae	8b ce		 mov	 ecx, esi
  000b0	ff 15 00 00 00
	00		 call	 DWORD PTR __imp_?Find@?$CStringT@DV?$StrTraitMFC_DLL@DV?$ChTraitsCRT@D@ATL@@@@@ATL@@QBEHDH@Z
  000b6	85 c0		 test	 eax, eax
  000b8	79 55		 jns	 SHORT $LN4@GetText_Cu

; 1157 : 		{
; 1158 : 			CString strPacketType( p_strPacketType);

  000ba	56		 push	 esi
  000bb	8d 4d 10	 lea	 ecx, DWORD PTR _strPacketType$7[ebp]
  000be	ff 15 00 00 00
	00		 call	 DWORD PTR __imp_??0?$CStringT@DV?$StrTraitMFC_DLL@DV?$ChTraitsCRT@D@ATL@@@@@ATL@@QAE@ABV01@@Z

; 1159 : 			int nFactor = strPacketType.Replace( '0', '_');

  000c4	6a 5f		 push	 95			; 0000005fH
  000c6	6a 30		 push	 48			; 00000030H
  000c8	8d 4d 10	 lea	 ecx, DWORD PTR _strPacketType$7[ebp]
  000cb	c6 45 fc 03	 mov	 BYTE PTR __$EHRec$[ebp+8], 3
  000cf	ff 15 00 00 00
	00		 call	 DWORD PTR __imp_?Replace@?$CStringT@DV?$StrTraitMFC_DLL@DV?$ChTraitsCRT@D@ATL@@@@@ATL@@QAEHDD@Z
; File C:\Program Files (x86)\Microsoft Visual Studio\2019\Community\VC\Tools\MSVC\14.29.30133\atlmfc\include\atlsimpstr.h

; 519  : 		return( GetData()->nDataLength );

  000d5	8b 4d f0	 mov	 ecx, DWORD PTR _strCurPrice$[ebp]
  000d8	8b 49 f4	 mov	 ecx, DWORD PTR [ecx-12]
; File D:\git\src\IBK\IBK_DRFN\ProjSrc\SrcChartEx\ChartOCX\GraphDraw\GraphDataDrawer.cpp

; 1160 : 			strCurPrice = strCurPrice.Left( strCurPrice.GetLength() - nFactor);

  000db	2b c8		 sub	 ecx, eax
  000dd	8d 45 0c	 lea	 eax, DWORD PTR $T5[ebp]
  000e0	51		 push	 ecx
  000e1	50		 push	 eax
  000e2	8d 4d f0	 lea	 ecx, DWORD PTR _strCurPrice$[ebp]
  000e5	ff 15 00 00 00
	00		 call	 DWORD PTR __imp_?Left@?$CStringT@DV?$StrTraitMFC_DLL@DV?$ChTraitsCRT@D@ATL@@@@@ATL@@QBE?AV12@H@Z
  000eb	50		 push	 eax
  000ec	8d 4d f0	 lea	 ecx, DWORD PTR _strCurPrice$[ebp]
  000ef	c6 45 fc 04	 mov	 BYTE PTR __$EHRec$[ebp+8], 4
  000f3	ff 15 00 00 00
	00		 call	 DWORD PTR __imp_??4?$CStringT@DV?$StrTraitMFC_DLL@DV?$ChTraitsCRT@D@ATL@@@@@ATL@@QAEAAV01@ABV01@@Z
  000f9	8d 4d 0c	 lea	 ecx, DWORD PTR $T5[ebp]
  000fc	ff 15 00 00 00
	00		 call	 DWORD PTR __imp_??1?$CStringT@DV?$StrTraitMFC_DLL@DV?$ChTraitsCRT@D@ATL@@@@@ATL@@QAE@XZ
$LN40@GetText_Cu:

; 122  : 	return m_strDataUnit;

  00102	8d 4d 10	 lea	 ecx, DWORD PTR _strPacketType$7[ebp]
  00105	c6 45 fc 00	 mov	 BYTE PTR __$EHRec$[ebp+8], 0
  00109	ff 15 00 00 00
	00		 call	 DWORD PTR __imp_??1?$CStringT@DV?$StrTraitMFC_DLL@DV?$ChTraitsCRT@D@ATL@@@@@ATL@@QAE@XZ
$LN4@GetText_Cu:
  0010f	8d 47 20	 lea	 eax, DWORD PTR [edi+32]
  00112	50		 push	 eax
  00113	8d 4d 10	 lea	 ecx, DWORD PTR $T6[ebp]
  00116	ff 15 00 00 00
	00		 call	 DWORD PTR __imp_??0?$CStringT@DV?$StrTraitMFC_DLL@DV?$ChTraitsCRT@D@ATL@@@@@ATL@@QAE@ABV01@@Z

; 1165 : 	return (CDataConversion::GetStringThousandFormat(strCurPrice) + prices.GetDataUnit());

  0011c	8d 45 f0	 lea	 eax, DWORD PTR _strCurPrice$[ebp]
  0011f	c6 45 fc 05	 mov	 BYTE PTR __$EHRec$[ebp+8], 5
  00123	50		 push	 eax
  00124	8d 45 0c	 lea	 eax, DWORD PTR $T4[ebp]
  00127	50		 push	 eax
  00128	e8 00 00 00 00	 call	 ?GetStringThousandFormat@CDataConversion@@SA?AV?$CStringT@DV?$StrTraitMFC_DLL@DV?$ChTraitsCRT@D@ATL@@@@@ATL@@ABV23@@Z ; CDataConversion::GetStringThousandFormat
  0012d	83 c4 08	 add	 esp, 8
  00130	8b f0		 mov	 esi, eax
; File C:\Program Files (x86)\Microsoft Visual Studio\2019\Community\VC\Tools\MSVC\14.29.30133\atlmfc\include\cstringt.h

; 2390 : 		CStringT strResult( str1.GetManager() );

  00132	8b ce		 mov	 ecx, esi
; File D:\git\src\IBK\IBK_DRFN\ProjSrc\SrcChartEx\ChartOCX\GraphDraw\GraphDataDrawer.cpp

; 1165 : 	return (CDataConversion::GetStringThousandFormat(strCurPrice) + prices.GetDataUnit());

  00134	c6 45 fc 07	 mov	 BYTE PTR __$EHRec$[ebp+8], 7
; File C:\Program Files (x86)\Microsoft Visual Studio\2019\Community\VC\Tools\MSVC\14.29.30133\atlmfc\include\cstringt.h

; 2390 : 		CStringT strResult( str1.GetManager() );

  00138	ff 15 00 00 00
	00		 call	 DWORD PTR __imp_?GetManager@?$CStringT@DV?$StrTraitMFC_DLL@DV?$ChTraitsCRT@D@ATL@@@@@ATL@@QBEPAUIAtlStringMgr@2@XZ
  0013e	8b 7d 08	 mov	 edi, DWORD PTR ___$ReturnUdt$[ebp]
  00141	8b cf		 mov	 ecx, edi
  00143	50		 push	 eax
  00144	ff 15 00 00 00
	00		 call	 DWORD PTR __imp_??0?$CStringT@DV?$StrTraitMFC_DLL@DV?$ChTraitsCRT@D@ATL@@@@@ATL@@QAE@PAUIAtlStringMgr@1@@Z

; 2391 : 
; 2392 : 		CThisSimpleString::Concatenate( strResult, str1, str1.GetLength(), str2, str2.GetLength() );

  0014a	8b 45 10	 mov	 eax, DWORD PTR $T6[ebp]
; File C:\Program Files (x86)\Microsoft Visual Studio\2019\Community\VC\Tools\MSVC\14.29.30133\atlmfc\include\atlsimpstr.h

; 519  : 		return( GetData()->nDataLength );

  0014d	8b 0e		 mov	 ecx, DWORD PTR [esi]
; File C:\Program Files (x86)\Microsoft Visual Studio\2019\Community\VC\Tools\MSVC\14.29.30133\atlmfc\include\cstringt.h

; 2394 : 		return( strResult );

  0014f	c7 45 ec 06 00
	00 00		 mov	 DWORD PTR $T3[ebp], 6
  00156	ff 70 f4	 push	 DWORD PTR [eax-12]
  00159	50		 push	 eax
  0015a	ff 71 f4	 push	 DWORD PTR [ecx-12]
  0015d	51		 push	 ecx
  0015e	57		 push	 edi
  0015f	ff 15 00 00 00
	00		 call	 DWORD PTR __imp_?Concatenate@?$CSimpleStringT@D$00@ATL@@KAXAAV12@PBDH1H@Z
  00165	83 c4 14	 add	 esp, 20			; 00000014H
; File D:\git\src\IBK\IBK_DRFN\ProjSrc\SrcChartEx\ChartOCX\GraphDraw\GraphDataDrawer.cpp

; 1165 : 	return (CDataConversion::GetStringThousandFormat(strCurPrice) + prices.GetDataUnit());

  00168	8d 4d 0c	 lea	 ecx, DWORD PTR $T4[ebp]
  0016b	ff 15 00 00 00
	00		 call	 DWORD PTR __imp_??1?$CStringT@DV?$StrTraitMFC_DLL@DV?$ChTraitsCRT@D@ATL@@@@@ATL@@QAE@XZ
  00171	8d 4d 10	 lea	 ecx, DWORD PTR $T6[ebp]
  00174	ff 15 00 00 00
	00		 call	 DWORD PTR __imp_??1?$CStringT@DV?$StrTraitMFC_DLL@DV?$ChTraitsCRT@D@ATL@@@@@ATL@@QAE@XZ
  0017a	8d 4d f0	 lea	 ecx, DWORD PTR _strCurPrice$[ebp]
  0017d	ff 15 00 00 00
	00		 call	 DWORD PTR __imp_??1?$CStringT@DV?$StrTraitMFC_DLL@DV?$ChTraitsCRT@D@ATL@@@@@ATL@@QAE@XZ
  00183	8b c7		 mov	 eax, edi

; 1166 : 	//>>
; 1167 : }

  00185	8b 4d f4	 mov	 ecx, DWORD PTR __$EHRec$[ebp]
  00188	64 89 0d 00 00
	00 00		 mov	 DWORD PTR fs:0, ecx
  0018f	59		 pop	 ecx
  00190	5f		 pop	 edi
  00191	5e		 pop	 esi
  00192	8b e5		 mov	 esp, ebp
  00194	5d		 pop	 ebp
  00195	c2 0c 00	 ret	 12			; 0000000cH
_TEXT	ENDS
;	COMDAT text$x
text$x	SEGMENT
__unwindfunclet$?GetText_CurrentPrice@CDataInRightScaleRegionDrawer@@ABE?AV?$CStringT@DV?$StrTraitMFC_DLL@DV?$ChTraitsCRT@D@ATL@@@@@ATL@@ABVCPrices@@ABV23@@Z$0:
  00000	8d 4d f0	 lea	 ecx, DWORD PTR _strCurPrice$[ebp]
  00003	ff 25 00 00 00
	00		 jmp	 DWORD PTR __imp_??1?$CStringT@DV?$StrTraitMFC_DLL@DV?$ChTraitsCRT@D@ATL@@@@@ATL@@QAE@XZ
__unwindfunclet$?GetText_CurrentPrice@CDataInRightScaleRegionDrawer@@ABE?AV?$CStringT@DV?$StrTraitMFC_DLL@DV?$ChTraitsCRT@D@ATL@@@@@ATL@@ABVCPrices@@ABV23@@Z$1:
  00009	8d 4d 10	 lea	 ecx, DWORD PTR $T9[ebp]
  0000c	ff 25 00 00 00
	00		 jmp	 DWORD PTR __imp_??1?$CStringT@DV?$StrTraitMFC_DLL@DV?$ChTraitsCRT@D@ATL@@@@@ATL@@QAE@XZ
__unwindfunclet$?GetText_CurrentPrice@CDataInRightScaleRegionDrawer@@ABE?AV?$CStringT@DV?$StrTraitMFC_DLL@DV?$ChTraitsCRT@D@ATL@@@@@ATL@@ABVCPrices@@ABV23@@Z$2:
  00012	8d 4d 10	 lea	 ecx, DWORD PTR $T8[ebp]
  00015	ff 25 00 00 00
	00		 jmp	 DWORD PTR __imp_??1?$CStringT@DV?$StrTraitMFC_DLL@DV?$ChTraitsCRT@D@ATL@@@@@ATL@@QAE@XZ
__unwindfunclet$?GetText_CurrentPrice@CDataInRightScaleRegionDrawer@@ABE?AV?$CStringT@DV?$StrTraitMFC_DLL@DV?$ChTraitsCRT@D@ATL@@@@@ATL@@ABVCPrices@@ABV23@@Z$3:
  0001b	8d 4d 10	 lea	 ecx, DWORD PTR _strPacketType$7[ebp]
  0001e	ff 25 00 00 00
	00		 jmp	 DWORD PTR __imp_??1?$CStringT@DV?$StrTraitMFC_DLL@DV?$ChTraitsCRT@D@ATL@@@@@ATL@@QAE@XZ
__unwindfunclet$?GetText_CurrentPrice@CDataInRightScaleRegionDrawer@@ABE?AV?$CStringT@DV?$StrTraitMFC_DLL@DV?$ChTraitsCRT@D@ATL@@@@@ATL@@ABVCPrices@@ABV23@@Z$4:
  00024	8d 4d 0c	 lea	 ecx, DWORD PTR $T5[ebp]
  00027	ff 25 00 00 00
	00		 jmp	 DWORD PTR __imp_??1?$CStringT@DV?$StrTraitMFC_DLL@DV?$ChTraitsCRT@D@ATL@@@@@ATL@@QAE@XZ
__unwindfunclet$?GetText_CurrentPrice@CDataInRightScaleRegionDrawer@@ABE?AV?$CStringT@DV?$StrTraitMFC_DLL@DV?$ChTraitsCRT@D@ATL@@@@@ATL@@ABVCPrices@@ABV23@@Z$5:
  0002d	8d 4d 10	 lea	 ecx, DWORD PTR $T6[ebp]
  00030	ff 25 00 00 00
	00		 jmp	 DWORD PTR __imp_??1?$CStringT@DV?$StrTraitMFC_DLL@DV?$ChTraitsCRT@D@ATL@@@@@ATL@@QAE@XZ
__unwindfunclet$?GetText_CurrentPrice@CDataInRightScaleRegionDrawer@@ABE?AV?$CStringT@DV?$StrTraitMFC_DLL@DV?$ChTraitsCRT@D@ATL@@@@@ATL@@ABVCPrices@@ABV23@@Z$6:
  00036	8d 4d 0c	 lea	 ecx, DWORD PTR $T4[ebp]
  00039	ff 25 00 00 00
	00		 jmp	 DWORD PTR __imp_??1?$CStringT@DV?$StrTraitMFC_DLL@DV?$ChTraitsCRT@D@ATL@@@@@ATL@@QAE@XZ
__unwindfunclet$?GetText_CurrentPrice@CDataInRightScaleRegionDrawer@@ABE?AV?$CStringT@DV?$StrTraitMFC_DLL@DV?$ChTraitsCRT@D@ATL@@@@@ATL@@ABVCPrices@@ABV23@@Z$9:
  0003f	8b 45 ec	 mov	 eax, DWORD PTR $T3[ebp]
  00042	83 e0 04	 and	 eax, 4
  00045	0f 84 0d 00 00
	00		 je	 $LN26@GetText_Cu
  0004b	83 65 ec fb	 and	 DWORD PTR $T3[ebp], -5	; fffffffbH
  0004f	8b 4d 08	 mov	 ecx, DWORD PTR ___$ReturnUdt$[ebp]
  00052	ff 25 00 00 00
	00		 jmp	 DWORD PTR __imp_??1?$CStringT@DV?$StrTraitMFC_DLL@DV?$ChTraitsCRT@D@ATL@@@@@ATL@@QAE@XZ
$LN26@GetText_Cu:
  00058	c3		 ret	 0
  00059	cc		 int	 3
  0005a	cc		 int	 3
  0005b	cc		 int	 3
  0005c	cc		 int	 3
  0005d	cc		 int	 3
__ehhandler$?GetText_CurrentPrice@CDataInRightScaleRegionDrawer@@ABE?AV?$CStringT@DV?$StrTraitMFC_DLL@DV?$ChTraitsCRT@D@ATL@@@@@ATL@@ABVCPrices@@ABV23@@Z:
  0005e	90		 npad	 1
  0005f	90		 npad	 1
  00060	8b 54 24 08	 mov	 edx, DWORD PTR [esp+8]
  00064	8d 42 0c	 lea	 eax, DWORD PTR [edx+12]
  00067	8b 4a e4	 mov	 ecx, DWORD PTR [edx-28]
  0006a	33 c8		 xor	 ecx, eax
  0006c	e8 00 00 00 00	 call	 @__security_check_cookie@4
  00071	b8 00 00 00 00	 mov	 eax, OFFSET __ehfuncinfo$?GetText_CurrentPrice@CDataInRightScaleRegionDrawer@@ABE?AV?$CStringT@DV?$StrTraitMFC_DLL@DV?$ChTraitsCRT@D@ATL@@@@@ATL@@ABVCPrices@@ABV23@@Z
  00076	e9 00 00 00 00	 jmp	 ___CxxFrameHandler3
text$x	ENDS
?GetText_CurrentPrice@CDataInRightScaleRegionDrawer@@ABE?AV?$CStringT@DV?$StrTraitMFC_DLL@DV?$ChTraitsCRT@D@ATL@@@@@ATL@@ABVCPrices@@ABV23@@Z ENDP ; CDataInRightScaleRegionDrawer::GetText_CurrentPrice
; Function compile flags: /Ogtp
; File D:\git\src\IBK\IBK_DRFN\ProjSrc\SrcChartEx\ChartOCX\GraphDraw\GraphDataDrawer.cpp
; File C:\Program Files (x86)\Microsoft Visual Studio\2019\Community\VC\Tools\MSVC\14.29.30133\atlmfc\include\atlsimpstr.h
; File D:\git\src\IBK\IBK_DRFN\ProjSrc\SrcChartEx\ChartOCX\GraphDraw\GraphDataDrawer.cpp
; File C:\Program Files (x86)\Microsoft Visual Studio\2019\Community\VC\Tools\MSVC\14.29.30133\atlmfc\include\cstringt.h
; File D:\git\src\IBK\IBK_DRFN\ProjSrc\SrcChartEx\ChartOCX\GraphDraw\GraphDataDrawer.cpp
; File C:\Program Files (x86)\Microsoft Visual Studio\2019\Community\VC\Tools\MSVC\14.29.30133\atlmfc\include\cstringt.h
; File C:\Program Files (x86)\Microsoft Visual Studio\2019\Community\VC\Tools\MSVC\14.29.30133\atlmfc\include\atlsimpstr.h
; File C:\Program Files (x86)\Microsoft Visual Studio\2019\Community\VC\Tools\MSVC\14.29.30133\atlmfc\include\cstringt.h
; File C:\Program Files (x86)\Microsoft Visual Studio\2019\Community\VC\Tools\MSVC\14.29.30133\atlmfc\include\atlsimpstr.h
; File C:\Program Files (x86)\Microsoft Visual Studio\2019\Community\VC\Tools\MSVC\14.29.30133\atlmfc\include\cstringt.h
; File D:\git\src\IBK\IBK_DRFN\ProjSrc\SrcChartEx\ChartOCX\GraphDraw\GraphDataDrawer.cpp
;	COMDAT ?GetText_Price@CDataInRightScaleRegionDrawer@@ABE?AV?$CStringT@DV?$StrTraitMFC_DLL@DV?$ChTraitsCRT@D@ATL@@@@@ATL@@NABV23@0H@Z
_TEXT	SEGMENT
$T2 = -20						; size = 4
_strCurPrice$ = -16					; size = 4
__$EHRec$ = -12						; size = 12
___$ReturnUdt$ = 8					; size = 4
_dPrice$ = 12						; size = 8
$T3 = 20						; size = 4
_strPacketType$4 = 20					; size = 4
$T5 = 20						; size = 4
$T6 = 20						; size = 4
_p_strPacketType$ = 20					; size = 4
_p_strUnit$ = 24					; size = 4
$T7 = 28						; size = 4
_nDecimalDownCount$ = 28				; size = 4
?GetText_Price@CDataInRightScaleRegionDrawer@@ABE?AV?$CStringT@DV?$StrTraitMFC_DLL@DV?$ChTraitsCRT@D@ATL@@@@@ATL@@NABV23@0H@Z PROC ; CDataInRightScaleRegionDrawer::GetText_Price, COMDAT
; _this$ = ecx

; 1171 : {

  00000	55		 push	 ebp
  00001	8b ec		 mov	 ebp, esp
  00003	6a ff		 push	 -1
  00005	68 00 00 00 00	 push	 __ehhandler$?GetText_Price@CDataInRightScaleRegionDrawer@@ABE?AV?$CStringT@DV?$StrTraitMFC_DLL@DV?$ChTraitsCRT@D@ATL@@@@@ATL@@NABV23@0H@Z
  0000a	64 a1 00 00 00
	00		 mov	 eax, DWORD PTR fs:0
  00010	50		 push	 eax
  00011	83 ec 08	 sub	 esp, 8
  00014	56		 push	 esi
  00015	57		 push	 edi
  00016	a1 00 00 00 00	 mov	 eax, DWORD PTR ___security_cookie
  0001b	33 c5		 xor	 eax, ebp
  0001d	50		 push	 eax
  0001e	8d 45 f4	 lea	 eax, DWORD PTR __$EHRec$[ebp]
  00021	64 a3 00 00 00
	00		 mov	 DWORD PTR fs:0, eax

; 1172 : 	CString strCurPrice;

  00027	8d 4d f0	 lea	 ecx, DWORD PTR _strCurPrice$[ebp]
  0002a	c7 45 ec 00 00
	00 00		 mov	 DWORD PTR $T2[ebp], 0
  00031	ff 15 00 00 00
	00		 call	 DWORD PTR __imp_??0?$CStringT@DV?$StrTraitMFC_DLL@DV?$ChTraitsCRT@D@ATL@@@@@ATL@@QAE@XZ

; 1173 : 
; 1174 : 	if( CDataConversion::IsBaseFormat( p_strPacketType) )

  00037	8b 75 14	 mov	 esi, DWORD PTR _p_strPacketType$[ebp]
  0003a	56		 push	 esi
  0003b	c7 45 fc 00 00
	00 00		 mov	 DWORD PTR __$EHRec$[ebp+8], 0
  00042	e8 00 00 00 00	 call	 ?IsBaseFormat@CDataConversion@@SA_NABV?$CStringT@DV?$StrTraitMFC_DLL@DV?$ChTraitsCRT@D@ATL@@@@@ATL@@@Z ; CDataConversion::IsBaseFormat
  00047	83 c4 04	 add	 esp, 4
  0004a	84 c0		 test	 al, al
  0004c	8d 45 0c	 lea	 eax, DWORD PTR _dPrice$[ebp]
  0004f	74 21		 je	 SHORT $LN2@GetText_Pr

; 1175 : 	{
; 1176 : 		strCurPrice = CDataConversion::DoubleToString( dPrice, p_strPacketType);

  00051	56		 push	 esi
  00052	50		 push	 eax
  00053	8d 45 14	 lea	 eax, DWORD PTR $T6[ebp]
  00056	50		 push	 eax
  00057	e8 00 00 00 00	 call	 ?DoubleToString@CDataConversion@@SA?AV?$CStringT@DV?$StrTraitMFC_DLL@DV?$ChTraitsCRT@D@ATL@@@@@ATL@@ABNABV23@@Z ; CDataConversion::DoubleToString
  0005c	83 c4 0c	 add	 esp, 12			; 0000000cH
  0005f	50		 push	 eax
  00060	8d 4d f0	 lea	 ecx, DWORD PTR _strCurPrice$[ebp]
  00063	c6 45 fc 01	 mov	 BYTE PTR __$EHRec$[ebp+8], 1
  00067	ff 15 00 00 00
	00		 call	 DWORD PTR __imp_??4?$CStringT@DV?$StrTraitMFC_DLL@DV?$ChTraitsCRT@D@ATL@@@@@ATL@@QAEAAV01@ABV01@@Z

; 1177 : 	}

  0006d	e9 83 00 00 00	 jmp	 $LN35@GetText_Pr
$LN2@GetText_Pr:

; 1178 : 	else
; 1179 : 	{
; 1180 : 		strCurPrice = CDataConversion::DoubleToString( dPrice, nDecimalDownCount);

  00072	ff 75 1c	 push	 DWORD PTR _nDecimalDownCount$[ebp]
  00075	50		 push	 eax
  00076	8d 45 14	 lea	 eax, DWORD PTR $T5[ebp]
  00079	50		 push	 eax
  0007a	e8 00 00 00 00	 call	 ?DoubleToString@CDataConversion@@SA?AV?$CStringT@DV?$StrTraitMFC_DLL@DV?$ChTraitsCRT@D@ATL@@@@@ATL@@ABNH@Z ; CDataConversion::DoubleToString
  0007f	83 c4 0c	 add	 esp, 12			; 0000000cH
  00082	50		 push	 eax
  00083	8d 4d f0	 lea	 ecx, DWORD PTR _strCurPrice$[ebp]
  00086	c6 45 fc 02	 mov	 BYTE PTR __$EHRec$[ebp+8], 2
  0008a	ff 15 00 00 00
	00		 call	 DWORD PTR __imp_??4?$CStringT@DV?$StrTraitMFC_DLL@DV?$ChTraitsCRT@D@ATL@@@@@ATL@@QAEAAV01@ABV01@@Z
  00090	8d 4d 14	 lea	 ecx, DWORD PTR $T5[ebp]
  00093	c6 45 fc 00	 mov	 BYTE PTR __$EHRec$[ebp+8], 0
  00097	ff 15 00 00 00
	00		 call	 DWORD PTR __imp_??1?$CStringT@DV?$StrTraitMFC_DLL@DV?$ChTraitsCRT@D@ATL@@@@@ATL@@QAE@XZ

; 1181 : 
; 1182 : 		if( p_strPacketType.Find( '.') < 0)

  0009d	6a 00		 push	 0
  0009f	6a 2e		 push	 46			; 0000002eH
  000a1	8b ce		 mov	 ecx, esi
  000a3	ff 15 00 00 00
	00		 call	 DWORD PTR __imp_?Find@?$CStringT@DV?$StrTraitMFC_DLL@DV?$ChTraitsCRT@D@ATL@@@@@ATL@@QBEHDH@Z
  000a9	85 c0		 test	 eax, eax
  000ab	79 55		 jns	 SHORT $LN4@GetText_Pr

; 1183 : 		{
; 1184 : 			CString strPacketType( p_strPacketType);

  000ad	56		 push	 esi
  000ae	8d 4d 14	 lea	 ecx, DWORD PTR _strPacketType$4[ebp]
  000b1	ff 15 00 00 00
	00		 call	 DWORD PTR __imp_??0?$CStringT@DV?$StrTraitMFC_DLL@DV?$ChTraitsCRT@D@ATL@@@@@ATL@@QAE@ABV01@@Z

; 1185 : 			int nFactor = strPacketType.Replace( '0', '_');

  000b7	6a 5f		 push	 95			; 0000005fH
  000b9	6a 30		 push	 48			; 00000030H
  000bb	8d 4d 14	 lea	 ecx, DWORD PTR _strPacketType$4[ebp]
  000be	c6 45 fc 03	 mov	 BYTE PTR __$EHRec$[ebp+8], 3
  000c2	ff 15 00 00 00
	00		 call	 DWORD PTR __imp_?Replace@?$CStringT@DV?$StrTraitMFC_DLL@DV?$ChTraitsCRT@D@ATL@@@@@ATL@@QAEHDD@Z
; File C:\Program Files (x86)\Microsoft Visual Studio\2019\Community\VC\Tools\MSVC\14.29.30133\atlmfc\include\atlsimpstr.h

; 519  : 		return( GetData()->nDataLength );

  000c8	8b 4d f0	 mov	 ecx, DWORD PTR _strCurPrice$[ebp]
  000cb	8b 49 f4	 mov	 ecx, DWORD PTR [ecx-12]
; File D:\git\src\IBK\IBK_DRFN\ProjSrc\SrcChartEx\ChartOCX\GraphDraw\GraphDataDrawer.cpp

; 1186 : 			strCurPrice = strCurPrice.Left( strCurPrice.GetLength() - nFactor);

  000ce	2b c8		 sub	 ecx, eax
  000d0	8d 45 1c	 lea	 eax, DWORD PTR $T7[ebp]
  000d3	51		 push	 ecx
  000d4	50		 push	 eax
  000d5	8d 4d f0	 lea	 ecx, DWORD PTR _strCurPrice$[ebp]
  000d8	ff 15 00 00 00
	00		 call	 DWORD PTR __imp_?Left@?$CStringT@DV?$StrTraitMFC_DLL@DV?$ChTraitsCRT@D@ATL@@@@@ATL@@QBE?AV12@H@Z
  000de	50		 push	 eax
  000df	8d 4d f0	 lea	 ecx, DWORD PTR _strCurPrice$[ebp]
  000e2	c6 45 fc 04	 mov	 BYTE PTR __$EHRec$[ebp+8], 4
  000e6	ff 15 00 00 00
	00		 call	 DWORD PTR __imp_??4?$CStringT@DV?$StrTraitMFC_DLL@DV?$ChTraitsCRT@D@ATL@@@@@ATL@@QAEAAV01@ABV01@@Z
  000ec	8d 4d 1c	 lea	 ecx, DWORD PTR $T7[ebp]
  000ef	ff 15 00 00 00
	00		 call	 DWORD PTR __imp_??1?$CStringT@DV?$StrTraitMFC_DLL@DV?$ChTraitsCRT@D@ATL@@@@@ATL@@QAE@XZ
$LN35@GetText_Pr:

; 1190 : 	return ( CDataConversion::GetStringThousandFormat( strCurPrice) + p_strUnit);

  000f5	8d 4d 14	 lea	 ecx, DWORD PTR _strPacketType$4[ebp]
  000f8	c6 45 fc 00	 mov	 BYTE PTR __$EHRec$[ebp+8], 0
  000fc	ff 15 00 00 00
	00		 call	 DWORD PTR __imp_??1?$CStringT@DV?$StrTraitMFC_DLL@DV?$ChTraitsCRT@D@ATL@@@@@ATL@@QAE@XZ
$LN4@GetText_Pr:
  00102	8d 45 f0	 lea	 eax, DWORD PTR _strCurPrice$[ebp]
  00105	50		 push	 eax
  00106	8d 45 14	 lea	 eax, DWORD PTR $T3[ebp]
  00109	50		 push	 eax
  0010a	e8 00 00 00 00	 call	 ?GetStringThousandFormat@CDataConversion@@SA?AV?$CStringT@DV?$StrTraitMFC_DLL@DV?$ChTraitsCRT@D@ATL@@@@@ATL@@ABV23@@Z ; CDataConversion::GetStringThousandFormat
  0010f	83 c4 08	 add	 esp, 8
  00112	8b f0		 mov	 esi, eax
; File C:\Program Files (x86)\Microsoft Visual Studio\2019\Community\VC\Tools\MSVC\14.29.30133\atlmfc\include\cstringt.h

; 2390 : 		CStringT strResult( str1.GetManager() );

  00114	8b ce		 mov	 ecx, esi
; File D:\git\src\IBK\IBK_DRFN\ProjSrc\SrcChartEx\ChartOCX\GraphDraw\GraphDataDrawer.cpp

; 1190 : 	return ( CDataConversion::GetStringThousandFormat( strCurPrice) + p_strUnit);

  00116	c6 45 fc 06	 mov	 BYTE PTR __$EHRec$[ebp+8], 6
; File C:\Program Files (x86)\Microsoft Visual Studio\2019\Community\VC\Tools\MSVC\14.29.30133\atlmfc\include\cstringt.h

; 2390 : 		CStringT strResult( str1.GetManager() );

  0011a	ff 15 00 00 00
	00		 call	 DWORD PTR __imp_?GetManager@?$CStringT@DV?$StrTraitMFC_DLL@DV?$ChTraitsCRT@D@ATL@@@@@ATL@@QBEPAUIAtlStringMgr@2@XZ
  00120	8b 7d 08	 mov	 edi, DWORD PTR ___$ReturnUdt$[ebp]
  00123	8b cf		 mov	 ecx, edi
  00125	50		 push	 eax
  00126	ff 15 00 00 00
	00		 call	 DWORD PTR __imp_??0?$CStringT@DV?$StrTraitMFC_DLL@DV?$ChTraitsCRT@D@ATL@@@@@ATL@@QAE@PAUIAtlStringMgr@1@@Z
; File C:\Program Files (x86)\Microsoft Visual Studio\2019\Community\VC\Tools\MSVC\14.29.30133\atlmfc\include\atlsimpstr.h

; 519  : 		return( GetData()->nDataLength );

  0012c	8b 45 18	 mov	 eax, DWORD PTR _p_strUnit$[ebp]
  0012f	8b 0e		 mov	 ecx, DWORD PTR [esi]
; File C:\Program Files (x86)\Microsoft Visual Studio\2019\Community\VC\Tools\MSVC\14.29.30133\atlmfc\include\cstringt.h

; 2394 : 		return( strResult );

  00131	c7 45 ec 02 00
	00 00		 mov	 DWORD PTR $T2[ebp], 2
; File C:\Program Files (x86)\Microsoft Visual Studio\2019\Community\VC\Tools\MSVC\14.29.30133\atlmfc\include\atlsimpstr.h

; 519  : 		return( GetData()->nDataLength );

  00138	8b 00		 mov	 eax, DWORD PTR [eax]
; File C:\Program Files (x86)\Microsoft Visual Studio\2019\Community\VC\Tools\MSVC\14.29.30133\atlmfc\include\cstringt.h

; 2392 : 		CThisSimpleString::Concatenate( strResult, str1, str1.GetLength(), str2, str2.GetLength() );

  0013a	ff 70 f4	 push	 DWORD PTR [eax-12]
  0013d	50		 push	 eax
  0013e	ff 71 f4	 push	 DWORD PTR [ecx-12]
  00141	51		 push	 ecx
  00142	57		 push	 edi
  00143	ff 15 00 00 00
	00		 call	 DWORD PTR __imp_?Concatenate@?$CSimpleStringT@D$00@ATL@@KAXAAV12@PBDH1H@Z
  00149	83 c4 14	 add	 esp, 20			; 00000014H
; File D:\git\src\IBK\IBK_DRFN\ProjSrc\SrcChartEx\ChartOCX\GraphDraw\GraphDataDrawer.cpp

; 1190 : 	return ( CDataConversion::GetStringThousandFormat( strCurPrice) + p_strUnit);

  0014c	8d 4d 14	 lea	 ecx, DWORD PTR $T3[ebp]
  0014f	ff 15 00 00 00
	00		 call	 DWORD PTR __imp_??1?$CStringT@DV?$StrTraitMFC_DLL@DV?$ChTraitsCRT@D@ATL@@@@@ATL@@QAE@XZ
  00155	8d 4d f0	 lea	 ecx, DWORD PTR _strCurPrice$[ebp]
  00158	ff 15 00 00 00
	00		 call	 DWORD PTR __imp_??1?$CStringT@DV?$StrTraitMFC_DLL@DV?$ChTraitsCRT@D@ATL@@@@@ATL@@QAE@XZ
  0015e	8b c7		 mov	 eax, edi

; 1191 : 	//>>
; 1192 : }

  00160	8b 4d f4	 mov	 ecx, DWORD PTR __$EHRec$[ebp]
  00163	64 89 0d 00 00
	00 00		 mov	 DWORD PTR fs:0, ecx
  0016a	59		 pop	 ecx
  0016b	5f		 pop	 edi
  0016c	5e		 pop	 esi
  0016d	8b e5		 mov	 esp, ebp
  0016f	5d		 pop	 ebp
  00170	c2 18 00	 ret	 24			; 00000018H
_TEXT	ENDS
;	COMDAT text$x
text$x	SEGMENT
__unwindfunclet$?GetText_Price@CDataInRightScaleRegionDrawer@@ABE?AV?$CStringT@DV?$StrTraitMFC_DLL@DV?$ChTraitsCRT@D@ATL@@@@@ATL@@NABV23@0H@Z$0:
  00000	8d 4d f0	 lea	 ecx, DWORD PTR _strCurPrice$[ebp]
  00003	ff 25 00 00 00
	00		 jmp	 DWORD PTR __imp_??1?$CStringT@DV?$StrTraitMFC_DLL@DV?$ChTraitsCRT@D@ATL@@@@@ATL@@QAE@XZ
__unwindfunclet$?GetText_Price@CDataInRightScaleRegionDrawer@@ABE?AV?$CStringT@DV?$StrTraitMFC_DLL@DV?$ChTraitsCRT@D@ATL@@@@@ATL@@NABV23@0H@Z$1:
  00009	8d 4d 14	 lea	 ecx, DWORD PTR $T6[ebp]
  0000c	ff 25 00 00 00
	00		 jmp	 DWORD PTR __imp_??1?$CStringT@DV?$StrTraitMFC_DLL@DV?$ChTraitsCRT@D@ATL@@@@@ATL@@QAE@XZ
__unwindfunclet$?GetText_Price@CDataInRightScaleRegionDrawer@@ABE?AV?$CStringT@DV?$StrTraitMFC_DLL@DV?$ChTraitsCRT@D@ATL@@@@@ATL@@NABV23@0H@Z$2:
  00012	8d 4d 14	 lea	 ecx, DWORD PTR $T5[ebp]
  00015	ff 25 00 00 00
	00		 jmp	 DWORD PTR __imp_??1?$CStringT@DV?$StrTraitMFC_DLL@DV?$ChTraitsCRT@D@ATL@@@@@ATL@@QAE@XZ
__unwindfunclet$?GetText_Price@CDataInRightScaleRegionDrawer@@ABE?AV?$CStringT@DV?$StrTraitMFC_DLL@DV?$ChTraitsCRT@D@ATL@@@@@ATL@@NABV23@0H@Z$3:
  0001b	8d 4d 14	 lea	 ecx, DWORD PTR _strPacketType$4[ebp]
  0001e	ff 25 00 00 00
	00		 jmp	 DWORD PTR __imp_??1?$CStringT@DV?$StrTraitMFC_DLL@DV?$ChTraitsCRT@D@ATL@@@@@ATL@@QAE@XZ
__unwindfunclet$?GetText_Price@CDataInRightScaleRegionDrawer@@ABE?AV?$CStringT@DV?$StrTraitMFC_DLL@DV?$ChTraitsCRT@D@ATL@@@@@ATL@@NABV23@0H@Z$4:
  00024	8d 4d 1c	 lea	 ecx, DWORD PTR $T7[ebp]
  00027	ff 25 00 00 00
	00		 jmp	 DWORD PTR __imp_??1?$CStringT@DV?$StrTraitMFC_DLL@DV?$ChTraitsCRT@D@ATL@@@@@ATL@@QAE@XZ
__unwindfunclet$?GetText_Price@CDataInRightScaleRegionDrawer@@ABE?AV?$CStringT@DV?$StrTraitMFC_DLL@DV?$ChTraitsCRT@D@ATL@@@@@ATL@@NABV23@0H@Z$5:
  0002d	8d 4d 14	 lea	 ecx, DWORD PTR $T3[ebp]
  00030	ff 25 00 00 00
	00		 jmp	 DWORD PTR __imp_??1?$CStringT@DV?$StrTraitMFC_DLL@DV?$ChTraitsCRT@D@ATL@@@@@ATL@@QAE@XZ
__unwindfunclet$?GetText_Price@CDataInRightScaleRegionDrawer@@ABE?AV?$CStringT@DV?$StrTraitMFC_DLL@DV?$ChTraitsCRT@D@ATL@@@@@ATL@@NABV23@0H@Z$7:
  00036	8b 45 ec	 mov	 eax, DWORD PTR $T2[ebp]
  00039	83 e0 02	 and	 eax, 2
  0003c	0f 84 0d 00 00
	00		 je	 $LN21@GetText_Pr
  00042	83 65 ec fd	 and	 DWORD PTR $T2[ebp], -3	; fffffffdH
  00046	8b 4d 08	 mov	 ecx, DWORD PTR ___$ReturnUdt$[ebp]
  00049	ff 25 00 00 00
	00		 jmp	 DWORD PTR __imp_??1?$CStringT@DV?$StrTraitMFC_DLL@DV?$ChTraitsCRT@D@ATL@@@@@ATL@@QAE@XZ
$LN21@GetText_Pr:
  0004f	c3		 ret	 0
  00050	cc		 int	 3
  00051	cc		 int	 3
  00052	cc		 int	 3
  00053	cc		 int	 3
  00054	cc		 int	 3
__ehhandler$?GetText_Price@CDataInRightScaleRegionDrawer@@ABE?AV?$CStringT@DV?$StrTraitMFC_DLL@DV?$ChTraitsCRT@D@ATL@@@@@ATL@@NABV23@0H@Z:
  00055	90		 npad	 1
  00056	90		 npad	 1
  00057	8b 54 24 08	 mov	 edx, DWORD PTR [esp+8]
  0005b	8d 42 0c	 lea	 eax, DWORD PTR [edx+12]
  0005e	8b 4a ec	 mov	 ecx, DWORD PTR [edx-20]
  00061	33 c8		 xor	 ecx, eax
  00063	e8 00 00 00 00	 call	 @__security_check_cookie@4
  00068	b8 00 00 00 00	 mov	 eax, OFFSET __ehfuncinfo$?GetText_Price@CDataInRightScaleRegionDrawer@@ABE?AV?$CStringT@DV?$StrTraitMFC_DLL@DV?$ChTraitsCRT@D@ATL@@@@@ATL@@NABV23@0H@Z
  0006d	e9 00 00 00 00	 jmp	 ___CxxFrameHandler3
text$x	ENDS
?GetText_Price@CDataInRightScaleRegionDrawer@@ABE?AV?$CStringT@DV?$StrTraitMFC_DLL@DV?$ChTraitsCRT@D@ATL@@@@@ATL@@NABV23@0H@Z ENDP ; CDataInRightScaleRegionDrawer::GetText_Price
; Function compile flags: /Ogtp
; File D:\git\src\IBK\IBK_DRFN\ProjSrc\SrcChartEx\ChartOCX\GraphDraw\GraphDataDrawer.cpp
; File C:\Program Files (x86)\Microsoft Visual Studio\2019\Community\VC\Tools\MSVC\14.29.30133\atlmfc\include\atltypes.h
; File D:\git\src\IBK\IBK_DRFN\ProjSrc\SrcChartEx\ChartOCX\GraphDraw\GraphDataDrawer.cpp
; File C:\Program Files (x86)\Microsoft Visual Studio\2019\Community\VC\Tools\MSVC\14.29.30133\atlmfc\include\atlsimpstr.h
; File D:\git\src\IBK\IBK_DRFN\ProjSrc\SrcChartEx\ChartOCX\GraphDraw\GraphDataDrawer.cpp
; File C:\Program Files (x86)\Microsoft Visual Studio\2019\Community\VC\Tools\MSVC\14.29.30133\atlmfc\include\atlsimpstr.h
; File D:\git\src\IBK\IBK_DRFN\ProjSrc\SrcChartEx\ChartOCX\GraphDraw\GraphDataDrawer.cpp
; File C:\Program Files (x86)\Microsoft Visual Studio\2019\Community\VC\Tools\MSVC\14.29.30133\atlmfc\include\cstringt.h
; File D:\git\src\IBK\IBK_DRFN\ProjSrc\SrcChartEx\ChartOCX\GraphDraw\GraphDataDrawer.cpp
; File C:\Program Files (x86)\Microsoft Visual Studio\2019\Community\VC\Tools\MSVC\14.29.30133\atlmfc\include\cstringt.h
; File D:\git\src\IBK\IBK_DRFN\ProjSrc\SrcChartEx\ChartOCX\GraphDraw\GraphDataDrawer.cpp
; File C:\Program Files (x86)\Microsoft Visual Studio\2019\Community\VC\Tools\MSVC\14.29.30133\atlmfc\include\cstringt.h
; File D:\git\src\IBK\IBK_DRFN\ProjSrc\SrcChartEx\ChartOCX\GraphDraw\GraphDataDrawer.cpp
; File C:\Program Files (x86)\Microsoft Visual Studio\2019\Community\VC\Tools\MSVC\14.29.30133\atlmfc\include\cstringt.h
; File D:\git\src\IBK\IBK_DRFN\ProjSrc\SrcChartEx\ChartOCX\GraphDraw\GraphDataDrawer.cpp
; File C:\Program Files (x86)\Microsoft Visual Studio\2019\Community\VC\Tools\MSVC\14.29.30133\atlmfc\include\cstringt.h
; File C:\Program Files (x86)\Microsoft Visual Studio\2019\Community\VC\Tools\MSVC\14.29.30133\atlmfc\include\atlsimpstr.h
; File C:\Program Files (x86)\Microsoft Visual Studio\2019\Community\VC\Tools\MSVC\14.29.30133\atlmfc\include\cstringt.h
; File D:\git\src\IBK\IBK_DRFN\ProjSrc\SrcChartEx\ChartOCX\GraphDraw\GraphDataDrawer.cpp
; File C:\Program Files (x86)\Microsoft Visual Studio\2019\Community\VC\Tools\MSVC\14.29.30133\atlmfc\include\cstringt.h
; File C:\Program Files (x86)\Microsoft Visual Studio\2019\Community\VC\Tools\MSVC\14.29.30133\atlmfc\include\atlsimpstr.h
; File C:\Program Files (x86)\Microsoft Visual Studio\2019\Community\VC\Tools\MSVC\14.29.30133\atlmfc\include\cstringt.h
; File D:\git\src\IBK\IBK_DRFN\ProjSrc\SrcChartEx\ChartOCX\GraphDraw\GraphDataDrawer.cpp
; File C:\Program Files (x86)\Microsoft Visual Studio\2019\Community\VC\Tools\MSVC\14.29.30133\atlmfc\include\cstringt.h
; File D:\git\src\IBK\IBK_DRFN\ProjSrc\SrcChartEx\ChartOCX\GraphDraw\GraphDataDrawer.cpp
; File C:\Program Files (x86)\Microsoft Visual Studio\2019\Community\VC\Tools\MSVC\14.29.30133\atlmfc\include\atlsimpstr.h
; File D:\git\src\IBK\IBK_DRFN\ProjSrc\SrcChartEx\ChartOCX\GraphDraw\GraphDataDrawer.cpp
; File C:\Program Files (x86)\Microsoft Visual Studio\2019\Community\VC\Tools\MSVC\14.29.30133\atlmfc\include\atlsimpstr.h
; File D:\git\src\IBK\IBK_DRFN\ProjSrc\SrcChartEx\ChartOCX\GraphDraw\GraphDataDrawer.cpp
; File C:\Program Files (x86)\Microsoft Visual Studio\2019\Community\VC\Tools\MSVC\14.29.30133\atlmfc\include\atlsimpstr.h
; File D:\git\src\IBK\IBK_DRFN\ProjSrc\SrcChartEx\ChartOCX\GraphDraw\GraphDataDrawer.cpp
;	COMDAT ?GetText@CDataInRightScaleRegionDrawer@@ABE_NABVCRect@@ABVCPrices@@HAAV?$CStringT@DV?$StrTraitMFC_DLL@DV?$ChTraitsCRT@D@ATL@@@@@ATL@@222@Z
_TEXT	SEGMENT
$T2 = -36						; size = 8
$T3 = -32						; size = 4
$T4 = -32						; size = 4
_dPrevPrice$5 = -28					; size = 8
$T6 = -24						; size = 4
$T7 = -20						; size = 4
$T8 = -20						; size = 4
_this$1$ = -16						; size = 4
__$EHRec$ = -12						; size = 12
_strMaxLenValue$ = 8					; size = 4
_region$ = 8						; size = 4
$T9 = 12						; size = 4
_prices$ = 12						; size = 4
$T10 = 16						; size = 4
$T11 = 16						; size = 4
_nCurDataType$ = 16					; size = 4
$T12 = 20						; size = 4
$T13 = 20						; size = 4
$T14 = 20						; size = 4
_strCurPrice$ = 20					; size = 4
$T15 = 24						; size = 4
$T16 = 24						; size = 4
_strDiffPrice$ = 24					; size = 4
$T17 = 27						; size = 1
$T18 = 28						; size = 4
$T19 = 28						; size = 4
_strPipPrice$ = 28					; size = 4
_strRiseFallRate$ = 32					; size = 4
?GetText@CDataInRightScaleRegionDrawer@@ABE_NABVCRect@@ABVCPrices@@HAAV?$CStringT@DV?$StrTraitMFC_DLL@DV?$ChTraitsCRT@D@ATL@@@@@ATL@@222@Z PROC ; CDataInRightScaleRegionDrawer::GetText, COMDAT
; _this$ = ecx

; 1078 : {

  00000	55		 push	 ebp
  00001	8b ec		 mov	 ebp, esp
  00003	6a ff		 push	 -1
  00005	68 00 00 00 00	 push	 __ehhandler$?GetText@CDataInRightScaleRegionDrawer@@ABE_NABVCRect@@ABVCPrices@@HAAV?$CStringT@DV?$StrTraitMFC_DLL@DV?$ChTraitsCRT@D@ATL@@@@@ATL@@222@Z
  0000a	64 a1 00 00 00
	00		 mov	 eax, DWORD PTR fs:0
  00010	50		 push	 eax
  00011	83 ec 18	 sub	 esp, 24			; 00000018H
  00014	56		 push	 esi
  00015	57		 push	 edi
  00016	a1 00 00 00 00	 mov	 eax, DWORD PTR ___security_cookie
  0001b	33 c5		 xor	 eax, ebp
  0001d	50		 push	 eax
  0001e	8d 45 f4	 lea	 eax, DWORD PTR __$EHRec$[ebp]
  00021	64 a3 00 00 00
	00		 mov	 DWORD PTR fs:0, eax
  00027	8b f1		 mov	 esi, ecx
  00029	89 75 f0	 mov	 DWORD PTR _this$1$[ebp], esi
  0002c	c7 45 ec 00 00
	00 00		 mov	 DWORD PTR $T7[ebp], 0
; File C:\Program Files (x86)\Microsoft Visual Studio\2019\Community\VC\Tools\MSVC\14.29.30133\atlmfc\include\atltypes.h

; 576  : 	return right - left;

  00033	8b 45 08	 mov	 eax, DWORD PTR _region$[ebp]
  00036	8b 50 08	 mov	 edx, DWORD PTR [eax+8]
  00039	2b 10		 sub	 edx, DWORD PTR [eax]
; File D:\git\src\IBK\IBK_DRFN\ProjSrc\SrcChartEx\ChartOCX\GraphDraw\GraphDataDrawer.cpp

; 1197 : 	return (region.Width() > 10);

  0003b	83 fa 0a	 cmp	 edx, 10			; 0000000aH

; 1079 : 	if(!IsGraphDataDraw(region))

  0003e	7f 15		 jg	 SHORT $LN2@GetText

; 1080 : 		return false;

  00040	32 c0		 xor	 al, al

; 1128 : }

  00042	8b 4d f4	 mov	 ecx, DWORD PTR __$EHRec$[ebp]
  00045	64 89 0d 00 00
	00 00		 mov	 DWORD PTR fs:0, ecx
  0004c	59		 pop	 ecx
  0004d	5f		 pop	 edi
  0004e	5e		 pop	 esi
  0004f	8b e5		 mov	 esp, ebp
  00051	5d		 pop	 ebp
  00052	c2 1c 00	 ret	 28			; 0000001cH
$LN2@GetText:

; 1081 : 
; 1082 : // 	// 
; 1083 : // 	strCurPrice = GetText_CurrentPrice(prices, p_strPacketType);
; 1084 : // 
; 1085 : // 	//    
; 1086 : // 	if(IsGraphDataDraw_Rate(region, prices))
; 1087 : // 		strRiseFallRate = CRateDrawer::GetRateText(prices.GetPrev(), prices.GetDifference());
; 1088 : // 
; 1089 : // 	return (!strCurPrice.IsEmpty() || !strRiseFallRate.IsEmpty());
; 1090 : 
; 1091 : 	CString strMaxLenValue;

  00055	8d 4d 08	 lea	 ecx, DWORD PTR _strMaxLenValue$[ebp]
  00058	ff 15 00 00 00
	00		 call	 DWORD PTR __imp_??0?$CStringT@DV?$StrTraitMFC_DLL@DV?$ChTraitsCRT@D@ATL@@@@@ATL@@QAE@XZ

; 122  : 	return m_strDataUnit;

  0005e	8b 7d 0c	 mov	 edi, DWORD PTR _prices$[ebp]
  00061	8d 4d e8	 lea	 ecx, DWORD PTR $T6[ebp]

; 1081 : 
; 1082 : // 	// 
; 1083 : // 	strCurPrice = GetText_CurrentPrice(prices, p_strPacketType);
; 1084 : // 
; 1085 : // 	//    
; 1086 : // 	if(IsGraphDataDraw_Rate(region, prices))
; 1087 : // 		strRiseFallRate = CRateDrawer::GetRateText(prices.GetPrev(), prices.GetDifference());
; 1088 : // 
; 1089 : // 	return (!strCurPrice.IsEmpty() || !strRiseFallRate.IsEmpty());
; 1090 : 
; 1091 : 	CString strMaxLenValue;

  00064	c7 45 fc 00 00
	00 00		 mov	 DWORD PTR __$EHRec$[ebp+8], 0

; 122  : 	return m_strDataUnit;

  0006b	8d 47 20	 lea	 eax, DWORD PTR [edi+32]
  0006e	50		 push	 eax
  0006f	ff 15 00 00 00
	00		 call	 DWORD PTR __imp_??0?$CStringT@DV?$StrTraitMFC_DLL@DV?$ChTraitsCRT@D@ATL@@@@@ATL@@QAE@ABV01@@Z

; 127  : 	return m_strPacketType;

  00075	8d 47 24	 lea	 eax, DWORD PTR [edi+36]

; 1092 : 
; 1093 : 	// 
; 1094 : 	// nCurDataType : 1, 2, 3, 4, 5, 6, 7, 8, 9, 10
; 1095 : 	strCurPrice = GetText_Price( prices.GetCur(), prices.GetPacketType(), prices.GetDataUnit(), prices.GetDecimalDownCount());

  00078	c6 45 fc 01	 mov	 BYTE PTR __$EHRec$[ebp+8], 1

; 127  : 	return m_strPacketType;

  0007c	50		 push	 eax
  0007d	8d 4d ec	 lea	 ecx, DWORD PTR $T8[ebp]
  00080	ff 15 00 00 00
	00		 call	 DWORD PTR __imp_??0?$CStringT@DV?$StrTraitMFC_DLL@DV?$ChTraitsCRT@D@ATL@@@@@ATL@@QAE@ABV01@@Z
  00086	b8 06 00 00 00	 mov	 eax, 6
  0008b	89 45 0c	 mov	 DWORD PTR $T9[ebp], eax

; 1092 : 
; 1093 : 	// 
; 1094 : 	// nCurDataType : 1, 2, 3, 4, 5, 6, 7, 8, 9, 10
; 1095 : 	strCurPrice = GetText_Price( prices.GetCur(), prices.GetPacketType(), prices.GetDataUnit(), prices.GetDecimalDownCount());

  0008e	ff 77 10	 push	 DWORD PTR [edi+16]
  00091	f2 0f 10 47 08	 movsd	 xmm0, QWORD PTR [edi+8]
  00096	8d 45 e8	 lea	 eax, DWORD PTR $T6[ebp]
  00099	50		 push	 eax
  0009a	8d 45 ec	 lea	 eax, DWORD PTR $T8[ebp]
  0009d	c6 45 fc 02	 mov	 BYTE PTR __$EHRec$[ebp+8], 2
  000a1	50		 push	 eax
  000a2	83 ec 08	 sub	 esp, 8
  000a5	8d 45 e0	 lea	 eax, DWORD PTR $T4[ebp]
  000a8	8b ce		 mov	 ecx, esi
  000aa	f2 0f 11 04 24	 movsd	 QWORD PTR [esp], xmm0
  000af	50		 push	 eax
  000b0	e8 00 00 00 00	 call	 ?GetText_Price@CDataInRightScaleRegionDrawer@@ABE?AV?$CStringT@DV?$StrTraitMFC_DLL@DV?$ChTraitsCRT@D@ATL@@@@@ATL@@NABV23@0H@Z ; CDataInRightScaleRegionDrawer::GetText_Price
  000b5	8b 75 14	 mov	 esi, DWORD PTR _strCurPrice$[ebp]
  000b8	8b ce		 mov	 ecx, esi
  000ba	50		 push	 eax
  000bb	c6 45 fc 03	 mov	 BYTE PTR __$EHRec$[ebp+8], 3
  000bf	ff 15 00 00 00
	00		 call	 DWORD PTR __imp_??4?$CStringT@DV?$StrTraitMFC_DLL@DV?$ChTraitsCRT@D@ATL@@@@@ATL@@QAEAAV01@ABV01@@Z
  000c5	8d 4d e0	 lea	 ecx, DWORD PTR $T4[ebp]
  000c8	ff 15 00 00 00
	00		 call	 DWORD PTR __imp_??1?$CStringT@DV?$StrTraitMFC_DLL@DV?$ChTraitsCRT@D@ATL@@@@@ATL@@QAE@XZ
  000ce	8d 4d ec	 lea	 ecx, DWORD PTR $T8[ebp]
  000d1	ff 15 00 00 00
	00		 call	 DWORD PTR __imp_??1?$CStringT@DV?$StrTraitMFC_DLL@DV?$ChTraitsCRT@D@ATL@@@@@ATL@@QAE@XZ
  000d7	8d 4d e8	 lea	 ecx, DWORD PTR $T6[ebp]
  000da	c6 45 fc 00	 mov	 BYTE PTR __$EHRec$[ebp+8], 0
  000de	ff 15 00 00 00
	00		 call	 DWORD PTR __imp_??1?$CStringT@DV?$StrTraitMFC_DLL@DV?$ChTraitsCRT@D@ATL@@@@@ATL@@QAE@XZ

; 1096 : 	strMaxLenValue = strCurPrice;

  000e4	56		 push	 esi
  000e5	8d 4d 08	 lea	 ecx, DWORD PTR _strMaxLenValue$[ebp]
  000e8	ff 15 00 00 00
	00		 call	 DWORD PTR __imp_??4?$CStringT@DV?$StrTraitMFC_DLL@DV?$ChTraitsCRT@D@ATL@@@@@ATL@@QAEAAV01@ABV01@@Z

; 1097 : 
; 1098 : 	// (2010/5/12 - Seung-Won, Bae) Add Diff Value.
; 1099 : 	// nCurDataType : 5, 6, 9, 10
; 1100 : 	if( 5 == nCurDataType || 6 == nCurDataType || 9 == nCurDataType || 10 == nCurDataType)

  000ee	8b 75 10	 mov	 esi, DWORD PTR _nCurDataType$[ebp]
  000f1	83 fe 05	 cmp	 esi, 5
  000f4	74 13		 je	 SHORT $LN4@GetText
  000f6	83 fe 06	 cmp	 esi, 6
  000f9	74 0e		 je	 SHORT $LN4@GetText
  000fb	83 fe 09	 cmp	 esi, 9
  000fe	74 09		 je	 SHORT $LN4@GetText
  00100	83 fe 0a	 cmp	 esi, 10			; 0000000aH
  00103	0f 85 99 00 00
	00		 jne	 $LN5@GetText
$LN4@GetText:

; 122  : 	return m_strDataUnit;

  00109	8d 47 20	 lea	 eax, DWORD PTR [edi+32]
  0010c	50		 push	 eax
  0010d	8d 4d 10	 lea	 ecx, DWORD PTR $T11[ebp]
  00110	ff 15 00 00 00
	00		 call	 DWORD PTR __imp_??0?$CStringT@DV?$StrTraitMFC_DLL@DV?$ChTraitsCRT@D@ATL@@@@@ATL@@QAE@ABV01@@Z

; 127  : 	return m_strPacketType;

  00116	8d 47 24	 lea	 eax, DWORD PTR [edi+36]

; 1101 : 	{
; 1102 : 		strDiffPrice = GetText_Price( prices.GetDifference(), prices.GetPacketType(), prices.GetDataUnit(), prices.GetDecimalDownCount());

  00119	c6 45 fc 04	 mov	 BYTE PTR __$EHRec$[ebp+8], 4

; 127  : 	return m_strPacketType;

  0011d	50		 push	 eax
  0011e	8d 4d 14	 lea	 ecx, DWORD PTR $T14[ebp]
  00121	ff 15 00 00 00
	00		 call	 DWORD PTR __imp_??0?$CStringT@DV?$StrTraitMFC_DLL@DV?$ChTraitsCRT@D@ATL@@@@@ATL@@QAE@ABV01@@Z
  00127	b8 1e 00 00 00	 mov	 eax, 30			; 0000001eH
  0012c	89 45 0c	 mov	 DWORD PTR $T9[ebp], eax

; 1101 : 	{
; 1102 : 		strDiffPrice = GetText_Price( prices.GetDifference(), prices.GetPacketType(), prices.GetDataUnit(), prices.GetDecimalDownCount());

  0012f	ff 77 10	 push	 DWORD PTR [edi+16]

; 106  : 	return (m_dCurPrice - m_dPrevPrice);

  00132	f2 0f 10 47 08	 movsd	 xmm0, QWORD PTR [edi+8]

; 1101 : 	{
; 1102 : 		strDiffPrice = GetText_Price( prices.GetDifference(), prices.GetPacketType(), prices.GetDataUnit(), prices.GetDecimalDownCount());

  00137	8d 45 10	 lea	 eax, DWORD PTR $T11[ebp]

; 106  : 	return (m_dCurPrice - m_dPrevPrice);

  0013a	f2 0f 5c 07	 subsd	 xmm0, QWORD PTR [edi]

; 1101 : 	{
; 1102 : 		strDiffPrice = GetText_Price( prices.GetDifference(), prices.GetPacketType(), prices.GetDataUnit(), prices.GetDecimalDownCount());

  0013e	8b 4d f0	 mov	 ecx, DWORD PTR _this$1$[ebp]
  00141	50		 push	 eax
  00142	8d 45 14	 lea	 eax, DWORD PTR $T14[ebp]
  00145	c6 45 fc 05	 mov	 BYTE PTR __$EHRec$[ebp+8], 5
  00149	50		 push	 eax
  0014a	83 ec 08	 sub	 esp, 8
  0014d	8d 45 e0	 lea	 eax, DWORD PTR $T3[ebp]
  00150	f2 0f 11 04 24	 movsd	 QWORD PTR [esp], xmm0
  00155	50		 push	 eax
  00156	e8 00 00 00 00	 call	 ?GetText_Price@CDataInRightScaleRegionDrawer@@ABE?AV?$CStringT@DV?$StrTraitMFC_DLL@DV?$ChTraitsCRT@D@ATL@@@@@ATL@@NABV23@0H@Z ; CDataInRightScaleRegionDrawer::GetText_Price
  0015b	8b 4d 18	 mov	 ecx, DWORD PTR _strDiffPrice$[ebp]
  0015e	50		 push	 eax
  0015f	c6 45 fc 06	 mov	 BYTE PTR __$EHRec$[ebp+8], 6
  00163	ff 15 00 00 00
	00		 call	 DWORD PTR __imp_??4?$CStringT@DV?$StrTraitMFC_DLL@DV?$ChTraitsCRT@D@ATL@@@@@ATL@@QAEAAV01@ABV01@@Z
  00169	8d 4d e0	 lea	 ecx, DWORD PTR $T3[ebp]
  0016c	ff 15 00 00 00
	00		 call	 DWORD PTR __imp_??1?$CStringT@DV?$StrTraitMFC_DLL@DV?$ChTraitsCRT@D@ATL@@@@@ATL@@QAE@XZ
  00172	8d 4d 14	 lea	 ecx, DWORD PTR $T14[ebp]
  00175	ff 15 00 00 00
	00		 call	 DWORD PTR __imp_??1?$CStringT@DV?$StrTraitMFC_DLL@DV?$ChTraitsCRT@D@ATL@@@@@ATL@@QAE@XZ
  0017b	8d 4d 10	 lea	 ecx, DWORD PTR $T11[ebp]
  0017e	c6 45 fc 00	 mov	 BYTE PTR __$EHRec$[ebp+8], 0
  00182	ff 15 00 00 00
	00		 call	 DWORD PTR __imp_??1?$CStringT@DV?$StrTraitMFC_DLL@DV?$ChTraitsCRT@D@ATL@@@@@ATL@@QAE@XZ
; File C:\Program Files (x86)\Microsoft Visual Studio\2019\Community\VC\Tools\MSVC\14.29.30133\atlmfc\include\atlsimpstr.h

; 519  : 		return( GetData()->nDataLength );

  00188	8b 45 08	 mov	 eax, DWORD PTR _strMaxLenValue$[ebp]
  0018b	8b 55 18	 mov	 edx, DWORD PTR _strDiffPrice$[ebp]
  0018e	8b 48 f4	 mov	 ecx, DWORD PTR [eax-12]
  00191	8b 02		 mov	 eax, DWORD PTR [edx]
; File D:\git\src\IBK\IBK_DRFN\ProjSrc\SrcChartEx\ChartOCX\GraphDraw\GraphDataDrawer.cpp

; 1103 : 		if( strMaxLenValue.GetLength() < strDiffPrice.GetLength())

  00193	3b 48 f4	 cmp	 ecx, DWORD PTR [eax-12]
  00196	7d 0a		 jge	 SHORT $LN5@GetText

; 1104 : 			strMaxLenValue = strDiffPrice;

  00198	52		 push	 edx
  00199	8d 4d 08	 lea	 ecx, DWORD PTR _strMaxLenValue$[ebp]
  0019c	ff 15 00 00 00
	00		 call	 DWORD PTR __imp_??4?$CStringT@DV?$StrTraitMFC_DLL@DV?$ChTraitsCRT@D@ATL@@@@@ATL@@QAEAAV01@ABV01@@Z
$LN5@GetText:

; 1105 : 	}
; 1106 : 
; 1107 : 	// nCurDataType : 7, 8
; 1108 : 	if( 0 <= prices.GetPipSize()) if( 7 == nCurDataType || 8 == nCurDataType)

  001a2	f2 0f 10 47 18	 movsd	 xmm0, QWORD PTR [edi+24]
  001a7	0f 57 c9	 xorps	 xmm1, xmm1
  001aa	66 0f 2f c1	 comisd	 xmm0, xmm1
  001ae	0f 82 b4 00 00
	00		 jb	 $LN9@GetText
  001b4	83 fe 07	 cmp	 esi, 7
  001b7	74 09		 je	 SHORT $LN8@GetText
  001b9	83 fe 08	 cmp	 esi, 8
  001bc	0f 85 a6 00 00
	00		 jne	 $LN9@GetText
$LN8@GetText:

; 1109 : 	{
; 1110 : 		strPipPrice = GetText_Price( ( prices.GetDifference()) / ( prices.GetPipSize() * 10), "X0.1", "", 1);

  001c2	68 00 00 00 00	 push	 OFFSET ??_C@_00CNPNBAHC@@
  001c7	8d 4d 14	 lea	 ecx, DWORD PTR $T13[ebp]
  001ca	ff 15 00 00 00
	00		 call	 DWORD PTR __imp_??0?$CStringT@DV?$StrTraitMFC_DLL@DV?$ChTraitsCRT@D@ATL@@@@@ATL@@QAE@PBD@Z
  001d0	68 00 00 00 00	 push	 OFFSET ??_C@_04DFBLBIBB@X0?41@
  001d5	8d 4d 18	 lea	 ecx, DWORD PTR $T16[ebp]
  001d8	c6 45 fc 07	 mov	 BYTE PTR __$EHRec$[ebp+8], 7
  001dc	ff 15 00 00 00
	00		 call	 DWORD PTR __imp_??0?$CStringT@DV?$StrTraitMFC_DLL@DV?$ChTraitsCRT@D@ATL@@@@@ATL@@QAE@PBD@Z

; 106  : 	return (m_dCurPrice - m_dPrevPrice);

  001e2	f2 0f 10 4f 08	 movsd	 xmm1, QWORD PTR [edi+8]

; 1109 : 	{
; 1110 : 		strPipPrice = GetText_Price( ( prices.GetDifference()) / ( prices.GetPipSize() * 10), "X0.1", "", 1);

  001e7	8d 45 14	 lea	 eax, DWORD PTR $T13[ebp]
  001ea	f2 0f 10 47 18	 movsd	 xmm0, QWORD PTR [edi+24]

; 106  : 	return (m_dCurPrice - m_dPrevPrice);

  001ef	f2 0f 5c 0f	 subsd	 xmm1, QWORD PTR [edi]

; 1109 : 	{
; 1110 : 		strPipPrice = GetText_Price( ( prices.GetDifference()) / ( prices.GetPipSize() * 10), "X0.1", "", 1);

  001f3	f2 0f 59 05 00
	00 00 00	 mulsd	 xmm0, QWORD PTR __real@4024000000000000
  001fb	8b 4d f0	 mov	 ecx, DWORD PTR _this$1$[ebp]
  001fe	6a 01		 push	 1
  00200	50		 push	 eax
  00201	8d 45 18	 lea	 eax, DWORD PTR $T16[ebp]
  00204	c6 45 fc 08	 mov	 BYTE PTR __$EHRec$[ebp+8], 8
  00208	f2 0f 5e c8	 divsd	 xmm1, xmm0
  0020c	50		 push	 eax
  0020d	83 ec 08	 sub	 esp, 8
  00210	8d 45 10	 lea	 eax, DWORD PTR $T10[ebp]
  00213	f2 0f 11 0c 24	 movsd	 QWORD PTR [esp], xmm1
  00218	50		 push	 eax
  00219	e8 00 00 00 00	 call	 ?GetText_Price@CDataInRightScaleRegionDrawer@@ABE?AV?$CStringT@DV?$StrTraitMFC_DLL@DV?$ChTraitsCRT@D@ATL@@@@@ATL@@NABV23@0H@Z ; CDataInRightScaleRegionDrawer::GetText_Price
  0021e	8b 4d 1c	 mov	 ecx, DWORD PTR _strPipPrice$[ebp]
  00221	50		 push	 eax
  00222	c6 45 fc 09	 mov	 BYTE PTR __$EHRec$[ebp+8], 9
  00226	ff 15 00 00 00
	00		 call	 DWORD PTR __imp_??4?$CStringT@DV?$StrTraitMFC_DLL@DV?$ChTraitsCRT@D@ATL@@@@@ATL@@QAEAAV01@ABV01@@Z
  0022c	8d 4d 10	 lea	 ecx, DWORD PTR $T10[ebp]
  0022f	ff 15 00 00 00
	00		 call	 DWORD PTR __imp_??1?$CStringT@DV?$StrTraitMFC_DLL@DV?$ChTraitsCRT@D@ATL@@@@@ATL@@QAE@XZ
  00235	8d 4d 18	 lea	 ecx, DWORD PTR $T16[ebp]
  00238	ff 15 00 00 00
	00		 call	 DWORD PTR __imp_??1?$CStringT@DV?$StrTraitMFC_DLL@DV?$ChTraitsCRT@D@ATL@@@@@ATL@@QAE@XZ
  0023e	8d 4d 14	 lea	 ecx, DWORD PTR $T13[ebp]
  00241	c6 45 fc 00	 mov	 BYTE PTR __$EHRec$[ebp+8], 0
  00245	ff 15 00 00 00
	00		 call	 DWORD PTR __imp_??1?$CStringT@DV?$StrTraitMFC_DLL@DV?$ChTraitsCRT@D@ATL@@@@@ATL@@QAE@XZ
; File C:\Program Files (x86)\Microsoft Visual Studio\2019\Community\VC\Tools\MSVC\14.29.30133\atlmfc\include\atlsimpstr.h

; 519  : 		return( GetData()->nDataLength );

  0024b	8b 45 08	 mov	 eax, DWORD PTR _strMaxLenValue$[ebp]
  0024e	8b 55 1c	 mov	 edx, DWORD PTR _strPipPrice$[ebp]
  00251	8b 48 f4	 mov	 ecx, DWORD PTR [eax-12]
  00254	8b 02		 mov	 eax, DWORD PTR [edx]
; File D:\git\src\IBK\IBK_DRFN\ProjSrc\SrcChartEx\ChartOCX\GraphDraw\GraphDataDrawer.cpp

; 1111 : 		if( strMaxLenValue.GetLength() < strPipPrice.GetLength())

  00256	3b 48 f4	 cmp	 ecx, DWORD PTR [eax-12]
  00259	7d 0a		 jge	 SHORT $LN129@GetText

; 1112 : 			strMaxLenValue = strPipPrice;

  0025b	52		 push	 edx
  0025c	8d 4d 08	 lea	 ecx, DWORD PTR _strMaxLenValue$[ebp]
  0025f	ff 15 00 00 00
	00		 call	 DWORD PTR __imp_??4?$CStringT@DV?$StrTraitMFC_DLL@DV?$ChTraitsCRT@D@ATL@@@@@ATL@@QAEAAV01@ABV01@@Z
$LN129@GetText:

; 1113 : 	}
; 1114 : 
; 1115 : 	//    
; 1116 : 	// nCurDataType : 1, 2, 5, 6
; 1117 : 	if( 1 == nCurDataType || 2 == nCurDataType || 5 == nCurDataType || 6 == nCurDataType)

  00265	0f 57 c9	 xorps	 xmm1, xmm1
$LN9@GetText:
  00268	83 fe 01	 cmp	 esi, 1
  0026b	74 13		 je	 SHORT $LN11@GetText
  0026d	83 fe 02	 cmp	 esi, 2
  00270	74 0e		 je	 SHORT $LN11@GetText
  00272	83 fe 05	 cmp	 esi, 5
  00275	74 09		 je	 SHORT $LN11@GetText
  00277	83 fe 06	 cmp	 esi, 6
  0027a	0f 85 61 01 00
	00		 jne	 $LN13@GetText
$LN11@GetText:

; 96   : 	return m_dPrevPrice;

  00280	f2 0f 10 07	 movsd	 xmm0, QWORD PTR [edi]

; 1119 : 		if( prices.GetPrev() != 0.0 && prices.GetPacketType() != "%")

  00284	66 0f 2e c1	 ucomisd xmm0, xmm1
  00288	9f		 lahf
  00289	f6 c4 44	 test	 ah, 68			; 00000044H
  0028c	7b 36		 jnp	 SHORT $LN128@GetText

; 127  : 	return m_strPacketType;

  0028e	8d 47 24	 lea	 eax, DWORD PTR [edi+36]
  00291	50		 push	 eax
  00292	8d 4d 1c	 lea	 ecx, DWORD PTR $T19[ebp]
  00295	ff 15 00 00 00
	00		 call	 DWORD PTR __imp_??0?$CStringT@DV?$StrTraitMFC_DLL@DV?$ChTraitsCRT@D@ATL@@@@@ATL@@QAE@ABV01@@Z
  0029b	8b 45 0c	 mov	 eax, DWORD PTR $T9[ebp]
  0029e	83 c8 20	 or	 eax, 32			; 00000020H

; 1119 : 		if( prices.GetPrev() != 0.0 && prices.GetPacketType() != "%")

  002a1	83 c8 01	 or	 eax, 1
  002a4	c6 45 fc 0a	 mov	 BYTE PTR __$EHRec$[ebp+8], 10 ; 0000000aH
; File C:\Program Files (x86)\Microsoft Visual Studio\2019\Community\VC\Tools\MSVC\14.29.30133\atlmfc\include\cstringt.h

; 2567 : 		return( str1.Compare( psz2 ) != 0 );

  002a8	68 00 00 00 00	 push	 OFFSET ??_C@_01FGNFDNOH@?$CF@
  002ad	8d 4d 1c	 lea	 ecx, DWORD PTR $T19[ebp]
; File D:\git\src\IBK\IBK_DRFN\ProjSrc\SrcChartEx\ChartOCX\GraphDraw\GraphDataDrawer.cpp

; 1119 : 		if( prices.GetPrev() != 0.0 && prices.GetPacketType() != "%")

  002b0	89 45 0c	 mov	 DWORD PTR $T9[ebp], eax
  002b3	89 45 ec	 mov	 DWORD PTR $T7[ebp], eax
; File C:\Program Files (x86)\Microsoft Visual Studio\2019\Community\VC\Tools\MSVC\14.29.30133\atlmfc\include\cstringt.h

; 2567 : 		return( str1.Compare( psz2 ) != 0 );

  002b6	ff 15 00 00 00
	00		 call	 DWORD PTR __imp_?Compare@?$CStringT@DV?$StrTraitMFC_DLL@DV?$ChTraitsCRT@D@ATL@@@@@ATL@@QBEHPBD@Z
; File D:\git\src\IBK\IBK_DRFN\ProjSrc\SrcChartEx\ChartOCX\GraphDraw\GraphDataDrawer.cpp

; 1119 : 		if( prices.GetPrev() != 0.0 && prices.GetPacketType() != "%")

  002bc	c6 45 1b 01	 mov	 BYTE PTR $T17[ebp], 1
; File C:\Program Files (x86)\Microsoft Visual Studio\2019\Community\VC\Tools\MSVC\14.29.30133\atlmfc\include\cstringt.h

; 2567 : 		return( str1.Compare( psz2 ) != 0 );

  002c0	85 c0		 test	 eax, eax
; File D:\git\src\IBK\IBK_DRFN\ProjSrc\SrcChartEx\ChartOCX\GraphDraw\GraphDataDrawer.cpp

; 1119 : 		if( prices.GetPrev() != 0.0 && prices.GetPacketType() != "%")

  002c2	75 04		 jne	 SHORT $LN16@GetText
$LN128@GetText:
  002c4	c6 45 1b 00	 mov	 BYTE PTR $T17[ebp], 0
$LN16@GetText:
  002c8	8b 45 0c	 mov	 eax, DWORD PTR $T9[ebp]
  002cb	c7 45 fc 00 00
	00 00		 mov	 DWORD PTR __$EHRec$[ebp+8], 0
  002d2	a8 01		 test	 al, 1
  002d4	74 0f		 je	 SHORT $LN29@GetText
  002d6	83 e0 fe	 and	 eax, -2			; fffffffeH
  002d9	8d 4d 1c	 lea	 ecx, DWORD PTR $T19[ebp]
  002dc	89 45 0c	 mov	 DWORD PTR $T9[ebp], eax
  002df	ff 15 00 00 00
	00		 call	 DWORD PTR __imp_??1?$CStringT@DV?$StrTraitMFC_DLL@DV?$ChTraitsCRT@D@ATL@@@@@ATL@@QAE@XZ
$LN29@GetText:
  002e5	80 7d 1b 00	 cmp	 BYTE PTR $T17[ebp], 0
  002e9	0f 84 f2 00 00
	00		 je	 $LN13@GetText

; 1120 : 		{
; 1121 : 			double dPrevPrice = fabs(prices.GetPrev());

  002ef	f2 0f 10 07	 movsd	 xmm0, QWORD PTR [edi]

; 1122 : 			strRiseFallRate = "(" + CRateDrawer::GetRateText( dPrevPrice, prices.GetDifference()) + ")";

  002f3	8d 45 dc	 lea	 eax, DWORD PTR $T2[ebp]
  002f6	0f 54 05 00 00
	00 00		 andps	 xmm0, QWORD PTR __xmm@7fffffffffffffff7fffffffffffffff
  002fd	8b 4d f0	 mov	 ecx, DWORD PTR _this$1$[ebp]
  00300	f2 0f 11 45 e4	 movsd	 QWORD PTR _dPrevPrice$5[ebp], xmm0

; 106  : 	return (m_dCurPrice - m_dPrevPrice);

  00305	f2 0f 10 47 08	 movsd	 xmm0, QWORD PTR [edi+8]
  0030a	f2 0f 5c 07	 subsd	 xmm0, QWORD PTR [edi]

; 1122 : 			strRiseFallRate = "(" + CRateDrawer::GetRateText( dPrevPrice, prices.GetDifference()) + ")";

  0030e	50		 push	 eax
  0030f	8d 45 e4	 lea	 eax, DWORD PTR _dPrevPrice$5[ebp]
  00312	50		 push	 eax
  00313	8d 45 14	 lea	 eax, DWORD PTR $T12[ebp]
  00316	50		 push	 eax
  00317	f2 0f 11 45 dc	 movsd	 QWORD PTR $T2[ebp], xmm0
  0031c	e8 00 00 00 00	 call	 ?GetRateText@CRateDrawer@@IBE?AV?$CStringT@DV?$StrTraitMFC_DLL@DV?$ChTraitsCRT@D@ATL@@@@@ATL@@ABN0@Z ; CRateDrawer::GetRateText
  00321	8b f0		 mov	 esi, eax
; File C:\Program Files (x86)\Microsoft Visual Studio\2019\Community\VC\Tools\MSVC\14.29.30133\atlmfc\include\cstringt.h

; 2412 : 		CStringT strResult( str2.GetManager() );

  00323	8b ce		 mov	 ecx, esi
; File D:\git\src\IBK\IBK_DRFN\ProjSrc\SrcChartEx\ChartOCX\GraphDraw\GraphDataDrawer.cpp

; 1122 : 			strRiseFallRate = "(" + CRateDrawer::GetRateText( dPrevPrice, prices.GetDifference()) + ")";

  00325	c6 45 fc 0c	 mov	 BYTE PTR __$EHRec$[ebp+8], 12 ; 0000000cH
; File C:\Program Files (x86)\Microsoft Visual Studio\2019\Community\VC\Tools\MSVC\14.29.30133\atlmfc\include\cstringt.h

; 2412 : 		CStringT strResult( str2.GetManager() );

  00329	ff 15 00 00 00
	00		 call	 DWORD PTR __imp_?GetManager@?$CStringT@DV?$StrTraitMFC_DLL@DV?$ChTraitsCRT@D@ATL@@@@@ATL@@QBEPAUIAtlStringMgr@2@XZ
  0032f	50		 push	 eax
  00330	8d 4d 18	 lea	 ecx, DWORD PTR $T15[ebp]
  00333	ff 15 00 00 00
	00		 call	 DWORD PTR __imp_??0?$CStringT@DV?$StrTraitMFC_DLL@DV?$ChTraitsCRT@D@ATL@@@@@ATL@@QAE@PAUIAtlStringMgr@1@@Z

; 2415 : 
; 2416 : 		return( strResult );

  00339	8b 45 0c	 mov	 eax, DWORD PTR $T9[ebp]
  0033c	83 c8 40	 or	 eax, 64			; 00000040H
  0033f	89 45 0c	 mov	 DWORD PTR $T9[ebp], eax
  00342	89 45 ec	 mov	 DWORD PTR $T7[ebp], eax
; File C:\Program Files (x86)\Microsoft Visual Studio\2019\Community\VC\Tools\MSVC\14.29.30133\atlmfc\include\atlsimpstr.h

; 519  : 		return( GetData()->nDataLength );

  00345	8b 06		 mov	 eax, DWORD PTR [esi]
; File C:\Program Files (x86)\Microsoft Visual Studio\2019\Community\VC\Tools\MSVC\14.29.30133\atlmfc\include\cstringt.h

; 2414 : 		CThisSimpleString::Concatenate( strResult, psz1, CThisSimpleString::StringLength( psz1 ), str2, str2.GetLength() );

  00347	ff 70 f4	 push	 DWORD PTR [eax-12]
  0034a	50		 push	 eax
  0034b	6a 01		 push	 1
  0034d	8d 45 18	 lea	 eax, DWORD PTR $T15[ebp]
  00350	68 00 00 00 00	 push	 OFFSET ??_C@_01ODHLEDKK@?$CI@
  00355	50		 push	 eax
  00356	ff 15 00 00 00
	00		 call	 DWORD PTR __imp_?Concatenate@?$CSimpleStringT@D$00@ATL@@KAXAAV12@PBDH1H@Z
  0035c	83 c4 14	 add	 esp, 20			; 00000014H

; 2401 : 		CStringT strResult( str1.GetManager() );

  0035f	8d 4d 18	 lea	 ecx, DWORD PTR $T15[ebp]
; File D:\git\src\IBK\IBK_DRFN\ProjSrc\SrcChartEx\ChartOCX\GraphDraw\GraphDataDrawer.cpp

; 1122 : 			strRiseFallRate = "(" + CRateDrawer::GetRateText( dPrevPrice, prices.GetDifference()) + ")";

  00362	c6 45 fc 0d	 mov	 BYTE PTR __$EHRec$[ebp+8], 13 ; 0000000dH
; File C:\Program Files (x86)\Microsoft Visual Studio\2019\Community\VC\Tools\MSVC\14.29.30133\atlmfc\include\cstringt.h

; 2401 : 		CStringT strResult( str1.GetManager() );

  00366	ff 15 00 00 00
	00		 call	 DWORD PTR __imp_?GetManager@?$CStringT@DV?$StrTraitMFC_DLL@DV?$ChTraitsCRT@D@ATL@@@@@ATL@@QBEPAUIAtlStringMgr@2@XZ
  0036c	50		 push	 eax
  0036d	8d 4d 1c	 lea	 ecx, DWORD PTR $T18[ebp]
  00370	ff 15 00 00 00
	00		 call	 DWORD PTR __imp_??0?$CStringT@DV?$StrTraitMFC_DLL@DV?$ChTraitsCRT@D@ATL@@@@@ATL@@QAE@PAUIAtlStringMgr@1@@Z

; 2404 : 
; 2405 : 		return( strResult );

  00376	8b 45 0c	 mov	 eax, DWORD PTR $T9[ebp]
  00379	0d 80 00 00 00	 or	 eax, 128		; 00000080H
  0037e	89 45 ec	 mov	 DWORD PTR $T7[ebp], eax
; File C:\Program Files (x86)\Microsoft Visual Studio\2019\Community\VC\Tools\MSVC\14.29.30133\atlmfc\include\atlsimpstr.h

; 519  : 		return( GetData()->nDataLength );

  00381	8b 45 18	 mov	 eax, DWORD PTR $T15[ebp]
; File C:\Program Files (x86)\Microsoft Visual Studio\2019\Community\VC\Tools\MSVC\14.29.30133\atlmfc\include\cstringt.h

; 2403 : 		CThisSimpleString::Concatenate( strResult, str1, str1.GetLength(), psz2, CThisSimpleString::StringLength( psz2 ) );

  00384	6a 01		 push	 1
  00386	68 00 00 00 00	 push	 OFFSET ??_C@_01PKGAHCOL@?$CJ@
  0038b	ff 70 f4	 push	 DWORD PTR [eax-12]
  0038e	50		 push	 eax
  0038f	8d 45 1c	 lea	 eax, DWORD PTR $T18[ebp]
  00392	50		 push	 eax
  00393	ff 15 00 00 00
	00		 call	 DWORD PTR __imp_?Concatenate@?$CSimpleStringT@D$00@ATL@@KAXAAV12@PBDH1H@Z
; File D:\git\src\IBK\IBK_DRFN\ProjSrc\SrcChartEx\ChartOCX\GraphDraw\GraphDataDrawer.cpp

; 1122 : 			strRiseFallRate = "(" + CRateDrawer::GetRateText( dPrevPrice, prices.GetDifference()) + ")";

  00399	8b 75 20	 mov	 esi, DWORD PTR _strRiseFallRate$[ebp]
  0039c	8d 45 1c	 lea	 eax, DWORD PTR $T18[ebp]
; File C:\Program Files (x86)\Microsoft Visual Studio\2019\Community\VC\Tools\MSVC\14.29.30133\atlmfc\include\cstringt.h

; 2403 : 		CThisSimpleString::Concatenate( strResult, str1, str1.GetLength(), psz2, CThisSimpleString::StringLength( psz2 ) );

  0039f	83 c4 14	 add	 esp, 20			; 00000014H
; File D:\git\src\IBK\IBK_DRFN\ProjSrc\SrcChartEx\ChartOCX\GraphDraw\GraphDataDrawer.cpp

; 1122 : 			strRiseFallRate = "(" + CRateDrawer::GetRateText( dPrevPrice, prices.GetDifference()) + ")";

  003a2	8b ce		 mov	 ecx, esi
  003a4	50		 push	 eax
  003a5	ff 15 00 00 00
	00		 call	 DWORD PTR __imp_??4?$CStringT@DV?$StrTraitMFC_DLL@DV?$ChTraitsCRT@D@ATL@@@@@ATL@@QAEAAV01@ABV01@@Z
  003ab	8d 4d 1c	 lea	 ecx, DWORD PTR $T18[ebp]
  003ae	ff 15 00 00 00
	00		 call	 DWORD PTR __imp_??1?$CStringT@DV?$StrTraitMFC_DLL@DV?$ChTraitsCRT@D@ATL@@@@@ATL@@QAE@XZ
  003b4	8d 4d 18	 lea	 ecx, DWORD PTR $T15[ebp]
  003b7	ff 15 00 00 00
	00		 call	 DWORD PTR __imp_??1?$CStringT@DV?$StrTraitMFC_DLL@DV?$ChTraitsCRT@D@ATL@@@@@ATL@@QAE@XZ
  003bd	8d 4d 14	 lea	 ecx, DWORD PTR $T12[ebp]
  003c0	c6 45 fc 00	 mov	 BYTE PTR __$EHRec$[ebp+8], 0
  003c4	ff 15 00 00 00
	00		 call	 DWORD PTR __imp_??1?$CStringT@DV?$StrTraitMFC_DLL@DV?$ChTraitsCRT@D@ATL@@@@@ATL@@QAE@XZ

; 1123 : 			if( strMaxLenValue.GetLength() < strRiseFallRate.GetLength())

  003ca	8b 45 08	 mov	 eax, DWORD PTR _strMaxLenValue$[ebp]
  003cd	8b 0e		 mov	 ecx, DWORD PTR [esi]
  003cf	8b 40 f4	 mov	 eax, DWORD PTR [eax-12]
  003d2	3b 41 f4	 cmp	 eax, DWORD PTR [ecx-12]
  003d5	7d 0a		 jge	 SHORT $LN13@GetText

; 1124 : 				strMaxLenValue = strRiseFallRate;

  003d7	56		 push	 esi
  003d8	8d 4d 08	 lea	 ecx, DWORD PTR _strMaxLenValue$[ebp]
  003db	ff 15 00 00 00
	00		 call	 DWORD PTR __imp_??4?$CStringT@DV?$StrTraitMFC_DLL@DV?$ChTraitsCRT@D@ATL@@@@@ATL@@QAEAAV01@ABV01@@Z
$LN13@GetText:
; File C:\Program Files (x86)\Microsoft Visual Studio\2019\Community\VC\Tools\MSVC\14.29.30133\atlmfc\include\atlsimpstr.h

; 519  : 		return( GetData()->nDataLength );

  003e1	8b 45 08	 mov	 eax, DWORD PTR _strMaxLenValue$[ebp]
; File D:\git\src\IBK\IBK_DRFN\ProjSrc\SrcChartEx\ChartOCX\GraphDraw\GraphDataDrawer.cpp

; 1127 : 	return !strMaxLenValue.IsEmpty();

  003e4	8d 4d 08	 lea	 ecx, DWORD PTR _strMaxLenValue$[ebp]
; File C:\Program Files (x86)\Microsoft Visual Studio\2019\Community\VC\Tools\MSVC\14.29.30133\atlmfc\include\atlsimpstr.h

; 519  : 		return( GetData()->nDataLength );

  003e7	8b 70 f4	 mov	 esi, DWORD PTR [eax-12]
; File D:\git\src\IBK\IBK_DRFN\ProjSrc\SrcChartEx\ChartOCX\GraphDraw\GraphDataDrawer.cpp

; 1127 : 	return !strMaxLenValue.IsEmpty();

  003ea	ff 15 00 00 00
	00		 call	 DWORD PTR __imp_??1?$CStringT@DV?$StrTraitMFC_DLL@DV?$ChTraitsCRT@D@ATL@@@@@ATL@@QAE@XZ
; File C:\Program Files (x86)\Microsoft Visual Studio\2019\Community\VC\Tools\MSVC\14.29.30133\atlmfc\include\atlsimpstr.h

; 533  : 		return( GetLength() == 0 );

  003f0	85 f6		 test	 esi, esi
; File D:\git\src\IBK\IBK_DRFN\ProjSrc\SrcChartEx\ChartOCX\GraphDraw\GraphDataDrawer.cpp

; 1127 : 	return !strMaxLenValue.IsEmpty();

  003f2	0f 95 c0	 setne	 al

; 1128 : }

  003f5	8b 4d f4	 mov	 ecx, DWORD PTR __$EHRec$[ebp]
  003f8	64 89 0d 00 00
	00 00		 mov	 DWORD PTR fs:0, ecx
  003ff	59		 pop	 ecx
  00400	5f		 pop	 edi
  00401	5e		 pop	 esi
  00402	8b e5		 mov	 esp, ebp
  00404	5d		 pop	 ebp
  00405	c2 1c 00	 ret	 28			; 0000001cH
_TEXT	ENDS
;	COMDAT text$x
text$x	SEGMENT
__unwindfunclet$?GetText@CDataInRightScaleRegionDrawer@@ABE_NABVCRect@@ABVCPrices@@HAAV?$CStringT@DV?$StrTraitMFC_DLL@DV?$ChTraitsCRT@D@ATL@@@@@ATL@@222@Z$0:
  00000	8d 4d 08	 lea	 ecx, DWORD PTR _strMaxLenValue$[ebp]
  00003	ff 25 00 00 00
	00		 jmp	 DWORD PTR __imp_??1?$CStringT@DV?$StrTraitMFC_DLL@DV?$ChTraitsCRT@D@ATL@@@@@ATL@@QAE@XZ
__unwindfunclet$?GetText@CDataInRightScaleRegionDrawer@@ABE_NABVCRect@@ABVCPrices@@HAAV?$CStringT@DV?$StrTraitMFC_DLL@DV?$ChTraitsCRT@D@ATL@@@@@ATL@@222@Z$1:
  00009	8d 4d e8	 lea	 ecx, DWORD PTR $T6[ebp]
  0000c	ff 25 00 00 00
	00		 jmp	 DWORD PTR __imp_??1?$CStringT@DV?$StrTraitMFC_DLL@DV?$ChTraitsCRT@D@ATL@@@@@ATL@@QAE@XZ
__unwindfunclet$?GetText@CDataInRightScaleRegionDrawer@@ABE_NABVCRect@@ABVCPrices@@HAAV?$CStringT@DV?$StrTraitMFC_DLL@DV?$ChTraitsCRT@D@ATL@@@@@ATL@@222@Z$2:
  00012	8d 4d ec	 lea	 ecx, DWORD PTR $T8[ebp]
  00015	ff 25 00 00 00
	00		 jmp	 DWORD PTR __imp_??1?$CStringT@DV?$StrTraitMFC_DLL@DV?$ChTraitsCRT@D@ATL@@@@@ATL@@QAE@XZ
__unwindfunclet$?GetText@CDataInRightScaleRegionDrawer@@ABE_NABVCRect@@ABVCPrices@@HAAV?$CStringT@DV?$StrTraitMFC_DLL@DV?$ChTraitsCRT@D@ATL@@@@@ATL@@222@Z$3:
  0001b	8d 4d e0	 lea	 ecx, DWORD PTR $T4[ebp]
  0001e	ff 25 00 00 00
	00		 jmp	 DWORD PTR __imp_??1?$CStringT@DV?$StrTraitMFC_DLL@DV?$ChTraitsCRT@D@ATL@@@@@ATL@@QAE@XZ
__unwindfunclet$?GetText@CDataInRightScaleRegionDrawer@@ABE_NABVCRect@@ABVCPrices@@HAAV?$CStringT@DV?$StrTraitMFC_DLL@DV?$ChTraitsCRT@D@ATL@@@@@ATL@@222@Z$4:
  00024	8d 4d 10	 lea	 ecx, DWORD PTR $T11[ebp]
  00027	ff 25 00 00 00
	00		 jmp	 DWORD PTR __imp_??1?$CStringT@DV?$StrTraitMFC_DLL@DV?$ChTraitsCRT@D@ATL@@@@@ATL@@QAE@XZ
__unwindfunclet$?GetText@CDataInRightScaleRegionDrawer@@ABE_NABVCRect@@ABVCPrices@@HAAV?$CStringT@DV?$StrTraitMFC_DLL@DV?$ChTraitsCRT@D@ATL@@@@@ATL@@222@Z$5:
  0002d	8d 4d 14	 lea	 ecx, DWORD PTR $T14[ebp]
  00030	ff 25 00 00 00
	00		 jmp	 DWORD PTR __imp_??1?$CStringT@DV?$StrTraitMFC_DLL@DV?$ChTraitsCRT@D@ATL@@@@@ATL@@QAE@XZ
__unwindfunclet$?GetText@CDataInRightScaleRegionDrawer@@ABE_NABVCRect@@ABVCPrices@@HAAV?$CStringT@DV?$StrTraitMFC_DLL@DV?$ChTraitsCRT@D@ATL@@@@@ATL@@222@Z$6:
  00036	8d 4d e0	 lea	 ecx, DWORD PTR $T3[ebp]
  00039	ff 25 00 00 00
	00		 jmp	 DWORD PTR __imp_??1?$CStringT@DV?$StrTraitMFC_DLL@DV?$ChTraitsCRT@D@ATL@@@@@ATL@@QAE@XZ
__unwindfunclet$?GetText@CDataInRightScaleRegionDrawer@@ABE_NABVCRect@@ABVCPrices@@HAAV?$CStringT@DV?$StrTraitMFC_DLL@DV?$ChTraitsCRT@D@ATL@@@@@ATL@@222@Z$7:
  0003f	8d 4d 14	 lea	 ecx, DWORD PTR $T13[ebp]
  00042	ff 25 00 00 00
	00		 jmp	 DWORD PTR __imp_??1?$CStringT@DV?$StrTraitMFC_DLL@DV?$ChTraitsCRT@D@ATL@@@@@ATL@@QAE@XZ
__unwindfunclet$?GetText@CDataInRightScaleRegionDrawer@@ABE_NABVCRect@@ABVCPrices@@HAAV?$CStringT@DV?$StrTraitMFC_DLL@DV?$ChTraitsCRT@D@ATL@@@@@ATL@@222@Z$8:
  00048	8d 4d 18	 lea	 ecx, DWORD PTR $T16[ebp]
  0004b	ff 25 00 00 00
	00		 jmp	 DWORD PTR __imp_??1?$CStringT@DV?$StrTraitMFC_DLL@DV?$ChTraitsCRT@D@ATL@@@@@ATL@@QAE@XZ
__unwindfunclet$?GetText@CDataInRightScaleRegionDrawer@@ABE_NABVCRect@@ABVCPrices@@HAAV?$CStringT@DV?$StrTraitMFC_DLL@DV?$ChTraitsCRT@D@ATL@@@@@ATL@@222@Z$9:
  00051	8d 4d 10	 lea	 ecx, DWORD PTR $T10[ebp]
  00054	ff 25 00 00 00
	00		 jmp	 DWORD PTR __imp_??1?$CStringT@DV?$StrTraitMFC_DLL@DV?$ChTraitsCRT@D@ATL@@@@@ATL@@QAE@XZ
__unwindfunclet$?GetText@CDataInRightScaleRegionDrawer@@ABE_NABVCRect@@ABVCPrices@@HAAV?$CStringT@DV?$StrTraitMFC_DLL@DV?$ChTraitsCRT@D@ATL@@@@@ATL@@222@Z$10:
  0005a	8b 45 ec	 mov	 eax, DWORD PTR $T7[ebp]
  0005d	83 e0 01	 and	 eax, 1
  00060	0f 84 0d 00 00
	00		 je	 $LN28@GetText
  00066	83 65 ec fe	 and	 DWORD PTR $T7[ebp], -2	; fffffffeH
  0006a	8d 4d 1c	 lea	 ecx, DWORD PTR $T19[ebp]
  0006d	ff 25 00 00 00
	00		 jmp	 DWORD PTR __imp_??1?$CStringT@DV?$StrTraitMFC_DLL@DV?$ChTraitsCRT@D@ATL@@@@@ATL@@QAE@XZ
$LN28@GetText:
  00073	c3		 ret	 0
__unwindfunclet$?GetText@CDataInRightScaleRegionDrawer@@ABE_NABVCRect@@ABVCPrices@@HAAV?$CStringT@DV?$StrTraitMFC_DLL@DV?$ChTraitsCRT@D@ATL@@@@@ATL@@222@Z$11:
  00074	8d 4d 14	 lea	 ecx, DWORD PTR $T12[ebp]
  00077	ff 25 00 00 00
	00		 jmp	 DWORD PTR __imp_??1?$CStringT@DV?$StrTraitMFC_DLL@DV?$ChTraitsCRT@D@ATL@@@@@ATL@@QAE@XZ
__unwindfunclet$?GetText@CDataInRightScaleRegionDrawer@@ABE_NABVCRect@@ABVCPrices@@HAAV?$CStringT@DV?$StrTraitMFC_DLL@DV?$ChTraitsCRT@D@ATL@@@@@ATL@@222@Z$19:
  0007d	8b 45 ec	 mov	 eax, DWORD PTR $T7[ebp]
  00080	83 e0 40	 and	 eax, 64			; 00000040H
  00083	0f 84 0d 00 00
	00		 je	 $LN88@GetText
  00089	83 65 ec bf	 and	 DWORD PTR $T7[ebp], -65	; ffffffbfH
  0008d	8d 4d 18	 lea	 ecx, DWORD PTR $T15[ebp]
  00090	ff 25 00 00 00
	00		 jmp	 DWORD PTR __imp_??1?$CStringT@DV?$StrTraitMFC_DLL@DV?$ChTraitsCRT@D@ATL@@@@@ATL@@QAE@XZ
$LN88@GetText:
  00096	c3		 ret	 0
__unwindfunclet$?GetText@CDataInRightScaleRegionDrawer@@ABE_NABVCRect@@ABVCPrices@@HAAV?$CStringT@DV?$StrTraitMFC_DLL@DV?$ChTraitsCRT@D@ATL@@@@@ATL@@222@Z$20:
  00097	8b 45 ec	 mov	 eax, DWORD PTR $T7[ebp]
  0009a	25 80 00 00 00	 and	 eax, 128		; 00000080H
  0009f	0f 84 10 00 00
	00		 je	 $LN101@GetText
  000a5	81 65 ec 7f ff
	ff ff		 and	 DWORD PTR $T7[ebp], -129 ; ffffff7fH
  000ac	8d 4d 1c	 lea	 ecx, DWORD PTR $T18[ebp]
  000af	ff 25 00 00 00
	00		 jmp	 DWORD PTR __imp_??1?$CStringT@DV?$StrTraitMFC_DLL@DV?$ChTraitsCRT@D@ATL@@@@@ATL@@QAE@XZ
$LN101@GetText:
  000b5	c3		 ret	 0
  000b6	cc		 int	 3
  000b7	cc		 int	 3
  000b8	cc		 int	 3
  000b9	cc		 int	 3
  000ba	cc		 int	 3
__ehhandler$?GetText@CDataInRightScaleRegionDrawer@@ABE_NABVCRect@@ABVCPrices@@HAAV?$CStringT@DV?$StrTraitMFC_DLL@DV?$ChTraitsCRT@D@ATL@@@@@ATL@@222@Z:
  000bb	90		 npad	 1
  000bc	90		 npad	 1
  000bd	8b 54 24 08	 mov	 edx, DWORD PTR [esp+8]
  000c1	8d 42 0c	 lea	 eax, DWORD PTR [edx+12]
  000c4	8b 4a dc	 mov	 ecx, DWORD PTR [edx-36]
  000c7	33 c8		 xor	 ecx, eax
  000c9	e8 00 00 00 00	 call	 @__security_check_cookie@4
  000ce	b8 00 00 00 00	 mov	 eax, OFFSET __ehfuncinfo$?GetText@CDataInRightScaleRegionDrawer@@ABE_NABVCRect@@ABVCPrices@@HAAV?$CStringT@DV?$StrTraitMFC_DLL@DV?$ChTraitsCRT@D@ATL@@@@@ATL@@222@Z
  000d3	e9 00 00 00 00	 jmp	 ___CxxFrameHandler3
text$x	ENDS
?GetText@CDataInRightScaleRegionDrawer@@ABE_NABVCRect@@ABVCPrices@@HAAV?$CStringT@DV?$StrTraitMFC_DLL@DV?$ChTraitsCRT@D@ATL@@@@@ATL@@222@Z ENDP ; CDataInRightScaleRegionDrawer::GetText
; Function compile flags: /Ogtp
; File D:\git\src\IBK\IBK_DRFN\ProjSrc\SrcChartEx\ChartOCX\GraphDraw\GraphDataDrawer.cpp
;	COMDAT ?GetTextColor@CDataInRightScaleRegionDrawer@@ABEKABK@Z
_TEXT	SEGMENT
_bkColor$ = 8						; size = 4
?GetTextColor@CDataInRightScaleRegionDrawer@@ABEKABK@Z PROC ; CDataInRightScaleRegionDrawer::GetTextColor, COMDAT
; _this$ = ecx

; 1064 : {

  00000	55		 push	 ebp
  00001	8b ec		 mov	 ebp, esp

; 1065 : 	int nRed = GetRValue(bkColor);
; 1066 : 	int nRGreen = GetGValue(bkColor);
; 1067 : 	int nBlue = GetBValue(bkColor);
; 1068 : 	if(nRed > 200 && nRGreen > 200 && nBlue > 200)

  00003	8b 45 08	 mov	 eax, DWORD PTR _bkColor$[ebp]
  00006	80 38 c8	 cmp	 BYTE PTR [eax], 200	; 000000c8H
  00009	76 12		 jbe	 SHORT $LN2@GetTextCol
  0000b	80 78 01 c8	 cmp	 BYTE PTR [eax+1], 200	; 000000c8H
  0000f	76 0c		 jbe	 SHORT $LN2@GetTextCol
  00011	80 78 02 c8	 cmp	 BYTE PTR [eax+2], 200	; 000000c8H
  00015	76 06		 jbe	 SHORT $LN2@GetTextCol

; 1069 : 		return RGB(0, 0, 0);

  00017	33 c0		 xor	 eax, eax

; 1072 : }

  00019	5d		 pop	 ebp
  0001a	c2 04 00	 ret	 4
$LN2@GetTextCol:

; 1070 : 
; 1071 : 	return RGB(255, 255, 255);

  0001d	b8 ff ff ff 00	 mov	 eax, 16777215		; 00ffffffH

; 1072 : }

  00022	5d		 pop	 ebp
  00023	c2 04 00	 ret	 4
?GetTextColor@CDataInRightScaleRegionDrawer@@ABEKABK@Z ENDP ; CDataInRightScaleRegionDrawer::GetTextColor
_TEXT	ENDS
; Function compile flags: /Ogtp
; File D:\git\src\IBK\IBK_DRFN\ProjSrc\SrcChartEx\ChartOCX\GraphDraw\GraphDataDrawer.cpp
;	COMDAT ?GetCurrentPriceTextColor@CDataInRightScaleRegionDrawer@@ABEKABVCGraphColor@@ABVCPrices@@@Z
_TEXT	SEGMENT
_graphColor$ = 8					; size = 4
_prices$ = 12						; size = 4
?GetCurrentPriceTextColor@CDataInRightScaleRegionDrawer@@ABEKABVCGraphColor@@ABVCPrices@@@Z PROC ; CDataInRightScaleRegionDrawer::GetCurrentPriceTextColor, COMDAT
; _this$ = ecx

; 1050 : {

  00000	55		 push	 ebp
  00001	8b ec		 mov	 ebp, esp

; 139  : 	return (m_dCurPrice > m_dPrevPrice);

  00003	8b 45 0c	 mov	 eax, DWORD PTR _prices$[ebp]

; 1051 : 	// 
; 1052 : 	if(prices.IsRose())

  00006	8b 4d 08	 mov	 ecx, DWORD PTR _graphColor$[ebp]

; 139  : 	return (m_dCurPrice > m_dPrevPrice);

  00009	f2 0f 10 40 08	 movsd	 xmm0, QWORD PTR [eax+8]
  0000e	f2 0f 10 08	 movsd	 xmm1, QWORD PTR [eax]
  00012	66 0f 2f c1	 comisd	 xmm0, xmm1

; 1051 : 	// 
; 1052 : 	if(prices.IsRose())

  00016	76 0a		 jbe	 SHORT $LN2@GetCurrent

; 1053 : 		return graphColor.GetColor1();

  00018	ff 15 00 00 00
	00		 call	 DWORD PTR __imp_?GetColor1@CGraphColor@@QBEKXZ

; 1059 : }

  0001e	5d		 pop	 ebp
  0001f	c2 08 00	 ret	 8
$LN2@GetCurrent:

; 144  : 	return (m_dCurPrice < m_dPrevPrice);

  00022	66 0f 2f c8	 comisd	 xmm1, xmm0

; 1054 : 	// 
; 1055 : 	else if(prices.IsFall())

  00026	76 0a		 jbe	 SHORT $LN4@GetCurrent

; 1056 : 		return graphColor.GetColor3();

  00028	ff 15 00 00 00
	00		 call	 DWORD PTR __imp_?GetColor3@CGraphColor@@QBEKXZ

; 1059 : }

  0002e	5d		 pop	 ebp
  0002f	c2 08 00	 ret	 8
$LN4@GetCurrent:

; 1057 : 	// 
; 1058 : 	return graphColor.GetColor5();

  00032	ff 15 00 00 00
	00		 call	 DWORD PTR __imp_?GetColor5@CGraphColor@@QBEKXZ

; 1059 : }

  00038	5d		 pop	 ebp
  00039	c2 08 00	 ret	 8
?GetCurrentPriceTextColor@CDataInRightScaleRegionDrawer@@ABEKABVCGraphColor@@ABVCPrices@@@Z ENDP ; CDataInRightScaleRegionDrawer::GetCurrentPriceTextColor
_TEXT	ENDS
; Function compile flags: /Ogtp
; File D:\git\src\IBK\IBK_DRFN\ProjSrc\SrcChartEx\ChartOCX\GraphDraw\GraphDataDrawer.cpp
;	COMDAT ?GetTextPosition@CDataInRightScaleRegionDrawer@@ABE?AVCPoint@@HHABVCSize@@H@Z
_TEXT	SEGMENT
___$ReturnUdt$ = 8					; size = 4
_nOrg_x$ = 12						; size = 4
_nOrg_y$ = 16						; size = 4
_textSize$ = 20						; size = 4
_textPos$ = 24						; size = 4
?GetTextPosition@CDataInRightScaleRegionDrawer@@ABE?AVCPoint@@HHABVCSize@@H@Z PROC ; CDataInRightScaleRegionDrawer::GetTextPosition, COMDAT
; _this$ = ecx

; 1042 : {

  00000	55		 push	 ebp
  00001	8b ec		 mov	 ebp, esp
  00003	8b 55 14	 mov	 edx, DWORD PTR _textSize$[ebp]
  00006	8b 4d 0c	 mov	 ecx, DWORD PTR _nOrg_x$[ebp]
  00009	56		 push	 esi
  0000a	8b 75 08	 mov	 esi, DWORD PTR ___$ReturnUdt$[ebp]
  0000d	2b 0a		 sub	 ecx, DWORD PTR [edx]

; 1043 : 	if(textPos == DT_BOTTOM)

  0000f	83 7d 18 08	 cmp	 DWORD PTR _textPos$[ebp], 8
  00013	8b 42 04	 mov	 eax, DWORD PTR [edx+4]
  00016	89 0e		 mov	 DWORD PTR [esi], ecx
  00018	8b 4d 10	 mov	 ecx, DWORD PTR _nOrg_y$[ebp]
  0001b	74 05		 je	 SHORT $LN8@GetTextPos

; 1044 : 		return CPoint((nOrg_x - textSize.cx), (nOrg_y - textSize.cy));
; 1045 : 
; 1046 : 	return CPoint((nOrg_x - textSize.cx), (nOrg_y - textSize.cy/2));

  0001d	99		 cdq
  0001e	2b c2		 sub	 eax, edx
  00020	d1 f8		 sar	 eax, 1
$LN8@GetTextPos:

; 1047 : }

  00022	2b c8		 sub	 ecx, eax
  00024	8b c6		 mov	 eax, esi
  00026	89 4e 04	 mov	 DWORD PTR [esi+4], ecx
  00029	5e		 pop	 esi
  0002a	5d		 pop	 ebp
  0002b	c2 14 00	 ret	 20			; 00000014H
?GetTextPosition@CDataInRightScaleRegionDrawer@@ABE?AVCPoint@@HHABVCSize@@H@Z ENDP ; CDataInRightScaleRegionDrawer::GetTextPosition
_TEXT	ENDS
; Function compile flags: /Ogtp
; File D:\git\src\IBK\IBK_DRFN\ProjSrc\SrcChartEx\ChartOCX\GraphDraw\GraphDataDrawer.cpp
; File C:\Program Files (x86)\Microsoft Visual Studio\2019\Community\VC\Tools\MSVC\14.29.30133\atlmfc\include\atltypes.h
; File D:\git\src\IBK\IBK_DRFN\ProjSrc\SrcChartEx\ChartOCX\GraphDraw\GraphDataDrawer.cpp
;	COMDAT ?GetDrawingTextRegion@CDataInRightScaleRegionDrawer@@ABE?AVCRect@@ABV2@H@Z
_TEXT	SEGMENT
___$ReturnUdt$ = 8					; size = 4
_textRegion$ = 12					; size = 4
_nPrevGap_Y$ = 16					; size = 4
?GetDrawingTextRegion@CDataInRightScaleRegionDrawer@@ABE?AVCRect@@ABV2@H@Z PROC ; CDataInRightScaleRegionDrawer::GetDrawingTextRegion, COMDAT
; _this$ = ecx

; 1007 : {

  00000	55		 push	 ebp
  00001	8b ec		 mov	 ebp, esp

; 1008 : 	CRect drawingRegion = textRegion;

  00003	8b 45 0c	 mov	 eax, DWORD PTR _textRegion$[ebp]
  00006	56		 push	 esi
  00007	8b 75 08	 mov	 esi, DWORD PTR ___$ReturnUdt$[ebp]
  0000a	57		 push	 edi
  0000b	0f 10 00	 movups	 xmm0, XMMWORD PTR [eax]
  0000e	0f 11 06	 movups	 XMMWORD PTR [esi], xmm0
; File C:\Program Files (x86)\Microsoft Visual Studio\2019\Community\VC\Tools\MSVC\14.29.30133\atlmfc\include\atltypes.h

; 912  : 	left -= l;

  00011	8b 0e		 mov	 ecx, DWORD PTR [esi]

; 913  : 	top -= t;
; 914  : 	right += r;

  00013	8b 56 08	 mov	 edx, DWORD PTR [esi+8]
  00016	49		 dec	 ecx
  00017	8b 46 04	 mov	 eax, DWORD PTR [esi+4]
  0001a	42		 inc	 edx

; 915  : 	bottom += b;

  0001b	8b 7e 0c	 mov	 edi, DWORD PTR [esi+12]
  0001e	83 c0 fe	 add	 eax, -2			; fffffffeH
  00021	89 0e		 mov	 DWORD PTR [esi], ecx
  00023	89 46 04	 mov	 DWORD PTR [esi+4], eax
  00026	89 56 08	 mov	 DWORD PTR [esi+8], edx

; 884  : 	if (left > right)

  00029	3b ca		 cmp	 ecx, edx
  0002b	7e 05		 jle	 SHORT $LN6@GetDrawing

; 885  : 	{
; 886  : 		nTemp = left;
; 887  : 		left = right;

  0002d	89 16		 mov	 DWORD PTR [esi], edx

; 888  : 		right = nTemp;

  0002f	89 4e 08	 mov	 DWORD PTR [esi+8], ecx
$LN6@GetDrawing:

; 889  : 	}
; 890  : 	if (top > bottom)

  00032	3b c7		 cmp	 eax, edi
  00034	7e 06		 jle	 SHORT $LN7@GetDrawing

; 891  : 	{
; 892  : 		nTemp = top;
; 893  : 		top = bottom;

  00036	89 7e 04	 mov	 DWORD PTR [esi+4], edi

; 894  : 		bottom = nTemp;

  00039	89 46 0c	 mov	 DWORD PTR [esi+12], eax
$LN7@GetDrawing:

; 710  : 	::OffsetRect(this, x, y);

  0003c	ff 75 10	 push	 DWORD PTR _nPrevGap_Y$[ebp]
  0003f	6a 00		 push	 0
  00041	56		 push	 esi
  00042	ff 15 00 00 00
	00		 call	 DWORD PTR __imp__OffsetRect@12
; File D:\git\src\IBK\IBK_DRFN\ProjSrc\SrcChartEx\ChartOCX\GraphDraw\GraphDataDrawer.cpp

; 1012 : 	return drawingRegion;

  00048	5f		 pop	 edi
  00049	8b c6		 mov	 eax, esi
  0004b	5e		 pop	 esi

; 1013 : }

  0004c	5d		 pop	 ebp
  0004d	c2 0c 00	 ret	 12			; 0000000cH
?GetDrawingTextRegion@CDataInRightScaleRegionDrawer@@ABE?AVCRect@@ABV2@H@Z ENDP ; CDataInRightScaleRegionDrawer::GetDrawingTextRegion
_TEXT	ENDS
; Function compile flags: /Ogtp
; File D:\git\src\IBK\IBK_DRFN\ProjSrc\SrcChartEx\ChartOCX\GraphDraw\GraphDataDrawer.cpp
; File C:\Program Files (x86)\Microsoft Visual Studio\2019\Community\VC\Tools\MSVC\14.29.30133\atlmfc\include\atlsimpstr.h
; File D:\git\src\IBK\IBK_DRFN\ProjSrc\SrcChartEx\ChartOCX\GraphDraw\GraphDataDrawer.cpp
; File C:\Program Files (x86)\Microsoft Visual Studio\2019\Community\VC\Tools\MSVC\14.29.30133\atlmfc\include\atlsimpstr.h
; File D:\git\src\IBK\IBK_DRFN\ProjSrc\SrcChartEx\ChartOCX\GraphDraw\GraphDataDrawer.cpp
; File C:\Program Files (x86)\Microsoft Visual Studio\2019\Community\VC\Tools\MSVC\14.29.30133\atlmfc\include\atlsimpstr.h
; File D:\git\src\IBK\IBK_DRFN\ProjSrc\SrcChartEx\ChartOCX\GraphDraw\GraphDataDrawer.cpp
; File C:\Program Files (x86)\Microsoft Visual Studio\2019\Community\VC\Tools\MSVC\14.29.30133\atlmfc\include\atlsimpstr.h
; File C:\Program Files (x86)\Microsoft Visual Studio\2019\Community\VC\Tools\MSVC\14.29.30133\atlmfc\include\afxwin1.inl
; File C:\Program Files (x86)\Microsoft Visual Studio\2019\Community\VC\Tools\MSVC\14.29.30133\atlmfc\include\atlsimpstr.h
; File C:\Program Files (x86)\Microsoft Visual Studio\2019\Community\VC\Tools\MSVC\14.29.30133\atlmfc\include\afxwin1.inl
; File D:\git\src\IBK\IBK_DRFN\ProjSrc\SrcChartEx\ChartOCX\GraphDraw\GraphDataDrawer.cpp
; File C:\Program Files (x86)\Microsoft Visual Studio\2019\Community\VC\Tools\MSVC\14.29.30133\atlmfc\include\atltypes.h
; File D:\git\src\IBK\IBK_DRFN\ProjSrc\SrcChartEx\ChartOCX\GraphDraw\GraphDataDrawer.cpp
; File C:\Program Files (x86)\Microsoft Visual Studio\2019\Community\VC\Tools\MSVC\14.29.30133\atlmfc\include\atltypes.h
; File C:\Program Files (x86)\Microsoft Visual Studio\2019\Community\VC\Tools\MSVC\14.29.30133\atlmfc\include\afxwin1.inl
; File C:\Program Files (x86)\Microsoft Visual Studio\2019\Community\VC\Tools\MSVC\14.29.30133\atlmfc\include\atltypes.h
; File C:\Program Files (x86)\Microsoft Visual Studio\2019\Community\VC\Tools\MSVC\14.29.30133\atlmfc\include\afxwin1.inl
; File D:\git\src\IBK\IBK_DRFN\ProjSrc\SrcChartEx\ChartOCX\GraphDraw\GraphDataDrawer.cpp
; File C:\Program Files (x86)\Microsoft Visual Studio\2019\Community\VC\Tools\MSVC\14.29.30133\atlmfc\include\atltypes.h
; File D:\git\src\IBK\IBK_DRFN\ProjSrc\SrcChartEx\ChartOCX\GraphDraw\GraphDataDrawer.cpp
;	COMDAT ?GetTextRegion@CDataInRightScaleRegionDrawer@@ABE?AVCRect@@PAVCDC@@ABVCPoint@@ABV?$CStringT@DV?$StrTraitMFC_DLL@DV?$ChTraitsCRT@D@ATL@@@@@ATL@@222@Z
_TEXT	SEGMENT
_size$2 = -20						; size = 8
__$EHRec$ = -12						; size = 12
___$ReturnUdt$ = 8					; size = 4
_pDC$ = 12						; size = 4
_rightTopPt$ = 16					; size = 4
_strMax$ = 20						; size = 4
_strCurPrice$ = 20					; size = 4
tv670 = 24						; size = 4
_strDiffPrice$ = 24					; size = 4
_nTemp$1$ = 28						; size = 4
_strPipPrice$ = 28					; size = 4
tv668 = 32						; size = 4
_strRiseFallRate$ = 32					; size = 4
?GetTextRegion@CDataInRightScaleRegionDrawer@@ABE?AVCRect@@PAVCDC@@ABVCPoint@@ABV?$CStringT@DV?$StrTraitMFC_DLL@DV?$ChTraitsCRT@D@ATL@@@@@ATL@@222@Z PROC ; CDataInRightScaleRegionDrawer::GetTextRegion, COMDAT
; _this$ = ecx

; 1017 : {

  00000	55		 push	 ebp
  00001	8b ec		 mov	 ebp, esp
  00003	6a ff		 push	 -1
  00005	68 00 00 00 00	 push	 __ehhandler$?GetTextRegion@CDataInRightScaleRegionDrawer@@ABE?AVCRect@@PAVCDC@@ABVCPoint@@ABV?$CStringT@DV?$StrTraitMFC_DLL@DV?$ChTraitsCRT@D@ATL@@@@@ATL@@222@Z
  0000a	64 a1 00 00 00
	00		 mov	 eax, DWORD PTR fs:0
  00010	50		 push	 eax
  00011	83 ec 08	 sub	 esp, 8
  00014	53		 push	 ebx
  00015	56		 push	 esi
  00016	57		 push	 edi
  00017	a1 00 00 00 00	 mov	 eax, DWORD PTR ___security_cookie
  0001c	33 c5		 xor	 eax, ebp
  0001e	50		 push	 eax
  0001f	8d 45 f4	 lea	 eax, DWORD PTR __$EHRec$[ebp]
  00022	64 a3 00 00 00
	00		 mov	 DWORD PTR fs:0, eax

; 1018 : 	CString strMax = strCurPrice;

  00028	8b 75 14	 mov	 esi, DWORD PTR _strCurPrice$[ebp]
  0002b	8d 4d 14	 lea	 ecx, DWORD PTR _strMax$[ebp]
  0002e	56		 push	 esi
  0002f	ff 15 00 00 00
	00		 call	 DWORD PTR __imp_??0?$CStringT@DV?$StrTraitMFC_DLL@DV?$ChTraitsCRT@D@ATL@@@@@ATL@@QAE@ABV01@@Z

; 1019 : 	if(strCurPrice.GetLength() < strDiffPrice.GetLength())

  00035	8b 7d 18	 mov	 edi, DWORD PTR _strDiffPrice$[ebp]
; File C:\Program Files (x86)\Microsoft Visual Studio\2019\Community\VC\Tools\MSVC\14.29.30133\atlmfc\include\atlsimpstr.h

; 519  : 		return( GetData()->nDataLength );

  00038	8b 16		 mov	 edx, DWORD PTR [esi]
; File D:\git\src\IBK\IBK_DRFN\ProjSrc\SrcChartEx\ChartOCX\GraphDraw\GraphDataDrawer.cpp

; 1018 : 	CString strMax = strCurPrice;

  0003a	c7 45 fc 00 00
	00 00		 mov	 DWORD PTR __$EHRec$[ebp+8], 0

; 1019 : 	if(strCurPrice.GetLength() < strDiffPrice.GetLength())

  00041	8b 0f		 mov	 ecx, DWORD PTR [edi]
  00043	8b 42 f4	 mov	 eax, DWORD PTR [edx-12]
  00046	3b 41 f4	 cmp	 eax, DWORD PTR [ecx-12]
  00049	7d 0c		 jge	 SHORT $LN2@GetTextReg

; 1020 : 		strMax = strDiffPrice;

  0004b	57		 push	 edi
  0004c	8d 4d 14	 lea	 ecx, DWORD PTR _strMax$[ebp]
  0004f	ff 15 00 00 00
	00		 call	 DWORD PTR __imp_??4?$CStringT@DV?$StrTraitMFC_DLL@DV?$ChTraitsCRT@D@ATL@@@@@ATL@@QAEAAV01@ABV01@@Z
  00055	8b 16		 mov	 edx, DWORD PTR [esi]
$LN2@GetTextReg:

; 1021 : 	if(strCurPrice.GetLength() < strPipPrice.GetLength())

  00057	8b 7d 1c	 mov	 edi, DWORD PTR _strPipPrice$[ebp]
  0005a	8b 42 f4	 mov	 eax, DWORD PTR [edx-12]
  0005d	8b 0f		 mov	 ecx, DWORD PTR [edi]
  0005f	3b 41 f4	 cmp	 eax, DWORD PTR [ecx-12]
  00062	7d 0c		 jge	 SHORT $LN3@GetTextReg

; 1022 : 		strMax = strPipPrice;

  00064	57		 push	 edi
  00065	8d 4d 14	 lea	 ecx, DWORD PTR _strMax$[ebp]
  00068	ff 15 00 00 00
	00		 call	 DWORD PTR __imp_??4?$CStringT@DV?$StrTraitMFC_DLL@DV?$ChTraitsCRT@D@ATL@@@@@ATL@@QAEAAV01@ABV01@@Z
  0006e	8b 16		 mov	 edx, DWORD PTR [esi]
$LN3@GetTextReg:
; File C:\Program Files (x86)\Microsoft Visual Studio\2019\Community\VC\Tools\MSVC\14.29.30133\atlmfc\include\atlsimpstr.h

; 519  : 		return( GetData()->nDataLength );

  00070	8b 7d 20	 mov	 edi, DWORD PTR _strRiseFallRate$[ebp]
; File D:\git\src\IBK\IBK_DRFN\ProjSrc\SrcChartEx\ChartOCX\GraphDraw\GraphDataDrawer.cpp

; 1023 : 	if(strCurPrice.GetLength() < strRiseFallRate.GetLength())

  00073	8b 42 f4	 mov	 eax, DWORD PTR [edx-12]
; File C:\Program Files (x86)\Microsoft Visual Studio\2019\Community\VC\Tools\MSVC\14.29.30133\atlmfc\include\atlsimpstr.h

; 519  : 		return( GetData()->nDataLength );

  00076	8b 0f		 mov	 ecx, DWORD PTR [edi]
; File D:\git\src\IBK\IBK_DRFN\ProjSrc\SrcChartEx\ChartOCX\GraphDraw\GraphDataDrawer.cpp

; 1023 : 	if(strCurPrice.GetLength() < strRiseFallRate.GetLength())

  00078	3b 41 f4	 cmp	 eax, DWORD PTR [ecx-12]
  0007b	7d 0e		 jge	 SHORT $LN4@GetTextReg

; 1024 : 		strMax = strRiseFallRate;

  0007d	57		 push	 edi
  0007e	8d 4d 14	 lea	 ecx, DWORD PTR _strMax$[ebp]
  00081	ff 15 00 00 00
	00		 call	 DWORD PTR __imp_??4?$CStringT@DV?$StrTraitMFC_DLL@DV?$ChTraitsCRT@D@ATL@@@@@ATL@@QAEAAV01@ABV01@@Z
  00087	8b 16		 mov	 edx, DWORD PTR [esi]
  00089	8b 0f		 mov	 ecx, DWORD PTR [edi]
$LN4@GetTextReg:
; File C:\Program Files (x86)\Microsoft Visual Studio\2019\Community\VC\Tools\MSVC\14.29.30133\atlmfc\include\atlsimpstr.h

; 533  : 		return( GetLength() == 0 );

  0008b	8b 71 f4	 mov	 esi, DWORD PTR [ecx-12]
; File C:\Program Files (x86)\Microsoft Visual Studio\2019\Community\VC\Tools\MSVC\14.29.30133\atlmfc\include\afxwin1.inl

; 639  : 		VERIFY(::GetTextExtentPoint32(m_hAttribDC, str, (int)str.GetLength(), &size));

  0008e	8d 45 ec	 lea	 eax, DWORD PTR _size$2[ebp]
  00091	50		 push	 eax
  00092	8b 45 14	 mov	 eax, DWORD PTR _strMax$[ebp]
; File C:\Program Files (x86)\Microsoft Visual Studio\2019\Community\VC\Tools\MSVC\14.29.30133\atlmfc\include\atlsimpstr.h

; 519  : 		return( GetData()->nDataLength );

  00095	33 db		 xor	 ebx, ebx
  00097	39 5a f4	 cmp	 DWORD PTR [edx-12], ebx
  0009a	0f 95 c3	 setne	 bl
; File C:\Program Files (x86)\Microsoft Visual Studio\2019\Community\VC\Tools\MSVC\14.29.30133\atlmfc\include\afxwin1.inl

; 639  : 		VERIFY(::GetTextExtentPoint32(m_hAttribDC, str, (int)str.GetLength(), &size));

  0009d	ff 70 f4	 push	 DWORD PTR [eax-12]
  000a0	50		 push	 eax
  000a1	8b 45 0c	 mov	 eax, DWORD PTR _pDC$[ebp]
  000a4	ff 70 08	 push	 DWORD PTR [eax+8]
  000a7	ff 15 00 00 00
	00		 call	 DWORD PTR __imp__GetTextExtentPoint32A@16
; File D:\git\src\IBK\IBK_DRFN\ProjSrc\SrcChartEx\ChartOCX\GraphDraw\GraphDataDrawer.cpp

; 1033 : 	CRect region(rightTopPt, rightTopPt);

  000ad	8b 45 10	 mov	 eax, DWORD PTR _rightTopPt$[ebp]
; File C:\Program Files (x86)\Microsoft Visual Studio\2019\Community\VC\Tools\MSVC\14.29.30133\atlmfc\include\atltypes.h

; 569  : 	top = topLeft.y;

  000b0	8b 7d 08	 mov	 edi, DWORD PTR ___$ReturnUdt$[ebp]
; File D:\git\src\IBK\IBK_DRFN\ProjSrc\SrcChartEx\ChartOCX\GraphDraw\GraphDataDrawer.cpp

; 1033 : 	CRect region(rightTopPt, rightTopPt);

  000b3	8b 50 04	 mov	 edx, DWORD PTR [eax+4]
  000b6	8b 08		 mov	 ecx, DWORD PTR [eax]
; File C:\Program Files (x86)\Microsoft Visual Studio\2019\Community\VC\Tools\MSVC\14.29.30133\atlmfc\include\atltypes.h

; 912  : 	left -= l;

  000b8	8b c1		 mov	 eax, ecx
  000ba	2b 45 ec	 sub	 eax, DWORD PTR _size$2[ebp]
  000bd	83 c0 fe	 add	 eax, -2			; fffffffeH
; File C:\Program Files (x86)\Microsoft Visual Studio\2019\Community\VC\Tools\MSVC\14.29.30133\atlmfc\include\afxwin1.inl

; 639  : 		VERIFY(::GetTextExtentPoint32(m_hAttribDC, str, (int)str.GetLength(), &size));

  000c0	85 f6		 test	 esi, esi
; File C:\Program Files (x86)\Microsoft Visual Studio\2019\Community\VC\Tools\MSVC\14.29.30133\atlmfc\include\atltypes.h

; 912  : 	left -= l;

  000c2	89 45 1c	 mov	 DWORD PTR _nTemp$1$[ebp], eax
  000c5	89 07		 mov	 DWORD PTR [edi], eax
  000c7	8d 42 fe	 lea	 eax, DWORD PTR [edx-2]
  000ca	89 45 20	 mov	 DWORD PTR tv668[ebp], eax

; 913  : 	top -= t;

  000cd	89 47 04	 mov	 DWORD PTR [edi+4], eax
  000d0	8d 41 02	 lea	 eax, DWORD PTR [ecx+2]
  000d3	89 45 18	 mov	 DWORD PTR tv670[ebp], eax

; 915  : 	bottom += b;

  000d6	8d 4a 01	 lea	 ecx, DWORD PTR [edx+1]

; 884  : 	if (left > right)

  000d9	8b 55 1c	 mov	 edx, DWORD PTR _nTemp$1$[ebp]

; 914  : 	right += r;

  000dc	89 47 08	 mov	 DWORD PTR [edi+8], eax
; File C:\Program Files (x86)\Microsoft Visual Studio\2019\Community\VC\Tools\MSVC\14.29.30133\atlmfc\include\afxwin1.inl

; 639  : 		VERIFY(::GetTextExtentPoint32(m_hAttribDC, str, (int)str.GetLength(), &size));

  000df	8d 43 01	 lea	 eax, DWORD PTR [ebx+1]
  000e2	0f 44 c3	 cmove	 eax, ebx
; File D:\git\src\IBK\IBK_DRFN\ProjSrc\SrcChartEx\ChartOCX\GraphDraw\GraphDataDrawer.cpp

; 1034 : 	region.InflateRect((strMaxSize.cx + 2), 2, 2, (strMaxSize.cy*nLineCount +1));

  000e5	0f af 45 f0	 imul	 eax, DWORD PTR _size$2[ebp+4]
; File C:\Program Files (x86)\Microsoft Visual Studio\2019\Community\VC\Tools\MSVC\14.29.30133\atlmfc\include\atltypes.h

; 915  : 	bottom += b;

  000e9	03 c8		 add	 ecx, eax

; 884  : 	if (left > right)

  000eb	8b 45 18	 mov	 eax, DWORD PTR tv670[ebp]

; 915  : 	bottom += b;

  000ee	89 4f 0c	 mov	 DWORD PTR [edi+12], ecx

; 884  : 	if (left > right)

  000f1	3b d0		 cmp	 edx, eax
  000f3	7e 05		 jle	 SHORT $LN60@GetTextReg

; 885  : 	{
; 886  : 		nTemp = left;
; 887  : 		left = right;

  000f5	89 07		 mov	 DWORD PTR [edi], eax

; 888  : 		right = nTemp;

  000f7	89 57 08	 mov	 DWORD PTR [edi+8], edx
$LN60@GetTextReg:

; 889  : 	}
; 890  : 	if (top > bottom)

  000fa	8b 45 20	 mov	 eax, DWORD PTR tv668[ebp]
  000fd	3b c1		 cmp	 eax, ecx
  000ff	7e 06		 jle	 SHORT $LN61@GetTextReg

; 891  : 	{
; 892  : 		nTemp = top;
; 893  : 		top = bottom;

  00101	89 4f 04	 mov	 DWORD PTR [edi+4], ecx

; 894  : 		bottom = nTemp;

  00104	89 47 0c	 mov	 DWORD PTR [edi+12], eax
$LN61@GetTextReg:
; File D:\git\src\IBK\IBK_DRFN\ProjSrc\SrcChartEx\ChartOCX\GraphDraw\GraphDataDrawer.cpp

; 1037 : 	return region;

  00107	8d 4d 14	 lea	 ecx, DWORD PTR _strMax$[ebp]
  0010a	ff 15 00 00 00
	00		 call	 DWORD PTR __imp_??1?$CStringT@DV?$StrTraitMFC_DLL@DV?$ChTraitsCRT@D@ATL@@@@@ATL@@QAE@XZ
  00110	8b c7		 mov	 eax, edi

; 1038 : }

  00112	8b 4d f4	 mov	 ecx, DWORD PTR __$EHRec$[ebp]
  00115	64 89 0d 00 00
	00 00		 mov	 DWORD PTR fs:0, ecx
  0011c	59		 pop	 ecx
  0011d	5f		 pop	 edi
  0011e	5e		 pop	 esi
  0011f	5b		 pop	 ebx
  00120	8b e5		 mov	 esp, ebp
  00122	5d		 pop	 ebp
  00123	c2 1c 00	 ret	 28			; 0000001cH
_TEXT	ENDS
;	COMDAT text$x
text$x	SEGMENT
__unwindfunclet$?GetTextRegion@CDataInRightScaleRegionDrawer@@ABE?AVCRect@@PAVCDC@@ABVCPoint@@ABV?$CStringT@DV?$StrTraitMFC_DLL@DV?$ChTraitsCRT@D@ATL@@@@@ATL@@222@Z$0:
  00000	8d 4d 14	 lea	 ecx, DWORD PTR _strMax$[ebp]
  00003	ff 25 00 00 00
	00		 jmp	 DWORD PTR __imp_??1?$CStringT@DV?$StrTraitMFC_DLL@DV?$ChTraitsCRT@D@ATL@@@@@ATL@@QAE@XZ
  00009	cc		 int	 3
  0000a	cc		 int	 3
  0000b	cc		 int	 3
  0000c	cc		 int	 3
  0000d	cc		 int	 3
__ehhandler$?GetTextRegion@CDataInRightScaleRegionDrawer@@ABE?AVCRect@@PAVCDC@@ABVCPoint@@ABV?$CStringT@DV?$StrTraitMFC_DLL@DV?$ChTraitsCRT@D@ATL@@@@@ATL@@222@Z:
  0000e	90		 npad	 1
  0000f	90		 npad	 1
  00010	8b 54 24 08	 mov	 edx, DWORD PTR [esp+8]
  00014	8d 42 0c	 lea	 eax, DWORD PTR [edx+12]
  00017	8b 4a e8	 mov	 ecx, DWORD PTR [edx-24]
  0001a	33 c8		 xor	 ecx, eax
  0001c	e8 00 00 00 00	 call	 @__security_check_cookie@4
  00021	b8 00 00 00 00	 mov	 eax, OFFSET __ehfuncinfo$?GetTextRegion@CDataInRightScaleRegionDrawer@@ABE?AVCRect@@PAVCDC@@ABVCPoint@@ABV?$CStringT@DV?$StrTraitMFC_DLL@DV?$ChTraitsCRT@D@ATL@@@@@ATL@@222@Z
  00026	e9 00 00 00 00	 jmp	 ___CxxFrameHandler3
text$x	ENDS
?GetTextRegion@CDataInRightScaleRegionDrawer@@ABE?AVCRect@@PAVCDC@@ABVCPoint@@ABV?$CStringT@DV?$StrTraitMFC_DLL@DV?$ChTraitsCRT@D@ATL@@@@@ATL@@222@Z ENDP ; CDataInRightScaleRegionDrawer::GetTextRegion
; Function compile flags: /Ogtp
; File D:\git\src\IBK\IBK_DRFN\ProjSrc\SrcChartEx\ChartOCX\GraphDraw\GraphDataDrawer.cpp
; File C:\Program Files (x86)\Microsoft Visual Studio\2019\Community\VC\Tools\MSVC\14.29.30133\atlmfc\include\atlsimpstr.h
; File D:\git\src\IBK\IBK_DRFN\ProjSrc\SrcChartEx\ChartOCX\GraphDraw\GraphDataDrawer.cpp
; File C:\Program Files (x86)\Microsoft Visual Studio\2019\Community\VC\Tools\MSVC\14.29.30133\atlmfc\include\atlsimpstr.h
; File D:\git\src\IBK\IBK_DRFN\ProjSrc\SrcChartEx\ChartOCX\GraphDraw\GraphDataDrawer.cpp
; File C:\Program Files (x86)\Microsoft Visual Studio\2019\Community\VC\Tools\MSVC\14.29.30133\atlmfc\include\atlsimpstr.h
; File D:\git\src\IBK\IBK_DRFN\ProjSrc\SrcChartEx\ChartOCX\GraphDraw\GraphDataDrawer.cpp
; File C:\Program Files (x86)\Microsoft Visual Studio\2019\Community\VC\Tools\MSVC\14.29.30133\atlmfc\include\atlsimpstr.h
; File D:\git\src\IBK\IBK_DRFN\ProjSrc\SrcChartEx\ChartOCX\GraphDraw\GraphDataDrawer.cpp
; File C:\Program Files (x86)\Microsoft Visual Studio\2019\Community\VC\Tools\MSVC\14.29.30133\atlmfc\include\atlsimpstr.h
; File C:\Program Files (x86)\Microsoft Visual Studio\2019\Community\VC\Tools\MSVC\14.29.30133\atlmfc\include\afxwin1.inl
; File D:\git\src\IBK\IBK_DRFN\ProjSrc\SrcChartEx\ChartOCX\GraphDraw\GraphDataDrawer.cpp
; File C:\Program Files (x86)\Microsoft Visual Studio\2019\Community\VC\Tools\MSVC\14.29.30133\atlmfc\include\afxwin1.inl
; File D:\git\src\IBK\IBK_DRFN\ProjSrc\SrcChartEx\ChartOCX\GraphDraw\GraphDataDrawer.cpp
; File C:\Program Files (x86)\Microsoft Visual Studio\2019\Community\VC\Tools\MSVC\14.29.30133\atlmfc\include\afxwin1.inl
; File C:\Program Files (x86)\Microsoft Visual Studio\2019\Community\VC\Tools\MSVC\14.29.30133\atlmfc\include\atltypes.h
; File D:\git\src\IBK\IBK_DRFN\ProjSrc\SrcChartEx\ChartOCX\GraphDraw\GraphDataDrawer.cpp
; File C:\Program Files (x86)\Microsoft Visual Studio\2019\Community\VC\Tools\MSVC\14.29.30133\atlmfc\include\atltypes.h
; File D:\git\src\IBK\IBK_DRFN\ProjSrc\SrcChartEx\ChartOCX\GraphDraw\GraphDataDrawer.cpp
; File C:\Program Files (x86)\Microsoft Visual Studio\2019\Community\VC\Tools\MSVC\14.29.30133\atlmfc\include\atltypes.h
; File D:\git\src\IBK\IBK_DRFN\ProjSrc\SrcChartEx\ChartOCX\GraphDraw\GraphDataDrawer.cpp
; File C:\Program Files (x86)\Microsoft Visual Studio\2019\Community\VC\Tools\MSVC\14.29.30133\atlmfc\include\atltypes.h
; File D:\git\src\IBK\IBK_DRFN\ProjSrc\SrcChartEx\ChartOCX\GraphDraw\GraphDataDrawer.cpp
; File C:\Program Files (x86)\Microsoft Visual Studio\2019\Community\VC\Tools\MSVC\14.29.30133\atlmfc\include\atltypes.h
; File D:\git\src\IBK\IBK_DRFN\ProjSrc\SrcChartEx\ChartOCX\GraphDraw\GraphDataDrawer.cpp
;	COMDAT ?GetTextRegion@CDataInRightScaleRegionDrawer@@ABE?AVCRect@@PAVCDC@@ABVCDrawingGraphData@@ABVCPrices@@ABV?$CStringT@DV?$StrTraitMFC_DLL@DV?$ChTraitsCRT@D@ATL@@@@@ATL@@333ABV2@@Z
_TEXT	SEGMENT
$T4 = -116						; size = 16
$T5 = -100						; size = 16
$T6 = -84						; size = 16
$T7 = -68						; size = 16
$T8 = -60						; size = 8
_size$9 = -52						; size = 8
_size$10 = -44						; size = 8
_dRealCur$11 = -36					; size = 8
$T12 = -36						; size = 8
_dRealMin$13 = -28					; size = 8
_dRealMax$14 = -20					; size = 8
__$EHRec$ = -12						; size = 12
___$ReturnUdt$ = 8					; size = 4
_pDC$ = 12						; size = 4
_drawingGraphData$ = 16					; size = 4
_prices$ = 20						; size = 4
_strMax$ = 24						; size = 4
_strCurPrice$ = 24					; size = 4
$T15 = 28						; size = 4
_strDiffPrice$ = 28					; size = 4
_strPipPrice$ = 32					; size = 4
_strRiseFallRate$ = 36					; size = 4
_rcScaleText$ = 40					; size = 4
?GetTextRegion@CDataInRightScaleRegionDrawer@@ABE?AVCRect@@PAVCDC@@ABVCDrawingGraphData@@ABVCPrices@@ABV?$CStringT@DV?$StrTraitMFC_DLL@DV?$ChTraitsCRT@D@ATL@@@@@ATL@@333ABV2@@Z PROC ; CDataInRightScaleRegionDrawer::GetTextRegion, COMDAT
; _this$ = ecx

; 985  : {

  00000	55		 push	 ebp
  00001	8b ec		 mov	 ebp, esp
  00003	6a ff		 push	 -1
  00005	68 00 00 00 00	 push	 __ehhandler$?GetTextRegion@CDataInRightScaleRegionDrawer@@ABE?AVCRect@@PAVCDC@@ABVCDrawingGraphData@@ABVCPrices@@ABV?$CStringT@DV?$StrTraitMFC_DLL@DV?$ChTraitsCRT@D@ATL@@@@@ATL@@333ABV2@@Z
  0000a	64 a1 00 00 00
	00		 mov	 eax, DWORD PTR fs:0
  00010	50		 push	 eax
  00011	83 ec 68	 sub	 esp, 104		; 00000068H
  00014	53		 push	 ebx
  00015	56		 push	 esi
  00016	57		 push	 edi
  00017	a1 00 00 00 00	 mov	 eax, DWORD PTR ___security_cookie
  0001c	33 c5		 xor	 eax, ebp
  0001e	50		 push	 eax
  0001f	8d 45 f4	 lea	 eax, DWORD PTR __$EHRec$[ebp]
  00022	64 a3 00 00 00
	00		 mov	 DWORD PTR fs:0, eax

; 986  : 	CString strMax = strCurPrice;

  00028	8b 75 18	 mov	 esi, DWORD PTR _strCurPrice$[ebp]
  0002b	8d 4d 18	 lea	 ecx, DWORD PTR _strMax$[ebp]
  0002e	56		 push	 esi
  0002f	ff 15 00 00 00
	00		 call	 DWORD PTR __imp_??0?$CStringT@DV?$StrTraitMFC_DLL@DV?$ChTraitsCRT@D@ATL@@@@@ATL@@QAE@ABV01@@Z
; File C:\Program Files (x86)\Microsoft Visual Studio\2019\Community\VC\Tools\MSVC\14.29.30133\atlmfc\include\atlsimpstr.h

; 519  : 		return( GetData()->nDataLength );

  00035	8b 7d 1c	 mov	 edi, DWORD PTR _strDiffPrice$[ebp]
  00038	8b 16		 mov	 edx, DWORD PTR [esi]
; File D:\git\src\IBK\IBK_DRFN\ProjSrc\SrcChartEx\ChartOCX\GraphDraw\GraphDataDrawer.cpp

; 986  : 	CString strMax = strCurPrice;

  0003a	c7 45 fc 00 00
	00 00		 mov	 DWORD PTR __$EHRec$[ebp+8], 0
; File C:\Program Files (x86)\Microsoft Visual Studio\2019\Community\VC\Tools\MSVC\14.29.30133\atlmfc\include\atlsimpstr.h

; 519  : 		return( GetData()->nDataLength );

  00041	8b 07		 mov	 eax, DWORD PTR [edi]
  00043	8b 4a f4	 mov	 ecx, DWORD PTR [edx-12]
; File D:\git\src\IBK\IBK_DRFN\ProjSrc\SrcChartEx\ChartOCX\GraphDraw\GraphDataDrawer.cpp

; 987  : 	if(strCurPrice.GetLength() < strDiffPrice.GetLength())

  00046	3b 48 f4	 cmp	 ecx, DWORD PTR [eax-12]
  00049	7d 0c		 jge	 SHORT $LN2@GetTextReg

; 988  : 		strMax = strDiffPrice;

  0004b	57		 push	 edi
  0004c	8d 4d 18	 lea	 ecx, DWORD PTR _strMax$[ebp]
  0004f	ff 15 00 00 00
	00		 call	 DWORD PTR __imp_??4?$CStringT@DV?$StrTraitMFC_DLL@DV?$ChTraitsCRT@D@ATL@@@@@ATL@@QAEAAV01@ABV01@@Z
  00055	8b 16		 mov	 edx, DWORD PTR [esi]
$LN2@GetTextReg:
; File C:\Program Files (x86)\Microsoft Visual Studio\2019\Community\VC\Tools\MSVC\14.29.30133\atlmfc\include\atlsimpstr.h

; 519  : 		return( GetData()->nDataLength );

  00057	8b 7d 20	 mov	 edi, DWORD PTR _strPipPrice$[ebp]
  0005a	8b 4a f4	 mov	 ecx, DWORD PTR [edx-12]
  0005d	8b 07		 mov	 eax, DWORD PTR [edi]
; File D:\git\src\IBK\IBK_DRFN\ProjSrc\SrcChartEx\ChartOCX\GraphDraw\GraphDataDrawer.cpp

; 989  : 	if(strCurPrice.GetLength() < strPipPrice.GetLength())

  0005f	3b 48 f4	 cmp	 ecx, DWORD PTR [eax-12]
  00062	7d 0c		 jge	 SHORT $LN3@GetTextReg

; 990  : 		strMax = strPipPrice;

  00064	57		 push	 edi
  00065	8d 4d 18	 lea	 ecx, DWORD PTR _strMax$[ebp]
  00068	ff 15 00 00 00
	00		 call	 DWORD PTR __imp_??4?$CStringT@DV?$StrTraitMFC_DLL@DV?$ChTraitsCRT@D@ATL@@@@@ATL@@QAEAAV01@ABV01@@Z
  0006e	8b 16		 mov	 edx, DWORD PTR [esi]
$LN3@GetTextReg:
; File C:\Program Files (x86)\Microsoft Visual Studio\2019\Community\VC\Tools\MSVC\14.29.30133\atlmfc\include\atlsimpstr.h

; 519  : 		return( GetData()->nDataLength );

  00070	8b 4a f4	 mov	 ecx, DWORD PTR [edx-12]
  00073	8b 55 24	 mov	 edx, DWORD PTR _strRiseFallRate$[ebp]
  00076	8b 02		 mov	 eax, DWORD PTR [edx]
; File D:\git\src\IBK\IBK_DRFN\ProjSrc\SrcChartEx\ChartOCX\GraphDraw\GraphDataDrawer.cpp

; 991  : 	if(strCurPrice.GetLength() < strRiseFallRate.GetLength())

  00078	3b 48 f4	 cmp	 ecx, DWORD PTR [eax-12]
  0007b	7d 0a		 jge	 SHORT $LN4@GetTextReg

; 992  : 		strMax = strRiseFallRate;

  0007d	52		 push	 edx
  0007e	8d 4d 18	 lea	 ecx, DWORD PTR _strMax$[ebp]
  00081	ff 15 00 00 00
	00		 call	 DWORD PTR __imp_??4?$CStringT@DV?$StrTraitMFC_DLL@DV?$ChTraitsCRT@D@ATL@@@@@ATL@@QAEAAV01@ABV01@@Z
$LN4@GetTextReg:
; File C:\Program Files (x86)\Microsoft Visual Studio\2019\Community\VC\Tools\MSVC\14.29.30133\atlmfc\include\atlsimpstr.h

; 519  : 		return( GetData()->nDataLength );

  00087	8b 45 18	 mov	 eax, DWORD PTR _strMax$[ebp]
; File C:\Program Files (x86)\Microsoft Visual Studio\2019\Community\VC\Tools\MSVC\14.29.30133\atlmfc\include\afxwin1.inl

; 639  : 		VERIFY(::GetTextExtentPoint32(m_hAttribDC, str, (int)str.GetLength(), &size));

  0008a	8d 4d cc	 lea	 ecx, DWORD PTR _size$9[ebp]
  0008d	8b 7d 0c	 mov	 edi, DWORD PTR _pDC$[ebp]
  00090	8b 35 00 00 00
	00		 mov	 esi, DWORD PTR __imp__GetTextExtentPoint32A@16
  00096	51		 push	 ecx
  00097	ff 70 f4	 push	 DWORD PTR [eax-12]
  0009a	50		 push	 eax
  0009b	ff 77 08	 push	 DWORD PTR [edi+8]
  0009e	ff d6		 call	 esi
; File D:\git\src\IBK\IBK_DRFN\ProjSrc\SrcChartEx\ChartOCX\GraphDraw\GraphDataDrawer.cpp

; 996  : 	int nPosition_Y = GetPosition_Y(pDC->GetTextExtent("0"), drawingGraphData, prices.GetCur(), rcScaleText);

  000a0	8b 45 14	 mov	 eax, DWORD PTR _prices$[ebp]
  000a3	8d 4d 1c	 lea	 ecx, DWORD PTR $T15[ebp]
  000a6	68 00 00 00 00	 push	 OFFSET ??_C@_01GBGANLPD@0@
  000ab	f2 0f 10 40 08	 movsd	 xmm0, QWORD PTR [eax+8]
  000b0	f2 0f 11 45 c4	 movsd	 QWORD PTR $T8[ebp], xmm0
  000b5	ff 15 00 00 00
	00		 call	 DWORD PTR __imp_??0?$CStringT@DV?$StrTraitMFC_DLL@DV?$ChTraitsCRT@D@ATL@@@@@ATL@@QAE@PBD@Z
; File C:\Program Files (x86)\Microsoft Visual Studio\2019\Community\VC\Tools\MSVC\14.29.30133\atlmfc\include\afxwin1.inl

; 639  : 		VERIFY(::GetTextExtentPoint32(m_hAttribDC, str, (int)str.GetLength(), &size));

  000bb	8d 45 d4	 lea	 eax, DWORD PTR _size$10[ebp]
; File D:\git\src\IBK\IBK_DRFN\ProjSrc\SrcChartEx\ChartOCX\GraphDraw\GraphDataDrawer.cpp

; 996  : 	int nPosition_Y = GetPosition_Y(pDC->GetTextExtent("0"), drawingGraphData, prices.GetCur(), rcScaleText);

  000be	c6 45 fc 01	 mov	 BYTE PTR __$EHRec$[ebp+8], 1
; File C:\Program Files (x86)\Microsoft Visual Studio\2019\Community\VC\Tools\MSVC\14.29.30133\atlmfc\include\afxwin1.inl

; 639  : 		VERIFY(::GetTextExtentPoint32(m_hAttribDC, str, (int)str.GetLength(), &size));

  000c2	50		 push	 eax
  000c3	8b 45 1c	 mov	 eax, DWORD PTR $T15[ebp]
  000c6	ff 70 f4	 push	 DWORD PTR [eax-12]
  000c9	50		 push	 eax
  000ca	ff 77 08	 push	 DWORD PTR [edi+8]
  000cd	ff d6		 call	 esi
; File C:\Program Files (x86)\Microsoft Visual Studio\2019\Community\VC\Tools\MSVC\14.29.30133\atlmfc\include\atltypes.h

; 318  : 	*(SIZE*)this = initSize;

  000cf	8b 45 d4	 mov	 eax, DWORD PTR _size$10[ebp]
; File D:\git\src\IBK\IBK_DRFN\ProjSrc\SrcChartEx\ChartOCX\GraphDraw\GraphDataDrawer.cpp

; 941  : 	double dRealMin = drawingGraphData.GetDisplayDataVertMinMax().GetDisplayMin();

  000d2	8b 75 10	 mov	 esi, DWORD PTR _drawingGraphData$[ebp]
  000d5	8b ce		 mov	 ecx, esi
; File C:\Program Files (x86)\Microsoft Visual Studio\2019\Community\VC\Tools\MSVC\14.29.30133\atlmfc\include\atltypes.h

; 318  : 	*(SIZE*)this = initSize;

  000d7	8b 5d d8	 mov	 ebx, DWORD PTR _size$10[ebp+4]
  000da	89 45 dc	 mov	 DWORD PTR $T12[ebp], eax
; File D:\git\src\IBK\IBK_DRFN\ProjSrc\SrcChartEx\ChartOCX\GraphDraw\GraphDataDrawer.cpp

; 941  : 	double dRealMin = drawingGraphData.GetDisplayDataVertMinMax().GetDisplayMin();

  000dd	8d 45 ac	 lea	 eax, DWORD PTR $T6[ebp]
  000e0	50		 push	 eax
  000e1	e8 00 00 00 00	 call	 ?GetDisplayDataVertMinMax@CDrawingGraphData@@QBE?AVCDisplayDataMinMax@@XZ ; CDrawingGraphData::GetDisplayDataVertMinMax
  000e6	8b c8		 mov	 ecx, eax
  000e8	ff 15 00 00 00
	00		 call	 DWORD PTR __imp_?GetDisplayMin@CDisplayDataMinMax@@QBENXZ

; 942  : 	double dRealMax = drawingGraphData.GetDisplayDataVertMinMax().GetDisplayMax();

  000ee	8d 45 9c	 lea	 eax, DWORD PTR $T5[ebp]
  000f1	8b ce		 mov	 ecx, esi
  000f3	50		 push	 eax
  000f4	dd 5d e4	 fstp	 QWORD PTR _dRealMin$13[ebp]
  000f7	e8 00 00 00 00	 call	 ?GetDisplayDataVertMinMax@CDrawingGraphData@@QBE?AVCDisplayDataMinMax@@XZ ; CDrawingGraphData::GetDisplayDataVertMinMax
  000fc	8b c8		 mov	 ecx, eax
  000fe	ff 15 00 00 00
	00		 call	 DWORD PTR __imp_?GetDisplayMax@CDisplayDataMinMax@@QBENXZ

; 943  : 	double dRealCur = dCur;

  00104	f2 0f 10 45 c4	 movsd	 xmm0, QWORD PTR $T8[ebp]

; 944  : 
; 945  : 	// 
; 946  : 	if(drawingGraphData.DoesVertScaleInvertType()){

  00109	8b ce		 mov	 ecx, esi
  0010b	dd 5d ec	 fstp	 QWORD PTR _dRealMax$14[ebp]
  0010e	f2 0f 11 45 dc	 movsd	 QWORD PTR _dRealCur$11[ebp], xmm0
  00113	e8 00 00 00 00	 call	 ?DoesVertScaleInvertType@CDrawingGraphData@@QBE_NXZ ; CDrawingGraphData::DoesVertScaleInvertType
  00118	84 c0		 test	 al, al
  0011a	74 2c		 je	 SHORT $LN53@GetTextReg

; 947  : 		dRealMin = drawingGraphData.GetDisplayDataVertMinMax().GetDisplayMax();

  0011c	8d 45 bc	 lea	 eax, DWORD PTR $T7[ebp]
  0011f	8b ce		 mov	 ecx, esi
  00121	50		 push	 eax
  00122	e8 00 00 00 00	 call	 ?GetDisplayDataVertMinMax@CDrawingGraphData@@QBE?AVCDisplayDataMinMax@@XZ ; CDrawingGraphData::GetDisplayDataVertMinMax
  00127	8b c8		 mov	 ecx, eax
  00129	ff 15 00 00 00
	00		 call	 DWORD PTR __imp_?GetDisplayMax@CDisplayDataMinMax@@QBENXZ

; 948  : 		dRealMax = drawingGraphData.GetDisplayDataVertMinMax().GetDisplayMin();

  0012f	8d 45 8c	 lea	 eax, DWORD PTR $T4[ebp]
  00132	8b ce		 mov	 ecx, esi
  00134	50		 push	 eax
  00135	dd 5d e4	 fstp	 QWORD PTR _dRealMin$13[ebp]
  00138	e8 00 00 00 00	 call	 ?GetDisplayDataVertMinMax@CDrawingGraphData@@QBE?AVCDisplayDataMinMax@@XZ ; CDrawingGraphData::GetDisplayDataVertMinMax
  0013d	8b c8		 mov	 ecx, eax
  0013f	ff 15 00 00 00
	00		 call	 DWORD PTR __imp_?GetDisplayMin@CDisplayDataMinMax@@QBENXZ
  00145	dd 5d ec	 fstp	 QWORD PTR _dRealMax$14[ebp]
$LN53@GetTextReg:

; 949  : 	}
; 950  : 
; 951  : 	// log
; 952  : 	if(drawingGraphData.DoesVertScaleLogType()){

  00148	8b ce		 mov	 ecx, esi
  0014a	e8 00 00 00 00	 call	 ?DoesVertScaleLogType@CDrawingGraphData@@QBE_NXZ ; CDrawingGraphData::DoesVertScaleLogType
  0014f	84 c0		 test	 al, al
  00151	74 27		 je	 SHORT $LN54@GetTextReg

; 953  : 		dRealMin = CMath::Log(dRealMin);

  00153	8d 45 e4	 lea	 eax, DWORD PTR _dRealMin$13[ebp]
  00156	50		 push	 eax
  00157	e8 00 00 00 00	 call	 ?Log@CMath@@SANABN@Z	; CMath::Log

; 954  : 		dRealMax = CMath::Log(dRealMax);

  0015c	8d 45 ec	 lea	 eax, DWORD PTR _dRealMax$14[ebp]
  0015f	dd 5d e4	 fstp	 QWORD PTR _dRealMin$13[ebp]
  00162	50		 push	 eax
  00163	e8 00 00 00 00	 call	 ?Log@CMath@@SANABN@Z	; CMath::Log

; 955  : 		dRealCur = CMath::Log(dRealCur);

  00168	8d 45 dc	 lea	 eax, DWORD PTR _dRealCur$11[ebp]
  0016b	dd 5d ec	 fstp	 QWORD PTR _dRealMax$14[ebp]
  0016e	50		 push	 eax
  0016f	e8 00 00 00 00	 call	 ?Log@CMath@@SANABN@Z	; CMath::Log
  00174	dd 5d dc	 fstp	 QWORD PTR _dRealCur$11[ebp]
  00177	83 c4 0c	 add	 esp, 12			; 0000000cH
$LN54@GetTextReg:

; 956  : 	}
; 957  : 
; 958  : 	// Y Scale    - ojtaso (20070807)
; 959  : 	int nPosition_Y = CDataConversion::RelativeToAbsolute_Y(rcScaleText, dRealCur, dRealMin, dRealMax);

  0017a	8b 7d 28	 mov	 edi, DWORD PTR _rcScaleText$[ebp]
  0017d	8d 45 ec	 lea	 eax, DWORD PTR _dRealMax$14[ebp]
  00180	50		 push	 eax
  00181	8d 45 e4	 lea	 eax, DWORD PTR _dRealMin$13[ebp]
  00184	50		 push	 eax
  00185	8d 45 dc	 lea	 eax, DWORD PTR _dRealCur$11[ebp]
  00188	50		 push	 eax
  00189	57		 push	 edi
  0018a	e8 00 00 00 00	 call	 ?RelativeToAbsolute_Y@CDataConversion@@SAHABVCRect@@ABN11@Z ; CDataConversion::RelativeToAbsolute_Y
  0018f	8b f0		 mov	 esi, eax

