; Listing generated by Microsoft (R) Optimizing Compiler Version 19.29.30145.0 

	TITLE	D:\git\src\IBK\IBK_DRFN\#DRfn-CS\_Obj\GraphDraw\GraphDataDrawer.obj
	.686P
	.XMM
	include listing.inc
	.model	flat

INCLUDELIB MSVCRT
INCLUDELIB OLDNAMES

PUBLIC	?__empty_global_delete@@YAXPAX@Z		; __empty_global_delete
PUBLIC	?__empty_global_delete@@YAXPAXI@Z		; __empty_global_delete
PUBLIC	??1CObject@@UAE@XZ				; CObject::~CObject
PUBLIC	?Serialize@CObject@@UAEXAAVCArchive@@@Z		; CObject::Serialize
PUBLIC	?AssertValid@CObject@@UBEXXZ			; CObject::AssertValid
PUBLIC	?Dump@CObject@@UBEXAAVCDumpContext@@@Z		; CObject::Dump
PUBLIC	??1CGdiObject@@UAE@XZ				; CGdiObject::~CGdiObject
PUBLIC	??_GCGdiObject@@UAEPAXI@Z			; CGdiObject::`scalar deleting destructor'
PUBLIC	??1CPen@@UAE@XZ					; CPen::~CPen
PUBLIC	??_GCPen@@UAEPAXI@Z				; CPen::`scalar deleting destructor'
PUBLIC	??1CBrush@@UAE@XZ				; CBrush::~CBrush
PUBLIC	??_GCBrush@@UAEPAXI@Z				; CBrush::`scalar deleting destructor'
PUBLIC	??4CPrices@@QAEAAV0@ABV0@@Z			; CPrices::operator=
PUBLIC	??0CPrices@@QAE@XZ				; CPrices::CPrices
PUBLIC	??0CPrices@@QAE@ABN00@Z				; CPrices::CPrices
PUBLIC	?SetPrev@CPrices@@QAEXABN@Z			; CPrices::SetPrev
PUBLIC	?SetCur@CPrices@@QAEXABN@Z			; CPrices::SetCur
PUBLIC	?SetDecimalDownCount@CPrices@@QAEXH@Z		; CPrices::SetDecimalDownCount
PUBLIC	?SetPipSize@CPrices@@QAEXABN@Z			; CPrices::SetPipSize
PUBLIC	?SetDataUnit@CPrices@@QAEXABV?$CStringT@DV?$StrTraitMFC_DLL@DV?$ChTraitsCRT@D@ATL@@@@@ATL@@@Z ; CPrices::SetDataUnit
PUBLIC	?SetPacketType@CPrices@@QAEXABV?$CStringT@DV?$StrTraitMFC_DLL@DV?$ChTraitsCRT@D@ATL@@@@@ATL@@@Z ; CPrices::SetPacketType
PUBLIC	?GetPrev@CPrices@@QBENXZ			; CPrices::GetPrev
PUBLIC	?GetCur@CPrices@@QBENXZ				; CPrices::GetCur
PUBLIC	?GetDifference@CPrices@@QBENXZ			; CPrices::GetDifference
PUBLIC	?GetDecimalDownCount@CPrices@@QBEHXZ		; CPrices::GetDecimalDownCount
PUBLIC	?GetPipSize@CPrices@@QBENXZ			; CPrices::GetPipSize
PUBLIC	?GetDataUnit@CPrices@@QBE?AV?$CStringT@DV?$StrTraitMFC_DLL@DV?$ChTraitsCRT@D@ATL@@@@@ATL@@XZ ; CPrices::GetDataUnit
PUBLIC	?GetPacketType@CPrices@@QBE?AV?$CStringT@DV?$StrTraitMFC_DLL@DV?$ChTraitsCRT@D@ATL@@@@@ATL@@XZ ; CPrices::GetPacketType
PUBLIC	?IsEmpty@CPrices@@QBE_NXZ			; CPrices::IsEmpty
PUBLIC	?IsRose@CPrices@@QBE_NXZ			; CPrices::IsRose
PUBLIC	?IsFall@CPrices@@QBE_NXZ			; CPrices::IsFall
PUBLIC	??1CPrices@@QAE@XZ				; CPrices::~CPrices
PUBLIC	??4CTextData@@QAEAAV0@ABV0@@Z			; CTextData::operator=
PUBLIC	??0CTextData@@QAE@XZ				; CTextData::CTextData
PUBLIC	??0CTextData@@QAE@ABV?$CStringT@DV?$StrTraitMFC_DLL@DV?$ChTraitsCRT@D@ATL@@@@@ATL@@0ABK@Z ; CTextData::CTextData
PUBLIC	?Set@CTextData@@QAEXABV?$CStringT@DV?$StrTraitMFC_DLL@DV?$ChTraitsCRT@D@ATL@@@@@ATL@@0ABK@Z ; CTextData::Set
PUBLIC	?SetTitle@CTextData@@QAEXABV?$CStringT@DV?$StrTraitMFC_DLL@DV?$ChTraitsCRT@D@ATL@@@@@ATL@@@Z ; CTextData::SetTitle
PUBLIC	?SetData@CTextData@@QAEXABV?$CStringT@DV?$StrTraitMFC_DLL@DV?$ChTraitsCRT@D@ATL@@@@@ATL@@@Z ; CTextData::SetData
PUBLIC	?SetColor@CTextData@@QAEXABK@Z			; CTextData::SetColor
PUBLIC	?GetTitle@CTextData@@QBE?AV?$CStringT@DV?$StrTraitMFC_DLL@DV?$ChTraitsCRT@D@ATL@@@@@ATL@@XZ ; CTextData::GetTitle
PUBLIC	?GetData@CTextData@@QBE?AV?$CStringT@DV?$StrTraitMFC_DLL@DV?$ChTraitsCRT@D@ATL@@@@@ATL@@XZ ; CTextData::GetData
PUBLIC	?GetColor@CTextData@@QBEKXZ			; CTextData::GetColor
PUBLIC	?IsEmpty@CTextData@@QBE_NXZ			; CTextData::IsEmpty
PUBLIC	??1CTextData@@QAE@XZ				; CTextData::~CTextData
PUBLIC	?DrawTextOut@CRateDrawer@@IAEXPAVCDC@@ABVCPoint@@ABV?$CStringT@DV?$StrTraitMFC_DLL@DV?$ChTraitsCRT@D@ATL@@@@@ATL@@AAH@Z ; CRateDrawer::DrawTextOut
PUBLIC	?DrawTextOut@CRateDrawer@@IAEXPAVCDC@@ABKABVCPoint@@ABV?$CStringT@DV?$StrTraitMFC_DLL@DV?$ChTraitsCRT@D@ATL@@@@@ATL@@AAH@Z ; CRateDrawer::DrawTextOut
PUBLIC	?DrawRegion@CRateDrawer@@IAEXPAVCDC@@ABVCRect@@ABK2@Z ; CRateDrawer::DrawRegion
PUBLIC	?GetRateText@CRateDrawer@@IBE?AV?$CStringT@DV?$StrTraitMFC_DLL@DV?$ChTraitsCRT@D@ATL@@@@@ATL@@ABN0@Z ; CRateDrawer::GetRateText
PUBLIC	?GetPrices@CRateDrawer@@IBE_NPAVCPacket@@HAAVCPrices@@@Z ; CRateDrawer::GetPrices
PUBLIC	?GetDecimalDownCountAndDataType@CRateDrawer@@IBE_NPAVCPacket@@AAVCPrices@@@Z ; CRateDrawer::GetDecimalDownCountAndDataType
PUBLIC	?GetRealDataEnd@CRateDrawer@@IBEHPAVCPacket@@H@Z ; CRateDrawer::GetRealDataEnd
PUBLIC	?GetDecimalDownCount@CRateDrawer@@ABE_NPAVCPacket@@AAHAAV?$CStringT@DV?$StrTraitMFC_DLL@DV?$ChTraitsCRT@D@ATL@@@@@ATL@@@Z ; CRateDrawer::GetDecimalDownCount
PUBLIC	?DrawData@CDataInGraphRegionDrawer@@QAEXPAVCDC@@ABVCRect@@ABVCDisplayAttributes@@ABVCDrawingGraphData@@ABVCSubGraphData@@AAVCPrices@@@Z ; CDataInGraphRegionDrawer::DrawData
PUBLIC	?DrawData@CDataInGraphRegionDrawer@@AAEXPAVCDC@@ABVCRect@@ABVCDrawingGraphData@@ABVCDisplayDataMinMax@@ABVCPrices@@ABVCGraphColor@@@Z ; CDataInGraphRegionDrawer::DrawData
PUBLIC	?DrawData@CDataInGraphRegionDrawer@@AAEXPAVCDC@@ABVCRect@@ABVCDrawingGraphData@@ABVCPrices@@ABV?$CList@VCTextData@@AAV1@@@@Z ; CDataInGraphRegionDrawer::DrawData
PUBLIC	?IsGraphDataDraw@CDataInGraphRegionDrawer@@ABE_NABVCRect@@ABVCDisplayAttributes@@@Z ; CDataInGraphRegionDrawer::IsGraphDataDraw
PUBLIC	?GetDrawingDatas@CDataInGraphRegionDrawer@@ABE_NABV?$CStringT@DV?$StrTraitMFC_DLL@DV?$ChTraitsCRT@D@ATL@@@@@ATL@@ABVCGraphStyle@@ABV?$CList@PAVCPacket@@PAV1@@@ABVCDisplayAttributes@@AAVCDisplayDataMinMax@@AAVCPrices@@@Z ; CDataInGraphRegionDrawer::GetDrawingDatas
PUBLIC	?GetHighLow@CDataInGraphRegionDrawer@@ABE_NABV?$CStringT@DV?$StrTraitMFC_DLL@DV?$ChTraitsCRT@D@ATL@@@@@ATL@@ABVCGraphStyle@@ABV?$CList@PAVCPacket@@PAV1@@@ABVCDisplayAttributes@@AAVCDisplayDataMinMax@@@Z ; CDataInGraphRegionDrawer::GetHighLow
PUBLIC	?GetDataTexts@CDataInGraphRegionDrawer@@ABE_NABVCGraphDataDrawingData@@ABVCDisplayDataMinMax@@ABVCPrices@@ABVCGraphColor@@AAV?$CList@VCTextData@@AAV1@@@@Z ; CDataInGraphRegionDrawer::GetDataTexts
PUBLIC	?GetDataTexts@CDataInGraphRegionDrawer@@ABE_NABVCGraphDataDrawingData@@ABVCDisplayDataMinMax@@ABVCPrices@@ABVCGraphColor@@AAH4AAV?$CList@VCTextData@@AAV1@@@@Z ; CDataInGraphRegionDrawer::GetDataTexts
PUBLIC	?GetPosition_Y@CDataInGraphRegionDrawer@@ABEHPAVCDC@@HH_NABVCDisplayDataMinMax@@ABN@Z ; CDataInGraphRegionDrawer::GetPosition_Y
PUBLIC	?GetDrawingText@CDataInGraphRegionDrawer@@ABE?AV?$CStringT@DV?$StrTraitMFC_DLL@DV?$ChTraitsCRT@D@ATL@@@@@ATL@@ABVCTextData@@@Z ; CDataInGraphRegionDrawer::GetDrawingText
PUBLIC	?AddTailAndGetMaxLength@CDataInGraphRegionDrawer@@ABE_NABV?$CStringT@DV?$StrTraitMFC_DLL@DV?$ChTraitsCRT@D@ATL@@@@@ATL@@0ABKAAH2AAV?$CList@VCTextData@@AAV1@@@@Z ; CDataInGraphRegionDrawer::AddTailAndGetMaxLength
PUBLIC	?ChangeData@CDataInGraphRegionDrawer@@ABEXHHAAV?$CList@VCTextData@@AAV1@@@@Z ; CDataInGraphRegionDrawer::ChangeData
PUBLIC	?ChangeMaxLength@CDataInGraphRegionDrawer@@ABEXABV?$CStringT@DV?$StrTraitMFC_DLL@DV?$ChTraitsCRT@D@ATL@@@@@ATL@@AAH@Z ; CDataInGraphRegionDrawer::ChangeMaxLength
PUBLIC	?GetChangingData@CDataInGraphRegionDrawer@@ABE_NABV?$CStringT@DV?$StrTraitMFC_DLL@DV?$ChTraitsCRT@D@ATL@@@@@ATL@@H_NAAV23@@Z ; CDataInGraphRegionDrawer::GetChangingData
PUBLIC	?GetRiseFallRateText_LowHigh@CDataInGraphRegionDrawer@@ABE?AV?$CStringT@DV?$StrTraitMFC_DLL@DV?$ChTraitsCRT@D@ATL@@@@@ATL@@ABVCDisplayDataMinMax@@@Z ; CDataInGraphRegionDrawer::GetRiseFallRateText_LowHigh
PUBLIC	?GetRiseFallRateText_LowCur@CDataInGraphRegionDrawer@@ABE?AV?$CStringT@DV?$StrTraitMFC_DLL@DV?$ChTraitsCRT@D@ATL@@@@@ATL@@ABN0@Z ; CDataInGraphRegionDrawer::GetRiseFallRateText_LowCur
PUBLIC	?GetRiseFallRateText_HighCur@CDataInGraphRegionDrawer@@ABE?AV?$CStringT@DV?$StrTraitMFC_DLL@DV?$ChTraitsCRT@D@ATL@@@@@ATL@@ABN0@Z ; CDataInGraphRegionDrawer::GetRiseFallRateText_HighCur
PUBLIC	?GetRateText_PrevCur@CDataInGraphRegionDrawer@@ABE?AV?$CStringT@DV?$StrTraitMFC_DLL@DV?$ChTraitsCRT@D@ATL@@@@@ATL@@ABVCPrices@@@Z ; CDataInGraphRegionDrawer::GetRateText_PrevCur
PUBLIC	?DrawData@CDataInRightScaleRegionDrawer@@QAEXPAVCDC@@ABVCRect@@ABVCDisplayAttributes@@ABVCDrawingGraphData@@ABVCGraphColor@@ABVCPrices@@@Z ; CDataInRightScaleRegionDrawer::DrawData
PUBLIC	?GetText@CDataInRightScaleRegionDrawer@@QBE_NABVCTextInRightScaleRegionDrawer@@AAV?$CStringT@DV?$StrTraitMFC_DLL@DV?$ChTraitsCRT@D@ATL@@@@@ATL@@111@Z ; CDataInRightScaleRegionDrawer::GetText
PUBLIC	?GetPacket@CDataInRightScaleRegionDrawer@@QBEPAVCPacket@@ABVCDrawingGraphData@@@Z ; CDataInRightScaleRegionDrawer::GetPacket
PUBLIC	?DrawData@CDataInRightScaleRegionDrawer@@AAEXPAVCDC@@ABVCRect@@ABVCDrawingGraphData@@ABVCGraphColor@@ABVCPrices@@AAV?$CStringT@DV?$StrTraitMFC_DLL@DV?$ChTraitsCRT@D@ATL@@@@@ATL@@@Z ; CDataInRightScaleRegionDrawer::DrawData
PUBLIC	?DrawData@CDataInRightScaleRegionDrawer@@AAEXPAVCDC@@ABVCRect@@ABVCDrawingGraphData@@ABVCGraphColor@@ABVCPrices@@AAV?$CStringT@DV?$StrTraitMFC_DLL@DV?$ChTraitsCRT@D@ATL@@@@@ATL@@AAV3@@Z ; CDataInRightScaleRegionDrawer::DrawData
PUBLIC	?DrawData@CDataInRightScaleRegionDrawer@@AAEXPAVCDC@@ABVCRect@@ABV?$CStringT@DV?$StrTraitMFC_DLL@DV?$ChTraitsCRT@D@ATL@@@@@ATL@@ABK3AAH@Z ; CDataInRightScaleRegionDrawer::DrawData
PUBLIC	?GetDrawingDatas@CDataInRightScaleRegionDrawer@@ABE_NABVCDisplayAttributes@@ABVCDrawingGraphData@@ABVCPrices@@AAV4@AAV?$CStringT@DV?$StrTraitMFC_DLL@DV?$ChTraitsCRT@D@ATL@@@@@ATL@@@Z ; CDataInRightScaleRegionDrawer::GetDrawingDatas
PUBLIC	?GetDrawingDatas@CDataInRightScaleRegionDrawer@@ABE_NPAVCPacket@@HHABVCPrices@@AAV3@@Z ; CDataInRightScaleRegionDrawer::GetDrawingDatas
PUBLIC	?GetPricesInFull@CDataInRightScaleRegionDrawer@@ABE_NPAVCPacket@@AAVCPrices@@@Z ; CDataInRightScaleRegionDrawer::GetPricesInFull
PUBLIC	?GetPricesInView@CDataInRightScaleRegionDrawer@@ABE_NPAVCPacket@@HABVCPrices@@AAV3@@Z ; CDataInRightScaleRegionDrawer::GetPricesInView
PUBLIC	?GetPosition_Y@CDataInRightScaleRegionDrawer@@ABEHABVCSize@@ABVCDrawingGraphData@@ABNABVCRect@@@Z ; CDataInRightScaleRegionDrawer::GetPosition_Y
PUBLIC	?GetGripRegion@CDataInRightScaleRegionDrawer@@ABE?AVCRect@@ABVCDrawingGraphData@@ABV2@@Z ; CDataInRightScaleRegionDrawer::GetGripRegion
PUBLIC	?GetTextRegion@CDataInRightScaleRegionDrawer@@ABE?AVCRect@@PAVCDC@@ABVCDrawingGraphData@@ABVCPrices@@ABV?$CStringT@DV?$StrTraitMFC_DLL@DV?$ChTraitsCRT@D@ATL@@@@@ATL@@333ABV2@@Z ; CDataInRightScaleRegionDrawer::GetTextRegion
PUBLIC	?GetTextRegion@CDataInRightScaleRegionDrawer@@ABE?AVCRect@@PAVCDC@@ABVCPoint@@ABV?$CStringT@DV?$StrTraitMFC_DLL@DV?$ChTraitsCRT@D@ATL@@@@@ATL@@222@Z ; CDataInRightScaleRegionDrawer::GetTextRegion
PUBLIC	?GetDrawingTextRegion@CDataInRightScaleRegionDrawer@@ABE?AVCRect@@ABV2@H@Z ; CDataInRightScaleRegionDrawer::GetDrawingTextRegion
PUBLIC	?GetTextPosition@CDataInRightScaleRegionDrawer@@ABE?AVCPoint@@HHABVCSize@@H@Z ; CDataInRightScaleRegionDrawer::GetTextPosition
PUBLIC	?GetCurrentPriceTextColor@CDataInRightScaleRegionDrawer@@ABEKABVCGraphColor@@ABVCPrices@@@Z ; CDataInRightScaleRegionDrawer::GetCurrentPriceTextColor
PUBLIC	?GetTextColor@CDataInRightScaleRegionDrawer@@ABEKABK@Z ; CDataInRightScaleRegionDrawer::GetTextColor
PUBLIC	?GetText@CDataInRightScaleRegionDrawer@@ABE_NABVCRect@@ABVCPrices@@HAAV?$CStringT@DV?$StrTraitMFC_DLL@DV?$ChTraitsCRT@D@ATL@@@@@ATL@@222@Z ; CDataInRightScaleRegionDrawer::GetText
PUBLIC	?GetText_Price@CDataInRightScaleRegionDrawer@@ABE?AV?$CStringT@DV?$StrTraitMFC_DLL@DV?$ChTraitsCRT@D@ATL@@@@@ATL@@NABV23@0H@Z ; CDataInRightScaleRegionDrawer::GetText_Price
PUBLIC	?GetText_CurrentPrice@CDataInRightScaleRegionDrawer@@ABE?AV?$CStringT@DV?$StrTraitMFC_DLL@DV?$ChTraitsCRT@D@ATL@@@@@ATL@@ABVCPrices@@ABV23@@Z ; CDataInRightScaleRegionDrawer::GetText_CurrentPrice
PUBLIC	?IsGraphDataDraw@CDataInRightScaleRegionDrawer@@ABE_NABVCRect@@@Z ; CDataInRightScaleRegionDrawer::IsGraphDataDraw
PUBLIC	?IsGraphDataDraw_Rate@CDataInRightScaleRegionDrawer@@ABE_NABVCRect@@ABVCPrices@@@Z ; CDataInRightScaleRegionDrawer::IsGraphDataDraw_Rate
PUBLIC	?GetPacketAndDataEnd@CDataInRightScaleRegionDrawer@@ABE_NABVCTextInRightScaleRegionDrawer@@AAPAVCPacket@@AAH@Z ; CDataInRightScaleRegionDrawer::GetPacketAndDataEnd
PUBLIC	?DrawGraphDatas@CGraphDataDrawer@@QAEXPAVCDC@@ABVCRect@@ABVCDisplayAttributes@@ABVCDrawingGraphData@@ABVCSubGraphData@@@Z ; CGraphDataDrawer::DrawGraphDatas
PUBLIC	??4CGraphDrawer@@QAEAAV0@ABV0@@Z		; CGraphDrawer::operator=
PUBLIC	??4CGraphDrawer@@QAEAAV0@$$QAV0@@Z		; CGraphDrawer::operator=
PUBLIC	?FindIndex@?$CList@NN@@QBEPAU__POSITION@@H@Z	; CList<double,double>::FindIndex
PUBLIC	??0?$CList@VCTextData@@AAV1@@@QAE@H@Z		; CList<CTextData,CTextData &>::CList<CTextData,CTextData &>
PUBLIC	?AddTail@?$CList@VCTextData@@AAV1@@@QAEPAU__POSITION@@AAVCTextData@@@Z ; CList<CTextData,CTextData &>::AddTail
PUBLIC	?RemoveAll@?$CList@VCTextData@@AAV1@@@QAEXXZ	; CList<CTextData,CTextData &>::RemoveAll
PUBLIC	?NewNode@?$CList@VCTextData@@AAV1@@@IAEPAUCNode@1@PAU21@0@Z ; CList<CTextData,CTextData &>::NewNode
PUBLIC	??1?$CList@VCTextData@@AAV1@@@UAE@XZ		; CList<CTextData,CTextData &>::~CList<CTextData,CTextData &>
PUBLIC	?Serialize@?$CList@VCTextData@@AAV1@@@UAEXAAVCArchive@@@Z ; CList<CTextData,CTextData &>::Serialize
PUBLIC	??_G?$CList@VCTextData@@AAV1@@@UAEPAXI@Z	; CList<CTextData,CTextData &>::`scalar deleting destructor'
PUBLIC	??$SerializeElements@VCTextData@@@@YGXAAVCArchive@@PAVCTextData@@H@Z ; SerializeElements<CTextData>
PUBLIC	??_R0PAVCException@@@8				; CException * `RTTI Type Descriptor'
PUBLIC	??_C@_00CNPNBAHC@@				; `string'
PUBLIC	??_7CGdiObject@@6B@				; CGdiObject::`vftable'
PUBLIC	??_7CPen@@6B@					; CPen::`vftable'
PUBLIC	??_7CBrush@@6B@					; CBrush::`vftable'
PUBLIC	??_C@_0HD@JJCHHHNK@C?3?2Program?5Files?5?$CIx86?$CJ?2Microsof@ ; `string'
PUBLIC	??_C@_0BP@OIEOKIDM@Exception?5thrown?5in?5destructor@ ; `string'
PUBLIC	??_C@_0BB@HBOOMJBF@?$CFTs?5?$CI?$CFTs?3?$CFd?$CJ?6?$CFTs@ ; `string'
PUBLIC	??_C@_0N@OMEMOKLE@?$CFTs?5?$CI?$CFTs?3?$CFd?$CJ@ ; `string'
PUBLIC	??_R0?AVCObject@@@8				; CObject `RTTI Type Descriptor'
PUBLIC	??_R3CObject@@8					; CObject::`RTTI Class Hierarchy Descriptor'
PUBLIC	??_R2CObject@@8					; CObject::`RTTI Base Class Array'
PUBLIC	??_R1A@?0A@EA@CObject@@8			; CObject::`RTTI Base Class Descriptor at (0,-1,0,64)'
PUBLIC	??_R4CGdiObject@@6B@				; CGdiObject::`RTTI Complete Object Locator'
PUBLIC	??_R0?AVCGdiObject@@@8				; CGdiObject `RTTI Type Descriptor'
PUBLIC	??_R3CGdiObject@@8				; CGdiObject::`RTTI Class Hierarchy Descriptor'
PUBLIC	??_R2CGdiObject@@8				; CGdiObject::`RTTI Base Class Array'
PUBLIC	??_R1A@?0A@EA@CGdiObject@@8			; CGdiObject::`RTTI Base Class Descriptor at (0,-1,0,64)'
PUBLIC	??_R4CPen@@6B@					; CPen::`RTTI Complete Object Locator'
PUBLIC	??_R0?AVCPen@@@8				; CPen `RTTI Type Descriptor'
PUBLIC	??_R3CPen@@8					; CPen::`RTTI Class Hierarchy Descriptor'
PUBLIC	??_R2CPen@@8					; CPen::`RTTI Base Class Array'
PUBLIC	??_R1A@?0A@EA@CPen@@8				; CPen::`RTTI Base Class Descriptor at (0,-1,0,64)'
PUBLIC	??_R4CBrush@@6B@				; CBrush::`RTTI Complete Object Locator'
PUBLIC	??_R0?AVCBrush@@@8				; CBrush `RTTI Type Descriptor'
PUBLIC	??_R3CBrush@@8					; CBrush::`RTTI Class Hierarchy Descriptor'
PUBLIC	??_R2CBrush@@8					; CBrush::`RTTI Base Class Array'
PUBLIC	??_R1A@?0A@EA@CBrush@@8				; CBrush::`RTTI Base Class Descriptor at (0,-1,0,64)'
PUBLIC	??_C@_01FGNFDNOH@?$CF@				; `string'
PUBLIC	??_C@_01LFCBOECM@?4@				; `string'
PUBLIC	??_C@_01GBGANLPD@0@				; `string'
PUBLIC	??_7?$CList@VCTextData@@AAV1@@@6B@		; CList<CTextData,CTextData &>::`vftable'
PUBLIC	??_C@_02EBJOJHEE@LH@				; `string'
PUBLIC	??_C@_02KCGKEOIP@LC@				; `string'
PUBLIC	??_C@_02KFGDOGFD@HC@				; `string'
PUBLIC	??_C@_07IAFACCAD@?$CFs?5?3?5?$CFs@		; `string'
PUBLIC	??_C@_04DFBLBIBB@X0?41@				; `string'
PUBLIC	??_C@_01PKGAHCOL@?$CJ@				; `string'
PUBLIC	??_C@_01ODHLEDKK@?$CI@				; `string'
PUBLIC	??_R4?$CList@VCTextData@@AAV1@@@6B@		; CList<CTextData,CTextData &>::`RTTI Complete Object Locator'
PUBLIC	??_R0?AV?$CList@VCTextData@@AAV1@@@@8		; CList<CTextData,CTextData &> `RTTI Type Descriptor'
PUBLIC	??_R3?$CList@VCTextData@@AAV1@@@8		; CList<CTextData,CTextData &>::`RTTI Class Hierarchy Descriptor'
PUBLIC	??_R2?$CList@VCTextData@@AAV1@@@8		; CList<CTextData,CTextData &>::`RTTI Base Class Array'
PUBLIC	??_R1A@?0A@EA@?$CList@VCTextData@@AAV1@@@8	; CList<CTextData,CTextData &>::`RTTI Base Class Descriptor at (0,-1,0,64)'
PUBLIC	__real@0000000000000000
PUBLIC	__real@3ee4f8b588e368f1
PUBLIC	__real@3ff0000000000000
PUBLIC	__real@4024000000000000
PUBLIC	__real@4059000000000000
PUBLIC	__xmm@7fffffffffffffff7fffffffffffffff
EXTRN	??_L@YGXPAXIIP6EX0@Z1@Z:PROC			; `eh vector constructor iterator'
EXTRN	??_M@YGXPAXIIP6EX0@Z@Z:PROC			; `eh vector destructor iterator'
EXTRN	??3@YAXPAX@Z:PROC				; operator delete
EXTRN	??3@YAXPAXI@Z:PROC				; operator delete
EXTRN	?__global_delete@@YAXPAXI@Z:PROC		; __global_delete
EXTRN	___std_terminate:PROC
EXTRN	__imp__GetTextExtentPoint32A@16:PROC
EXTRN	__imp__Rectangle@20:PROC
EXTRN	__imp__OffsetRect@12:PROC
EXTRN	__imp__atoi:PROC
EXTRN	?AfxThrowInvalidArgException@@YGXXZ:PROC	; AfxThrowInvalidArgException
EXTRN	?AfxThrowArchiveException@@YGXHPBD@Z:PROC	; AfxThrowArchiveException
EXTRN	?GetRuntimeClass@CObject@@UBEPAUCRuntimeClass@@XZ:PROC ; CObject::GetRuntimeClass
EXTRN	__imp_?GetAt@?$CSimpleStringT@D$00@ATL@@QBEDH@Z:PROC
EXTRN	__imp_?Concatenate@?$CSimpleStringT@D$00@ATL@@KAXAAV12@PBDH1H@Z:PROC
EXTRN	__imp_??0?$CStringT@DV?$StrTraitMFC_DLL@DV?$ChTraitsCRT@D@ATL@@@@@ATL@@QAE@XZ:PROC
EXTRN	__imp_??0?$CStringT@DV?$StrTraitMFC_DLL@DV?$ChTraitsCRT@D@ATL@@@@@ATL@@QAE@PAUIAtlStringMgr@1@@Z:PROC
EXTRN	__imp_??0?$CStringT@DV?$StrTraitMFC_DLL@DV?$ChTraitsCRT@D@ATL@@@@@ATL@@QAE@ABV01@@Z:PROC
EXTRN	__imp_??0?$CStringT@DV?$StrTraitMFC_DLL@DV?$ChTraitsCRT@D@ATL@@@@@ATL@@QAE@PBD@Z:PROC
EXTRN	__imp_??1?$CStringT@DV?$StrTraitMFC_DLL@DV?$ChTraitsCRT@D@ATL@@@@@ATL@@QAE@XZ:PROC
EXTRN	__imp_??4?$CStringT@DV?$StrTraitMFC_DLL@DV?$ChTraitsCRT@D@ATL@@@@@ATL@@QAEAAV01@ABV01@@Z:PROC
EXTRN	__imp_??4?$CStringT@DV?$StrTraitMFC_DLL@DV?$ChTraitsCRT@D@ATL@@@@@ATL@@QAEAAV01@PBD@Z:PROC
EXTRN	__imp_?GetManager@?$CStringT@DV?$StrTraitMFC_DLL@DV?$ChTraitsCRT@D@ATL@@@@@ATL@@QBEPAUIAtlStringMgr@2@XZ:PROC
EXTRN	__imp_?Compare@?$CStringT@DV?$StrTraitMFC_DLL@DV?$ChTraitsCRT@D@ATL@@@@@ATL@@QBEHPBD@Z:PROC
EXTRN	__imp_?Replace@?$CStringT@DV?$StrTraitMFC_DLL@DV?$ChTraitsCRT@D@ATL@@@@@ATL@@QAEHDD@Z:PROC
EXTRN	__imp_?Find@?$CStringT@DV?$StrTraitMFC_DLL@DV?$ChTraitsCRT@D@ATL@@@@@ATL@@QBEHDH@Z:PROC
EXTRN	__imp_?Find@?$CStringT@DV?$StrTraitMFC_DLL@DV?$ChTraitsCRT@D@ATL@@@@@ATL@@QBEHPBDH@Z:PROC
EXTRN	__imp_?TrimRight@?$CStringT@DV?$StrTraitMFC_DLL@DV?$ChTraitsCRT@D@ATL@@@@@ATL@@QAEAAV12@PBD@Z:PROC
EXTRN	__imp_?Right@?$CStringT@DV?$StrTraitMFC_DLL@DV?$ChTraitsCRT@D@ATL@@@@@ATL@@QBE?AV12@H@Z:PROC
EXTRN	__imp_?Left@?$CStringT@DV?$StrTraitMFC_DLL@DV?$ChTraitsCRT@D@ATL@@@@@ATL@@QBE?AV12@H@Z:PROC
EXTRN	__imp_?Format@?$CStringT@DV?$StrTraitMFC_DLL@DV?$ChTraitsCRT@D@ATL@@@@@ATL@@QAAXPBDZZ:PROC
EXTRN	?Read@CArchive@@QAEIPAXI@Z:PROC			; CArchive::Read
EXTRN	?Write@CArchive@@QAEXPBXI@Z:PROC		; CArchive::Write
EXTRN	?ReadCount@CArchive@@QAEKXZ:PROC		; CArchive::ReadCount
EXTRN	?WriteCount@CArchive@@QAEXK@Z:PROC		; CArchive::WriteCount
EXTRN	?Create@CPlex@@SGPAU1@AAPAU1@II@Z:PROC		; CPlex::Create
EXTRN	?FreeDataChain@CPlex@@QAEXXZ:PROC		; CPlex::FreeDataChain
EXTRN	?GetRuntimeClass@CGdiObject@@UBEPAUCRuntimeClass@@XZ:PROC ; CGdiObject::GetRuntimeClass
EXTRN	?DeleteObject@CGdiObject@@QAEHXZ:PROC		; CGdiObject::DeleteObject
EXTRN	??_ECGdiObject@@UAEPAXI@Z:PROC			; CGdiObject::`vector deleting destructor'
EXTRN	?GetRuntimeClass@CPen@@UBEPAUCRuntimeClass@@XZ:PROC ; CPen::GetRuntimeClass
EXTRN	??0CPen@@QAE@HHK@Z:PROC				; CPen::CPen
EXTRN	??_ECPen@@UAEPAXI@Z:PROC			; CPen::`vector deleting destructor'
EXTRN	?GetRuntimeClass@CBrush@@UBEPAUCRuntimeClass@@XZ:PROC ; CBrush::GetRuntimeClass
EXTRN	??0CBrush@@QAE@K@Z:PROC				; CBrush::CBrush
EXTRN	??_ECBrush@@UAEPAXI@Z:PROC			; CBrush::`vector deleting destructor'
EXTRN	?SelectObject@CDC@@QAEPAVCPen@@PAV2@@Z:PROC	; CDC::SelectObject
EXTRN	?SelectObject@CDC@@QAEPAVCBrush@@PAV2@@Z:PROC	; CDC::SelectObject
EXTRN	?SetBkMode@CDC@@QAEHH@Z:PROC			; CDC::SetBkMode
EXTRN	?AfxMessageBox@@YGHPBDII@Z:PROC			; AfxMessageBox
EXTRN	?GetLanguageText@IMetaTable@@QAEPBDPAUHWND__@@W4E_CODEPAGE@1@PBDH@Z:PROC ; IMetaTable::GetLanguageText
EXTRN	__imp_?IsUseStandardValue@CPacket@@QBE_NH@Z:PROC
EXTRN	__imp_?GetStandardValue@CPacket@@QAENH@Z:PROC
EXTRN	__imp_?GetType@CPacket@@QAE?AV?$CStringT@DV?$StrTraitMFC_DLL@DV?$ChTraitsCRT@D@ATL@@@@@ATL@@_N@Z:PROC
EXTRN	__imp_?GetnumericDataList@CPacket@@QAEPAV?$CList@NN@@XZ:PROC
EXTRN	__imp_?GetMinMax@CPacket@@QAEHHHAAN0H@Z:PROC
EXTRN	?Log@CMath@@SANABN@Z:PROC			; CMath::Log
EXTRN	?DoubleToString@CDataConversion@@SA?AV?$CStringT@DV?$StrTraitMFC_DLL@DV?$ChTraitsCRT@D@ATL@@@@@ATL@@ABNH@Z:PROC ; CDataConversion::DoubleToString
EXTRN	?DoubleToString@CDataConversion@@SA?AV?$CStringT@DV?$StrTraitMFC_DLL@DV?$ChTraitsCRT@D@ATL@@@@@ATL@@ABNABV23@@Z:PROC ; CDataConversion::DoubleToString
EXTRN	?GetStringData@CDataConversion@@SA?AV?$CStringT@DV?$StrTraitMFC_DLL@DV?$ChTraitsCRT@D@ATL@@@@@ATL@@AAV23@ABV23@_N@Z:PROC ; CDataConversion::GetStringData
EXTRN	?GetDataType@CDataConversion@@SANV?$CStringT@DV?$StrTraitMFC_DLL@DV?$ChTraitsCRT@D@ATL@@@@@ATL@@@Z:PROC ; CDataConversion::GetDataType
EXTRN	?GetStringThousandFormat@CDataConversion@@SA?AV?$CStringT@DV?$StrTraitMFC_DLL@DV?$ChTraitsCRT@D@ATL@@@@@ATL@@ABV23@@Z:PROC ; CDataConversion::GetStringThousandFormat
EXTRN	?SelectClipRegion@CDataConversion@@SAXPAVCDC@@ABVCRect@@@Z:PROC ; CDataConversion::SelectClipRegion
EXTRN	?SelectClipRegion@CDataConversion@@SAXPAVCDC@@@Z:PROC ; CDataConversion::SelectClipRegion
EXTRN	?RelativeToAbsolute_Y@CDataConversion@@SAHABVCRect@@ABN11@Z:PROC ; CDataConversion::RelativeToAbsolute_Y
EXTRN	?IsBaseFormat@CDataConversion@@SA_NABV?$CStringT@DV?$StrTraitMFC_DLL@DV?$ChTraitsCRT@D@ATL@@@@@ATL@@@Z:PROC ; CDataConversion::IsBaseFormat
EXTRN	?GetBaseFormatInfo@CDataConversion@@SA_NABV?$CStringT@DV?$StrTraitMFC_DLL@DV?$ChTraitsCRT@D@ATL@@@@@ATL@@AAH11@Z:PROC ; CDataConversion::GetBaseFormatInfo
EXTRN	__imp_??0CDisplayDataMinMax@@QAE@XZ:PROC
EXTRN	__imp_?SetDisplayData@CDisplayDataMinMax@@QAEXABN0@Z:PROC
EXTRN	__imp_?GetDisplayMin@CDisplayDataMinMax@@QBENXZ:PROC
EXTRN	__imp_?GetDisplayMax@CDisplayDataMinMax@@QBENXZ:PROC
EXTRN	__imp_?GetCount@CDisplayDataMinMax@@QBENXZ:PROC
EXTRN	__imp_?IsCloseToMaxValue@CDisplayDataMinMax@@QBE_NABN_N@Z:PROC
EXTRN	__imp_?IsInitialized@CDisplayDataMinMax@@QBEHXZ:PROC
EXTRN	__imp_?GetColor1@CGraphColor@@QBEKXZ:PROC
EXTRN	__imp_?GetColor3@CGraphColor@@QBEKXZ:PROC
EXTRN	__imp_?GetColor5@CGraphColor@@QBEKXZ:PROC
EXTRN	__imp_?DoesCalcRiseFallRate_LowHigh@CGraphDataDrawingData@@QBE_NXZ:PROC
EXTRN	__imp_?DoesCalcRiseFallRate_LowCur@CGraphDataDrawingData@@QBE_NXZ:PROC
EXTRN	__imp_?DoesCalcRiseFallRate_HighCur@CGraphDataDrawingData@@QBE_NXZ:PROC
EXTRN	__imp_?DoesCalcRate_PrevCur@CGraphDataDrawingData@@QBE_NXZ:PROC
EXTRN	__imp_?GetCalcRiseFallRate_CurData@CGraphDataDrawingData@@QBEHXZ:PROC
EXTRN	__imp_?GetType@CSubGraphDataBase@@QBE?AW4GRAPHTYPE@CGraphBaseData@@XZ:PROC
EXTRN	__imp_?GetStyle@CSubGraphDataBase@@QBE?AVCGraphStyle@@XZ:PROC
EXTRN	__imp_?GetColor@CSubGraphDataBase@@QBE?AVCGraphColor@@XZ:PROC
EXTRN	__imp_?GetItemName@CSubGraphDataBase@@QBE?AV?$CStringT@DV?$StrTraitMFC_DLL@DV?$ChTraitsCRT@D@ATL@@@@@ATL@@XZ:PROC
EXTRN	?SetDataEndInBlock@CDisplayAttributes@@QAEXH@Z:PROC ; CDisplayAttributes::SetDataEndInBlock
EXTRN	?GetDataStartInBlock@CDisplayAttributes@@QBEHXZ:PROC ; CDisplayAttributes::GetDataStartInBlock
EXTRN	?GetDataEndInBlock@CDisplayAttributes@@QBEHXZ:PROC ; CDisplayAttributes::GetDataEndInBlock
EXTRN	?GetDataCountInBlock@CDisplayAttributes@@QBEHXZ:PROC ; CDisplayAttributes::GetDataCountInBlock
EXTRN	?DoesVertScaleLogType@CDrawingGraphData@@QBE_NXZ:PROC ; CDrawingGraphData::DoesVertScaleLogType
EXTRN	?DoesVertScaleInvertType@CDrawingGraphData@@QBE_NXZ:PROC ; CDrawingGraphData::DoesVertScaleInvertType
EXTRN	?GetGraphRegions@CDrawingGraphData@@QBEABVCGraphRegions@@XZ:PROC ; CDrawingGraphData::GetGraphRegions
EXTRN	?GetScaleTextRegion@CDrawingGraphData@@QBE?AVCRect@@XZ:PROC ; CDrawingGraphData::GetScaleTextRegion
EXTRN	?GetLeftScaleTextRegion@CDrawingGraphData@@QBE?AVCRect@@XZ:PROC ; CDrawingGraphData::GetLeftScaleTextRegion
EXTRN	?GetRightScaleTextRegion@CDrawingGraphData@@QBE?AVCRect@@XZ:PROC ; CDrawingGraphData::GetRightScaleTextRegion
EXTRN	?GetDisplayDataVertMinMax@CDrawingGraphData@@QBE?AVCDisplayDataMinMax@@XZ:PROC ; CDrawingGraphData::GetDisplayDataVertMinMax
EXTRN	?GetGraphDataDrawingData@CDrawingGraphData@@QBE?AVCGraphDataDrawingData@@XZ:PROC ; CDrawingGraphData::GetGraphDataDrawingData
EXTRN	?GetSubGraphPacketList@CDrawingGraphData@@QBEPAVCSubGraphPacketList@@XZ:PROC ; CDrawingGraphData::GetSubGraphPacketList
EXTRN	?GetIndicatorName@CDrawingGraphData@@QBE?AV?$CStringT@DV?$StrTraitMFC_DLL@DV?$ChTraitsCRT@D@ATL@@@@@ATL@@XZ:PROC ; CDrawingGraphData::GetIndicatorName
EXTRN	?GetGraphName@CTextInRightScaleRegionDrawer@@QBE?AV?$CStringT@DV?$StrTraitMFC_DLL@DV?$ChTraitsCRT@D@ATL@@@@@ATL@@XZ:PROC ; CTextInRightScaleRegionDrawer::GetGraphName
EXTRN	?GetSubGraphPacketList@CTextInRightScaleRegionDrawer@@QBEPAVCSubGraphPacketList@@XZ:PROC ; CTextInRightScaleRegionDrawer::GetSubGraphPacketList
EXTRN	?GetRegion@CTextInRightScaleRegionDrawer@@QBE?AVCRect@@XZ:PROC ; CTextInRightScaleRegionDrawer::GetRegion
EXTRN	?GetCurDataType@CTextInRightScaleRegionDrawer@@QBEHXZ:PROC ; CTextInRightScaleRegionDrawer::GetCurDataType
EXTRN	?GetDataEnd@CTextInRightScaleRegionDrawer@@QBEHXZ:PROC ; CTextInRightScaleRegionDrawer::GetDataEnd
EXTRN	?IsTextDrawing@CTextInRightScaleRegionDrawer@@QBE_NXZ:PROC ; CTextInRightScaleRegionDrawer::IsTextDrawing
EXTRN	?GetPracticalPacket@CDrawingPacketFinder@@QBEPAVCPacket@@ABV?$CStringT@DV?$StrTraitMFC_DLL@DV?$ChTraitsCRT@D@ATL@@@@@ATL@@ABV?$CList@PAVCPacket@@PAV1@@@@Z:PROC ; CDrawingPacketFinder::GetPracticalPacket
EXTRN	?GetPacket@CDrawingPacketFinder@@QBEPAVCPacket@@ABV?$CList@PAVCPacket@@PAV1@@@ABV?$CStringT@DV?$StrTraitMFC_DLL@DV?$ChTraitsCRT@D@ATL@@@@@ATL@@@Z:PROC ; CDrawingPacketFinder::GetPacket
EXTRN	?GetSubGraphPacketList@CSubGraphPacketList@@QBEABV?$CList@PAVCPacket@@PAV1@@@XZ:PROC ; CSubGraphPacketList::GetSubGraphPacketList
EXTRN	??_E?$CList@VCTextData@@AAV1@@@UAEPAXI@Z:PROC	; CList<CTextData,CTextData &>::`vector deleting destructor'
EXTRN	@__security_check_cookie@4:PROC
EXTRN	___CxxFrameHandler3:PROC
EXTRN	??_7type_info@@6B@:QWORD			; type_info::`vftable'
EXTRN	?g_iMetaTable@@3VIMetaTable@@A:BYTE		; g_iMetaTable
EXTRN	___security_cookie:DWORD
EXTRN	__fltused:DWORD
;	COMDAT __xmm@7fffffffffffffff7fffffffffffffff
CONST	SEGMENT
__xmm@7fffffffffffffff7fffffffffffffff DB 0ffH, 0ffH, 0ffH, 0ffH, 0ffH, 0ffH
	DB	0ffH, 07fH, 0ffH, 0ffH, 0ffH, 0ffH, 0ffH, 0ffH, 0ffH, 07fH
CONST	ENDS
;	COMDAT __real@4059000000000000
CONST	SEGMENT
__real@4059000000000000 DQ 04059000000000000r	; 100
CONST	ENDS
;	COMDAT __real@4024000000000000
CONST	SEGMENT
__real@4024000000000000 DQ 04024000000000000r	; 10
CONST	ENDS
;	COMDAT __real@3ff0000000000000
CONST	SEGMENT
__real@3ff0000000000000 DQ 03ff0000000000000r	; 1
CONST	ENDS
;	COMDAT __real@3ee4f8b588e368f1
CONST	SEGMENT
__real@3ee4f8b588e368f1 DQ 03ee4f8b588e368f1r	; 1e-05
CONST	ENDS
;	COMDAT __real@0000000000000000
CONST	SEGMENT
__real@0000000000000000 DQ 00000000000000000r	; 0
CONST	ENDS
;	COMDAT ??_R1A@?0A@EA@?$CList@VCTextData@@AAV1@@@8
rdata$r	SEGMENT
??_R1A@?0A@EA@?$CList@VCTextData@@AAV1@@@8 DD FLAT:??_R0?AV?$CList@VCTextData@@AAV1@@@@8 ; CList<CTextData,CTextData &>::`RTTI Base Class Descriptor at (0,-1,0,64)'
	DD	01H
	DD	00H
	DD	0ffffffffH
	DD	00H
	DD	040H
	DD	FLAT:??_R3?$CList@VCTextData@@AAV1@@@8
rdata$r	ENDS
;	COMDAT ??_R2?$CList@VCTextData@@AAV1@@@8
rdata$r	SEGMENT
??_R2?$CList@VCTextData@@AAV1@@@8 DD FLAT:??_R1A@?0A@EA@?$CList@VCTextData@@AAV1@@@8 ; CList<CTextData,CTextData &>::`RTTI Base Class Array'
	DD	FLAT:??_R1A@?0A@EA@CObject@@8
rdata$r	ENDS
;	COMDAT ??_R3?$CList@VCTextData@@AAV1@@@8
rdata$r	SEGMENT
??_R3?$CList@VCTextData@@AAV1@@@8 DD 00H		; CList<CTextData,CTextData &>::`RTTI Class Hierarchy Descriptor'
	DD	00H
	DD	02H
	DD	FLAT:??_R2?$CList@VCTextData@@AAV1@@@8
rdata$r	ENDS
;	COMDAT ??_R0?AV?$CList@VCTextData@@AAV1@@@@8
data$rs	SEGMENT
??_R0?AV?$CList@VCTextData@@AAV1@@@@8 DD FLAT:??_7type_info@@6B@ ; CList<CTextData,CTextData &> `RTTI Type Descriptor'
	DD	00H
	DB	'.?AV?$CList@VCTextData@@AAV1@@@', 00H
data$rs	ENDS
;	COMDAT ??_R4?$CList@VCTextData@@AAV1@@@6B@
rdata$r	SEGMENT
??_R4?$CList@VCTextData@@AAV1@@@6B@ DD 00H		; CList<CTextData,CTextData &>::`RTTI Complete Object Locator'
	DD	00H
	DD	00H
	DD	FLAT:??_R0?AV?$CList@VCTextData@@AAV1@@@@8
	DD	FLAT:??_R3?$CList@VCTextData@@AAV1@@@8
rdata$r	ENDS
;	COMDAT ??_C@_01ODHLEDKK@?$CI@
CONST	SEGMENT
??_C@_01ODHLEDKK@?$CI@ DB '(', 00H			; `string'
CONST	ENDS
;	COMDAT ??_C@_01PKGAHCOL@?$CJ@
CONST	SEGMENT
??_C@_01PKGAHCOL@?$CJ@ DB ')', 00H			; `string'
CONST	ENDS
;	COMDAT ??_C@_04DFBLBIBB@X0?41@
CONST	SEGMENT
??_C@_04DFBLBIBB@X0?41@ DB 'X0.1', 00H			; `string'
CONST	ENDS
;	COMDAT ??_C@_07IAFACCAD@?$CFs?5?3?5?$CFs@
CONST	SEGMENT
??_C@_07IAFACCAD@?$CFs?5?3?5?$CFs@ DB '%s : %s', 00H	; `string'
CONST	ENDS
;	COMDAT ??_C@_02KFGDOGFD@HC@
CONST	SEGMENT
??_C@_02KFGDOGFD@HC@ DB 'HC', 00H			; `string'
CONST	ENDS
;	COMDAT ??_C@_02KCGKEOIP@LC@
CONST	SEGMENT
??_C@_02KCGKEOIP@LC@ DB 'LC', 00H			; `string'
CONST	ENDS
;	COMDAT ??_C@_02EBJOJHEE@LH@
CONST	SEGMENT
??_C@_02EBJOJHEE@LH@ DB 'LH', 00H			; `string'
CONST	ENDS
;	COMDAT ??_7?$CList@VCTextData@@AAV1@@@6B@
CONST	SEGMENT
??_7?$CList@VCTextData@@AAV1@@@6B@ DD FLAT:??_R4?$CList@VCTextData@@AAV1@@@6B@ ; CList<CTextData,CTextData &>::`vftable'
	DD	FLAT:?GetRuntimeClass@CObject@@UBEPAUCRuntimeClass@@XZ
	DD	FLAT:??_E?$CList@VCTextData@@AAV1@@@UAEPAXI@Z
	DD	FLAT:?Serialize@?$CList@VCTextData@@AAV1@@@UAEXAAVCArchive@@@Z
	DD	FLAT:?AssertValid@CObject@@UBEXXZ
	DD	FLAT:?Dump@CObject@@UBEXAAVCDumpContext@@@Z
CONST	ENDS
;	COMDAT ??_C@_01GBGANLPD@0@
CONST	SEGMENT
??_C@_01GBGANLPD@0@ DB '0', 00H				; `string'
CONST	ENDS
;	COMDAT ??_C@_01LFCBOECM@?4@
CONST	SEGMENT
??_C@_01LFCBOECM@?4@ DB '.', 00H			; `string'
CONST	ENDS
;	COMDAT ??_C@_01FGNFDNOH@?$CF@
CONST	SEGMENT
??_C@_01FGNFDNOH@?$CF@ DB '%', 00H			; `string'
CONST	ENDS
;	COMDAT ??_R1A@?0A@EA@CBrush@@8
rdata$r	SEGMENT
??_R1A@?0A@EA@CBrush@@8 DD FLAT:??_R0?AVCBrush@@@8	; CBrush::`RTTI Base Class Descriptor at (0,-1,0,64)'
	DD	02H
	DD	00H
	DD	0ffffffffH
	DD	00H
	DD	040H
	DD	FLAT:??_R3CBrush@@8
rdata$r	ENDS
;	COMDAT ??_R2CBrush@@8
rdata$r	SEGMENT
??_R2CBrush@@8 DD FLAT:??_R1A@?0A@EA@CBrush@@8		; CBrush::`RTTI Base Class Array'
	DD	FLAT:??_R1A@?0A@EA@CGdiObject@@8
	DD	FLAT:??_R1A@?0A@EA@CObject@@8
rdata$r	ENDS
;	COMDAT ??_R3CBrush@@8
rdata$r	SEGMENT
??_R3CBrush@@8 DD 00H					; CBrush::`RTTI Class Hierarchy Descriptor'
	DD	00H
	DD	03H
	DD	FLAT:??_R2CBrush@@8
rdata$r	ENDS
;	COMDAT ??_R0?AVCBrush@@@8
data$rs	SEGMENT
??_R0?AVCBrush@@@8 DD FLAT:??_7type_info@@6B@		; CBrush `RTTI Type Descriptor'
	DD	00H
	DB	'.?AVCBrush@@', 00H
data$rs	ENDS
;	COMDAT ??_R4CBrush@@6B@
rdata$r	SEGMENT
??_R4CBrush@@6B@ DD 00H					; CBrush::`RTTI Complete Object Locator'
	DD	00H
	DD	00H
	DD	FLAT:??_R0?AVCBrush@@@8
	DD	FLAT:??_R3CBrush@@8
rdata$r	ENDS
;	COMDAT ??_R1A@?0A@EA@CPen@@8
rdata$r	SEGMENT
??_R1A@?0A@EA@CPen@@8 DD FLAT:??_R0?AVCPen@@@8		; CPen::`RTTI Base Class Descriptor at (0,-1,0,64)'
	DD	02H
	DD	00H
	DD	0ffffffffH
	DD	00H
	DD	040H
	DD	FLAT:??_R3CPen@@8
rdata$r	ENDS
;	COMDAT ??_R2CPen@@8
rdata$r	SEGMENT
??_R2CPen@@8 DD	FLAT:??_R1A@?0A@EA@CPen@@8		; CPen::`RTTI Base Class Array'
	DD	FLAT:??_R1A@?0A@EA@CGdiObject@@8
	DD	FLAT:??_R1A@?0A@EA@CObject@@8
rdata$r	ENDS
;	COMDAT ??_R3CPen@@8
rdata$r	SEGMENT
??_R3CPen@@8 DD	00H					; CPen::`RTTI Class Hierarchy Descriptor'
	DD	00H
	DD	03H
	DD	FLAT:??_R2CPen@@8
rdata$r	ENDS
;	COMDAT ??_R0?AVCPen@@@8
data$rs	SEGMENT
??_R0?AVCPen@@@8 DD FLAT:??_7type_info@@6B@		; CPen `RTTI Type Descriptor'
	DD	00H
	DB	'.?AVCPen@@', 00H
data$rs	ENDS
;	COMDAT ??_R4CPen@@6B@
rdata$r	SEGMENT
??_R4CPen@@6B@ DD 00H					; CPen::`RTTI Complete Object Locator'
	DD	00H
	DD	00H
	DD	FLAT:??_R0?AVCPen@@@8
	DD	FLAT:??_R3CPen@@8
rdata$r	ENDS
;	COMDAT ??_R1A@?0A@EA@CGdiObject@@8
rdata$r	SEGMENT
??_R1A@?0A@EA@CGdiObject@@8 DD FLAT:??_R0?AVCGdiObject@@@8 ; CGdiObject::`RTTI Base Class Descriptor at (0,-1,0,64)'
	DD	01H
	DD	00H
	DD	0ffffffffH
	DD	00H
	DD	040H
	DD	FLAT:??_R3CGdiObject@@8
rdata$r	ENDS
;	COMDAT ??_R2CGdiObject@@8
rdata$r	SEGMENT
??_R2CGdiObject@@8 DD FLAT:??_R1A@?0A@EA@CGdiObject@@8	; CGdiObject::`RTTI Base Class Array'
	DD	FLAT:??_R1A@?0A@EA@CObject@@8
rdata$r	ENDS
;	COMDAT ??_R3CGdiObject@@8
rdata$r	SEGMENT
??_R3CGdiObject@@8 DD 00H				; CGdiObject::`RTTI Class Hierarchy Descriptor'
	DD	00H
	DD	02H
	DD	FLAT:??_R2CGdiObject@@8
rdata$r	ENDS
;	COMDAT ??_R0?AVCGdiObject@@@8
data$rs	SEGMENT
??_R0?AVCGdiObject@@@8 DD FLAT:??_7type_info@@6B@	; CGdiObject `RTTI Type Descriptor'
	DD	00H
	DB	'.?AVCGdiObject@@', 00H
data$rs	ENDS
;	COMDAT ??_R4CGdiObject@@6B@
rdata$r	SEGMENT
??_R4CGdiObject@@6B@ DD 00H				; CGdiObject::`RTTI Complete Object Locator'
	DD	00H
	DD	00H
	DD	FLAT:??_R0?AVCGdiObject@@@8
	DD	FLAT:??_R3CGdiObject@@8
rdata$r	ENDS
;	COMDAT ??_R1A@?0A@EA@CObject@@8
rdata$r	SEGMENT
??_R1A@?0A@EA@CObject@@8 DD FLAT:??_R0?AVCObject@@@8	; CObject::`RTTI Base Class Descriptor at (0,-1,0,64)'
	DD	00H
	DD	00H
	DD	0ffffffffH
	DD	00H
	DD	040H
	DD	FLAT:??_R3CObject@@8
rdata$r	ENDS
;	COMDAT ??_R2CObject@@8
rdata$r	SEGMENT
??_R2CObject@@8 DD FLAT:??_R1A@?0A@EA@CObject@@8	; CObject::`RTTI Base Class Array'
rdata$r	ENDS
;	COMDAT ??_R3CObject@@8
rdata$r	SEGMENT
??_R3CObject@@8 DD 00H					; CObject::`RTTI Class Hierarchy Descriptor'
	DD	00H
	DD	01H
	DD	FLAT:??_R2CObject@@8
rdata$r	ENDS
;	COMDAT ??_R0?AVCObject@@@8
data$rs	SEGMENT
??_R0?AVCObject@@@8 DD FLAT:??_7type_info@@6B@		; CObject `RTTI Type Descriptor'
	DD	00H
	DB	'.?AVCObject@@', 00H
data$rs	ENDS
;	COMDAT ??_C@_0N@OMEMOKLE@?$CFTs?5?$CI?$CFTs?3?$CFd?$CJ@
CONST	SEGMENT
??_C@_0N@OMEMOKLE@?$CFTs?5?$CI?$CFTs?3?$CFd?$CJ@ DB '%Ts (%Ts:%d)', 00H ; `string'
CONST	ENDS
;	COMDAT ??_C@_0BB@HBOOMJBF@?$CFTs?5?$CI?$CFTs?3?$CFd?$CJ?6?$CFTs@
CONST	SEGMENT
??_C@_0BB@HBOOMJBF@?$CFTs?5?$CI?$CFTs?3?$CFd?$CJ?6?$CFTs@ DB '%Ts (%Ts:%d'
	DB	')', 0aH, '%Ts', 00H				; `string'
CONST	ENDS
;	COMDAT ??_C@_0BP@OIEOKIDM@Exception?5thrown?5in?5destructor@
CONST	SEGMENT
??_C@_0BP@OIEOKIDM@Exception?5thrown?5in?5destructor@ DB 'Exception throw'
	DB	'n in destructor', 00H			; `string'
CONST	ENDS
;	COMDAT ??_C@_0HD@JJCHHHNK@C?3?2Program?5Files?5?$CIx86?$CJ?2Microsof@
CONST	SEGMENT
??_C@_0HD@JJCHHHNK@C?3?2Program?5Files?5?$CIx86?$CJ?2Microsof@ DB 'C:\Pro'
	DB	'gram Files (x86)\Microsoft Visual Studio\2019\Community\VC\To'
	DB	'ols\MSVC\14.29.30133\atlmfc\include\afxwin1.inl', 00H ; `string'
CONST	ENDS
;	COMDAT ??_7CBrush@@6B@
CONST	SEGMENT
??_7CBrush@@6B@ DD FLAT:??_R4CBrush@@6B@		; CBrush::`vftable'
	DD	FLAT:?GetRuntimeClass@CBrush@@UBEPAUCRuntimeClass@@XZ
	DD	FLAT:??_ECBrush@@UAEPAXI@Z
	DD	FLAT:?Serialize@CObject@@UAEXAAVCArchive@@@Z
	DD	FLAT:?AssertValid@CObject@@UBEXXZ
	DD	FLAT:?Dump@CObject@@UBEXAAVCDumpContext@@@Z
CONST	ENDS
;	COMDAT ??_7CPen@@6B@
CONST	SEGMENT
??_7CPen@@6B@ DD FLAT:??_R4CPen@@6B@			; CPen::`vftable'
	DD	FLAT:?GetRuntimeClass@CPen@@UBEPAUCRuntimeClass@@XZ
	DD	FLAT:??_ECPen@@UAEPAXI@Z
	DD	FLAT:?Serialize@CObject@@UAEXAAVCArchive@@@Z
	DD	FLAT:?AssertValid@CObject@@UBEXXZ
	DD	FLAT:?Dump@CObject@@UBEXAAVCDumpContext@@@Z
CONST	ENDS
;	COMDAT ??_7CGdiObject@@6B@
CONST	SEGMENT
??_7CGdiObject@@6B@ DD FLAT:??_R4CGdiObject@@6B@	; CGdiObject::`vftable'
	DD	FLAT:?GetRuntimeClass@CGdiObject@@UBEPAUCRuntimeClass@@XZ
	DD	FLAT:??_ECGdiObject@@UAEPAXI@Z
	DD	FLAT:?Serialize@CObject@@UAEXAAVCArchive@@@Z
	DD	FLAT:?AssertValid@CObject@@UBEXXZ
	DD	FLAT:?Dump@CObject@@UBEXAAVCDumpContext@@@Z
CONST	ENDS
;	COMDAT ??_C@_00CNPNBAHC@@
CONST	SEGMENT
??_C@_00CNPNBAHC@@ DB 00H				; `string'
CONST	ENDS
;	COMDAT ??_R0PAVCException@@@8
data$r	SEGMENT
??_R0PAVCException@@@8 DD FLAT:??_7type_info@@6B@	; CException * `RTTI Type Descriptor'
	DD	00H
	DB	'.PAVCException@@', 00H
data$r	ENDS
;	COMDAT xdata$x
xdata$x	SEGMENT
__unwindtable$??_G?$CList@VCTextData@@AAV1@@@UAEPAXI@Z DD 0ffffffffH
	DD	FLAT:___std_terminate
__ehfuncinfo$??_G?$CList@VCTextData@@AAV1@@@UAEPAXI@Z DD 019930522H
	DD	01H
	DD	FLAT:__unwindtable$??_G?$CList@VCTextData@@AAV1@@@UAEPAXI@Z
	DD	2 DUP(00H)
	DD	2 DUP(00H)
	DD	00H
	DD	05H
xdata$x	ENDS
;	COMDAT xdata$x
xdata$x	SEGMENT
__unwindtable$?Serialize@?$CList@VCTextData@@AAV1@@@UAEXAAVCArchive@@@Z DD 0ffffffffH
	DD	FLAT:__unwindfunclet$?Serialize@?$CList@VCTextData@@AAV1@@@UAEXAAVCArchive@@@Z$0
__ehfuncinfo$?Serialize@?$CList@VCTextData@@AAV1@@@UAEXAAVCArchive@@@Z DD 019930522H
	DD	01H
	DD	FLAT:__unwindtable$?Serialize@?$CList@VCTextData@@AAV1@@@UAEXAAVCArchive@@@Z
	DD	2 DUP(00H)
	DD	2 DUP(00H)
	DD	00H
	DD	01H
xdata$x	ENDS
;	COMDAT xdata$x
xdata$x	SEGMENT
__ehfuncinfo$??1?$CList@VCTextData@@AAV1@@@UAE@XZ DD 019930522H
	DD	00H
	DD	00H
	DD	2 DUP(00H)
	DD	2 DUP(00H)
	DD	00H
	DD	05H
xdata$x	ENDS
;	COMDAT xdata$x
xdata$x	SEGMENT
__unwindtable$?AddTail@?$CList@VCTextData@@AAV1@@@QAEPAU__POSITION@@AAVCTextData@@@Z DD 0ffffffffH
	DD	FLAT:__unwindfunclet$?AddTail@?$CList@VCTextData@@AAV1@@@QAEPAU__POSITION@@AAVCTextData@@@Z$0
	DD	0ffffffffH
	DD	FLAT:__unwindfunclet$?AddTail@?$CList@VCTextData@@AAV1@@@QAEPAU__POSITION@@AAVCTextData@@@Z$1
__ehfuncinfo$?AddTail@?$CList@VCTextData@@AAV1@@@QAEPAU__POSITION@@AAVCTextData@@@Z DD 019930522H
	DD	02H
	DD	FLAT:__unwindtable$?AddTail@?$CList@VCTextData@@AAV1@@@QAEPAU__POSITION@@AAVCTextData@@@Z
	DD	2 DUP(00H)
	DD	2 DUP(00H)
	DD	00H
	DD	01H
xdata$x	ENDS
;	COMDAT xdata$x
xdata$x	SEGMENT
__unwindtable$?DrawGraphDatas@CGraphDataDrawer@@QAEXPAVCDC@@ABVCRect@@ABVCDisplayAttributes@@ABVCDrawingGraphData@@ABVCSubGraphData@@@Z DD 0ffffffffH
	DD	FLAT:__unwindfunclet$?DrawGraphDatas@CGraphDataDrawer@@QAEXPAVCDC@@ABVCRect@@ABVCDisplayAttributes@@ABVCDrawingGraphData@@ABVCSubGraphData@@@Z$0
__ehfuncinfo$?DrawGraphDatas@CGraphDataDrawer@@QAEXPAVCDC@@ABVCRect@@ABVCDisplayAttributes@@ABVCDrawingGraphData@@ABVCSubGraphData@@@Z DD 019930522H
	DD	01H
	DD	FLAT:__unwindtable$?DrawGraphDatas@CGraphDataDrawer@@QAEXPAVCDC@@ABVCRect@@ABVCDisplayAttributes@@ABVCDrawingGraphData@@ABVCSubGraphData@@@Z
	DD	2 DUP(00H)
	DD	2 DUP(00H)
	DD	00H
	DD	01H
xdata$x	ENDS
;	COMDAT xdata$x
xdata$x	SEGMENT
__unwindtable$?GetPacketAndDataEnd@CDataInRightScaleRegionDrawer@@ABE_NABVCTextInRightScaleRegionDrawer@@AAPAVCPacket@@AAH@Z DD 0ffffffffH
	DD	FLAT:__unwindfunclet$?GetPacketAndDataEnd@CDataInRightScaleRegionDrawer@@ABE_NABVCTextInRightScaleRegionDrawer@@AAPAVCPacket@@AAH@Z$0
__ehfuncinfo$?GetPacketAndDataEnd@CDataInRightScaleRegionDrawer@@ABE_NABVCTextInRightScaleRegionDrawer@@AAPAVCPacket@@AAH@Z DD 019930522H
	DD	01H
	DD	FLAT:__unwindtable$?GetPacketAndDataEnd@CDataInRightScaleRegionDrawer@@ABE_NABVCTextInRightScaleRegionDrawer@@AAPAVCPacket@@AAH@Z
	DD	2 DUP(00H)
	DD	2 DUP(00H)
	DD	00H
	DD	01H
xdata$x	ENDS
;	COMDAT xdata$x
xdata$x	SEGMENT
__unwindtable$?IsGraphDataDraw_Rate@CDataInRightScaleRegionDrawer@@ABE_NABVCRect@@ABVCPrices@@@Z DD 0ffffffffH
	DD	FLAT:__unwindfunclet$?IsGraphDataDraw_Rate@CDataInRightScaleRegionDrawer@@ABE_NABVCRect@@ABVCPrices@@@Z$0
__ehfuncinfo$?IsGraphDataDraw_Rate@CDataInRightScaleRegionDrawer@@ABE_NABVCRect@@ABVCPrices@@@Z DD 019930522H
	DD	01H
	DD	FLAT:__unwindtable$?IsGraphDataDraw_Rate@CDataInRightScaleRegionDrawer@@ABE_NABVCRect@@ABVCPrices@@@Z
	DD	2 DUP(00H)
	DD	2 DUP(00H)
	DD	00H
	DD	01H
xdata$x	ENDS
;	COMDAT xdata$x
xdata$x	SEGMENT
__ehfuncinfo$?GetText_CurrentPrice@CDataInRightScaleRegionDrawer@@ABE?AV?$CStringT@DV?$StrTraitMFC_DLL@DV?$ChTraitsCRT@D@ATL@@@@@ATL@@ABVCPrices@@ABV23@@Z DD 019930522H
	DD	08H
	DD	FLAT:__unwindtable$?GetText_CurrentPrice@CDataInRightScaleRegionDrawer@@ABE?AV?$CStringT@DV?$StrTraitMFC_DLL@DV?$ChTraitsCRT@D@ATL@@@@@ATL@@ABVCPrices@@ABV23@@Z
	DD	2 DUP(00H)
	DD	2 DUP(00H)
	DD	00H
	DD	01H
__unwindtable$?GetText_CurrentPrice@CDataInRightScaleRegionDrawer@@ABE?AV?$CStringT@DV?$StrTraitMFC_DLL@DV?$ChTraitsCRT@D@ATL@@@@@ATL@@ABVCPrices@@ABV23@@Z DD 0ffffffffH
	DD	FLAT:__unwindfunclet$?GetText_CurrentPrice@CDataInRightScaleRegionDrawer@@ABE?AV?$CStringT@DV?$StrTraitMFC_DLL@DV?$ChTraitsCRT@D@ATL@@@@@ATL@@ABVCPrices@@ABV23@@Z$0
	DD	00H
	DD	FLAT:__unwindfunclet$?GetText_CurrentPrice@CDataInRightScaleRegionDrawer@@ABE?AV?$CStringT@DV?$StrTraitMFC_DLL@DV?$ChTraitsCRT@D@ATL@@@@@ATL@@ABVCPrices@@ABV23@@Z$1
	DD	00H
	DD	FLAT:__unwindfunclet$?GetText_CurrentPrice@CDataInRightScaleRegionDrawer@@ABE?AV?$CStringT@DV?$StrTraitMFC_DLL@DV?$ChTraitsCRT@D@ATL@@@@@ATL@@ABVCPrices@@ABV23@@Z$2
	DD	00H
	DD	FLAT:__unwindfunclet$?GetText_CurrentPrice@CDataInRightScaleRegionDrawer@@ABE?AV?$CStringT@DV?$StrTraitMFC_DLL@DV?$ChTraitsCRT@D@ATL@@@@@ATL@@ABVCPrices@@ABV23@@Z$3
	DD	03H
	DD	FLAT:__unwindfunclet$?GetText_CurrentPrice@CDataInRightScaleRegionDrawer@@ABE?AV?$CStringT@DV?$StrTraitMFC_DLL@DV?$ChTraitsCRT@D@ATL@@@@@ATL@@ABVCPrices@@ABV23@@Z$4
	DD	00H
	DD	FLAT:__unwindfunclet$?GetText_CurrentPrice@CDataInRightScaleRegionDrawer@@ABE?AV?$CStringT@DV?$StrTraitMFC_DLL@DV?$ChTraitsCRT@D@ATL@@@@@ATL@@ABVCPrices@@ABV23@@Z$5
	DD	05H
	DD	FLAT:__unwindfunclet$?GetText_CurrentPrice@CDataInRightScaleRegionDrawer@@ABE?AV?$CStringT@DV?$StrTraitMFC_DLL@DV?$ChTraitsCRT@D@ATL@@@@@ATL@@ABVCPrices@@ABV23@@Z$6
	DD	06H
	DD	FLAT:__unwindfunclet$?GetText_CurrentPrice@CDataInRightScaleRegionDrawer@@ABE?AV?$CStringT@DV?$StrTraitMFC_DLL@DV?$ChTraitsCRT@D@ATL@@@@@ATL@@ABVCPrices@@ABV23@@Z$9
xdata$x	ENDS
;	COMDAT xdata$x
xdata$x	SEGMENT
__ehfuncinfo$?GetText_Price@CDataInRightScaleRegionDrawer@@ABE?AV?$CStringT@DV?$StrTraitMFC_DLL@DV?$ChTraitsCRT@D@ATL@@@@@ATL@@NABV23@0H@Z DD 019930522H
	DD	07H
	DD	FLAT:__unwindtable$?GetText_Price@CDataInRightScaleRegionDrawer@@ABE?AV?$CStringT@DV?$StrTraitMFC_DLL@DV?$ChTraitsCRT@D@ATL@@@@@ATL@@NABV23@0H@Z
	DD	2 DUP(00H)
	DD	2 DUP(00H)
	DD	00H
	DD	01H
__unwindtable$?GetText_Price@CDataInRightScaleRegionDrawer@@ABE?AV?$CStringT@DV?$StrTraitMFC_DLL@DV?$ChTraitsCRT@D@ATL@@@@@ATL@@NABV23@0H@Z DD 0ffffffffH
	DD	FLAT:__unwindfunclet$?GetText_Price@CDataInRightScaleRegionDrawer@@ABE?AV?$CStringT@DV?$StrTraitMFC_DLL@DV?$ChTraitsCRT@D@ATL@@@@@ATL@@NABV23@0H@Z$0
	DD	00H
	DD	FLAT:__unwindfunclet$?GetText_Price@CDataInRightScaleRegionDrawer@@ABE?AV?$CStringT@DV?$StrTraitMFC_DLL@DV?$ChTraitsCRT@D@ATL@@@@@ATL@@NABV23@0H@Z$1
	DD	00H
	DD	FLAT:__unwindfunclet$?GetText_Price@CDataInRightScaleRegionDrawer@@ABE?AV?$CStringT@DV?$StrTraitMFC_DLL@DV?$ChTraitsCRT@D@ATL@@@@@ATL@@NABV23@0H@Z$2
	DD	00H
	DD	FLAT:__unwindfunclet$?GetText_Price@CDataInRightScaleRegionDrawer@@ABE?AV?$CStringT@DV?$StrTraitMFC_DLL@DV?$ChTraitsCRT@D@ATL@@@@@ATL@@NABV23@0H@Z$3
	DD	03H
	DD	FLAT:__unwindfunclet$?GetText_Price@CDataInRightScaleRegionDrawer@@ABE?AV?$CStringT@DV?$StrTraitMFC_DLL@DV?$ChTraitsCRT@D@ATL@@@@@ATL@@NABV23@0H@Z$4
	DD	00H
	DD	FLAT:__unwindfunclet$?GetText_Price@CDataInRightScaleRegionDrawer@@ABE?AV?$CStringT@DV?$StrTraitMFC_DLL@DV?$ChTraitsCRT@D@ATL@@@@@ATL@@NABV23@0H@Z$5
	DD	05H
	DD	FLAT:__unwindfunclet$?GetText_Price@CDataInRightScaleRegionDrawer@@ABE?AV?$CStringT@DV?$StrTraitMFC_DLL@DV?$ChTraitsCRT@D@ATL@@@@@ATL@@NABV23@0H@Z$7
xdata$x	ENDS
;	COMDAT xdata$x
xdata$x	SEGMENT
__ehfuncinfo$?GetText@CDataInRightScaleRegionDrawer@@ABE_NABVCRect@@ABVCPrices@@HAAV?$CStringT@DV?$StrTraitMFC_DLL@DV?$ChTraitsCRT@D@ATL@@@@@ATL@@222@Z DD 019930522H
	DD	0eH
	DD	FLAT:__unwindtable$?GetText@CDataInRightScaleRegionDrawer@@ABE_NABVCRect@@ABVCPrices@@HAAV?$CStringT@DV?$StrTraitMFC_DLL@DV?$ChTraitsCRT@D@ATL@@@@@ATL@@222@Z
	DD	2 DUP(00H)
	DD	2 DUP(00H)
	DD	00H
	DD	01H
__unwindtable$?GetText@CDataInRightScaleRegionDrawer@@ABE_NABVCRect@@ABVCPrices@@HAAV?$CStringT@DV?$StrTraitMFC_DLL@DV?$ChTraitsCRT@D@ATL@@@@@ATL@@222@Z DD 0ffffffffH
	DD	FLAT:__unwindfunclet$?GetText@CDataInRightScaleRegionDrawer@@ABE_NABVCRect@@ABVCPrices@@HAAV?$CStringT@DV?$StrTraitMFC_DLL@DV?$ChTraitsCRT@D@ATL@@@@@ATL@@222@Z$0
	DD	00H
	DD	FLAT:__unwindfunclet$?GetText@CDataInRightScaleRegionDrawer@@ABE_NABVCRect@@ABVCPrices@@HAAV?$CStringT@DV?$StrTraitMFC_DLL@DV?$ChTraitsCRT@D@ATL@@@@@ATL@@222@Z$1
	DD	01H
	DD	FLAT:__unwindfunclet$?GetText@CDataInRightScaleRegionDrawer@@ABE_NABVCRect@@ABVCPrices@@HAAV?$CStringT@DV?$StrTraitMFC_DLL@DV?$ChTraitsCRT@D@ATL@@@@@ATL@@222@Z$2
	DD	02H
	DD	FLAT:__unwindfunclet$?GetText@CDataInRightScaleRegionDrawer@@ABE_NABVCRect@@ABVCPrices@@HAAV?$CStringT@DV?$StrTraitMFC_DLL@DV?$ChTraitsCRT@D@ATL@@@@@ATL@@222@Z$3
	DD	00H
	DD	FLAT:__unwindfunclet$?GetText@CDataInRightScaleRegionDrawer@@ABE_NABVCRect@@ABVCPrices@@HAAV?$CStringT@DV?$StrTraitMFC_DLL@DV?$ChTraitsCRT@D@ATL@@@@@ATL@@222@Z$4
	DD	04H
	DD	FLAT:__unwindfunclet$?GetText@CDataInRightScaleRegionDrawer@@ABE_NABVCRect@@ABVCPrices@@HAAV?$CStringT@DV?$StrTraitMFC_DLL@DV?$ChTraitsCRT@D@ATL@@@@@ATL@@222@Z$5
	DD	05H
	DD	FLAT:__unwindfunclet$?GetText@CDataInRightScaleRegionDrawer@@ABE_NABVCRect@@ABVCPrices@@HAAV?$CStringT@DV?$StrTraitMFC_DLL@DV?$ChTraitsCRT@D@ATL@@@@@ATL@@222@Z$6
	DD	00H
	DD	FLAT:__unwindfunclet$?GetText@CDataInRightScaleRegionDrawer@@ABE_NABVCRect@@ABVCPrices@@HAAV?$CStringT@DV?$StrTraitMFC_DLL@DV?$ChTraitsCRT@D@ATL@@@@@ATL@@222@Z$7
	DD	07H
	DD	FLAT:__unwindfunclet$?GetText@CDataInRightScaleRegionDrawer@@ABE_NABVCRect@@ABVCPrices@@HAAV?$CStringT@DV?$StrTraitMFC_DLL@DV?$ChTraitsCRT@D@ATL@@@@@ATL@@222@Z$8
	DD	08H
	DD	FLAT:__unwindfunclet$?GetText@CDataInRightScaleRegionDrawer@@ABE_NABVCRect@@ABVCPrices@@HAAV?$CStringT@DV?$StrTraitMFC_DLL@DV?$ChTraitsCRT@D@ATL@@@@@ATL@@222@Z$9
	DD	00H
	DD	FLAT:__unwindfunclet$?GetText@CDataInRightScaleRegionDrawer@@ABE_NABVCRect@@ABVCPrices@@HAAV?$CStringT@DV?$StrTraitMFC_DLL@DV?$ChTraitsCRT@D@ATL@@@@@ATL@@222@Z$10
	DD	00H
	DD	FLAT:__unwindfunclet$?GetText@CDataInRightScaleRegionDrawer@@ABE_NABVCRect@@ABVCPrices@@HAAV?$CStringT@DV?$StrTraitMFC_DLL@DV?$ChTraitsCRT@D@ATL@@@@@ATL@@222@Z$11
	DD	0bH
	DD	FLAT:__unwindfunclet$?GetText@CDataInRightScaleRegionDrawer@@ABE_NABVCRect@@ABVCPrices@@HAAV?$CStringT@DV?$StrTraitMFC_DLL@DV?$ChTraitsCRT@D@ATL@@@@@ATL@@222@Z$19
	DD	0cH
	DD	FLAT:__unwindfunclet$?GetText@CDataInRightScaleRegionDrawer@@ABE_NABVCRect@@ABVCPrices@@HAAV?$CStringT@DV?$StrTraitMFC_DLL@DV?$ChTraitsCRT@D@ATL@@@@@ATL@@222@Z$20
xdata$x	ENDS
;	COMDAT xdata$x
xdata$x	SEGMENT
__unwindtable$?GetTextRegion@CDataInRightScaleRegionDrawer@@ABE?AVCRect@@PAVCDC@@ABVCPoint@@ABV?$CStringT@DV?$StrTraitMFC_DLL@DV?$ChTraitsCRT@D@ATL@@@@@ATL@@222@Z DD 0ffffffffH
	DD	FLAT:__unwindfunclet$?GetTextRegion@CDataInRightScaleRegionDrawer@@ABE?AVCRect@@PAVCDC@@ABVCPoint@@ABV?$CStringT@DV?$StrTraitMFC_DLL@DV?$ChTraitsCRT@D@ATL@@@@@ATL@@222@Z$0
__ehfuncinfo$?GetTextRegion@CDataInRightScaleRegionDrawer@@ABE?AVCRect@@PAVCDC@@ABVCPoint@@ABV?$CStringT@DV?$StrTraitMFC_DLL@DV?$ChTraitsCRT@D@ATL@@@@@ATL@@222@Z DD 019930522H
	DD	01H
	DD	FLAT:__unwindtable$?GetTextRegion@CDataInRightScaleRegionDrawer@@ABE?AVCRect@@PAVCDC@@ABVCPoint@@ABV?$CStringT@DV?$StrTraitMFC_DLL@DV?$ChTraitsCRT@D@ATL@@@@@ATL@@222@Z
	DD	2 DUP(00H)
	DD	2 DUP(00H)
	DD	00H
	DD	01H
xdata$x	ENDS
;	COMDAT xdata$x
xdata$x	SEGMENT
__unwindtable$?GetTextRegion@CDataInRightScaleRegionDrawer@@ABE?AVCRect@@PAVCDC@@ABVCDrawingGraphData@@ABVCPrices@@ABV?$CStringT@DV?$StrTraitMFC_DLL@DV?$ChTraitsCRT@D@ATL@@@@@ATL@@333ABV2@@Z DD 0ffffffffH
	DD	FLAT:__unwindfunclet$?GetTextRegion@CDataInRightScaleRegionDrawer@@ABE?AVCRect@@PAVCDC@@ABVCDrawingGraphData@@ABVCPrices@@ABV?$CStringT@DV?$StrTraitMFC_DLL@DV?$ChTraitsCRT@D@ATL@@@@@ATL@@333ABV2@@Z$0
	DD	00H
	DD	FLAT:__unwindfunclet$?GetTextRegion@CDataInRightScaleRegionDrawer@@ABE?AVCRect@@PAVCDC@@ABVCDrawingGraphData@@ABVCPrices@@ABV?$CStringT@DV?$StrTraitMFC_DLL@DV?$ChTraitsCRT@D@ATL@@@@@ATL@@333ABV2@@Z$1
__ehfuncinfo$?GetTextRegion@CDataInRightScaleRegionDrawer@@ABE?AVCRect@@PAVCDC@@ABVCDrawingGraphData@@ABVCPrices@@ABV?$CStringT@DV?$StrTraitMFC_DLL@DV?$ChTraitsCRT@D@ATL@@@@@ATL@@333ABV2@@Z DD 019930522H
	DD	02H
	DD	FLAT:__unwindtable$?GetTextRegion@CDataInRightScaleRegionDrawer@@ABE?AVCRect@@PAVCDC@@ABVCDrawingGraphData@@ABVCPrices@@ABV?$CStringT@DV?$StrTraitMFC_DLL@DV?$ChTraitsCRT@D@ATL@@@@@ATL@@333ABV2@@Z
	DD	2 DUP(00H)
	DD	2 DUP(00H)
	DD	00H
	DD	01H
xdata$x	ENDS
;	COMDAT xdata$x
xdata$x	SEGMENT
__unwindtable$?GetPricesInFull@CDataInRightScaleRegionDrawer@@ABE_NPAVCPacket@@AAVCPrices@@@Z DD 0ffffffffH
	DD	FLAT:__unwindfunclet$?GetPricesInFull@CDataInRightScaleRegionDrawer@@ABE_NPAVCPacket@@AAVCPrices@@@Z$0
__ehfuncinfo$?GetPricesInFull@CDataInRightScaleRegionDrawer@@ABE_NPAVCPacket@@AAVCPrices@@@Z DD 019930522H
	DD	01H
	DD	FLAT:__unwindtable$?GetPricesInFull@CDataInRightScaleRegionDrawer@@ABE_NPAVCPacket@@AAVCPrices@@@Z
	DD	2 DUP(00H)
	DD	2 DUP(00H)
	DD	00H
	DD	01H
xdata$x	ENDS
;	COMDAT xdata$x
xdata$x	SEGMENT
__unwindtable$?GetDrawingDatas@CDataInRightScaleRegionDrawer@@ABE_NPAVCPacket@@HHABVCPrices@@AAV3@@Z DD 0ffffffffH
	DD	FLAT:__unwindfunclet$?GetDrawingDatas@CDataInRightScaleRegionDrawer@@ABE_NPAVCPacket@@HHABVCPrices@@AAV3@@Z$0
__ehfuncinfo$?GetDrawingDatas@CDataInRightScaleRegionDrawer@@ABE_NPAVCPacket@@HHABVCPrices@@AAV3@@Z DD 019930522H
	DD	01H
	DD	FLAT:__unwindtable$?GetDrawingDatas@CDataInRightScaleRegionDrawer@@ABE_NPAVCPacket@@HHABVCPrices@@AAV3@@Z
	DD	2 DUP(00H)
	DD	2 DUP(00H)
	DD	00H
	DD	01H
xdata$x	ENDS
;	COMDAT xdata$x
xdata$x	SEGMENT
__unwindtable$?GetDrawingDatas@CDataInRightScaleRegionDrawer@@ABE_NABVCDisplayAttributes@@ABVCDrawingGraphData@@ABVCPrices@@AAV4@AAV?$CStringT@DV?$StrTraitMFC_DLL@DV?$ChTraitsCRT@D@ATL@@@@@ATL@@@Z DD 0ffffffffH
	DD	FLAT:__unwindfunclet$?GetDrawingDatas@CDataInRightScaleRegionDrawer@@ABE_NABVCDisplayAttributes@@ABVCDrawingGraphData@@ABVCPrices@@AAV4@AAV?$CStringT@DV?$StrTraitMFC_DLL@DV?$ChTraitsCRT@D@ATL@@@@@ATL@@@Z$0
__ehfuncinfo$?GetDrawingDatas@CDataInRightScaleRegionDrawer@@ABE_NABVCDisplayAttributes@@ABVCDrawingGraphData@@ABVCPrices@@AAV4@AAV?$CStringT@DV?$StrTraitMFC_DLL@DV?$ChTraitsCRT@D@ATL@@@@@ATL@@@Z DD 019930522H
	DD	01H
	DD	FLAT:__unwindtable$?GetDrawingDatas@CDataInRightScaleRegionDrawer@@ABE_NABVCDisplayAttributes@@ABVCDrawingGraphData@@ABVCPrices@@AAV4@AAV?$CStringT@DV?$StrTraitMFC_DLL@DV?$ChTraitsCRT@D@ATL@@@@@ATL@@@Z
	DD	2 DUP(00H)
	DD	2 DUP(00H)
	DD	00H
	DD	01H
xdata$x	ENDS
;	COMDAT xdata$x
xdata$x	SEGMENT
__unwindtable$?DrawData@CDataInRightScaleRegionDrawer@@AAEXPAVCDC@@ABVCRect@@ABV?$CStringT@DV?$StrTraitMFC_DLL@DV?$ChTraitsCRT@D@ATL@@@@@ATL@@ABK3AAH@Z DD 0ffffffffH
	DD	FLAT:__unwindfunclet$?DrawData@CDataInRightScaleRegionDrawer@@AAEXPAVCDC@@ABVCRect@@ABV?$CStringT@DV?$StrTraitMFC_DLL@DV?$ChTraitsCRT@D@ATL@@@@@ATL@@ABK3AAH@Z$0
	DD	00H
	DD	FLAT:__unwindfunclet$?DrawData@CDataInRightScaleRegionDrawer@@AAEXPAVCDC@@ABVCRect@@ABV?$CStringT@DV?$StrTraitMFC_DLL@DV?$ChTraitsCRT@D@ATL@@@@@ATL@@ABK3AAH@Z$1
__ehfuncinfo$?DrawData@CDataInRightScaleRegionDrawer@@AAEXPAVCDC@@ABVCRect@@ABV?$CStringT@DV?$StrTraitMFC_DLL@DV?$ChTraitsCRT@D@ATL@@@@@ATL@@ABK3AAH@Z DD 019930522H
	DD	02H
	DD	FLAT:__unwindtable$?DrawData@CDataInRightScaleRegionDrawer@@AAEXPAVCDC@@ABVCRect@@ABV?$CStringT@DV?$StrTraitMFC_DLL@DV?$ChTraitsCRT@D@ATL@@@@@ATL@@ABK3AAH@Z
	DD	2 DUP(00H)
	DD	2 DUP(00H)
	DD	00H
	DD	01H
xdata$x	ENDS
;	COMDAT xdata$x
xdata$x	SEGMENT
__unwindtable$?DrawData@CDataInRightScaleRegionDrawer@@AAEXPAVCDC@@ABVCRect@@ABVCDrawingGraphData@@ABVCGraphColor@@ABVCPrices@@AAV?$CStringT@DV?$StrTraitMFC_DLL@DV?$ChTraitsCRT@D@ATL@@@@@ATL@@AAV3@@Z DD 0ffffffffH
	DD	FLAT:__unwindfunclet$?DrawData@CDataInRightScaleRegionDrawer@@AAEXPAVCDC@@ABVCRect@@ABVCDrawingGraphData@@ABVCGraphColor@@ABVCPrices@@AAV?$CStringT@DV?$StrTraitMFC_DLL@DV?$ChTraitsCRT@D@ATL@@@@@ATL@@AAV3@@Z$0
	DD	00H
	DD	FLAT:__unwindfunclet$?DrawData@CDataInRightScaleRegionDrawer@@AAEXPAVCDC@@ABVCRect@@ABVCDrawingGraphData@@ABVCGraphColor@@ABVCPrices@@AAV?$CStringT@DV?$StrTraitMFC_DLL@DV?$ChTraitsCRT@D@ATL@@@@@ATL@@AAV3@@Z$1
	DD	01H
	DD	FLAT:__unwindfunclet$?DrawData@CDataInRightScaleRegionDrawer@@AAEXPAVCDC@@ABVCRect@@ABVCDrawingGraphData@@ABVCGraphColor@@ABVCPrices@@AAV?$CStringT@DV?$StrTraitMFC_DLL@DV?$ChTraitsCRT@D@ATL@@@@@ATL@@AAV3@@Z$2
	DD	02H
	DD	FLAT:__unwindfunclet$?DrawData@CDataInRightScaleRegionDrawer@@AAEXPAVCDC@@ABVCRect@@ABVCDrawingGraphData@@ABVCGraphColor@@ABVCPrices@@AAV?$CStringT@DV?$StrTraitMFC_DLL@DV?$ChTraitsCRT@D@ATL@@@@@ATL@@AAV3@@Z$3
__ehfuncinfo$?DrawData@CDataInRightScaleRegionDrawer@@AAEXPAVCDC@@ABVCRect@@ABVCDrawingGraphData@@ABVCGraphColor@@ABVCPrices@@AAV?$CStringT@DV?$StrTraitMFC_DLL@DV?$ChTraitsCRT@D@ATL@@@@@ATL@@AAV3@@Z DD 019930522H
	DD	04H
	DD	FLAT:__unwindtable$?DrawData@CDataInRightScaleRegionDrawer@@AAEXPAVCDC@@ABVCRect@@ABVCDrawingGraphData@@ABVCGraphColor@@ABVCPrices@@AAV?$CStringT@DV?$StrTraitMFC_DLL@DV?$ChTraitsCRT@D@ATL@@@@@ATL@@AAV3@@Z
	DD	2 DUP(00H)
	DD	2 DUP(00H)
	DD	00H
	DD	01H
xdata$x	ENDS
;	COMDAT xdata$x
xdata$x	SEGMENT
__unwindtable$?GetPacket@CDataInRightScaleRegionDrawer@@QBEPAVCPacket@@ABVCDrawingGraphData@@@Z DD 0ffffffffH
	DD	FLAT:__unwindfunclet$?GetPacket@CDataInRightScaleRegionDrawer@@QBEPAVCPacket@@ABVCDrawingGraphData@@@Z$0
__ehfuncinfo$?GetPacket@CDataInRightScaleRegionDrawer@@QBEPAVCPacket@@ABVCDrawingGraphData@@@Z DD 019930522H
	DD	01H
	DD	FLAT:__unwindtable$?GetPacket@CDataInRightScaleRegionDrawer@@QBEPAVCPacket@@ABVCDrawingGraphData@@@Z
	DD	2 DUP(00H)
	DD	2 DUP(00H)
	DD	00H
	DD	01H
xdata$x	ENDS
;	COMDAT xdata$x
xdata$x	SEGMENT
__unwindtable$?GetText@CDataInRightScaleRegionDrawer@@QBE_NABVCTextInRightScaleRegionDrawer@@AAV?$CStringT@DV?$StrTraitMFC_DLL@DV?$ChTraitsCRT@D@ATL@@@@@ATL@@111@Z DD 0ffffffffH
	DD	FLAT:__unwindfunclet$?GetText@CDataInRightScaleRegionDrawer@@QBE_NABVCTextInRightScaleRegionDrawer@@AAV?$CStringT@DV?$StrTraitMFC_DLL@DV?$ChTraitsCRT@D@ATL@@@@@ATL@@111@Z$0
	DD	0ffffffffH
	DD	FLAT:__unwindfunclet$?GetText@CDataInRightScaleRegionDrawer@@QBE_NABVCTextInRightScaleRegionDrawer@@AAV?$CStringT@DV?$StrTraitMFC_DLL@DV?$ChTraitsCRT@D@ATL@@@@@ATL@@111@Z$1
	DD	01H
	DD	FLAT:__unwindfunclet$?GetText@CDataInRightScaleRegionDrawer@@QBE_NABVCTextInRightScaleRegionDrawer@@AAV?$CStringT@DV?$StrTraitMFC_DLL@DV?$ChTraitsCRT@D@ATL@@@@@ATL@@111@Z$2
__ehfuncinfo$?GetText@CDataInRightScaleRegionDrawer@@QBE_NABVCTextInRightScaleRegionDrawer@@AAV?$CStringT@DV?$StrTraitMFC_DLL@DV?$ChTraitsCRT@D@ATL@@@@@ATL@@111@Z DD 019930522H
	DD	03H
	DD	FLAT:__unwindtable$?GetText@CDataInRightScaleRegionDrawer@@QBE_NABVCTextInRightScaleRegionDrawer@@AAV?$CStringT@DV?$StrTraitMFC_DLL@DV?$ChTraitsCRT@D@ATL@@@@@ATL@@111@Z
	DD	2 DUP(00H)
	DD	2 DUP(00H)
	DD	00H
	DD	01H
xdata$x	ENDS
;	COMDAT xdata$x
xdata$x	SEGMENT
__unwindtable$?DrawData@CDataInRightScaleRegionDrawer@@QAEXPAVCDC@@ABVCRect@@ABVCDisplayAttributes@@ABVCDrawingGraphData@@ABVCGraphColor@@ABVCPrices@@@Z DD 0ffffffffH
	DD	FLAT:__unwindfunclet$?DrawData@CDataInRightScaleRegionDrawer@@QAEXPAVCDC@@ABVCRect@@ABVCDisplayAttributes@@ABVCDrawingGraphData@@ABVCGraphColor@@ABVCPrices@@@Z$0
	DD	00H
	DD	FLAT:__unwindfunclet$?DrawData@CDataInRightScaleRegionDrawer@@QAEXPAVCDC@@ABVCRect@@ABVCDisplayAttributes@@ABVCDrawingGraphData@@ABVCGraphColor@@ABVCPrices@@@Z$1
	DD	01H
	DD	FLAT:__unwindfunclet$?DrawData@CDataInRightScaleRegionDrawer@@QAEXPAVCDC@@ABVCRect@@ABVCDisplayAttributes@@ABVCDrawingGraphData@@ABVCGraphColor@@ABVCPrices@@@Z$2
__ehfuncinfo$?DrawData@CDataInRightScaleRegionDrawer@@QAEXPAVCDC@@ABVCRect@@ABVCDisplayAttributes@@ABVCDrawingGraphData@@ABVCGraphColor@@ABVCPrices@@@Z DD 019930522H
	DD	03H
	DD	FLAT:__unwindtable$?DrawData@CDataInRightScaleRegionDrawer@@QAEXPAVCDC@@ABVCRect@@ABVCDisplayAttributes@@ABVCDrawingGraphData@@ABVCGraphColor@@ABVCPrices@@@Z
	DD	2 DUP(00H)
	DD	2 DUP(00H)
	DD	00H
	DD	01H
xdata$x	ENDS
;	COMDAT xdata$x
xdata$x	SEGMENT
__unwindtable$?GetChangingData@CDataInGraphRegionDrawer@@ABE_NABV?$CStringT@DV?$StrTraitMFC_DLL@DV?$ChTraitsCRT@D@ATL@@@@@ATL@@H_NAAV23@@Z DD 0ffffffffH
	DD	FLAT:__unwindfunclet$?GetChangingData@CDataInGraphRegionDrawer@@ABE_NABV?$CStringT@DV?$StrTraitMFC_DLL@DV?$ChTraitsCRT@D@ATL@@@@@ATL@@H_NAAV23@@Z$2
	DD	0ffffffffH
	DD	FLAT:__unwindfunclet$?GetChangingData@CDataInGraphRegionDrawer@@ABE_NABV?$CStringT@DV?$StrTraitMFC_DLL@DV?$ChTraitsCRT@D@ATL@@@@@ATL@@H_NAAV23@@Z$3
__ehfuncinfo$?GetChangingData@CDataInGraphRegionDrawer@@ABE_NABV?$CStringT@DV?$StrTraitMFC_DLL@DV?$ChTraitsCRT@D@ATL@@@@@ATL@@H_NAAV23@@Z DD 019930522H
	DD	02H
	DD	FLAT:__unwindtable$?GetChangingData@CDataInGraphRegionDrawer@@ABE_NABV?$CStringT@DV?$StrTraitMFC_DLL@DV?$ChTraitsCRT@D@ATL@@@@@ATL@@H_NAAV23@@Z
	DD	2 DUP(00H)
	DD	2 DUP(00H)
	DD	00H
	DD	01H
xdata$x	ENDS
;	COMDAT xdata$x
xdata$x	SEGMENT
__unwindtable$?ChangeData@CDataInGraphRegionDrawer@@ABEXHHAAV?$CList@VCTextData@@AAV1@@@@Z DD 0ffffffffH
	DD	FLAT:__unwindfunclet$?ChangeData@CDataInGraphRegionDrawer@@ABEXHHAAV?$CList@VCTextData@@AAV1@@@@Z$0
	DD	00H
	DD	FLAT:__unwindfunclet$?ChangeData@CDataInGraphRegionDrawer@@ABEXHHAAV?$CList@VCTextData@@AAV1@@@@Z$1
	DD	00H
	DD	FLAT:__unwindfunclet$?ChangeData@CDataInGraphRegionDrawer@@ABEXHHAAV?$CList@VCTextData@@AAV1@@@@Z$2
__ehfuncinfo$?ChangeData@CDataInGraphRegionDrawer@@ABEXHHAAV?$CList@VCTextData@@AAV1@@@@Z DD 019930522H
	DD	03H
	DD	FLAT:__unwindtable$?ChangeData@CDataInGraphRegionDrawer@@ABEXHHAAV?$CList@VCTextData@@AAV1@@@@Z
	DD	2 DUP(00H)
	DD	2 DUP(00H)
	DD	00H
	DD	01H
xdata$x	ENDS
;	COMDAT xdata$x
xdata$x	SEGMENT
__unwindtable$?AddTailAndGetMaxLength@CDataInGraphRegionDrawer@@ABE_NABV?$CStringT@DV?$StrTraitMFC_DLL@DV?$ChTraitsCRT@D@ATL@@@@@ATL@@0ABKAAH2AAV?$CList@VCTextData@@AAV1@@@@Z DD 0ffffffffH
	DD	FLAT:__unwindfunclet$?AddTailAndGetMaxLength@CDataInGraphRegionDrawer@@ABE_NABV?$CStringT@DV?$StrTraitMFC_DLL@DV?$ChTraitsCRT@D@ATL@@@@@ATL@@0ABKAAH2AAV?$CList@VCTextData@@AAV1@@@@Z$1
	DD	0ffffffffH
	DD	FLAT:__unwindfunclet$?AddTailAndGetMaxLength@CDataInGraphRegionDrawer@@ABE_NABV?$CStringT@DV?$StrTraitMFC_DLL@DV?$ChTraitsCRT@D@ATL@@@@@ATL@@0ABKAAH2AAV?$CList@VCTextData@@AAV1@@@@Z$0
__ehfuncinfo$?AddTailAndGetMaxLength@CDataInGraphRegionDrawer@@ABE_NABV?$CStringT@DV?$StrTraitMFC_DLL@DV?$ChTraitsCRT@D@ATL@@@@@ATL@@0ABKAAH2AAV?$CList@VCTextData@@AAV1@@@@Z DD 019930522H
	DD	02H
	DD	FLAT:__unwindtable$?AddTailAndGetMaxLength@CDataInGraphRegionDrawer@@ABE_NABV?$CStringT@DV?$StrTraitMFC_DLL@DV?$ChTraitsCRT@D@ATL@@@@@ATL@@0ABKAAH2AAV?$CList@VCTextData@@AAV1@@@@Z
	DD	2 DUP(00H)
	DD	2 DUP(00H)
	DD	00H
	DD	01H
xdata$x	ENDS
;	COMDAT xdata$x
xdata$x	SEGMENT
__unwindtable$?GetDrawingText@CDataInGraphRegionDrawer@@ABE?AV?$CStringT@DV?$StrTraitMFC_DLL@DV?$ChTraitsCRT@D@ATL@@@@@ATL@@ABVCTextData@@@Z DD 0ffffffffH
	DD	FLAT:__unwindfunclet$?GetDrawingText@CDataInGraphRegionDrawer@@ABE?AV?$CStringT@DV?$StrTraitMFC_DLL@DV?$ChTraitsCRT@D@ATL@@@@@ATL@@ABVCTextData@@@Z$1
	DD	00H
	DD	FLAT:__unwindfunclet$?GetDrawingText@CDataInGraphRegionDrawer@@ABE?AV?$CStringT@DV?$StrTraitMFC_DLL@DV?$ChTraitsCRT@D@ATL@@@@@ATL@@ABVCTextData@@@Z$2
	DD	01H
	DD	FLAT:__unwindfunclet$?GetDrawingText@CDataInGraphRegionDrawer@@ABE?AV?$CStringT@DV?$StrTraitMFC_DLL@DV?$ChTraitsCRT@D@ATL@@@@@ATL@@ABVCTextData@@@Z$3
__ehfuncinfo$?GetDrawingText@CDataInGraphRegionDrawer@@ABE?AV?$CStringT@DV?$StrTraitMFC_DLL@DV?$ChTraitsCRT@D@ATL@@@@@ATL@@ABVCTextData@@@Z DD 019930522H
	DD	03H
	DD	FLAT:__unwindtable$?GetDrawingText@CDataInGraphRegionDrawer@@ABE?AV?$CStringT@DV?$StrTraitMFC_DLL@DV?$ChTraitsCRT@D@ATL@@@@@ATL@@ABVCTextData@@@Z
	DD	2 DUP(00H)
	DD	2 DUP(00H)
	DD	00H
	DD	01H
xdata$x	ENDS
;	COMDAT xdata$x
xdata$x	SEGMENT
__ehfuncinfo$?GetDataTexts@CDataInGraphRegionDrawer@@ABE_NABVCGraphDataDrawingData@@ABVCDisplayDataMinMax@@ABVCPrices@@ABVCGraphColor@@AAH4AAV?$CList@VCTextData@@AAV1@@@@Z DD 019930522H
	DD	08H
	DD	FLAT:__unwindtable$?GetDataTexts@CDataInGraphRegionDrawer@@ABE_NABVCGraphDataDrawingData@@ABVCDisplayDataMinMax@@ABVCPrices@@ABVCGraphColor@@AAH4AAV?$CList@VCTextData@@AAV1@@@@Z
	DD	2 DUP(00H)
	DD	2 DUP(00H)
	DD	00H
	DD	01H
__unwindtable$?GetDataTexts@CDataInGraphRegionDrawer@@ABE_NABVCGraphDataDrawingData@@ABVCDisplayDataMinMax@@ABVCPrices@@ABVCGraphColor@@AAH4AAV?$CList@VCTextData@@AAV1@@@@Z DD 0ffffffffH
	DD	FLAT:__unwindfunclet$?GetDataTexts@CDataInGraphRegionDrawer@@ABE_NABVCGraphDataDrawingData@@ABVCDisplayDataMinMax@@ABVCPrices@@ABVCGraphColor@@AAH4AAV?$CList@VCTextData@@AAV1@@@@Z$0
	DD	00H
	DD	FLAT:__unwindfunclet$?GetDataTexts@CDataInGraphRegionDrawer@@ABE_NABVCGraphDataDrawingData@@ABVCDisplayDataMinMax@@ABVCPrices@@ABVCGraphColor@@AAH4AAV?$CList@VCTextData@@AAV1@@@@Z$1
	DD	0ffffffffH
	DD	FLAT:__unwindfunclet$?GetDataTexts@CDataInGraphRegionDrawer@@ABE_NABVCGraphDataDrawingData@@ABVCDisplayDataMinMax@@ABVCPrices@@ABVCGraphColor@@AAH4AAV?$CList@VCTextData@@AAV1@@@@Z$2
	DD	02H
	DD	FLAT:__unwindfunclet$?GetDataTexts@CDataInGraphRegionDrawer@@ABE_NABVCGraphDataDrawingData@@ABVCDisplayDataMinMax@@ABVCPrices@@ABVCGraphColor@@AAH4AAV?$CList@VCTextData@@AAV1@@@@Z$3
	DD	0ffffffffH
	DD	FLAT:__unwindfunclet$?GetDataTexts@CDataInGraphRegionDrawer@@ABE_NABVCGraphDataDrawingData@@ABVCDisplayDataMinMax@@ABVCPrices@@ABVCGraphColor@@AAH4AAV?$CList@VCTextData@@AAV1@@@@Z$4
	DD	04H
	DD	FLAT:__unwindfunclet$?GetDataTexts@CDataInGraphRegionDrawer@@ABE_NABVCGraphDataDrawingData@@ABVCDisplayDataMinMax@@ABVCPrices@@ABVCGraphColor@@AAH4AAV?$CList@VCTextData@@AAV1@@@@Z$5
	DD	0ffffffffH
	DD	FLAT:__unwindfunclet$?GetDataTexts@CDataInGraphRegionDrawer@@ABE_NABVCGraphDataDrawingData@@ABVCDisplayDataMinMax@@ABVCPrices@@ABVCGraphColor@@AAH4AAV?$CList@VCTextData@@AAV1@@@@Z$6
	DD	06H
	DD	FLAT:__unwindfunclet$?GetDataTexts@CDataInGraphRegionDrawer@@ABE_NABVCGraphDataDrawingData@@ABVCDisplayDataMinMax@@ABVCPrices@@ABVCGraphColor@@AAH4AAV?$CList@VCTextData@@AAV1@@@@Z$7
xdata$x	ENDS
;	COMDAT xdata$x
xdata$x	SEGMENT
__unwindtable$?GetDataTexts@CDataInGraphRegionDrawer@@ABE_NABVCGraphDataDrawingData@@ABVCDisplayDataMinMax@@ABVCPrices@@ABVCGraphColor@@AAV?$CList@VCTextData@@AAV1@@@@Z DD 0ffffffffH
	DD	FLAT:__unwindfunclet$?GetDataTexts@CDataInGraphRegionDrawer@@ABE_NABVCGraphDataDrawingData@@ABVCDisplayDataMinMax@@ABVCPrices@@ABVCGraphColor@@AAV?$CList@VCTextData@@AAV1@@@@Z$0
	DD	00H
	DD	FLAT:__unwindfunclet$?GetDataTexts@CDataInGraphRegionDrawer@@ABE_NABVCGraphDataDrawingData@@ABVCDisplayDataMinMax@@ABVCPrices@@ABVCGraphColor@@AAV?$CList@VCTextData@@AAV1@@@@Z$1
	DD	00H
	DD	FLAT:__unwindfunclet$?GetDataTexts@CDataInGraphRegionDrawer@@ABE_NABVCGraphDataDrawingData@@ABVCDisplayDataMinMax@@ABVCPrices@@ABVCGraphColor@@AAV?$CList@VCTextData@@AAV1@@@@Z$2
__ehfuncinfo$?GetDataTexts@CDataInGraphRegionDrawer@@ABE_NABVCGraphDataDrawingData@@ABVCDisplayDataMinMax@@ABVCPrices@@ABVCGraphColor@@AAV?$CList@VCTextData@@AAV1@@@@Z DD 019930522H
	DD	03H
	DD	FLAT:__unwindtable$?GetDataTexts@CDataInGraphRegionDrawer@@ABE_NABVCGraphDataDrawingData@@ABVCDisplayDataMinMax@@ABVCPrices@@ABVCGraphColor@@AAV?$CList@VCTextData@@AAV1@@@@Z
	DD	2 DUP(00H)
	DD	2 DUP(00H)
	DD	00H
	DD	01H
xdata$x	ENDS
;	COMDAT xdata$x
xdata$x	SEGMENT
__unwindtable$?GetHighLow@CDataInGraphRegionDrawer@@ABE_NABV?$CStringT@DV?$StrTraitMFC_DLL@DV?$ChTraitsCRT@D@ATL@@@@@ATL@@ABVCGraphStyle@@ABV?$CList@PAVCPacket@@PAV1@@@ABVCDisplayAttributes@@AAVCDisplayDataMinMax@@@Z DD 0ffffffffH
	DD	FLAT:__unwindfunclet$?GetHighLow@CDataInGraphRegionDrawer@@ABE_NABV?$CStringT@DV?$StrTraitMFC_DLL@DV?$ChTraitsCRT@D@ATL@@@@@ATL@@ABVCGraphStyle@@ABV?$CList@PAVCPacket@@PAV1@@@ABVCDisplayAttributes@@AAVCDisplayDataMinMax@@@Z$0
	DD	0ffffffffH
	DD	FLAT:__unwindfunclet$?GetHighLow@CDataInGraphRegionDrawer@@ABE_NABV?$CStringT@DV?$StrTraitMFC_DLL@DV?$ChTraitsCRT@D@ATL@@@@@ATL@@ABVCGraphStyle@@ABV?$CList@PAVCPacket@@PAV1@@@ABVCDisplayAttributes@@AAVCDisplayDataMinMax@@@Z$1
__ehfuncinfo$?GetHighLow@CDataInGraphRegionDrawer@@ABE_NABV?$CStringT@DV?$StrTraitMFC_DLL@DV?$ChTraitsCRT@D@ATL@@@@@ATL@@ABVCGraphStyle@@ABV?$CList@PAVCPacket@@PAV1@@@ABVCDisplayAttributes@@AAVCDisplayDataMinMax@@@Z DD 019930522H
	DD	02H
	DD	FLAT:__unwindtable$?GetHighLow@CDataInGraphRegionDrawer@@ABE_NABV?$CStringT@DV?$StrTraitMFC_DLL@DV?$ChTraitsCRT@D@ATL@@@@@ATL@@ABVCGraphStyle@@ABV?$CList@PAVCPacket@@PAV1@@@ABVCDisplayAttributes@@AAVCDisplayDataMinMax@@@Z
	DD	2 DUP(00H)
	DD	2 DUP(00H)
	DD	00H
	DD	01H
xdata$x	ENDS
;	COMDAT xdata$x
xdata$x	SEGMENT
__unwindtable$?DrawData@CDataInGraphRegionDrawer@@AAEXPAVCDC@@ABVCRect@@ABVCDrawingGraphData@@ABVCPrices@@ABV?$CList@VCTextData@@AAV1@@@@Z DD 0ffffffffH
	DD	FLAT:__unwindfunclet$?DrawData@CDataInGraphRegionDrawer@@AAEXPAVCDC@@ABVCRect@@ABVCDrawingGraphData@@ABVCPrices@@ABV?$CList@VCTextData@@AAV1@@@@Z$3
	DD	00H
	DD	FLAT:__unwindfunclet$?DrawData@CDataInGraphRegionDrawer@@AAEXPAVCDC@@ABVCRect@@ABVCDrawingGraphData@@ABVCPrices@@ABV?$CList@VCTextData@@AAV1@@@@Z$4
	DD	01H
	DD	FLAT:__unwindfunclet$?DrawData@CDataInGraphRegionDrawer@@AAEXPAVCDC@@ABVCRect@@ABVCDrawingGraphData@@ABVCPrices@@ABV?$CList@VCTextData@@AAV1@@@@Z$5
	DD	0ffffffffH
	DD	FLAT:__unwindfunclet$?DrawData@CDataInGraphRegionDrawer@@AAEXPAVCDC@@ABVCRect@@ABVCDrawingGraphData@@ABVCPrices@@ABV?$CList@VCTextData@@AAV1@@@@Z$0
__ehfuncinfo$?DrawData@CDataInGraphRegionDrawer@@AAEXPAVCDC@@ABVCRect@@ABVCDrawingGraphData@@ABVCPrices@@ABV?$CList@VCTextData@@AAV1@@@@Z DD 019930522H
	DD	04H
	DD	FLAT:__unwindtable$?DrawData@CDataInGraphRegionDrawer@@AAEXPAVCDC@@ABVCRect@@ABVCDrawingGraphData@@ABVCPrices@@ABV?$CList@VCTextData@@AAV1@@@@Z
	DD	2 DUP(00H)
	DD	2 DUP(00H)
	DD	00H
	DD	01H
xdata$x	ENDS
;	COMDAT xdata$x
xdata$x	SEGMENT
__ehfuncinfo$?DrawData@CDataInGraphRegionDrawer@@AAEXPAVCDC@@ABVCRect@@ABVCDrawingGraphData@@ABVCDisplayDataMinMax@@ABVCPrices@@ABVCGraphColor@@@Z DD 019930522H
	DD	0aH
	DD	FLAT:__unwindtable$?DrawData@CDataInGraphRegionDrawer@@AAEXPAVCDC@@ABVCRect@@ABVCDrawingGraphData@@ABVCDisplayDataMinMax@@ABVCPrices@@ABVCGraphColor@@@Z
	DD	2 DUP(00H)
	DD	2 DUP(00H)
	DD	00H
	DD	01H
__unwindtable$?DrawData@CDataInGraphRegionDrawer@@AAEXPAVCDC@@ABVCRect@@ABVCDrawingGraphData@@ABVCDisplayDataMinMax@@ABVCPrices@@ABVCGraphColor@@@Z DD 0ffffffffH
	DD	FLAT:__unwindfunclet$?DrawData@CDataInGraphRegionDrawer@@AAEXPAVCDC@@ABVCRect@@ABVCDrawingGraphData@@ABVCDisplayDataMinMax@@ABVCPrices@@ABVCGraphColor@@@Z$0
	DD	00H
	DD	FLAT:__unwindfunclet$?DrawData@CDataInGraphRegionDrawer@@AAEXPAVCDC@@ABVCRect@@ABVCDrawingGraphData@@ABVCDisplayDataMinMax@@ABVCPrices@@ABVCGraphColor@@@Z$1
	DD	01H
	DD	FLAT:__unwindfunclet$?DrawData@CDataInGraphRegionDrawer@@AAEXPAVCDC@@ABVCRect@@ABVCDrawingGraphData@@ABVCDisplayDataMinMax@@ABVCPrices@@ABVCGraphColor@@@Z$2
	DD	01H
	DD	FLAT:__unwindfunclet$?DrawData@CDataInGraphRegionDrawer@@AAEXPAVCDC@@ABVCRect@@ABVCDrawingGraphData@@ABVCDisplayDataMinMax@@ABVCPrices@@ABVCGraphColor@@@Z$3
	DD	0ffffffffH
	DD	00H
	DD	00H
	DD	FLAT:__unwindfunclet$?DrawData@CDataInGraphRegionDrawer@@AAEXPAVCDC@@ABVCRect@@ABVCDrawingGraphData@@ABVCDisplayDataMinMax@@ABVCPrices@@ABVCGraphColor@@@Z$11
	DD	05H
	DD	FLAT:__unwindfunclet$?DrawData@CDataInGraphRegionDrawer@@AAEXPAVCDC@@ABVCRect@@ABVCDrawingGraphData@@ABVCDisplayDataMinMax@@ABVCPrices@@ABVCGraphColor@@@Z$12
	DD	06H
	DD	FLAT:__unwindfunclet$?DrawData@CDataInGraphRegionDrawer@@AAEXPAVCDC@@ABVCRect@@ABVCDrawingGraphData@@ABVCDisplayDataMinMax@@ABVCPrices@@ABVCGraphColor@@@Z$13
	DD	00H
	DD	FLAT:__unwindfunclet$?DrawData@CDataInGraphRegionDrawer@@AAEXPAVCDC@@ABVCRect@@ABVCDrawingGraphData@@ABVCDisplayDataMinMax@@ABVCPrices@@ABVCGraphColor@@@Z$8
	DD	0ffffffffH
	DD	FLAT:___std_terminate
xdata$x	ENDS
;	COMDAT xdata$x
xdata$x	SEGMENT
__unwindtable$?DrawData@CDataInGraphRegionDrawer@@QAEXPAVCDC@@ABVCRect@@ABVCDisplayAttributes@@ABVCDrawingGraphData@@ABVCSubGraphData@@AAVCPrices@@@Z DD 0ffffffffH
	DD	FLAT:__unwindfunclet$?DrawData@CDataInGraphRegionDrawer@@QAEXPAVCDC@@ABVCRect@@ABVCDisplayAttributes@@ABVCDrawingGraphData@@ABVCSubGraphData@@AAVCPrices@@@Z$0
	DD	0ffffffffH
	DD	FLAT:__unwindfunclet$?DrawData@CDataInGraphRegionDrawer@@QAEXPAVCDC@@ABVCRect@@ABVCDisplayAttributes@@ABVCDrawingGraphData@@ABVCSubGraphData@@AAVCPrices@@@Z$1
__ehfuncinfo$?DrawData@CDataInGraphRegionDrawer@@QAEXPAVCDC@@ABVCRect@@ABVCDisplayAttributes@@ABVCDrawingGraphData@@ABVCSubGraphData@@AAVCPrices@@@Z DD 019930522H
	DD	02H
	DD	FLAT:__unwindtable$?DrawData@CDataInGraphRegionDrawer@@QAEXPAVCDC@@ABVCRect@@ABVCDisplayAttributes@@ABVCDrawingGraphData@@ABVCSubGraphData@@AAVCPrices@@@Z
	DD	2 DUP(00H)
	DD	2 DUP(00H)
	DD	00H
	DD	01H
xdata$x	ENDS
;	COMDAT xdata$x
xdata$x	SEGMENT
__unwindtable$?GetDecimalDownCount@CRateDrawer@@ABE_NPAVCPacket@@AAHAAV?$CStringT@DV?$StrTraitMFC_DLL@DV?$ChTraitsCRT@D@ATL@@@@@ATL@@@Z DD 0ffffffffH
	DD	FLAT:__unwindfunclet$?GetDecimalDownCount@CRateDrawer@@ABE_NPAVCPacket@@AAHAAV?$CStringT@DV?$StrTraitMFC_DLL@DV?$ChTraitsCRT@D@ATL@@@@@ATL@@@Z$0
	DD	00H
	DD	FLAT:__unwindfunclet$?GetDecimalDownCount@CRateDrawer@@ABE_NPAVCPacket@@AAHAAV?$CStringT@DV?$StrTraitMFC_DLL@DV?$ChTraitsCRT@D@ATL@@@@@ATL@@@Z$1
	DD	00H
	DD	FLAT:__unwindfunclet$?GetDecimalDownCount@CRateDrawer@@ABE_NPAVCPacket@@AAHAAV?$CStringT@DV?$StrTraitMFC_DLL@DV?$ChTraitsCRT@D@ATL@@@@@ATL@@@Z$3
__ehfuncinfo$?GetDecimalDownCount@CRateDrawer@@ABE_NPAVCPacket@@AAHAAV?$CStringT@DV?$StrTraitMFC_DLL@DV?$ChTraitsCRT@D@ATL@@@@@ATL@@@Z DD 019930522H
	DD	03H
	DD	FLAT:__unwindtable$?GetDecimalDownCount@CRateDrawer@@ABE_NPAVCPacket@@AAHAAV?$CStringT@DV?$StrTraitMFC_DLL@DV?$ChTraitsCRT@D@ATL@@@@@ATL@@@Z
	DD	2 DUP(00H)
	DD	2 DUP(00H)
	DD	00H
	DD	01H
xdata$x	ENDS
;	COMDAT xdata$x
xdata$x	SEGMENT
__unwindtable$?GetDecimalDownCountAndDataType@CRateDrawer@@IBE_NPAVCPacket@@AAVCPrices@@@Z DD 0ffffffffH
	DD	FLAT:__unwindfunclet$?GetDecimalDownCountAndDataType@CRateDrawer@@IBE_NPAVCPacket@@AAVCPrices@@@Z$0
	DD	00H
	DD	FLAT:__unwindfunclet$?GetDecimalDownCountAndDataType@CRateDrawer@@IBE_NPAVCPacket@@AAVCPrices@@@Z$1
	DD	01H
	DD	FLAT:__unwindfunclet$?GetDecimalDownCountAndDataType@CRateDrawer@@IBE_NPAVCPacket@@AAVCPrices@@@Z$2
	DD	01H
	DD	FLAT:__unwindfunclet$?GetDecimalDownCountAndDataType@CRateDrawer@@IBE_NPAVCPacket@@AAVCPrices@@@Z$4
__ehfuncinfo$?GetDecimalDownCountAndDataType@CRateDrawer@@IBE_NPAVCPacket@@AAVCPrices@@@Z DD 019930522H
	DD	04H
	DD	FLAT:__unwindtable$?GetDecimalDownCountAndDataType@CRateDrawer@@IBE_NPAVCPacket@@AAVCPrices@@@Z
	DD	2 DUP(00H)
	DD	2 DUP(00H)
	DD	00H
	DD	01H
xdata$x	ENDS
;	COMDAT xdata$x
xdata$x	SEGMENT
__unwindtable$?GetPrices@CRateDrawer@@IBE_NPAVCPacket@@HAAVCPrices@@@Z DD 0ffffffffH
	DD	FLAT:__unwindfunclet$?GetPrices@CRateDrawer@@IBE_NPAVCPacket@@HAAVCPrices@@@Z$0
__ehfuncinfo$?GetPrices@CRateDrawer@@IBE_NPAVCPacket@@HAAVCPrices@@@Z DD 019930522H
	DD	01H
	DD	FLAT:__unwindtable$?GetPrices@CRateDrawer@@IBE_NPAVCPacket@@HAAVCPrices@@@Z
	DD	2 DUP(00H)
	DD	2 DUP(00H)
	DD	00H
	DD	01H
xdata$x	ENDS
;	COMDAT xdata$x
xdata$x	SEGMENT
__unwindtable$?GetRateText@CRateDrawer@@IBE?AV?$CStringT@DV?$StrTraitMFC_DLL@DV?$ChTraitsCRT@D@ATL@@@@@ATL@@ABN0@Z DD 0ffffffffH
	DD	FLAT:__unwindfunclet$?GetRateText@CRateDrawer@@IBE?AV?$CStringT@DV?$StrTraitMFC_DLL@DV?$ChTraitsCRT@D@ATL@@@@@ATL@@ABN0@Z$0
	DD	00H
	DD	FLAT:__unwindfunclet$?GetRateText@CRateDrawer@@IBE?AV?$CStringT@DV?$StrTraitMFC_DLL@DV?$ChTraitsCRT@D@ATL@@@@@ATL@@ABN0@Z$2
__ehfuncinfo$?GetRateText@CRateDrawer@@IBE?AV?$CStringT@DV?$StrTraitMFC_DLL@DV?$ChTraitsCRT@D@ATL@@@@@ATL@@ABN0@Z DD 019930522H
	DD	02H
	DD	FLAT:__unwindtable$?GetRateText@CRateDrawer@@IBE?AV?$CStringT@DV?$StrTraitMFC_DLL@DV?$ChTraitsCRT@D@ATL@@@@@ATL@@ABN0@Z
	DD	2 DUP(00H)
	DD	2 DUP(00H)
	DD	00H
	DD	01H
xdata$x	ENDS
;	COMDAT xdata$x
xdata$x	SEGMENT
__unwindtable$?DrawRegion@CRateDrawer@@IAEXPAVCDC@@ABVCRect@@ABK2@Z DD 0ffffffffH
	DD	FLAT:__unwindfunclet$?DrawRegion@CRateDrawer@@IAEXPAVCDC@@ABVCRect@@ABK2@Z$0
	DD	00H
	DD	FLAT:__unwindfunclet$?DrawRegion@CRateDrawer@@IAEXPAVCDC@@ABVCRect@@ABK2@Z$1
__ehfuncinfo$?DrawRegion@CRateDrawer@@IAEXPAVCDC@@ABVCRect@@ABK2@Z DD 019930522H
	DD	02H
	DD	FLAT:__unwindtable$?DrawRegion@CRateDrawer@@IAEXPAVCDC@@ABVCRect@@ABK2@Z
	DD	2 DUP(00H)
	DD	2 DUP(00H)
	DD	00H
	DD	01H
xdata$x	ENDS
;	COMDAT xdata$x
xdata$x	SEGMENT
__unwindtable$??0CTextData@@QAE@ABV?$CStringT@DV?$StrTraitMFC_DLL@DV?$ChTraitsCRT@D@ATL@@@@@ATL@@0ABK@Z DD 0ffffffffH
	DD	FLAT:__unwindfunclet$??0CTextData@@QAE@ABV?$CStringT@DV?$StrTraitMFC_DLL@DV?$ChTraitsCRT@D@ATL@@@@@ATL@@0ABK@Z$0
__ehfuncinfo$??0CTextData@@QAE@ABV?$CStringT@DV?$StrTraitMFC_DLL@DV?$ChTraitsCRT@D@ATL@@@@@ATL@@0ABK@Z DD 019930522H
	DD	01H
	DD	FLAT:__unwindtable$??0CTextData@@QAE@ABV?$CStringT@DV?$StrTraitMFC_DLL@DV?$ChTraitsCRT@D@ATL@@@@@ATL@@0ABK@Z
	DD	2 DUP(00H)
	DD	2 DUP(00H)
	DD	00H
	DD	01H
xdata$x	ENDS
;	COMDAT xdata$x
xdata$x	SEGMENT
__unwindtable$??4CTextData@@QAEAAV0@ABV0@@Z DD 0ffffffffH
	DD	FLAT:__unwindfunclet$??4CTextData@@QAEAAV0@ABV0@@Z$0
	DD	0ffffffffH
	DD	FLAT:__unwindfunclet$??4CTextData@@QAEAAV0@ABV0@@Z$1
__ehfuncinfo$??4CTextData@@QAEAAV0@ABV0@@Z DD 019930522H
	DD	02H
	DD	FLAT:__unwindtable$??4CTextData@@QAEAAV0@ABV0@@Z
	DD	2 DUP(00H)
	DD	2 DUP(00H)
	DD	00H
	DD	01H
xdata$x	ENDS
;	COMDAT xdata$x
xdata$x	SEGMENT
__catchsym$??1CGdiObject@@UAE@XZ$3 DD 00H
	DD	FLAT:??_R0PAVCException@@@8
	DD	0fffffde4H
	DD	FLAT:__catch$??1CGdiObject@@UAE@XZ$0
__tryblocktable$??1CGdiObject@@UAE@XZ DD 00H
	DD	00H
	DD	02H
	DD	01H
	DD	FLAT:__catchsym$??1CGdiObject@@UAE@XZ$3
__unwindtable$??1CGdiObject@@UAE@XZ DD 0ffffffffH
	DD	00H
	DD	0ffffffffH
	DD	00H
	DD	01H
	DD	FLAT:__unwindfunclet$??1CGdiObject@@UAE@XZ$2
__ehfuncinfo$??1CGdiObject@@UAE@XZ DD 019930522H
	DD	03H
	DD	FLAT:__unwindtable$??1CGdiObject@@UAE@XZ
	DD	01H
	DD	FLAT:__tryblocktable$??1CGdiObject@@UAE@XZ
	DD	2 DUP(00H)
	DD	00H
	DD	05H
xdata$x	ENDS
;	COMDAT xdata$x
xdata$x	SEGMENT
__unwindtable$??HATL@@YA?AV?$CStringT@DV?$StrTraitMFC_DLL@DV?$ChTraitsCRT@D@ATL@@@@@0@DABV10@@Z DD 0ffffffffH
	DD	FLAT:__unwindfunclet$??HATL@@YA?AV?$CStringT@DV?$StrTraitMFC_DLL@DV?$ChTraitsCRT@D@ATL@@@@@0@DABV10@@Z$0
__ehfuncinfo$??HATL@@YA?AV?$CStringT@DV?$StrTraitMFC_DLL@DV?$ChTraitsCRT@D@ATL@@@@@0@DABV10@@Z DD 019930522H
	DD	01H
	DD	FLAT:__unwindtable$??HATL@@YA?AV?$CStringT@DV?$StrTraitMFC_DLL@DV?$ChTraitsCRT@D@ATL@@@@@0@DABV10@@Z
	DD	2 DUP(00H)
	DD	2 DUP(00H)
	DD	00H
	DD	01H
xdata$x	ENDS
;	COMDAT xdata$x
xdata$x	SEGMENT
__unwindtable$??HATL@@YA?AV?$CStringT@DV?$StrTraitMFC_DLL@DV?$ChTraitsCRT@D@ATL@@@@@0@ABV10@D@Z DD 0ffffffffH
	DD	FLAT:__unwindfunclet$??HATL@@YA?AV?$CStringT@DV?$StrTraitMFC_DLL@DV?$ChTraitsCRT@D@ATL@@@@@0@ABV10@D@Z$0
__ehfuncinfo$??HATL@@YA?AV?$CStringT@DV?$StrTraitMFC_DLL@DV?$ChTraitsCRT@D@ATL@@@@@0@ABV10@D@Z DD 019930522H
	DD	01H
	DD	FLAT:__unwindtable$??HATL@@YA?AV?$CStringT@DV?$StrTraitMFC_DLL@DV?$ChTraitsCRT@D@ATL@@@@@0@ABV10@D@Z
	DD	2 DUP(00H)
	DD	2 DUP(00H)
	DD	00H
	DD	01H
xdata$x	ENDS
;	COMDAT xdata$x
xdata$x	SEGMENT
__unwindtable$??HATL@@YA?AV?$CStringT@DV?$StrTraitMFC_DLL@DV?$ChTraitsCRT@D@ATL@@@@@0@PBDABV10@@Z DD 0ffffffffH
	DD	FLAT:__unwindfunclet$??HATL@@YA?AV?$CStringT@DV?$StrTraitMFC_DLL@DV?$ChTraitsCRT@D@ATL@@@@@0@PBDABV10@@Z$0
__ehfuncinfo$??HATL@@YA?AV?$CStringT@DV?$StrTraitMFC_DLL@DV?$ChTraitsCRT@D@ATL@@@@@0@PBDABV10@@Z DD 019930522H
	DD	01H
	DD	FLAT:__unwindtable$??HATL@@YA?AV?$CStringT@DV?$StrTraitMFC_DLL@DV?$ChTraitsCRT@D@ATL@@@@@0@PBDABV10@@Z
	DD	2 DUP(00H)
	DD	2 DUP(00H)
	DD	00H
	DD	01H
xdata$x	ENDS
;	COMDAT xdata$x
xdata$x	SEGMENT
__unwindtable$??HATL@@YA?AV?$CStringT@DV?$StrTraitMFC_DLL@DV?$ChTraitsCRT@D@ATL@@@@@0@ABV10@PBD@Z DD 0ffffffffH
	DD	FLAT:__unwindfunclet$??HATL@@YA?AV?$CStringT@DV?$StrTraitMFC_DLL@DV?$ChTraitsCRT@D@ATL@@@@@0@ABV10@PBD@Z$0
__ehfuncinfo$??HATL@@YA?AV?$CStringT@DV?$StrTraitMFC_DLL@DV?$ChTraitsCRT@D@ATL@@@@@0@ABV10@PBD@Z DD 019930522H
	DD	01H
	DD	FLAT:__unwindtable$??HATL@@YA?AV?$CStringT@DV?$StrTraitMFC_DLL@DV?$ChTraitsCRT@D@ATL@@@@@0@ABV10@PBD@Z
	DD	2 DUP(00H)
	DD	2 DUP(00H)
	DD	00H
	DD	01H
xdata$x	ENDS
;	COMDAT xdata$x
xdata$x	SEGMENT
__unwindtable$??HATL@@YA?AV?$CStringT@DV?$StrTraitMFC_DLL@DV?$ChTraitsCRT@D@ATL@@@@@0@ABV10@0@Z DD 0ffffffffH
	DD	FLAT:__unwindfunclet$??HATL@@YA?AV?$CStringT@DV?$StrTraitMFC_DLL@DV?$ChTraitsCRT@D@ATL@@@@@0@ABV10@0@Z$0
__ehfuncinfo$??HATL@@YA?AV?$CStringT@DV?$StrTraitMFC_DLL@DV?$ChTraitsCRT@D@ATL@@@@@0@ABV10@0@Z DD 019930522H
	DD	01H
	DD	FLAT:__unwindtable$??HATL@@YA?AV?$CStringT@DV?$StrTraitMFC_DLL@DV?$ChTraitsCRT@D@ATL@@@@@0@ABV10@0@Z
	DD	2 DUP(00H)
	DD	2 DUP(00H)
	DD	00H
	DD	01H
xdata$x	ENDS
; Function compile flags: /Ogtp
; File C:\Program Files (x86)\Microsoft Visual Studio\2019\Community\VC\Tools\MSVC\14.29.30133\atlmfc\include\afxtempl.h
; File C:\Program Files (x86)\Microsoft Visual Studio\2019\Community\VC\Tools\MSVC\14.29.30133\atlmfc\include\afx.inl
; File C:\Program Files (x86)\Microsoft Visual Studio\2019\Community\VC\Tools\MSVC\14.29.30133\atlmfc\include\afxtempl.h
; File C:\Program Files (x86)\Microsoft Visual Studio\2019\Community\VC\Tools\MSVC\14.29.30133\atlmfc\include\afx.inl
; File C:\Program Files (x86)\Microsoft Visual Studio\2019\Community\VC\Tools\MSVC\14.29.30133\atlmfc\include\afxtempl.h
; File C:\Program Files (x86)\Microsoft Visual Studio\2019\Community\VC\Tools\MSVC\14.29.30133\atlmfc\include\afx.inl
; File C:\Program Files (x86)\Microsoft Visual Studio\2019\Community\VC\Tools\MSVC\14.29.30133\atlmfc\include\afxtempl.h
;	COMDAT ??$SerializeElements@VCTextData@@@@YGXAAVCArchive@@PAVCTextData@@H@Z
_TEXT	SEGMENT
_ar$ = 8						; size = 4
_pElements$ = 12					; size = 4
_nCount$ = 16						; size = 4
??$SerializeElements@VCTextData@@@@YGXAAVCArchive@@PAVCTextData@@H@Z PROC ; SerializeElements<CTextData>, COMDAT

; 67   : {

  00000	55		 push	 ebp
  00001	8b ec		 mov	 ebp, esp

; 68   : 	ENSURE(nCount == 0 || pElements != NULL);

  00003	8b 4d 0c	 mov	 ecx, DWORD PTR _pElements$[ebp]
  00006	53		 push	 ebx
  00007	56		 push	 esi
  00008	8b 75 10	 mov	 esi, DWORD PTR _nCount$[ebp]
  0000b	57		 push	 edi
  0000c	85 f6		 test	 esi, esi
  0000e	74 08		 je	 SHORT $LN2@SerializeE
  00010	85 c9		 test	 ecx, ecx
  00012	0f 84 87 00 00
	00		 je	 $LN34@SerializeE
$LN2@SerializeE:
; File C:\Program Files (x86)\Microsoft Visual Studio\2019\Community\VC\Tools\MSVC\14.29.30133\atlmfc\include\afx.inl

; 212  : 	{ return (m_nMode & CArchive::load) == 0; }

  00018	8b 55 08	 mov	 edx, DWORD PTR _ar$[ebp]
  0001b	8b 42 18	 mov	 eax, DWORD PTR [edx+24]
  0001e	f7 d0		 not	 eax
  00020	a8 01		 test	 al, 1
; File C:\Program Files (x86)\Microsoft Visual Studio\2019\Community\VC\Tools\MSVC\14.29.30133\atlmfc\include\afxtempl.h

; 73   : 	if (ar.IsStoring())

  00022	74 3b		 je	 SHORT $LN10@SerializeE

; 74   : 	{
; 75   : 		TYPE* pData;
; 76   : 		UINT_PTR nElementsLeft;
; 77   : 
; 78   : 		nElementsLeft = nCount;
; 79   : 		pData = pElements;
; 80   : 		while( nElementsLeft > 0 )

  00024	85 f6		 test	 esi, esi
  00026	74 30		 je	 SHORT $LN8@SerializeE
  00028	0f 1f 84 00 00
	00 00 00	 npad	 8
$LL5@SerializeE:

; 81   : 		{
; 82   : 			UINT nElementsToWrite;
; 83   : 
; 84   : 			nElementsToWrite = UINT(__min(nElementsLeft, INT_MAX/sizeof(TYPE)));

  00030	bb aa aa aa 0a	 mov	 ebx, 178956970		; 0aaaaaaaH
  00035	3b f3		 cmp	 esi, ebx
  00037	0f 42 de	 cmovb	 ebx, esi

; 85   : 			ar.Write(pData, nElementsToWrite*sizeof(TYPE));

  0003a	8d 3c 5b	 lea	 edi, DWORD PTR [ebx+ebx*2]
  0003d	c1 e7 02	 shl	 edi, 2
  00040	57		 push	 edi
  00041	51		 push	 ecx
  00042	8b ca		 mov	 ecx, edx
  00044	e8 00 00 00 00	 call	 ?Write@CArchive@@QAEXPBXI@Z ; CArchive::Write

; 86   : 			nElementsLeft -= nElementsToWrite;
; 87   : 			pData += nElementsToWrite;

  00049	8b 4d 0c	 mov	 ecx, DWORD PTR _pElements$[ebp]
  0004c	8b 55 08	 mov	 edx, DWORD PTR _ar$[ebp]
  0004f	03 cf		 add	 ecx, edi
  00051	89 4d 0c	 mov	 DWORD PTR _pElements$[ebp], ecx
  00054	2b f3		 sub	 esi, ebx
  00056	75 d8		 jne	 SHORT $LL5@SerializeE
$LN8@SerializeE:
  00058	5f		 pop	 edi

; 105  : 		}
; 106  : 	}
; 107  : }

  00059	5e		 pop	 esi
  0005a	5b		 pop	 ebx
  0005b	5d		 pop	 ebp
  0005c	c2 0c 00	 ret	 12			; 0000000cH
$LN10@SerializeE:

; 97   : 		while( nElementsLeft > 0 )

  0005f	85 f6		 test	 esi, esi
  00061	74 f5		 je	 SHORT $LN8@SerializeE
$LL7@SerializeE:

; 98   : 		{
; 99   : 			UINT nElementsToRead;
; 100  : 
; 101  : 			nElementsToRead = UINT(__min(nElementsLeft, INT_MAX/sizeof(TYPE)));

  00063	bf aa aa aa 0a	 mov	 edi, 178956970		; 0aaaaaaaH
  00068	3b f7		 cmp	 esi, edi
  0006a	0f 42 fe	 cmovb	 edi, esi

; 102  : 			ar.EnsureRead(pData, nElementsToRead*sizeof(TYPE));

  0006d	8d 1c 7f	 lea	 ebx, DWORD PTR [edi+edi*2]
  00070	c1 e3 02	 shl	 ebx, 2
; File C:\Program Files (x86)\Microsoft Visual Studio\2019\Community\VC\Tools\MSVC\14.29.30133\atlmfc\include\afx.inl

; 399  : 	UINT nRead=Read(lpBuf, nCount);

  00073	53		 push	 ebx
  00074	51		 push	 ecx
  00075	8b ca		 mov	 ecx, edx
  00077	e8 00 00 00 00	 call	 ?Read@CArchive@@QAEIPAXI@Z ; CArchive::Read

; 400  : 	if(nRead!=nCount)

  0007c	3b c3		 cmp	 eax, ebx
  0007e	75 16		 jne	 SHORT $LN23@SerializeE
; File C:\Program Files (x86)\Microsoft Visual Studio\2019\Community\VC\Tools\MSVC\14.29.30133\atlmfc\include\afxtempl.h

; 97   : 		while( nElementsLeft > 0 )

  00080	8b 4d 0c	 mov	 ecx, DWORD PTR _pElements$[ebp]
  00083	8b 55 08	 mov	 edx, DWORD PTR _ar$[ebp]

; 103  : 			nElementsLeft -= nElementsToRead;
; 104  : 			pData += nElementsToRead;

  00086	03 cb		 add	 ecx, ebx
  00088	89 4d 0c	 mov	 DWORD PTR _pElements$[ebp], ecx
  0008b	2b f7		 sub	 esi, edi
  0008d	75 d4		 jne	 SHORT $LL7@SerializeE

; 105  : 		}
; 106  : 	}
; 107  : }

  0008f	5f		 pop	 edi
  00090	5e		 pop	 esi
  00091	5b		 pop	 ebx
  00092	5d		 pop	 ebp
  00093	c2 0c 00	 ret	 12			; 0000000cH
$LN23@SerializeE:
; File C:\Program Files (x86)\Microsoft Visual Studio\2019\Community\VC\Tools\MSVC\14.29.30133\atlmfc\include\afx.inl

; 402  : 		AfxThrowArchiveException(CArchiveException::endOfFile);

  00096	6a 00		 push	 0
  00098	6a 03		 push	 3
  0009a	e8 00 00 00 00	 call	 ?AfxThrowArchiveException@@YGXHPBD@Z ; AfxThrowArchiveException
$LN34@SerializeE:
; File C:\Program Files (x86)\Microsoft Visual Studio\2019\Community\VC\Tools\MSVC\14.29.30133\atlmfc\include\afxtempl.h

; 68   : 	ENSURE(nCount == 0 || pElements != NULL);

  0009f	e8 00 00 00 00	 call	 ?AfxThrowInvalidArgException@@YGXXZ ; AfxThrowInvalidArgException
$LN32@SerializeE:
  000a4	cc		 int	 3
??$SerializeElements@VCTextData@@@@YGXAAVCArchive@@PAVCTextData@@H@Z ENDP ; SerializeElements<CTextData>
_TEXT	ENDS
; Function compile flags: /Ogtp
; File C:\Program Files (x86)\Microsoft Visual Studio\2019\Community\VC\Tools\MSVC\14.29.30133\atlmfc\include\afxtempl.h
; File C:\Program Files (x86)\Microsoft Visual Studio\2019\Community\VC\Tools\MSVC\14.29.30133\atlmfc\include\afx.inl
;	COMDAT ??_G?$CList@VCTextData@@AAV1@@@UAEPAXI@Z
_TEXT	SEGMENT
__$EHRec$ = -12						; size = 12
___flags$ = 8						; size = 4
??_G?$CList@VCTextData@@AAV1@@@UAEPAXI@Z PROC		; CList<CTextData,CTextData &>::`scalar deleting destructor', COMDAT
; _this$ = ecx
  00000	55		 push	 ebp
  00001	8b ec		 mov	 ebp, esp
  00003	6a ff		 push	 -1
  00005	68 00 00 00 00	 push	 __ehhandler$??_G?$CList@VCTextData@@AAV1@@@UAEPAXI@Z
  0000a	64 a1 00 00 00
	00		 mov	 eax, DWORD PTR fs:0
  00010	50		 push	 eax
  00011	56		 push	 esi
  00012	a1 00 00 00 00	 mov	 eax, DWORD PTR ___security_cookie
  00017	33 c5		 xor	 eax, ebp
  00019	50		 push	 eax
  0001a	8d 45 f4	 lea	 eax, DWORD PTR __$EHRec$[ebp]
  0001d	64 a3 00 00 00
	00		 mov	 DWORD PTR fs:0, eax
  00023	8b f1		 mov	 esi, ecx
; File C:\Program Files (x86)\Microsoft Visual Studio\2019\Community\VC\Tools\MSVC\14.29.30133\atlmfc\include\afxtempl.h

; 878  : {

  00025	c7 45 fc 00 00
	00 00		 mov	 DWORD PTR __$EHRec$[ebp+8], 0
  0002c	c7 06 00 00 00
	00		 mov	 DWORD PTR [esi], OFFSET ??_7?$CList@VCTextData@@AAV1@@@6B@

; 879  : 	RemoveAll();

  00032	e8 00 00 00 00	 call	 ?RemoveAll@?$CList@VCTextData@@AAV1@@@QAEXXZ ; CList<CTextData,CTextData &>::RemoveAll
  00037	8b 45 08	 mov	 eax, DWORD PTR ___flags$[ebp]
  0003a	a8 01		 test	 al, 1
  0003c	74 2c		 je	 SHORT $LN12@scalar
  0003e	a8 04		 test	 al, 4
  00040	75 1d		 jne	 SHORT $LN3@scalar
; File C:\Program Files (x86)\Microsoft Visual Studio\2019\Community\VC\Tools\MSVC\14.29.30133\atlmfc\include\afx.inl

; 112  : 	{ ::operator delete(p); }

  00042	56		 push	 esi
  00043	e8 00 00 00 00	 call	 ??3@YAXPAX@Z		; operator delete
  00048	83 c4 04	 add	 esp, 4
  0004b	8b c6		 mov	 eax, esi
  0004d	8b 4d f4	 mov	 ecx, DWORD PTR __$EHRec$[ebp]
  00050	64 89 0d 00 00
	00 00		 mov	 DWORD PTR fs:0, ecx
  00057	59		 pop	 ecx
  00058	5e		 pop	 esi
  00059	8b e5		 mov	 esp, ebp
  0005b	5d		 pop	 ebp
  0005c	c2 04 00	 ret	 4
$LN3@scalar:
  0005f	6a 1c		 push	 28			; 0000001cH
  00061	56		 push	 esi
  00062	e8 00 00 00 00	 call	 ?__global_delete@@YAXPAXI@Z ; __global_delete
  00067	83 c4 08	 add	 esp, 8
$LN12@scalar:
  0006a	8b c6		 mov	 eax, esi
  0006c	8b 4d f4	 mov	 ecx, DWORD PTR __$EHRec$[ebp]
  0006f	64 89 0d 00 00
	00 00		 mov	 DWORD PTR fs:0, ecx
  00076	59		 pop	 ecx
  00077	5e		 pop	 esi
  00078	8b e5		 mov	 esp, ebp
  0007a	5d		 pop	 ebp
  0007b	c2 04 00	 ret	 4
  0007e	cc		 int	 3
  0007f	cc		 int	 3
  00080	cc		 int	 3
  00081	cc		 int	 3
  00082	cc		 int	 3
_TEXT	ENDS
;	COMDAT text$x
text$x	SEGMENT
__ehhandler$??_G?$CList@VCTextData@@AAV1@@@UAEPAXI@Z:
  00000	90		 npad	 1
  00001	90		 npad	 1
  00002	8b 54 24 08	 mov	 edx, DWORD PTR [esp+8]
  00006	8d 42 0c	 lea	 eax, DWORD PTR [edx+12]
  00009	8b 4a f8	 mov	 ecx, DWORD PTR [edx-8]
  0000c	33 c8		 xor	 ecx, eax
  0000e	e8 00 00 00 00	 call	 @__security_check_cookie@4
  00013	b8 00 00 00 00	 mov	 eax, OFFSET __ehfuncinfo$??_G?$CList@VCTextData@@AAV1@@@UAEPAXI@Z
  00018	e9 00 00 00 00	 jmp	 ___CxxFrameHandler3
text$x	ENDS
??_G?$CList@VCTextData@@AAV1@@@UAEPAXI@Z ENDP		; CList<CTextData,CTextData &>::`scalar deleting destructor'
; Function compile flags: /Ogtp
; File C:\Program Files (x86)\Microsoft Visual Studio\2019\Community\VC\Tools\MSVC\14.29.30133\atlmfc\include\afxtempl.h
; File C:\Program Files (x86)\Microsoft Visual Studio\2019\Community\VC\Tools\MSVC\14.29.30133\atlmfc\include\afx.inl
; File C:\Program Files (x86)\Microsoft Visual Studio\2019\Community\VC\Tools\MSVC\14.29.30133\atlmfc\include\afxtempl.h
; File C:\Program Files (x86)\Microsoft Visual Studio\2019\Community\VC\Tools\MSVC\14.29.30133\atlmfc\include\afx.inl
; File C:\Program Files (x86)\Microsoft Visual Studio\2019\Community\VC\Tools\MSVC\14.29.30133\atlmfc\include\afxtempl.h
; File C:\Program Files (x86)\Microsoft Visual Studio\2019\Community\VC\Tools\MSVC\14.29.30133\atlmfc\include\afx.inl
; File C:\Program Files (x86)\Microsoft Visual Studio\2019\Community\VC\Tools\MSVC\14.29.30133\atlmfc\include\afxtempl.h
; File C:\Program Files (x86)\Microsoft Visual Studio\2019\Community\VC\Tools\MSVC\14.29.30133\atlmfc\include\afx.inl
; File C:\Program Files (x86)\Microsoft Visual Studio\2019\Community\VC\Tools\MSVC\14.29.30133\atlmfc\include\afxtempl.h
; File C:\Program Files (x86)\Microsoft Visual Studio\2019\Community\VC\Tools\MSVC\14.29.30133\atlmfc\include\afx.inl
; File C:\Program Files (x86)\Microsoft Visual Studio\2019\Community\VC\Tools\MSVC\14.29.30133\atlmfc\include\afxtempl.h
; File C:\Program Files (x86)\Microsoft Visual Studio\2019\Community\VC\Tools\MSVC\14.29.30133\atlmfc\include\afx.inl
; File C:\Program Files (x86)\Microsoft Visual Studio\2019\Community\VC\Tools\MSVC\14.29.30133\atlmfc\include\afxtempl.h
; File C:\Program Files (x86)\Microsoft Visual Studio\2019\Community\VC\Tools\MSVC\14.29.30133\atlmfc\include\afx.inl
; File C:\Program Files (x86)\Microsoft Visual Studio\2019\Community\VC\Tools\MSVC\14.29.30133\atlmfc\include\afxtempl.h
;	COMDAT ?Serialize@?$CList@VCTextData@@AAV1@@@UAEXAAVCArchive@@@Z
_TEXT	SEGMENT
_newData$2 = -36					; size = 12
_nNewCount$1$ = -24					; size = 4
_pData$1$ = -20						; size = 4
_pData$1$ = -20						; size = 4
_pNode$1$ = -20						; size = 4
_nCount$1$ = -16					; size = 4
_nElementsLeft$1$ = -16					; size = 4
_this$1$ = -16						; size = 4
__$EHRec$ = -12						; size = 12
_ar$ = 8						; size = 4
?Serialize@?$CList@VCTextData@@AAV1@@@UAEXAAVCArchive@@@Z PROC ; CList<CTextData,CTextData &>::Serialize, COMDAT
; _this$ = ecx

; 1169 : {

  00000	55		 push	 ebp
  00001	8b ec		 mov	 ebp, esp
  00003	6a ff		 push	 -1
  00005	68 00 00 00 00	 push	 __ehhandler$?Serialize@?$CList@VCTextData@@AAV1@@@UAEXAAVCArchive@@@Z
  0000a	64 a1 00 00 00
	00		 mov	 eax, DWORD PTR fs:0
  00010	50		 push	 eax
  00011	83 ec 18	 sub	 esp, 24			; 00000018H
  00014	53		 push	 ebx
  00015	56		 push	 esi
  00016	57		 push	 edi
  00017	a1 00 00 00 00	 mov	 eax, DWORD PTR ___security_cookie
  0001c	33 c5		 xor	 eax, ebp
  0001e	50		 push	 eax
  0001f	8d 45 f4	 lea	 eax, DWORD PTR __$EHRec$[ebp]
  00022	64 a3 00 00 00
	00		 mov	 DWORD PTR fs:0, eax
  00028	8b d9		 mov	 ebx, ecx
  0002a	89 5d f0	 mov	 DWORD PTR _this$1$[ebp], ebx
; File C:\Program Files (x86)\Microsoft Visual Studio\2019\Community\VC\Tools\MSVC\14.29.30133\atlmfc\include\afx.inl

; 212  : 	{ return (m_nMode & CArchive::load) == 0; }

  0002d	8b 4d 08	 mov	 ecx, DWORD PTR _ar$[ebp]
  00030	8b 41 18	 mov	 eax, DWORD PTR [ecx+24]
  00033	f7 d0		 not	 eax
  00035	a8 01		 test	 al, 1
; File C:\Program Files (x86)\Microsoft Visual Studio\2019\Community\VC\Tools\MSVC\14.29.30133\atlmfc\include\afxtempl.h

; 1174 : 	if (ar.IsStoring())

  00037	0f 84 b6 00 00
	00		 je	 $LN7@Serialize

; 1175 : 	{
; 1176 : 		ar.WriteCount(m_nCount);

  0003d	ff 73 0c	 push	 DWORD PTR [ebx+12]
  00040	e8 00 00 00 00	 call	 ?WriteCount@CArchive@@QAEXK@Z ; CArchive::WriteCount

; 1177 : 		for (CNode* pNode = m_pNodeHead; pNode != NULL; pNode = pNode->pNext)

  00045	8b 43 04	 mov	 eax, DWORD PTR [ebx+4]
  00048	89 45 ec	 mov	 DWORD PTR _pNode$1$[ebp], eax
  0004b	85 c0		 test	 eax, eax
  0004d	0f 84 77 01 00
	00		 je	 $LN69@Serialize
$LL4@Serialize:

; 1178 : 		{
; 1179 : 			ASSERT(AfxIsValidAddress(pNode, sizeof(CNode)));
; 1180 : 			TYPE* pData;
; 1181 : 			/*
; 1182 : 			 * in some cases the & operator might be overloaded, and we cannot use it to obtain
; 1183 : 			 * the address of a given object.  We then use the following trick to get the address
; 1184 : 			 */
; 1185 : 			pData = reinterpret_cast< TYPE* >( &reinterpret_cast< int& >( static_cast< TYPE& >( pNode->data ) ) );

  00053	8d 70 08	 lea	 esi, DWORD PTR [eax+8]

; 68   : 	ENSURE(nCount == 0 || pElements != NULL);

  00056	85 f6		 test	 esi, esi
  00058	0f 84 89 01 00
	00		 je	 $LN61@Serialize
; File C:\Program Files (x86)\Microsoft Visual Studio\2019\Community\VC\Tools\MSVC\14.29.30133\atlmfc\include\afx.inl

; 212  : 	{ return (m_nMode & CArchive::load) == 0; }

  0005e	8b 4d 08	 mov	 ecx, DWORD PTR _ar$[ebp]
  00061	8b 41 18	 mov	 eax, DWORD PTR [ecx+24]
  00064	f7 d0		 not	 eax
  00066	a8 01		 test	 al, 1
; File C:\Program Files (x86)\Microsoft Visual Studio\2019\Community\VC\Tools\MSVC\14.29.30133\atlmfc\include\afxtempl.h

; 73   : 	if (ar.IsStoring())

  00068	74 32		 je	 SHORT $LN22@Serialize

; 74   : 	{
; 75   : 		TYPE* pData;
; 76   : 		UINT_PTR nElementsLeft;
; 77   : 
; 78   : 		nElementsLeft = nCount;

  0006a	b8 01 00 00 00	 mov	 eax, 1
  0006f	89 45 f0	 mov	 DWORD PTR _nElementsLeft$1$[ebp], eax
$LL17@Serialize:

; 79   : 		pData = pElements;
; 80   : 		while( nElementsLeft > 0 )
; 81   : 		{
; 82   : 			UINT nElementsToWrite;
; 83   : 
; 84   : 			nElementsToWrite = UINT(__min(nElementsLeft, INT_MAX/sizeof(TYPE)));

  00072	bb aa aa aa 0a	 mov	 ebx, 178956970		; 0aaaaaaaH
  00077	3b c3		 cmp	 eax, ebx
  00079	0f 42 d8	 cmovb	 ebx, eax

; 85   : 			ar.Write(pData, nElementsToWrite*sizeof(TYPE));

  0007c	8d 3c 5b	 lea	 edi, DWORD PTR [ebx+ebx*2]
  0007f	c1 e7 02	 shl	 edi, 2
  00082	57		 push	 edi
  00083	56		 push	 esi
  00084	e8 00 00 00 00	 call	 ?Write@CArchive@@QAEXPBXI@Z ; CArchive::Write

; 86   : 			nElementsLeft -= nElementsToWrite;

  00089	8b 45 f0	 mov	 eax, DWORD PTR _nElementsLeft$1$[ebp]

; 87   : 			pData += nElementsToWrite;

  0008c	03 f7		 add	 esi, edi
  0008e	8b 4d 08	 mov	 ecx, DWORD PTR _ar$[ebp]
  00091	2b c3		 sub	 eax, ebx
  00093	89 45 f0	 mov	 DWORD PTR _nElementsLeft$1$[ebp], eax
  00096	85 c0		 test	 eax, eax
  00098	75 d8		 jne	 SHORT $LL17@Serialize

; 88   : 		}
; 89   : 	}

  0009a	eb 33		 jmp	 SHORT $LN2@Serialize
$LN22@Serialize:

; 90   : 	else
; 91   : 	{
; 92   : 		TYPE* pData;
; 93   : 		UINT_PTR nElementsLeft;
; 94   : 
; 95   : 		nElementsLeft = nCount;

  0009c	bf 01 00 00 00	 mov	 edi, 1
$LL19@Serialize:

; 98   : 		{
; 99   : 			UINT nElementsToRead;
; 100  : 
; 101  : 			nElementsToRead = UINT(__min(nElementsLeft, INT_MAX/sizeof(TYPE)));

  000a1	bb aa aa aa 0a	 mov	 ebx, 178956970		; 0aaaaaaaH
  000a6	3b fb		 cmp	 edi, ebx
  000a8	0f 42 df	 cmovb	 ebx, edi

; 102  : 			ar.EnsureRead(pData, nElementsToRead*sizeof(TYPE));

  000ab	8d 04 5b	 lea	 eax, DWORD PTR [ebx+ebx*2]
  000ae	c1 e0 02	 shl	 eax, 2
; File C:\Program Files (x86)\Microsoft Visual Studio\2019\Community\VC\Tools\MSVC\14.29.30133\atlmfc\include\afx.inl

; 399  : 	UINT nRead=Read(lpBuf, nCount);

  000b1	50		 push	 eax
  000b2	56		 push	 esi
; File C:\Program Files (x86)\Microsoft Visual Studio\2019\Community\VC\Tools\MSVC\14.29.30133\atlmfc\include\afxtempl.h

; 102  : 			ar.EnsureRead(pData, nElementsToRead*sizeof(TYPE));

  000b3	89 45 f0	 mov	 DWORD PTR _nCount$1$[ebp], eax
; File C:\Program Files (x86)\Microsoft Visual Studio\2019\Community\VC\Tools\MSVC\14.29.30133\atlmfc\include\afx.inl

; 399  : 	UINT nRead=Read(lpBuf, nCount);

  000b6	e8 00 00 00 00	 call	 ?Read@CArchive@@QAEIPAXI@Z ; CArchive::Read

; 400  : 	if(nRead!=nCount)

  000bb	8b 4d f0	 mov	 ecx, DWORD PTR _nCount$1$[ebp]
  000be	3b c1		 cmp	 eax, ecx
  000c0	0f 85 18 01 00
	00		 jne	 $LN60@Serialize
; File C:\Program Files (x86)\Microsoft Visual Studio\2019\Community\VC\Tools\MSVC\14.29.30133\atlmfc\include\afxtempl.h

; 97   : 		while( nElementsLeft > 0 )

  000c6	03 f1		 add	 esi, ecx
  000c8	8b 4d 08	 mov	 ecx, DWORD PTR _ar$[ebp]

; 103  : 			nElementsLeft -= nElementsToRead;

  000cb	2b fb		 sub	 edi, ebx
  000cd	75 d2		 jne	 SHORT $LL19@Serialize
$LN2@Serialize:

; 1177 : 		for (CNode* pNode = m_pNodeHead; pNode != NULL; pNode = pNode->pNext)

  000cf	8b 45 ec	 mov	 eax, DWORD PTR _pNode$1$[ebp]
  000d2	8b 00		 mov	 eax, DWORD PTR [eax]
  000d4	89 45 ec	 mov	 DWORD PTR _pNode$1$[ebp], eax
  000d7	85 c0		 test	 eax, eax
  000d9	0f 85 74 ff ff
	ff		 jne	 $LL4@Serialize

; 1198 : 	}
; 1199 : }

  000df	8b 4d f4	 mov	 ecx, DWORD PTR __$EHRec$[ebp]
  000e2	64 89 0d 00 00
	00 00		 mov	 DWORD PTR fs:0, ecx
  000e9	59		 pop	 ecx
  000ea	5f		 pop	 edi
  000eb	5e		 pop	 esi
  000ec	5b		 pop	 ebx
  000ed	8b e5		 mov	 esp, ebp
  000ef	5d		 pop	 ebp
  000f0	c2 04 00	 ret	 4
$LN7@Serialize:

; 1186 : 			SerializeElements<TYPE>(ar, pData, 1);
; 1187 : 		}
; 1188 : 	}
; 1189 : 	else
; 1190 : 	{
; 1191 : 		DWORD_PTR nNewCount = ar.ReadCount();

  000f3	e8 00 00 00 00	 call	 ?ReadCount@CArchive@@QAEKXZ ; CArchive::ReadCount

; 1192 : 		while (nNewCount--)

  000f8	85 c0		 test	 eax, eax
  000fa	0f 84 ca 00 00
	00		 je	 $LN69@Serialize
$LL5@Serialize:

; 1194 : 			TYPE newData[1];

  00100	68 00 00 00 00	 push	 OFFSET ??1CTextData@@QAE@XZ
  00105	68 00 00 00 00	 push	 OFFSET ??0CTextData@@QAE@XZ ; CTextData::CTextData
  0010a	48		 dec	 eax
  0010b	6a 01		 push	 1
  0010d	89 45 e8	 mov	 DWORD PTR _nNewCount$1$[ebp], eax
  00110	8d 45 dc	 lea	 eax, DWORD PTR _newData$2[ebp]
  00113	6a 0c		 push	 12			; 0000000cH
  00115	50		 push	 eax
  00116	e8 00 00 00 00	 call	 ??_L@YGXPAXIIP6EX0@Z1@Z
; File C:\Program Files (x86)\Microsoft Visual Studio\2019\Community\VC\Tools\MSVC\14.29.30133\atlmfc\include\afx.inl

; 212  : 	{ return (m_nMode & CArchive::load) == 0; }

  0011b	8b 4d 08	 mov	 ecx, DWORD PTR _ar$[ebp]
; File C:\Program Files (x86)\Microsoft Visual Studio\2019\Community\VC\Tools\MSVC\14.29.30133\atlmfc\include\afxtempl.h

; 1194 : 			TYPE newData[1];

  0011e	c7 45 fc 00 00
	00 00		 mov	 DWORD PTR __$EHRec$[ebp+8], 0
; File C:\Program Files (x86)\Microsoft Visual Studio\2019\Community\VC\Tools\MSVC\14.29.30133\atlmfc\include\afx.inl

; 212  : 	{ return (m_nMode & CArchive::load) == 0; }

  00125	8b 41 18	 mov	 eax, DWORD PTR [ecx+24]
  00128	f7 d0		 not	 eax
  0012a	a8 01		 test	 al, 1
; File C:\Program Files (x86)\Microsoft Visual Studio\2019\Community\VC\Tools\MSVC\14.29.30133\atlmfc\include\afxtempl.h

; 73   : 	if (ar.IsStoring())

  0012c	8d 45 dc	 lea	 eax, DWORD PTR _newData$2[ebp]
  0012f	89 45 ec	 mov	 DWORD PTR _pData$1$[ebp], eax
  00132	74 34		 je	 SHORT $LN43@Serialize

; 74   : 	{
; 75   : 		TYPE* pData;
; 76   : 		UINT_PTR nElementsLeft;
; 77   : 
; 78   : 		nElementsLeft = nCount;

  00134	bb 01 00 00 00	 mov	 ebx, 1
  00139	0f 1f 80 00 00
	00 00		 npad	 7
$LL38@Serialize:

; 79   : 		pData = pElements;
; 80   : 		while( nElementsLeft > 0 )
; 81   : 		{
; 82   : 			UINT nElementsToWrite;
; 83   : 
; 84   : 			nElementsToWrite = UINT(__min(nElementsLeft, INT_MAX/sizeof(TYPE)));

  00140	bf aa aa aa 0a	 mov	 edi, 178956970		; 0aaaaaaaH
  00145	3b df		 cmp	 ebx, edi
  00147	0f 42 fb	 cmovb	 edi, ebx

; 85   : 			ar.Write(pData, nElementsToWrite*sizeof(TYPE));

  0014a	8d 34 7f	 lea	 esi, DWORD PTR [edi+edi*2]
  0014d	c1 e6 02	 shl	 esi, 2
  00150	56		 push	 esi
  00151	50		 push	 eax
  00152	e8 00 00 00 00	 call	 ?Write@CArchive@@QAEXPBXI@Z ; CArchive::Write

; 87   : 			pData += nElementsToWrite;

  00157	8b 45 ec	 mov	 eax, DWORD PTR _pData$1$[ebp]
  0015a	8b 4d 08	 mov	 ecx, DWORD PTR _ar$[ebp]
  0015d	03 c6		 add	 eax, esi
  0015f	89 45 ec	 mov	 DWORD PTR _pData$1$[ebp], eax
  00162	2b df		 sub	 ebx, edi
  00164	75 da		 jne	 SHORT $LL38@Serialize

; 88   : 		}
; 89   : 	}

  00166	eb 32		 jmp	 SHORT $LN41@Serialize
$LN43@Serialize:

; 90   : 	else
; 91   : 	{
; 92   : 		TYPE* pData;
; 93   : 		UINT_PTR nElementsLeft;
; 94   : 
; 95   : 		nElementsLeft = nCount;

  00168	be 01 00 00 00	 mov	 esi, 1
  0016d	0f 1f 00	 npad	 3
$LL40@Serialize:

; 98   : 		{
; 99   : 			UINT nElementsToRead;
; 100  : 
; 101  : 			nElementsToRead = UINT(__min(nElementsLeft, INT_MAX/sizeof(TYPE)));

  00170	bf aa aa aa 0a	 mov	 edi, 178956970		; 0aaaaaaaH
  00175	3b f7		 cmp	 esi, edi
  00177	0f 42 fe	 cmovb	 edi, esi

; 102  : 			ar.EnsureRead(pData, nElementsToRead*sizeof(TYPE));

  0017a	8d 1c 7f	 lea	 ebx, DWORD PTR [edi+edi*2]
  0017d	c1 e3 02	 shl	 ebx, 2
; File C:\Program Files (x86)\Microsoft Visual Studio\2019\Community\VC\Tools\MSVC\14.29.30133\atlmfc\include\afx.inl

; 399  : 	UINT nRead=Read(lpBuf, nCount);

  00180	53		 push	 ebx
  00181	50		 push	 eax
  00182	e8 00 00 00 00	 call	 ?Read@CArchive@@QAEIPAXI@Z ; CArchive::Read

; 400  : 	if(nRead!=nCount)

  00187	3b c3		 cmp	 eax, ebx
  00189	75 53		 jne	 SHORT $LN60@Serialize
; File C:\Program Files (x86)\Microsoft Visual Studio\2019\Community\VC\Tools\MSVC\14.29.30133\atlmfc\include\afxtempl.h

; 97   : 		while( nElementsLeft > 0 )

  0018b	8b 45 ec	 mov	 eax, DWORD PTR _pData$1$[ebp]
  0018e	8b 4d 08	 mov	 ecx, DWORD PTR _ar$[ebp]

; 104  : 			pData += nElementsToRead;

  00191	03 c3		 add	 eax, ebx
  00193	89 45 ec	 mov	 DWORD PTR _pData$1$[ebp], eax
  00196	2b f7		 sub	 esi, edi
  00198	75 d6		 jne	 SHORT $LL40@Serialize
$LN41@Serialize:

; 1195 : 			SerializeElements<TYPE>(ar, newData, 1);
; 1196 : 			AddTail(newData[0]);

  0019a	8b 4d f0	 mov	 ecx, DWORD PTR _this$1$[ebp]
  0019d	8d 45 dc	 lea	 eax, DWORD PTR _newData$2[ebp]
  001a0	50		 push	 eax
  001a1	e8 00 00 00 00	 call	 ?AddTail@?$CList@VCTextData@@AAV1@@@QAEPAU__POSITION@@AAVCTextData@@@Z ; CList<CTextData,CTextData &>::AddTail

; 1197 : 		}

  001a6	68 00 00 00 00	 push	 OFFSET ??1CTextData@@QAE@XZ
  001ab	6a 01		 push	 1
  001ad	6a 0c		 push	 12			; 0000000cH
  001af	8d 45 dc	 lea	 eax, DWORD PTR _newData$2[ebp]
  001b2	c7 45 fc ff ff
	ff ff		 mov	 DWORD PTR __$EHRec$[ebp+8], -1
  001b9	50		 push	 eax
  001ba	e8 00 00 00 00	 call	 ??_M@YGXPAXIIP6EX0@Z@Z
  001bf	8b 45 e8	 mov	 eax, DWORD PTR _nNewCount$1$[ebp]
  001c2	85 c0		 test	 eax, eax
  001c4	0f 85 36 ff ff
	ff		 jne	 $LL5@Serialize
$LN69@Serialize:

; 1198 : 	}
; 1199 : }

  001ca	8b 4d f4	 mov	 ecx, DWORD PTR __$EHRec$[ebp]
  001cd	64 89 0d 00 00
	00 00		 mov	 DWORD PTR fs:0, ecx
  001d4	59		 pop	 ecx
  001d5	5f		 pop	 edi
  001d6	5e		 pop	 esi
  001d7	5b		 pop	 ebx
  001d8	8b e5		 mov	 esp, ebp
  001da	5d		 pop	 ebp
  001db	c2 04 00	 ret	 4
$LN60@Serialize:
  001de	6a 00		 push	 0
  001e0	6a 03		 push	 3
  001e2	e8 00 00 00 00	 call	 ?AfxThrowArchiveException@@YGXHPBD@Z ; AfxThrowArchiveException
$LN61@Serialize:

; 68   : 	ENSURE(nCount == 0 || pElements != NULL);

  001e7	e8 00 00 00 00	 call	 ?AfxThrowInvalidArgException@@YGXXZ ; AfxThrowInvalidArgException
$LN87@Serialize:
  001ec	cc		 int	 3
_TEXT	ENDS
;	COMDAT text$x
text$x	SEGMENT
__unwindfunclet$?Serialize@?$CList@VCTextData@@AAV1@@@UAEXAAVCArchive@@@Z$0:
  00000	68 00 00 00 00	 push	 OFFSET ??1CTextData@@QAE@XZ
  00005	6a 01		 push	 1
  00007	6a 0c		 push	 12			; 0000000cH
  00009	8d 45 dc	 lea	 eax, DWORD PTR _newData$2[ebp]
  0000c	50		 push	 eax
  0000d	e8 00 00 00 00	 call	 ??_M@YGXPAXIIP6EX0@Z@Z
  00012	c3		 ret	 0
  00013	cc		 int	 3
  00014	cc		 int	 3
  00015	cc		 int	 3
  00016	cc		 int	 3
  00017	cc		 int	 3
__ehhandler$?Serialize@?$CList@VCTextData@@AAV1@@@UAEXAAVCArchive@@@Z:
  00018	90		 npad	 1
  00019	90		 npad	 1
  0001a	8b 54 24 08	 mov	 edx, DWORD PTR [esp+8]
  0001e	8d 42 0c	 lea	 eax, DWORD PTR [edx+12]
  00021	8b 4a d8	 mov	 ecx, DWORD PTR [edx-40]
  00024	33 c8		 xor	 ecx, eax
  00026	e8 00 00 00 00	 call	 @__security_check_cookie@4
  0002b	b8 00 00 00 00	 mov	 eax, OFFSET __ehfuncinfo$?Serialize@?$CList@VCTextData@@AAV1@@@UAEXAAVCArchive@@@Z
  00030	e9 00 00 00 00	 jmp	 ___CxxFrameHandler3
text$x	ENDS
?Serialize@?$CList@VCTextData@@AAV1@@@UAEXAAVCArchive@@@Z ENDP ; CList<CTextData,CTextData &>::Serialize
; Function compile flags: /Ogtp
; File C:\Program Files (x86)\Microsoft Visual Studio\2019\Community\VC\Tools\MSVC\14.29.30133\atlmfc\include\afxtempl.h
;	COMDAT ??1?$CList@VCTextData@@AAV1@@@UAE@XZ
_TEXT	SEGMENT
__$EHRec$ = -12						; size = 12
??1?$CList@VCTextData@@AAV1@@@UAE@XZ PROC		; CList<CTextData,CTextData &>::~CList<CTextData,CTextData &>, COMDAT
; _this$ = ecx

; 878  : {

  00000	55		 push	 ebp
  00001	8b ec		 mov	 ebp, esp
  00003	6a ff		 push	 -1
  00005	68 00 00 00 00	 push	 __ehhandler$??1?$CList@VCTextData@@AAV1@@@UAE@XZ
  0000a	64 a1 00 00 00
	00		 mov	 eax, DWORD PTR fs:0
  00010	50		 push	 eax
  00011	a1 00 00 00 00	 mov	 eax, DWORD PTR ___security_cookie
  00016	33 c5		 xor	 eax, ebp
  00018	50		 push	 eax
  00019	8d 45 f4	 lea	 eax, DWORD PTR __$EHRec$[ebp]
  0001c	64 a3 00 00 00
	00		 mov	 DWORD PTR fs:0, eax
  00022	c7 01 00 00 00
	00		 mov	 DWORD PTR [ecx], OFFSET ??_7?$CList@VCTextData@@AAV1@@@6B@

; 879  : 	RemoveAll();

  00028	e8 00 00 00 00	 call	 ?RemoveAll@?$CList@VCTextData@@AAV1@@@QAEXXZ ; CList<CTextData,CTextData &>::RemoveAll

; 880  : 	ASSERT(m_nCount == 0);
; 881  : }

  0002d	8b 4d f4	 mov	 ecx, DWORD PTR __$EHRec$[ebp]
  00030	64 89 0d 00 00
	00 00		 mov	 DWORD PTR fs:0, ecx
  00037	59		 pop	 ecx
  00038	8b e5		 mov	 esp, ebp
  0003a	5d		 pop	 ebp
  0003b	c3		 ret	 0
  0003c	cc		 int	 3
  0003d	cc		 int	 3
  0003e	cc		 int	 3
  0003f	cc		 int	 3
  00040	cc		 int	 3
_TEXT	ENDS
;	COMDAT text$x
text$x	SEGMENT
__ehhandler$??1?$CList@VCTextData@@AAV1@@@UAE@XZ:
  00000	90		 npad	 1
  00001	90		 npad	 1
  00002	8b 54 24 08	 mov	 edx, DWORD PTR [esp+8]
  00006	8d 42 0c	 lea	 eax, DWORD PTR [edx+12]
  00009	8b 4a fc	 mov	 ecx, DWORD PTR [edx-4]
  0000c	33 c8		 xor	 ecx, eax
  0000e	e8 00 00 00 00	 call	 @__security_check_cookie@4
  00013	b8 00 00 00 00	 mov	 eax, OFFSET __ehfuncinfo$??1?$CList@VCTextData@@AAV1@@@UAE@XZ
  00018	e9 00 00 00 00	 jmp	 ___CxxFrameHandler3
text$x	ENDS
??1?$CList@VCTextData@@AAV1@@@UAE@XZ ENDP		; CList<CTextData,CTextData &>::~CList<CTextData,CTextData &>
; Function compile flags: /Ogtp
; File C:\Program Files (x86)\Microsoft Visual Studio\2019\Community\VC\Tools\MSVC\14.29.30133\atlmfc\include\afxtempl.h
; File D:\git\src\IBK\IBK_DRFN\ProjSrc\SrcChartEx\ChartOCX\GraphDraw\GraphDataDrawer.cpp
; File C:\Program Files (x86)\Microsoft Visual Studio\2019\Community\VC\Tools\MSVC\14.29.30133\atlmfc\include\afxtempl.h
; File D:\git\src\IBK\IBK_DRFN\ProjSrc\SrcChartEx\ChartOCX\GraphDraw\GraphDataDrawer.cpp
; File C:\Program Files (x86)\Microsoft Visual Studio\2019\Community\VC\Tools\MSVC\14.29.30133\atlmfc\include\afxtempl.h
;	COMDAT ?NewNode@?$CList@VCTextData@@AAV1@@@IAEPAUCNode@1@PAU21@0@Z
_TEXT	SEGMENT
_pPrev$ = 8						; size = 4
_pNext$ = 12						; size = 4
?NewNode@?$CList@VCTextData@@AAV1@@@IAEPAUCNode@1@PAU21@0@Z PROC ; CList<CTextData,CTextData &>::NewNode, COMDAT
; _this$ = ecx

; 901  : {

  00000	55		 push	 ebp
  00001	8b ec		 mov	 ebp, esp
  00003	56		 push	 esi
  00004	8b f1		 mov	 esi, ecx
  00006	57		 push	 edi

; 902  : 	if (m_pNodeFree == NULL)

  00007	83 7e 10 00	 cmp	 DWORD PTR [esi+16], 0
  0000b	75 33		 jne	 SHORT $LN7@NewNode

; 903  : 	{
; 904  : 		// add another block
; 905  : 		CPlex* pNewBlock = CPlex::Create(m_pBlocks, m_nBlockSize,

  0000d	6a 14		 push	 20			; 00000014H
  0000f	ff 76 18	 push	 DWORD PTR [esi+24]
  00012	8d 46 14	 lea	 eax, DWORD PTR [esi+20]
  00015	50		 push	 eax
  00016	e8 00 00 00 00	 call	 ?Create@CPlex@@SGPAU1@AAPAU1@II@Z ; CPlex::Create

; 906  : 				 sizeof(CNode));
; 907  : 
; 908  : 		// chain them into free list
; 909  : 		CNode* pNode = (CNode*) pNewBlock->data();
; 910  : 		// free in reverse order to make it easier to debug
; 911  : 		pNode += m_nBlockSize - 1;

  0001b	8b 56 18	 mov	 edx, DWORD PTR [esi+24]
  0001e	83 c0 08	 add	 eax, 8
  00021	8d 0c 92	 lea	 ecx, DWORD PTR [edx+edx*4]
  00024	8d 04 88	 lea	 eax, DWORD PTR [eax+ecx*4]
  00027	83 c0 ec	 add	 eax, -20		; ffffffecH

; 912  : 		for (INT_PTR i = m_nBlockSize-1; i >= 0; i--, pNode--)

  0002a	83 c2 ff	 add	 edx, -1
  0002d	78 11		 js	 SHORT $LN7@NewNode
  0002f	90		 npad	 1
$LL4@NewNode:

; 913  : 		{
; 914  : 			pNode->pNext = m_pNodeFree;

  00030	8b 4e 10	 mov	 ecx, DWORD PTR [esi+16]
  00033	89 08		 mov	 DWORD PTR [eax], ecx

; 915  : 			m_pNodeFree = pNode;

  00035	89 46 10	 mov	 DWORD PTR [esi+16], eax
  00038	83 e8 14	 sub	 eax, 20			; 00000014H
  0003b	83 ea 01	 sub	 edx, 1
  0003e	79 f0		 jns	 SHORT $LL4@NewNode
$LN7@NewNode:

; 916  : 		}
; 917  : 	}
; 918  : 	ENSURE(m_pNodeFree != NULL);  // we must have something

  00040	8b 7e 10	 mov	 edi, DWORD PTR [esi+16]
  00043	85 ff		 test	 edi, edi
  00045	74 34		 je	 SHORT $LN19@NewNode

; 921  : 	m_pNodeFree = m_pNodeFree->pNext;

  00047	8b 07		 mov	 eax, DWORD PTR [edi]
; File D:\git\src\IBK\IBK_DRFN\ProjSrc\SrcChartEx\ChartOCX\GraphDraw\GraphDataDrawer.cpp

; 165  : {

  00049	8d 4f 08	 lea	 ecx, DWORD PTR [edi+8]
; File C:\Program Files (x86)\Microsoft Visual Studio\2019\Community\VC\Tools\MSVC\14.29.30133\atlmfc\include\afxtempl.h

; 921  : 	m_pNodeFree = m_pNodeFree->pNext;

  0004c	89 46 10	 mov	 DWORD PTR [esi+16], eax

; 922  : 	pNode->pPrev = pPrev;

  0004f	8b 45 08	 mov	 eax, DWORD PTR _pPrev$[ebp]
  00052	89 47 04	 mov	 DWORD PTR [edi+4], eax

; 923  : 	pNode->pNext = pNext;

  00055	8b 45 0c	 mov	 eax, DWORD PTR _pNext$[ebp]
  00058	89 07		 mov	 DWORD PTR [edi], eax

; 924  : 	m_nCount++;

  0005a	ff 46 0c	 inc	 DWORD PTR [esi+12]
; File D:\git\src\IBK\IBK_DRFN\ProjSrc\SrcChartEx\ChartOCX\GraphDraw\GraphDataDrawer.cpp

; 165  : {

  0005d	ff 15 00 00 00
	00		 call	 DWORD PTR __imp_??0?$CStringT@DV?$StrTraitMFC_DLL@DV?$ChTraitsCRT@D@ATL@@@@@ATL@@QAE@XZ
  00063	8d 4f 0c	 lea	 ecx, DWORD PTR [edi+12]
  00066	ff 15 00 00 00
	00		 call	 DWORD PTR __imp_??0?$CStringT@DV?$StrTraitMFC_DLL@DV?$ChTraitsCRT@D@ATL@@@@@ATL@@QAE@XZ

; 164  : 	m_color(RGB(0, 0, 0))

  0006c	c7 47 10 00 00
	00 00		 mov	 DWORD PTR [edi+16], 0
; File C:\Program Files (x86)\Microsoft Visual Studio\2019\Community\VC\Tools\MSVC\14.29.30133\atlmfc\include\afxtempl.h

; 931  : 	return pNode;

  00073	8b c7		 mov	 eax, edi
  00075	5f		 pop	 edi
  00076	5e		 pop	 esi

; 932  : }

  00077	5d		 pop	 ebp
  00078	c2 08 00	 ret	 8
$LN19@NewNode:

; 916  : 		}
; 917  : 	}
; 918  : 	ENSURE(m_pNodeFree != NULL);  // we must have something

  0007b	e8 00 00 00 00	 call	 ?AfxThrowInvalidArgException@@YGXXZ ; AfxThrowInvalidArgException
$LN17@NewNode:
  00080	cc		 int	 3
?NewNode@?$CList@VCTextData@@AAV1@@@IAEPAUCNode@1@PAU21@0@Z ENDP ; CList<CTextData,CTextData &>::NewNode
_TEXT	ENDS
; Function compile flags: /Ogtp
; File C:\Program Files (x86)\Microsoft Visual Studio\2019\Community\VC\Tools\MSVC\14.29.30133\atlmfc\include\afxtempl.h
;	COMDAT ?RemoveAll@?$CList@VCTextData@@AAV1@@@QAEXXZ
_TEXT	SEGMENT
?RemoveAll@?$CList@VCTextData@@AAV1@@@QAEXXZ PROC	; CList<CTextData,CTextData &>::RemoveAll, COMDAT
; _this$ = ecx

; 862  : {

  00000	53		 push	 ebx
  00001	8b d9		 mov	 ebx, ecx
  00003	56		 push	 esi

; 863  : 	ASSERT_VALID(this);
; 864  : 
; 865  : 	// destroy elements
; 866  : 	CNode* pNode;
; 867  : 	for (pNode = m_pNodeHead; pNode != NULL; pNode = pNode->pNext)

  00004	8b 73 04	 mov	 esi, DWORD PTR [ebx+4]
  00007	85 f6		 test	 esi, esi
  00009	74 1e		 je	 SHORT $LN3@RemoveAll
  0000b	57		 push	 edi
  0000c	0f 1f 40 00	 npad	 4
$LL4@RemoveAll:
  00010	8d 4e 0c	 lea	 ecx, DWORD PTR [esi+12]
  00013	ff 15 00 00 00
	00		 call	 DWORD PTR __imp_??1?$CStringT@DV?$StrTraitMFC_DLL@DV?$ChTraitsCRT@D@ATL@@@@@ATL@@QAE@XZ
  00019	8d 4e 08	 lea	 ecx, DWORD PTR [esi+8]
  0001c	ff 15 00 00 00
	00		 call	 DWORD PTR __imp_??1?$CStringT@DV?$StrTraitMFC_DLL@DV?$ChTraitsCRT@D@ATL@@@@@ATL@@QAE@XZ
  00022	8b 36		 mov	 esi, DWORD PTR [esi]
  00024	85 f6		 test	 esi, esi
  00026	75 e8		 jne	 SHORT $LL4@RemoveAll
  00028	5f		 pop	 edi
$LN3@RemoveAll:

; 868  : 		pNode->data.~TYPE();
; 869  : 
; 870  : 	m_nCount = 0;
; 871  : 	m_pNodeHead = m_pNodeTail = m_pNodeFree = NULL;
; 872  : 	m_pBlocks->FreeDataChain();

  00029	8b 4b 14	 mov	 ecx, DWORD PTR [ebx+20]
  0002c	c7 43 0c 00 00
	00 00		 mov	 DWORD PTR [ebx+12], 0
  00033	c7 43 10 00 00
	00 00		 mov	 DWORD PTR [ebx+16], 0
  0003a	c7 43 08 00 00
	00 00		 mov	 DWORD PTR [ebx+8], 0
  00041	c7 43 04 00 00
	00 00		 mov	 DWORD PTR [ebx+4], 0
  00048	e8 00 00 00 00	 call	 ?FreeDataChain@CPlex@@QAEXXZ ; CPlex::FreeDataChain

; 873  : 	m_pBlocks = NULL;

  0004d	5e		 pop	 esi
  0004e	c7 43 14 00 00
	00 00		 mov	 DWORD PTR [ebx+20], 0
  00055	5b		 pop	 ebx

; 874  : }

  00056	c3		 ret	 0
?RemoveAll@?$CList@VCTextData@@AAV1@@@QAEXXZ ENDP	; CList<CTextData,CTextData &>::RemoveAll
_TEXT	ENDS
; Function compile flags: /Ogtp
; File C:\Program Files (x86)\Microsoft Visual Studio\2019\Community\VC\Tools\MSVC\14.29.30133\atlmfc\include\afxtempl.h
; File D:\git\src\IBK\IBK_DRFN\ProjSrc\SrcChartEx\ChartOCX\GraphDraw\GraphDataDrawer.cpp
; File C:\Program Files (x86)\Microsoft Visual Studio\2019\Community\VC\Tools\MSVC\14.29.30133\atlmfc\include\afxtempl.h
; File D:\git\src\IBK\IBK_DRFN\ProjSrc\SrcChartEx\ChartOCX\GraphDraw\GraphDataDrawer.cpp
; File C:\Program Files (x86)\Microsoft Visual Studio\2019\Community\VC\Tools\MSVC\14.29.30133\atlmfc\include\afxtempl.h
;	COMDAT ?AddTail@?$CList@VCTextData@@AAV1@@@QAEPAU__POSITION@@AAVCTextData@@@Z
_TEXT	SEGMENT
$T2 = -20						; size = 4
$T3 = -16						; size = 4
__$EHRec$ = -12						; size = 12
_newElement$ = 8					; size = 4
?AddTail@?$CList@VCTextData@@AAV1@@@QAEPAU__POSITION@@AAVCTextData@@@Z PROC ; CList<CTextData,CTextData &>::AddTail, COMDAT
; _this$ = ecx

; 965  : {

  00000	55		 push	 ebp
  00001	8b ec		 mov	 ebp, esp
  00003	6a ff		 push	 -1
  00005	68 00 00 00 00	 push	 __ehhandler$?AddTail@?$CList@VCTextData@@AAV1@@@QAEPAU__POSITION@@AAVCTextData@@@Z
  0000a	64 a1 00 00 00
	00		 mov	 eax, DWORD PTR fs:0
  00010	50		 push	 eax
  00011	83 ec 08	 sub	 esp, 8
  00014	53		 push	 ebx
  00015	56		 push	 esi
  00016	57		 push	 edi
  00017	a1 00 00 00 00	 mov	 eax, DWORD PTR ___security_cookie
  0001c	33 c5		 xor	 eax, ebp
  0001e	50		 push	 eax
  0001f	8d 45 f4	 lea	 eax, DWORD PTR __$EHRec$[ebp]
  00022	64 a3 00 00 00
	00		 mov	 DWORD PTR fs:0, eax
  00028	8b f1		 mov	 esi, ecx

; 902  : 	if (m_pNodeFree == NULL)

  0002a	83 7e 10 00	 cmp	 DWORD PTR [esi+16], 0

; 966  : 	ASSERT_VALID(this);
; 967  : 
; 968  : 	CNode* pNewNode = NewNode(m_pNodeTail, NULL);

  0002e	8b 5e 08	 mov	 ebx, DWORD PTR [esi+8]

; 902  : 	if (m_pNodeFree == NULL)

  00031	75 32		 jne	 SHORT $LN11@AddTail

; 903  : 	{
; 904  : 		// add another block
; 905  : 		CPlex* pNewBlock = CPlex::Create(m_pBlocks, m_nBlockSize,

  00033	6a 14		 push	 20			; 00000014H
  00035	ff 76 18	 push	 DWORD PTR [esi+24]
  00038	8d 46 14	 lea	 eax, DWORD PTR [esi+20]
  0003b	50		 push	 eax
  0003c	e8 00 00 00 00	 call	 ?Create@CPlex@@SGPAU1@AAPAU1@II@Z ; CPlex::Create

; 906  : 				 sizeof(CNode));
; 907  : 
; 908  : 		// chain them into free list
; 909  : 		CNode* pNode = (CNode*) pNewBlock->data();
; 910  : 		// free in reverse order to make it easier to debug
; 911  : 		pNode += m_nBlockSize - 1;

  00041	8b 56 18	 mov	 edx, DWORD PTR [esi+24]
  00044	8d 0c 95 fd ff
	ff ff		 lea	 ecx, DWORD PTR [edx*4-3]
  0004b	03 ca		 add	 ecx, edx

; 912  : 		for (INT_PTR i = m_nBlockSize-1; i >= 0; i--, pNode--)

  0004d	83 c2 ff	 add	 edx, -1
  00050	8d 0c 88	 lea	 ecx, DWORD PTR [eax+ecx*4]
  00053	78 10		 js	 SHORT $LN11@AddTail
$LL8@AddTail:

; 913  : 		{
; 914  : 			pNode->pNext = m_pNodeFree;

  00055	8b 46 10	 mov	 eax, DWORD PTR [esi+16]
  00058	89 01		 mov	 DWORD PTR [ecx], eax

; 915  : 			m_pNodeFree = pNode;

  0005a	89 4e 10	 mov	 DWORD PTR [esi+16], ecx
  0005d	83 e9 14	 sub	 ecx, 20			; 00000014H
  00060	83 ea 01	 sub	 edx, 1
  00063	79 f0		 jns	 SHORT $LL8@AddTail
$LN11@AddTail:

; 916  : 		}
; 917  : 	}
; 918  : 	ENSURE(m_pNodeFree != NULL);  // we must have something

  00065	8b 7e 10	 mov	 edi, DWORD PTR [esi+16]
  00068	85 ff		 test	 edi, edi
  0006a	0f 84 bd 00 00
	00		 je	 $LN38@AddTail

; 919  : 
; 920  : 	CList::CNode* pNode = m_pNodeFree;
; 921  : 	m_pNodeFree = m_pNodeFree->pNext;

  00070	8b 07		 mov	 eax, DWORD PTR [edi]
  00072	89 46 10	 mov	 DWORD PTR [esi+16], eax

; 922  : 	pNode->pPrev = pPrev;

  00075	89 5f 04	 mov	 DWORD PTR [edi+4], ebx

; 925  : 	ASSERT(m_nCount > 0);  // make sure we don't overflow
; 926  : 
; 927  : #pragma push_macro("new")
; 928  : #undef new
; 929  : 	::new( (void*)( &pNode->data ) ) TYPE;

  00078	8d 5f 08	 lea	 ebx, DWORD PTR [edi+8]
  0007b	c7 07 00 00 00
	00		 mov	 DWORD PTR [edi], 0
; File D:\git\src\IBK\IBK_DRFN\ProjSrc\SrcChartEx\ChartOCX\GraphDraw\GraphDataDrawer.cpp

; 165  : {

  00081	8b cb		 mov	 ecx, ebx
; File C:\Program Files (x86)\Microsoft Visual Studio\2019\Community\VC\Tools\MSVC\14.29.30133\atlmfc\include\afxtempl.h

; 924  : 	m_nCount++;

  00083	ff 46 0c	 inc	 DWORD PTR [esi+12]
; File D:\git\src\IBK\IBK_DRFN\ProjSrc\SrcChartEx\ChartOCX\GraphDraw\GraphDataDrawer.cpp

; 165  : {

  00086	ff 15 00 00 00
	00		 call	 DWORD PTR __imp_??0?$CStringT@DV?$StrTraitMFC_DLL@DV?$ChTraitsCRT@D@ATL@@@@@ATL@@QAE@XZ
  0008c	8d 4b 04	 lea	 ecx, DWORD PTR [ebx+4]
  0008f	ff 15 00 00 00
	00		 call	 DWORD PTR __imp_??0?$CStringT@DV?$StrTraitMFC_DLL@DV?$ChTraitsCRT@D@ATL@@@@@ATL@@QAE@XZ

; 154  : 	if(this == &data)

  00095	8b 45 08	 mov	 eax, DWORD PTR _newElement$[ebp]

; 164  : 	m_color(RGB(0, 0, 0))

  00098	c7 43 08 00 00
	00 00		 mov	 DWORD PTR [ebx+8], 0

; 154  : 	if(this == &data)

  0009f	3b d8		 cmp	 ebx, eax
  000a1	74 63		 je	 SHORT $LN18@AddTail

; 199  : 	return m_strTitle;

  000a3	50		 push	 eax
  000a4	8d 4d f0	 lea	 ecx, DWORD PTR $T3[ebp]
  000a7	ff 15 00 00 00
	00		 call	 DWORD PTR __imp_??0?$CStringT@DV?$StrTraitMFC_DLL@DV?$ChTraitsCRT@D@ATL@@@@@ATL@@QAE@ABV01@@Z

; 157  : 	m_strTitle = data.GetTitle();

  000ad	8d 45 f0	 lea	 eax, DWORD PTR $T3[ebp]
  000b0	c7 45 fc 00 00
	00 00		 mov	 DWORD PTR __$EHRec$[ebp+8], 0
  000b7	50		 push	 eax
  000b8	8b cb		 mov	 ecx, ebx
  000ba	ff 15 00 00 00
	00		 call	 DWORD PTR __imp_??4?$CStringT@DV?$StrTraitMFC_DLL@DV?$ChTraitsCRT@D@ATL@@@@@ATL@@QAEAAV01@ABV01@@Z
  000c0	8d 4d f0	 lea	 ecx, DWORD PTR $T3[ebp]
  000c3	c7 45 fc ff ff
	ff ff		 mov	 DWORD PTR __$EHRec$[ebp+8], -1
  000ca	ff 15 00 00 00
	00		 call	 DWORD PTR __imp_??1?$CStringT@DV?$StrTraitMFC_DLL@DV?$ChTraitsCRT@D@ATL@@@@@ATL@@QAE@XZ

; 204  : 	return m_strData;

  000d0	8b 45 08	 mov	 eax, DWORD PTR _newElement$[ebp]
  000d3	8d 4d ec	 lea	 ecx, DWORD PTR $T2[ebp]
  000d6	83 c0 04	 add	 eax, 4
  000d9	50		 push	 eax
  000da	ff 15 00 00 00
	00		 call	 DWORD PTR __imp_??0?$CStringT@DV?$StrTraitMFC_DLL@DV?$ChTraitsCRT@D@ATL@@@@@ATL@@QAE@ABV01@@Z

; 158  : 	m_strData = data.GetData();

  000e0	8d 45 ec	 lea	 eax, DWORD PTR $T2[ebp]
  000e3	c7 45 fc 01 00
	00 00		 mov	 DWORD PTR __$EHRec$[ebp+8], 1
  000ea	50		 push	 eax
  000eb	8d 4b 04	 lea	 ecx, DWORD PTR [ebx+4]
  000ee	ff 15 00 00 00
	00		 call	 DWORD PTR __imp_??4?$CStringT@DV?$StrTraitMFC_DLL@DV?$ChTraitsCRT@D@ATL@@@@@ATL@@QAEAAV01@ABV01@@Z
  000f4	8d 4d ec	 lea	 ecx, DWORD PTR $T2[ebp]
  000f7	ff 15 00 00 00
	00		 call	 DWORD PTR __imp_??1?$CStringT@DV?$StrTraitMFC_DLL@DV?$ChTraitsCRT@D@ATL@@@@@ATL@@QAE@XZ

; 159  : 	m_color = data.GetColor();

  000fd	8b 4d 08	 mov	 ecx, DWORD PTR _newElement$[ebp]
  00100	8b 41 08	 mov	 eax, DWORD PTR [ecx+8]
  00103	89 43 08	 mov	 DWORD PTR [ebx+8], eax
$LN18@AddTail:
; File C:\Program Files (x86)\Microsoft Visual Studio\2019\Community\VC\Tools\MSVC\14.29.30133\atlmfc\include\afxtempl.h

; 970  : 	if (m_pNodeTail != NULL)

  00106	8b 46 08	 mov	 eax, DWORD PTR [esi+8]
  00109	85 c0		 test	 eax, eax
  0010b	74 04		 je	 SHORT $LN2@AddTail

; 971  : 		m_pNodeTail->pNext = pNewNode;

  0010d	89 38		 mov	 DWORD PTR [eax], edi
  0010f	eb 03		 jmp	 SHORT $LN3@AddTail
$LN2@AddTail:

; 972  : 	else
; 973  : 		m_pNodeHead = pNewNode;

  00111	89 7e 04	 mov	 DWORD PTR [esi+4], edi
$LN3@AddTail:

; 974  : 	m_pNodeTail = pNewNode;

  00114	89 7e 08	 mov	 DWORD PTR [esi+8], edi

; 975  : 	return (POSITION) pNewNode;

  00117	8b c7		 mov	 eax, edi

; 976  : }

  00119	8b 4d f4	 mov	 ecx, DWORD PTR __$EHRec$[ebp]
  0011c	64 89 0d 00 00
	00 00		 mov	 DWORD PTR fs:0, ecx
  00123	59		 pop	 ecx
  00124	5f		 pop	 edi
  00125	5e		 pop	 esi
  00126	5b		 pop	 ebx
  00127	8b e5		 mov	 esp, ebp
  00129	5d		 pop	 ebp
  0012a	c2 04 00	 ret	 4
$LN38@AddTail:

; 918  : 	ENSURE(m_pNodeFree != NULL);  // we must have something

  0012d	e8 00 00 00 00	 call	 ?AfxThrowInvalidArgException@@YGXXZ ; AfxThrowInvalidArgException
$LN36@AddTail:
  00132	cc		 int	 3
_TEXT	ENDS
;	COMDAT text$x
text$x	SEGMENT
__unwindfunclet$?AddTail@?$CList@VCTextData@@AAV1@@@QAEPAU__POSITION@@AAVCTextData@@@Z$0:
  00000	8d 4d f0	 lea	 ecx, DWORD PTR $T3[ebp]
  00003	ff 25 00 00 00
	00		 jmp	 DWORD PTR __imp_??1?$CStringT@DV?$StrTraitMFC_DLL@DV?$ChTraitsCRT@D@ATL@@@@@ATL@@QAE@XZ
__unwindfunclet$?AddTail@?$CList@VCTextData@@AAV1@@@QAEPAU__POSITION@@AAVCTextData@@@Z$1:
  00009	8d 4d ec	 lea	 ecx, DWORD PTR $T2[ebp]
  0000c	ff 25 00 00 00
	00		 jmp	 DWORD PTR __imp_??1?$CStringT@DV?$StrTraitMFC_DLL@DV?$ChTraitsCRT@D@ATL@@@@@ATL@@QAE@XZ
  00012	cc		 int	 3
  00013	cc		 int	 3
  00014	cc		 int	 3
  00015	cc		 int	 3
  00016	cc		 int	 3
__ehhandler$?AddTail@?$CList@VCTextData@@AAV1@@@QAEPAU__POSITION@@AAVCTextData@@@Z:
  00017	90		 npad	 1
  00018	90		 npad	 1
  00019	8b 54 24 08	 mov	 edx, DWORD PTR [esp+8]
  0001d	8d 42 0c	 lea	 eax, DWORD PTR [edx+12]
  00020	8b 4a e8	 mov	 ecx, DWORD PTR [edx-24]
  00023	33 c8		 xor	 ecx, eax
  00025	e8 00 00 00 00	 call	 @__security_check_cookie@4
  0002a	b8 00 00 00 00	 mov	 eax, OFFSET __ehfuncinfo$?AddTail@?$CList@VCTextData@@AAV1@@@QAEPAU__POSITION@@AAVCTextData@@@Z
  0002f	e9 00 00 00 00	 jmp	 ___CxxFrameHandler3
text$x	ENDS
?AddTail@?$CList@VCTextData@@AAV1@@@QAEPAU__POSITION@@AAVCTextData@@@Z ENDP ; CList<CTextData,CTextData &>::AddTail
; Function compile flags: /Ogtp
; File C:\Program Files (x86)\Microsoft Visual Studio\2019\Community\VC\Tools\MSVC\14.29.30133\atlmfc\include\afxtempl.h
;	COMDAT ??0?$CList@VCTextData@@AAV1@@@QAE@H@Z
_TEXT	SEGMENT
_nBlockSize$ = 8					; size = 4
??0?$CList@VCTextData@@AAV1@@@QAE@H@Z PROC		; CList<CTextData,CTextData &>::CList<CTextData,CTextData &>, COMDAT
; _this$ = ecx

; 851  : {

  00000	55		 push	 ebp
  00001	8b ec		 mov	 ebp, esp

; 852  : 	ASSERT(nBlockSize > 0);
; 853  : 
; 854  : 	m_nCount = 0;
; 855  : 	m_pNodeHead = m_pNodeTail = m_pNodeFree = NULL;
; 856  : 	m_pBlocks = NULL;
; 857  : 	m_nBlockSize = nBlockSize;

  00003	8b 45 08	 mov	 eax, DWORD PTR _nBlockSize$[ebp]
  00006	89 41 18	 mov	 DWORD PTR [ecx+24], eax

; 858  : }

  00009	8b c1		 mov	 eax, ecx
  0000b	c7 01 00 00 00
	00		 mov	 DWORD PTR [ecx], OFFSET ??_7?$CList@VCTextData@@AAV1@@@6B@
  00011	c7 41 0c 00 00
	00 00		 mov	 DWORD PTR [ecx+12], 0
  00018	c7 41 10 00 00
	00 00		 mov	 DWORD PTR [ecx+16], 0
  0001f	c7 41 08 00 00
	00 00		 mov	 DWORD PTR [ecx+8], 0
  00026	c7 41 04 00 00
	00 00		 mov	 DWORD PTR [ecx+4], 0
  0002d	c7 41 14 00 00
	00 00		 mov	 DWORD PTR [ecx+20], 0
  00034	5d		 pop	 ebp
  00035	c2 04 00	 ret	 4
??0?$CList@VCTextData@@AAV1@@@QAE@H@Z ENDP		; CList<CTextData,CTextData &>::CList<CTextData,CTextData &>
_TEXT	ENDS
; Function compile flags: /Ogtp
; File C:\Program Files (x86)\Microsoft Visual Studio\2019\Community\VC\Tools\MSVC\14.29.30133\atlmfc\include\afxtempl.h
;	COMDAT ?FindIndex@?$CList@NN@@QBEPAU__POSITION@@H@Z
_TEXT	SEGMENT
_nIndex$ = 8						; size = 4
?FindIndex@?$CList@NN@@QBEPAU__POSITION@@H@Z PROC	; CList<double,double>::FindIndex, COMDAT
; _this$ = ecx

; 1130 : {

  00000	55		 push	 ebp
  00001	8b ec		 mov	 ebp, esp

; 1131 : 	ASSERT_VALID(this);
; 1132 : 
; 1133 : 	if (nIndex >= m_nCount || nIndex < 0)

  00003	8b 55 08	 mov	 edx, DWORD PTR _nIndex$[ebp]
  00006	3b 51 0c	 cmp	 edx, DWORD PTR [ecx+12]
  00009	7d 14		 jge	 SHORT $LN5@FindIndex
  0000b	85 d2		 test	 edx, edx
  0000d	78 10		 js	 SHORT $LN5@FindIndex

; 1135 : 
; 1136 : 	CNode* pNode = m_pNodeHead;

  0000f	8b 41 04	 mov	 eax, DWORD PTR [ecx+4]

; 1137 : 	while (nIndex--)

  00012	74 0d		 je	 SHORT $LN1@FindIndex
$LL2@FindIndex:

; 1138 : 	{
; 1139 : 		ASSERT(AfxIsValidAddress(pNode, sizeof(CNode)));
; 1140 : 		pNode = pNode->pNext;

  00014	8b 00		 mov	 eax, DWORD PTR [eax]
  00016	83 ea 01	 sub	 edx, 1
  00019	75 f9		 jne	 SHORT $LL2@FindIndex

; 1141 : 	}
; 1142 : 	return (POSITION) pNode;
; 1143 : }

  0001b	5d		 pop	 ebp
  0001c	c2 04 00	 ret	 4
$LN5@FindIndex:

; 1134 : 		return NULL;  // went too far

  0001f	33 c0		 xor	 eax, eax
$LN1@FindIndex:

; 1141 : 	}
; 1142 : 	return (POSITION) pNode;
; 1143 : }

  00021	5d		 pop	 ebp
  00022	c2 04 00	 ret	 4
?FindIndex@?$CList@NN@@QBEPAU__POSITION@@H@Z ENDP	; CList<double,double>::FindIndex
_TEXT	ENDS
; Function compile flags: /Ogtp
;	COMDAT ??4CGraphDrawer@@QAEAAV0@$$QAV0@@Z
_TEXT	SEGMENT
___that$ = 8						; size = 4
??4CGraphDrawer@@QAEAAV0@$$QAV0@@Z PROC			; CGraphDrawer::operator=, COMDAT
; _this$ = ecx
  00000	8b c1		 mov	 eax, ecx
  00002	c2 04 00	 ret	 4
??4CGraphDrawer@@QAEAAV0@$$QAV0@@Z ENDP			; CGraphDrawer::operator=
_TEXT	ENDS
; Function compile flags: /Ogtp
;	COMDAT ??4CGraphDrawer@@QAEAAV0@ABV0@@Z
_TEXT	SEGMENT
___that$ = 8						; size = 4
??4CGraphDrawer@@QAEAAV0@ABV0@@Z PROC			; CGraphDrawer::operator=, COMDAT
; _this$ = ecx
  00000	8b c1		 mov	 eax, ecx
  00002	c2 04 00	 ret	 4
??4CGraphDrawer@@QAEAAV0@ABV0@@Z ENDP			; CGraphDrawer::operator=
_TEXT	ENDS
; Function compile flags: /Ogtp
; File D:\git\src\IBK\IBK_DRFN\ProjSrc\SrcChartEx\ChartOCX\GraphDraw\GraphDataDrawer.cpp
;	COMDAT ?DrawGraphDatas@CGraphDataDrawer@@QAEXPAVCDC@@ABVCRect@@ABVCDisplayAttributes@@ABVCDrawingGraphData@@ABVCSubGraphData@@@Z
_TEXT	SEGMENT
$T2 = -112						; size = 44
_pricesInView$ = -68					; size = 40
$T3 = -28						; size = 16
__$EHRec$ = -12						; size = 12
_pDC$ = 8						; size = 4
_realRegion$ = 12					; size = 4
_displayAttributes$ = 16				; size = 4
_drawingGraphData$ = 20					; size = 4
$T4 = 24						; size = 4
_subGraphData$ = 24					; size = 4
?DrawGraphDatas@CGraphDataDrawer@@QAEXPAVCDC@@ABVCRect@@ABVCDisplayAttributes@@ABVCDrawingGraphData@@ABVCSubGraphData@@@Z PROC ; CGraphDataDrawer::DrawGraphDatas, COMDAT
; _this$ = ecx

; 1231 : {

  00000	55		 push	 ebp
  00001	8b ec		 mov	 ebp, esp
  00003	6a ff		 push	 -1
  00005	68 00 00 00 00	 push	 __ehhandler$?DrawGraphDatas@CGraphDataDrawer@@QAEXPAVCDC@@ABVCRect@@ABVCDisplayAttributes@@ABVCDrawingGraphData@@ABVCSubGraphData@@@Z
  0000a	64 a1 00 00 00
	00		 mov	 eax, DWORD PTR fs:0
  00010	50		 push	 eax
  00011	83 ec 64	 sub	 esp, 100		; 00000064H
  00014	53		 push	 ebx
  00015	56		 push	 esi
  00016	57		 push	 edi
  00017	a1 00 00 00 00	 mov	 eax, DWORD PTR ___security_cookie
  0001c	33 c5		 xor	 eax, ebp
  0001e	50		 push	 eax
  0001f	8d 45 f4	 lea	 eax, DWORD PTR __$EHRec$[ebp]
  00022	64 a3 00 00 00
	00		 mov	 DWORD PTR fs:0, eax
  00028	8b d9		 mov	 ebx, ecx
  0002a	0f 57 c0	 xorps	 xmm0, xmm0

; 49   : 	m_nDecimalDownCount(0),

  0002d	c7 45 cc 00 00
	00 00		 mov	 DWORD PTR _pricesInView$[ebp+16], 0

; 50   : 	m_dPipSize(0.0)
; 51   : {

  00034	8d 4d dc	 lea	 ecx, DWORD PTR _pricesInView$[ebp+32]
  00037	f2 0f 11 45 d4	 movsd	 QWORD PTR _pricesInView$[ebp+24], xmm0
  0003c	0f 11 45 bc	 movups	 XMMWORD PTR _pricesInView$[ebp], xmm0
  00040	ff 15 00 00 00
	00		 call	 DWORD PTR __imp_??0?$CStringT@DV?$StrTraitMFC_DLL@DV?$ChTraitsCRT@D@ATL@@@@@ATL@@QAE@XZ
  00046	8d 4d e0	 lea	 ecx, DWORD PTR _pricesInView$[ebp+36]
  00049	ff 15 00 00 00
	00		 call	 DWORD PTR __imp_??0?$CStringT@DV?$StrTraitMFC_DLL@DV?$ChTraitsCRT@D@ATL@@@@@ATL@@QAE@XZ

; 1232 : 	// ""
; 1233 : 	CPrices pricesInView;
; 1234 : 	m_dataInGraphRegionDrawer.DrawData(pDC, realRegion, displayAttributes, drawingGraphData, subGraphData, pricesInView);

  0004f	8b 7d 18	 mov	 edi, DWORD PTR _subGraphData$[ebp]
  00052	8d 45 bc	 lea	 eax, DWORD PTR _pricesInView$[ebp]
  00055	8b 75 14	 mov	 esi, DWORD PTR _drawingGraphData$[ebp]
  00058	8b cb		 mov	 ecx, ebx
  0005a	50		 push	 eax
  0005b	57		 push	 edi
  0005c	56		 push	 esi
  0005d	ff 75 10	 push	 DWORD PTR _displayAttributes$[ebp]
  00060	c7 45 fc 00 00
	00 00		 mov	 DWORD PTR __$EHRec$[ebp+8], 0
  00067	ff 75 0c	 push	 DWORD PTR _realRegion$[ebp]
  0006a	ff 75 08	 push	 DWORD PTR _pDC$[ebp]
  0006d	e8 00 00 00 00	 call	 ?DrawData@CDataInGraphRegionDrawer@@QAEXPAVCDC@@ABVCRect@@ABVCDisplayAttributes@@ABVCDrawingGraphData@@ABVCSubGraphData@@AAVCPrices@@@Z ; CDataInGraphRegionDrawer::DrawData

; 1235 : 
; 1236 : 	// (2007/2/22 - Seung-Won, Bae) Support Base Line Price in Compare Line
; 1237 : 	if( subGraphData.GetType() == CGraphBaseData::Line_Type && subGraphData.GetStyle().GetGraphLineStyle() == CGraphBaseData::ComparisonLine)

  00072	8b cf		 mov	 ecx, edi
  00074	ff 15 00 00 00
	00		 call	 DWORD PTR __imp_?GetType@CSubGraphDataBase@@QBE?AW4GRAPHTYPE@CGraphBaseData@@XZ
  0007a	83 f8 01	 cmp	 eax, 1
  0007d	75 2d		 jne	 SHORT $LN2@DrawGraphD
  0007f	8d 45 18	 lea	 eax, DWORD PTR $T4[ebp]
  00082	8b cf		 mov	 ecx, edi
  00084	50		 push	 eax
  00085	ff 15 00 00 00
	00		 call	 DWORD PTR __imp_?GetStyle@CSubGraphDataBase@@QBE?AVCGraphStyle@@XZ
  0008b	83 38 06	 cmp	 DWORD PTR [eax], 6
  0008e	75 1c		 jne	 SHORT $LN2@DrawGraphD

; 1238 : 	{
; 1239 : 		CPacket* pPacket = m_dataInRightScaleRegionDrawer.GetPacket( drawingGraphData);

  00090	56		 push	 esi
  00091	8d 4b 04	 lea	 ecx, DWORD PTR [ebx+4]
  00094	e8 00 00 00 00	 call	 ?GetPacket@CDataInRightScaleRegionDrawer@@QBEPAVCPacket@@ABVCDrawingGraphData@@@Z ; CDataInRightScaleRegionDrawer::GetPacket

; 1240 : 		if( pPacket) pricesInView.SetPrev( pPacket->GetStandardValue());

  00099	85 c0		 test	 eax, eax
  0009b	74 2d		 je	 SHORT $LN5@DrawGraphD
  0009d	6a 00		 push	 0
  0009f	8b c8		 mov	 ecx, eax
  000a1	ff 15 00 00 00
	00		 call	 DWORD PTR __imp_?GetStandardValue@CPacket@@QAENH@Z

; 65   : 	m_dPrevPrice = dPrice;

  000a7	dd 5d bc	 fstp	 QWORD PTR _pricesInView$[ebp]

; 1241 : 	}

  000aa	eb 1e		 jmp	 SHORT $LN5@DrawGraphD
$LN2@DrawGraphD:

; 1242 : 	// (2007/2/22 - Seung-Won, Bae) Do not support the Up/Down Info, But only Candle Graph
; 1243 : 	else if( subGraphData.GetType() != CGraphBaseData::Bong_Type) pricesInView.SetPrev( pricesInView.GetCur() - 1);

  000ac	8b cf		 mov	 ecx, edi
  000ae	ff 15 00 00 00
	00		 call	 DWORD PTR __imp_?GetType@CSubGraphDataBase@@QBE?AW4GRAPHTYPE@CGraphBaseData@@XZ
  000b4	85 c0		 test	 eax, eax
  000b6	74 12		 je	 SHORT $LN5@DrawGraphD
  000b8	f2 0f 10 45 c4	 movsd	 xmm0, QWORD PTR _pricesInView$[ebp+8]
  000bd	f2 0f 5c 05 00
	00 00 00	 subsd	 xmm0, QWORD PTR __real@3ff0000000000000

; 65   : 	m_dPrevPrice = dPrice;

  000c5	f2 0f 11 45 bc	 movsd	 QWORD PTR _pricesInView$[ebp], xmm0
$LN5@DrawGraphD:

; 1244 : 
; 1245 : 	// Y Scale    - ojtaso (20070807)
; 1246 : 	if(drawingGraphData.GetTextDrawing() && drawingGraphData.GetDisplayDataVertMinMax().IsInitialized())

  000ca	83 be e4 00 00
	00 00		 cmp	 DWORD PTR [esi+228], 0
  000d1	74 3a		 je	 SHORT $LN6@DrawGraphD
  000d3	8d 45 e4	 lea	 eax, DWORD PTR $T3[ebp]
  000d6	8b ce		 mov	 ecx, esi
  000d8	50		 push	 eax
  000d9	e8 00 00 00 00	 call	 ?GetDisplayDataVertMinMax@CDrawingGraphData@@QBE?AVCDisplayDataMinMax@@XZ ; CDrawingGraphData::GetDisplayDataVertMinMax
  000de	8b c8		 mov	 ecx, eax
  000e0	ff 15 00 00 00
	00		 call	 DWORD PTR __imp_?IsInitialized@CDisplayDataMinMax@@QBEHXZ
  000e6	85 c0		 test	 eax, eax
  000e8	74 23		 je	 SHORT $LN6@DrawGraphD

; 1247 : 	{
; 1248 : 		// "    ()"
; 1249 : 		m_dataInRightScaleRegionDrawer.DrawData(pDC, realRegion, displayAttributes, drawingGraphData, subGraphData.GetColor(), pricesInView);

  000ea	8d 45 bc	 lea	 eax, DWORD PTR _pricesInView$[ebp]
  000ed	8b cf		 mov	 ecx, edi
  000ef	50		 push	 eax
  000f0	8d 45 90	 lea	 eax, DWORD PTR $T2[ebp]
  000f3	50		 push	 eax
  000f4	ff 15 00 00 00
	00		 call	 DWORD PTR __imp_?GetColor@CSubGraphDataBase@@QBE?AVCGraphColor@@XZ
  000fa	50		 push	 eax
  000fb	56		 push	 esi
  000fc	ff 75 10	 push	 DWORD PTR _displayAttributes$[ebp]
  000ff	8d 4b 04	 lea	 ecx, DWORD PTR [ebx+4]
  00102	ff 75 0c	 push	 DWORD PTR _realRegion$[ebp]
  00105	ff 75 08	 push	 DWORD PTR _pDC$[ebp]
  00108	e8 00 00 00 00	 call	 ?DrawData@CDataInRightScaleRegionDrawer@@QAEXPAVCDC@@ABVCRect@@ABVCDisplayAttributes@@ABVCDrawingGraphData@@ABVCGraphColor@@ABVCPrices@@@Z ; CDataInRightScaleRegionDrawer::DrawData
$LN6@DrawGraphD:
  0010d	8d 4d e0	 lea	 ecx, DWORD PTR _pricesInView$[ebp+36]
  00110	ff 15 00 00 00
	00		 call	 DWORD PTR __imp_??1?$CStringT@DV?$StrTraitMFC_DLL@DV?$ChTraitsCRT@D@ATL@@@@@ATL@@QAE@XZ
  00116	8d 4d dc	 lea	 ecx, DWORD PTR _pricesInView$[ebp+32]
  00119	ff 15 00 00 00
	00		 call	 DWORD PTR __imp_??1?$CStringT@DV?$StrTraitMFC_DLL@DV?$ChTraitsCRT@D@ATL@@@@@ATL@@QAE@XZ

; 1250 : 	}
; 1251 : }

  0011f	8b 4d f4	 mov	 ecx, DWORD PTR __$EHRec$[ebp]
  00122	64 89 0d 00 00
	00 00		 mov	 DWORD PTR fs:0, ecx
  00129	59		 pop	 ecx
  0012a	5f		 pop	 edi
  0012b	5e		 pop	 esi
  0012c	5b		 pop	 ebx
  0012d	8b e5		 mov	 esp, ebp
  0012f	5d		 pop	 ebp
  00130	c2 14 00	 ret	 20			; 00000014H
_TEXT	ENDS
;	COMDAT text$x
text$x	SEGMENT
__unwindfunclet$?DrawGraphDatas@CGraphDataDrawer@@QAEXPAVCDC@@ABVCRect@@ABVCDisplayAttributes@@ABVCDrawingGraphData@@ABVCSubGraphData@@@Z$0:
  00000	8d 4d bc	 lea	 ecx, DWORD PTR _pricesInView$[ebp]
  00003	e9 00 00 00 00	 jmp	 ??1CPrices@@QAE@XZ
  00008	cc		 int	 3
  00009	cc		 int	 3
  0000a	cc		 int	 3
  0000b	cc		 int	 3
  0000c	cc		 int	 3
__ehhandler$?DrawGraphDatas@CGraphDataDrawer@@QAEXPAVCDC@@ABVCRect@@ABVCDisplayAttributes@@ABVCDrawingGraphData@@ABVCSubGraphData@@@Z:
  0000d	90		 npad	 1
  0000e	90		 npad	 1
  0000f	8b 54 24 08	 mov	 edx, DWORD PTR [esp+8]
  00013	8d 42 0c	 lea	 eax, DWORD PTR [edx+12]
  00016	8b 4a 8c	 mov	 ecx, DWORD PTR [edx-116]
  00019	33 c8		 xor	 ecx, eax
  0001b	e8 00 00 00 00	 call	 @__security_check_cookie@4
  00020	b8 00 00 00 00	 mov	 eax, OFFSET __ehfuncinfo$?DrawGraphDatas@CGraphDataDrawer@@QAEXPAVCDC@@ABVCRect@@ABVCDisplayAttributes@@ABVCDrawingGraphData@@ABVCSubGraphData@@@Z
  00025	e9 00 00 00 00	 jmp	 ___CxxFrameHandler3
text$x	ENDS
?DrawGraphDatas@CGraphDataDrawer@@QAEXPAVCDC@@ABVCRect@@ABVCDisplayAttributes@@ABVCDrawingGraphData@@ABVCSubGraphData@@@Z ENDP ; CGraphDataDrawer::DrawGraphDatas
; Function compile flags: /Ogtp
; File D:\git\src\IBK\IBK_DRFN\ProjSrc\SrcChartEx\ChartOCX\GraphDraw\GraphDataDrawer.cpp
;	COMDAT ?GetPacketAndDataEnd@CDataInRightScaleRegionDrawer@@ABE_NABVCTextInRightScaleRegionDrawer@@AAPAVCPacket@@AAH@Z
_TEXT	SEGMENT
$T2 = -16						; size = 4
__$EHRec$ = -12						; size = 12
_textData$ = 8						; size = 4
$T3 = 11						; size = 1
_pPacket$ = 12						; size = 4
_nRealDataEnd$ = 16					; size = 4
?GetPacketAndDataEnd@CDataInRightScaleRegionDrawer@@ABE_NABVCTextInRightScaleRegionDrawer@@AAPAVCPacket@@AAH@Z PROC ; CDataInRightScaleRegionDrawer::GetPacketAndDataEnd, COMDAT
; _this$ = ecx

; 1216 : {

  00000	55		 push	 ebp
  00001	8b ec		 mov	 ebp, esp
  00003	6a ff		 push	 -1
  00005	68 00 00 00 00	 push	 __ehhandler$?GetPacketAndDataEnd@CDataInRightScaleRegionDrawer@@ABE_NABVCTextInRightScaleRegionDrawer@@AAPAVCPacket@@AAH@Z
  0000a	64 a1 00 00 00
	00		 mov	 eax, DWORD PTR fs:0
  00010	50		 push	 eax
  00011	51		 push	 ecx
  00012	53		 push	 ebx
  00013	56		 push	 esi
  00014	57		 push	 edi
  00015	a1 00 00 00 00	 mov	 eax, DWORD PTR ___security_cookie
  0001a	33 c5		 xor	 eax, ebp
  0001c	50		 push	 eax
  0001d	8d 45 f4	 lea	 eax, DWORD PTR __$EHRec$[ebp]
  00020	64 a3 00 00 00
	00		 mov	 DWORD PTR fs:0, eax

; 1217 : 	if(!textData.IsTextDrawing())

  00026	8b 7d 08	 mov	 edi, DWORD PTR _textData$[ebp]
  00029	8b cf		 mov	 ecx, edi
  0002b	e8 00 00 00 00	 call	 ?IsTextDrawing@CTextInRightScaleRegionDrawer@@QBE_NXZ ; CTextInRightScaleRegionDrawer::IsTextDrawing
  00030	84 c0		 test	 al, al
  00032	75 14		 jne	 SHORT $LN2@GetPacketA

; 1223 : }

  00034	8b 4d f4	 mov	 ecx, DWORD PTR __$EHRec$[ebp]
  00037	64 89 0d 00 00
	00 00		 mov	 DWORD PTR fs:0, ecx
  0003e	59		 pop	 ecx
  0003f	5f		 pop	 edi
  00040	5e		 pop	 esi
  00041	5b		 pop	 ebx
  00042	8b e5		 mov	 esp, ebp
  00044	5d		 pop	 ebp
  00045	c2 0c 00	 ret	 12			; 0000000cH
$LN2@GetPacketA:

; 1218 : 		return false;
; 1219 : 
; 1220 : 	pPacket = CDrawingPacketFinder().GetPracticalPacket(textData.GetGraphName(), textData.GetSubGraphPacketList()->GetSubGraphPacketList());

  00048	8d 45 f0	 lea	 eax, DWORD PTR $T2[ebp]
  0004b	8b cf		 mov	 ecx, edi
  0004d	50		 push	 eax
  0004e	e8 00 00 00 00	 call	 ?GetGraphName@CTextInRightScaleRegionDrawer@@QBE?AV?$CStringT@DV?$StrTraitMFC_DLL@DV?$ChTraitsCRT@D@ATL@@@@@ATL@@XZ ; CTextInRightScaleRegionDrawer::GetGraphName
  00053	8b f0		 mov	 esi, eax
  00055	8b cf		 mov	 ecx, edi
  00057	c7 45 fc 00 00
	00 00		 mov	 DWORD PTR __$EHRec$[ebp+8], 0
  0005e	e8 00 00 00 00	 call	 ?GetSubGraphPacketList@CTextInRightScaleRegionDrawer@@QBEPAVCSubGraphPacketList@@XZ ; CTextInRightScaleRegionDrawer::GetSubGraphPacketList
  00063	8b c8		 mov	 ecx, eax
  00065	e8 00 00 00 00	 call	 ?GetSubGraphPacketList@CSubGraphPacketList@@QBEABV?$CList@PAVCPacket@@PAV1@@@XZ ; CSubGraphPacketList::GetSubGraphPacketList
  0006a	50		 push	 eax
  0006b	56		 push	 esi
  0006c	8d 4d 0b	 lea	 ecx, DWORD PTR $T3[ebp]
  0006f	e8 00 00 00 00	 call	 ?GetPracticalPacket@CDrawingPacketFinder@@QBEPAVCPacket@@ABV?$CStringT@DV?$StrTraitMFC_DLL@DV?$ChTraitsCRT@D@ATL@@@@@ATL@@ABV?$CList@PAVCPacket@@PAV1@@@@Z ; CDrawingPacketFinder::GetPracticalPacket
  00074	8b 75 0c	 mov	 esi, DWORD PTR _pPacket$[ebp]
  00077	8d 4d f0	 lea	 ecx, DWORD PTR $T2[ebp]
  0007a	c7 45 fc ff ff
	ff ff		 mov	 DWORD PTR __$EHRec$[ebp+8], -1
  00081	89 06		 mov	 DWORD PTR [esi], eax
  00083	ff 15 00 00 00
	00		 call	 DWORD PTR __imp_??1?$CStringT@DV?$StrTraitMFC_DLL@DV?$ChTraitsCRT@D@ATL@@@@@ATL@@QAE@XZ

; 1221 : 	nRealDataEnd = CRateDrawer::GetRealDataEnd(pPacket, textData.GetDataEnd());

  00089	8b cf		 mov	 ecx, edi
  0008b	e8 00 00 00 00	 call	 ?GetDataEnd@CTextInRightScaleRegionDrawer@@QBEHXZ ; CTextInRightScaleRegionDrawer::GetDataEnd
  00090	8b 1e		 mov	 ebx, DWORD PTR [esi]
  00092	8b f8		 mov	 edi, eax

; 318  : 	if(pPacket == NULL || pPacket->GetnumericDataList() == NULL)

  00094	85 db		 test	 ebx, ebx
  00096	74 1c		 je	 SHORT $LN7@GetPacketA
  00098	8b 35 00 00 00
	00		 mov	 esi, DWORD PTR __imp_?GetnumericDataList@CPacket@@QAEPAV?$CList@NN@@XZ
  0009e	8b cb		 mov	 ecx, ebx
  000a0	ff d6		 call	 esi
  000a2	85 c0		 test	 eax, eax
  000a4	74 0e		 je	 SHORT $LN7@GetPacketA

; 319  : 		return nDataEnd;
; 320  : 
; 321  : 	int nDataCount = pPacket->GetnumericDataList()->GetCount();

  000a6	8b cb		 mov	 ecx, ebx
  000a8	ff d6		 call	 esi
  000aa	8b 40 0c	 mov	 eax, DWORD PTR [eax+12]

; 322  : 	if(nDataEnd >= nDataCount)

  000ad	3b f8		 cmp	 edi, eax
  000af	7c 03		 jl	 SHORT $LN7@GetPacketA

; 323  : 		return (nDataCount - 1);

  000b1	8d 78 ff	 lea	 edi, DWORD PTR [eax-1]
$LN7@GetPacketA:

; 1221 : 	nRealDataEnd = CRateDrawer::GetRealDataEnd(pPacket, textData.GetDataEnd());

  000b4	8b 45 10	 mov	 eax, DWORD PTR _nRealDataEnd$[ebp]
  000b7	89 38		 mov	 DWORD PTR [eax], edi

; 1222 : 	return true;

  000b9	b0 01		 mov	 al, 1

; 1223 : }

  000bb	8b 4d f4	 mov	 ecx, DWORD PTR __$EHRec$[ebp]
  000be	64 89 0d 00 00
	00 00		 mov	 DWORD PTR fs:0, ecx
  000c5	59		 pop	 ecx
  000c6	5f		 pop	 edi
  000c7	5e		 pop	 esi
  000c8	5b		 pop	 ebx
  000c9	8b e5		 mov	 esp, ebp
  000cb	5d		 pop	 ebp
  000cc	c2 0c 00	 ret	 12			; 0000000cH
_TEXT	ENDS
;	COMDAT text$x
text$x	SEGMENT
__unwindfunclet$?GetPacketAndDataEnd@CDataInRightScaleRegionDrawer@@ABE_NABVCTextInRightScaleRegionDrawer@@AAPAVCPacket@@AAH@Z$0:
  00000	8d 4d f0	 lea	 ecx, DWORD PTR $T2[ebp]
  00003	ff 25 00 00 00
	00		 jmp	 DWORD PTR __imp_??1?$CStringT@DV?$StrTraitMFC_DLL@DV?$ChTraitsCRT@D@ATL@@@@@ATL@@QAE@XZ
  00009	cc		 int	 3
  0000a	cc		 int	 3
  0000b	cc		 int	 3
  0000c	cc		 int	 3
  0000d	cc		 int	 3
__ehhandler$?GetPacketAndDataEnd@CDataInRightScaleRegionDrawer@@ABE_NABVCTextInRightScaleRegionDrawer@@AAPAVCPacket@@AAH@Z:
  0000e	90		 npad	 1
  0000f	90		 npad	 1
  00010	8b 54 24 08	 mov	 edx, DWORD PTR [esp+8]
  00014	8d 42 0c	 lea	 eax, DWORD PTR [edx+12]
  00017	8b 4a ec	 mov	 ecx, DWORD PTR [edx-20]
  0001a	33 c8		 xor	 ecx, eax
  0001c	e8 00 00 00 00	 call	 @__security_check_cookie@4
  00021	b8 00 00 00 00	 mov	 eax, OFFSET __ehfuncinfo$?GetPacketAndDataEnd@CDataInRightScaleRegionDrawer@@ABE_NABVCTextInRightScaleRegionDrawer@@AAPAVCPacket@@AAH@Z
  00026	e9 00 00 00 00	 jmp	 ___CxxFrameHandler3
text$x	ENDS
?GetPacketAndDataEnd@CDataInRightScaleRegionDrawer@@ABE_NABVCTextInRightScaleRegionDrawer@@AAPAVCPacket@@AAH@Z ENDP ; CDataInRightScaleRegionDrawer::GetPacketAndDataEnd
; Function compile flags: /Ogtp
; File D:\git\src\IBK\IBK_DRFN\ProjSrc\SrcChartEx\ChartOCX\GraphDraw\GraphDataDrawer.cpp
; File C:\Program Files (x86)\Microsoft Visual Studio\2019\Community\VC\Tools\MSVC\14.29.30133\atlmfc\include\cstringt.h
; File D:\git\src\IBK\IBK_DRFN\ProjSrc\SrcChartEx\ChartOCX\GraphDraw\GraphDataDrawer.cpp
; File C:\Program Files (x86)\Microsoft Visual Studio\2019\Community\VC\Tools\MSVC\14.29.30133\atlmfc\include\cstringt.h
; File D:\git\src\IBK\IBK_DRFN\ProjSrc\SrcChartEx\ChartOCX\GraphDraw\GraphDataDrawer.cpp
; File C:\Program Files (x86)\Microsoft Visual Studio\2019\Community\VC\Tools\MSVC\14.29.30133\atlmfc\include\cstringt.h
; File D:\git\src\IBK\IBK_DRFN\ProjSrc\SrcChartEx\ChartOCX\GraphDraw\GraphDataDrawer.cpp
;	COMDAT ?IsGraphDataDraw_Rate@CDataInRightScaleRegionDrawer@@ABE_NABVCRect@@ABVCPrices@@@Z
_TEXT	SEGMENT
__$EHRec$ = -12						; size = 12
_region$ = 8						; size = 4
$T2 = 12						; size = 4
_prices$ = 12						; size = 4
?IsGraphDataDraw_Rate@CDataInRightScaleRegionDrawer@@ABE_NABVCRect@@ABVCPrices@@@Z PROC ; CDataInRightScaleRegionDrawer::IsGraphDataDraw_Rate, COMDAT
; _this$ = ecx

; 1201 : {

  00000	55		 push	 ebp
  00001	8b ec		 mov	 ebp, esp
  00003	6a ff		 push	 -1
  00005	68 00 00 00 00	 push	 __ehhandler$?IsGraphDataDraw_Rate@CDataInRightScaleRegionDrawer@@ABE_NABVCRect@@ABVCPrices@@@Z
  0000a	64 a1 00 00 00
	00		 mov	 eax, DWORD PTR fs:0
  00010	50		 push	 eax
  00011	53		 push	 ebx
  00012	a1 00 00 00 00	 mov	 eax, DWORD PTR ___security_cookie
  00017	33 c5		 xor	 eax, ebp
  00019	50		 push	 eax
  0001a	8d 45 f4	 lea	 eax, DWORD PTR __$EHRec$[ebp]
  0001d	64 a3 00 00 00
	00		 mov	 DWORD PTR fs:0, eax

; 96   : 	return m_dPrevPrice;

  00023	8b 4d 0c	 mov	 ecx, DWORD PTR _prices$[ebp]
  00026	f2 0f 10 01	 movsd	 xmm0, QWORD PTR [ecx]

; 1202 : 	//2007.06.21 by LYH (     )
; 1203 : 	//if(region.Height() < 20)
; 1204 : 	//	return false;
; 1205 : 
; 1206 : 	if(prices.GetPrev() != 0.0)

  0002a	66 0f 2e 05 00
	00 00 00	 ucomisd xmm0, QWORD PTR __real@0000000000000000
  00032	9f		 lahf
  00033	f6 c4 44	 test	 ah, 68			; 00000044H
  00036	7b 14		 jnp	 SHORT $LN2@IsGraphDat

; 1207 : 		return true;

  00038	b0 01		 mov	 al, 1

; 1212 : }

  0003a	8b 4d f4	 mov	 ecx, DWORD PTR __$EHRec$[ebp]
  0003d	64 89 0d 00 00
	00 00		 mov	 DWORD PTR fs:0, ecx
  00044	59		 pop	 ecx
  00045	5b		 pop	 ebx
  00046	8b e5		 mov	 esp, ebp
  00048	5d		 pop	 ebp
  00049	c2 08 00	 ret	 8
$LN2@IsGraphDat:

; 122  : 	return m_strDataUnit;

  0004c	8d 41 20	 lea	 eax, DWORD PTR [ecx+32]
  0004f	50		 push	 eax
  00050	8d 4d 0c	 lea	 ecx, DWORD PTR $T2[ebp]
  00053	ff 15 00 00 00
	00		 call	 DWORD PTR __imp_??0?$CStringT@DV?$StrTraitMFC_DLL@DV?$ChTraitsCRT@D@ATL@@@@@ATL@@QAE@ABV01@@Z
; File C:\Program Files (x86)\Microsoft Visual Studio\2019\Community\VC\Tools\MSVC\14.29.30133\atlmfc\include\cstringt.h

; 2567 : 		return( str1.Compare( psz2 ) != 0 );

  00059	68 00 00 00 00	 push	 OFFSET ??_C@_01FGNFDNOH@?$CF@
  0005e	8d 4d 0c	 lea	 ecx, DWORD PTR $T2[ebp]
; File D:\git\src\IBK\IBK_DRFN\ProjSrc\SrcChartEx\ChartOCX\GraphDraw\GraphDataDrawer.cpp

; 1211 : 	return (prices.GetDataUnit() != "%");

  00061	c7 45 fc 00 00
	00 00		 mov	 DWORD PTR __$EHRec$[ebp+8], 0
; File C:\Program Files (x86)\Microsoft Visual Studio\2019\Community\VC\Tools\MSVC\14.29.30133\atlmfc\include\cstringt.h

; 2567 : 		return( str1.Compare( psz2 ) != 0 );

  00068	ff 15 00 00 00
	00		 call	 DWORD PTR __imp_?Compare@?$CStringT@DV?$StrTraitMFC_DLL@DV?$ChTraitsCRT@D@ATL@@@@@ATL@@QBEHPBD@Z
  0006e	85 c0		 test	 eax, eax
; File D:\git\src\IBK\IBK_DRFN\ProjSrc\SrcChartEx\ChartOCX\GraphDraw\GraphDataDrawer.cpp

; 1211 : 	return (prices.GetDataUnit() != "%");

  00070	8d 4d 0c	 lea	 ecx, DWORD PTR $T2[ebp]
; File C:\Program Files (x86)\Microsoft Visual Studio\2019\Community\VC\Tools\MSVC\14.29.30133\atlmfc\include\cstringt.h

; 2567 : 		return( str1.Compare( psz2 ) != 0 );

  00073	0f 95 c3	 setne	 bl
; File D:\git\src\IBK\IBK_DRFN\ProjSrc\SrcChartEx\ChartOCX\GraphDraw\GraphDataDrawer.cpp

; 1211 : 	return (prices.GetDataUnit() != "%");

  00076	ff 15 00 00 00
	00		 call	 DWORD PTR __imp_??1?$CStringT@DV?$StrTraitMFC_DLL@DV?$ChTraitsCRT@D@ATL@@@@@ATL@@QAE@XZ
  0007c	8a c3		 mov	 al, bl

; 1212 : }

  0007e	8b 4d f4	 mov	 ecx, DWORD PTR __$EHRec$[ebp]
  00081	64 89 0d 00 00
	00 00		 mov	 DWORD PTR fs:0, ecx
  00088	59		 pop	 ecx
  00089	5b		 pop	 ebx
  0008a	8b e5		 mov	 esp, ebp
  0008c	5d		 pop	 ebp
  0008d	c2 08 00	 ret	 8
_TEXT	ENDS
;	COMDAT text$x
text$x	SEGMENT
__unwindfunclet$?IsGraphDataDraw_Rate@CDataInRightScaleRegionDrawer@@ABE_NABVCRect@@ABVCPrices@@@Z$0:
  00000	8d 4d 0c	 lea	 ecx, DWORD PTR $T2[ebp]
  00003	ff 25 00 00 00
	00		 jmp	 DWORD PTR __imp_??1?$CStringT@DV?$StrTraitMFC_DLL@DV?$ChTraitsCRT@D@ATL@@@@@ATL@@QAE@XZ
  00009	cc		 int	 3
  0000a	cc		 int	 3
  0000b	cc		 int	 3
  0000c	cc		 int	 3
  0000d	cc		 int	 3
__ehhandler$?IsGraphDataDraw_Rate@CDataInRightScaleRegionDrawer@@ABE_NABVCRect@@ABVCPrices@@@Z:
  0000e	90		 npad	 1
  0000f	90		 npad	 1
  00010	8b 54 24 08	 mov	 edx, DWORD PTR [esp+8]
  00014	8d 42 0c	 lea	 eax, DWORD PTR [edx+12]
  00017	8b 4a f8	 mov	 ecx, DWORD PTR [edx-8]
  0001a	33 c8		 xor	 ecx, eax
  0001c	e8 00 00 00 00	 call	 @__security_check_cookie@4
  00021	b8 00 00 00 00	 mov	 eax, OFFSET __ehfuncinfo$?IsGraphDataDraw_Rate@CDataInRightScaleRegionDrawer@@ABE_NABVCRect@@ABVCPrices@@@Z
  00026	e9 00 00 00 00	 jmp	 ___CxxFrameHandler3
text$x	ENDS
?IsGraphDataDraw_Rate@CDataInRightScaleRegionDrawer@@ABE_NABVCRect@@ABVCPrices@@@Z ENDP ; CDataInRightScaleRegionDrawer::IsGraphDataDraw_Rate
; Function compile flags: /Ogtp
; File D:\git\src\IBK\IBK_DRFN\ProjSrc\SrcChartEx\ChartOCX\GraphDraw\GraphDataDrawer.cpp
; File C:\Program Files (x86)\Microsoft Visual Studio\2019\Community\VC\Tools\MSVC\14.29.30133\atlmfc\include\atltypes.h
; File D:\git\src\IBK\IBK_DRFN\ProjSrc\SrcChartEx\ChartOCX\GraphDraw\GraphDataDrawer.cpp
;	COMDAT ?IsGraphDataDraw@CDataInRightScaleRegionDrawer@@ABE_NABVCRect@@@Z
_TEXT	SEGMENT
_region$ = 8						; size = 4
?IsGraphDataDraw@CDataInRightScaleRegionDrawer@@ABE_NABVCRect@@@Z PROC ; CDataInRightScaleRegionDrawer::IsGraphDataDraw, COMDAT
; _this$ = ecx

; 1196 : {

  00000	55		 push	 ebp
  00001	8b ec		 mov	 ebp, esp
; File C:\Program Files (x86)\Microsoft Visual Studio\2019\Community\VC\Tools\MSVC\14.29.30133\atlmfc\include\atltypes.h

; 576  : 	return right - left;

  00003	8b 45 08	 mov	 eax, DWORD PTR _region$[ebp]
  00006	8b 48 08	 mov	 ecx, DWORD PTR [eax+8]
  00009	2b 08		 sub	 ecx, DWORD PTR [eax]
; File D:\git\src\IBK\IBK_DRFN\ProjSrc\SrcChartEx\ChartOCX\GraphDraw\GraphDataDrawer.cpp

; 1197 : 	return (region.Width() > 10);

  0000b	83 f9 0a	 cmp	 ecx, 10			; 0000000aH
  0000e	0f 9f c0	 setg	 al

; 1198 : }

  00011	5d		 pop	 ebp
  00012	c2 04 00	 ret	 4
?IsGraphDataDraw@CDataInRightScaleRegionDrawer@@ABE_NABVCRect@@@Z ENDP ; CDataInRightScaleRegionDrawer::IsGraphDataDraw
_TEXT	ENDS
; Function compile flags: /Ogtp
; File D:\git\src\IBK\IBK_DRFN\ProjSrc\SrcChartEx\ChartOCX\GraphDraw\GraphDataDrawer.cpp
; File C:\Program Files (x86)\Microsoft Visual Studio\2019\Community\VC\Tools\MSVC\14.29.30133\atlmfc\include\atlsimpstr.h
; File D:\git\src\IBK\IBK_DRFN\ProjSrc\SrcChartEx\ChartOCX\GraphDraw\GraphDataDrawer.cpp
; File C:\Program Files (x86)\Microsoft Visual Studio\2019\Community\VC\Tools\MSVC\14.29.30133\atlmfc\include\cstringt.h
; File D:\git\src\IBK\IBK_DRFN\ProjSrc\SrcChartEx\ChartOCX\GraphDraw\GraphDataDrawer.cpp
; File C:\Program Files (x86)\Microsoft Visual Studio\2019\Community\VC\Tools\MSVC\14.29.30133\atlmfc\include\cstringt.h
; File C:\Program Files (x86)\Microsoft Visual Studio\2019\Community\VC\Tools\MSVC\14.29.30133\atlmfc\include\atlsimpstr.h
; File C:\Program Files (x86)\Microsoft Visual Studio\2019\Community\VC\Tools\MSVC\14.29.30133\atlmfc\include\cstringt.h
; File D:\git\src\IBK\IBK_DRFN\ProjSrc\SrcChartEx\ChartOCX\GraphDraw\GraphDataDrawer.cpp
;	COMDAT ?GetText_CurrentPrice@CDataInRightScaleRegionDrawer@@ABE?AV?$CStringT@DV?$StrTraitMFC_DLL@DV?$ChTraitsCRT@D@ATL@@@@@ATL@@ABVCPrices@@ABV23@@Z
_TEXT	SEGMENT
$T2 = -28						; size = 8
$T3 = -20						; size = 4
_strCurPrice$ = -16					; size = 4
__$EHRec$ = -12						; size = 12
___$ReturnUdt$ = 8					; size = 4
$T4 = 12						; size = 4
$T5 = 12						; size = 4
_prices$ = 12						; size = 4
$T6 = 16						; size = 4
_strPacketType$7 = 16					; size = 4
$T8 = 16						; size = 4
$T9 = 16						; size = 4
_p_strPacketType$ = 16					; size = 4
?GetText_CurrentPrice@CDataInRightScaleRegionDrawer@@ABE?AV?$CStringT@DV?$StrTraitMFC_DLL@DV?$ChTraitsCRT@D@ATL@@@@@ATL@@ABVCPrices@@ABV23@@Z PROC ; CDataInRightScaleRegionDrawer::GetText_CurrentPrice, COMDAT
; _this$ = ecx

; 1132 : {

  00000	55		 push	 ebp
  00001	8b ec		 mov	 ebp, esp
  00003	6a ff		 push	 -1
  00005	68 00 00 00 00	 push	 __ehhandler$?GetText_CurrentPrice@CDataInRightScaleRegionDrawer@@ABE?AV?$CStringT@DV?$StrTraitMFC_DLL@DV?$ChTraitsCRT@D@ATL@@@@@ATL@@ABVCPrices@@ABV23@@Z
  0000a	64 a1 00 00 00
	00		 mov	 eax, DWORD PTR fs:0
  00010	50		 push	 eax
  00011	83 ec 10	 sub	 esp, 16			; 00000010H
  00014	56		 push	 esi
  00015	57		 push	 edi
  00016	a1 00 00 00 00	 mov	 eax, DWORD PTR ___security_cookie
  0001b	33 c5		 xor	 eax, ebp
  0001d	50		 push	 eax
  0001e	8d 45 f4	 lea	 eax, DWORD PTR __$EHRec$[ebp]
  00021	64 a3 00 00 00
	00		 mov	 DWORD PTR fs:0, eax

; 1133 : 	// 20080910 JS.Kim		8/32 	<<
; 1134 : 	/*
; 1135 : 	CString strCurPrice = CDataConversion::DoubleToString(prices.GetCur(), prices.GetDecimalDownCount());
; 1136 : 
; 1137 : 	if( p_strPacketType.Find( '.') < 0)
; 1138 : 	{
; 1139 : 		CString strPacketType( p_strPacketType);
; 1140 : 		int nFactor = strPacketType.Replace( '0', '_');
; 1141 : 		strCurPrice = strCurPrice.Left( strCurPrice.GetLength() - nFactor);
; 1142 : 	}
; 1143 : 
; 1144 : 	return (CDataConversion::GetStringThousandFormat(strCurPrice) + prices.GetDataType());
; 1145 : 	*/
; 1146 : 	CString strCurPrice;

  00027	8d 4d f0	 lea	 ecx, DWORD PTR _strCurPrice$[ebp]
  0002a	c7 45 ec 00 00
	00 00		 mov	 DWORD PTR $T3[ebp], 0
  00031	ff 15 00 00 00
	00		 call	 DWORD PTR __imp_??0?$CStringT@DV?$StrTraitMFC_DLL@DV?$ChTraitsCRT@D@ATL@@@@@ATL@@QAE@XZ

; 1147 : 
; 1148 : 	if( CDataConversion::IsBaseFormat(p_strPacketType) )

  00037	8b 75 10	 mov	 esi, DWORD PTR _p_strPacketType$[ebp]
  0003a	56		 push	 esi
  0003b	c7 45 fc 00 00
	00 00		 mov	 DWORD PTR __$EHRec$[ebp+8], 0
  00042	e8 00 00 00 00	 call	 ?IsBaseFormat@CDataConversion@@SA_NABV?$CStringT@DV?$StrTraitMFC_DLL@DV?$ChTraitsCRT@D@ATL@@@@@ATL@@@Z ; CDataConversion::IsBaseFormat
  00047	8b 7d 0c	 mov	 edi, DWORD PTR _prices$[ebp]
  0004a	83 c4 04	 add	 esp, 4
  0004d	84 c0		 test	 al, al
  0004f	8d 45 e4	 lea	 eax, DWORD PTR $T2[ebp]
  00052	f2 0f 10 47 08	 movsd	 xmm0, QWORD PTR [edi+8]
  00057	f2 0f 11 45 e4	 movsd	 QWORD PTR $T2[ebp], xmm0
  0005c	74 21		 je	 SHORT $LN2@GetText_Cu

; 1149 : 	{
; 1150 : 		strCurPrice = CDataConversion::DoubleToString(prices.GetCur(), p_strPacketType);

  0005e	56		 push	 esi
  0005f	50		 push	 eax
  00060	8d 45 10	 lea	 eax, DWORD PTR $T9[ebp]
  00063	50		 push	 eax
  00064	e8 00 00 00 00	 call	 ?DoubleToString@CDataConversion@@SA?AV?$CStringT@DV?$StrTraitMFC_DLL@DV?$ChTraitsCRT@D@ATL@@@@@ATL@@ABNABV23@@Z ; CDataConversion::DoubleToString
  00069	83 c4 0c	 add	 esp, 12			; 0000000cH
  0006c	50		 push	 eax
  0006d	8d 4d f0	 lea	 ecx, DWORD PTR _strCurPrice$[ebp]
  00070	c6 45 fc 01	 mov	 BYTE PTR __$EHRec$[ebp+8], 1
  00074	ff 15 00 00 00
	00		 call	 DWORD PTR __imp_??4?$CStringT@DV?$StrTraitMFC_DLL@DV?$ChTraitsCRT@D@ATL@@@@@ATL@@QAEAAV01@ABV01@@Z

; 1151 : 	}

  0007a	e9 83 00 00 00	 jmp	 $LN40@GetText_Cu
$LN2@GetText_Cu:

; 1152 : 	else
; 1153 : 	{
; 1154 : 		strCurPrice = CDataConversion::DoubleToString(prices.GetCur(), prices.GetDecimalDownCount());

  0007f	ff 77 10	 push	 DWORD PTR [edi+16]
  00082	50		 push	 eax
  00083	8d 45 10	 lea	 eax, DWORD PTR $T8[ebp]
  00086	50		 push	 eax
  00087	e8 00 00 00 00	 call	 ?DoubleToString@CDataConversion@@SA?AV?$CStringT@DV?$StrTraitMFC_DLL@DV?$ChTraitsCRT@D@ATL@@@@@ATL@@ABNH@Z ; CDataConversion::DoubleToString
  0008c	83 c4 0c	 add	 esp, 12			; 0000000cH
  0008f	50		 push	 eax
  00090	8d 4d f0	 lea	 ecx, DWORD PTR _strCurPrice$[ebp]
  00093	c6 45 fc 02	 mov	 BYTE PTR __$EHRec$[ebp+8], 2
  00097	ff 15 00 00 00
	00		 call	 DWORD PTR __imp_??4?$CStringT@DV?$StrTraitMFC_DLL@DV?$ChTraitsCRT@D@ATL@@@@@ATL@@QAEAAV01@ABV01@@Z
  0009d	8d 4d 10	 lea	 ecx, DWORD PTR $T8[ebp]
  000a0	c6 45 fc 00	 mov	 BYTE PTR __$EHRec$[ebp+8], 0
  000a4	ff 15 00 00 00
	00		 call	 DWORD PTR __imp_??1?$CStringT@DV?$StrTraitMFC_DLL@DV?$ChTraitsCRT@D@ATL@@@@@ATL@@QAE@XZ

; 1155 : 
; 1156 : 		if( p_strPacketType.Find( '.') < 0)

  000aa	6a 00		 push	 0
  000ac	6a 2e		 push	 46			; 0000002eH
  000ae	8b ce		 mov	 ecx, esi
  000b0	ff 15 00 00 00
	00		 call	 DWORD PTR __imp_?Find@?$CStringT@DV?$StrTraitMFC_DLL@DV?$ChTraitsCRT@D@ATL@@@@@ATL@@QBEHDH@Z
  000b6	85 c0		 test	 eax, eax
  000b8	79 55		 jns	 SHORT $LN4@GetText_Cu

; 1157 : 		{
; 1158 : 			CString strPacketType( p_strPacketType);

  000ba	56		 push	 esi
  000bb	8d 4d 10	 lea	 ecx, DWORD PTR _strPacketType$7[ebp]
  000be	ff 15 00 00 00
	00		 call	 DWORD PTR __imp_??0?$CStringT@DV?$StrTraitMFC_DLL@DV?$ChTraitsCRT@D@ATL@@@@@ATL@@QAE@ABV01@@Z

; 1159 : 			int nFactor = strPacketType.Replace( '0', '_');

  000c4	6a 5f		 push	 95			; 0000005fH
  000c6	6a 30		 push	 48			; 00000030H
  000c8	8d 4d 10	 lea	 ecx, DWORD PTR _strPacketType$7[ebp]
  000cb	c6 45 fc 03	 mov	 BYTE PTR __$EHRec$[ebp+8], 3
  000cf	ff 15 00 00 00
	00		 call	 DWORD PTR __imp_?Replace@?$CStringT@DV?$StrTraitMFC_DLL@DV?$ChTraitsCRT@D@ATL@@@@@ATL@@QAEHDD@Z
; File C:\Program Files (x86)\Microsoft Visual Studio\2019\Community\VC\Tools\MSVC\14.29.30133\atlmfc\include\atlsimpstr.h

; 519  : 		return( GetData()->nDataLength );

  000d5	8b 4d f0	 mov	 ecx, DWORD PTR _strCurPrice$[ebp]
  000d8	8b 49 f4	 mov	 ecx, DWORD PTR [ecx-12]
; File D:\git\src\IBK\IBK_DRFN\ProjSrc\SrcChartEx\ChartOCX\GraphDraw\GraphDataDrawer.cpp

; 1160 : 			strCurPrice = strCurPrice.Left( strCurPrice.GetLength() - nFactor);

  000db	2b c8		 sub	 ecx, eax
  000dd	8d 45 0c	 lea	 eax, DWORD PTR $T5[ebp]
  000e0	51		 push	 ecx
  000e1	50		 push	 eax
  000e2	8d 4d f0	 lea	 ecx, DWORD PTR _strCurPrice$[ebp]
  000e5	ff 15 00 00 00
	00		 call	 DWORD PTR __imp_?Left@?$CStringT@DV?$StrTraitMFC_DLL@DV?$ChTraitsCRT@D@ATL@@@@@ATL@@QBE?AV12@H@Z
  000eb	50		 push	 eax
  000ec	8d 4d f0	 lea	 ecx, DWORD PTR _strCurPrice$[ebp]
  000ef	c6 45 fc 04	 mov	 BYTE PTR __$EHRec$[ebp+8], 4
  000f3	ff 15 00 00 00
	00		 call	 DWORD PTR __imp_??4?$CStringT@DV?$StrTraitMFC_DLL@DV?$ChTraitsCRT@D@ATL@@@@@ATL@@QAEAAV01@ABV01@@Z
  000f9	8d 4d 0c	 lea	 ecx, DWORD PTR $T5[ebp]
  000fc	ff 15 00 00 00
	00		 call	 DWORD PTR __imp_??1?$CStringT@DV?$StrTraitMFC_DLL@DV?$ChTraitsCRT@D@ATL@@@@@ATL@@QAE@XZ
$LN40@GetText_Cu:

; 122  : 	return m_strDataUnit;

  00102	8d 4d 10	 lea	 ecx, DWORD PTR _strPacketType$7[ebp]
  00105	c6 45 fc 00	 mov	 BYTE PTR __$EHRec$[ebp+8], 0
  00109	ff 15 00 00 00
	00		 call	 DWORD PTR __imp_??1?$CStringT@DV?$StrTraitMFC_DLL@DV?$ChTraitsCRT@D@ATL@@@@@ATL@@QAE@XZ
$LN4@GetText_Cu:
  0010f	8d 47 20	 lea	 eax, DWORD PTR [edi+32]
  00112	50		 push	 eax
  00113	8d 4d 10	 lea	 ecx, DWORD PTR $T6[ebp]
  00116	ff 15 00 00 00
	00		 call	 DWORD PTR __imp_??0?$CStringT@DV?$StrTraitMFC_DLL@DV?$ChTraitsCRT@D@ATL@@@@@ATL@@QAE@ABV01@@Z

; 1165 : 	return (CDataConversion::GetStringThousandFormat(strCurPrice) + prices.GetDataUnit());

  0011c	8d 45 f0	 lea	 eax, DWORD PTR _strCurPrice$[ebp]
  0011f	c6 45 fc 05	 mov	 BYTE PTR __$EHRec$[ebp+8], 5
  00123	50		 push	 eax
  00124	8d 45 0c	 lea	 eax, DWORD PTR $T4[ebp]
  00127	50		 push	 eax
  00128	e8 00 00 00 00	 call	 ?GetStringThousandFormat@CDataConversion@@SA?AV?$CStringT@DV?$StrTraitMFC_DLL@DV?$ChTraitsCRT@D@ATL@@@@@ATL@@ABV23@@Z ; CDataConversion::GetStringThousandFormat
  0012d	83 c4 08	 add	 esp, 8
  00130	8b f0		 mov	 esi, eax
; File C:\Program Files (x86)\Microsoft Visual Studio\2019\Community\VC\Tools\MSVC\14.29.30133\atlmfc\include\cstringt.h

; 2390 : 		CStringT strResult( str1.GetManager() );

  00132	8b ce		 mov	 ecx, esi
; File D:\git\src\IBK\IBK_DRFN\ProjSrc\SrcChartEx\ChartOCX\GraphDraw\GraphDataDrawer.cpp

; 1165 : 	return (CDataConversion::GetStringThousandFormat(strCurPrice) + prices.GetDataUnit());

  00134	c6 45 fc 07	 mov	 BYTE PTR __$EHRec$[ebp+8], 7
; File C:\Program Files (x86)\Microsoft Visual Studio\2019\Community\VC\Tools\MSVC\14.29.30133\atlmfc\include\cstringt.h

; 2390 : 		CStringT strResult( str1.GetManager() );

  00138	ff 15 00 00 00
	00		 call	 DWORD PTR __imp_?GetManager@?$CStringT@DV?$StrTraitMFC_DLL@DV?$ChTraitsCRT@D@ATL@@@@@ATL@@QBEPAUIAtlStringMgr@2@XZ
  0013e	8b 7d 08	 mov	 edi, DWORD PTR ___$ReturnUdt$[ebp]
  00141	8b cf		 mov	 ecx, edi
  00143	50		 push	 eax
  00144	ff 15 00 00 00
	00		 call	 DWORD PTR __imp_??0?$CStringT@DV?$StrTraitMFC_DLL@DV?$ChTraitsCRT@D@ATL@@@@@ATL@@QAE@PAUIAtlStringMgr@1@@Z

; 2391 : 
; 2392 : 		CThisSimpleString::Concatenate( strResult, str1, str1.GetLength(), str2, str2.GetLength() );

  0014a	8b 45 10	 mov	 eax, DWORD PTR $T6[ebp]
; File C:\Program Files (x86)\Microsoft Visual Studio\2019\Community\VC\Tools\MSVC\14.29.30133\atlmfc\include\atlsimpstr.h

; 519  : 		return( GetData()->nDataLength );

  0014d	8b 0e		 mov	 ecx, DWORD PTR [esi]
; File C:\Program Files (x86)\Microsoft Visual Studio\2019\Community\VC\Tools\MSVC\14.29.30133\atlmfc\include\cstringt.h

; 2394 : 		return( strResult );

  0014f	c7 45 ec 06 00
	00 00		 mov	 DWORD PTR $T3[ebp], 6
  00156	ff 70 f4	 push	 DWORD PTR [eax-12]
  00159	50		 push	 eax
  0015a	ff 71 f4	 push	 DWORD PTR [ecx-12]
  0015d	51		 push	 ecx
  0015e	57		 push	 edi
  0015f	ff 15 00 00 00
	00		 call	 DWORD PTR __imp_?Concatenate@?$CSimpleStringT@D$00@ATL@@KAXAAV12@PBDH1H@Z
  00165	83 c4 14	 add	 esp, 20			; 00000014H
; File D:\git\src\IBK\IBK_DRFN\ProjSrc\SrcChartEx\ChartOCX\GraphDraw\GraphDataDrawer.cpp

; 1165 : 	return (CDataConversion::GetStringThousandFormat(strCurPrice) + prices.GetDataUnit());

  00168	8d 4d 0c	 lea	 ecx, DWORD PTR $T4[ebp]
  0016b	ff 15 00 00 00
	00		 call	 DWORD PTR __imp_??1?$CStringT@DV?$StrTraitMFC_DLL@DV?$ChTraitsCRT@D@ATL@@@@@ATL@@QAE@XZ
  00171	8d 4d 10	 lea	 ecx, DWORD PTR $T6[ebp]
  00174	ff 15 00 00 00
	00		 call	 DWORD PTR __imp_??1?$CStringT@DV?$StrTraitMFC_DLL@DV?$ChTraitsCRT@D@ATL@@@@@ATL@@QAE@XZ
  0017a	8d 4d f0	 lea	 ecx, DWORD PTR _strCurPrice$[ebp]
  0017d	ff 15 00 00 00
	00		 call	 DWORD PTR __imp_??1?$CStringT@DV?$StrTraitMFC_DLL@DV?$ChTraitsCRT@D@ATL@@@@@ATL@@QAE@XZ
  00183	8b c7		 mov	 eax, edi

; 1166 : 	//>>
; 1167 : }

  00185	8b 4d f4	 mov	 ecx, DWORD PTR __$EHRec$[ebp]
  00188	64 89 0d 00 00
	00 00		 mov	 DWORD PTR fs:0, ecx
  0018f	59		 pop	 ecx
  00190	5f		 pop	 edi
  00191	5e		 pop	 esi
  00192	8b e5		 mov	 esp, ebp
  00194	5d		 pop	 ebp
  00195	c2 0c 00	 ret	 12			; 0000000cH
_TEXT	ENDS
;	COMDAT text$x
text$x	SEGMENT
__unwindfunclet$?GetText_CurrentPrice@CDataInRightScaleRegionDrawer@@ABE?AV?$CStringT@DV?$StrTraitMFC_DLL@DV?$ChTraitsCRT@D@ATL@@@@@ATL@@ABVCPrices@@ABV23@@Z$0:
  00000	8d 4d f0	 lea	 ecx, DWORD PTR _strCurPrice$[ebp]
  00003	ff 25 00 00 00
	00		 jmp	 DWORD PTR __imp_??1?$CStringT@DV?$StrTraitMFC_DLL@DV?$ChTraitsCRT@D@ATL@@@@@ATL@@QAE@XZ
__unwindfunclet$?GetText_CurrentPrice@CDataInRightScaleRegionDrawer@@ABE?AV?$CStringT@DV?$StrTraitMFC_DLL@DV?$ChTraitsCRT@D@ATL@@@@@ATL@@ABVCPrices@@ABV23@@Z$1:
  00009	8d 4d 10	 lea	 ecx, DWORD PTR $T9[ebp]
  0000c	ff 25 00 00 00
	00		 jmp	 DWORD PTR __imp_??1?$CStringT@DV?$StrTraitMFC_DLL@DV?$ChTraitsCRT@D@ATL@@@@@ATL@@QAE@XZ
__unwindfunclet$?GetText_CurrentPrice@CDataInRightScaleRegionDrawer@@ABE?AV?$CStringT@DV?$StrTraitMFC_DLL@DV?$ChTraitsCRT@D@ATL@@@@@ATL@@ABVCPrices@@ABV23@@Z$2:
  00012	8d 4d 10	 lea	 ecx, DWORD PTR $T8[ebp]
  00015	ff 25 00 00 00
	00		 jmp	 DWORD PTR __imp_??1?$CStringT@DV?$StrTraitMFC_DLL@DV?$ChTraitsCRT@D@ATL@@@@@ATL@@QAE@XZ
__unwindfunclet$?GetText_CurrentPrice@CDataInRightScaleRegionDrawer@@ABE?AV?$CStringT@DV?$StrTraitMFC_DLL@DV?$ChTraitsCRT@D@ATL@@@@@ATL@@ABVCPrices@@ABV23@@Z$3:
  0001b	8d 4d 10	 lea	 ecx, DWORD PTR _strPacketType$7[ebp]
  0001e	ff 25 00 00 00
	00		 jmp	 DWORD PTR __imp_??1?$CStringT@DV?$StrTraitMFC_DLL@DV?$ChTraitsCRT@D@ATL@@@@@ATL@@QAE@XZ
__unwindfunclet$?GetText_CurrentPrice@CDataInRightScaleRegionDrawer@@ABE?AV?$CStringT@DV?$StrTraitMFC_DLL@DV?$ChTraitsCRT@D@ATL@@@@@ATL@@ABVCPrices@@ABV23@@Z$4:
  00024	8d 4d 0c	 lea	 ecx, DWORD PTR $T5[ebp]
  00027	ff 25 00 00 00
	00		 jmp	 DWORD PTR __imp_??1?$CStringT@DV?$StrTraitMFC_DLL@DV?$ChTraitsCRT@D@ATL@@@@@ATL@@QAE@XZ
__unwindfunclet$?GetText_CurrentPrice@CDataInRightScaleRegionDrawer@@ABE?AV?$CStringT@DV?$StrTraitMFC_DLL@DV?$ChTraitsCRT@D@ATL@@@@@ATL@@ABVCPrices@@ABV23@@Z$5:
  0002d	8d 4d 10	 lea	 ecx, DWORD PTR $T6[ebp]
  00030	ff 25 00 00 00
	00		 jmp	 DWORD PTR __imp_??1?$CStringT@DV?$StrTraitMFC_DLL@DV?$ChTraitsCRT@D@ATL@@@@@ATL@@QAE@XZ
__unwindfunclet$?GetText_CurrentPrice@CDataInRightScaleRegionDrawer@@ABE?AV?$CStringT@DV?$StrTraitMFC_DLL@DV?$ChTraitsCRT@D@ATL@@@@@ATL@@ABVCPrices@@ABV23@@Z$6:
  00036	8d 4d 0c	 lea	 ecx, DWORD PTR $T4[ebp]
  00039	ff 25 00 00 00
	00		 jmp	 DWORD PTR __imp_??1?$CStringT@DV?$StrTraitMFC_DLL@DV?$ChTraitsCRT@D@ATL@@@@@ATL@@QAE@XZ
__unwindfunclet$?GetText_CurrentPrice@CDataInRightScaleRegionDrawer@@ABE?AV?$CStringT@DV?$StrTraitMFC_DLL@DV?$ChTraitsCRT@D@ATL@@@@@ATL@@ABVCPrices@@ABV23@@Z$9:
  0003f	8b 45 ec	 mov	 eax, DWORD PTR $T3[ebp]
  00042	83 e0 04	 and	 eax, 4
  00045	0f 84 0d 00 00
	00		 je	 $LN26@GetText_Cu
  0004b	83 65 ec fb	 and	 DWORD PTR $T3[ebp], -5	; fffffffbH
  0004f	8b 4d 08	 mov	 ecx, DWORD PTR ___$ReturnUdt$[ebp]
  00052	ff 25 00 00 00
	00		 jmp	 DWORD PTR __imp_??1?$CStringT@DV?$StrTraitMFC_DLL@DV?$ChTraitsCRT@D@ATL@@@@@ATL@@QAE@XZ
$LN26@GetText_Cu:
  00058	c3		 ret	 0
  00059	cc		 int	 3
  0005a	cc		 int	 3
  0005b	cc		 int	 3
  0005c	cc		 int	 3
  0005d	cc		 int	 3
__ehhandler$?GetText_CurrentPrice@CDataInRightScaleRegionDrawer@@ABE?AV?$CStringT@DV?$StrTraitMFC_DLL@DV?$ChTraitsCRT@D@ATL@@@@@ATL@@ABVCPrices@@ABV23@@Z:
  0005e	90		 npad	 1
  0005f	90		 npad	 1
  00060	8b 54 24 08	 mov	 edx, DWORD PTR [esp+8]
  00064	8d 42 0c	 lea	 eax, DWORD PTR [edx+12]
  00067	8b 4a e4	 mov	 ecx, DWORD PTR [edx-28]
  0006a	33 c8		 xor	 ecx, eax
  0006c	e8 00 00 00 00	 call	 @__security_check_cookie@4
  00071	b8 00 00 00 00	 mov	 eax, OFFSET __ehfuncinfo$?GetText_CurrentPrice@CDataInRightScaleRegionDrawer@@ABE?AV?$CStringT@DV?$StrTraitMFC_DLL@DV?$ChTraitsCRT@D@ATL@@@@@ATL@@ABVCPrices@@ABV23@@Z
  00076	e9 00 00 00 00	 jmp	 ___CxxFrameHandler3
text$x	ENDS
?GetText_CurrentPrice@CDataInRightScaleRegionDrawer@@ABE?AV?$CStringT@DV?$StrTraitMFC_DLL@DV?$ChTraitsCRT@D@ATL@@@@@ATL@@ABVCPrices@@ABV23@@Z ENDP ; CDataInRightScaleRegionDrawer::GetText_CurrentPrice
; Function compile flags: /Ogtp
; File D:\git\src\IBK\IBK_DRFN\ProjSrc\SrcChartEx\ChartOCX\GraphDraw\GraphDataDrawer.cpp
; File C:\Program Files (x86)\Microsoft Visual Studio\2019\Community\VC\Tools\MSVC\14.29.30133\atlmfc\include\atlsimpstr.h
; File D:\git\src\IBK\IBK_DRFN\ProjSrc\SrcChartEx\ChartOCX\GraphDraw\GraphDataDrawer.cpp
; File C:\Program Files (x86)\Microsoft Visual Studio\2019\Community\VC\Tools\MSVC\14.29.30133\atlmfc\include\cstringt.h
; File D:\git\src\IBK\IBK_DRFN\ProjSrc\SrcChartEx\ChartOCX\GraphDraw\GraphDataDrawer.cpp
; File C:\Program Files (x86)\Microsoft Visual Studio\2019\Community\VC\Tools\MSVC\14.29.30133\atlmfc\include\cstringt.h
; File C:\Program Files (x86)\Microsoft Visual Studio\2019\Community\VC\Tools\MSVC\14.29.30133\atlmfc\include\atlsimpstr.h
; File C:\Program Files (x86)\Microsoft Visual Studio\2019\Community\VC\Tools\MSVC\14.29.30133\atlmfc\include\cstringt.h
; File C:\Program Files (x86)\Microsoft Visual Studio\2019\Community\VC\Tools\MSVC\14.29.30133\atlmfc\include\atlsimpstr.h
; File C:\Program Files (x86)\Microsoft Visual Studio\2019\Community\VC\Tools\MSVC\14.29.30133\atlmfc\include\cstringt.h
; File D:\git\src\IBK\IBK_DRFN\ProjSrc\SrcChartEx\ChartOCX\GraphDraw\GraphDataDrawer.cpp
;	COMDAT ?GetText_Price@CDataInRightScaleRegionDrawer@@ABE?AV?$CStringT@DV?$StrTraitMFC_DLL@DV?$ChTraitsCRT@D@ATL@@@@@ATL@@NABV23@0H@Z
_TEXT	SEGMENT
$T2 = -20						; size = 4
_strCurPrice$ = -16					; size = 4
__$EHRec$ = -12						; size = 12
___$ReturnUdt$ = 8					; size = 4
_dPrice$ = 12						; size = 8
$T3 = 20						; size = 4
_strPacketType$4 = 20					; size = 4
$T5 = 20						; size = 4
$T6 = 20						; size = 4
_p_strPacketType$ = 20					; size = 4
_p_strUnit$ = 24					; size = 4
$T7 = 28						; size = 4
_nDecimalDownCount$ = 28				; size = 4
?GetText_Price@CDataInRightScaleRegionDrawer@@ABE?AV?$CStringT@DV?$StrTraitMFC_DLL@DV?$ChTraitsCRT@D@ATL@@@@@ATL@@NABV23@0H@Z PROC ; CDataInRightScaleRegionDrawer::GetText_Price, COMDAT
; _this$ = ecx

; 1171 : {

  00000	55		 push	 ebp
  00001	8b ec		 mov	 ebp, esp
  00003	6a ff		 push	 -1
  00005	68 00 00 00 00	 push	 __ehhandler$?GetText_Price@CDataInRightScaleRegionDrawer@@ABE?AV?$CStringT@DV?$StrTraitMFC_DLL@DV?$ChTraitsCRT@D@ATL@@@@@ATL@@NABV23@0H@Z
  0000a	64 a1 00 00 00
	00		 mov	 eax, DWORD PTR fs:0
  00010	50		 push	 eax
  00011	83 ec 08	 sub	 esp, 8
  00014	56		 push	 esi
  00015	57		 push	 edi
  00016	a1 00 00 00 00	 mov	 eax, DWORD PTR ___security_cookie
  0001b	33 c5		 xor	 eax, ebp
  0001d	50		 push	 eax
  0001e	8d 45 f4	 lea	 eax, DWORD PTR __$EHRec$[ebp]
  00021	64 a3 00 00 00
	00		 mov	 DWORD PTR fs:0, eax

; 1172 : 	CString strCurPrice;

  00027	8d 4d f0	 lea	 ecx, DWORD PTR _strCurPrice$[ebp]
  0002a	c7 45 ec 00 00
	00 00		 mov	 DWORD PTR $T2[ebp], 0
  00031	ff 15 00 00 00
	00		 call	 DWORD PTR __imp_??0?$CStringT@DV?$StrTraitMFC_DLL@DV?$ChTraitsCRT@D@ATL@@@@@ATL@@QAE@XZ

; 1173 : 
; 1174 : 	if( CDataConversion::IsBaseFormat( p_strPacketType) )

  00037	8b 75 14	 mov	 esi, DWORD PTR _p_strPacketType$[ebp]
  0003a	56		 push	 esi
  0003b	c7 45 fc 00 00
	00 00		 mov	 DWORD PTR __$EHRec$[ebp+8], 0
  00042	e8 00 00 00 00	 call	 ?IsBaseFormat@CDataConversion@@SA_NABV?$CStringT@DV?$StrTraitMFC_DLL@DV?$ChTraitsCRT@D@ATL@@@@@ATL@@@Z ; CDataConversion::IsBaseFormat
  00047	83 c4 04	 add	 esp, 4
  0004a	84 c0		 test	 al, al
  0004c	8d 45 0c	 lea	 eax, DWORD PTR _dPrice$[ebp]
  0004f	74 21		 je	 SHORT $LN2@GetText_Pr

; 1175 : 	{
; 1176 : 		strCurPrice = CDataConversion::DoubleToString( dPrice, p_strPacketType);

  00051	56		 push	 esi
  00052	50		 push	 eax
  00053	8d 45 14	 lea	 eax, DWORD PTR $T6[ebp]
  00056	50		 push	 eax
  00057	e8 00 00 00 00	 call	 ?DoubleToString@CDataConversion@@SA?AV?$CStringT@DV?$StrTraitMFC_DLL@DV?$ChTraitsCRT@D@ATL@@@@@ATL@@ABNABV23@@Z ; CDataConversion::DoubleToString
  0005c	83 c4 0c	 add	 esp, 12			; 0000000cH
  0005f	50		 push	 eax
  00060	8d 4d f0	 lea	 ecx, DWORD PTR _strCurPrice$[ebp]
  00063	c6 45 fc 01	 mov	 BYTE PTR __$EHRec$[ebp+8], 1
  00067	ff 15 00 00 00
	00		 call	 DWORD PTR __imp_??4?$CStringT@DV?$StrTraitMFC_DLL@DV?$ChTraitsCRT@D@ATL@@@@@ATL@@QAEAAV01@ABV01@@Z

; 1177 : 	}

  0006d	e9 83 00 00 00	 jmp	 $LN35@GetText_Pr
$LN2@GetText_Pr:

; 1178 : 	else
; 1179 : 	{
; 1180 : 		strCurPrice = CDataConversion::DoubleToString( dPrice, nDecimalDownCount);

  00072	ff 75 1c	 push	 DWORD PTR _nDecimalDownCount$[ebp]
  00075	50		 push	 eax
  00076	8d 45 14	 lea	 eax, DWORD PTR $T5[ebp]
  00079	50		 push	 eax
  0007a	e8 00 00 00 00	 call	 ?DoubleToString@CDataConversion@@SA?AV?$CStringT@DV?$StrTraitMFC_DLL@DV?$ChTraitsCRT@D@ATL@@@@@ATL@@ABNH@Z ; CDataConversion::DoubleToString
  0007f	83 c4 0c	 add	 esp, 12			; 0000000cH
  00082	50		 push	 eax
  00083	8d 4d f0	 lea	 ecx, DWORD PTR _strCurPrice$[ebp]
  00086	c6 45 fc 02	 mov	 BYTE PTR __$EHRec$[ebp+8], 2
  0008a	ff 15 00 00 00
	00		 call	 DWORD PTR __imp_??4?$CStringT@DV?$StrTraitMFC_DLL@DV?$ChTraitsCRT@D@ATL@@@@@ATL@@QAEAAV01@ABV01@@Z
  00090	8d 4d 14	 lea	 ecx, DWORD PTR $T5[ebp]
  00093	c6 45 fc 00	 mov	 BYTE PTR __$EHRec$[ebp+8], 0
  00097	ff 15 00 00 00
	00		 call	 DWORD PTR __imp_??1?$CStringT@DV?$StrTraitMFC_DLL@DV?$ChTraitsCRT@D@ATL@@@@@ATL@@QAE@XZ

; 1181 : 
; 1182 : 		if( p_strPacketType.Find( '.') < 0)

  0009d	6a 00		 push	 0
  0009f	6a 2e		 push	 46			; 0000002eH
  000a1	8b ce		 mov	 ecx, esi
  000a3	ff 15 00 00 00
	00		 call	 DWORD PTR __imp_?Find@?$CStringT@DV?$StrTraitMFC_DLL@DV?$ChTraitsCRT@D@ATL@@@@@ATL@@QBEHDH@Z
  000a9	85 c0		 test	 eax, eax
  000ab	79 55		 jns	 SHORT $LN4@GetText_Pr

; 1183 : 		{
; 1184 : 			CString strPacketType( p_strPacketType);

  000ad	56		 push	 esi
  000ae	8d 4d 14	 lea	 ecx, DWORD PTR _strPacketType$4[ebp]
  000b1	ff 15 00 00 00
	00		 call	 DWORD PTR __imp_??0?$CStringT@DV?$StrTraitMFC_DLL@DV?$ChTraitsCRT@D@ATL@@@@@ATL@@QAE@ABV01@@Z

; 1185 : 			int nFactor = strPacketType.Replace( '0', '_');

  000b7	6a 5f		 push	 95			; 0000005fH
  000b9	6a 30		 push	 48			; 00000030H
  000bb	8d 4d 14	 lea	 ecx, DWORD PTR _strPacketType$4[ebp]
  000be	c6 45 fc 03	 mov	 BYTE PTR __$EHRec$[ebp+8], 3
  000c2	ff 15 00 00 00
	00		 call	 DWORD PTR __imp_?Replace@?$CStringT@DV?$StrTraitMFC_DLL@DV?$ChTraitsCRT@D@ATL@@@@@ATL@@QAEHDD@Z
; File C:\Program Files (x86)\Microsoft Visual Studio\2019\Community\VC\Tools\MSVC\14.29.30133\atlmfc\include\atlsimpstr.h

; 519  : 		return( GetData()->nDataLength );

  000c8	8b 4d f0	 mov	 ecx, DWORD PTR _strCurPrice$[ebp]
  000cb	8b 49 f4	 mov	 ecx, DWORD PTR [ecx-12]
; File D:\git\src\IBK\IBK_DRFN\ProjSrc\SrcChartEx\ChartOCX\GraphDraw\GraphDataDrawer.cpp

; 1186 : 			strCurPrice = strCurPrice.Left( strCurPrice.GetLength() - nFactor);

  000ce	2b c8		 sub	 ecx, eax
  000d0	8d 45 1c	 lea	 eax, DWORD PTR $T7[ebp]
  000d3	51		 push	 ecx
  000d4	50		 push	 eax
  000d5	8d 4d f0	 lea	 ecx, DWORD PTR _strCurPrice$[ebp]
  000d8	ff 15 00 00 00
	00		 call	 DWORD PTR __imp_?Left@?$CStringT@DV?$StrTraitMFC_DLL@DV?$ChTraitsCRT@D@ATL@@@@@ATL@@QBE?AV12@H@Z
  000de	50		 push	 eax
  000df	8d 4d f0	 lea	 ecx, DWORD PTR _strCurPrice$[ebp]
  000e2	c6 45 fc 04	 mov	 BYTE PTR __$EHRec$[ebp+8], 4
  000e6	ff 15 00 00 00
	00		 call	 DWORD PTR __imp_??4?$CStringT@DV?$StrTraitMFC_DLL@DV?$ChTraitsCRT@D@ATL@@@@@ATL@@QAEAAV01@ABV01@@Z
  000ec	8d 4d 1c	 lea	 ecx, DWORD PTR $T7[ebp]
  000ef	ff 15 00 00 00
	00		 call	 DWORD PTR __imp_??1?$CStringT@DV?$StrTraitMFC_DLL@DV?$ChTraitsCRT@D@ATL@@@@@ATL@@QAE@XZ
$LN35@GetText_Pr:

; 1190 : 	return ( CDataConversion::GetStringThousandFormat( strCurPrice) + p_strUnit);

  000f5	8d 4d 14	 lea	 ecx, DWORD PTR _strPacketType$4[ebp]
  000f8	c6 45 fc 00	 mov	 BYTE PTR __$EHRec$[ebp+8], 0
  000fc	ff 15 00 00 00
	00		 call	 DWORD PTR __imp_??1?$CStringT@DV?$StrTraitMFC_DLL@DV?$ChTraitsCRT@D@ATL@@@@@ATL@@QAE@XZ
$LN4@GetText_Pr:
  00102	8d 45 f0	 lea	 eax, DWORD PTR _strCurPrice$[ebp]
  00105	50		 push	 eax
  00106	8d 45 14	 lea	 eax, DWORD PTR $T3[ebp]
  00109	50		 push	 eax
  0010a	e8 00 00 00 00	 call	 ?GetStringThousandFormat@CDataConversion@@SA?AV?$CStringT@DV?$StrTraitMFC_DLL@DV?$ChTraitsCRT@D@ATL@@@@@ATL@@ABV23@@Z ; CDataConversion::GetStringThousandFormat
  0010f	83 c4 08	 add	 esp, 8
  00112	8b f0		 mov	 esi, eax
; File C:\Program Files (x86)\Microsoft Visual Studio\2019\Community\VC\Tools\MSVC\14.29.30133\atlmfc\include\cstringt.h

; 2390 : 		CStringT strResult( str1.GetManager() );

  00114	8b ce		 mov	 ecx, esi
; File D:\git\src\IBK\IBK_DRFN\ProjSrc\SrcChartEx\ChartOCX\GraphDraw\GraphDataDrawer.cpp

; 1190 : 	return ( CDataConversion::GetStringThousandFormat( strCurPrice) + p_strUnit);

  00116	c6 45 fc 06	 mov	 BYTE PTR __$EHRec$[ebp+8], 6
; File C:\Program Files (x86)\Microsoft Visual Studio\2019\Community\VC\Tools\MSVC\14.29.30133\atlmfc\include\cstringt.h

; 2390 : 		CStringT strResult( str1.GetManager() );

  0011a	ff 15 00 00 00
	00		 call	 DWORD PTR __imp_?GetManager@?$CStringT@DV?$StrTraitMFC_DLL@DV?$ChTraitsCRT@D@ATL@@@@@ATL@@QBEPAUIAtlStringMgr@2@XZ
  00120	8b 7d 08	 mov	 edi, DWORD PTR ___$ReturnUdt$[ebp]
  00123	8b cf		 mov	 ecx, edi
  00125	50		 push	 eax
  00126	ff 15 00 00 00
	00		 call	 DWORD PTR __imp_??0?$CStringT@DV?$StrTraitMFC_DLL@DV?$ChTraitsCRT@D@ATL@@@@@ATL@@QAE@PAUIAtlStringMgr@1@@Z
; File C:\Program Files (x86)\Microsoft Visual Studio\2019\Community\VC\Tools\MSVC\14.29.30133\atlmfc\include\atlsimpstr.h

; 519  : 		return( GetData()->nDataLength );

  0012c	8b 45 18	 mov	 eax, DWORD PTR _p_strUnit$[ebp]
  0012f	8b 0e		 mov	 ecx, DWORD PTR [esi]
; File C:\Program Files (x86)\Microsoft Visual Studio\2019\Community\VC\Tools\MSVC\14.29.30133\atlmfc\include\cstringt.h

; 2394 : 		return( strResult );

  00131	c7 45 ec 02 00
	00 00		 mov	 DWORD PTR $T2[ebp], 2
; File C:\Program Files (x86)\Microsoft Visual Studio\2019\Community\VC\Tools\MSVC\14.29.30133\atlmfc\include\atlsimpstr.h

; 519  : 		return( GetData()->nDataLength );

  00138	8b 00		 mov	 eax, DWORD PTR [eax]
; File C:\Program Files (x86)\Microsoft Visual Studio\2019\Community\VC\Tools\MSVC\14.29.30133\atlmfc\include\cstringt.h

; 2392 : 		CThisSimpleString::Concatenate( strResult, str1, str1.GetLength(), str2, str2.GetLength() );

  0013a	ff 70 f4	 push	 DWORD PTR [eax-12]
  0013d	50		 push	 eax
  0013e	ff 71 f4	 push	 DWORD PTR [ecx-12]
  00141	51		 push	 ecx
  00142	57		 push	 edi
  00143	ff 15 00 00 00
	00		 call	 DWORD PTR __imp_?Concatenate@?$CSimpleStringT@D$00@ATL@@KAXAAV12@PBDH1H@Z
  00149	83 c4 14	 add	 esp, 20			; 00000014H
; File D:\git\src\IBK\IBK_DRFN\ProjSrc\SrcChartEx\ChartOCX\GraphDraw\GraphDataDrawer.cpp

; 1190 : 	return ( CDataConversion::GetStringThousandFormat( strCurPrice) + p_strUnit);

  0014c	8d 4d 14	 lea	 ecx, DWORD PTR $T3[ebp]
  0014f	ff 15 00 00 00
	00		 call	 DWORD PTR __imp_??1?$CStringT@DV?$StrTraitMFC_DLL@DV?$ChTraitsCRT@D@ATL@@@@@ATL@@QAE@XZ
  00155	8d 4d f0	 lea	 ecx, DWORD PTR _strCurPrice$[ebp]
  00158	ff 15 00 00 00
	00		 call	 DWORD PTR __imp_??1?$CStringT@DV?$StrTraitMFC_DLL@DV?$ChTraitsCRT@D@ATL@@@@@ATL@@QAE@XZ
  0015e	8b c7		 mov	 eax, edi

; 1191 : 	//>>
; 1192 : }

  00160	8b 4d f4	 mov	 ecx, DWORD PTR __$EHRec$[ebp]
  00163	64 89 0d 00 00
	00 00		 mov	 DWORD PTR fs:0, ecx
  0016a	59		 pop	 ecx
  0016b	5f		 pop	 edi
  0016c	5e		 pop	 esi
  0016d	8b e5		 mov	 esp, ebp
  0016f	5d		 pop	 ebp
  00170	c2 18 00	 ret	 24			; 00000018H
_TEXT	ENDS
;	COMDAT text$x
text$x	SEGMENT
__unwindfunclet$?GetText_Price@CDataInRightScaleRegionDrawer@@ABE?AV?$CStringT@DV?$StrTraitMFC_DLL@DV?$ChTraitsCRT@D@ATL@@@@@ATL@@NABV23@0H@Z$0:
  00000	8d 4d f0	 lea	 ecx, DWORD PTR _strCurPrice$[ebp]
  00003	ff 25 00 00 00
	00		 jmp	 DWORD PTR __imp_??1?$CStringT@DV?$StrTraitMFC_DLL@DV?$ChTraitsCRT@D@ATL@@@@@ATL@@QAE@XZ
__unwindfunclet$?GetText_Price@CDataInRightScaleRegionDrawer@@ABE?AV?$CStringT@DV?$StrTraitMFC_DLL@DV?$ChTraitsCRT@D@ATL@@@@@ATL@@NABV23@0H@Z$1:
  00009	8d 4d 14	 lea	 ecx, DWORD PTR $T6[ebp]
  0000c	ff 25 00 00 00
	00		 jmp	 DWORD PTR __imp_??1?$CStringT@DV?$StrTraitMFC_DLL@DV?$ChTraitsCRT@D@ATL@@@@@ATL@@QAE@XZ
__unwindfunclet$?GetText_Price@CDataInRightScaleRegionDrawer@@ABE?AV?$CStringT@DV?$StrTraitMFC_DLL@DV?$ChTraitsCRT@D@ATL@@@@@ATL@@NABV23@0H@Z$2:
  00012	8d 4d 14	 lea	 ecx, DWORD PTR $T5[ebp]
  00015	ff 25 00 00 00
	00		 jmp	 DWORD PTR __imp_??1?$CStringT@DV?$StrTraitMFC_DLL@DV?$ChTraitsCRT@D@ATL@@@@@ATL@@QAE@XZ
__unwindfunclet$?GetText_Price@CDataInRightScaleRegionDrawer@@ABE?AV?$CStringT@DV?$StrTraitMFC_DLL@DV?$ChTraitsCRT@D@ATL@@@@@ATL@@NABV23@0H@Z$3:
  0001b	8d 4d 14	 lea	 ecx, DWORD PTR _strPacketType$4[ebp]
  0001e	ff 25 00 00 00
	00		 jmp	 DWORD PTR __imp_??1?$CStringT@DV?$StrTraitMFC_DLL@DV?$ChTraitsCRT@D@ATL@@@@@ATL@@QAE@XZ
__unwindfunclet$?GetText_Price@CDataInRightScaleRegionDrawer@@ABE?AV?$CStringT@DV?$StrTraitMFC_DLL@DV?$ChTraitsCRT@D@ATL@@@@@ATL@@NABV23@0H@Z$4:
  00024	8d 4d 1c	 lea	 ecx, DWORD PTR $T7[ebp]
  00027	ff 25 00 00 00
	00		 jmp	 DWORD PTR __imp_??1?$CStringT@DV?$StrTraitMFC_DLL@DV?$ChTraitsCRT@D@ATL@@@@@ATL@@QAE@XZ
__unwindfunclet$?GetText_Price@CDataInRightScaleRegionDrawer@@ABE?AV?$CStringT@DV?$StrTraitMFC_DLL@DV?$ChTraitsCRT@D@ATL@@@@@ATL@@NABV23@0H@Z$5:
  0002d	8d 4d 14	 lea	 ecx, DWORD PTR $T3[ebp]
  00030	ff 25 00 00 00
	00		 jmp	 DWORD PTR __imp_??1?$CStringT@DV?$StrTraitMFC_DLL@DV?$ChTraitsCRT@D@ATL@@@@@ATL@@QAE@XZ
__unwindfunclet$?GetText_Price@CDataInRightScaleRegionDrawer@@ABE?AV?$CStringT@DV?$StrTraitMFC_DLL@DV?$ChTraitsCRT@D@ATL@@@@@ATL@@NABV23@0H@Z$7:
  00036	8b 45 ec	 mov	 eax, DWORD PTR $T2[ebp]
  00039	83 e0 02	 and	 eax, 2
  0003c	0f 84 0d 00 00
	00		 je	 $LN21@GetText_Pr
  00042	83 65 ec fd	 and	 DWORD PTR $T2[ebp], -3	; fffffffdH
  00046	8b 4d 08	 mov	 ecx, DWORD PTR ___$ReturnUdt$[ebp]
  00049	ff 25 00 00 00
	00		 jmp	 DWORD PTR __imp_??1?$CStringT@DV?$StrTraitMFC_DLL@DV?$ChTraitsCRT@D@ATL@@@@@ATL@@QAE@XZ
$LN21@GetText_Pr:
  0004f	c3		 ret	 0
  00050	cc		 int	 3
  00051	cc		 int	 3
  00052	cc		 int	 3
  00053	cc		 int	 3
  00054	cc		 int	 3
__ehhandler$?GetText_Price@CDataInRightScaleRegionDrawer@@ABE?AV?$CStringT@DV?$StrTraitMFC_DLL@DV?$ChTraitsCRT@D@ATL@@@@@ATL@@NABV23@0H@Z:
  00055	90		 npad	 1
  00056	90		 npad	 1
  00057	8b 54 24 08	 mov	 edx, DWORD PTR [esp+8]
  0005b	8d 42 0c	 lea	 eax, DWORD PTR [edx+12]
  0005e	8b 4a ec	 mov	 ecx, DWORD PTR [edx-20]
  00061	33 c8		 xor	 ecx, eax
  00063	e8 00 00 00 00	 call	 @__security_check_cookie@4
  00068	b8 00 00 00 00	 mov	 eax, OFFSET __ehfuncinfo$?GetText_Price@CDataInRightScaleRegionDrawer@@ABE?AV?$CStringT@DV?$StrTraitMFC_DLL@DV?$ChTraitsCRT@D@ATL@@@@@ATL@@NABV23@0H@Z
  0006d	e9 00 00 00 00	 jmp	 ___CxxFrameHandler3
text$x	ENDS
?GetText_Price@CDataInRightScaleRegionDrawer@@ABE?AV?$CStringT@DV?$StrTraitMFC_DLL@DV?$ChTraitsCRT@D@ATL@@@@@ATL@@NABV23@0H@Z ENDP ; CDataInRightScaleRegionDrawer::GetText_Price
; Function compile flags: /Ogtp
; File D:\git\src\IBK\IBK_DRFN\ProjSrc\SrcChartEx\ChartOCX\GraphDraw\GraphDataDrawer.cpp
; File C:\Program Files (x86)\Microsoft Visual Studio\2019\Community\VC\Tools\MSVC\14.29.30133\atlmfc\include\atltypes.h
; File D:\git\src\IBK\IBK_DRFN\ProjSrc\SrcChartEx\ChartOCX\GraphDraw\GraphDataDrawer.cpp
; File C:\Program Files (x86)\Microsoft Visual Studio\2019\Community\VC\Tools\MSVC\14.29.30133\atlmfc\include\atlsimpstr.h
; File D:\git\src\IBK\IBK_DRFN\ProjSrc\SrcChartEx\ChartOCX\GraphDraw\GraphDataDrawer.cpp
; File C:\Program Files (x86)\Microsoft Visual Studio\2019\Community\VC\Tools\MSVC\14.29.30133\atlmfc\include\atlsimpstr.h
; File D:\git\src\IBK\IBK_DRFN\ProjSrc\SrcChartEx\ChartOCX\GraphDraw\GraphDataDrawer.cpp
; File C:\Program Files (x86)\Microsoft Visual Studio\2019\Community\VC\Tools\MSVC\14.29.30133\atlmfc\include\cstringt.h
; File D:\git\src\IBK\IBK_DRFN\ProjSrc\SrcChartEx\ChartOCX\GraphDraw\GraphDataDrawer.cpp
; File C:\Program Files (x86)\Microsoft Visual Studio\2019\Community\VC\Tools\MSVC\14.29.30133\atlmfc\include\cstringt.h
; File D:\git\src\IBK\IBK_DRFN\ProjSrc\SrcChartEx\ChartOCX\GraphDraw\GraphDataDrawer.cpp
; File C:\Program Files (x86)\Microsoft Visual Studio\2019\Community\VC\Tools\MSVC\14.29.30133\atlmfc\include\cstringt.h
; File D:\git\src\IBK\IBK_DRFN\ProjSrc\SrcChartEx\ChartOCX\GraphDraw\GraphDataDrawer.cpp
; File C:\Program Files (x86)\Microsoft Visual Studio\2019\Community\VC\Tools\MSVC\14.29.30133\atlmfc\include\cstringt.h
; File D:\git\src\IBK\IBK_DRFN\ProjSrc\SrcChartEx\ChartOCX\GraphDraw\GraphDataDrawer.cpp
; File C:\Program Files (x86)\Microsoft Visual Studio\2019\Community\VC\Tools\MSVC\14.29.30133\atlmfc\include\cstringt.h
; File C:\Program Files (x86)\Microsoft Visual Studio\2019\Community\VC\Tools\MSVC\14.29.30133\atlmfc\include\atlsimpstr.h
; File C:\Program Files (x86)\Microsoft Visual Studio\2019\Community\VC\Tools\MSVC\14.29.30133\atlmfc\include\cstringt.h
; File D:\git\src\IBK\IBK_DRFN\ProjSrc\SrcChartEx\ChartOCX\GraphDraw\GraphDataDrawer.cpp
; File C:\Program Files (x86)\Microsoft Visual Studio\2019\Community\VC\Tools\MSVC\14.29.30133\atlmfc\include\cstringt.h
; File C:\Program Files (x86)\Microsoft Visual Studio\2019\Community\VC\Tools\MSVC\14.29.30133\atlmfc\include\atlsimpstr.h
; File C:\Program Files (x86)\Microsoft Visual Studio\2019\Community\VC\Tools\MSVC\14.29.30133\atlmfc\include\cstringt.h
; File D:\git\src\IBK\IBK_DRFN\ProjSrc\SrcChartEx\ChartOCX\GraphDraw\GraphDataDrawer.cpp
; File C:\Program Files (x86)\Microsoft Visual Studio\2019\Community\VC\Tools\MSVC\14.29.30133\atlmfc\include\cstringt.h
; File D:\git\src\IBK\IBK_DRFN\ProjSrc\SrcChartEx\ChartOCX\GraphDraw\GraphDataDrawer.cpp
; File C:\Program Files (x86)\Microsoft Visual Studio\2019\Community\VC\Tools\MSVC\14.29.30133\atlmfc\include\atlsimpstr.h
; File D:\git\src\IBK\IBK_DRFN\ProjSrc\SrcChartEx\ChartOCX\GraphDraw\GraphDataDrawer.cpp
; File C:\Program Files (x86)\Microsoft Visual Studio\2019\Community\VC\Tools\MSVC\14.29.30133\atlmfc\include\atlsimpstr.h
; File D:\git\src\IBK\IBK_DRFN\ProjSrc\SrcChartEx\ChartOCX\GraphDraw\GraphDataDrawer.cpp
; File C:\Program Files (x86)\Microsoft Visual Studio\2019\Community\VC\Tools\MSVC\14.29.30133\atlmfc\include\atlsimpstr.h
; File D:\git\src\IBK\IBK_DRFN\ProjSrc\SrcChartEx\ChartOCX\GraphDraw\GraphDataDrawer.cpp
;	COMDAT ?GetText@CDataInRightScaleRegionDrawer@@ABE_NABVCRect@@ABVCPrices@@HAAV?$CStringT@DV?$StrTraitMFC_DLL@DV?$ChTraitsCRT@D@ATL@@@@@ATL@@222@Z
_TEXT	SEGMENT
$T2 = -36						; size = 8
$T3 = -32						; size = 4
$T4 = -32						; size = 4
_dPrevPrice$5 = -28					; size = 8
$T6 = -24						; size = 4
$T7 = -20						; size = 4
$T8 = -20						; size = 4
_this$1$ = -16						; size = 4
__$EHRec$ = -12						; size = 12
_strMaxLenValue$ = 8					; size = 4
_region$ = 8						; size = 4
$T9 = 12						; size = 4
_prices$ = 12						; size = 4
$T10 = 16						; size = 4
$T11 = 16						; size = 4
_nCurDataType$ = 16					; size = 4
$T12 = 20						; size = 4
$T13 = 20						; size = 4
$T14 = 20						; size = 4
_strCurPrice$ = 20					; size = 4
$T15 = 24						; size = 4
$T16 = 24						; size = 4
_strDiffPrice$ = 24					; size = 4
$T17 = 27						; size = 1
$T18 = 28						; size = 4
$T19 = 28						; size = 4
_strPipPrice$ = 28					; size = 4
_strRiseFallRate$ = 32					; size = 4
?GetText@CDataInRightScaleRegionDrawer@@ABE_NABVCRect@@ABVCPrices@@HAAV?$CStringT@DV?$StrTraitMFC_DLL@DV?$ChTraitsCRT@D@ATL@@@@@ATL@@222@Z PROC ; CDataInRightScaleRegionDrawer::GetText, COMDAT
; _this$ = ecx

; 1078 : {

  00000	55		 push	 ebp
  00001	8b ec		 mov	 ebp, esp
  00003	6a ff		 push	 -1
  00005	68 00 00 00 00	 push	 __ehhandler$?GetText@CDataInRightScaleRegionDrawer@@ABE_NABVCRect@@ABVCPrices@@HAAV?$CStringT@DV?$StrTraitMFC_DLL@DV?$ChTraitsCRT@D@ATL@@@@@ATL@@222@Z
  0000a	64 a1 00 00 00
	00		 mov	 eax, DWORD PTR fs:0
  00010	50		 push	 eax
  00011	83 ec 18	 sub	 esp, 24			; 00000018H
  00014	56		 push	 esi
  00015	57		 push	 edi
  00016	a1 00 00 00 00	 mov	 eax, DWORD PTR ___security_cookie
  0001b	33 c5		 xor	 eax, ebp
  0001d	50		 push	 eax
  0001e	8d 45 f4	 lea	 eax, DWORD PTR __$EHRec$[ebp]
  00021	64 a3 00 00 00
	00		 mov	 DWORD PTR fs:0, eax
  00027	8b f1		 mov	 esi, ecx
  00029	89 75 f0	 mov	 DWORD PTR _this$1$[ebp], esi
  0002c	c7 45 ec 00 00
	00 00		 mov	 DWORD PTR $T7[ebp], 0
; File C:\Program Files (x86)\Microsoft Visual Studio\2019\Community\VC\Tools\MSVC\14.29.30133\atlmfc\include\atltypes.h

; 576  : 	return right - left;

  00033	8b 45 08	 mov	 eax, DWORD PTR _region$[ebp]
  00036	8b 50 08	 mov	 edx, DWORD PTR [eax+8]
  00039	2b 10		 sub	 edx, DWORD PTR [eax]
; File D:\git\src\IBK\IBK_DRFN\ProjSrc\SrcChartEx\ChartOCX\GraphDraw\GraphDataDrawer.cpp

; 1197 : 	return (region.Width() > 10);

  0003b	83 fa 0a	 cmp	 edx, 10			; 0000000aH

; 1079 : 	if(!IsGraphDataDraw(region))

  0003e	7f 15		 jg	 SHORT $LN2@GetText

; 1080 : 		return false;

  00040	32 c0		 xor	 al, al

; 1128 : }

  00042	8b 4d f4	 mov	 ecx, DWORD PTR __$EHRec$[ebp]
  00045	64 89 0d 00 00
	00 00		 mov	 DWORD PTR fs:0, ecx
  0004c	59		 pop	 ecx
  0004d	5f		 pop	 edi
  0004e	5e		 pop	 esi
  0004f	8b e5		 mov	 esp, ebp
  00051	5d		 pop	 ebp
  00052	c2 1c 00	 ret	 28			; 0000001cH
$LN2@GetText:

; 1081 : 
; 1082 : // 	// 
; 1083 : // 	strCurPrice = GetText_CurrentPrice(prices, p_strPacketType);
; 1084 : // 
; 1085 : // 	//    
; 1086 : // 	if(IsGraphDataDraw_Rate(region, prices))
; 1087 : // 		strRiseFallRate = CRateDrawer::GetRateText(prices.GetPrev(), prices.GetDifference());
; 1088 : // 
; 1089 : // 	return (!strCurPrice.IsEmpty() || !strRiseFallRate.IsEmpty());
; 1090 : 
; 1091 : 	CString strMaxLenValue;

  00055	8d 4d 08	 lea	 ecx, DWORD PTR _strMaxLenValue$[ebp]
  00058	ff 15 00 00 00
	00		 call	 DWORD PTR __imp_??0?$CStringT@DV?$StrTraitMFC_DLL@DV?$ChTraitsCRT@D@ATL@@@@@ATL@@QAE@XZ

; 122  : 	return m_strDataUnit;

  0005e	8b 7d 0c	 mov	 edi, DWORD PTR _prices$[ebp]
  00061	8d 4d e8	 lea	 ecx, DWORD PTR $T6[ebp]

; 1081 : 
; 1082 : // 	// 
; 1083 : // 	strCurPrice = GetText_CurrentPrice(prices, p_strPacketType);
; 1084 : // 
; 1085 : // 	//    
; 1086 : // 	if(IsGraphDataDraw_Rate(region, prices))
; 1087 : // 		strRiseFallRate = CRateDrawer::GetRateText(prices.GetPrev(), prices.GetDifference());
; 1088 : // 
; 1089 : // 	return (!strCurPrice.IsEmpty() || !strRiseFallRate.IsEmpty());
; 1090 : 
; 1091 : 	CString strMaxLenValue;

  00064	c7 45 fc 00 00
	00 00		 mov	 DWORD PTR __$EHRec$[ebp+8], 0

; 122  : 	return m_strDataUnit;

  0006b	8d 47 20	 lea	 eax, DWORD PTR [edi+32]
  0006e	50		 push	 eax
  0006f	ff 15 00 00 00
	00		 call	 DWORD PTR __imp_??0?$CStringT@DV?$StrTraitMFC_DLL@DV?$ChTraitsCRT@D@ATL@@@@@ATL@@QAE@ABV01@@Z

; 127  : 	return m_strPacketType;

  00075	8d 47 24	 lea	 eax, DWORD PTR [edi+36]

; 1092 : 
; 1093 : 	// 
; 1094 : 	// nCurDataType : 1, 2, 3, 4, 5, 6, 7, 8, 9, 10
; 1095 : 	strCurPrice = GetText_Price( prices.GetCur(), prices.GetPacketType(), prices.GetDataUnit(), prices.GetDecimalDownCount());

  00078	c6 45 fc 01	 mov	 BYTE PTR __$EHRec$[ebp+8], 1

; 127  : 	return m_strPacketType;

  0007c	50		 push	 eax
  0007d	8d 4d ec	 lea	 ecx, DWORD PTR $T8[ebp]
  00080	ff 15 00 00 00
	00		 call	 DWORD PTR __imp_??0?$CStringT@DV?$StrTraitMFC_DLL@DV?$ChTraitsCRT@D@ATL@@@@@ATL@@QAE@ABV01@@Z
  00086	b8 06 00 00 00	 mov	 eax, 6
  0008b	89 45 0c	 mov	 DWORD PTR $T9[ebp], eax

; 1092 : 
; 1093 : 	// 
; 1094 : 	// nCurDataType : 1, 2, 3, 4, 5, 6, 7, 8, 9, 10
; 1095 : 	strCurPrice = GetText_Price( prices.GetCur(), prices.GetPacketType(), prices.GetDataUnit(), prices.GetDecimalDownCount());

  0008e	ff 77 10	 push	 DWORD PTR [edi+16]
  00091	f2 0f 10 47 08	 movsd	 xmm0, QWORD PTR [edi+8]
  00096	8d 45 e8	 lea	 eax, DWORD PTR $T6[ebp]
  00099	50		 push	 eax
  0009a	8d 45 ec	 lea	 eax, DWORD PTR $T8[ebp]
  0009d	c6 45 fc 02	 mov	 BYTE PTR __$EHRec$[ebp+8], 2
  000a1	50		 push	 eax
  000a2	83 ec 08	 sub	 esp, 8
  000a5	8d 45 e0	 lea	 eax, DWORD PTR $T4[ebp]
  000a8	8b ce		 mov	 ecx, esi
  000aa	f2 0f 11 04 24	 movsd	 QWORD PTR [esp], xmm0
  000af	50		 push	 eax
  000b0	e8 00 00 00 00	 call	 ?GetText_Price@CDataInRightScaleRegionDrawer@@ABE?AV?$CStringT@DV?$StrTraitMFC_DLL@DV?$ChTraitsCRT@D@ATL@@@@@ATL@@NABV23@0H@Z ; CDataInRightScaleRegionDrawer::GetText_Price
  000b5	8b 75 14	 mov	 esi, DWORD PTR _strCurPrice$[ebp]
  000b8	8b ce		 mov	 ecx, esi
  000ba	50		 push	 eax
  000bb	c6 45 fc 03	 mov	 BYTE PTR __$EHRec$[ebp+8], 3
  000bf	ff 15 00 00 00
	00		 call	 DWORD PTR __imp_??4?$CStringT@DV?$StrTraitMFC_DLL@DV?$ChTraitsCRT@D@ATL@@@@@ATL@@QAEAAV01@ABV01@@Z
  000c5	8d 4d e0	 lea	 ecx, DWORD PTR $T4[ebp]
  000c8	ff 15 00 00 00
	00		 call	 DWORD PTR __imp_??1?$CStringT@DV?$StrTraitMFC_DLL@DV?$ChTraitsCRT@D@ATL@@@@@ATL@@QAE@XZ
  000ce	8d 4d ec	 lea	 ecx, DWORD PTR $T8[ebp]
  000d1	ff 15 00 00 00
	00		 call	 DWORD PTR __imp_??1?$CStringT@DV?$StrTraitMFC_DLL@DV?$ChTraitsCRT@D@ATL@@@@@ATL@@QAE@XZ
  000d7	8d 4d e8	 lea	 ecx, DWORD PTR $T6[ebp]
  000da	c6 45 fc 00	 mov	 BYTE PTR __$EHRec$[ebp+8], 0
  000de	ff 15 00 00 00
	00		 call	 DWORD PTR __imp_??1?$CStringT@DV?$StrTraitMFC_DLL@DV?$ChTraitsCRT@D@ATL@@@@@ATL@@QAE@XZ

; 1096 : 	strMaxLenValue = strCurPrice;

  000e4	56		 push	 esi
  000e5	8d 4d 08	 lea	 ecx, DWORD PTR _strMaxLenValue$[ebp]
  000e8	ff 15 00 00 00
	00		 call	 DWORD PTR __imp_??4?$CStringT@DV?$StrTraitMFC_DLL@DV?$ChTraitsCRT@D@ATL@@@@@ATL@@QAEAAV01@ABV01@@Z

; 1097 : 
; 1098 : 	// (2010/5/12 - Seung-Won, Bae) Add Diff Value.
; 1099 : 	// nCurDataType : 5, 6, 9, 10
; 1100 : 	if( 5 == nCurDataType || 6 == nCurDataType || 9 == nCurDataType || 10 == nCurDataType)

  000ee	8b 75 10	 mov	 esi, DWORD PTR _nCurDataType$[ebp]
  000f1	83 fe 05	 cmp	 esi, 5
  000f4	74 13		 je	 SHORT $LN4@GetText
  000f6	83 fe 06	 cmp	 esi, 6
  000f9	74 0e		 je	 SHORT $LN4@GetText
  000fb	83 fe 09	 cmp	 esi, 9
  000fe	74 09		 je	 SHORT $LN4@GetText
  00100	83 fe 0a	 cmp	 esi, 10			; 0000000aH
  00103	0f 85 99 00 00
	00		 jne	 $LN5@GetText
$LN4@GetText:

; 122  : 	return m_strDataUnit;

  00109	8d 47 20	 lea	 eax, DWORD PTR [edi+32]
  0010c	50		 push	 eax
  0010d	8d 4d 10	 lea	 ecx, DWORD PTR $T11[ebp]
  00110	ff 15 00 00 00
	00		 call	 DWORD PTR __imp_??0?$CStringT@DV?$StrTraitMFC_DLL@DV?$ChTraitsCRT@D@ATL@@@@@ATL@@QAE@ABV01@@Z

; 127  : 	return m_strPacketType;

  00116	8d 47 24	 lea	 eax, DWORD PTR [edi+36]

; 1101 : 	{
; 1102 : 		strDiffPrice = GetText_Price( prices.GetDifference(), prices.GetPacketType(), prices.GetDataUnit(), prices.GetDecimalDownCount());

  00119	c6 45 fc 04	 mov	 BYTE PTR __$EHRec$[ebp+8], 4

; 127  : 	return m_strPacketType;

  0011d	50		 push	 eax
  0011e	8d 4d 14	 lea	 ecx, DWORD PTR $T14[ebp]
  00121	ff 15 00 00 00
	00		 call	 DWORD PTR __imp_??0?$CStringT@DV?$StrTraitMFC_DLL@DV?$ChTraitsCRT@D@ATL@@@@@ATL@@QAE@ABV01@@Z
  00127	b8 1e 00 00 00	 mov	 eax, 30			; 0000001eH
  0012c	89 45 0c	 mov	 DWORD PTR $T9[ebp], eax

; 1101 : 	{
; 1102 : 		strDiffPrice = GetText_Price( prices.GetDifference(), prices.GetPacketType(), prices.GetDataUnit(), prices.GetDecimalDownCount());

  0012f	ff 77 10	 push	 DWORD PTR [edi+16]

; 106  : 	return (m_dCurPrice - m_dPrevPrice);

  00132	f2 0f 10 47 08	 movsd	 xmm0, QWORD PTR [edi+8]

; 1101 : 	{
; 1102 : 		strDiffPrice = GetText_Price( prices.GetDifference(), prices.GetPacketType(), prices.GetDataUnit(), prices.GetDecimalDownCount());

  00137	8d 45 10	 lea	 eax, DWORD PTR $T11[ebp]

; 106  : 	return (m_dCurPrice - m_dPrevPrice);

  0013a	f2 0f 5c 07	 subsd	 xmm0, QWORD PTR [edi]

; 1101 : 	{
; 1102 : 		strDiffPrice = GetText_Price( prices.GetDifference(), prices.GetPacketType(), prices.GetDataUnit(), prices.GetDecimalDownCount());

  0013e	8b 4d f0	 mov	 ecx, DWORD PTR _this$1$[ebp]
  00141	50		 push	 eax
  00142	8d 45 14	 lea	 eax, DWORD PTR $T14[ebp]
  00145	c6 45 fc 05	 mov	 BYTE PTR __$EHRec$[ebp+8], 5
  00149	50		 push	 eax
  0014a	83 ec 08	 sub	 esp, 8
  0014d	8d 45 e0	 lea	 eax, DWORD PTR $T3[ebp]
  00150	f2 0f 11 04 24	 movsd	 QWORD PTR [esp], xmm0
  00155	50		 push	 eax
  00156	e8 00 00 00 00	 call	 ?GetText_Price@CDataInRightScaleRegionDrawer@@ABE?AV?$CStringT@DV?$StrTraitMFC_DLL@DV?$ChTraitsCRT@D@ATL@@@@@ATL@@NABV23@0H@Z ; CDataInRightScaleRegionDrawer::GetText_Price
  0015b	8b 4d 18	 mov	 ecx, DWORD PTR _strDiffPrice$[ebp]
  0015e	50		 push	 eax
  0015f	c6 45 fc 06	 mov	 BYTE PTR __$EHRec$[ebp+8], 6
  00163	ff 15 00 00 00
	00		 call	 DWORD PTR __imp_??4?$CStringT@DV?$StrTraitMFC_DLL@DV?$ChTraitsCRT@D@ATL@@@@@ATL@@QAEAAV01@ABV01@@Z
  00169	8d 4d e0	 lea	 ecx, DWORD PTR $T3[ebp]
  0016c	ff 15 00 00 00
	00		 call	 DWORD PTR __imp_??1?$CStringT@DV?$StrTraitMFC_DLL@DV?$ChTraitsCRT@D@ATL@@@@@ATL@@QAE@XZ
  00172	8d 4d 14	 lea	 ecx, DWORD PTR $T14[ebp]
  00175	ff 15 00 00 00
	00		 call	 DWORD PTR __imp_??1?$CStringT@DV?$StrTraitMFC_DLL@DV?$ChTraitsCRT@D@ATL@@@@@ATL@@QAE@XZ
  0017b	8d 4d 10	 lea	 ecx, DWORD PTR $T11[ebp]
  0017e	c6 45 fc 00	 mov	 BYTE PTR __$EHRec$[ebp+8], 0
  00182	ff 15 00 00 00
	00		 call	 DWORD PTR __imp_??1?$CStringT@DV?$StrTraitMFC_DLL@DV?$ChTraitsCRT@D@ATL@@@@@ATL@@QAE@XZ
; File C:\Program Files (x86)\Microsoft Visual Studio\2019\Community\VC\Tools\MSVC\14.29.30133\atlmfc\include\atlsimpstr.h

; 519  : 		return( GetData()->nDataLength );

  00188	8b 45 08	 mov	 eax, DWORD PTR _strMaxLenValue$[ebp]
  0018b	8b 55 18	 mov	 edx, DWORD PTR _strDiffPrice$[ebp]
  0018e	8b 48 f4	 mov	 ecx, DWORD PTR [eax-12]
  00191	8b 02		 mov	 eax, DWORD PTR [edx]
; File D:\git\src\IBK\IBK_DRFN\ProjSrc\SrcChartEx\ChartOCX\GraphDraw\GraphDataDrawer.cpp

; 1103 : 		if( strMaxLenValue.GetLength() < strDiffPrice.GetLength())

  00193	3b 48 f4	 cmp	 ecx, DWORD PTR [eax-12]
  00196	7d 0a		 jge	 SHORT $LN5@GetText

; 1104 : 			strMaxLenValue = strDiffPrice;

  00198	52		 push	 edx
  00199	8d 4d 08	 lea	 ecx, DWORD PTR _strMaxLenValue$[ebp]
  0019c	ff 15 00 00 00
	00		 call	 DWORD PTR __imp_??4?$CStringT@DV?$StrTraitMFC_DLL@DV?$ChTraitsCRT@D@ATL@@@@@ATL@@QAEAAV01@ABV01@@Z
$LN5@GetText:

; 1105 : 	}
; 1106 : 
; 1107 : 	// nCurDataType : 7, 8
; 1108 : 	if( 0 <= prices.GetPipSize()) if( 7 == nCurDataType || 8 == nCurDataType)

  001a2	f2 0f 10 47 18	 movsd	 xmm0, QWORD PTR [edi+24]
  001a7	0f 57 c9	 xorps	 xmm1, xmm1
  001aa	66 0f 2f c1	 comisd	 xmm0, xmm1
  001ae	0f 82 b4 00 00
	00		 jb	 $LN9@GetText
  001b4	83 fe 07	 cmp	 esi, 7
  001b7	74 09		 je	 SHORT $LN8@GetText
  001b9	83 fe 08	 cmp	 esi, 8
  001bc	0f 85 a6 00 00
	00		 jne	 $LN9@GetText
$LN8@GetText:

; 1109 : 	{
; 1110 : 		strPipPrice = GetText_Price( ( prices.GetDifference()) / ( prices.GetPipSize() * 10), "X0.1", "", 1);

  001c2	68 00 00 00 00	 push	 OFFSET ??_C@_00CNPNBAHC@@
  001c7	8d 4d 14	 lea	 ecx, DWORD PTR $T13[ebp]
  001ca	ff 15 00 00 00
	00		 call	 DWORD PTR __imp_??0?$CStringT@DV?$StrTraitMFC_DLL@DV?$ChTraitsCRT@D@ATL@@@@@ATL@@QAE@PBD@Z
  001d0	68 00 00 00 00	 push	 OFFSET ??_C@_04DFBLBIBB@X0?41@
  001d5	8d 4d 18	 lea	 ecx, DWORD PTR $T16[ebp]
  001d8	c6 45 fc 07	 mov	 BYTE PTR __$EHRec$[ebp+8], 7
  001dc	ff 15 00 00 00
	00		 call	 DWORD PTR __imp_??0?$CStringT@DV?$StrTraitMFC_DLL@DV?$ChTraitsCRT@D@ATL@@@@@ATL@@QAE@PBD@Z

; 106  : 	return (m_dCurPrice - m_dPrevPrice);

  001e2	f2 0f 10 4f 08	 movsd	 xmm1, QWORD PTR [edi+8]

; 1109 : 	{
; 1110 : 		strPipPrice = GetText_Price( ( prices.GetDifference()) / ( prices.GetPipSize() * 10), "X0.1", "", 1);

  001e7	8d 45 14	 lea	 eax, DWORD PTR $T13[ebp]
  001ea	f2 0f 10 47 18	 movsd	 xmm0, QWORD PTR [edi+24]

; 106  : 	return (m_dCurPrice - m_dPrevPrice);

  001ef	f2 0f 5c 0f	 subsd	 xmm1, QWORD PTR [edi]

; 1109 : 	{
; 1110 : 		strPipPrice = GetText_Price( ( prices.GetDifference()) / ( prices.GetPipSize() * 10), "X0.1", "", 1);

  001f3	f2 0f 59 05 00
	00 00 00	 mulsd	 xmm0, QWORD PTR __real@4024000000000000
  001fb	8b 4d f0	 mov	 ecx, DWORD PTR _this$1$[ebp]
  001fe	6a 01		 push	 1
  00200	50		 push	 eax
  00201	8d 45 18	 lea	 eax, DWORD PTR $T16[ebp]
  00204	c6 45 fc 08	 mov	 BYTE PTR __$EHRec$[ebp+8], 8
  00208	f2 0f 5e c8	 divsd	 xmm1, xmm0
  0020c	50		 push	 eax
  0020d	83 ec 08	 sub	 esp, 8
  00210	8d 45 10	 lea	 eax, DWORD PTR $T10[ebp]
  00213	f2 0f 11 0c 24	 movsd	 QWORD PTR [esp], xmm1
  00218	50		 push	 eax
  00219	e8 00 00 00 00	 call	 ?GetText_Price@CDataInRightScaleRegionDrawer@@ABE?AV?$CStringT@DV?$StrTraitMFC_DLL@DV?$ChTraitsCRT@D@ATL@@@@@ATL@@NABV23@0H@Z ; CDataInRightScaleRegionDrawer::GetText_Price
  0021e	8b 4d 1c	 mov	 ecx, DWORD PTR _strPipPrice$[ebp]
  00221	50		 push	 eax
  00222	c6 45 fc 09	 mov	 BYTE PTR __$EHRec$[ebp+8], 9
  00226	ff 15 00 00 00
	00		 call	 DWORD PTR __imp_??4?$CStringT@DV?$StrTraitMFC_DLL@DV?$ChTraitsCRT@D@ATL@@@@@ATL@@QAEAAV01@ABV01@@Z
  0022c	8d 4d 10	 lea	 ecx, DWORD PTR $T10[ebp]
  0022f	ff 15 00 00 00
	00		 call	 DWORD PTR __imp_??1?$CStringT@DV?$StrTraitMFC_DLL@DV?$ChTraitsCRT@D@ATL@@@@@ATL@@QAE@XZ
  00235	8d 4d 18	 lea	 ecx, DWORD PTR $T16[ebp]
  00238	ff 15 00 00 00
	00		 call	 DWORD PTR __imp_??1?$CStringT@DV?$StrTraitMFC_DLL@DV?$ChTraitsCRT@D@ATL@@@@@ATL@@QAE@XZ
  0023e	8d 4d 14	 lea	 ecx, DWORD PTR $T13[ebp]
  00241	c6 45 fc 00	 mov	 BYTE PTR __$EHRec$[ebp+8], 0
  00245	ff 15 00 00 00
	00		 call	 DWORD PTR __imp_??1?$CStringT@DV?$StrTraitMFC_DLL@DV?$ChTraitsCRT@D@ATL@@@@@ATL@@QAE@XZ
; File C:\Program Files (x86)\Microsoft Visual Studio\2019\Community\VC\Tools\MSVC\14.29.30133\atlmfc\include\atlsimpstr.h

; 519  : 		return( GetData()->nDataLength );

  0024b	8b 45 08	 mov	 eax, DWORD PTR _strMaxLenValue$[ebp]
  0024e	8b 55 1c	 mov	 edx, DWORD PTR _strPipPrice$[ebp]
  00251	8b 48 f4	 mov	 ecx, DWORD PTR [eax-12]
  00254	8b 02		 mov	 eax, DWORD PTR [edx]
; File D:\git\src\IBK\IBK_DRFN\ProjSrc\SrcChartEx\ChartOCX\GraphDraw\GraphDataDrawer.cpp

; 1111 : 		if( strMaxLenValue.GetLength() < strPipPrice.GetLength())

  00256	3b 48 f4	 cmp	 ecx, DWORD PTR [eax-12]
  00259	7d 0a		 jge	 SHORT $LN129@GetText

; 1112 : 			strMaxLenValue = strPipPrice;

  0025b	52		 push	 edx
  0025c	8d 4d 08	 lea	 ecx, DWORD PTR _strMaxLenValue$[ebp]
  0025f	ff 15 00 00 00
	00		 call	 DWORD PTR __imp_??4?$CStringT@DV?$StrTraitMFC_DLL@DV?$ChTraitsCRT@D@ATL@@@@@ATL@@QAEAAV01@ABV01@@Z
$LN129@GetText:

; 1113 : 	}
; 1114 : 
; 1115 : 	//    
; 1116 : 	// nCurDataType : 1, 2, 5, 6
; 1117 : 	if( 1 == nCurDataType || 2 == nCurDataType || 5 == nCurDataType || 6 == nCurDataType)

  00265	0f 57 c9	 xorps	 xmm1, xmm1
$LN9@GetText:
  00268	83 fe 01	 cmp	 esi, 1
  0026b	74 13		 je	 SHORT $LN11@GetText
  0026d	83 fe 02	 cmp	 esi, 2
  00270	74 0e		 je	 SHORT $LN11@GetText
  00272	83 fe 05	 cmp	 esi, 5
  00275	74 09		 je	 SHORT $LN11@GetText
  00277	83 fe 06	 cmp	 esi, 6
  0027a	0f 85 61 01 00
	00		 jne	 $LN13@GetText
$LN11@GetText:

; 96   : 	return m_dPrevPrice;

  00280	f2 0f 10 07	 movsd	 xmm0, QWORD PTR [edi]

; 1119 : 		if( prices.GetPrev() != 0.0 && prices.GetPacketType() != "%")

  00284	66 0f 2e c1	 ucomisd xmm0, xmm1
  00288	9f		 lahf
  00289	f6 c4 44	 test	 ah, 68			; 00000044H
  0028c	7b 36		 jnp	 SHORT $LN128@GetText

; 127  : 	return m_strPacketType;

  0028e	8d 47 24	 lea	 eax, DWORD PTR [edi+36]
  00291	50		 push	 eax
  00292	8d 4d 1c	 lea	 ecx, DWORD PTR $T19[ebp]
  00295	ff 15 00 00 00
	00		 call	 DWORD PTR __imp_??0?$CStringT@DV?$StrTraitMFC_DLL@DV?$ChTraitsCRT@D@ATL@@@@@ATL@@QAE@ABV01@@Z
  0029b	8b 45 0c	 mov	 eax, DWORD PTR $T9[ebp]
  0029e	83 c8 20	 or	 eax, 32			; 00000020H

; 1119 : 		if( prices.GetPrev() != 0.0 && prices.GetPacketType() != "%")

  002a1	83 c8 01	 or	 eax, 1
  002a4	c6 45 fc 0a	 mov	 BYTE PTR __$EHRec$[ebp+8], 10 ; 0000000aH
; File C:\Program Files (x86)\Microsoft Visual Studio\2019\Community\VC\Tools\MSVC\14.29.30133\atlmfc\include\cstringt.h

; 2567 : 		return( str1.Compare( psz2 ) != 0 );

  002a8	68 00 00 00 00	 push	 OFFSET ??_C@_01FGNFDNOH@?$CF@
  002ad	8d 4d 1c	 lea	 ecx, DWORD PTR $T19[ebp]
; File D:\git\src\IBK\IBK_DRFN\ProjSrc\SrcChartEx\ChartOCX\GraphDraw\GraphDataDrawer.cpp

; 1119 : 		if( prices.GetPrev() != 0.0 && prices.GetPacketType() != "%")

  002b0	89 45 0c	 mov	 DWORD PTR $T9[ebp], eax
  002b3	89 45 ec	 mov	 DWORD PTR $T7[ebp], eax
; File C:\Program Files (x86)\Microsoft Visual Studio\2019\Community\VC\Tools\MSVC\14.29.30133\atlmfc\include\cstringt.h

; 2567 : 		return( str1.Compare( psz2 ) != 0 );

  002b6	ff 15 00 00 00
	00		 call	 DWORD PTR __imp_?Compare@?$CStringT@DV?$StrTraitMFC_DLL@DV?$ChTraitsCRT@D@ATL@@@@@ATL@@QBEHPBD@Z
; File D:\git\src\IBK\IBK_DRFN\ProjSrc\SrcChartEx\ChartOCX\GraphDraw\GraphDataDrawer.cpp

; 1119 : 		if( prices.GetPrev() != 0.0 && prices.GetPacketType() != "%")

  002bc	c6 45 1b 01	 mov	 BYTE PTR $T17[ebp], 1
; File C:\Program Files (x86)\Microsoft Visual Studio\2019\Community\VC\Tools\MSVC\14.29.30133\atlmfc\include\cstringt.h

; 2567 : 		return( str1.Compare( psz2 ) != 0 );

  002c0	85 c0		 test	 eax, eax
; File D:\git\src\IBK\IBK_DRFN\ProjSrc\SrcChartEx\ChartOCX\GraphDraw\GraphDataDrawer.cpp

; 1119 : 		if( prices.GetPrev() != 0.0 && prices.GetPacketType() != "%")

  002c2	75 04		 jne	 SHORT $LN16@GetText
$LN128@GetText:
  002c4	c6 45 1b 00	 mov	 BYTE PTR $T17[ebp], 0
$LN16@GetText:
  002c8	8b 45 0c	 mov	 eax, DWORD PTR $T9[ebp]
  002cb	c7 45 fc 00 00
	00 00		 mov	 DWORD PTR __$EHRec$[ebp+8], 0
  002d2	a8 01		 test	 al, 1
  002d4	74 0f		 je	 SHORT $LN29@GetText
  002d6	83 e0 fe	 and	 eax, -2			; fffffffeH
  002d9	8d 4d 1c	 lea	 ecx, DWORD PTR $T19[ebp]
  002dc	89 45 0c	 mov	 DWORD PTR $T9[ebp], eax
  002df	ff 15 00 00 00
	00		 call	 DWORD PTR __imp_??1?$CStringT@DV?$StrTraitMFC_DLL@DV?$ChTraitsCRT@D@ATL@@@@@ATL@@QAE@XZ
$LN29@GetText:
  002e5	80 7d 1b 00	 cmp	 BYTE PTR $T17[ebp], 0
  002e9	0f 84 f2 00 00
	00		 je	 $LN13@GetText

; 1120 : 		{
; 1121 : 			double dPrevPrice = fabs(prices.GetPrev());

  002ef	f2 0f 10 07	 movsd	 xmm0, QWORD PTR [edi]

; 1122 : 			strRiseFallRate = "(" + CRateDrawer::GetRateText( dPrevPrice, prices.GetDifference()) + ")";

  002f3	8d 45 dc	 lea	 eax, DWORD PTR $T2[ebp]
  002f6	0f 54 05 00 00
	00 00		 andps	 xmm0, QWORD PTR __xmm@7fffffffffffffff7fffffffffffffff
  002fd	8b 4d f0	 mov	 ecx, DWORD PTR _this$1$[ebp]
  00300	f2 0f 11 45 e4	 movsd	 QWORD PTR _dPrevPrice$5[ebp], xmm0

; 106  : 	return (m_dCurPrice - m_dPrevPrice);

  00305	f2 0f 10 47 08	 movsd	 xmm0, QWORD PTR [edi+8]
  0030a	f2 0f 5c 07	 subsd	 xmm0, QWORD PTR [edi]

; 1122 : 			strRiseFallRate = "(" + CRateDrawer::GetRateText( dPrevPrice, prices.GetDifference()) + ")";

  0030e	50		 push	 eax
  0030f	8d 45 e4	 lea	 eax, DWORD PTR _dPrevPrice$5[ebp]
  00312	50		 push	 eax
  00313	8d 45 14	 lea	 eax, DWORD PTR $T12[ebp]
  00316	50		 push	 eax
  00317	f2 0f 11 45 dc	 movsd	 QWORD PTR $T2[ebp], xmm0
  0031c	e8 00 00 00 00	 call	 ?GetRateText@CRateDrawer@@IBE?AV?$CStringT@DV?$StrTraitMFC_DLL@DV?$ChTraitsCRT@D@ATL@@@@@ATL@@ABN0@Z ; CRateDrawer::GetRateText
  00321	8b f0		 mov	 esi, eax
; File C:\Program Files (x86)\Microsoft Visual Studio\2019\Community\VC\Tools\MSVC\14.29.30133\atlmfc\include\cstringt.h

; 2412 : 		CStringT strResult( str2.GetManager() );

  00323	8b ce		 mov	 ecx, esi
; File D:\git\src\IBK\IBK_DRFN\ProjSrc\SrcChartEx\ChartOCX\GraphDraw\GraphDataDrawer.cpp

; 1122 : 			strRiseFallRate = "(" + CRateDrawer::GetRateText( dPrevPrice, prices.GetDifference()) + ")";

  00325	c6 45 fc 0c	 mov	 BYTE PTR __$EHRec$[ebp+8], 12 ; 0000000cH
; File C:\Program Files (x86)\Microsoft Visual Studio\2019\Community\VC\Tools\MSVC\14.29.30133\atlmfc\include\cstringt.h

; 2412 : 		CStringT strResult( str2.GetManager() );

  00329	ff 15 00 00 00
	00		 call	 DWORD PTR __imp_?GetManager@?$CStringT@DV?$StrTraitMFC_DLL@DV?$ChTraitsCRT@D@ATL@@@@@ATL@@QBEPAUIAtlStringMgr@2@XZ
  0032f	50		 push	 eax
  00330	8d 4d 18	 lea	 ecx, DWORD PTR $T15[ebp]
  00333	ff 15 00 00 00
	00		 call	 DWORD PTR __imp_??0?$CStringT@DV?$StrTraitMFC_DLL@DV?$ChTraitsCRT@D@ATL@@@@@ATL@@QAE@PAUIAtlStringMgr@1@@Z

; 2415 : 
; 2416 : 		return( strResult );

  00339	8b 45 0c	 mov	 eax, DWORD PTR $T9[ebp]
  0033c	83 c8 40	 or	 eax, 64			; 00000040H
  0033f	89 45 0c	 mov	 DWORD PTR $T9[ebp], eax
  00342	89 45 ec	 mov	 DWORD PTR $T7[ebp], eax
; File C:\Program Files (x86)\Microsoft Visual Studio\2019\Community\VC\Tools\MSVC\14.29.30133\atlmfc\include\atlsimpstr.h

; 519  : 		return( GetData()->nDataLength );

  00345	8b 06		 mov	 eax, DWORD PTR [esi]
; File C:\Program Files (x86)\Microsoft Visual Studio\2019\Community\VC\Tools\MSVC\14.29.30133\atlmfc\include\cstringt.h

; 2414 : 		CThisSimpleString::Concatenate( strResult, psz1, CThisSimpleString::StringLength( psz1 ), str2, str2.GetLength() );

  00347	ff 70 f4	 push	 DWORD PTR [eax-12]
  0034a	50		 push	 eax
  0034b	6a 01		 push	 1
  0034d	8d 45 18	 lea	 eax, DWORD PTR $T15[ebp]
  00350	68 00 00 00 00	 push	 OFFSET ??_C@_01ODHLEDKK@?$CI@
  00355	50		 push	 eax
  00356	ff 15 00 00 00
	00		 call	 DWORD PTR __imp_?Concatenate@?$CSimpleStringT@D$00@ATL@@KAXAAV12@PBDH1H@Z
  0035c	83 c4 14	 add	 esp, 20			; 00000014H

; 2401 : 		CStringT strResult( str1.GetManager() );

  0035f	8d 4d 18	 lea	 ecx, DWORD PTR $T15[ebp]
; File D:\git\src\IBK\IBK_DRFN\ProjSrc\SrcChartEx\ChartOCX\GraphDraw\GraphDataDrawer.cpp

; 1122 : 			strRiseFallRate = "(" + CRateDrawer::GetRateText( dPrevPrice, prices.GetDifference()) + ")";

  00362	c6 45 fc 0d	 mov	 BYTE PTR __$EHRec$[ebp+8], 13 ; 0000000dH
; File C:\Program Files (x86)\Microsoft Visual Studio\2019\Community\VC\Tools\MSVC\14.29.30133\atlmfc\include\cstringt.h

; 2401 : 		CStringT strResult( str1.GetManager() );

  00366	ff 15 00 00 00
	00		 call	 DWORD PTR __imp_?GetManager@?$CStringT@DV?$StrTraitMFC_DLL@DV?$ChTraitsCRT@D@ATL@@@@@ATL@@QBEPAUIAtlStringMgr@2@XZ
  0036c	50		 push	 eax
  0036d	8d 4d 1c	 lea	 ecx, DWORD PTR $T18[ebp]
  00370	ff 15 00 00 00
	00		 call	 DWORD PTR __imp_??0?$CStringT@DV?$StrTraitMFC_DLL@DV?$ChTraitsCRT@D@ATL@@@@@ATL@@QAE@PAUIAtlStringMgr@1@@Z

; 2404 : 
; 2405 : 		return( strResult );

  00376	8b 45 0c	 mov	 eax, DWORD PTR $T9[ebp]
  00379	0d 80 00 00 00	 or	 eax, 128		; 00000080H
  0037e	89 45 ec	 mov	 DWORD PTR $T7[ebp], eax
; File C:\Program Files (x86)\Microsoft Visual Studio\2019\Community\VC\Tools\MSVC\14.29.30133\atlmfc\include\atlsimpstr.h

; 519  : 		return( GetData()->nDataLength );

  00381	8b 45 18	 mov	 eax, DWORD PTR $T15[ebp]
; File C:\Program Files (x86)\Microsoft Visual Studio\2019\Community\VC\Tools\MSVC\14.29.30133\atlmfc\include\cstringt.h

; 2403 : 		CThisSimpleString::Concatenate( strResult, str1, str1.GetLength(), psz2, CThisSimpleString::StringLength( psz2 ) );

  00384	6a 01		 push	 1
  00386	68 00 00 00 00	 push	 OFFSET ??_C@_01PKGAHCOL@?$CJ@
  0038b	ff 70 f4	 push	 DWORD PTR [eax-12]
  0038e	50		 push	 eax
  0038f	8d 45 1c	 lea	 eax, DWORD PTR $T18[ebp]
  00392	50		 push	 eax
  00393	ff 15 00 00 00
	00		 call	 DWORD PTR __imp_?Concatenate@?$CSimpleStringT@D$00@ATL@@KAXAAV12@PBDH1H@Z
; File D:\git\src\IBK\IBK_DRFN\ProjSrc\SrcChartEx\ChartOCX\GraphDraw\GraphDataDrawer.cpp

; 1122 : 			strRiseFallRate = "(" + CRateDrawer::GetRateText( dPrevPrice, prices.GetDifference()) + ")";

  00399	8b 75 20	 mov	 esi, DWORD PTR _strRiseFallRate$[ebp]
  0039c	8d 45 1c	 lea	 eax, DWORD PTR $T18[ebp]
; File C:\Program Files (x86)\Microsoft Visual Studio\2019\Community\VC\Tools\MSVC\14.29.30133\atlmfc\include\cstringt.h

; 2403 : 		CThisSimpleString::Concatenate( strResult, str1, str1.GetLength(), psz2, CThisSimpleString::StringLength( psz2 ) );

  0039f	83 c4 14	 add	 esp, 20			; 00000014H
; File D:\git\src\IBK\IBK_DRFN\ProjSrc\SrcChartEx\ChartOCX\GraphDraw\GraphDataDrawer.cpp

; 1122 : 			strRiseFallRate = "(" + CRateDrawer::GetRateText( dPrevPrice, prices.GetDifference()) + ")";

  003a2	8b ce		 mov	 ecx, esi
  003a4	50		 push	 eax
  003a5	ff 15 00 00 00
	00		 call	 DWORD PTR __imp_??4?$CStringT@DV?$StrTraitMFC_DLL@DV?$ChTraitsCRT@D@ATL@@@@@ATL@@QAEAAV01@ABV01@@Z
  003ab	8d 4d 1c	 lea	 ecx, DWORD PTR $T18[ebp]
  003ae	ff 15 00 00 00
	00		 call	 DWORD PTR __imp_??1?$CStringT@DV?$StrTraitMFC_DLL@DV?$ChTraitsCRT@D@ATL@@@@@ATL@@QAE@XZ
  003b4	8d 4d 18	 lea	 ecx, DWORD PTR $T15[ebp]
  003b7	ff 15 00 00 00
	00		 call	 DWORD PTR __imp_??1?$CStringT@DV?$StrTraitMFC_DLL@DV?$ChTraitsCRT@D@ATL@@@@@ATL@@QAE@XZ
  003bd	8d 4d 14	 lea	 ecx, DWORD PTR $T12[ebp]
  003c0	c6 45 fc 00	 mov	 BYTE PTR __$EHRec$[ebp+8], 0
  003c4	ff 15 00 00 00
	00		 call	 DWORD PTR __imp_??1?$CStringT@DV?$StrTraitMFC_DLL@DV?$ChTraitsCRT@D@ATL@@@@@ATL@@QAE@XZ

; 1123 : 			if( strMaxLenValue.GetLength() < strRiseFallRate.GetLength())

  003ca	8b 45 08	 mov	 eax, DWORD PTR _strMaxLenValue$[ebp]
  003cd	8b 0e		 mov	 ecx, DWORD PTR [esi]
  003cf	8b 40 f4	 mov	 eax, DWORD PTR [eax-12]
  003d2	3b 41 f4	 cmp	 eax, DWORD PTR [ecx-12]
  003d5	7d 0a		 jge	 SHORT $LN13@GetText

; 1124 : 				strMaxLenValue = strRiseFallRate;

  003d7	56		 push	 esi
  003d8	8d 4d 08	 lea	 ecx, DWORD PTR _strMaxLenValue$[ebp]
  003db	ff 15 00 00 00
	00		 call	 DWORD PTR __imp_??4?$CStringT@DV?$StrTraitMFC_DLL@DV?$ChTraitsCRT@D@ATL@@@@@ATL@@QAEAAV01@ABV01@@Z
$LN13@GetText:
; File C:\Program Files (x86)\Microsoft Visual Studio\2019\Community\VC\Tools\MSVC\14.29.30133\atlmfc\include\atlsimpstr.h

; 519  : 		return( GetData()->nDataLength );

  003e1	8b 45 08	 mov	 eax, DWORD PTR _strMaxLenValue$[ebp]
; File D:\git\src\IBK\IBK_DRFN\ProjSrc\SrcChartEx\ChartOCX\GraphDraw\GraphDataDrawer.cpp

; 1127 : 	return !strMaxLenValue.IsEmpty();

  003e4	8d 4d 08	 lea	 ecx, DWORD PTR _strMaxLenValue$[ebp]
; File C:\Program Files (x86)\Microsoft Visual Studio\2019\Community\VC\Tools\MSVC\14.29.30133\atlmfc\include\atlsimpstr.h

; 519  : 		return( GetData()->nDataLength );

  003e7	8b 70 f4	 mov	 esi, DWORD PTR [eax-12]
; File D:\git\src\IBK\IBK_DRFN\ProjSrc\SrcChartEx\ChartOCX\GraphDraw\GraphDataDrawer.cpp

; 1127 : 	return !strMaxLenValue.IsEmpty();

  003ea	ff 15 00 00 00
	00		 call	 DWORD PTR __imp_??1?$CStringT@DV?$StrTraitMFC_DLL@DV?$ChTraitsCRT@D@ATL@@@@@ATL@@QAE@XZ
; File C:\Program Files (x86)\Microsoft Visual Studio\2019\Community\VC\Tools\MSVC\14.29.30133\atlmfc\include\atlsimpstr.h

; 533  : 		return( GetLength() == 0 );

  003f0	85 f6		 test	 esi, esi
; File D:\git\src\IBK\IBK_DRFN\ProjSrc\SrcChartEx\ChartOCX\GraphDraw\GraphDataDrawer.cpp

; 1127 : 	return !strMaxLenValue.IsEmpty();

  003f2	0f 95 c0	 setne	 al

; 1128 : }

  003f5	8b 4d f4	 mov	 ecx, DWORD PTR __$EHRec$[ebp]
  003f8	64 89 0d 00 00
	00 00		 mov	 DWORD PTR fs:0, ecx
  003ff	59		 pop	 ecx
  00400	5f		 pop	 edi
  00401	5e		 pop	 esi
  00402	8b e5		 mov	 esp, ebp
  00404	5d		 pop	 ebp
  00405	c2 1c 00	 ret	 28			; 0000001cH
_TEXT	ENDS
;	COMDAT text$x
text$x	SEGMENT
__unwindfunclet$?GetText@CDataInRightScaleRegionDrawer@@ABE_NABVCRect@@ABVCPrices@@HAAV?$CStringT@DV?$StrTraitMFC_DLL@DV?$ChTraitsCRT@D@ATL@@@@@ATL@@222@Z$0:
  00000	8d 4d 08	 lea	 ecx, DWORD PTR _strMaxLenValue$[ebp]
  00003	ff 25 00 00 00
	00		 jmp	 DWORD PTR __imp_??1?$CStringT@DV?$StrTraitMFC_DLL@DV?$ChTraitsCRT@D@ATL@@@@@ATL@@QAE@XZ
__unwindfunclet$?GetText@CDataInRightScaleRegionDrawer@@ABE_NABVCRect@@ABVCPrices@@HAAV?$CStringT@DV?$StrTraitMFC_DLL@DV?$ChTraitsCRT@D@ATL@@@@@ATL@@222@Z$1:
  00009	8d 4d e8	 lea	 ecx, DWORD PTR $T6[ebp]
  0000c	ff 25 00 00 00
	00		 jmp	 DWORD PTR __imp_??1?$CStringT@DV?$StrTraitMFC_DLL@DV?$ChTraitsCRT@D@ATL@@@@@ATL@@QAE@XZ
__unwindfunclet$?GetText@CDataInRightScaleRegionDrawer@@ABE_NABVCRect@@ABVCPrices@@HAAV?$CStringT@DV?$StrTraitMFC_DLL@DV?$ChTraitsCRT@D@ATL@@@@@ATL@@222@Z$2:
  00012	8d 4d ec	 lea	 ecx, DWORD PTR $T8[ebp]
  00015	ff 25 00 00 00
	00		 jmp	 DWORD PTR __imp_??1?$CStringT@DV?$StrTraitMFC_DLL@DV?$ChTraitsCRT@D@ATL@@@@@ATL@@QAE@XZ
__unwindfunclet$?GetText@CDataInRightScaleRegionDrawer@@ABE_NABVCRect@@ABVCPrices@@HAAV?$CStringT@DV?$StrTraitMFC_DLL@DV?$ChTraitsCRT@D@ATL@@@@@ATL@@222@Z$3:
  0001b	8d 4d e0	 lea	 ecx, DWORD PTR $T4[ebp]
  0001e	ff 25 00 00 00
	00		 jmp	 DWORD PTR __imp_??1?$CStringT@DV?$StrTraitMFC_DLL@DV?$ChTraitsCRT@D@ATL@@@@@ATL@@QAE@XZ
__unwindfunclet$?GetText@CDataInRightScaleRegionDrawer@@ABE_NABVCRect@@ABVCPrices@@HAAV?$CStringT@DV?$StrTraitMFC_DLL@DV?$ChTraitsCRT@D@ATL@@@@@ATL@@222@Z$4:
  00024	8d 4d 10	 lea	 ecx, DWORD PTR $T11[ebp]
  00027	ff 25 00 00 00
	00		 jmp	 DWORD PTR __imp_??1?$CStringT@DV?$StrTraitMFC_DLL@DV?$ChTraitsCRT@D@ATL@@@@@ATL@@QAE@XZ
__unwindfunclet$?GetText@CDataInRightScaleRegionDrawer@@ABE_NABVCRect@@ABVCPrices@@HAAV?$CStringT@DV?$StrTraitMFC_DLL@DV?$ChTraitsCRT@D@ATL@@@@@ATL@@222@Z$5:
  0002d	8d 4d 14	 lea	 ecx, DWORD PTR $T14[ebp]
  00030	ff 25 00 00 00
	00		 jmp	 DWORD PTR __imp_??1?$CStringT@DV?$StrTraitMFC_DLL@DV?$ChTraitsCRT@D@ATL@@@@@ATL@@QAE@XZ
__unwindfunclet$?GetText@CDataInRightScaleRegionDrawer@@ABE_NABVCRect@@ABVCPrices@@HAAV?$CStringT@DV?$StrTraitMFC_DLL@DV?$ChTraitsCRT@D@ATL@@@@@ATL@@222@Z$6:
  00036	8d 4d e0	 lea	 ecx, DWORD PTR $T3[ebp]
  00039	ff 25 00 00 00
	00		 jmp	 DWORD PTR __imp_??1?$CStringT@DV?$StrTraitMFC_DLL@DV?$ChTraitsCRT@D@ATL@@@@@ATL@@QAE@XZ
__unwindfunclet$?GetText@CDataInRightScaleRegionDrawer@@ABE_NABVCRect@@ABVCPrices@@HAAV?$CStringT@DV?$StrTraitMFC_DLL@DV?$ChTraitsCRT@D@ATL@@@@@ATL@@222@Z$7:
  0003f	8d 4d 14	 lea	 ecx, DWORD PTR $T13[ebp]
  00042	ff 25 00 00 00
	00		 jmp	 DWORD PTR __imp_??1?$CStringT@DV?$StrTraitMFC_DLL@DV?$ChTraitsCRT@D@ATL@@@@@ATL@@QAE@XZ
__unwindfunclet$?GetText@CDataInRightScaleRegionDrawer@@ABE_NABVCRect@@ABVCPrices@@HAAV?$CStringT@DV?$StrTraitMFC_DLL@DV?$ChTraitsCRT@D@ATL@@@@@ATL@@222@Z$8:
  00048	8d 4d 18	 lea	 ecx, DWORD PTR $T16[ebp]
  0004b	ff 25 00 00 00
	00		 jmp	 DWORD PTR __imp_??1?$CStringT@DV?$StrTraitMFC_DLL@DV?$ChTraitsCRT@D@ATL@@@@@ATL@@QAE@XZ
__unwindfunclet$?GetText@CDataInRightScaleRegionDrawer@@ABE_NABVCRect@@ABVCPrices@@HAAV?$CStringT@DV?$StrTraitMFC_DLL@DV?$ChTraitsCRT@D@ATL@@@@@ATL@@222@Z$9:
  00051	8d 4d 10	 lea	 ecx, DWORD PTR $T10[ebp]
  00054	ff 25 00 00 00
	00		 jmp	 DWORD PTR __imp_??1?$CStringT@DV?$StrTraitMFC_DLL@DV?$ChTraitsCRT@D@ATL@@@@@ATL@@QAE@XZ
__unwindfunclet$?GetText@CDataInRightScaleRegionDrawer@@ABE_NABVCRect@@ABVCPrices@@HAAV?$CStringT@DV?$StrTraitMFC_DLL@DV?$ChTraitsCRT@D@ATL@@@@@ATL@@222@Z$10:
  0005a	8b 45 ec	 mov	 eax, DWORD PTR $T7[ebp]
  0005d	83 e0 01	 and	 eax, 1
  00060	0f 84 0d 00 00
	00		 je	 $LN28@GetText
  00066	83 65 ec fe	 and	 DWORD PTR $T7[ebp], -2	; fffffffeH
  0006a	8d 4d 1c	 lea	 ecx, DWORD PTR $T19[ebp]
  0006d	ff 25 00 00 00
	00		 jmp	 DWORD PTR __imp_??1?$CStringT@DV?$StrTraitMFC_DLL@DV?$ChTraitsCRT@D@ATL@@@@@ATL@@QAE@XZ
$LN28@GetText:
  00073	c3		 ret	 0
__unwindfunclet$?GetText@CDataInRightScaleRegionDrawer@@ABE_NABVCRect@@ABVCPrices@@HAAV?$CStringT@DV?$StrTraitMFC_DLL@DV?$ChTraitsCRT@D@ATL@@@@@ATL@@222@Z$11:
  00074	8d 4d 14	 lea	 ecx, DWORD PTR $T12[ebp]
  00077	ff 25 00 00 00
	00		 jmp	 DWORD PTR __imp_??1?$CStringT@DV?$StrTraitMFC_DLL@DV?$ChTraitsCRT@D@ATL@@@@@ATL@@QAE@XZ
__unwindfunclet$?GetText@CDataInRightScaleRegionDrawer@@ABE_NABVCRect@@ABVCPrices@@HAAV?$CStringT@DV?$StrTraitMFC_DLL@DV?$ChTraitsCRT@D@ATL@@@@@ATL@@222@Z$19:
  0007d	8b 45 ec	 mov	 eax, DWORD PTR $T7[ebp]
  00080	83 e0 40	 and	 eax, 64			; 00000040H
  00083	0f 84 0d 00 00
	00		 je	 $LN88@GetText
  00089	83 65 ec bf	 and	 DWORD PTR $T7[ebp], -65	; ffffffbfH
  0008d	8d 4d 18	 lea	 ecx, DWORD PTR $T15[ebp]
  00090	ff 25 00 00 00
	00		 jmp	 DWORD PTR __imp_??1?$CStringT@DV?$StrTraitMFC_DLL@DV?$ChTraitsCRT@D@ATL@@@@@ATL@@QAE@XZ
$LN88@GetText:
  00096	c3		 ret	 0
__unwindfunclet$?GetText@CDataInRightScaleRegionDrawer@@ABE_NABVCRect@@ABVCPrices@@HAAV?$CStringT@DV?$StrTraitMFC_DLL@DV?$ChTraitsCRT@D@ATL@@@@@ATL@@222@Z$20:
  00097	8b 45 ec	 mov	 eax, DWORD PTR $T7[ebp]
  0009a	25 80 00 00 00	 and	 eax, 128		; 00000080H
  0009f	0f 84 10 00 00
	00		 je	 $LN101@GetText
  000a5	81 65 ec 7f ff
	ff ff		 and	 DWORD PTR $T7[ebp], -129 ; ffffff7fH
  000ac	8d 4d 1c	 lea	 ecx, DWORD PTR $T18[ebp]
  000af	ff 25 00 00 00
	00		 jmp	 DWORD PTR __imp_??1?$CStringT@DV?$StrTraitMFC_DLL@DV?$ChTraitsCRT@D@ATL@@@@@ATL@@QAE@XZ
$LN101@GetText:
  000b5	c3		 ret	 0
  000b6	cc		 int	 3
  000b7	cc		 int	 3
  000b8	cc		 int	 3
  000b9	cc		 int	 3
  000ba	cc		 int	 3
__ehhandler$?GetText@CDataInRightScaleRegionDrawer@@ABE_NABVCRect@@ABVCPrices@@HAAV?$CStringT@DV?$StrTraitMFC_DLL@DV?$ChTraitsCRT@D@ATL@@@@@ATL@@222@Z:
  000bb	90		 npad	 1
  000bc	90		 npad	 1
  000bd	8b 54 24 08	 mov	 edx, DWORD PTR [esp+8]
  000c1	8d 42 0c	 lea	 eax, DWORD PTR [edx+12]
  000c4	8b 4a dc	 mov	 ecx, DWORD PTR [edx-36]
  000c7	33 c8		 xor	 ecx, eax
  000c9	e8 00 00 00 00	 call	 @__security_check_cookie@4
  000ce	b8 00 00 00 00	 mov	 eax, OFFSET __ehfuncinfo$?GetText@CDataInRightScaleRegionDrawer@@ABE_NABVCRect@@ABVCPrices@@HAAV?$CStringT@DV?$StrTraitMFC_DLL@DV?$ChTraitsCRT@D@ATL@@@@@ATL@@222@Z
  000d3	e9 00 00 00 00	 jmp	 ___CxxFrameHandler3
text$x	ENDS
?GetText@CDataInRightScaleRegionDrawer@@ABE_NABVCRect@@ABVCPrices@@HAAV?$CStringT@DV?$StrTraitMFC_DLL@DV?$ChTraitsCRT@D@ATL@@@@@ATL@@222@Z ENDP ; CDataInRightScaleRegionDrawer::GetText
; Function compile flags: /Ogtp
; File D:\git\src\IBK\IBK_DRFN\ProjSrc\SrcChartEx\ChartOCX\GraphDraw\GraphDataDrawer.cpp
;	COMDAT ?GetTextColor@CDataInRightScaleRegionDrawer@@ABEKABK@Z
_TEXT	SEGMENT
_bkColor$ = 8						; size = 4
?GetTextColor@CDataInRightScaleRegionDrawer@@ABEKABK@Z PROC ; CDataInRightScaleRegionDrawer::GetTextColor, COMDAT
; _this$ = ecx

; 1064 : {

  00000	55		 push	 ebp
  00001	8b ec		 mov	 ebp, esp

; 1065 : 	int nRed = GetRValue(bkColor);
; 1066 : 	int nRGreen = GetGValue(bkColor);
; 1067 : 	int nBlue = GetBValue(bkColor);
; 1068 : 	if(nRed > 200 && nRGreen > 200 && nBlue > 200)

  00003	8b 45 08	 mov	 eax, DWORD PTR _bkColor$[ebp]
  00006	80 38 c8	 cmp	 BYTE PTR [eax], 200	; 000000c8H
  00009	76 12		 jbe	 SHORT $LN2@GetTextCol
  0000b	80 78 01 c8	 cmp	 BYTE PTR [eax+1], 200	; 000000c8H
  0000f	76 0c		 jbe	 SHORT $LN2@GetTextCol
  00011	80 78 02 c8	 cmp	 BYTE PTR [eax+2], 200	; 000000c8H
  00015	76 06		 jbe	 SHORT $LN2@GetTextCol

; 1069 : 		return RGB(0, 0, 0);

  00017	33 c0		 xor	 eax, eax

; 1072 : }

  00019	5d		 pop	 ebp
  0001a	c2 04 00	 ret	 4
$LN2@GetTextCol:

; 1070 : 
; 1071 : 	return RGB(255, 255, 255);

  0001d	b8 ff ff ff 00	 mov	 eax, 16777215		; 00ffffffH

; 1072 : }

  00022	5d		 pop	 ebp
  00023	c2 04 00	 ret	 4
?GetTextColor@CDataInRightScaleRegionDrawer@@ABEKABK@Z ENDP ; CDataInRightScaleRegionDrawer::GetTextColor
_TEXT	ENDS
; Function compile flags: /Ogtp
; File D:\git\src\IBK\IBK_DRFN\ProjSrc\SrcChartEx\ChartOCX\GraphDraw\GraphDataDrawer.cpp
;	COMDAT ?GetCurrentPriceTextColor@CDataInRightScaleRegionDrawer@@ABEKABVCGraphColor@@ABVCPrices@@@Z
_TEXT	SEGMENT
_graphColor$ = 8					; size = 4
_prices$ = 12						; size = 4
?GetCurrentPriceTextColor@CDataInRightScaleRegionDrawer@@ABEKABVCGraphColor@@ABVCPrices@@@Z PROC ; CDataInRightScaleRegionDrawer::GetCurrentPriceTextColor, COMDAT
; _this$ = ecx

; 1050 : {

  00000	55		 push	 ebp
  00001	8b ec		 mov	 ebp, esp

; 139  : 	return (m_dCurPrice > m_dPrevPrice);

  00003	8b 45 0c	 mov	 eax, DWORD PTR _prices$[ebp]

; 1051 : 	// 
; 1052 : 	if(prices.IsRose())

  00006	8b 4d 08	 mov	 ecx, DWORD PTR _graphColor$[ebp]

; 139  : 	return (m_dCurPrice > m_dPrevPrice);

  00009	f2 0f 10 40 08	 movsd	 xmm0, QWORD PTR [eax+8]
  0000e	f2 0f 10 08	 movsd	 xmm1, QWORD PTR [eax]
  00012	66 0f 2f c1	 comisd	 xmm0, xmm1

; 1051 : 	// 
; 1052 : 	if(prices.IsRose())

  00016	76 0a		 jbe	 SHORT $LN2@GetCurrent

; 1053 : 		return graphColor.GetColor1();

  00018	ff 15 00 00 00
	00		 call	 DWORD PTR __imp_?GetColor1@CGraphColor@@QBEKXZ

; 1059 : }

  0001e	5d		 pop	 ebp
  0001f	c2 08 00	 ret	 8
$LN2@GetCurrent:

; 144  : 	return (m_dCurPrice < m_dPrevPrice);

  00022	66 0f 2f c8	 comisd	 xmm1, xmm0

; 1054 : 	// 
; 1055 : 	else if(prices.IsFall())

  00026	76 0a		 jbe	 SHORT $LN4@GetCurrent

; 1056 : 		return graphColor.GetColor3();

  00028	ff 15 00 00 00
	00		 call	 DWORD PTR __imp_?GetColor3@CGraphColor@@QBEKXZ

; 1059 : }

  0002e	5d		 pop	 ebp
  0002f	c2 08 00	 ret	 8
$LN4@GetCurrent:

; 1057 : 	// 
; 1058 : 	return graphColor.GetColor5();

  00032	ff 15 00 00 00
	00		 call	 DWORD PTR __imp_?GetColor5@CGraphColor@@QBEKXZ

; 1059 : }

  00038	5d		 pop	 ebp
  00039	c2 08 00	 ret	 8
?GetCurrentPriceTextColor@CDataInRightScaleRegionDrawer@@ABEKABVCGraphColor@@ABVCPrices@@@Z ENDP ; CDataInRightScaleRegionDrawer::GetCurrentPriceTextColor
_TEXT	ENDS
; Function compile flags: /Ogtp
; File D:\git\src\IBK\IBK_DRFN\ProjSrc\SrcChartEx\ChartOCX\GraphDraw\GraphDataDrawer.cpp
;	COMDAT ?GetTextPosition@CDataInRightScaleRegionDrawer@@ABE?AVCPoint@@HHABVCSize@@H@Z
_TEXT	SEGMENT
___$ReturnUdt$ = 8					; size = 4
_nOrg_x$ = 12						; size = 4
_nOrg_y$ = 16						; size = 4
_textSize$ = 20						; size = 4
_textPos$ = 24						; size = 4
?GetTextPosition@CDataInRightScaleRegionDrawer@@ABE?AVCPoint@@HHABVCSize@@H@Z PROC ; CDataInRightScaleRegionDrawer::GetTextPosition, COMDAT
; _this$ = ecx

; 1042 : {

  00000	55		 push	 ebp
  00001	8b ec		 mov	 ebp, esp
  00003	8b 55 14	 mov	 edx, DWORD PTR _textSize$[ebp]
  00006	8b 4d 0c	 mov	 ecx, DWORD PTR _nOrg_x$[ebp]
  00009	56		 push	 esi
  0000a	8b 75 08	 mov	 esi, DWORD PTR ___$ReturnUdt$[ebp]
  0000d	2b 0a		 sub	 ecx, DWORD PTR [edx]

; 1043 : 	if(textPos == DT_BOTTOM)

  0000f	83 7d 18 08	 cmp	 DWORD PTR _textPos$[ebp], 8
  00013	8b 42 04	 mov	 eax, DWORD PTR [edx+4]
  00016	89 0e		 mov	 DWORD PTR [esi], ecx
  00018	8b 4d 10	 mov	 ecx, DWORD PTR _nOrg_y$[ebp]
  0001b	74 05		 je	 SHORT $LN8@GetTextPos

; 1044 : 		return CPoint((nOrg_x - textSize.cx), (nOrg_y - textSize.cy));
; 1045 : 
; 1046 : 	return CPoint((nOrg_x - textSize.cx), (nOrg_y - textSize.cy/2));

  0001d	99		 cdq
  0001e	2b c2		 sub	 eax, edx
  00020	d1 f8		 sar	 eax, 1
$LN8@GetTextPos:

; 1047 : }

  00022	2b c8		 sub	 ecx, eax
  00024	8b c6		 mov	 eax, esi
  00026	89 4e 04	 mov	 DWORD PTR [esi+4], ecx
  00029	5e		 pop	 esi
  0002a	5d		 pop	 ebp
  0002b	c2 14 00	 ret	 20			; 00000014H
?GetTextPosition@CDataInRightScaleRegionDrawer@@ABE?AVCPoint@@HHABVCSize@@H@Z ENDP ; CDataInRightScaleRegionDrawer::GetTextPosition
_TEXT	ENDS
; Function compile flags: /Ogtp
; File D:\git\src\IBK\IBK_DRFN\ProjSrc\SrcChartEx\ChartOCX\GraphDraw\GraphDataDrawer.cpp
; File C:\Program Files (x86)\Microsoft Visual Studio\2019\Community\VC\Tools\MSVC\14.29.30133\atlmfc\include\atltypes.h
; File D:\git\src\IBK\IBK_DRFN\ProjSrc\SrcChartEx\ChartOCX\GraphDraw\GraphDataDrawer.cpp
;	COMDAT ?GetDrawingTextRegion@CDataInRightScaleRegionDrawer@@ABE?AVCRect@@ABV2@H@Z
_TEXT	SEGMENT
___$ReturnUdt$ = 8					; size = 4
_textRegion$ = 12					; size = 4
_nPrevGap_Y$ = 16					; size = 4
?GetDrawingTextRegion@CDataInRightScaleRegionDrawer@@ABE?AVCRect@@ABV2@H@Z PROC ; CDataInRightScaleRegionDrawer::GetDrawingTextRegion, COMDAT
; _this$ = ecx

; 1007 : {

  00000	55		 push	 ebp
  00001	8b ec		 mov	 ebp, esp

; 1008 : 	CRect drawingRegion = textRegion;

  00003	8b 45 0c	 mov	 eax, DWORD PTR _textRegion$[ebp]
  00006	56		 push	 esi
  00007	8b 75 08	 mov	 esi, DWORD PTR ___$ReturnUdt$[ebp]
  0000a	57		 push	 edi
  0000b	0f 10 00	 movups	 xmm0, XMMWORD PTR [eax]
  0000e	0f 11 06	 movups	 XMMWORD PTR [esi], xmm0
; File C:\Program Files (x86)\Microsoft Visual Studio\2019\Community\VC\Tools\MSVC\14.29.30133\atlmfc\include\atltypes.h

; 912  : 	left -= l;

  00011	8b 0e		 mov	 ecx, DWORD PTR [esi]

; 913  : 	top -= t;
; 914  : 	right += r;

  00013	8b 56 08	 mov	 edx, DWORD PTR [esi+8]
  00016	49		 dec	 ecx
  00017	8b 46 04	 mov	 eax, DWORD PTR [esi+4]
  0001a	42		 inc	 edx

; 915  : 	bottom += b;

  0001b	8b 7e 0c	 mov	 edi, DWORD PTR [esi+12]
  0001e	83 c0 fe	 add	 eax, -2			; fffffffeH
  00021	89 0e		 mov	 DWORD PTR [esi], ecx
  00023	89 46 04	 mov	 DWORD PTR [esi+4], eax
  00026	89 56 08	 mov	 DWORD PTR [esi+8], edx

; 884  : 	if (left > right)

  00029	3b ca		 cmp	 ecx, edx
  0002b	7e 05		 jle	 SHORT $LN6@GetDrawing

; 885  : 	{
; 886  : 		nTemp = left;
; 887  : 		left = right;

  0002d	89 16		 mov	 DWORD PTR [esi], edx

; 888  : 		right = nTemp;

  0002f	89 4e 08	 mov	 DWORD PTR [esi+8], ecx
$LN6@GetDrawing:

; 889  : 	}
; 890  : 	if (top > bottom)

  00032	3b c7		 cmp	 eax, edi
  00034	7e 06		 jle	 SHORT $LN7@GetDrawing

; 891  : 	{
; 892  : 		nTemp = top;
; 893  : 		top = bottom;

  00036	89 7e 04	 mov	 DWORD PTR [esi+4], edi

; 894  : 		bottom = nTemp;

  00039	89 46 0c	 mov	 DWORD PTR [esi+12], eax
$LN7@GetDrawing:

; 710  : 	::OffsetRect(this, x, y);

  0003c	ff 75 10	 push	 DWORD PTR _nPrevGap_Y$[ebp]
  0003f	6a 00		 push	 0
  00041	56		 push	 esi
  00042	ff 15 00 00 00
	00		 call	 DWORD PTR __imp__OffsetRect@12
; File D:\git\src\IBK\IBK_DRFN\ProjSrc\SrcChartEx\ChartOCX\GraphDraw\GraphDataDrawer.cpp

; 1012 : 	return drawingRegion;

  00048	5f		 pop	 edi
  00049	8b c6		 mov	 eax, esi
  0004b	5e		 pop	 esi

; 1013 : }

  0004c	5d		 pop	 ebp
  0004d	c2 0c 00	 ret	 12			; 0000000cH
?GetDrawingTextRegion@CDataInRightScaleRegionDrawer@@ABE?AVCRect@@ABV2@H@Z ENDP ; CDataInRightScaleRegionDrawer::GetDrawingTextRegion
_TEXT	ENDS
; Function compile flags: /Ogtp
; File D:\git\src\IBK\IBK_DRFN\ProjSrc\SrcChartEx\ChartOCX\GraphDraw\GraphDataDrawer.cpp
; File C:\Program Files (x86)\Microsoft Visual Studio\2019\Community\VC\Tools\MSVC\14.29.30133\atlmfc\include\atlsimpstr.h
; File D:\git\src\IBK\IBK_DRFN\ProjSrc\SrcChartEx\ChartOCX\GraphDraw\GraphDataDrawer.cpp
; File C:\Program Files (x86)\Microsoft Visual Studio\2019\Community\VC\Tools\MSVC\14.29.30133\atlmfc\include\atlsimpstr.h
; File D:\git\src\IBK\IBK_DRFN\ProjSrc\SrcChartEx\ChartOCX\GraphDraw\GraphDataDrawer.cpp
; File C:\Program Files (x86)\Microsoft Visual Studio\2019\Community\VC\Tools\MSVC\14.29.30133\atlmfc\include\atlsimpstr.h
; File D:\git\src\IBK\IBK_DRFN\ProjSrc\SrcChartEx\ChartOCX\GraphDraw\GraphDataDrawer.cpp
; File C:\Program Files (x86)\Microsoft Visual Studio\2019\Community\VC\Tools\MSVC\14.29.30133\atlmfc\include\atlsimpstr.h
; File C:\Program Files (x86)\Microsoft Visual Studio\2019\Community\VC\Tools\MSVC\14.29.30133\atlmfc\include\afxwin1.inl
; File C:\Program Files (x86)\Microsoft Visual Studio\2019\Community\VC\Tools\MSVC\14.29.30133\atlmfc\include\atlsimpstr.h
; File C:\Program Files (x86)\Microsoft Visual Studio\2019\Community\VC\Tools\MSVC\14.29.30133\atlmfc\include\afxwin1.inl
; File D:\git\src\IBK\IBK_DRFN\ProjSrc\SrcChartEx\ChartOCX\GraphDraw\GraphDataDrawer.cpp
; File C:\Program Files (x86)\Microsoft Visual Studio\2019\Community\VC\Tools\MSVC\14.29.30133\atlmfc\include\atltypes.h
; File D:\git\src\IBK\IBK_DRFN\ProjSrc\SrcChartEx\ChartOCX\GraphDraw\GraphDataDrawer.cpp
; File C:\Program Files (x86)\Microsoft Visual Studio\2019\Community\VC\Tools\MSVC\14.29.30133\atlmfc\include\atltypes.h
; File C:\Program Files (x86)\Microsoft Visual Studio\2019\Community\VC\Tools\MSVC\14.29.30133\atlmfc\include\afxwin1.inl
; File C:\Program Files (x86)\Microsoft Visual Studio\2019\Community\VC\Tools\MSVC\14.29.30133\atlmfc\include\atltypes.h
; File C:\Program Files (x86)\Microsoft Visual Studio\2019\Community\VC\Tools\MSVC\14.29.30133\atlmfc\include\afxwin1.inl
; File D:\git\src\IBK\IBK_DRFN\ProjSrc\SrcChartEx\ChartOCX\GraphDraw\GraphDataDrawer.cpp
; File C:\Program Files (x86)\Microsoft Visual Studio\2019\Community\VC\Tools\MSVC\14.29.30133\atlmfc\include\atltypes.h
; File D:\git\src\IBK\IBK_DRFN\ProjSrc\SrcChartEx\ChartOCX\GraphDraw\GraphDataDrawer.cpp
;	COMDAT ?GetTextRegion@CDataInRightScaleRegionDrawer@@ABE?AVCRect@@PAVCDC@@ABVCPoint@@ABV?$CStringT@DV?$StrTraitMFC_DLL@DV?$ChTraitsCRT@D@ATL@@@@@ATL@@222@Z
_TEXT	SEGMENT
_size$2 = -20						; size = 8
__$EHRec$ = -12						; size = 12
___$ReturnUdt$ = 8					; size = 4
_pDC$ = 12						; size = 4
_rightTopPt$ = 16					; size = 4
_strMax$ = 20						; size = 4
_strCurPrice$ = 20					; size = 4
tv670 = 24						; size = 4
_strDiffPrice$ = 24					; size = 4
_nTemp$1$ = 28						; size = 4
_strPipPrice$ = 28					; size = 4
tv668 = 32						; size = 4
_strRiseFallRate$ = 32					; size = 4
?GetTextRegion@CDataInRightScaleRegionDrawer@@ABE?AVCRect@@PAVCDC@@ABVCPoint@@ABV?$CStringT@DV?$StrTraitMFC_DLL@DV?$ChTraitsCRT@D@ATL@@@@@ATL@@222@Z PROC ; CDataInRightScaleRegionDrawer::GetTextRegion, COMDAT
; _this$ = ecx

; 1017 : {

  00000	55		 push	 ebp
  00001	8b ec		 mov	 ebp, esp
  00003	6a ff		 push	 -1
  00005	68 00 00 00 00	 push	 __ehhandler$?GetTextRegion@CDataInRightScaleRegionDrawer@@ABE?AVCRect@@PAVCDC@@ABVCPoint@@ABV?$CStringT@DV?$StrTraitMFC_DLL@DV?$ChTraitsCRT@D@ATL@@@@@ATL@@222@Z
  0000a	64 a1 00 00 00
	00		 mov	 eax, DWORD PTR fs:0
  00010	50		 push	 eax
  00011	83 ec 08	 sub	 esp, 8
  00014	53		 push	 ebx
  00015	56		 push	 esi
  00016	57		 push	 edi
  00017	a1 00 00 00 00	 mov	 eax, DWORD PTR ___security_cookie
  0001c	33 c5		 xor	 eax, ebp
  0001e	50		 push	 eax
  0001f	8d 45 f4	 lea	 eax, DWORD PTR __$EHRec$[ebp]
  00022	64 a3 00 00 00
	00		 mov	 DWORD PTR fs:0, eax

; 1018 : 	CString strMax = strCurPrice;

  00028	8b 75 14	 mov	 esi, DWORD PTR _strCurPrice$[ebp]
  0002b	8d 4d 14	 lea	 ecx, DWORD PTR _strMax$[ebp]
  0002e	56		 push	 esi
  0002f	ff 15 00 00 00
	00		 call	 DWORD PTR __imp_??0?$CStringT@DV?$StrTraitMFC_DLL@DV?$ChTraitsCRT@D@ATL@@@@@ATL@@QAE@ABV01@@Z

; 1019 : 	if(strCurPrice.GetLength() < strDiffPrice.GetLength())

  00035	8b 7d 18	 mov	 edi, DWORD PTR _strDiffPrice$[ebp]
; File C:\Program Files (x86)\Microsoft Visual Studio\2019\Community\VC\Tools\MSVC\14.29.30133\atlmfc\include\atlsimpstr.h

; 519  : 		return( GetData()->nDataLength );

  00038	8b 16		 mov	 edx, DWORD PTR [esi]
; File D:\git\src\IBK\IBK_DRFN\ProjSrc\SrcChartEx\ChartOCX\GraphDraw\GraphDataDrawer.cpp

; 1018 : 	CString strMax = strCurPrice;

  0003a	c7 45 fc 00 00
	00 00		 mov	 DWORD PTR __$EHRec$[ebp+8], 0

; 1019 : 	if(strCurPrice.GetLength() < strDiffPrice.GetLength())

  00041	8b 0f		 mov	 ecx, DWORD PTR [edi]
  00043	8b 42 f4	 mov	 eax, DWORD PTR [edx-12]
  00046	3b 41 f4	 cmp	 eax, DWORD PTR [ecx-12]
  00049	7d 0c		 jge	 SHORT $LN2@GetTextReg

; 1020 : 		strMax = strDiffPrice;

  0004b	57		 push	 edi
  0004c	8d 4d 14	 lea	 ecx, DWORD PTR _strMax$[ebp]
  0004f	ff 15 00 00 00
	00		 call	 DWORD PTR __imp_??4?$CStringT@DV?$StrTraitMFC_DLL@DV?$ChTraitsCRT@D@ATL@@@@@ATL@@QAEAAV01@ABV01@@Z
  00055	8b 16		 mov	 edx, DWORD PTR [esi]
$LN2@GetTextReg:

; 1021 : 	if(strCurPrice.GetLength() < strPipPrice.GetLength())

  00057	8b 7d 1c	 mov	 edi, DWORD PTR _strPipPrice$[ebp]
  0005a	8b 42 f4	 mov	 eax, DWORD PTR [edx-12]
  0005d	8b 0f		 mov	 ecx, DWORD PTR [edi]
  0005f	3b 41 f4	 cmp	 eax, DWORD PTR [ecx-12]
  00062	7d 0c		 jge	 SHORT $LN3@GetTextReg

; 1022 : 		strMax = strPipPrice;

  00064	57		 push	 edi
  00065	8d 4d 14	 lea	 ecx, DWORD PTR _strMax$[ebp]
  00068	ff 15 00 00 00
	00		 call	 DWORD PTR __imp_??4?$CStringT@DV?$StrTraitMFC_DLL@DV?$ChTraitsCRT@D@ATL@@@@@ATL@@QAEAAV01@ABV01@@Z
  0006e	8b 16		 mov	 edx, DWORD PTR [esi]
$LN3@GetTextReg:
; File C:\Program Files (x86)\Microsoft Visual Studio\2019\Community\VC\Tools\MSVC\14.29.30133\atlmfc\include\atlsimpstr.h

; 519  : 		return( GetData()->nDataLength );

  00070	8b 7d 20	 mov	 edi, DWORD PTR _strRiseFallRate$[ebp]
; File D:\git\src\IBK\IBK_DRFN\ProjSrc\SrcChartEx\ChartOCX\GraphDraw\GraphDataDrawer.cpp

; 1023 : 	if(strCurPrice.GetLength() < strRiseFallRate.GetLength())

  00073	8b 42 f4	 mov	 eax, DWORD PTR [edx-12]
; File C:\Program Files (x86)\Microsoft Visual Studio\2019\Community\VC\Tools\MSVC\14.29.30133\atlmfc\include\atlsimpstr.h

; 519  : 		return( GetData()->nDataLength );

  00076	8b 0f		 mov	 ecx, DWORD PTR [edi]
; File D:\git\src\IBK\IBK_DRFN\ProjSrc\SrcChartEx\ChartOCX\GraphDraw\GraphDataDrawer.cpp

; 1023 : 	if(strCurPrice.GetLength() < strRiseFallRate.GetLength())

  00078	3b 41 f4	 cmp	 eax, DWORD PTR [ecx-12]
  0007b	7d 0e		 jge	 SHORT $LN4@GetTextReg

; 1024 : 		strMax = strRiseFallRate;

  0007d	57		 push	 edi
  0007e	8d 4d 14	 lea	 ecx, DWORD PTR _strMax$[ebp]
  00081	ff 15 00 00 00
	00		 call	 DWORD PTR __imp_??4?$CStringT@DV?$StrTraitMFC_DLL@DV?$ChTraitsCRT@D@ATL@@@@@ATL@@QAEAAV01@ABV01@@Z
  00087	8b 16		 mov	 edx, DWORD PTR [esi]
  00089	8b 0f		 mov	 ecx, DWORD PTR [edi]
$LN4@GetTextReg:
; File C:\Program Files (x86)\Microsoft Visual Studio\2019\Community\VC\Tools\MSVC\14.29.30133\atlmfc\include\atlsimpstr.h

; 533  : 		return( GetLength() == 0 );

  0008b	8b 71 f4	 mov	 esi, DWORD PTR [ecx-12]
; File C:\Program Files (x86)\Microsoft Visual Studio\2019\Community\VC\Tools\MSVC\14.29.30133\atlmfc\include\afxwin1.inl

; 639  : 		VERIFY(::GetTextExtentPoint32(m_hAttribDC, str, (int)str.GetLength(), &size));

  0008e	8d 45 ec	 lea	 eax, DWORD PTR _size$2[ebp]
  00091	50		 push	 eax
  00092	8b 45 14	 mov	 eax, DWORD PTR _strMax$[ebp]
; File C:\Program Files (x86)\Microsoft Visual Studio\2019\Community\VC\Tools\MSVC\14.29.30133\atlmfc\include\atlsimpstr.h

; 519  : 		return( GetData()->nDataLength );

  00095	33 db		 xor	 ebx, ebx
  00097	39 5a f4	 cmp	 DWORD PTR [edx-12], ebx
  0009a	0f 95 c3	 setne	 bl
; File C:\Program Files (x86)\Microsoft Visual Studio\2019\Community\VC\Tools\MSVC\14.29.30133\atlmfc\include\afxwin1.inl

; 639  : 		VERIFY(::GetTextExtentPoint32(m_hAttribDC, str, (int)str.GetLength(), &size));

  0009d	ff 70 f4	 push	 DWORD PTR [eax-12]
  000a0	50		 push	 eax
  000a1	8b 45 0c	 mov	 eax, DWORD PTR _pDC$[ebp]
  000a4	ff 70 08	 push	 DWORD PTR [eax+8]
  000a7	ff 15 00 00 00
	00		 call	 DWORD PTR __imp__GetTextExtentPoint32A@16
; File D:\git\src\IBK\IBK_DRFN\ProjSrc\SrcChartEx\ChartOCX\GraphDraw\GraphDataDrawer.cpp

; 1033 : 	CRect region(rightTopPt, rightTopPt);

  000ad	8b 45 10	 mov	 eax, DWORD PTR _rightTopPt$[ebp]
; File C:\Program Files (x86)\Microsoft Visual Studio\2019\Community\VC\Tools\MSVC\14.29.30133\atlmfc\include\atltypes.h

; 569  : 	top = topLeft.y;

  000b0	8b 7d 08	 mov	 edi, DWORD PTR ___$ReturnUdt$[ebp]
; File D:\git\src\IBK\IBK_DRFN\ProjSrc\SrcChartEx\ChartOCX\GraphDraw\GraphDataDrawer.cpp

; 1033 : 	CRect region(rightTopPt, rightTopPt);

  000b3	8b 50 04	 mov	 edx, DWORD PTR [eax+4]
  000b6	8b 08		 mov	 ecx, DWORD PTR [eax]
; File C:\Program Files (x86)\Microsoft Visual Studio\2019\Community\VC\Tools\MSVC\14.29.30133\atlmfc\include\atltypes.h

; 912  : 	left -= l;

  000b8	8b c1		 mov	 eax, ecx
  000ba	2b 45 ec	 sub	 eax, DWORD PTR _size$2[ebp]
  000bd	83 c0 fe	 add	 eax, -2			; fffffffeH
; File C:\Program Files (x86)\Microsoft Visual Studio\2019\Community\VC\Tools\MSVC\14.29.30133\atlmfc\include\afxwin1.inl

; 639  : 		VERIFY(::GetTextExtentPoint32(m_hAttribDC, str, (int)str.GetLength(), &size));

  000c0	85 f6		 test	 esi, esi
; File C:\Program Files (x86)\Microsoft Visual Studio\2019\Community\VC\Tools\MSVC\14.29.30133\atlmfc\include\atltypes.h

; 912  : 	left -= l;

  000c2	89 45 1c	 mov	 DWORD PTR _nTemp$1$[ebp], eax
  000c5	89 07		 mov	 DWORD PTR [edi], eax
  000c7	8d 42 fe	 lea	 eax, DWORD PTR [edx-2]
  000ca	89 45 20	 mov	 DWORD PTR tv668[ebp], eax

; 913  : 	top -= t;

  000cd	89 47 04	 mov	 DWORD PTR [edi+4], eax
  000d0	8d 41 02	 lea	 eax, DWORD PTR [ecx+2]
  000d3	89 45 18	 mov	 DWORD PTR tv670[ebp], eax

; 915  : 	bottom += b;

  000d6	8d 4a 01	 lea	 ecx, DWORD PTR [edx+1]

; 884  : 	if (left > right)

  000d9	8b 55 1c	 mov	 edx, DWORD PTR _nTemp$1$[ebp]

; 914  : 	right += r;

  000dc	89 47 08	 mov	 DWORD PTR [edi+8], eax
; File C:\Program Files (x86)\Microsoft Visual Studio\2019\Community\VC\Tools\MSVC\14.29.30133\atlmfc\include\afxwin1.inl

; 639  : 		VERIFY(::GetTextExtentPoint32(m_hAttribDC, str, (int)str.GetLength(), &size));

  000df	8d 43 01	 lea	 eax, DWORD PTR [ebx+1]
  000e2	0f 44 c3	 cmove	 eax, ebx
; File D:\git\src\IBK\IBK_DRFN\ProjSrc\SrcChartEx\ChartOCX\GraphDraw\GraphDataDrawer.cpp

; 1034 : 	region.InflateRect((strMaxSize.cx + 2), 2, 2, (strMaxSize.cy*nLineCount +1));

  000e5	0f af 45 f0	 imul	 eax, DWORD PTR _size$2[ebp+4]
; File C:\Program Files (x86)\Microsoft Visual Studio\2019\Community\VC\Tools\MSVC\14.29.30133\atlmfc\include\atltypes.h

; 915  : 	bottom += b;

  000e9	03 c8		 add	 ecx, eax

; 884  : 	if (left > right)

  000eb	8b 45 18	 mov	 eax, DWORD PTR tv670[ebp]

; 915  : 	bottom += b;

  000ee	89 4f 0c	 mov	 DWORD PTR [edi+12], ecx

; 884  : 	if (left > right)

  000f1	3b d0		 cmp	 edx, eax
  000f3	7e 05		 jle	 SHORT $LN60@GetTextReg

; 885  : 	{
; 886  : 		nTemp = left;
; 887  : 		left = right;

  000f5	89 07		 mov	 DWORD PTR [edi], eax

; 888  : 		right = nTemp;

  000f7	89 57 08	 mov	 DWORD PTR [edi+8], edx
$LN60@GetTextReg:

; 889  : 	}
; 890  : 	if (top > bottom)

  000fa	8b 45 20	 mov	 eax, DWORD PTR tv668[ebp]
  000fd	3b c1		 cmp	 eax, ecx
  000ff	7e 06		 jle	 SHORT $LN61@GetTextReg

; 891  : 	{
; 892  : 		nTemp = top;
; 893  : 		top = bottom;

  00101	89 4f 04	 mov	 DWORD PTR [edi+4], ecx

; 894  : 		bottom = nTemp;

  00104	89 47 0c	 mov	 DWORD PTR [edi+12], eax
$LN61@GetTextReg:
; File D:\git\src\IBK\IBK_DRFN\ProjSrc\SrcChartEx\ChartOCX\GraphDraw\GraphDataDrawer.cpp

; 1037 : 	return region;

  00107	8d 4d 14	 lea	 ecx, DWORD PTR _strMax$[ebp]
  0010a	ff 15 00 00 00
	00		 call	 DWORD PTR __imp_??1?$CStringT@DV?$StrTraitMFC_DLL@DV?$ChTraitsCRT@D@ATL@@@@@ATL@@QAE@XZ
  00110	8b c7		 mov	 eax, edi

; 1038 : }

  00112	8b 4d f4	 mov	 ecx, DWORD PTR __$EHRec$[ebp]
  00115	64 89 0d 00 00
	00 00		 mov	 DWORD PTR fs:0, ecx
  0011c	59		 pop	 ecx
  0011d	5f		 pop	 edi
  0011e	5e		 pop	 esi
  0011f	5b		 pop	 ebx
  00120	8b e5		 mov	 esp, ebp
  00122	5d		 pop	 ebp
  00123	c2 1c 00	 ret	 28			; 0000001cH
_TEXT	ENDS
;	COMDAT text$x
text$x	SEGMENT
__unwindfunclet$?GetTextRegion@CDataInRightScaleRegionDrawer@@ABE?AVCRect@@PAVCDC@@ABVCPoint@@ABV?$CStringT@DV?$StrTraitMFC_DLL@DV?$ChTraitsCRT@D@ATL@@@@@ATL@@222@Z$0:
  00000	8d 4d 14	 lea	 ecx, DWORD PTR _strMax$[ebp]
  00003	ff 25 00 00 00
	00		 jmp	 DWORD PTR __imp_??1?$CStringT@DV?$StrTraitMFC_DLL@DV?$ChTraitsCRT@D@ATL@@@@@ATL@@QAE@XZ
  00009	cc		 int	 3
  0000a	cc		 int	 3
  0000b	cc		 int	 3
  0000c	cc		 int	 3
  0000d	cc		 int	 3
__ehhandler$?GetTextRegion@CDataInRightScaleRegionDrawer@@ABE?AVCRect@@PAVCDC@@ABVCPoint@@ABV?$CStringT@DV?$StrTraitMFC_DLL@DV?$ChTraitsCRT@D@ATL@@@@@ATL@@222@Z:
  0000e	90		 npad	 1
  0000f	90		 npad	 1
  00010	8b 54 24 08	 mov	 edx, DWORD PTR [esp+8]
  00014	8d 42 0c	 lea	 eax, DWORD PTR [edx+12]
  00017	8b 4a e8	 mov	 ecx, DWORD PTR [edx-24]
  0001a	33 c8		 xor	 ecx, eax
  0001c	e8 00 00 00 00	 call	 @__security_check_cookie@4
  00021	b8 00 00 00 00	 mov	 eax, OFFSET __ehfuncinfo$?GetTextRegion@CDataInRightScaleRegionDrawer@@ABE?AVCRect@@PAVCDC@@ABVCPoint@@ABV?$CStringT@DV?$StrTraitMFC_DLL@DV?$ChTraitsCRT@D@ATL@@@@@ATL@@222@Z
  00026	e9 00 00 00 00	 jmp	 ___CxxFrameHandler3
text$x	ENDS
?GetTextRegion@CDataInRightScaleRegionDrawer@@ABE?AVCRect@@PAVCDC@@ABVCPoint@@ABV?$CStringT@DV?$StrTraitMFC_DLL@DV?$ChTraitsCRT@D@ATL@@@@@ATL@@222@Z ENDP ; CDataInRightScaleRegionDrawer::GetTextRegion
; Function compile flags: /Ogtp
; File D:\git\src\IBK\IBK_DRFN\ProjSrc\SrcChartEx\ChartOCX\GraphDraw\GraphDataDrawer.cpp
; File C:\Program Files (x86)\Microsoft Visual Studio\2019\Community\VC\Tools\MSVC\14.29.30133\atlmfc\include\atlsimpstr.h
; File D:\git\src\IBK\IBK_DRFN\ProjSrc\SrcChartEx\ChartOCX\GraphDraw\GraphDataDrawer.cpp
; File C:\Program Files (x86)\Microsoft Visual Studio\2019\Community\VC\Tools\MSVC\14.29.30133\atlmfc\include\atlsimpstr.h
; File D:\git\src\IBK\IBK_DRFN\ProjSrc\SrcChartEx\ChartOCX\GraphDraw\GraphDataDrawer.cpp
; File C:\Program Files (x86)\Microsoft Visual Studio\2019\Community\VC\Tools\MSVC\14.29.30133\atlmfc\include\atlsimpstr.h
; File D:\git\src\IBK\IBK_DRFN\ProjSrc\SrcChartEx\ChartOCX\GraphDraw\GraphDataDrawer.cpp
; File C:\Program Files (x86)\Microsoft Visual Studio\2019\Community\VC\Tools\MSVC\14.29.30133\atlmfc\include\atlsimpstr.h
; File D:\git\src\IBK\IBK_DRFN\ProjSrc\SrcChartEx\ChartOCX\GraphDraw\GraphDataDrawer.cpp
; File C:\Program Files (x86)\Microsoft Visual Studio\2019\Community\VC\Tools\MSVC\14.29.30133\atlmfc\include\atlsimpstr.h
; File C:\Program Files (x86)\Microsoft Visual Studio\2019\Community\VC\Tools\MSVC\14.29.30133\atlmfc\include\afxwin1.inl
; File D:\git\src\IBK\IBK_DRFN\ProjSrc\SrcChartEx\ChartOCX\GraphDraw\GraphDataDrawer.cpp
; File C:\Program Files (x86)\Microsoft Visual Studio\2019\Community\VC\Tools\MSVC\14.29.30133\atlmfc\include\afxwin1.inl
; File D:\git\src\IBK\IBK_DRFN\ProjSrc\SrcChartEx\ChartOCX\GraphDraw\GraphDataDrawer.cpp
; File C:\Program Files (x86)\Microsoft Visual Studio\2019\Community\VC\Tools\MSVC\14.29.30133\atlmfc\include\afxwin1.inl
; File C:\Program Files (x86)\Microsoft Visual Studio\2019\Community\VC\Tools\MSVC\14.29.30133\atlmfc\include\atltypes.h
; File D:\git\src\IBK\IBK_DRFN\ProjSrc\SrcChartEx\ChartOCX\GraphDraw\GraphDataDrawer.cpp
; File C:\Program Files (x86)\Microsoft Visual Studio\2019\Community\VC\Tools\MSVC\14.29.30133\atlmfc\include\atltypes.h
; File D:\git\src\IBK\IBK_DRFN\ProjSrc\SrcChartEx\ChartOCX\GraphDraw\GraphDataDrawer.cpp
; File C:\Program Files (x86)\Microsoft Visual Studio\2019\Community\VC\Tools\MSVC\14.29.30133\atlmfc\include\atltypes.h
; File D:\git\src\IBK\IBK_DRFN\ProjSrc\SrcChartEx\ChartOCX\GraphDraw\GraphDataDrawer.cpp
; File C:\Program Files (x86)\Microsoft Visual Studio\2019\Community\VC\Tools\MSVC\14.29.30133\atlmfc\include\atltypes.h
; File D:\git\src\IBK\IBK_DRFN\ProjSrc\SrcChartEx\ChartOCX\GraphDraw\GraphDataDrawer.cpp
; File C:\Program Files (x86)\Microsoft Visual Studio\2019\Community\VC\Tools\MSVC\14.29.30133\atlmfc\include\atltypes.h
; File D:\git\src\IBK\IBK_DRFN\ProjSrc\SrcChartEx\ChartOCX\GraphDraw\GraphDataDrawer.cpp
;	COMDAT ?GetTextRegion@CDataInRightScaleRegionDrawer@@ABE?AVCRect@@PAVCDC@@ABVCDrawingGraphData@@ABVCPrices@@ABV?$CStringT@DV?$StrTraitMFC_DLL@DV?$ChTraitsCRT@D@ATL@@@@@ATL@@333ABV2@@Z
_TEXT	SEGMENT
$T4 = -116						; size = 16
$T5 = -100						; size = 16
$T6 = -84						; size = 16
$T7 = -68						; size = 16
$T8 = -60						; size = 8
_size$9 = -52						; size = 8
_size$10 = -44						; size = 8
_dRealCur$11 = -36					; size = 8
$T12 = -36						; size = 8
_dRealMin$13 = -28					; size = 8
_dRealMax$14 = -20					; size = 8
__$EHRec$ = -12						; size = 12
___$ReturnUdt$ = 8					; size = 4
_pDC$ = 12						; size = 4
_drawingGraphData$ = 16					; size = 4
_prices$ = 20						; size = 4
_strMax$ = 24						; size = 4
_strCurPrice$ = 24					; size = 4
$T15 = 28						; size = 4
_strDiffPrice$ = 28					; size = 4
_strPipPrice$ = 32					; size = 4
_strRiseFallRate$ = 36					; size = 4
_rcScaleText$ = 40					; size = 4
?GetTextRegion@CDataInRightScaleRegionDrawer@@ABE?AVCRect@@PAVCDC@@ABVCDrawingGraphData@@ABVCPrices@@ABV?$CStringT@DV?$StrTraitMFC_DLL@DV?$ChTraitsCRT@D@ATL@@@@@ATL@@333ABV2@@Z PROC ; CDataInRightScaleRegionDrawer::GetTextRegion, COMDAT
; _this$ = ecx

; 985  : {

  00000	55		 push	 ebp
  00001	8b ec		 mov	 ebp, esp
  00003	6a ff		 push	 -1
  00005	68 00 00 00 00	 push	 __ehhandler$?GetTextRegion@CDataInRightScaleRegionDrawer@@ABE?AVCRect@@PAVCDC@@ABVCDrawingGraphData@@ABVCPrices@@ABV?$CStringT@DV?$StrTraitMFC_DLL@DV?$ChTraitsCRT@D@ATL@@@@@ATL@@333ABV2@@Z
  0000a	64 a1 00 00 00
	00		 mov	 eax, DWORD PTR fs:0
  00010	50		 push	 eax
  00011	83 ec 68	 sub	 esp, 104		; 00000068H
  00014	53		 push	 ebx
  00015	56		 push	 esi
  00016	57		 push	 edi
  00017	a1 00 00 00 00	 mov	 eax, DWORD PTR ___security_cookie
  0001c	33 c5		 xor	 eax, ebp
  0001e	50		 push	 eax
  0001f	8d 45 f4	 lea	 eax, DWORD PTR __$EHRec$[ebp]
  00022	64 a3 00 00 00
	00		 mov	 DWORD PTR fs:0, eax

; 986  : 	CString strMax = strCurPrice;

  00028	8b 75 18	 mov	 esi, DWORD PTR _strCurPrice$[ebp]
  0002b	8d 4d 18	 lea	 ecx, DWORD PTR _strMax$[ebp]
  0002e	56		 push	 esi
  0002f	ff 15 00 00 00
	00		 call	 DWORD PTR __imp_??0?$CStringT@DV?$StrTraitMFC_DLL@DV?$ChTraitsCRT@D@ATL@@@@@ATL@@QAE@ABV01@@Z
; File C:\Program Files (x86)\Microsoft Visual Studio\2019\Community\VC\Tools\MSVC\14.29.30133\atlmfc\include\atlsimpstr.h

; 519  : 		return( GetData()->nDataLength );

  00035	8b 7d 1c	 mov	 edi, DWORD PTR _strDiffPrice$[ebp]
  00038	8b 16		 mov	 edx, DWORD PTR [esi]
; File D:\git\src\IBK\IBK_DRFN\ProjSrc\SrcChartEx\ChartOCX\GraphDraw\GraphDataDrawer.cpp

; 986  : 	CString strMax = strCurPrice;

  0003a	c7 45 fc 00 00
	00 00		 mov	 DWORD PTR __$EHRec$[ebp+8], 0
; File C:\Program Files (x86)\Microsoft Visual Studio\2019\Community\VC\Tools\MSVC\14.29.30133\atlmfc\include\atlsimpstr.h

; 519  : 		return( GetData()->nDataLength );

  00041	8b 07		 mov	 eax, DWORD PTR [edi]
  00043	8b 4a f4	 mov	 ecx, DWORD PTR [edx-12]
; File D:\git\src\IBK\IBK_DRFN\ProjSrc\SrcChartEx\ChartOCX\GraphDraw\GraphDataDrawer.cpp

; 987  : 	if(strCurPrice.GetLength() < strDiffPrice.GetLength())

  00046	3b 48 f4	 cmp	 ecx, DWORD PTR [eax-12]
  00049	7d 0c		 jge	 SHORT $LN2@GetTextReg

; 988  : 		strMax = strDiffPrice;

  0004b	57		 push	 edi
  0004c	8d 4d 18	 lea	 ecx, DWORD PTR _strMax$[ebp]
  0004f	ff 15 00 00 00
	00		 call	 DWORD PTR __imp_??4?$CStringT@DV?$StrTraitMFC_DLL@DV?$ChTraitsCRT@D@ATL@@@@@ATL@@QAEAAV01@ABV01@@Z
  00055	8b 16		 mov	 edx, DWORD PTR [esi]
$LN2@GetTextReg:
; File C:\Program Files (x86)\Microsoft Visual Studio\2019\Community\VC\Tools\MSVC\14.29.30133\atlmfc\include\atlsimpstr.h

; 519  : 		return( GetData()->nDataLength );

  00057	8b 7d 20	 mov	 edi, DWORD PTR _strPipPrice$[ebp]
  0005a	8b 4a f4	 mov	 ecx, DWORD PTR [edx-12]
  0005d	8b 07		 mov	 eax, DWORD PTR [edi]
; File D:\git\src\IBK\IBK_DRFN\ProjSrc\SrcChartEx\ChartOCX\GraphDraw\GraphDataDrawer.cpp

; 989  : 	if(strCurPrice.GetLength() < strPipPrice.GetLength())

  0005f	3b 48 f4	 cmp	 ecx, DWORD PTR [eax-12]
  00062	7d 0c		 jge	 SHORT $LN3@GetTextReg

; 990  : 		strMax = strPipPrice;

  00064	57		 push	 edi
  00065	8d 4d 18	 lea	 ecx, DWORD PTR _strMax$[ebp]
  00068	ff 15 00 00 00
	00		 call	 DWORD PTR __imp_??4?$CStringT@DV?$StrTraitMFC_DLL@DV?$ChTraitsCRT@D@ATL@@@@@ATL@@QAEAAV01@ABV01@@Z
  0006e	8b 16		 mov	 edx, DWORD PTR [esi]
$LN3@GetTextReg:
; File C:\Program Files (x86)\Microsoft Visual Studio\2019\Community\VC\Tools\MSVC\14.29.30133\atlmfc\include\atlsimpstr.h

; 519  : 		return( GetData()->nDataLength );

  00070	8b 4a f4	 mov	 ecx, DWORD PTR [edx-12]
  00073	8b 55 24	 mov	 edx, DWORD PTR _strRiseFallRate$[ebp]
  00076	8b 02		 mov	 eax, DWORD PTR [edx]
; File D:\git\src\IBK\IBK_DRFN\ProjSrc\SrcChartEx\ChartOCX\GraphDraw\GraphDataDrawer.cpp

; 991  : 	if(strCurPrice.GetLength() < strRiseFallRate.GetLength())

  00078	3b 48 f4	 cmp	 ecx, DWORD PTR [eax-12]
  0007b	7d 0a		 jge	 SHORT $LN4@GetTextReg

; 992  : 		strMax = strRiseFallRate;

  0007d	52		 push	 edx
  0007e	8d 4d 18	 lea	 ecx, DWORD PTR _strMax$[ebp]
  00081	ff 15 00 00 00
	00		 call	 DWORD PTR __imp_??4?$CStringT@DV?$StrTraitMFC_DLL@DV?$ChTraitsCRT@D@ATL@@@@@ATL@@QAEAAV01@ABV01@@Z
$LN4@GetTextReg:
; File C:\Program Files (x86)\Microsoft Visual Studio\2019\Community\VC\Tools\MSVC\14.29.30133\atlmfc\include\atlsimpstr.h

; 519  : 		return( GetData()->nDataLength );

  00087	8b 45 18	 mov	 eax, DWORD PTR _strMax$[ebp]
; File C:\Program Files (x86)\Microsoft Visual Studio\2019\Community\VC\Tools\MSVC\14.29.30133\atlmfc\include\afxwin1.inl

; 639  : 		VERIFY(::GetTextExtentPoint32(m_hAttribDC, str, (int)str.GetLength(), &size));

  0008a	8d 4d cc	 lea	 ecx, DWORD PTR _size$9[ebp]
  0008d	8b 7d 0c	 mov	 edi, DWORD PTR _pDC$[ebp]
  00090	8b 35 00 00 00
	00		 mov	 esi, DWORD PTR __imp__GetTextExtentPoint32A@16
  00096	51		 push	 ecx
  00097	ff 70 f4	 push	 DWORD PTR [eax-12]
  0009a	50		 push	 eax
  0009b	ff 77 08	 push	 DWORD PTR [edi+8]
  0009e	ff d6		 call	 esi
; File D:\git\src\IBK\IBK_DRFN\ProjSrc\SrcChartEx\ChartOCX\GraphDraw\GraphDataDrawer.cpp

; 996  : 	int nPosition_Y = GetPosition_Y(pDC->GetTextExtent("0"), drawingGraphData, prices.GetCur(), rcScaleText);

  000a0	8b 45 14	 mov	 eax, DWORD PTR _prices$[ebp]
  000a3	8d 4d 1c	 lea	 ecx, DWORD PTR $T15[ebp]
  000a6	68 00 00 00 00	 push	 OFFSET ??_C@_01GBGANLPD@0@
  000ab	f2 0f 10 40 08	 movsd	 xmm0, QWORD PTR [eax+8]
  000b0	f2 0f 11 45 c4	 movsd	 QWORD PTR $T8[ebp], xmm0
  000b5	ff 15 00 00 00
	00		 call	 DWORD PTR __imp_??0?$CStringT@DV?$StrTraitMFC_DLL@DV?$ChTraitsCRT@D@ATL@@@@@ATL@@QAE@PBD@Z
; File C:\Program Files (x86)\Microsoft Visual Studio\2019\Community\VC\Tools\MSVC\14.29.30133\atlmfc\include\afxwin1.inl

; 639  : 		VERIFY(::GetTextExtentPoint32(m_hAttribDC, str, (int)str.GetLength(), &size));

  000bb	8d 45 d4	 lea	 eax, DWORD PTR _size$10[ebp]
; File D:\git\src\IBK\IBK_DRFN\ProjSrc\SrcChartEx\ChartOCX\GraphDraw\GraphDataDrawer.cpp

; 996  : 	int nPosition_Y = GetPosition_Y(pDC->GetTextExtent("0"), drawingGraphData, prices.GetCur(), rcScaleText);

  000be	c6 45 fc 01	 mov	 BYTE PTR __$EHRec$[ebp+8], 1
; File C:\Program Files (x86)\Microsoft Visual Studio\2019\Community\VC\Tools\MSVC\14.29.30133\atlmfc\include\afxwin1.inl

; 639  : 		VERIFY(::GetTextExtentPoint32(m_hAttribDC, str, (int)str.GetLength(), &size));

  000c2	50		 push	 eax
  000c3	8b 45 1c	 mov	 eax, DWORD PTR $T15[ebp]
  000c6	ff 70 f4	 push	 DWORD PTR [eax-12]
  000c9	50		 push	 eax
  000ca	ff 77 08	 push	 DWORD PTR [edi+8]
  000cd	ff d6		 call	 esi
; File C:\Program Files (x86)\Microsoft Visual Studio\2019\Community\VC\Tools\MSVC\14.29.30133\atlmfc\include\atltypes.h

; 318  : 	*(SIZE*)this = initSize;

  000cf	8b 45 d4	 mov	 eax, DWORD PTR _size$10[ebp]
; File D:\git\src\IBK\IBK_DRFN\ProjSrc\SrcChartEx\ChartOCX\GraphDraw\GraphDataDrawer.cpp

; 941  : 	double dRealMin = drawingGraphData.GetDisplayDataVertMinMax().GetDisplayMin();

  000d2	8b 75 10	 mov	 esi, DWORD PTR _drawingGraphData$[ebp]
  000d5	8b ce		 mov	 ecx, esi
; File C:\Program Files (x86)\Microsoft Visual Studio\2019\Community\VC\Tools\MSVC\14.29.30133\atlmfc\include\atltypes.h

; 318  : 	*(SIZE*)this = initSize;

  000d7	8b 5d d8	 mov	 ebx, DWORD PTR _size$10[ebp+4]
  000da	89 45 dc	 mov	 DWORD PTR $T12[ebp], eax
; File D:\git\src\IBK\IBK_DRFN\ProjSrc\SrcChartEx\ChartOCX\GraphDraw\GraphDataDrawer.cpp

; 941  : 	double dRealMin = drawingGraphData.GetDisplayDataVertMinMax().GetDisplayMin();

  000dd	8d 45 ac	 lea	 eax, DWORD PTR $T6[ebp]
  000e0	50		 push	 eax
  000e1	e8 00 00 00 00	 call	 ?GetDisplayDataVertMinMax@CDrawingGraphData@@QBE?AVCDisplayDataMinMax@@XZ ; CDrawingGraphData::GetDisplayDataVertMinMax
  000e6	8b c8		 mov	 ecx, eax
  000e8	ff 15 00 00 00
	00		 call	 DWORD PTR __imp_?GetDisplayMin@CDisplayDataMinMax@@QBENXZ

; 942  : 	double dRealMax = drawingGraphData.GetDisplayDataVertMinMax().GetDisplayMax();

  000ee	8d 45 9c	 lea	 eax, DWORD PTR $T5[ebp]
  000f1	8b ce		 mov	 ecx, esi
  000f3	50		 push	 eax
  000f4	dd 5d e4	 fstp	 QWORD PTR _dRealMin$13[ebp]
  000f7	e8 00 00 00 00	 call	 ?GetDisplayDataVertMinMax@CDrawingGraphData@@QBE?AVCDisplayDataMinMax@@XZ ; CDrawingGraphData::GetDisplayDataVertMinMax
  000fc	8b c8		 mov	 ecx, eax
  000fe	ff 15 00 00 00
	00		 call	 DWORD PTR __imp_?GetDisplayMax@CDisplayDataMinMax@@QBENXZ

; 943  : 	double dRealCur = dCur;

  00104	f2 0f 10 45 c4	 movsd	 xmm0, QWORD PTR $T8[ebp]

; 944  : 
; 945  : 	// 
; 946  : 	if(drawingGraphData.DoesVertScaleInvertType()){

  00109	8b ce		 mov	 ecx, esi
  0010b	dd 5d ec	 fstp	 QWORD PTR _dRealMax$14[ebp]
  0010e	f2 0f 11 45 dc	 movsd	 QWORD PTR _dRealCur$11[ebp], xmm0
  00113	e8 00 00 00 00	 call	 ?DoesVertScaleInvertType@CDrawingGraphData@@QBE_NXZ ; CDrawingGraphData::DoesVertScaleInvertType
  00118	84 c0		 test	 al, al
  0011a	74 2c		 je	 SHORT $LN53@GetTextReg

; 947  : 		dRealMin = drawingGraphData.GetDisplayDataVertMinMax().GetDisplayMax();

  0011c	8d 45 bc	 lea	 eax, DWORD PTR $T7[ebp]
  0011f	8b ce		 mov	 ecx, esi
  00121	50		 push	 eax
  00122	e8 00 00 00 00	 call	 ?GetDisplayDataVertMinMax@CDrawingGraphData@@QBE?AVCDisplayDataMinMax@@XZ ; CDrawingGraphData::GetDisplayDataVertMinMax
  00127	8b c8		 mov	 ecx, eax
  00129	ff 15 00 00 00
	00		 call	 DWORD PTR __imp_?GetDisplayMax@CDisplayDataMinMax@@QBENXZ

; 948  : 		dRealMax = drawingGraphData.GetDisplayDataVertMinMax().GetDisplayMin();

  0012f	8d 45 8c	 lea	 eax, DWORD PTR $T4[ebp]
  00132	8b ce		 mov	 ecx, esi
  00134	50		 push	 eax
  00135	dd 5d e4	 fstp	 QWORD PTR _dRealMin$13[ebp]
  00138	e8 00 00 00 00	 call	 ?GetDisplayDataVertMinMax@CDrawingGraphData@@QBE?AVCDisplayDataMinMax@@XZ ; CDrawingGraphData::GetDisplayDataVertMinMax
  0013d	8b c8		 mov	 ecx, eax
  0013f	ff 15 00 00 00
	00		 call	 DWORD PTR __imp_?GetDisplayMin@CDisplayDataMinMax@@QBENXZ
  00145	dd 5d ec	 fstp	 QWORD PTR _dRealMax$14[ebp]
$LN53@GetTextReg:

; 949  : 	}
; 950  : 
; 951  : 	// log
; 952  : 	if(drawingGraphData.DoesVertScaleLogType()){

  00148	8b ce		 mov	 ecx, esi
  0014a	e8 00 00 00 00	 call	 ?DoesVertScaleLogType@CDrawingGraphData@@QBE_NXZ ; CDrawingGraphData::DoesVertScaleLogType
  0014f	84 c0		 test	 al, al
  00151	74 27		 je	 SHORT $LN54@GetTextReg

; 953  : 		dRealMin = CMath::Log(dRealMin);

  00153	8d 45 e4	 lea	 eax, DWORD PTR _dRealMin$13[ebp]
  00156	50		 push	 eax
  00157	e8 00 00 00 00	 call	 ?Log@CMath@@SANABN@Z	; CMath::Log

; 954  : 		dRealMax = CMath::Log(dRealMax);

  0015c	8d 45 ec	 lea	 eax, DWORD PTR _dRealMax$14[ebp]
  0015f	dd 5d e4	 fstp	 QWORD PTR _dRealMin$13[ebp]
  00162	50		 push	 eax
  00163	e8 00 00 00 00	 call	 ?Log@CMath@@SANABN@Z	; CMath::Log

; 955  : 		dRealCur = CMath::Log(dRealCur);

  00168	8d 45 dc	 lea	 eax, DWORD PTR _dRealCur$11[ebp]
  0016b	dd 5d ec	 fstp	 QWORD PTR _dRealMax$14[ebp]
  0016e	50		 push	 eax
  0016f	e8 00 00 00 00	 call	 ?Log@CMath@@SANABN@Z	; CMath::Log
  00174	dd 5d dc	 fstp	 QWORD PTR _dRealCur$11[ebp]
  00177	83 c4 0c	 add	 esp, 12			; 0000000cH
$LN54@GetTextReg:

; 956  : 	}
; 957  : 
; 958  : 	// Y Scale    - ojtaso (20070807)
; 959  : 	int nPosition_Y = CDataConversion::RelativeToAbsolute_Y(rcScaleText, dRealCur, dRealMin, dRealMax);

  0017a	8b 7d 28	 mov	 edi, DWORD PTR _rcScaleText$[ebp]
  0017d	8d 45 ec	 lea	 eax, DWORD PTR _dRealMax$14[ebp]
  00180	50		 push	 eax
  00181	8d 45 e4	 lea	 eax, DWORD PTR _dRealMin$13[ebp]
  00184	50		 push	 eax
  00185	8d 45 dc	 lea	 eax, DWORD PTR _dRealCur$11[ebp]
  00188	50		 push	 eax
  00189	57		 push	 edi
  0018a	e8 00 00 00 00	 call	 ?RelativeToAbsolute_Y@CDataConversion@@SAHABVCRect@@ABN11@Z ; CDataConversion::RelativeToAbsolute_Y
  0018f	8b f0		 mov	 esi, eax

; 996  : 	int nPosition_Y = GetPosition_Y(pDC->GetTextExtent("0"), drawingGraphData, prices.GetCur(), rcScaleText);

  00191	8d 4d 1c	 lea	 ecx, DWORD PTR $T15[ebp]

; 962  : 	nPosition_Y -= (rcScaleText.top + oneTextSize.cy/2);

  00194	8b c3		 mov	 eax, ebx
  00196	83 c4 10	 add	 esp, 16			; 00000010H
  00199	99		 cdq
  0019a	2b c2		 sub	 eax, edx
  0019c	d1 f8		 sar	 eax, 1

; 996  : 	int nPosition_Y = GetPosition_Y(pDC->GetTextExtent("0"), drawingGraphData, prices.GetCur(), rcScaleText);

  0019e	2b f0		 sub	 esi, eax

; 962  : 	nPosition_Y -= (rcScaleText.top + oneTextSize.cy/2);

  001a0	2b 77 04	 sub	 esi, DWORD PTR [edi+4]

; 996  : 	int nPosition_Y = GetPosition_Y(pDC->GetTextExtent("0"), drawingGraphData, prices.GetCur(), rcScaleText);

  001a3	ff 15 00 00 00
	00		 call	 DWORD PTR __imp_??1?$CStringT@DV?$StrTraitMFC_DLL@DV?$ChTraitsCRT@D@ATL@@@@@ATL@@QAE@XZ
; File C:\Program Files (x86)\Microsoft Visual Studio\2019\Community\VC\Tools\MSVC\14.29.30133\atlmfc\include\atltypes.h

; 408  : 	x = initX;

  001a9	8b 5f 08	 mov	 ebx, DWORD PTR [edi+8]

; 912  : 	left -= l;

  001ac	8b d3		 mov	 edx, ebx
; File D:\git\src\IBK\IBK_DRFN\ProjSrc\SrcChartEx\ChartOCX\GraphDraw\GraphDataDrawer.cpp

; 997  : 	CPoint rightTopPt(rcScaleText.right, (rcScaleText.top + nPosition_Y));

  001ae	8b 4f 04	 mov	 ecx, DWORD PTR [edi+4]
; File C:\Program Files (x86)\Microsoft Visual Studio\2019\Community\VC\Tools\MSVC\14.29.30133\atlmfc\include\atltypes.h

; 912  : 	left -= l;

  001b1	2b 55 cc	 sub	 edx, DWORD PTR _size$9[ebp]
; File D:\git\src\IBK\IBK_DRFN\ProjSrc\SrcChartEx\ChartOCX\GraphDraw\GraphDataDrawer.cpp

; 997  : 	CPoint rightTopPt(rcScaleText.right, (rcScaleText.top + nPosition_Y));

  001b4	03 ce		 add	 ecx, esi
; File C:\Program Files (x86)\Microsoft Visual Studio\2019\Community\VC\Tools\MSVC\14.29.30133\atlmfc\include\atltypes.h

; 569  : 	top = topLeft.y;

  001b6	8b 75 08	 mov	 esi, DWORD PTR ___$ReturnUdt$[ebp]

; 915  : 	bottom += b;

  001b9	8b 45 d0	 mov	 eax, DWORD PTR _size$9[ebp+4]
  001bc	03 c1		 add	 eax, ecx
  001be	89 16		 mov	 DWORD PTR [esi], edx
  001c0	89 4e 04	 mov	 DWORD PTR [esi+4], ecx
  001c3	89 5e 08	 mov	 DWORD PTR [esi+8], ebx
  001c6	89 46 0c	 mov	 DWORD PTR [esi+12], eax

; 884  : 	if (left > right)

  001c9	3b d3		 cmp	 edx, ebx
  001cb	7e 05		 jle	 SHORT $LN63@GetTextReg

; 885  : 	{
; 886  : 		nTemp = left;
; 887  : 		left = right;

  001cd	89 1e		 mov	 DWORD PTR [esi], ebx

; 888  : 		right = nTemp;

  001cf	89 56 08	 mov	 DWORD PTR [esi+8], edx
$LN63@GetTextReg:

; 889  : 	}
; 890  : 	if (top > bottom)

  001d2	3b c8		 cmp	 ecx, eax
  001d4	7e 06		 jle	 SHORT $LN64@GetTextReg

; 891  : 	{
; 892  : 		nTemp = top;
; 893  : 		top = bottom;

  001d6	89 46 04	 mov	 DWORD PTR [esi+4], eax

; 894  : 		bottom = nTemp;

  001d9	89 4e 0c	 mov	 DWORD PTR [esi+12], ecx
$LN64@GetTextReg:
; File D:\git\src\IBK\IBK_DRFN\ProjSrc\SrcChartEx\ChartOCX\GraphDraw\GraphDataDrawer.cpp

; 1002 : 	return region;

  001dc	8d 4d 18	 lea	 ecx, DWORD PTR _strMax$[ebp]
  001df	ff 15 00 00 00
	00		 call	 DWORD PTR __imp_??1?$CStringT@DV?$StrTraitMFC_DLL@DV?$ChTraitsCRT@D@ATL@@@@@ATL@@QAE@XZ
  001e5	8b c6		 mov	 eax, esi

; 1003 : }

  001e7	8b 4d f4	 mov	 ecx, DWORD PTR __$EHRec$[ebp]
  001ea	64 89 0d 00 00
	00 00		 mov	 DWORD PTR fs:0, ecx
  001f1	59		 pop	 ecx
  001f2	5f		 pop	 edi
  001f3	5e		 pop	 esi
  001f4	5b		 pop	 ebx
  001f5	8b e5		 mov	 esp, ebp
  001f7	5d		 pop	 ebp
  001f8	c2 24 00	 ret	 36			; 00000024H
_TEXT	ENDS
;	COMDAT text$x
text$x	SEGMENT
__unwindfunclet$?GetTextRegion@CDataInRightScaleRegionDrawer@@ABE?AVCRect@@PAVCDC@@ABVCDrawingGraphData@@ABVCPrices@@ABV?$CStringT@DV?$StrTraitMFC_DLL@DV?$ChTraitsCRT@D@ATL@@@@@ATL@@333ABV2@@Z$0:
  00000	8d 4d 18	 lea	 ecx, DWORD PTR _strMax$[ebp]
  00003	ff 25 00 00 00
	00		 jmp	 DWORD PTR __imp_??1?$CStringT@DV?$StrTraitMFC_DLL@DV?$ChTraitsCRT@D@ATL@@@@@ATL@@QAE@XZ
__unwindfunclet$?GetTextRegion@CDataInRightScaleRegionDrawer@@ABE?AVCRect@@PAVCDC@@ABVCDrawingGraphData@@ABVCPrices@@ABV?$CStringT@DV?$StrTraitMFC_DLL@DV?$ChTraitsCRT@D@ATL@@@@@ATL@@333ABV2@@Z$1:
  00009	8d 4d 1c	 lea	 ecx, DWORD PTR $T15[ebp]
  0000c	ff 25 00 00 00
	00		 jmp	 DWORD PTR __imp_??1?$CStringT@DV?$StrTraitMFC_DLL@DV?$ChTraitsCRT@D@ATL@@@@@ATL@@QAE@XZ
  00012	cc		 int	 3
  00013	cc		 int	 3
  00014	cc		 int	 3
  00015	cc		 int	 3
  00016	cc		 int	 3
__ehhandler$?GetTextRegion@CDataInRightScaleRegionDrawer@@ABE?AVCRect@@PAVCDC@@ABVCDrawingGraphData@@ABVCPrices@@ABV?$CStringT@DV?$StrTraitMFC_DLL@DV?$ChTraitsCRT@D@ATL@@@@@ATL@@333ABV2@@Z:
  00017	90		 npad	 1
  00018	90		 npad	 1
  00019	8b 54 24 08	 mov	 edx, DWORD PTR [esp+8]
  0001d	8d 42 0c	 lea	 eax, DWORD PTR [edx+12]
  00020	8b 4a 88	 mov	 ecx, DWORD PTR [edx-120]
  00023	33 c8		 xor	 ecx, eax
  00025	e8 00 00 00 00	 call	 @__security_check_cookie@4
  0002a	b8 00 00 00 00	 mov	 eax, OFFSET __ehfuncinfo$?GetTextRegion@CDataInRightScaleRegionDrawer@@ABE?AVCRect@@PAVCDC@@ABVCDrawingGraphData@@ABVCPrices@@ABV?$CStringT@DV?$StrTraitMFC_DLL@DV?$ChTraitsCRT@D@ATL@@@@@ATL@@333ABV2@@Z
  0002f	e9 00 00 00 00	 jmp	 ___CxxFrameHandler3
text$x	ENDS
?GetTextRegion@CDataInRightScaleRegionDrawer@@ABE?AVCRect@@PAVCDC@@ABVCDrawingGraphData@@ABVCPrices@@ABV?$CStringT@DV?$StrTraitMFC_DLL@DV?$ChTraitsCRT@D@ATL@@@@@ATL@@333ABV2@@Z ENDP ; CDataInRightScaleRegionDrawer::GetTextRegion
; Function compile flags: /Ogtp
; File D:\git\src\IBK\IBK_DRFN\ProjSrc\SrcChartEx\ChartOCX\GraphDraw\GraphDataDrawer.cpp
; File D:\git\src\IBK\IBK_DRFN\ProjSrc\SrcChartEx\ChartOCX\Include_Chart\BaseData.h
; File D:\git\src\IBK\IBK_DRFN\ProjSrc\SrcChartEx\ChartOCX\GraphDraw\GraphDataDrawer.cpp
;	COMDAT ?GetGripRegion@CDataInRightScaleRegionDrawer@@ABE?AVCRect@@ABVCDrawingGraphData@@ABV2@@Z
_TEXT	SEGMENT
___$ReturnUdt$ = 8					; size = 4
_drawingGraphData$ = 12					; size = 4
_rcScaleText$ = 16					; size = 4
?GetGripRegion@CDataInRightScaleRegionDrawer@@ABE?AVCRect@@ABVCDrawingGraphData@@ABV2@@Z PROC ; CDataInRightScaleRegionDrawer::GetGripRegion, COMDAT
; _this$ = ecx

; 970  : {

  00000	55		 push	 ebp
  00001	8b ec		 mov	 ebp, esp

; 971  : 	// Y Scale    - ojtaso (20070807)
; 972  : 	CRect gripRegion = rcScaleText;

  00003	8b 45 10	 mov	 eax, DWORD PTR _rcScaleText$[ebp]

; 973  : 	CRect noFrameRegion = drawingGraphData.GetGraphRegions().GetNoFrameRegion();

  00006	8b 4d 0c	 mov	 ecx, DWORD PTR _drawingGraphData$[ebp]
  00009	56		 push	 esi
  0000a	8b 75 08	 mov	 esi, DWORD PTR ___$ReturnUdt$[ebp]
  0000d	0f 10 00	 movups	 xmm0, XMMWORD PTR [eax]
  00010	0f 11 06	 movups	 XMMWORD PTR [esi], xmm0
  00013	e8 00 00 00 00	 call	 ?GetGraphRegions@CDrawingGraphData@@QBEABVCGraphRegions@@XZ ; CDrawingGraphData::GetGraphRegions

; 974  : 	gripRegion.top = noFrameRegion.top;
; 975  : 	gripRegion.bottom = noFrameRegion.bottom;
; 976  : 	gripRegion.right += 1;

  00018	ff 46 08	 inc	 DWORD PTR [esi+8]
; File D:\git\src\IBK\IBK_DRFN\ProjSrc\SrcChartEx\ChartOCX\Include_Chart\BaseData.h

; 93   : 	CRect	GetNoFrameRegion() const			{	return m_rctNoFrameRegion;	}

  0001b	0f 10 48 14	 movups	 xmm1, XMMWORD PTR [eax+20]
; File D:\git\src\IBK\IBK_DRFN\ProjSrc\SrcChartEx\ChartOCX\GraphDraw\GraphDataDrawer.cpp

; 978  : 	return gripRegion;

  0001f	8b c6		 mov	 eax, esi
  00021	0f 28 c1	 movaps	 xmm0, xmm1
  00024	66 0f 73 d9 0c	 psrldq	 xmm1, 12		; 0000000cH
  00029	66 0f 73 d8 04	 psrldq	 xmm0, 4
  0002e	66 0f 7e 46 04	 movd	 DWORD PTR [esi+4], xmm0
  00033	66 0f 7e 4e 0c	 movd	 DWORD PTR [esi+12], xmm1
  00038	5e		 pop	 esi

; 979  : }

  00039	5d		 pop	 ebp
  0003a	c2 0c 00	 ret	 12			; 0000000cH
?GetGripRegion@CDataInRightScaleRegionDrawer@@ABE?AVCRect@@ABVCDrawingGraphData@@ABV2@@Z ENDP ; CDataInRightScaleRegionDrawer::GetGripRegion
_TEXT	ENDS
; Function compile flags: /Ogtp
; File D:\git\src\IBK\IBK_DRFN\ProjSrc\SrcChartEx\ChartOCX\GraphDraw\GraphDataDrawer.cpp
;	COMDAT ?GetPosition_Y@CDataInRightScaleRegionDrawer@@ABEHABVCSize@@ABVCDrawingGraphData@@ABNABVCRect@@@Z
_TEXT	SEGMENT
$T1 = -40						; size = 16
$T2 = -40						; size = 16
$T3 = -40						; size = 16
$T4 = -40						; size = 16
_dRealCur$ = -24					; size = 8
_dRealMin$ = -16					; size = 8
_dRealMax$ = -8						; size = 8
_oneTextSize$ = 8					; size = 4
_drawingGraphData$ = 12					; size = 4
_dCur$ = 16						; size = 4
_rcScaleText$ = 20					; size = 4
?GetPosition_Y@CDataInRightScaleRegionDrawer@@ABEHABVCSize@@ABVCDrawingGraphData@@ABNABVCRect@@@Z PROC ; CDataInRightScaleRegionDrawer::GetPosition_Y, COMDAT
; _this$ = ecx

; 940  : {

  00000	55		 push	 ebp
  00001	8b ec		 mov	 ebp, esp
  00003	83 ec 28	 sub	 esp, 40			; 00000028H
  00006	56		 push	 esi

; 941  : 	double dRealMin = drawingGraphData.GetDisplayDataVertMinMax().GetDisplayMin();

  00007	8b 75 0c	 mov	 esi, DWORD PTR _drawingGraphData$[ebp]
  0000a	8d 45 d8	 lea	 eax, DWORD PTR $T4[ebp]
  0000d	50		 push	 eax
  0000e	8b ce		 mov	 ecx, esi
  00010	e8 00 00 00 00	 call	 ?GetDisplayDataVertMinMax@CDrawingGraphData@@QBE?AVCDisplayDataMinMax@@XZ ; CDrawingGraphData::GetDisplayDataVertMinMax
  00015	8b c8		 mov	 ecx, eax
  00017	ff 15 00 00 00
	00		 call	 DWORD PTR __imp_?GetDisplayMin@CDisplayDataMinMax@@QBENXZ

; 942  : 	double dRealMax = drawingGraphData.GetDisplayDataVertMinMax().GetDisplayMax();

  0001d	8d 45 d8	 lea	 eax, DWORD PTR $T3[ebp]
  00020	8b ce		 mov	 ecx, esi
  00022	50		 push	 eax
  00023	dd 5d f0	 fstp	 QWORD PTR _dRealMin$[ebp]
  00026	e8 00 00 00 00	 call	 ?GetDisplayDataVertMinMax@CDrawingGraphData@@QBE?AVCDisplayDataMinMax@@XZ ; CDrawingGraphData::GetDisplayDataVertMinMax
  0002b	8b c8		 mov	 ecx, eax
  0002d	ff 15 00 00 00
	00		 call	 DWORD PTR __imp_?GetDisplayMax@CDisplayDataMinMax@@QBENXZ

; 943  : 	double dRealCur = dCur;

  00033	8b 45 10	 mov	 eax, DWORD PTR _dCur$[ebp]

; 944  : 
; 945  : 	// 
; 946  : 	if(drawingGraphData.DoesVertScaleInvertType()){

  00036	8b ce		 mov	 ecx, esi
  00038	dd 5d f8	 fstp	 QWORD PTR _dRealMax$[ebp]
  0003b	f2 0f 10 00	 movsd	 xmm0, QWORD PTR [eax]
  0003f	f2 0f 11 45 e8	 movsd	 QWORD PTR _dRealCur$[ebp], xmm0
  00044	e8 00 00 00 00	 call	 ?DoesVertScaleInvertType@CDrawingGraphData@@QBE_NXZ ; CDrawingGraphData::DoesVertScaleInvertType
  00049	84 c0		 test	 al, al
  0004b	74 2c		 je	 SHORT $LN2@GetPositio

; 947  : 		dRealMin = drawingGraphData.GetDisplayDataVertMinMax().GetDisplayMax();

  0004d	8d 45 d8	 lea	 eax, DWORD PTR $T2[ebp]
  00050	8b ce		 mov	 ecx, esi
  00052	50		 push	 eax
  00053	e8 00 00 00 00	 call	 ?GetDisplayDataVertMinMax@CDrawingGraphData@@QBE?AVCDisplayDataMinMax@@XZ ; CDrawingGraphData::GetDisplayDataVertMinMax
  00058	8b c8		 mov	 ecx, eax
  0005a	ff 15 00 00 00
	00		 call	 DWORD PTR __imp_?GetDisplayMax@CDisplayDataMinMax@@QBENXZ

; 948  : 		dRealMax = drawingGraphData.GetDisplayDataVertMinMax().GetDisplayMin();

  00060	8d 45 d8	 lea	 eax, DWORD PTR $T1[ebp]
  00063	8b ce		 mov	 ecx, esi
  00065	50		 push	 eax
  00066	dd 5d f0	 fstp	 QWORD PTR _dRealMin$[ebp]
  00069	e8 00 00 00 00	 call	 ?GetDisplayDataVertMinMax@CDrawingGraphData@@QBE?AVCDisplayDataMinMax@@XZ ; CDrawingGraphData::GetDisplayDataVertMinMax
  0006e	8b c8		 mov	 ecx, eax
  00070	ff 15 00 00 00
	00		 call	 DWORD PTR __imp_?GetDisplayMin@CDisplayDataMinMax@@QBENXZ
  00076	dd 5d f8	 fstp	 QWORD PTR _dRealMax$[ebp]
$LN2@GetPositio:

; 949  : 	}
; 950  : 
; 951  : 	// log
; 952  : 	if(drawingGraphData.DoesVertScaleLogType()){

  00079	8b ce		 mov	 ecx, esi
  0007b	e8 00 00 00 00	 call	 ?DoesVertScaleLogType@CDrawingGraphData@@QBE_NXZ ; CDrawingGraphData::DoesVertScaleLogType
  00080	84 c0		 test	 al, al
  00082	74 27		 je	 SHORT $LN3@GetPositio

; 953  : 		dRealMin = CMath::Log(dRealMin);

  00084	8d 45 f0	 lea	 eax, DWORD PTR _dRealMin$[ebp]
  00087	50		 push	 eax
  00088	e8 00 00 00 00	 call	 ?Log@CMath@@SANABN@Z	; CMath::Log

; 954  : 		dRealMax = CMath::Log(dRealMax);

  0008d	8d 45 f8	 lea	 eax, DWORD PTR _dRealMax$[ebp]
  00090	dd 5d f0	 fstp	 QWORD PTR _dRealMin$[ebp]
  00093	50		 push	 eax
  00094	e8 00 00 00 00	 call	 ?Log@CMath@@SANABN@Z	; CMath::Log

; 955  : 		dRealCur = CMath::Log(dRealCur);

  00099	8d 45 e8	 lea	 eax, DWORD PTR _dRealCur$[ebp]
  0009c	dd 5d f8	 fstp	 QWORD PTR _dRealMax$[ebp]
  0009f	50		 push	 eax
  000a0	e8 00 00 00 00	 call	 ?Log@CMath@@SANABN@Z	; CMath::Log
  000a5	dd 5d e8	 fstp	 QWORD PTR _dRealCur$[ebp]
  000a8	83 c4 0c	 add	 esp, 12			; 0000000cH
$LN3@GetPositio:

; 956  : 	}
; 957  : 
; 958  : 	// Y Scale    - ojtaso (20070807)
; 959  : 	int nPosition_Y = CDataConversion::RelativeToAbsolute_Y(rcScaleText, dRealCur, dRealMin, dRealMax);

  000ab	8b 75 14	 mov	 esi, DWORD PTR _rcScaleText$[ebp]
  000ae	8d 45 f8	 lea	 eax, DWORD PTR _dRealMax$[ebp]
  000b1	50		 push	 eax
  000b2	8d 45 f0	 lea	 eax, DWORD PTR _dRealMin$[ebp]
  000b5	50		 push	 eax
  000b6	8d 45 e8	 lea	 eax, DWORD PTR _dRealCur$[ebp]
  000b9	50		 push	 eax
  000ba	56		 push	 esi
  000bb	e8 00 00 00 00	 call	 ?RelativeToAbsolute_Y@CDataConversion@@SAHABVCRect@@ABN11@Z ; CDataConversion::RelativeToAbsolute_Y
  000c0	8b c8		 mov	 ecx, eax
  000c2	83 c4 10	 add	 esp, 16			; 00000010H

; 960  : 
; 961  : 	// Y Scale    - ojtaso (20070807)
; 962  : 	nPosition_Y -= (rcScaleText.top + oneTextSize.cy/2);

  000c5	8b 45 08	 mov	 eax, DWORD PTR _oneTextSize$[ebp]
  000c8	8b 40 04	 mov	 eax, DWORD PTR [eax+4]
  000cb	99		 cdq
  000cc	2b c2		 sub	 eax, edx
  000ce	d1 f8		 sar	 eax, 1
  000d0	2b c8		 sub	 ecx, eax
  000d2	2b 4e 04	 sub	 ecx, DWORD PTR [esi+4]

; 963  : 
; 964  : 	return nPosition_Y;

  000d5	8b c1		 mov	 eax, ecx
  000d7	5e		 pop	 esi

; 965  : }

  000d8	8b e5		 mov	 esp, ebp
  000da	5d		 pop	 ebp
  000db	c2 10 00	 ret	 16			; 00000010H
?GetPosition_Y@CDataInRightScaleRegionDrawer@@ABEHABVCSize@@ABVCDrawingGraphData@@ABNABVCRect@@@Z ENDP ; CDataInRightScaleRegionDrawer::GetPosition_Y
_TEXT	ENDS
; Function compile flags: /Ogtp
; File D:\git\src\IBK\IBK_DRFN\ProjSrc\SrcChartEx\ChartOCX\GraphDraw\GraphDataDrawer.cpp
; File C:\Program Files (x86)\Microsoft Visual Studio\2019\Community\VC\Tools\MSVC\14.29.30133\atlmfc\include\atlsimpstr.h
; File D:\git\src\IBK\IBK_DRFN\ProjSrc\SrcChartEx\ChartOCX\GraphDraw\GraphDataDrawer.cpp
; File C:\Program Files (x86)\Microsoft Visual Studio\2019\Community\VC\Tools\MSVC\14.29.30133\atlmfc\include\atlsimpstr.h
; File D:\git\src\IBK\IBK_DRFN\ProjSrc\SrcChartEx\ChartOCX\GraphDraw\GraphDataDrawer.cpp
;	COMDAT ?GetPricesInView@CDataInRightScaleRegionDrawer@@ABE_NPAVCPacket@@HABVCPrices@@AAV3@@Z
_TEXT	SEGMENT
_pPacket$ = 8						; size = 4
_nDataEnd$ = 12						; size = 4
_pricesInView$ = 16					; size = 4
_prices$ = 20						; size = 4
?GetPricesInView@CDataInRightScaleRegionDrawer@@ABE_NPAVCPacket@@HABVCPrices@@AAV3@@Z PROC ; CDataInRightScaleRegionDrawer::GetPricesInView, COMDAT
; _this$ = ecx

; 914  : {

  00000	55		 push	 ebp
  00001	8b ec		 mov	 ebp, esp

; 34   : 	if(this == &prices)

  00003	8b 55 10	 mov	 edx, DWORD PTR _pricesInView$[ebp]

; 914  : {

  00006	56		 push	 esi

; 34   : 	if(this == &prices)

  00007	8b 75 14	 mov	 esi, DWORD PTR _prices$[ebp]
  0000a	3b f2		 cmp	 esi, edx
  0000c	74 22		 je	 SHORT $LN5@GetPricesI

; 35   : 		return *this;
; 36   : 
; 37   : 	m_dPrevPrice = prices.GetPrev();

  0000e	f2 0f 10 02	 movsd	 xmm0, QWORD PTR [edx]
  00012	f2 0f 11 06	 movsd	 QWORD PTR [esi], xmm0

; 38   : 	m_dCurPrice = prices.GetCur();

  00016	f2 0f 10 42 08	 movsd	 xmm0, QWORD PTR [edx+8]
  0001b	f2 0f 11 46 08	 movsd	 QWORD PTR [esi+8], xmm0

; 39   : 	m_nDecimalDownCount = prices.GetDecimalDownCount();

  00020	8b 42 10	 mov	 eax, DWORD PTR [edx+16]
  00023	89 46 10	 mov	 DWORD PTR [esi+16], eax

; 40   : // vntsorl_20110609:[A00000259]     
; 41   : 	m_dPipSize = prices.GetPipSize();

  00026	f2 0f 10 42 18	 movsd	 xmm0, QWORD PTR [edx+24]
  0002b	f2 0f 11 46 18	 movsd	 QWORD PTR [esi+24], xmm0
$LN5@GetPricesI:

; 133  : 	return (m_dCurPrice == 0 && m_dPrevPrice == 0 && m_dPipSize == 0 && m_nDecimalDownCount == 0 && 

  00030	f2 0f 10 42 08	 movsd	 xmm0, QWORD PTR [edx+8]
  00035	0f 57 c9	 xorps	 xmm1, xmm1
  00038	66 0f 2e c1	 ucomisd xmm0, xmm1
  0003c	9f		 lahf
  0003d	f6 c4 44	 test	 ah, 68			; 00000044H
  00040	7a 52		 jp	 SHORT $LN12@GetPricesI
  00042	f2 0f 10 02	 movsd	 xmm0, QWORD PTR [edx]
  00046	66 0f 2e c1	 ucomisd xmm0, xmm1
  0004a	9f		 lahf
  0004b	f6 c4 44	 test	 ah, 68			; 00000044H
  0004e	7a 44		 jp	 SHORT $LN12@GetPricesI
  00050	f2 0f 10 42 18	 movsd	 xmm0, QWORD PTR [edx+24]
  00055	66 0f 2e c1	 ucomisd xmm0, xmm1
  00059	9f		 lahf
  0005a	f6 c4 44	 test	 ah, 68			; 00000044H
  0005d	7a 35		 jp	 SHORT $LN12@GetPricesI
  0005f	83 7a 10 00	 cmp	 DWORD PTR [edx+16], 0
  00063	75 2f		 jne	 SHORT $LN12@GetPricesI
; File C:\Program Files (x86)\Microsoft Visual Studio\2019\Community\VC\Tools\MSVC\14.29.30133\atlmfc\include\atlsimpstr.h

; 533  : 		return( GetLength() == 0 );

  00065	8b 42 20	 mov	 eax, DWORD PTR [edx+32]
  00068	83 78 f4 00	 cmp	 DWORD PTR [eax-12], 0
; File D:\git\src\IBK\IBK_DRFN\ProjSrc\SrcChartEx\ChartOCX\GraphDraw\GraphDataDrawer.cpp

; 133  : 	return (m_dCurPrice == 0 && m_dPrevPrice == 0 && m_dPipSize == 0 && m_nDecimalDownCount == 0 && 

  0006c	75 26		 jne	 SHORT $LN12@GetPricesI
; File C:\Program Files (x86)\Microsoft Visual Studio\2019\Community\VC\Tools\MSVC\14.29.30133\atlmfc\include\atlsimpstr.h

; 533  : 		return( GetLength() == 0 );

  0006e	8b 42 24	 mov	 eax, DWORD PTR [edx+36]
  00071	83 78 f4 00	 cmp	 DWORD PTR [eax-12], 0
; File D:\git\src\IBK\IBK_DRFN\ProjSrc\SrcChartEx\ChartOCX\GraphDraw\GraphDataDrawer.cpp

; 133  : 	return (m_dCurPrice == 0 && m_dPrevPrice == 0 && m_dPipSize == 0 && m_nDecimalDownCount == 0 && 

  00075	75 1d		 jne	 SHORT $LN12@GetPricesI

; 918  : 
; 919  : 	if(pPacket == NULL)

  00077	8b 45 08	 mov	 eax, DWORD PTR _pPacket$[ebp]
  0007a	85 c0		 test	 eax, eax
  0007c	75 07		 jne	 SHORT $LN3@GetPricesI

; 920  : 		return false;

  0007e	32 c0		 xor	 al, al
  00080	5e		 pop	 esi

; 923  : }

  00081	5d		 pop	 ebp
  00082	c2 10 00	 ret	 16			; 00000010H
$LN3@GetPricesI:

; 921  : 
; 922  : 	return CRateDrawer::GetPrices(pPacket, nDataEnd, prices);

  00085	56		 push	 esi
  00086	ff 75 0c	 push	 DWORD PTR _nDataEnd$[ebp]
  00089	50		 push	 eax
  0008a	e8 00 00 00 00	 call	 ?GetPrices@CRateDrawer@@IBE_NPAVCPacket@@HAAVCPrices@@@Z ; CRateDrawer::GetPrices
  0008f	5e		 pop	 esi

; 923  : }

  00090	5d		 pop	 ebp
  00091	c2 10 00	 ret	 16			; 00000010H
$LN12@GetPricesI:

; 915  : 	prices = pricesInView;
; 916  : 	if(!pricesInView.IsEmpty())
; 917  : 		return true;

  00094	b0 01		 mov	 al, 1
  00096	5e		 pop	 esi

; 923  : }

  00097	5d		 pop	 ebp
  00098	c2 10 00	 ret	 16			; 00000010H
?GetPricesInView@CDataInRightScaleRegionDrawer@@ABE_NPAVCPacket@@HABVCPrices@@AAV3@@Z ENDP ; CDataInRightScaleRegionDrawer::GetPricesInView
_TEXT	ENDS
; Function compile flags: /Ogtp
; File D:\git\src\IBK\IBK_DRFN\ProjSrc\SrcChartEx\ChartOCX\GraphDraw\GraphDataDrawer.cpp
; File C:\Program Files (x86)\Microsoft Visual Studio\2019\Community\VC\Tools\MSVC\14.29.30133\atlmfc\include\afxtempl.h
; File D:\git\src\IBK\IBK_DRFN\ProjSrc\SrcChartEx\ChartOCX\GraphDraw\GraphDataDrawer.cpp
;	COMDAT ?GetPricesInFull@CDataInRightScaleRegionDrawer@@ABE_NPAVCPacket@@AAVCPrices@@@Z
_TEXT	SEGMENT
tv168 = -20						; size = 8
_this$1$ = -16						; size = 4
__$EHRec$ = -12						; size = 12
$T2 = 8							; size = 4
_pPacket$ = 8						; size = 4
___$ReturnUdt$ = 12					; size = 4
_prices$ = 12						; size = 4
?GetPricesInFull@CDataInRightScaleRegionDrawer@@ABE_NPAVCPacket@@AAVCPrices@@@Z PROC ; CDataInRightScaleRegionDrawer::GetPricesInFull, COMDAT
; _this$ = ecx

; 877  : {

  00000	55		 push	 ebp
  00001	8b ec		 mov	 ebp, esp
  00003	6a ff		 push	 -1
  00005	68 00 00 00 00	 push	 __ehhandler$?GetPricesInFull@CDataInRightScaleRegionDrawer@@ABE_NPAVCPacket@@AAVCPrices@@@Z
  0000a	64 a1 00 00 00
	00		 mov	 eax, DWORD PTR fs:0
  00010	50		 push	 eax
  00011	83 ec 08	 sub	 esp, 8
  00014	53		 push	 ebx
  00015	56		 push	 esi
  00016	57		 push	 edi
  00017	a1 00 00 00 00	 mov	 eax, DWORD PTR ___security_cookie
  0001c	33 c5		 xor	 eax, ebp
  0001e	50		 push	 eax
  0001f	8d 45 f4	 lea	 eax, DWORD PTR __$EHRec$[ebp]
  00022	64 a3 00 00 00
	00		 mov	 DWORD PTR fs:0, eax
  00028	89 4d f0	 mov	 DWORD PTR _this$1$[ebp], ecx

; 878  : 	if(pPacket == NULL)

  0002b	8b 75 08	 mov	 esi, DWORD PTR _pPacket$[ebp]
  0002e	85 f6		 test	 esi, esi
  00030	0f 84 e7 00 00
	00		 je	 $LN4@GetPricesI

; 879  : 		return false;
; 880  : 
; 881  : 	CList<double, double>* pDataList = pPacket->GetnumericDataList();

  00036	8b ce		 mov	 ecx, esi
  00038	ff 15 00 00 00
	00		 call	 DWORD PTR __imp_?GetnumericDataList@CPacket@@QAEPAV?$CList@NN@@XZ

; 882  : 	if(pDataList == NULL || pDataList->GetCount() <= 0)

  0003e	85 c0		 test	 eax, eax
  00040	0f 84 d7 00 00
	00		 je	 $LN4@GetPricesI
  00046	83 78 0c 00	 cmp	 DWORD PTR [eax+12], 0
  0004a	0f 8e cd 00 00
	00		 jle	 $LN4@GetPricesI

; 884  : 
; 885  : 	POSITION pos = pDataList->GetTailPosition();

  00050	8b 40 08	 mov	 eax, DWORD PTR [eax+8]

; 886  : 	if(pos == NULL)

  00053	85 c0		 test	 eax, eax
  00055	0f 84 c2 00 00
	00		 je	 $LN4@GetPricesI

; 70   : 	m_dCurPrice = dPrice;

  0005b	8b 7d 0c	 mov	 edi, DWORD PTR _prices$[ebp]

; 891  : 	if(pPacket->IsUseStandardValue())

  0005e	8b ce		 mov	 ecx, esi

; 70   : 	m_dCurPrice = dPrice;

  00060	f2 0f 10 40 08	 movsd	 xmm0, QWORD PTR [eax+8]
; File C:\Program Files (x86)\Microsoft Visual Studio\2019\Community\VC\Tools\MSVC\14.29.30133\atlmfc\include\afxtempl.h

; 825  : 		rPosition = (POSITION) pNode->pPrev;

  00065	8b 58 04	 mov	 ebx, DWORD PTR [eax+4]
; File D:\git\src\IBK\IBK_DRFN\ProjSrc\SrcChartEx\ChartOCX\GraphDraw\GraphDataDrawer.cpp

; 891  : 	if(pPacket->IsUseStandardValue())

  00068	6a 00		 push	 0

; 70   : 	m_dCurPrice = dPrice;

  0006a	f2 0f 11 47 08	 movsd	 QWORD PTR [edi+8], xmm0

; 891  : 	if(pPacket->IsUseStandardValue())

  0006f	ff 15 00 00 00
	00		 call	 DWORD PTR __imp_?IsUseStandardValue@CPacket@@QBE_NH@Z
  00075	84 c0		 test	 al, al
  00077	74 0e		 je	 SHORT $LN6@GetPricesI

; 892  : 	{
; 893  : 		prices.SetPrev(pPacket->GetStandardValue());

  00079	6a 00		 push	 0
  0007b	8b ce		 mov	 ecx, esi
  0007d	ff 15 00 00 00
	00		 call	 DWORD PTR __imp_?GetStandardValue@CPacket@@QAENH@Z

; 65   : 	m_dPrevPrice = dPrice;

  00083	dd 1f		 fstp	 QWORD PTR [edi]

; 894  : 	}

  00085	eb 0d		 jmp	 SHORT $LN8@GetPricesI
$LN6@GetPricesI:

; 895  : 	else
; 896  : 	{
; 897  : 		if(pos != NULL)

  00087	85 db		 test	 ebx, ebx
  00089	74 09		 je	 SHORT $LN8@GetPricesI

; 65   : 	m_dPrevPrice = dPrice;

  0008b	f2 0f 10 43 08	 movsd	 xmm0, QWORD PTR [ebx+8]
  00090	f2 0f 11 07	 movsd	 QWORD PTR [edi], xmm0
$LN8@GetPricesI:

; 898  : 			prices.SetPrev(pDataList->GetPrev(pos));
; 899  : 	}
; 900  : 	
; 901  : 	CRateDrawer::GetDecimalDownCountAndDataType(pPacket, prices);

  00094	8b 4d f0	 mov	 ecx, DWORD PTR _this$1$[ebp]
  00097	57		 push	 edi
  00098	56		 push	 esi
  00099	e8 00 00 00 00	 call	 ?GetDecimalDownCountAndDataType@CRateDrawer@@IBE_NPAVCPacket@@AAVCPrices@@@Z ; CRateDrawer::GetDecimalDownCountAndDataType

; 902  : // vntsorl_20110609:[A00000259]     
; 903  : 	prices.SetPacketType(pPacket->GetType());

  0009e	6a 01		 push	 1
  000a0	8d 45 08	 lea	 eax, DWORD PTR $T2[ebp]
  000a3	8b ce		 mov	 ecx, esi
  000a5	50		 push	 eax
  000a6	ff 15 00 00 00
	00		 call	 DWORD PTR __imp_?GetType@CPacket@@QAE?AV?$CStringT@DV?$StrTraitMFC_DLL@DV?$ChTraitsCRT@D@ATL@@@@@ATL@@_N@Z

; 91   : 	m_strPacketType = strPacketType;

  000ac	8d 77 24	 lea	 esi, DWORD PTR [edi+36]

; 902  : // vntsorl_20110609:[A00000259]     
; 903  : 	prices.SetPacketType(pPacket->GetType());

  000af	c7 45 fc 00 00
	00 00		 mov	 DWORD PTR __$EHRec$[ebp+8], 0

; 91   : 	m_strPacketType = strPacketType;

  000b6	50		 push	 eax
  000b7	8b ce		 mov	 ecx, esi
  000b9	ff 15 00 00 00
	00		 call	 DWORD PTR __imp_??4?$CStringT@DV?$StrTraitMFC_DLL@DV?$ChTraitsCRT@D@ATL@@@@@ATL@@QAEAAV01@ABV01@@Z

; 902  : // vntsorl_20110609:[A00000259]     
; 903  : 	prices.SetPacketType(pPacket->GetType());

  000bf	8d 4d 08	 lea	 ecx, DWORD PTR $T2[ebp]
  000c2	c7 45 fc ff ff
	ff ff		 mov	 DWORD PTR __$EHRec$[ebp+8], -1
  000c9	ff 15 00 00 00
	00		 call	 DWORD PTR __imp_??1?$CStringT@DV?$StrTraitMFC_DLL@DV?$ChTraitsCRT@D@ATL@@@@@ATL@@QAE@XZ

; 904  : 
; 905  : 	prices.SetPipSize(CDataConversion::GetDataType(prices.GetPacketType()));

  000cf	51		 push	 ecx
  000d0	8b cc		 mov	 ecx, esp

; 127  : 	return m_strPacketType;

  000d2	56		 push	 esi

; 904  : 
; 905  : 	prices.SetPipSize(CDataConversion::GetDataType(prices.GetPacketType()));

  000d3	89 4d 0c	 mov	 DWORD PTR ___$ReturnUdt$[ebp], ecx

; 127  : 	return m_strPacketType;

  000d6	ff 15 00 00 00
	00		 call	 DWORD PTR __imp_??0?$CStringT@DV?$StrTraitMFC_DLL@DV?$ChTraitsCRT@D@ATL@@@@@ATL@@QAE@ABV01@@Z

; 904  : 
; 905  : 	prices.SetPipSize(CDataConversion::GetDataType(prices.GetPacketType()));

  000dc	e8 00 00 00 00	 call	 ?GetDataType@CDataConversion@@SANV?$CStringT@DV?$StrTraitMFC_DLL@DV?$ChTraitsCRT@D@ATL@@@@@ATL@@@Z ; CDataConversion::GetDataType
  000e1	dd 5d ec	 fstp	 QWORD PTR tv168[ebp]

; 81   : 	m_dPipSize = dPipSize;

  000e4	f2 0f 10 4d ec	 movsd	 xmm1, QWORD PTR tv168[ebp]
  000e9	0f 57 c0	 xorps	 xmm0, xmm0

; 904  : 
; 905  : 	prices.SetPipSize(CDataConversion::GetDataType(prices.GetPacketType()));

  000ec	83 c4 04	 add	 esp, 4

; 81   : 	m_dPipSize = dPipSize;

  000ef	f2 0f 11 4f 18	 movsd	 QWORD PTR [edi+24], xmm1

; 906  : 	if( prices.GetPipSize() <= 0) prices.SetPipSize(0.00001);

  000f4	66 0f 2f c1	 comisd	 xmm0, xmm1
  000f8	72 0d		 jb	 SHORT $LN9@GetPricesI

; 81   : 	m_dPipSize = dPipSize;

  000fa	f2 0f 10 05 00
	00 00 00	 movsd	 xmm0, QWORD PTR __real@3ee4f8b588e368f1
  00102	f2 0f 11 47 18	 movsd	 QWORD PTR [edi+24], xmm0
$LN9@GetPricesI:

; 907  : 	return true;

  00107	b0 01		 mov	 al, 1

; 908  : }

  00109	8b 4d f4	 mov	 ecx, DWORD PTR __$EHRec$[ebp]
  0010c	64 89 0d 00 00
	00 00		 mov	 DWORD PTR fs:0, ecx
  00113	59		 pop	 ecx
  00114	5f		 pop	 edi
  00115	5e		 pop	 esi
  00116	5b		 pop	 ebx
  00117	8b e5		 mov	 esp, ebp
  00119	5d		 pop	 ebp
  0011a	c2 08 00	 ret	 8
$LN4@GetPricesI:

; 883  : 		return false;

  0011d	32 c0		 xor	 al, al

; 908  : }

  0011f	8b 4d f4	 mov	 ecx, DWORD PTR __$EHRec$[ebp]
  00122	64 89 0d 00 00
	00 00		 mov	 DWORD PTR fs:0, ecx
  00129	59		 pop	 ecx
  0012a	5f		 pop	 edi
  0012b	5e		 pop	 esi
  0012c	5b		 pop	 ebx
  0012d	8b e5		 mov	 esp, ebp
  0012f	5d		 pop	 ebp
  00130	c2 08 00	 ret	 8
_TEXT	ENDS
;	COMDAT text$x
text$x	SEGMENT
__unwindfunclet$?GetPricesInFull@CDataInRightScaleRegionDrawer@@ABE_NPAVCPacket@@AAVCPrices@@@Z$0:
  00000	8d 4d 08	 lea	 ecx, DWORD PTR $T2[ebp]
  00003	ff 25 00 00 00
	00		 jmp	 DWORD PTR __imp_??1?$CStringT@DV?$StrTraitMFC_DLL@DV?$ChTraitsCRT@D@ATL@@@@@ATL@@QAE@XZ
  00009	cc		 int	 3
  0000a	cc		 int	 3
  0000b	cc		 int	 3
  0000c	cc		 int	 3
  0000d	cc		 int	 3
__ehhandler$?GetPricesInFull@CDataInRightScaleRegionDrawer@@ABE_NPAVCPacket@@AAVCPrices@@@Z:
  0000e	90		 npad	 1
  0000f	90		 npad	 1
  00010	8b 54 24 08	 mov	 edx, DWORD PTR [esp+8]
  00014	8d 42 0c	 lea	 eax, DWORD PTR [edx+12]
  00017	8b 4a e8	 mov	 ecx, DWORD PTR [edx-24]
  0001a	33 c8		 xor	 ecx, eax
  0001c	e8 00 00 00 00	 call	 @__security_check_cookie@4
  00021	b8 00 00 00 00	 mov	 eax, OFFSET __ehfuncinfo$?GetPricesInFull@CDataInRightScaleRegionDrawer@@ABE_NPAVCPacket@@AAVCPrices@@@Z
  00026	e9 00 00 00 00	 jmp	 ___CxxFrameHandler3
text$x	ENDS
?GetPricesInFull@CDataInRightScaleRegionDrawer@@ABE_NPAVCPacket@@AAVCPrices@@@Z ENDP ; CDataInRightScaleRegionDrawer::GetPricesInFull
; Function compile flags: /Ogtp
; File D:\git\src\IBK\IBK_DRFN\ProjSrc\SrcChartEx\ChartOCX\GraphDraw\GraphDataDrawer.cpp
; File C:\Program Files (x86)\Microsoft Visual Studio\2019\Community\VC\Tools\MSVC\14.29.30133\atlmfc\include\afxtempl.h
; File D:\git\src\IBK\IBK_DRFN\ProjSrc\SrcChartEx\ChartOCX\GraphDraw\GraphDataDrawer.cpp
; File C:\Program Files (x86)\Microsoft Visual Studio\2019\Community\VC\Tools\MSVC\14.29.30133\atlmfc\include\atlsimpstr.h
; File D:\git\src\IBK\IBK_DRFN\ProjSrc\SrcChartEx\ChartOCX\GraphDraw\GraphDataDrawer.cpp
; File C:\Program Files (x86)\Microsoft Visual Studio\2019\Community\VC\Tools\MSVC\14.29.30133\atlmfc\include\atlsimpstr.h
; File D:\git\src\IBK\IBK_DRFN\ProjSrc\SrcChartEx\ChartOCX\GraphDraw\GraphDataDrawer.cpp
;	COMDAT ?GetDrawingDatas@CDataInRightScaleRegionDrawer@@ABE_NPAVCPacket@@HHABVCPrices@@AAV3@@Z
_TEXT	SEGMENT
tv181 = -20						; size = 8
_this$1$ = -16						; size = 4
__$EHRec$ = -12						; size = 12
___$ReturnUdt$ = 8					; size = 4
_pPacket$ = 8						; size = 4
_nDataEnd$ = 12						; size = 4
_nCurDataType$ = 16					; size = 4
_pricesInView$ = 20					; size = 4
$T2 = 24						; size = 4
_prices$ = 24						; size = 4
?GetDrawingDatas@CDataInRightScaleRegionDrawer@@ABE_NPAVCPacket@@HHABVCPrices@@AAV3@@Z PROC ; CDataInRightScaleRegionDrawer::GetDrawingDatas, COMDAT
; _this$ = ecx

; 859  : {

  00000	55		 push	 ebp
  00001	8b ec		 mov	 ebp, esp
  00003	6a ff		 push	 -1
  00005	68 00 00 00 00	 push	 __ehhandler$?GetDrawingDatas@CDataInRightScaleRegionDrawer@@ABE_NPAVCPacket@@HHABVCPrices@@AAV3@@Z
  0000a	64 a1 00 00 00
	00		 mov	 eax, DWORD PTR fs:0
  00010	50		 push	 eax
  00011	83 ec 08	 sub	 esp, 8
  00014	53		 push	 ebx
  00015	56		 push	 esi
  00016	57		 push	 edi
  00017	a1 00 00 00 00	 mov	 eax, DWORD PTR ___security_cookie
  0001c	33 c5		 xor	 eax, ebp
  0001e	50		 push	 eax
  0001f	8d 45 f4	 lea	 eax, DWORD PTR __$EHRec$[ebp]
  00022	64 a3 00 00 00
	00		 mov	 DWORD PTR fs:0, eax
  00028	8b d9		 mov	 ebx, ecx
  0002a	89 5d f0	 mov	 DWORD PTR _this$1$[ebp], ebx
  0002d	8b 45 10	 mov	 eax, DWORD PTR _nCurDataType$[ebp]

; 860  : 	if(nCurDataType <= 0)

  00030	85 c0		 test	 eax, eax
  00032	7f 16		 jg	 SHORT $LN2@GetDrawing
$LN8@GetDrawing:

; 867  : 		return GetPricesInFull(pPacket, prices);
; 868  : 
; 869  : 	// ->  !!
; 870  : 	return GetPricesInView(pPacket, nDataEnd, pricesInView, prices);
; 871  : }

  00034	32 c0		 xor	 al, al
  00036	8b 4d f4	 mov	 ecx, DWORD PTR __$EHRec$[ebp]
  00039	64 89 0d 00 00
	00 00		 mov	 DWORD PTR fs:0, ecx
  00040	59		 pop	 ecx
  00041	5f		 pop	 edi
  00042	5e		 pop	 esi
  00043	5b		 pop	 ebx
  00044	8b e5		 mov	 esp, ebp
  00046	5d		 pop	 ebp
  00047	c2 14 00	 ret	 20			; 00000014H
$LN2@GetDrawing:

; 861  : 		return false;
; 862  : 
; 863  : 	// ->  ()!!
; 864  : // vntsorl_20110609:[A00000259]     
; 865  : // 	if( nCurDataType == 1 || nCurDataType == 3) return GetPricesInFull(pPacket, prices);
; 866  : 	if( 1 == nCurDataType % 2) 

  0004a	a8 01		 test	 al, 1
  0004c	0f 84 e2 00 00
	00		 je	 $LN3@GetDrawing

; 878  : 	if(pPacket == NULL)

  00052	8b 75 08	 mov	 esi, DWORD PTR _pPacket$[ebp]
  00055	85 f6		 test	 esi, esi
  00057	74 db		 je	 SHORT $LN8@GetDrawing

; 879  : 		return false;
; 880  : 
; 881  : 	CList<double, double>* pDataList = pPacket->GetnumericDataList();

  00059	8b ce		 mov	 ecx, esi
  0005b	ff 15 00 00 00
	00		 call	 DWORD PTR __imp_?GetnumericDataList@CPacket@@QAEPAV?$CList@NN@@XZ

; 882  : 	if(pDataList == NULL || pDataList->GetCount() <= 0)

  00061	85 c0		 test	 eax, eax
  00063	74 cf		 je	 SHORT $LN8@GetDrawing
  00065	83 78 0c 00	 cmp	 DWORD PTR [eax+12], 0
  00069	7e c9		 jle	 SHORT $LN8@GetDrawing

; 883  : 		return false;
; 884  : 
; 885  : 	POSITION pos = pDataList->GetTailPosition();

  0006b	8b 40 08	 mov	 eax, DWORD PTR [eax+8]

; 886  : 	if(pos == NULL)

  0006e	85 c0		 test	 eax, eax
  00070	74 c2		 je	 SHORT $LN8@GetDrawing

; 70   : 	m_dCurPrice = dPrice;

  00072	8b 7d 18	 mov	 edi, DWORD PTR _prices$[ebp]

; 891  : 	if(pPacket->IsUseStandardValue())

  00075	8b ce		 mov	 ecx, esi

; 70   : 	m_dCurPrice = dPrice;

  00077	f2 0f 10 40 08	 movsd	 xmm0, QWORD PTR [eax+8]
; File C:\Program Files (x86)\Microsoft Visual Studio\2019\Community\VC\Tools\MSVC\14.29.30133\atlmfc\include\afxtempl.h

; 825  : 		rPosition = (POSITION) pNode->pPrev;

  0007c	8b 58 04	 mov	 ebx, DWORD PTR [eax+4]
; File D:\git\src\IBK\IBK_DRFN\ProjSrc\SrcChartEx\ChartOCX\GraphDraw\GraphDataDrawer.cpp

; 891  : 	if(pPacket->IsUseStandardValue())

  0007f	6a 00		 push	 0

; 70   : 	m_dCurPrice = dPrice;

  00081	f2 0f 11 47 08	 movsd	 QWORD PTR [edi+8], xmm0

; 891  : 	if(pPacket->IsUseStandardValue())

  00086	ff 15 00 00 00
	00		 call	 DWORD PTR __imp_?IsUseStandardValue@CPacket@@QBE_NH@Z
  0008c	84 c0		 test	 al, al
  0008e	74 0e		 je	 SHORT $LN10@GetDrawing

; 892  : 	{
; 893  : 		prices.SetPrev(pPacket->GetStandardValue());

  00090	6a 00		 push	 0
  00092	8b ce		 mov	 ecx, esi
  00094	ff 15 00 00 00
	00		 call	 DWORD PTR __imp_?GetStandardValue@CPacket@@QAENH@Z

; 65   : 	m_dPrevPrice = dPrice;

  0009a	dd 1f		 fstp	 QWORD PTR [edi]

; 894  : 	}

  0009c	eb 0d		 jmp	 SHORT $LN12@GetDrawing
$LN10@GetDrawing:

; 895  : 	else
; 896  : 	{
; 897  : 		if(pos != NULL)

  0009e	85 db		 test	 ebx, ebx
  000a0	74 09		 je	 SHORT $LN12@GetDrawing

; 65   : 	m_dPrevPrice = dPrice;

  000a2	f2 0f 10 43 08	 movsd	 xmm0, QWORD PTR [ebx+8]
  000a7	f2 0f 11 07	 movsd	 QWORD PTR [edi], xmm0
$LN12@GetDrawing:

; 901  : 	CRateDrawer::GetDecimalDownCountAndDataType(pPacket, prices);

  000ab	8b 4d f0	 mov	 ecx, DWORD PTR _this$1$[ebp]
  000ae	57		 push	 edi
  000af	56		 push	 esi
  000b0	e8 00 00 00 00	 call	 ?GetDecimalDownCountAndDataType@CRateDrawer@@IBE_NPAVCPacket@@AAVCPrices@@@Z ; CRateDrawer::GetDecimalDownCountAndDataType

; 902  : // vntsorl_20110609:[A00000259]     
; 903  : 	prices.SetPacketType(pPacket->GetType());

  000b5	6a 01		 push	 1
  000b7	8d 45 18	 lea	 eax, DWORD PTR $T2[ebp]
  000ba	8b ce		 mov	 ecx, esi
  000bc	50		 push	 eax
  000bd	ff 15 00 00 00
	00		 call	 DWORD PTR __imp_?GetType@CPacket@@QAE?AV?$CStringT@DV?$StrTraitMFC_DLL@DV?$ChTraitsCRT@D@ATL@@@@@ATL@@_N@Z

; 91   : 	m_strPacketType = strPacketType;

  000c3	8d 77 24	 lea	 esi, DWORD PTR [edi+36]

; 903  : 	prices.SetPacketType(pPacket->GetType());

  000c6	c7 45 fc 00 00
	00 00		 mov	 DWORD PTR __$EHRec$[ebp+8], 0

; 91   : 	m_strPacketType = strPacketType;

  000cd	50		 push	 eax
  000ce	8b ce		 mov	 ecx, esi
  000d0	ff 15 00 00 00
	00		 call	 DWORD PTR __imp_??4?$CStringT@DV?$StrTraitMFC_DLL@DV?$ChTraitsCRT@D@ATL@@@@@ATL@@QAEAAV01@ABV01@@Z

; 903  : 	prices.SetPacketType(pPacket->GetType());

  000d6	8d 4d 18	 lea	 ecx, DWORD PTR $T2[ebp]
  000d9	c7 45 fc ff ff
	ff ff		 mov	 DWORD PTR __$EHRec$[ebp+8], -1
  000e0	ff 15 00 00 00
	00		 call	 DWORD PTR __imp_??1?$CStringT@DV?$StrTraitMFC_DLL@DV?$ChTraitsCRT@D@ATL@@@@@ATL@@QAE@XZ

; 904  : 
; 905  : 	prices.SetPipSize(CDataConversion::GetDataType(prices.GetPacketType()));

  000e6	51		 push	 ecx
  000e7	8b cc		 mov	 ecx, esp

; 127  : 	return m_strPacketType;

  000e9	56		 push	 esi

; 905  : 	prices.SetPipSize(CDataConversion::GetDataType(prices.GetPacketType()));

  000ea	89 4d 08	 mov	 DWORD PTR ___$ReturnUdt$[ebp], ecx

; 127  : 	return m_strPacketType;

  000ed	ff 15 00 00 00
	00		 call	 DWORD PTR __imp_??0?$CStringT@DV?$StrTraitMFC_DLL@DV?$ChTraitsCRT@D@ATL@@@@@ATL@@QAE@ABV01@@Z

; 905  : 	prices.SetPipSize(CDataConversion::GetDataType(prices.GetPacketType()));

  000f3	e8 00 00 00 00	 call	 ?GetDataType@CDataConversion@@SANV?$CStringT@DV?$StrTraitMFC_DLL@DV?$ChTraitsCRT@D@ATL@@@@@ATL@@@Z ; CDataConversion::GetDataType
  000f8	dd 5d ec	 fstp	 QWORD PTR tv181[ebp]

; 81   : 	m_dPipSize = dPipSize;

  000fb	f2 0f 10 4d ec	 movsd	 xmm1, QWORD PTR tv181[ebp]
  00100	0f 57 c0	 xorps	 xmm0, xmm0

; 905  : 	prices.SetPipSize(CDataConversion::GetDataType(prices.GetPacketType()));

  00103	83 c4 04	 add	 esp, 4

; 81   : 	m_dPipSize = dPipSize;

  00106	f2 0f 11 4f 18	 movsd	 QWORD PTR [edi+24], xmm1

; 906  : 	if( prices.GetPipSize() <= 0) prices.SetPipSize(0.00001);

  0010b	66 0f 2f c1	 comisd	 xmm0, xmm1
  0010f	72 0d		 jb	 SHORT $LN48@GetDrawing

; 81   : 	m_dPipSize = dPipSize;

  00111	f2 0f 10 05 00
	00 00 00	 movsd	 xmm0, QWORD PTR __real@3ee4f8b588e368f1
  00119	f2 0f 11 47 18	 movsd	 QWORD PTR [edi+24], xmm0
$LN48@GetDrawing:

; 867  : 		return GetPricesInFull(pPacket, prices);
; 868  : 
; 869  : 	// ->  !!
; 870  : 	return GetPricesInView(pPacket, nDataEnd, pricesInView, prices);
; 871  : }

  0011e	b0 01		 mov	 al, 1
  00120	8b 4d f4	 mov	 ecx, DWORD PTR __$EHRec$[ebp]
  00123	64 89 0d 00 00
	00 00		 mov	 DWORD PTR fs:0, ecx
  0012a	59		 pop	 ecx
  0012b	5f		 pop	 edi
  0012c	5e		 pop	 esi
  0012d	5b		 pop	 ebx
  0012e	8b e5		 mov	 esp, ebp
  00130	5d		 pop	 ebp
  00131	c2 14 00	 ret	 20			; 00000014H
$LN3@GetDrawing:

; 34   : 	if(this == &prices)

  00134	8b 55 18	 mov	 edx, DWORD PTR _prices$[ebp]
  00137	8b 4d 14	 mov	 ecx, DWORD PTR _pricesInView$[ebp]
  0013a	3b d1		 cmp	 edx, ecx
  0013c	74 22		 je	 SHORT $LN41@GetDrawing

; 35   : 		return *this;
; 36   : 
; 37   : 	m_dPrevPrice = prices.GetPrev();

  0013e	f2 0f 10 01	 movsd	 xmm0, QWORD PTR [ecx]
  00142	f2 0f 11 02	 movsd	 QWORD PTR [edx], xmm0

; 38   : 	m_dCurPrice = prices.GetCur();

  00146	f2 0f 10 41 08	 movsd	 xmm0, QWORD PTR [ecx+8]
  0014b	f2 0f 11 42 08	 movsd	 QWORD PTR [edx+8], xmm0

; 39   : 	m_nDecimalDownCount = prices.GetDecimalDownCount();

  00150	8b 41 10	 mov	 eax, DWORD PTR [ecx+16]
  00153	89 42 10	 mov	 DWORD PTR [edx+16], eax

; 40   : // vntsorl_20110609:[A00000259]     
; 41   : 	m_dPipSize = prices.GetPipSize();

  00156	f2 0f 10 41 18	 movsd	 xmm0, QWORD PTR [ecx+24]
  0015b	f2 0f 11 42 18	 movsd	 QWORD PTR [edx+24], xmm0
$LN41@GetDrawing:

; 133  : 	return (m_dCurPrice == 0 && m_dPrevPrice == 0 && m_dPipSize == 0 && m_nDecimalDownCount == 0 && 

  00160	f2 0f 10 41 08	 movsd	 xmm0, QWORD PTR [ecx+8]
  00165	0f 57 c9	 xorps	 xmm1, xmm1
  00168	66 0f 2e c1	 ucomisd xmm0, xmm1
  0016c	9f		 lahf
  0016d	f6 c4 44	 test	 ah, 68			; 00000044H
  00170	7a ac		 jp	 SHORT $LN48@GetDrawing
  00172	f2 0f 10 01	 movsd	 xmm0, QWORD PTR [ecx]
  00176	66 0f 2e c1	 ucomisd xmm0, xmm1
  0017a	9f		 lahf
  0017b	f6 c4 44	 test	 ah, 68			; 00000044H
  0017e	7a 9e		 jp	 SHORT $LN48@GetDrawing
  00180	f2 0f 10 41 18	 movsd	 xmm0, QWORD PTR [ecx+24]
  00185	66 0f 2e c1	 ucomisd xmm0, xmm1
  00189	9f		 lahf
  0018a	f6 c4 44	 test	 ah, 68			; 00000044H
  0018d	7a 8f		 jp	 SHORT $LN48@GetDrawing
  0018f	83 79 10 00	 cmp	 DWORD PTR [ecx+16], 0
  00193	75 89		 jne	 SHORT $LN48@GetDrawing
; File C:\Program Files (x86)\Microsoft Visual Studio\2019\Community\VC\Tools\MSVC\14.29.30133\atlmfc\include\atlsimpstr.h

; 533  : 		return( GetLength() == 0 );

  00195	8b 41 20	 mov	 eax, DWORD PTR [ecx+32]
  00198	83 78 f4 00	 cmp	 DWORD PTR [eax-12], 0
; File D:\git\src\IBK\IBK_DRFN\ProjSrc\SrcChartEx\ChartOCX\GraphDraw\GraphDataDrawer.cpp

; 133  : 	return (m_dCurPrice == 0 && m_dPrevPrice == 0 && m_dPipSize == 0 && m_nDecimalDownCount == 0 && 

  0019c	75 80		 jne	 SHORT $LN48@GetDrawing
; File C:\Program Files (x86)\Microsoft Visual Studio\2019\Community\VC\Tools\MSVC\14.29.30133\atlmfc\include\atlsimpstr.h

; 533  : 		return( GetLength() == 0 );

  0019e	8b 41 24	 mov	 eax, DWORD PTR [ecx+36]
  001a1	83 78 f4 00	 cmp	 DWORD PTR [eax-12], 0
; File D:\git\src\IBK\IBK_DRFN\ProjSrc\SrcChartEx\ChartOCX\GraphDraw\GraphDataDrawer.cpp

; 133  : 	return (m_dCurPrice == 0 && m_dPrevPrice == 0 && m_dPipSize == 0 && m_nDecimalDownCount == 0 && 

  001a5	0f 85 73 ff ff
	ff		 jne	 $LN48@GetDrawing

; 919  : 	if(pPacket == NULL)

  001ab	8b 45 08	 mov	 eax, DWORD PTR _pPacket$[ebp]
  001ae	85 c0		 test	 eax, eax
  001b0	0f 84 7e fe ff
	ff		 je	 $LN8@GetDrawing

; 920  : 		return false;
; 921  : 
; 922  : 	return CRateDrawer::GetPrices(pPacket, nDataEnd, prices);

  001b6	52		 push	 edx
  001b7	ff 75 0c	 push	 DWORD PTR _nDataEnd$[ebp]
  001ba	8b cb		 mov	 ecx, ebx
  001bc	50		 push	 eax
  001bd	e8 00 00 00 00	 call	 ?GetPrices@CRateDrawer@@IBE_NPAVCPacket@@HAAVCPrices@@@Z ; CRateDrawer::GetPrices

; 867  : 		return GetPricesInFull(pPacket, prices);
; 868  : 
; 869  : 	// ->  !!
; 870  : 	return GetPricesInView(pPacket, nDataEnd, pricesInView, prices);
; 871  : }

  001c2	8b 4d f4	 mov	 ecx, DWORD PTR __$EHRec$[ebp]
  001c5	64 89 0d 00 00
	00 00		 mov	 DWORD PTR fs:0, ecx
  001cc	59		 pop	 ecx
  001cd	5f		 pop	 edi
  001ce	5e		 pop	 esi
  001cf	5b		 pop	 ebx
  001d0	8b e5		 mov	 esp, ebp
  001d2	5d		 pop	 ebp
  001d3	c2 14 00	 ret	 20			; 00000014H
_TEXT	ENDS
;	COMDAT text$x
text$x	SEGMENT
__unwindfunclet$?GetDrawingDatas@CDataInRightScaleRegionDrawer@@ABE_NPAVCPacket@@HHABVCPrices@@AAV3@@Z$0:
  00000	8d 4d 18	 lea	 ecx, DWORD PTR $T2[ebp]
  00003	ff 25 00 00 00
	00		 jmp	 DWORD PTR __imp_??1?$CStringT@DV?$StrTraitMFC_DLL@DV?$ChTraitsCRT@D@ATL@@@@@ATL@@QAE@XZ
  00009	cc		 int	 3
  0000a	cc		 int	 3
  0000b	cc		 int	 3
  0000c	cc		 int	 3
  0000d	cc		 int	 3
__ehhandler$?GetDrawingDatas@CDataInRightScaleRegionDrawer@@ABE_NPAVCPacket@@HHABVCPrices@@AAV3@@Z:
  0000e	90		 npad	 1
  0000f	90		 npad	 1
  00010	8b 54 24 08	 mov	 edx, DWORD PTR [esp+8]
  00014	8d 42 0c	 lea	 eax, DWORD PTR [edx+12]
  00017	8b 4a e8	 mov	 ecx, DWORD PTR [edx-24]
  0001a	33 c8		 xor	 ecx, eax
  0001c	e8 00 00 00 00	 call	 @__security_check_cookie@4
  00021	b8 00 00 00 00	 mov	 eax, OFFSET __ehfuncinfo$?GetDrawingDatas@CDataInRightScaleRegionDrawer@@ABE_NPAVCPacket@@HHABVCPrices@@AAV3@@Z
  00026	e9 00 00 00 00	 jmp	 ___CxxFrameHandler3
text$x	ENDS
?GetDrawingDatas@CDataInRightScaleRegionDrawer@@ABE_NPAVCPacket@@HHABVCPrices@@AAV3@@Z ENDP ; CDataInRightScaleRegionDrawer::GetDrawingDatas
; Function compile flags: /Ogtp
; File D:\git\src\IBK\IBK_DRFN\ProjSrc\SrcChartEx\ChartOCX\GraphDraw\GraphDataDrawer.cpp
;	COMDAT ?GetDrawingDatas@CDataInRightScaleRegionDrawer@@ABE_NABVCDisplayAttributes@@ABVCDrawingGraphData@@ABVCPrices@@AAV4@AAV?$CStringT@DV?$StrTraitMFC_DLL@DV?$ChTraitsCRT@D@ATL@@@@@ATL@@@Z
_TEXT	SEGMENT
$T2 = -32						; size = 12
_this$1$ = -20						; size = 4
_nCurDataType$1$ = -16					; size = 4
__$EHRec$ = -12						; size = 12
_displayAttributes$ = 8					; size = 4
$T3 = 12						; size = 4
_drawingGraphData$ = 12					; size = 4
_pricesInView$ = 16					; size = 4
_prices$ = 20						; size = 4
_p_strPacketType$ = 24					; size = 4
?GetDrawingDatas@CDataInRightScaleRegionDrawer@@ABE_NABVCDisplayAttributes@@ABVCDrawingGraphData@@ABVCPrices@@AAV4@AAV?$CStringT@DV?$StrTraitMFC_DLL@DV?$ChTraitsCRT@D@ATL@@@@@ATL@@@Z PROC ; CDataInRightScaleRegionDrawer::GetDrawingDatas, COMDAT
; _this$ = ecx

; 845  : {

  00000	55		 push	 ebp
  00001	8b ec		 mov	 ebp, esp
  00003	6a ff		 push	 -1
  00005	68 00 00 00 00	 push	 __ehhandler$?GetDrawingDatas@CDataInRightScaleRegionDrawer@@ABE_NABVCDisplayAttributes@@ABVCDrawingGraphData@@ABVCPrices@@AAV4@AAV?$CStringT@DV?$StrTraitMFC_DLL@DV?$ChTraitsCRT@D@ATL@@@@@ATL@@@Z
  0000a	64 a1 00 00 00
	00		 mov	 eax, DWORD PTR fs:0
  00010	50		 push	 eax
  00011	83 ec 14	 sub	 esp, 20			; 00000014H
  00014	53		 push	 ebx
  00015	56		 push	 esi
  00016	57		 push	 edi
  00017	a1 00 00 00 00	 mov	 eax, DWORD PTR ___security_cookie
  0001c	33 c5		 xor	 eax, ebp
  0001e	50		 push	 eax
  0001f	8d 45 f4	 lea	 eax, DWORD PTR __$EHRec$[ebp]
  00022	64 a3 00 00 00
	00		 mov	 DWORD PTR fs:0, eax
  00028	8b d9		 mov	 ebx, ecx
  0002a	89 5d ec	 mov	 DWORD PTR _this$1$[ebp], ebx

; 846  : 	int nCurDataType = drawingGraphData.GetGraphDataDrawingData().GetCalcRiseFallRate_CurData();

  0002d	8b 75 0c	 mov	 esi, DWORD PTR _drawingGraphData$[ebp]
  00030	8d 45 e0	 lea	 eax, DWORD PTR $T2[ebp]
  00033	50		 push	 eax
  00034	8b ce		 mov	 ecx, esi
  00036	e8 00 00 00 00	 call	 ?GetGraphDataDrawingData@CDrawingGraphData@@QBE?AVCGraphDataDrawingData@@XZ ; CDrawingGraphData::GetGraphDataDrawingData
  0003b	8b c8		 mov	 ecx, eax
  0003d	ff 15 00 00 00
	00		 call	 DWORD PTR __imp_?GetCalcRiseFallRate_CurData@CGraphDataDrawingData@@QBEHXZ
  00043	89 45 f0	 mov	 DWORD PTR _nCurDataType$1$[ebp], eax

; 847  : 	if(nCurDataType <= 0)

  00046	85 c0		 test	 eax, eax
  00048	7f 16		 jg	 SHORT $LN2@GetDrawing

; 848  : 		return false;

  0004a	32 c0		 xor	 al, al

; 855  : }

  0004c	8b 4d f4	 mov	 ecx, DWORD PTR __$EHRec$[ebp]
  0004f	64 89 0d 00 00
	00 00		 mov	 DWORD PTR fs:0, ecx
  00056	59		 pop	 ecx
  00057	5f		 pop	 edi
  00058	5e		 pop	 esi
  00059	5b		 pop	 ebx
  0005a	8b e5		 mov	 esp, ebp
  0005c	5d		 pop	 ebp
  0005d	c2 14 00	 ret	 20			; 00000014H
$LN2@GetDrawing:

; 849  : 	
; 850  : 	CPacket* pPacket = GetPacket(drawingGraphData);

  00060	56		 push	 esi
  00061	8b cb		 mov	 ecx, ebx
  00063	e8 00 00 00 00	 call	 ?GetPacket@CDataInRightScaleRegionDrawer@@QBEPAVCPacket@@ABVCDrawingGraphData@@@Z ; CDataInRightScaleRegionDrawer::GetPacket

; 851  : 	int nDataEnd = CRateDrawer::GetRealDataEnd(pPacket, displayAttributes.GetDataEndInBlock());

  00068	8b 4d 08	 mov	 ecx, DWORD PTR _displayAttributes$[ebp]
  0006b	8b f0		 mov	 esi, eax
  0006d	e8 00 00 00 00	 call	 ?GetDataEndInBlock@CDisplayAttributes@@QBEHXZ ; CDisplayAttributes::GetDataEndInBlock
  00072	8b f8		 mov	 edi, eax

; 318  : 	if(pPacket == NULL || pPacket->GetnumericDataList() == NULL)

  00074	85 f6		 test	 esi, esi
  00076	74 51		 je	 SHORT $LN3@GetDrawing
  00078	8b 1d 00 00 00
	00		 mov	 ebx, DWORD PTR __imp_?GetnumericDataList@CPacket@@QAEPAV?$CList@NN@@XZ
  0007e	8b ce		 mov	 ecx, esi
  00080	ff d3		 call	 ebx
  00082	85 c0		 test	 eax, eax
  00084	74 10		 je	 SHORT $LN8@GetDrawing

; 319  : 		return nDataEnd;
; 320  : 
; 321  : 	int nDataCount = pPacket->GetnumericDataList()->GetCount();

  00086	8b ce		 mov	 ecx, esi
  00088	ff d3		 call	 ebx
  0008a	8b 40 0c	 mov	 eax, DWORD PTR [eax+12]

; 322  : 	if(nDataEnd >= nDataCount)

  0008d	3b f8		 cmp	 edi, eax
  0008f	7c 09		 jl	 SHORT $LN11@GetDrawing

; 323  : 		return (nDataCount - 1);

  00091	8d 78 ff	 lea	 edi, DWORD PTR [eax-1]
  00094	eb 04		 jmp	 SHORT $LN11@GetDrawing
$LN8@GetDrawing:

; 852  : 
; 853  : 	if( pPacket) p_strPacketType = pPacket->GetType();

  00096	85 f6		 test	 esi, esi
  00098	74 2f		 je	 SHORT $LN3@GetDrawing
$LN11@GetDrawing:
  0009a	6a 01		 push	 1
  0009c	8d 45 0c	 lea	 eax, DWORD PTR $T3[ebp]
  0009f	8b ce		 mov	 ecx, esi
  000a1	50		 push	 eax
  000a2	ff 15 00 00 00
	00		 call	 DWORD PTR __imp_?GetType@CPacket@@QAE?AV?$CStringT@DV?$StrTraitMFC_DLL@DV?$ChTraitsCRT@D@ATL@@@@@ATL@@_N@Z
  000a8	8b 4d 18	 mov	 ecx, DWORD PTR _p_strPacketType$[ebp]
  000ab	50		 push	 eax
  000ac	c7 45 fc 00 00
	00 00		 mov	 DWORD PTR __$EHRec$[ebp+8], 0
  000b3	ff 15 00 00 00
	00		 call	 DWORD PTR __imp_??4?$CStringT@DV?$StrTraitMFC_DLL@DV?$ChTraitsCRT@D@ATL@@@@@ATL@@QAEAAV01@ABV01@@Z
  000b9	8d 4d 0c	 lea	 ecx, DWORD PTR $T3[ebp]
  000bc	c7 45 fc ff ff
	ff ff		 mov	 DWORD PTR __$EHRec$[ebp+8], -1
  000c3	ff 15 00 00 00
	00		 call	 DWORD PTR __imp_??1?$CStringT@DV?$StrTraitMFC_DLL@DV?$ChTraitsCRT@D@ATL@@@@@ATL@@QAE@XZ
$LN3@GetDrawing:

; 854  : 	return GetDrawingDatas(pPacket, nDataEnd, nCurDataType, pricesInView, prices);

  000c9	ff 75 14	 push	 DWORD PTR _prices$[ebp]
  000cc	8b 4d ec	 mov	 ecx, DWORD PTR _this$1$[ebp]
  000cf	ff 75 10	 push	 DWORD PTR _pricesInView$[ebp]
  000d2	ff 75 f0	 push	 DWORD PTR _nCurDataType$1$[ebp]
  000d5	57		 push	 edi
  000d6	56		 push	 esi
  000d7	e8 00 00 00 00	 call	 ?GetDrawingDatas@CDataInRightScaleRegionDrawer@@ABE_NPAVCPacket@@HHABVCPrices@@AAV3@@Z ; CDataInRightScaleRegionDrawer::GetDrawingDatas

; 855  : }

  000dc	8b 4d f4	 mov	 ecx, DWORD PTR __$EHRec$[ebp]
  000df	64 89 0d 00 00
	00 00		 mov	 DWORD PTR fs:0, ecx
  000e6	59		 pop	 ecx
  000e7	5f		 pop	 edi
  000e8	5e		 pop	 esi
  000e9	5b		 pop	 ebx
  000ea	8b e5		 mov	 esp, ebp
  000ec	5d		 pop	 ebp
  000ed	c2 14 00	 ret	 20			; 00000014H
_TEXT	ENDS
;	COMDAT text$x
text$x	SEGMENT
__unwindfunclet$?GetDrawingDatas@CDataInRightScaleRegionDrawer@@ABE_NABVCDisplayAttributes@@ABVCDrawingGraphData@@ABVCPrices@@AAV4@AAV?$CStringT@DV?$StrTraitMFC_DLL@DV?$ChTraitsCRT@D@ATL@@@@@ATL@@@Z$0:
  00000	8d 4d 0c	 lea	 ecx, DWORD PTR $T3[ebp]
  00003	ff 25 00 00 00
	00		 jmp	 DWORD PTR __imp_??1?$CStringT@DV?$StrTraitMFC_DLL@DV?$ChTraitsCRT@D@ATL@@@@@ATL@@QAE@XZ
  00009	cc		 int	 3
  0000a	cc		 int	 3
  0000b	cc		 int	 3
  0000c	cc		 int	 3
  0000d	cc		 int	 3
__ehhandler$?GetDrawingDatas@CDataInRightScaleRegionDrawer@@ABE_NABVCDisplayAttributes@@ABVCDrawingGraphData@@ABVCPrices@@AAV4@AAV?$CStringT@DV?$StrTraitMFC_DLL@DV?$ChTraitsCRT@D@ATL@@@@@ATL@@@Z:
  0000e	90		 npad	 1
  0000f	90		 npad	 1
  00010	8b 54 24 08	 mov	 edx, DWORD PTR [esp+8]
  00014	8d 42 0c	 lea	 eax, DWORD PTR [edx+12]
  00017	8b 4a dc	 mov	 ecx, DWORD PTR [edx-36]
  0001a	33 c8		 xor	 ecx, eax
  0001c	e8 00 00 00 00	 call	 @__security_check_cookie@4
  00021	b8 00 00 00 00	 mov	 eax, OFFSET __ehfuncinfo$?GetDrawingDatas@CDataInRightScaleRegionDrawer@@ABE_NABVCDisplayAttributes@@ABVCDrawingGraphData@@ABVCPrices@@AAV4@AAV?$CStringT@DV?$StrTraitMFC_DLL@DV?$ChTraitsCRT@D@ATL@@@@@ATL@@@Z
  00026	e9 00 00 00 00	 jmp	 ___CxxFrameHandler3
text$x	ENDS
?GetDrawingDatas@CDataInRightScaleRegionDrawer@@ABE_NABVCDisplayAttributes@@ABVCDrawingGraphData@@ABVCPrices@@AAV4@AAV?$CStringT@DV?$StrTraitMFC_DLL@DV?$ChTraitsCRT@D@ATL@@@@@ATL@@@Z ENDP ; CDataInRightScaleRegionDrawer::GetDrawingDatas
; Function compile flags: /Ogtp
; File D:\git\src\IBK\IBK_DRFN\ProjSrc\SrcChartEx\ChartOCX\GraphDraw\GraphDataDrawer.cpp
; File C:\Program Files (x86)\Microsoft Visual Studio\2019\Community\VC\Tools\MSVC\14.29.30133\atlmfc\include\atltypes.h
; File D:\git\src\IBK\IBK_DRFN\ProjSrc\SrcChartEx\ChartOCX\GraphDraw\GraphDataDrawer.cpp
; File C:\Program Files (x86)\Microsoft Visual Studio\2019\Community\VC\Tools\MSVC\14.29.30133\atlmfc\include\afxwin1.inl
; File D:\git\src\IBK\IBK_DRFN\ProjSrc\SrcChartEx\ChartOCX\GraphDraw\GraphDataDrawer.cpp
; File C:\Program Files (x86)\Microsoft Visual Studio\2019\Community\VC\Tools\MSVC\14.29.30133\atlmfc\include\afxwin1.inl
; File D:\git\src\IBK\IBK_DRFN\ProjSrc\SrcChartEx\ChartOCX\GraphDraw\GraphDataDrawer.cpp
; File C:\Program Files (x86)\Microsoft Visual Studio\2019\Community\VC\Tools\MSVC\14.29.30133\atlmfc\include\afxwin1.inl
; File D:\git\src\IBK\IBK_DRFN\ProjSrc\SrcChartEx\ChartOCX\GraphDraw\GraphDataDrawer.cpp
; File C:\Program Files (x86)\Microsoft Visual Studio\2019\Community\VC\Tools\MSVC\14.29.30133\atlmfc\include\afxwin1.inl
; File C:\Program Files (x86)\Microsoft Visual Studio\2019\Community\VC\Tools\MSVC\14.29.30133\atlmfc\include\atltypes.h
; File D:\git\src\IBK\IBK_DRFN\ProjSrc\SrcChartEx\ChartOCX\GraphDraw\GraphDataDrawer.cpp
; File C:\Program Files (x86)\Microsoft Visual Studio\2019\Community\VC\Tools\MSVC\14.29.30133\atlmfc\include\atltypes.h
; File D:\git\src\IBK\IBK_DRFN\ProjSrc\SrcChartEx\ChartOCX\GraphDraw\GraphDataDrawer.cpp
; File C:\Program Files (x86)\Microsoft Visual Studio\2019\Community\VC\Tools\MSVC\14.29.30133\atlmfc\include\atltypes.h
; File D:\git\src\IBK\IBK_DRFN\ProjSrc\SrcChartEx\ChartOCX\GraphDraw\GraphDataDrawer.cpp
; File C:\Program Files (x86)\Microsoft Visual Studio\2019\Community\VC\Tools\MSVC\14.29.30133\atlmfc\include\atlsimpstr.h
; File C:\Program Files (x86)\Microsoft Visual Studio\2019\Community\VC\Tools\MSVC\14.29.30133\atlmfc\include\afxwin1.inl
; File C:\Program Files (x86)\Microsoft Visual Studio\2019\Community\VC\Tools\MSVC\14.29.30133\atlmfc\include\atlsimpstr.h
; File C:\Program Files (x86)\Microsoft Visual Studio\2019\Community\VC\Tools\MSVC\14.29.30133\atlmfc\include\afxwin1.inl
; File C:\Program Files (x86)\Microsoft Visual Studio\2019\Community\VC\Tools\MSVC\14.29.30133\atlmfc\include\atlsimpstr.h
; File C:\Program Files (x86)\Microsoft Visual Studio\2019\Community\VC\Tools\MSVC\14.29.30133\atlmfc\include\afxwin1.inl
; File D:\git\src\IBK\IBK_DRFN\ProjSrc\SrcChartEx\ChartOCX\GraphDraw\GraphDataDrawer.cpp
;	COMDAT ?DrawData@CDataInRightScaleRegionDrawer@@AAEXPAVCDC@@ABVCRect@@ABV?$CStringT@DV?$StrTraitMFC_DLL@DV?$ChTraitsCRT@D@ATL@@@@@ATL@@ABK3AAH@Z
_TEXT	SEGMENT
_size$2 = -84						; size = 8
_nOrgMode$1$ = -76					; size = 4
_newBrush$3 = -72					; size = 8
_newPen$4 = -64						; size = 8
_nPrevGap_Y$GSCopy$1$ = -56				; size = 4
_strText$GSCopy$1$ = -52				; size = 4
_bkColor$GSCopy$1$ = -48				; size = 4
_orgTextColor$1$ = -44					; size = 4
_textColor$GSCopy$1$ = -44				; size = 4
tv520 = -40						; size = 4
_textRegion$GSCopy$1$ = -40				; size = 4
_pDC$GSCopy$1$ = -36					; size = 4
_drawingTextRegion$ = -32				; size = 16
__$ArrayPad$ = -16					; size = 4
__$EHRec$ = -12						; size = 12
_pDC$ = 8						; size = 4
_textRegion$ = 12					; size = 4
_strText$ = 16						; size = 4
_bkColor$ = 20						; size = 4
_textColor$ = 24					; size = 4
_nPrevGap_Y$ = 28					; size = 4
?DrawData@CDataInRightScaleRegionDrawer@@AAEXPAVCDC@@ABVCRect@@ABV?$CStringT@DV?$StrTraitMFC_DLL@DV?$ChTraitsCRT@D@ATL@@@@@ATL@@ABK3AAH@Z PROC ; CDataInRightScaleRegionDrawer::DrawData, COMDAT
; _this$ = ecx

; 828  : {

  00000	55		 push	 ebp
  00001	8b ec		 mov	 ebp, esp
  00003	6a ff		 push	 -1
  00005	68 00 00 00 00	 push	 __ehhandler$?DrawData@CDataInRightScaleRegionDrawer@@AAEXPAVCDC@@ABVCRect@@ABV?$CStringT@DV?$StrTraitMFC_DLL@DV?$ChTraitsCRT@D@ATL@@@@@ATL@@ABK3AAH@Z
  0000a	64 a1 00 00 00
	00		 mov	 eax, DWORD PTR fs:0
  00010	50		 push	 eax
  00011	83 ec 48	 sub	 esp, 72			; 00000048H
  00014	a1 00 00 00 00	 mov	 eax, DWORD PTR ___security_cookie
  00019	33 c5		 xor	 eax, ebp
  0001b	89 45 f0	 mov	 DWORD PTR __$ArrayPad$[ebp], eax
  0001e	56		 push	 esi
  0001f	57		 push	 edi
  00020	50		 push	 eax
  00021	8d 45 f4	 lea	 eax, DWORD PTR __$EHRec$[ebp]
  00024	64 a3 00 00 00
	00		 mov	 DWORD PTR fs:0, eax
  0002a	8b 45 0c	 mov	 eax, DWORD PTR _textRegion$[ebp]
  0002d	8b 75 08	 mov	 esi, DWORD PTR _pDC$[ebp]

; 829  : 	int nOrgMode = pDC->SetBkMode(TRANSPARENT);

  00030	8b ce		 mov	 ecx, esi
  00032	8b 7d 1c	 mov	 edi, DWORD PTR _nPrevGap_Y$[ebp]
  00035	89 45 d8	 mov	 DWORD PTR _textRegion$GSCopy$1$[ebp], eax
  00038	8b 45 10	 mov	 eax, DWORD PTR _strText$[ebp]
  0003b	89 45 cc	 mov	 DWORD PTR _strText$GSCopy$1$[ebp], eax
  0003e	8b 45 14	 mov	 eax, DWORD PTR _bkColor$[ebp]
  00041	89 45 d0	 mov	 DWORD PTR _bkColor$GSCopy$1$[ebp], eax
  00044	8b 45 18	 mov	 eax, DWORD PTR _textColor$[ebp]
  00047	6a 01		 push	 1
  00049	89 75 dc	 mov	 DWORD PTR _pDC$GSCopy$1$[ebp], esi
  0004c	89 45 d4	 mov	 DWORD PTR _textColor$GSCopy$1$[ebp], eax
  0004f	89 7d c8	 mov	 DWORD PTR _nPrevGap_Y$GSCopy$1$[ebp], edi
  00052	e8 00 00 00 00	 call	 ?SetBkMode@CDC@@QAEHH@Z	; CDC::SetBkMode

; 1008 : 	CRect drawingRegion = textRegion;

  00057	8b 4d d8	 mov	 ecx, DWORD PTR _textRegion$GSCopy$1$[ebp]

; 829  : 	int nOrgMode = pDC->SetBkMode(TRANSPARENT);

  0005a	89 45 b4	 mov	 DWORD PTR _nOrgMode$1$[ebp], eax

; 1008 : 	CRect drawingRegion = textRegion;

  0005d	0f 10 01	 movups	 xmm0, XMMWORD PTR [ecx]
  00060	0f 11 45 e0	 movups	 XMMWORD PTR _drawingTextRegion$[ebp], xmm0
; File C:\Program Files (x86)\Microsoft Visual Studio\2019\Community\VC\Tools\MSVC\14.29.30133\atlmfc\include\atltypes.h

; 914  : 	right += r;

  00064	8b 45 e8	 mov	 eax, DWORD PTR _drawingTextRegion$[ebp+8]
  00067	8b 4d e4	 mov	 ecx, DWORD PTR _drawingTextRegion$[ebp+4]
  0006a	40		 inc	 eax
  0006b	66 0f 7e c2	 movd	 edx, xmm0
  0006f	83 c1 fe	 add	 ecx, -2			; fffffffeH
  00072	89 4d e4	 mov	 DWORD PTR _drawingTextRegion$[ebp+4], ecx
  00075	89 45 e8	 mov	 DWORD PTR _drawingTextRegion$[ebp+8], eax
  00078	4a		 dec	 edx
  00079	89 55 e0	 mov	 DWORD PTR _drawingTextRegion$[ebp], edx
  0007c	3b d0		 cmp	 edx, eax

; 884  : 	if (left > right)

  0007e	7e 06		 jle	 SHORT $LN8@DrawData

; 885  : 	{
; 886  : 		nTemp = left;
; 887  : 		left = right;

  00080	89 45 e0	 mov	 DWORD PTR _drawingTextRegion$[ebp], eax

; 888  : 		right = nTemp;

  00083	89 55 e8	 mov	 DWORD PTR _drawingTextRegion$[ebp+8], edx
$LN8@DrawData:

; 889  : 	}
; 890  : 	if (top > bottom)

  00086	8b 45 ec	 mov	 eax, DWORD PTR _drawingTextRegion$[ebp+12]
  00089	3b c8		 cmp	 ecx, eax
  0008b	7e 06		 jle	 SHORT $LN9@DrawData

; 891  : 	{
; 892  : 		nTemp = top;
; 893  : 		top = bottom;

  0008d	89 45 e4	 mov	 DWORD PTR _drawingTextRegion$[ebp+4], eax

; 894  : 		bottom = nTemp;

  00090	89 4d ec	 mov	 DWORD PTR _drawingTextRegion$[ebp+12], ecx
$LN9@DrawData:

; 710  : 	::OffsetRect(this, x, y);

  00093	ff 37		 push	 DWORD PTR [edi]
  00095	8d 45 e0	 lea	 eax, DWORD PTR _drawingTextRegion$[ebp]
  00098	6a 00		 push	 0
  0009a	50		 push	 eax
  0009b	ff 15 00 00 00
	00		 call	 DWORD PTR __imp__OffsetRect@12
; File D:\git\src\IBK\IBK_DRFN\ProjSrc\SrcChartEx\ChartOCX\GraphDraw\GraphDataDrawer.cpp

; 242  : 	CBrush newBrush(brushColor);

  000a1	8b 45 d0	 mov	 eax, DWORD PTR _bkColor$GSCopy$1$[ebp]
  000a4	8d 4d b8	 lea	 ecx, DWORD PTR _newBrush$3[ebp]
  000a7	ff 30		 push	 DWORD PTR [eax]
  000a9	e8 00 00 00 00	 call	 ??0CBrush@@QAE@K@Z	; CBrush::CBrush

; 243  : 	CBrush* pOldBrush = pDC->SelectObject(&newBrush);

  000ae	8d 45 b8	 lea	 eax, DWORD PTR _newBrush$3[ebp]
  000b1	c7 45 fc 00 00
	00 00		 mov	 DWORD PTR __$EHRec$[ebp+8], 0
  000b8	50		 push	 eax
  000b9	8b ce		 mov	 ecx, esi
  000bb	e8 00 00 00 00	 call	 ?SelectObject@CDC@@QAEPAVCBrush@@PAV2@@Z ; CDC::SelectObject
  000c0	8b f8		 mov	 edi, eax

; 244  : 	CPen newPen(PS_INSIDEFRAME, 1, penColor);

  000c2	8d 4d c0	 lea	 ecx, DWORD PTR _newPen$4[ebp]
  000c5	8b 45 d0	 mov	 eax, DWORD PTR _bkColor$GSCopy$1$[ebp]
  000c8	ff 30		 push	 DWORD PTR [eax]
  000ca	6a 01		 push	 1
  000cc	6a 06		 push	 6
  000ce	e8 00 00 00 00	 call	 ??0CPen@@QAE@HHK@Z	; CPen::CPen

; 245  : 	CPen* pOldPen = pDC->SelectObject(&newPen);

  000d3	8d 45 c0	 lea	 eax, DWORD PTR _newPen$4[ebp]
  000d6	c6 45 fc 01	 mov	 BYTE PTR __$EHRec$[ebp+8], 1
  000da	50		 push	 eax
  000db	8b ce		 mov	 ecx, esi
  000dd	e8 00 00 00 00	 call	 ?SelectObject@CDC@@QAEPAVCPen@@PAV2@@Z ; CDC::SelectObject
; File C:\Program Files (x86)\Microsoft Visual Studio\2019\Community\VC\Tools\MSVC\14.29.30133\atlmfc\include\afxwin1.inl

; 541  : 	{ ASSERT(m_hDC != NULL); return ::Rectangle(m_hDC, lpRect->left, lpRect->top,

  000e2	ff 75 ec	 push	 DWORD PTR _drawingTextRegion$[ebp+12]
  000e5	8b 55 dc	 mov	 edx, DWORD PTR _pDC$GSCopy$1$[ebp]
; File D:\git\src\IBK\IBK_DRFN\ProjSrc\SrcChartEx\ChartOCX\GraphDraw\GraphDataDrawer.cpp

; 245  : 	CPen* pOldPen = pDC->SelectObject(&newPen);

  000e8	8b f0		 mov	 esi, eax
; File C:\Program Files (x86)\Microsoft Visual Studio\2019\Community\VC\Tools\MSVC\14.29.30133\atlmfc\include\afxwin1.inl

; 541  : 	{ ASSERT(m_hDC != NULL); return ::Rectangle(m_hDC, lpRect->left, lpRect->top,

  000ea	ff 75 e8	 push	 DWORD PTR _drawingTextRegion$[ebp+8]
  000ed	ff 75 e4	 push	 DWORD PTR _drawingTextRegion$[ebp+4]
  000f0	ff 75 e0	 push	 DWORD PTR _drawingTextRegion$[ebp]
  000f3	ff 72 04	 push	 DWORD PTR [edx+4]
  000f6	ff 15 00 00 00
	00		 call	 DWORD PTR __imp__Rectangle@20
; File D:\git\src\IBK\IBK_DRFN\ProjSrc\SrcChartEx\ChartOCX\GraphDraw\GraphDataDrawer.cpp

; 249  : 	pDC->SelectObject(pOldBrush);

  000fc	8b 4d dc	 mov	 ecx, DWORD PTR _pDC$GSCopy$1$[ebp]
  000ff	57		 push	 edi
  00100	e8 00 00 00 00	 call	 ?SelectObject@CDC@@QAEPAVCBrush@@PAV2@@Z ; CDC::SelectObject

; 250  : 	pDC->SelectObject(pOldPen);

  00105	8b 4d dc	 mov	 ecx, DWORD PTR _pDC$GSCopy$1$[ebp]
  00108	56		 push	 esi
  00109	e8 00 00 00 00	 call	 ?SelectObject@CDC@@QAEPAVCPen@@PAV2@@Z ; CDC::SelectObject

; 251  : 	newBrush.DeleteObject();

  0010e	8d 4d b8	 lea	 ecx, DWORD PTR _newBrush$3[ebp]
  00111	e8 00 00 00 00	 call	 ?DeleteObject@CGdiObject@@QAEHXZ ; CGdiObject::DeleteObject

; 252  : 	newPen.DeleteObject();

  00116	8d 4d c0	 lea	 ecx, DWORD PTR _newPen$4[ebp]
  00119	e8 00 00 00 00	 call	 ?DeleteObject@CGdiObject@@QAEHXZ ; CGdiObject::DeleteObject
; File C:\Program Files (x86)\Microsoft Visual Studio\2019\Community\VC\Tools\MSVC\14.29.30133\atlmfc\include\afxwin1.inl

; 106  : 	{ }

  0011e	8d 4d c0	 lea	 ecx, DWORD PTR _newPen$4[ebp]
  00121	c7 45 c0 00 00
	00 00		 mov	 DWORD PTR _newPen$4[ebp], OFFSET ??_7CPen@@6B@
  00128	e8 00 00 00 00	 call	 ??1CGdiObject@@UAE@XZ	; CGdiObject::~CGdiObject

; 130  : 	{ }

  0012d	8d 4d b8	 lea	 ecx, DWORD PTR _newBrush$3[ebp]
; File D:\git\src\IBK\IBK_DRFN\ProjSrc\SrcChartEx\ChartOCX\GraphDraw\GraphDataDrawer.cpp

; 253  : }

  00130	c7 45 fc ff ff
	ff ff		 mov	 DWORD PTR __$EHRec$[ebp+8], -1
; File C:\Program Files (x86)\Microsoft Visual Studio\2019\Community\VC\Tools\MSVC\14.29.30133\atlmfc\include\afxwin1.inl

; 130  : 	{ }

  00137	c7 45 b8 00 00
	00 00		 mov	 DWORD PTR _newBrush$3[ebp], OFFSET ??_7CBrush@@6B@
  0013e	e8 00 00 00 00	 call	 ??1CGdiObject@@UAE@XZ	; CGdiObject::~CGdiObject
; File C:\Program Files (x86)\Microsoft Visual Studio\2019\Community\VC\Tools\MSVC\14.29.30133\atlmfc\include\atltypes.h

; 408  : 	x = initX;

  00143	8b 4d d8	 mov	 ecx, DWORD PTR _textRegion$GSCopy$1$[ebp]
; File D:\git\src\IBK\IBK_DRFN\ProjSrc\SrcChartEx\ChartOCX\GraphDraw\GraphDataDrawer.cpp

; 232  : 	COLORREF orgTextColor = pDC->SetTextColor(textColor);

  00146	8b 55 d4	 mov	 edx, DWORD PTR _textColor$GSCopy$1$[ebp]

; 830  : 
; 831  : 	CRect drawingTextRegion = GetDrawingTextRegion(textRegion, nPrevGap_Y);
; 832  : 	CRateDrawer::DrawRegion(pDC, drawingTextRegion, bkColor, bkColor);
; 833  : // vntsorl_20110609:[A00000259]     
; 834  : 	int nTemp = nPrevGap_Y;

  00149	8b 7d c8	 mov	 edi, DWORD PTR _nPrevGap_Y$GSCopy$1$[ebp]
; File C:\Program Files (x86)\Microsoft Visual Studio\2019\Community\VC\Tools\MSVC\14.29.30133\atlmfc\include\atltypes.h

; 408  : 	x = initX;

  0014c	8b 41 08	 mov	 eax, DWORD PTR [ecx+8]

; 409  : 	y = initY;

  0014f	8b 71 04	 mov	 esi, DWORD PTR [ecx+4]
; File D:\git\src\IBK\IBK_DRFN\ProjSrc\SrcChartEx\ChartOCX\GraphDraw\GraphDataDrawer.cpp

; 232  : 	COLORREF orgTextColor = pDC->SetTextColor(textColor);

  00152	8b 4d dc	 mov	 ecx, DWORD PTR _pDC$GSCopy$1$[ebp]
  00155	ff 32		 push	 DWORD PTR [edx]

; 830  : 
; 831  : 	CRect drawingTextRegion = GetDrawingTextRegion(textRegion, nPrevGap_Y);
; 832  : 	CRateDrawer::DrawRegion(pDC, drawingTextRegion, bkColor, bkColor);
; 833  : // vntsorl_20110609:[A00000259]     
; 834  : 	int nTemp = nPrevGap_Y;

  00157	8b 3f		 mov	 edi, DWORD PTR [edi]
; File C:\Program Files (x86)\Microsoft Visual Studio\2019\Community\VC\Tools\MSVC\14.29.30133\atlmfc\include\atltypes.h

; 408  : 	x = initX;

  00159	89 45 d8	 mov	 DWORD PTR tv520[ebp], eax
; File D:\git\src\IBK\IBK_DRFN\ProjSrc\SrcChartEx\ChartOCX\GraphDraw\GraphDataDrawer.cpp

; 232  : 	COLORREF orgTextColor = pDC->SetTextColor(textColor);

  0015c	8b 01		 mov	 eax, DWORD PTR [ecx]
  0015e	8b 40 38	 mov	 eax, DWORD PTR [eax+56]
  00161	ff d0		 call	 eax
  00163	89 45 d4	 mov	 DWORD PTR _orgTextColor$1$[ebp], eax
; File C:\Program Files (x86)\Microsoft Visual Studio\2019\Community\VC\Tools\MSVC\14.29.30133\atlmfc\include\atlsimpstr.h

; 519  : 		return( GetData()->nDataLength );

  00166	8b 45 cc	 mov	 eax, DWORD PTR _strText$GSCopy$1$[ebp]
  00169	8b 08		 mov	 ecx, DWORD PTR [eax]
; File C:\Program Files (x86)\Microsoft Visual Studio\2019\Community\VC\Tools\MSVC\14.29.30133\atlmfc\include\afxwin1.inl

; 639  : 		VERIFY(::GetTextExtentPoint32(m_hAttribDC, str, (int)str.GetLength(), &size));

  0016b	8d 45 ac	 lea	 eax, DWORD PTR _size$2[ebp]
  0016e	50		 push	 eax
  0016f	8b 45 dc	 mov	 eax, DWORD PTR _pDC$GSCopy$1$[ebp]
  00172	ff 71 f4	 push	 DWORD PTR [ecx-12]
  00175	51		 push	 ecx
  00176	ff 70 08	 push	 DWORD PTR [eax+8]
  00179	ff 15 00 00 00
	00		 call	 DWORD PTR __imp__GetTextExtentPoint32A@16
; File C:\Program Files (x86)\Microsoft Visual Studio\2019\Community\VC\Tools\MSVC\14.29.30133\atlmfc\include\atlsimpstr.h

; 519  : 		return( GetData()->nDataLength );

  0017f	8b 4d cc	 mov	 ecx, DWORD PTR _strText$GSCopy$1$[ebp]
; File C:\Program Files (x86)\Microsoft Visual Studio\2019\Community\VC\Tools\MSVC\14.29.30133\atlmfc\include\afxwin1.inl

; 574  : 	{ ASSERT(m_hDC != NULL); return TextOut(x, y, (LPCTSTR)str, (int)str.GetLength()); } // call virtual

  00182	8b 55 dc	 mov	 edx, DWORD PTR _pDC$GSCopy$1$[ebp]
; File C:\Program Files (x86)\Microsoft Visual Studio\2019\Community\VC\Tools\MSVC\14.29.30133\atlmfc\include\atlsimpstr.h

; 519  : 		return( GetData()->nDataLength );

  00185	8b 01		 mov	 eax, DWORD PTR [ecx]
; File C:\Program Files (x86)\Microsoft Visual Studio\2019\Community\VC\Tools\MSVC\14.29.30133\atlmfc\include\afxwin1.inl

; 574  : 	{ ASSERT(m_hDC != NULL); return TextOut(x, y, (LPCTSTR)str, (int)str.GetLength()); } // call virtual

  00187	8b 12		 mov	 edx, DWORD PTR [edx]
  00189	ff 70 f4	 push	 DWORD PTR [eax-12]
  0018c	50		 push	 eax
  0018d	8d 04 3e	 lea	 eax, DWORD PTR [esi+edi]
  00190	8b 75 dc	 mov	 esi, DWORD PTR _pDC$GSCopy$1$[ebp]
  00193	50		 push	 eax
  00194	8b 45 d8	 mov	 eax, DWORD PTR tv520[ebp]
  00197	8b ce		 mov	 ecx, esi
  00199	2b 45 ac	 sub	 eax, DWORD PTR _size$2[ebp]
  0019c	50		 push	 eax
  0019d	ff 52 64	 call	 DWORD PTR [edx+100]
; File D:\git\src\IBK\IBK_DRFN\ProjSrc\SrcChartEx\ChartOCX\GraphDraw\GraphDataDrawer.cpp

; 236  : 	pDC->SetTextColor(orgTextColor);

  001a0	8b 06		 mov	 eax, DWORD PTR [esi]
  001a2	8b ce		 mov	 ecx, esi
  001a4	ff 75 d4	 push	 DWORD PTR _orgTextColor$1$[ebp]
  001a7	ff 50 38	 call	 DWORD PTR [eax+56]

; 835  : 	CRateDrawer::DrawTextOut(pDC, textColor, CPoint(textRegion.right, textRegion.top), strText, nTemp);
; 836  : 	nPrevGap_Y += drawingTextRegion.Height();

  001aa	8b 4d c8	 mov	 ecx, DWORD PTR _nPrevGap_Y$GSCopy$1$[ebp]
  001ad	8b 45 ec	 mov	 eax, DWORD PTR _drawingTextRegion$[ebp+12]
  001b0	2b 45 e4	 sub	 eax, DWORD PTR _drawingTextRegion$[ebp+4]

; 837  : 
; 838  : 	pDC->SetBkMode(nOrgMode);

  001b3	ff 75 b4	 push	 DWORD PTR _nOrgMode$1$[ebp]
  001b6	01 01		 add	 DWORD PTR [ecx], eax
  001b8	8b ce		 mov	 ecx, esi
  001ba	e8 00 00 00 00	 call	 ?SetBkMode@CDC@@QAEHH@Z	; CDC::SetBkMode

; 839  : }

  001bf	8b 4d f4	 mov	 ecx, DWORD PTR __$EHRec$[ebp]
  001c2	64 89 0d 00 00
	00 00		 mov	 DWORD PTR fs:0, ecx
  001c9	59		 pop	 ecx
  001ca	5f		 pop	 edi
  001cb	5e		 pop	 esi
  001cc	8b 4d f0	 mov	 ecx, DWORD PTR __$ArrayPad$[ebp]
  001cf	33 cd		 xor	 ecx, ebp
  001d1	e8 00 00 00 00	 call	 @__security_check_cookie@4
  001d6	8b e5		 mov	 esp, ebp
  001d8	5d		 pop	 ebp
  001d9	c2 18 00	 ret	 24			; 00000018H
_TEXT	ENDS
;	COMDAT text$x
text$x	SEGMENT
__unwindfunclet$?DrawData@CDataInRightScaleRegionDrawer@@AAEXPAVCDC@@ABVCRect@@ABV?$CStringT@DV?$StrTraitMFC_DLL@DV?$ChTraitsCRT@D@ATL@@@@@ATL@@ABK3AAH@Z$0:
  00000	8d 4d b8	 lea	 ecx, DWORD PTR _newBrush$3[ebp]
  00003	e9 00 00 00 00	 jmp	 ??1CBrush@@UAE@XZ	; CBrush::~CBrush
__unwindfunclet$?DrawData@CDataInRightScaleRegionDrawer@@AAEXPAVCDC@@ABVCRect@@ABV?$CStringT@DV?$StrTraitMFC_DLL@DV?$ChTraitsCRT@D@ATL@@@@@ATL@@ABK3AAH@Z$1:
  00008	8d 4d c0	 lea	 ecx, DWORD PTR _newPen$4[ebp]
  0000b	e9 00 00 00 00	 jmp	 ??1CPen@@UAE@XZ		; CPen::~CPen
  00010	cc		 int	 3
  00011	cc		 int	 3
  00012	cc		 int	 3
  00013	cc		 int	 3
  00014	cc		 int	 3
__ehhandler$?DrawData@CDataInRightScaleRegionDrawer@@AAEXPAVCDC@@ABVCRect@@ABV?$CStringT@DV?$StrTraitMFC_DLL@DV?$ChTraitsCRT@D@ATL@@@@@ATL@@ABK3AAH@Z:
  00015	90		 npad	 1
  00016	90		 npad	 1
  00017	8b 54 24 08	 mov	 edx, DWORD PTR [esp+8]
  0001b	8d 42 0c	 lea	 eax, DWORD PTR [edx+12]
  0001e	8b 4a ac	 mov	 ecx, DWORD PTR [edx-84]
  00021	33 c8		 xor	 ecx, eax
  00023	e8 00 00 00 00	 call	 @__security_check_cookie@4
  00028	8b 4a fc	 mov	 ecx, DWORD PTR [edx-4]
  0002b	33 c8		 xor	 ecx, eax
  0002d	e8 00 00 00 00	 call	 @__security_check_cookie@4
  00032	b8 00 00 00 00	 mov	 eax, OFFSET __ehfuncinfo$?DrawData@CDataInRightScaleRegionDrawer@@AAEXPAVCDC@@ABVCRect@@ABV?$CStringT@DV?$StrTraitMFC_DLL@DV?$ChTraitsCRT@D@ATL@@@@@ATL@@ABK3AAH@Z
  00037	e9 00 00 00 00	 jmp	 ___CxxFrameHandler3
text$x	ENDS
?DrawData@CDataInRightScaleRegionDrawer@@AAEXPAVCDC@@ABVCRect@@ABV?$CStringT@DV?$StrTraitMFC_DLL@DV?$ChTraitsCRT@D@ATL@@@@@ATL@@ABK3AAH@Z ENDP ; CDataInRightScaleRegionDrawer::DrawData
; Function compile flags: /Ogtp
; File D:\git\src\IBK\IBK_DRFN\ProjSrc\SrcChartEx\ChartOCX\GraphDraw\GraphDataDrawer.cpp
; File D:\git\src\IBK\IBK_DRFN\ProjSrc\SrcChartEx\ChartOCX\Include_Chart\BaseData.h
; File D:\git\src\IBK\IBK_DRFN\ProjSrc\SrcChartEx\ChartOCX\GraphDraw\GraphDataDrawer.cpp
; File C:\Program Files (x86)\Microsoft Visual Studio\2019\Community\VC\Tools\MSVC\14.29.30133\atlmfc\include\atltypes.h
; File D:\git\src\IBK\IBK_DRFN\ProjSrc\SrcChartEx\ChartOCX\GraphDraw\GraphDataDrawer.cpp
; File C:\Program Files (x86)\Microsoft Visual Studio\2019\Community\VC\Tools\MSVC\14.29.30133\atlmfc\include\atlsimpstr.h
; File D:\git\src\IBK\IBK_DRFN\ProjSrc\SrcChartEx\ChartOCX\GraphDraw\GraphDataDrawer.cpp
; File C:\Program Files (x86)\Microsoft Visual Studio\2019\Community\VC\Tools\MSVC\14.29.30133\atlmfc\include\atltypes.h
; File D:\git\src\IBK\IBK_DRFN\ProjSrc\SrcChartEx\ChartOCX\GraphDraw\GraphDataDrawer.cpp
; File C:\Program Files (x86)\Microsoft Visual Studio\2019\Community\VC\Tools\MSVC\14.29.30133\atlmfc\include\atlsimpstr.h
; File D:\git\src\IBK\IBK_DRFN\ProjSrc\SrcChartEx\ChartOCX\GraphDraw\GraphDataDrawer.cpp
;	COMDAT ?DrawData@CDataInRightScaleRegionDrawer@@AAEXPAVCDC@@ABVCRect@@ABVCDrawingGraphData@@ABVCGraphColor@@ABVCPrices@@AAV?$CStringT@DV?$StrTraitMFC_DLL@DV?$ChTraitsCRT@D@ATL@@@@@ATL@@AAV3@@Z
_TEXT	SEGMENT
_strCurPrice$ = -100					; size = 4
_strDiffPrice$ = -96					; size = 4
_strPipPrice$ = -92					; size = 4
_rcScaleText$GSCopy$1$ = -88				; size = 4
_strRiseFallRate$ = -84					; size = 4
_this$GSCopy$1$ = -80					; size = 4
_drawingGraphData$GSCopy$1$ = -76			; size = 4
_nPrevGap_Y$ = -76					; size = 4
_prices$GSCopy$1$ = -72					; size = 4
_dataColor1$ = -72					; size = 4
_graphColor$GSCopy$1$ = -68				; size = 4
_dataColor2$ = -68					; size = 4
$T4 = -64						; size = 16
$T5 = -60						; size = 12
_textRegion$ = -48					; size = 16
_rcTemp$ = -32						; size = 16
__$ArrayPad$ = -16					; size = 4
__$EHRec$ = -12						; size = 12
_pDC$ = 8						; size = 4
_region$ = 12						; size = 4
_drawingGraphData$ = 16					; size = 4
_graphColor$ = 20					; size = 4
_prices$ = 24						; size = 4
_p_strPacketType$ = 28					; size = 4
_rcScaleText$ = 32					; size = 4
?DrawData@CDataInRightScaleRegionDrawer@@AAEXPAVCDC@@ABVCRect@@ABVCDrawingGraphData@@ABVCGraphColor@@ABVCPrices@@AAV?$CStringT@DV?$StrTraitMFC_DLL@DV?$ChTraitsCRT@D@ATL@@@@@ATL@@AAV3@@Z PROC ; CDataInRightScaleRegionDrawer::DrawData, COMDAT
; _this$ = ecx

; 766  : {

  00000	55		 push	 ebp
  00001	8b ec		 mov	 ebp, esp
  00003	6a ff		 push	 -1
  00005	68 00 00 00 00	 push	 __ehhandler$?DrawData@CDataInRightScaleRegionDrawer@@AAEXPAVCDC@@ABVCRect@@ABVCDrawingGraphData@@ABVCGraphColor@@ABVCPrices@@AAV?$CStringT@DV?$StrTraitMFC_DLL@DV?$ChTraitsCRT@D@ATL@@@@@ATL@@AAV3@@Z
  0000a	64 a1 00 00 00
	00		 mov	 eax, DWORD PTR fs:0
  00010	50		 push	 eax
  00011	83 ec 58	 sub	 esp, 88			; 00000058H
  00014	a1 00 00 00 00	 mov	 eax, DWORD PTR ___security_cookie
  00019	33 c5		 xor	 eax, ebp
  0001b	89 45 f0	 mov	 DWORD PTR __$ArrayPad$[ebp], eax
  0001e	56		 push	 esi
  0001f	57		 push	 edi
  00020	50		 push	 eax
  00021	8d 45 f4	 lea	 eax, DWORD PTR __$EHRec$[ebp]
  00024	64 a3 00 00 00
	00		 mov	 DWORD PTR fs:0, eax
  0002a	89 4d b0	 mov	 DWORD PTR _this$GSCopy$1$[ebp], ecx
  0002d	8b 45 14	 mov	 eax, DWORD PTR _graphColor$[ebp]

; 767  : 	// vntsorl_20110609:[A00000259]     
; 768  : 	CString strCurPrice, strDiffPrice, strPipPrice, strRiseFallRate;

  00030	8d 4d 9c	 lea	 ecx, DWORD PTR _strCurPrice$[ebp]
  00033	8b 75 10	 mov	 esi, DWORD PTR _drawingGraphData$[ebp]
  00036	8b 7d 08	 mov	 edi, DWORD PTR _pDC$[ebp]
  00039	89 45 bc	 mov	 DWORD PTR _graphColor$GSCopy$1$[ebp], eax
  0003c	8b 45 18	 mov	 eax, DWORD PTR _prices$[ebp]
  0003f	89 45 b8	 mov	 DWORD PTR _prices$GSCopy$1$[ebp], eax
  00042	8b 45 20	 mov	 eax, DWORD PTR _rcScaleText$[ebp]
  00045	89 75 b4	 mov	 DWORD PTR _drawingGraphData$GSCopy$1$[ebp], esi
  00048	89 45 a8	 mov	 DWORD PTR _rcScaleText$GSCopy$1$[ebp], eax
  0004b	ff 15 00 00 00
	00		 call	 DWORD PTR __imp_??0?$CStringT@DV?$StrTraitMFC_DLL@DV?$ChTraitsCRT@D@ATL@@@@@ATL@@QAE@XZ
  00051	8d 4d a0	 lea	 ecx, DWORD PTR _strDiffPrice$[ebp]
  00054	c7 45 fc 00 00
	00 00		 mov	 DWORD PTR __$EHRec$[ebp+8], 0
  0005b	ff 15 00 00 00
	00		 call	 DWORD PTR __imp_??0?$CStringT@DV?$StrTraitMFC_DLL@DV?$ChTraitsCRT@D@ATL@@@@@ATL@@QAE@XZ
  00061	8d 4d a4	 lea	 ecx, DWORD PTR _strPipPrice$[ebp]
  00064	ff 15 00 00 00
	00		 call	 DWORD PTR __imp_??0?$CStringT@DV?$StrTraitMFC_DLL@DV?$ChTraitsCRT@D@ATL@@@@@ATL@@QAE@XZ
  0006a	8d 4d ac	 lea	 ecx, DWORD PTR _strRiseFallRate$[ebp]
  0006d	ff 15 00 00 00
	00		 call	 DWORD PTR __imp_??0?$CStringT@DV?$StrTraitMFC_DLL@DV?$ChTraitsCRT@D@ATL@@@@@ATL@@QAE@XZ

; 769  : 
; 770  : 	int nCurDataType = drawingGraphData.GetGraphDataDrawingData().GetCalcRiseFallRate_CurData();

  00073	8d 45 c4	 lea	 eax, DWORD PTR $T5[ebp]
  00076	c6 45 fc 03	 mov	 BYTE PTR __$EHRec$[ebp+8], 3
  0007a	50		 push	 eax
  0007b	8b ce		 mov	 ecx, esi
  0007d	e8 00 00 00 00	 call	 ?GetGraphDataDrawingData@CDrawingGraphData@@QBE?AVCGraphDataDrawingData@@XZ ; CDrawingGraphData::GetGraphDataDrawingData
  00082	8b c8		 mov	 ecx, eax
  00084	ff 15 00 00 00
	00		 call	 DWORD PTR __imp_?GetCalcRiseFallRate_CurData@CGraphDataDrawingData@@QBEHXZ
  0008a	8b f0		 mov	 esi, eax

; 771  : 	if(nCurDataType <= 0)

  0008c	85 f6		 test	 esi, esi
  0008e	0f 8e 39 02 00
	00		 jle	 $LN23@DrawData

; 772  : 		return;
; 773  : 
; 774  : 	if(!GetText(rcScaleText, prices, nCurDataType, strCurPrice, strDiffPrice, strPipPrice, strRiseFallRate))

  00094	8b 4d b0	 mov	 ecx, DWORD PTR _this$GSCopy$1$[ebp]
  00097	8d 45 ac	 lea	 eax, DWORD PTR _strRiseFallRate$[ebp]
  0009a	50		 push	 eax
  0009b	8d 45 a4	 lea	 eax, DWORD PTR _strPipPrice$[ebp]
  0009e	50		 push	 eax
  0009f	8d 45 a0	 lea	 eax, DWORD PTR _strDiffPrice$[ebp]
  000a2	50		 push	 eax
  000a3	8d 45 9c	 lea	 eax, DWORD PTR _strCurPrice$[ebp]
  000a6	50		 push	 eax
  000a7	56		 push	 esi
  000a8	ff 75 b8	 push	 DWORD PTR _prices$GSCopy$1$[ebp]
  000ab	ff 75 a8	 push	 DWORD PTR _rcScaleText$GSCopy$1$[ebp]
  000ae	e8 00 00 00 00	 call	 ?GetText@CDataInRightScaleRegionDrawer@@ABE_NABVCRect@@ABVCPrices@@HAAV?$CStringT@DV?$StrTraitMFC_DLL@DV?$ChTraitsCRT@D@ATL@@@@@ATL@@222@Z ; CDataInRightScaleRegionDrawer::GetText
  000b3	84 c0		 test	 al, al
  000b5	0f 84 12 02 00
	00		 je	 $LN23@DrawData

; 972  : 	CRect gripRegion = rcScaleText;

  000bb	8b 45 a8	 mov	 eax, DWORD PTR _rcScaleText$GSCopy$1$[ebp]

; 973  : 	CRect noFrameRegion = drawingGraphData.GetGraphRegions().GetNoFrameRegion();

  000be	8b 4d b4	 mov	 ecx, DWORD PTR _drawingGraphData$GSCopy$1$[ebp]
  000c1	0f 10 00	 movups	 xmm0, XMMWORD PTR [eax]
  000c4	0f 11 45 c0	 movups	 XMMWORD PTR $T4[ebp], xmm0
  000c8	e8 00 00 00 00	 call	 ?GetGraphRegions@CDrawingGraphData@@QBEABVCGraphRegions@@XZ ; CDrawingGraphData::GetGraphRegions
; File D:\git\src\IBK\IBK_DRFN\ProjSrc\SrcChartEx\ChartOCX\Include_Chart\BaseData.h

; 93   : 	CRect	GetNoFrameRegion() const			{	return m_rctNoFrameRegion;	}

  000cd	0f 10 48 14	 movups	 xmm1, XMMWORD PTR [eax+20]
; File D:\git\src\IBK\IBK_DRFN\ProjSrc\SrcChartEx\ChartOCX\GraphDraw\GraphDataDrawer.cpp

; 976  : 	gripRegion.right += 1;

  000d1	ff 45 c8	 inc	 DWORD PTR $T4[ebp+8]

; 775  : 		return;
; 776  : 
; 777  : 	// Y Scale    - ojtaso (20070807)
; 778  : 	CDataConversion::SelectClipRegion(pDC, GetGripRegion(drawingGraphData, rcScaleText));

  000d4	8d 45 c0	 lea	 eax, DWORD PTR $T4[ebp]
  000d7	50		 push	 eax

; 974  : 	gripRegion.top = noFrameRegion.top;

  000d8	0f 28 c1	 movaps	 xmm0, xmm1

; 975  : 	gripRegion.bottom = noFrameRegion.bottom;

  000db	66 0f 73 d9 0c	 psrldq	 xmm1, 12		; 0000000cH
  000e0	66 0f 73 d8 04	 psrldq	 xmm0, 4

; 775  : 		return;
; 776  : 
; 777  : 	// Y Scale    - ojtaso (20070807)
; 778  : 	CDataConversion::SelectClipRegion(pDC, GetGripRegion(drawingGraphData, rcScaleText));

  000e5	57		 push	 edi

; 974  : 	gripRegion.top = noFrameRegion.top;

  000e6	66 0f 7e 45 c4	 movd	 DWORD PTR $T4[ebp+4], xmm0

; 975  : 	gripRegion.bottom = noFrameRegion.bottom;

  000eb	66 0f 7e 4d cc	 movd	 DWORD PTR $T4[ebp+12], xmm1

; 775  : 		return;
; 776  : 
; 777  : 	// Y Scale    - ojtaso (20070807)
; 778  : 	CDataConversion::SelectClipRegion(pDC, GetGripRegion(drawingGraphData, rcScaleText));

  000f0	e8 00 00 00 00	 call	 ?SelectClipRegion@CDataConversion@@SAXPAVCDC@@ABVCRect@@@Z ; CDataConversion::SelectClipRegion
  000f5	83 c4 08	 add	 esp, 8

; 779  : 
; 780  : 	// Y Scale    - ojtaso (20070807)
; 781  : // vntsorl_20110609:[A00000259]     
; 782  : 	CRect textRegion = GetTextRegion(pDC, drawingGraphData, prices, strCurPrice, strDiffPrice, strPipPrice, strRiseFallRate, rcScaleText);

  000f8	8b 4d b0	 mov	 ecx, DWORD PTR _this$GSCopy$1$[ebp]
  000fb	8d 45 ac	 lea	 eax, DWORD PTR _strRiseFallRate$[ebp]
  000fe	ff 75 a8	 push	 DWORD PTR _rcScaleText$GSCopy$1$[ebp]
  00101	50		 push	 eax
  00102	8d 45 a4	 lea	 eax, DWORD PTR _strPipPrice$[ebp]
  00105	50		 push	 eax
  00106	8d 45 a0	 lea	 eax, DWORD PTR _strDiffPrice$[ebp]
  00109	50		 push	 eax
  0010a	8d 45 9c	 lea	 eax, DWORD PTR _strCurPrice$[ebp]
  0010d	50		 push	 eax
  0010e	ff 75 b8	 push	 DWORD PTR _prices$GSCopy$1$[ebp]
  00111	8d 45 d0	 lea	 eax, DWORD PTR _textRegion$[ebp]
  00114	ff 75 b4	 push	 DWORD PTR _drawingGraphData$GSCopy$1$[ebp]
  00117	57		 push	 edi
  00118	50		 push	 eax
  00119	e8 00 00 00 00	 call	 ?GetTextRegion@CDataInRightScaleRegionDrawer@@ABE?AVCRect@@PAVCDC@@ABVCDrawingGraphData@@ABVCPrices@@ABV?$CStringT@DV?$StrTraitMFC_DLL@DV?$ChTraitsCRT@D@ATL@@@@@ATL@@333ABV2@@Z ; CDataInRightScaleRegionDrawer::GetTextRegion

; 139  : 	return (m_dCurPrice > m_dPrevPrice);

  0011e	8b 45 b8	 mov	 eax, DWORD PTR _prices$GSCopy$1$[ebp]

; 1052 : 	if(prices.IsRose())

  00121	8b 4d bc	 mov	 ecx, DWORD PTR _graphColor$GSCopy$1$[ebp]

; 139  : 	return (m_dCurPrice > m_dPrevPrice);

  00124	f2 0f 10 40 08	 movsd	 xmm0, QWORD PTR [eax+8]
  00129	f2 0f 10 08	 movsd	 xmm1, QWORD PTR [eax]
  0012d	66 0f 2f c1	 comisd	 xmm0, xmm1

; 1052 : 	if(prices.IsRose())

  00131	76 08		 jbe	 SHORT $LN29@DrawData

; 1053 : 		return graphColor.GetColor1();

  00133	ff 15 00 00 00
	00		 call	 DWORD PTR __imp_?GetColor1@CGraphColor@@QBEKXZ
  00139	eb 14		 jmp	 SHORT $LN73@DrawData
$LN29@DrawData:

; 144  : 	return (m_dCurPrice < m_dPrevPrice);

  0013b	66 0f 2f c8	 comisd	 xmm1, xmm0

; 1055 : 	else if(prices.IsFall())

  0013f	76 08		 jbe	 SHORT $LN31@DrawData

; 1056 : 		return graphColor.GetColor3();

  00141	ff 15 00 00 00
	00		 call	 DWORD PTR __imp_?GetColor3@CGraphColor@@QBEKXZ
  00147	eb 06		 jmp	 SHORT $LN73@DrawData
$LN31@DrawData:

; 1057 : 	// 
; 1058 : 	return graphColor.GetColor5();

  00149	ff 15 00 00 00
	00		 call	 DWORD PTR __imp_?GetColor5@CGraphColor@@QBEKXZ
$LN73@DrawData:

; 783  : 	COLORREF dataColor1 = GetCurrentPriceTextColor(graphColor, prices);

  0014f	8b c8		 mov	 ecx, eax
  00151	89 4d b8	 mov	 DWORD PTR _dataColor1$[ebp], ecx

; 1068 : 	if(nRed > 200 && nRGreen > 200 && nBlue > 200)

  00154	80 f9 c8	 cmp	 cl, 200			; 000000c8H
  00157	76 13		 jbe	 SHORT $LN38@DrawData
  00159	c1 e8 08	 shr	 eax, 8
  0015c	3c c8		 cmp	 al, 200			; 000000c8H
  0015e	76 0c		 jbe	 SHORT $LN38@DrawData
  00160	c1 e9 10	 shr	 ecx, 16			; 00000010H
  00163	80 f9 c8	 cmp	 cl, 200			; 000000c8H
  00166	76 04		 jbe	 SHORT $LN38@DrawData

; 1069 : 		return RGB(0, 0, 0);

  00168	33 c0		 xor	 eax, eax
  0016a	eb 05		 jmp	 SHORT $LN37@DrawData
$LN38@DrawData:

; 1070 : 
; 1071 : 	return RGB(255, 255, 255);

  0016c	b8 ff ff ff 00	 mov	 eax, 16777215		; 00ffffffH
$LN37@DrawData:

; 1008 : 	CRect drawingRegion = textRegion;

  00171	0f 10 45 d0	 movups	 xmm0, XMMWORD PTR _textRegion$[ebp]

; 784  : 	COLORREF dataColor2 = GetTextColor(dataColor1);
; 785  : 	int nPrevGap_Y = 0;

  00175	89 45 bc	 mov	 DWORD PTR _dataColor2$[ebp], eax
  00178	c7 45 b4 00 00
	00 00		 mov	 DWORD PTR _nPrevGap_Y$[ebp], 0

; 1008 : 	CRect drawingRegion = textRegion;

  0017f	0f 11 45 e0	 movups	 XMMWORD PTR _rcTemp$[ebp], xmm0
; File C:\Program Files (x86)\Microsoft Visual Studio\2019\Community\VC\Tools\MSVC\14.29.30133\atlmfc\include\atltypes.h

; 914  : 	right += r;

  00183	8b 45 e8	 mov	 eax, DWORD PTR _rcTemp$[ebp+8]
  00186	8b 4d e4	 mov	 ecx, DWORD PTR _rcTemp$[ebp+4]
  00189	40		 inc	 eax
  0018a	66 0f 7e c2	 movd	 edx, xmm0
  0018e	83 c1 fe	 add	 ecx, -2			; fffffffeH
  00191	89 4d e4	 mov	 DWORD PTR _rcTemp$[ebp+4], ecx
  00194	89 45 e8	 mov	 DWORD PTR _rcTemp$[ebp+8], eax
  00197	4a		 dec	 edx
  00198	89 55 e0	 mov	 DWORD PTR _rcTemp$[ebp], edx
  0019b	3b d0		 cmp	 edx, eax

; 884  : 	if (left > right)

  0019d	7e 06		 jle	 SHORT $LN45@DrawData

; 885  : 	{
; 886  : 		nTemp = left;
; 887  : 		left = right;

  0019f	89 45 e0	 mov	 DWORD PTR _rcTemp$[ebp], eax

; 888  : 		right = nTemp;

  001a2	89 55 e8	 mov	 DWORD PTR _rcTemp$[ebp+8], edx
$LN45@DrawData:

; 889  : 	}
; 890  : 	if (top > bottom)

  001a5	8b 45 ec	 mov	 eax, DWORD PTR _rcTemp$[ebp+12]
  001a8	3b c8		 cmp	 ecx, eax
  001aa	7e 06		 jle	 SHORT $LN46@DrawData

; 891  : 	{
; 892  : 		nTemp = top;
; 893  : 		top = bottom;

  001ac	89 45 e4	 mov	 DWORD PTR _rcTemp$[ebp+4], eax

; 894  : 		bottom = nTemp;

  001af	89 4d ec	 mov	 DWORD PTR _rcTemp$[ebp+12], ecx
$LN46@DrawData:

; 710  : 	::OffsetRect(this, x, y);

  001b2	6a 00		 push	 0
  001b4	6a 00		 push	 0
  001b6	8d 45 e0	 lea	 eax, DWORD PTR _rcTemp$[ebp]
  001b9	50		 push	 eax
  001ba	ff 15 00 00 00
	00		 call	 DWORD PTR __imp__OffsetRect@12
; File D:\git\src\IBK\IBK_DRFN\ProjSrc\SrcChartEx\ChartOCX\GraphDraw\GraphDataDrawer.cpp

; 796  : 	int nCheckBottom = textRegion.bottom + rcTemp.Height();

  001c0	8b 55 ec	 mov	 edx, DWORD PTR _rcTemp$[ebp+12]
  001c3	2b 55 e4	 sub	 edx, DWORD PTR _rcTemp$[ebp+4]
  001c6	8b 4d dc	 mov	 ecx, DWORD PTR _textRegion$[ebp+12]
  001c9	03 ca		 add	 ecx, edx

; 797  : 	if ( 5 == nCurDataType || 6 == nCurDataType)

  001cb	83 fe 05	 cmp	 esi, 5
  001ce	74 05		 je	 SHORT $LN5@DrawData
  001d0	83 fe 06	 cmp	 esi, 6
  001d3	75 02		 jne	 SHORT $LN4@DrawData
$LN5@DrawData:

; 798  : 		nCheckBottom += rcTemp.Height();

  001d5	03 ca		 add	 ecx, edx
$LN4@DrawData:

; 799  : 	if ( 1 == nCurDataType || 2 == nCurDataType || 5 == nCurDataType || 6 == nCurDataType)

  001d7	83 fe 01	 cmp	 esi, 1
  001da	74 0f		 je	 SHORT $LN7@DrawData
  001dc	83 fe 02	 cmp	 esi, 2
  001df	74 0a		 je	 SHORT $LN7@DrawData
  001e1	83 fe 05	 cmp	 esi, 5
  001e4	74 05		 je	 SHORT $LN7@DrawData
  001e6	83 fe 06	 cmp	 esi, 6
  001e9	75 11		 jne	 SHORT $LN8@DrawData
$LN7@DrawData:
; File C:\Program Files (x86)\Microsoft Visual Studio\2019\Community\VC\Tools\MSVC\14.29.30133\atlmfc\include\atlsimpstr.h

; 533  : 		return( GetLength() == 0 );

  001eb	8b 45 ac	 mov	 eax, DWORD PTR _strRiseFallRate$[ebp]
  001ee	83 78 f4 00	 cmp	 DWORD PTR [eax-12], 0
; File D:\git\src\IBK\IBK_DRFN\ProjSrc\SrcChartEx\ChartOCX\GraphDraw\GraphDataDrawer.cpp

; 800  : 		if ( strRiseFallRate.IsEmpty())

  001f2	75 08		 jne	 SHORT $LN8@DrawData

; 801  : 			nCheckBottom -= rcTemp.Height();

  001f4	8b 45 e4	 mov	 eax, DWORD PTR _rcTemp$[ebp+4]
  001f7	2b 45 ec	 sub	 eax, DWORD PTR _rcTemp$[ebp+12]
  001fa	03 c8		 add	 ecx, eax
$LN8@DrawData:

; 802  : 
; 803  : 	if (rcScaleText.bottom < nCheckBottom)

  001fc	8b 45 a8	 mov	 eax, DWORD PTR _rcScaleText$GSCopy$1$[ebp]
  001ff	8b 40 0c	 mov	 eax, DWORD PTR [eax+12]
  00202	3b c1		 cmp	 eax, ecx
  00204	7d 0f		 jge	 SHORT $LN9@DrawData
; File C:\Program Files (x86)\Microsoft Visual Studio\2019\Community\VC\Tools\MSVC\14.29.30133\atlmfc\include\atltypes.h

; 795  : 	::OffsetRect(this, -point.x, -point.y);

  00206	2b c1		 sub	 eax, ecx
  00208	50		 push	 eax
  00209	6a 00		 push	 0
  0020b	8d 45 d0	 lea	 eax, DWORD PTR _textRegion$[ebp]
  0020e	50		 push	 eax
  0020f	ff 15 00 00 00
	00		 call	 DWORD PTR __imp__OffsetRect@12
$LN9@DrawData:
; File D:\git\src\IBK\IBK_DRFN\ProjSrc\SrcChartEx\ChartOCX\GraphDraw\GraphDataDrawer.cpp

; 811  : 	DrawData( pDC, textRegion, strCurPrice, dataColor1, dataColor2, nPrevGap_Y);

  00215	8b 4d b0	 mov	 ecx, DWORD PTR _this$GSCopy$1$[ebp]
  00218	8d 45 b4	 lea	 eax, DWORD PTR _nPrevGap_Y$[ebp]
  0021b	50		 push	 eax
  0021c	8d 45 bc	 lea	 eax, DWORD PTR _dataColor2$[ebp]
  0021f	50		 push	 eax
  00220	8d 45 b8	 lea	 eax, DWORD PTR _dataColor1$[ebp]
  00223	50		 push	 eax
  00224	8d 45 9c	 lea	 eax, DWORD PTR _strCurPrice$[ebp]
  00227	50		 push	 eax
  00228	8d 45 d0	 lea	 eax, DWORD PTR _textRegion$[ebp]
  0022b	50		 push	 eax
  0022c	57		 push	 edi
  0022d	e8 00 00 00 00	 call	 ?DrawData@CDataInRightScaleRegionDrawer@@AAEXPAVCDC@@ABVCRect@@ABV?$CStringT@DV?$StrTraitMFC_DLL@DV?$ChTraitsCRT@D@ATL@@@@@ATL@@ABK3AAH@Z ; CDataInRightScaleRegionDrawer::DrawData

; 812  : 	// nCurDataType : 5, 6, 9, 10
; 813  : 	if( 5 == nCurDataType || 6 == nCurDataType || 9 == nCurDataType || 10 == nCurDataType)

  00232	83 fe 05	 cmp	 esi, 5
  00235	74 0f		 je	 SHORT $LN11@DrawData
  00237	83 fe 06	 cmp	 esi, 6
  0023a	74 0a		 je	 SHORT $LN11@DrawData
  0023c	83 fe 09	 cmp	 esi, 9
  0023f	74 05		 je	 SHORT $LN11@DrawData
  00241	83 fe 0a	 cmp	 esi, 10			; 0000000aH
  00244	75 1d		 jne	 SHORT $LN10@DrawData
$LN11@DrawData:

; 814  : 		DrawData( pDC, textRegion, strDiffPrice, dataColor1, dataColor2, nPrevGap_Y);

  00246	8b 4d b0	 mov	 ecx, DWORD PTR _this$GSCopy$1$[ebp]
  00249	8d 45 b4	 lea	 eax, DWORD PTR _nPrevGap_Y$[ebp]
  0024c	50		 push	 eax
  0024d	8d 45 bc	 lea	 eax, DWORD PTR _dataColor2$[ebp]
  00250	50		 push	 eax
  00251	8d 45 b8	 lea	 eax, DWORD PTR _dataColor1$[ebp]
  00254	50		 push	 eax
  00255	8d 45 a0	 lea	 eax, DWORD PTR _strDiffPrice$[ebp]
  00258	50		 push	 eax
  00259	8d 45 d0	 lea	 eax, DWORD PTR _textRegion$[ebp]
  0025c	50		 push	 eax
  0025d	57		 push	 edi
  0025e	e8 00 00 00 00	 call	 ?DrawData@CDataInRightScaleRegionDrawer@@AAEXPAVCDC@@ABVCRect@@ABV?$CStringT@DV?$StrTraitMFC_DLL@DV?$ChTraitsCRT@D@ATL@@@@@ATL@@ABK3AAH@Z ; CDataInRightScaleRegionDrawer::DrawData
$LN10@DrawData:

; 815  : 	// nCurDataType : 7, 8
; 816  : 	if( 7 == nCurDataType || 8 == nCurDataType)

  00263	83 fe 07	 cmp	 esi, 7
  00266	74 05		 je	 SHORT $LN13@DrawData
  00268	83 fe 08	 cmp	 esi, 8
  0026b	75 1d		 jne	 SHORT $LN12@DrawData
$LN13@DrawData:

; 817  : 		DrawData( pDC, textRegion, strPipPrice, dataColor1, dataColor2, nPrevGap_Y);

  0026d	8b 4d b0	 mov	 ecx, DWORD PTR _this$GSCopy$1$[ebp]
  00270	8d 45 b4	 lea	 eax, DWORD PTR _nPrevGap_Y$[ebp]
  00273	50		 push	 eax
  00274	8d 45 bc	 lea	 eax, DWORD PTR _dataColor2$[ebp]
  00277	50		 push	 eax
  00278	8d 45 b8	 lea	 eax, DWORD PTR _dataColor1$[ebp]
  0027b	50		 push	 eax
  0027c	8d 45 a4	 lea	 eax, DWORD PTR _strPipPrice$[ebp]
  0027f	50		 push	 eax
  00280	8d 45 d0	 lea	 eax, DWORD PTR _textRegion$[ebp]
  00283	50		 push	 eax
  00284	57		 push	 edi
  00285	e8 00 00 00 00	 call	 ?DrawData@CDataInRightScaleRegionDrawer@@AAEXPAVCDC@@ABVCRect@@ABV?$CStringT@DV?$StrTraitMFC_DLL@DV?$ChTraitsCRT@D@ATL@@@@@ATL@@ABK3AAH@Z ; CDataInRightScaleRegionDrawer::DrawData
$LN12@DrawData:

; 818  : 	// nCurDataType : 1, 2, 5, 6
; 819  : 	if( 1 == nCurDataType || 2 == nCurDataType || 5 == nCurDataType || 6 == nCurDataType)

  0028a	83 fe 01	 cmp	 esi, 1
  0028d	74 0f		 je	 SHORT $LN15@DrawData
  0028f	83 fe 02	 cmp	 esi, 2
  00292	74 0a		 je	 SHORT $LN15@DrawData
  00294	83 fe 05	 cmp	 esi, 5
  00297	74 05		 je	 SHORT $LN15@DrawData
  00299	83 fe 06	 cmp	 esi, 6
  0029c	75 26		 jne	 SHORT $LN16@DrawData
$LN15@DrawData:
; File C:\Program Files (x86)\Microsoft Visual Studio\2019\Community\VC\Tools\MSVC\14.29.30133\atlmfc\include\atlsimpstr.h

; 533  : 		return( GetLength() == 0 );

  0029e	8b 45 ac	 mov	 eax, DWORD PTR _strRiseFallRate$[ebp]
  002a1	83 78 f4 00	 cmp	 DWORD PTR [eax-12], 0
; File D:\git\src\IBK\IBK_DRFN\ProjSrc\SrcChartEx\ChartOCX\GraphDraw\GraphDataDrawer.cpp

; 820  : 		if( !strRiseFallRate.IsEmpty())

  002a5	74 1d		 je	 SHORT $LN16@DrawData

; 821  : 			DrawData(pDC, textRegion, strRiseFallRate, dataColor1, dataColor2, nPrevGap_Y);

  002a7	8b 4d b0	 mov	 ecx, DWORD PTR _this$GSCopy$1$[ebp]
  002aa	8d 45 b4	 lea	 eax, DWORD PTR _nPrevGap_Y$[ebp]
  002ad	50		 push	 eax
  002ae	8d 45 bc	 lea	 eax, DWORD PTR _dataColor2$[ebp]
  002b1	50		 push	 eax
  002b2	8d 45 b8	 lea	 eax, DWORD PTR _dataColor1$[ebp]
  002b5	50		 push	 eax
  002b6	8d 45 ac	 lea	 eax, DWORD PTR _strRiseFallRate$[ebp]
  002b9	50		 push	 eax
  002ba	8d 45 d0	 lea	 eax, DWORD PTR _textRegion$[ebp]
  002bd	50		 push	 eax
  002be	57		 push	 edi
  002bf	e8 00 00 00 00	 call	 ?DrawData@CDataInRightScaleRegionDrawer@@AAEXPAVCDC@@ABVCRect@@ABV?$CStringT@DV?$StrTraitMFC_DLL@DV?$ChTraitsCRT@D@ATL@@@@@ATL@@ABK3AAH@Z ; CDataInRightScaleRegionDrawer::DrawData
$LN16@DrawData:

; 822  : 
; 823  : 	CDataConversion::SelectClipRegion(pDC);

  002c4	57		 push	 edi
  002c5	e8 00 00 00 00	 call	 ?SelectClipRegion@CDataConversion@@SAXPAVCDC@@@Z ; CDataConversion::SelectClipRegion
  002ca	83 c4 04	 add	 esp, 4
$LN23@DrawData:

; 824  : }

  002cd	8d 4d ac	 lea	 ecx, DWORD PTR _strRiseFallRate$[ebp]
  002d0	ff 15 00 00 00
	00		 call	 DWORD PTR __imp_??1?$CStringT@DV?$StrTraitMFC_DLL@DV?$ChTraitsCRT@D@ATL@@@@@ATL@@QAE@XZ
  002d6	8d 4d a4	 lea	 ecx, DWORD PTR _strPipPrice$[ebp]
  002d9	ff 15 00 00 00
	00		 call	 DWORD PTR __imp_??1?$CStringT@DV?$StrTraitMFC_DLL@DV?$ChTraitsCRT@D@ATL@@@@@ATL@@QAE@XZ
  002df	8d 4d a0	 lea	 ecx, DWORD PTR _strDiffPrice$[ebp]
  002e2	ff 15 00 00 00
	00		 call	 DWORD PTR __imp_??1?$CStringT@DV?$StrTraitMFC_DLL@DV?$ChTraitsCRT@D@ATL@@@@@ATL@@QAE@XZ
  002e8	8d 4d 9c	 lea	 ecx, DWORD PTR _strCurPrice$[ebp]
  002eb	ff 15 00 00 00
	00		 call	 DWORD PTR __imp_??1?$CStringT@DV?$StrTraitMFC_DLL@DV?$ChTraitsCRT@D@ATL@@@@@ATL@@QAE@XZ
  002f1	8b 4d f4	 mov	 ecx, DWORD PTR __$EHRec$[ebp]
  002f4	64 89 0d 00 00
	00 00		 mov	 DWORD PTR fs:0, ecx
  002fb	59		 pop	 ecx
  002fc	5f		 pop	 edi
  002fd	5e		 pop	 esi
  002fe	8b 4d f0	 mov	 ecx, DWORD PTR __$ArrayPad$[ebp]
  00301	33 cd		 xor	 ecx, ebp
  00303	e8 00 00 00 00	 call	 @__security_check_cookie@4
  00308	8b e5		 mov	 esp, ebp
  0030a	5d		 pop	 ebp
  0030b	c2 1c 00	 ret	 28			; 0000001cH
_TEXT	ENDS
;	COMDAT text$x
text$x	SEGMENT
__unwindfunclet$?DrawData@CDataInRightScaleRegionDrawer@@AAEXPAVCDC@@ABVCRect@@ABVCDrawingGraphData@@ABVCGraphColor@@ABVCPrices@@AAV?$CStringT@DV?$StrTraitMFC_DLL@DV?$ChTraitsCRT@D@ATL@@@@@ATL@@AAV3@@Z$0:
  00000	8d 4d 9c	 lea	 ecx, DWORD PTR _strCurPrice$[ebp]
  00003	ff 25 00 00 00
	00		 jmp	 DWORD PTR __imp_??1?$CStringT@DV?$StrTraitMFC_DLL@DV?$ChTraitsCRT@D@ATL@@@@@ATL@@QAE@XZ
__unwindfunclet$?DrawData@CDataInRightScaleRegionDrawer@@AAEXPAVCDC@@ABVCRect@@ABVCDrawingGraphData@@ABVCGraphColor@@ABVCPrices@@AAV?$CStringT@DV?$StrTraitMFC_DLL@DV?$ChTraitsCRT@D@ATL@@@@@ATL@@AAV3@@Z$1:
  00009	8d 4d a0	 lea	 ecx, DWORD PTR _strDiffPrice$[ebp]
  0000c	ff 25 00 00 00
	00		 jmp	 DWORD PTR __imp_??1?$CStringT@DV?$StrTraitMFC_DLL@DV?$ChTraitsCRT@D@ATL@@@@@ATL@@QAE@XZ
__unwindfunclet$?DrawData@CDataInRightScaleRegionDrawer@@AAEXPAVCDC@@ABVCRect@@ABVCDrawingGraphData@@ABVCGraphColor@@ABVCPrices@@AAV?$CStringT@DV?$StrTraitMFC_DLL@DV?$ChTraitsCRT@D@ATL@@@@@ATL@@AAV3@@Z$2:
  00012	8d 4d a4	 lea	 ecx, DWORD PTR _strPipPrice$[ebp]
  00015	ff 25 00 00 00
	00		 jmp	 DWORD PTR __imp_??1?$CStringT@DV?$StrTraitMFC_DLL@DV?$ChTraitsCRT@D@ATL@@@@@ATL@@QAE@XZ
__unwindfunclet$?DrawData@CDataInRightScaleRegionDrawer@@AAEXPAVCDC@@ABVCRect@@ABVCDrawingGraphData@@ABVCGraphColor@@ABVCPrices@@AAV?$CStringT@DV?$StrTraitMFC_DLL@DV?$ChTraitsCRT@D@ATL@@@@@ATL@@AAV3@@Z$3:
  0001b	8d 4d ac	 lea	 ecx, DWORD PTR _strRiseFallRate$[ebp]
  0001e	ff 25 00 00 00
	00		 jmp	 DWORD PTR __imp_??1?$CStringT@DV?$StrTraitMFC_DLL@DV?$ChTraitsCRT@D@ATL@@@@@ATL@@QAE@XZ
  00024	cc		 int	 3
  00025	cc		 int	 3
  00026	cc		 int	 3
  00027	cc		 int	 3
  00028	cc		 int	 3
__ehhandler$?DrawData@CDataInRightScaleRegionDrawer@@AAEXPAVCDC@@ABVCRect@@ABVCDrawingGraphData@@ABVCGraphColor@@ABVCPrices@@AAV?$CStringT@DV?$StrTraitMFC_DLL@DV?$ChTraitsCRT@D@ATL@@@@@ATL@@AAV3@@Z:
  00029	90		 npad	 1
  0002a	90		 npad	 1
  0002b	8b 54 24 08	 mov	 edx, DWORD PTR [esp+8]
  0002f	8d 42 0c	 lea	 eax, DWORD PTR [edx+12]
  00032	8b 4a 9c	 mov	 ecx, DWORD PTR [edx-100]
  00035	33 c8		 xor	 ecx, eax
  00037	e8 00 00 00 00	 call	 @__security_check_cookie@4
  0003c	8b 4a fc	 mov	 ecx, DWORD PTR [edx-4]
  0003f	33 c8		 xor	 ecx, eax
  00041	e8 00 00 00 00	 call	 @__security_check_cookie@4
  00046	b8 00 00 00 00	 mov	 eax, OFFSET __ehfuncinfo$?DrawData@CDataInRightScaleRegionDrawer@@AAEXPAVCDC@@ABVCRect@@ABVCDrawingGraphData@@ABVCGraphColor@@ABVCPrices@@AAV?$CStringT@DV?$StrTraitMFC_DLL@DV?$ChTraitsCRT@D@ATL@@@@@ATL@@AAV3@@Z
  0004b	e9 00 00 00 00	 jmp	 ___CxxFrameHandler3
text$x	ENDS
?DrawData@CDataInRightScaleRegionDrawer@@AAEXPAVCDC@@ABVCRect@@ABVCDrawingGraphData@@ABVCGraphColor@@ABVCPrices@@AAV?$CStringT@DV?$StrTraitMFC_DLL@DV?$ChTraitsCRT@D@ATL@@@@@ATL@@AAV3@@Z ENDP ; CDataInRightScaleRegionDrawer::DrawData
; Function compile flags: /Ogtp
; File D:\git\src\IBK\IBK_DRFN\ProjSrc\SrcChartEx\ChartOCX\GraphDraw\GraphDataDrawer.cpp
;	COMDAT ?DrawData@CDataInRightScaleRegionDrawer@@AAEXPAVCDC@@ABVCRect@@ABVCDrawingGraphData@@ABVCGraphColor@@ABVCPrices@@AAV?$CStringT@DV?$StrTraitMFC_DLL@DV?$ChTraitsCRT@D@ATL@@@@@ATL@@@Z
_TEXT	SEGMENT
_this$GSCopy$1$ = -36					; size = 4
_pDC$GSCopy$1$ = -32					; size = 4
_graphColor$GSCopy$1$ = -28				; size = 4
_prices$GSCopy$1$ = -24					; size = 4
$T1 = -20						; size = 16
$T2 = -20						; size = 16
__$ArrayPad$ = -4					; size = 4
_pDC$ = 8						; size = 4
_region$ = 12						; size = 4
_drawingGraphData$ = 16					; size = 4
_graphColor$ = 20					; size = 4
_prices$ = 24						; size = 4
_p_strPacketType$ = 28					; size = 4
?DrawData@CDataInRightScaleRegionDrawer@@AAEXPAVCDC@@ABVCRect@@ABVCDrawingGraphData@@ABVCGraphColor@@ABVCPrices@@AAV?$CStringT@DV?$StrTraitMFC_DLL@DV?$ChTraitsCRT@D@ATL@@@@@ATL@@@Z PROC ; CDataInRightScaleRegionDrawer::DrawData, COMDAT
; _this$ = ecx

; 749  : {

  00000	55		 push	 ebp
  00001	8b ec		 mov	 ebp, esp
  00003	83 ec 24	 sub	 esp, 36			; 00000024H
  00006	a1 00 00 00 00	 mov	 eax, DWORD PTR ___security_cookie
  0000b	33 c5		 xor	 eax, ebp
  0000d	89 45 fc	 mov	 DWORD PTR __$ArrayPad$[ebp], eax
  00010	8b 45 14	 mov	 eax, DWORD PTR _graphColor$[ebp]
  00013	53		 push	 ebx
  00014	8b 5d 10	 mov	 ebx, DWORD PTR _drawingGraphData$[ebp]
  00017	56		 push	 esi
  00018	89 45 e4	 mov	 DWORD PTR _graphColor$GSCopy$1$[ebp], eax
  0001b	8b f1		 mov	 esi, ecx
  0001d	8b 45 18	 mov	 eax, DWORD PTR _prices$[ebp]

; 750  : 	// Y Scale    - ojtaso (20070807)
; 751  : 	if(drawingGraphData.GetVertScalePosition() == CScaleBaseData::VERTSCALEPOSITION::VERT_BOTH)

  00020	8b cb		 mov	 ecx, ebx
  00022	83 bb e0 00 00
	00 02		 cmp	 DWORD PTR [ebx+224], 2
  00029	57		 push	 edi
  0002a	8b 7d 08	 mov	 edi, DWORD PTR _pDC$[ebp]
  0002d	89 45 e8	 mov	 DWORD PTR _prices$GSCopy$1$[ebp], eax
  00030	8d 45 ec	 lea	 eax, DWORD PTR $T2[ebp]
  00033	89 75 dc	 mov	 DWORD PTR _this$GSCopy$1$[ebp], esi
  00036	89 7d e0	 mov	 DWORD PTR _pDC$GSCopy$1$[ebp], edi
  00039	50		 push	 eax
  0003a	75 3d		 jne	 SHORT $LN2@DrawData

; 752  : 	{
; 753  : 		DrawData(pDC, region, drawingGraphData, graphColor, prices, p_strPacketType, drawingGraphData.GetLeftScaleTextRegion());

  0003c	e8 00 00 00 00	 call	 ?GetLeftScaleTextRegion@CDrawingGraphData@@QBE?AVCRect@@XZ ; CDrawingGraphData::GetLeftScaleTextRegion
  00041	8b 7d 1c	 mov	 edi, DWORD PTR _p_strPacketType$[ebp]
  00044	8b 75 0c	 mov	 esi, DWORD PTR _region$[ebp]
  00047	8b 4d dc	 mov	 ecx, DWORD PTR _this$GSCopy$1$[ebp]
  0004a	50		 push	 eax
  0004b	57		 push	 edi
  0004c	ff 75 e8	 push	 DWORD PTR _prices$GSCopy$1$[ebp]
  0004f	ff 75 e4	 push	 DWORD PTR _graphColor$GSCopy$1$[ebp]
  00052	53		 push	 ebx
  00053	56		 push	 esi
  00054	ff 75 e0	 push	 DWORD PTR _pDC$GSCopy$1$[ebp]
  00057	e8 00 00 00 00	 call	 ?DrawData@CDataInRightScaleRegionDrawer@@AAEXPAVCDC@@ABVCRect@@ABVCDrawingGraphData@@ABVCGraphColor@@ABVCPrices@@AAV?$CStringT@DV?$StrTraitMFC_DLL@DV?$ChTraitsCRT@D@ATL@@@@@ATL@@AAV3@@Z ; CDataInRightScaleRegionDrawer::DrawData

; 754  : 		DrawData(pDC, region, drawingGraphData, graphColor, prices, p_strPacketType, drawingGraphData.GetRightScaleTextRegion());

  0005c	8d 45 ec	 lea	 eax, DWORD PTR $T1[ebp]
  0005f	8b cb		 mov	 ecx, ebx
  00061	50		 push	 eax
  00062	e8 00 00 00 00	 call	 ?GetRightScaleTextRegion@CDrawingGraphData@@QBE?AVCRect@@XZ ; CDrawingGraphData::GetRightScaleTextRegion
  00067	8b 4d dc	 mov	 ecx, DWORD PTR _this$GSCopy$1$[ebp]
  0006a	50		 push	 eax
  0006b	57		 push	 edi
  0006c	ff 75 e8	 push	 DWORD PTR _prices$GSCopy$1$[ebp]
  0006f	ff 75 e4	 push	 DWORD PTR _graphColor$GSCopy$1$[ebp]
  00072	53		 push	 ebx
  00073	56		 push	 esi
  00074	ff 75 e0	 push	 DWORD PTR _pDC$GSCopy$1$[ebp]

; 755  : 	}

  00077	eb 16		 jmp	 SHORT $LN5@DrawData
$LN2@DrawData:

; 756  : 	else
; 757  : 	{
; 758  : 		DrawData(pDC, region, drawingGraphData, graphColor, prices, p_strPacketType, drawingGraphData.GetScaleTextRegion());

  00079	e8 00 00 00 00	 call	 ?GetScaleTextRegion@CDrawingGraphData@@QBE?AVCRect@@XZ ; CDrawingGraphData::GetScaleTextRegion
  0007e	50		 push	 eax
  0007f	ff 75 1c	 push	 DWORD PTR _p_strPacketType$[ebp]
  00082	8b ce		 mov	 ecx, esi
  00084	ff 75 e8	 push	 DWORD PTR _prices$GSCopy$1$[ebp]
  00087	ff 75 e4	 push	 DWORD PTR _graphColor$GSCopy$1$[ebp]
  0008a	53		 push	 ebx
  0008b	ff 75 0c	 push	 DWORD PTR _region$[ebp]
  0008e	57		 push	 edi
$LN5@DrawData:

; 759  : 	}
; 760  : }

  0008f	e8 00 00 00 00	 call	 ?DrawData@CDataInRightScaleRegionDrawer@@AAEXPAVCDC@@ABVCRect@@ABVCDrawingGraphData@@ABVCGraphColor@@ABVCPrices@@AAV?$CStringT@DV?$StrTraitMFC_DLL@DV?$ChTraitsCRT@D@ATL@@@@@ATL@@AAV3@@Z ; CDataInRightScaleRegionDrawer::DrawData
  00094	8b 4d fc	 mov	 ecx, DWORD PTR __$ArrayPad$[ebp]
  00097	5f		 pop	 edi
  00098	5e		 pop	 esi
  00099	33 cd		 xor	 ecx, ebp
  0009b	5b		 pop	 ebx
  0009c	e8 00 00 00 00	 call	 @__security_check_cookie@4
  000a1	8b e5		 mov	 esp, ebp
  000a3	5d		 pop	 ebp
  000a4	c2 18 00	 ret	 24			; 00000018H
?DrawData@CDataInRightScaleRegionDrawer@@AAEXPAVCDC@@ABVCRect@@ABVCDrawingGraphData@@ABVCGraphColor@@ABVCPrices@@AAV?$CStringT@DV?$StrTraitMFC_DLL@DV?$ChTraitsCRT@D@ATL@@@@@ATL@@@Z ENDP ; CDataInRightScaleRegionDrawer::DrawData
_TEXT	ENDS
; Function compile flags: /Ogtp
; File D:\git\src\IBK\IBK_DRFN\ProjSrc\SrcChartEx\ChartOCX\GraphDraw\GraphDataDrawer.cpp
;	COMDAT ?GetPacket@CDataInRightScaleRegionDrawer@@QBEPAVCPacket@@ABVCDrawingGraphData@@@Z
_TEXT	SEGMENT
$T2 = -16						; size = 4
__$EHRec$ = -12						; size = 12
_drawingGraphData$ = 8					; size = 4
$T3 = 11						; size = 1
?GetPacket@CDataInRightScaleRegionDrawer@@QBEPAVCPacket@@ABVCDrawingGraphData@@@Z PROC ; CDataInRightScaleRegionDrawer::GetPacket, COMDAT
; _this$ = ecx

; 926  : {

  00000	55		 push	 ebp
  00001	8b ec		 mov	 ebp, esp
  00003	6a ff		 push	 -1
  00005	68 00 00 00 00	 push	 __ehhandler$?GetPacket@CDataInRightScaleRegionDrawer@@QBEPAVCPacket@@ABVCDrawingGraphData@@@Z
  0000a	64 a1 00 00 00
	00		 mov	 eax, DWORD PTR fs:0
  00010	50		 push	 eax
  00011	51		 push	 ecx
  00012	56		 push	 esi
  00013	57		 push	 edi
  00014	a1 00 00 00 00	 mov	 eax, DWORD PTR ___security_cookie
  00019	33 c5		 xor	 eax, ebp
  0001b	50		 push	 eax
  0001c	8d 45 f4	 lea	 eax, DWORD PTR __$EHRec$[ebp]
  0001f	64 a3 00 00 00
	00		 mov	 DWORD PTR fs:0, eax

; 927  : 	const CList< CPacket*, CPacket*> &packetList = drawingGraphData.GetSubGraphPacketList()->GetSubGraphPacketList();

  00025	8b 75 08	 mov	 esi, DWORD PTR _drawingGraphData$[ebp]
  00028	8b ce		 mov	 ecx, esi
  0002a	e8 00 00 00 00	 call	 ?GetSubGraphPacketList@CDrawingGraphData@@QBEPAVCSubGraphPacketList@@XZ ; CDrawingGraphData::GetSubGraphPacketList
  0002f	8b c8		 mov	 ecx, eax
  00031	e8 00 00 00 00	 call	 ?GetSubGraphPacketList@CSubGraphPacketList@@QBEABV?$CList@PAVCPacket@@PAV1@@@XZ ; CSubGraphPacketList::GetSubGraphPacketList
  00036	8b f8		 mov	 edi, eax

; 928  : 	if( packetList.GetCount() <= 0)

  00038	83 7f 0c 00	 cmp	 DWORD PTR [edi+12], 0
  0003c	7f 15		 jg	 SHORT $LN2@GetPacket

; 929  : 		return NULL;

  0003e	33 c0		 xor	 eax, eax

; 934  : }

  00040	8b 4d f4	 mov	 ecx, DWORD PTR __$EHRec$[ebp]
  00043	64 89 0d 00 00
	00 00		 mov	 DWORD PTR fs:0, ecx
  0004a	59		 pop	 ecx
  0004b	5f		 pop	 edi
  0004c	5e		 pop	 esi
  0004d	8b e5		 mov	 esp, ebp
  0004f	5d		 pop	 ebp
  00050	c2 04 00	 ret	 4
$LN2@GetPacket:

; 930  : 
; 931  : 	//2007.06.11 by LYH   
; 932  : //	return CDrawingPacketFinder().GetPracticalPacket( drawingGraphData.GetGraphName(), packetList);
; 933  : 	return CDrawingPacketFinder().GetPracticalPacket( drawingGraphData.GetIndicatorName() , packetList);

  00053	8d 45 f0	 lea	 eax, DWORD PTR $T2[ebp]
  00056	8b ce		 mov	 ecx, esi
  00058	50		 push	 eax
  00059	e8 00 00 00 00	 call	 ?GetIndicatorName@CDrawingGraphData@@QBE?AV?$CStringT@DV?$StrTraitMFC_DLL@DV?$ChTraitsCRT@D@ATL@@@@@ATL@@XZ ; CDrawingGraphData::GetIndicatorName
  0005e	57		 push	 edi
  0005f	50		 push	 eax
  00060	8d 4d 0b	 lea	 ecx, DWORD PTR $T3[ebp]
  00063	c7 45 fc 00 00
	00 00		 mov	 DWORD PTR __$EHRec$[ebp+8], 0
  0006a	e8 00 00 00 00	 call	 ?GetPracticalPacket@CDrawingPacketFinder@@QBEPAVCPacket@@ABV?$CStringT@DV?$StrTraitMFC_DLL@DV?$ChTraitsCRT@D@ATL@@@@@ATL@@ABV?$CList@PAVCPacket@@PAV1@@@@Z ; CDrawingPacketFinder::GetPracticalPacket
  0006f	8d 4d f0	 lea	 ecx, DWORD PTR $T2[ebp]
  00072	8b f0		 mov	 esi, eax
  00074	ff 15 00 00 00
	00		 call	 DWORD PTR __imp_??1?$CStringT@DV?$StrTraitMFC_DLL@DV?$ChTraitsCRT@D@ATL@@@@@ATL@@QAE@XZ
  0007a	8b c6		 mov	 eax, esi

; 934  : }

  0007c	8b 4d f4	 mov	 ecx, DWORD PTR __$EHRec$[ebp]
  0007f	64 89 0d 00 00
	00 00		 mov	 DWORD PTR fs:0, ecx
  00086	59		 pop	 ecx
  00087	5f		 pop	 edi
  00088	5e		 pop	 esi
  00089	8b e5		 mov	 esp, ebp
  0008b	5d		 pop	 ebp
  0008c	c2 04 00	 ret	 4
_TEXT	ENDS
;	COMDAT text$x
text$x	SEGMENT
__unwindfunclet$?GetPacket@CDataInRightScaleRegionDrawer@@QBEPAVCPacket@@ABVCDrawingGraphData@@@Z$0:
  00000	8d 4d f0	 lea	 ecx, DWORD PTR $T2[ebp]
  00003	ff 25 00 00 00
	00		 jmp	 DWORD PTR __imp_??1?$CStringT@DV?$StrTraitMFC_DLL@DV?$ChTraitsCRT@D@ATL@@@@@ATL@@QAE@XZ
  00009	cc		 int	 3
  0000a	cc		 int	 3
  0000b	cc		 int	 3
  0000c	cc		 int	 3
  0000d	cc		 int	 3
__ehhandler$?GetPacket@CDataInRightScaleRegionDrawer@@QBEPAVCPacket@@ABVCDrawingGraphData@@@Z:
  0000e	90		 npad	 1
  0000f	90		 npad	 1
  00010	8b 54 24 08	 mov	 edx, DWORD PTR [esp+8]
  00014	8d 42 0c	 lea	 eax, DWORD PTR [edx+12]
  00017	8b 4a f0	 mov	 ecx, DWORD PTR [edx-16]
  0001a	33 c8		 xor	 ecx, eax
  0001c	e8 00 00 00 00	 call	 @__security_check_cookie@4
  00021	b8 00 00 00 00	 mov	 eax, OFFSET __ehfuncinfo$?GetPacket@CDataInRightScaleRegionDrawer@@QBEPAVCPacket@@ABVCDrawingGraphData@@@Z
  00026	e9 00 00 00 00	 jmp	 ___CxxFrameHandler3
text$x	ENDS
?GetPacket@CDataInRightScaleRegionDrawer@@QBEPAVCPacket@@ABVCDrawingGraphData@@@Z ENDP ; CDataInRightScaleRegionDrawer::GetPacket
; Function compile flags: /Ogtp
; File D:\git\src\IBK\IBK_DRFN\ProjSrc\SrcChartEx\ChartOCX\GraphDraw\GraphDataDrawer.cpp
; File C:\Program Files (x86)\Microsoft Visual Studio\2019\Community\VC\Tools\MSVC\14.29.30133\atlmfc\include\afxtempl.h
; File D:\git\src\IBK\IBK_DRFN\ProjSrc\SrcChartEx\ChartOCX\GraphDraw\GraphDataDrawer.cpp
; File C:\Program Files (x86)\Microsoft Visual Studio\2019\Community\VC\Tools\MSVC\14.29.30133\atlmfc\include\afxtempl.h
; File D:\git\src\IBK\IBK_DRFN\ProjSrc\SrcChartEx\ChartOCX\GraphDraw\GraphDataDrawer.cpp
; File C:\Program Files (x86)\Microsoft Visual Studio\2019\Community\VC\Tools\MSVC\14.29.30133\atlmfc\include\afxtempl.h
; File D:\git\src\IBK\IBK_DRFN\ProjSrc\SrcChartEx\ChartOCX\GraphDraw\GraphDataDrawer.cpp
;	COMDAT ?GetText@CDataInRightScaleRegionDrawer@@QBE_NABVCTextInRightScaleRegionDrawer@@AAV?$CStringT@DV?$StrTraitMFC_DLL@DV?$ChTraitsCRT@D@ATL@@@@@ATL@@111@Z
_TEXT	SEGMENT
_prices$ = -116						; size = 40
_textData$GSCopy$1$ = -76				; size = 4
_strCurPrice$GSCopy$1$ = -72				; size = 4
_strDiffPrice$GSCopy$1$ = -68				; size = 4
_strPipPrice$GSCopy$1$ = -64				; size = 4
_strRiseFallRate$GSCopy$1$ = -60			; size = 4
tv404 = -56						; size = 4
$T2 = -52						; size = 4
tv251 = -48						; size = 8
_this$GSCopy$1$ = -44					; size = 4
___$ReturnUdt$ = -44					; size = 4
$T3 = -44						; size = 4
$T4 = -37						; size = 1
_pDataList$1$ = -36					; size = 4
$T5 = -36						; size = 4
$T6 = -32						; size = 16
__$ArrayPad$ = -16					; size = 4
__$EHRec$ = -12						; size = 12
_textData$ = 8						; size = 4
_strCurPrice$ = 12					; size = 4
_strDiffPrice$ = 16					; size = 4
_strPipPrice$ = 20					; size = 4
_strRiseFallRate$ = 24					; size = 4
?GetText@CDataInRightScaleRegionDrawer@@QBE_NABVCTextInRightScaleRegionDrawer@@AAV?$CStringT@DV?$StrTraitMFC_DLL@DV?$ChTraitsCRT@D@ATL@@@@@ATL@@111@Z PROC ; CDataInRightScaleRegionDrawer::GetText, COMDAT
; _this$ = ecx

; 679  : {

  00000	55		 push	 ebp
  00001	8b ec		 mov	 ebp, esp
  00003	6a ff		 push	 -1
  00005	68 00 00 00 00	 push	 __ehhandler$?GetText@CDataInRightScaleRegionDrawer@@QBE_NABVCTextInRightScaleRegionDrawer@@AAV?$CStringT@DV?$StrTraitMFC_DLL@DV?$ChTraitsCRT@D@ATL@@@@@ATL@@111@Z
  0000a	64 a1 00 00 00
	00		 mov	 eax, DWORD PTR fs:0
  00010	50		 push	 eax
  00011	83 ec 68	 sub	 esp, 104		; 00000068H
  00014	a1 00 00 00 00	 mov	 eax, DWORD PTR ___security_cookie
  00019	33 c5		 xor	 eax, ebp
  0001b	89 45 f0	 mov	 DWORD PTR __$ArrayPad$[ebp], eax
  0001e	53		 push	 ebx
  0001f	56		 push	 esi
  00020	57		 push	 edi
  00021	50		 push	 eax
  00022	8d 45 f4	 lea	 eax, DWORD PTR __$EHRec$[ebp]
  00025	64 a3 00 00 00
	00		 mov	 DWORD PTR fs:0, eax
  0002b	89 4d d4	 mov	 DWORD PTR _this$GSCopy$1$[ebp], ecx
  0002e	8b 45 0c	 mov	 eax, DWORD PTR _strCurPrice$[ebp]
  00031	8b 7d 08	 mov	 edi, DWORD PTR _textData$[ebp]

; 680  : // 	CPacket* pPacket = NULL;
; 681  : // 	int nRealDataEnd = textData.GetDataEnd();
; 682  : // 	if(!GetPacketAndDataEnd(textData, pPacket, nRealDataEnd))
; 683  : // 		return false;
; 684  : // 
; 685  : // 	CPrices pricesInView;
; 686  : // 	if(!CRateDrawer::GetPrices(pPacket, nRealDataEnd, pricesInView))
; 687  : // 		return false;
; 688  : // 
; 689  : // 	CPrices prices;
; 690  : // 	if(!GetDrawingDatas(pPacket, nRealDataEnd, textData.GetCurDataType(), pricesInView, prices))
; 691  : // 		return false;
; 692  : // 
; 693  : // 	CString strPacketType;
; 694  : // 	if( strPacketType) strPacketType = pPacket->GetType();
; 695  : // 	return GetText(textData.GetRegion(), prices, textData.GetCurDataType(), strCurPrice, strRiseFallRate, strPacketType);
; 696  : 
; 697  : 	// Source Data for calculation.
; 698  : 	CPacket *pPacket = NULL;
; 699  : 	if( 0 < textData.GetSubGraphPacketList()->GetSubGraphPacketList().GetCount())

  00034	8b cf		 mov	 ecx, edi
  00036	89 45 b8	 mov	 DWORD PTR _strCurPrice$GSCopy$1$[ebp], eax
  00039	8b 45 10	 mov	 eax, DWORD PTR _strDiffPrice$[ebp]
  0003c	89 45 bc	 mov	 DWORD PTR _strDiffPrice$GSCopy$1$[ebp], eax
  0003f	8b 45 14	 mov	 eax, DWORD PTR _strPipPrice$[ebp]
  00042	89 45 c0	 mov	 DWORD PTR _strPipPrice$GSCopy$1$[ebp], eax
  00045	8b 45 18	 mov	 eax, DWORD PTR _strRiseFallRate$[ebp]
  00048	89 7d b4	 mov	 DWORD PTR _textData$GSCopy$1$[ebp], edi
  0004b	89 45 c4	 mov	 DWORD PTR _strRiseFallRate$GSCopy$1$[ebp], eax
  0004e	e8 00 00 00 00	 call	 ?GetSubGraphPacketList@CTextInRightScaleRegionDrawer@@QBEPAVCSubGraphPacketList@@XZ ; CTextInRightScaleRegionDrawer::GetSubGraphPacketList
  00053	8b c8		 mov	 ecx, eax
  00055	e8 00 00 00 00	 call	 ?GetSubGraphPacketList@CSubGraphPacketList@@QBEABV?$CList@PAVCPacket@@PAV1@@@XZ ; CSubGraphPacketList::GetSubGraphPacketList
  0005a	83 78 0c 00	 cmp	 DWORD PTR [eax+12], 0
  0005e	0f 8e 20 02 00
	00		 jle	 $LN5@GetText

; 700  : 		pPacket = CDrawingPacketFinder().GetPracticalPacket( textData.GetGraphName(), textData.GetSubGraphPacketList()->GetSubGraphPacketList());

  00064	8d 45 cc	 lea	 eax, DWORD PTR $T2[ebp]
  00067	8b cf		 mov	 ecx, edi
  00069	50		 push	 eax
  0006a	e8 00 00 00 00	 call	 ?GetGraphName@CTextInRightScaleRegionDrawer@@QBE?AV?$CStringT@DV?$StrTraitMFC_DLL@DV?$ChTraitsCRT@D@ATL@@@@@ATL@@XZ ; CTextInRightScaleRegionDrawer::GetGraphName
  0006f	8b f0		 mov	 esi, eax
  00071	8b cf		 mov	 ecx, edi
  00073	c7 45 fc 00 00
	00 00		 mov	 DWORD PTR __$EHRec$[ebp+8], 0
  0007a	e8 00 00 00 00	 call	 ?GetSubGraphPacketList@CTextInRightScaleRegionDrawer@@QBEPAVCSubGraphPacketList@@XZ ; CTextInRightScaleRegionDrawer::GetSubGraphPacketList
  0007f	8b c8		 mov	 ecx, eax
  00081	e8 00 00 00 00	 call	 ?GetSubGraphPacketList@CSubGraphPacketList@@QBEABV?$CList@PAVCPacket@@PAV1@@@XZ ; CSubGraphPacketList::GetSubGraphPacketList
  00086	50		 push	 eax
  00087	56		 push	 esi
  00088	8d 4d db	 lea	 ecx, DWORD PTR $T4[ebp]
  0008b	e8 00 00 00 00	 call	 ?GetPracticalPacket@CDrawingPacketFinder@@QBEPAVCPacket@@ABV?$CStringT@DV?$StrTraitMFC_DLL@DV?$ChTraitsCRT@D@ATL@@@@@ATL@@ABV?$CList@PAVCPacket@@PAV1@@@@Z ; CDrawingPacketFinder::GetPracticalPacket
  00090	8d 4d cc	 lea	 ecx, DWORD PTR $T2[ebp]
  00093	c7 45 fc ff ff
	ff ff		 mov	 DWORD PTR __$EHRec$[ebp+8], -1
  0009a	8b f0		 mov	 esi, eax
  0009c	ff 15 00 00 00
	00		 call	 DWORD PTR __imp_??1?$CStringT@DV?$StrTraitMFC_DLL@DV?$ChTraitsCRT@D@ATL@@@@@ATL@@QAE@XZ

; 701  : 	if( !pPacket) return false;

  000a2	85 f6		 test	 esi, esi
  000a4	0f 84 da 01 00
	00		 je	 $LN5@GetText

; 702  : 	int nDTI = CRateDrawer::GetRealDataEnd( pPacket, textData.GetDataEnd());

  000aa	8b cf		 mov	 ecx, edi
  000ac	e8 00 00 00 00	 call	 ?GetDataEnd@CTextInRightScaleRegionDrawer@@QBEHXZ ; CTextInRightScaleRegionDrawer::GetDataEnd

; 318  : 	if(pPacket == NULL || pPacket->GetnumericDataList() == NULL)

  000b1	8b ce		 mov	 ecx, esi

; 702  : 	int nDTI = CRateDrawer::GetRealDataEnd( pPacket, textData.GetDataEnd());

  000b3	8b d8		 mov	 ebx, eax

; 318  : 	if(pPacket == NULL || pPacket->GetnumericDataList() == NULL)

  000b5	ff 15 00 00 00
	00		 call	 DWORD PTR __imp_?GetnumericDataList@CPacket@@QAEPAV?$CList@NN@@XZ
  000bb	85 c0		 test	 eax, eax
  000bd	74 12		 je	 SHORT $LN28@GetText

; 319  : 		return nDataEnd;
; 320  : 
; 321  : 	int nDataCount = pPacket->GetnumericDataList()->GetCount();

  000bf	8b ce		 mov	 ecx, esi
  000c1	ff 15 00 00 00
	00		 call	 DWORD PTR __imp_?GetnumericDataList@CPacket@@QAEPAV?$CList@NN@@XZ
  000c7	8b 40 0c	 mov	 eax, DWORD PTR [eax+12]

; 322  : 	if(nDataEnd >= nDataCount)

  000ca	3b d8		 cmp	 ebx, eax
  000cc	7c 03		 jl	 SHORT $LN28@GetText

; 323  : 		return (nDataCount - 1);

  000ce	8d 58 ff	 lea	 ebx, DWORD PTR [eax-1]
$LN28@GetText:

; 703  : 
; 704  : 	CList<double, double>* pDataList = pPacket->GetnumericDataList();

  000d1	8b ce		 mov	 ecx, esi
  000d3	ff 15 00 00 00
	00		 call	 DWORD PTR __imp_?GetnumericDataList@CPacket@@QAEPAV?$CList@NN@@XZ
  000d9	89 45 dc	 mov	 DWORD PTR _pDataList$1$[ebp], eax

; 705  : 	if( pDataList == NULL || pDataList->GetCount() <= 0) return false;

  000dc	85 c0		 test	 eax, eax
  000de	0f 84 a0 01 00
	00		 je	 $LN5@GetText
  000e4	83 78 0c 00	 cmp	 DWORD PTR [eax+12], 0
  000e8	0f 8e 96 01 00
	00		 jle	 $LN5@GetText

; 706  : 
; 707  : 	POSITION pos = NULL;
; 708  : 	int nCurDataType = textData.GetCurDataType();

  000ee	8b cf		 mov	 ecx, edi
  000f0	e8 00 00 00 00	 call	 ?GetCurDataType@CTextInRightScaleRegionDrawer@@QBEHXZ ; CTextInRightScaleRegionDrawer::GetCurDataType
  000f5	0f 57 c0	 xorps	 xmm0, xmm0

; 49   : 	m_nDecimalDownCount(0),

  000f8	c7 45 9c 00 00
	00 00		 mov	 DWORD PTR _prices$[ebp+16], 0

; 50   : 	m_dPipSize(0.0)
; 51   : {

  000ff	8d 4d ac	 lea	 ecx, DWORD PTR _prices$[ebp+32]
  00102	f2 0f 11 45 a4	 movsd	 QWORD PTR _prices$[ebp+24], xmm0

; 706  : 
; 707  : 	POSITION pos = NULL;
; 708  : 	int nCurDataType = textData.GetCurDataType();

  00107	8b f8		 mov	 edi, eax

; 47   : 	m_dPrevPrice(0.0),

  00109	0f 11 45 8c	 movups	 XMMWORD PTR _prices$[ebp], xmm0

; 50   : 	m_dPipSize(0.0)
; 51   : {

  0010d	ff 15 00 00 00
	00		 call	 DWORD PTR __imp_??0?$CStringT@DV?$StrTraitMFC_DLL@DV?$ChTraitsCRT@D@ATL@@@@@ATL@@QAE@XZ
  00113	8d 4d b0	 lea	 ecx, DWORD PTR _prices$[ebp+36]
  00116	ff 15 00 00 00
	00		 call	 DWORD PTR __imp_??0?$CStringT@DV?$StrTraitMFC_DLL@DV?$ChTraitsCRT@D@ATL@@@@@ATL@@QAE@XZ

; 709  : 	CPrices prices;
; 710  : 	if( 1 == nCurDataType % 2) 

  0011c	8b c7		 mov	 eax, edi
  0011e	c7 45 fc 01 00
	00 00		 mov	 DWORD PTR __$EHRec$[ebp+8], 1
  00125	25 01 00 00 80	 and	 eax, -2147483647	; 80000001H
  0012a	79 05		 jns	 SHORT $LN76@GetText
  0012c	48		 dec	 eax
  0012d	83 c8 fe	 or	 eax, -2			; fffffffeH
  00130	40		 inc	 eax
$LN76@GetText:
  00131	8b 4d dc	 mov	 ecx, DWORD PTR _pDataList$1$[ebp]
  00134	89 45 c8	 mov	 DWORD PTR tv404[ebp], eax
  00137	83 f8 01	 cmp	 eax, 1
  0013a	75 3c		 jne	 SHORT $LN6@GetText
; File C:\Program Files (x86)\Microsoft Visual Studio\2019\Community\VC\Tools\MSVC\14.29.30133\atlmfc\include\afxtempl.h

; 823  : 	{ CNode* pNode = (CNode*) rPosition;

  0013c	8b 41 08	 mov	 eax, DWORD PTR [ecx+8]
; File D:\git\src\IBK\IBK_DRFN\ProjSrc\SrcChartEx\ChartOCX\GraphDraw\GraphDataDrawer.cpp

; 715  : 		if( pPacket->IsUseStandardValue())	prices.SetPrev(pPacket->GetStandardValue());

  0013f	8b ce		 mov	 ecx, esi
  00141	6a 00		 push	 0

; 70   : 	m_dCurPrice = dPrice;

  00143	f2 0f 10 40 08	 movsd	 xmm0, QWORD PTR [eax+8]
; File C:\Program Files (x86)\Microsoft Visual Studio\2019\Community\VC\Tools\MSVC\14.29.30133\atlmfc\include\afxtempl.h

; 825  : 		rPosition = (POSITION) pNode->pPrev;

  00148	8b 58 04	 mov	 ebx, DWORD PTR [eax+4]
; File D:\git\src\IBK\IBK_DRFN\ProjSrc\SrcChartEx\ChartOCX\GraphDraw\GraphDataDrawer.cpp

; 70   : 	m_dCurPrice = dPrice;

  0014b	f2 0f 11 45 94	 movsd	 QWORD PTR _prices$[ebp+8], xmm0

; 715  : 		if( pPacket->IsUseStandardValue())	prices.SetPrev(pPacket->GetStandardValue());

  00150	ff 15 00 00 00
	00		 call	 DWORD PTR __imp_?IsUseStandardValue@CPacket@@QBE_NH@Z
  00156	84 c0		 test	 al, al
  00158	74 0f		 je	 SHORT $LN8@GetText
  0015a	6a 00		 push	 0
  0015c	8b ce		 mov	 ecx, esi
  0015e	ff 15 00 00 00
	00		 call	 DWORD PTR __imp_?GetStandardValue@CPacket@@QAENH@Z

; 65   : 	m_dPrevPrice = dPrice;

  00164	dd 5d 8c	 fstp	 QWORD PTR _prices$[ebp]

; 715  : 		if( pPacket->IsUseStandardValue())	prices.SetPrev(pPacket->GetStandardValue());

  00167	eb 34		 jmp	 SHORT $LN13@GetText
$LN8@GetText:

; 716  : 		else if( pos)						prices.SetPrev(pDataList->GetPrev( pos));

  00169	85 db		 test	 ebx, ebx
  0016b	0f 84 fb 00 00
	00		 je	 $LN12@GetText

; 65   : 	m_dPrevPrice = dPrice;

  00171	f2 0f 10 43 08	 movsd	 xmm0, QWORD PTR [ebx+8]

; 717  : 		else								return false;
; 718  : 	}

  00176	eb 20		 jmp	 SHORT $LN77@GetText
$LN6@GetText:

; 719  : 	else
; 720  : 	{
; 721  : 		// ->  !!
; 722  : 		pos = pDataList->FindIndex( nDTI);

  00178	53		 push	 ebx
  00179	e8 00 00 00 00	 call	 ?FindIndex@?$CList@NN@@QBEPAU__POSITION@@H@Z ; CList<double,double>::FindIndex
; File C:\Program Files (x86)\Microsoft Visual Studio\2019\Community\VC\Tools\MSVC\14.29.30133\atlmfc\include\afxtempl.h

; 825  : 		rPosition = (POSITION) pNode->pPrev;

  0017e	8b 48 04	 mov	 ecx, DWORD PTR [eax+4]
; File D:\git\src\IBK\IBK_DRFN\ProjSrc\SrcChartEx\ChartOCX\GraphDraw\GraphDataDrawer.cpp

; 70   : 	m_dCurPrice = dPrice;

  00181	f2 0f 10 40 08	 movsd	 xmm0, QWORD PTR [eax+8]
  00186	f2 0f 11 45 94	 movsd	 QWORD PTR _prices$[ebp+8], xmm0

; 723  : 		prices.SetCur(pDataList->GetPrev( pos));
; 724  : 		if( pos)							prices.SetPrev(pDataList->GetPrev( pos));

  0018b	85 c9		 test	 ecx, ecx
  0018d	0f 84 d9 00 00
	00		 je	 $LN12@GetText

; 65   : 	m_dPrevPrice = dPrice;

  00193	f2 0f 10 41 08	 movsd	 xmm0, QWORD PTR [ecx+8]
$LN77@GetText:

; 725  : 		else								return false;
; 726  : 	}
; 727  : 
; 728  : 	CRateDrawer::GetDecimalDownCountAndDataType( pPacket, prices);

  00198	f2 0f 11 45 8c	 movsd	 QWORD PTR _prices$[ebp], xmm0
$LN13@GetText:
  0019d	8b 5d d4	 mov	 ebx, DWORD PTR _this$GSCopy$1$[ebp]
  001a0	8d 45 8c	 lea	 eax, DWORD PTR _prices$[ebp]
  001a3	50		 push	 eax
  001a4	56		 push	 esi
  001a5	8b cb		 mov	 ecx, ebx
  001a7	e8 00 00 00 00	 call	 ?GetDecimalDownCountAndDataType@CRateDrawer@@IBE_NPAVCPacket@@AAVCPrices@@@Z ; CRateDrawer::GetDecimalDownCountAndDataType

; 729  : 	prices.SetPacketType(pPacket->GetType());

  001ac	6a 01		 push	 1
  001ae	8d 45 d4	 lea	 eax, DWORD PTR $T3[ebp]
  001b1	8b ce		 mov	 ecx, esi
  001b3	50		 push	 eax
  001b4	ff 15 00 00 00
	00		 call	 DWORD PTR __imp_?GetType@CPacket@@QAE?AV?$CStringT@DV?$StrTraitMFC_DLL@DV?$ChTraitsCRT@D@ATL@@@@@ATL@@_N@Z

; 91   : 	m_strPacketType = strPacketType;

  001ba	50		 push	 eax
  001bb	8d 4d b0	 lea	 ecx, DWORD PTR _prices$[ebp+36]

; 729  : 	prices.SetPacketType(pPacket->GetType());

  001be	c6 45 fc 02	 mov	 BYTE PTR __$EHRec$[ebp+8], 2

; 91   : 	m_strPacketType = strPacketType;

  001c2	ff 15 00 00 00
	00		 call	 DWORD PTR __imp_??4?$CStringT@DV?$StrTraitMFC_DLL@DV?$ChTraitsCRT@D@ATL@@@@@ATL@@QAEAAV01@ABV01@@Z

; 729  : 	prices.SetPacketType(pPacket->GetType());

  001c8	8d 4d d4	 lea	 ecx, DWORD PTR $T3[ebp]
  001cb	c6 45 fc 01	 mov	 BYTE PTR __$EHRec$[ebp+8], 1
  001cf	ff 15 00 00 00
	00		 call	 DWORD PTR __imp_??1?$CStringT@DV?$StrTraitMFC_DLL@DV?$ChTraitsCRT@D@ATL@@@@@ATL@@QAE@XZ

; 730  : 
; 731  : 	prices.SetPipSize(CDataConversion::GetDataType(prices.GetPacketType()));

  001d5	51		 push	 ecx
  001d6	8b cc		 mov	 ecx, esp

; 127  : 	return m_strPacketType;

  001d8	8d 45 b0	 lea	 eax, DWORD PTR _prices$[ebp+36]
  001db	50		 push	 eax

; 730  : 
; 731  : 	prices.SetPipSize(CDataConversion::GetDataType(prices.GetPacketType()));

  001dc	89 4d d4	 mov	 DWORD PTR ___$ReturnUdt$[ebp], ecx

; 127  : 	return m_strPacketType;

  001df	ff 15 00 00 00
	00		 call	 DWORD PTR __imp_??0?$CStringT@DV?$StrTraitMFC_DLL@DV?$ChTraitsCRT@D@ATL@@@@@ATL@@QAE@ABV01@@Z

; 730  : 
; 731  : 	prices.SetPipSize(CDataConversion::GetDataType(prices.GetPacketType()));

  001e5	e8 00 00 00 00	 call	 ?GetDataType@CDataConversion@@SANV?$CStringT@DV?$StrTraitMFC_DLL@DV?$ChTraitsCRT@D@ATL@@@@@ATL@@@Z ; CDataConversion::GetDataType
  001ea	dd 5d d0	 fstp	 QWORD PTR tv251[ebp]

; 81   : 	m_dPipSize = dPipSize;

  001ed	f2 0f 10 45 d0	 movsd	 xmm0, QWORD PTR tv251[ebp]
  001f2	0f 57 c9	 xorps	 xmm1, xmm1

; 730  : 
; 731  : 	prices.SetPipSize(CDataConversion::GetDataType(prices.GetPacketType()));

  001f5	83 c4 04	 add	 esp, 4

; 81   : 	m_dPipSize = dPipSize;

  001f8	f2 0f 11 45 a4	 movsd	 QWORD PTR _prices$[ebp+24], xmm0

; 732  : 	if( prices.GetPipSize() <= 0) prices.SetPipSize(0.00001);

  001fd	66 0f 2f c8	 comisd	 xmm1, xmm0
  00201	72 0d		 jb	 SHORT $LN14@GetText

; 81   : 	m_dPipSize = dPipSize;

  00203	f2 0f 10 05 00
	00 00 00	 movsd	 xmm0, QWORD PTR __real@3ee4f8b588e368f1
  0020b	f2 0f 11 45 a4	 movsd	 QWORD PTR _prices$[ebp+24], xmm0
$LN14@GetText:

; 127  : 	return m_strPacketType;

  00210	8d 45 b0	 lea	 eax, DWORD PTR _prices$[ebp+36]
  00213	50		 push	 eax
  00214	8d 4d dc	 lea	 ecx, DWORD PTR $T5[ebp]
  00217	ff 15 00 00 00
	00		 call	 DWORD PTR __imp_??0?$CStringT@DV?$StrTraitMFC_DLL@DV?$ChTraitsCRT@D@ATL@@@@@ATL@@QAE@ABV01@@Z

; 733  : 
; 734  : 
; 735  : 	// (2010/8/4 - Seung-Won, Bae) for '%' Scale.
; 736  : 	if( 0 < prices.GetPacketType().Find( '%'))

  0021d	6a 00		 push	 0
  0021f	6a 25		 push	 37			; 00000025H
  00221	8d 4d dc	 lea	 ecx, DWORD PTR $T5[ebp]
  00224	ff 15 00 00 00
	00		 call	 DWORD PTR __imp_?Find@?$CStringT@DV?$StrTraitMFC_DLL@DV?$ChTraitsCRT@D@ATL@@@@@ATL@@QBEHDH@Z
  0022a	8d 4d dc	 lea	 ecx, DWORD PTR $T5[ebp]
  0022d	8b f0		 mov	 esi, eax
  0022f	ff 15 00 00 00
	00		 call	 DWORD PTR __imp_??1?$CStringT@DV?$StrTraitMFC_DLL@DV?$ChTraitsCRT@D@ATL@@@@@ATL@@QAE@XZ
  00235	85 f6		 test	 esi, esi
  00237	7e 0a		 jle	 SHORT $LN16@GetText

; 737  : 	{
; 738  : 		if( 0 == nCurDataType % 2)	nCurDataType = 0;

  00239	8b 7d c8	 mov	 edi, DWORD PTR tv404[ebp]
  0023c	f7 df		 neg	 edi
  0023e	1b ff		 sbb	 edi, edi
  00240	83 e7 03	 and	 edi, 3
$LN16@GetText:

; 739  : 		else						nCurDataType = 3;
; 740  : 	}
; 741  : 
; 742  : 	return GetText(textData.GetRegion(), prices, nCurDataType, strCurPrice, strDiffPrice, strPipPrice, strRiseFallRate);

  00243	ff 75 c4	 push	 DWORD PTR _strRiseFallRate$GSCopy$1$[ebp]
  00246	8b 4d b4	 mov	 ecx, DWORD PTR _textData$GSCopy$1$[ebp]
  00249	8d 45 8c	 lea	 eax, DWORD PTR _prices$[ebp]
  0024c	ff 75 c0	 push	 DWORD PTR _strPipPrice$GSCopy$1$[ebp]
  0024f	ff 75 bc	 push	 DWORD PTR _strDiffPrice$GSCopy$1$[ebp]
  00252	ff 75 b8	 push	 DWORD PTR _strCurPrice$GSCopy$1$[ebp]
  00255	57		 push	 edi
  00256	50		 push	 eax
  00257	8d 45 e0	 lea	 eax, DWORD PTR $T6[ebp]
  0025a	50		 push	 eax
  0025b	e8 00 00 00 00	 call	 ?GetRegion@CTextInRightScaleRegionDrawer@@QBE?AVCRect@@XZ ; CTextInRightScaleRegionDrawer::GetRegion
  00260	50		 push	 eax
  00261	8b cb		 mov	 ecx, ebx
  00263	e8 00 00 00 00	 call	 ?GetText@CDataInRightScaleRegionDrawer@@ABE_NABVCRect@@ABVCPrices@@HAAV?$CStringT@DV?$StrTraitMFC_DLL@DV?$ChTraitsCRT@D@ATL@@@@@ATL@@222@Z ; CDataInRightScaleRegionDrawer::GetText
  00268	8a d8		 mov	 bl, al
  0026a	eb 02		 jmp	 SHORT $LN25@GetText
$LN12@GetText:
  0026c	32 db		 xor	 bl, bl
$LN25@GetText:
  0026e	8d 4d b0	 lea	 ecx, DWORD PTR _prices$[ebp+36]
  00271	ff 15 00 00 00
	00		 call	 DWORD PTR __imp_??1?$CStringT@DV?$StrTraitMFC_DLL@DV?$ChTraitsCRT@D@ATL@@@@@ATL@@QAE@XZ
  00277	8d 4d ac	 lea	 ecx, DWORD PTR _prices$[ebp+32]
  0027a	ff 15 00 00 00
	00		 call	 DWORD PTR __imp_??1?$CStringT@DV?$StrTraitMFC_DLL@DV?$ChTraitsCRT@D@ATL@@@@@ATL@@QAE@XZ
  00280	8a c3		 mov	 al, bl
  00282	eb 02		 jmp	 SHORT $LN1@GetText
$LN5@GetText:

; 705  : 	if( pDataList == NULL || pDataList->GetCount() <= 0) return false;

  00284	32 c0		 xor	 al, al
$LN1@GetText:

; 743  : }

  00286	8b 4d f4	 mov	 ecx, DWORD PTR __$EHRec$[ebp]
  00289	64 89 0d 00 00
	00 00		 mov	 DWORD PTR fs:0, ecx
  00290	59		 pop	 ecx
  00291	5f		 pop	 edi
  00292	5e		 pop	 esi
  00293	5b		 pop	 ebx
  00294	8b 4d f0	 mov	 ecx, DWORD PTR __$ArrayPad$[ebp]
  00297	33 cd		 xor	 ecx, ebp
  00299	e8 00 00 00 00	 call	 @__security_check_cookie@4
  0029e	8b e5		 mov	 esp, ebp
  002a0	5d		 pop	 ebp
  002a1	c2 14 00	 ret	 20			; 00000014H
_TEXT	ENDS
;	COMDAT text$x
text$x	SEGMENT
__unwindfunclet$?GetText@CDataInRightScaleRegionDrawer@@QBE_NABVCTextInRightScaleRegionDrawer@@AAV?$CStringT@DV?$StrTraitMFC_DLL@DV?$ChTraitsCRT@D@ATL@@@@@ATL@@111@Z$0:
  00000	8d 4d cc	 lea	 ecx, DWORD PTR $T2[ebp]
  00003	ff 25 00 00 00
	00		 jmp	 DWORD PTR __imp_??1?$CStringT@DV?$StrTraitMFC_DLL@DV?$ChTraitsCRT@D@ATL@@@@@ATL@@QAE@XZ
__unwindfunclet$?GetText@CDataInRightScaleRegionDrawer@@QBE_NABVCTextInRightScaleRegionDrawer@@AAV?$CStringT@DV?$StrTraitMFC_DLL@DV?$ChTraitsCRT@D@ATL@@@@@ATL@@111@Z$1:
  00009	8d 4d 8c	 lea	 ecx, DWORD PTR _prices$[ebp]
  0000c	e9 00 00 00 00	 jmp	 ??1CPrices@@QAE@XZ
__unwindfunclet$?GetText@CDataInRightScaleRegionDrawer@@QBE_NABVCTextInRightScaleRegionDrawer@@AAV?$CStringT@DV?$StrTraitMFC_DLL@DV?$ChTraitsCRT@D@ATL@@@@@ATL@@111@Z$2:
  00011	8d 4d d4	 lea	 ecx, DWORD PTR $T3[ebp]
  00014	ff 25 00 00 00
	00		 jmp	 DWORD PTR __imp_??1?$CStringT@DV?$StrTraitMFC_DLL@DV?$ChTraitsCRT@D@ATL@@@@@ATL@@QAE@XZ
  0001a	cc		 int	 3
  0001b	cc		 int	 3
  0001c	cc		 int	 3
  0001d	cc		 int	 3
  0001e	cc		 int	 3
__ehhandler$?GetText@CDataInRightScaleRegionDrawer@@QBE_NABVCTextInRightScaleRegionDrawer@@AAV?$CStringT@DV?$StrTraitMFC_DLL@DV?$ChTraitsCRT@D@ATL@@@@@ATL@@111@Z:
  0001f	90		 npad	 1
  00020	90		 npad	 1
  00021	8b 54 24 08	 mov	 edx, DWORD PTR [esp+8]
  00025	8d 42 0c	 lea	 eax, DWORD PTR [edx+12]
  00028	8b 4a 88	 mov	 ecx, DWORD PTR [edx-120]
  0002b	33 c8		 xor	 ecx, eax
  0002d	e8 00 00 00 00	 call	 @__security_check_cookie@4
  00032	8b 4a fc	 mov	 ecx, DWORD PTR [edx-4]
  00035	33 c8		 xor	 ecx, eax
  00037	e8 00 00 00 00	 call	 @__security_check_cookie@4
  0003c	b8 00 00 00 00	 mov	 eax, OFFSET __ehfuncinfo$?GetText@CDataInRightScaleRegionDrawer@@QBE_NABVCTextInRightScaleRegionDrawer@@AAV?$CStringT@DV?$StrTraitMFC_DLL@DV?$ChTraitsCRT@D@ATL@@@@@ATL@@111@Z
  00041	e9 00 00 00 00	 jmp	 ___CxxFrameHandler3
text$x	ENDS
?GetText@CDataInRightScaleRegionDrawer@@QBE_NABVCTextInRightScaleRegionDrawer@@AAV?$CStringT@DV?$StrTraitMFC_DLL@DV?$ChTraitsCRT@D@ATL@@@@@ATL@@111@Z ENDP ; CDataInRightScaleRegionDrawer::GetText
; Function compile flags: /Ogtp
; File D:\git\src\IBK\IBK_DRFN\ProjSrc\SrcChartEx\ChartOCX\GraphDraw\GraphDataDrawer.cpp
;	COMDAT ?DrawData@CDataInRightScaleRegionDrawer@@QAEXPAVCDC@@ABVCRect@@ABVCDisplayAttributes@@ABVCDrawingGraphData@@ABVCGraphColor@@ABVCPrices@@@Z
_TEXT	SEGMENT
_prices$ = -100						; size = 40
_this$GSCopy$1$ = -60					; size = 4
_nCurDataType$1$ = -56					; size = 4
_pricesInView$GSCopy$1$ = -52				; size = 4
$T2 = -48						; size = 4
_pDC$GSCopy$1$ = -44					; size = 4
_graphColor$GSCopy$1$ = -40				; size = 4
_strPacketType$ = -36					; size = 4
$T3 = -32						; size = 16
$T4 = -32						; size = 16
$T5 = -28						; size = 12
__$ArrayPad$ = -16					; size = 4
__$EHRec$ = -12						; size = 12
_pDC$ = 8						; size = 4
_region$ = 12						; size = 4
_displayAttributes$ = 16				; size = 4
_drawingGraphData$ = 20					; size = 4
_graphColor$ = 24					; size = 4
_pricesInView$ = 28					; size = 4
?DrawData@CDataInRightScaleRegionDrawer@@QAEXPAVCDC@@ABVCRect@@ABVCDisplayAttributes@@ABVCDrawingGraphData@@ABVCGraphColor@@ABVCPrices@@@Z PROC ; CDataInRightScaleRegionDrawer::DrawData, COMDAT
; _this$ = ecx

; 668  : {

  00000	55		 push	 ebp
  00001	8b ec		 mov	 ebp, esp
  00003	6a ff		 push	 -1
  00005	68 00 00 00 00	 push	 __ehhandler$?DrawData@CDataInRightScaleRegionDrawer@@QAEXPAVCDC@@ABVCRect@@ABVCDisplayAttributes@@ABVCDrawingGraphData@@ABVCGraphColor@@ABVCPrices@@@Z
  0000a	64 a1 00 00 00
	00		 mov	 eax, DWORD PTR fs:0
  00010	50		 push	 eax
  00011	83 ec 58	 sub	 esp, 88			; 00000058H
  00014	a1 00 00 00 00	 mov	 eax, DWORD PTR ___security_cookie
  00019	33 c5		 xor	 eax, ebp
  0001b	89 45 f0	 mov	 DWORD PTR __$ArrayPad$[ebp], eax
  0001e	53		 push	 ebx
  0001f	56		 push	 esi
  00020	57		 push	 edi
  00021	50		 push	 eax
  00022	8d 45 f4	 lea	 eax, DWORD PTR __$EHRec$[ebp]
  00025	64 a3 00 00 00
	00		 mov	 DWORD PTR fs:0, eax
  0002b	8b f1		 mov	 esi, ecx
  0002d	89 75 c4	 mov	 DWORD PTR _this$GSCopy$1$[ebp], esi
  00030	8b 45 08	 mov	 eax, DWORD PTR _pDC$[ebp]

; 51   : {

  00033	8d 4d bc	 lea	 ecx, DWORD PTR _prices$[ebp+32]

; 668  : {

  00036	8b 5d 10	 mov	 ebx, DWORD PTR _displayAttributes$[ebp]
  00039	0f 57 c0	 xorps	 xmm0, xmm0
  0003c	8b 7d 14	 mov	 edi, DWORD PTR _drawingGraphData$[ebp]
  0003f	89 45 d4	 mov	 DWORD PTR _pDC$GSCopy$1$[ebp], eax
  00042	8b 45 18	 mov	 eax, DWORD PTR _graphColor$[ebp]
  00045	89 45 d8	 mov	 DWORD PTR _graphColor$GSCopy$1$[ebp], eax
  00048	8b 45 1c	 mov	 eax, DWORD PTR _pricesInView$[ebp]
  0004b	89 45 cc	 mov	 DWORD PTR _pricesInView$GSCopy$1$[ebp], eax

; 47   : 	m_dPrevPrice(0.0),

  0004e	0f 11 45 9c	 movups	 XMMWORD PTR _prices$[ebp], xmm0

; 48   : 	m_dCurPrice(0.0),
; 49   : 	m_nDecimalDownCount(0),

  00052	c7 45 ac 00 00
	00 00		 mov	 DWORD PTR _prices$[ebp+16], 0

; 50   : 	m_dPipSize(0.0)

  00059	f2 0f 11 45 b4	 movsd	 QWORD PTR _prices$[ebp+24], xmm0

; 51   : {

  0005e	ff 15 00 00 00
	00		 call	 DWORD PTR __imp_??0?$CStringT@DV?$StrTraitMFC_DLL@DV?$ChTraitsCRT@D@ATL@@@@@ATL@@QAE@XZ
  00064	8d 4d c0	 lea	 ecx, DWORD PTR _prices$[ebp+36]
  00067	ff 15 00 00 00
	00		 call	 DWORD PTR __imp_??0?$CStringT@DV?$StrTraitMFC_DLL@DV?$ChTraitsCRT@D@ATL@@@@@ATL@@QAE@XZ

; 669  : 	CPrices prices;
; 670  : 	CString strPacketType;

  0006d	8d 4d dc	 lea	 ecx, DWORD PTR _strPacketType$[ebp]
  00070	c7 45 fc 00 00
	00 00		 mov	 DWORD PTR __$EHRec$[ebp+8], 0
  00077	ff 15 00 00 00
	00		 call	 DWORD PTR __imp_??0?$CStringT@DV?$StrTraitMFC_DLL@DV?$ChTraitsCRT@D@ATL@@@@@ATL@@QAE@XZ

; 846  : 	int nCurDataType = drawingGraphData.GetGraphDataDrawingData().GetCalcRiseFallRate_CurData();

  0007d	8d 45 e4	 lea	 eax, DWORD PTR $T5[ebp]

; 669  : 	CPrices prices;
; 670  : 	CString strPacketType;

  00080	c6 45 fc 01	 mov	 BYTE PTR __$EHRec$[ebp+8], 1

; 846  : 	int nCurDataType = drawingGraphData.GetGraphDataDrawingData().GetCalcRiseFallRate_CurData();

  00084	50		 push	 eax
  00085	8b cf		 mov	 ecx, edi
  00087	e8 00 00 00 00	 call	 ?GetGraphDataDrawingData@CDrawingGraphData@@QBE?AVCGraphDataDrawingData@@XZ ; CDrawingGraphData::GetGraphDataDrawingData
  0008c	8b c8		 mov	 ecx, eax
  0008e	ff 15 00 00 00
	00		 call	 DWORD PTR __imp_?GetCalcRiseFallRate_CurData@CGraphDataDrawingData@@QBEHXZ
  00094	89 45 c8	 mov	 DWORD PTR _nCurDataType$1$[ebp], eax

; 847  : 	if(nCurDataType <= 0)

  00097	85 c0		 test	 eax, eax
  00099	0f 8e e7 00 00
	00		 jle	 $LN24@DrawData

; 848  : 		return false;
; 849  : 	
; 850  : 	CPacket* pPacket = GetPacket(drawingGraphData);

  0009f	57		 push	 edi
  000a0	8b ce		 mov	 ecx, esi
  000a2	e8 00 00 00 00	 call	 ?GetPacket@CDataInRightScaleRegionDrawer@@QBEPAVCPacket@@ABVCDrawingGraphData@@@Z ; CDataInRightScaleRegionDrawer::GetPacket

; 851  : 	int nDataEnd = CRateDrawer::GetRealDataEnd(pPacket, displayAttributes.GetDataEndInBlock());

  000a7	8b cb		 mov	 ecx, ebx
  000a9	8b f0		 mov	 esi, eax
  000ab	e8 00 00 00 00	 call	 ?GetDataEndInBlock@CDisplayAttributes@@QBEHXZ ; CDisplayAttributes::GetDataEndInBlock
  000b0	8b d8		 mov	 ebx, eax

; 318  : 	if(pPacket == NULL || pPacket->GetnumericDataList() == NULL)

  000b2	85 f6		 test	 esi, esi
  000b4	74 4d		 je	 SHORT $LN11@DrawData
  000b6	8b ce		 mov	 ecx, esi
  000b8	ff 15 00 00 00
	00		 call	 DWORD PTR __imp_?GetnumericDataList@CPacket@@QAEPAV?$CList@NN@@XZ
  000be	85 c0		 test	 eax, eax
  000c0	74 14		 je	 SHORT $LN16@DrawData

; 319  : 		return nDataEnd;
; 320  : 
; 321  : 	int nDataCount = pPacket->GetnumericDataList()->GetCount();

  000c2	8b ce		 mov	 ecx, esi
  000c4	ff 15 00 00 00
	00		 call	 DWORD PTR __imp_?GetnumericDataList@CPacket@@QAEPAV?$CList@NN@@XZ
  000ca	8b 40 0c	 mov	 eax, DWORD PTR [eax+12]

; 322  : 	if(nDataEnd >= nDataCount)

  000cd	3b d8		 cmp	 ebx, eax
  000cf	7c 09		 jl	 SHORT $LN29@DrawData

; 323  : 		return (nDataCount - 1);

  000d1	8d 58 ff	 lea	 ebx, DWORD PTR [eax-1]
  000d4	eb 04		 jmp	 SHORT $LN29@DrawData
$LN16@DrawData:

; 853  : 	if( pPacket) p_strPacketType = pPacket->GetType();

  000d6	85 f6		 test	 esi, esi
  000d8	74 29		 je	 SHORT $LN11@DrawData
$LN29@DrawData:
  000da	6a 01		 push	 1
  000dc	8d 45 d0	 lea	 eax, DWORD PTR $T2[ebp]
  000df	8b ce		 mov	 ecx, esi
  000e1	50		 push	 eax
  000e2	ff 15 00 00 00
	00		 call	 DWORD PTR __imp_?GetType@CPacket@@QAE?AV?$CStringT@DV?$StrTraitMFC_DLL@DV?$ChTraitsCRT@D@ATL@@@@@ATL@@_N@Z
  000e8	50		 push	 eax
  000e9	8d 4d dc	 lea	 ecx, DWORD PTR _strPacketType$[ebp]
  000ec	c6 45 fc 02	 mov	 BYTE PTR __$EHRec$[ebp+8], 2
  000f0	ff 15 00 00 00
	00		 call	 DWORD PTR __imp_??4?$CStringT@DV?$StrTraitMFC_DLL@DV?$ChTraitsCRT@D@ATL@@@@@ATL@@QAEAAV01@ABV01@@Z
  000f6	8d 4d d0	 lea	 ecx, DWORD PTR $T2[ebp]
  000f9	c6 45 fc 01	 mov	 BYTE PTR __$EHRec$[ebp+8], 1
  000fd	ff 15 00 00 00
	00		 call	 DWORD PTR __imp_??1?$CStringT@DV?$StrTraitMFC_DLL@DV?$ChTraitsCRT@D@ATL@@@@@ATL@@QAE@XZ
$LN11@DrawData:

; 854  : 	return GetDrawingDatas(pPacket, nDataEnd, nCurDataType, pricesInView, prices);

  00103	8d 45 9c	 lea	 eax, DWORD PTR _prices$[ebp]
  00106	50		 push	 eax
  00107	ff 75 cc	 push	 DWORD PTR _pricesInView$GSCopy$1$[ebp]
  0010a	ff 75 c8	 push	 DWORD PTR _nCurDataType$1$[ebp]
  0010d	53		 push	 ebx
  0010e	8b 5d c4	 mov	 ebx, DWORD PTR _this$GSCopy$1$[ebp]
  00111	8b cb		 mov	 ecx, ebx
  00113	56		 push	 esi
  00114	e8 00 00 00 00	 call	 ?GetDrawingDatas@CDataInRightScaleRegionDrawer@@ABE_NPAVCPacket@@HHABVCPrices@@AAV3@@Z ; CDataInRightScaleRegionDrawer::GetDrawingDatas

; 671  : 	if(!GetDrawingDatas(displayAttributes, drawingGraphData, pricesInView, prices, strPacketType))

  00119	84 c0		 test	 al, al
  0011b	74 69		 je	 SHORT $LN24@DrawData

; 751  : 	if(drawingGraphData.GetVertScalePosition() == CScaleBaseData::VERTSCALEPOSITION::VERT_BOTH)

  0011d	83 bf e0 00 00
	00 02		 cmp	 DWORD PTR [edi+224], 2
  00124	8d 45 e0	 lea	 eax, DWORD PTR $T4[ebp]
  00127	8b cf		 mov	 ecx, edi
  00129	50		 push	 eax
  0012a	75 3b		 jne	 SHORT $LN23@DrawData

; 752  : 	{
; 753  : 		DrawData(pDC, region, drawingGraphData, graphColor, prices, p_strPacketType, drawingGraphData.GetLeftScaleTextRegion());

  0012c	e8 00 00 00 00	 call	 ?GetLeftScaleTextRegion@CDrawingGraphData@@QBE?AVCRect@@XZ ; CDrawingGraphData::GetLeftScaleTextRegion
  00131	8b 75 0c	 mov	 esi, DWORD PTR _region$[ebp]
  00134	8b cb		 mov	 ecx, ebx
  00136	50		 push	 eax
  00137	8d 45 dc	 lea	 eax, DWORD PTR _strPacketType$[ebp]
  0013a	50		 push	 eax
  0013b	8d 45 9c	 lea	 eax, DWORD PTR _prices$[ebp]
  0013e	50		 push	 eax
  0013f	ff 75 d8	 push	 DWORD PTR _graphColor$GSCopy$1$[ebp]
  00142	57		 push	 edi
  00143	56		 push	 esi
  00144	ff 75 d4	 push	 DWORD PTR _pDC$GSCopy$1$[ebp]
  00147	e8 00 00 00 00	 call	 ?DrawData@CDataInRightScaleRegionDrawer@@AAEXPAVCDC@@ABVCRect@@ABVCDrawingGraphData@@ABVCGraphColor@@ABVCPrices@@AAV?$CStringT@DV?$StrTraitMFC_DLL@DV?$ChTraitsCRT@D@ATL@@@@@ATL@@AAV3@@Z ; CDataInRightScaleRegionDrawer::DrawData

; 754  : 		DrawData(pDC, region, drawingGraphData, graphColor, prices, p_strPacketType, drawingGraphData.GetRightScaleTextRegion());

  0014c	8d 45 e0	 lea	 eax, DWORD PTR $T3[ebp]
  0014f	8b cf		 mov	 ecx, edi
  00151	50		 push	 eax
  00152	e8 00 00 00 00	 call	 ?GetRightScaleTextRegion@CDrawingGraphData@@QBE?AVCRect@@XZ ; CDrawingGraphData::GetRightScaleTextRegion
  00157	50		 push	 eax
  00158	8d 45 dc	 lea	 eax, DWORD PTR _strPacketType$[ebp]
  0015b	50		 push	 eax
  0015c	8d 45 9c	 lea	 eax, DWORD PTR _prices$[ebp]
  0015f	50		 push	 eax
  00160	ff 75 d8	 push	 DWORD PTR _graphColor$GSCopy$1$[ebp]
  00163	57		 push	 edi
  00164	56		 push	 esi

; 755  : 	}

  00165	eb 15		 jmp	 SHORT $LN32@DrawData
$LN23@DrawData:

; 756  : 	else
; 757  : 	{
; 758  : 		DrawData(pDC, region, drawingGraphData, graphColor, prices, p_strPacketType, drawingGraphData.GetScaleTextRegion());

  00167	e8 00 00 00 00	 call	 ?GetScaleTextRegion@CDrawingGraphData@@QBE?AVCRect@@XZ ; CDrawingGraphData::GetScaleTextRegion
  0016c	50		 push	 eax
  0016d	8d 45 dc	 lea	 eax, DWORD PTR _strPacketType$[ebp]
  00170	50		 push	 eax
  00171	8d 45 9c	 lea	 eax, DWORD PTR _prices$[ebp]
  00174	50		 push	 eax
  00175	ff 75 d8	 push	 DWORD PTR _graphColor$GSCopy$1$[ebp]
  00178	57		 push	 edi
  00179	ff 75 0c	 push	 DWORD PTR _region$[ebp]
$LN32@DrawData:

; 672  : 		return;
; 673  : 
; 674  : 	DrawData(pDC, region, drawingGraphData, graphColor, prices, strPacketType);
; 675  : }

  0017c	ff 75 d4	 push	 DWORD PTR _pDC$GSCopy$1$[ebp]
  0017f	8b cb		 mov	 ecx, ebx
  00181	e8 00 00 00 00	 call	 ?DrawData@CDataInRightScaleRegionDrawer@@AAEXPAVCDC@@ABVCRect@@ABVCDrawingGraphData@@ABVCGraphColor@@ABVCPrices@@AAV?$CStringT@DV?$StrTraitMFC_DLL@DV?$ChTraitsCRT@D@ATL@@@@@ATL@@AAV3@@Z ; CDataInRightScaleRegionDrawer::DrawData
$LN24@DrawData:
  00186	8d 4d dc	 lea	 ecx, DWORD PTR _strPacketType$[ebp]
  00189	ff 15 00 00 00
	00		 call	 DWORD PTR __imp_??1?$CStringT@DV?$StrTraitMFC_DLL@DV?$ChTraitsCRT@D@ATL@@@@@ATL@@QAE@XZ
  0018f	8d 4d c0	 lea	 ecx, DWORD PTR _prices$[ebp+36]
  00192	ff 15 00 00 00
	00		 call	 DWORD PTR __imp_??1?$CStringT@DV?$StrTraitMFC_DLL@DV?$ChTraitsCRT@D@ATL@@@@@ATL@@QAE@XZ
  00198	8d 4d bc	 lea	 ecx, DWORD PTR _prices$[ebp+32]
  0019b	ff 15 00 00 00
	00		 call	 DWORD PTR __imp_??1?$CStringT@DV?$StrTraitMFC_DLL@DV?$ChTraitsCRT@D@ATL@@@@@ATL@@QAE@XZ
  001a1	8b 4d f4	 mov	 ecx, DWORD PTR __$EHRec$[ebp]
  001a4	64 89 0d 00 00
	00 00		 mov	 DWORD PTR fs:0, ecx
  001ab	59		 pop	 ecx
  001ac	5f		 pop	 edi
  001ad	5e		 pop	 esi
  001ae	5b		 pop	 ebx
  001af	8b 4d f0	 mov	 ecx, DWORD PTR __$ArrayPad$[ebp]
  001b2	33 cd		 xor	 ecx, ebp
  001b4	e8 00 00 00 00	 call	 @__security_check_cookie@4
  001b9	8b e5		 mov	 esp, ebp
  001bb	5d		 pop	 ebp
  001bc	c2 18 00	 ret	 24			; 00000018H
_TEXT	ENDS
;	COMDAT text$x
text$x	SEGMENT
__unwindfunclet$?DrawData@CDataInRightScaleRegionDrawer@@QAEXPAVCDC@@ABVCRect@@ABVCDisplayAttributes@@ABVCDrawingGraphData@@ABVCGraphColor@@ABVCPrices@@@Z$0:
  00000	8d 4d 9c	 lea	 ecx, DWORD PTR _prices$[ebp]
  00003	e9 00 00 00 00	 jmp	 ??1CPrices@@QAE@XZ
__unwindfunclet$?DrawData@CDataInRightScaleRegionDrawer@@QAEXPAVCDC@@ABVCRect@@ABVCDisplayAttributes@@ABVCDrawingGraphData@@ABVCGraphColor@@ABVCPrices@@@Z$1:
  00008	8d 4d dc	 lea	 ecx, DWORD PTR _strPacketType$[ebp]
  0000b	ff 25 00 00 00
	00		 jmp	 DWORD PTR __imp_??1?$CStringT@DV?$StrTraitMFC_DLL@DV?$ChTraitsCRT@D@ATL@@@@@ATL@@QAE@XZ
__unwindfunclet$?DrawData@CDataInRightScaleRegionDrawer@@QAEXPAVCDC@@ABVCRect@@ABVCDisplayAttributes@@ABVCDrawingGraphData@@ABVCGraphColor@@ABVCPrices@@@Z$2:
  00011	8d 4d d0	 lea	 ecx, DWORD PTR $T2[ebp]
  00014	ff 25 00 00 00
	00		 jmp	 DWORD PTR __imp_??1?$CStringT@DV?$StrTraitMFC_DLL@DV?$ChTraitsCRT@D@ATL@@@@@ATL@@QAE@XZ
  0001a	cc		 int	 3
  0001b	cc		 int	 3
  0001c	cc		 int	 3
  0001d	cc		 int	 3
  0001e	cc		 int	 3
__ehhandler$?DrawData@CDataInRightScaleRegionDrawer@@QAEXPAVCDC@@ABVCRect@@ABVCDisplayAttributes@@ABVCDrawingGraphData@@ABVCGraphColor@@ABVCPrices@@@Z:
  0001f	90		 npad	 1
  00020	90		 npad	 1
  00021	8b 54 24 08	 mov	 edx, DWORD PTR [esp+8]
  00025	8d 42 0c	 lea	 eax, DWORD PTR [edx+12]
  00028	8b 4a 98	 mov	 ecx, DWORD PTR [edx-104]
  0002b	33 c8		 xor	 ecx, eax
  0002d	e8 00 00 00 00	 call	 @__security_check_cookie@4
  00032	8b 4a fc	 mov	 ecx, DWORD PTR [edx-4]
  00035	33 c8		 xor	 ecx, eax
  00037	e8 00 00 00 00	 call	 @__security_check_cookie@4
  0003c	b8 00 00 00 00	 mov	 eax, OFFSET __ehfuncinfo$?DrawData@CDataInRightScaleRegionDrawer@@QAEXPAVCDC@@ABVCRect@@ABVCDisplayAttributes@@ABVCDrawingGraphData@@ABVCGraphColor@@ABVCPrices@@@Z
  00041	e9 00 00 00 00	 jmp	 ___CxxFrameHandler3
text$x	ENDS
?DrawData@CDataInRightScaleRegionDrawer@@QAEXPAVCDC@@ABVCRect@@ABVCDisplayAttributes@@ABVCDrawingGraphData@@ABVCGraphColor@@ABVCPrices@@@Z ENDP ; CDataInRightScaleRegionDrawer::DrawData
; Function compile flags: /Ogtp
; File D:\git\src\IBK\IBK_DRFN\ProjSrc\SrcChartEx\ChartOCX\GraphDraw\GraphDataDrawer.cpp
;	COMDAT ?GetRateText_PrevCur@CDataInGraphRegionDrawer@@ABE?AV?$CStringT@DV?$StrTraitMFC_DLL@DV?$ChTraitsCRT@D@ATL@@@@@ATL@@ABVCPrices@@@Z
_TEXT	SEGMENT
$T1 = -16						; size = 8
$T2 = -8						; size = 8
___$ReturnUdt$ = 8					; size = 4
_prices$ = 12						; size = 4
?GetRateText_PrevCur@CDataInGraphRegionDrawer@@ABE?AV?$CStringT@DV?$StrTraitMFC_DLL@DV?$ChTraitsCRT@D@ATL@@@@@ATL@@ABVCPrices@@@Z PROC ; CDataInGraphRegionDrawer::GetRateText_PrevCur, COMDAT
; _this$ = ecx

; 658  : {

  00000	55		 push	 ebp
  00001	8b ec		 mov	 ebp, esp
  00003	83 ec 10	 sub	 esp, 16			; 00000010H

; 659  : 	return CRateDrawer::GetRateText(prices.GetPrev(), prices.GetCur());

  00006	8b 45 0c	 mov	 eax, DWORD PTR _prices$[ebp]
  00009	f2 0f 10 40 08	 movsd	 xmm0, QWORD PTR [eax+8]
  0000e	f2 0f 11 45 f8	 movsd	 QWORD PTR $T2[ebp], xmm0
  00013	f2 0f 10 00	 movsd	 xmm0, QWORD PTR [eax]
  00017	8d 45 f8	 lea	 eax, DWORD PTR $T2[ebp]
  0001a	50		 push	 eax
  0001b	8d 45 f0	 lea	 eax, DWORD PTR $T1[ebp]
  0001e	f2 0f 11 45 f0	 movsd	 QWORD PTR $T1[ebp], xmm0
  00023	50		 push	 eax
  00024	ff 75 08	 push	 DWORD PTR ___$ReturnUdt$[ebp]
  00027	e8 00 00 00 00	 call	 ?GetRateText@CRateDrawer@@IBE?AV?$CStringT@DV?$StrTraitMFC_DLL@DV?$ChTraitsCRT@D@ATL@@@@@ATL@@ABN0@Z ; CRateDrawer::GetRateText
  0002c	8b 45 08	 mov	 eax, DWORD PTR ___$ReturnUdt$[ebp]

; 660  : }

  0002f	8b e5		 mov	 esp, ebp
  00031	5d		 pop	 ebp
  00032	c2 08 00	 ret	 8
?GetRateText_PrevCur@CDataInGraphRegionDrawer@@ABE?AV?$CStringT@DV?$StrTraitMFC_DLL@DV?$ChTraitsCRT@D@ATL@@@@@ATL@@ABVCPrices@@@Z ENDP ; CDataInGraphRegionDrawer::GetRateText_PrevCur
_TEXT	ENDS
; Function compile flags: /Ogtp
; File D:\git\src\IBK\IBK_DRFN\ProjSrc\SrcChartEx\ChartOCX\GraphDraw\GraphDataDrawer.cpp
;	COMDAT ?GetRiseFallRateText_HighCur@CDataInGraphRegionDrawer@@ABE?AV?$CStringT@DV?$StrTraitMFC_DLL@DV?$ChTraitsCRT@D@ATL@@@@@ATL@@ABN0@Z
_TEXT	SEGMENT
$T1 = -8						; size = 8
___$ReturnUdt$ = 8					; size = 4
_dHigh$ = 12						; size = 4
_dCur$ = 16						; size = 4
?GetRiseFallRateText_HighCur@CDataInGraphRegionDrawer@@ABE?AV?$CStringT@DV?$StrTraitMFC_DLL@DV?$ChTraitsCRT@D@ATL@@@@@ATL@@ABN0@Z PROC ; CDataInGraphRegionDrawer::GetRiseFallRateText_HighCur, COMDAT
; _this$ = ecx

; 652  : {

  00000	55		 push	 ebp
  00001	8b ec		 mov	 ebp, esp
  00003	83 ec 08	 sub	 esp, 8

; 653  : 	return CRateDrawer::GetRateText(dHigh, (dCur - dHigh));

  00006	8b 45 10	 mov	 eax, DWORD PTR _dCur$[ebp]
  00009	8d 55 f8	 lea	 edx, DWORD PTR $T1[ebp]
  0000c	52		 push	 edx
  0000d	f2 0f 10 00	 movsd	 xmm0, QWORD PTR [eax]
  00011	8b 45 0c	 mov	 eax, DWORD PTR _dHigh$[ebp]
  00014	50		 push	 eax
  00015	ff 75 08	 push	 DWORD PTR ___$ReturnUdt$[ebp]
  00018	f2 0f 5c 00	 subsd	 xmm0, QWORD PTR [eax]
  0001c	f2 0f 11 45 f8	 movsd	 QWORD PTR $T1[ebp], xmm0
  00021	e8 00 00 00 00	 call	 ?GetRateText@CRateDrawer@@IBE?AV?$CStringT@DV?$StrTraitMFC_DLL@DV?$ChTraitsCRT@D@ATL@@@@@ATL@@ABN0@Z ; CRateDrawer::GetRateText
  00026	8b 45 08	 mov	 eax, DWORD PTR ___$ReturnUdt$[ebp]

; 654  : }

  00029	8b e5		 mov	 esp, ebp
  0002b	5d		 pop	 ebp
  0002c	c2 0c 00	 ret	 12			; 0000000cH
?GetRiseFallRateText_HighCur@CDataInGraphRegionDrawer@@ABE?AV?$CStringT@DV?$StrTraitMFC_DLL@DV?$ChTraitsCRT@D@ATL@@@@@ATL@@ABN0@Z ENDP ; CDataInGraphRegionDrawer::GetRiseFallRateText_HighCur
_TEXT	ENDS
; Function compile flags: /Ogtp
; File D:\git\src\IBK\IBK_DRFN\ProjSrc\SrcChartEx\ChartOCX\GraphDraw\GraphDataDrawer.cpp
;	COMDAT ?GetRiseFallRateText_LowCur@CDataInGraphRegionDrawer@@ABE?AV?$CStringT@DV?$StrTraitMFC_DLL@DV?$ChTraitsCRT@D@ATL@@@@@ATL@@ABN0@Z
_TEXT	SEGMENT
$T1 = -8						; size = 8
___$ReturnUdt$ = 8					; size = 4
_dLow$ = 12						; size = 4
_dCur$ = 16						; size = 4
?GetRiseFallRateText_LowCur@CDataInGraphRegionDrawer@@ABE?AV?$CStringT@DV?$StrTraitMFC_DLL@DV?$ChTraitsCRT@D@ATL@@@@@ATL@@ABN0@Z PROC ; CDataInGraphRegionDrawer::GetRiseFallRateText_LowCur, COMDAT
; _this$ = ecx

; 646  : {

  00000	55		 push	 ebp
  00001	8b ec		 mov	 ebp, esp
  00003	83 ec 08	 sub	 esp, 8

; 647  : 	return CRateDrawer::GetRateText(dLow, (dCur - dLow));

  00006	8b 45 10	 mov	 eax, DWORD PTR _dCur$[ebp]
  00009	8d 55 f8	 lea	 edx, DWORD PTR $T1[ebp]
  0000c	52		 push	 edx
  0000d	f2 0f 10 00	 movsd	 xmm0, QWORD PTR [eax]
  00011	8b 45 0c	 mov	 eax, DWORD PTR _dLow$[ebp]
  00014	50		 push	 eax
  00015	ff 75 08	 push	 DWORD PTR ___$ReturnUdt$[ebp]
  00018	f2 0f 5c 00	 subsd	 xmm0, QWORD PTR [eax]
  0001c	f2 0f 11 45 f8	 movsd	 QWORD PTR $T1[ebp], xmm0
  00021	e8 00 00 00 00	 call	 ?GetRateText@CRateDrawer@@IBE?AV?$CStringT@DV?$StrTraitMFC_DLL@DV?$ChTraitsCRT@D@ATL@@@@@ATL@@ABN0@Z ; CRateDrawer::GetRateText
  00026	8b 45 08	 mov	 eax, DWORD PTR ___$ReturnUdt$[ebp]

; 648  : }

  00029	8b e5		 mov	 esp, ebp
  0002b	5d		 pop	 ebp
  0002c	c2 0c 00	 ret	 12			; 0000000cH
?GetRiseFallRateText_LowCur@CDataInGraphRegionDrawer@@ABE?AV?$CStringT@DV?$StrTraitMFC_DLL@DV?$ChTraitsCRT@D@ATL@@@@@ATL@@ABN0@Z ENDP ; CDataInGraphRegionDrawer::GetRiseFallRateText_LowCur
_TEXT	ENDS
; Function compile flags: /Ogtp
; File D:\git\src\IBK\IBK_DRFN\ProjSrc\SrcChartEx\ChartOCX\GraphDraw\GraphDataDrawer.cpp
;	COMDAT ?GetRiseFallRateText_LowHigh@CDataInGraphRegionDrawer@@ABE?AV?$CStringT@DV?$StrTraitMFC_DLL@DV?$ChTraitsCRT@D@ATL@@@@@ATL@@ABVCDisplayDataMinMax@@@Z
_TEXT	SEGMENT
$T1 = -16						; size = 8
$T2 = -8						; size = 8
___$ReturnUdt$ = 8					; size = 4
_curMinMax$ = 12					; size = 4
?GetRiseFallRateText_LowHigh@CDataInGraphRegionDrawer@@ABE?AV?$CStringT@DV?$StrTraitMFC_DLL@DV?$ChTraitsCRT@D@ATL@@@@@ATL@@ABVCDisplayDataMinMax@@@Z PROC ; CDataInGraphRegionDrawer::GetRiseFallRateText_LowHigh, COMDAT
; _this$ = ecx

; 640  : {

  00000	55		 push	 ebp
  00001	8b ec		 mov	 ebp, esp
  00003	83 ec 10	 sub	 esp, 16			; 00000010H
  00006	56		 push	 esi
  00007	57		 push	 edi
  00008	8b f9		 mov	 edi, ecx

; 641  : 	return CRateDrawer::GetRateText(curMinMax.GetDisplayMin(), curMinMax.GetCount());

  0000a	8b 4d 0c	 mov	 ecx, DWORD PTR _curMinMax$[ebp]
  0000d	ff 15 00 00 00
	00		 call	 DWORD PTR __imp_?GetCount@CDisplayDataMinMax@@QBENXZ
  00013	8b 4d 0c	 mov	 ecx, DWORD PTR _curMinMax$[ebp]
  00016	dd 5d f8	 fstp	 QWORD PTR $T2[ebp]
  00019	ff 15 00 00 00
	00		 call	 DWORD PTR __imp_?GetDisplayMin@CDisplayDataMinMax@@QBENXZ
  0001f	8b 75 08	 mov	 esi, DWORD PTR ___$ReturnUdt$[ebp]
  00022	8d 45 f8	 lea	 eax, DWORD PTR $T2[ebp]
  00025	50		 push	 eax
  00026	8d 45 f0	 lea	 eax, DWORD PTR $T1[ebp]
  00029	8b cf		 mov	 ecx, edi
  0002b	50		 push	 eax
  0002c	56		 push	 esi
  0002d	dd 5d f0	 fstp	 QWORD PTR $T1[ebp]
  00030	e8 00 00 00 00	 call	 ?GetRateText@CRateDrawer@@IBE?AV?$CStringT@DV?$StrTraitMFC_DLL@DV?$ChTraitsCRT@D@ATL@@@@@ATL@@ABN0@Z ; CRateDrawer::GetRateText
  00035	5f		 pop	 edi
  00036	8b c6		 mov	 eax, esi
  00038	5e		 pop	 esi

; 642  : }

  00039	8b e5		 mov	 esp, ebp
  0003b	5d		 pop	 ebp
  0003c	c2 08 00	 ret	 8
?GetRiseFallRateText_LowHigh@CDataInGraphRegionDrawer@@ABE?AV?$CStringT@DV?$StrTraitMFC_DLL@DV?$ChTraitsCRT@D@ATL@@@@@ATL@@ABVCDisplayDataMinMax@@@Z ENDP ; CDataInGraphRegionDrawer::GetRiseFallRateText_LowHigh
_TEXT	ENDS
; Function compile flags: /Ogtp
; File D:\git\src\IBK\IBK_DRFN\ProjSrc\SrcChartEx\ChartOCX\GraphDraw\GraphDataDrawer.cpp
; File C:\Program Files (x86)\Microsoft Visual Studio\2019\Community\VC\Tools\MSVC\14.29.30133\atlmfc\include\atlsimpstr.h
; File D:\git\src\IBK\IBK_DRFN\ProjSrc\SrcChartEx\ChartOCX\GraphDraw\GraphDataDrawer.cpp
; File C:\Program Files (x86)\Microsoft Visual Studio\2019\Community\VC\Tools\MSVC\14.29.30133\atlmfc\include\atlsimpstr.h
; File D:\git\src\IBK\IBK_DRFN\ProjSrc\SrcChartEx\ChartOCX\GraphDraw\GraphDataDrawer.cpp
; File C:\Program Files (x86)\Microsoft Visual Studio\2019\Community\VC\Tools\MSVC\14.29.30133\atlmfc\include\cstringt.h
; File D:\git\src\IBK\IBK_DRFN\ProjSrc\SrcChartEx\ChartOCX\GraphDraw\GraphDataDrawer.cpp
; File C:\Program Files (x86)\Microsoft Visual Studio\2019\Community\VC\Tools\MSVC\14.29.30133\atlmfc\include\cstringt.h
; File C:\Program Files (x86)\Microsoft Visual Studio\2019\Community\VC\Tools\MSVC\14.29.30133\atlmfc\include\atlsimpstr.h
; File C:\Program Files (x86)\Microsoft Visual Studio\2019\Community\VC\Tools\MSVC\14.29.30133\atlmfc\include\cstringt.h
; File D:\git\src\IBK\IBK_DRFN\ProjSrc\SrcChartEx\ChartOCX\GraphDraw\GraphDataDrawer.cpp
; File C:\Program Files (x86)\Microsoft Visual Studio\2019\Community\VC\Tools\MSVC\14.29.30133\atlmfc\include\cstringt.h
; File D:\git\src\IBK\IBK_DRFN\ProjSrc\SrcChartEx\ChartOCX\GraphDraw\GraphDataDrawer.cpp
; File C:\Program Files (x86)\Microsoft Visual Studio\2019\Community\VC\Tools\MSVC\14.29.30133\atlmfc\include\cstringt.h
; File C:\Program Files (x86)\Microsoft Visual Studio\2019\Community\VC\Tools\MSVC\14.29.30133\atlmfc\include\atlsimpstr.h
; File C:\Program Files (x86)\Microsoft Visual Studio\2019\Community\VC\Tools\MSVC\14.29.30133\atlmfc\include\cstringt.h
; File D:\git\src\IBK\IBK_DRFN\ProjSrc\SrcChartEx\ChartOCX\GraphDraw\GraphDataDrawer.cpp
; File C:\Program Files (x86)\Microsoft Visual Studio\2019\Community\VC\Tools\MSVC\14.29.30133\atlmfc\include\cstringt.h
; File D:\git\src\IBK\IBK_DRFN\ProjSrc\SrcChartEx\ChartOCX\GraphDraw\GraphDataDrawer.cpp
;	COMDAT ?GetChangingData@CDataInGraphRegionDrawer@@ABE_NABV?$CStringT@DV?$StrTraitMFC_DLL@DV?$ChTraitsCRT@D@ATL@@@@@ATL@@H_NAAV23@@Z
_TEXT	SEGMENT
$T2 = -24						; size = 4
$T3 = -20						; size = 4
$T4 = -16						; size = 4
__$EHRec$ = -12						; size = 12
_strData$ = 8						; size = 4
_nMaxLength$ = 12					; size = 4
_chTemp$5 = 15						; size = 1
_bIsTail$ = 16						; size = 1
_strChangeData$ = 20					; size = 4
_chTemp$6 = 23						; size = 1
?GetChangingData@CDataInGraphRegionDrawer@@ABE_NABV?$CStringT@DV?$StrTraitMFC_DLL@DV?$ChTraitsCRT@D@ATL@@@@@ATL@@H_NAAV23@@Z PROC ; CDataInGraphRegionDrawer::GetChangingData, COMDAT
; _this$ = ecx

; 625  : {

  00000	55		 push	 ebp
  00001	8b ec		 mov	 ebp, esp
  00003	6a ff		 push	 -1
  00005	68 00 00 00 00	 push	 __ehhandler$?GetChangingData@CDataInGraphRegionDrawer@@ABE_NABV?$CStringT@DV?$StrTraitMFC_DLL@DV?$ChTraitsCRT@D@ATL@@@@@ATL@@H_NAAV23@@Z
  0000a	64 a1 00 00 00
	00		 mov	 eax, DWORD PTR fs:0
  00010	50		 push	 eax
  00011	83 ec 0c	 sub	 esp, 12			; 0000000cH
  00014	53		 push	 ebx
  00015	56		 push	 esi
  00016	57		 push	 edi
  00017	a1 00 00 00 00	 mov	 eax, DWORD PTR ___security_cookie
  0001c	33 c5		 xor	 eax, ebp
  0001e	50		 push	 eax
  0001f	8d 45 f4	 lea	 eax, DWORD PTR __$EHRec$[ebp]
  00022	64 a3 00 00 00
	00		 mov	 DWORD PTR fs:0, eax

; 626  : 	strChangeData = strData;

  00028	8b 7d 08	 mov	 edi, DWORD PTR _strData$[ebp]
  0002b	33 f6		 xor	 esi, esi
  0002d	89 75 e8	 mov	 DWORD PTR $T2[ebp], esi
  00030	8b 5d 14	 mov	 ebx, DWORD PTR _strChangeData$[ebp]
  00033	8b cb		 mov	 ecx, ebx
  00035	57		 push	 edi
  00036	ff 15 00 00 00
	00		 call	 DWORD PTR __imp_??4?$CStringT@DV?$StrTraitMFC_DLL@DV?$ChTraitsCRT@D@ATL@@@@@ATL@@QAEAAV01@ABV01@@Z
; File C:\Program Files (x86)\Microsoft Visual Studio\2019\Community\VC\Tools\MSVC\14.29.30133\atlmfc\include\atlsimpstr.h

; 519  : 		return( GetData()->nDataLength );

  0003c	8b 07		 mov	 eax, DWORD PTR [edi]
; File D:\git\src\IBK\IBK_DRFN\ProjSrc\SrcChartEx\ChartOCX\GraphDraw\GraphDataDrawer.cpp

; 627  : 	for(int nIndex = (strData.GetLength()); nIndex < nMaxLength; nIndex++){

  0003e	8b 7d 0c	 mov	 edi, DWORD PTR _nMaxLength$[ebp]
; File C:\Program Files (x86)\Microsoft Visual Studio\2019\Community\VC\Tools\MSVC\14.29.30133\atlmfc\include\atlsimpstr.h

; 519  : 		return( GetData()->nDataLength );

  00041	8b 40 f4	 mov	 eax, DWORD PTR [eax-12]
; File D:\git\src\IBK\IBK_DRFN\ProjSrc\SrcChartEx\ChartOCX\GraphDraw\GraphDataDrawer.cpp

; 627  : 	for(int nIndex = (strData.GetLength()); nIndex < nMaxLength; nIndex++){

  00044	3b c7		 cmp	 eax, edi
  00046	0f 8d be 00 00
	00		 jge	 $LN3@GetChangin

; 626  : 	strChangeData = strData;

  0004c	2b f8		 sub	 edi, eax
  0004e	66 90		 npad	 2
$LL4@GetChangin:

; 628  : 		if(bIsTail)

  00050	80 7d 10 00	 cmp	 BYTE PTR _bIsTail$[ebp], 0
  00054	74 50		 je	 SHORT $LN5@GetChangin
; File C:\Program Files (x86)\Microsoft Visual Studio\2019\Community\VC\Tools\MSVC\14.29.30133\atlmfc\include\cstringt.h

; 2429 : 		CStringT strResult( str1.GetManager() );

  00056	8b cb		 mov	 ecx, ebx
; File D:\git\src\IBK\IBK_DRFN\ProjSrc\SrcChartEx\ChartOCX\GraphDraw\GraphDataDrawer.cpp

; 629  : 			strChangeData = strChangeData + ' ';

  00058	c7 45 fc 00 00
	00 00		 mov	 DWORD PTR __$EHRec$[ebp+8], 0
; File C:\Program Files (x86)\Microsoft Visual Studio\2019\Community\VC\Tools\MSVC\14.29.30133\atlmfc\include\cstringt.h

; 2429 : 		CStringT strResult( str1.GetManager() );

  0005f	ff 15 00 00 00
	00		 call	 DWORD PTR __imp_?GetManager@?$CStringT@DV?$StrTraitMFC_DLL@DV?$ChTraitsCRT@D@ATL@@@@@ATL@@QBEPAUIAtlStringMgr@2@XZ
  00065	50		 push	 eax
  00066	8d 4d f0	 lea	 ecx, DWORD PTR $T4[ebp]
  00069	ff 15 00 00 00
	00		 call	 DWORD PTR __imp_??0?$CStringT@DV?$StrTraitMFC_DLL@DV?$ChTraitsCRT@D@ATL@@@@@ATL@@QAE@PAUIAtlStringMgr@1@@Z
; File C:\Program Files (x86)\Microsoft Visual Studio\2019\Community\VC\Tools\MSVC\14.29.30133\atlmfc\include\atlsimpstr.h

; 519  : 		return( GetData()->nDataLength );

  0006f	8b 03		 mov	 eax, DWORD PTR [ebx]
; File C:\Program Files (x86)\Microsoft Visual Studio\2019\Community\VC\Tools\MSVC\14.29.30133\atlmfc\include\cstringt.h

; 2432 : 		CThisSimpleString::Concatenate( strResult, str1, str1.GetLength(), &chTemp, 1 );

  00071	8d 4d 17	 lea	 ecx, DWORD PTR _chTemp$6[ebp]
  00074	6a 01		 push	 1
  00076	51		 push	 ecx
  00077	c6 45 17 20	 mov	 BYTE PTR _chTemp$6[ebp], 32 ; 00000020H

; 2433 : 
; 2434 : 		return( strResult );

  0007b	83 ce 01	 or	 esi, 1
  0007e	ff 70 f4	 push	 DWORD PTR [eax-12]
  00081	89 75 e8	 mov	 DWORD PTR $T2[ebp], esi
  00084	50		 push	 eax
  00085	8d 45 f0	 lea	 eax, DWORD PTR $T4[ebp]
  00088	50		 push	 eax
  00089	ff 15 00 00 00
	00		 call	 DWORD PTR __imp_?Concatenate@?$CSimpleStringT@D$00@ATL@@KAXAAV12@PBDH1H@Z
  0008f	83 c4 14	 add	 esp, 20			; 00000014H
; File D:\git\src\IBK\IBK_DRFN\ProjSrc\SrcChartEx\ChartOCX\GraphDraw\GraphDataDrawer.cpp

; 629  : 			strChangeData = strChangeData + ' ';

  00092	8d 45 f0	 lea	 eax, DWORD PTR $T4[ebp]
  00095	8b cb		 mov	 ecx, ebx
  00097	50		 push	 eax
  00098	ff 15 00 00 00
	00		 call	 DWORD PTR __imp_??4?$CStringT@DV?$StrTraitMFC_DLL@DV?$ChTraitsCRT@D@ATL@@@@@ATL@@QAEAAV01@ABV01@@Z
  0009e	83 e6 fe	 and	 esi, -2			; fffffffeH
  000a1	8d 4d f0	 lea	 ecx, DWORD PTR $T4[ebp]
  000a4	eb 4e		 jmp	 SHORT $LN43@GetChangin
$LN5@GetChangin:
; File C:\Program Files (x86)\Microsoft Visual Studio\2019\Community\VC\Tools\MSVC\14.29.30133\atlmfc\include\cstringt.h

; 2441 : 		CStringT strResult( str2.GetManager() );

  000a6	8b cb		 mov	 ecx, ebx
; File D:\git\src\IBK\IBK_DRFN\ProjSrc\SrcChartEx\ChartOCX\GraphDraw\GraphDataDrawer.cpp

; 631  : 			strChangeData = ' ' + strChangeData;

  000a8	c7 45 fc 01 00
	00 00		 mov	 DWORD PTR __$EHRec$[ebp+8], 1
; File C:\Program Files (x86)\Microsoft Visual Studio\2019\Community\VC\Tools\MSVC\14.29.30133\atlmfc\include\cstringt.h

; 2441 : 		CStringT strResult( str2.GetManager() );

  000af	ff 15 00 00 00
	00		 call	 DWORD PTR __imp_?GetManager@?$CStringT@DV?$StrTraitMFC_DLL@DV?$ChTraitsCRT@D@ATL@@@@@ATL@@QBEPAUIAtlStringMgr@2@XZ
  000b5	50		 push	 eax
  000b6	8d 4d ec	 lea	 ecx, DWORD PTR $T3[ebp]
  000b9	ff 15 00 00 00
	00		 call	 DWORD PTR __imp_??0?$CStringT@DV?$StrTraitMFC_DLL@DV?$ChTraitsCRT@D@ATL@@@@@ATL@@QAE@PAUIAtlStringMgr@1@@Z
; File C:\Program Files (x86)\Microsoft Visual Studio\2019\Community\VC\Tools\MSVC\14.29.30133\atlmfc\include\atlsimpstr.h

; 519  : 		return( GetData()->nDataLength );

  000bf	8b 03		 mov	 eax, DWORD PTR [ebx]
; File C:\Program Files (x86)\Microsoft Visual Studio\2019\Community\VC\Tools\MSVC\14.29.30133\atlmfc\include\cstringt.h

; 2446 : 		return( strResult );

  000c1	83 ce 02	 or	 esi, 2
  000c4	c6 45 0f 20	 mov	 BYTE PTR _chTemp$5[ebp], 32 ; 00000020H
  000c8	89 75 e8	 mov	 DWORD PTR $T2[ebp], esi
  000cb	ff 70 f4	 push	 DWORD PTR [eax-12]
  000ce	50		 push	 eax
  000cf	6a 01		 push	 1
  000d1	8d 45 0f	 lea	 eax, DWORD PTR _chTemp$5[ebp]
  000d4	50		 push	 eax
  000d5	8d 45 ec	 lea	 eax, DWORD PTR $T3[ebp]
  000d8	50		 push	 eax
  000d9	ff 15 00 00 00
	00		 call	 DWORD PTR __imp_?Concatenate@?$CSimpleStringT@D$00@ATL@@KAXAAV12@PBDH1H@Z
  000df	83 c4 14	 add	 esp, 20			; 00000014H
; File D:\git\src\IBK\IBK_DRFN\ProjSrc\SrcChartEx\ChartOCX\GraphDraw\GraphDataDrawer.cpp

; 631  : 			strChangeData = ' ' + strChangeData;

  000e2	8d 45 ec	 lea	 eax, DWORD PTR $T3[ebp]
  000e5	8b cb		 mov	 ecx, ebx
  000e7	50		 push	 eax
  000e8	ff 15 00 00 00
	00		 call	 DWORD PTR __imp_??4?$CStringT@DV?$StrTraitMFC_DLL@DV?$ChTraitsCRT@D@ATL@@@@@ATL@@QAEAAV01@ABV01@@Z
  000ee	83 e6 fd	 and	 esi, -3			; fffffffdH
  000f1	8d 4d ec	 lea	 ecx, DWORD PTR $T3[ebp]
$LN43@GetChangin:

; 627  : 	for(int nIndex = (strData.GetLength()); nIndex < nMaxLength; nIndex++){

  000f4	c7 45 fc ff ff
	ff ff		 mov	 DWORD PTR __$EHRec$[ebp+8], -1
  000fb	ff 15 00 00 00
	00		 call	 DWORD PTR __imp_??1?$CStringT@DV?$StrTraitMFC_DLL@DV?$ChTraitsCRT@D@ATL@@@@@ATL@@QAE@XZ
  00101	83 ef 01	 sub	 edi, 1
  00104	0f 85 46 ff ff
	ff		 jne	 $LL4@GetChangin
$LN3@GetChangin:
; File C:\Program Files (x86)\Microsoft Visual Studio\2019\Community\VC\Tools\MSVC\14.29.30133\atlmfc\include\cstringt.h

; 2560 : 		return( str1.Compare( str2 ) != 0 );

  0010a	ff 33		 push	 DWORD PTR [ebx]
  0010c	8b 4d 08	 mov	 ecx, DWORD PTR _strData$[ebp]
  0010f	ff 15 00 00 00
	00		 call	 DWORD PTR __imp_?Compare@?$CStringT@DV?$StrTraitMFC_DLL@DV?$ChTraitsCRT@D@ATL@@@@@ATL@@QBEHPBD@Z
  00115	85 c0		 test	 eax, eax
  00117	0f 95 c0	 setne	 al
; File D:\git\src\IBK\IBK_DRFN\ProjSrc\SrcChartEx\ChartOCX\GraphDraw\GraphDataDrawer.cpp

; 635  : }

  0011a	8b 4d f4	 mov	 ecx, DWORD PTR __$EHRec$[ebp]
  0011d	64 89 0d 00 00
	00 00		 mov	 DWORD PTR fs:0, ecx
  00124	59		 pop	 ecx
  00125	5f		 pop	 edi
  00126	5e		 pop	 esi
  00127	5b		 pop	 ebx
  00128	8b e5		 mov	 esp, ebp
  0012a	5d		 pop	 ebp
  0012b	c2 10 00	 ret	 16			; 00000010H
_TEXT	ENDS
;	COMDAT text$x
text$x	SEGMENT
__unwindfunclet$?GetChangingData@CDataInGraphRegionDrawer@@ABE_NABV?$CStringT@DV?$StrTraitMFC_DLL@DV?$ChTraitsCRT@D@ATL@@@@@ATL@@H_NAAV23@@Z$2:
  00000	8b 45 e8	 mov	 eax, DWORD PTR $T2[ebp]
  00003	83 e0 01	 and	 eax, 1
  00006	0f 84 0d 00 00
	00		 je	 $LN17@GetChangin
  0000c	83 65 e8 fe	 and	 DWORD PTR $T2[ebp], -2	; fffffffeH
  00010	8d 4d f0	 lea	 ecx, DWORD PTR $T4[ebp]
  00013	ff 25 00 00 00
	00		 jmp	 DWORD PTR __imp_??1?$CStringT@DV?$StrTraitMFC_DLL@DV?$ChTraitsCRT@D@ATL@@@@@ATL@@QAE@XZ
$LN17@GetChangin:
  00019	c3		 ret	 0
__unwindfunclet$?GetChangingData@CDataInGraphRegionDrawer@@ABE_NABV?$CStringT@DV?$StrTraitMFC_DLL@DV?$ChTraitsCRT@D@ATL@@@@@ATL@@H_NAAV23@@Z$3:
  0001a	8b 45 e8	 mov	 eax, DWORD PTR $T2[ebp]
  0001d	83 e0 02	 and	 eax, 2
  00020	0f 84 0d 00 00
	00		 je	 $LN27@GetChangin
  00026	83 65 e8 fd	 and	 DWORD PTR $T2[ebp], -3	; fffffffdH
  0002a	8d 4d ec	 lea	 ecx, DWORD PTR $T3[ebp]
  0002d	ff 25 00 00 00
	00		 jmp	 DWORD PTR __imp_??1?$CStringT@DV?$StrTraitMFC_DLL@DV?$ChTraitsCRT@D@ATL@@@@@ATL@@QAE@XZ
$LN27@GetChangin:
  00033	c3		 ret	 0
  00034	cc		 int	 3
  00035	cc		 int	 3
  00036	cc		 int	 3
  00037	cc		 int	 3
  00038	cc		 int	 3
__ehhandler$?GetChangingData@CDataInGraphRegionDrawer@@ABE_NABV?$CStringT@DV?$StrTraitMFC_DLL@DV?$ChTraitsCRT@D@ATL@@@@@ATL@@H_NAAV23@@Z:
  00039	90		 npad	 1
  0003a	90		 npad	 1
  0003b	8b 54 24 08	 mov	 edx, DWORD PTR [esp+8]
  0003f	8d 42 0c	 lea	 eax, DWORD PTR [edx+12]
  00042	8b 4a e4	 mov	 ecx, DWORD PTR [edx-28]
  00045	33 c8		 xor	 ecx, eax
  00047	e8 00 00 00 00	 call	 @__security_check_cookie@4
  0004c	b8 00 00 00 00	 mov	 eax, OFFSET __ehfuncinfo$?GetChangingData@CDataInGraphRegionDrawer@@ABE_NABV?$CStringT@DV?$StrTraitMFC_DLL@DV?$ChTraitsCRT@D@ATL@@@@@ATL@@H_NAAV23@@Z
  00051	e9 00 00 00 00	 jmp	 ___CxxFrameHandler3
text$x	ENDS
?GetChangingData@CDataInGraphRegionDrawer@@ABE_NABV?$CStringT@DV?$StrTraitMFC_DLL@DV?$ChTraitsCRT@D@ATL@@@@@ATL@@H_NAAV23@@Z ENDP ; CDataInGraphRegionDrawer::GetChangingData
; Function compile flags: /Ogtp
; File D:\git\src\IBK\IBK_DRFN\ProjSrc\SrcChartEx\ChartOCX\GraphDraw\GraphDataDrawer.cpp
; File C:\Program Files (x86)\Microsoft Visual Studio\2019\Community\VC\Tools\MSVC\14.29.30133\atlmfc\include\atlsimpstr.h
; File D:\git\src\IBK\IBK_DRFN\ProjSrc\SrcChartEx\ChartOCX\GraphDraw\GraphDataDrawer.cpp
;	COMDAT ?ChangeMaxLength@CDataInGraphRegionDrawer@@ABEXABV?$CStringT@DV?$StrTraitMFC_DLL@DV?$ChTraitsCRT@D@ATL@@@@@ATL@@AAH@Z
_TEXT	SEGMENT
_strData$ = 8						; size = 4
_nMaxLength$ = 12					; size = 4
?ChangeMaxLength@CDataInGraphRegionDrawer@@ABEXABV?$CStringT@DV?$StrTraitMFC_DLL@DV?$ChTraitsCRT@D@ATL@@@@@ATL@@AAH@Z PROC ; CDataInGraphRegionDrawer::ChangeMaxLength, COMDAT
; _this$ = ecx

; 615  : {

  00000	55		 push	 ebp
  00001	8b ec		 mov	 ebp, esp
; File C:\Program Files (x86)\Microsoft Visual Studio\2019\Community\VC\Tools\MSVC\14.29.30133\atlmfc\include\atlsimpstr.h

; 533  : 		return( GetLength() == 0 );

  00003	8b 45 08	 mov	 eax, DWORD PTR _strData$[ebp]
  00006	8b 00		 mov	 eax, DWORD PTR [eax]
  00008	8b 40 f4	 mov	 eax, DWORD PTR [eax-12]
  0000b	85 c0		 test	 eax, eax
; File D:\git\src\IBK\IBK_DRFN\ProjSrc\SrcChartEx\ChartOCX\GraphDraw\GraphDataDrawer.cpp

; 616  : 	if(strData.IsEmpty())

  0000d	74 09		 je	 SHORT $LN3@ChangeMaxL

; 617  : 		return;
; 618  : 
; 619  : 	int nLength = strData.GetLength();
; 620  : 	if(nMaxLength < nLength)

  0000f	8b 4d 0c	 mov	 ecx, DWORD PTR _nMaxLength$[ebp]
  00012	39 01		 cmp	 DWORD PTR [ecx], eax
  00014	7d 02		 jge	 SHORT $LN3@ChangeMaxL

; 621  : 		nMaxLength = nLength;

  00016	89 01		 mov	 DWORD PTR [ecx], eax
$LN3@ChangeMaxL:

; 622  : }

  00018	5d		 pop	 ebp
  00019	c2 08 00	 ret	 8
?ChangeMaxLength@CDataInGraphRegionDrawer@@ABEXABV?$CStringT@DV?$StrTraitMFC_DLL@DV?$ChTraitsCRT@D@ATL@@@@@ATL@@AAH@Z ENDP ; CDataInGraphRegionDrawer::ChangeMaxLength
_TEXT	ENDS
; Function compile flags: /Ogtp
; File D:\git\src\IBK\IBK_DRFN\ProjSrc\SrcChartEx\ChartOCX\GraphDraw\GraphDataDrawer.cpp
; File C:\Program Files (x86)\Microsoft Visual Studio\2019\Community\VC\Tools\MSVC\14.29.30133\atlmfc\include\afxtempl.h
; File D:\git\src\IBK\IBK_DRFN\ProjSrc\SrcChartEx\ChartOCX\GraphDraw\GraphDataDrawer.cpp
; File C:\Program Files (x86)\Microsoft Visual Studio\2019\Community\VC\Tools\MSVC\14.29.30133\atlmfc\include\afxtempl.h
; File D:\git\src\IBK\IBK_DRFN\ProjSrc\SrcChartEx\ChartOCX\GraphDraw\GraphDataDrawer.cpp
;	COMDAT ?ChangeData@CDataInGraphRegionDrawer@@ABEXHHAAV?$CList@VCTextData@@AAV1@@@@Z
_TEXT	SEGMENT
_this$1$ = -24						; size = 4
$T2 = -20						; size = 4
$T3 = -16						; size = 4
__$EHRec$ = -12						; size = 12
_nMaxLength_Title$ = 8					; size = 4
_nMaxLength_Data$ = 12					; size = 4
_strNewData$4 = 16					; size = 4
_textDataList$ = 16					; size = 4
?ChangeData@CDataInGraphRegionDrawer@@ABEXHHAAV?$CList@VCTextData@@AAV1@@@@Z PROC ; CDataInGraphRegionDrawer::ChangeData, COMDAT
; _this$ = ecx

; 598  : {

  00000	55		 push	 ebp
  00001	8b ec		 mov	 ebp, esp
  00003	6a ff		 push	 -1
  00005	68 00 00 00 00	 push	 __ehhandler$?ChangeData@CDataInGraphRegionDrawer@@ABEXHHAAV?$CList@VCTextData@@AAV1@@@@Z
  0000a	64 a1 00 00 00
	00		 mov	 eax, DWORD PTR fs:0
  00010	50		 push	 eax
  00011	83 ec 0c	 sub	 esp, 12			; 0000000cH
  00014	53		 push	 ebx
  00015	56		 push	 esi
  00016	57		 push	 edi
  00017	a1 00 00 00 00	 mov	 eax, DWORD PTR ___security_cookie
  0001c	33 c5		 xor	 eax, ebp
  0001e	50		 push	 eax
  0001f	8d 45 f4	 lea	 eax, DWORD PTR __$EHRec$[ebp]
  00022	64 a3 00 00 00
	00		 mov	 DWORD PTR fs:0, eax
  00028	8b d9		 mov	 ebx, ecx
  0002a	89 5d e8	 mov	 DWORD PTR _this$1$[ebp], ebx

; 599  : 	if((nMaxLength_Title <= 0 && nMaxLength_Data <= 0) || textDataList.GetCount() <= 0)

  0002d	83 7d 08 00	 cmp	 DWORD PTR _nMaxLength_Title$[ebp], 0
  00031	7f 0a		 jg	 SHORT $LN6@ChangeData
  00033	83 7d 0c 00	 cmp	 DWORD PTR _nMaxLength_Data$[ebp], 0
  00037	0f 8e d0 00 00
	00		 jle	 $LN3@ChangeData
$LN6@ChangeData:
  0003d	8b 75 10	 mov	 esi, DWORD PTR _textDataList$[ebp]
  00040	83 7e 0c 00	 cmp	 DWORD PTR [esi+12], 0
  00044	0f 8e c3 00 00
	00		 jle	 $LN3@ChangeData

; 600  : 		return;
; 601  : 
; 602  : 	POSITION pos = textDataList.GetHeadPosition();

  0004a	8b 76 04	 mov	 esi, DWORD PTR [esi+4]

; 603  : 	while(pos != NULL)

  0004d	85 f6		 test	 esi, esi
  0004f	0f 84 b8 00 00
	00		 je	 $LN3@ChangeData
$LL2@ChangeData:
; File C:\Program Files (x86)\Microsoft Visual Studio\2019\Community\VC\Tools\MSVC\14.29.30133\atlmfc\include\afxtempl.h

; 811  : 	{ CNode* pNode = (CNode*) rPosition;

  00055	8b fe		 mov	 edi, esi
; File D:\git\src\IBK\IBK_DRFN\ProjSrc\SrcChartEx\ChartOCX\GraphDraw\GraphDataDrawer.cpp

; 606  : 		CString strNewData;

  00057	8d 4d 10	 lea	 ecx, DWORD PTR _strNewData$4[ebp]
; File C:\Program Files (x86)\Microsoft Visual Studio\2019\Community\VC\Tools\MSVC\14.29.30133\atlmfc\include\afxtempl.h

; 813  : 		rPosition = (POSITION) pNode->pNext;

  0005a	8b 36		 mov	 esi, DWORD PTR [esi]

; 814  : 		return pNode->data; }

  0005c	83 c7 08	 add	 edi, 8
; File D:\git\src\IBK\IBK_DRFN\ProjSrc\SrcChartEx\ChartOCX\GraphDraw\GraphDataDrawer.cpp

; 606  : 		CString strNewData;

  0005f	ff 15 00 00 00
	00		 call	 DWORD PTR __imp_??0?$CStringT@DV?$StrTraitMFC_DLL@DV?$ChTraitsCRT@D@ATL@@@@@ATL@@QAE@XZ

; 199  : 	return m_strTitle;

  00065	57		 push	 edi
  00066	8d 4d f0	 lea	 ecx, DWORD PTR $T3[ebp]

; 606  : 		CString strNewData;

  00069	c7 45 fc 00 00
	00 00		 mov	 DWORD PTR __$EHRec$[ebp+8], 0

; 199  : 	return m_strTitle;

  00070	ff 15 00 00 00
	00		 call	 DWORD PTR __imp_??0?$CStringT@DV?$StrTraitMFC_DLL@DV?$ChTraitsCRT@D@ATL@@@@@ATL@@QAE@ABV01@@Z

; 607  : 		if(GetChangingData(textData.GetTitle(), nMaxLength_Title, true, strNewData))

  00076	8d 45 10	 lea	 eax, DWORD PTR _strNewData$4[ebp]
  00079	c6 45 fc 01	 mov	 BYTE PTR __$EHRec$[ebp+8], 1
  0007d	50		 push	 eax
  0007e	6a 01		 push	 1
  00080	ff 75 08	 push	 DWORD PTR _nMaxLength_Title$[ebp]
  00083	8d 45 f0	 lea	 eax, DWORD PTR $T3[ebp]
  00086	8b cb		 mov	 ecx, ebx
  00088	50		 push	 eax
  00089	e8 00 00 00 00	 call	 ?GetChangingData@CDataInGraphRegionDrawer@@ABE_NABV?$CStringT@DV?$StrTraitMFC_DLL@DV?$ChTraitsCRT@D@ATL@@@@@ATL@@H_NAAV23@@Z ; CDataInGraphRegionDrawer::GetChangingData
  0008e	8d 4d f0	 lea	 ecx, DWORD PTR $T3[ebp]
  00091	c6 45 fc 00	 mov	 BYTE PTR __$EHRec$[ebp+8], 0
  00095	8a d8		 mov	 bl, al
  00097	ff 15 00 00 00
	00		 call	 DWORD PTR __imp_??1?$CStringT@DV?$StrTraitMFC_DLL@DV?$ChTraitsCRT@D@ATL@@@@@ATL@@QAE@XZ
  0009d	84 db		 test	 bl, bl
  0009f	74 0c		 je	 SHORT $LN7@ChangeData

; 184  : 	m_strTitle = strTitle;

  000a1	8d 45 10	 lea	 eax, DWORD PTR _strNewData$4[ebp]
  000a4	8b cf		 mov	 ecx, edi
  000a6	50		 push	 eax
  000a7	ff 15 00 00 00
	00		 call	 DWORD PTR __imp_??4?$CStringT@DV?$StrTraitMFC_DLL@DV?$ChTraitsCRT@D@ATL@@@@@ATL@@QAEAAV01@ABV01@@Z
$LN7@ChangeData:

; 204  : 	return m_strData;

  000ad	83 c7 04	 add	 edi, 4
  000b0	8d 4d ec	 lea	 ecx, DWORD PTR $T2[ebp]
  000b3	57		 push	 edi
  000b4	ff 15 00 00 00
	00		 call	 DWORD PTR __imp_??0?$CStringT@DV?$StrTraitMFC_DLL@DV?$ChTraitsCRT@D@ATL@@@@@ATL@@QAE@ABV01@@Z

; 608  : 			textData.SetTitle(strNewData);
; 609  : 		if(GetChangingData(textData.GetData(), nMaxLength_Data, false, strNewData))

  000ba	8b 4d e8	 mov	 ecx, DWORD PTR _this$1$[ebp]
  000bd	8d 45 10	 lea	 eax, DWORD PTR _strNewData$4[ebp]
  000c0	50		 push	 eax
  000c1	6a 00		 push	 0
  000c3	ff 75 0c	 push	 DWORD PTR _nMaxLength_Data$[ebp]
  000c6	8d 45 ec	 lea	 eax, DWORD PTR $T2[ebp]
  000c9	c6 45 fc 02	 mov	 BYTE PTR __$EHRec$[ebp+8], 2
  000cd	50		 push	 eax
  000ce	e8 00 00 00 00	 call	 ?GetChangingData@CDataInGraphRegionDrawer@@ABE_NABV?$CStringT@DV?$StrTraitMFC_DLL@DV?$ChTraitsCRT@D@ATL@@@@@ATL@@H_NAAV23@@Z ; CDataInGraphRegionDrawer::GetChangingData
  000d3	8d 4d ec	 lea	 ecx, DWORD PTR $T2[ebp]
  000d6	c6 45 fc 00	 mov	 BYTE PTR __$EHRec$[ebp+8], 0
  000da	8a d8		 mov	 bl, al
  000dc	ff 15 00 00 00
	00		 call	 DWORD PTR __imp_??1?$CStringT@DV?$StrTraitMFC_DLL@DV?$ChTraitsCRT@D@ATL@@@@@ATL@@QAE@XZ
  000e2	84 db		 test	 bl, bl
  000e4	74 0c		 je	 SHORT $LN30@ChangeData

; 189  : 	m_strData = strData;

  000e6	8d 45 10	 lea	 eax, DWORD PTR _strNewData$4[ebp]
  000e9	8b cf		 mov	 ecx, edi
  000eb	50		 push	 eax
  000ec	ff 15 00 00 00
	00		 call	 DWORD PTR __imp_??4?$CStringT@DV?$StrTraitMFC_DLL@DV?$ChTraitsCRT@D@ATL@@@@@ATL@@QAEAAV01@ABV01@@Z
$LN30@ChangeData:

; 610  : 			textData.SetData(strNewData);
; 611  : 	}

  000f2	8d 4d 10	 lea	 ecx, DWORD PTR _strNewData$4[ebp]
  000f5	c7 45 fc ff ff
	ff ff		 mov	 DWORD PTR __$EHRec$[ebp+8], -1
  000fc	ff 15 00 00 00
	00		 call	 DWORD PTR __imp_??1?$CStringT@DV?$StrTraitMFC_DLL@DV?$ChTraitsCRT@D@ATL@@@@@ATL@@QAE@XZ
  00102	8b 5d e8	 mov	 ebx, DWORD PTR _this$1$[ebp]
  00105	85 f6		 test	 esi, esi
  00107	0f 85 48 ff ff
	ff		 jne	 $LL2@ChangeData
$LN3@ChangeData:

; 612  : }

  0010d	8b 4d f4	 mov	 ecx, DWORD PTR __$EHRec$[ebp]
  00110	64 89 0d 00 00
	00 00		 mov	 DWORD PTR fs:0, ecx
  00117	59		 pop	 ecx
  00118	5f		 pop	 edi
  00119	5e		 pop	 esi
  0011a	5b		 pop	 ebx
  0011b	8b e5		 mov	 esp, ebp
  0011d	5d		 pop	 ebp
  0011e	c2 0c 00	 ret	 12			; 0000000cH
_TEXT	ENDS
;	COMDAT text$x
text$x	SEGMENT
__unwindfunclet$?ChangeData@CDataInGraphRegionDrawer@@ABEXHHAAV?$CList@VCTextData@@AAV1@@@@Z$0:
  00000	8d 4d 10	 lea	 ecx, DWORD PTR _strNewData$4[ebp]
  00003	ff 25 00 00 00
	00		 jmp	 DWORD PTR __imp_??1?$CStringT@DV?$StrTraitMFC_DLL@DV?$ChTraitsCRT@D@ATL@@@@@ATL@@QAE@XZ
__unwindfunclet$?ChangeData@CDataInGraphRegionDrawer@@ABEXHHAAV?$CList@VCTextData@@AAV1@@@@Z$1:
  00009	8d 4d f0	 lea	 ecx, DWORD PTR $T3[ebp]
  0000c	ff 25 00 00 00
	00		 jmp	 DWORD PTR __imp_??1?$CStringT@DV?$StrTraitMFC_DLL@DV?$ChTraitsCRT@D@ATL@@@@@ATL@@QAE@XZ
__unwindfunclet$?ChangeData@CDataInGraphRegionDrawer@@ABEXHHAAV?$CList@VCTextData@@AAV1@@@@Z$2:
  00012	8d 4d ec	 lea	 ecx, DWORD PTR $T2[ebp]
  00015	ff 25 00 00 00
	00		 jmp	 DWORD PTR __imp_??1?$CStringT@DV?$StrTraitMFC_DLL@DV?$ChTraitsCRT@D@ATL@@@@@ATL@@QAE@XZ
  0001b	cc		 int	 3
  0001c	cc		 int	 3
  0001d	cc		 int	 3
  0001e	cc		 int	 3
  0001f	cc		 int	 3
__ehhandler$?ChangeData@CDataInGraphRegionDrawer@@ABEXHHAAV?$CList@VCTextData@@AAV1@@@@Z:
  00020	90		 npad	 1
  00021	90		 npad	 1
  00022	8b 54 24 08	 mov	 edx, DWORD PTR [esp+8]
  00026	8d 42 0c	 lea	 eax, DWORD PTR [edx+12]
  00029	8b 4a e4	 mov	 ecx, DWORD PTR [edx-28]
  0002c	33 c8		 xor	 ecx, eax
  0002e	e8 00 00 00 00	 call	 @__security_check_cookie@4
  00033	b8 00 00 00 00	 mov	 eax, OFFSET __ehfuncinfo$?ChangeData@CDataInGraphRegionDrawer@@ABEXHHAAV?$CList@VCTextData@@AAV1@@@@Z
  00038	e9 00 00 00 00	 jmp	 ___CxxFrameHandler3
text$x	ENDS
?ChangeData@CDataInGraphRegionDrawer@@ABEXHHAAV?$CList@VCTextData@@AAV1@@@@Z ENDP ; CDataInGraphRegionDrawer::ChangeData
; Function compile flags: /Ogtp
; File D:\git\src\IBK\IBK_DRFN\ProjSrc\SrcChartEx\ChartOCX\GraphDraw\GraphDataDrawer.cpp
; File C:\Program Files (x86)\Microsoft Visual Studio\2019\Community\VC\Tools\MSVC\14.29.30133\atlmfc\include\atlsimpstr.h
; File D:\git\src\IBK\IBK_DRFN\ProjSrc\SrcChartEx\ChartOCX\GraphDraw\GraphDataDrawer.cpp
; File C:\Program Files (x86)\Microsoft Visual Studio\2019\Community\VC\Tools\MSVC\14.29.30133\atlmfc\include\atlsimpstr.h
; File D:\git\src\IBK\IBK_DRFN\ProjSrc\SrcChartEx\ChartOCX\GraphDraw\GraphDataDrawer.cpp
; File C:\Program Files (x86)\Microsoft Visual Studio\2019\Community\VC\Tools\MSVC\14.29.30133\atlmfc\include\atlsimpstr.h
; File D:\git\src\IBK\IBK_DRFN\ProjSrc\SrcChartEx\ChartOCX\GraphDraw\GraphDataDrawer.cpp
;	COMDAT ?AddTailAndGetMaxLength@CDataInGraphRegionDrawer@@ABE_NABV?$CStringT@DV?$StrTraitMFC_DLL@DV?$ChTraitsCRT@D@ATL@@@@@ATL@@0ABKAAH2AAV?$CList@VCTextData@@AAV1@@@@Z
_TEXT	SEGMENT
$T2 = -24						; size = 12
__$EHRec$ = -12						; size = 12
_strTitle$ = 8						; size = 4
_strData$ = 12						; size = 4
_color$ = 16						; size = 4
_nMaxLength_Title$ = 20					; size = 4
_nMaxLength_Data$ = 24					; size = 4
_textDataList$ = 28					; size = 4
?AddTailAndGetMaxLength@CDataInGraphRegionDrawer@@ABE_NABV?$CStringT@DV?$StrTraitMFC_DLL@DV?$ChTraitsCRT@D@ATL@@@@@ATL@@0ABKAAH2AAV?$CList@VCTextData@@AAV1@@@@Z PROC ; CDataInGraphRegionDrawer::AddTailAndGetMaxLength, COMDAT
; _this$ = ecx

; 586  : {

  00000	55		 push	 ebp
  00001	8b ec		 mov	 ebp, esp
  00003	6a ff		 push	 -1
  00005	68 00 00 00 00	 push	 __ehhandler$?AddTailAndGetMaxLength@CDataInGraphRegionDrawer@@ABE_NABV?$CStringT@DV?$StrTraitMFC_DLL@DV?$ChTraitsCRT@D@ATL@@@@@ATL@@0ABKAAH2AAV?$CList@VCTextData@@AAV1@@@@Z
  0000a	64 a1 00 00 00
	00		 mov	 eax, DWORD PTR fs:0
  00010	50		 push	 eax
  00011	83 ec 0c	 sub	 esp, 12			; 0000000cH
  00014	56		 push	 esi
  00015	57		 push	 edi
  00016	a1 00 00 00 00	 mov	 eax, DWORD PTR ___security_cookie
  0001b	33 c5		 xor	 eax, ebp
  0001d	50		 push	 eax
  0001e	8d 45 f4	 lea	 eax, DWORD PTR __$EHRec$[ebp]
  00021	64 a3 00 00 00
	00		 mov	 DWORD PTR fs:0, eax
; File C:\Program Files (x86)\Microsoft Visual Studio\2019\Community\VC\Tools\MSVC\14.29.30133\atlmfc\include\atlsimpstr.h

; 519  : 		return( GetData()->nDataLength );

  00027	8b 7d 08	 mov	 edi, DWORD PTR _strTitle$[ebp]
  0002a	8b 07		 mov	 eax, DWORD PTR [edi]
  0002c	8b 40 f4	 mov	 eax, DWORD PTR [eax-12]

; 533  : 		return( GetLength() == 0 );

  0002f	85 c0		 test	 eax, eax
; File D:\git\src\IBK\IBK_DRFN\ProjSrc\SrcChartEx\ChartOCX\GraphDraw\GraphDataDrawer.cpp

; 587  : 	if(strTitle.IsEmpty() || strData.IsEmpty())

  00031	0f 84 83 00 00
	00		 je	 $LN3@AddTailAnd
; File C:\Program Files (x86)\Microsoft Visual Studio\2019\Community\VC\Tools\MSVC\14.29.30133\atlmfc\include\atlsimpstr.h

; 519  : 		return( GetData()->nDataLength );

  00037	8b 75 0c	 mov	 esi, DWORD PTR _strData$[ebp]
  0003a	8b 0e		 mov	 ecx, DWORD PTR [esi]

; 533  : 		return( GetLength() == 0 );

  0003c	83 79 f4 00	 cmp	 DWORD PTR [ecx-12], 0
; File D:\git\src\IBK\IBK_DRFN\ProjSrc\SrcChartEx\ChartOCX\GraphDraw\GraphDataDrawer.cpp

; 587  : 	if(strTitle.IsEmpty() || strData.IsEmpty())

  00040	74 78		 je	 SHORT $LN3@AddTailAnd

; 620  : 	if(nMaxLength < nLength)

  00042	8b 55 14	 mov	 edx, DWORD PTR _nMaxLength_Title$[ebp]
  00045	39 02		 cmp	 DWORD PTR [edx], eax
  00047	7d 04		 jge	 SHORT $LN20@AddTailAnd

; 621  : 		nMaxLength = nLength;

  00049	89 02		 mov	 DWORD PTR [edx], eax
  0004b	8b 0e		 mov	 ecx, DWORD PTR [esi]
$LN20@AddTailAnd:
; File C:\Program Files (x86)\Microsoft Visual Studio\2019\Community\VC\Tools\MSVC\14.29.30133\atlmfc\include\atlsimpstr.h

; 519  : 		return( GetData()->nDataLength );

  0004d	8b 41 f4	 mov	 eax, DWORD PTR [ecx-12]

; 533  : 		return( GetLength() == 0 );

  00050	85 c0		 test	 eax, eax
; File D:\git\src\IBK\IBK_DRFN\ProjSrc\SrcChartEx\ChartOCX\GraphDraw\GraphDataDrawer.cpp

; 616  : 	if(strData.IsEmpty())

  00052	74 09		 je	 SHORT $LN34@AddTailAnd

; 617  : 		return;
; 618  : 
; 619  : 	int nLength = strData.GetLength();
; 620  : 	if(nMaxLength < nLength)

  00054	8b 4d 18	 mov	 ecx, DWORD PTR _nMaxLength_Data$[ebp]
  00057	39 01		 cmp	 DWORD PTR [ecx], eax
  00059	7d 02		 jge	 SHORT $LN34@AddTailAnd

; 621  : 		nMaxLength = nLength;

  0005b	89 01		 mov	 DWORD PTR [ecx], eax
$LN34@AddTailAnd:

; 169  : 	m_strTitle(strTitle),

  0005d	57		 push	 edi
  0005e	8d 4d e8	 lea	 ecx, DWORD PTR $T2[ebp]
  00061	ff 15 00 00 00
	00		 call	 DWORD PTR __imp_??0?$CStringT@DV?$StrTraitMFC_DLL@DV?$ChTraitsCRT@D@ATL@@@@@ATL@@QAE@ABV01@@Z

; 170  : 	m_strData(strData),

  00067	56		 push	 esi
  00068	8d 4d ec	 lea	 ecx, DWORD PTR $T2[ebp+4]
  0006b	c7 45 fc 00 00
	00 00		 mov	 DWORD PTR __$EHRec$[ebp+8], 0
  00072	ff 15 00 00 00
	00		 call	 DWORD PTR __imp_??0?$CStringT@DV?$StrTraitMFC_DLL@DV?$ChTraitsCRT@D@ATL@@@@@ATL@@QAE@ABV01@@Z

; 171  : 	m_color(color)

  00078	8b 45 10	 mov	 eax, DWORD PTR _color$[ebp]
  0007b	8b 00		 mov	 eax, DWORD PTR [eax]
  0007d	89 45 f0	 mov	 DWORD PTR $T2[ebp+8], eax

; 589  : 
; 590  : 	ChangeMaxLength(strTitle, nMaxLength_Title);
; 591  : 	ChangeMaxLength(strData, nMaxLength_Data);
; 592  : 
; 593  : 	textDataList.AddTail(CTextData(strTitle, strData, color));

  00080	8b 4d 1c	 mov	 ecx, DWORD PTR _textDataList$[ebp]
  00083	8d 45 e8	 lea	 eax, DWORD PTR $T2[ebp]
  00086	50		 push	 eax
  00087	c7 45 fc 01 00
	00 00		 mov	 DWORD PTR __$EHRec$[ebp+8], 1
  0008e	e8 00 00 00 00	 call	 ?AddTail@?$CList@VCTextData@@AAV1@@@QAEPAU__POSITION@@AAVCTextData@@@Z ; CList<CTextData,CTextData &>::AddTail
  00093	8d 4d ec	 lea	 ecx, DWORD PTR $T2[ebp+4]
  00096	ff 15 00 00 00
	00		 call	 DWORD PTR __imp_??1?$CStringT@DV?$StrTraitMFC_DLL@DV?$ChTraitsCRT@D@ATL@@@@@ATL@@QAE@XZ
  0009c	8d 4d e8	 lea	 ecx, DWORD PTR $T2[ebp]
  0009f	ff 15 00 00 00
	00		 call	 DWORD PTR __imp_??1?$CStringT@DV?$StrTraitMFC_DLL@DV?$ChTraitsCRT@D@ATL@@@@@ATL@@QAE@XZ

; 594  : 	return true;

  000a5	b0 01		 mov	 al, 1

; 595  : }

  000a7	8b 4d f4	 mov	 ecx, DWORD PTR __$EHRec$[ebp]
  000aa	64 89 0d 00 00
	00 00		 mov	 DWORD PTR fs:0, ecx
  000b1	59		 pop	 ecx
  000b2	5f		 pop	 edi
  000b3	5e		 pop	 esi
  000b4	8b e5		 mov	 esp, ebp
  000b6	5d		 pop	 ebp
  000b7	c2 18 00	 ret	 24			; 00000018H
$LN3@AddTailAnd:

; 588  : 		return false;

  000ba	32 c0		 xor	 al, al

; 595  : }

  000bc	8b 4d f4	 mov	 ecx, DWORD PTR __$EHRec$[ebp]
  000bf	64 89 0d 00 00
	00 00		 mov	 DWORD PTR fs:0, ecx
  000c6	59		 pop	 ecx
  000c7	5f		 pop	 edi
  000c8	5e		 pop	 esi
  000c9	8b e5		 mov	 esp, ebp
  000cb	5d		 pop	 ebp
  000cc	c2 18 00	 ret	 24			; 00000018H
_TEXT	ENDS
;	COMDAT text$x
text$x	SEGMENT
__unwindfunclet$?AddTailAndGetMaxLength@CDataInGraphRegionDrawer@@ABE_NABV?$CStringT@DV?$StrTraitMFC_DLL@DV?$ChTraitsCRT@D@ATL@@@@@ATL@@0ABKAAH2AAV?$CList@VCTextData@@AAV1@@@@Z$1:
  00000	8d 4d e8	 lea	 ecx, DWORD PTR $T2[ebp]
  00003	ff 25 00 00 00
	00		 jmp	 DWORD PTR __imp_??1?$CStringT@DV?$StrTraitMFC_DLL@DV?$ChTraitsCRT@D@ATL@@@@@ATL@@QAE@XZ
__unwindfunclet$?AddTailAndGetMaxLength@CDataInGraphRegionDrawer@@ABE_NABV?$CStringT@DV?$StrTraitMFC_DLL@DV?$ChTraitsCRT@D@ATL@@@@@ATL@@0ABKAAH2AAV?$CList@VCTextData@@AAV1@@@@Z$0:
  00009	8d 4d e8	 lea	 ecx, DWORD PTR $T2[ebp]
  0000c	e9 00 00 00 00	 jmp	 ??1CTextData@@QAE@XZ
  00011	cc		 int	 3
  00012	cc		 int	 3
  00013	cc		 int	 3
  00014	cc		 int	 3
  00015	cc		 int	 3
__ehhandler$?AddTailAndGetMaxLength@CDataInGraphRegionDrawer@@ABE_NABV?$CStringT@DV?$StrTraitMFC_DLL@DV?$ChTraitsCRT@D@ATL@@@@@ATL@@0ABKAAH2AAV?$CList@VCTextData@@AAV1@@@@Z:
  00016	90		 npad	 1
  00017	90		 npad	 1
  00018	8b 54 24 08	 mov	 edx, DWORD PTR [esp+8]
  0001c	8d 42 0c	 lea	 eax, DWORD PTR [edx+12]
  0001f	8b 4a e8	 mov	 ecx, DWORD PTR [edx-24]
  00022	33 c8		 xor	 ecx, eax
  00024	e8 00 00 00 00	 call	 @__security_check_cookie@4
  00029	b8 00 00 00 00	 mov	 eax, OFFSET __ehfuncinfo$?AddTailAndGetMaxLength@CDataInGraphRegionDrawer@@ABE_NABV?$CStringT@DV?$StrTraitMFC_DLL@DV?$ChTraitsCRT@D@ATL@@@@@ATL@@0ABKAAH2AAV?$CList@VCTextData@@AAV1@@@@Z
  0002e	e9 00 00 00 00	 jmp	 ___CxxFrameHandler3
text$x	ENDS
?AddTailAndGetMaxLength@CDataInGraphRegionDrawer@@ABE_NABV?$CStringT@DV?$StrTraitMFC_DLL@DV?$ChTraitsCRT@D@ATL@@@@@ATL@@0ABKAAH2AAV?$CList@VCTextData@@AAV1@@@@Z ENDP ; CDataInGraphRegionDrawer::AddTailAndGetMaxLength
; Function compile flags: /Ogtp
; File D:\git\src\IBK\IBK_DRFN\ProjSrc\SrcChartEx\ChartOCX\GraphDraw\GraphDataDrawer.cpp
; File C:\Program Files (x86)\Microsoft Visual Studio\2019\Community\VC\Tools\MSVC\14.29.30133\atlmfc\include\atlsimpstr.h
; File D:\git\src\IBK\IBK_DRFN\ProjSrc\SrcChartEx\ChartOCX\GraphDraw\GraphDataDrawer.cpp
; File C:\Program Files (x86)\Microsoft Visual Studio\2019\Community\VC\Tools\MSVC\14.29.30133\atlmfc\include\atlsimpstr.h
; File D:\git\src\IBK\IBK_DRFN\ProjSrc\SrcChartEx\ChartOCX\GraphDraw\GraphDataDrawer.cpp
;	COMDAT ?GetDrawingText@CDataInGraphRegionDrawer@@ABE?AV?$CStringT@DV?$StrTraitMFC_DLL@DV?$ChTraitsCRT@D@ATL@@@@@ATL@@ABVCTextData@@@Z
_TEXT	SEGMENT
$T2 = -20						; size = 4
$T3 = -16						; size = 4
__$EHRec$ = -12						; size = 12
___$ReturnUdt$ = 8					; size = 4
_strDrawingText$ = 12					; size = 4
_textData$ = 12						; size = 4
?GetDrawingText@CDataInGraphRegionDrawer@@ABE?AV?$CStringT@DV?$StrTraitMFC_DLL@DV?$ChTraitsCRT@D@ATL@@@@@ATL@@ABVCTextData@@@Z PROC ; CDataInGraphRegionDrawer::GetDrawingText, COMDAT
; _this$ = ecx

; 574  : {

  00000	55		 push	 ebp
  00001	8b ec		 mov	 ebp, esp
  00003	6a ff		 push	 -1
  00005	68 00 00 00 00	 push	 __ehhandler$?GetDrawingText@CDataInGraphRegionDrawer@@ABE?AV?$CStringT@DV?$StrTraitMFC_DLL@DV?$ChTraitsCRT@D@ATL@@@@@ATL@@ABVCTextData@@@Z
  0000a	64 a1 00 00 00
	00		 mov	 eax, DWORD PTR fs:0
  00010	50		 push	 eax
  00011	83 ec 08	 sub	 esp, 8
  00014	56		 push	 esi
  00015	57		 push	 edi
  00016	a1 00 00 00 00	 mov	 eax, DWORD PTR ___security_cookie
  0001b	33 c5		 xor	 eax, ebp
  0001d	50		 push	 eax
  0001e	8d 45 f4	 lea	 eax, DWORD PTR __$EHRec$[ebp]
  00021	64 a3 00 00 00
	00		 mov	 DWORD PTR fs:0, eax
; File C:\Program Files (x86)\Microsoft Visual Studio\2019\Community\VC\Tools\MSVC\14.29.30133\atlmfc\include\atlsimpstr.h

; 519  : 		return( GetData()->nDataLength );

  00027	8b 75 0c	 mov	 esi, DWORD PTR _textData$[ebp]
  0002a	8b 06		 mov	 eax, DWORD PTR [esi]

; 533  : 		return( GetLength() == 0 );

  0002c	83 78 f4 00	 cmp	 DWORD PTR [eax-12], 0
; File D:\git\src\IBK\IBK_DRFN\ProjSrc\SrcChartEx\ChartOCX\GraphDraw\GraphDataDrawer.cpp

; 214  : 	return (m_strTitle.IsEmpty() || m_strData.IsEmpty());

  00030	74 7e		 je	 SHORT $LN33@GetDrawing
; File C:\Program Files (x86)\Microsoft Visual Studio\2019\Community\VC\Tools\MSVC\14.29.30133\atlmfc\include\atlsimpstr.h

; 519  : 		return( GetData()->nDataLength );

  00032	8b 46 04	 mov	 eax, DWORD PTR [esi+4]

; 800  : 		return( reinterpret_cast< CStringData* >( m_pszData )-1 );

  00035	8d 7e 04	 lea	 edi, DWORD PTR [esi+4]

; 533  : 		return( GetLength() == 0 );

  00038	83 78 f4 00	 cmp	 DWORD PTR [eax-12], 0
; File D:\git\src\IBK\IBK_DRFN\ProjSrc\SrcChartEx\ChartOCX\GraphDraw\GraphDataDrawer.cpp

; 214  : 	return (m_strTitle.IsEmpty() || m_strData.IsEmpty());

  0003c	74 72		 je	 SHORT $LN33@GetDrawing

; 577  : 
; 578  : 	CString strDrawingText;

  0003e	8d 4d 0c	 lea	 ecx, DWORD PTR _strDrawingText$[ebp]
  00041	ff 15 00 00 00
	00		 call	 DWORD PTR __imp_??0?$CStringT@DV?$StrTraitMFC_DLL@DV?$ChTraitsCRT@D@ATL@@@@@ATL@@QAE@XZ

; 204  : 	return m_strData;

  00047	57		 push	 edi
  00048	8d 4d ec	 lea	 ecx, DWORD PTR $T2[ebp]

; 577  : 
; 578  : 	CString strDrawingText;

  0004b	c7 45 fc 00 00
	00 00		 mov	 DWORD PTR __$EHRec$[ebp+8], 0

; 204  : 	return m_strData;

  00052	ff 15 00 00 00
	00		 call	 DWORD PTR __imp_??0?$CStringT@DV?$StrTraitMFC_DLL@DV?$ChTraitsCRT@D@ATL@@@@@ATL@@QAE@ABV01@@Z

; 199  : 	return m_strTitle;

  00058	56		 push	 esi
  00059	8d 4d f0	 lea	 ecx, DWORD PTR $T3[ebp]

; 579  : 	strDrawingText.Format("%s : %s", textData.GetTitle(), textData.GetData());

  0005c	c6 45 fc 01	 mov	 BYTE PTR __$EHRec$[ebp+8], 1

; 199  : 	return m_strTitle;

  00060	ff 15 00 00 00
	00		 call	 DWORD PTR __imp_??0?$CStringT@DV?$StrTraitMFC_DLL@DV?$ChTraitsCRT@D@ATL@@@@@ATL@@QAE@ABV01@@Z

; 579  : 	strDrawingText.Format("%s : %s", textData.GetTitle(), textData.GetData());

  00066	ff 75 ec	 push	 DWORD PTR $T2[ebp]
  00069	8d 45 0c	 lea	 eax, DWORD PTR _strDrawingText$[ebp]
  0006c	c6 45 fc 02	 mov	 BYTE PTR __$EHRec$[ebp+8], 2
  00070	ff 75 f0	 push	 DWORD PTR $T3[ebp]
  00073	68 00 00 00 00	 push	 OFFSET ??_C@_07IAFACCAD@?$CFs?5?3?5?$CFs@
  00078	50		 push	 eax
  00079	ff 15 00 00 00
	00		 call	 DWORD PTR __imp_?Format@?$CStringT@DV?$StrTraitMFC_DLL@DV?$ChTraitsCRT@D@ATL@@@@@ATL@@QAAXPBDZZ
  0007f	83 c4 10	 add	 esp, 16			; 00000010H
  00082	8d 4d f0	 lea	 ecx, DWORD PTR $T3[ebp]
  00085	ff 15 00 00 00
	00		 call	 DWORD PTR __imp_??1?$CStringT@DV?$StrTraitMFC_DLL@DV?$ChTraitsCRT@D@ATL@@@@@ATL@@QAE@XZ
  0008b	8d 4d ec	 lea	 ecx, DWORD PTR $T2[ebp]
  0008e	c6 45 fc 00	 mov	 BYTE PTR __$EHRec$[ebp+8], 0
  00092	ff 15 00 00 00
	00		 call	 DWORD PTR __imp_??1?$CStringT@DV?$StrTraitMFC_DLL@DV?$ChTraitsCRT@D@ATL@@@@@ATL@@QAE@XZ

; 580  : 	return strDrawingText;

  00098	8b 4d 08	 mov	 ecx, DWORD PTR ___$ReturnUdt$[ebp]
  0009b	8d 45 0c	 lea	 eax, DWORD PTR _strDrawingText$[ebp]
  0009e	50		 push	 eax
  0009f	ff 15 00 00 00
	00		 call	 DWORD PTR __imp_??0?$CStringT@DV?$StrTraitMFC_DLL@DV?$ChTraitsCRT@D@ATL@@@@@ATL@@QAE@ABV01@@Z
  000a5	8d 4d 0c	 lea	 ecx, DWORD PTR _strDrawingText$[ebp]
  000a8	ff 15 00 00 00
	00		 call	 DWORD PTR __imp_??1?$CStringT@DV?$StrTraitMFC_DLL@DV?$ChTraitsCRT@D@ATL@@@@@ATL@@QAE@XZ
  000ae	eb 0e		 jmp	 SHORT $LN36@GetDrawing
$LN33@GetDrawing:

; 575  : 	if(textData.IsEmpty())
; 576  : 		return "";

  000b0	8b 4d 08	 mov	 ecx, DWORD PTR ___$ReturnUdt$[ebp]
  000b3	68 00 00 00 00	 push	 OFFSET ??_C@_00CNPNBAHC@@
  000b8	ff 15 00 00 00
	00		 call	 DWORD PTR __imp_??0?$CStringT@DV?$StrTraitMFC_DLL@DV?$ChTraitsCRT@D@ATL@@@@@ATL@@QAE@PBD@Z
$LN36@GetDrawing:

; 581  : }

  000be	8b 45 08	 mov	 eax, DWORD PTR ___$ReturnUdt$[ebp]
  000c1	8b 4d f4	 mov	 ecx, DWORD PTR __$EHRec$[ebp]
  000c4	64 89 0d 00 00
	00 00		 mov	 DWORD PTR fs:0, ecx
  000cb	59		 pop	 ecx
  000cc	5f		 pop	 edi
  000cd	5e		 pop	 esi
  000ce	8b e5		 mov	 esp, ebp
  000d0	5d		 pop	 ebp
  000d1	c2 08 00	 ret	 8
_TEXT	ENDS
;	COMDAT text$x
text$x	SEGMENT
__unwindfunclet$?GetDrawingText@CDataInGraphRegionDrawer@@ABE?AV?$CStringT@DV?$StrTraitMFC_DLL@DV?$ChTraitsCRT@D@ATL@@@@@ATL@@ABVCTextData@@@Z$1:
  00000	8d 4d 0c	 lea	 ecx, DWORD PTR _strDrawingText$[ebp]
  00003	ff 25 00 00 00
	00		 jmp	 DWORD PTR __imp_??1?$CStringT@DV?$StrTraitMFC_DLL@DV?$ChTraitsCRT@D@ATL@@@@@ATL@@QAE@XZ
__unwindfunclet$?GetDrawingText@CDataInGraphRegionDrawer@@ABE?AV?$CStringT@DV?$StrTraitMFC_DLL@DV?$ChTraitsCRT@D@ATL@@@@@ATL@@ABVCTextData@@@Z$2:
  00009	8d 4d ec	 lea	 ecx, DWORD PTR $T2[ebp]
  0000c	ff 25 00 00 00
	00		 jmp	 DWORD PTR __imp_??1?$CStringT@DV?$StrTraitMFC_DLL@DV?$ChTraitsCRT@D@ATL@@@@@ATL@@QAE@XZ
__unwindfunclet$?GetDrawingText@CDataInGraphRegionDrawer@@ABE?AV?$CStringT@DV?$StrTraitMFC_DLL@DV?$ChTraitsCRT@D@ATL@@@@@ATL@@ABVCTextData@@@Z$3:
  00012	8d 4d f0	 lea	 ecx, DWORD PTR $T3[ebp]
  00015	ff 25 00 00 00
	00		 jmp	 DWORD PTR __imp_??1?$CStringT@DV?$StrTraitMFC_DLL@DV?$ChTraitsCRT@D@ATL@@@@@ATL@@QAE@XZ
  0001b	cc		 int	 3
  0001c	cc		 int	 3
  0001d	cc		 int	 3
  0001e	cc		 int	 3
  0001f	cc		 int	 3
__ehhandler$?GetDrawingText@CDataInGraphRegionDrawer@@ABE?AV?$CStringT@DV?$StrTraitMFC_DLL@DV?$ChTraitsCRT@D@ATL@@@@@ATL@@ABVCTextData@@@Z:
  00020	90		 npad	 1
  00021	90		 npad	 1
  00022	8b 54 24 08	 mov	 edx, DWORD PTR [esp+8]
  00026	8d 42 0c	 lea	 eax, DWORD PTR [edx+12]
  00029	8b 4a ec	 mov	 ecx, DWORD PTR [edx-20]
  0002c	33 c8		 xor	 ecx, eax
  0002e	e8 00 00 00 00	 call	 @__security_check_cookie@4
  00033	b8 00 00 00 00	 mov	 eax, OFFSET __ehfuncinfo$?GetDrawingText@CDataInGraphRegionDrawer@@ABE?AV?$CStringT@DV?$StrTraitMFC_DLL@DV?$ChTraitsCRT@D@ATL@@@@@ATL@@ABVCTextData@@@Z
  00038	e9 00 00 00 00	 jmp	 ___CxxFrameHandler3
text$x	ENDS
?GetDrawingText@CDataInGraphRegionDrawer@@ABE?AV?$CStringT@DV?$StrTraitMFC_DLL@DV?$ChTraitsCRT@D@ATL@@@@@ATL@@ABVCTextData@@@Z ENDP ; CDataInGraphRegionDrawer::GetDrawingText
; Function compile flags: /Ogtp
; File D:\git\src\IBK\IBK_DRFN\ProjSrc\SrcChartEx\ChartOCX\GraphDraw\GraphDataDrawer.cpp
; File C:\Program Files (x86)\Microsoft Visual Studio\2019\Community\VC\Tools\MSVC\14.29.30133\atlmfc\include\afxwin1.inl
; File D:\git\src\IBK\IBK_DRFN\ProjSrc\SrcChartEx\ChartOCX\GraphDraw\GraphDataDrawer.cpp
;	COMDAT ?GetPosition_Y@CDataInGraphRegionDrawer@@ABEHPAVCDC@@HH_NABVCDisplayDataMinMax@@ABN@Z
_TEXT	SEGMENT
_size$1 = -8						; size = 8
_pDC$ = 8						; size = 4
_nDataCount$ = 12					; size = 4
_nRegionHeight$ = 16					; size = 4
_bIsInvert$ = 20					; size = 1
$T2 = 20						; size = 4
_curMinMax$ = 24					; size = 4
_dCur$ = 28						; size = 4
?GetPosition_Y@CDataInGraphRegionDrawer@@ABEHPAVCDC@@HH_NABVCDisplayDataMinMax@@ABN@Z PROC ; CDataInGraphRegionDrawer::GetPosition_Y, COMDAT
; _this$ = ecx

; 561  : {

  00000	55		 push	 ebp
  00001	8b ec		 mov	 ebp, esp

; 562  : 	//    -> 0
; 563  : 	if(curMinMax.IsCloseToMaxValue(dCur, bIsInvert))

  00003	8b 4d 18	 mov	 ecx, DWORD PTR _curMinMax$[ebp]
  00006	83 ec 08	 sub	 esp, 8
  00009	56		 push	 esi
  0000a	ff 75 14	 push	 DWORD PTR _bIsInvert$[ebp]
  0000d	ff 75 1c	 push	 DWORD PTR _dCur$[ebp]
  00010	ff 15 00 00 00
	00		 call	 DWORD PTR __imp_?IsCloseToMaxValue@CDisplayDataMinMax@@QBE_NABN_N@Z
  00016	84 c0		 test	 al, al
  00018	75 49		 jne	 SHORT $LN4@GetPositio

; 566  : 	int nTextHeight = pDC->GetTextExtent("0").cy * nDataCount;

  0001a	68 00 00 00 00	 push	 OFFSET ??_C@_01GBGANLPD@0@
  0001f	8d 4d 14	 lea	 ecx, DWORD PTR $T2[ebp]
  00022	ff 15 00 00 00
	00		 call	 DWORD PTR __imp_??0?$CStringT@DV?$StrTraitMFC_DLL@DV?$ChTraitsCRT@D@ATL@@@@@ATL@@QAE@PBD@Z
; File C:\Program Files (x86)\Microsoft Visual Studio\2019\Community\VC\Tools\MSVC\14.29.30133\atlmfc\include\afxwin1.inl

; 639  : 		VERIFY(::GetTextExtentPoint32(m_hAttribDC, str, (int)str.GetLength(), &size));

  00028	8d 45 f8	 lea	 eax, DWORD PTR _size$1[ebp]
  0002b	50		 push	 eax
  0002c	8b 45 14	 mov	 eax, DWORD PTR $T2[ebp]
  0002f	ff 70 f4	 push	 DWORD PTR [eax-12]
  00032	50		 push	 eax
  00033	8b 45 08	 mov	 eax, DWORD PTR _pDC$[ebp]
  00036	ff 70 08	 push	 DWORD PTR [eax+8]
  00039	ff 15 00 00 00
	00		 call	 DWORD PTR __imp__GetTextExtentPoint32A@16
; File D:\git\src\IBK\IBK_DRFN\ProjSrc\SrcChartEx\ChartOCX\GraphDraw\GraphDataDrawer.cpp

; 566  : 	int nTextHeight = pDC->GetTextExtent("0").cy * nDataCount;

  0003f	8b 75 fc	 mov	 esi, DWORD PTR _size$1[ebp+4]
  00042	8d 4d 14	 lea	 ecx, DWORD PTR $T2[ebp]
  00045	0f af 75 0c	 imul	 esi, DWORD PTR _nDataCount$[ebp]
  00049	ff 15 00 00 00
	00		 call	 DWORD PTR __imp_??1?$CStringT@DV?$StrTraitMFC_DLL@DV?$ChTraitsCRT@D@ATL@@@@@ATL@@QAE@XZ

; 567  : 	if(nTextHeight <= 0 || nRegionHeight <= nTextHeight)

  0004f	85 f6		 test	 esi, esi
  00051	7e 10		 jle	 SHORT $LN4@GetPositio
  00053	8b 45 10	 mov	 eax, DWORD PTR _nRegionHeight$[ebp]
  00056	3b c6		 cmp	 eax, esi
  00058	7e 09		 jle	 SHORT $LN4@GetPositio

; 569  : 
; 570  : 	return (nRegionHeight - nTextHeight);

  0005a	2b c6		 sub	 eax, esi
  0005c	5e		 pop	 esi

; 571  : }

  0005d	8b e5		 mov	 esp, ebp
  0005f	5d		 pop	 ebp
  00060	c2 18 00	 ret	 24			; 00000018H
$LN4@GetPositio:

; 568  : 		return 0;

  00063	33 c0		 xor	 eax, eax
  00065	5e		 pop	 esi

; 571  : }

  00066	8b e5		 mov	 esp, ebp
  00068	5d		 pop	 ebp
  00069	c2 18 00	 ret	 24			; 00000018H
?GetPosition_Y@CDataInGraphRegionDrawer@@ABEHPAVCDC@@HH_NABVCDisplayDataMinMax@@ABN@Z ENDP ; CDataInGraphRegionDrawer::GetPosition_Y
_TEXT	ENDS
; Function compile flags: /Ogtp
; File D:\git\src\IBK\IBK_DRFN\ProjSrc\SrcChartEx\ChartOCX\GraphDraw\GraphDataDrawer.cpp
;	COMDAT ?GetDataTexts@CDataInGraphRegionDrawer@@ABE_NABVCGraphDataDrawingData@@ABVCDisplayDataMinMax@@ABVCPrices@@ABVCGraphColor@@AAH4AAV?$CList@VCTextData@@AAV1@@@@Z
_TEXT	SEGMENT
$T2 = -32						; size = 8
$T3 = -32						; size = 8
$T4 = -32						; size = 8
$T5 = -32						; size = 8
$T6 = -32						; size = 8
$T7 = -32						; size = 8
$T8 = -24						; size = 8
$T9 = -24						; size = 8
$T10 = -24						; size = 8
$T11 = -24						; size = 8
$T12 = -16						; size = 4
$T13 = -16						; size = 4
$T14 = -16						; size = 4
__$EHRec$ = -12						; size = 12
$T15 = 8						; size = 4
$T16 = 8						; size = 4
$T17 = 8						; size = 4
_dataDrawing$ = 8					; size = 4
$T18 = 12						; size = 4
_curMinMax$ = 12					; size = 4
_prices$ = 16						; size = 4
$T19 = 20						; size = 4
_graphColor$ = 20					; size = 4
_nMaxLength_Title$ = 24					; size = 4
_nMaxLength_Data$ = 28					; size = 4
$T20 = 32						; size = 4
$T21 = 32						; size = 4
$T22 = 32						; size = 4
$T23 = 32						; size = 4
_textDataList$ = 32					; size = 4
?GetDataTexts@CDataInGraphRegionDrawer@@ABE_NABVCGraphDataDrawingData@@ABVCDisplayDataMinMax@@ABVCPrices@@ABVCGraphColor@@AAH4AAV?$CList@VCTextData@@AAV1@@@@Z PROC ; CDataInGraphRegionDrawer::GetDataTexts, COMDAT
; _this$ = ecx

; 525  : {

  00000	55		 push	 ebp
  00001	8b ec		 mov	 ebp, esp
  00003	6a ff		 push	 -1
  00005	68 00 00 00 00	 push	 __ehhandler$?GetDataTexts@CDataInGraphRegionDrawer@@ABE_NABVCGraphDataDrawingData@@ABVCDisplayDataMinMax@@ABVCPrices@@ABVCGraphColor@@AAH4AAV?$CList@VCTextData@@AAV1@@@@Z
  0000a	64 a1 00 00 00
	00		 mov	 eax, DWORD PTR fs:0
  00010	50		 push	 eax
  00011	83 ec 14	 sub	 esp, 20			; 00000014H
  00014	53		 push	 ebx
  00015	56		 push	 esi
  00016	57		 push	 edi
  00017	a1 00 00 00 00	 mov	 eax, DWORD PTR ___security_cookie
  0001c	33 c5		 xor	 eax, ebp
  0001e	50		 push	 eax
  0001f	8d 45 f4	 lea	 eax, DWORD PTR __$EHRec$[ebp]
  00022	64 a3 00 00 00
	00		 mov	 DWORD PTR fs:0, eax
  00028	8b d9		 mov	 ebx, ecx

; 526  : 	textDataList.RemoveAll();

  0002a	8b 7d 20	 mov	 edi, DWORD PTR _textDataList$[ebp]
  0002d	8b cf		 mov	 ecx, edi
  0002f	e8 00 00 00 00	 call	 ?RemoveAll@?$CList@VCTextData@@AAV1@@@QAEXXZ ; CList<CTextData,CTextData &>::RemoveAll

; 527  : 	nMaxLength_Title = nMaxLength_Data = 0;

  00034	8b 45 1c	 mov	 eax, DWORD PTR _nMaxLength_Data$[ebp]

; 528  : 
; 529  : 	// (2007/1/7 - Seung-Won, Bae) Change Color for samsung.
; 530  : 	//     ()
; 531  : 	if(dataDrawing.DoesCalcRiseFallRate_LowHigh())

  00037	8b 75 08	 mov	 esi, DWORD PTR _dataDrawing$[ebp]
  0003a	8b ce		 mov	 ecx, esi
  0003c	c7 00 00 00 00
	00		 mov	 DWORD PTR [eax], 0
  00042	8b 45 18	 mov	 eax, DWORD PTR _nMaxLength_Title$[ebp]
  00045	c7 00 00 00 00
	00		 mov	 DWORD PTR [eax], 0
  0004b	ff 15 00 00 00
	00		 call	 DWORD PTR __imp_?DoesCalcRiseFallRate_LowHigh@CGraphDataDrawingData@@QBE_NXZ
  00051	84 c0		 test	 al, al
  00053	0f 84 83 00 00
	00		 je	 $LN2@GetDataTex

; 532  : 	{
; 533  : 		AddTailAndGetMaxLength("LH", GetRiseFallRateText_LowHigh(curMinMax), graphColor.GetColor5(), 

  00059	8b 4d 14	 mov	 ecx, DWORD PTR _graphColor$[ebp]
  0005c	ff 15 00 00 00
	00		 call	 DWORD PTR __imp_?GetColor5@CGraphColor@@QBEKXZ
  00062	68 00 00 00 00	 push	 OFFSET ??_C@_02EBJOJHEE@LH@
  00067	8d 4d 08	 lea	 ecx, DWORD PTR $T17[ebp]
  0006a	89 45 f0	 mov	 DWORD PTR $T14[ebp], eax
  0006d	ff 15 00 00 00
	00		 call	 DWORD PTR __imp_??0?$CStringT@DV?$StrTraitMFC_DLL@DV?$ChTraitsCRT@D@ATL@@@@@ATL@@QAE@PBD@Z

; 641  : 	return CRateDrawer::GetRateText(curMinMax.GetDisplayMin(), curMinMax.GetCount());

  00073	8b 4d 0c	 mov	 ecx, DWORD PTR _curMinMax$[ebp]

; 532  : 	{
; 533  : 		AddTailAndGetMaxLength("LH", GetRiseFallRateText_LowHigh(curMinMax), graphColor.GetColor5(), 

  00076	c7 45 fc 00 00
	00 00		 mov	 DWORD PTR __$EHRec$[ebp+8], 0

; 641  : 	return CRateDrawer::GetRateText(curMinMax.GetDisplayMin(), curMinMax.GetCount());

  0007d	ff 15 00 00 00
	00		 call	 DWORD PTR __imp_?GetCount@CDisplayDataMinMax@@QBENXZ
  00083	8b 4d 0c	 mov	 ecx, DWORD PTR _curMinMax$[ebp]
  00086	dd 5d e8	 fstp	 QWORD PTR $T9[ebp]
  00089	ff 15 00 00 00
	00		 call	 DWORD PTR __imp_?GetDisplayMin@CDisplayDataMinMax@@QBENXZ
  0008f	8d 45 e8	 lea	 eax, DWORD PTR $T9[ebp]
  00092	8b cb		 mov	 ecx, ebx
  00094	50		 push	 eax
  00095	8d 45 e0	 lea	 eax, DWORD PTR $T6[ebp]
  00098	50		 push	 eax
  00099	8d 45 20	 lea	 eax, DWORD PTR $T23[ebp]
  0009c	50		 push	 eax
  0009d	dd 5d e0	 fstp	 QWORD PTR $T6[ebp]
  000a0	e8 00 00 00 00	 call	 ?GetRateText@CRateDrawer@@IBE?AV?$CStringT@DV?$StrTraitMFC_DLL@DV?$ChTraitsCRT@D@ATL@@@@@ATL@@ABN0@Z ; CRateDrawer::GetRateText

; 532  : 	{
; 533  : 		AddTailAndGetMaxLength("LH", GetRiseFallRateText_LowHigh(curMinMax), graphColor.GetColor5(), 

  000a5	57		 push	 edi
  000a6	ff 75 1c	 push	 DWORD PTR _nMaxLength_Data$[ebp]
  000a9	8d 45 f0	 lea	 eax, DWORD PTR $T14[ebp]
  000ac	c6 45 fc 01	 mov	 BYTE PTR __$EHRec$[ebp+8], 1
  000b0	ff 75 18	 push	 DWORD PTR _nMaxLength_Title$[ebp]
  000b3	8b cb		 mov	 ecx, ebx
  000b5	50		 push	 eax
  000b6	8d 45 20	 lea	 eax, DWORD PTR $T23[ebp]
  000b9	50		 push	 eax
  000ba	8d 45 08	 lea	 eax, DWORD PTR $T17[ebp]
  000bd	50		 push	 eax
  000be	e8 00 00 00 00	 call	 ?AddTailAndGetMaxLength@CDataInGraphRegionDrawer@@ABE_NABV?$CStringT@DV?$StrTraitMFC_DLL@DV?$ChTraitsCRT@D@ATL@@@@@ATL@@0ABKAAH2AAV?$CList@VCTextData@@AAV1@@@@Z ; CDataInGraphRegionDrawer::AddTailAndGetMaxLength
  000c3	8d 4d 20	 lea	 ecx, DWORD PTR $T23[ebp]
  000c6	ff 15 00 00 00
	00		 call	 DWORD PTR __imp_??1?$CStringT@DV?$StrTraitMFC_DLL@DV?$ChTraitsCRT@D@ATL@@@@@ATL@@QAE@XZ
  000cc	8d 4d 08	 lea	 ecx, DWORD PTR $T17[ebp]
  000cf	c7 45 fc ff ff
	ff ff		 mov	 DWORD PTR __$EHRec$[ebp+8], -1
  000d6	ff 15 00 00 00
	00		 call	 DWORD PTR __imp_??1?$CStringT@DV?$StrTraitMFC_DLL@DV?$ChTraitsCRT@D@ATL@@@@@ATL@@QAE@XZ
$LN2@GetDataTex:

; 534  : 			nMaxLength_Title, nMaxLength_Data, textDataList);
; 535  : 	}
; 536  : 	//     ()
; 537  : 	if(dataDrawing.DoesCalcRiseFallRate_LowCur())

  000dc	8b ce		 mov	 ecx, esi
  000de	ff 15 00 00 00
	00		 call	 DWORD PTR __imp_?DoesCalcRiseFallRate_LowCur@CGraphDataDrawingData@@QBE_NXZ
  000e4	84 c0		 test	 al, al
  000e6	0f 84 93 00 00
	00		 je	 $LN3@GetDataTex

; 538  : 	{
; 539  : 		AddTailAndGetMaxLength("LC", GetRiseFallRateText_LowCur(curMinMax.GetDisplayMin(), prices.GetCur()), graphColor.GetColor1(), 

  000ec	8b 4d 14	 mov	 ecx, DWORD PTR _graphColor$[ebp]
  000ef	ff 15 00 00 00
	00		 call	 DWORD PTR __imp_?GetColor1@CGraphColor@@QBEKXZ
  000f5	8b 4d 0c	 mov	 ecx, DWORD PTR _curMinMax$[ebp]
  000f8	89 45 f0	 mov	 DWORD PTR $T13[ebp], eax
  000fb	8b 45 10	 mov	 eax, DWORD PTR _prices$[ebp]
  000fe	f2 0f 10 40 08	 movsd	 xmm0, QWORD PTR [eax+8]
  00103	f2 0f 11 45 e0	 movsd	 QWORD PTR $T3[ebp], xmm0
  00108	ff 15 00 00 00
	00		 call	 DWORD PTR __imp_?GetDisplayMin@CDisplayDataMinMax@@QBENXZ
  0010e	68 00 00 00 00	 push	 OFFSET ??_C@_02KCGKEOIP@LC@
  00113	8d 4d 08	 lea	 ecx, DWORD PTR $T16[ebp]
  00116	dd 5d e8	 fstp	 QWORD PTR $T11[ebp]
  00119	ff 15 00 00 00
	00		 call	 DWORD PTR __imp_??0?$CStringT@DV?$StrTraitMFC_DLL@DV?$ChTraitsCRT@D@ATL@@@@@ATL@@QAE@PBD@Z

; 647  : 	return CRateDrawer::GetRateText(dLow, (dCur - dLow));

  0011f	f2 0f 10 45 e0	 movsd	 xmm0, QWORD PTR $T3[ebp]
  00124	8d 45 e0	 lea	 eax, DWORD PTR $T5[ebp]
  00127	f2 0f 5c 45 e8	 subsd	 xmm0, QWORD PTR $T11[ebp]
  0012c	50		 push	 eax
  0012d	8d 45 e8	 lea	 eax, DWORD PTR $T11[ebp]

; 538  : 	{
; 539  : 		AddTailAndGetMaxLength("LC", GetRiseFallRateText_LowCur(curMinMax.GetDisplayMin(), prices.GetCur()), graphColor.GetColor1(), 

  00130	c7 45 fc 02 00
	00 00		 mov	 DWORD PTR __$EHRec$[ebp+8], 2

; 647  : 	return CRateDrawer::GetRateText(dLow, (dCur - dLow));

  00137	50		 push	 eax
  00138	8d 45 20	 lea	 eax, DWORD PTR $T22[ebp]
  0013b	8b cb		 mov	 ecx, ebx
  0013d	50		 push	 eax
  0013e	f2 0f 11 45 e0	 movsd	 QWORD PTR $T5[ebp], xmm0
  00143	e8 00 00 00 00	 call	 ?GetRateText@CRateDrawer@@IBE?AV?$CStringT@DV?$StrTraitMFC_DLL@DV?$ChTraitsCRT@D@ATL@@@@@ATL@@ABN0@Z ; CRateDrawer::GetRateText

; 538  : 	{
; 539  : 		AddTailAndGetMaxLength("LC", GetRiseFallRateText_LowCur(curMinMax.GetDisplayMin(), prices.GetCur()), graphColor.GetColor1(), 

  00148	57		 push	 edi
  00149	ff 75 1c	 push	 DWORD PTR _nMaxLength_Data$[ebp]
  0014c	8d 45 f0	 lea	 eax, DWORD PTR $T13[ebp]
  0014f	c6 45 fc 03	 mov	 BYTE PTR __$EHRec$[ebp+8], 3
  00153	ff 75 18	 push	 DWORD PTR _nMaxLength_Title$[ebp]
  00156	8b cb		 mov	 ecx, ebx
  00158	50		 push	 eax
  00159	8d 45 20	 lea	 eax, DWORD PTR $T22[ebp]
  0015c	50		 push	 eax
  0015d	8d 45 08	 lea	 eax, DWORD PTR $T16[ebp]
  00160	50		 push	 eax
  00161	e8 00 00 00 00	 call	 ?AddTailAndGetMaxLength@CDataInGraphRegionDrawer@@ABE_NABV?$CStringT@DV?$StrTraitMFC_DLL@DV?$ChTraitsCRT@D@ATL@@@@@ATL@@0ABKAAH2AAV?$CList@VCTextData@@AAV1@@@@Z ; CDataInGraphRegionDrawer::AddTailAndGetMaxLength
  00166	8d 4d 20	 lea	 ecx, DWORD PTR $T22[ebp]
  00169	ff 15 00 00 00
	00		 call	 DWORD PTR __imp_??1?$CStringT@DV?$StrTraitMFC_DLL@DV?$ChTraitsCRT@D@ATL@@@@@ATL@@QAE@XZ
  0016f	8d 4d 08	 lea	 ecx, DWORD PTR $T16[ebp]
  00172	c7 45 fc ff ff
	ff ff		 mov	 DWORD PTR __$EHRec$[ebp+8], -1
  00179	ff 15 00 00 00
	00		 call	 DWORD PTR __imp_??1?$CStringT@DV?$StrTraitMFC_DLL@DV?$ChTraitsCRT@D@ATL@@@@@ATL@@QAE@XZ
$LN3@GetDataTex:

; 540  : 			nMaxLength_Title, nMaxLength_Data, textDataList);
; 541  : 	}
; 542  : 	//     ()
; 543  : 	if(dataDrawing.DoesCalcRiseFallRate_HighCur())

  0017f	8b ce		 mov	 ecx, esi
  00181	ff 15 00 00 00
	00		 call	 DWORD PTR __imp_?DoesCalcRiseFallRate_HighCur@CGraphDataDrawingData@@QBE_NXZ
  00187	84 c0		 test	 al, al
  00189	0f 84 93 00 00
	00		 je	 $LN4@GetDataTex

; 544  : 	{
; 545  : 		AddTailAndGetMaxLength("HC", GetRiseFallRateText_HighCur(curMinMax.GetDisplayMax(), prices.GetCur()), graphColor.GetColor3(), 

  0018f	8b 4d 14	 mov	 ecx, DWORD PTR _graphColor$[ebp]
  00192	ff 15 00 00 00
	00		 call	 DWORD PTR __imp_?GetColor3@CGraphColor@@QBEKXZ
  00198	8b 4d 0c	 mov	 ecx, DWORD PTR _curMinMax$[ebp]
  0019b	89 45 f0	 mov	 DWORD PTR $T12[ebp], eax
  0019e	8b 45 10	 mov	 eax, DWORD PTR _prices$[ebp]
  001a1	f2 0f 10 40 08	 movsd	 xmm0, QWORD PTR [eax+8]
  001a6	f2 0f 11 45 e0	 movsd	 QWORD PTR $T2[ebp], xmm0
  001ab	ff 15 00 00 00
	00		 call	 DWORD PTR __imp_?GetDisplayMax@CDisplayDataMinMax@@QBENXZ
  001b1	68 00 00 00 00	 push	 OFFSET ??_C@_02KFGDOGFD@HC@
  001b6	8d 4d 08	 lea	 ecx, DWORD PTR $T15[ebp]
  001b9	dd 5d e8	 fstp	 QWORD PTR $T10[ebp]
  001bc	ff 15 00 00 00
	00		 call	 DWORD PTR __imp_??0?$CStringT@DV?$StrTraitMFC_DLL@DV?$ChTraitsCRT@D@ATL@@@@@ATL@@QAE@PBD@Z

; 653  : 	return CRateDrawer::GetRateText(dHigh, (dCur - dHigh));

  001c2	f2 0f 10 45 e0	 movsd	 xmm0, QWORD PTR $T2[ebp]
  001c7	8d 45 e0	 lea	 eax, DWORD PTR $T4[ebp]
  001ca	f2 0f 5c 45 e8	 subsd	 xmm0, QWORD PTR $T10[ebp]
  001cf	50		 push	 eax
  001d0	8d 45 e8	 lea	 eax, DWORD PTR $T10[ebp]

; 544  : 	{
; 545  : 		AddTailAndGetMaxLength("HC", GetRiseFallRateText_HighCur(curMinMax.GetDisplayMax(), prices.GetCur()), graphColor.GetColor3(), 

  001d3	c7 45 fc 04 00
	00 00		 mov	 DWORD PTR __$EHRec$[ebp+8], 4

; 653  : 	return CRateDrawer::GetRateText(dHigh, (dCur - dHigh));

  001da	50		 push	 eax
  001db	8d 45 20	 lea	 eax, DWORD PTR $T21[ebp]
  001de	8b cb		 mov	 ecx, ebx
  001e0	50		 push	 eax
  001e1	f2 0f 11 45 e0	 movsd	 QWORD PTR $T4[ebp], xmm0
  001e6	e8 00 00 00 00	 call	 ?GetRateText@CRateDrawer@@IBE?AV?$CStringT@DV?$StrTraitMFC_DLL@DV?$ChTraitsCRT@D@ATL@@@@@ATL@@ABN0@Z ; CRateDrawer::GetRateText

; 544  : 	{
; 545  : 		AddTailAndGetMaxLength("HC", GetRiseFallRateText_HighCur(curMinMax.GetDisplayMax(), prices.GetCur()), graphColor.GetColor3(), 

  001eb	57		 push	 edi
  001ec	ff 75 1c	 push	 DWORD PTR _nMaxLength_Data$[ebp]
  001ef	8d 45 f0	 lea	 eax, DWORD PTR $T12[ebp]
  001f2	c6 45 fc 05	 mov	 BYTE PTR __$EHRec$[ebp+8], 5
  001f6	ff 75 18	 push	 DWORD PTR _nMaxLength_Title$[ebp]
  001f9	8b cb		 mov	 ecx, ebx
  001fb	50		 push	 eax
  001fc	8d 45 20	 lea	 eax, DWORD PTR $T21[ebp]
  001ff	50		 push	 eax
  00200	8d 45 08	 lea	 eax, DWORD PTR $T15[ebp]
  00203	50		 push	 eax
  00204	e8 00 00 00 00	 call	 ?AddTailAndGetMaxLength@CDataInGraphRegionDrawer@@ABE_NABV?$CStringT@DV?$StrTraitMFC_DLL@DV?$ChTraitsCRT@D@ATL@@@@@ATL@@0ABKAAH2AAV?$CList@VCTextData@@AAV1@@@@Z ; CDataInGraphRegionDrawer::AddTailAndGetMaxLength
  00209	8d 4d 20	 lea	 ecx, DWORD PTR $T21[ebp]
  0020c	ff 15 00 00 00
	00		 call	 DWORD PTR __imp_??1?$CStringT@DV?$StrTraitMFC_DLL@DV?$ChTraitsCRT@D@ATL@@@@@ATL@@QAE@XZ
  00212	8d 4d 08	 lea	 ecx, DWORD PTR $T15[ebp]
  00215	c7 45 fc ff ff
	ff ff		 mov	 DWORD PTR __$EHRec$[ebp+8], -1
  0021c	ff 15 00 00 00
	00		 call	 DWORD PTR __imp_??1?$CStringT@DV?$StrTraitMFC_DLL@DV?$ChTraitsCRT@D@ATL@@@@@ATL@@QAE@XZ
$LN4@GetDataTex:

; 546  : 			nMaxLength_Title, nMaxLength_Data, textDataList);
; 547  : 	}
; 548  : 	//  ()
; 549  : 	if(dataDrawing.DoesCalcRate_PrevCur())

  00222	8b ce		 mov	 ecx, esi
  00224	ff 15 00 00 00
	00		 call	 DWORD PTR __imp_?DoesCalcRate_PrevCur@CGraphDataDrawingData@@QBE_NXZ
  0022a	84 c0		 test	 al, al
  0022c	0f 84 91 00 00
	00		 je	 $LN5@GetDataTex

; 550  : 	{
; 551  : 		AddTailAndGetMaxLength( _LTEXT6( C6_PREVIOUS_DAY_COMP), GetRateText_PrevCur(prices), graphColor.GetColor5(), 

  00232	8b 4d 14	 mov	 ecx, DWORD PTR _graphColor$[ebp]
  00235	ff 15 00 00 00
	00		 call	 DWORD PTR __imp_?GetColor5@CGraphColor@@QBEKXZ
  0023b	89 45 20	 mov	 DWORD PTR $T20[ebp], eax
  0023e	b9 00 00 00 00	 mov	 ecx, OFFSET ?g_iMetaTable@@3VIMetaTable@@A ; g_iMetaTable
  00243	a1 54 00 00 00	 mov	 eax, DWORD PTR ?g_iMetaTable@@3VIMetaTable@@A+84
  00248	6a 00		 push	 0
  0024a	ff b0 a0 09 00
	00		 push	 DWORD PTR [eax+2464]
  00250	6a 06		 push	 6
  00252	ff 33		 push	 DWORD PTR [ebx]
  00254	e8 00 00 00 00	 call	 ?GetLanguageText@IMetaTable@@QAEPBDPAUHWND__@@W4E_CODEPAGE@1@PBDH@Z ; IMetaTable::GetLanguageText
  00259	50		 push	 eax
  0025a	8d 4d 14	 lea	 ecx, DWORD PTR $T19[ebp]
  0025d	ff 15 00 00 00
	00		 call	 DWORD PTR __imp_??0?$CStringT@DV?$StrTraitMFC_DLL@DV?$ChTraitsCRT@D@ATL@@@@@ATL@@QAE@PBD@Z

; 659  : 	return CRateDrawer::GetRateText(prices.GetPrev(), prices.GetCur());

  00263	8b 45 10	 mov	 eax, DWORD PTR _prices$[ebp]
  00266	8b cb		 mov	 ecx, ebx

; 550  : 	{
; 551  : 		AddTailAndGetMaxLength( _LTEXT6( C6_PREVIOUS_DAY_COMP), GetRateText_PrevCur(prices), graphColor.GetColor5(), 

  00268	c7 45 fc 06 00
	00 00		 mov	 DWORD PTR __$EHRec$[ebp+8], 6

; 659  : 	return CRateDrawer::GetRateText(prices.GetPrev(), prices.GetCur());

  0026f	f2 0f 10 40 08	 movsd	 xmm0, QWORD PTR [eax+8]
  00274	f2 0f 11 45 e0	 movsd	 QWORD PTR $T7[ebp], xmm0
  00279	f2 0f 10 00	 movsd	 xmm0, QWORD PTR [eax]
  0027d	8d 45 e0	 lea	 eax, DWORD PTR $T7[ebp]
  00280	50		 push	 eax
  00281	8d 45 e8	 lea	 eax, DWORD PTR $T8[ebp]
  00284	f2 0f 11 45 e8	 movsd	 QWORD PTR $T8[ebp], xmm0
  00289	50		 push	 eax
  0028a	8d 45 0c	 lea	 eax, DWORD PTR $T18[ebp]
  0028d	50		 push	 eax
  0028e	e8 00 00 00 00	 call	 ?GetRateText@CRateDrawer@@IBE?AV?$CStringT@DV?$StrTraitMFC_DLL@DV?$ChTraitsCRT@D@ATL@@@@@ATL@@ABN0@Z ; CRateDrawer::GetRateText

; 550  : 	{
; 551  : 		AddTailAndGetMaxLength( _LTEXT6( C6_PREVIOUS_DAY_COMP), GetRateText_PrevCur(prices), graphColor.GetColor5(), 

  00293	57		 push	 edi
  00294	ff 75 1c	 push	 DWORD PTR _nMaxLength_Data$[ebp]
  00297	8d 45 20	 lea	 eax, DWORD PTR $T20[ebp]
  0029a	c6 45 fc 07	 mov	 BYTE PTR __$EHRec$[ebp+8], 7
  0029e	ff 75 18	 push	 DWORD PTR _nMaxLength_Title$[ebp]
  002a1	8b cb		 mov	 ecx, ebx
  002a3	50		 push	 eax
  002a4	8d 45 0c	 lea	 eax, DWORD PTR $T18[ebp]
  002a7	50		 push	 eax
  002a8	8d 45 14	 lea	 eax, DWORD PTR $T19[ebp]
  002ab	50		 push	 eax
  002ac	e8 00 00 00 00	 call	 ?AddTailAndGetMaxLength@CDataInGraphRegionDrawer@@ABE_NABV?$CStringT@DV?$StrTraitMFC_DLL@DV?$ChTraitsCRT@D@ATL@@@@@ATL@@0ABKAAH2AAV?$CList@VCTextData@@AAV1@@@@Z ; CDataInGraphRegionDrawer::AddTailAndGetMaxLength
  002b1	8d 4d 0c	 lea	 ecx, DWORD PTR $T18[ebp]
  002b4	ff 15 00 00 00
	00		 call	 DWORD PTR __imp_??1?$CStringT@DV?$StrTraitMFC_DLL@DV?$ChTraitsCRT@D@ATL@@@@@ATL@@QAE@XZ
  002ba	8d 4d 14	 lea	 ecx, DWORD PTR $T19[ebp]
  002bd	ff 15 00 00 00
	00		 call	 DWORD PTR __imp_??1?$CStringT@DV?$StrTraitMFC_DLL@DV?$ChTraitsCRT@D@ATL@@@@@ATL@@QAE@XZ
$LN5@GetDataTex:

; 552  : 			nMaxLength_Title, nMaxLength_Data, textDataList);
; 553  : 	}
; 554  : 
; 555  : 	return (textDataList.GetCount() > 0);

  002c3	83 7f 0c 00	 cmp	 DWORD PTR [edi+12], 0
  002c7	0f 9f c0	 setg	 al

; 556  : }

  002ca	8b 4d f4	 mov	 ecx, DWORD PTR __$EHRec$[ebp]
  002cd	64 89 0d 00 00
	00 00		 mov	 DWORD PTR fs:0, ecx
  002d4	59		 pop	 ecx
  002d5	5f		 pop	 edi
  002d6	5e		 pop	 esi
  002d7	5b		 pop	 ebx
  002d8	8b e5		 mov	 esp, ebp
  002da	5d		 pop	 ebp
  002db	c2 1c 00	 ret	 28			; 0000001cH
_TEXT	ENDS
;	COMDAT text$x
text$x	SEGMENT
__unwindfunclet$?GetDataTexts@CDataInGraphRegionDrawer@@ABE_NABVCGraphDataDrawingData@@ABVCDisplayDataMinMax@@ABVCPrices@@ABVCGraphColor@@AAH4AAV?$CList@VCTextData@@AAV1@@@@Z$0:
  00000	8d 4d 08	 lea	 ecx, DWORD PTR $T17[ebp]
  00003	ff 25 00 00 00
	00		 jmp	 DWORD PTR __imp_??1?$CStringT@DV?$StrTraitMFC_DLL@DV?$ChTraitsCRT@D@ATL@@@@@ATL@@QAE@XZ
__unwindfunclet$?GetDataTexts@CDataInGraphRegionDrawer@@ABE_NABVCGraphDataDrawingData@@ABVCDisplayDataMinMax@@ABVCPrices@@ABVCGraphColor@@AAH4AAV?$CList@VCTextData@@AAV1@@@@Z$1:
  00009	8d 4d 20	 lea	 ecx, DWORD PTR $T23[ebp]
  0000c	ff 25 00 00 00
	00		 jmp	 DWORD PTR __imp_??1?$CStringT@DV?$StrTraitMFC_DLL@DV?$ChTraitsCRT@D@ATL@@@@@ATL@@QAE@XZ
__unwindfunclet$?GetDataTexts@CDataInGraphRegionDrawer@@ABE_NABVCGraphDataDrawingData@@ABVCDisplayDataMinMax@@ABVCPrices@@ABVCGraphColor@@AAH4AAV?$CList@VCTextData@@AAV1@@@@Z$2:
  00012	8d 4d 08	 lea	 ecx, DWORD PTR $T16[ebp]
  00015	ff 25 00 00 00
	00		 jmp	 DWORD PTR __imp_??1?$CStringT@DV?$StrTraitMFC_DLL@DV?$ChTraitsCRT@D@ATL@@@@@ATL@@QAE@XZ
__unwindfunclet$?GetDataTexts@CDataInGraphRegionDrawer@@ABE_NABVCGraphDataDrawingData@@ABVCDisplayDataMinMax@@ABVCPrices@@ABVCGraphColor@@AAH4AAV?$CList@VCTextData@@AAV1@@@@Z$3:
  0001b	8d 4d 20	 lea	 ecx, DWORD PTR $T22[ebp]
  0001e	ff 25 00 00 00
	00		 jmp	 DWORD PTR __imp_??1?$CStringT@DV?$StrTraitMFC_DLL@DV?$ChTraitsCRT@D@ATL@@@@@ATL@@QAE@XZ
__unwindfunclet$?GetDataTexts@CDataInGraphRegionDrawer@@ABE_NABVCGraphDataDrawingData@@ABVCDisplayDataMinMax@@ABVCPrices@@ABVCGraphColor@@AAH4AAV?$CList@VCTextData@@AAV1@@@@Z$4:
  00024	8d 4d 08	 lea	 ecx, DWORD PTR $T15[ebp]
  00027	ff 25 00 00 00
	00		 jmp	 DWORD PTR __imp_??1?$CStringT@DV?$StrTraitMFC_DLL@DV?$ChTraitsCRT@D@ATL@@@@@ATL@@QAE@XZ
__unwindfunclet$?GetDataTexts@CDataInGraphRegionDrawer@@ABE_NABVCGraphDataDrawingData@@ABVCDisplayDataMinMax@@ABVCPrices@@ABVCGraphColor@@AAH4AAV?$CList@VCTextData@@AAV1@@@@Z$5:
  0002d	8d 4d 20	 lea	 ecx, DWORD PTR $T21[ebp]
  00030	ff 25 00 00 00
	00		 jmp	 DWORD PTR __imp_??1?$CStringT@DV?$StrTraitMFC_DLL@DV?$ChTraitsCRT@D@ATL@@@@@ATL@@QAE@XZ
__unwindfunclet$?GetDataTexts@CDataInGraphRegionDrawer@@ABE_NABVCGraphDataDrawingData@@ABVCDisplayDataMinMax@@ABVCPrices@@ABVCGraphColor@@AAH4AAV?$CList@VCTextData@@AAV1@@@@Z$6:
  00036	8d 4d 14	 lea	 ecx, DWORD PTR $T19[ebp]
  00039	ff 25 00 00 00
	00		 jmp	 DWORD PTR __imp_??1?$CStringT@DV?$StrTraitMFC_DLL@DV?$ChTraitsCRT@D@ATL@@@@@ATL@@QAE@XZ
__unwindfunclet$?GetDataTexts@CDataInGraphRegionDrawer@@ABE_NABVCGraphDataDrawingData@@ABVCDisplayDataMinMax@@ABVCPrices@@ABVCGraphColor@@AAH4AAV?$CList@VCTextData@@AAV1@@@@Z$7:
  0003f	8d 4d 0c	 lea	 ecx, DWORD PTR $T18[ebp]
  00042	ff 25 00 00 00
	00		 jmp	 DWORD PTR __imp_??1?$CStringT@DV?$StrTraitMFC_DLL@DV?$ChTraitsCRT@D@ATL@@@@@ATL@@QAE@XZ
  00048	cc		 int	 3
  00049	cc		 int	 3
  0004a	cc		 int	 3
  0004b	cc		 int	 3
  0004c	cc		 int	 3
__ehhandler$?GetDataTexts@CDataInGraphRegionDrawer@@ABE_NABVCGraphDataDrawingData@@ABVCDisplayDataMinMax@@ABVCPrices@@ABVCGraphColor@@AAH4AAV?$CList@VCTextData@@AAV1@@@@Z:
  0004d	90		 npad	 1
  0004e	90		 npad	 1
  0004f	8b 54 24 08	 mov	 edx, DWORD PTR [esp+8]
  00053	8d 42 0c	 lea	 eax, DWORD PTR [edx+12]
  00056	8b 4a dc	 mov	 ecx, DWORD PTR [edx-36]
  00059	33 c8		 xor	 ecx, eax
  0005b	e8 00 00 00 00	 call	 @__security_check_cookie@4
  00060	b8 00 00 00 00	 mov	 eax, OFFSET __ehfuncinfo$?GetDataTexts@CDataInGraphRegionDrawer@@ABE_NABVCGraphDataDrawingData@@ABVCDisplayDataMinMax@@ABVCPrices@@ABVCGraphColor@@AAH4AAV?$CList@VCTextData@@AAV1@@@@Z
  00065	e9 00 00 00 00	 jmp	 ___CxxFrameHandler3
text$x	ENDS
?GetDataTexts@CDataInGraphRegionDrawer@@ABE_NABVCGraphDataDrawingData@@ABVCDisplayDataMinMax@@ABVCPrices@@ABVCGraphColor@@AAH4AAV?$CList@VCTextData@@AAV1@@@@Z ENDP ; CDataInGraphRegionDrawer::GetDataTexts
; Function compile flags: /Ogtp
; File D:\git\src\IBK\IBK_DRFN\ProjSrc\SrcChartEx\ChartOCX\GraphDraw\GraphDataDrawer.cpp
; File C:\Program Files (x86)\Microsoft Visual Studio\2019\Community\VC\Tools\MSVC\14.29.30133\atlmfc\include\afxtempl.h
; File D:\git\src\IBK\IBK_DRFN\ProjSrc\SrcChartEx\ChartOCX\GraphDraw\GraphDataDrawer.cpp
; File C:\Program Files (x86)\Microsoft Visual Studio\2019\Community\VC\Tools\MSVC\14.29.30133\atlmfc\include\afxtempl.h
; File D:\git\src\IBK\IBK_DRFN\ProjSrc\SrcChartEx\ChartOCX\GraphDraw\GraphDataDrawer.cpp
;	COMDAT ?GetDataTexts@CDataInGraphRegionDrawer@@ABE_NABVCGraphDataDrawingData@@ABVCDisplayDataMinMax@@ABVCPrices@@ABVCGraphColor@@AAV?$CList@VCTextData@@AAV1@@@@Z
_TEXT	SEGMENT
_this$1$ = -24						; size = 4
_nMaxLength_Data$ = -20					; size = 4
_nMaxLength_Title$ = -16				; size = 4
__$EHRec$ = -12						; size = 12
_dataDrawing$ = 8					; size = 4
$T2 = 12						; size = 4
_curMinMax$ = 12					; size = 4
$T3 = 16						; size = 4
_prices$ = 16						; size = 4
_strNewData$4 = 20					; size = 4
_graphColor$ = 20					; size = 4
_textDataList$ = 24					; size = 4
?GetDataTexts@CDataInGraphRegionDrawer@@ABE_NABVCGraphDataDrawingData@@ABVCDisplayDataMinMax@@ABVCPrices@@ABVCGraphColor@@AAV?$CList@VCTextData@@AAV1@@@@Z PROC ; CDataInGraphRegionDrawer::GetDataTexts, COMDAT
; _this$ = ecx

; 514  : {

  00000	55		 push	 ebp
  00001	8b ec		 mov	 ebp, esp
  00003	6a ff		 push	 -1
  00005	68 00 00 00 00	 push	 __ehhandler$?GetDataTexts@CDataInGraphRegionDrawer@@ABE_NABVCGraphDataDrawingData@@ABVCDisplayDataMinMax@@ABVCPrices@@ABVCGraphColor@@AAV?$CList@VCTextData@@AAV1@@@@Z
  0000a	64 a1 00 00 00
	00		 mov	 eax, DWORD PTR fs:0
  00010	50		 push	 eax
  00011	83 ec 0c	 sub	 esp, 12			; 0000000cH
  00014	53		 push	 ebx
  00015	56		 push	 esi
  00016	57		 push	 edi
  00017	a1 00 00 00 00	 mov	 eax, DWORD PTR ___security_cookie
  0001c	33 c5		 xor	 eax, ebp
  0001e	50		 push	 eax
  0001f	8d 45 f4	 lea	 eax, DWORD PTR __$EHRec$[ebp]
  00022	64 a3 00 00 00
	00		 mov	 DWORD PTR fs:0, eax
  00028	8b d9		 mov	 ebx, ecx
  0002a	89 5d e8	 mov	 DWORD PTR _this$1$[ebp], ebx

; 515  : 	int nMaxLength_Title(0), nMaxLength_Data(0);
; 516  : 	if(!GetDataTexts(dataDrawing, curMinMax, prices, graphColor, nMaxLength_Title, nMaxLength_Data, textDataList))

  0002d	8b 7d 18	 mov	 edi, DWORD PTR _textDataList$[ebp]
  00030	8d 45 ec	 lea	 eax, DWORD PTR _nMaxLength_Data$[ebp]
  00033	57		 push	 edi
  00034	50		 push	 eax
  00035	8d 45 f0	 lea	 eax, DWORD PTR _nMaxLength_Title$[ebp]
  00038	c7 45 f0 00 00
	00 00		 mov	 DWORD PTR _nMaxLength_Title$[ebp], 0
  0003f	50		 push	 eax
  00040	ff 75 14	 push	 DWORD PTR _graphColor$[ebp]
  00043	c7 45 ec 00 00
	00 00		 mov	 DWORD PTR _nMaxLength_Data$[ebp], 0
  0004a	ff 75 10	 push	 DWORD PTR _prices$[ebp]
  0004d	ff 75 0c	 push	 DWORD PTR _curMinMax$[ebp]
  00050	ff 75 08	 push	 DWORD PTR _dataDrawing$[ebp]
  00053	e8 00 00 00 00	 call	 ?GetDataTexts@CDataInGraphRegionDrawer@@ABE_NABVCGraphDataDrawingData@@ABVCDisplayDataMinMax@@ABVCPrices@@ABVCGraphColor@@AAH4AAV?$CList@VCTextData@@AAV1@@@@Z ; CDataInGraphRegionDrawer::GetDataTexts
  00058	84 c0		 test	 al, al
  0005a	75 14		 jne	 SHORT $LN2@GetDataTex

; 521  : }

  0005c	8b 4d f4	 mov	 ecx, DWORD PTR __$EHRec$[ebp]
  0005f	64 89 0d 00 00
	00 00		 mov	 DWORD PTR fs:0, ecx
  00066	59		 pop	 ecx
  00067	5f		 pop	 edi
  00068	5e		 pop	 esi
  00069	5b		 pop	 ebx
  0006a	8b e5		 mov	 esp, ebp
  0006c	5d		 pop	 ebp
  0006d	c2 14 00	 ret	 20			; 00000014H
$LN2@GetDataTex:

; 599  : 	if((nMaxLength_Title <= 0 && nMaxLength_Data <= 0) || textDataList.GetCount() <= 0)

  00070	83 7d f0 00	 cmp	 DWORD PTR _nMaxLength_Title$[ebp], 0
  00074	7f 0a		 jg	 SHORT $LN9@GetDataTex
  00076	83 7d ec 00	 cmp	 DWORD PTR _nMaxLength_Data$[ebp], 0
  0007a	0f 8e d0 00 00
	00		 jle	 $LN6@GetDataTex
$LN9@GetDataTex:
  00080	83 7f 0c 00	 cmp	 DWORD PTR [edi+12], 0
  00084	0f 8e ca 00 00
	00		 jle	 $LN38@GetDataTex

; 600  : 		return;
; 601  : 
; 602  : 	POSITION pos = textDataList.GetHeadPosition();

  0008a	8b 77 04	 mov	 esi, DWORD PTR [edi+4]

; 603  : 	while(pos != NULL)

  0008d	85 f6		 test	 esi, esi
  0008f	0f 84 bb 00 00
	00		 je	 $LN6@GetDataTex
$LL5@GetDataTex:
; File C:\Program Files (x86)\Microsoft Visual Studio\2019\Community\VC\Tools\MSVC\14.29.30133\atlmfc\include\afxtempl.h

; 811  : 	{ CNode* pNode = (CNode*) rPosition;

  00095	8b fe		 mov	 edi, esi
; File D:\git\src\IBK\IBK_DRFN\ProjSrc\SrcChartEx\ChartOCX\GraphDraw\GraphDataDrawer.cpp

; 606  : 		CString strNewData;

  00097	8d 4d 14	 lea	 ecx, DWORD PTR _strNewData$4[ebp]
; File C:\Program Files (x86)\Microsoft Visual Studio\2019\Community\VC\Tools\MSVC\14.29.30133\atlmfc\include\afxtempl.h

; 813  : 		rPosition = (POSITION) pNode->pNext;

  0009a	8b 36		 mov	 esi, DWORD PTR [esi]

; 814  : 		return pNode->data; }

  0009c	83 c7 08	 add	 edi, 8
; File D:\git\src\IBK\IBK_DRFN\ProjSrc\SrcChartEx\ChartOCX\GraphDraw\GraphDataDrawer.cpp

; 606  : 		CString strNewData;

  0009f	ff 15 00 00 00
	00		 call	 DWORD PTR __imp_??0?$CStringT@DV?$StrTraitMFC_DLL@DV?$ChTraitsCRT@D@ATL@@@@@ATL@@QAE@XZ

; 199  : 	return m_strTitle;

  000a5	57		 push	 edi
  000a6	8d 4d 10	 lea	 ecx, DWORD PTR $T3[ebp]

; 606  : 		CString strNewData;

  000a9	c7 45 fc 00 00
	00 00		 mov	 DWORD PTR __$EHRec$[ebp+8], 0

; 199  : 	return m_strTitle;

  000b0	ff 15 00 00 00
	00		 call	 DWORD PTR __imp_??0?$CStringT@DV?$StrTraitMFC_DLL@DV?$ChTraitsCRT@D@ATL@@@@@ATL@@QAE@ABV01@@Z

; 607  : 		if(GetChangingData(textData.GetTitle(), nMaxLength_Title, true, strNewData))

  000b6	8d 45 14	 lea	 eax, DWORD PTR _strNewData$4[ebp]
  000b9	c6 45 fc 01	 mov	 BYTE PTR __$EHRec$[ebp+8], 1
  000bd	50		 push	 eax
  000be	6a 01		 push	 1
  000c0	ff 75 f0	 push	 DWORD PTR _nMaxLength_Title$[ebp]
  000c3	8d 45 10	 lea	 eax, DWORD PTR $T3[ebp]
  000c6	8b cb		 mov	 ecx, ebx
  000c8	50		 push	 eax
  000c9	e8 00 00 00 00	 call	 ?GetChangingData@CDataInGraphRegionDrawer@@ABE_NABV?$CStringT@DV?$StrTraitMFC_DLL@DV?$ChTraitsCRT@D@ATL@@@@@ATL@@H_NAAV23@@Z ; CDataInGraphRegionDrawer::GetChangingData
  000ce	8d 4d 10	 lea	 ecx, DWORD PTR $T3[ebp]
  000d1	c6 45 fc 00	 mov	 BYTE PTR __$EHRec$[ebp+8], 0
  000d5	8a d8		 mov	 bl, al
  000d7	ff 15 00 00 00
	00		 call	 DWORD PTR __imp_??1?$CStringT@DV?$StrTraitMFC_DLL@DV?$ChTraitsCRT@D@ATL@@@@@ATL@@QAE@XZ
  000dd	84 db		 test	 bl, bl
  000df	74 0c		 je	 SHORT $LN10@GetDataTex

; 184  : 	m_strTitle = strTitle;

  000e1	8d 45 14	 lea	 eax, DWORD PTR _strNewData$4[ebp]
  000e4	8b cf		 mov	 ecx, edi
  000e6	50		 push	 eax
  000e7	ff 15 00 00 00
	00		 call	 DWORD PTR __imp_??4?$CStringT@DV?$StrTraitMFC_DLL@DV?$ChTraitsCRT@D@ATL@@@@@ATL@@QAEAAV01@ABV01@@Z
$LN10@GetDataTex:

; 204  : 	return m_strData;

  000ed	83 c7 04	 add	 edi, 4
  000f0	8d 4d 0c	 lea	 ecx, DWORD PTR $T2[ebp]
  000f3	57		 push	 edi
  000f4	ff 15 00 00 00
	00		 call	 DWORD PTR __imp_??0?$CStringT@DV?$StrTraitMFC_DLL@DV?$ChTraitsCRT@D@ATL@@@@@ATL@@QAE@ABV01@@Z

; 609  : 		if(GetChangingData(textData.GetData(), nMaxLength_Data, false, strNewData))

  000fa	8b 4d e8	 mov	 ecx, DWORD PTR _this$1$[ebp]
  000fd	8d 45 14	 lea	 eax, DWORD PTR _strNewData$4[ebp]
  00100	50		 push	 eax
  00101	6a 00		 push	 0
  00103	ff 75 ec	 push	 DWORD PTR _nMaxLength_Data$[ebp]
  00106	8d 45 0c	 lea	 eax, DWORD PTR $T2[ebp]
  00109	c6 45 fc 02	 mov	 BYTE PTR __$EHRec$[ebp+8], 2
  0010d	50		 push	 eax
  0010e	e8 00 00 00 00	 call	 ?GetChangingData@CDataInGraphRegionDrawer@@ABE_NABV?$CStringT@DV?$StrTraitMFC_DLL@DV?$ChTraitsCRT@D@ATL@@@@@ATL@@H_NAAV23@@Z ; CDataInGraphRegionDrawer::GetChangingData
  00113	8d 4d 0c	 lea	 ecx, DWORD PTR $T2[ebp]
  00116	c6 45 fc 00	 mov	 BYTE PTR __$EHRec$[ebp+8], 0
  0011a	8a d8		 mov	 bl, al
  0011c	ff 15 00 00 00
	00		 call	 DWORD PTR __imp_??1?$CStringT@DV?$StrTraitMFC_DLL@DV?$ChTraitsCRT@D@ATL@@@@@ATL@@QAE@XZ
  00122	84 db		 test	 bl, bl
  00124	74 0c		 je	 SHORT $LN33@GetDataTex

; 189  : 	m_strData = strData;

  00126	8d 45 14	 lea	 eax, DWORD PTR _strNewData$4[ebp]
  00129	8b cf		 mov	 ecx, edi
  0012b	50		 push	 eax
  0012c	ff 15 00 00 00
	00		 call	 DWORD PTR __imp_??4?$CStringT@DV?$StrTraitMFC_DLL@DV?$ChTraitsCRT@D@ATL@@@@@ATL@@QAEAAV01@ABV01@@Z
$LN33@GetDataTex:

; 611  : 	}

  00132	8d 4d 14	 lea	 ecx, DWORD PTR _strNewData$4[ebp]
  00135	c7 45 fc ff ff
	ff ff		 mov	 DWORD PTR __$EHRec$[ebp+8], -1
  0013c	ff 15 00 00 00
	00		 call	 DWORD PTR __imp_??1?$CStringT@DV?$StrTraitMFC_DLL@DV?$ChTraitsCRT@D@ATL@@@@@ATL@@QAE@XZ
  00142	8b 5d e8	 mov	 ebx, DWORD PTR _this$1$[ebp]
  00145	85 f6		 test	 esi, esi
  00147	0f 85 48 ff ff
	ff		 jne	 $LL5@GetDataTex
  0014d	8b 7d 18	 mov	 edi, DWORD PTR _textDataList$[ebp]
$LN6@GetDataTex:

; 517  : 		return false;
; 518  : 
; 519  : 	ChangeData(nMaxLength_Title, nMaxLength_Data, textDataList);
; 520  : 	return (textDataList.GetCount() > 0);

  00150	83 7f 0c 00	 cmp	 DWORD PTR [edi+12], 0
$LN38@GetDataTex:
  00154	0f 9f c0	 setg	 al

; 521  : }

  00157	8b 4d f4	 mov	 ecx, DWORD PTR __$EHRec$[ebp]
  0015a	64 89 0d 00 00
	00 00		 mov	 DWORD PTR fs:0, ecx
  00161	59		 pop	 ecx
  00162	5f		 pop	 edi
  00163	5e		 pop	 esi
  00164	5b		 pop	 ebx
  00165	8b e5		 mov	 esp, ebp
  00167	5d		 pop	 ebp
  00168	c2 14 00	 ret	 20			; 00000014H
_TEXT	ENDS
;	COMDAT text$x
text$x	SEGMENT
__unwindfunclet$?GetDataTexts@CDataInGraphRegionDrawer@@ABE_NABVCGraphDataDrawingData@@ABVCDisplayDataMinMax@@ABVCPrices@@ABVCGraphColor@@AAV?$CList@VCTextData@@AAV1@@@@Z$0:
  00000	8d 4d 14	 lea	 ecx, DWORD PTR _strNewData$4[ebp]
  00003	ff 25 00 00 00
	00		 jmp	 DWORD PTR __imp_??1?$CStringT@DV?$StrTraitMFC_DLL@DV?$ChTraitsCRT@D@ATL@@@@@ATL@@QAE@XZ
__unwindfunclet$?GetDataTexts@CDataInGraphRegionDrawer@@ABE_NABVCGraphDataDrawingData@@ABVCDisplayDataMinMax@@ABVCPrices@@ABVCGraphColor@@AAV?$CList@VCTextData@@AAV1@@@@Z$1:
  00009	8d 4d 10	 lea	 ecx, DWORD PTR $T3[ebp]
  0000c	ff 25 00 00 00
	00		 jmp	 DWORD PTR __imp_??1?$CStringT@DV?$StrTraitMFC_DLL@DV?$ChTraitsCRT@D@ATL@@@@@ATL@@QAE@XZ
__unwindfunclet$?GetDataTexts@CDataInGraphRegionDrawer@@ABE_NABVCGraphDataDrawingData@@ABVCDisplayDataMinMax@@ABVCPrices@@ABVCGraphColor@@AAV?$CList@VCTextData@@AAV1@@@@Z$2:
  00012	8d 4d 0c	 lea	 ecx, DWORD PTR $T2[ebp]
  00015	ff 25 00 00 00
	00		 jmp	 DWORD PTR __imp_??1?$CStringT@DV?$StrTraitMFC_DLL@DV?$ChTraitsCRT@D@ATL@@@@@ATL@@QAE@XZ
  0001b	cc		 int	 3
  0001c	cc		 int	 3
  0001d	cc		 int	 3
  0001e	cc		 int	 3
  0001f	cc		 int	 3
__ehhandler$?GetDataTexts@CDataInGraphRegionDrawer@@ABE_NABVCGraphDataDrawingData@@ABVCDisplayDataMinMax@@ABVCPrices@@ABVCGraphColor@@AAV?$CList@VCTextData@@AAV1@@@@Z:
  00020	90		 npad	 1
  00021	90		 npad	 1
  00022	8b 54 24 08	 mov	 edx, DWORD PTR [esp+8]
  00026	8d 42 0c	 lea	 eax, DWORD PTR [edx+12]
  00029	8b 4a e4	 mov	 ecx, DWORD PTR [edx-28]
  0002c	33 c8		 xor	 ecx, eax
  0002e	e8 00 00 00 00	 call	 @__security_check_cookie@4
  00033	b8 00 00 00 00	 mov	 eax, OFFSET __ehfuncinfo$?GetDataTexts@CDataInGraphRegionDrawer@@ABE_NABVCGraphDataDrawingData@@ABVCDisplayDataMinMax@@ABVCPrices@@ABVCGraphColor@@AAV?$CList@VCTextData@@AAV1@@@@Z
  00038	e9 00 00 00 00	 jmp	 ___CxxFrameHandler3
text$x	ENDS
?GetDataTexts@CDataInGraphRegionDrawer@@ABE_NABVCGraphDataDrawingData@@ABVCDisplayDataMinMax@@ABVCPrices@@ABVCGraphColor@@AAV?$CList@VCTextData@@AAV1@@@@Z ENDP ; CDataInGraphRegionDrawer::GetDataTexts
; Function compile flags: /Ogtp
; File D:\git\src\IBK\IBK_DRFN\ProjSrc\SrcChartEx\ChartOCX\GraphDraw\GraphDataDrawer.cpp
; File C:\Program Files (x86)\Microsoft Visual Studio\2019\Community\VC\Tools\MSVC\14.29.30133\atlmfc\include\cstringt.h
; File D:\git\src\IBK\IBK_DRFN\ProjSrc\SrcChartEx\ChartOCX\GraphDraw\GraphDataDrawer.cpp
;	COMDAT ?GetHighLow@CDataInGraphRegionDrawer@@ABE_NABV?$CStringT@DV?$StrTraitMFC_DLL@DV?$ChTraitsCRT@D@ATL@@@@@ATL@@ABVCGraphStyle@@ABV?$CList@PAVCPacket@@PAV1@@@ABVCDisplayAttributes@@AAVCDisplayDataMinMax@@@Z
_TEXT	SEGMENT
_dMin$ = -56						; size = 8
_dMax$ = -48						; size = 8
_dMin$2 = -40						; size = 8
_dMax$3 = -32						; size = 8
_dTemp$4 = -24						; size = 8
_pPacket_High$1$ = -16					; size = 4
__$EHRec$ = -12						; size = 12
_strIndicatorName$ = 8					; size = 4
_drawingPacketFinder$ = 11				; size = 1
$T5 = 12						; size = 4
_graphStyle$ = 12					; size = 4
$T6 = 16						; size = 4
_packetList$ = 16					; size = 4
_displayAttributes$ = 20				; size = 4
_curMinMax$ = 24					; size = 4
?GetHighLow@CDataInGraphRegionDrawer@@ABE_NABV?$CStringT@DV?$StrTraitMFC_DLL@DV?$ChTraitsCRT@D@ATL@@@@@ATL@@ABVCGraphStyle@@ABV?$CList@PAVCPacket@@PAV1@@@ABVCDisplayAttributes@@AAVCDisplayDataMinMax@@@Z PROC ; CDataInGraphRegionDrawer::GetHighLow, COMDAT
; _this$ = ecx

; 476  : {

  00000	55		 push	 ebp
  00001	8b ec		 mov	 ebp, esp
  00003	6a ff		 push	 -1
  00005	68 00 00 00 00	 push	 __ehhandler$?GetHighLow@CDataInGraphRegionDrawer@@ABE_NABV?$CStringT@DV?$StrTraitMFC_DLL@DV?$ChTraitsCRT@D@ATL@@@@@ATL@@ABVCGraphStyle@@ABV?$CList@PAVCPacket@@PAV1@@@ABVCDisplayAttributes@@AAVCDisplayDataMinMax@@@Z
  0000a	64 a1 00 00 00
	00		 mov	 eax, DWORD PTR fs:0
  00010	50		 push	 eax
  00011	83 ec 2c	 sub	 esp, 44			; 0000002cH
  00014	53		 push	 ebx
  00015	56		 push	 esi
  00016	57		 push	 edi
  00017	a1 00 00 00 00	 mov	 eax, DWORD PTR ___security_cookie
  0001c	33 c5		 xor	 eax, ebp
  0001e	50		 push	 eax
  0001f	8d 45 f4	 lea	 eax, DWORD PTR __$EHRec$[ebp]
  00022	64 a3 00 00 00
	00		 mov	 DWORD PTR fs:0, eax

; 482  : 		&& graphStyle.GetGraphBongStyle() != CGraphBaseData::Line_Draw)

  00028	a1 54 00 00 00	 mov	 eax, DWORD PTR ?g_iMetaTable@@3VIMetaTable@@A+84
; File C:\Program Files (x86)\Microsoft Visual Studio\2019\Community\VC\Tools\MSVC\14.29.30133\atlmfc\include\cstringt.h

; 2486 : 		return(str1.Compare(psz2) == 0);

  0002d	8b 75 08	 mov	 esi, DWORD PTR _strIndicatorName$[ebp]
  00030	8b ce		 mov	 ecx, esi
  00032	ff b0 28 03 00
	00		 push	 DWORD PTR [eax+808]
  00038	ff 15 00 00 00
	00		 call	 DWORD PTR __imp_?Compare@?$CStringT@DV?$StrTraitMFC_DLL@DV?$ChTraitsCRT@D@ATL@@@@@ATL@@QBEHPBD@Z
  0003e	85 c0		 test	 eax, eax
; File D:\git\src\IBK\IBK_DRFN\ProjSrc\SrcChartEx\ChartOCX\GraphDraw\GraphDataDrawer.cpp

; 482  : 		&& graphStyle.GetGraphBongStyle() != CGraphBaseData::Line_Draw)

  00040	0f 85 28 01 00
	00		 jne	 $LN2@GetHighLow
  00046	8b 45 0c	 mov	 eax, DWORD PTR _graphStyle$[ebp]
  00049	83 38 02	 cmp	 DWORD PTR [eax], 2
  0004c	0f 84 1c 01 00
	00		 je	 $LN2@GetHighLow

; 483  : 	{
; 484  : 		CPacket* pPacket_High = drawingPacketFinder.GetPacket(packetList, _MTEXT( C0_HIGH));

  00052	a1 54 00 00 00	 mov	 eax, DWORD PTR ?g_iMetaTable@@3VIMetaTable@@A+84
  00057	8d 4d 0c	 lea	 ecx, DWORD PTR $T5[ebp]
  0005a	ff 70 0c	 push	 DWORD PTR [eax+12]
  0005d	ff 15 00 00 00
	00		 call	 DWORD PTR __imp_??0?$CStringT@DV?$StrTraitMFC_DLL@DV?$ChTraitsCRT@D@ATL@@@@@ATL@@QAE@PBD@Z
  00063	8b 75 10	 mov	 esi, DWORD PTR _packetList$[ebp]
  00066	8d 45 0c	 lea	 eax, DWORD PTR $T5[ebp]
  00069	50		 push	 eax
  0006a	56		 push	 esi
  0006b	8d 4d 0b	 lea	 ecx, DWORD PTR _drawingPacketFinder$[ebp]
  0006e	c7 45 fc 00 00
	00 00		 mov	 DWORD PTR __$EHRec$[ebp+8], 0
  00075	e8 00 00 00 00	 call	 ?GetPacket@CDrawingPacketFinder@@QBEPAVCPacket@@ABV?$CList@PAVCPacket@@PAV1@@@ABV?$CStringT@DV?$StrTraitMFC_DLL@DV?$ChTraitsCRT@D@ATL@@@@@ATL@@@Z ; CDrawingPacketFinder::GetPacket
  0007a	8b d8		 mov	 ebx, eax
  0007c	c7 45 fc ff ff
	ff ff		 mov	 DWORD PTR __$EHRec$[ebp+8], -1
  00083	8d 4d 0c	 lea	 ecx, DWORD PTR $T5[ebp]
  00086	89 5d f0	 mov	 DWORD PTR _pPacket_High$1$[ebp], ebx
  00089	ff 15 00 00 00
	00		 call	 DWORD PTR __imp_??1?$CStringT@DV?$StrTraitMFC_DLL@DV?$ChTraitsCRT@D@ATL@@@@@ATL@@QAE@XZ

; 485  : 		CPacket* pPacket_Low = drawingPacketFinder.GetPacket(packetList, _MTEXT( C0_LOW));

  0008f	8b 0d 54 00 00
	00		 mov	 ecx, DWORD PTR ?g_iMetaTable@@3VIMetaTable@@A+84
  00095	ff 71 10	 push	 DWORD PTR [ecx+16]
  00098	8d 4d 10	 lea	 ecx, DWORD PTR $T6[ebp]
  0009b	ff 15 00 00 00
	00		 call	 DWORD PTR __imp_??0?$CStringT@DV?$StrTraitMFC_DLL@DV?$ChTraitsCRT@D@ATL@@@@@ATL@@QAE@PBD@Z
  000a1	8d 45 10	 lea	 eax, DWORD PTR $T6[ebp]
  000a4	c7 45 fc 01 00
	00 00		 mov	 DWORD PTR __$EHRec$[ebp+8], 1
  000ab	50		 push	 eax
  000ac	56		 push	 esi
  000ad	8d 4d 0b	 lea	 ecx, DWORD PTR _drawingPacketFinder$[ebp]
  000b0	e8 00 00 00 00	 call	 ?GetPacket@CDrawingPacketFinder@@QBEPAVCPacket@@ABV?$CList@PAVCPacket@@PAV1@@@ABV?$CStringT@DV?$StrTraitMFC_DLL@DV?$ChTraitsCRT@D@ATL@@@@@ATL@@@Z ; CDrawingPacketFinder::GetPacket
  000b5	8d 4d 10	 lea	 ecx, DWORD PTR $T6[ebp]
  000b8	c7 45 fc ff ff
	ff ff		 mov	 DWORD PTR __$EHRec$[ebp+8], -1
  000bf	8b f8		 mov	 edi, eax
  000c1	ff 15 00 00 00
	00		 call	 DWORD PTR __imp_??1?$CStringT@DV?$StrTraitMFC_DLL@DV?$ChTraitsCRT@D@ATL@@@@@ATL@@QAE@XZ

; 486  : 		if(pPacket_High == NULL || pPacket_Low == NULL)

  000c7	85 db		 test	 ebx, ebx
  000c9	0f 84 b1 00 00
	00		 je	 $LN13@GetHighLow
  000cf	85 ff		 test	 edi, edi
  000d1	0f 84 a9 00 00
	00		 je	 $LN13@GetHighLow

; 487  : 			return false;
; 488  : 
; 489  : 		double dTemp = 0.0;
; 490  : 		double dMin = curMinMax.GetDisplayMin();

  000d7	8b 5d 18	 mov	 ebx, DWORD PTR _curMinMax$[ebp]
  000da	0f 57 c0	 xorps	 xmm0, xmm0
  000dd	8b cb		 mov	 ecx, ebx
  000df	f2 0f 11 45 e8	 movsd	 QWORD PTR _dTemp$4[ebp], xmm0
  000e4	ff 15 00 00 00
	00		 call	 DWORD PTR __imp_?GetDisplayMin@CDisplayDataMinMax@@QBENXZ
  000ea	dd 5d d8	 fstp	 QWORD PTR _dMin$2[ebp]

; 491  : 		double dMax = curMinMax.GetDisplayMax();

  000ed	8b cb		 mov	 ecx, ebx
  000ef	ff 15 00 00 00
	00		 call	 DWORD PTR __imp_?GetDisplayMax@CDisplayDataMinMax@@QBENXZ

; 492  : 		if( pPacket_High->GetMinMax(	displayAttributes.GetDataStartInBlock(), displayAttributes.GetDataEndInBlock(), dTemp,	dMax, TRUE)	< 0) return false;

  000f5	8b 75 14	 mov	 esi, DWORD PTR _displayAttributes$[ebp]
  000f8	8d 45 e0	 lea	 eax, DWORD PTR _dMax$3[ebp]
  000fb	6a 01		 push	 1
  000fd	50		 push	 eax
  000fe	8d 45 e8	 lea	 eax, DWORD PTR _dTemp$4[ebp]
  00101	8b ce		 mov	 ecx, esi
  00103	50		 push	 eax
  00104	dd 5d e0	 fstp	 QWORD PTR _dMax$3[ebp]
  00107	e8 00 00 00 00	 call	 ?GetDataEndInBlock@CDisplayAttributes@@QBEHXZ ; CDisplayAttributes::GetDataEndInBlock
  0010c	50		 push	 eax
  0010d	8b ce		 mov	 ecx, esi
  0010f	e8 00 00 00 00	 call	 ?GetDataStartInBlock@CDisplayAttributes@@QBEHXZ ; CDisplayAttributes::GetDataStartInBlock
  00114	8b 4d f0	 mov	 ecx, DWORD PTR _pPacket_High$1$[ebp]
  00117	50		 push	 eax
  00118	ff 15 00 00 00
	00		 call	 DWORD PTR __imp_?GetMinMax@CPacket@@QAEHHHAAN0H@Z
  0011e	85 c0		 test	 eax, eax
  00120	78 5e		 js	 SHORT $LN13@GetHighLow

; 493  : 		if( pPacket_Low->GetMinMax(		displayAttributes.GetDataStartInBlock(), displayAttributes.GetDataEndInBlock(), dMin,	dTemp, TRUE)	< 0) return false;

  00122	6a 01		 push	 1
  00124	8d 45 e8	 lea	 eax, DWORD PTR _dTemp$4[ebp]
  00127	8b ce		 mov	 ecx, esi
  00129	50		 push	 eax
  0012a	8d 45 d8	 lea	 eax, DWORD PTR _dMin$2[ebp]
  0012d	50		 push	 eax
  0012e	e8 00 00 00 00	 call	 ?GetDataEndInBlock@CDisplayAttributes@@QBEHXZ ; CDisplayAttributes::GetDataEndInBlock
  00133	50		 push	 eax
  00134	8b ce		 mov	 ecx, esi
  00136	e8 00 00 00 00	 call	 ?GetDataStartInBlock@CDisplayAttributes@@QBEHXZ ; CDisplayAttributes::GetDataStartInBlock
  0013b	50		 push	 eax
  0013c	8b cf		 mov	 ecx, edi
  0013e	ff 15 00 00 00
	00		 call	 DWORD PTR __imp_?GetMinMax@CPacket@@QAEHHHAAN0H@Z
  00144	85 c0		 test	 eax, eax
  00146	78 38		 js	 SHORT $LN13@GetHighLow

; 494  : 		curMinMax.SetDisplayData( dMin, dMax);

  00148	8d 45 e0	 lea	 eax, DWORD PTR _dMax$3[ebp]
  0014b	8b cb		 mov	 ecx, ebx
  0014d	50		 push	 eax
  0014e	8d 45 d8	 lea	 eax, DWORD PTR _dMin$2[ebp]
  00151	50		 push	 eax
  00152	ff 15 00 00 00
	00		 call	 DWORD PTR __imp_?SetDisplayData@CDisplayDataMinMax@@QAEXABN0@Z

; 495  : 
; 496  : 		return true;

  00158	b0 01		 mov	 al, 1

; 509  : }

  0015a	8b 4d f4	 mov	 ecx, DWORD PTR __$EHRec$[ebp]
  0015d	64 89 0d 00 00
	00 00		 mov	 DWORD PTR fs:0, ecx
  00164	59		 pop	 ecx
  00165	5f		 pop	 edi
  00166	5e		 pop	 esi
  00167	5b		 pop	 ebx
  00168	8b e5		 mov	 esp, ebp
  0016a	5d		 pop	 ebp
  0016b	c2 14 00	 ret	 20			; 00000014H
$LN2@GetHighLow:

; 497  : 	}
; 498  : 	
; 499  : 	CPacket* pPacket = drawingPacketFinder.GetPracticalPacket(strIndicatorName, packetList);

  0016e	ff 75 10	 push	 DWORD PTR _packetList$[ebp]
  00171	8d 4d 0b	 lea	 ecx, DWORD PTR _drawingPacketFinder$[ebp]
  00174	56		 push	 esi
  00175	e8 00 00 00 00	 call	 ?GetPracticalPacket@CDrawingPacketFinder@@QBEPAVCPacket@@ABV?$CStringT@DV?$StrTraitMFC_DLL@DV?$ChTraitsCRT@D@ATL@@@@@ATL@@ABV?$CList@PAVCPacket@@PAV1@@@@Z ; CDrawingPacketFinder::GetPracticalPacket
  0017a	8b d8		 mov	 ebx, eax

; 500  : 	if(pPacket == NULL)

  0017c	85 db		 test	 ebx, ebx
  0017e	75 16		 jne	 SHORT $LN7@GetHighLow
$LN13@GetHighLow:

; 501  : 		return false;

  00180	32 c0		 xor	 al, al

; 509  : }

  00182	8b 4d f4	 mov	 ecx, DWORD PTR __$EHRec$[ebp]
  00185	64 89 0d 00 00
	00 00		 mov	 DWORD PTR fs:0, ecx
  0018c	59		 pop	 ecx
  0018d	5f		 pop	 edi
  0018e	5e		 pop	 esi
  0018f	5b		 pop	 ebx
  00190	8b e5		 mov	 esp, ebp
  00192	5d		 pop	 ebp
  00193	c2 14 00	 ret	 20			; 00000014H
$LN7@GetHighLow:

; 502  : 
; 503  : 	double dMin = curMinMax.GetDisplayMin();

  00196	8b 7d 18	 mov	 edi, DWORD PTR _curMinMax$[ebp]
  00199	8b cf		 mov	 ecx, edi
  0019b	ff 15 00 00 00
	00		 call	 DWORD PTR __imp_?GetDisplayMin@CDisplayDataMinMax@@QBENXZ
  001a1	dd 5d c8	 fstp	 QWORD PTR _dMin$[ebp]

; 504  : 	double dMax = curMinMax.GetDisplayMax();

  001a4	8b cf		 mov	 ecx, edi
  001a6	ff 15 00 00 00
	00		 call	 DWORD PTR __imp_?GetDisplayMax@CDisplayDataMinMax@@QBENXZ

; 505  : 	bool bResult = ((pPacket->GetMinMax(displayAttributes.GetDataStartInBlock(), displayAttributes.GetDataEndInBlock(), dMax, dMin) >= 0) ? true: false);

  001ac	8b 4d 14	 mov	 ecx, DWORD PTR _displayAttributes$[ebp]
  001af	8d 45 c8	 lea	 eax, DWORD PTR _dMin$[ebp]
  001b2	6a 00		 push	 0
  001b4	50		 push	 eax
  001b5	8d 45 d0	 lea	 eax, DWORD PTR _dMax$[ebp]
  001b8	50		 push	 eax
  001b9	dd 5d d0	 fstp	 QWORD PTR _dMax$[ebp]
  001bc	e8 00 00 00 00	 call	 ?GetDataEndInBlock@CDisplayAttributes@@QBEHXZ ; CDisplayAttributes::GetDataEndInBlock
  001c1	8b 4d 14	 mov	 ecx, DWORD PTR _displayAttributes$[ebp]
  001c4	50		 push	 eax
  001c5	e8 00 00 00 00	 call	 ?GetDataStartInBlock@CDisplayAttributes@@QBEHXZ ; CDisplayAttributes::GetDataStartInBlock
  001ca	50		 push	 eax
  001cb	8b cb		 mov	 ecx, ebx
  001cd	ff 15 00 00 00
	00		 call	 DWORD PTR __imp_?GetMinMax@CPacket@@QAEHHHAAN0H@Z
  001d3	85 c0		 test	 eax, eax

; 506  : 	curMinMax.SetDisplayData( dMin, dMax);

  001d5	8b cf		 mov	 ecx, edi
  001d7	8d 45 d0	 lea	 eax, DWORD PTR _dMax$[ebp]
  001da	50		 push	 eax
  001db	8d 45 c8	 lea	 eax, DWORD PTR _dMin$[ebp]
  001de	0f 99 c3	 setns	 bl
  001e1	50		 push	 eax
  001e2	ff 15 00 00 00
	00		 call	 DWORD PTR __imp_?SetDisplayData@CDisplayDataMinMax@@QAEXABN0@Z

; 507  : 
; 508  : 	return bResult;

  001e8	8a c3		 mov	 al, bl

; 509  : }

  001ea	8b 4d f4	 mov	 ecx, DWORD PTR __$EHRec$[ebp]
  001ed	64 89 0d 00 00
	00 00		 mov	 DWORD PTR fs:0, ecx
  001f4	59		 pop	 ecx
  001f5	5f		 pop	 edi
  001f6	5e		 pop	 esi
  001f7	5b		 pop	 ebx
  001f8	8b e5		 mov	 esp, ebp
  001fa	5d		 pop	 ebp
  001fb	c2 14 00	 ret	 20			; 00000014H
_TEXT	ENDS
;	COMDAT text$x
text$x	SEGMENT
__unwindfunclet$?GetHighLow@CDataInGraphRegionDrawer@@ABE_NABV?$CStringT@DV?$StrTraitMFC_DLL@DV?$ChTraitsCRT@D@ATL@@@@@ATL@@ABVCGraphStyle@@ABV?$CList@PAVCPacket@@PAV1@@@ABVCDisplayAttributes@@AAVCDisplayDataMinMax@@@Z$0:
  00000	8d 4d 0c	 lea	 ecx, DWORD PTR $T5[ebp]
  00003	ff 25 00 00 00
	00		 jmp	 DWORD PTR __imp_??1?$CStringT@DV?$StrTraitMFC_DLL@DV?$ChTraitsCRT@D@ATL@@@@@ATL@@QAE@XZ
__unwindfunclet$?GetHighLow@CDataInGraphRegionDrawer@@ABE_NABV?$CStringT@DV?$StrTraitMFC_DLL@DV?$ChTraitsCRT@D@ATL@@@@@ATL@@ABVCGraphStyle@@ABV?$CList@PAVCPacket@@PAV1@@@ABVCDisplayAttributes@@AAVCDisplayDataMinMax@@@Z$1:
  00009	8d 4d 10	 lea	 ecx, DWORD PTR $T6[ebp]
  0000c	ff 25 00 00 00
	00		 jmp	 DWORD PTR __imp_??1?$CStringT@DV?$StrTraitMFC_DLL@DV?$ChTraitsCRT@D@ATL@@@@@ATL@@QAE@XZ
  00012	cc		 int	 3
  00013	cc		 int	 3
  00014	cc		 int	 3
  00015	cc		 int	 3
  00016	cc		 int	 3
__ehhandler$?GetHighLow@CDataInGraphRegionDrawer@@ABE_NABV?$CStringT@DV?$StrTraitMFC_DLL@DV?$ChTraitsCRT@D@ATL@@@@@ATL@@ABVCGraphStyle@@ABV?$CList@PAVCPacket@@PAV1@@@ABVCDisplayAttributes@@AAVCDisplayDataMinMax@@@Z:
  00017	90		 npad	 1
  00018	90		 npad	 1
  00019	8b 54 24 08	 mov	 edx, DWORD PTR [esp+8]
  0001d	8d 42 0c	 lea	 eax, DWORD PTR [edx+12]
  00020	8b 4a c4	 mov	 ecx, DWORD PTR [edx-60]
  00023	33 c8		 xor	 ecx, eax
  00025	e8 00 00 00 00	 call	 @__security_check_cookie@4
  0002a	b8 00 00 00 00	 mov	 eax, OFFSET __ehfuncinfo$?GetHighLow@CDataInGraphRegionDrawer@@ABE_NABV?$CStringT@DV?$StrTraitMFC_DLL@DV?$ChTraitsCRT@D@ATL@@@@@ATL@@ABVCGraphStyle@@ABV?$CList@PAVCPacket@@PAV1@@@ABVCDisplayAttributes@@AAVCDisplayDataMinMax@@@Z
  0002f	e9 00 00 00 00	 jmp	 ___CxxFrameHandler3
text$x	ENDS
?GetHighLow@CDataInGraphRegionDrawer@@ABE_NABV?$CStringT@DV?$StrTraitMFC_DLL@DV?$ChTraitsCRT@D@ATL@@@@@ATL@@ABVCGraphStyle@@ABV?$CList@PAVCPacket@@PAV1@@@ABVCDisplayAttributes@@AAVCDisplayDataMinMax@@@Z ENDP ; CDataInGraphRegionDrawer::GetHighLow
; Function compile flags: /Ogtp
; File D:\git\src\IBK\IBK_DRFN\ProjSrc\SrcChartEx\ChartOCX\GraphDraw\GraphDataDrawer.cpp
; File C:\Program Files (x86)\Microsoft Visual Studio\2019\Community\VC\Tools\MSVC\14.29.30133\atlmfc\include\afxtempl.h
; File D:\git\src\IBK\IBK_DRFN\ProjSrc\SrcChartEx\ChartOCX\GraphDraw\GraphDataDrawer.cpp
; File C:\Program Files (x86)\Microsoft Visual Studio\2019\Community\VC\Tools\MSVC\14.29.30133\atlmfc\include\afxtempl.h
; File D:\git\src\IBK\IBK_DRFN\ProjSrc\SrcChartEx\ChartOCX\GraphDraw\GraphDataDrawer.cpp
;	COMDAT ?GetDrawingDatas@CDataInGraphRegionDrawer@@ABE_NABV?$CStringT@DV?$StrTraitMFC_DLL@DV?$ChTraitsCRT@D@ATL@@@@@ATL@@ABVCGraphStyle@@ABV?$CList@PAVCPacket@@PAV1@@@ABVCDisplayAttributes@@AAVCDisplayDataMinMax@@AAVCPrices@@@Z
_TEXT	SEGMENT
_realDisplayAttributes$ = -12				; size = 8
_this$1$ = -4						; size = 4
_strIndicatorName$ = 8					; size = 4
_graphStyle$ = 12					; size = 4
_packetList$ = 16					; size = 4
$T1 = 19						; size = 1
_displayAttributes$ = 20				; size = 4
_curMinMax$ = 24					; size = 4
_prices$ = 28						; size = 4
?GetDrawingDatas@CDataInGraphRegionDrawer@@ABE_NABV?$CStringT@DV?$StrTraitMFC_DLL@DV?$ChTraitsCRT@D@ATL@@@@@ATL@@ABVCGraphStyle@@ABV?$CList@PAVCPacket@@PAV1@@@ABVCDisplayAttributes@@AAVCDisplayDataMinMax@@AAVCPrices@@@Z PROC ; CDataInGraphRegionDrawer::GetDrawingDatas, COMDAT
; _this$ = ecx

; 455  : {

  00000	55		 push	 ebp
  00001	8b ec		 mov	 ebp, esp
  00003	83 ec 0c	 sub	 esp, 12			; 0000000cH
  00006	53		 push	 ebx
  00007	56		 push	 esi
  00008	57		 push	 edi

; 456  : 	if(packetList.GetCount() <= 0)

  00009	8b 7d 10	 mov	 edi, DWORD PTR _packetList$[ebp]
  0000c	89 4d fc	 mov	 DWORD PTR _this$1$[ebp], ecx
  0000f	83 7f 0c 00	 cmp	 DWORD PTR [edi+12], 0
  00013	0f 8e 96 00 00
	00		 jle	 $LN18@GetDrawing
; File C:\Program Files (x86)\Microsoft Visual Studio\2019\Community\VC\Tools\MSVC\14.29.30133\atlmfc\include\afxtempl.h

; 793  : 	{ ENSURE(m_pNodeHead != NULL);

  00019	8b 47 04	 mov	 eax, DWORD PTR [edi+4]
  0001c	85 c0		 test	 eax, eax
  0001e	0f 84 96 00 00
	00		 je	 $LN21@GetDrawing
; File D:\git\src\IBK\IBK_DRFN\ProjSrc\SrcChartEx\ChartOCX\GraphDraw\GraphDataDrawer.cpp

; 460  : 	if(pPacket == NULL)

  00024	8b 58 08	 mov	 ebx, DWORD PTR [eax+8]
  00027	85 db		 test	 ebx, ebx
  00029	0f 84 80 00 00
	00		 je	 $LN18@GetDrawing

; 461  : 		return false;
; 462  : 
; 463  : 	CDisplayAttributes realDisplayAttributes = displayAttributes;

  0002f	8b 4d 14	 mov	 ecx, DWORD PTR _displayAttributes$[ebp]
  00032	8b 01		 mov	 eax, DWORD PTR [ecx]
  00034	8b 51 04	 mov	 edx, DWORD PTR [ecx+4]
  00037	89 45 f4	 mov	 DWORD PTR _realDisplayAttributes$[ebp], eax
  0003a	89 55 f8	 mov	 DWORD PTR _realDisplayAttributes$[ebp+4], edx

; 464  : 	realDisplayAttributes.SetDataEndInBlock(CRateDrawer::GetRealDataEnd(pPacket, displayAttributes.GetDataEndInBlock()));

  0003d	e8 00 00 00 00	 call	 ?GetDataEndInBlock@CDisplayAttributes@@QBEHXZ ; CDisplayAttributes::GetDataEndInBlock

; 318  : 	if(pPacket == NULL || pPacket->GetnumericDataList() == NULL)

  00042	8b cb		 mov	 ecx, ebx

; 464  : 	realDisplayAttributes.SetDataEndInBlock(CRateDrawer::GetRealDataEnd(pPacket, displayAttributes.GetDataEndInBlock()));

  00044	8b f0		 mov	 esi, eax

; 318  : 	if(pPacket == NULL || pPacket->GetnumericDataList() == NULL)

  00046	ff 15 00 00 00
	00		 call	 DWORD PTR __imp_?GetnumericDataList@CPacket@@QAEPAV?$CList@NN@@XZ
  0004c	85 c0		 test	 eax, eax
  0004e	74 12		 je	 SHORT $LN15@GetDrawing

; 319  : 		return nDataEnd;
; 320  : 
; 321  : 	int nDataCount = pPacket->GetnumericDataList()->GetCount();

  00050	8b cb		 mov	 ecx, ebx
  00052	ff 15 00 00 00
	00		 call	 DWORD PTR __imp_?GetnumericDataList@CPacket@@QAEPAV?$CList@NN@@XZ
  00058	8b 40 0c	 mov	 eax, DWORD PTR [eax+12]

; 322  : 	if(nDataEnd >= nDataCount)

  0005b	3b f0		 cmp	 esi, eax
  0005d	7c 03		 jl	 SHORT $LN15@GetDrawing

; 323  : 		return (nDataCount - 1);

  0005f	8d 70 ff	 lea	 esi, DWORD PTR [eax-1]
$LN15@GetDrawing:

; 464  : 	realDisplayAttributes.SetDataEndInBlock(CRateDrawer::GetRealDataEnd(pPacket, displayAttributes.GetDataEndInBlock()));

  00062	56		 push	 esi
  00063	8d 4d f4	 lea	 ecx, DWORD PTR _realDisplayAttributes$[ebp]
  00066	e8 00 00 00 00	 call	 ?SetDataEndInBlock@CDisplayAttributes@@QAEXH@Z ; CDisplayAttributes::SetDataEndInBlock

; 465  : 	
; 466  : 	if(!CRateDrawer::GetPrices(CDrawingPacketFinder().GetPracticalPacket(strIndicatorName, packetList), 

  0006b	ff 75 1c	 push	 DWORD PTR _prices$[ebp]
  0006e	8d 4d f4	 lea	 ecx, DWORD PTR _realDisplayAttributes$[ebp]
  00071	e8 00 00 00 00	 call	 ?GetDataEndInBlock@CDisplayAttributes@@QBEHXZ ; CDisplayAttributes::GetDataEndInBlock
  00076	8b 5d 08	 mov	 ebx, DWORD PTR _strIndicatorName$[ebp]
  00079	8d 4d 13	 lea	 ecx, DWORD PTR $T1[ebp]
  0007c	50		 push	 eax
  0007d	57		 push	 edi
  0007e	53		 push	 ebx
  0007f	e8 00 00 00 00	 call	 ?GetPracticalPacket@CDrawingPacketFinder@@QBEPAVCPacket@@ABV?$CStringT@DV?$StrTraitMFC_DLL@DV?$ChTraitsCRT@D@ATL@@@@@ATL@@ABV?$CList@PAVCPacket@@PAV1@@@@Z ; CDrawingPacketFinder::GetPracticalPacket
  00084	8b 75 fc	 mov	 esi, DWORD PTR _this$1$[ebp]
  00087	8b ce		 mov	 ecx, esi
  00089	50		 push	 eax
  0008a	e8 00 00 00 00	 call	 ?GetPrices@CRateDrawer@@IBE_NPAVCPacket@@HAAVCPrices@@@Z ; CRateDrawer::GetPrices
  0008f	84 c0		 test	 al, al
  00091	74 1c		 je	 SHORT $LN18@GetDrawing

; 467  : 		realDisplayAttributes.GetDataEndInBlock(), prices))
; 468  : 		return false;
; 469  : 
; 470  : 	return GetHighLow(strIndicatorName, graphStyle, packetList, realDisplayAttributes, curMinMax);

  00093	ff 75 18	 push	 DWORD PTR _curMinMax$[ebp]
  00096	8d 45 f4	 lea	 eax, DWORD PTR _realDisplayAttributes$[ebp]
  00099	8b ce		 mov	 ecx, esi
  0009b	50		 push	 eax
  0009c	57		 push	 edi
  0009d	ff 75 0c	 push	 DWORD PTR _graphStyle$[ebp]
  000a0	53		 push	 ebx
  000a1	e8 00 00 00 00	 call	 ?GetHighLow@CDataInGraphRegionDrawer@@ABE_NABV?$CStringT@DV?$StrTraitMFC_DLL@DV?$ChTraitsCRT@D@ATL@@@@@ATL@@ABVCGraphStyle@@ABV?$CList@PAVCPacket@@PAV1@@@ABVCDisplayAttributes@@AAVCDisplayDataMinMax@@@Z ; CDataInGraphRegionDrawer::GetHighLow
  000a6	5f		 pop	 edi

; 471  : }

  000a7	5e		 pop	 esi
  000a8	5b		 pop	 ebx
  000a9	8b e5		 mov	 esp, ebp
  000ab	5d		 pop	 ebp
  000ac	c2 18 00	 ret	 24			; 00000018H
$LN18@GetDrawing:
  000af	5f		 pop	 edi
  000b0	5e		 pop	 esi
  000b1	32 c0		 xor	 al, al
  000b3	5b		 pop	 ebx
  000b4	8b e5		 mov	 esp, ebp
  000b6	5d		 pop	 ebp
  000b7	c2 18 00	 ret	 24			; 00000018H
$LN21@GetDrawing:
; File C:\Program Files (x86)\Microsoft Visual Studio\2019\Community\VC\Tools\MSVC\14.29.30133\atlmfc\include\afxtempl.h

; 793  : 	{ ENSURE(m_pNodeHead != NULL);

  000ba	e8 00 00 00 00	 call	 ?AfxThrowInvalidArgException@@YGXXZ ; AfxThrowInvalidArgException
$LN19@GetDrawing:
  000bf	cc		 int	 3
?GetDrawingDatas@CDataInGraphRegionDrawer@@ABE_NABV?$CStringT@DV?$StrTraitMFC_DLL@DV?$ChTraitsCRT@D@ATL@@@@@ATL@@ABVCGraphStyle@@ABV?$CList@PAVCPacket@@PAV1@@@ABVCDisplayAttributes@@AAVCDisplayDataMinMax@@AAVCPrices@@@Z ENDP ; CDataInGraphRegionDrawer::GetDrawingDatas
_TEXT	ENDS
; Function compile flags: /Ogtp
; File D:\git\src\IBK\IBK_DRFN\ProjSrc\SrcChartEx\ChartOCX\GraphDraw\GraphDataDrawer.cpp
; File C:\Program Files (x86)\Microsoft Visual Studio\2019\Community\VC\Tools\MSVC\14.29.30133\atlmfc\include\atltypes.h
; File D:\git\src\IBK\IBK_DRFN\ProjSrc\SrcChartEx\ChartOCX\GraphDraw\GraphDataDrawer.cpp
; File C:\Program Files (x86)\Microsoft Visual Studio\2019\Community\VC\Tools\MSVC\14.29.30133\atlmfc\include\atltypes.h
; File D:\git\src\IBK\IBK_DRFN\ProjSrc\SrcChartEx\ChartOCX\GraphDraw\GraphDataDrawer.cpp
;	COMDAT ?IsGraphDataDraw@CDataInGraphRegionDrawer@@ABE_NABVCRect@@ABVCDisplayAttributes@@@Z
_TEXT	SEGMENT
_region$ = 8						; size = 4
_displayAttributes$ = 12				; size = 4
?IsGraphDataDraw@CDataInGraphRegionDrawer@@ABE_NABVCRect@@ABVCDisplayAttributes@@@Z PROC ; CDataInGraphRegionDrawer::IsGraphDataDraw, COMDAT
; _this$ = ecx

; 447  : {

  00000	55		 push	 ebp
  00001	8b ec		 mov	 ebp, esp
; File C:\Program Files (x86)\Microsoft Visual Studio\2019\Community\VC\Tools\MSVC\14.29.30133\atlmfc\include\atltypes.h

; 581  : 	return bottom - top;

  00003	8b 4d 08	 mov	 ecx, DWORD PTR _region$[ebp]
  00006	8b 41 0c	 mov	 eax, DWORD PTR [ecx+12]
  00009	2b 41 04	 sub	 eax, DWORD PTR [ecx+4]
; File D:\git\src\IBK\IBK_DRFN\ProjSrc\SrcChartEx\ChartOCX\GraphDraw\GraphDataDrawer.cpp

; 448  : 	return (region.Height() > 30 && region.Width() > 100 && displayAttributes.GetDataCountInBlock() >= 4);

  0000c	83 f8 1e	 cmp	 eax, 30			; 0000001eH
  0000f	7e 1d		 jle	 SHORT $LN3@IsGraphDat
; File C:\Program Files (x86)\Microsoft Visual Studio\2019\Community\VC\Tools\MSVC\14.29.30133\atlmfc\include\atltypes.h

; 576  : 	return right - left;

  00011	8b 41 08	 mov	 eax, DWORD PTR [ecx+8]
  00014	2b 01		 sub	 eax, DWORD PTR [ecx]
; File D:\git\src\IBK\IBK_DRFN\ProjSrc\SrcChartEx\ChartOCX\GraphDraw\GraphDataDrawer.cpp

; 448  : 	return (region.Height() > 30 && region.Width() > 100 && displayAttributes.GetDataCountInBlock() >= 4);

  00016	83 f8 64	 cmp	 eax, 100		; 00000064H
  00019	7e 13		 jle	 SHORT $LN3@IsGraphDat
  0001b	8b 4d 0c	 mov	 ecx, DWORD PTR _displayAttributes$[ebp]
  0001e	e8 00 00 00 00	 call	 ?GetDataCountInBlock@CDisplayAttributes@@QBEHXZ ; CDisplayAttributes::GetDataCountInBlock
  00023	83 f8 04	 cmp	 eax, 4
  00026	7c 06		 jl	 SHORT $LN3@IsGraphDat
  00028	b0 01		 mov	 al, 1

; 449  : }

  0002a	5d		 pop	 ebp
  0002b	c2 08 00	 ret	 8
$LN3@IsGraphDat:

; 448  : 	return (region.Height() > 30 && region.Width() > 100 && displayAttributes.GetDataCountInBlock() >= 4);

  0002e	32 c0		 xor	 al, al

; 449  : }

  00030	5d		 pop	 ebp
  00031	c2 08 00	 ret	 8
?IsGraphDataDraw@CDataInGraphRegionDrawer@@ABE_NABVCRect@@ABVCDisplayAttributes@@@Z ENDP ; CDataInGraphRegionDrawer::IsGraphDataDraw
_TEXT	ENDS
; Function compile flags: /Ogtp
; File D:\git\src\IBK\IBK_DRFN\ProjSrc\SrcChartEx\ChartOCX\GraphDraw\GraphDataDrawer.cpp
; File C:\Program Files (x86)\Microsoft Visual Studio\2019\Community\VC\Tools\MSVC\14.29.30133\atlmfc\include\atltypes.h
; File D:\git\src\IBK\IBK_DRFN\ProjSrc\SrcChartEx\ChartOCX\GraphDraw\GraphDataDrawer.cpp
; File C:\Program Files (x86)\Microsoft Visual Studio\2019\Community\VC\Tools\MSVC\14.29.30133\atlmfc\include\atltypes.h
; File D:\git\src\IBK\IBK_DRFN\ProjSrc\SrcChartEx\ChartOCX\GraphDraw\GraphDataDrawer.cpp
; File C:\Program Files (x86)\Microsoft Visual Studio\2019\Community\VC\Tools\MSVC\14.29.30133\atlmfc\include\atlsimpstr.h
; File C:\Program Files (x86)\Microsoft Visual Studio\2019\Community\VC\Tools\MSVC\14.29.30133\atlmfc\include\afxwin1.inl
; File D:\git\src\IBK\IBK_DRFN\ProjSrc\SrcChartEx\ChartOCX\GraphDraw\GraphDataDrawer.cpp
; File C:\Program Files (x86)\Microsoft Visual Studio\2019\Community\VC\Tools\MSVC\14.29.30133\atlmfc\include\afxtempl.h
; File D:\git\src\IBK\IBK_DRFN\ProjSrc\SrcChartEx\ChartOCX\GraphDraw\GraphDataDrawer.cpp
; File C:\Program Files (x86)\Microsoft Visual Studio\2019\Community\VC\Tools\MSVC\14.29.30133\atlmfc\include\atlsimpstr.h
; File D:\git\src\IBK\IBK_DRFN\ProjSrc\SrcChartEx\ChartOCX\GraphDraw\GraphDataDrawer.cpp
; File C:\Program Files (x86)\Microsoft Visual Studio\2019\Community\VC\Tools\MSVC\14.29.30133\atlmfc\include\atlsimpstr.h
; File D:\git\src\IBK\IBK_DRFN\ProjSrc\SrcChartEx\ChartOCX\GraphDraw\GraphDataDrawer.cpp
; File C:\Program Files (x86)\Microsoft Visual Studio\2019\Community\VC\Tools\MSVC\14.29.30133\atlmfc\include\atltypes.h
; File D:\git\src\IBK\IBK_DRFN\ProjSrc\SrcChartEx\ChartOCX\GraphDraw\GraphDataDrawer.cpp
; File C:\Program Files (x86)\Microsoft Visual Studio\2019\Community\VC\Tools\MSVC\14.29.30133\atlmfc\include\atlsimpstr.h
; File D:\git\src\IBK\IBK_DRFN\ProjSrc\SrcChartEx\ChartOCX\GraphDraw\GraphDataDrawer.cpp
; File C:\Program Files (x86)\Microsoft Visual Studio\2019\Community\VC\Tools\MSVC\14.29.30133\atlmfc\include\afxwin1.inl
; File C:\Program Files (x86)\Microsoft Visual Studio\2019\Community\VC\Tools\MSVC\14.29.30133\atlmfc\include\atlsimpstr.h
; File C:\Program Files (x86)\Microsoft Visual Studio\2019\Community\VC\Tools\MSVC\14.29.30133\atlmfc\include\atltypes.h
; File D:\git\src\IBK\IBK_DRFN\ProjSrc\SrcChartEx\ChartOCX\GraphDraw\GraphDataDrawer.cpp
; File C:\Program Files (x86)\Microsoft Visual Studio\2019\Community\VC\Tools\MSVC\14.29.30133\atlmfc\include\atltypes.h
; File C:\Program Files (x86)\Microsoft Visual Studio\2019\Community\VC\Tools\MSVC\14.29.30133\atlmfc\include\afxwin1.inl
; File D:\git\src\IBK\IBK_DRFN\ProjSrc\SrcChartEx\ChartOCX\GraphDraw\GraphDataDrawer.cpp
;	COMDAT ?DrawData@CDataInGraphRegionDrawer@@AAEXPAVCDC@@ABVCRect@@ABVCDrawingGraphData@@ABVCPrices@@ABV?$CList@VCTextData@@AAV1@@@@Z
_TEXT	SEGMENT
$T2 = -56						; size = 16
_size$3 = -40						; size = 8
_size$4 = -40						; size = 8
$T5 = -32						; size = 8
_pos$1$ = -28						; size = 4
$T6 = -24						; size = 4
$T7 = -20						; size = 4
_nPosition_Y$1$ = -16					; size = 4
__$EHRec$ = -12						; size = 12
_pDC$ = 8						; size = 4
_region$ = 12						; size = 4
_nDataCount$1$ = 16					; size = 4
$T8 = 16						; size = 4
_drawingGraphData$ = 16					; size = 4
_bIsInvert$ = 20					; size = 1
_strDrawingText$9 = 20					; size = 4
$T10 = 20						; size = 4
_prices$ = 20						; size = 4
$T11 = 24						; size = 4
_textDataList$ = 24					; size = 4
?DrawData@CDataInGraphRegionDrawer@@AAEXPAVCDC@@ABVCRect@@ABVCDrawingGraphData@@ABVCPrices@@ABV?$CList@VCTextData@@AAV1@@@@Z PROC ; CDataInGraphRegionDrawer::DrawData, COMDAT
; _this$ = ecx

; 428  : {

  00000	55		 push	 ebp
  00001	8b ec		 mov	 ebp, esp
  00003	6a ff		 push	 -1
  00005	68 00 00 00 00	 push	 __ehhandler$?DrawData@CDataInGraphRegionDrawer@@AAEXPAVCDC@@ABVCRect@@ABVCDrawingGraphData@@ABVCPrices@@ABV?$CList@VCTextData@@AAV1@@@@Z
  0000a	64 a1 00 00 00
	00		 mov	 eax, DWORD PTR fs:0
  00010	50		 push	 eax
  00011	83 ec 2c	 sub	 esp, 44			; 0000002cH
  00014	53		 push	 ebx
  00015	56		 push	 esi
  00016	57		 push	 edi
  00017	a1 00 00 00 00	 mov	 eax, DWORD PTR ___security_cookie
  0001c	33 c5		 xor	 eax, ebp
  0001e	50		 push	 eax
  0001f	8d 45 f4	 lea	 eax, DWORD PTR __$EHRec$[ebp]
  00022	64 a3 00 00 00
	00		 mov	 DWORD PTR fs:0, eax

; 429  : 	int nPosition_Y = 0;
; 430  : 	if(textDataList.GetCount() > 1)

  00028	8b 4d 18	 mov	 ecx, DWORD PTR _textDataList$[ebp]
  0002b	c7 45 f0 00 00
	00 00		 mov	 DWORD PTR _nPosition_Y$1$[ebp], 0
  00032	83 79 0c 01	 cmp	 DWORD PTR [ecx+12], 1
  00036	0f 8e 99 00 00
	00		 jle	 $LN4@DrawData

; 432  : 		nPosition_Y = GetPosition_Y(pDC, textDataList.GetCount(), region.Height(), 

  0003c	8b 45 14	 mov	 eax, DWORD PTR _prices$[ebp]
  0003f	8b 4d 10	 mov	 ecx, DWORD PTR _drawingGraphData$[ebp]
  00042	f2 0f 10 40 08	 movsd	 xmm0, QWORD PTR [eax+8]
; File C:\Program Files (x86)\Microsoft Visual Studio\2019\Community\VC\Tools\MSVC\14.29.30133\atlmfc\include\atltypes.h

; 581  : 	return bottom - top;

  00047	8b 45 0c	 mov	 eax, DWORD PTR _region$[ebp]
; File D:\git\src\IBK\IBK_DRFN\ProjSrc\SrcChartEx\ChartOCX\GraphDraw\GraphDataDrawer.cpp

; 432  : 		nPosition_Y = GetPosition_Y(pDC, textDataList.GetCount(), region.Height(), 

  0004a	f2 0f 11 45 e0	 movsd	 QWORD PTR $T5[ebp], xmm0
; File C:\Program Files (x86)\Microsoft Visual Studio\2019\Community\VC\Tools\MSVC\14.29.30133\atlmfc\include\atltypes.h

; 581  : 	return bottom - top;

  0004f	8b 58 0c	 mov	 ebx, DWORD PTR [eax+12]
  00052	2b 58 04	 sub	 ebx, DWORD PTR [eax+4]
; File D:\git\src\IBK\IBK_DRFN\ProjSrc\SrcChartEx\ChartOCX\GraphDraw\GraphDataDrawer.cpp

; 432  : 		nPosition_Y = GetPosition_Y(pDC, textDataList.GetCount(), region.Height(), 

  00055	8d 45 c8	 lea	 eax, DWORD PTR $T2[ebp]
  00058	50		 push	 eax
  00059	e8 00 00 00 00	 call	 ?GetDisplayDataVertMinMax@CDrawingGraphData@@QBE?AVCDisplayDataMinMax@@XZ ; CDrawingGraphData::GetDisplayDataVertMinMax
  0005e	8b 4d 10	 mov	 ecx, DWORD PTR _drawingGraphData$[ebp]
  00061	8b f8		 mov	 edi, eax
  00063	e8 00 00 00 00	 call	 ?DoesVertScaleInvertType@CDrawingGraphData@@QBE_NXZ ; CDrawingGraphData::DoesVertScaleInvertType
  00068	88 45 14	 mov	 BYTE PTR _bIsInvert$[ebp], al

; 563  : 	if(curMinMax.IsCloseToMaxValue(dCur, bIsInvert))

  0006b	8b cf		 mov	 ecx, edi

; 432  : 		nPosition_Y = GetPosition_Y(pDC, textDataList.GetCount(), region.Height(), 

  0006d	8b 45 18	 mov	 eax, DWORD PTR _textDataList$[ebp]

; 563  : 	if(curMinMax.IsCloseToMaxValue(dCur, bIsInvert))

  00070	ff 75 14	 push	 DWORD PTR _bIsInvert$[ebp]

; 432  : 		nPosition_Y = GetPosition_Y(pDC, textDataList.GetCount(), region.Height(), 

  00073	8b 40 0c	 mov	 eax, DWORD PTR [eax+12]
  00076	89 45 10	 mov	 DWORD PTR _nDataCount$1$[ebp], eax

; 563  : 	if(curMinMax.IsCloseToMaxValue(dCur, bIsInvert))

  00079	8d 45 e0	 lea	 eax, DWORD PTR $T5[ebp]
  0007c	50		 push	 eax
  0007d	ff 15 00 00 00
	00		 call	 DWORD PTR __imp_?IsCloseToMaxValue@CDisplayDataMinMax@@QBE_NABN_N@Z
  00083	84 c0		 test	 al, al
  00085	75 44		 jne	 SHORT $LN12@DrawData

; 566  : 	int nTextHeight = pDC->GetTextExtent("0").cy * nDataCount;

  00087	68 00 00 00 00	 push	 OFFSET ??_C@_01GBGANLPD@0@
  0008c	8d 4d 14	 lea	 ecx, DWORD PTR $T10[ebp]
  0008f	ff 15 00 00 00
	00		 call	 DWORD PTR __imp_??0?$CStringT@DV?$StrTraitMFC_DLL@DV?$ChTraitsCRT@D@ATL@@@@@ATL@@QAE@PBD@Z
; File C:\Program Files (x86)\Microsoft Visual Studio\2019\Community\VC\Tools\MSVC\14.29.30133\atlmfc\include\atlsimpstr.h

; 519  : 		return( GetData()->nDataLength );

  00095	8b 45 14	 mov	 eax, DWORD PTR $T10[ebp]
; File C:\Program Files (x86)\Microsoft Visual Studio\2019\Community\VC\Tools\MSVC\14.29.30133\atlmfc\include\afxwin1.inl

; 639  : 		VERIFY(::GetTextExtentPoint32(m_hAttribDC, str, (int)str.GetLength(), &size));

  00098	8d 4d d8	 lea	 ecx, DWORD PTR _size$4[ebp]
  0009b	51		 push	 ecx
  0009c	ff 70 f4	 push	 DWORD PTR [eax-12]
  0009f	50		 push	 eax
  000a0	8b 45 08	 mov	 eax, DWORD PTR _pDC$[ebp]
  000a3	ff 70 08	 push	 DWORD PTR [eax+8]
  000a6	ff 15 00 00 00
	00		 call	 DWORD PTR __imp__GetTextExtentPoint32A@16
; File D:\git\src\IBK\IBK_DRFN\ProjSrc\SrcChartEx\ChartOCX\GraphDraw\GraphDataDrawer.cpp

; 566  : 	int nTextHeight = pDC->GetTextExtent("0").cy * nDataCount;

  000ac	8b 75 dc	 mov	 esi, DWORD PTR _size$4[ebp+4]
  000af	8d 4d 14	 lea	 ecx, DWORD PTR $T10[ebp]
  000b2	0f af 75 10	 imul	 esi, DWORD PTR _nDataCount$1$[ebp]
  000b6	ff 15 00 00 00
	00		 call	 DWORD PTR __imp_??1?$CStringT@DV?$StrTraitMFC_DLL@DV?$ChTraitsCRT@D@ATL@@@@@ATL@@QAE@XZ

; 567  : 	if(nTextHeight <= 0 || nRegionHeight <= nTextHeight)

  000bc	85 f6		 test	 esi, esi
  000be	7e 0b		 jle	 SHORT $LN12@DrawData
  000c0	3b de		 cmp	 ebx, esi
  000c2	7e 07		 jle	 SHORT $LN12@DrawData

; 569  : 
; 570  : 	return (nRegionHeight - nTextHeight);

  000c4	2b de		 sub	 ebx, esi
  000c6	89 5d f0	 mov	 DWORD PTR _nPosition_Y$1$[ebp], ebx
  000c9	eb 07		 jmp	 SHORT $LN9@DrawData
$LN12@DrawData:

; 568  : 		return 0;

  000cb	c7 45 f0 00 00
	00 00		 mov	 DWORD PTR _nPosition_Y$1$[ebp], 0
$LN9@DrawData:
  000d2	8b 4d 18	 mov	 ecx, DWORD PTR _textDataList$[ebp]
$LN4@DrawData:

; 433  : 			drawingGraphData.DoesVertScaleInvertType(), drawingGraphData.GetDisplayDataVertMinMax(), prices.GetCur());
; 434  : 	}
; 435  : 
; 436  : 	POSITION pos = textDataList.GetHeadPosition();

  000d5	8b 49 04	 mov	 ecx, DWORD PTR [ecx+4]

; 437  : 	while(pos != NULL)

  000d8	85 c9		 test	 ecx, ecx
  000da	0f 84 20 01 00
	00		 je	 $LN3@DrawData
$LL2@DrawData:
; File C:\Program Files (x86)\Microsoft Visual Studio\2019\Community\VC\Tools\MSVC\14.29.30133\atlmfc\include\afxtempl.h

; 817  : 	{ CNode* pNode = (CNode*) rPosition;

  000e0	8b f1		 mov	 esi, ecx

; 818  : 		ASSERT(AfxIsValidAddress(pNode, sizeof(CNode)));
; 819  : 		rPosition = (POSITION) pNode->pNext;

  000e2	8b 09		 mov	 ecx, DWORD PTR [ecx]

; 820  : 		return pNode->data; }

  000e4	83 c6 08	 add	 esi, 8
  000e7	89 4d e4	 mov	 DWORD PTR _pos$1$[ebp], ecx
; File D:\git\src\IBK\IBK_DRFN\ProjSrc\SrcChartEx\ChartOCX\GraphDraw\GraphDataDrawer.cpp

; 440  : 		CRateDrawer::DrawTextOut(pDC, textData.GetColor(), 

  000ea	8b 46 08	 mov	 eax, DWORD PTR [esi+8]
  000ed	89 45 e8	 mov	 DWORD PTR $T6[ebp], eax
; File C:\Program Files (x86)\Microsoft Visual Studio\2019\Community\VC\Tools\MSVC\14.29.30133\atlmfc\include\atlsimpstr.h

; 519  : 		return( GetData()->nDataLength );

  000f0	8b 06		 mov	 eax, DWORD PTR [esi]

; 533  : 		return( GetLength() == 0 );

  000f2	83 78 f4 00	 cmp	 DWORD PTR [eax-12], 0
; File D:\git\src\IBK\IBK_DRFN\ProjSrc\SrcChartEx\ChartOCX\GraphDraw\GraphDataDrawer.cpp

; 214  : 	return (m_strTitle.IsEmpty() || m_strData.IsEmpty());

  000f6	74 7e		 je	 SHORT $LN86@DrawData
; File C:\Program Files (x86)\Microsoft Visual Studio\2019\Community\VC\Tools\MSVC\14.29.30133\atlmfc\include\atlsimpstr.h

; 519  : 		return( GetData()->nDataLength );

  000f8	8b 46 04	 mov	 eax, DWORD PTR [esi+4]

; 800  : 		return( reinterpret_cast< CStringData* >( m_pszData )-1 );

  000fb	8d 7e 04	 lea	 edi, DWORD PTR [esi+4]

; 533  : 		return( GetLength() == 0 );

  000fe	83 78 f4 00	 cmp	 DWORD PTR [eax-12], 0
; File D:\git\src\IBK\IBK_DRFN\ProjSrc\SrcChartEx\ChartOCX\GraphDraw\GraphDataDrawer.cpp

; 214  : 	return (m_strTitle.IsEmpty() || m_strData.IsEmpty());

  00102	74 72		 je	 SHORT $LN86@DrawData

; 578  : 	CString strDrawingText;

  00104	8d 4d 14	 lea	 ecx, DWORD PTR _strDrawingText$9[ebp]
  00107	ff 15 00 00 00
	00		 call	 DWORD PTR __imp_??0?$CStringT@DV?$StrTraitMFC_DLL@DV?$ChTraitsCRT@D@ATL@@@@@ATL@@QAE@XZ

; 204  : 	return m_strData;

  0010d	57		 push	 edi
  0010e	8d 4d ec	 lea	 ecx, DWORD PTR $T7[ebp]

; 578  : 	CString strDrawingText;

  00111	c7 45 fc 00 00
	00 00		 mov	 DWORD PTR __$EHRec$[ebp+8], 0

; 204  : 	return m_strData;

  00118	ff 15 00 00 00
	00		 call	 DWORD PTR __imp_??0?$CStringT@DV?$StrTraitMFC_DLL@DV?$ChTraitsCRT@D@ATL@@@@@ATL@@QAE@ABV01@@Z

; 199  : 	return m_strTitle;

  0011e	56		 push	 esi
  0011f	8d 4d 10	 lea	 ecx, DWORD PTR $T8[ebp]

; 579  : 	strDrawingText.Format("%s : %s", textData.GetTitle(), textData.GetData());

  00122	c6 45 fc 01	 mov	 BYTE PTR __$EHRec$[ebp+8], 1

; 199  : 	return m_strTitle;

  00126	ff 15 00 00 00
	00		 call	 DWORD PTR __imp_??0?$CStringT@DV?$StrTraitMFC_DLL@DV?$ChTraitsCRT@D@ATL@@@@@ATL@@QAE@ABV01@@Z

; 579  : 	strDrawingText.Format("%s : %s", textData.GetTitle(), textData.GetData());

  0012c	ff 75 ec	 push	 DWORD PTR $T7[ebp]
  0012f	8d 45 14	 lea	 eax, DWORD PTR _strDrawingText$9[ebp]
  00132	c6 45 fc 02	 mov	 BYTE PTR __$EHRec$[ebp+8], 2
  00136	ff 75 10	 push	 DWORD PTR $T8[ebp]
  00139	68 00 00 00 00	 push	 OFFSET ??_C@_07IAFACCAD@?$CFs?5?3?5?$CFs@
  0013e	50		 push	 eax
  0013f	ff 15 00 00 00
	00		 call	 DWORD PTR __imp_?Format@?$CStringT@DV?$StrTraitMFC_DLL@DV?$ChTraitsCRT@D@ATL@@@@@ATL@@QAAXPBDZZ
  00145	83 c4 10	 add	 esp, 16			; 00000010H
  00148	8d 4d 10	 lea	 ecx, DWORD PTR $T8[ebp]
  0014b	ff 15 00 00 00
	00		 call	 DWORD PTR __imp_??1?$CStringT@DV?$StrTraitMFC_DLL@DV?$ChTraitsCRT@D@ATL@@@@@ATL@@QAE@XZ
  00151	8d 4d ec	 lea	 ecx, DWORD PTR $T7[ebp]
  00154	c6 45 fc 00	 mov	 BYTE PTR __$EHRec$[ebp+8], 0
  00158	ff 15 00 00 00
	00		 call	 DWORD PTR __imp_??1?$CStringT@DV?$StrTraitMFC_DLL@DV?$ChTraitsCRT@D@ATL@@@@@ATL@@QAE@XZ

; 580  : 	return strDrawingText;

  0015e	8d 45 14	 lea	 eax, DWORD PTR _strDrawingText$9[ebp]
  00161	50		 push	 eax
  00162	8d 4d 18	 lea	 ecx, DWORD PTR $T11[ebp]
  00165	ff 15 00 00 00
	00		 call	 DWORD PTR __imp_??0?$CStringT@DV?$StrTraitMFC_DLL@DV?$ChTraitsCRT@D@ATL@@@@@ATL@@QAE@ABV01@@Z
  0016b	8d 4d 14	 lea	 ecx, DWORD PTR _strDrawingText$9[ebp]
  0016e	ff 15 00 00 00
	00		 call	 DWORD PTR __imp_??1?$CStringT@DV?$StrTraitMFC_DLL@DV?$ChTraitsCRT@D@ATL@@@@@ATL@@QAE@XZ
  00174	eb 0e		 jmp	 SHORT $LN27@DrawData
$LN86@DrawData:

; 571  : }
; 572  : 
; 573  : CString CDataInGraphRegionDrawer::GetDrawingText(const CTextData& textData) const
; 574  : {
; 575  : 	if(textData.IsEmpty())
; 576  : 		return "";

  00176	68 00 00 00 00	 push	 OFFSET ??_C@_00CNPNBAHC@@
  0017b	8d 4d 18	 lea	 ecx, DWORD PTR $T11[ebp]
  0017e	ff 15 00 00 00
	00		 call	 DWORD PTR __imp_??0?$CStringT@DV?$StrTraitMFC_DLL@DV?$ChTraitsCRT@D@ATL@@@@@ATL@@QAE@PBD@Z
$LN27@DrawData:

; 440  : 		CRateDrawer::DrawTextOut(pDC, textData.GetColor(), 

  00184	8b 45 0c	 mov	 eax, DWORD PTR _region$[ebp]

; 232  : 	COLORREF orgTextColor = pDC->SetTextColor(textColor);

  00187	8b 4d 08	 mov	 ecx, DWORD PTR _pDC$[ebp]
  0018a	ff 75 e8	 push	 DWORD PTR $T6[ebp]

; 440  : 		CRateDrawer::DrawTextOut(pDC, textData.GetColor(), 

  0018d	c7 45 fc 03 00
	00 00		 mov	 DWORD PTR __$EHRec$[ebp+8], 3
  00194	8b 70 04	 mov	 esi, DWORD PTR [eax+4]
; File C:\Program Files (x86)\Microsoft Visual Studio\2019\Community\VC\Tools\MSVC\14.29.30133\atlmfc\include\atltypes.h

; 408  : 	x = initX;

  00197	8b 58 08	 mov	 ebx, DWORD PTR [eax+8]
; File D:\git\src\IBK\IBK_DRFN\ProjSrc\SrcChartEx\ChartOCX\GraphDraw\GraphDataDrawer.cpp

; 232  : 	COLORREF orgTextColor = pDC->SetTextColor(textColor);

  0019a	8b 01		 mov	 eax, DWORD PTR [ecx]
  0019c	ff 50 38	 call	 DWORD PTR [eax+56]
; File C:\Program Files (x86)\Microsoft Visual Studio\2019\Community\VC\Tools\MSVC\14.29.30133\atlmfc\include\atlsimpstr.h

; 519  : 		return( GetData()->nDataLength );

  0019f	8b 4d 18	 mov	 ecx, DWORD PTR $T11[ebp]
; File D:\git\src\IBK\IBK_DRFN\ProjSrc\SrcChartEx\ChartOCX\GraphDraw\GraphDataDrawer.cpp

; 232  : 	COLORREF orgTextColor = pDC->SetTextColor(textColor);

  001a2	8b f8		 mov	 edi, eax
; File C:\Program Files (x86)\Microsoft Visual Studio\2019\Community\VC\Tools\MSVC\14.29.30133\atlmfc\include\afxwin1.inl

; 639  : 		VERIFY(::GetTextExtentPoint32(m_hAttribDC, str, (int)str.GetLength(), &size));

  001a4	8d 45 d8	 lea	 eax, DWORD PTR _size$3[ebp]
  001a7	50		 push	 eax
  001a8	8b 45 08	 mov	 eax, DWORD PTR _pDC$[ebp]
  001ab	ff 71 f4	 push	 DWORD PTR [ecx-12]
  001ae	51		 push	 ecx
  001af	ff 70 08	 push	 DWORD PTR [eax+8]
  001b2	ff 15 00 00 00
	00		 call	 DWORD PTR __imp__GetTextExtentPoint32A@16
; File C:\Program Files (x86)\Microsoft Visual Studio\2019\Community\VC\Tools\MSVC\14.29.30133\atlmfc\include\atlsimpstr.h

; 519  : 		return( GetData()->nDataLength );

  001b8	8b 45 18	 mov	 eax, DWORD PTR $T11[ebp]
; File C:\Program Files (x86)\Microsoft Visual Studio\2019\Community\VC\Tools\MSVC\14.29.30133\atlmfc\include\atltypes.h

; 318  : 	*(SIZE*)this = initSize;

  001bb	8b 4d f0	 mov	 ecx, DWORD PTR _nPosition_Y$1$[ebp]
; File D:\git\src\IBK\IBK_DRFN\ProjSrc\SrcChartEx\ChartOCX\GraphDraw\GraphDataDrawer.cpp

; 225  : 	pDC->TextOut(point.x - size.cx, point.y + nPosition_Y, strData);

  001be	2b 5d d8	 sub	 ebx, DWORD PTR _size$3[ebp]
; File C:\Program Files (x86)\Microsoft Visual Studio\2019\Community\VC\Tools\MSVC\14.29.30133\atlmfc\include\atltypes.h

; 318  : 	*(SIZE*)this = initSize;

  001c1	41		 inc	 ecx
  001c2	03 ce		 add	 ecx, esi
; File C:\Program Files (x86)\Microsoft Visual Studio\2019\Community\VC\Tools\MSVC\14.29.30133\atlmfc\include\afxwin1.inl

; 574  : 	{ ASSERT(m_hDC != NULL); return TextOut(x, y, (LPCTSTR)str, (int)str.GetLength()); } // call virtual

  001c4	8b 75 08	 mov	 esi, DWORD PTR _pDC$[ebp]
  001c7	ff 70 f4	 push	 DWORD PTR [eax-12]
  001ca	50		 push	 eax
  001cb	8b 16		 mov	 edx, DWORD PTR [esi]
  001cd	51		 push	 ecx
  001ce	53		 push	 ebx
  001cf	8b ce		 mov	 ecx, esi
  001d1	ff 52 64	 call	 DWORD PTR [edx+100]
; File D:\git\src\IBK\IBK_DRFN\ProjSrc\SrcChartEx\ChartOCX\GraphDraw\GraphDataDrawer.cpp

; 227  : 	nPosition_Y += size.cy;

  001d4	8b 5d f0	 mov	 ebx, DWORD PTR _nPosition_Y$1$[ebp]

; 236  : 	pDC->SetTextColor(orgTextColor);

  001d7	8b ce		 mov	 ecx, esi
  001d9	8b 06		 mov	 eax, DWORD PTR [esi]

; 227  : 	nPosition_Y += size.cy;

  001db	03 5d dc	 add	 ebx, DWORD PTR _size$3[ebp+4]

; 236  : 	pDC->SetTextColor(orgTextColor);

  001de	57		 push	 edi

; 227  : 	nPosition_Y += size.cy;

  001df	89 5d f0	 mov	 DWORD PTR _nPosition_Y$1$[ebp], ebx

; 236  : 	pDC->SetTextColor(orgTextColor);

  001e2	ff 50 38	 call	 DWORD PTR [eax+56]

; 440  : 		CRateDrawer::DrawTextOut(pDC, textData.GetColor(), 

  001e5	8d 4d 18	 lea	 ecx, DWORD PTR $T11[ebp]
  001e8	c7 45 fc ff ff
	ff ff		 mov	 DWORD PTR __$EHRec$[ebp+8], -1
  001ef	ff 15 00 00 00
	00		 call	 DWORD PTR __imp_??1?$CStringT@DV?$StrTraitMFC_DLL@DV?$ChTraitsCRT@D@ATL@@@@@ATL@@QAE@XZ
  001f5	8b 4d e4	 mov	 ecx, DWORD PTR _pos$1$[ebp]
  001f8	85 c9		 test	 ecx, ecx
  001fa	0f 85 e0 fe ff
	ff		 jne	 $LL2@DrawData
$LN3@DrawData:

; 441  : 			CPoint(region.right, region.top + 1), GetDrawingText(textData), nPosition_Y);
; 442  : 	}
; 443  : }

  00200	8b 4d f4	 mov	 ecx, DWORD PTR __$EHRec$[ebp]
  00203	64 89 0d 00 00
	00 00		 mov	 DWORD PTR fs:0, ecx
  0020a	59		 pop	 ecx
  0020b	5f		 pop	 edi
  0020c	5e		 pop	 esi
  0020d	5b		 pop	 ebx
  0020e	8b e5		 mov	 esp, ebp
  00210	5d		 pop	 ebp
  00211	c2 14 00	 ret	 20			; 00000014H
_TEXT	ENDS
;	COMDAT text$x
text$x	SEGMENT
__unwindfunclet$?DrawData@CDataInGraphRegionDrawer@@AAEXPAVCDC@@ABVCRect@@ABVCDrawingGraphData@@ABVCPrices@@ABV?$CList@VCTextData@@AAV1@@@@Z$3:
  00000	8d 4d 14	 lea	 ecx, DWORD PTR _strDrawingText$9[ebp]
  00003	ff 25 00 00 00
	00		 jmp	 DWORD PTR __imp_??1?$CStringT@DV?$StrTraitMFC_DLL@DV?$ChTraitsCRT@D@ATL@@@@@ATL@@QAE@XZ
__unwindfunclet$?DrawData@CDataInGraphRegionDrawer@@AAEXPAVCDC@@ABVCRect@@ABVCDrawingGraphData@@ABVCPrices@@ABV?$CList@VCTextData@@AAV1@@@@Z$4:
  00009	8d 4d ec	 lea	 ecx, DWORD PTR $T7[ebp]
  0000c	ff 25 00 00 00
	00		 jmp	 DWORD PTR __imp_??1?$CStringT@DV?$StrTraitMFC_DLL@DV?$ChTraitsCRT@D@ATL@@@@@ATL@@QAE@XZ
__unwindfunclet$?DrawData@CDataInGraphRegionDrawer@@AAEXPAVCDC@@ABVCRect@@ABVCDrawingGraphData@@ABVCPrices@@ABV?$CList@VCTextData@@AAV1@@@@Z$5:
  00012	8d 4d 10	 lea	 ecx, DWORD PTR $T8[ebp]
  00015	ff 25 00 00 00
	00		 jmp	 DWORD PTR __imp_??1?$CStringT@DV?$StrTraitMFC_DLL@DV?$ChTraitsCRT@D@ATL@@@@@ATL@@QAE@XZ
__unwindfunclet$?DrawData@CDataInGraphRegionDrawer@@AAEXPAVCDC@@ABVCRect@@ABVCDrawingGraphData@@ABVCPrices@@ABV?$CList@VCTextData@@AAV1@@@@Z$0:
  0001b	8d 4d 18	 lea	 ecx, DWORD PTR $T11[ebp]
  0001e	ff 25 00 00 00
	00		 jmp	 DWORD PTR __imp_??1?$CStringT@DV?$StrTraitMFC_DLL@DV?$ChTraitsCRT@D@ATL@@@@@ATL@@QAE@XZ
  00024	cc		 int	 3
  00025	cc		 int	 3
  00026	cc		 int	 3
  00027	cc		 int	 3
  00028	cc		 int	 3
__ehhandler$?DrawData@CDataInGraphRegionDrawer@@AAEXPAVCDC@@ABVCRect@@ABVCDrawingGraphData@@ABVCPrices@@ABV?$CList@VCTextData@@AAV1@@@@Z:
  00029	90		 npad	 1
  0002a	90		 npad	 1
  0002b	8b 54 24 08	 mov	 edx, DWORD PTR [esp+8]
  0002f	8d 42 0c	 lea	 eax, DWORD PTR [edx+12]
  00032	8b 4a c4	 mov	 ecx, DWORD PTR [edx-60]
  00035	33 c8		 xor	 ecx, eax
  00037	e8 00 00 00 00	 call	 @__security_check_cookie@4
  0003c	b8 00 00 00 00	 mov	 eax, OFFSET __ehfuncinfo$?DrawData@CDataInGraphRegionDrawer@@AAEXPAVCDC@@ABVCRect@@ABVCDrawingGraphData@@ABVCPrices@@ABV?$CList@VCTextData@@AAV1@@@@Z
  00041	e9 00 00 00 00	 jmp	 ___CxxFrameHandler3
text$x	ENDS
?DrawData@CDataInGraphRegionDrawer@@AAEXPAVCDC@@ABVCRect@@ABVCDrawingGraphData@@ABVCPrices@@ABV?$CList@VCTextData@@AAV1@@@@Z ENDP ; CDataInGraphRegionDrawer::DrawData
; Function compile flags: /Ogtp
; File D:\git\src\IBK\IBK_DRFN\ProjSrc\SrcChartEx\ChartOCX\GraphDraw\GraphDataDrawer.cpp
; File C:\Program Files (x86)\Microsoft Visual Studio\2019\Community\VC\Tools\MSVC\14.29.30133\atlmfc\include\afxtempl.h
; File D:\git\src\IBK\IBK_DRFN\ProjSrc\SrcChartEx\ChartOCX\GraphDraw\GraphDataDrawer.cpp
; File C:\Program Files (x86)\Microsoft Visual Studio\2019\Community\VC\Tools\MSVC\14.29.30133\atlmfc\include\afxtempl.h
; File D:\git\src\IBK\IBK_DRFN\ProjSrc\SrcChartEx\ChartOCX\GraphDraw\GraphDataDrawer.cpp
; File C:\Program Files (x86)\Microsoft Visual Studio\2019\Community\VC\Tools\MSVC\14.29.30133\atlmfc\include\afxtempl.h
; File D:\git\src\IBK\IBK_DRFN\ProjSrc\SrcChartEx\ChartOCX\GraphDraw\GraphDataDrawer.cpp
; File C:\Program Files (x86)\Microsoft Visual Studio\2019\Community\VC\Tools\MSVC\14.29.30133\atlmfc\include\atltypes.h
; File D:\git\src\IBK\IBK_DRFN\ProjSrc\SrcChartEx\ChartOCX\GraphDraw\GraphDataDrawer.cpp
; File C:\Program Files (x86)\Microsoft Visual Studio\2019\Community\VC\Tools\MSVC\14.29.30133\atlmfc\include\atltypes.h
; File D:\git\src\IBK\IBK_DRFN\ProjSrc\SrcChartEx\ChartOCX\GraphDraw\GraphDataDrawer.cpp
; File C:\Program Files (x86)\Microsoft Visual Studio\2019\Community\VC\Tools\MSVC\14.29.30133\atlmfc\include\afxtempl.h
; File D:\git\src\IBK\IBK_DRFN\ProjSrc\SrcChartEx\ChartOCX\GraphDraw\GraphDataDrawer.cpp
; File C:\Program Files (x86)\Microsoft Visual Studio\2019\Community\VC\Tools\MSVC\14.29.30133\atlmfc\include\atlsimpstr.h
; File D:\git\src\IBK\IBK_DRFN\ProjSrc\SrcChartEx\ChartOCX\GraphDraw\GraphDataDrawer.cpp
; File C:\Program Files (x86)\Microsoft Visual Studio\2019\Community\VC\Tools\MSVC\14.29.30133\atlmfc\include\atlsimpstr.h
; File D:\git\src\IBK\IBK_DRFN\ProjSrc\SrcChartEx\ChartOCX\GraphDraw\GraphDataDrawer.cpp
; File C:\Program Files (x86)\Microsoft Visual Studio\2019\Community\VC\Tools\MSVC\14.29.30133\atlmfc\include\atlsimpstr.h
; File C:\Program Files (x86)\Microsoft Visual Studio\2019\Community\VC\Tools\MSVC\14.29.30133\atlmfc\include\afxwin1.inl
; File D:\git\src\IBK\IBK_DRFN\ProjSrc\SrcChartEx\ChartOCX\GraphDraw\GraphDataDrawer.cpp
; File C:\Program Files (x86)\Microsoft Visual Studio\2019\Community\VC\Tools\MSVC\14.29.30133\atlmfc\include\atltypes.h
; File D:\git\src\IBK\IBK_DRFN\ProjSrc\SrcChartEx\ChartOCX\GraphDraw\GraphDataDrawer.cpp
; File C:\Program Files (x86)\Microsoft Visual Studio\2019\Community\VC\Tools\MSVC\14.29.30133\atlmfc\include\atlsimpstr.h
; File D:\git\src\IBK\IBK_DRFN\ProjSrc\SrcChartEx\ChartOCX\GraphDraw\GraphDataDrawer.cpp
; File C:\Program Files (x86)\Microsoft Visual Studio\2019\Community\VC\Tools\MSVC\14.29.30133\atlmfc\include\afxwin1.inl
; File C:\Program Files (x86)\Microsoft Visual Studio\2019\Community\VC\Tools\MSVC\14.29.30133\atlmfc\include\atlsimpstr.h
; File C:\Program Files (x86)\Microsoft Visual Studio\2019\Community\VC\Tools\MSVC\14.29.30133\atlmfc\include\atltypes.h
; File D:\git\src\IBK\IBK_DRFN\ProjSrc\SrcChartEx\ChartOCX\GraphDraw\GraphDataDrawer.cpp
; File C:\Program Files (x86)\Microsoft Visual Studio\2019\Community\VC\Tools\MSVC\14.29.30133\atlmfc\include\atltypes.h
; File C:\Program Files (x86)\Microsoft Visual Studio\2019\Community\VC\Tools\MSVC\14.29.30133\atlmfc\include\afxwin1.inl
; File D:\git\src\IBK\IBK_DRFN\ProjSrc\SrcChartEx\ChartOCX\GraphDraw\GraphDataDrawer.cpp
; File C:\Program Files (x86)\Microsoft Visual Studio\2019\Community\VC\Tools\MSVC\14.29.30133\atlmfc\include\afxtempl.h
; File D:\git\src\IBK\IBK_DRFN\ProjSrc\SrcChartEx\ChartOCX\GraphDraw\GraphDataDrawer.cpp
;	COMDAT ?DrawData@CDataInGraphRegionDrawer@@AAEXPAVCDC@@ABVCRect@@ABVCDrawingGraphData@@ABVCDisplayDataMinMax@@ABVCPrices@@ABVCGraphColor@@@Z
_TEXT	SEGMENT
_textDataList$ = -88					; size = 28
$T2 = -60						; size = 16
$T3 = -44						; size = 12
_size$4 = -40						; size = 8
$T5 = -40						; size = 8
_size$6 = -32						; size = 8
_this$1$ = -28						; size = 4
$T7 = -28						; size = 4
$T8 = -24						; size = 4
$T9 = -24						; size = 4
_pos$1$ = -20						; size = 4
_nMaxLength_Data$10 = -20				; size = 4
_nOrgMode$1$ = -16					; size = 4
_nMaxLength_Title$11 = -16				; size = 4
__$EHRec$ = -12						; size = 12
_pDC$ = 8						; size = 4
_region$ = 12						; size = 4
_nPosition_Y$1$ = 16					; size = 4
_bIsInvert$ = 16					; size = 1
$T12 = 16						; size = 4
_drawingGraphData$ = 16					; size = 4
$T13 = 20						; size = 4
$T14 = 20						; size = 4
_curMinMax$ = 20					; size = 4
_nDataCount$1$ = 24					; size = 4
$T15 = 24						; size = 4
_prices$ = 24						; size = 4
_strDrawingText$16 = 28					; size = 4
_strNewData$17 = 28					; size = 4
_graphColor$ = 28					; size = 4
?DrawData@CDataInGraphRegionDrawer@@AAEXPAVCDC@@ABVCRect@@ABVCDrawingGraphData@@ABVCDisplayDataMinMax@@ABVCPrices@@ABVCGraphColor@@@Z PROC ; CDataInGraphRegionDrawer::DrawData, COMDAT
; _this$ = ecx

; 414  : {

  00000	55		 push	 ebp
  00001	8b ec		 mov	 ebp, esp
  00003	6a ff		 push	 -1
  00005	68 00 00 00 00	 push	 __ehhandler$?DrawData@CDataInGraphRegionDrawer@@AAEXPAVCDC@@ABVCRect@@ABVCDrawingGraphData@@ABVCDisplayDataMinMax@@ABVCPrices@@ABVCGraphColor@@@Z
  0000a	64 a1 00 00 00
	00		 mov	 eax, DWORD PTR fs:0
  00010	50		 push	 eax
  00011	83 ec 4c	 sub	 esp, 76			; 0000004cH
  00014	53		 push	 ebx
  00015	56		 push	 esi
  00016	57		 push	 edi
  00017	a1 00 00 00 00	 mov	 eax, DWORD PTR ___security_cookie
  0001c	33 c5		 xor	 eax, ebp
  0001e	50		 push	 eax
  0001f	8d 45 f4	 lea	 eax, DWORD PTR __$EHRec$[ebp]
  00022	64 a3 00 00 00
	00		 mov	 DWORD PTR fs:0, eax
  00028	8b d9		 mov	 ebx, ecx
  0002a	89 5d e4	 mov	 DWORD PTR _this$1$[ebp], ebx
; File C:\Program Files (x86)\Microsoft Visual Studio\2019\Community\VC\Tools\MSVC\14.29.30133\atlmfc\include\afxtempl.h

; 851  : {

  0002d	c7 45 a8 00 00
	00 00		 mov	 DWORD PTR _textDataList$[ebp], OFFSET ??_7?$CList@VCTextData@@AAV1@@@6B@

; 852  : 	ASSERT(nBlockSize > 0);
; 853  : 
; 854  : 	m_nCount = 0;

  00034	c7 45 b4 00 00
	00 00		 mov	 DWORD PTR _textDataList$[ebp+12], 0

; 855  : 	m_pNodeHead = m_pNodeTail = m_pNodeFree = NULL;

  0003b	c7 45 b8 00 00
	00 00		 mov	 DWORD PTR _textDataList$[ebp+16], 0
  00042	c7 45 b0 00 00
	00 00		 mov	 DWORD PTR _textDataList$[ebp+8], 0
  00049	c7 45 ac 00 00
	00 00		 mov	 DWORD PTR _textDataList$[ebp+4], 0

; 856  : 	m_pBlocks = NULL;

  00050	c7 45 bc 00 00
	00 00		 mov	 DWORD PTR _textDataList$[ebp+20], 0

; 857  : 	m_nBlockSize = nBlockSize;

  00057	c7 45 c0 0a 00
	00 00		 mov	 DWORD PTR _textDataList$[ebp+24], 10 ; 0000000aH
; File D:\git\src\IBK\IBK_DRFN\ProjSrc\SrcChartEx\ChartOCX\GraphDraw\GraphDataDrawer.cpp

; 416  : 	if(!GetDataTexts(drawingGraphData.GetGraphDataDrawingData(), curMinMax, prices, graphColor, textDataList))

  0005e	8b 7d 10	 mov	 edi, DWORD PTR _drawingGraphData$[ebp]
  00061	8d 45 d4	 lea	 eax, DWORD PTR $T3[ebp]
  00064	50		 push	 eax
  00065	8b cf		 mov	 ecx, edi
  00067	c7 45 fc 00 00
	00 00		 mov	 DWORD PTR __$EHRec$[ebp+8], 0
  0006e	e8 00 00 00 00	 call	 ?GetGraphDataDrawingData@CDrawingGraphData@@QBE?AVCGraphDataDrawingData@@XZ ; CDrawingGraphData::GetGraphDataDrawingData

; 516  : 	if(!GetDataTexts(dataDrawing, curMinMax, prices, graphColor, nMaxLength_Title, nMaxLength_Data, textDataList))

  00073	8d 4d a8	 lea	 ecx, DWORD PTR _textDataList$[ebp]
  00076	c7 45 f0 00 00
	00 00		 mov	 DWORD PTR _nMaxLength_Title$11[ebp], 0
  0007d	51		 push	 ecx
  0007e	8d 4d ec	 lea	 ecx, DWORD PTR _nMaxLength_Data$10[ebp]
  00081	c7 45 ec 00 00
	00 00		 mov	 DWORD PTR _nMaxLength_Data$10[ebp], 0
  00088	51		 push	 ecx
  00089	8d 4d f0	 lea	 ecx, DWORD PTR _nMaxLength_Title$11[ebp]
  0008c	51		 push	 ecx
  0008d	ff 75 1c	 push	 DWORD PTR _graphColor$[ebp]
  00090	8b cb		 mov	 ecx, ebx
  00092	ff 75 18	 push	 DWORD PTR _prices$[ebp]
  00095	ff 75 14	 push	 DWORD PTR _curMinMax$[ebp]
  00098	50		 push	 eax
  00099	e8 00 00 00 00	 call	 ?GetDataTexts@CDataInGraphRegionDrawer@@ABE_NABVCGraphDataDrawingData@@ABVCDisplayDataMinMax@@ABVCPrices@@ABVCGraphColor@@AAH4AAV?$CList@VCTextData@@AAV1@@@@Z ; CDataInGraphRegionDrawer::GetDataTexts
  0009e	84 c0		 test	 al, al
  000a0	0f 84 e2 02 00
	00		 je	 $LN164@DrawData

; 599  : 	if((nMaxLength_Title <= 0 && nMaxLength_Data <= 0) || textDataList.GetCount() <= 0)

  000a6	83 7d f0 00	 cmp	 DWORD PTR _nMaxLength_Title$11[ebp], 0
  000aa	7f 0a		 jg	 SHORT $LN16@DrawData
  000ac	83 7d ec 00	 cmp	 DWORD PTR _nMaxLength_Data$10[ebp], 0
  000b0	0f 8e cf 00 00
	00		 jle	 $LN163@DrawData
$LN16@DrawData:
  000b6	83 7d b4 00	 cmp	 DWORD PTR _textDataList$[ebp+12], 0
  000ba	0f 8e c8 02 00
	00		 jle	 $LN164@DrawData

; 600  : 		return;
; 601  : 
; 602  : 	POSITION pos = textDataList.GetHeadPosition();

  000c0	8b 75 ac	 mov	 esi, DWORD PTR _textDataList$[ebp+4]
  000c3	85 f6		 test	 esi, esi

; 603  : 	while(pos != NULL)

  000c5	0f 84 ba 00 00
	00		 je	 $LN163@DrawData
  000cb	0f 1f 44 00 00	 npad	 5
$LL12@DrawData:
; File C:\Program Files (x86)\Microsoft Visual Studio\2019\Community\VC\Tools\MSVC\14.29.30133\atlmfc\include\afxtempl.h

; 811  : 	{ CNode* pNode = (CNode*) rPosition;

  000d0	8b fe		 mov	 edi, esi
; File D:\git\src\IBK\IBK_DRFN\ProjSrc\SrcChartEx\ChartOCX\GraphDraw\GraphDataDrawer.cpp

; 606  : 		CString strNewData;

  000d2	8d 4d 1c	 lea	 ecx, DWORD PTR _strNewData$17[ebp]
; File C:\Program Files (x86)\Microsoft Visual Studio\2019\Community\VC\Tools\MSVC\14.29.30133\atlmfc\include\afxtempl.h

; 813  : 		rPosition = (POSITION) pNode->pNext;

  000d5	8b 36		 mov	 esi, DWORD PTR [esi]

; 814  : 		return pNode->data; }

  000d7	83 c7 08	 add	 edi, 8
; File D:\git\src\IBK\IBK_DRFN\ProjSrc\SrcChartEx\ChartOCX\GraphDraw\GraphDataDrawer.cpp

; 606  : 		CString strNewData;

  000da	ff 15 00 00 00
	00		 call	 DWORD PTR __imp_??0?$CStringT@DV?$StrTraitMFC_DLL@DV?$ChTraitsCRT@D@ATL@@@@@ATL@@QAE@XZ

; 199  : 	return m_strTitle;

  000e0	57		 push	 edi
  000e1	8d 4d 14	 lea	 ecx, DWORD PTR $T14[ebp]

; 606  : 		CString strNewData;

  000e4	c6 45 fc 01	 mov	 BYTE PTR __$EHRec$[ebp+8], 1

; 199  : 	return m_strTitle;

  000e8	ff 15 00 00 00
	00		 call	 DWORD PTR __imp_??0?$CStringT@DV?$StrTraitMFC_DLL@DV?$ChTraitsCRT@D@ATL@@@@@ATL@@QAE@ABV01@@Z

; 607  : 		if(GetChangingData(textData.GetTitle(), nMaxLength_Title, true, strNewData))

  000ee	8d 45 1c	 lea	 eax, DWORD PTR _strNewData$17[ebp]
  000f1	c6 45 fc 02	 mov	 BYTE PTR __$EHRec$[ebp+8], 2
  000f5	50		 push	 eax
  000f6	6a 01		 push	 1
  000f8	ff 75 f0	 push	 DWORD PTR _nMaxLength_Title$11[ebp]
  000fb	8d 45 14	 lea	 eax, DWORD PTR $T14[ebp]
  000fe	8b cb		 mov	 ecx, ebx
  00100	50		 push	 eax
  00101	e8 00 00 00 00	 call	 ?GetChangingData@CDataInGraphRegionDrawer@@ABE_NABV?$CStringT@DV?$StrTraitMFC_DLL@DV?$ChTraitsCRT@D@ATL@@@@@ATL@@H_NAAV23@@Z ; CDataInGraphRegionDrawer::GetChangingData
  00106	8d 4d 14	 lea	 ecx, DWORD PTR $T14[ebp]
  00109	c6 45 fc 01	 mov	 BYTE PTR __$EHRec$[ebp+8], 1
  0010d	8a d8		 mov	 bl, al
  0010f	ff 15 00 00 00
	00		 call	 DWORD PTR __imp_??1?$CStringT@DV?$StrTraitMFC_DLL@DV?$ChTraitsCRT@D@ATL@@@@@ATL@@QAE@XZ
  00115	84 db		 test	 bl, bl
  00117	74 0c		 je	 SHORT $LN17@DrawData

; 184  : 	m_strTitle = strTitle;

  00119	8d 45 1c	 lea	 eax, DWORD PTR _strNewData$17[ebp]
  0011c	8b cf		 mov	 ecx, edi
  0011e	50		 push	 eax
  0011f	ff 15 00 00 00
	00		 call	 DWORD PTR __imp_??4?$CStringT@DV?$StrTraitMFC_DLL@DV?$ChTraitsCRT@D@ATL@@@@@ATL@@QAEAAV01@ABV01@@Z
$LN17@DrawData:

; 204  : 	return m_strData;

  00125	83 c7 04	 add	 edi, 4
  00128	8d 4d e8	 lea	 ecx, DWORD PTR $T9[ebp]
  0012b	57		 push	 edi
  0012c	ff 15 00 00 00
	00		 call	 DWORD PTR __imp_??0?$CStringT@DV?$StrTraitMFC_DLL@DV?$ChTraitsCRT@D@ATL@@@@@ATL@@QAE@ABV01@@Z

; 609  : 		if(GetChangingData(textData.GetData(), nMaxLength_Data, false, strNewData))

  00132	8b 4d e4	 mov	 ecx, DWORD PTR _this$1$[ebp]
  00135	8d 45 1c	 lea	 eax, DWORD PTR _strNewData$17[ebp]
  00138	50		 push	 eax
  00139	6a 00		 push	 0
  0013b	ff 75 ec	 push	 DWORD PTR _nMaxLength_Data$10[ebp]
  0013e	8d 45 e8	 lea	 eax, DWORD PTR $T9[ebp]
  00141	c6 45 fc 03	 mov	 BYTE PTR __$EHRec$[ebp+8], 3
  00145	50		 push	 eax
  00146	e8 00 00 00 00	 call	 ?GetChangingData@CDataInGraphRegionDrawer@@ABE_NABV?$CStringT@DV?$StrTraitMFC_DLL@DV?$ChTraitsCRT@D@ATL@@@@@ATL@@H_NAAV23@@Z ; CDataInGraphRegionDrawer::GetChangingData
  0014b	8d 4d e8	 lea	 ecx, DWORD PTR $T9[ebp]
  0014e	c6 45 fc 01	 mov	 BYTE PTR __$EHRec$[ebp+8], 1
  00152	8a d8		 mov	 bl, al
  00154	ff 15 00 00 00
	00		 call	 DWORD PTR __imp_??1?$CStringT@DV?$StrTraitMFC_DLL@DV?$ChTraitsCRT@D@ATL@@@@@ATL@@QAE@XZ
  0015a	84 db		 test	 bl, bl
  0015c	74 0c		 je	 SHORT $LN156@DrawData

; 189  : 	m_strData = strData;

  0015e	8d 45 1c	 lea	 eax, DWORD PTR _strNewData$17[ebp]
  00161	8b cf		 mov	 ecx, edi
  00163	50		 push	 eax
  00164	ff 15 00 00 00
	00		 call	 DWORD PTR __imp_??4?$CStringT@DV?$StrTraitMFC_DLL@DV?$ChTraitsCRT@D@ATL@@@@@ATL@@QAEAAV01@ABV01@@Z
$LN156@DrawData:

; 611  : 	}

  0016a	8d 4d 1c	 lea	 ecx, DWORD PTR _strNewData$17[ebp]
  0016d	c6 45 fc 00	 mov	 BYTE PTR __$EHRec$[ebp+8], 0
  00171	ff 15 00 00 00
	00		 call	 DWORD PTR __imp_??1?$CStringT@DV?$StrTraitMFC_DLL@DV?$ChTraitsCRT@D@ATL@@@@@ATL@@QAE@XZ
  00177	8b 5d e4	 mov	 ebx, DWORD PTR _this$1$[ebp]
  0017a	85 f6		 test	 esi, esi
  0017c	0f 85 4e ff ff
	ff		 jne	 $LL12@DrawData
  00182	8b 7d 10	 mov	 edi, DWORD PTR _drawingGraphData$[ebp]
$LN163@DrawData:

; 416  : 	if(!GetDataTexts(drawingGraphData.GetGraphDataDrawingData(), curMinMax, prices, graphColor, textDataList))

  00185	83 7d b4 00	 cmp	 DWORD PTR _textDataList$[ebp+12], 0
  00189	0f 8e f9 01 00
	00		 jle	 $LN164@DrawData

; 417  : 		return;
; 418  : 
; 419  : 	int nOrgMode = pDC->SetBkMode(TRANSPARENT);

  0018f	8b 75 08	 mov	 esi, DWORD PTR _pDC$[ebp]
  00192	8b ce		 mov	 ecx, esi
  00194	6a 01		 push	 1
  00196	e8 00 00 00 00	 call	 ?SetBkMode@CDC@@QAEHH@Z	; CDC::SetBkMode

; 430  : 	if(textDataList.GetCount() > 1)

  0019b	83 7d b4 01	 cmp	 DWORD PTR _textDataList$[ebp+12], 1

; 417  : 		return;
; 418  : 
; 419  : 	int nOrgMode = pDC->SetBkMode(TRANSPARENT);

  0019f	89 45 f0	 mov	 DWORD PTR _nOrgMode$1$[ebp], eax

; 429  : 	int nPosition_Y = 0;

  001a2	c7 45 10 00 00
	00 00		 mov	 DWORD PTR _nPosition_Y$1$[ebp], 0

; 430  : 	if(textDataList.GetCount() > 1)

  001a9	7e 54		 jle	 SHORT $LN59@DrawData

; 432  : 		nPosition_Y = GetPosition_Y(pDC, textDataList.GetCount(), region.Height(), 

  001ab	8b 45 18	 mov	 eax, DWORD PTR _prices$[ebp]
  001ae	8b cf		 mov	 ecx, edi
; File C:\Program Files (x86)\Microsoft Visual Studio\2019\Community\VC\Tools\MSVC\14.29.30133\atlmfc\include\atltypes.h

; 581  : 	return bottom - top;

  001b0	8b 55 0c	 mov	 edx, DWORD PTR _region$[ebp]
; File D:\git\src\IBK\IBK_DRFN\ProjSrc\SrcChartEx\ChartOCX\GraphDraw\GraphDataDrawer.cpp

; 432  : 		nPosition_Y = GetPosition_Y(pDC, textDataList.GetCount(), region.Height(), 

  001b3	f2 0f 10 40 08	 movsd	 xmm0, QWORD PTR [eax+8]
  001b8	8d 45 c4	 lea	 eax, DWORD PTR $T2[ebp]
; File C:\Program Files (x86)\Microsoft Visual Studio\2019\Community\VC\Tools\MSVC\14.29.30133\atlmfc\include\atltypes.h

; 581  : 	return bottom - top;

  001bb	8b 5a 0c	 mov	 ebx, DWORD PTR [edx+12]
  001be	2b 5a 04	 sub	 ebx, DWORD PTR [edx+4]
; File D:\git\src\IBK\IBK_DRFN\ProjSrc\SrcChartEx\ChartOCX\GraphDraw\GraphDataDrawer.cpp

; 432  : 		nPosition_Y = GetPosition_Y(pDC, textDataList.GetCount(), region.Height(), 

  001c1	50		 push	 eax
  001c2	f2 0f 11 45 d8	 movsd	 QWORD PTR $T5[ebp], xmm0
  001c7	e8 00 00 00 00	 call	 ?GetDisplayDataVertMinMax@CDrawingGraphData@@QBE?AVCDisplayDataMinMax@@XZ ; CDrawingGraphData::GetDisplayDataVertMinMax
  001cc	8b cf		 mov	 ecx, edi
  001ce	8b f0		 mov	 esi, eax
  001d0	e8 00 00 00 00	 call	 ?DoesVertScaleInvertType@CDrawingGraphData@@QBE_NXZ ; CDrawingGraphData::DoesVertScaleInvertType
  001d5	88 45 10	 mov	 BYTE PTR _bIsInvert$[ebp], al

; 563  : 	if(curMinMax.IsCloseToMaxValue(dCur, bIsInvert))

  001d8	8b ce		 mov	 ecx, esi

; 432  : 		nPosition_Y = GetPosition_Y(pDC, textDataList.GetCount(), region.Height(), 

  001da	8b 45 b4	 mov	 eax, DWORD PTR _textDataList$[ebp+12]

; 563  : 	if(curMinMax.IsCloseToMaxValue(dCur, bIsInvert))

  001dd	ff 75 10	 push	 DWORD PTR _bIsInvert$[ebp]

; 432  : 		nPosition_Y = GetPosition_Y(pDC, textDataList.GetCount(), region.Height(), 

  001e0	89 45 18	 mov	 DWORD PTR _nDataCount$1$[ebp], eax

; 563  : 	if(curMinMax.IsCloseToMaxValue(dCur, bIsInvert))

  001e3	8d 45 d8	 lea	 eax, DWORD PTR $T5[ebp]
  001e6	50		 push	 eax
  001e7	ff 15 00 00 00
	00		 call	 DWORD PTR __imp_?IsCloseToMaxValue@CDisplayDataMinMax@@QBE_NABN_N@Z
  001ed	84 c0		 test	 al, al
  001ef	0f 84 b6 00 00
	00		 je	 $LN60@DrawData

; 564  : 		return 0;

  001f5	8b 75 08	 mov	 esi, DWORD PTR _pDC$[ebp]
$LN62@DrawData:

; 436  : 	POSITION pos = textDataList.GetHeadPosition();

  001f8	c7 45 10 00 00
	00 00		 mov	 DWORD PTR _nPosition_Y$1$[ebp], 0
$LN59@DrawData:
  001ff	8b 4d ac	 mov	 ecx, DWORD PTR _textDataList$[ebp+4]
  00202	85 c9		 test	 ecx, ecx

; 437  : 	while(pos != NULL)

  00204	0f 84 74 01 00
	00		 je	 $LN53@DrawData
  0020a	66 0f 1f 44 00
	00		 npad	 6
$LL52@DrawData:
; File C:\Program Files (x86)\Microsoft Visual Studio\2019\Community\VC\Tools\MSVC\14.29.30133\atlmfc\include\afxtempl.h

; 817  : 	{ CNode* pNode = (CNode*) rPosition;

  00210	8b f1		 mov	 esi, ecx

; 818  : 		ASSERT(AfxIsValidAddress(pNode, sizeof(CNode)));
; 819  : 		rPosition = (POSITION) pNode->pNext;

  00212	8b 09		 mov	 ecx, DWORD PTR [ecx]

; 820  : 		return pNode->data; }

  00214	83 c6 08	 add	 esi, 8
  00217	89 4d ec	 mov	 DWORD PTR _pos$1$[ebp], ecx
; File D:\git\src\IBK\IBK_DRFN\ProjSrc\SrcChartEx\ChartOCX\GraphDraw\GraphDataDrawer.cpp

; 440  : 		CRateDrawer::DrawTextOut(pDC, textData.GetColor(), 

  0021a	8b 46 08	 mov	 eax, DWORD PTR [esi+8]
  0021d	89 45 e8	 mov	 DWORD PTR $T8[ebp], eax
; File C:\Program Files (x86)\Microsoft Visual Studio\2019\Community\VC\Tools\MSVC\14.29.30133\atlmfc\include\atlsimpstr.h

; 519  : 		return( GetData()->nDataLength );

  00220	8b 06		 mov	 eax, DWORD PTR [esi]

; 533  : 		return( GetLength() == 0 );

  00222	83 78 f4 00	 cmp	 DWORD PTR [eax-12], 0
; File D:\git\src\IBK\IBK_DRFN\ProjSrc\SrcChartEx\ChartOCX\GraphDraw\GraphDataDrawer.cpp

; 214  : 	return (m_strTitle.IsEmpty() || m_strData.IsEmpty());

  00226	0f 84 ce 00 00
	00		 je	 $LN157@DrawData
; File C:\Program Files (x86)\Microsoft Visual Studio\2019\Community\VC\Tools\MSVC\14.29.30133\atlmfc\include\atlsimpstr.h

; 519  : 		return( GetData()->nDataLength );

  0022c	8b 46 04	 mov	 eax, DWORD PTR [esi+4]

; 800  : 		return( reinterpret_cast< CStringData* >( m_pszData )-1 );

  0022f	8d 7e 04	 lea	 edi, DWORD PTR [esi+4]

; 533  : 		return( GetLength() == 0 );

  00232	83 78 f4 00	 cmp	 DWORD PTR [eax-12], 0
; File D:\git\src\IBK\IBK_DRFN\ProjSrc\SrcChartEx\ChartOCX\GraphDraw\GraphDataDrawer.cpp

; 214  : 	return (m_strTitle.IsEmpty() || m_strData.IsEmpty());

  00236	0f 84 be 00 00
	00		 je	 $LN157@DrawData

; 578  : 	CString strDrawingText;

  0023c	8d 4d 1c	 lea	 ecx, DWORD PTR _strDrawingText$16[ebp]
  0023f	ff 15 00 00 00
	00		 call	 DWORD PTR __imp_??0?$CStringT@DV?$StrTraitMFC_DLL@DV?$ChTraitsCRT@D@ATL@@@@@ATL@@QAE@XZ

; 204  : 	return m_strData;

  00245	57		 push	 edi
  00246	8d 4d e4	 lea	 ecx, DWORD PTR $T7[ebp]

; 578  : 	CString strDrawingText;

  00249	c6 45 fc 05	 mov	 BYTE PTR __$EHRec$[ebp+8], 5

; 204  : 	return m_strData;

  0024d	ff 15 00 00 00
	00		 call	 DWORD PTR __imp_??0?$CStringT@DV?$StrTraitMFC_DLL@DV?$ChTraitsCRT@D@ATL@@@@@ATL@@QAE@ABV01@@Z

; 199  : 	return m_strTitle;

  00253	56		 push	 esi
  00254	8d 4d 14	 lea	 ecx, DWORD PTR $T13[ebp]

; 579  : 	strDrawingText.Format("%s : %s", textData.GetTitle(), textData.GetData());

  00257	c6 45 fc 06	 mov	 BYTE PTR __$EHRec$[ebp+8], 6

; 199  : 	return m_strTitle;

  0025b	ff 15 00 00 00
	00		 call	 DWORD PTR __imp_??0?$CStringT@DV?$StrTraitMFC_DLL@DV?$ChTraitsCRT@D@ATL@@@@@ATL@@QAE@ABV01@@Z

; 579  : 	strDrawingText.Format("%s : %s", textData.GetTitle(), textData.GetData());

  00261	ff 75 e4	 push	 DWORD PTR $T7[ebp]
  00264	8d 45 1c	 lea	 eax, DWORD PTR _strDrawingText$16[ebp]
  00267	c6 45 fc 07	 mov	 BYTE PTR __$EHRec$[ebp+8], 7
  0026b	ff 75 14	 push	 DWORD PTR $T13[ebp]
  0026e	68 00 00 00 00	 push	 OFFSET ??_C@_07IAFACCAD@?$CFs?5?3?5?$CFs@
  00273	50		 push	 eax
  00274	ff 15 00 00 00
	00		 call	 DWORD PTR __imp_?Format@?$CStringT@DV?$StrTraitMFC_DLL@DV?$ChTraitsCRT@D@ATL@@@@@ATL@@QAAXPBDZZ
  0027a	83 c4 10	 add	 esp, 16			; 00000010H
  0027d	8d 4d 14	 lea	 ecx, DWORD PTR $T13[ebp]
  00280	ff 15 00 00 00
	00		 call	 DWORD PTR __imp_??1?$CStringT@DV?$StrTraitMFC_DLL@DV?$ChTraitsCRT@D@ATL@@@@@ATL@@QAE@XZ
  00286	8d 4d e4	 lea	 ecx, DWORD PTR $T7[ebp]
  00289	c6 45 fc 05	 mov	 BYTE PTR __$EHRec$[ebp+8], 5
  0028d	ff 15 00 00 00
	00		 call	 DWORD PTR __imp_??1?$CStringT@DV?$StrTraitMFC_DLL@DV?$ChTraitsCRT@D@ATL@@@@@ATL@@QAE@XZ

; 580  : 	return strDrawingText;

  00293	8d 45 1c	 lea	 eax, DWORD PTR _strDrawingText$16[ebp]
  00296	50		 push	 eax
  00297	8d 4d 18	 lea	 ecx, DWORD PTR $T15[ebp]
  0029a	ff 15 00 00 00
	00		 call	 DWORD PTR __imp_??0?$CStringT@DV?$StrTraitMFC_DLL@DV?$ChTraitsCRT@D@ATL@@@@@ATL@@QAE@ABV01@@Z
  002a0	8d 4d 1c	 lea	 ecx, DWORD PTR _strDrawingText$16[ebp]
  002a3	ff 15 00 00 00
	00		 call	 DWORD PTR __imp_??1?$CStringT@DV?$StrTraitMFC_DLL@DV?$ChTraitsCRT@D@ATL@@@@@ATL@@QAE@XZ
  002a9	eb 5d		 jmp	 SHORT $LN77@DrawData
$LN60@DrawData:

; 566  : 	int nTextHeight = pDC->GetTextExtent("0").cy * nDataCount;

  002ab	68 00 00 00 00	 push	 OFFSET ??_C@_01GBGANLPD@0@
  002b0	8d 4d 10	 lea	 ecx, DWORD PTR $T12[ebp]
  002b3	ff 15 00 00 00
	00		 call	 DWORD PTR __imp_??0?$CStringT@DV?$StrTraitMFC_DLL@DV?$ChTraitsCRT@D@ATL@@@@@ATL@@QAE@PBD@Z
; File C:\Program Files (x86)\Microsoft Visual Studio\2019\Community\VC\Tools\MSVC\14.29.30133\atlmfc\include\atlsimpstr.h

; 519  : 		return( GetData()->nDataLength );

  002b9	8b 45 10	 mov	 eax, DWORD PTR $T12[ebp]
; File C:\Program Files (x86)\Microsoft Visual Studio\2019\Community\VC\Tools\MSVC\14.29.30133\atlmfc\include\afxwin1.inl

; 639  : 		VERIFY(::GetTextExtentPoint32(m_hAttribDC, str, (int)str.GetLength(), &size));

  002bc	8d 4d e0	 lea	 ecx, DWORD PTR _size$6[ebp]
  002bf	8b 75 08	 mov	 esi, DWORD PTR _pDC$[ebp]
  002c2	51		 push	 ecx
  002c3	ff 70 f4	 push	 DWORD PTR [eax-12]
  002c6	50		 push	 eax
  002c7	ff 76 08	 push	 DWORD PTR [esi+8]
  002ca	ff 15 00 00 00
	00		 call	 DWORD PTR __imp__GetTextExtentPoint32A@16
; File D:\git\src\IBK\IBK_DRFN\ProjSrc\SrcChartEx\ChartOCX\GraphDraw\GraphDataDrawer.cpp

; 566  : 	int nTextHeight = pDC->GetTextExtent("0").cy * nDataCount;

  002d0	8b 7d e4	 mov	 edi, DWORD PTR _size$6[ebp+4]
  002d3	8d 4d 10	 lea	 ecx, DWORD PTR $T12[ebp]
  002d6	0f af 7d 18	 imul	 edi, DWORD PTR _nDataCount$1$[ebp]
  002da	ff 15 00 00 00
	00		 call	 DWORD PTR __imp_??1?$CStringT@DV?$StrTraitMFC_DLL@DV?$ChTraitsCRT@D@ATL@@@@@ATL@@QAE@XZ

; 567  : 	if(nTextHeight <= 0 || nRegionHeight <= nTextHeight)

  002e0	85 ff		 test	 edi, edi
  002e2	0f 8e 10 ff ff
	ff		 jle	 $LN62@DrawData
  002e8	3b df		 cmp	 ebx, edi
  002ea	0f 8e 08 ff ff
	ff		 jle	 $LN62@DrawData

; 568  : 		return 0;
; 569  : 
; 570  : 	return (nRegionHeight - nTextHeight);

  002f0	2b df		 sub	 ebx, edi
  002f2	89 5d 10	 mov	 DWORD PTR _nPosition_Y$1$[ebp], ebx
  002f5	e9 05 ff ff ff	 jmp	 $LN59@DrawData
$LN157@DrawData:

; 576  : 		return "";

  002fa	68 00 00 00 00	 push	 OFFSET ??_C@_00CNPNBAHC@@
  002ff	8d 4d 18	 lea	 ecx, DWORD PTR $T15[ebp]
  00302	ff 15 00 00 00
	00		 call	 DWORD PTR __imp_??0?$CStringT@DV?$StrTraitMFC_DLL@DV?$ChTraitsCRT@D@ATL@@@@@ATL@@QAE@PBD@Z
$LN77@DrawData:

; 440  : 		CRateDrawer::DrawTextOut(pDC, textData.GetColor(), 

  00308	8b 45 0c	 mov	 eax, DWORD PTR _region$[ebp]

; 232  : 	COLORREF orgTextColor = pDC->SetTextColor(textColor);

  0030b	8b 4d 08	 mov	 ecx, DWORD PTR _pDC$[ebp]
  0030e	ff 75 e8	 push	 DWORD PTR $T8[ebp]

; 440  : 		CRateDrawer::DrawTextOut(pDC, textData.GetColor(), 

  00311	c6 45 fc 08	 mov	 BYTE PTR __$EHRec$[ebp+8], 8
  00315	8b 70 04	 mov	 esi, DWORD PTR [eax+4]
; File C:\Program Files (x86)\Microsoft Visual Studio\2019\Community\VC\Tools\MSVC\14.29.30133\atlmfc\include\atltypes.h

; 408  : 	x = initX;

  00318	8b 58 08	 mov	 ebx, DWORD PTR [eax+8]
; File D:\git\src\IBK\IBK_DRFN\ProjSrc\SrcChartEx\ChartOCX\GraphDraw\GraphDataDrawer.cpp

; 232  : 	COLORREF orgTextColor = pDC->SetTextColor(textColor);

  0031b	8b 01		 mov	 eax, DWORD PTR [ecx]
  0031d	ff 50 38	 call	 DWORD PTR [eax+56]
; File C:\Program Files (x86)\Microsoft Visual Studio\2019\Community\VC\Tools\MSVC\14.29.30133\atlmfc\include\atlsimpstr.h

; 519  : 		return( GetData()->nDataLength );

  00320	8b 4d 18	 mov	 ecx, DWORD PTR $T15[ebp]
; File D:\git\src\IBK\IBK_DRFN\ProjSrc\SrcChartEx\ChartOCX\GraphDraw\GraphDataDrawer.cpp

; 232  : 	COLORREF orgTextColor = pDC->SetTextColor(textColor);

  00323	8b f8		 mov	 edi, eax
; File C:\Program Files (x86)\Microsoft Visual Studio\2019\Community\VC\Tools\MSVC\14.29.30133\atlmfc\include\afxwin1.inl

; 639  : 		VERIFY(::GetTextExtentPoint32(m_hAttribDC, str, (int)str.GetLength(), &size));

  00325	8d 45 d8	 lea	 eax, DWORD PTR _size$4[ebp]
  00328	50		 push	 eax
  00329	8b 45 08	 mov	 eax, DWORD PTR _pDC$[ebp]
  0032c	ff 71 f4	 push	 DWORD PTR [ecx-12]
  0032f	51		 push	 ecx
  00330	ff 70 08	 push	 DWORD PTR [eax+8]
  00333	ff 15 00 00 00
	00		 call	 DWORD PTR __imp__GetTextExtentPoint32A@16
; File C:\Program Files (x86)\Microsoft Visual Studio\2019\Community\VC\Tools\MSVC\14.29.30133\atlmfc\include\atlsimpstr.h

; 519  : 		return( GetData()->nDataLength );

  00339	8b 45 18	 mov	 eax, DWORD PTR $T15[ebp]
; File C:\Program Files (x86)\Microsoft Visual Studio\2019\Community\VC\Tools\MSVC\14.29.30133\atlmfc\include\atltypes.h

; 318  : 	*(SIZE*)this = initSize;

  0033c	8b 4d 10	 mov	 ecx, DWORD PTR _nPosition_Y$1$[ebp]
; File D:\git\src\IBK\IBK_DRFN\ProjSrc\SrcChartEx\ChartOCX\GraphDraw\GraphDataDrawer.cpp

; 225  : 	pDC->TextOut(point.x - size.cx, point.y + nPosition_Y, strData);

  0033f	2b 5d d8	 sub	 ebx, DWORD PTR _size$4[ebp]
; File C:\Program Files (x86)\Microsoft Visual Studio\2019\Community\VC\Tools\MSVC\14.29.30133\atlmfc\include\atltypes.h

; 318  : 	*(SIZE*)this = initSize;

  00342	41		 inc	 ecx
  00343	03 ce		 add	 ecx, esi
; File C:\Program Files (x86)\Microsoft Visual Studio\2019\Community\VC\Tools\MSVC\14.29.30133\atlmfc\include\afxwin1.inl

; 574  : 	{ ASSERT(m_hDC != NULL); return TextOut(x, y, (LPCTSTR)str, (int)str.GetLength()); } // call virtual

  00345	8b 75 08	 mov	 esi, DWORD PTR _pDC$[ebp]
  00348	ff 70 f4	 push	 DWORD PTR [eax-12]
  0034b	50		 push	 eax
  0034c	8b 16		 mov	 edx, DWORD PTR [esi]
  0034e	51		 push	 ecx
  0034f	53		 push	 ebx
  00350	8b ce		 mov	 ecx, esi
  00352	ff 52 64	 call	 DWORD PTR [edx+100]
; File D:\git\src\IBK\IBK_DRFN\ProjSrc\SrcChartEx\ChartOCX\GraphDraw\GraphDataDrawer.cpp

; 227  : 	nPosition_Y += size.cy;

  00355	8b 5d 10	 mov	 ebx, DWORD PTR _nPosition_Y$1$[ebp]

; 236  : 	pDC->SetTextColor(orgTextColor);

  00358	8b ce		 mov	 ecx, esi
  0035a	8b 06		 mov	 eax, DWORD PTR [esi]

; 227  : 	nPosition_Y += size.cy;

  0035c	03 5d dc	 add	 ebx, DWORD PTR _size$4[ebp+4]

; 236  : 	pDC->SetTextColor(orgTextColor);

  0035f	57		 push	 edi

; 227  : 	nPosition_Y += size.cy;

  00360	89 5d 10	 mov	 DWORD PTR _nPosition_Y$1$[ebp], ebx

; 236  : 	pDC->SetTextColor(orgTextColor);

  00363	ff 50 38	 call	 DWORD PTR [eax+56]

; 440  : 		CRateDrawer::DrawTextOut(pDC, textData.GetColor(), 

  00366	8d 4d 18	 lea	 ecx, DWORD PTR $T15[ebp]
  00369	c6 45 fc 00	 mov	 BYTE PTR __$EHRec$[ebp+8], 0
  0036d	ff 15 00 00 00
	00		 call	 DWORD PTR __imp_??1?$CStringT@DV?$StrTraitMFC_DLL@DV?$ChTraitsCRT@D@ATL@@@@@ATL@@QAE@XZ
  00373	8b 4d ec	 mov	 ecx, DWORD PTR _pos$1$[ebp]
  00376	85 c9		 test	 ecx, ecx
  00378	0f 85 92 fe ff
	ff		 jne	 $LL52@DrawData
$LN53@DrawData:

; 420  : 
; 421  : 	DrawData(pDC, region, drawingGraphData, prices, textDataList);
; 422  : 
; 423  : 	pDC->SetBkMode(nOrgMode);

  0037e	ff 75 f0	 push	 DWORD PTR _nOrgMode$1$[ebp]
  00381	8b ce		 mov	 ecx, esi
  00383	e8 00 00 00 00	 call	 ?SetBkMode@CDC@@QAEHH@Z	; CDC::SetBkMode
$LN164@DrawData:
; File C:\Program Files (x86)\Microsoft Visual Studio\2019\Community\VC\Tools\MSVC\14.29.30133\atlmfc\include\afxtempl.h

; 867  : 	for (pNode = m_pNodeHead; pNode != NULL; pNode = pNode->pNext)

  00388	8b 7d ac	 mov	 edi, DWORD PTR _textDataList$[ebp+4]

; 878  : {

  0038b	c7 45 fc 09 00
	00 00		 mov	 DWORD PTR __$EHRec$[ebp+8], 9
  00392	c7 45 a8 00 00
	00 00		 mov	 DWORD PTR _textDataList$[ebp], OFFSET ??_7?$CList@VCTextData@@AAV1@@@6B@

; 867  : 	for (pNode = m_pNodeHead; pNode != NULL; pNode = pNode->pNext)

  00399	85 ff		 test	 edi, edi
  0039b	74 1b		 je	 SHORT $LN138@DrawData
  0039d	0f 1f 00	 npad	 3
$LL139@DrawData:
  003a0	8d 4f 0c	 lea	 ecx, DWORD PTR [edi+12]
  003a3	ff 15 00 00 00
	00		 call	 DWORD PTR __imp_??1?$CStringT@DV?$StrTraitMFC_DLL@DV?$ChTraitsCRT@D@ATL@@@@@ATL@@QAE@XZ
  003a9	8d 4f 08	 lea	 ecx, DWORD PTR [edi+8]
  003ac	ff 15 00 00 00
	00		 call	 DWORD PTR __imp_??1?$CStringT@DV?$StrTraitMFC_DLL@DV?$ChTraitsCRT@D@ATL@@@@@ATL@@QAE@XZ
  003b2	8b 3f		 mov	 edi, DWORD PTR [edi]
  003b4	85 ff		 test	 edi, edi
  003b6	75 e8		 jne	 SHORT $LL139@DrawData
$LN138@DrawData:

; 868  : 		pNode->data.~TYPE();
; 869  : 
; 870  : 	m_nCount = 0;
; 871  : 	m_pNodeHead = m_pNodeTail = m_pNodeFree = NULL;
; 872  : 	m_pBlocks->FreeDataChain();

  003b8	8b 4d bc	 mov	 ecx, DWORD PTR _textDataList$[ebp+20]
  003bb	c7 45 b4 00 00
	00 00		 mov	 DWORD PTR _textDataList$[ebp+12], 0
  003c2	c7 45 b8 00 00
	00 00		 mov	 DWORD PTR _textDataList$[ebp+16], 0
  003c9	c7 45 b0 00 00
	00 00		 mov	 DWORD PTR _textDataList$[ebp+8], 0
  003d0	c7 45 ac 00 00
	00 00		 mov	 DWORD PTR _textDataList$[ebp+4], 0
  003d7	e8 00 00 00 00	 call	 ?FreeDataChain@CPlex@@QAEXXZ ; CPlex::FreeDataChain
; File D:\git\src\IBK\IBK_DRFN\ProjSrc\SrcChartEx\ChartOCX\GraphDraw\GraphDataDrawer.cpp

; 424  : }

  003dc	8b 4d f4	 mov	 ecx, DWORD PTR __$EHRec$[ebp]
  003df	64 89 0d 00 00
	00 00		 mov	 DWORD PTR fs:0, ecx
  003e6	59		 pop	 ecx
  003e7	5f		 pop	 edi
  003e8	5e		 pop	 esi
  003e9	5b		 pop	 ebx
  003ea	8b e5		 mov	 esp, ebp
  003ec	5d		 pop	 ebp
  003ed	c2 18 00	 ret	 24			; 00000018H
_TEXT	ENDS
;	COMDAT text$x
text$x	SEGMENT
__unwindfunclet$?DrawData@CDataInGraphRegionDrawer@@AAEXPAVCDC@@ABVCRect@@ABVCDrawingGraphData@@ABVCDisplayDataMinMax@@ABVCPrices@@ABVCGraphColor@@@Z$0:
  00000	8d 4d a8	 lea	 ecx, DWORD PTR _textDataList$[ebp]
  00003	e9 00 00 00 00	 jmp	 ??1?$CList@VCTextData@@AAV1@@@UAE@XZ ; CList<CTextData,CTextData &>::~CList<CTextData,CTextData &>
__unwindfunclet$?DrawData@CDataInGraphRegionDrawer@@AAEXPAVCDC@@ABVCRect@@ABVCDrawingGraphData@@ABVCDisplayDataMinMax@@ABVCPrices@@ABVCGraphColor@@@Z$1:
  00008	8d 4d 1c	 lea	 ecx, DWORD PTR _strNewData$17[ebp]
  0000b	ff 25 00 00 00
	00		 jmp	 DWORD PTR __imp_??1?$CStringT@DV?$StrTraitMFC_DLL@DV?$ChTraitsCRT@D@ATL@@@@@ATL@@QAE@XZ
__unwindfunclet$?DrawData@CDataInGraphRegionDrawer@@AAEXPAVCDC@@ABVCRect@@ABVCDrawingGraphData@@ABVCDisplayDataMinMax@@ABVCPrices@@ABVCGraphColor@@@Z$2:
  00011	8d 4d 14	 lea	 ecx, DWORD PTR $T14[ebp]
  00014	ff 25 00 00 00
	00		 jmp	 DWORD PTR __imp_??1?$CStringT@DV?$StrTraitMFC_DLL@DV?$ChTraitsCRT@D@ATL@@@@@ATL@@QAE@XZ
__unwindfunclet$?DrawData@CDataInGraphRegionDrawer@@AAEXPAVCDC@@ABVCRect@@ABVCDrawingGraphData@@ABVCDisplayDataMinMax@@ABVCPrices@@ABVCGraphColor@@@Z$3:
  0001a	8d 4d e8	 lea	 ecx, DWORD PTR $T9[ebp]
  0001d	ff 25 00 00 00
	00		 jmp	 DWORD PTR __imp_??1?$CStringT@DV?$StrTraitMFC_DLL@DV?$ChTraitsCRT@D@ATL@@@@@ATL@@QAE@XZ
__unwindfunclet$?DrawData@CDataInGraphRegionDrawer@@AAEXPAVCDC@@ABVCRect@@ABVCDrawingGraphData@@ABVCDisplayDataMinMax@@ABVCPrices@@ABVCGraphColor@@@Z$11:
  00023	8d 4d 1c	 lea	 ecx, DWORD PTR _strDrawingText$16[ebp]
  00026	ff 25 00 00 00
	00		 jmp	 DWORD PTR __imp_??1?$CStringT@DV?$StrTraitMFC_DLL@DV?$ChTraitsCRT@D@ATL@@@@@ATL@@QAE@XZ
__unwindfunclet$?DrawData@CDataInGraphRegionDrawer@@AAEXPAVCDC@@ABVCRect@@ABVCDrawingGraphData@@ABVCDisplayDataMinMax@@ABVCPrices@@ABVCGraphColor@@@Z$12:
  0002c	8d 4d e4	 lea	 ecx, DWORD PTR $T7[ebp]
  0002f	ff 25 00 00 00
	00		 jmp	 DWORD PTR __imp_??1?$CStringT@DV?$StrTraitMFC_DLL@DV?$ChTraitsCRT@D@ATL@@@@@ATL@@QAE@XZ
__unwindfunclet$?DrawData@CDataInGraphRegionDrawer@@AAEXPAVCDC@@ABVCRect@@ABVCDrawingGraphData@@ABVCDisplayDataMinMax@@ABVCPrices@@ABVCGraphColor@@@Z$13:
  00035	8d 4d 14	 lea	 ecx, DWORD PTR $T13[ebp]
  00038	ff 25 00 00 00
	00		 jmp	 DWORD PTR __imp_??1?$CStringT@DV?$StrTraitMFC_DLL@DV?$ChTraitsCRT@D@ATL@@@@@ATL@@QAE@XZ
__unwindfunclet$?DrawData@CDataInGraphRegionDrawer@@AAEXPAVCDC@@ABVCRect@@ABVCDrawingGraphData@@ABVCDisplayDataMinMax@@ABVCPrices@@ABVCGraphColor@@@Z$8:
  0003e	8d 4d 18	 lea	 ecx, DWORD PTR $T15[ebp]
  00041	ff 25 00 00 00
	00		 jmp	 DWORD PTR __imp_??1?$CStringT@DV?$StrTraitMFC_DLL@DV?$ChTraitsCRT@D@ATL@@@@@ATL@@QAE@XZ
  00047	cc		 int	 3
  00048	cc		 int	 3
  00049	cc		 int	 3
  0004a	cc		 int	 3
  0004b	cc		 int	 3
__ehhandler$?DrawData@CDataInGraphRegionDrawer@@AAEXPAVCDC@@ABVCRect@@ABVCDrawingGraphData@@ABVCDisplayDataMinMax@@ABVCPrices@@ABVCGraphColor@@@Z:
  0004c	90		 npad	 1
  0004d	90		 npad	 1
  0004e	8b 54 24 08	 mov	 edx, DWORD PTR [esp+8]
  00052	8d 42 0c	 lea	 eax, DWORD PTR [edx+12]
  00055	8b 4a a4	 mov	 ecx, DWORD PTR [edx-92]
  00058	33 c8		 xor	 ecx, eax
  0005a	e8 00 00 00 00	 call	 @__security_check_cookie@4
  0005f	b8 00 00 00 00	 mov	 eax, OFFSET __ehfuncinfo$?DrawData@CDataInGraphRegionDrawer@@AAEXPAVCDC@@ABVCRect@@ABVCDrawingGraphData@@ABVCDisplayDataMinMax@@ABVCPrices@@ABVCGraphColor@@@Z
  00064	e9 00 00 00 00	 jmp	 ___CxxFrameHandler3
text$x	ENDS
?DrawData@CDataInGraphRegionDrawer@@AAEXPAVCDC@@ABVCRect@@ABVCDrawingGraphData@@ABVCDisplayDataMinMax@@ABVCPrices@@ABVCGraphColor@@@Z ENDP ; CDataInGraphRegionDrawer::DrawData
; Function compile flags: /Ogtp
; File D:\git\src\IBK\IBK_DRFN\ProjSrc\SrcChartEx\ChartOCX\GraphDraw\GraphDataDrawer.cpp
; File C:\Program Files (x86)\Microsoft Visual Studio\2019\Community\VC\Tools\MSVC\14.29.30133\atlmfc\include\afxtempl.h
; File D:\git\src\IBK\IBK_DRFN\ProjSrc\SrcChartEx\ChartOCX\GraphDraw\GraphDataDrawer.cpp
; File C:\Program Files (x86)\Microsoft Visual Studio\2019\Community\VC\Tools\MSVC\14.29.30133\atlmfc\include\atlsimpstr.h
; File D:\git\src\IBK\IBK_DRFN\ProjSrc\SrcChartEx\ChartOCX\GraphDraw\GraphDataDrawer.cpp
; File C:\Program Files (x86)\Microsoft Visual Studio\2019\Community\VC\Tools\MSVC\14.29.30133\atlmfc\include\atlsimpstr.h
; File D:\git\src\IBK\IBK_DRFN\ProjSrc\SrcChartEx\ChartOCX\GraphDraw\GraphDataDrawer.cpp
; File C:\Program Files (x86)\Microsoft Visual Studio\2019\Community\VC\Tools\MSVC\14.29.30133\atlmfc\include\atltypes.h
; File D:\git\src\IBK\IBK_DRFN\ProjSrc\SrcChartEx\ChartOCX\GraphDraw\GraphDataDrawer.cpp
; File C:\Program Files (x86)\Microsoft Visual Studio\2019\Community\VC\Tools\MSVC\14.29.30133\atlmfc\include\atltypes.h
; File D:\git\src\IBK\IBK_DRFN\ProjSrc\SrcChartEx\ChartOCX\GraphDraw\GraphDataDrawer.cpp
; File C:\Program Files (x86)\Microsoft Visual Studio\2019\Community\VC\Tools\MSVC\14.29.30133\atlmfc\include\afxtempl.h
; File D:\git\src\IBK\IBK_DRFN\ProjSrc\SrcChartEx\ChartOCX\GraphDraw\GraphDataDrawer.cpp
;	COMDAT ?DrawData@CDataInGraphRegionDrawer@@QAEXPAVCDC@@ABVCRect@@ABVCDisplayAttributes@@ABVCDrawingGraphData@@ABVCSubGraphData@@AAVCPrices@@@Z
_TEXT	SEGMENT
$T2 = -108						; size = 44
_curMinMax$ = -64					; size = 16
_realDisplayAttributes$3 = -48				; size = 8
$T4 = -40						; size = 4
$T5 = -36						; size = 4
_graphStyle$1$ = -32					; size = 4
$T6 = -28						; size = 4
_this$1$ = -24						; size = 4
_strItemName$ = -20					; size = 4
$T7 = -13						; size = 1
__$EHRec$ = -12						; size = 12
_pDC$ = 8						; size = 4
_region$ = 12						; size = 4
_displayAttributes$ = 16				; size = 4
_drawingGraphData$ = 20					; size = 4
_subGraphData$ = 24					; size = 4
_prices$ = 28						; size = 4
?DrawData@CDataInGraphRegionDrawer@@QAEXPAVCDC@@ABVCRect@@ABVCDisplayAttributes@@ABVCDrawingGraphData@@ABVCSubGraphData@@AAVCPrices@@@Z PROC ; CDataInGraphRegionDrawer::DrawData, COMDAT
; _this$ = ecx

; 390  : {

  00000	55		 push	 ebp
  00001	8b ec		 mov	 ebp, esp
  00003	6a ff		 push	 -1
  00005	68 00 00 00 00	 push	 __ehhandler$?DrawData@CDataInGraphRegionDrawer@@QAEXPAVCDC@@ABVCRect@@ABVCDisplayAttributes@@ABVCDrawingGraphData@@ABVCSubGraphData@@AAVCPrices@@@Z
  0000a	64 a1 00 00 00
	00		 mov	 eax, DWORD PTR fs:0
  00010	50		 push	 eax
  00011	83 ec 60	 sub	 esp, 96			; 00000060H
  00014	53		 push	 ebx
  00015	56		 push	 esi
  00016	57		 push	 edi
  00017	a1 00 00 00 00	 mov	 eax, DWORD PTR ___security_cookie
  0001c	33 c5		 xor	 eax, ebp
  0001e	50		 push	 eax
  0001f	8d 45 f4	 lea	 eax, DWORD PTR __$EHRec$[ebp]
  00022	64 a3 00 00 00
	00		 mov	 DWORD PTR fs:0, eax
  00028	8b f9		 mov	 edi, ecx
  0002a	89 7d e8	 mov	 DWORD PTR _this$1$[ebp], edi

; 391  : 	// (2008/1/16 - Seung-Won, Bae) for MultiLanguage
; 392  : 	m_hOcxWnd = drawingGraphData.GetOcxHwnd();

  0002d	8b 5d 14	 mov	 ebx, DWORD PTR _drawingGraphData$[ebp]

; 393  : 
; 394  : 	CDisplayDataMinMax curMinMax;

  00030	8d 4d c0	 lea	 ecx, DWORD PTR _curMinMax$[ebp]
  00033	8b 83 ec 00 00
	00		 mov	 eax, DWORD PTR [ebx+236]
  00039	89 07		 mov	 DWORD PTR [edi], eax
  0003b	ff 15 00 00 00
	00		 call	 DWORD PTR __imp_??0CDisplayDataMinMax@@QAE@XZ

; 395  : 	//2007.06.11 by LYH   
; 396  : 	//if(!GetDrawingDatas(drawingGraphData.GetGraphName(), subGraphData.GetStyle(), 
; 397  : 	if(!GetDrawingDatas(drawingGraphData.GetIndicatorName(), subGraphData.GetStyle(), 

  00041	8d 45 dc	 lea	 eax, DWORD PTR $T5[ebp]
  00044	8b cb		 mov	 ecx, ebx
  00046	50		 push	 eax
  00047	e8 00 00 00 00	 call	 ?GetIndicatorName@CDrawingGraphData@@QBE?AV?$CStringT@DV?$StrTraitMFC_DLL@DV?$ChTraitsCRT@D@ATL@@@@@ATL@@XZ ; CDrawingGraphData::GetIndicatorName
  0004c	89 45 e4	 mov	 DWORD PTR $T6[ebp], eax
  0004f	8b cb		 mov	 ecx, ebx
  00051	c7 45 fc 00 00
	00 00		 mov	 DWORD PTR __$EHRec$[ebp+8], 0
  00058	e8 00 00 00 00	 call	 ?GetSubGraphPacketList@CDrawingGraphData@@QBEPAVCSubGraphPacketList@@XZ ; CDrawingGraphData::GetSubGraphPacketList
  0005d	8b c8		 mov	 ecx, eax
  0005f	e8 00 00 00 00	 call	 ?GetSubGraphPacketList@CSubGraphPacketList@@QBEABV?$CList@PAVCPacket@@PAV1@@@XZ ; CSubGraphPacketList::GetSubGraphPacketList
  00064	8b 75 18	 mov	 esi, DWORD PTR _subGraphData$[ebp]
  00067	8b d8		 mov	 ebx, eax
  00069	8d 45 d8	 lea	 eax, DWORD PTR $T4[ebp]
  0006c	8b ce		 mov	 ecx, esi
  0006e	50		 push	 eax
  0006f	ff 15 00 00 00
	00		 call	 DWORD PTR __imp_?GetStyle@CSubGraphDataBase@@QBE?AVCGraphStyle@@XZ

; 456  : 	if(packetList.GetCount() <= 0)

  00075	83 7b 0c 00	 cmp	 DWORD PTR [ebx+12], 0

; 395  : 	//2007.06.11 by LYH   
; 396  : 	//if(!GetDrawingDatas(drawingGraphData.GetGraphName(), subGraphData.GetStyle(), 
; 397  : 	if(!GetDrawingDatas(drawingGraphData.GetIndicatorName(), subGraphData.GetStyle(), 

  00079	89 45 e0	 mov	 DWORD PTR _graphStyle$1$[ebp], eax

; 456  : 	if(packetList.GetCount() <= 0)

  0007c	7f 07		 jg	 SHORT $LN18@DrawData

; 457  : 		return false;

  0007e	32 db		 xor	 bl, bl
  00080	e9 9f 00 00 00	 jmp	 $LN10@DrawData
$LN18@DrawData:
; File C:\Program Files (x86)\Microsoft Visual Studio\2019\Community\VC\Tools\MSVC\14.29.30133\atlmfc\include\afxtempl.h

; 793  : 	{ ENSURE(m_pNodeHead != NULL);

  00085	8b 43 04	 mov	 eax, DWORD PTR [ebx+4]
  00088	85 c0		 test	 eax, eax
  0008a	0f 84 40 01 00
	00		 je	 $LN45@DrawData
; File D:\git\src\IBK\IBK_DRFN\ProjSrc\SrcChartEx\ChartOCX\GraphDraw\GraphDataDrawer.cpp

; 460  : 	if(pPacket == NULL)

  00090	8b 78 08	 mov	 edi, DWORD PTR [eax+8]
  00093	85 ff		 test	 edi, edi
  00095	75 0a		 jne	 SHORT $LN12@DrawData

; 461  : 		return false;

  00097	8b 7d e8	 mov	 edi, DWORD PTR _this$1$[ebp]
  0009a	32 db		 xor	 bl, bl
  0009c	e9 83 00 00 00	 jmp	 $LN10@DrawData
$LN12@DrawData:

; 462  : 
; 463  : 	CDisplayAttributes realDisplayAttributes = displayAttributes;

  000a1	8b 55 10	 mov	 edx, DWORD PTR _displayAttributes$[ebp]
  000a4	8b 4a 04	 mov	 ecx, DWORD PTR [edx+4]
  000a7	8b 02		 mov	 eax, DWORD PTR [edx]
  000a9	89 4d d4	 mov	 DWORD PTR _realDisplayAttributes$3[ebp+4], ecx

; 464  : 	realDisplayAttributes.SetDataEndInBlock(CRateDrawer::GetRealDataEnd(pPacket, displayAttributes.GetDataEndInBlock()));

  000ac	8b ca		 mov	 ecx, edx
  000ae	89 45 d0	 mov	 DWORD PTR _realDisplayAttributes$3[ebp], eax
  000b1	e8 00 00 00 00	 call	 ?GetDataEndInBlock@CDisplayAttributes@@QBEHXZ ; CDisplayAttributes::GetDataEndInBlock

; 318  : 	if(pPacket == NULL || pPacket->GetnumericDataList() == NULL)

  000b6	8b cf		 mov	 ecx, edi

; 464  : 	realDisplayAttributes.SetDataEndInBlock(CRateDrawer::GetRealDataEnd(pPacket, displayAttributes.GetDataEndInBlock()));

  000b8	8b f0		 mov	 esi, eax

; 318  : 	if(pPacket == NULL || pPacket->GetnumericDataList() == NULL)

  000ba	ff 15 00 00 00
	00		 call	 DWORD PTR __imp_?GetnumericDataList@CPacket@@QAEPAV?$CList@NN@@XZ
  000c0	85 c0		 test	 eax, eax
  000c2	74 12		 je	 SHORT $LN24@DrawData

; 319  : 		return nDataEnd;
; 320  : 
; 321  : 	int nDataCount = pPacket->GetnumericDataList()->GetCount();

  000c4	8b cf		 mov	 ecx, edi
  000c6	ff 15 00 00 00
	00		 call	 DWORD PTR __imp_?GetnumericDataList@CPacket@@QAEPAV?$CList@NN@@XZ
  000cc	8b 40 0c	 mov	 eax, DWORD PTR [eax+12]

; 322  : 	if(nDataEnd >= nDataCount)

  000cf	3b f0		 cmp	 esi, eax
  000d1	7c 03		 jl	 SHORT $LN24@DrawData

; 323  : 		return (nDataCount - 1);

  000d3	8d 70 ff	 lea	 esi, DWORD PTR [eax-1]
$LN24@DrawData:

; 464  : 	realDisplayAttributes.SetDataEndInBlock(CRateDrawer::GetRealDataEnd(pPacket, displayAttributes.GetDataEndInBlock()));

  000d6	56		 push	 esi
  000d7	8d 4d d0	 lea	 ecx, DWORD PTR _realDisplayAttributes$3[ebp]
  000da	e8 00 00 00 00	 call	 ?SetDataEndInBlock@CDisplayAttributes@@QAEXH@Z ; CDisplayAttributes::SetDataEndInBlock

; 465  : 	
; 466  : 	if(!CRateDrawer::GetPrices(CDrawingPacketFinder().GetPracticalPacket(strIndicatorName, packetList), 

  000df	ff 75 1c	 push	 DWORD PTR _prices$[ebp]
  000e2	8d 4d d0	 lea	 ecx, DWORD PTR _realDisplayAttributes$3[ebp]
  000e5	e8 00 00 00 00	 call	 ?GetDataEndInBlock@CDisplayAttributes@@QBEHXZ ; CDisplayAttributes::GetDataEndInBlock
  000ea	8b 75 e4	 mov	 esi, DWORD PTR $T6[ebp]
  000ed	8d 4d f3	 lea	 ecx, DWORD PTR $T7[ebp]
  000f0	50		 push	 eax
  000f1	53		 push	 ebx
  000f2	56		 push	 esi
  000f3	e8 00 00 00 00	 call	 ?GetPracticalPacket@CDrawingPacketFinder@@QBEPAVCPacket@@ABV?$CStringT@DV?$StrTraitMFC_DLL@DV?$ChTraitsCRT@D@ATL@@@@@ATL@@ABV?$CList@PAVCPacket@@PAV1@@@@Z ; CDrawingPacketFinder::GetPracticalPacket
  000f8	8b 7d e8	 mov	 edi, DWORD PTR _this$1$[ebp]
  000fb	8b cf		 mov	 ecx, edi
  000fd	50		 push	 eax
  000fe	e8 00 00 00 00	 call	 ?GetPrices@CRateDrawer@@IBE_NPAVCPacket@@HAAVCPrices@@@Z ; CRateDrawer::GetPrices
  00103	84 c0		 test	 al, al
  00105	75 04		 jne	 SHORT $LN13@DrawData

; 467  : 		realDisplayAttributes.GetDataEndInBlock(), prices))
; 468  : 		return false;

  00107	32 db		 xor	 bl, bl
  00109	eb 16		 jmp	 SHORT $LN43@DrawData
$LN13@DrawData:

; 469  : 
; 470  : 	return GetHighLow(strIndicatorName, graphStyle, packetList, realDisplayAttributes, curMinMax);

  0010b	8d 45 c0	 lea	 eax, DWORD PTR _curMinMax$[ebp]
  0010e	8b cf		 mov	 ecx, edi
  00110	50		 push	 eax
  00111	8d 45 d0	 lea	 eax, DWORD PTR _realDisplayAttributes$3[ebp]
  00114	50		 push	 eax
  00115	53		 push	 ebx
  00116	ff 75 e0	 push	 DWORD PTR _graphStyle$1$[ebp]
  00119	56		 push	 esi
  0011a	e8 00 00 00 00	 call	 ?GetHighLow@CDataInGraphRegionDrawer@@ABE_NABV?$CStringT@DV?$StrTraitMFC_DLL@DV?$ChTraitsCRT@D@ATL@@@@@ATL@@ABVCGraphStyle@@ABV?$CList@PAVCPacket@@PAV1@@@ABVCDisplayAttributes@@AAVCDisplayDataMinMax@@@Z ; CDataInGraphRegionDrawer::GetHighLow
  0011f	8a d8		 mov	 bl, al
$LN43@DrawData:

; 395  : 	//2007.06.11 by LYH   
; 396  : 	//if(!GetDrawingDatas(drawingGraphData.GetGraphName(), subGraphData.GetStyle(), 
; 397  : 	if(!GetDrawingDatas(drawingGraphData.GetIndicatorName(), subGraphData.GetStyle(), 

  00121	8b 75 18	 mov	 esi, DWORD PTR _subGraphData$[ebp]
$LN10@DrawData:
  00124	8d 4d dc	 lea	 ecx, DWORD PTR $T5[ebp]
  00127	c7 45 fc ff ff
	ff ff		 mov	 DWORD PTR __$EHRec$[ebp+8], -1
  0012e	ff 15 00 00 00
	00		 call	 DWORD PTR __imp_??1?$CStringT@DV?$StrTraitMFC_DLL@DV?$ChTraitsCRT@D@ATL@@@@@ATL@@QAE@XZ
  00134	84 db		 test	 bl, bl
  00136	0f 84 80 00 00
	00		 je	 $LN1@DrawData

; 402  : 	CString strItemName( subGraphData.GetItemName());

  0013c	8d 45 ec	 lea	 eax, DWORD PTR _strItemName$[ebp]
  0013f	8b ce		 mov	 ecx, esi
  00141	50		 push	 eax
  00142	ff 15 00 00 00
	00		 call	 DWORD PTR __imp_?GetItemName@CSubGraphDataBase@@QBE?AV?$CStringT@DV?$StrTraitMFC_DLL@DV?$ChTraitsCRT@D@ATL@@@@@ATL@@XZ
; File C:\Program Files (x86)\Microsoft Visual Studio\2019\Community\VC\Tools\MSVC\14.29.30133\atlmfc\include\atlsimpstr.h

; 519  : 		return( GetData()->nDataLength );

  00148	8b 45 ec	 mov	 eax, DWORD PTR _strItemName$[ebp]
; File D:\git\src\IBK\IBK_DRFN\ProjSrc\SrcChartEx\ChartOCX\GraphDraw\GraphDataDrawer.cpp

; 402  : 	CString strItemName( subGraphData.GetItemName());

  0014b	c7 45 fc 01 00
	00 00		 mov	 DWORD PTR __$EHRec$[ebp+8], 1
; File C:\Program Files (x86)\Microsoft Visual Studio\2019\Community\VC\Tools\MSVC\14.29.30133\atlmfc\include\atlsimpstr.h

; 519  : 		return( GetData()->nDataLength );

  00152	8b 40 f4	 mov	 eax, DWORD PTR [eax-12]
; File D:\git\src\IBK\IBK_DRFN\ProjSrc\SrcChartEx\ChartOCX\GraphDraw\GraphDataDrawer.cpp

; 404  : 	if( 3 < nItemLen) if( strItemName.GetAt( nItemLen - 1 - 2) == '(') return;

  00155	83 f8 03	 cmp	 eax, 3
  00158	7e 11		 jle	 SHORT $LN4@DrawData
  0015a	83 c0 fd	 add	 eax, -3			; fffffffdH
  0015d	8d 4d ec	 lea	 ecx, DWORD PTR _strItemName$[ebp]
  00160	50		 push	 eax
  00161	ff 15 00 00 00
	00		 call	 DWORD PTR __imp_?GetAt@?$CSimpleStringT@D$00@ATL@@QBEDH@Z
  00167	3c 28		 cmp	 al, 40			; 00000028H
  00169	74 48		 je	 SHORT $LN5@DrawData
$LN4@DrawData:
; File C:\Program Files (x86)\Microsoft Visual Studio\2019\Community\VC\Tools\MSVC\14.29.30133\atlmfc\include\atltypes.h

; 581  : 	return bottom - top;

  0016b	8b 75 0c	 mov	 esi, DWORD PTR _region$[ebp]
  0016e	8b 46 0c	 mov	 eax, DWORD PTR [esi+12]
  00171	2b 46 04	 sub	 eax, DWORD PTR [esi+4]
; File D:\git\src\IBK\IBK_DRFN\ProjSrc\SrcChartEx\ChartOCX\GraphDraw\GraphDataDrawer.cpp

; 448  : 	return (region.Height() > 30 && region.Width() > 100 && displayAttributes.GetDataCountInBlock() >= 4);

  00174	83 f8 1e	 cmp	 eax, 30			; 0000001eH
  00177	7e 3a		 jle	 SHORT $LN5@DrawData
; File C:\Program Files (x86)\Microsoft Visual Studio\2019\Community\VC\Tools\MSVC\14.29.30133\atlmfc\include\atltypes.h

; 576  : 	return right - left;

  00179	8b 46 08	 mov	 eax, DWORD PTR [esi+8]
  0017c	2b 06		 sub	 eax, DWORD PTR [esi]
; File D:\git\src\IBK\IBK_DRFN\ProjSrc\SrcChartEx\ChartOCX\GraphDraw\GraphDataDrawer.cpp

; 448  : 	return (region.Height() > 30 && region.Width() > 100 && displayAttributes.GetDataCountInBlock() >= 4);

  0017e	83 f8 64	 cmp	 eax, 100		; 00000064H
  00181	7e 30		 jle	 SHORT $LN5@DrawData
  00183	8b 4d 10	 mov	 ecx, DWORD PTR _displayAttributes$[ebp]
  00186	e8 00 00 00 00	 call	 ?GetDataCountInBlock@CDisplayAttributes@@QBEHXZ ; CDisplayAttributes::GetDataCountInBlock
  0018b	83 f8 04	 cmp	 eax, 4
  0018e	7c 23		 jl	 SHORT $LN5@DrawData

; 405  : 
; 406  : 	if( IsGraphDataDraw(region, displayAttributes))
; 407  : 		DrawData(pDC, region, drawingGraphData, curMinMax, prices, subGraphData.GetColor());

  00190	8b 4d 18	 mov	 ecx, DWORD PTR _subGraphData$[ebp]
  00193	8d 45 94	 lea	 eax, DWORD PTR $T2[ebp]
  00196	50		 push	 eax
  00197	ff 15 00 00 00
	00		 call	 DWORD PTR __imp_?GetColor@CSubGraphDataBase@@QBE?AVCGraphColor@@XZ
  0019d	50		 push	 eax
  0019e	ff 75 1c	 push	 DWORD PTR _prices$[ebp]
  001a1	8d 45 c0	 lea	 eax, DWORD PTR _curMinMax$[ebp]
  001a4	8b cf		 mov	 ecx, edi
  001a6	50		 push	 eax
  001a7	ff 75 14	 push	 DWORD PTR _drawingGraphData$[ebp]
  001aa	56		 push	 esi
  001ab	ff 75 08	 push	 DWORD PTR _pDC$[ebp]
  001ae	e8 00 00 00 00	 call	 ?DrawData@CDataInGraphRegionDrawer@@AAEXPAVCDC@@ABVCRect@@ABVCDrawingGraphData@@ABVCDisplayDataMinMax@@ABVCPrices@@ABVCGraphColor@@@Z ; CDataInGraphRegionDrawer::DrawData
$LN5@DrawData:

; 408  : }

  001b3	8d 4d ec	 lea	 ecx, DWORD PTR _strItemName$[ebp]
  001b6	ff 15 00 00 00
	00		 call	 DWORD PTR __imp_??1?$CStringT@DV?$StrTraitMFC_DLL@DV?$ChTraitsCRT@D@ATL@@@@@ATL@@QAE@XZ
$LN1@DrawData:
  001bc	8b 4d f4	 mov	 ecx, DWORD PTR __$EHRec$[ebp]
  001bf	64 89 0d 00 00
	00 00		 mov	 DWORD PTR fs:0, ecx
  001c6	59		 pop	 ecx
  001c7	5f		 pop	 edi
  001c8	5e		 pop	 esi
  001c9	5b		 pop	 ebx
  001ca	8b e5		 mov	 esp, ebp
  001cc	5d		 pop	 ebp
  001cd	c2 18 00	 ret	 24			; 00000018H
$LN45@DrawData:
; File C:\Program Files (x86)\Microsoft Visual Studio\2019\Community\VC\Tools\MSVC\14.29.30133\atlmfc\include\afxtempl.h

; 793  : 	{ ENSURE(m_pNodeHead != NULL);

  001d0	e8 00 00 00 00	 call	 ?AfxThrowInvalidArgException@@YGXXZ ; AfxThrowInvalidArgException
$LN42@DrawData:
  001d5	cc		 int	 3
_TEXT	ENDS
;	COMDAT text$x
text$x	SEGMENT
__unwindfunclet$?DrawData@CDataInGraphRegionDrawer@@QAEXPAVCDC@@ABVCRect@@ABVCDisplayAttributes@@ABVCDrawingGraphData@@ABVCSubGraphData@@AAVCPrices@@@Z$0:
  00000	8d 4d dc	 lea	 ecx, DWORD PTR $T5[ebp]
  00003	ff 25 00 00 00
	00		 jmp	 DWORD PTR __imp_??1?$CStringT@DV?$StrTraitMFC_DLL@DV?$ChTraitsCRT@D@ATL@@@@@ATL@@QAE@XZ
__unwindfunclet$?DrawData@CDataInGraphRegionDrawer@@QAEXPAVCDC@@ABVCRect@@ABVCDisplayAttributes@@ABVCDrawingGraphData@@ABVCSubGraphData@@AAVCPrices@@@Z$1:
  00009	8d 4d ec	 lea	 ecx, DWORD PTR _strItemName$[ebp]
  0000c	ff 25 00 00 00
	00		 jmp	 DWORD PTR __imp_??1?$CStringT@DV?$StrTraitMFC_DLL@DV?$ChTraitsCRT@D@ATL@@@@@ATL@@QAE@XZ
  00012	cc		 int	 3
  00013	cc		 int	 3
  00014	cc		 int	 3
  00015	cc		 int	 3
  00016	cc		 int	 3
__ehhandler$?DrawData@CDataInGraphRegionDrawer@@QAEXPAVCDC@@ABVCRect@@ABVCDisplayAttributes@@ABVCDrawingGraphData@@ABVCSubGraphData@@AAVCPrices@@@Z:
  00017	90		 npad	 1
  00018	90		 npad	 1
  00019	8b 54 24 08	 mov	 edx, DWORD PTR [esp+8]
  0001d	8d 42 0c	 lea	 eax, DWORD PTR [edx+12]
  00020	8b 4a 90	 mov	 ecx, DWORD PTR [edx-112]
  00023	33 c8		 xor	 ecx, eax
  00025	e8 00 00 00 00	 call	 @__security_check_cookie@4
  0002a	b8 00 00 00 00	 mov	 eax, OFFSET __ehfuncinfo$?DrawData@CDataInGraphRegionDrawer@@QAEXPAVCDC@@ABVCRect@@ABVCDisplayAttributes@@ABVCDrawingGraphData@@ABVCSubGraphData@@AAVCPrices@@@Z
  0002f	e9 00 00 00 00	 jmp	 ___CxxFrameHandler3
text$x	ENDS
?DrawData@CDataInGraphRegionDrawer@@QAEXPAVCDC@@ABVCRect@@ABVCDisplayAttributes@@ABVCDrawingGraphData@@ABVCSubGraphData@@AAVCPrices@@@Z ENDP ; CDataInGraphRegionDrawer::DrawData
; Function compile flags: /Ogtp
; File D:\git\src\IBK\IBK_DRFN\ProjSrc\SrcChartEx\ChartOCX\GraphDraw\GraphDataDrawer.cpp
; File C:\Program Files (x86)\Microsoft Visual Studio\2019\Community\VC\Tools\MSVC\14.29.30133\atlmfc\include\cstringt.h
; File D:\git\src\IBK\IBK_DRFN\ProjSrc\SrcChartEx\ChartOCX\GraphDraw\GraphDataDrawer.cpp
;	COMDAT ?GetDecimalDownCount@CRateDrawer@@ABE_NPAVCPacket@@AAHAAV?$CStringT@DV?$StrTraitMFC_DLL@DV?$ChTraitsCRT@D@ATL@@@@@ATL@@@Z
_TEXT	SEGMENT
$T2 = -24						; size = 4
_nBase$3 = -24						; size = 4
$T4 = -20						; size = 4
_strRight$ = -16					; size = 4
__$EHRec$ = -12						; size = 12
_strDataType$ = 8					; size = 4
_pPacket$ = 8						; size = 4
_nDecLen1$5 = 12					; size = 4
_nDecimalDownCount$ = 12				; size = 4
_nDecLen2$6 = 16					; size = 4
_strType$ = 16						; size = 4
?GetDecimalDownCount@CRateDrawer@@ABE_NPAVCPacket@@AAHAAV?$CStringT@DV?$StrTraitMFC_DLL@DV?$ChTraitsCRT@D@ATL@@@@@ATL@@@Z PROC ; CRateDrawer::GetDecimalDownCount, COMDAT
; _this$ = ecx

; 331  : {

  00000	55		 push	 ebp
  00001	8b ec		 mov	 ebp, esp
  00003	6a ff		 push	 -1
  00005	68 00 00 00 00	 push	 __ehhandler$?GetDecimalDownCount@CRateDrawer@@ABE_NPAVCPacket@@AAHAAV?$CStringT@DV?$StrTraitMFC_DLL@DV?$ChTraitsCRT@D@ATL@@@@@ATL@@@Z
  0000a	64 a1 00 00 00
	00		 mov	 eax, DWORD PTR fs:0
  00010	50		 push	 eax
  00011	83 ec 0c	 sub	 esp, 12			; 0000000cH
  00014	53		 push	 ebx
  00015	56		 push	 esi
  00016	a1 00 00 00 00	 mov	 eax, DWORD PTR ___security_cookie
  0001b	33 c5		 xor	 eax, ebp
  0001d	50		 push	 eax
  0001e	8d 45 f4	 lea	 eax, DWORD PTR __$EHRec$[ebp]
  00021	64 a3 00 00 00
	00		 mov	 DWORD PTR fs:0, eax

; 332  : 	if(pPacket == NULL)

  00027	8b 4d 08	 mov	 ecx, DWORD PTR _pPacket$[ebp]
  0002a	85 c9		 test	 ecx, ecx
  0002c	75 15		 jne	 SHORT $LN2@GetDecimal

; 333  : 		return false;

  0002e	32 c0		 xor	 al, al

; 361  : }

  00030	8b 4d f4	 mov	 ecx, DWORD PTR __$EHRec$[ebp]
  00033	64 89 0d 00 00
	00 00		 mov	 DWORD PTR fs:0, ecx
  0003a	59		 pop	 ecx
  0003b	5e		 pop	 esi
  0003c	5b		 pop	 ebx
  0003d	8b e5		 mov	 esp, ebp
  0003f	5d		 pop	 ebp
  00040	c2 0c 00	 ret	 12			; 0000000cH
$LN2@GetDecimal:

; 334  : 
; 335  : 	CString strDataType = pPacket->GetType(false);

  00043	6a 00		 push	 0
  00045	8d 45 08	 lea	 eax, DWORD PTR _strDataType$[ebp]
  00048	50		 push	 eax
  00049	ff 15 00 00 00
	00		 call	 DWORD PTR __imp_?GetType@CPacket@@QAE?AV?$CStringT@DV?$StrTraitMFC_DLL@DV?$ChTraitsCRT@D@ATL@@@@@ATL@@_N@Z

; 336  : 	if(strDataType.Find(".") < 0)

  0004f	6a 00		 push	 0
  00051	68 00 00 00 00	 push	 OFFSET ??_C@_01LFCBOECM@?4@
  00056	8d 4d 08	 lea	 ecx, DWORD PTR _strDataType$[ebp]
  00059	c7 45 fc 00 00
	00 00		 mov	 DWORD PTR __$EHRec$[ebp+8], 0
  00060	ff 15 00 00 00
	00		 call	 DWORD PTR __imp_?Find@?$CStringT@DV?$StrTraitMFC_DLL@DV?$ChTraitsCRT@D@ATL@@@@@ATL@@QBEHPBDH@Z
  00066	85 c0		 test	 eax, eax
  00068	79 07		 jns	 SHORT $LN3@GetDecimal
  0006a	32 db		 xor	 bl, bl
  0006c	e9 03 01 00 00	 jmp	 $LN13@GetDecimal
$LN3@GetDecimal:

; 337  : 		return false;
; 338  : 
; 339  : 	// 20080910 JS.Kim		8/32 ,     Return <<
; 340  : 	if( CDataConversion::IsBaseFormat(strDataType) )

  00071	8d 45 08	 lea	 eax, DWORD PTR _strDataType$[ebp]
  00074	50		 push	 eax
  00075	e8 00 00 00 00	 call	 ?IsBaseFormat@CDataConversion@@SA_NABV?$CStringT@DV?$StrTraitMFC_DLL@DV?$ChTraitsCRT@D@ATL@@@@@ATL@@@Z ; CDataConversion::IsBaseFormat
  0007a	83 c4 04	 add	 esp, 4
  0007d	84 c0		 test	 al, al
  0007f	74 42		 je	 SHORT $LN4@GetDecimal

; 341  : 	{
; 342  : 		nDecimalDownCount = 0;

  00081	8b 75 0c	 mov	 esi, DWORD PTR _nDecimalDownCount$[ebp]

; 343  : 		strType = "";//strDataType;

  00084	8b 4d 10	 mov	 ecx, DWORD PTR _strType$[ebp]
  00087	68 00 00 00 00	 push	 OFFSET ??_C@_00CNPNBAHC@@
  0008c	c7 06 00 00 00
	00		 mov	 DWORD PTR [esi], 0
  00092	ff 15 00 00 00
	00		 call	 DWORD PTR __imp_??4?$CStringT@DV?$StrTraitMFC_DLL@DV?$ChTraitsCRT@D@ATL@@@@@ATL@@QAEAAV01@PBD@Z

; 344  : 		int nBase, nDecLen1, nDecLen2;
; 345  : 		if( CDataConversion::GetBaseFormatInfo(strDataType, nBase, nDecLen1, nDecLen2) )

  00098	8d 45 10	 lea	 eax, DWORD PTR _nDecLen2$6[ebp]
  0009b	50		 push	 eax
  0009c	8d 45 0c	 lea	 eax, DWORD PTR _nDecLen1$5[ebp]
  0009f	50		 push	 eax
  000a0	8d 45 e8	 lea	 eax, DWORD PTR _nBase$3[ebp]
  000a3	50		 push	 eax
  000a4	8d 45 08	 lea	 eax, DWORD PTR _strDataType$[ebp]
  000a7	50		 push	 eax
  000a8	e8 00 00 00 00	 call	 ?GetBaseFormatInfo@CDataConversion@@SA_NABV?$CStringT@DV?$StrTraitMFC_DLL@DV?$ChTraitsCRT@D@ATL@@@@@ATL@@AAH11@Z ; CDataConversion::GetBaseFormatInfo
  000ad	83 c4 10	 add	 esp, 16			; 00000010H
  000b0	84 c0		 test	 al, al
  000b2	74 08		 je	 SHORT $LN5@GetDecimal

; 346  : 			nDecimalDownCount = nDecLen1 + nDecLen2;

  000b4	8b 45 0c	 mov	 eax, DWORD PTR _nDecLen1$5[ebp]
  000b7	03 45 10	 add	 eax, DWORD PTR _nDecLen2$6[ebp]
  000ba	89 06		 mov	 DWORD PTR [esi], eax
$LN5@GetDecimal:

; 347  : 		return true;

  000bc	b3 01		 mov	 bl, 1
  000be	e9 b1 00 00 00	 jmp	 $LN13@GetDecimal
$LN4@GetDecimal:

; 348  : 	}
; 349  : 	//>>
; 350  : 
; 351  : 	CDataConversion::GetStringData(strDataType, ".");

  000c3	68 00 00 00 00	 push	 OFFSET ??_C@_01LFCBOECM@?4@
  000c8	8d 4d ec	 lea	 ecx, DWORD PTR $T4[ebp]
  000cb	ff 15 00 00 00
	00		 call	 DWORD PTR __imp_??0?$CStringT@DV?$StrTraitMFC_DLL@DV?$ChTraitsCRT@D@ATL@@@@@ATL@@QAE@PBD@Z
  000d1	6a 01		 push	 1
  000d3	8d 45 ec	 lea	 eax, DWORD PTR $T4[ebp]
  000d6	c6 45 fc 01	 mov	 BYTE PTR __$EHRec$[ebp+8], 1
  000da	50		 push	 eax
  000db	8d 45 08	 lea	 eax, DWORD PTR _strDataType$[ebp]
  000de	50		 push	 eax
  000df	8d 45 e8	 lea	 eax, DWORD PTR $T2[ebp]
  000e2	50		 push	 eax
  000e3	e8 00 00 00 00	 call	 ?GetStringData@CDataConversion@@SA?AV?$CStringT@DV?$StrTraitMFC_DLL@DV?$ChTraitsCRT@D@ATL@@@@@ATL@@AAV23@ABV23@_N@Z ; CDataConversion::GetStringData
  000e8	83 c4 10	 add	 esp, 16			; 00000010H
  000eb	8d 4d e8	 lea	 ecx, DWORD PTR $T2[ebp]
  000ee	ff 15 00 00 00
	00		 call	 DWORD PTR __imp_??1?$CStringT@DV?$StrTraitMFC_DLL@DV?$ChTraitsCRT@D@ATL@@@@@ATL@@QAE@XZ
  000f4	8d 4d ec	 lea	 ecx, DWORD PTR $T4[ebp]
  000f7	c6 45 fc 00	 mov	 BYTE PTR __$EHRec$[ebp+8], 0
  000fb	ff 15 00 00 00
	00		 call	 DWORD PTR __imp_??1?$CStringT@DV?$StrTraitMFC_DLL@DV?$ChTraitsCRT@D@ATL@@@@@ATL@@QAE@XZ

; 352  : 	CString strRight = strDataType.Right(1);

  00101	6a 01		 push	 1
  00103	8d 45 f0	 lea	 eax, DWORD PTR _strRight$[ebp]
  00106	50		 push	 eax
  00107	8d 4d 08	 lea	 ecx, DWORD PTR _strDataType$[ebp]
  0010a	ff 15 00 00 00
	00		 call	 DWORD PTR __imp_?Right@?$CStringT@DV?$StrTraitMFC_DLL@DV?$ChTraitsCRT@D@ATL@@@@@ATL@@QBE?AV12@H@Z

; 353  : 	int nRight = atoi(strRight);

  00110	ff 75 f0	 push	 DWORD PTR _strRight$[ebp]
  00113	c6 45 fc 02	 mov	 BYTE PTR __$EHRec$[ebp+8], 2
  00117	ff 15 00 00 00
	00		 call	 DWORD PTR __imp__atoi

; 354  : 	if(nRight == 0 && strRight != "0")

  0011d	8b 75 10	 mov	 esi, DWORD PTR _strType$[ebp]
  00120	83 c4 04	 add	 esp, 4
  00123	85 c0		 test	 eax, eax
  00125	75 1e		 jne	 SHORT $LN6@GetDecimal
; File C:\Program Files (x86)\Microsoft Visual Studio\2019\Community\VC\Tools\MSVC\14.29.30133\atlmfc\include\cstringt.h

; 2567 : 		return( str1.Compare( psz2 ) != 0 );

  00127	68 00 00 00 00	 push	 OFFSET ??_C@_01GBGANLPD@0@
  0012c	8d 4d f0	 lea	 ecx, DWORD PTR _strRight$[ebp]
  0012f	ff 15 00 00 00
	00		 call	 DWORD PTR __imp_?Compare@?$CStringT@DV?$StrTraitMFC_DLL@DV?$ChTraitsCRT@D@ATL@@@@@ATL@@QBEHPBD@Z
  00135	85 c0		 test	 eax, eax
; File D:\git\src\IBK\IBK_DRFN\ProjSrc\SrcChartEx\ChartOCX\GraphDraw\GraphDataDrawer.cpp

; 354  : 	if(nRight == 0 && strRight != "0")

  00137	74 0c		 je	 SHORT $LN6@GetDecimal

; 355  : 		strType = strRight;

  00139	8d 45 f0	 lea	 eax, DWORD PTR _strRight$[ebp]
  0013c	8b ce		 mov	 ecx, esi
  0013e	50		 push	 eax
  0013f	ff 15 00 00 00
	00		 call	 DWORD PTR __imp_??4?$CStringT@DV?$StrTraitMFC_DLL@DV?$ChTraitsCRT@D@ATL@@@@@ATL@@QAEAAV01@ABV01@@Z
$LN6@GetDecimal:

; 356  : 
; 357  : 	strDataType.TrimRight(strType);

  00145	ff 36		 push	 DWORD PTR [esi]
  00147	8d 4d 08	 lea	 ecx, DWORD PTR _strDataType$[ebp]
  0014a	ff 15 00 00 00
	00		 call	 DWORD PTR __imp_?TrimRight@?$CStringT@DV?$StrTraitMFC_DLL@DV?$ChTraitsCRT@D@ATL@@@@@ATL@@QAEAAV12@PBD@Z

; 358  : 	strDataType.TrimRight("0");

  00150	68 00 00 00 00	 push	 OFFSET ??_C@_01GBGANLPD@0@
  00155	8d 4d 08	 lea	 ecx, DWORD PTR _strDataType$[ebp]
  00158	ff 15 00 00 00
	00		 call	 DWORD PTR __imp_?TrimRight@?$CStringT@DV?$StrTraitMFC_DLL@DV?$ChTraitsCRT@D@ATL@@@@@ATL@@QAEAAV12@PBD@Z

; 359  : 	nDecimalDownCount = strDataType.GetLength();

  0015e	8b 45 08	 mov	 eax, DWORD PTR _strDataType$[ebp]

; 360  : 	return true;

  00161	b3 01		 mov	 bl, 1
  00163	8b 48 f4	 mov	 ecx, DWORD PTR [eax-12]
  00166	8b 45 0c	 mov	 eax, DWORD PTR _nDecimalDownCount$[ebp]
  00169	89 08		 mov	 DWORD PTR [eax], ecx
  0016b	8d 4d f0	 lea	 ecx, DWORD PTR _strRight$[ebp]
  0016e	ff 15 00 00 00
	00		 call	 DWORD PTR __imp_??1?$CStringT@DV?$StrTraitMFC_DLL@DV?$ChTraitsCRT@D@ATL@@@@@ATL@@QAE@XZ
$LN13@GetDecimal:
  00174	8d 4d 08	 lea	 ecx, DWORD PTR _strDataType$[ebp]
  00177	ff 15 00 00 00
	00		 call	 DWORD PTR __imp_??1?$CStringT@DV?$StrTraitMFC_DLL@DV?$ChTraitsCRT@D@ATL@@@@@ATL@@QAE@XZ
  0017d	8a c3		 mov	 al, bl

; 361  : }

  0017f	8b 4d f4	 mov	 ecx, DWORD PTR __$EHRec$[ebp]
  00182	64 89 0d 00 00
	00 00		 mov	 DWORD PTR fs:0, ecx
  00189	59		 pop	 ecx
  0018a	5e		 pop	 esi
  0018b	5b		 pop	 ebx
  0018c	8b e5		 mov	 esp, ebp
  0018e	5d		 pop	 ebp
  0018f	c2 0c 00	 ret	 12			; 0000000cH
_TEXT	ENDS
;	COMDAT text$x
text$x	SEGMENT
__unwindfunclet$?GetDecimalDownCount@CRateDrawer@@ABE_NPAVCPacket@@AAHAAV?$CStringT@DV?$StrTraitMFC_DLL@DV?$ChTraitsCRT@D@ATL@@@@@ATL@@@Z$0:
  00000	8d 4d 08	 lea	 ecx, DWORD PTR _strDataType$[ebp]
  00003	ff 25 00 00 00
	00		 jmp	 DWORD PTR __imp_??1?$CStringT@DV?$StrTraitMFC_DLL@DV?$ChTraitsCRT@D@ATL@@@@@ATL@@QAE@XZ
__unwindfunclet$?GetDecimalDownCount@CRateDrawer@@ABE_NPAVCPacket@@AAHAAV?$CStringT@DV?$StrTraitMFC_DLL@DV?$ChTraitsCRT@D@ATL@@@@@ATL@@@Z$1:
  00009	8d 4d ec	 lea	 ecx, DWORD PTR $T4[ebp]
  0000c	ff 25 00 00 00
	00		 jmp	 DWORD PTR __imp_??1?$CStringT@DV?$StrTraitMFC_DLL@DV?$ChTraitsCRT@D@ATL@@@@@ATL@@QAE@XZ
__unwindfunclet$?GetDecimalDownCount@CRateDrawer@@ABE_NPAVCPacket@@AAHAAV?$CStringT@DV?$StrTraitMFC_DLL@DV?$ChTraitsCRT@D@ATL@@@@@ATL@@@Z$3:
  00012	8d 4d f0	 lea	 ecx, DWORD PTR _strRight$[ebp]
  00015	ff 25 00 00 00
	00		 jmp	 DWORD PTR __imp_??1?$CStringT@DV?$StrTraitMFC_DLL@DV?$ChTraitsCRT@D@ATL@@@@@ATL@@QAE@XZ
  0001b	cc		 int	 3
  0001c	cc		 int	 3
  0001d	cc		 int	 3
  0001e	cc		 int	 3
  0001f	cc		 int	 3
__ehhandler$?GetDecimalDownCount@CRateDrawer@@ABE_NPAVCPacket@@AAHAAV?$CStringT@DV?$StrTraitMFC_DLL@DV?$ChTraitsCRT@D@ATL@@@@@ATL@@@Z:
  00020	90		 npad	 1
  00021	90		 npad	 1
  00022	8b 54 24 08	 mov	 edx, DWORD PTR [esp+8]
  00026	8d 42 0c	 lea	 eax, DWORD PTR [edx+12]
  00029	8b 4a e8	 mov	 ecx, DWORD PTR [edx-24]
  0002c	33 c8		 xor	 ecx, eax
  0002e	e8 00 00 00 00	 call	 @__security_check_cookie@4
  00033	b8 00 00 00 00	 mov	 eax, OFFSET __ehfuncinfo$?GetDecimalDownCount@CRateDrawer@@ABE_NPAVCPacket@@AAHAAV?$CStringT@DV?$StrTraitMFC_DLL@DV?$ChTraitsCRT@D@ATL@@@@@ATL@@@Z
  00038	e9 00 00 00 00	 jmp	 ___CxxFrameHandler3
text$x	ENDS
?GetDecimalDownCount@CRateDrawer@@ABE_NPAVCPacket@@AAHAAV?$CStringT@DV?$StrTraitMFC_DLL@DV?$ChTraitsCRT@D@ATL@@@@@ATL@@@Z ENDP ; CRateDrawer::GetDecimalDownCount
; Function compile flags: /Ogtp
; File D:\git\src\IBK\IBK_DRFN\ProjSrc\SrcChartEx\ChartOCX\GraphDraw\GraphDataDrawer.cpp
;	COMDAT ?GetRealDataEnd@CRateDrawer@@IBEHPAVCPacket@@H@Z
_TEXT	SEGMENT
_pPacket$ = 8						; size = 4
_nDataEnd$ = 12						; size = 4
?GetRealDataEnd@CRateDrawer@@IBEHPAVCPacket@@H@Z PROC	; CRateDrawer::GetRealDataEnd, COMDAT
; _this$ = ecx

; 317  : {

  00000	55		 push	 ebp
  00001	8b ec		 mov	 ebp, esp
  00003	56		 push	 esi

; 318  : 	if(pPacket == NULL || pPacket->GetnumericDataList() == NULL)

  00004	8b 75 08	 mov	 esi, DWORD PTR _pPacket$[ebp]
  00007	85 f6		 test	 esi, esi
  00009	74 22		 je	 SHORT $LN3@GetRealDat
  0000b	8b ce		 mov	 ecx, esi
  0000d	ff 15 00 00 00
	00		 call	 DWORD PTR __imp_?GetnumericDataList@CPacket@@QAEPAV?$CList@NN@@XZ
  00013	85 c0		 test	 eax, eax
  00015	74 16		 je	 SHORT $LN3@GetRealDat

; 320  : 
; 321  : 	int nDataCount = pPacket->GetnumericDataList()->GetCount();

  00017	8b ce		 mov	 ecx, esi
  00019	ff 15 00 00 00
	00		 call	 DWORD PTR __imp_?GetnumericDataList@CPacket@@QAEPAV?$CList@NN@@XZ
  0001f	8b 40 0c	 mov	 eax, DWORD PTR [eax+12]

; 322  : 	if(nDataEnd >= nDataCount)

  00022	39 45 0c	 cmp	 DWORD PTR _nDataEnd$[ebp], eax
  00025	7c 06		 jl	 SHORT $LN3@GetRealDat

; 323  : 		return (nDataCount - 1);

  00027	48		 dec	 eax
  00028	5e		 pop	 esi

; 324  : 
; 325  : 	return nDataEnd;
; 326  : }

  00029	5d		 pop	 ebp
  0002a	c2 08 00	 ret	 8
$LN3@GetRealDat:

; 319  : 		return nDataEnd;

  0002d	8b 45 0c	 mov	 eax, DWORD PTR _nDataEnd$[ebp]
  00030	5e		 pop	 esi

; 324  : 
; 325  : 	return nDataEnd;
; 326  : }

  00031	5d		 pop	 ebp
  00032	c2 08 00	 ret	 8
?GetRealDataEnd@CRateDrawer@@IBEHPAVCPacket@@H@Z ENDP	; CRateDrawer::GetRealDataEnd
_TEXT	ENDS
; Function compile flags: /Ogtp
; File D:\git\src\IBK\IBK_DRFN\ProjSrc\SrcChartEx\ChartOCX\GraphDraw\GraphDataDrawer.cpp
; File C:\Program Files (x86)\Microsoft Visual Studio\2019\Community\VC\Tools\MSVC\14.29.30133\atlmfc\include\cstringt.h
; File D:\git\src\IBK\IBK_DRFN\ProjSrc\SrcChartEx\ChartOCX\GraphDraw\GraphDataDrawer.cpp
;	COMDAT ?GetDecimalDownCountAndDataType@CRateDrawer@@IBE_NPAVCPacket@@AAVCPrices@@@Z
_TEXT	SEGMENT
_nBase$2 = -40						; size = 4
$T3 = -36						; size = 4
_nDecLen1$4 = -32					; size = 4
_nDecLen2$5 = -28					; size = 4
$T6 = -24						; size = 4
_strRight$7 = -20					; size = 4
_strType$ = -16						; size = 4
__$EHRec$ = -12						; size = 12
_strDataType$8 = 8					; size = 4
_pPacket$ = 8						; size = 4
_prices$ = 12						; size = 4
?GetDecimalDownCountAndDataType@CRateDrawer@@IBE_NPAVCPacket@@AAVCPrices@@@Z PROC ; CRateDrawer::GetDecimalDownCountAndDataType, COMDAT
; _this$ = ecx

; 303  : {

  00000	55		 push	 ebp
  00001	8b ec		 mov	 ebp, esp
  00003	6a ff		 push	 -1
  00005	68 00 00 00 00	 push	 __ehhandler$?GetDecimalDownCountAndDataType@CRateDrawer@@IBE_NPAVCPacket@@AAVCPrices@@@Z
  0000a	64 a1 00 00 00
	00		 mov	 eax, DWORD PTR fs:0
  00010	50		 push	 eax
  00011	83 ec 1c	 sub	 esp, 28			; 0000001cH
  00014	53		 push	 ebx
  00015	56		 push	 esi
  00016	a1 00 00 00 00	 mov	 eax, DWORD PTR ___security_cookie
  0001b	33 c5		 xor	 eax, ebp
  0001d	50		 push	 eax
  0001e	8d 45 f4	 lea	 eax, DWORD PTR __$EHRec$[ebp]
  00021	64 a3 00 00 00
	00		 mov	 DWORD PTR fs:0, eax

; 304  : 	CString strType;

  00027	8d 4d f0	 lea	 ecx, DWORD PTR _strType$[ebp]
  0002a	ff 15 00 00 00
	00		 call	 DWORD PTR __imp_??0?$CStringT@DV?$StrTraitMFC_DLL@DV?$ChTraitsCRT@D@ATL@@@@@ATL@@QAE@XZ

; 332  : 	if(pPacket == NULL)

  00030	8b 4d 08	 mov	 ecx, DWORD PTR _pPacket$[ebp]

; 304  : 	CString strType;

  00033	c7 45 fc 00 00
	00 00		 mov	 DWORD PTR __$EHRec$[ebp+8], 0

; 332  : 	if(pPacket == NULL)

  0003a	85 c9		 test	 ecx, ecx
  0003c	74 2d		 je	 SHORT $LN29@GetDecimal

; 333  : 		return false;
; 334  : 
; 335  : 	CString strDataType = pPacket->GetType(false);

  0003e	6a 00		 push	 0
  00040	8d 45 08	 lea	 eax, DWORD PTR _strDataType$8[ebp]
  00043	50		 push	 eax
  00044	ff 15 00 00 00
	00		 call	 DWORD PTR __imp_?GetType@CPacket@@QAE?AV?$CStringT@DV?$StrTraitMFC_DLL@DV?$ChTraitsCRT@D@ATL@@@@@ATL@@_N@Z

; 336  : 	if(strDataType.Find(".") < 0)

  0004a	6a 00		 push	 0
  0004c	68 00 00 00 00	 push	 OFFSET ??_C@_01LFCBOECM@?4@
  00051	8d 4d 08	 lea	 ecx, DWORD PTR _strDataType$8[ebp]
  00054	c6 45 fc 01	 mov	 BYTE PTR __$EHRec$[ebp+8], 1
  00058	ff 15 00 00 00
	00		 call	 DWORD PTR __imp_?Find@?$CStringT@DV?$StrTraitMFC_DLL@DV?$ChTraitsCRT@D@ATL@@@@@ATL@@QBEHPBDH@Z
  0005e	85 c0		 test	 eax, eax
  00060	79 29		 jns	 SHORT $LN8@GetDecimal

; 337  : 		return false;

  00062	8d 4d 08	 lea	 ecx, DWORD PTR _strDataType$8[ebp]
  00065	ff 15 00 00 00
	00		 call	 DWORD PTR __imp_??1?$CStringT@DV?$StrTraitMFC_DLL@DV?$ChTraitsCRT@D@ATL@@@@@ATL@@QAE@XZ
$LN29@GetDecimal:
  0006b	32 db		 xor	 bl, bl
$LN5@GetDecimal:

; 310  : // vntsorl_20110609:[A00000259]     
; 311  : 	prices.SetDataUnit(strType);
; 312  : 	return true;

  0006d	8d 4d f0	 lea	 ecx, DWORD PTR _strType$[ebp]
  00070	ff 15 00 00 00
	00		 call	 DWORD PTR __imp_??1?$CStringT@DV?$StrTraitMFC_DLL@DV?$ChTraitsCRT@D@ATL@@@@@ATL@@QAE@XZ
  00076	8a c3		 mov	 al, bl

; 313  : }

  00078	8b 4d f4	 mov	 ecx, DWORD PTR __$EHRec$[ebp]
  0007b	64 89 0d 00 00
	00 00		 mov	 DWORD PTR fs:0, ecx
  00082	59		 pop	 ecx
  00083	5e		 pop	 esi
  00084	5b		 pop	 ebx
  00085	8b e5		 mov	 esp, ebp
  00087	5d		 pop	 ebp
  00088	c2 08 00	 ret	 8
$LN8@GetDecimal:

; 340  : 	if( CDataConversion::IsBaseFormat(strDataType) )

  0008b	8d 45 08	 lea	 eax, DWORD PTR _strDataType$8[ebp]
  0008e	50		 push	 eax
  0008f	e8 00 00 00 00	 call	 ?IsBaseFormat@CDataConversion@@SA_NABV?$CStringT@DV?$StrTraitMFC_DLL@DV?$ChTraitsCRT@D@ATL@@@@@ATL@@@Z ; CDataConversion::IsBaseFormat
  00094	83 c4 04	 add	 esp, 4
  00097	84 c0		 test	 al, al
  00099	74 3b		 je	 SHORT $LN9@GetDecimal

; 341  : 	{
; 342  : 		nDecimalDownCount = 0;
; 343  : 		strType = "";//strDataType;

  0009b	68 00 00 00 00	 push	 OFFSET ??_C@_00CNPNBAHC@@
  000a0	8d 4d f0	 lea	 ecx, DWORD PTR _strType$[ebp]
  000a3	33 f6		 xor	 esi, esi
  000a5	ff 15 00 00 00
	00		 call	 DWORD PTR __imp_??4?$CStringT@DV?$StrTraitMFC_DLL@DV?$ChTraitsCRT@D@ATL@@@@@ATL@@QAEAAV01@PBD@Z

; 344  : 		int nBase, nDecLen1, nDecLen2;
; 345  : 		if( CDataConversion::GetBaseFormatInfo(strDataType, nBase, nDecLen1, nDecLen2) )

  000ab	8d 45 e4	 lea	 eax, DWORD PTR _nDecLen2$5[ebp]
  000ae	50		 push	 eax
  000af	8d 45 e0	 lea	 eax, DWORD PTR _nDecLen1$4[ebp]
  000b2	50		 push	 eax
  000b3	8d 45 d8	 lea	 eax, DWORD PTR _nBase$2[ebp]
  000b6	50		 push	 eax
  000b7	8d 45 08	 lea	 eax, DWORD PTR _strDataType$8[ebp]
  000ba	50		 push	 eax
  000bb	e8 00 00 00 00	 call	 ?GetBaseFormatInfo@CDataConversion@@SA_NABV?$CStringT@DV?$StrTraitMFC_DLL@DV?$ChTraitsCRT@D@ATL@@@@@ATL@@AAH11@Z ; CDataConversion::GetBaseFormatInfo
  000c0	83 c4 10	 add	 esp, 16			; 00000010H
  000c3	84 c0		 test	 al, al
  000c5	0f 84 b4 00 00
	00		 je	 $LN10@GetDecimal

; 346  : 			nDecimalDownCount = nDecLen1 + nDecLen2;

  000cb	8b 75 e0	 mov	 esi, DWORD PTR _nDecLen1$4[ebp]
  000ce	03 75 e4	 add	 esi, DWORD PTR _nDecLen2$5[ebp]

; 347  : 		return true;

  000d1	e9 a9 00 00 00	 jmp	 $LN10@GetDecimal
$LN9@GetDecimal:

; 348  : 	}
; 349  : 	//>>
; 350  : 
; 351  : 	CDataConversion::GetStringData(strDataType, ".");

  000d6	68 00 00 00 00	 push	 OFFSET ??_C@_01LFCBOECM@?4@
  000db	8d 4d e8	 lea	 ecx, DWORD PTR $T6[ebp]
  000de	ff 15 00 00 00
	00		 call	 DWORD PTR __imp_??0?$CStringT@DV?$StrTraitMFC_DLL@DV?$ChTraitsCRT@D@ATL@@@@@ATL@@QAE@PBD@Z
  000e4	6a 01		 push	 1
  000e6	8d 45 e8	 lea	 eax, DWORD PTR $T6[ebp]
  000e9	c6 45 fc 02	 mov	 BYTE PTR __$EHRec$[ebp+8], 2
  000ed	50		 push	 eax
  000ee	8d 45 08	 lea	 eax, DWORD PTR _strDataType$8[ebp]
  000f1	50		 push	 eax
  000f2	8d 45 dc	 lea	 eax, DWORD PTR $T3[ebp]
  000f5	50		 push	 eax
  000f6	e8 00 00 00 00	 call	 ?GetStringData@CDataConversion@@SA?AV?$CStringT@DV?$StrTraitMFC_DLL@DV?$ChTraitsCRT@D@ATL@@@@@ATL@@AAV23@ABV23@_N@Z ; CDataConversion::GetStringData
  000fb	83 c4 10	 add	 esp, 16			; 00000010H
  000fe	8d 4d dc	 lea	 ecx, DWORD PTR $T3[ebp]
  00101	ff 15 00 00 00
	00		 call	 DWORD PTR __imp_??1?$CStringT@DV?$StrTraitMFC_DLL@DV?$ChTraitsCRT@D@ATL@@@@@ATL@@QAE@XZ
  00107	8d 4d e8	 lea	 ecx, DWORD PTR $T6[ebp]
  0010a	c6 45 fc 01	 mov	 BYTE PTR __$EHRec$[ebp+8], 1
  0010e	ff 15 00 00 00
	00		 call	 DWORD PTR __imp_??1?$CStringT@DV?$StrTraitMFC_DLL@DV?$ChTraitsCRT@D@ATL@@@@@ATL@@QAE@XZ

; 352  : 	CString strRight = strDataType.Right(1);

  00114	6a 01		 push	 1
  00116	8d 45 ec	 lea	 eax, DWORD PTR _strRight$7[ebp]
  00119	50		 push	 eax
  0011a	8d 4d 08	 lea	 ecx, DWORD PTR _strDataType$8[ebp]
  0011d	ff 15 00 00 00
	00		 call	 DWORD PTR __imp_?Right@?$CStringT@DV?$StrTraitMFC_DLL@DV?$ChTraitsCRT@D@ATL@@@@@ATL@@QBE?AV12@H@Z

; 353  : 	int nRight = atoi(strRight);

  00123	ff 75 ec	 push	 DWORD PTR _strRight$7[ebp]
  00126	c6 45 fc 03	 mov	 BYTE PTR __$EHRec$[ebp+8], 3
  0012a	ff 15 00 00 00
	00		 call	 DWORD PTR __imp__atoi
  00130	83 c4 04	 add	 esp, 4

; 354  : 	if(nRight == 0 && strRight != "0")

  00133	85 c0		 test	 eax, eax
  00135	75 1f		 jne	 SHORT $LN11@GetDecimal
; File C:\Program Files (x86)\Microsoft Visual Studio\2019\Community\VC\Tools\MSVC\14.29.30133\atlmfc\include\cstringt.h

; 2567 : 		return( str1.Compare( psz2 ) != 0 );

  00137	68 00 00 00 00	 push	 OFFSET ??_C@_01GBGANLPD@0@
  0013c	8d 4d ec	 lea	 ecx, DWORD PTR _strRight$7[ebp]
  0013f	ff 15 00 00 00
	00		 call	 DWORD PTR __imp_?Compare@?$CStringT@DV?$StrTraitMFC_DLL@DV?$ChTraitsCRT@D@ATL@@@@@ATL@@QBEHPBD@Z
  00145	85 c0		 test	 eax, eax
; File D:\git\src\IBK\IBK_DRFN\ProjSrc\SrcChartEx\ChartOCX\GraphDraw\GraphDataDrawer.cpp

; 354  : 	if(nRight == 0 && strRight != "0")

  00147	74 0d		 je	 SHORT $LN11@GetDecimal

; 355  : 		strType = strRight;

  00149	8d 45 ec	 lea	 eax, DWORD PTR _strRight$7[ebp]
  0014c	50		 push	 eax
  0014d	8d 4d f0	 lea	 ecx, DWORD PTR _strType$[ebp]
  00150	ff 15 00 00 00
	00		 call	 DWORD PTR __imp_??4?$CStringT@DV?$StrTraitMFC_DLL@DV?$ChTraitsCRT@D@ATL@@@@@ATL@@QAEAAV01@ABV01@@Z
$LN11@GetDecimal:

; 356  : 
; 357  : 	strDataType.TrimRight(strType);

  00156	ff 75 f0	 push	 DWORD PTR _strType$[ebp]
  00159	8d 4d 08	 lea	 ecx, DWORD PTR _strDataType$8[ebp]
  0015c	ff 15 00 00 00
	00		 call	 DWORD PTR __imp_?TrimRight@?$CStringT@DV?$StrTraitMFC_DLL@DV?$ChTraitsCRT@D@ATL@@@@@ATL@@QAEAAV12@PBD@Z

; 358  : 	strDataType.TrimRight("0");

  00162	68 00 00 00 00	 push	 OFFSET ??_C@_01GBGANLPD@0@
  00167	8d 4d 08	 lea	 ecx, DWORD PTR _strDataType$8[ebp]
  0016a	ff 15 00 00 00
	00		 call	 DWORD PTR __imp_?TrimRight@?$CStringT@DV?$StrTraitMFC_DLL@DV?$ChTraitsCRT@D@ATL@@@@@ATL@@QAEAAV12@PBD@Z

; 359  : 	nDecimalDownCount = strDataType.GetLength();

  00170	8b 45 08	 mov	 eax, DWORD PTR _strDataType$8[ebp]

; 360  : 	return true;

  00173	8d 4d ec	 lea	 ecx, DWORD PTR _strRight$7[ebp]
  00176	8b 70 f4	 mov	 esi, DWORD PTR [eax-12]
  00179	ff 15 00 00 00
	00		 call	 DWORD PTR __imp_??1?$CStringT@DV?$StrTraitMFC_DLL@DV?$ChTraitsCRT@D@ATL@@@@@ATL@@QAE@XZ
$LN10@GetDecimal:

; 305  : 	int nDecimalDownCount = 0;
; 306  : 	if(!GetDecimalDownCount(pPacket, nDecimalDownCount, strType))
; 307  : 		return false;
; 308  : 
; 309  : 	prices.SetDecimalDownCount(nDecimalDownCount);

  0017f	8d 4d 08	 lea	 ecx, DWORD PTR _strDataType$8[ebp]
  00182	c6 45 fc 00	 mov	 BYTE PTR __$EHRec$[ebp+8], 0
  00186	ff 15 00 00 00
	00		 call	 DWORD PTR __imp_??1?$CStringT@DV?$StrTraitMFC_DLL@DV?$ChTraitsCRT@D@ATL@@@@@ATL@@QAE@XZ
  0018c	8b 4d 0c	 mov	 ecx, DWORD PTR _prices$[ebp]

; 86   : 	m_strDataUnit = strDataUnit;

  0018f	8d 45 f0	 lea	 eax, DWORD PTR _strType$[ebp]
  00192	50		 push	 eax

; 305  : 	int nDecimalDownCount = 0;
; 306  : 	if(!GetDecimalDownCount(pPacket, nDecimalDownCount, strType))
; 307  : 		return false;
; 308  : 
; 309  : 	prices.SetDecimalDownCount(nDecimalDownCount);

  00193	89 71 10	 mov	 DWORD PTR [ecx+16], esi

; 86   : 	m_strDataUnit = strDataUnit;

  00196	83 c1 20	 add	 ecx, 32			; 00000020H
  00199	ff 15 00 00 00
	00		 call	 DWORD PTR __imp_??4?$CStringT@DV?$StrTraitMFC_DLL@DV?$ChTraitsCRT@D@ATL@@@@@ATL@@QAEAAV01@ABV01@@Z

; 310  : // vntsorl_20110609:[A00000259]     
; 311  : 	prices.SetDataUnit(strType);
; 312  : 	return true;

  0019f	b3 01		 mov	 bl, 1
  001a1	e9 c7 fe ff ff	 jmp	 $LN5@GetDecimal
_TEXT	ENDS
;	COMDAT text$x
text$x	SEGMENT
__unwindfunclet$?GetDecimalDownCountAndDataType@CRateDrawer@@IBE_NPAVCPacket@@AAVCPrices@@@Z$0:
  00000	8d 4d f0	 lea	 ecx, DWORD PTR _strType$[ebp]
  00003	ff 25 00 00 00
	00		 jmp	 DWORD PTR __imp_??1?$CStringT@DV?$StrTraitMFC_DLL@DV?$ChTraitsCRT@D@ATL@@@@@ATL@@QAE@XZ
__unwindfunclet$?GetDecimalDownCountAndDataType@CRateDrawer@@IBE_NPAVCPacket@@AAVCPrices@@@Z$1:
  00009	8d 4d 08	 lea	 ecx, DWORD PTR _strDataType$8[ebp]
  0000c	ff 25 00 00 00
	00		 jmp	 DWORD PTR __imp_??1?$CStringT@DV?$StrTraitMFC_DLL@DV?$ChTraitsCRT@D@ATL@@@@@ATL@@QAE@XZ
__unwindfunclet$?GetDecimalDownCountAndDataType@CRateDrawer@@IBE_NPAVCPacket@@AAVCPrices@@@Z$2:
  00012	8d 4d e8	 lea	 ecx, DWORD PTR $T6[ebp]
  00015	ff 25 00 00 00
	00		 jmp	 DWORD PTR __imp_??1?$CStringT@DV?$StrTraitMFC_DLL@DV?$ChTraitsCRT@D@ATL@@@@@ATL@@QAE@XZ
__unwindfunclet$?GetDecimalDownCountAndDataType@CRateDrawer@@IBE_NPAVCPacket@@AAVCPrices@@@Z$4:
  0001b	8d 4d ec	 lea	 ecx, DWORD PTR _strRight$7[ebp]
  0001e	ff 25 00 00 00
	00		 jmp	 DWORD PTR __imp_??1?$CStringT@DV?$StrTraitMFC_DLL@DV?$ChTraitsCRT@D@ATL@@@@@ATL@@QAE@XZ
  00024	cc		 int	 3
  00025	cc		 int	 3
  00026	cc		 int	 3
  00027	cc		 int	 3
  00028	cc		 int	 3
__ehhandler$?GetDecimalDownCountAndDataType@CRateDrawer@@IBE_NPAVCPacket@@AAVCPrices@@@Z:
  00029	90		 npad	 1
  0002a	90		 npad	 1
  0002b	8b 54 24 08	 mov	 edx, DWORD PTR [esp+8]
  0002f	8d 42 0c	 lea	 eax, DWORD PTR [edx+12]
  00032	8b 4a d8	 mov	 ecx, DWORD PTR [edx-40]
  00035	33 c8		 xor	 ecx, eax
  00037	e8 00 00 00 00	 call	 @__security_check_cookie@4
  0003c	b8 00 00 00 00	 mov	 eax, OFFSET __ehfuncinfo$?GetDecimalDownCountAndDataType@CRateDrawer@@IBE_NPAVCPacket@@AAVCPrices@@@Z
  00041	e9 00 00 00 00	 jmp	 ___CxxFrameHandler3
text$x	ENDS
?GetDecimalDownCountAndDataType@CRateDrawer@@IBE_NPAVCPacket@@AAVCPrices@@@Z ENDP ; CRateDrawer::GetDecimalDownCountAndDataType
; Function compile flags: /Ogtp
; File D:\git\src\IBK\IBK_DRFN\ProjSrc\SrcChartEx\ChartOCX\GraphDraw\GraphDataDrawer.cpp
; File C:\Program Files (x86)\Microsoft Visual Studio\2019\Community\VC\Tools\MSVC\14.29.30133\atlmfc\include\afxtempl.h
; File D:\git\src\IBK\IBK_DRFN\ProjSrc\SrcChartEx\ChartOCX\GraphDraw\GraphDataDrawer.cpp
;	COMDAT ?GetPrices@CRateDrawer@@IBE_NPAVCPacket@@HAAVCPrices@@@Z
_TEXT	SEGMENT
tv159 = -20						; size = 8
__$EHRec$ = -12						; size = 12
$T2 = 8							; size = 4
_pPacket$ = 8						; size = 4
___$ReturnUdt$ = 12					; size = 4
_nDataEnd$ = 12						; size = 4
_prices$ = 16						; size = 4
?GetPrices@CRateDrawer@@IBE_NPAVCPacket@@HAAVCPrices@@@Z PROC ; CRateDrawer::GetPrices, COMDAT
; _this$ = ecx

; 271  : {

  00000	55		 push	 ebp
  00001	8b ec		 mov	 ebp, esp
  00003	6a ff		 push	 -1
  00005	68 00 00 00 00	 push	 __ehhandler$?GetPrices@CRateDrawer@@IBE_NPAVCPacket@@HAAVCPrices@@@Z
  0000a	64 a1 00 00 00
	00		 mov	 eax, DWORD PTR fs:0
  00010	50		 push	 eax
  00011	83 ec 08	 sub	 esp, 8
  00014	53		 push	 ebx
  00015	56		 push	 esi
  00016	57		 push	 edi
  00017	a1 00 00 00 00	 mov	 eax, DWORD PTR ___security_cookie
  0001c	33 c5		 xor	 eax, ebp
  0001e	50		 push	 eax
  0001f	8d 45 f4	 lea	 eax, DWORD PTR __$EHRec$[ebp]
  00022	64 a3 00 00 00
	00		 mov	 DWORD PTR fs:0, eax
  00028	8b d9		 mov	 ebx, ecx

; 272  : 	if(pPacket == NULL)

  0002a	8b 75 08	 mov	 esi, DWORD PTR _pPacket$[ebp]
  0002d	85 f6		 test	 esi, esi
  0002f	0f 84 e7 00 00
	00		 je	 $LN4@GetPrices

; 273  : 		return false;
; 274  : 
; 275  : 	CList<double, double>* pDataList = pPacket->GetnumericDataList();

  00035	8b ce		 mov	 ecx, esi
  00037	ff 15 00 00 00
	00		 call	 DWORD PTR __imp_?GetnumericDataList@CPacket@@QAEPAV?$CList@NN@@XZ

; 276  : 	if(pDataList == NULL || pDataList->GetCount() <= 0)

  0003d	85 c0		 test	 eax, eax
  0003f	0f 84 d7 00 00
	00		 je	 $LN4@GetPrices
  00045	8b 50 0c	 mov	 edx, DWORD PTR [eax+12]
  00048	85 d2		 test	 edx, edx
  0004a	0f 8e cc 00 00
	00		 jle	 $LN4@GetPrices

; 278  : 
; 279  : 	if( nDataEnd < 0) return false;

  00050	8b 4d 0c	 mov	 ecx, DWORD PTR _nDataEnd$[ebp]
  00053	85 c9		 test	 ecx, ecx
  00055	0f 88 c1 00 00
	00		 js	 $LN4@GetPrices

; 280  : 	if( pDataList->GetCount() <= nDataEnd) return false;

  0005b	3b d1		 cmp	 edx, ecx
  0005d	0f 8e b9 00 00
	00		 jle	 $LN4@GetPrices

; 281  : 
; 282  : 	POSITION pos = pDataList->FindIndex(nDataEnd);

  00063	51		 push	 ecx
  00064	8b c8		 mov	 ecx, eax
  00066	e8 00 00 00 00	 call	 ?FindIndex@?$CList@NN@@QBEPAU__POSITION@@H@Z ; CList<double,double>::FindIndex

; 283  : 	if(pos == NULL)

  0006b	85 c0		 test	 eax, eax
  0006d	0f 84 a9 00 00
	00		 je	 $LN4@GetPrices

; 70   : 	m_dCurPrice = dPrice;

  00073	8b 7d 10	 mov	 edi, DWORD PTR _prices$[ebp]
; File C:\Program Files (x86)\Microsoft Visual Studio\2019\Community\VC\Tools\MSVC\14.29.30133\atlmfc\include\afxtempl.h

; 825  : 		rPosition = (POSITION) pNode->pPrev;

  00076	8b 48 04	 mov	 ecx, DWORD PTR [eax+4]
; File D:\git\src\IBK\IBK_DRFN\ProjSrc\SrcChartEx\ChartOCX\GraphDraw\GraphDataDrawer.cpp

; 70   : 	m_dCurPrice = dPrice;

  00079	f2 0f 10 40 08	 movsd	 xmm0, QWORD PTR [eax+8]
  0007e	f2 0f 11 47 08	 movsd	 QWORD PTR [edi+8], xmm0

; 284  : 		return false;
; 285  : 
; 286  : 	prices.SetCur(pDataList->GetPrev(pos));
; 287  : 	if(pos == NULL)

  00083	85 c9		 test	 ecx, ecx
  00085	0f 84 91 00 00
	00		 je	 $LN4@GetPrices

; 65   : 	m_dPrevPrice = dPrice;

  0008b	f2 0f 10 41 08	 movsd	 xmm0, QWORD PTR [ecx+8]

; 288  : 		return false;
; 289  : 
; 290  : 	prices.SetPrev(pDataList->GetPrev(pos));
; 291  : 
; 292  : // vntsorl_20110609:[A00000259]     
; 293  : 	CRateDrawer::GetDecimalDownCountAndDataType(pPacket, prices);

  00090	8b cb		 mov	 ecx, ebx
  00092	57		 push	 edi
  00093	56		 push	 esi

; 65   : 	m_dPrevPrice = dPrice;

  00094	f2 0f 11 07	 movsd	 QWORD PTR [edi], xmm0

; 288  : 		return false;
; 289  : 
; 290  : 	prices.SetPrev(pDataList->GetPrev(pos));
; 291  : 
; 292  : // vntsorl_20110609:[A00000259]     
; 293  : 	CRateDrawer::GetDecimalDownCountAndDataType(pPacket, prices);

  00098	e8 00 00 00 00	 call	 ?GetDecimalDownCountAndDataType@CRateDrawer@@IBE_NPAVCPacket@@AAVCPrices@@@Z ; CRateDrawer::GetDecimalDownCountAndDataType

; 294  : 	prices.SetPacketType(pPacket->GetType());

  0009d	6a 01		 push	 1
  0009f	8d 45 08	 lea	 eax, DWORD PTR $T2[ebp]
  000a2	8b ce		 mov	 ecx, esi
  000a4	50		 push	 eax
  000a5	ff 15 00 00 00
	00		 call	 DWORD PTR __imp_?GetType@CPacket@@QAE?AV?$CStringT@DV?$StrTraitMFC_DLL@DV?$ChTraitsCRT@D@ATL@@@@@ATL@@_N@Z

; 91   : 	m_strPacketType = strPacketType;

  000ab	8d 77 24	 lea	 esi, DWORD PTR [edi+36]

; 294  : 	prices.SetPacketType(pPacket->GetType());

  000ae	c7 45 fc 00 00
	00 00		 mov	 DWORD PTR __$EHRec$[ebp+8], 0

; 91   : 	m_strPacketType = strPacketType;

  000b5	50		 push	 eax
  000b6	8b ce		 mov	 ecx, esi
  000b8	ff 15 00 00 00
	00		 call	 DWORD PTR __imp_??4?$CStringT@DV?$StrTraitMFC_DLL@DV?$ChTraitsCRT@D@ATL@@@@@ATL@@QAEAAV01@ABV01@@Z

; 294  : 	prices.SetPacketType(pPacket->GetType());

  000be	8d 4d 08	 lea	 ecx, DWORD PTR $T2[ebp]
  000c1	c7 45 fc ff ff
	ff ff		 mov	 DWORD PTR __$EHRec$[ebp+8], -1
  000c8	ff 15 00 00 00
	00		 call	 DWORD PTR __imp_??1?$CStringT@DV?$StrTraitMFC_DLL@DV?$ChTraitsCRT@D@ATL@@@@@ATL@@QAE@XZ

; 295  : 
; 296  : 	prices.SetPipSize(CDataConversion::GetDataType(prices.GetPacketType()));

  000ce	51		 push	 ecx
  000cf	8b cc		 mov	 ecx, esp

; 127  : 	return m_strPacketType;

  000d1	56		 push	 esi

; 295  : 
; 296  : 	prices.SetPipSize(CDataConversion::GetDataType(prices.GetPacketType()));

  000d2	89 4d 0c	 mov	 DWORD PTR ___$ReturnUdt$[ebp], ecx

; 127  : 	return m_strPacketType;

  000d5	ff 15 00 00 00
	00		 call	 DWORD PTR __imp_??0?$CStringT@DV?$StrTraitMFC_DLL@DV?$ChTraitsCRT@D@ATL@@@@@ATL@@QAE@ABV01@@Z

; 295  : 
; 296  : 	prices.SetPipSize(CDataConversion::GetDataType(prices.GetPacketType()));

  000db	e8 00 00 00 00	 call	 ?GetDataType@CDataConversion@@SANV?$CStringT@DV?$StrTraitMFC_DLL@DV?$ChTraitsCRT@D@ATL@@@@@ATL@@@Z ; CDataConversion::GetDataType
  000e0	dd 5d ec	 fstp	 QWORD PTR tv159[ebp]

; 81   : 	m_dPipSize = dPipSize;

  000e3	f2 0f 10 4d ec	 movsd	 xmm1, QWORD PTR tv159[ebp]
  000e8	0f 57 c0	 xorps	 xmm0, xmm0

; 295  : 
; 296  : 	prices.SetPipSize(CDataConversion::GetDataType(prices.GetPacketType()));

  000eb	83 c4 04	 add	 esp, 4

; 81   : 	m_dPipSize = dPipSize;

  000ee	f2 0f 11 4f 18	 movsd	 QWORD PTR [edi+24], xmm1

; 297  : 	if( prices.GetPipSize() <= 0) prices.SetPipSize(0.00001);

  000f3	66 0f 2f c1	 comisd	 xmm0, xmm1
  000f7	72 0d		 jb	 SHORT $LN9@GetPrices

; 81   : 	m_dPipSize = dPipSize;

  000f9	f2 0f 10 05 00
	00 00 00	 movsd	 xmm0, QWORD PTR __real@3ee4f8b588e368f1
  00101	f2 0f 11 47 18	 movsd	 QWORD PTR [edi+24], xmm0
$LN9@GetPrices:

; 298  : 
; 299  : 	return true;

  00106	b0 01		 mov	 al, 1

; 300  : }

  00108	8b 4d f4	 mov	 ecx, DWORD PTR __$EHRec$[ebp]
  0010b	64 89 0d 00 00
	00 00		 mov	 DWORD PTR fs:0, ecx
  00112	59		 pop	 ecx
  00113	5f		 pop	 edi
  00114	5e		 pop	 esi
  00115	5b		 pop	 ebx
  00116	8b e5		 mov	 esp, ebp
  00118	5d		 pop	 ebp
  00119	c2 0c 00	 ret	 12			; 0000000cH
$LN4@GetPrices:

; 277  : 		return false;

  0011c	32 c0		 xor	 al, al

; 300  : }

  0011e	8b 4d f4	 mov	 ecx, DWORD PTR __$EHRec$[ebp]
  00121	64 89 0d 00 00
	00 00		 mov	 DWORD PTR fs:0, ecx
  00128	59		 pop	 ecx
  00129	5f		 pop	 edi
  0012a	5e		 pop	 esi
  0012b	5b		 pop	 ebx
  0012c	8b e5		 mov	 esp, ebp
  0012e	5d		 pop	 ebp
  0012f	c2 0c 00	 ret	 12			; 0000000cH
_TEXT	ENDS
;	COMDAT text$x
text$x	SEGMENT
__unwindfunclet$?GetPrices@CRateDrawer@@IBE_NPAVCPacket@@HAAVCPrices@@@Z$0:
  00000	8d 4d 08	 lea	 ecx, DWORD PTR $T2[ebp]
  00003	ff 25 00 00 00
	00		 jmp	 DWORD PTR __imp_??1?$CStringT@DV?$StrTraitMFC_DLL@DV?$ChTraitsCRT@D@ATL@@@@@ATL@@QAE@XZ
  00009	cc		 int	 3
  0000a	cc		 int	 3
  0000b	cc		 int	 3
  0000c	cc		 int	 3
  0000d	cc		 int	 3
__ehhandler$?GetPrices@CRateDrawer@@IBE_NPAVCPacket@@HAAVCPrices@@@Z:
  0000e	90		 npad	 1
  0000f	90		 npad	 1
  00010	8b 54 24 08	 mov	 edx, DWORD PTR [esp+8]
  00014	8d 42 0c	 lea	 eax, DWORD PTR [edx+12]
  00017	8b 4a e8	 mov	 ecx, DWORD PTR [edx-24]
  0001a	33 c8		 xor	 ecx, eax
  0001c	e8 00 00 00 00	 call	 @__security_check_cookie@4
  00021	b8 00 00 00 00	 mov	 eax, OFFSET __ehfuncinfo$?GetPrices@CRateDrawer@@IBE_NPAVCPacket@@HAAVCPrices@@@Z
  00026	e9 00 00 00 00	 jmp	 ___CxxFrameHandler3
text$x	ENDS
?GetPrices@CRateDrawer@@IBE_NPAVCPacket@@HAAVCPrices@@@Z ENDP ; CRateDrawer::GetPrices
; Function compile flags: /Ogtp
; File D:\git\src\IBK\IBK_DRFN\ProjSrc\SrcChartEx\ChartOCX\GraphDraw\GraphDataDrawer.cpp
; File C:\Program Files (x86)\Microsoft Visual Studio\2019\Community\VC\Tools\MSVC\14.29.30133\atlmfc\include\cstringt.h
; File D:\git\src\IBK\IBK_DRFN\ProjSrc\SrcChartEx\ChartOCX\GraphDraw\GraphDataDrawer.cpp
; File C:\Program Files (x86)\Microsoft Visual Studio\2019\Community\VC\Tools\MSVC\14.29.30133\atlmfc\include\cstringt.h
; File C:\Program Files (x86)\Microsoft Visual Studio\2019\Community\VC\Tools\MSVC\14.29.30133\atlmfc\include\atlsimpstr.h
; File C:\Program Files (x86)\Microsoft Visual Studio\2019\Community\VC\Tools\MSVC\14.29.30133\atlmfc\include\cstringt.h
; File D:\git\src\IBK\IBK_DRFN\ProjSrc\SrcChartEx\ChartOCX\GraphDraw\GraphDataDrawer.cpp
;	COMDAT ?GetRateText@CRateDrawer@@IBE?AV?$CStringT@DV?$StrTraitMFC_DLL@DV?$ChTraitsCRT@D@ATL@@@@@ATL@@ABN0@Z
_TEXT	SEGMENT
_dDataRate$ = -24					; size = 8
$T2 = -16						; size = 4
__$EHRec$ = -12						; size = 12
___$ReturnUdt$ = 8					; size = 4
$T3 = 12						; size = 4
_dBaseData$ = 12					; size = 4
_dData$ = 16						; size = 4
?GetRateText@CRateDrawer@@IBE?AV?$CStringT@DV?$StrTraitMFC_DLL@DV?$ChTraitsCRT@D@ATL@@@@@ATL@@ABN0@Z PROC ; CRateDrawer::GetRateText, COMDAT
; _this$ = ecx

; 257  : {

  00000	55		 push	 ebp
  00001	8b ec		 mov	 ebp, esp
  00003	6a ff		 push	 -1
  00005	68 00 00 00 00	 push	 __ehhandler$?GetRateText@CRateDrawer@@IBE?AV?$CStringT@DV?$StrTraitMFC_DLL@DV?$ChTraitsCRT@D@ATL@@@@@ATL@@ABN0@Z
  0000a	64 a1 00 00 00
	00		 mov	 eax, DWORD PTR fs:0
  00010	50		 push	 eax
  00011	83 ec 0c	 sub	 esp, 12			; 0000000cH
  00014	56		 push	 esi
  00015	57		 push	 edi
  00016	a1 00 00 00 00	 mov	 eax, DWORD PTR ___security_cookie
  0001b	33 c5		 xor	 eax, ebp
  0001d	50		 push	 eax
  0001e	8d 45 f4	 lea	 eax, DWORD PTR __$EHRec$[ebp]
  00021	64 a3 00 00 00
	00		 mov	 DWORD PTR fs:0, eax
  00027	c7 45 f0 00 00
	00 00		 mov	 DWORD PTR $T2[ebp], 0
  0002e	0f 57 c0	 xorps	 xmm0, xmm0

; 258  : 	double dDataRate = 0.0;
; 259  : 	if(dBaseData != 0.0)

  00031	8b 45 0c	 mov	 eax, DWORD PTR _dBaseData$[ebp]
  00034	f2 0f 11 45 e8	 movsd	 QWORD PTR _dDataRate$[ebp], xmm0
  00039	f2 0f 10 08	 movsd	 xmm1, QWORD PTR [eax]
  0003d	66 0f 2e c8	 ucomisd xmm1, xmm0
  00041	9f		 lahf
  00042	f6 c4 44	 test	 ah, 68			; 00000044H
  00045	7b 18		 jnp	 SHORT $LN2@GetRateTex

; 260  : 		dDataRate = dData / dBaseData * 100.0;

  00047	8b 45 10	 mov	 eax, DWORD PTR _dData$[ebp]
  0004a	f2 0f 10 00	 movsd	 xmm0, QWORD PTR [eax]
  0004e	f2 0f 5e c1	 divsd	 xmm0, xmm1
  00052	f2 0f 59 05 00
	00 00 00	 mulsd	 xmm0, QWORD PTR __real@4059000000000000
  0005a	f2 0f 11 45 e8	 movsd	 QWORD PTR _dDataRate$[ebp], xmm0
$LN2@GetRateTex:

; 262  : 	return CDataConversion::DoubleToString(dDataRate, 2) + "%";

  0005f	6a 02		 push	 2
  00061	8d 45 e8	 lea	 eax, DWORD PTR _dDataRate$[ebp]
  00064	50		 push	 eax
  00065	8d 45 0c	 lea	 eax, DWORD PTR $T3[ebp]
  00068	50		 push	 eax
  00069	e8 00 00 00 00	 call	 ?DoubleToString@CDataConversion@@SA?AV?$CStringT@DV?$StrTraitMFC_DLL@DV?$ChTraitsCRT@D@ATL@@@@@ATL@@ABNH@Z ; CDataConversion::DoubleToString
  0006e	83 c4 0c	 add	 esp, 12			; 0000000cH
  00071	8b f0		 mov	 esi, eax
; File C:\Program Files (x86)\Microsoft Visual Studio\2019\Community\VC\Tools\MSVC\14.29.30133\atlmfc\include\cstringt.h

; 2401 : 		CStringT strResult( str1.GetManager() );

  00073	8b ce		 mov	 ecx, esi
; File D:\git\src\IBK\IBK_DRFN\ProjSrc\SrcChartEx\ChartOCX\GraphDraw\GraphDataDrawer.cpp

; 262  : 	return CDataConversion::DoubleToString(dDataRate, 2) + "%";

  00075	c7 45 fc 01 00
	00 00		 mov	 DWORD PTR __$EHRec$[ebp+8], 1
; File C:\Program Files (x86)\Microsoft Visual Studio\2019\Community\VC\Tools\MSVC\14.29.30133\atlmfc\include\cstringt.h

; 2401 : 		CStringT strResult( str1.GetManager() );

  0007c	ff 15 00 00 00
	00		 call	 DWORD PTR __imp_?GetManager@?$CStringT@DV?$StrTraitMFC_DLL@DV?$ChTraitsCRT@D@ATL@@@@@ATL@@QBEPAUIAtlStringMgr@2@XZ
  00082	8b 7d 08	 mov	 edi, DWORD PTR ___$ReturnUdt$[ebp]
  00085	8b cf		 mov	 ecx, edi
  00087	50		 push	 eax
  00088	ff 15 00 00 00
	00		 call	 DWORD PTR __imp_??0?$CStringT@DV?$StrTraitMFC_DLL@DV?$ChTraitsCRT@D@ATL@@@@@ATL@@QAE@PAUIAtlStringMgr@1@@Z
; File C:\Program Files (x86)\Microsoft Visual Studio\2019\Community\VC\Tools\MSVC\14.29.30133\atlmfc\include\atlsimpstr.h

; 519  : 		return( GetData()->nDataLength );

  0008e	8b 0e		 mov	 ecx, DWORD PTR [esi]
; File C:\Program Files (x86)\Microsoft Visual Studio\2019\Community\VC\Tools\MSVC\14.29.30133\atlmfc\include\cstringt.h

; 2403 : 		CThisSimpleString::Concatenate( strResult, str1, str1.GetLength(), psz2, CThisSimpleString::StringLength( psz2 ) );

  00090	6a 01		 push	 1
  00092	68 00 00 00 00	 push	 OFFSET ??_C@_01FGNFDNOH@?$CF@

; 2404 : 
; 2405 : 		return( strResult );

  00097	c7 45 f0 02 00
	00 00		 mov	 DWORD PTR $T2[ebp], 2
  0009e	ff 71 f4	 push	 DWORD PTR [ecx-12]
  000a1	51		 push	 ecx
  000a2	57		 push	 edi
  000a3	ff 15 00 00 00
	00		 call	 DWORD PTR __imp_?Concatenate@?$CSimpleStringT@D$00@ATL@@KAXAAV12@PBDH1H@Z
  000a9	83 c4 14	 add	 esp, 20			; 00000014H
; File D:\git\src\IBK\IBK_DRFN\ProjSrc\SrcChartEx\ChartOCX\GraphDraw\GraphDataDrawer.cpp

; 262  : 	return CDataConversion::DoubleToString(dDataRate, 2) + "%";

  000ac	8d 4d 0c	 lea	 ecx, DWORD PTR $T3[ebp]
  000af	ff 15 00 00 00
	00		 call	 DWORD PTR __imp_??1?$CStringT@DV?$StrTraitMFC_DLL@DV?$ChTraitsCRT@D@ATL@@@@@ATL@@QAE@XZ
  000b5	8b c7		 mov	 eax, edi

; 263  : }

  000b7	8b 4d f4	 mov	 ecx, DWORD PTR __$EHRec$[ebp]
  000ba	64 89 0d 00 00
	00 00		 mov	 DWORD PTR fs:0, ecx
  000c1	59		 pop	 ecx
  000c2	5f		 pop	 edi
  000c3	5e		 pop	 esi
  000c4	8b e5		 mov	 esp, ebp
  000c6	5d		 pop	 ebp
  000c7	c2 0c 00	 ret	 12			; 0000000cH
_TEXT	ENDS
;	COMDAT text$x
text$x	SEGMENT
__unwindfunclet$?GetRateText@CRateDrawer@@IBE?AV?$CStringT@DV?$StrTraitMFC_DLL@DV?$ChTraitsCRT@D@ATL@@@@@ATL@@ABN0@Z$0:
  00000	8d 4d 0c	 lea	 ecx, DWORD PTR $T3[ebp]
  00003	ff 25 00 00 00
	00		 jmp	 DWORD PTR __imp_??1?$CStringT@DV?$StrTraitMFC_DLL@DV?$ChTraitsCRT@D@ATL@@@@@ATL@@QAE@XZ
__unwindfunclet$?GetRateText@CRateDrawer@@IBE?AV?$CStringT@DV?$StrTraitMFC_DLL@DV?$ChTraitsCRT@D@ATL@@@@@ATL@@ABN0@Z$2:
  00009	8b 45 f0	 mov	 eax, DWORD PTR $T2[ebp]
  0000c	83 e0 02	 and	 eax, 2
  0000f	0f 84 0d 00 00
	00		 je	 $LN10@GetRateTex
  00015	83 65 f0 fd	 and	 DWORD PTR $T2[ebp], -3	; fffffffdH
  00019	8b 4d 08	 mov	 ecx, DWORD PTR ___$ReturnUdt$[ebp]
  0001c	ff 25 00 00 00
	00		 jmp	 DWORD PTR __imp_??1?$CStringT@DV?$StrTraitMFC_DLL@DV?$ChTraitsCRT@D@ATL@@@@@ATL@@QAE@XZ
$LN10@GetRateTex:
  00022	c3		 ret	 0
  00023	cc		 int	 3
  00024	cc		 int	 3
  00025	cc		 int	 3
  00026	cc		 int	 3
  00027	cc		 int	 3
__ehhandler$?GetRateText@CRateDrawer@@IBE?AV?$CStringT@DV?$StrTraitMFC_DLL@DV?$ChTraitsCRT@D@ATL@@@@@ATL@@ABN0@Z:
  00028	90		 npad	 1
  00029	90		 npad	 1
  0002a	8b 54 24 08	 mov	 edx, DWORD PTR [esp+8]
  0002e	8d 42 0c	 lea	 eax, DWORD PTR [edx+12]
  00031	8b 4a e8	 mov	 ecx, DWORD PTR [edx-24]
  00034	33 c8		 xor	 ecx, eax
  00036	e8 00 00 00 00	 call	 @__security_check_cookie@4
  0003b	b8 00 00 00 00	 mov	 eax, OFFSET __ehfuncinfo$?GetRateText@CRateDrawer@@IBE?AV?$CStringT@DV?$StrTraitMFC_DLL@DV?$ChTraitsCRT@D@ATL@@@@@ATL@@ABN0@Z
  00040	e9 00 00 00 00	 jmp	 ___CxxFrameHandler3
text$x	ENDS
?GetRateText@CRateDrawer@@IBE?AV?$CStringT@DV?$StrTraitMFC_DLL@DV?$ChTraitsCRT@D@ATL@@@@@ATL@@ABN0@Z ENDP ; CRateDrawer::GetRateText
; Function compile flags: /Ogtp
; File D:\git\src\IBK\IBK_DRFN\ProjSrc\SrcChartEx\ChartOCX\GraphDraw\GraphDataDrawer.cpp
; File C:\Program Files (x86)\Microsoft Visual Studio\2019\Community\VC\Tools\MSVC\14.29.30133\atlmfc\include\afxwin1.inl
; File D:\git\src\IBK\IBK_DRFN\ProjSrc\SrcChartEx\ChartOCX\GraphDraw\GraphDataDrawer.cpp
; File C:\Program Files (x86)\Microsoft Visual Studio\2019\Community\VC\Tools\MSVC\14.29.30133\atlmfc\include\afxwin1.inl
; File D:\git\src\IBK\IBK_DRFN\ProjSrc\SrcChartEx\ChartOCX\GraphDraw\GraphDataDrawer.cpp
; File C:\Program Files (x86)\Microsoft Visual Studio\2019\Community\VC\Tools\MSVC\14.29.30133\atlmfc\include\afxwin1.inl
; File D:\git\src\IBK\IBK_DRFN\ProjSrc\SrcChartEx\ChartOCX\GraphDraw\GraphDataDrawer.cpp
;	COMDAT ?DrawRegion@CRateDrawer@@IAEXPAVCDC@@ABVCRect@@ABK2@Z
_TEXT	SEGMENT
_newBrush$ = -28					; size = 8
_newPen$ = -20						; size = 8
__$EHRec$ = -12						; size = 12
_pDC$ = 8						; size = 4
_region$ = 12						; size = 4
_penColor$ = 16						; size = 4
_brushColor$ = 20					; size = 4
?DrawRegion@CRateDrawer@@IAEXPAVCDC@@ABVCRect@@ABK2@Z PROC ; CRateDrawer::DrawRegion, COMDAT
; _this$ = ecx

; 241  : {

  00000	55		 push	 ebp
  00001	8b ec		 mov	 ebp, esp
  00003	6a ff		 push	 -1
  00005	68 00 00 00 00	 push	 __ehhandler$?DrawRegion@CRateDrawer@@IAEXPAVCDC@@ABVCRect@@ABK2@Z
  0000a	64 a1 00 00 00
	00		 mov	 eax, DWORD PTR fs:0
  00010	50		 push	 eax
  00011	83 ec 10	 sub	 esp, 16			; 00000010H
  00014	53		 push	 ebx
  00015	56		 push	 esi
  00016	57		 push	 edi
  00017	a1 00 00 00 00	 mov	 eax, DWORD PTR ___security_cookie
  0001c	33 c5		 xor	 eax, ebp
  0001e	50		 push	 eax
  0001f	8d 45 f4	 lea	 eax, DWORD PTR __$EHRec$[ebp]
  00022	64 a3 00 00 00
	00		 mov	 DWORD PTR fs:0, eax

; 242  : 	CBrush newBrush(brushColor);

  00028	8b 45 14	 mov	 eax, DWORD PTR _brushColor$[ebp]
  0002b	8d 4d e4	 lea	 ecx, DWORD PTR _newBrush$[ebp]
  0002e	ff 30		 push	 DWORD PTR [eax]
  00030	e8 00 00 00 00	 call	 ??0CBrush@@QAE@K@Z	; CBrush::CBrush

; 243  : 	CBrush* pOldBrush = pDC->SelectObject(&newBrush);

  00035	8b 5d 08	 mov	 ebx, DWORD PTR _pDC$[ebp]
  00038	8d 45 e4	 lea	 eax, DWORD PTR _newBrush$[ebp]
  0003b	50		 push	 eax
  0003c	8b cb		 mov	 ecx, ebx
  0003e	c7 45 fc 00 00
	00 00		 mov	 DWORD PTR __$EHRec$[ebp+8], 0
  00045	e8 00 00 00 00	 call	 ?SelectObject@CDC@@QAEPAVCBrush@@PAV2@@Z ; CDC::SelectObject

; 244  : 	CPen newPen(PS_INSIDEFRAME, 1, penColor);

  0004a	8b 4d 10	 mov	 ecx, DWORD PTR _penColor$[ebp]
  0004d	8b f8		 mov	 edi, eax
  0004f	ff 31		 push	 DWORD PTR [ecx]
  00051	8d 4d ec	 lea	 ecx, DWORD PTR _newPen$[ebp]
  00054	6a 01		 push	 1
  00056	6a 06		 push	 6
  00058	e8 00 00 00 00	 call	 ??0CPen@@QAE@HHK@Z	; CPen::CPen

; 245  : 	CPen* pOldPen = pDC->SelectObject(&newPen);

  0005d	8d 45 ec	 lea	 eax, DWORD PTR _newPen$[ebp]
  00060	c6 45 fc 01	 mov	 BYTE PTR __$EHRec$[ebp+8], 1
  00064	50		 push	 eax
  00065	8b cb		 mov	 ecx, ebx
  00067	e8 00 00 00 00	 call	 ?SelectObject@CDC@@QAEPAVCPen@@PAV2@@Z ; CDC::SelectObject
; File C:\Program Files (x86)\Microsoft Visual Studio\2019\Community\VC\Tools\MSVC\14.29.30133\atlmfc\include\afxwin1.inl

; 541  : 	{ ASSERT(m_hDC != NULL); return ::Rectangle(m_hDC, lpRect->left, lpRect->top,

  0006c	8b 55 0c	 mov	 edx, DWORD PTR _region$[ebp]
; File D:\git\src\IBK\IBK_DRFN\ProjSrc\SrcChartEx\ChartOCX\GraphDraw\GraphDataDrawer.cpp

; 245  : 	CPen* pOldPen = pDC->SelectObject(&newPen);

  0006f	8b f0		 mov	 esi, eax
; File C:\Program Files (x86)\Microsoft Visual Studio\2019\Community\VC\Tools\MSVC\14.29.30133\atlmfc\include\afxwin1.inl

; 541  : 	{ ASSERT(m_hDC != NULL); return ::Rectangle(m_hDC, lpRect->left, lpRect->top,

  00071	ff 72 0c	 push	 DWORD PTR [edx+12]
  00074	ff 72 08	 push	 DWORD PTR [edx+8]
  00077	ff 72 04	 push	 DWORD PTR [edx+4]
  0007a	ff 32		 push	 DWORD PTR [edx]
  0007c	ff 73 04	 push	 DWORD PTR [ebx+4]
  0007f	ff 15 00 00 00
	00		 call	 DWORD PTR __imp__Rectangle@20
; File D:\git\src\IBK\IBK_DRFN\ProjSrc\SrcChartEx\ChartOCX\GraphDraw\GraphDataDrawer.cpp

; 249  : 	pDC->SelectObject(pOldBrush);

  00085	57		 push	 edi
  00086	8b cb		 mov	 ecx, ebx
  00088	e8 00 00 00 00	 call	 ?SelectObject@CDC@@QAEPAVCBrush@@PAV2@@Z ; CDC::SelectObject

; 250  : 	pDC->SelectObject(pOldPen);

  0008d	56		 push	 esi
  0008e	8b cb		 mov	 ecx, ebx
  00090	e8 00 00 00 00	 call	 ?SelectObject@CDC@@QAEPAVCPen@@PAV2@@Z ; CDC::SelectObject

; 251  : 	newBrush.DeleteObject();

  00095	8d 4d e4	 lea	 ecx, DWORD PTR _newBrush$[ebp]
  00098	e8 00 00 00 00	 call	 ?DeleteObject@CGdiObject@@QAEHXZ ; CGdiObject::DeleteObject

; 252  : 	newPen.DeleteObject();

  0009d	8d 4d ec	 lea	 ecx, DWORD PTR _newPen$[ebp]
  000a0	e8 00 00 00 00	 call	 ?DeleteObject@CGdiObject@@QAEHXZ ; CGdiObject::DeleteObject
; File C:\Program Files (x86)\Microsoft Visual Studio\2019\Community\VC\Tools\MSVC\14.29.30133\atlmfc\include\afxwin1.inl

; 106  : 	{ }

  000a5	8d 4d ec	 lea	 ecx, DWORD PTR _newPen$[ebp]
  000a8	c7 45 ec 00 00
	00 00		 mov	 DWORD PTR _newPen$[ebp], OFFSET ??_7CPen@@6B@
  000af	e8 00 00 00 00	 call	 ??1CGdiObject@@UAE@XZ	; CGdiObject::~CGdiObject

; 130  : 	{ }

  000b4	8d 4d e4	 lea	 ecx, DWORD PTR _newBrush$[ebp]
  000b7	c7 45 e4 00 00
	00 00		 mov	 DWORD PTR _newBrush$[ebp], OFFSET ??_7CBrush@@6B@
  000be	e8 00 00 00 00	 call	 ??1CGdiObject@@UAE@XZ	; CGdiObject::~CGdiObject
; File D:\git\src\IBK\IBK_DRFN\ProjSrc\SrcChartEx\ChartOCX\GraphDraw\GraphDataDrawer.cpp

; 253  : }

  000c3	8b 4d f4	 mov	 ecx, DWORD PTR __$EHRec$[ebp]
  000c6	64 89 0d 00 00
	00 00		 mov	 DWORD PTR fs:0, ecx
  000cd	59		 pop	 ecx
  000ce	5f		 pop	 edi
  000cf	5e		 pop	 esi
  000d0	5b		 pop	 ebx
  000d1	8b e5		 mov	 esp, ebp
  000d3	5d		 pop	 ebp
  000d4	c2 10 00	 ret	 16			; 00000010H
_TEXT	ENDS
;	COMDAT text$x
text$x	SEGMENT
__unwindfunclet$?DrawRegion@CRateDrawer@@IAEXPAVCDC@@ABVCRect@@ABK2@Z$0:
  00000	8d 4d e4	 lea	 ecx, DWORD PTR _newBrush$[ebp]
  00003	e9 00 00 00 00	 jmp	 ??1CBrush@@UAE@XZ	; CBrush::~CBrush
__unwindfunclet$?DrawRegion@CRateDrawer@@IAEXPAVCDC@@ABVCRect@@ABK2@Z$1:
  00008	8d 4d ec	 lea	 ecx, DWORD PTR _newPen$[ebp]
  0000b	e9 00 00 00 00	 jmp	 ??1CPen@@UAE@XZ		; CPen::~CPen
  00010	cc		 int	 3
  00011	cc		 int	 3
  00012	cc		 int	 3
  00013	cc		 int	 3
  00014	cc		 int	 3
__ehhandler$?DrawRegion@CRateDrawer@@IAEXPAVCDC@@ABVCRect@@ABK2@Z:
  00015	90		 npad	 1
  00016	90		 npad	 1
  00017	8b 54 24 08	 mov	 edx, DWORD PTR [esp+8]
  0001b	8d 42 0c	 lea	 eax, DWORD PTR [edx+12]
  0001e	8b 4a e0	 mov	 ecx, DWORD PTR [edx-32]
  00021	33 c8		 xor	 ecx, eax
  00023	e8 00 00 00 00	 call	 @__security_check_cookie@4
  00028	b8 00 00 00 00	 mov	 eax, OFFSET __ehfuncinfo$?DrawRegion@CRateDrawer@@IAEXPAVCDC@@ABVCRect@@ABK2@Z
  0002d	e9 00 00 00 00	 jmp	 ___CxxFrameHandler3
text$x	ENDS
?DrawRegion@CRateDrawer@@IAEXPAVCDC@@ABVCRect@@ABK2@Z ENDP ; CRateDrawer::DrawRegion
; Function compile flags: /Ogtp
; File D:\git\src\IBK\IBK_DRFN\ProjSrc\SrcChartEx\ChartOCX\GraphDraw\GraphDataDrawer.cpp
; File C:\Program Files (x86)\Microsoft Visual Studio\2019\Community\VC\Tools\MSVC\14.29.30133\atlmfc\include\atlsimpstr.h
; File D:\git\src\IBK\IBK_DRFN\ProjSrc\SrcChartEx\ChartOCX\GraphDraw\GraphDataDrawer.cpp
; File C:\Program Files (x86)\Microsoft Visual Studio\2019\Community\VC\Tools\MSVC\14.29.30133\atlmfc\include\afxwin1.inl
; File C:\Program Files (x86)\Microsoft Visual Studio\2019\Community\VC\Tools\MSVC\14.29.30133\atlmfc\include\atlsimpstr.h
; File C:\Program Files (x86)\Microsoft Visual Studio\2019\Community\VC\Tools\MSVC\14.29.30133\atlmfc\include\afxwin1.inl
; File C:\Program Files (x86)\Microsoft Visual Studio\2019\Community\VC\Tools\MSVC\14.29.30133\atlmfc\include\atlsimpstr.h
; File D:\git\src\IBK\IBK_DRFN\ProjSrc\SrcChartEx\ChartOCX\GraphDraw\GraphDataDrawer.cpp
; File C:\Program Files (x86)\Microsoft Visual Studio\2019\Community\VC\Tools\MSVC\14.29.30133\atlmfc\include\afxwin1.inl
; File D:\git\src\IBK\IBK_DRFN\ProjSrc\SrcChartEx\ChartOCX\GraphDraw\GraphDataDrawer.cpp
; File C:\Program Files (x86)\Microsoft Visual Studio\2019\Community\VC\Tools\MSVC\14.29.30133\atlmfc\include\afxwin1.inl
; File D:\git\src\IBK\IBK_DRFN\ProjSrc\SrcChartEx\ChartOCX\GraphDraw\GraphDataDrawer.cpp
; File C:\Program Files (x86)\Microsoft Visual Studio\2019\Community\VC\Tools\MSVC\14.29.30133\atlmfc\include\afxwin1.inl
; File D:\git\src\IBK\IBK_DRFN\ProjSrc\SrcChartEx\ChartOCX\GraphDraw\GraphDataDrawer.cpp
; File C:\Program Files (x86)\Microsoft Visual Studio\2019\Community\VC\Tools\MSVC\14.29.30133\atlmfc\include\afxwin1.inl
; File D:\git\src\IBK\IBK_DRFN\ProjSrc\SrcChartEx\ChartOCX\GraphDraw\GraphDataDrawer.cpp
;	COMDAT ?DrawTextOut@CRateDrawer@@IAEXPAVCDC@@ABKABVCPoint@@ABV?$CStringT@DV?$StrTraitMFC_DLL@DV?$ChTraitsCRT@D@ATL@@@@@ATL@@AAH@Z
_TEXT	SEGMENT
_size$1 = -8						; size = 8
_pDC$ = 8						; size = 4
_textColor$ = 12					; size = 4
_point$ = 16						; size = 4
_strData$ = 20						; size = 4
_nPosition_Y$ = 24					; size = 4
?DrawTextOut@CRateDrawer@@IAEXPAVCDC@@ABKABVCPoint@@ABV?$CStringT@DV?$StrTraitMFC_DLL@DV?$ChTraitsCRT@D@ATL@@@@@ATL@@AAH@Z PROC ; CRateDrawer::DrawTextOut, COMDAT
; _this$ = ecx

; 231  : {

  00000	55		 push	 ebp
  00001	8b ec		 mov	 ebp, esp
  00003	83 ec 08	 sub	 esp, 8

; 232  : 	COLORREF orgTextColor = pDC->SetTextColor(textColor);

  00006	8b 45 0c	 mov	 eax, DWORD PTR _textColor$[ebp]
  00009	53		 push	 ebx
  0000a	8b 5d 08	 mov	 ebx, DWORD PTR _pDC$[ebp]
  0000d	8b cb		 mov	 ecx, ebx
  0000f	56		 push	 esi
  00010	57		 push	 edi
  00011	ff 30		 push	 DWORD PTR [eax]
  00013	8b 13		 mov	 edx, DWORD PTR [ebx]
  00015	ff 52 38	 call	 DWORD PTR [edx+56]
; File C:\Program Files (x86)\Microsoft Visual Studio\2019\Community\VC\Tools\MSVC\14.29.30133\atlmfc\include\atlsimpstr.h

; 519  : 		return( GetData()->nDataLength );

  00018	8b 75 14	 mov	 esi, DWORD PTR _strData$[ebp]
; File D:\git\src\IBK\IBK_DRFN\ProjSrc\SrcChartEx\ChartOCX\GraphDraw\GraphDataDrawer.cpp

; 232  : 	COLORREF orgTextColor = pDC->SetTextColor(textColor);

  0001b	8b f8		 mov	 edi, eax
; File C:\Program Files (x86)\Microsoft Visual Studio\2019\Community\VC\Tools\MSVC\14.29.30133\atlmfc\include\afxwin1.inl

; 639  : 		VERIFY(::GetTextExtentPoint32(m_hAttribDC, str, (int)str.GetLength(), &size));

  0001d	8d 45 f8	 lea	 eax, DWORD PTR _size$1[ebp]
  00020	50		 push	 eax
; File C:\Program Files (x86)\Microsoft Visual Studio\2019\Community\VC\Tools\MSVC\14.29.30133\atlmfc\include\atlsimpstr.h

; 519  : 		return( GetData()->nDataLength );

  00021	8b 0e		 mov	 ecx, DWORD PTR [esi]
; File C:\Program Files (x86)\Microsoft Visual Studio\2019\Community\VC\Tools\MSVC\14.29.30133\atlmfc\include\afxwin1.inl

; 639  : 		VERIFY(::GetTextExtentPoint32(m_hAttribDC, str, (int)str.GetLength(), &size));

  00023	ff 71 f4	 push	 DWORD PTR [ecx-12]
  00026	51		 push	 ecx
  00027	ff 73 08	 push	 DWORD PTR [ebx+8]
  0002a	ff 15 00 00 00
	00		 call	 DWORD PTR __imp__GetTextExtentPoint32A@16
; File C:\Program Files (x86)\Microsoft Visual Studio\2019\Community\VC\Tools\MSVC\14.29.30133\atlmfc\include\atlsimpstr.h

; 519  : 		return( GetData()->nDataLength );

  00030	8b 06		 mov	 eax, DWORD PTR [esi]
; File D:\git\src\IBK\IBK_DRFN\ProjSrc\SrcChartEx\ChartOCX\GraphDraw\GraphDataDrawer.cpp

; 225  : 	pDC->TextOut(point.x - size.cx, point.y + nPosition_Y, strData);

  00032	8b 4d 10	 mov	 ecx, DWORD PTR _point$[ebp]
  00035	8b 75 18	 mov	 esi, DWORD PTR _nPosition_Y$[ebp]
; File C:\Program Files (x86)\Microsoft Visual Studio\2019\Community\VC\Tools\MSVC\14.29.30133\atlmfc\include\afxwin1.inl

; 574  : 	{ ASSERT(m_hDC != NULL); return TextOut(x, y, (LPCTSTR)str, (int)str.GetLength()); } // call virtual

  00038	8b 13		 mov	 edx, DWORD PTR [ebx]
  0003a	ff 70 f4	 push	 DWORD PTR [eax-12]
  0003d	50		 push	 eax
; File D:\git\src\IBK\IBK_DRFN\ProjSrc\SrcChartEx\ChartOCX\GraphDraw\GraphDataDrawer.cpp

; 225  : 	pDC->TextOut(point.x - size.cx, point.y + nPosition_Y, strData);

  0003e	8b 41 04	 mov	 eax, DWORD PTR [ecx+4]
  00041	03 06		 add	 eax, DWORD PTR [esi]
; File C:\Program Files (x86)\Microsoft Visual Studio\2019\Community\VC\Tools\MSVC\14.29.30133\atlmfc\include\afxwin1.inl

; 574  : 	{ ASSERT(m_hDC != NULL); return TextOut(x, y, (LPCTSTR)str, (int)str.GetLength()); } // call virtual

  00043	50		 push	 eax
; File D:\git\src\IBK\IBK_DRFN\ProjSrc\SrcChartEx\ChartOCX\GraphDraw\GraphDataDrawer.cpp

; 225  : 	pDC->TextOut(point.x - size.cx, point.y + nPosition_Y, strData);

  00044	8b 01		 mov	 eax, DWORD PTR [ecx]
; File C:\Program Files (x86)\Microsoft Visual Studio\2019\Community\VC\Tools\MSVC\14.29.30133\atlmfc\include\afxwin1.inl

; 574  : 	{ ASSERT(m_hDC != NULL); return TextOut(x, y, (LPCTSTR)str, (int)str.GetLength()); } // call virtual

  00046	8b cb		 mov	 ecx, ebx
; File D:\git\src\IBK\IBK_DRFN\ProjSrc\SrcChartEx\ChartOCX\GraphDraw\GraphDataDrawer.cpp

; 225  : 	pDC->TextOut(point.x - size.cx, point.y + nPosition_Y, strData);

  00048	2b 45 f8	 sub	 eax, DWORD PTR _size$1[ebp]
; File C:\Program Files (x86)\Microsoft Visual Studio\2019\Community\VC\Tools\MSVC\14.29.30133\atlmfc\include\afxwin1.inl

; 574  : 	{ ASSERT(m_hDC != NULL); return TextOut(x, y, (LPCTSTR)str, (int)str.GetLength()); } // call virtual

  0004b	50		 push	 eax
  0004c	ff 52 64	 call	 DWORD PTR [edx+100]
; File D:\git\src\IBK\IBK_DRFN\ProjSrc\SrcChartEx\ChartOCX\GraphDraw\GraphDataDrawer.cpp

; 227  : 	nPosition_Y += size.cy;

  0004f	8b 45 fc	 mov	 eax, DWORD PTR _size$1[ebp+4]

; 233  : 
; 234  : 	DrawTextOut(pDC, point, strData, nPosition_Y);
; 235  : 
; 236  : 	pDC->SetTextColor(orgTextColor);

  00052	8b cb		 mov	 ecx, ebx

; 227  : 	nPosition_Y += size.cy;

  00054	01 06		 add	 DWORD PTR [esi], eax

; 233  : 
; 234  : 	DrawTextOut(pDC, point, strData, nPosition_Y);
; 235  : 
; 236  : 	pDC->SetTextColor(orgTextColor);

  00056	8b 03		 mov	 eax, DWORD PTR [ebx]
  00058	57		 push	 edi
  00059	ff 50 38	 call	 DWORD PTR [eax+56]
  0005c	5f		 pop	 edi
  0005d	5e		 pop	 esi
  0005e	5b		 pop	 ebx

; 237  : }

  0005f	8b e5		 mov	 esp, ebp
  00061	5d		 pop	 ebp
  00062	c2 14 00	 ret	 20			; 00000014H
?DrawTextOut@CRateDrawer@@IAEXPAVCDC@@ABKABVCPoint@@ABV?$CStringT@DV?$StrTraitMFC_DLL@DV?$ChTraitsCRT@D@ATL@@@@@ATL@@AAH@Z ENDP ; CRateDrawer::DrawTextOut
_TEXT	ENDS
; Function compile flags: /Ogtp
; File D:\git\src\IBK\IBK_DRFN\ProjSrc\SrcChartEx\ChartOCX\GraphDraw\GraphDataDrawer.cpp
; File C:\Program Files (x86)\Microsoft Visual Studio\2019\Community\VC\Tools\MSVC\14.29.30133\atlmfc\include\afxwin1.inl
; File D:\git\src\IBK\IBK_DRFN\ProjSrc\SrcChartEx\ChartOCX\GraphDraw\GraphDataDrawer.cpp
; File C:\Program Files (x86)\Microsoft Visual Studio\2019\Community\VC\Tools\MSVC\14.29.30133\atlmfc\include\atlsimpstr.h
; File D:\git\src\IBK\IBK_DRFN\ProjSrc\SrcChartEx\ChartOCX\GraphDraw\GraphDataDrawer.cpp
; File C:\Program Files (x86)\Microsoft Visual Studio\2019\Community\VC\Tools\MSVC\14.29.30133\atlmfc\include\afxwin1.inl
; File C:\Program Files (x86)\Microsoft Visual Studio\2019\Community\VC\Tools\MSVC\14.29.30133\atlmfc\include\atlsimpstr.h
; File C:\Program Files (x86)\Microsoft Visual Studio\2019\Community\VC\Tools\MSVC\14.29.30133\atlmfc\include\afxwin1.inl
; File C:\Program Files (x86)\Microsoft Visual Studio\2019\Community\VC\Tools\MSVC\14.29.30133\atlmfc\include\atlsimpstr.h
; File C:\Program Files (x86)\Microsoft Visual Studio\2019\Community\VC\Tools\MSVC\14.29.30133\atlmfc\include\afxwin1.inl
; File D:\git\src\IBK\IBK_DRFN\ProjSrc\SrcChartEx\ChartOCX\GraphDraw\GraphDataDrawer.cpp
; File C:\Program Files (x86)\Microsoft Visual Studio\2019\Community\VC\Tools\MSVC\14.29.30133\atlmfc\include\afxwin1.inl
; File D:\git\src\IBK\IBK_DRFN\ProjSrc\SrcChartEx\ChartOCX\GraphDraw\GraphDataDrawer.cpp
; File C:\Program Files (x86)\Microsoft Visual Studio\2019\Community\VC\Tools\MSVC\14.29.30133\atlmfc\include\afxwin1.inl
; File D:\git\src\IBK\IBK_DRFN\ProjSrc\SrcChartEx\ChartOCX\GraphDraw\GraphDataDrawer.cpp
; File C:\Program Files (x86)\Microsoft Visual Studio\2019\Community\VC\Tools\MSVC\14.29.30133\atlmfc\include\afxwin1.inl
; File D:\git\src\IBK\IBK_DRFN\ProjSrc\SrcChartEx\ChartOCX\GraphDraw\GraphDataDrawer.cpp
;	COMDAT ?DrawTextOut@CRateDrawer@@IAEXPAVCDC@@ABVCPoint@@ABV?$CStringT@DV?$StrTraitMFC_DLL@DV?$ChTraitsCRT@D@ATL@@@@@ATL@@AAH@Z
_TEXT	SEGMENT
_size$1 = -8						; size = 8
_pDC$ = 8						; size = 4
_point$ = 12						; size = 4
_strData$ = 16						; size = 4
_nPosition_Y$ = 20					; size = 4
?DrawTextOut@CRateDrawer@@IAEXPAVCDC@@ABVCPoint@@ABV?$CStringT@DV?$StrTraitMFC_DLL@DV?$ChTraitsCRT@D@ATL@@@@@ATL@@AAH@Z PROC ; CRateDrawer::DrawTextOut, COMDAT
; _this$ = ecx

; 223  : {

  00000	55		 push	 ebp
  00001	8b ec		 mov	 ebp, esp
  00003	83 ec 08	 sub	 esp, 8
  00006	53		 push	 ebx
; File C:\Program Files (x86)\Microsoft Visual Studio\2019\Community\VC\Tools\MSVC\14.29.30133\atlmfc\include\afxwin1.inl

; 639  : 		VERIFY(::GetTextExtentPoint32(m_hAttribDC, str, (int)str.GetLength(), &size));

  00007	8b 5d 08	 mov	 ebx, DWORD PTR _pDC$[ebp]
  0000a	8d 4d f8	 lea	 ecx, DWORD PTR _size$1[ebp]
; File D:\git\src\IBK\IBK_DRFN\ProjSrc\SrcChartEx\ChartOCX\GraphDraw\GraphDataDrawer.cpp

; 223  : {

  0000d	56		 push	 esi
; File C:\Program Files (x86)\Microsoft Visual Studio\2019\Community\VC\Tools\MSVC\14.29.30133\atlmfc\include\atlsimpstr.h

; 519  : 		return( GetData()->nDataLength );

  0000e	8b 75 10	 mov	 esi, DWORD PTR _strData$[ebp]
; File D:\git\src\IBK\IBK_DRFN\ProjSrc\SrcChartEx\ChartOCX\GraphDraw\GraphDataDrawer.cpp

; 223  : {

  00011	57		 push	 edi
; File C:\Program Files (x86)\Microsoft Visual Studio\2019\Community\VC\Tools\MSVC\14.29.30133\atlmfc\include\afxwin1.inl

; 639  : 		VERIFY(::GetTextExtentPoint32(m_hAttribDC, str, (int)str.GetLength(), &size));

  00012	51		 push	 ecx
; File C:\Program Files (x86)\Microsoft Visual Studio\2019\Community\VC\Tools\MSVC\14.29.30133\atlmfc\include\atlsimpstr.h

; 519  : 		return( GetData()->nDataLength );

  00013	8b 06		 mov	 eax, DWORD PTR [esi]
; File C:\Program Files (x86)\Microsoft Visual Studio\2019\Community\VC\Tools\MSVC\14.29.30133\atlmfc\include\afxwin1.inl

; 639  : 		VERIFY(::GetTextExtentPoint32(m_hAttribDC, str, (int)str.GetLength(), &size));

  00015	ff 70 f4	 push	 DWORD PTR [eax-12]
  00018	50		 push	 eax
  00019	ff 73 08	 push	 DWORD PTR [ebx+8]
  0001c	ff 15 00 00 00
	00		 call	 DWORD PTR __imp__GetTextExtentPoint32A@16
; File C:\Program Files (x86)\Microsoft Visual Studio\2019\Community\VC\Tools\MSVC\14.29.30133\atlmfc\include\atlsimpstr.h

; 519  : 		return( GetData()->nDataLength );

  00022	8b 06		 mov	 eax, DWORD PTR [esi]
; File C:\Program Files (x86)\Microsoft Visual Studio\2019\Community\VC\Tools\MSVC\14.29.30133\atlmfc\include\afxwin1.inl

; 574  : 	{ ASSERT(m_hDC != NULL); return TextOut(x, y, (LPCTSTR)str, (int)str.GetLength()); } // call virtual

  00024	8b cb		 mov	 ecx, ebx
; File D:\git\src\IBK\IBK_DRFN\ProjSrc\SrcChartEx\ChartOCX\GraphDraw\GraphDataDrawer.cpp

; 225  : 	pDC->TextOut(point.x - size.cx, point.y + nPosition_Y, strData);

  00026	8b 55 0c	 mov	 edx, DWORD PTR _point$[ebp]
  00029	8b 75 14	 mov	 esi, DWORD PTR _nPosition_Y$[ebp]
; File C:\Program Files (x86)\Microsoft Visual Studio\2019\Community\VC\Tools\MSVC\14.29.30133\atlmfc\include\afxwin1.inl

; 574  : 	{ ASSERT(m_hDC != NULL); return TextOut(x, y, (LPCTSTR)str, (int)str.GetLength()); } // call virtual

  0002c	8b 3b		 mov	 edi, DWORD PTR [ebx]
  0002e	ff 70 f4	 push	 DWORD PTR [eax-12]
  00031	50		 push	 eax
; File D:\git\src\IBK\IBK_DRFN\ProjSrc\SrcChartEx\ChartOCX\GraphDraw\GraphDataDrawer.cpp

; 225  : 	pDC->TextOut(point.x - size.cx, point.y + nPosition_Y, strData);

  00032	8b 42 04	 mov	 eax, DWORD PTR [edx+4]
  00035	03 06		 add	 eax, DWORD PTR [esi]
; File C:\Program Files (x86)\Microsoft Visual Studio\2019\Community\VC\Tools\MSVC\14.29.30133\atlmfc\include\afxwin1.inl

; 574  : 	{ ASSERT(m_hDC != NULL); return TextOut(x, y, (LPCTSTR)str, (int)str.GetLength()); } // call virtual

  00037	50		 push	 eax
; File D:\git\src\IBK\IBK_DRFN\ProjSrc\SrcChartEx\ChartOCX\GraphDraw\GraphDataDrawer.cpp

; 225  : 	pDC->TextOut(point.x - size.cx, point.y + nPosition_Y, strData);

  00038	8b 02		 mov	 eax, DWORD PTR [edx]
  0003a	2b 45 f8	 sub	 eax, DWORD PTR _size$1[ebp]
; File C:\Program Files (x86)\Microsoft Visual Studio\2019\Community\VC\Tools\MSVC\14.29.30133\atlmfc\include\afxwin1.inl

; 574  : 	{ ASSERT(m_hDC != NULL); return TextOut(x, y, (LPCTSTR)str, (int)str.GetLength()); } // call virtual

  0003d	50		 push	 eax
  0003e	ff 57 64	 call	 DWORD PTR [edi+100]
; File D:\git\src\IBK\IBK_DRFN\ProjSrc\SrcChartEx\ChartOCX\GraphDraw\GraphDataDrawer.cpp

; 227  : 	nPosition_Y += size.cy;

  00041	8b 45 fc	 mov	 eax, DWORD PTR _size$1[ebp+4]
  00044	01 06		 add	 DWORD PTR [esi], eax
  00046	5f		 pop	 edi
  00047	5e		 pop	 esi
  00048	5b		 pop	 ebx

; 228  : }

  00049	8b e5		 mov	 esp, ebp
  0004b	5d		 pop	 ebp
  0004c	c2 10 00	 ret	 16			; 00000010H
?DrawTextOut@CRateDrawer@@IAEXPAVCDC@@ABVCPoint@@ABV?$CStringT@DV?$StrTraitMFC_DLL@DV?$ChTraitsCRT@D@ATL@@@@@ATL@@AAH@Z ENDP ; CRateDrawer::DrawTextOut
_TEXT	ENDS
; Function compile flags: /Ogtp
;	COMDAT ??1CTextData@@QAE@XZ
_TEXT	SEGMENT
??1CTextData@@QAE@XZ PROC				; CTextData::~CTextData, COMDAT
; _this$ = ecx
  00000	56		 push	 esi
  00001	8b f1		 mov	 esi, ecx
  00003	8d 4e 04	 lea	 ecx, DWORD PTR [esi+4]
  00006	ff 15 00 00 00
	00		 call	 DWORD PTR __imp_??1?$CStringT@DV?$StrTraitMFC_DLL@DV?$ChTraitsCRT@D@ATL@@@@@ATL@@QAE@XZ
  0000c	8b ce		 mov	 ecx, esi
  0000e	5e		 pop	 esi
  0000f	ff 25 00 00 00
	00		 jmp	 DWORD PTR __imp_??1?$CStringT@DV?$StrTraitMFC_DLL@DV?$ChTraitsCRT@D@ATL@@@@@ATL@@QAE@XZ
??1CTextData@@QAE@XZ ENDP				; CTextData::~CTextData
_TEXT	ENDS
; Function compile flags: /Ogtp
; File D:\git\src\IBK\IBK_DRFN\ProjSrc\SrcChartEx\ChartOCX\GraphDraw\GraphDataDrawer.cpp
; File C:\Program Files (x86)\Microsoft Visual Studio\2019\Community\VC\Tools\MSVC\14.29.30133\atlmfc\include\atlsimpstr.h
; File D:\git\src\IBK\IBK_DRFN\ProjSrc\SrcChartEx\ChartOCX\GraphDraw\GraphDataDrawer.cpp
; File C:\Program Files (x86)\Microsoft Visual Studio\2019\Community\VC\Tools\MSVC\14.29.30133\atlmfc\include\atlsimpstr.h
; File D:\git\src\IBK\IBK_DRFN\ProjSrc\SrcChartEx\ChartOCX\GraphDraw\GraphDataDrawer.cpp
;	COMDAT ?IsEmpty@CTextData@@QBE_NXZ
_TEXT	SEGMENT
?IsEmpty@CTextData@@QBE_NXZ PROC			; CTextData::IsEmpty, COMDAT
; _this$ = ecx
; File C:\Program Files (x86)\Microsoft Visual Studio\2019\Community\VC\Tools\MSVC\14.29.30133\atlmfc\include\atlsimpstr.h

; 533  : 		return( GetLength() == 0 );

  00000	8b 01		 mov	 eax, DWORD PTR [ecx]
  00002	83 78 f4 00	 cmp	 DWORD PTR [eax-12], 0
; File D:\git\src\IBK\IBK_DRFN\ProjSrc\SrcChartEx\ChartOCX\GraphDraw\GraphDataDrawer.cpp

; 214  : 	return (m_strTitle.IsEmpty() || m_strData.IsEmpty());

  00006	74 0c		 je	 SHORT $LN3@IsEmpty
; File C:\Program Files (x86)\Microsoft Visual Studio\2019\Community\VC\Tools\MSVC\14.29.30133\atlmfc\include\atlsimpstr.h

; 533  : 		return( GetLength() == 0 );

  00008	8b 41 04	 mov	 eax, DWORD PTR [ecx+4]
  0000b	83 78 f4 00	 cmp	 DWORD PTR [eax-12], 0
; File D:\git\src\IBK\IBK_DRFN\ProjSrc\SrcChartEx\ChartOCX\GraphDraw\GraphDataDrawer.cpp

; 214  : 	return (m_strTitle.IsEmpty() || m_strData.IsEmpty());

  0000f	74 03		 je	 SHORT $LN3@IsEmpty
  00011	32 c0		 xor	 al, al

; 215  : }

  00013	c3		 ret	 0
$LN3@IsEmpty:

; 214  : 	return (m_strTitle.IsEmpty() || m_strData.IsEmpty());

  00014	b0 01		 mov	 al, 1

; 215  : }

  00016	c3		 ret	 0
?IsEmpty@CTextData@@QBE_NXZ ENDP			; CTextData::IsEmpty
_TEXT	ENDS
; Function compile flags: /Ogtp
; File D:\git\src\IBK\IBK_DRFN\ProjSrc\SrcChartEx\ChartOCX\GraphDraw\GraphDataDrawer.cpp
;	COMDAT ?GetColor@CTextData@@QBEKXZ
_TEXT	SEGMENT
?GetColor@CTextData@@QBEKXZ PROC			; CTextData::GetColor, COMDAT
; _this$ = ecx

; 209  : 	return m_color;

  00000	8b 41 08	 mov	 eax, DWORD PTR [ecx+8]

; 210  : }

  00003	c3		 ret	 0
?GetColor@CTextData@@QBEKXZ ENDP			; CTextData::GetColor
_TEXT	ENDS
; Function compile flags: /Ogtp
; File D:\git\src\IBK\IBK_DRFN\ProjSrc\SrcChartEx\ChartOCX\GraphDraw\GraphDataDrawer.cpp
;	COMDAT ?GetData@CTextData@@QBE?AV?$CStringT@DV?$StrTraitMFC_DLL@DV?$ChTraitsCRT@D@ATL@@@@@ATL@@XZ
_TEXT	SEGMENT
___$ReturnUdt$ = 8					; size = 4
?GetData@CTextData@@QBE?AV?$CStringT@DV?$StrTraitMFC_DLL@DV?$ChTraitsCRT@D@ATL@@@@@ATL@@XZ PROC ; CTextData::GetData, COMDAT
; _this$ = ecx

; 203  : {

  00000	55		 push	 ebp
  00001	8b ec		 mov	 ebp, esp

; 204  : 	return m_strData;

  00003	8d 41 04	 lea	 eax, DWORD PTR [ecx+4]
  00006	8b 4d 08	 mov	 ecx, DWORD PTR ___$ReturnUdt$[ebp]
  00009	50		 push	 eax
  0000a	ff 15 00 00 00
	00		 call	 DWORD PTR __imp_??0?$CStringT@DV?$StrTraitMFC_DLL@DV?$ChTraitsCRT@D@ATL@@@@@ATL@@QAE@ABV01@@Z
  00010	8b 45 08	 mov	 eax, DWORD PTR ___$ReturnUdt$[ebp]

; 205  : }

  00013	5d		 pop	 ebp
  00014	c2 04 00	 ret	 4
?GetData@CTextData@@QBE?AV?$CStringT@DV?$StrTraitMFC_DLL@DV?$ChTraitsCRT@D@ATL@@@@@ATL@@XZ ENDP ; CTextData::GetData
_TEXT	ENDS
; Function compile flags: /Ogtp
; File D:\git\src\IBK\IBK_DRFN\ProjSrc\SrcChartEx\ChartOCX\GraphDraw\GraphDataDrawer.cpp
;	COMDAT ?GetTitle@CTextData@@QBE?AV?$CStringT@DV?$StrTraitMFC_DLL@DV?$ChTraitsCRT@D@ATL@@@@@ATL@@XZ
_TEXT	SEGMENT
___$ReturnUdt$ = 8					; size = 4
?GetTitle@CTextData@@QBE?AV?$CStringT@DV?$StrTraitMFC_DLL@DV?$ChTraitsCRT@D@ATL@@@@@ATL@@XZ PROC ; CTextData::GetTitle, COMDAT
; _this$ = ecx

; 198  : {

  00000	55		 push	 ebp
  00001	8b ec		 mov	 ebp, esp

; 199  : 	return m_strTitle;

  00003	51		 push	 ecx
  00004	8b 4d 08	 mov	 ecx, DWORD PTR ___$ReturnUdt$[ebp]
  00007	ff 15 00 00 00
	00		 call	 DWORD PTR __imp_??0?$CStringT@DV?$StrTraitMFC_DLL@DV?$ChTraitsCRT@D@ATL@@@@@ATL@@QAE@ABV01@@Z
  0000d	8b 45 08	 mov	 eax, DWORD PTR ___$ReturnUdt$[ebp]

; 200  : }

  00010	5d		 pop	 ebp
  00011	c2 04 00	 ret	 4
?GetTitle@CTextData@@QBE?AV?$CStringT@DV?$StrTraitMFC_DLL@DV?$ChTraitsCRT@D@ATL@@@@@ATL@@XZ ENDP ; CTextData::GetTitle
_TEXT	ENDS
; Function compile flags: /Ogtp
; File D:\git\src\IBK\IBK_DRFN\ProjSrc\SrcChartEx\ChartOCX\GraphDraw\GraphDataDrawer.cpp
;	COMDAT ?SetColor@CTextData@@QAEXABK@Z
_TEXT	SEGMENT
_color$ = 8						; size = 4
?SetColor@CTextData@@QAEXABK@Z PROC			; CTextData::SetColor, COMDAT
; _this$ = ecx

; 193  : {

  00000	55		 push	 ebp
  00001	8b ec		 mov	 ebp, esp

; 194  : 	m_color = color;

  00003	8b 45 08	 mov	 eax, DWORD PTR _color$[ebp]
  00006	8b 00		 mov	 eax, DWORD PTR [eax]
  00008	89 41 08	 mov	 DWORD PTR [ecx+8], eax

; 195  : }

  0000b	5d		 pop	 ebp
  0000c	c2 04 00	 ret	 4
?SetColor@CTextData@@QAEXABK@Z ENDP			; CTextData::SetColor
_TEXT	ENDS
; Function compile flags: /Ogtp
; File D:\git\src\IBK\IBK_DRFN\ProjSrc\SrcChartEx\ChartOCX\GraphDraw\GraphDataDrawer.cpp
;	COMDAT ?SetData@CTextData@@QAEXABV?$CStringT@DV?$StrTraitMFC_DLL@DV?$ChTraitsCRT@D@ATL@@@@@ATL@@@Z
_TEXT	SEGMENT
_strData$ = 8						; size = 4
?SetData@CTextData@@QAEXABV?$CStringT@DV?$StrTraitMFC_DLL@DV?$ChTraitsCRT@D@ATL@@@@@ATL@@@Z PROC ; CTextData::SetData, COMDAT
; _this$ = ecx

; 188  : {

  00000	55		 push	 ebp
  00001	8b ec		 mov	 ebp, esp

; 189  : 	m_strData = strData;

  00003	83 c1 04	 add	 ecx, 4

; 190  : }

  00006	5d		 pop	 ebp

; 189  : 	m_strData = strData;

  00007	ff 25 00 00 00
	00		 jmp	 DWORD PTR __imp_??4?$CStringT@DV?$StrTraitMFC_DLL@DV?$ChTraitsCRT@D@ATL@@@@@ATL@@QAEAAV01@ABV01@@Z
?SetData@CTextData@@QAEXABV?$CStringT@DV?$StrTraitMFC_DLL@DV?$ChTraitsCRT@D@ATL@@@@@ATL@@@Z ENDP ; CTextData::SetData
_TEXT	ENDS
; Function compile flags: /Ogtp
; File D:\git\src\IBK\IBK_DRFN\ProjSrc\SrcChartEx\ChartOCX\GraphDraw\GraphDataDrawer.cpp
;	COMDAT ?SetTitle@CTextData@@QAEXABV?$CStringT@DV?$StrTraitMFC_DLL@DV?$ChTraitsCRT@D@ATL@@@@@ATL@@@Z
_TEXT	SEGMENT
_strTitle$ = 8						; size = 4
?SetTitle@CTextData@@QAEXABV?$CStringT@DV?$StrTraitMFC_DLL@DV?$ChTraitsCRT@D@ATL@@@@@ATL@@@Z PROC ; CTextData::SetTitle, COMDAT
; _this$ = ecx

; 183  : {

  00000	55		 push	 ebp
  00001	8b ec		 mov	 ebp, esp

; 185  : }

  00003	5d		 pop	 ebp

; 184  : 	m_strTitle = strTitle;

  00004	ff 25 00 00 00
	00		 jmp	 DWORD PTR __imp_??4?$CStringT@DV?$StrTraitMFC_DLL@DV?$ChTraitsCRT@D@ATL@@@@@ATL@@QAEAAV01@ABV01@@Z
?SetTitle@CTextData@@QAEXABV?$CStringT@DV?$StrTraitMFC_DLL@DV?$ChTraitsCRT@D@ATL@@@@@ATL@@@Z ENDP ; CTextData::SetTitle
_TEXT	ENDS
; Function compile flags: /Ogtp
; File D:\git\src\IBK\IBK_DRFN\ProjSrc\SrcChartEx\ChartOCX\GraphDraw\GraphDataDrawer.cpp
;	COMDAT ?Set@CTextData@@QAEXABV?$CStringT@DV?$StrTraitMFC_DLL@DV?$ChTraitsCRT@D@ATL@@@@@ATL@@0ABK@Z
_TEXT	SEGMENT
_strTitle$ = 8						; size = 4
_strData$ = 12						; size = 4
_color$ = 16						; size = 4
?Set@CTextData@@QAEXABV?$CStringT@DV?$StrTraitMFC_DLL@DV?$ChTraitsCRT@D@ATL@@@@@ATL@@0ABK@Z PROC ; CTextData::Set, COMDAT
; _this$ = ecx

; 176  : {

  00000	55		 push	 ebp
  00001	8b ec		 mov	 ebp, esp
  00003	56		 push	 esi

; 177  : 	m_strTitle = strTitle;

  00004	ff 75 08	 push	 DWORD PTR _strTitle$[ebp]
  00007	8b f1		 mov	 esi, ecx
  00009	ff 15 00 00 00
	00		 call	 DWORD PTR __imp_??4?$CStringT@DV?$StrTraitMFC_DLL@DV?$ChTraitsCRT@D@ATL@@@@@ATL@@QAEAAV01@ABV01@@Z

; 178  : 	m_strData = strData;

  0000f	ff 75 0c	 push	 DWORD PTR _strData$[ebp]
  00012	8d 4e 04	 lea	 ecx, DWORD PTR [esi+4]
  00015	ff 15 00 00 00
	00		 call	 DWORD PTR __imp_??4?$CStringT@DV?$StrTraitMFC_DLL@DV?$ChTraitsCRT@D@ATL@@@@@ATL@@QAEAAV01@ABV01@@Z

; 179  : 	m_color = color;

  0001b	8b 45 10	 mov	 eax, DWORD PTR _color$[ebp]
  0001e	8b 00		 mov	 eax, DWORD PTR [eax]
  00020	89 46 08	 mov	 DWORD PTR [esi+8], eax
  00023	5e		 pop	 esi

; 180  : }

  00024	5d		 pop	 ebp
  00025	c2 0c 00	 ret	 12			; 0000000cH
?Set@CTextData@@QAEXABV?$CStringT@DV?$StrTraitMFC_DLL@DV?$ChTraitsCRT@D@ATL@@@@@ATL@@0ABK@Z ENDP ; CTextData::Set
_TEXT	ENDS
; Function compile flags: /Ogtp
; File D:\git\src\IBK\IBK_DRFN\ProjSrc\SrcChartEx\ChartOCX\GraphDraw\GraphDataDrawer.cpp
;	COMDAT ??0CTextData@@QAE@ABV?$CStringT@DV?$StrTraitMFC_DLL@DV?$ChTraitsCRT@D@ATL@@@@@ATL@@0ABK@Z
_TEXT	SEGMENT
_this$ = -16						; size = 4
__$EHRec$ = -12						; size = 12
_strTitle$ = 8						; size = 4
_strData$ = 12						; size = 4
_color$ = 16						; size = 4
??0CTextData@@QAE@ABV?$CStringT@DV?$StrTraitMFC_DLL@DV?$ChTraitsCRT@D@ATL@@@@@ATL@@0ABK@Z PROC ; CTextData::CTextData, COMDAT
; _this$ = ecx

; 172  : {

  00000	55		 push	 ebp
  00001	8b ec		 mov	 ebp, esp
  00003	6a ff		 push	 -1
  00005	68 00 00 00 00	 push	 __ehhandler$??0CTextData@@QAE@ABV?$CStringT@DV?$StrTraitMFC_DLL@DV?$ChTraitsCRT@D@ATL@@@@@ATL@@0ABK@Z
  0000a	64 a1 00 00 00
	00		 mov	 eax, DWORD PTR fs:0
  00010	50		 push	 eax
  00011	51		 push	 ecx
  00012	56		 push	 esi
  00013	a1 00 00 00 00	 mov	 eax, DWORD PTR ___security_cookie
  00018	33 c5		 xor	 eax, ebp
  0001a	50		 push	 eax
  0001b	8d 45 f4	 lea	 eax, DWORD PTR __$EHRec$[ebp]
  0001e	64 a3 00 00 00
	00		 mov	 DWORD PTR fs:0, eax
  00024	8b f1		 mov	 esi, ecx
  00026	89 75 f0	 mov	 DWORD PTR _this$[ebp], esi

; 169  : 	m_strTitle(strTitle),

  00029	ff 75 08	 push	 DWORD PTR _strTitle$[ebp]
  0002c	ff 15 00 00 00
	00		 call	 DWORD PTR __imp_??0?$CStringT@DV?$StrTraitMFC_DLL@DV?$ChTraitsCRT@D@ATL@@@@@ATL@@QAE@ABV01@@Z

; 170  : 	m_strData(strData),

  00032	ff 75 0c	 push	 DWORD PTR _strData$[ebp]
  00035	8d 4e 04	 lea	 ecx, DWORD PTR [esi+4]
  00038	c7 45 fc 00 00
	00 00		 mov	 DWORD PTR __$EHRec$[ebp+8], 0
  0003f	ff 15 00 00 00
	00		 call	 DWORD PTR __imp_??0?$CStringT@DV?$StrTraitMFC_DLL@DV?$ChTraitsCRT@D@ATL@@@@@ATL@@QAE@ABV01@@Z

; 171  : 	m_color(color)

  00045	8b 45 10	 mov	 eax, DWORD PTR _color$[ebp]
  00048	8b 00		 mov	 eax, DWORD PTR [eax]
  0004a	89 46 08	 mov	 DWORD PTR [esi+8], eax

; 173  : }

  0004d	8b c6		 mov	 eax, esi
  0004f	8b 4d f4	 mov	 ecx, DWORD PTR __$EHRec$[ebp]
  00052	64 89 0d 00 00
	00 00		 mov	 DWORD PTR fs:0, ecx
  00059	59		 pop	 ecx
  0005a	5e		 pop	 esi
  0005b	8b e5		 mov	 esp, ebp
  0005d	5d		 pop	 ebp
  0005e	c2 0c 00	 ret	 12			; 0000000cH
_TEXT	ENDS
;	COMDAT text$x
text$x	SEGMENT
__unwindfunclet$??0CTextData@@QAE@ABV?$CStringT@DV?$StrTraitMFC_DLL@DV?$ChTraitsCRT@D@ATL@@@@@ATL@@0ABK@Z$0:
  00000	8b 4d f0	 mov	 ecx, DWORD PTR _this$[ebp]
  00003	ff 25 00 00 00
	00		 jmp	 DWORD PTR __imp_??1?$CStringT@DV?$StrTraitMFC_DLL@DV?$ChTraitsCRT@D@ATL@@@@@ATL@@QAE@XZ
  00009	cc		 int	 3
  0000a	cc		 int	 3
  0000b	cc		 int	 3
  0000c	cc		 int	 3
  0000d	cc		 int	 3
__ehhandler$??0CTextData@@QAE@ABV?$CStringT@DV?$StrTraitMFC_DLL@DV?$ChTraitsCRT@D@ATL@@@@@ATL@@0ABK@Z:
  0000e	90		 npad	 1
  0000f	90		 npad	 1
  00010	8b 54 24 08	 mov	 edx, DWORD PTR [esp+8]
  00014	8d 42 0c	 lea	 eax, DWORD PTR [edx+12]
  00017	8b 4a f4	 mov	 ecx, DWORD PTR [edx-12]
  0001a	33 c8		 xor	 ecx, eax
  0001c	e8 00 00 00 00	 call	 @__security_check_cookie@4
  00021	b8 00 00 00 00	 mov	 eax, OFFSET __ehfuncinfo$??0CTextData@@QAE@ABV?$CStringT@DV?$StrTraitMFC_DLL@DV?$ChTraitsCRT@D@ATL@@@@@ATL@@0ABK@Z
  00026	e9 00 00 00 00	 jmp	 ___CxxFrameHandler3
text$x	ENDS
??0CTextData@@QAE@ABV?$CStringT@DV?$StrTraitMFC_DLL@DV?$ChTraitsCRT@D@ATL@@@@@ATL@@0ABK@Z ENDP ; CTextData::CTextData
; Function compile flags: /Ogtp
; File D:\git\src\IBK\IBK_DRFN\ProjSrc\SrcChartEx\ChartOCX\GraphDraw\GraphDataDrawer.cpp
;	COMDAT ??0CTextData@@QAE@XZ
_TEXT	SEGMENT
_this$ = -4						; size = 4
??0CTextData@@QAE@XZ PROC				; CTextData::CTextData, COMDAT
; _this$ = ecx

; 165  : {

  00000	55		 push	 ebp
  00001	8b ec		 mov	 ebp, esp
  00003	51		 push	 ecx
  00004	56		 push	 esi
  00005	8b f1		 mov	 esi, ecx
  00007	89 75 fc	 mov	 DWORD PTR _this$[ebp], esi
  0000a	ff 15 00 00 00
	00		 call	 DWORD PTR __imp_??0?$CStringT@DV?$StrTraitMFC_DLL@DV?$ChTraitsCRT@D@ATL@@@@@ATL@@QAE@XZ
  00010	8d 4e 04	 lea	 ecx, DWORD PTR [esi+4]
  00013	ff 15 00 00 00
	00		 call	 DWORD PTR __imp_??0?$CStringT@DV?$StrTraitMFC_DLL@DV?$ChTraitsCRT@D@ATL@@@@@ATL@@QAE@XZ

; 164  : 	m_color(RGB(0, 0, 0))

  00019	c7 46 08 00 00
	00 00		 mov	 DWORD PTR [esi+8], 0

; 166  : }

  00020	8b c6		 mov	 eax, esi
  00022	5e		 pop	 esi
  00023	8b e5		 mov	 esp, ebp
  00025	5d		 pop	 ebp
  00026	c3		 ret	 0
??0CTextData@@QAE@XZ ENDP				; CTextData::CTextData
_TEXT	ENDS
; Function compile flags: /Ogtp
; File D:\git\src\IBK\IBK_DRFN\ProjSrc\SrcChartEx\ChartOCX\GraphDraw\GraphDataDrawer.cpp
;	COMDAT ??4CTextData@@QAEAAV0@ABV0@@Z
_TEXT	SEGMENT
$T2 = -16						; size = 4
__$EHRec$ = -12						; size = 12
$T3 = 8							; size = 4
_data$ = 8						; size = 4
??4CTextData@@QAEAAV0@ABV0@@Z PROC			; CTextData::operator=, COMDAT
; _this$ = ecx

; 153  : {

  00000	55		 push	 ebp
  00001	8b ec		 mov	 ebp, esp
  00003	6a ff		 push	 -1
  00005	68 00 00 00 00	 push	 __ehhandler$??4CTextData@@QAEAAV0@ABV0@@Z
  0000a	64 a1 00 00 00
	00		 mov	 eax, DWORD PTR fs:0
  00010	50		 push	 eax
  00011	51		 push	 ecx
  00012	56		 push	 esi
  00013	57		 push	 edi
  00014	a1 00 00 00 00	 mov	 eax, DWORD PTR ___security_cookie
  00019	33 c5		 xor	 eax, ebp
  0001b	50		 push	 eax
  0001c	8d 45 f4	 lea	 eax, DWORD PTR __$EHRec$[ebp]
  0001f	64 a3 00 00 00
	00		 mov	 DWORD PTR fs:0, eax
  00025	8b f1		 mov	 esi, ecx

; 154  : 	if(this == &data)

  00027	8b 7d 08	 mov	 edi, DWORD PTR _data$[ebp]
  0002a	3b f7		 cmp	 esi, edi
  0002c	74 5d		 je	 SHORT $LN15@operator

; 199  : 	return m_strTitle;

  0002e	57		 push	 edi
  0002f	8d 4d 08	 lea	 ecx, DWORD PTR $T3[ebp]
  00032	ff 15 00 00 00
	00		 call	 DWORD PTR __imp_??0?$CStringT@DV?$StrTraitMFC_DLL@DV?$ChTraitsCRT@D@ATL@@@@@ATL@@QAE@ABV01@@Z

; 155  : 		return *this;
; 156  : 
; 157  : 	m_strTitle = data.GetTitle();

  00038	8d 45 08	 lea	 eax, DWORD PTR $T3[ebp]
  0003b	c7 45 fc 00 00
	00 00		 mov	 DWORD PTR __$EHRec$[ebp+8], 0
  00042	50		 push	 eax
  00043	8b ce		 mov	 ecx, esi
  00045	ff 15 00 00 00
	00		 call	 DWORD PTR __imp_??4?$CStringT@DV?$StrTraitMFC_DLL@DV?$ChTraitsCRT@D@ATL@@@@@ATL@@QAEAAV01@ABV01@@Z
  0004b	8d 4d 08	 lea	 ecx, DWORD PTR $T3[ebp]
  0004e	c7 45 fc ff ff
	ff ff		 mov	 DWORD PTR __$EHRec$[ebp+8], -1
  00055	ff 15 00 00 00
	00		 call	 DWORD PTR __imp_??1?$CStringT@DV?$StrTraitMFC_DLL@DV?$ChTraitsCRT@D@ATL@@@@@ATL@@QAE@XZ

; 204  : 	return m_strData;

  0005b	8d 47 04	 lea	 eax, DWORD PTR [edi+4]
  0005e	50		 push	 eax
  0005f	8d 4d f0	 lea	 ecx, DWORD PTR $T2[ebp]
  00062	ff 15 00 00 00
	00		 call	 DWORD PTR __imp_??0?$CStringT@DV?$StrTraitMFC_DLL@DV?$ChTraitsCRT@D@ATL@@@@@ATL@@QAE@ABV01@@Z

; 158  : 	m_strData = data.GetData();

  00068	8d 45 f0	 lea	 eax, DWORD PTR $T2[ebp]
  0006b	c7 45 fc 01 00
	00 00		 mov	 DWORD PTR __$EHRec$[ebp+8], 1
  00072	50		 push	 eax
  00073	8d 4e 04	 lea	 ecx, DWORD PTR [esi+4]
  00076	ff 15 00 00 00
	00		 call	 DWORD PTR __imp_??4?$CStringT@DV?$StrTraitMFC_DLL@DV?$ChTraitsCRT@D@ATL@@@@@ATL@@QAEAAV01@ABV01@@Z
  0007c	8d 4d f0	 lea	 ecx, DWORD PTR $T2[ebp]
  0007f	ff 15 00 00 00
	00		 call	 DWORD PTR __imp_??1?$CStringT@DV?$StrTraitMFC_DLL@DV?$ChTraitsCRT@D@ATL@@@@@ATL@@QAE@XZ

; 159  : 	m_color = data.GetColor();

  00085	8b 47 08	 mov	 eax, DWORD PTR [edi+8]
  00088	89 46 08	 mov	 DWORD PTR [esi+8], eax
$LN15@operator:

; 160  : 	return *this;
; 161  : }

  0008b	8b c6		 mov	 eax, esi
  0008d	8b 4d f4	 mov	 ecx, DWORD PTR __$EHRec$[ebp]
  00090	64 89 0d 00 00
	00 00		 mov	 DWORD PTR fs:0, ecx
  00097	59		 pop	 ecx
  00098	5f		 pop	 edi
  00099	5e		 pop	 esi
  0009a	8b e5		 mov	 esp, ebp
  0009c	5d		 pop	 ebp
  0009d	c2 04 00	 ret	 4
_TEXT	ENDS
;	COMDAT text$x
text$x	SEGMENT
__unwindfunclet$??4CTextData@@QAEAAV0@ABV0@@Z$0:
  00000	8d 4d 08	 lea	 ecx, DWORD PTR $T3[ebp]
  00003	ff 25 00 00 00
	00		 jmp	 DWORD PTR __imp_??1?$CStringT@DV?$StrTraitMFC_DLL@DV?$ChTraitsCRT@D@ATL@@@@@ATL@@QAE@XZ
__unwindfunclet$??4CTextData@@QAEAAV0@ABV0@@Z$1:
  00009	8d 4d f0	 lea	 ecx, DWORD PTR $T2[ebp]
  0000c	ff 25 00 00 00
	00		 jmp	 DWORD PTR __imp_??1?$CStringT@DV?$StrTraitMFC_DLL@DV?$ChTraitsCRT@D@ATL@@@@@ATL@@QAE@XZ
  00012	cc		 int	 3
  00013	cc		 int	 3
  00014	cc		 int	 3
  00015	cc		 int	 3
  00016	cc		 int	 3
__ehhandler$??4CTextData@@QAEAAV0@ABV0@@Z:
  00017	90		 npad	 1
  00018	90		 npad	 1
  00019	8b 54 24 08	 mov	 edx, DWORD PTR [esp+8]
  0001d	8d 42 0c	 lea	 eax, DWORD PTR [edx+12]
  00020	8b 4a f0	 mov	 ecx, DWORD PTR [edx-16]
  00023	33 c8		 xor	 ecx, eax
  00025	e8 00 00 00 00	 call	 @__security_check_cookie@4
  0002a	b8 00 00 00 00	 mov	 eax, OFFSET __ehfuncinfo$??4CTextData@@QAEAAV0@ABV0@@Z
  0002f	e9 00 00 00 00	 jmp	 ___CxxFrameHandler3
text$x	ENDS
??4CTextData@@QAEAAV0@ABV0@@Z ENDP			; CTextData::operator=
; Function compile flags: /Ogtp
;	COMDAT ??1CPrices@@QAE@XZ
_TEXT	SEGMENT
??1CPrices@@QAE@XZ PROC					; CPrices::~CPrices, COMDAT
; _this$ = ecx
  00000	56		 push	 esi
  00001	8b f1		 mov	 esi, ecx
  00003	8d 4e 24	 lea	 ecx, DWORD PTR [esi+36]
  00006	ff 15 00 00 00
	00		 call	 DWORD PTR __imp_??1?$CStringT@DV?$StrTraitMFC_DLL@DV?$ChTraitsCRT@D@ATL@@@@@ATL@@QAE@XZ
  0000c	8d 4e 20	 lea	 ecx, DWORD PTR [esi+32]
  0000f	5e		 pop	 esi
  00010	ff 25 00 00 00
	00		 jmp	 DWORD PTR __imp_??1?$CStringT@DV?$StrTraitMFC_DLL@DV?$ChTraitsCRT@D@ATL@@@@@ATL@@QAE@XZ
??1CPrices@@QAE@XZ ENDP					; CPrices::~CPrices
_TEXT	ENDS
; Function compile flags: /Ogtp
; File D:\git\src\IBK\IBK_DRFN\ProjSrc\SrcChartEx\ChartOCX\GraphDraw\GraphDataDrawer.cpp
;	COMDAT ?IsFall@CPrices@@QBE_NXZ
_TEXT	SEGMENT
?IsFall@CPrices@@QBE_NXZ PROC				; CPrices::IsFall, COMDAT
; _this$ = ecx

; 144  : 	return (m_dCurPrice < m_dPrevPrice);

  00000	f2 0f 10 01	 movsd	 xmm0, QWORD PTR [ecx]
  00004	66 0f 2f 41 08	 comisd	 xmm0, QWORD PTR [ecx+8]
  00009	0f 97 c0	 seta	 al

; 145  : }

  0000c	c3		 ret	 0
?IsFall@CPrices@@QBE_NXZ ENDP				; CPrices::IsFall
_TEXT	ENDS
; Function compile flags: /Ogtp
; File D:\git\src\IBK\IBK_DRFN\ProjSrc\SrcChartEx\ChartOCX\GraphDraw\GraphDataDrawer.cpp
;	COMDAT ?IsRose@CPrices@@QBE_NXZ
_TEXT	SEGMENT
?IsRose@CPrices@@QBE_NXZ PROC				; CPrices::IsRose, COMDAT
; _this$ = ecx

; 139  : 	return (m_dCurPrice > m_dPrevPrice);

  00000	f2 0f 10 41 08	 movsd	 xmm0, QWORD PTR [ecx+8]
  00005	66 0f 2f 01	 comisd	 xmm0, QWORD PTR [ecx]
  00009	0f 97 c0	 seta	 al

; 140  : }

  0000c	c3		 ret	 0
?IsRose@CPrices@@QBE_NXZ ENDP				; CPrices::IsRose
_TEXT	ENDS
; Function compile flags: /Ogtp
; File D:\git\src\IBK\IBK_DRFN\ProjSrc\SrcChartEx\ChartOCX\GraphDraw\GraphDataDrawer.cpp
; File C:\Program Files (x86)\Microsoft Visual Studio\2019\Community\VC\Tools\MSVC\14.29.30133\atlmfc\include\atlsimpstr.h
; File D:\git\src\IBK\IBK_DRFN\ProjSrc\SrcChartEx\ChartOCX\GraphDraw\GraphDataDrawer.cpp
; File C:\Program Files (x86)\Microsoft Visual Studio\2019\Community\VC\Tools\MSVC\14.29.30133\atlmfc\include\atlsimpstr.h
; File D:\git\src\IBK\IBK_DRFN\ProjSrc\SrcChartEx\ChartOCX\GraphDraw\GraphDataDrawer.cpp
;	COMDAT ?IsEmpty@CPrices@@QBE_NXZ
_TEXT	SEGMENT
?IsEmpty@CPrices@@QBE_NXZ PROC				; CPrices::IsEmpty, COMDAT
; _this$ = ecx

; 133  : 	return (m_dCurPrice == 0 && m_dPrevPrice == 0 && m_dPipSize == 0 && m_nDecimalDownCount == 0 && 

  00000	f2 0f 10 41 08	 movsd	 xmm0, QWORD PTR [ecx+8]
  00005	0f 57 c9	 xorps	 xmm1, xmm1
  00008	66 0f 2e c1	 ucomisd xmm0, xmm1
  0000c	9f		 lahf
  0000d	f6 c4 44	 test	 ah, 68			; 00000044H
  00010	7a 38		 jp	 SHORT $LN3@IsEmpty
  00012	f2 0f 10 01	 movsd	 xmm0, QWORD PTR [ecx]
  00016	66 0f 2e c1	 ucomisd xmm0, xmm1
  0001a	9f		 lahf
  0001b	f6 c4 44	 test	 ah, 68			; 00000044H
  0001e	7a 2a		 jp	 SHORT $LN3@IsEmpty
  00020	f2 0f 10 41 18	 movsd	 xmm0, QWORD PTR [ecx+24]
  00025	66 0f 2e c1	 ucomisd xmm0, xmm1
  00029	9f		 lahf
  0002a	f6 c4 44	 test	 ah, 68			; 00000044H
  0002d	7a 1b		 jp	 SHORT $LN3@IsEmpty
  0002f	83 79 10 00	 cmp	 DWORD PTR [ecx+16], 0
  00033	75 15		 jne	 SHORT $LN3@IsEmpty
; File C:\Program Files (x86)\Microsoft Visual Studio\2019\Community\VC\Tools\MSVC\14.29.30133\atlmfc\include\atlsimpstr.h

; 533  : 		return( GetLength() == 0 );

  00035	8b 41 20	 mov	 eax, DWORD PTR [ecx+32]
  00038	83 78 f4 00	 cmp	 DWORD PTR [eax-12], 0
; File D:\git\src\IBK\IBK_DRFN\ProjSrc\SrcChartEx\ChartOCX\GraphDraw\GraphDataDrawer.cpp

; 133  : 	return (m_dCurPrice == 0 && m_dPrevPrice == 0 && m_dPipSize == 0 && m_nDecimalDownCount == 0 && 

  0003c	75 0c		 jne	 SHORT $LN3@IsEmpty
; File C:\Program Files (x86)\Microsoft Visual Studio\2019\Community\VC\Tools\MSVC\14.29.30133\atlmfc\include\atlsimpstr.h

; 533  : 		return( GetLength() == 0 );

  0003e	8b 41 24	 mov	 eax, DWORD PTR [ecx+36]
  00041	83 78 f4 00	 cmp	 DWORD PTR [eax-12], 0
; File D:\git\src\IBK\IBK_DRFN\ProjSrc\SrcChartEx\ChartOCX\GraphDraw\GraphDataDrawer.cpp

; 133  : 	return (m_dCurPrice == 0 && m_dPrevPrice == 0 && m_dPipSize == 0 && m_nDecimalDownCount == 0 && 

  00045	75 03		 jne	 SHORT $LN3@IsEmpty
  00047	b0 01		 mov	 al, 1

; 134  : 		m_strDataUnit.IsEmpty() && m_strPacketType.IsEmpty());
; 135  : }

  00049	c3		 ret	 0
$LN3@IsEmpty:

; 133  : 	return (m_dCurPrice == 0 && m_dPrevPrice == 0 && m_dPipSize == 0 && m_nDecimalDownCount == 0 && 

  0004a	32 c0		 xor	 al, al

; 134  : 		m_strDataUnit.IsEmpty() && m_strPacketType.IsEmpty());
; 135  : }

  0004c	c3		 ret	 0
?IsEmpty@CPrices@@QBE_NXZ ENDP				; CPrices::IsEmpty
_TEXT	ENDS
; Function compile flags: /Ogtp
; File D:\git\src\IBK\IBK_DRFN\ProjSrc\SrcChartEx\ChartOCX\GraphDraw\GraphDataDrawer.cpp
;	COMDAT ?GetPacketType@CPrices@@QBE?AV?$CStringT@DV?$StrTraitMFC_DLL@DV?$ChTraitsCRT@D@ATL@@@@@ATL@@XZ
_TEXT	SEGMENT
___$ReturnUdt$ = 8					; size = 4
?GetPacketType@CPrices@@QBE?AV?$CStringT@DV?$StrTraitMFC_DLL@DV?$ChTraitsCRT@D@ATL@@@@@ATL@@XZ PROC ; CPrices::GetPacketType, COMDAT
; _this$ = ecx

; 126  : {

  00000	55		 push	 ebp
  00001	8b ec		 mov	 ebp, esp

; 127  : 	return m_strPacketType;

  00003	8d 41 24	 lea	 eax, DWORD PTR [ecx+36]
  00006	8b 4d 08	 mov	 ecx, DWORD PTR ___$ReturnUdt$[ebp]
  00009	50		 push	 eax
  0000a	ff 15 00 00 00
	00		 call	 DWORD PTR __imp_??0?$CStringT@DV?$StrTraitMFC_DLL@DV?$ChTraitsCRT@D@ATL@@@@@ATL@@QAE@ABV01@@Z
  00010	8b 45 08	 mov	 eax, DWORD PTR ___$ReturnUdt$[ebp]

; 128  : }

  00013	5d		 pop	 ebp
  00014	c2 04 00	 ret	 4
?GetPacketType@CPrices@@QBE?AV?$CStringT@DV?$StrTraitMFC_DLL@DV?$ChTraitsCRT@D@ATL@@@@@ATL@@XZ ENDP ; CPrices::GetPacketType
_TEXT	ENDS
; Function compile flags: /Ogtp
; File D:\git\src\IBK\IBK_DRFN\ProjSrc\SrcChartEx\ChartOCX\GraphDraw\GraphDataDrawer.cpp
;	COMDAT ?GetDataUnit@CPrices@@QBE?AV?$CStringT@DV?$StrTraitMFC_DLL@DV?$ChTraitsCRT@D@ATL@@@@@ATL@@XZ
_TEXT	SEGMENT
___$ReturnUdt$ = 8					; size = 4
?GetDataUnit@CPrices@@QBE?AV?$CStringT@DV?$StrTraitMFC_DLL@DV?$ChTraitsCRT@D@ATL@@@@@ATL@@XZ PROC ; CPrices::GetDataUnit, COMDAT
; _this$ = ecx

; 121  : {

  00000	55		 push	 ebp
  00001	8b ec		 mov	 ebp, esp

; 122  : 	return m_strDataUnit;

  00003	8d 41 20	 lea	 eax, DWORD PTR [ecx+32]
  00006	8b 4d 08	 mov	 ecx, DWORD PTR ___$ReturnUdt$[ebp]
  00009	50		 push	 eax
  0000a	ff 15 00 00 00
	00		 call	 DWORD PTR __imp_??0?$CStringT@DV?$StrTraitMFC_DLL@DV?$ChTraitsCRT@D@ATL@@@@@ATL@@QAE@ABV01@@Z
  00010	8b 45 08	 mov	 eax, DWORD PTR ___$ReturnUdt$[ebp]

; 123  : }

  00013	5d		 pop	 ebp
  00014	c2 04 00	 ret	 4
?GetDataUnit@CPrices@@QBE?AV?$CStringT@DV?$StrTraitMFC_DLL@DV?$ChTraitsCRT@D@ATL@@@@@ATL@@XZ ENDP ; CPrices::GetDataUnit
_TEXT	ENDS
; Function compile flags: /Ogtp
; File D:\git\src\IBK\IBK_DRFN\ProjSrc\SrcChartEx\ChartOCX\GraphDraw\GraphDataDrawer.cpp
;	COMDAT ?GetPipSize@CPrices@@QBENXZ
_TEXT	SEGMENT
?GetPipSize@CPrices@@QBENXZ PROC			; CPrices::GetPipSize, COMDAT
; _this$ = ecx

; 117  : 	return m_dPipSize;

  00000	dd 41 18	 fld	 QWORD PTR [ecx+24]

; 118  : }

  00003	c3		 ret	 0
?GetPipSize@CPrices@@QBENXZ ENDP			; CPrices::GetPipSize
_TEXT	ENDS
; Function compile flags: /Ogtp
; File D:\git\src\IBK\IBK_DRFN\ProjSrc\SrcChartEx\ChartOCX\GraphDraw\GraphDataDrawer.cpp
;	COMDAT ?GetDecimalDownCount@CPrices@@QBEHXZ
_TEXT	SEGMENT
?GetDecimalDownCount@CPrices@@QBEHXZ PROC		; CPrices::GetDecimalDownCount, COMDAT
; _this$ = ecx

; 111  : 	return m_nDecimalDownCount;

  00000	8b 41 10	 mov	 eax, DWORD PTR [ecx+16]

; 112  : }

  00003	c3		 ret	 0
?GetDecimalDownCount@CPrices@@QBEHXZ ENDP		; CPrices::GetDecimalDownCount
_TEXT	ENDS
; Function compile flags: /Ogtp
; File D:\git\src\IBK\IBK_DRFN\ProjSrc\SrcChartEx\ChartOCX\GraphDraw\GraphDataDrawer.cpp
;	COMDAT ?GetDifference@CPrices@@QBENXZ
_TEXT	SEGMENT
?GetDifference@CPrices@@QBENXZ PROC			; CPrices::GetDifference, COMDAT
; _this$ = ecx

; 106  : 	return (m_dCurPrice - m_dPrevPrice);

  00000	dd 41 08	 fld	 QWORD PTR [ecx+8]
  00003	dc 21		 fsub	 QWORD PTR [ecx]

; 107  : }

  00005	c3		 ret	 0
?GetDifference@CPrices@@QBENXZ ENDP			; CPrices::GetDifference
_TEXT	ENDS
; Function compile flags: /Ogtp
; File D:\git\src\IBK\IBK_DRFN\ProjSrc\SrcChartEx\ChartOCX\GraphDraw\GraphDataDrawer.cpp
;	COMDAT ?GetCur@CPrices@@QBENXZ
_TEXT	SEGMENT
?GetCur@CPrices@@QBENXZ PROC				; CPrices::GetCur, COMDAT
; _this$ = ecx

; 101  : 	return m_dCurPrice;

  00000	dd 41 08	 fld	 QWORD PTR [ecx+8]

; 102  : }

  00003	c3		 ret	 0
?GetCur@CPrices@@QBENXZ ENDP				; CPrices::GetCur
_TEXT	ENDS
; Function compile flags: /Ogtp
; File D:\git\src\IBK\IBK_DRFN\ProjSrc\SrcChartEx\ChartOCX\GraphDraw\GraphDataDrawer.cpp
;	COMDAT ?GetPrev@CPrices@@QBENXZ
_TEXT	SEGMENT
?GetPrev@CPrices@@QBENXZ PROC				; CPrices::GetPrev, COMDAT
; _this$ = ecx

; 96   : 	return m_dPrevPrice;

  00000	dd 01		 fld	 QWORD PTR [ecx]

; 97   : }

  00002	c3		 ret	 0
?GetPrev@CPrices@@QBENXZ ENDP				; CPrices::GetPrev
_TEXT	ENDS
; Function compile flags: /Ogtp
; File D:\git\src\IBK\IBK_DRFN\ProjSrc\SrcChartEx\ChartOCX\GraphDraw\GraphDataDrawer.cpp
;	COMDAT ?SetPacketType@CPrices@@QAEXABV?$CStringT@DV?$StrTraitMFC_DLL@DV?$ChTraitsCRT@D@ATL@@@@@ATL@@@Z
_TEXT	SEGMENT
_strPacketType$ = 8					; size = 4
?SetPacketType@CPrices@@QAEXABV?$CStringT@DV?$StrTraitMFC_DLL@DV?$ChTraitsCRT@D@ATL@@@@@ATL@@@Z PROC ; CPrices::SetPacketType, COMDAT
; _this$ = ecx

; 90   : {

  00000	55		 push	 ebp
  00001	8b ec		 mov	 ebp, esp

; 91   : 	m_strPacketType = strPacketType;

  00003	83 c1 24	 add	 ecx, 36			; 00000024H

; 92   : }

  00006	5d		 pop	 ebp

; 91   : 	m_strPacketType = strPacketType;

  00007	ff 25 00 00 00
	00		 jmp	 DWORD PTR __imp_??4?$CStringT@DV?$StrTraitMFC_DLL@DV?$ChTraitsCRT@D@ATL@@@@@ATL@@QAEAAV01@ABV01@@Z
?SetPacketType@CPrices@@QAEXABV?$CStringT@DV?$StrTraitMFC_DLL@DV?$ChTraitsCRT@D@ATL@@@@@ATL@@@Z ENDP ; CPrices::SetPacketType
_TEXT	ENDS
; Function compile flags: /Ogtp
; File D:\git\src\IBK\IBK_DRFN\ProjSrc\SrcChartEx\ChartOCX\GraphDraw\GraphDataDrawer.cpp
;	COMDAT ?SetDataUnit@CPrices@@QAEXABV?$CStringT@DV?$StrTraitMFC_DLL@DV?$ChTraitsCRT@D@ATL@@@@@ATL@@@Z
_TEXT	SEGMENT
_strDataUnit$ = 8					; size = 4
?SetDataUnit@CPrices@@QAEXABV?$CStringT@DV?$StrTraitMFC_DLL@DV?$ChTraitsCRT@D@ATL@@@@@ATL@@@Z PROC ; CPrices::SetDataUnit, COMDAT
; _this$ = ecx

; 85   : {

  00000	55		 push	 ebp
  00001	8b ec		 mov	 ebp, esp

; 86   : 	m_strDataUnit = strDataUnit;

  00003	83 c1 20	 add	 ecx, 32			; 00000020H

; 87   : }

  00006	5d		 pop	 ebp

; 86   : 	m_strDataUnit = strDataUnit;

  00007	ff 25 00 00 00
	00		 jmp	 DWORD PTR __imp_??4?$CStringT@DV?$StrTraitMFC_DLL@DV?$ChTraitsCRT@D@ATL@@@@@ATL@@QAEAAV01@ABV01@@Z
?SetDataUnit@CPrices@@QAEXABV?$CStringT@DV?$StrTraitMFC_DLL@DV?$ChTraitsCRT@D@ATL@@@@@ATL@@@Z ENDP ; CPrices::SetDataUnit
_TEXT	ENDS
; Function compile flags: /Ogtp
; File D:\git\src\IBK\IBK_DRFN\ProjSrc\SrcChartEx\ChartOCX\GraphDraw\GraphDataDrawer.cpp
;	COMDAT ?SetPipSize@CPrices@@QAEXABN@Z
_TEXT	SEGMENT
_dPipSize$ = 8						; size = 4
?SetPipSize@CPrices@@QAEXABN@Z PROC			; CPrices::SetPipSize, COMDAT
; _this$ = ecx

; 80   : {

  00000	55		 push	 ebp
  00001	8b ec		 mov	 ebp, esp

; 81   : 	m_dPipSize = dPipSize;

  00003	8b 45 08	 mov	 eax, DWORD PTR _dPipSize$[ebp]
  00006	f2 0f 10 00	 movsd	 xmm0, QWORD PTR [eax]
  0000a	f2 0f 11 41 18	 movsd	 QWORD PTR [ecx+24], xmm0

; 82   : }

  0000f	5d		 pop	 ebp
  00010	c2 04 00	 ret	 4
?SetPipSize@CPrices@@QAEXABN@Z ENDP			; CPrices::SetPipSize
_TEXT	ENDS
; Function compile flags: /Ogtp
; File D:\git\src\IBK\IBK_DRFN\ProjSrc\SrcChartEx\ChartOCX\GraphDraw\GraphDataDrawer.cpp
;	COMDAT ?SetDecimalDownCount@CPrices@@QAEXH@Z
_TEXT	SEGMENT
_nDecimalDownCount$ = 8					; size = 4
?SetDecimalDownCount@CPrices@@QAEXH@Z PROC		; CPrices::SetDecimalDownCount, COMDAT
; _this$ = ecx

; 74   : {

  00000	55		 push	 ebp
  00001	8b ec		 mov	 ebp, esp

; 75   : 	m_nDecimalDownCount = nDecimalDownCount;

  00003	8b 45 08	 mov	 eax, DWORD PTR _nDecimalDownCount$[ebp]
  00006	89 41 10	 mov	 DWORD PTR [ecx+16], eax

; 76   : }

  00009	5d		 pop	 ebp
  0000a	c2 04 00	 ret	 4
?SetDecimalDownCount@CPrices@@QAEXH@Z ENDP		; CPrices::SetDecimalDownCount
_TEXT	ENDS
; Function compile flags: /Ogtp
; File D:\git\src\IBK\IBK_DRFN\ProjSrc\SrcChartEx\ChartOCX\GraphDraw\GraphDataDrawer.cpp
;	COMDAT ?SetCur@CPrices@@QAEXABN@Z
_TEXT	SEGMENT
_dPrice$ = 8						; size = 4
?SetCur@CPrices@@QAEXABN@Z PROC				; CPrices::SetCur, COMDAT
; _this$ = ecx

; 69   : {

  00000	55		 push	 ebp
  00001	8b ec		 mov	 ebp, esp

; 70   : 	m_dCurPrice = dPrice;

  00003	8b 45 08	 mov	 eax, DWORD PTR _dPrice$[ebp]
  00006	f2 0f 10 00	 movsd	 xmm0, QWORD PTR [eax]
  0000a	f2 0f 11 41 08	 movsd	 QWORD PTR [ecx+8], xmm0

; 71   : }

  0000f	5d		 pop	 ebp
  00010	c2 04 00	 ret	 4
?SetCur@CPrices@@QAEXABN@Z ENDP				; CPrices::SetCur
_TEXT	ENDS
; Function compile flags: /Ogtp
; File D:\git\src\IBK\IBK_DRFN\ProjSrc\SrcChartEx\ChartOCX\GraphDraw\GraphDataDrawer.cpp
;	COMDAT ?SetPrev@CPrices@@QAEXABN@Z
_TEXT	SEGMENT
_dPrice$ = 8						; size = 4
?SetPrev@CPrices@@QAEXABN@Z PROC			; CPrices::SetPrev, COMDAT
; _this$ = ecx

; 64   : {

  00000	55		 push	 ebp
  00001	8b ec		 mov	 ebp, esp

; 65   : 	m_dPrevPrice = dPrice;

  00003	8b 45 08	 mov	 eax, DWORD PTR _dPrice$[ebp]
  00006	f2 0f 10 00	 movsd	 xmm0, QWORD PTR [eax]
  0000a	f2 0f 11 01	 movsd	 QWORD PTR [ecx], xmm0

; 66   : }

  0000e	5d		 pop	 ebp
  0000f	c2 04 00	 ret	 4
?SetPrev@CPrices@@QAEXABN@Z ENDP			; CPrices::SetPrev
_TEXT	ENDS
; Function compile flags: /Ogtp
; File D:\git\src\IBK\IBK_DRFN\ProjSrc\SrcChartEx\ChartOCX\GraphDraw\GraphDataDrawer.cpp
;	COMDAT ??0CPrices@@QAE@ABN00@Z
_TEXT	SEGMENT
_this$ = -4						; size = 4
_dPrev$ = 8						; size = 4
_dCur$ = 12						; size = 4
_dPipSize$ = 16						; size = 4
??0CPrices@@QAE@ABN00@Z PROC				; CPrices::CPrices, COMDAT
; _this$ = ecx

; 60   : {

  00000	55		 push	 ebp
  00001	8b ec		 mov	 ebp, esp
  00003	51		 push	 ecx

; 56   : 	m_dPrevPrice(dPrev),

  00004	8b 45 08	 mov	 eax, DWORD PTR _dPrev$[ebp]
  00007	56		 push	 esi
  00008	8b f1		 mov	 esi, ecx
  0000a	89 75 fc	 mov	 DWORD PTR _this$[ebp], esi
  0000d	f2 0f 10 00	 movsd	 xmm0, QWORD PTR [eax]

; 57   : 	m_dCurPrice(dCur),

  00011	8b 45 0c	 mov	 eax, DWORD PTR _dCur$[ebp]
  00014	f2 0f 11 06	 movsd	 QWORD PTR [esi], xmm0

; 60   : {

  00018	8d 4e 20	 lea	 ecx, DWORD PTR [esi+32]
  0001b	f2 0f 10 00	 movsd	 xmm0, QWORD PTR [eax]
  0001f	8b 45 10	 mov	 eax, DWORD PTR _dPipSize$[ebp]
  00022	f2 0f 11 46 08	 movsd	 QWORD PTR [esi+8], xmm0
  00027	c7 46 10 00 00
	00 00		 mov	 DWORD PTR [esi+16], 0
  0002e	f2 0f 10 00	 movsd	 xmm0, QWORD PTR [eax]
  00032	f2 0f 11 46 18	 movsd	 QWORD PTR [esi+24], xmm0
  00037	ff 15 00 00 00
	00		 call	 DWORD PTR __imp_??0?$CStringT@DV?$StrTraitMFC_DLL@DV?$ChTraitsCRT@D@ATL@@@@@ATL@@QAE@XZ
  0003d	8d 4e 24	 lea	 ecx, DWORD PTR [esi+36]
  00040	ff 15 00 00 00
	00		 call	 DWORD PTR __imp_??0?$CStringT@DV?$StrTraitMFC_DLL@DV?$ChTraitsCRT@D@ATL@@@@@ATL@@QAE@XZ

; 61   : }

  00046	8b c6		 mov	 eax, esi
  00048	5e		 pop	 esi
  00049	8b e5		 mov	 esp, ebp
  0004b	5d		 pop	 ebp
  0004c	c2 0c 00	 ret	 12			; 0000000cH
??0CPrices@@QAE@ABN00@Z ENDP				; CPrices::CPrices
_TEXT	ENDS
; Function compile flags: /Ogtp
; File D:\git\src\IBK\IBK_DRFN\ProjSrc\SrcChartEx\ChartOCX\GraphDraw\GraphDataDrawer.cpp
;	COMDAT ??0CPrices@@QAE@XZ
_TEXT	SEGMENT
_this$ = -4						; size = 4
??0CPrices@@QAE@XZ PROC					; CPrices::CPrices, COMDAT
; _this$ = ecx

; 51   : {

  00000	55		 push	 ebp
  00001	8b ec		 mov	 ebp, esp
  00003	51		 push	 ecx
  00004	56		 push	 esi
  00005	8b f1		 mov	 esi, ecx
  00007	0f 57 c0	 xorps	 xmm0, xmm0
  0000a	89 75 fc	 mov	 DWORD PTR _this$[ebp], esi
  0000d	8d 4e 20	 lea	 ecx, DWORD PTR [esi+32]
  00010	c7 46 10 00 00
	00 00		 mov	 DWORD PTR [esi+16], 0
  00017	0f 11 06	 movups	 XMMWORD PTR [esi], xmm0
  0001a	f2 0f 11 46 18	 movsd	 QWORD PTR [esi+24], xmm0
  0001f	ff 15 00 00 00
	00		 call	 DWORD PTR __imp_??0?$CStringT@DV?$StrTraitMFC_DLL@DV?$ChTraitsCRT@D@ATL@@@@@ATL@@QAE@XZ
  00025	8d 4e 24	 lea	 ecx, DWORD PTR [esi+36]
  00028	ff 15 00 00 00
	00		 call	 DWORD PTR __imp_??0?$CStringT@DV?$StrTraitMFC_DLL@DV?$ChTraitsCRT@D@ATL@@@@@ATL@@QAE@XZ

; 52   : }

  0002e	8b c6		 mov	 eax, esi
  00030	5e		 pop	 esi
  00031	8b e5		 mov	 esp, ebp
  00033	5d		 pop	 ebp
  00034	c3		 ret	 0
??0CPrices@@QAE@XZ ENDP					; CPrices::CPrices
_TEXT	ENDS
; Function compile flags: /Ogtp
; File D:\git\src\IBK\IBK_DRFN\ProjSrc\SrcChartEx\ChartOCX\GraphDraw\GraphDataDrawer.cpp
;	COMDAT ??4CPrices@@QAEAAV0@ABV0@@Z
_TEXT	SEGMENT
_prices$ = 8						; size = 4
??4CPrices@@QAEAAV0@ABV0@@Z PROC			; CPrices::operator=, COMDAT
; _this$ = ecx

; 33   : {

  00000	55		 push	 ebp
  00001	8b ec		 mov	 ebp, esp

; 34   : 	if(this == &prices)

  00003	8b 55 08	 mov	 edx, DWORD PTR _prices$[ebp]
  00006	3b ca		 cmp	 ecx, edx
  00008	74 22		 je	 SHORT $LN6@operator

; 35   : 		return *this;
; 36   : 
; 37   : 	m_dPrevPrice = prices.GetPrev();

  0000a	f2 0f 10 02	 movsd	 xmm0, QWORD PTR [edx]
  0000e	f2 0f 11 01	 movsd	 QWORD PTR [ecx], xmm0

; 38   : 	m_dCurPrice = prices.GetCur();

  00012	f2 0f 10 42 08	 movsd	 xmm0, QWORD PTR [edx+8]
  00017	f2 0f 11 41 08	 movsd	 QWORD PTR [ecx+8], xmm0

; 39   : 	m_nDecimalDownCount = prices.GetDecimalDownCount();

  0001c	8b 42 10	 mov	 eax, DWORD PTR [edx+16]
  0001f	89 41 10	 mov	 DWORD PTR [ecx+16], eax

; 40   : // vntsorl_20110609:[A00000259]     
; 41   : 	m_dPipSize = prices.GetPipSize();

  00022	f2 0f 10 42 18	 movsd	 xmm0, QWORD PTR [edx+24]
  00027	f2 0f 11 41 18	 movsd	 QWORD PTR [ecx+24], xmm0
$LN6@operator:

; 42   : 	return *this;
; 43   : }

  0002c	8b c1		 mov	 eax, ecx
  0002e	5d		 pop	 ebp
  0002f	c2 04 00	 ret	 4
??4CPrices@@QAEAAV0@ABV0@@Z ENDP			; CPrices::operator=
_TEXT	ENDS
; Function compile flags: /Ogtp
; File C:\Program Files (x86)\Microsoft Visual Studio\2019\Community\VC\Tools\MSVC\14.29.30133\atlmfc\include\afxwin1.inl
; File C:\Program Files (x86)\Microsoft Visual Studio\2019\Community\VC\Tools\MSVC\14.29.30133\atlmfc\include\afx.inl
;	COMDAT ??_GCBrush@@UAEPAXI@Z
_TEXT	SEGMENT
___flags$ = 8						; size = 4
??_GCBrush@@UAEPAXI@Z PROC				; CBrush::`scalar deleting destructor', COMDAT
; _this$ = ecx
  00000	55		 push	 ebp
  00001	8b ec		 mov	 ebp, esp
; File C:\Program Files (x86)\Microsoft Visual Studio\2019\Community\VC\Tools\MSVC\14.29.30133\atlmfc\include\afxwin1.inl

; 130  : 	{ }

  00003	56		 push	 esi
  00004	8b f1		 mov	 esi, ecx
  00006	c7 06 00 00 00
	00		 mov	 DWORD PTR [esi], OFFSET ??_7CBrush@@6B@
  0000c	e8 00 00 00 00	 call	 ??1CGdiObject@@UAE@XZ	; CGdiObject::~CGdiObject
  00011	8b 45 08	 mov	 eax, DWORD PTR ___flags$[ebp]
  00014	a8 01		 test	 al, 1
  00016	74 1f		 je	 SHORT $LN12@scalar
  00018	a8 04		 test	 al, 4
  0001a	75 10		 jne	 SHORT $LN3@scalar
; File C:\Program Files (x86)\Microsoft Visual Studio\2019\Community\VC\Tools\MSVC\14.29.30133\atlmfc\include\afx.inl

; 112  : 	{ ::operator delete(p); }

  0001c	56		 push	 esi
  0001d	e8 00 00 00 00	 call	 ??3@YAXPAX@Z		; operator delete
  00022	83 c4 04	 add	 esp, 4
  00025	8b c6		 mov	 eax, esi
  00027	5e		 pop	 esi
  00028	5d		 pop	 ebp
  00029	c2 04 00	 ret	 4
$LN3@scalar:
  0002c	6a 08		 push	 8
  0002e	56		 push	 esi
  0002f	e8 00 00 00 00	 call	 ?__global_delete@@YAXPAXI@Z ; __global_delete
  00034	83 c4 08	 add	 esp, 8
$LN12@scalar:
  00037	8b c6		 mov	 eax, esi
  00039	5e		 pop	 esi
  0003a	5d		 pop	 ebp
  0003b	c2 04 00	 ret	 4
??_GCBrush@@UAEPAXI@Z ENDP				; CBrush::`scalar deleting destructor'
_TEXT	ENDS
; Function compile flags: /Ogtp
; File C:\Program Files (x86)\Microsoft Visual Studio\2019\Community\VC\Tools\MSVC\14.29.30133\atlmfc\include\afxwin1.inl
;	COMDAT ??1CBrush@@UAE@XZ
_TEXT	SEGMENT
??1CBrush@@UAE@XZ PROC					; CBrush::~CBrush, COMDAT
; _this$ = ecx

; 130  : 	{ }

  00000	c7 01 00 00 00
	00		 mov	 DWORD PTR [ecx], OFFSET ??_7CBrush@@6B@
  00006	e9 00 00 00 00	 jmp	 ??1CGdiObject@@UAE@XZ	; CGdiObject::~CGdiObject
??1CBrush@@UAE@XZ ENDP					; CBrush::~CBrush
_TEXT	ENDS
; Function compile flags: /Ogtp
; File C:\Program Files (x86)\Microsoft Visual Studio\2019\Community\VC\Tools\MSVC\14.29.30133\atlmfc\include\afxwin1.inl
; File C:\Program Files (x86)\Microsoft Visual Studio\2019\Community\VC\Tools\MSVC\14.29.30133\atlmfc\include\afx.inl
;	COMDAT ??_GCPen@@UAEPAXI@Z
_TEXT	SEGMENT
___flags$ = 8						; size = 4
??_GCPen@@UAEPAXI@Z PROC				; CPen::`scalar deleting destructor', COMDAT
; _this$ = ecx
  00000	55		 push	 ebp
  00001	8b ec		 mov	 ebp, esp
; File C:\Program Files (x86)\Microsoft Visual Studio\2019\Community\VC\Tools\MSVC\14.29.30133\atlmfc\include\afxwin1.inl

; 106  : 	{ }

  00003	56		 push	 esi
  00004	8b f1		 mov	 esi, ecx
  00006	c7 06 00 00 00
	00		 mov	 DWORD PTR [esi], OFFSET ??_7CPen@@6B@
  0000c	e8 00 00 00 00	 call	 ??1CGdiObject@@UAE@XZ	; CGdiObject::~CGdiObject
  00011	8b 45 08	 mov	 eax, DWORD PTR ___flags$[ebp]
  00014	a8 01		 test	 al, 1
  00016	74 1f		 je	 SHORT $LN12@scalar
  00018	a8 04		 test	 al, 4
  0001a	75 10		 jne	 SHORT $LN3@scalar
; File C:\Program Files (x86)\Microsoft Visual Studio\2019\Community\VC\Tools\MSVC\14.29.30133\atlmfc\include\afx.inl

; 112  : 	{ ::operator delete(p); }

  0001c	56		 push	 esi
  0001d	e8 00 00 00 00	 call	 ??3@YAXPAX@Z		; operator delete
  00022	83 c4 04	 add	 esp, 4
  00025	8b c6		 mov	 eax, esi
  00027	5e		 pop	 esi
  00028	5d		 pop	 ebp
  00029	c2 04 00	 ret	 4
$LN3@scalar:
  0002c	6a 08		 push	 8
  0002e	56		 push	 esi
  0002f	e8 00 00 00 00	 call	 ?__global_delete@@YAXPAXI@Z ; __global_delete
  00034	83 c4 08	 add	 esp, 8
$LN12@scalar:
  00037	8b c6		 mov	 eax, esi
  00039	5e		 pop	 esi
  0003a	5d		 pop	 ebp
  0003b	c2 04 00	 ret	 4
??_GCPen@@UAEPAXI@Z ENDP				; CPen::`scalar deleting destructor'
_TEXT	ENDS
; Function compile flags: /Ogtp
; File C:\Program Files (x86)\Microsoft Visual Studio\2019\Community\VC\Tools\MSVC\14.29.30133\atlmfc\include\afxwin1.inl
;	COMDAT ??1CPen@@UAE@XZ
_TEXT	SEGMENT
??1CPen@@UAE@XZ PROC					; CPen::~CPen, COMDAT
; _this$ = ecx

; 106  : 	{ }

  00000	c7 01 00 00 00
	00		 mov	 DWORD PTR [ecx], OFFSET ??_7CPen@@6B@
  00006	e9 00 00 00 00	 jmp	 ??1CGdiObject@@UAE@XZ	; CGdiObject::~CGdiObject
??1CPen@@UAE@XZ ENDP					; CPen::~CPen
_TEXT	ENDS
; Function compile flags: /Ogtp
; File C:\Program Files (x86)\Microsoft Visual Studio\2019\Community\VC\Tools\MSVC\14.29.30133\atlmfc\include\afx.inl
;	COMDAT ??_GCGdiObject@@UAEPAXI@Z
_TEXT	SEGMENT
___flags$ = 8						; size = 4
??_GCGdiObject@@UAEPAXI@Z PROC				; CGdiObject::`scalar deleting destructor', COMDAT
; _this$ = ecx
  00000	55		 push	 ebp
  00001	8b ec		 mov	 ebp, esp
  00003	56		 push	 esi
  00004	8b f1		 mov	 esi, ecx
  00006	e8 00 00 00 00	 call	 ??1CGdiObject@@UAE@XZ	; CGdiObject::~CGdiObject
  0000b	8b 45 08	 mov	 eax, DWORD PTR ___flags$[ebp]
  0000e	a8 01		 test	 al, 1
  00010	74 1f		 je	 SHORT $LN9@scalar
  00012	a8 04		 test	 al, 4
  00014	75 10		 jne	 SHORT $LN3@scalar

; 112  : 	{ ::operator delete(p); }

  00016	56		 push	 esi
  00017	e8 00 00 00 00	 call	 ??3@YAXPAX@Z		; operator delete
  0001c	83 c4 04	 add	 esp, 4
  0001f	8b c6		 mov	 eax, esi
  00021	5e		 pop	 esi
  00022	5d		 pop	 ebp
  00023	c2 04 00	 ret	 4
$LN3@scalar:
  00026	6a 08		 push	 8
  00028	56		 push	 esi
  00029	e8 00 00 00 00	 call	 ?__global_delete@@YAXPAXI@Z ; __global_delete
  0002e	83 c4 08	 add	 esp, 8
$LN9@scalar:
  00031	8b c6		 mov	 eax, esi
  00033	5e		 pop	 esi
  00034	5d		 pop	 ebp
  00035	c2 04 00	 ret	 4
??_GCGdiObject@@UAEPAXI@Z ENDP				; CGdiObject::`scalar deleting destructor'
_TEXT	ENDS
; Function compile flags: /Ogtp
; File C:\Program Files (x86)\Microsoft Visual Studio\2019\Community\VC\Tools\MSVC\14.29.30133\atlmfc\include\afxwin1.inl
;	COMDAT ??1CGdiObject@@UAE@XZ
_TEXT	SEGMENT
_pException$2 = -540					; size = 4
_strMsg$3 = -536					; size = 4
_szErrorMessage$4 = -532				; size = 512
__$ArrayPad$ = -20					; size = 4
__$EHRec$ = -16						; size = 16
??1CGdiObject@@UAE@XZ PROC				; CGdiObject::~CGdiObject, COMDAT
; _this$ = ecx

; 74   : {

  00000	55		 push	 ebp
  00001	8b ec		 mov	 ebp, esp
  00003	6a ff		 push	 -1
  00005	68 00 00 00 00	 push	 __ehhandler$??1CGdiObject@@UAE@XZ
  0000a	64 a1 00 00 00
	00		 mov	 eax, DWORD PTR fs:0
  00010	50		 push	 eax
  00011	81 ec 10 02 00
	00		 sub	 esp, 528		; 00000210H
  00017	a1 00 00 00 00	 mov	 eax, DWORD PTR ___security_cookie
  0001c	33 c5		 xor	 eax, ebp
  0001e	89 45 ec	 mov	 DWORD PTR __$ArrayPad$[ebp], eax
  00021	53		 push	 ebx
  00022	56		 push	 esi
  00023	57		 push	 edi
  00024	50		 push	 eax
  00025	8d 45 f4	 lea	 eax, DWORD PTR __$EHRec$[ebp+4]
  00028	64 a3 00 00 00
	00		 mov	 DWORD PTR fs:0, eax
  0002e	89 65 f0	 mov	 DWORD PTR __$EHRec$[ebp], esp
  00031	c7 01 00 00 00
	00		 mov	 DWORD PTR [ecx], OFFSET ??_7CGdiObject@@6B@

; 75   : 	AFX_BEGIN_DESTRUCTOR

  00037	c7 45 fc 00 00
	00 00		 mov	 DWORD PTR __$EHRec$[ebp+12], 0

; 76   : 	DeleteObject();

  0003e	e8 00 00 00 00	 call	 ?DeleteObject@CGdiObject@@QAEHXZ ; CGdiObject::DeleteObject
$LN18@CGdiObject:

; 78   : }

  00043	8b 4d f4	 mov	 ecx, DWORD PTR __$EHRec$[ebp+4]
  00046	64 89 0d 00 00
	00 00		 mov	 DWORD PTR fs:0, ecx
  0004d	59		 pop	 ecx
  0004e	5f		 pop	 edi
  0004f	5e		 pop	 esi
  00050	5b		 pop	 ebx
  00051	8b 4d ec	 mov	 ecx, DWORD PTR __$ArrayPad$[ebp]
  00054	33 cd		 xor	 ecx, ebp
  00056	e8 00 00 00 00	 call	 @__security_check_cookie@4
  0005b	8b e5		 mov	 esp, ebp
  0005d	5d		 pop	 ebp
  0005e	c3		 ret	 0
__catch$??1CGdiObject@@UAE@XZ$0:

; 77   : 	AFX_END_DESTRUCTOR

  0005f	8d 8d e8 fd ff
	ff		 lea	 ecx, DWORD PTR _strMsg$3[ebp]
  00065	ff 15 00 00 00
	00		 call	 DWORD PTR __imp_??0?$CStringT@DV?$StrTraitMFC_DLL@DV?$ChTraitsCRT@D@ATL@@@@@ATL@@QAE@XZ
  0006b	8b b5 e4 fd ff
	ff		 mov	 esi, DWORD PTR _pException$2[ebp]
  00071	8d 8d ec fd ff
	ff		 lea	 ecx, DWORD PTR _szErrorMessage$4[ebp]
  00077	6a 00		 push	 0
  00079	68 00 02 00 00	 push	 512			; 00000200H
  0007e	51		 push	 ecx
  0007f	8b 06		 mov	 eax, DWORD PTR [esi]
  00081	8b ce		 mov	 ecx, esi
  00083	c6 45 fc 02	 mov	 BYTE PTR __$EHRec$[ebp+12], 2
  00087	ff 50 14	 call	 DWORD PTR [eax+20]
  0008a	85 c0		 test	 eax, eax
  0008c	74 2a		 je	 SHORT $LN9@CGdiObject
  0008e	8d 85 ec fd ff
	ff		 lea	 eax, DWORD PTR _szErrorMessage$4[ebp]
  00094	50		 push	 eax
  00095	6a 4d		 push	 77			; 0000004dH
  00097	68 00 00 00 00	 push	 OFFSET ??_C@_0HD@JJCHHHNK@C?3?2Program?5Files?5?$CIx86?$CJ?2Microsof@
  0009c	68 00 00 00 00	 push	 OFFSET ??_C@_0BP@OIEOKIDM@Exception?5thrown?5in?5destructor@
  000a1	8d 85 e8 fd ff
	ff		 lea	 eax, DWORD PTR _strMsg$3[ebp]
  000a7	68 00 00 00 00	 push	 OFFSET ??_C@_0BB@HBOOMJBF@?$CFTs?5?$CI?$CFTs?3?$CFd?$CJ?6?$CFTs@
  000ac	50		 push	 eax
  000ad	ff 15 00 00 00
	00		 call	 DWORD PTR __imp_?Format@?$CStringT@DV?$StrTraitMFC_DLL@DV?$ChTraitsCRT@D@ATL@@@@@ATL@@QAAXPBDZZ
  000b3	83 c4 18	 add	 esp, 24			; 00000018H
  000b6	eb 21		 jmp	 SHORT $LN10@CGdiObject
$LN9@CGdiObject:
  000b8	6a 4d		 push	 77			; 0000004dH
  000ba	68 00 00 00 00	 push	 OFFSET ??_C@_0HD@JJCHHHNK@C?3?2Program?5Files?5?$CIx86?$CJ?2Microsof@
  000bf	68 00 00 00 00	 push	 OFFSET ??_C@_0BP@OIEOKIDM@Exception?5thrown?5in?5destructor@
  000c4	8d 85 e8 fd ff
	ff		 lea	 eax, DWORD PTR _strMsg$3[ebp]
  000ca	68 00 00 00 00	 push	 OFFSET ??_C@_0N@OMEMOKLE@?$CFTs?5?$CI?$CFTs?3?$CFd?$CJ@
  000cf	50		 push	 eax
  000d0	ff 15 00 00 00
	00		 call	 DWORD PTR __imp_?Format@?$CStringT@DV?$StrTraitMFC_DLL@DV?$ChTraitsCRT@D@ATL@@@@@ATL@@QAAXPBDZZ
  000d6	83 c4 14	 add	 esp, 20			; 00000014H
$LN10@CGdiObject:
  000d9	6a 00		 push	 0
  000db	6a 00		 push	 0
  000dd	ff b5 e8 fd ff
	ff		 push	 DWORD PTR _strMsg$3[ebp]
  000e3	e8 00 00 00 00	 call	 ?AfxMessageBox@@YGHPBDII@Z ; AfxMessageBox
  000e8	8d 8d e8 fd ff
	ff		 lea	 ecx, DWORD PTR _strMsg$3[ebp]
  000ee	ff 15 00 00 00
	00		 call	 DWORD PTR __imp_??1?$CStringT@DV?$StrTraitMFC_DLL@DV?$ChTraitsCRT@D@ATL@@@@@ATL@@QAE@XZ
  000f4	8b 06		 mov	 eax, DWORD PTR [esi]
  000f6	8b ce		 mov	 ecx, esi
  000f8	6a 01		 push	 1
  000fa	ff 50 04	 call	 DWORD PTR [eax+4]
  000fd	b8 00 00 00 00	 mov	 eax, $LN18@CGdiObject
  00102	c3		 ret	 0
_TEXT	ENDS
;	COMDAT text$x
text$x	SEGMENT
__unwindfunclet$??1CGdiObject@@UAE@XZ$2:
  00000	8d 8d e8 fd ff
	ff		 lea	 ecx, DWORD PTR _strMsg$3[ebp]
  00006	ff 25 00 00 00
	00		 jmp	 DWORD PTR __imp_??1?$CStringT@DV?$StrTraitMFC_DLL@DV?$ChTraitsCRT@D@ATL@@@@@ATL@@QAE@XZ
  0000c	cc		 int	 3
  0000d	cc		 int	 3
  0000e	cc		 int	 3
  0000f	cc		 int	 3
  00010	cc		 int	 3
__ehhandler$??1CGdiObject@@UAE@XZ:
  00011	90		 npad	 1
  00012	90		 npad	 1
  00013	8b 54 24 08	 mov	 edx, DWORD PTR [esp+8]
  00017	8d 42 0c	 lea	 eax, DWORD PTR [edx+12]
  0001a	8b 8a e0 fd ff
	ff		 mov	 ecx, DWORD PTR [edx-544]
  00020	33 c8		 xor	 ecx, eax
  00022	e8 00 00 00 00	 call	 @__security_check_cookie@4
  00027	8b 4a f8	 mov	 ecx, DWORD PTR [edx-8]
  0002a	33 c8		 xor	 ecx, eax
  0002c	e8 00 00 00 00	 call	 @__security_check_cookie@4
  00031	b8 00 00 00 00	 mov	 eax, OFFSET __ehfuncinfo$??1CGdiObject@@UAE@XZ
  00036	e9 00 00 00 00	 jmp	 ___CxxFrameHandler3
text$x	ENDS
??1CGdiObject@@UAE@XZ ENDP				; CGdiObject::~CGdiObject
; Function compile flags: /Ogtp
; File C:\Program Files (x86)\Microsoft Visual Studio\2019\Community\VC\Tools\MSVC\14.29.30133\atlmfc\include\afx.inl
;	COMDAT ?Dump@CObject@@UBEXAAVCDumpContext@@@Z
_TEXT	SEGMENT
___formal$ = 8						; size = 4
?Dump@CObject@@UBEXAAVCDumpContext@@@Z PROC		; CObject::Dump, COMDAT
; _this$ = ecx

; 122  : 	{ /* no dumping in release builds */ }

  00000	c2 04 00	 ret	 4
?Dump@CObject@@UBEXAAVCDumpContext@@@Z ENDP		; CObject::Dump
_TEXT	ENDS
; Function compile flags: /Ogtp
; File C:\Program Files (x86)\Microsoft Visual Studio\2019\Community\VC\Tools\MSVC\14.29.30133\atlmfc\include\afx.inl
;	COMDAT ?AssertValid@CObject@@UBEXXZ
_TEXT	SEGMENT
?AssertValid@CObject@@UBEXXZ PROC			; CObject::AssertValid, COMDAT
; _this$ = ecx

; 120  : 	{ /* no asserts in release builds */ }

  00000	c2 00 00	 ret	 0
?AssertValid@CObject@@UBEXXZ ENDP			; CObject::AssertValid
_TEXT	ENDS
; Function compile flags: /Ogtp
; File C:\Program Files (x86)\Microsoft Visual Studio\2019\Community\VC\Tools\MSVC\14.29.30133\atlmfc\include\afx.inl
;	COMDAT ?Serialize@CObject@@UAEXAAVCArchive@@@Z
_TEXT	SEGMENT
___formal$ = 8						; size = 4
?Serialize@CObject@@UAEXAAVCArchive@@@Z PROC		; CObject::Serialize, COMDAT
; _this$ = ecx

; 106  : 	{ /* CObject does not serialize anything by default */ }

  00000	c2 04 00	 ret	 4
?Serialize@CObject@@UAEXAAVCArchive@@@Z ENDP		; CObject::Serialize
_TEXT	ENDS
; Function compile flags: /Ogtp
; File C:\Program Files (x86)\Microsoft Visual Studio\2019\Community\VC\Tools\MSVC\14.29.30133\atlmfc\include\afx.inl
;	COMDAT ??1CObject@@UAE@XZ
_TEXT	SEGMENT
??1CObject@@UAE@XZ PROC					; CObject::~CObject, COMDAT
; _this$ = ecx

; 104  : 	{ }

  00000	c2 00 00	 ret	 0
??1CObject@@UAE@XZ ENDP					; CObject::~CObject
_TEXT	ENDS
; Function compile flags: /Ogtp
; File D:\git\src\IBK\IBK_DRFN\ProjSrc\SrcChartEx\ChartOCX\GraphDraw\GraphDataDrawer.cpp
;	COMDAT ?__empty_global_delete@@YAXPAXI@Z
_TEXT	SEGMENT
___formal$ = 8						; size = 4
___formal$ = 12						; size = 4
?__empty_global_delete@@YAXPAXI@Z PROC			; __empty_global_delete, COMDAT

  00000	c2 00 00	 ret	 0
?__empty_global_delete@@YAXPAXI@Z ENDP			; __empty_global_delete
_TEXT	ENDS
; Function compile flags: /Ogtp
; File D:\git\src\IBK\IBK_DRFN\ProjSrc\SrcChartEx\ChartOCX\GraphDraw\GraphDataDrawer.cpp
;	COMDAT ?__empty_global_delete@@YAXPAX@Z
_TEXT	SEGMENT
___formal$ = 8						; size = 4
?__empty_global_delete@@YAXPAX@Z PROC			; __empty_global_delete, COMDAT

  00000	c2 00 00	 ret	 0
?__empty_global_delete@@YAXPAX@Z ENDP			; __empty_global_delete
_TEXT	ENDS
END
