; Listing generated by Microsoft (R) Optimizing Compiler Version 19.29.30145.0 

	TITLE	D:\git\src\IBK\IBK_DRFN\#DRfn-CS\_Obj\GraphDraw\OptionDraw.obj
	.686P
	.XMM
	include listing.inc
	.model	flat

INCLUDELIB MSVCRT
INCLUDELIB OLDNAMES

CONST	SEGMENT
?_Fake_alloc@std@@3U_Fake_allocator@1@B	ORG $+1		; std::_Fake_alloc
CONST	ENDS
PUBLIC	?__empty_global_delete@@YAXPAX@Z		; __empty_global_delete
PUBLIC	?__empty_global_delete@@YAXPAXI@Z		; __empty_global_delete
PUBLIC	??1CObject@@UAE@XZ				; CObject::~CObject
PUBLIC	?Serialize@CObject@@UAEXAAVCArchive@@@Z		; CObject::Serialize
PUBLIC	?AssertValid@CObject@@UBEXXZ			; CObject::AssertValid
PUBLIC	?Dump@CObject@@UBEXAAVCDumpContext@@@Z		; CObject::Dump
PUBLIC	??1CGdiObject@@UAE@XZ				; CGdiObject::~CGdiObject
PUBLIC	??_GCGdiObject@@UAEPAXI@Z			; CGdiObject::`scalar deleting destructor'
PUBLIC	??1CPen@@UAE@XZ					; CPen::~CPen
PUBLIC	??_GCPen@@UAEPAXI@Z				; CPen::`scalar deleting destructor'
PUBLIC	??1CFont@@UAE@XZ				; CFont::~CFont
PUBLIC	??_GCFont@@UAEPAXI@Z				; CFont::`scalar deleting destructor'
PUBLIC	?GetTextExtent@CDC@@QBE?AVCSize@@ABV?$CStringT@DV?$StrTraitMFC_DLL@DV?$ChTraitsCRT@D@ATL@@@@@ATL@@@Z ; CDC::GetTextExtent
PUBLIC	??0COptionDraw@@QAE@XZ				; COptionDraw::COptionDraw
PUBLIC	??1COptionDraw@@UAE@XZ				; COptionDraw::~COptionDraw
PUBLIC	?DrawGraph@COptionDraw@@UAE_NPAVCDC@@ABVCRect@@ABVCDisplayAttributes@@ABVCDrawingGraphData@@ABVCSubGraphData@@@Z ; COptionDraw::DrawGraph
PUBLIC	?DrawGraph@COptionDraw@@UAE_NPAVCDC@@ABVCRect@@ABVCDisplayAttributes@@ABVCDrawingGraphData@@ABVCSubGraphData@@PAVCXScaleManager@@@Z ; COptionDraw::DrawGraph
PUBLIC	?DrawMarketProfile@COptionDraw@@AAE_NPAVCDC@@ABVCRect@@ABN2ABVCGraphColor@@ABV?$CList@PAVCPacket@@PAV1@@@@Z ; COptionDraw::DrawMarketProfile
PUBLIC	?DrawFuOpPAndF@COptionDraw@@AAE_NPAVCDC@@ABVCRect@@ABVCDisplayAttributes@@ABVCGraphColor@@ABN4ABV?$CList@PAVCPacket@@PAV1@@@@Z ; COptionDraw::DrawFuOpPAndF
PUBLIC	??_GCOptionDraw@@UAEPAXI@Z			; COptionDraw::`scalar deleting destructor'
PUBLIC	??4CGraphDrawer@@QAEAAV0@ABV0@@Z		; CGraphDrawer::operator=
PUBLIC	??4CGraphDrawer@@QAEAAV0@$$QAV0@@Z		; CGraphDrawer::operator=
PUBLIC	??_R0PAVCException@@@8				; CException * `RTTI Type Descriptor'
PUBLIC	??_C@_02DPKJAMEF@?$CFd@				; `string'
PUBLIC	??_7CGdiObject@@6B@				; CGdiObject::`vftable'
PUBLIC	??_7CPen@@6B@					; CPen::`vftable'
PUBLIC	??_7CFont@@6B@					; CFont::`vftable'
PUBLIC	??_C@_0HD@JJCHHHNK@C?3?2Program?5Files?5?$CIx86?$CJ?2Microsof@ ; `string'
PUBLIC	??_C@_0BP@OIEOKIDM@Exception?5thrown?5in?5destructor@ ; `string'
PUBLIC	??_C@_0BB@HBOOMJBF@?$CFTs?5?$CI?$CFTs?3?$CFd?$CJ?6?$CFTs@ ; `string'
PUBLIC	??_C@_0N@OMEMOKLE@?$CFTs?5?$CI?$CFTs?3?$CFd?$CJ@ ; `string'
PUBLIC	??_R0?AVCObject@@@8				; CObject `RTTI Type Descriptor'
PUBLIC	??_R3CObject@@8					; CObject::`RTTI Class Hierarchy Descriptor'
PUBLIC	??_R2CObject@@8					; CObject::`RTTI Base Class Array'
PUBLIC	??_R1A@?0A@EA@CObject@@8			; CObject::`RTTI Base Class Descriptor at (0,-1,0,64)'
PUBLIC	??_R4CGdiObject@@6B@				; CGdiObject::`RTTI Complete Object Locator'
PUBLIC	??_R0?AVCGdiObject@@@8				; CGdiObject `RTTI Type Descriptor'
PUBLIC	??_R3CGdiObject@@8				; CGdiObject::`RTTI Class Hierarchy Descriptor'
PUBLIC	??_R2CGdiObject@@8				; CGdiObject::`RTTI Base Class Array'
PUBLIC	??_R1A@?0A@EA@CGdiObject@@8			; CGdiObject::`RTTI Base Class Descriptor at (0,-1,0,64)'
PUBLIC	??_R4CPen@@6B@					; CPen::`RTTI Complete Object Locator'
PUBLIC	??_R0?AVCPen@@@8				; CPen `RTTI Type Descriptor'
PUBLIC	??_R3CPen@@8					; CPen::`RTTI Class Hierarchy Descriptor'
PUBLIC	??_R2CPen@@8					; CPen::`RTTI Base Class Array'
PUBLIC	??_R1A@?0A@EA@CPen@@8				; CPen::`RTTI Base Class Descriptor at (0,-1,0,64)'
PUBLIC	??_R4CFont@@6B@					; CFont::`RTTI Complete Object Locator'
PUBLIC	??_R0?AVCFont@@@8				; CFont `RTTI Type Descriptor'
PUBLIC	??_R3CFont@@8					; CFont::`RTTI Class Hierarchy Descriptor'
PUBLIC	??_R2CFont@@8					; CFont::`RTTI Base Class Array'
PUBLIC	??_R1A@?0A@EA@CFont@@8				; CFont::`RTTI Base Class Descriptor at (0,-1,0,64)'
PUBLIC	??_7COptionDraw@@6B@				; COptionDraw::`vftable'
PUBLIC	??_C@_05MPFIAJAP@Arial@				; `string'
PUBLIC	??_C@_03JALODAI@?$CFld@				; `string'
PUBLIC	??_C@_01ELNMCGJD@W@				; `string'
PUBLIC	??_C@_03FKNCMABI@?$CFlu@			; `string'
PUBLIC	??_R4COptionDraw@@6B@				; COptionDraw::`RTTI Complete Object Locator'
PUBLIC	??_R0?AVCOptionDraw@@@8				; COptionDraw `RTTI Type Descriptor'
PUBLIC	??_R3COptionDraw@@8				; COptionDraw::`RTTI Class Hierarchy Descriptor'
PUBLIC	??_R2COptionDraw@@8				; COptionDraw::`RTTI Base Class Array'
PUBLIC	??_R1A@?0A@EA@COptionDraw@@8			; COptionDraw::`RTTI Base Class Descriptor at (0,-1,0,64)'
PUBLIC	??_R1A@?0A@EA@CDraw@@8				; CDraw::`RTTI Base Class Descriptor at (0,-1,0,64)'
PUBLIC	??_R0?AVCDraw@@@8				; CDraw `RTTI Type Descriptor'
PUBLIC	??_R3CDraw@@8					; CDraw::`RTTI Class Hierarchy Descriptor'
PUBLIC	??_R2CDraw@@8					; CDraw::`RTTI Base Class Array'
PUBLIC	__real@4059000000000000
EXTRN	??3@YAXPAX@Z:PROC				; operator delete
EXTRN	??3@YAXPAXI@Z:PROC				; operator delete
EXTRN	?__global_delete@@YAXPAXI@Z:PROC		; __global_delete
EXTRN	__imp__MulDiv@12:PROC
EXTRN	__imp__CreateFontA@56:PROC
EXTRN	__imp__Ellipse@20:PROC
EXTRN	__imp__GetCurrentObject@8:PROC
EXTRN	__imp__GetDeviceCaps@8:PROC
EXTRN	__imp__GetStockObject@4:PROC
EXTRN	__imp__GetTextColor@4:PROC
EXTRN	__imp__GetTextExtentPoint32A@16:PROC
EXTRN	__imp__Rectangle@20:PROC
EXTRN	__imp__SelectObject@8:PROC
EXTRN	__imp__GetTextMetricsA@8:PROC
EXTRN	__imp__InflateRect@12:PROC
EXTRN	?AfxThrowInvalidArgException@@YGXXZ:PROC	; AfxThrowInvalidArgException
EXTRN	__imp_??0?$CStringT@DV?$StrTraitMFC_DLL@DV?$ChTraitsCRT@D@ATL@@@@@ATL@@QAE@XZ:PROC
EXTRN	__imp_??0?$CStringT@DV?$StrTraitMFC_DLL@DV?$ChTraitsCRT@D@ATL@@@@@ATL@@QAE@PBD@Z:PROC
EXTRN	__imp_??1?$CStringT@DV?$StrTraitMFC_DLL@DV?$ChTraitsCRT@D@ATL@@@@@ATL@@QAE@XZ:PROC
EXTRN	__imp_?Format@?$CStringT@DV?$StrTraitMFC_DLL@DV?$ChTraitsCRT@D@ATL@@@@@ATL@@QAAXPBDZZ:PROC
EXTRN	?GetRuntimeClass@CGdiObject@@UBEPAUCRuntimeClass@@XZ:PROC ; CGdiObject::GetRuntimeClass
EXTRN	?FromHandle@CGdiObject@@SGPAV1@PAX@Z:PROC	; CGdiObject::FromHandle
EXTRN	?Attach@CGdiObject@@QAEHPAX@Z:PROC		; CGdiObject::Attach
EXTRN	?DeleteObject@CGdiObject@@QAEHXZ:PROC		; CGdiObject::DeleteObject
EXTRN	??_ECGdiObject@@UAEPAXI@Z:PROC			; CGdiObject::`vector deleting destructor'
EXTRN	?GetRuntimeClass@CPen@@UBEPAUCRuntimeClass@@XZ:PROC ; CPen::GetRuntimeClass
EXTRN	??0CPen@@QAE@HHK@Z:PROC				; CPen::CPen
EXTRN	??_ECPen@@UAEPAXI@Z:PROC			; CPen::`vector deleting destructor'
EXTRN	?GetRuntimeClass@CFont@@UBEPAUCRuntimeClass@@XZ:PROC ; CFont::GetRuntimeClass
EXTRN	??_ECFont@@UAEPAXI@Z:PROC			; CFont::`vector deleting destructor'
EXTRN	?SelectObject@CDC@@QAEPAVCPen@@PAV2@@Z:PROC	; CDC::SelectObject
EXTRN	?SelectObject@CDC@@QAEPAVCBrush@@PAV2@@Z:PROC	; CDC::SelectObject
EXTRN	?SetBkMode@CDC@@QAEHH@Z:PROC			; CDC::SetBkMode
EXTRN	?MoveTo@CDC@@QAE?AVCPoint@@HH@Z:PROC		; CDC::MoveTo
EXTRN	?LineTo@CDC@@QAEHHH@Z:PROC			; CDC::LineTo
EXTRN	?FillSolidRect@CDC@@QAEXPBUtagRECT@@K@Z:PROC	; CDC::FillSolidRect
EXTRN	?AfxMessageBox@@YGHPBDII@Z:PROC			; AfxMessageBox
EXTRN	??0CDraw@@QAE@XZ:PROC				; CDraw::CDraw
EXTRN	??1CDraw@@UAE@XZ:PROC				; CDraw::~CDraw
EXTRN	?DrawGraph@CDraw@@UAE_NPAVCDC@@ABVCRect@@ABVCDisplayAttributes@@ABVCDrawingGraphData@@ABVCSubGraphData@@ABV?$CStringT@DV?$StrTraitMFC_DLL@DV?$ChTraitsCRT@D@ATL@@@@@ATL@@PAVCXScaleManager@@@Z:PROC ; CDraw::DrawGraph
EXTRN	??_ECOptionDraw@@UAEPAXI@Z:PROC			; COptionDraw::`vector deleting destructor'
EXTRN	__imp_?GetDisplayMin@CDisplayDataMinMax@@QBENXZ:PROC
EXTRN	__imp_?GetDisplayMax@CDisplayDataMinMax@@QBENXZ:PROC
EXTRN	__imp_?GetColor1@CGraphColor@@QBEKXZ:PROC
EXTRN	__imp_?GetColor2@CGraphColor@@QBEKXZ:PROC
EXTRN	__imp_?GetColor3@CGraphColor@@QBEKXZ:PROC
EXTRN	__imp_?GetColor4@CGraphColor@@QBEKXZ:PROC
EXTRN	__imp_?GetColor5@CGraphColor@@QBEKXZ:PROC
EXTRN	__imp_?GetColor6@CGraphColor@@QBEKXZ:PROC
EXTRN	__imp_?GetStyle@CSubGraphDataBase@@QBE?AVCGraphStyle@@XZ:PROC
EXTRN	__imp_?GetColor@CSubGraphDataBase@@QBE?AVCGraphColor@@XZ:PROC
EXTRN	?GetDisplayDataVertMinMax@CDrawingGraphData@@QBE?AVCDisplayDataMinMax@@XZ:PROC ; CDrawingGraphData::GetDisplayDataVertMinMax
EXTRN	?GetSubGraphPacketList@CDrawingGraphData@@QBEPAVCSubGraphPacketList@@XZ:PROC ; CDrawingGraphData::GetSubGraphPacketList
EXTRN	?GetSubGraphPacketList@CSubGraphPacketList@@QBEABV?$CList@PAVCPacket@@PAV1@@@XZ:PROC ; CSubGraphPacketList::GetSubGraphPacketList
EXTRN	__imp_?GetnumericDataList@CPacket@@QAEPAV?$CList@NN@@XZ:PROC
EXTRN	__imp_?GetTotalBracketCount@CMProfile@@QAEHXZ:PROC
EXTRN	__imp_?GetMaxBracketCount@CMProfile@@QAEHXZ:PROC
EXTRN	__imp_?GetMaxVolume@CMProfile@@QAEKXZ:PROC
EXTRN	__imp_?GetPriceMinMaxX100@CMProfile@@QAEHAAH0@Z:PROC
EXTRN	__imp_?GetMaxHitting@CMPPacket@@QAEHXZ:PROC
EXTRN	__imp_?GetMaxVolume@CMPPacket@@QAEKXZ:PROC
EXTRN	__imp_?GetMaxBracketCount@CMPPacket@@QBEHXZ:PROC
EXTRN	@__security_check_cookie@4:PROC
EXTRN	___CxxFrameHandler3:PROC
EXTRN	??_7type_info@@6B@:QWORD			; type_info::`vftable'
EXTRN	___security_cookie:DWORD
EXTRN	__fltused:DWORD
;	COMDAT __real@4059000000000000
CONST	SEGMENT
__real@4059000000000000 DQ 04059000000000000r	; 100
CONST	ENDS
;	COMDAT ??_R2CDraw@@8
rdata$r	SEGMENT
??_R2CDraw@@8 DD FLAT:??_R1A@?0A@EA@CDraw@@8		; CDraw::`RTTI Base Class Array'
rdata$r	ENDS
;	COMDAT ??_R3CDraw@@8
rdata$r	SEGMENT
??_R3CDraw@@8 DD 00H					; CDraw::`RTTI Class Hierarchy Descriptor'
	DD	00H
	DD	01H
	DD	FLAT:??_R2CDraw@@8
rdata$r	ENDS
;	COMDAT ??_R0?AVCDraw@@@8
data$rs	SEGMENT
??_R0?AVCDraw@@@8 DD FLAT:??_7type_info@@6B@		; CDraw `RTTI Type Descriptor'
	DD	00H
	DB	'.?AVCDraw@@', 00H
data$rs	ENDS
;	COMDAT ??_R1A@?0A@EA@CDraw@@8
rdata$r	SEGMENT
??_R1A@?0A@EA@CDraw@@8 DD FLAT:??_R0?AVCDraw@@@8	; CDraw::`RTTI Base Class Descriptor at (0,-1,0,64)'
	DD	00H
	DD	00H
	DD	0ffffffffH
	DD	00H
	DD	040H
	DD	FLAT:??_R3CDraw@@8
rdata$r	ENDS
;	COMDAT ??_R1A@?0A@EA@COptionDraw@@8
rdata$r	SEGMENT
??_R1A@?0A@EA@COptionDraw@@8 DD FLAT:??_R0?AVCOptionDraw@@@8 ; COptionDraw::`RTTI Base Class Descriptor at (0,-1,0,64)'
	DD	01H
	DD	00H
	DD	0ffffffffH
	DD	00H
	DD	040H
	DD	FLAT:??_R3COptionDraw@@8
rdata$r	ENDS
;	COMDAT ??_R2COptionDraw@@8
rdata$r	SEGMENT
??_R2COptionDraw@@8 DD FLAT:??_R1A@?0A@EA@COptionDraw@@8 ; COptionDraw::`RTTI Base Class Array'
	DD	FLAT:??_R1A@?0A@EA@CDraw@@8
rdata$r	ENDS
;	COMDAT ??_R3COptionDraw@@8
rdata$r	SEGMENT
??_R3COptionDraw@@8 DD 00H				; COptionDraw::`RTTI Class Hierarchy Descriptor'
	DD	00H
	DD	02H
	DD	FLAT:??_R2COptionDraw@@8
rdata$r	ENDS
;	COMDAT ??_R0?AVCOptionDraw@@@8
data$rs	SEGMENT
??_R0?AVCOptionDraw@@@8 DD FLAT:??_7type_info@@6B@	; COptionDraw `RTTI Type Descriptor'
	DD	00H
	DB	'.?AVCOptionDraw@@', 00H
data$rs	ENDS
;	COMDAT ??_R4COptionDraw@@6B@
rdata$r	SEGMENT
??_R4COptionDraw@@6B@ DD 00H				; COptionDraw::`RTTI Complete Object Locator'
	DD	00H
	DD	00H
	DD	FLAT:??_R0?AVCOptionDraw@@@8
	DD	FLAT:??_R3COptionDraw@@8
rdata$r	ENDS
;	COMDAT ??_C@_03FKNCMABI@?$CFlu@
CONST	SEGMENT
??_C@_03FKNCMABI@?$CFlu@ DB '%lu', 00H			; `string'
CONST	ENDS
;	COMDAT ??_C@_01ELNMCGJD@W@
CONST	SEGMENT
??_C@_01ELNMCGJD@W@ DB 'W', 00H				; `string'
CONST	ENDS
;	COMDAT ??_C@_03JALODAI@?$CFld@
CONST	SEGMENT
??_C@_03JALODAI@?$CFld@ DB '%ld', 00H			; `string'
CONST	ENDS
;	COMDAT ??_C@_05MPFIAJAP@Arial@
CONST	SEGMENT
??_C@_05MPFIAJAP@Arial@ DB 'Arial', 00H			; `string'
CONST	ENDS
;	COMDAT ??_7COptionDraw@@6B@
CONST	SEGMENT
??_7COptionDraw@@6B@ DD FLAT:??_R4COptionDraw@@6B@	; COptionDraw::`vftable'
	DD	FLAT:??_ECOptionDraw@@UAEPAXI@Z
	DD	FLAT:?DrawGraph@CDraw@@UAE_NPAVCDC@@ABVCRect@@ABVCDisplayAttributes@@ABVCDrawingGraphData@@ABVCSubGraphData@@ABV?$CStringT@DV?$StrTraitMFC_DLL@DV?$ChTraitsCRT@D@ATL@@@@@ATL@@PAVCXScaleManager@@@Z
	DD	FLAT:?DrawGraph@COptionDraw@@UAE_NPAVCDC@@ABVCRect@@ABVCDisplayAttributes@@ABVCDrawingGraphData@@ABVCSubGraphData@@@Z
	DD	FLAT:?DrawGraph@COptionDraw@@UAE_NPAVCDC@@ABVCRect@@ABVCDisplayAttributes@@ABVCDrawingGraphData@@ABVCSubGraphData@@PAVCXScaleManager@@@Z
CONST	ENDS
;	COMDAT ??_R1A@?0A@EA@CFont@@8
rdata$r	SEGMENT
??_R1A@?0A@EA@CFont@@8 DD FLAT:??_R0?AVCFont@@@8	; CFont::`RTTI Base Class Descriptor at (0,-1,0,64)'
	DD	02H
	DD	00H
	DD	0ffffffffH
	DD	00H
	DD	040H
	DD	FLAT:??_R3CFont@@8
rdata$r	ENDS
;	COMDAT ??_R2CFont@@8
rdata$r	SEGMENT
??_R2CFont@@8 DD FLAT:??_R1A@?0A@EA@CFont@@8		; CFont::`RTTI Base Class Array'
	DD	FLAT:??_R1A@?0A@EA@CGdiObject@@8
	DD	FLAT:??_R1A@?0A@EA@CObject@@8
rdata$r	ENDS
;	COMDAT ??_R3CFont@@8
rdata$r	SEGMENT
??_R3CFont@@8 DD 00H					; CFont::`RTTI Class Hierarchy Descriptor'
	DD	00H
	DD	03H
	DD	FLAT:??_R2CFont@@8
rdata$r	ENDS
;	COMDAT ??_R0?AVCFont@@@8
data$rs	SEGMENT
??_R0?AVCFont@@@8 DD FLAT:??_7type_info@@6B@		; CFont `RTTI Type Descriptor'
	DD	00H
	DB	'.?AVCFont@@', 00H
data$rs	ENDS
;	COMDAT ??_R4CFont@@6B@
rdata$r	SEGMENT
??_R4CFont@@6B@ DD 00H					; CFont::`RTTI Complete Object Locator'
	DD	00H
	DD	00H
	DD	FLAT:??_R0?AVCFont@@@8
	DD	FLAT:??_R3CFont@@8
rdata$r	ENDS
;	COMDAT ??_R1A@?0A@EA@CPen@@8
rdata$r	SEGMENT
??_R1A@?0A@EA@CPen@@8 DD FLAT:??_R0?AVCPen@@@8		; CPen::`RTTI Base Class Descriptor at (0,-1,0,64)'
	DD	02H
	DD	00H
	DD	0ffffffffH
	DD	00H
	DD	040H
	DD	FLAT:??_R3CPen@@8
rdata$r	ENDS
;	COMDAT ??_R2CPen@@8
rdata$r	SEGMENT
??_R2CPen@@8 DD	FLAT:??_R1A@?0A@EA@CPen@@8		; CPen::`RTTI Base Class Array'
	DD	FLAT:??_R1A@?0A@EA@CGdiObject@@8
	DD	FLAT:??_R1A@?0A@EA@CObject@@8
rdata$r	ENDS
;	COMDAT ??_R3CPen@@8
rdata$r	SEGMENT
??_R3CPen@@8 DD	00H					; CPen::`RTTI Class Hierarchy Descriptor'
	DD	00H
	DD	03H
	DD	FLAT:??_R2CPen@@8
rdata$r	ENDS
;	COMDAT ??_R0?AVCPen@@@8
data$rs	SEGMENT
??_R0?AVCPen@@@8 DD FLAT:??_7type_info@@6B@		; CPen `RTTI Type Descriptor'
	DD	00H
	DB	'.?AVCPen@@', 00H
data$rs	ENDS
;	COMDAT ??_R4CPen@@6B@
rdata$r	SEGMENT
??_R4CPen@@6B@ DD 00H					; CPen::`RTTI Complete Object Locator'
	DD	00H
	DD	00H
	DD	FLAT:??_R0?AVCPen@@@8
	DD	FLAT:??_R3CPen@@8
rdata$r	ENDS
;	COMDAT ??_R1A@?0A@EA@CGdiObject@@8
rdata$r	SEGMENT
??_R1A@?0A@EA@CGdiObject@@8 DD FLAT:??_R0?AVCGdiObject@@@8 ; CGdiObject::`RTTI Base Class Descriptor at (0,-1,0,64)'
	DD	01H
	DD	00H
	DD	0ffffffffH
	DD	00H
	DD	040H
	DD	FLAT:??_R3CGdiObject@@8
rdata$r	ENDS
;	COMDAT ??_R2CGdiObject@@8
rdata$r	SEGMENT
??_R2CGdiObject@@8 DD FLAT:??_R1A@?0A@EA@CGdiObject@@8	; CGdiObject::`RTTI Base Class Array'
	DD	FLAT:??_R1A@?0A@EA@CObject@@8
rdata$r	ENDS
;	COMDAT ??_R3CGdiObject@@8
rdata$r	SEGMENT
??_R3CGdiObject@@8 DD 00H				; CGdiObject::`RTTI Class Hierarchy Descriptor'
	DD	00H
	DD	02H
	DD	FLAT:??_R2CGdiObject@@8
rdata$r	ENDS
;	COMDAT ??_R0?AVCGdiObject@@@8
data$rs	SEGMENT
??_R0?AVCGdiObject@@@8 DD FLAT:??_7type_info@@6B@	; CGdiObject `RTTI Type Descriptor'
	DD	00H
	DB	'.?AVCGdiObject@@', 00H
data$rs	ENDS
;	COMDAT ??_R4CGdiObject@@6B@
rdata$r	SEGMENT
??_R4CGdiObject@@6B@ DD 00H				; CGdiObject::`RTTI Complete Object Locator'
	DD	00H
	DD	00H
	DD	FLAT:??_R0?AVCGdiObject@@@8
	DD	FLAT:??_R3CGdiObject@@8
rdata$r	ENDS
;	COMDAT ??_R1A@?0A@EA@CObject@@8
rdata$r	SEGMENT
??_R1A@?0A@EA@CObject@@8 DD FLAT:??_R0?AVCObject@@@8	; CObject::`RTTI Base Class Descriptor at (0,-1,0,64)'
	DD	00H
	DD	00H
	DD	0ffffffffH
	DD	00H
	DD	040H
	DD	FLAT:??_R3CObject@@8
rdata$r	ENDS
;	COMDAT ??_R2CObject@@8
rdata$r	SEGMENT
??_R2CObject@@8 DD FLAT:??_R1A@?0A@EA@CObject@@8	; CObject::`RTTI Base Class Array'
rdata$r	ENDS
;	COMDAT ??_R3CObject@@8
rdata$r	SEGMENT
??_R3CObject@@8 DD 00H					; CObject::`RTTI Class Hierarchy Descriptor'
	DD	00H
	DD	01H
	DD	FLAT:??_R2CObject@@8
rdata$r	ENDS
;	COMDAT ??_R0?AVCObject@@@8
data$rs	SEGMENT
??_R0?AVCObject@@@8 DD FLAT:??_7type_info@@6B@		; CObject `RTTI Type Descriptor'
	DD	00H
	DB	'.?AVCObject@@', 00H
data$rs	ENDS
;	COMDAT ??_C@_0N@OMEMOKLE@?$CFTs?5?$CI?$CFTs?3?$CFd?$CJ@
CONST	SEGMENT
??_C@_0N@OMEMOKLE@?$CFTs?5?$CI?$CFTs?3?$CFd?$CJ@ DB '%Ts (%Ts:%d)', 00H ; `string'
CONST	ENDS
;	COMDAT ??_C@_0BB@HBOOMJBF@?$CFTs?5?$CI?$CFTs?3?$CFd?$CJ?6?$CFTs@
CONST	SEGMENT
??_C@_0BB@HBOOMJBF@?$CFTs?5?$CI?$CFTs?3?$CFd?$CJ?6?$CFTs@ DB '%Ts (%Ts:%d'
	DB	')', 0aH, '%Ts', 00H				; `string'
CONST	ENDS
;	COMDAT ??_C@_0BP@OIEOKIDM@Exception?5thrown?5in?5destructor@
CONST	SEGMENT
??_C@_0BP@OIEOKIDM@Exception?5thrown?5in?5destructor@ DB 'Exception throw'
	DB	'n in destructor', 00H			; `string'
CONST	ENDS
;	COMDAT ??_C@_0HD@JJCHHHNK@C?3?2Program?5Files?5?$CIx86?$CJ?2Microsof@
CONST	SEGMENT
??_C@_0HD@JJCHHHNK@C?3?2Program?5Files?5?$CIx86?$CJ?2Microsof@ DB 'C:\Pro'
	DB	'gram Files (x86)\Microsoft Visual Studio\2019\Community\VC\To'
	DB	'ols\MSVC\14.29.30133\atlmfc\include\afxwin1.inl', 00H ; `string'
CONST	ENDS
;	COMDAT ??_7CFont@@6B@
CONST	SEGMENT
??_7CFont@@6B@ DD FLAT:??_R4CFont@@6B@			; CFont::`vftable'
	DD	FLAT:?GetRuntimeClass@CFont@@UBEPAUCRuntimeClass@@XZ
	DD	FLAT:??_ECFont@@UAEPAXI@Z
	DD	FLAT:?Serialize@CObject@@UAEXAAVCArchive@@@Z
	DD	FLAT:?AssertValid@CObject@@UBEXXZ
	DD	FLAT:?Dump@CObject@@UBEXAAVCDumpContext@@@Z
CONST	ENDS
;	COMDAT ??_7CPen@@6B@
CONST	SEGMENT
??_7CPen@@6B@ DD FLAT:??_R4CPen@@6B@			; CPen::`vftable'
	DD	FLAT:?GetRuntimeClass@CPen@@UBEPAUCRuntimeClass@@XZ
	DD	FLAT:??_ECPen@@UAEPAXI@Z
	DD	FLAT:?Serialize@CObject@@UAEXAAVCArchive@@@Z
	DD	FLAT:?AssertValid@CObject@@UBEXXZ
	DD	FLAT:?Dump@CObject@@UBEXAAVCDumpContext@@@Z
CONST	ENDS
;	COMDAT ??_7CGdiObject@@6B@
CONST	SEGMENT
??_7CGdiObject@@6B@ DD FLAT:??_R4CGdiObject@@6B@	; CGdiObject::`vftable'
	DD	FLAT:?GetRuntimeClass@CGdiObject@@UBEPAUCRuntimeClass@@XZ
	DD	FLAT:??_ECGdiObject@@UAEPAXI@Z
	DD	FLAT:?Serialize@CObject@@UAEXAAVCArchive@@@Z
	DD	FLAT:?AssertValid@CObject@@UBEXXZ
	DD	FLAT:?Dump@CObject@@UBEXAAVCDumpContext@@@Z
CONST	ENDS
;	COMDAT ??_C@_02DPKJAMEF@?$CFd@
CONST	SEGMENT
??_C@_02DPKJAMEF@?$CFd@ DB '%d', 00H			; `string'
CONST	ENDS
;	COMDAT ??_R0PAVCException@@@8
data$r	SEGMENT
??_R0PAVCException@@@8 DD FLAT:??_7type_info@@6B@	; CException * `RTTI Type Descriptor'
	DD	00H
	DB	'.PAVCException@@', 00H
data$r	ENDS
;	COMDAT xdata$x
xdata$x	SEGMENT
__unwindtable$?DrawFuOpPAndF@COptionDraw@@AAE_NPAVCDC@@ABVCRect@@ABVCDisplayAttributes@@ABVCGraphColor@@ABN4ABV?$CList@PAVCPacket@@PAV1@@@@Z DD 0ffffffffH
	DD	FLAT:__unwindfunclet$?DrawFuOpPAndF@COptionDraw@@AAE_NPAVCDC@@ABVCRect@@ABVCDisplayAttributes@@ABVCGraphColor@@ABN4ABV?$CList@PAVCPacket@@PAV1@@@@Z$0
	DD	00H
	DD	FLAT:__unwindfunclet$?DrawFuOpPAndF@COptionDraw@@AAE_NPAVCDC@@ABVCRect@@ABVCDisplayAttributes@@ABVCGraphColor@@ABN4ABV?$CList@PAVCPacket@@PAV1@@@@Z$1
__ehfuncinfo$?DrawFuOpPAndF@COptionDraw@@AAE_NPAVCDC@@ABVCRect@@ABVCDisplayAttributes@@ABVCGraphColor@@ABN4ABV?$CList@PAVCPacket@@PAV1@@@@Z DD 019930522H
	DD	02H
	DD	FLAT:__unwindtable$?DrawFuOpPAndF@COptionDraw@@AAE_NPAVCDC@@ABVCRect@@ABVCDisplayAttributes@@ABVCGraphColor@@ABN4ABV?$CList@PAVCPacket@@PAV1@@@@Z
	DD	2 DUP(00H)
	DD	2 DUP(00H)
	DD	00H
	DD	01H
xdata$x	ENDS
;	COMDAT xdata$x
xdata$x	SEGMENT
__ehfuncinfo$?DrawMarketProfile@COptionDraw@@AAE_NPAVCDC@@ABVCRect@@ABN2ABVCGraphColor@@ABV?$CList@PAVCPacket@@PAV1@@@@Z DD 019930522H
	DD	05H
	DD	FLAT:__unwindtable$?DrawMarketProfile@COptionDraw@@AAE_NPAVCDC@@ABVCRect@@ABN2ABVCGraphColor@@ABV?$CList@PAVCPacket@@PAV1@@@@Z
	DD	2 DUP(00H)
	DD	2 DUP(00H)
	DD	00H
	DD	01H
__unwindtable$?DrawMarketProfile@COptionDraw@@AAE_NPAVCDC@@ABVCRect@@ABN2ABVCGraphColor@@ABV?$CList@PAVCPacket@@PAV1@@@@Z DD 0ffffffffH
	DD	FLAT:__unwindfunclet$?DrawMarketProfile@COptionDraw@@AAE_NPAVCDC@@ABVCRect@@ABN2ABVCGraphColor@@ABV?$CList@PAVCPacket@@PAV1@@@@Z$0
	DD	00H
	DD	FLAT:__unwindfunclet$?DrawMarketProfile@COptionDraw@@AAE_NPAVCDC@@ABVCRect@@ABN2ABVCGraphColor@@ABV?$CList@PAVCPacket@@PAV1@@@@Z$1
	DD	01H
	DD	FLAT:__unwindfunclet$?DrawMarketProfile@COptionDraw@@AAE_NPAVCDC@@ABVCRect@@ABN2ABVCGraphColor@@ABV?$CList@PAVCPacket@@PAV1@@@@Z$2
	DD	02H
	DD	FLAT:__unwindfunclet$?DrawMarketProfile@COptionDraw@@AAE_NPAVCDC@@ABVCRect@@ABN2ABVCGraphColor@@ABV?$CList@PAVCPacket@@PAV1@@@@Z$4
	DD	03H
	DD	FLAT:__unwindfunclet$?DrawMarketProfile@COptionDraw@@AAE_NPAVCDC@@ABVCRect@@ABN2ABVCGraphColor@@ABV?$CList@PAVCPacket@@PAV1@@@@Z$5
xdata$x	ENDS
;	COMDAT xdata$x
xdata$x	SEGMENT
__catchsym$??1CGdiObject@@UAE@XZ$3 DD 00H
	DD	FLAT:??_R0PAVCException@@@8
	DD	0fffffde4H
	DD	FLAT:__catch$??1CGdiObject@@UAE@XZ$0
__tryblocktable$??1CGdiObject@@UAE@XZ DD 00H
	DD	00H
	DD	02H
	DD	01H
	DD	FLAT:__catchsym$??1CGdiObject@@UAE@XZ$3
__unwindtable$??1CGdiObject@@UAE@XZ DD 0ffffffffH
	DD	00H
	DD	0ffffffffH
	DD	00H
	DD	01H
	DD	FLAT:__unwindfunclet$??1CGdiObject@@UAE@XZ$2
__ehfuncinfo$??1CGdiObject@@UAE@XZ DD 019930522H
	DD	03H
	DD	FLAT:__unwindtable$??1CGdiObject@@UAE@XZ
	DD	01H
	DD	FLAT:__tryblocktable$??1CGdiObject@@UAE@XZ
	DD	2 DUP(00H)
	DD	00H
	DD	05H
xdata$x	ENDS
; Function compile flags: /Ogtp
;	COMDAT ??4CGraphDrawer@@QAEAAV0@$$QAV0@@Z
_TEXT	SEGMENT
___that$ = 8						; size = 4
??4CGraphDrawer@@QAEAAV0@$$QAV0@@Z PROC			; CGraphDrawer::operator=, COMDAT
; _this$ = ecx
  00000	8b c1		 mov	 eax, ecx
  00002	c2 04 00	 ret	 4
??4CGraphDrawer@@QAEAAV0@$$QAV0@@Z ENDP			; CGraphDrawer::operator=
_TEXT	ENDS
; Function compile flags: /Ogtp
;	COMDAT ??4CGraphDrawer@@QAEAAV0@ABV0@@Z
_TEXT	SEGMENT
___that$ = 8						; size = 4
??4CGraphDrawer@@QAEAAV0@ABV0@@Z PROC			; CGraphDrawer::operator=, COMDAT
; _this$ = ecx
  00000	8b c1		 mov	 eax, ecx
  00002	c2 04 00	 ret	 4
??4CGraphDrawer@@QAEAAV0@ABV0@@Z ENDP			; CGraphDrawer::operator=
_TEXT	ENDS
; Function compile flags: /Ogtp
; File D:\git\src\IBK\IBK_DRFN\ProjSrc\SrcChartEx\ChartOCX\GraphDraw\OptionDraw.cpp
;	COMDAT ??_GCOptionDraw@@UAEPAXI@Z
_TEXT	SEGMENT
___flags$ = 8						; size = 4
??_GCOptionDraw@@UAEPAXI@Z PROC				; COptionDraw::`scalar deleting destructor', COMDAT
; _this$ = ecx
  00000	55		 push	 ebp
  00001	8b ec		 mov	 ebp, esp

; 31   : {

  00003	56		 push	 esi
  00004	8b f1		 mov	 esi, ecx
  00006	c7 06 00 00 00
	00		 mov	 DWORD PTR [esi], OFFSET ??_7COptionDraw@@6B@

; 32   : 
; 33   : }

  0000c	e8 00 00 00 00	 call	 ??1CDraw@@UAE@XZ	; CDraw::~CDraw
  00011	f6 45 08 01	 test	 BYTE PTR ___flags$[ebp], 1
  00015	74 0b		 je	 SHORT $LN7@scalar
  00017	6a 28		 push	 40			; 00000028H
  00019	56		 push	 esi
  0001a	e8 00 00 00 00	 call	 ??3@YAXPAXI@Z		; operator delete
  0001f	83 c4 08	 add	 esp, 8
$LN7@scalar:
  00022	8b c6		 mov	 eax, esi
  00024	5e		 pop	 esi
  00025	5d		 pop	 ebp
  00026	c2 04 00	 ret	 4
??_GCOptionDraw@@UAEPAXI@Z ENDP				; COptionDraw::`scalar deleting destructor'
_TEXT	ENDS
; Function compile flags: /Ogtp
; File D:\git\src\IBK\IBK_DRFN\ProjSrc\SrcChartEx\ChartOCX\GraphDraw\OptionDraw.cpp
; File C:\Program Files (x86)\Microsoft Visual Studio\2019\Community\VC\Tools\MSVC\14.29.30133\atlmfc\include\afxtempl.h
; File D:\git\src\IBK\IBK_DRFN\ProjSrc\SrcChartEx\ChartOCX\GraphDraw\OptionDraw.cpp
; File C:\Program Files (x86)\Microsoft Visual Studio\2019\Community\VC\Tools\MSVC\14.29.30133\atlmfc\include\afxtempl.h
; File D:\git\src\IBK\IBK_DRFN\ProjSrc\SrcChartEx\ChartOCX\GraphDraw\OptionDraw.cpp
; File C:\Program Files (x86)\Microsoft Visual Studio\2019\Community\VC\Tools\MSVC\14.29.30133\atlmfc\include\afxtempl.h
; File D:\git\src\IBK\IBK_DRFN\ProjSrc\SrcChartEx\ChartOCX\GraphDraw\OptionDraw.cpp
; File C:\Program Files (x86)\Microsoft Visual Studio\2019\Community\VC\Tools\MSVC\14.29.30133\atlmfc\include\atltypes.h
; File D:\git\src\IBK\IBK_DRFN\ProjSrc\SrcChartEx\ChartOCX\GraphDraw\OptionDraw.cpp
; File C:\Program Files (x86)\Microsoft Visual Studio\2019\Community\VC\Tools\MSVC\14.29.30133\atlmfc\include\atltypes.h
; File D:\git\src\IBK\IBK_DRFN\ProjSrc\SrcChartEx\ChartOCX\GraphDraw\OptionDraw.cpp
; File C:\Program Files (x86)\Microsoft Visual Studio\2019\Community\VC\Tools\MSVC\14.29.30133\atlmfc\include\afxtempl.h
; File D:\git\src\IBK\IBK_DRFN\ProjSrc\SrcChartEx\ChartOCX\GraphDraw\OptionDraw.cpp
; File C:\Program Files (x86)\Microsoft Visual Studio\2019\Community\VC\Tools\MSVC\14.29.30133\atlmfc\include\afxtempl.h
; File D:\git\src\IBK\IBK_DRFN\ProjSrc\SrcChartEx\ChartOCX\GraphDraw\OptionDraw.cpp
; File C:\Program Files (x86)\Microsoft Visual Studio\2019\Community\VC\Tools\MSVC\14.29.30133\atlmfc\include\afxtempl.h
; File D:\git\src\IBK\IBK_DRFN\ProjSrc\SrcChartEx\ChartOCX\GraphDraw\OptionDraw.cpp
; File C:\Program Files (x86)\Microsoft Visual Studio\2019\Community\VC\Tools\MSVC\14.29.30133\atlmfc\include\afxtempl.h
; File D:\git\src\IBK\IBK_DRFN\ProjSrc\SrcChartEx\ChartOCX\GraphDraw\OptionDraw.cpp
; File C:\Program Files (x86)\Microsoft Visual Studio\2019\Community\VC\Tools\MSVC\14.29.30133\atlmfc\include\afxtempl.h
; File D:\git\src\IBK\IBK_DRFN\ProjSrc\SrcChartEx\ChartOCX\GraphDraw\OptionDraw.cpp
; File C:\Program Files (x86)\Microsoft Visual Studio\2019\Community\VC\Tools\MSVC\14.29.30133\atlmfc\include\afxtempl.h
; File D:\git\src\IBK\IBK_DRFN\ProjSrc\SrcChartEx\ChartOCX\GraphDraw\OptionDraw.cpp
; File C:\Program Files (x86)\Microsoft Visual Studio\2019\Community\VC\Tools\MSVC\14.29.30133\atlmfc\include\atltypes.h
; File D:\git\src\IBK\IBK_DRFN\ProjSrc\SrcChartEx\ChartOCX\GraphDraw\OptionDraw.cpp
; File C:\Program Files (x86)\Microsoft Visual Studio\2019\Community\VC\Tools\MSVC\14.29.30133\atlmfc\include\afxwin1.inl
; File D:\git\src\IBK\IBK_DRFN\ProjSrc\SrcChartEx\ChartOCX\GraphDraw\OptionDraw.cpp
; File C:\Program Files (x86)\Microsoft Visual Studio\2019\Community\VC\Tools\MSVC\14.29.30133\atlmfc\include\afxwin1.inl
; File D:\git\src\IBK\IBK_DRFN\ProjSrc\SrcChartEx\ChartOCX\GraphDraw\OptionDraw.cpp
; File C:\Program Files (x86)\Microsoft Visual Studio\2019\Community\VC\Tools\MSVC\14.29.30133\atlmfc\include\afxwin1.inl
; File D:\git\src\IBK\IBK_DRFN\ProjSrc\SrcChartEx\ChartOCX\GraphDraw\OptionDraw.cpp
;	COMDAT ?DrawFuOpPAndF@COptionDraw@@AAE_NPAVCDC@@ABVCRect@@ABVCDisplayAttributes@@ABVCGraphColor@@ABN4ABV?$CList@PAVCPacket@@PAV1@@@@Z
_TEXT	SEGMENT
$T2 = -120						; size = 8
$T3 = -112						; size = 8
_pnPen2$ = -104						; size = 8
_pnPen1$ = -96						; size = 8
_pOldBrush$1$ = -88					; size = 4
_pOldPen$1$ = -84					; size = 4
_posEndPrice$1$ = -80					; size = 4
_nEndPriceX100$1$ = -76					; size = 4
tv705 = -72						; size = 4
tv707 = -68						; size = 4
_nNewDataPriceX100$1$ = -64				; size = 4
_nMarkHeight$2$ = -60					; size = 4
_nViewMaxX100$1$ = -56					; size = 4
_nMLCount$1$ = -52					; size = 4
_pMLNewDatePriceList$1$ = -48				; size = 4
tv709 = -48						; size = 4
tv706 = -44						; size = 4
_nMarkLeft$1$ = -40					; size = 4
_nViewMinX100$1$ = -36					; size = 4
_nMarkBottom$1$ = -32					; size = 4
_pMLEndPriceList$1$ = -32				; size = 4
_posStartPrice$1$ = -28					; size = 4
_nMLIndex$1$ = -24					; size = 4
_nMarkRight$1$ = -20					; size = 4
_nMarkTop$1$ = -16					; size = 4
__$EHRec$ = -12						; size = 12
_pDC$ = 8						; size = 4
_graphRegion$ = 12					; size = 4
_displayAttributes$ = 16				; size = 4
_bUpMark$ = 20						; size = 4
_graphColor$ = 20					; size = 4
tv720 = 24						; size = 4
_dViewMin$ = 24						; size = 4
_posNewDatePrice$1$ = 28				; size = 4
_dViewMax$ = 28						; size = 4
_nMarkWidth$2$ = 32					; size = 4
_pMLStartPriceList$1$ = 32				; size = 4
_packetList$ = 32					; size = 4
?DrawFuOpPAndF@COptionDraw@@AAE_NPAVCDC@@ABVCRect@@ABVCDisplayAttributes@@ABVCGraphColor@@ABN4ABV?$CList@PAVCPacket@@PAV1@@@@Z PROC ; COptionDraw::DrawFuOpPAndF, COMDAT
; _this$ = ecx

; 465  : {

  00000	55		 push	 ebp
  00001	8b ec		 mov	 ebp, esp
  00003	6a ff		 push	 -1
  00005	68 00 00 00 00	 push	 __ehhandler$?DrawFuOpPAndF@COptionDraw@@AAE_NPAVCDC@@ABVCRect@@ABVCDisplayAttributes@@ABVCGraphColor@@ABN4ABV?$CList@PAVCPacket@@PAV1@@@@Z
  0000a	64 a1 00 00 00
	00		 mov	 eax, DWORD PTR fs:0
  00010	50		 push	 eax
  00011	83 ec 6c	 sub	 esp, 108		; 0000006cH
  00014	53		 push	 ebx
  00015	56		 push	 esi
  00016	57		 push	 edi
  00017	a1 00 00 00 00	 mov	 eax, DWORD PTR ___security_cookie
  0001c	33 c5		 xor	 eax, ebp
  0001e	50		 push	 eax
  0001f	8d 45 f4	 lea	 eax, DWORD PTR __$EHRec$[ebp]
  00022	64 a3 00 00 00
	00		 mov	 DWORD PTR fs:0, eax

; 466  : 	// 1. 먼저 P&F 지표 Packet의 Data List를 구한다.
; 467  : 	// 1.1 Packet의 개수를 확인한다.
; 468  : 	if( packetList.GetCount() < 3) return false;

  00028	8b 4d 20	 mov	 ecx, DWORD PTR _packetList$[ebp]
  0002b	83 79 0c 03	 cmp	 DWORD PTR [ecx+12], 3
  0002f	0f 8c c2 03 00
	00		 jl	 $LN9@DrawFuOpPA
; File C:\Program Files (x86)\Microsoft Visual Studio\2019\Community\VC\Tools\MSVC\14.29.30133\atlmfc\include\afxtempl.h

; 817  : 	{ CNode* pNode = (CNode*) rPosition;

  00035	8b 49 04	 mov	 ecx, DWORD PTR [ecx+4]
; File D:\git\src\IBK\IBK_DRFN\ProjSrc\SrcChartEx\ChartOCX\GraphDraw\OptionDraw.cpp

; 471  : 	CList< double, double> *pMLStartPriceList	= packetList.GetNext( posPnF)->GetnumericDataList();	// MarkLine의 시가

  00038	8b 1d 00 00 00
	00		 mov	 ebx, DWORD PTR __imp_?GetnumericDataList@CPacket@@QAEPAV?$CList@NN@@XZ
; File C:\Program Files (x86)\Microsoft Visual Studio\2019\Community\VC\Tools\MSVC\14.29.30133\atlmfc\include\afxtempl.h

; 819  : 		rPosition = (POSITION) pNode->pNext;

  0003e	8b 39		 mov	 edi, DWORD PTR [ecx]
; File D:\git\src\IBK\IBK_DRFN\ProjSrc\SrcChartEx\ChartOCX\GraphDraw\OptionDraw.cpp

; 471  : 	CList< double, double> *pMLStartPriceList	= packetList.GetNext( posPnF)->GetnumericDataList();	// MarkLine의 시가

  00040	8b 49 08	 mov	 ecx, DWORD PTR [ecx+8]
  00043	ff d3		 call	 ebx

; 472  : 	CList< double, double> *pMLEndPriceList		= packetList.GetNext( posPnF)->GetnumericDataList();	// MarkLine의 종가

  00045	8b 4f 08	 mov	 ecx, DWORD PTR [edi+8]
; File C:\Program Files (x86)\Microsoft Visual Studio\2019\Community\VC\Tools\MSVC\14.29.30133\atlmfc\include\afxtempl.h

; 819  : 		rPosition = (POSITION) pNode->pNext;

  00048	8b 37		 mov	 esi, DWORD PTR [edi]
; File D:\git\src\IBK\IBK_DRFN\ProjSrc\SrcChartEx\ChartOCX\GraphDraw\OptionDraw.cpp

; 471  : 	CList< double, double> *pMLStartPriceList	= packetList.GetNext( posPnF)->GetnumericDataList();	// MarkLine의 시가

  0004a	89 45 20	 mov	 DWORD PTR _pMLStartPriceList$1$[ebp], eax

; 472  : 	CList< double, double> *pMLEndPriceList		= packetList.GetNext( posPnF)->GetnumericDataList();	// MarkLine의 종가

  0004d	ff d3		 call	 ebx

; 473  : 	CList< double, double> *pMLNewDatePriceList	= packetList.GetNext( posPnF)->GetnumericDataList();	// MarkLine의 새일자가

  0004f	8b 4e 08	 mov	 ecx, DWORD PTR [esi+8]
  00052	89 45 e0	 mov	 DWORD PTR _pMLEndPriceList$1$[ebp], eax
  00055	ff d3		 call	 ebx

; 474  : 	if( !pMLStartPriceList || !pMLEndPriceList || !pMLNewDatePriceList) return false;

  00057	8b 7d 20	 mov	 edi, DWORD PTR _pMLStartPriceList$1$[ebp]
  0005a	89 45 d0	 mov	 DWORD PTR _pMLNewDatePriceList$1$[ebp], eax
  0005d	85 ff		 test	 edi, edi
  0005f	0f 84 92 03 00
	00		 je	 $LN9@DrawFuOpPA
  00065	83 7d e0 00	 cmp	 DWORD PTR _pMLEndPriceList$1$[ebp], 0
  00069	0f 84 88 03 00
	00		 je	 $LN9@DrawFuOpPA
  0006f	85 c0		 test	 eax, eax
  00071	0f 84 80 03 00
	00		 je	 $LN9@DrawFuOpPA

; 475  : 
; 476  : 	// 2. Drawing에 필요한 환경 값을 산출한다.
; 477  : 	// 2.1 먼저 MarkLine의 개수를 확인한다.
; 478  : 	//	(2004.02.25, 배승원) MarkLine에는 Scale과 가추세 Packet이 항상 포함되어 있다.
; 479  : 	//		그러나 MarkLine의 폭을 산출하기 위하여는 정추세보다 하나 더 많게 설정한다.
; 480  : 	//		(가추세에 의한 급변을 없애기 위함이다.)
; 481  : 	int nMLCount = pMLStartPriceList->GetCount() - 1;
; 482  : 	// 2.2 Draw 영역의 Min/Max Price 값을 산출한다.
; 483  : 	int nViewMinX100 = dViewMin * 100;

  00077	8b 45 18	 mov	 eax, DWORD PTR _dViewMin$[ebp]

; 488  : 	int nMarkHeight = int( ( graphRegion.Height() * 5) / double( nViewMaxX100 - nViewMinX100));

  0007a	8b 4d 0c	 mov	 ecx, DWORD PTR _graphRegion$[ebp]
  0007d	8b 77 0c	 mov	 esi, DWORD PTR [edi+12]
  00080	4e		 dec	 esi
  00081	f2 0f 10 00	 movsd	 xmm0, QWORD PTR [eax]
  00085	f2 0f 59 05 00
	00 00 00	 mulsd	 xmm0, QWORD PTR __real@4059000000000000
  0008d	8b 45 1c	 mov	 eax, DWORD PTR _dViewMax$[ebp]
  00090	89 75 cc	 mov	 DWORD PTR _nMLCount$1$[ebp], esi
  00093	f2 0f 2c d0	 cvttsd2si edx, xmm0
  00097	f2 0f 10 00	 movsd	 xmm0, QWORD PTR [eax]
  0009b	f2 0f 59 05 00
	00 00 00	 mulsd	 xmm0, QWORD PTR __real@4059000000000000
  000a3	8b 41 0c	 mov	 eax, DWORD PTR [ecx+12]
  000a6	2b 41 04	 sub	 eax, DWORD PTR [ecx+4]
  000a9	89 55 dc	 mov	 DWORD PTR _nViewMinX100$1$[ebp], edx
  000ac	f2 0f 2c d8	 cvttsd2si ebx, xmm0
  000b0	8d 04 80	 lea	 eax, DWORD PTR [eax+eax*4]
  000b3	66 0f 6e c8	 movd	 xmm1, eax
  000b7	8b c3		 mov	 eax, ebx
  000b9	89 5d c8	 mov	 DWORD PTR _nViewMaxX100$1$[ebp], ebx
  000bc	2b c2		 sub	 eax, edx

; 489  : 	if( nMarkHeight == 0) nMarkHeight = 1;

  000be	bb 01 00 00 00	 mov	 ebx, 1
  000c3	f3 0f e6 c9	 cvtdq2pd xmm1, xmm1
  000c7	66 0f 6e c0	 movd	 xmm0, eax
  000cb	f3 0f e6 c0	 cvtdq2pd xmm0, xmm0
; File C:\Program Files (x86)\Microsoft Visual Studio\2019\Community\VC\Tools\MSVC\14.29.30133\atlmfc\include\atltypes.h

; 576  : 	return right - left;

  000cf	8b 41 08	 mov	 eax, DWORD PTR [ecx+8]
; File D:\git\src\IBK\IBK_DRFN\ProjSrc\SrcChartEx\ChartOCX\GraphDraw\OptionDraw.cpp

; 488  : 	int nMarkHeight = int( ( graphRegion.Height() * 5) / double( nViewMaxX100 - nViewMinX100));

  000d2	f2 0f 5e c8	 divsd	 xmm1, xmm0
  000d6	f2 0f 2c d1	 cvttsd2si edx, xmm1

; 489  : 	if( nMarkHeight == 0) nMarkHeight = 1;

  000da	85 d2		 test	 edx, edx
  000dc	0f 44 d3	 cmove	 edx, ebx
; File C:\Program Files (x86)\Microsoft Visual Studio\2019\Community\VC\Tools\MSVC\14.29.30133\atlmfc\include\atltypes.h

; 576  : 	return right - left;

  000df	2b 01		 sub	 eax, DWORD PTR [ecx]
; File D:\git\src\IBK\IBK_DRFN\ProjSrc\SrcChartEx\ChartOCX\GraphDraw\OptionDraw.cpp

; 494  : 	if( graphRegion.Width() < nMarkWidth * nMLCount)

  000e1	8b ca		 mov	 ecx, edx
  000e3	89 55 c4	 mov	 DWORD PTR _nMarkHeight$2$[ebp], edx
  000e6	0f af ce	 imul	 ecx, esi
  000e9	89 55 20	 mov	 DWORD PTR _nMarkWidth$2$[ebp], edx
  000ec	3b c1		 cmp	 eax, ecx
  000ee	7d 0b		 jge	 SHORT $LN12@DrawFuOpPA

; 495  : 	{
; 496  : 		nMarkWidth = graphRegion.Width() / nMLCount;

  000f0	99		 cdq
  000f1	f7 fe		 idiv	 esi

; 497  : 		if( nMarkWidth == 0) nMarkWidth = 1;

  000f3	85 c0		 test	 eax, eax
  000f5	0f 44 c3	 cmove	 eax, ebx
  000f8	89 45 20	 mov	 DWORD PTR _nMarkWidth$2$[ebp], eax
$LN12@DrawFuOpPA:

; 498  : 	}
; 499  : 
; 500  : 	// 4. Drawing을 위하여 DC 설정을 처리한다.
; 501  : 	// 4.1 Drawing에 필요한 Pen을 생성한다.
; 502  : 	CPen pnPen1(	PS_SOLID, 1, graphColor.GetColor1());

  000fb	8b 4d 14	 mov	 ecx, DWORD PTR _graphColor$[ebp]
  000fe	ff 15 00 00 00
	00		 call	 DWORD PTR __imp_?GetColor1@CGraphColor@@QBEKXZ
  00104	50		 push	 eax
  00105	6a 01		 push	 1
  00107	6a 00		 push	 0
  00109	8d 4d a0	 lea	 ecx, DWORD PTR _pnPen1$[ebp]
  0010c	e8 00 00 00 00	 call	 ??0CPen@@QAE@HHK@Z	; CPen::CPen

; 503  : 	CPen pnPen2(	PS_SOLID, 1, graphColor.GetColor3());

  00111	8b 4d 14	 mov	 ecx, DWORD PTR _graphColor$[ebp]
  00114	c7 45 fc 00 00
	00 00		 mov	 DWORD PTR __$EHRec$[ebp+8], 0
  0011b	ff 15 00 00 00
	00		 call	 DWORD PTR __imp_?GetColor3@CGraphColor@@QBEKXZ
  00121	50		 push	 eax
  00122	6a 01		 push	 1
  00124	6a 00		 push	 0
  00126	8d 4d 98	 lea	 ecx, DWORD PTR _pnPen2$[ebp]
  00129	e8 00 00 00 00	 call	 ??0CPen@@QAE@HHK@Z	; CPen::CPen

; 504  : 	// 4.2 첫 Marking 색상을 설정한다.
; 505  : 	CPen* pOldPen = ( CPen *)pDC->SelectObject( &pnPen1);

  0012e	8b 5d 08	 mov	 ebx, DWORD PTR _pDC$[ebp]
  00131	8d 45 a0	 lea	 eax, DWORD PTR _pnPen1$[ebp]
  00134	50		 push	 eax
  00135	8b cb		 mov	 ecx, ebx
  00137	c6 45 fc 01	 mov	 BYTE PTR __$EHRec$[ebp+8], 1
  0013b	e8 00 00 00 00	 call	 ?SelectObject@CDC@@QAEPAVCPen@@PAV2@@Z ; CDC::SelectObject

; 506  : 	// 4.3 NULL Brush를 설정한다.
; 507  : 	CBrush *pOldBrush = ( CBrush *)pDC->SelectStockObject( NULL_BRUSH);

  00140	8b 13		 mov	 edx, DWORD PTR [ebx]
  00142	8b cb		 mov	 ecx, ebx
  00144	6a 05		 push	 5
  00146	89 45 ac	 mov	 DWORD PTR _pOldPen$1$[ebp], eax
  00149	ff 52 2c	 call	 DWORD PTR [edx+44]

; 508  : 
; 509  : 	// 5. Mark Line을 Iterating하면서 출력한다.
; 510  : 	// 5.0 반목 처리에 필요한 변수를 정의한다.
; 511  : 	BOOL	bUpMark;
; 512  : 	int		nMarkLeft, nMarkTop, nMarkRight, nMarkBottom;
; 513  : 	int		nDrawPriceX100, nStartPriceX100, nEndPriceX100, nNewDataPriceX100;
; 514  : 	int		nMarkDirectionPriceX100, nUpLimitPriceX100, nDownLimitPriceX100;
; 515  : 	// 5.1 Data List의 Head Position을 산출한다.
; 516  : 	int			nMLIndex = 0;
; 517  : 	POSITION	posStartPrice	= pMLStartPriceList->GetHeadPosition();

  0014c	8b 77 04	 mov	 esi, DWORD PTR [edi+4]
  0014f	33 d2		 xor	 edx, edx
  00151	89 45 a8	 mov	 DWORD PTR _pOldBrush$1$[ebp], eax

; 518  : 	POSITION	posEndPrice		= pMLEndPriceList->GetHeadPosition();

  00154	8b 45 e0	 mov	 eax, DWORD PTR _pMLEndPriceList$1$[ebp]
  00157	89 55 e8	 mov	 DWORD PTR _nMLIndex$1$[ebp], edx
  0015a	89 75 e4	 mov	 DWORD PTR _posStartPrice$1$[ebp], esi
  0015d	8b 48 04	 mov	 ecx, DWORD PTR [eax+4]

; 519  : 	POSITION	posNewDatePrice	= pMLNewDatePriceList->GetHeadPosition();

  00160	8b 45 d0	 mov	 eax, DWORD PTR _pMLNewDatePriceList$1$[ebp]
  00163	8b 78 04	 mov	 edi, DWORD PTR [eax+4]
  00166	89 7d 1c	 mov	 DWORD PTR _posNewDatePrice$1$[ebp], edi

; 520  : 	// (2004.02.25, 배승원) Scale Packet을 무시한다. (물론 있는지 확인하고)
; 521  : 	if( posStartPrice && posEndPrice && posNewDatePrice)

  00169	85 f6		 test	 esi, esi
  0016b	0f 84 2e 02 00
	00		 je	 $LN78@DrawFuOpPA
  00171	85 c9		 test	 ecx, ecx
  00173	74 18		 je	 SHORT $LN76@DrawFuOpPA
  00175	85 ff		 test	 edi, edi
  00177	74 14		 je	 SHORT $LN76@DrawFuOpPA
; File C:\Program Files (x86)\Microsoft Visual Studio\2019\Community\VC\Tools\MSVC\14.29.30133\atlmfc\include\afxtempl.h

; 813  : 		rPosition = (POSITION) pNode->pNext;

  00179	8b 06		 mov	 eax, DWORD PTR [esi]
  0017b	8b 3f		 mov	 edi, DWORD PTR [edi]
  0017d	8b 09		 mov	 ecx, DWORD PTR [ecx]
  0017f	89 45 e4	 mov	 DWORD PTR _posStartPrice$1$[ebp], eax
  00182	89 7d 1c	 mov	 DWORD PTR _posNewDatePrice$1$[ebp], edi
; File D:\git\src\IBK\IBK_DRFN\ProjSrc\SrcChartEx\ChartOCX\GraphDraw\OptionDraw.cpp

; 527  : 	while( posStartPrice && posEndPrice && posNewDatePrice)

  00185	85 c0		 test	 eax, eax
  00187	0f 84 12 02 00
	00		 je	 $LN78@DrawFuOpPA
$LN76@DrawFuOpPA:
  0018d	33 f6		 xor	 esi, esi
  0018f	89 75 18	 mov	 DWORD PTR tv720[ebp], esi
$LL2@DrawFuOpPA:
  00192	85 c9		 test	 ecx, ecx
  00194	0f 84 05 02 00
	00		 je	 $LN78@DrawFuOpPA
  0019a	85 ff		 test	 edi, edi
  0019c	0f 84 fd 01 00
	00		 je	 $LN78@DrawFuOpPA
; File C:\Program Files (x86)\Microsoft Visual Studio\2019\Community\VC\Tools\MSVC\14.29.30133\atlmfc\include\afxtempl.h

; 811  : 	{ CNode* pNode = (CNode*) rPosition;

  001a2	8b 5d e4	 mov	 ebx, DWORD PTR _posStartPrice$1$[ebp]
  001a5	8b c3		 mov	 eax, ebx
; File D:\git\src\IBK\IBK_DRFN\ProjSrc\SrcChartEx\ChartOCX\GraphDraw\OptionDraw.cpp

; 530  : 		nStartPriceX100		= int( pMLStartPriceList->GetNext(		posStartPrice	) * 100);

  001a7	f2 0f 10 0d 00
	00 00 00	 movsd	 xmm1, QWORD PTR __real@4059000000000000
  001af	f2 0f 10 40 08	 movsd	 xmm0, QWORD PTR [eax+8]
; File C:\Program Files (x86)\Microsoft Visual Studio\2019\Community\VC\Tools\MSVC\14.29.30133\atlmfc\include\afxtempl.h

; 811  : 	{ CNode* pNode = (CNode*) rPosition;

  001b4	8b c1		 mov	 eax, ecx

; 813  : 		rPosition = (POSITION) pNode->pNext;

  001b6	8b 09		 mov	 ecx, DWORD PTR [ecx]
  001b8	8b 1b		 mov	 ebx, DWORD PTR [ebx]
; File D:\git\src\IBK\IBK_DRFN\ProjSrc\SrcChartEx\ChartOCX\GraphDraw\OptionDraw.cpp

; 530  : 		nStartPriceX100		= int( pMLStartPriceList->GetNext(		posStartPrice	) * 100);

  001ba	f2 0f 59 c1	 mulsd	 xmm0, xmm1
; File C:\Program Files (x86)\Microsoft Visual Studio\2019\Community\VC\Tools\MSVC\14.29.30133\atlmfc\include\afxtempl.h

; 813  : 		rPosition = (POSITION) pNode->pNext;

  001be	89 4d b0	 mov	 DWORD PTR _posEndPrice$1$[ebp], ecx
  001c1	89 5d e4	 mov	 DWORD PTR _posStartPrice$1$[ebp], ebx
; File D:\git\src\IBK\IBK_DRFN\ProjSrc\SrcChartEx\ChartOCX\GraphDraw\OptionDraw.cpp

; 530  : 		nStartPriceX100		= int( pMLStartPriceList->GetNext(		posStartPrice	) * 100);

  001c4	f2 0f 2c f8	 cvttsd2si edi, xmm0

; 531  : 		nEndPriceX100		= int( pMLEndPriceList->GetNext(		posEndPrice		) * 100);

  001c8	f2 0f 10 40 08	 movsd	 xmm0, QWORD PTR [eax+8]
; File C:\Program Files (x86)\Microsoft Visual Studio\2019\Community\VC\Tools\MSVC\14.29.30133\atlmfc\include\afxtempl.h

; 811  : 	{ CNode* pNode = (CNode*) rPosition;

  001cd	8b 45 1c	 mov	 eax, DWORD PTR _posNewDatePrice$1$[ebp]

; 813  : 		rPosition = (POSITION) pNode->pNext;

  001d0	8b d8		 mov	 ebx, eax
; File D:\git\src\IBK\IBK_DRFN\ProjSrc\SrcChartEx\ChartOCX\GraphDraw\OptionDraw.cpp

; 531  : 		nEndPriceX100		= int( pMLEndPriceList->GetNext(		posEndPrice		) * 100);

  001d2	f2 0f 59 c1	 mulsd	 xmm0, xmm1
; File C:\Program Files (x86)\Microsoft Visual Studio\2019\Community\VC\Tools\MSVC\14.29.30133\atlmfc\include\afxtempl.h

; 813  : 		rPosition = (POSITION) pNode->pNext;

  001d6	8b 1b		 mov	 ebx, DWORD PTR [ebx]
  001d8	89 5d 1c	 mov	 DWORD PTR _posNewDatePrice$1$[ebp], ebx
; File D:\git\src\IBK\IBK_DRFN\ProjSrc\SrcChartEx\ChartOCX\GraphDraw\OptionDraw.cpp

; 542  : 			&& ( ( bUpMark && nStartPriceX100 <= nEndPriceX100)

  001db	8b 5d 08	 mov	 ebx, DWORD PTR _pDC$[ebp]
  001de	f2 0f 2c c8	 cvttsd2si ecx, xmm0
  001e2	f2 0f 10 40 08	 movsd	 xmm0, QWORD PTR [eax+8]
  001e7	f2 0f 59 c1	 mulsd	 xmm0, xmm1
  001eb	f2 0f 2c c0	 cvttsd2si eax, xmm0
  001ef	89 45 c0	 mov	 DWORD PTR _nNewDataPriceX100$1$[ebp], eax
  001f2	85 d2		 test	 edx, edx
  001f4	74 39		 je	 SHORT $LN80@DrawFuOpPA
  001f6	8b 45 cc	 mov	 eax, DWORD PTR _nMLCount$1$[ebp]
  001f9	48		 dec	 eax
  001fa	3b d0		 cmp	 edx, eax
  001fc	8b 55 14	 mov	 edx, DWORD PTR _bUpMark$[ebp]
  001ff	75 31		 jne	 SHORT $LN81@DrawFuOpPA
  00201	85 d2		 test	 edx, edx
  00203	74 19		 je	 SHORT $LN74@DrawFuOpPA
  00205	3b f9		 cmp	 edi, ecx
  00207	7e 19		 jle	 SHORT $LN15@DrawFuOpPA
  00209	8b 45 0c	 mov	 eax, DWORD PTR _graphRegion$[ebp]
  0020c	8b 30		 mov	 esi, DWORD PTR [eax]
  0020e	03 75 18	 add	 esi, DWORD PTR tv720[ebp]
  00211	8b 45 20	 mov	 eax, DWORD PTR _nMarkWidth$2$[ebp]
  00214	03 c6		 add	 eax, esi
  00216	89 75 d8	 mov	 DWORD PTR _nMarkLeft$1$[ebp], esi
  00219	89 45 ec	 mov	 DWORD PTR _nMarkRight$1$[ebp], eax
  0021c	eb 2b		 jmp	 SHORT $LN75@DrawFuOpPA
$LN74@DrawFuOpPA:
  0021e	3b cf		 cmp	 ecx, edi
  00220	7f 10		 jg	 SHORT $LN81@DrawFuOpPA
$LN15@DrawFuOpPA:

; 543  : 				|| ( !bUpMark && nEndPriceX100 <= nStartPriceX100)))	nMLIndex--;

  00222	ff 4d e8	 dec	 DWORD PTR _nMLIndex$1$[ebp]
  00225	8b 45 20	 mov	 eax, DWORD PTR _nMarkWidth$2$[ebp]
  00228	2b f0		 sub	 esi, eax
  0022a	89 75 18	 mov	 DWORD PTR tv720[ebp], esi
  0022d	eb 06		 jmp	 SHORT $LN14@DrawFuOpPA
$LN80@DrawFuOpPA:

; 542  : 			&& ( ( bUpMark && nStartPriceX100 <= nEndPriceX100)

  0022f	8b 55 14	 mov	 edx, DWORD PTR _bUpMark$[ebp]
$LN81@DrawFuOpPA:

; 544  : 
; 545  : 		// 5.3 Mark Line의 Left 좌표와 Right 좌표를 산출한다.
; 546  : 		nMarkLeft		= graphRegion.left + nMarkWidth * nMLIndex;

  00232	8b 45 20	 mov	 eax, DWORD PTR _nMarkWidth$2$[ebp]
$LN14@DrawFuOpPA:
  00235	8b 75 0c	 mov	 esi, DWORD PTR _graphRegion$[ebp]
  00238	8b 36		 mov	 esi, DWORD PTR [esi]
  0023a	03 75 18	 add	 esi, DWORD PTR tv720[ebp]

; 547  : 		nMarkRight		= nMarkLeft + nMarkWidth;

  0023d	03 c6		 add	 eax, esi
  0023f	89 75 d8	 mov	 DWORD PTR _nMarkLeft$1$[ebp], esi
  00242	89 45 ec	 mov	 DWORD PTR _nMarkRight$1$[ebp], eax

; 548  : 
; 549  : 		// 5.4 상승과 하락에 따라 구분하여 Drawing을 처리할 수 있도록 Flag을 설정하고,
; 550  : 		//		아래에서부터 위로 Drawing할 수 있도록 Mark Drawing Direction Price와
; 551  : 		//			Up/Down Limit Price를 조정한다.
; 552  : 		// (2004.02.25, 배승원) 만약 MarkLine의 시가와 고가가 같은 값이면,
; 553  : 		//			형식 가추세 Packet이거나 연장 가추세 Packet이다.
; 554  : 		//		따라서, 이경우 추세 방향을 바꾸지 않는다.
; 555  : 		if( nStartPriceX100 != nEndPriceX100) bUpMark = ( nStartPriceX100 < nEndPriceX100);

  00245	3b f9		 cmp	 edi, ecx
  00247	74 0a		 je	 SHORT $LN17@DrawFuOpPA
$LN75@DrawFuOpPA:
  00249	33 d2		 xor	 edx, edx
  0024b	3b f9		 cmp	 edi, ecx
  0024d	0f 9c c2	 setl	 dl
  00250	89 55 14	 mov	 DWORD PTR _bUpMark$[ebp], edx
$LN17@DrawFuOpPA:

; 570  : 		for( nDrawPriceX100 = nStartPriceX100; nDownLimitPriceX100 <= nDrawPriceX100 && nDrawPriceX100 <= nUpLimitPriceX100; nDrawPriceX100 += nMarkDirectionPriceX100)

  00253	85 d2		 test	 edx, edx
  00255	8b c7		 mov	 eax, edi
  00257	ba fb ff ff ff	 mov	 edx, -5			; fffffffbH
  0025c	0f 44 c1	 cmove	 eax, ecx
  0025f	0f 44 cf	 cmove	 ecx, edi
  00262	89 45 d0	 mov	 DWORD PTR tv709[ebp], eax
  00265	b8 05 00 00 00	 mov	 eax, 5
  0026a	0f 44 c2	 cmove	 eax, edx
  0026d	89 4d b4	 mov	 DWORD PTR _nEndPriceX100$1$[ebp], ecx
  00270	89 45 bc	 mov	 DWORD PTR tv707[ebp], eax
  00273	39 7d d0	 cmp	 DWORD PTR tv709[ebp], edi
  00276	0f 8f 03 01 00
	00		 jg	 $LN77@DrawFuOpPA
  0027c	8d 04 80	 lea	 eax, DWORD PTR [eax+eax*4]
  0027f	03 c0		 add	 eax, eax
  00281	89 45 b8	 mov	 DWORD PTR tv705[ebp], eax
  00284	8b c7		 mov	 eax, edi
  00286	2b 45 dc	 sub	 eax, DWORD PTR _nViewMinX100$1$[ebp]
  00289	8d 04 80	 lea	 eax, DWORD PTR [eax+eax*4]
  0028c	8d 14 45 e7 ff
	ff ff		 lea	 edx, DWORD PTR [eax*2-25]
  00293	89 55 d4	 mov	 DWORD PTR tv706[ebp], edx
$LL6@DrawFuOpPA:
  00296	3b f9		 cmp	 edi, ecx
  00298	0f 8f e1 00 00
	00		 jg	 $LN77@DrawFuOpPA
; File C:\Program Files (x86)\Microsoft Visual Studio\2019\Community\VC\Tools\MSVC\14.29.30133\atlmfc\include\atltypes.h

; 581  : 	return bottom - top;

  0029e	8b 45 0c	 mov	 eax, DWORD PTR _graphRegion$[ebp]
  002a1	8b 5d 0c	 mov	 ebx, DWORD PTR _graphRegion$[ebp]
  002a4	8b 48 0c	 mov	 ecx, DWORD PTR [eax+12]
  002a7	8b c1		 mov	 eax, ecx
  002a9	2b 43 04	 sub	 eax, DWORD PTR [ebx+4]
; File D:\git\src\IBK\IBK_DRFN\ProjSrc\SrcChartEx\ChartOCX\GraphDraw\OptionDraw.cpp

; 574  : 			nMarkBottom = graphRegion.bottom - int( ( graphRegion.Height() * ( nDrawPriceX100 * 10 - 25  - nViewMinX100 * 10)) / double( nViewMaxX100 * 10 - nViewMinX100 * 10));

  002ac	0f af c2	 imul	 eax, edx

; 575  : 			nMarkTop	= nMarkBottom - nMarkHeight;
; 576  : 
; 577  : 			// 5.5.2 일자가 변경된 가격이면, 색상을 변경한다.
; 578  : 			if( nDrawPriceX100 == nNewDataPriceX100)

  002af	8b 5d 08	 mov	 ebx, DWORD PTR _pDC$[ebp]
  002b2	66 0f 6e c8	 movd	 xmm1, eax
  002b6	8b 45 dc	 mov	 eax, DWORD PTR _nViewMinX100$1$[ebp]
  002b9	2b 45 c8	 sub	 eax, DWORD PTR _nViewMaxX100$1$[ebp]
  002bc	f3 0f e6 c9	 cvtdq2pd xmm1, xmm1
  002c0	8d 04 80	 lea	 eax, DWORD PTR [eax+eax*4]
  002c3	03 c0		 add	 eax, eax
  002c5	66 0f 6e c0	 movd	 xmm0, eax
  002c9	f3 0f e6 c0	 cvtdq2pd xmm0, xmm0
  002cd	f2 0f 5e c8	 divsd	 xmm1, xmm0
  002d1	f2 0f 2c c1	 cvttsd2si eax, xmm1
  002d5	03 c1		 add	 eax, ecx
  002d7	8b c8		 mov	 ecx, eax
  002d9	89 45 e0	 mov	 DWORD PTR _nMarkBottom$1$[ebp], eax
  002dc	2b 4d c4	 sub	 ecx, DWORD PTR _nMarkHeight$2$[ebp]
  002df	89 4d f0	 mov	 DWORD PTR _nMarkTop$1$[ebp], ecx
  002e2	3b 7d c0	 cmp	 edi, DWORD PTR _nNewDataPriceX100$1$[ebp]
  002e5	75 2c		 jne	 SHORT $LN22@DrawFuOpPA
; File C:\Program Files (x86)\Microsoft Visual Studio\2019\Community\VC\Tools\MSVC\14.29.30133\atlmfc\include\afxwin1.inl

; 790  : 	{ ASSERT(m_hAttribDC != NULL); return CPen::FromHandle((HPEN)::GetCurrentObject(m_hAttribDC, OBJ_PEN)); }

  002e7	6a 01		 push	 1
  002e9	ff 73 08	 push	 DWORD PTR [ebx+8]
  002ec	ff 15 00 00 00
	00		 call	 DWORD PTR __imp__GetCurrentObject@8

; 102  : 	{ return (CPen*) CGdiObject::FromHandle(hPen); }

  002f2	50		 push	 eax
  002f3	e8 00 00 00 00	 call	 ?FromHandle@CGdiObject@@SGPAV1@PAX@Z ; CGdiObject::FromHandle
; File D:\git\src\IBK\IBK_DRFN\ProjSrc\SrcChartEx\ChartOCX\GraphDraw\OptionDraw.cpp

; 580  : 				if( pDC->GetCurrentPen() == &pnPen1) pDC->SelectObject( &pnPen2);

  002f8	8d 4d a0	 lea	 ecx, DWORD PTR _pnPen1$[ebp]
  002fb	3b c1		 cmp	 eax, ecx
  002fd	8b cb		 mov	 ecx, ebx
  002ff	8d 45 98	 lea	 eax, DWORD PTR _pnPen2$[ebp]
  00302	74 03		 je	 SHORT $LN84@DrawFuOpPA

; 581  : 				else pDC->SelectObject( &pnPen1);

  00304	8d 45 a0	 lea	 eax, DWORD PTR _pnPen1$[ebp]
$LN84@DrawFuOpPA:

; 582  : 			}
; 583  : 
; 584  : 			// 5.5.3 Mark를 출력한다.
; 585  : 			// 5.5.3.1 상승 Mark를 출력한다. (X Marking)
; 586  : 			//	(주의, LineTo는 마지막 점을 출력하지 않는 것을 감안하여 Start 좌표도 그려지지 않도록 조정한다.)
; 587  : 			if( bUpMark)

  00307	50		 push	 eax
  00308	e8 00 00 00 00	 call	 ?SelectObject@CDC@@QAEPAVCPen@@PAV2@@Z ; CDC::SelectObject
  0030d	8b 4d f0	 mov	 ecx, DWORD PTR _nMarkTop$1$[ebp]
  00310	8b 45 e0	 mov	 eax, DWORD PTR _nMarkBottom$1$[ebp]
$LN22@DrawFuOpPA:
  00313	83 7d 14 00	 cmp	 DWORD PTR _bUpMark$[ebp], 0
  00317	74 3f		 je	 SHORT $LN23@DrawFuOpPA

; 588  : 			{
; 589  : 				pDC->MoveTo( nMarkLeft + 1,	nMarkBottom - 1);

  00319	48		 dec	 eax
  0031a	46		 inc	 esi
  0031b	50		 push	 eax
  0031c	56		 push	 esi
  0031d	8d 45 90	 lea	 eax, DWORD PTR $T3[ebp]
  00320	8b cb		 mov	 ecx, ebx
  00322	50		 push	 eax
  00323	e8 00 00 00 00	 call	 ?MoveTo@CDC@@QAE?AVCPoint@@HH@Z ; CDC::MoveTo

; 590  : 				pDC->LineTo( nMarkRight,	nMarkTop);

  00328	ff 75 f0	 push	 DWORD PTR _nMarkTop$1$[ebp]
  0032b	8b cb		 mov	 ecx, ebx
  0032d	ff 75 ec	 push	 DWORD PTR _nMarkRight$1$[ebp]
  00330	e8 00 00 00 00	 call	 ?LineTo@CDC@@QAEHHH@Z	; CDC::LineTo

; 591  : 				pDC->MoveTo( nMarkLeft + 1,	nMarkTop + 1);

  00335	8b 45 f0	 mov	 eax, DWORD PTR _nMarkTop$1$[ebp]
  00338	8b cb		 mov	 ecx, ebx
  0033a	40		 inc	 eax
  0033b	50		 push	 eax
  0033c	56		 push	 esi
  0033d	8d 45 88	 lea	 eax, DWORD PTR $T2[ebp]
  00340	50		 push	 eax
  00341	e8 00 00 00 00	 call	 ?MoveTo@CDC@@QAE?AVCPoint@@HH@Z ; CDC::MoveTo

; 592  : 				pDC->LineTo( nMarkRight,	nMarkBottom);

  00346	ff 75 e0	 push	 DWORD PTR _nMarkBottom$1$[ebp]
  00349	8b cb		 mov	 ecx, ebx
  0034b	ff 75 ec	 push	 DWORD PTR _nMarkRight$1$[ebp]
  0034e	e8 00 00 00 00	 call	 ?LineTo@CDC@@QAEHHH@Z	; CDC::LineTo

; 593  : 			}

  00353	8b 75 d8	 mov	 esi, DWORD PTR _nMarkLeft$1$[ebp]
  00356	eb 0f		 jmp	 SHORT $LN4@DrawFuOpPA
$LN23@DrawFuOpPA:
; File C:\Program Files (x86)\Microsoft Visual Studio\2019\Community\VC\Tools\MSVC\14.29.30133\atlmfc\include\afxwin1.inl

; 524  : 	{ ASSERT(m_hDC != NULL); return ::Ellipse(m_hDC, x1, y1, x2, y2); }

  00358	50		 push	 eax
  00359	ff 75 ec	 push	 DWORD PTR _nMarkRight$1$[ebp]
  0035c	51		 push	 ecx
  0035d	56		 push	 esi
  0035e	ff 73 04	 push	 DWORD PTR [ebx+4]
  00361	ff 15 00 00 00
	00		 call	 DWORD PTR __imp__Ellipse@20
$LN4@DrawFuOpPA:
; File D:\git\src\IBK\IBK_DRFN\ProjSrc\SrcChartEx\ChartOCX\GraphDraw\OptionDraw.cpp

; 570  : 		for( nDrawPriceX100 = nStartPriceX100; nDownLimitPriceX100 <= nDrawPriceX100 && nDrawPriceX100 <= nUpLimitPriceX100; nDrawPriceX100 += nMarkDirectionPriceX100)

  00367	8b 55 d4	 mov	 edx, DWORD PTR tv706[ebp]
  0036a	03 7d bc	 add	 edi, DWORD PTR tv707[ebp]
  0036d	03 55 b8	 add	 edx, DWORD PTR tv705[ebp]
  00370	8b 4d b4	 mov	 ecx, DWORD PTR _nEndPriceX100$1$[ebp]
  00373	89 55 d4	 mov	 DWORD PTR tv706[ebp], edx
  00376	39 7d d0	 cmp	 DWORD PTR tv709[ebp], edi
  00379	0f 8e 17 ff ff
	ff		 jle	 $LL6@DrawFuOpPA
$LN77@DrawFuOpPA:

; 594  : 			// 5.4.2.2 하락 Mark를 출력한다. (O Marking)
; 595  : 			else pDC->Ellipse( nMarkLeft, nMarkTop, nMarkRight, nMarkBottom);
; 596  : 		}
; 597  : 
; 598  : 		// 5.5 다음 Mark Line의 처리를 위하여 Index를 증가시킨다.
; 599  : 		nMLIndex++;

  0037f	8b 55 e8	 mov	 edx, DWORD PTR _nMLIndex$1$[ebp]
  00382	8b 75 18	 mov	 esi, DWORD PTR tv720[ebp]
  00385	42		 inc	 edx
  00386	03 75 20	 add	 esi, DWORD PTR _nMarkWidth$2$[ebp]
  00389	83 7d e4 00	 cmp	 DWORD PTR _posStartPrice$1$[ebp], 0
  0038d	8b 4d b0	 mov	 ecx, DWORD PTR _posEndPrice$1$[ebp]
  00390	8b 7d 1c	 mov	 edi, DWORD PTR _posNewDatePrice$1$[ebp]
  00393	89 55 e8	 mov	 DWORD PTR _nMLIndex$1$[ebp], edx
  00396	89 75 18	 mov	 DWORD PTR tv720[ebp], esi
  00399	0f 85 f3 fd ff
	ff		 jne	 $LL2@DrawFuOpPA
$LN78@DrawFuOpPA:

; 600  : 	}
; 601  : 
; 602  : 	// 6. Drawing을 위하여 설정한 DC를 복원한다.
; 603  : 	pDC->SelectObject( pOldPen);

  0039f	ff 75 ac	 push	 DWORD PTR _pOldPen$1$[ebp]
  003a2	8b cb		 mov	 ecx, ebx
  003a4	e8 00 00 00 00	 call	 ?SelectObject@CDC@@QAEPAVCPen@@PAV2@@Z ; CDC::SelectObject

; 604  : 	pDC->SelectObject(pOldBrush);

  003a9	ff 75 a8	 push	 DWORD PTR _pOldBrush$1$[ebp]
  003ac	8b cb		 mov	 ecx, ebx
  003ae	e8 00 00 00 00	 call	 ?SelectObject@CDC@@QAEPAVCBrush@@PAV2@@Z ; CDC::SelectObject

; 605  : 	pnPen1.DeleteObject();

  003b3	8d 4d a0	 lea	 ecx, DWORD PTR _pnPen1$[ebp]
  003b6	e8 00 00 00 00	 call	 ?DeleteObject@CGdiObject@@QAEHXZ ; CGdiObject::DeleteObject

; 606  : 	pnPen2.DeleteObject();

  003bb	8d 4d 98	 lea	 ecx, DWORD PTR _pnPen2$[ebp]
  003be	e8 00 00 00 00	 call	 ?DeleteObject@CGdiObject@@QAEHXZ ; CGdiObject::DeleteObject
; File C:\Program Files (x86)\Microsoft Visual Studio\2019\Community\VC\Tools\MSVC\14.29.30133\atlmfc\include\afxwin1.inl

; 106  : 	{ }

  003c3	8d 4d 98	 lea	 ecx, DWORD PTR _pnPen2$[ebp]
  003c6	c7 45 98 00 00
	00 00		 mov	 DWORD PTR _pnPen2$[ebp], OFFSET ??_7CPen@@6B@
  003cd	e8 00 00 00 00	 call	 ??1CGdiObject@@UAE@XZ	; CGdiObject::~CGdiObject
  003d2	8d 4d a0	 lea	 ecx, DWORD PTR _pnPen1$[ebp]
  003d5	c7 45 a0 00 00
	00 00		 mov	 DWORD PTR _pnPen1$[ebp], OFFSET ??_7CPen@@6B@
  003dc	e8 00 00 00 00	 call	 ??1CGdiObject@@UAE@XZ	; CGdiObject::~CGdiObject
; File D:\git\src\IBK\IBK_DRFN\ProjSrc\SrcChartEx\ChartOCX\GraphDraw\OptionDraw.cpp

; 608  : 	return true;

  003e1	b0 01		 mov	 al, 1

; 609  : }

  003e3	8b 4d f4	 mov	 ecx, DWORD PTR __$EHRec$[ebp]
  003e6	64 89 0d 00 00
	00 00		 mov	 DWORD PTR fs:0, ecx
  003ed	59		 pop	 ecx
  003ee	5f		 pop	 edi
  003ef	5e		 pop	 esi
  003f0	5b		 pop	 ebx
  003f1	8b e5		 mov	 esp, ebp
  003f3	5d		 pop	 ebp
  003f4	c2 1c 00	 ret	 28			; 0000001cH
$LN9@DrawFuOpPA:

; 474  : 	if( !pMLStartPriceList || !pMLEndPriceList || !pMLNewDatePriceList) return false;

  003f7	32 c0		 xor	 al, al

; 609  : }

  003f9	8b 4d f4	 mov	 ecx, DWORD PTR __$EHRec$[ebp]
  003fc	64 89 0d 00 00
	00 00		 mov	 DWORD PTR fs:0, ecx
  00403	59		 pop	 ecx
  00404	5f		 pop	 edi
  00405	5e		 pop	 esi
  00406	5b		 pop	 ebx
  00407	8b e5		 mov	 esp, ebp
  00409	5d		 pop	 ebp
  0040a	c2 1c 00	 ret	 28			; 0000001cH
_TEXT	ENDS
;	COMDAT text$x
text$x	SEGMENT
__unwindfunclet$?DrawFuOpPAndF@COptionDraw@@AAE_NPAVCDC@@ABVCRect@@ABVCDisplayAttributes@@ABVCGraphColor@@ABN4ABV?$CList@PAVCPacket@@PAV1@@@@Z$0:
  00000	8d 4d a0	 lea	 ecx, DWORD PTR _pnPen1$[ebp]
  00003	e9 00 00 00 00	 jmp	 ??1CPen@@UAE@XZ		; CPen::~CPen
__unwindfunclet$?DrawFuOpPAndF@COptionDraw@@AAE_NPAVCDC@@ABVCRect@@ABVCDisplayAttributes@@ABVCGraphColor@@ABN4ABV?$CList@PAVCPacket@@PAV1@@@@Z$1:
  00008	8d 4d 98	 lea	 ecx, DWORD PTR _pnPen2$[ebp]
  0000b	e9 00 00 00 00	 jmp	 ??1CPen@@UAE@XZ		; CPen::~CPen
  00010	cc		 int	 3
  00011	cc		 int	 3
  00012	cc		 int	 3
  00013	cc		 int	 3
  00014	cc		 int	 3
__ehhandler$?DrawFuOpPAndF@COptionDraw@@AAE_NPAVCDC@@ABVCRect@@ABVCDisplayAttributes@@ABVCGraphColor@@ABN4ABV?$CList@PAVCPacket@@PAV1@@@@Z:
  00015	90		 npad	 1
  00016	90		 npad	 1
  00017	8b 54 24 08	 mov	 edx, DWORD PTR [esp+8]
  0001b	8d 42 0c	 lea	 eax, DWORD PTR [edx+12]
  0001e	8b 4a 84	 mov	 ecx, DWORD PTR [edx-124]
  00021	33 c8		 xor	 ecx, eax
  00023	e8 00 00 00 00	 call	 @__security_check_cookie@4
  00028	b8 00 00 00 00	 mov	 eax, OFFSET __ehfuncinfo$?DrawFuOpPAndF@COptionDraw@@AAE_NPAVCDC@@ABVCRect@@ABVCDisplayAttributes@@ABVCGraphColor@@ABN4ABV?$CList@PAVCPacket@@PAV1@@@@Z
  0002d	e9 00 00 00 00	 jmp	 ___CxxFrameHandler3
text$x	ENDS
?DrawFuOpPAndF@COptionDraw@@AAE_NPAVCDC@@ABVCRect@@ABVCDisplayAttributes@@ABVCGraphColor@@ABN4ABV?$CList@PAVCPacket@@PAV1@@@@Z ENDP ; COptionDraw::DrawFuOpPAndF
; Function compile flags: /Ogtp
; File D:\git\src\IBK\IBK_DRFN\ProjSrc\SrcChartEx\ChartOCX\GraphDraw\OptionDraw.cpp
; File C:\Program Files (x86)\Microsoft Visual Studio\2019\Community\VC\Tools\MSVC\14.29.30133\atlmfc\include\afxtempl.h
; File D:\git\src\IBK\IBK_DRFN\ProjSrc\SrcChartEx\ChartOCX\GraphDraw\OptionDraw.cpp
; File D:\git\src\IBK\IBK_DRFN\ProjSrc\SrcChartEx\ChartOCX\Include_Chart\Dll_Load\PacketBase.h
; File D:\git\src\IBK\IBK_DRFN\ProjSrc\SrcChartEx\ChartOCX\GraphDraw\OptionDraw.cpp
; File D:\git\src\IBK\IBK_DRFN\ProjSrc\SrcChartEx\ChartOCX\Include_Chart\Dll_Load\PacketBase.h
; File D:\git\src\IBK\IBK_DRFN\ProjSrc\SrcChartEx\ChartOCX\GraphDraw\OptionDraw.cpp
; File C:\Program Files (x86)\Microsoft Visual Studio\2019\Community\VC\Tools\MSVC\14.29.30133\atlmfc\include\atltypes.h
; File D:\git\src\IBK\IBK_DRFN\ProjSrc\SrcChartEx\ChartOCX\GraphDraw\OptionDraw.cpp
; File C:\Program Files (x86)\Microsoft Visual Studio\2019\Community\VC\Tools\MSVC\14.29.30133\atlmfc\include\afxwin1.inl
; File D:\git\src\IBK\IBK_DRFN\ProjSrc\SrcChartEx\ChartOCX\GraphDraw\OptionDraw.cpp
; File C:\Program Files (x86)\Microsoft Visual Studio\2019\Community\VC\Tools\MSVC\14.29.30133\atlmfc\include\afxwin1.inl
; File D:\git\src\IBK\IBK_DRFN\ProjSrc\SrcChartEx\ChartOCX\GraphDraw\OptionDraw.cpp
; File C:\Program Files (x86)\Microsoft Visual Studio\2019\Community\VC\Tools\MSVC\14.29.30133\atlmfc\include\afxwin1.inl
; File D:\git\src\IBK\IBK_DRFN\ProjSrc\SrcChartEx\ChartOCX\GraphDraw\OptionDraw.cpp
; File C:\Program Files (x86)\Microsoft Visual Studio\2019\Community\VC\Tools\MSVC\14.29.30133\atlmfc\include\afxwin1.inl
; File D:\git\src\IBK\IBK_DRFN\ProjSrc\SrcChartEx\ChartOCX\GraphDraw\OptionDraw.cpp
; File C:\Program Files (x86)\Microsoft Visual Studio\2019\Community\VC\Tools\MSVC\14.29.30133\atlmfc\include\afxwin1.inl
; File D:\git\src\IBK\IBK_DRFN\ProjSrc\SrcChartEx\ChartOCX\GraphDraw\OptionDraw.cpp
; File C:\Program Files (x86)\Microsoft Visual Studio\2019\Community\VC\Tools\MSVC\14.29.30133\atlmfc\include\afxwin1.inl
; File D:\git\src\IBK\IBK_DRFN\ProjSrc\SrcChartEx\ChartOCX\GraphDraw\OptionDraw.cpp
; File C:\Program Files (x86)\Microsoft Visual Studio\2019\Community\VC\Tools\MSVC\14.29.30133\atlmfc\include\afxwin1.inl
; File D:\git\src\IBK\IBK_DRFN\ProjSrc\SrcChartEx\ChartOCX\GraphDraw\OptionDraw.cpp
; File C:\Program Files (x86)\Microsoft Visual Studio\2019\Community\VC\Tools\MSVC\14.29.30133\atlmfc\include\atltypes.h
; File D:\git\src\IBK\IBK_DRFN\ProjSrc\SrcChartEx\ChartOCX\GraphDraw\OptionDraw.cpp
; File C:\Program Files (x86)\Microsoft Visual Studio\2019\Community\VC\Tools\MSVC\14.29.30133\atlmfc\include\atltypes.h
; File D:\git\src\IBK\IBK_DRFN\ProjSrc\SrcChartEx\ChartOCX\GraphDraw\OptionDraw.cpp
; File C:\Program Files (x86)\Microsoft Visual Studio\2019\Community\VC\Tools\MSVC\14.29.30133\atlmfc\include\atltypes.h
; File D:\git\src\IBK\IBK_DRFN\ProjSrc\SrcChartEx\ChartOCX\GraphDraw\OptionDraw.cpp
; File C:\Program Files (x86)\Microsoft Visual Studio\2019\Community\VC\Tools\MSVC\14.29.30133\atlmfc\include\atltypes.h
; File D:\git\src\IBK\IBK_DRFN\ProjSrc\SrcChartEx\ChartOCX\GraphDraw\OptionDraw.cpp
; File C:\Program Files (x86)\Microsoft Visual Studio\2019\Community\VC\Tools\MSVC\14.29.30133\atlmfc\include\atltypes.h
; File D:\git\src\IBK\IBK_DRFN\ProjSrc\SrcChartEx\ChartOCX\GraphDraw\OptionDraw.cpp
; File C:\Program Files (x86)\Microsoft Visual Studio\2019\Community\VC\Tools\MSVC\14.29.30133\atlmfc\include\afxwin1.inl
; File D:\git\src\IBK\IBK_DRFN\ProjSrc\SrcChartEx\ChartOCX\GraphDraw\OptionDraw.cpp
; File C:\Program Files (x86)\Microsoft Visual Studio\2019\Community\VC\Tools\MSVC\14.29.30133\atlmfc\include\afxwin1.inl
; File D:\git\src\IBK\IBK_DRFN\ProjSrc\SrcChartEx\ChartOCX\GraphDraw\OptionDraw.cpp
; File C:\Program Files (x86)\Microsoft Visual Studio\2019\Community\VC\Tools\MSVC\14.29.30133\atlmfc\include\atltypes.h
; File D:\git\src\IBK\IBK_DRFN\ProjSrc\SrcChartEx\ChartOCX\GraphDraw\OptionDraw.cpp
; File C:\Program Files (x86)\Microsoft Visual Studio\2019\Community\VC\Tools\MSVC\14.29.30133\atlmfc\include\atltypes.h
; File D:\git\src\IBK\IBK_DRFN\ProjSrc\SrcChartEx\ChartOCX\GraphDraw\OptionDraw.cpp
; File C:\Program Files (x86)\Microsoft Visual Studio\2019\Community\VC\Tools\MSVC\14.29.30133\atlmfc\include\afxwin1.inl
; File D:\git\src\IBK\IBK_DRFN\ProjSrc\SrcChartEx\ChartOCX\GraphDraw\OptionDraw.cpp
; File C:\Program Files (x86)\Microsoft Visual Studio\2019\Community\VC\Tools\MSVC\14.29.30133\atlmfc\include\afxwin1.inl
; File D:\git\src\IBK\IBK_DRFN\ProjSrc\SrcChartEx\ChartOCX\GraphDraw\OptionDraw.cpp
; File C:\Program Files (x86)\Microsoft Visual Studio\2019\Community\VC\Tools\MSVC\14.29.30133\atlmfc\include\afxwin1.inl
; File D:\git\src\IBK\IBK_DRFN\ProjSrc\SrcChartEx\ChartOCX\GraphDraw\OptionDraw.cpp
; File C:\Program Files (x86)\Microsoft Visual Studio\2019\Community\VC\Tools\MSVC\14.29.30133\atlmfc\include\afxwin1.inl
; File D:\git\src\IBK\IBK_DRFN\ProjSrc\SrcChartEx\ChartOCX\GraphDraw\OptionDraw.cpp
; File C:\Program Files (x86)\Microsoft Visual Studio\2019\Community\VC\Tools\MSVC\14.29.30133\atlmfc\include\atltypes.h
; File D:\git\src\IBK\IBK_DRFN\ProjSrc\SrcChartEx\ChartOCX\GraphDraw\OptionDraw.cpp
; File C:\Program Files (x86)\Microsoft Visual Studio\2019\Community\VC\Tools\MSVC\14.29.30133\atlmfc\include\afxtempl.h
; File D:\git\src\IBK\IBK_DRFN\ProjSrc\SrcChartEx\ChartOCX\GraphDraw\OptionDraw.cpp
; File C:\Program Files (x86)\Microsoft Visual Studio\2019\Community\VC\Tools\MSVC\14.29.30133\atlmfc\include\atltypes.h
; File D:\git\src\IBK\IBK_DRFN\ProjSrc\SrcChartEx\ChartOCX\GraphDraw\OptionDraw.cpp
; File C:\Program Files (x86)\Microsoft Visual Studio\2019\Community\VC\Tools\MSVC\14.29.30133\atlmfc\include\atltypes.h
; File D:\git\src\IBK\IBK_DRFN\ProjSrc\SrcChartEx\ChartOCX\GraphDraw\OptionDraw.cpp
; File C:\Program Files (x86)\Microsoft Visual Studio\2019\Community\VC\Tools\MSVC\14.29.30133\atlmfc\include\afxwin1.inl
; File D:\git\src\IBK\IBK_DRFN\ProjSrc\SrcChartEx\ChartOCX\GraphDraw\OptionDraw.cpp
; File C:\Program Files (x86)\Microsoft Visual Studio\2019\Community\VC\Tools\MSVC\14.29.30133\atlmfc\include\afxwin1.inl
; File D:\git\src\IBK\IBK_DRFN\ProjSrc\SrcChartEx\ChartOCX\GraphDraw\OptionDraw.cpp
; File C:\Program Files (x86)\Microsoft Visual Studio\2019\Community\VC\Tools\MSVC\14.29.30133\atlmfc\include\atltypes.h
; File D:\git\src\IBK\IBK_DRFN\ProjSrc\SrcChartEx\ChartOCX\GraphDraw\OptionDraw.cpp
; File C:\Program Files (x86)\Microsoft Visual Studio\2019\Community\VC\Tools\MSVC\14.29.30133\atlmfc\include\afxtempl.h
; File C:\Program Files (x86)\Microsoft Visual Studio\2019\Community\VC\Tools\MSVC\14.29.30133\atlmfc\include\atltypes.h
; File D:\git\src\IBK\IBK_DRFN\ProjSrc\SrcChartEx\ChartOCX\Include_Chart\Dll_Load\PacketBase.h
; File D:\git\src\IBK\IBK_DRFN\ProjSrc\SrcChartEx\ChartOCX\GraphDraw\OptionDraw.cpp
; File D:\git\src\IBK\IBK_DRFN\ProjSrc\SrcChartEx\ChartOCX\Include_Chart\Dll_Load\PacketBase.h
; File D:\git\src\IBK\IBK_DRFN\ProjSrc\SrcChartEx\ChartOCX\GraphDraw\OptionDraw.cpp
; File D:\git\src\IBK\IBK_DRFN\ProjSrc\SrcChartEx\ChartOCX\Include_Chart\Dll_Load\PacketBase.h
; File D:\git\src\IBK\IBK_DRFN\ProjSrc\SrcChartEx\ChartOCX\GraphDraw\OptionDraw.cpp
; File C:\Program Files (x86)\Microsoft Visual Studio\2019\Community\VC\Tools\MSVC\14.29.30133\atlmfc\include\atltypes.h
; File D:\git\src\IBK\IBK_DRFN\ProjSrc\SrcChartEx\ChartOCX\GraphDraw\OptionDraw.cpp
; File C:\Program Files (x86)\Microsoft Visual Studio\2019\Community\VC\Tools\MSVC\14.29.30133\atlmfc\include\atltypes.h
; File C:\Program Files (x86)\Microsoft Visual Studio\2019\Community\VC\Tools\MSVC\14.29.30133\atlmfc\include\atlsimpstr.h
; File C:\Program Files (x86)\Microsoft Visual Studio\2019\Community\VC\Tools\MSVC\14.29.30133\atlmfc\include\afxwin1.inl
; File D:\git\src\IBK\IBK_DRFN\ProjSrc\SrcChartEx\ChartOCX\GraphDraw\OptionDraw.cpp
; File C:\Program Files (x86)\Microsoft Visual Studio\2019\Community\VC\Tools\MSVC\14.29.30133\atlmfc\include\afxwin1.inl
; File D:\git\src\IBK\IBK_DRFN\ProjSrc\SrcChartEx\ChartOCX\GraphDraw\OptionDraw.cpp
; File C:\Program Files (x86)\Microsoft Visual Studio\2019\Community\VC\Tools\MSVC\14.29.30133\atlmfc\include\atltypes.h
; File D:\git\src\IBK\IBK_DRFN\ProjSrc\SrcChartEx\ChartOCX\GraphDraw\OptionDraw.cpp
; File C:\Program Files (x86)\Microsoft Visual Studio\2019\Community\VC\Tools\MSVC\14.29.30133\atlmfc\include\atltypes.h
; File C:\Program Files (x86)\Microsoft Visual Studio\2019\Community\VC\Tools\MSVC\14.29.30133\atlmfc\include\atlsimpstr.h
; File C:\Program Files (x86)\Microsoft Visual Studio\2019\Community\VC\Tools\MSVC\14.29.30133\atlmfc\include\afxwin1.inl
; File D:\git\src\IBK\IBK_DRFN\ProjSrc\SrcChartEx\ChartOCX\GraphDraw\OptionDraw.cpp
; File C:\Program Files (x86)\Microsoft Visual Studio\2019\Community\VC\Tools\MSVC\14.29.30133\atlmfc\include\afxtempl.h
; File D:\git\src\IBK\IBK_DRFN\ProjSrc\SrcChartEx\ChartOCX\GraphDraw\OptionDraw.cpp
; File D:\git\src\IBK\IBK_DRFN\ProjSrc\SrcChartEx\ChartOCX\Include_Chart\Dll_Load\PacketBase.h
; File C:\Program Files (x86)\Microsoft Visual Studio\2019\Community\VC\Tools\MSVC\14.29.30133\atlmfc\include\atltypes.h
; File D:\git\src\IBK\IBK_DRFN\ProjSrc\SrcChartEx\ChartOCX\GraphDraw\OptionDraw.cpp
; File C:\Program Files (x86)\Microsoft Visual Studio\2019\Community\VC\Tools\MSVC\14.29.30133\atlmfc\include\atltypes.h
; File D:\git\src\IBK\IBK_DRFN\ProjSrc\SrcChartEx\ChartOCX\Include_Chart\Dll_Load\PacketBase.h
; File C:\Program Files (x86)\Microsoft Visual Studio\2019\Community\VC\Tools\MSVC\14.29.30133\atlmfc\include\atltypes.h
; File D:\git\src\IBK\IBK_DRFN\ProjSrc\SrcChartEx\ChartOCX\GraphDraw\OptionDraw.cpp
; File C:\Program Files (x86)\Microsoft Visual Studio\2019\Community\VC\Tools\MSVC\14.29.30133\atlmfc\include\afxwin1.inl
; File D:\git\src\IBK\IBK_DRFN\ProjSrc\SrcChartEx\ChartOCX\GraphDraw\OptionDraw.cpp
; File C:\Program Files (x86)\Microsoft Visual Studio\2019\Community\VC\Tools\MSVC\14.29.30133\atlmfc\include\afxtempl.h
; File D:\git\src\IBK\IBK_DRFN\ProjSrc\SrcChartEx\ChartOCX\GraphDraw\OptionDraw.cpp
;	COMDAT ?DrawMarketProfile@COptionDraw@@AAE_NPAVCDC@@ABVCRect@@ABN2ABVCGraphColor@@ABV?$CList@PAVCPacket@@PAV1@@@@Z
_TEXT	SEGMENT
$T3 = -328						; size = 8
_pBracket$1$ = -320					; size = 4
tv2042 = -316						; size = 4
_dwMaxVolume$1$ = -312					; size = 4
_nMProfileWidth$1$ = -308				; size = 4
tv2044 = -304						; size = 4
_nMinX100$4 = -300					; size = 4
_nOldBkMode$1$ = -296					; size = 4
_clrOldTextColor$1$ = -292				; size = 4
_pOldPen$1$ = -288					; size = 4
_pOldBrush$1$ = -284					; size = 4
_nMProfileBracketLeft$1$ = -280				; size = 4
_nMaxX100$5 = -276					; size = 4
_clrBracketTextColor$1$ = -272				; size = 4
_nBracketIndex$1$ = -268				; size = 4
_nTotalBracketCount$1$ = -264				; size = 4
tv2091 = -260						; size = 4
tv2090 = -256						; size = 4
_pMarketProfile$1$ = -252				; size = 4
tv2043 = -248						; size = 4
_nRealBracketCntWidth$1$ = -244				; size = 4
_nMaxBracketCountInMProfile$1$ = -240			; size = 4
_nRealVolumeWidth$1$ = -236				; size = 4
_dwStartColor$1$ = -232					; size = 4
_clrMaxTextColor$1$ = -228				; size = 4
_nViewMaxX100$1$ = -224					; size = 4
tv2046 = -220						; size = 8
$T6 = -220						; size = 8
$T7 = -220						; size = 8
$T8 = -220						; size = 8
$T9 = -220						; size = 8
$T10 = -220						; size = 8
_clrNormalTextColor$1$ = -212				; size = 4
_dwEndColor$1$ = -208					; size = 4
_strVolume$11 = -204					; size = 4
_nPriceUnitX100$1$ = -200				; size = 4
_dViewMin$GSCopy$1$ = -196				; size = 4
_nMPItemBottom$1$ = -196				; size = 4
_dViewMax$GSCopy$1$ = -192				; size = 4
tv2040 = -192						; size = 4
_strMaxVolume$ = -188					; size = 4
_strMaxBracketCnt$ = -184				; size = 4
_nViewMinX100$1$ = -180					; size = 4
_pOldfont$1$ = -176					; size = 4
_fFont$ = -172						; size = 8
_nMProfileBottom$1$ = -164				; size = 4
tv2087 = -164						; size = 4
tv1928 = -164						; size = 4
_posMPItem$1$ = -160					; size = 4
$T12 = -160						; size = 4
_graphRegion$GSCopy$1$ = -156				; size = 4
_pMPPacket$1$ = -152					; size = 4
_strBracketCount$13 = -152				; size = 4
_bWithText$1$ = -148					; size = 4
_posMProfile$1$ = -144					; size = 4
_nMaxBracketCountInPacket$1$ = -144			; size = 4
$T14 = -144						; size = 4
_nMProfileLeft$1$ = -140				; size = 4
_nMProfileCount$1$ = -140				; size = 4
_nBracketWidth$1$ = -136				; size = 4
_graphColor$GSCopy$1$ = -132				; size = 4
_nMPItemTop$1$ = -132					; size = 4
tv2045 = -128						; size = 4
_nVolumeWidth$1$ = -128					; size = 4
$T15 = -124						; size = 4
_nBracketCount$1$ = -124				; size = 4
_nMProfileTop$1$ = -124					; size = 4
_nFontHeight$1$ = -124					; size = 4
_tmMetric$ = -120					; size = 56
_rctBracket$16 = -64					; size = 16
_rctVolumeRect$17 = -48					; size = 16
_rctBracketCntRect$18 = -32				; size = 16
__$ArrayPad$ = -16					; size = 4
__$EHRec$ = -12						; size = 12
_pDC$ = 8						; size = 4
_graphRegion$ = 12					; size = 4
_dViewMin$ = 16						; size = 4
_dViewMax$ = 20						; size = 4
_graphColor$ = 24					; size = 4
_packetList$ = 28					; size = 4
?DrawMarketProfile@COptionDraw@@AAE_NPAVCDC@@ABVCRect@@ABN2ABVCGraphColor@@ABV?$CList@PAVCPacket@@PAV1@@@@Z PROC ; COptionDraw::DrawMarketProfile, COMDAT
; _this$ = ecx

; 106  : {

  00000	55		 push	 ebp
  00001	8b ec		 mov	 ebp, esp
  00003	6a ff		 push	 -1
  00005	68 00 00 00 00	 push	 __ehhandler$?DrawMarketProfile@COptionDraw@@AAE_NPAVCDC@@ABVCRect@@ABN2ABVCGraphColor@@ABV?$CList@PAVCPacket@@PAV1@@@@Z
  0000a	64 a1 00 00 00
	00		 mov	 eax, DWORD PTR fs:0
  00010	50		 push	 eax
  00011	81 ec 3c 01 00
	00		 sub	 esp, 316		; 0000013cH
  00017	a1 00 00 00 00	 mov	 eax, DWORD PTR ___security_cookie
  0001c	33 c5		 xor	 eax, ebp
  0001e	89 45 f0	 mov	 DWORD PTR __$ArrayPad$[ebp], eax
  00021	53		 push	 ebx
  00022	56		 push	 esi
  00023	57		 push	 edi
  00024	50		 push	 eax
  00025	8d 45 f4	 lea	 eax, DWORD PTR __$EHRec$[ebp]
  00028	64 a3 00 00 00
	00		 mov	 DWORD PTR fs:0, eax
  0002e	8b 45 18	 mov	 eax, DWORD PTR _graphColor$[ebp]
  00031	8b 75 0c	 mov	 esi, DWORD PTR _graphRegion$[ebp]
  00034	8b 55 10	 mov	 edx, DWORD PTR _dViewMin$[ebp]
  00037	8b 5d 14	 mov	 ebx, DWORD PTR _dViewMax$[ebp]
  0003a	8b 7d 08	 mov	 edi, DWORD PTR _pDC$[ebp]
  0003d	89 85 7c ff ff
	ff		 mov	 DWORD PTR _graphColor$GSCopy$1$[ebp], eax
  00043	8b 45 1c	 mov	 eax, DWORD PTR _packetList$[ebp]
  00046	89 b5 64 ff ff
	ff		 mov	 DWORD PTR _graphRegion$GSCopy$1$[ebp], esi
  0004c	89 95 3c ff ff
	ff		 mov	 DWORD PTR _dViewMin$GSCopy$1$[ebp], edx
  00052	89 9d 40 ff ff
	ff		 mov	 DWORD PTR _dViewMax$GSCopy$1$[ebp], ebx

; 107  : 	// 1. 먼저 오류의 경우를 제외한다.
; 108  : 	// 1.1 Packet List에 문제가 있는 경우를 제외한다.
; 109  : 	if( packetList.GetCount() <= 0)	return false;

  00058	83 78 0c 00	 cmp	 DWORD PTR [eax+12], 0
  0005c	c7 85 70 ff ff
	ff 00 00 00 00	 mov	 DWORD PTR $T14[ebp], 0
  00066	0f 8e 5a 0b 00
	00		 jle	 $LN11@DrawMarket
; File C:\Program Files (x86)\Microsoft Visual Studio\2019\Community\VC\Tools\MSVC\14.29.30133\atlmfc\include\afxtempl.h

; 793  : 	{ ENSURE(m_pNodeHead != NULL);

  0006c	8b 40 04	 mov	 eax, DWORD PTR [eax+4]
  0006f	85 c0		 test	 eax, eax
  00071	0f 84 6f 0b 00
	00		 je	 $LN212@DrawMarket
; File D:\git\src\IBK\IBK_DRFN\ProjSrc\SrcChartEx\ChartOCX\GraphDraw\OptionDraw.cpp

; 111  : 	CMPPacket* pMPPacket = (CMPPacket*) packetList.GetHead();

  00077	8b 40 08	 mov	 eax, DWORD PTR [eax+8]
  0007a	89 85 68 ff ff
	ff		 mov	 DWORD PTR _pMPPacket$1$[ebp], eax

; 112  : 	if( !pMPPacket) return false;

  00080	85 c0		 test	 eax, eax
  00082	0f 84 3e 0b 00
	00		 je	 $LN11@DrawMarket

; 113  : 	// 1.3 MarketProfile Packet의 MP 단위 Chart List를 구하지 못하는 경우를 제외한다.
; 114  : 	CList<CMProfile*, CMProfile*> *pMProfileList = pMPPacket->GetMarketProfileList();
; 115  : 	// 1.3.1 CMProfile Data Object의 수를 관리하여 이후에 이용할 수 있도록 한다.
; 116  : 	int nMProfileCount = pMProfileList->GetCount();

  00088	8b 48 14	 mov	 ecx, DWORD PTR [eax+20]
  0008b	89 8d 74 ff ff
	ff		 mov	 DWORD PTR _nMProfileCount$1$[ebp], ecx

; 117  : 	if( !pMProfileList || nMProfileCount < 1) return false;

  00091	83 f9 01	 cmp	 ecx, 1
  00094	0f 8c 2c 0b 00
	00		 jl	 $LN11@DrawMarket

; 135  : 	int nBracketHeight = ( graphRegion.Height() * nPriceUnitX100) / int( dViewMax * 100 - dViewMin * 100);

  0009a	f2 0f 10 02	 movsd	 xmm0, QWORD PTR [edx]
  0009e	f2 0f 10 0b	 movsd	 xmm1, QWORD PTR [ebx]
; File D:\git\src\IBK\IBK_DRFN\ProjSrc\SrcChartEx\ChartOCX\Include_Chart\Dll_Load\PacketBase.h

; 365  : 	int		GetPriceUnitX100( void) const			{	return m_nPriceUnitX100;	}

  000a2	8b 40 24	 mov	 eax, DWORD PTR [eax+36]
; File D:\git\src\IBK\IBK_DRFN\ProjSrc\SrcChartEx\ChartOCX\GraphDraw\OptionDraw.cpp

; 135  : 	int nBracketHeight = ( graphRegion.Height() * nPriceUnitX100) / int( dViewMax * 100 - dViewMin * 100);

  000a5	f2 0f 59 0d 00
	00 00 00	 mulsd	 xmm1, QWORD PTR __real@4059000000000000
; File D:\git\src\IBK\IBK_DRFN\ProjSrc\SrcChartEx\ChartOCX\Include_Chart\Dll_Load\PacketBase.h

; 365  : 	int		GetPriceUnitX100( void) const			{	return m_nPriceUnitX100;	}

  000ad	89 85 38 ff ff
	ff		 mov	 DWORD PTR _nPriceUnitX100$1$[ebp], eax
; File D:\git\src\IBK\IBK_DRFN\ProjSrc\SrcChartEx\ChartOCX\GraphDraw\OptionDraw.cpp

; 135  : 	int nBracketHeight = ( graphRegion.Height() * nPriceUnitX100) / int( dViewMax * 100 - dViewMin * 100);

  000b3	f2 0f 59 05 00
	00 00 00	 mulsd	 xmm0, QWORD PTR __real@4059000000000000
; File C:\Program Files (x86)\Microsoft Visual Studio\2019\Community\VC\Tools\MSVC\14.29.30133\atlmfc\include\atltypes.h

; 581  : 	return bottom - top;

  000bb	8b 46 0c	 mov	 eax, DWORD PTR [esi+12]
  000be	2b 46 04	 sub	 eax, DWORD PTR [esi+4]
; File D:\git\src\IBK\IBK_DRFN\ProjSrc\SrcChartEx\ChartOCX\GraphDraw\OptionDraw.cpp

; 135  : 	int nBracketHeight = ( graphRegion.Height() * nPriceUnitX100) / int( dViewMax * 100 - dViewMin * 100);

  000c1	0f af 85 38 ff
	ff ff		 imul	 eax, DWORD PTR _nPriceUnitX100$1$[ebp]
; File C:\Program Files (x86)\Microsoft Visual Studio\2019\Community\VC\Tools\MSVC\14.29.30133\atlmfc\include\afxwin1.inl

; 70   : 	{ m_hObject = NULL; }

  000c8	c7 85 58 ff ff
	ff 00 00 00 00	 mov	 DWORD PTR _fFont$[ebp+4], 0
; File D:\git\src\IBK\IBK_DRFN\ProjSrc\SrcChartEx\ChartOCX\GraphDraw\OptionDraw.cpp

; 135  : 	int nBracketHeight = ( graphRegion.Height() * nPriceUnitX100) / int( dViewMax * 100 - dViewMin * 100);

  000d2	f2 0f 5c c8	 subsd	 xmm1, xmm0
; File C:\Program Files (x86)\Microsoft Visual Studio\2019\Community\VC\Tools\MSVC\14.29.30133\atlmfc\include\afxwin1.inl

; 153  : 	{ }

  000d6	c7 85 54 ff ff
	ff 00 00 00 00	 mov	 DWORD PTR _fFont$[ebp], OFFSET ??_7CFont@@6B@
; File D:\git\src\IBK\IBK_DRFN\ProjSrc\SrcChartEx\ChartOCX\GraphDraw\OptionDraw.cpp

; 135  : 	int nBracketHeight = ( graphRegion.Height() * nPriceUnitX100) / int( dViewMax * 100 - dViewMin * 100);

  000e0	99		 cdq
  000e1	f2 0f 2c c9	 cvttsd2si ecx, xmm1
  000e5	f7 f9		 idiv	 ecx
  000e7	8b d8		 mov	 ebx, eax
  000e9	89 9d 78 ff ff
	ff		 mov	 DWORD PTR _nBracketWidth$1$[ebp], ebx
; File C:\Program Files (x86)\Microsoft Visual Studio\2019\Community\VC\Tools\MSVC\14.29.30133\atlmfc\include\afxwin1.inl

; 163  : 	{ return Attach(::CreateFont(nHeight, nWidth, nEscapement,

  000ef	68 00 00 00 00	 push	 OFFSET ??_C@_05MPFIAJAP@Arial@
  000f4	6a 20		 push	 32			; 00000020H
  000f6	6a 00		 push	 0
  000f8	6a 00		 push	 0
  000fa	6a 00		 push	 0
  000fc	6a 00		 push	 0
  000fe	6a 00		 push	 0
  00100	6a 00		 push	 0
  00102	6a 00		 push	 0
  00104	68 90 01 00 00	 push	 400			; 00000190H
  00109	6a 00		 push	 0
  0010b	6a 00		 push	 0
  0010d	6a 00		 push	 0
; File D:\git\src\IBK\IBK_DRFN\ProjSrc\SrcChartEx\ChartOCX\GraphDraw\OptionDraw.cpp

; 142  : 	fFont.CreateFont( -nBracketHeight, 0, 0, 0, FW_NORMAL, FALSE, FALSE, 0, ANSI_CHARSET, OUT_DEFAULT_PRECIS,

  0010f	f7 d8		 neg	 eax
  00111	c7 45 fc 00 00
	00 00		 mov	 DWORD PTR __$EHRec$[ebp+8], 0
; File C:\Program Files (x86)\Microsoft Visual Studio\2019\Community\VC\Tools\MSVC\14.29.30133\atlmfc\include\afxwin1.inl

; 163  : 	{ return Attach(::CreateFont(nHeight, nWidth, nEscapement,

  00118	50		 push	 eax
  00119	ff 15 00 00 00
	00		 call	 DWORD PTR __imp__CreateFontA@56
  0011f	50		 push	 eax
  00120	8d 8d 54 ff ff
	ff		 lea	 ecx, DWORD PTR _fFont$[ebp]
  00126	e8 00 00 00 00	 call	 ?Attach@CGdiObject@@QAEHPAX@Z ; CGdiObject::Attach
; File D:\git\src\IBK\IBK_DRFN\ProjSrc\SrcChartEx\ChartOCX\GraphDraw\OptionDraw.cpp

; 146  : 	CFont* pOldfont = ( CFont *)pDC->SelectObject( &fFont);

  0012b	8b 07		 mov	 eax, DWORD PTR [edi]
  0012d	8d 8d 54 ff ff
	ff		 lea	 ecx, DWORD PTR _fFont$[ebp]
  00133	51		 push	 ecx
  00134	8b cf		 mov	 ecx, edi
  00136	ff 50 30	 call	 DWORD PTR [eax+48]
  00139	89 85 50 ff ff
	ff		 mov	 DWORD PTR _pOldfont$1$[ebp], eax
; File C:\Program Files (x86)\Microsoft Visual Studio\2019\Community\VC\Tools\MSVC\14.29.30133\atlmfc\include\afxwin1.inl

; 689  : 	{ ASSERT(m_hAttribDC != NULL); return ::GetTextMetrics(m_hAttribDC, lpMetrics); }

  0013f	8d 45 88	 lea	 eax, DWORD PTR _tmMetric$[ebp]
  00142	50		 push	 eax
  00143	ff 77 08	 push	 DWORD PTR [edi+8]
  00146	ff 15 00 00 00
	00		 call	 DWORD PTR __imp__GetTextMetricsA@8
; File D:\git\src\IBK\IBK_DRFN\ProjSrc\SrcChartEx\ChartOCX\GraphDraw\OptionDraw.cpp

; 148  : 	int nInternalLeading = tmMetric.tmInternalLeading;

  0014c	8b 75 94	 mov	 esi, DWORD PTR _tmMetric$[ebp+12]
; File C:\Program Files (x86)\Microsoft Visual Studio\2019\Community\VC\Tools\MSVC\14.29.30133\atlmfc\include\afxwin1.inl

; 334  : 	{ ASSERT(m_hAttribDC != NULL); return ::GetDeviceCaps(m_hAttribDC, nIndex); }

  0014f	6a 5a		 push	 90			; 0000005aH
  00151	ff 77 08	 push	 DWORD PTR [edi+8]
  00154	ff 15 00 00 00
	00		 call	 DWORD PTR __imp__GetDeviceCaps@8
; File D:\git\src\IBK\IBK_DRFN\ProjSrc\SrcChartEx\ChartOCX\GraphDraw\OptionDraw.cpp

; 150  : 	int nFontHeight = MulDiv( nBracketHeight - nInternalLeading, pDC->GetDeviceCaps( LOGPIXELSY), 72);

  0015a	6a 48		 push	 72			; 00000048H
  0015c	50		 push	 eax
  0015d	2b de		 sub	 ebx, esi
  0015f	53		 push	 ebx
  00160	ff 15 00 00 00
	00		 call	 DWORD PTR __imp__MulDiv@12

; 151  : 	// 2.2.1.3.5 (2004.02.05, 배승원) MP Chart의 출력시 TEXT 출력은 MP Chart가 3개 이내인 경우가 아니라,
; 152  : 	//		TEXT의 크기가 특정 크기 이하로 내려가는 경우로 제한한다.
; 153  : 	// 2.2.1.3.5.1 먼저 TEXT 출력을 생략해야 하는 경우인지 확인한다.
; 154  : 	BOOL bWithText = ( _MARKETPROFILE_MIN_FONTSIZE <= nFontHeight);

  00166	33 c9		 xor	 ecx, ecx
  00168	89 45 84	 mov	 DWORD PTR _nFontHeight$1$[ebp], eax
  0016b	83 f8 0a	 cmp	 eax, 10			; 0000000aH
  0016e	0f 9d c1	 setge	 cl

; 155  : 	// 2.2.2 거래량 영역과 Bracket수 영역을 구한다. (거래량 영역과 Bracket 영역을 유지하는 경우는 CMProfile이 3개 이내인 경우이다.)
; 156  : 	int nVolumeWidth = 0, nBracketCntWidth = 0;

  00171	33 f6		 xor	 esi, esi
  00173	89 8d 6c ff ff
	ff		 mov	 DWORD PTR _bWithText$1$[ebp], ecx
  00179	33 db		 xor	 ebx, ebx

; 157  : 	CString strMaxVolume, strMaxBracketCnt;

  0017b	8d 8d 44 ff ff
	ff		 lea	 ecx, DWORD PTR _strMaxVolume$[ebp]
  00181	89 75 80	 mov	 DWORD PTR _nVolumeWidth$1$[ebp], esi
  00184	ff 15 00 00 00
	00		 call	 DWORD PTR __imp_??0?$CStringT@DV?$StrTraitMFC_DLL@DV?$ChTraitsCRT@D@ATL@@@@@ATL@@QAE@XZ
  0018a	8d 8d 48 ff ff
	ff		 lea	 ecx, DWORD PTR _strMaxBracketCnt$[ebp]
  00190	ff 15 00 00 00
	00		 call	 DWORD PTR __imp_??0?$CStringT@DV?$StrTraitMFC_DLL@DV?$ChTraitsCRT@D@ATL@@@@@ATL@@QAE@XZ

; 158  : 	if( bWithText)

  00196	83 7d 84 0a	 cmp	 DWORD PTR _nFontHeight$1$[ebp], 10 ; 0000000aH
  0019a	c6 45 fc 02	 mov	 BYTE PTR __$EHRec$[ebp+8], 2
  0019e	0f 8c d2 00 00
	00		 jl	 $LN12@DrawMarket

; 159  : 	{
; 160  : 		// 2.2.2.1  정확한 Font를 생성한다.
; 161  : 		pDC->SelectObject( pOldfont);

  001a4	8b 07		 mov	 eax, DWORD PTR [edi]
  001a6	8b cf		 mov	 ecx, edi
  001a8	ff b5 50 ff ff
	ff		 push	 DWORD PTR _pOldfont$1$[ebp]
  001ae	ff 50 30	 call	 DWORD PTR [eax+48]

; 162  : 		fFont.DeleteObject();

  001b1	8d 8d 54 ff ff
	ff		 lea	 ecx, DWORD PTR _fFont$[ebp]
  001b7	e8 00 00 00 00	 call	 ?DeleteObject@CGdiObject@@QAEHXZ ; CGdiObject::DeleteObject
; File C:\Program Files (x86)\Microsoft Visual Studio\2019\Community\VC\Tools\MSVC\14.29.30133\atlmfc\include\afxwin1.inl

; 163  : 	{ return Attach(::CreateFont(nHeight, nWidth, nEscapement,

  001bc	68 00 00 00 00	 push	 OFFSET ??_C@_05MPFIAJAP@Arial@
  001c1	6a 20		 push	 32			; 00000020H
  001c3	53		 push	 ebx
  001c4	53		 push	 ebx
  001c5	53		 push	 ebx
  001c6	53		 push	 ebx
  001c7	53		 push	 ebx
  001c8	53		 push	 ebx
  001c9	53		 push	 ebx
  001ca	68 90 01 00 00	 push	 400			; 00000190H
  001cf	53		 push	 ebx
  001d0	53		 push	 ebx
  001d1	53		 push	 ebx
  001d2	ff 75 84	 push	 DWORD PTR _nFontHeight$1$[ebp]
  001d5	ff 15 00 00 00
	00		 call	 DWORD PTR __imp__CreateFontA@56
  001db	50		 push	 eax
  001dc	8d 8d 54 ff ff
	ff		 lea	 ecx, DWORD PTR _fFont$[ebp]
  001e2	e8 00 00 00 00	 call	 ?Attach@CGdiObject@@QAEHPAX@Z ; CGdiObject::Attach
; File D:\git\src\IBK\IBK_DRFN\ProjSrc\SrcChartEx\ChartOCX\GraphDraw\OptionDraw.cpp

; 165  : 		pOldfont = ( CFont *)pDC->SelectObject( &fFont);

  001e7	8b 07		 mov	 eax, DWORD PTR [edi]
  001e9	8d 8d 54 ff ff
	ff		 lea	 ecx, DWORD PTR _fFont$[ebp]
  001ef	51		 push	 ecx
  001f0	8b cf		 mov	 ecx, edi
  001f2	ff 50 30	 call	 DWORD PTR [eax+48]

; 166  : 		// 2.2.2.3 먼저 거래량 영역의 폭을 산출한다.
; 167  : 		strMaxVolume.Format( "%ld", ( long)pMPPacket->GetMaxVolume());

  001f5	8b 8d 68 ff ff
	ff		 mov	 ecx, DWORD PTR _pMPPacket$1$[ebp]
  001fb	89 85 50 ff ff
	ff		 mov	 DWORD PTR _pOldfont$1$[ebp], eax
  00201	ff 15 00 00 00
	00		 call	 DWORD PTR __imp_?GetMaxVolume@CMPPacket@@QAEKXZ
  00207	50		 push	 eax
  00208	8d 85 44 ff ff
	ff		 lea	 eax, DWORD PTR _strMaxVolume$[ebp]
  0020e	68 00 00 00 00	 push	 OFFSET ??_C@_03JALODAI@?$CFld@
  00213	50		 push	 eax
  00214	ff 15 00 00 00
	00		 call	 DWORD PTR __imp_?Format@?$CStringT@DV?$StrTraitMFC_DLL@DV?$ChTraitsCRT@D@ATL@@@@@ATL@@QAAXPBDZZ
  0021a	83 c4 0c	 add	 esp, 12			; 0000000cH

; 168  : 		nVolumeWidth = pDC->GetTextExtent( strMaxVolume).cx + 4;			// 좌우 내부 여백 and 경계선 1 Pixel 추가

  0021d	8d 85 44 ff ff
	ff		 lea	 eax, DWORD PTR _strMaxVolume$[ebp]
  00223	8b cf		 mov	 ecx, edi
  00225	50		 push	 eax
  00226	8d 85 24 ff ff
	ff		 lea	 eax, DWORD PTR $T10[ebp]
  0022c	50		 push	 eax
  0022d	e8 00 00 00 00	 call	 ?GetTextExtent@CDC@@QBE?AVCSize@@ABV?$CStringT@DV?$StrTraitMFC_DLL@DV?$ChTraitsCRT@D@ATL@@@@@ATL@@@Z ; CDC::GetTextExtent

; 169  : 		// 2.2.2.2 Bracket수 영역의 폭을 산출한다.
; 170  : 		strMaxBracketCnt.Format( "%d", pMPPacket->GetMaxHitting());

  00232	8b 8d 68 ff ff
	ff		 mov	 ecx, DWORD PTR _pMPPacket$1$[ebp]
  00238	8b 30		 mov	 esi, DWORD PTR [eax]
  0023a	83 c6 04	 add	 esi, 4
  0023d	89 75 80	 mov	 DWORD PTR _nVolumeWidth$1$[ebp], esi
  00240	ff 15 00 00 00
	00		 call	 DWORD PTR __imp_?GetMaxHitting@CMPPacket@@QAEHXZ
  00246	50		 push	 eax
  00247	8d 85 48 ff ff
	ff		 lea	 eax, DWORD PTR _strMaxBracketCnt$[ebp]
  0024d	68 00 00 00 00	 push	 OFFSET ??_C@_02DPKJAMEF@?$CFd@
  00252	50		 push	 eax
  00253	ff 15 00 00 00
	00		 call	 DWORD PTR __imp_?Format@?$CStringT@DV?$StrTraitMFC_DLL@DV?$ChTraitsCRT@D@ATL@@@@@ATL@@QAAXPBDZZ
  00259	83 c4 0c	 add	 esp, 12			; 0000000cH

; 171  : 		nBracketCntWidth = pDC->GetTextExtent( strMaxBracketCnt).cx + 4;	// 좌우 내부 여백 and 경계선 1 Pixel 추가

  0025c	8d 85 48 ff ff
	ff		 lea	 eax, DWORD PTR _strMaxBracketCnt$[ebp]
  00262	8b cf		 mov	 ecx, edi
  00264	50		 push	 eax
  00265	8d 85 24 ff ff
	ff		 lea	 eax, DWORD PTR $T9[ebp]
  0026b	50		 push	 eax
  0026c	e8 00 00 00 00	 call	 ?GetTextExtent@CDC@@QBE?AVCSize@@ABV?$CStringT@DV?$StrTraitMFC_DLL@DV?$ChTraitsCRT@D@ATL@@@@@ATL@@@Z ; CDC::GetTextExtent
  00271	8b 18		 mov	 ebx, DWORD PTR [eax]
  00273	83 c3 04	 add	 ebx, 4
$LN12@DrawMarket:

; 172  : 	}
; 173  : 	// 2.2.3 Bracket의 기본 크기를 구한다.
; 174  : 	// 2.2.3.0 생성한 Font의 폭을 기준으로 Bracket의 기본 크기를 구한다.
; 175  : 	// (2004.01.26, 배승원) Font의 폭은 GetTextExtent()를 이용한다. (LOGFONT는 Width를 제공하지 않는다. 단지 지정했던것을 기억할 뿐)
; 176  : 	// (2004.02.05, 배승원) MP Chart의 출력시 TEXT 출력은 MP Chart가 3개 이내인 경우가 아니라,
; 177  : 	//		TEXT의 크기가 특정 크기 이하로 내려가는 경우로 제한한다.
; 178  : 	//		Text가 출력되지 않을 경우의 Bracket Width는 기본적으로 Bracket Height과 같도록 한다.
; 179  : 	int nBracketWidth = ( bWithText ? pDC->GetTextExtent( "W").cx + 2 : nBracketHeight); // 좌우 여백 or 경계선 1 Pixel 추가

  00276	83 bd 6c ff ff
	ff 00		 cmp	 DWORD PTR _bWithText$1$[ebp], 0
  0027d	74 3b		 je	 SHORT $LN36@DrawMarket
  0027f	68 00 00 00 00	 push	 OFFSET ??_C@_01ELNMCGJD@W@
  00284	8d 8d 60 ff ff
	ff		 lea	 ecx, DWORD PTR $T12[ebp]
  0028a	ff 15 00 00 00
	00		 call	 DWORD PTR __imp_??0?$CStringT@DV?$StrTraitMFC_DLL@DV?$ChTraitsCRT@D@ATL@@@@@ATL@@QAE@PBD@Z
  00290	8d 85 60 ff ff
	ff		 lea	 eax, DWORD PTR $T12[ebp]
  00296	c7 85 70 ff ff
	ff 01 00 00 00	 mov	 DWORD PTR $T14[ebp], 1
  002a0	50		 push	 eax
  002a1	8d 85 24 ff ff
	ff		 lea	 eax, DWORD PTR $T8[ebp]
  002a7	8b cf		 mov	 ecx, edi
  002a9	50		 push	 eax
  002aa	e8 00 00 00 00	 call	 ?GetTextExtent@CDC@@QBE?AVCSize@@ABV?$CStringT@DV?$StrTraitMFC_DLL@DV?$ChTraitsCRT@D@ATL@@@@@ATL@@@Z ; CDC::GetTextExtent
  002af	8b 00		 mov	 eax, DWORD PTR [eax]
  002b1	83 c0 02	 add	 eax, 2
  002b4	89 85 78 ff ff
	ff		 mov	 DWORD PTR _nBracketWidth$1$[ebp], eax
$LN36@DrawMarket:
  002ba	f6 85 70 ff ff
	ff 01		 test	 BYTE PTR $T14[ebp], 1
  002c1	74 0c		 je	 SHORT $LN43@DrawMarket
  002c3	8d 8d 60 ff ff
	ff		 lea	 ecx, DWORD PTR $T12[ebp]
  002c9	ff 15 00 00 00
	00		 call	 DWORD PTR __imp_??1?$CStringT@DV?$StrTraitMFC_DLL@DV?$ChTraitsCRT@D@ATL@@@@@ATL@@QAE@XZ
$LN43@DrawMarket:

; 180  : 	// 2.2.4 전체 영역의 기본 크기를 구한다.
; 181  : 	//	(처음과 끝의 Bracket Width는 CMProfile Chart의 좌우 여백을 의미한다.)
; 182  : 	int nMaxBracketCountInPacket = pMPPacket->GetMaxBracketCount();

  002cf	8b 8d 68 ff ff
	ff		 mov	 ecx, DWORD PTR _pMPPacket$1$[ebp]
  002d5	ff 15 00 00 00
	00		 call	 DWORD PTR __imp_?GetMaxBracketCount@CMPPacket@@QBEHXZ

; 183  : 	int nRequestRegionX = ( nBracketWidth + nVolumeWidth + nBracketCntWidth + nBracketWidth * nMaxBracketCountInPacket + nBracketWidth)

  002db	8b 95 78 ff ff
	ff		 mov	 edx, DWORD PTR _nBracketWidth$1$[ebp]
  002e1	89 85 70 ff ff
	ff		 mov	 DWORD PTR _nMaxBracketCountInPacket$1$[ebp], eax
  002e7	8d 48 02	 lea	 ecx, DWORD PTR [eax+2]
; File C:\Program Files (x86)\Microsoft Visual Studio\2019\Community\VC\Tools\MSVC\14.29.30133\atlmfc\include\atltypes.h

; 576  : 	return right - left;

  002ea	8b 85 64 ff ff
	ff		 mov	 eax, DWORD PTR _graphRegion$GSCopy$1$[ebp]
; File D:\git\src\IBK\IBK_DRFN\ProjSrc\SrcChartEx\ChartOCX\GraphDraw\OptionDraw.cpp

; 183  : 	int nRequestRegionX = ( nBracketWidth + nVolumeWidth + nBracketCntWidth + nBracketWidth * nMaxBracketCountInPacket + nBracketWidth)

  002f0	0f af ca	 imul	 ecx, edx
; File C:\Program Files (x86)\Microsoft Visual Studio\2019\Community\VC\Tools\MSVC\14.29.30133\atlmfc\include\atltypes.h

; 576  : 	return right - left;

  002f3	8b 40 08	 mov	 eax, DWORD PTR [eax+8]
; File D:\git\src\IBK\IBK_DRFN\ProjSrc\SrcChartEx\ChartOCX\GraphDraw\OptionDraw.cpp

; 183  : 	int nRequestRegionX = ( nBracketWidth + nVolumeWidth + nBracketCntWidth + nBracketWidth * nMaxBracketCountInPacket + nBracketWidth)

  002f6	03 cb		 add	 ecx, ebx
  002f8	03 ce		 add	 ecx, esi
; File C:\Program Files (x86)\Microsoft Visual Studio\2019\Community\VC\Tools\MSVC\14.29.30133\atlmfc\include\atltypes.h

; 576  : 	return right - left;

  002fa	8b b5 64 ff ff
	ff		 mov	 esi, DWORD PTR _graphRegion$GSCopy$1$[ebp]
; File D:\git\src\IBK\IBK_DRFN\ProjSrc\SrcChartEx\ChartOCX\GraphDraw\OptionDraw.cpp

; 183  : 	int nRequestRegionX = ( nBracketWidth + nVolumeWidth + nBracketCntWidth + nBracketWidth * nMaxBracketCountInPacket + nBracketWidth)

  00300	0f af 8d 74 ff
	ff ff		 imul	 ecx, DWORD PTR _nMProfileCount$1$[ebp]
; File C:\Program Files (x86)\Microsoft Visual Studio\2019\Community\VC\Tools\MSVC\14.29.30133\atlmfc\include\atltypes.h

; 576  : 	return right - left;

  00307	2b 06		 sub	 eax, DWORD PTR [esi]
; File D:\git\src\IBK\IBK_DRFN\ProjSrc\SrcChartEx\ChartOCX\GraphDraw\OptionDraw.cpp

; 187  : 	if( graphRegion.Width() < nRequestRegionX)

  00309	8b 75 80	 mov	 esi, DWORD PTR _nVolumeWidth$1$[ebp]
; File C:\Program Files (x86)\Microsoft Visual Studio\2019\Community\VC\Tools\MSVC\14.29.30133\atlmfc\include\atltypes.h

; 576  : 	return right - left;

  0030c	89 85 5c ff ff
	ff		 mov	 DWORD PTR tv1928[ebp], eax
; File D:\git\src\IBK\IBK_DRFN\ProjSrc\SrcChartEx\ChartOCX\GraphDraw\OptionDraw.cpp

; 187  : 	if( graphRegion.Width() < nRequestRegionX)

  00312	3b c1		 cmp	 eax, ecx
  00314	0f 8d 04 01 00
	00		 jge	 $LN13@DrawMarket

; 188  : 	{
; 189  : 		// 2.3.1 비율에 맞춰 Bracket의 단위 폭을 산출한다.
; 190  : 		nBracketWidth = ( nBracketWidth * graphRegion.Width()) / nRequestRegionX;

  0031a	0f af c2	 imul	 eax, edx
  0031d	99		 cdq
  0031e	f7 f9		 idiv	 ecx

; 191  : 		// (2004.02.05, 배승원) MP Chart의 출력시 TEXT 출력은 MP Chart가 3개 이내인 경우가 아니라,
; 192  : 		//		TEXT의 크기가 특정 크기 이하로 내려가는 경우로 제한한다.
; 193  : 		//		이번 조정에의해 Text를 출력할 상황이 안되는 경우를 처리한다. (원래 안되는 경우 말고..)
; 194  : 		if( bWithText)

  00320	83 bd 6c ff ff
	ff 00		 cmp	 DWORD PTR _bWithText$1$[ebp], 0
  00327	89 85 78 ff ff
	ff		 mov	 DWORD PTR _nBracketWidth$1$[ebp], eax
  0032d	0f 84 d0 00 00
	00		 je	 $LN16@DrawMarket

; 195  : 		{
; 196  : 			// 2.3.2 새로운 Font의 크기를 산출하여, Text를 출력할 상황인지를 확인한다.
; 197  : 			nFontHeight = ( nFontHeight * graphRegion.Width()) / nRequestRegionX;

  00333	8b 85 5c ff ff
	ff		 mov	 eax, DWORD PTR tv1928[ebp]
  00339	0f af 45 84	 imul	 eax, DWORD PTR _nFontHeight$1$[ebp]
  0033d	99		 cdq
  0033e	f7 f9		 idiv	 ecx
  00340	8b f0		 mov	 esi, eax

; 198  : 			bWithText = ( _MARKETPROFILE_MIN_FONTSIZE <= nFontHeight);

  00342	33 c0		 xor	 eax, eax
  00344	83 fe 0a	 cmp	 esi, 10			; 0000000aH
  00347	0f 9d c0	 setge	 al
  0034a	89 85 6c ff ff
	ff		 mov	 DWORD PTR _bWithText$1$[ebp], eax

; 199  : 			// 2.3.3 Text를 출력할 상황으로 확인된 경우의 Text 영역의 크기를 조정한다.
; 200  : 			if( bWithText)

  00350	0f 8c a6 00 00
	00		 jl	 $LN15@DrawMarket
; File C:\Program Files (x86)\Microsoft Visual Studio\2019\Community\VC\Tools\MSVC\14.29.30133\atlmfc\include\afxwin1.inl

; 66   : 	{ return this == NULL ? NULL : m_hObject; }

  00356	8b 85 50 ff ff
	ff		 mov	 eax, DWORD PTR _pOldfont$1$[ebp]
  0035c	85 c0		 test	 eax, eax
  0035e	74 11		 je	 SHORT $LN84@DrawMarket
  00360	8b 40 04	 mov	 eax, DWORD PTR [eax+4]

; 366  : 		return (hObject != NULL) ? ::SelectObject(m_hDC, hObject) : NULL; }

  00363	85 c0		 test	 eax, eax
  00365	74 0a		 je	 SHORT $LN84@DrawMarket
  00367	50		 push	 eax
  00368	ff 77 04	 push	 DWORD PTR [edi+4]
  0036b	ff 15 00 00 00
	00		 call	 DWORD PTR __imp__SelectObject@8
$LN84@DrawMarket:
; File D:\git\src\IBK\IBK_DRFN\ProjSrc\SrcChartEx\ChartOCX\GraphDraw\OptionDraw.cpp

; 204  : 				fFont.DeleteObject();

  00371	8d 8d 54 ff ff
	ff		 lea	 ecx, DWORD PTR _fFont$[ebp]
  00377	e8 00 00 00 00	 call	 ?DeleteObject@CGdiObject@@QAEHXZ ; CGdiObject::DeleteObject
; File C:\Program Files (x86)\Microsoft Visual Studio\2019\Community\VC\Tools\MSVC\14.29.30133\atlmfc\include\afxwin1.inl

; 163  : 	{ return Attach(::CreateFont(nHeight, nWidth, nEscapement,

  0037c	68 00 00 00 00	 push	 OFFSET ??_C@_05MPFIAJAP@Arial@
  00381	6a 20		 push	 32			; 00000020H
  00383	6a 00		 push	 0
  00385	6a 00		 push	 0
  00387	6a 00		 push	 0
  00389	6a 00		 push	 0
  0038b	6a 00		 push	 0
  0038d	6a 00		 push	 0
  0038f	6a 00		 push	 0
  00391	68 90 01 00 00	 push	 400			; 00000190H
  00396	6a 00		 push	 0
  00398	6a 00		 push	 0
  0039a	6a 00		 push	 0
  0039c	56		 push	 esi
  0039d	ff 15 00 00 00
	00		 call	 DWORD PTR __imp__CreateFontA@56
  003a3	50		 push	 eax
  003a4	8d 8d 54 ff ff
	ff		 lea	 ecx, DWORD PTR _fFont$[ebp]
  003aa	e8 00 00 00 00	 call	 ?Attach@CGdiObject@@QAEHPAX@Z ; CGdiObject::Attach
; File D:\git\src\IBK\IBK_DRFN\ProjSrc\SrcChartEx\ChartOCX\GraphDraw\OptionDraw.cpp

; 208  : 				pOldfont = ( CFont *)pDC->SelectObject( &fFont);

  003af	8b 07		 mov	 eax, DWORD PTR [edi]
  003b1	8d 8d 54 ff ff
	ff		 lea	 ecx, DWORD PTR _fFont$[ebp]
  003b7	51		 push	 ecx
  003b8	8b cf		 mov	 ecx, edi
  003ba	ff 50 30	 call	 DWORD PTR [eax+48]
  003bd	89 85 50 ff ff
	ff		 mov	 DWORD PTR _pOldfont$1$[ebp], eax

; 209  : 				// 2.3.3.4 거래량 영역과 Bracket수의 영역도 산출한다.
; 210  : 				// 2.3.3.4.1 먼저 거래량 영역의 폭을 산출한다.
; 211  : 				nVolumeWidth = pDC->GetTextExtent( strMaxVolume).cx + 4;			// 좌우 내부 여백 and 경계선 1 Pixel 추가

  003c3	8b cf		 mov	 ecx, edi
  003c5	8d 85 44 ff ff
	ff		 lea	 eax, DWORD PTR _strMaxVolume$[ebp]
  003cb	50		 push	 eax
  003cc	8d 85 24 ff ff
	ff		 lea	 eax, DWORD PTR $T7[ebp]
  003d2	50		 push	 eax
  003d3	e8 00 00 00 00	 call	 ?GetTextExtent@CDC@@QBE?AVCSize@@ABV?$CStringT@DV?$StrTraitMFC_DLL@DV?$ChTraitsCRT@D@ATL@@@@@ATL@@@Z ; CDC::GetTextExtent

; 212  : 				// 2.3.3.4.2 Bracket수 영역의 폭을 산출한다.
; 213  : 				nBracketCntWidth = pDC->GetTextExtent( strMaxBracketCnt).cx + 4;	// 좌우 내부 여백 and 경계선 1 Pixel 추가

  003d8	8b cf		 mov	 ecx, edi
  003da	8b 30		 mov	 esi, DWORD PTR [eax]
  003dc	8d 85 48 ff ff
	ff		 lea	 eax, DWORD PTR _strMaxBracketCnt$[ebp]
  003e2	50		 push	 eax
  003e3	8d 85 24 ff ff
	ff		 lea	 eax, DWORD PTR $T6[ebp]
  003e9	83 c6 04	 add	 esi, 4
  003ec	50		 push	 eax
  003ed	89 75 80	 mov	 DWORD PTR _nVolumeWidth$1$[ebp], esi
  003f0	e8 00 00 00 00	 call	 ?GetTextExtent@CDC@@QBE?AVCSize@@ABV?$CStringT@DV?$StrTraitMFC_DLL@DV?$ChTraitsCRT@D@ATL@@@@@ATL@@@Z ; CDC::GetTextExtent
  003f5	8b 18		 mov	 ebx, DWORD PTR [eax]
  003f7	83 c3 04	 add	 ebx, 4

; 214  : 			}

  003fa	eb 07		 jmp	 SHORT $LN16@DrawMarket
$LN15@DrawMarket:

; 215  : 			// 2.3.4 Text를 출력할 상황이 되지 않는 경우, Text 출력 영역을 Clear시킨다.
; 216  : 			else
; 217  : 			{
; 218  : 				nVolumeWidth = 0;

  003fc	33 f6		 xor	 esi, esi

; 219  : 				nBracketCntWidth = 0;

  003fe	33 db		 xor	 ebx, ebx
  00400	89 75 80	 mov	 DWORD PTR _nVolumeWidth$1$[ebp], esi
$LN16@DrawMarket:

; 220  : 			}
; 221  : 		}
; 222  : 		// 2.3.5 조정된 부분 영역값으로 전체 영역의 크기를 산출한다.
; 223  : 		nRequestRegionX = ( nBracketWidth + nVolumeWidth + nBracketCntWidth + nBracketWidth * nMaxBracketCountInPacket + nBracketWidth)

  00403	8b 8d 70 ff ff
	ff		 mov	 ecx, DWORD PTR _nMaxBracketCountInPacket$1$[ebp]
  00409	83 c1 02	 add	 ecx, 2
  0040c	0f af 8d 78 ff
	ff ff		 imul	 ecx, DWORD PTR _nBracketWidth$1$[ebp]
  00413	03 cb		 add	 ecx, ebx
  00415	03 ce		 add	 ecx, esi
  00417	0f af 8d 74 ff
	ff ff		 imul	 ecx, DWORD PTR _nMProfileCount$1$[ebp]
$LN13@DrawMarket:
; File C:\Program Files (x86)\Microsoft Visual Studio\2019\Community\VC\Tools\MSVC\14.29.30133\atlmfc\include\atltypes.h

; 576  : 	return right - left;

  0041e	8b 95 64 ff ff
	ff		 mov	 edx, DWORD PTR _graphRegion$GSCopy$1$[ebp]
; File D:\git\src\IBK\IBK_DRFN\ProjSrc\SrcChartEx\ChartOCX\GraphDraw\OptionDraw.cpp

; 228  : 	int nRealVolumeWidth		= nVolumeWidth;

  00424	89 b5 14 ff ff
	ff		 mov	 DWORD PTR _nRealVolumeWidth$1$[ebp], esi

; 229  : 	int nRealBracketCntWidth	= nBracketCntWidth;

  0042a	89 9d 0c ff ff
	ff		 mov	 DWORD PTR _nRealBracketCntWidth$1$[ebp], ebx
; File C:\Program Files (x86)\Microsoft Visual Studio\2019\Community\VC\Tools\MSVC\14.29.30133\atlmfc\include\atltypes.h

; 576  : 	return right - left;

  00430	8b 42 08	 mov	 eax, DWORD PTR [edx+8]
  00433	2b 02		 sub	 eax, DWORD PTR [edx]
; File D:\git\src\IBK\IBK_DRFN\ProjSrc\SrcChartEx\ChartOCX\GraphDraw\OptionDraw.cpp

; 232  : 	if( nRequestRegionX < graphRegion.Width())

  00435	3b c8		 cmp	 ecx, eax
  00437	7d 34		 jge	 SHORT $LN18@DrawMarket

; 233  : 	{
; 234  : 		// (2004.02.05, 배승원) 거래량과 Bracket수 영역이 단위 Bracket의 크기보다 작지 않도록 한다.
; 235  : 		//		작게되는 경우는, 최종적으로 요구되는 전체 영역을 비율로 축소 조정한 후,
; 236  : 		//		남은 영역을 Bracket으로 분할하여 Bracket을 늘리는 경우에 해당한다.
; 237  : 		//		따라서, Bracket을 늘리는 시점에서 거래량과 Bracket수 영역도 늘리도록한다.
; 238  : 		int nAddWidth = ( ( graphRegion.Width() - nRequestRegionX) / nMProfileCount)

  00439	2b c1		 sub	 eax, ecx
  0043b	8b 8d 70 ff ff
	ff		 mov	 ecx, DWORD PTR _nMaxBracketCountInPacket$1$[ebp]
  00441	99		 cdq
  00442	f7 bd 74 ff ff
	ff		 idiv	 DWORD PTR _nMProfileCount$1$[ebp]
  00448	8b 95 6c ff ff
	ff		 mov	 edx, DWORD PTR _bWithText$1$[ebp]
  0044e	8d 0c 51	 lea	 ecx, DWORD PTR [ecx+edx*2]
  00451	99		 cdq
  00452	83 c1 02	 add	 ecx, 2
  00455	f7 f9		 idiv	 ecx

; 239  : 			/ ( nMaxBracketCountInPacket + 2 + ( bWithText ? 2 : 0));	// 좌우 여백외에 거래량과 Bracket수 영역도 감안한다.
; 240  : 		// 2.4.1 BracketWidth를 보정한다.
; 241  : 		nBracketWidth += nAddWidth;

  00457	01 85 78 ff ff
	ff		 add	 DWORD PTR _nBracketWidth$1$[ebp], eax

; 242  : 		// 2.4.2 거래량과 Bracket수 영역도 보정한다.
; 243  : 		if( bWithText)

  0045d	83 bd 6c ff ff
	ff 00		 cmp	 DWORD PTR _bWithText$1$[ebp], 0
  00464	74 07		 je	 SHORT $LN18@DrawMarket

; 244  : 		{
; 245  : 			nVolumeWidth		+= nAddWidth;

  00466	03 f0		 add	 esi, eax

; 246  : 			nBracketCntWidth	+= nAddWidth;

  00468	03 d8		 add	 ebx, eax
  0046a	89 75 80	 mov	 DWORD PTR _nVolumeWidth$1$[ebp], esi
$LN18@DrawMarket:

; 252  : 	int			nOldBkMode		= pDC->SetBkMode( TRANSPARENT);

  0046d	6a 01		 push	 1
  0046f	8b cf		 mov	 ecx, edi
  00471	e8 00 00 00 00	 call	 ?SetBkMode@CDC@@QAEHH@Z	; CDC::SetBkMode
; File C:\Program Files (x86)\Microsoft Visual Studio\2019\Community\VC\Tools\MSVC\14.29.30133\atlmfc\include\afxwin1.inl

; 384  : 	{ ASSERT(m_hAttribDC != NULL); return ::GetTextColor(m_hAttribDC); }

  00476	ff 77 08	 push	 DWORD PTR [edi+8]
; File D:\git\src\IBK\IBK_DRFN\ProjSrc\SrcChartEx\ChartOCX\GraphDraw\OptionDraw.cpp

; 252  : 	int			nOldBkMode		= pDC->SetBkMode( TRANSPARENT);

  00479	89 85 d8 fe ff
	ff		 mov	 DWORD PTR _nOldBkMode$1$[ebp], eax
; File C:\Program Files (x86)\Microsoft Visual Studio\2019\Community\VC\Tools\MSVC\14.29.30133\atlmfc\include\afxwin1.inl

; 384  : 	{ ASSERT(m_hAttribDC != NULL); return ::GetTextColor(m_hAttribDC); }

  0047f	ff 15 00 00 00
	00		 call	 DWORD PTR __imp__GetTextColor@4

; 792  : 	{ ASSERT(m_hAttribDC != NULL); return CBrush::FromHandle((HBRUSH)::GetCurrentObject(m_hAttribDC, OBJ_BRUSH)); }

  00485	8b 35 00 00 00
	00		 mov	 esi, DWORD PTR __imp__GetCurrentObject@8
  0048b	6a 02		 push	 2
  0048d	ff 77 08	 push	 DWORD PTR [edi+8]
; File D:\git\src\IBK\IBK_DRFN\ProjSrc\SrcChartEx\ChartOCX\GraphDraw\OptionDraw.cpp

; 253  : 	COLORREF	clrOldTextColor	= pDC->GetTextColor();

  00490	89 85 dc fe ff
	ff		 mov	 DWORD PTR _clrOldTextColor$1$[ebp], eax
; File C:\Program Files (x86)\Microsoft Visual Studio\2019\Community\VC\Tools\MSVC\14.29.30133\atlmfc\include\afxwin1.inl

; 792  : 	{ ASSERT(m_hAttribDC != NULL); return CBrush::FromHandle((HBRUSH)::GetCurrentObject(m_hAttribDC, OBJ_BRUSH)); }

  00496	ff d6		 call	 esi

; 126  : 	{ return (CBrush*) CGdiObject::FromHandle(hBrush); }

  00498	50		 push	 eax
  00499	e8 00 00 00 00	 call	 ?FromHandle@CGdiObject@@SGPAV1@PAX@Z ; CGdiObject::FromHandle

; 790  : 	{ ASSERT(m_hAttribDC != NULL); return CPen::FromHandle((HPEN)::GetCurrentObject(m_hAttribDC, OBJ_PEN)); }

  0049e	6a 01		 push	 1
  004a0	ff 77 08	 push	 DWORD PTR [edi+8]
; File D:\git\src\IBK\IBK_DRFN\ProjSrc\SrcChartEx\ChartOCX\GraphDraw\OptionDraw.cpp

; 254  : 	CBrush		*pOldBrush		= pDC->GetCurrentBrush();

  004a3	89 85 e4 fe ff
	ff		 mov	 DWORD PTR _pOldBrush$1$[ebp], eax
; File C:\Program Files (x86)\Microsoft Visual Studio\2019\Community\VC\Tools\MSVC\14.29.30133\atlmfc\include\afxwin1.inl

; 790  : 	{ ASSERT(m_hAttribDC != NULL); return CPen::FromHandle((HPEN)::GetCurrentObject(m_hAttribDC, OBJ_PEN)); }

  004a9	ff d6		 call	 esi

; 102  : 	{ return (CPen*) CGdiObject::FromHandle(hPen); }

  004ab	50		 push	 eax
  004ac	e8 00 00 00 00	 call	 ?FromHandle@CGdiObject@@SGPAV1@PAX@Z ; CGdiObject::FromHandle
; File D:\git\src\IBK\IBK_DRFN\ProjSrc\SrcChartEx\ChartOCX\GraphDraw\OptionDraw.cpp

; 259  : 	const DWORD dwStartColor	= ( DWORD)graphColor.GetColor2();

  004b1	8b 8d 7c ff ff
	ff		 mov	 ecx, DWORD PTR _graphColor$GSCopy$1$[ebp]
  004b7	8b 35 00 00 00
	00		 mov	 esi, DWORD PTR __imp_?GetColor2@CGraphColor@@QBEKXZ
  004bd	89 85 e0 fe ff
	ff		 mov	 DWORD PTR _pOldPen$1$[ebp], eax
  004c3	ff d6		 call	 esi

; 260  : 	const DWORD dwEndColor		= ( DWORD)graphColor.GetColor1();

  004c5	8b 8d 7c ff ff
	ff		 mov	 ecx, DWORD PTR _graphColor$GSCopy$1$[ebp]
  004cb	89 85 18 ff ff
	ff		 mov	 DWORD PTR _dwStartColor$1$[ebp], eax
  004d1	ff 15 00 00 00
	00		 call	 DWORD PTR __imp_?GetColor1@CGraphColor@@QBEKXZ

; 261  : 	// 3.1.1 Volume이나 BracketCount의 출력에 이용할 Text Color를 관리한다.
; 262  : 	const COLORREF clrMaxTextColor		= graphColor.GetColor2();

  004d7	8b 8d 7c ff ff
	ff		 mov	 ecx, DWORD PTR _graphColor$GSCopy$1$[ebp]
  004dd	89 85 30 ff ff
	ff		 mov	 DWORD PTR _dwEndColor$1$[ebp], eax
  004e3	ff d6		 call	 esi

; 263  : 	const COLORREF clrNormalTextColor	= graphColor.GetColor5();

  004e5	8b b5 7c ff ff
	ff		 mov	 esi, DWORD PTR _graphColor$GSCopy$1$[ebp]
  004eb	8b ce		 mov	 ecx, esi
  004ed	89 85 1c ff ff
	ff		 mov	 DWORD PTR _clrMaxTextColor$1$[ebp], eax
  004f3	ff 15 00 00 00
	00		 call	 DWORD PTR __imp_?GetColor5@CGraphColor@@QBEKXZ

; 264  : 	// 3.1.2 Bracket을 출력하기 위하여 필요한 색상을 관리한다.
; 265  : 	const COLORREF clrFirstBracketColor	= graphColor.GetColor3();

  004f9	8b ce		 mov	 ecx, esi
  004fb	89 85 2c ff ff
	ff		 mov	 DWORD PTR _clrNormalTextColor$1$[ebp], eax
  00501	ff 15 00 00 00
	00		 call	 DWORD PTR __imp_?GetColor3@CGraphColor@@QBEKXZ

; 266  : 	const COLORREF clrLastBracketColor	= graphColor.GetColor4();

  00507	8b ce		 mov	 ecx, esi
  00509	89 85 fc fe ff
	ff		 mov	 DWORD PTR tv2091[ebp], eax
  0050f	ff 15 00 00 00
	00		 call	 DWORD PTR __imp_?GetColor4@CGraphColor@@QBEKXZ

; 267  : 	const COLORREF clrBracketTextColor	= graphColor.GetColor6();

  00515	8b ce		 mov	 ecx, esi
  00517	89 85 00 ff ff
	ff		 mov	 DWORD PTR tv2090[ebp], eax
  0051d	ff 15 00 00 00
	00		 call	 DWORD PTR __imp_?GetColor6@CGraphColor@@QBEKXZ

; 268  : 	// 3.1.2 (2004.01.27, 배승원) Bracket 행간의 빈틈이 없도록 만들기 위하여 정수 연산을 처리한다.
; 269  : 	//		(좌표 Scale의 Min/Max를 X100으로 구하여 관리한다.)
; 270  : 	const int nViewMinX100	= int( dViewMin * 100);

  00523	8b 8d 3c ff ff
	ff		 mov	 ecx, DWORD PTR _dViewMin$GSCopy$1$[ebp]
  00529	89 85 f0 fe ff
	ff		 mov	 DWORD PTR _clrBracketTextColor$1$[ebp], eax
  0052f	f2 0f 10 01	 movsd	 xmm0, QWORD PTR [ecx]
  00533	f2 0f 59 05 00
	00 00 00	 mulsd	 xmm0, QWORD PTR __real@4059000000000000

; 271  : 	const int nViewMaxX100	= int( dViewMax * 100);

  0053b	8b 8d 40 ff ff
	ff		 mov	 ecx, DWORD PTR _dViewMax$GSCopy$1$[ebp]
  00541	f2 0f 2c c0	 cvttsd2si eax, xmm0
  00545	f2 0f 10 01	 movsd	 xmm0, QWORD PTR [ecx]
  00549	f2 0f 59 05 00
	00 00 00	 mulsd	 xmm0, QWORD PTR __real@4059000000000000
  00551	89 85 4c ff ff
	ff		 mov	 DWORD PTR _nViewMinX100$1$[ebp], eax
  00557	f2 0f 2c c0	 cvttsd2si eax, xmm0
  0055b	89 85 20 ff ff
	ff		 mov	 DWORD PTR _nViewMaxX100$1$[ebp], eax
; File C:\Program Files (x86)\Microsoft Visual Studio\2019\Community\VC\Tools\MSVC\14.29.30133\atlmfc\include\atltypes.h

; 576  : 	return right - left;

  00561	8b 85 64 ff ff
	ff		 mov	 eax, DWORD PTR _graphRegion$GSCopy$1$[ebp]
  00567	8b 08		 mov	 ecx, DWORD PTR [eax]
  00569	8b 40 08	 mov	 eax, DWORD PTR [eax+8]
  0056c	2b c1		 sub	 eax, ecx
; File D:\git\src\IBK\IBK_DRFN\ProjSrc\SrcChartEx\ChartOCX\GraphDraw\OptionDraw.cpp

; 277  : 	int nMProfileWidth			= graphRegion.Width() / nMProfileCount;	// nBracketWidth + nVolumeWidth + nBracketCntWidth + nBracketWidth * nMaxBracketCountInPacket + nBracketWidth;

  0056e	99		 cdq
  0056f	f7 bd 74 ff ff
	ff		 idiv	 DWORD PTR _nMProfileCount$1$[ebp]

; 278  : 	int nMProfileLeft			= graphRegion.left;
; 279  : 	nMProfileLeft				+= nBracketWidth;	// 좌측 여백을 미리 띄워놓고 시작한다.
; 280  : 	nMProfileLeft				-= nMProfileWidth;	// Loop에서 바로 증가되므로 미리 감하여 놓는다.

  00575	8b 95 78 ff ff
	ff		 mov	 edx, DWORD PTR _nBracketWidth$1$[ebp]
  0057b	2b c8		 sub	 ecx, eax
  0057d	89 85 cc fe ff
	ff		 mov	 DWORD PTR _nMProfileWidth$1$[ebp], eax

; 281  : 
; 282  : 	// 3.2 각 CMProfile Chart를 해당 영역에 Drawing 처리한다.
; 283  : 	POSITION posMProfile = pMProfileList->GetHeadPosition();

  00583	8b 85 68 ff ff
	ff		 mov	 eax, DWORD PTR _pMPPacket$1$[ebp]
  00589	03 ca		 add	 ecx, edx
  0058b	89 8d 74 ff ff
	ff		 mov	 DWORD PTR _nMProfileLeft$1$[ebp], ecx
  00591	8b 70 0c	 mov	 esi, DWORD PTR [eax+12]
  00594	89 b5 70 ff ff
	ff		 mov	 DWORD PTR _posMProfile$1$[ebp], esi

; 284  : 	while( posMProfile)

  0059a	85 f6		 test	 esi, esi
  0059c	0f 84 a1 05 00
	00		 je	 $LN204@DrawMarket

; 252  : 	int			nOldBkMode		= pDC->SetBkMode( TRANSPARENT);

  005a2	8b 75 80	 mov	 esi, DWORD PTR _nVolumeWidth$1$[ebp]
  005a5	b8 02 00 00 00	 mov	 eax, 2
  005aa	2b c2		 sub	 eax, edx
  005ac	03 cb		 add	 ecx, ebx
  005ae	89 85 d0 fe ff
	ff		 mov	 DWORD PTR tv2044[ebp], eax
  005b4	83 c6 fe	 add	 esi, -2			; fffffffeH
  005b7	b8 01 00 00 00	 mov	 eax, 1
  005bc	03 f1		 add	 esi, ecx
  005be	8b 8d 70 ff ff
	ff		 mov	 ecx, DWORD PTR _posMProfile$1$[ebp]
  005c4	2b c3		 sub	 eax, ebx
  005c6	89 85 c4 fe ff
	ff		 mov	 DWORD PTR tv2042[ebp], eax
  005cc	b8 02 00 00 00	 mov	 eax, 2
  005d1	2b c3		 sub	 eax, ebx
  005d3	89 75 80	 mov	 DWORD PTR tv2045[ebp], esi
  005d6	89 85 40 ff ff
	ff		 mov	 DWORD PTR tv2040[ebp], eax
  005dc	0f 1f 40 00	 npad	 4
$LL2@DrawMarket:

; 286  : 		CMProfile* pMarketProfile = pMProfileList->GetNext( posMProfile);

  005e0	8b 59 08	 mov	 ebx, DWORD PTR [ecx+8]
; File C:\Program Files (x86)\Microsoft Visual Studio\2019\Community\VC\Tools\MSVC\14.29.30133\atlmfc\include\afxtempl.h

; 813  : 		rPosition = (POSITION) pNode->pNext;

  005e3	8b 09		 mov	 ecx, DWORD PTR [ecx]
  005e5	89 8d 70 ff ff
	ff		 mov	 DWORD PTR _posMProfile$1$[ebp], ecx
; File D:\git\src\IBK\IBK_DRFN\ProjSrc\SrcChartEx\ChartOCX\GraphDraw\OptionDraw.cpp

; 286  : 		CMProfile* pMarketProfile = pMProfileList->GetNext( posMProfile);

  005eb	89 9d 04 ff ff
	ff		 mov	 DWORD PTR _pMarketProfile$1$[ebp], ebx

; 287  : 
; 288  : 		// 3.3 먼저 CMPorfile Chart내에 등록된 Bracket Group인 CMPItem이 있는지 확인한다.
; 289  : 		CList < CMPItem*, CMPItem*> *pMPItemList = pMarketProfile->GetMPItemList();
; 290  : 		POSITION posMPItem = pMPItemList->GetHeadPosition();

  005f1	8b 73 0c	 mov	 esi, DWORD PTR [ebx+12]
  005f4	89 b5 60 ff ff
	ff		 mov	 DWORD PTR _posMPItem$1$[ebp], esi

; 291  : 		if( !posMPItem) continue;

  005fa	85 f6		 test	 esi, esi
  005fc	0f 84 39 05 00
	00		 je	 $LN5@DrawMarket

; 292  : 
; 293  : 		// 3.4 각 CMProfile Chart를 Drawing하기 위해 필요한 CMProfile의 기본정보를 구하여 관리한다.
; 294  : 		int		nTotalBracketCount			= pMarketProfile->GetTotalBracketCount();

  00602	8b cb		 mov	 ecx, ebx
  00604	ff 15 00 00 00
	00		 call	 DWORD PTR __imp_?GetTotalBracketCount@CMProfile@@QAEHXZ

; 295  : 		int		nMaxBracketCountInMProfile	= pMarketProfile->GetMaxBracketCount();

  0060a	8b cb		 mov	 ecx, ebx
  0060c	89 85 f8 fe ff
	ff		 mov	 DWORD PTR _nTotalBracketCount$1$[ebp], eax
  00612	ff 15 00 00 00
	00		 call	 DWORD PTR __imp_?GetMaxBracketCount@CMProfile@@QAEHXZ

; 296  : 		DWORD	dwMaxVolume					= pMarketProfile->GetMaxVolume();

  00618	8b cb		 mov	 ecx, ebx
  0061a	89 85 10 ff ff
	ff		 mov	 DWORD PTR _nMaxBracketCountInMProfile$1$[ebp], eax
  00620	ff 15 00 00 00
	00		 call	 DWORD PTR __imp_?GetMaxVolume@CMProfile@@QAEKXZ

; 297  : 		nMProfileLeft						+= nMProfileWidth;

  00626	8b 8d cc fe ff
	ff		 mov	 ecx, DWORD PTR _nMProfileWidth$1$[ebp]
  0062c	01 8d 74 ff ff
	ff		 add	 DWORD PTR _nMProfileLeft$1$[ebp], ecx
  00632	89 85 c8 fe ff
	ff		 mov	 DWORD PTR _dwMaxVolume$1$[ebp], eax
  00638	8b 45 80	 mov	 eax, DWORD PTR tv2045[ebp]
  0063b	03 c1		 add	 eax, ecx

; 298  : 
; 299  : 		// 3.5 거래량과 Bracket Count 출력 영역의 Box를 그린다.
; 300  : 		if(	bWithText)

  0063d	83 bd 6c ff ff
	ff 00		 cmp	 DWORD PTR _bWithText$1$[ebp], 0
  00644	89 45 80	 mov	 DWORD PTR tv2045[ebp], eax
  00647	0f 84 0a 01 00
	00		 je	 $LN202@DrawMarket

; 301  : 		{
; 302  : 			// 3.5.1 가격대의 범주를 구한다.
; 303  : 			int nMinX100, nMaxX100;
; 304  : 			if( !pMarketProfile->GetPriceMinMaxX100( nMinX100, nMaxX100)) return false;

  0064d	8d 85 ec fe ff
	ff		 lea	 eax, DWORD PTR _nMaxX100$5[ebp]
  00653	8b cb		 mov	 ecx, ebx
  00655	50		 push	 eax
  00656	8d 85 d4 fe ff
	ff		 lea	 eax, DWORD PTR _nMinX100$4[ebp]
  0065c	50		 push	 eax
  0065d	ff 15 00 00 00
	00		 call	 DWORD PTR __imp_?GetPriceMinMaxX100@CMProfile@@QAEHAAH0@Z
  00663	85 c0		 test	 eax, eax
  00665	0f 84 57 05 00
	00		 je	 $LN192@DrawMarket
; File C:\Program Files (x86)\Microsoft Visual Studio\2019\Community\VC\Tools\MSVC\14.29.30133\atlmfc\include\atltypes.h

; 581  : 	return bottom - top;

  0066b	8b 85 64 ff ff
	ff		 mov	 eax, DWORD PTR _graphRegion$GSCopy$1$[ebp]
; File D:\git\src\IBK\IBK_DRFN\ProjSrc\SrcChartEx\ChartOCX\GraphDraw\OptionDraw.cpp

; 307  : 			int nMProfileTop	= graphRegion.bottom - int( graphRegion.Height() * ( nMaxX100 + nPriceUnitX100	- nViewMinX100) / double( nViewMaxX100 - nViewMinX100));

  00671	8b 9d 20 ff ff
	ff		 mov	 ebx, DWORD PTR _nViewMaxX100$1$[ebp]
  00677	2b 9d 4c ff ff
	ff		 sub	 ebx, DWORD PTR _nViewMinX100$1$[ebp]

; 309  : 			// 3.5.3 거래량과 Bracket Count 출력 영역의 Box를 그린다.
; 310  : 			pDC->SelectObject( GetStockObject( WHITE_BRUSH));

  0067d	6a 00		 push	 0
; File C:\Program Files (x86)\Microsoft Visual Studio\2019\Community\VC\Tools\MSVC\14.29.30133\atlmfc\include\atltypes.h

; 581  : 	return bottom - top;

  0067f	8b 70 0c	 mov	 esi, DWORD PTR [eax+12]
  00682	8b ce		 mov	 ecx, esi
  00684	2b 48 04	 sub	 ecx, DWORD PTR [eax+4]
; File D:\git\src\IBK\IBK_DRFN\ProjSrc\SrcChartEx\ChartOCX\GraphDraw\OptionDraw.cpp

; 307  : 			int nMProfileTop	= graphRegion.bottom - int( graphRegion.Height() * ( nMaxX100 + nPriceUnitX100	- nViewMinX100) / double( nViewMaxX100 - nViewMinX100));

  00687	8b d6		 mov	 edx, esi
  00689	8b 85 ec fe ff
	ff		 mov	 eax, DWORD PTR _nMaxX100$5[ebp]
  0068f	2b 85 4c ff ff
	ff		 sub	 eax, DWORD PTR _nViewMinX100$1$[ebp]
  00695	03 85 38 ff ff
	ff		 add	 eax, DWORD PTR _nPriceUnitX100$1$[ebp]
  0069b	0f af c1	 imul	 eax, ecx
  0069e	66 0f 6e cb	 movd	 xmm1, ebx
  006a2	f3 0f e6 c9	 cvtdq2pd xmm1, xmm1
  006a6	66 0f 6e c0	 movd	 xmm0, eax
  006aa	f3 0f e6 c0	 cvtdq2pd xmm0, xmm0
  006ae	f2 0f 5e c1	 divsd	 xmm0, xmm1
  006b2	f2 0f 2c c0	 cvttsd2si eax, xmm0
  006b6	2b d0		 sub	 edx, eax

; 308  : 			int nMProfileBottom	= graphRegion.bottom - int( graphRegion.Height() * ( nMinX100					- nViewMinX100) / double( nViewMaxX100 - nViewMinX100));

  006b8	8b 85 d4 fe ff
	ff		 mov	 eax, DWORD PTR _nMinX100$4[ebp]
  006be	2b 85 4c ff ff
	ff		 sub	 eax, DWORD PTR _nViewMinX100$1$[ebp]
  006c4	0f af c1	 imul	 eax, ecx
  006c7	89 55 84	 mov	 DWORD PTR _nMProfileTop$1$[ebp], edx
  006ca	66 0f 6e c0	 movd	 xmm0, eax
  006ce	f3 0f e6 c0	 cvtdq2pd xmm0, xmm0
  006d2	f2 0f 5e c1	 divsd	 xmm0, xmm1
  006d6	f2 0f 2c c0	 cvttsd2si eax, xmm0
  006da	2b f0		 sub	 esi, eax
  006dc	89 b5 5c ff ff
	ff		 mov	 DWORD PTR _nMProfileBottom$1$[ebp], esi

; 309  : 			// 3.5.3 거래량과 Bracket Count 출력 영역의 Box를 그린다.
; 310  : 			pDC->SelectObject( GetStockObject( WHITE_BRUSH));

  006e2	ff 15 00 00 00
	00		 call	 DWORD PTR __imp__GetStockObject@4
; File C:\Program Files (x86)\Microsoft Visual Studio\2019\Community\VC\Tools\MSVC\14.29.30133\atlmfc\include\afxwin1.inl

; 366  : 		return (hObject != NULL) ? ::SelectObject(m_hDC, hObject) : NULL; }

  006e8	85 c0		 test	 eax, eax
  006ea	74 0a		 je	 SHORT $LN117@DrawMarket
  006ec	50		 push	 eax
  006ed	ff 77 04	 push	 DWORD PTR [edi+4]
  006f0	ff 15 00 00 00
	00		 call	 DWORD PTR __imp__SelectObject@8
$LN117@DrawMarket:
; File D:\git\src\IBK\IBK_DRFN\ProjSrc\SrcChartEx\ChartOCX\GraphDraw\OptionDraw.cpp

; 311  : 			pDC->SelectObject( GetStockObject( BLACK_PEN));

  006f6	6a 07		 push	 7
  006f8	ff 15 00 00 00
	00		 call	 DWORD PTR __imp__GetStockObject@4
; File C:\Program Files (x86)\Microsoft Visual Studio\2019\Community\VC\Tools\MSVC\14.29.30133\atlmfc\include\afxwin1.inl

; 366  : 		return (hObject != NULL) ? ::SelectObject(m_hDC, hObject) : NULL; }

  006fe	85 c0		 test	 eax, eax
  00700	74 0a		 je	 SHORT $LN121@DrawMarket
  00702	50		 push	 eax
  00703	ff 77 04	 push	 DWORD PTR [edi+4]
  00706	ff 15 00 00 00
	00		 call	 DWORD PTR __imp__SelectObject@8
$LN121@DrawMarket:

; 541  : 	{ ASSERT(m_hDC != NULL); return ::Rectangle(m_hDC, lpRect->left, lpRect->top,

  0070c	56		 push	 esi
  0070d	8b 75 80	 mov	 esi, DWORD PTR tv2045[ebp]
  00710	8d 46 02	 lea	 eax, DWORD PTR [esi+2]
  00713	50		 push	 eax
  00714	ff 75 84	 push	 DWORD PTR _nMProfileTop$1$[ebp]
  00717	ff b5 74 ff ff
	ff		 push	 DWORD PTR _nMProfileLeft$1$[ebp]
  0071d	ff 77 04	 push	 DWORD PTR [edi+4]
  00720	ff 15 00 00 00
	00		 call	 DWORD PTR __imp__Rectangle@20
; File D:\git\src\IBK\IBK_DRFN\ProjSrc\SrcChartEx\ChartOCX\GraphDraw\OptionDraw.cpp

; 313  : 			pDC->MoveTo( nMProfileLeft + nVolumeWidth, nMProfileTop);

  00726	ff 75 84	 push	 DWORD PTR _nMProfileTop$1$[ebp]
  00729	03 b5 40 ff ff
	ff		 add	 esi, DWORD PTR tv2040[ebp]
  0072f	8d 85 b8 fe ff
	ff		 lea	 eax, DWORD PTR $T3[ebp]
  00735	56		 push	 esi
  00736	50		 push	 eax
  00737	8b cf		 mov	 ecx, edi
  00739	e8 00 00 00 00	 call	 ?MoveTo@CDC@@QAE?AVCPoint@@HH@Z ; CDC::MoveTo

; 314  : 			pDC->LineTo( nMProfileLeft + nVolumeWidth, nMProfileBottom);

  0073e	ff b5 5c ff ff
	ff		 push	 DWORD PTR _nMProfileBottom$1$[ebp]
  00744	8b cf		 mov	 ecx, edi
  00746	56		 push	 esi
  00747	e8 00 00 00 00	 call	 ?LineTo@CDC@@QAEHHH@Z	; CDC::LineTo
  0074c	8b b5 60 ff ff
	ff		 mov	 esi, DWORD PTR _posMPItem$1$[ebp]
  00752	8b 45 80	 mov	 eax, DWORD PTR tv2045[ebp]
  00755	eb 0c		 jmp	 SHORT $LN200@DrawMarket
$LN202@DrawMarket:
  00757	8b 9d 20 ff ff
	ff		 mov	 ebx, DWORD PTR _nViewMaxX100$1$[ebp]
  0075d	2b 9d 4c ff ff
	ff		 sub	 ebx, DWORD PTR _nViewMinX100$1$[ebp]
$LN200@DrawMarket:
  00763	03 85 d0 fe ff
	ff		 add	 eax, DWORD PTR tv2044[ebp]
  00769	66 0f 6e cb	 movd	 xmm1, ebx
  0076d	f3 0f e6 c9	 cvtdq2pd xmm1, xmm1
  00771	89 85 08 ff ff
	ff		 mov	 DWORD PTR tv2043[ebp], eax
  00777	f2 0f 11 8d 24
	ff ff ff	 movsd	 QWORD PTR tv2046[ebp], xmm1
  0077f	90		 npad	 1
$LL4@DrawMarket:
; File C:\Program Files (x86)\Microsoft Visual Studio\2019\Community\VC\Tools\MSVC\14.29.30133\atlmfc\include\atltypes.h

; 581  : 	return bottom - top;

  00780	8b 85 64 ff ff
	ff		 mov	 eax, DWORD PTR _graphRegion$GSCopy$1$[ebp]
; File D:\git\src\IBK\IBK_DRFN\ProjSrc\SrcChartEx\ChartOCX\GraphDraw\OptionDraw.cpp

; 320  : 			CMPItem *pMPItem = pMPItemList->GetNext( posMPItem);

  00786	8b 5e 08	 mov	 ebx, DWORD PTR [esi+8]
; File C:\Program Files (x86)\Microsoft Visual Studio\2019\Community\VC\Tools\MSVC\14.29.30133\atlmfc\include\afxtempl.h

; 813  : 		rPosition = (POSITION) pNode->pNext;

  00789	8b 36		 mov	 esi, DWORD PTR [esi]
  0078b	89 b5 60 ff ff
	ff		 mov	 DWORD PTR _posMPItem$1$[ebp], esi
; File C:\Program Files (x86)\Microsoft Visual Studio\2019\Community\VC\Tools\MSVC\14.29.30133\atlmfc\include\atltypes.h

; 581  : 	return bottom - top;

  00791	8b 70 0c	 mov	 esi, DWORD PTR [eax+12]
  00794	8b d6		 mov	 edx, esi
  00796	2b 50 04	 sub	 edx, DWORD PTR [eax+4]
; File D:\git\src\IBK\IBK_DRFN\ProjSrc\SrcChartEx\ChartOCX\Include_Chart\Dll_Load\PacketBase.h

; 264  : 	int		GetPriceX100()	const { return m_nPriceX100;	}

  00799	8b 03		 mov	 eax, DWORD PTR [ebx]
; File D:\git\src\IBK\IBK_DRFN\ProjSrc\SrcChartEx\ChartOCX\GraphDraw\OptionDraw.cpp

; 324  : 			int nMPItemTop		= graphRegion.bottom - int( graphRegion.Height() * ( pMPItem->GetPriceX100() + nPriceUnitX100	- nViewMinX100) / double( nViewMaxX100 - nViewMinX100));

  0079b	8b c8		 mov	 ecx, eax
  0079d	2b 8d 4c ff ff
	ff		 sub	 ecx, DWORD PTR _nViewMinX100$1$[ebp]
; File D:\git\src\IBK\IBK_DRFN\ProjSrc\SrcChartEx\ChartOCX\Include_Chart\Dll_Load\PacketBase.h

; 264  : 	int		GetPriceX100()	const { return m_nPriceX100;	}

  007a3	89 45 84	 mov	 DWORD PTR $T15[ebp], eax
; File D:\git\src\IBK\IBK_DRFN\ProjSrc\SrcChartEx\ChartOCX\GraphDraw\OptionDraw.cpp

; 324  : 			int nMPItemTop		= graphRegion.bottom - int( graphRegion.Height() * ( pMPItem->GetPriceX100() + nPriceUnitX100	- nViewMinX100) / double( nViewMaxX100 - nViewMinX100));

  007a6	8b 85 38 ff ff
	ff		 mov	 eax, DWORD PTR _nPriceUnitX100$1$[ebp]
  007ac	03 c1		 add	 eax, ecx
  007ae	89 b5 7c ff ff
	ff		 mov	 DWORD PTR _nMPItemTop$1$[ebp], esi
  007b4	0f af c2	 imul	 eax, edx

; 325  : 			int nMPItemBottom	= graphRegion.bottom - int( graphRegion.Height() * ( pMPItem->GetPriceX100()					- nViewMinX100) / double( nViewMaxX100 - nViewMinX100));

  007b7	0f af ca	 imul	 ecx, edx
  007ba	66 0f 6e c0	 movd	 xmm0, eax
  007be	f3 0f e6 c0	 cvtdq2pd xmm0, xmm0
  007c2	f2 0f 5e c1	 divsd	 xmm0, xmm1
  007c6	f2 0f 2c c0	 cvttsd2si eax, xmm0
  007ca	66 0f 6e c1	 movd	 xmm0, ecx
  007ce	f3 0f e6 c0	 cvtdq2pd xmm0, xmm0
  007d2	29 85 7c ff ff
	ff		 sub	 DWORD PTR _nMPItemTop$1$[ebp], eax
  007d8	f2 0f 5e c1	 divsd	 xmm0, xmm1
  007dc	f2 0f 2c c0	 cvttsd2si eax, xmm0
  007e0	2b f0		 sub	 esi, eax

; 326  : 
; 327  : 			// 3.8 먼저 거래량과 Bracket수를 출력시킨다. (물론 CMProfile Chart가 2개 이내인 경우)
; 328  : 			// (2004.02.05, 배승원) 거래량과 Bracket수 영역이 단위 Bracket의 크기보다 작지 않도록 한다.
; 329  : 			//		실제 거래량과 Bracket수 영역을 보관하여 Text 출력시 출력열이 중앙 정렬되도록 한다. (Text 중앙정렬 말고)
; 330  : 			if(	bWithText)

  007e2	83 bd 6c ff ff
	ff 00		 cmp	 DWORD PTR _bWithText$1$[ebp], 0
  007e9	89 b5 3c ff ff
	ff		 mov	 DWORD PTR _nMPItemBottom$1$[ebp], esi
  007ef	0f 84 66 01 00
	00		 je	 $LN205@DrawMarket

; 333  : 				int		nBracketCount	= pMPItem->GetBracketList()->GetCount();

  007f5	8b 43 14	 mov	 eax, DWORD PTR [ebx+20]

; 334  : 				DWORD	dwVolume		= pMPItem->GetVolume();
; 335  : 
; 336  : 				// 3.8.1 거래량과 Bracket 수를 TEXT로 구한다.
; 337  : 				CString strVolume, strBracketCount;

  007f8	8d 8d 34 ff ff
	ff		 lea	 ecx, DWORD PTR _strVolume$11[ebp]
; File D:\git\src\IBK\IBK_DRFN\ProjSrc\SrcChartEx\ChartOCX\Include_Chart\Dll_Load\PacketBase.h

; 265  : 	DWORD	GetVolume()		const { return m_dwVolume;		}

  007fe	8b 73 04	 mov	 esi, DWORD PTR [ebx+4]
; File D:\git\src\IBK\IBK_DRFN\ProjSrc\SrcChartEx\ChartOCX\GraphDraw\OptionDraw.cpp

; 333  : 				int		nBracketCount	= pMPItem->GetBracketList()->GetCount();

  00801	89 45 84	 mov	 DWORD PTR _nBracketCount$1$[ebp], eax

; 334  : 				DWORD	dwVolume		= pMPItem->GetVolume();
; 335  : 
; 336  : 				// 3.8.1 거래량과 Bracket 수를 TEXT로 구한다.
; 337  : 				CString strVolume, strBracketCount;

  00804	ff 15 00 00 00
	00		 call	 DWORD PTR __imp_??0?$CStringT@DV?$StrTraitMFC_DLL@DV?$ChTraitsCRT@D@ATL@@@@@ATL@@QAE@XZ
  0080a	8d 8d 68 ff ff
	ff		 lea	 ecx, DWORD PTR _strBracketCount$13[ebp]
  00810	ff 15 00 00 00
	00		 call	 DWORD PTR __imp_??0?$CStringT@DV?$StrTraitMFC_DLL@DV?$ChTraitsCRT@D@ATL@@@@@ATL@@QAE@XZ

; 338  : 				strBracketCount.Format( "%d", nBracketCount);

  00816	ff 75 84	 push	 DWORD PTR _nBracketCount$1$[ebp]
  00819	8d 85 68 ff ff
	ff		 lea	 eax, DWORD PTR _strBracketCount$13[ebp]
  0081f	c6 45 fc 04	 mov	 BYTE PTR __$EHRec$[ebp+8], 4
  00823	68 00 00 00 00	 push	 OFFSET ??_C@_02DPKJAMEF@?$CFd@
  00828	50		 push	 eax
  00829	ff 15 00 00 00
	00		 call	 DWORD PTR __imp_?Format@?$CStringT@DV?$StrTraitMFC_DLL@DV?$ChTraitsCRT@D@ATL@@@@@ATL@@QAAXPBDZZ

; 339  : 				strVolume.Format( "%lu", dwVolume);

  0082f	56		 push	 esi
  00830	8d 85 34 ff ff
	ff		 lea	 eax, DWORD PTR _strVolume$11[ebp]
  00836	68 00 00 00 00	 push	 OFFSET ??_C@_03FKNCMABI@?$CFlu@
  0083b	50		 push	 eax
  0083c	ff 15 00 00 00
	00		 call	 DWORD PTR __imp_?Format@?$CStringT@DV?$StrTraitMFC_DLL@DV?$ChTraitsCRT@D@ATL@@@@@ATL@@QAAXPBDZZ
  00842	8b 07		 mov	 eax, DWORD PTR [edi]
  00844	83 c4 18	 add	 esp, 24			; 00000018H

; 340  : 
; 341  : 				// 3.8.2 거래량을 먼저 출력시킨다.
; 342  : 				// 3.8.2.1 먼저 거래량의 색상을 설정한다.
; 343  : 				if( dwVolume == dwMaxVolume) pDC->SetTextColor( clrMaxTextColor);

  00847	8b cf		 mov	 ecx, edi
  00849	8b 40 38	 mov	 eax, DWORD PTR [eax+56]
  0084c	3b b5 c8 fe ff
	ff		 cmp	 esi, DWORD PTR _dwMaxVolume$1$[ebp]
  00852	75 08		 jne	 SHORT $LN23@DrawMarket
  00854	ff b5 1c ff ff
	ff		 push	 DWORD PTR _clrMaxTextColor$1$[ebp]
  0085a	eb 06		 jmp	 SHORT $LN208@DrawMarket
$LN23@DrawMarket:

; 344  : 				else pDC->SetTextColor( clrNormalTextColor);

  0085c	ff b5 2c ff ff
	ff		 push	 DWORD PTR _clrNormalTextColor$1$[ebp]
$LN208@DrawMarket:
; File C:\Program Files (x86)\Microsoft Visual Studio\2019\Community\VC\Tools\MSVC\14.29.30133\atlmfc\include\atltypes.h

; 540  : 	left = l;

  00862	ff d0		 call	 eax

; 541  : 	top = t;

  00864	8b 85 7c ff ff
	ff		 mov	 eax, DWORD PTR _nMPItemTop$1$[ebp]
  0086a	8b 8d 74 ff ff
	ff		 mov	 ecx, DWORD PTR _nMProfileLeft$1$[ebp]

; 543  : 	bottom = b;

  00870	8b b5 3c ff ff
	ff		 mov	 esi, DWORD PTR _nMPItemBottom$1$[ebp]
  00876	89 45 d4	 mov	 DWORD PTR _rctVolumeRect$17[ebp+4], eax
  00879	8b 85 c4 fe ff
	ff		 mov	 eax, DWORD PTR tv2042[ebp]
  0087f	03 45 80	 add	 eax, DWORD PTR tv2045[ebp]
  00882	89 45 d8	 mov	 DWORD PTR _rctVolumeRect$17[ebp+8], eax

; 698  : 	::InflateRect(this, -x, -y);

  00885	2b c1		 sub	 eax, ecx
; File D:\git\src\IBK\IBK_DRFN\ProjSrc\SrcChartEx\ChartOCX\GraphDraw\OptionDraw.cpp

; 347  : 				rctVolumeRect.DeflateRect( ( rctVolumeRect.Width() - nRealVolumeWidth) / 2, 0);

  00887	2b 85 14 ff ff
	ff		 sub	 eax, DWORD PTR _nRealVolumeWidth$1$[ebp]
; File C:\Program Files (x86)\Microsoft Visual Studio\2019\Community\VC\Tools\MSVC\14.29.30133\atlmfc\include\atltypes.h

; 698  : 	::InflateRect(this, -x, -y);

  0088d	99		 cdq
  0088e	2b c2		 sub	 eax, edx

; 540  : 	left = l;

  00890	89 4d d0	 mov	 DWORD PTR _rctVolumeRect$17[ebp], ecx

; 698  : 	::InflateRect(this, -x, -y);

  00893	d1 f8		 sar	 eax, 1
  00895	6a 00		 push	 0
  00897	f7 d8		 neg	 eax

; 543  : 	bottom = b;

  00899	89 75 dc	 mov	 DWORD PTR _rctVolumeRect$17[ebp+12], esi

; 698  : 	::InflateRect(this, -x, -y);

  0089c	50		 push	 eax
  0089d	8d 45 d0	 lea	 eax, DWORD PTR _rctVolumeRect$17[ebp]
  008a0	50		 push	 eax
  008a1	ff 15 00 00 00
	00		 call	 DWORD PTR __imp__InflateRect@12
; File C:\Program Files (x86)\Microsoft Visual Studio\2019\Community\VC\Tools\MSVC\14.29.30133\atlmfc\include\atlsimpstr.h

; 519  : 		return( GetData()->nDataLength );

  008a7	8b 85 34 ff ff
	ff		 mov	 eax, DWORD PTR _strVolume$11[ebp]
; File C:\Program Files (x86)\Microsoft Visual Studio\2019\Community\VC\Tools\MSVC\14.29.30133\atlmfc\include\afxwin1.inl

; 600  : 		return _AFX_FUNCNAME(DrawText)((LPCTSTR)str, (int)str.GetLength(), lpRect, nFormat); }

  008ad	8d 4d d0	 lea	 ecx, DWORD PTR _rctVolumeRect$17[ebp]
  008b0	8b 17		 mov	 edx, DWORD PTR [edi]
  008b2	68 26 01 00 00	 push	 294			; 00000126H
  008b7	51		 push	 ecx
  008b8	ff 70 f4	 push	 DWORD PTR [eax-12]
  008bb	8b cf		 mov	 ecx, edi
  008bd	50		 push	 eax
  008be	ff 52 70	 call	 DWORD PTR [edx+112]
  008c1	8b 07		 mov	 eax, DWORD PTR [edi]
; File D:\git\src\IBK\IBK_DRFN\ProjSrc\SrcChartEx\ChartOCX\GraphDraw\OptionDraw.cpp

; 352  : 				if( nBracketCount == nMaxBracketCountInMProfile) pDC->SetTextColor( clrMaxTextColor);

  008c3	8b 8d 10 ff ff
	ff		 mov	 ecx, DWORD PTR _nMaxBracketCountInMProfile$1$[ebp]
  008c9	39 4d 84	 cmp	 DWORD PTR _nBracketCount$1$[ebp], ecx
  008cc	8b cf		 mov	 ecx, edi
; File C:\Program Files (x86)\Microsoft Visual Studio\2019\Community\VC\Tools\MSVC\14.29.30133\atlmfc\include\afxwin1.inl

; 600  : 		return _AFX_FUNCNAME(DrawText)((LPCTSTR)str, (int)str.GetLength(), lpRect, nFormat); }

  008ce	8b 40 38	 mov	 eax, DWORD PTR [eax+56]
; File D:\git\src\IBK\IBK_DRFN\ProjSrc\SrcChartEx\ChartOCX\GraphDraw\OptionDraw.cpp

; 352  : 				if( nBracketCount == nMaxBracketCountInMProfile) pDC->SetTextColor( clrMaxTextColor);

  008d1	75 08		 jne	 SHORT $LN25@DrawMarket
  008d3	ff b5 1c ff ff
	ff		 push	 DWORD PTR _clrMaxTextColor$1$[ebp]
  008d9	eb 06		 jmp	 SHORT $LN209@DrawMarket
$LN25@DrawMarket:

; 353  : 				else pDC->SetTextColor( clrNormalTextColor);

  008db	ff b5 2c ff ff
	ff		 push	 DWORD PTR _clrNormalTextColor$1$[ebp]
$LN209@DrawMarket:
; File C:\Program Files (x86)\Microsoft Visual Studio\2019\Community\VC\Tools\MSVC\14.29.30133\atlmfc\include\atltypes.h

; 540  : 	left = l;

  008e1	ff d0		 call	 eax
  008e3	8b 55 80	 mov	 edx, DWORD PTR tv2045[ebp]

; 541  : 	top = t;

  008e6	8b 85 7c ff ff
	ff		 mov	 eax, DWORD PTR _nMPItemTop$1$[ebp]
  008ec	8b 8d 40 ff ff
	ff		 mov	 ecx, DWORD PTR tv2040[ebp]
  008f2	89 45 e4	 mov	 DWORD PTR _rctBracketCntRect$18[ebp+4], eax
  008f5	03 ca		 add	 ecx, edx

; 698  : 	::InflateRect(this, -x, -y);

  008f7	8b c2		 mov	 eax, edx

; 542  : 	right = r;

  008f9	89 55 e8	 mov	 DWORD PTR _rctBracketCntRect$18[ebp+8], edx

; 698  : 	::InflateRect(this, -x, -y);

  008fc	2b c1		 sub	 eax, ecx

; 540  : 	left = l;

  008fe	89 4d e0	 mov	 DWORD PTR _rctBracketCntRect$18[ebp], ecx
; File D:\git\src\IBK\IBK_DRFN\ProjSrc\SrcChartEx\ChartOCX\GraphDraw\OptionDraw.cpp

; 356  : 				rctBracketCntRect.DeflateRect( ( rctBracketCntRect.Width() - nRealBracketCntWidth) / 2, 0);

  00901	2b 85 0c ff ff
	ff		 sub	 eax, DWORD PTR _nRealBracketCntWidth$1$[ebp]
; File C:\Program Files (x86)\Microsoft Visual Studio\2019\Community\VC\Tools\MSVC\14.29.30133\atlmfc\include\atltypes.h

; 698  : 	::InflateRect(this, -x, -y);

  00907	99		 cdq
  00908	2b c2		 sub	 eax, edx

; 543  : 	bottom = b;

  0090a	89 75 ec	 mov	 DWORD PTR _rctBracketCntRect$18[ebp+12], esi

; 698  : 	::InflateRect(this, -x, -y);

  0090d	d1 f8		 sar	 eax, 1
  0090f	6a 00		 push	 0
  00911	f7 d8		 neg	 eax
  00913	50		 push	 eax
  00914	8d 45 e0	 lea	 eax, DWORD PTR _rctBracketCntRect$18[ebp]
  00917	50		 push	 eax
  00918	ff 15 00 00 00
	00		 call	 DWORD PTR __imp__InflateRect@12
; File C:\Program Files (x86)\Microsoft Visual Studio\2019\Community\VC\Tools\MSVC\14.29.30133\atlmfc\include\atlsimpstr.h

; 519  : 		return( GetData()->nDataLength );

  0091e	8b 85 68 ff ff
	ff		 mov	 eax, DWORD PTR _strBracketCount$13[ebp]
; File C:\Program Files (x86)\Microsoft Visual Studio\2019\Community\VC\Tools\MSVC\14.29.30133\atlmfc\include\afxwin1.inl

; 600  : 		return _AFX_FUNCNAME(DrawText)((LPCTSTR)str, (int)str.GetLength(), lpRect, nFormat); }

  00924	8d 4d e0	 lea	 ecx, DWORD PTR _rctBracketCntRect$18[ebp]
  00927	8b 17		 mov	 edx, DWORD PTR [edi]
  00929	68 26 01 00 00	 push	 294			; 00000126H
  0092e	51		 push	 ecx
  0092f	ff 70 f4	 push	 DWORD PTR [eax-12]
  00932	8b cf		 mov	 ecx, edi
  00934	50		 push	 eax
  00935	ff 52 70	 call	 DWORD PTR [edx+112]
; File D:\git\src\IBK\IBK_DRFN\ProjSrc\SrcChartEx\ChartOCX\GraphDraw\OptionDraw.cpp

; 358  : 			}

  00938	8d 8d 68 ff ff
	ff		 lea	 ecx, DWORD PTR _strBracketCount$13[ebp]
  0093e	ff 15 00 00 00
	00		 call	 DWORD PTR __imp_??1?$CStringT@DV?$StrTraitMFC_DLL@DV?$ChTraitsCRT@D@ATL@@@@@ATL@@QAE@XZ
  00944	8d 8d 34 ff ff
	ff		 lea	 ecx, DWORD PTR _strVolume$11[ebp]
  0094a	c6 45 fc 02	 mov	 BYTE PTR __$EHRec$[ebp+8], 2
  0094e	ff 15 00 00 00
	00		 call	 DWORD PTR __imp_??1?$CStringT@DV?$StrTraitMFC_DLL@DV?$ChTraitsCRT@D@ATL@@@@@ATL@@QAE@XZ
  00954	8b 13		 mov	 edx, DWORD PTR [ebx]
  00956	89 55 84	 mov	 DWORD PTR $T15[ebp], edx
  00959	eb 03		 jmp	 SHORT $LN203@DrawMarket
$LN205@DrawMarket:

; 326  : 
; 327  : 			// 3.8 먼저 거래량과 Bracket수를 출력시킨다. (물론 CMProfile Chart가 2개 이내인 경우)
; 328  : 			// (2004.02.05, 배승원) 거래량과 Bracket수 영역이 단위 Bracket의 크기보다 작지 않도록 한다.
; 329  : 			//		실제 거래량과 Bracket수 영역을 보관하여 Text 출력시 출력열이 중앙 정렬되도록 한다. (Text 중앙정렬 말고)
; 330  : 			if(	bWithText)

  0095b	8b 55 84	 mov	 edx, DWORD PTR $T15[ebp]
$LN203@DrawMarket:

; 359  : 
; 360  : 			// 3.9 각 가격대 행별로 Bracket을 출력처리한다.
; 361  : 			// 3.9.0 각 Bracket의 좌측 기준 좌표를 산출하여 관리한다.
; 362  : 			int	 nMProfileBracketLeft	= nMProfileLeft + nVolumeWidth + nBracketCntWidth;
; 363  : 			nMProfileBracketLeft		-= nBracketWidth;	// Loop에서 바로 증가되므로 미리 감하여 놓는다.
; 364  : 			// 3.9.1 각 가격대 행별로 Bracket을 출력처리한다.
; 365  : 			CList < CBracket *, CBracket *> *pBracketList = pMPItem->GetBracketList();
; 366  : 			POSITION posBracket = pBracketList->GetHeadPosition();
; 367  : 			//	(2004.02.03, 배승원) 최종 종가에 Last Bracket Mark가 출력되도록 한다.
; 368  : 			//		여기서 해당 Bracket Row가 종가 Row인지 확인한다. (MP Chart의 종가는 MP Chart가 관리한다.)
; 369  : 			BOOL bLastPriceBracketRow = ( pMPItem->GetPriceX100() == pMarketProfile->GetLastPriceX100());

  0095e	8b 85 04 ff ff
	ff		 mov	 eax, DWORD PTR _pMarketProfile$1$[ebp]
  00964	8b 5b 0c	 mov	 ebx, DWORD PTR [ebx+12]
  00967	8b 8d 08 ff ff
	ff		 mov	 ecx, DWORD PTR tv2043[ebp]
  0096d	8b 40 24	 mov	 eax, DWORD PTR [eax+36]
  00970	89 85 5c ff ff
	ff		 mov	 DWORD PTR tv2087[ebp], eax

; 370  : 			while( posBracket)

  00976	85 db		 test	 ebx, ebx
  00978	0f 84 a1 01 00
	00		 je	 $LN7@DrawMarket
  0097e	66 90		 npad	 2
$LL6@DrawMarket:

; 371  : 			{
; 372  : 				CBracket *pBracket = pBracketList->GetNext( posBracket);

  00980	8b 43 08	 mov	 eax, DWORD PTR [ebx+8]
; File C:\Program Files (x86)\Microsoft Visual Studio\2019\Community\VC\Tools\MSVC\14.29.30133\atlmfc\include\afxtempl.h

; 813  : 		rPosition = (POSITION) pNode->pNext;

  00983	8b 1b		 mov	 ebx, DWORD PTR [ebx]
; File D:\git\src\IBK\IBK_DRFN\ProjSrc\SrcChartEx\ChartOCX\GraphDraw\OptionDraw.cpp

; 375  : 				nMProfileBracketLeft += nBracketWidth;

  00985	03 8d 78 ff ff
	ff		 add	 ecx, DWORD PTR _nBracketWidth$1$[ebp]
  0098b	89 85 c0 fe ff
	ff		 mov	 DWORD PTR _pBracket$1$[ebp], eax
; File D:\git\src\IBK\IBK_DRFN\ProjSrc\SrcChartEx\ChartOCX\Include_Chart\Dll_Load\PacketBase.h

; 249  : 	int				GetIndex()	const	{	return m_nIndex;	}

  00991	8b 30		 mov	 esi, DWORD PTR [eax]
; File C:\Program Files (x86)\Microsoft Visual Studio\2019\Community\VC\Tools\MSVC\14.29.30133\atlmfc\include\atltypes.h

; 541  : 	top = t;

  00993	8b 85 7c ff ff
	ff		 mov	 eax, DWORD PTR _nMPItemTop$1$[ebp]
  00999	89 45 c4	 mov	 DWORD PTR _rctBracket$16[ebp+4], eax

; 542  : 	right = r;

  0099c	8b 85 78 ff ff
	ff		 mov	 eax, DWORD PTR _nBracketWidth$1$[ebp]
  009a2	03 c1		 add	 eax, ecx
; File D:\git\src\IBK\IBK_DRFN\ProjSrc\SrcChartEx\ChartOCX\GraphDraw\OptionDraw.cpp

; 375  : 				nMProfileBracketLeft += nBracketWidth;

  009a4	89 8d e8 fe ff
	ff		 mov	 DWORD PTR _nMProfileBracketLeft$1$[ebp], ecx
; File C:\Program Files (x86)\Microsoft Visual Studio\2019\Community\VC\Tools\MSVC\14.29.30133\atlmfc\include\atltypes.h

; 542  : 	right = r;

  009aa	89 45 c8	 mov	 DWORD PTR _rctBracket$16[ebp+8], eax

; 543  : 	bottom = b;

  009ad	8b 85 3c ff ff
	ff		 mov	 eax, DWORD PTR _nMPItemBottom$1$[ebp]
; File D:\git\src\IBK\IBK_DRFN\ProjSrc\SrcChartEx\ChartOCX\Include_Chart\Dll_Load\PacketBase.h

; 249  : 	int				GetIndex()	const	{	return m_nIndex;	}

  009b3	89 b5 f4 fe ff
	ff		 mov	 DWORD PTR _nBracketIndex$1$[ebp], esi
; File C:\Program Files (x86)\Microsoft Visual Studio\2019\Community\VC\Tools\MSVC\14.29.30133\atlmfc\include\atltypes.h

; 540  : 	left = l;

  009b9	89 4d c0	 mov	 DWORD PTR _rctBracket$16[ebp], ecx

; 543  : 	bottom = b;

  009bc	89 45 cc	 mov	 DWORD PTR _rctBracket$16[ebp+12], eax
; File D:\git\src\IBK\IBK_DRFN\ProjSrc\SrcChartEx\ChartOCX\GraphDraw\OptionDraw.cpp

; 383  : 				if( bLastPriceBracketRow && !posBracket)

  009bf	3b 95 5c ff ff
	ff		 cmp	 edx, DWORD PTR tv2087[ebp]
  009c5	75 0f		 jne	 SHORT $LN27@DrawMarket
  009c7	85 db		 test	 ebx, ebx
  009c9	75 0b		 jne	 SHORT $LN27@DrawMarket

; 384  : 					pDC->FillSolidRect( rctBracket, clrLastBracketColor);

  009cb	8b 8d 00 ff ff
	ff		 mov	 ecx, DWORD PTR tv2090[ebp]
  009d1	e9 df 00 00 00	 jmp	 $LN30@DrawMarket
$LN27@DrawMarket:

; 385  : 				else
; 386  : 				{
; 387  : 					if( nBracketIndex == 1)

  009d6	83 fe 01	 cmp	 esi, 1
  009d9	75 0b		 jne	 SHORT $LN29@DrawMarket

; 388  : 						pDC->FillSolidRect( rctBracket, clrFirstBracketColor);

  009db	8b 8d fc fe ff
	ff		 mov	 ecx, DWORD PTR tv2091[ebp]
  009e1	e9 cf 00 00 00	 jmp	 $LN30@DrawMarket
$LN29@DrawMarket:

; 389  : 					else
; 390  : 						pDC->FillSolidRect( rctBracket,

  009e6	8b 85 18 ff ff
	ff		 mov	 eax, DWORD PTR _dwStartColor$1$[ebp]
  009ec	c1 e8 10	 shr	 eax, 16			; 00000010H
  009ef	0f b6 c8	 movzx	 ecx, al
  009f2	8b 85 18 ff ff
	ff		 mov	 eax, DWORD PTR _dwStartColor$1$[ebp]
  009f8	66 0f 6e 9d f8
	fe ff ff	 movd	 xmm3, DWORD PTR _nTotalBracketCount$1$[ebp]
  00a00	0f b7 d0	 movzx	 edx, ax
  00a03	66 0f 6e d6	 movd	 xmm2, esi
  00a07	0f b6 f0	 movzx	 esi, al
  00a0a	8b 85 30 ff ff
	ff		 mov	 eax, DWORD PTR _dwEndColor$1$[ebp]
  00a10	c1 e8 10	 shr	 eax, 16			; 00000010H
  00a13	0f b6 c0	 movzx	 eax, al
  00a16	2b c1		 sub	 eax, ecx
  00a18	66 0f 6e c1	 movd	 xmm0, ecx
  00a1c	f3 0f e6 db	 cvtdq2pd xmm3, xmm3
  00a20	c1 ea 08	 shr	 edx, 8
  00a23	66 0f 6e c8	 movd	 xmm1, eax
  00a27	f3 0f e6 c9	 cvtdq2pd xmm1, xmm1
  00a2b	f3 0f e6 d2	 cvtdq2pd xmm2, xmm2
  00a2f	f2 0f 5e cb	 divsd	 xmm1, xmm3
  00a33	f3 0f e6 c0	 cvtdq2pd xmm0, xmm0
  00a37	f2 0f 59 ca	 mulsd	 xmm1, xmm2
  00a3b	f2 0f 58 c8	 addsd	 xmm1, xmm0
  00a3f	66 0f 6e c2	 movd	 xmm0, edx
  00a43	f3 0f e6 c0	 cvtdq2pd xmm0, xmm0
  00a47	f2 0f 2c c1	 cvttsd2si eax, xmm1
  00a4b	0f b6 c8	 movzx	 ecx, al
  00a4e	8b 85 30 ff ff
	ff		 mov	 eax, DWORD PTR _dwEndColor$1$[ebp]
  00a54	0f b7 c0	 movzx	 eax, ax
  00a57	c1 e8 08	 shr	 eax, 8
  00a5a	2b c2		 sub	 eax, edx
  00a5c	c1 e1 08	 shl	 ecx, 8
  00a5f	66 0f 6e c8	 movd	 xmm1, eax
  00a63	f3 0f e6 c9	 cvtdq2pd xmm1, xmm1
  00a67	f2 0f 5e cb	 divsd	 xmm1, xmm3
  00a6b	f2 0f 59 ca	 mulsd	 xmm1, xmm2
  00a6f	f2 0f 58 c8	 addsd	 xmm1, xmm0
  00a73	66 0f 6e c6	 movd	 xmm0, esi
  00a77	f3 0f e6 c0	 cvtdq2pd xmm0, xmm0
  00a7b	f2 0f 2c c1	 cvttsd2si eax, xmm1
  00a7f	0f b6 c0	 movzx	 eax, al
  00a82	0b c8		 or	 ecx, eax
  00a84	8b 85 30 ff ff
	ff		 mov	 eax, DWORD PTR _dwEndColor$1$[ebp]
  00a8a	0f b6 c0	 movzx	 eax, al
  00a8d	2b c6		 sub	 eax, esi
  00a8f	c1 e1 08	 shl	 ecx, 8
  00a92	8b b5 f4 fe ff
	ff		 mov	 esi, DWORD PTR _nBracketIndex$1$[ebp]
  00a98	66 0f 6e c8	 movd	 xmm1, eax
  00a9c	f3 0f e6 c9	 cvtdq2pd xmm1, xmm1
  00aa0	f2 0f 5e cb	 divsd	 xmm1, xmm3
  00aa4	f2 0f 59 ca	 mulsd	 xmm1, xmm2
  00aa8	f2 0f 58 c8	 addsd	 xmm1, xmm0
  00aac	f2 0f 2c c1	 cvttsd2si eax, xmm1
  00ab0	0f b6 c0	 movzx	 eax, al
  00ab3	0b c8		 or	 ecx, eax
$LN30@DrawMarket:

; 391  : 							RGB(	GetRValue( dwStartColor) + ( GetRValue( dwEndColor) - GetRValue( dwStartColor)) / ( double)nTotalBracketCount * nBracketIndex,
; 392  : 									GetGValue( dwStartColor) + ( GetGValue( dwEndColor) - GetGValue( dwStartColor)) / ( double)nTotalBracketCount * nBracketIndex,
; 393  : 									GetBValue( dwStartColor) + ( GetBValue( dwEndColor) - GetBValue( dwStartColor)) / ( double)nTotalBracketCount * nBracketIndex));
; 394  : 				}
; 395  : 
; 396  : 				// 3.12 Bracket내에 Text를 출력한다.
; 397  : 				if(	bWithText)

  00ab5	51		 push	 ecx
  00ab6	8d 45 c0	 lea	 eax, DWORD PTR _rctBracket$16[ebp]
  00ab9	8b cf		 mov	 ecx, edi
  00abb	50		 push	 eax
  00abc	e8 00 00 00 00	 call	 ?FillSolidRect@CDC@@QAEXPBUtagRECT@@K@Z ; CDC::FillSolidRect
  00ac1	83 bd 6c ff ff
	ff 00		 cmp	 DWORD PTR _bWithText$1$[ebp], 0
  00ac8	74 44		 je	 SHORT $LN31@DrawMarket

; 398  : 				{
; 399  : 					// (2004.02.24, 배승원) 시작 Bracket뿐만 아니라, 끝 Bracket의 글자색도 검은색으로 한다.
; 400  : 					if( nBracketIndex == 1 || bLastPriceBracketRow && !posBracket) pDC->SetTextColor( clrNormalTextColor);

  00aca	83 fe 01	 cmp	 esi, 1
  00acd	74 17		 je	 SHORT $LN34@DrawMarket
  00acf	8b 45 84	 mov	 eax, DWORD PTR $T15[ebp]
  00ad2	3b 85 5c ff ff
	ff		 cmp	 eax, DWORD PTR tv2087[ebp]
  00ad8	75 04		 jne	 SHORT $LN32@DrawMarket
  00ada	85 db		 test	 ebx, ebx
  00adc	74 08		 je	 SHORT $LN34@DrawMarket
$LN32@DrawMarket:

; 401  : 					else pDC->SetTextColor( clrBracketTextColor);

  00ade	ff b5 f0 fe ff
	ff		 push	 DWORD PTR _clrBracketTextColor$1$[ebp]
  00ae4	eb 06		 jmp	 SHORT $LN210@DrawMarket
$LN34@DrawMarket:

; 398  : 				{
; 399  : 					// (2004.02.24, 배승원) 시작 Bracket뿐만 아니라, 끝 Bracket의 글자색도 검은색으로 한다.
; 400  : 					if( nBracketIndex == 1 || bLastPriceBracketRow && !posBracket) pDC->SetTextColor( clrNormalTextColor);

  00ae6	ff b5 2c ff ff
	ff		 push	 DWORD PTR _clrNormalTextColor$1$[ebp]
$LN210@DrawMarket:

; 402  : 					pDC->DrawText( pBracket->GetItem(), 1, rctBracket, DT_SINGLELINE | DT_NOCLIP | DT_CENTER | DT_VCENTER);

  00aec	8b 07		 mov	 eax, DWORD PTR [edi]
  00aee	8b cf		 mov	 ecx, edi
  00af0	ff 50 38	 call	 DWORD PTR [eax+56]
  00af3	8b 07		 mov	 eax, DWORD PTR [edi]
  00af5	8d 4d c0	 lea	 ecx, DWORD PTR _rctBracket$16[ebp]
  00af8	68 25 01 00 00	 push	 293			; 00000125H
  00afd	51		 push	 ecx
  00afe	8b 8d c0 fe ff
	ff		 mov	 ecx, DWORD PTR _pBracket$1$[ebp]
  00b04	6a 01		 push	 1
  00b06	ff 71 08	 push	 DWORD PTR [ecx+8]
  00b09	8b cf		 mov	 ecx, edi
  00b0b	ff 50 70	 call	 DWORD PTR [eax+112]
$LN31@DrawMarket:

; 370  : 			while( posBracket)

  00b0e	8b 8d e8 fe ff
	ff		 mov	 ecx, DWORD PTR _nMProfileBracketLeft$1$[ebp]
  00b14	8b 55 84	 mov	 edx, DWORD PTR $T15[ebp]
  00b17	85 db		 test	 ebx, ebx
  00b19	0f 85 61 fe ff
	ff		 jne	 $LL6@DrawMarket
$LN7@DrawMarket:

; 315  : 		}
; 316  : 
; 317  : 		// 3.6 각 CMProfile의 가격대 행(CMPItem)별로 Drawing 처리한다.
; 318  : 		while( posMPItem)

  00b1f	8b b5 60 ff ff
	ff		 mov	 esi, DWORD PTR _posMPItem$1$[ebp]
  00b25	f2 0f 10 8d 24
	ff ff ff	 movsd	 xmm1, QWORD PTR tv2046[ebp]
  00b2d	85 f6		 test	 esi, esi
  00b2f	0f 85 4b fc ff
	ff		 jne	 $LL4@DrawMarket
  00b35	8b 8d 70 ff ff
	ff		 mov	 ecx, DWORD PTR _posMProfile$1$[ebp]
$LN5@DrawMarket:

; 284  : 	while( posMProfile)

  00b3b	85 c9		 test	 ecx, ecx
  00b3d	0f 85 9d fa ff
	ff		 jne	 $LL2@DrawMarket
$LN204@DrawMarket:

; 403  : 				}
; 404  : 			}
; 405  : 		}
; 406  : 	}
; 407  : 
; 408  : 	// 3.0 DC에 기본 설정을 처리하여 이후 이용토록 한다.
; 409  : 	pDC->SelectObject( pOldBrush);

  00b43	ff b5 e4 fe ff
	ff		 push	 DWORD PTR _pOldBrush$1$[ebp]
  00b49	8b cf		 mov	 ecx, edi
  00b4b	e8 00 00 00 00	 call	 ?SelectObject@CDC@@QAEPAVCBrush@@PAV2@@Z ; CDC::SelectObject

; 410  : 	pDC->SelectObject( pOldPen);

  00b50	ff b5 e0 fe ff
	ff		 push	 DWORD PTR _pOldPen$1$[ebp]
  00b56	8b cf		 mov	 ecx, edi
  00b58	e8 00 00 00 00	 call	 ?SelectObject@CDC@@QAEPAVCPen@@PAV2@@Z ; CDC::SelectObject

; 411  : 	pDC->SetTextColor( clrOldTextColor);

  00b5d	8b 07		 mov	 eax, DWORD PTR [edi]
  00b5f	8b cf		 mov	 ecx, edi
  00b61	ff b5 dc fe ff
	ff		 push	 DWORD PTR _clrOldTextColor$1$[ebp]
  00b67	ff 50 38	 call	 DWORD PTR [eax+56]

; 412  : 	pDC->SetBkMode( nOldBkMode);

  00b6a	ff b5 d8 fe ff
	ff		 push	 DWORD PTR _nOldBkMode$1$[ebp]
  00b70	8b cf		 mov	 ecx, edi
  00b72	e8 00 00 00 00	 call	 ?SetBkMode@CDC@@QAEHH@Z	; CDC::SetBkMode

; 413  : 	pDC->SelectObject( pOldfont);

  00b77	8b 07		 mov	 eax, DWORD PTR [edi]
  00b79	8b cf		 mov	 ecx, edi
  00b7b	ff b5 50 ff ff
	ff		 push	 DWORD PTR _pOldfont$1$[ebp]
  00b81	ff 50 30	 call	 DWORD PTR [eax+48]

; 414  : 	fFont.DeleteObject();

  00b84	8d 8d 54 ff ff
	ff		 lea	 ecx, DWORD PTR _fFont$[ebp]
  00b8a	e8 00 00 00 00	 call	 ?DeleteObject@CGdiObject@@QAEHXZ ; CGdiObject::DeleteObject

; 416  : 	return true;

  00b8f	b3 01		 mov	 bl, 1
$LN46@DrawMarket:
  00b91	8d 8d 48 ff ff
	ff		 lea	 ecx, DWORD PTR _strMaxBracketCnt$[ebp]
  00b97	ff 15 00 00 00
	00		 call	 DWORD PTR __imp_??1?$CStringT@DV?$StrTraitMFC_DLL@DV?$ChTraitsCRT@D@ATL@@@@@ATL@@QAE@XZ
  00b9d	8d 8d 44 ff ff
	ff		 lea	 ecx, DWORD PTR _strMaxVolume$[ebp]
  00ba3	ff 15 00 00 00
	00		 call	 DWORD PTR __imp_??1?$CStringT@DV?$StrTraitMFC_DLL@DV?$ChTraitsCRT@D@ATL@@@@@ATL@@QAE@XZ
; File C:\Program Files (x86)\Microsoft Visual Studio\2019\Community\VC\Tools\MSVC\14.29.30133\atlmfc\include\afxwin1.inl

; 155  : 	{ }

  00ba9	8d 8d 54 ff ff
	ff		 lea	 ecx, DWORD PTR _fFont$[ebp]
  00baf	c7 85 54 ff ff
	ff 00 00 00 00	 mov	 DWORD PTR _fFont$[ebp], OFFSET ??_7CFont@@6B@
  00bb9	e8 00 00 00 00	 call	 ??1CGdiObject@@UAE@XZ	; CGdiObject::~CGdiObject
; File D:\git\src\IBK\IBK_DRFN\ProjSrc\SrcChartEx\ChartOCX\GraphDraw\OptionDraw.cpp

; 416  : 	return true;

  00bbe	8a c3		 mov	 al, bl
  00bc0	eb 06		 jmp	 SHORT $LN1@DrawMarket
$LN192@DrawMarket:
  00bc2	32 db		 xor	 bl, bl
  00bc4	eb cb		 jmp	 SHORT $LN46@DrawMarket
$LN11@DrawMarket:

; 117  : 	if( !pMProfileList || nMProfileCount < 1) return false;

  00bc6	32 c0		 xor	 al, al
$LN1@DrawMarket:

; 417  : }

  00bc8	8b 4d f4	 mov	 ecx, DWORD PTR __$EHRec$[ebp]
  00bcb	64 89 0d 00 00
	00 00		 mov	 DWORD PTR fs:0, ecx
  00bd2	59		 pop	 ecx
  00bd3	5f		 pop	 edi
  00bd4	5e		 pop	 esi
  00bd5	5b		 pop	 ebx
  00bd6	8b 4d f0	 mov	 ecx, DWORD PTR __$ArrayPad$[ebp]
  00bd9	33 cd		 xor	 ecx, ebp
  00bdb	e8 00 00 00 00	 call	 @__security_check_cookie@4
  00be0	8b e5		 mov	 esp, ebp
  00be2	5d		 pop	 ebp
  00be3	c2 18 00	 ret	 24			; 00000018H
$LN212@DrawMarket:
; File C:\Program Files (x86)\Microsoft Visual Studio\2019\Community\VC\Tools\MSVC\14.29.30133\atlmfc\include\afxtempl.h

; 793  : 	{ ENSURE(m_pNodeHead != NULL);

  00be6	e8 00 00 00 00	 call	 ?AfxThrowInvalidArgException@@YGXXZ ; AfxThrowInvalidArgException
$LN207@DrawMarket:
  00beb	cc		 int	 3
_TEXT	ENDS
;	COMDAT text$x
text$x	SEGMENT
__unwindfunclet$?DrawMarketProfile@COptionDraw@@AAE_NPAVCDC@@ABVCRect@@ABN2ABVCGraphColor@@ABV?$CList@PAVCPacket@@PAV1@@@@Z$0:
  00000	8d 8d 54 ff ff
	ff		 lea	 ecx, DWORD PTR _fFont$[ebp]
  00006	e9 00 00 00 00	 jmp	 ??1CFont@@UAE@XZ	; CFont::~CFont
__unwindfunclet$?DrawMarketProfile@COptionDraw@@AAE_NPAVCDC@@ABVCRect@@ABN2ABVCGraphColor@@ABV?$CList@PAVCPacket@@PAV1@@@@Z$1:
  0000b	8d 8d 44 ff ff
	ff		 lea	 ecx, DWORD PTR _strMaxVolume$[ebp]
  00011	ff 25 00 00 00
	00		 jmp	 DWORD PTR __imp_??1?$CStringT@DV?$StrTraitMFC_DLL@DV?$ChTraitsCRT@D@ATL@@@@@ATL@@QAE@XZ
__unwindfunclet$?DrawMarketProfile@COptionDraw@@AAE_NPAVCDC@@ABVCRect@@ABN2ABVCGraphColor@@ABV?$CList@PAVCPacket@@PAV1@@@@Z$2:
  00017	8d 8d 48 ff ff
	ff		 lea	 ecx, DWORD PTR _strMaxBracketCnt$[ebp]
  0001d	ff 25 00 00 00
	00		 jmp	 DWORD PTR __imp_??1?$CStringT@DV?$StrTraitMFC_DLL@DV?$ChTraitsCRT@D@ATL@@@@@ATL@@QAE@XZ
__unwindfunclet$?DrawMarketProfile@COptionDraw@@AAE_NPAVCDC@@ABVCRect@@ABN2ABVCGraphColor@@ABV?$CList@PAVCPacket@@PAV1@@@@Z$4:
  00023	8d 8d 34 ff ff
	ff		 lea	 ecx, DWORD PTR _strVolume$11[ebp]
  00029	ff 25 00 00 00
	00		 jmp	 DWORD PTR __imp_??1?$CStringT@DV?$StrTraitMFC_DLL@DV?$ChTraitsCRT@D@ATL@@@@@ATL@@QAE@XZ
__unwindfunclet$?DrawMarketProfile@COptionDraw@@AAE_NPAVCDC@@ABVCRect@@ABN2ABVCGraphColor@@ABV?$CList@PAVCPacket@@PAV1@@@@Z$5:
  0002f	8d 8d 68 ff ff
	ff		 lea	 ecx, DWORD PTR _strBracketCount$13[ebp]
  00035	ff 25 00 00 00
	00		 jmp	 DWORD PTR __imp_??1?$CStringT@DV?$StrTraitMFC_DLL@DV?$ChTraitsCRT@D@ATL@@@@@ATL@@QAE@XZ
  0003b	cc		 int	 3
  0003c	cc		 int	 3
  0003d	cc		 int	 3
  0003e	cc		 int	 3
  0003f	cc		 int	 3
__ehhandler$?DrawMarketProfile@COptionDraw@@AAE_NPAVCDC@@ABVCRect@@ABN2ABVCGraphColor@@ABV?$CList@PAVCPacket@@PAV1@@@@Z:
  00040	90		 npad	 1
  00041	90		 npad	 1
  00042	8b 54 24 08	 mov	 edx, DWORD PTR [esp+8]
  00046	8d 42 0c	 lea	 eax, DWORD PTR [edx+12]
  00049	8b 8a b4 fe ff
	ff		 mov	 ecx, DWORD PTR [edx-332]
  0004f	33 c8		 xor	 ecx, eax
  00051	e8 00 00 00 00	 call	 @__security_check_cookie@4
  00056	8b 4a fc	 mov	 ecx, DWORD PTR [edx-4]
  00059	33 c8		 xor	 ecx, eax
  0005b	e8 00 00 00 00	 call	 @__security_check_cookie@4
  00060	b8 00 00 00 00	 mov	 eax, OFFSET __ehfuncinfo$?DrawMarketProfile@COptionDraw@@AAE_NPAVCDC@@ABVCRect@@ABN2ABVCGraphColor@@ABV?$CList@PAVCPacket@@PAV1@@@@Z
  00065	e9 00 00 00 00	 jmp	 ___CxxFrameHandler3
text$x	ENDS
?DrawMarketProfile@COptionDraw@@AAE_NPAVCDC@@ABVCRect@@ABN2ABVCGraphColor@@ABV?$CList@PAVCPacket@@PAV1@@@@Z ENDP ; COptionDraw::DrawMarketProfile
; Function compile flags: /Ogtp
; File D:\git\src\IBK\IBK_DRFN\ProjSrc\SrcChartEx\ChartOCX\GraphDraw\OptionDraw.cpp
;	COMDAT ?DrawGraph@COptionDraw@@UAE_NPAVCDC@@ABVCRect@@ABVCDisplayAttributes@@ABVCDrawingGraphData@@ABVCSubGraphData@@PAVCXScaleManager@@@Z
_TEXT	SEGMENT
$T1 = -76						; size = 44
$T2 = -76						; size = 44
$T3 = -32						; size = 16
_dViewMin$ = -24					; size = 8
$T4 = -16						; size = 16
_dViewMax$ = -8						; size = 8
_pDC$ = 8						; size = 4
_realRegion$ = 12					; size = 4
_displayAttributes$ = 16				; size = 4
_drawingGraphData$ = 20					; size = 4
_subGraphData$ = 24					; size = 4
$T5 = 28						; size = 4
_pxScaleManager$ = 28					; size = 4
?DrawGraph@COptionDraw@@UAE_NPAVCDC@@ABVCRect@@ABVCDisplayAttributes@@ABVCDrawingGraphData@@ABVCSubGraphData@@PAVCXScaleManager@@@Z PROC ; COptionDraw::DrawGraph, COMDAT
; _this$ = ecx

; 65   : {

  00000	55		 push	 ebp
  00001	8b ec		 mov	 ebp, esp
  00003	83 ec 4c	 sub	 esp, 76			; 0000004cH
  00006	53		 push	 ebx
  00007	8b d9		 mov	 ebx, ecx

; 66   : 	if(pxScaleManager && pxScaleManager->GetThreadFlag() == THREAD_CALCULATION)

  00009	8b 4d 1c	 mov	 ecx, DWORD PTR _pxScaleManager$[ebp]
  0000c	85 c9		 test	 ecx, ecx
  0000e	74 16		 je	 SHORT $LN4@DrawGraph
  00010	8b 01		 mov	 eax, DWORD PTR [ecx]
  00012	ff 90 f8 00 00
	00		 call	 DWORD PTR [eax+248]
  00018	83 f8 01	 cmp	 eax, 1
  0001b	75 09		 jne	 SHORT $LN4@DrawGraph

; 67   : 		return true;

  0001d	8a c0		 mov	 al, al
  0001f	5b		 pop	 ebx

; 85   : }

  00020	8b e5		 mov	 esp, ebp
  00022	5d		 pop	 ebp
  00023	c2 18 00	 ret	 24			; 00000018H
$LN4@DrawGraph:
  00026	56		 push	 esi
  00027	57		 push	 edi

; 68   : 
; 69   : 	const CList< CPacket *, CPacket *> &packetList = drawingGraphData.GetSubGraphPacketList()->GetSubGraphPacketList();

  00028	8b 7d 14	 mov	 edi, DWORD PTR _drawingGraphData$[ebp]
  0002b	8b cf		 mov	 ecx, edi
  0002d	e8 00 00 00 00	 call	 ?GetSubGraphPacketList@CDrawingGraphData@@QBEPAVCSubGraphPacketList@@XZ ; CDrawingGraphData::GetSubGraphPacketList
  00032	8b c8		 mov	 ecx, eax
  00034	e8 00 00 00 00	 call	 ?GetSubGraphPacketList@CSubGraphPacketList@@QBEABV?$CList@PAVCPacket@@PAV1@@@XZ ; CSubGraphPacketList::GetSubGraphPacketList
  00039	8b f0		 mov	 esi, eax

; 70   : 	if( packetList.GetCount() <= 0)

  0003b	83 7e 0c 00	 cmp	 DWORD PTR [esi+12], 0
  0003f	7e 47		 jle	 SHORT $LN11@DrawGraph

; 71   : 		return false;
; 72   : 	double dViewMin = drawingGraphData.GetDisplayDataVertMinMax().GetDisplayMin();

  00041	8d 45 e0	 lea	 eax, DWORD PTR $T3[ebp]
  00044	8b cf		 mov	 ecx, edi
  00046	50		 push	 eax
  00047	e8 00 00 00 00	 call	 ?GetDisplayDataVertMinMax@CDrawingGraphData@@QBE?AVCDisplayDataMinMax@@XZ ; CDrawingGraphData::GetDisplayDataVertMinMax
  0004c	8b c8		 mov	 ecx, eax
  0004e	ff 15 00 00 00
	00		 call	 DWORD PTR __imp_?GetDisplayMin@CDisplayDataMinMax@@QBENXZ

; 73   : 	double dViewMax = drawingGraphData.GetDisplayDataVertMinMax().GetDisplayMax(); 

  00054	8d 45 f0	 lea	 eax, DWORD PTR $T4[ebp]
  00057	8b cf		 mov	 ecx, edi
  00059	50		 push	 eax
  0005a	dd 5d e8	 fstp	 QWORD PTR _dViewMin$[ebp]
  0005d	e8 00 00 00 00	 call	 ?GetDisplayDataVertMinMax@CDrawingGraphData@@QBE?AVCDisplayDataMinMax@@XZ ; CDrawingGraphData::GetDisplayDataVertMinMax
  00062	8b c8		 mov	 ecx, eax
  00064	ff 15 00 00 00
	00		 call	 DWORD PTR __imp_?GetDisplayMax@CDisplayDataMinMax@@QBENXZ

; 74   : 	
; 75   : 	switch(subGraphData.GetStyle().GetGraphFuOpStyle()){

  0006a	8b 7d 18	 mov	 edi, DWORD PTR _subGraphData$[ebp]
  0006d	8d 45 1c	 lea	 eax, DWORD PTR $T5[ebp]
  00070	50		 push	 eax
  00071	8b cf		 mov	 ecx, edi
  00073	dd 5d f8	 fstp	 QWORD PTR _dViewMax$[ebp]
  00076	ff 15 00 00 00
	00		 call	 DWORD PTR __imp_?GetStyle@CSubGraphDataBase@@QBE?AVCGraphStyle@@XZ
  0007c	8b 00		 mov	 eax, DWORD PTR [eax]
  0007e	83 e8 00	 sub	 eax, 0
  00081	74 3f		 je	 SHORT $LN6@DrawGraph
  00083	83 e8 01	 sub	 eax, 1
  00086	74 0b		 je	 SHORT $LN7@DrawGraph
$LN11@DrawGraph:
  00088	5f		 pop	 edi
  00089	5e		 pop	 esi

; 81   : 			subGraphData.GetColor(), dViewMin, dViewMax, packetList);
; 82   : 	}
; 83   : 	
; 84   : 	return false;

  0008a	32 c0		 xor	 al, al
  0008c	5b		 pop	 ebx

; 85   : }

  0008d	8b e5		 mov	 esp, ebp
  0008f	5d		 pop	 ebp
  00090	c2 18 00	 ret	 24			; 00000018H
$LN7@DrawGraph:

; 78   : 			subGraphData.GetColor(), packetList);
; 79   : 	case CGraphBaseData::FuOpPAndF:
; 80   : 		return DrawFuOpPAndF(pDC, realRegion, displayAttributes/*drawingGraphData.GetIndicatorInfo()*/, 

  00093	56		 push	 esi
  00094	8d 45 f8	 lea	 eax, DWORD PTR _dViewMax$[ebp]
  00097	8b cf		 mov	 ecx, edi
  00099	50		 push	 eax
  0009a	8d 45 e8	 lea	 eax, DWORD PTR _dViewMin$[ebp]
  0009d	50		 push	 eax
  0009e	8d 45 b4	 lea	 eax, DWORD PTR $T1[ebp]
  000a1	50		 push	 eax
  000a2	ff 15 00 00 00
	00		 call	 DWORD PTR __imp_?GetColor@CSubGraphDataBase@@QBE?AVCGraphColor@@XZ
  000a8	50		 push	 eax
  000a9	ff 75 10	 push	 DWORD PTR _displayAttributes$[ebp]
  000ac	8b cb		 mov	 ecx, ebx
  000ae	ff 75 0c	 push	 DWORD PTR _realRegion$[ebp]
  000b1	ff 75 08	 push	 DWORD PTR _pDC$[ebp]
  000b4	e8 00 00 00 00	 call	 ?DrawFuOpPAndF@COptionDraw@@AAE_NPAVCDC@@ABVCRect@@ABVCDisplayAttributes@@ABVCGraphColor@@ABN4ABV?$CList@PAVCPacket@@PAV1@@@@Z ; COptionDraw::DrawFuOpPAndF
  000b9	5f		 pop	 edi
  000ba	5e		 pop	 esi
  000bb	5b		 pop	 ebx

; 85   : }

  000bc	8b e5		 mov	 esp, ebp
  000be	5d		 pop	 ebp
  000bf	c2 18 00	 ret	 24			; 00000018H
$LN6@DrawGraph:

; 76   : 	case CGraphBaseData::MarketProfile:
; 77   : 		return DrawMarketProfile(pDC, realRegion, dViewMin, dViewMax, 

  000c2	56		 push	 esi
  000c3	8d 45 b4	 lea	 eax, DWORD PTR $T2[ebp]
  000c6	8b cf		 mov	 ecx, edi
  000c8	50		 push	 eax
  000c9	ff 15 00 00 00
	00		 call	 DWORD PTR __imp_?GetColor@CSubGraphDataBase@@QBE?AVCGraphColor@@XZ
  000cf	50		 push	 eax
  000d0	8d 45 f8	 lea	 eax, DWORD PTR _dViewMax$[ebp]
  000d3	8b cb		 mov	 ecx, ebx
  000d5	50		 push	 eax
  000d6	8d 45 e8	 lea	 eax, DWORD PTR _dViewMin$[ebp]
  000d9	50		 push	 eax
  000da	ff 75 0c	 push	 DWORD PTR _realRegion$[ebp]
  000dd	ff 75 08	 push	 DWORD PTR _pDC$[ebp]
  000e0	e8 00 00 00 00	 call	 ?DrawMarketProfile@COptionDraw@@AAE_NPAVCDC@@ABVCRect@@ABN2ABVCGraphColor@@ABV?$CList@PAVCPacket@@PAV1@@@@Z ; COptionDraw::DrawMarketProfile
  000e5	5f		 pop	 edi
  000e6	5e		 pop	 esi
  000e7	5b		 pop	 ebx

; 85   : }

  000e8	8b e5		 mov	 esp, ebp
  000ea	5d		 pop	 ebp
  000eb	c2 18 00	 ret	 24			; 00000018H
?DrawGraph@COptionDraw@@UAE_NPAVCDC@@ABVCRect@@ABVCDisplayAttributes@@ABVCDrawingGraphData@@ABVCSubGraphData@@PAVCXScaleManager@@@Z ENDP ; COptionDraw::DrawGraph
_TEXT	ENDS
; Function compile flags: /Ogtp
; File D:\git\src\IBK\IBK_DRFN\ProjSrc\SrcChartEx\ChartOCX\GraphDraw\OptionDraw.cpp
;	COMDAT ?DrawGraph@COptionDraw@@UAE_NPAVCDC@@ABVCRect@@ABVCDisplayAttributes@@ABVCDrawingGraphData@@ABVCSubGraphData@@@Z
_TEXT	SEGMENT
$T1 = -76						; size = 44
$T2 = -76						; size = 44
$T3 = -32						; size = 16
_dViewMin$ = -24					; size = 8
$T4 = -16						; size = 16
_dViewMax$ = -8						; size = 8
_pDC$ = 8						; size = 4
_realRegion$ = 12					; size = 4
_displayAttributes$ = 16				; size = 4
$T5 = 20						; size = 4
_drawingGraphData$ = 20					; size = 4
_subGraphData$ = 24					; size = 4
?DrawGraph@COptionDraw@@UAE_NPAVCDC@@ABVCRect@@ABVCDisplayAttributes@@ABVCDrawingGraphData@@ABVCSubGraphData@@@Z PROC ; COptionDraw::DrawGraph, COMDAT
; _this$ = ecx

; 40   : {

  00000	55		 push	 ebp
  00001	8b ec		 mov	 ebp, esp
  00003	83 ec 4c	 sub	 esp, 76			; 0000004cH
  00006	53		 push	 ebx
  00007	56		 push	 esi
  00008	57		 push	 edi

; 41   : 	const CList< CPacket *, CPacket *> &packetList = drawingGraphData.GetSubGraphPacketList()->GetSubGraphPacketList();

  00009	8b 7d 14	 mov	 edi, DWORD PTR _drawingGraphData$[ebp]
  0000c	8b d9		 mov	 ebx, ecx
  0000e	8b cf		 mov	 ecx, edi
  00010	e8 00 00 00 00	 call	 ?GetSubGraphPacketList@CDrawingGraphData@@QBEPAVCSubGraphPacketList@@XZ ; CDrawingGraphData::GetSubGraphPacketList
  00015	8b c8		 mov	 ecx, eax
  00017	e8 00 00 00 00	 call	 ?GetSubGraphPacketList@CSubGraphPacketList@@QBEABV?$CList@PAVCPacket@@PAV1@@@XZ ; CSubGraphPacketList::GetSubGraphPacketList
  0001c	8b f0		 mov	 esi, eax

; 42   : 	if( packetList.GetCount() <= 0)

  0001e	83 7e 0c 00	 cmp	 DWORD PTR [esi+12], 0
  00022	7f 0b		 jg	 SHORT $LN4@DrawGraph
$LN8@DrawGraph:
  00024	5f		 pop	 edi

; 53   : 			subGraphData.GetColor(), dViewMin, dViewMax, packetList);
; 54   : 	}
; 55   : 
; 56   : 	return false;
; 57   : }

  00025	5e		 pop	 esi
  00026	32 c0		 xor	 al, al
  00028	5b		 pop	 ebx
  00029	8b e5		 mov	 esp, ebp
  0002b	5d		 pop	 ebp
  0002c	c2 14 00	 ret	 20			; 00000014H
$LN4@DrawGraph:

; 43   : 		return false;
; 44   : 	double dViewMin = drawingGraphData.GetDisplayDataVertMinMax().GetDisplayMin();

  0002f	8d 45 e0	 lea	 eax, DWORD PTR $T3[ebp]
  00032	8b cf		 mov	 ecx, edi
  00034	50		 push	 eax
  00035	e8 00 00 00 00	 call	 ?GetDisplayDataVertMinMax@CDrawingGraphData@@QBE?AVCDisplayDataMinMax@@XZ ; CDrawingGraphData::GetDisplayDataVertMinMax
  0003a	8b c8		 mov	 ecx, eax
  0003c	ff 15 00 00 00
	00		 call	 DWORD PTR __imp_?GetDisplayMin@CDisplayDataMinMax@@QBENXZ

; 45   : 	double dViewMax = drawingGraphData.GetDisplayDataVertMinMax().GetDisplayMax(); 

  00042	8d 45 f0	 lea	 eax, DWORD PTR $T4[ebp]
  00045	8b cf		 mov	 ecx, edi
  00047	50		 push	 eax
  00048	dd 5d e8	 fstp	 QWORD PTR _dViewMin$[ebp]
  0004b	e8 00 00 00 00	 call	 ?GetDisplayDataVertMinMax@CDrawingGraphData@@QBE?AVCDisplayDataMinMax@@XZ ; CDrawingGraphData::GetDisplayDataVertMinMax
  00050	8b c8		 mov	 ecx, eax
  00052	ff 15 00 00 00
	00		 call	 DWORD PTR __imp_?GetDisplayMax@CDisplayDataMinMax@@QBENXZ

; 46   : 
; 47   : 	switch(subGraphData.GetStyle().GetGraphFuOpStyle()){

  00058	8b 7d 18	 mov	 edi, DWORD PTR _subGraphData$[ebp]
  0005b	8d 45 14	 lea	 eax, DWORD PTR $T5[ebp]
  0005e	50		 push	 eax
  0005f	8b cf		 mov	 ecx, edi
  00061	dd 5d f8	 fstp	 QWORD PTR _dViewMax$[ebp]
  00064	ff 15 00 00 00
	00		 call	 DWORD PTR __imp_?GetStyle@CSubGraphDataBase@@QBE?AVCGraphStyle@@XZ
  0006a	8b 00		 mov	 eax, DWORD PTR [eax]
  0006c	83 e8 00	 sub	 eax, 0
  0006f	74 34		 je	 SHORT $LN5@DrawGraph
  00071	83 e8 01	 sub	 eax, 1
  00074	75 ae		 jne	 SHORT $LN8@DrawGraph

; 50   : 			subGraphData.GetColor(), packetList);
; 51   : 	case CGraphBaseData::FuOpPAndF:
; 52   : 		return DrawFuOpPAndF(pDC, realRegion, displayAttributes/*drawingGraphData.GetIndicatorInfo()*/, 

  00076	56		 push	 esi
  00077	8d 45 f8	 lea	 eax, DWORD PTR _dViewMax$[ebp]
  0007a	8b cf		 mov	 ecx, edi
  0007c	50		 push	 eax
  0007d	8d 45 e8	 lea	 eax, DWORD PTR _dViewMin$[ebp]
  00080	50		 push	 eax
  00081	8d 45 b4	 lea	 eax, DWORD PTR $T1[ebp]
  00084	50		 push	 eax
  00085	ff 15 00 00 00
	00		 call	 DWORD PTR __imp_?GetColor@CSubGraphDataBase@@QBE?AVCGraphColor@@XZ
  0008b	50		 push	 eax
  0008c	ff 75 10	 push	 DWORD PTR _displayAttributes$[ebp]
  0008f	8b cb		 mov	 ecx, ebx
  00091	ff 75 0c	 push	 DWORD PTR _realRegion$[ebp]
  00094	ff 75 08	 push	 DWORD PTR _pDC$[ebp]
  00097	e8 00 00 00 00	 call	 ?DrawFuOpPAndF@COptionDraw@@AAE_NPAVCDC@@ABVCRect@@ABVCDisplayAttributes@@ABVCGraphColor@@ABN4ABV?$CList@PAVCPacket@@PAV1@@@@Z ; COptionDraw::DrawFuOpPAndF
  0009c	5f		 pop	 edi

; 53   : 			subGraphData.GetColor(), dViewMin, dViewMax, packetList);
; 54   : 	}
; 55   : 
; 56   : 	return false;
; 57   : }

  0009d	5e		 pop	 esi
  0009e	5b		 pop	 ebx
  0009f	8b e5		 mov	 esp, ebp
  000a1	5d		 pop	 ebp
  000a2	c2 14 00	 ret	 20			; 00000014H
$LN5@DrawGraph:

; 48   : 	case CGraphBaseData::MarketProfile:
; 49   : 		return DrawMarketProfile(pDC, realRegion, dViewMin, dViewMax, 

  000a5	56		 push	 esi
  000a6	8d 45 b4	 lea	 eax, DWORD PTR $T2[ebp]
  000a9	8b cf		 mov	 ecx, edi
  000ab	50		 push	 eax
  000ac	ff 15 00 00 00
	00		 call	 DWORD PTR __imp_?GetColor@CSubGraphDataBase@@QBE?AVCGraphColor@@XZ
  000b2	50		 push	 eax
  000b3	8d 45 f8	 lea	 eax, DWORD PTR _dViewMax$[ebp]
  000b6	8b cb		 mov	 ecx, ebx
  000b8	50		 push	 eax
  000b9	8d 45 e8	 lea	 eax, DWORD PTR _dViewMin$[ebp]
  000bc	50		 push	 eax
  000bd	ff 75 0c	 push	 DWORD PTR _realRegion$[ebp]
  000c0	ff 75 08	 push	 DWORD PTR _pDC$[ebp]
  000c3	e8 00 00 00 00	 call	 ?DrawMarketProfile@COptionDraw@@AAE_NPAVCDC@@ABVCRect@@ABN2ABVCGraphColor@@ABV?$CList@PAVCPacket@@PAV1@@@@Z ; COptionDraw::DrawMarketProfile
  000c8	5f		 pop	 edi

; 53   : 			subGraphData.GetColor(), dViewMin, dViewMax, packetList);
; 54   : 	}
; 55   : 
; 56   : 	return false;
; 57   : }

  000c9	5e		 pop	 esi
  000ca	5b		 pop	 ebx
  000cb	8b e5		 mov	 esp, ebp
  000cd	5d		 pop	 ebp
  000ce	c2 14 00	 ret	 20			; 00000014H
?DrawGraph@COptionDraw@@UAE_NPAVCDC@@ABVCRect@@ABVCDisplayAttributes@@ABVCDrawingGraphData@@ABVCSubGraphData@@@Z ENDP ; COptionDraw::DrawGraph
_TEXT	ENDS
; Function compile flags: /Ogtp
; File D:\git\src\IBK\IBK_DRFN\ProjSrc\SrcChartEx\ChartOCX\GraphDraw\OptionDraw.cpp
;	COMDAT ??1COptionDraw@@UAE@XZ
_TEXT	SEGMENT
??1COptionDraw@@UAE@XZ PROC				; COptionDraw::~COptionDraw, COMDAT
; _this$ = ecx

; 31   : {

  00000	c7 01 00 00 00
	00		 mov	 DWORD PTR [ecx], OFFSET ??_7COptionDraw@@6B@

; 32   : 
; 33   : }

  00006	e9 00 00 00 00	 jmp	 ??1CDraw@@UAE@XZ	; CDraw::~CDraw
??1COptionDraw@@UAE@XZ ENDP				; COptionDraw::~COptionDraw
_TEXT	ENDS
; Function compile flags: /Ogtp
; File D:\git\src\IBK\IBK_DRFN\ProjSrc\SrcChartEx\ChartOCX\GraphDraw\OptionDraw.cpp
;	COMDAT ??0COptionDraw@@QAE@XZ
_TEXT	SEGMENT
_this$ = -4						; size = 4
??0COptionDraw@@QAE@XZ PROC				; COptionDraw::COptionDraw, COMDAT
; _this$ = ecx

; 26   : {

  00000	55		 push	 ebp
  00001	8b ec		 mov	 ebp, esp
  00003	51		 push	 ecx
  00004	56		 push	 esi
  00005	8b f1		 mov	 esi, ecx
  00007	89 75 fc	 mov	 DWORD PTR _this$[ebp], esi
  0000a	e8 00 00 00 00	 call	 ??0CDraw@@QAE@XZ	; CDraw::CDraw
  0000f	c7 06 00 00 00
	00		 mov	 DWORD PTR [esi], OFFSET ??_7COptionDraw@@6B@

; 27   : 	m_eGraphType = CGraphBaseData::FuOp_Type;
; 28   : }

  00015	8b c6		 mov	 eax, esi
  00017	c7 46 10 07 00
	00 00		 mov	 DWORD PTR [esi+16], 7
  0001e	5e		 pop	 esi
  0001f	8b e5		 mov	 esp, ebp
  00021	5d		 pop	 ebp
  00022	c3		 ret	 0
??0COptionDraw@@QAE@XZ ENDP				; COptionDraw::COptionDraw
_TEXT	ENDS
; Function compile flags: /Ogtp
; File C:\Program Files (x86)\Microsoft Visual Studio\2019\Community\VC\Tools\MSVC\14.29.30133\atlmfc\include\afxwin1.inl
; File C:\Program Files (x86)\Microsoft Visual Studio\2019\Community\VC\Tools\MSVC\14.29.30133\atlmfc\include\atlsimpstr.h
; File C:\Program Files (x86)\Microsoft Visual Studio\2019\Community\VC\Tools\MSVC\14.29.30133\atlmfc\include\afxwin1.inl
; File C:\Program Files (x86)\Microsoft Visual Studio\2019\Community\VC\Tools\MSVC\14.29.30133\atlmfc\include\atlsimpstr.h
; File C:\Program Files (x86)\Microsoft Visual Studio\2019\Community\VC\Tools\MSVC\14.29.30133\atlmfc\include\afxwin1.inl
; File C:\Program Files (x86)\Microsoft Visual Studio\2019\Community\VC\Tools\MSVC\14.29.30133\atlmfc\include\atltypes.h
; File C:\Program Files (x86)\Microsoft Visual Studio\2019\Community\VC\Tools\MSVC\14.29.30133\atlmfc\include\afxwin1.inl
;	COMDAT ?GetTextExtent@CDC@@QBE?AVCSize@@ABV?$CStringT@DV?$StrTraitMFC_DLL@DV?$ChTraitsCRT@D@ATL@@@@@ATL@@@Z
_TEXT	SEGMENT
_size$ = -8						; size = 8
___$ReturnUdt$ = 8					; size = 4
_str$ = 12						; size = 4
?GetTextExtent@CDC@@QBE?AVCSize@@ABV?$CStringT@DV?$StrTraitMFC_DLL@DV?$ChTraitsCRT@D@ATL@@@@@ATL@@@Z PROC ; CDC::GetTextExtent, COMDAT
; _this$ = ecx

; 636  : 	{

  00000	55		 push	 ebp
  00001	8b ec		 mov	 ebp, esp
  00003	83 ec 08	 sub	 esp, 8
; File C:\Program Files (x86)\Microsoft Visual Studio\2019\Community\VC\Tools\MSVC\14.29.30133\atlmfc\include\atlsimpstr.h

; 519  : 		return( GetData()->nDataLength );

  00006	8b 45 0c	 mov	 eax, DWORD PTR _str$[ebp]
; File C:\Program Files (x86)\Microsoft Visual Studio\2019\Community\VC\Tools\MSVC\14.29.30133\atlmfc\include\afxwin1.inl

; 639  : 		VERIFY(::GetTextExtentPoint32(m_hAttribDC, str, (int)str.GetLength(), &size));

  00009	8d 55 f8	 lea	 edx, DWORD PTR _size$[ebp]
  0000c	52		 push	 edx
; File C:\Program Files (x86)\Microsoft Visual Studio\2019\Community\VC\Tools\MSVC\14.29.30133\atlmfc\include\atlsimpstr.h

; 519  : 		return( GetData()->nDataLength );

  0000d	8b 00		 mov	 eax, DWORD PTR [eax]
; File C:\Program Files (x86)\Microsoft Visual Studio\2019\Community\VC\Tools\MSVC\14.29.30133\atlmfc\include\afxwin1.inl

; 639  : 		VERIFY(::GetTextExtentPoint32(m_hAttribDC, str, (int)str.GetLength(), &size));

  0000f	ff 70 f4	 push	 DWORD PTR [eax-12]
  00012	50		 push	 eax
  00013	ff 71 08	 push	 DWORD PTR [ecx+8]
  00016	ff 15 00 00 00
	00		 call	 DWORD PTR __imp__GetTextExtentPoint32A@16
; File C:\Program Files (x86)\Microsoft Visual Studio\2019\Community\VC\Tools\MSVC\14.29.30133\atlmfc\include\atltypes.h

; 318  : 	*(SIZE*)this = initSize;

  0001c	8b 45 08	 mov	 eax, DWORD PTR ___$ReturnUdt$[ebp]
  0001f	8b 4d f8	 mov	 ecx, DWORD PTR _size$[ebp]
  00022	8b 55 fc	 mov	 edx, DWORD PTR _size$[ebp+4]
  00025	89 08		 mov	 DWORD PTR [eax], ecx
  00027	89 50 04	 mov	 DWORD PTR [eax+4], edx
; File C:\Program Files (x86)\Microsoft Visual Studio\2019\Community\VC\Tools\MSVC\14.29.30133\atlmfc\include\afxwin1.inl

; 641  : 	}

  0002a	8b e5		 mov	 esp, ebp
  0002c	5d		 pop	 ebp
  0002d	c2 08 00	 ret	 8
?GetTextExtent@CDC@@QBE?AVCSize@@ABV?$CStringT@DV?$StrTraitMFC_DLL@DV?$ChTraitsCRT@D@ATL@@@@@ATL@@@Z ENDP ; CDC::GetTextExtent
_TEXT	ENDS
; Function compile flags: /Ogtp
; File C:\Program Files (x86)\Microsoft Visual Studio\2019\Community\VC\Tools\MSVC\14.29.30133\atlmfc\include\afxwin1.inl
; File C:\Program Files (x86)\Microsoft Visual Studio\2019\Community\VC\Tools\MSVC\14.29.30133\atlmfc\include\afx.inl
;	COMDAT ??_GCFont@@UAEPAXI@Z
_TEXT	SEGMENT
___flags$ = 8						; size = 4
??_GCFont@@UAEPAXI@Z PROC				; CFont::`scalar deleting destructor', COMDAT
; _this$ = ecx
  00000	55		 push	 ebp
  00001	8b ec		 mov	 ebp, esp
; File C:\Program Files (x86)\Microsoft Visual Studio\2019\Community\VC\Tools\MSVC\14.29.30133\atlmfc\include\afxwin1.inl

; 155  : 	{ }

  00003	56		 push	 esi
  00004	8b f1		 mov	 esi, ecx
  00006	c7 06 00 00 00
	00		 mov	 DWORD PTR [esi], OFFSET ??_7CFont@@6B@
  0000c	e8 00 00 00 00	 call	 ??1CGdiObject@@UAE@XZ	; CGdiObject::~CGdiObject
  00011	8b 45 08	 mov	 eax, DWORD PTR ___flags$[ebp]
  00014	a8 01		 test	 al, 1
  00016	74 1f		 je	 SHORT $LN12@scalar
  00018	a8 04		 test	 al, 4
  0001a	75 10		 jne	 SHORT $LN3@scalar
; File C:\Program Files (x86)\Microsoft Visual Studio\2019\Community\VC\Tools\MSVC\14.29.30133\atlmfc\include\afx.inl

; 112  : 	{ ::operator delete(p); }

  0001c	56		 push	 esi
  0001d	e8 00 00 00 00	 call	 ??3@YAXPAX@Z		; operator delete
  00022	83 c4 04	 add	 esp, 4
  00025	8b c6		 mov	 eax, esi
  00027	5e		 pop	 esi
  00028	5d		 pop	 ebp
  00029	c2 04 00	 ret	 4
$LN3@scalar:
  0002c	6a 08		 push	 8
  0002e	56		 push	 esi
  0002f	e8 00 00 00 00	 call	 ?__global_delete@@YAXPAXI@Z ; __global_delete
  00034	83 c4 08	 add	 esp, 8
$LN12@scalar:
  00037	8b c6		 mov	 eax, esi
  00039	5e		 pop	 esi
  0003a	5d		 pop	 ebp
  0003b	c2 04 00	 ret	 4
??_GCFont@@UAEPAXI@Z ENDP				; CFont::`scalar deleting destructor'
_TEXT	ENDS
; Function compile flags: /Ogtp
; File C:\Program Files (x86)\Microsoft Visual Studio\2019\Community\VC\Tools\MSVC\14.29.30133\atlmfc\include\afxwin1.inl
;	COMDAT ??1CFont@@UAE@XZ
_TEXT	SEGMENT
??1CFont@@UAE@XZ PROC					; CFont::~CFont, COMDAT
; _this$ = ecx

; 155  : 	{ }

  00000	c7 01 00 00 00
	00		 mov	 DWORD PTR [ecx], OFFSET ??_7CFont@@6B@
  00006	e9 00 00 00 00	 jmp	 ??1CGdiObject@@UAE@XZ	; CGdiObject::~CGdiObject
??1CFont@@UAE@XZ ENDP					; CFont::~CFont
_TEXT	ENDS
; Function compile flags: /Ogtp
; File C:\Program Files (x86)\Microsoft Visual Studio\2019\Community\VC\Tools\MSVC\14.29.30133\atlmfc\include\afxwin1.inl
; File C:\Program Files (x86)\Microsoft Visual Studio\2019\Community\VC\Tools\MSVC\14.29.30133\atlmfc\include\afx.inl
;	COMDAT ??_GCPen@@UAEPAXI@Z
_TEXT	SEGMENT
___flags$ = 8						; size = 4
??_GCPen@@UAEPAXI@Z PROC				; CPen::`scalar deleting destructor', COMDAT
; _this$ = ecx
  00000	55		 push	 ebp
  00001	8b ec		 mov	 ebp, esp
; File C:\Program Files (x86)\Microsoft Visual Studio\2019\Community\VC\Tools\MSVC\14.29.30133\atlmfc\include\afxwin1.inl

; 106  : 	{ }

  00003	56		 push	 esi
  00004	8b f1		 mov	 esi, ecx
  00006	c7 06 00 00 00
	00		 mov	 DWORD PTR [esi], OFFSET ??_7CPen@@6B@
  0000c	e8 00 00 00 00	 call	 ??1CGdiObject@@UAE@XZ	; CGdiObject::~CGdiObject
  00011	8b 45 08	 mov	 eax, DWORD PTR ___flags$[ebp]
  00014	a8 01		 test	 al, 1
  00016	74 1f		 je	 SHORT $LN12@scalar
  00018	a8 04		 test	 al, 4
  0001a	75 10		 jne	 SHORT $LN3@scalar
; File C:\Program Files (x86)\Microsoft Visual Studio\2019\Community\VC\Tools\MSVC\14.29.30133\atlmfc\include\afx.inl

; 112  : 	{ ::operator delete(p); }

  0001c	56		 push	 esi
  0001d	e8 00 00 00 00	 call	 ??3@YAXPAX@Z		; operator delete
  00022	83 c4 04	 add	 esp, 4
  00025	8b c6		 mov	 eax, esi
  00027	5e		 pop	 esi
  00028	5d		 pop	 ebp
  00029	c2 04 00	 ret	 4
$LN3@scalar:
  0002c	6a 08		 push	 8
  0002e	56		 push	 esi
  0002f	e8 00 00 00 00	 call	 ?__global_delete@@YAXPAXI@Z ; __global_delete
  00034	83 c4 08	 add	 esp, 8
$LN12@scalar:
  00037	8b c6		 mov	 eax, esi
  00039	5e		 pop	 esi
  0003a	5d		 pop	 ebp
  0003b	c2 04 00	 ret	 4
??_GCPen@@UAEPAXI@Z ENDP				; CPen::`scalar deleting destructor'
_TEXT	ENDS
; Function compile flags: /Ogtp
; File C:\Program Files (x86)\Microsoft Visual Studio\2019\Community\VC\Tools\MSVC\14.29.30133\atlmfc\include\afxwin1.inl
;	COMDAT ??1CPen@@UAE@XZ
_TEXT	SEGMENT
??1CPen@@UAE@XZ PROC					; CPen::~CPen, COMDAT
; _this$ = ecx

; 106  : 	{ }

  00000	c7 01 00 00 00
	00		 mov	 DWORD PTR [ecx], OFFSET ??_7CPen@@6B@
  00006	e9 00 00 00 00	 jmp	 ??1CGdiObject@@UAE@XZ	; CGdiObject::~CGdiObject
??1CPen@@UAE@XZ ENDP					; CPen::~CPen
_TEXT	ENDS
; Function compile flags: /Ogtp
; File C:\Program Files (x86)\Microsoft Visual Studio\2019\Community\VC\Tools\MSVC\14.29.30133\atlmfc\include\afx.inl
;	COMDAT ??_GCGdiObject@@UAEPAXI@Z
_TEXT	SEGMENT
___flags$ = 8						; size = 4
??_GCGdiObject@@UAEPAXI@Z PROC				; CGdiObject::`scalar deleting destructor', COMDAT
; _this$ = ecx
  00000	55		 push	 ebp
  00001	8b ec		 mov	 ebp, esp
  00003	56		 push	 esi
  00004	8b f1		 mov	 esi, ecx
  00006	e8 00 00 00 00	 call	 ??1CGdiObject@@UAE@XZ	; CGdiObject::~CGdiObject
  0000b	8b 45 08	 mov	 eax, DWORD PTR ___flags$[ebp]
  0000e	a8 01		 test	 al, 1
  00010	74 1f		 je	 SHORT $LN9@scalar
  00012	a8 04		 test	 al, 4
  00014	75 10		 jne	 SHORT $LN3@scalar

; 112  : 	{ ::operator delete(p); }

  00016	56		 push	 esi
  00017	e8 00 00 00 00	 call	 ??3@YAXPAX@Z		; operator delete
  0001c	83 c4 04	 add	 esp, 4
  0001f	8b c6		 mov	 eax, esi
  00021	5e		 pop	 esi
  00022	5d		 pop	 ebp
  00023	c2 04 00	 ret	 4
$LN3@scalar:
  00026	6a 08		 push	 8
  00028	56		 push	 esi
  00029	e8 00 00 00 00	 call	 ?__global_delete@@YAXPAXI@Z ; __global_delete
  0002e	83 c4 08	 add	 esp, 8
$LN9@scalar:
  00031	8b c6		 mov	 eax, esi
  00033	5e		 pop	 esi
  00034	5d		 pop	 ebp
  00035	c2 04 00	 ret	 4
??_GCGdiObject@@UAEPAXI@Z ENDP				; CGdiObject::`scalar deleting destructor'
_TEXT	ENDS
; Function compile flags: /Ogtp
; File C:\Program Files (x86)\Microsoft Visual Studio\2019\Community\VC\Tools\MSVC\14.29.30133\atlmfc\include\afxwin1.inl
;	COMDAT ??1CGdiObject@@UAE@XZ
_TEXT	SEGMENT
_pException$2 = -540					; size = 4
_strMsg$3 = -536					; size = 4
_szErrorMessage$4 = -532				; size = 512
__$ArrayPad$ = -20					; size = 4
__$EHRec$ = -16						; size = 16
??1CGdiObject@@UAE@XZ PROC				; CGdiObject::~CGdiObject, COMDAT
; _this$ = ecx

; 74   : {

  00000	55		 push	 ebp
  00001	8b ec		 mov	 ebp, esp
  00003	6a ff		 push	 -1
  00005	68 00 00 00 00	 push	 __ehhandler$??1CGdiObject@@UAE@XZ
  0000a	64 a1 00 00 00
	00		 mov	 eax, DWORD PTR fs:0
  00010	50		 push	 eax
  00011	81 ec 10 02 00
	00		 sub	 esp, 528		; 00000210H
  00017	a1 00 00 00 00	 mov	 eax, DWORD PTR ___security_cookie
  0001c	33 c5		 xor	 eax, ebp
  0001e	89 45 ec	 mov	 DWORD PTR __$ArrayPad$[ebp], eax
  00021	53		 push	 ebx
  00022	56		 push	 esi
  00023	57		 push	 edi
  00024	50		 push	 eax
  00025	8d 45 f4	 lea	 eax, DWORD PTR __$EHRec$[ebp+4]
  00028	64 a3 00 00 00
	00		 mov	 DWORD PTR fs:0, eax
  0002e	89 65 f0	 mov	 DWORD PTR __$EHRec$[ebp], esp
  00031	c7 01 00 00 00
	00		 mov	 DWORD PTR [ecx], OFFSET ??_7CGdiObject@@6B@

; 75   : 	AFX_BEGIN_DESTRUCTOR

  00037	c7 45 fc 00 00
	00 00		 mov	 DWORD PTR __$EHRec$[ebp+12], 0

; 76   : 	DeleteObject();

  0003e	e8 00 00 00 00	 call	 ?DeleteObject@CGdiObject@@QAEHXZ ; CGdiObject::DeleteObject
$LN18@CGdiObject:

; 78   : }

  00043	8b 4d f4	 mov	 ecx, DWORD PTR __$EHRec$[ebp+4]
  00046	64 89 0d 00 00
	00 00		 mov	 DWORD PTR fs:0, ecx
  0004d	59		 pop	 ecx
  0004e	5f		 pop	 edi
  0004f	5e		 pop	 esi
  00050	5b		 pop	 ebx
  00051	8b 4d ec	 mov	 ecx, DWORD PTR __$ArrayPad$[ebp]
  00054	33 cd		 xor	 ecx, ebp
  00056	e8 00 00 00 00	 call	 @__security_check_cookie@4
  0005b	8b e5		 mov	 esp, ebp
  0005d	5d		 pop	 ebp
  0005e	c3		 ret	 0
__catch$??1CGdiObject@@UAE@XZ$0:

; 77   : 	AFX_END_DESTRUCTOR

  0005f	8d 8d e8 fd ff
	ff		 lea	 ecx, DWORD PTR _strMsg$3[ebp]
  00065	ff 15 00 00 00
	00		 call	 DWORD PTR __imp_??0?$CStringT@DV?$StrTraitMFC_DLL@DV?$ChTraitsCRT@D@ATL@@@@@ATL@@QAE@XZ
  0006b	8b b5 e4 fd ff
	ff		 mov	 esi, DWORD PTR _pException$2[ebp]
  00071	8d 8d ec fd ff
	ff		 lea	 ecx, DWORD PTR _szErrorMessage$4[ebp]
  00077	6a 00		 push	 0
  00079	68 00 02 00 00	 push	 512			; 00000200H
  0007e	51		 push	 ecx
  0007f	8b 06		 mov	 eax, DWORD PTR [esi]
  00081	8b ce		 mov	 ecx, esi
  00083	c6 45 fc 02	 mov	 BYTE PTR __$EHRec$[ebp+12], 2
  00087	ff 50 14	 call	 DWORD PTR [eax+20]
  0008a	85 c0		 test	 eax, eax
  0008c	74 2a		 je	 SHORT $LN9@CGdiObject
  0008e	8d 85 ec fd ff
	ff		 lea	 eax, DWORD PTR _szErrorMessage$4[ebp]
  00094	50		 push	 eax
  00095	6a 4d		 push	 77			; 0000004dH
  00097	68 00 00 00 00	 push	 OFFSET ??_C@_0HD@JJCHHHNK@C?3?2Program?5Files?5?$CIx86?$CJ?2Microsof@
  0009c	68 00 00 00 00	 push	 OFFSET ??_C@_0BP@OIEOKIDM@Exception?5thrown?5in?5destructor@
  000a1	8d 85 e8 fd ff
	ff		 lea	 eax, DWORD PTR _strMsg$3[ebp]
  000a7	68 00 00 00 00	 push	 OFFSET ??_C@_0BB@HBOOMJBF@?$CFTs?5?$CI?$CFTs?3?$CFd?$CJ?6?$CFTs@
  000ac	50		 push	 eax
  000ad	ff 15 00 00 00
	00		 call	 DWORD PTR __imp_?Format@?$CStringT@DV?$StrTraitMFC_DLL@DV?$ChTraitsCRT@D@ATL@@@@@ATL@@QAAXPBDZZ
  000b3	83 c4 18	 add	 esp, 24			; 00000018H
  000b6	eb 21		 jmp	 SHORT $LN10@CGdiObject
$LN9@CGdiObject:
  000b8	6a 4d		 push	 77			; 0000004dH
  000ba	68 00 00 00 00	 push	 OFFSET ??_C@_0HD@JJCHHHNK@C?3?2Program?5Files?5?$CIx86?$CJ?2Microsof@
  000bf	68 00 00 00 00	 push	 OFFSET ??_C@_0BP@OIEOKIDM@Exception?5thrown?5in?5destructor@
  000c4	8d 85 e8 fd ff
	ff		 lea	 eax, DWORD PTR _strMsg$3[ebp]
  000ca	68 00 00 00 00	 push	 OFFSET ??_C@_0N@OMEMOKLE@?$CFTs?5?$CI?$CFTs?3?$CFd?$CJ@
  000cf	50		 push	 eax
  000d0	ff 15 00 00 00
	00		 call	 DWORD PTR __imp_?Format@?$CStringT@DV?$StrTraitMFC_DLL@DV?$ChTraitsCRT@D@ATL@@@@@ATL@@QAAXPBDZZ
  000d6	83 c4 14	 add	 esp, 20			; 00000014H
$LN10@CGdiObject:
  000d9	6a 00		 push	 0
  000db	6a 00		 push	 0
  000dd	ff b5 e8 fd ff
	ff		 push	 DWORD PTR _strMsg$3[ebp]
  000e3	e8 00 00 00 00	 call	 ?AfxMessageBox@@YGHPBDII@Z ; AfxMessageBox
  000e8	8d 8d e8 fd ff
	ff		 lea	 ecx, DWORD PTR _strMsg$3[ebp]
  000ee	ff 15 00 00 00
	00		 call	 DWORD PTR __imp_??1?$CStringT@DV?$StrTraitMFC_DLL@DV?$ChTraitsCRT@D@ATL@@@@@ATL@@QAE@XZ
  000f4	8b 06		 mov	 eax, DWORD PTR [esi]
  000f6	8b ce		 mov	 ecx, esi
  000f8	6a 01		 push	 1
  000fa	ff 50 04	 call	 DWORD PTR [eax+4]
  000fd	b8 00 00 00 00	 mov	 eax, $LN18@CGdiObject
  00102	c3		 ret	 0
_TEXT	ENDS
;	COMDAT text$x
text$x	SEGMENT
__unwindfunclet$??1CGdiObject@@UAE@XZ$2:
  00000	8d 8d e8 fd ff
	ff		 lea	 ecx, DWORD PTR _strMsg$3[ebp]
  00006	ff 25 00 00 00
	00		 jmp	 DWORD PTR __imp_??1?$CStringT@DV?$StrTraitMFC_DLL@DV?$ChTraitsCRT@D@ATL@@@@@ATL@@QAE@XZ
  0000c	cc		 int	 3
  0000d	cc		 int	 3
  0000e	cc		 int	 3
  0000f	cc		 int	 3
  00010	cc		 int	 3
__ehhandler$??1CGdiObject@@UAE@XZ:
  00011	90		 npad	 1
  00012	90		 npad	 1
  00013	8b 54 24 08	 mov	 edx, DWORD PTR [esp+8]
  00017	8d 42 0c	 lea	 eax, DWORD PTR [edx+12]
  0001a	8b 8a e0 fd ff
	ff		 mov	 ecx, DWORD PTR [edx-544]
  00020	33 c8		 xor	 ecx, eax
  00022	e8 00 00 00 00	 call	 @__security_check_cookie@4
  00027	8b 4a f8	 mov	 ecx, DWORD PTR [edx-8]
  0002a	33 c8		 xor	 ecx, eax
  0002c	e8 00 00 00 00	 call	 @__security_check_cookie@4
  00031	b8 00 00 00 00	 mov	 eax, OFFSET __ehfuncinfo$??1CGdiObject@@UAE@XZ
  00036	e9 00 00 00 00	 jmp	 ___CxxFrameHandler3
text$x	ENDS
??1CGdiObject@@UAE@XZ ENDP				; CGdiObject::~CGdiObject
; Function compile flags: /Ogtp
; File C:\Program Files (x86)\Microsoft Visual Studio\2019\Community\VC\Tools\MSVC\14.29.30133\atlmfc\include\afx.inl
;	COMDAT ?Dump@CObject@@UBEXAAVCDumpContext@@@Z
_TEXT	SEGMENT
___formal$ = 8						; size = 4
?Dump@CObject@@UBEXAAVCDumpContext@@@Z PROC		; CObject::Dump, COMDAT
; _this$ = ecx

; 122  : 	{ /* no dumping in release builds */ }

  00000	c2 04 00	 ret	 4
?Dump@CObject@@UBEXAAVCDumpContext@@@Z ENDP		; CObject::Dump
_TEXT	ENDS
; Function compile flags: /Ogtp
; File C:\Program Files (x86)\Microsoft Visual Studio\2019\Community\VC\Tools\MSVC\14.29.30133\atlmfc\include\afx.inl
;	COMDAT ?AssertValid@CObject@@UBEXXZ
_TEXT	SEGMENT
?AssertValid@CObject@@UBEXXZ PROC			; CObject::AssertValid, COMDAT
; _this$ = ecx

; 120  : 	{ /* no asserts in release builds */ }

  00000	c2 00 00	 ret	 0
?AssertValid@CObject@@UBEXXZ ENDP			; CObject::AssertValid
_TEXT	ENDS
; Function compile flags: /Ogtp
; File C:\Program Files (x86)\Microsoft Visual Studio\2019\Community\VC\Tools\MSVC\14.29.30133\atlmfc\include\afx.inl
;	COMDAT ?Serialize@CObject@@UAEXAAVCArchive@@@Z
_TEXT	SEGMENT
___formal$ = 8						; size = 4
?Serialize@CObject@@UAEXAAVCArchive@@@Z PROC		; CObject::Serialize, COMDAT
; _this$ = ecx

; 106  : 	{ /* CObject does not serialize anything by default */ }

  00000	c2 04 00	 ret	 4
?Serialize@CObject@@UAEXAAVCArchive@@@Z ENDP		; CObject::Serialize
_TEXT	ENDS
; Function compile flags: /Ogtp
; File C:\Program Files (x86)\Microsoft Visual Studio\2019\Community\VC\Tools\MSVC\14.29.30133\atlmfc\include\afx.inl
;	COMDAT ??1CObject@@UAE@XZ
_TEXT	SEGMENT
??1CObject@@UAE@XZ PROC					; CObject::~CObject, COMDAT
; _this$ = ecx

; 104  : 	{ }

  00000	c2 00 00	 ret	 0
??1CObject@@UAE@XZ ENDP					; CObject::~CObject
_TEXT	ENDS
; Function compile flags: /Ogtp
; File D:\git\src\IBK\IBK_DRFN\ProjSrc\SrcChartEx\ChartOCX\GraphDraw\OptionDraw.cpp
;	COMDAT ?__empty_global_delete@@YAXPAXI@Z
_TEXT	SEGMENT
___formal$ = 8						; size = 4
___formal$ = 12						; size = 4
?__empty_global_delete@@YAXPAXI@Z PROC			; __empty_global_delete, COMDAT

  00000	c2 00 00	 ret	 0
?__empty_global_delete@@YAXPAXI@Z ENDP			; __empty_global_delete
_TEXT	ENDS
; Function compile flags: /Ogtp
; File D:\git\src\IBK\IBK_DRFN\ProjSrc\SrcChartEx\ChartOCX\GraphDraw\OptionDraw.cpp
;	COMDAT ?__empty_global_delete@@YAXPAX@Z
_TEXT	SEGMENT
___formal$ = 8						; size = 4
?__empty_global_delete@@YAXPAX@Z PROC			; __empty_global_delete, COMDAT

  00000	c2 00 00	 ret	 0
?__empty_global_delete@@YAXPAX@Z ENDP			; __empty_global_delete
_TEXT	ENDS
END
