; Listing generated by Microsoft (R) Optimizing Compiler Version 19.29.30145.0 

	TITLE	D:\git\src\IBK\IBK_DRFN\#DRfn-CS\_Obj\GraphDraw\PairBarDraw.obj
	.686P
	.XMM
	include listing.inc
	.model	flat

INCLUDELIB MSVCRT
INCLUDELIB OLDNAMES

CONST	SEGMENT
?_Fake_alloc@std@@3U_Fake_allocator@1@B	ORG $+1		; std::_Fake_alloc
CONST	ENDS
PUBLIC	?__empty_global_delete@@YAXPAX@Z		; __empty_global_delete
PUBLIC	?__empty_global_delete@@YAXPAXI@Z		; __empty_global_delete
PUBLIC	??1CObject@@UAE@XZ				; CObject::~CObject
PUBLIC	?Serialize@CObject@@UAEXAAVCArchive@@@Z		; CObject::Serialize
PUBLIC	?AssertValid@CObject@@UBEXXZ			; CObject::AssertValid
PUBLIC	?Dump@CObject@@UBEXAAVCDumpContext@@@Z		; CObject::Dump
PUBLIC	??1CGdiObject@@UAE@XZ				; CGdiObject::~CGdiObject
PUBLIC	??_GCGdiObject@@UAEPAXI@Z			; CGdiObject::`scalar deleting destructor'
PUBLIC	??1CPen@@UAE@XZ					; CPen::~CPen
PUBLIC	??_GCPen@@UAEPAXI@Z				; CPen::`scalar deleting destructor'
PUBLIC	??1CBrush@@UAE@XZ				; CBrush::~CBrush
PUBLIC	??_GCBrush@@UAEPAXI@Z				; CBrush::`scalar deleting destructor'
PUBLIC	??4CGraphDrawer@@QAEAAV0@ABV0@@Z		; CGraphDrawer::operator=
PUBLIC	??4CGraphDrawer@@QAEAAV0@$$QAV0@@Z		; CGraphDrawer::operator=
PUBLIC	??0CPairBarDraw@@QAE@XZ				; CPairBarDraw::CPairBarDraw
PUBLIC	??1CPairBarDraw@@UAE@XZ				; CPairBarDraw::~CPairBarDraw
PUBLIC	?DrawGraph@CPairBarDraw@@UAE_NPAVCDC@@ABVCRect@@ABVCDisplayAttributes@@ABVCDrawingGraphData@@ABVCSubGraphData@@@Z ; CPairBarDraw::DrawGraph
PUBLIC	?DrawGraph@CPairBarDraw@@UAE_NPAVCDC@@ABVCRect@@ABVCDisplayAttributes@@ABVCDrawingGraphData@@ABVCSubGraphData@@PAVCXScaleManager@@@Z ; CPairBarDraw::DrawGraph
PUBLIC	?DrawSellByHorizontalBar@CPairBarDraw@@IAE_NPAVCDC@@ABVCRect@@ABV?$CStringT@DV?$StrTraitMFC_DLL@DV?$ChTraitsCRT@D@ATL@@@@@ATL@@ABVCGraphDrawStyle@@ABVCGraphColor@@HHABN5ABV?$CList@PAVCPacket@@PAV1@@@PBVCIndicatorInfo@@_N8ABVCPacket@@@Z ; CPairBarDraw::DrawSellByHorizontalBar
PUBLIC	?GetDrawingEnvironment_SellByHorizontalBar@CPairBarDraw@@IBE_NABV?$CList@PAVCPacket@@PAV1@@@AAPAV?$CList@NN@@AAHAAN322@Z ; CPairBarDraw::GetDrawingEnvironment_SellByHorizontalBar
PUBLIC	?DrawBar_SellHorizontalBar@CPairBarDraw@@IAEXPAVCDC@@ABVCGraphDrawStyle@@ABVCRect@@H_NAAVCPoint@@4@Z ; CPairBarDraw::DrawBar_SellHorizontalBar
PUBLIC	?DrawBar_ByHorizontalBar@CPairBarDraw@@IAEXPAVCDC@@ABVCGraphDrawStyle@@ABVCRect@@H_NAAVCPoint@@4@Z ; CPairBarDraw::DrawBar_ByHorizontalBar
PUBLIC	?DrawText_SellByHorizontalBar@CPairBarDraw@@IAEXPAVCDC@@ABVCRect@@ABVCPoint@@2V?$CStringT@DV?$StrTraitMFC_DLL@DV?$ChTraitsCRT@D@ATL@@@@@ATL@@33FABVCGraphColor@@@Z ; CPairBarDraw::DrawText_SellByHorizontalBar
PUBLIC	??_GCPairBarDraw@@UAEPAXI@Z			; CPairBarDraw::`scalar deleting destructor'
PUBLIC	??_R0PAVCException@@@8				; CException * `RTTI Type Descriptor'
PUBLIC	??_C@_00CNPNBAHC@@				; `string'
PUBLIC	??_7CGdiObject@@6B@				; CGdiObject::`vftable'
PUBLIC	??_7CPen@@6B@					; CPen::`vftable'
PUBLIC	??_7CBrush@@6B@					; CBrush::`vftable'
PUBLIC	??_C@_0HD@JJCHHHNK@C?3?2Program?5Files?5?$CIx86?$CJ?2Microsof@ ; `string'
PUBLIC	??_C@_0BP@OIEOKIDM@Exception?5thrown?5in?5destructor@ ; `string'
PUBLIC	??_C@_0BB@HBOOMJBF@?$CFTs?5?$CI?$CFTs?3?$CFd?$CJ?6?$CFTs@ ; `string'
PUBLIC	??_C@_0N@OMEMOKLE@?$CFTs?5?$CI?$CFTs?3?$CFd?$CJ@ ; `string'
PUBLIC	??_R0?AVCObject@@@8				; CObject `RTTI Type Descriptor'
PUBLIC	??_R3CObject@@8					; CObject::`RTTI Class Hierarchy Descriptor'
PUBLIC	??_R2CObject@@8					; CObject::`RTTI Base Class Array'
PUBLIC	??_R1A@?0A@EA@CObject@@8			; CObject::`RTTI Base Class Descriptor at (0,-1,0,64)'
PUBLIC	??_R4CGdiObject@@6B@				; CGdiObject::`RTTI Complete Object Locator'
PUBLIC	??_R0?AVCGdiObject@@@8				; CGdiObject `RTTI Type Descriptor'
PUBLIC	??_R3CGdiObject@@8				; CGdiObject::`RTTI Class Hierarchy Descriptor'
PUBLIC	??_R2CGdiObject@@8				; CGdiObject::`RTTI Base Class Array'
PUBLIC	??_R1A@?0A@EA@CGdiObject@@8			; CGdiObject::`RTTI Base Class Descriptor at (0,-1,0,64)'
PUBLIC	??_R4CPen@@6B@					; CPen::`RTTI Complete Object Locator'
PUBLIC	??_R0?AVCPen@@@8				; CPen `RTTI Type Descriptor'
PUBLIC	??_R3CPen@@8					; CPen::`RTTI Class Hierarchy Descriptor'
PUBLIC	??_R2CPen@@8					; CPen::`RTTI Base Class Array'
PUBLIC	??_R1A@?0A@EA@CPen@@8				; CPen::`RTTI Base Class Descriptor at (0,-1,0,64)'
PUBLIC	??_R4CBrush@@6B@				; CBrush::`RTTI Complete Object Locator'
PUBLIC	??_R0?AVCBrush@@@8				; CBrush `RTTI Type Descriptor'
PUBLIC	??_R3CBrush@@8					; CBrush::`RTTI Class Hierarchy Descriptor'
PUBLIC	??_R2CBrush@@8					; CBrush::`RTTI Base Class Array'
PUBLIC	??_R1A@?0A@EA@CBrush@@8				; CBrush::`RTTI Base Class Descriptor at (0,-1,0,64)'
PUBLIC	??_7CPairBarDraw@@6B@				; CPairBarDraw::`vftable'
PUBLIC	??_C@_03NIBMKKKC@?5?1?5@			; `string'
PUBLIC	??_R4CPairBarDraw@@6B@				; CPairBarDraw::`RTTI Complete Object Locator'
PUBLIC	??_R0?AVCPairBarDraw@@@8			; CPairBarDraw `RTTI Type Descriptor'
PUBLIC	??_R3CPairBarDraw@@8				; CPairBarDraw::`RTTI Class Hierarchy Descriptor'
PUBLIC	??_R2CPairBarDraw@@8				; CPairBarDraw::`RTTI Base Class Array'
PUBLIC	??_R1A@?0A@EA@CPairBarDraw@@8			; CPairBarDraw::`RTTI Base Class Descriptor at (0,-1,0,64)'
PUBLIC	??_R1A@?0A@EA@CBarDraw@@8			; CBarDraw::`RTTI Base Class Descriptor at (0,-1,0,64)'
PUBLIC	??_R0?AVCBarDraw@@@8				; CBarDraw `RTTI Type Descriptor'
PUBLIC	??_R3CBarDraw@@8				; CBarDraw::`RTTI Class Hierarchy Descriptor'
PUBLIC	??_R2CBarDraw@@8				; CBarDraw::`RTTI Base Class Array'
PUBLIC	??_R1A@?0A@EA@CDraw@@8				; CDraw::`RTTI Base Class Descriptor at (0,-1,0,64)'
PUBLIC	??_R0?AVCDraw@@@8				; CDraw `RTTI Type Descriptor'
PUBLIC	??_R3CDraw@@8					; CDraw::`RTTI Class Hierarchy Descriptor'
PUBLIC	??_R2CDraw@@8					; CDraw::`RTTI Base Class Array'
EXTRN	??3@YAXPAX@Z:PROC				; operator delete
EXTRN	??3@YAXPAXI@Z:PROC				; operator delete
EXTRN	?__global_delete@@YAXPAXI@Z:PROC		; __global_delete
EXTRN	__imp__GetCurrentObject@8:PROC
EXTRN	__imp__GetTextColor@4:PROC
EXTRN	__imp__GetTextExtentPoint32A@16:PROC
EXTRN	?AfxThrowInvalidArgException@@YGXXZ:PROC	; AfxThrowInvalidArgException
EXTRN	__imp_?Concatenate@?$CSimpleStringT@D$00@ATL@@KAXAAV12@PBDH1H@Z:PROC
EXTRN	__imp_??0?$CStringT@DV?$StrTraitMFC_DLL@DV?$ChTraitsCRT@D@ATL@@@@@ATL@@QAE@XZ:PROC
EXTRN	__imp_??0?$CStringT@DV?$StrTraitMFC_DLL@DV?$ChTraitsCRT@D@ATL@@@@@ATL@@QAE@PAUIAtlStringMgr@1@@Z:PROC
EXTRN	__imp_??0?$CStringT@DV?$StrTraitMFC_DLL@DV?$ChTraitsCRT@D@ATL@@@@@ATL@@QAE@ABV01@@Z:PROC
EXTRN	__imp_??0?$CStringT@DV?$StrTraitMFC_DLL@DV?$ChTraitsCRT@D@ATL@@@@@ATL@@QAE@PBD@Z:PROC
EXTRN	__imp_??1?$CStringT@DV?$StrTraitMFC_DLL@DV?$ChTraitsCRT@D@ATL@@@@@ATL@@QAE@XZ:PROC
EXTRN	__imp_??4?$CStringT@DV?$StrTraitMFC_DLL@DV?$ChTraitsCRT@D@ATL@@@@@ATL@@QAEAAV01@ABV01@@Z:PROC
EXTRN	__imp_??4?$CStringT@DV?$StrTraitMFC_DLL@DV?$ChTraitsCRT@D@ATL@@@@@ATL@@QAEAAV01@PBD@Z:PROC
EXTRN	__imp_?GetManager@?$CStringT@DV?$StrTraitMFC_DLL@DV?$ChTraitsCRT@D@ATL@@@@@ATL@@QBEPAUIAtlStringMgr@2@XZ:PROC
EXTRN	__imp_?Compare@?$CStringT@DV?$StrTraitMFC_DLL@DV?$ChTraitsCRT@D@ATL@@@@@ATL@@QBEHPBD@Z:PROC
EXTRN	__imp_?Format@?$CStringT@DV?$StrTraitMFC_DLL@DV?$ChTraitsCRT@D@ATL@@@@@ATL@@QAAXPBDZZ:PROC
EXTRN	?GetRuntimeClass@CGdiObject@@UBEPAUCRuntimeClass@@XZ:PROC ; CGdiObject::GetRuntimeClass
EXTRN	?FromHandle@CGdiObject@@SGPAV1@PAX@Z:PROC	; CGdiObject::FromHandle
EXTRN	?DeleteObject@CGdiObject@@QAEHXZ:PROC		; CGdiObject::DeleteObject
EXTRN	??_ECGdiObject@@UAEPAXI@Z:PROC			; CGdiObject::`vector deleting destructor'
EXTRN	?GetRuntimeClass@CPen@@UBEPAUCRuntimeClass@@XZ:PROC ; CPen::GetRuntimeClass
EXTRN	??_ECPen@@UAEPAXI@Z:PROC			; CPen::`vector deleting destructor'
EXTRN	?GetRuntimeClass@CBrush@@UBEPAUCRuntimeClass@@XZ:PROC ; CBrush::GetRuntimeClass
EXTRN	??_ECBrush@@UAEPAXI@Z:PROC			; CBrush::`vector deleting destructor'
EXTRN	?SelectObject@CDC@@QAEPAVCPen@@PAV2@@Z:PROC	; CDC::SelectObject
EXTRN	?SelectObject@CDC@@QAEPAVCBrush@@PAV2@@Z:PROC	; CDC::SelectObject
EXTRN	?SetBkMode@CDC@@QAEHH@Z:PROC			; CDC::SetBkMode
EXTRN	?AfxMessageBox@@YGHPBDII@Z:PROC			; AfxMessageBox
EXTRN	?DrawGraph@CDraw@@UAE_NPAVCDC@@ABVCRect@@ABVCDisplayAttributes@@ABVCDrawingGraphData@@ABVCSubGraphData@@ABV?$CStringT@DV?$StrTraitMFC_DLL@DV?$ChTraitsCRT@D@ATL@@@@@ATL@@PAVCXScaleManager@@@Z:PROC ; CDraw::DrawGraph
EXTRN	?DrawLine@CDraw@@IAEXPAVCDC@@UtagPOINT@@1@Z:PROC ; CDraw::DrawLine
EXTRN	?DrawRectangle@CDraw@@IAEXPAVCDC@@VCRect@@@Z:PROC ; CDraw::DrawRectangle
EXTRN	?CalRealWidth@CDraw@@IAENABVCRect@@ABVCDisplayAttributes@@@Z:PROC ; CDraw::CalRealWidth
EXTRN	?CalLogValue@CDraw@@IAEN_NN@Z:PROC		; CDraw::CalLogValue
EXTRN	?Round@CMath@@SAHN@Z:PROC			; CMath::Round
EXTRN	?GetHorizontalPoint_X@CDataConversion@@SAHABVCRect@@ABN11@Z:PROC ; CDataConversion::GetHorizontalPoint_X
EXTRN	__imp_?GetDisplayMin@CDisplayDataMinMax@@QBENXZ:PROC
EXTRN	__imp_?GetDisplayMax@CDisplayDataMinMax@@QBENXZ:PROC
EXTRN	__imp_?GetColor2@CGraphColor@@QBEKXZ:PROC
EXTRN	__imp_?GetColor4@CGraphColor@@QBEKXZ:PROC
EXTRN	__imp_?GetColor6@CGraphColor@@QBEKXZ:PROC
EXTRN	__imp_?GetStyle@CSubGraphDataBase@@QBE?AVCGraphStyle@@XZ:PROC
EXTRN	__imp_?GetDrawStyle@CSubGraphDataBase@@QBE?AVCGraphDrawStyle@@XZ:PROC
EXTRN	__imp_?GetName@CSubGraphDataBase@@QBE?AV?$CStringT@DV?$StrTraitMFC_DLL@DV?$ChTraitsCRT@D@ATL@@@@@ATL@@XZ:PROC
EXTRN	__imp_?GetColor@CSubGraphDataBase@@QBE?AVCGraphColor@@XZ:PROC
EXTRN	__imp_?GetPenThickness@CSubGraphDataBase@@QBE?AVCPenThickness@@XZ:PROC
EXTRN	?GetDataStartInBlock@CDisplayAttributes@@QBEHXZ:PROC ; CDisplayAttributes::GetDataStartInBlock
EXTRN	?GetDataEndInBlock@CDisplayAttributes@@QBEHXZ:PROC ; CDisplayAttributes::GetDataEndInBlock
EXTRN	?DoesVertScaleLogType@CDrawingGraphData@@QBE_NXZ:PROC ; CDrawingGraphData::DoesVertScaleLogType
EXTRN	?DoesVertScaleInvertType@CDrawingGraphData@@QBE_NXZ:PROC ; CDrawingGraphData::DoesVertScaleInvertType
EXTRN	?GetDisplayDataVertMinMax@CDrawingGraphData@@QBE?AVCDisplayDataMinMax@@XZ:PROC ; CDrawingGraphData::GetDisplayDataVertMinMax
EXTRN	?GetIndicatorList@CDrawingGraphData@@QBEPAVCIndicatorList@@XZ:PROC ; CDrawingGraphData::GetIndicatorList
EXTRN	?GetIndicatorInfo@CDrawingGraphData@@QBEPAVCIndicatorInfo@@XZ:PROC ; CDrawingGraphData::GetIndicatorInfo
EXTRN	?GetSubGraphPacketList@CDrawingGraphData@@QBEPAVCSubGraphPacketList@@XZ:PROC ; CDrawingGraphData::GetSubGraphPacketList
EXTRN	?GetTailPacket@CSubGraphPacketList@@QAEPAVCPacket@@XZ:PROC ; CSubGraphPacketList::GetTailPacket
EXTRN	?GetSubGraphPacketList@CSubGraphPacketList@@QBEABV?$CList@PAVCPacket@@PAV1@@@XZ:PROC ; CSubGraphPacketList::GetSubGraphPacketList
EXTRN	__imp_?GetName@CPacket@@QAE?AV?$CStringT@DV?$StrTraitMFC_DLL@DV?$ChTraitsCRT@D@ATL@@@@@ATL@@XZ:PROC
EXTRN	__imp_?GetnumericDataList@CPacket@@QAEPAV?$CList@NN@@XZ:PROC
EXTRN	__imp_?GetMinMax@CPacket@@QAEHHHAAN0H@Z:PROC
EXTRN	__imp_?GetIndicatorName@CIndicatorInfo@@QBE?AV?$CStringT@DV?$StrTraitMFC_DLL@DV?$ChTraitsCRT@D@ATL@@@@@ATL@@XZ:PROC
EXTRN	__imp_?GetDrawConditionList@CIndicatorInfo@@QBEPAV?$CList@NN@@XZ:PROC
EXTRN	??0CBarDraw@@QAE@XZ:PROC			; CBarDraw::CBarDraw
EXTRN	??1CBarDraw@@UAE@XZ:PROC			; CBarDraw::~CBarDraw
EXTRN	?GetDrawingRegion@CBarDraw@@QBE?AVCRect@@PAVCPacket@@ABV2@ABV?$CStringT@DV?$StrTraitMFC_DLL@DV?$ChTraitsCRT@D@ATL@@@@@ATL@@HHABN3@Z:PROC ; CBarDraw::GetDrawingRegion
EXTRN	?CreatePenAndBrush@CBarDraw@@IAEXABVCGraphColor@@AAVCPen@@11AAVCBrush@@22@Z:PROC ; CBarDraw::CreatePenAndBrush
EXTRN	?SelectPenAndBrushObject@CBarDraw@@IAEXPAVCDC@@PAVCPen@@11PAVCBrush@@22ABVCGraphColor@@HHH@Z:PROC ; CBarDraw::SelectPenAndBrushObject
EXTRN	?GetBarWidth@CBarDraw@@IAEXABVCRect@@HAANAAH@Z:PROC ; CBarDraw::GetBarWidth
EXTRN	?GetDrawingText@CBarDraw@@IBE?AV?$CStringT@DV?$StrTraitMFC_DLL@DV?$ChTraitsCRT@D@ATL@@@@@ATL@@HABN0@Z:PROC ; CBarDraw::GetDrawingText
EXTRN	?GetTotalData@CBarDraw@@IBENPAV?$CList@NN@@H@Z:PROC ; CBarDraw::GetTotalData
EXTRN	??_ECPairBarDraw@@UAEPAXI@Z:PROC		; CPairBarDraw::`vector deleting destructor'
EXTRN	?IsVolumeForSale@IMetaTable@@QAEHABV?$CStringT@DV?$StrTraitMFC_DLL@DV?$ChTraitsCRT@D@ATL@@@@@ATL@@@Z:PROC ; IMetaTable::IsVolumeForSale
EXTRN	@__security_check_cookie@4:PROC
EXTRN	___CxxFrameHandler3:PROC
EXTRN	??_7type_info@@6B@:QWORD			; type_info::`vftable'
EXTRN	?g_iMetaTable@@3VIMetaTable@@A:BYTE		; g_iMetaTable
EXTRN	___security_cookie:DWORD
EXTRN	__fltused:DWORD
;	COMDAT ??_R2CDraw@@8
rdata$r	SEGMENT
??_R2CDraw@@8 DD FLAT:??_R1A@?0A@EA@CDraw@@8		; CDraw::`RTTI Base Class Array'
rdata$r	ENDS
;	COMDAT ??_R3CDraw@@8
rdata$r	SEGMENT
??_R3CDraw@@8 DD 00H					; CDraw::`RTTI Class Hierarchy Descriptor'
	DD	00H
	DD	01H
	DD	FLAT:??_R2CDraw@@8
rdata$r	ENDS
;	COMDAT ??_R0?AVCDraw@@@8
data$rs	SEGMENT
??_R0?AVCDraw@@@8 DD FLAT:??_7type_info@@6B@		; CDraw `RTTI Type Descriptor'
	DD	00H
	DB	'.?AVCDraw@@', 00H
data$rs	ENDS
;	COMDAT ??_R1A@?0A@EA@CDraw@@8
rdata$r	SEGMENT
??_R1A@?0A@EA@CDraw@@8 DD FLAT:??_R0?AVCDraw@@@8	; CDraw::`RTTI Base Class Descriptor at (0,-1,0,64)'
	DD	00H
	DD	00H
	DD	0ffffffffH
	DD	00H
	DD	040H
	DD	FLAT:??_R3CDraw@@8
rdata$r	ENDS
;	COMDAT ??_R2CBarDraw@@8
rdata$r	SEGMENT
??_R2CBarDraw@@8 DD FLAT:??_R1A@?0A@EA@CBarDraw@@8	; CBarDraw::`RTTI Base Class Array'
	DD	FLAT:??_R1A@?0A@EA@CDraw@@8
rdata$r	ENDS
;	COMDAT ??_R3CBarDraw@@8
rdata$r	SEGMENT
??_R3CBarDraw@@8 DD 00H					; CBarDraw::`RTTI Class Hierarchy Descriptor'
	DD	00H
	DD	02H
	DD	FLAT:??_R2CBarDraw@@8
rdata$r	ENDS
;	COMDAT ??_R0?AVCBarDraw@@@8
data$rs	SEGMENT
??_R0?AVCBarDraw@@@8 DD FLAT:??_7type_info@@6B@		; CBarDraw `RTTI Type Descriptor'
	DD	00H
	DB	'.?AVCBarDraw@@', 00H
data$rs	ENDS
;	COMDAT ??_R1A@?0A@EA@CBarDraw@@8
rdata$r	SEGMENT
??_R1A@?0A@EA@CBarDraw@@8 DD FLAT:??_R0?AVCBarDraw@@@8	; CBarDraw::`RTTI Base Class Descriptor at (0,-1,0,64)'
	DD	01H
	DD	00H
	DD	0ffffffffH
	DD	00H
	DD	040H
	DD	FLAT:??_R3CBarDraw@@8
rdata$r	ENDS
;	COMDAT ??_R1A@?0A@EA@CPairBarDraw@@8
rdata$r	SEGMENT
??_R1A@?0A@EA@CPairBarDraw@@8 DD FLAT:??_R0?AVCPairBarDraw@@@8 ; CPairBarDraw::`RTTI Base Class Descriptor at (0,-1,0,64)'
	DD	02H
	DD	00H
	DD	0ffffffffH
	DD	00H
	DD	040H
	DD	FLAT:??_R3CPairBarDraw@@8
rdata$r	ENDS
;	COMDAT ??_R2CPairBarDraw@@8
rdata$r	SEGMENT
??_R2CPairBarDraw@@8 DD FLAT:??_R1A@?0A@EA@CPairBarDraw@@8 ; CPairBarDraw::`RTTI Base Class Array'
	DD	FLAT:??_R1A@?0A@EA@CBarDraw@@8
	DD	FLAT:??_R1A@?0A@EA@CDraw@@8
rdata$r	ENDS
;	COMDAT ??_R3CPairBarDraw@@8
rdata$r	SEGMENT
??_R3CPairBarDraw@@8 DD 00H				; CPairBarDraw::`RTTI Class Hierarchy Descriptor'
	DD	00H
	DD	03H
	DD	FLAT:??_R2CPairBarDraw@@8
rdata$r	ENDS
;	COMDAT ??_R0?AVCPairBarDraw@@@8
data$rs	SEGMENT
??_R0?AVCPairBarDraw@@@8 DD FLAT:??_7type_info@@6B@	; CPairBarDraw `RTTI Type Descriptor'
	DD	00H
	DB	'.?AVCPairBarDraw@@', 00H
data$rs	ENDS
;	COMDAT ??_R4CPairBarDraw@@6B@
rdata$r	SEGMENT
??_R4CPairBarDraw@@6B@ DD 00H				; CPairBarDraw::`RTTI Complete Object Locator'
	DD	00H
	DD	00H
	DD	FLAT:??_R0?AVCPairBarDraw@@@8
	DD	FLAT:??_R3CPairBarDraw@@8
rdata$r	ENDS
;	COMDAT ??_C@_03NIBMKKKC@?5?1?5@
CONST	SEGMENT
??_C@_03NIBMKKKC@?5?1?5@ DB ' / ', 00H			; `string'
CONST	ENDS
;	COMDAT ??_7CPairBarDraw@@6B@
CONST	SEGMENT
??_7CPairBarDraw@@6B@ DD FLAT:??_R4CPairBarDraw@@6B@	; CPairBarDraw::`vftable'
	DD	FLAT:??_ECPairBarDraw@@UAEPAXI@Z
	DD	FLAT:?DrawGraph@CDraw@@UAE_NPAVCDC@@ABVCRect@@ABVCDisplayAttributes@@ABVCDrawingGraphData@@ABVCSubGraphData@@ABV?$CStringT@DV?$StrTraitMFC_DLL@DV?$ChTraitsCRT@D@ATL@@@@@ATL@@PAVCXScaleManager@@@Z
	DD	FLAT:?DrawGraph@CPairBarDraw@@UAE_NPAVCDC@@ABVCRect@@ABVCDisplayAttributes@@ABVCDrawingGraphData@@ABVCSubGraphData@@@Z
	DD	FLAT:?DrawGraph@CPairBarDraw@@UAE_NPAVCDC@@ABVCRect@@ABVCDisplayAttributes@@ABVCDrawingGraphData@@ABVCSubGraphData@@PAVCXScaleManager@@@Z
CONST	ENDS
;	COMDAT ??_R1A@?0A@EA@CBrush@@8
rdata$r	SEGMENT
??_R1A@?0A@EA@CBrush@@8 DD FLAT:??_R0?AVCBrush@@@8	; CBrush::`RTTI Base Class Descriptor at (0,-1,0,64)'
	DD	02H
	DD	00H
	DD	0ffffffffH
	DD	00H
	DD	040H
	DD	FLAT:??_R3CBrush@@8
rdata$r	ENDS
;	COMDAT ??_R2CBrush@@8
rdata$r	SEGMENT
??_R2CBrush@@8 DD FLAT:??_R1A@?0A@EA@CBrush@@8		; CBrush::`RTTI Base Class Array'
	DD	FLAT:??_R1A@?0A@EA@CGdiObject@@8
	DD	FLAT:??_R1A@?0A@EA@CObject@@8
rdata$r	ENDS
;	COMDAT ??_R3CBrush@@8
rdata$r	SEGMENT
??_R3CBrush@@8 DD 00H					; CBrush::`RTTI Class Hierarchy Descriptor'
	DD	00H
	DD	03H
	DD	FLAT:??_R2CBrush@@8
rdata$r	ENDS
;	COMDAT ??_R0?AVCBrush@@@8
data$rs	SEGMENT
??_R0?AVCBrush@@@8 DD FLAT:??_7type_info@@6B@		; CBrush `RTTI Type Descriptor'
	DD	00H
	DB	'.?AVCBrush@@', 00H
data$rs	ENDS
;	COMDAT ??_R4CBrush@@6B@
rdata$r	SEGMENT
??_R4CBrush@@6B@ DD 00H					; CBrush::`RTTI Complete Object Locator'
	DD	00H
	DD	00H
	DD	FLAT:??_R0?AVCBrush@@@8
	DD	FLAT:??_R3CBrush@@8
rdata$r	ENDS
;	COMDAT ??_R1A@?0A@EA@CPen@@8
rdata$r	SEGMENT
??_R1A@?0A@EA@CPen@@8 DD FLAT:??_R0?AVCPen@@@8		; CPen::`RTTI Base Class Descriptor at (0,-1,0,64)'
	DD	02H
	DD	00H
	DD	0ffffffffH
	DD	00H
	DD	040H
	DD	FLAT:??_R3CPen@@8
rdata$r	ENDS
;	COMDAT ??_R2CPen@@8
rdata$r	SEGMENT
??_R2CPen@@8 DD	FLAT:??_R1A@?0A@EA@CPen@@8		; CPen::`RTTI Base Class Array'
	DD	FLAT:??_R1A@?0A@EA@CGdiObject@@8
	DD	FLAT:??_R1A@?0A@EA@CObject@@8
rdata$r	ENDS
;	COMDAT ??_R3CPen@@8
rdata$r	SEGMENT
??_R3CPen@@8 DD	00H					; CPen::`RTTI Class Hierarchy Descriptor'
	DD	00H
	DD	03H
	DD	FLAT:??_R2CPen@@8
rdata$r	ENDS
;	COMDAT ??_R0?AVCPen@@@8
data$rs	SEGMENT
??_R0?AVCPen@@@8 DD FLAT:??_7type_info@@6B@		; CPen `RTTI Type Descriptor'
	DD	00H
	DB	'.?AVCPen@@', 00H
data$rs	ENDS
;	COMDAT ??_R4CPen@@6B@
rdata$r	SEGMENT
??_R4CPen@@6B@ DD 00H					; CPen::`RTTI Complete Object Locator'
	DD	00H
	DD	00H
	DD	FLAT:??_R0?AVCPen@@@8
	DD	FLAT:??_R3CPen@@8
rdata$r	ENDS
;	COMDAT ??_R1A@?0A@EA@CGdiObject@@8
rdata$r	SEGMENT
??_R1A@?0A@EA@CGdiObject@@8 DD FLAT:??_R0?AVCGdiObject@@@8 ; CGdiObject::`RTTI Base Class Descriptor at (0,-1,0,64)'
	DD	01H
	DD	00H
	DD	0ffffffffH
	DD	00H
	DD	040H
	DD	FLAT:??_R3CGdiObject@@8
rdata$r	ENDS
;	COMDAT ??_R2CGdiObject@@8
rdata$r	SEGMENT
??_R2CGdiObject@@8 DD FLAT:??_R1A@?0A@EA@CGdiObject@@8	; CGdiObject::`RTTI Base Class Array'
	DD	FLAT:??_R1A@?0A@EA@CObject@@8
rdata$r	ENDS
;	COMDAT ??_R3CGdiObject@@8
rdata$r	SEGMENT
??_R3CGdiObject@@8 DD 00H				; CGdiObject::`RTTI Class Hierarchy Descriptor'
	DD	00H
	DD	02H
	DD	FLAT:??_R2CGdiObject@@8
rdata$r	ENDS
;	COMDAT ??_R0?AVCGdiObject@@@8
data$rs	SEGMENT
??_R0?AVCGdiObject@@@8 DD FLAT:??_7type_info@@6B@	; CGdiObject `RTTI Type Descriptor'
	DD	00H
	DB	'.?AVCGdiObject@@', 00H
data$rs	ENDS
;	COMDAT ??_R4CGdiObject@@6B@
rdata$r	SEGMENT
??_R4CGdiObject@@6B@ DD 00H				; CGdiObject::`RTTI Complete Object Locator'
	DD	00H
	DD	00H
	DD	FLAT:??_R0?AVCGdiObject@@@8
	DD	FLAT:??_R3CGdiObject@@8
rdata$r	ENDS
;	COMDAT ??_R1A@?0A@EA@CObject@@8
rdata$r	SEGMENT
??_R1A@?0A@EA@CObject@@8 DD FLAT:??_R0?AVCObject@@@8	; CObject::`RTTI Base Class Descriptor at (0,-1,0,64)'
	DD	00H
	DD	00H
	DD	0ffffffffH
	DD	00H
	DD	040H
	DD	FLAT:??_R3CObject@@8
rdata$r	ENDS
;	COMDAT ??_R2CObject@@8
rdata$r	SEGMENT
??_R2CObject@@8 DD FLAT:??_R1A@?0A@EA@CObject@@8	; CObject::`RTTI Base Class Array'
rdata$r	ENDS
;	COMDAT ??_R3CObject@@8
rdata$r	SEGMENT
??_R3CObject@@8 DD 00H					; CObject::`RTTI Class Hierarchy Descriptor'
	DD	00H
	DD	01H
	DD	FLAT:??_R2CObject@@8
rdata$r	ENDS
;	COMDAT ??_R0?AVCObject@@@8
data$rs	SEGMENT
??_R0?AVCObject@@@8 DD FLAT:??_7type_info@@6B@		; CObject `RTTI Type Descriptor'
	DD	00H
	DB	'.?AVCObject@@', 00H
data$rs	ENDS
;	COMDAT ??_C@_0N@OMEMOKLE@?$CFTs?5?$CI?$CFTs?3?$CFd?$CJ@
CONST	SEGMENT
??_C@_0N@OMEMOKLE@?$CFTs?5?$CI?$CFTs?3?$CFd?$CJ@ DB '%Ts (%Ts:%d)', 00H ; `string'
CONST	ENDS
;	COMDAT ??_C@_0BB@HBOOMJBF@?$CFTs?5?$CI?$CFTs?3?$CFd?$CJ?6?$CFTs@
CONST	SEGMENT
??_C@_0BB@HBOOMJBF@?$CFTs?5?$CI?$CFTs?3?$CFd?$CJ?6?$CFTs@ DB '%Ts (%Ts:%d'
	DB	')', 0aH, '%Ts', 00H				; `string'
CONST	ENDS
;	COMDAT ??_C@_0BP@OIEOKIDM@Exception?5thrown?5in?5destructor@
CONST	SEGMENT
??_C@_0BP@OIEOKIDM@Exception?5thrown?5in?5destructor@ DB 'Exception throw'
	DB	'n in destructor', 00H			; `string'
CONST	ENDS
;	COMDAT ??_C@_0HD@JJCHHHNK@C?3?2Program?5Files?5?$CIx86?$CJ?2Microsof@
CONST	SEGMENT
??_C@_0HD@JJCHHHNK@C?3?2Program?5Files?5?$CIx86?$CJ?2Microsof@ DB 'C:\Pro'
	DB	'gram Files (x86)\Microsoft Visual Studio\2019\Community\VC\To'
	DB	'ols\MSVC\14.29.30133\atlmfc\include\afxwin1.inl', 00H ; `string'
CONST	ENDS
;	COMDAT ??_7CBrush@@6B@
CONST	SEGMENT
??_7CBrush@@6B@ DD FLAT:??_R4CBrush@@6B@		; CBrush::`vftable'
	DD	FLAT:?GetRuntimeClass@CBrush@@UBEPAUCRuntimeClass@@XZ
	DD	FLAT:??_ECBrush@@UAEPAXI@Z
	DD	FLAT:?Serialize@CObject@@UAEXAAVCArchive@@@Z
	DD	FLAT:?AssertValid@CObject@@UBEXXZ
	DD	FLAT:?Dump@CObject@@UBEXAAVCDumpContext@@@Z
CONST	ENDS
;	COMDAT ??_7CPen@@6B@
CONST	SEGMENT
??_7CPen@@6B@ DD FLAT:??_R4CPen@@6B@			; CPen::`vftable'
	DD	FLAT:?GetRuntimeClass@CPen@@UBEPAUCRuntimeClass@@XZ
	DD	FLAT:??_ECPen@@UAEPAXI@Z
	DD	FLAT:?Serialize@CObject@@UAEXAAVCArchive@@@Z
	DD	FLAT:?AssertValid@CObject@@UBEXXZ
	DD	FLAT:?Dump@CObject@@UBEXAAVCDumpContext@@@Z
CONST	ENDS
;	COMDAT ??_7CGdiObject@@6B@
CONST	SEGMENT
??_7CGdiObject@@6B@ DD FLAT:??_R4CGdiObject@@6B@	; CGdiObject::`vftable'
	DD	FLAT:?GetRuntimeClass@CGdiObject@@UBEPAUCRuntimeClass@@XZ
	DD	FLAT:??_ECGdiObject@@UAEPAXI@Z
	DD	FLAT:?Serialize@CObject@@UAEXAAVCArchive@@@Z
	DD	FLAT:?AssertValid@CObject@@UBEXXZ
	DD	FLAT:?Dump@CObject@@UBEXAAVCDumpContext@@@Z
CONST	ENDS
;	COMDAT ??_C@_00CNPNBAHC@@
CONST	SEGMENT
??_C@_00CNPNBAHC@@ DB 00H				; `string'
CONST	ENDS
;	COMDAT ??_R0PAVCException@@@8
data$r	SEGMENT
??_R0PAVCException@@@8 DD FLAT:??_7type_info@@6B@	; CException * `RTTI Type Descriptor'
	DD	00H
	DB	'.PAVCException@@', 00H
data$r	ENDS
;	COMDAT xdata$x
xdata$x	SEGMENT
__ehfuncinfo$?DrawText_SellByHorizontalBar@CPairBarDraw@@IAEXPAVCDC@@ABVCRect@@ABVCPoint@@2V?$CStringT@DV?$StrTraitMFC_DLL@DV?$ChTraitsCRT@D@ATL@@@@@ATL@@33FABVCGraphColor@@@Z DD 019930522H
	DD	05H
	DD	FLAT:__unwindtable$?DrawText_SellByHorizontalBar@CPairBarDraw@@IAEXPAVCDC@@ABVCRect@@ABVCPoint@@2V?$CStringT@DV?$StrTraitMFC_DLL@DV?$ChTraitsCRT@D@ATL@@@@@ATL@@33FABVCGraphColor@@@Z
	DD	2 DUP(00H)
	DD	2 DUP(00H)
	DD	00H
	DD	01H
__unwindtable$?DrawText_SellByHorizontalBar@CPairBarDraw@@IAEXPAVCDC@@ABVCRect@@ABVCPoint@@2V?$CStringT@DV?$StrTraitMFC_DLL@DV?$ChTraitsCRT@D@ATL@@@@@ATL@@33FABVCGraphColor@@@Z DD 0ffffffffH
	DD	FLAT:__unwindfunclet$?DrawText_SellByHorizontalBar@CPairBarDraw@@IAEXPAVCDC@@ABVCRect@@ABVCPoint@@2V?$CStringT@DV?$StrTraitMFC_DLL@DV?$ChTraitsCRT@D@ATL@@@@@ATL@@33FABVCGraphColor@@@Z$0
	DD	00H
	DD	FLAT:__unwindfunclet$?DrawText_SellByHorizontalBar@CPairBarDraw@@IAEXPAVCDC@@ABVCRect@@ABVCPoint@@2V?$CStringT@DV?$StrTraitMFC_DLL@DV?$ChTraitsCRT@D@ATL@@@@@ATL@@33FABVCGraphColor@@@Z$1
	DD	01H
	DD	FLAT:__unwindfunclet$?DrawText_SellByHorizontalBar@CPairBarDraw@@IAEXPAVCDC@@ABVCRect@@ABVCPoint@@2V?$CStringT@DV?$StrTraitMFC_DLL@DV?$ChTraitsCRT@D@ATL@@@@@ATL@@33FABVCGraphColor@@@Z$2
	DD	02H
	DD	FLAT:__unwindfunclet$?DrawText_SellByHorizontalBar@CPairBarDraw@@IAEXPAVCDC@@ABVCRect@@ABVCPoint@@2V?$CStringT@DV?$StrTraitMFC_DLL@DV?$ChTraitsCRT@D@ATL@@@@@ATL@@33FABVCGraphColor@@@Z$5
	DD	03H
	DD	FLAT:__unwindfunclet$?DrawText_SellByHorizontalBar@CPairBarDraw@@IAEXPAVCDC@@ABVCRect@@ABVCPoint@@2V?$CStringT@DV?$StrTraitMFC_DLL@DV?$ChTraitsCRT@D@ATL@@@@@ATL@@33FABVCGraphColor@@@Z$6
xdata$x	ENDS
;	COMDAT xdata$x
xdata$x	SEGMENT
__unwindtable$?GetDrawingEnvironment_SellByHorizontalBar@CPairBarDraw@@IBE_NABV?$CList@PAVCPacket@@PAV1@@@AAPAV?$CList@NN@@AAHAAN322@Z DD 0ffffffffH
	DD	FLAT:__unwindfunclet$?GetDrawingEnvironment_SellByHorizontalBar@CPairBarDraw@@IBE_NABV?$CList@PAVCPacket@@PAV1@@@AAPAV?$CList@NN@@AAHAAN322@Z$0
__ehfuncinfo$?GetDrawingEnvironment_SellByHorizontalBar@CPairBarDraw@@IBE_NABV?$CList@PAVCPacket@@PAV1@@@AAPAV?$CList@NN@@AAHAAN322@Z DD 019930522H
	DD	01H
	DD	FLAT:__unwindtable$?GetDrawingEnvironment_SellByHorizontalBar@CPairBarDraw@@IBE_NABV?$CList@PAVCPacket@@PAV1@@@AAPAV?$CList@NN@@AAHAAN322@Z
	DD	2 DUP(00H)
	DD	2 DUP(00H)
	DD	00H
	DD	01H
xdata$x	ENDS
;	COMDAT xdata$x
xdata$x	SEGMENT
__ehfuncinfo$?DrawSellByHorizontalBar@CPairBarDraw@@IAE_NPAVCDC@@ABVCRect@@ABV?$CStringT@DV?$StrTraitMFC_DLL@DV?$ChTraitsCRT@D@ATL@@@@@ATL@@ABVCGraphDrawStyle@@ABVCGraphColor@@HHABN5ABV?$CList@PAVCPacket@@PAV1@@@PBVCIndicatorInfo@@_N8ABVCPacket@@@Z DD 019930522H
	DD	01aH
	DD	FLAT:__unwindtable$?DrawSellByHorizontalBar@CPairBarDraw@@IAE_NPAVCDC@@ABVCRect@@ABV?$CStringT@DV?$StrTraitMFC_DLL@DV?$ChTraitsCRT@D@ATL@@@@@ATL@@ABVCGraphDrawStyle@@ABVCGraphColor@@HHABN5ABV?$CList@PAVCPacket@@PAV1@@@PBVCIndicatorInfo@@_N8ABVCPacket@@@Z
	DD	2 DUP(00H)
	DD	2 DUP(00H)
	DD	00H
	DD	01H
__unwindtable$?DrawSellByHorizontalBar@CPairBarDraw@@IAE_NPAVCDC@@ABVCRect@@ABV?$CStringT@DV?$StrTraitMFC_DLL@DV?$ChTraitsCRT@D@ATL@@@@@ATL@@ABVCGraphDrawStyle@@ABVCGraphColor@@HHABN5ABV?$CList@PAVCPacket@@PAV1@@@PBVCIndicatorInfo@@_N8ABVCPacket@@@Z DD 0ffffffffH
	DD	FLAT:__unwindfunclet$?DrawSellByHorizontalBar@CPairBarDraw@@IAE_NPAVCDC@@ABVCRect@@ABV?$CStringT@DV?$StrTraitMFC_DLL@DV?$ChTraitsCRT@D@ATL@@@@@ATL@@ABVCGraphDrawStyle@@ABVCGraphColor@@HHABN5ABV?$CList@PAVCPacket@@PAV1@@@PBVCIndicatorInfo@@_N8ABVCPacket@@@Z$20
	DD	0ffffffffH
	DD	FLAT:__unwindfunclet$?DrawSellByHorizontalBar@CPairBarDraw@@IAE_NPAVCDC@@ABVCRect@@ABV?$CStringT@DV?$StrTraitMFC_DLL@DV?$ChTraitsCRT@D@ATL@@@@@ATL@@ABVCGraphDrawStyle@@ABVCGraphColor@@HHABN5ABV?$CList@PAVCPacket@@PAV1@@@PBVCIndicatorInfo@@_N8ABVCPacket@@@Z$0
	DD	0ffffffffH
	DD	FLAT:__unwindfunclet$?DrawSellByHorizontalBar@CPairBarDraw@@IAE_NPAVCDC@@ABVCRect@@ABV?$CStringT@DV?$StrTraitMFC_DLL@DV?$ChTraitsCRT@D@ATL@@@@@ATL@@ABVCGraphDrawStyle@@ABVCGraphColor@@HHABN5ABV?$CList@PAVCPacket@@PAV1@@@PBVCIndicatorInfo@@_N8ABVCPacket@@@Z$1
	DD	0ffffffffH
	DD	FLAT:__unwindfunclet$?DrawSellByHorizontalBar@CPairBarDraw@@IAE_NPAVCDC@@ABVCRect@@ABV?$CStringT@DV?$StrTraitMFC_DLL@DV?$ChTraitsCRT@D@ATL@@@@@ATL@@ABVCGraphDrawStyle@@ABVCGraphColor@@HHABN5ABV?$CList@PAVCPacket@@PAV1@@@PBVCIndicatorInfo@@_N8ABVCPacket@@@Z$2
	DD	03H
	DD	FLAT:__unwindfunclet$?DrawSellByHorizontalBar@CPairBarDraw@@IAE_NPAVCDC@@ABVCRect@@ABV?$CStringT@DV?$StrTraitMFC_DLL@DV?$ChTraitsCRT@D@ATL@@@@@ATL@@ABVCGraphDrawStyle@@ABVCGraphColor@@HHABN5ABV?$CList@PAVCPacket@@PAV1@@@PBVCIndicatorInfo@@_N8ABVCPacket@@@Z$3
	DD	04H
	DD	FLAT:__unwindfunclet$?DrawSellByHorizontalBar@CPairBarDraw@@IAE_NPAVCDC@@ABVCRect@@ABV?$CStringT@DV?$StrTraitMFC_DLL@DV?$ChTraitsCRT@D@ATL@@@@@ATL@@ABVCGraphDrawStyle@@ABVCGraphColor@@HHABN5ABV?$CList@PAVCPacket@@PAV1@@@PBVCIndicatorInfo@@_N8ABVCPacket@@@Z$4
	DD	05H
	DD	FLAT:__unwindfunclet$?DrawSellByHorizontalBar@CPairBarDraw@@IAE_NPAVCDC@@ABVCRect@@ABV?$CStringT@DV?$StrTraitMFC_DLL@DV?$ChTraitsCRT@D@ATL@@@@@ATL@@ABVCGraphDrawStyle@@ABVCGraphColor@@HHABN5ABV?$CList@PAVCPacket@@PAV1@@@PBVCIndicatorInfo@@_N8ABVCPacket@@@Z$5
	DD	06H
	DD	FLAT:__unwindfunclet$?DrawSellByHorizontalBar@CPairBarDraw@@IAE_NPAVCDC@@ABVCRect@@ABV?$CStringT@DV?$StrTraitMFC_DLL@DV?$ChTraitsCRT@D@ATL@@@@@ATL@@ABVCGraphDrawStyle@@ABVCGraphColor@@HHABN5ABV?$CList@PAVCPacket@@PAV1@@@PBVCIndicatorInfo@@_N8ABVCPacket@@@Z$6
	DD	07H
	DD	FLAT:__unwindfunclet$?DrawSellByHorizontalBar@CPairBarDraw@@IAE_NPAVCDC@@ABVCRect@@ABV?$CStringT@DV?$StrTraitMFC_DLL@DV?$ChTraitsCRT@D@ATL@@@@@ATL@@ABVCGraphDrawStyle@@ABVCGraphColor@@HHABN5ABV?$CList@PAVCPacket@@PAV1@@@PBVCIndicatorInfo@@_N8ABVCPacket@@@Z$7
	DD	08H
	DD	FLAT:__unwindfunclet$?DrawSellByHorizontalBar@CPairBarDraw@@IAE_NPAVCDC@@ABVCRect@@ABV?$CStringT@DV?$StrTraitMFC_DLL@DV?$ChTraitsCRT@D@ATL@@@@@ATL@@ABVCGraphDrawStyle@@ABVCGraphColor@@HHABN5ABV?$CList@PAVCPacket@@PAV1@@@PBVCIndicatorInfo@@_N8ABVCPacket@@@Z$8
	DD	09H
	DD	FLAT:__unwindfunclet$?DrawSellByHorizontalBar@CPairBarDraw@@IAE_NPAVCDC@@ABVCRect@@ABV?$CStringT@DV?$StrTraitMFC_DLL@DV?$ChTraitsCRT@D@ATL@@@@@ATL@@ABVCGraphDrawStyle@@ABVCGraphColor@@HHABN5ABV?$CList@PAVCPacket@@PAV1@@@PBVCIndicatorInfo@@_N8ABVCPacket@@@Z$9
	DD	0aH
	DD	FLAT:__unwindfunclet$?DrawSellByHorizontalBar@CPairBarDraw@@IAE_NPAVCDC@@ABVCRect@@ABV?$CStringT@DV?$StrTraitMFC_DLL@DV?$ChTraitsCRT@D@ATL@@@@@ATL@@ABVCGraphDrawStyle@@ABVCGraphColor@@HHABN5ABV?$CList@PAVCPacket@@PAV1@@@PBVCIndicatorInfo@@_N8ABVCPacket@@@Z$10
	DD	09H
	DD	FLAT:__unwindfunclet$?DrawSellByHorizontalBar@CPairBarDraw@@IAE_NPAVCDC@@ABVCRect@@ABV?$CStringT@DV?$StrTraitMFC_DLL@DV?$ChTraitsCRT@D@ATL@@@@@ATL@@ABVCGraphDrawStyle@@ABVCGraphColor@@HHABN5ABV?$CList@PAVCPacket@@PAV1@@@PBVCIndicatorInfo@@_N8ABVCPacket@@@Z$10
	DD	08H
	DD	FLAT:__unwindfunclet$?DrawSellByHorizontalBar@CPairBarDraw@@IAE_NPAVCDC@@ABVCRect@@ABV?$CStringT@DV?$StrTraitMFC_DLL@DV?$ChTraitsCRT@D@ATL@@@@@ATL@@ABVCGraphDrawStyle@@ABVCGraphColor@@HHABN5ABV?$CList@PAVCPacket@@PAV1@@@PBVCIndicatorInfo@@_N8ABVCPacket@@@Z$10
	DD	0dH
	DD	FLAT:__unwindfunclet$?DrawSellByHorizontalBar@CPairBarDraw@@IAE_NPAVCDC@@ABVCRect@@ABV?$CStringT@DV?$StrTraitMFC_DLL@DV?$ChTraitsCRT@D@ATL@@@@@ATL@@ABVCGraphDrawStyle@@ABVCGraphColor@@HHABN5ABV?$CList@PAVCPacket@@PAV1@@@PBVCIndicatorInfo@@_N8ABVCPacket@@@Z$11
	DD	0eH
	DD	FLAT:__unwindfunclet$?DrawSellByHorizontalBar@CPairBarDraw@@IAE_NPAVCDC@@ABVCRect@@ABV?$CStringT@DV?$StrTraitMFC_DLL@DV?$ChTraitsCRT@D@ATL@@@@@ATL@@ABVCGraphDrawStyle@@ABVCGraphColor@@HHABN5ABV?$CList@PAVCPacket@@PAV1@@@PBVCIndicatorInfo@@_N8ABVCPacket@@@Z$12
	DD	0fH
	DD	FLAT:__unwindfunclet$?DrawSellByHorizontalBar@CPairBarDraw@@IAE_NPAVCDC@@ABVCRect@@ABV?$CStringT@DV?$StrTraitMFC_DLL@DV?$ChTraitsCRT@D@ATL@@@@@ATL@@ABVCGraphDrawStyle@@ABVCGraphColor@@HHABN5ABV?$CList@PAVCPacket@@PAV1@@@PBVCIndicatorInfo@@_N8ABVCPacket@@@Z$13
	DD	0eH
	DD	FLAT:__unwindfunclet$?DrawSellByHorizontalBar@CPairBarDraw@@IAE_NPAVCDC@@ABVCRect@@ABV?$CStringT@DV?$StrTraitMFC_DLL@DV?$ChTraitsCRT@D@ATL@@@@@ATL@@ABVCGraphDrawStyle@@ABVCGraphColor@@HHABN5ABV?$CList@PAVCPacket@@PAV1@@@PBVCIndicatorInfo@@_N8ABVCPacket@@@Z$13
	DD	0dH
	DD	FLAT:__unwindfunclet$?DrawSellByHorizontalBar@CPairBarDraw@@IAE_NPAVCDC@@ABVCRect@@ABV?$CStringT@DV?$StrTraitMFC_DLL@DV?$ChTraitsCRT@D@ATL@@@@@ATL@@ABVCGraphDrawStyle@@ABVCGraphColor@@HHABN5ABV?$CList@PAVCPacket@@PAV1@@@PBVCIndicatorInfo@@_N8ABVCPacket@@@Z$13
	DD	012H
	DD	FLAT:__unwindfunclet$?DrawSellByHorizontalBar@CPairBarDraw@@IAE_NPAVCDC@@ABVCRect@@ABV?$CStringT@DV?$StrTraitMFC_DLL@DV?$ChTraitsCRT@D@ATL@@@@@ATL@@ABVCGraphDrawStyle@@ABVCGraphColor@@HHABN5ABV?$CList@PAVCPacket@@PAV1@@@PBVCIndicatorInfo@@_N8ABVCPacket@@@Z$14
	DD	013H
	DD	FLAT:__unwindfunclet$?DrawSellByHorizontalBar@CPairBarDraw@@IAE_NPAVCDC@@ABVCRect@@ABV?$CStringT@DV?$StrTraitMFC_DLL@DV?$ChTraitsCRT@D@ATL@@@@@ATL@@ABVCGraphDrawStyle@@ABVCGraphColor@@HHABN5ABV?$CList@PAVCPacket@@PAV1@@@PBVCIndicatorInfo@@_N8ABVCPacket@@@Z$15
	DD	014H
	DD	FLAT:__unwindfunclet$?DrawSellByHorizontalBar@CPairBarDraw@@IAE_NPAVCDC@@ABVCRect@@ABV?$CStringT@DV?$StrTraitMFC_DLL@DV?$ChTraitsCRT@D@ATL@@@@@ATL@@ABVCGraphDrawStyle@@ABVCGraphColor@@HHABN5ABV?$CList@PAVCPacket@@PAV1@@@PBVCIndicatorInfo@@_N8ABVCPacket@@@Z$16
	DD	013H
	DD	FLAT:__unwindfunclet$?DrawSellByHorizontalBar@CPairBarDraw@@IAE_NPAVCDC@@ABVCRect@@ABV?$CStringT@DV?$StrTraitMFC_DLL@DV?$ChTraitsCRT@D@ATL@@@@@ATL@@ABVCGraphDrawStyle@@ABVCGraphColor@@HHABN5ABV?$CList@PAVCPacket@@PAV1@@@PBVCIndicatorInfo@@_N8ABVCPacket@@@Z$16
	DD	012H
	DD	FLAT:__unwindfunclet$?DrawSellByHorizontalBar@CPairBarDraw@@IAE_NPAVCDC@@ABVCRect@@ABV?$CStringT@DV?$StrTraitMFC_DLL@DV?$ChTraitsCRT@D@ATL@@@@@ATL@@ABVCGraphDrawStyle@@ABVCGraphColor@@HHABN5ABV?$CList@PAVCPacket@@PAV1@@@PBVCIndicatorInfo@@_N8ABVCPacket@@@Z$16
	DD	017H
	DD	FLAT:__unwindfunclet$?DrawSellByHorizontalBar@CPairBarDraw@@IAE_NPAVCDC@@ABVCRect@@ABV?$CStringT@DV?$StrTraitMFC_DLL@DV?$ChTraitsCRT@D@ATL@@@@@ATL@@ABVCGraphDrawStyle@@ABVCGraphColor@@HHABN5ABV?$CList@PAVCPacket@@PAV1@@@PBVCIndicatorInfo@@_N8ABVCPacket@@@Z$17
	DD	018H
	DD	FLAT:__unwindfunclet$?DrawSellByHorizontalBar@CPairBarDraw@@IAE_NPAVCDC@@ABVCRect@@ABV?$CStringT@DV?$StrTraitMFC_DLL@DV?$ChTraitsCRT@D@ATL@@@@@ATL@@ABVCGraphDrawStyle@@ABVCGraphColor@@HHABN5ABV?$CList@PAVCPacket@@PAV1@@@PBVCIndicatorInfo@@_N8ABVCPacket@@@Z$18
xdata$x	ENDS
;	COMDAT xdata$x
xdata$x	SEGMENT
__unwindtable$?DrawGraph@CPairBarDraw@@UAE_NPAVCDC@@ABVCRect@@ABVCDisplayAttributes@@ABVCDrawingGraphData@@ABVCSubGraphData@@PAVCXScaleManager@@@Z DD 0ffffffffH
	DD	FLAT:__unwindfunclet$?DrawGraph@CPairBarDraw@@UAE_NPAVCDC@@ABVCRect@@ABVCDisplayAttributes@@ABVCDrawingGraphData@@ABVCSubGraphData@@PAVCXScaleManager@@@Z$0
__ehfuncinfo$?DrawGraph@CPairBarDraw@@UAE_NPAVCDC@@ABVCRect@@ABVCDisplayAttributes@@ABVCDrawingGraphData@@ABVCSubGraphData@@PAVCXScaleManager@@@Z DD 019930522H
	DD	01H
	DD	FLAT:__unwindtable$?DrawGraph@CPairBarDraw@@UAE_NPAVCDC@@ABVCRect@@ABVCDisplayAttributes@@ABVCDrawingGraphData@@ABVCSubGraphData@@PAVCXScaleManager@@@Z
	DD	2 DUP(00H)
	DD	2 DUP(00H)
	DD	00H
	DD	01H
xdata$x	ENDS
;	COMDAT xdata$x
xdata$x	SEGMENT
__unwindtable$?DrawGraph@CPairBarDraw@@UAE_NPAVCDC@@ABVCRect@@ABVCDisplayAttributes@@ABVCDrawingGraphData@@ABVCSubGraphData@@@Z DD 0ffffffffH
	DD	FLAT:__unwindfunclet$?DrawGraph@CPairBarDraw@@UAE_NPAVCDC@@ABVCRect@@ABVCDisplayAttributes@@ABVCDrawingGraphData@@ABVCSubGraphData@@@Z$0
__ehfuncinfo$?DrawGraph@CPairBarDraw@@UAE_NPAVCDC@@ABVCRect@@ABVCDisplayAttributes@@ABVCDrawingGraphData@@ABVCSubGraphData@@@Z DD 019930522H
	DD	01H
	DD	FLAT:__unwindtable$?DrawGraph@CPairBarDraw@@UAE_NPAVCDC@@ABVCRect@@ABVCDisplayAttributes@@ABVCDrawingGraphData@@ABVCSubGraphData@@@Z
	DD	2 DUP(00H)
	DD	2 DUP(00H)
	DD	00H
	DD	01H
xdata$x	ENDS
;	COMDAT xdata$x
xdata$x	SEGMENT
__catchsym$??1CGdiObject@@UAE@XZ$3 DD 00H
	DD	FLAT:??_R0PAVCException@@@8
	DD	0fffffde4H
	DD	FLAT:__catch$??1CGdiObject@@UAE@XZ$0
__tryblocktable$??1CGdiObject@@UAE@XZ DD 00H
	DD	00H
	DD	02H
	DD	01H
	DD	FLAT:__catchsym$??1CGdiObject@@UAE@XZ$3
__unwindtable$??1CGdiObject@@UAE@XZ DD 0ffffffffH
	DD	00H
	DD	0ffffffffH
	DD	00H
	DD	01H
	DD	FLAT:__unwindfunclet$??1CGdiObject@@UAE@XZ$2
__ehfuncinfo$??1CGdiObject@@UAE@XZ DD 019930522H
	DD	03H
	DD	FLAT:__unwindtable$??1CGdiObject@@UAE@XZ
	DD	01H
	DD	FLAT:__tryblocktable$??1CGdiObject@@UAE@XZ
	DD	2 DUP(00H)
	DD	00H
	DD	05H
xdata$x	ENDS
;	COMDAT xdata$x
xdata$x	SEGMENT
__unwindtable$??HATL@@YA?AV?$CStringT@DV?$StrTraitMFC_DLL@DV?$ChTraitsCRT@D@ATL@@@@@0@ABV10@PBD@Z DD 0ffffffffH
	DD	FLAT:__unwindfunclet$??HATL@@YA?AV?$CStringT@DV?$StrTraitMFC_DLL@DV?$ChTraitsCRT@D@ATL@@@@@0@ABV10@PBD@Z$0
__ehfuncinfo$??HATL@@YA?AV?$CStringT@DV?$StrTraitMFC_DLL@DV?$ChTraitsCRT@D@ATL@@@@@0@ABV10@PBD@Z DD 019930522H
	DD	01H
	DD	FLAT:__unwindtable$??HATL@@YA?AV?$CStringT@DV?$StrTraitMFC_DLL@DV?$ChTraitsCRT@D@ATL@@@@@0@ABV10@PBD@Z
	DD	2 DUP(00H)
	DD	2 DUP(00H)
	DD	00H
	DD	01H
xdata$x	ENDS
;	COMDAT xdata$x
xdata$x	SEGMENT
__unwindtable$??HATL@@YA?AV?$CStringT@DV?$StrTraitMFC_DLL@DV?$ChTraitsCRT@D@ATL@@@@@0@ABV10@0@Z DD 0ffffffffH
	DD	FLAT:__unwindfunclet$??HATL@@YA?AV?$CStringT@DV?$StrTraitMFC_DLL@DV?$ChTraitsCRT@D@ATL@@@@@0@ABV10@0@Z$0
__ehfuncinfo$??HATL@@YA?AV?$CStringT@DV?$StrTraitMFC_DLL@DV?$ChTraitsCRT@D@ATL@@@@@0@ABV10@0@Z DD 019930522H
	DD	01H
	DD	FLAT:__unwindtable$??HATL@@YA?AV?$CStringT@DV?$StrTraitMFC_DLL@DV?$ChTraitsCRT@D@ATL@@@@@0@ABV10@0@Z
	DD	2 DUP(00H)
	DD	2 DUP(00H)
	DD	00H
	DD	01H
xdata$x	ENDS
; Function compile flags: /Ogtp
; File D:\git\src\IBK\IBK_DRFN\ProjSrc\SrcChartEx\ChartOCX\GraphDraw\PairBarDraw.cpp
;	COMDAT ??_GCPairBarDraw@@UAEPAXI@Z
_TEXT	SEGMENT
___flags$ = 8						; size = 4
??_GCPairBarDraw@@UAEPAXI@Z PROC			; CPairBarDraw::`scalar deleting destructor', COMDAT
; _this$ = ecx
  00000	55		 push	 ebp
  00001	8b ec		 mov	 ebp, esp

; 26   : {

  00003	56		 push	 esi
  00004	8b f1		 mov	 esi, ecx
  00006	c7 06 00 00 00
	00		 mov	 DWORD PTR [esi], OFFSET ??_7CPairBarDraw@@6B@

; 27   : }

  0000c	e8 00 00 00 00	 call	 ??1CBarDraw@@UAE@XZ	; CBarDraw::~CBarDraw
  00011	f6 45 08 01	 test	 BYTE PTR ___flags$[ebp], 1
  00015	74 0b		 je	 SHORT $LN7@scalar
  00017	6a 28		 push	 40			; 00000028H
  00019	56		 push	 esi
  0001a	e8 00 00 00 00	 call	 ??3@YAXPAXI@Z		; operator delete
  0001f	83 c4 08	 add	 esp, 8
$LN7@scalar:
  00022	8b c6		 mov	 eax, esi
  00024	5e		 pop	 esi
  00025	5d		 pop	 ebp
  00026	c2 04 00	 ret	 4
??_GCPairBarDraw@@UAEPAXI@Z ENDP			; CPairBarDraw::`scalar deleting destructor'
_TEXT	ENDS
; Function compile flags: /Ogtp
; File D:\git\src\IBK\IBK_DRFN\ProjSrc\SrcChartEx\ChartOCX\GraphDraw\PairBarDraw.cpp
; File C:\Program Files (x86)\Microsoft Visual Studio\2019\Community\VC\Tools\MSVC\14.29.30133\atlmfc\include\atltypes.h
; File D:\git\src\IBK\IBK_DRFN\ProjSrc\SrcChartEx\ChartOCX\GraphDraw\PairBarDraw.cpp
; File C:\Program Files (x86)\Microsoft Visual Studio\2019\Community\VC\Tools\MSVC\14.29.30133\atlmfc\include\atltypes.h
; File D:\git\src\IBK\IBK_DRFN\ProjSrc\SrcChartEx\ChartOCX\GraphDraw\PairBarDraw.cpp
; File C:\Program Files (x86)\Microsoft Visual Studio\2019\Community\VC\Tools\MSVC\14.29.30133\atlmfc\include\atltypes.h
; File D:\git\src\IBK\IBK_DRFN\ProjSrc\SrcChartEx\ChartOCX\GraphDraw\PairBarDraw.cpp
; File C:\Program Files (x86)\Microsoft Visual Studio\2019\Community\VC\Tools\MSVC\14.29.30133\atlmfc\include\atltypes.h
; File D:\git\src\IBK\IBK_DRFN\ProjSrc\SrcChartEx\ChartOCX\GraphDraw\PairBarDraw.cpp
; File C:\Program Files (x86)\Microsoft Visual Studio\2019\Community\VC\Tools\MSVC\14.29.30133\atlmfc\include\atltypes.h
; File D:\git\src\IBK\IBK_DRFN\ProjSrc\SrcChartEx\ChartOCX\GraphDraw\PairBarDraw.cpp
; File C:\Program Files (x86)\Microsoft Visual Studio\2019\Community\VC\Tools\MSVC\14.29.30133\atlmfc\include\atltypes.h
; File D:\git\src\IBK\IBK_DRFN\ProjSrc\SrcChartEx\ChartOCX\GraphDraw\PairBarDraw.cpp
; File C:\Program Files (x86)\Microsoft Visual Studio\2019\Community\VC\Tools\MSVC\14.29.30133\atlmfc\include\atltypes.h
; File C:\Program Files (x86)\Microsoft Visual Studio\2019\Community\VC\Tools\MSVC\14.29.30133\atlmfc\include\afxwin1.inl
; File C:\Program Files (x86)\Microsoft Visual Studio\2019\Community\VC\Tools\MSVC\14.29.30133\atlmfc\include\atltypes.h
; File D:\git\src\IBK\IBK_DRFN\ProjSrc\SrcChartEx\ChartOCX\GraphDraw\PairBarDraw.cpp
; File C:\Program Files (x86)\Microsoft Visual Studio\2019\Community\VC\Tools\MSVC\14.29.30133\atlmfc\include\atltypes.h
; File D:\git\src\IBK\IBK_DRFN\ProjSrc\SrcChartEx\ChartOCX\GraphDraw\PairBarDraw.cpp
; File C:\Program Files (x86)\Microsoft Visual Studio\2019\Community\VC\Tools\MSVC\14.29.30133\atlmfc\include\afxwin1.inl
; File C:\Program Files (x86)\Microsoft Visual Studio\2019\Community\VC\Tools\MSVC\14.29.30133\atlmfc\include\atltypes.h
; File C:\Program Files (x86)\Microsoft Visual Studio\2019\Community\VC\Tools\MSVC\14.29.30133\atlmfc\include\afxwin1.inl
; File D:\git\src\IBK\IBK_DRFN\ProjSrc\SrcChartEx\ChartOCX\GraphDraw\PairBarDraw.cpp
; File C:\Program Files (x86)\Microsoft Visual Studio\2019\Community\VC\Tools\MSVC\14.29.30133\atlmfc\include\atltypes.h
; File C:\Program Files (x86)\Microsoft Visual Studio\2019\Community\VC\Tools\MSVC\14.29.30133\atlmfc\include\atlsimpstr.h
; File C:\Program Files (x86)\Microsoft Visual Studio\2019\Community\VC\Tools\MSVC\14.29.30133\atlmfc\include\atltypes.h
; File D:\git\src\IBK\IBK_DRFN\ProjSrc\SrcChartEx\ChartOCX\GraphDraw\PairBarDraw.cpp
; File C:\Program Files (x86)\Microsoft Visual Studio\2019\Community\VC\Tools\MSVC\14.29.30133\atlmfc\include\afxwin1.inl
; File C:\Program Files (x86)\Microsoft Visual Studio\2019\Community\VC\Tools\MSVC\14.29.30133\atlmfc\include\atlsimpstr.h
; File C:\Program Files (x86)\Microsoft Visual Studio\2019\Community\VC\Tools\MSVC\14.29.30133\atlmfc\include\afxwin1.inl
; File C:\Program Files (x86)\Microsoft Visual Studio\2019\Community\VC\Tools\MSVC\14.29.30133\atlmfc\include\atlsimpstr.h
; File C:\Program Files (x86)\Microsoft Visual Studio\2019\Community\VC\Tools\MSVC\14.29.30133\atlmfc\include\afxwin1.inl
; File C:\Program Files (x86)\Microsoft Visual Studio\2019\Community\VC\Tools\MSVC\14.29.30133\atlmfc\include\atltypes.h
; File D:\git\src\IBK\IBK_DRFN\ProjSrc\SrcChartEx\ChartOCX\GraphDraw\PairBarDraw.cpp
; File C:\Program Files (x86)\Microsoft Visual Studio\2019\Community\VC\Tools\MSVC\14.29.30133\atlmfc\include\cstringt.h
; File D:\git\src\IBK\IBK_DRFN\ProjSrc\SrcChartEx\ChartOCX\GraphDraw\PairBarDraw.cpp
; File C:\Program Files (x86)\Microsoft Visual Studio\2019\Community\VC\Tools\MSVC\14.29.30133\atlmfc\include\cstringt.h
; File C:\Program Files (x86)\Microsoft Visual Studio\2019\Community\VC\Tools\MSVC\14.29.30133\atlmfc\include\atlsimpstr.h
; File C:\Program Files (x86)\Microsoft Visual Studio\2019\Community\VC\Tools\MSVC\14.29.30133\atlmfc\include\cstringt.h
; File D:\git\src\IBK\IBK_DRFN\ProjSrc\SrcChartEx\ChartOCX\GraphDraw\PairBarDraw.cpp
; File C:\Program Files (x86)\Microsoft Visual Studio\2019\Community\VC\Tools\MSVC\14.29.30133\atlmfc\include\cstringt.h
; File C:\Program Files (x86)\Microsoft Visual Studio\2019\Community\VC\Tools\MSVC\14.29.30133\atlmfc\include\atlsimpstr.h
; File C:\Program Files (x86)\Microsoft Visual Studio\2019\Community\VC\Tools\MSVC\14.29.30133\atlmfc\include\cstringt.h
; File D:\git\src\IBK\IBK_DRFN\ProjSrc\SrcChartEx\ChartOCX\GraphDraw\PairBarDraw.cpp
; File C:\Program Files (x86)\Microsoft Visual Studio\2019\Community\VC\Tools\MSVC\14.29.30133\atlmfc\include\atltypes.h
; File D:\git\src\IBK\IBK_DRFN\ProjSrc\SrcChartEx\ChartOCX\GraphDraw\PairBarDraw.cpp
; File C:\Program Files (x86)\Microsoft Visual Studio\2019\Community\VC\Tools\MSVC\14.29.30133\atlmfc\include\atltypes.h
; File C:\Program Files (x86)\Microsoft Visual Studio\2019\Community\VC\Tools\MSVC\14.29.30133\atlmfc\include\afxwin1.inl
; File D:\git\src\IBK\IBK_DRFN\ProjSrc\SrcChartEx\ChartOCX\GraphDraw\PairBarDraw.cpp
; File C:\Program Files (x86)\Microsoft Visual Studio\2019\Community\VC\Tools\MSVC\14.29.30133\atlmfc\include\afxwin1.inl
; File D:\git\src\IBK\IBK_DRFN\ProjSrc\SrcChartEx\ChartOCX\GraphDraw\PairBarDraw.cpp
; File C:\Program Files (x86)\Microsoft Visual Studio\2019\Community\VC\Tools\MSVC\14.29.30133\atlmfc\include\afxwin1.inl
; File D:\git\src\IBK\IBK_DRFN\ProjSrc\SrcChartEx\ChartOCX\GraphDraw\PairBarDraw.cpp
; File C:\Program Files (x86)\Microsoft Visual Studio\2019\Community\VC\Tools\MSVC\14.29.30133\atlmfc\include\atltypes.h
; File D:\git\src\IBK\IBK_DRFN\ProjSrc\SrcChartEx\ChartOCX\GraphDraw\PairBarDraw.cpp
; File C:\Program Files (x86)\Microsoft Visual Studio\2019\Community\VC\Tools\MSVC\14.29.30133\atlmfc\include\atltypes.h
; File D:\git\src\IBK\IBK_DRFN\ProjSrc\SrcChartEx\ChartOCX\GraphDraw\PairBarDraw.cpp
; File C:\Program Files (x86)\Microsoft Visual Studio\2019\Community\VC\Tools\MSVC\14.29.30133\atlmfc\include\afxwin1.inl
; File D:\git\src\IBK\IBK_DRFN\ProjSrc\SrcChartEx\ChartOCX\GraphDraw\PairBarDraw.cpp
; File C:\Program Files (x86)\Microsoft Visual Studio\2019\Community\VC\Tools\MSVC\14.29.30133\atlmfc\include\afxwin1.inl
; File D:\git\src\IBK\IBK_DRFN\ProjSrc\SrcChartEx\ChartOCX\GraphDraw\PairBarDraw.cpp
; File C:\Program Files (x86)\Microsoft Visual Studio\2019\Community\VC\Tools\MSVC\14.29.30133\atlmfc\include\atltypes.h
; File D:\git\src\IBK\IBK_DRFN\ProjSrc\SrcChartEx\ChartOCX\GraphDraw\PairBarDraw.cpp
; File C:\Program Files (x86)\Microsoft Visual Studio\2019\Community\VC\Tools\MSVC\14.29.30133\atlmfc\include\atltypes.h
; File C:\Program Files (x86)\Microsoft Visual Studio\2019\Community\VC\Tools\MSVC\14.29.30133\atlmfc\include\afxwin1.inl
; File D:\git\src\IBK\IBK_DRFN\ProjSrc\SrcChartEx\ChartOCX\GraphDraw\PairBarDraw.cpp
; File C:\Program Files (x86)\Microsoft Visual Studio\2019\Community\VC\Tools\MSVC\14.29.30133\atlmfc\include\afxwin1.inl
; File D:\git\src\IBK\IBK_DRFN\ProjSrc\SrcChartEx\ChartOCX\GraphDraw\PairBarDraw.cpp
; File C:\Program Files (x86)\Microsoft Visual Studio\2019\Community\VC\Tools\MSVC\14.29.30133\atlmfc\include\afxwin1.inl
; File D:\git\src\IBK\IBK_DRFN\ProjSrc\SrcChartEx\ChartOCX\GraphDraw\PairBarDraw.cpp
;	COMDAT ?DrawText_SellByHorizontalBar@CPairBarDraw@@IAEXPAVCDC@@ABVCRect@@ABVCPoint@@2V?$CStringT@DV?$StrTraitMFC_DLL@DV?$ChTraitsCRT@D@ATL@@@@@ATL@@33FABVCGraphColor@@@Z
_TEXT	SEGMENT
_size$2 = -104						; size = 8
_size$3 = -96						; size = 8
_size$4 = -88						; size = 8
_pDC$GSCopy$1$ = -84					; size = 4
_graphColor$GSCopy$1$ = -80				; size = 4
_t$1$ = -76						; size = 4
$T5 = -76						; size = 4
_graphRegion$GSCopy$1$ = -72				; size = 4
$T6 = -72						; size = 4
tv906 = -68						; size = 4
$T7 = -68						; size = 4
_rctFull$ = -64						; size = 16
_rctBuy$ = -48						; size = 16
_rctSell$ = -32						; size = 16
__$ArrayPad$ = -16					; size = 4
__$EHRec$ = -12						; size = 12
_pDC$ = 8						; size = 4
_graphRegion$ = 12					; size = 4
_BydataPt$ = 16						; size = 4
_SelldataPt$ = 20					; size = 4
_strByData$ = 24					; size = 4
_strSellData$ = 28					; size = 4
_strFullData$ = 32					; size = 4
_nWidth$ = 36						; size = 2
_graphColor$ = 40					; size = 4
?DrawText_SellByHorizontalBar@CPairBarDraw@@IAEXPAVCDC@@ABVCRect@@ABVCPoint@@2V?$CStringT@DV?$StrTraitMFC_DLL@DV?$ChTraitsCRT@D@ATL@@@@@ATL@@33FABVCGraphColor@@@Z PROC ; CPairBarDraw::DrawText_SellByHorizontalBar, COMDAT
; _this$ = ecx

; 436  : {

  00000	55		 push	 ebp
  00001	8b ec		 mov	 ebp, esp
  00003	6a ff		 push	 -1
  00005	68 00 00 00 00	 push	 __ehhandler$?DrawText_SellByHorizontalBar@CPairBarDraw@@IAEXPAVCDC@@ABVCRect@@ABVCPoint@@2V?$CStringT@DV?$StrTraitMFC_DLL@DV?$ChTraitsCRT@D@ATL@@@@@ATL@@33FABVCGraphColor@@@Z
  0000a	64 a1 00 00 00
	00		 mov	 eax, DWORD PTR fs:0
  00010	50		 push	 eax
  00011	83 ec 5c	 sub	 esp, 92			; 0000005cH
  00014	a1 00 00 00 00	 mov	 eax, DWORD PTR ___security_cookie
  00019	33 c5		 xor	 eax, ebp
  0001b	89 45 f0	 mov	 DWORD PTR __$ArrayPad$[ebp], eax
  0001e	53		 push	 ebx
  0001f	56		 push	 esi
  00020	57		 push	 edi
  00021	50		 push	 eax
  00022	8d 45 f4	 lea	 eax, DWORD PTR __$EHRec$[ebp]
  00025	64 a3 00 00 00
	00		 mov	 DWORD PTR fs:0, eax
  0002b	8b 45 08	 mov	 eax, DWORD PTR _pDC$[ebp]
  0002e	8b 5d 10	 mov	 ebx, DWORD PTR _BydataPt$[ebp]
  00031	8b 4d 14	 mov	 ecx, DWORD PTR _SelldataPt$[ebp]
  00034	89 45 ac	 mov	 DWORD PTR _pDC$GSCopy$1$[ebp], eax
  00037	8b 45 0c	 mov	 eax, DWORD PTR _graphRegion$[ebp]
  0003a	89 45 b8	 mov	 DWORD PTR _graphRegion$GSCopy$1$[ebp], eax
  0003d	8b 45 28	 mov	 eax, DWORD PTR _graphColor$[ebp]
  00040	89 45 b0	 mov	 DWORD PTR _graphColor$GSCopy$1$[ebp], eax
  00043	c7 45 b4 00 00
	00 00		 mov	 DWORD PTR $T5[ebp], 0

; 438  : 	CRect rctSell(	graphRegion.left,								SelldataPt.y,	SelldataPt.x,									SelldataPt.y + nWidth);

  0004a	8b 71 04	 mov	 esi, DWORD PTR [ecx+4]
  0004d	0f bf 45 24	 movsx	 eax, WORD PTR _nWidth$[ebp]
  00051	8b 39		 mov	 edi, DWORD PTR [ecx]
; File C:\Program Files (x86)\Microsoft Visual Studio\2019\Community\VC\Tools\MSVC\14.29.30133\atlmfc\include\atltypes.h

; 541  : 	top = t;

  00053	89 75 e4	 mov	 DWORD PTR _rctSell$[ebp+4], esi
; File D:\git\src\IBK\IBK_DRFN\ProjSrc\SrcChartEx\ChartOCX\GraphDraw\PairBarDraw.cpp

; 438  : 	CRect rctSell(	graphRegion.left,								SelldataPt.y,	SelldataPt.x,									SelldataPt.y + nWidth);

  00056	89 75 b4	 mov	 DWORD PTR _t$1$[ebp], esi
; File C:\Program Files (x86)\Microsoft Visual Studio\2019\Community\VC\Tools\MSVC\14.29.30133\atlmfc\include\atltypes.h

; 543  : 	bottom = b;

  00059	8d 0c 06	 lea	 ecx, DWORD PTR [esi+eax]
  0005c	89 7d e8	 mov	 DWORD PTR _rctSell$[ebp+8], edi
; File D:\git\src\IBK\IBK_DRFN\ProjSrc\SrcChartEx\ChartOCX\GraphDraw\PairBarDraw.cpp

; 438  : 	CRect rctSell(	graphRegion.left,								SelldataPt.y,	SelldataPt.x,									SelldataPt.y + nWidth);

  0005f	8d 14 06	 lea	 edx, DWORD PTR [esi+eax]
; File C:\Program Files (x86)\Microsoft Visual Studio\2019\Community\VC\Tools\MSVC\14.29.30133\atlmfc\include\atltypes.h

; 543  : 	bottom = b;

  00062	89 4d ec	 mov	 DWORD PTR _rctSell$[ebp+12], ecx
; File D:\git\src\IBK\IBK_DRFN\ProjSrc\SrcChartEx\ChartOCX\GraphDraw\PairBarDraw.cpp

; 439  : 	CRect rctBuy(	SelldataPt.x,									BydataPt.y,		SelldataPt.x + BydataPt.x - graphRegion.left,	BydataPt.y + nWidth);

  00065	8b 4b 04	 mov	 ecx, DWORD PTR [ebx+4]
  00068	89 55 bc	 mov	 DWORD PTR tv906[ebp], edx
; File C:\Program Files (x86)\Microsoft Visual Studio\2019\Community\VC\Tools\MSVC\14.29.30133\atlmfc\include\atltypes.h

; 540  : 	left = l;

  0006b	8b 55 b8	 mov	 edx, DWORD PTR _graphRegion$GSCopy$1$[ebp]

; 541  : 	top = t;

  0006e	89 4d d4	 mov	 DWORD PTR _rctBuy$[ebp+4], ecx
; File D:\git\src\IBK\IBK_DRFN\ProjSrc\SrcChartEx\ChartOCX\GraphDraw\PairBarDraw.cpp

; 439  : 	CRect rctBuy(	SelldataPt.x,									BydataPt.y,		SelldataPt.x + BydataPt.x - graphRegion.left,	BydataPt.y + nWidth);

  00071	8d 34 01	 lea	 esi, DWORD PTR [ecx+eax]
; File C:\Program Files (x86)\Microsoft Visual Studio\2019\Community\VC\Tools\MSVC\14.29.30133\atlmfc\include\atltypes.h

; 540  : 	left = l;

  00074	89 7d d0	 mov	 DWORD PTR _rctBuy$[ebp], edi
; File D:\git\src\IBK\IBK_DRFN\ProjSrc\SrcChartEx\ChartOCX\GraphDraw\PairBarDraw.cpp

; 439  : 	CRect rctBuy(	SelldataPt.x,									BydataPt.y,		SelldataPt.x + BydataPt.x - graphRegion.left,	BydataPt.y + nWidth);

  00077	8b 03		 mov	 eax, DWORD PTR [ebx]
; File C:\Program Files (x86)\Microsoft Visual Studio\2019\Community\VC\Tools\MSVC\14.29.30133\atlmfc\include\atltypes.h

; 540  : 	left = l;

  00079	8b 12		 mov	 edx, DWORD PTR [edx]
; File D:\git\src\IBK\IBK_DRFN\ProjSrc\SrcChartEx\ChartOCX\GraphDraw\PairBarDraw.cpp

; 439  : 	CRect rctBuy(	SelldataPt.x,									BydataPt.y,		SelldataPt.x + BydataPt.x - graphRegion.left,	BydataPt.y + nWidth);

  0007b	2b c2		 sub	 eax, edx
; File C:\Program Files (x86)\Microsoft Visual Studio\2019\Community\VC\Tools\MSVC\14.29.30133\atlmfc\include\atltypes.h

; 541  : 	top = t;

  0007d	8b 4d b4	 mov	 ecx, DWORD PTR _t$1$[ebp]
; File C:\Program Files (x86)\Microsoft Visual Studio\2019\Community\VC\Tools\MSVC\14.29.30133\atlmfc\include\afxwin1.inl

; 639  : 		VERIFY(::GetTextExtentPoint32(m_hAttribDC, str, (int)str.GetLength(), &size));

  00080	8b 5d ac	 mov	 ebx, DWORD PTR _pDC$GSCopy$1$[ebp]
; File C:\Program Files (x86)\Microsoft Visual Studio\2019\Community\VC\Tools\MSVC\14.29.30133\atlmfc\include\atltypes.h

; 540  : 	left = l;

  00083	89 55 e0	 mov	 DWORD PTR _rctSell$[ebp], edx
; File D:\git\src\IBK\IBK_DRFN\ProjSrc\SrcChartEx\ChartOCX\GraphDraw\PairBarDraw.cpp

; 439  : 	CRect rctBuy(	SelldataPt.x,									BydataPt.y,		SelldataPt.x + BydataPt.x - graphRegion.left,	BydataPt.y + nWidth);

  00086	8d 14 38	 lea	 edx, DWORD PTR [eax+edi]
; File C:\Program Files (x86)\Microsoft Visual Studio\2019\Community\VC\Tools\MSVC\14.29.30133\atlmfc\include\atltypes.h

; 541  : 	top = t;

  00089	89 4d c4	 mov	 DWORD PTR _rctFull$[ebp+4], ecx
; File D:\git\src\IBK\IBK_DRFN\ProjSrc\SrcChartEx\ChartOCX\GraphDraw\PairBarDraw.cpp

; 440  : 	CRect rctFull(	SelldataPt.x + BydataPt.x - graphRegion.left,	SelldataPt.y,	graphRegion.right,								SelldataPt.y + nWidth);

  0008c	8b 45 b8	 mov	 eax, DWORD PTR _graphRegion$GSCopy$1$[ebp]
; File C:\Program Files (x86)\Microsoft Visual Studio\2019\Community\VC\Tools\MSVC\14.29.30133\atlmfc\include\afxwin1.inl

; 639  : 		VERIFY(::GetTextExtentPoint32(m_hAttribDC, str, (int)str.GetLength(), &size));

  0008f	8d 4d a0	 lea	 ecx, DWORD PTR _size$3[ebp]
  00092	51		 push	 ecx
; File C:\Program Files (x86)\Microsoft Visual Studio\2019\Community\VC\Tools\MSVC\14.29.30133\atlmfc\include\atltypes.h

; 543  : 	bottom = b;

  00093	89 75 dc	 mov	 DWORD PTR _rctBuy$[ebp+12], esi
; File C:\Program Files (x86)\Microsoft Visual Studio\2019\Community\VC\Tools\MSVC\14.29.30133\atlmfc\include\afxwin1.inl

; 639  : 		VERIFY(::GetTextExtentPoint32(m_hAttribDC, str, (int)str.GetLength(), &size));

  00096	8b 35 00 00 00
	00		 mov	 esi, DWORD PTR __imp__GetTextExtentPoint32A@16
; File D:\git\src\IBK\IBK_DRFN\ProjSrc\SrcChartEx\ChartOCX\GraphDraw\PairBarDraw.cpp

; 440  : 	CRect rctFull(	SelldataPt.x + BydataPt.x - graphRegion.left,	SelldataPt.y,	graphRegion.right,								SelldataPt.y + nWidth);

  0009c	8b 40 08	 mov	 eax, DWORD PTR [eax+8]
; File C:\Program Files (x86)\Microsoft Visual Studio\2019\Community\VC\Tools\MSVC\14.29.30133\atlmfc\include\atltypes.h

; 542  : 	right = r;

  0009f	89 45 c8	 mov	 DWORD PTR _rctFull$[ebp+8], eax

; 543  : 	bottom = b;

  000a2	8b 45 bc	 mov	 eax, DWORD PTR tv906[ebp]
  000a5	89 45 cc	 mov	 DWORD PTR _rctFull$[ebp+12], eax
; File C:\Program Files (x86)\Microsoft Visual Studio\2019\Community\VC\Tools\MSVC\14.29.30133\atlmfc\include\atlsimpstr.h

; 519  : 		return( GetData()->nDataLength );

  000a8	8b 45 18	 mov	 eax, DWORD PTR _strByData$[ebp]
; File C:\Program Files (x86)\Microsoft Visual Studio\2019\Community\VC\Tools\MSVC\14.29.30133\atlmfc\include\atltypes.h

; 542  : 	right = r;

  000ab	89 55 d8	 mov	 DWORD PTR _rctBuy$[ebp+8], edx

; 540  : 	left = l;

  000ae	89 55 c0	 mov	 DWORD PTR _rctFull$[ebp], edx
; File D:\git\src\IBK\IBK_DRFN\ProjSrc\SrcChartEx\ChartOCX\GraphDraw\PairBarDraw.cpp

; 436  : {

  000b1	c7 45 fc 02 00
	00 00		 mov	 DWORD PTR __$EHRec$[ebp+8], 2
; File C:\Program Files (x86)\Microsoft Visual Studio\2019\Community\VC\Tools\MSVC\14.29.30133\atlmfc\include\afxwin1.inl

; 639  : 		VERIFY(::GetTextExtentPoint32(m_hAttribDC, str, (int)str.GetLength(), &size));

  000b8	ff 70 f4	 push	 DWORD PTR [eax-12]
  000bb	50		 push	 eax
  000bc	ff 73 08	 push	 DWORD PTR [ebx+8]
  000bf	ff d6		 call	 esi
; File C:\Program Files (x86)\Microsoft Visual Studio\2019\Community\VC\Tools\MSVC\14.29.30133\atlmfc\include\atlsimpstr.h

; 519  : 		return( GetData()->nDataLength );

  000c1	8b 45 1c	 mov	 eax, DWORD PTR _strSellData$[ebp]
; File C:\Program Files (x86)\Microsoft Visual Studio\2019\Community\VC\Tools\MSVC\14.29.30133\atlmfc\include\afxwin1.inl

; 639  : 		VERIFY(::GetTextExtentPoint32(m_hAttribDC, str, (int)str.GetLength(), &size));

  000c4	8d 4d a8	 lea	 ecx, DWORD PTR _size$4[ebp]
  000c7	51		 push	 ecx
  000c8	ff 70 f4	 push	 DWORD PTR [eax-12]
  000cb	50		 push	 eax
  000cc	ff 73 08	 push	 DWORD PTR [ebx+8]
  000cf	ff d6		 call	 esi
; File C:\Program Files (x86)\Microsoft Visual Studio\2019\Community\VC\Tools\MSVC\14.29.30133\atlmfc\include\atlsimpstr.h

; 519  : 		return( GetData()->nDataLength );

  000d1	8b 45 20	 mov	 eax, DWORD PTR _strFullData$[ebp]
; File C:\Program Files (x86)\Microsoft Visual Studio\2019\Community\VC\Tools\MSVC\14.29.30133\atlmfc\include\afxwin1.inl

; 639  : 		VERIFY(::GetTextExtentPoint32(m_hAttribDC, str, (int)str.GetLength(), &size));

  000d4	8d 4d 98	 lea	 ecx, DWORD PTR _size$2[ebp]
  000d7	51		 push	 ecx
  000d8	ff 70 f4	 push	 DWORD PTR [eax-12]
  000db	50		 push	 eax
  000dc	ff 73 08	 push	 DWORD PTR [ebx+8]
  000df	ff d6		 call	 esi
; File C:\Program Files (x86)\Microsoft Visual Studio\2019\Community\VC\Tools\MSVC\14.29.30133\atlmfc\include\atltypes.h

; 576  : 	return right - left;

  000e1	8b 55 e8	 mov	 edx, DWORD PTR _rctSell$[ebp+8]
  000e4	8b c2		 mov	 eax, edx
  000e6	8b 75 e0	 mov	 esi, DWORD PTR _rctSell$[ebp]
  000e9	2b c6		 sub	 eax, esi
; File D:\git\src\IBK\IBK_DRFN\ProjSrc\SrcChartEx\ChartOCX\GraphDraw\PairBarDraw.cpp

; 448  : 	if( rctSell.Width()	< titleSellSize.cx && rctSell.Width() + rctBuy.Width() < titleBySize.cx + titleSellSize.cx)

  000eb	8b 7d a8	 mov	 edi, DWORD PTR _size$4[ebp]
  000ee	3b c7		 cmp	 eax, edi
  000f0	0f 8d c8 00 00
	00		 jge	 $LN2@DrawText_S
  000f6	8b 4d d8	 mov	 ecx, DWORD PTR _rctBuy$[ebp+8]
  000f9	2b 4d d0	 sub	 ecx, DWORD PTR _rctBuy$[ebp]
  000fc	8b 45 a0	 mov	 eax, DWORD PTR _size$3[ebp]
  000ff	2b ce		 sub	 ecx, esi
  00101	03 ca		 add	 ecx, edx
  00103	03 c7		 add	 eax, edi
  00105	3b c8		 cmp	 ecx, eax
  00107	0f 8d b1 00 00
	00		 jge	 $LN2@DrawText_S
; File C:\Program Files (x86)\Microsoft Visual Studio\2019\Community\VC\Tools\MSVC\14.29.30133\atlmfc\include\cstringt.h

; 2401 : 		CStringT strResult( str1.GetManager() );

  0010d	8d 4d 1c	 lea	 ecx, DWORD PTR _strSellData$[ebp]
; File D:\git\src\IBK\IBK_DRFN\ProjSrc\SrcChartEx\ChartOCX\GraphDraw\PairBarDraw.cpp

; 450  : 		strFullData = strSellData + " / " + strByData;

  00110	c6 45 fc 03	 mov	 BYTE PTR __$EHRec$[ebp+8], 3
; File C:\Program Files (x86)\Microsoft Visual Studio\2019\Community\VC\Tools\MSVC\14.29.30133\atlmfc\include\cstringt.h

; 2401 : 		CStringT strResult( str1.GetManager() );

  00114	ff 15 00 00 00
	00		 call	 DWORD PTR __imp_?GetManager@?$CStringT@DV?$StrTraitMFC_DLL@DV?$ChTraitsCRT@D@ATL@@@@@ATL@@QBEPAUIAtlStringMgr@2@XZ
  0011a	50		 push	 eax
  0011b	8d 4d bc	 lea	 ecx, DWORD PTR $T7[ebp]
  0011e	ff 15 00 00 00
	00		 call	 DWORD PTR __imp_??0?$CStringT@DV?$StrTraitMFC_DLL@DV?$ChTraitsCRT@D@ATL@@@@@ATL@@QAE@PAUIAtlStringMgr@1@@Z
; File C:\Program Files (x86)\Microsoft Visual Studio\2019\Community\VC\Tools\MSVC\14.29.30133\atlmfc\include\atlsimpstr.h

; 519  : 		return( GetData()->nDataLength );

  00124	8b 45 1c	 mov	 eax, DWORD PTR _strSellData$[ebp]
; File C:\Program Files (x86)\Microsoft Visual Studio\2019\Community\VC\Tools\MSVC\14.29.30133\atlmfc\include\cstringt.h

; 2403 : 		CThisSimpleString::Concatenate( strResult, str1, str1.GetLength(), psz2, CThisSimpleString::StringLength( psz2 ) );

  00127	6a 03		 push	 3
  00129	68 00 00 00 00	 push	 OFFSET ??_C@_03NIBMKKKC@?5?1?5@

; 2404 : 
; 2405 : 		return( strResult );

  0012e	c7 45 b4 01 00
	00 00		 mov	 DWORD PTR $T5[ebp], 1
  00135	ff 70 f4	 push	 DWORD PTR [eax-12]
  00138	50		 push	 eax
  00139	8d 45 bc	 lea	 eax, DWORD PTR $T7[ebp]
  0013c	50		 push	 eax
  0013d	ff 15 00 00 00
	00		 call	 DWORD PTR __imp_?Concatenate@?$CSimpleStringT@D$00@ATL@@KAXAAV12@PBDH1H@Z
  00143	83 c4 14	 add	 esp, 20			; 00000014H

; 2390 : 		CStringT strResult( str1.GetManager() );

  00146	8d 4d bc	 lea	 ecx, DWORD PTR $T7[ebp]
; File D:\git\src\IBK\IBK_DRFN\ProjSrc\SrcChartEx\ChartOCX\GraphDraw\PairBarDraw.cpp

; 450  : 		strFullData = strSellData + " / " + strByData;

  00149	c6 45 fc 04	 mov	 BYTE PTR __$EHRec$[ebp+8], 4
; File C:\Program Files (x86)\Microsoft Visual Studio\2019\Community\VC\Tools\MSVC\14.29.30133\atlmfc\include\cstringt.h

; 2390 : 		CStringT strResult( str1.GetManager() );

  0014d	ff 15 00 00 00
	00		 call	 DWORD PTR __imp_?GetManager@?$CStringT@DV?$StrTraitMFC_DLL@DV?$ChTraitsCRT@D@ATL@@@@@ATL@@QBEPAUIAtlStringMgr@2@XZ
  00153	50		 push	 eax
  00154	8d 4d b8	 lea	 ecx, DWORD PTR $T6[ebp]
  00157	ff 15 00 00 00
	00		 call	 DWORD PTR __imp_??0?$CStringT@DV?$StrTraitMFC_DLL@DV?$ChTraitsCRT@D@ATL@@@@@ATL@@QAE@PAUIAtlStringMgr@1@@Z
; File C:\Program Files (x86)\Microsoft Visual Studio\2019\Community\VC\Tools\MSVC\14.29.30133\atlmfc\include\atlsimpstr.h

; 519  : 		return( GetData()->nDataLength );

  0015d	8b 45 18	 mov	 eax, DWORD PTR _strByData$[ebp]
  00160	8b 4d bc	 mov	 ecx, DWORD PTR $T7[ebp]
; File C:\Program Files (x86)\Microsoft Visual Studio\2019\Community\VC\Tools\MSVC\14.29.30133\atlmfc\include\cstringt.h

; 2394 : 		return( strResult );

  00163	c7 45 b4 03 00
	00 00		 mov	 DWORD PTR $T5[ebp], 3
  0016a	ff 70 f4	 push	 DWORD PTR [eax-12]
  0016d	50		 push	 eax
  0016e	ff 71 f4	 push	 DWORD PTR [ecx-12]
  00171	8d 45 b8	 lea	 eax, DWORD PTR $T6[ebp]
  00174	51		 push	 ecx
  00175	50		 push	 eax
  00176	ff 15 00 00 00
	00		 call	 DWORD PTR __imp_?Concatenate@?$CSimpleStringT@D$00@ATL@@KAXAAV12@PBDH1H@Z
  0017c	83 c4 14	 add	 esp, 20			; 00000014H
; File D:\git\src\IBK\IBK_DRFN\ProjSrc\SrcChartEx\ChartOCX\GraphDraw\PairBarDraw.cpp

; 450  : 		strFullData = strSellData + " / " + strByData;

  0017f	8d 45 b8	 lea	 eax, DWORD PTR $T6[ebp]
  00182	8d 4d 20	 lea	 ecx, DWORD PTR _strFullData$[ebp]
  00185	50		 push	 eax
  00186	ff 15 00 00 00
	00		 call	 DWORD PTR __imp_??4?$CStringT@DV?$StrTraitMFC_DLL@DV?$ChTraitsCRT@D@ATL@@@@@ATL@@QAEAAV01@ABV01@@Z
  0018c	8d 4d b8	 lea	 ecx, DWORD PTR $T6[ebp]
  0018f	ff 15 00 00 00
	00		 call	 DWORD PTR __imp_??1?$CStringT@DV?$StrTraitMFC_DLL@DV?$ChTraitsCRT@D@ATL@@@@@ATL@@QAE@XZ
  00195	8d 4d bc	 lea	 ecx, DWORD PTR $T7[ebp]
  00198	c6 45 fc 02	 mov	 BYTE PTR __$EHRec$[ebp+8], 2
  0019c	ff 15 00 00 00
	00		 call	 DWORD PTR __imp_??1?$CStringT@DV?$StrTraitMFC_DLL@DV?$ChTraitsCRT@D@ATL@@@@@ATL@@QAE@XZ

; 451  : 		strSellData = "";

  001a2	68 00 00 00 00	 push	 OFFSET ??_C@_00CNPNBAHC@@
  001a7	8d 4d 1c	 lea	 ecx, DWORD PTR _strSellData$[ebp]
  001aa	ff 15 00 00 00
	00		 call	 DWORD PTR __imp_??4?$CStringT@DV?$StrTraitMFC_DLL@DV?$ChTraitsCRT@D@ATL@@@@@ATL@@QAEAAV01@PBD@Z

; 452  : 		strByData = "";

  001b0	68 00 00 00 00	 push	 OFFSET ??_C@_00CNPNBAHC@@
  001b5	8d 4d 18	 lea	 ecx, DWORD PTR _strByData$[ebp]
  001b8	ff 15 00 00 00
	00		 call	 DWORD PTR __imp_??4?$CStringT@DV?$StrTraitMFC_DLL@DV?$ChTraitsCRT@D@ATL@@@@@ATL@@QAEAAV01@PBD@Z
$LN2@DrawText_S:

; 453  : 	}
; 454  : 
; 455  : 	// 3. Draw Text
; 456  : 	pDC->SetTextColor( graphColor.GetColor2());

  001be	8b 4d b0	 mov	 ecx, DWORD PTR _graphColor$GSCopy$1$[ebp]
  001c1	8b 33		 mov	 esi, DWORD PTR [ebx]
  001c3	ff 15 00 00 00
	00		 call	 DWORD PTR __imp_?GetColor2@CGraphColor@@QBEKXZ
  001c9	50		 push	 eax
  001ca	8b cb		 mov	 ecx, ebx
  001cc	ff 56 38	 call	 DWORD PTR [esi+56]
; File C:\Program Files (x86)\Microsoft Visual Studio\2019\Community\VC\Tools\MSVC\14.29.30133\atlmfc\include\atltypes.h

; 576  : 	return right - left;

  001cf	8b 45 e8	 mov	 eax, DWORD PTR _rctSell$[ebp+8]
; File D:\git\src\IBK\IBK_DRFN\ProjSrc\SrcChartEx\ChartOCX\GraphDraw\PairBarDraw.cpp

; 457  : 	pDC->DrawText( strSellData,	rctSell,	DT_VCENTER | DT_SINGLELINE | DT_NOCLIP | ( rctSell.Width()	< titleSellSize.cx	? DT_LEFT	: DT_RIGHT));

  001d2	33 c9		 xor	 ecx, ecx
; File C:\Program Files (x86)\Microsoft Visual Studio\2019\Community\VC\Tools\MSVC\14.29.30133\atlmfc\include\atltypes.h

; 576  : 	return right - left;

  001d4	2b 45 e0	 sub	 eax, DWORD PTR _rctSell$[ebp]
; File C:\Program Files (x86)\Microsoft Visual Studio\2019\Community\VC\Tools\MSVC\14.29.30133\atlmfc\include\afxwin1.inl

; 600  : 		return _AFX_FUNCNAME(DrawText)((LPCTSTR)str, (int)str.GetLength(), lpRect, nFormat); }

  001d7	8b 13		 mov	 edx, DWORD PTR [ebx]
; File D:\git\src\IBK\IBK_DRFN\ProjSrc\SrcChartEx\ChartOCX\GraphDraw\PairBarDraw.cpp

; 457  : 	pDC->DrawText( strSellData,	rctSell,	DT_VCENTER | DT_SINGLELINE | DT_NOCLIP | ( rctSell.Width()	< titleSellSize.cx	? DT_LEFT	: DT_RIGHT));

  001d9	3b c7		 cmp	 eax, edi
; File C:\Program Files (x86)\Microsoft Visual Studio\2019\Community\VC\Tools\MSVC\14.29.30133\atlmfc\include\afxwin1.inl

; 600  : 		return _AFX_FUNCNAME(DrawText)((LPCTSTR)str, (int)str.GetLength(), lpRect, nFormat); }

  001db	8d 45 e0	 lea	 eax, DWORD PTR _rctSell$[ebp]
; File D:\git\src\IBK\IBK_DRFN\ProjSrc\SrcChartEx\ChartOCX\GraphDraw\PairBarDraw.cpp

; 457  : 	pDC->DrawText( strSellData,	rctSell,	DT_VCENTER | DT_SINGLELINE | DT_NOCLIP | ( rctSell.Width()	< titleSellSize.cx	? DT_LEFT	: DT_RIGHT));

  001de	0f 9d c1	 setge	 cl
  001e1	8d 0c 4d 24 01
	00 00		 lea	 ecx, DWORD PTR [ecx*2+292]
; File C:\Program Files (x86)\Microsoft Visual Studio\2019\Community\VC\Tools\MSVC\14.29.30133\atlmfc\include\afxwin1.inl

; 600  : 		return _AFX_FUNCNAME(DrawText)((LPCTSTR)str, (int)str.GetLength(), lpRect, nFormat); }

  001e8	51		 push	 ecx
  001e9	50		 push	 eax
  001ea	8b 45 1c	 mov	 eax, DWORD PTR _strSellData$[ebp]
  001ed	8b cb		 mov	 ecx, ebx
  001ef	ff 70 f4	 push	 DWORD PTR [eax-12]
  001f2	50		 push	 eax
  001f3	ff 52 70	 call	 DWORD PTR [edx+112]
; File D:\git\src\IBK\IBK_DRFN\ProjSrc\SrcChartEx\ChartOCX\GraphDraw\PairBarDraw.cpp

; 458  : 	pDC->SetTextColor( graphColor.GetColor4());

  001f6	8b 4d b0	 mov	 ecx, DWORD PTR _graphColor$GSCopy$1$[ebp]
  001f9	8b 33		 mov	 esi, DWORD PTR [ebx]
  001fb	ff 15 00 00 00
	00		 call	 DWORD PTR __imp_?GetColor4@CGraphColor@@QBEKXZ
  00201	50		 push	 eax
  00202	8b cb		 mov	 ecx, ebx
  00204	ff 56 38	 call	 DWORD PTR [esi+56]
; File C:\Program Files (x86)\Microsoft Visual Studio\2019\Community\VC\Tools\MSVC\14.29.30133\atlmfc\include\atltypes.h

; 576  : 	return right - left;

  00207	8b 45 d8	 mov	 eax, DWORD PTR _rctBuy$[ebp+8]
; File D:\git\src\IBK\IBK_DRFN\ProjSrc\SrcChartEx\ChartOCX\GraphDraw\PairBarDraw.cpp

; 459  : 	pDC->DrawText( strByData,	rctBuy,		DT_VCENTER | DT_SINGLELINE | DT_NOCLIP | ( rctBuy.Width()	< titleBySize.cx	? DT_LEFT	: DT_RIGHT));

  0020a	33 c9		 xor	 ecx, ecx
; File C:\Program Files (x86)\Microsoft Visual Studio\2019\Community\VC\Tools\MSVC\14.29.30133\atlmfc\include\atltypes.h

; 576  : 	return right - left;

  0020c	2b 45 d0	 sub	 eax, DWORD PTR _rctBuy$[ebp]
; File D:\git\src\IBK\IBK_DRFN\ProjSrc\SrcChartEx\ChartOCX\GraphDraw\PairBarDraw.cpp

; 459  : 	pDC->DrawText( strByData,	rctBuy,		DT_VCENTER | DT_SINGLELINE | DT_NOCLIP | ( rctBuy.Width()	< titleBySize.cx	? DT_LEFT	: DT_RIGHT));

  0020f	3b 45 a0	 cmp	 eax, DWORD PTR _size$3[ebp]
; File C:\Program Files (x86)\Microsoft Visual Studio\2019\Community\VC\Tools\MSVC\14.29.30133\atlmfc\include\afxwin1.inl

; 600  : 		return _AFX_FUNCNAME(DrawText)((LPCTSTR)str, (int)str.GetLength(), lpRect, nFormat); }

  00212	8d 45 d0	 lea	 eax, DWORD PTR _rctBuy$[ebp]
  00215	8b 13		 mov	 edx, DWORD PTR [ebx]
; File D:\git\src\IBK\IBK_DRFN\ProjSrc\SrcChartEx\ChartOCX\GraphDraw\PairBarDraw.cpp

; 459  : 	pDC->DrawText( strByData,	rctBuy,		DT_VCENTER | DT_SINGLELINE | DT_NOCLIP | ( rctBuy.Width()	< titleBySize.cx	? DT_LEFT	: DT_RIGHT));

  00217	0f 9d c1	 setge	 cl
  0021a	8d 0c 4d 24 01
	00 00		 lea	 ecx, DWORD PTR [ecx*2+292]
; File C:\Program Files (x86)\Microsoft Visual Studio\2019\Community\VC\Tools\MSVC\14.29.30133\atlmfc\include\afxwin1.inl

; 600  : 		return _AFX_FUNCNAME(DrawText)((LPCTSTR)str, (int)str.GetLength(), lpRect, nFormat); }

  00221	51		 push	 ecx
  00222	50		 push	 eax
  00223	8b 45 18	 mov	 eax, DWORD PTR _strByData$[ebp]
  00226	8b cb		 mov	 ecx, ebx
  00228	ff 70 f4	 push	 DWORD PTR [eax-12]
  0022b	50		 push	 eax
  0022c	ff 52 70	 call	 DWORD PTR [edx+112]
; File D:\git\src\IBK\IBK_DRFN\ProjSrc\SrcChartEx\ChartOCX\GraphDraw\PairBarDraw.cpp

; 460  : 	pDC->SetTextColor( graphColor.GetColor6());

  0022f	8b 4d b0	 mov	 ecx, DWORD PTR _graphColor$GSCopy$1$[ebp]
  00232	8b 33		 mov	 esi, DWORD PTR [ebx]
  00234	ff 15 00 00 00
	00		 call	 DWORD PTR __imp_?GetColor6@CGraphColor@@QBEKXZ
  0023a	50		 push	 eax
  0023b	8b cb		 mov	 ecx, ebx
  0023d	ff 56 38	 call	 DWORD PTR [esi+56]
; File C:\Program Files (x86)\Microsoft Visual Studio\2019\Community\VC\Tools\MSVC\14.29.30133\atlmfc\include\atltypes.h

; 576  : 	return right - left;

  00240	8b 45 c8	 mov	 eax, DWORD PTR _rctFull$[ebp+8]
; File D:\git\src\IBK\IBK_DRFN\ProjSrc\SrcChartEx\ChartOCX\GraphDraw\PairBarDraw.cpp

; 461  : 	pDC->DrawText( strFullData,	rctFull,	DT_VCENTER | DT_SINGLELINE | DT_NOCLIP | ( rctFull.Width()	< titleFullSize.cx	? DT_RIGHT	: DT_LEFT));

  00243	33 d2		 xor	 edx, edx
; File C:\Program Files (x86)\Microsoft Visual Studio\2019\Community\VC\Tools\MSVC\14.29.30133\atlmfc\include\atltypes.h

; 576  : 	return right - left;

  00245	2b 45 c0	 sub	 eax, DWORD PTR _rctFull$[ebp]
; File C:\Program Files (x86)\Microsoft Visual Studio\2019\Community\VC\Tools\MSVC\14.29.30133\atlmfc\include\afxwin1.inl

; 600  : 		return _AFX_FUNCNAME(DrawText)((LPCTSTR)str, (int)str.GetLength(), lpRect, nFormat); }

  00248	8b cb		 mov	 ecx, ebx
; File D:\git\src\IBK\IBK_DRFN\ProjSrc\SrcChartEx\ChartOCX\GraphDraw\PairBarDraw.cpp

; 461  : 	pDC->DrawText( strFullData,	rctFull,	DT_VCENTER | DT_SINGLELINE | DT_NOCLIP | ( rctFull.Width()	< titleFullSize.cx	? DT_RIGHT	: DT_LEFT));

  0024a	3b 45 98	 cmp	 eax, DWORD PTR _size$2[ebp]
; File C:\Program Files (x86)\Microsoft Visual Studio\2019\Community\VC\Tools\MSVC\14.29.30133\atlmfc\include\afxwin1.inl

; 600  : 		return _AFX_FUNCNAME(DrawText)((LPCTSTR)str, (int)str.GetLength(), lpRect, nFormat); }

  0024d	8d 45 c0	 lea	 eax, DWORD PTR _rctFull$[ebp]
  00250	8b 33		 mov	 esi, DWORD PTR [ebx]
; File D:\git\src\IBK\IBK_DRFN\ProjSrc\SrcChartEx\ChartOCX\GraphDraw\PairBarDraw.cpp

; 461  : 	pDC->DrawText( strFullData,	rctFull,	DT_VCENTER | DT_SINGLELINE | DT_NOCLIP | ( rctFull.Width()	< titleFullSize.cx	? DT_RIGHT	: DT_LEFT));

  00252	0f 9c c2	 setl	 dl
  00255	8d 14 55 24 01
	00 00		 lea	 edx, DWORD PTR [edx*2+292]
; File C:\Program Files (x86)\Microsoft Visual Studio\2019\Community\VC\Tools\MSVC\14.29.30133\atlmfc\include\afxwin1.inl

; 600  : 		return _AFX_FUNCNAME(DrawText)((LPCTSTR)str, (int)str.GetLength(), lpRect, nFormat); }

  0025c	52		 push	 edx
  0025d	50		 push	 eax
  0025e	8b 45 20	 mov	 eax, DWORD PTR _strFullData$[ebp]
  00261	ff 70 f4	 push	 DWORD PTR [eax-12]
  00264	50		 push	 eax
  00265	ff 56 70	 call	 DWORD PTR [esi+112]
; File D:\git\src\IBK\IBK_DRFN\ProjSrc\SrcChartEx\ChartOCX\GraphDraw\PairBarDraw.cpp

; 462  : }

  00268	8d 4d 18	 lea	 ecx, DWORD PTR _strByData$[ebp]
  0026b	ff 15 00 00 00
	00		 call	 DWORD PTR __imp_??1?$CStringT@DV?$StrTraitMFC_DLL@DV?$ChTraitsCRT@D@ATL@@@@@ATL@@QAE@XZ
  00271	8d 4d 1c	 lea	 ecx, DWORD PTR _strSellData$[ebp]
  00274	ff 15 00 00 00
	00		 call	 DWORD PTR __imp_??1?$CStringT@DV?$StrTraitMFC_DLL@DV?$ChTraitsCRT@D@ATL@@@@@ATL@@QAE@XZ
  0027a	8d 4d 20	 lea	 ecx, DWORD PTR _strFullData$[ebp]
  0027d	ff 15 00 00 00
	00		 call	 DWORD PTR __imp_??1?$CStringT@DV?$StrTraitMFC_DLL@DV?$ChTraitsCRT@D@ATL@@@@@ATL@@QAE@XZ
  00283	8b 4d f4	 mov	 ecx, DWORD PTR __$EHRec$[ebp]
  00286	64 89 0d 00 00
	00 00		 mov	 DWORD PTR fs:0, ecx
  0028d	59		 pop	 ecx
  0028e	5f		 pop	 edi
  0028f	5e		 pop	 esi
  00290	5b		 pop	 ebx
  00291	8b 4d f0	 mov	 ecx, DWORD PTR __$ArrayPad$[ebp]
  00294	33 cd		 xor	 ecx, ebp
  00296	e8 00 00 00 00	 call	 @__security_check_cookie@4
  0029b	8b e5		 mov	 esp, ebp
  0029d	5d		 pop	 ebp
  0029e	c2 24 00	 ret	 36			; 00000024H
_TEXT	ENDS
;	COMDAT text$x
text$x	SEGMENT
__unwindfunclet$?DrawText_SellByHorizontalBar@CPairBarDraw@@IAEXPAVCDC@@ABVCRect@@ABVCPoint@@2V?$CStringT@DV?$StrTraitMFC_DLL@DV?$ChTraitsCRT@D@ATL@@@@@ATL@@33FABVCGraphColor@@@Z$0:
  00000	8d 4d 20	 lea	 ecx, DWORD PTR _strFullData$[ebp]
  00003	ff 25 00 00 00
	00		 jmp	 DWORD PTR __imp_??1?$CStringT@DV?$StrTraitMFC_DLL@DV?$ChTraitsCRT@D@ATL@@@@@ATL@@QAE@XZ
__unwindfunclet$?DrawText_SellByHorizontalBar@CPairBarDraw@@IAEXPAVCDC@@ABVCRect@@ABVCPoint@@2V?$CStringT@DV?$StrTraitMFC_DLL@DV?$ChTraitsCRT@D@ATL@@@@@ATL@@33FABVCGraphColor@@@Z$1:
  00009	8d 4d 1c	 lea	 ecx, DWORD PTR _strSellData$[ebp]
  0000c	ff 25 00 00 00
	00		 jmp	 DWORD PTR __imp_??1?$CStringT@DV?$StrTraitMFC_DLL@DV?$ChTraitsCRT@D@ATL@@@@@ATL@@QAE@XZ
__unwindfunclet$?DrawText_SellByHorizontalBar@CPairBarDraw@@IAEXPAVCDC@@ABVCRect@@ABVCPoint@@2V?$CStringT@DV?$StrTraitMFC_DLL@DV?$ChTraitsCRT@D@ATL@@@@@ATL@@33FABVCGraphColor@@@Z$2:
  00012	8d 4d 18	 lea	 ecx, DWORD PTR _strByData$[ebp]
  00015	ff 25 00 00 00
	00		 jmp	 DWORD PTR __imp_??1?$CStringT@DV?$StrTraitMFC_DLL@DV?$ChTraitsCRT@D@ATL@@@@@ATL@@QAE@XZ
__unwindfunclet$?DrawText_SellByHorizontalBar@CPairBarDraw@@IAEXPAVCDC@@ABVCRect@@ABVCPoint@@2V?$CStringT@DV?$StrTraitMFC_DLL@DV?$ChTraitsCRT@D@ATL@@@@@ATL@@33FABVCGraphColor@@@Z$5:
  0001b	8b 45 b4	 mov	 eax, DWORD PTR $T5[ebp]
  0001e	83 e0 01	 and	 eax, 1
  00021	0f 84 0d 00 00
	00		 je	 $LN54@DrawText_S
  00027	83 65 b4 fe	 and	 DWORD PTR $T5[ebp], -2	; fffffffeH
  0002b	8d 4d bc	 lea	 ecx, DWORD PTR $T7[ebp]
  0002e	ff 25 00 00 00
	00		 jmp	 DWORD PTR __imp_??1?$CStringT@DV?$StrTraitMFC_DLL@DV?$ChTraitsCRT@D@ATL@@@@@ATL@@QAE@XZ
$LN54@DrawText_S:
  00034	c3		 ret	 0
__unwindfunclet$?DrawText_SellByHorizontalBar@CPairBarDraw@@IAEXPAVCDC@@ABVCRect@@ABVCPoint@@2V?$CStringT@DV?$StrTraitMFC_DLL@DV?$ChTraitsCRT@D@ATL@@@@@ATL@@33FABVCGraphColor@@@Z$6:
  00035	8b 45 b4	 mov	 eax, DWORD PTR $T5[ebp]
  00038	83 e0 02	 and	 eax, 2
  0003b	0f 84 0d 00 00
	00		 je	 $LN67@DrawText_S
  00041	83 65 b4 fd	 and	 DWORD PTR $T5[ebp], -3	; fffffffdH
  00045	8d 4d b8	 lea	 ecx, DWORD PTR $T6[ebp]
  00048	ff 25 00 00 00
	00		 jmp	 DWORD PTR __imp_??1?$CStringT@DV?$StrTraitMFC_DLL@DV?$ChTraitsCRT@D@ATL@@@@@ATL@@QAE@XZ
$LN67@DrawText_S:
  0004e	c3		 ret	 0
  0004f	cc		 int	 3
  00050	cc		 int	 3
  00051	cc		 int	 3
  00052	cc		 int	 3
  00053	cc		 int	 3
__ehhandler$?DrawText_SellByHorizontalBar@CPairBarDraw@@IAEXPAVCDC@@ABVCRect@@ABVCPoint@@2V?$CStringT@DV?$StrTraitMFC_DLL@DV?$ChTraitsCRT@D@ATL@@@@@ATL@@33FABVCGraphColor@@@Z:
  00054	90		 npad	 1
  00055	90		 npad	 1
  00056	8b 54 24 08	 mov	 edx, DWORD PTR [esp+8]
  0005a	8d 42 0c	 lea	 eax, DWORD PTR [edx+12]
  0005d	8b 4a 94	 mov	 ecx, DWORD PTR [edx-108]
  00060	33 c8		 xor	 ecx, eax
  00062	e8 00 00 00 00	 call	 @__security_check_cookie@4
  00067	8b 4a fc	 mov	 ecx, DWORD PTR [edx-4]
  0006a	33 c8		 xor	 ecx, eax
  0006c	e8 00 00 00 00	 call	 @__security_check_cookie@4
  00071	b8 00 00 00 00	 mov	 eax, OFFSET __ehfuncinfo$?DrawText_SellByHorizontalBar@CPairBarDraw@@IAEXPAVCDC@@ABVCRect@@ABVCPoint@@2V?$CStringT@DV?$StrTraitMFC_DLL@DV?$ChTraitsCRT@D@ATL@@@@@ATL@@33FABVCGraphColor@@@Z
  00076	e9 00 00 00 00	 jmp	 ___CxxFrameHandler3
text$x	ENDS
?DrawText_SellByHorizontalBar@CPairBarDraw@@IAEXPAVCDC@@ABVCRect@@ABVCPoint@@2V?$CStringT@DV?$StrTraitMFC_DLL@DV?$ChTraitsCRT@D@ATL@@@@@ATL@@33FABVCGraphColor@@@Z ENDP ; CPairBarDraw::DrawText_SellByHorizontalBar
; Function compile flags: /Ogtp
; File D:\git\src\IBK\IBK_DRFN\ProjSrc\SrcChartEx\ChartOCX\GraphDraw\PairBarDraw.cpp
; File C:\Program Files (x86)\Microsoft Visual Studio\2019\Community\VC\Tools\MSVC\14.29.30133\atlmfc\include\atltypes.h
; File D:\git\src\IBK\IBK_DRFN\ProjSrc\SrcChartEx\ChartOCX\GraphDraw\PairBarDraw.cpp
; File C:\Program Files (x86)\Microsoft Visual Studio\2019\Community\VC\Tools\MSVC\14.29.30133\atlmfc\include\atltypes.h
; File D:\git\src\IBK\IBK_DRFN\ProjSrc\SrcChartEx\ChartOCX\GraphDraw\PairBarDraw.cpp
; File C:\Program Files (x86)\Microsoft Visual Studio\2019\Community\VC\Tools\MSVC\14.29.30133\atlmfc\include\atltypes.h
; File D:\git\src\IBK\IBK_DRFN\ProjSrc\SrcChartEx\ChartOCX\GraphDraw\PairBarDraw.cpp
; File C:\Program Files (x86)\Microsoft Visual Studio\2019\Community\VC\Tools\MSVC\14.29.30133\atlmfc\include\atltypes.h
; File D:\git\src\IBK\IBK_DRFN\ProjSrc\SrcChartEx\ChartOCX\GraphDraw\PairBarDraw.cpp
; File C:\Program Files (x86)\Microsoft Visual Studio\2019\Community\VC\Tools\MSVC\14.29.30133\atlmfc\include\atltypes.h
; File D:\git\src\IBK\IBK_DRFN\ProjSrc\SrcChartEx\ChartOCX\GraphDraw\PairBarDraw.cpp
; File C:\Program Files (x86)\Microsoft Visual Studio\2019\Community\VC\Tools\MSVC\14.29.30133\atlmfc\include\atltypes.h
; File D:\git\src\IBK\IBK_DRFN\ProjSrc\SrcChartEx\ChartOCX\GraphDraw\PairBarDraw.cpp
; File C:\Program Files (x86)\Microsoft Visual Studio\2019\Community\VC\Tools\MSVC\14.29.30133\atlmfc\include\atltypes.h
; File D:\git\src\IBK\IBK_DRFN\ProjSrc\SrcChartEx\ChartOCX\GraphDraw\PairBarDraw.cpp
; File C:\Program Files (x86)\Microsoft Visual Studio\2019\Community\VC\Tools\MSVC\14.29.30133\atlmfc\include\atltypes.h
; File D:\git\src\IBK\IBK_DRFN\ProjSrc\SrcChartEx\ChartOCX\GraphDraw\PairBarDraw.cpp
; File C:\Program Files (x86)\Microsoft Visual Studio\2019\Community\VC\Tools\MSVC\14.29.30133\atlmfc\include\atltypes.h
; File D:\git\src\IBK\IBK_DRFN\ProjSrc\SrcChartEx\ChartOCX\GraphDraw\PairBarDraw.cpp
; File C:\Program Files (x86)\Microsoft Visual Studio\2019\Community\VC\Tools\MSVC\14.29.30133\atlmfc\include\atltypes.h
; File D:\git\src\IBK\IBK_DRFN\ProjSrc\SrcChartEx\ChartOCX\GraphDraw\PairBarDraw.cpp
;	COMDAT ?DrawBar_ByHorizontalBar@CPairBarDraw@@IAEXPAVCDC@@ABVCGraphDrawStyle@@ABVCRect@@H_NAAVCPoint@@4@Z
_TEXT	SEGMENT
_BybarRect$1 = -16					; size = 16
_BybarRect$2 = -16					; size = 16
_pDC$ = 8						; size = 4
_drawStyle$ = 12					; size = 4
_graphRegion$ = 16					; size = 4
_nBarWidth$ = 20					; size = 4
_bInvert$ = 24						; size = 1
_ByDataPt$ = 28						; size = 4
_SellDataPt$ = 32					; size = 4
?DrawBar_ByHorizontalBar@CPairBarDraw@@IAEXPAVCDC@@ABVCGraphDrawStyle@@ABVCRect@@H_NAAVCPoint@@4@Z PROC ; CPairBarDraw::DrawBar_ByHorizontalBar, COMDAT
; _this$ = ecx

; 380  : {

  00000	55		 push	 ebp
  00001	8b ec		 mov	 ebp, esp

; 381  : 	switch( drawStyle.GetGraphBarDrawStyle())

  00003	8b 45 0c	 mov	 eax, DWORD PTR _drawStyle$[ebp]
  00006	83 ec 10	 sub	 esp, 16			; 00000010H
  00009	8b 00		 mov	 eax, DWORD PTR [eax]
  0000b	53		 push	 ebx
  0000c	8b d9		 mov	 ebx, ecx
  0000e	56		 push	 esi
  0000f	57		 push	 edi
  00010	85 c0		 test	 eax, eax
  00012	74 54		 je	 SHORT $LN4@DrawBar_By
  00014	83 f8 04	 cmp	 eax, 4
  00017	0f 85 a7 00 00
	00		 jne	 $LN6@DrawBar_By
; File C:\Program Files (x86)\Microsoft Visual Studio\2019\Community\VC\Tools\MSVC\14.29.30133\atlmfc\include\atltypes.h

; 540  : 	left = l;

  0001d	8b 45 10	 mov	 eax, DWORD PTR _graphRegion$[ebp]
; File D:\git\src\IBK\IBK_DRFN\ProjSrc\SrcChartEx\ChartOCX\GraphDraw\PairBarDraw.cpp

; 401  : 			CRect BybarRect(graphRegion.left, ByDataPt.y + 1 + nBarWidth / 2 , ByDataPt.x, (ByDataPt.y + nBarWidth));

  00020	8b 4d 1c	 mov	 ecx, DWORD PTR _ByDataPt$[ebp]
  00023	8b 75 14	 mov	 esi, DWORD PTR _nBarWidth$[ebp]
; File C:\Program Files (x86)\Microsoft Visual Studio\2019\Community\VC\Tools\MSVC\14.29.30133\atlmfc\include\atltypes.h

; 540  : 	left = l;

  00026	8b 00		 mov	 eax, DWORD PTR [eax]
; File D:\git\src\IBK\IBK_DRFN\ProjSrc\SrcChartEx\ChartOCX\GraphDraw\PairBarDraw.cpp

; 401  : 			CRect BybarRect(graphRegion.left, ByDataPt.y + 1 + nBarWidth / 2 , ByDataPt.x, (ByDataPt.y + nBarWidth));

  00028	8b 79 04	 mov	 edi, DWORD PTR [ecx+4]
; File C:\Program Files (x86)\Microsoft Visual Studio\2019\Community\VC\Tools\MSVC\14.29.30133\atlmfc\include\atltypes.h

; 542  : 	right = r;

  0002b	8b 09		 mov	 ecx, DWORD PTR [ecx]
  0002d	89 45 f0	 mov	 DWORD PTR _BybarRect$1[ebp], eax
; File D:\git\src\IBK\IBK_DRFN\ProjSrc\SrcChartEx\ChartOCX\GraphDraw\PairBarDraw.cpp

; 401  : 			CRect BybarRect(graphRegion.left, ByDataPt.y + 1 + nBarWidth / 2 , ByDataPt.x, (ByDataPt.y + nBarWidth));

  00030	8b c6		 mov	 eax, esi
  00032	99		 cdq
  00033	2b c2		 sub	 eax, edx
; File C:\Program Files (x86)\Microsoft Visual Studio\2019\Community\VC\Tools\MSVC\14.29.30133\atlmfc\include\atltypes.h

; 542  : 	right = r;

  00035	89 4d f8	 mov	 DWORD PTR _BybarRect$1[ebp+8], ecx
; File D:\git\src\IBK\IBK_DRFN\ProjSrc\SrcChartEx\ChartOCX\GraphDraw\PairBarDraw.cpp

; 401  : 			CRect BybarRect(graphRegion.left, ByDataPt.y + 1 + nBarWidth / 2 , ByDataPt.x, (ByDataPt.y + nBarWidth));

  00038	d1 f8		 sar	 eax, 1
  0003a	8d 57 01	 lea	 edx, DWORD PTR [edi+1]
  0003d	03 d0		 add	 edx, eax
  0003f	8d 04 37	 lea	 eax, DWORD PTR [edi+esi]
; File C:\Program Files (x86)\Microsoft Visual Studio\2019\Community\VC\Tools\MSVC\14.29.30133\atlmfc\include\atltypes.h

; 543  : 	bottom = b;

  00042	89 45 fc	 mov	 DWORD PTR _BybarRect$1[ebp+12], eax
  00045	2b c2		 sub	 eax, edx
  00047	89 55 f4	 mov	 DWORD PTR _BybarRect$1[ebp+4], edx
; File D:\git\src\IBK\IBK_DRFN\ProjSrc\SrcChartEx\ChartOCX\GraphDraw\PairBarDraw.cpp

; 405  : 			if(BybarRect.Height() <= 1)

  0004a	83 f8 01	 cmp	 eax, 1
  0004d	7f 5f		 jg	 SHORT $LN5@DrawBar_By

; 406  : 			{
; 407  : 				CDraw::DrawLine(pDC, CPoint(BybarRect.left, BybarRect.top), CPoint(BybarRect.right, BybarRect.top));

  0004f	52		 push	 edx
  00050	51		 push	 ecx
  00051	52		 push	 edx
  00052	ff 75 f0	 push	 DWORD PTR _BybarRect$1[ebp]

; 408  : 			}
; 409  : 			else
; 410  : 			{
; 411  : 				CDraw::DrawRectangle(pDC, BybarRect);
; 412  : 			}
; 413  : 			break;
; 414  : 		}
; 415  : 	}
; 416  : 
; 417  : //	if(bInvert)
; 418  : //	{
; 419  : //		InvertBar(graphRegion, barRect);
; 420  : //		dataPt = CPoint(barRect.right, barRect.CenterPoint().y);
; 421  : //	}
; 422  : 
; 423  : 	// -> 
; 424  : /*	else if(drawStyle.GetGraphBarDrawStyle() == CGraphBaseData::DotBar_Draw)
; 425  : 	{
; 426  : 		if(barRect.Height() / 2 < 1)
; 427  : 			DrawDotBar(pDC, CPoint(dataPt.x, dataPt.y), 1);
; 428  : 		else
; 429  : 			DrawDotBar(pDC, CPoint(dataPt.x, dataPt.y), nBarWidth);
; 430  : 	}
; 431  : */
; 432  : }

  00055	8b cb		 mov	 ecx, ebx
  00057	ff 75 08	 push	 DWORD PTR _pDC$[ebp]
  0005a	e8 00 00 00 00	 call	 ?DrawLine@CDraw@@IAEXPAVCDC@@UtagPOINT@@1@Z ; CDraw::DrawLine
  0005f	5f		 pop	 edi
  00060	5e		 pop	 esi
  00061	5b		 pop	 ebx
  00062	8b e5		 mov	 esp, ebp
  00064	5d		 pop	 ebp
  00065	c2 1c 00	 ret	 28			; 0000001cH
$LN4@DrawBar_By:
; File C:\Program Files (x86)\Microsoft Visual Studio\2019\Community\VC\Tools\MSVC\14.29.30133\atlmfc\include\atltypes.h

; 540  : 	left = l;

  00068	8b 45 20	 mov	 eax, DWORD PTR _SellDataPt$[ebp]
  0006b	8b 38		 mov	 edi, DWORD PTR [eax]
; File D:\git\src\IBK\IBK_DRFN\ProjSrc\SrcChartEx\ChartOCX\GraphDraw\PairBarDraw.cpp

; 385  : 			CRect BybarRect( SellDataPt.x, ByDataPt.y + 1, SellDataPt.x + ( ByDataPt.x - graphRegion.left), (ByDataPt.y + nBarWidth));

  0006d	8b 45 1c	 mov	 eax, DWORD PTR _ByDataPt$[ebp]
; File C:\Program Files (x86)\Microsoft Visual Studio\2019\Community\VC\Tools\MSVC\14.29.30133\atlmfc\include\atltypes.h

; 540  : 	left = l;

  00070	89 7d f0	 mov	 DWORD PTR _BybarRect$2[ebp], edi
; File D:\git\src\IBK\IBK_DRFN\ProjSrc\SrcChartEx\ChartOCX\GraphDraw\PairBarDraw.cpp

; 385  : 			CRect BybarRect( SellDataPt.x, ByDataPt.y + 1, SellDataPt.x + ( ByDataPt.x - graphRegion.left), (ByDataPt.y + nBarWidth));

  00073	8b 48 04	 mov	 ecx, DWORD PTR [eax+4]
; File C:\Program Files (x86)\Microsoft Visual Studio\2019\Community\VC\Tools\MSVC\14.29.30133\atlmfc\include\atltypes.h

; 542  : 	right = r;

  00076	8b 10		 mov	 edx, DWORD PTR [eax]
  00078	8b 45 10	 mov	 eax, DWORD PTR _graphRegion$[ebp]
; File D:\git\src\IBK\IBK_DRFN\ProjSrc\SrcChartEx\ChartOCX\GraphDraw\PairBarDraw.cpp

; 385  : 			CRect BybarRect( SellDataPt.x, ByDataPt.y + 1, SellDataPt.x + ( ByDataPt.x - graphRegion.left), (ByDataPt.y + nBarWidth));

  0007b	8d 71 01	 lea	 esi, DWORD PTR [ecx+1]
; File C:\Program Files (x86)\Microsoft Visual Studio\2019\Community\VC\Tools\MSVC\14.29.30133\atlmfc\include\atltypes.h

; 541  : 	top = t;

  0007e	89 75 f4	 mov	 DWORD PTR _BybarRect$2[ebp+4], esi

; 542  : 	right = r;

  00081	2b 10		 sub	 edx, DWORD PTR [eax]
; File D:\git\src\IBK\IBK_DRFN\ProjSrc\SrcChartEx\ChartOCX\GraphDraw\PairBarDraw.cpp

; 385  : 			CRect BybarRect( SellDataPt.x, ByDataPt.y + 1, SellDataPt.x + ( ByDataPt.x - graphRegion.left), (ByDataPt.y + nBarWidth));

  00083	8b 45 14	 mov	 eax, DWORD PTR _nBarWidth$[ebp]
  00086	03 d7		 add	 edx, edi
  00088	03 c1		 add	 eax, ecx
; File C:\Program Files (x86)\Microsoft Visual Studio\2019\Community\VC\Tools\MSVC\14.29.30133\atlmfc\include\atltypes.h

; 542  : 	right = r;

  0008a	89 55 f8	 mov	 DWORD PTR _BybarRect$2[ebp+8], edx

; 543  : 	bottom = b;

  0008d	89 45 fc	 mov	 DWORD PTR _BybarRect$2[ebp+12], eax
  00090	2b c6		 sub	 eax, esi
; File D:\git\src\IBK\IBK_DRFN\ProjSrc\SrcChartEx\ChartOCX\GraphDraw\PairBarDraw.cpp

; 389  : 			if(BybarRect.Height() <= 1)

  00092	83 f8 01	 cmp	 eax, 1
  00095	7f 17		 jg	 SHORT $LN5@DrawBar_By

; 390  : 			{
; 391  : 				CDraw::DrawLine(pDC, CPoint(BybarRect.left, BybarRect.top), CPoint(BybarRect.right, BybarRect.top));

  00097	56		 push	 esi
  00098	52		 push	 edx
  00099	56		 push	 esi
  0009a	57		 push	 edi

; 408  : 			}
; 409  : 			else
; 410  : 			{
; 411  : 				CDraw::DrawRectangle(pDC, BybarRect);
; 412  : 			}
; 413  : 			break;
; 414  : 		}
; 415  : 	}
; 416  : 
; 417  : //	if(bInvert)
; 418  : //	{
; 419  : //		InvertBar(graphRegion, barRect);
; 420  : //		dataPt = CPoint(barRect.right, barRect.CenterPoint().y);
; 421  : //	}
; 422  : 
; 423  : 	// -> 
; 424  : /*	else if(drawStyle.GetGraphBarDrawStyle() == CGraphBaseData::DotBar_Draw)
; 425  : 	{
; 426  : 		if(barRect.Height() / 2 < 1)
; 427  : 			DrawDotBar(pDC, CPoint(dataPt.x, dataPt.y), 1);
; 428  : 		else
; 429  : 			DrawDotBar(pDC, CPoint(dataPt.x, dataPt.y), nBarWidth);
; 430  : 	}
; 431  : */
; 432  : }

  0009b	ff 75 08	 push	 DWORD PTR _pDC$[ebp]
  0009e	8b cb		 mov	 ecx, ebx
  000a0	e8 00 00 00 00	 call	 ?DrawLine@CDraw@@IAEXPAVCDC@@UtagPOINT@@1@Z ; CDraw::DrawLine
  000a5	5f		 pop	 edi
  000a6	5e		 pop	 esi
  000a7	5b		 pop	 ebx
  000a8	8b e5		 mov	 esp, ebp
  000aa	5d		 pop	 ebp
  000ab	c2 1c 00	 ret	 28			; 0000001cH
$LN5@DrawBar_By:
  000ae	0f 10 45 f0	 movups	 xmm0, XMMWORD PTR _BybarRect$2[ebp]
  000b2	83 ec 10	 sub	 esp, 16			; 00000010H
  000b5	8b cb		 mov	 ecx, ebx
  000b7	8b c4		 mov	 eax, esp
  000b9	ff 75 08	 push	 DWORD PTR _pDC$[ebp]
  000bc	0f 11 00	 movups	 XMMWORD PTR [eax], xmm0
  000bf	e8 00 00 00 00	 call	 ?DrawRectangle@CDraw@@IAEXPAVCDC@@VCRect@@@Z ; CDraw::DrawRectangle
$LN6@DrawBar_By:
  000c4	5f		 pop	 edi
  000c5	5e		 pop	 esi
  000c6	5b		 pop	 ebx
  000c7	8b e5		 mov	 esp, ebp
  000c9	5d		 pop	 ebp
  000ca	c2 1c 00	 ret	 28			; 0000001cH
?DrawBar_ByHorizontalBar@CPairBarDraw@@IAEXPAVCDC@@ABVCGraphDrawStyle@@ABVCRect@@H_NAAVCPoint@@4@Z ENDP ; CPairBarDraw::DrawBar_ByHorizontalBar
_TEXT	ENDS
; Function compile flags: /Ogtp
; File D:\git\src\IBK\IBK_DRFN\ProjSrc\SrcChartEx\ChartOCX\GraphDraw\PairBarDraw.cpp
; File C:\Program Files (x86)\Microsoft Visual Studio\2019\Community\VC\Tools\MSVC\14.29.30133\atlmfc\include\atltypes.h
; File D:\git\src\IBK\IBK_DRFN\ProjSrc\SrcChartEx\ChartOCX\GraphDraw\PairBarDraw.cpp
; File C:\Program Files (x86)\Microsoft Visual Studio\2019\Community\VC\Tools\MSVC\14.29.30133\atlmfc\include\atltypes.h
; File D:\git\src\IBK\IBK_DRFN\ProjSrc\SrcChartEx\ChartOCX\GraphDraw\PairBarDraw.cpp
; File C:\Program Files (x86)\Microsoft Visual Studio\2019\Community\VC\Tools\MSVC\14.29.30133\atlmfc\include\atltypes.h
; File D:\git\src\IBK\IBK_DRFN\ProjSrc\SrcChartEx\ChartOCX\GraphDraw\PairBarDraw.cpp
; File C:\Program Files (x86)\Microsoft Visual Studio\2019\Community\VC\Tools\MSVC\14.29.30133\atlmfc\include\atltypes.h
; File D:\git\src\IBK\IBK_DRFN\ProjSrc\SrcChartEx\ChartOCX\GraphDraw\PairBarDraw.cpp
; File C:\Program Files (x86)\Microsoft Visual Studio\2019\Community\VC\Tools\MSVC\14.29.30133\atlmfc\include\atltypes.h
; File D:\git\src\IBK\IBK_DRFN\ProjSrc\SrcChartEx\ChartOCX\GraphDraw\PairBarDraw.cpp
; File C:\Program Files (x86)\Microsoft Visual Studio\2019\Community\VC\Tools\MSVC\14.29.30133\atlmfc\include\atltypes.h
; File D:\git\src\IBK\IBK_DRFN\ProjSrc\SrcChartEx\ChartOCX\GraphDraw\PairBarDraw.cpp
; File C:\Program Files (x86)\Microsoft Visual Studio\2019\Community\VC\Tools\MSVC\14.29.30133\atlmfc\include\atltypes.h
; File D:\git\src\IBK\IBK_DRFN\ProjSrc\SrcChartEx\ChartOCX\GraphDraw\PairBarDraw.cpp
; File C:\Program Files (x86)\Microsoft Visual Studio\2019\Community\VC\Tools\MSVC\14.29.30133\atlmfc\include\atltypes.h
; File D:\git\src\IBK\IBK_DRFN\ProjSrc\SrcChartEx\ChartOCX\GraphDraw\PairBarDraw.cpp
; File C:\Program Files (x86)\Microsoft Visual Studio\2019\Community\VC\Tools\MSVC\14.29.30133\atlmfc\include\atltypes.h
; File D:\git\src\IBK\IBK_DRFN\ProjSrc\SrcChartEx\ChartOCX\GraphDraw\PairBarDraw.cpp
;	COMDAT ?DrawBar_SellHorizontalBar@CPairBarDraw@@IAEXPAVCDC@@ABVCGraphDrawStyle@@ABVCRect@@H_NAAVCPoint@@4@Z
_TEXT	SEGMENT
_SellbarRect$1 = -16					; size = 16
_SellbarRect$2 = -16					; size = 16
_pDC$ = 8						; size = 4
_drawStyle$ = 12					; size = 4
_graphRegion$ = 16					; size = 4
_nBarWidth$ = 20					; size = 4
_bInvert$ = 24						; size = 1
_ByDataPt$ = 28						; size = 4
_SellDataPt$ = 32					; size = 4
?DrawBar_SellHorizontalBar@CPairBarDraw@@IAEXPAVCDC@@ABVCGraphDrawStyle@@ABVCRect@@H_NAAVCPoint@@4@Z PROC ; CPairBarDraw::DrawBar_SellHorizontalBar, COMDAT
; _this$ = ecx

; 324  : {

  00000	55		 push	 ebp
  00001	8b ec		 mov	 ebp, esp

; 325  : 	switch( drawStyle.GetGraphBarDrawStyle())

  00003	8b 45 0c	 mov	 eax, DWORD PTR _drawStyle$[ebp]
  00006	83 ec 10	 sub	 esp, 16			; 00000010H
  00009	8b 00		 mov	 eax, DWORD PTR [eax]
  0000b	53		 push	 ebx
  0000c	56		 push	 esi
  0000d	8b f1		 mov	 esi, ecx
  0000f	57		 push	 edi
  00010	85 c0		 test	 eax, eax
  00012	74 4d		 je	 SHORT $LN4@DrawBar_Se
  00014	83 f8 04	 cmp	 eax, 4
  00017	0f 85 97 00 00
	00		 jne	 $LN6@DrawBar_Se
; File C:\Program Files (x86)\Microsoft Visual Studio\2019\Community\VC\Tools\MSVC\14.29.30133\atlmfc\include\atltypes.h

; 540  : 	left = l;

  0001d	8b 45 10	 mov	 eax, DWORD PTR _graphRegion$[ebp]
  00020	8b 00		 mov	 eax, DWORD PTR [eax]
  00022	89 45 f0	 mov	 DWORD PTR _SellbarRect$1[ebp], eax
; File D:\git\src\IBK\IBK_DRFN\ProjSrc\SrcChartEx\ChartOCX\GraphDraw\PairBarDraw.cpp

; 345  : 			CRect SellbarRect(graphRegion.left, SellDataPt.y + 1  , SellDataPt.x, ( SellDataPt.y + nBarWidth / 2));

  00025	8b 45 20	 mov	 eax, DWORD PTR _SellDataPt$[ebp]
  00028	8b 48 04	 mov	 ecx, DWORD PTR [eax+4]
; File C:\Program Files (x86)\Microsoft Visual Studio\2019\Community\VC\Tools\MSVC\14.29.30133\atlmfc\include\atltypes.h

; 542  : 	right = r;

  0002b	8b 18		 mov	 ebx, DWORD PTR [eax]
; File D:\git\src\IBK\IBK_DRFN\ProjSrc\SrcChartEx\ChartOCX\GraphDraw\PairBarDraw.cpp

; 345  : 			CRect SellbarRect(graphRegion.left, SellDataPt.y + 1  , SellDataPt.x, ( SellDataPt.y + nBarWidth / 2));

  0002d	8b 45 14	 mov	 eax, DWORD PTR _nBarWidth$[ebp]
  00030	99		 cdq
  00031	2b c2		 sub	 eax, edx
; File C:\Program Files (x86)\Microsoft Visual Studio\2019\Community\VC\Tools\MSVC\14.29.30133\atlmfc\include\atltypes.h

; 542  : 	right = r;

  00033	89 5d f8	 mov	 DWORD PTR _SellbarRect$1[ebp+8], ebx
; File D:\git\src\IBK\IBK_DRFN\ProjSrc\SrcChartEx\ChartOCX\GraphDraw\PairBarDraw.cpp

; 345  : 			CRect SellbarRect(graphRegion.left, SellDataPt.y + 1  , SellDataPt.x, ( SellDataPt.y + nBarWidth / 2));

  00036	d1 f8		 sar	 eax, 1
  00038	8d 79 01	 lea	 edi, DWORD PTR [ecx+1]
  0003b	03 c1		 add	 eax, ecx
; File C:\Program Files (x86)\Microsoft Visual Studio\2019\Community\VC\Tools\MSVC\14.29.30133\atlmfc\include\atltypes.h

; 541  : 	top = t;

  0003d	89 7d f4	 mov	 DWORD PTR _SellbarRect$1[ebp+4], edi

; 543  : 	bottom = b;

  00040	89 45 fc	 mov	 DWORD PTR _SellbarRect$1[ebp+12], eax
; File D:\git\src\IBK\IBK_DRFN\ProjSrc\SrcChartEx\ChartOCX\GraphDraw\PairBarDraw.cpp

; 349  : 			if(SellbarRect.Height() <= 1)

  00043	8b ce		 mov	 ecx, esi
; File C:\Program Files (x86)\Microsoft Visual Studio\2019\Community\VC\Tools\MSVC\14.29.30133\atlmfc\include\atltypes.h

; 543  : 	bottom = b;

  00045	2b c7		 sub	 eax, edi
; File D:\git\src\IBK\IBK_DRFN\ProjSrc\SrcChartEx\ChartOCX\GraphDraw\PairBarDraw.cpp

; 349  : 			if(SellbarRect.Height() <= 1)

  00047	83 f8 01	 cmp	 eax, 1
  0004a	7f 54		 jg	 SHORT $LN8@DrawBar_Se

; 350  : 			{
; 351  : 				CDraw::DrawLine(pDC, CPoint(SellbarRect.right, SellbarRect.top), CPoint(SellbarRect.right, SellbarRect.top));

  0004c	57		 push	 edi
  0004d	53		 push	 ebx
  0004e	57		 push	 edi
  0004f	53		 push	 ebx
  00050	ff 75 08	 push	 DWORD PTR _pDC$[ebp]
  00053	e8 00 00 00 00	 call	 ?DrawLine@CDraw@@IAEXPAVCDC@@UtagPOINT@@1@Z ; CDraw::DrawLine

; 352  : 			}
; 353  : 			else
; 354  : 			{
; 355  : 				CDraw::DrawRectangle(pDC, SellbarRect);
; 356  : 			}
; 357  : 			break;
; 358  : 		}
; 359  : 	}
; 360  : 
; 361  : //	if(bInvert)
; 362  : //	{
; 363  : //		InvertBar(graphRegion, barRect);
; 364  : //		dataPt = CPoint(barRect.right, barRect.CenterPoint().y);
; 365  : //	}
; 366  : 
; 367  : 	// -> 
; 368  : /*	else if(drawStyle.GetGraphBarDrawStyle() == CGraphBaseData::DotBar_Draw)
; 369  : 	{
; 370  : 		if(barRect.Height() / 2 < 1)
; 371  : 			DrawDotBar(pDC, CPoint(dataPt.x, dataPt.y), 1);
; 372  : 		else
; 373  : 			DrawDotBar(pDC, CPoint(dataPt.x, dataPt.y), nBarWidth);
; 374  : 	}
; 375  : */
; 376  : }

  00058	5f		 pop	 edi
  00059	5e		 pop	 esi
  0005a	5b		 pop	 ebx
  0005b	8b e5		 mov	 esp, ebp
  0005d	5d		 pop	 ebp
  0005e	c2 1c 00	 ret	 28			; 0000001cH
$LN4@DrawBar_Se:
; File C:\Program Files (x86)\Microsoft Visual Studio\2019\Community\VC\Tools\MSVC\14.29.30133\atlmfc\include\atltypes.h

; 540  : 	left = l;

  00061	8b 45 10	 mov	 eax, DWORD PTR _graphRegion$[ebp]
  00064	8b 00		 mov	 eax, DWORD PTR [eax]
  00066	89 45 f0	 mov	 DWORD PTR _SellbarRect$2[ebp], eax
; File D:\git\src\IBK\IBK_DRFN\ProjSrc\SrcChartEx\ChartOCX\GraphDraw\PairBarDraw.cpp

; 329  : 			CRect SellbarRect(graphRegion.left, SellDataPt.y + 1  , SellDataPt.x, SellDataPt.y + nBarWidth);

  00069	8b 45 20	 mov	 eax, DWORD PTR _SellDataPt$[ebp]
  0006c	8b 48 04	 mov	 ecx, DWORD PTR [eax+4]
; File C:\Program Files (x86)\Microsoft Visual Studio\2019\Community\VC\Tools\MSVC\14.29.30133\atlmfc\include\atltypes.h

; 542  : 	right = r;

  0006f	8b 38		 mov	 edi, DWORD PTR [eax]
; File D:\git\src\IBK\IBK_DRFN\ProjSrc\SrcChartEx\ChartOCX\GraphDraw\PairBarDraw.cpp

; 329  : 			CRect SellbarRect(graphRegion.left, SellDataPt.y + 1  , SellDataPt.x, SellDataPt.y + nBarWidth);

  00071	8b 45 14	 mov	 eax, DWORD PTR _nBarWidth$[ebp]
  00074	03 c1		 add	 eax, ecx
; File C:\Program Files (x86)\Microsoft Visual Studio\2019\Community\VC\Tools\MSVC\14.29.30133\atlmfc\include\atltypes.h

; 542  : 	right = r;

  00076	89 7d f8	 mov	 DWORD PTR _SellbarRect$2[ebp+8], edi
; File D:\git\src\IBK\IBK_DRFN\ProjSrc\SrcChartEx\ChartOCX\GraphDraw\PairBarDraw.cpp

; 329  : 			CRect SellbarRect(graphRegion.left, SellDataPt.y + 1  , SellDataPt.x, SellDataPt.y + nBarWidth);

  00079	8d 51 01	 lea	 edx, DWORD PTR [ecx+1]
; File C:\Program Files (x86)\Microsoft Visual Studio\2019\Community\VC\Tools\MSVC\14.29.30133\atlmfc\include\atltypes.h

; 543  : 	bottom = b;

  0007c	89 45 fc	 mov	 DWORD PTR _SellbarRect$2[ebp+12], eax
  0007f	2b c2		 sub	 eax, edx
  00081	89 55 f4	 mov	 DWORD PTR _SellbarRect$2[ebp+4], edx
; File D:\git\src\IBK\IBK_DRFN\ProjSrc\SrcChartEx\ChartOCX\GraphDraw\PairBarDraw.cpp

; 333  : 			if(SellbarRect.Height() <= 1)

  00084	8b ce		 mov	 ecx, esi
  00086	83 f8 01	 cmp	 eax, 1
  00089	7f 15		 jg	 SHORT $LN8@DrawBar_Se

; 334  : 			{
; 335  : 				CDraw::DrawLine(pDC, CPoint(SellbarRect.right, SellbarRect.top), CPoint(SellbarRect.right, SellbarRect.top));

  0008b	52		 push	 edx
  0008c	57		 push	 edi
  0008d	52		 push	 edx
  0008e	57		 push	 edi
  0008f	ff 75 08	 push	 DWORD PTR _pDC$[ebp]
  00092	e8 00 00 00 00	 call	 ?DrawLine@CDraw@@IAEXPAVCDC@@UtagPOINT@@1@Z ; CDraw::DrawLine

; 352  : 			}
; 353  : 			else
; 354  : 			{
; 355  : 				CDraw::DrawRectangle(pDC, SellbarRect);
; 356  : 			}
; 357  : 			break;
; 358  : 		}
; 359  : 	}
; 360  : 
; 361  : //	if(bInvert)
; 362  : //	{
; 363  : //		InvertBar(graphRegion, barRect);
; 364  : //		dataPt = CPoint(barRect.right, barRect.CenterPoint().y);
; 365  : //	}
; 366  : 
; 367  : 	// -> 
; 368  : /*	else if(drawStyle.GetGraphBarDrawStyle() == CGraphBaseData::DotBar_Draw)
; 369  : 	{
; 370  : 		if(barRect.Height() / 2 < 1)
; 371  : 			DrawDotBar(pDC, CPoint(dataPt.x, dataPt.y), 1);
; 372  : 		else
; 373  : 			DrawDotBar(pDC, CPoint(dataPt.x, dataPt.y), nBarWidth);
; 374  : 	}
; 375  : */
; 376  : }

  00097	5f		 pop	 edi
  00098	5e		 pop	 esi
  00099	5b		 pop	 ebx
  0009a	8b e5		 mov	 esp, ebp
  0009c	5d		 pop	 ebp
  0009d	c2 1c 00	 ret	 28			; 0000001cH
$LN8@DrawBar_Se:
  000a0	0f 10 45 f0	 movups	 xmm0, XMMWORD PTR _SellbarRect$2[ebp]
  000a4	83 ec 10	 sub	 esp, 16			; 00000010H
  000a7	8b c4		 mov	 eax, esp
  000a9	ff 75 08	 push	 DWORD PTR _pDC$[ebp]
  000ac	0f 11 00	 movups	 XMMWORD PTR [eax], xmm0
  000af	e8 00 00 00 00	 call	 ?DrawRectangle@CDraw@@IAEXPAVCDC@@VCRect@@@Z ; CDraw::DrawRectangle
$LN6@DrawBar_Se:
  000b4	5f		 pop	 edi
  000b5	5e		 pop	 esi
  000b6	5b		 pop	 ebx
  000b7	8b e5		 mov	 esp, ebp
  000b9	5d		 pop	 ebp
  000ba	c2 1c 00	 ret	 28			; 0000001cH
?DrawBar_SellHorizontalBar@CPairBarDraw@@IAEXPAVCDC@@ABVCGraphDrawStyle@@ABVCRect@@H_NAAVCPoint@@4@Z ENDP ; CPairBarDraw::DrawBar_SellHorizontalBar
_TEXT	ENDS
; Function compile flags: /Ogtp
; File D:\git\src\IBK\IBK_DRFN\ProjSrc\SrcChartEx\ChartOCX\GraphDraw\PairBarDraw.cpp
; File C:\Program Files (x86)\Microsoft Visual Studio\2019\Community\VC\Tools\MSVC\14.29.30133\atlmfc\include\afxtempl.h
; File D:\git\src\IBK\IBK_DRFN\ProjSrc\SrcChartEx\ChartOCX\GraphDraw\PairBarDraw.cpp
; File C:\Program Files (x86)\Microsoft Visual Studio\2019\Community\VC\Tools\MSVC\14.29.30133\atlmfc\include\afxtempl.h
; File D:\git\src\IBK\IBK_DRFN\ProjSrc\SrcChartEx\ChartOCX\GraphDraw\PairBarDraw.cpp
; File C:\Program Files (x86)\Microsoft Visual Studio\2019\Community\VC\Tools\MSVC\14.29.30133\atlmfc\include\afxtempl.h
; File D:\git\src\IBK\IBK_DRFN\ProjSrc\SrcChartEx\ChartOCX\GraphDraw\PairBarDraw.cpp
; File C:\Program Files (x86)\Microsoft Visual Studio\2019\Community\VC\Tools\MSVC\14.29.30133\atlmfc\include\afxtempl.h
; File D:\git\src\IBK\IBK_DRFN\ProjSrc\SrcChartEx\ChartOCX\GraphDraw\PairBarDraw.cpp
;	COMDAT ?GetDrawingEnvironment_SellByHorizontalBar@CPairBarDraw@@IBE_NABV?$CList@PAVCPacket@@PAV1@@@AAPAV?$CList@NN@@AAHAAN322@Z
_TEXT	SEGMENT
$T2 = -16						; size = 4
__$EHRec$ = -12						; size = 12
_packetList$ = 8					; size = 4
$T3 = 11						; size = 1
$T4 = 12						; size = 4
_pDataList$ = 12					; size = 4
_nDataCount$ = 16					; size = 4
_dHorzViewMin$ = 20					; size = 4
_dHorzViewMax$ = 24					; size = 4
_nCurrentIndex$ = 28					; size = 4
_nHighestIndex$ = 32					; size = 4
?GetDrawingEnvironment_SellByHorizontalBar@CPairBarDraw@@IBE_NABV?$CList@PAVCPacket@@PAV1@@@AAPAV?$CList@NN@@AAHAAN322@Z PROC ; CPairBarDraw::GetDrawingEnvironment_SellByHorizontalBar, COMDAT
; _this$ = ecx

; 292  : {

  00000	55		 push	 ebp
  00001	8b ec		 mov	 ebp, esp
  00003	6a ff		 push	 -1
  00005	68 00 00 00 00	 push	 __ehhandler$?GetDrawingEnvironment_SellByHorizontalBar@CPairBarDraw@@IBE_NABV?$CList@PAVCPacket@@PAV1@@@AAPAV?$CList@NN@@AAHAAN322@Z
  0000a	64 a1 00 00 00
	00		 mov	 eax, DWORD PTR fs:0
  00010	50		 push	 eax
  00011	51		 push	 ecx
  00012	53		 push	 ebx
  00013	56		 push	 esi
  00014	57		 push	 edi
  00015	a1 00 00 00 00	 mov	 eax, DWORD PTR ___security_cookie
  0001a	33 c5		 xor	 eax, ebp
  0001c	50		 push	 eax
  0001d	8d 45 f4	 lea	 eax, DWORD PTR __$EHRec$[ebp]
  00020	64 a3 00 00 00
	00		 mov	 DWORD PTR fs:0, eax

; 293  : 	if(packetList.GetCount() <= 0)

  00026	8b 45 08	 mov	 eax, DWORD PTR _packetList$[ebp]
  00029	c7 45 f0 00 00
	00 00		 mov	 DWORD PTR $T2[ebp], 0
  00030	83 78 0c 00	 cmp	 DWORD PTR [eax+12], 0
  00034	0f 8e e7 00 00
	00		 jle	 $LN5@GetDrawing
; File C:\Program Files (x86)\Microsoft Visual Studio\2019\Community\VC\Tools\MSVC\14.29.30133\atlmfc\include\afxtempl.h

; 793  : 	{ ENSURE(m_pNodeHead != NULL);

  0003a	8b 78 04	 mov	 edi, DWORD PTR [eax+4]
  0003d	85 ff		 test	 edi, edi
  0003f	0f 84 f2 00 00
	00		 je	 $LN29@GetDrawing
; File D:\git\src\IBK\IBK_DRFN\ProjSrc\SrcChartEx\ChartOCX\GraphDraw\PairBarDraw.cpp

; 297  : 	if(pPacket == NULL)

  00045	8b 7f 08	 mov	 edi, DWORD PTR [edi+8]
  00048	85 ff		 test	 edi, edi
  0004a	0f 84 d1 00 00
	00		 je	 $LN5@GetDrawing

; 298  : 		return false;
; 299  : 
; 300  : 	pDataList = pPacket->GetnumericDataList();

  00050	8b cf		 mov	 ecx, edi
  00052	ff 15 00 00 00
	00		 call	 DWORD PTR __imp_?GetnumericDataList@CPacket@@QAEPAV?$CList@NN@@XZ
  00058	8b 75 0c	 mov	 esi, DWORD PTR _pDataList$[ebp]
  0005b	89 06		 mov	 DWORD PTR [esi], eax

; 301  : 	if(pDataList == NULL || pDataList->GetCount() <= 0)

  0005d	85 c0		 test	 eax, eax
  0005f	0f 84 bc 00 00
	00		 je	 $LN5@GetDrawing
  00065	83 78 0c 00	 cmp	 DWORD PTR [eax+12], 0
  00069	0f 8e b2 00 00
	00		 jle	 $LN5@GetDrawing

; 303  : 
; 304  : 	nDataCount = pPacket->GetCount();

  0006f	8b 07		 mov	 eax, DWORD PTR [edi]
  00071	8b cf		 mov	 ecx, edi
  00073	ff 50 14	 call	 DWORD PTR [eax+20]
  00076	8b 5d 10	 mov	 ebx, DWORD PTR _nDataCount$[ebp]

; 305  : 	nHighestIndex = nHighestIndex = -1;
; 306  : 	// ""  
; 307  : 	if( g_iMetaTable.IsVolumeForSale(pPacket->GetName()) && nDataCount > 2)

  00079	8b cf		 mov	 ecx, edi
  0007b	89 03		 mov	 DWORD PTR [ebx], eax
  0007d	8b 45 20	 mov	 eax, DWORD PTR _nHighestIndex$[ebp]
  00080	c7 00 ff ff ff
	ff		 mov	 DWORD PTR [eax], -1
  00086	8d 45 0c	 lea	 eax, DWORD PTR $T4[ebp]
  00089	50		 push	 eax
  0008a	ff 15 00 00 00
	00		 call	 DWORD PTR __imp_?GetName@CPacket@@QAE?AV?$CStringT@DV?$StrTraitMFC_DLL@DV?$ChTraitsCRT@D@ATL@@@@@ATL@@XZ
  00090	50		 push	 eax
  00091	b9 00 00 00 00	 mov	 ecx, OFFSET ?g_iMetaTable@@3VIMetaTable@@A ; g_iMetaTable
  00096	c7 45 fc 00 00
	00 00		 mov	 DWORD PTR __$EHRec$[ebp+8], 0
  0009d	c7 45 f0 01 00
	00 00		 mov	 DWORD PTR $T2[ebp], 1
  000a4	e8 00 00 00 00	 call	 ?IsVolumeForSale@IMetaTable@@QAEHABV?$CStringT@DV?$StrTraitMFC_DLL@DV?$ChTraitsCRT@D@ATL@@@@@ATL@@@Z ; IMetaTable::IsVolumeForSale
  000a9	85 c0		 test	 eax, eax
  000ab	74 09		 je	 SHORT $LN25@GetDrawing
  000ad	83 3b 02	 cmp	 DWORD PTR [ebx], 2
  000b0	c6 45 0b 01	 mov	 BYTE PTR $T3[ebp], 1
  000b4	7f 04		 jg	 SHORT $LN9@GetDrawing
$LN25@GetDrawing:
  000b6	c6 45 0b 00	 mov	 BYTE PTR $T3[ebp], 0
$LN9@GetDrawing:
  000ba	8d 4d 0c	 lea	 ecx, DWORD PTR $T4[ebp]
  000bd	c7 45 fc ff ff
	ff ff		 mov	 DWORD PTR __$EHRec$[ebp+8], -1
  000c4	ff 15 00 00 00
	00		 call	 DWORD PTR __imp_??1?$CStringT@DV?$StrTraitMFC_DLL@DV?$ChTraitsCRT@D@ATL@@@@@ATL@@QAE@XZ
  000ca	80 7d 0b 00	 cmp	 BYTE PTR $T3[ebp], 0
  000ce	74 1f		 je	 SHORT $LN6@GetDrawing

; 308  : 	{
; 309  : 		nDataCount -= 2;

  000d0	83 03 fe	 add	 DWORD PTR [ebx], -2	; fffffffeH
; File C:\Program Files (x86)\Microsoft Visual Studio\2019\Community\VC\Tools\MSVC\14.29.30133\atlmfc\include\afxtempl.h

; 823  : 	{ CNode* pNode = (CNode*) rPosition;

  000d3	8b 06		 mov	 eax, DWORD PTR [esi]
; File D:\git\src\IBK\IBK_DRFN\ProjSrc\SrcChartEx\ChartOCX\GraphDraw\PairBarDraw.cpp

; 312  : 		nHighestIndex = (int)pDataList->GetPrev(pos);

  000d5	8b 55 20	 mov	 edx, DWORD PTR _nHighestIndex$[ebp]
; File C:\Program Files (x86)\Microsoft Visual Studio\2019\Community\VC\Tools\MSVC\14.29.30133\atlmfc\include\afxtempl.h

; 823  : 	{ CNode* pNode = (CNode*) rPosition;

  000d8	8b 40 08	 mov	 eax, DWORD PTR [eax+8]

; 824  : 		ASSERT(AfxIsValidAddress(pNode, sizeof(CNode)));
; 825  : 		rPosition = (POSITION) pNode->pPrev;

  000db	8b 48 04	 mov	 ecx, DWORD PTR [eax+4]
; File D:\git\src\IBK\IBK_DRFN\ProjSrc\SrcChartEx\ChartOCX\GraphDraw\PairBarDraw.cpp

; 312  : 		nHighestIndex = (int)pDataList->GetPrev(pos);

  000de	f2 0f 2c 40 08	 cvttsd2si eax, QWORD PTR [eax+8]
  000e3	89 02		 mov	 DWORD PTR [edx], eax

; 313  : 		nCurrentIndex = (int)pDataList->GetPrev(pos);

  000e5	f2 0f 2c 49 08	 cvttsd2si ecx, QWORD PTR [ecx+8]
  000ea	8b 45 1c	 mov	 eax, DWORD PTR _nCurrentIndex$[ebp]
  000ed	89 08		 mov	 DWORD PTR [eax], ecx
$LN6@GetDrawing:

; 314  : 	}
; 315  : 
; 316  : 	pPacket->GetMinMax(0, nDataCount, dHorzViewMin, dHorzViewMax);	

  000ef	8b 75 14	 mov	 esi, DWORD PTR _dHorzViewMin$[ebp]
  000f2	8b cf		 mov	 ecx, edi
  000f4	6a 00		 push	 0
  000f6	ff 75 18	 push	 DWORD PTR _dHorzViewMax$[ebp]
  000f9	56		 push	 esi
  000fa	ff 33		 push	 DWORD PTR [ebx]
  000fc	6a 00		 push	 0
  000fe	ff 15 00 00 00
	00		 call	 DWORD PTR __imp_?GetMinMax@CPacket@@QAEHHHAAN0H@Z
  00104	0f 57 c0	 xorps	 xmm0, xmm0

; 317  : 	dHorzViewMin = 0;
; 318  : 
; 319  : 	return true;

  00107	b0 01		 mov	 al, 1
  00109	f2 0f 11 06	 movsd	 QWORD PTR [esi], xmm0

; 320  : }

  0010d	8b 4d f4	 mov	 ecx, DWORD PTR __$EHRec$[ebp]
  00110	64 89 0d 00 00
	00 00		 mov	 DWORD PTR fs:0, ecx
  00117	59		 pop	 ecx
  00118	5f		 pop	 edi
  00119	5e		 pop	 esi
  0011a	5b		 pop	 ebx
  0011b	8b e5		 mov	 esp, ebp
  0011d	5d		 pop	 ebp
  0011e	c2 1c 00	 ret	 28			; 0000001cH
$LN5@GetDrawing:

; 302  : 		return false;

  00121	32 c0		 xor	 al, al

; 320  : }

  00123	8b 4d f4	 mov	 ecx, DWORD PTR __$EHRec$[ebp]
  00126	64 89 0d 00 00
	00 00		 mov	 DWORD PTR fs:0, ecx
  0012d	59		 pop	 ecx
  0012e	5f		 pop	 edi
  0012f	5e		 pop	 esi
  00130	5b		 pop	 ebx
  00131	8b e5		 mov	 esp, ebp
  00133	5d		 pop	 ebp
  00134	c2 1c 00	 ret	 28			; 0000001cH
$LN29@GetDrawing:
; File C:\Program Files (x86)\Microsoft Visual Studio\2019\Community\VC\Tools\MSVC\14.29.30133\atlmfc\include\afxtempl.h

; 793  : 	{ ENSURE(m_pNodeHead != NULL);

  00137	e8 00 00 00 00	 call	 ?AfxThrowInvalidArgException@@YGXXZ ; AfxThrowInvalidArgException
$LN27@GetDrawing:
  0013c	cc		 int	 3
_TEXT	ENDS
;	COMDAT text$x
text$x	SEGMENT
__unwindfunclet$?GetDrawingEnvironment_SellByHorizontalBar@CPairBarDraw@@IBE_NABV?$CList@PAVCPacket@@PAV1@@@AAPAV?$CList@NN@@AAHAAN322@Z$0:
  00000	8b 45 f0	 mov	 eax, DWORD PTR $T2[ebp]
  00003	83 e0 01	 and	 eax, 1
  00006	0f 84 0d 00 00
	00		 je	 $LN11@GetDrawing
  0000c	83 65 f0 fe	 and	 DWORD PTR $T2[ebp], -2	; fffffffeH
  00010	8d 4d 0c	 lea	 ecx, DWORD PTR $T4[ebp]
  00013	ff 25 00 00 00
	00		 jmp	 DWORD PTR __imp_??1?$CStringT@DV?$StrTraitMFC_DLL@DV?$ChTraitsCRT@D@ATL@@@@@ATL@@QAE@XZ
$LN11@GetDrawing:
  00019	c3		 ret	 0
  0001a	cc		 int	 3
  0001b	cc		 int	 3
  0001c	cc		 int	 3
  0001d	cc		 int	 3
  0001e	cc		 int	 3
__ehhandler$?GetDrawingEnvironment_SellByHorizontalBar@CPairBarDraw@@IBE_NABV?$CList@PAVCPacket@@PAV1@@@AAPAV?$CList@NN@@AAHAAN322@Z:
  0001f	90		 npad	 1
  00020	90		 npad	 1
  00021	8b 54 24 08	 mov	 edx, DWORD PTR [esp+8]
  00025	8d 42 0c	 lea	 eax, DWORD PTR [edx+12]
  00028	8b 4a ec	 mov	 ecx, DWORD PTR [edx-20]
  0002b	33 c8		 xor	 ecx, eax
  0002d	e8 00 00 00 00	 call	 @__security_check_cookie@4
  00032	b8 00 00 00 00	 mov	 eax, OFFSET __ehfuncinfo$?GetDrawingEnvironment_SellByHorizontalBar@CPairBarDraw@@IBE_NABV?$CList@PAVCPacket@@PAV1@@@AAPAV?$CList@NN@@AAHAAN322@Z
  00037	e9 00 00 00 00	 jmp	 ___CxxFrameHandler3
text$x	ENDS
?GetDrawingEnvironment_SellByHorizontalBar@CPairBarDraw@@IBE_NABV?$CList@PAVCPacket@@PAV1@@@AAPAV?$CList@NN@@AAHAAN322@Z ENDP ; CPairBarDraw::GetDrawingEnvironment_SellByHorizontalBar
; Function compile flags: /Ogtp
; File D:\git\src\IBK\IBK_DRFN\ProjSrc\SrcChartEx\ChartOCX\GraphDraw\PairBarDraw.cpp
; File C:\Program Files (x86)\Microsoft Visual Studio\2019\Community\VC\Tools\MSVC\14.29.30133\atlmfc\include\afxtempl.h
; File D:\git\src\IBK\IBK_DRFN\ProjSrc\SrcChartEx\ChartOCX\GraphDraw\PairBarDraw.cpp
; File C:\Program Files (x86)\Microsoft Visual Studio\2019\Community\VC\Tools\MSVC\14.29.30133\atlmfc\include\afxtempl.h
; File D:\git\src\IBK\IBK_DRFN\ProjSrc\SrcChartEx\ChartOCX\GraphDraw\PairBarDraw.cpp
; File C:\Program Files (x86)\Microsoft Visual Studio\2019\Community\VC\Tools\MSVC\14.29.30133\atlmfc\include\afxtempl.h
; File D:\git\src\IBK\IBK_DRFN\ProjSrc\SrcChartEx\ChartOCX\GraphDraw\PairBarDraw.cpp
; File C:\Program Files (x86)\Microsoft Visual Studio\2019\Community\VC\Tools\MSVC\14.29.30133\atlmfc\include\afxtempl.h
; File D:\git\src\IBK\IBK_DRFN\ProjSrc\SrcChartEx\ChartOCX\GraphDraw\PairBarDraw.cpp
; File C:\Program Files (x86)\Microsoft Visual Studio\2019\Community\VC\Tools\MSVC\14.29.30133\atlmfc\include\afxtempl.h
; File D:\git\src\IBK\IBK_DRFN\ProjSrc\SrcChartEx\ChartOCX\GraphDraw\PairBarDraw.cpp
; File C:\Program Files (x86)\Microsoft Visual Studio\2019\Community\VC\Tools\MSVC\14.29.30133\atlmfc\include\afxtempl.h
; File D:\git\src\IBK\IBK_DRFN\ProjSrc\SrcChartEx\ChartOCX\GraphDraw\PairBarDraw.cpp
; File C:\Program Files (x86)\Microsoft Visual Studio\2019\Community\VC\Tools\MSVC\14.29.30133\atlmfc\include\atltypes.h
; File D:\git\src\IBK\IBK_DRFN\ProjSrc\SrcChartEx\ChartOCX\GraphDraw\PairBarDraw.cpp
; File C:\Program Files (x86)\Microsoft Visual Studio\2019\Community\VC\Tools\MSVC\14.29.30133\atlmfc\include\atltypes.h
; File D:\git\src\IBK\IBK_DRFN\ProjSrc\SrcChartEx\ChartOCX\GraphDraw\PairBarDraw.cpp
; File C:\Program Files (x86)\Microsoft Visual Studio\2019\Community\VC\Tools\MSVC\14.29.30133\atlmfc\include\afxtempl.h
; File D:\git\src\IBK\IBK_DRFN\ProjSrc\SrcChartEx\ChartOCX\GraphDraw\PairBarDraw.cpp
; File C:\Program Files (x86)\Microsoft Visual Studio\2019\Community\VC\Tools\MSVC\14.29.30133\atlmfc\include\cstringt.h
; File D:\git\src\IBK\IBK_DRFN\ProjSrc\SrcChartEx\ChartOCX\GraphDraw\PairBarDraw.cpp
; File C:\Program Files (x86)\Microsoft Visual Studio\2019\Community\VC\Tools\MSVC\14.29.30133\atlmfc\include\afxtempl.h
; File D:\git\src\IBK\IBK_DRFN\ProjSrc\SrcChartEx\ChartOCX\GraphDraw\PairBarDraw.cpp
; File C:\Program Files (x86)\Microsoft Visual Studio\2019\Community\VC\Tools\MSVC\14.29.30133\atlmfc\include\afxwin1.inl
; File D:\git\src\IBK\IBK_DRFN\ProjSrc\SrcChartEx\ChartOCX\GraphDraw\PairBarDraw.cpp
; File C:\Program Files (x86)\Microsoft Visual Studio\2019\Community\VC\Tools\MSVC\14.29.30133\atlmfc\include\afxwin1.inl
; File D:\git\src\IBK\IBK_DRFN\ProjSrc\SrcChartEx\ChartOCX\GraphDraw\PairBarDraw.cpp
; File C:\Program Files (x86)\Microsoft Visual Studio\2019\Community\VC\Tools\MSVC\14.29.30133\atlmfc\include\afxwin1.inl
; File D:\git\src\IBK\IBK_DRFN\ProjSrc\SrcChartEx\ChartOCX\GraphDraw\PairBarDraw.cpp
; File C:\Program Files (x86)\Microsoft Visual Studio\2019\Community\VC\Tools\MSVC\14.29.30133\atlmfc\include\afxwin1.inl
; File D:\git\src\IBK\IBK_DRFN\ProjSrc\SrcChartEx\ChartOCX\GraphDraw\PairBarDraw.cpp
; File C:\Program Files (x86)\Microsoft Visual Studio\2019\Community\VC\Tools\MSVC\14.29.30133\atlmfc\include\afxwin1.inl
; File D:\git\src\IBK\IBK_DRFN\ProjSrc\SrcChartEx\ChartOCX\GraphDraw\PairBarDraw.cpp
; File C:\Program Files (x86)\Microsoft Visual Studio\2019\Community\VC\Tools\MSVC\14.29.30133\atlmfc\include\afxwin1.inl
; File D:\git\src\IBK\IBK_DRFN\ProjSrc\SrcChartEx\ChartOCX\GraphDraw\PairBarDraw.cpp
; File C:\Program Files (x86)\Microsoft Visual Studio\2019\Community\VC\Tools\MSVC\14.29.30133\atlmfc\include\afxtempl.h
; File D:\git\src\IBK\IBK_DRFN\ProjSrc\SrcChartEx\ChartOCX\GraphDraw\PairBarDraw.cpp
; File C:\Program Files (x86)\Microsoft Visual Studio\2019\Community\VC\Tools\MSVC\14.29.30133\atlmfc\include\afxtempl.h
; File D:\git\src\IBK\IBK_DRFN\ProjSrc\SrcChartEx\ChartOCX\GraphDraw\PairBarDraw.cpp
; File C:\Program Files (x86)\Microsoft Visual Studio\2019\Community\VC\Tools\MSVC\14.29.30133\atlmfc\include\afxtempl.h
; File D:\git\src\IBK\IBK_DRFN\ProjSrc\SrcChartEx\ChartOCX\GraphDraw\PairBarDraw.cpp
; File C:\Program Files (x86)\Microsoft Visual Studio\2019\Community\VC\Tools\MSVC\14.29.30133\atlmfc\include\afxtempl.h
; File D:\git\src\IBK\IBK_DRFN\ProjSrc\SrcChartEx\ChartOCX\GraphDraw\PairBarDraw.cpp
; File C:\Program Files (x86)\Microsoft Visual Studio\2019\Community\VC\Tools\MSVC\14.29.30133\atlmfc\include\afxtempl.h
; File D:\git\src\IBK\IBK_DRFN\ProjSrc\SrcChartEx\ChartOCX\GraphDraw\PairBarDraw.cpp
; File C:\Program Files (x86)\Microsoft Visual Studio\2019\Community\VC\Tools\MSVC\14.29.30133\atlmfc\include\atltypes.h
; File D:\git\src\IBK\IBK_DRFN\ProjSrc\SrcChartEx\ChartOCX\GraphDraw\PairBarDraw.cpp
; File C:\Program Files (x86)\Microsoft Visual Studio\2019\Community\VC\Tools\MSVC\14.29.30133\atlmfc\include\atltypes.h
; File D:\git\src\IBK\IBK_DRFN\ProjSrc\SrcChartEx\ChartOCX\GraphDraw\PairBarDraw.cpp
; File C:\Program Files (x86)\Microsoft Visual Studio\2019\Community\VC\Tools\MSVC\14.29.30133\atlmfc\include\atltypes.h
; File D:\git\src\IBK\IBK_DRFN\ProjSrc\SrcChartEx\ChartOCX\GraphDraw\PairBarDraw.cpp
; File C:\Program Files (x86)\Microsoft Visual Studio\2019\Community\VC\Tools\MSVC\14.29.30133\atlmfc\include\atltypes.h
; File D:\git\src\IBK\IBK_DRFN\ProjSrc\SrcChartEx\ChartOCX\GraphDraw\PairBarDraw.cpp
; File C:\Program Files (x86)\Microsoft Visual Studio\2019\Community\VC\Tools\MSVC\14.29.30133\atlmfc\include\atltypes.h
; File D:\git\src\IBK\IBK_DRFN\ProjSrc\SrcChartEx\ChartOCX\GraphDraw\PairBarDraw.cpp
; File C:\Program Files (x86)\Microsoft Visual Studio\2019\Community\VC\Tools\MSVC\14.29.30133\atlmfc\include\atltypes.h
; File D:\git\src\IBK\IBK_DRFN\ProjSrc\SrcChartEx\ChartOCX\GraphDraw\PairBarDraw.cpp
; File C:\Program Files (x86)\Microsoft Visual Studio\2019\Community\VC\Tools\MSVC\14.29.30133\atlmfc\include\atltypes.h
; File D:\git\src\IBK\IBK_DRFN\ProjSrc\SrcChartEx\ChartOCX\GraphDraw\PairBarDraw.cpp
; File C:\Program Files (x86)\Microsoft Visual Studio\2019\Community\VC\Tools\MSVC\14.29.30133\atlmfc\include\atltypes.h
; File D:\git\src\IBK\IBK_DRFN\ProjSrc\SrcChartEx\ChartOCX\GraphDraw\PairBarDraw.cpp
; File C:\Program Files (x86)\Microsoft Visual Studio\2019\Community\VC\Tools\MSVC\14.29.30133\atlmfc\include\atltypes.h
; File D:\git\src\IBK\IBK_DRFN\ProjSrc\SrcChartEx\ChartOCX\GraphDraw\PairBarDraw.cpp
; File C:\Program Files (x86)\Microsoft Visual Studio\2019\Community\VC\Tools\MSVC\14.29.30133\atlmfc\include\atltypes.h
; File D:\git\src\IBK\IBK_DRFN\ProjSrc\SrcChartEx\ChartOCX\GraphDraw\PairBarDraw.cpp
; File C:\Program Files (x86)\Microsoft Visual Studio\2019\Community\VC\Tools\MSVC\14.29.30133\atlmfc\include\atltypes.h
; File D:\git\src\IBK\IBK_DRFN\ProjSrc\SrcChartEx\ChartOCX\GraphDraw\PairBarDraw.cpp
; File C:\Program Files (x86)\Microsoft Visual Studio\2019\Community\VC\Tools\MSVC\14.29.30133\atlmfc\include\atltypes.h
; File D:\git\src\IBK\IBK_DRFN\ProjSrc\SrcChartEx\ChartOCX\GraphDraw\PairBarDraw.cpp
; File C:\Program Files (x86)\Microsoft Visual Studio\2019\Community\VC\Tools\MSVC\14.29.30133\atlmfc\include\afxwin1.inl
; File D:\git\src\IBK\IBK_DRFN\ProjSrc\SrcChartEx\ChartOCX\GraphDraw\PairBarDraw.cpp
; File C:\Program Files (x86)\Microsoft Visual Studio\2019\Community\VC\Tools\MSVC\14.29.30133\atlmfc\include\afxtempl.h
; File D:\git\src\IBK\IBK_DRFN\ProjSrc\SrcChartEx\ChartOCX\GraphDraw\PairBarDraw.cpp
;	COMDAT ?DrawSellByHorizontalBar@CPairBarDraw@@IAE_NPAVCDC@@ABVCRect@@ABV?$CStringT@DV?$StrTraitMFC_DLL@DV?$ChTraitsCRT@D@ATL@@@@@ATL@@ABVCGraphDrawStyle@@ABVCGraphColor@@HHABN5ABV?$CList@PAVCPacket@@PAV1@@@PBVCIndicatorInfo@@_N8ABVCPacket@@@Z
_TEXT	SEGMENT
_dMax$ = -400						; size = 8
$T2 = -392						; size = 8
_dMin$ = -384						; size = 8
_dBarMaxWidth$ = -376					; size = 8
_BybarRect$3 = -368					; size = 16
_SellbarRect$4 = -352					; size = 16
_SellbarRect$5 = -336					; size = 16
_BybarRect$6 = -320					; size = 16
_SellDataPt$ = -304					; size = 8
_pOrgPen$1$ = -300					; size = 4
_pOrgBrush$1$ = -296					; size = 4
_dSellData$ = -292					; size = 8
_dByData$ = -284					; size = 8
_dTotalData$ = -276					; size = 8
_dHorzViewMax$ = -268					; size = 8
_nOrgTextColor$1$ = -260				; size = 4
_nOrgMode$1$ = -256					; size = 4
_dataSellPos$1$ = -252					; size = 4
$T7 = -248						; size = 4
_ByDataPt$2$ = -244					; size = 4
$T8 = -240						; size = 4
$T9 = -236						; size = 4
$T10 = -232						; size = 4
$T11 = -228						; size = 4
_dataBuyPos$1$ = -224					; size = 4
$T12 = -220						; size = 4
_doldSellData$ = -216					; size = 8
_doldByData$ = -208					; size = 8
_dHorzViewMin$ = -200					; size = 8
_dHogaData$1$ = -192					; size = 8
tv2434 = -192						; size = 8
tv2260 = -188						; size = 4
_pos$1$ = -184						; size = 4
_pen1$ = -180						; size = 8
_pen2$ = -172						; size = 8
_pen3$ = -164						; size = 8
_brush1$ = -156						; size = 8
_brush2$ = -148						; size = 8
_brush3$ = -140						; size = 8
_oldSellDataPt$ = -132					; size = 8
_oldByDataPt$ = -124					; size = 8
_graphRegion$GSCopy$1$ = -116				; size = 4
_pTotalDataList$1$ = -112				; size = 4
_strSellData$13 = -112					; size = 4
$T14 = -108						; size = 4
_pSellDataList$1$ = -108				; size = 4
$T15 = -108						; size = 4
_strSubGraphName$GSCopy$1$ = -104			; size = 4
_strByData$16 = -104					; size = 4
_pByDataList$1$ = -100					; size = 4
_strFullData$17 = -100					; size = 4
_graphColor$GSCopy$1$ = -96				; size = 4
_nBuySellText$1$ = -92					; size = 4
_this$GSCopy$1$ = -88					; size = 4
_oldByDataPt$1$ = -84					; size = 4
$T18 = -80						; size = 4
_pPacket$1$ = -76					; size = 4
_ByDataPt$1$ = -76					; size = 4
$T19 = -76						; size = 4
$T20 = -72						; size = 4
_dViewMax$GSCopy$1$ = -72				; size = 4
_dViewMin$GSCopy$1$ = -68				; size = 4
_nTextType$1$ = -68					; size = 4
_nBarWidth$ = -64					; size = 4
_packetList$GSCopy$1$ = -60				; size = 4
_oldSellDataPt$1$ = -60					; size = 4
_nDataCount$1$ = -56					; size = 4
$T21 = -52						; size = 4
_pIndicatorInfo$GSCopy$1$ = -52				; size = 4
tv2261 = -52						; size = 4
$T22 = -52						; size = 4
_pNode$1$ = -48						; size = 4
_SellDataPt$1$ = -48					; size = 4
_nCount$1$ = -48					; size = 4
_TailPas$2$ = -48					; size = 4
$T23 = -48						; size = 4
$T24 = -48						; size = 4
_pDC$GSCopy$1$ = -44					; size = 4
$T25 = -37						; size = 1
$T26 = -37						; size = 1
$T27 = -36						; size = 4
_drawingRegion$ = -32					; size = 16
__$ArrayPad$ = -16					; size = 4
__$EHRec$ = -12						; size = 12
_pDC$ = 8						; size = 4
_graphRegion$ = 12					; size = 4
_strSubGraphName$ = 16					; size = 4
_drawStyle$ = 20					; size = 4
_graphColor$ = 24					; size = 4
_nStartIndex$ = 28					; size = 4
_nEndIndex$ = 32					; size = 4
_dViewMax$ = 36						; size = 4
_dViewMin$ = 40						; size = 4
_packetList$ = 44					; size = 4
_pIndicatorInfo$ = 48					; size = 4
_bLog$ = 52						; size = 1
_bInvert$ = 56						; size = 1
_pPacket$ = 60						; size = 4
?DrawSellByHorizontalBar@CPairBarDraw@@IAE_NPAVCDC@@ABVCRect@@ABV?$CStringT@DV?$StrTraitMFC_DLL@DV?$ChTraitsCRT@D@ATL@@@@@ATL@@ABVCGraphDrawStyle@@ABVCGraphColor@@HHABN5ABV?$CList@PAVCPacket@@PAV1@@@PBVCIndicatorInfo@@_N8ABVCPacket@@@Z PROC ; CPairBarDraw::DrawSellByHorizontalBar, COMDAT
; _this$ = ecx

; 137  : {

  00000	55		 push	 ebp
  00001	8b ec		 mov	 ebp, esp
  00003	6a ff		 push	 -1
  00005	68 00 00 00 00	 push	 __ehhandler$?DrawSellByHorizontalBar@CPairBarDraw@@IAE_NPAVCDC@@ABVCRect@@ABV?$CStringT@DV?$StrTraitMFC_DLL@DV?$ChTraitsCRT@D@ATL@@@@@ATL@@ABVCGraphDrawStyle@@ABVCGraphColor@@HHABN5ABV?$CList@PAVCPacket@@PAV1@@@PBVCIndicatorInfo@@_N8ABVCPacket@@@Z
  0000a	64 a1 00 00 00
	00		 mov	 eax, DWORD PTR fs:0
  00010	50		 push	 eax
  00011	81 ec 84 01 00
	00		 sub	 esp, 388		; 00000184H
  00017	a1 00 00 00 00	 mov	 eax, DWORD PTR ___security_cookie
  0001c	33 c5		 xor	 eax, ebp
  0001e	89 45 f0	 mov	 DWORD PTR __$ArrayPad$[ebp], eax
  00021	56		 push	 esi
  00022	57		 push	 edi
  00023	50		 push	 eax
  00024	8d 45 f4	 lea	 eax, DWORD PTR __$EHRec$[ebp]
  00027	64 a3 00 00 00
	00		 mov	 DWORD PTR fs:0, eax
  0002d	8b f1		 mov	 esi, ecx
  0002f	89 75 a8	 mov	 DWORD PTR _this$GSCopy$1$[ebp], esi
  00032	8b 45 08	 mov	 eax, DWORD PTR _pDC$[ebp]
  00035	0f 57 c0	 xorps	 xmm0, xmm0
  00038	8b 4d 30	 mov	 ecx, DWORD PTR _pIndicatorInfo$[ebp]
  0003b	89 45 d4	 mov	 DWORD PTR _pDC$GSCopy$1$[ebp], eax
  0003e	8b 45 0c	 mov	 eax, DWORD PTR _graphRegion$[ebp]
  00041	89 45 8c	 mov	 DWORD PTR _graphRegion$GSCopy$1$[ebp], eax
  00044	8b 45 10	 mov	 eax, DWORD PTR _strSubGraphName$[ebp]
  00047	89 45 98	 mov	 DWORD PTR _strSubGraphName$GSCopy$1$[ebp], eax
  0004a	8b 45 18	 mov	 eax, DWORD PTR _graphColor$[ebp]
  0004d	89 45 a0	 mov	 DWORD PTR _graphColor$GSCopy$1$[ebp], eax
  00050	8b 45 24	 mov	 eax, DWORD PTR _dViewMax$[ebp]
  00053	89 45 b8	 mov	 DWORD PTR _dViewMax$GSCopy$1$[ebp], eax
  00056	8b 45 28	 mov	 eax, DWORD PTR _dViewMin$[ebp]
  00059	89 45 bc	 mov	 DWORD PTR _dViewMin$GSCopy$1$[ebp], eax
  0005c	8b 45 2c	 mov	 eax, DWORD PTR _packetList$[ebp]
  0005f	c7 45 dc 00 00
	00 00		 mov	 DWORD PTR $T27[ebp], 0
  00066	89 45 c4	 mov	 DWORD PTR _packetList$GSCopy$1$[ebp], eax
  00069	89 4d cc	 mov	 DWORD PTR _pIndicatorInfo$GSCopy$1$[ebp], ecx

; 293  : 	if(packetList.GetCount() <= 0)

  0006c	83 78 0c 00	 cmp	 DWORD PTR [eax+12], 0

; 138  : 	// , , 
; 139  : 	CList<double, double>* pTotalDataList = NULL;
; 140  : 	CList<double, double>* pByDataList = NULL;
; 141  : 	CList<double, double>* pSellDataList = NULL;
; 142  : 
; 143  : 	int nDataCount = 0, nCurrentIndex = -1, nHighestIndex = -1;
; 144  : 	double dHorzViewMin = 0.0, dHorzViewMax = 0.0;

  00070	f2 0f 11 85 38
	ff ff ff	 movsd	 QWORD PTR _dHorzViewMin$[ebp], xmm0
  00078	f2 0f 11 85 f4
	fe ff ff	 movsd	 QWORD PTR _dHorzViewMax$[ebp], xmm0

; 293  : 	if(packetList.GetCount() <= 0)

  00080	0f 8e 6e 0b 00
	00		 jle	 $LN10@DrawSellBy
; File C:\Program Files (x86)\Microsoft Visual Studio\2019\Community\VC\Tools\MSVC\14.29.30133\atlmfc\include\afxtempl.h

; 793  : 	{ ENSURE(m_pNodeHead != NULL);

  00086	8b 78 04	 mov	 edi, DWORD PTR [eax+4]
  00089	85 ff		 test	 edi, edi
  0008b	0f 84 82 0b 00
	00		 je	 $LN243@DrawSellBy
; File D:\git\src\IBK\IBK_DRFN\ProjSrc\SrcChartEx\ChartOCX\GraphDraw\PairBarDraw.cpp

; 296  : 	CPacket* pPacket = packetList.GetHead();

  00091	8b 7f 08	 mov	 edi, DWORD PTR [edi+8]
  00094	89 7d b4	 mov	 DWORD PTR _pPacket$1$[ebp], edi

; 297  : 	if(pPacket == NULL)

  00097	85 ff		 test	 edi, edi
  00099	0f 84 55 0b 00
	00		 je	 $LN10@DrawSellBy

; 298  : 		return false;
; 299  : 
; 300  : 	pDataList = pPacket->GetnumericDataList();

  0009f	8b cf		 mov	 ecx, edi
  000a1	ff 15 00 00 00
	00		 call	 DWORD PTR __imp_?GetnumericDataList@CPacket@@QAEPAV?$CList@NN@@XZ
  000a7	89 45 90	 mov	 DWORD PTR _pTotalDataList$1$[ebp], eax

; 301  : 	if(pDataList == NULL || pDataList->GetCount() <= 0)

  000aa	85 c0		 test	 eax, eax
  000ac	0f 84 42 0b 00
	00		 je	 $LN10@DrawSellBy
  000b2	83 78 0c 00	 cmp	 DWORD PTR [eax+12], 0
  000b6	0f 8e 38 0b 00
	00		 jle	 $LN10@DrawSellBy

; 302  : 		return false;
; 303  : 
; 304  : 	nDataCount = pPacket->GetCount();

  000bc	8b 17		 mov	 edx, DWORD PTR [edi]
  000be	8b cf		 mov	 ecx, edi
  000c0	8b 52 14	 mov	 edx, DWORD PTR [edx+20]
  000c3	ff d2		 call	 edx
  000c5	89 45 c8	 mov	 DWORD PTR _nDataCount$1$[ebp], eax

; 305  : 	nHighestIndex = nHighestIndex = -1;
; 306  : 	// ""  
; 307  : 	if( g_iMetaTable.IsVolumeForSale(pPacket->GetName()) && nDataCount > 2)

  000c8	8b cf		 mov	 ecx, edi
  000ca	8d 45 d0	 lea	 eax, DWORD PTR $T23[ebp]
  000cd	50		 push	 eax
  000ce	ff 15 00 00 00
	00		 call	 DWORD PTR __imp_?GetName@CPacket@@QAE?AV?$CStringT@DV?$StrTraitMFC_DLL@DV?$ChTraitsCRT@D@ATL@@@@@ATL@@XZ
  000d4	50		 push	 eax
  000d5	b9 00 00 00 00	 mov	 ecx, OFFSET ?g_iMetaTable@@3VIMetaTable@@A ; g_iMetaTable
  000da	c7 45 fc 00 00
	00 00		 mov	 DWORD PTR __$EHRec$[ebp+8], 0
  000e1	c7 45 dc 80 00
	00 00		 mov	 DWORD PTR $T27[ebp], 128 ; 00000080H
  000e8	e8 00 00 00 00	 call	 ?IsVolumeForSale@IMetaTable@@QAEHABV?$CStringT@DV?$StrTraitMFC_DLL@DV?$ChTraitsCRT@D@ATL@@@@@ATL@@@Z ; IMetaTable::IsVolumeForSale
  000ed	85 c0		 test	 eax, eax
  000ef	74 0a		 je	 SHORT $LN74@DrawSellBy
  000f1	83 7d c8 02	 cmp	 DWORD PTR _nDataCount$1$[ebp], 2
  000f5	c6 45 db 01	 mov	 BYTE PTR $T25[ebp], 1
  000f9	7f 04		 jg	 SHORT $LN75@DrawSellBy
$LN74@DrawSellBy:
  000fb	c6 45 db 00	 mov	 BYTE PTR $T25[ebp], 0
$LN75@DrawSellBy:
  000ff	33 ff		 xor	 edi, edi
  00101	c7 45 fc ff ff
	ff ff		 mov	 DWORD PTR __$EHRec$[ebp+8], -1
  00108	8d 4d d0	 lea	 ecx, DWORD PTR $T23[ebp]
  0010b	89 7d dc	 mov	 DWORD PTR $T27[ebp], edi
  0010e	ff 15 00 00 00
	00		 call	 DWORD PTR __imp_??1?$CStringT@DV?$StrTraitMFC_DLL@DV?$ChTraitsCRT@D@ATL@@@@@ATL@@QAE@XZ
  00114	80 7d db 00	 cmp	 BYTE PTR $T25[ebp], 0
  00118	8b 45 c8	 mov	 eax, DWORD PTR _nDataCount$1$[ebp]
  0011b	74 06		 je	 SHORT $LN72@DrawSellBy

; 308  : 	{
; 309  : 		nDataCount -= 2;

  0011d	83 e8 02	 sub	 eax, 2
  00120	89 45 c8	 mov	 DWORD PTR _nDataCount$1$[ebp], eax
$LN72@DrawSellBy:

; 310  : 		POSITION pos = pDataList->GetTailPosition();
; 311  : 		// ,  index
; 312  : 		nHighestIndex = (int)pDataList->GetPrev(pos);
; 313  : 		nCurrentIndex = (int)pDataList->GetPrev(pos);
; 314  : 	}
; 315  : 
; 316  : 	pPacket->GetMinMax(0, nDataCount, dHorzViewMin, dHorzViewMax);	

  00123	6a 00		 push	 0
  00125	8d 8d f4 fe ff
	ff		 lea	 ecx, DWORD PTR _dHorzViewMax$[ebp]
  0012b	51		 push	 ecx
  0012c	8d 8d 38 ff ff
	ff		 lea	 ecx, DWORD PTR _dHorzViewMin$[ebp]
  00132	51		 push	 ecx
  00133	8b 4d b4	 mov	 ecx, DWORD PTR _pPacket$1$[ebp]
  00136	50		 push	 eax
  00137	6a 00		 push	 0
  00139	ff 15 00 00 00
	00		 call	 DWORD PTR __imp_?GetMinMax@CPacket@@QAEHHHAAN0H@Z
; File C:\Program Files (x86)\Microsoft Visual Studio\2019\Community\VC\Tools\MSVC\14.29.30133\atlmfc\include\afxtempl.h

; 829  : 	{ CNode* pNode = (CNode*) rPosition;

  0013f	8b 45 c4	 mov	 eax, DWORD PTR _packetList$GSCopy$1$[ebp]
  00142	0f 57 c0	 xorps	 xmm0, xmm0
; File D:\git\src\IBK\IBK_DRFN\ProjSrc\SrcChartEx\ChartOCX\GraphDraw\PairBarDraw.cpp

; 317  : 	dHorzViewMin = 0;

  00145	f2 0f 11 85 38
	ff ff ff	 movsd	 QWORD PTR _dHorzViewMin$[ebp], xmm0
; File C:\Program Files (x86)\Microsoft Visual Studio\2019\Community\VC\Tools\MSVC\14.29.30133\atlmfc\include\afxtempl.h

; 829  : 	{ CNode* pNode = (CNode*) rPosition;

  0014d	8b 40 08	 mov	 eax, DWORD PTR [eax+8]

; 831  : 		rPosition = (POSITION) pNode->pPrev;

  00150	8b 48 04	 mov	 ecx, DWORD PTR [eax+4]
  00153	89 4d d0	 mov	 DWORD PTR _pNode$1$[ebp], ecx
; File D:\git\src\IBK\IBK_DRFN\ProjSrc\SrcChartEx\ChartOCX\GraphDraw\PairBarDraw.cpp

; 150  : 	CPacket* pSellByPacket = packetList.GetPrev(TailPas);

  00156	8b 48 08	 mov	 ecx, DWORD PTR [eax+8]

; 151  : 	if(pSellByPacket == NULL)

  00159	85 c9		 test	 ecx, ecx
  0015b	0f 84 93 0a 00
	00		 je	 $LN10@DrawSellBy

; 152  : 		return false;
; 153  : 	pSellDataList = pSellByPacket->GetnumericDataList();

  00161	ff 15 00 00 00
	00		 call	 DWORD PTR __imp_?GetnumericDataList@CPacket@@QAEPAV?$CList@NN@@XZ
  00167	89 45 94	 mov	 DWORD PTR _pSellDataList$1$[ebp], eax
; File C:\Program Files (x86)\Microsoft Visual Studio\2019\Community\VC\Tools\MSVC\14.29.30133\atlmfc\include\afxtempl.h

; 831  : 		rPosition = (POSITION) pNode->pPrev;

  0016a	8b 45 d0	 mov	 eax, DWORD PTR _pNode$1$[ebp]
  0016d	8b 48 04	 mov	 ecx, DWORD PTR [eax+4]
  00170	89 4d d0	 mov	 DWORD PTR _TailPas$2$[ebp], ecx
; File D:\git\src\IBK\IBK_DRFN\ProjSrc\SrcChartEx\ChartOCX\GraphDraw\PairBarDraw.cpp

; 156  : 	pSellByPacket = packetList.GetPrev(TailPas);;

  00173	8b 48 08	 mov	 ecx, DWORD PTR [eax+8]

; 157  : 	if(pSellByPacket == NULL)

  00176	85 c9		 test	 ecx, ecx
  00178	0f 84 76 0a 00
	00		 je	 $LN10@DrawSellBy

; 158  : 		return false;
; 159  : 	pByDataList = pSellByPacket->GetnumericDataList();

  0017e	ff 15 00 00 00
	00		 call	 DWORD PTR __imp_?GetnumericDataList@CPacket@@QAEPAV?$CList@NN@@XZ

; 160  : 	
; 161  : 	// (2006.10.23 )    
; 162  : 	const CList<double, double>* pHogaDataList = NULL;
; 163  : 	pSellByPacket = packetList.GetPrev(TailPas);;

  00184	8b 4d d0	 mov	 ecx, DWORD PTR _TailPas$2$[ebp]
  00187	89 45 9c	 mov	 DWORD PTR _pByDataList$1$[ebp], eax
  0018a	8b 49 08	 mov	 ecx, DWORD PTR [ecx+8]

; 164  : 	if(pSellByPacket == NULL)

  0018d	85 c9		 test	 ecx, ecx
  0018f	0f 84 5f 0a 00
	00		 je	 $LN10@DrawSellBy

; 165  : 		return false;
; 166  : 	pHogaDataList = pSellByPacket->GetnumericDataList();

  00195	ff 15 00 00 00
	00		 call	 DWORD PTR __imp_?GetnumericDataList@CPacket@@QAEPAV?$CList@NN@@XZ

; 167  : 
; 168  : 	if(pHogaDataList == NULL || pHogaDataList->GetCount() <= 0)

  0019b	85 c0		 test	 eax, eax
  0019d	0f 84 51 0a 00
	00		 je	 $LN10@DrawSellBy
  001a3	39 78 0c	 cmp	 DWORD PTR [eax+12], edi
  001a6	0f 8e 48 0a 00
	00		 jle	 $LN10@DrawSellBy

; 170  : 	POSITION pos = pHogaDataList->GetHeadPosition();

  001ac	8b 48 04	 mov	 ecx, DWORD PTR [eax+4]
; File C:\Program Files (x86)\Microsoft Visual Studio\2019\Community\VC\Tools\MSVC\14.29.30133\atlmfc\include\afxtempl.h

; 793  : 	{ ENSURE(m_pNodeHead != NULL);

  001af	8b 45 c4	 mov	 eax, DWORD PTR _packetList$GSCopy$1$[ebp]
; File D:\git\src\IBK\IBK_DRFN\ProjSrc\SrcChartEx\ChartOCX\GraphDraw\PairBarDraw.cpp

; 170  : 	POSITION pos = pHogaDataList->GetHeadPosition();

  001b2	89 8d 48 ff ff
	ff		 mov	 DWORD PTR _pos$1$[ebp], ecx
; File C:\Program Files (x86)\Microsoft Visual Studio\2019\Community\VC\Tools\MSVC\14.29.30133\atlmfc\include\afxtempl.h

; 793  : 	{ ENSURE(m_pNodeHead != NULL);

  001b8	8b 40 04	 mov	 eax, DWORD PTR [eax+4]
  001bb	85 c0		 test	 eax, eax
  001bd	0f 84 50 0a 00
	00		 je	 $LN243@DrawSellBy
; File D:\git\src\IBK\IBK_DRFN\ProjSrc\SrcChartEx\ChartOCX\GraphDraw\PairBarDraw.cpp

; 172  : 	CRect drawingRegion = GetDrawingRegion(packetList.GetHead(), graphRegion, 

  001c3	ff 75 b8	 push	 DWORD PTR _dViewMax$GSCopy$1$[ebp]
  001c6	8b 4d 8c	 mov	 ecx, DWORD PTR _graphRegion$GSCopy$1$[ebp]
  001c9	ff 75 bc	 push	 DWORD PTR _dViewMin$GSCopy$1$[ebp]
  001cc	ff 75 20	 push	 DWORD PTR _nEndIndex$[ebp]
  001cf	ff 75 1c	 push	 DWORD PTR _nStartIndex$[ebp]
  001d2	ff 75 98	 push	 DWORD PTR _strSubGraphName$GSCopy$1$[ebp]
  001d5	51		 push	 ecx
  001d6	ff 70 08	 push	 DWORD PTR [eax+8]
  001d9	8d 45 e0	 lea	 eax, DWORD PTR _drawingRegion$[ebp]
  001dc	8b ce		 mov	 ecx, esi
  001de	50		 push	 eax
  001df	e8 00 00 00 00	 call	 ?GetDrawingRegion@CBarDraw@@QBE?AVCRect@@PAVCPacket@@ABV2@ABV?$CStringT@DV?$StrTraitMFC_DLL@DV?$ChTraitsCRT@D@ATL@@@@@ATL@@HHABN3@Z ; CBarDraw::GetDrawingRegion

; 173  : 		strSubGraphName, nStartIndex, nEndIndex, dViewMin, dViewMax);
; 174  : 	int nBarWidth = 1;
; 175  : 	double dBarMaxWidth = 0.0;
; 176  : 	GetBarWidth(drawingRegion, nDataCount, dBarMaxWidth, nBarWidth);

  001e4	8d 45 c0	 lea	 eax, DWORD PTR _nBarWidth$[ebp]
  001e7	c7 45 c0 01 00
	00 00		 mov	 DWORD PTR _nBarWidth$[ebp], 1
  001ee	50		 push	 eax
  001ef	8d 85 88 fe ff
	ff		 lea	 eax, DWORD PTR _dBarMaxWidth$[ebp]
  001f5	0f 57 c0	 xorps	 xmm0, xmm0
  001f8	50		 push	 eax
  001f9	ff 75 c8	 push	 DWORD PTR _nDataCount$1$[ebp]
  001fc	8d 45 e0	 lea	 eax, DWORD PTR _drawingRegion$[ebp]
  001ff	f2 0f 11 85 88
	fe ff ff	 movsd	 QWORD PTR _dBarMaxWidth$[ebp], xmm0
  00207	50		 push	 eax
  00208	8b ce		 mov	 ecx, esi
  0020a	e8 00 00 00 00	 call	 ?GetBarWidth@CBarDraw@@IAEXABVCRect@@HAANAAH@Z ; CBarDraw::GetBarWidth

; 177  : 	
; 178  : 	double	dMax,dMin,dHogaData;
; 179  : 	dMax = CDraw::CalLogValue(bLog,dViewMax);

  0020f	8b 45 b8	 mov	 eax, DWORD PTR _dViewMax$GSCopy$1$[ebp]
  00212	83 ec 08	 sub	 esp, 8
  00215	8b ce		 mov	 ecx, esi
  00217	f2 0f 10 00	 movsd	 xmm0, QWORD PTR [eax]
  0021b	f2 0f 11 04 24	 movsd	 QWORD PTR [esp], xmm0
  00220	ff 75 34	 push	 DWORD PTR _bLog$[ebp]
  00223	e8 00 00 00 00	 call	 ?CalLogValue@CDraw@@IAEN_NN@Z ; CDraw::CalLogValue

; 180  : 	dMin = CDraw::CalLogValue(bLog,dViewMin);

  00228	8b 45 bc	 mov	 eax, DWORD PTR _dViewMin$GSCopy$1$[ebp]
  0022b	83 ec 08	 sub	 esp, 8
  0022e	dd 9d 70 fe ff
	ff		 fstp	 QWORD PTR _dMax$[ebp]
  00234	8b ce		 mov	 ecx, esi
  00236	f2 0f 10 00	 movsd	 xmm0, QWORD PTR [eax]
  0023a	f2 0f 11 04 24	 movsd	 QWORD PTR [esp], xmm0
  0023f	ff 75 34	 push	 DWORD PTR _bLog$[ebp]
  00242	e8 00 00 00 00	 call	 ?CalLogValue@CDraw@@IAEN_NN@Z ; CDraw::CalLogValue

; 186  : 	double dTotalData = GetTotalData(pTotalDataList, nDataCount);

  00247	ff 75 c8	 push	 DWORD PTR _nDataCount$1$[ebp]
; File C:\Program Files (x86)\Microsoft Visual Studio\2019\Community\VC\Tools\MSVC\14.29.30133\atlmfc\include\atltypes.h

; 400  : 	x = 0;

  0024a	33 c0		 xor	 eax, eax
; File D:\git\src\IBK\IBK_DRFN\ProjSrc\SrcChartEx\ChartOCX\GraphDraw\PairBarDraw.cpp

; 186  : 	double dTotalData = GetTotalData(pTotalDataList, nDataCount);

  0024c	8b ce		 mov	 ecx, esi
  0024e	ff 75 90	 push	 DWORD PTR _pTotalDataList$1$[ebp]
  00251	dd 9d 80 fe ff
	ff		 fstp	 QWORD PTR _dMin$[ebp]
; File C:\Program Files (x86)\Microsoft Visual Studio\2019\Community\VC\Tools\MSVC\14.29.30133\atlmfc\include\atltypes.h

; 400  : 	x = 0;

  00257	89 45 b8	 mov	 DWORD PTR $T20[ebp], eax
  0025a	89 45 84	 mov	 DWORD PTR _oldByDataPt$[ebp], eax

; 401  : 	y = 0;

  0025d	89 45 ac	 mov	 DWORD PTR _oldByDataPt$1$[ebp], eax
  00260	89 45 88	 mov	 DWORD PTR _oldByDataPt$[ebp+4], eax

; 400  : 	x = 0;

  00263	89 45 b0	 mov	 DWORD PTR $T18[ebp], eax
  00266	89 85 7c ff ff
	ff		 mov	 DWORD PTR _oldSellDataPt$[ebp], eax

; 401  : 	y = 0;

  0026c	89 45 c4	 mov	 DWORD PTR _oldSellDataPt$1$[ebp], eax
  0026f	89 45 80	 mov	 DWORD PTR _oldSellDataPt$[ebp+4], eax
  00272	89 85 d4 fe ff
	ff		 mov	 DWORD PTR _SellDataPt$[ebp+4], eax
; File D:\git\src\IBK\IBK_DRFN\ProjSrc\SrcChartEx\ChartOCX\GraphDraw\PairBarDraw.cpp

; 186  : 	double dTotalData = GetTotalData(pTotalDataList, nDataCount);

  00278	e8 00 00 00 00	 call	 ?GetTotalData@CBarDraw@@IBENPAV?$CList@NN@@H@Z ; CBarDraw::GetTotalData

; 187  : 
; 188  : 	//sy 2005.01.26. ->  text type.
; 189  : 	// (2008/6/13 - Seung-Won, Bae) Show Values with Option.
; 190  : //	int nTextType = CBarDraw::GetTextType(pIndicatorInfo);
; 191  : 	//<>   text  .
; 192  : 	int nTextType = 0, nBuySellText = 1;
; 193  : 	if( pIndicatorInfo) if( g_iMetaTable.IsVolumeForSale( pIndicatorInfo->GetIndicatorName()))

  0027d	8b 45 cc	 mov	 eax, DWORD PTR _pIndicatorInfo$GSCopy$1$[ebp]
  00280	89 7d bc	 mov	 DWORD PTR _nTextType$1$[ebp], edi
  00283	c7 45 a4 01 00
	00 00		 mov	 DWORD PTR _nBuySellText$1$[ebp], 1
  0028a	dd 9d ec fe ff
	ff		 fstp	 QWORD PTR _dTotalData$[ebp]
  00290	85 c0		 test	 eax, eax
  00292	0f 84 db 00 00
	00		 je	 $LN15@DrawSellBy
  00298	8d 55 d0	 lea	 edx, DWORD PTR $T24[ebp]
  0029b	8b c8		 mov	 ecx, eax
  0029d	52		 push	 edx
  0029e	ff 15 00 00 00
	00		 call	 DWORD PTR __imp_?GetIndicatorName@CIndicatorInfo@@QBE?AV?$CStringT@DV?$StrTraitMFC_DLL@DV?$ChTraitsCRT@D@ATL@@@@@ATL@@XZ
  002a4	50		 push	 eax
  002a5	b9 00 00 00 00	 mov	 ecx, OFFSET ?g_iMetaTable@@3VIMetaTable@@A ; g_iMetaTable
  002aa	c7 45 fc 01 00
	00 00		 mov	 DWORD PTR __$EHRec$[ebp+8], 1
  002b1	e8 00 00 00 00	 call	 ?IsVolumeForSale@IMetaTable@@QAEHABV?$CStringT@DV?$StrTraitMFC_DLL@DV?$ChTraitsCRT@D@ATL@@@@@ATL@@@Z ; IMetaTable::IsVolumeForSale
  002b6	8d 4d d0	 lea	 ecx, DWORD PTR $T24[ebp]
  002b9	c7 45 fc ff ff
	ff ff		 mov	 DWORD PTR __$EHRec$[ebp+8], -1
  002c0	8b f0		 mov	 esi, eax
  002c2	ff 15 00 00 00
	00		 call	 DWORD PTR __imp_??1?$CStringT@DV?$StrTraitMFC_DLL@DV?$ChTraitsCRT@D@ATL@@@@@ATL@@QAE@XZ
  002c8	85 f6		 test	 esi, esi
  002ca	0f 84 a3 00 00
	00		 je	 $LN15@DrawSellBy

; 194  : 	{
; 195  : 		//0 :  1 :   2 :   3 : Data
; 196  : 		CList<double, double>* pDrawCondList = pIndicatorInfo->GetDrawConditionList();

  002d0	8b 4d cc	 mov	 ecx, DWORD PTR _pIndicatorInfo$GSCopy$1$[ebp]
  002d3	ff 15 00 00 00
	00		 call	 DWORD PTR __imp_?GetDrawConditionList@CIndicatorInfo@@QBEPAV?$CList@NN@@XZ
  002d9	8b f0		 mov	 esi, eax

; 197  : 		if( pDrawCondList)

  002db	85 f6		 test	 esi, esi
  002dd	0f 84 90 00 00
	00		 je	 $LN15@DrawSellBy

; 198  : 		{
; 199  : 			int nCount = pDrawCondList->GetCount();

  002e3	8b 46 0c	 mov	 eax, DWORD PTR [esi+12]
  002e6	89 45 d0	 mov	 DWORD PTR _nCount$1$[ebp], eax

; 200  : 			if( 0 < nCount)

  002e9	85 c0		 test	 eax, eax
  002eb	0f 8e 82 00 00
	00		 jle	 $LN15@DrawSellBy
; File C:\Program Files (x86)\Microsoft Visual Studio\2019\Community\VC\Tools\MSVC\14.29.30133\atlmfc\include\afxtempl.h

; 789  : 	{ ENSURE(m_pNodeHead != NULL);

  002f1	8b 46 04	 mov	 eax, DWORD PTR [esi+4]
  002f4	85 c0		 test	 eax, eax
  002f6	0f 84 17 09 00
	00		 je	 $LN243@DrawSellBy
; File D:\git\src\IBK\IBK_DRFN\ProjSrc\SrcChartEx\ChartOCX\GraphDraw\PairBarDraw.cpp

; 203  : 				if( pIndicatorInfo->GetIndicatorName() == _MTEXT( C2_BUY_SELL_OVERHANGING_SUPPLY) && 2 == nCount)

  002fc	f2 0f 2c 40 08	 cvttsd2si eax, QWORD PTR [eax+8]
  00301	8b 4d cc	 mov	 ecx, DWORD PTR _pIndicatorInfo$GSCopy$1$[ebp]
  00304	89 45 bc	 mov	 DWORD PTR _nTextType$1$[ebp], eax
  00307	8d 45 b4	 lea	 eax, DWORD PTR $T19[ebp]
  0030a	50		 push	 eax
  0030b	ff 15 00 00 00
	00		 call	 DWORD PTR __imp_?GetIndicatorName@CIndicatorInfo@@QBE?AV?$CStringT@DV?$StrTraitMFC_DLL@DV?$ChTraitsCRT@D@ATL@@@@@ATL@@XZ
  00311	8b 0d 54 00 00
	00		 mov	 ecx, DWORD PTR ?g_iMetaTable@@3VIMetaTable@@A+84
  00317	c7 45 fc 02 00
	00 00		 mov	 DWORD PTR __$EHRec$[ebp+8], 2
  0031e	c7 45 dc 01 00
	00 00		 mov	 DWORD PTR $T27[ebp], 1
; File C:\Program Files (x86)\Microsoft Visual Studio\2019\Community\VC\Tools\MSVC\14.29.30133\atlmfc\include\cstringt.h

; 2486 : 		return(str1.Compare(psz2) == 0);

  00325	ff b1 84 0c 00
	00		 push	 DWORD PTR [ecx+3204]
  0032b	8b c8		 mov	 ecx, eax
  0032d	ff 15 00 00 00
	00		 call	 DWORD PTR __imp_?Compare@?$CStringT@DV?$StrTraitMFC_DLL@DV?$ChTraitsCRT@D@ATL@@@@@ATL@@QBEHPBD@Z
  00333	85 c0		 test	 eax, eax
; File D:\git\src\IBK\IBK_DRFN\ProjSrc\SrcChartEx\ChartOCX\GraphDraw\PairBarDraw.cpp

; 203  : 				if( pIndicatorInfo->GetIndicatorName() == _MTEXT( C2_BUY_SELL_OVERHANGING_SUPPLY) && 2 == nCount)

  00335	75 0a		 jne	 SHORT $LN25@DrawSellBy
  00337	83 7d d0 02	 cmp	 DWORD PTR _nCount$1$[ebp], 2
  0033b	c6 45 db 01	 mov	 BYTE PTR $T26[ebp], 1
  0033f	74 04		 je	 SHORT $LN26@DrawSellBy
$LN25@DrawSellBy:
  00341	c6 45 db 00	 mov	 BYTE PTR $T26[ebp], 0
$LN26@DrawSellBy:
  00345	33 ff		 xor	 edi, edi
  00347	c7 45 fc ff ff
	ff ff		 mov	 DWORD PTR __$EHRec$[ebp+8], -1
  0034e	8d 4d b4	 lea	 ecx, DWORD PTR $T19[ebp]
  00351	89 7d dc	 mov	 DWORD PTR $T27[ebp], edi
  00354	ff 15 00 00 00
	00		 call	 DWORD PTR __imp_??1?$CStringT@DV?$StrTraitMFC_DLL@DV?$ChTraitsCRT@D@ATL@@@@@ATL@@QAE@XZ
  0035a	80 7d db 00	 cmp	 BYTE PTR $T26[ebp], 0
  0035e	74 13		 je	 SHORT $LN15@DrawSellBy
; File C:\Program Files (x86)\Microsoft Visual Studio\2019\Community\VC\Tools\MSVC\14.29.30133\atlmfc\include\afxtempl.h

; 797  : 	{ ENSURE(m_pNodeTail != NULL);

  00360	8b 46 08	 mov	 eax, DWORD PTR [esi+8]
  00363	85 c0		 test	 eax, eax
  00365	0f 84 a8 08 00
	00		 je	 $LN243@DrawSellBy
; File D:\git\src\IBK\IBK_DRFN\ProjSrc\SrcChartEx\ChartOCX\GraphDraw\PairBarDraw.cpp

; 204  : 					nBuySellText = pDrawCondList->GetTail();

  0036b	f2 0f 2c 40 08	 cvttsd2si eax, QWORD PTR [eax+8]
  00370	89 45 a4	 mov	 DWORD PTR _nBuySellText$1$[ebp], eax
$LN15@DrawSellBy:

; 210  : 	int nOrgMode = pDC->SetBkMode(TRANSPARENT);

  00373	8b 75 d4	 mov	 esi, DWORD PTR _pDC$GSCopy$1$[ebp]
  00376	8b ce		 mov	 ecx, esi
  00378	6a 01		 push	 1
  0037a	e8 00 00 00 00	 call	 ?SetBkMode@CDC@@QAEHH@Z	; CDC::SetBkMode
; File C:\Program Files (x86)\Microsoft Visual Studio\2019\Community\VC\Tools\MSVC\14.29.30133\atlmfc\include\afxwin1.inl

; 384  : 	{ ASSERT(m_hAttribDC != NULL); return ::GetTextColor(m_hAttribDC); }

  0037f	ff 76 08	 push	 DWORD PTR [esi+8]
; File D:\git\src\IBK\IBK_DRFN\ProjSrc\SrcChartEx\ChartOCX\GraphDraw\PairBarDraw.cpp

; 210  : 	int nOrgMode = pDC->SetBkMode(TRANSPARENT);

  00382	89 85 00 ff ff
	ff		 mov	 DWORD PTR _nOrgMode$1$[ebp], eax
; File C:\Program Files (x86)\Microsoft Visual Studio\2019\Community\VC\Tools\MSVC\14.29.30133\atlmfc\include\afxwin1.inl

; 384  : 	{ ASSERT(m_hAttribDC != NULL); return ::GetTextColor(m_hAttribDC); }

  00388	ff 15 00 00 00
	00		 call	 DWORD PTR __imp__GetTextColor@4

; 790  : 	{ ASSERT(m_hAttribDC != NULL); return CPen::FromHandle((HPEN)::GetCurrentObject(m_hAttribDC, OBJ_PEN)); }

  0038e	6a 01		 push	 1
  00390	ff 76 08	 push	 DWORD PTR [esi+8]
  00393	8b 35 00 00 00
	00		 mov	 esi, DWORD PTR __imp__GetCurrentObject@8
; File D:\git\src\IBK\IBK_DRFN\ProjSrc\SrcChartEx\ChartOCX\GraphDraw\PairBarDraw.cpp

; 211  : 	COLORREF nOrgTextColor = pDC->GetTextColor();

  00399	89 85 fc fe ff
	ff		 mov	 DWORD PTR _nOrgTextColor$1$[ebp], eax
; File C:\Program Files (x86)\Microsoft Visual Studio\2019\Community\VC\Tools\MSVC\14.29.30133\atlmfc\include\afxwin1.inl

; 790  : 	{ ASSERT(m_hAttribDC != NULL); return CPen::FromHandle((HPEN)::GetCurrentObject(m_hAttribDC, OBJ_PEN)); }

  0039f	ff d6		 call	 esi

; 102  : 	{ return (CPen*) CGdiObject::FromHandle(hPen); }

  003a1	50		 push	 eax
  003a2	e8 00 00 00 00	 call	 ?FromHandle@CGdiObject@@SGPAV1@PAX@Z ; CGdiObject::FromHandle

; 792  : 	{ ASSERT(m_hAttribDC != NULL); return CBrush::FromHandle((HBRUSH)::GetCurrentObject(m_hAttribDC, OBJ_BRUSH)); }

  003a7	8b 4d d4	 mov	 ecx, DWORD PTR _pDC$GSCopy$1$[ebp]
  003aa	6a 02		 push	 2
; File D:\git\src\IBK\IBK_DRFN\ProjSrc\SrcChartEx\ChartOCX\GraphDraw\PairBarDraw.cpp

; 212  : 	CPen* pOrgPen = pDC->GetCurrentPen();

  003ac	89 85 d4 fe ff
	ff		 mov	 DWORD PTR _pOrgPen$1$[ebp], eax
; File C:\Program Files (x86)\Microsoft Visual Studio\2019\Community\VC\Tools\MSVC\14.29.30133\atlmfc\include\afxwin1.inl

; 792  : 	{ ASSERT(m_hAttribDC != NULL); return CBrush::FromHandle((HBRUSH)::GetCurrentObject(m_hAttribDC, OBJ_BRUSH)); }

  003b2	ff 71 08	 push	 DWORD PTR [ecx+8]
  003b5	ff d6		 call	 esi

; 126  : 	{ return (CBrush*) CGdiObject::FromHandle(hBrush); }

  003b7	50		 push	 eax
  003b8	e8 00 00 00 00	 call	 ?FromHandle@CGdiObject@@SGPAV1@PAX@Z ; CGdiObject::FromHandle
; File D:\git\src\IBK\IBK_DRFN\ProjSrc\SrcChartEx\ChartOCX\GraphDraw\PairBarDraw.cpp

; 213  : 	CBrush* pOrgBrush = pDC->GetCurrentBrush();

  003bd	89 85 d8 fe ff
	ff		 mov	 DWORD PTR _pOrgBrush$1$[ebp], eax
; File C:\Program Files (x86)\Microsoft Visual Studio\2019\Community\VC\Tools\MSVC\14.29.30133\atlmfc\include\afxwin1.inl

; 70   : 	{ m_hObject = NULL; }

  003c3	c7 85 50 ff ff
	ff 00 00 00 00	 mov	 DWORD PTR _pen1$[ebp+4], 0

; 104  : 	{ }

  003cd	c7 85 4c ff ff
	ff 00 00 00 00	 mov	 DWORD PTR _pen1$[ebp], OFFSET ??_7CPen@@6B@
; File D:\git\src\IBK\IBK_DRFN\ProjSrc\SrcChartEx\ChartOCX\GraphDraw\PairBarDraw.cpp

; 214  : 	CPen pen1, pen2, pen3;

  003d7	c7 45 fc 03 00
	00 00		 mov	 DWORD PTR __$EHRec$[ebp+8], 3
; File C:\Program Files (x86)\Microsoft Visual Studio\2019\Community\VC\Tools\MSVC\14.29.30133\atlmfc\include\afxwin1.inl

; 70   : 	{ m_hObject = NULL; }

  003de	c7 85 58 ff ff
	ff 00 00 00 00	 mov	 DWORD PTR _pen2$[ebp+4], 0

; 104  : 	{ }

  003e8	c7 85 54 ff ff
	ff 00 00 00 00	 mov	 DWORD PTR _pen2$[ebp], OFFSET ??_7CPen@@6B@

; 70   : 	{ m_hObject = NULL; }

  003f2	c7 85 60 ff ff
	ff 00 00 00 00	 mov	 DWORD PTR _pen3$[ebp+4], 0

; 104  : 	{ }

  003fc	c7 85 5c ff ff
	ff 00 00 00 00	 mov	 DWORD PTR _pen3$[ebp], OFFSET ??_7CPen@@6B@

; 70   : 	{ m_hObject = NULL; }

  00406	c7 85 68 ff ff
	ff 00 00 00 00	 mov	 DWORD PTR _brush1$[ebp+4], 0

; 128  : 	{ }

  00410	c7 85 64 ff ff
	ff 00 00 00 00	 mov	 DWORD PTR _brush1$[ebp], OFFSET ??_7CBrush@@6B@

; 70   : 	{ m_hObject = NULL; }

  0041a	c7 85 70 ff ff
	ff 00 00 00 00	 mov	 DWORD PTR _brush2$[ebp+4], 0

; 128  : 	{ }

  00424	c7 85 6c ff ff
	ff 00 00 00 00	 mov	 DWORD PTR _brush2$[ebp], OFFSET ??_7CBrush@@6B@

; 70   : 	{ m_hObject = NULL; }

  0042e	c7 85 78 ff ff
	ff 00 00 00 00	 mov	 DWORD PTR _brush3$[ebp+4], 0

; 128  : 	{ }

  00438	c7 85 74 ff ff
	ff 00 00 00 00	 mov	 DWORD PTR _brush3$[ebp], OFFSET ??_7CBrush@@6B@
; File D:\git\src\IBK\IBK_DRFN\ProjSrc\SrcChartEx\ChartOCX\GraphDraw\PairBarDraw.cpp

; 216  : 	CreatePenAndBrush(graphColor, pen1, pen2, pen3, brush1, brush2, brush3);

  00442	8b 4d a8	 mov	 ecx, DWORD PTR _this$GSCopy$1$[ebp]
  00445	8d 85 74 ff ff
	ff		 lea	 eax, DWORD PTR _brush3$[ebp]
  0044b	50		 push	 eax
  0044c	8d 85 6c ff ff
	ff		 lea	 eax, DWORD PTR _brush2$[ebp]
  00452	c6 45 fc 08	 mov	 BYTE PTR __$EHRec$[ebp+8], 8
  00456	50		 push	 eax
  00457	8d 85 64 ff ff
	ff		 lea	 eax, DWORD PTR _brush1$[ebp]
  0045d	50		 push	 eax
  0045e	8d 85 5c ff ff
	ff		 lea	 eax, DWORD PTR _pen3$[ebp]
  00464	50		 push	 eax
  00465	8d 85 54 ff ff
	ff		 lea	 eax, DWORD PTR _pen2$[ebp]
  0046b	50		 push	 eax
  0046c	8d 85 4c ff ff
	ff		 lea	 eax, DWORD PTR _pen1$[ebp]
  00472	50		 push	 eax
  00473	ff 75 a0	 push	 DWORD PTR _graphColor$GSCopy$1$[ebp]
  00476	e8 00 00 00 00	 call	 ?CreatePenAndBrush@CBarDraw@@IAEXABVCGraphColor@@AAVCPen@@11AAVCBrush@@22@Z ; CBarDraw::CreatePenAndBrush

; 217  : 
; 218  : 	POSITION dataBuyPos = pByDataList->GetHeadPosition();
; 219  : 	POSITION dataSellPos = pSellDataList->GetHeadPosition();
; 220  : 	for(int nIndex = 0; nIndex <= nDataCount; nIndex++)

  0047b	83 7d c8 00	 cmp	 DWORD PTR _nDataCount$1$[ebp], 0
  0047f	8b 45 9c	 mov	 eax, DWORD PTR _pByDataList$1$[ebp]
  00482	8b 48 04	 mov	 ecx, DWORD PTR [eax+4]
  00485	8b 45 94	 mov	 eax, DWORD PTR _pSellDataList$1$[ebp]
  00488	8b 50 04	 mov	 edx, DWORD PTR [eax+4]
  0048b	0f 8c 68 06 00
	00		 jl	 $LN244@DrawSellBy

; 210  : 	int nOrgMode = pDC->SetBkMode(TRANSPARENT);

  00491	83 c8 ff	 or	 eax, -1
  00494	89 45 cc	 mov	 DWORD PTR tv2261[ebp], eax
  00497	66 0f 1f 84 00
	00 00 00 00	 npad	 9
$LL4@DrawSellBy:

; 221  : 	{
; 222  : 		if( !pos || !dataBuyPos || !dataSellPos) break;

  004a0	8b b5 48 ff ff
	ff		 mov	 esi, DWORD PTR _pos$1$[ebp]
  004a6	85 f6		 test	 esi, esi
  004a8	0f 84 4b 06 00
	00		 je	 $LN244@DrawSellBy
  004ae	85 c9		 test	 ecx, ecx
  004b0	0f 84 43 06 00
	00		 je	 $LN244@DrawSellBy
  004b6	85 d2		 test	 edx, edx
  004b8	0f 84 3b 06 00
	00		 je	 $LN244@DrawSellBy
; File C:\Program Files (x86)\Microsoft Visual Studio\2019\Community\VC\Tools\MSVC\14.29.30133\atlmfc\include\afxtempl.h

; 817  : 	{ CNode* pNode = (CNode*) rPosition;

  004be	8b c6		 mov	 eax, esi

; 818  : 		ASSERT(AfxIsValidAddress(pNode, sizeof(CNode)));
; 819  : 		rPosition = (POSITION) pNode->pNext;

  004c0	8b 36		 mov	 esi, DWORD PTR [esi]
  004c2	89 b5 48 ff ff
	ff		 mov	 DWORD PTR _pos$1$[ebp], esi
; File D:\git\src\IBK\IBK_DRFN\ProjSrc\SrcChartEx\ChartOCX\GraphDraw\PairBarDraw.cpp

; 225  : 		if(pos) dHogaData = pHogaDataList->GetNext(pos);

  004c8	f2 0f 10 40 08	 movsd	 xmm0, QWORD PTR [eax+8]
; File C:\Program Files (x86)\Microsoft Visual Studio\2019\Community\VC\Tools\MSVC\14.29.30133\atlmfc\include\afxtempl.h

; 811  : 	{ CNode* pNode = (CNode*) rPosition;

  004cd	8b c1		 mov	 eax, ecx

; 813  : 		rPosition = (POSITION) pNode->pNext;

  004cf	8b 09		 mov	 ecx, DWORD PTR [ecx]
; File D:\git\src\IBK\IBK_DRFN\ProjSrc\SrcChartEx\ChartOCX\GraphDraw\PairBarDraw.cpp

; 225  : 		if(pos) dHogaData = pHogaDataList->GetNext(pos);

  004d1	f2 0f 11 85 40
	ff ff ff	 movsd	 QWORD PTR _dHogaData$1$[ebp], xmm0
; File C:\Program Files (x86)\Microsoft Visual Studio\2019\Community\VC\Tools\MSVC\14.29.30133\atlmfc\include\afxtempl.h

; 813  : 		rPosition = (POSITION) pNode->pNext;

  004d9	89 8d 20 ff ff
	ff		 mov	 DWORD PTR _dataBuyPos$1$[ebp], ecx
; File D:\git\src\IBK\IBK_DRFN\ProjSrc\SrcChartEx\ChartOCX\GraphDraw\PairBarDraw.cpp

; 226  : 		dByData = pByDataList->GetNext( dataBuyPos);

  004df	f2 0f 10 40 08	 movsd	 xmm0, QWORD PTR [eax+8]
; File C:\Program Files (x86)\Microsoft Visual Studio\2019\Community\VC\Tools\MSVC\14.29.30133\atlmfc\include\afxtempl.h

; 811  : 	{ CNode* pNode = (CNode*) rPosition;

  004e4	8b c2		 mov	 eax, edx
; File D:\git\src\IBK\IBK_DRFN\ProjSrc\SrcChartEx\ChartOCX\GraphDraw\PairBarDraw.cpp

; 226  : 		dByData = pByDataList->GetNext( dataBuyPos);

  004e6	f2 0f 11 85 e4
	fe ff ff	 movsd	 QWORD PTR _dByData$[ebp], xmm0
; File C:\Program Files (x86)\Microsoft Visual Studio\2019\Community\VC\Tools\MSVC\14.29.30133\atlmfc\include\afxtempl.h

; 813  : 		rPosition = (POSITION) pNode->pNext;

  004ee	8b 12		 mov	 edx, DWORD PTR [edx]
  004f0	89 95 04 ff ff
	ff		 mov	 DWORD PTR _dataSellPos$1$[ebp], edx
; File D:\git\src\IBK\IBK_DRFN\ProjSrc\SrcChartEx\ChartOCX\GraphDraw\PairBarDraw.cpp

; 227  : 		dSellData = pSellDataList->GetNext( dataSellPos);

  004f6	f2 0f 10 40 08	 movsd	 xmm0, QWORD PTR [eax+8]

; 228  : 
; 229  : 		ByDataPt.x   = CDataConversion::GetHorizontalPoint_X(drawingRegion,	dHorzViewMin,dHorzViewMax,dByData);

  004fb	8d 85 e4 fe ff
	ff		 lea	 eax, DWORD PTR _dByData$[ebp]
  00501	50		 push	 eax
  00502	8d 85 f4 fe ff
	ff		 lea	 eax, DWORD PTR _dHorzViewMax$[ebp]
  00508	f2 0f 11 85 dc
	fe ff ff	 movsd	 QWORD PTR _dSellData$[ebp], xmm0
  00510	50		 push	 eax
  00511	8d 85 38 ff ff
	ff		 lea	 eax, DWORD PTR _dHorzViewMin$[ebp]
  00517	50		 push	 eax
  00518	8d 45 e0	 lea	 eax, DWORD PTR _drawingRegion$[ebp]
  0051b	50		 push	 eax
  0051c	e8 00 00 00 00	 call	 ?GetHorizontalPoint_X@CDataConversion@@SAHABVCRect@@ABN11@Z ; CDataConversion::GetHorizontalPoint_X
  00521	89 45 b4	 mov	 DWORD PTR _ByDataPt$1$[ebp], eax

; 230  : 		SellDataPt.x = CDataConversion::GetHorizontalPoint_X(drawingRegion,	dHorzViewMin,dHorzViewMax,dSellData);

  00524	8d 85 dc fe ff
	ff		 lea	 eax, DWORD PTR _dSellData$[ebp]
  0052a	50		 push	 eax
  0052b	8d 85 f4 fe ff
	ff		 lea	 eax, DWORD PTR _dHorzViewMax$[ebp]
  00531	50		 push	 eax
  00532	8d 85 38 ff ff
	ff		 lea	 eax, DWORD PTR _dHorzViewMin$[ebp]
  00538	50		 push	 eax
  00539	8d 45 e0	 lea	 eax, DWORD PTR _drawingRegion$[ebp]
  0053c	50		 push	 eax
  0053d	e8 00 00 00 00	 call	 ?GetHorizontalPoint_X@CDataConversion@@SAHABVCRect@@ABN11@Z ; CDataConversion::GetHorizontalPoint_X

; 232  : 		ByDataPt.y = SellDataPt.y = CMath::Round((dMax - CDraw::CalLogValue(bLog, dHogaData))/(dMax - dMin) * graphRegion.Height() + graphRegion.top) + 3;

  00542	f2 0f 10 85 40
	ff ff ff	 movsd	 xmm0, QWORD PTR _dHogaData$1$[ebp]
  0054a	83 c4 18	 add	 esp, 24			; 00000018H
  0054d	8b 4d a8	 mov	 ecx, DWORD PTR _this$GSCopy$1$[ebp]
  00550	89 45 d0	 mov	 DWORD PTR _SellDataPt$1$[ebp], eax
; File C:\Program Files (x86)\Microsoft Visual Studio\2019\Community\VC\Tools\MSVC\14.29.30133\atlmfc\include\atltypes.h

; 581  : 	return bottom - top;

  00553	8b 45 8c	 mov	 eax, DWORD PTR _graphRegion$GSCopy$1$[ebp]
; File D:\git\src\IBK\IBK_DRFN\ProjSrc\SrcChartEx\ChartOCX\GraphDraw\PairBarDraw.cpp

; 232  : 		ByDataPt.y = SellDataPt.y = CMath::Round((dMax - CDraw::CalLogValue(bLog, dHogaData))/(dMax - dMin) * graphRegion.Height() + graphRegion.top) + 3;

  00556	f2 0f 11 04 24	 movsd	 QWORD PTR [esp], xmm0
  0055b	ff 75 34	 push	 DWORD PTR _bLog$[ebp]
; File C:\Program Files (x86)\Microsoft Visual Studio\2019\Community\VC\Tools\MSVC\14.29.30133\atlmfc\include\atltypes.h

; 581  : 	return bottom - top;

  0055e	8b 70 0c	 mov	 esi, DWORD PTR [eax+12]
  00561	2b 70 04	 sub	 esi, DWORD PTR [eax+4]
; File D:\git\src\IBK\IBK_DRFN\ProjSrc\SrcChartEx\ChartOCX\GraphDraw\PairBarDraw.cpp

; 232  : 		ByDataPt.y = SellDataPt.y = CMath::Round((dMax - CDraw::CalLogValue(bLog, dHogaData))/(dMax - dMin) * graphRegion.Height() + graphRegion.top) + 3;

  00564	e8 00 00 00 00	 call	 ?CalLogValue@CDraw@@IAEN_NN@Z ; CDraw::CalLogValue
  00569	f2 0f 10 85 70
	fe ff ff	 movsd	 xmm0, QWORD PTR _dMax$[ebp]
  00571	83 ec 08	 sub	 esp, 8
  00574	0f 28 c8	 movaps	 xmm1, xmm0
  00577	8b 4d 8c	 mov	 ecx, DWORD PTR _graphRegion$GSCopy$1$[ebp]
  0057a	f2 0f 5c 85 80
	fe ff ff	 subsd	 xmm0, QWORD PTR _dMin$[ebp]
  00582	dd 9d 40 ff ff
	ff		 fstp	 QWORD PTR tv2434[ebp]
  00588	f2 0f 5c 8d 40
	ff ff ff	 subsd	 xmm1, QWORD PTR tv2434[ebp]
  00590	f2 0f 5e c8	 divsd	 xmm1, xmm0
  00594	66 0f 6e c6	 movd	 xmm0, esi
  00598	f3 0f e6 c0	 cvtdq2pd xmm0, xmm0
  0059c	f2 0f 59 c8	 mulsd	 xmm1, xmm0
  005a0	66 0f 6e 41 04	 movd	 xmm0, DWORD PTR [ecx+4]
  005a5	f3 0f e6 c0	 cvtdq2pd xmm0, xmm0
  005a9	f2 0f 58 c1	 addsd	 xmm0, xmm1
  005ad	f2 0f 11 04 24	 movsd	 QWORD PTR [esp], xmm0
  005b2	e8 00 00 00 00	 call	 ?Round@CMath@@SAHN@Z	; CMath::Round

; 233  : 
; 234  : 		if(nIndex > 0)

  005b7	8b 4d cc	 mov	 ecx, DWORD PTR tv2261[ebp]
  005ba	83 c4 08	 add	 esp, 8
  005bd	8d 50 03	 lea	 edx, DWORD PTR [eax+3]
  005c0	8d 41 01	 lea	 eax, DWORD PTR [ecx+1]
  005c3	89 95 0c ff ff
	ff		 mov	 DWORD PTR _ByDataPt$2$[ebp], edx
  005c9	89 85 44 ff ff
	ff		 mov	 DWORD PTR tv2260[ebp], eax
  005cf	85 c0		 test	 eax, eax
  005d1	0f 8e bd 04 00
	00		 jle	 $LN19@DrawSellBy

; 235  : 		{
; 236  : 			//   -2  (bottom = nBarWidth )
; 237  : 			//top +1 .(DrawBar_TextHorizontalBar() )
; 238  : 			nBarWidth = ByDataPt.y - oldByDataPt.y - 2;
; 239  : 			// (2008/4/23 - Seung-Won, Bae) Set minimum width for disapearing.
; 240  : 			if( nBarWidth < 3) nBarWidth = 3;
; 241  : 
; 242  : 			SelectPenAndBrushObject(pDC, &pen1, &pen2, &pen3, &brush1, &brush2, &brush3, 

  005d7	51		 push	 ecx
  005d8	51		 push	 ecx
  005d9	8b c2		 mov	 eax, edx
  005db	8b 75 a8	 mov	 esi, DWORD PTR _this$GSCopy$1$[ebp]
  005de	2b 45 ac	 sub	 eax, DWORD PTR _oldByDataPt$1$[ebp]
  005e1	ba 03 00 00 00	 mov	 edx, 3
  005e6	83 e8 02	 sub	 eax, 2
  005e9	83 f8 03	 cmp	 eax, 3
  005ec	51		 push	 ecx
  005ed	ff 75 a0	 push	 DWORD PTR _graphColor$GSCopy$1$[ebp]
  005f0	0f 4c c2	 cmovl	 eax, edx
  005f3	8b ce		 mov	 ecx, esi
  005f5	89 45 c0	 mov	 DWORD PTR _nBarWidth$[ebp], eax
  005f8	8d 85 74 ff ff
	ff		 lea	 eax, DWORD PTR _brush3$[ebp]
  005fe	50		 push	 eax
  005ff	8d 85 6c ff ff
	ff		 lea	 eax, DWORD PTR _brush2$[ebp]
  00605	50		 push	 eax
  00606	8d 85 64 ff ff
	ff		 lea	 eax, DWORD PTR _brush1$[ebp]
  0060c	50		 push	 eax
  0060d	8d 85 5c ff ff
	ff		 lea	 eax, DWORD PTR _pen3$[ebp]
  00613	50		 push	 eax
  00614	8d 85 54 ff ff
	ff		 lea	 eax, DWORD PTR _pen2$[ebp]
  0061a	50		 push	 eax
  0061b	8d 85 4c ff ff
	ff		 lea	 eax, DWORD PTR _pen1$[ebp]
  00621	50		 push	 eax
  00622	ff 75 d4	 push	 DWORD PTR _pDC$GSCopy$1$[ebp]
  00625	e8 00 00 00 00	 call	 ?SelectPenAndBrushObject@CBarDraw@@IAEXPAVCDC@@PAVCPen@@11PAVCBrush@@22ABVCGraphColor@@HHH@Z ; CBarDraw::SelectPenAndBrushObject

; 325  : 	switch( drawStyle.GetGraphBarDrawStyle())

  0062a	8b 4d 14	 mov	 ecx, DWORD PTR _drawStyle$[ebp]
  0062d	8b 01		 mov	 eax, DWORD PTR [ecx]
  0062f	85 c0		 test	 eax, eax
  00631	74 57		 je	 SHORT $LN170@DrawSellBy
  00633	83 f8 04	 cmp	 eax, 4
  00636	0f 85 a5 00 00
	00		 jne	 $LN172@DrawSellBy

; 340  : 			}
; 341  : 			break;
; 342  : 		}
; 343  : 		case CGraphBaseData::HorzLineBar_Draw:
; 344  : 		{
; 345  : 			CRect SellbarRect(graphRegion.left, SellDataPt.y + 1  , SellDataPt.x, ( SellDataPt.y + nBarWidth / 2));

  0063c	8b 45 c0	 mov	 eax, DWORD PTR _nBarWidth$[ebp]
  0063f	8b 4d c4	 mov	 ecx, DWORD PTR _oldSellDataPt$1$[ebp]
  00642	99		 cdq
  00643	2b c2		 sub	 eax, edx
  00645	d1 f8		 sar	 eax, 1
  00647	03 c1		 add	 eax, ecx
  00649	8d 51 01	 lea	 edx, DWORD PTR [ecx+1]
; File C:\Program Files (x86)\Microsoft Visual Studio\2019\Community\VC\Tools\MSVC\14.29.30133\atlmfc\include\atltypes.h

; 540  : 	left = l;

  0064c	8b 4d e0	 mov	 ecx, DWORD PTR _drawingRegion$[ebp]

; 543  : 	bottom = b;

  0064f	89 85 bc fe ff
	ff		 mov	 DWORD PTR _SellbarRect$5[ebp+12], eax
  00655	2b c2		 sub	 eax, edx
  00657	89 8d b0 fe ff
	ff		 mov	 DWORD PTR _SellbarRect$5[ebp], ecx
  0065d	8b 4d b0	 mov	 ecx, DWORD PTR $T18[ebp]
  00660	89 95 b4 fe ff
	ff		 mov	 DWORD PTR _SellbarRect$5[ebp+4], edx
  00666	89 8d b8 fe ff
	ff		 mov	 DWORD PTR _SellbarRect$5[ebp+8], ecx
; File D:\git\src\IBK\IBK_DRFN\ProjSrc\SrcChartEx\ChartOCX\GraphDraw\PairBarDraw.cpp

; 349  : 			if(SellbarRect.Height() <= 1)

  0066c	83 f8 01	 cmp	 eax, 1
  0066f	7f 10		 jg	 SHORT $LN174@DrawSellBy

; 350  : 			{
; 351  : 				CDraw::DrawLine(pDC, CPoint(SellbarRect.right, SellbarRect.top), CPoint(SellbarRect.right, SellbarRect.top));

  00671	52		 push	 edx
  00672	51		 push	 ecx
  00673	52		 push	 edx
  00674	51		 push	 ecx
  00675	ff 75 d4	 push	 DWORD PTR _pDC$GSCopy$1$[ebp]
  00678	8b ce		 mov	 ecx, esi
  0067a	e8 00 00 00 00	 call	 ?DrawLine@CDraw@@IAEXPAVCDC@@UtagPOINT@@1@Z ; CDraw::DrawLine

; 352  : 			}

  0067f	eb 60		 jmp	 SHORT $LN172@DrawSellBy
$LN174@DrawSellBy:

; 353  : 			else
; 354  : 			{
; 355  : 				CDraw::DrawRectangle(pDC, SellbarRect);

  00681	0f 10 85 b0 fe
	ff ff		 movups	 xmm0, XMMWORD PTR _SellbarRect$5[ebp]
  00688	eb 45		 jmp	 SHORT $LN248@DrawSellBy
$LN170@DrawSellBy:

; 329  : 			CRect SellbarRect(graphRegion.left, SellDataPt.y + 1  , SellDataPt.x, SellDataPt.y + nBarWidth);

  0068a	8b 4d c0	 mov	 ecx, DWORD PTR _nBarWidth$[ebp]
  0068d	8b 55 c4	 mov	 edx, DWORD PTR _oldSellDataPt$1$[ebp]
  00690	03 ca		 add	 ecx, edx
; File C:\Program Files (x86)\Microsoft Visual Studio\2019\Community\VC\Tools\MSVC\14.29.30133\atlmfc\include\atltypes.h

; 540  : 	left = l;

  00692	8b 45 e0	 mov	 eax, DWORD PTR _drawingRegion$[ebp]
; File D:\git\src\IBK\IBK_DRFN\ProjSrc\SrcChartEx\ChartOCX\GraphDraw\PairBarDraw.cpp

; 329  : 			CRect SellbarRect(graphRegion.left, SellDataPt.y + 1  , SellDataPt.x, SellDataPt.y + nBarWidth);

  00695	42		 inc	 edx
; File C:\Program Files (x86)\Microsoft Visual Studio\2019\Community\VC\Tools\MSVC\14.29.30133\atlmfc\include\atltypes.h

; 543  : 	bottom = b;

  00696	89 8d ac fe ff
	ff		 mov	 DWORD PTR _SellbarRect$4[ebp+12], ecx
  0069c	2b ca		 sub	 ecx, edx
  0069e	89 85 a0 fe ff
	ff		 mov	 DWORD PTR _SellbarRect$4[ebp], eax
  006a4	8b 45 b0	 mov	 eax, DWORD PTR $T18[ebp]
  006a7	89 95 a4 fe ff
	ff		 mov	 DWORD PTR _SellbarRect$4[ebp+4], edx
  006ad	89 85 a8 fe ff
	ff		 mov	 DWORD PTR _SellbarRect$4[ebp+8], eax
; File D:\git\src\IBK\IBK_DRFN\ProjSrc\SrcChartEx\ChartOCX\GraphDraw\PairBarDraw.cpp

; 333  : 			if(SellbarRect.Height() <= 1)

  006b3	83 f9 01	 cmp	 ecx, 1
  006b6	7f 10		 jg	 SHORT $LN171@DrawSellBy

; 334  : 			{
; 335  : 				CDraw::DrawLine(pDC, CPoint(SellbarRect.right, SellbarRect.top), CPoint(SellbarRect.right, SellbarRect.top));

  006b8	52		 push	 edx
  006b9	50		 push	 eax
  006ba	52		 push	 edx
  006bb	50		 push	 eax
  006bc	ff 75 d4	 push	 DWORD PTR _pDC$GSCopy$1$[ebp]
  006bf	8b ce		 mov	 ecx, esi
  006c1	e8 00 00 00 00	 call	 ?DrawLine@CDraw@@IAEXPAVCDC@@UtagPOINT@@1@Z ; CDraw::DrawLine

; 336  : 			}

  006c6	eb 19		 jmp	 SHORT $LN172@DrawSellBy
$LN171@DrawSellBy:

; 337  : 			else
; 338  : 			{
; 339  : 				CDraw::DrawRectangle(pDC, SellbarRect);

  006c8	0f 10 85 a0 fe
	ff ff		 movups	 xmm0, XMMWORD PTR _SellbarRect$4[ebp]
$LN248@DrawSellBy:

; 243  : 				graphColor, nIndex-1, nIndex-1, nIndex-1);
; 244  : 			DrawBar_SellHorizontalBar(pDC, drawStyle, drawingRegion, nBarWidth, bInvert, oldByDataPt,oldSellDataPt);
; 245  : 			SelectPenAndBrushObject(pDC, &pen1, &pen2, &pen3, &brush1, &brush2, &brush3, 

  006cf	83 ec 10	 sub	 esp, 16			; 00000010H
  006d2	8b ce		 mov	 ecx, esi
  006d4	8b c4		 mov	 eax, esp
  006d6	ff 75 d4	 push	 DWORD PTR _pDC$GSCopy$1$[ebp]
  006d9	0f 11 00	 movups	 XMMWORD PTR [eax], xmm0
  006dc	e8 00 00 00 00	 call	 ?DrawRectangle@CDraw@@IAEXPAVCDC@@VCRect@@@Z ; CDraw::DrawRectangle
$LN172@DrawSellBy:
  006e1	8b 45 cc	 mov	 eax, DWORD PTR tv2261[ebp]
  006e4	8b ce		 mov	 ecx, esi
  006e6	6a ff		 push	 -1
  006e8	6a ff		 push	 -1
  006ea	50		 push	 eax
  006eb	ff 75 a0	 push	 DWORD PTR _graphColor$GSCopy$1$[ebp]
  006ee	8d 85 74 ff ff
	ff		 lea	 eax, DWORD PTR _brush3$[ebp]
  006f4	50		 push	 eax
  006f5	8d 85 6c ff ff
	ff		 lea	 eax, DWORD PTR _brush2$[ebp]
  006fb	50		 push	 eax
  006fc	8d 85 64 ff ff
	ff		 lea	 eax, DWORD PTR _brush1$[ebp]
  00702	50		 push	 eax
  00703	8d 85 5c ff ff
	ff		 lea	 eax, DWORD PTR _pen3$[ebp]
  00709	50		 push	 eax
  0070a	8d 85 54 ff ff
	ff		 lea	 eax, DWORD PTR _pen2$[ebp]
  00710	50		 push	 eax
  00711	8d 85 4c ff ff
	ff		 lea	 eax, DWORD PTR _pen1$[ebp]
  00717	50		 push	 eax
  00718	ff 75 d4	 push	 DWORD PTR _pDC$GSCopy$1$[ebp]
  0071b	e8 00 00 00 00	 call	 ?SelectPenAndBrushObject@CBarDraw@@IAEXPAVCDC@@PAVCPen@@11PAVCBrush@@22ABVCGraphColor@@HHH@Z ; CBarDraw::SelectPenAndBrushObject

; 381  : 	switch( drawStyle.GetGraphBarDrawStyle())

  00720	8b 4d 14	 mov	 ecx, DWORD PTR _drawStyle$[ebp]
  00723	8b 01		 mov	 eax, DWORD PTR [ecx]
  00725	85 c0		 test	 eax, eax
  00727	74 60		 je	 SHORT $LN196@DrawSellBy
  00729	83 f8 04	 cmp	 eax, 4
  0072c	0f 85 c4 00 00
	00		 jne	 $LN198@DrawSellBy

; 401  : 			CRect BybarRect(graphRegion.left, ByDataPt.y + 1 + nBarWidth / 2 , ByDataPt.x, (ByDataPt.y + nBarWidth));

  00732	8b 45 c0	 mov	 eax, DWORD PTR _nBarWidth$[ebp]
  00735	8b 55 ac	 mov	 edx, DWORD PTR _oldByDataPt$1$[ebp]
  00738	8d 0c 02	 lea	 ecx, DWORD PTR [edx+eax]
  0073b	8b c0		 mov	 eax, eax
  0073d	85 c0		 test	 eax, eax
  0073f	79 03		 jns	 SHORT $LN253@DrawSellBy
  00741	83 c0 01	 add	 eax, 1
$LN253@DrawSellBy:
  00744	d1 f8		 sar	 eax, 1
  00746	42		 inc	 edx
; File C:\Program Files (x86)\Microsoft Visual Studio\2019\Community\VC\Tools\MSVC\14.29.30133\atlmfc\include\atltypes.h

; 543  : 	bottom = b;

  00747	89 8d 9c fe ff
	ff		 mov	 DWORD PTR _BybarRect$3[ebp+12], ecx
; File D:\git\src\IBK\IBK_DRFN\ProjSrc\SrcChartEx\ChartOCX\GraphDraw\PairBarDraw.cpp

; 401  : 			CRect BybarRect(graphRegion.left, ByDataPt.y + 1 + nBarWidth / 2 , ByDataPt.x, (ByDataPt.y + nBarWidth));

  0074d	03 c2		 add	 eax, edx
; File C:\Program Files (x86)\Microsoft Visual Studio\2019\Community\VC\Tools\MSVC\14.29.30133\atlmfc\include\atltypes.h

; 540  : 	left = l;

  0074f	8b 55 e0	 mov	 edx, DWORD PTR _drawingRegion$[ebp]

; 543  : 	bottom = b;

  00752	2b c8		 sub	 ecx, eax
  00754	89 95 90 fe ff
	ff		 mov	 DWORD PTR _BybarRect$3[ebp], edx
  0075a	8b 55 b8	 mov	 edx, DWORD PTR $T20[ebp]
; File D:\git\src\IBK\IBK_DRFN\ProjSrc\SrcChartEx\ChartOCX\GraphDraw\PairBarDraw.cpp

; 405  : 			if(BybarRect.Height() <= 1)

  0075d	83 f9 01	 cmp	 ecx, 1
; File C:\Program Files (x86)\Microsoft Visual Studio\2019\Community\VC\Tools\MSVC\14.29.30133\atlmfc\include\atltypes.h

; 541  : 	top = t;

  00760	89 85 94 fe ff
	ff		 mov	 DWORD PTR _BybarRect$3[ebp+4], eax
; File D:\git\src\IBK\IBK_DRFN\ProjSrc\SrcChartEx\ChartOCX\GraphDraw\PairBarDraw.cpp

; 405  : 			if(BybarRect.Height() <= 1)

  00766	8b ce		 mov	 ecx, esi
; File C:\Program Files (x86)\Microsoft Visual Studio\2019\Community\VC\Tools\MSVC\14.29.30133\atlmfc\include\atltypes.h

; 542  : 	right = r;

  00768	89 95 98 fe ff
	ff		 mov	 DWORD PTR _BybarRect$3[ebp+8], edx
; File D:\git\src\IBK\IBK_DRFN\ProjSrc\SrcChartEx\ChartOCX\GraphDraw\PairBarDraw.cpp

; 405  : 			if(BybarRect.Height() <= 1)

  0076e	7f 10		 jg	 SHORT $LN200@DrawSellBy

; 406  : 			{
; 407  : 				CDraw::DrawLine(pDC, CPoint(BybarRect.left, BybarRect.top), CPoint(BybarRect.right, BybarRect.top));

  00770	50		 push	 eax
  00771	52		 push	 edx
  00772	50		 push	 eax
  00773	ff 75 e0	 push	 DWORD PTR _drawingRegion$[ebp]
  00776	ff 75 d4	 push	 DWORD PTR _pDC$GSCopy$1$[ebp]
  00779	e8 00 00 00 00	 call	 ?DrawLine@CDraw@@IAEXPAVCDC@@UtagPOINT@@1@Z ; CDraw::DrawLine

; 408  : 			}

  0077e	eb 76		 jmp	 SHORT $LN198@DrawSellBy
$LN200@DrawSellBy:

; 409  : 			else
; 410  : 			{
; 411  : 				CDraw::DrawRectangle(pDC, BybarRect);

  00780	0f 10 85 90 fe
	ff ff		 movups	 xmm0, XMMWORD PTR _BybarRect$3[ebp]
  00787	eb 5d		 jmp	 SHORT $LN249@DrawSellBy
$LN196@DrawSellBy:

; 385  : 			CRect BybarRect( SellDataPt.x, ByDataPt.y + 1, SellDataPt.x + ( ByDataPt.x - graphRegion.left), (ByDataPt.y + nBarWidth));

  00789	8b 4d b0	 mov	 ecx, DWORD PTR $T18[ebp]
  0078c	8b f1		 mov	 esi, ecx
  0078e	2b 75 e0	 sub	 esi, DWORD PTR _drawingRegion$[ebp]
  00791	8b 55 ac	 mov	 edx, DWORD PTR _oldByDataPt$1$[ebp]
  00794	03 75 b8	 add	 esi, DWORD PTR $T20[ebp]
  00797	8b 45 c0	 mov	 eax, DWORD PTR _nBarWidth$[ebp]
  0079a	03 c2		 add	 eax, edx
  0079c	89 75 94	 mov	 DWORD PTR $T14[ebp], esi
  0079f	8d 72 01	 lea	 esi, DWORD PTR [edx+1]
; File C:\Program Files (x86)\Microsoft Visual Studio\2019\Community\VC\Tools\MSVC\14.29.30133\atlmfc\include\atltypes.h

; 543  : 	bottom = b;

  007a2	89 85 cc fe ff
	ff		 mov	 DWORD PTR _BybarRect$6[ebp+12], eax
  007a8	8b 55 94	 mov	 edx, DWORD PTR $T14[ebp]
  007ab	2b c6		 sub	 eax, esi
; File D:\git\src\IBK\IBK_DRFN\ProjSrc\SrcChartEx\ChartOCX\GraphDraw\PairBarDraw.cpp

; 385  : 			CRect BybarRect( SellDataPt.x, ByDataPt.y + 1, SellDataPt.x + ( ByDataPt.x - graphRegion.left), (ByDataPt.y + nBarWidth));

  007ad	89 75 cc	 mov	 DWORD PTR $T21[ebp], esi
; File C:\Program Files (x86)\Microsoft Visual Studio\2019\Community\VC\Tools\MSVC\14.29.30133\atlmfc\include\atltypes.h

; 541  : 	top = t;

  007b0	89 b5 c4 fe ff
	ff		 mov	 DWORD PTR _BybarRect$6[ebp+4], esi
; File D:\git\src\IBK\IBK_DRFN\ProjSrc\SrcChartEx\ChartOCX\GraphDraw\PairBarDraw.cpp

; 389  : 			if(BybarRect.Height() <= 1)

  007b6	8b 75 a8	 mov	 esi, DWORD PTR _this$GSCopy$1$[ebp]
; File C:\Program Files (x86)\Microsoft Visual Studio\2019\Community\VC\Tools\MSVC\14.29.30133\atlmfc\include\atltypes.h

; 540  : 	left = l;

  007b9	89 8d c0 fe ff
	ff		 mov	 DWORD PTR _BybarRect$6[ebp], ecx

; 542  : 	right = r;

  007bf	89 95 c8 fe ff
	ff		 mov	 DWORD PTR _BybarRect$6[ebp+8], edx
; File D:\git\src\IBK\IBK_DRFN\ProjSrc\SrcChartEx\ChartOCX\GraphDraw\PairBarDraw.cpp

; 389  : 			if(BybarRect.Height() <= 1)

  007c5	83 f8 01	 cmp	 eax, 1
  007c8	7f 13		 jg	 SHORT $LN197@DrawSellBy

; 390  : 			{
; 391  : 				CDraw::DrawLine(pDC, CPoint(BybarRect.left, BybarRect.top), CPoint(BybarRect.right, BybarRect.top));

  007ca	8b 45 cc	 mov	 eax, DWORD PTR $T21[ebp]
  007cd	50		 push	 eax
  007ce	52		 push	 edx
  007cf	50		 push	 eax
  007d0	51		 push	 ecx
  007d1	ff 75 d4	 push	 DWORD PTR _pDC$GSCopy$1$[ebp]
  007d4	8b ce		 mov	 ecx, esi
  007d6	e8 00 00 00 00	 call	 ?DrawLine@CDraw@@IAEXPAVCDC@@UtagPOINT@@1@Z ; CDraw::DrawLine

; 392  : 			}

  007db	eb 19		 jmp	 SHORT $LN198@DrawSellBy
$LN197@DrawSellBy:

; 393  : 			else
; 394  : 			{
; 395  : 				CDraw::DrawRectangle(pDC, BybarRect);

  007dd	0f 10 85 c0 fe
	ff ff		 movups	 xmm0, XMMWORD PTR _BybarRect$6[ebp]
  007e4	8b ce		 mov	 ecx, esi
$LN249@DrawSellBy:

; 246  : 				graphColor, nIndex-1, -1, -1);
; 247  : 			DrawBar_ByHorizontalBar(pDC, drawStyle, drawingRegion, nBarWidth, bInvert, oldByDataPt,oldSellDataPt);
; 248  : 
; 249  : 			// (2008/6/13 - Seung-Won, Bae) Show Values with Option.
; 250  : 			if( doldByData != 0 || doldSellData != 0)

  007e6	83 ec 10	 sub	 esp, 16			; 00000010H
  007e9	8b c4		 mov	 eax, esp
  007eb	ff 75 d4	 push	 DWORD PTR _pDC$GSCopy$1$[ebp]
  007ee	0f 11 00	 movups	 XMMWORD PTR [eax], xmm0
  007f1	e8 00 00 00 00	 call	 ?DrawRectangle@CDraw@@IAEXPAVCDC@@VCRect@@@Z ; CDraw::DrawRectangle
$LN198@DrawSellBy:
  007f6	f2 0f 10 85 30
	ff ff ff	 movsd	 xmm0, QWORD PTR _doldByData$[ebp]
  007fe	0f 57 c9	 xorps	 xmm1, xmm1
  00801	66 0f 2e c1	 ucomisd xmm0, xmm1
  00805	9f		 lahf
  00806	f6 c4 44	 test	 ah, 68			; 00000044H
  00809	7a 16		 jp	 SHORT $LN23@DrawSellBy
  0080b	f2 0f 10 85 28
	ff ff ff	 movsd	 xmm0, QWORD PTR _doldSellData$[ebp]
  00813	66 0f 2e c1	 ucomisd xmm0, xmm1
  00817	9f		 lahf
  00818	f6 c4 44	 test	 ah, 68			; 00000044H
  0081b	0f 8b 48 02 00
	00		 jnp	 $LN22@DrawSellBy
$LN23@DrawSellBy:

; 251  : 			{
; 252  : 				CString strByData	= ( nBuySellText == 1 ? GetDrawingText( nTextType, dTotalData, doldByData)					: "");

  00821	83 7d a4 01	 cmp	 DWORD PTR _nBuySellText$1$[ebp], 1
  00825	75 28		 jne	 SHORT $LN27@DrawSellBy
  00827	8d 85 30 ff ff
	ff		 lea	 eax, DWORD PTR _doldByData$[ebp]
  0082d	8b ce		 mov	 ecx, esi
  0082f	50		 push	 eax
  00830	8d 85 ec fe ff
	ff		 lea	 eax, DWORD PTR _dTotalData$[ebp]
  00836	50		 push	 eax
  00837	ff 75 bc	 push	 DWORD PTR _nTextType$1$[ebp]
  0083a	8d 85 08 ff ff
	ff		 lea	 eax, DWORD PTR $T7[ebp]
  00840	50		 push	 eax
  00841	e8 00 00 00 00	 call	 ?GetDrawingText@CBarDraw@@IBE?AV?$CStringT@DV?$StrTraitMFC_DLL@DV?$ChTraitsCRT@D@ATL@@@@@ATL@@HABN0@Z ; CBarDraw::GetDrawingText
  00846	c6 45 fc 09	 mov	 BYTE PTR __$EHRec$[ebp+8], 9
  0084a	83 cf 02	 or	 edi, 2
  0084d	eb 1b		 jmp	 SHORT $LN250@DrawSellBy
$LN27@DrawSellBy:
  0084f	68 00 00 00 00	 push	 OFFSET ??_C@_00CNPNBAHC@@
  00854	8d 8d 24 ff ff
	ff		 lea	 ecx, DWORD PTR $T12[ebp]
  0085a	ff 15 00 00 00
	00		 call	 DWORD PTR __imp_??0?$CStringT@DV?$StrTraitMFC_DLL@DV?$ChTraitsCRT@D@ATL@@@@@ATL@@QAE@PBD@Z
  00860	c7 45 fc 0a 00
	00 00		 mov	 DWORD PTR __$EHRec$[ebp+8], 10 ; 0000000aH
  00867	83 cf 04	 or	 edi, 4
$LN250@DrawSellBy:
  0086a	50		 push	 eax
  0086b	8d 4d 98	 lea	 ecx, DWORD PTR _strByData$16[ebp]
  0086e	89 7d dc	 mov	 DWORD PTR $T27[ebp], edi
  00871	ff 15 00 00 00
	00		 call	 DWORD PTR __imp_??0?$CStringT@DV?$StrTraitMFC_DLL@DV?$ChTraitsCRT@D@ATL@@@@@ATL@@QAE@ABV01@@Z
  00877	c7 45 fc 0b 00
	00 00		 mov	 DWORD PTR __$EHRec$[ebp+8], 11 ; 0000000bH
  0087e	8b c7		 mov	 eax, edi
  00880	a8 04		 test	 al, 4
  00882	74 15		 je	 SHORT $LN48@DrawSellBy
  00884	83 e0 fb	 and	 eax, -5			; fffffffbH
  00887	8d 8d 24 ff ff
	ff		 lea	 ecx, DWORD PTR $T12[ebp]
  0088d	89 45 dc	 mov	 DWORD PTR $T27[ebp], eax
  00890	ff 15 00 00 00
	00		 call	 DWORD PTR __imp_??1?$CStringT@DV?$StrTraitMFC_DLL@DV?$ChTraitsCRT@D@ATL@@@@@ATL@@QAE@XZ
  00896	8b 45 dc	 mov	 eax, DWORD PTR $T27[ebp]
$LN48@DrawSellBy:
  00899	c6 45 fc 0d	 mov	 BYTE PTR __$EHRec$[ebp+8], 13 ; 0000000dH
  0089d	a8 02		 test	 al, 2
  0089f	74 12		 je	 SHORT $LN49@DrawSellBy
  008a1	83 e0 fd	 and	 eax, -3			; fffffffdH
  008a4	8d 8d 08 ff ff
	ff		 lea	 ecx, DWORD PTR $T7[ebp]
  008aa	89 45 dc	 mov	 DWORD PTR $T27[ebp], eax
  008ad	ff 15 00 00 00
	00		 call	 DWORD PTR __imp_??1?$CStringT@DV?$StrTraitMFC_DLL@DV?$ChTraitsCRT@D@ATL@@@@@ATL@@QAE@XZ
$LN49@DrawSellBy:

; 253  : 				CString strSellData	= ( nBuySellText == 1 ? GetDrawingText( nTextType, dTotalData, doldSellData)				: "");

  008b3	83 7d a4 01	 cmp	 DWORD PTR _nBuySellText$1$[ebp], 1
  008b7	75 29		 jne	 SHORT $LN29@DrawSellBy
  008b9	8d 85 28 ff ff
	ff		 lea	 eax, DWORD PTR _doldSellData$[ebp]
  008bf	8b ce		 mov	 ecx, esi
  008c1	50		 push	 eax
  008c2	8d 85 ec fe ff
	ff		 lea	 eax, DWORD PTR _dTotalData$[ebp]
  008c8	50		 push	 eax
  008c9	ff 75 bc	 push	 DWORD PTR _nTextType$1$[ebp]
  008cc	8d 85 18 ff ff
	ff		 lea	 eax, DWORD PTR $T10[ebp]
  008d2	50		 push	 eax
  008d3	e8 00 00 00 00	 call	 ?GetDrawingText@CBarDraw@@IBE?AV?$CStringT@DV?$StrTraitMFC_DLL@DV?$ChTraitsCRT@D@ATL@@@@@ATL@@HABN0@Z ; CBarDraw::GetDrawingText
  008d8	83 4d dc 08	 or	 DWORD PTR $T27[ebp], 8
  008dc	c6 45 fc 0e	 mov	 BYTE PTR __$EHRec$[ebp+8], 14 ; 0000000eH
  008e0	eb 1c		 jmp	 SHORT $LN30@DrawSellBy
$LN29@DrawSellBy:
  008e2	68 00 00 00 00	 push	 OFFSET ??_C@_00CNPNBAHC@@
  008e7	8d 8d 1c ff ff
	ff		 lea	 ecx, DWORD PTR $T11[ebp]
  008ed	ff 15 00 00 00
	00		 call	 DWORD PTR __imp_??0?$CStringT@DV?$StrTraitMFC_DLL@DV?$ChTraitsCRT@D@ATL@@@@@ATL@@QAE@PBD@Z
  008f3	83 4d dc 10	 or	 DWORD PTR $T27[ebp], 16	; 00000010H
  008f7	c7 45 fc 0f 00
	00 00		 mov	 DWORD PTR __$EHRec$[ebp+8], 15 ; 0000000fH
$LN30@DrawSellBy:
  008fe	50		 push	 eax
  008ff	8d 4d 90	 lea	 ecx, DWORD PTR _strSellData$13[ebp]
  00902	ff 15 00 00 00
	00		 call	 DWORD PTR __imp_??0?$CStringT@DV?$StrTraitMFC_DLL@DV?$ChTraitsCRT@D@ATL@@@@@ATL@@QAE@ABV01@@Z
  00908	c7 45 fc 10 00
	00 00		 mov	 DWORD PTR __$EHRec$[ebp+8], 16 ; 00000010H
  0090f	8b 45 dc	 mov	 eax, DWORD PTR $T27[ebp]
  00912	a8 10		 test	 al, 16			; 00000010H
  00914	74 15		 je	 SHORT $LN55@DrawSellBy
  00916	83 e0 ef	 and	 eax, -17		; ffffffefH
  00919	8d 8d 1c ff ff
	ff		 lea	 ecx, DWORD PTR $T11[ebp]
  0091f	89 45 dc	 mov	 DWORD PTR $T27[ebp], eax
  00922	ff 15 00 00 00
	00		 call	 DWORD PTR __imp_??1?$CStringT@DV?$StrTraitMFC_DLL@DV?$ChTraitsCRT@D@ATL@@@@@ATL@@QAE@XZ
  00928	8b 45 dc	 mov	 eax, DWORD PTR $T27[ebp]
$LN55@DrawSellBy:
  0092b	c6 45 fc 12	 mov	 BYTE PTR __$EHRec$[ebp+8], 18 ; 00000012H
  0092f	a8 08		 test	 al, 8
  00931	74 12		 je	 SHORT $LN56@DrawSellBy
  00933	83 e0 f7	 and	 eax, -9			; fffffff7H
  00936	8d 8d 18 ff ff
	ff		 lea	 ecx, DWORD PTR $T10[ebp]
  0093c	89 45 dc	 mov	 DWORD PTR $T27[ebp], eax
  0093f	ff 15 00 00 00
	00		 call	 DWORD PTR __imp_??1?$CStringT@DV?$StrTraitMFC_DLL@DV?$ChTraitsCRT@D@ATL@@@@@ATL@@QAE@XZ
$LN56@DrawSellBy:

; 254  : 				CString strFullData	= ( nBuySellText == 0 ? GetDrawingText( nTextType, dTotalData, doldByData + doldSellData)	: "");

  00945	83 7d a4 00	 cmp	 DWORD PTR _nBuySellText$1$[ebp], 0
  00949	75 41		 jne	 SHORT $LN31@DrawSellBy
  0094b	f2 0f 10 85 28
	ff ff ff	 movsd	 xmm0, QWORD PTR _doldSellData$[ebp]
  00953	8d 85 78 fe ff
	ff		 lea	 eax, DWORD PTR $T2[ebp]
  00959	f2 0f 58 85 30
	ff ff ff	 addsd	 xmm0, QWORD PTR _doldByData$[ebp]
  00961	50		 push	 eax
  00962	8d 85 ec fe ff
	ff		 lea	 eax, DWORD PTR _dTotalData$[ebp]
  00968	8b ce		 mov	 ecx, esi
  0096a	50		 push	 eax
  0096b	ff 75 bc	 push	 DWORD PTR _nTextType$1$[ebp]
  0096e	8d 85 10 ff ff
	ff		 lea	 eax, DWORD PTR $T8[ebp]
  00974	f2 0f 11 85 78
	fe ff ff	 movsd	 QWORD PTR $T2[ebp], xmm0
  0097c	50		 push	 eax
  0097d	e8 00 00 00 00	 call	 ?GetDrawingText@CBarDraw@@IBE?AV?$CStringT@DV?$StrTraitMFC_DLL@DV?$ChTraitsCRT@D@ATL@@@@@ATL@@HABN0@Z ; CBarDraw::GetDrawingText
  00982	83 4d dc 20	 or	 DWORD PTR $T27[ebp], 32	; 00000020H
  00986	c6 45 fc 13	 mov	 BYTE PTR __$EHRec$[ebp+8], 19 ; 00000013H
  0098a	eb 1c		 jmp	 SHORT $LN32@DrawSellBy
$LN31@DrawSellBy:
  0098c	68 00 00 00 00	 push	 OFFSET ??_C@_00CNPNBAHC@@
  00991	8d 8d 14 ff ff
	ff		 lea	 ecx, DWORD PTR $T9[ebp]
  00997	ff 15 00 00 00
	00		 call	 DWORD PTR __imp_??0?$CStringT@DV?$StrTraitMFC_DLL@DV?$ChTraitsCRT@D@ATL@@@@@ATL@@QAE@PBD@Z
  0099d	83 4d dc 40	 or	 DWORD PTR $T27[ebp], 64	; 00000040H
  009a1	c7 45 fc 14 00
	00 00		 mov	 DWORD PTR __$EHRec$[ebp+8], 20 ; 00000014H
$LN32@DrawSellBy:
  009a8	50		 push	 eax
  009a9	8d 4d 9c	 lea	 ecx, DWORD PTR _strFullData$17[ebp]
  009ac	ff 15 00 00 00
	00		 call	 DWORD PTR __imp_??0?$CStringT@DV?$StrTraitMFC_DLL@DV?$ChTraitsCRT@D@ATL@@@@@ATL@@QAE@ABV01@@Z
  009b2	c7 45 fc 15 00
	00 00		 mov	 DWORD PTR __$EHRec$[ebp+8], 21 ; 00000015H
  009b9	8b 45 dc	 mov	 eax, DWORD PTR $T27[ebp]
  009bc	a8 40		 test	 al, 64			; 00000040H
  009be	74 15		 je	 SHORT $LN62@DrawSellBy
  009c0	83 e0 bf	 and	 eax, -65		; ffffffbfH
  009c3	8d 8d 14 ff ff
	ff		 lea	 ecx, DWORD PTR $T9[ebp]
  009c9	89 45 dc	 mov	 DWORD PTR $T27[ebp], eax
  009cc	ff 15 00 00 00
	00		 call	 DWORD PTR __imp_??1?$CStringT@DV?$StrTraitMFC_DLL@DV?$ChTraitsCRT@D@ATL@@@@@ATL@@QAE@XZ
  009d2	8b 45 dc	 mov	 eax, DWORD PTR $T27[ebp]
$LN62@DrawSellBy:
  009d5	c6 45 fc 17	 mov	 BYTE PTR __$EHRec$[ebp+8], 23 ; 00000017H
  009d9	a8 20		 test	 al, 32			; 00000020H
  009db	74 12		 je	 SHORT $LN63@DrawSellBy
  009dd	83 e0 df	 and	 eax, -33		; ffffffdfH
  009e0	8d 8d 10 ff ff
	ff		 lea	 ecx, DWORD PTR $T8[ebp]
  009e6	89 45 dc	 mov	 DWORD PTR $T27[ebp], eax
  009e9	ff 15 00 00 00
	00		 call	 DWORD PTR __imp_??1?$CStringT@DV?$StrTraitMFC_DLL@DV?$ChTraitsCRT@D@ATL@@@@@ATL@@QAE@XZ
$LN63@DrawSellBy:

; 255  : 				DrawText_SellByHorizontalBar( pDC, drawingRegion, oldByDataPt, oldSellDataPt, strByData, strSellData, strFullData, nBarWidth, graphColor);

  009ef	ff 75 a0	 push	 DWORD PTR _graphColor$GSCopy$1$[ebp]
  009f2	8d 45 9c	 lea	 eax, DWORD PTR _strFullData$17[ebp]
  009f5	ff 75 c0	 push	 DWORD PTR _nBarWidth$[ebp]
  009f8	51		 push	 ecx
  009f9	8b cc		 mov	 ecx, esp
  009fb	89 65 94	 mov	 DWORD PTR $T15[ebp], esp
  009fe	50		 push	 eax
  009ff	ff 15 00 00 00
	00		 call	 DWORD PTR __imp_??0?$CStringT@DV?$StrTraitMFC_DLL@DV?$ChTraitsCRT@D@ATL@@@@@ATL@@QAE@ABV01@@Z
  00a05	51		 push	 ecx
  00a06	8d 45 90	 lea	 eax, DWORD PTR _strSellData$13[ebp]
  00a09	89 65 cc	 mov	 DWORD PTR $T22[ebp], esp
  00a0c	8b cc		 mov	 ecx, esp
  00a0e	c6 45 fc 18	 mov	 BYTE PTR __$EHRec$[ebp+8], 24 ; 00000018H
  00a12	50		 push	 eax
  00a13	ff 15 00 00 00
	00		 call	 DWORD PTR __imp_??0?$CStringT@DV?$StrTraitMFC_DLL@DV?$ChTraitsCRT@D@ATL@@@@@ATL@@QAE@ABV01@@Z
  00a19	51		 push	 ecx
  00a1a	8d 45 98	 lea	 eax, DWORD PTR _strByData$16[ebp]
  00a1d	c6 45 fc 19	 mov	 BYTE PTR __$EHRec$[ebp+8], 25 ; 00000019H
  00a21	8b cc		 mov	 ecx, esp
  00a23	50		 push	 eax
  00a24	ff 15 00 00 00
	00		 call	 DWORD PTR __imp_??0?$CStringT@DV?$StrTraitMFC_DLL@DV?$ChTraitsCRT@D@ATL@@@@@ATL@@QAE@ABV01@@Z
  00a2a	8d 85 7c ff ff
	ff		 lea	 eax, DWORD PTR _oldSellDataPt$[ebp]
  00a30	c6 45 fc 17	 mov	 BYTE PTR __$EHRec$[ebp+8], 23 ; 00000017H
  00a34	50		 push	 eax
  00a35	8d 45 84	 lea	 eax, DWORD PTR _oldByDataPt$[ebp]
  00a38	8b ce		 mov	 ecx, esi
  00a3a	50		 push	 eax
  00a3b	8d 45 e0	 lea	 eax, DWORD PTR _drawingRegion$[ebp]
  00a3e	50		 push	 eax
  00a3f	ff 75 d4	 push	 DWORD PTR _pDC$GSCopy$1$[ebp]
  00a42	e8 00 00 00 00	 call	 ?DrawText_SellByHorizontalBar@CPairBarDraw@@IAEXPAVCDC@@ABVCRect@@ABVCPoint@@2V?$CStringT@DV?$StrTraitMFC_DLL@DV?$ChTraitsCRT@D@ATL@@@@@ATL@@33FABVCGraphColor@@@Z ; CPairBarDraw::DrawText_SellByHorizontalBar

; 256  : 			}

  00a47	8d 4d 9c	 lea	 ecx, DWORD PTR _strFullData$17[ebp]
  00a4a	ff 15 00 00 00
	00		 call	 DWORD PTR __imp_??1?$CStringT@DV?$StrTraitMFC_DLL@DV?$ChTraitsCRT@D@ATL@@@@@ATL@@QAE@XZ
  00a50	8d 4d 90	 lea	 ecx, DWORD PTR _strSellData$13[ebp]
  00a53	ff 15 00 00 00
	00		 call	 DWORD PTR __imp_??1?$CStringT@DV?$StrTraitMFC_DLL@DV?$ChTraitsCRT@D@ATL@@@@@ATL@@QAE@XZ
  00a59	8d 4d 98	 lea	 ecx, DWORD PTR _strByData$16[ebp]
  00a5c	c6 45 fc 08	 mov	 BYTE PTR __$EHRec$[ebp+8], 8
  00a60	ff 15 00 00 00
	00		 call	 DWORD PTR __imp_??1?$CStringT@DV?$StrTraitMFC_DLL@DV?$ChTraitsCRT@D@ATL@@@@@ATL@@QAE@XZ
  00a66	8b 7d dc	 mov	 edi, DWORD PTR $T27[ebp]
$LN22@DrawSellBy:

; 257  : 
; 258  : 			oldByDataPt = ByDataPt;

  00a69	8b 85 0c ff ff
	ff		 mov	 eax, DWORD PTR _ByDataPt$2$[ebp]
  00a6f	8b d0		 mov	 edx, eax
  00a71	8b 75 b4	 mov	 esi, DWORD PTR _ByDataPt$1$[ebp]

; 259  : 			oldSellDataPt = SellDataPt;

  00a74	8b 4d d0	 mov	 ecx, DWORD PTR _SellDataPt$1$[ebp]
  00a77	89 75 b8	 mov	 DWORD PTR $T20[ebp], esi
  00a7a	89 55 ac	 mov	 DWORD PTR _oldByDataPt$1$[ebp], edx
  00a7d	89 75 84	 mov	 DWORD PTR _oldByDataPt$[ebp], esi
  00a80	89 55 88	 mov	 DWORD PTR _oldByDataPt$[ebp+4], edx
  00a83	89 4d b0	 mov	 DWORD PTR $T18[ebp], ecx
  00a86	89 45 c4	 mov	 DWORD PTR _oldSellDataPt$1$[ebp], eax
  00a89	89 8d 7c ff ff
	ff		 mov	 DWORD PTR _oldSellDataPt$[ebp], ecx
  00a8f	89 45 80	 mov	 DWORD PTR _oldSellDataPt$[ebp+4], eax

; 260  : 			doldByData = dByData;
; 261  : 			doldSellData = dSellData;
; 262  : 		}

  00a92	eb 26		 jmp	 SHORT $LN251@DrawSellBy
$LN19@DrawSellBy:

; 263  : 		else
; 264  : 		{
; 265  : 			oldByDataPt = ByDataPt;

  00a94	8b 45 b4	 mov	 eax, DWORD PTR _ByDataPt$1$[ebp]

; 266  : 			oldSellDataPt = SellDataPt;
; 267  : 			doldByData = dByData;
; 268  : 			doldSellData = dSellData;

  00a97	83 c2 fc	 add	 edx, -4			; fffffffcH
  00a9a	89 45 b8	 mov	 DWORD PTR $T20[ebp], eax
  00a9d	89 45 84	 mov	 DWORD PTR _oldByDataPt$[ebp], eax
  00aa0	8b 45 d0	 mov	 eax, DWORD PTR _SellDataPt$1$[ebp]
  00aa3	89 45 b0	 mov	 DWORD PTR $T18[ebp], eax
  00aa6	89 85 7c ff ff
	ff		 mov	 DWORD PTR _oldSellDataPt$[ebp], eax

; 269  : 			// (2008/4/23 - Seung-Won, Bae) Move 3 pixel down to include Bottom Limmit.
; 270  : 			oldByDataPt.y = oldSellDataPt.y = oldSellDataPt.y - 4;

  00aac	8b c2		 mov	 eax, edx
  00aae	89 55 c4	 mov	 DWORD PTR _oldSellDataPt$1$[ebp], edx
  00ab1	89 55 80	 mov	 DWORD PTR _oldSellDataPt$[ebp+4], edx
  00ab4	89 45 ac	 mov	 DWORD PTR _oldByDataPt$1$[ebp], eax
  00ab7	89 45 88	 mov	 DWORD PTR _oldByDataPt$[ebp+4], eax
$LN251@DrawSellBy:

; 217  : 
; 218  : 	POSITION dataBuyPos = pByDataList->GetHeadPosition();
; 219  : 	POSITION dataSellPos = pSellDataList->GetHeadPosition();
; 220  : 	for(int nIndex = 0; nIndex <= nDataCount; nIndex++)

  00aba	f2 0f 10 85 e4
	fe ff ff	 movsd	 xmm0, QWORD PTR _dByData$[ebp]
  00ac2	8b 85 44 ff ff
	ff		 mov	 eax, DWORD PTR tv2260[ebp]
  00ac8	8b 8d 20 ff ff
	ff		 mov	 ecx, DWORD PTR _dataBuyPos$1$[ebp]
  00ace	8b 95 04 ff ff
	ff		 mov	 edx, DWORD PTR _dataSellPos$1$[ebp]
  00ad4	89 45 cc	 mov	 DWORD PTR tv2261[ebp], eax
  00ad7	40		 inc	 eax
  00ad8	f2 0f 11 85 30
	ff ff ff	 movsd	 QWORD PTR _doldByData$[ebp], xmm0
  00ae0	f2 0f 10 85 dc
	fe ff ff	 movsd	 xmm0, QWORD PTR _dSellData$[ebp]
  00ae8	f2 0f 11 85 28
	ff ff ff	 movsd	 QWORD PTR _doldSellData$[ebp], xmm0
  00af0	3b 45 c8	 cmp	 eax, DWORD PTR _nDataCount$1$[ebp]
  00af3	0f 8e a7 f9 ff
	ff		 jle	 $LL4@DrawSellBy
$LN244@DrawSellBy:

; 271  : 		}
; 272  : 	}
; 273  : 
; 274  : 	pDC->SetBkMode(nOrgMode);

  00af9	ff b5 00 ff ff
	ff		 push	 DWORD PTR _nOrgMode$1$[ebp]
  00aff	8b 75 d4	 mov	 esi, DWORD PTR _pDC$GSCopy$1$[ebp]
  00b02	8b ce		 mov	 ecx, esi
  00b04	e8 00 00 00 00	 call	 ?SetBkMode@CDC@@QAEHH@Z	; CDC::SetBkMode

; 275  : 	pDC->SetTextColor(nOrgTextColor);

  00b09	8b 06		 mov	 eax, DWORD PTR [esi]
  00b0b	8b ce		 mov	 ecx, esi
  00b0d	ff b5 fc fe ff
	ff		 push	 DWORD PTR _nOrgTextColor$1$[ebp]
  00b13	ff 50 38	 call	 DWORD PTR [eax+56]

; 276  : 	pDC->SelectObject(pOrgBrush);

  00b16	ff b5 d8 fe ff
	ff		 push	 DWORD PTR _pOrgBrush$1$[ebp]
  00b1c	8b ce		 mov	 ecx, esi
  00b1e	e8 00 00 00 00	 call	 ?SelectObject@CDC@@QAEPAVCBrush@@PAV2@@Z ; CDC::SelectObject

; 277  : 	pDC->SelectObject(pOrgPen);

  00b23	ff b5 d4 fe ff
	ff		 push	 DWORD PTR _pOrgPen$1$[ebp]
  00b29	8b ce		 mov	 ecx, esi
  00b2b	e8 00 00 00 00	 call	 ?SelectObject@CDC@@QAEPAVCPen@@PAV2@@Z ; CDC::SelectObject

; 278  : 
; 279  : 	pen1.DeleteObject();

  00b30	8d 8d 4c ff ff
	ff		 lea	 ecx, DWORD PTR _pen1$[ebp]
  00b36	e8 00 00 00 00	 call	 ?DeleteObject@CGdiObject@@QAEHXZ ; CGdiObject::DeleteObject

; 280  : 	pen2.DeleteObject();

  00b3b	8d 8d 54 ff ff
	ff		 lea	 ecx, DWORD PTR _pen2$[ebp]
  00b41	e8 00 00 00 00	 call	 ?DeleteObject@CGdiObject@@QAEHXZ ; CGdiObject::DeleteObject

; 281  : 	pen3.DeleteObject();

  00b46	8d 8d 5c ff ff
	ff		 lea	 ecx, DWORD PTR _pen3$[ebp]
  00b4c	e8 00 00 00 00	 call	 ?DeleteObject@CGdiObject@@QAEHXZ ; CGdiObject::DeleteObject

; 282  : 	brush1.DeleteObject();

  00b51	8d 8d 64 ff ff
	ff		 lea	 ecx, DWORD PTR _brush1$[ebp]
  00b57	e8 00 00 00 00	 call	 ?DeleteObject@CGdiObject@@QAEHXZ ; CGdiObject::DeleteObject

; 283  : 	brush2.DeleteObject();

  00b5c	8d 8d 6c ff ff
	ff		 lea	 ecx, DWORD PTR _brush2$[ebp]
  00b62	e8 00 00 00 00	 call	 ?DeleteObject@CGdiObject@@QAEHXZ ; CGdiObject::DeleteObject

; 284  : 	brush3.DeleteObject();

  00b67	8d 8d 74 ff ff
	ff		 lea	 ecx, DWORD PTR _brush3$[ebp]
  00b6d	e8 00 00 00 00	 call	 ?DeleteObject@CGdiObject@@QAEHXZ ; CGdiObject::DeleteObject
; File C:\Program Files (x86)\Microsoft Visual Studio\2019\Community\VC\Tools\MSVC\14.29.30133\atlmfc\include\afxwin1.inl

; 130  : 	{ }

  00b72	8d 8d 74 ff ff
	ff		 lea	 ecx, DWORD PTR _brush3$[ebp]
  00b78	c7 85 74 ff ff
	ff 00 00 00 00	 mov	 DWORD PTR _brush3$[ebp], OFFSET ??_7CBrush@@6B@
  00b82	e8 00 00 00 00	 call	 ??1CGdiObject@@UAE@XZ	; CGdiObject::~CGdiObject
  00b87	8d 8d 6c ff ff
	ff		 lea	 ecx, DWORD PTR _brush2$[ebp]
  00b8d	c7 85 6c ff ff
	ff 00 00 00 00	 mov	 DWORD PTR _brush2$[ebp], OFFSET ??_7CBrush@@6B@
  00b97	e8 00 00 00 00	 call	 ??1CGdiObject@@UAE@XZ	; CGdiObject::~CGdiObject
  00b9c	8d 8d 64 ff ff
	ff		 lea	 ecx, DWORD PTR _brush1$[ebp]
  00ba2	c7 85 64 ff ff
	ff 00 00 00 00	 mov	 DWORD PTR _brush1$[ebp], OFFSET ??_7CBrush@@6B@
  00bac	e8 00 00 00 00	 call	 ??1CGdiObject@@UAE@XZ	; CGdiObject::~CGdiObject

; 106  : 	{ }

  00bb1	8d 8d 5c ff ff
	ff		 lea	 ecx, DWORD PTR _pen3$[ebp]
  00bb7	c7 85 5c ff ff
	ff 00 00 00 00	 mov	 DWORD PTR _pen3$[ebp], OFFSET ??_7CPen@@6B@
  00bc1	e8 00 00 00 00	 call	 ??1CGdiObject@@UAE@XZ	; CGdiObject::~CGdiObject
  00bc6	8d 8d 54 ff ff
	ff		 lea	 ecx, DWORD PTR _pen2$[ebp]
  00bcc	c7 85 54 ff ff
	ff 00 00 00 00	 mov	 DWORD PTR _pen2$[ebp], OFFSET ??_7CPen@@6B@
  00bd6	e8 00 00 00 00	 call	 ??1CGdiObject@@UAE@XZ	; CGdiObject::~CGdiObject
  00bdb	8d 8d 4c ff ff
	ff		 lea	 ecx, DWORD PTR _pen1$[ebp]
  00be1	c7 85 4c ff ff
	ff 00 00 00 00	 mov	 DWORD PTR _pen1$[ebp], OFFSET ??_7CPen@@6B@
  00beb	e8 00 00 00 00	 call	 ??1CGdiObject@@UAE@XZ	; CGdiObject::~CGdiObject
; File D:\git\src\IBK\IBK_DRFN\ProjSrc\SrcChartEx\ChartOCX\GraphDraw\PairBarDraw.cpp

; 285  : 	return true;

  00bf0	b0 01		 mov	 al, 1
  00bf2	eb 02		 jmp	 SHORT $LN1@DrawSellBy
$LN10@DrawSellBy:

; 169  : 		return false;

  00bf4	32 c0		 xor	 al, al
$LN1@DrawSellBy:

; 287  : }

  00bf6	8b 4d f4	 mov	 ecx, DWORD PTR __$EHRec$[ebp]
  00bf9	64 89 0d 00 00
	00 00		 mov	 DWORD PTR fs:0, ecx
  00c00	59		 pop	 ecx
  00c01	5f		 pop	 edi
  00c02	5e		 pop	 esi
  00c03	8b 4d f0	 mov	 ecx, DWORD PTR __$ArrayPad$[ebp]
  00c06	33 cd		 xor	 ecx, ebp
  00c08	e8 00 00 00 00	 call	 @__security_check_cookie@4
  00c0d	8b e5		 mov	 esp, ebp
  00c0f	5d		 pop	 ebp
  00c10	c2 38 00	 ret	 56			; 00000038H
$LN243@DrawSellBy:
; File C:\Program Files (x86)\Microsoft Visual Studio\2019\Community\VC\Tools\MSVC\14.29.30133\atlmfc\include\afxtempl.h

; 797  : 	{ ENSURE(m_pNodeTail != NULL);

  00c13	e8 00 00 00 00	 call	 ?AfxThrowInvalidArgException@@YGXXZ ; AfxThrowInvalidArgException
$LN247@DrawSellBy:
  00c18	cc		 int	 3
_TEXT	ENDS
;	COMDAT text$x
text$x	SEGMENT
__unwindfunclet$?DrawSellByHorizontalBar@CPairBarDraw@@IAE_NPAVCDC@@ABVCRect@@ABV?$CStringT@DV?$StrTraitMFC_DLL@DV?$ChTraitsCRT@D@ATL@@@@@ATL@@ABVCGraphDrawStyle@@ABVCGraphColor@@HHABN5ABV?$CList@PAVCPacket@@PAV1@@@PBVCIndicatorInfo@@_N8ABVCPacket@@@Z$20:
  00000	8b 45 dc	 mov	 eax, DWORD PTR $T27[ebp]
  00003	25 80 00 00 00	 and	 eax, 128		; 00000080H
  00008	0f 84 10 00 00
	00		 je	 $LN77@DrawSellBy
  0000e	81 65 dc 7f ff
	ff ff		 and	 DWORD PTR $T27[ebp], -129 ; ffffff7fH
  00015	8d 4d d0	 lea	 ecx, DWORD PTR $T23[ebp]
  00018	ff 25 00 00 00
	00		 jmp	 DWORD PTR __imp_??1?$CStringT@DV?$StrTraitMFC_DLL@DV?$ChTraitsCRT@D@ATL@@@@@ATL@@QAE@XZ
$LN77@DrawSellBy:
  0001e	c3		 ret	 0
__unwindfunclet$?DrawSellByHorizontalBar@CPairBarDraw@@IAE_NPAVCDC@@ABVCRect@@ABV?$CStringT@DV?$StrTraitMFC_DLL@DV?$ChTraitsCRT@D@ATL@@@@@ATL@@ABVCGraphDrawStyle@@ABVCGraphColor@@HHABN5ABV?$CList@PAVCPacket@@PAV1@@@PBVCIndicatorInfo@@_N8ABVCPacket@@@Z$0:
  0001f	8d 4d d0	 lea	 ecx, DWORD PTR $T24[ebp]
  00022	ff 25 00 00 00
	00		 jmp	 DWORD PTR __imp_??1?$CStringT@DV?$StrTraitMFC_DLL@DV?$ChTraitsCRT@D@ATL@@@@@ATL@@QAE@XZ
__unwindfunclet$?DrawSellByHorizontalBar@CPairBarDraw@@IAE_NPAVCDC@@ABVCRect@@ABV?$CStringT@DV?$StrTraitMFC_DLL@DV?$ChTraitsCRT@D@ATL@@@@@ATL@@ABVCGraphDrawStyle@@ABVCGraphColor@@HHABN5ABV?$CList@PAVCPacket@@PAV1@@@PBVCIndicatorInfo@@_N8ABVCPacket@@@Z$1:
  00028	8b 45 dc	 mov	 eax, DWORD PTR $T27[ebp]
  0002b	83 e0 01	 and	 eax, 1
  0002e	0f 84 0d 00 00
	00		 je	 $LN35@DrawSellBy
  00034	83 65 dc fe	 and	 DWORD PTR $T27[ebp], -2	; fffffffeH
  00038	8d 4d b4	 lea	 ecx, DWORD PTR $T19[ebp]
  0003b	ff 25 00 00 00
	00		 jmp	 DWORD PTR __imp_??1?$CStringT@DV?$StrTraitMFC_DLL@DV?$ChTraitsCRT@D@ATL@@@@@ATL@@QAE@XZ
$LN35@DrawSellBy:
  00041	c3		 ret	 0
__unwindfunclet$?DrawSellByHorizontalBar@CPairBarDraw@@IAE_NPAVCDC@@ABVCRect@@ABV?$CStringT@DV?$StrTraitMFC_DLL@DV?$ChTraitsCRT@D@ATL@@@@@ATL@@ABVCGraphDrawStyle@@ABVCGraphColor@@HHABN5ABV?$CList@PAVCPacket@@PAV1@@@PBVCIndicatorInfo@@_N8ABVCPacket@@@Z$2:
  00042	8d 8d 4c ff ff
	ff		 lea	 ecx, DWORD PTR _pen1$[ebp]
  00048	e9 00 00 00 00	 jmp	 ??1CPen@@UAE@XZ		; CPen::~CPen
__unwindfunclet$?DrawSellByHorizontalBar@CPairBarDraw@@IAE_NPAVCDC@@ABVCRect@@ABV?$CStringT@DV?$StrTraitMFC_DLL@DV?$ChTraitsCRT@D@ATL@@@@@ATL@@ABVCGraphDrawStyle@@ABVCGraphColor@@HHABN5ABV?$CList@PAVCPacket@@PAV1@@@PBVCIndicatorInfo@@_N8ABVCPacket@@@Z$3:
  0004d	8d 8d 54 ff ff
	ff		 lea	 ecx, DWORD PTR _pen2$[ebp]
  00053	e9 00 00 00 00	 jmp	 ??1CPen@@UAE@XZ		; CPen::~CPen
__unwindfunclet$?DrawSellByHorizontalBar@CPairBarDraw@@IAE_NPAVCDC@@ABVCRect@@ABV?$CStringT@DV?$StrTraitMFC_DLL@DV?$ChTraitsCRT@D@ATL@@@@@ATL@@ABVCGraphDrawStyle@@ABVCGraphColor@@HHABN5ABV?$CList@PAVCPacket@@PAV1@@@PBVCIndicatorInfo@@_N8ABVCPacket@@@Z$4:
  00058	8d 8d 5c ff ff
	ff		 lea	 ecx, DWORD PTR _pen3$[ebp]
  0005e	e9 00 00 00 00	 jmp	 ??1CPen@@UAE@XZ		; CPen::~CPen
__unwindfunclet$?DrawSellByHorizontalBar@CPairBarDraw@@IAE_NPAVCDC@@ABVCRect@@ABV?$CStringT@DV?$StrTraitMFC_DLL@DV?$ChTraitsCRT@D@ATL@@@@@ATL@@ABVCGraphDrawStyle@@ABVCGraphColor@@HHABN5ABV?$CList@PAVCPacket@@PAV1@@@PBVCIndicatorInfo@@_N8ABVCPacket@@@Z$5:
  00063	8d 8d 64 ff ff
	ff		 lea	 ecx, DWORD PTR _brush1$[ebp]
  00069	e9 00 00 00 00	 jmp	 ??1CBrush@@UAE@XZ	; CBrush::~CBrush
__unwindfunclet$?DrawSellByHorizontalBar@CPairBarDraw@@IAE_NPAVCDC@@ABVCRect@@ABV?$CStringT@DV?$StrTraitMFC_DLL@DV?$ChTraitsCRT@D@ATL@@@@@ATL@@ABVCGraphDrawStyle@@ABVCGraphColor@@HHABN5ABV?$CList@PAVCPacket@@PAV1@@@PBVCIndicatorInfo@@_N8ABVCPacket@@@Z$6:
  0006e	8d 8d 6c ff ff
	ff		 lea	 ecx, DWORD PTR _brush2$[ebp]
  00074	e9 00 00 00 00	 jmp	 ??1CBrush@@UAE@XZ	; CBrush::~CBrush
__unwindfunclet$?DrawSellByHorizontalBar@CPairBarDraw@@IAE_NPAVCDC@@ABVCRect@@ABV?$CStringT@DV?$StrTraitMFC_DLL@DV?$ChTraitsCRT@D@ATL@@@@@ATL@@ABVCGraphDrawStyle@@ABVCGraphColor@@HHABN5ABV?$CList@PAVCPacket@@PAV1@@@PBVCIndicatorInfo@@_N8ABVCPacket@@@Z$7:
  00079	8d 8d 74 ff ff
	ff		 lea	 ecx, DWORD PTR _brush3$[ebp]
  0007f	e9 00 00 00 00	 jmp	 ??1CBrush@@UAE@XZ	; CBrush::~CBrush
__unwindfunclet$?DrawSellByHorizontalBar@CPairBarDraw@@IAE_NPAVCDC@@ABVCRect@@ABV?$CStringT@DV?$StrTraitMFC_DLL@DV?$ChTraitsCRT@D@ATL@@@@@ATL@@ABVCGraphDrawStyle@@ABVCGraphColor@@HHABN5ABV?$CList@PAVCPacket@@PAV1@@@PBVCIndicatorInfo@@_N8ABVCPacket@@@Z$8:
  00084	8b 45 dc	 mov	 eax, DWORD PTR $T27[ebp]
  00087	83 e0 02	 and	 eax, 2
  0008a	0f 84 10 00 00
	00		 je	 $LN44@DrawSellBy
  00090	83 65 dc fd	 and	 DWORD PTR $T27[ebp], -3	; fffffffdH
  00094	8d 8d 08 ff ff
	ff		 lea	 ecx, DWORD PTR $T7[ebp]
  0009a	ff 25 00 00 00
	00		 jmp	 DWORD PTR __imp_??1?$CStringT@DV?$StrTraitMFC_DLL@DV?$ChTraitsCRT@D@ATL@@@@@ATL@@QAE@XZ
$LN44@DrawSellBy:
  000a0	c3		 ret	 0
__unwindfunclet$?DrawSellByHorizontalBar@CPairBarDraw@@IAE_NPAVCDC@@ABVCRect@@ABV?$CStringT@DV?$StrTraitMFC_DLL@DV?$ChTraitsCRT@D@ATL@@@@@ATL@@ABVCGraphDrawStyle@@ABVCGraphColor@@HHABN5ABV?$CList@PAVCPacket@@PAV1@@@PBVCIndicatorInfo@@_N8ABVCPacket@@@Z$9:
  000a1	8b 45 dc	 mov	 eax, DWORD PTR $T27[ebp]
  000a4	83 e0 04	 and	 eax, 4
  000a7	0f 84 10 00 00
	00		 je	 $LN46@DrawSellBy
  000ad	83 65 dc fb	 and	 DWORD PTR $T27[ebp], -5	; fffffffbH
  000b1	8d 8d 24 ff ff
	ff		 lea	 ecx, DWORD PTR $T12[ebp]
  000b7	ff 25 00 00 00
	00		 jmp	 DWORD PTR __imp_??1?$CStringT@DV?$StrTraitMFC_DLL@DV?$ChTraitsCRT@D@ATL@@@@@ATL@@QAE@XZ
$LN46@DrawSellBy:
  000bd	c3		 ret	 0
__unwindfunclet$?DrawSellByHorizontalBar@CPairBarDraw@@IAE_NPAVCDC@@ABVCRect@@ABV?$CStringT@DV?$StrTraitMFC_DLL@DV?$ChTraitsCRT@D@ATL@@@@@ATL@@ABVCGraphDrawStyle@@ABVCGraphColor@@HHABN5ABV?$CList@PAVCPacket@@PAV1@@@PBVCIndicatorInfo@@_N8ABVCPacket@@@Z$10:
  000be	8d 4d 98	 lea	 ecx, DWORD PTR _strByData$16[ebp]
  000c1	ff 25 00 00 00
	00		 jmp	 DWORD PTR __imp_??1?$CStringT@DV?$StrTraitMFC_DLL@DV?$ChTraitsCRT@D@ATL@@@@@ATL@@QAE@XZ
__unwindfunclet$?DrawSellByHorizontalBar@CPairBarDraw@@IAE_NPAVCDC@@ABVCRect@@ABV?$CStringT@DV?$StrTraitMFC_DLL@DV?$ChTraitsCRT@D@ATL@@@@@ATL@@ABVCGraphDrawStyle@@ABVCGraphColor@@HHABN5ABV?$CList@PAVCPacket@@PAV1@@@PBVCIndicatorInfo@@_N8ABVCPacket@@@Z$11:
  000c7	8b 45 dc	 mov	 eax, DWORD PTR $T27[ebp]
  000ca	83 e0 08	 and	 eax, 8
  000cd	0f 84 10 00 00
	00		 je	 $LN51@DrawSellBy
  000d3	83 65 dc f7	 and	 DWORD PTR $T27[ebp], -9	; fffffff7H
  000d7	8d 8d 18 ff ff
	ff		 lea	 ecx, DWORD PTR $T10[ebp]
  000dd	ff 25 00 00 00
	00		 jmp	 DWORD PTR __imp_??1?$CStringT@DV?$StrTraitMFC_DLL@DV?$ChTraitsCRT@D@ATL@@@@@ATL@@QAE@XZ
$LN51@DrawSellBy:
  000e3	c3		 ret	 0
__unwindfunclet$?DrawSellByHorizontalBar@CPairBarDraw@@IAE_NPAVCDC@@ABVCRect@@ABV?$CStringT@DV?$StrTraitMFC_DLL@DV?$ChTraitsCRT@D@ATL@@@@@ATL@@ABVCGraphDrawStyle@@ABVCGraphColor@@HHABN5ABV?$CList@PAVCPacket@@PAV1@@@PBVCIndicatorInfo@@_N8ABVCPacket@@@Z$12:
  000e4	8b 45 dc	 mov	 eax, DWORD PTR $T27[ebp]
  000e7	83 e0 10	 and	 eax, 16			; 00000010H
  000ea	0f 84 10 00 00
	00		 je	 $LN53@DrawSellBy
  000f0	83 65 dc ef	 and	 DWORD PTR $T27[ebp], -17 ; ffffffefH
  000f4	8d 8d 1c ff ff
	ff		 lea	 ecx, DWORD PTR $T11[ebp]
  000fa	ff 25 00 00 00
	00		 jmp	 DWORD PTR __imp_??1?$CStringT@DV?$StrTraitMFC_DLL@DV?$ChTraitsCRT@D@ATL@@@@@ATL@@QAE@XZ
$LN53@DrawSellBy:
  00100	c3		 ret	 0
__unwindfunclet$?DrawSellByHorizontalBar@CPairBarDraw@@IAE_NPAVCDC@@ABVCRect@@ABV?$CStringT@DV?$StrTraitMFC_DLL@DV?$ChTraitsCRT@D@ATL@@@@@ATL@@ABVCGraphDrawStyle@@ABVCGraphColor@@HHABN5ABV?$CList@PAVCPacket@@PAV1@@@PBVCIndicatorInfo@@_N8ABVCPacket@@@Z$13:
  00101	8d 4d 90	 lea	 ecx, DWORD PTR _strSellData$13[ebp]
  00104	ff 25 00 00 00
	00		 jmp	 DWORD PTR __imp_??1?$CStringT@DV?$StrTraitMFC_DLL@DV?$ChTraitsCRT@D@ATL@@@@@ATL@@QAE@XZ
__unwindfunclet$?DrawSellByHorizontalBar@CPairBarDraw@@IAE_NPAVCDC@@ABVCRect@@ABV?$CStringT@DV?$StrTraitMFC_DLL@DV?$ChTraitsCRT@D@ATL@@@@@ATL@@ABVCGraphDrawStyle@@ABVCGraphColor@@HHABN5ABV?$CList@PAVCPacket@@PAV1@@@PBVCIndicatorInfo@@_N8ABVCPacket@@@Z$14:
  0010a	8b 45 dc	 mov	 eax, DWORD PTR $T27[ebp]
  0010d	83 e0 20	 and	 eax, 32			; 00000020H
  00110	0f 84 10 00 00
	00		 je	 $LN58@DrawSellBy
  00116	83 65 dc df	 and	 DWORD PTR $T27[ebp], -33 ; ffffffdfH
  0011a	8d 8d 10 ff ff
	ff		 lea	 ecx, DWORD PTR $T8[ebp]
  00120	ff 25 00 00 00
	00		 jmp	 DWORD PTR __imp_??1?$CStringT@DV?$StrTraitMFC_DLL@DV?$ChTraitsCRT@D@ATL@@@@@ATL@@QAE@XZ
$LN58@DrawSellBy:
  00126	c3		 ret	 0
__unwindfunclet$?DrawSellByHorizontalBar@CPairBarDraw@@IAE_NPAVCDC@@ABVCRect@@ABV?$CStringT@DV?$StrTraitMFC_DLL@DV?$ChTraitsCRT@D@ATL@@@@@ATL@@ABVCGraphDrawStyle@@ABVCGraphColor@@HHABN5ABV?$CList@PAVCPacket@@PAV1@@@PBVCIndicatorInfo@@_N8ABVCPacket@@@Z$15:
  00127	8b 45 dc	 mov	 eax, DWORD PTR $T27[ebp]
  0012a	83 e0 40	 and	 eax, 64			; 00000040H
  0012d	0f 84 10 00 00
	00		 je	 $LN60@DrawSellBy
  00133	83 65 dc bf	 and	 DWORD PTR $T27[ebp], -65 ; ffffffbfH
  00137	8d 8d 14 ff ff
	ff		 lea	 ecx, DWORD PTR $T9[ebp]
  0013d	ff 25 00 00 00
	00		 jmp	 DWORD PTR __imp_??1?$CStringT@DV?$StrTraitMFC_DLL@DV?$ChTraitsCRT@D@ATL@@@@@ATL@@QAE@XZ
$LN60@DrawSellBy:
  00143	c3		 ret	 0
__unwindfunclet$?DrawSellByHorizontalBar@CPairBarDraw@@IAE_NPAVCDC@@ABVCRect@@ABV?$CStringT@DV?$StrTraitMFC_DLL@DV?$ChTraitsCRT@D@ATL@@@@@ATL@@ABVCGraphDrawStyle@@ABVCGraphColor@@HHABN5ABV?$CList@PAVCPacket@@PAV1@@@PBVCIndicatorInfo@@_N8ABVCPacket@@@Z$16:
  00144	8d 4d 9c	 lea	 ecx, DWORD PTR _strFullData$17[ebp]
  00147	ff 25 00 00 00
	00		 jmp	 DWORD PTR __imp_??1?$CStringT@DV?$StrTraitMFC_DLL@DV?$ChTraitsCRT@D@ATL@@@@@ATL@@QAE@XZ
__unwindfunclet$?DrawSellByHorizontalBar@CPairBarDraw@@IAE_NPAVCDC@@ABVCRect@@ABV?$CStringT@DV?$StrTraitMFC_DLL@DV?$ChTraitsCRT@D@ATL@@@@@ATL@@ABVCGraphDrawStyle@@ABVCGraphColor@@HHABN5ABV?$CList@PAVCPacket@@PAV1@@@PBVCIndicatorInfo@@_N8ABVCPacket@@@Z$17:
  0014d	8b 4d 94	 mov	 ecx, DWORD PTR $T15[ebp]
  00150	ff 25 00 00 00
	00		 jmp	 DWORD PTR __imp_??1?$CStringT@DV?$StrTraitMFC_DLL@DV?$ChTraitsCRT@D@ATL@@@@@ATL@@QAE@XZ
__unwindfunclet$?DrawSellByHorizontalBar@CPairBarDraw@@IAE_NPAVCDC@@ABVCRect@@ABV?$CStringT@DV?$StrTraitMFC_DLL@DV?$ChTraitsCRT@D@ATL@@@@@ATL@@ABVCGraphDrawStyle@@ABVCGraphColor@@HHABN5ABV?$CList@PAVCPacket@@PAV1@@@PBVCIndicatorInfo@@_N8ABVCPacket@@@Z$18:
  00156	8b 4d cc	 mov	 ecx, DWORD PTR $T22[ebp]
  00159	ff 25 00 00 00
	00		 jmp	 DWORD PTR __imp_??1?$CStringT@DV?$StrTraitMFC_DLL@DV?$ChTraitsCRT@D@ATL@@@@@ATL@@QAE@XZ
  0015f	cc		 int	 3
  00160	cc		 int	 3
  00161	cc		 int	 3
  00162	cc		 int	 3
  00163	cc		 int	 3
__ehhandler$?DrawSellByHorizontalBar@CPairBarDraw@@IAE_NPAVCDC@@ABVCRect@@ABV?$CStringT@DV?$StrTraitMFC_DLL@DV?$ChTraitsCRT@D@ATL@@@@@ATL@@ABVCGraphDrawStyle@@ABVCGraphColor@@HHABN5ABV?$CList@PAVCPacket@@PAV1@@@PBVCIndicatorInfo@@_N8ABVCPacket@@@Z:
  00164	90		 npad	 1
  00165	90		 npad	 1
  00166	8b 54 24 08	 mov	 edx, DWORD PTR [esp+8]
  0016a	8d 42 0c	 lea	 eax, DWORD PTR [edx+12]
  0016d	8b 8a 70 fe ff
	ff		 mov	 ecx, DWORD PTR [edx-400]
  00173	33 c8		 xor	 ecx, eax
  00175	e8 00 00 00 00	 call	 @__security_check_cookie@4
  0017a	8b 4a fc	 mov	 ecx, DWORD PTR [edx-4]
  0017d	33 c8		 xor	 ecx, eax
  0017f	e8 00 00 00 00	 call	 @__security_check_cookie@4
  00184	b8 00 00 00 00	 mov	 eax, OFFSET __ehfuncinfo$?DrawSellByHorizontalBar@CPairBarDraw@@IAE_NPAVCDC@@ABVCRect@@ABV?$CStringT@DV?$StrTraitMFC_DLL@DV?$ChTraitsCRT@D@ATL@@@@@ATL@@ABVCGraphDrawStyle@@ABVCGraphColor@@HHABN5ABV?$CList@PAVCPacket@@PAV1@@@PBVCIndicatorInfo@@_N8ABVCPacket@@@Z
  00189	e9 00 00 00 00	 jmp	 ___CxxFrameHandler3
text$x	ENDS
?DrawSellByHorizontalBar@CPairBarDraw@@IAE_NPAVCDC@@ABVCRect@@ABV?$CStringT@DV?$StrTraitMFC_DLL@DV?$ChTraitsCRT@D@ATL@@@@@ATL@@ABVCGraphDrawStyle@@ABVCGraphColor@@HHABN5ABV?$CList@PAVCPacket@@PAV1@@@PBVCIndicatorInfo@@_N8ABVCPacket@@@Z ENDP ; CPairBarDraw::DrawSellByHorizontalBar
; Function compile flags: /Ogtp
; File D:\git\src\IBK\IBK_DRFN\ProjSrc\SrcChartEx\ChartOCX\GraphDraw\PairBarDraw.cpp
;	COMDAT ?DrawGraph@CPairBarDraw@@UAE_NPAVCDC@@ABVCRect@@ABVCDisplayAttributes@@ABVCDrawingGraphData@@ABVCSubGraphData@@PAVCXScaleManager@@@Z
_TEXT	SEGMENT
_$S17$ = -136						; size = 44
_$S18$ = -92						; size = 20
$T2 = -72						; size = 16
$T3 = -72						; size = 16
_dViewMax$ = -56					; size = 8
_dViewMin$ = -48					; size = 8
$T4 = -40						; size = 4
$T5 = -36						; size = 4
_$S16$ = -32						; size = 4
_dRealWidth$ = -28					; size = 8
_nRealEnd$1$ = -24					; size = 4
_pIndicatorInfo$1$ = -20				; size = 4
_this$1$ = -16						; size = 4
__$EHRec$ = -12						; size = 12
_pDC$ = 8						; size = 4
_realRegion$ = 12					; size = 4
_bLog$ = 16						; size = 1
_displayAttributes$ = 16				; size = 4
_pPacket$1$ = 20					; size = 4
_drawingGraphData$ = 20					; size = 4
_bInvert$ = 24						; size = 1
_subGraphData$ = 24					; size = 4
_nRealStart$1$ = 28					; size = 4
_pxScaleManager$ = 28					; size = 4
?DrawGraph@CPairBarDraw@@UAE_NPAVCDC@@ABVCRect@@ABVCDisplayAttributes@@ABVCDrawingGraphData@@ABVCSubGraphData@@PAVCXScaleManager@@@Z PROC ; CPairBarDraw::DrawGraph, COMDAT
; _this$ = ecx

; 85   : {

  00000	55		 push	 ebp
  00001	8b ec		 mov	 ebp, esp
  00003	6a ff		 push	 -1
  00005	68 00 00 00 00	 push	 __ehhandler$?DrawGraph@CPairBarDraw@@UAE_NPAVCDC@@ABVCRect@@ABVCDisplayAttributes@@ABVCDrawingGraphData@@ABVCSubGraphData@@PAVCXScaleManager@@@Z
  0000a	64 a1 00 00 00
	00		 mov	 eax, DWORD PTR fs:0
  00010	50		 push	 eax
  00011	83 ec 7c	 sub	 esp, 124		; 0000007cH
  00014	53		 push	 ebx
  00015	56		 push	 esi
  00016	57		 push	 edi
  00017	a1 00 00 00 00	 mov	 eax, DWORD PTR ___security_cookie
  0001c	33 c5		 xor	 eax, ebp
  0001e	50		 push	 eax
  0001f	8d 45 f4	 lea	 eax, DWORD PTR __$EHRec$[ebp]
  00022	64 a3 00 00 00
	00		 mov	 DWORD PTR fs:0, eax
  00028	89 4d f0	 mov	 DWORD PTR _this$1$[ebp], ecx

; 86   : 	if(pxScaleManager && pxScaleManager->GetThreadFlag() == THREAD_CALCULATION)

  0002b	8b 4d 1c	 mov	 ecx, DWORD PTR _pxScaleManager$[ebp]
  0002e	85 c9		 test	 ecx, ecx
  00030	74 23		 je	 SHORT $LN4@DrawGraph
  00032	8b 01		 mov	 eax, DWORD PTR [ecx]
  00034	ff 90 f8 00 00
	00		 call	 DWORD PTR [eax+248]
  0003a	83 f8 01	 cmp	 eax, 1
  0003d	75 16		 jne	 SHORT $LN4@DrawGraph

; 87   : 		return true;

  0003f	8a c0		 mov	 al, al

; 125  : 			drawStyle, graphColor, nRealStart, nRealEnd, dViewMax, dViewMin, 
; 126  : 			packetList, pIndicatorInfo, bLog, bInvert,pPacket);
; 127  : 		// (2006.10.23 )    
; 128  : 	}
; 129  : 	return false;
; 130  : }

  00041	8b 4d f4	 mov	 ecx, DWORD PTR __$EHRec$[ebp]
  00044	64 89 0d 00 00
	00 00		 mov	 DWORD PTR fs:0, ecx
  0004b	59		 pop	 ecx
  0004c	5f		 pop	 edi
  0004d	5e		 pop	 esi
  0004e	5b		 pop	 ebx
  0004f	8b e5		 mov	 esp, ebp
  00051	5d		 pop	 ebp
  00052	c2 18 00	 ret	 24			; 00000018H
$LN4@DrawGraph:

; 88   : 
; 89   : 	const CList< CPacket *, CPacket *> &packetList = drawingGraphData.GetSubGraphPacketList()->GetSubGraphPacketList();

  00055	8b 7d 14	 mov	 edi, DWORD PTR _drawingGraphData$[ebp]
  00058	8b cf		 mov	 ecx, edi
  0005a	e8 00 00 00 00	 call	 ?GetSubGraphPacketList@CDrawingGraphData@@QBEPAVCSubGraphPacketList@@XZ ; CDrawingGraphData::GetSubGraphPacketList
  0005f	8b c8		 mov	 ecx, eax
  00061	e8 00 00 00 00	 call	 ?GetSubGraphPacketList@CSubGraphPacketList@@QBEABV?$CList@PAVCPacket@@PAV1@@@XZ ; CSubGraphPacketList::GetSubGraphPacketList
  00066	8b d8		 mov	 ebx, eax

; 90   : 	if(packetList.GetCount() <= 0)

  00068	83 7b 0c 00	 cmp	 DWORD PTR [ebx+12], 0
  0006c	0f 8e 4c 01 00
	00		 jle	 $LN11@DrawGraph

; 91   : 		return false;
; 92   : 	
; 93   : 	// (2006.10.23 )    
; 94   : 	const CPacket& pPacket = *drawingGraphData.GetSubGraphPacketList()->GetTailPacket();

  00072	8b cf		 mov	 ecx, edi
  00074	e8 00 00 00 00	 call	 ?GetSubGraphPacketList@CDrawingGraphData@@QBEPAVCSubGraphPacketList@@XZ ; CDrawingGraphData::GetSubGraphPacketList
  00079	8b c8		 mov	 ecx, eax
  0007b	e8 00 00 00 00	 call	 ?GetTailPacket@CSubGraphPacketList@@QAEPAVCPacket@@XZ ; CSubGraphPacketList::GetTailPacket

; 95   : 	// (2006.10.23 )    
; 96   : 	
; 97   : 	double dRealWidth = CDraw::CalRealWidth(realRegion, displayAttributes);

  00080	8b 75 10	 mov	 esi, DWORD PTR _displayAttributes$[ebp]
  00083	8b 4d f0	 mov	 ecx, DWORD PTR _this$1$[ebp]
  00086	56		 push	 esi
  00087	ff 75 0c	 push	 DWORD PTR _realRegion$[ebp]
  0008a	89 45 14	 mov	 DWORD PTR _pPacket$1$[ebp], eax
  0008d	e8 00 00 00 00	 call	 ?CalRealWidth@CDraw@@IAENABVCRect@@ABVCDisplayAttributes@@@Z ; CDraw::CalRealWidth

; 98   : 	
; 99   : 	int nBarWidth = CMath::Round(dRealWidth);

  00092	83 ec 08	 sub	 esp, 8
  00095	dd 5d e4	 fstp	 QWORD PTR _dRealWidth$[ebp]
  00098	f2 0f 10 45 e4	 movsd	 xmm0, QWORD PTR _dRealWidth$[ebp]
  0009d	f2 0f 11 04 24	 movsd	 QWORD PTR [esp], xmm0
  000a2	e8 00 00 00 00	 call	 ?Round@CMath@@SAHN@Z	; CMath::Round

; 100  : 	if(nBarWidth <= 1) 
; 101  : 		nBarWidth = 1;
; 102  : 	
; 103  : 	const CGraphDrawStyle& drawStyle = subGraphData.GetDrawStyle();

  000a7	8b 4d 18	 mov	 ecx, DWORD PTR _subGraphData$[ebp]
  000aa	8d 45 e0	 lea	 eax, DWORD PTR _$S16$[ebp]
  000ad	83 c4 08	 add	 esp, 8
  000b0	50		 push	 eax
  000b1	ff 15 00 00 00
	00		 call	 DWORD PTR __imp_?GetDrawStyle@CSubGraphDataBase@@QBE?AVCGraphDrawStyle@@XZ

; 104  : 	const CGraphColor& graphColor = subGraphData.GetColor();

  000b7	8b 4d 18	 mov	 ecx, DWORD PTR _subGraphData$[ebp]
  000ba	8d 85 78 ff ff
	ff		 lea	 eax, DWORD PTR _$S17$[ebp]
  000c0	50		 push	 eax
  000c1	ff 15 00 00 00
	00		 call	 DWORD PTR __imp_?GetColor@CSubGraphDataBase@@QBE?AVCGraphColor@@XZ

; 105  : 	int nRealStart = displayAttributes.GetDataStartInBlock();

  000c7	8b ce		 mov	 ecx, esi
  000c9	e8 00 00 00 00	 call	 ?GetDataStartInBlock@CDisplayAttributes@@QBEHXZ ; CDisplayAttributes::GetDataStartInBlock

; 106  : 	int nRealEnd = displayAttributes.GetDataEndInBlock();

  000ce	8b ce		 mov	 ecx, esi
  000d0	89 45 1c	 mov	 DWORD PTR _nRealStart$1$[ebp], eax
  000d3	e8 00 00 00 00	 call	 ?GetDataEndInBlock@CDisplayAttributes@@QBEHXZ ; CDisplayAttributes::GetDataEndInBlock
  000d8	89 45 e8	 mov	 DWORD PTR _nRealEnd$1$[ebp], eax

; 107  : 	if(nRealStart > nRealEnd)

  000db	39 45 1c	 cmp	 DWORD PTR _nRealStart$1$[ebp], eax
  000de	0f 8f da 00 00
	00		 jg	 $LN11@DrawGraph

; 108  : 		return false;
; 109  : 	double dViewMax = drawingGraphData.GetDisplayDataVertMinMax().GetDisplayMax(); 

  000e4	8d 45 b8	 lea	 eax, DWORD PTR $T3[ebp]
  000e7	8b cf		 mov	 ecx, edi
  000e9	50		 push	 eax
  000ea	e8 00 00 00 00	 call	 ?GetDisplayDataVertMinMax@CDrawingGraphData@@QBE?AVCDisplayDataMinMax@@XZ ; CDrawingGraphData::GetDisplayDataVertMinMax
  000ef	8b c8		 mov	 ecx, eax
  000f1	ff 15 00 00 00
	00		 call	 DWORD PTR __imp_?GetDisplayMax@CDisplayDataMinMax@@QBENXZ

; 110  : 	double dViewMin = drawingGraphData.GetDisplayDataVertMinMax().GetDisplayMin();

  000f7	8d 45 b8	 lea	 eax, DWORD PTR $T2[ebp]
  000fa	8b cf		 mov	 ecx, edi
  000fc	50		 push	 eax
  000fd	dd 5d c8	 fstp	 QWORD PTR _dViewMax$[ebp]
  00100	e8 00 00 00 00	 call	 ?GetDisplayDataVertMinMax@CDrawingGraphData@@QBE?AVCDisplayDataMinMax@@XZ ; CDrawingGraphData::GetDisplayDataVertMinMax
  00105	8b c8		 mov	 ecx, eax
  00107	ff 15 00 00 00
	00		 call	 DWORD PTR __imp_?GetDisplayMin@CDisplayDataMinMax@@QBENXZ

; 111  : 	CIndicatorInfo* pIndicatorInfo = drawingGraphData.GetIndicatorInfo();

  0010d	8b cf		 mov	 ecx, edi
  0010f	dd 5d d0	 fstp	 QWORD PTR _dViewMin$[ebp]
  00112	e8 00 00 00 00	 call	 ?GetIndicatorInfo@CDrawingGraphData@@QBEPAVCIndicatorInfo@@XZ ; CDrawingGraphData::GetIndicatorInfo

; 112  : 	const CPenThickness& penThickness = subGraphData.GetPenThickness();

  00117	8b 75 18	 mov	 esi, DWORD PTR _subGraphData$[ebp]
  0011a	8b ce		 mov	 ecx, esi
  0011c	89 45 ec	 mov	 DWORD PTR _pIndicatorInfo$1$[ebp], eax
  0011f	8d 45 a4	 lea	 eax, DWORD PTR _$S18$[ebp]
  00122	50		 push	 eax
  00123	ff 15 00 00 00
	00		 call	 DWORD PTR __imp_?GetPenThickness@CSubGraphDataBase@@QBE?AVCPenThickness@@XZ

; 113  : 	bool bLog = drawingGraphData.DoesVertScaleLogType();

  00129	8b cf		 mov	 ecx, edi
  0012b	e8 00 00 00 00	 call	 ?DoesVertScaleLogType@CDrawingGraphData@@QBE_NXZ ; CDrawingGraphData::DoesVertScaleLogType

; 114  : 	bool bInvert = drawingGraphData.DoesVertScaleInvertType();

  00130	8b cf		 mov	 ecx, edi
  00132	88 45 10	 mov	 BYTE PTR _bLog$[ebp], al
  00135	e8 00 00 00 00	 call	 ?DoesVertScaleInvertType@CDrawingGraphData@@QBE_NXZ ; CDrawingGraphData::DoesVertScaleInvertType

; 115  : 	
; 116  : 	// (2004.04.01, ) Default Indicator List Static ,  Loading .
; 117  : 	//		Static CIndicatorList Pointer  . (CIndicatorList Static .)
; 118  : 	//		CIndicatorInfo   CIndicatorList    .
; 119  : 	CIndicatorList *pIndicatorList = drawingGraphData.GetIndicatorList();

  0013a	8b cf		 mov	 ecx, edi
  0013c	88 45 18	 mov	 BYTE PTR _bInvert$[ebp], al
  0013f	e8 00 00 00 00	 call	 ?GetIndicatorList@CDrawingGraphData@@QBEPAVCIndicatorList@@XZ ; CDrawingGraphData::GetIndicatorList

; 120  : 	
; 121  : 	switch(subGraphData.GetStyle().GetGraphBarStyle())

  00144	8d 45 d8	 lea	 eax, DWORD PTR $T4[ebp]
  00147	8b ce		 mov	 ecx, esi
  00149	50		 push	 eax
  0014a	ff 15 00 00 00
	00		 call	 DWORD PTR __imp_?GetStyle@CSubGraphDataBase@@QBE?AVCGraphStyle@@XZ
  00150	83 38 0f	 cmp	 DWORD PTR [eax], 15	; 0000000fH
  00153	75 69		 jne	 SHORT $LN11@DrawGraph

; 122  : 	{
; 123  : 	case CGraphBaseData::SellByTextHorizontalBar:// Text
; 124  : 		return DrawSellByHorizontalBar(pDC, realRegion, subGraphData.GetName(), 

  00155	8d 45 dc	 lea	 eax, DWORD PTR $T5[ebp]
  00158	8b ce		 mov	 ecx, esi
  0015a	50		 push	 eax
  0015b	ff 15 00 00 00
	00		 call	 DWORD PTR __imp_?GetName@CSubGraphDataBase@@QBE?AV?$CStringT@DV?$StrTraitMFC_DLL@DV?$ChTraitsCRT@D@ATL@@@@@ATL@@XZ
  00161	ff 75 14	 push	 DWORD PTR _pPacket$1$[ebp]
  00164	8d 4d d0	 lea	 ecx, DWORD PTR _dViewMin$[ebp]
  00167	c7 45 fc 00 00
	00 00		 mov	 DWORD PTR __$EHRec$[ebp+8], 0
  0016e	ff 75 18	 push	 DWORD PTR _bInvert$[ebp]
  00171	ff 75 10	 push	 DWORD PTR _bLog$[ebp]
  00174	ff 75 ec	 push	 DWORD PTR _pIndicatorInfo$1$[ebp]
  00177	53		 push	 ebx
  00178	51		 push	 ecx
  00179	8d 4d c8	 lea	 ecx, DWORD PTR _dViewMax$[ebp]
  0017c	51		 push	 ecx
  0017d	ff 75 e8	 push	 DWORD PTR _nRealEnd$1$[ebp]
  00180	8d 8d 78 ff ff
	ff		 lea	 ecx, DWORD PTR _$S17$[ebp]
  00186	ff 75 1c	 push	 DWORD PTR _nRealStart$1$[ebp]
  00189	51		 push	 ecx
  0018a	8d 4d e0	 lea	 ecx, DWORD PTR _$S16$[ebp]
  0018d	51		 push	 ecx
  0018e	8b 4d f0	 mov	 ecx, DWORD PTR _this$1$[ebp]
  00191	50		 push	 eax
  00192	ff 75 0c	 push	 DWORD PTR _realRegion$[ebp]
  00195	ff 75 08	 push	 DWORD PTR _pDC$[ebp]
  00198	e8 00 00 00 00	 call	 ?DrawSellByHorizontalBar@CPairBarDraw@@IAE_NPAVCDC@@ABVCRect@@ABV?$CStringT@DV?$StrTraitMFC_DLL@DV?$ChTraitsCRT@D@ATL@@@@@ATL@@ABVCGraphDrawStyle@@ABVCGraphColor@@HHABN5ABV?$CList@PAVCPacket@@PAV1@@@PBVCIndicatorInfo@@_N8ABVCPacket@@@Z ; CPairBarDraw::DrawSellByHorizontalBar
  0019d	8d 4d dc	 lea	 ecx, DWORD PTR $T5[ebp]
  001a0	8a d8		 mov	 bl, al
  001a2	ff 15 00 00 00
	00		 call	 DWORD PTR __imp_??1?$CStringT@DV?$StrTraitMFC_DLL@DV?$ChTraitsCRT@D@ATL@@@@@ATL@@QAE@XZ
  001a8	8a c3		 mov	 al, bl

; 125  : 			drawStyle, graphColor, nRealStart, nRealEnd, dViewMax, dViewMin, 
; 126  : 			packetList, pIndicatorInfo, bLog, bInvert,pPacket);
; 127  : 		// (2006.10.23 )    
; 128  : 	}
; 129  : 	return false;
; 130  : }

  001aa	8b 4d f4	 mov	 ecx, DWORD PTR __$EHRec$[ebp]
  001ad	64 89 0d 00 00
	00 00		 mov	 DWORD PTR fs:0, ecx
  001b4	59		 pop	 ecx
  001b5	5f		 pop	 edi
  001b6	5e		 pop	 esi
  001b7	5b		 pop	 ebx
  001b8	8b e5		 mov	 esp, ebp
  001ba	5d		 pop	 ebp
  001bb	c2 18 00	 ret	 24			; 00000018H
$LN11@DrawGraph:
  001be	32 c0		 xor	 al, al
  001c0	8b 4d f4	 mov	 ecx, DWORD PTR __$EHRec$[ebp]
  001c3	64 89 0d 00 00
	00 00		 mov	 DWORD PTR fs:0, ecx
  001ca	59		 pop	 ecx
  001cb	5f		 pop	 edi
  001cc	5e		 pop	 esi
  001cd	5b		 pop	 ebx
  001ce	8b e5		 mov	 esp, ebp
  001d0	5d		 pop	 ebp
  001d1	c2 18 00	 ret	 24			; 00000018H
_TEXT	ENDS
;	COMDAT text$x
text$x	SEGMENT
__unwindfunclet$?DrawGraph@CPairBarDraw@@UAE_NPAVCDC@@ABVCRect@@ABVCDisplayAttributes@@ABVCDrawingGraphData@@ABVCSubGraphData@@PAVCXScaleManager@@@Z$0:
  00000	8d 4d dc	 lea	 ecx, DWORD PTR $T5[ebp]
  00003	ff 25 00 00 00
	00		 jmp	 DWORD PTR __imp_??1?$CStringT@DV?$StrTraitMFC_DLL@DV?$ChTraitsCRT@D@ATL@@@@@ATL@@QAE@XZ
  00009	cc		 int	 3
  0000a	cc		 int	 3
  0000b	cc		 int	 3
  0000c	cc		 int	 3
  0000d	cc		 int	 3
__ehhandler$?DrawGraph@CPairBarDraw@@UAE_NPAVCDC@@ABVCRect@@ABVCDisplayAttributes@@ABVCDrawingGraphData@@ABVCSubGraphData@@PAVCXScaleManager@@@Z:
  0000e	90		 npad	 1
  0000f	90		 npad	 1
  00010	8b 54 24 08	 mov	 edx, DWORD PTR [esp+8]
  00014	8d 42 0c	 lea	 eax, DWORD PTR [edx+12]
  00017	8b 8a 74 ff ff
	ff		 mov	 ecx, DWORD PTR [edx-140]
  0001d	33 c8		 xor	 ecx, eax
  0001f	e8 00 00 00 00	 call	 @__security_check_cookie@4
  00024	b8 00 00 00 00	 mov	 eax, OFFSET __ehfuncinfo$?DrawGraph@CPairBarDraw@@UAE_NPAVCDC@@ABVCRect@@ABVCDisplayAttributes@@ABVCDrawingGraphData@@ABVCSubGraphData@@PAVCXScaleManager@@@Z
  00029	e9 00 00 00 00	 jmp	 ___CxxFrameHandler3
text$x	ENDS
?DrawGraph@CPairBarDraw@@UAE_NPAVCDC@@ABVCRect@@ABVCDisplayAttributes@@ABVCDrawingGraphData@@ABVCSubGraphData@@PAVCXScaleManager@@@Z ENDP ; CPairBarDraw::DrawGraph
; Function compile flags: /Ogtp
; File D:\git\src\IBK\IBK_DRFN\ProjSrc\SrcChartEx\ChartOCX\GraphDraw\PairBarDraw.cpp
;	COMDAT ?DrawGraph@CPairBarDraw@@UAE_NPAVCDC@@ABVCRect@@ABVCDisplayAttributes@@ABVCDrawingGraphData@@ABVCSubGraphData@@@Z
_TEXT	SEGMENT
_$S14$ = -140						; size = 44
_$S15$ = -96						; size = 20
$T2 = -76						; size = 16
$T3 = -76						; size = 16
_dViewMax$ = -60					; size = 8
_dViewMin$ = -52					; size = 8
$T4 = -44						; size = 4
$T5 = -40						; size = 4
_$S13$ = -36						; size = 4
_dRealWidth$ = -32					; size = 8
_nRealEnd$1$ = -28					; size = 4
_pIndicatorInfo$1$ = -24				; size = 4
_pPacket$1$ = -20					; size = 4
_this$1$ = -16						; size = 4
__$EHRec$ = -12						; size = 12
_pDC$ = 8						; size = 4
_realRegion$ = 12					; size = 4
_bLog$ = 16						; size = 1
_displayAttributes$ = 16				; size = 4
_nRealStart$1$ = 20					; size = 4
_drawingGraphData$ = 20					; size = 4
_bInvert$ = 24						; size = 1
_subGraphData$ = 24					; size = 4
?DrawGraph@CPairBarDraw@@UAE_NPAVCDC@@ABVCRect@@ABVCDisplayAttributes@@ABVCDrawingGraphData@@ABVCSubGraphData@@@Z PROC ; CPairBarDraw::DrawGraph, COMDAT
; _this$ = ecx

; 35   : {

  00000	55		 push	 ebp
  00001	8b ec		 mov	 ebp, esp
  00003	6a ff		 push	 -1
  00005	68 00 00 00 00	 push	 __ehhandler$?DrawGraph@CPairBarDraw@@UAE_NPAVCDC@@ABVCRect@@ABVCDisplayAttributes@@ABVCDrawingGraphData@@ABVCSubGraphData@@@Z
  0000a	64 a1 00 00 00
	00		 mov	 eax, DWORD PTR fs:0
  00010	50		 push	 eax
  00011	81 ec 80 00 00
	00		 sub	 esp, 128		; 00000080H
  00017	53		 push	 ebx
  00018	56		 push	 esi
  00019	57		 push	 edi
  0001a	a1 00 00 00 00	 mov	 eax, DWORD PTR ___security_cookie
  0001f	33 c5		 xor	 eax, ebp
  00021	50		 push	 eax
  00022	8d 45 f4	 lea	 eax, DWORD PTR __$EHRec$[ebp]
  00025	64 a3 00 00 00
	00		 mov	 DWORD PTR fs:0, eax
  0002b	89 4d f0	 mov	 DWORD PTR _this$1$[ebp], ecx

; 36   : 	const CList< CPacket *, CPacket *> &packetList = drawingGraphData.GetSubGraphPacketList()->GetSubGraphPacketList();

  0002e	8b 7d 14	 mov	 edi, DWORD PTR _drawingGraphData$[ebp]
  00031	8b cf		 mov	 ecx, edi
  00033	e8 00 00 00 00	 call	 ?GetSubGraphPacketList@CDrawingGraphData@@QBEPAVCSubGraphPacketList@@XZ ; CDrawingGraphData::GetSubGraphPacketList
  00038	8b c8		 mov	 ecx, eax
  0003a	e8 00 00 00 00	 call	 ?GetSubGraphPacketList@CSubGraphPacketList@@QBEABV?$CList@PAVCPacket@@PAV1@@@XZ ; CSubGraphPacketList::GetSubGraphPacketList
  0003f	8b d8		 mov	 ebx, eax

; 37   : 	if(packetList.GetCount() <= 0)

  00041	83 7b 0c 00	 cmp	 DWORD PTR [ebx+12], 0
  00045	0f 8e 4c 01 00
	00		 jle	 $LN10@DrawGraph

; 38   : 		return false;
; 39   : 
; 40   : 	// (2006.10.23 )    
; 41   : 	const CPacket& pPacket = *drawingGraphData.GetSubGraphPacketList()->GetTailPacket();

  0004b	8b cf		 mov	 ecx, edi
  0004d	e8 00 00 00 00	 call	 ?GetSubGraphPacketList@CDrawingGraphData@@QBEPAVCSubGraphPacketList@@XZ ; CDrawingGraphData::GetSubGraphPacketList
  00052	8b c8		 mov	 ecx, eax
  00054	e8 00 00 00 00	 call	 ?GetTailPacket@CSubGraphPacketList@@QAEPAVCPacket@@XZ ; CSubGraphPacketList::GetTailPacket

; 42   : 	// (2006.10.23 )    
; 43   : 
; 44   : 	double dRealWidth = CDraw::CalRealWidth(realRegion, displayAttributes);

  00059	8b 75 10	 mov	 esi, DWORD PTR _displayAttributes$[ebp]
  0005c	8b 4d f0	 mov	 ecx, DWORD PTR _this$1$[ebp]
  0005f	56		 push	 esi
  00060	ff 75 0c	 push	 DWORD PTR _realRegion$[ebp]
  00063	89 45 ec	 mov	 DWORD PTR _pPacket$1$[ebp], eax
  00066	e8 00 00 00 00	 call	 ?CalRealWidth@CDraw@@IAENABVCRect@@ABVCDisplayAttributes@@@Z ; CDraw::CalRealWidth

; 45   : 
; 46   : 	int nBarWidth = CMath::Round(dRealWidth);

  0006b	83 ec 08	 sub	 esp, 8
  0006e	dd 5d e0	 fstp	 QWORD PTR _dRealWidth$[ebp]
  00071	f2 0f 10 45 e0	 movsd	 xmm0, QWORD PTR _dRealWidth$[ebp]
  00076	f2 0f 11 04 24	 movsd	 QWORD PTR [esp], xmm0
  0007b	e8 00 00 00 00	 call	 ?Round@CMath@@SAHN@Z	; CMath::Round

; 47   : 	if(nBarWidth <= 1) 
; 48   : 		nBarWidth = 1;
; 49   : 
; 50   : 	const CGraphDrawStyle& drawStyle = subGraphData.GetDrawStyle();

  00080	8b 4d 18	 mov	 ecx, DWORD PTR _subGraphData$[ebp]
  00083	8d 45 dc	 lea	 eax, DWORD PTR _$S13$[ebp]
  00086	83 c4 08	 add	 esp, 8
  00089	50		 push	 eax
  0008a	ff 15 00 00 00
	00		 call	 DWORD PTR __imp_?GetDrawStyle@CSubGraphDataBase@@QBE?AVCGraphDrawStyle@@XZ

; 51   : 	const CGraphColor& graphColor = subGraphData.GetColor();

  00090	8b 4d 18	 mov	 ecx, DWORD PTR _subGraphData$[ebp]
  00093	8d 85 74 ff ff
	ff		 lea	 eax, DWORD PTR _$S14$[ebp]
  00099	50		 push	 eax
  0009a	ff 15 00 00 00
	00		 call	 DWORD PTR __imp_?GetColor@CSubGraphDataBase@@QBE?AVCGraphColor@@XZ

; 52   : 	int nRealStart = displayAttributes.GetDataStartInBlock();

  000a0	8b ce		 mov	 ecx, esi
  000a2	e8 00 00 00 00	 call	 ?GetDataStartInBlock@CDisplayAttributes@@QBEHXZ ; CDisplayAttributes::GetDataStartInBlock

; 53   : 	int nRealEnd = displayAttributes.GetDataEndInBlock();

  000a7	8b ce		 mov	 ecx, esi
  000a9	89 45 14	 mov	 DWORD PTR _nRealStart$1$[ebp], eax
  000ac	e8 00 00 00 00	 call	 ?GetDataEndInBlock@CDisplayAttributes@@QBEHXZ ; CDisplayAttributes::GetDataEndInBlock
  000b1	89 45 e4	 mov	 DWORD PTR _nRealEnd$1$[ebp], eax

; 54   : 	if(nRealStart > nRealEnd)

  000b4	39 45 14	 cmp	 DWORD PTR _nRealStart$1$[ebp], eax
  000b7	0f 8f da 00 00
	00		 jg	 $LN10@DrawGraph

; 55   : 		return false;
; 56   : 	double dViewMax = drawingGraphData.GetDisplayDataVertMinMax().GetDisplayMax(); 

  000bd	8d 45 b4	 lea	 eax, DWORD PTR $T3[ebp]
  000c0	8b cf		 mov	 ecx, edi
  000c2	50		 push	 eax
  000c3	e8 00 00 00 00	 call	 ?GetDisplayDataVertMinMax@CDrawingGraphData@@QBE?AVCDisplayDataMinMax@@XZ ; CDrawingGraphData::GetDisplayDataVertMinMax
  000c8	8b c8		 mov	 ecx, eax
  000ca	ff 15 00 00 00
	00		 call	 DWORD PTR __imp_?GetDisplayMax@CDisplayDataMinMax@@QBENXZ

; 57   : 	double dViewMin = drawingGraphData.GetDisplayDataVertMinMax().GetDisplayMin();

  000d0	8d 45 b4	 lea	 eax, DWORD PTR $T2[ebp]
  000d3	8b cf		 mov	 ecx, edi
  000d5	50		 push	 eax
  000d6	dd 5d c4	 fstp	 QWORD PTR _dViewMax$[ebp]
  000d9	e8 00 00 00 00	 call	 ?GetDisplayDataVertMinMax@CDrawingGraphData@@QBE?AVCDisplayDataMinMax@@XZ ; CDrawingGraphData::GetDisplayDataVertMinMax
  000de	8b c8		 mov	 ecx, eax
  000e0	ff 15 00 00 00
	00		 call	 DWORD PTR __imp_?GetDisplayMin@CDisplayDataMinMax@@QBENXZ

; 58   : 	CIndicatorInfo* pIndicatorInfo = drawingGraphData.GetIndicatorInfo();

  000e6	8b cf		 mov	 ecx, edi
  000e8	dd 5d cc	 fstp	 QWORD PTR _dViewMin$[ebp]
  000eb	e8 00 00 00 00	 call	 ?GetIndicatorInfo@CDrawingGraphData@@QBEPAVCIndicatorInfo@@XZ ; CDrawingGraphData::GetIndicatorInfo

; 59   : 	const CPenThickness& penThickness = subGraphData.GetPenThickness();

  000f0	8b 75 18	 mov	 esi, DWORD PTR _subGraphData$[ebp]
  000f3	8b ce		 mov	 ecx, esi
  000f5	89 45 e8	 mov	 DWORD PTR _pIndicatorInfo$1$[ebp], eax
  000f8	8d 45 a0	 lea	 eax, DWORD PTR _$S15$[ebp]
  000fb	50		 push	 eax
  000fc	ff 15 00 00 00
	00		 call	 DWORD PTR __imp_?GetPenThickness@CSubGraphDataBase@@QBE?AVCPenThickness@@XZ

; 60   : 	bool bLog = drawingGraphData.DoesVertScaleLogType();

  00102	8b cf		 mov	 ecx, edi
  00104	e8 00 00 00 00	 call	 ?DoesVertScaleLogType@CDrawingGraphData@@QBE_NXZ ; CDrawingGraphData::DoesVertScaleLogType

; 61   : 	bool bInvert = drawingGraphData.DoesVertScaleInvertType();

  00109	8b cf		 mov	 ecx, edi
  0010b	88 45 10	 mov	 BYTE PTR _bLog$[ebp], al
  0010e	e8 00 00 00 00	 call	 ?DoesVertScaleInvertType@CDrawingGraphData@@QBE_NXZ ; CDrawingGraphData::DoesVertScaleInvertType

; 62   : 
; 63   : 	// (2004.04.01, ) Default Indicator List Static ,  Loading .
; 64   : 	//		Static CIndicatorList Pointer  . (CIndicatorList Static .)
; 65   : 	//		CIndicatorInfo   CIndicatorList    .
; 66   : 	CIndicatorList *pIndicatorList = drawingGraphData.GetIndicatorList();

  00113	8b cf		 mov	 ecx, edi
  00115	88 45 18	 mov	 BYTE PTR _bInvert$[ebp], al
  00118	e8 00 00 00 00	 call	 ?GetIndicatorList@CDrawingGraphData@@QBEPAVCIndicatorList@@XZ ; CDrawingGraphData::GetIndicatorList

; 67   : 
; 68   : 	switch(subGraphData.GetStyle().GetGraphBarStyle())

  0011d	8d 45 d4	 lea	 eax, DWORD PTR $T4[ebp]
  00120	8b ce		 mov	 ecx, esi
  00122	50		 push	 eax
  00123	ff 15 00 00 00
	00		 call	 DWORD PTR __imp_?GetStyle@CSubGraphDataBase@@QBE?AVCGraphStyle@@XZ
  00129	83 38 0f	 cmp	 DWORD PTR [eax], 15	; 0000000fH
  0012c	75 69		 jne	 SHORT $LN10@DrawGraph

; 69   : 	{
; 70   : 	case CGraphBaseData::SellByTextHorizontalBar:// Text
; 71   : 		return DrawSellByHorizontalBar(pDC, realRegion, subGraphData.GetName(), 

  0012e	8d 45 d8	 lea	 eax, DWORD PTR $T5[ebp]
  00131	8b ce		 mov	 ecx, esi
  00133	50		 push	 eax
  00134	ff 15 00 00 00
	00		 call	 DWORD PTR __imp_?GetName@CSubGraphDataBase@@QBE?AV?$CStringT@DV?$StrTraitMFC_DLL@DV?$ChTraitsCRT@D@ATL@@@@@ATL@@XZ
  0013a	ff 75 ec	 push	 DWORD PTR _pPacket$1$[ebp]
  0013d	8d 4d cc	 lea	 ecx, DWORD PTR _dViewMin$[ebp]
  00140	c7 45 fc 00 00
	00 00		 mov	 DWORD PTR __$EHRec$[ebp+8], 0
  00147	ff 75 18	 push	 DWORD PTR _bInvert$[ebp]
  0014a	ff 75 10	 push	 DWORD PTR _bLog$[ebp]
  0014d	ff 75 e8	 push	 DWORD PTR _pIndicatorInfo$1$[ebp]
  00150	53		 push	 ebx
  00151	51		 push	 ecx
  00152	8d 4d c4	 lea	 ecx, DWORD PTR _dViewMax$[ebp]
  00155	51		 push	 ecx
  00156	ff 75 e4	 push	 DWORD PTR _nRealEnd$1$[ebp]
  00159	8d 8d 74 ff ff
	ff		 lea	 ecx, DWORD PTR _$S14$[ebp]
  0015f	ff 75 14	 push	 DWORD PTR _nRealStart$1$[ebp]
  00162	51		 push	 ecx
  00163	8d 4d dc	 lea	 ecx, DWORD PTR _$S13$[ebp]
  00166	51		 push	 ecx
  00167	8b 4d f0	 mov	 ecx, DWORD PTR _this$1$[ebp]
  0016a	50		 push	 eax
  0016b	ff 75 0c	 push	 DWORD PTR _realRegion$[ebp]
  0016e	ff 75 08	 push	 DWORD PTR _pDC$[ebp]
  00171	e8 00 00 00 00	 call	 ?DrawSellByHorizontalBar@CPairBarDraw@@IAE_NPAVCDC@@ABVCRect@@ABV?$CStringT@DV?$StrTraitMFC_DLL@DV?$ChTraitsCRT@D@ATL@@@@@ATL@@ABVCGraphDrawStyle@@ABVCGraphColor@@HHABN5ABV?$CList@PAVCPacket@@PAV1@@@PBVCIndicatorInfo@@_N8ABVCPacket@@@Z ; CPairBarDraw::DrawSellByHorizontalBar
  00176	8d 4d d8	 lea	 ecx, DWORD PTR $T5[ebp]
  00179	8a d8		 mov	 bl, al
  0017b	ff 15 00 00 00
	00		 call	 DWORD PTR __imp_??1?$CStringT@DV?$StrTraitMFC_DLL@DV?$ChTraitsCRT@D@ATL@@@@@ATL@@QAE@XZ
  00181	8a c3		 mov	 al, bl

; 72   : 			drawStyle, graphColor, nRealStart, nRealEnd, dViewMax, dViewMin, 
; 73   : 			packetList, pIndicatorInfo, bLog, bInvert,pPacket);
; 74   : 	// (2006.10.23 )    
; 75   : 	}
; 76   : 	return false;
; 77   : }

  00183	8b 4d f4	 mov	 ecx, DWORD PTR __$EHRec$[ebp]
  00186	64 89 0d 00 00
	00 00		 mov	 DWORD PTR fs:0, ecx
  0018d	59		 pop	 ecx
  0018e	5f		 pop	 edi
  0018f	5e		 pop	 esi
  00190	5b		 pop	 ebx
  00191	8b e5		 mov	 esp, ebp
  00193	5d		 pop	 ebp
  00194	c2 14 00	 ret	 20			; 00000014H
$LN10@DrawGraph:
  00197	32 c0		 xor	 al, al
  00199	8b 4d f4	 mov	 ecx, DWORD PTR __$EHRec$[ebp]
  0019c	64 89 0d 00 00
	00 00		 mov	 DWORD PTR fs:0, ecx
  001a3	59		 pop	 ecx
  001a4	5f		 pop	 edi
  001a5	5e		 pop	 esi
  001a6	5b		 pop	 ebx
  001a7	8b e5		 mov	 esp, ebp
  001a9	5d		 pop	 ebp
  001aa	c2 14 00	 ret	 20			; 00000014H
_TEXT	ENDS
;	COMDAT text$x
text$x	SEGMENT
__unwindfunclet$?DrawGraph@CPairBarDraw@@UAE_NPAVCDC@@ABVCRect@@ABVCDisplayAttributes@@ABVCDrawingGraphData@@ABVCSubGraphData@@@Z$0:
  00000	8d 4d d8	 lea	 ecx, DWORD PTR $T5[ebp]
  00003	ff 25 00 00 00
	00		 jmp	 DWORD PTR __imp_??1?$CStringT@DV?$StrTraitMFC_DLL@DV?$ChTraitsCRT@D@ATL@@@@@ATL@@QAE@XZ
  00009	cc		 int	 3
  0000a	cc		 int	 3
  0000b	cc		 int	 3
  0000c	cc		 int	 3
  0000d	cc		 int	 3
__ehhandler$?DrawGraph@CPairBarDraw@@UAE_NPAVCDC@@ABVCRect@@ABVCDisplayAttributes@@ABVCDrawingGraphData@@ABVCSubGraphData@@@Z:
  0000e	90		 npad	 1
  0000f	90		 npad	 1
  00010	8b 54 24 08	 mov	 edx, DWORD PTR [esp+8]
  00014	8d 42 0c	 lea	 eax, DWORD PTR [edx+12]
  00017	8b 8a 70 ff ff
	ff		 mov	 ecx, DWORD PTR [edx-144]
  0001d	33 c8		 xor	 ecx, eax
  0001f	e8 00 00 00 00	 call	 @__security_check_cookie@4
  00024	b8 00 00 00 00	 mov	 eax, OFFSET __ehfuncinfo$?DrawGraph@CPairBarDraw@@UAE_NPAVCDC@@ABVCRect@@ABVCDisplayAttributes@@ABVCDrawingGraphData@@ABVCSubGraphData@@@Z
  00029	e9 00 00 00 00	 jmp	 ___CxxFrameHandler3
text$x	ENDS
?DrawGraph@CPairBarDraw@@UAE_NPAVCDC@@ABVCRect@@ABVCDisplayAttributes@@ABVCDrawingGraphData@@ABVCSubGraphData@@@Z ENDP ; CPairBarDraw::DrawGraph
; Function compile flags: /Ogtp
; File D:\git\src\IBK\IBK_DRFN\ProjSrc\SrcChartEx\ChartOCX\GraphDraw\PairBarDraw.cpp
;	COMDAT ??1CPairBarDraw@@UAE@XZ
_TEXT	SEGMENT
??1CPairBarDraw@@UAE@XZ PROC				; CPairBarDraw::~CPairBarDraw, COMDAT
; _this$ = ecx

; 26   : {

  00000	c7 01 00 00 00
	00		 mov	 DWORD PTR [ecx], OFFSET ??_7CPairBarDraw@@6B@

; 27   : }

  00006	e9 00 00 00 00	 jmp	 ??1CBarDraw@@UAE@XZ	; CBarDraw::~CBarDraw
??1CPairBarDraw@@UAE@XZ ENDP				; CPairBarDraw::~CPairBarDraw
_TEXT	ENDS
; Function compile flags: /Ogtp
; File D:\git\src\IBK\IBK_DRFN\ProjSrc\SrcChartEx\ChartOCX\GraphDraw\PairBarDraw.cpp
;	COMDAT ??0CPairBarDraw@@QAE@XZ
_TEXT	SEGMENT
_this$ = -4						; size = 4
??0CPairBarDraw@@QAE@XZ PROC				; CPairBarDraw::CPairBarDraw, COMDAT
; _this$ = ecx

; 20   : {

  00000	55		 push	 ebp
  00001	8b ec		 mov	 ebp, esp
  00003	51		 push	 ecx
  00004	56		 push	 esi
  00005	8b f1		 mov	 esi, ecx
  00007	89 75 fc	 mov	 DWORD PTR _this$[ebp], esi
  0000a	e8 00 00 00 00	 call	 ??0CBarDraw@@QAE@XZ	; CBarDraw::CBarDraw
  0000f	c7 06 00 00 00
	00		 mov	 DWORD PTR [esi], OFFSET ??_7CPairBarDraw@@6B@

; 21   : 	m_eGraphType = CGraphBaseData::Bar_Type;
; 22   : 	m_graphStyle = CGraphBaseData::SellByTextHorizontalBar;
; 23   : }

  00015	8b c6		 mov	 eax, esi
  00017	c7 46 10 02 00
	00 00		 mov	 DWORD PTR [esi+16], 2
  0001e	c7 46 14 0f 00
	00 00		 mov	 DWORD PTR [esi+20], 15	; 0000000fH
  00025	5e		 pop	 esi
  00026	8b e5		 mov	 esp, ebp
  00028	5d		 pop	 ebp
  00029	c3		 ret	 0
??0CPairBarDraw@@QAE@XZ ENDP				; CPairBarDraw::CPairBarDraw
_TEXT	ENDS
; Function compile flags: /Ogtp
;	COMDAT ??4CGraphDrawer@@QAEAAV0@$$QAV0@@Z
_TEXT	SEGMENT
___that$ = 8						; size = 4
??4CGraphDrawer@@QAEAAV0@$$QAV0@@Z PROC			; CGraphDrawer::operator=, COMDAT
; _this$ = ecx
  00000	8b c1		 mov	 eax, ecx
  00002	c2 04 00	 ret	 4
??4CGraphDrawer@@QAEAAV0@$$QAV0@@Z ENDP			; CGraphDrawer::operator=
_TEXT	ENDS
; Function compile flags: /Ogtp
;	COMDAT ??4CGraphDrawer@@QAEAAV0@ABV0@@Z
_TEXT	SEGMENT
___that$ = 8						; size = 4
??4CGraphDrawer@@QAEAAV0@ABV0@@Z PROC			; CGraphDrawer::operator=, COMDAT
; _this$ = ecx
  00000	8b c1		 mov	 eax, ecx
  00002	c2 04 00	 ret	 4
??4CGraphDrawer@@QAEAAV0@ABV0@@Z ENDP			; CGraphDrawer::operator=
_TEXT	ENDS
; Function compile flags: /Ogtp
; File C:\Program Files (x86)\Microsoft Visual Studio\2019\Community\VC\Tools\MSVC\14.29.30133\atlmfc\include\afxwin1.inl
; File C:\Program Files (x86)\Microsoft Visual Studio\2019\Community\VC\Tools\MSVC\14.29.30133\atlmfc\include\afx.inl
;	COMDAT ??_GCBrush@@UAEPAXI@Z
_TEXT	SEGMENT
___flags$ = 8						; size = 4
??_GCBrush@@UAEPAXI@Z PROC				; CBrush::`scalar deleting destructor', COMDAT
; _this$ = ecx
  00000	55		 push	 ebp
  00001	8b ec		 mov	 ebp, esp
; File C:\Program Files (x86)\Microsoft Visual Studio\2019\Community\VC\Tools\MSVC\14.29.30133\atlmfc\include\afxwin1.inl

; 130  : 	{ }

  00003	56		 push	 esi
  00004	8b f1		 mov	 esi, ecx
  00006	c7 06 00 00 00
	00		 mov	 DWORD PTR [esi], OFFSET ??_7CBrush@@6B@
  0000c	e8 00 00 00 00	 call	 ??1CGdiObject@@UAE@XZ	; CGdiObject::~CGdiObject
  00011	8b 45 08	 mov	 eax, DWORD PTR ___flags$[ebp]
  00014	a8 01		 test	 al, 1
  00016	74 1f		 je	 SHORT $LN12@scalar
  00018	a8 04		 test	 al, 4
  0001a	75 10		 jne	 SHORT $LN3@scalar
; File C:\Program Files (x86)\Microsoft Visual Studio\2019\Community\VC\Tools\MSVC\14.29.30133\atlmfc\include\afx.inl

; 112  : 	{ ::operator delete(p); }

  0001c	56		 push	 esi
  0001d	e8 00 00 00 00	 call	 ??3@YAXPAX@Z		; operator delete
  00022	83 c4 04	 add	 esp, 4
  00025	8b c6		 mov	 eax, esi
  00027	5e		 pop	 esi
  00028	5d		 pop	 ebp
  00029	c2 04 00	 ret	 4
$LN3@scalar:
  0002c	6a 08		 push	 8
  0002e	56		 push	 esi
  0002f	e8 00 00 00 00	 call	 ?__global_delete@@YAXPAXI@Z ; __global_delete
  00034	83 c4 08	 add	 esp, 8
$LN12@scalar:
  00037	8b c6		 mov	 eax, esi
  00039	5e		 pop	 esi
  0003a	5d		 pop	 ebp
  0003b	c2 04 00	 ret	 4
??_GCBrush@@UAEPAXI@Z ENDP				; CBrush::`scalar deleting destructor'
_TEXT	ENDS
; Function compile flags: /Ogtp
; File C:\Program Files (x86)\Microsoft Visual Studio\2019\Community\VC\Tools\MSVC\14.29.30133\atlmfc\include\afxwin1.inl
;	COMDAT ??1CBrush@@UAE@XZ
_TEXT	SEGMENT
??1CBrush@@UAE@XZ PROC					; CBrush::~CBrush, COMDAT
; _this$ = ecx

; 130  : 	{ }

  00000	c7 01 00 00 00
	00		 mov	 DWORD PTR [ecx], OFFSET ??_7CBrush@@6B@
  00006	e9 00 00 00 00	 jmp	 ??1CGdiObject@@UAE@XZ	; CGdiObject::~CGdiObject
??1CBrush@@UAE@XZ ENDP					; CBrush::~CBrush
_TEXT	ENDS
; Function compile flags: /Ogtp
; File C:\Program Files (x86)\Microsoft Visual Studio\2019\Community\VC\Tools\MSVC\14.29.30133\atlmfc\include\afxwin1.inl
; File C:\Program Files (x86)\Microsoft Visual Studio\2019\Community\VC\Tools\MSVC\14.29.30133\atlmfc\include\afx.inl
;	COMDAT ??_GCPen@@UAEPAXI@Z
_TEXT	SEGMENT
___flags$ = 8						; size = 4
??_GCPen@@UAEPAXI@Z PROC				; CPen::`scalar deleting destructor', COMDAT
; _this$ = ecx
  00000	55		 push	 ebp
  00001	8b ec		 mov	 ebp, esp
; File C:\Program Files (x86)\Microsoft Visual Studio\2019\Community\VC\Tools\MSVC\14.29.30133\atlmfc\include\afxwin1.inl

; 106  : 	{ }

  00003	56		 push	 esi
  00004	8b f1		 mov	 esi, ecx
  00006	c7 06 00 00 00
	00		 mov	 DWORD PTR [esi], OFFSET ??_7CPen@@6B@
  0000c	e8 00 00 00 00	 call	 ??1CGdiObject@@UAE@XZ	; CGdiObject::~CGdiObject
  00011	8b 45 08	 mov	 eax, DWORD PTR ___flags$[ebp]
  00014	a8 01		 test	 al, 1
  00016	74 1f		 je	 SHORT $LN12@scalar
  00018	a8 04		 test	 al, 4
  0001a	75 10		 jne	 SHORT $LN3@scalar
; File C:\Program Files (x86)\Microsoft Visual Studio\2019\Community\VC\Tools\MSVC\14.29.30133\atlmfc\include\afx.inl

; 112  : 	{ ::operator delete(p); }

  0001c	56		 push	 esi
  0001d	e8 00 00 00 00	 call	 ??3@YAXPAX@Z		; operator delete
  00022	83 c4 04	 add	 esp, 4
  00025	8b c6		 mov	 eax, esi
  00027	5e		 pop	 esi
  00028	5d		 pop	 ebp
  00029	c2 04 00	 ret	 4
$LN3@scalar:
  0002c	6a 08		 push	 8
  0002e	56		 push	 esi
  0002f	e8 00 00 00 00	 call	 ?__global_delete@@YAXPAXI@Z ; __global_delete
  00034	83 c4 08	 add	 esp, 8
$LN12@scalar:
  00037	8b c6		 mov	 eax, esi
  00039	5e		 pop	 esi
  0003a	5d		 pop	 ebp
  0003b	c2 04 00	 ret	 4
??_GCPen@@UAEPAXI@Z ENDP				; CPen::`scalar deleting destructor'
_TEXT	ENDS
; Function compile flags: /Ogtp
; File C:\Program Files (x86)\Microsoft Visual Studio\2019\Community\VC\Tools\MSVC\14.29.30133\atlmfc\include\afxwin1.inl
;	COMDAT ??1CPen@@UAE@XZ
_TEXT	SEGMENT
??1CPen@@UAE@XZ PROC					; CPen::~CPen, COMDAT
; _this$ = ecx

; 106  : 	{ }

  00000	c7 01 00 00 00
	00		 mov	 DWORD PTR [ecx], OFFSET ??_7CPen@@6B@
  00006	e9 00 00 00 00	 jmp	 ??1CGdiObject@@UAE@XZ	; CGdiObject::~CGdiObject
??1CPen@@UAE@XZ ENDP					; CPen::~CPen
_TEXT	ENDS
; Function compile flags: /Ogtp
; File C:\Program Files (x86)\Microsoft Visual Studio\2019\Community\VC\Tools\MSVC\14.29.30133\atlmfc\include\afx.inl
;	COMDAT ??_GCGdiObject@@UAEPAXI@Z
_TEXT	SEGMENT
___flags$ = 8						; size = 4
??_GCGdiObject@@UAEPAXI@Z PROC				; CGdiObject::`scalar deleting destructor', COMDAT
; _this$ = ecx
  00000	55		 push	 ebp
  00001	8b ec		 mov	 ebp, esp
  00003	56		 push	 esi
  00004	8b f1		 mov	 esi, ecx
  00006	e8 00 00 00 00	 call	 ??1CGdiObject@@UAE@XZ	; CGdiObject::~CGdiObject
  0000b	8b 45 08	 mov	 eax, DWORD PTR ___flags$[ebp]
  0000e	a8 01		 test	 al, 1
  00010	74 1f		 je	 SHORT $LN9@scalar
  00012	a8 04		 test	 al, 4
  00014	75 10		 jne	 SHORT $LN3@scalar

; 112  : 	{ ::operator delete(p); }

  00016	56		 push	 esi
  00017	e8 00 00 00 00	 call	 ??3@YAXPAX@Z		; operator delete
  0001c	83 c4 04	 add	 esp, 4
  0001f	8b c6		 mov	 eax, esi
  00021	5e		 pop	 esi
  00022	5d		 pop	 ebp
  00023	c2 04 00	 ret	 4
$LN3@scalar:
  00026	6a 08		 push	 8
  00028	56		 push	 esi
  00029	e8 00 00 00 00	 call	 ?__global_delete@@YAXPAXI@Z ; __global_delete
  0002e	83 c4 08	 add	 esp, 8
$LN9@scalar:
  00031	8b c6		 mov	 eax, esi
  00033	5e		 pop	 esi
  00034	5d		 pop	 ebp
  00035	c2 04 00	 ret	 4
??_GCGdiObject@@UAEPAXI@Z ENDP				; CGdiObject::`scalar deleting destructor'
_TEXT	ENDS
; Function compile flags: /Ogtp
; File C:\Program Files (x86)\Microsoft Visual Studio\2019\Community\VC\Tools\MSVC\14.29.30133\atlmfc\include\afxwin1.inl
;	COMDAT ??1CGdiObject@@UAE@XZ
_TEXT	SEGMENT
_pException$2 = -540					; size = 4
_strMsg$3 = -536					; size = 4
_szErrorMessage$4 = -532				; size = 512
__$ArrayPad$ = -20					; size = 4
__$EHRec$ = -16						; size = 16
??1CGdiObject@@UAE@XZ PROC				; CGdiObject::~CGdiObject, COMDAT
; _this$ = ecx

; 74   : {

  00000	55		 push	 ebp
  00001	8b ec		 mov	 ebp, esp
  00003	6a ff		 push	 -1
  00005	68 00 00 00 00	 push	 __ehhandler$??1CGdiObject@@UAE@XZ
  0000a	64 a1 00 00 00
	00		 mov	 eax, DWORD PTR fs:0
  00010	50		 push	 eax
  00011	81 ec 10 02 00
	00		 sub	 esp, 528		; 00000210H
  00017	a1 00 00 00 00	 mov	 eax, DWORD PTR ___security_cookie
  0001c	33 c5		 xor	 eax, ebp
  0001e	89 45 ec	 mov	 DWORD PTR __$ArrayPad$[ebp], eax
  00021	53		 push	 ebx
  00022	56		 push	 esi
  00023	57		 push	 edi
  00024	50		 push	 eax
  00025	8d 45 f4	 lea	 eax, DWORD PTR __$EHRec$[ebp+4]
  00028	64 a3 00 00 00
	00		 mov	 DWORD PTR fs:0, eax
  0002e	89 65 f0	 mov	 DWORD PTR __$EHRec$[ebp], esp
  00031	c7 01 00 00 00
	00		 mov	 DWORD PTR [ecx], OFFSET ??_7CGdiObject@@6B@

; 75   : 	AFX_BEGIN_DESTRUCTOR

  00037	c7 45 fc 00 00
	00 00		 mov	 DWORD PTR __$EHRec$[ebp+12], 0

; 76   : 	DeleteObject();

  0003e	e8 00 00 00 00	 call	 ?DeleteObject@CGdiObject@@QAEHXZ ; CGdiObject::DeleteObject
$LN18@CGdiObject:

; 78   : }

  00043	8b 4d f4	 mov	 ecx, DWORD PTR __$EHRec$[ebp+4]
  00046	64 89 0d 00 00
	00 00		 mov	 DWORD PTR fs:0, ecx
  0004d	59		 pop	 ecx
  0004e	5f		 pop	 edi
  0004f	5e		 pop	 esi
  00050	5b		 pop	 ebx
  00051	8b 4d ec	 mov	 ecx, DWORD PTR __$ArrayPad$[ebp]
  00054	33 cd		 xor	 ecx, ebp
  00056	e8 00 00 00 00	 call	 @__security_check_cookie@4
  0005b	8b e5		 mov	 esp, ebp
  0005d	5d		 pop	 ebp
  0005e	c3		 ret	 0
__catch$??1CGdiObject@@UAE@XZ$0:

; 77   : 	AFX_END_DESTRUCTOR

  0005f	8d 8d e8 fd ff
	ff		 lea	 ecx, DWORD PTR _strMsg$3[ebp]
  00065	ff 15 00 00 00
	00		 call	 DWORD PTR __imp_??0?$CStringT@DV?$StrTraitMFC_DLL@DV?$ChTraitsCRT@D@ATL@@@@@ATL@@QAE@XZ
  0006b	8b b5 e4 fd ff
	ff		 mov	 esi, DWORD PTR _pException$2[ebp]
  00071	8d 8d ec fd ff
	ff		 lea	 ecx, DWORD PTR _szErrorMessage$4[ebp]
  00077	6a 00		 push	 0
  00079	68 00 02 00 00	 push	 512			; 00000200H
  0007e	51		 push	 ecx
  0007f	8b 06		 mov	 eax, DWORD PTR [esi]
  00081	8b ce		 mov	 ecx, esi
  00083	c6 45 fc 02	 mov	 BYTE PTR __$EHRec$[ebp+12], 2
  00087	ff 50 14	 call	 DWORD PTR [eax+20]
  0008a	85 c0		 test	 eax, eax
  0008c	74 2a		 je	 SHORT $LN9@CGdiObject
  0008e	8d 85 ec fd ff
	ff		 lea	 eax, DWORD PTR _szErrorMessage$4[ebp]
  00094	50		 push	 eax
  00095	6a 4d		 push	 77			; 0000004dH
  00097	68 00 00 00 00	 push	 OFFSET ??_C@_0HD@JJCHHHNK@C?3?2Program?5Files?5?$CIx86?$CJ?2Microsof@
  0009c	68 00 00 00 00	 push	 OFFSET ??_C@_0BP@OIEOKIDM@Exception?5thrown?5in?5destructor@
  000a1	8d 85 e8 fd ff
	ff		 lea	 eax, DWORD PTR _strMsg$3[ebp]
  000a7	68 00 00 00 00	 push	 OFFSET ??_C@_0BB@HBOOMJBF@?$CFTs?5?$CI?$CFTs?3?$CFd?$CJ?6?$CFTs@
  000ac	50		 push	 eax
  000ad	ff 15 00 00 00
	00		 call	 DWORD PTR __imp_?Format@?$CStringT@DV?$StrTraitMFC_DLL@DV?$ChTraitsCRT@D@ATL@@@@@ATL@@QAAXPBDZZ
  000b3	83 c4 18	 add	 esp, 24			; 00000018H
  000b6	eb 21		 jmp	 SHORT $LN10@CGdiObject
$LN9@CGdiObject:
  000b8	6a 4d		 push	 77			; 0000004dH
  000ba	68 00 00 00 00	 push	 OFFSET ??_C@_0HD@JJCHHHNK@C?3?2Program?5Files?5?$CIx86?$CJ?2Microsof@
  000bf	68 00 00 00 00	 push	 OFFSET ??_C@_0BP@OIEOKIDM@Exception?5thrown?5in?5destructor@
  000c4	8d 85 e8 fd ff
	ff		 lea	 eax, DWORD PTR _strMsg$3[ebp]
  000ca	68 00 00 00 00	 push	 OFFSET ??_C@_0N@OMEMOKLE@?$CFTs?5?$CI?$CFTs?3?$CFd?$CJ@
  000cf	50		 push	 eax
  000d0	ff 15 00 00 00
	00		 call	 DWORD PTR __imp_?Format@?$CStringT@DV?$StrTraitMFC_DLL@DV?$ChTraitsCRT@D@ATL@@@@@ATL@@QAAXPBDZZ
  000d6	83 c4 14	 add	 esp, 20			; 00000014H
$LN10@CGdiObject:
  000d9	6a 00		 push	 0
  000db	6a 00		 push	 0
  000dd	ff b5 e8 fd ff
	ff		 push	 DWORD PTR _strMsg$3[ebp]
  000e3	e8 00 00 00 00	 call	 ?AfxMessageBox@@YGHPBDII@Z ; AfxMessageBox
  000e8	8d 8d e8 fd ff
	ff		 lea	 ecx, DWORD PTR _strMsg$3[ebp]
  000ee	ff 15 00 00 00
	00		 call	 DWORD PTR __imp_??1?$CStringT@DV?$StrTraitMFC_DLL@DV?$ChTraitsCRT@D@ATL@@@@@ATL@@QAE@XZ
  000f4	8b 06		 mov	 eax, DWORD PTR [esi]
  000f6	8b ce		 mov	 ecx, esi
  000f8	6a 01		 push	 1
  000fa	ff 50 04	 call	 DWORD PTR [eax+4]
  000fd	b8 00 00 00 00	 mov	 eax, $LN18@CGdiObject
  00102	c3		 ret	 0
_TEXT	ENDS
;	COMDAT text$x
text$x	SEGMENT
__unwindfunclet$??1CGdiObject@@UAE@XZ$2:
  00000	8d 8d e8 fd ff
	ff		 lea	 ecx, DWORD PTR _strMsg$3[ebp]
  00006	ff 25 00 00 00
	00		 jmp	 DWORD PTR __imp_??1?$CStringT@DV?$StrTraitMFC_DLL@DV?$ChTraitsCRT@D@ATL@@@@@ATL@@QAE@XZ
  0000c	cc		 int	 3
  0000d	cc		 int	 3
  0000e	cc		 int	 3
  0000f	cc		 int	 3
  00010	cc		 int	 3
__ehhandler$??1CGdiObject@@UAE@XZ:
  00011	90		 npad	 1
  00012	90		 npad	 1
  00013	8b 54 24 08	 mov	 edx, DWORD PTR [esp+8]
  00017	8d 42 0c	 lea	 eax, DWORD PTR [edx+12]
  0001a	8b 8a e0 fd ff
	ff		 mov	 ecx, DWORD PTR [edx-544]
  00020	33 c8		 xor	 ecx, eax
  00022	e8 00 00 00 00	 call	 @__security_check_cookie@4
  00027	8b 4a f8	 mov	 ecx, DWORD PTR [edx-8]
  0002a	33 c8		 xor	 ecx, eax
  0002c	e8 00 00 00 00	 call	 @__security_check_cookie@4
  00031	b8 00 00 00 00	 mov	 eax, OFFSET __ehfuncinfo$??1CGdiObject@@UAE@XZ
  00036	e9 00 00 00 00	 jmp	 ___CxxFrameHandler3
text$x	ENDS
??1CGdiObject@@UAE@XZ ENDP				; CGdiObject::~CGdiObject
; Function compile flags: /Ogtp
; File C:\Program Files (x86)\Microsoft Visual Studio\2019\Community\VC\Tools\MSVC\14.29.30133\atlmfc\include\afx.inl
;	COMDAT ?Dump@CObject@@UBEXAAVCDumpContext@@@Z
_TEXT	SEGMENT
___formal$ = 8						; size = 4
?Dump@CObject@@UBEXAAVCDumpContext@@@Z PROC		; CObject::Dump, COMDAT
; _this$ = ecx

; 122  : 	{ /* no dumping in release builds */ }

  00000	c2 04 00	 ret	 4
?Dump@CObject@@UBEXAAVCDumpContext@@@Z ENDP		; CObject::Dump
_TEXT	ENDS
; Function compile flags: /Ogtp
; File C:\Program Files (x86)\Microsoft Visual Studio\2019\Community\VC\Tools\MSVC\14.29.30133\atlmfc\include\afx.inl
;	COMDAT ?AssertValid@CObject@@UBEXXZ
_TEXT	SEGMENT
?AssertValid@CObject@@UBEXXZ PROC			; CObject::AssertValid, COMDAT
; _this$ = ecx

; 120  : 	{ /* no asserts in release builds */ }

  00000	c2 00 00	 ret	 0
?AssertValid@CObject@@UBEXXZ ENDP			; CObject::AssertValid
_TEXT	ENDS
; Function compile flags: /Ogtp
; File C:\Program Files (x86)\Microsoft Visual Studio\2019\Community\VC\Tools\MSVC\14.29.30133\atlmfc\include\afx.inl
;	COMDAT ?Serialize@CObject@@UAEXAAVCArchive@@@Z
_TEXT	SEGMENT
___formal$ = 8						; size = 4
?Serialize@CObject@@UAEXAAVCArchive@@@Z PROC		; CObject::Serialize, COMDAT
; _this$ = ecx

; 106  : 	{ /* CObject does not serialize anything by default */ }

  00000	c2 04 00	 ret	 4
?Serialize@CObject@@UAEXAAVCArchive@@@Z ENDP		; CObject::Serialize
_TEXT	ENDS
; Function compile flags: /Ogtp
; File C:\Program Files (x86)\Microsoft Visual Studio\2019\Community\VC\Tools\MSVC\14.29.30133\atlmfc\include\afx.inl
;	COMDAT ??1CObject@@UAE@XZ
_TEXT	SEGMENT
??1CObject@@UAE@XZ PROC					; CObject::~CObject, COMDAT
; _this$ = ecx

; 104  : 	{ }

  00000	c2 00 00	 ret	 0
??1CObject@@UAE@XZ ENDP					; CObject::~CObject
_TEXT	ENDS
; Function compile flags: /Ogtp
; File D:\git\src\IBK\IBK_DRFN\ProjSrc\SrcChartEx\ChartOCX\GraphDraw\PairBarDraw.cpp
;	COMDAT ?__empty_global_delete@@YAXPAXI@Z
_TEXT	SEGMENT
___formal$ = 8						; size = 4
___formal$ = 12						; size = 4
?__empty_global_delete@@YAXPAXI@Z PROC			; __empty_global_delete, COMDAT

  00000	c2 00 00	 ret	 0
?__empty_global_delete@@YAXPAXI@Z ENDP			; __empty_global_delete
_TEXT	ENDS
; Function compile flags: /Ogtp
; File D:\git\src\IBK\IBK_DRFN\ProjSrc\SrcChartEx\ChartOCX\GraphDraw\PairBarDraw.cpp
;	COMDAT ?__empty_global_delete@@YAXPAX@Z
_TEXT	SEGMENT
___formal$ = 8						; size = 4
?__empty_global_delete@@YAXPAX@Z PROC			; __empty_global_delete, COMDAT

  00000	c2 00 00	 ret	 0
?__empty_global_delete@@YAXPAX@Z ENDP			; __empty_global_delete
_TEXT	ENDS
END
