; Listing generated by Microsoft (R) Optimizing Compiler Version 19.29.30145.0 

	TITLE	D:\git\src\IBK\IBK_DRFN\#DRfn-CS\_Obj\GraphDraw\SelectSubGraph.obj
	.686P
	.XMM
	include listing.inc
	.model	flat

INCLUDELIB MSVCRT
INCLUDELIB OLDNAMES

CONST	SEGMENT
?_Fake_alloc@std@@3U_Fake_allocator@1@B	ORG $+1		; std::_Fake_alloc
CONST	ENDS
PUBLIC	??_H@YGXPAXIIP6EPAX0@Z@Z			; `vector constructor iterator'
PUBLIC	?__empty_global_delete@@YAXPAX@Z		; __empty_global_delete
PUBLIC	?__empty_global_delete@@YAXPAXI@Z		; __empty_global_delete
PUBLIC	??1CObject@@UAE@XZ				; CObject::~CObject
PUBLIC	?Serialize@CObject@@UAEXAAVCArchive@@@Z		; CObject::Serialize
PUBLIC	?AssertValid@CObject@@UBEXXZ			; CObject::AssertValid
PUBLIC	?Dump@CObject@@UBEXAAVCDumpContext@@@Z		; CObject::Dump
PUBLIC	??0CPoint@@QAE@XZ				; CPoint::CPoint
PUBLIC	??1CGdiObject@@UAE@XZ				; CGdiObject::~CGdiObject
PUBLIC	??_GCGdiObject@@UAEPAXI@Z			; CGdiObject::`scalar deleting destructor'
PUBLIC	??1CRgn@@UAE@XZ					; CRgn::~CRgn
PUBLIC	??_GCRgn@@UAEPAXI@Z				; CRgn::`scalar deleting destructor'
PUBLIC	??0CSelectSubGraph@@QAE@XZ			; CSelectSubGraph::CSelectSubGraph
PUBLIC	??1CSelectSubGraph@@UAE@XZ			; CSelectSubGraph::~CSelectSubGraph
PUBLIC	?PointInSubGraph@CSelectSubGraph@@QAEHABVCPoint@@PBVCSelectSubGraphData@@PAVCIndicatorList@@@Z ; CSelectSubGraph::PointInSubGraph
PUBLIC	?GetPacketData_InverseLineGraph@CSelectSubGraph@@QBE_NPBVCSelectSubGraphData@@AAHAAPAV?$CList@NN@@2AAPAU__POSITION@@3331@Z ; CSelectSubGraph::GetPacketData_InverseLineGraph
PUBLIC	?PointInBongGraph@CSelectSubGraph@@AAEHABVCPoint@@PBVCSelectSubGraphData@@@Z ; CSelectSubGraph::PointInBongGraph
PUBLIC	?PointInLineGraph@CSelectSubGraph@@AAEHABVCPoint@@PBVCSelectSubGraphData@@@Z ; CSelectSubGraph::PointInLineGraph
PUBLIC	?PointInSolidLineBongGraph@CSelectSubGraph@@AAEHABVCPoint@@PBVCSelectSubGraphData@@@Z ; CSelectSubGraph::PointInSolidLineBongGraph
PUBLIC	?PointInBarGraph@CSelectSubGraph@@AAEHABVCPoint@@PBVCSelectSubGraphData@@PAVCIndicatorList@@@Z ; CSelectSubGraph::PointInBarGraph
PUBLIC	?PointInCombBarGraph@CSelectSubGraph@@AAEHABVCPoint@@PBVCSelectSubGraphData@@PAVCIndicatorList@@@Z ; CSelectSubGraph::PointInCombBarGraph
PUBLIC	?PointInDotBarGraph@CSelectSubGraph@@AAEHABVCPoint@@PBVCSelectSubGraphData@@PAVCIndicatorList@@@Z ; CSelectSubGraph::PointInDotBarGraph
PUBLIC	?PointInTopBottomSignalGraph@CSelectSubGraph@@AAEHABVCPoint@@PBVCSelectSubGraphData@@@Z ; CSelectSubGraph::PointInTopBottomSignalGraph
PUBLIC	?PointInBoxBarGraph@CSelectSubGraph@@AAEHABVCPoint@@PBVCSelectSubGraphData@@PAVCIndicatorList@@@Z ; CSelectSubGraph::PointInBoxBarGraph
PUBLIC	?PointInLeftRightBarGraph@CSelectSubGraph@@AAEHABVCPoint@@PBVCSelectSubGraphData@@PAVCIndicatorList@@@Z ; CSelectSubGraph::PointInLeftRightBarGraph
PUBLIC	?PointInGroupBarGraph@CSelectSubGraph@@AAEHABVCPoint@@PBVCSelectSubGraphData@@PAVCIndicatorList@@@Z ; CSelectSubGraph::PointInGroupBarGraph
PUBLIC	?PointInThreeLineBreakGraph@CSelectSubGraph@@AAEHABVCPoint@@PBVCSelectSubGraphData@@@Z ; CSelectSubGraph::PointInThreeLineBreakGraph
PUBLIC	?PointInInverseLineGraph@CSelectSubGraph@@AAEHABVCPoint@@PBVCSelectSubGraphData@@@Z ; CSelectSubGraph::PointInInverseLineGraph
PUBLIC	?PointInPAndFGraph@CSelectSubGraph@@AAEHABVCPoint@@PBVCSelectSubGraphData@@@Z ; CSelectSubGraph::PointInPAndFGraph
PUBLIC	?GetDataIndex@CSelectSubGraph@@AAEHVCRect@@VCPoint@@HHH@Z ; CSelectSubGraph::GetDataIndex
PUBLIC	?GetDataIndex@CSelectSubGraph@@AAEHVCRect@@VCPoint@@HH@Z ; CSelectSubGraph::GetDataIndex
PUBLIC	?GetIndex@CSelectSubGraph@@ABEHHH@Z		; CSelectSubGraph::GetIndex
PUBLIC	??_GCSelectSubGraph@@UAEPAXI@Z			; CSelectSubGraph::`scalar deleting destructor'
PUBLIC	??4CGraphDrawer@@QAEAAV0@ABV0@@Z		; CGraphDrawer::operator=
PUBLIC	??4CGraphDrawer@@QAEAAV0@$$QAV0@@Z		; CGraphDrawer::operator=
PUBLIC	??1CPAndFDraw@@UAE@XZ				; CPAndFDraw::~CPAndFDraw
PUBLIC	??_GCPAndFDraw@@UAEPAXI@Z			; CPAndFDraw::`scalar deleting destructor'
PUBLIC	?FindIndex@?$CList@PAVCPacket@@PAV1@@@QBEPAU__POSITION@@H@Z ; CList<CPacket *,CPacket *>::FindIndex
PUBLIC	?FindIndex@?$CList@NN@@QBEPAU__POSITION@@H@Z	; CList<double,double>::FindIndex
PUBLIC	??_R0PAVCException@@@8				; CException * `RTTI Type Descriptor'
PUBLIC	??_7CGdiObject@@6B@				; CGdiObject::`vftable'
PUBLIC	??_7CRgn@@6B@					; CRgn::`vftable'
PUBLIC	??_C@_0HD@JJCHHHNK@C?3?2Program?5Files?5?$CIx86?$CJ?2Microsof@ ; `string'
PUBLIC	??_C@_0BP@OIEOKIDM@Exception?5thrown?5in?5destructor@ ; `string'
PUBLIC	??_C@_0BB@HBOOMJBF@?$CFTs?5?$CI?$CFTs?3?$CFd?$CJ?6?$CFTs@ ; `string'
PUBLIC	??_C@_0N@OMEMOKLE@?$CFTs?5?$CI?$CFTs?3?$CFd?$CJ@ ; `string'
PUBLIC	??_R0?AVCObject@@@8				; CObject `RTTI Type Descriptor'
PUBLIC	??_R3CObject@@8					; CObject::`RTTI Class Hierarchy Descriptor'
PUBLIC	??_R2CObject@@8					; CObject::`RTTI Base Class Array'
PUBLIC	??_R1A@?0A@EA@CObject@@8			; CObject::`RTTI Base Class Descriptor at (0,-1,0,64)'
PUBLIC	??_R4CGdiObject@@6B@				; CGdiObject::`RTTI Complete Object Locator'
PUBLIC	??_R0?AVCGdiObject@@@8				; CGdiObject `RTTI Type Descriptor'
PUBLIC	??_R3CGdiObject@@8				; CGdiObject::`RTTI Class Hierarchy Descriptor'
PUBLIC	??_R2CGdiObject@@8				; CGdiObject::`RTTI Base Class Array'
PUBLIC	??_R1A@?0A@EA@CGdiObject@@8			; CGdiObject::`RTTI Base Class Descriptor at (0,-1,0,64)'
PUBLIC	??_R4CRgn@@6B@					; CRgn::`RTTI Complete Object Locator'
PUBLIC	??_R0?AVCRgn@@@8				; CRgn `RTTI Type Descriptor'
PUBLIC	??_R3CRgn@@8					; CRgn::`RTTI Class Hierarchy Descriptor'
PUBLIC	??_R2CRgn@@8					; CRgn::`RTTI Base Class Array'
PUBLIC	??_R1A@?0A@EA@CRgn@@8				; CRgn::`RTTI Base Class Descriptor at (0,-1,0,64)'
PUBLIC	??_7CSelectSubGraph@@6B@			; CSelectSubGraph::`vftable'
PUBLIC	??_7CPAndFDraw@@6B@				; CPAndFDraw::`vftable'
PUBLIC	??_R4CSelectSubGraph@@6B@			; CSelectSubGraph::`RTTI Complete Object Locator'
PUBLIC	??_R0?AVCSelectSubGraph@@@8			; CSelectSubGraph `RTTI Type Descriptor'
PUBLIC	??_R3CSelectSubGraph@@8				; CSelectSubGraph::`RTTI Class Hierarchy Descriptor'
PUBLIC	??_R2CSelectSubGraph@@8				; CSelectSubGraph::`RTTI Base Class Array'
PUBLIC	??_R1A@?0A@EA@CSelectSubGraph@@8		; CSelectSubGraph::`RTTI Base Class Descriptor at (0,-1,0,64)'
PUBLIC	??_R1A@?0A@EA@CDraw@@8				; CDraw::`RTTI Base Class Descriptor at (0,-1,0,64)'
PUBLIC	??_R0?AVCDraw@@@8				; CDraw `RTTI Type Descriptor'
PUBLIC	??_R3CDraw@@8					; CDraw::`RTTI Class Hierarchy Descriptor'
PUBLIC	??_R2CDraw@@8					; CDraw::`RTTI Base Class Array'
PUBLIC	??_R4CPAndFDraw@@6B@				; CPAndFDraw::`RTTI Complete Object Locator'
PUBLIC	??_R0?AVCPAndFDraw@@@8				; CPAndFDraw `RTTI Type Descriptor'
PUBLIC	??_R3CPAndFDraw@@8				; CPAndFDraw::`RTTI Class Hierarchy Descriptor'
PUBLIC	??_R2CPAndFDraw@@8				; CPAndFDraw::`RTTI Base Class Array'
PUBLIC	??_R1A@?0A@EA@CPAndFDraw@@8			; CPAndFDraw::`RTTI Base Class Descriptor at (0,-1,0,64)'
PUBLIC	__real@0000000000000000
PUBLIC	__real@3fe0000000000000
PUBLIC	__real@3fe999999999999a
PUBLIC	__real@3ff0000000000000
PUBLIC	__real@4020000000000000
PUBLIC	__real@bff0000000000000
PUBLIC	__xmm@7fffffffffffffff7fffffffffffffff
EXTRN	??3@YAXPAX@Z:PROC				; operator delete
EXTRN	??3@YAXPAXI@Z:PROC				; operator delete
EXTRN	?__global_delete@@YAXPAXI@Z:PROC		; __global_delete
EXTRN	__imp__PtInRegion@12:PROC
EXTRN	__imp__CreatePolygonRgn@12:PROC
EXTRN	__imp__InflateRect@12:PROC
EXTRN	__imp__PtInRect@12:PROC
EXTRN	?AfxThrowInvalidArgException@@YGXXZ:PROC	; AfxThrowInvalidArgException
EXTRN	__imp_??0?$CStringT@DV?$StrTraitMFC_DLL@DV?$ChTraitsCRT@D@ATL@@@@@ATL@@QAE@XZ:PROC
EXTRN	__imp_??0?$CStringT@DV?$StrTraitMFC_DLL@DV?$ChTraitsCRT@D@ATL@@@@@ATL@@QAE@ABV01@@Z:PROC
EXTRN	__imp_??1?$CStringT@DV?$StrTraitMFC_DLL@DV?$ChTraitsCRT@D@ATL@@@@@ATL@@QAE@XZ:PROC
EXTRN	__imp_?Compare@?$CStringT@DV?$StrTraitMFC_DLL@DV?$ChTraitsCRT@D@ATL@@@@@ATL@@QBEHPBD@Z:PROC
EXTRN	__imp_?Format@?$CStringT@DV?$StrTraitMFC_DLL@DV?$ChTraitsCRT@D@ATL@@@@@ATL@@QAAXPBDZZ:PROC
EXTRN	?GetRuntimeClass@CGdiObject@@UBEPAUCRuntimeClass@@XZ:PROC ; CGdiObject::GetRuntimeClass
EXTRN	?Attach@CGdiObject@@QAEHPAX@Z:PROC		; CGdiObject::Attach
EXTRN	?DeleteObject@CGdiObject@@QAEHXZ:PROC		; CGdiObject::DeleteObject
EXTRN	??_ECGdiObject@@UAEPAXI@Z:PROC			; CGdiObject::`vector deleting destructor'
EXTRN	?GetRuntimeClass@CRgn@@UBEPAUCRuntimeClass@@XZ:PROC ; CRgn::GetRuntimeClass
EXTRN	??_ECRgn@@UAEPAXI@Z:PROC			; CRgn::`vector deleting destructor'
EXTRN	?AfxMessageBox@@YGHPBDII@Z:PROC			; AfxMessageBox
EXTRN	?GetVerticalPoint@CDataConversion@@SA?AVCPoint@@ABVCRect@@HABN111_N@Z:PROC ; CDataConversion::GetVerticalPoint
EXTRN	?GetVerticalPoint@CDataConversion@@SA?AVCPoint@@ABVCRect@@ABN11111@Z:PROC ; CDataConversion::GetVerticalPoint
EXTRN	?GetHorizontalPoint@CDataConversion@@SA?AVCPoint@@ABVCRect@@HABN111@Z:PROC ; CDataConversion::GetHorizontalPoint
EXTRN	?AbsoluteToRelative_X@CDataConversion@@SAHABVCRect@@HH@Z:PROC ; CDataConversion::AbsoluteToRelative_X
EXTRN	?InvertGraphDataPt@CDataConversion@@SAHABVCRect@@H@Z:PROC ; CDataConversion::InvertGraphDataPt
EXTRN	??0CDraw@@QAE@XZ:PROC				; CDraw::CDraw
EXTRN	??1CDraw@@UAE@XZ:PROC				; CDraw::~CDraw
EXTRN	?DrawGraph@CDraw@@UAE_NPAVCDC@@ABVCRect@@ABVCDisplayAttributes@@ABVCDrawingGraphData@@ABVCSubGraphData@@@Z:PROC ; CDraw::DrawGraph
EXTRN	?DrawGraph@CDraw@@UAE_NPAVCDC@@ABVCRect@@ABVCDisplayAttributes@@ABVCDrawingGraphData@@ABVCSubGraphData@@ABV?$CStringT@DV?$StrTraitMFC_DLL@DV?$ChTraitsCRT@D@ATL@@@@@ATL@@PAVCXScaleManager@@@Z:PROC ; CDraw::DrawGraph
EXTRN	?CalRealWidth@CDraw@@IAENABVCRect@@HH@Z:PROC	; CDraw::CalRealWidth
EXTRN	?CalLogValue@CDraw@@IAEN_NN@Z:PROC		; CDraw::CalLogValue
EXTRN	??_ECSelectSubGraph@@UAEPAXI@Z:PROC		; CSelectSubGraph::`vector deleting destructor'
EXTRN	?IsViewVertMinMax_EndPacket@IMetaTable@@QAE_NABV?$CStringT@DV?$StrTraitMFC_DLL@DV?$ChTraitsCRT@D@ATL@@@@@ATL@@@Z:PROC ; IMetaTable::IsViewVertMinMax_EndPacket
EXTRN	__imp_?GetName@CPacket@@QAE?AV?$CStringT@DV?$StrTraitMFC_DLL@DV?$ChTraitsCRT@D@ATL@@@@@ATL@@XZ:PROC
EXTRN	__imp_?GetPacketList@CPacket@@QAEPAVCPacketList@@XZ:PROC
EXTRN	__imp_?GetStartPeriod@CPacket@@QAEHXZ:PROC
EXTRN	__imp_?GetnumericDataList@CPacket@@QAEPAV?$CList@NN@@XZ:PROC
EXTRN	__imp_?GetMinMax@CPacket@@QAEHHHAAN0H@Z:PROC
EXTRN	__imp_?GetDisplayMin@CDisplayDataMinMax@@QBENXZ:PROC
EXTRN	__imp_?GetDisplayMax@CDisplayDataMinMax@@QBENXZ:PROC
EXTRN	?GetDataStartInBlock@CDisplayAttributes@@QBEHXZ:PROC ; CDisplayAttributes::GetDataStartInBlock
EXTRN	?GetDataEndInBlock@CDisplayAttributes@@QBEHXZ:PROC ; CDisplayAttributes::GetDataEndInBlock
EXTRN	?GetDataCountInBlock@CDisplayAttributes@@QBEHXZ:PROC ; CDisplayAttributes::GetDataCountInBlock
EXTRN	?GetDrawingRegion@CGraphRegions@@QBE?AVCRect@@W4GRAPHTYPE@CGraphBaseData@@ABVCGraphStyle@@@Z:PROC ; CGraphRegions::GetDrawingRegion
EXTRN	?Round@CMath@@SAHN@Z:PROC			; CMath::Round
EXTRN	?GetGraphName@CSelectSubGraphData@@QBE?AV?$CStringT@DV?$StrTraitMFC_DLL@DV?$ChTraitsCRT@D@ATL@@@@@ATL@@XZ:PROC ; CSelectSubGraphData::GetGraphName
EXTRN	?GetVertScaleLogType@CSelectSubGraphData@@QBE_NXZ:PROC ; CSelectSubGraphData::GetVertScaleLogType
EXTRN	?GetVertScaleInvertType@CSelectSubGraphData@@QBE_NXZ:PROC ; CSelectSubGraphData::GetVertScaleInvertType
EXTRN	?GetGraphRegions@CSelectSubGraphData@@QBE?AVCGraphRegions@@XZ:PROC ; CSelectSubGraphData::GetGraphRegions
EXTRN	?GetSubGraphType@CSelectSubGraphData@@QBE?AW4GRAPHTYPE@CGraphBaseData@@XZ:PROC ; CSelectSubGraphData::GetSubGraphType
EXTRN	?GetSubGraphStyle@CSelectSubGraphData@@QBE?AVCGraphStyle@@XZ:PROC ; CSelectSubGraphData::GetSubGraphStyle
EXTRN	?GetDisplayDataHorzMinMax@CSelectSubGraphData@@QBE?AVCDisplayDataMinMax@@XZ:PROC ; CSelectSubGraphData::GetDisplayDataHorzMinMax
EXTRN	?GetDisplayDataVertMinMax@CSelectSubGraphData@@QBE?AVCDisplayDataMinMax@@XZ:PROC ; CSelectSubGraphData::GetDisplayDataVertMinMax
EXTRN	?GetDisplayAttributes@CSelectSubGraphData@@QBE?AVCDisplayAttributes@@XZ:PROC ; CSelectSubGraphData::GetDisplayAttributes
EXTRN	?GetSubGraphPacketList@CSelectSubGraphData@@QBEPAVCSubGraphPacketList@@XZ:PROC ; CSelectSubGraphData::GetSubGraphPacketList
EXTRN	?GetIndicatorInfo@CSelectSubGraphData@@QBEPAVCIndicatorInfo@@XZ:PROC ; CSelectSubGraphData::GetIndicatorInfo
EXTRN	?GetXScaleManager@CSelectSubGraphData@@QBEPAVCXScaleManager@@XZ:PROC ; CSelectSubGraphData::GetXScaleManager
EXTRN	?GetRQ@CSelectSubGraphData@@QBE?AV?$CStringT@DV?$StrTraitMFC_DLL@DV?$ChTraitsCRT@D@ATL@@@@@ATL@@XZ:PROC ; CSelectSubGraphData::GetRQ
EXTRN	__imp_?GetGraphIndicatorInfo@CIndicatorList@@QAEPAVCIndicatorInfo@@W4EIndicatorListType@@PBD1W4EIndicatorInfoGettingType@@@Z:PROC
EXTRN	__imp_?GetBaseLineList@CIndicatorInfo@@QAEPAV?$CList@NN@@XZ:PROC
EXTRN	?GetPacketData@CPAndFDraw@@QBE_NABV?$CList@PAVCPacket@@PAV1@@@AAPAVCPacket@@AAPAV?$CList@NN@@2@Z:PROC ; CPAndFDraw::GetPacketData
EXTRN	?GetUintHeight@CPAndFDraw@@QBENABVCRect@@ABN11@Z:PROC ; CPAndFDraw::GetUintHeight
EXTRN	?GetUnitValue@CPAndFDraw@@QBENPAVCPacketList@@PAVCIndicatorInfo@@@Z:PROC ; CPAndFDraw::GetUnitValue
EXTRN	??_ECPAndFDraw@@UAEPAXI@Z:PROC			; CPAndFDraw::`vector deleting destructor'
EXTRN	?GetSubGraphPacketList@CSubGraphPacketList@@QBEABV?$CList@PAVCPacket@@PAV1@@@XZ:PROC ; CSubGraphPacketList::GetSubGraphPacketList
EXTRN	??0CBarDraw@@QAE@XZ:PROC			; CBarDraw::CBarDraw
EXTRN	??1CBarDraw@@UAE@XZ:PROC			; CBarDraw::~CBarDraw
EXTRN	?CheckBoxBarType@CBarDraw@@QAE_NPAVCPacket@@@Z:PROC ; CBarDraw::CheckBoxBarType
EXTRN	??0CGripDraw@@QAE@XZ:PROC			; CGripDraw::CGripDraw
EXTRN	??1CGripDraw@@UAE@XZ:PROC			; CGripDraw::~CGripDraw
EXTRN	?GetGripDrawData_BarType@CGripDraw@@QBE_NPAVCPacket@@ABVCSelectSubGraphData@@AAH2AAVCRect@@@Z:PROC ; CGripDraw::GetGripDrawData_BarType
EXTRN	@__security_check_cookie@4:PROC
EXTRN	___CxxFrameHandler3:PROC
EXTRN	??_7type_info@@6B@:QWORD			; type_info::`vftable'
EXTRN	?g_iMetaTable@@3VIMetaTable@@A:BYTE		; g_iMetaTable
EXTRN	___security_cookie:DWORD
EXTRN	__fltused:DWORD
;	COMDAT __xmm@7fffffffffffffff7fffffffffffffff
CONST	SEGMENT
__xmm@7fffffffffffffff7fffffffffffffff DB 0ffH, 0ffH, 0ffH, 0ffH, 0ffH, 0ffH
	DB	0ffH, 07fH, 0ffH, 0ffH, 0ffH, 0ffH, 0ffH, 0ffH, 0ffH, 07fH
CONST	ENDS
;	COMDAT __real@bff0000000000000
CONST	SEGMENT
__real@bff0000000000000 DQ 0bff0000000000000r	; -1
CONST	ENDS
;	COMDAT __real@4020000000000000
CONST	SEGMENT
__real@4020000000000000 DQ 04020000000000000r	; 8
CONST	ENDS
;	COMDAT __real@3ff0000000000000
CONST	SEGMENT
__real@3ff0000000000000 DQ 03ff0000000000000r	; 1
CONST	ENDS
;	COMDAT __real@3fe999999999999a
CONST	SEGMENT
__real@3fe999999999999a DQ 03fe999999999999ar	; 0.8
CONST	ENDS
;	COMDAT __real@3fe0000000000000
CONST	SEGMENT
__real@3fe0000000000000 DQ 03fe0000000000000r	; 0.5
CONST	ENDS
;	COMDAT __real@0000000000000000
CONST	SEGMENT
__real@0000000000000000 DQ 00000000000000000r	; 0
CONST	ENDS
;	COMDAT ??_R1A@?0A@EA@CPAndFDraw@@8
rdata$r	SEGMENT
??_R1A@?0A@EA@CPAndFDraw@@8 DD FLAT:??_R0?AVCPAndFDraw@@@8 ; CPAndFDraw::`RTTI Base Class Descriptor at (0,-1,0,64)'
	DD	01H
	DD	00H
	DD	0ffffffffH
	DD	00H
	DD	040H
	DD	FLAT:??_R3CPAndFDraw@@8
rdata$r	ENDS
;	COMDAT ??_R2CPAndFDraw@@8
rdata$r	SEGMENT
??_R2CPAndFDraw@@8 DD FLAT:??_R1A@?0A@EA@CPAndFDraw@@8	; CPAndFDraw::`RTTI Base Class Array'
	DD	FLAT:??_R1A@?0A@EA@CDraw@@8
rdata$r	ENDS
;	COMDAT ??_R3CPAndFDraw@@8
rdata$r	SEGMENT
??_R3CPAndFDraw@@8 DD 00H				; CPAndFDraw::`RTTI Class Hierarchy Descriptor'
	DD	00H
	DD	02H
	DD	FLAT:??_R2CPAndFDraw@@8
rdata$r	ENDS
;	COMDAT ??_R0?AVCPAndFDraw@@@8
data$rs	SEGMENT
??_R0?AVCPAndFDraw@@@8 DD FLAT:??_7type_info@@6B@	; CPAndFDraw `RTTI Type Descriptor'
	DD	00H
	DB	'.?AVCPAndFDraw@@', 00H
data$rs	ENDS
;	COMDAT ??_R4CPAndFDraw@@6B@
rdata$r	SEGMENT
??_R4CPAndFDraw@@6B@ DD 00H				; CPAndFDraw::`RTTI Complete Object Locator'
	DD	00H
	DD	00H
	DD	FLAT:??_R0?AVCPAndFDraw@@@8
	DD	FLAT:??_R3CPAndFDraw@@8
rdata$r	ENDS
;	COMDAT ??_R2CDraw@@8
rdata$r	SEGMENT
??_R2CDraw@@8 DD FLAT:??_R1A@?0A@EA@CDraw@@8		; CDraw::`RTTI Base Class Array'
rdata$r	ENDS
;	COMDAT ??_R3CDraw@@8
rdata$r	SEGMENT
??_R3CDraw@@8 DD 00H					; CDraw::`RTTI Class Hierarchy Descriptor'
	DD	00H
	DD	01H
	DD	FLAT:??_R2CDraw@@8
rdata$r	ENDS
;	COMDAT ??_R0?AVCDraw@@@8
data$rs	SEGMENT
??_R0?AVCDraw@@@8 DD FLAT:??_7type_info@@6B@		; CDraw `RTTI Type Descriptor'
	DD	00H
	DB	'.?AVCDraw@@', 00H
data$rs	ENDS
;	COMDAT ??_R1A@?0A@EA@CDraw@@8
rdata$r	SEGMENT
??_R1A@?0A@EA@CDraw@@8 DD FLAT:??_R0?AVCDraw@@@8	; CDraw::`RTTI Base Class Descriptor at (0,-1,0,64)'
	DD	00H
	DD	00H
	DD	0ffffffffH
	DD	00H
	DD	040H
	DD	FLAT:??_R3CDraw@@8
rdata$r	ENDS
;	COMDAT ??_R1A@?0A@EA@CSelectSubGraph@@8
rdata$r	SEGMENT
??_R1A@?0A@EA@CSelectSubGraph@@8 DD FLAT:??_R0?AVCSelectSubGraph@@@8 ; CSelectSubGraph::`RTTI Base Class Descriptor at (0,-1,0,64)'
	DD	01H
	DD	00H
	DD	0ffffffffH
	DD	00H
	DD	040H
	DD	FLAT:??_R3CSelectSubGraph@@8
rdata$r	ENDS
;	COMDAT ??_R2CSelectSubGraph@@8
rdata$r	SEGMENT
??_R2CSelectSubGraph@@8 DD FLAT:??_R1A@?0A@EA@CSelectSubGraph@@8 ; CSelectSubGraph::`RTTI Base Class Array'
	DD	FLAT:??_R1A@?0A@EA@CDraw@@8
rdata$r	ENDS
;	COMDAT ??_R3CSelectSubGraph@@8
rdata$r	SEGMENT
??_R3CSelectSubGraph@@8 DD 00H				; CSelectSubGraph::`RTTI Class Hierarchy Descriptor'
	DD	00H
	DD	02H
	DD	FLAT:??_R2CSelectSubGraph@@8
rdata$r	ENDS
;	COMDAT ??_R0?AVCSelectSubGraph@@@8
data$rs	SEGMENT
??_R0?AVCSelectSubGraph@@@8 DD FLAT:??_7type_info@@6B@	; CSelectSubGraph `RTTI Type Descriptor'
	DD	00H
	DB	'.?AVCSelectSubGraph@@', 00H
data$rs	ENDS
;	COMDAT ??_R4CSelectSubGraph@@6B@
rdata$r	SEGMENT
??_R4CSelectSubGraph@@6B@ DD 00H			; CSelectSubGraph::`RTTI Complete Object Locator'
	DD	00H
	DD	00H
	DD	FLAT:??_R0?AVCSelectSubGraph@@@8
	DD	FLAT:??_R3CSelectSubGraph@@8
rdata$r	ENDS
;	COMDAT ??_7CPAndFDraw@@6B@
CONST	SEGMENT
??_7CPAndFDraw@@6B@ DD FLAT:??_R4CPAndFDraw@@6B@	; CPAndFDraw::`vftable'
	DD	FLAT:??_ECPAndFDraw@@UAEPAXI@Z
	DD	FLAT:?DrawGraph@CDraw@@UAE_NPAVCDC@@ABVCRect@@ABVCDisplayAttributes@@ABVCDrawingGraphData@@ABVCSubGraphData@@ABV?$CStringT@DV?$StrTraitMFC_DLL@DV?$ChTraitsCRT@D@ATL@@@@@ATL@@PAVCXScaleManager@@@Z
	DD	FLAT:?DrawGraph@CDraw@@UAE_NPAVCDC@@ABVCRect@@ABVCDisplayAttributes@@ABVCDrawingGraphData@@ABVCSubGraphData@@@Z
CONST	ENDS
;	COMDAT ??_7CSelectSubGraph@@6B@
CONST	SEGMENT
??_7CSelectSubGraph@@6B@ DD FLAT:??_R4CSelectSubGraph@@6B@ ; CSelectSubGraph::`vftable'
	DD	FLAT:??_ECSelectSubGraph@@UAEPAXI@Z
	DD	FLAT:?DrawGraph@CDraw@@UAE_NPAVCDC@@ABVCRect@@ABVCDisplayAttributes@@ABVCDrawingGraphData@@ABVCSubGraphData@@ABV?$CStringT@DV?$StrTraitMFC_DLL@DV?$ChTraitsCRT@D@ATL@@@@@ATL@@PAVCXScaleManager@@@Z
	DD	FLAT:?DrawGraph@CDraw@@UAE_NPAVCDC@@ABVCRect@@ABVCDisplayAttributes@@ABVCDrawingGraphData@@ABVCSubGraphData@@@Z
CONST	ENDS
;	COMDAT ??_R1A@?0A@EA@CRgn@@8
rdata$r	SEGMENT
??_R1A@?0A@EA@CRgn@@8 DD FLAT:??_R0?AVCRgn@@@8		; CRgn::`RTTI Base Class Descriptor at (0,-1,0,64)'
	DD	02H
	DD	00H
	DD	0ffffffffH
	DD	00H
	DD	040H
	DD	FLAT:??_R3CRgn@@8
rdata$r	ENDS
;	COMDAT ??_R2CRgn@@8
rdata$r	SEGMENT
??_R2CRgn@@8 DD	FLAT:??_R1A@?0A@EA@CRgn@@8		; CRgn::`RTTI Base Class Array'
	DD	FLAT:??_R1A@?0A@EA@CGdiObject@@8
	DD	FLAT:??_R1A@?0A@EA@CObject@@8
rdata$r	ENDS
;	COMDAT ??_R3CRgn@@8
rdata$r	SEGMENT
??_R3CRgn@@8 DD	00H					; CRgn::`RTTI Class Hierarchy Descriptor'
	DD	00H
	DD	03H
	DD	FLAT:??_R2CRgn@@8
rdata$r	ENDS
;	COMDAT ??_R0?AVCRgn@@@8
data$rs	SEGMENT
??_R0?AVCRgn@@@8 DD FLAT:??_7type_info@@6B@		; CRgn `RTTI Type Descriptor'
	DD	00H
	DB	'.?AVCRgn@@', 00H
data$rs	ENDS
;	COMDAT ??_R4CRgn@@6B@
rdata$r	SEGMENT
??_R4CRgn@@6B@ DD 00H					; CRgn::`RTTI Complete Object Locator'
	DD	00H
	DD	00H
	DD	FLAT:??_R0?AVCRgn@@@8
	DD	FLAT:??_R3CRgn@@8
rdata$r	ENDS
;	COMDAT ??_R1A@?0A@EA@CGdiObject@@8
rdata$r	SEGMENT
??_R1A@?0A@EA@CGdiObject@@8 DD FLAT:??_R0?AVCGdiObject@@@8 ; CGdiObject::`RTTI Base Class Descriptor at (0,-1,0,64)'
	DD	01H
	DD	00H
	DD	0ffffffffH
	DD	00H
	DD	040H
	DD	FLAT:??_R3CGdiObject@@8
rdata$r	ENDS
;	COMDAT ??_R2CGdiObject@@8
rdata$r	SEGMENT
??_R2CGdiObject@@8 DD FLAT:??_R1A@?0A@EA@CGdiObject@@8	; CGdiObject::`RTTI Base Class Array'
	DD	FLAT:??_R1A@?0A@EA@CObject@@8
rdata$r	ENDS
;	COMDAT ??_R3CGdiObject@@8
rdata$r	SEGMENT
??_R3CGdiObject@@8 DD 00H				; CGdiObject::`RTTI Class Hierarchy Descriptor'
	DD	00H
	DD	02H
	DD	FLAT:??_R2CGdiObject@@8
rdata$r	ENDS
;	COMDAT ??_R0?AVCGdiObject@@@8
data$rs	SEGMENT
??_R0?AVCGdiObject@@@8 DD FLAT:??_7type_info@@6B@	; CGdiObject `RTTI Type Descriptor'
	DD	00H
	DB	'.?AVCGdiObject@@', 00H
data$rs	ENDS
;	COMDAT ??_R4CGdiObject@@6B@
rdata$r	SEGMENT
??_R4CGdiObject@@6B@ DD 00H				; CGdiObject::`RTTI Complete Object Locator'
	DD	00H
	DD	00H
	DD	FLAT:??_R0?AVCGdiObject@@@8
	DD	FLAT:??_R3CGdiObject@@8
rdata$r	ENDS
;	COMDAT ??_R1A@?0A@EA@CObject@@8
rdata$r	SEGMENT
??_R1A@?0A@EA@CObject@@8 DD FLAT:??_R0?AVCObject@@@8	; CObject::`RTTI Base Class Descriptor at (0,-1,0,64)'
	DD	00H
	DD	00H
	DD	0ffffffffH
	DD	00H
	DD	040H
	DD	FLAT:??_R3CObject@@8
rdata$r	ENDS
;	COMDAT ??_R2CObject@@8
rdata$r	SEGMENT
??_R2CObject@@8 DD FLAT:??_R1A@?0A@EA@CObject@@8	; CObject::`RTTI Base Class Array'
rdata$r	ENDS
;	COMDAT ??_R3CObject@@8
rdata$r	SEGMENT
??_R3CObject@@8 DD 00H					; CObject::`RTTI Class Hierarchy Descriptor'
	DD	00H
	DD	01H
	DD	FLAT:??_R2CObject@@8
rdata$r	ENDS
;	COMDAT ??_R0?AVCObject@@@8
data$rs	SEGMENT
??_R0?AVCObject@@@8 DD FLAT:??_7type_info@@6B@		; CObject `RTTI Type Descriptor'
	DD	00H
	DB	'.?AVCObject@@', 00H
data$rs	ENDS
;	COMDAT ??_C@_0N@OMEMOKLE@?$CFTs?5?$CI?$CFTs?3?$CFd?$CJ@
CONST	SEGMENT
??_C@_0N@OMEMOKLE@?$CFTs?5?$CI?$CFTs?3?$CFd?$CJ@ DB '%Ts (%Ts:%d)', 00H ; `string'
CONST	ENDS
;	COMDAT ??_C@_0BB@HBOOMJBF@?$CFTs?5?$CI?$CFTs?3?$CFd?$CJ?6?$CFTs@
CONST	SEGMENT
??_C@_0BB@HBOOMJBF@?$CFTs?5?$CI?$CFTs?3?$CFd?$CJ?6?$CFTs@ DB '%Ts (%Ts:%d'
	DB	')', 0aH, '%Ts', 00H				; `string'
CONST	ENDS
;	COMDAT ??_C@_0BP@OIEOKIDM@Exception?5thrown?5in?5destructor@
CONST	SEGMENT
??_C@_0BP@OIEOKIDM@Exception?5thrown?5in?5destructor@ DB 'Exception throw'
	DB	'n in destructor', 00H			; `string'
CONST	ENDS
;	COMDAT ??_C@_0HD@JJCHHHNK@C?3?2Program?5Files?5?$CIx86?$CJ?2Microsof@
CONST	SEGMENT
??_C@_0HD@JJCHHHNK@C?3?2Program?5Files?5?$CIx86?$CJ?2Microsof@ DB 'C:\Pro'
	DB	'gram Files (x86)\Microsoft Visual Studio\2019\Community\VC\To'
	DB	'ols\MSVC\14.29.30133\atlmfc\include\afxwin1.inl', 00H ; `string'
CONST	ENDS
;	COMDAT ??_7CRgn@@6B@
CONST	SEGMENT
??_7CRgn@@6B@ DD FLAT:??_R4CRgn@@6B@			; CRgn::`vftable'
	DD	FLAT:?GetRuntimeClass@CRgn@@UBEPAUCRuntimeClass@@XZ
	DD	FLAT:??_ECRgn@@UAEPAXI@Z
	DD	FLAT:?Serialize@CObject@@UAEXAAVCArchive@@@Z
	DD	FLAT:?AssertValid@CObject@@UBEXXZ
	DD	FLAT:?Dump@CObject@@UBEXAAVCDumpContext@@@Z
CONST	ENDS
;	COMDAT ??_7CGdiObject@@6B@
CONST	SEGMENT
??_7CGdiObject@@6B@ DD FLAT:??_R4CGdiObject@@6B@	; CGdiObject::`vftable'
	DD	FLAT:?GetRuntimeClass@CGdiObject@@UBEPAUCRuntimeClass@@XZ
	DD	FLAT:??_ECGdiObject@@UAEPAXI@Z
	DD	FLAT:?Serialize@CObject@@UAEXAAVCArchive@@@Z
	DD	FLAT:?AssertValid@CObject@@UBEXXZ
	DD	FLAT:?Dump@CObject@@UBEXAAVCDumpContext@@@Z
CONST	ENDS
;	COMDAT ??_R0PAVCException@@@8
data$r	SEGMENT
??_R0PAVCException@@@8 DD FLAT:??_7type_info@@6B@	; CException * `RTTI Type Descriptor'
	DD	00H
	DB	'.PAVCException@@', 00H
data$r	ENDS
;	COMDAT xdata$x
xdata$x	SEGMENT
__unwindtable$?PointInPAndFGraph@CSelectSubGraph@@AAEHABVCPoint@@PBVCSelectSubGraphData@@@Z DD 0ffffffffH
	DD	FLAT:__unwindfunclet$?PointInPAndFGraph@CSelectSubGraph@@AAEHABVCPoint@@PBVCSelectSubGraphData@@@Z$0
	DD	00H
	DD	FLAT:__unwindfunclet$?PointInPAndFGraph@CSelectSubGraph@@AAEHABVCPoint@@PBVCSelectSubGraphData@@@Z$1
__ehfuncinfo$?PointInPAndFGraph@CSelectSubGraph@@AAEHABVCPoint@@PBVCSelectSubGraphData@@@Z DD 019930522H
	DD	02H
	DD	FLAT:__unwindtable$?PointInPAndFGraph@CSelectSubGraph@@AAEHABVCPoint@@PBVCSelectSubGraphData@@@Z
	DD	2 DUP(00H)
	DD	2 DUP(00H)
	DD	00H
	DD	01H
xdata$x	ENDS
;	COMDAT xdata$x
xdata$x	SEGMENT
__unwindtable$?PointInInverseLineGraph@CSelectSubGraph@@AAEHABVCPoint@@PBVCSelectSubGraphData@@@Z DD 0ffffffffH
	DD	FLAT:__unwindfunclet$?PointInInverseLineGraph@CSelectSubGraph@@AAEHABVCPoint@@PBVCSelectSubGraphData@@@Z$0
__ehfuncinfo$?PointInInverseLineGraph@CSelectSubGraph@@AAEHABVCPoint@@PBVCSelectSubGraphData@@@Z DD 019930522H
	DD	01H
	DD	FLAT:__unwindtable$?PointInInverseLineGraph@CSelectSubGraph@@AAEHABVCPoint@@PBVCSelectSubGraphData@@@Z
	DD	2 DUP(00H)
	DD	2 DUP(00H)
	DD	00H
	DD	01H
xdata$x	ENDS
;	COMDAT xdata$x
xdata$x	SEGMENT
__unwindtable$?PointInBoxBarGraph@CSelectSubGraph@@AAEHABVCPoint@@PBVCSelectSubGraphData@@PAVCIndicatorList@@@Z DD 0ffffffffH
	DD	FLAT:__unwindfunclet$?PointInBoxBarGraph@CSelectSubGraph@@AAEHABVCPoint@@PBVCSelectSubGraphData@@PAVCIndicatorList@@@Z$0
__ehfuncinfo$?PointInBoxBarGraph@CSelectSubGraph@@AAEHABVCPoint@@PBVCSelectSubGraphData@@PAVCIndicatorList@@@Z DD 019930522H
	DD	01H
	DD	FLAT:__unwindtable$?PointInBoxBarGraph@CSelectSubGraph@@AAEHABVCPoint@@PBVCSelectSubGraphData@@PAVCIndicatorList@@@Z
	DD	2 DUP(00H)
	DD	2 DUP(00H)
	DD	00H
	DD	01H
xdata$x	ENDS
;	COMDAT xdata$x
xdata$x	SEGMENT
__unwindtable$?PointInBarGraph@CSelectSubGraph@@AAEHABVCPoint@@PBVCSelectSubGraphData@@PAVCIndicatorList@@@Z DD 0ffffffffH
	DD	FLAT:__unwindfunclet$?PointInBarGraph@CSelectSubGraph@@AAEHABVCPoint@@PBVCSelectSubGraphData@@PAVCIndicatorList@@@Z$0
	DD	0ffffffffH
	DD	FLAT:__unwindfunclet$?PointInBarGraph@CSelectSubGraph@@AAEHABVCPoint@@PBVCSelectSubGraphData@@PAVCIndicatorList@@@Z$1
	DD	0ffffffffH
	DD	FLAT:__unwindfunclet$?PointInBarGraph@CSelectSubGraph@@AAEHABVCPoint@@PBVCSelectSubGraphData@@PAVCIndicatorList@@@Z$3
	DD	02H
	DD	FLAT:__unwindfunclet$?PointInBarGraph@CSelectSubGraph@@AAEHABVCPoint@@PBVCSelectSubGraphData@@PAVCIndicatorList@@@Z$4
__ehfuncinfo$?PointInBarGraph@CSelectSubGraph@@AAEHABVCPoint@@PBVCSelectSubGraphData@@PAVCIndicatorList@@@Z DD 019930522H
	DD	04H
	DD	FLAT:__unwindtable$?PointInBarGraph@CSelectSubGraph@@AAEHABVCPoint@@PBVCSelectSubGraphData@@PAVCIndicatorList@@@Z
	DD	2 DUP(00H)
	DD	2 DUP(00H)
	DD	00H
	DD	01H
xdata$x	ENDS
;	COMDAT xdata$x
xdata$x	SEGMENT
__unwindtable$?PointInLineGraph@CSelectSubGraph@@AAEHABVCPoint@@PBVCSelectSubGraphData@@@Z DD 0ffffffffH
	DD	FLAT:__unwindfunclet$?PointInLineGraph@CSelectSubGraph@@AAEHABVCPoint@@PBVCSelectSubGraphData@@@Z$0
__ehfuncinfo$?PointInLineGraph@CSelectSubGraph@@AAEHABVCPoint@@PBVCSelectSubGraphData@@@Z DD 019930522H
	DD	01H
	DD	FLAT:__unwindtable$?PointInLineGraph@CSelectSubGraph@@AAEHABVCPoint@@PBVCSelectSubGraphData@@@Z
	DD	2 DUP(00H)
	DD	2 DUP(00H)
	DD	00H
	DD	01H
xdata$x	ENDS
;	COMDAT xdata$x
xdata$x	SEGMENT
__catchsym$??1CGdiObject@@UAE@XZ$3 DD 00H
	DD	FLAT:??_R0PAVCException@@@8
	DD	0fffffde4H
	DD	FLAT:__catch$??1CGdiObject@@UAE@XZ$0
__tryblocktable$??1CGdiObject@@UAE@XZ DD 00H
	DD	00H
	DD	02H
	DD	01H
	DD	FLAT:__catchsym$??1CGdiObject@@UAE@XZ$3
__unwindtable$??1CGdiObject@@UAE@XZ DD 0ffffffffH
	DD	00H
	DD	0ffffffffH
	DD	00H
	DD	01H
	DD	FLAT:__unwindfunclet$??1CGdiObject@@UAE@XZ$2
__ehfuncinfo$??1CGdiObject@@UAE@XZ DD 019930522H
	DD	03H
	DD	FLAT:__unwindtable$??1CGdiObject@@UAE@XZ
	DD	01H
	DD	FLAT:__tryblocktable$??1CGdiObject@@UAE@XZ
	DD	2 DUP(00H)
	DD	00H
	DD	05H
xdata$x	ENDS
; Function compile flags: /Ogtp
; File C:\Program Files (x86)\Microsoft Visual Studio\2019\Community\VC\Tools\MSVC\14.29.30133\atlmfc\include\afxtempl.h
;	COMDAT ?FindIndex@?$CList@NN@@QBEPAU__POSITION@@H@Z
_TEXT	SEGMENT
_nIndex$ = 8						; size = 4
?FindIndex@?$CList@NN@@QBEPAU__POSITION@@H@Z PROC	; CList<double,double>::FindIndex, COMDAT
; _this$ = ecx

; 1130 : {

  00000	55		 push	 ebp
  00001	8b ec		 mov	 ebp, esp

; 1131 : 	ASSERT_VALID(this);
; 1132 : 
; 1133 : 	if (nIndex >= m_nCount || nIndex < 0)

  00003	8b 55 08	 mov	 edx, DWORD PTR _nIndex$[ebp]
  00006	3b 51 0c	 cmp	 edx, DWORD PTR [ecx+12]
  00009	7d 14		 jge	 SHORT $LN5@FindIndex
  0000b	85 d2		 test	 edx, edx
  0000d	78 10		 js	 SHORT $LN5@FindIndex

; 1135 : 
; 1136 : 	CNode* pNode = m_pNodeHead;

  0000f	8b 41 04	 mov	 eax, DWORD PTR [ecx+4]

; 1137 : 	while (nIndex--)

  00012	74 0d		 je	 SHORT $LN1@FindIndex
$LL2@FindIndex:

; 1138 : 	{
; 1139 : 		ASSERT(AfxIsValidAddress(pNode, sizeof(CNode)));
; 1140 : 		pNode = pNode->pNext;

  00014	8b 00		 mov	 eax, DWORD PTR [eax]
  00016	83 ea 01	 sub	 edx, 1
  00019	75 f9		 jne	 SHORT $LL2@FindIndex

; 1141 : 	}
; 1142 : 	return (POSITION) pNode;
; 1143 : }

  0001b	5d		 pop	 ebp
  0001c	c2 04 00	 ret	 4
$LN5@FindIndex:

; 1134 : 		return NULL;  // went too far

  0001f	33 c0		 xor	 eax, eax
$LN1@FindIndex:

; 1141 : 	}
; 1142 : 	return (POSITION) pNode;
; 1143 : }

  00021	5d		 pop	 ebp
  00022	c2 04 00	 ret	 4
?FindIndex@?$CList@NN@@QBEPAU__POSITION@@H@Z ENDP	; CList<double,double>::FindIndex
_TEXT	ENDS
; Function compile flags: /Ogtp
; File C:\Program Files (x86)\Microsoft Visual Studio\2019\Community\VC\Tools\MSVC\14.29.30133\atlmfc\include\afxtempl.h
;	COMDAT ?FindIndex@?$CList@PAVCPacket@@PAV1@@@QBEPAU__POSITION@@H@Z
_TEXT	SEGMENT
_nIndex$ = 8						; size = 4
?FindIndex@?$CList@PAVCPacket@@PAV1@@@QBEPAU__POSITION@@H@Z PROC ; CList<CPacket *,CPacket *>::FindIndex, COMDAT
; _this$ = ecx

; 1130 : {

  00000	55		 push	 ebp
  00001	8b ec		 mov	 ebp, esp

; 1131 : 	ASSERT_VALID(this);
; 1132 : 
; 1133 : 	if (nIndex >= m_nCount || nIndex < 0)

  00003	8b 55 08	 mov	 edx, DWORD PTR _nIndex$[ebp]
  00006	3b 51 0c	 cmp	 edx, DWORD PTR [ecx+12]
  00009	7d 14		 jge	 SHORT $LN5@FindIndex
  0000b	85 d2		 test	 edx, edx
  0000d	78 10		 js	 SHORT $LN5@FindIndex

; 1135 : 
; 1136 : 	CNode* pNode = m_pNodeHead;

  0000f	8b 41 04	 mov	 eax, DWORD PTR [ecx+4]

; 1137 : 	while (nIndex--)

  00012	74 0d		 je	 SHORT $LN1@FindIndex
$LL2@FindIndex:

; 1138 : 	{
; 1139 : 		ASSERT(AfxIsValidAddress(pNode, sizeof(CNode)));
; 1140 : 		pNode = pNode->pNext;

  00014	8b 00		 mov	 eax, DWORD PTR [eax]
  00016	83 ea 01	 sub	 edx, 1
  00019	75 f9		 jne	 SHORT $LL2@FindIndex

; 1141 : 	}
; 1142 : 	return (POSITION) pNode;
; 1143 : }

  0001b	5d		 pop	 ebp
  0001c	c2 04 00	 ret	 4
$LN5@FindIndex:

; 1134 : 		return NULL;  // went too far

  0001f	33 c0		 xor	 eax, eax
$LN1@FindIndex:

; 1141 : 	}
; 1142 : 	return (POSITION) pNode;
; 1143 : }

  00021	5d		 pop	 ebp
  00022	c2 04 00	 ret	 4
?FindIndex@?$CList@PAVCPacket@@PAV1@@@QBEPAU__POSITION@@H@Z ENDP ; CList<CPacket *,CPacket *>::FindIndex
_TEXT	ENDS
; Function compile flags: /Ogtp
;	COMDAT ??_GCPAndFDraw@@UAEPAXI@Z
_TEXT	SEGMENT
___flags$ = 8						; size = 4
??_GCPAndFDraw@@UAEPAXI@Z PROC				; CPAndFDraw::`scalar deleting destructor', COMDAT
; _this$ = ecx
  00000	55		 push	 ebp
  00001	8b ec		 mov	 ebp, esp
  00003	56		 push	 esi
  00004	8b f1		 mov	 esi, ecx
  00006	e8 00 00 00 00	 call	 ??1CDraw@@UAE@XZ	; CDraw::~CDraw
  0000b	f6 45 08 01	 test	 BYTE PTR ___flags$[ebp], 1
  0000f	74 0b		 je	 SHORT $LN7@scalar
  00011	6a 28		 push	 40			; 00000028H
  00013	56		 push	 esi
  00014	e8 00 00 00 00	 call	 ??3@YAXPAXI@Z		; operator delete
  00019	83 c4 08	 add	 esp, 8
$LN7@scalar:
  0001c	8b c6		 mov	 eax, esi
  0001e	5e		 pop	 esi
  0001f	5d		 pop	 ebp
  00020	c2 04 00	 ret	 4
??_GCPAndFDraw@@UAEPAXI@Z ENDP				; CPAndFDraw::`scalar deleting destructor'
_TEXT	ENDS
; Function compile flags: /Ogtp
;	COMDAT ??1CPAndFDraw@@UAE@XZ
_TEXT	SEGMENT
??1CPAndFDraw@@UAE@XZ PROC				; CPAndFDraw::~CPAndFDraw, COMDAT
; _this$ = ecx
  00000	e9 00 00 00 00	 jmp	 ??1CDraw@@UAE@XZ	; CDraw::~CDraw
??1CPAndFDraw@@UAE@XZ ENDP				; CPAndFDraw::~CPAndFDraw
_TEXT	ENDS
; Function compile flags: /Ogtp
;	COMDAT ??4CGraphDrawer@@QAEAAV0@$$QAV0@@Z
_TEXT	SEGMENT
___that$ = 8						; size = 4
??4CGraphDrawer@@QAEAAV0@$$QAV0@@Z PROC			; CGraphDrawer::operator=, COMDAT
; _this$ = ecx
  00000	8b c1		 mov	 eax, ecx
  00002	c2 04 00	 ret	 4
??4CGraphDrawer@@QAEAAV0@$$QAV0@@Z ENDP			; CGraphDrawer::operator=
_TEXT	ENDS
; Function compile flags: /Ogtp
;	COMDAT ??4CGraphDrawer@@QAEAAV0@ABV0@@Z
_TEXT	SEGMENT
___that$ = 8						; size = 4
??4CGraphDrawer@@QAEAAV0@ABV0@@Z PROC			; CGraphDrawer::operator=, COMDAT
; _this$ = ecx
  00000	8b c1		 mov	 eax, ecx
  00002	c2 04 00	 ret	 4
??4CGraphDrawer@@QAEAAV0@ABV0@@Z ENDP			; CGraphDrawer::operator=
_TEXT	ENDS
; Function compile flags: /Ogtp
; File D:\git\src\IBK\IBK_DRFN\ProjSrc\SrcChartEx\ChartOCX\GraphDraw\SelectSubGraph.cpp
;	COMDAT ??_GCSelectSubGraph@@UAEPAXI@Z
_TEXT	SEGMENT
___flags$ = 8						; size = 4
??_GCSelectSubGraph@@UAEPAXI@Z PROC			; CSelectSubGraph::`scalar deleting destructor', COMDAT
; _this$ = ecx
  00000	55		 push	 ebp
  00001	8b ec		 mov	 ebp, esp

; 36   : {

  00003	56		 push	 esi
  00004	8b f1		 mov	 esi, ecx
  00006	c7 06 00 00 00
	00		 mov	 DWORD PTR [esi], OFFSET ??_7CSelectSubGraph@@6B@

; 37   : 
; 38   : }

  0000c	e8 00 00 00 00	 call	 ??1CDraw@@UAE@XZ	; CDraw::~CDraw
  00011	f6 45 08 01	 test	 BYTE PTR ___flags$[ebp], 1
  00015	74 0b		 je	 SHORT $LN7@scalar
  00017	6a 28		 push	 40			; 00000028H
  00019	56		 push	 esi
  0001a	e8 00 00 00 00	 call	 ??3@YAXPAXI@Z		; operator delete
  0001f	83 c4 08	 add	 esp, 8
$LN7@scalar:
  00022	8b c6		 mov	 eax, esi
  00024	5e		 pop	 esi
  00025	5d		 pop	 ebp
  00026	c2 04 00	 ret	 4
??_GCSelectSubGraph@@UAEPAXI@Z ENDP			; CSelectSubGraph::`scalar deleting destructor'
_TEXT	ENDS
; Function compile flags: /Ogtp
; File D:\git\src\IBK\IBK_DRFN\ProjSrc\SrcChartEx\ChartOCX\GraphDraw\SelectSubGraph.cpp
;	COMDAT ?GetIndex@CSelectSubGraph@@ABEHHH@Z
_TEXT	SEGMENT
_dataIndex$ = 8						; size = 4
_dataStart$ = 12					; size = 4
?GetIndex@CSelectSubGraph@@ABEHHH@Z PROC		; CSelectSubGraph::GetIndex, COMDAT
; _this$ = ecx

; 1320 : {

  00000	55		 push	 ebp
  00001	8b ec		 mov	 ebp, esp

; 1321 : 	if(dataIndex < dataStart)

  00003	8b 45 08	 mov	 eax, DWORD PTR _dataIndex$[ebp]
  00006	8b 4d 0c	 mov	 ecx, DWORD PTR _dataStart$[ebp]
  00009	3b c1		 cmp	 eax, ecx
  0000b	7d 06		 jge	 SHORT $LN2@GetIndex

; 1322 : 		return dataStart;

  0000d	8b c1		 mov	 eax, ecx

; 1325 : }

  0000f	5d		 pop	 ebp
  00010	c2 08 00	 ret	 8
$LN2@GetIndex:

; 1323 : 	
; 1324 : 	return (dataIndex - dataStart);

  00013	2b c1		 sub	 eax, ecx

; 1325 : }

  00015	5d		 pop	 ebp
  00016	c2 08 00	 ret	 8
?GetIndex@CSelectSubGraph@@ABEHHH@Z ENDP		; CSelectSubGraph::GetIndex
_TEXT	ENDS
; Function compile flags: /Ogtp
; File D:\git\src\IBK\IBK_DRFN\ProjSrc\SrcChartEx\ChartOCX\GraphDraw\SelectSubGraph.cpp
; File C:\Program Files (x86)\Microsoft Visual Studio\2019\Community\VC\Tools\MSVC\14.29.30133\atlmfc\include\atltypes.h
; File D:\git\src\IBK\IBK_DRFN\ProjSrc\SrcChartEx\ChartOCX\GraphDraw\SelectSubGraph.cpp
;	COMDAT ?GetDataIndex@CSelectSubGraph@@AAEHVCRect@@VCPoint@@HH@Z
_TEXT	SEGMENT
_drawingRegion$ = 8					; size = 16
_point$ = 24						; size = 8
_dataStart$ = 32					; size = 4
_dataEnd$ = 36						; size = 4
?GetDataIndex@CSelectSubGraph@@AAEHVCRect@@VCPoint@@HH@Z PROC ; CSelectSubGraph::GetDataIndex, COMDAT
; _this$ = ecx

; 1300 : {

  00000	55		 push	 ebp
  00001	8b ec		 mov	 ebp, esp

; 1301 : 	if(drawingRegion.bottom < point.y || point.y < drawingRegion.top)

  00003	8b 55 14	 mov	 edx, DWORD PTR _drawingRegion$[ebp+12]
  00006	8b 4d 1c	 mov	 ecx, DWORD PTR _point$[ebp+4]
  00009	53		 push	 ebx
  0000a	56		 push	 esi
  0000b	3b d1		 cmp	 edx, ecx
  0000d	7c 48		 jl	 SHORT $LN3@GetDataInd
  0000f	8b 75 0c	 mov	 esi, DWORD PTR _drawingRegion$[ebp+4]
  00012	3b ce		 cmp	 ecx, esi
  00014	7c 41		 jl	 SHORT $LN3@GetDataInd

; 1303 : 	int index = 0;
; 1304 : 	if(dataEnd - dataStart +1 <= 0)

  00016	8b 45 24	 mov	 eax, DWORD PTR _dataEnd$[ebp]
  00019	8b 5d 20	 mov	 ebx, DWORD PTR _dataStart$[ebp]
  0001c	2b c3		 sub	 eax, ebx
  0001e	40		 inc	 eax
  0001f	85 c0		 test	 eax, eax
  00021	7f 08		 jg	 SHORT $LN4@GetDataInd

; 1305 : 		return index;

  00023	5e		 pop	 esi
  00024	33 c0		 xor	 eax, eax

; 1313 : 		return -1;
; 1314 : 
; 1315 : 	return index;
; 1316 : }

  00026	5b		 pop	 ebx
  00027	5d		 pop	 ebp
  00028	c2 20 00	 ret	 32			; 00000020H
$LN4@GetDataInd:

; 1308 : 	index =  int((double)((point.y - drawingRegion.top)*(dataEnd - (dataStart -1))) / (double)drawingRegion.Height());

  0002b	2b ce		 sub	 ecx, esi
; File C:\Program Files (x86)\Microsoft Visual Studio\2019\Community\VC\Tools\MSVC\14.29.30133\atlmfc\include\atltypes.h

; 581  : 	return bottom - top;

  0002d	2b d6		 sub	 edx, esi
; File D:\git\src\IBK\IBK_DRFN\ProjSrc\SrcChartEx\ChartOCX\GraphDraw\SelectSubGraph.cpp

; 1308 : 	index =  int((double)((point.y - drawingRegion.top)*(dataEnd - (dataStart -1))) / (double)drawingRegion.Height());

  0002f	0f af c8	 imul	 ecx, eax
  00032	66 0f 6e c2	 movd	 xmm0, edx
  00036	f3 0f e6 c0	 cvtdq2pd xmm0, xmm0
  0003a	66 0f 6e c9	 movd	 xmm1, ecx
  0003e	f3 0f e6 c9	 cvtdq2pd xmm1, xmm1
  00042	f2 0f 5e c8	 divsd	 xmm1, xmm0
  00046	f2 0f 2c c9	 cvttsd2si ecx, xmm1

; 1309 : 
; 1310 : 	if(index >= 0)
; 1311 : 		index = dataStart + index;
; 1312 : 	if(index > dataEnd)

  0004a	85 c9		 test	 ecx, ecx
  0004c	8d 04 19	 lea	 eax, DWORD PTR [ecx+ebx]
  0004f	0f 48 c1	 cmovs	 eax, ecx
  00052	3b 45 24	 cmp	 eax, DWORD PTR _dataEnd$[ebp]
  00055	7e 03		 jle	 SHORT $LN1@GetDataInd
$LN3@GetDataInd:

; 1302 : 		return -1;

  00057	83 c8 ff	 or	 eax, -1
$LN1@GetDataInd:
  0005a	5e		 pop	 esi

; 1313 : 		return -1;
; 1314 : 
; 1315 : 	return index;
; 1316 : }

  0005b	5b		 pop	 ebx
  0005c	5d		 pop	 ebp
  0005d	c2 20 00	 ret	 32			; 00000020H
?GetDataIndex@CSelectSubGraph@@AAEHVCRect@@VCPoint@@HH@Z ENDP ; CSelectSubGraph::GetDataIndex
_TEXT	ENDS
; Function compile flags: /Ogtp
; File D:\git\src\IBK\IBK_DRFN\ProjSrc\SrcChartEx\ChartOCX\GraphDraw\SelectSubGraph.cpp
;	COMDAT ?GetDataIndex@CSelectSubGraph@@AAEHVCRect@@VCPoint@@HHH@Z
_TEXT	SEGMENT
_drawingRegion$ = 8					; size = 16
_point$ = 24						; size = 8
_dataStart$ = 32					; size = 4
_dataEnd$ = 36						; size = 4
_pageDataCount$ = 40					; size = 4
?GetDataIndex@CSelectSubGraph@@AAEHVCRect@@VCPoint@@HHH@Z PROC ; CSelectSubGraph::GetDataIndex, COMDAT
; _this$ = ecx

; 1286 : {

  00000	55		 push	 ebp
  00001	8b ec		 mov	 ebp, esp

; 1287 : 	drawingRegion.right = drawingRegion.right;
; 1288 : 	if(drawingRegion.right <= point.x)

  00003	8b 45 18	 mov	 eax, DWORD PTR _point$[ebp]
  00006	39 45 10	 cmp	 DWORD PTR _drawingRegion$[ebp+8], eax
  00009	7e 1c		 jle	 SHORT $LN6@GetDataInd

; 1289 : 		return -1;
; 1290 : 	int index = CDataConversion::AbsoluteToRelative_X(drawingRegion, point.x, pageDataCount);

  0000b	ff 75 28	 push	 DWORD PTR _pageDataCount$[ebp]
  0000e	50		 push	 eax
  0000f	8d 45 08	 lea	 eax, DWORD PTR _drawingRegion$[ebp]
  00012	50		 push	 eax
  00013	e8 00 00 00 00	 call	 ?AbsoluteToRelative_X@CDataConversion@@SAHABVCRect@@HH@Z ; CDataConversion::AbsoluteToRelative_X
  00018	83 c4 0c	 add	 esp, 12			; 0000000cH

; 1291 : 	if(index >= 0)

  0001b	85 c0		 test	 eax, eax
  0001d	78 03		 js	 SHORT $LN3@GetDataInd

; 1292 : 		index = dataStart + index;

  0001f	03 45 20	 add	 eax, DWORD PTR _dataStart$[ebp]
$LN3@GetDataInd:

; 1293 : 	if(index > dataEnd)

  00022	3b 45 24	 cmp	 eax, DWORD PTR _dataEnd$[ebp]
  00025	7e 03		 jle	 SHORT $LN1@GetDataInd
$LN6@GetDataInd:

; 1294 : 		return -1;

  00027	83 c8 ff	 or	 eax, -1
$LN1@GetDataInd:

; 1295 : 
; 1296 : 	return index;
; 1297 : }

  0002a	5d		 pop	 ebp
  0002b	c2 24 00	 ret	 36			; 00000024H
?GetDataIndex@CSelectSubGraph@@AAEHVCRect@@VCPoint@@HHH@Z ENDP ; CSelectSubGraph::GetDataIndex
_TEXT	ENDS
; Function compile flags: /Ogtp
; File D:\git\src\IBK\IBK_DRFN\ProjSrc\SrcChartEx\ChartOCX\GraphDraw\SelectSubGraph.cpp
; File C:\Program Files (x86)\Microsoft Visual Studio\2019\Community\VC\Tools\MSVC\14.29.30133\atlmfc\include\afxtempl.h
; File D:\git\src\IBK\IBK_DRFN\ProjSrc\SrcChartEx\ChartOCX\GraphDraw\SelectSubGraph.cpp
; File D:\git\src\IBK\IBK_DRFN\ProjSrc\SrcChartEx\ChartOCX\Include_Chart\BlockBaseData.h
; File D:\git\src\IBK\IBK_DRFN\ProjSrc\SrcChartEx\ChartOCX\GraphDraw\SelectSubGraph.cpp
; File D:\git\src\IBK\IBK_DRFN\ProjSrc\SrcChartEx\ChartOCX\Include_Chart\Dll_Load\XScaleManager.h
; File D:\git\src\IBK\IBK_DRFN\ProjSrc\SrcChartEx\ChartOCX\GraphDraw\SelectSubGraph.cpp
; File D:\git\src\IBK\IBK_DRFN\ProjSrc\SrcChartEx\ChartOCX\Include_Chart\Dll_Load\XScaleManager.h
; File D:\git\src\IBK\IBK_DRFN\ProjSrc\SrcChartEx\ChartOCX\GraphDraw\SelectSubGraph.cpp
; File C:\Program Files (x86)\Microsoft Visual Studio\2019\Community\VC\Tools\MSVC\14.29.30133\atlmfc\include\afxtempl.h
; File D:\git\src\IBK\IBK_DRFN\ProjSrc\SrcChartEx\ChartOCX\GraphDraw\SelectSubGraph.cpp
; File C:\Program Files (x86)\Microsoft Visual Studio\2019\Community\VC\Tools\MSVC\14.29.30133\atlmfc\include\afxtempl.h
; File D:\git\src\IBK\IBK_DRFN\ProjSrc\SrcChartEx\ChartOCX\GraphDraw\SelectSubGraph.cpp
; File C:\Program Files (x86)\Microsoft Visual Studio\2019\Community\VC\Tools\MSVC\14.29.30133\atlmfc\include\afxtempl.h
; File D:\git\src\IBK\IBK_DRFN\ProjSrc\SrcChartEx\ChartOCX\GraphDraw\SelectSubGraph.cpp
; File C:\Program Files (x86)\Microsoft Visual Studio\2019\Community\VC\Tools\MSVC\14.29.30133\atlmfc\include\atltypes.h
; File D:\git\src\IBK\IBK_DRFN\ProjSrc\SrcChartEx\ChartOCX\GraphDraw\SelectSubGraph.cpp
; File C:\Program Files (x86)\Microsoft Visual Studio\2019\Community\VC\Tools\MSVC\14.29.30133\atlmfc\include\afxtempl.h
; File D:\git\src\IBK\IBK_DRFN\ProjSrc\SrcChartEx\ChartOCX\GraphDraw\SelectSubGraph.cpp
;	COMDAT ?PointInPAndFGraph@CSelectSubGraph@@AAEHABVCPoint@@PBVCSelectSubGraphData@@@Z
_TEXT	SEGMENT
_PAndFDraw$ = -252					; size = 40
_lowPt$2 = -212						; size = 8
_highPt$3 = -204					; size = 8
_dLow$4 = -196						; size = 8
_dUnitHeight$ = -188					; size = 8
_dUnitValue$ = -180					; size = 8
_dViewMin$ = -172					; size = 8
_dViewMax$ = -164					; size = 8
_nCol$ = -156						; size = 4
_pDatePacket$ = -152					; size = 4
_dHigh$5 = -148						; size = 8
$T6 = -144						; size = 4
_point$GSCopy$1$ = -140					; size = 4
_pLowList$ = -136					; size = 4
_pHighList$ = -132					; size = 4
_area$ = -128						; size = 6
_nIndex$ = -120						; size = 4
$T7 = -116						; size = 68
$T8 = -88						; size = 40
_graphRegion$ = -48					; size = 16
_rect$9 = -32						; size = 16
$T10 = -32						; size = 16
$T11 = -32						; size = 16
__$ArrayPad$ = -16					; size = 4
__$EHRec$ = -12						; size = 12
_point$ = 8						; size = 4
_pSelectSubGraphData$ = 12				; size = 4
?PointInPAndFGraph@CSelectSubGraph@@AAEHABVCPoint@@PBVCSelectSubGraphData@@@Z PROC ; CSelectSubGraph::PointInPAndFGraph, COMDAT
; _this$ = ecx

; 1235 : {

  00000	55		 push	 ebp
  00001	8b ec		 mov	 ebp, esp
  00003	6a ff		 push	 -1
  00005	68 00 00 00 00	 push	 __ehhandler$?PointInPAndFGraph@CSelectSubGraph@@AAEHABVCPoint@@PBVCSelectSubGraphData@@@Z
  0000a	64 a1 00 00 00
	00		 mov	 eax, DWORD PTR fs:0
  00010	50		 push	 eax
  00011	81 ec f0 00 00
	00		 sub	 esp, 240		; 000000f0H
  00017	a1 00 00 00 00	 mov	 eax, DWORD PTR ___security_cookie
  0001c	33 c5		 xor	 eax, ebp
  0001e	89 45 f0	 mov	 DWORD PTR __$ArrayPad$[ebp], eax
  00021	56		 push	 esi
  00022	57		 push	 edi
  00023	50		 push	 eax
  00024	8d 45 f4	 lea	 eax, DWORD PTR __$EHRec$[ebp]
  00027	64 a3 00 00 00
	00		 mov	 DWORD PTR fs:0, eax
  0002d	8b 7d 0c	 mov	 edi, DWORD PTR _pSelectSubGraphData$[ebp]
  00030	8b 45 08	 mov	 eax, DWORD PTR _point$[ebp]
  00033	89 85 74 ff ff
	ff		 mov	 DWORD PTR _point$GSCopy$1$[ebp], eax

; 1236 : 	if(pSelectSubGraphData == NULL)

  00039	85 ff		 test	 edi, edi
  0003b	0f 84 0c 03 00
	00		 je	 $LN81@PointInPAn

; 1237 : 		return -1;
; 1238 : 
; 1239 : 	CSubGraphPacketList* pSubGraphPacketList = pSelectSubGraphData->GetSubGraphPacketList();

  00041	8b cf		 mov	 ecx, edi
  00043	e8 00 00 00 00	 call	 ?GetSubGraphPacketList@CSelectSubGraphData@@QBEPAVCSubGraphPacketList@@XZ ; CSelectSubGraphData::GetSubGraphPacketList
  00048	8b f0		 mov	 esi, eax

; 1240 : 	if(pSubGraphPacketList == NULL)

  0004a	85 f6		 test	 esi, esi
  0004c	0f 84 fb 02 00
	00		 je	 $LN81@PointInPAn

; 1242 : 
; 1243 : 	CPAndFDraw PAndFDraw;

  00052	8d 8d 04 ff ff
	ff		 lea	 ecx, DWORD PTR _PAndFDraw$[ebp]
  00058	e8 00 00 00 00	 call	 ??0CDraw@@QAE@XZ	; CDraw::CDraw
  0005d	c7 85 04 ff ff
	ff 00 00 00 00	 mov	 DWORD PTR _PAndFDraw$[ebp], OFFSET ??_7CPAndFDraw@@6B@

; 1244 : 	CPacket* pDatePacket = NULL;
; 1245 : 	CList<double, double>* pHighList = NULL, *pLowList = NULL;
; 1246 : 	if(!PAndFDraw.GetPacketData( pSubGraphPacketList->GetSubGraphPacketList(), 

  00067	8d 85 78 ff ff
	ff		 lea	 eax, DWORD PTR _pLowList$[ebp]
  0006d	c7 45 fc 00 00
	00 00		 mov	 DWORD PTR __$EHRec$[ebp+8], 0
  00074	50		 push	 eax
  00075	8d 85 7c ff ff
	ff		 lea	 eax, DWORD PTR _pHighList$[ebp]
  0007b	c7 85 68 ff ff
	ff 00 00 00 00	 mov	 DWORD PTR _pDatePacket$[ebp], 0
  00085	50		 push	 eax
  00086	8d 85 68 ff ff
	ff		 lea	 eax, DWORD PTR _pDatePacket$[ebp]
  0008c	c7 85 7c ff ff
	ff 00 00 00 00	 mov	 DWORD PTR _pHighList$[ebp], 0
  00096	50		 push	 eax
  00097	8b ce		 mov	 ecx, esi
  00099	c7 85 78 ff ff
	ff 00 00 00 00	 mov	 DWORD PTR _pLowList$[ebp], 0
  000a3	e8 00 00 00 00	 call	 ?GetSubGraphPacketList@CSubGraphPacketList@@QBEABV?$CList@PAVCPacket@@PAV1@@@XZ ; CSubGraphPacketList::GetSubGraphPacketList
  000a8	50		 push	 eax
  000a9	8d 8d 04 ff ff
	ff		 lea	 ecx, DWORD PTR _PAndFDraw$[ebp]
  000af	e8 00 00 00 00	 call	 ?GetPacketData@CPAndFDraw@@QBE_NABV?$CList@PAVCPacket@@PAV1@@@AAPAVCPacket@@AAPAV?$CList@NN@@2@Z ; CPAndFDraw::GetPacketData
  000b4	84 c0		 test	 al, al
  000b6	0f 84 7f 02 00
	00		 je	 $LN12@PointInPAn

; 1250 : 	double dUnitValue = PAndFDraw.GetUnitValue( pSubGraphPacketList->GetSubGraphPacketList().GetHead()->GetPacketList(), 

  000bc	8b ce		 mov	 ecx, esi
  000be	e8 00 00 00 00	 call	 ?GetSubGraphPacketList@CSubGraphPacketList@@QBEABV?$CList@PAVCPacket@@PAV1@@@XZ ; CSubGraphPacketList::GetSubGraphPacketList
; File C:\Program Files (x86)\Microsoft Visual Studio\2019\Community\VC\Tools\MSVC\14.29.30133\atlmfc\include\afxtempl.h

; 793  : 	{ ENSURE(m_pNodeHead != NULL);

  000c3	8b 70 04	 mov	 esi, DWORD PTR [eax+4]
  000c6	85 f6		 test	 esi, esi
  000c8	0f 84 9f 02 00
	00		 je	 $LN85@PointInPAn
; File D:\git\src\IBK\IBK_DRFN\ProjSrc\SrcChartEx\ChartOCX\GraphDraw\SelectSubGraph.cpp

; 1250 : 	double dUnitValue = PAndFDraw.GetUnitValue( pSubGraphPacketList->GetSubGraphPacketList().GetHead()->GetPacketList(), 

  000ce	8b cf		 mov	 ecx, edi
  000d0	e8 00 00 00 00	 call	 ?GetIndicatorInfo@CSelectSubGraphData@@QBEPAVCIndicatorInfo@@XZ ; CSelectSubGraphData::GetIndicatorInfo
  000d5	8b 4e 08	 mov	 ecx, DWORD PTR [esi+8]
  000d8	50		 push	 eax
  000d9	ff 15 00 00 00
	00		 call	 DWORD PTR __imp_?GetPacketList@CPacket@@QAEPAVCPacketList@@XZ
  000df	50		 push	 eax
  000e0	8d 8d 04 ff ff
	ff		 lea	 ecx, DWORD PTR _PAndFDraw$[ebp]
  000e6	e8 00 00 00 00	 call	 ?GetUnitValue@CPAndFDraw@@QBENPAVCPacketList@@PAVCIndicatorInfo@@@Z ; CPAndFDraw::GetUnitValue

; 1251 : 		pSelectSubGraphData->GetIndicatorInfo());
; 1252 : 	if(dUnitValue < 1)

  000eb	f2 0f 10 05 00
	00 00 00	 movsd	 xmm0, QWORD PTR __real@3ff0000000000000
  000f3	dd 9d 4c ff ff
	ff		 fstp	 QWORD PTR _dUnitValue$[ebp]
  000f9	66 0f 2f 85 4c
	ff ff ff	 comisd	 xmm0, QWORD PTR _dUnitValue$[ebp]
  00101	0f 87 34 02 00
	00		 ja	 $LN12@PointInPAn

; 1255 : 	CRect graphRegion = pSelectSubGraphData->GetGraphRegions().GetDrawingRegion();

  00107	8d 85 70 ff ff
	ff		 lea	 eax, DWORD PTR $T6[ebp]
; File D:\git\src\IBK\IBK_DRFN\ProjSrc\SrcChartEx\ChartOCX\Include_Chart\BlockBaseData.h

; 43   : 	CGraphStyle(const int style) { m_nStyle = style; };

  0010d	c7 85 70 ff ff
	ff ff ff ff ff	 mov	 DWORD PTR $T6[ebp], -1
; File D:\git\src\IBK\IBK_DRFN\ProjSrc\SrcChartEx\ChartOCX\GraphDraw\SelectSubGraph.cpp

; 1255 : 	CRect graphRegion = pSelectSubGraphData->GetGraphRegions().GetDrawingRegion();

  00117	50		 push	 eax
  00118	6a ff		 push	 -1
  0011a	8d 45 d0	 lea	 eax, DWORD PTR _graphRegion$[ebp]
  0011d	8b cf		 mov	 ecx, edi
  0011f	50		 push	 eax
  00120	8d 45 8c	 lea	 eax, DWORD PTR $T7[ebp]
  00123	50		 push	 eax
  00124	e8 00 00 00 00	 call	 ?GetGraphRegions@CSelectSubGraphData@@QBE?AVCGraphRegions@@XZ ; CSelectSubGraphData::GetGraphRegions
  00129	8b c8		 mov	 ecx, eax
  0012b	e8 00 00 00 00	 call	 ?GetDrawingRegion@CGraphRegions@@QBE?AVCRect@@W4GRAPHTYPE@CGraphBaseData@@ABVCGraphStyle@@@Z ; CGraphRegions::GetDrawingRegion

; 1256 : 	double dViewMin = pSelectSubGraphData->GetDisplayDataVertMinMax().GetDisplayMin();

  00130	8d 45 e0	 lea	 eax, DWORD PTR $T11[ebp]
  00133	8b cf		 mov	 ecx, edi
  00135	50		 push	 eax
  00136	e8 00 00 00 00	 call	 ?GetDisplayDataVertMinMax@CSelectSubGraphData@@QBE?AVCDisplayDataMinMax@@XZ ; CSelectSubGraphData::GetDisplayDataVertMinMax
  0013b	8b c8		 mov	 ecx, eax
  0013d	ff 15 00 00 00
	00		 call	 DWORD PTR __imp_?GetDisplayMin@CDisplayDataMinMax@@QBENXZ

; 1257 : 	double dViewMax = pSelectSubGraphData->GetDisplayDataVertMinMax().GetDisplayMax();

  00143	8d 45 e0	 lea	 eax, DWORD PTR $T10[ebp]
  00146	8b cf		 mov	 ecx, edi
  00148	50		 push	 eax
  00149	dd 9d 54 ff ff
	ff		 fstp	 QWORD PTR _dViewMin$[ebp]
  0014f	e8 00 00 00 00	 call	 ?GetDisplayDataVertMinMax@CSelectSubGraphData@@QBE?AVCDisplayDataMinMax@@XZ ; CSelectSubGraphData::GetDisplayDataVertMinMax
  00154	8b c8		 mov	 ecx, eax
  00156	ff 15 00 00 00
	00		 call	 DWORD PTR __imp_?GetDisplayMax@CDisplayDataMinMax@@QBENXZ
  0015c	0f 57 c0	 xorps	 xmm0, xmm0
  0015f	8d 4d a8	 lea	 ecx, DWORD PTR $T8[ebp]
  00162	dd 9d 5c ff ff
	ff		 fstp	 QWORD PTR _dViewMax$[ebp]

; 1258 : 	double dUnitHeight = CPAndFDraw().GetUintHeight(graphRegion, dViewMin, dViewMax, dUnitValue);

  00168	0f 11 45 a8	 movups	 XMMWORD PTR $T8[ebp], xmm0
  0016c	0f 11 45 b8	 movups	 XMMWORD PTR $T8[ebp+16], xmm0
  00170	66 0f d6 45 c8	 movq	 QWORD PTR $T8[ebp+32], xmm0
  00175	e8 00 00 00 00	 call	 ??0CDraw@@QAE@XZ	; CDraw::CDraw
  0017a	c7 45 a8 00 00
	00 00		 mov	 DWORD PTR $T8[ebp], OFFSET ??_7CPAndFDraw@@6B@
  00181	8d 85 4c ff ff
	ff		 lea	 eax, DWORD PTR _dUnitValue$[ebp]
  00187	c6 45 fc 01	 mov	 BYTE PTR __$EHRec$[ebp+8], 1
  0018b	50		 push	 eax
  0018c	8d 85 5c ff ff
	ff		 lea	 eax, DWORD PTR _dViewMax$[ebp]
  00192	50		 push	 eax
  00193	8d 85 54 ff ff
	ff		 lea	 eax, DWORD PTR _dViewMin$[ebp]
  00199	50		 push	 eax
  0019a	8d 45 d0	 lea	 eax, DWORD PTR _graphRegion$[ebp]
  0019d	50		 push	 eax
  0019e	8d 4d a8	 lea	 ecx, DWORD PTR $T8[ebp]
  001a1	e8 00 00 00 00	 call	 ?GetUintHeight@CPAndFDraw@@QBENABVCRect@@ABN11@Z ; CPAndFDraw::GetUintHeight
  001a6	8d 4d a8	 lea	 ecx, DWORD PTR $T8[ebp]
  001a9	c6 45 fc 00	 mov	 BYTE PTR __$EHRec$[ebp+8], 0
  001ad	dd 9d 44 ff ff
	ff		 fstp	 QWORD PTR _dUnitHeight$[ebp]
  001b3	e8 00 00 00 00	 call	 ??1CDraw@@UAE@XZ	; CDraw::~CDraw
; File D:\git\src\IBK\IBK_DRFN\ProjSrc\SrcChartEx\ChartOCX\Include_Chart\Dll_Load\XScaleManager.h

; 67   : 			left = center = right = 0;

  001b8	33 c0		 xor	 eax, eax
; File D:\git\src\IBK\IBK_DRFN\ProjSrc\SrcChartEx\ChartOCX\GraphDraw\SelectSubGraph.cpp

; 1262 : 	int nCol = 0;

  001ba	c7 85 64 ff ff
	ff 00 00 00 00	 mov	 DWORD PTR _nCol$[ebp], 0

; 1265 : 	pSelectSubGraphData->GetXScaleManager()->GetDTInAREAfRQnPt( pSelectSubGraphData->GetRQ(), point.x, nCol, &nIndex, &area);

  001c4	8b cf		 mov	 ecx, edi
  001c6	c7 45 88 00 00
	00 00		 mov	 DWORD PTR _nIndex$[ebp], 0
; File D:\git\src\IBK\IBK_DRFN\ProjSrc\SrcChartEx\ChartOCX\Include_Chart\Dll_Load\XScaleManager.h

; 67   : 			left = center = right = 0;

  001cd	89 45 82	 mov	 DWORD PTR _area$[ebp+2], eax
  001d0	66 89 45 80	 mov	 WORD PTR _area$[ebp], ax
; File D:\git\src\IBK\IBK_DRFN\ProjSrc\SrcChartEx\ChartOCX\GraphDraw\SelectSubGraph.cpp

; 1265 : 	pSelectSubGraphData->GetXScaleManager()->GetDTInAREAfRQnPt( pSelectSubGraphData->GetRQ(), point.x, nCol, &nIndex, &area);

  001d4	e8 00 00 00 00	 call	 ?GetXScaleManager@CSelectSubGraphData@@QBEPAVCXScaleManager@@XZ ; CSelectSubGraphData::GetXScaleManager
  001d9	6a 00		 push	 0
  001db	8b f0		 mov	 esi, eax
  001dd	8d 45 80	 lea	 eax, DWORD PTR _area$[ebp]
  001e0	50		 push	 eax
  001e1	8d 45 88	 lea	 eax, DWORD PTR _nIndex$[ebp]
  001e4	50		 push	 eax
  001e5	8d 85 64 ff ff
	ff		 lea	 eax, DWORD PTR _nCol$[ebp]
  001eb	50		 push	 eax
  001ec	8b 85 74 ff ff
	ff		 mov	 eax, DWORD PTR _point$GSCopy$1$[ebp]
  001f2	ff 30		 push	 DWORD PTR [eax]
  001f4	51		 push	 ecx
  001f5	54		 push	 esp
  001f6	8b cf		 mov	 ecx, edi
  001f8	e8 00 00 00 00	 call	 ?GetRQ@CSelectSubGraphData@@QBE?AV?$CStringT@DV?$StrTraitMFC_DLL@DV?$ChTraitsCRT@D@ATL@@@@@ATL@@XZ ; CSelectSubGraphData::GetRQ
  001fd	8b 06		 mov	 eax, DWORD PTR [esi]
  001ff	8b ce		 mov	 ecx, esi
  00201	ff 90 34 01 00
	00		 call	 DWORD PTR [eax+308]
; File C:\Program Files (x86)\Microsoft Visual Studio\2019\Community\VC\Tools\MSVC\14.29.30133\atlmfc\include\afxtempl.h

; 1133 : 	if (nIndex >= m_nCount || nIndex < 0)

  00207	8b 8d 7c ff ff
	ff		 mov	 ecx, DWORD PTR _pHighList$[ebp]
; File D:\git\src\IBK\IBK_DRFN\ProjSrc\SrcChartEx\ChartOCX\GraphDraw\SelectSubGraph.cpp

; 1266 : 	POSITION highPos = pHighList->FindIndex( nIndex);

  0020d	8b 75 88	 mov	 esi, DWORD PTR _nIndex$[ebp]
  00210	8b c6		 mov	 eax, esi
; File C:\Program Files (x86)\Microsoft Visual Studio\2019\Community\VC\Tools\MSVC\14.29.30133\atlmfc\include\afxtempl.h

; 1133 : 	if (nIndex >= m_nCount || nIndex < 0)

  00212	3b 41 0c	 cmp	 eax, DWORD PTR [ecx+12]
  00215	7d 12		 jge	 SHORT $LN45@PointInPAn
  00217	85 c0		 test	 eax, eax
  00219	78 0e		 js	 SHORT $LN45@PointInPAn

; 1135 : 
; 1136 : 	CNode* pNode = m_pNodeHead;

  0021b	8b 49 04	 mov	 ecx, DWORD PTR [ecx+4]

; 1137 : 	while (nIndex--)

  0021e	74 0b		 je	 SHORT $LN41@PointInPAn
$LL42@PointInPAn:

; 1138 : 	{
; 1139 : 		ASSERT(AfxIsValidAddress(pNode, sizeof(CNode)));
; 1140 : 		pNode = pNode->pNext;

  00220	8b 09		 mov	 ecx, DWORD PTR [ecx]
  00222	83 e8 01	 sub	 eax, 1
  00225	75 f9		 jne	 SHORT $LL42@PointInPAn

; 1141 : 	}
; 1142 : 	return (POSITION) pNode;

  00227	eb 02		 jmp	 SHORT $LN41@PointInPAn
$LN45@PointInPAn:

; 1134 : 		return NULL;  // went too far

  00229	33 c9		 xor	 ecx, ecx
$LN41@PointInPAn:

; 1133 : 	if (nIndex >= m_nCount || nIndex < 0)

  0022b	8b 95 78 ff ff
	ff		 mov	 edx, DWORD PTR _pLowList$[ebp]
; File D:\git\src\IBK\IBK_DRFN\ProjSrc\SrcChartEx\ChartOCX\GraphDraw\SelectSubGraph.cpp

; 1267 : 	POSITION lowPos = pLowList->FindIndex( nIndex);

  00231	8b c6		 mov	 eax, esi
; File C:\Program Files (x86)\Microsoft Visual Studio\2019\Community\VC\Tools\MSVC\14.29.30133\atlmfc\include\afxtempl.h

; 1133 : 	if (nIndex >= m_nCount || nIndex < 0)

  00233	3b 42 0c	 cmp	 eax, DWORD PTR [edx+12]
  00236	7d 12		 jge	 SHORT $LN51@PointInPAn
  00238	85 c0		 test	 eax, eax
  0023a	78 0e		 js	 SHORT $LN51@PointInPAn

; 1135 : 
; 1136 : 	CNode* pNode = m_pNodeHead;

  0023c	8b 52 04	 mov	 edx, DWORD PTR [edx+4]

; 1137 : 	while (nIndex--)

  0023f	74 0b		 je	 SHORT $LN47@PointInPAn
$LL48@PointInPAn:

; 1138 : 	{
; 1139 : 		ASSERT(AfxIsValidAddress(pNode, sizeof(CNode)));
; 1140 : 		pNode = pNode->pNext;

  00241	8b 12		 mov	 edx, DWORD PTR [edx]
  00243	83 e8 01	 sub	 eax, 1
  00246	75 f9		 jne	 SHORT $LL48@PointInPAn

; 1141 : 	}
; 1142 : 	return (POSITION) pNode;

  00248	eb 02		 jmp	 SHORT $LN47@PointInPAn
$LN51@PointInPAn:

; 1134 : 		return NULL;  // went too far

  0024a	33 d2		 xor	 edx, edx
$LN47@PointInPAn:
; File D:\git\src\IBK\IBK_DRFN\ProjSrc\SrcChartEx\ChartOCX\GraphDraw\SelectSubGraph.cpp

; 1268 : 	if( highPos != NULL && lowPos != NULL)

  0024c	85 c9		 test	 ecx, ecx
  0024e	0f 84 e7 00 00
	00		 je	 $LN12@PointInPAn
  00254	85 d2		 test	 edx, edx
  00256	0f 84 df 00 00
	00		 je	 $LN12@PointInPAn

; 1269 : 	{
; 1270 : 		double dHigh = pHighList->GetNext(highPos);

  0025c	f2 0f 10 41 08	 movsd	 xmm0, QWORD PTR [ecx+8]

; 1271 : 		double dLow = pLowList->GetNext(lowPos);
; 1272 : 
; 1273 : 		CPoint highPt = CDataConversion::GetVerticalPoint(graphRegion, nIndex -1, dUnitHeight, dViewMin, dViewMax, dHigh);

  00261	8d 85 6c ff ff
	ff		 lea	 eax, DWORD PTR _dHigh$5[ebp]
  00267	6a 01		 push	 1
  00269	50		 push	 eax
  0026a	8d 85 5c ff ff
	ff		 lea	 eax, DWORD PTR _dViewMax$[ebp]
  00270	f2 0f 11 85 6c
	ff ff ff	 movsd	 QWORD PTR _dHigh$5[ebp], xmm0
  00278	f2 0f 10 42 08	 movsd	 xmm0, QWORD PTR [edx+8]
  0027d	50		 push	 eax
  0027e	8d 85 54 ff ff
	ff		 lea	 eax, DWORD PTR _dViewMin$[ebp]
  00284	f2 0f 11 85 3c
	ff ff ff	 movsd	 QWORD PTR _dLow$4[ebp], xmm0
  0028c	50		 push	 eax
  0028d	8d 85 44 ff ff
	ff		 lea	 eax, DWORD PTR _dUnitHeight$[ebp]
  00293	50		 push	 eax
  00294	8d 46 ff	 lea	 eax, DWORD PTR [esi-1]
  00297	50		 push	 eax
  00298	8d 45 d0	 lea	 eax, DWORD PTR _graphRegion$[ebp]
  0029b	50		 push	 eax
  0029c	8d 85 34 ff ff
	ff		 lea	 eax, DWORD PTR _highPt$3[ebp]
  002a2	50		 push	 eax
  002a3	e8 00 00 00 00	 call	 ?GetVerticalPoint@CDataConversion@@SA?AVCPoint@@ABVCRect@@HABN111_N@Z ; CDataConversion::GetVerticalPoint

; 1274 : 		CPoint lowPt = CDataConversion::GetVerticalPoint(graphRegion, nIndex, dUnitHeight, dViewMin, dViewMax, dLow);

  002a8	6a 01		 push	 1
  002aa	8d 85 3c ff ff
	ff		 lea	 eax, DWORD PTR _dLow$4[ebp]
  002b0	50		 push	 eax
  002b1	8d 85 5c ff ff
	ff		 lea	 eax, DWORD PTR _dViewMax$[ebp]
  002b7	50		 push	 eax
  002b8	8d 85 54 ff ff
	ff		 lea	 eax, DWORD PTR _dViewMin$[ebp]
  002be	50		 push	 eax
  002bf	8d 85 44 ff ff
	ff		 lea	 eax, DWORD PTR _dUnitHeight$[ebp]
  002c5	50		 push	 eax
  002c6	ff 75 88	 push	 DWORD PTR _nIndex$[ebp]
  002c9	8d 45 d0	 lea	 eax, DWORD PTR _graphRegion$[ebp]
  002cc	50		 push	 eax
  002cd	8d 85 2c ff ff
	ff		 lea	 eax, DWORD PTR _lowPt$2[ebp]
  002d3	50		 push	 eax
  002d4	e8 00 00 00 00	 call	 ?GetVerticalPoint@CDataConversion@@SA?AVCPoint@@ABVCRect@@HABN111_N@Z ; CDataConversion::GetVerticalPoint

; 1275 : 		CRect rect( area.left, highPt.y, area.right, lowPt.y);

  002d9	0f bf 55 80	 movsx	 edx, WORD PTR _area$[ebp]
  002dd	83 c4 40	 add	 esp, 64			; 00000040H
  002e0	0f bf 75 84	 movsx	 esi, WORD PTR _area$[ebp+4]
; File C:\Program Files (x86)\Microsoft Visual Studio\2019\Community\VC\Tools\MSVC\14.29.30133\atlmfc\include\atltypes.h

; 541  : 	top = t;

  002e4	8b 85 38 ff ff
	ff		 mov	 eax, DWORD PTR _highPt$3[ebp+4]

; 542  : 	right = r;
; 543  : 	bottom = b;

  002ea	8b 8d 30 ff ff
	ff		 mov	 ecx, DWORD PTR _lowPt$2[ebp+4]
  002f0	89 55 e0	 mov	 DWORD PTR _rect$9[ebp], edx
  002f3	89 45 e4	 mov	 DWORD PTR _rect$9[ebp+4], eax
  002f6	89 75 e8	 mov	 DWORD PTR _rect$9[ebp+8], esi
  002f9	89 4d ec	 mov	 DWORD PTR _rect$9[ebp+12], ecx
  002fc	3b d6		 cmp	 edx, esi

; 884  : 	if (left > right)

  002fe	7e 06		 jle	 SHORT $LN60@PointInPAn

; 885  : 	{
; 886  : 		nTemp = left;
; 887  : 		left = right;

  00300	89 75 e0	 mov	 DWORD PTR _rect$9[ebp], esi

; 888  : 		right = nTemp;

  00303	89 55 e8	 mov	 DWORD PTR _rect$9[ebp+8], edx
$LN60@PointInPAn:

; 889  : 	}
; 890  : 	if (top > bottom)

  00306	3b c1		 cmp	 eax, ecx
  00308	7e 06		 jle	 SHORT $LN61@PointInPAn

; 891  : 	{
; 892  : 		nTemp = top;
; 893  : 		top = bottom;

  0030a	89 4d e4	 mov	 DWORD PTR _rect$9[ebp+4], ecx

; 894  : 		bottom = nTemp;

  0030d	89 45 ec	 mov	 DWORD PTR _rect$9[ebp+12], eax
$LN61@PointInPAn:

; 648  : 	return ::PtInRect(this, point);

  00310	8b 85 74 ff ff
	ff		 mov	 eax, DWORD PTR _point$GSCopy$1$[ebp]
  00316	ff 70 04	 push	 DWORD PTR [eax+4]
  00319	ff 30		 push	 DWORD PTR [eax]
  0031b	8d 45 e0	 lea	 eax, DWORD PTR _rect$9[ebp]
  0031e	50		 push	 eax
  0031f	ff 15 00 00 00
	00		 call	 DWORD PTR __imp__PtInRect@12
; File D:\git\src\IBK\IBK_DRFN\ProjSrc\SrcChartEx\ChartOCX\GraphDraw\SelectSubGraph.cpp

; 1278 : 		if( rect.PtInRect(point))

  00325	85 c0		 test	 eax, eax
  00327	74 12		 je	 SHORT $LN12@PointInPAn

; 1279 : 			return nIndex;

  00329	8b 75 88	 mov	 esi, DWORD PTR _nIndex$[ebp]
  0032c	8d 8d 04 ff ff
	ff		 lea	 ecx, DWORD PTR _PAndFDraw$[ebp]
  00332	e8 00 00 00 00	 call	 ??1CDraw@@UAE@XZ	; CDraw::~CDraw

; 1280 : 	}
; 1281 : 	return -1;

  00337	8b c6		 mov	 eax, esi
  00339	eb 15		 jmp	 SHORT $LN1@PointInPAn
$LN12@PointInPAn:
  0033b	8d 8d 04 ff ff
	ff		 lea	 ecx, DWORD PTR _PAndFDraw$[ebp]
  00341	83 ce ff	 or	 esi, -1
  00344	e8 00 00 00 00	 call	 ??1CDraw@@UAE@XZ	; CDraw::~CDraw
  00349	8b c6		 mov	 eax, esi
  0034b	eb 03		 jmp	 SHORT $LN1@PointInPAn
$LN81@PointInPAn:

; 1241 : 		return -1;

  0034d	83 c8 ff	 or	 eax, -1
$LN1@PointInPAn:

; 1282 : }

  00350	8b 4d f4	 mov	 ecx, DWORD PTR __$EHRec$[ebp]
  00353	64 89 0d 00 00
	00 00		 mov	 DWORD PTR fs:0, ecx
  0035a	59		 pop	 ecx
  0035b	5f		 pop	 edi
  0035c	5e		 pop	 esi
  0035d	8b 4d f0	 mov	 ecx, DWORD PTR __$ArrayPad$[ebp]
  00360	33 cd		 xor	 ecx, ebp
  00362	e8 00 00 00 00	 call	 @__security_check_cookie@4
  00367	8b e5		 mov	 esp, ebp
  00369	5d		 pop	 ebp
  0036a	c2 08 00	 ret	 8
$LN85@PointInPAn:
; File C:\Program Files (x86)\Microsoft Visual Studio\2019\Community\VC\Tools\MSVC\14.29.30133\atlmfc\include\afxtempl.h

; 793  : 	{ ENSURE(m_pNodeHead != NULL);

  0036d	e8 00 00 00 00	 call	 ?AfxThrowInvalidArgException@@YGXXZ ; AfxThrowInvalidArgException
$LN83@PointInPAn:
  00372	cc		 int	 3
_TEXT	ENDS
;	COMDAT text$x
text$x	SEGMENT
__unwindfunclet$?PointInPAndFGraph@CSelectSubGraph@@AAEHABVCPoint@@PBVCSelectSubGraphData@@@Z$0:
  00000	8d 8d 04 ff ff
	ff		 lea	 ecx, DWORD PTR _PAndFDraw$[ebp]
  00006	e9 00 00 00 00	 jmp	 ??1CPAndFDraw@@UAE@XZ
__unwindfunclet$?PointInPAndFGraph@CSelectSubGraph@@AAEHABVCPoint@@PBVCSelectSubGraphData@@@Z$1:
  0000b	8d 4d a8	 lea	 ecx, DWORD PTR $T8[ebp]
  0000e	e9 00 00 00 00	 jmp	 ??1CPAndFDraw@@UAE@XZ
  00013	cc		 int	 3
  00014	cc		 int	 3
  00015	cc		 int	 3
  00016	cc		 int	 3
  00017	cc		 int	 3
__ehhandler$?PointInPAndFGraph@CSelectSubGraph@@AAEHABVCPoint@@PBVCSelectSubGraphData@@@Z:
  00018	90		 npad	 1
  00019	90		 npad	 1
  0001a	8b 54 24 08	 mov	 edx, DWORD PTR [esp+8]
  0001e	8d 42 0c	 lea	 eax, DWORD PTR [edx+12]
  00021	8b 8a 04 ff ff
	ff		 mov	 ecx, DWORD PTR [edx-252]
  00027	33 c8		 xor	 ecx, eax
  00029	e8 00 00 00 00	 call	 @__security_check_cookie@4
  0002e	8b 4a fc	 mov	 ecx, DWORD PTR [edx-4]
  00031	33 c8		 xor	 ecx, eax
  00033	e8 00 00 00 00	 call	 @__security_check_cookie@4
  00038	b8 00 00 00 00	 mov	 eax, OFFSET __ehfuncinfo$?PointInPAndFGraph@CSelectSubGraph@@AAEHABVCPoint@@PBVCSelectSubGraphData@@@Z
  0003d	e9 00 00 00 00	 jmp	 ___CxxFrameHandler3
text$x	ENDS
?PointInPAndFGraph@CSelectSubGraph@@AAEHABVCPoint@@PBVCSelectSubGraphData@@@Z ENDP ; CSelectSubGraph::PointInPAndFGraph
; Function compile flags: /Ogtp
; File D:\git\src\IBK\IBK_DRFN\ProjSrc\SrcChartEx\ChartOCX\GraphDraw\SelectSubGraph.cpp
; File C:\Program Files (x86)\Microsoft Visual Studio\2019\Community\VC\Tools\MSVC\14.29.30133\atlmfc\include\afxtempl.h
; File D:\git\src\IBK\IBK_DRFN\ProjSrc\SrcChartEx\ChartOCX\GraphDraw\SelectSubGraph.cpp
; File C:\Program Files (x86)\Microsoft Visual Studio\2019\Community\VC\Tools\MSVC\14.29.30133\atlmfc\include\afxtempl.h
; File D:\git\src\IBK\IBK_DRFN\ProjSrc\SrcChartEx\ChartOCX\GraphDraw\SelectSubGraph.cpp
; File C:\Program Files (x86)\Microsoft Visual Studio\2019\Community\VC\Tools\MSVC\14.29.30133\atlmfc\include\afxtempl.h
; File D:\git\src\IBK\IBK_DRFN\ProjSrc\SrcChartEx\ChartOCX\GraphDraw\SelectSubGraph.cpp
; File C:\Program Files (x86)\Microsoft Visual Studio\2019\Community\VC\Tools\MSVC\14.29.30133\atlmfc\include\afxtempl.h
; File D:\git\src\IBK\IBK_DRFN\ProjSrc\SrcChartEx\ChartOCX\GraphDraw\SelectSubGraph.cpp
; File D:\git\src\IBK\IBK_DRFN\ProjSrc\SrcChartEx\ChartOCX\Include_Chart\BlockBaseData.h
; File D:\git\src\IBK\IBK_DRFN\ProjSrc\SrcChartEx\ChartOCX\GraphDraw\SelectSubGraph.cpp
; File C:\Program Files (x86)\Microsoft Visual Studio\2019\Community\VC\Tools\MSVC\14.29.30133\atlmfc\include\afxtempl.h
; File D:\git\src\IBK\IBK_DRFN\ProjSrc\SrcChartEx\ChartOCX\GraphDraw\SelectSubGraph.cpp
; File C:\Program Files (x86)\Microsoft Visual Studio\2019\Community\VC\Tools\MSVC\14.29.30133\atlmfc\include\afxtempl.h
; File D:\git\src\IBK\IBK_DRFN\ProjSrc\SrcChartEx\ChartOCX\GraphDraw\SelectSubGraph.cpp
; File C:\Program Files (x86)\Microsoft Visual Studio\2019\Community\VC\Tools\MSVC\14.29.30133\atlmfc\include\afxtempl.h
; File D:\git\src\IBK\IBK_DRFN\ProjSrc\SrcChartEx\ChartOCX\GraphDraw\SelectSubGraph.cpp
; File C:\Program Files (x86)\Microsoft Visual Studio\2019\Community\VC\Tools\MSVC\14.29.30133\atlmfc\include\afxtempl.h
; File D:\git\src\IBK\IBK_DRFN\ProjSrc\SrcChartEx\ChartOCX\GraphDraw\SelectSubGraph.cpp
; File C:\Program Files (x86)\Microsoft Visual Studio\2019\Community\VC\Tools\MSVC\14.29.30133\atlmfc\include\afxtempl.h
; File D:\git\src\IBK\IBK_DRFN\ProjSrc\SrcChartEx\ChartOCX\GraphDraw\SelectSubGraph.cpp
; File C:\Program Files (x86)\Microsoft Visual Studio\2019\Community\VC\Tools\MSVC\14.29.30133\atlmfc\include\afxwin1.inl
; File D:\git\src\IBK\IBK_DRFN\ProjSrc\SrcChartEx\ChartOCX\GraphDraw\SelectSubGraph.cpp
; File C:\Program Files (x86)\Windows Kits\10\Include\10.0.22000.0\ucrt\stdlib.h
; File D:\git\src\IBK\IBK_DRFN\ProjSrc\SrcChartEx\ChartOCX\GraphDraw\SelectSubGraph.cpp
; File C:\Program Files (x86)\Windows Kits\10\Include\10.0.22000.0\ucrt\stdlib.h
; File D:\git\src\IBK\IBK_DRFN\ProjSrc\SrcChartEx\ChartOCX\GraphDraw\SelectSubGraph.cpp
; File C:\Program Files (x86)\Windows Kits\10\Include\10.0.22000.0\ucrt\stdlib.h
; File D:\git\src\IBK\IBK_DRFN\ProjSrc\SrcChartEx\ChartOCX\GraphDraw\SelectSubGraph.cpp
; File C:\Program Files (x86)\Microsoft Visual Studio\2019\Community\VC\Tools\MSVC\14.29.30133\atlmfc\include\afxwin1.inl
; File D:\git\src\IBK\IBK_DRFN\ProjSrc\SrcChartEx\ChartOCX\GraphDraw\SelectSubGraph.cpp
; File C:\Program Files (x86)\Microsoft Visual Studio\2019\Community\VC\Tools\MSVC\14.29.30133\atlmfc\include\afxwin1.inl
; File D:\git\src\IBK\IBK_DRFN\ProjSrc\SrcChartEx\ChartOCX\GraphDraw\SelectSubGraph.cpp
; File C:\Program Files (x86)\Microsoft Visual Studio\2019\Community\VC\Tools\MSVC\14.29.30133\atlmfc\include\afxwin1.inl
; File D:\git\src\IBK\IBK_DRFN\ProjSrc\SrcChartEx\ChartOCX\GraphDraw\SelectSubGraph.cpp
; File C:\Program Files (x86)\Microsoft Visual Studio\2019\Community\VC\Tools\MSVC\14.29.30133\atlmfc\include\afxwin1.inl
; File D:\git\src\IBK\IBK_DRFN\ProjSrc\SrcChartEx\ChartOCX\GraphDraw\SelectSubGraph.cpp
; File C:\Program Files (x86)\Microsoft Visual Studio\2019\Community\VC\Tools\MSVC\14.29.30133\atlmfc\include\afxwin1.inl
; File D:\git\src\IBK\IBK_DRFN\ProjSrc\SrcChartEx\ChartOCX\GraphDraw\SelectSubGraph.cpp
; File C:\Program Files (x86)\Windows Kits\10\Include\10.0.22000.0\ucrt\stdlib.h
; File D:\git\src\IBK\IBK_DRFN\ProjSrc\SrcChartEx\ChartOCX\GraphDraw\SelectSubGraph.cpp
; File C:\Program Files (x86)\Windows Kits\10\Include\10.0.22000.0\ucrt\stdlib.h
; File D:\git\src\IBK\IBK_DRFN\ProjSrc\SrcChartEx\ChartOCX\GraphDraw\SelectSubGraph.cpp
; File C:\Program Files (x86)\Microsoft Visual Studio\2019\Community\VC\Tools\MSVC\14.29.30133\atlmfc\include\afxwin1.inl
; File D:\git\src\IBK\IBK_DRFN\ProjSrc\SrcChartEx\ChartOCX\GraphDraw\SelectSubGraph.cpp
; File C:\Program Files (x86)\Microsoft Visual Studio\2019\Community\VC\Tools\MSVC\14.29.30133\atlmfc\include\afxtempl.h
; File D:\git\src\IBK\IBK_DRFN\ProjSrc\SrcChartEx\ChartOCX\GraphDraw\SelectSubGraph.cpp
;	COMDAT ?PointInInverseLineGraph@CSelectSubGraph@@AAEHABVCPoint@@PBVCSelectSubGraphData@@@Z
_TEXT	SEGMENT
_dVertViewMin$ = -240					; size = 8
_dVertViewMax$ = -232					; size = 8
_dHorzViewMin$ = -224					; size = 8
_dHorzViewMax$ = -216					; size = 8
$T2 = -208						; size = 4
_point$GSCopy$1$ = -204					; size = 4
_closeStartPos$1$ = -200				; size = 4
_nStartIndex$1$ = -200					; size = 4
_pCloseDataList$1$ = -196				; size = 4
_nDataCount$1$ = -196					; size = 4
_prevPt$ = -192						; size = 8
_curPt$3 = -184						; size = 8
_pSelectSubGraphData$GSCopy$1$ = -180			; size = 4
_rgn$4 = -176						; size = 8
$T5 = -172						; size = 4
_bIsInvert$1$ = -165					; size = 1
$T6 = -164						; size = 68
_graphRegion$ = -96					; size = 16
_ptArray$7 = -80					; size = 32
_ptArray$8 = -48					; size = 32
$T9 = -32						; size = 16
$T10 = -32						; size = 16
$T11 = -32						; size = 16
$T12 = -32						; size = 16
__$ArrayPad$ = -16					; size = 4
__$EHRec$ = -12						; size = 12
_point$ = 8						; size = 4
_pSelectSubGraphData$ = 12				; size = 4
?PointInInverseLineGraph@CSelectSubGraph@@AAEHABVCPoint@@PBVCSelectSubGraphData@@@Z PROC ; CSelectSubGraph::PointInInverseLineGraph, COMDAT
; _this$ = ecx

; 1131 : {

  00000	55		 push	 ebp
  00001	8b ec		 mov	 ebp, esp
  00003	6a ff		 push	 -1
  00005	68 00 00 00 00	 push	 __ehhandler$?PointInInverseLineGraph@CSelectSubGraph@@AAEHABVCPoint@@PBVCSelectSubGraphData@@@Z
  0000a	64 a1 00 00 00
	00		 mov	 eax, DWORD PTR fs:0
  00010	50		 push	 eax
  00011	81 ec e4 00 00
	00		 sub	 esp, 228		; 000000e4H
  00017	a1 00 00 00 00	 mov	 eax, DWORD PTR ___security_cookie
  0001c	33 c5		 xor	 eax, ebp
  0001e	89 45 f0	 mov	 DWORD PTR __$ArrayPad$[ebp], eax
  00021	53		 push	 ebx
  00022	56		 push	 esi
  00023	57		 push	 edi
  00024	50		 push	 eax
  00025	8d 45 f4	 lea	 eax, DWORD PTR __$EHRec$[ebp]
  00028	64 a3 00 00 00
	00		 mov	 DWORD PTR fs:0, eax
  0002e	8b 75 08	 mov	 esi, DWORD PTR _point$[ebp]
  00031	89 b5 34 ff ff
	ff		 mov	 DWORD PTR _point$GSCopy$1$[ebp], esi
  00037	8b 75 0c	 mov	 esi, DWORD PTR _pSelectSubGraphData$[ebp]
  0003a	89 b5 4c ff ff
	ff		 mov	 DWORD PTR _pSelectSubGraphData$GSCopy$1$[ebp], esi

; 1199 : 	if(pSelectSubGraphData == NULL || pSelectSubGraphData->GetSubGraphPacketList() == NULL)

  00040	85 f6		 test	 esi, esi
  00042	0f 84 98 03 00
	00		 je	 $LN7@PointInInv
  00048	8b ce		 mov	 ecx, esi
  0004a	e8 00 00 00 00	 call	 ?GetSubGraphPacketList@CSelectSubGraphData@@QBEPAVCSubGraphPacketList@@XZ ; CSelectSubGraphData::GetSubGraphPacketList
  0004f	85 c0		 test	 eax, eax
  00051	0f 84 89 03 00
	00		 je	 $LN7@PointInInv

; 1200 : 		return false;
; 1201 : 
; 1202 : 	const CList< CPacket *, CPacket *> &packetList = pSelectSubGraphData->GetSubGraphPacketList()->GetSubGraphPacketList();

  00057	8b ce		 mov	 ecx, esi
  00059	e8 00 00 00 00	 call	 ?GetSubGraphPacketList@CSelectSubGraphData@@QBEPAVCSubGraphPacketList@@XZ ; CSelectSubGraphData::GetSubGraphPacketList
  0005e	8b c8		 mov	 ecx, eax
  00060	e8 00 00 00 00	 call	 ?GetSubGraphPacketList@CSubGraphPacketList@@QBEABV?$CList@PAVCPacket@@PAV1@@@XZ ; CSubGraphPacketList::GetSubGraphPacketList
  00065	8b f8		 mov	 edi, eax

; 1203 : 	if( packetList.GetCount() < 2)

  00067	83 7f 0c 02	 cmp	 DWORD PTR [edi+12], 2
  0006b	0f 8c 6f 03 00
	00		 jl	 $LN7@PointInInv
; File C:\Program Files (x86)\Microsoft Visual Studio\2019\Community\VC\Tools\MSVC\14.29.30133\atlmfc\include\afxtempl.h

; 793  : 	{ ENSURE(m_pNodeHead != NULL);

  00071	8b 5f 04	 mov	 ebx, DWORD PTR [edi+4]
  00074	85 db		 test	 ebx, ebx
  00076	0f 84 e4 03 00
	00		 je	 $LN170@PointInInv
; File D:\git\src\IBK\IBK_DRFN\ProjSrc\SrcChartEx\ChartOCX\GraphDraw\SelectSubGraph.cpp

; 1208 : 	if(pClosePacket == NULL)

  0007c	8b 5b 08	 mov	 ebx, DWORD PTR [ebx+8]
  0007f	85 db		 test	 ebx, ebx
  00081	0f 84 59 03 00
	00		 je	 $LN7@PointInInv

; 1209 : 		return false;
; 1210 : 	pCloseDataList = pClosePacket->GetnumericDataList();

  00087	8b cb		 mov	 ecx, ebx
  00089	ff 15 00 00 00
	00		 call	 DWORD PTR __imp_?GetnumericDataList@CPacket@@QAEPAV?$CList@NN@@XZ
  0008f	8b f0		 mov	 esi, eax
  00091	89 b5 3c ff ff
	ff		 mov	 DWORD PTR _pCloseDataList$1$[ebp], esi

; 1211 : 	if(pCloseDataList == NULL)

  00097	85 f6		 test	 esi, esi
  00099	0f 84 41 03 00
	00		 je	 $LN7@PointInInv

; 1212 : 		return false;
; 1213 : 	p_nStartIndex = pClosePacket->GetStartPeriod();

  0009f	8b cb		 mov	 ecx, ebx
  000a1	ff 15 00 00 00
	00		 call	 DWORD PTR __imp_?GetStartPeriod@CPacket@@QAEHXZ
  000a7	8b d8		 mov	 ebx, eax

; 1214 : 	closeStartPos = closeEndPos = pCloseDataList->FindIndex( p_nStartIndex);

  000a9	8b cb		 mov	 ecx, ebx
  000ab	89 9d 38 ff ff
	ff		 mov	 DWORD PTR _nStartIndex$1$[ebp], ebx
; File C:\Program Files (x86)\Microsoft Visual Studio\2019\Community\VC\Tools\MSVC\14.29.30133\atlmfc\include\afxtempl.h

; 1133 : 	if (nIndex >= m_nCount || nIndex < 0)

  000b1	3b 5e 0c	 cmp	 ebx, DWORD PTR [esi+12]
  000b4	7d 18		 jge	 SHORT $LN40@PointInInv
  000b6	85 db		 test	 ebx, ebx
  000b8	78 14		 js	 SHORT $LN40@PointInInv

; 1135 : 
; 1136 : 	CNode* pNode = m_pNodeHead;

  000ba	8b 76 04	 mov	 esi, DWORD PTR [esi+4]
  000bd	89 b5 54 ff ff
	ff		 mov	 DWORD PTR $T5[ebp], esi

; 1137 : 	while (nIndex--)

  000c3	74 11		 je	 SHORT $LN36@PointInInv
$LL37@PointInInv:

; 1138 : 	{
; 1139 : 		ASSERT(AfxIsValidAddress(pNode, sizeof(CNode)));
; 1140 : 		pNode = pNode->pNext;

  000c5	8b 36		 mov	 esi, DWORD PTR [esi]
  000c7	83 e9 01	 sub	 ecx, 1
  000ca	75 f9		 jne	 SHORT $LL37@PointInInv

; 1141 : 	}
; 1142 : 	return (POSITION) pNode;

  000cc	eb 02		 jmp	 SHORT $LN167@PointInInv
$LN40@PointInInv:

; 1134 : 		return NULL;  // went too far

  000ce	33 f6		 xor	 esi, esi
$LN167@PointInInv:

; 1133 : 	if (nIndex >= m_nCount || nIndex < 0)

  000d0	89 b5 54 ff ff
	ff		 mov	 DWORD PTR $T5[ebp], esi
$LN36@PointInInv:
  000d6	83 7f 0c 01	 cmp	 DWORD PTR [edi+12], 1
  000da	7e 07		 jle	 SHORT $LN46@PointInInv

; 1135 : 
; 1136 : 	CNode* pNode = m_pNodeHead;

  000dc	8b 47 04	 mov	 eax, DWORD PTR [edi+4]

; 1141 : 	}
; 1142 : 	return (POSITION) pNode;

  000df	8b 00		 mov	 eax, DWORD PTR [eax]
  000e1	eb 02		 jmp	 SHORT $LN42@PointInInv
$LN46@PointInInv:

; 1134 : 		return NULL;  // went too far

  000e3	33 c0		 xor	 eax, eax
$LN42@PointInInv:
; File D:\git\src\IBK\IBK_DRFN\ProjSrc\SrcChartEx\ChartOCX\GraphDraw\SelectSubGraph.cpp

; 1217 : 	CPacket* pVolumePacket = packetList.GetAt(packetList.FindIndex(1));

  000e5	8b 48 08	 mov	 ecx, DWORD PTR [eax+8]

; 1218 : 	if(pVolumePacket == NULL)

  000e8	85 c9		 test	 ecx, ecx
  000ea	0f 84 f0 02 00
	00		 je	 $LN7@PointInInv

; 1219 : 		return false;
; 1220 : 	pVolumeDataList = pVolumePacket->GetnumericDataList();

  000f0	ff 15 00 00 00
	00		 call	 DWORD PTR __imp_?GetnumericDataList@CPacket@@QAEPAV?$CList@NN@@XZ

; 1221 : 	if(pVolumeDataList == NULL)

  000f6	85 c0		 test	 eax, eax
  000f8	0f 84 e2 02 00
	00		 je	 $LN7@PointInInv
; File C:\Program Files (x86)\Microsoft Visual Studio\2019\Community\VC\Tools\MSVC\14.29.30133\atlmfc\include\afxtempl.h

; 1133 : 	if (nIndex >= m_nCount || nIndex < 0)

  000fe	8b 50 0c	 mov	 edx, DWORD PTR [eax+12]
; File D:\git\src\IBK\IBK_DRFN\ProjSrc\SrcChartEx\ChartOCX\GraphDraw\SelectSubGraph.cpp

; 1223 : 	volumeStartPos = volumeEndPos = pVolumeDataList->FindIndex( p_nStartIndex);

  00101	8b cb		 mov	 ecx, ebx
; File C:\Program Files (x86)\Microsoft Visual Studio\2019\Community\VC\Tools\MSVC\14.29.30133\atlmfc\include\afxtempl.h

; 1133 : 	if (nIndex >= m_nCount || nIndex < 0)

  00103	3b da		 cmp	 ebx, edx
  00105	7d 12		 jge	 SHORT $LN52@PointInInv
  00107	85 db		 test	 ebx, ebx
  00109	78 0e		 js	 SHORT $LN52@PointInInv

; 1135 : 
; 1136 : 	CNode* pNode = m_pNodeHead;

  0010b	8b 78 04	 mov	 edi, DWORD PTR [eax+4]

; 1137 : 	while (nIndex--)

  0010e	74 0b		 je	 SHORT $LN48@PointInInv
$LL49@PointInInv:

; 1138 : 	{
; 1139 : 		ASSERT(AfxIsValidAddress(pNode, sizeof(CNode)));
; 1140 : 		pNode = pNode->pNext;

  00110	8b 3f		 mov	 edi, DWORD PTR [edi]
  00112	83 e9 01	 sub	 ecx, 1
  00115	75 f9		 jne	 SHORT $LL49@PointInInv

; 1141 : 	}
; 1142 : 	return (POSITION) pNode;

  00117	eb 02		 jmp	 SHORT $LN48@PointInInv
$LN52@PointInInv:

; 1134 : 		return NULL;  // went too far

  00119	33 ff		 xor	 edi, edi
$LN48@PointInInv:
; File D:\git\src\IBK\IBK_DRFN\ProjSrc\SrcChartEx\ChartOCX\GraphDraw\SelectSubGraph.cpp

; 1225 : 	nDataCount = pCloseDataList->GetCount();

  0011b	8b 85 3c ff ff
	ff		 mov	 eax, DWORD PTR _pCloseDataList$1$[ebp]
  00121	8b 40 0c	 mov	 eax, DWORD PTR [eax+12]

; 1226 : 	if(nDataCount > pVolumeDataList->GetCount())
; 1227 : 		nDataCount = pVolumeDataList->GetCount();
; 1228 : 
; 1229 : 	return (closeStartPos != NULL && volumeStartPos != NULL);

  00124	3b c2		 cmp	 eax, edx
  00126	0f 4e d0	 cmovle	 edx, eax
  00129	89 95 3c ff ff
	ff		 mov	 DWORD PTR _nDataCount$1$[ebp], edx
  0012f	85 f6		 test	 esi, esi
  00131	74 08		 je	 SHORT $LN27@PointInInv
  00133	85 ff		 test	 edi, edi
  00135	74 04		 je	 SHORT $LN27@PointInInv
  00137	b0 01		 mov	 al, 1
  00139	eb 02		 jmp	 SHORT $LN28@PointInInv
$LN27@PointInInv:
  0013b	32 c0		 xor	 al, al
$LN28@PointInInv:

; 1132 : 	int nDataCount = 0, nStartIndex = 0;
; 1133 : 	CList<double, double>* pCloseDataList = NULL, *pVolumeDataList = NULL;
; 1134 : 	POSITION closeStartPos = NULL, closeEndPos = NULL, volumeStartPos = NULL, volumeEndPos = NULL;
; 1135 : 	if(!GetPacketData_InverseLineGraph(pSelectSubGraphData, nDataCount, 

  0013d	84 c0		 test	 al, al
  0013f	0f 84 9b 02 00
	00		 je	 $LN7@PointInInv

; 1140 : 	CRect graphRegion = pSelectSubGraphData->GetGraphRegions().GetDrawingRegion();

  00145	8b 9d 4c ff ff
	ff		 mov	 ebx, DWORD PTR _pSelectSubGraphData$GSCopy$1$[ebp]
  0014b	8d 85 30 ff ff
	ff		 lea	 eax, DWORD PTR $T2[ebp]
  00151	50		 push	 eax
  00152	6a ff		 push	 -1
  00154	8d 45 a0	 lea	 eax, DWORD PTR _graphRegion$[ebp]
; File D:\git\src\IBK\IBK_DRFN\ProjSrc\SrcChartEx\ChartOCX\Include_Chart\BlockBaseData.h

; 43   : 	CGraphStyle(const int style) { m_nStyle = style; };

  00157	c7 85 30 ff ff
	ff ff ff ff ff	 mov	 DWORD PTR $T2[ebp], -1
; File D:\git\src\IBK\IBK_DRFN\ProjSrc\SrcChartEx\ChartOCX\GraphDraw\SelectSubGraph.cpp

; 1140 : 	CRect graphRegion = pSelectSubGraphData->GetGraphRegions().GetDrawingRegion();

  00161	50		 push	 eax
  00162	8d 85 5c ff ff
	ff		 lea	 eax, DWORD PTR $T6[ebp]
  00168	8b cb		 mov	 ecx, ebx
  0016a	50		 push	 eax
  0016b	e8 00 00 00 00	 call	 ?GetGraphRegions@CSelectSubGraphData@@QBE?AVCGraphRegions@@XZ ; CSelectSubGraphData::GetGraphRegions
  00170	8b c8		 mov	 ecx, eax
  00172	e8 00 00 00 00	 call	 ?GetDrawingRegion@CGraphRegions@@QBE?AVCRect@@W4GRAPHTYPE@CGraphBaseData@@ABVCGraphStyle@@@Z ; CGraphRegions::GetDrawingRegion

; 1141 : 	double dVertViewMin = pSelectSubGraphData->GetDisplayDataVertMinMax().GetDisplayMin();

  00177	8d 45 e0	 lea	 eax, DWORD PTR $T12[ebp]
  0017a	8b cb		 mov	 ecx, ebx
  0017c	50		 push	 eax
  0017d	e8 00 00 00 00	 call	 ?GetDisplayDataVertMinMax@CSelectSubGraphData@@QBE?AVCDisplayDataMinMax@@XZ ; CSelectSubGraphData::GetDisplayDataVertMinMax
  00182	8b c8		 mov	 ecx, eax
  00184	ff 15 00 00 00
	00		 call	 DWORD PTR __imp_?GetDisplayMin@CDisplayDataMinMax@@QBENXZ

; 1142 : 	double dVertViewMax = pSelectSubGraphData->GetDisplayDataVertMinMax().GetDisplayMax(); 

  0018a	8d 45 e0	 lea	 eax, DWORD PTR $T11[ebp]
  0018d	8b cb		 mov	 ecx, ebx
  0018f	50		 push	 eax
  00190	dd 9d 10 ff ff
	ff		 fstp	 QWORD PTR _dVertViewMin$[ebp]
  00196	e8 00 00 00 00	 call	 ?GetDisplayDataVertMinMax@CSelectSubGraphData@@QBE?AVCDisplayDataMinMax@@XZ ; CSelectSubGraphData::GetDisplayDataVertMinMax
  0019b	8b c8		 mov	 ecx, eax
  0019d	ff 15 00 00 00
	00		 call	 DWORD PTR __imp_?GetDisplayMax@CDisplayDataMinMax@@QBENXZ

; 1143 : 	double dHorzViewMin = pSelectSubGraphData->GetDisplayDataHorzMinMax().GetDisplayMin();

  001a3	8d 45 e0	 lea	 eax, DWORD PTR $T10[ebp]
  001a6	8b cb		 mov	 ecx, ebx
  001a8	50		 push	 eax
  001a9	dd 9d 18 ff ff
	ff		 fstp	 QWORD PTR _dVertViewMax$[ebp]
  001af	e8 00 00 00 00	 call	 ?GetDisplayDataHorzMinMax@CSelectSubGraphData@@QBE?AVCDisplayDataMinMax@@XZ ; CSelectSubGraphData::GetDisplayDataHorzMinMax
  001b4	8b c8		 mov	 ecx, eax
  001b6	ff 15 00 00 00
	00		 call	 DWORD PTR __imp_?GetDisplayMin@CDisplayDataMinMax@@QBENXZ

; 1144 : 	double dHorzViewMax = pSelectSubGraphData->GetDisplayDataHorzMinMax().GetDisplayMax();

  001bc	8d 45 e0	 lea	 eax, DWORD PTR $T9[ebp]
  001bf	8b cb		 mov	 ecx, ebx
  001c1	50		 push	 eax
  001c2	dd 9d 20 ff ff
	ff		 fstp	 QWORD PTR _dHorzViewMin$[ebp]
  001c8	e8 00 00 00 00	 call	 ?GetDisplayDataHorzMinMax@CSelectSubGraphData@@QBE?AVCDisplayDataMinMax@@XZ ; CSelectSubGraphData::GetDisplayDataHorzMinMax
  001cd	8b c8		 mov	 ecx, eax
  001cf	ff 15 00 00 00
	00		 call	 DWORD PTR __imp_?GetDisplayMax@CDisplayDataMinMax@@QBENXZ

; 1147 : 	bool bIsInvert = pSelectSubGraphData->GetVertScaleInvertType();

  001d5	8b cb		 mov	 ecx, ebx
  001d7	dd 9d 28 ff ff
	ff		 fstp	 QWORD PTR _dHorzViewMax$[ebp]
  001dd	e8 00 00 00 00	 call	 ?GetVertScaleInvertType@CSelectSubGraphData@@QBE_NXZ ; CSelectSubGraphData::GetVertScaleInvertType
; File C:\Program Files (x86)\Microsoft Visual Studio\2019\Community\VC\Tools\MSVC\14.29.30133\atlmfc\include\afxtempl.h

; 813  : 		rPosition = (POSITION) pNode->pNext;

  001e2	8b 1f		 mov	 ebx, DWORD PTR [edi]

; 814  : 		return pNode->data; }

  001e4	8d 4f 08	 lea	 ecx, DWORD PTR [edi+8]

; 813  : 		rPosition = (POSITION) pNode->pNext;

  001e7	8b 36		 mov	 esi, DWORD PTR [esi]
; File D:\git\src\IBK\IBK_DRFN\ProjSrc\SrcChartEx\ChartOCX\GraphDraw\SelectSubGraph.cpp

; 1148 : 	CPoint prevPt = CDataConversion::GetVerticalPoint(graphRegion, 

  001e9	51		 push	 ecx
; File C:\Program Files (x86)\Microsoft Visual Studio\2019\Community\VC\Tools\MSVC\14.29.30133\atlmfc\include\afxtempl.h

; 814  : 		return pNode->data; }

  001ea	8b 8d 54 ff ff
	ff		 mov	 ecx, DWORD PTR $T5[ebp]
; File D:\git\src\IBK\IBK_DRFN\ProjSrc\SrcChartEx\ChartOCX\GraphDraw\SelectSubGraph.cpp

; 1147 : 	bool bIsInvert = pSelectSubGraphData->GetVertScaleInvertType();

  001f0	88 85 5b ff ff
	ff		 mov	 BYTE PTR _bIsInvert$1$[ebp], al
; File C:\Program Files (x86)\Microsoft Visual Studio\2019\Community\VC\Tools\MSVC\14.29.30133\atlmfc\include\afxtempl.h

; 814  : 		return pNode->data; }

  001f6	83 c1 08	 add	 ecx, 8
; File D:\git\src\IBK\IBK_DRFN\ProjSrc\SrcChartEx\ChartOCX\GraphDraw\SelectSubGraph.cpp

; 1148 : 	CPoint prevPt = CDataConversion::GetVerticalPoint(graphRegion, 

  001f9	51		 push	 ecx
  001fa	8d 85 28 ff ff
	ff		 lea	 eax, DWORD PTR _dHorzViewMax$[ebp]
  00200	50		 push	 eax
  00201	8d 85 20 ff ff
	ff		 lea	 eax, DWORD PTR _dHorzViewMin$[ebp]
  00207	50		 push	 eax
  00208	8d 85 18 ff ff
	ff		 lea	 eax, DWORD PTR _dVertViewMax$[ebp]
  0020e	50		 push	 eax
  0020f	8d 85 10 ff ff
	ff		 lea	 eax, DWORD PTR _dVertViewMin$[ebp]
  00215	50		 push	 eax
  00216	8d 45 a0	 lea	 eax, DWORD PTR _graphRegion$[ebp]
  00219	50		 push	 eax
  0021a	8d 85 40 ff ff
	ff		 lea	 eax, DWORD PTR _prevPt$[ebp]
  00220	50		 push	 eax
  00221	e8 00 00 00 00	 call	 ?GetVerticalPoint@CDataConversion@@SA?AVCPoint@@ABVCRect@@ABN11111@Z ; CDataConversion::GetVerticalPoint

; 1152 : 	for(int nIndex = nStartIndex + 1; nIndex < nDataCount; nIndex++)

  00226	8b bd 38 ff ff
	ff		 mov	 edi, DWORD PTR _nStartIndex$1$[ebp]
  0022c	83 c4 20	 add	 esp, 32			; 00000020H
  0022f	47		 inc	 edi
  00230	3b bd 3c ff ff
	ff		 cmp	 edi, DWORD PTR _nDataCount$1$[ebp]
  00236	0f 8d a4 01 00
	00		 jge	 $LN7@PointInInv
  0023c	0f 1f 40 00	 npad	 4
$LL4@PointInInv:

; 1153 : 	{
; 1154 : 		if(closeStartPos == NULL || volumeStartPos == NULL)

  00240	85 f6		 test	 esi, esi
  00242	0f 84 98 01 00
	00		 je	 $LN7@PointInInv
  00248	85 db		 test	 ebx, ebx
  0024a	0f 84 90 01 00
	00		 je	 $LN7@PointInInv
; File C:\Program Files (x86)\Microsoft Visual Studio\2019\Community\VC\Tools\MSVC\14.29.30133\atlmfc\include\afxtempl.h

; 811  : 	{ CNode* pNode = (CNode*) rPosition;

  00250	8b ce		 mov	 ecx, esi
  00252	8b c3		 mov	 eax, ebx

; 813  : 		rPosition = (POSITION) pNode->pNext;

  00254	8b 36		 mov	 esi, DWORD PTR [esi]

; 814  : 		return pNode->data; }

  00256	83 c0 08	 add	 eax, 8
; File D:\git\src\IBK\IBK_DRFN\ProjSrc\SrcChartEx\ChartOCX\GraphDraw\SelectSubGraph.cpp

; 1157 : 		CPoint curPt = CDataConversion::GetVerticalPoint(graphRegion, 

  00259	50		 push	 eax
; File C:\Program Files (x86)\Microsoft Visual Studio\2019\Community\VC\Tools\MSVC\14.29.30133\atlmfc\include\afxtempl.h

; 813  : 		rPosition = (POSITION) pNode->pNext;

  0025a	8b 1b		 mov	 ebx, DWORD PTR [ebx]

; 814  : 		return pNode->data; }

  0025c	8d 41 08	 lea	 eax, DWORD PTR [ecx+8]
  0025f	89 b5 38 ff ff
	ff		 mov	 DWORD PTR _closeStartPos$1$[ebp], esi
; File D:\git\src\IBK\IBK_DRFN\ProjSrc\SrcChartEx\ChartOCX\GraphDraw\SelectSubGraph.cpp

; 1157 : 		CPoint curPt = CDataConversion::GetVerticalPoint(graphRegion, 

  00265	50		 push	 eax
  00266	8d 85 28 ff ff
	ff		 lea	 eax, DWORD PTR _dHorzViewMax$[ebp]
  0026c	50		 push	 eax
  0026d	8d 85 20 ff ff
	ff		 lea	 eax, DWORD PTR _dHorzViewMin$[ebp]
  00273	50		 push	 eax
  00274	8d 85 18 ff ff
	ff		 lea	 eax, DWORD PTR _dVertViewMax$[ebp]
  0027a	50		 push	 eax
  0027b	8d 85 10 ff ff
	ff		 lea	 eax, DWORD PTR _dVertViewMin$[ebp]
  00281	50		 push	 eax
  00282	8d 45 a0	 lea	 eax, DWORD PTR _graphRegion$[ebp]
  00285	50		 push	 eax
  00286	8d 85 48 ff ff
	ff		 lea	 eax, DWORD PTR _curPt$3[ebp]
  0028c	50		 push	 eax
  0028d	e8 00 00 00 00	 call	 ?GetVerticalPoint@CDataConversion@@SA?AVCPoint@@ABVCRect@@ABN11111@Z ; CDataConversion::GetVerticalPoint
  00292	83 c4 20	 add	 esp, 32			; 00000020H

; 1158 : 				dVertViewMin, dVertViewMax, dHorzViewMin, dHorzViewMax, 
; 1159 : 				pCloseDataList->GetNext(closeStartPos), pVolumeDataList->GetNext(volumeStartPos));
; 1160 : 		if(bIsInvert)

  00295	80 bd 5b ff ff
	ff 00		 cmp	 BYTE PTR _bIsInvert$1$[ebp], 0
  0029c	74 1c		 je	 SHORT $LN164@PointInInv

; 1161 : 			curPt.y = CDataConversion::InvertGraphDataPt(graphRegion, curPt.y);

  0029e	ff b5 4c ff ff
	ff		 push	 DWORD PTR _curPt$3[ebp+4]
  002a4	8d 45 a0	 lea	 eax, DWORD PTR _graphRegion$[ebp]
  002a7	50		 push	 eax
  002a8	e8 00 00 00 00	 call	 ?InvertGraphDataPt@CDataConversion@@SAHABVCRect@@H@Z ; CDataConversion::InvertGraphDataPt
  002ad	8b f0		 mov	 esi, eax
  002af	83 c4 08	 add	 esp, 8
  002b2	89 b5 4c ff ff
	ff		 mov	 DWORD PTR _curPt$3[ebp+4], esi
  002b8	eb 06		 jmp	 SHORT $LN8@PointInInv
$LN164@PointInInv:

; 1158 : 				dVertViewMin, dVertViewMax, dHorzViewMin, dHorzViewMax, 
; 1159 : 				pCloseDataList->GetNext(closeStartPos), pVolumeDataList->GetNext(volumeStartPos));
; 1160 : 		if(bIsInvert)

  002ba	8b b5 4c ff ff
	ff		 mov	 esi, DWORD PTR _curPt$3[ebp+4]
$LN8@PointInInv:
; File C:\Program Files (x86)\Microsoft Visual Studio\2019\Community\VC\Tools\MSVC\14.29.30133\atlmfc\include\afxwin1.inl

; 70   : 	{ m_hObject = NULL; }

  002c0	c7 85 54 ff ff
	ff 00 00 00 00	 mov	 DWORD PTR _rgn$4[ebp+4], 0

; 264  : 	{ }

  002ca	c7 85 50 ff ff
	ff 00 00 00 00	 mov	 DWORD PTR _rgn$4[ebp], OFFSET ??_7CRgn@@6B@
; File D:\git\src\IBK\IBK_DRFN\ProjSrc\SrcChartEx\ChartOCX\GraphDraw\SelectSubGraph.cpp

; 1164 : 		if(abs(curPt.x - prevPt.x) <= abs(curPt.y - prevPt.y))

  002d4	8b 85 48 ff ff
	ff		 mov	 eax, DWORD PTR _curPt$3[ebp]
  002da	2b 85 40 ff ff
	ff		 sub	 eax, DWORD PTR _prevPt$[ebp]
; File C:\Program Files (x86)\Windows Kits\10\Include\10.0.22000.0\ucrt\stdlib.h

; 365  :         return labs(_X);

  002e0	99		 cdq
  002e1	8b c8		 mov	 ecx, eax
; File D:\git\src\IBK\IBK_DRFN\ProjSrc\SrcChartEx\ChartOCX\GraphDraw\SelectSubGraph.cpp

; 1163 : 		CRgn rgn;

  002e3	c7 45 fc 00 00
	00 00		 mov	 DWORD PTR __$EHRec$[ebp+8], 0
; File C:\Program Files (x86)\Windows Kits\10\Include\10.0.22000.0\ucrt\stdlib.h

; 365  :         return labs(_X);

  002ea	33 ca		 xor	 ecx, edx
; File D:\git\src\IBK\IBK_DRFN\ProjSrc\SrcChartEx\ChartOCX\GraphDraw\SelectSubGraph.cpp

; 1164 : 		if(abs(curPt.x - prevPt.x) <= abs(curPt.y - prevPt.y))

  002ec	8b c6		 mov	 eax, esi
  002ee	2b 85 44 ff ff
	ff		 sub	 eax, DWORD PTR _prevPt$[ebp+4]
; File C:\Program Files (x86)\Windows Kits\10\Include\10.0.22000.0\ucrt\stdlib.h

; 365  :         return labs(_X);

  002f4	2b ca		 sub	 ecx, edx
  002f6	99		 cdq
  002f7	33 c2		 xor	 eax, edx
  002f9	2b c2		 sub	 eax, edx
; File D:\git\src\IBK\IBK_DRFN\ProjSrc\SrcChartEx\ChartOCX\GraphDraw\SelectSubGraph.cpp

; 1164 : 		if(abs(curPt.x - prevPt.x) <= abs(curPt.y - prevPt.y))

  002fb	8b 95 40 ff ff
	ff		 mov	 edx, DWORD PTR _prevPt$[ebp]
  00301	6a 02		 push	 2
  00303	3b c8		 cmp	 ecx, eax
  00305	8b 8d 44 ff ff
	ff		 mov	 ecx, DWORD PTR _prevPt$[ebp+4]
  0030b	6a 04		 push	 4
  0030d	7f 2f		 jg	 SHORT $LN9@PointInInv

; 1165 : 		{
; 1166 : 			CPoint ptArray[4];
; 1167 : 			ptArray[0] = CPoint(prevPt.x - nUnit, prevPt.y);

  0030f	8d 42 f8	 lea	 eax, DWORD PTR [edx-8]
  00312	89 4d d4	 mov	 DWORD PTR _ptArray$8[ebp+4], ecx
  00315	89 45 d0	 mov	 DWORD PTR _ptArray$8[ebp], eax

; 1168 : 			ptArray[1] = CPoint(prevPt.x + nUnit, prevPt.y);

  00318	8d 42 08	 lea	 eax, DWORD PTR [edx+8]
  0031b	89 4d dc	 mov	 DWORD PTR _ptArray$8[ebp+12], ecx

; 1169 : 			ptArray[2] = CPoint(curPt.x + nUnit, curPt.y);

  0031e	8b 8d 48 ff ff
	ff		 mov	 ecx, DWORD PTR _curPt$3[ebp]
  00324	89 45 d8	 mov	 DWORD PTR _ptArray$8[ebp+8], eax
  00327	89 75 e4	 mov	 DWORD PTR _ptArray$8[ebp+20], esi

; 1170 : 			ptArray[3] = CPoint(curPt.x - nUnit, curPt.y);

  0032a	89 75 ec	 mov	 DWORD PTR _ptArray$8[ebp+28], esi
  0032d	8d 41 08	 lea	 eax, DWORD PTR [ecx+8]
  00330	89 45 e0	 mov	 DWORD PTR _ptArray$8[ebp+16], eax
  00333	8d 41 f8	 lea	 eax, DWORD PTR [ecx-8]
  00336	89 45 e8	 mov	 DWORD PTR _ptArray$8[ebp+24], eax
; File C:\Program Files (x86)\Microsoft Visual Studio\2019\Community\VC\Tools\MSVC\14.29.30133\atlmfc\include\afxwin1.inl

; 276  : 	{ return Attach(::CreatePolygonRgn(lpPoints, nCount, nMode)); }

  00339	8d 45 d0	 lea	 eax, DWORD PTR _ptArray$8[ebp]
; File D:\git\src\IBK\IBK_DRFN\ProjSrc\SrcChartEx\ChartOCX\GraphDraw\SelectSubGraph.cpp

; 1172 : 		}

  0033c	eb 2d		 jmp	 SHORT $LN168@PointInInv
$LN9@PointInInv:

; 1173 : 		else
; 1174 : 		{
; 1175 : 			CPoint ptArray[4];
; 1176 : 			ptArray[0] = CPoint(prevPt.x, prevPt.y - nUnit);

  0033e	8d 41 f8	 lea	 eax, DWORD PTR [ecx-8]
  00341	89 55 b0	 mov	 DWORD PTR _ptArray$7[ebp], edx
  00344	89 45 b4	 mov	 DWORD PTR _ptArray$7[ebp+4], eax

; 1177 : 			ptArray[1] = CPoint(prevPt.x, prevPt.y + nUnit);

  00347	8d 41 08	 lea	 eax, DWORD PTR [ecx+8]

; 1178 : 			ptArray[2] = CPoint(curPt.x, curPt.y + nUnit);

  0034a	8b 8d 48 ff ff
	ff		 mov	 ecx, DWORD PTR _curPt$3[ebp]
  00350	89 45 bc	 mov	 DWORD PTR _ptArray$7[ebp+12], eax
  00353	8d 46 08	 lea	 eax, DWORD PTR [esi+8]
  00356	89 45 c4	 mov	 DWORD PTR _ptArray$7[ebp+20], eax

; 1179 : 			ptArray[3] = CPoint(curPt.x, curPt.y - nUnit);

  00359	8d 46 f8	 lea	 eax, DWORD PTR [esi-8]
  0035c	89 45 cc	 mov	 DWORD PTR _ptArray$7[ebp+28], eax
; File C:\Program Files (x86)\Microsoft Visual Studio\2019\Community\VC\Tools\MSVC\14.29.30133\atlmfc\include\afxwin1.inl

; 276  : 	{ return Attach(::CreatePolygonRgn(lpPoints, nCount, nMode)); }

  0035f	8d 45 b0	 lea	 eax, DWORD PTR _ptArray$7[ebp]
; File D:\git\src\IBK\IBK_DRFN\ProjSrc\SrcChartEx\ChartOCX\GraphDraw\SelectSubGraph.cpp

; 1177 : 			ptArray[1] = CPoint(prevPt.x, prevPt.y + nUnit);

  00362	89 55 b8	 mov	 DWORD PTR _ptArray$7[ebp+8], edx

; 1178 : 			ptArray[2] = CPoint(curPt.x, curPt.y + nUnit);

  00365	89 4d c0	 mov	 DWORD PTR _ptArray$7[ebp+16], ecx

; 1179 : 			ptArray[3] = CPoint(curPt.x, curPt.y - nUnit);

  00368	89 4d c8	 mov	 DWORD PTR _ptArray$7[ebp+24], ecx
$LN168@PointInInv:
; File C:\Program Files (x86)\Microsoft Visual Studio\2019\Community\VC\Tools\MSVC\14.29.30133\atlmfc\include\afxwin1.inl

; 308  : 	{ ASSERT(m_hObject != NULL); return ::PtInRegion((HRGN)m_hObject, point.x, point.y); }

  0036b	50		 push	 eax
  0036c	ff 15 00 00 00
	00		 call	 DWORD PTR __imp__CreatePolygonRgn@12
  00372	50		 push	 eax
  00373	8d 8d 50 ff ff
	ff		 lea	 ecx, DWORD PTR _rgn$4[ebp]
  00379	e8 00 00 00 00	 call	 ?Attach@CGdiObject@@QAEHPAX@Z ; CGdiObject::Attach
  0037e	8b b5 34 ff ff
	ff		 mov	 esi, DWORD PTR _point$GSCopy$1$[ebp]
  00384	ff 76 04	 push	 DWORD PTR [esi+4]
  00387	ff 36		 push	 DWORD PTR [esi]
  00389	ff b5 54 ff ff
	ff		 push	 DWORD PTR _rgn$4[ebp+4]
  0038f	ff 15 00 00 00
	00		 call	 DWORD PTR __imp__PtInRegion@12
; File D:\git\src\IBK\IBK_DRFN\ProjSrc\SrcChartEx\ChartOCX\GraphDraw\SelectSubGraph.cpp

; 1182 : 		if(rgn.PtInRegion(point))

  00395	85 c0		 test	 eax, eax
  00397	8b 85 48 ff ff
	ff		 mov	 eax, DWORD PTR _curPt$3[ebp]
  0039d	75 62		 jne	 SHORT $LN131@PointInInv

; 1190 : 		prevPt = curPt;

  0039f	8b 8d 4c ff ff
	ff		 mov	 ecx, DWORD PTR _curPt$3[ebp+4]
  003a5	89 8d 44 ff ff
	ff		 mov	 DWORD PTR _prevPt$[ebp+4], ecx
; File C:\Program Files (x86)\Microsoft Visual Studio\2019\Community\VC\Tools\MSVC\14.29.30133\atlmfc\include\afxwin1.inl

; 266  : 	{ }

  003ab	8d 8d 50 ff ff
	ff		 lea	 ecx, DWORD PTR _rgn$4[ebp]
; File D:\git\src\IBK\IBK_DRFN\ProjSrc\SrcChartEx\ChartOCX\GraphDraw\SelectSubGraph.cpp

; 1190 : 		prevPt = curPt;

  003b1	89 85 40 ff ff
	ff		 mov	 DWORD PTR _prevPt$[ebp], eax

; 1191 : 	}

  003b7	c7 45 fc ff ff
	ff ff		 mov	 DWORD PTR __$EHRec$[ebp+8], -1
; File C:\Program Files (x86)\Microsoft Visual Studio\2019\Community\VC\Tools\MSVC\14.29.30133\atlmfc\include\afxwin1.inl

; 266  : 	{ }

  003be	c7 85 50 ff ff
	ff 00 00 00 00	 mov	 DWORD PTR _rgn$4[ebp], OFFSET ??_7CRgn@@6B@
  003c8	e8 00 00 00 00	 call	 ??1CGdiObject@@UAE@XZ	; CGdiObject::~CGdiObject
; File D:\git\src\IBK\IBK_DRFN\ProjSrc\SrcChartEx\ChartOCX\GraphDraw\SelectSubGraph.cpp

; 1152 : 	for(int nIndex = nStartIndex + 1; nIndex < nDataCount; nIndex++)

  003cd	8b b5 38 ff ff
	ff		 mov	 esi, DWORD PTR _closeStartPos$1$[ebp]
  003d3	47		 inc	 edi
  003d4	3b bd 3c ff ff
	ff		 cmp	 edi, DWORD PTR _nDataCount$1$[ebp]
  003da	0f 8c 60 fe ff
	ff		 jl	 $LL4@PointInInv
$LN7@PointInInv:

; 1192 : 
; 1193 : 	return -1;

  003e0	83 c8 ff	 or	 eax, -1
$LN1@PointInInv:

; 1194 : }

  003e3	8b 4d f4	 mov	 ecx, DWORD PTR __$EHRec$[ebp]
  003e6	64 89 0d 00 00
	00 00		 mov	 DWORD PTR fs:0, ecx
  003ed	59		 pop	 ecx
  003ee	5f		 pop	 edi
  003ef	5e		 pop	 esi
  003f0	5b		 pop	 ebx
  003f1	8b 4d f0	 mov	 ecx, DWORD PTR __$ArrayPad$[ebp]
  003f4	33 cd		 xor	 ecx, ebp
  003f6	e8 00 00 00 00	 call	 @__security_check_cookie@4
  003fb	8b e5		 mov	 esp, ebp
  003fd	5d		 pop	 ebp
  003fe	c2 08 00	 ret	 8
$LN131@PointInInv:

; 1185 : 			if( abs( point.x - prevPt.x) < abs( curPt.x - point.x) || abs( point.y - prevPt.y) < abs( curPt.y - point.y))

  00401	8b 36		 mov	 esi, DWORD PTR [esi]
  00403	2b c6		 sub	 eax, esi
  00405	2b b5 40 ff ff
	ff		 sub	 esi, DWORD PTR _prevPt$[ebp]
; File C:\Program Files (x86)\Windows Kits\10\Include\10.0.22000.0\ucrt\stdlib.h

; 365  :         return labs(_X);

  0040b	99		 cdq
  0040c	8b c8		 mov	 ecx, eax
  0040e	8b c6		 mov	 eax, esi
  00410	33 ca		 xor	 ecx, edx
  00412	2b ca		 sub	 ecx, edx
  00414	99		 cdq
  00415	33 c2		 xor	 eax, edx
  00417	2b c2		 sub	 eax, edx
; File D:\git\src\IBK\IBK_DRFN\ProjSrc\SrcChartEx\ChartOCX\GraphDraw\SelectSubGraph.cpp

; 1185 : 			if( abs( point.x - prevPt.x) < abs( curPt.x - point.x) || abs( point.y - prevPt.y) < abs( curPt.y - point.y))

  00419	3b c1		 cmp	 eax, ecx
  0041b	7c 29		 jl	 SHORT $LN13@PointInInv
  0041d	8b b5 34 ff ff
	ff		 mov	 esi, DWORD PTR _point$GSCopy$1$[ebp]
  00423	8b 85 4c ff ff
	ff		 mov	 eax, DWORD PTR _curPt$3[ebp+4]
  00429	8b 76 04	 mov	 esi, DWORD PTR [esi+4]
  0042c	2b c6		 sub	 eax, esi
  0042e	2b b5 44 ff ff
	ff		 sub	 esi, DWORD PTR _prevPt$[ebp+4]
; File C:\Program Files (x86)\Windows Kits\10\Include\10.0.22000.0\ucrt\stdlib.h

; 365  :         return labs(_X);

  00434	99		 cdq
  00435	8b c8		 mov	 ecx, eax
  00437	8b c6		 mov	 eax, esi
  00439	33 ca		 xor	 ecx, edx
  0043b	2b ca		 sub	 ecx, edx
  0043d	99		 cdq
  0043e	33 c2		 xor	 eax, edx
  00440	2b c2		 sub	 eax, edx
; File D:\git\src\IBK\IBK_DRFN\ProjSrc\SrcChartEx\ChartOCX\GraphDraw\SelectSubGraph.cpp

; 1185 : 			if( abs( point.x - prevPt.x) < abs( curPt.x - point.x) || abs( point.y - prevPt.y) < abs( curPt.y - point.y))

  00442	3b c1		 cmp	 eax, ecx
  00444	7d 01		 jge	 SHORT $LN16@PointInInv
$LN13@PointInInv:

; 1186 : 				return nIndex - 1;

  00446	4f		 dec	 edi
$LN16@PointInInv:
; File C:\Program Files (x86)\Microsoft Visual Studio\2019\Community\VC\Tools\MSVC\14.29.30133\atlmfc\include\afxwin1.inl

; 266  : 	{ }

  00447	8d 8d 50 ff ff
	ff		 lea	 ecx, DWORD PTR _rgn$4[ebp]
  0044d	c7 85 50 ff ff
	ff 00 00 00 00	 mov	 DWORD PTR _rgn$4[ebp], OFFSET ??_7CRgn@@6B@
  00457	e8 00 00 00 00	 call	 ??1CGdiObject@@UAE@XZ	; CGdiObject::~CGdiObject
; File D:\git\src\IBK\IBK_DRFN\ProjSrc\SrcChartEx\ChartOCX\GraphDraw\SelectSubGraph.cpp

; 1188 : 			return nIndex;

  0045c	8b c7		 mov	 eax, edi
  0045e	eb 83		 jmp	 SHORT $LN1@PointInInv
$LN170@PointInInv:
; File C:\Program Files (x86)\Microsoft Visual Studio\2019\Community\VC\Tools\MSVC\14.29.30133\atlmfc\include\afxtempl.h

; 793  : 	{ ENSURE(m_pNodeHead != NULL);

  00460	e8 00 00 00 00	 call	 ?AfxThrowInvalidArgException@@YGXXZ ; AfxThrowInvalidArgException
$LN166@PointInInv:
  00465	cc		 int	 3
_TEXT	ENDS
;	COMDAT text$x
text$x	SEGMENT
__unwindfunclet$?PointInInverseLineGraph@CSelectSubGraph@@AAEHABVCPoint@@PBVCSelectSubGraphData@@@Z$0:
  00000	8d 8d 50 ff ff
	ff		 lea	 ecx, DWORD PTR _rgn$4[ebp]
  00006	e9 00 00 00 00	 jmp	 ??1CRgn@@UAE@XZ		; CRgn::~CRgn
  0000b	cc		 int	 3
  0000c	cc		 int	 3
  0000d	cc		 int	 3
  0000e	cc		 int	 3
  0000f	cc		 int	 3
__ehhandler$?PointInInverseLineGraph@CSelectSubGraph@@AAEHABVCPoint@@PBVCSelectSubGraphData@@@Z:
  00010	90		 npad	 1
  00011	90		 npad	 1
  00012	8b 54 24 08	 mov	 edx, DWORD PTR [esp+8]
  00016	8d 42 0c	 lea	 eax, DWORD PTR [edx+12]
  00019	8b 8a 0c ff ff
	ff		 mov	 ecx, DWORD PTR [edx-244]
  0001f	33 c8		 xor	 ecx, eax
  00021	e8 00 00 00 00	 call	 @__security_check_cookie@4
  00026	8b 4a fc	 mov	 ecx, DWORD PTR [edx-4]
  00029	33 c8		 xor	 ecx, eax
  0002b	e8 00 00 00 00	 call	 @__security_check_cookie@4
  00030	b8 00 00 00 00	 mov	 eax, OFFSET __ehfuncinfo$?PointInInverseLineGraph@CSelectSubGraph@@AAEHABVCPoint@@PBVCSelectSubGraphData@@@Z
  00035	e9 00 00 00 00	 jmp	 ___CxxFrameHandler3
text$x	ENDS
?PointInInverseLineGraph@CSelectSubGraph@@AAEHABVCPoint@@PBVCSelectSubGraphData@@@Z ENDP ; CSelectSubGraph::PointInInverseLineGraph
; Function compile flags: /Ogtp
; File D:\git\src\IBK\IBK_DRFN\ProjSrc\SrcChartEx\ChartOCX\GraphDraw\SelectSubGraph.cpp
; File C:\Program Files (x86)\Microsoft Visual Studio\2019\Community\VC\Tools\MSVC\14.29.30133\atlmfc\include\afxtempl.h
; File D:\git\src\IBK\IBK_DRFN\ProjSrc\SrcChartEx\ChartOCX\GraphDraw\SelectSubGraph.cpp
; File D:\git\src\IBK\IBK_DRFN\ProjSrc\SrcChartEx\ChartOCX\Include_Chart\BlockBaseData.h
; File D:\git\src\IBK\IBK_DRFN\ProjSrc\SrcChartEx\ChartOCX\GraphDraw\SelectSubGraph.cpp
; File D:\git\src\IBK\IBK_DRFN\ProjSrc\SrcChartEx\ChartOCX\Include_Chart\Dll_Load\XScaleManager.h
; File D:\git\src\IBK\IBK_DRFN\ProjSrc\SrcChartEx\ChartOCX\GraphDraw\SelectSubGraph.cpp
; File C:\Program Files (x86)\Microsoft Visual Studio\2019\Community\VC\Tools\MSVC\14.29.30133\atlmfc\include\atltypes.h
; File D:\git\src\IBK\IBK_DRFN\ProjSrc\SrcChartEx\ChartOCX\GraphDraw\SelectSubGraph.cpp
;	COMDAT ?PointInThreeLineBreakGraph@CSelectSubGraph@@AAEHABVCPoint@@PBVCSelectSubGraphData@@@Z
_TEXT	SEGMENT
$T1 = -232						; size = 16
$T2 = -232						; size = 16
$T3 = -216						; size = 16
$T4 = -216						; size = 16
_closePt$ = -200					; size = 8
_openPt$ = -192						; size = 8
_viewDataMax$ = -184					; size = 8
_realWidth$ = -176					; size = 8
_viewDataMin$ = -168					; size = 8
$T5 = -160						; size = 8
$T6 = -160						; size = 8
$T7 = -152						; size = 8
$T8 = -152						; size = 8
_nCol$ = -144						; size = 4
_area$ = -140						; size = 6
_point$GSCopy$1$ = -132					; size = 4
_pClosePacket$1$ = -128					; size = 4
_nIndex$1$ = -124					; size = 4
$T9 = -124						; size = 4
_this$GSCopy$1$ = -120					; size = 4
_closePos$1$ = -116					; size = 4
_dataEnd$1$ = -116					; size = 4
_dataIndex$ = -112					; size = 4
_openPos$1$ = -108					; size = 4
_pageDataCount$1$ = -108				; size = 4
$T10 = -104						; size = 68
_graphRegion$ = -36					; size = 16
_drawingRegion$ = -20					; size = 16
$T11 = -20						; size = 16
$T12 = -20						; size = 16
$T13 = -12						; size = 8
$T14 = -12						; size = 8
__$ArrayPad$ = -4					; size = 4
_point$ = 8						; size = 4
_pSelectSubGraphData$ = 12				; size = 4
?PointInThreeLineBreakGraph@CSelectSubGraph@@AAEHABVCPoint@@PBVCSelectSubGraphData@@@Z PROC ; CSelectSubGraph::PointInThreeLineBreakGraph, COMDAT
; _this$ = ecx

; 1047 : {

  00000	55		 push	 ebp
  00001	8b ec		 mov	 ebp, esp
  00003	81 ec e8 00 00
	00		 sub	 esp, 232		; 000000e8H
  00009	a1 00 00 00 00	 mov	 eax, DWORD PTR ___security_cookie
  0000e	33 c5		 xor	 eax, ebp
  00010	89 45 fc	 mov	 DWORD PTR __$ArrayPad$[ebp], eax
  00013	53		 push	 ebx
  00014	8b 5d 0c	 mov	 ebx, DWORD PTR _pSelectSubGraphData$[ebp]
  00017	56		 push	 esi
  00018	8b 75 08	 mov	 esi, DWORD PTR _point$[ebp]
  0001b	89 4d 88	 mov	 DWORD PTR _this$GSCopy$1$[ebp], ecx

; 1048 : 	const CList< CPacket *, CPacket *> &packetList = pSelectSubGraphData->GetSubGraphPacketList()->GetSubGraphPacketList();

  0001e	8b cb		 mov	 ecx, ebx
  00020	57		 push	 edi
  00021	89 b5 7c ff ff
	ff		 mov	 DWORD PTR _point$GSCopy$1$[ebp], esi
  00027	e8 00 00 00 00	 call	 ?GetSubGraphPacketList@CSelectSubGraphData@@QBEPAVCSubGraphPacketList@@XZ ; CSelectSubGraphData::GetSubGraphPacketList
  0002c	8b c8		 mov	 ecx, eax
  0002e	e8 00 00 00 00	 call	 ?GetSubGraphPacketList@CSubGraphPacketList@@QBEABV?$CList@PAVCPacket@@PAV1@@@XZ ; CSubGraphPacketList::GetSubGraphPacketList

; 1049 : 	if(packetList.GetCount() <= 0)

  00033	83 78 0c 00	 cmp	 DWORD PTR [eax+12], 0
  00037	0f 8e 4e 04 00
	00		 jle	 $LN5@PointInThr

; 1050 : 		return -1;
; 1051 : 
; 1052 : 	POSITION pos = packetList.GetHeadPosition();

  0003d	8b 40 04	 mov	 eax, DWORD PTR [eax+4]

; 1053 : 	if(pos == NULL)	return -1;

  00040	85 c0		 test	 eax, eax
  00042	0f 84 43 04 00
	00		 je	 $LN5@PointInThr

; 1054 : 	
; 1055 : 	CPacket* pOpenPacket = packetList.GetNext(pos);

  00048	8b 78 08	 mov	 edi, DWORD PTR [eax+8]

; 1057 : 
; 1058 : 	if(pOpenPacket == NULL || pClosePacket == NULL)

  0004b	85 ff		 test	 edi, edi
  0004d	0f 84 38 04 00
	00		 je	 $LN5@PointInThr
; File C:\Program Files (x86)\Microsoft Visual Studio\2019\Community\VC\Tools\MSVC\14.29.30133\atlmfc\include\afxtempl.h

; 819  : 		rPosition = (POSITION) pNode->pNext;

  00053	8b 00		 mov	 eax, DWORD PTR [eax]
; File D:\git\src\IBK\IBK_DRFN\ProjSrc\SrcChartEx\ChartOCX\GraphDraw\SelectSubGraph.cpp

; 1056 : 	CPacket* pClosePacket = packetList.GetNext(pos);

  00055	8b 40 08	 mov	 eax, DWORD PTR [eax+8]
  00058	89 45 80	 mov	 DWORD PTR _pClosePacket$1$[ebp], eax

; 1057 : 
; 1058 : 	if(pOpenPacket == NULL || pClosePacket == NULL)

  0005b	85 c0		 test	 eax, eax
  0005d	0f 84 28 04 00
	00		 je	 $LN5@PointInThr

; 1062 : 	int dataEnd = pOpenPacket->GetCount() -1;

  00063	8b 07		 mov	 eax, DWORD PTR [edi]
  00065	8b cf		 mov	 ecx, edi
  00067	ff 50 14	 call	 DWORD PTR [eax+20]
  0006a	48		 dec	 eax
; File D:\git\src\IBK\IBK_DRFN\ProjSrc\SrcChartEx\ChartOCX\Include_Chart\BlockBaseData.h

; 43   : 	CGraphStyle(const int style) { m_nStyle = style; };

  0006b	c7 45 84 ff ff
	ff ff		 mov	 DWORD PTR $T9[ebp], -1
; File D:\git\src\IBK\IBK_DRFN\ProjSrc\SrcChartEx\ChartOCX\GraphDraw\SelectSubGraph.cpp

; 1062 : 	int dataEnd = pOpenPacket->GetCount() -1;

  00072	89 45 8c	 mov	 DWORD PTR _dataEnd$1$[ebp], eax

; 1063 : 	int pageDataCount = dataEnd - dataStart + 1;
; 1064 : 
; 1065 : 	CRect graphRegion = pSelectSubGraphData->GetGraphRegions().GetDrawingRegion();

  00075	8b cb		 mov	 ecx, ebx
  00077	40		 inc	 eax
  00078	89 45 94	 mov	 DWORD PTR _pageDataCount$1$[ebp], eax
  0007b	8d 45 84	 lea	 eax, DWORD PTR $T9[ebp]
  0007e	50		 push	 eax
  0007f	6a ff		 push	 -1
  00081	8d 45 dc	 lea	 eax, DWORD PTR _graphRegion$[ebp]
  00084	50		 push	 eax
  00085	8d 45 98	 lea	 eax, DWORD PTR $T10[ebp]
  00088	50		 push	 eax
  00089	e8 00 00 00 00	 call	 ?GetGraphRegions@CSelectSubGraphData@@QBE?AVCGraphRegions@@XZ ; CSelectSubGraphData::GetGraphRegions
  0008e	8b c8		 mov	 ecx, eax
  00090	e8 00 00 00 00	 call	 ?GetDrawingRegion@CGraphRegions@@QBE?AVCRect@@W4GRAPHTYPE@CGraphBaseData@@ABVCGraphStyle@@@Z ; CGraphRegions::GetDrawingRegion

; 1066 : 	int dataIndex = 0;
; 1067 : 	int nRealCount = pOpenPacket->GetCount();

  00095	8b 07		 mov	 eax, DWORD PTR [edi]
  00097	8b cf		 mov	 ecx, edi
  00099	ff 50 14	 call	 DWORD PTR [eax+20]

; 1068 : 	dataIndex = GetDataIndex(graphRegion, point, dataStart, dataEnd, pageDataCount); 

  0009c	0f 10 45 dc	 movups	 xmm0, XMMWORD PTR _graphRegion$[ebp]
  000a0	8b 0e		 mov	 ecx, DWORD PTR [esi]
  000a2	0f 11 45 ec	 movups	 XMMWORD PTR _drawingRegion$[ebp], xmm0
  000a6	66 0f 73 d8 08	 psrldq	 xmm0, 8
  000ab	66 0f 7e c0	 movd	 eax, xmm0
  000af	3b c1		 cmp	 eax, ecx

; 1288 : 	if(drawingRegion.right <= point.x)

  000b1	0f 8e d4 03 00
	00		 jle	 $LN5@PointInThr

; 1289 : 		return -1;
; 1290 : 	int index = CDataConversion::AbsoluteToRelative_X(drawingRegion, point.x, pageDataCount);

  000b7	ff 75 94	 push	 DWORD PTR _pageDataCount$1$[ebp]
  000ba	8d 45 ec	 lea	 eax, DWORD PTR _drawingRegion$[ebp]
  000bd	51		 push	 ecx
  000be	50		 push	 eax
  000bf	e8 00 00 00 00	 call	 ?AbsoluteToRelative_X@CDataConversion@@SAHABVCRect@@HH@Z ; CDataConversion::AbsoluteToRelative_X

; 1291 : 	if(index >= 0)
; 1292 : 		index = dataStart + index;
; 1293 : 	if(index > dataEnd)

  000c4	8b 75 8c	 mov	 esi, DWORD PTR _dataEnd$1$[ebp]
  000c7	83 c4 0c	 add	 esp, 12			; 0000000cH
  000ca	3b c6		 cmp	 eax, esi
  000cc	0f 8f b9 03 00
	00		 jg	 $LN5@PointInThr

; 1068 : 	dataIndex = GetDataIndex(graphRegion, point, dataStart, dataEnd, pageDataCount); 

  000d2	89 45 90	 mov	 DWORD PTR _dataIndex$[ebp], eax
  000d5	83 f8 ff	 cmp	 eax, -1

; 1069 : 
; 1070 : 	if(dataIndex == -1)

  000d8	0f 84 ad 03 00
	00		 je	 $LN5@PointInThr

; 1071 : 		return -1;
; 1072 : 	 
; 1073 : 	POSITION dataPos = pOpenPacket->GetnumericDataList()->FindIndex(dataIndex);

  000de	50		 push	 eax
  000df	8b cf		 mov	 ecx, edi
  000e1	ff 15 00 00 00
	00		 call	 DWORD PTR __imp_?GetnumericDataList@CPacket@@QAEPAV?$CList@NN@@XZ
  000e7	8b c8		 mov	 ecx, eax
  000e9	e8 00 00 00 00	 call	 ?FindIndex@?$CList@NN@@QBEPAU__POSITION@@H@Z ; CList<double,double>::FindIndex

; 1074 : 	if(dataPos == NULL) 

  000ee	85 c0		 test	 eax, eax
  000f0	0f 84 95 03 00
	00		 je	 $LN5@PointInThr

; 1075 : 		return -1;
; 1076 : 
; 1077 : 	double realWidth = CDraw::CalRealWidth(graphRegion, dataStart, dataEnd);

  000f6	56		 push	 esi
  000f7	8b 75 88	 mov	 esi, DWORD PTR _this$GSCopy$1$[ebp]
  000fa	8d 45 dc	 lea	 eax, DWORD PTR _graphRegion$[ebp]
  000fd	6a 00		 push	 0
  000ff	50		 push	 eax
  00100	8b ce		 mov	 ecx, esi
  00102	e8 00 00 00 00	 call	 ?CalRealWidth@CDraw@@IAENABVCRect@@HH@Z ; CDraw::CalRealWidth

; 1078 : 	double dataViewMin = CDraw::CalLogValue(pSelectSubGraphData->GetVertScaleLogType(), pSelectSubGraphData->GetDisplayDataVertMinMax().GetDisplayMin());

  00107	8d 45 ec	 lea	 eax, DWORD PTR $T12[ebp]
  0010a	dd d8		 fstp	 ST(0)
  0010c	50		 push	 eax
  0010d	8b cb		 mov	 ecx, ebx
  0010f	e8 00 00 00 00	 call	 ?GetDisplayDataVertMinMax@CSelectSubGraphData@@QBE?AVCDisplayDataMinMax@@XZ ; CSelectSubGraphData::GetDisplayDataVertMinMax
  00114	8b c8		 mov	 ecx, eax
  00116	ff 15 00 00 00
	00		 call	 DWORD PTR __imp_?GetDisplayMin@CDisplayDataMinMax@@QBENXZ
  0011c	83 ec 08	 sub	 esp, 8
  0011f	8b cb		 mov	 ecx, ebx
  00121	dd 1c 24	 fstp	 QWORD PTR [esp]
  00124	e8 00 00 00 00	 call	 ?GetVertScaleLogType@CSelectSubGraphData@@QBE_NXZ ; CSelectSubGraphData::GetVertScaleLogType
  00129	0f b6 c0	 movzx	 eax, al
  0012c	8b ce		 mov	 ecx, esi
  0012e	50		 push	 eax
  0012f	e8 00 00 00 00	 call	 ?CalLogValue@CDraw@@IAEN_NN@Z ; CDraw::CalLogValue

; 1079 : 	double dataViewMax = CDraw::CalLogValue(pSelectSubGraphData->GetVertScaleLogType(), pSelectSubGraphData->GetDisplayDataVertMinMax().GetDisplayMax());

  00134	8d 45 ec	 lea	 eax, DWORD PTR $T11[ebp]
  00137	dd d8		 fstp	 ST(0)
  00139	50		 push	 eax
  0013a	8b cb		 mov	 ecx, ebx
  0013c	e8 00 00 00 00	 call	 ?GetDisplayDataVertMinMax@CSelectSubGraphData@@QBE?AVCDisplayDataMinMax@@XZ ; CSelectSubGraphData::GetDisplayDataVertMinMax
  00141	8b c8		 mov	 ecx, eax
  00143	ff 15 00 00 00
	00		 call	 DWORD PTR __imp_?GetDisplayMax@CDisplayDataMinMax@@QBENXZ
  00149	83 ec 08	 sub	 esp, 8
  0014c	8b cb		 mov	 ecx, ebx
  0014e	dd 1c 24	 fstp	 QWORD PTR [esp]
  00151	e8 00 00 00 00	 call	 ?GetVertScaleLogType@CSelectSubGraphData@@QBE_NXZ ; CSelectSubGraphData::GetVertScaleLogType
  00156	0f b6 c0	 movzx	 eax, al
  00159	8b ce		 mov	 ecx, esi
  0015b	50		 push	 eax
  0015c	e8 00 00 00 00	 call	 ?CalLogValue@CDraw@@IAEN_NN@Z ; CDraw::CalLogValue

; 1321 : 	if(dataIndex < dataStart)

  00161	8b 45 90	 mov	 eax, DWORD PTR _dataIndex$[ebp]
  00164	33 c9		 xor	 ecx, ecx
  00166	85 c0		 test	 eax, eax

; 1080 : 	int nIndex = GetIndex(dataIndex, dataStart);
; 1081 : 
; 1082 : 	// Graph Drawing     - ojtaso (20080124)
; 1083 : 	int nCol = 0;

  00168	89 8d 70 ff ff
	ff		 mov	 DWORD PTR _nCol$[ebp], ecx
  0016e	dd d8		 fstp	 ST(0)

; 1321 : 	if(dataIndex < dataStart)

  00170	0f 48 c1	 cmovs	 eax, ecx

; 1085 : 	pSelectSubGraphData->GetXScaleManager()->GetDTInAREAfRQnPt(pSelectSubGraphData->GetRQ(), point.x, nCol, &dataIndex, &area);

  00173	8b cb		 mov	 ecx, ebx

; 1321 : 	if(dataIndex < dataStart)

  00175	89 45 84	 mov	 DWORD PTR _nIndex$1$[ebp], eax
; File D:\git\src\IBK\IBK_DRFN\ProjSrc\SrcChartEx\ChartOCX\Include_Chart\Dll_Load\XScaleManager.h

; 67   : 			left = center = right = 0;

  00178	33 c0		 xor	 eax, eax
  0017a	89 85 76 ff ff
	ff		 mov	 DWORD PTR _area$[ebp+2], eax
  00180	66 89 85 74 ff
	ff ff		 mov	 WORD PTR _area$[ebp], ax
; File D:\git\src\IBK\IBK_DRFN\ProjSrc\SrcChartEx\ChartOCX\GraphDraw\SelectSubGraph.cpp

; 1085 : 	pSelectSubGraphData->GetXScaleManager()->GetDTInAREAfRQnPt(pSelectSubGraphData->GetRQ(), point.x, nCol, &dataIndex, &area);

  00187	e8 00 00 00 00	 call	 ?GetXScaleManager@CSelectSubGraphData@@QBEPAVCXScaleManager@@XZ ; CSelectSubGraphData::GetXScaleManager
  0018c	6a 00		 push	 0
  0018e	8b f0		 mov	 esi, eax
  00190	8d 85 74 ff ff
	ff		 lea	 eax, DWORD PTR _area$[ebp]
  00196	50		 push	 eax
  00197	8d 45 90	 lea	 eax, DWORD PTR _dataIndex$[ebp]
  0019a	50		 push	 eax
  0019b	8d 85 70 ff ff
	ff		 lea	 eax, DWORD PTR _nCol$[ebp]
  001a1	50		 push	 eax
  001a2	8b 85 7c ff ff
	ff		 mov	 eax, DWORD PTR _point$GSCopy$1$[ebp]
  001a8	ff 30		 push	 DWORD PTR [eax]
  001aa	51		 push	 ecx
  001ab	54		 push	 esp
  001ac	8b cb		 mov	 ecx, ebx
  001ae	e8 00 00 00 00	 call	 ?GetRQ@CSelectSubGraphData@@QBE?AV?$CStringT@DV?$StrTraitMFC_DLL@DV?$ChTraitsCRT@D@ATL@@@@@ATL@@XZ ; CSelectSubGraphData::GetRQ
  001b3	8b 06		 mov	 eax, DWORD PTR [esi]
  001b5	8b ce		 mov	 ecx, esi
  001b7	ff 90 34 01 00
	00		 call	 DWORD PTR [eax+308]
; File C:\Program Files (x86)\Microsoft Visual Studio\2019\Community\VC\Tools\MSVC\14.29.30133\atlmfc\include\atltypes.h

; 576  : 	return right - left;

  001bd	8b 45 e4	 mov	 eax, DWORD PTR _graphRegion$[ebp+8]
  001c0	2b 45 dc	 sub	 eax, DWORD PTR _graphRegion$[ebp]
  001c3	66 0f 6e 45 94	 movd	 xmm0, DWORD PTR _pageDataCount$1$[ebp]
; File D:\git\src\IBK\IBK_DRFN\ProjSrc\SrcChartEx\ChartOCX\GraphDraw\SelectSubGraph.cpp

; 1090 : 	realWidth = (double)graphRegion.Width()/(double)pageDataCount;

  001c8	f3 0f e6 c0	 cvtdq2pd xmm0, xmm0

; 1091 : 	double viewDataMin = 0.0, viewDataMax = 0;
; 1092 : 	pOpenPacket->GetMinMax(0, pOpenPacket->GetCount(), viewDataMin, viewDataMax);

  001cc	6a 00		 push	 0
  001ce	66 0f 6e c8	 movd	 xmm1, eax
  001d2	8d 85 48 ff ff
	ff		 lea	 eax, DWORD PTR _viewDataMax$[ebp]
  001d8	f3 0f e6 c9	 cvtdq2pd xmm1, xmm1
  001dc	50		 push	 eax
  001dd	8d 85 58 ff ff
	ff		 lea	 eax, DWORD PTR _viewDataMin$[ebp]
  001e3	f2 0f 5e c8	 divsd	 xmm1, xmm0
  001e7	0f 57 c0	 xorps	 xmm0, xmm0
  001ea	f2 0f 11 8d 50
	ff ff ff	 movsd	 QWORD PTR _realWidth$[ebp], xmm1
  001f2	f2 0f 11 85 58
	ff ff ff	 movsd	 QWORD PTR _viewDataMin$[ebp], xmm0
  001fa	f2 0f 11 85 48
	ff ff ff	 movsd	 QWORD PTR _viewDataMax$[ebp], xmm0
  00202	50		 push	 eax
  00203	8b 07		 mov	 eax, DWORD PTR [edi]
  00205	8b cf		 mov	 ecx, edi
  00207	ff 50 14	 call	 DWORD PTR [eax+20]
  0020a	50		 push	 eax
  0020b	6a 00		 push	 0
  0020d	8b cf		 mov	 ecx, edi
  0020f	ff 15 00 00 00
	00		 call	 DWORD PTR __imp_?GetMinMax@CPacket@@QAEHHHAAN0H@Z

; 1093 : 	viewDataMin = 0.0;
; 1094 : 
; 1095 : 	POSITION openPos = pOpenPacket->GetnumericDataList()->FindIndex(dataIndex);

  00215	ff 75 90	 push	 DWORD PTR _dataIndex$[ebp]
  00218	8b 35 00 00 00
	00		 mov	 esi, DWORD PTR __imp_?GetnumericDataList@CPacket@@QAEPAV?$CList@NN@@XZ
  0021e	0f 57 c0	 xorps	 xmm0, xmm0
  00221	8b cf		 mov	 ecx, edi
  00223	f2 0f 11 85 58
	ff ff ff	 movsd	 QWORD PTR _viewDataMin$[ebp], xmm0
  0022b	ff d6		 call	 esi
  0022d	8b c8		 mov	 ecx, eax
  0022f	e8 00 00 00 00	 call	 ?FindIndex@?$CList@NN@@QBEPAU__POSITION@@H@Z ; CList<double,double>::FindIndex

; 1096 : 	POSITION closePos = pClosePacket->GetnumericDataList()->FindIndex(dataIndex);

  00234	ff 75 90	 push	 DWORD PTR _dataIndex$[ebp]
  00237	8b 4d 80	 mov	 ecx, DWORD PTR _pClosePacket$1$[ebp]
  0023a	89 45 94	 mov	 DWORD PTR _openPos$1$[ebp], eax
  0023d	ff d6		 call	 esi
  0023f	8b c8		 mov	 ecx, eax
  00241	e8 00 00 00 00	 call	 ?FindIndex@?$CList@NN@@QBEPAU__POSITION@@H@Z ; CList<double,double>::FindIndex

; 1097 : 	
; 1098 : 	if(openPos == NULL || closePos == NULL) 

  00246	83 7d 94 00	 cmp	 DWORD PTR _openPos$1$[ebp], 0
  0024a	89 45 8c	 mov	 DWORD PTR _closePos$1$[ebp], eax
  0024d	0f 84 38 02 00
	00		 je	 $LN5@PointInThr
  00253	85 c0		 test	 eax, eax
  00255	0f 84 30 02 00
	00		 je	 $LN5@PointInThr

; 1099 : 		return -1;
; 1100 : 
; 1101 : 	double dOpen = CDraw::CalLogValue(pSelectSubGraphData->GetVertScaleLogType(), pOpenPacket->GetnumericDataList()->GetAt(openPos));

  0025b	8b cf		 mov	 ecx, edi
  0025d	ff d6		 call	 esi
  0025f	8b 45 94	 mov	 eax, DWORD PTR _openPos$1$[ebp]
  00262	83 ec 08	 sub	 esp, 8
  00265	8b cb		 mov	 ecx, ebx
  00267	f2 0f 10 40 08	 movsd	 xmm0, QWORD PTR [eax+8]
  0026c	f2 0f 11 04 24	 movsd	 QWORD PTR [esp], xmm0
  00271	e8 00 00 00 00	 call	 ?GetVertScaleLogType@CSelectSubGraphData@@QBE_NXZ ; CSelectSubGraphData::GetVertScaleLogType
  00276	8b 4d 88	 mov	 ecx, DWORD PTR _this$GSCopy$1$[ebp]
  00279	0f b6 c0	 movzx	 eax, al
  0027c	50		 push	 eax
  0027d	e8 00 00 00 00	 call	 ?CalLogValue@CDraw@@IAEN_NN@Z ; CDraw::CalLogValue

; 1102 : 	double dClose = CDraw::CalLogValue(pSelectSubGraphData->GetVertScaleLogType(), pClosePacket->GetnumericDataList()->GetAt(closePos));

  00282	8b 4d 80	 mov	 ecx, DWORD PTR _pClosePacket$1$[ebp]
  00285	dd d8		 fstp	 ST(0)
  00287	ff d6		 call	 esi
  00289	8b 45 8c	 mov	 eax, DWORD PTR _closePos$1$[ebp]
  0028c	83 ec 08	 sub	 esp, 8
  0028f	8b cb		 mov	 ecx, ebx
  00291	f2 0f 10 40 08	 movsd	 xmm0, QWORD PTR [eax+8]
  00296	f2 0f 11 04 24	 movsd	 QWORD PTR [esp], xmm0
  0029b	e8 00 00 00 00	 call	 ?GetVertScaleLogType@CSelectSubGraphData@@QBE_NXZ ; CSelectSubGraphData::GetVertScaleLogType
  002a0	8b 4d 88	 mov	 ecx, DWORD PTR _this$GSCopy$1$[ebp]
  002a3	0f b6 c0	 movzx	 eax, al
  002a6	50		 push	 eax
  002a7	e8 00 00 00 00	 call	 ?CalLogValue@CDraw@@IAEN_NN@Z ; CDraw::CalLogValue

; 1103 : 
; 1104 : 	CPoint openPt = CDataConversion::GetVerticalPoint(graphRegion, nIndex, realWidth, CDraw::CalLogValue(pSelectSubGraphData->GetVertScaleLogType(), pSelectSubGraphData->GetDisplayDataVertMinMax().GetDisplayMin()), CDraw::CalLogValue(pSelectSubGraphData->GetVertScaleLogType(), pSelectSubGraphData->GetDisplayDataVertMinMax().GetDisplayMax()), CDraw::CalLogValue(pSelectSubGraphData->GetVertScaleLogType(), pOpenPacket->GetnumericDataList()->GetNext(openPos)), false);

  002ac	8b cf		 mov	 ecx, edi
  002ae	dd d8		 fstp	 ST(0)
  002b0	ff d6		 call	 esi
  002b2	8b 45 94	 mov	 eax, DWORD PTR _openPos$1$[ebp]
  002b5	83 ec 08	 sub	 esp, 8
  002b8	8b cb		 mov	 ecx, ebx
  002ba	f2 0f 10 40 08	 movsd	 xmm0, QWORD PTR [eax+8]
  002bf	f2 0f 11 04 24	 movsd	 QWORD PTR [esp], xmm0
  002c4	e8 00 00 00 00	 call	 ?GetVertScaleLogType@CSelectSubGraphData@@QBE_NXZ ; CSelectSubGraphData::GetVertScaleLogType
  002c9	8b 7d 88	 mov	 edi, DWORD PTR _this$GSCopy$1$[ebp]
  002cc	8b cf		 mov	 ecx, edi
  002ce	0f b6 c0	 movzx	 eax, al
  002d1	50		 push	 eax
  002d2	e8 00 00 00 00	 call	 ?CalLogValue@CDraw@@IAEN_NN@Z ; CDraw::CalLogValue
  002d7	8d 85 28 ff ff
	ff		 lea	 eax, DWORD PTR $T4[ebp]
  002dd	8b cb		 mov	 ecx, ebx
  002df	50		 push	 eax
  002e0	dd 9d 68 ff ff
	ff		 fstp	 QWORD PTR $T8[ebp]
  002e6	e8 00 00 00 00	 call	 ?GetDisplayDataVertMinMax@CSelectSubGraphData@@QBE?AVCDisplayDataMinMax@@XZ ; CSelectSubGraphData::GetDisplayDataVertMinMax
  002eb	8b c8		 mov	 ecx, eax
  002ed	ff 15 00 00 00
	00		 call	 DWORD PTR __imp_?GetDisplayMax@CDisplayDataMinMax@@QBENXZ
  002f3	83 ec 08	 sub	 esp, 8
  002f6	8b cb		 mov	 ecx, ebx
  002f8	dd 1c 24	 fstp	 QWORD PTR [esp]
  002fb	e8 00 00 00 00	 call	 ?GetVertScaleLogType@CSelectSubGraphData@@QBE_NXZ ; CSelectSubGraphData::GetVertScaleLogType
  00300	0f b6 c0	 movzx	 eax, al
  00303	8b cf		 mov	 ecx, edi
  00305	50		 push	 eax
  00306	e8 00 00 00 00	 call	 ?CalLogValue@CDraw@@IAEN_NN@Z ; CDraw::CalLogValue
  0030b	8d 85 18 ff ff
	ff		 lea	 eax, DWORD PTR $T2[ebp]
  00311	8b cb		 mov	 ecx, ebx
  00313	50		 push	 eax
  00314	dd 9d 60 ff ff
	ff		 fstp	 QWORD PTR $T6[ebp]
  0031a	e8 00 00 00 00	 call	 ?GetDisplayDataVertMinMax@CSelectSubGraphData@@QBE?AVCDisplayDataMinMax@@XZ ; CSelectSubGraphData::GetDisplayDataVertMinMax
  0031f	8b c8		 mov	 ecx, eax
  00321	ff 15 00 00 00
	00		 call	 DWORD PTR __imp_?GetDisplayMin@CDisplayDataMinMax@@QBENXZ
  00327	83 ec 08	 sub	 esp, 8
  0032a	8b cb		 mov	 ecx, ebx
  0032c	dd 1c 24	 fstp	 QWORD PTR [esp]
  0032f	e8 00 00 00 00	 call	 ?GetVertScaleLogType@CSelectSubGraphData@@QBE_NXZ ; CSelectSubGraphData::GetVertScaleLogType
  00334	0f b6 c0	 movzx	 eax, al
  00337	8b cf		 mov	 ecx, edi
  00339	50		 push	 eax
  0033a	e8 00 00 00 00	 call	 ?CalLogValue@CDraw@@IAEN_NN@Z ; CDraw::CalLogValue
  0033f	6a 00		 push	 0
  00341	8d 85 68 ff ff
	ff		 lea	 eax, DWORD PTR $T8[ebp]
  00347	50		 push	 eax
  00348	8d 85 60 ff ff
	ff		 lea	 eax, DWORD PTR $T6[ebp]
  0034e	50		 push	 eax
  0034f	8d 45 f4	 lea	 eax, DWORD PTR $T14[ebp]
  00352	50		 push	 eax
  00353	8d 85 50 ff ff
	ff		 lea	 eax, DWORD PTR _realWidth$[ebp]
  00359	50		 push	 eax
  0035a	ff 75 84	 push	 DWORD PTR _nIndex$1$[ebp]
  0035d	dd 5d f4	 fstp	 QWORD PTR $T14[ebp]
  00360	8d 45 dc	 lea	 eax, DWORD PTR _graphRegion$[ebp]
  00363	50		 push	 eax
  00364	8d 85 40 ff ff
	ff		 lea	 eax, DWORD PTR _openPt$[ebp]
  0036a	50		 push	 eax
  0036b	e8 00 00 00 00	 call	 ?GetVerticalPoint@CDataConversion@@SA?AVCPoint@@ABVCRect@@HABN111_N@Z ; CDataConversion::GetVerticalPoint

; 1105 : 	CPoint closePt = CDataConversion::GetVerticalPoint(graphRegion, nIndex+1, realWidth, CDraw::CalLogValue(pSelectSubGraphData->GetVertScaleLogType(), pSelectSubGraphData->GetDisplayDataVertMinMax().GetDisplayMin()), CDraw::CalLogValue(pSelectSubGraphData->GetVertScaleLogType(), pSelectSubGraphData->GetDisplayDataVertMinMax().GetDisplayMax()), CDraw::CalLogValue(pSelectSubGraphData->GetVertScaleLogType(), pClosePacket->GetnumericDataList()->GetNext(closePos)), false);

  00370	8b 4d 80	 mov	 ecx, DWORD PTR _pClosePacket$1$[ebp]
  00373	83 c4 20	 add	 esp, 32			; 00000020H
  00376	ff d6		 call	 esi
  00378	8b 45 8c	 mov	 eax, DWORD PTR _closePos$1$[ebp]
  0037b	83 ec 08	 sub	 esp, 8
  0037e	8b cb		 mov	 ecx, ebx
  00380	f2 0f 10 40 08	 movsd	 xmm0, QWORD PTR [eax+8]
  00385	f2 0f 11 04 24	 movsd	 QWORD PTR [esp], xmm0
  0038a	e8 00 00 00 00	 call	 ?GetVertScaleLogType@CSelectSubGraphData@@QBE_NXZ ; CSelectSubGraphData::GetVertScaleLogType
  0038f	0f b6 c0	 movzx	 eax, al
  00392	8b cf		 mov	 ecx, edi
  00394	50		 push	 eax
  00395	e8 00 00 00 00	 call	 ?CalLogValue@CDraw@@IAEN_NN@Z ; CDraw::CalLogValue
  0039a	8d 85 18 ff ff
	ff		 lea	 eax, DWORD PTR $T1[ebp]
  003a0	8b cb		 mov	 ecx, ebx
  003a2	50		 push	 eax
  003a3	dd 5d f4	 fstp	 QWORD PTR $T13[ebp]
  003a6	e8 00 00 00 00	 call	 ?GetDisplayDataVertMinMax@CSelectSubGraphData@@QBE?AVCDisplayDataMinMax@@XZ ; CSelectSubGraphData::GetDisplayDataVertMinMax
  003ab	8b c8		 mov	 ecx, eax
  003ad	ff 15 00 00 00
	00		 call	 DWORD PTR __imp_?GetDisplayMax@CDisplayDataMinMax@@QBENXZ
  003b3	83 ec 08	 sub	 esp, 8
  003b6	8b cb		 mov	 ecx, ebx
  003b8	dd 1c 24	 fstp	 QWORD PTR [esp]
  003bb	e8 00 00 00 00	 call	 ?GetVertScaleLogType@CSelectSubGraphData@@QBE_NXZ ; CSelectSubGraphData::GetVertScaleLogType
  003c0	0f b6 c0	 movzx	 eax, al
  003c3	8b cf		 mov	 ecx, edi
  003c5	50		 push	 eax
  003c6	e8 00 00 00 00	 call	 ?CalLogValue@CDraw@@IAEN_NN@Z ; CDraw::CalLogValue
  003cb	8d 85 28 ff ff
	ff		 lea	 eax, DWORD PTR $T3[ebp]
  003d1	8b cb		 mov	 ecx, ebx
  003d3	50		 push	 eax
  003d4	dd 9d 60 ff ff
	ff		 fstp	 QWORD PTR $T5[ebp]
  003da	e8 00 00 00 00	 call	 ?GetDisplayDataVertMinMax@CSelectSubGraphData@@QBE?AVCDisplayDataMinMax@@XZ ; CSelectSubGraphData::GetDisplayDataVertMinMax
  003df	8b c8		 mov	 ecx, eax
  003e1	ff 15 00 00 00
	00		 call	 DWORD PTR __imp_?GetDisplayMin@CDisplayDataMinMax@@QBENXZ
  003e7	83 ec 08	 sub	 esp, 8
  003ea	8b cb		 mov	 ecx, ebx
  003ec	dd 1c 24	 fstp	 QWORD PTR [esp]
  003ef	e8 00 00 00 00	 call	 ?GetVertScaleLogType@CSelectSubGraphData@@QBE_NXZ ; CSelectSubGraphData::GetVertScaleLogType
  003f4	0f b6 c0	 movzx	 eax, al
  003f7	8b cf		 mov	 ecx, edi
  003f9	50		 push	 eax
  003fa	e8 00 00 00 00	 call	 ?CalLogValue@CDraw@@IAEN_NN@Z ; CDraw::CalLogValue
  003ff	6a 00		 push	 0
  00401	8d 45 f4	 lea	 eax, DWORD PTR $T13[ebp]
  00404	50		 push	 eax
  00405	8d 85 60 ff ff
	ff		 lea	 eax, DWORD PTR $T5[ebp]
  0040b	50		 push	 eax
  0040c	8d 85 68 ff ff
	ff		 lea	 eax, DWORD PTR $T7[ebp]
  00412	50		 push	 eax
  00413	8d 85 50 ff ff
	ff		 lea	 eax, DWORD PTR _realWidth$[ebp]
  00419	50		 push	 eax
  0041a	8b 45 84	 mov	 eax, DWORD PTR _nIndex$1$[ebp]
  0041d	40		 inc	 eax
  0041e	50		 push	 eax
  0041f	8d 45 dc	 lea	 eax, DWORD PTR _graphRegion$[ebp]
  00422	50		 push	 eax
  00423	8d 85 38 ff ff
	ff		 lea	 eax, DWORD PTR _closePt$[ebp]
  00429	50		 push	 eax
  0042a	dd 9d 68 ff ff
	ff		 fstp	 QWORD PTR $T7[ebp]
  00430	e8 00 00 00 00	 call	 ?GetVerticalPoint@CDataConversion@@SA?AVCPoint@@ABVCRect@@HABN111_N@Z ; CDataConversion::GetVerticalPoint

; 1106 : 
; 1107 : 	//invert scale .
; 1108 : 	CPoint mousePoint = point;

  00435	8b 85 7c ff ff
	ff		 mov	 eax, DWORD PTR _point$GSCopy$1$[ebp]
  0043b	83 c4 20	 add	 esp, 32			; 00000020H

; 1109 : 	if(pSelectSubGraphData->GetVertScaleInvertType())

  0043e	8b cb		 mov	 ecx, ebx
  00440	8b 38		 mov	 edi, DWORD PTR [eax]
  00442	8b 70 04	 mov	 esi, DWORD PTR [eax+4]
  00445	e8 00 00 00 00	 call	 ?GetVertScaleInvertType@CSelectSubGraphData@@QBE_NXZ ; CSelectSubGraphData::GetVertScaleInvertType
  0044a	84 c0		 test	 al, al
  0044c	74 17		 je	 SHORT $LN10@PointInThr

; 1110 : 		mousePoint.y = CDataConversion::InvertGraphDataPt(graphRegion, point.y);

  0044e	8b 85 7c ff ff
	ff		 mov	 eax, DWORD PTR _point$GSCopy$1$[ebp]
  00454	ff 70 04	 push	 DWORD PTR [eax+4]
  00457	8d 45 dc	 lea	 eax, DWORD PTR _graphRegion$[ebp]
  0045a	50		 push	 eax
  0045b	e8 00 00 00 00	 call	 ?InvertGraphDataPt@CDataConversion@@SAHABVCRect@@H@Z ; CDataConversion::InvertGraphDataPt
  00460	83 c4 08	 add	 esp, 8
  00463	8b f0		 mov	 esi, eax
$LN10@PointInThr:

; 1111 : 
; 1112 : 	// Graph Drawing     - ojtaso (20080124)
; 1113 : 	openPt.x = area.left;
; 1114 : 	closePt.x = area.right;
; 1115 : 
; 1116 : 	if(openPt.y <= closePt.y){

  00465	8b 8d 44 ff ff
	ff		 mov	 ecx, DWORD PTR _openPt$[ebp+4]
  0046b	8b 85 3c ff ff
	ff		 mov	 eax, DWORD PTR _closePt$[ebp+4]
  00471	0f bf 9d 74 ff
	ff ff		 movsx	 ebx, WORD PTR _area$[ebp]
  00478	0f bf 95 78 ff
	ff ff		 movsx	 edx, WORD PTR _area$[ebp+4]
  0047f	3b c8		 cmp	 ecx, eax
  00481	7f 1e		 jg	 SHORT $LN11@PointInThr

; 1117 : 		if(openPt.y <= mousePoint.y && closePt.y >= mousePoint.y && mousePoint.x >= openPt.x && mousePoint.x <= closePt.x)

  00483	3b ce		 cmp	 ecx, esi
  00485	7f 04		 jg	 SHORT $LN5@PointInThr
  00487	3b c6		 cmp	 eax, esi
  00489	7d 1e		 jge	 SHORT $LN44@PointInThr
$LN5@PointInThr:

; 1059 : 		return -1;

  0048b	83 c8 ff	 or	 eax, -1

; 1123 : 	}
; 1124 : 
; 1125 : 	return -1;
; 1126 : }

  0048e	5f		 pop	 edi
  0048f	5e		 pop	 esi
  00490	5b		 pop	 ebx
  00491	8b 4d fc	 mov	 ecx, DWORD PTR __$ArrayPad$[ebp]
  00494	33 cd		 xor	 ecx, ebp
  00496	e8 00 00 00 00	 call	 @__security_check_cookie@4
  0049b	8b e5		 mov	 esp, ebp
  0049d	5d		 pop	 ebp
  0049e	c2 08 00	 ret	 8
$LN11@PointInThr:

; 1118 : 		return dataIndex;
; 1119 : 	}
; 1120 : 	else{
; 1121 : 		if(openPt.y >= mousePoint.y && closePt.y <= mousePoint.y && mousePoint.x >= openPt.x && mousePoint.x <= closePt.x)

  004a1	3b ce		 cmp	 ecx, esi
  004a3	7c e6		 jl	 SHORT $LN5@PointInThr
  004a5	3b c6		 cmp	 eax, esi
  004a7	7f e2		 jg	 SHORT $LN5@PointInThr
$LN44@PointInThr:

; 1122 : 		return dataIndex;

  004a9	3b fb		 cmp	 edi, ebx
  004ab	7c de		 jl	 SHORT $LN5@PointInThr
  004ad	3b fa		 cmp	 edi, edx
  004af	7f da		 jg	 SHORT $LN5@PointInThr

; 1123 : 	}
; 1124 : 
; 1125 : 	return -1;
; 1126 : }

  004b1	8b 4d fc	 mov	 ecx, DWORD PTR __$ArrayPad$[ebp]
  004b4	8b 45 90	 mov	 eax, DWORD PTR _dataIndex$[ebp]
  004b7	33 cd		 xor	 ecx, ebp
  004b9	5f		 pop	 edi
  004ba	5e		 pop	 esi
  004bb	5b		 pop	 ebx
  004bc	e8 00 00 00 00	 call	 @__security_check_cookie@4
  004c1	8b e5		 mov	 esp, ebp
  004c3	5d		 pop	 ebp
  004c4	c2 08 00	 ret	 8
?PointInThreeLineBreakGraph@CSelectSubGraph@@AAEHABVCPoint@@PBVCSelectSubGraphData@@@Z ENDP ; CSelectSubGraph::PointInThreeLineBreakGraph
_TEXT	ENDS
; Function compile flags: /Ogtp
; File D:\git\src\IBK\IBK_DRFN\ProjSrc\SrcChartEx\ChartOCX\GraphDraw\SelectSubGraph.cpp
;	COMDAT ?PointInGroupBarGraph@CSelectSubGraph@@AAEHABVCPoint@@PBVCSelectSubGraphData@@PAVCIndicatorList@@@Z
_TEXT	SEGMENT
_point$ = 8						; size = 4
_pSelectSubGraphData$ = 12				; size = 4
_pIndicatorList$ = 16					; size = 4
?PointInGroupBarGraph@CSelectSubGraph@@AAEHABVCPoint@@PBVCSelectSubGraphData@@PAVCIndicatorList@@@Z PROC ; CSelectSubGraph::PointInGroupBarGraph, COMDAT
; _this$ = ecx

; 510  : 	return -1;

  00000	83 c8 ff	 or	 eax, -1

; 511  : }

  00003	c2 0c 00	 ret	 12			; 0000000cH
?PointInGroupBarGraph@CSelectSubGraph@@AAEHABVCPoint@@PBVCSelectSubGraphData@@PAVCIndicatorList@@@Z ENDP ; CSelectSubGraph::PointInGroupBarGraph
_TEXT	ENDS
; Function compile flags: /Ogtp
; File D:\git\src\IBK\IBK_DRFN\ProjSrc\SrcChartEx\ChartOCX\GraphDraw\SelectSubGraph.cpp
;	COMDAT ?PointInLeftRightBarGraph@CSelectSubGraph@@AAEHABVCPoint@@PBVCSelectSubGraphData@@PAVCIndicatorList@@@Z
_TEXT	SEGMENT
_point$ = 8						; size = 4
_pSelectSubGraphData$ = 12				; size = 4
_pIndicatorList$ = 16					; size = 4
?PointInLeftRightBarGraph@CSelectSubGraph@@AAEHABVCPoint@@PBVCSelectSubGraphData@@PAVCIndicatorList@@@Z PROC ; CSelectSubGraph::PointInLeftRightBarGraph, COMDAT
; _this$ = ecx

; 504  : 	return -1;

  00000	83 c8 ff	 or	 eax, -1

; 505  : }

  00003	c2 0c 00	 ret	 12			; 0000000cH
?PointInLeftRightBarGraph@CSelectSubGraph@@AAEHABVCPoint@@PBVCSelectSubGraphData@@PAVCIndicatorList@@@Z ENDP ; CSelectSubGraph::PointInLeftRightBarGraph
_TEXT	ENDS
; Function compile flags: /Ogtp
; File D:\git\src\IBK\IBK_DRFN\ProjSrc\SrcChartEx\ChartOCX\GraphDraw\SelectSubGraph.cpp
; File C:\Program Files (x86)\Microsoft Visual Studio\2019\Community\VC\Tools\MSVC\14.29.30133\atlmfc\include\afxtempl.h
; File D:\git\src\IBK\IBK_DRFN\ProjSrc\SrcChartEx\ChartOCX\GraphDraw\SelectSubGraph.cpp
; File C:\Program Files (x86)\Microsoft Visual Studio\2019\Community\VC\Tools\MSVC\14.29.30133\atlmfc\include\afxtempl.h
; File D:\git\src\IBK\IBK_DRFN\ProjSrc\SrcChartEx\ChartOCX\GraphDraw\SelectSubGraph.cpp
; File C:\Program Files (x86)\Microsoft Visual Studio\2019\Community\VC\Tools\MSVC\14.29.30133\atlmfc\include\afxtempl.h
; File D:\git\src\IBK\IBK_DRFN\ProjSrc\SrcChartEx\ChartOCX\GraphDraw\SelectSubGraph.cpp
; File C:\Program Files (x86)\Microsoft Visual Studio\2019\Community\VC\Tools\MSVC\14.29.30133\atlmfc\include\afxtempl.h
; File D:\git\src\IBK\IBK_DRFN\ProjSrc\SrcChartEx\ChartOCX\GraphDraw\SelectSubGraph.cpp
; File C:\Program Files (x86)\Microsoft Visual Studio\2019\Community\VC\Tools\MSVC\14.29.30133\atlmfc\include\afxtempl.h
; File D:\git\src\IBK\IBK_DRFN\ProjSrc\SrcChartEx\ChartOCX\GraphDraw\SelectSubGraph.cpp
; File C:\Program Files (x86)\Microsoft Visual Studio\2019\Community\VC\Tools\MSVC\14.29.30133\atlmfc\include\afxtempl.h
; File D:\git\src\IBK\IBK_DRFN\ProjSrc\SrcChartEx\ChartOCX\GraphDraw\SelectSubGraph.cpp
; File D:\git\src\IBK\IBK_DRFN\ProjSrc\SrcChartEx\ChartOCX\Include_Chart\BlockBaseData.h
; File D:\git\src\IBK\IBK_DRFN\ProjSrc\SrcChartEx\ChartOCX\GraphDraw\SelectSubGraph.cpp
;	COMDAT ?PointInBoxBarGraph@CSelectSubGraph@@AAEHABVCPoint@@PBVCSelectSubGraphData@@PAVCIndicatorList@@@Z
_TEXT	SEGMENT
_barDraw$ = -292					; size = 40
$T2 = -252						; size = 16
$T3 = -252						; size = 16
$T4 = -252						; size = 16
$T5 = -252						; size = 16
$T6 = -236						; size = 16
$T7 = -236						; size = 16
$T8 = -236						; size = 16
$T9 = -236						; size = 16
_closePt$ = -220					; size = 8
_openPt$ = -212						; size = 8
_lowPt$ = -204						; size = 8
_highPt$ = -196						; size = 8
_dRealWidth$ = -188					; size = 8
$T10 = -180						; size = 8
_highPos$1$ = -176					; size = 4
$T11 = -172						; size = 8
_nStart$1$ = -168					; size = 4
$T12 = -164						; size = 8
_pPacket$1$ = -160					; size = 4
_pClosePacket$1$ = -160					; size = 4
$T13 = -156						; size = 8
$T14 = -156						; size = 8
_openPos$1$ = -152					; size = 4
_mousePt$1$ = -148					; size = 4
_closePos$1$ = -148					; size = 4
$T15 = -144						; size = 8
$T16 = -140						; size = 4
_lowPos$1$ = -140					; size = 4
$T17 = -140						; size = 4
_point$GSCopy$1$ = -136					; size = 4
_mousePt$2$ = -136					; size = 4
$T18 = -132						; size = 8
$T19 = -132						; size = 8
$T20 = -132						; size = 8
$T21 = -132						; size = 8
$T22 = -132						; size = 8
$T23 = -132						; size = 8
$T24 = -132						; size = 8
$T25 = -124						; size = 8
$T26 = -124						; size = 8
$T27 = -120						; size = 4
_pOpenPacket$1$ = -120					; size = 4
_pLowPacket$1$ = -116					; size = 4
_pHighPacket$1$ = -112					; size = 4
_this$GSCopy$1$ = -108					; size = 4
_pSelectSubGraphData$GSCopy$1$ = -104			; size = 4
$T28 = -100						; size = 68
_graphRegion$ = -32					; size = 16
__$ArrayPad$ = -16					; size = 4
__$EHRec$ = -12						; size = 12
_point$ = 8						; size = 4
_pSelectSubGraphData$ = 12				; size = 4
_pIndicatorList$ = 16					; size = 4
?PointInBoxBarGraph@CSelectSubGraph@@AAEHABVCPoint@@PBVCSelectSubGraphData@@PAVCIndicatorList@@@Z PROC ; CSelectSubGraph::PointInBoxBarGraph, COMDAT
; _this$ = ecx

; 428  : {

  00000	55		 push	 ebp
  00001	8b ec		 mov	 ebp, esp
  00003	6a ff		 push	 -1
  00005	68 00 00 00 00	 push	 __ehhandler$?PointInBoxBarGraph@CSelectSubGraph@@AAEHABVCPoint@@PBVCSelectSubGraphData@@PAVCIndicatorList@@@Z
  0000a	64 a1 00 00 00
	00		 mov	 eax, DWORD PTR fs:0
  00010	50		 push	 eax
  00011	81 ec 18 01 00
	00		 sub	 esp, 280		; 00000118H
  00017	a1 00 00 00 00	 mov	 eax, DWORD PTR ___security_cookie
  0001c	33 c5		 xor	 eax, ebp
  0001e	89 45 f0	 mov	 DWORD PTR __$ArrayPad$[ebp], eax
  00021	56		 push	 esi
  00022	57		 push	 edi
  00023	50		 push	 eax
  00024	8d 45 f4	 lea	 eax, DWORD PTR __$EHRec$[ebp]
  00027	64 a3 00 00 00
	00		 mov	 DWORD PTR fs:0, eax
  0002d	89 4d 94	 mov	 DWORD PTR _this$GSCopy$1$[ebp], ecx
  00030	8b 7d 0c	 mov	 edi, DWORD PTR _pSelectSubGraphData$[ebp]

; 429  : 	const CList< CPacket *, CPacket *> &packetList = pSelectSubGraphData->GetSubGraphPacketList()->GetSubGraphPacketList();

  00033	8b cf		 mov	 ecx, edi
  00035	8b 45 08	 mov	 eax, DWORD PTR _point$[ebp]
  00038	89 85 78 ff ff
	ff		 mov	 DWORD PTR _point$GSCopy$1$[ebp], eax
  0003e	89 7d 98	 mov	 DWORD PTR _pSelectSubGraphData$GSCopy$1$[ebp], edi
  00041	e8 00 00 00 00	 call	 ?GetSubGraphPacketList@CSelectSubGraphData@@QBEPAVCSubGraphPacketList@@XZ ; CSelectSubGraphData::GetSubGraphPacketList
  00046	8b c8		 mov	 ecx, eax
  00048	e8 00 00 00 00	 call	 ?GetSubGraphPacketList@CSubGraphPacketList@@QBEABV?$CList@PAVCPacket@@PAV1@@@XZ ; CSubGraphPacketList::GetSubGraphPacketList
  0004d	8b f0		 mov	 esi, eax

; 430  : 	if(packetList.GetCount() <= 0)

  0004f	8b 4e 0c	 mov	 ecx, DWORD PTR [esi+12]
  00052	85 c9		 test	 ecx, ecx
  00054	0f 8e 42 06 00
	00		 jle	 $LN103@PointInBox

; 431  : 		return -1;
; 432  : 	POSITION pos = packetList.GetHeadPosition();

  0005a	8b 46 04	 mov	 eax, DWORD PTR [esi+4]

; 433  : 	if(pos == NULL)	return -1;

  0005d	85 c0		 test	 eax, eax
  0005f	0f 84 37 06 00
	00		 je	 $LN103@PointInBox

; 434  : 	
; 435  : 	if(packetList.GetCount() < 6)	return -1;

  00065	83 f9 06	 cmp	 ecx, 6
  00068	0f 8c 2e 06 00
	00		 jl	 $LN103@PointInBox

; 436  : 
; 437  : 	CPacket* pHighPacket = NULL;	
; 438  : 	CPacket* pLowPacket = NULL;	
; 439  : 	CPacket* pOpenPacket = NULL;	
; 440  : 	CPacket* pClosePacket = NULL;	
; 441  : 
; 442  : 	/// Forward
; 443  : 	POSITION p = packetList.GetHeadPosition();
; 444  : 	if(p == NULL)	return -1;
; 445  : 	CPacket* pPacket = packetList.GetNext(p);

  0006e	8b 40 08	 mov	 eax, DWORD PTR [eax+8]
  00071	89 85 60 ff ff
	ff		 mov	 DWORD PTR _pPacket$1$[ebp], eax

; 446  : 	if(pPacket == NULL)	return -1;

  00077	85 c0		 test	 eax, eax
  00079	0f 84 1d 06 00
	00		 je	 $LN103@PointInBox

; 447  : 
; 448  : 	CBarDraw barDraw;

  0007f	8d 8d dc fe ff
	ff		 lea	 ecx, DWORD PTR _barDraw$[ebp]
  00085	e8 00 00 00 00	 call	 ??0CBarDraw@@QAE@XZ	; CBarDraw::CBarDraw

; 449  : 	if(barDraw.CheckBoxBarType(pPacket)){

  0008a	ff b5 60 ff ff
	ff		 push	 DWORD PTR _pPacket$1$[ebp]
  00090	8d 8d dc fe ff
	ff		 lea	 ecx, DWORD PTR _barDraw$[ebp]
  00096	c7 45 fc 00 00
	00 00		 mov	 DWORD PTR __$EHRec$[ebp+8], 0
  0009d	e8 00 00 00 00	 call	 ?CheckBoxBarType@CBarDraw@@QAE_NPAVCPacket@@@Z ; CBarDraw::CheckBoxBarType
  000a2	8b 56 0c	 mov	 edx, DWORD PTR [esi+12]
  000a5	84 c0		 test	 al, al
  000a7	74 1d		 je	 SHORT $LN7@PointInBox
; File C:\Program Files (x86)\Microsoft Visual Studio\2019\Community\VC\Tools\MSVC\14.29.30133\atlmfc\include\afxtempl.h

; 1133 : 	if (nIndex >= m_nCount || nIndex < 0)

  000a9	85 d2		 test	 edx, edx
  000ab	7e 05		 jle	 SHORT $LN28@PointInBox

; 1141 : 	}
; 1142 : 	return (POSITION) pNode;

  000ad	8b 46 04	 mov	 eax, DWORD PTR [esi+4]
  000b0	eb 02		 jmp	 SHORT $LN24@PointInBox
$LN28@PointInBox:

; 1134 : 		return NULL;  // went too far

  000b2	33 c0		 xor	 eax, eax
$LN24@PointInBox:
; File D:\git\src\IBK\IBK_DRFN\ProjSrc\SrcChartEx\ChartOCX\GraphDraw\SelectSubGraph.cpp

; 450  : 		pHighPacket = packetList.GetAt(packetList.FindIndex(0));	

  000b4	8b 40 08	 mov	 eax, DWORD PTR [eax+8]
  000b7	89 45 90	 mov	 DWORD PTR _pHighPacket$1$[ebp], eax
; File C:\Program Files (x86)\Microsoft Visual Studio\2019\Community\VC\Tools\MSVC\14.29.30133\atlmfc\include\afxtempl.h

; 1133 : 	if (nIndex >= m_nCount || nIndex < 0)

  000ba	83 fa 01	 cmp	 edx, 1
  000bd	7e 3c		 jle	 SHORT $LN46@PointInBox

; 1135 : 
; 1136 : 	CNode* pNode = m_pNodeHead;

  000bf	8b 46 04	 mov	 eax, DWORD PTR [esi+4]

; 1141 : 	}
; 1142 : 	return (POSITION) pNode;

  000c2	8b 00		 mov	 eax, DWORD PTR [eax]
  000c4	eb 37		 jmp	 SHORT $LN42@PointInBox
$LN7@PointInBox:
; File D:\git\src\IBK\IBK_DRFN\ProjSrc\SrcChartEx\ChartOCX\GraphDraw\SelectSubGraph.cpp

; 455  : 		pHighPacket = packetList.GetAt(packetList.FindIndex(2));	

  000c6	b9 02 00 00 00	 mov	 ecx, 2
; File C:\Program Files (x86)\Microsoft Visual Studio\2019\Community\VC\Tools\MSVC\14.29.30133\atlmfc\include\afxtempl.h

; 1133 : 	if (nIndex >= m_nCount || nIndex < 0)

  000cb	3b d1		 cmp	 edx, ecx
  000cd	7e 0c		 jle	 SHORT $LN40@PointInBox

; 1135 : 
; 1136 : 	CNode* pNode = m_pNodeHead;

  000cf	8b 46 04	 mov	 eax, DWORD PTR [esi+4]
$LL37@PointInBox:

; 1137 : 	while (nIndex--)
; 1138 : 	{
; 1139 : 		ASSERT(AfxIsValidAddress(pNode, sizeof(CNode)));
; 1140 : 		pNode = pNode->pNext;

  000d2	8b 00		 mov	 eax, DWORD PTR [eax]
  000d4	83 e9 01	 sub	 ecx, 1
  000d7	75 f9		 jne	 SHORT $LL37@PointInBox

; 1141 : 	}
; 1142 : 	return (POSITION) pNode;

  000d9	eb 02		 jmp	 SHORT $LN106@PointInBox
$LN40@PointInBox:

; 1134 : 		return NULL;  // went too far

  000db	33 c0		 xor	 eax, eax
$LN106@PointInBox:
; File D:\git\src\IBK\IBK_DRFN\ProjSrc\SrcChartEx\ChartOCX\GraphDraw\SelectSubGraph.cpp

; 455  : 		pHighPacket = packetList.GetAt(packetList.FindIndex(2));	

  000dd	8b 40 08	 mov	 eax, DWORD PTR [eax+8]

; 456  : 		pLowPacket = packetList.GetAt(packetList.FindIndex(3));

  000e0	b9 03 00 00 00	 mov	 ecx, 3
  000e5	89 55 88	 mov	 DWORD PTR $T27[ebp], edx
  000e8	89 45 90	 mov	 DWORD PTR _pHighPacket$1$[ebp], eax
; File C:\Program Files (x86)\Microsoft Visual Studio\2019\Community\VC\Tools\MSVC\14.29.30133\atlmfc\include\afxtempl.h

; 1133 : 	if (nIndex >= m_nCount || nIndex < 0)

  000eb	3b d1		 cmp	 edx, ecx
  000ed	7e 0c		 jle	 SHORT $LN46@PointInBox

; 1135 : 
; 1136 : 	CNode* pNode = m_pNodeHead;

  000ef	8b 46 04	 mov	 eax, DWORD PTR [esi+4]
$LL43@PointInBox:

; 1137 : 	while (nIndex--)
; 1138 : 	{
; 1139 : 		ASSERT(AfxIsValidAddress(pNode, sizeof(CNode)));
; 1140 : 		pNode = pNode->pNext;

  000f2	8b 00		 mov	 eax, DWORD PTR [eax]
  000f4	83 e9 01	 sub	 ecx, 1
  000f7	75 f9		 jne	 SHORT $LL43@PointInBox

; 1141 : 	}
; 1142 : 	return (POSITION) pNode;

  000f9	eb 02		 jmp	 SHORT $LN42@PointInBox
$LN46@PointInBox:
; File D:\git\src\IBK\IBK_DRFN\ProjSrc\SrcChartEx\ChartOCX\GraphDraw\SelectSubGraph.cpp

; 458  : 	pOpenPacket = packetList.GetAt(packetList.FindIndex(4));

  000fb	33 c0		 xor	 eax, eax
$LN42@PointInBox:
  000fd	8b 40 08	 mov	 eax, DWORD PTR [eax+8]
  00100	b9 04 00 00 00	 mov	 ecx, 4
  00105	89 45 8c	 mov	 DWORD PTR _pLowPacket$1$[ebp], eax
; File C:\Program Files (x86)\Microsoft Visual Studio\2019\Community\VC\Tools\MSVC\14.29.30133\atlmfc\include\afxtempl.h

; 1133 : 	if (nIndex >= m_nCount || nIndex < 0)

  00108	3b d1		 cmp	 edx, ecx
  0010a	7e 0d		 jle	 SHORT $LN52@PointInBox

; 1135 : 
; 1136 : 	CNode* pNode = m_pNodeHead;

  0010c	8b 46 04	 mov	 eax, DWORD PTR [esi+4]
  0010f	90		 npad	 1
$LL49@PointInBox:

; 1137 : 	while (nIndex--)
; 1138 : 	{
; 1139 : 		ASSERT(AfxIsValidAddress(pNode, sizeof(CNode)));
; 1140 : 		pNode = pNode->pNext;

  00110	8b 00		 mov	 eax, DWORD PTR [eax]
  00112	83 e9 01	 sub	 ecx, 1
  00115	75 f9		 jne	 SHORT $LL49@PointInBox

; 1141 : 	}
; 1142 : 	return (POSITION) pNode;

  00117	eb 02		 jmp	 SHORT $LN48@PointInBox
$LN52@PointInBox:

; 1134 : 		return NULL;  // went too far

  00119	33 c0		 xor	 eax, eax
$LN48@PointInBox:
; File D:\git\src\IBK\IBK_DRFN\ProjSrc\SrcChartEx\ChartOCX\GraphDraw\SelectSubGraph.cpp

; 458  : 	pOpenPacket = packetList.GetAt(packetList.FindIndex(4));

  0011b	8b 40 08	 mov	 eax, DWORD PTR [eax+8]

; 459  : 	pClosePacket = packetList.GetAt(packetList.FindIndex(5));	

  0011e	b9 05 00 00 00	 mov	 ecx, 5
  00123	89 45 88	 mov	 DWORD PTR _pOpenPacket$1$[ebp], eax
; File C:\Program Files (x86)\Microsoft Visual Studio\2019\Community\VC\Tools\MSVC\14.29.30133\atlmfc\include\afxtempl.h

; 1133 : 	if (nIndex >= m_nCount || nIndex < 0)

  00126	3b d1		 cmp	 edx, ecx
  00128	7e 0f		 jle	 SHORT $LN58@PointInBox

; 1135 : 
; 1136 : 	CNode* pNode = m_pNodeHead;

  0012a	8b 46 04	 mov	 eax, DWORD PTR [esi+4]
  0012d	0f 1f 00	 npad	 3
$LL55@PointInBox:

; 1137 : 	while (nIndex--)
; 1138 : 	{
; 1139 : 		ASSERT(AfxIsValidAddress(pNode, sizeof(CNode)));
; 1140 : 		pNode = pNode->pNext;

  00130	8b 00		 mov	 eax, DWORD PTR [eax]
  00132	83 e9 01	 sub	 ecx, 1
  00135	75 f9		 jne	 SHORT $LL55@PointInBox

; 1141 : 	}
; 1142 : 	return (POSITION) pNode;

  00137	eb 02		 jmp	 SHORT $LN54@PointInBox
$LN58@PointInBox:

; 1134 : 		return NULL;  // went too far

  00139	33 c0		 xor	 eax, eax
$LN54@PointInBox:
; File D:\git\src\IBK\IBK_DRFN\ProjSrc\SrcChartEx\ChartOCX\GraphDraw\SelectSubGraph.cpp

; 461  : 	if(pOpenPacket == NULL || pHighPacket == NULL || pLowPacket == NULL || pClosePacket == NULL)

  0013b	83 7d 88 00	 cmp	 DWORD PTR _pOpenPacket$1$[ebp], 0
  0013f	8b 40 08	 mov	 eax, DWORD PTR [eax+8]
  00142	89 85 60 ff ff
	ff		 mov	 DWORD PTR _pClosePacket$1$[ebp], eax
  00148	0f 84 3c 05 00
	00		 je	 $LN13@PointInBox
  0014e	83 7d 90 00	 cmp	 DWORD PTR _pHighPacket$1$[ebp], 0
  00152	0f 84 32 05 00
	00		 je	 $LN13@PointInBox
  00158	83 7d 8c 00	 cmp	 DWORD PTR _pLowPacket$1$[ebp], 0
  0015c	0f 84 28 05 00
	00		 je	 $LN13@PointInBox
  00162	85 c0		 test	 eax, eax
  00164	0f 84 20 05 00
	00		 je	 $LN13@PointInBox

; 462  : 		return -1;
; 463  : 
; 464  : 	int nStart = pSelectSubGraphData->GetDisplayAttributes().GetDataStartInBlock();

  0016a	8d 85 7c ff ff
	ff		 lea	 eax, DWORD PTR $T24[ebp]
  00170	8b cf		 mov	 ecx, edi
  00172	50		 push	 eax
  00173	e8 00 00 00 00	 call	 ?GetDisplayAttributes@CSelectSubGraphData@@QBE?AVCDisplayAttributes@@XZ ; CSelectSubGraphData::GetDisplayAttributes
  00178	8b c8		 mov	 ecx, eax
  0017a	e8 00 00 00 00	 call	 ?GetDataStartInBlock@CDisplayAttributes@@QBEHXZ ; CDisplayAttributes::GetDataStartInBlock
  0017f	89 85 58 ff ff
	ff		 mov	 DWORD PTR _nStart$1$[ebp], eax

; 465  : 	int nEnd = pSelectSubGraphData->GetDisplayAttributes().GetDataEndInBlock();

  00185	8b cf		 mov	 ecx, edi
  00187	8d 85 7c ff ff
	ff		 lea	 eax, DWORD PTR $T23[ebp]
  0018d	50		 push	 eax
  0018e	e8 00 00 00 00	 call	 ?GetDisplayAttributes@CSelectSubGraphData@@QBE?AVCDisplayAttributes@@XZ ; CSelectSubGraphData::GetDisplayAttributes
  00193	8b c8		 mov	 ecx, eax
  00195	e8 00 00 00 00	 call	 ?GetDataEndInBlock@CDisplayAttributes@@QBEHXZ ; CDisplayAttributes::GetDataEndInBlock

; 466  : 	int pageDataCount = pSelectSubGraphData->GetDisplayAttributes().GetDataCountInBlock();

  0019a	8b 4d 98	 mov	 ecx, DWORD PTR _pSelectSubGraphData$GSCopy$1$[ebp]
  0019d	8b f8		 mov	 edi, eax
  0019f	8d 85 7c ff ff
	ff		 lea	 eax, DWORD PTR $T22[ebp]
  001a5	50		 push	 eax
  001a6	e8 00 00 00 00	 call	 ?GetDisplayAttributes@CSelectSubGraphData@@QBE?AVCDisplayAttributes@@XZ ; CSelectSubGraphData::GetDisplayAttributes
  001ab	8b c8		 mov	 ecx, eax
  001ad	e8 00 00 00 00	 call	 ?GetDataCountInBlock@CDisplayAttributes@@QBEHXZ ; CDisplayAttributes::GetDataCountInBlock

; 468  : 	CRect graphRegion = pSelectSubGraphData->GetGraphRegions().GetDrawingRegion();

  001b2	8b 4d 98	 mov	 ecx, DWORD PTR _pSelectSubGraphData$GSCopy$1$[ebp]
  001b5	8b f0		 mov	 esi, eax
  001b7	8d 85 74 ff ff
	ff		 lea	 eax, DWORD PTR $T17[ebp]
; File D:\git\src\IBK\IBK_DRFN\ProjSrc\SrcChartEx\ChartOCX\Include_Chart\BlockBaseData.h

; 43   : 	CGraphStyle(const int style) { m_nStyle = style; };

  001bd	c7 85 74 ff ff
	ff ff ff ff ff	 mov	 DWORD PTR $T17[ebp], -1
; File D:\git\src\IBK\IBK_DRFN\ProjSrc\SrcChartEx\ChartOCX\GraphDraw\SelectSubGraph.cpp

; 468  : 	CRect graphRegion = pSelectSubGraphData->GetGraphRegions().GetDrawingRegion();

  001c7	50		 push	 eax
  001c8	6a ff		 push	 -1
  001ca	8d 45 e0	 lea	 eax, DWORD PTR _graphRegion$[ebp]
  001cd	50		 push	 eax
  001ce	8d 45 9c	 lea	 eax, DWORD PTR $T28[ebp]
  001d1	50		 push	 eax
  001d2	e8 00 00 00 00	 call	 ?GetGraphRegions@CSelectSubGraphData@@QBE?AVCGraphRegions@@XZ ; CSelectSubGraphData::GetGraphRegions
  001d7	8b c8		 mov	 ecx, eax
  001d9	e8 00 00 00 00	 call	 ?GetDrawingRegion@CGraphRegions@@QBE?AVCRect@@W4GRAPHTYPE@CGraphBaseData@@ABVCGraphStyle@@@Z ; CGraphRegions::GetDrawingRegion

; 469  : 
; 470  : 	int nDataIndex = GetDataIndex(graphRegion, point, nStart, nEnd, pageDataCount); 

  001de	8b 85 78 ff ff
	ff		 mov	 eax, DWORD PTR _point$GSCopy$1$[ebp]
  001e4	0f 10 45 e0	 movups	 xmm0, XMMWORD PTR _graphRegion$[ebp]
  001e8	8b 4d 94	 mov	 ecx, DWORD PTR _this$GSCopy$1$[ebp]
  001eb	56		 push	 esi
  001ec	57		 push	 edi
  001ed	ff b5 58 ff ff
	ff		 push	 DWORD PTR _nStart$1$[ebp]
  001f3	ff 70 04	 push	 DWORD PTR [eax+4]
  001f6	ff 30		 push	 DWORD PTR [eax]
  001f8	83 ec 10	 sub	 esp, 16			; 00000010H
  001fb	8b c4		 mov	 eax, esp
  001fd	0f 11 00	 movups	 XMMWORD PTR [eax], xmm0
  00200	e8 00 00 00 00	 call	 ?GetDataIndex@CSelectSubGraph@@AAEHVCRect@@VCPoint@@HHH@Z ; CSelectSubGraph::GetDataIndex

; 471  : 	double dRealWidth = CDraw::CalRealWidth(graphRegion, nStart, nEnd);

  00205	8b 4d 94	 mov	 ecx, DWORD PTR _this$GSCopy$1$[ebp]
  00208	57		 push	 edi
  00209	ff b5 58 ff ff
	ff		 push	 DWORD PTR _nStart$1$[ebp]
  0020f	89 85 74 ff ff
	ff		 mov	 DWORD PTR $T16[ebp], eax
  00215	8d 45 e0	 lea	 eax, DWORD PTR _graphRegion$[ebp]
  00218	50		 push	 eax
  00219	e8 00 00 00 00	 call	 ?CalRealWidth@CDraw@@IAENABVCRect@@HH@Z ; CDraw::CalRealWidth

; 472  : 	if(nDataIndex == -1)	return -1;

  0021e	8b bd 74 ff ff
	ff		 mov	 edi, DWORD PTR $T16[ebp]
  00224	dd 9d 44 ff ff
	ff		 fstp	 QWORD PTR _dRealWidth$[ebp]
  0022a	83 ff ff	 cmp	 edi, -1
  0022d	0f 84 57 04 00
	00		 je	 $LN13@PointInBox

; 473  : 
; 474  : 	POSITION openPos = pOpenPacket->GetnumericDataList()->FindIndex(nDataIndex);

  00233	8b 4d 88	 mov	 ecx, DWORD PTR _pOpenPacket$1$[ebp]
  00236	8b 35 00 00 00
	00		 mov	 esi, DWORD PTR __imp_?GetnumericDataList@CPacket@@QAEPAV?$CList@NN@@XZ
  0023c	57		 push	 edi
  0023d	ff d6		 call	 esi
  0023f	8b c8		 mov	 ecx, eax
  00241	e8 00 00 00 00	 call	 ?FindIndex@?$CList@NN@@QBEPAU__POSITION@@H@Z ; CList<double,double>::FindIndex

; 475  : 	POSITION highPos = pHighPacket->GetnumericDataList()->FindIndex(nDataIndex);

  00246	8b 4d 90	 mov	 ecx, DWORD PTR _pHighPacket$1$[ebp]
  00249	57		 push	 edi
  0024a	89 85 68 ff ff
	ff		 mov	 DWORD PTR _openPos$1$[ebp], eax
  00250	ff d6		 call	 esi
  00252	8b c8		 mov	 ecx, eax
  00254	e8 00 00 00 00	 call	 ?FindIndex@?$CList@NN@@QBEPAU__POSITION@@H@Z ; CList<double,double>::FindIndex

; 476  : 	POSITION lowPos = pLowPacket->GetnumericDataList()->FindIndex(nDataIndex);

  00259	8b 4d 8c	 mov	 ecx, DWORD PTR _pLowPacket$1$[ebp]
  0025c	57		 push	 edi
  0025d	89 85 50 ff ff
	ff		 mov	 DWORD PTR _highPos$1$[ebp], eax
  00263	ff d6		 call	 esi
  00265	8b c8		 mov	 ecx, eax
  00267	e8 00 00 00 00	 call	 ?FindIndex@?$CList@NN@@QBEPAU__POSITION@@H@Z ; CList<double,double>::FindIndex

; 477  : 	POSITION closePos = pClosePacket->GetnumericDataList()->FindIndex(nDataIndex);

  0026c	8b 8d 60 ff ff
	ff		 mov	 ecx, DWORD PTR _pClosePacket$1$[ebp]
  00272	57		 push	 edi
  00273	89 85 74 ff ff
	ff		 mov	 DWORD PTR _lowPos$1$[ebp], eax
  00279	ff d6		 call	 esi
  0027b	8b c8		 mov	 ecx, eax
  0027d	e8 00 00 00 00	 call	 ?FindIndex@?$CList@NN@@QBEPAU__POSITION@@H@Z ; CList<double,double>::FindIndex

; 478  : 	
; 479  : 	if(openPos == NULL || highPos == NULL || lowPos == NULL || closePos == NULL) 

  00282	83 bd 68 ff ff
	ff 00		 cmp	 DWORD PTR _openPos$1$[ebp], 0
  00289	89 85 6c ff ff
	ff		 mov	 DWORD PTR _closePos$1$[ebp], eax
  0028f	0f 84 f5 03 00
	00		 je	 $LN13@PointInBox
  00295	83 bd 50 ff ff
	ff 00		 cmp	 DWORD PTR _highPos$1$[ebp], 0
  0029c	0f 84 e8 03 00
	00		 je	 $LN13@PointInBox
  002a2	83 bd 74 ff ff
	ff 00		 cmp	 DWORD PTR _lowPos$1$[ebp], 0
  002a9	0f 84 db 03 00
	00		 je	 $LN13@PointInBox
  002af	85 c0		 test	 eax, eax
  002b1	0f 84 d3 03 00
	00		 je	 $LN13@PointInBox

; 1324 : 	return (dataIndex - dataStart);

  002b7	8b 85 58 ff ff
	ff		 mov	 eax, DWORD PTR _nStart$1$[ebp]
  002bd	8b f7		 mov	 esi, edi

; 480  : 		return -1;
; 481  : 
; 482  : 	int nIndex = GetIndex(nDataIndex, nStart);
; 483  : 
; 484  : 	double dHigh = pHighPacket->GetnumericDataList()->GetAt(highPos);

  002bf	8b 4d 90	 mov	 ecx, DWORD PTR _pHighPacket$1$[ebp]

; 1324 : 	return (dataIndex - dataStart);

  002c2	2b f0		 sub	 esi, eax
  002c4	3b f8		 cmp	 edi, eax
  002c6	0f 4c f0	 cmovl	 esi, eax

; 480  : 		return -1;
; 481  : 
; 482  : 	int nIndex = GetIndex(nDataIndex, nStart);
; 483  : 
; 484  : 	double dHigh = pHighPacket->GetnumericDataList()->GetAt(highPos);

  002c9	ff 15 00 00 00
	00		 call	 DWORD PTR __imp_?GetnumericDataList@CPacket@@QAEPAV?$CList@NN@@XZ

; 485  : 	double dLow = pLowPacket->GetnumericDataList()->GetAt(lowPos);

  002cf	8b 4d 8c	 mov	 ecx, DWORD PTR _pLowPacket$1$[ebp]
  002d2	ff 15 00 00 00
	00		 call	 DWORD PTR __imp_?GetnumericDataList@CPacket@@QAEPAV?$CList@NN@@XZ

; 486  : 	CPoint openPt = CDataConversion::GetVerticalPoint(graphRegion, nIndex, dRealWidth, CDraw::CalLogValue(pSelectSubGraphData->GetVertScaleLogType(), pSelectSubGraphData->GetDisplayDataVertMinMax().GetDisplayMin()), CDraw::CalLogValue(pSelectSubGraphData->GetVertScaleLogType(), pSelectSubGraphData->GetDisplayDataVertMinMax().GetDisplayMax()), CDraw::CalLogValue(pSelectSubGraphData->GetVertScaleLogType(), pOpenPacket->GetnumericDataList()->GetNext(openPos)), false);

  002d8	8b 4d 88	 mov	 ecx, DWORD PTR _pOpenPacket$1$[ebp]
  002db	ff 15 00 00 00
	00		 call	 DWORD PTR __imp_?GetnumericDataList@CPacket@@QAEPAV?$CList@NN@@XZ
  002e1	8b 85 68 ff ff
	ff		 mov	 eax, DWORD PTR _openPos$1$[ebp]
  002e7	83 ec 08	 sub	 esp, 8
  002ea	8b 4d 98	 mov	 ecx, DWORD PTR _pSelectSubGraphData$GSCopy$1$[ebp]
  002ed	f2 0f 10 40 08	 movsd	 xmm0, QWORD PTR [eax+8]
  002f2	f2 0f 11 04 24	 movsd	 QWORD PTR [esp], xmm0
  002f7	e8 00 00 00 00	 call	 ?GetVertScaleLogType@CSelectSubGraphData@@QBE_NXZ ; CSelectSubGraphData::GetVertScaleLogType
  002fc	8b 4d 94	 mov	 ecx, DWORD PTR _this$GSCopy$1$[ebp]
  002ff	0f b6 c0	 movzx	 eax, al
  00302	50		 push	 eax
  00303	e8 00 00 00 00	 call	 ?CalLogValue@CDraw@@IAEN_NN@Z ; CDraw::CalLogValue
  00308	8b 4d 98	 mov	 ecx, DWORD PTR _pSelectSubGraphData$GSCopy$1$[ebp]
  0030b	8d 85 14 ff ff
	ff		 lea	 eax, DWORD PTR $T9[ebp]
  00311	50		 push	 eax
  00312	dd 5d 84	 fstp	 QWORD PTR $T26[ebp]
  00315	e8 00 00 00 00	 call	 ?GetDisplayDataVertMinMax@CSelectSubGraphData@@QBE?AVCDisplayDataMinMax@@XZ ; CSelectSubGraphData::GetDisplayDataVertMinMax
  0031a	8b c8		 mov	 ecx, eax
  0031c	ff 15 00 00 00
	00		 call	 DWORD PTR __imp_?GetDisplayMax@CDisplayDataMinMax@@QBENXZ
  00322	8b 4d 98	 mov	 ecx, DWORD PTR _pSelectSubGraphData$GSCopy$1$[ebp]
  00325	83 ec 08	 sub	 esp, 8
  00328	dd 1c 24	 fstp	 QWORD PTR [esp]
  0032b	e8 00 00 00 00	 call	 ?GetVertScaleLogType@CSelectSubGraphData@@QBE_NXZ ; CSelectSubGraphData::GetVertScaleLogType
  00330	8b 4d 94	 mov	 ecx, DWORD PTR _this$GSCopy$1$[ebp]
  00333	0f b6 c0	 movzx	 eax, al
  00336	50		 push	 eax
  00337	e8 00 00 00 00	 call	 ?CalLogValue@CDraw@@IAEN_NN@Z ; CDraw::CalLogValue
  0033c	8b 4d 98	 mov	 ecx, DWORD PTR _pSelectSubGraphData$GSCopy$1$[ebp]
  0033f	8d 85 04 ff ff
	ff		 lea	 eax, DWORD PTR $T5[ebp]
  00345	50		 push	 eax
  00346	dd 9d 54 ff ff
	ff		 fstp	 QWORD PTR $T11[ebp]
  0034c	e8 00 00 00 00	 call	 ?GetDisplayDataVertMinMax@CSelectSubGraphData@@QBE?AVCDisplayDataMinMax@@XZ ; CSelectSubGraphData::GetDisplayDataVertMinMax
  00351	8b c8		 mov	 ecx, eax
  00353	ff 15 00 00 00
	00		 call	 DWORD PTR __imp_?GetDisplayMin@CDisplayDataMinMax@@QBENXZ
  00359	8b 4d 98	 mov	 ecx, DWORD PTR _pSelectSubGraphData$GSCopy$1$[ebp]
  0035c	83 ec 08	 sub	 esp, 8
  0035f	dd 1c 24	 fstp	 QWORD PTR [esp]
  00362	e8 00 00 00 00	 call	 ?GetVertScaleLogType@CSelectSubGraphData@@QBE_NXZ ; CSelectSubGraphData::GetVertScaleLogType
  00367	8b 4d 94	 mov	 ecx, DWORD PTR _this$GSCopy$1$[ebp]
  0036a	0f b6 c0	 movzx	 eax, al
  0036d	50		 push	 eax
  0036e	e8 00 00 00 00	 call	 ?CalLogValue@CDraw@@IAEN_NN@Z ; CDraw::CalLogValue
  00373	6a 00		 push	 0
  00375	8d 45 84	 lea	 eax, DWORD PTR $T26[ebp]
  00378	50		 push	 eax
  00379	8d 85 54 ff ff
	ff		 lea	 eax, DWORD PTR $T11[ebp]
  0037f	50		 push	 eax
  00380	8d 85 7c ff ff
	ff		 lea	 eax, DWORD PTR $T21[ebp]
  00386	50		 push	 eax
  00387	8d 85 44 ff ff
	ff		 lea	 eax, DWORD PTR _dRealWidth$[ebp]
  0038d	50		 push	 eax
  0038e	56		 push	 esi
  0038f	8d 45 e0	 lea	 eax, DWORD PTR _graphRegion$[ebp]
  00392	50		 push	 eax
  00393	8d 85 2c ff ff
	ff		 lea	 eax, DWORD PTR _openPt$[ebp]
  00399	50		 push	 eax
  0039a	dd 9d 7c ff ff
	ff		 fstp	 QWORD PTR $T21[ebp]
  003a0	e8 00 00 00 00	 call	 ?GetVerticalPoint@CDataConversion@@SA?AVCPoint@@ABVCRect@@HABN111_N@Z ; CDataConversion::GetVerticalPoint

; 487  : 	CPoint highPt = CDataConversion::GetVerticalPoint(graphRegion, nIndex, dRealWidth, CDraw::CalLogValue(pSelectSubGraphData->GetVertScaleLogType(), pSelectSubGraphData->GetDisplayDataVertMinMax().GetDisplayMin()), CDraw::CalLogValue(pSelectSubGraphData->GetVertScaleLogType(), pSelectSubGraphData->GetDisplayDataVertMinMax().GetDisplayMax()), CDraw::CalLogValue(pSelectSubGraphData->GetVertScaleLogType(), pHighPacket->GetnumericDataList()->GetNext(highPos)), true);

  003a5	8b 4d 90	 mov	 ecx, DWORD PTR _pHighPacket$1$[ebp]
  003a8	83 c4 20	 add	 esp, 32			; 00000020H
  003ab	ff 15 00 00 00
	00		 call	 DWORD PTR __imp_?GetnumericDataList@CPacket@@QAEPAV?$CList@NN@@XZ
  003b1	8b 85 50 ff ff
	ff		 mov	 eax, DWORD PTR _highPos$1$[ebp]
  003b7	83 ec 08	 sub	 esp, 8
  003ba	8b 4d 98	 mov	 ecx, DWORD PTR _pSelectSubGraphData$GSCopy$1$[ebp]
  003bd	f2 0f 10 40 08	 movsd	 xmm0, QWORD PTR [eax+8]
  003c2	f2 0f 11 04 24	 movsd	 QWORD PTR [esp], xmm0
  003c7	e8 00 00 00 00	 call	 ?GetVertScaleLogType@CSelectSubGraphData@@QBE_NXZ ; CSelectSubGraphData::GetVertScaleLogType
  003cc	8b 4d 94	 mov	 ecx, DWORD PTR _this$GSCopy$1$[ebp]
  003cf	0f b6 c0	 movzx	 eax, al
  003d2	50		 push	 eax
  003d3	e8 00 00 00 00	 call	 ?CalLogValue@CDraw@@IAEN_NN@Z ; CDraw::CalLogValue
  003d8	dd 9d 7c ff ff
	ff		 fstp	 QWORD PTR $T20[ebp]
  003de	8b 4d 98	 mov	 ecx, DWORD PTR _pSelectSubGraphData$GSCopy$1$[ebp]
  003e1	8d 85 04 ff ff
	ff		 lea	 eax, DWORD PTR $T4[ebp]
  003e7	50		 push	 eax
  003e8	e8 00 00 00 00	 call	 ?GetDisplayDataVertMinMax@CSelectSubGraphData@@QBE?AVCDisplayDataMinMax@@XZ ; CSelectSubGraphData::GetDisplayDataVertMinMax
  003ed	8b c8		 mov	 ecx, eax
  003ef	ff 15 00 00 00
	00		 call	 DWORD PTR __imp_?GetDisplayMax@CDisplayDataMinMax@@QBENXZ
  003f5	8b 4d 98	 mov	 ecx, DWORD PTR _pSelectSubGraphData$GSCopy$1$[ebp]
  003f8	83 ec 08	 sub	 esp, 8
  003fb	dd 1c 24	 fstp	 QWORD PTR [esp]
  003fe	e8 00 00 00 00	 call	 ?GetVertScaleLogType@CSelectSubGraphData@@QBE_NXZ ; CSelectSubGraphData::GetVertScaleLogType
  00403	8b 4d 94	 mov	 ecx, DWORD PTR _this$GSCopy$1$[ebp]
  00406	0f b6 c0	 movzx	 eax, al
  00409	50		 push	 eax
  0040a	e8 00 00 00 00	 call	 ?CalLogValue@CDraw@@IAEN_NN@Z ; CDraw::CalLogValue
  0040f	8b 4d 98	 mov	 ecx, DWORD PTR _pSelectSubGraphData$GSCopy$1$[ebp]
  00412	8d 85 14 ff ff
	ff		 lea	 eax, DWORD PTR $T8[ebp]
  00418	50		 push	 eax
  00419	dd 9d 64 ff ff
	ff		 fstp	 QWORD PTR $T14[ebp]
  0041f	e8 00 00 00 00	 call	 ?GetDisplayDataVertMinMax@CSelectSubGraphData@@QBE?AVCDisplayDataMinMax@@XZ ; CSelectSubGraphData::GetDisplayDataVertMinMax
  00424	8b c8		 mov	 ecx, eax
  00426	ff 15 00 00 00
	00		 call	 DWORD PTR __imp_?GetDisplayMin@CDisplayDataMinMax@@QBENXZ
  0042c	8b 4d 98	 mov	 ecx, DWORD PTR _pSelectSubGraphData$GSCopy$1$[ebp]
  0042f	83 ec 08	 sub	 esp, 8
  00432	dd 1c 24	 fstp	 QWORD PTR [esp]
  00435	e8 00 00 00 00	 call	 ?GetVertScaleLogType@CSelectSubGraphData@@QBE_NXZ ; CSelectSubGraphData::GetVertScaleLogType
  0043a	8b 4d 94	 mov	 ecx, DWORD PTR _this$GSCopy$1$[ebp]
  0043d	0f b6 c0	 movzx	 eax, al
  00440	50		 push	 eax
  00441	e8 00 00 00 00	 call	 ?CalLogValue@CDraw@@IAEN_NN@Z ; CDraw::CalLogValue
  00446	6a 01		 push	 1
  00448	8d 85 7c ff ff
	ff		 lea	 eax, DWORD PTR $T20[ebp]
  0044e	50		 push	 eax
  0044f	8d 85 64 ff ff
	ff		 lea	 eax, DWORD PTR $T14[ebp]
  00455	50		 push	 eax
  00456	8d 45 84	 lea	 eax, DWORD PTR $T25[ebp]
  00459	50		 push	 eax
  0045a	8d 85 44 ff ff
	ff		 lea	 eax, DWORD PTR _dRealWidth$[ebp]
  00460	50		 push	 eax
  00461	56		 push	 esi
  00462	8d 45 e0	 lea	 eax, DWORD PTR _graphRegion$[ebp]
  00465	50		 push	 eax
  00466	8d 85 3c ff ff
	ff		 lea	 eax, DWORD PTR _highPt$[ebp]
  0046c	50		 push	 eax
  0046d	dd 5d 84	 fstp	 QWORD PTR $T25[ebp]
  00470	e8 00 00 00 00	 call	 ?GetVerticalPoint@CDataConversion@@SA?AVCPoint@@ABVCRect@@HABN111_N@Z ; CDataConversion::GetVerticalPoint

; 488  : 	CPoint lowPt = CDataConversion::GetVerticalPoint(graphRegion, nIndex, dRealWidth, CDraw::CalLogValue(pSelectSubGraphData->GetVertScaleLogType(), pSelectSubGraphData->GetDisplayDataVertMinMax().GetDisplayMin()), CDraw::CalLogValue(pSelectSubGraphData->GetVertScaleLogType(), pSelectSubGraphData->GetDisplayDataVertMinMax().GetDisplayMax()), CDraw::CalLogValue(pSelectSubGraphData->GetVertScaleLogType(), pLowPacket->GetnumericDataList()->GetNext(lowPos)), true);

  00475	8b 4d 8c	 mov	 ecx, DWORD PTR _pLowPacket$1$[ebp]
  00478	83 c4 20	 add	 esp, 32			; 00000020H
  0047b	ff 15 00 00 00
	00		 call	 DWORD PTR __imp_?GetnumericDataList@CPacket@@QAEPAV?$CList@NN@@XZ
  00481	8b 85 74 ff ff
	ff		 mov	 eax, DWORD PTR _lowPos$1$[ebp]
  00487	83 ec 08	 sub	 esp, 8
  0048a	8b 4d 98	 mov	 ecx, DWORD PTR _pSelectSubGraphData$GSCopy$1$[ebp]
  0048d	f2 0f 10 40 08	 movsd	 xmm0, QWORD PTR [eax+8]
  00492	f2 0f 11 04 24	 movsd	 QWORD PTR [esp], xmm0
  00497	e8 00 00 00 00	 call	 ?GetVertScaleLogType@CSelectSubGraphData@@QBE_NXZ ; CSelectSubGraphData::GetVertScaleLogType
  0049c	8b 4d 94	 mov	 ecx, DWORD PTR _this$GSCopy$1$[ebp]
  0049f	0f b6 c0	 movzx	 eax, al
  004a2	50		 push	 eax
  004a3	e8 00 00 00 00	 call	 ?CalLogValue@CDraw@@IAEN_NN@Z ; CDraw::CalLogValue
  004a8	8b 4d 98	 mov	 ecx, DWORD PTR _pSelectSubGraphData$GSCopy$1$[ebp]
  004ab	8d 85 04 ff ff
	ff		 lea	 eax, DWORD PTR $T3[ebp]
  004b1	50		 push	 eax
  004b2	dd 9d 7c ff ff
	ff		 fstp	 QWORD PTR $T19[ebp]
  004b8	e8 00 00 00 00	 call	 ?GetDisplayDataVertMinMax@CSelectSubGraphData@@QBE?AVCDisplayDataMinMax@@XZ ; CSelectSubGraphData::GetDisplayDataVertMinMax
  004bd	8b c8		 mov	 ecx, eax
  004bf	ff 15 00 00 00
	00		 call	 DWORD PTR __imp_?GetDisplayMax@CDisplayDataMinMax@@QBENXZ
  004c5	8b 4d 98	 mov	 ecx, DWORD PTR _pSelectSubGraphData$GSCopy$1$[ebp]
  004c8	83 ec 08	 sub	 esp, 8
  004cb	dd 1c 24	 fstp	 QWORD PTR [esp]
  004ce	e8 00 00 00 00	 call	 ?GetVertScaleLogType@CSelectSubGraphData@@QBE_NXZ ; CSelectSubGraphData::GetVertScaleLogType
  004d3	8b 4d 94	 mov	 ecx, DWORD PTR _this$GSCopy$1$[ebp]
  004d6	0f b6 c0	 movzx	 eax, al
  004d9	50		 push	 eax
  004da	e8 00 00 00 00	 call	 ?CalLogValue@CDraw@@IAEN_NN@Z ; CDraw::CalLogValue
  004df	8b 4d 98	 mov	 ecx, DWORD PTR _pSelectSubGraphData$GSCopy$1$[ebp]
  004e2	8d 85 14 ff ff
	ff		 lea	 eax, DWORD PTR $T7[ebp]
  004e8	50		 push	 eax
  004e9	dd 9d 4c ff ff
	ff		 fstp	 QWORD PTR $T10[ebp]
  004ef	e8 00 00 00 00	 call	 ?GetDisplayDataVertMinMax@CSelectSubGraphData@@QBE?AVCDisplayDataMinMax@@XZ ; CSelectSubGraphData::GetDisplayDataVertMinMax
  004f4	8b c8		 mov	 ecx, eax
  004f6	ff 15 00 00 00
	00		 call	 DWORD PTR __imp_?GetDisplayMin@CDisplayDataMinMax@@QBENXZ
  004fc	83 ec 08	 sub	 esp, 8
  004ff	8b 4d 98	 mov	 ecx, DWORD PTR _pSelectSubGraphData$GSCopy$1$[ebp]
  00502	dd 1c 24	 fstp	 QWORD PTR [esp]
  00505	e8 00 00 00 00	 call	 ?GetVertScaleLogType@CSelectSubGraphData@@QBE_NXZ ; CSelectSubGraphData::GetVertScaleLogType
  0050a	8b 4d 94	 mov	 ecx, DWORD PTR _this$GSCopy$1$[ebp]
  0050d	0f b6 c0	 movzx	 eax, al
  00510	50		 push	 eax
  00511	e8 00 00 00 00	 call	 ?CalLogValue@CDraw@@IAEN_NN@Z ; CDraw::CalLogValue
  00516	6a 01		 push	 1
  00518	8d 85 7c ff ff
	ff		 lea	 eax, DWORD PTR $T19[ebp]
  0051e	50		 push	 eax
  0051f	8d 85 4c ff ff
	ff		 lea	 eax, DWORD PTR $T10[ebp]
  00525	50		 push	 eax
  00526	8d 85 64 ff ff
	ff		 lea	 eax, DWORD PTR $T13[ebp]
  0052c	50		 push	 eax
  0052d	8d 85 44 ff ff
	ff		 lea	 eax, DWORD PTR _dRealWidth$[ebp]
  00533	50		 push	 eax
  00534	56		 push	 esi
  00535	8d 45 e0	 lea	 eax, DWORD PTR _graphRegion$[ebp]
  00538	50		 push	 eax
  00539	8d 85 34 ff ff
	ff		 lea	 eax, DWORD PTR _lowPt$[ebp]
  0053f	50		 push	 eax
  00540	dd 9d 64 ff ff
	ff		 fstp	 QWORD PTR $T13[ebp]
  00546	e8 00 00 00 00	 call	 ?GetVerticalPoint@CDataConversion@@SA?AVCPoint@@ABVCRect@@HABN111_N@Z ; CDataConversion::GetVerticalPoint

; 489  : 	CPoint closePt = CDataConversion::GetVerticalPoint(graphRegion, nIndex + 1, dRealWidth, CDraw::CalLogValue(pSelectSubGraphData->GetVertScaleLogType(), pSelectSubGraphData->GetDisplayDataVertMinMax().GetDisplayMin()), CDraw::CalLogValue(pSelectSubGraphData->GetVertScaleLogType(), pSelectSubGraphData->GetDisplayDataVertMinMax().GetDisplayMax()), CDraw::CalLogValue(pSelectSubGraphData->GetVertScaleLogType(), pClosePacket->GetnumericDataList()->GetNext(closePos)), false);

  0054b	8b 8d 60 ff ff
	ff		 mov	 ecx, DWORD PTR _pClosePacket$1$[ebp]
  00551	83 c4 20	 add	 esp, 32			; 00000020H
  00554	ff 15 00 00 00
	00		 call	 DWORD PTR __imp_?GetnumericDataList@CPacket@@QAEPAV?$CList@NN@@XZ
  0055a	8b 85 6c ff ff
	ff		 mov	 eax, DWORD PTR _closePos$1$[ebp]
  00560	83 ec 08	 sub	 esp, 8
  00563	8b 4d 98	 mov	 ecx, DWORD PTR _pSelectSubGraphData$GSCopy$1$[ebp]
  00566	f2 0f 10 40 08	 movsd	 xmm0, QWORD PTR [eax+8]
  0056b	f2 0f 11 04 24	 movsd	 QWORD PTR [esp], xmm0
  00570	e8 00 00 00 00	 call	 ?GetVertScaleLogType@CSelectSubGraphData@@QBE_NXZ ; CSelectSubGraphData::GetVertScaleLogType
  00575	8b 4d 94	 mov	 ecx, DWORD PTR _this$GSCopy$1$[ebp]
  00578	0f b6 c0	 movzx	 eax, al
  0057b	50		 push	 eax
  0057c	e8 00 00 00 00	 call	 ?CalLogValue@CDraw@@IAEN_NN@Z ; CDraw::CalLogValue
  00581	8b 4d 98	 mov	 ecx, DWORD PTR _pSelectSubGraphData$GSCopy$1$[ebp]
  00584	8d 85 04 ff ff
	ff		 lea	 eax, DWORD PTR $T2[ebp]
  0058a	50		 push	 eax
  0058b	dd 9d 7c ff ff
	ff		 fstp	 QWORD PTR $T18[ebp]
  00591	e8 00 00 00 00	 call	 ?GetDisplayDataVertMinMax@CSelectSubGraphData@@QBE?AVCDisplayDataMinMax@@XZ ; CSelectSubGraphData::GetDisplayDataVertMinMax
  00596	8b c8		 mov	 ecx, eax
  00598	ff 15 00 00 00
	00		 call	 DWORD PTR __imp_?GetDisplayMax@CDisplayDataMinMax@@QBENXZ
  0059e	8b 4d 98	 mov	 ecx, DWORD PTR _pSelectSubGraphData$GSCopy$1$[ebp]
  005a1	83 ec 08	 sub	 esp, 8
  005a4	dd 1c 24	 fstp	 QWORD PTR [esp]
  005a7	e8 00 00 00 00	 call	 ?GetVertScaleLogType@CSelectSubGraphData@@QBE_NXZ ; CSelectSubGraphData::GetVertScaleLogType
  005ac	8b 4d 94	 mov	 ecx, DWORD PTR _this$GSCopy$1$[ebp]
  005af	0f b6 c0	 movzx	 eax, al
  005b2	50		 push	 eax
  005b3	e8 00 00 00 00	 call	 ?CalLogValue@CDraw@@IAEN_NN@Z ; CDraw::CalLogValue
  005b8	8b 4d 98	 mov	 ecx, DWORD PTR _pSelectSubGraphData$GSCopy$1$[ebp]
  005bb	8d 85 14 ff ff
	ff		 lea	 eax, DWORD PTR $T6[ebp]
  005c1	50		 push	 eax
  005c2	dd 9d 5c ff ff
	ff		 fstp	 QWORD PTR $T12[ebp]
  005c8	e8 00 00 00 00	 call	 ?GetDisplayDataVertMinMax@CSelectSubGraphData@@QBE?AVCDisplayDataMinMax@@XZ ; CSelectSubGraphData::GetDisplayDataVertMinMax
  005cd	8b c8		 mov	 ecx, eax
  005cf	ff 15 00 00 00
	00		 call	 DWORD PTR __imp_?GetDisplayMin@CDisplayDataMinMax@@QBENXZ
  005d5	8b 4d 98	 mov	 ecx, DWORD PTR _pSelectSubGraphData$GSCopy$1$[ebp]
  005d8	83 ec 08	 sub	 esp, 8
  005db	dd 1c 24	 fstp	 QWORD PTR [esp]
  005de	e8 00 00 00 00	 call	 ?GetVertScaleLogType@CSelectSubGraphData@@QBE_NXZ ; CSelectSubGraphData::GetVertScaleLogType
  005e3	8b 4d 94	 mov	 ecx, DWORD PTR _this$GSCopy$1$[ebp]
  005e6	0f b6 c0	 movzx	 eax, al
  005e9	50		 push	 eax
  005ea	e8 00 00 00 00	 call	 ?CalLogValue@CDraw@@IAEN_NN@Z ; CDraw::CalLogValue
  005ef	6a 00		 push	 0
  005f1	8d 85 7c ff ff
	ff		 lea	 eax, DWORD PTR $T18[ebp]
  005f7	50		 push	 eax
  005f8	8d 85 5c ff ff
	ff		 lea	 eax, DWORD PTR $T12[ebp]
  005fe	50		 push	 eax
  005ff	8d 85 70 ff ff
	ff		 lea	 eax, DWORD PTR $T15[ebp]
  00605	50		 push	 eax
  00606	8d 85 44 ff ff
	ff		 lea	 eax, DWORD PTR _dRealWidth$[ebp]
  0060c	50		 push	 eax
  0060d	8d 46 01	 lea	 eax, DWORD PTR [esi+1]
  00610	50		 push	 eax
  00611	8d 45 e0	 lea	 eax, DWORD PTR _graphRegion$[ebp]
  00614	50		 push	 eax
  00615	dd 9d 70 ff ff
	ff		 fstp	 QWORD PTR $T15[ebp]
  0061b	8d 85 24 ff ff
	ff		 lea	 eax, DWORD PTR _closePt$[ebp]
  00621	50		 push	 eax
  00622	e8 00 00 00 00	 call	 ?GetVerticalPoint@CDataConversion@@SA?AVCPoint@@ABVCRect@@HABN111_N@Z ; CDataConversion::GetVerticalPoint

; 490  : 
; 491  : 	//invert scale .
; 492  : 	CPoint mousePt = point;

  00627	8b b5 78 ff ff
	ff		 mov	 esi, DWORD PTR _point$GSCopy$1$[ebp]
  0062d	83 c4 20	 add	 esp, 32			; 00000020H

; 493  : 	if(pSelectSubGraphData->GetVertScaleInvertType())

  00630	8b 4d 98	 mov	 ecx, DWORD PTR _pSelectSubGraphData$GSCopy$1$[ebp]
  00633	8b 06		 mov	 eax, DWORD PTR [esi]
  00635	89 85 78 ff ff
	ff		 mov	 DWORD PTR _mousePt$2$[ebp], eax
  0063b	8b 46 04	 mov	 eax, DWORD PTR [esi+4]
  0063e	89 85 6c ff ff
	ff		 mov	 DWORD PTR _mousePt$1$[ebp], eax
  00644	e8 00 00 00 00	 call	 ?GetVertScaleInvertType@CSelectSubGraphData@@QBE_NXZ ; CSelectSubGraphData::GetVertScaleInvertType
  00649	84 c0		 test	 al, al
  0064b	74 11		 je	 SHORT $LN104@PointInBox

; 494  : 		mousePt.y = CDataConversion::InvertGraphDataPt(graphRegion, point.y);

  0064d	ff 76 04	 push	 DWORD PTR [esi+4]
  00650	8d 45 e0	 lea	 eax, DWORD PTR _graphRegion$[ebp]
  00653	50		 push	 eax
  00654	e8 00 00 00 00	 call	 ?InvertGraphDataPt@CDataConversion@@SAHABVCRect@@H@Z ; CDataConversion::InvertGraphDataPt
  00659	83 c4 08	 add	 esp, 8
  0065c	eb 06		 jmp	 SHORT $LN14@PointInBox
$LN104@PointInBox:

; 493  : 	if(pSelectSubGraphData->GetVertScaleInvertType())

  0065e	8b 85 6c ff ff
	ff		 mov	 eax, DWORD PTR _mousePt$1$[ebp]
$LN14@PointInBox:

; 495  : 
; 496  : 	if(highPt.y <= mousePt.y && lowPt.y >= mousePt.y && mousePt.x >= openPt.x && mousePt.x <= closePt.x)

  00664	39 85 40 ff ff
	ff		 cmp	 DWORD PTR _highPt$[ebp+4], eax
  0066a	7f 1e		 jg	 SHORT $LN13@PointInBox
  0066c	39 85 38 ff ff
	ff		 cmp	 DWORD PTR _lowPt$[ebp+4], eax
  00672	7c 16		 jl	 SHORT $LN13@PointInBox
  00674	8b 85 78 ff ff
	ff		 mov	 eax, DWORD PTR _mousePt$2$[ebp]
  0067a	3b 85 2c ff ff
	ff		 cmp	 eax, DWORD PTR _openPt$[ebp]
  00680	7c 08		 jl	 SHORT $LN13@PointInBox
  00682	3b 85 24 ff ff
	ff		 cmp	 eax, DWORD PTR _closePt$[ebp]
  00688	7e 03		 jle	 SHORT $LN20@PointInBox
$LN13@PointInBox:

; 497  : 		return nDataIndex;
; 498  : 		
; 499  : 	return -1;

  0068a	83 cf ff	 or	 edi, -1
$LN20@PointInBox:
  0068d	8d 8d dc fe ff
	ff		 lea	 ecx, DWORD PTR _barDraw$[ebp]
  00693	e8 00 00 00 00	 call	 ??1CBarDraw@@UAE@XZ	; CBarDraw::~CBarDraw
  00698	8b c7		 mov	 eax, edi
  0069a	eb 03		 jmp	 SHORT $LN1@PointInBox
$LN103@PointInBox:

; 446  : 	if(pPacket == NULL)	return -1;

  0069c	83 c8 ff	 or	 eax, -1
$LN1@PointInBox:

; 500  : }

  0069f	8b 4d f4	 mov	 ecx, DWORD PTR __$EHRec$[ebp]
  006a2	64 89 0d 00 00
	00 00		 mov	 DWORD PTR fs:0, ecx
  006a9	59		 pop	 ecx
  006aa	5f		 pop	 edi
  006ab	5e		 pop	 esi
  006ac	8b 4d f0	 mov	 ecx, DWORD PTR __$ArrayPad$[ebp]
  006af	33 cd		 xor	 ecx, ebp
  006b1	e8 00 00 00 00	 call	 @__security_check_cookie@4
  006b6	8b e5		 mov	 esp, ebp
  006b8	5d		 pop	 ebp
  006b9	c2 0c 00	 ret	 12			; 0000000cH
_TEXT	ENDS
;	COMDAT text$x
text$x	SEGMENT
__unwindfunclet$?PointInBoxBarGraph@CSelectSubGraph@@AAEHABVCPoint@@PBVCSelectSubGraphData@@PAVCIndicatorList@@@Z$0:
  00000	8d 8d dc fe ff
	ff		 lea	 ecx, DWORD PTR _barDraw$[ebp]
  00006	e9 00 00 00 00	 jmp	 ??1CBarDraw@@UAE@XZ	; CBarDraw::~CBarDraw
  0000b	cc		 int	 3
  0000c	cc		 int	 3
  0000d	cc		 int	 3
  0000e	cc		 int	 3
  0000f	cc		 int	 3
__ehhandler$?PointInBoxBarGraph@CSelectSubGraph@@AAEHABVCPoint@@PBVCSelectSubGraphData@@PAVCIndicatorList@@@Z:
  00010	90		 npad	 1
  00011	90		 npad	 1
  00012	8b 54 24 08	 mov	 edx, DWORD PTR [esp+8]
  00016	8d 42 0c	 lea	 eax, DWORD PTR [edx+12]
  00019	8b 8a dc fe ff
	ff		 mov	 ecx, DWORD PTR [edx-292]
  0001f	33 c8		 xor	 ecx, eax
  00021	e8 00 00 00 00	 call	 @__security_check_cookie@4
  00026	8b 4a fc	 mov	 ecx, DWORD PTR [edx-4]
  00029	33 c8		 xor	 ecx, eax
  0002b	e8 00 00 00 00	 call	 @__security_check_cookie@4
  00030	b8 00 00 00 00	 mov	 eax, OFFSET __ehfuncinfo$?PointInBoxBarGraph@CSelectSubGraph@@AAEHABVCPoint@@PBVCSelectSubGraphData@@PAVCIndicatorList@@@Z
  00035	e9 00 00 00 00	 jmp	 ___CxxFrameHandler3
text$x	ENDS
?PointInBoxBarGraph@CSelectSubGraph@@AAEHABVCPoint@@PBVCSelectSubGraphData@@PAVCIndicatorList@@@Z ENDP ; CSelectSubGraph::PointInBoxBarGraph
; Function compile flags: /Ogtp
; File D:\git\src\IBK\IBK_DRFN\ProjSrc\SrcChartEx\ChartOCX\GraphDraw\SelectSubGraph.cpp
; File C:\Program Files (x86)\Microsoft Visual Studio\2019\Community\VC\Tools\MSVC\14.29.30133\atlmfc\include\afxtempl.h
; File D:\git\src\IBK\IBK_DRFN\ProjSrc\SrcChartEx\ChartOCX\GraphDraw\SelectSubGraph.cpp
; File D:\git\src\IBK\IBK_DRFN\ProjSrc\SrcChartEx\ChartOCX\Include_Chart\BlockBaseData.h
; File D:\git\src\IBK\IBK_DRFN\ProjSrc\SrcChartEx\ChartOCX\GraphDraw\SelectSubGraph.cpp
;	COMDAT ?PointInTopBottomSignalGraph@CSelectSubGraph@@AAEHABVCPoint@@PBVCSelectSubGraphData@@@Z
_TEXT	SEGMENT
$T1 = -196						; size = 16
$T2 = -180						; size = 16
_realWidth$ = -164					; size = 8
_point$GSCopy$1$ = -156					; size = 4
tv740 = -152						; size = 4
$T3 = -152						; size = 4
$T4 = -148						; size = 8
_pointPacket$1$ = -144					; size = 4
_dataPt$ = -140						; size = 8
$T5 = -132						; size = 8
_dataStart$1$ = -128					; size = 4
_pointPos$1$ = -124					; size = 4
_dataPacket$1$ = -124					; size = 4
_dData$1$ = -120					; size = 8
$T6 = -120						; size = 8
$T7 = -120						; size = 8
$T8 = -120						; size = 8
_pageDataCount$1$ = -116				; size = 4
_pSelectSubGraphData$GSCopy$1$ = -112			; size = 4
_this$GSCopy$1$ = -108					; size = 4
$T9 = -104						; size = 68
_graphRegion$ = -36					; size = 16
_drawingRegion$ = -20					; size = 16
$T10 = -12						; size = 8
_dataPos$1$ = -8					; size = 4
$T11 = -8						; size = 4
__$ArrayPad$ = -4					; size = 4
_point$ = 8						; size = 4
_pSelectSubGraphData$ = 12				; size = 4
?PointInTopBottomSignalGraph@CSelectSubGraph@@AAEHABVCPoint@@PBVCSelectSubGraphData@@@Z PROC ; CSelectSubGraph::PointInTopBottomSignalGraph, COMDAT
; _this$ = ecx

; 860  : {

  00000	55		 push	 ebp
  00001	8b ec		 mov	 ebp, esp
  00003	81 ec c4 00 00
	00		 sub	 esp, 196		; 000000c4H
  00009	a1 00 00 00 00	 mov	 eax, DWORD PTR ___security_cookie
  0000e	33 c5		 xor	 eax, ebp
  00010	89 45 fc	 mov	 DWORD PTR __$ArrayPad$[ebp], eax
  00013	53		 push	 ebx
  00014	8b 5d 0c	 mov	 ebx, DWORD PTR _pSelectSubGraphData$[ebp]

; 861  : 	bool checkUpDown = true;
; 862  : 	if(pSelectSubGraphData->GetSubGraphStyle().GetGraphDataViewStyle() == CGraphBaseData::BottomSignal)

  00017	8d 85 68 ff ff
	ff		 lea	 eax, DWORD PTR $T3[ebp]
  0001d	56		 push	 esi
  0001e	8b 75 08	 mov	 esi, DWORD PTR _point$[ebp]
  00021	57		 push	 edi
  00022	89 4d 94	 mov	 DWORD PTR _this$GSCopy$1$[ebp], ecx
  00025	8b cb		 mov	 ecx, ebx
  00027	50		 push	 eax
  00028	89 b5 64 ff ff
	ff		 mov	 DWORD PTR _point$GSCopy$1$[ebp], esi
  0002e	89 5d 90	 mov	 DWORD PTR _pSelectSubGraphData$GSCopy$1$[ebp], ebx
  00031	e8 00 00 00 00	 call	 ?GetSubGraphStyle@CSelectSubGraphData@@QBE?AVCGraphStyle@@XZ ; CSelectSubGraphData::GetSubGraphStyle

; 863  : 		checkUpDown = false;
; 864  : 
; 865  : 	const CList< CPacket *, CPacket *> &packetList = pSelectSubGraphData->GetSubGraphPacketList()->GetSubGraphPacketList();

  00036	8b cb		 mov	 ecx, ebx
  00038	8b 00		 mov	 eax, DWORD PTR [eax]
  0003a	89 85 68 ff ff
	ff		 mov	 DWORD PTR tv740[ebp], eax
  00040	e8 00 00 00 00	 call	 ?GetSubGraphPacketList@CSelectSubGraphData@@QBEPAVCSubGraphPacketList@@XZ ; CSelectSubGraphData::GetSubGraphPacketList
  00045	8b c8		 mov	 ecx, eax
  00047	e8 00 00 00 00	 call	 ?GetSubGraphPacketList@CSubGraphPacketList@@QBEABV?$CList@PAVCPacket@@PAV1@@@XZ ; CSubGraphPacketList::GetSubGraphPacketList

; 866  : 	if(packetList.GetCount() <= 0)

  0004c	83 78 0c 00	 cmp	 DWORD PTR [eax+12], 0
  00050	0f 8e ae 00 00
	00		 jle	 $LN7@PointInTop

; 867  : 		return -1;
; 868  : 
; 869  : 	CPacket* dataPacket = NULL;
; 870  : 	CPacket* pointPacket = NULL;
; 871  : 	POSITION pos = packetList.GetHeadPosition();

  00056	8b 40 04	 mov	 eax, DWORD PTR [eax+4]

; 872  : 	if(pos == NULL)	

  00059	85 c0		 test	 eax, eax
  0005b	0f 84 a3 00 00
	00		 je	 $LN7@PointInTop
; File C:\Program Files (x86)\Microsoft Visual Studio\2019\Community\VC\Tools\MSVC\14.29.30133\atlmfc\include\afxtempl.h

; 819  : 		rPosition = (POSITION) pNode->pNext;

  00061	8b 08		 mov	 ecx, DWORD PTR [eax]
; File D:\git\src\IBK\IBK_DRFN\ProjSrc\SrcChartEx\ChartOCX\GraphDraw\SelectSubGraph.cpp

; 874  : 	dataPacket = packetList.GetNext(pos);

  00063	8b 40 08	 mov	 eax, DWORD PTR [eax+8]
  00066	89 45 84	 mov	 DWORD PTR _dataPacket$1$[ebp], eax

; 875  : 	if(pos == NULL)	

  00069	85 c9		 test	 ecx, ecx
  0006b	0f 84 93 00 00
	00		 je	 $LN7@PointInTop

; 876  : 		return -1;
; 877  : 	pointPacket = packetList.GetNext(pos);

  00071	8b 41 08	 mov	 eax, DWORD PTR [ecx+8]

; 878  : 
; 879  : 	int dataStart = pSelectSubGraphData->GetDisplayAttributes().GetDataStartInBlock();

  00074	8b cb		 mov	 ecx, ebx
  00076	89 85 70 ff ff
	ff		 mov	 DWORD PTR _pointPacket$1$[ebp], eax
  0007c	8d 45 88	 lea	 eax, DWORD PTR $T8[ebp]
  0007f	50		 push	 eax
  00080	e8 00 00 00 00	 call	 ?GetDisplayAttributes@CSelectSubGraphData@@QBE?AVCDisplayAttributes@@XZ ; CSelectSubGraphData::GetDisplayAttributes
  00085	8b c8		 mov	 ecx, eax
  00087	e8 00 00 00 00	 call	 ?GetDataStartInBlock@CDisplayAttributes@@QBEHXZ ; CDisplayAttributes::GetDataStartInBlock
  0008c	89 45 80	 mov	 DWORD PTR _dataStart$1$[ebp], eax

; 880  : 	int dataEnd = pSelectSubGraphData->GetDisplayAttributes().GetDataEndInBlock();

  0008f	8b cb		 mov	 ecx, ebx
  00091	8d 45 88	 lea	 eax, DWORD PTR $T7[ebp]
  00094	50		 push	 eax
  00095	e8 00 00 00 00	 call	 ?GetDisplayAttributes@CSelectSubGraphData@@QBE?AVCDisplayAttributes@@XZ ; CSelectSubGraphData::GetDisplayAttributes
  0009a	8b c8		 mov	 ecx, eax
  0009c	e8 00 00 00 00	 call	 ?GetDataEndInBlock@CDisplayAttributes@@QBEHXZ ; CDisplayAttributes::GetDataEndInBlock
  000a1	8b f8		 mov	 edi, eax

; 881  : 	int pageDataCount = pSelectSubGraphData->GetDisplayAttributes().GetDataCountInBlock();

  000a3	8b cb		 mov	 ecx, ebx
  000a5	8d 45 88	 lea	 eax, DWORD PTR $T6[ebp]
  000a8	50		 push	 eax
  000a9	e8 00 00 00 00	 call	 ?GetDisplayAttributes@CSelectSubGraphData@@QBE?AVCDisplayAttributes@@XZ ; CSelectSubGraphData::GetDisplayAttributes
  000ae	8b c8		 mov	 ecx, eax
  000b0	e8 00 00 00 00	 call	 ?GetDataCountInBlock@CDisplayAttributes@@QBEHXZ ; CDisplayAttributes::GetDataCountInBlock
  000b5	89 45 8c	 mov	 DWORD PTR _pageDataCount$1$[ebp], eax

; 883  : 	CRect graphRegion = pSelectSubGraphData->GetGraphRegions().GetDrawingRegion();

  000b8	8b cb		 mov	 ecx, ebx
  000ba	8d 45 f8	 lea	 eax, DWORD PTR $T11[ebp]
; File D:\git\src\IBK\IBK_DRFN\ProjSrc\SrcChartEx\ChartOCX\Include_Chart\BlockBaseData.h

; 43   : 	CGraphStyle(const int style) { m_nStyle = style; };

  000bd	c7 45 f8 ff ff
	ff ff		 mov	 DWORD PTR $T11[ebp], -1
; File D:\git\src\IBK\IBK_DRFN\ProjSrc\SrcChartEx\ChartOCX\GraphDraw\SelectSubGraph.cpp

; 883  : 	CRect graphRegion = pSelectSubGraphData->GetGraphRegions().GetDrawingRegion();

  000c4	50		 push	 eax
  000c5	6a ff		 push	 -1
  000c7	8d 45 dc	 lea	 eax, DWORD PTR _graphRegion$[ebp]
  000ca	50		 push	 eax
  000cb	8d 45 98	 lea	 eax, DWORD PTR $T9[ebp]
  000ce	50		 push	 eax
  000cf	e8 00 00 00 00	 call	 ?GetGraphRegions@CSelectSubGraphData@@QBE?AVCGraphRegions@@XZ ; CSelectSubGraphData::GetGraphRegions
  000d4	8b c8		 mov	 ecx, eax
  000d6	e8 00 00 00 00	 call	 ?GetDrawingRegion@CGraphRegions@@QBE?AVCRect@@W4GRAPHTYPE@CGraphBaseData@@ABVCGraphStyle@@@Z ; CGraphRegions::GetDrawingRegion

; 884  : 	int dataIndex = 0;
; 885  : 	dataIndex = GetDataIndex(graphRegion, point, dataStart, dataEnd, pageDataCount); 

  000db	0f 10 45 dc	 movups	 xmm0, XMMWORD PTR _graphRegion$[ebp]
  000df	8b 0e		 mov	 ecx, DWORD PTR [esi]
  000e1	0f 11 45 ec	 movups	 XMMWORD PTR _drawingRegion$[ebp], xmm0
  000e5	66 0f 73 d8 08	 psrldq	 xmm0, 8
  000ea	66 0f 7e c0	 movd	 eax, xmm0
  000ee	3b c1		 cmp	 eax, ecx

; 1288 : 	if(drawingRegion.right <= point.x)

  000f0	7f 28		 jg	 SHORT $LN32@PointInTop

; 1289 : 		return -1;

  000f2	8b 4d 94	 mov	 ecx, DWORD PTR _this$GSCopy$1$[ebp]
  000f5	8d 45 dc	 lea	 eax, DWORD PTR _graphRegion$[ebp]
  000f8	57		 push	 edi
  000f9	ff 75 80	 push	 DWORD PTR _dataStart$1$[ebp]
  000fc	50		 push	 eax
$LN51@PointInTop:

; 895  : 	}
; 896  : 	else
; 897  : 		return -1;

  000fd	e8 00 00 00 00	 call	 ?CalRealWidth@CDraw@@IAENABVCRect@@HH@Z ; CDraw::CalRealWidth
  00102	dd d8		 fstp	 ST(0)
$LN7@PointInTop:

; 938  : 		}
; 939  : 	}
; 940  : 	return -1;
; 941  : }

  00104	5f		 pop	 edi
  00105	5e		 pop	 esi
  00106	83 c8 ff	 or	 eax, -1
  00109	5b		 pop	 ebx
  0010a	8b 4d fc	 mov	 ecx, DWORD PTR __$ArrayPad$[ebp]
  0010d	33 cd		 xor	 ecx, ebp
  0010f	e8 00 00 00 00	 call	 @__security_check_cookie@4
  00114	8b e5		 mov	 esp, ebp
  00116	5d		 pop	 ebp
  00117	c2 08 00	 ret	 8
$LN32@PointInTop:

; 1290 : 	int index = CDataConversion::AbsoluteToRelative_X(drawingRegion, point.x, pageDataCount);

  0011a	ff 75 8c	 push	 DWORD PTR _pageDataCount$1$[ebp]
  0011d	8d 45 ec	 lea	 eax, DWORD PTR _drawingRegion$[ebp]
  00120	51		 push	 ecx
  00121	50		 push	 eax
  00122	e8 00 00 00 00	 call	 ?AbsoluteToRelative_X@CDataConversion@@SAHABVCRect@@HH@Z ; CDataConversion::AbsoluteToRelative_X
  00127	8b d8		 mov	 ebx, eax
  00129	83 c4 0c	 add	 esp, 12			; 0000000cH

; 1291 : 	if(index >= 0)

  0012c	8b 45 80	 mov	 eax, DWORD PTR _dataStart$1$[ebp]
  0012f	85 db		 test	 ebx, ebx
  00131	78 02		 js	 SHORT $LN33@PointInTop

; 1292 : 		index = dataStart + index;

  00133	03 d8		 add	 ebx, eax
$LN33@PointInTop:

; 1293 : 	if(index > dataEnd)

  00135	8b 4d 94	 mov	 ecx, DWORD PTR _this$GSCopy$1$[ebp]
  00138	57		 push	 edi
  00139	50		 push	 eax
  0013a	8d 45 dc	 lea	 eax, DWORD PTR _graphRegion$[ebp]
  0013d	50		 push	 eax
  0013e	3b df		 cmp	 ebx, edi
  00140	7f bb		 jg	 SHORT $LN51@PointInTop

; 886  : 	double realWidth = CDraw::CalRealWidth(graphRegion, dataStart, dataEnd);

  00142	e8 00 00 00 00	 call	 ?CalRealWidth@CDraw@@IAENABVCRect@@HH@Z ; CDraw::CalRealWidth
  00147	dd 9d 5c ff ff
	ff		 fstp	 QWORD PTR _realWidth$[ebp]

; 887  : 	if(dataIndex == -1)

  0014d	83 fb ff	 cmp	 ebx, -1
  00150	74 b2		 je	 SHORT $LN7@PointInTop

; 888  : 		return -1;
; 889  : 
; 890  : 	POSITION dataPos = NULL;
; 891  : 	POSITION pointPos = NULL;
; 892  : 	if(dataPacket->GetnumericDataList() && pointPacket->GetnumericDataList()){

  00152	8b 7d 84	 mov	 edi, DWORD PTR _dataPacket$1$[ebp]
  00155	8b cf		 mov	 ecx, edi
  00157	8b 35 00 00 00
	00		 mov	 esi, DWORD PTR __imp_?GetnumericDataList@CPacket@@QAEPAV?$CList@NN@@XZ
  0015d	ff d6		 call	 esi
  0015f	85 c0		 test	 eax, eax
  00161	74 a1		 je	 SHORT $LN7@PointInTop
  00163	8b 8d 70 ff ff
	ff		 mov	 ecx, DWORD PTR _pointPacket$1$[ebp]
  00169	ff d6		 call	 esi
  0016b	85 c0		 test	 eax, eax
  0016d	74 95		 je	 SHORT $LN7@PointInTop

; 893  : 		dataPos = dataPacket->GetnumericDataList()->FindIndex(dataIndex);

  0016f	53		 push	 ebx
  00170	8b cf		 mov	 ecx, edi
  00172	ff d6		 call	 esi
  00174	8b c8		 mov	 ecx, eax
  00176	e8 00 00 00 00	 call	 ?FindIndex@?$CList@NN@@QBEPAU__POSITION@@H@Z ; CList<double,double>::FindIndex

; 894  : 		pointPos = pointPacket->GetnumericDataList()->FindIndex(dataIndex);

  0017b	8b 8d 70 ff ff
	ff		 mov	 ecx, DWORD PTR _pointPacket$1$[ebp]
  00181	53		 push	 ebx
  00182	89 45 f8	 mov	 DWORD PTR _dataPos$1$[ebp], eax
  00185	ff d6		 call	 esi
  00187	8b c8		 mov	 ecx, eax
  00189	e8 00 00 00 00	 call	 ?FindIndex@?$CList@NN@@QBEPAU__POSITION@@H@Z ; CList<double,double>::FindIndex

; 898  : 	
; 899  : 	
; 900  : 	if(dataPos == NULL) 

  0018e	83 7d f8 00	 cmp	 DWORD PTR _dataPos$1$[ebp], 0
  00192	89 45 84	 mov	 DWORD PTR _pointPos$1$[ebp], eax
  00195	0f 84 69 ff ff
	ff		 je	 $LN7@PointInTop

; 901  : 		return -1;
; 902  : 
; 903  : 	double dData = dataPacket->GetnumericDataList()->GetNext(dataPos);

  0019b	8b cf		 mov	 ecx, edi
  0019d	ff d6		 call	 esi
  0019f	8b 45 f8	 mov	 eax, DWORD PTR _dataPos$1$[ebp]

; 904  : 	if(dData < 1)

  001a2	f2 0f 10 0d 00
	00 00 00	 movsd	 xmm1, QWORD PTR __real@3ff0000000000000
  001aa	f2 0f 10 40 08	 movsd	 xmm0, QWORD PTR [eax+8]
  001af	66 0f 2f c8	 comisd	 xmm1, xmm0
  001b3	f2 0f 11 45 88	 movsd	 QWORD PTR _dData$1$[ebp], xmm0
  001b8	0f 87 46 ff ff
	ff		 ja	 $LN7@PointInTop

; 905  : 		return -1;
; 906  : 	
; 907  : 	int nWidth = CMath::Round(realWidth/* 2/3*/);

  001be	f2 0f 10 85 5c
	ff ff ff	 movsd	 xmm0, QWORD PTR _realWidth$[ebp]
  001c6	83 ec 08	 sub	 esp, 8
  001c9	f2 0f 11 04 24	 movsd	 QWORD PTR [esp], xmm0
  001ce	e8 00 00 00 00	 call	 ?Round@CMath@@SAHN@Z	; CMath::Round
  001d3	8b f8		 mov	 edi, eax
  001d5	83 c4 08	 add	 esp, 8

; 908  : 	if(nWidth > 15)

  001d8	83 ff 0f	 cmp	 edi, 15			; 0000000fH
  001db	7e 07		 jle	 SHORT $LN11@PointInTop

; 909  : 		nWidth = 15;

  001dd	bf 0f 00 00 00	 mov	 edi, 15			; 0000000fH
  001e2	eb 0a		 jmp	 SHORT $LN13@PointInTop
$LN11@PointInTop:

; 910  : 	else if(nWidth < 10)

  001e4	b8 0a 00 00 00	 mov	 eax, 10			; 0000000aH
  001e9	3b f8		 cmp	 edi, eax
  001eb	0f 4c f8	 cmovl	 edi, eax
$LN13@PointInTop:

; 1324 : 	return (dataIndex - dataStart);

  001ee	8b 45 80	 mov	 eax, DWORD PTR _dataStart$1$[ebp]
  001f1	8b f3		 mov	 esi, ebx

; 911  : 		nWidth = 10;
; 912  : 
; 913  : 	int nIndex = GetIndex(dataIndex, dataStart);
; 914  : 	CPoint dataPt = CDataConversion::GetVerticalPoint(graphRegion, nIndex, realWidth, CDraw::CalLogValue(pSelectSubGraphData->GetVertScaleLogType(), pSelectSubGraphData->GetDisplayDataVertMinMax().GetDisplayMin()), CDraw::CalLogValue(pSelectSubGraphData->GetVertScaleLogType(), pSelectSubGraphData->GetDisplayDataVertMinMax().GetDisplayMax()), CDraw::CalLogValue(pSelectSubGraphData->GetVertScaleLogType(), pointPacket->GetnumericDataList()->GetNext(pointPos)));

  001f3	8b 8d 70 ff ff
	ff		 mov	 ecx, DWORD PTR _pointPacket$1$[ebp]

; 1324 : 	return (dataIndex - dataStart);

  001f9	2b f0		 sub	 esi, eax
  001fb	3b d8		 cmp	 ebx, eax
  001fd	0f 4c f0	 cmovl	 esi, eax

; 911  : 		nWidth = 10;
; 912  : 
; 913  : 	int nIndex = GetIndex(dataIndex, dataStart);
; 914  : 	CPoint dataPt = CDataConversion::GetVerticalPoint(graphRegion, nIndex, realWidth, CDraw::CalLogValue(pSelectSubGraphData->GetVertScaleLogType(), pSelectSubGraphData->GetDisplayDataVertMinMax().GetDisplayMin()), CDraw::CalLogValue(pSelectSubGraphData->GetVertScaleLogType(), pSelectSubGraphData->GetDisplayDataVertMinMax().GetDisplayMax()), CDraw::CalLogValue(pSelectSubGraphData->GetVertScaleLogType(), pointPacket->GetnumericDataList()->GetNext(pointPos)));

  00200	ff 15 00 00 00
	00		 call	 DWORD PTR __imp_?GetnumericDataList@CPacket@@QAEPAV?$CList@NN@@XZ
  00206	8b 45 84	 mov	 eax, DWORD PTR _pointPos$1$[ebp]
  00209	83 ec 08	 sub	 esp, 8
  0020c	8b 4d 90	 mov	 ecx, DWORD PTR _pSelectSubGraphData$GSCopy$1$[ebp]
  0020f	f2 0f 10 40 08	 movsd	 xmm0, QWORD PTR [eax+8]
  00214	f2 0f 11 04 24	 movsd	 QWORD PTR [esp], xmm0
  00219	e8 00 00 00 00	 call	 ?GetVertScaleLogType@CSelectSubGraphData@@QBE_NXZ ; CSelectSubGraphData::GetVertScaleLogType
  0021e	8b 4d 94	 mov	 ecx, DWORD PTR _this$GSCopy$1$[ebp]
  00221	0f b6 c0	 movzx	 eax, al
  00224	50		 push	 eax
  00225	e8 00 00 00 00	 call	 ?CalLogValue@CDraw@@IAEN_NN@Z ; CDraw::CalLogValue
  0022a	8b 4d 90	 mov	 ecx, DWORD PTR _pSelectSubGraphData$GSCopy$1$[ebp]
  0022d	8d 85 4c ff ff
	ff		 lea	 eax, DWORD PTR $T2[ebp]
  00233	50		 push	 eax
  00234	dd 5d f4	 fstp	 QWORD PTR $T10[ebp]
  00237	e8 00 00 00 00	 call	 ?GetDisplayDataVertMinMax@CSelectSubGraphData@@QBE?AVCDisplayDataMinMax@@XZ ; CSelectSubGraphData::GetDisplayDataVertMinMax
  0023c	8b c8		 mov	 ecx, eax
  0023e	ff 15 00 00 00
	00		 call	 DWORD PTR __imp_?GetDisplayMax@CDisplayDataMinMax@@QBENXZ
  00244	8b 4d 90	 mov	 ecx, DWORD PTR _pSelectSubGraphData$GSCopy$1$[ebp]
  00247	83 ec 08	 sub	 esp, 8
  0024a	dd 1c 24	 fstp	 QWORD PTR [esp]
  0024d	e8 00 00 00 00	 call	 ?GetVertScaleLogType@CSelectSubGraphData@@QBE_NXZ ; CSelectSubGraphData::GetVertScaleLogType
  00252	8b 4d 94	 mov	 ecx, DWORD PTR _this$GSCopy$1$[ebp]
  00255	0f b6 c0	 movzx	 eax, al
  00258	50		 push	 eax
  00259	e8 00 00 00 00	 call	 ?CalLogValue@CDraw@@IAEN_NN@Z ; CDraw::CalLogValue
  0025e	8b 4d 90	 mov	 ecx, DWORD PTR _pSelectSubGraphData$GSCopy$1$[ebp]
  00261	8d 85 3c ff ff
	ff		 lea	 eax, DWORD PTR $T1[ebp]
  00267	50		 push	 eax
  00268	dd 9d 6c ff ff
	ff		 fstp	 QWORD PTR $T4[ebp]
  0026e	e8 00 00 00 00	 call	 ?GetDisplayDataVertMinMax@CSelectSubGraphData@@QBE?AVCDisplayDataMinMax@@XZ ; CSelectSubGraphData::GetDisplayDataVertMinMax
  00273	8b c8		 mov	 ecx, eax
  00275	ff 15 00 00 00
	00		 call	 DWORD PTR __imp_?GetDisplayMin@CDisplayDataMinMax@@QBENXZ
  0027b	8b 4d 90	 mov	 ecx, DWORD PTR _pSelectSubGraphData$GSCopy$1$[ebp]
  0027e	83 ec 08	 sub	 esp, 8
  00281	dd 1c 24	 fstp	 QWORD PTR [esp]
  00284	e8 00 00 00 00	 call	 ?GetVertScaleLogType@CSelectSubGraphData@@QBE_NXZ ; CSelectSubGraphData::GetVertScaleLogType
  00289	8b 4d 94	 mov	 ecx, DWORD PTR _this$GSCopy$1$[ebp]
  0028c	0f b6 c0	 movzx	 eax, al
  0028f	50		 push	 eax
  00290	e8 00 00 00 00	 call	 ?CalLogValue@CDraw@@IAEN_NN@Z ; CDraw::CalLogValue
  00295	6a 01		 push	 1
  00297	8d 45 f4	 lea	 eax, DWORD PTR $T10[ebp]
  0029a	50		 push	 eax
  0029b	8d 85 6c ff ff
	ff		 lea	 eax, DWORD PTR $T4[ebp]
  002a1	50		 push	 eax
  002a2	8d 85 7c ff ff
	ff		 lea	 eax, DWORD PTR $T5[ebp]
  002a8	50		 push	 eax
  002a9	8d 85 5c ff ff
	ff		 lea	 eax, DWORD PTR _realWidth$[ebp]
  002af	50		 push	 eax
  002b0	56		 push	 esi
  002b1	8d 45 dc	 lea	 eax, DWORD PTR _graphRegion$[ebp]
  002b4	50		 push	 eax
  002b5	8d 85 74 ff ff
	ff		 lea	 eax, DWORD PTR _dataPt$[ebp]
  002bb	50		 push	 eax
  002bc	dd 9d 7c ff ff
	ff		 fstp	 QWORD PTR $T5[ebp]
  002c2	e8 00 00 00 00	 call	 ?GetVerticalPoint@CDataConversion@@SA?AVCPoint@@ABVCRect@@HABN111_N@Z ; CDataConversion::GetVerticalPoint

; 915  : 
; 916  : 	int unit = 2;

  002c7	8b b5 64 ff ff
	ff		 mov	 esi, DWORD PTR _point$GSCopy$1$[ebp]
  002cd	83 c4 20	 add	 esp, 32			; 00000020H

; 917  : 	
; 918  : 	if(checkUpDown){

  002d0	83 bd 68 ff ff
	ff 04		 cmp	 DWORD PTR tv740[ebp], 4
  002d7	8b 8d 78 ff ff
	ff		 mov	 ecx, DWORD PTR _dataPt$[ebp+4]
  002dd	8b 56 04	 mov	 edx, DWORD PTR [esi+4]
  002e0	74 43		 je	 SHORT $LN14@PointInTop

; 919  : 		dataPt.y = dataPt.y - 4;

  002e2	83 c1 fc	 add	 ecx, -4			; fffffffcH
  002e5	8d 41 02	 lea	 eax, DWORD PTR [ecx+2]

; 921  : 			if(point.y <= dataPt.y + unit && point.y >= dataPt.y - nWidth - unit && point.x >= dataPt.x - nWidth -unit && point.x <= dataPt.x + nWidth + unit)

  002e8	3b d0		 cmp	 edx, eax
  002ea	0f 8f 14 fe ff
	ff		 jg	 $LN7@PointInTop

; 920  : 		if(dData == 1){

  002f0	f2 0f 10 45 88	 movsd	 xmm0, QWORD PTR _dData$1$[ebp]
  002f5	66 0f 2e 05 00
	00 00 00	 ucomisd xmm0, QWORD PTR __real@3ff0000000000000
  002fd	9f		 lahf
  002fe	f6 c4 44	 test	 ah, 68			; 00000044H
  00301	7a 0f		 jp	 SHORT $LN16@PointInTop

; 921  : 			if(point.y <= dataPt.y + unit && point.y >= dataPt.y - nWidth - unit && point.x >= dataPt.x - nWidth -unit && point.x <= dataPt.x + nWidth + unit)

  00303	2b cf		 sub	 ecx, edi
  00305	83 e9 02	 sub	 ecx, 2
  00308	3b d1		 cmp	 edx, ecx
  0030a	0f 8c f4 fd ff
	ff		 jl	 $LN7@PointInTop
  00310	eb 43		 jmp	 SHORT $LN48@PointInTop
$LN16@PointInTop:

; 922  : 				return dataIndex;
; 923  : 		}
; 924  : 		else{
; 925  : 			if(point.y <= dataPt.y + unit&& point.y >= dataPt.y - nWidth*2 - unit && point.x >= dataPt.x - nWidth - unit && point.x <= dataPt.x + nWidth + unit)

  00312	8d 04 7d 02 00
	00 00		 lea	 eax, DWORD PTR [edi*2+2]
  00319	2b c8		 sub	 ecx, eax
  0031b	3b d1		 cmp	 edx, ecx
  0031d	0f 8c e1 fd ff
	ff		 jl	 $LN7@PointInTop
  00323	eb 30		 jmp	 SHORT $LN48@PointInTop
$LN14@PointInTop:

; 926  : 				return dataIndex;
; 927  : 		}
; 928  : 	}
; 929  : 	else{
; 930  : 		dataPt.y = dataPt.y + 4;

  00325	8d 41 02	 lea	 eax, DWORD PTR [ecx+2]

; 932  : 			if(point.y >= dataPt.y - unit && point.y <= dataPt.y + nWidth + unit && point.x >= dataPt.x - nWidth - unit && point.x <= dataPt.x + nWidth + unit)

  00328	3b d0		 cmp	 edx, eax
  0032a	0f 8c d4 fd ff
	ff		 jl	 $LN7@PointInTop

; 931  : 		if(dData == 1){

  00330	f2 0f 10 45 88	 movsd	 xmm0, QWORD PTR _dData$1$[ebp]
  00335	66 0f 2e 05 00
	00 00 00	 ucomisd xmm0, QWORD PTR __real@3ff0000000000000
  0033d	9f		 lahf
  0033e	f6 c4 44	 test	 ah, 68			; 00000044H
  00341	8d 41 06	 lea	 eax, DWORD PTR [ecx+6]
  00344	7a 04		 jp	 SHORT $LN20@PointInTop

; 932  : 			if(point.y >= dataPt.y - unit && point.y <= dataPt.y + nWidth + unit && point.x >= dataPt.x - nWidth - unit && point.x <= dataPt.x + nWidth + unit)

  00346	03 c7		 add	 eax, edi
  00348	eb 03		 jmp	 SHORT $LN50@PointInTop
$LN20@PointInTop:

; 933  : 				return dataIndex;
; 934  : 		}
; 935  : 		else{
; 936  : 			if(point.y >= dataPt.y - unit && point.y <= dataPt.y + nWidth*2 + unit && point.x >= dataPt.x - nWidth - unit && point.x <= dataPt.x + nWidth + unit)

  0034a	8d 04 78	 lea	 eax, DWORD PTR [eax+edi*2]
$LN50@PointInTop:

; 937  : 				return dataIndex;

  0034d	3b d0		 cmp	 edx, eax
  0034f	0f 8f af fd ff
	ff		 jg	 $LN7@PointInTop
$LN48@PointInTop:
  00355	8b 95 74 ff ff
	ff		 mov	 edx, DWORD PTR _dataPt$[ebp]
  0035b	8b c2		 mov	 eax, edx
  0035d	8b 0e		 mov	 ecx, DWORD PTR [esi]
  0035f	2b c7		 sub	 eax, edi
  00361	83 e8 02	 sub	 eax, 2
  00364	3b c8		 cmp	 ecx, eax
  00366	0f 8c 98 fd ff
	ff		 jl	 $LN7@PointInTop
  0036c	8d 42 02	 lea	 eax, DWORD PTR [edx+2]
  0036f	03 c7		 add	 eax, edi
  00371	3b c8		 cmp	 ecx, eax
  00373	0f 8f 8b fd ff
	ff		 jg	 $LN7@PointInTop

; 938  : 		}
; 939  : 	}
; 940  : 	return -1;
; 941  : }

  00379	8b 4d fc	 mov	 ecx, DWORD PTR __$ArrayPad$[ebp]
  0037c	8b c3		 mov	 eax, ebx
  0037e	5f		 pop	 edi
  0037f	5e		 pop	 esi
  00380	33 cd		 xor	 ecx, ebp
  00382	5b		 pop	 ebx
  00383	e8 00 00 00 00	 call	 @__security_check_cookie@4
  00388	8b e5		 mov	 esp, ebp
  0038a	5d		 pop	 ebp
  0038b	c2 08 00	 ret	 8
?PointInTopBottomSignalGraph@CSelectSubGraph@@AAEHABVCPoint@@PBVCSelectSubGraphData@@@Z ENDP ; CSelectSubGraph::PointInTopBottomSignalGraph
_TEXT	ENDS
; Function compile flags: /Ogtp
; File D:\git\src\IBK\IBK_DRFN\ProjSrc\SrcChartEx\ChartOCX\GraphDraw\SelectSubGraph.cpp
; File D:\git\src\IBK\IBK_DRFN\ProjSrc\SrcChartEx\ChartOCX\Include_Chart\BlockBaseData.h
; File D:\git\src\IBK\IBK_DRFN\ProjSrc\SrcChartEx\ChartOCX\GraphDraw\SelectSubGraph.cpp
; File C:\Program Files (x86)\Microsoft Visual Studio\2019\Community\VC\Tools\MSVC\14.29.30133\atlmfc\include\afxtempl.h
; File D:\git\src\IBK\IBK_DRFN\ProjSrc\SrcChartEx\ChartOCX\GraphDraw\SelectSubGraph.cpp
;	COMDAT ?PointInDotBarGraph@CSelectSubGraph@@AAEHABVCPoint@@PBVCSelectSubGraphData@@PAVCIndicatorList@@@Z
_TEXT	SEGMENT
_dataViewMin$ = -160					; size = 8
_dataViewMax$ = -152					; size = 8
_dataPt$ = -144						; size = 8
_realWidth$ = -136					; size = 8
_point$GSCopy$1$ = -128					; size = 4
_dataPacket$1$ = -124					; size = 4
_dataEnd$1$ = -120					; size = 4
_dataStart$1$ = -116					; size = 4
_pSelectSubGraphData$GSCopy$1$ = -112			; size = 4
_mousePoint$2$ = -112					; size = 4
_this$GSCopy$1$ = -108					; size = 4
$T1 = -104						; size = 68
_graphRegion$ = -36					; size = 16
_drawingRegion$ = -20					; size = 16
$T2 = -20						; size = 16
$T3 = -20						; size = 16
$T4 = -12						; size = 8
$T5 = -12						; size = 8
$T6 = -12						; size = 8
$T7 = -12						; size = 8
_mousePoint$1$ = -8					; size = 4
$T8 = -8						; size = 4
__$ArrayPad$ = -4					; size = 4
_point$ = 8						; size = 4
_pSelectSubGraphData$ = 12				; size = 4
_pIndicatorList$ = 16					; size = 4
?PointInDotBarGraph@CSelectSubGraph@@AAEHABVCPoint@@PBVCSelectSubGraphData@@PAVCIndicatorList@@@Z PROC ; CSelectSubGraph::PointInDotBarGraph, COMDAT
; _this$ = ecx

; 279  : {			

  00000	55		 push	 ebp
  00001	8b ec		 mov	 ebp, esp
  00003	81 ec a0 00 00
	00		 sub	 esp, 160		; 000000a0H
  00009	a1 00 00 00 00	 mov	 eax, DWORD PTR ___security_cookie
  0000e	33 c5		 xor	 eax, ebp
  00010	89 45 fc	 mov	 DWORD PTR __$ArrayPad$[ebp], eax
  00013	53		 push	 ebx
  00014	8b 5d 0c	 mov	 ebx, DWORD PTR _pSelectSubGraphData$[ebp]
  00017	56		 push	 esi
  00018	8b 75 08	 mov	 esi, DWORD PTR _point$[ebp]
  0001b	89 4d 94	 mov	 DWORD PTR _this$GSCopy$1$[ebp], ecx

; 280  : 	const CList< CPacket *, CPacket *> &packetList = pSelectSubGraphData->GetSubGraphPacketList()->GetSubGraphPacketList();

  0001e	8b cb		 mov	 ecx, ebx
  00020	57		 push	 edi
  00021	89 75 80	 mov	 DWORD PTR _point$GSCopy$1$[ebp], esi
  00024	89 5d 90	 mov	 DWORD PTR _pSelectSubGraphData$GSCopy$1$[ebp], ebx
  00027	e8 00 00 00 00	 call	 ?GetSubGraphPacketList@CSelectSubGraphData@@QBEPAVCSubGraphPacketList@@XZ ; CSelectSubGraphData::GetSubGraphPacketList
  0002c	8b c8		 mov	 ecx, eax
  0002e	e8 00 00 00 00	 call	 ?GetSubGraphPacketList@CSubGraphPacketList@@QBEABV?$CList@PAVCPacket@@PAV1@@@XZ ; CSubGraphPacketList::GetSubGraphPacketList

; 281  : 	if(packetList.GetCount() <= 0)

  00033	83 78 0c 00	 cmp	 DWORD PTR [eax+12], 0
  00037	0f 8e 53 02 00
	00		 jle	 $LN7@PointInDot

; 282  : 		return -1;
; 283  : 	POSITION Pos = packetList.GetHeadPosition();

  0003d	8b 40 04	 mov	 eax, DWORD PTR [eax+4]

; 284  : 	if(Pos == NULL)

  00040	85 c0		 test	 eax, eax
  00042	0f 84 48 02 00
	00		 je	 $LN7@PointInDot

; 285  : 		return -1;
; 286  : 	CPacket* dataPacket;
; 287  : 	dataPacket = packetList.GetNext(Pos);

  00048	8b 40 08	 mov	 eax, DWORD PTR [eax+8]

; 288  : 
; 289  : 	int dataStart = pSelectSubGraphData->GetDisplayAttributes().GetDataStartInBlock();

  0004b	8b cb		 mov	 ecx, ebx
  0004d	89 45 84	 mov	 DWORD PTR _dataPacket$1$[ebp], eax
  00050	8d 45 f4	 lea	 eax, DWORD PTR $T7[ebp]
  00053	50		 push	 eax
  00054	e8 00 00 00 00	 call	 ?GetDisplayAttributes@CSelectSubGraphData@@QBE?AVCDisplayAttributes@@XZ ; CSelectSubGraphData::GetDisplayAttributes
  00059	8b c8		 mov	 ecx, eax
  0005b	e8 00 00 00 00	 call	 ?GetDataStartInBlock@CDisplayAttributes@@QBEHXZ ; CDisplayAttributes::GetDataStartInBlock
  00060	89 45 8c	 mov	 DWORD PTR _dataStart$1$[ebp], eax

; 290  : 	int dataEnd = pSelectSubGraphData->GetDisplayAttributes().GetDataEndInBlock();

  00063	8b cb		 mov	 ecx, ebx
  00065	8d 45 f4	 lea	 eax, DWORD PTR $T6[ebp]
  00068	50		 push	 eax
  00069	e8 00 00 00 00	 call	 ?GetDisplayAttributes@CSelectSubGraphData@@QBE?AVCDisplayAttributes@@XZ ; CSelectSubGraphData::GetDisplayAttributes
  0006e	8b c8		 mov	 ecx, eax
  00070	e8 00 00 00 00	 call	 ?GetDataEndInBlock@CDisplayAttributes@@QBEHXZ ; CDisplayAttributes::GetDataEndInBlock
  00075	89 45 88	 mov	 DWORD PTR _dataEnd$1$[ebp], eax

; 291  : 	int pageDataCount = pSelectSubGraphData->GetDisplayAttributes().GetDataCountInBlock();

  00078	8b cb		 mov	 ecx, ebx
  0007a	8d 45 f4	 lea	 eax, DWORD PTR $T5[ebp]
  0007d	50		 push	 eax
  0007e	e8 00 00 00 00	 call	 ?GetDisplayAttributes@CSelectSubGraphData@@QBE?AVCDisplayAttributes@@XZ ; CSelectSubGraphData::GetDisplayAttributes
  00083	8b c8		 mov	 ecx, eax
  00085	e8 00 00 00 00	 call	 ?GetDataCountInBlock@CDisplayAttributes@@QBEHXZ ; CDisplayAttributes::GetDataCountInBlock
  0008a	8b f8		 mov	 edi, eax
; File D:\git\src\IBK\IBK_DRFN\ProjSrc\SrcChartEx\ChartOCX\Include_Chart\BlockBaseData.h

; 43   : 	CGraphStyle(const int style) { m_nStyle = style; };

  0008c	c7 45 f8 ff ff
	ff ff		 mov	 DWORD PTR $T8[ebp], -1
; File D:\git\src\IBK\IBK_DRFN\ProjSrc\SrcChartEx\ChartOCX\GraphDraw\SelectSubGraph.cpp

; 292  : 	CRect graphRegion = pSelectSubGraphData->GetGraphRegions().GetDrawingRegion();

  00093	8d 45 f8	 lea	 eax, DWORD PTR $T8[ebp]
  00096	8b cb		 mov	 ecx, ebx
  00098	50		 push	 eax
  00099	6a ff		 push	 -1
  0009b	8d 45 dc	 lea	 eax, DWORD PTR _graphRegion$[ebp]
  0009e	50		 push	 eax
  0009f	8d 45 98	 lea	 eax, DWORD PTR $T1[ebp]
  000a2	50		 push	 eax
  000a3	e8 00 00 00 00	 call	 ?GetGraphRegions@CSelectSubGraphData@@QBE?AVCGraphRegions@@XZ ; CSelectSubGraphData::GetGraphRegions
  000a8	8b c8		 mov	 ecx, eax
  000aa	e8 00 00 00 00	 call	 ?GetDrawingRegion@CGraphRegions@@QBE?AVCRect@@W4GRAPHTYPE@CGraphBaseData@@ABVCGraphStyle@@@Z ; CGraphRegions::GetDrawingRegion

; 293  : 	int dataIndex = GetDataIndex(graphRegion, point, dataStart, dataEnd, pageDataCount); 

  000af	0f 10 45 dc	 movups	 xmm0, XMMWORD PTR _graphRegion$[ebp]
  000b3	8b 0e		 mov	 ecx, DWORD PTR [esi]
  000b5	0f 11 45 ec	 movups	 XMMWORD PTR _drawingRegion$[ebp], xmm0
  000b9	66 0f 73 d8 08	 psrldq	 xmm0, 8
  000be	66 0f 7e c0	 movd	 eax, xmm0
  000c2	3b c1		 cmp	 eax, ecx

; 1288 : 	if(drawingRegion.right <= point.x)

  000c4	0f 8e c6 01 00
	00		 jle	 $LN7@PointInDot

; 1289 : 		return -1;
; 1290 : 	int index = CDataConversion::AbsoluteToRelative_X(drawingRegion, point.x, pageDataCount);

  000ca	57		 push	 edi
  000cb	51		 push	 ecx
  000cc	8d 45 ec	 lea	 eax, DWORD PTR _drawingRegion$[ebp]
  000cf	50		 push	 eax
  000d0	e8 00 00 00 00	 call	 ?AbsoluteToRelative_X@CDataConversion@@SAHABVCRect@@HH@Z ; CDataConversion::AbsoluteToRelative_X
  000d5	8b f8		 mov	 edi, eax
  000d7	83 c4 0c	 add	 esp, 12			; 0000000cH

; 1291 : 	if(index >= 0)

  000da	85 ff		 test	 edi, edi
  000dc	78 03		 js	 SHORT $LN15@PointInDot

; 1292 : 		index = dataStart + index;

  000de	03 7d 8c	 add	 edi, DWORD PTR _dataStart$1$[ebp]
$LN15@PointInDot:

; 1293 : 	if(index > dataEnd)

  000e1	3b 7d 88	 cmp	 edi, DWORD PTR _dataEnd$1$[ebp]
  000e4	0f 8f a6 01 00
	00		 jg	 $LN7@PointInDot

; 294  : 
; 295  : 	if(dataIndex == -1)

  000ea	83 ff ff	 cmp	 edi, -1
  000ed	0f 84 9d 01 00
	00		 je	 $LN7@PointInDot

; 296  : 		return -1;
; 297  : 	 
; 298  : 	POSITION dataPos = dataPacket->GetnumericDataList()->FindIndex(dataIndex);

  000f3	8b 4d 84	 mov	 ecx, DWORD PTR _dataPacket$1$[ebp]
  000f6	8b f7		 mov	 esi, edi
  000f8	ff 15 00 00 00
	00		 call	 DWORD PTR __imp_?GetnumericDataList@CPacket@@QAEPAV?$CList@NN@@XZ
; File C:\Program Files (x86)\Microsoft Visual Studio\2019\Community\VC\Tools\MSVC\14.29.30133\atlmfc\include\afxtempl.h

; 1133 : 	if (nIndex >= m_nCount || nIndex < 0)

  000fe	3b 78 0c	 cmp	 edi, DWORD PTR [eax+12]
  00101	0f 8d 89 01 00
	00		 jge	 $LN7@PointInDot
  00107	85 ff		 test	 edi, edi
  00109	0f 88 81 01 00
	00		 js	 $LN7@PointInDot

; 1134 : 		return NULL;  // went too far
; 1135 : 
; 1136 : 	CNode* pNode = m_pNodeHead;

  0010f	8b 58 04	 mov	 ebx, DWORD PTR [eax+4]

; 1137 : 	while (nIndex--)

  00112	74 07		 je	 SHORT $LN30@PointInDot
$LL19@PointInDot:

; 1138 : 	{
; 1139 : 		ASSERT(AfxIsValidAddress(pNode, sizeof(CNode)));
; 1140 : 		pNode = pNode->pNext;

  00114	8b 1b		 mov	 ebx, DWORD PTR [ebx]
  00116	83 ee 01	 sub	 esi, 1
  00119	75 f9		 jne	 SHORT $LL19@PointInDot
$LN30@PointInDot:
; File D:\git\src\IBK\IBK_DRFN\ProjSrc\SrcChartEx\ChartOCX\GraphDraw\SelectSubGraph.cpp

; 299  : 	if(dataPos == NULL) 

  0011b	85 db		 test	 ebx, ebx
  0011d	0f 84 6d 01 00
	00		 je	 $LN7@PointInDot

; 300  : 		return -1;
; 301  : 
; 302  : 	double realWidth = CDraw::CalRealWidth(graphRegion, dataStart, dataEnd);

  00123	ff 75 88	 push	 DWORD PTR _dataEnd$1$[ebp]
  00126	8b 4d 94	 mov	 ecx, DWORD PTR _this$GSCopy$1$[ebp]
  00129	8d 45 dc	 lea	 eax, DWORD PTR _graphRegion$[ebp]
  0012c	ff 75 8c	 push	 DWORD PTR _dataStart$1$[ebp]
  0012f	50		 push	 eax
  00130	e8 00 00 00 00	 call	 ?CalRealWidth@CDraw@@IAENABVCRect@@HH@Z ; CDraw::CalRealWidth

; 303  : 	double dataViewMin = CDraw::CalLogValue(pSelectSubGraphData->GetVertScaleLogType(), pSelectSubGraphData->GetDisplayDataVertMinMax().GetDisplayMin());

  00135	8b 75 90	 mov	 esi, DWORD PTR _pSelectSubGraphData$GSCopy$1$[ebp]
  00138	8d 45 ec	 lea	 eax, DWORD PTR $T3[ebp]
  0013b	50		 push	 eax
  0013c	8b ce		 mov	 ecx, esi
  0013e	dd 9d 78 ff ff
	ff		 fstp	 QWORD PTR _realWidth$[ebp]
  00144	e8 00 00 00 00	 call	 ?GetDisplayDataVertMinMax@CSelectSubGraphData@@QBE?AVCDisplayDataMinMax@@XZ ; CSelectSubGraphData::GetDisplayDataVertMinMax
  00149	8b c8		 mov	 ecx, eax
  0014b	ff 15 00 00 00
	00		 call	 DWORD PTR __imp_?GetDisplayMin@CDisplayDataMinMax@@QBENXZ
  00151	83 ec 08	 sub	 esp, 8
  00154	8b ce		 mov	 ecx, esi
  00156	dd 1c 24	 fstp	 QWORD PTR [esp]
  00159	e8 00 00 00 00	 call	 ?GetVertScaleLogType@CSelectSubGraphData@@QBE_NXZ ; CSelectSubGraphData::GetVertScaleLogType
  0015e	8b 4d 94	 mov	 ecx, DWORD PTR _this$GSCopy$1$[ebp]
  00161	0f b6 c0	 movzx	 eax, al
  00164	50		 push	 eax
  00165	e8 00 00 00 00	 call	 ?CalLogValue@CDraw@@IAEN_NN@Z ; CDraw::CalLogValue

; 304  : 	double dataViewMax = CDraw::CalLogValue(pSelectSubGraphData->GetVertScaleLogType(), pSelectSubGraphData->GetDisplayDataVertMinMax().GetDisplayMax());

  0016a	8d 45 ec	 lea	 eax, DWORD PTR $T2[ebp]
  0016d	8b ce		 mov	 ecx, esi
  0016f	50		 push	 eax
  00170	dd 9d 60 ff ff
	ff		 fstp	 QWORD PTR _dataViewMin$[ebp]
  00176	e8 00 00 00 00	 call	 ?GetDisplayDataVertMinMax@CSelectSubGraphData@@QBE?AVCDisplayDataMinMax@@XZ ; CSelectSubGraphData::GetDisplayDataVertMinMax
  0017b	8b c8		 mov	 ecx, eax
  0017d	ff 15 00 00 00
	00		 call	 DWORD PTR __imp_?GetDisplayMax@CDisplayDataMinMax@@QBENXZ
  00183	83 ec 08	 sub	 esp, 8
  00186	8b ce		 mov	 ecx, esi
  00188	dd 1c 24	 fstp	 QWORD PTR [esp]
  0018b	e8 00 00 00 00	 call	 ?GetVertScaleLogType@CSelectSubGraphData@@QBE_NXZ ; CSelectSubGraphData::GetVertScaleLogType
  00190	8b 4d 94	 mov	 ecx, DWORD PTR _this$GSCopy$1$[ebp]
  00193	0f b6 c0	 movzx	 eax, al
  00196	50		 push	 eax
  00197	e8 00 00 00 00	 call	 ?CalLogValue@CDraw@@IAEN_NN@Z ; CDraw::CalLogValue

; 1324 : 	return (dataIndex - dataStart);

  0019c	8b 45 8c	 mov	 eax, DWORD PTR _dataStart$1$[ebp]
  0019f	8b f7		 mov	 esi, edi

; 305  : 	int nIndex = GetIndex(dataIndex, dataStart);
; 306  : 	CPoint dataPt = CDataConversion::GetVerticalPoint(graphRegion, nIndex, realWidth, dataViewMin, dataViewMax, CDraw::CalLogValue(pSelectSubGraphData->GetVertScaleLogType(), dataPacket->GetnumericDataList()->GetNext(dataPos)));

  001a1	8b 4d 84	 mov	 ecx, DWORD PTR _dataPacket$1$[ebp]

; 1324 : 	return (dataIndex - dataStart);

  001a4	2b f0		 sub	 esi, eax
  001a6	3b f8		 cmp	 edi, eax

; 304  : 	double dataViewMax = CDraw::CalLogValue(pSelectSubGraphData->GetVertScaleLogType(), pSelectSubGraphData->GetDisplayDataVertMinMax().GetDisplayMax());

  001a8	dd 9d 68 ff ff
	ff		 fstp	 QWORD PTR _dataViewMax$[ebp]

; 1321 : 	if(dataIndex < dataStart)

  001ae	0f 4c f0	 cmovl	 esi, eax

; 305  : 	int nIndex = GetIndex(dataIndex, dataStart);
; 306  : 	CPoint dataPt = CDataConversion::GetVerticalPoint(graphRegion, nIndex, realWidth, dataViewMin, dataViewMax, CDraw::CalLogValue(pSelectSubGraphData->GetVertScaleLogType(), dataPacket->GetnumericDataList()->GetNext(dataPos)));

  001b1	ff 15 00 00 00
	00		 call	 DWORD PTR __imp_?GetnumericDataList@CPacket@@QAEPAV?$CList@NN@@XZ
  001b7	f2 0f 10 43 08	 movsd	 xmm0, QWORD PTR [ebx+8]
  001bc	83 ec 08	 sub	 esp, 8
  001bf	8b 5d 90	 mov	 ebx, DWORD PTR _pSelectSubGraphData$GSCopy$1$[ebp]
  001c2	8b cb		 mov	 ecx, ebx
  001c4	f2 0f 11 04 24	 movsd	 QWORD PTR [esp], xmm0
  001c9	e8 00 00 00 00	 call	 ?GetVertScaleLogType@CSelectSubGraphData@@QBE_NXZ ; CSelectSubGraphData::GetVertScaleLogType
  001ce	8b 4d 94	 mov	 ecx, DWORD PTR _this$GSCopy$1$[ebp]
  001d1	0f b6 c0	 movzx	 eax, al
  001d4	50		 push	 eax
  001d5	e8 00 00 00 00	 call	 ?CalLogValue@CDraw@@IAEN_NN@Z ; CDraw::CalLogValue
  001da	6a 01		 push	 1
  001dc	8d 45 f4	 lea	 eax, DWORD PTR $T4[ebp]
  001df	50		 push	 eax
  001e0	8d 85 68 ff ff
	ff		 lea	 eax, DWORD PTR _dataViewMax$[ebp]
  001e6	50		 push	 eax
  001e7	8d 85 60 ff ff
	ff		 lea	 eax, DWORD PTR _dataViewMin$[ebp]
  001ed	50		 push	 eax
  001ee	8d 85 78 ff ff
	ff		 lea	 eax, DWORD PTR _realWidth$[ebp]
  001f4	50		 push	 eax
  001f5	56		 push	 esi
  001f6	8d 45 dc	 lea	 eax, DWORD PTR _graphRegion$[ebp]
  001f9	50		 push	 eax
  001fa	8d 85 70 ff ff
	ff		 lea	 eax, DWORD PTR _dataPt$[ebp]
  00200	50		 push	 eax
  00201	dd 5d f4	 fstp	 QWORD PTR $T4[ebp]
  00204	e8 00 00 00 00	 call	 ?GetVerticalPoint@CDataConversion@@SA?AVCPoint@@ABVCRect@@HABN111_N@Z ; CDataConversion::GetVerticalPoint

; 307  : 	int barWidth = int(realWidth*0.8);

  00209	f2 0f 10 85 78
	ff ff ff	 movsd	 xmm0, QWORD PTR _realWidth$[ebp]
  00211	83 c4 20	 add	 esp, 32			; 00000020H

; 308  : 
; 309  : 	//invert scale .
; 310  : 	CPoint mousePoint = point;

  00214	8b 45 80	 mov	 eax, DWORD PTR _point$GSCopy$1$[ebp]
  00217	f2 0f 59 05 00
	00 00 00	 mulsd	 xmm0, QWORD PTR __real@3fe999999999999a
  0021f	8b 08		 mov	 ecx, DWORD PTR [eax]
  00221	8b 40 04	 mov	 eax, DWORD PTR [eax+4]
  00224	89 4d 90	 mov	 DWORD PTR _mousePoint$2$[ebp], ecx

; 311  : 	if(pSelectSubGraphData->GetVertScaleInvertType())

  00227	8b cb		 mov	 ecx, ebx
  00229	f2 0f 2c f0	 cvttsd2si esi, xmm0
  0022d	89 45 f8	 mov	 DWORD PTR _mousePoint$1$[ebp], eax
  00230	e8 00 00 00 00	 call	 ?GetVertScaleInvertType@CSelectSubGraphData@@QBE_NXZ ; CSelectSubGraphData::GetVertScaleInvertType
  00235	84 c0		 test	 al, al
  00237	74 14		 je	 SHORT $LN36@PointInDot

; 312  : 		mousePoint.y = CDataConversion::InvertGraphDataPt(graphRegion, point.y);

  00239	8b 45 80	 mov	 eax, DWORD PTR _point$GSCopy$1$[ebp]
  0023c	ff 70 04	 push	 DWORD PTR [eax+4]
  0023f	8d 45 dc	 lea	 eax, DWORD PTR _graphRegion$[ebp]
  00242	50		 push	 eax
  00243	e8 00 00 00 00	 call	 ?InvertGraphDataPt@CDataConversion@@SAHABVCRect@@H@Z ; CDataConversion::InvertGraphDataPt
  00248	83 c4 08	 add	 esp, 8
  0024b	eb 03		 jmp	 SHORT $LN6@PointInDot
$LN36@PointInDot:

; 311  : 	if(pSelectSubGraphData->GetVertScaleInvertType())

  0024d	8b 45 f8	 mov	 eax, DWORD PTR _mousePoint$1$[ebp]
$LN6@PointInDot:

; 313  : 
; 314  : 	if(mousePoint.y <= dataPt.y + barWidth && mousePoint.y >= dataPt.y - barWidth && mousePoint.x >=dataPt.x - barWidth && mousePoint.x <= dataPt.x + barWidth)

  00250	8b 95 74 ff ff
	ff		 mov	 edx, DWORD PTR _dataPt$[ebp+4]
  00256	8d 0c 32	 lea	 ecx, DWORD PTR [edx+esi]
  00259	3b c1		 cmp	 eax, ecx
  0025b	7f 33		 jg	 SHORT $LN7@PointInDot
  0025d	2b d6		 sub	 edx, esi
  0025f	3b c2		 cmp	 eax, edx
  00261	7c 2d		 jl	 SHORT $LN7@PointInDot
  00263	8b 8d 70 ff ff
	ff		 mov	 ecx, DWORD PTR _dataPt$[ebp]
  00269	8b c1		 mov	 eax, ecx
  0026b	8b 55 90	 mov	 edx, DWORD PTR _mousePoint$2$[ebp]
  0026e	2b c6		 sub	 eax, esi
  00270	3b d0		 cmp	 edx, eax
  00272	7c 1c		 jl	 SHORT $LN7@PointInDot
  00274	8d 04 31	 lea	 eax, DWORD PTR [ecx+esi]
  00277	3b d0		 cmp	 edx, eax
  00279	7f 15		 jg	 SHORT $LN7@PointInDot

; 315  : 		return dataIndex;

  0027b	8b c7		 mov	 eax, edi
  0027d	5f		 pop	 edi

; 316  : 
; 317  : 	return -1;
; 318  : }

  0027e	5e		 pop	 esi
  0027f	5b		 pop	 ebx
  00280	8b 4d fc	 mov	 ecx, DWORD PTR __$ArrayPad$[ebp]
  00283	33 cd		 xor	 ecx, ebp
  00285	e8 00 00 00 00	 call	 @__security_check_cookie@4
  0028a	8b e5		 mov	 esp, ebp
  0028c	5d		 pop	 ebp
  0028d	c2 0c 00	 ret	 12			; 0000000cH
$LN7@PointInDot:
  00290	8b 4d fc	 mov	 ecx, DWORD PTR __$ArrayPad$[ebp]
  00293	83 c8 ff	 or	 eax, -1
  00296	5f		 pop	 edi
  00297	5e		 pop	 esi
  00298	33 cd		 xor	 ecx, ebp
  0029a	5b		 pop	 ebx
  0029b	e8 00 00 00 00	 call	 @__security_check_cookie@4
  002a0	8b e5		 mov	 esp, ebp
  002a2	5d		 pop	 ebp
  002a3	c2 0c 00	 ret	 12			; 0000000cH
?PointInDotBarGraph@CSelectSubGraph@@AAEHABVCPoint@@PBVCSelectSubGraphData@@PAVCIndicatorList@@@Z ENDP ; CSelectSubGraph::PointInDotBarGraph
_TEXT	ENDS
; Function compile flags: /Ogtp
; File D:\git\src\IBK\IBK_DRFN\ProjSrc\SrcChartEx\ChartOCX\GraphDraw\SelectSubGraph.cpp
; File C:\Program Files (x86)\Microsoft Visual Studio\2019\Community\VC\Tools\MSVC\14.29.30133\atlmfc\include\afxtempl.h
; File D:\git\src\IBK\IBK_DRFN\ProjSrc\SrcChartEx\ChartOCX\GraphDraw\SelectSubGraph.cpp
; File D:\git\src\IBK\IBK_DRFN\ProjSrc\SrcChartEx\ChartOCX\Include_Chart\BlockBaseData.h
; File D:\git\src\IBK\IBK_DRFN\ProjSrc\SrcChartEx\ChartOCX\GraphDraw\SelectSubGraph.cpp
;	COMDAT ?PointInCombBarGraph@CSelectSubGraph@@AAEHABVCPoint@@PBVCSelectSubGraphData@@PAVCIndicatorList@@@Z
_TEXT	SEGMENT
_dataPt2$ = -212					; size = 8
_dataPt1$ = -204					; size = 8
_realWidth$ = -196					; size = 8
_tempmin$ = -188					; size = 8
_tempmax$ = -180					; size = 8
_datamin$ = -172					; size = 8
$T1 = -164						; size = 8
_dataEnd$1$ = -160					; size = 4
_point$GSCopy$1$ = -156					; size = 4
$T2 = -152						; size = 8
$T3 = -152						; size = 8
_m_dataPacket2$1$ = -148				; size = 4
_datamax$ = -144					; size = 8
_data2$1$ = -136					; size = 8
$T4 = -136						; size = 8
$T5 = -136						; size = 8
$T6 = -136						; size = 8
$T7 = -136						; size = 8
_Data2Pos$1$ = -132					; size = 4
_pageDataCount$1$ = -132				; size = 4
_dataStart$1$ = -128					; size = 4
_data1$1$ = -124					; size = 8
$T8 = -124						; size = 8
$T9 = -124						; size = 8
_mousePoint$2$ = -120					; size = 4
_m_dataPacket1$1$ = -120				; size = 4
_barWidth$1$ = -116					; size = 4
_Data1Pos$1$ = -116					; size = 4
$T10 = -116						; size = 4
_pSelectSubGraphData$GSCopy$1$ = -112			; size = 4
_this$GSCopy$1$ = -108					; size = 4
$T11 = -104						; size = 68
_drawingRegion$ = -36					; size = 16
_graphRegion$ = -20					; size = 16
__$ArrayPad$ = -4					; size = 4
_point$ = 8						; size = 4
_pSelectSubGraphData$ = 12				; size = 4
_pIndicatorList$ = 16					; size = 4
?PointInCombBarGraph@CSelectSubGraph@@AAEHABVCPoint@@PBVCSelectSubGraphData@@PAVCIndicatorList@@@Z PROC ; CSelectSubGraph::PointInCombBarGraph, COMDAT
; _this$ = ecx

; 202  : {

  00000	55		 push	 ebp
  00001	8b ec		 mov	 ebp, esp
  00003	81 ec d4 00 00
	00		 sub	 esp, 212		; 000000d4H
  00009	a1 00 00 00 00	 mov	 eax, DWORD PTR ___security_cookie
  0000e	33 c5		 xor	 eax, ebp
  00010	89 45 fc	 mov	 DWORD PTR __$ArrayPad$[ebp], eax
  00013	8b 45 08	 mov	 eax, DWORD PTR _point$[ebp]
  00016	56		 push	 esi
  00017	8b 75 0c	 mov	 esi, DWORD PTR _pSelectSubGraphData$[ebp]
  0001a	89 4d 94	 mov	 DWORD PTR _this$GSCopy$1$[ebp], ecx

; 203  : 	const CList< CPacket *, CPacket *> &packetList = pSelectSubGraphData->GetSubGraphPacketList()->GetSubGraphPacketList();

  0001d	8b ce		 mov	 ecx, esi
  0001f	57		 push	 edi
  00020	89 85 64 ff ff
	ff		 mov	 DWORD PTR _point$GSCopy$1$[ebp], eax
  00026	89 75 90	 mov	 DWORD PTR _pSelectSubGraphData$GSCopy$1$[ebp], esi
  00029	e8 00 00 00 00	 call	 ?GetSubGraphPacketList@CSelectSubGraphData@@QBEPAVCSubGraphPacketList@@XZ ; CSelectSubGraphData::GetSubGraphPacketList
  0002e	8b c8		 mov	 ecx, eax
  00030	e8 00 00 00 00	 call	 ?GetSubGraphPacketList@CSubGraphPacketList@@QBEABV?$CList@PAVCPacket@@PAV1@@@XZ ; CSubGraphPacketList::GetSubGraphPacketList

; 204  : 	if(packetList.GetCount() <= 0)

  00035	83 78 0c 00	 cmp	 DWORD PTR [eax+12], 0
  00039	0f 8e 62 04 00
	00		 jle	 $LN10@PointInCom

; 205  : 		return -1;
; 206  : 
; 207  : 	CPacket* m_dataPacket1 = NULL;
; 208  : 	CPacket* m_dataPacket2 = NULL;
; 209  : 	POSITION pos = packetList.GetHeadPosition();

  0003f	8b 40 04	 mov	 eax, DWORD PTR [eax+4]

; 210  : 	if(pos == NULL)	

  00042	85 c0		 test	 eax, eax
  00044	0f 84 57 04 00
	00		 je	 $LN10@PointInCom
; File C:\Program Files (x86)\Microsoft Visual Studio\2019\Community\VC\Tools\MSVC\14.29.30133\atlmfc\include\afxtempl.h

; 819  : 		rPosition = (POSITION) pNode->pNext;

  0004a	8b 08		 mov	 ecx, DWORD PTR [eax]
; File D:\git\src\IBK\IBK_DRFN\ProjSrc\SrcChartEx\ChartOCX\GraphDraw\SelectSubGraph.cpp

; 212  : 	m_dataPacket1 = packetList.GetNext(pos);

  0004c	8b 78 08	 mov	 edi, DWORD PTR [eax+8]
  0004f	89 7d 88	 mov	 DWORD PTR _m_dataPacket1$1$[ebp], edi

; 213  : 	if(pos == NULL)	

  00052	85 c9		 test	 ecx, ecx
  00054	0f 84 47 04 00
	00		 je	 $LN10@PointInCom

; 214  : 		return -1;
; 215  : 	m_dataPacket2 = packetList.GetNext(pos);

  0005a	8b 41 08	 mov	 eax, DWORD PTR [ecx+8]

; 216  : 
; 217  : 	int dataStart = pSelectSubGraphData->GetDisplayAttributes().GetDataStartInBlock();

  0005d	8b ce		 mov	 ecx, esi
  0005f	89 85 6c ff ff
	ff		 mov	 DWORD PTR _m_dataPacket2$1$[ebp], eax
  00065	8d 85 78 ff ff
	ff		 lea	 eax, DWORD PTR $T7[ebp]
  0006b	50		 push	 eax
  0006c	e8 00 00 00 00	 call	 ?GetDisplayAttributes@CSelectSubGraphData@@QBE?AVCDisplayAttributes@@XZ ; CSelectSubGraphData::GetDisplayAttributes
  00071	8b c8		 mov	 ecx, eax
  00073	e8 00 00 00 00	 call	 ?GetDataStartInBlock@CDisplayAttributes@@QBEHXZ ; CDisplayAttributes::GetDataStartInBlock
  00078	89 45 80	 mov	 DWORD PTR _dataStart$1$[ebp], eax

; 218  : 	int dataEnd = pSelectSubGraphData->GetDisplayAttributes().GetDataEndInBlock();

  0007b	8b ce		 mov	 ecx, esi
  0007d	8d 85 78 ff ff
	ff		 lea	 eax, DWORD PTR $T6[ebp]
  00083	50		 push	 eax
  00084	e8 00 00 00 00	 call	 ?GetDisplayAttributes@CSelectSubGraphData@@QBE?AVCDisplayAttributes@@XZ ; CSelectSubGraphData::GetDisplayAttributes
  00089	8b c8		 mov	 ecx, eax
  0008b	e8 00 00 00 00	 call	 ?GetDataEndInBlock@CDisplayAttributes@@QBEHXZ ; CDisplayAttributes::GetDataEndInBlock
  00090	89 85 60 ff ff
	ff		 mov	 DWORD PTR _dataEnd$1$[ebp], eax

; 219  : 	int pageDataCount = pSelectSubGraphData->GetDisplayAttributes().GetDataCountInBlock();

  00096	8b ce		 mov	 ecx, esi
  00098	8d 85 78 ff ff
	ff		 lea	 eax, DWORD PTR $T5[ebp]
  0009e	50		 push	 eax
  0009f	e8 00 00 00 00	 call	 ?GetDisplayAttributes@CSelectSubGraphData@@QBE?AVCDisplayAttributes@@XZ ; CSelectSubGraphData::GetDisplayAttributes
  000a4	8b c8		 mov	 ecx, eax
  000a6	e8 00 00 00 00	 call	 ?GetDataCountInBlock@CDisplayAttributes@@QBEHXZ ; CDisplayAttributes::GetDataCountInBlock

; 220  : 			
; 221  : 	//min  max  .=====================================================
; 222  : 	double datamax = 0.0, datamin = 0.0, tempmax = 0.0, tempmin = 0.0;
; 223  : 	m_dataPacket1->GetMinMax(dataStart, dataEnd, datamin, datamax); 

  000ab	6a 00		 push	 0
  000ad	89 85 7c ff ff
	ff		 mov	 DWORD PTR _pageDataCount$1$[ebp], eax
  000b3	0f 57 c0	 xorps	 xmm0, xmm0
  000b6	8d 85 70 ff ff
	ff		 lea	 eax, DWORD PTR _datamax$[ebp]
  000bc	f2 0f 11 85 70
	ff ff ff	 movsd	 QWORD PTR _datamax$[ebp], xmm0
  000c4	50		 push	 eax
  000c5	8d 85 54 ff ff
	ff		 lea	 eax, DWORD PTR _datamin$[ebp]
  000cb	f2 0f 11 85 54
	ff ff ff	 movsd	 QWORD PTR _datamin$[ebp], xmm0
  000d3	50		 push	 eax
  000d4	ff b5 60 ff ff
	ff		 push	 DWORD PTR _dataEnd$1$[ebp]
  000da	8b cf		 mov	 ecx, edi
  000dc	f2 0f 11 85 4c
	ff ff ff	 movsd	 QWORD PTR _tempmax$[ebp], xmm0
  000e4	ff 75 80	 push	 DWORD PTR _dataStart$1$[ebp]
  000e7	8b 3d 00 00 00
	00		 mov	 edi, DWORD PTR __imp_?GetMinMax@CPacket@@QAEHHHAAN0H@Z
  000ed	f2 0f 11 85 44
	ff ff ff	 movsd	 QWORD PTR _tempmin$[ebp], xmm0
  000f5	ff d7		 call	 edi

; 224  : 	datamin = fabs(datamin);

  000f7	f2 0f 10 8d 54
	ff ff ff	 movsd	 xmm1, QWORD PTR _datamin$[ebp]

; 225  : 	datamax = fabs(datamax);

  000ff	f2 0f 10 85 70
	ff ff ff	 movsd	 xmm0, QWORD PTR _datamax$[ebp]
  00107	0f 54 0d 00 00
	00 00		 andps	 xmm1, QWORD PTR __xmm@7fffffffffffffff7fffffffffffffff
  0010e	0f 54 05 00 00
	00 00		 andps	 xmm0, QWORD PTR __xmm@7fffffffffffffff7fffffffffffffff
  00115	66 0f 2f c8	 comisd	 xmm1, xmm0
  00119	f2 0f 11 8d 54
	ff ff ff	 movsd	 QWORD PTR _datamin$[ebp], xmm1
  00121	f2 0f 11 85 70
	ff ff ff	 movsd	 QWORD PTR _datamax$[ebp], xmm0

; 226  : 	if(datamin > datamax)

  00129	76 08		 jbe	 SHORT $LN5@PointInCom

; 227  : 		datamax = datamin;

  0012b	f2 0f 11 8d 70
	ff ff ff	 movsd	 QWORD PTR _datamax$[ebp], xmm1
$LN5@PointInCom:

; 228  : 	m_dataPacket2->GetMinMax(dataStart, dataEnd, tempmax, tempmin); 

  00133	8b 8d 6c ff ff
	ff		 mov	 ecx, DWORD PTR _m_dataPacket2$1$[ebp]
  00139	8d 85 44 ff ff
	ff		 lea	 eax, DWORD PTR _tempmin$[ebp]
  0013f	6a 00		 push	 0
  00141	50		 push	 eax
  00142	8d 85 4c ff ff
	ff		 lea	 eax, DWORD PTR _tempmax$[ebp]
  00148	50		 push	 eax
  00149	ff b5 60 ff ff
	ff		 push	 DWORD PTR _dataEnd$1$[ebp]
  0014f	ff 75 80	 push	 DWORD PTR _dataStart$1$[ebp]
  00152	ff d7		 call	 edi

; 229  : 	tempmin = fabs(tempmin);

  00154	f2 0f 10 8d 44
	ff ff ff	 movsd	 xmm1, QWORD PTR _tempmin$[ebp]

; 230  : 	tempmax = fabs(tempmax);

  0015c	f2 0f 10 85 4c
	ff ff ff	 movsd	 xmm0, QWORD PTR _tempmax$[ebp]
  00164	0f 54 0d 00 00
	00 00		 andps	 xmm1, QWORD PTR __xmm@7fffffffffffffff7fffffffffffffff
  0016b	0f 54 05 00 00
	00 00		 andps	 xmm0, QWORD PTR __xmm@7fffffffffffffff7fffffffffffffff
  00172	66 0f 2f c8	 comisd	 xmm1, xmm0
  00176	f2 0f 11 8d 44
	ff ff ff	 movsd	 QWORD PTR _tempmin$[ebp], xmm1
  0017e	f2 0f 11 85 4c
	ff ff ff	 movsd	 QWORD PTR _tempmax$[ebp], xmm0

; 231  : 	if(tempmin > tempmax)

  00186	76 0b		 jbe	 SHORT $LN6@PointInCom

; 232  : 		tempmax = tempmin;

  00188	0f 28 c1	 movaps	 xmm0, xmm1
  0018b	f2 0f 11 85 4c
	ff ff ff	 movsd	 QWORD PTR _tempmax$[ebp], xmm0
$LN6@PointInCom:

; 233  : 	if(tempmax > datamax)

  00193	f2 0f 10 8d 70
	ff ff ff	 movsd	 xmm1, QWORD PTR _datamax$[ebp]
  0019b	66 0f 2f c1	 comisd	 xmm0, xmm1
  0019f	76 0b		 jbe	 SHORT $LN7@PointInCom

; 234  : 		datamax = tempmax;

  001a1	0f 28 c8	 movaps	 xmm1, xmm0
  001a4	f2 0f 11 8d 70
	ff ff ff	 movsd	 QWORD PTR _datamax$[ebp], xmm1
$LN7@PointInCom:

; 235  : 	datamin = datamax * -1;

  001ac	f2 0f 59 0d 00
	00 00 00	 mulsd	 xmm1, QWORD PTR __real@bff0000000000000

; 237  : 	CRect graphRegion = pSelectSubGraphData->GetGraphRegions().GetDrawingRegion();

  001b4	8d 45 8c	 lea	 eax, DWORD PTR $T10[ebp]
  001b7	50		 push	 eax
  001b8	6a ff		 push	 -1
  001ba	8d 45 ec	 lea	 eax, DWORD PTR _graphRegion$[ebp]
; File D:\git\src\IBK\IBK_DRFN\ProjSrc\SrcChartEx\ChartOCX\Include_Chart\BlockBaseData.h

; 43   : 	CGraphStyle(const int style) { m_nStyle = style; };

  001bd	c7 45 8c ff ff
	ff ff		 mov	 DWORD PTR $T10[ebp], -1
; File D:\git\src\IBK\IBK_DRFN\ProjSrc\SrcChartEx\ChartOCX\GraphDraw\SelectSubGraph.cpp

; 237  : 	CRect graphRegion = pSelectSubGraphData->GetGraphRegions().GetDrawingRegion();

  001c4	50		 push	 eax
  001c5	8d 45 98	 lea	 eax, DWORD PTR $T11[ebp]
  001c8	f2 0f 11 8d 54
	ff ff ff	 movsd	 QWORD PTR _datamin$[ebp], xmm1
  001d0	50		 push	 eax
  001d1	8b ce		 mov	 ecx, esi
  001d3	e8 00 00 00 00	 call	 ?GetGraphRegions@CSelectSubGraphData@@QBE?AVCGraphRegions@@XZ ; CSelectSubGraphData::GetGraphRegions
  001d8	8b c8		 mov	 ecx, eax
  001da	e8 00 00 00 00	 call	 ?GetDrawingRegion@CGraphRegions@@QBE?AVCRect@@W4GRAPHTYPE@CGraphBaseData@@ABVCGraphStyle@@@Z ; CGraphRegions::GetDrawingRegion

; 238  : 
; 239  : 	int dataIndex = GetDataIndex(graphRegion, point, dataStart, dataEnd, pageDataCount); 

  001df	0f 10 45 ec	 movups	 xmm0, XMMWORD PTR _graphRegion$[ebp]
  001e3	8b 85 64 ff ff
	ff		 mov	 eax, DWORD PTR _point$GSCopy$1$[ebp]
  001e9	0f 11 45 dc	 movups	 XMMWORD PTR _drawingRegion$[ebp], xmm0
  001ed	8b 08		 mov	 ecx, DWORD PTR [eax]
  001ef	66 0f 73 d8 08	 psrldq	 xmm0, 8
  001f4	66 0f 7e c0	 movd	 eax, xmm0
  001f8	3b c1		 cmp	 eax, ecx

; 1288 : 	if(drawingRegion.right <= point.x)

  001fa	0f 8e a1 02 00
	00		 jle	 $LN10@PointInCom

; 1289 : 		return -1;
; 1290 : 	int index = CDataConversion::AbsoluteToRelative_X(drawingRegion, point.x, pageDataCount);

  00200	ff b5 7c ff ff
	ff		 push	 DWORD PTR _pageDataCount$1$[ebp]
  00206	8d 45 dc	 lea	 eax, DWORD PTR _drawingRegion$[ebp]
  00209	51		 push	 ecx
  0020a	50		 push	 eax
  0020b	e8 00 00 00 00	 call	 ?AbsoluteToRelative_X@CDataConversion@@SAHABVCRect@@HH@Z ; CDataConversion::AbsoluteToRelative_X
  00210	8b f8		 mov	 edi, eax
  00212	83 c4 0c	 add	 esp, 12			; 0000000cH

; 1291 : 	if(index >= 0)

  00215	85 ff		 test	 edi, edi
  00217	78 03		 js	 SHORT $LN27@PointInCom

; 1292 : 		index = dataStart + index;

  00219	03 7d 80	 add	 edi, DWORD PTR _dataStart$1$[ebp]
$LN27@PointInCom:

; 1293 : 	if(index > dataEnd)

  0021c	3b bd 60 ff ff
	ff		 cmp	 edi, DWORD PTR _dataEnd$1$[ebp]
  00222	0f 8f 79 02 00
	00		 jg	 $LN10@PointInCom

; 240  : 	if(dataIndex == -1)

  00228	83 ff ff	 cmp	 edi, -1
  0022b	0f 84 70 02 00
	00		 je	 $LN10@PointInCom

; 241  : 		return -1;
; 242  : 	
; 243  : 	POSITION Data1Pos = m_dataPacket1->GetnumericDataList()->FindIndex(dataIndex);

  00231	8b 4d 88	 mov	 ecx, DWORD PTR _m_dataPacket1$1$[ebp]
  00234	8b 35 00 00 00
	00		 mov	 esi, DWORD PTR __imp_?GetnumericDataList@CPacket@@QAEPAV?$CList@NN@@XZ
  0023a	57		 push	 edi
  0023b	ff d6		 call	 esi
  0023d	8b c8		 mov	 ecx, eax
  0023f	e8 00 00 00 00	 call	 ?FindIndex@?$CList@NN@@QBEPAU__POSITION@@H@Z ; CList<double,double>::FindIndex

; 244  : 	POSITION Data2Pos = m_dataPacket2->GetnumericDataList()->FindIndex(dataIndex);

  00244	8b 8d 6c ff ff
	ff		 mov	 ecx, DWORD PTR _m_dataPacket2$1$[ebp]
  0024a	57		 push	 edi
  0024b	89 45 8c	 mov	 DWORD PTR _Data1Pos$1$[ebp], eax
  0024e	ff d6		 call	 esi
  00250	8b c8		 mov	 ecx, eax
  00252	e8 00 00 00 00	 call	 ?FindIndex@?$CList@NN@@QBEPAU__POSITION@@H@Z ; CList<double,double>::FindIndex

; 245  : 	if(Data1Pos == NULL || Data2Pos == NULL)

  00257	83 7d 8c 00	 cmp	 DWORD PTR _Data1Pos$1$[ebp], 0
  0025b	89 85 7c ff ff
	ff		 mov	 DWORD PTR _Data2Pos$1$[ebp], eax
  00261	0f 84 3a 02 00
	00		 je	 $LN10@PointInCom
  00267	85 c0		 test	 eax, eax
  00269	0f 84 32 02 00
	00		 je	 $LN10@PointInCom

; 247  : 
; 248  : 	double data1 = m_dataPacket1->GetnumericDataList()->GetNext(Data1Pos);

  0026f	8b 4d 88	 mov	 ecx, DWORD PTR _m_dataPacket1$1$[ebp]
  00272	ff d6		 call	 esi
  00274	8b 45 8c	 mov	 eax, DWORD PTR _Data1Pos$1$[ebp]
  00277	0f 57 c9	 xorps	 xmm1, xmm1
  0027a	f2 0f 10 40 08	 movsd	 xmm0, QWORD PTR [eax+8]

; 249  : 	if(data1 < 0)

  0027f	66 0f 2f c8	 comisd	 xmm1, xmm0
  00283	f2 0f 11 45 84	 movsd	 QWORD PTR _data1$1$[ebp], xmm0
  00288	76 0d		 jbe	 SHORT $LN11@PointInCom

; 250  : 		data1 = data1 * -1.0;

  0028a	f2 0f 59 05 00
	00 00 00	 mulsd	 xmm0, QWORD PTR __real@bff0000000000000
  00292	f2 0f 11 45 84	 movsd	 QWORD PTR _data1$1$[ebp], xmm0
$LN11@PointInCom:

; 251  : 	double data2 = m_dataPacket2->GetnumericDataList()->GetNext(Data2Pos);

  00297	8b 8d 6c ff ff
	ff		 mov	 ecx, DWORD PTR _m_dataPacket2$1$[ebp]
  0029d	ff d6		 call	 esi
  0029f	8b 85 7c ff ff
	ff		 mov	 eax, DWORD PTR _Data2Pos$1$[ebp]
  002a5	f2 0f 10 40 08	 movsd	 xmm0, QWORD PTR [eax+8]

; 252  : 	if(data2 > 0)

  002aa	66 0f 2f 05 00
	00 00 00	 comisd	 xmm0, QWORD PTR __real@0000000000000000
  002b2	f2 0f 11 85 78
	ff ff ff	 movsd	 QWORD PTR _data2$1$[ebp], xmm0
  002ba	76 10		 jbe	 SHORT $LN12@PointInCom

; 253  : 		data2 = data2 * -1.0;

  002bc	f2 0f 59 05 00
	00 00 00	 mulsd	 xmm0, QWORD PTR __real@bff0000000000000
  002c4	f2 0f 11 85 78
	ff ff ff	 movsd	 QWORD PTR _data2$1$[ebp], xmm0
$LN12@PointInCom:

; 254  : 	
; 255  : 	double realWidth = CDraw::CalRealWidth(graphRegion, dataStart, dataEnd);

  002cc	ff b5 60 ff ff
	ff		 push	 DWORD PTR _dataEnd$1$[ebp]
  002d2	8b 4d 94	 mov	 ecx, DWORD PTR _this$GSCopy$1$[ebp]
  002d5	8d 45 ec	 lea	 eax, DWORD PTR _graphRegion$[ebp]
  002d8	ff 75 80	 push	 DWORD PTR _dataStart$1$[ebp]
  002db	50		 push	 eax
  002dc	e8 00 00 00 00	 call	 ?CalRealWidth@CDraw@@IAENABVCRect@@HH@Z ; CDraw::CalRealWidth

; 257  : 	int nIndex = GetIndex(dataIndex, dataStart);
; 258  : 	CPoint dataPt1 = CDataConversion::GetVerticalPoint(graphRegion, nIndex, realWidth, CDraw::CalLogValue(pSelectSubGraphData->GetVertScaleLogType(), datamin), CDraw::CalLogValue(pSelectSubGraphData->GetVertScaleLogType(), datamax), CDraw::CalLogValue(pSelectSubGraphData->GetVertScaleLogType(), data1));

  002e1	8b 4d 90	 mov	 ecx, DWORD PTR _pSelectSubGraphData$GSCopy$1$[ebp]

; 1324 : 	return (dataIndex - dataStart);

  002e4	8b f7		 mov	 esi, edi

; 254  : 	
; 255  : 	double realWidth = CDraw::CalRealWidth(graphRegion, dataStart, dataEnd);

  002e6	dd 9d 3c ff ff
	ff		 fstp	 QWORD PTR _realWidth$[ebp]

; 256  : 	int barWidth = int(realWidth*0.8);

  002ec	f2 0f 10 85 3c
	ff ff ff	 movsd	 xmm0, QWORD PTR _realWidth$[ebp]
  002f4	f2 0f 59 05 00
	00 00 00	 mulsd	 xmm0, QWORD PTR __real@3fe999999999999a
  002fc	f2 0f 2c c0	 cvttsd2si eax, xmm0

; 257  : 	int nIndex = GetIndex(dataIndex, dataStart);
; 258  : 	CPoint dataPt1 = CDataConversion::GetVerticalPoint(graphRegion, nIndex, realWidth, CDraw::CalLogValue(pSelectSubGraphData->GetVertScaleLogType(), datamin), CDraw::CalLogValue(pSelectSubGraphData->GetVertScaleLogType(), datamax), CDraw::CalLogValue(pSelectSubGraphData->GetVertScaleLogType(), data1));

  00300	f2 0f 10 45 84	 movsd	 xmm0, QWORD PTR _data1$1$[ebp]
  00305	89 45 8c	 mov	 DWORD PTR _barWidth$1$[ebp], eax

; 1324 : 	return (dataIndex - dataStart);

  00308	8b 45 80	 mov	 eax, DWORD PTR _dataStart$1$[ebp]
  0030b	2b f0		 sub	 esi, eax
  0030d	3b f8		 cmp	 edi, eax
  0030f	0f 4c f0	 cmovl	 esi, eax

; 257  : 	int nIndex = GetIndex(dataIndex, dataStart);
; 258  : 	CPoint dataPt1 = CDataConversion::GetVerticalPoint(graphRegion, nIndex, realWidth, CDraw::CalLogValue(pSelectSubGraphData->GetVertScaleLogType(), datamin), CDraw::CalLogValue(pSelectSubGraphData->GetVertScaleLogType(), datamax), CDraw::CalLogValue(pSelectSubGraphData->GetVertScaleLogType(), data1));

  00312	83 ec 08	 sub	 esp, 8
  00315	f2 0f 11 04 24	 movsd	 QWORD PTR [esp], xmm0
  0031a	e8 00 00 00 00	 call	 ?GetVertScaleLogType@CSelectSubGraphData@@QBE_NXZ ; CSelectSubGraphData::GetVertScaleLogType
  0031f	8b 4d 94	 mov	 ecx, DWORD PTR _this$GSCopy$1$[ebp]
  00322	0f b6 c0	 movzx	 eax, al
  00325	50		 push	 eax
  00326	e8 00 00 00 00	 call	 ?CalLogValue@CDraw@@IAEN_NN@Z ; CDraw::CalLogValue
  0032b	f2 0f 10 85 70
	ff ff ff	 movsd	 xmm0, QWORD PTR _datamax$[ebp]
  00333	83 ec 08	 sub	 esp, 8
  00336	8b 4d 90	 mov	 ecx, DWORD PTR _pSelectSubGraphData$GSCopy$1$[ebp]
  00339	dd 5d 84	 fstp	 QWORD PTR $T9[ebp]
  0033c	f2 0f 11 04 24	 movsd	 QWORD PTR [esp], xmm0
  00341	e8 00 00 00 00	 call	 ?GetVertScaleLogType@CSelectSubGraphData@@QBE_NXZ ; CSelectSubGraphData::GetVertScaleLogType
  00346	8b 4d 94	 mov	 ecx, DWORD PTR _this$GSCopy$1$[ebp]
  00349	0f b6 c0	 movzx	 eax, al
  0034c	50		 push	 eax
  0034d	e8 00 00 00 00	 call	 ?CalLogValue@CDraw@@IAEN_NN@Z ; CDraw::CalLogValue
  00352	f2 0f 10 85 54
	ff ff ff	 movsd	 xmm0, QWORD PTR _datamin$[ebp]
  0035a	83 ec 08	 sub	 esp, 8
  0035d	8b 4d 90	 mov	 ecx, DWORD PTR _pSelectSubGraphData$GSCopy$1$[ebp]
  00360	dd 9d 68 ff ff
	ff		 fstp	 QWORD PTR $T3[ebp]
  00366	f2 0f 11 04 24	 movsd	 QWORD PTR [esp], xmm0
  0036b	e8 00 00 00 00	 call	 ?GetVertScaleLogType@CSelectSubGraphData@@QBE_NXZ ; CSelectSubGraphData::GetVertScaleLogType
  00370	8b 4d 94	 mov	 ecx, DWORD PTR _this$GSCopy$1$[ebp]
  00373	0f b6 c0	 movzx	 eax, al
  00376	50		 push	 eax
  00377	e8 00 00 00 00	 call	 ?CalLogValue@CDraw@@IAEN_NN@Z ; CDraw::CalLogValue
  0037c	6a 01		 push	 1
  0037e	8d 45 84	 lea	 eax, DWORD PTR $T9[ebp]
  00381	50		 push	 eax
  00382	8d 85 68 ff ff
	ff		 lea	 eax, DWORD PTR $T3[ebp]
  00388	50		 push	 eax
  00389	8d 85 5c ff ff
	ff		 lea	 eax, DWORD PTR $T1[ebp]
  0038f	50		 push	 eax
  00390	8d 85 3c ff ff
	ff		 lea	 eax, DWORD PTR _realWidth$[ebp]
  00396	50		 push	 eax
  00397	56		 push	 esi
  00398	8d 45 ec	 lea	 eax, DWORD PTR _graphRegion$[ebp]
  0039b	50		 push	 eax
  0039c	8d 85 34 ff ff
	ff		 lea	 eax, DWORD PTR _dataPt1$[ebp]
  003a2	50		 push	 eax
  003a3	dd 9d 5c ff ff
	ff		 fstp	 QWORD PTR $T1[ebp]
  003a9	e8 00 00 00 00	 call	 ?GetVerticalPoint@CDataConversion@@SA?AVCPoint@@ABVCRect@@HABN111_N@Z ; CDataConversion::GetVerticalPoint

; 259  : 	CPoint dataPt2 = CDataConversion::GetVerticalPoint(graphRegion, nIndex, realWidth, CDraw::CalLogValue(pSelectSubGraphData->GetVertScaleLogType(), datamin), CDraw::CalLogValue(pSelectSubGraphData->GetVertScaleLogType(), datamax), CDraw::CalLogValue(pSelectSubGraphData->GetVertScaleLogType(), data2));

  003ae	f2 0f 10 85 78
	ff ff ff	 movsd	 xmm0, QWORD PTR _data2$1$[ebp]
  003b6	83 c4 18	 add	 esp, 24			; 00000018H
  003b9	8b 4d 90	 mov	 ecx, DWORD PTR _pSelectSubGraphData$GSCopy$1$[ebp]
  003bc	f2 0f 11 04 24	 movsd	 QWORD PTR [esp], xmm0
  003c1	e8 00 00 00 00	 call	 ?GetVertScaleLogType@CSelectSubGraphData@@QBE_NXZ ; CSelectSubGraphData::GetVertScaleLogType
  003c6	8b 4d 94	 mov	 ecx, DWORD PTR _this$GSCopy$1$[ebp]
  003c9	0f b6 c0	 movzx	 eax, al
  003cc	50		 push	 eax
  003cd	e8 00 00 00 00	 call	 ?CalLogValue@CDraw@@IAEN_NN@Z ; CDraw::CalLogValue
  003d2	f2 0f 10 85 70
	ff ff ff	 movsd	 xmm0, QWORD PTR _datamax$[ebp]
  003da	83 ec 08	 sub	 esp, 8
  003dd	8b 4d 90	 mov	 ecx, DWORD PTR _pSelectSubGraphData$GSCopy$1$[ebp]
  003e0	dd 9d 78 ff ff
	ff		 fstp	 QWORD PTR $T4[ebp]
  003e6	f2 0f 11 04 24	 movsd	 QWORD PTR [esp], xmm0
  003eb	e8 00 00 00 00	 call	 ?GetVertScaleLogType@CSelectSubGraphData@@QBE_NXZ ; CSelectSubGraphData::GetVertScaleLogType
  003f0	8b 4d 94	 mov	 ecx, DWORD PTR _this$GSCopy$1$[ebp]
  003f3	0f b6 c0	 movzx	 eax, al
  003f6	50		 push	 eax
  003f7	e8 00 00 00 00	 call	 ?CalLogValue@CDraw@@IAEN_NN@Z ; CDraw::CalLogValue
  003fc	dd 5d 84	 fstp	 QWORD PTR $T8[ebp]
  003ff	f2 0f 10 85 54
	ff ff ff	 movsd	 xmm0, QWORD PTR _datamin$[ebp]
  00407	83 ec 08	 sub	 esp, 8
  0040a	8b 4d 90	 mov	 ecx, DWORD PTR _pSelectSubGraphData$GSCopy$1$[ebp]
  0040d	f2 0f 11 04 24	 movsd	 QWORD PTR [esp], xmm0
  00412	e8 00 00 00 00	 call	 ?GetVertScaleLogType@CSelectSubGraphData@@QBE_NXZ ; CSelectSubGraphData::GetVertScaleLogType
  00417	8b 4d 94	 mov	 ecx, DWORD PTR _this$GSCopy$1$[ebp]
  0041a	0f b6 c0	 movzx	 eax, al
  0041d	50		 push	 eax
  0041e	e8 00 00 00 00	 call	 ?CalLogValue@CDraw@@IAEN_NN@Z ; CDraw::CalLogValue
  00423	6a 01		 push	 1
  00425	8d 85 78 ff ff
	ff		 lea	 eax, DWORD PTR $T4[ebp]
  0042b	50		 push	 eax
  0042c	8d 45 84	 lea	 eax, DWORD PTR $T8[ebp]
  0042f	50		 push	 eax
  00430	8d 85 68 ff ff
	ff		 lea	 eax, DWORD PTR $T2[ebp]
  00436	50		 push	 eax
  00437	8d 85 3c ff ff
	ff		 lea	 eax, DWORD PTR _realWidth$[ebp]
  0043d	50		 push	 eax
  0043e	56		 push	 esi
  0043f	8d 45 ec	 lea	 eax, DWORD PTR _graphRegion$[ebp]
  00442	50		 push	 eax
  00443	8d 85 2c ff ff
	ff		 lea	 eax, DWORD PTR _dataPt2$[ebp]
  00449	50		 push	 eax
  0044a	dd 9d 68 ff ff
	ff		 fstp	 QWORD PTR $T2[ebp]
  00450	e8 00 00 00 00	 call	 ?GetVerticalPoint@CDataConversion@@SA?AVCPoint@@ABVCRect@@HABN111_N@Z ; CDataConversion::GetVerticalPoint

; 260  : 
; 261  : 	//invert scale .
; 262  : 	CPoint mousePoint = point;

  00455	8b 8d 64 ff ff
	ff		 mov	 ecx, DWORD PTR _point$GSCopy$1$[ebp]
  0045b	83 c4 20	 add	 esp, 32			; 00000020H
  0045e	8b 01		 mov	 eax, DWORD PTR [ecx]
  00460	8b 71 04	 mov	 esi, DWORD PTR [ecx+4]

; 263  : 	if(pSelectSubGraphData->GetVertScaleInvertType())

  00463	8b 4d 90	 mov	 ecx, DWORD PTR _pSelectSubGraphData$GSCopy$1$[ebp]
  00466	89 45 88	 mov	 DWORD PTR _mousePoint$2$[ebp], eax
  00469	e8 00 00 00 00	 call	 ?GetVertScaleInvertType@CSelectSubGraphData@@QBE_NXZ ; CSelectSubGraphData::GetVertScaleInvertType
  0046e	84 c0		 test	 al, al
  00470	74 17		 je	 SHORT $LN13@PointInCom

; 264  : 		mousePoint.y = CDataConversion::InvertGraphDataPt(graphRegion, point.y);

  00472	8b 85 64 ff ff
	ff		 mov	 eax, DWORD PTR _point$GSCopy$1$[ebp]
  00478	ff 70 04	 push	 DWORD PTR [eax+4]
  0047b	8d 45 ec	 lea	 eax, DWORD PTR _graphRegion$[ebp]
  0047e	50		 push	 eax
  0047f	e8 00 00 00 00	 call	 ?InvertGraphDataPt@CDataConversion@@SAHABVCRect@@H@Z ; CDataConversion::InvertGraphDataPt
  00484	83 c4 08	 add	 esp, 8
  00487	8b f0		 mov	 esi, eax
$LN13@PointInCom:

; 265  : 
; 266  : 	if(dataPt1.y <= dataPt2.y){

  00489	8b 8d 38 ff ff
	ff		 mov	 ecx, DWORD PTR _dataPt1$[ebp+4]
  0048f	8b 85 30 ff ff
	ff		 mov	 eax, DWORD PTR _dataPt2$[ebp+4]
  00495	3b c8		 cmp	 ecx, eax
  00497	7f 1d		 jg	 SHORT $LN14@PointInCom

; 267  : 		if(dataPt1.y <= mousePoint.y && dataPt2.y >= mousePoint.y && mousePoint.x >=dataPt1.x - barWidth && mousePoint.x <= dataPt1.x + barWidth)

  00499	3b ce		 cmp	 ecx, esi
  0049b	7f 04		 jg	 SHORT $LN10@PointInCom
  0049d	3b c6		 cmp	 eax, esi
  0049f	7d 1d		 jge	 SHORT $LN41@PointInCom
$LN10@PointInCom:
  004a1	5f		 pop	 edi

; 246  : 		return -1;

  004a2	83 c8 ff	 or	 eax, -1

; 273  : 	}
; 274  : 
; 275  : 	return -1;
; 276  : }

  004a5	5e		 pop	 esi
  004a6	8b 4d fc	 mov	 ecx, DWORD PTR __$ArrayPad$[ebp]
  004a9	33 cd		 xor	 ecx, ebp
  004ab	e8 00 00 00 00	 call	 @__security_check_cookie@4
  004b0	8b e5		 mov	 esp, ebp
  004b2	5d		 pop	 ebp
  004b3	c2 0c 00	 ret	 12			; 0000000cH
$LN14@PointInCom:

; 268  : 			return dataIndex;
; 269  : 	}
; 270  : 	else{
; 271  : 		if(dataPt1.y >= mousePoint.y && dataPt2.y <= mousePoint.y && mousePoint.x >=dataPt1.x - barWidth && mousePoint.x <= dataPt1.x + barWidth)

  004b6	3b ce		 cmp	 ecx, esi
  004b8	7c e7		 jl	 SHORT $LN10@PointInCom
  004ba	3b c6		 cmp	 eax, esi
  004bc	7f e3		 jg	 SHORT $LN10@PointInCom
$LN41@PointInCom:

; 272  : 			return dataIndex;

  004be	8b b5 34 ff ff
	ff		 mov	 esi, DWORD PTR _dataPt1$[ebp]
  004c4	8b c6		 mov	 eax, esi
  004c6	8b 4d 8c	 mov	 ecx, DWORD PTR _barWidth$1$[ebp]
  004c9	2b c1		 sub	 eax, ecx
  004cb	8b 55 88	 mov	 edx, DWORD PTR _mousePoint$2$[ebp]
  004ce	3b d0		 cmp	 edx, eax
  004d0	7c cf		 jl	 SHORT $LN10@PointInCom
  004d2	8d 04 0e	 lea	 eax, DWORD PTR [esi+ecx]
  004d5	3b d0		 cmp	 edx, eax
  004d7	7f c8		 jg	 SHORT $LN10@PointInCom

; 273  : 	}
; 274  : 
; 275  : 	return -1;
; 276  : }

  004d9	8b 4d fc	 mov	 ecx, DWORD PTR __$ArrayPad$[ebp]
  004dc	8b c7		 mov	 eax, edi
  004de	5f		 pop	 edi
  004df	33 cd		 xor	 ecx, ebp
  004e1	5e		 pop	 esi
  004e2	e8 00 00 00 00	 call	 @__security_check_cookie@4
  004e7	8b e5		 mov	 esp, ebp
  004e9	5d		 pop	 ebp
  004ea	c2 0c 00	 ret	 12			; 0000000cH
?PointInCombBarGraph@CSelectSubGraph@@AAEHABVCPoint@@PBVCSelectSubGraphData@@PAVCIndicatorList@@@Z ENDP ; CSelectSubGraph::PointInCombBarGraph
_TEXT	ENDS
; Function compile flags: /Ogtp
; File D:\git\src\IBK\IBK_DRFN\ProjSrc\SrcChartEx\ChartOCX\GraphDraw\SelectSubGraph.cpp
; File C:\Program Files (x86)\Microsoft Visual Studio\2019\Community\VC\Tools\MSVC\14.29.30133\atlmfc\include\atltypes.h
; File D:\git\src\IBK\IBK_DRFN\ProjSrc\SrcChartEx\ChartOCX\GraphDraw\SelectSubGraph.cpp
; File D:\git\src\IBK\IBK_DRFN\ProjSrc\SrcChartEx\ChartOCX\Include_Chart\Dll_Load\XScaleManager.h
; File D:\git\src\IBK\IBK_DRFN\ProjSrc\SrcChartEx\ChartOCX\GraphDraw\SelectSubGraph.cpp
; File D:\git\src\IBK\IBK_DRFN\ProjSrc\SrcChartEx\ChartOCX\Include_Chart\SelectSubGraphData.h
; File D:\git\src\IBK\IBK_DRFN\ProjSrc\SrcChartEx\ChartOCX\GraphDraw\SelectSubGraph.cpp
; File C:\Program Files (x86)\Microsoft Visual Studio\2019\Community\VC\Tools\MSVC\14.29.30133\atlmfc\include\afxtempl.h
; File D:\git\src\IBK\IBK_DRFN\ProjSrc\SrcChartEx\ChartOCX\GraphDraw\SelectSubGraph.cpp
; File C:\Program Files (x86)\Microsoft Visual Studio\2019\Community\VC\Tools\MSVC\14.29.30133\atlmfc\include\cstringt.h
; File D:\git\src\IBK\IBK_DRFN\ProjSrc\SrcChartEx\ChartOCX\GraphDraw\SelectSubGraph.cpp
; File C:\Program Files (x86)\Microsoft Visual Studio\2019\Community\VC\Tools\MSVC\14.29.30133\atlmfc\include\cstringt.h
; File D:\git\src\IBK\IBK_DRFN\ProjSrc\SrcChartEx\ChartOCX\GraphDraw\SelectSubGraph.cpp
; File C:\Program Files (x86)\Microsoft Visual Studio\2019\Community\VC\Tools\MSVC\14.29.30133\atlmfc\include\atltypes.h
; File D:\git\src\IBK\IBK_DRFN\ProjSrc\SrcChartEx\ChartOCX\GraphDraw\SelectSubGraph.cpp
; File C:\Program Files (x86)\Microsoft Visual Studio\2019\Community\VC\Tools\MSVC\14.29.30133\atlmfc\include\atltypes.h
; File D:\git\src\IBK\IBK_DRFN\ProjSrc\SrcChartEx\ChartOCX\GraphDraw\SelectSubGraph.cpp
; File C:\Program Files (x86)\Microsoft Visual Studio\2019\Community\VC\Tools\MSVC\14.29.30133\atlmfc\include\atltypes.h
; File D:\git\src\IBK\IBK_DRFN\ProjSrc\SrcChartEx\ChartOCX\GraphDraw\SelectSubGraph.cpp
; File C:\Program Files (x86)\Microsoft Visual Studio\2019\Community\VC\Tools\MSVC\14.29.30133\atlmfc\include\atltypes.h
; File D:\git\src\IBK\IBK_DRFN\ProjSrc\SrcChartEx\ChartOCX\GraphDraw\SelectSubGraph.cpp
; File C:\Program Files (x86)\Microsoft Visual Studio\2019\Community\VC\Tools\MSVC\14.29.30133\atlmfc\include\atltypes.h
; File D:\git\src\IBK\IBK_DRFN\ProjSrc\SrcChartEx\ChartOCX\GraphDraw\SelectSubGraph.cpp
; File C:\Program Files (x86)\Microsoft Visual Studio\2019\Community\VC\Tools\MSVC\14.29.30133\atlmfc\include\afxtempl.h
; File D:\git\src\IBK\IBK_DRFN\ProjSrc\SrcChartEx\ChartOCX\GraphDraw\SelectSubGraph.cpp
;	COMDAT ?PointInBarGraph@CSelectSubGraph@@AAEHABVCPoint@@PBVCSelectSubGraphData@@PAVCIndicatorList@@@Z
_TEXT	SEGMENT
$T2 = -192						; size = 40
_dataViewMin$ = -152					; size = 8
_dataViewMax$ = -144					; size = 8
_dataPt$ = -136						; size = 8
_realWidth$ = -128					; size = 8
$T3 = -120						; size = 8
$T4 = -120						; size = 8
_pIndicatorList$GSCopy$1$ = -116			; size = 4
$T5 = -116						; size = 4
_pDataPacket$1$ = -112					; size = 4
$T6 = -112						; size = 4
_nIndex$1$ = -108					; size = 4
_standardDataPt$7 = -104				; size = 8
_viewDataMin$8 = -104					; size = 8
_pageDataCount$1$ = -100				; size = 4
tv774 = -96						; size = 8
_viewDataMax$9 = -96					; size = 8
$T10 = -96						; size = 8
_nGap$2$ = -92						; size = 4
$T11 = -92						; size = 4
_mousePoint$1$ = -88					; size = 4
$T12 = -84						; size = 8
_point$GSCopy$1$ = -80					; size = 4
$T13 = -80						; size = 4
_dataStart$ = -76					; size = 4
_dataEnd$ = -72						; size = 4
_area$ = -68						; size = 6
_this$GSCopy$1$ = -60					; size = 4
_dataIndex$ = -56					; size = 4
tv903 = -52						; size = 4
_mousePoint$2$ = -52					; size = 4
_dataPos$1$ = -52					; size = 4
_nCol$14 = -52						; size = 4
$T15 = -52						; size = 4
_region$16 = -48					; size = 16
$T17 = -48						; size = 16
$T18 = -48						; size = 16
$T19 = -40						; size = 8
_graphRegion$ = -32					; size = 16
__$ArrayPad$ = -16					; size = 4
__$EHRec$ = -12						; size = 12
_point$ = 8						; size = 4
_pSelectSubGraphData$ = 12				; size = 4
_pIndicatorList$ = 16					; size = 4
?PointInBarGraph@CSelectSubGraph@@AAEHABVCPoint@@PBVCSelectSubGraphData@@PAVCIndicatorList@@@Z PROC ; CSelectSubGraph::PointInBarGraph, COMDAT
; _this$ = ecx

; 322  : {

  00000	55		 push	 ebp
  00001	8b ec		 mov	 ebp, esp
  00003	6a ff		 push	 -1
  00005	68 00 00 00 00	 push	 __ehhandler$?PointInBarGraph@CSelectSubGraph@@AAEHABVCPoint@@PBVCSelectSubGraphData@@PAVCIndicatorList@@@Z
  0000a	64 a1 00 00 00
	00		 mov	 eax, DWORD PTR fs:0
  00010	50		 push	 eax
  00011	81 ec b4 00 00
	00		 sub	 esp, 180		; 000000b4H
  00017	a1 00 00 00 00	 mov	 eax, DWORD PTR ___security_cookie
  0001c	33 c5		 xor	 eax, ebp
  0001e	89 45 f0	 mov	 DWORD PTR __$ArrayPad$[ebp], eax
  00021	53		 push	 ebx
  00022	56		 push	 esi
  00023	57		 push	 edi
  00024	50		 push	 eax
  00025	8d 45 f4	 lea	 eax, DWORD PTR __$EHRec$[ebp]
  00028	64 a3 00 00 00
	00		 mov	 DWORD PTR fs:0, eax
  0002e	89 4d c4	 mov	 DWORD PTR _this$GSCopy$1$[ebp], ecx
  00031	8b 45 08	 mov	 eax, DWORD PTR _point$[ebp]
  00034	8b 7d 0c	 mov	 edi, DWORD PTR _pSelectSubGraphData$[ebp]
  00037	89 45 b0	 mov	 DWORD PTR _point$GSCopy$1$[ebp], eax
  0003a	8b 45 10	 mov	 eax, DWORD PTR _pIndicatorList$[ebp]
  0003d	89 45 8c	 mov	 DWORD PTR _pIndicatorList$GSCopy$1$[ebp], eax

; 323  : 	if(pSelectSubGraphData == NULL || pSelectSubGraphData->GetSubGraphType() != CGraphBaseData::Bar_Type)

  00040	85 ff		 test	 edi, edi
  00042	0f 84 a1 05 00
	00		 je	 $LN3@PointInBar
  00048	8b cf		 mov	 ecx, edi
  0004a	e8 00 00 00 00	 call	 ?GetSubGraphType@CSelectSubGraphData@@QBE?AW4GRAPHTYPE@CGraphBaseData@@XZ ; CSelectSubGraphData::GetSubGraphType
  0004f	83 f8 02	 cmp	 eax, 2
  00052	0f 85 91 05 00
	00		 jne	 $LN3@PointInBar

; 325  : 
; 326  : 	const CList< CPacket *, CPacket *> &packetList = pSelectSubGraphData->GetSubGraphPacketList()->GetSubGraphPacketList();

  00058	8b cf		 mov	 ecx, edi
  0005a	e8 00 00 00 00	 call	 ?GetSubGraphPacketList@CSelectSubGraphData@@QBEPAVCSubGraphPacketList@@XZ ; CSelectSubGraphData::GetSubGraphPacketList
  0005f	8b c8		 mov	 ecx, eax
  00061	e8 00 00 00 00	 call	 ?GetSubGraphPacketList@CSubGraphPacketList@@QBEABV?$CList@PAVCPacket@@PAV1@@@XZ ; CSubGraphPacketList::GetSubGraphPacketList

; 327  : 	if(packetList.GetCount() <= 0)

  00066	83 78 0c 00	 cmp	 DWORD PTR [eax+12], 0
  0006a	0f 8e 79 05 00
	00		 jle	 $LN3@PointInBar

; 328  : 		return -1;
; 329  : 	
; 330  : 	POSITION pos = packetList.GetHeadPosition();

  00070	8b 70 04	 mov	 esi, DWORD PTR [eax+4]

; 331  : 	if(pos == NULL)	

  00073	85 f6		 test	 esi, esi
  00075	0f 84 6e 05 00
	00		 je	 $LN3@PointInBar

; 332  : 		return -1;
; 333  : 	CPacket* pDataPacket = packetList.GetNext(pos);

  0007b	8b 76 08	 mov	 esi, DWORD PTR [esi+8]
  0007e	89 75 90	 mov	 DWORD PTR _pDataPacket$1$[ebp], esi

; 334  : 	if(pDataPacket == NULL)	return -1;

  00081	85 f6		 test	 esi, esi
  00083	0f 84 60 05 00
	00		 je	 $LN3@PointInBar

; 335  : 
; 336  : 	//sy 2004.12.45.
; 337  : 	int dataStart = 0, dataEnd = 0;

  00089	0f 57 c0	 xorps	 xmm0, xmm0
  0008c	c7 45 b4 00 00
	00 00		 mov	 DWORD PTR _dataStart$[ebp], 0

; 339  : 	if(!CGripDraw().GetGripDrawData_BarType(pDataPacket, *pSelectSubGraphData, 

  00093	8d 8d 40 ff ff
	ff		 lea	 ecx, DWORD PTR $T2[ebp]
  00099	c7 45 b8 00 00
	00 00		 mov	 DWORD PTR _dataEnd$[ebp], 0
; File C:\Program Files (x86)\Microsoft Visual Studio\2019\Community\VC\Tools\MSVC\14.29.30133\atlmfc\include\atltypes.h

; 540  : 	left = l;

  000a0	0f 11 45 e0	 movups	 XMMWORD PTR _graphRegion$[ebp], xmm0
; File D:\git\src\IBK\IBK_DRFN\ProjSrc\SrcChartEx\ChartOCX\GraphDraw\SelectSubGraph.cpp

; 339  : 	if(!CGripDraw().GetGripDrawData_BarType(pDataPacket, *pSelectSubGraphData, 

  000a4	e8 00 00 00 00	 call	 ??0CGripDraw@@QAE@XZ	; CGripDraw::CGripDraw
  000a9	8d 4d e0	 lea	 ecx, DWORD PTR _graphRegion$[ebp]
  000ac	c7 45 fc 00 00
	00 00		 mov	 DWORD PTR __$EHRec$[ebp+8], 0
  000b3	51		 push	 ecx
  000b4	8d 4d b8	 lea	 ecx, DWORD PTR _dataEnd$[ebp]
  000b7	51		 push	 ecx
  000b8	8d 4d b4	 lea	 ecx, DWORD PTR _dataStart$[ebp]
  000bb	51		 push	 ecx
  000bc	57		 push	 edi
  000bd	56		 push	 esi
  000be	8b c8		 mov	 ecx, eax
  000c0	e8 00 00 00 00	 call	 ?GetGripDrawData_BarType@CGripDraw@@QBE_NPAVCPacket@@ABVCSelectSubGraphData@@AAH2AAVCRect@@@Z ; CGripDraw::GetGripDrawData_BarType
  000c5	8d 8d 40 ff ff
	ff		 lea	 ecx, DWORD PTR $T2[ebp]
  000cb	c7 45 fc ff ff
	ff ff		 mov	 DWORD PTR __$EHRec$[ebp+8], -1
  000d2	8a d8		 mov	 bl, al
  000d4	e8 00 00 00 00	 call	 ??1CGripDraw@@UAE@XZ	; CGripDraw::~CGripDraw
  000d9	84 db		 test	 bl, bl
  000db	0f 84 08 05 00
	00		 je	 $LN3@PointInBar

; 340  : 		dataStart, dataEnd, graphRegion))
; 341  : 		return -1;
; 342  : 	//sy end
; 343  : 
; 344  : 	int pageDataCount = dataEnd - dataStart + 1;

  000e1	8b 45 b8	 mov	 eax, DWORD PTR _dataEnd$[ebp]

; 347  : 	CGraphBaseData::BARSTYLE eGraphStyle = pSelectSubGraphData->GetSubGraphStyle().GetGraphBarStyle();

  000e4	8b cf		 mov	 ecx, edi
  000e6	2b 45 b4	 sub	 eax, DWORD PTR _dataStart$[ebp]
  000e9	40		 inc	 eax
  000ea	c7 45 c8 00 00
	00 00		 mov	 DWORD PTR _dataIndex$[ebp], 0
  000f1	89 45 9c	 mov	 DWORD PTR _pageDataCount$1$[ebp], eax
; File D:\git\src\IBK\IBK_DRFN\ProjSrc\SrcChartEx\ChartOCX\Include_Chart\Dll_Load\XScaleManager.h

; 67   : 			left = center = right = 0;

  000f4	33 c0		 xor	 eax, eax
  000f6	89 45 be	 mov	 DWORD PTR _area$[ebp+2], eax
  000f9	66 89 45 bc	 mov	 WORD PTR _area$[ebp], ax
; File D:\git\src\IBK\IBK_DRFN\ProjSrc\SrcChartEx\ChartOCX\GraphDraw\SelectSubGraph.cpp

; 347  : 	CGraphBaseData::BARSTYLE eGraphStyle = pSelectSubGraphData->GetSubGraphStyle().GetGraphBarStyle();

  000fd	8d 45 a4	 lea	 eax, DWORD PTR $T11[ebp]
  00100	50		 push	 eax
  00101	e8 00 00 00 00	 call	 ?GetSubGraphStyle@CSelectSubGraphData@@QBE?AVCGraphStyle@@XZ ; CSelectSubGraphData::GetSubGraphStyle
  00106	8b 18		 mov	 ebx, DWORD PTR [eax]

; 348  : 	if(eGraphStyle == CGraphBaseData::HorizontalBar || eGraphStyle == CGraphBaseData::TextHorizontalBar){

  00108	83 fb 01	 cmp	 ebx, 1
  0010b	0f 84 48 02 00
	00		 je	 $LN10@PointInBar
  00111	83 fb 0a	 cmp	 ebx, 10			; 0000000aH
  00114	0f 84 3f 02 00
	00		 je	 $LN10@PointInBar

; 351  : 	}
; 352  : 	else
; 353  : 	{
; 354  : 		int nCol = 0;
; 355  : 		pSelectSubGraphData->GetXScaleManager()->GetDTInAREAfRQnPt(pSelectSubGraphData->GetRQ(), point.x, nCol, &dataIndex, &area);

  0011a	8b cf		 mov	 ecx, edi
  0011c	c7 45 cc 00 00
	00 00		 mov	 DWORD PTR _nCol$14[ebp], 0
  00123	e8 00 00 00 00	 call	 ?GetXScaleManager@CSelectSubGraphData@@QBEPAVCXScaleManager@@XZ ; CSelectSubGraphData::GetXScaleManager
  00128	8b 4d b0	 mov	 ecx, DWORD PTR _point$GSCopy$1$[ebp]
  0012b	8b f0		 mov	 esi, eax
  0012d	6a 00		 push	 0
  0012f	8d 45 bc	 lea	 eax, DWORD PTR _area$[ebp]
  00132	50		 push	 eax
  00133	8d 45 c8	 lea	 eax, DWORD PTR _dataIndex$[ebp]
  00136	50		 push	 eax
  00137	8d 45 cc	 lea	 eax, DWORD PTR _nCol$14[ebp]
  0013a	50		 push	 eax
  0013b	ff 31		 push	 DWORD PTR [ecx]
  0013d	51		 push	 ecx
  0013e	54		 push	 esp
  0013f	8b cf		 mov	 ecx, edi
  00141	e8 00 00 00 00	 call	 ?GetRQ@CSelectSubGraphData@@QBE?AV?$CStringT@DV?$StrTraitMFC_DLL@DV?$ChTraitsCRT@D@ATL@@@@@ATL@@XZ ; CSelectSubGraphData::GetRQ
  00146	8b 06		 mov	 eax, DWORD PTR [esi]
  00148	8b ce		 mov	 ecx, esi
  0014a	ff 90 34 01 00
	00		 call	 DWORD PTR [eax+308]
$LN84@PointInBar:

; 356  : 	}
; 357  : 
; 358  : 	if(dataIndex == -1)

  00150	8b 45 c8	 mov	 eax, DWORD PTR _dataIndex$[ebp]
$LN11@PointInBar:
  00153	83 f8 ff	 cmp	 eax, -1
  00156	0f 84 8d 04 00
	00		 je	 $LN3@PointInBar

; 359  : 		return -1;
; 360  : 	 
; 361  : 	POSITION dataPos = pDataPacket->GetnumericDataList()->FindIndex(dataIndex);

  0015c	8b 75 90	 mov	 esi, DWORD PTR _pDataPacket$1$[ebp]
  0015f	8b ce		 mov	 ecx, esi
  00161	50		 push	 eax
  00162	ff 15 00 00 00
	00		 call	 DWORD PTR __imp_?GetnumericDataList@CPacket@@QAEPAV?$CList@NN@@XZ
  00168	8b c8		 mov	 ecx, eax
  0016a	e8 00 00 00 00	 call	 ?FindIndex@?$CList@NN@@QBEPAU__POSITION@@H@Z ; CList<double,double>::FindIndex
  0016f	89 45 cc	 mov	 DWORD PTR _dataPos$1$[ebp], eax

; 362  : 	if(dataPos == NULL) 

  00172	85 c0		 test	 eax, eax
  00174	0f 84 6f 04 00
	00		 je	 $LN3@PointInBar

; 363  : 		return -1;
; 364  : 
; 365  : 	double realWidth = CDraw::CalRealWidth(graphRegion, dataStart, dataEnd);

  0017a	ff 75 b8	 push	 DWORD PTR _dataEnd$[ebp]
  0017d	8b 4d c4	 mov	 ecx, DWORD PTR _this$GSCopy$1$[ebp]
  00180	8d 45 e0	 lea	 eax, DWORD PTR _graphRegion$[ebp]
  00183	ff 75 b4	 push	 DWORD PTR _dataStart$[ebp]
  00186	50		 push	 eax
  00187	e8 00 00 00 00	 call	 ?CalRealWidth@CDraw@@IAENABVCRect@@HH@Z ; CDraw::CalRealWidth

; 366  : 	double dataViewMin = CDraw::CalLogValue(pSelectSubGraphData->GetVertScaleLogType(), pSelectSubGraphData->GetDisplayDataVertMinMax().GetDisplayMin());

  0018c	8d 45 d0	 lea	 eax, DWORD PTR $T18[ebp]
  0018f	8b cf		 mov	 ecx, edi
  00191	50		 push	 eax
  00192	dd 5d 80	 fstp	 QWORD PTR _realWidth$[ebp]
  00195	e8 00 00 00 00	 call	 ?GetDisplayDataVertMinMax@CSelectSubGraphData@@QBE?AVCDisplayDataMinMax@@XZ ; CSelectSubGraphData::GetDisplayDataVertMinMax
  0019a	8b c8		 mov	 ecx, eax
  0019c	ff 15 00 00 00
	00		 call	 DWORD PTR __imp_?GetDisplayMin@CDisplayDataMinMax@@QBENXZ
  001a2	83 ec 08	 sub	 esp, 8
  001a5	8b cf		 mov	 ecx, edi
  001a7	dd 1c 24	 fstp	 QWORD PTR [esp]
  001aa	e8 00 00 00 00	 call	 ?GetVertScaleLogType@CSelectSubGraphData@@QBE_NXZ ; CSelectSubGraphData::GetVertScaleLogType
  001af	8b 4d c4	 mov	 ecx, DWORD PTR _this$GSCopy$1$[ebp]
  001b2	0f b6 c0	 movzx	 eax, al
  001b5	50		 push	 eax
  001b6	e8 00 00 00 00	 call	 ?CalLogValue@CDraw@@IAEN_NN@Z ; CDraw::CalLogValue

; 367  : 	double dataViewMax = CDraw::CalLogValue(pSelectSubGraphData->GetVertScaleLogType(), pSelectSubGraphData->GetDisplayDataVertMinMax().GetDisplayMax());

  001bb	8d 45 d0	 lea	 eax, DWORD PTR $T17[ebp]
  001be	8b cf		 mov	 ecx, edi
  001c0	50		 push	 eax
  001c1	dd 9d 68 ff ff
	ff		 fstp	 QWORD PTR _dataViewMin$[ebp]
  001c7	e8 00 00 00 00	 call	 ?GetDisplayDataVertMinMax@CSelectSubGraphData@@QBE?AVCDisplayDataMinMax@@XZ ; CSelectSubGraphData::GetDisplayDataVertMinMax
  001cc	8b c8		 mov	 ecx, eax
  001ce	ff 15 00 00 00
	00		 call	 DWORD PTR __imp_?GetDisplayMax@CDisplayDataMinMax@@QBENXZ
  001d4	83 ec 08	 sub	 esp, 8
  001d7	8b cf		 mov	 ecx, edi
  001d9	dd 1c 24	 fstp	 QWORD PTR [esp]
  001dc	e8 00 00 00 00	 call	 ?GetVertScaleLogType@CSelectSubGraphData@@QBE_NXZ ; CSelectSubGraphData::GetVertScaleLogType
  001e1	8b 4d c4	 mov	 ecx, DWORD PTR _this$GSCopy$1$[ebp]
  001e4	0f b6 c0	 movzx	 eax, al
  001e7	50		 push	 eax
  001e8	e8 00 00 00 00	 call	 ?CalLogValue@CDraw@@IAEN_NN@Z ; CDraw::CalLogValue

; 1322 : 		return dataStart;

  001ed	8b 4d b4	 mov	 ecx, DWORD PTR _dataStart$[ebp]

; 1323 : 	
; 1324 : 	return (dataIndex - dataStart);

  001f0	8b 55 c8	 mov	 edx, DWORD PTR _dataIndex$[ebp]
  001f3	2b d1		 sub	 edx, ecx
  001f5	39 4d c8	 cmp	 DWORD PTR _dataIndex$[ebp], ecx

; 367  : 	double dataViewMax = CDraw::CalLogValue(pSelectSubGraphData->GetVertScaleLogType(), pSelectSubGraphData->GetDisplayDataVertMinMax().GetDisplayMax());

  001f8	dd 9d 70 ff ff
	ff		 fstp	 QWORD PTR _dataViewMax$[ebp]

; 1321 : 	if(dataIndex < dataStart)

  001fe	0f 4c d1	 cmovl	 edx, ecx

; 368  : 	int nIndex = GetIndex(dataIndex, dataStart);
; 369  : 	CPoint dataPt = CDataConversion::GetVerticalPoint(graphRegion, nIndex, realWidth, dataViewMin, dataViewMax, CDraw::CalLogValue(pSelectSubGraphData->GetVertScaleLogType(), pDataPacket->GetnumericDataList()->GetNext(dataPos)));

  00201	8b ce		 mov	 ecx, esi

; 1321 : 	if(dataIndex < dataStart)

  00203	89 55 94	 mov	 DWORD PTR _nIndex$1$[ebp], edx

; 368  : 	int nIndex = GetIndex(dataIndex, dataStart);
; 369  : 	CPoint dataPt = CDataConversion::GetVerticalPoint(graphRegion, nIndex, realWidth, dataViewMin, dataViewMax, CDraw::CalLogValue(pSelectSubGraphData->GetVertScaleLogType(), pDataPacket->GetnumericDataList()->GetNext(dataPos)));

  00206	ff 15 00 00 00
	00		 call	 DWORD PTR __imp_?GetnumericDataList@CPacket@@QAEPAV?$CList@NN@@XZ
  0020c	8b 45 cc	 mov	 eax, DWORD PTR _dataPos$1$[ebp]
  0020f	83 ec 08	 sub	 esp, 8
  00212	8b cf		 mov	 ecx, edi
  00214	f2 0f 10 40 08	 movsd	 xmm0, QWORD PTR [eax+8]
  00219	f2 0f 11 04 24	 movsd	 QWORD PTR [esp], xmm0
  0021e	e8 00 00 00 00	 call	 ?GetVertScaleLogType@CSelectSubGraphData@@QBE_NXZ ; CSelectSubGraphData::GetVertScaleLogType
  00223	8b 4d c4	 mov	 ecx, DWORD PTR _this$GSCopy$1$[ebp]
  00226	0f b6 c0	 movzx	 eax, al
  00229	50		 push	 eax
  0022a	e8 00 00 00 00	 call	 ?CalLogValue@CDraw@@IAEN_NN@Z ; CDraw::CalLogValue
  0022f	6a 01		 push	 1
  00231	8d 45 a0	 lea	 eax, DWORD PTR $T10[ebp]
  00234	50		 push	 eax
  00235	8d 85 70 ff ff
	ff		 lea	 eax, DWORD PTR _dataViewMax$[ebp]
  0023b	50		 push	 eax
  0023c	8d 85 68 ff ff
	ff		 lea	 eax, DWORD PTR _dataViewMin$[ebp]
  00242	50		 push	 eax
  00243	8d 45 80	 lea	 eax, DWORD PTR _realWidth$[ebp]
  00246	50		 push	 eax
  00247	ff 75 94	 push	 DWORD PTR _nIndex$1$[ebp]
  0024a	8d 45 e0	 lea	 eax, DWORD PTR _graphRegion$[ebp]
  0024d	50		 push	 eax
  0024e	8d 85 78 ff ff
	ff		 lea	 eax, DWORD PTR _dataPt$[ebp]
  00254	50		 push	 eax
  00255	dd 5d a0	 fstp	 QWORD PTR $T10[ebp]
  00258	e8 00 00 00 00	 call	 ?GetVerticalPoint@CDataConversion@@SA?AVCPoint@@ABVCRect@@HABN111_N@Z ; CDataConversion::GetVerticalPoint

; 370  : //	CPoint startPt = CDataConversion::GetVerticalPoint(graphRegion, count, realWidth, dataViewMin, dataViewMax, CDraw::CalLogValue(pSelectSubGraphData->GetVertScaleLogType(), pDataPacket->GetnumericDataList()->GetNext(dataPos)), false);
; 371  : //	CPoint endPt = CDataConversion::GetVerticalPoint(graphRegion, count+1, realWidth, dataViewMin, dataViewMax, CDraw::CalLogValue(pSelectSubGraphData->GetVertScaleLogType(), pDataPacket->GetnumericDataList()->GetNext(dataPos)), false);
; 372  : 
; 373  : 	//invert scale .
; 374  : 	CPoint mousePoint = point;

  0025d	8b 4d b0	 mov	 ecx, DWORD PTR _point$GSCopy$1$[ebp]
