; Listing generated by Microsoft (R) Optimizing Compiler Version 19.29.30145.0 

	TITLE	D:\git\src\IBK\IBK_DRFN\#DRfn-CS\_Obj\GraphDraw\SelectSubGraph.obj
	.686P
	.XMM
	include listing.inc
	.model	flat

INCLUDELIB MSVCRT
INCLUDELIB OLDNAMES

CONST	SEGMENT
?_Fake_alloc@std@@3U_Fake_allocator@1@B	ORG $+1		; std::_Fake_alloc
CONST	ENDS
PUBLIC	??_H@YGXPAXIIP6EPAX0@Z@Z			; `vector constructor iterator'
PUBLIC	?__empty_global_delete@@YAXPAX@Z		; __empty_global_delete
PUBLIC	?__empty_global_delete@@YAXPAXI@Z		; __empty_global_delete
PUBLIC	??1CObject@@UAE@XZ				; CObject::~CObject
PUBLIC	?Serialize@CObject@@UAEXAAVCArchive@@@Z		; CObject::Serialize
PUBLIC	?AssertValid@CObject@@UBEXXZ			; CObject::AssertValid
PUBLIC	?Dump@CObject@@UBEXAAVCDumpContext@@@Z		; CObject::Dump
PUBLIC	??0CPoint@@QAE@XZ				; CPoint::CPoint
PUBLIC	??1CGdiObject@@UAE@XZ				; CGdiObject::~CGdiObject
PUBLIC	??_GCGdiObject@@UAEPAXI@Z			; CGdiObject::`scalar deleting destructor'
PUBLIC	??1CRgn@@UAE@XZ					; CRgn::~CRgn
PUBLIC	??_GCRgn@@UAEPAXI@Z				; CRgn::`scalar deleting destructor'
PUBLIC	??0CSelectSubGraph@@QAE@XZ			; CSelectSubGraph::CSelectSubGraph
PUBLIC	??1CSelectSubGraph@@UAE@XZ			; CSelectSubGraph::~CSelectSubGraph
PUBLIC	?PointInSubGraph@CSelectSubGraph@@QAEHABVCPoint@@PBVCSelectSubGraphData@@PAVCIndicatorList@@@Z ; CSelectSubGraph::PointInSubGraph
PUBLIC	?GetPacketData_InverseLineGraph@CSelectSubGraph@@QBE_NPBVCSelectSubGraphData@@AAHAAPAV?$CList@NN@@2AAPAU__POSITION@@3331@Z ; CSelectSubGraph::GetPacketData_InverseLineGraph
PUBLIC	?PointInBongGraph@CSelectSubGraph@@AAEHABVCPoint@@PBVCSelectSubGraphData@@@Z ; CSelectSubGraph::PointInBongGraph
PUBLIC	?PointInLineGraph@CSelectSubGraph@@AAEHABVCPoint@@PBVCSelectSubGraphData@@@Z ; CSelectSubGraph::PointInLineGraph
PUBLIC	?PointInSolidLineBongGraph@CSelectSubGraph@@AAEHABVCPoint@@PBVCSelectSubGraphData@@@Z ; CSelectSubGraph::PointInSolidLineBongGraph
PUBLIC	?PointInBarGraph@CSelectSubGraph@@AAEHABVCPoint@@PBVCSelectSubGraphData@@PAVCIndicatorList@@@Z ; CSelectSubGraph::PointInBarGraph
PUBLIC	?PointInCombBarGraph@CSelectSubGraph@@AAEHABVCPoint@@PBVCSelectSubGraphData@@PAVCIndicatorList@@@Z ; CSelectSubGraph::PointInCombBarGraph
PUBLIC	?PointInDotBarGraph@CSelectSubGraph@@AAEHABVCPoint@@PBVCSelectSubGraphData@@PAVCIndicatorList@@@Z ; CSelectSubGraph::PointInDotBarGraph
PUBLIC	?PointInTopBottomSignalGraph@CSelectSubGraph@@AAEHABVCPoint@@PBVCSelectSubGraphData@@@Z ; CSelectSubGraph::PointInTopBottomSignalGraph
PUBLIC	?PointInBoxBarGraph@CSelectSubGraph@@AAEHABVCPoint@@PBVCSelectSubGraphData@@PAVCIndicatorList@@@Z ; CSelectSubGraph::PointInBoxBarGraph
PUBLIC	?PointInLeftRightBarGraph@CSelectSubGraph@@AAEHABVCPoint@@PBVCSelectSubGraphData@@PAVCIndicatorList@@@Z ; CSelectSubGraph::PointInLeftRightBarGraph
PUBLIC	?PointInGroupBarGraph@CSelectSubGraph@@AAEHABVCPoint@@PBVCSelectSubGraphData@@PAVCIndicatorList@@@Z ; CSelectSubGraph::PointInGroupBarGraph
PUBLIC	?PointInThreeLineBreakGraph@CSelectSubGraph@@AAEHABVCPoint@@PBVCSelectSubGraphData@@@Z ; CSelectSubGraph::PointInThreeLineBreakGraph
PUBLIC	?PointInInverseLineGraph@CSelectSubGraph@@AAEHABVCPoint@@PBVCSelectSubGraphData@@@Z ; CSelectSubGraph::PointInInverseLineGraph
PUBLIC	?PointInPAndFGraph@CSelectSubGraph@@AAEHABVCPoint@@PBVCSelectSubGraphData@@@Z ; CSelectSubGraph::PointInPAndFGraph
PUBLIC	?GetDataIndex@CSelectSubGraph@@AAEHVCRect@@VCPoint@@HHH@Z ; CSelectSubGraph::GetDataIndex
PUBLIC	?GetDataIndex@CSelectSubGraph@@AAEHVCRect@@VCPoint@@HH@Z ; CSelectSubGraph::GetDataIndex
PUBLIC	?GetIndex@CSelectSubGraph@@ABEHHH@Z		; CSelectSubGraph::GetIndex
PUBLIC	??_GCSelectSubGraph@@UAEPAXI@Z			; CSelectSubGraph::`scalar deleting destructor'
PUBLIC	??4CGraphDrawer@@QAEAAV0@ABV0@@Z		; CGraphDrawer::operator=
PUBLIC	??4CGraphDrawer@@QAEAAV0@$$QAV0@@Z		; CGraphDrawer::operator=
PUBLIC	??1CPAndFDraw@@UAE@XZ				; CPAndFDraw::~CPAndFDraw
PUBLIC	??_GCPAndFDraw@@UAEPAXI@Z			; CPAndFDraw::`scalar deleting destructor'
PUBLIC	?FindIndex@?$CList@PAVCPacket@@PAV1@@@QBEPAU__POSITION@@H@Z ; CList<CPacket *,CPacket *>::FindIndex
PUBLIC	?FindIndex@?$CList@NN@@QBEPAU__POSITION@@H@Z	; CList<double,double>::FindIndex
PUBLIC	??_R0PAVCException@@@8				; CException * `RTTI Type Descriptor'
PUBLIC	??_7CGdiObject@@6B@				; CGdiObject::`vftable'
PUBLIC	??_7CRgn@@6B@					; CRgn::`vftable'
PUBLIC	??_C@_0HD@JJCHHHNK@C?3?2Program?5Files?5?$CIx86?$CJ?2Microsof@ ; `string'
PUBLIC	??_C@_0BP@OIEOKIDM@Exception?5thrown?5in?5destructor@ ; `string'
PUBLIC	??_C@_0BB@HBOOMJBF@?$CFTs?5?$CI?$CFTs?3?$CFd?$CJ?6?$CFTs@ ; `string'
PUBLIC	??_C@_0N@OMEMOKLE@?$CFTs?5?$CI?$CFTs?3?$CFd?$CJ@ ; `string'
PUBLIC	??_R0?AVCObject@@@8				; CObject `RTTI Type Descriptor'
PUBLIC	??_R3CObject@@8					; CObject::`RTTI Class Hierarchy Descriptor'
PUBLIC	??_R2CObject@@8					; CObject::`RTTI Base Class Array'
PUBLIC	??_R1A@?0A@EA@CObject@@8			; CObject::`RTTI Base Class Descriptor at (0,-1,0,64)'
PUBLIC	??_R4CGdiObject@@6B@				; CGdiObject::`RTTI Complete Object Locator'
PUBLIC	??_R0?AVCGdiObject@@@8				; CGdiObject `RTTI Type Descriptor'
PUBLIC	??_R3CGdiObject@@8				; CGdiObject::`RTTI Class Hierarchy Descriptor'
PUBLIC	??_R2CGdiObject@@8				; CGdiObject::`RTTI Base Class Array'
PUBLIC	??_R1A@?0A@EA@CGdiObject@@8			; CGdiObject::`RTTI Base Class Descriptor at (0,-1,0,64)'
PUBLIC	??_R4CRgn@@6B@					; CRgn::`RTTI Complete Object Locator'
PUBLIC	??_R0?AVCRgn@@@8				; CRgn `RTTI Type Descriptor'
PUBLIC	??_R3CRgn@@8					; CRgn::`RTTI Class Hierarchy Descriptor'
PUBLIC	??_R2CRgn@@8					; CRgn::`RTTI Base Class Array'
PUBLIC	??_R1A@?0A@EA@CRgn@@8				; CRgn::`RTTI Base Class Descriptor at (0,-1,0,64)'
PUBLIC	??_7CSelectSubGraph@@6B@			; CSelectSubGraph::`vftable'
PUBLIC	??_7CPAndFDraw@@6B@				; CPAndFDraw::`vftable'
PUBLIC	??_R4CSelectSubGraph@@6B@			; CSelectSubGraph::`RTTI Complete Object Locator'
PUBLIC	??_R0?AVCSelectSubGraph@@@8			; CSelectSubGraph `RTTI Type Descriptor'
PUBLIC	??_R3CSelectSubGraph@@8				; CSelectSubGraph::`RTTI Class Hierarchy Descriptor'
PUBLIC	??_R2CSelectSubGraph@@8				; CSelectSubGraph::`RTTI Base Class Array'
PUBLIC	??_R1A@?0A@EA@CSelectSubGraph@@8		; CSelectSubGraph::`RTTI Base Class Descriptor at (0,-1,0,64)'
PUBLIC	??_R1A@?0A@EA@CDraw@@8				; CDraw::`RTTI Base Class Descriptor at (0,-1,0,64)'
PUBLIC	??_R0?AVCDraw@@@8				; CDraw `RTTI Type Descriptor'
PUBLIC	??_R3CDraw@@8					; CDraw::`RTTI Class Hierarchy Descriptor'
PUBLIC	??_R2CDraw@@8					; CDraw::`RTTI Base Class Array'
PUBLIC	??_R4CPAndFDraw@@6B@				; CPAndFDraw::`RTTI Complete Object Locator'
PUBLIC	??_R0?AVCPAndFDraw@@@8				; CPAndFDraw `RTTI Type Descriptor'
PUBLIC	??_R3CPAndFDraw@@8				; CPAndFDraw::`RTTI Class Hierarchy Descriptor'
PUBLIC	??_R2CPAndFDraw@@8				; CPAndFDraw::`RTTI Base Class Array'
PUBLIC	??_R1A@?0A@EA@CPAndFDraw@@8			; CPAndFDraw::`RTTI Base Class Descriptor at (0,-1,0,64)'
PUBLIC	__real@0000000000000000
PUBLIC	__real@3fe0000000000000
PUBLIC	__real@3fe999999999999a
PUBLIC	__real@3ff0000000000000
PUBLIC	__real@4020000000000000
PUBLIC	__real@bff0000000000000
PUBLIC	__xmm@7fffffffffffffff7fffffffffffffff
EXTRN	??3@YAXPAX@Z:PROC				; operator delete
EXTRN	??3@YAXPAXI@Z:PROC				; operator delete
EXTRN	?__global_delete@@YAXPAXI@Z:PROC		; __global_delete
EXTRN	__imp__PtInRegion@12:PROC
EXTRN	__imp__CreatePolygonRgn@12:PROC
EXTRN	__imp__InflateRect@12:PROC
EXTRN	__imp__PtInRect@12:PROC
EXTRN	?AfxThrowInvalidArgException@@YGXXZ:PROC	; AfxThrowInvalidArgException
EXTRN	__imp_??0?$CStringT@DV?$StrTraitMFC_DLL@DV?$ChTraitsCRT@D@ATL@@@@@ATL@@QAE@XZ:PROC
EXTRN	__imp_??0?$CStringT@DV?$StrTraitMFC_DLL@DV?$ChTraitsCRT@D@ATL@@@@@ATL@@QAE@ABV01@@Z:PROC
EXTRN	__imp_??1?$CStringT@DV?$StrTraitMFC_DLL@DV?$ChTraitsCRT@D@ATL@@@@@ATL@@QAE@XZ:PROC
EXTRN	__imp_?Compare@?$CStringT@DV?$StrTraitMFC_DLL@DV?$ChTraitsCRT@D@ATL@@@@@ATL@@QBEHPBD@Z:PROC
EXTRN	__imp_?Format@?$CStringT@DV?$StrTraitMFC_DLL@DV?$ChTraitsCRT@D@ATL@@@@@ATL@@QAAXPBDZZ:PROC
EXTRN	?GetRuntimeClass@CGdiObject@@UBEPAUCRuntimeClass@@XZ:PROC ; CGdiObject::GetRuntimeClass
EXTRN	?Attach@CGdiObject@@QAEHPAX@Z:PROC		; CGdiObject::Attach
EXTRN	?DeleteObject@CGdiObject@@QAEHXZ:PROC		; CGdiObject::DeleteObject
EXTRN	??_ECGdiObject@@UAEPAXI@Z:PROC			; CGdiObject::`vector deleting destructor'
EXTRN	?GetRuntimeClass@CRgn@@UBEPAUCRuntimeClass@@XZ:PROC ; CRgn::GetRuntimeClass
EXTRN	??_ECRgn@@UAEPAXI@Z:PROC			; CRgn::`vector deleting destructor'
EXTRN	?AfxMessageBox@@YGHPBDII@Z:PROC			; AfxMessageBox
EXTRN	?GetVerticalPoint@CDataConversion@@SA?AVCPoint@@ABVCRect@@HABN111_N@Z:PROC ; CDataConversion::GetVerticalPoint
EXTRN	?GetVerticalPoint@CDataConversion@@SA?AVCPoint@@ABVCRect@@ABN11111@Z:PROC ; CDataConversion::GetVerticalPoint
EXTRN	?GetHorizontalPoint@CDataConversion@@SA?AVCPoint@@ABVCRect@@HABN111@Z:PROC ; CDataConversion::GetHorizontalPoint
EXTRN	?AbsoluteToRelative_X@CDataConversion@@SAHABVCRect@@HH@Z:PROC ; CDataConversion::AbsoluteToRelative_X
EXTRN	?InvertGraphDataPt@CDataConversion@@SAHABVCRect@@H@Z:PROC ; CDataConversion::InvertGraphDataPt
EXTRN	??0CDraw@@QAE@XZ:PROC				; CDraw::CDraw
EXTRN	??1CDraw@@UAE@XZ:PROC				; CDraw::~CDraw
EXTRN	?DrawGraph@CDraw@@UAE_NPAVCDC@@ABVCRect@@ABVCDisplayAttributes@@ABVCDrawingGraphData@@ABVCSubGraphData@@@Z:PROC ; CDraw::DrawGraph
EXTRN	?DrawGraph@CDraw@@UAE_NPAVCDC@@ABVCRect@@ABVCDisplayAttributes@@ABVCDrawingGraphData@@ABVCSubGraphData@@ABV?$CStringT@DV?$StrTraitMFC_DLL@DV?$ChTraitsCRT@D@ATL@@@@@ATL@@PAVCXScaleManager@@@Z:PROC ; CDraw::DrawGraph
EXTRN	?CalRealWidth@CDraw@@IAENABVCRect@@HH@Z:PROC	; CDraw::CalRealWidth
EXTRN	?CalLogValue@CDraw@@IAEN_NN@Z:PROC		; CDraw::CalLogValue
EXTRN	??_ECSelectSubGraph@@UAEPAXI@Z:PROC		; CSelectSubGraph::`vector deleting destructor'
EXTRN	?IsViewVertMinMax_EndPacket@IMetaTable@@QAE_NABV?$CStringT@DV?$StrTraitMFC_DLL@DV?$ChTraitsCRT@D@ATL@@@@@ATL@@@Z:PROC ; IMetaTable::IsViewVertMinMax_EndPacket
EXTRN	__imp_?GetName@CPacket@@QAE?AV?$CStringT@DV?$StrTraitMFC_DLL@DV?$ChTraitsCRT@D@ATL@@@@@ATL@@XZ:PROC
EXTRN	__imp_?GetPacketList@CPacket@@QAEPAVCPacketList@@XZ:PROC
EXTRN	__imp_?GetStartPeriod@CPacket@@QAEHXZ:PROC
EXTRN	__imp_?GetnumericDataList@CPacket@@QAEPAV?$CList@NN@@XZ:PROC
EXTRN	__imp_?GetMinMax@CPacket@@QAEHHHAAN0H@Z:PROC
EXTRN	__imp_?GetDisplayMin@CDisplayDataMinMax@@QBENXZ:PROC
EXTRN	__imp_?GetDisplayMax@CDisplayDataMinMax@@QBENXZ:PROC
EXTRN	?GetDataStartInBlock@CDisplayAttributes@@QBEHXZ:PROC ; CDisplayAttributes::GetDataStartInBlock
EXTRN	?GetDataEndInBlock@CDisplayAttributes@@QBEHXZ:PROC ; CDisplayAttributes::GetDataEndInBlock
EXTRN	?GetDataCountInBlock@CDisplayAttributes@@QBEHXZ:PROC ; CDisplayAttributes::GetDataCountInBlock
EXTRN	?GetDrawingRegion@CGraphRegions@@QBE?AVCRect@@W4GRAPHTYPE@CGraphBaseData@@ABVCGraphStyle@@@Z:PROC ; CGraphRegions::GetDrawingRegion
EXTRN	?Round@CMath@@SAHN@Z:PROC			; CMath::Round
EXTRN	?GetGraphName@CSelectSubGraphData@@QBE?AV?$CStringT@DV?$StrTraitMFC_DLL@DV?$ChTraitsCRT@D@ATL@@@@@ATL@@XZ:PROC ; CSelectSubGraphData::GetGraphName
EXTRN	?GetVertScaleLogType@CSelectSubGraphData@@QBE_NXZ:PROC ; CSelectSubGraphData::GetVertScaleLogType
EXTRN	?GetVertScaleInvertType@CSelectSubGraphData@@QBE_NXZ:PROC ; CSelectSubGraphData::GetVertScaleInvertType
EXTRN	?GetGraphRegions@CSelectSubGraphData@@QBE?AVCGraphRegions@@XZ:PROC ; CSelectSubGraphData::GetGraphRegions
EXTRN	?GetSubGraphType@CSelectSubGraphData@@QBE?AW4GRAPHTYPE@CGraphBaseData@@XZ:PROC ; CSelectSubGraphData::GetSubGraphType
EXTRN	?GetSubGraphStyle@CSelectSubGraphData@@QBE?AVCGraphStyle@@XZ:PROC ; CSelectSubGraphData::GetSubGraphStyle
EXTRN	?GetDisplayDataHorzMinMax@CSelectSubGraphData@@QBE?AVCDisplayDataMinMax@@XZ:PROC ; CSelectSubGraphData::GetDisplayDataHorzMinMax
EXTRN	?GetDisplayDataVertMinMax@CSelectSubGraphData@@QBE?AVCDisplayDataMinMax@@XZ:PROC ; CSelectSubGraphData::GetDisplayDataVertMinMax
EXTRN	?GetDisplayAttributes@CSelectSubGraphData@@QBE?AVCDisplayAttributes@@XZ:PROC ; CSelectSubGraphData::GetDisplayAttributes
EXTRN	?GetSubGraphPacketList@CSelectSubGraphData@@QBEPAVCSubGraphPacketList@@XZ:PROC ; CSelectSubGraphData::GetSubGraphPacketList
EXTRN	?GetIndicatorInfo@CSelectSubGraphData@@QBEPAVCIndicatorInfo@@XZ:PROC ; CSelectSubGraphData::GetIndicatorInfo
EXTRN	?GetXScaleManager@CSelectSubGraphData@@QBEPAVCXScaleManager@@XZ:PROC ; CSelectSubGraphData::GetXScaleManager
EXTRN	?GetRQ@CSelectSubGraphData@@QBE?AV?$CStringT@DV?$StrTraitMFC_DLL@DV?$ChTraitsCRT@D@ATL@@@@@ATL@@XZ:PROC ; CSelectSubGraphData::GetRQ
EXTRN	__imp_?GetGraphIndicatorInfo@CIndicatorList@@QAEPAVCIndicatorInfo@@W4EIndicatorListType@@PBD1W4EIndicatorInfoGettingType@@@Z:PROC
EXTRN	__imp_?GetBaseLineList@CIndicatorInfo@@QAEPAV?$CList@NN@@XZ:PROC
EXTRN	?GetPacketData@CPAndFDraw@@QBE_NABV?$CList@PAVCPacket@@PAV1@@@AAPAVCPacket@@AAPAV?$CList@NN@@2@Z:PROC ; CPAndFDraw::GetPacketData
EXTRN	?GetUintHeight@CPAndFDraw@@QBENABVCRect@@ABN11@Z:PROC ; CPAndFDraw::GetUintHeight
EXTRN	?GetUnitValue@CPAndFDraw@@QBENPAVCPacketList@@PAVCIndicatorInfo@@@Z:PROC ; CPAndFDraw::GetUnitValue
EXTRN	??_ECPAndFDraw@@UAEPAXI@Z:PROC			; CPAndFDraw::`vector deleting destructor'
EXTRN	?GetSubGraphPacketList@CSubGraphPacketList@@QBEABV?$CList@PAVCPacket@@PAV1@@@XZ:PROC ; CSubGraphPacketList::GetSubGraphPacketList
EXTRN	??0CBarDraw@@QAE@XZ:PROC			; CBarDraw::CBarDraw
EXTRN	??1CBarDraw@@UAE@XZ:PROC			; CBarDraw::~CBarDraw
EXTRN	?CheckBoxBarType@CBarDraw@@QAE_NPAVCPacket@@@Z:PROC ; CBarDraw::CheckBoxBarType
EXTRN	??0CGripDraw@@QAE@XZ:PROC			; CGripDraw::CGripDraw
EXTRN	??1CGripDraw@@UAE@XZ:PROC			; CGripDraw::~CGripDraw
EXTRN	?GetGripDrawData_BarType@CGripDraw@@QBE_NPAVCPacket@@ABVCSelectSubGraphData@@AAH2AAVCRect@@@Z:PROC ; CGripDraw::GetGripDrawData_BarType
EXTRN	@__security_check_cookie@4:PROC
EXTRN	___CxxFrameHandler3:PROC
EXTRN	??_7type_info@@6B@:QWORD			; type_info::`vftable'
EXTRN	?g_iMetaTable@@3VIMetaTable@@A:BYTE		; g_iMetaTable
EXTRN	___security_cookie:DWORD
EXTRN	__fltused:DWORD
;	COMDAT __xmm@7fffffffffffffff7fffffffffffffff
CONST	SEGMENT
__xmm@7fffffffffffffff7fffffffffffffff DB 0ffH, 0ffH, 0ffH, 0ffH, 0ffH, 0ffH
	DB	0ffH, 07fH, 0ffH, 0ffH, 0ffH, 0ffH, 0ffH, 0ffH, 0ffH, 07fH
CONST	ENDS
;	COMDAT __real@bff0000000000000
CONST	SEGMENT
__real@bff0000000000000 DQ 0bff0000000000000r	; -1
CONST	ENDS
;	COMDAT __real@4020000000000000
CONST	SEGMENT
__real@4020000000000000 DQ 04020000000000000r	; 8
CONST	ENDS
;	COMDAT __real@3ff0000000000000
CONST	SEGMENT
__real@3ff0000000000000 DQ 03ff0000000000000r	; 1
CONST	ENDS
;	COMDAT __real@3fe999999999999a
CONST	SEGMENT
__real@3fe999999999999a DQ 03fe999999999999ar	; 0.8
CONST	ENDS
;	COMDAT __real@3fe0000000000000
CONST	SEGMENT
__real@3fe0000000000000 DQ 03fe0000000000000r	; 0.5
CONST	ENDS
;	COMDAT __real@0000000000000000
CONST	SEGMENT
__real@0000000000000000 DQ 00000000000000000r	; 0
CONST	ENDS
;	COMDAT ??_R1A@?0A@EA@CPAndFDraw@@8
rdata$r	SEGMENT
??_R1A@?0A@EA@CPAndFDraw@@8 DD FLAT:??_R0?AVCPAndFDraw@@@8 ; CPAndFDraw::`RTTI Base Class Descriptor at (0,-1,0,64)'
	DD	01H
	DD	00H
	DD	0ffffffffH
	DD	00H
	DD	040H
	DD	FLAT:??_R3CPAndFDraw@@8
rdata$r	ENDS
;	COMDAT ??_R2CPAndFDraw@@8
rdata$r	SEGMENT
??_R2CPAndFDraw@@8 DD FLAT:??_R1A@?0A@EA@CPAndFDraw@@8	; CPAndFDraw::`RTTI Base Class Array'
	DD	FLAT:??_R1A@?0A@EA@CDraw@@8
rdata$r	ENDS
;	COMDAT ??_R3CPAndFDraw@@8
rdata$r	SEGMENT
??_R3CPAndFDraw@@8 DD 00H				; CPAndFDraw::`RTTI Class Hierarchy Descriptor'
	DD	00H
	DD	02H
	DD	FLAT:??_R2CPAndFDraw@@8
rdata$r	ENDS
;	COMDAT ??_R0?AVCPAndFDraw@@@8
data$rs	SEGMENT
??_R0?AVCPAndFDraw@@@8 DD FLAT:??_7type_info@@6B@	; CPAndFDraw `RTTI Type Descriptor'
	DD	00H
	DB	'.?AVCPAndFDraw@@', 00H
data$rs	ENDS
;	COMDAT ??_R4CPAndFDraw@@6B@
rdata$r	SEGMENT
??_R4CPAndFDraw@@6B@ DD 00H				; CPAndFDraw::`RTTI Complete Object Locator'
	DD	00H
	DD	00H
	DD	FLAT:??_R0?AVCPAndFDraw@@@8
	DD	FLAT:??_R3CPAndFDraw@@8
rdata$r	ENDS
;	COMDAT ??_R2CDraw@@8
rdata$r	SEGMENT
??_R2CDraw@@8 DD FLAT:??_R1A@?0A@EA@CDraw@@8		; CDraw::`RTTI Base Class Array'
rdata$r	ENDS
;	COMDAT ??_R3CDraw@@8
rdata$r	SEGMENT
??_R3CDraw@@8 DD 00H					; CDraw::`RTTI Class Hierarchy Descriptor'
	DD	00H
	DD	01H
	DD	FLAT:??_R2CDraw@@8
rdata$r	ENDS
;	COMDAT ??_R0?AVCDraw@@@8
data$rs	SEGMENT
??_R0?AVCDraw@@@8 DD FLAT:??_7type_info@@6B@		; CDraw `RTTI Type Descriptor'
	DD	00H
	DB	'.?AVCDraw@@', 00H
data$rs	ENDS
;	COMDAT ??_R1A@?0A@EA@CDraw@@8
rdata$r	SEGMENT
??_R1A@?0A@EA@CDraw@@8 DD FLAT:??_R0?AVCDraw@@@8	; CDraw::`RTTI Base Class Descriptor at (0,-1,0,64)'
	DD	00H
	DD	00H
	DD	0ffffffffH
	DD	00H
	DD	040H
	DD	FLAT:??_R3CDraw@@8
rdata$r	ENDS
;	COMDAT ??_R1A@?0A@EA@CSelectSubGraph@@8
rdata$r	SEGMENT
??_R1A@?0A@EA@CSelectSubGraph@@8 DD FLAT:??_R0?AVCSelectSubGraph@@@8 ; CSelectSubGraph::`RTTI Base Class Descriptor at (0,-1,0,64)'
	DD	01H
	DD	00H
	DD	0ffffffffH
	DD	00H
	DD	040H
	DD	FLAT:??_R3CSelectSubGraph@@8
rdata$r	ENDS
;	COMDAT ??_R2CSelectSubGraph@@8
rdata$r	SEGMENT
??_R2CSelectSubGraph@@8 DD FLAT:??_R1A@?0A@EA@CSelectSubGraph@@8 ; CSelectSubGraph::`RTTI Base Class Array'
	DD	FLAT:??_R1A@?0A@EA@CDraw@@8
rdata$r	ENDS
;	COMDAT ??_R3CSelectSubGraph@@8
rdata$r	SEGMENT
??_R3CSelectSubGraph@@8 DD 00H				; CSelectSubGraph::`RTTI Class Hierarchy Descriptor'
	DD	00H
	DD	02H
	DD	FLAT:??_R2CSelectSubGraph@@8
rdata$r	ENDS
;	COMDAT ??_R0?AVCSelectSubGraph@@@8
data$rs	SEGMENT
??_R0?AVCSelectSubGraph@@@8 DD FLAT:??_7type_info@@6B@	; CSelectSubGraph `RTTI Type Descriptor'
	DD	00H
	DB	'.?AVCSelectSubGraph@@', 00H
data$rs	ENDS
;	COMDAT ??_R4CSelectSubGraph@@6B@
rdata$r	SEGMENT
??_R4CSelectSubGraph@@6B@ DD 00H			; CSelectSubGraph::`RTTI Complete Object Locator'
	DD	00H
	DD	00H
	DD	FLAT:??_R0?AVCSelectSubGraph@@@8
	DD	FLAT:??_R3CSelectSubGraph@@8
rdata$r	ENDS
;	COMDAT ??_7CPAndFDraw@@6B@
CONST	SEGMENT
??_7CPAndFDraw@@6B@ DD FLAT:??_R4CPAndFDraw@@6B@	; CPAndFDraw::`vftable'
	DD	FLAT:??_ECPAndFDraw@@UAEPAXI@Z
	DD	FLAT:?DrawGraph@CDraw@@UAE_NPAVCDC@@ABVCRect@@ABVCDisplayAttributes@@ABVCDrawingGraphData@@ABVCSubGraphData@@ABV?$CStringT@DV?$StrTraitMFC_DLL@DV?$ChTraitsCRT@D@ATL@@@@@ATL@@PAVCXScaleManager@@@Z
	DD	FLAT:?DrawGraph@CDraw@@UAE_NPAVCDC@@ABVCRect@@ABVCDisplayAttributes@@ABVCDrawingGraphData@@ABVCSubGraphData@@@Z
CONST	ENDS
;	COMDAT ??_7CSelectSubGraph@@6B@
CONST	SEGMENT
??_7CSelectSubGraph@@6B@ DD FLAT:??_R4CSelectSubGraph@@6B@ ; CSelectSubGraph::`vftable'
	DD	FLAT:??_ECSelectSubGraph@@UAEPAXI@Z
	DD	FLAT:?DrawGraph@CDraw@@UAE_NPAVCDC@@ABVCRect@@ABVCDisplayAttributes@@ABVCDrawingGraphData@@ABVCSubGraphData@@ABV?$CStringT@DV?$StrTraitMFC_DLL@DV?$ChTraitsCRT@D@ATL@@@@@ATL@@PAVCXScaleManager@@@Z
	DD	FLAT:?DrawGraph@CDraw@@UAE_NPAVCDC@@ABVCRect@@ABVCDisplayAttributes@@ABVCDrawingGraphData@@ABVCSubGraphData@@@Z
CONST	ENDS
;	COMDAT ??_R1A@?0A@EA@CRgn@@8
rdata$r	SEGMENT
??_R1A@?0A@EA@CRgn@@8 DD FLAT:??_R0?AVCRgn@@@8		; CRgn::`RTTI Base Class Descriptor at (0,-1,0,64)'
	DD	02H
	DD	00H
	DD	0ffffffffH
	DD	00H
	DD	040H
	DD	FLAT:??_R3CRgn@@8
rdata$r	ENDS
;	COMDAT ??_R2CRgn@@8
rdata$r	SEGMENT
??_R2CRgn@@8 DD	FLAT:??_R1A@?0A@EA@CRgn@@8		; CRgn::`RTTI Base Class Array'
	DD	FLAT:??_R1A@?0A@EA@CGdiObject@@8
	DD	FLAT:??_R1A@?0A@EA@CObject@@8
rdata$r	ENDS
;	COMDAT ??_R3CRgn@@8
rdata$r	SEGMENT
??_R3CRgn@@8 DD	00H					; CRgn::`RTTI Class Hierarchy Descriptor'
	DD	00H
	DD	03H
	DD	FLAT:??_R2CRgn@@8
rdata$r	ENDS
;	COMDAT ??_R0?AVCRgn@@@8
data$rs	SEGMENT
??_R0?AVCRgn@@@8 DD FLAT:??_7type_info@@6B@		; CRgn `RTTI Type Descriptor'
	DD	00H
	DB	'.?AVCRgn@@', 00H
data$rs	ENDS
;	COMDAT ??_R4CRgn@@6B@
rdata$r	SEGMENT
??_R4CRgn@@6B@ DD 00H					; CRgn::`RTTI Complete Object Locator'
	DD	00H
	DD	00H
	DD	FLAT:??_R0?AVCRgn@@@8
	DD	FLAT:??_R3CRgn@@8
rdata$r	ENDS
;	COMDAT ??_R1A@?0A@EA@CGdiObject@@8
rdata$r	SEGMENT
??_R1A@?0A@EA@CGdiObject@@8 DD FLAT:??_R0?AVCGdiObject@@@8 ; CGdiObject::`RTTI Base Class Descriptor at (0,-1,0,64)'
	DD	01H
	DD	00H
	DD	0ffffffffH
	DD	00H
	DD	040H
	DD	FLAT:??_R3CGdiObject@@8
rdata$r	ENDS
;	COMDAT ??_R2CGdiObject@@8
rdata$r	SEGMENT
??_R2CGdiObject@@8 DD FLAT:??_R1A@?0A@EA@CGdiObject@@8	; CGdiObject::`RTTI Base Class Array'
	DD	FLAT:??_R1A@?0A@EA@CObject@@8
rdata$r	ENDS
;	COMDAT ??_R3CGdiObject@@8
rdata$r	SEGMENT
??_R3CGdiObject@@8 DD 00H				; CGdiObject::`RTTI Class Hierarchy Descriptor'
	DD	00H
	DD	02H
	DD	FLAT:??_R2CGdiObject@@8
rdata$r	ENDS
;	COMDAT ??_R0?AVCGdiObject@@@8
data$rs	SEGMENT
??_R0?AVCGdiObject@@@8 DD FLAT:??_7type_info@@6B@	; CGdiObject `RTTI Type Descriptor'
	DD	00H
	DB	'.?AVCGdiObject@@', 00H
data$rs	ENDS
;	COMDAT ??_R4CGdiObject@@6B@
rdata$r	SEGMENT
??_R4CGdiObject@@6B@ DD 00H				; CGdiObject::`RTTI Complete Object Locator'
	DD	00H
	DD	00H
	DD	FLAT:??_R0?AVCGdiObject@@@8
	DD	FLAT:??_R3CGdiObject@@8
rdata$r	ENDS
;	COMDAT ??_R1A@?0A@EA@CObject@@8
rdata$r	SEGMENT
??_R1A@?0A@EA@CObject@@8 DD FLAT:??_R0?AVCObject@@@8	; CObject::`RTTI Base Class Descriptor at (0,-1,0,64)'
	DD	00H
	DD	00H
	DD	0ffffffffH
	DD	00H
	DD	040H
	DD	FLAT:??_R3CObject@@8
rdata$r	ENDS
;	COMDAT ??_R2CObject@@8
rdata$r	SEGMENT
??_R2CObject@@8 DD FLAT:??_R1A@?0A@EA@CObject@@8	; CObject::`RTTI Base Class Array'
rdata$r	ENDS
;	COMDAT ??_R3CObject@@8
rdata$r	SEGMENT
??_R3CObject@@8 DD 00H					; CObject::`RTTI Class Hierarchy Descriptor'
	DD	00H
	DD	01H
	DD	FLAT:??_R2CObject@@8
rdata$r	ENDS
;	COMDAT ??_R0?AVCObject@@@8
data$rs	SEGMENT
??_R0?AVCObject@@@8 DD FLAT:??_7type_info@@6B@		; CObject `RTTI Type Descriptor'
	DD	00H
	DB	'.?AVCObject@@', 00H
data$rs	ENDS
;	COMDAT ??_C@_0N@OMEMOKLE@?$CFTs?5?$CI?$CFTs?3?$CFd?$CJ@
CONST	SEGMENT
??_C@_0N@OMEMOKLE@?$CFTs?5?$CI?$CFTs?3?$CFd?$CJ@ DB '%Ts (%Ts:%d)', 00H ; `string'
CONST	ENDS
;	COMDAT ??_C@_0BB@HBOOMJBF@?$CFTs?5?$CI?$CFTs?3?$CFd?$CJ?6?$CFTs@
CONST	SEGMENT
??_C@_0BB@HBOOMJBF@?$CFTs?5?$CI?$CFTs?3?$CFd?$CJ?6?$CFTs@ DB '%Ts (%Ts:%d'
	DB	')', 0aH, '%Ts', 00H				; `string'
CONST	ENDS
;	COMDAT ??_C@_0BP@OIEOKIDM@Exception?5thrown?5in?5destructor@
CONST	SEGMENT
??_C@_0BP@OIEOKIDM@Exception?5thrown?5in?5destructor@ DB 'Exception throw'
	DB	'n in destructor', 00H			; `string'
CONST	ENDS
;	COMDAT ??_C@_0HD@JJCHHHNK@C?3?2Program?5Files?5?$CIx86?$CJ?2Microsof@
CONST	SEGMENT
??_C@_0HD@JJCHHHNK@C?3?2Program?5Files?5?$CIx86?$CJ?2Microsof@ DB 'C:\Pro'
	DB	'gram Files (x86)\Microsoft Visual Studio\2019\Community\VC\To'
	DB	'ols\MSVC\14.29.30133\atlmfc\include\afxwin1.inl', 00H ; `string'
CONST	ENDS
;	COMDAT ??_7CRgn@@6B@
CONST	SEGMENT
??_7CRgn@@6B@ DD FLAT:??_R4CRgn@@6B@			; CRgn::`vftable'
	DD	FLAT:?GetRuntimeClass@CRgn@@UBEPAUCRuntimeClass@@XZ
	DD	FLAT:??_ECRgn@@UAEPAXI@Z
	DD	FLAT:?Serialize@CObject@@UAEXAAVCArchive@@@Z
	DD	FLAT:?AssertValid@CObject@@UBEXXZ
	DD	FLAT:?Dump@CObject@@UBEXAAVCDumpContext@@@Z
CONST	ENDS
;	COMDAT ??_7CGdiObject@@6B@
CONST	SEGMENT
??_7CGdiObject@@6B@ DD FLAT:??_R4CGdiObject@@6B@	; CGdiObject::`vftable'
	DD	FLAT:?GetRuntimeClass@CGdiObject@@UBEPAUCRuntimeClass@@XZ
	DD	FLAT:??_ECGdiObject@@UAEPAXI@Z
	DD	FLAT:?Serialize@CObject@@UAEXAAVCArchive@@@Z
	DD	FLAT:?AssertValid@CObject@@UBEXXZ
	DD	FLAT:?Dump@CObject@@UBEXAAVCDumpContext@@@Z
CONST	ENDS
;	COMDAT ??_R0PAVCException@@@8
data$r	SEGMENT
??_R0PAVCException@@@8 DD FLAT:??_7type_info@@6B@	; CException * `RTTI Type Descriptor'
	DD	00H
	DB	'.PAVCException@@', 00H
data$r	ENDS
;	COMDAT xdata$x
xdata$x	SEGMENT
__unwindtable$?PointInPAndFGraph@CSelectSubGraph@@AAEHABVCPoint@@PBVCSelectSubGraphData@@@Z DD 0ffffffffH
	DD	FLAT:__unwindfunclet$?PointInPAndFGraph@CSelectSubGraph@@AAEHABVCPoint@@PBVCSelectSubGraphData@@@Z$0
	DD	00H
	DD	FLAT:__unwindfunclet$?PointInPAndFGraph@CSelectSubGraph@@AAEHABVCPoint@@PBVCSelectSubGraphData@@@Z$1
__ehfuncinfo$?PointInPAndFGraph@CSelectSubGraph@@AAEHABVCPoint@@PBVCSelectSubGraphData@@@Z DD 019930522H
	DD	02H
	DD	FLAT:__unwindtable$?PointInPAndFGraph@CSelectSubGraph@@AAEHABVCPoint@@PBVCSelectSubGraphData@@@Z
	DD	2 DUP(00H)
	DD	2 DUP(00H)
	DD	00H
	DD	01H
xdata$x	ENDS
;	COMDAT xdata$x
xdata$x	SEGMENT
__unwindtable$?PointInInverseLineGraph@CSelectSubGraph@@AAEHABVCPoint@@PBVCSelectSubGraphData@@@Z DD 0ffffffffH
	DD	FLAT:__unwindfunclet$?PointInInverseLineGraph@CSelectSubGraph@@AAEHABVCPoint@@PBVCSelectSubGraphData@@@Z$0
__ehfuncinfo$?PointInInverseLineGraph@CSelectSubGraph@@AAEHABVCPoint@@PBVCSelectSubGraphData@@@Z DD 019930522H
	DD	01H
	DD	FLAT:__unwindtable$?PointInInverseLineGraph@CSelectSubGraph@@AAEHABVCPoint@@PBVCSelectSubGraphData@@@Z
	DD	2 DUP(00H)
	DD	2 DUP(00H)
	DD	00H
	DD	01H
xdata$x	ENDS
;	COMDAT xdata$x
xdata$x	SEGMENT
__unwindtable$?PointInBoxBarGraph@CSelectSubGraph@@AAEHABVCPoint@@PBVCSelectSubGraphData@@PAVCIndicatorList@@@Z DD 0ffffffffH
	DD	FLAT:__unwindfunclet$?PointInBoxBarGraph@CSelectSubGraph@@AAEHABVCPoint@@PBVCSelectSubGraphData@@PAVCIndicatorList@@@Z$0
__ehfuncinfo$?PointInBoxBarGraph@CSelectSubGraph@@AAEHABVCPoint@@PBVCSelectSubGraphData@@PAVCIndicatorList@@@Z DD 019930522H
	DD	01H
	DD	FLAT:__unwindtable$?PointInBoxBarGraph@CSelectSubGraph@@AAEHABVCPoint@@PBVCSelectSubGraphData@@PAVCIndicatorList@@@Z
	DD	2 DUP(00H)
	DD	2 DUP(00H)
	DD	00H
	DD	01H
xdata$x	ENDS
;	COMDAT xdata$x
xdata$x	SEGMENT
__unwindtable$?PointInBarGraph@CSelectSubGraph@@AAEHABVCPoint@@PBVCSelectSubGraphData@@PAVCIndicatorList@@@Z DD 0ffffffffH
	DD	FLAT:__unwindfunclet$?PointInBarGraph@CSelectSubGraph@@AAEHABVCPoint@@PBVCSelectSubGraphData@@PAVCIndicatorList@@@Z$0
	DD	0ffffffffH
	DD	FLAT:__unwindfunclet$?PointInBarGraph@CSelectSubGraph@@AAEHABVCPoint@@PBVCSelectSubGraphData@@PAVCIndicatorList@@@Z$1
	DD	0ffffffffH
	DD	FLAT:__unwindfunclet$?PointInBarGraph@CSelectSubGraph@@AAEHABVCPoint@@PBVCSelectSubGraphData@@PAVCIndicatorList@@@Z$3
	DD	02H
	DD	FLAT:__unwindfunclet$?PointInBarGraph@CSelectSubGraph@@AAEHABVCPoint@@PBVCSelectSubGraphData@@PAVCIndicatorList@@@Z$4
__ehfuncinfo$?PointInBarGraph@CSelectSubGraph@@AAEHABVCPoint@@PBVCSelectSubGraphData@@PAVCIndicatorList@@@Z DD 019930522H
	DD	04H
	DD	FLAT:__unwindtable$?PointInBarGraph@CSelectSubGraph@@AAEHABVCPoint@@PBVCSelectSubGraphData@@PAVCIndicatorList@@@Z
	DD	2 DUP(00H)
	DD	2 DUP(00H)
	DD	00H
	DD	01H
xdata$x	ENDS
;	COMDAT xdata$x
xdata$x	SEGMENT
__unwindtable$?PointInLineGraph@CSelectSubGraph@@AAEHABVCPoint@@PBVCSelectSubGraphData@@@Z DD 0ffffffffH
	DD	FLAT:__unwindfunclet$?PointInLineGraph@CSelectSubGraph@@AAEHABVCPoint@@PBVCSelectSubGraphData@@@Z$0
__ehfuncinfo$?PointInLineGraph@CSelectSubGraph@@AAEHABVCPoint@@PBVCSelectSubGraphData@@@Z DD 019930522H
	DD	01H
	DD	FLAT:__unwindtable$?PointInLineGraph@CSelectSubGraph@@AAEHABVCPoint@@PBVCSelectSubGraphData@@@Z
	DD	2 DUP(00H)
	DD	2 DUP(00H)
	DD	00H
	DD	01H
xdata$x	ENDS
;	COMDAT xdata$x
xdata$x	SEGMENT
__catchsym$??1CGdiObject@@UAE@XZ$3 DD 00H
	DD	FLAT:??_R0PAVCException@@@8
	DD	0fffffde4H
	DD	FLAT:__catch$??1CGdiObject@@UAE@XZ$0
__tryblocktable$??1CGdiObject@@UAE@XZ DD 00H
	DD	00H
	DD	02H
	DD	01H
	DD	FLAT:__catchsym$??1CGdiObject@@UAE@XZ$3
__unwindtable$??1CGdiObject@@UAE@XZ DD 0ffffffffH
	DD	00H
	DD	0ffffffffH
	DD	00H
	DD	01H
	DD	FLAT:__unwindfunclet$??1CGdiObject@@UAE@XZ$2
__ehfuncinfo$??1CGdiObject@@UAE@XZ DD 019930522H
	DD	03H
	DD	FLAT:__unwindtable$??1CGdiObject@@UAE@XZ
	DD	01H
	DD	FLAT:__tryblocktable$??1CGdiObject@@UAE@XZ
	DD	2 DUP(00H)
	DD	00H
	DD	05H
xdata$x	ENDS
; Function compile flags: /Ogtp
; File C:\Program Files (x86)\Microsoft Visual Studio\2019\Community\VC\Tools\MSVC\14.29.30133\atlmfc\include\afxtempl.h
;	COMDAT ?FindIndex@?$CList@NN@@QBEPAU__POSITION@@H@Z
_TEXT	SEGMENT
_nIndex$ = 8						; size = 4
?FindIndex@?$CList@NN@@QBEPAU__POSITION@@H@Z PROC	; CList<double,double>::FindIndex, COMDAT
; _this$ = ecx

; 1130 : {

  00000	55		 push	 ebp
  00001	8b ec		 mov	 ebp, esp

; 1131 : 	ASSERT_VALID(this);
; 1132 : 
; 1133 : 	if (nIndex >= m_nCount || nIndex < 0)

  00003	8b 55 08	 mov	 edx, DWORD PTR _nIndex$[ebp]
  00006	3b 51 0c	 cmp	 edx, DWORD PTR [ecx+12]
  00009	7d 14		 jge	 SHORT $LN5@FindIndex
  0000b	85 d2		 test	 edx, edx
  0000d	78 10		 js	 SHORT $LN5@FindIndex

; 1135 : 
; 1136 : 	CNode* pNode = m_pNodeHead;

  0000f	8b 41 04	 mov	 eax, DWORD PTR [ecx+4]

; 1137 : 	while (nIndex--)

  00012	74 0d		 je	 SHORT $LN1@FindIndex
$LL2@FindIndex:

; 1138 : 	{
; 1139 : 		ASSERT(AfxIsValidAddress(pNode, sizeof(CNode)));
; 1140 : 		pNode = pNode->pNext;

  00014	8b 00		 mov	 eax, DWORD PTR [eax]
  00016	83 ea 01	 sub	 edx, 1
  00019	75 f9		 jne	 SHORT $LL2@FindIndex

; 1141 : 	}
; 1142 : 	return (POSITION) pNode;
; 1143 : }

  0001b	5d		 pop	 ebp
  0001c	c2 04 00	 ret	 4
$LN5@FindIndex:

; 1134 : 		return NULL;  // went too far

  0001f	33 c0		 xor	 eax, eax
$LN1@FindIndex:

; 1141 : 	}
; 1142 : 	return (POSITION) pNode;
; 1143 : }

  00021	5d		 pop	 ebp
  00022	c2 04 00	 ret	 4
?FindIndex@?$CList@NN@@QBEPAU__POSITION@@H@Z ENDP	; CList<double,double>::FindIndex
_TEXT	ENDS
; Function compile flags: /Ogtp
; File C:\Program Files (x86)\Microsoft Visual Studio\2019\Community\VC\Tools\MSVC\14.29.30133\atlmfc\include\afxtempl.h
;	COMDAT ?FindIndex@?$CList@PAVCPacket@@PAV1@@@QBEPAU__POSITION@@H@Z
_TEXT	SEGMENT
_nIndex$ = 8						; size = 4
?FindIndex@?$CList@PAVCPacket@@PAV1@@@QBEPAU__POSITION@@H@Z PROC ; CList<CPacket *,CPacket *>::FindIndex, COMDAT
; _this$ = ecx

; 1130 : {

  00000	55		 push	 ebp
  00001	8b ec		 mov	 ebp, esp

; 1131 : 	ASSERT_VALID(this);
; 1132 : 
; 1133 : 	if (nIndex >= m_nCount || nIndex < 0)

  00003	8b 55 08	 mov	 edx, DWORD PTR _nIndex$[ebp]
  00006	3b 51 0c	 cmp	 edx, DWORD PTR [ecx+12]
  00009	7d 14		 jge	 SHORT $LN5@FindIndex
  0000b	85 d2		 test	 edx, edx
  0000d	78 10		 js	 SHORT $LN5@FindIndex

; 1135 : 
; 1136 : 	CNode* pNode = m_pNodeHead;

  0000f	8b 41 04	 mov	 eax, DWORD PTR [ecx+4]

; 1137 : 	while (nIndex--)

  00012	74 0d		 je	 SHORT $LN1@FindIndex
$LL2@FindIndex:

; 1138 : 	{
; 1139 : 		ASSERT(AfxIsValidAddress(pNode, sizeof(CNode)));
; 1140 : 		pNode = pNode->pNext;

  00014	8b 00		 mov	 eax, DWORD PTR [eax]
  00016	83 ea 01	 sub	 edx, 1
  00019	75 f9		 jne	 SHORT $LL2@FindIndex

; 1141 : 	}
; 1142 : 	return (POSITION) pNode;
; 1143 : }

  0001b	5d		 pop	 ebp
  0001c	c2 04 00	 ret	 4
$LN5@FindIndex:

; 1134 : 		return NULL;  // went too far

  0001f	33 c0		 xor	 eax, eax
$LN1@FindIndex:

; 1141 : 	}
; 1142 : 	return (POSITION) pNode;
; 1143 : }

  00021	5d		 pop	 ebp
  00022	c2 04 00	 ret	 4
?FindIndex@?$CList@PAVCPacket@@PAV1@@@QBEPAU__POSITION@@H@Z ENDP ; CList<CPacket *,CPacket *>::FindIndex
_TEXT	ENDS
; Function compile flags: /Ogtp
;	COMDAT ??_GCPAndFDraw@@UAEPAXI@Z
_TEXT	SEGMENT
___flags$ = 8						; size = 4
??_GCPAndFDraw@@UAEPAXI@Z PROC				; CPAndFDraw::`scalar deleting destructor', COMDAT
; _this$ = ecx
  00000	55		 push	 ebp
  00001	8b ec		 mov	 ebp, esp
  00003	56		 push	 esi
  00004	8b f1		 mov	 esi, ecx
  00006	e8 00 00 00 00	 call	 ??1CDraw@@UAE@XZ	; CDraw::~CDraw
  0000b	f6 45 08 01	 test	 BYTE PTR ___flags$[ebp], 1
  0000f	74 0b		 je	 SHORT $LN7@scalar
  00011	6a 28		 push	 40			; 00000028H
  00013	56		 push	 esi
  00014	e8 00 00 00 00	 call	 ??3@YAXPAXI@Z		; operator delete
  00019	83 c4 08	 add	 esp, 8
$LN7@scalar:
  0001c	8b c6		 mov	 eax, esi
  0001e	5e		 pop	 esi
  0001f	5d		 pop	 ebp
  00020	c2 04 00	 ret	 4
??_GCPAndFDraw@@UAEPAXI@Z ENDP				; CPAndFDraw::`scalar deleting destructor'
_TEXT	ENDS
; Function compile flags: /Ogtp
;	COMDAT ??1CPAndFDraw@@UAE@XZ
_TEXT	SEGMENT
??1CPAndFDraw@@UAE@XZ PROC				; CPAndFDraw::~CPAndFDraw, COMDAT
; _this$ = ecx
  00000	e9 00 00 00 00	 jmp	 ??1CDraw@@UAE@XZ	; CDraw::~CDraw
??1CPAndFDraw@@UAE@XZ ENDP				; CPAndFDraw::~CPAndFDraw
_TEXT	ENDS
; Function compile flags: /Ogtp
;	COMDAT ??4CGraphDrawer@@QAEAAV0@$$QAV0@@Z
_TEXT	SEGMENT
___that$ = 8						; size = 4
??4CGraphDrawer@@QAEAAV0@$$QAV0@@Z PROC			; CGraphDrawer::operator=, COMDAT
; _this$ = ecx
  00000	8b c1		 mov	 eax, ecx
  00002	c2 04 00	 ret	 4
??4CGraphDrawer@@QAEAAV0@$$QAV0@@Z ENDP			; CGraphDrawer::operator=
_TEXT	ENDS
; Function compile flags: /Ogtp
;	COMDAT ??4CGraphDrawer@@QAEAAV0@ABV0@@Z
_TEXT	SEGMENT
___that$ = 8						; size = 4
??4CGraphDrawer@@QAEAAV0@ABV0@@Z PROC			; CGraphDrawer::operator=, COMDAT
; _this$ = ecx
  00000	8b c1		 mov	 eax, ecx
  00002	c2 04 00	 ret	 4
??4CGraphDrawer@@QAEAAV0@ABV0@@Z ENDP			; CGraphDrawer::operator=
_TEXT	ENDS
; Function compile flags: /Ogtp
; File D:\git\src\IBK\IBK_DRFN\ProjSrc\SrcChartEx\ChartOCX\GraphDraw\SelectSubGraph.cpp
;	COMDAT ??_GCSelectSubGraph@@UAEPAXI@Z
_TEXT	SEGMENT
___flags$ = 8						; size = 4
??_GCSelectSubGraph@@UAEPAXI@Z PROC			; CSelectSubGraph::`scalar deleting destructor', COMDAT
; _this$ = ecx
  00000	55		 push	 ebp
  00001	8b ec		 mov	 ebp, esp

; 36   : {

  00003	56		 push	 esi
  00004	8b f1		 mov	 esi, ecx
  00006	c7 06 00 00 00
	00		 mov	 DWORD PTR [esi], OFFSET ??_7CSelectSubGraph@@6B@

; 37   : 
; 38   : }

  0000c	e8 00 00 00 00	 call	 ??1CDraw@@UAE@XZ	; CDraw::~CDraw
  00011	f6 45 08 01	 test	 BYTE PTR ___flags$[ebp], 1
  00015	74 0b		 je	 SHORT $LN7@scalar
  00017	6a 28		 push	 40			; 00000028H
  00019	56		 push	 esi
  0001a	e8 00 00 00 00	 call	 ??3@YAXPAXI@Z		; operator delete
  0001f	83 c4 08	 add	 esp, 8
$LN7@scalar:
  00022	8b c6		 mov	 eax, esi
  00024	5e		 pop	 esi
  00025	5d		 pop	 ebp
  00026	c2 04 00	 ret	 4
??_GCSelectSubGraph@@UAEPAXI@Z ENDP			; CSelectSubGraph::`scalar deleting destructor'
_TEXT	ENDS
; Function compile flags: /Ogtp
; File D:\git\src\IBK\IBK_DRFN\ProjSrc\SrcChartEx\ChartOCX\GraphDraw\SelectSubGraph.cpp
;	COMDAT ?GetIndex@CSelectSubGraph@@ABEHHH@Z
_TEXT	SEGMENT
_dataIndex$ = 8						; size = 4
_dataStart$ = 12					; size = 4
?GetIndex@CSelectSubGraph@@ABEHHH@Z PROC		; CSelectSubGraph::GetIndex, COMDAT
; _this$ = ecx

; 1320 : {

  00000	55		 push	 ebp
  00001	8b ec		 mov	 ebp, esp

; 1321 : 	if(dataIndex < dataStart)

  00003	8b 45 08	 mov	 eax, DWORD PTR _dataIndex$[ebp]
  00006	8b 4d 0c	 mov	 ecx, DWORD PTR _dataStart$[ebp]
  00009	3b c1		 cmp	 eax, ecx
  0000b	7d 06		 jge	 SHORT $LN2@GetIndex

; 1322 : 		return dataStart;

  0000d	8b c1		 mov	 eax, ecx

; 1325 : }

  0000f	5d		 pop	 ebp
  00010	c2 08 00	 ret	 8
$LN2@GetIndex:

; 1323 : 	
; 1324 : 	return (dataIndex - dataStart);

  00013	2b c1		 sub	 eax, ecx

; 1325 : }

  00015	5d		 pop	 ebp
  00016	c2 08 00	 ret	 8
?GetIndex@CSelectSubGraph@@ABEHHH@Z ENDP		; CSelectSubGraph::GetIndex
_TEXT	ENDS
; Function compile flags: /Ogtp
; File D:\git\src\IBK\IBK_DRFN\ProjSrc\SrcChartEx\ChartOCX\GraphDraw\SelectSubGraph.cpp
; File C:\Program Files (x86)\Microsoft Visual Studio\2019\Community\VC\Tools\MSVC\14.29.30133\atlmfc\include\atltypes.h
; File D:\git\src\IBK\IBK_DRFN\ProjSrc\SrcChartEx\ChartOCX\GraphDraw\SelectSubGraph.cpp
;	COMDAT ?GetDataIndex@CSelectSubGraph@@AAEHVCRect@@VCPoint@@HH@Z
_TEXT	SEGMENT
_drawingRegion$ = 8					; size = 16
_point$ = 24						; size = 8
_dataStart$ = 32					; size = 4
_dataEnd$ = 36						; size = 4
?GetDataIndex@CSelectSubGraph@@AAEHVCRect@@VCPoint@@HH@Z PROC ; CSelectSubGraph::GetDataIndex, COMDAT
; _this$ = ecx

; 1300 : {

  00000	55		 push	 ebp
  00001	8b ec		 mov	 ebp, esp

; 1301 : 	if(drawingRegion.bottom < point.y || point.y < drawingRegion.top)

  00003	8b 55 14	 mov	 edx, DWORD PTR _drawingRegion$[ebp+12]
  00006	8b 4d 1c	 mov	 ecx, DWORD PTR _point$[ebp+4]
  00009	53		 push	 ebx
  0000a	56		 push	 esi
  0000b	3b d1		 cmp	 edx, ecx
  0000d	7c 48		 jl	 SHORT $LN3@GetDataInd
  0000f	8b 75 0c	 mov	 esi, DWORD PTR _drawingRegion$[ebp+4]
  00012	3b ce		 cmp	 ecx, esi
  00014	7c 41		 jl	 SHORT $LN3@GetDataInd

; 1303 : 	int index = 0;
; 1304 : 	if(dataEnd - dataStart +1 <= 0)

  00016	8b 45 24	 mov	 eax, DWORD PTR _dataEnd$[ebp]
  00019	8b 5d 20	 mov	 ebx, DWORD PTR _dataStart$[ebp]
  0001c	2b c3		 sub	 eax, ebx
  0001e	40		 inc	 eax
  0001f	85 c0		 test	 eax, eax
  00021	7f 08		 jg	 SHORT $LN4@GetDataInd

; 1305 : 		return index;

  00023	5e		 pop	 esi
  00024	33 c0		 xor	 eax, eax

; 1313 : 		return -1;
; 1314 : 
; 1315 : 	return index;
; 1316 : }

  00026	5b		 pop	 ebx
  00027	5d		 pop	 ebp
  00028	c2 20 00	 ret	 32			; 00000020H
$LN4@GetDataInd:

; 1308 : 	index =  int((double)((point.y - drawingRegion.top)*(dataEnd - (dataStart -1))) / (double)drawingRegion.Height());

  0002b	2b ce		 sub	 ecx, esi
; File C:\Program Files (x86)\Microsoft Visual Studio\2019\Community\VC\Tools\MSVC\14.29.30133\atlmfc\include\atltypes.h

; 581  : 	return bottom - top;

  0002d	2b d6		 sub	 edx, esi
; File D:\git\src\IBK\IBK_DRFN\ProjSrc\SrcChartEx\ChartOCX\GraphDraw\SelectSubGraph.cpp

; 1308 : 	index =  int((double)((point.y - drawingRegion.top)*(dataEnd - (dataStart -1))) / (double)drawingRegion.Height());

  0002f	0f af c8	 imul	 ecx, eax
  00032	66 0f 6e c2	 movd	 xmm0, edx
  00036	f3 0f e6 c0	 cvtdq2pd xmm0, xmm0
  0003a	66 0f 6e c9	 movd	 xmm1, ecx
  0003e	f3 0f e6 c9	 cvtdq2pd xmm1, xmm1
  00042	f2 0f 5e c8	 divsd	 xmm1, xmm0
  00046	f2 0f 2c c9	 cvttsd2si ecx, xmm1

; 1309 : 
; 1310 : 	if(index >= 0)
; 1311 : 		index = dataStart + index;
; 1312 : 	if(index > dataEnd)

  0004a	85 c9		 test	 ecx, ecx
  0004c	8d 04 19	 lea	 eax, DWORD PTR [ecx+ebx]
  0004f	0f 48 c1	 cmovs	 eax, ecx
  00052	3b 45 24	 cmp	 eax, DWORD PTR _dataEnd$[ebp]
  00055	7e 03		 jle	 SHORT $LN1@GetDataInd
$LN3@GetDataInd:

; 1302 : 		return -1;

  00057	83 c8 ff	 or	 eax, -1
$LN1@GetDataInd:
  0005a	5e		 pop	 esi

; 1313 : 		return -1;
; 1314 : 
; 1315 : 	return index;
; 1316 : }

  0005b	5b		 pop	 ebx
  0005c	5d		 pop	 ebp
  0005d	c2 20 00	 ret	 32			; 00000020H
?GetDataIndex@CSelectSubGraph@@AAEHVCRect@@VCPoint@@HH@Z ENDP ; CSelectSubGraph::GetDataIndex
_TEXT	ENDS
; Function compile flags: /Ogtp
; File D:\git\src\IBK\IBK_DRFN\ProjSrc\SrcChartEx\ChartOCX\GraphDraw\SelectSubGraph.cpp
;	COMDAT ?GetDataIndex@CSelectSubGraph@@AAEHVCRect@@VCPoint@@HHH@Z
_TEXT	SEGMENT
_drawingRegion$ = 8					; size = 16
_point$ = 24						; size = 8
_dataStart$ = 32					; size = 4
_dataEnd$ = 36						; size = 4
_pageDataCount$ = 40					; size = 4
?GetDataIndex@CSelectSubGraph@@AAEHVCRect@@VCPoint@@HHH@Z PROC ; CSelectSubGraph::GetDataIndex, COMDAT
; _this$ = ecx

; 1286 : {

  00000	55		 push	 ebp
  00001	8b ec		 mov	 ebp, esp

; 1287 : 	drawingRegion.right = drawingRegion.right;
; 1288 : 	if(drawingRegion.right <= point.x)

  00003	8b 45 18	 mov	 eax, DWORD PTR _point$[ebp]
  00006	39 45 10	 cmp	 DWORD PTR _drawingRegion$[ebp+8], eax
  00009	7e 1c		 jle	 SHORT $LN6@GetDataInd

; 1289 : 		return -1;
; 1290 : 	int index = CDataConversion::AbsoluteToRelative_X(drawingRegion, point.x, pageDataCount);

  0000b	ff 75 28	 push	 DWORD PTR _pageDataCount$[ebp]
  0000e	50		 push	 eax
  0000f	8d 45 08	 lea	 eax, DWORD PTR _drawingRegion$[ebp]
  00012	50		 push	 eax
  00013	e8 00 00 00 00	 call	 ?AbsoluteToRelative_X@CDataConversion@@SAHABVCRect@@HH@Z ; CDataConversion::AbsoluteToRelative_X
  00018	83 c4 0c	 add	 esp, 12			; 0000000cH

; 1291 : 	if(index >= 0)

  0001b	85 c0		 test	 eax, eax
  0001d	78 03		 js	 SHORT $LN3@GetDataInd

; 1292 : 		index = dataStart + index;

  0001f	03 45 20	 add	 eax, DWORD PTR _dataStart$[ebp]
$LN3@GetDataInd:

; 1293 : 	if(index > dataEnd)

  00022	3b 45 24	 cmp	 eax, DWORD PTR _dataEnd$[ebp]
  00025	7e 03		 jle	 SHORT $LN1@GetDataInd
$LN6@GetDataInd:

; 1294 : 		return -1;

  00027	83 c8 ff	 or	 eax, -1
$LN1@GetDataInd:

; 1295 : 
; 1296 : 	return index;
; 1297 : }

  0002a	5d		 pop	 ebp
  0002b	c2 24 00	 ret	 36			; 00000024H
?GetDataIndex@CSelectSubGraph@@AAEHVCRect@@VCPoint@@HHH@Z ENDP ; CSelectSubGraph::GetDataIndex
_TEXT	ENDS
; Function compile flags: /Ogtp
; File D:\git\src\IBK\IBK_DRFN\ProjSrc\SrcChartEx\ChartOCX\GraphDraw\SelectSubGraph.cpp
; File C:\Program Files (x86)\Microsoft Visual Studio\2019\Community\VC\Tools\MSVC\14.29.30133\atlmfc\include\afxtempl.h
; File D:\git\src\IBK\IBK_DRFN\ProjSrc\SrcChartEx\ChartOCX\GraphDraw\SelectSubGraph.cpp
; File D:\git\src\IBK\IBK_DRFN\ProjSrc\SrcChartEx\ChartOCX\Include_Chart\BlockBaseData.h
; File D:\git\src\IBK\IBK_DRFN\ProjSrc\SrcChartEx\ChartOCX\GraphDraw\SelectSubGraph.cpp
; File D:\git\src\IBK\IBK_DRFN\ProjSrc\SrcChartEx\ChartOCX\Include_Chart\Dll_Load\XScaleManager.h
; File D:\git\src\IBK\IBK_DRFN\ProjSrc\SrcChartEx\ChartOCX\GraphDraw\SelectSubGraph.cpp
; File D:\git\src\IBK\IBK_DRFN\ProjSrc\SrcChartEx\ChartOCX\Include_Chart\Dll_Load\XScaleManager.h
; File D:\git\src\IBK\IBK_DRFN\ProjSrc\SrcChartEx\ChartOCX\GraphDraw\SelectSubGraph.cpp
; File C:\Program Files (x86)\Microsoft Visual Studio\2019\Community\VC\Tools\MSVC\14.29.30133\atlmfc\include\afxtempl.h
; File D:\git\src\IBK\IBK_DRFN\ProjSrc\SrcChartEx\ChartOCX\GraphDraw\SelectSubGraph.cpp
; File C:\Program Files (x86)\Microsoft Visual Studio\2019\Community\VC\Tools\MSVC\14.29.30133\atlmfc\include\afxtempl.h
; File D:\git\src\IBK\IBK_DRFN\ProjSrc\SrcChartEx\ChartOCX\GraphDraw\SelectSubGraph.cpp
; File C:\Program Files (x86)\Microsoft Visual Studio\2019\Community\VC\Tools\MSVC\14.29.30133\atlmfc\include\afxtempl.h
; File D:\git\src\IBK\IBK_DRFN\ProjSrc\SrcChartEx\ChartOCX\GraphDraw\SelectSubGraph.cpp
; File C:\Program Files (x86)\Microsoft Visual Studio\2019\Community\VC\Tools\MSVC\14.29.30133\atlmfc\include\atltypes.h
; File D:\git\src\IBK\IBK_DRFN\ProjSrc\SrcChartEx\ChartOCX\GraphDraw\SelectSubGraph.cpp
; File C:\Program Files (x86)\Microsoft Visual Studio\2019\Community\VC\Tools\MSVC\14.29.30133\atlmfc\include\afxtempl.h
; File D:\git\src\IBK\IBK_DRFN\ProjSrc\SrcChartEx\ChartOCX\GraphDraw\SelectSubGraph.cpp
;	COMDAT ?PointInPAndFGraph@CSelectSubGraph@@AAEHABVCPoint@@PBVCSelectSubGraphData@@@Z
_TEXT	SEGMENT
_PAndFDraw$ = -252					; size = 40
_lowPt$2 = -212						; size = 8
_highPt$3 = -204					; size = 8
_dLow$4 = -196						; size = 8
_dUnitHeight$ = -188					; size = 8
_dUnitValue$ = -180					; size = 8
_dViewMin$ = -172					; size = 8
_dViewMax$ = -164					; size = 8
_nCol$ = -156						; size = 4
_pDatePacket$ = -152					; size = 4
_dHigh$5 = -148						; size = 8
$T6 = -144						; size = 4
_point$GSCopy$1$ = -140					; size = 4
_pLowList$ = -136					; size = 4
_pHighList$ = -132					; size = 4
_area$ = -128						; size = 6
_nIndex$ = -120						; size = 4
$T7 = -116						; size = 68
$T8 = -88						; size = 40
_graphRegion$ = -48					; size = 16
_rect$9 = -32						; size = 16
$T10 = -32						; size = 16
$T11 = -32						; size = 16
__$ArrayPad$ = -16					; size = 4
__$EHRec$ = -12						; size = 12
_point$ = 8						; size = 4
_pSelectSubGraphData$ = 12				; size = 4
?PointInPAndFGraph@CSelectSubGraph@@AAEHABVCPoint@@PBVCSelectSubGraphData@@@Z PROC ; CSelectSubGraph::PointInPAndFGraph, COMDAT
; _this$ = ecx

; 1235 : {

  00000	55		 push	 ebp
  00001	8b ec		 mov	 ebp, esp
  00003	6a ff		 push	 -1
  00005	68 00 00 00 00	 push	 __ehhandler$?PointInPAndFGraph@CSelectSubGraph@@AAEHABVCPoint@@PBVCSelectSubGraphData@@@Z
  0000a	64 a1 00 00 00
	00		 mov	 eax, DWORD PTR fs:0
  00010	50		 push	 eax
  00011	81 ec f0 00 00
	00		 sub	 esp, 240		; 000000f0H
  00017	a1 00 00 00 00	 mov	 eax, DWORD PTR ___security_cookie
  0001c	33 c5		 xor	 eax, ebp
  0001e	89 45 f0	 mov	 DWORD PTR __$ArrayPad$[ebp], eax
  00021	56		 push	 esi
  00022	57		 push	 edi
  00023	50		 push	 eax
  00024	8d 45 f4	 lea	 eax, DWORD PTR __$EHRec$[ebp]
  00027	64 a3 00 00 00
	00		 mov	 DWORD PTR fs:0, eax
  0002d	8b 7d 0c	 mov	 edi, DWORD PTR _pSelectSubGraphData$[ebp]
  00030	8b 45 08	 mov	 eax, DWORD PTR _point$[ebp]
  00033	89 85 74 ff ff
	ff		 mov	 DWORD PTR _point$GSCopy$1$[ebp], eax

; 1236 : 	if(pSelectSubGraphData == NULL)

  00039	85 ff		 test	 edi, edi
  0003b	0f 84 0c 03 00
	00		 je	 $LN81@PointInPAn

; 1237 : 		return -1;
; 1238 : 
; 1239 : 	CSubGraphPacketList* pSubGraphPacketList = pSelectSubGraphData->GetSubGraphPacketList();

  00041	8b cf		 mov	 ecx, edi
  00043	e8 00 00 00 00	 call	 ?GetSubGraphPacketList@CSelectSubGraphData@@QBEPAVCSubGraphPacketList@@XZ ; CSelectSubGraphData::GetSubGraphPacketList
  00048	8b f0		 mov	 esi, eax

; 1240 : 	if(pSubGraphPacketList == NULL)

  0004a	85 f6		 test	 esi, esi
  0004c	0f 84 fb 02 00
	00		 je	 $LN81@PointInPAn

; 1242 : 
; 1243 : 	CPAndFDraw PAndFDraw;

  00052	8d 8d 04 ff ff
	ff		 lea	 ecx, DWORD PTR _PAndFDraw$[ebp]
  00058	e8 00 00 00 00	 call	 ??0CDraw@@QAE@XZ	; CDraw::CDraw
  0005d	c7 85 04 ff ff
	ff 00 00 00 00	 mov	 DWORD PTR _PAndFDraw$[ebp], OFFSET ??_7CPAndFDraw@@6B@

; 1244 : 	CPacket* pDatePacket = NULL;
; 1245 : 	CList<double, double>* pHighList = NULL, *pLowList = NULL;
; 1246 : 	if(!PAndFDraw.GetPacketData( pSubGraphPacketList->GetSubGraphPacketList(), 

  00067	8d 85 78 ff ff
	ff		 lea	 eax, DWORD PTR _pLowList$[ebp]
  0006d	c7 45 fc 00 00
	00 00		 mov	 DWORD PTR __$EHRec$[ebp+8], 0
  00074	50		 push	 eax
  00075	8d 85 7c ff ff
	ff		 lea	 eax, DWORD PTR _pHighList$[ebp]
  0007b	c7 85 68 ff ff
	ff 00 00 00 00	 mov	 DWORD PTR _pDatePacket$[ebp], 0
  00085	50		 push	 eax
  00086	8d 85 68 ff ff
	ff		 lea	 eax, DWORD PTR _pDatePacket$[ebp]
  0008c	c7 85 7c ff ff
	ff 00 00 00 00	 mov	 DWORD PTR _pHighList$[ebp], 0
  00096	50		 push	 eax
  00097	8b ce		 mov	 ecx, esi
  00099	c7 85 78 ff ff
	ff 00 00 00 00	 mov	 DWORD PTR _pLowList$[ebp], 0
  000a3	e8 00 00 00 00	 call	 ?GetSubGraphPacketList@CSubGraphPacketList@@QBEABV?$CList@PAVCPacket@@PAV1@@@XZ ; CSubGraphPacketList::GetSubGraphPacketList
  000a8	50		 push	 eax
  000a9	8d 8d 04 ff ff
	ff		 lea	 ecx, DWORD PTR _PAndFDraw$[ebp]
  000af	e8 00 00 00 00	 call	 ?GetPacketData@CPAndFDraw@@QBE_NABV?$CList@PAVCPacket@@PAV1@@@AAPAVCPacket@@AAPAV?$CList@NN@@2@Z ; CPAndFDraw::GetPacketData
  000b4	84 c0		 test	 al, al
  000b6	0f 84 7f 02 00
	00		 je	 $LN12@PointInPAn

; 1250 : 	double dUnitValue = PAndFDraw.GetUnitValue( pSubGraphPacketList->GetSubGraphPacketList().GetHead()->GetPacketList(), 

  000bc	8b ce		 mov	 ecx, esi
  000be	e8 00 00 00 00	 call	 ?GetSubGraphPacketList@CSubGraphPacketList@@QBEABV?$CList@PAVCPacket@@PAV1@@@XZ ; CSubGraphPacketList::GetSubGraphPacketList
; File C:\Program Files (x86)\Microsoft Visual Studio\2019\Community\VC\Tools\MSVC\14.29.30133\atlmfc\include\afxtempl.h

; 793  : 	{ ENSURE(m_pNodeHead != NULL);

  000c3	8b 70 04	 mov	 esi, DWORD PTR [eax+4]
  000c6	85 f6		 test	 esi, esi
  000c8	0f 84 9f 02 00
	00		 je	 $LN85@PointInPAn
; File D:\git\src\IBK\IBK_DRFN\ProjSrc\SrcChartEx\ChartOCX\GraphDraw\SelectSubGraph.cpp

; 1250 : 	double dUnitValue = PAndFDraw.GetUnitValue( pSubGraphPacketList->GetSubGraphPacketList().GetHead()->GetPacketList(), 

  000ce	8b cf		 mov	 ecx, edi
  000d0	e8 00 00 00 00	 call	 ?GetIndicatorInfo@CSelectSubGraphData@@QBEPAVCIndicatorInfo@@XZ ; CSelectSubGraphData::GetIndicatorInfo
  000d5	8b 4e 08	 mov	 ecx, DWORD PTR [esi+8]
  000d8	50		 push	 eax
  000d9	ff 15 00 00 00
	00		 call	 DWORD PTR __imp_?GetPacketList@CPacket@@QAEPAVCPacketList@@XZ
  000df	50		 push	 eax
  000e0	8d 8d 04 ff ff
	ff		 lea	 ecx, DWORD PTR _PAndFDraw$[ebp]
  000e6	e8 00 00 00 00	 call	 ?GetUnitValue@CPAndFDraw@@QBENPAVCPacketList@@PAVCIndicatorInfo@@@Z ; CPAndFDraw::GetUnitValue

; 1251 : 		pSelectSubGraphData->GetIndicatorInfo());
; 1252 : 	if(dUnitValue < 1)

  000eb	f2 0f 10 05 00
	00 00 00	 movsd	 xmm0, QWORD PTR __real@3ff0000000000000
  000f3	dd 9d 4c ff ff
	ff		 fstp	 QWORD PTR _dUnitValue$[ebp]
  000f9	66 0f 2f 85 4c
	ff ff ff	 comisd	 xmm0, QWORD PTR _dUnitValue$[ebp]
  00101	0f 87 34 02 00
	00		 ja	 $LN12@PointInPAn

; 1255 : 	CRect graphRegion = pSelectSubGraphData->GetGraphRegions().GetDrawingRegion();

  00107	8d 85 70 ff ff
	ff		 lea	 eax, DWORD PTR $T6[ebp]
; File D:\git\src\IBK\IBK_DRFN\ProjSrc\SrcChartEx\ChartOCX\Include_Chart\BlockBaseData.h

; 43   : 	CGraphStyle(const int style) { m_nStyle = style; };

  0010d	c7 85 70 ff ff
	ff ff ff ff ff	 mov	 DWORD PTR $T6[ebp], -1
; File D:\git\src\IBK\IBK_DRFN\ProjSrc\SrcChartEx\ChartOCX\GraphDraw\SelectSubGraph.cpp

; 1255 : 	CRect graphRegion = pSelectSubGraphData->GetGraphRegions().GetDrawingRegion();

  00117	50		 push	 eax
  00118	6a ff		 push	 -1
  0011a	8d 45 d0	 lea	 eax, DWORD PTR _graphRegion$[ebp]
  0011d	8b cf		 mov	 ecx, edi
  0011f	50		 push	 eax
  00120	8d 45 8c	 lea	 eax, DWORD PTR $T7[ebp]
  00123	50		 push	 eax
  00124	e8 00 00 00 00	 call	 ?GetGraphRegions@CSelectSubGraphData@@QBE?AVCGraphRegions@@XZ ; CSelectSubGraphData::GetGraphRegions
  00129	8b c8		 mov	 ecx, eax
  0012b	e8 00 00 00 00	 call	 ?GetDrawingRegion@CGraphRegions@@QBE?AVCRect@@W4GRAPHTYPE@CGraphBaseData@@ABVCGraphStyle@@@Z ; CGraphRegions::GetDrawingRegion

; 1256 : 	double dViewMin = pSelectSubGraphData->GetDisplayDataVertMinMax().GetDisplayMin();

  00130	8d 45 e0	 lea	 eax, DWORD PTR $T11[ebp]
  00133	8b cf		 mov	 ecx, edi
  00135	50		 push	 eax
  00136	e8 00 00 00 00	 call	 ?GetDisplayDataVertMinMax@CSelectSubGraphData@@QBE?AVCDisplayDataMinMax@@XZ ; CSelectSubGraphData::GetDisplayDataVertMinMax
  0013b	8b c8		 mov	 ecx, eax
  0013d	ff 15 00 00 00
	00		 call	 DWORD PTR __imp_?GetDisplayMin@CDisplayDataMinMax@@QBENXZ

; 1257 : 	double dViewMax = pSelectSubGraphData->GetDisplayDataVertMinMax().GetDisplayMax();

  00143	8d 45 e0	 lea	 eax, DWORD PTR $T10[ebp]
  00146	8b cf		 mov	 ecx, edi
  00148	50		 push	 eax
  00149	dd 9d 54 ff ff
	ff		 fstp	 QWORD PTR _dViewMin$[ebp]
  0014f	e8 00 00 00 00	 call	 ?GetDisplayDataVertMinMax@CSelectSubGraphData@@QBE?AVCDisplayDataMinMax@@XZ ; CSelectSubGraphData::GetDisplayDataVertMinMax
  00154	8b c8		 mov	 ecx, eax
  00156	ff 15 00 00 00
	00		 call	 DWORD PTR __imp_?GetDisplayMax@CDisplayDataMinMax@@QBENXZ
  0015c	0f 57 c0	 xorps	 xmm0, xmm0
  0015f	8d 4d a8	 lea	 ecx, DWORD PTR $T8[ebp]
  00162	dd 9d 5c ff ff
	ff		 fstp	 QWORD PTR _dViewMax$[ebp]

; 1258 : 	double dUnitHeight = CPAndFDraw().GetUintHeight(graphRegion, dViewMin, dViewMax, dUnitValue);

  00168	0f 11 45 a8	 movups	 XMMWORD PTR $T8[ebp], xmm0
  0016c	0f 11 45 b8	 movups	 XMMWORD PTR $T8[ebp+16], xmm0
  00170	66 0f d6 45 c8	 movq	 QWORD PTR $T8[ebp+32], xmm0
  00175	e8 00 00 00 00	 call	 ??0CDraw@@QAE@XZ	; CDraw::CDraw
  0017a	c7 45 a8 00 00
	00 00		 mov	 DWORD PTR $T8[ebp], OFFSET ??_7CPAndFDraw@@6B@
  00181	8d 85 4c ff ff
	ff		 lea	 eax, DWORD PTR _dUnitValue$[ebp]
  00187	c6 45 fc 01	 mov	 BYTE PTR __$EHRec$[ebp+8], 1
  0018b	50		 push	 eax
  0018c	8d 85 5c ff ff
	ff		 lea	 eax, DWORD PTR _dViewMax$[ebp]
  00192	50		 push	 eax
  00193	8d 85 54 ff ff
	ff		 lea	 eax, DWORD PTR _dViewMin$[ebp]
  00199	50		 push	 eax
  0019a	8d 45 d0	 lea	 eax, DWORD PTR _graphRegion$[ebp]
  0019d	50		 push	 eax
  0019e	8d 4d a8	 lea	 ecx, DWORD PTR $T8[ebp]
  001a1	e8 00 00 00 00	 call	 ?GetUintHeight@CPAndFDraw@@QBENABVCRect@@ABN11@Z ; CPAndFDraw::GetUintHeight
  001a6	8d 4d a8	 lea	 ecx, DWORD PTR $T8[ebp]
  001a9	c6 45 fc 00	 mov	 BYTE PTR __$EHRec$[ebp+8], 0
  001ad	dd 9d 44 ff ff
	ff		 fstp	 QWORD PTR _dUnitHeight$[ebp]
  001b3	e8 00 00 00 00	 call	 ??1CDraw@@UAE@XZ	; CDraw::~CDraw
; File D:\git\src\IBK\IBK_DRFN\ProjSrc\SrcChartEx\ChartOCX\Include_Chart\Dll_Load\XScaleManager.h

; 67   : 			left = center = right = 0;

  001b8	33 c0		 xor	 eax, eax
; File D:\git\src\IBK\IBK_DRFN\ProjSrc\SrcChartEx\ChartOCX\GraphDraw\SelectSubGraph.cpp

; 1262 : 	int nCol = 0;

  001ba	c7 85 64 ff ff
	ff 00 00 00 00	 mov	 DWORD PTR _nCol$[ebp], 0

; 1265 : 	pSelectSubGraphData->GetXScaleManager()->GetDTInAREAfRQnPt( pSelectSubGraphData->GetRQ(), point.x, nCol, &nIndex, &area);

  001c4	8b cf		 mov	 ecx, edi
  001c6	c7 45 88 00 00
	00 00		 mov	 DWORD PTR _nIndex$[ebp], 0
; File D:\git\src\IBK\IBK_DRFN\ProjSrc\SrcChartEx\ChartOCX\Include_Chart\Dll_Load\XScaleManager.h

; 67   : 			left = center = right = 0;

  001cd	89 45 82	 mov	 DWORD PTR _area$[ebp+2], eax
  001d0	66 89 45 80	 mov	 WORD PTR _area$[ebp], ax
; File D:\git\src\IBK\IBK_DRFN\ProjSrc\SrcChartEx\ChartOCX\GraphDraw\SelectSubGraph.cpp

; 1265 : 	pSelectSubGraphData->GetXScaleManager()->GetDTInAREAfRQnPt( pSelectSubGraphData->GetRQ(), point.x, nCol, &nIndex, &area);

  001d4	e8 00 00 00 00	 call	 ?GetXScaleManager@CSelectSubGraphData@@QBEPAVCXScaleManager@@XZ ; CSelectSubGraphData::GetXScaleManager
  001d9	6a 00		 push	 0
  001db	8b f0		 mov	 esi, eax
  001dd	8d 45 80	 lea	 eax, DWORD PTR _area$[ebp]
  001e0	50		 push	 eax
  001e1	8d 45 88	 lea	 eax, DWORD PTR _nIndex$[ebp]
  001e4	50		 push	 eax
  001e5	8d 85 64 ff ff
	ff		 lea	 eax, DWORD PTR _nCol$[ebp]
  001eb	50		 push	 eax
  001ec	8b 85 74 ff ff
	ff		 mov	 eax, DWORD PTR _point$GSCopy$1$[ebp]
  001f2	ff 30		 push	 DWORD PTR [eax]
  001f4	51		 push	 ecx
  001f5	54		 push	 esp
  001f6	8b cf		 mov	 ecx, edi
  001f8	e8 00 00 00 00	 call	 ?GetRQ@CSelectSubGraphData@@QBE?AV?$CStringT@DV?$StrTraitMFC_DLL@DV?$ChTraitsCRT@D@ATL@@@@@ATL@@XZ ; CSelectSubGraphData::GetRQ
  001fd	8b 06		 mov	 eax, DWORD PTR [esi]
  001ff	8b ce		 mov	 ecx, esi
  00201	ff 90 34 01 00
	00		 call	 DWORD PTR [eax+308]
; File C:\Program Files (x86)\Microsoft Visual Studio\2019\Community\VC\Tools\MSVC\14.29.30133\atlmfc\include\afxtempl.h

; 1133 : 	if (nIndex >= m_nCount || nIndex < 0)

  00207	8b 8d 7c ff ff
	ff		 mov	 ecx, DWORD PTR _pHighList$[ebp]
; File D:\git\src\IBK\IBK_DRFN\ProjSrc\SrcChartEx\ChartOCX\GraphDraw\SelectSubGraph.cpp

; 1266 : 	POSITION highPos = pHighList->FindIndex( nIndex);

  0020d	8b 75 88	 mov	 esi, DWORD PTR _nIndex$[ebp]
  00210	8b c6		 mov	 eax, esi
; File C:\Program Files (x86)\Microsoft Visual Studio\2019\Community\VC\Tools\MSVC\14.29.30133\atlmfc\include\afxtempl.h

; 1133 : 	if (nIndex >= m_nCount || nIndex < 0)

  00212	3b 41 0c	 cmp	 eax, DWORD PTR [ecx+12]
  00215	7d 12		 jge	 SHORT $LN45@PointInPAn
  00217	85 c0		 test	 eax, eax
  00219	78 0e		 js	 SHORT $LN45@PointInPAn

; 1135 : 
; 1136 : 	CNode* pNode = m_pNodeHead;

  0021b	8b 49 04	 mov	 ecx, DWORD PTR [ecx+4]

; 1137 : 	while (nIndex--)

  0021e	74 0b		 je	 SHORT $LN41@PointInPAn
$LL42@PointInPAn:

; 1138 : 	{
; 1139 : 		ASSERT(AfxIsValidAddress(pNode, sizeof(CNode)));
; 1140 : 		pNode = pNode->pNext;

  00220	8b 09		 mov	 ecx, DWORD PTR [ecx]
  00222	83 e8 01	 sub	 eax, 1
  00225	75 f9		 jne	 SHORT $LL42@PointInPAn

; 1141 : 	}
; 1142 : 	return (POSITION) pNode;

  00227	eb 02		 jmp	 SHORT $LN41@PointInPAn
$LN45@PointInPAn:

; 1134 : 		return NULL;  // went too far

  00229	33 c9		 xor	 ecx, ecx
$LN41@PointInPAn:

; 1133 : 	if (nIndex >= m_nCount || nIndex < 0)

  0022b	8b 95 78 ff ff
	ff		 mov	 edx, DWORD PTR _pLowList$[ebp]
; File D:\git\src\IBK\IBK_DRFN\ProjSrc\SrcChartEx\ChartOCX\GraphDraw\SelectSubGraph.cpp

; 1267 : 	POSITION lowPos = pLowList->FindIndex( nIndex);

  00231	8b c6		 mov	 eax, esi
; File C:\Program Files (x86)\Microsoft Visual Studio\2019\Community\VC\Tools\MSVC\14.29.30133\atlmfc\include\afxtempl.h

; 1133 : 	if (nIndex >= m_nCount || nIndex < 0)

  00233	3b 42 0c	 cmp	 eax, DWORD PTR [edx+12]
  00236	7d 12		 jge	 SHORT $LN51@PointInPAn
  00238	85 c0		 test	 eax, eax
  0023a	78 0e		 js	 SHORT $LN51@PointInPAn

; 1135 : 
; 1136 : 	CNode* pNode = m_pNodeHead;

  0023c	8b 52 04	 mov	 edx, DWORD PTR [edx+4]

; 1137 : 	while (nIndex--)

  0023f	74 0b		 je	 SHORT $LN47@PointInPAn
$LL48@PointInPAn:

; 1138 : 	{
; 1139 : 		ASSERT(AfxIsValidAddress(pNode, sizeof(CNode)));
; 1140 : 		pNode = pNode->pNext;

  00241	8b 12		 mov	 edx, DWORD PTR [edx]
  00243	83 e8 01	 sub	 eax, 1
  00246	75 f9		 jne	 SHORT $LL48@PointInPAn

; 1141 : 	}
; 1142 : 	return (POSITION) pNode;

  00248	eb 02		 jmp	 SHORT $LN47@PointInPAn
$LN51@PointInPAn:

; 1134 : 		return NULL;  // went too far

  0024a	33 d2		 xor	 edx, edx
$LN47@PointInPAn:
; File D:\git\src\IBK\IBK_DRFN\ProjSrc\SrcChartEx\ChartOCX\GraphDraw\SelectSubGraph.cpp

; 1268 : 	if( highPos != NULL && lowPos != NULL)

  0024c	85 c9		 test	 ecx, ecx
  0024e	0f 84 e7 00 00
	00		 je	 $LN12@PointInPAn
  00254	85 d2		 test	 edx, edx
  00256	0f 84 df 00 00
	00		 je	 $LN12@PointInPAn

; 1269 : 	{
; 1270 : 		double dHigh = pHighList->GetNext(highPos);

  0025c	f2 0f 10 41 08	 movsd	 xmm0, QWORD PTR [ecx+8]

; 1271 : 		double dLow = pLowList->GetNext(lowPos);
; 1272 : 
; 1273 : 		CPoint highPt = CDataConversion::GetVerticalPoint(graphRegion, nIndex -1, dUnitHeight, dViewMin, dViewMax, dHigh);

  00261	8d 85 6c ff ff
	ff		 lea	 eax, DWORD PTR _dHigh$5[ebp]
  00267	6a 01		 push	 1
  00269	50		 push	 eax
  0026a	8d 85 5c ff ff
	ff		 lea	 eax, DWORD PTR _dViewMax$[ebp]
  00270	f2 0f 11 85 6c
	ff ff ff	 movsd	 QWORD PTR _dHigh$5[ebp], xmm0
  00278	f2 0f 10 42 08	 movsd	 xmm0, QWORD PTR [edx+8]
  0027d	50		 push	 eax
  0027e	8d 85 54 ff ff
	ff		 lea	 eax, DWORD PTR _dViewMin$[ebp]
  00284	f2 0f 11 85 3c
	ff ff ff	 movsd	 QWORD PTR _dLow$4[ebp], xmm0
  0028c	50		 push	 eax
  0028d	8d 85 44 ff ff
	ff		 lea	 eax, DWORD PTR _dUnitHeight$[ebp]
  00293	50		 push	 eax
  00294	8d 46 ff	 lea	 eax, DWORD PTR [esi-1]
  00297	50		 push	 eax
  00298	8d 45 d0	 lea	 eax, DWORD PTR _graphRegion$[ebp]
  0029b	50		 push	 eax
  0029c	8d 85 34 ff ff
	ff		 lea	 eax, DWORD PTR _highPt$3[ebp]
  002a2	50		 push	 eax
  002a3	e8 00 00 00 00	 call	 ?GetVerticalPoint@CDataConversion@@SA?AVCPoint@@ABVCRect@@HABN111_N@Z ; CDataConversion::GetVerticalPoint

; 1274 : 		CPoint lowPt = CDataConversion::GetVerticalPoint(graphRegion, nIndex, dUnitHeight, dViewMin, dViewMax, dLow);

  002a8	6a 01		 push	 1
  002aa	8d 85 3c ff ff
	ff		 lea	 eax, DWORD PTR _dLow$4[ebp]
  002b0	50		 push	 eax
  002b1	8d 85 5c ff ff
	ff		 lea	 eax, DWORD PTR _dViewMax$[ebp]
  002b7	50		 push	 eax
  002b8	8d 85 54 ff ff
	ff		 lea	 eax, DWORD PTR _dViewMin$[ebp]
  002be	50		 push	 eax
  002bf	8d 85 44 ff ff
	ff		 lea	 eax, DWORD PTR _dUnitHeight$[ebp]
  002c5	50		 push	 eax
  002c6	ff 75 88	 push	 DWORD PTR _nIndex$[ebp]
  002c9	8d 45 d0	 lea	 eax, DWORD PTR _graphRegion$[ebp]
  002cc	50		 push	 eax
  002cd	8d 85 2c ff ff
	ff		 lea	 eax, DWORD PTR _lowPt$2[ebp]
  002d3	50		 push	 eax
  002d4	e8 00 00 00 00	 call	 ?GetVerticalPoint@CDataConversion@@SA?AVCPoint@@ABVCRect@@HABN111_N@Z ; CDataConversion::GetVerticalPoint

; 1275 : 		CRect rect( area.left, highPt.y, area.right, lowPt.y);

  002d9	0f bf 55 80	 movsx	 edx, WORD PTR _area$[ebp]
  002dd	83 c4 40	 add	 esp, 64			; 00000040H
  002e0	0f bf 75 84	 movsx	 esi, WORD PTR _area$[ebp+4]
; File C:\Program Files (x86)\Microsoft Visual Studio\2019\Community\VC\Tools\MSVC\14.29.30133\atlmfc\include\atltypes.h

; 541  : 	top = t;

  002e4	8b 85 38 ff ff
	ff		 mov	 eax, DWORD PTR _highPt$3[ebp+4]

; 542  : 	right = r;
; 543  : 	bottom = b;

  002ea	8b 8d 30 ff ff
	ff		 mov	 ecx, DWORD PTR _lowPt$2[ebp+4]
  002f0	89 55 e0	 mov	 DWORD PTR _rect$9[ebp], edx
  002f3	89 45 e4	 mov	 DWORD PTR _rect$9[ebp+4], eax
  002f6	89 75 e8	 mov	 DWORD PTR _rect$9[ebp+8], esi
  002f9	89 4d ec	 mov	 DWORD PTR _rect$9[ebp+12], ecx
  002fc	3b d6		 cmp	 edx, esi

; 884  : 	if (left > right)

  002fe	7e 06		 jle	 SHORT $LN60@PointInPAn

; 885  : 	{
; 886  : 		nTemp = left;
; 887  : 		left = right;

  00300	89 75 e0	 mov	 DWORD PTR _rect$9[ebp], esi

; 888  : 		right = nTemp;

  00303	89 55 e8	 mov	 DWORD PTR _rect$9[ebp+8], edx
$LN60@PointInPAn:

; 889  : 	}
; 890  : 	if (top > bottom)

  00306	3b c1		 cmp	 eax, ecx
  00308	7e 06		 jle	 SHORT $LN61@PointInPAn

; 891  : 	{
; 892  : 		nTemp = top;
; 893  : 		top = bottom;

  0030a	89 4d e4	 mov	 DWORD PTR _rect$9[ebp+4], ecx

; 894  : 		bottom = nTemp;

  0030d	89 45 ec	 mov	 DWORD PTR _rect$9[ebp+12], eax
$LN61@PointInPAn:

; 648  : 	return ::PtInRect(this, point);

  00310	8b 85 74 ff ff
	ff		 mov	 eax, DWORD PTR _point$GSCopy$1$[ebp]
  00316	ff 70 04	 push	 DWORD PTR [eax+4]
  00319	ff 30		 push	 DWORD PTR [eax]
  0031b	8d 45 e0	 lea	 eax, DWORD PTR _rect$9[ebp]
  0031e	50		 push	 eax
  0031f	ff 15 00 00 00
	00		 call	 DWORD PTR __imp__PtInRect@12
; File D:\git\src\IBK\IBK_DRFN\ProjSrc\SrcChartEx\ChartOCX\GraphDraw\SelectSubGraph.cpp

; 1278 : 		if( rect.PtInRect(point))

  00325	85 c0		 test	 eax, eax
  00327	74 12		 je	 SHORT $LN12@PointInPAn

; 1279 : 			return nIndex;

  00329	8b 75 88	 mov	 esi, DWORD PTR _nIndex$[ebp]
  0032c	8d 8d 04 ff ff
	ff		 lea	 ecx, DWORD PTR _PAndFDraw$[ebp]
  00332	e8 00 00 00 00	 call	 ??1CDraw@@UAE@XZ	; CDraw::~CDraw

; 1280 : 	}
; 1281 : 	return -1;

  00337	8b c6		 mov	 eax, esi
  00339	eb 15		 jmp	 SHORT $LN1@PointInPAn
$LN12@PointInPAn:
  0033b	8d 8d 04 ff ff
	ff		 lea	 ecx, DWORD PTR _PAndFDraw$[ebp]
  00341	83 ce ff	 or	 esi, -1
  00344	e8 00 00 00 00	 call	 ??1CDraw@@UAE@XZ	; CDraw::~CDraw
  00349	8b c6		 mov	 eax, esi
  0034b	eb 03		 jmp	 SHORT $LN1@PointInPAn
$LN81@PointInPAn:

; 1241 : 		return -1;

  0034d	83 c8 ff	 or	 eax, -1
$LN1@PointInPAn:

; 1282 : }

  00350	8b 4d f4	 mov	 ecx, DWORD PTR __$EHRec$[ebp]
  00353	64 89 0d 00 00
	00 00		 mov	 DWORD PTR fs:0, ecx
  0035a	59		 pop	 ecx
  0035b	5f		 pop	 edi
  0035c	5e		 pop	 esi
  0035d	8b 4d f0	 mov	 ecx, DWORD PTR __$ArrayPad$[ebp]
  00360	33 cd		 xor	 ecx, ebp
  00362	e8 00 00 00 00	 call	 @__security_check_cookie@4
  00367	8b e5		 mov	 esp, ebp
  00369	5d		 pop	 ebp
  0036a	c2 08 00	 ret	 8
$LN85@PointInPAn:
; File C:\Program Files (x86)\Microsoft Visual Studio\2019\Community\VC\Tools\MSVC\14.29.30133\atlmfc\include\afxtempl.h

; 793  : 	{ ENSURE(m_pNodeHead != NULL);

  0036d	e8 00 00 00 00	 call	 ?AfxThrowInvalidArgException@@YGXXZ ; AfxThrowInvalidArgException
$LN83@PointInPAn:
  00372	cc		 int	 3
_TEXT	ENDS
;	COMDAT text$x
text$x	SEGMENT
__unwindfunclet$?PointInPAndFGraph@CSelectSubGraph@@AAEHABVCPoint@@PBVCSelectSubGraphData@@@Z$0:
  00000	8d 8d 04 ff ff
	ff		 lea	 ecx, DWORD PTR _PAndFDraw$[ebp]
  00006	e9 00 00 00 00	 jmp	 ??1CPAndFDraw@@UAE@XZ
__unwindfunclet$?PointInPAndFGraph@CSelectSubGraph@@AAEHABVCPoint@@PBVCSelectSubGraphData@@@Z$1:
  0000b	8d 4d a8	 lea	 ecx, DWORD PTR $T8[ebp]
  0000e	e9 00 00 00 00	 jmp	 ??1CPAndFDraw@@UAE@XZ
  00013	cc		 int	 3
  00014	cc		 int	 3
  00015	cc		 int	 3
  00016	cc		 int	 3
  00017	cc		 int	 3
__ehhandler$?PointInPAndFGraph@CSelectSubGraph@@AAEHABVCPoint@@PBVCSelectSubGraphData@@@Z:
  00018	90		 npad	 1
  00019	90		 npad	 1
  0001a	8b 54 24 08	 mov	 edx, DWORD PTR [esp+8]
  0001e	8d 42 0c	 lea	 eax, DWORD PTR [edx+12]
  00021	8b 8a 04 ff ff
	ff		 mov	 ecx, DWORD PTR [edx-252]
  00027	33 c8		 xor	 ecx, eax
  00029	e8 00 00 00 00	 call	 @__security_check_cookie@4
  0002e	8b 4a fc	 mov	 ecx, DWORD PTR [edx-4]
  00031	33 c8		 xor	 ecx, eax
  00033	e8 00 00 00 00	 call	 @__security_check_cookie@4
  00038	b8 00 00 00 00	 mov	 eax, OFFSET __ehfuncinfo$?PointInPAndFGraph@CSelectSubGraph@@AAEHABVCPoint@@PBVCSelectSubGraphData@@@Z
  0003d	e9 00 00 00 00	 jmp	 ___CxxFrameHandler3
text$x	ENDS
?PointInPAndFGraph@CSelectSubGraph@@AAEHABVCPoint@@PBVCSelectSubGraphData@@@Z ENDP ; CSelectSubGraph::PointInPAndFGraph
; Function compile flags: /Ogtp
; File D:\git\src\IBK\IBK_DRFN\ProjSrc\SrcChartEx\ChartOCX\GraphDraw\SelectSubGraph.cpp
; File C:\Program Files (x86)\Microsoft Visual Studio\2019\Community\VC\Tools\MSVC\14.29.30133\atlmfc\include\afxtempl.h
; File D:\git\src\IBK\IBK_DRFN\ProjSrc\SrcChartEx\ChartOCX\GraphDraw\SelectSubGraph.cpp
; File C:\Program Files (x86)\Microsoft Visual Studio\2019\Community\VC\Tools\MSVC\14.29.30133\atlmfc\include\afxtempl.h
; File D:\git\src\IBK\IBK_DRFN\ProjSrc\SrcChartEx\ChartOCX\GraphDraw\SelectSubGraph.cpp
; File C:\Program Files (x86)\Microsoft Visual Studio\2019\Community\VC\Tools\MSVC\14.29.30133\atlmfc\include\afxtempl.h
; File D:\git\src\IBK\IBK_DRFN\ProjSrc\SrcChartEx\ChartOCX\GraphDraw\SelectSubGraph.cpp
; File C:\Program Files (x86)\Microsoft Visual Studio\2019\Community\VC\Tools\MSVC\14.29.30133\atlmfc\include\afxtempl.h
; File D:\git\src\IBK\IBK_DRFN\ProjSrc\SrcChartEx\ChartOCX\GraphDraw\SelectSubGraph.cpp
; File D:\git\src\IBK\IBK_DRFN\ProjSrc\SrcChartEx\ChartOCX\Include_Chart\BlockBaseData.h
; File D:\git\src\IBK\IBK_DRFN\ProjSrc\SrcChartEx\ChartOCX\GraphDraw\SelectSubGraph.cpp
; File C:\Program Files (x86)\Microsoft Visual Studio\2019\Community\VC\Tools\MSVC\14.29.30133\atlmfc\include\afxtempl.h
; File D:\git\src\IBK\IBK_DRFN\ProjSrc\SrcChartEx\ChartOCX\GraphDraw\SelectSubGraph.cpp
; File C:\Program Files (x86)\Microsoft Visual Studio\2019\Community\VC\Tools\MSVC\14.29.30133\atlmfc\include\afxtempl.h
; File D:\git\src\IBK\IBK_DRFN\ProjSrc\SrcChartEx\ChartOCX\GraphDraw\SelectSubGraph.cpp
; File C:\Program Files (x86)\Microsoft Visual Studio\2019\Community\VC\Tools\MSVC\14.29.30133\atlmfc\include\afxtempl.h
; File D:\git\src\IBK\IBK_DRFN\ProjSrc\SrcChartEx\ChartOCX\GraphDraw\SelectSubGraph.cpp
; File C:\Program Files (x86)\Microsoft Visual Studio\2019\Community\VC\Tools\MSVC\14.29.30133\atlmfc\include\afxtempl.h
; File D:\git\src\IBK\IBK_DRFN\ProjSrc\SrcChartEx\ChartOCX\GraphDraw\SelectSubGraph.cpp
; File C:\Program Files (x86)\Microsoft Visual Studio\2019\Community\VC\Tools\MSVC\14.29.30133\atlmfc\include\afxtempl.h
; File D:\git\src\IBK\IBK_DRFN\ProjSrc\SrcChartEx\ChartOCX\GraphDraw\SelectSubGraph.cpp
; File C:\Program Files (x86)\Microsoft Visual Studio\2019\Community\VC\Tools\MSVC\14.29.30133\atlmfc\include\afxwin1.inl
; File D:\git\src\IBK\IBK_DRFN\ProjSrc\SrcChartEx\ChartOCX\GraphDraw\SelectSubGraph.cpp
; File C:\Program Files (x86)\Windows Kits\10\Include\10.0.22000.0\ucrt\stdlib.h
; File D:\git\src\IBK\IBK_DRFN\ProjSrc\SrcChartEx\ChartOCX\GraphDraw\SelectSubGraph.cpp
; File C:\Program Files (x86)\Windows Kits\10\Include\10.0.22000.0\ucrt\stdlib.h
; File D:\git\src\IBK\IBK_DRFN\ProjSrc\SrcChartEx\ChartOCX\GraphDraw\SelectSubGraph.cpp
; File C:\Program Files (x86)\Windows Kits\10\Include\10.0.22000.0\ucrt\stdlib.h
; File D:\git\src\IBK\IBK_DRFN\ProjSrc\SrcChartEx\ChartOCX\GraphDraw\SelectSubGraph.cpp
; File C:\Program Files (x86)\Microsoft Visual Studio\2019\Community\VC\Tools\MSVC\14.29.30133\atlmfc\include\afxwin1.inl
; File D:\git\src\IBK\IBK_DRFN\ProjSrc\SrcChartEx\ChartOCX\GraphDraw\SelectSubGraph.cpp
; File C:\Program Files (x86)\Microsoft Visual Studio\2019\Community\VC\Tools\MSVC\14.29.30133\atlmfc\include\afxwin1.inl
; File D:\git\src\IBK\IBK_DRFN\ProjSrc\SrcChartEx\ChartOCX\GraphDraw\SelectSubGraph.cpp
; File C:\Program Files (x86)\Microsoft Visual Studio\2019\Community\VC\Tools\MSVC\14.29.30133\atlmfc\include\afxwin1.inl
; File D:\git\src\IBK\IBK_DRFN\ProjSrc\SrcChartEx\ChartOCX\GraphDraw\SelectSubGraph.cpp
; File C:\Program Files (x86)\Microsoft Visual Studio\2019\Community\VC\Tools\MSVC\14.29.30133\atlmfc\include\afxwin1.inl
; File D:\git\src\IBK\IBK_DRFN\ProjSrc\SrcChartEx\ChartOCX\GraphDraw\SelectSubGraph.cpp
; File C:\Program Files (x86)\Microsoft Visual Studio\2019\Community\VC\Tools\MSVC\14.29.30133\atlmfc\include\afxwin1.inl
; File D:\git\src\IBK\IBK_DRFN\ProjSrc\SrcChartEx\ChartOCX\GraphDraw\SelectSubGraph.cpp
; File C:\Program Files (x86)\Windows Kits\10\Include\10.0.22000.0\ucrt\stdlib.h
; File D:\git\src\IBK\IBK_DRFN\ProjSrc\SrcChartEx\ChartOCX\GraphDraw\SelectSubGraph.cpp
; File C:\Program Files (x86)\Windows Kits\10\Include\10.0.22000.0\ucrt\stdlib.h
; File D:\git\src\IBK\IBK_DRFN\ProjSrc\SrcChartEx\ChartOCX\GraphDraw\SelectSubGraph.cpp
; File C:\Program Files (x86)\Microsoft Visual Studio\2019\Community\VC\Tools\MSVC\14.29.30133\atlmfc\include\afxwin1.inl
; File D:\git\src\IBK\IBK_DRFN\ProjSrc\SrcChartEx\ChartOCX\GraphDraw\SelectSubGraph.cpp
; File C:\Program Files (x86)\Microsoft Visual Studio\2019\Community\VC\Tools\MSVC\14.29.30133\atlmfc\include\afxtempl.h
; File D:\git\src\IBK\IBK_DRFN\ProjSrc\SrcChartEx\ChartOCX\GraphDraw\SelectSubGraph.cpp
;	COMDAT ?PointInInverseLineGraph@CSelectSubGraph@@AAEHABVCPoint@@PBVCSelectSubGraphData@@@Z
_TEXT	SEGMENT
_dVertViewMin$ = -240					; size = 8
_dVertViewMax$ = -232					; size = 8
_dHorzViewMin$ = -224					; size = 8
_dHorzViewMax$ = -216					; size = 8
$T2 = -208						; size = 4
_point$GSCopy$1$ = -204					; size = 4
_closeStartPos$1$ = -200				; size = 4
_nStartIndex$1$ = -200					; size = 4
_pCloseDataList$1$ = -196				; size = 4
_nDataCount$1$ = -196					; size = 4
_prevPt$ = -192						; size = 8
_curPt$3 = -184						; size = 8
_pSelectSubGraphData$GSCopy$1$ = -180			; size = 4
_rgn$4 = -176						; size = 8
$T5 = -172						; size = 4
_bIsInvert$1$ = -165					; size = 1
$T6 = -164						; size = 68
_graphRegion$ = -96					; size = 16
_ptArray$7 = -80					; size = 32
_ptArray$8 = -48					; size = 32
$T9 = -32						; size = 16
$T10 = -32						; size = 16
$T11 = -32						; size = 16
$T12 = -32						; size = 16
__$ArrayPad$ = -16					; size = 4
__$EHRec$ = -12						; size = 12
_point$ = 8						; size = 4
_pSelectSubGraphData$ = 12				; size = 4
?PointInInverseLineGraph@CSelectSubGraph@@AAEHABVCPoint@@PBVCSelectSubGraphData@@@Z PROC ; CSelectSubGraph::PointInInverseLineGraph, COMDAT
; _this$ = ecx

; 1131 : {

  00000	55		 push	 ebp
  00001	8b ec		 mov	 ebp, esp
  00003	6a ff		 push	 -1
  00005	68 00 00 00 00	 push	 __ehhandler$?PointInInverseLineGraph@CSelectSubGraph@@AAEHABVCPoint@@PBVCSelectSubGraphData@@@Z
  0000a	64 a1 00 00 00
	00		 mov	 eax, DWORD PTR fs:0
  00010	50		 push	 eax
  00011	81 ec e4 00 00
	00		 sub	 esp, 228		; 000000e4H
  00017	a1 00 00 00 00	 mov	 eax, DWORD PTR ___security_cookie
  0001c	33 c5		 xor	 eax, ebp
  0001e	89 45 f0	 mov	 DWORD PTR __$ArrayPad$[ebp], eax
  00021	53		 push	 ebx
  00022	56		 push	 esi
  00023	57		 push	 edi
  00024	50		 push	 eax
  00025	8d 45 f4	 lea	 eax, DWORD PTR __$EHRec$[ebp]
  00028	64 a3 00 00 00
	00		 mov	 DWORD PTR fs:0, eax
  0002e	8b 75 08	 mov	 esi, DWORD PTR _point$[ebp]
  00031	89 b5 34 ff ff
	ff		 mov	 DWORD PTR _point$GSCopy$1$[ebp], esi
  00037	8b 75 0c	 mov	 esi, DWORD PTR _pSelectSubGraphData$[ebp]
  0003a	89 b5 4c ff ff
	ff		 mov	 DWORD PTR _pSelectSubGraphData$GSCopy$1$[ebp], esi

; 1199 : 	if(pSelectSubGraphData == NULL || pSelectSubGraphData->GetSubGraphPacketList() == NULL)

  00040	85 f6		 test	 esi, esi
  00042	0f 84 98 03 00
	00		 je	 $LN7@PointInInv
  00048	8b ce		 mov	 ecx, esi
  0004a	e8 00 00 00 00	 call	 ?GetSubGraphPacketList@CSelectSubGraphData@@QBEPAVCSubGraphPacketList@@XZ ; CSelectSubGraphData::GetSubGraphPacketList
  0004f	85 c0		 test	 eax, eax
  00051	0f 84 89 03 00
	00		 je	 $LN7@PointInInv

; 1200 : 		return false;
; 1201 : 
; 1202 : 	const CList< CPacket *, CPacket *> &packetList = pSelectSubGraphData->GetSubGraphPacketList()->GetSubGraphPacketList();

  00057	8b ce		 mov	 ecx, esi
  00059	e8 00 00 00 00	 call	 ?GetSubGraphPacketList@CSelectSubGraphData@@QBEPAVCSubGraphPacketList@@XZ ; CSelectSubGraphData::GetSubGraphPacketList
  0005e	8b c8		 mov	 ecx, eax
  00060	e8 00 00 00 00	 call	 ?GetSubGraphPacketList@CSubGraphPacketList@@QBEABV?$CList@PAVCPacket@@PAV1@@@XZ ; CSubGraphPacketList::GetSubGraphPacketList
  00065	8b f8		 mov	 edi, eax

; 1203 : 	if( packetList.GetCount() < 2)

  00067	83 7f 0c 02	 cmp	 DWORD PTR [edi+12], 2
  0006b	0f 8c 6f 03 00
	00		 jl	 $LN7@PointInInv
; File C:\Program Files (x86)\Microsoft Visual Studio\2019\Community\VC\Tools\MSVC\14.29.30133\atlmfc\include\afxtempl.h

; 793  : 	{ ENSURE(m_pNodeHead != NULL);

  00071	8b 5f 04	 mov	 ebx, DWORD PTR [edi+4]
  00074	85 db		 test	 ebx, ebx
  00076	0f 84 e4 03 00
	00		 je	 $LN170@PointInInv
; File D:\git\src\IBK\IBK_DRFN\ProjSrc\SrcChartEx\ChartOCX\GraphDraw\SelectSubGraph.cpp

; 1208 : 	if(pClosePacket == NULL)

  0007c	8b 5b 08	 mov	 ebx, DWORD PTR [ebx+8]
  0007f	85 db		 test	 ebx, ebx
  00081	0f 84 59 03 00
	00		 je	 $LN7@PointInInv

; 1209 : 		return false;
; 1210 : 	pCloseDataList = pClosePacket->GetnumericDataList();

  00087	8b cb		 mov	 ecx, ebx
  00089	ff 15 00 00 00
	00		 call	 DWORD PTR __imp_?GetnumericDataList@CPacket@@QAEPAV?$CList@NN@@XZ
  0008f	8b f0		 mov	 esi, eax
  00091	89 b5 3c ff ff
	ff		 mov	 DWORD PTR _pCloseDataList$1$[ebp], esi

; 1211 : 	if(pCloseDataList == NULL)

  00097	85 f6		 test	 esi, esi
  00099	0f 84 41 03 00
	00		 je	 $LN7@PointInInv

; 1212 : 		return false;
; 1213 : 	p_nStartIndex = pClosePacket->GetStartPeriod();

  0009f	8b cb		 mov	 ecx, ebx
  000a1	ff 15 00 00 00
	00		 call	 DWORD PTR __imp_?GetStartPeriod@CPacket@@QAEHXZ
  000a7	8b d8		 mov	 ebx, eax

; 1214 : 	closeStartPos = closeEndPos = pCloseDataList->FindIndex( p_nStartIndex);

  000a9	8b cb		 mov	 ecx, ebx
  000ab	89 9d 38 ff ff
	ff		 mov	 DWORD PTR _nStartIndex$1$[ebp], ebx
; File C:\Program Files (x86)\Microsoft Visual Studio\2019\Community\VC\Tools\MSVC\14.29.30133\atlmfc\include\afxtempl.h

; 1133 : 	if (nIndex >= m_nCount || nIndex < 0)

  000b1	3b 5e 0c	 cmp	 ebx, DWORD PTR [esi+12]
  000b4	7d 18		 jge	 SHORT $LN40@PointInInv
  000b6	85 db		 test	 ebx, ebx
  000b8	78 14		 js	 SHORT $LN40@PointInInv

; 1135 : 
; 1136 : 	CNode* pNode = m_pNodeHead;

  000ba	8b 76 04	 mov	 esi, DWORD PTR [esi+4]
  000bd	89 b5 54 ff ff
	ff		 mov	 DWORD PTR $T5[ebp], esi

; 1137 : 	while (nIndex--)

  000c3	74 11		 je	 SHORT $LN36@PointInInv
$LL37@PointInInv:

; 1138 : 	{
; 1139 : 		ASSERT(AfxIsValidAddress(pNode, sizeof(CNode)));
; 1140 : 		pNode = pNode->pNext;

  000c5	8b 36		 mov	 esi, DWORD PTR [esi]
  000c7	83 e9 01	 sub	 ecx, 1
  000ca	75 f9		 jne	 SHORT $LL37@PointInInv

; 1141 : 	}
; 1142 : 	return (POSITION) pNode;

  000cc	eb 02		 jmp	 SHORT $LN167@PointInInv
$LN40@PointInInv:

; 1134 : 		return NULL;  // went too far

  000ce	33 f6		 xor	 esi, esi
$LN167@PointInInv:

; 1133 : 	if (nIndex >= m_nCount || nIndex < 0)

  000d0	89 b5 54 ff ff
	ff		 mov	 DWORD PTR $T5[ebp], esi
$LN36@PointInInv:
  000d6	83 7f 0c 01	 cmp	 DWORD PTR [edi+12], 1
  000da	7e 07		 jle	 SHORT $LN46@PointInInv

; 1135 : 
; 1136 : 	CNode* pNode = m_pNodeHead;

  000dc	8b 47 04	 mov	 eax, DWORD PTR [edi+4]

; 1141 : 	}
; 1142 : 	return (POSITION) pNode;

  000df	8b 00		 mov	 eax, DWORD PTR [eax]
  000e1	eb 02		 jmp	 SHORT $LN42@PointInInv
$LN46@PointInInv:

; 1134 : 		return NULL;  // went too far

  000e3	33 c0		 xor	 eax, eax
$LN42@PointInInv:
; File D:\git\src\IBK\IBK_DRFN\ProjSrc\SrcChartEx\ChartOCX\GraphDraw\SelectSubGraph.cpp

; 1217 : 	CPacket* pVolumePacket = packetList.GetAt(packetList.FindIndex(1));

  000e5	8b 48 08	 mov	 ecx, DWORD PTR [eax+8]

; 1218 : 	if(pVolumePacket == NULL)

  000e8	85 c9		 test	 ecx, ecx
  000ea	0f 84 f0 02 00
	00		 je	 $LN7@PointInInv

; 1219 : 		return false;
; 1220 : 	pVolumeDataList = pVolumePacket->GetnumericDataList();

  000f0	ff 15 00 00 00
	00		 call	 DWORD PTR __imp_?GetnumericDataList@CPacket@@QAEPAV?$CList@NN@@XZ

; 1221 : 	if(pVolumeDataList == NULL)

  000f6	85 c0		 test	 eax, eax
  000f8	0f 84 e2 02 00
	00		 je	 $LN7@PointInInv
; File C:\Program Files (x86)\Microsoft Visual Studio\2019\Community\VC\Tools\MSVC\14.29.30133\atlmfc\include\afxtempl.h

; 1133 : 	if (nIndex >= m_nCount || nIndex < 0)

  000fe	8b 50 0c	 mov	 edx, DWORD PTR [eax+12]
; File D:\git\src\IBK\IBK_DRFN\ProjSrc\SrcChartEx\ChartOCX\GraphDraw\SelectSubGraph.cpp

; 1223 : 	volumeStartPos = volumeEndPos = pVolumeDataList->FindIndex( p_nStartIndex);

  00101	8b cb		 mov	 ecx, ebx
; File C:\Program Files (x86)\Microsoft Visual Studio\2019\Community\VC\Tools\MSVC\14.29.30133\atlmfc\include\afxtempl.h

; 1133 : 	if (nIndex >= m_nCount || nIndex < 0)

  00103	3b da		 cmp	 ebx, edx
  00105	7d 12		 jge	 SHORT $LN52@PointInInv
  00107	85 db		 test	 ebx, ebx
  00109	78 0e		 js	 SHORT $LN52@PointInInv

; 1135 : 
; 1136 : 	CNode* pNode = m_pNodeHead;

  0010b	8b 78 04	 mov	 edi, DWORD PTR [eax+4]

; 1137 : 	while (nIndex--)

  0010e	74 0b		 je	 SHORT $LN48@PointInInv
$LL49@PointInInv:

; 1138 : 	{
; 1139 : 		ASSERT(AfxIsValidAddress(pNode, sizeof(CNode)));
; 1140 : 		pNode = pNode->pNext;

  00110	8b 3f		 mov	 edi, DWORD PTR [edi]
  00112	83 e9 01	 sub	 ecx, 1
  00115	75 f9		 jne	 SHORT $LL49@PointInInv

; 1141 : 	}
; 1142 : 	return (POSITION) pNode;

  00117	eb 02		 jmp	 SHORT $LN48@PointInInv
$LN52@PointInInv:

; 1134 : 		return NULL;  // went too far

  00119	33 ff		 xor	 edi, edi
$LN48@PointInInv:
; File D:\git\src\IBK\IBK_DRFN\ProjSrc\SrcChartEx\ChartOCX\GraphDraw\SelectSubGraph.cpp

; 1225 : 	nDataCount = pCloseDataList->GetCount();

  0011b	8b 85 3c ff ff
	ff		 mov	 eax, DWORD PTR _pCloseDataList$1$[ebp]
  00121	8b 40 0c	 mov	 eax, DWORD PTR [eax+12]

; 1226 : 	if(nDataCount > pVolumeDataList->GetCount())
; 1227 : 		nDataCount = pVolumeDataList->GetCount();
; 1228 : 
; 1229 : 	return (closeStartPos != NULL && volumeStartPos != NULL);

  00124	3b c2		 cmp	 eax, edx
  00126	0f 4e d0	 cmovle	 edx, eax
  00129	89 95 3c ff ff
	ff		 mov	 DWORD PTR _nDataCount$1$[ebp], edx
  0012f	85 f6		 test	 esi, esi
  00131	74 08		 je	 SHORT $LN27@PointInInv
  00133	85 ff		 test	 edi, edi
  00135	74 04		 je	 SHORT $LN27@PointInInv
  00137	b0 01		 mov	 al, 1
  00139	eb 02		 jmp	 SHORT $LN28@PointInInv
$LN27@PointInInv:
  0013b	32 c0		 xor	 al, al
$LN28@PointInInv:

; 1132 : 	int nDataCount = 0, nStartIndex = 0;
; 1133 : 	CList<double, double>* pCloseDataList = NULL, *pVolumeDataList = NULL;
; 1134 : 	POSITION closeStartPos = NULL, closeEndPos = NULL, volumeStartPos = NULL, volumeEndPos = NULL;
; 1135 : 	if(!GetPacketData_InverseLineGraph(pSelectSubGraphData, nDataCount, 

  0013d	84 c0		 test	 al, al
  0013f	0f 84 9b 02 00
	00		 je	 $LN7@PointInInv

; 1140 : 	CRect graphRegion = pSelectSubGraphData->GetGraphRegions().GetDrawingRegion();

  00145	8b 9d 4c ff ff
	ff		 mov	 ebx, DWORD PTR _pSelectSubGraphData$GSCopy$1$[ebp]
  0014b	8d 85 30 ff ff
	ff		 lea	 eax, DWORD PTR $T2[ebp]
  00151	50		 push	 eax
  00152	6a ff		 push	 -1
  00154	8d 45 a0	 lea	 eax, DWORD PTR _graphRegion$[ebp]
; File D:\git\src\IBK\IBK_DRFN\ProjSrc\SrcChartEx\ChartOCX\Include_Chart\BlockBaseData.h

; 43   : 	CGraphStyle(const int style) { m_nStyle = style; };

  00157	c7 85 30 ff ff
	ff ff ff ff ff	 mov	 DWORD PTR $T2[ebp], -1
; File D:\git\src\IBK\IBK_DRFN\ProjSrc\SrcChartEx\ChartOCX\GraphDraw\SelectSubGraph.cpp

; 1140 : 	CRect graphRegion = pSelectSubGraphData->GetGraphRegions().GetDrawingRegion();

  00161	50		 push	 eax
  00162	8d 85 5c ff ff
	ff		 lea	 eax, DWORD PTR $T6[ebp]
  00168	8b cb		 mov	 ecx, ebx
  0016a	50		 push	 eax
  0016b	e8 00 00 00 00	 call	 ?GetGraphRegions@CSelectSubGraphData@@QBE?AVCGraphRegions@@XZ ; CSelectSubGraphData::GetGraphRegions
  00170	8b c8		 mov	 ecx, eax
  00172	e8 00 00 00 00	 call	 ?GetDrawingRegion@CGraphRegions@@QBE?AVCRect@@W4GRAPHTYPE@CGraphBaseData@@ABVCGraphStyle@@@Z ; CGraphRegions::GetDrawingRegion

; 1141 : 	double dVertViewMin = pSelectSubGraphData->GetDisplayDataVertMinMax().GetDisplayMin();

  00177	8d 45 e0	 lea	 eax, DWORD PTR $T12[ebp]
  0017a	8b cb		 mov	 ecx, ebx
  0017c	50		 push	 eax
  0017d	e8 00 00 00 00	 call	 ?GetDisplayDataVertMinMax@CSelectSubGraphData@@QBE?AVCDisplayDataMinMax@@XZ ; CSelectSubGraphData::GetDisplayDataVertMinMax
  00182	8b c8		 mov	 ecx, eax
  00184	ff 15 00 00 00
	00		 call	 DWORD PTR __imp_?GetDisplayMin@CDisplayDataMinMax@@QBENXZ

; 1142 : 	double dVertViewMax = pSelectSubGraphData->GetDisplayDataVertMinMax().GetDisplayMax(); 

  0018a	8d 45 e0	 lea	 eax, DWORD PTR $T11[ebp]
  0018d	8b cb		 mov	 ecx, ebx
  0018f	50		 push	 eax
  00190	dd 9d 10 ff ff
	ff		 fstp	 QWORD PTR _dVertViewMin$[ebp]
  00196	e8 00 00 00 00	 call	 ?GetDisplayDataVertMinMax@CSelectSubGraphData@@QBE?AVCDisplayDataMinMax@@XZ ; CSelectSubGraphData::GetDisplayDataVertMinMax
  0019b	8b c8		 mov	 ecx, eax
  0019d	ff 15 00 00 00
	00		 call	 DWORD PTR __imp_?GetDisplayMax@CDisplayDataMinMax@@QBENXZ

; 1143 : 	double dHorzViewMin = pSelectSubGraphData->GetDisplayDataHorzMinMax().GetDisplayMin();

  001a3	8d 45 e0	 lea	 eax, DWORD PTR $T10[ebp]
  001a6	8b cb		 mov	 ecx, ebx
  001a8	50		 push	 eax
  001a9	dd 9d 18 ff ff
	ff		 fstp	 QWORD PTR _dVertViewMax$[ebp]
  001af	e8 00 00 00 00	 call	 ?GetDisplayDataHorzMinMax@CSelectSubGraphData@@QBE?AVCDisplayDataMinMax@@XZ ; CSelectSubGraphData::GetDisplayDataHorzMinMax
  001b4	8b c8		 mov	 ecx, eax
  001b6	ff 15 00 00 00
	00		 call	 DWORD PTR __imp_?GetDisplayMin@CDisplayDataMinMax@@QBENXZ

; 1144 : 	double dHorzViewMax = pSelectSubGraphData->GetDisplayDataHorzMinMax().GetDisplayMax();

  001bc	8d 45 e0	 lea	 eax, DWORD PTR $T9[ebp]
  001bf	8b cb		 mov	 ecx, ebx
  001c1	50		 push	 eax
  001c2	dd 9d 20 ff ff
	ff		 fstp	 QWORD PTR _dHorzViewMin$[ebp]
  001c8	e8 00 00 00 00	 call	 ?GetDisplayDataHorzMinMax@CSelectSubGraphData@@QBE?AVCDisplayDataMinMax@@XZ ; CSelectSubGraphData::GetDisplayDataHorzMinMax
  001cd	8b c8		 mov	 ecx, eax
  001cf	ff 15 00 00 00
	00		 call	 DWORD PTR __imp_?GetDisplayMax@CDisplayDataMinMax@@QBENXZ

; 1147 : 	bool bIsInvert = pSelectSubGraphData->GetVertScaleInvertType();

  001d5	8b cb		 mov	 ecx, ebx
  001d7	dd 9d 28 ff ff
	ff		 fstp	 QWORD PTR _dHorzViewMax$[ebp]
  001dd	e8 00 00 00 00	 call	 ?GetVertScaleInvertType@CSelectSubGraphData@@QBE_NXZ ; CSelectSubGraphData::GetVertScaleInvertType
; File C:\Program Files (x86)\Microsoft Visual Studio\2019\Community\VC\Tools\MSVC\14.29.30133\atlmfc\include\afxtempl.h

; 813  : 		rPosition = (POSITION) pNode->pNext;

  001e2	8b 1f		 mov	 ebx, DWORD PTR [edi]

; 814  : 		return pNode->data; }

  001e4	8d 4f 08	 lea	 ecx, DWORD PTR [edi+8]

; 813  : 		rPosition = (POSITION) pNode->pNext;

  001e7	8b 36		 mov	 esi, DWORD PTR [esi]
; File D:\git\src\IBK\IBK_DRFN\ProjSrc\SrcChartEx\ChartOCX\GraphDraw\SelectSubGraph.cpp

; 1148 : 	CPoint prevPt = CDataConversion::GetVerticalPoint(graphRegion, 

  001e9	51		 push	 ecx
; File C:\Program Files (x86)\Microsoft Visual Studio\2019\Community\VC\Tools\MSVC\14.29.30133\atlmfc\include\afxtempl.h

; 814  : 		return pNode->data; }

  001ea	8b 8d 54 ff ff
	ff		 mov	 ecx, DWORD PTR $T5[ebp]
; File D:\git\src\IBK\IBK_DRFN\ProjSrc\SrcChartEx\ChartOCX\GraphDraw\SelectSubGraph.cpp

; 1147 : 	bool bIsInvert = pSelectSubGraphData->GetVertScaleInvertType();

  001f0	88 85 5b ff ff
	ff		 mov	 BYTE PTR _bIsInvert$1$[ebp], al
; File C:\Program Files (x86)\Microsoft Visual Studio\2019\Community\VC\Tools\MSVC\14.29.30133\atlmfc\include\afxtempl.h

; 814  : 		return pNode->data; }

  001f6	83 c1 08	 add	 ecx, 8
; File D:\git\src\IBK\IBK_DRFN\ProjSrc\SrcChartEx\ChartOCX\GraphDraw\SelectSubGraph.cpp

; 1148 : 	CPoint prevPt = CDataConversion::GetVerticalPoint(graphRegion, 

  001f9	51		 push	 ecx
  001fa	8d 85 28 ff ff
	ff		 lea	 eax, DWORD PTR _dHorzViewMax$[ebp]
  00200	50		 push	 eax
  00201	8d 85 20 ff ff
	ff		 lea	 eax, DWORD PTR _dHorzViewMin$[ebp]
  00207	50		 push	 eax
  00208	8d 85 18 ff ff
	ff		 lea	 eax, DWORD PTR _dVertViewMax$[ebp]
  0020e	50		 push	 eax
  0020f	8d 85 10 ff ff
	ff		 lea	 eax, DWORD PTR _dVertViewMin$[ebp]
  00215	50		 push	 eax
  00216	8d 45 a0	 lea	 eax, DWORD PTR _graphRegion$[ebp]
  00219	50		 push	 eax
  0021a	8d 85 40 ff ff
	ff		 lea	 eax, DWORD PTR _prevPt$[ebp]
  00220	50		 push	 eax
  00221	e8 00 00 00 00	 call	 ?GetVerticalPoint@CDataConversion@@SA?AVCPoint@@ABVCRect@@ABN11111@Z ; CDataConversion::GetVerticalPoint

; 1152 : 	for(int nIndex = nStartIndex + 1; nIndex < nDataCount; nIndex++)

  00226	8b bd 38 ff ff
	ff		 mov	 edi, DWORD PTR _nStartIndex$1$[ebp]
  0022c	83 c4 20	 add	 esp, 32			; 00000020H
  0022f	47		 inc	 edi
  00230	3b bd 3c ff ff
	ff		 cmp	 edi, DWORD PTR _nDataCount$1$[ebp]
  00236	0f 8d a4 01 00
	00		 jge	 $LN7@PointInInv
  0023c	0f 1f 40 00	 npad	 4
$LL4@PointInInv:

; 1153 : 	{
; 1154 : 		if(closeStartPos == NULL || volumeStartPos == NULL)

  00240	85 f6		 test	 esi, esi
  00242	0f 84 98 01 00
	00		 je	 $LN7@PointInInv
  00248	85 db		 test	 ebx, ebx
  0024a	0f 84 90 01 00
	00		 je	 $LN7@PointInInv
; File C:\Program Files (x86)\Microsoft Visual Studio\2019\Community\VC\Tools\MSVC\14.29.30133\atlmfc\include\afxtempl.h

; 811  : 	{ CNode* pNode = (CNode*) rPosition;

  00250	8b ce		 mov	 ecx, esi
  00252	8b c3		 mov	 eax, ebx

; 813  : 		rPosition = (POSITION) pNode->pNext;

  00254	8b 36		 mov	 esi, DWORD PTR [esi]

; 814  : 		return pNode->data; }

  00256	83 c0 08	 add	 eax, 8
; File D:\git\src\IBK\IBK_DRFN\ProjSrc\SrcChartEx\ChartOCX\GraphDraw\SelectSubGraph.cpp

; 1157 : 		CPoint curPt = CDataConversion::GetVerticalPoint(graphRegion, 

  00259	50		 push	 eax
; File C:\Program Files (x86)\Microsoft Visual Studio\2019\Community\VC\Tools\MSVC\14.29.30133\atlmfc\include\afxtempl.h

; 813  : 		rPosition = (POSITION) pNode->pNext;

  0025a	8b 1b		 mov	 ebx, DWORD PTR [ebx]

; 814  : 		return pNode->data; }

  0025c	8d 41 08	 lea	 eax, DWORD PTR [ecx+8]
  0025f	89 b5 38 ff ff
	ff		 mov	 DWORD PTR _closeStartPos$1$[ebp], esi
; File D:\git\src\IBK\IBK_DRFN\ProjSrc\SrcChartEx\ChartOCX\GraphDraw\SelectSubGraph.cpp

; 1157 : 		CPoint curPt = CDataConversion::GetVerticalPoint(graphRegion, 

  00265	50		 push	 eax
  00266	8d 85 28 ff ff
	ff		 lea	 eax, DWORD PTR _dHorzViewMax$[ebp]
  0026c	50		 push	 eax
  0026d	8d 85 20 ff ff
	ff		 lea	 eax, DWORD PTR _dHorzViewMin$[ebp]
  00273	50		 push	 eax
  00274	8d 85 18 ff ff
	ff		 lea	 eax, DWORD PTR _dVertViewMax$[ebp]
  0027a	50		 push	 eax
  0027b	8d 85 10 ff ff
	ff		 lea	 eax, DWORD PTR _dVertViewMin$[ebp]
  00281	50		 push	 eax
  00282	8d 45 a0	 lea	 eax, DWORD PTR _graphRegion$[ebp]
  00285	50		 push	 eax
  00286	8d 85 48 ff ff
	ff		 lea	 eax, DWORD PTR _curPt$3[ebp]
  0028c	50		 push	 eax
  0028d	e8 00 00 00 00	 call	 ?GetVerticalPoint@CDataConversion@@SA?AVCPoint@@ABVCRect@@ABN11111@Z ; CDataConversion::GetVerticalPoint
  00292	83 c4 20	 add	 esp, 32			; 00000020H

; 1158 : 				dVertViewMin, dVertViewMax, dHorzViewMin, dHorzViewMax, 
; 1159 : 				pCloseDataList->GetNext(closeStartPos), pVolumeDataList->GetNext(volumeStartPos));
; 1160 : 		if(bIsInvert)

  00295	80 bd 5b ff ff
	ff 00		 cmp	 BYTE PTR _bIsInvert$1$[ebp], 0
  0029c	74 1c		 je	 SHORT $LN164@PointInInv

; 1161 : 			curPt.y = CDataConversion::InvertGraphDataPt(graphRegion, curPt.y);

  0029e	ff b5 4c ff ff
	ff		 push	 DWORD PTR _curPt$3[ebp+4]
  002a4	8d 45 a0	 lea	 eax, DWORD PTR _graphRegion$[ebp]
  002a7	50		 push	 eax
  002a8	e8 00 00 00 00	 call	 ?InvertGraphDataPt@CDataConversion@@SAHABVCRect@@H@Z ; CDataConversion::InvertGraphDataPt
  002ad	8b f0		 mov	 esi, eax
  002af	83 c4 08	 add	 esp, 8
  002b2	89 b5 4c ff ff
	ff		 mov	 DWORD PTR _curPt$3[ebp+4], esi
  002b8	eb 06		 jmp	 SHORT $LN8@PointInInv
$LN164@PointInInv:

; 1158 : 				dVertViewMin, dVertViewMax, dHorzViewMin, dHorzViewMax, 
; 1159 : 				pCloseDataList->GetNext(closeStartPos), pVolumeDataList->GetNext(volumeStartPos));
; 1160 : 		if(bIsInvert)

  002ba	8b b5 4c ff ff
	ff		 mov	 esi, DWORD PTR _curPt$3[ebp+4]
$LN8@PointInInv:
; File C:\Program Files (x86)\Microsoft Visual Studio\2019\Community\VC\Tools\MSVC\14.29.30133\atlmfc\include\afxwin1.inl

; 70   : 	{ m_hObject = NULL; }

  002c0	c7 85 54 ff ff
	ff 00 00 00 00	 mov	 DWORD PTR _rgn$4[ebp+4], 0

; 264  : 	{ }

  002ca	c7 85 50 ff ff
	ff 00 00 00 00	 mov	 DWORD PTR _rgn$4[ebp], OFFSET ??_7CRgn@@6B@
; File D:\git\src\IBK\IBK_DRFN\ProjSrc\SrcChartEx\ChartOCX\GraphDraw\SelectSubGraph.cpp

; 1164 : 		if(abs(curPt.x - prevPt.x) <= abs(curPt.y - prevPt.y))

  002d4	8b 85 48 ff ff
	ff		 mov	 eax, DWORD PTR _curPt$3[ebp]
  002da	2b 85 40 ff ff
	ff		 sub	 eax, DWORD PTR _prevPt$[ebp]
; File C:\Program Files (x86)\Windows Kits\10\Include\10.0.22000.0\ucrt\stdlib.h

; 365  :         return labs(_X);

  002e0	99		 cdq
  002e1	8b c8		 mov	 ecx, eax
; File D:\git\src\IBK\IBK_DRFN\ProjSrc\SrcChartEx\ChartOCX\GraphDraw\SelectSubGraph.cpp

; 1163 : 		CRgn rgn;

  002e3	c7 45 fc 00 00
	00 00		 mov	 DWORD PTR __$EHRec$[ebp+8], 0
; File C:\Program Files (x86)\Windows Kits\10\Include\10.0.22000.0\ucrt\stdlib.h

; 365  :         return labs(_X);

  002ea	33 ca		 xor	 ecx, edx
; File D:\git\src\IBK\IBK_DRFN\ProjSrc\SrcChartEx\ChartOCX\GraphDraw\SelectSubGraph.cpp

; 1164 : 		if(abs(curPt.x - prevPt.x) <= abs(curPt.y - prevPt.y))

  002ec	8b c6		 mov	 eax, esi
  002ee	2b 85 44 ff ff
	ff		 sub	 eax, DWORD PTR _prevPt$[ebp+4]
; File C:\Program Files (x86)\Windows Kits\10\Include\10.0.22000.0\ucrt\stdlib.h

; 365  :         return labs(_X);

  002f4	2b ca		 sub	 ecx, edx
  002f6	99		 cdq
  002f7	33 c2		 xor	 eax, edx
  002f9	2b c2		 sub	 eax, edx
; File D:\git\src\IBK\IBK_DRFN\ProjSrc\SrcChartEx\ChartOCX\GraphDraw\SelectSubGraph.cpp

; 1164 : 		if(abs(curPt.x - prevPt.x) <= abs(curPt.y - prevPt.y))

  002fb	8b 95 40 ff ff
	ff		 mov	 edx, DWORD PTR _prevPt$[ebp]
  00301	6a 02		 push	 2
  00303	3b c8		 cmp	 ecx, eax
  00305	8b 8d 44 ff ff
	ff		 mov	 ecx, DWORD PTR _prevPt$[ebp+4]
  0030b	6a 04		 push	 4
  0030d	7f 2f		 jg	 SHORT $LN9@PointInInv

; 1165 : 		{
; 1166 : 			CPoint ptArray[4];
; 1167 : 			ptArray[0] = CPoint(prevPt.x - nUnit, prevPt.y);

  0030f	8d 42 f8	 lea	 eax, DWORD PTR [edx-8]
  00312	89 4d d4	 mov	 DWORD PTR _ptArray$8[ebp+4], ecx
  00315	89 45 d0	 mov	 DWORD PTR _ptArray$8[ebp], eax

; 1168 : 			ptArray[1] = CPoint(prevPt.x + nUnit, prevPt.y);

  00318	8d 42 08	 lea	 eax, DWORD PTR [edx+8]
  0031b	89 4d dc	 mov	 DWORD PTR _ptArray$8[ebp+12], ecx

; 1169 : 			ptArray[2] = CPoint(curPt.x + nUnit, curPt.y);

  0031e	8b 8d 48 ff ff
	ff		 mov	 ecx, DWORD PTR _curPt$3[ebp]
  00324	89 45 d8	 mov	 DWORD PTR _ptArray$8[ebp+8], eax
  00327	89 75 e4	 mov	 DWORD PTR _ptArray$8[ebp+20], esi

; 1170 : 			ptArray[3] = CPoint(curPt.x - nUnit, curPt.y);

  0032a	89 75 ec	 mov	 DWORD PTR _ptArray$8[ebp+28], esi
  0032d	8d 41 08	 lea	 eax, DWORD PTR [ecx+8]
  00330	89 45 e0	 mov	 DWORD PTR _ptArray$8[ebp+16], eax
  00333	8d 41 f8	 lea	 eax, DWORD PTR [ecx-8]
  00336	89 45 e8	 mov	 DWORD PTR _ptArray$8[ebp+24], eax
; File C:\Program Files (x86)\Microsoft Visual Studio\2019\Community\VC\Tools\MSVC\14.29.30133\atlmfc\include\afxwin1.inl

; 276  : 	{ return Attach(::CreatePolygonRgn(lpPoints, nCount, nMode)); }

  00339	8d 45 d0	 lea	 eax, DWORD PTR _ptArray$8[ebp]
; File D:\git\src\IBK\IBK_DRFN\ProjSrc\SrcChartEx\ChartOCX\GraphDraw\SelectSubGraph.cpp

; 1172 : 		}

  0033c	eb 2d		 jmp	 SHORT $LN168@PointInInv
$LN9@PointInInv:

; 1173 : 		else
; 1174 : 		{
; 1175 : 			CPoint ptArray[4];
; 1176 : 			ptArray[0] = CPoint(prevPt.x, prevPt.y - nUnit);

  0033e	8d 41 f8	 lea	 eax, DWORD PTR [ecx-8]
  00341	89 55 b0	 mov	 DWORD PTR _ptArray$7[ebp], edx
  00344	89 45 b4	 mov	 DWORD PTR _ptArray$7[ebp+4], eax

; 1177 : 			ptArray[1] = CPoint(prevPt.x, prevPt.y + nUnit);

  00347	8d 41 08	 lea	 eax, DWORD PTR [ecx+8]

; 1178 : 			ptArray[2] = CPoint(curPt.x, curPt.y + nUnit);

  0034a	8b 8d 48 ff ff
	ff		 mov	 ecx, DWORD PTR _curPt$3[ebp]
  00350	89 45 bc	 mov	 DWORD PTR _ptArray$7[ebp+12], eax
  00353	8d 46 08	 lea	 eax, DWORD PTR [esi+8]
  00356	89 45 c4	 mov	 DWORD PTR _ptArray$7[ebp+20], eax

; 1179 : 			ptArray[3] = CPoint(curPt.x, curPt.y - nUnit);

  00359	8d 46 f8	 lea	 eax, DWORD PTR [esi-8]
  0035c	89 45 cc	 mov	 DWORD PTR _ptArray$7[ebp+28], eax
; File C:\Program Files (x86)\Microsoft Visual Studio\2019\Community\VC\Tools\MSVC\14.29.30133\atlmfc\include\afxwin1.inl

; 276  : 	{ return Attach(::CreatePolygonRgn(lpPoints, nCount, nMode)); }

  0035f	8d 45 b0	 lea	 eax, DWORD PTR _ptArray$7[ebp]
; File D:\git\src\IBK\IBK_DRFN\ProjSrc\SrcChartEx\ChartOCX\GraphDraw\SelectSubGraph.cpp

; 1177 : 			ptArray[1] = CPoint(prevPt.x, prevPt.y + nUnit);

  00362	89 55 b8	 mov	 DWORD PTR _ptArray$7[ebp+8], edx

; 1178 : 			ptArray[2] = CPoint(curPt.x, curPt.y + nUnit);

  00365	89 4d c0	 mov	 DWORD PTR _ptArray$7[ebp+16], ecx

; 1179 : 			ptArray[3] = CPoint(curPt.x, curPt.y - nUnit);

  00368	89 4d c8	 mov	 DWORD PTR _ptArray$7[ebp+24], ecx
$LN168@PointInInv:
; File C:\Program Files (x86)\Microsoft Visual Studio\2019\Community\VC\Tools\MSVC\14.29.30133\atlmfc\include\afxwin1.inl

; 308  : 	{ ASSERT(m_hObject != NULL); return ::PtInRegion((HRGN)m_hObject, point.x, point.y); }

  0036b	50		 push	 eax
  0036c	ff 15 00 00 00
	00		 call	 DWORD PTR __imp__CreatePolygonRgn@12
  00372	50		 push	 eax
  00373	8d 8d 50 ff ff
	ff		 lea	 ecx, DWORD PTR _rgn$4[ebp]
  00379	e8 00 00 00 00	 call	 ?Attach@CGdiObject@@QAEHPAX@Z ; CGdiObject::Attach
  0037e	8b b5 34 ff ff
	ff		 mov	 esi, DWORD PTR _point$GSCopy$1$[ebp]
  00384	ff 76 04	 push	 DWORD PTR [esi+4]
  00387	ff 36		 push	 DWORD PTR [esi]
  00389	ff b5 54 ff ff
	ff		 push	 DWORD PTR _rgn$4[ebp+4]
  0038f	ff 15 00 00 00
	00		 call	 DWORD PTR __imp__PtInRegion@12
; File D:\git\src\IBK\IBK_DRFN\ProjSrc\SrcChartEx\ChartOCX\GraphDraw\SelectSubGraph.cpp

; 1182 : 		if(rgn.PtInRegion(point))

  00395	85 c0		 test	 eax, eax
  00397	8b 85 48 ff ff
	ff		 mov	 eax, DWORD PTR _curPt$3[ebp]
  0039d	75 62		 jne	 SHORT $LN131@PointInInv

; 1190 : 		prevPt = curPt;

  0039f	8b 8d 4c ff ff
	ff		 mov	 ecx, DWORD PTR _curPt$3[ebp+4]
  003a5	89 8d 44 ff ff
	ff		 mov	 DWORD PTR _prevPt$[ebp+4], ecx
; File C:\Program Files (x86)\Microsoft Visual Studio\2019\Community\VC\Tools\MSVC\14.29.30133\atlmfc\include\afxwin1.inl

; 266  : 	{ }

  003ab	8d 8d 50 ff ff
	ff		 lea	 ecx, DWORD PTR _rgn$4[ebp]
; File D:\git\src\IBK\IBK_DRFN\ProjSrc\SrcChartEx\ChartOCX\GraphDraw\SelectSubGraph.cpp

; 1190 : 		prevPt = curPt;

  003b1	89 85 40 ff ff
	ff		 mov	 DWORD PTR _prevPt$[ebp], eax

; 1191 : 	}

  003b7	c7 45 fc ff ff
	ff ff		 mov	 DWORD PTR __$EHRec$[ebp+8], -1
; File C:\Program Files (x86)\Microsoft Visual Studio\2019\Community\VC\Tools\MSVC\14.29.30133\atlmfc\include\afxwin1.inl

; 266  : 	{ }

  003be	c7 85 50 ff ff
	ff 00 00 00 00	 mov	 DWORD PTR _rgn$4[ebp], OFFSET ??_7CRgn@@6B@
  003c8	e8 00 00 00 00	 call	 ??1CGdiObject@@UAE@XZ	; CGdiObject::~CGdiObject
; File D:\git\src\IBK\IBK_DRFN\ProjSrc\SrcChartEx\ChartOCX\GraphDraw\SelectSubGraph.cpp

; 1152 : 	for(int nIndex = nStartIndex + 1; nIndex < nDataCount; nIndex++)

  003cd	8b b5 38 ff ff
	ff		 mov	 esi, DWORD PTR _closeStartPos$1$[ebp]
  003d3	47		 inc	 edi
  003d4	3b bd 3c ff ff
	ff		 cmp	 edi, DWORD PTR _nDataCount$1$[ebp]
  003da	0f 8c 60 fe ff
	ff		 jl	 $LL4@PointInInv
$LN7@PointInInv:

; 1192 : 
; 1193 : 	return -1;

  003e0	83 c8 ff	 or	 eax, -1
$LN1@PointInInv:

; 1194 : }

  003e3	8b 4d f4	 mov	 ecx, DWORD PTR __$EHRec$[ebp]
  003e6	64 89 0d 00 00
	00 00		 mov	 DWORD PTR fs:0, ecx
  003ed	59		 pop	 ecx
  003ee	5f		 pop	 edi
  003ef	5e		 pop	 esi
  003f0	5b		 pop	 ebx
  003f1	8b 4d f0	 mov	 ecx, DWORD PTR __$ArrayPad$[ebp]
  003f4	33 cd		 xor	 ecx, ebp
  003f6	e8 00 00 00 00	 call	 @__security_check_cookie@4
  003fb	8b e5		 mov	 esp, ebp
  003fd	5d		 pop	 ebp
  003fe	c2 08 00	 ret	 8
$LN131@PointInInv:

; 1185 : 			if( abs( point.x - prevPt.x) < abs( curPt.x - point.x) || abs( point.y - prevPt.y) < abs( curPt.y - point.y))

  00401	8b 36		 mov	 esi, DWORD PTR [esi]
  00403	2b c6		 sub	 eax, esi
  00405	2b b5 40 ff ff
	ff		 sub	 esi, DWORD PTR _prevPt$[ebp]
; File C:\Program Files (x86)\Windows Kits\10\Include\10.0.22000.0\ucrt\stdlib.h

; 365  :         return labs(_X);

  0040b	99		 cdq
  0040c	8b c8		 mov	 ecx, eax
  0040e	8b c6		 mov	 eax, esi
  00410	33 ca		 xor	 ecx, edx
  00412	2b ca		 sub	 ecx, edx
  00414	99		 cdq
  00415	33 c2		 xor	 eax, edx
  00417	2b c2		 sub	 eax, edx
; File D:\git\src\IBK\IBK_DRFN\ProjSrc\SrcChartEx\ChartOCX\GraphDraw\SelectSubGraph.cpp

; 1185 : 			if( abs( point.x - prevPt.x) < abs( curPt.x - point.x) || abs( point.y - prevPt.y) < abs( curPt.y - point.y))

  00419	3b c1		 cmp	 eax, ecx
  0041b	7c 29		 jl	 SHORT $LN13@PointInInv
  0041d	8b b5 34 ff ff
	ff		 mov	 esi, DWORD PTR _point$GSCopy$1$[ebp]
  00423	8b 85 4c ff ff
	ff		 mov	 eax, DWORD PTR _curPt$3[ebp+4]
  00429	8b 76 04	 mov	 esi, DWORD PTR [esi+4]
  0042c	2b c6		 sub	 eax, esi
  0042e	2b b5 44 ff ff
	ff		 sub	 esi, DWORD PTR _prevPt$[ebp+4]
; File C:\Program Files (x86)\Windows Kits\10\Include\10.0.22000.0\ucrt\stdlib.h

; 365  :         return labs(_X);

  00434	99		 cdq
  00435	8b c8		 mov	 ecx, eax
  00437	8b c6		 mov	 eax, esi
  00439	33 ca		 xor	 ecx, edx
  0043b	2b ca		 sub	 ecx, edx
  0043d	99		 cdq
  0043e	33 c2		 xor	 eax, edx
  00440	2b c2		 sub	 eax, edx
; File D:\git\src\IBK\IBK_DRFN\ProjSrc\SrcChartEx\ChartOCX\GraphDraw\SelectSubGraph.cpp

; 1185 : 			if( abs( point.x - prevPt.x) < abs( curPt.x - point.x) || abs( point.y - prevPt.y) < abs( curPt.y - point.y))

  00442	3b c1		 cmp	 eax, ecx
  00444	7d 01		 jge	 SHORT $LN16@PointInInv
$LN13@PointInInv:

; 1186 : 				return nIndex - 1;

  00446	4f		 dec	 edi
$LN16@PointInInv:
; File C:\Program Files (x86)\Microsoft Visual Studio\2019\Community\VC\Tools\MSVC\14.29.30133\atlmfc\include\afxwin1.inl

; 266  : 	{ }

  00447	8d 8d 50 ff ff
	ff		 lea	 ecx, DWORD PTR _rgn$4[ebp]
  0044d	c7 85 50 ff ff
	ff 00 00 00 00	 mov	 DWORD PTR _rgn$4[ebp], OFFSET ??_7CRgn@@6B@
  00457	e8 00 00 00 00	 call	 ??1CGdiObject@@UAE@XZ	; CGdiObject::~CGdiObject
; File D:\git\src\IBK\IBK_DRFN\ProjSrc\SrcChartEx\ChartOCX\GraphDraw\SelectSubGraph.cpp

; 1188 : 			return nIndex;

  0045c	8b c7		 mov	 eax, edi
  0045e	eb 83		 jmp	 SHORT $LN1@PointInInv
$LN170@PointInInv:
; File C:\Program Files (x86)\Microsoft Visual Studio\2019\Community\VC\Tools\MSVC\14.29.30133\atlmfc\include\afxtempl.h

; 793  : 	{ ENSURE(m_pNodeHead != NULL);

  00460	e8 00 00 00 00	 call	 ?AfxThrowInvalidArgException@@YGXXZ ; AfxThrowInvalidArgException
$LN166@PointInInv:
  00465	cc		 int	 3
_TEXT	ENDS
;	COMDAT text$x
text$x	SEGMENT
__unwindfunclet$?PointInInverseLineGraph@CSelectSubGraph@@AAEHABVCPoint@@PBVCSelectSubGraphData@@@Z$0:
  00000	8d 8d 50 ff ff
	ff		 lea	 ecx, DWORD PTR _rgn$4[ebp]
  00006	e9 00 00 00 00	 jmp	 ??1CRgn@@UAE@XZ		; CRgn::~CRgn
  0000b	cc		 int	 3
  0000c	cc		 int	 3
  0000d	cc		 int	 3
  0000e	cc		 int	 3
  0000f	cc		 int	 3
__ehhandler$?PointInInverseLineGraph@CSelectSubGraph@@AAEHABVCPoint@@PBVCSelectSubGraphData@@@Z:
  00010	90		 npad	 1
  00011	90		 npad	 1
  00012	8b 54 24 08	 mov	 edx, DWORD PTR [esp+8]
  00016	8d 42 0c	 lea	 eax, DWORD PTR [edx+12]
  00019	8b 8a 0c ff ff
	ff		 mov	 ecx, DWORD PTR [edx-244]
  0001f	33 c8		 xor	 ecx, eax
  00021	e8 00 00 00 00	 call	 @__security_check_cookie@4
  00026	8b 4a fc	 mov	 ecx, DWORD PTR [edx-4]
  00029	33 c8		 xor	 ecx, eax
  0002b	e8 00 00 00 00	 call	 @__security_check_cookie@4
  00030	b8 00 00 00 00	 mov	 eax, OFFSET __ehfuncinfo$?PointInInverseLineGraph@CSelectSubGraph@@AAEHABVCPoint@@PBVCSelectSubGraphData@@@Z
  00035	e9 00 00 00 00	 jmp	 ___CxxFrameHandler3
text$x	ENDS
?PointInInverseLineGraph@CSelectSubGraph@@AAEHABVCPoint@@PBVCSelectSubGraphData@@@Z ENDP ; CSelectSubGraph::PointInInverseLineGraph
; Function compile flags: /Ogtp
; File D:\git\src\IBK\IBK_DRFN\ProjSrc\SrcChartEx\ChartOCX\GraphDraw\SelectSubGraph.cpp
; File C:\Program Files (x86)\Microsoft Visual Studio\2019\Community\VC\Tools\MSVC\14.29.30133\atlmfc\include\afxtempl.h
; File D:\git\src\IBK\IBK_DRFN\ProjSrc\SrcChartEx\ChartOCX\GraphDraw\SelectSubGraph.cpp
; File D:\git\src\IBK\IBK_DRFN\ProjSrc\SrcChartEx\ChartOCX\Include_Chart\BlockBaseData.h
; File D:\git\src\IBK\IBK_DRFN\ProjSrc\SrcChartEx\ChartOCX\GraphDraw\SelectSubGraph.cpp
; File D:\git\src\IBK\IBK_DRFN\ProjSrc\SrcChartEx\ChartOCX\Include_Chart\Dll_Load\XScaleManager.h
; File D:\git\src\IBK\IBK_DRFN\ProjSrc\SrcChartEx\ChartOCX\GraphDraw\SelectSubGraph.cpp
; File C:\Program Files (x86)\Microsoft Visual Studio\2019\Community\VC\Tools\MSVC\14.29.30133\atlmfc\include\atltypes.h
; File D:\git\src\IBK\IBK_DRFN\ProjSrc\SrcChartEx\ChartOCX\GraphDraw\SelectSubGraph.cpp
;	COMDAT ?PointInThreeLineBreakGraph@CSelectSubGraph@@AAEHABVCPoint@@PBVCSelectSubGraphData@@@Z
_TEXT	SEGMENT
$T1 = -232						; size = 16
$T2 = -232						; size = 16
$T3 = -216						; size = 16
$T4 = -216						; size = 16
_closePt$ = -200					; size = 8
_openPt$ = -192						; size = 8
_viewDataMax$ = -184					; size = 8
_realWidth$ = -176					; size = 8
_viewDataMin$ = -168					; size = 8
$T5 = -160						; size = 8
$T6 = -160						; size = 8
$T7 = -152						; size = 8
$T8 = -152						; size = 8
_nCol$ = -144						; size = 4
_area$ = -140						; size = 6
_point$GSCopy$1$ = -132					; size = 4
_pClosePacket$1$ = -128					; size = 4
_nIndex$1$ = -124					; size = 4
$T9 = -124						; size = 4
_this$GSCopy$1$ = -120					; size = 4
_closePos$1$ = -116					; size = 4
_dataEnd$1$ = -116					; size = 4
_dataIndex$ = -112					; size = 4
_openPos$1$ = -108					; size = 4
_pageDataCount$1$ = -108				; size = 4
$T10 = -104						; size = 68
_graphRegion$ = -36					; size = 16
_drawingRegion$ = -20					; size = 16
$T11 = -20						; size = 16
$T12 = -20						; size = 16
$T13 = -12						; size = 8
$T14 = -12						; size = 8
__$ArrayPad$ = -4					; size = 4
_point$ = 8						; size = 4
_pSelectSubGraphData$ = 12				; size = 4
?PointInThreeLineBreakGraph@CSelectSubGraph@@AAEHABVCPoint@@PBVCSelectSubGraphData@@@Z PROC ; CSelectSubGraph::PointInThreeLineBreakGraph, COMDAT
; _this$ = ecx

; 1047 : {

  00000	55		 push	 ebp
  00001	8b ec		 mov	 ebp, esp
  00003	81 ec e8 00 00
	00		 sub	 esp, 232		; 000000e8H
  00009	a1 00 00 00 00	 mov	 eax, DWORD PTR ___security_cookie
  0000e	33 c5		 xor	 eax, ebp
  00010	89 45 fc	 mov	 DWORD PTR __$ArrayPad$[ebp], eax
  00013	53		 push	 ebx
  00014	8b 5d 0c	 mov	 ebx, DWORD PTR _pSelectSubGraphData$[ebp]
  00017	56		 push	 esi
  00018	8b 75 08	 mov	 esi, DWORD PTR _point$[ebp]
  0001b	89 4d 88	 mov	 DWORD PTR _this$GSCopy$1$[ebp], ecx

; 1048 : 	const CList< CPacket *, CPacket *> &packetList = pSelectSubGraphData->GetSubGraphPacketList()->GetSubGraphPacketList();

  0001e	8b cb		 mov	 ecx, ebx
  00020	57		 push	 edi
  00021	89 b5 7c ff ff
	ff		 mov	 DWORD PTR _point$GSCopy$1$[ebp], esi
  00027	e8 00 00 00 00	 call	 ?GetSubGraphPacketList@CSelectSubGraphData@@QBEPAVCSubGraphPacketList@@XZ ; CSelectSubGraphData::GetSubGraphPacketList
  0002c	8b c8		 mov	 ecx, eax
  0002e	e8 00 00 00 00	 call	 ?GetSubGraphPacketList@CSubGraphPacketList@@QBEABV?$CList@PAVCPacket@@PAV1@@@XZ ; CSubGraphPacketList::GetSubGraphPacketList

; 1049 : 	if(packetList.GetCount() <= 0)

  00033	83 78 0c 00	 cmp	 DWORD PTR [eax+12], 0
  00037	0f 8e 4e 04 00
	00		 jle	 $LN5@PointInThr

; 1050 : 		return -1;
; 1051 : 
; 1052 : 	POSITION pos = packetList.GetHeadPosition();

  0003d	8b 40 04	 mov	 eax, DWORD PTR [eax+4]

; 1053 : 	if(pos == NULL)	return -1;

  00040	85 c0		 test	 eax, eax
  00042	0f 84 43 04 00
	00		 je	 $LN5@PointInThr

; 1054 : 	
; 1055 : 	CPacket* pOpenPacket = packetList.GetNext(pos);

  00048	8b 78 08	 mov	 edi, DWORD PTR [eax+8]

; 1057 : 
; 1058 : 	if(pOpenPacket == NULL || pClosePacket == NULL)

  0004b	85 ff		 test	 edi, edi
  0004d	0f 84 38 04 00
	00		 je	 $LN5@PointInThr
; File C:\Program Files (x86)\Microsoft Visual Studio\2019\Community\VC\Tools\MSVC\14.29.30133\atlmfc\include\afxtempl.h

; 819  : 		rPosition = (POSITION) pNode->pNext;

  00053	8b 00		 mov	 eax, DWORD PTR [eax]
; File D:\git\src\IBK\IBK_DRFN\ProjSrc\SrcChartEx\ChartOCX\GraphDraw\SelectSubGraph.cpp

; 1056 : 	CPacket* pClosePacket = packetList.GetNext(pos);

  00055	8b 40 08	 mov	 eax, DWORD PTR [eax+8]
  00058	89 45 80	 mov	 DWORD PTR _pClosePacket$1$[ebp], eax

; 1057 : 
; 1058 : 	if(pOpenPacket == NULL || pClosePacket == NULL)

  0005b	85 c0		 test	 eax, eax
  0005d	0f 84 28 04 00
	00		 je	 $LN5@PointInThr

; 1062 : 	int dataEnd = pOpenPacket->GetCount() -1;

  00063	8b 07		 mov	 eax, DWORD PTR [edi]
  00065	8b cf		 mov	 ecx, edi
  00067	ff 50 14	 call	 DWORD PTR [eax+20]
  0006a	48		 dec	 eax
; File D:\git\src\IBK\IBK_DRFN\ProjSrc\SrcChartEx\ChartOCX\Include_Chart\BlockBaseData.h

; 43   : 	CGraphStyle(const int style) { m_nStyle = style; };

  0006b	c7 45 84 ff ff
	ff ff		 mov	 DWORD PTR $T9[ebp], -1
; File D:\git\src\IBK\IBK_DRFN\ProjSrc\SrcChartEx\ChartOCX\GraphDraw\SelectSubGraph.cpp

; 1062 : 	int dataEnd = pOpenPacket->GetCount() -1;

  00072	89 45 8c	 mov	 DWORD PTR _dataEnd$1$[ebp], eax

; 1063 : 	int pageDataCount = dataEnd - dataStart + 1;
; 1064 : 
; 1065 : 	CRect graphRegion = pSelectSubGraphData->GetGraphRegions().GetDrawingRegion();

  00075	8b cb		 mov	 ecx, ebx
  00077	40		 inc	 eax
  00078	89 45 94	 mov	 DWORD PTR _pageDataCount$1$[ebp], eax
  0007b	8d 45 84	 lea	 eax, DWORD PTR $T9[ebp]
  0007e	50		 push	 eax
  0007f	6a ff		 push	 -1
  00081	8d 45 dc	 lea	 eax, DWORD PTR _graphRegion$[ebp]
  00084	50		 push	 eax
  00085	8d 45 98	 lea	 eax, DWORD PTR $T10[ebp]
  00088	50		 push	 eax
  00089	e8 00 00 00 00	 call	 ?GetGraphRegions@CSelectSubGraphData@@QBE?AVCGraphRegions@@XZ ; CSelectSubGraphData::GetGraphRegions
  0008e	8b c8		 mov	 ecx, eax
  00090	e8 00 00 00 00	 call	 ?GetDrawingRegion@CGraphRegions@@QBE?AVCRect@@W4GRAPHTYPE@CGraphBaseData@@ABVCGraphStyle@@@Z ; CGraphRegions::GetDrawingRegion

; 1066 : 	int dataIndex = 0;
; 1067 : 	int nRealCount = pOpenPacket->GetCount();

  00095	8b 07		 mov	 eax, DWORD PTR [edi]
  00097	8b cf		 mov	 ecx, edi
  00099	ff 50 14	 call	 DWORD PTR [eax+20]

; 1068 : 	dataIndex = GetDataIndex(graphRegion, point, dataStart, dataEnd, pageDataCount); 

  0009c	0f 10 45 dc	 movups	 xmm0, XMMWORD PTR _graphRegion$[ebp]
  000a0	8b 0e		 mov	 ecx, DWORD PTR [esi]
  000a2	0f 11 45 ec	 movups	 XMMWORD PTR _drawingRegion$[ebp], xmm0
  000a6	66 0f 73 d8 08	 psrldq	 xmm0, 8
  000ab	66 0f 7e c0	 movd	 eax, xmm0
  000af	3b c1		 cmp	 eax, ecx

; 1288 : 	if(drawingRegion.right <= point.x)

  000b1	0f 8e d4 03 00
	00		 jle	 $LN5@PointInThr

; 1289 : 		return -1;
; 1290 : 	int index = CDataConversion::AbsoluteToRelative_X(drawingRegion, point.x, pageDataCount);

  000b7	ff 75 94	 push	 DWORD PTR _pageDataCount$1$[ebp]
  000ba	8d 45 ec	 lea	 eax, DWORD PTR _drawingRegion$[ebp]
  000bd	51		 push	 ecx
  000be	50		 push	 eax
  000bf	e8 00 00 00 00	 call	 ?AbsoluteToRelative_X@CDataConversion@@SAHABVCRect@@HH@Z ; CDataConversion::AbsoluteToRelative_X

; 1291 : 	if(index >= 0)
; 1292 : 		index = dataStart + index;
; 1293 : 	if(index > dataEnd)

  000c4	8b 75 8c	 mov	 esi, DWORD PTR _dataEnd$1$[ebp]
  000c7	83 c4 0c	 add	 esp, 12			; 0000000cH
  000ca	3b c6		 cmp	 eax, esi
  000cc	0f 8f b9 03 00
	00		 jg	 $LN5@PointInThr

; 1068 : 	dataIndex = GetDataIndex(graphRegion, point, dataStart, dataEnd, pageDataCount); 

  000d2	89 45 90	 mov	 DWORD PTR _dataIndex$[ebp], eax
  000d5	83 f8 ff	 cmp	 eax, -1

; 1069 : 
; 1070 : 	if(dataIndex == -1)

  000d8	0f 84 ad 03 00
	00		 je	 $LN5@PointInThr

; 1071 : 		return -1;
; 1072 : 	 
; 1073 : 	POSITION dataPos = pOpenPacket->GetnumericDataList()->FindIndex(dataIndex);

  000de	50		 push	 eax
  000df	8b cf		 mov	 ecx, edi
  000e1	ff 15 00 00 00
	00		 call	 DWORD PTR __imp_?GetnumericDataList@CPacket@@QAEPAV?$CList@NN@@XZ
  000e7	8b c8		 mov	 ecx, eax
  000e9	e8 00 00 00 00	 call	 ?FindIndex@?$CList@NN@@QBEPAU__POSITION@@H@Z ; CList<double,double>::FindIndex

; 1074 : 	if(dataPos == NULL) 

  000ee	85 c0		 test	 eax, eax
  000f0	0f 84 95 03 00
	00		 je	 $LN5@PointInThr

; 1075 : 		return -1;
; 1076 : 
; 1077 : 	double realWidth = CDraw::CalRealWidth(graphRegion, dataStart, dataEnd);

  000f6	56		 push	 esi
  000f7	8b 75 88	 mov	 esi, DWORD PTR _this$GSCopy$1$[ebp]
  000fa	8d 45 dc	 lea	 eax, DWORD PTR _graphRegion$[ebp]
  000fd	6a 00		 push	 0
  000ff	50		 push	 eax
  00100	8b ce		 mov	 ecx, esi
  00102	e8 00 00 00 00	 call	 ?CalRealWidth@CDraw@@IAENABVCRect@@HH@Z ; CDraw::CalRealWidth

; 1078 : 	double dataViewMin = CDraw::CalLogValue(pSelectSubGraphData->GetVertScaleLogType(), pSelectSubGraphData->GetDisplayDataVertMinMax().GetDisplayMin());

  00107	8d 45 ec	 lea	 eax, DWORD PTR $T12[ebp]
  0010a	dd d8		 fstp	 ST(0)
  0010c	50		 push	 eax
  0010d	8b cb		 mov	 ecx, ebx
  0010f	e8 00 00 00 00	 call	 ?GetDisplayDataVertMinMax@CSelectSubGraphData@@QBE?AVCDisplayDataMinMax@@XZ ; CSelectSubGraphData::GetDisplayDataVertMinMax
  00114	8b c8		 mov	 ecx, eax
  00116	ff 15 00 00 00
	00		 call	 DWORD PTR __imp_?GetDisplayMin@CDisplayDataMinMax@@QBENXZ
  0011c	83 ec 08	 sub	 esp, 8
  0011f	8b cb		 mov	 ecx, ebx
  00121	dd 1c 24	 fstp	 QWORD PTR [esp]
  00124	e8 00 00 00 00	 call	 ?GetVertScaleLogType@CSelectSubGraphData@@QBE_NXZ ; CSelectSubGraphData::GetVertScaleLogType
  00129	0f b6 c0	 movzx	 eax, al
  0012c	8b ce		 mov	 ecx, esi
  0012e	50		 push	 eax
  0012f	e8 00 00 00 00	 call	 ?CalLogValue@CDraw@@IAEN_NN@Z ; CDraw::CalLogValue

; 1079 : 	double dataViewMax = CDraw::CalLogValue(pSelectSubGraphData->GetVertScaleLogType(), pSelectSubGraphData->GetDisplayDataVertMinMax().GetDisplayMax());

  00134	8d 45 ec	 lea	 eax, DWORD PTR $T11[ebp]
  00137	dd d8		 fstp	 ST(0)
  00139	50		 push	 eax
  0013a	8b cb		 mov	 ecx, ebx
  0013c	e8 00 00 00 00	 call	 ?GetDisplayDataVertMinMax@CSelectSubGraphData@@QBE?AVCDisplayDataMinMax@@XZ ; CSelectSubGraphData::GetDisplayDataVertMinMax
  00141	8b c8		 mov	 ecx, eax
  00143	ff 15 00 00 00
	00		 call	 DWORD PTR __imp_?GetDisplayMax@CDisplayDataMinMax@@QBENXZ
  00149	83 ec 08	 sub	 esp, 8
  0014c	8b cb		 mov	 ecx, ebx
  0014e	dd 1c 24	 fstp	 QWORD PTR [esp]
  00151	e8 00 00 00 00	 call	 ?GetVertScaleLogType@CSelectSubGraphData@@QBE_NXZ ; CSelectSubGraphData::GetVertScaleLogType
  00156	0f b6 c0	 movzx	 eax, al
  00159	8b ce		 mov	 ecx, esi
  0015b	50		 push	 eax
  0015c	e8 00 00 00 00	 call	 ?CalLogValue@CDraw@@IAEN_NN@Z ; CDraw::CalLogValue

; 1321 : 	if(dataIndex < dataStart)

  00161	8b 45 90	 mov	 eax, DWORD PTR _dataIndex$[ebp]
  00164	33 c9		 xor	 ecx, ecx
  00166	85 c0		 test	 eax, eax

; 1080 : 	int nIndex = GetIndex(dataIndex, dataStart);
; 1081 : 
; 1082 : 	// Graph Drawing     - ojtaso (20080124)
; 1083 : 	int nCol = 0;

  00168	89 8d 70 ff ff
	ff		 mov	 DWORD PTR _nCol$[ebp], ecx
  0016e	dd d8		 fstp	 ST(0)

; 1321 : 	if(dataIndex < dataStart)

  00170	0f 48 c1	 cmovs	 eax, ecx

; 1085 : 	pSelectSubGraphData->GetXScaleManager()->GetDTInAREAfRQnPt(pSelectSubGraphData->GetRQ(), point.x, nCol, &dataIndex, &area);

  00173	8b cb		 mov	 ecx, ebx

; 1321 : 	if(dataIndex < dataStart)

  00175	89 45 84	 mov	 DWORD PTR _nIndex$1$[ebp], eax
; File D:\git\src\IBK\IBK_DRFN\ProjSrc\SrcChartEx\ChartOCX\Include_Chart\Dll_Load\XScaleManager.h

; 67   : 			left = center = right = 0;

  00178	33 c0		 xor	 eax, eax
  0017a	89 85 76 ff ff
	ff		 mov	 DWORD PTR _area$[ebp+2], eax
  00180	66 89 85 74 ff
	ff ff		 mov	 WORD PTR _area$[ebp], ax
; File D:\git\src\IBK\IBK_DRFN\ProjSrc\SrcChartEx\ChartOCX\GraphDraw\SelectSubGraph.cpp

; 1085 : 	pSelectSubGraphData->GetXScaleManager()->GetDTInAREAfRQnPt(pSelectSubGraphData->GetRQ(), point.x, nCol, &dataIndex, &area);

  00187	e8 00 00 00 00	 call	 ?GetXScaleManager@CSelectSubGraphData@@QBEPAVCXScaleManager@@XZ ; CSelectSubGraphData::GetXScaleManager
  0018c	6a 00		 push	 0
  0018e	8b f0		 mov	 esi, eax
  00190	8d 85 74 ff ff
	ff		 lea	 eax, DWORD PTR _area$[ebp]
  00196	50		 push	 eax
  00197	8d 45 90	 lea	 eax, DWORD PTR _dataIndex$[ebp]
  0019a	50		 push	 eax
  0019b	8d 85 70 ff ff
	ff		 lea	 eax, DWORD PTR _nCol$[ebp]
  001a1	50		 push	 eax
  001a2	8b 85 7c ff ff
	ff		 mov	 eax, DWORD PTR _point$GSCopy$1$[ebp]
  001a8	ff 30		 push	 DWORD PTR [eax]
  001aa	51		 push	 ecx
  001ab	54		 push	 esp
  001ac	8b cb		 mov	 ecx, ebx
  001ae	e8 00 00 00 00	 call	 ?GetRQ@CSelectSubGraphData@@QBE?AV?$CStringT@DV?$StrTraitMFC_DLL@DV?$ChTraitsCRT@D@ATL@@@@@ATL@@XZ ; CSelectSubGraphData::GetRQ
  001b3	8b 06		 mov	 eax, DWORD PTR [esi]
  001b5	8b ce		 mov	 ecx, esi
  001b7	ff 90 34 01 00
	00		 call	 DWORD PTR [eax+308]
; File C:\Program Files (x86)\Microsoft Visual Studio\2019\Community\VC\Tools\MSVC\14.29.30133\atlmfc\include\atltypes.h

; 576  : 	return right - left;

  001bd	8b 45 e4	 mov	 eax, DWORD PTR _graphRegion$[ebp+8]
  001c0	2b 45 dc	 sub	 eax, DWORD PTR _graphRegion$[ebp]
  001c3	66 0f 6e 45 94	 movd	 xmm0, DWORD PTR _pageDataCount$1$[ebp]
; File D:\git\src\IBK\IBK_DRFN\ProjSrc\SrcChartEx\ChartOCX\GraphDraw\SelectSubGraph.cpp

; 1090 : 	realWidth = (double)graphRegion.Width()/(double)pageDataCount;

  001c8	f3 0f e6 c0	 cvtdq2pd xmm0, xmm0

; 1091 : 	double viewDataMin = 0.0, viewDataMax = 0;
; 1092 : 	pOpenPacket->GetMinMax(0, pOpenPacket->GetCount(), viewDataMin, viewDataMax);

  001cc	6a 00		 push	 0
  001ce	66 0f 6e c8	 movd	 xmm1, eax
  001d2	8d 85 48 ff ff
	ff		 lea	 eax, DWORD PTR _viewDataMax$[ebp]
  001d8	f3 0f e6 c9	 cvtdq2pd xmm1, xmm1
  001dc	50		 push	 eax
  001dd	8d 85 58 ff ff
	ff		 lea	 eax, DWORD PTR _viewDataMin$[ebp]
  001e3	f2 0f 5e c8	 divsd	 xmm1, xmm0
  001e7	0f 57 c0	 xorps	 xmm0, xmm0
  001ea	f2 0f 11 8d 50
	ff ff ff	 movsd	 QWORD PTR _realWidth$[ebp], xmm1
  001f2	f2 0f 11 85 58
	ff ff ff	 movsd	 QWORD PTR _viewDataMin$[ebp], xmm0
  001fa	f2 0f 11 85 48
	ff ff ff	 movsd	 QWORD PTR _viewDataMax$[ebp], xmm0
  00202	50		 push	 eax
  00203	8b 07		 mov	 eax, DWORD PTR [edi]
  00205	8b cf		 mov	 ecx, edi
  00207	ff 50 14	 call	 DWORD PTR [eax+20]
  0020a	50		 push	 eax
  0020b	6a 00		 push	 0
  0020d	8b cf		 mov	 ecx, edi
  0020f	ff 15 00 00 00
	00		 call	 DWORD PTR __imp_?GetMinMax@CPacket@@QAEHHHAAN0H@Z

; 1093 : 	viewDataMin = 0.0;
; 1094 : 
; 1095 : 	POSITION openPos = pOpenPacket->GetnumericDataList()->FindIndex(dataIndex);

  00215	ff 75 90	 push	 DWORD PTR _dataIndex$[ebp]
  00218	8b 35 00 00 00
	00		 mov	 esi, DWORD PTR __imp_?GetnumericDataList@CPacket@@QAEPAV?$CList@NN@@XZ
  0021e	0f 57 c0	 xorps	 xmm0, xmm0
  00221	8b cf		 mov	 ecx, edi
  00223	f2 0f 11 85 58
	ff ff ff	 movsd	 QWORD PTR _viewDataMin$[ebp], xmm0
  0022b	ff d6		 call	 esi
  0022d	8b c8		 mov	 ecx, eax
  0022f	e8 00 00 00 00	 call	 ?FindIndex@?$CList@NN@@QBEPAU__POSITION@@H@Z ; CList<double,double>::FindIndex

; 1096 : 	POSITION closePos = pClosePacket->GetnumericDataList()->FindIndex(dataIndex);

  00234	ff 75 90	 push	 DWORD PTR _dataIndex$[ebp]
  00237	8b 4d 80	 mov	 ecx, DWORD PTR _pClosePacket$1$[ebp]
  0023a	89 45 94	 mov	 DWORD PTR _openPos$1$[ebp], eax
  0023d	ff d6		 call	 esi
  0023f	8b c8		 mov	 ecx, eax
  00241	e8 00 00 00 00	 call	 ?FindIndex@?$CList@NN@@QBEPAU__POSITION@@H@Z ; CList<double,double>::FindIndex

; 1097 : 	
; 1098 : 	if(openPos == NULL || closePos == NULL) 

  00246	83 7d 94 00	 cmp	 DWORD PTR _openPos$1$[ebp], 0
  0024a	89 45 8c	 mov	 DWORD PTR _closePos$1$[ebp], eax
  0024d	0f 84 38 02 00
	00		 je	 $LN5@PointInThr
  00253	85 c0		 test	 eax, eax
  00255	0f 84 30 02 00
	00		 je	 $LN5@PointInThr

; 1099 : 		return -1;
; 1100 : 
; 1101 : 	double dOpen = CDraw::CalLogValue(pSelectSubGraphData->GetVertScaleLogType(), pOpenPacket->GetnumericDataList()->GetAt(openPos));

  0025b	8b cf		 mov	 ecx, edi
  0025d	ff d6		 call	 esi
  0025f	8b 45 94	 mov	 eax, DWORD PTR _openPos$1$[ebp]
  00262	83 ec 08	 sub	 esp, 8
  00265	8b cb		 mov	 ecx, ebx
  00267	f2 0f 10 40 08	 movsd	 xmm0, QWORD PTR [eax+8]
  0026c	f2 0f 11 04 24	 movsd	 QWORD PTR [esp], xmm0
  00271	e8 00 00 00 00	 call	 ?GetVertScaleLogType@CSelectSubGraphData@@QBE_NXZ ; CSelectSubGraphData::GetVertScaleLogType
  00276	8b 4d 88	 mov	 ecx, DWORD PTR _this$GSCopy$1$[ebp]
  00279	0f b6 c0	 movzx	 eax, al
  0027c	50		 push	 eax
  0027d	e8 00 00 00 00	 call	 ?CalLogValue@CDraw@@IAEN_NN@Z ; CDraw::CalLogValue

; 1102 : 	double dClose = CDraw::CalLogValue(pSelectSubGraphData->GetVertScaleLogType(), pClosePacket->GetnumericDataList()->GetAt(closePos));

  00282	8b 4d 80	 mov	 ecx, DWORD PTR _pClosePacket$1$[ebp]
  00285	dd d8		 fstp	 ST(0)
  00287	ff d6		 call	 esi
  00289	8b 45 8c	 mov	 eax, DWORD PTR _closePos$1$[ebp]
  0028c	83 ec 08	 sub	 esp, 8
  0028f	8b cb		 mov	 ecx, ebx
  00291	f2 0f 10 40 08	 movsd	 xmm0, QWORD PTR [eax+8]
  00296	f2 0f 11 04 24	 movsd	 QWORD PTR [esp], xmm0
  0029b	e8 00 00 00 00	 call	 ?GetVertScaleLogType@CSelectSubGraphData@@QBE_NXZ ; CSelectSubGraphData::GetVertScaleLogType
  002a0	8b 4d 88	 mov	 ecx, DWORD PTR _this$GSCopy$1$[ebp]
  002a3	0f b6 c0	 movzx	 eax, al
  002a6	50		 push	 eax
  002a7	e8 00 00 00 00	 call	 ?CalLogValue@CDraw@@IAEN_NN@Z ; CDraw::CalLogValue

; 1103 : 
; 1104 : 	CPoint openPt = CDataConversion::GetVerticalPoint(graphRegion, nIndex, realWidth, CDraw::CalLogValue(pSelectSubGraphData->GetVertScaleLogType(), pSelectSubGraphData->GetDisplayDataVertMinMax().GetDisplayMin()), CDraw::CalLogValue(pSelectSubGraphData->GetVertScaleLogType(), pSelectSubGraphData->GetDisplayDataVertMinMax().GetDisplayMax()), CDraw::CalLogValue(pSelectSubGraphData->GetVertScaleLogType(), pOpenPacket->GetnumericDataList()->GetNext(openPos)), false);

  002ac	8b cf		 mov	 ecx, edi
  002ae	dd d8		 fstp	 ST(0)
  002b0	ff d6		 call	 esi
  002b2	8b 45 94	 mov	 eax, DWORD PTR _openPos$1$[ebp]
  002b5	83 ec 08	 sub	 esp, 8
  002b8	8b cb		 mov	 ecx, ebx
  002ba	f2 0f 10 40 08	 movsd	 xmm0, QWORD PTR [eax+8]
  002bf	f2 0f 11 04 24	 movsd	 QWORD PTR [esp], xmm0
  002c4	e8 00 00 00 00	 call	 ?GetVertScaleLogType@CSelectSubGraphData@@QBE_NXZ ; CSelectSubGraphData::GetVertScaleLogType
  002c9	8b 7d 88	 mov	 edi, DWORD PTR _this$GSCopy$1$[ebp]
  002cc	8b cf		 mov	 ecx, edi
  002ce	0f b6 c0	 movzx	 eax, al
  002d1	50		 push	 eax
  002d2	e8 00 00 00 00	 call	 ?CalLogValue@CDraw@@IAEN_NN@Z ; CDraw::CalLogValue
  002d7	8d 85 28 ff ff
	ff		 lea	 eax, DWORD PTR $T4[ebp]
  002dd	8b cb		 mov	 ecx, ebx
  002df	50		 push	 eax
  002e0	dd 9d 68 ff ff
	ff		 fstp	 QWORD PTR $T8[ebp]
  002e6	e8 00 00 00 00	 call	 ?GetDisplayDataVertMinMax@CSelectSubGraphData@@QBE?AVCDisplayDataMinMax@@XZ ; CSelectSubGraphData::GetDisplayDataVertMinMax
  002eb	8b c8		 mov	 ecx, eax
  002ed	ff 15 00 00 00
	00		 call	 DWORD PTR __imp_?GetDisplayMax@CDisplayDataMinMax@@QBENXZ
  002f3	83 ec 08	 sub	 esp, 8
  002f6	8b cb		 mov	 ecx, ebx
  002f8	dd 1c 24	 fstp	 QWORD PTR [esp]
  002fb	e8 00 00 00 00	 call	 ?GetVertScaleLogType@CSelectSubGraphData@@QBE_NXZ ; CSelectSubGraphData::GetVertScaleLogType
  00300	0f b6 c0	 movzx	 eax, al
  00303	8b cf		 mov	 ecx, edi
  00305	50		 push	 eax
  00306	e8 00 00 00 00	 call	 ?CalLogValue@CDraw@@IAEN_NN@Z ; CDraw::CalLogValue
  0030b	8d 85 18 ff ff
	ff		 lea	 eax, DWORD PTR $T2[ebp]
  00311	8b cb		 mov	 ecx, ebx
  00313	50		 push	 eax
  00314	dd 9d 60 ff ff
	ff		 fstp	 QWORD PTR $T6[ebp]
  0031a	e8 00 00 00 00	 call	 ?GetDisplayDataVertMinMax@CSelectSubGraphData@@QBE?AVCDisplayDataMinMax@@XZ ; CSelectSubGraphData::GetDisplayDataVertMinMax
  0031f	8b c8		 mov	 ecx, eax
  00321	ff 15 00 00 00
	00		 call	 DWORD PTR __imp_?GetDisplayMin@CDisplayDataMinMax@@QBENXZ
  00327	83 ec 08	 sub	 esp, 8
  0032a	8b cb		 mov	 ecx, ebx
  0032c	dd 1c 24	 fstp	 QWORD PTR [esp]
  0032f	e8 00 00 00 00	 call	 ?GetVertScaleLogType@CSelectSubGraphData@@QBE_NXZ ; CSelectSubGraphData::GetVertScaleLogType
  00334	0f b6 c0	 movzx	 eax, al
  00337	8b cf		 mov	 ecx, edi
  00339	50		 push	 eax
  0033a	e8 00 00 00 00	 call	 ?CalLogValue@CDraw@@IAEN_NN@Z ; CDraw::CalLogValue
  0033f	6a 00		 push	 0
  00341	8d 85 68 ff ff
	ff		 lea	 eax, DWORD PTR $T8[ebp]
  00347	50		 push	 eax
  00348	8d 85 60 ff ff
	ff		 lea	 eax, DWORD PTR $T6[ebp]
  0034e	50		 push	 eax
  0034f	8d 45 f4	 lea	 eax, DWORD PTR $T14[ebp]
  00352	50		 push	 eax
  00353	8d 85 50 ff ff
	ff		 lea	 eax, DWORD PTR _realWidth$[ebp]
  00359	50		 push	 eax
  0035a	ff 75 84	 push	 DWORD PTR _nIndex$1$[ebp]
  0035d	dd 5d f4	 fstp	 QWORD PTR $T14[ebp]
  00360	8d 45 dc	 lea	 eax, DWORD PTR _graphRegion$[ebp]
  00363	50		 push	 eax
  00364	8d 85 40 ff ff
	ff		 lea	 eax, DWORD PTR _openPt$[ebp]
  0036a	50		 push	 eax
  0036b	e8 00 00 00 00	 call	 ?GetVerticalPoint@CDataConversion@@SA?AVCPoint@@ABVCRect@@HABN111_N@Z ; CDataConversion::GetVerticalPoint

; 1105 : 	CPoint closePt = CDataConversion::GetVerticalPoint(graphRegion, nIndex+1, realWidth, CDraw::CalLogValue(pSelectSubGraphData->GetVertScaleLogType(), pSelectSubGraphData->GetDisplayDataVertMinMax().GetDisplayMin()), CDraw::CalLogValue(pSelectSubGraphData->GetVertScaleLogType(), pSelectSubGraphData->GetDisplayDataVertMinMax().GetDisplayMax()), CDraw::CalLogValue(pSelectSubGraphData->GetVertScaleLogType(), pClosePacket->GetnumericDataList()->GetNext(closePos)), false);

  00370	8b 4d 80	 mov	 ecx, DWORD PTR _pClosePacket$1$[ebp]
  00373	83 c4 20	 add	 esp, 32			; 00000020H
  00376	ff d6		 call	 esi
  00378	8b 45 8c	 mov	 eax, DWORD PTR _closePos$1$[ebp]
  0037b	83 ec 08	 sub	 esp, 8
  0037e	8b cb		 mov	 ecx, ebx
  00380	f2 0f 10 40 08	 movsd	 xmm0, QWORD PTR [eax+8]
  00385	f2 0f 11 04 24	 movsd	 QWORD PTR [esp], xmm0
  0038a	e8 00 00 00 00	 call	 ?GetVertScaleLogType@CSelectSubGraphData@@QBE_NXZ ; CSelectSubGraphData::GetVertScaleLogType
  0038f	0f b6 c0	 movzx	 eax, al
  00392	8b cf		 mov	 ecx, edi
  00394	50		 push	 eax
  00395	e8 00 00 00 00	 call	 ?CalLogValue@CDraw@@IAEN_NN@Z ; CDraw::CalLogValue
  0039a	8d 85 18 ff ff
	ff		 lea	 eax, DWORD PTR $T1[ebp]
  003a0	8b cb		 mov	 ecx, ebx
  003a2	50		 push	 eax
  003a3	dd 5d f4	 fstp	 QWORD PTR $T13[ebp]
  003a6	e8 00 00 00 00	 call	 ?GetDisplayDataVertMinMax@CSelectSubGraphData@@QBE?AVCDisplayDataMinMax@@XZ ; CSelectSubGraphData::GetDisplayDataVertMinMax
  003ab	8b c8		 mov	 ecx, eax
  003ad	ff 15 00 00 00
	00		 call	 DWORD PTR __imp_?GetDisplayMax@CDisplayDataMinMax@@QBENXZ
  003b3	83 ec 08	 sub	 esp, 8
  003b6	8b cb		 mov	 ecx, ebx
  003b8	dd 1c 24	 fstp	 QWORD PTR [esp]
  003bb	e8 00 00 00 00	 call	 ?GetVertScaleLogType@CSelectSubGraphData@@QBE_NXZ ; CSelectSubGraphData::GetVertScaleLogType
  003c0	0f b6 c0	 movzx	 eax, al
  003c3	8b cf		 mov	 ecx, edi
  003c5	50		 push	 eax
  003c6	e8 00 00 00 00	 call	 ?CalLogValue@CDraw@@IAEN_NN@Z ; CDraw::CalLogValue
  003cb	8d 85 28 ff ff
	ff		 lea	 eax, DWORD PTR $T3[ebp]
  003d1	8b cb		 mov	 ecx, ebx
  003d3	50		 push	 eax
  003d4	dd 9d 60 ff ff
	ff		 fstp	 QWORD PTR $T5[ebp]
  003da	e8 00 00 00 00	 call	 ?GetDisplayDataVertMinMax@CSelectSubGraphData@@QBE?AVCDisplayDataMinMax@@XZ ; CSelectSubGraphData::GetDisplayDataVertMinMax
  003df	8b c8		 mov	 ecx, eax
  003e1	ff 15 00 00 00
	00		 call	 DWORD PTR __imp_?GetDisplayMin@CDisplayDataMinMax@@QBENXZ
  003e7	83 ec 08	 sub	 esp, 8
  003ea	8b cb		 mov	 ecx, ebx
  003ec	dd 1c 24	 fstp	 QWORD PTR [esp]
  003ef	e8 00 00 00 00	 call	 ?GetVertScaleLogType@CSelectSubGraphData@@QBE_NXZ ; CSelectSubGraphData::GetVertScaleLogType
  003f4	0f b6 c0	 movzx	 eax, al
  003f7	8b cf		 mov	 ecx, edi
  003f9	50		 push	 eax
  003fa	e8 00 00 00 00	 call	 ?CalLogValue@CDraw@@IAEN_NN@Z ; CDraw::CalLogValue
  003ff	6a 00		 push	 0
  00401	8d 45 f4	 lea	 eax, DWORD PTR $T13[ebp]
  00404	50		 push	 eax
  00405	8d 85 60 ff ff
	ff		 lea	 eax, DWORD PTR $T5[ebp]
  0040b	50		 push	 eax
  0040c	8d 85 68 ff ff
	ff		 lea	 eax, DWORD PTR $T7[ebp]
  00412	50		 push	 eax
  00413	8d 85 50 ff ff
	ff		 lea	 eax, DWORD PTR _realWidth$[ebp]
  00419	50		 push	 eax
  0041a	8b 45 84	 mov	 eax, DWORD PTR _nIndex$1$[ebp]
  0041d	40		 inc	 eax
  0041e	50		 push	 eax
  0041f	8d 45 dc	 lea	 eax, DWORD PTR _graphRegion$[ebp]
  00422	50		 push	 eax
  00423	8d 85 38 ff ff
	ff		 lea	 eax, DWORD PTR _closePt$[ebp]
  00429	50		 push	 eax
  0042a	dd 9d 68 ff ff
	ff		 fstp	 QWORD PTR $T7[ebp]
  00430	e8 00 00 00 00	 call	 ?GetVerticalPoint@CDataConversion@@SA?AVCPoint@@ABVCRect@@HABN111_N@Z ; CDataConversion::GetVerticalPoint

; 1106 : 
; 1107 : 	//invert scale .
; 1108 : 	CPoint mousePoint = point;

  00435	8b 85 7c ff ff
	ff		 mov	 eax, DWORD PTR _point$GSCopy$1$[ebp]
  0043b	83 c4 20	 add	 esp, 32			; 00000020H

; 1109 : 	if(pSelectSubGraphData->GetVertScaleInvertType())

  0043e	8b cb		 mov	 ecx, ebx
  00440	8b 38		 mov	 edi, DWORD PTR [eax]
  00442	8b 70 04	 mov	 esi, DWORD PTR [eax+4]
  00445	e8 00 00 00 00	 call	 ?GetVertScaleInvertType@CSelectSubGraphData@@QBE_NXZ ; CSelectSubGraphData::GetVertScaleInvertType
  0044a	84 c0		 test	 al, al
  0044c	74 17		 je	 SHORT $LN10@PointInThr

; 1110 : 		mousePoint.y = CDataConversion::InvertGraphDataPt(graphRegion, point.y);

  0044e	8b 85 7c ff ff
	ff		 mov	 eax, DWORD PTR _point$GSCopy$1$[ebp]
  00454	ff 70 04	 push	 DWORD PTR [eax+4]
  00457	8d 45 dc	 lea	 eax, DWORD PTR _graphRegion$[ebp]
  0045a	50		 push	 eax
  0045b	e8 00 00 00 00	 call	 ?InvertGraphDataPt@CDataConversion@@SAHABVCRect@@H@Z ; CDataConversion::InvertGraphDataPt
  00460	83 c4 08	 add	 esp, 8
  00463	8b f0		 mov	 esi, eax
$LN10@PointInThr:

; 1111 : 
; 1112 : 	// Graph Drawing     - ojtaso (20080124)
; 1113 : 	openPt.x = area.left;
; 1114 : 	closePt.x = area.right;
; 1115 : 
; 1116 : 	if(openPt.y <= closePt.y){

  00465	8b 8d 44 ff ff
	ff		 mov	 ecx, DWORD PTR _openPt$[ebp+4]
  0046b	8b 85 3c ff ff
	ff		 mov	 eax, DWORD PTR _closePt$[ebp+4]
  00471	0f bf 9d 74 ff
	ff ff		 movsx	 ebx, WORD PTR _area$[ebp]
  00478	0f bf 95 78 ff
	ff ff		 movsx	 edx, WORD PTR _area$[ebp+4]
  0047f	3b c8		 cmp	 ecx, eax
  00481	7f 1e		 jg	 SHORT $LN11@PointInThr

; 1117 : 		if(openPt.y <= mousePoint.y && closePt.y >= mousePoint.y && mousePoint.x >= openPt.x && mousePoint.x <= closePt.x)

  00483	3b ce		 cmp	 ecx, esi
  00485	7f 04		 jg	 SHORT $LN5@PointInThr
  00487	3b c6		 cmp	 eax, esi
  00489	7d 1e		 jge	 SHORT $LN44@PointInThr
$LN5@PointInThr:

; 1059 : 		return -1;

  0048b	83 c8 ff	 or	 eax, -1

; 1123 : 	}
; 1124 : 
; 1125 : 	return -1;
; 1126 : }

  0048e	5f		 pop	 edi
  0048f	5e		 pop	 esi
  00490	5b		 pop	 ebx
  00491	8b 4d fc	 mov	 ecx, DWORD PTR __$ArrayPad$[ebp]
  00494	33 cd		 xor	 ecx, ebp
  00496	e8 00 00 00 00	 call	 @__security_check_cookie@4
  0049b	8b e5		 mov	 esp, ebp
  0049d	5d		 pop	 ebp
  0049e	c2 08 00	 ret	 8
$LN11@PointInThr:

; 1118 : 		return dataIndex;
; 1119 : 	}
; 1120 : 	else{
; 1121 : 		if(openPt.y >= mousePoint.y && closePt.y <= mousePoint.y && mousePoint.x >= openPt.x && mousePoint.x <= closePt.x)

  004a1	3b ce		 cmp	 ecx, esi
  004a3	7c e6		 jl	 SHORT $LN5@PointInThr
  004a5	3b c6		 cmp	 eax, esi
  004a7	7f e2		 jg	 SHORT $LN5@PointInThr
$LN44@PointInThr:

; 1122 : 		return dataIndex;

  004a9	3b fb		 cmp	 edi, ebx
  004ab	7c de		 jl	 SHORT $LN5@PointInThr
  004ad	3b fa		 cmp	 edi, edx
  004af	7f da		 jg	 SHORT $LN5@PointInThr

; 1123 : 	}
; 1124 : 
; 1125 : 	return -1;
; 1126 : }

  004b1	8b 4d fc	 mov	 ecx, DWORD PTR __$ArrayPad$[ebp]
  004b4	8b 45 90	 mov	 eax, DWORD PTR _dataIndex$[ebp]
  004b7	33 cd		 xor	 ecx, ebp
  004b9	5f		 pop	 edi
  004ba	5e		 pop	 esi
  004bb	5b		 pop	 ebx
  004bc	e8 00 00 00 00	 call	 @__security_check_cookie@4
  004c1	8b e5		 mov	 esp, ebp
  004c3	5d		 pop	 ebp
  004c4	c2 08 00	 ret	 8
?PointInThreeLineBreakGraph@CSelectSubGraph@@AAEHABVCPoint@@PBVCSelectSubGraphData@@@Z ENDP ; CSelectSubGraph::PointInThreeLineBreakGraph
_TEXT	ENDS
; Function compile flags: /Ogtp
; File D:\git\src\IBK\IBK_DRFN\ProjSrc\SrcChartEx\ChartOCX\GraphDraw\SelectSubGraph.cpp
;	COMDAT ?PointInGroupBarGraph@CSelectSubGraph@@AAEHABVCPoint@@PBVCSelectSubGraphData@@PAVCIndicatorList@@@Z
_TEXT	SEGMENT
_point$ = 8						; size = 4
_pSelectSubGraphData$ = 12				; size = 4
_pIndicatorList$ = 16					; size = 4
?PointInGroupBarGraph@CSelectSubGraph@@AAEHABVCPoint@@PBVCSelectSubGraphData@@PAVCIndicatorList@@@Z PROC ; CSelectSubGraph::PointInGroupBarGraph, COMDAT
; _this$ = ecx

; 510  : 	return -1;

  00000	83 c8 ff	 or	 eax, -1

; 511  : }

  00003	c2 0c 00	 ret	 12			; 0000000cH
?PointInGroupBarGraph@CSelectSubGraph@@AAEHABVCPoint@@PBVCSelectSubGraphData@@PAVCIndicatorList@@@Z ENDP ; CSelectSubGraph::PointInGroupBarGraph
_TEXT	ENDS
; Function compile flags: /Ogtp
; File D:\git\src\IBK\IBK_DRFN\ProjSrc\SrcChartEx\ChartOCX\GraphDraw\SelectSubGraph.cpp
;	COMDAT ?PointInLeftRightBarGraph@CSelectSubGraph@@AAEHABVCPoint@@PBVCSelectSubGraphData@@PAVCIndicatorList@@@Z
_TEXT	SEGMENT
_point$ = 8						; size = 4
_pSelectSubGraphData$ = 12				; size = 4
_pIndicatorList$ = 16					; size = 4
?PointInLeftRightBarGraph@CSelectSubGraph@@AAEHABVCPoint@@PBVCSelectSubGraphData@@PAVCIndicatorList@@@Z PROC ; CSelectSubGraph::PointInLeftRightBarGraph, COMDAT
; _this$ = ecx

; 504  : 	return -1;

  00000	83 c8 ff	 or	 eax, -1

; 505  : }

  00003	c2 0c 00	 ret	 12			; 0000000cH
?PointInLeftRightBarGraph@CSelectSubGraph@@AAEHABVCPoint@@PBVCSelectSubGraphData@@PAVCIndicatorList@@@Z ENDP ; CSelectSubGraph::PointInLeftRightBarGraph
_TEXT	ENDS
; Function compile flags: /Ogtp
; File D:\git\src\IBK\IBK_DRFN\ProjSrc\SrcChartEx\ChartOCX\GraphDraw\SelectSubGraph.cpp
; File C:\Program Files (x86)\Microsoft Visual Studio\2019\Community\VC\Tools\MSVC\14.29.30133\atlmfc\include\afxtempl.h
; File D:\git\src\IBK\IBK_DRFN\ProjSrc\SrcChartEx\ChartOCX\GraphDraw\SelectSubGraph.cpp
; File C:\Program Files (x86)\Microsoft Visual Studio\2019\Community\VC\Tools\MSVC\14.29.30133\atlmfc\include\afxtempl.h
; File D:\git\src\IBK\IBK_DRFN\ProjSrc\SrcChartEx\ChartOCX\GraphDraw\SelectSubGraph.cpp
; File C:\Program Files (x86)\Microsoft Visual Studio\2019\Community\VC\Tools\MSVC\14.29.30133\atlmfc\include\afxtempl.h
; File D:\git\src\IBK\IBK_DRFN\ProjSrc\SrcChartEx\ChartOCX\GraphDraw\SelectSubGraph.cpp
; File C:\Program Files (x86)\Microsoft Visual Studio\2019\Community\VC\Tools\MSVC\14.29.30133\atlmfc\include\afxtempl.h
; File D:\git\src\IBK\IBK_DRFN\ProjSrc\SrcChartEx\ChartOCX\GraphDraw\SelectSubGraph.cpp
; File C:\Program Files (x86)\Microsoft Visual Studio\2019\Community\VC\Tools\MSVC\14.29.30133\atlmfc\include\afxtempl.h
; File D:\git\src\IBK\IBK_DRFN\ProjSrc\SrcChartEx\ChartOCX\GraphDraw\SelectSubGraph.cpp
; File C:\Program Files (x86)\Microsoft Visual Studio\2019\Community\VC\Tools\MSVC\14.29.30133\atlmfc\include\afxtempl.h
; File D:\git\src\IBK\IBK_DRFN\ProjSrc\SrcChartEx\ChartOCX\GraphDraw\SelectSubGraph.cpp
; File D:\git\src\IBK\IBK_DRFN\ProjSrc\SrcChartEx\ChartOCX\Include_Chart\BlockBaseData.h
; File D:\git\src\IBK\IBK_DRFN\ProjSrc\SrcChartEx\ChartOCX\GraphDraw\SelectSubGraph.cpp
;	COMDAT ?PointInBoxBarGraph@CSelectSubGraph@@AAEHABVCPoint@@PBVCSelectSubGraphData@@PAVCIndicatorList@@@Z
_TEXT	SEGMENT
_barDraw$ = -292					; size = 40
$T2 = -252						; size = 16
$T3 = -252						; size = 16
$T4 = -252						; size = 16
$T5 = -252						; size = 16
$T6 = -236						; size = 16
$T7 = -236						; size = 16
$T8 = -236						; size = 16
$T9 = -236						; size = 16
_closePt$ = -220					; size = 8
_openPt$ = -212						; size = 8
_lowPt$ = -204						; size = 8
_highPt$ = -196						; size = 8
_dRealWidth$ = -188					; size = 8
$T10 = -180						; size = 8
_highPos$1$ = -176					; size = 4
$T11 = -172						; size = 8
_nStart$1$ = -168					; size = 4
$T12 = -164						; size = 8
_pPacket$1$ = -160					; size = 4
_pClosePacket$1$ = -160					; size = 4
$T13 = -156						; size = 8
$T14 = -156						; size = 8
_openPos$1$ = -152					; size = 4
_mousePt$1$ = -148					; size = 4
_closePos$1$ = -148					; size = 4
$T15 = -144						; size = 8
$T16 = -140						; size = 4
_lowPos$1$ = -140					; size = 4
$T17 = -140						; size = 4
_point$GSCopy$1$ = -136					; size = 4
_mousePt$2$ = -136					; size = 4
$T18 = -132						; size = 8
$T19 = -132						; size = 8
$T20 = -132						; size = 8
$T21 = -132						; size = 8
$T22 = -132						; size = 8
$T23 = -132						; size = 8
$T24 = -132						; size = 8
$T25 = -124						; size = 8
$T26 = -124						; size = 8
$T27 = -120						; size = 4
_pOpenPacket$1$ = -120					; size = 4
_pLowPacket$1$ = -116					; size = 4
_pHighPacket$1$ = -112					; size = 4
_this$GSCopy$1$ = -108					; size = 4
_pSelectSubGraphData$GSCopy$1$ = -104			; size = 4
$T28 = -100						; size = 68
_graphRegion$ = -32					; size = 16
__$ArrayPad$ = -16					; size = 4
__$EHRec$ = -12						; size = 12
_point$ = 8						; size = 4
_pSelectSubGraphData$ = 12				; size = 4
_pIndicatorList$ = 16					; size = 4
?PointInBoxBarGraph@CSelectSubGraph@@AAEHABVCPoint@@PBVCSelectSubGraphData@@PAVCIndicatorList@@@Z PROC ; CSelectSubGraph::PointInBoxBarGraph, COMDAT
; _this$ = ecx

; 428  : {

  00000	55		 push	 ebp
  00001	8b ec		 mov	 ebp, esp
  00003	6a ff		 push	 -1
  00005	68 00 00 00 00	 push	 __ehhandler$?PointInBoxBarGraph@CSelectSubGraph@@AAEHABVCPoint@@PBVCSelectSubGraphData@@PAVCIndicatorList@@@Z
  0000a	64 a1 00 00 00
	00		 mov	 eax, DWORD PTR fs:0
  00010	50		 push	 eax
  00011	81 ec 18 01 00
	00		 sub	 esp, 280		; 00000118H
  00017	a1 00 00 00 00	 mov	 eax, DWORD PTR ___security_cookie
  0001c	33 c5		 xor	 eax, ebp
  0001e	89 45 f0	 mov	 DWORD PTR __$ArrayPad$[ebp], eax
  00021	56		 push	 esi
  00022	57		 push	 edi
  00023	50		 push	 eax
  00024	8d 45 f4	 lea	 eax, DWORD PTR __$EHRec$[ebp]
  00027	64 a3 00 00 00
	00		 mov	 DWORD PTR fs:0, eax
  0002d	89 4d 94	 mov	 DWORD PTR _this$GSCopy$1$[ebp], ecx
  00030	8b 7d 0c	 mov	 edi, DWORD PTR _pSelectSubGraphData$[ebp]

; 429  : 	const CList< CPacket *, CPacket *> &packetList = pSelectSubGraphData->GetSubGraphPacketList()->GetSubGraphPacketList();

  00033	8b cf		 mov	 ecx, edi
  00035	8b 45 08	 mov	 eax, DWORD PTR _point$[ebp]
  00038	89 85 78 ff ff
	ff		 mov	 DWORD PTR _point$GSCopy$1$[ebp], eax
  0003e	89 7d 98	 mov	 DWORD PTR _pSelectSubGraphData$GSCopy$1$[ebp], edi
  00041	e8 00 00 00 00	 call	 ?GetSubGraphPacketList@CSelectSubGraphData@@QBEPAVCSubGraphPacketList@@XZ ; CSelectSubGraphData::GetSubGraphPacketList
  00046	8b c8		 mov	 ecx, eax
  00048	e8 00 00 00 00	 call	 ?GetSubGraphPacketList@CSubGraphPacketList@@QBEABV?$CList@PAVCPacket@@PAV1@@@XZ ; CSubGraphPacketList::GetSubGraphPacketList
  0004d	8b f0		 mov	 esi, eax

; 430  : 	if(packetList.GetCount() <= 0)

  0004f	8b 4e 0c	 mov	 ecx, DWORD PTR [esi+12]
  00052	85 c9		 test	 ecx, ecx
  00054	0f 8e 42 06 00
	00		 jle	 $LN103@PointInBox

; 431  : 		return -1;
; 432  : 	POSITION pos = packetList.GetHeadPosition();

  0005a	8b 46 04	 mov	 eax, DWORD PTR [esi+4]

; 433  : 	if(pos == NULL)	return -1;

  0005d	85 c0		 test	 eax, eax
  0005f	0f 84 37 06 00
	00		 je	 $LN103@PointInBox

; 434  : 	
; 435  : 	if(packetList.GetCount() < 6)	return -1;

  00065	83 f9 06	 cmp	 ecx, 6
  00068	0f 8c 2e 06 00
	00		 jl	 $LN103@PointInBox

; 436  : 
; 437  : 	CPacket* pHighPacket = NULL;	
; 438  : 	CPacket* pLowPacket = NULL;	
; 439  : 	CPacket* pOpenPacket = NULL;	
; 440  : 	CPacket* pClosePacket = NULL;	
; 441  : 
; 442  : 	/// Forward
; 443  : 	POSITION p = packetList.GetHeadPosition();
; 444  : 	if(p == NULL)	return -1;
; 445  : 	CPacket* pPacket = packetList.GetNext(p);

  0006e	8b 40 08	 mov	 eax, DWORD PTR [eax+8]
  00071	89 85 60 ff ff
	ff		 mov	 DWORD PTR _pPacket$1$[ebp], eax

; 446  : 	if(pPacket == NULL)	return -1;

  00077	85 c0		 test	 eax, eax
  00079	0f 84 1d 06 00
	00		 je	 $LN103@PointInBox

; 447  : 
; 448  : 	CBarDraw barDraw;

  0007f	8d 8d dc fe ff
	ff		 lea	 ecx, DWORD PTR _barDraw$[ebp]
  00085	e8 00 00 00 00	 call	 ??0CBarDraw@@QAE@XZ	; CBarDraw::CBarDraw

; 449  : 	if(barDraw.CheckBoxBarType(pPacket)){

  0008a	ff b5 60 ff ff
	ff		 push	 DWORD PTR _pPacket$1$[ebp]
  00090	8d 8d dc fe ff
	ff		 lea	 ecx, DWORD PTR _barDraw$[ebp]
  00096	c7 45 fc 00 00
	00 00		 mov	 DWORD PTR __$EHRec$[ebp+8], 0
  0009d	e8 00 00 00 00	 call	 ?CheckBoxBarType@CBarDraw@@QAE_NPAVCPacket@@@Z ; CBarDraw::CheckBoxBarType
  000a2	8b 56 0c	 mov	 edx, DWORD PTR [esi+12]
  000a5	84 c0		 test	 al, al
  000a7	74 1d		 je	 SHORT $LN7@PointInBox
; File C:\Program Files (x86)\Microsoft Visual Studio\2019\Community\VC\Tools\MSVC\14.29.30133\atlmfc\include\afxtempl.h

; 1133 : 	if (nIndex >= m_nCount || nIndex < 0)

  000a9	85 d2		 test	 edx, edx
  000ab	7e 05		 jle	 SHORT $LN28@PointInBox

; 1141 : 	}
; 1142 : 	return (POSITION) pNode;

  000ad	8b 46 04	 mov	 eax, DWORD PTR [esi+4]
  000b0	eb 02		 jmp	 SHORT $LN24@PointInBox
$LN28@PointInBox:

; 1134 : 		return NULL;  // went too far

  000b2	33 c0		 xor	 eax, eax
$LN24@PointInBox:
; File D:\git\src\IBK\IBK_DRFN\ProjSrc\SrcChartEx\ChartOCX\GraphDraw\SelectSubGraph.cpp

; 450  : 		pHighPacket = packetList.GetAt(packetList.FindIndex(0));	

  000b4	8b 40 08	 mov	 eax, DWORD PTR [eax+8]
  000b7	89 45 90	 mov	 DWORD PTR _pHighPacket$1$[ebp], eax
; File C:\Program Files (x86)\Microsoft Visual Studio\2019\Community\VC\Tools\MSVC\14.29.30133\atlmfc\include\afxtempl.h

; 1133 : 	if (nIndex >= m_nCount || nIndex < 0)

  000ba	83 fa 01	 cmp	 edx, 1
  000bd	7e 3c		 jle	 SHORT $LN46@PointInBox

; 1135 : 
; 1136 : 	CNode* pNode = m_pNodeHead;

  000bf	8b 46 04	 mov	 eax, DWORD PTR [esi+4]

; 1141 : 	}
; 1142 : 	return (POSITION) pNode;

  000c2	8b 00		 mov	 eax, DWORD PTR [eax]
  000c4	eb 37		 jmp	 SHORT $LN42@PointInBox
$LN7@PointInBox:
; File D:\git\src\IBK\IBK_DRFN\ProjSrc\SrcChartEx\ChartOCX\GraphDraw\SelectSubGraph.cpp

; 455  : 		pHighPacket = packetList.GetAt(packetList.FindIndex(2));	

  000c6	b9 02 00 00 00	 mov	 ecx, 2
; File C:\Program Files (x86)\Microsoft Visual Studio\2019\Community\VC\Tools\MSVC\14.29.30133\atlmfc\include\afxtempl.h

; 1133 : 	if (nIndex >= m_nCount || nIndex < 0)

  000cb	3b d1		 cmp	 edx, ecx
  000cd	7e 0c		 jle	 SHORT $LN40@PointInBox

; 1135 : 
; 1136 : 	CNode* pNode = m_pNodeHead;

  000cf	8b 46 04	 mov	 eax, DWORD PTR [esi+4]
$LL37@PointInBox:

; 1137 : 	while (nIndex--)
; 1138 : 	{
; 1139 : 		ASSERT(AfxIsValidAddress(pNode, sizeof(CNode)));
; 1140 : 		pNode = pNode->pNext;

  000d2	8b 00		 mov	 eax, DWORD PTR [eax]
  000d4	83 e9 01	 sub	 ecx, 1
  000d7	75 f9		 jne	 SHORT $LL37@PointInBox

; 1141 : 	}
; 1142 : 	return (POSITION) pNode;

  000d9	eb 02		 jmp	 SHORT $LN106@PointInBox
$LN40@PointInBox:

; 1134 : 		return NULL;  // went too far

  000db	33 c0		 xor	 eax, eax
$LN106@PointInBox:
; File D:\git\src\IBK\IBK_DRFN\ProjSrc\SrcChartEx\ChartOCX\GraphDraw\SelectSubGraph.cpp

; 455  : 		pHighPacket = packetList.GetAt(packetList.FindIndex(2));	

  000dd	8b 40 08	 mov	 eax, DWORD PTR [eax+8]

; 456  : 		pLowPacket = packetList.GetAt(packetList.FindIndex(3));

  000e0	b9 03 00 00 00	 mov	 ecx, 3
  000e5	89 55 88	 mov	 DWORD PTR $T27[ebp], edx
  000e8	89 45 90	 mov	 DWORD PTR _pHighPacket$1$[ebp], eax
; File C:\Program Files (x86)\Microsoft Visual Studio\2019\Community\VC\Tools\MSVC\14.29.30133\atlmfc\include\afxtempl.h

; 1133 : 	if (nIndex >= m_nCount || nIndex < 0)

  000eb	3b d1		 cmp	 edx, ecx
  000ed	7e 0c		 jle	 SHORT $LN46@PointInBox

; 1135 : 
; 1136 : 	CNode* pNode = m_pNodeHead;

  000ef	8b 46 04	 mov	 eax, DWORD PTR [esi+4]
$LL43@PointInBox:

; 1137 : 	while (nIndex--)
; 1138 : 	{
; 1139 : 		ASSERT(AfxIsValidAddress(pNode, sizeof(CNode)));
; 1140 : 		pNode = pNode->pNext;

  000f2	8b 00		 mov	 eax, DWORD PTR [eax]
  000f4	83 e9 01	 sub	 ecx, 1
  000f7	75 f9		 jne	 SHORT $LL43@PointInBox

; 1141 : 	}
; 1142 : 	return (POSITION) pNode;

  000f9	eb 02		 jmp	 SHORT $LN42@PointInBox
$LN46@PointInBox:
; File D:\git\src\IBK\IBK_DRFN\ProjSrc\SrcChartEx\ChartOCX\GraphDraw\SelectSubGraph.cpp

; 458  : 	pOpenPacket = packetList.GetAt(packetList.FindIndex(4));

  000fb	33 c0		 xor	 eax, eax
$LN42@PointInBox:
  000fd	8b 40 08	 mov	 eax, DWORD PTR [eax+8]
  00100	b9 04 00 00 00	 mov	 ecx, 4
  00105	89 45 8c	 mov	 DWORD PTR _pLowPacket$1$[ebp], eax
; File C:\Program Files (x86)\Microsoft Visual Studio\2019\Community\VC\Tools\MSVC\14.29.30133\atlmfc\include\afxtempl.h

; 1133 : 	if (nIndex >= m_nCount || nIndex < 0)

  00108	3b d1		 cmp	 edx, ecx
  0010a	7e 0d		 jle	 SHORT $LN52@PointInBox

; 1135 : 
; 1136 : 	CNode* pNode = m_pNodeHead;

  0010c	8b 46 04	 mov	 eax, DWORD PTR [esi+4]
  0010f	90		 npad	 1
$LL49@PointInBox:

; 1137 : 	while (nIndex--)
; 1138 : 	{
; 1139 : 		ASSERT(AfxIsValidAddress(pNode, sizeof(CNode)));
; 1140 : 		pNode = pNode->pNext;

  00110	8b 00		 mov	 eax, DWORD PTR [eax]
  00112	83 e9 01	 sub	 ecx, 1
  00115	75 f9		 jne	 SHORT $LL49@PointInBox

; 1141 : 	}
; 1142 : 	return (POSITION) pNode;

  00117	eb 02		 jmp	 SHORT $LN48@PointInBox
$LN52@PointInBox:

; 1134 : 		return NULL;  // went too far

  00119	33 c0		 xor	 eax, eax
$LN48@PointInBox:
; File D:\git\src\IBK\IBK_DRFN\ProjSrc\SrcChartEx\ChartOCX\GraphDraw\SelectSubGraph.cpp

; 458  : 	pOpenPacket = packetList.GetAt(packetList.FindIndex(4));

  0011b	8b 40 08	 mov	 eax, DWORD PTR [eax+8]

; 459  : 	pClosePacket = packetList.GetAt(packetList.FindIndex(5));	

  0011e	b9 05 00 00 00	 mov	 ecx, 5
  00123	89 45 88	 mov	 DWORD PTR _pOpenPacket$1$[ebp], eax
; File C:\Program Files (x86)\Microsoft Visual Studio\2019\Community\VC\Tools\MSVC\14.29.30133\atlmfc\include\afxtempl.h

; 1133 : 	if (nIndex >= m_nCount || nIndex < 0)

  00126	3b d1		 cmp	 edx, ecx
  00128	7e 0f		 jle	 SHORT $LN58@PointInBox

; 1135 : 
; 1136 : 	CNode* pNode = m_pNodeHead;

  0012a	8b 46 04	 mov	 eax, DWORD PTR [esi+4]
  0012d	0f 1f 00	 npad	 3
$LL55@PointInBox:

; 1137 : 	while (nIndex--)
; 1138 : 	{
; 1139 : 		ASSERT(AfxIsValidAddress(pNode, sizeof(CNode)));
; 1140 : 		pNode = pNode->pNext;

  00130	8b 00		 mov	 eax, DWORD PTR [eax]
  00132	83 e9 01	 sub	 ecx, 1
  00135	75 f9		 jne	 SHORT $LL55@PointInBox

; 1141 : 	}
; 1142 : 	return (POSITION) pNode;

  00137	eb 02		 jmp	 SHORT $LN54@PointInBox
$LN58@PointInBox:

; 1134 : 		return NULL;  // went too far

  00139	33 c0		 xor	 eax, eax
$LN54@PointInBox:
; File D:\git\src\IBK\IBK_DRFN\ProjSrc\SrcChartEx\ChartOCX\GraphDraw\SelectSubGraph.cpp

; 461  : 	if(pOpenPacket == NULL || pHighPacket == NULL || pLowPacket == NULL || pClosePacket == NULL)

  0013b	83 7d 88 00	 cmp	 DWORD PTR _pOpenPacket$1$[ebp], 0
  0013f	8b 40 08	 mov	 eax, DWORD PTR [eax+8]
  00142	89 85 60 ff ff
	ff		 mov	 DWORD PTR _pClosePacket$1$[ebp], eax
  00148	0f 84 3c 05 00
	00		 je	 $LN13@PointInBox
  0014e	83 7d 90 00	 cmp	 DWORD PTR _pHighPacket$1$[ebp], 0
  00152	0f 84 32 05 00
	00		 je	 $LN13@PointInBox
  00158	83 7d 8c 00	 cmp	 DWORD PTR _pLowPacket$1$[ebp], 0
  0015c	0f 84 28 05 00
	00		 je	 $LN13@PointInBox
  00162	85 c0		 test	 eax, eax
  00164	0f 84 20 05 00
	00		 je	 $LN13@PointInBox

; 462  : 		return -1;
; 463  : 
; 464  : 	int nStart = pSelectSubGraphData->GetDisplayAttributes().GetDataStartInBlock();

  0016a	8d 85 7c ff ff
	ff		 lea	 eax, DWORD PTR $T24[ebp]
  00170	8b cf		 mov	 ecx, edi
  00172	50		 push	 eax
  00173	e8 00 00 00 00	 call	 ?GetDisplayAttributes@CSelectSubGraphData@@QBE?AVCDisplayAttributes@@XZ ; CSelectSubGraphData::GetDisplayAttributes
  00178	8b c8		 mov	 ecx, eax
  0017a	e8 00 00 00 00	 call	 ?GetDataStartInBlock@CDisplayAttributes@@QBEHXZ ; CDisplayAttributes::GetDataStartInBlock
  0017f	89 85 58 ff ff
	ff		 mov	 DWORD PTR _nStart$1$[ebp], eax

; 465  : 	int nEnd = pSelectSubGraphData->GetDisplayAttributes().GetDataEndInBlock();

  00185	8b cf		 mov	 ecx, edi
  00187	8d 85 7c ff ff
	ff		 lea	 eax, DWORD PTR $T23[ebp]
  0018d	50		 push	 eax
  0018e	e8 00 00 00 00	 call	 ?GetDisplayAttributes@CSelectSubGraphData@@QBE?AVCDisplayAttributes@@XZ ; CSelectSubGraphData::GetDisplayAttributes
  00193	8b c8		 mov	 ecx, eax
  00195	e8 00 00 00 00	 call	 ?GetDataEndInBlock@CDisplayAttributes@@QBEHXZ ; CDisplayAttributes::GetDataEndInBlock

; 466  : 	int pageDataCount = pSelectSubGraphData->GetDisplayAttributes().GetDataCountInBlock();

  0019a	8b 4d 98	 mov	 ecx, DWORD PTR _pSelectSubGraphData$GSCopy$1$[ebp]
  0019d	8b f8		 mov	 edi, eax
  0019f	8d 85 7c ff ff
	ff		 lea	 eax, DWORD PTR $T22[ebp]
  001a5	50		 push	 eax
  001a6	e8 00 00 00 00	 call	 ?GetDisplayAttributes@CSelectSubGraphData@@QBE?AVCDisplayAttributes@@XZ ; CSelectSubGraphData::GetDisplayAttributes
  001ab	8b c8		 mov	 ecx, eax
  001ad	e8 00 00 00 00	 call	 ?GetDataCountInBlock@CDisplayAttributes@@QBEHXZ ; CDisplayAttributes::GetDataCountInBlock

; 468  : 	CRect graphRegion = pSelectSubGraphData->GetGraphRegions().GetDrawingRegion();

  001b2	8b 4d 98	 mov	 ecx, DWORD PTR _pSelectSubGraphData$GSCopy$1$[ebp]
  001b5	8b f0		 mov	 esi, eax
  001b7	8d 85 74 ff ff
	ff		 lea	 eax, DWORD PTR $T17[ebp]
; File D:\git\src\IBK\IBK_DRFN\ProjSrc\SrcChartEx\ChartOCX\Include_Chart\BlockBaseData.h

; 43   : 	CGraphStyle(const int style) { m_nStyle = style; };

  001bd	c7 85 74 ff ff
	ff ff ff ff ff	 mov	 DWORD PTR $T17[ebp], -1
; File D:\git\src\IBK\IBK_DRFN\ProjSrc\SrcChartEx\ChartOCX\GraphDraw\SelectSubGraph.cpp

; 468  : 	CRect graphRegion = pSelectSubGraphData->GetGraphRegions().GetDrawingRegion();

  001c7	50		 push	 eax
  001c8	6a ff		 push	 -1
  001ca	8d 45 e0	 lea	 eax, DWORD PTR _graphRegion$[ebp]
  001cd	50		 push	 eax
  001ce	8d 45 9c	 lea	 eax, DWORD PTR $T28[ebp]
  001d1	50		 push	 eax
  001d2	e8 00 00 00 00	 call	 ?GetGraphRegions@CSelectSubGraphData@@QBE?AVCGraphRegions@@XZ ; CSelectSubGraphData::GetGraphRegions
  001d7	8b c8		 mov	 ecx, eax
  001d9	e8 00 00 00 00	 call	 ?GetDrawingRegion@CGraphRegions@@QBE?AVCRect@@W4GRAPHTYPE@CGraphBaseData@@ABVCGraphStyle@@@Z ; CGraphRegions::GetDrawingRegion

; 469  : 
; 470  : 	int nDataIndex = GetDataIndex(graphRegion, point, nStart, nEnd, pageDataCount); 

  001de	8b 85 78 ff ff
	ff		 mov	 eax, DWORD PTR _point$GSCopy$1$[ebp]
  001e4	0f 10 45 e0	 movups	 xmm0, XMMWORD PTR _graphRegion$[ebp]
  001e8	8b 4d 94	 mov	 ecx, DWORD PTR _this$GSCopy$1$[ebp]
  001eb	56		 push	 esi
  001ec	57		 push	 edi
  001ed	ff b5 58 ff ff
	ff		 push	 DWORD PTR _nStart$1$[ebp]
  001f3	ff 70 04	 push	 DWORD PTR [eax+4]
  001f6	ff 30		 push	 DWORD PTR [eax]
  001f8	83 ec 10	 sub	 esp, 16			; 00000010H
  001fb	8b c4		 mov	 eax, esp
  001fd	0f 11 00	 movups	 XMMWORD PTR [eax], xmm0
  00200	e8 00 00 00 00	 call	 ?GetDataIndex@CSelectSubGraph@@AAEHVCRect@@VCPoint@@HHH@Z ; CSelectSubGraph::GetDataIndex

; 471  : 	double dRealWidth = CDraw::CalRealWidth(graphRegion, nStart, nEnd);

  00205	8b 4d 94	 mov	 ecx, DWORD PTR _this$GSCopy$1$[ebp]
  00208	57		 push	 edi
  00209	ff b5 58 ff ff
	ff		 push	 DWORD PTR _nStart$1$[ebp]
  0020f	89 85 74 ff ff
	ff		 mov	 DWORD PTR $T16[ebp], eax
  00215	8d 45 e0	 lea	 eax, DWORD PTR _graphRegion$[ebp]
  00218	50		 push	 eax
  00219	e8 00 00 00 00	 call	 ?CalRealWidth@CDraw@@IAENABVCRect@@HH@Z ; CDraw::CalRealWidth

; 472  : 	if(nDataIndex == -1)	return -1;

  0021e	8b bd 74 ff ff
	ff		 mov	 edi, DWORD PTR $T16[ebp]
  00224	dd 9d 44 ff ff
	ff		 fstp	 QWORD PTR _dRealWidth$[ebp]
  0022a	83 ff ff	 cmp	 edi, -1
  0022d	0f 84 57 04 00
	00		 je	 $LN13@PointInBox

; 473  : 
; 474  : 	POSITION openPos = pOpenPacket->GetnumericDataList()->FindIndex(nDataIndex);

  00233	8b 4d 88	 mov	 ecx, DWORD PTR _pOpenPacket$1$[ebp]
  00236	8b 35 00 00 00
	00		 mov	 esi, DWORD PTR __imp_?GetnumericDataList@CPacket@@QAEPAV?$CList@NN@@XZ
  0023c	57		 push	 edi
  0023d	ff d6		 call	 esi
  0023f	8b c8		 mov	 ecx, eax
  00241	e8 00 00 00 00	 call	 ?FindIndex@?$CList@NN@@QBEPAU__POSITION@@H@Z ; CList<double,double>::FindIndex

; 475  : 	POSITION highPos = pHighPacket->GetnumericDataList()->FindIndex(nDataIndex);

  00246	8b 4d 90	 mov	 ecx, DWORD PTR _pHighPacket$1$[ebp]
  00249	57		 push	 edi
  0024a	89 85 68 ff ff
	ff		 mov	 DWORD PTR _openPos$1$[ebp], eax
  00250	ff d6		 call	 esi
  00252	8b c8		 mov	 ecx, eax
  00254	e8 00 00 00 00	 call	 ?FindIndex@?$CList@NN@@QBEPAU__POSITION@@H@Z ; CList<double,double>::FindIndex

; 476  : 	POSITION lowPos = pLowPacket->GetnumericDataList()->FindIndex(nDataIndex);

  00259	8b 4d 8c	 mov	 ecx, DWORD PTR _pLowPacket$1$[ebp]
  0025c	57		 push	 edi
  0025d	89 85 50 ff ff
	ff		 mov	 DWORD PTR _highPos$1$[ebp], eax
  00263	ff d6		 call	 esi
  00265	8b c8		 mov	 ecx, eax
  00267	e8 00 00 00 00	 call	 ?FindIndex@?$CList@NN@@QBEPAU__POSITION@@H@Z ; CList<double,double>::FindIndex

; 477  : 	POSITION closePos = pClosePacket->GetnumericDataList()->FindIndex(nDataIndex);

  0026c	8b 8d 60 ff ff
	ff		 mov	 ecx, DWORD PTR _pClosePacket$1$[ebp]
  00272	57		 push	 edi
  00273	89 85 74 ff ff
	ff		 mov	 DWORD PTR _lowPos$1$[ebp], eax
  00279	ff d6		 call	 esi
  0027b	8b c8		 mov	 ecx, eax
  0027d	e8 00 00 00 00	 call	 ?FindIndex@?$CList@NN@@QBEPAU__POSITION@@H@Z ; CList<double,double>::FindIndex

; 478  : 	
; 479  : 	if(openPos == NULL || highPos == NULL || lowPos == NULL || closePos == NULL) 

  00282	83 bd 68 ff ff
	ff 00		 cmp	 DWORD PTR _openPos$1$[ebp], 0
  00289	89 85 6c ff ff
	ff		 mov	 DWORD PTR _closePos$1$[ebp], eax
  0028f	0f 84 f5 03 00
	00		 je	 $LN13@PointInBox
  00295	83 bd 50 ff ff
	ff 00		 cmp	 DWORD PTR _highPos$1$[ebp], 0
  0029c	0f 84 e8 03 00
	00		 je	 $LN13@PointInBox
  002a2	83 bd 74 ff ff
	ff 00		 cmp	 DWORD PTR _lowPos$1$[ebp], 0
  002a9	0f 84 db 03 00
	00		 je	 $LN13@PointInBox
  002af	85 c0		 test	 eax, eax
  002b1	0f 84 d3 03 00
	00		 je	 $LN13@PointInBox

; 1324 : 	return (dataIndex - dataStart);

  002b7	8b 85 58 ff ff
	ff		 mov	 eax, DWORD PTR _nStart$1$[ebp]
  002bd	8b f7		 mov	 esi, edi

; 480  : 		return -1;
; 481  : 
; 482  : 	int nIndex = GetIndex(nDataIndex, nStart);
; 483  : 
; 484  : 	double dHigh = pHighPacket->GetnumericDataList()->GetAt(highPos);

  002bf	8b 4d 90	 mov	 ecx, DWORD PTR _pHighPacket$1$[ebp]

; 1324 : 	return (dataIndex - dataStart);

  002c2	2b f0		 sub	 esi, eax
  002c4	3b f8		 cmp	 edi, eax
  002c6	0f 4c f0	 cmovl	 esi, eax

; 480  : 		return -1;
; 481  : 
; 482  : 	int nIndex = GetIndex(nDataIndex, nStart);
; 483  : 
; 484  : 	double dHigh = pHighPacket->GetnumericDataList()->GetAt(highPos);

  002c9	ff 15 00 00 00
	00		 call	 DWORD PTR __imp_?GetnumericDataList@CPacket@@QAEPAV?$CList@NN@@XZ

; 485  : 	double dLow = pLowPacket->GetnumericDataList()->GetAt(lowPos);

  002cf	8b 4d 8c	 mov	 ecx, DWORD PTR _pLowPacket$1$[ebp]
  002d2	ff 15 00 00 00
	00		 call	 DWORD PTR __imp_?GetnumericDataList@CPacket@@QAEPAV?$CList@NN@@XZ

; 486  : 	CPoint openPt = CDataConversion::GetVerticalPoint(graphRegion, nIndex, dRealWidth, CDraw::CalLogValue(pSelectSubGraphData->GetVertScaleLogType(), pSelectSubGraphData->GetDisplayDataVertMinMax().GetDisplayMin()), CDraw::CalLogValue(pSelectSubGraphData->GetVertScaleLogType(), pSelectSubGraphData->GetDisplayDataVertMinMax().GetDisplayMax()), CDraw::CalLogValue(pSelectSubGraphData->GetVertScaleLogType(), pOpenPacket->GetnumericDataList()->GetNext(openPos)), false);

  002d8	8b 4d 88	 mov	 ecx, DWORD PTR _pOpenPacket$1$[ebp]
  002db	ff 15 00 00 00
	00		 call	 DWORD PTR __imp_?GetnumericDataList@CPacket@@QAEPAV?$CList@NN@@XZ
  002e1	8b 85 68 ff ff
	ff		 mov	 eax, DWORD PTR _openPos$1$[ebp]
  002e7	83 ec 08	 sub	 esp, 8
  002ea	8b 4d 98	 mov	 ecx, DWORD PTR _pSelectSubGraphData$GSCopy$1$[ebp]
  002ed	f2 0f 10 40 08	 movsd	 xmm0, QWORD PTR [eax+8]
  002f2	f2 0f 11 04 24	 movsd	 QWORD PTR [esp], xmm0
  002f7	e8 00 00 00 00	 call	 ?GetVertScaleLogType@CSelectSubGraphData@@QBE_NXZ ; CSelectSubGraphData::GetVertScaleLogType
  002fc	8b 4d 94	 mov	 ecx, DWORD PTR _this$GSCopy$1$[ebp]
  002ff	0f b6 c0	 movzx	 eax, al
  00302	50		 push	 eax
  00303	e8 00 00 00 00	 call	 ?CalLogValue@CDraw@@IAEN_NN@Z ; CDraw::CalLogValue
  00308	8b 4d 98	 mov	 ecx, DWORD PTR _pSelectSubGraphData$GSCopy$1$[ebp]
  0030b	8d 85 14 ff ff
	ff		 lea	 eax, DWORD PTR $T9[ebp]
  00311	50		 push	 eax
  00312	dd 5d 84	 fstp	 QWORD PTR $T26[ebp]
  00315	e8 00 00 00 00	 call	 ?GetDisplayDataVertMinMax@CSelectSubGraphData@@QBE?AVCDisplayDataMinMax@@XZ ; CSelectSubGraphData::GetDisplayDataVertMinMax
  0031a	8b c8		 mov	 ecx, eax
  0031c	ff 15 00 00 00
	00		 call	 DWORD PTR __imp_?GetDisplayMax@CDisplayDataMinMax@@QBENXZ
  00322	8b 4d 98	 mov	 ecx, DWORD PTR _pSelectSubGraphData$GSCopy$1$[ebp]
  00325	83 ec 08	 sub	 esp, 8
  00328	dd 1c 24	 fstp	 QWORD PTR [esp]
  0032b	e8 00 00 00 00	 call	 ?GetVertScaleLogType@CSelectSubGraphData@@QBE_NXZ ; CSelectSubGraphData::GetVertScaleLogType
  00330	8b 4d 94	 mov	 ecx, DWORD PTR _this$GSCopy$1$[ebp]
  00333	0f b6 c0	 movzx	 eax, al
  00336	50		 push	 eax
  00337	e8 00 00 00 00	 call	 ?CalLogValue@CDraw@@IAEN_NN@Z ; CDraw::CalLogValue
  0033c	8b 4d 98	 mov	 ecx, DWORD PTR _pSelectSubGraphData$GSCopy$1$[ebp]
  0033f	8d 85 04 ff ff
	ff		 lea	 eax, DWORD PTR $T5[ebp]
  00345	50		 push	 eax
  00346	dd 9d 54 ff ff
	ff		 fstp	 QWORD PTR $T11[ebp]
  0034c	e8 00 00 00 00	 call	 ?GetDisplayDataVertMinMax@CSelectSubGraphData@@QBE?AVCDisplayDataMinMax@@XZ ; CSelectSubGraphData::GetDisplayDataVertMinMax
  00351	8b c8		 mov	 ecx, eax
  00353	ff 15 00 00 00
	00		 call	 DWORD PTR __imp_?GetDisplayMin@CDisplayDataMinMax@@QBENXZ
  00359	8b 4d 98	 mov	 ecx, DWORD PTR _pSelectSubGraphData$GSCopy$1$[ebp]
  0035c	83 ec 08	 sub	 esp, 8
  0035f	dd 1c 24	 fstp	 QWORD PTR [esp]
  00362	e8 00 00 00 00	 call	 ?GetVertScaleLogType@CSelectSubGraphData@@QBE_NXZ ; CSelectSubGraphData::GetVertScaleLogType
  00367	8b 4d 94	 mov	 ecx, DWORD PTR _this$GSCopy$1$[ebp]
  0036a	0f b6 c0	 movzx	 eax, al
  0036d	50		 push	 eax
  0036e	e8 00 00 00 00	 call	 ?CalLogValue@CDraw@@IAEN_NN@Z ; CDraw::CalLogValue
  00373	6a 00		 push	 0
  00375	8d 45 84	 lea	 eax, DWORD PTR $T26[ebp]
  00378	50		 push	 eax
  00379	8d 85 54 ff ff
	ff		 lea	 eax, DWORD PTR $T11[ebp]
  0037f	50		 push	 eax
  00380	8d 85 7c ff ff
	ff		 lea	 eax, DWORD PTR $T21[ebp]
  00386	50		 push	 eax
  00387	8d 85 44 ff ff
	ff		 lea	 eax, DWORD PTR _dRealWidth$[ebp]
  0038d	50		 push	 eax
  0038e	56		 push	 esi
  0038f	8d 45 e0	 lea	 eax, DWORD PTR _graphRegion$[ebp]
  00392	50		 push	 eax
  00393	8d 85 2c ff ff
	ff		 lea	 eax, DWORD PTR _openPt$[ebp]
  00399	50		 push	 eax
  0039a	dd 9d 7c ff ff
	ff		 fstp	 QWORD PTR $T21[ebp]
  003a0	e8 00 00 00 00	 call	 ?GetVerticalPoint@CDataConversion@@SA?AVCPoint@@ABVCRect@@HABN111_N@Z ; CDataConversion::GetVerticalPoint

; 487  : 	CPoint highPt = CDataConversion::GetVerticalPoint(graphRegion, nIndex, dRealWidth, CDraw::CalLogValue(pSelectSubGraphData->GetVertScaleLogType(), pSelectSubGraphData->GetDisplayDataVertMinMax().GetDisplayMin()), CDraw::CalLogValue(pSelectSubGraphData->GetVertScaleLogType(), pSelectSubGraphData->GetDisplayDataVertMinMax().GetDisplayMax()), CDraw::CalLogValue(pSelectSubGraphData->GetVertScaleLogType(), pHighPacket->GetnumericDataList()->GetNext(highPos)), true);

  003a5	8b 4d 90	 mov	 ecx, DWORD PTR _pHighPacket$1$[ebp]
  003a8	83 c4 20	 add	 esp, 32			; 00000020H
  003ab	ff 15 00 00 00
	00		 call	 DWORD PTR __imp_?GetnumericDataList@CPacket@@QAEPAV?$CList@NN@@XZ
  003b1	8b 85 50 ff ff
	ff		 mov	 eax, DWORD PTR _highPos$1$[ebp]
  003b7	83 ec 08	 sub	 esp, 8
  003ba	8b 4d 98	 mov	 ecx, DWORD PTR _pSelectSubGraphData$GSCopy$1$[ebp]
  003bd	f2 0f 10 40 08	 movsd	 xmm0, QWORD PTR [eax+8]
  003c2	f2 0f 11 04 24	 movsd	 QWORD PTR [esp], xmm0
  003c7	e8 00 00 00 00	 call	 ?GetVertScaleLogType@CSelectSubGraphData@@QBE_NXZ ; CSelectSubGraphData::GetVertScaleLogType
  003cc	8b 4d 94	 mov	 ecx, DWORD PTR _this$GSCopy$1$[ebp]
  003cf	0f b6 c0	 movzx	 eax, al
  003d2	50		 push	 eax
  003d3	e8 00 00 00 00	 call	 ?CalLogValue@CDraw@@IAEN_NN@Z ; CDraw::CalLogValue
  003d8	dd 9d 7c ff ff
	ff		 fstp	 QWORD PTR $T20[ebp]
  003de	8b 4d 98	 mov	 ecx, DWORD PTR _pSelectSubGraphData$GSCopy$1$[ebp]
  003e1	8d 85 04 ff ff
	ff		 lea	 eax, DWORD PTR $T4[ebp]
  003e7	50		 push	 eax
  003e8	e8 00 00 00 00	 call	 ?GetDisplayDataVertMinMax@CSelectSubGraphData@@QBE?AVCDisplayDataMinMax@@XZ ; CSelectSubGraphData::GetDisplayDataVertMinMax
  003ed	8b c8		 mov	 ecx, eax
  003ef	ff 15 00 00 00
	00		 call	 DWORD PTR __imp_?GetDisplayMax@CDisplayDataMinMax@@QBENXZ
  003f5	8b 4d 98	 mov	 ecx, DWORD PTR _pSelectSubGraphData$GSCopy$1$[ebp]
  003f8	83 ec 08	 sub	 esp, 8
  003fb	dd 1c 24	 fstp	 QWORD PTR [esp]
  003fe	e8 00 00 00 00	 call	 ?GetVertScaleLogType@CSelectSubGraphData@@QBE_NXZ ; CSelectSubGraphData::GetVertScaleLogType
  00403	8b 4d 94	 mov	 ecx, DWORD PTR _this$GSCopy$1$[ebp]
  00406	0f b6 c0	 movzx	 eax, al
  00409	50		 push	 eax
  0040a	e8 00 00 00 00	 call	 ?CalLogValue@CDraw@@IAEN_NN@Z ; CDraw::CalLogValue
  0040f	8b 4d 98	 mov	 ecx, DWORD PTR _pSelectSubGraphData$GSCopy$1$[ebp]
  00412	8d 85 14 ff ff
	ff		 lea	 eax, DWORD PTR $T8[ebp]
  00418	50		 push	 eax
  00419	dd 9d 64 ff ff
	ff		 fstp	 QWORD PTR $T14[ebp]
  0041f	e8 00 00 00 00	 call	 ?GetDisplayDataVertMinMax@CSelectSubGraphData@@QBE?AVCDisplayDataMinMax@@XZ ; CSelectSubGraphData::GetDisplayDataVertMinMax
  00424	8b c8		 mov	 ecx, eax
  00426	ff 15 00 00 00
	00		 call	 DWORD PTR __imp_?GetDisplayMin@CDisplayDataMinMax@@QBENXZ
  0042c	8b 4d 98	 mov	 ecx, DWORD PTR _pSelectSubGraphData$GSCopy$1$[ebp]
  0042f	83 ec 08	 sub	 esp, 8
  00432	dd 1c 24	 fstp	 QWORD PTR [esp]
  00435	e8 00 00 00 00	 call	 ?GetVertScaleLogType@CSelectSubGraphData@@QBE_NXZ ; CSelectSubGraphData::GetVertScaleLogType
  0043a	8b 4d 94	 mov	 ecx, DWORD PTR _this$GSCopy$1$[ebp]
  0043d	0f b6 c0	 movzx	 eax, al
  00440	50		 push	 eax
  00441	e8 00 00 00 00	 call	 ?CalLogValue@CDraw@@IAEN_NN@Z ; CDraw::CalLogValue
  00446	6a 01		 push	 1
  00448	8d 85 7c ff ff
	ff		 lea	 eax, DWORD PTR $T20[ebp]
  0044e	50		 push	 eax
  0044f	8d 85 64 ff ff
	ff		 lea	 eax, DWORD PTR $T14[ebp]
  00455	50		 push	 eax
  00456	8d 45 84	 lea	 eax, DWORD PTR $T25[ebp]
  00459	50		 push	 eax
  0045a	8d 85 44 ff ff
	ff		 lea	 eax, DWORD PTR _dRealWidth$[ebp]
  00460	50		 push	 eax
  00461	56		 push	 esi
  00462	8d 45 e0	 lea	 eax, DWORD PTR _graphRegion$[ebp]
  00465	50		 push	 eax
  00466	8d 85 3c ff ff
	ff		 lea	 eax, DWORD PTR _highPt$[ebp]
  0046c	50		 push	 eax
  0046d	dd 5d 84	 fstp	 QWORD PTR $T25[ebp]
  00470	e8 00 00 00 00	 call	 ?GetVerticalPoint@CDataConversion@@SA?AVCPoint@@ABVCRect@@HABN111_N@Z ; CDataConversion::GetVerticalPoint

; 488  : 	CPoint lowPt = CDataConversion::GetVerticalPoint(graphRegion, nIndex, dRealWidth, CDraw::CalLogValue(pSelectSubGraphData->GetVertScaleLogType(), pSelectSubGraphData->GetDisplayDataVertMinMax().GetDisplayMin()), CDraw::CalLogValue(pSelectSubGraphData->GetVertScaleLogType(), pSelectSubGraphData->GetDisplayDataVertMinMax().GetDisplayMax()), CDraw::CalLogValue(pSelectSubGraphData->GetVertScaleLogType(), pLowPacket->GetnumericDataList()->GetNext(lowPos)), true);

  00475	8b 4d 8c	 mov	 ecx, DWORD PTR _pLowPacket$1$[ebp]
  00478	83 c4 20	 add	 esp, 32			; 00000020H
  0047b	ff 15 00 00 00
	00		 call	 DWORD PTR __imp_?GetnumericDataList@CPacket@@QAEPAV?$CList@NN@@XZ
  00481	8b 85 74 ff ff
	ff		 mov	 eax, DWORD PTR _lowPos$1$[ebp]
  00487	83 ec 08	 sub	 esp, 8
  0048a	8b 4d 98	 mov	 ecx, DWORD PTR _pSelectSubGraphData$GSCopy$1$[ebp]
  0048d	f2 0f 10 40 08	 movsd	 xmm0, QWORD PTR [eax+8]
  00492	f2 0f 11 04 24	 movsd	 QWORD PTR [esp], xmm0
  00497	e8 00 00 00 00	 call	 ?GetVertScaleLogType@CSelectSubGraphData@@QBE_NXZ ; CSelectSubGraphData::GetVertScaleLogType
  0049c	8b 4d 94	 mov	 ecx, DWORD PTR _this$GSCopy$1$[ebp]
  0049f	0f b6 c0	 movzx	 eax, al
  004a2	50		 push	 eax
  004a3	e8 00 00 00 00	 call	 ?CalLogValue@CDraw@@IAEN_NN@Z ; CDraw::CalLogValue
  004a8	8b 4d 98	 mov	 ecx, DWORD PTR _pSelectSubGraphData$GSCopy$1$[ebp]
  004ab	8d 85 04 ff ff
	ff		 lea	 eax, DWORD PTR $T3[ebp]
  004b1	50		 push	 eax
  004b2	dd 9d 7c ff ff
	ff		 fstp	 QWORD PTR $T19[ebp]
  004b8	e8 00 00 00 00	 call	 ?GetDisplayDataVertMinMax@CSelectSubGraphData@@QBE?AVCDisplayDataMinMax@@XZ ; CSelectSubGraphData::GetDisplayDataVertMinMax
  004bd	8b c8		 mov	 ecx, eax
  004bf	ff 15 00 00 00
	00		 call	 DWORD PTR __imp_?GetDisplayMax@CDisplayDataMinMax@@QBENXZ
  004c5	8b 4d 98	 mov	 ecx, DWORD PTR _pSelectSubGraphData$GSCopy$1$[ebp]
  004c8	83 ec 08	 sub	 esp, 8
  004cb	dd 1c 24	 fstp	 QWORD PTR [esp]
  004ce	e8 00 00 00 00	 call	 ?GetVertScaleLogType@CSelectSubGraphData@@QBE_NXZ ; CSelectSubGraphData::GetVertScaleLogType
  004d3	8b 4d 94	 mov	 ecx, DWORD PTR _this$GSCopy$1$[ebp]
  004d6	0f b6 c0	 movzx	 eax, al
  004d9	50		 push	 eax
  004da	e8 00 00 00 00	 call	 ?CalLogValue@CDraw@@IAEN_NN@Z ; CDraw::CalLogValue
  004df	8b 4d 98	 mov	 ecx, DWORD PTR _pSelectSubGraphData$GSCopy$1$[ebp]
  004e2	8d 85 14 ff ff
	ff		 lea	 eax, DWORD PTR $T7[ebp]
  004e8	50		 push	 eax
  004e9	dd 9d 4c ff ff
	ff		 fstp	 QWORD PTR $T10[ebp]
  004ef	e8 00 00 00 00	 call	 ?GetDisplayDataVertMinMax@CSelectSubGraphData@@QBE?AVCDisplayDataMinMax@@XZ ; CSelectSubGraphData::GetDisplayDataVertMinMax
  004f4	8b c8		 mov	 ecx, eax
  004f6	ff 15 00 00 00
	00		 call	 DWORD PTR __imp_?GetDisplayMin@CDisplayDataMinMax@@QBENXZ
  004fc	83 ec 08	 sub	 esp, 8
  004ff	8b 4d 98	 mov	 ecx, DWORD PTR _pSelectSubGraphData$GSCopy$1$[ebp]
  00502	dd 1c 24	 fstp	 QWORD PTR [esp]
  00505	e8 00 00 00 00	 call	 ?GetVertScaleLogType@CSelectSubGraphData@@QBE_NXZ ; CSelectSubGraphData::GetVertScaleLogType
  0050a	8b 4d 94	 mov	 ecx, DWORD PTR _this$GSCopy$1$[ebp]
  0050d	0f b6 c0	 movzx	 eax, al
  00510	50		 push	 eax
  00511	e8 00 00 00 00	 call	 ?CalLogValue@CDraw@@IAEN_NN@Z ; CDraw::CalLogValue
  00516	6a 01		 push	 1
  00518	8d 85 7c ff ff
	ff		 lea	 eax, DWORD PTR $T19[ebp]
  0051e	50		 push	 eax
  0051f	8d 85 4c ff ff
	ff		 lea	 eax, DWORD PTR $T10[ebp]
  00525	50		 push	 eax
  00526	8d 85 64 ff ff
	ff		 lea	 eax, DWORD PTR $T13[ebp]
  0052c	50		 push	 eax
  0052d	8d 85 44 ff ff
	ff		 lea	 eax, DWORD PTR _dRealWidth$[ebp]
  00533	50		 push	 eax
  00534	56		 push	 esi
  00535	8d 45 e0	 lea	 eax, DWORD PTR _graphRegion$[ebp]
  00538	50		 push	 eax
  00539	8d 85 34 ff ff
	ff		 lea	 eax, DWORD PTR _lowPt$[ebp]
  0053f	50		 push	 eax
  00540	dd 9d 64 ff ff
	ff		 fstp	 QWORD PTR $T13[ebp]
  00546	e8 00 00 00 00	 call	 ?GetVerticalPoint@CDataConversion@@SA?AVCPoint@@ABVCRect@@HABN111_N@Z ; CDataConversion::GetVerticalPoint

; 489  : 	CPoint closePt = CDataConversion::GetVerticalPoint(graphRegion, nIndex + 1, dRealWidth, CDraw::CalLogValue(pSelectSubGraphData->GetVertScaleLogType(), pSelectSubGraphData->GetDisplayDataVertMinMax().GetDisplayMin()), CDraw::CalLogValue(pSelectSubGraphData->GetVertScaleLogType(), pSelectSubGraphData->GetDisplayDataVertMinMax().GetDisplayMax()), CDraw::CalLogValue(pSelectSubGraphData->GetVertScaleLogType(), pClosePacket->GetnumericDataList()->GetNext(closePos)), false);

  0054b	8b 8d 60 ff ff
	ff		 mov	 ecx, DWORD PTR _pClosePacket$1$[ebp]
  00551	83 c4 20	 add	 esp, 32			; 00000020H
  00554	ff 15 00 00 00
	00		 call	 DWORD PTR __imp_?GetnumericDataList@CPacket@@QAEPAV?$CList@NN@@XZ
  0055a	8b 85 6c ff ff
	ff		 mov	 eax, DWORD PTR _closePos$1$[ebp]
  00560	83 ec 08	 sub	 esp, 8
  00563	8b 4d 98	 mov	 ecx, DWORD PTR _pSelectSubGraphData$GSCopy$1$[ebp]
  00566	f2 0f 10 40 08	 movsd	 xmm0, QWORD PTR [eax+8]
  0056b	f2 0f 11 04 24	 movsd	 QWORD PTR [esp], xmm0
  00570	e8 00 00 00 00	 call	 ?GetVertScaleLogType@CSelectSubGraphData@@QBE_NXZ ; CSelectSubGraphData::GetVertScaleLogType
  00575	8b 4d 94	 mov	 ecx, DWORD PTR _this$GSCopy$1$[ebp]
  00578	0f b6 c0	 movzx	 eax, al
  0057b	50		 push	 eax
  0057c	e8 00 00 00 00	 call	 ?CalLogValue@CDraw@@IAEN_NN@Z ; CDraw::CalLogValue
  00581	8b 4d 98	 mov	 ecx, DWORD PTR _pSelectSubGraphData$GSCopy$1$[ebp]
  00584	8d 85 04 ff ff
	ff		 lea	 eax, DWORD PTR $T2[ebp]
  0058a	50		 push	 eax
  0058b	dd 9d 7c ff ff
	ff		 fstp	 QWORD PTR $T18[ebp]
  00591	e8 00 00 00 00	 call	 ?GetDisplayDataVertMinMax@CSelectSubGraphData@@QBE?AVCDisplayDataMinMax@@XZ ; CSelectSubGraphData::GetDisplayDataVertMinMax
  00596	8b c8		 mov	 ecx, eax
  00598	ff 15 00 00 00
	00		 call	 DWORD PTR __imp_?GetDisplayMax@CDisplayDataMinMax@@QBENXZ
  0059e	8b 4d 98	 mov	 ecx, DWORD PTR _pSelectSubGraphData$GSCopy$1$[ebp]
  005a1	83 ec 08	 sub	 esp, 8
  005a4	dd 1c 24	 fstp	 QWORD PTR [esp]
  005a7	e8 00 00 00 00	 call	 ?GetVertScaleLogType@CSelectSubGraphData@@QBE_NXZ ; CSelectSubGraphData::GetVertScaleLogType
  005ac	8b 4d 94	 mov	 ecx, DWORD PTR _this$GSCopy$1$[ebp]
  005af	0f b6 c0	 movzx	 eax, al
  005b2	50		 push	 eax
  005b3	e8 00 00 00 00	 call	 ?CalLogValue@CDraw@@IAEN_NN@Z ; CDraw::CalLogValue
  005b8	8b 4d 98	 mov	 ecx, DWORD PTR _pSelectSubGraphData$GSCopy$1$[ebp]
  005bb	8d 85 14 ff ff
	ff		 lea	 eax, DWORD PTR $T6[ebp]
  005c1	50		 push	 eax
  005c2	dd 9d 5c ff ff
	ff		 fstp	 QWORD PTR $T12[ebp]
  005c8	e8 00 00 00 00	 call	 ?GetDisplayDataVertMinMax@CSelectSubGraphData@@QBE?AVCDisplayDataMinMax@@XZ ; CSelectSubGraphData::GetDisplayDataVertMinMax
  005cd	8b c8		 mov	 ecx, eax
  005cf	ff 15 00 00 00
	00		 call	 DWORD PTR __imp_?GetDisplayMin@CDisplayDataMinMax@@QBENXZ
  005d5	8b 4d 98	 mov	 ecx, DWORD PTR _pSelectSubGraphData$GSCopy$1$[ebp]
  005d8	83 ec 08	 sub	 esp, 8
  005db	dd 1c 24	 fstp	 QWORD PTR [esp]
  005de	e8 00 00 00 00	 call	 ?GetVertScaleLogType@CSelectSubGraphData@@QBE_NXZ ; CSelectSubGraphData::GetVertScaleLogType
  005e3	8b 4d 94	 mov	 ecx, DWORD PTR _this$GSCopy$1$[ebp]
  005e6	0f b6 c0	 movzx	 eax, al
  005e9	50		 push	 eax
  005ea	e8 00 00 00 00	 call	 ?CalLogValue@CDraw@@IAEN_NN@Z ; CDraw::CalLogValue
  005ef	6a 00		 push	 0
  005f1	8d 85 7c ff ff
	ff		 lea	 eax, DWORD PTR $T18[ebp]
  005f7	50		 push	 eax
  005f8	8d 85 5c ff ff
	ff		 lea	 eax, DWORD PTR $T12[ebp]
  005fe	50		 push	 eax
  005ff	8d 85 70 ff ff
	ff		 lea	 eax, DWORD PTR $T15[ebp]
  00605	50		 push	 eax
  00606	8d 85 44 ff ff
	ff		 lea	 eax, DWORD PTR _dRealWidth$[ebp]
  0060c	50		 push	 eax
  0060d	8d 46 01	 lea	 eax, DWORD PTR [esi+1]
  00610	50		 push	 eax
  00611	8d 45 e0	 lea	 eax, DWORD PTR _graphRegion$[ebp]
  00614	50		 push	 eax
  00615	dd 9d 70 ff ff
	ff		 fstp	 QWORD PTR $T15[ebp]
  0061b	8d 85 24 ff ff
	ff		 lea	 eax, DWORD PTR _closePt$[ebp]
  00621	50		 push	 eax
  00622	e8 00 00 00 00	 call	 ?GetVerticalPoint@CDataConversion@@SA?AVCPoint@@ABVCRect@@HABN111_N@Z ; CDataConversion::GetVerticalPoint

; 490  : 
; 491  : 	//invert scale .
; 492  : 	CPoint mousePt = point;

  00627	8b b5 78 ff ff
	ff		 mov	 esi, DWORD PTR _point$GSCopy$1$[ebp]
  0062d	83 c4 20	 add	 esp, 32			; 00000020H

; 493  : 	if(pSelectSubGraphData->GetVertScaleInvertType())

  00630	8b 4d 98	 mov	 ecx, DWORD PTR _pSelectSubGraphData$GSCopy$1$[ebp]
  00633	8b 06		 mov	 eax, DWORD PTR [esi]
  00635	89 85 78 ff ff
	ff		 mov	 DWORD PTR _mousePt$2$[ebp], eax
  0063b	8b 46 04	 mov	 eax, DWORD PTR [esi+4]
  0063e	89 85 6c ff ff
	ff		 mov	 DWORD PTR _mousePt$1$[ebp], eax
  00644	e8 00 00 00 00	 call	 ?GetVertScaleInvertType@CSelectSubGraphData@@QBE_NXZ ; CSelectSubGraphData::GetVertScaleInvertType
  00649	84 c0		 test	 al, al
  0064b	74 11		 je	 SHORT $LN104@PointInBox

; 494  : 		mousePt.y = CDataConversion::InvertGraphDataPt(graphRegion, point.y);

  0064d	ff 76 04	 push	 DWORD PTR [esi+4]
  00650	8d 45 e0	 lea	 eax, DWORD PTR _graphRegion$[ebp]
  00653	50		 push	 eax
  00654	e8 00 00 00 00	 call	 ?InvertGraphDataPt@CDataConversion@@SAHABVCRect@@H@Z ; CDataConversion::InvertGraphDataPt
  00659	83 c4 08	 add	 esp, 8
  0065c	eb 06		 jmp	 SHORT $LN14@PointInBox
$LN104@PointInBox:

; 493  : 	if(pSelectSubGraphData->GetVertScaleInvertType())

  0065e	8b 85 6c ff ff
	ff		 mov	 eax, DWORD PTR _mousePt$1$[ebp]
$LN14@PointInBox:

; 495  : 
; 496  : 	if(highPt.y <= mousePt.y && lowPt.y >= mousePt.y && mousePt.x >= openPt.x && mousePt.x <= closePt.x)

  00664	39 85 40 ff ff
	ff		 cmp	 DWORD PTR _highPt$[ebp+4], eax
  0066a	7f 1e		 jg	 SHORT $LN13@PointInBox
  0066c	39 85 38 ff ff
	ff		 cmp	 DWORD PTR _lowPt$[ebp+4], eax
  00672	7c 16		 jl	 SHORT $LN13@PointInBox
  00674	8b 85 78 ff ff
	ff		 mov	 eax, DWORD PTR _mousePt$2$[ebp]
  0067a	3b 85 2c ff ff
	ff		 cmp	 eax, DWORD PTR _openPt$[ebp]
  00680	7c 08		 jl	 SHORT $LN13@PointInBox
  00682	3b 85 24 ff ff
	ff		 cmp	 eax, DWORD PTR _closePt$[ebp]
  00688	7e 03		 jle	 SHORT $LN20@PointInBox
$LN13@PointInBox:

; 497  : 		return nDataIndex;
; 498  : 		
; 499  : 	return -1;

  0068a	83 cf ff	 or	 edi, -1
$LN20@PointInBox:
  0068d	8d 8d dc fe ff
	ff		 lea	 ecx, DWORD PTR _barDraw$[ebp]
  00693	e8 00 00 00 00	 call	 ??1CBarDraw@@UAE@XZ	; CBarDraw::~CBarDraw
  00698	8b c7		 mov	 eax, edi
  0069a	eb 03		 jmp	 SHORT $LN1@PointInBox
$LN103@PointInBox:

; 446  : 	if(pPacket == NULL)	return -1;

  0069c	83 c8 ff	 or	 eax, -1
$LN1@PointInBox:

; 500  : }

  0069f	8b 4d f4	 mov	 ecx, DWORD PTR __$EHRec$[ebp]
  006a2	64 89 0d 00 00
	00 00		 mov	 DWORD PTR fs:0, ecx
  006a9	59		 pop	 ecx
  006aa	5f		 pop	 edi
  006ab	5e		 pop	 esi
  006ac	8b 4d f0	 mov	 ecx, DWORD PTR __$ArrayPad$[ebp]
  006af	33 cd		 xor	 ecx, ebp
  006b1	e8 00 00 00 00	 call	 @__security_check_cookie@4
  006b6	8b e5		 mov	 esp, ebp
  006b8	5d		 pop	 ebp
  006b9	c2 0c 00	 ret	 12			; 0000000cH
_TEXT	ENDS
;	COMDAT text$x
text$x	SEGMENT
__unwindfunclet$?PointInBoxBarGraph@CSelectSubGraph@@AAEHABVCPoint@@PBVCSelectSubGraphData@@PAVCIndicatorList@@@Z$0:
  00000	8d 8d dc fe ff
	ff		 lea	 ecx, DWORD PTR _barDraw$[ebp]
  00006	e9 00 00 00 00	 jmp	 ??1CBarDraw@@UAE@XZ	; CBarDraw::~CBarDraw
  0000b	cc		 int	 3
  0000c	cc		 int	 3
  0000d	cc		 int	 3
  0000e	cc		 int	 3
  0000f	cc		 int	 3
__ehhandler$?PointInBoxBarGraph@CSelectSubGraph@@AAEHABVCPoint@@PBVCSelectSubGraphData@@PAVCIndicatorList@@@Z:
  00010	90		 npad	 1
  00011	90		 npad	 1
  00012	8b 54 24 08	 mov	 edx, DWORD PTR [esp+8]
  00016	8d 42 0c	 lea	 eax, DWORD PTR [edx+12]
  00019	8b 8a dc fe ff
	ff		 mov	 ecx, DWORD PTR [edx-292]
  0001f	33 c8		 xor	 ecx, eax
  00021	e8 00 00 00 00	 call	 @__security_check_cookie@4
  00026	8b 4a fc	 mov	 ecx, DWORD PTR [edx-4]
  00029	33 c8		 xor	 ecx, eax
  0002b	e8 00 00 00 00	 call	 @__security_check_cookie@4
  00030	b8 00 00 00 00	 mov	 eax, OFFSET __ehfuncinfo$?PointInBoxBarGraph@CSelectSubGraph@@AAEHABVCPoint@@PBVCSelectSubGraphData@@PAVCIndicatorList@@@Z
  00035	e9 00 00 00 00	 jmp	 ___CxxFrameHandler3
text$x	ENDS
?PointInBoxBarGraph@CSelectSubGraph@@AAEHABVCPoint@@PBVCSelectSubGraphData@@PAVCIndicatorList@@@Z ENDP ; CSelectSubGraph::PointInBoxBarGraph
; Function compile flags: /Ogtp
; File D:\git\src\IBK\IBK_DRFN\ProjSrc\SrcChartEx\ChartOCX\GraphDraw\SelectSubGraph.cpp
; File C:\Program Files (x86)\Microsoft Visual Studio\2019\Community\VC\Tools\MSVC\14.29.30133\atlmfc\include\afxtempl.h
; File D:\git\src\IBK\IBK_DRFN\ProjSrc\SrcChartEx\ChartOCX\GraphDraw\SelectSubGraph.cpp
; File D:\git\src\IBK\IBK_DRFN\ProjSrc\SrcChartEx\ChartOCX\Include_Chart\BlockBaseData.h
; File D:\git\src\IBK\IBK_DRFN\ProjSrc\SrcChartEx\ChartOCX\GraphDraw\SelectSubGraph.cpp
;	COMDAT ?PointInTopBottomSignalGraph@CSelectSubGraph@@AAEHABVCPoint@@PBVCSelectSubGraphData@@@Z
_TEXT	SEGMENT
$T1 = -196						; size = 16
$T2 = -180						; size = 16
_realWidth$ = -164					; size = 8
_point$GSCopy$1$ = -156					; size = 4
tv740 = -152						; size = 4
$T3 = -152						; size = 4
$T4 = -148						; size = 8
_pointPacket$1$ = -144					; size = 4
_dataPt$ = -140						; size = 8
$T5 = -132						; size = 8
_dataStart$1$ = -128					; size = 4
_pointPos$1$ = -124					; size = 4
_dataPacket$1$ = -124					; size = 4
_dData$1$ = -120					; size = 8
$T6 = -120						; size = 8
$T7 = -120						; size = 8
$T8 = -120						; size = 8
_pageDataCount$1$ = -116				; size = 4
_pSelectSubGraphData$GSCopy$1$ = -112			; size = 4
_this$GSCopy$1$ = -108					; size = 4
$T9 = -104						; size = 68
_graphRegion$ = -36					; size = 16
_drawingRegion$ = -20					; size = 16
$T10 = -12						; size = 8
_dataPos$1$ = -8					; size = 4
$T11 = -8						; size = 4
__$ArrayPad$ = -4					; size = 4
_point$ = 8						; size = 4
_pSelectSubGraphData$ = 12				; size = 4
?PointInTopBottomSignalGraph@CSelectSubGraph@@AAEHABVCPoint@@PBVCSelectSubGraphData@@@Z PROC ; CSelectSubGraph::PointInTopBottomSignalGraph, COMDAT
; _this$ = ecx

; 860  : {

  00000	55		 push	 ebp
  00001	8b ec		 mov	 ebp, esp
  00003	81 ec c4 00 00
	00		 sub	 esp, 196		; 000000c4H
  00009	a1 00 00 00 00	 mov	 eax, DWORD PTR ___security_cookie
  0000e	33 c5		 xor	 eax, ebp
  00010	89 45 fc	 mov	 DWORD PTR __$ArrayPad$[ebp], eax
  00013	53		 push	 ebx
  00014	8b 5d 0c	 mov	 ebx, DWORD PTR _pSelectSubGraphData$[ebp]

; 861  : 	bool checkUpDown = true;
; 862  : 	if(pSelectSubGraphData->GetSubGraphStyle().GetGraphDataViewStyle() == CGraphBaseData::BottomSignal)

  00017	8d 85 68 ff ff
	ff		 lea	 eax, DWORD PTR $T3[ebp]
  0001d	56		 push	 esi
  0001e	8b 75 08	 mov	 esi, DWORD PTR _point$[ebp]
  00021	57		 push	 edi
  00022	89 4d 94	 mov	 DWORD PTR _this$GSCopy$1$[ebp], ecx
  00025	8b cb		 mov	 ecx, ebx
  00027	50		 push	 eax
  00028	89 b5 64 ff ff
	ff		 mov	 DWORD PTR _point$GSCopy$1$[ebp], esi
  0002e	89 5d 90	 mov	 DWORD PTR _pSelectSubGraphData$GSCopy$1$[ebp], ebx
  00031	e8 00 00 00 00	 call	 ?GetSubGraphStyle@CSelectSubGraphData@@QBE?AVCGraphStyle@@XZ ; CSelectSubGraphData::GetSubGraphStyle

; 863  : 		checkUpDown = false;
; 864  : 
; 865  : 	const CList< CPacket *, CPacket *> &packetList = pSelectSubGraphData->GetSubGraphPacketList()->GetSubGraphPacketList();

  00036	8b cb		 mov	 ecx, ebx
  00038	8b 00		 mov	 eax, DWORD PTR [eax]
  0003a	89 85 68 ff ff
	ff		 mov	 DWORD PTR tv740[ebp], eax
  00040	e8 00 00 00 00	 call	 ?GetSubGraphPacketList@CSelectSubGraphData@@QBEPAVCSubGraphPacketList@@XZ ; CSelectSubGraphData::GetSubGraphPacketList
  00045	8b c8		 mov	 ecx, eax
  00047	e8 00 00 00 00	 call	 ?GetSubGraphPacketList@CSubGraphPacketList@@QBEABV?$CList@PAVCPacket@@PAV1@@@XZ ; CSubGraphPacketList::GetSubGraphPacketList

; 866  : 	if(packetList.GetCount() <= 0)

  0004c	83 78 0c 00	 cmp	 DWORD PTR [eax+12], 0
  00050	0f 8e ae 00 00
	00		 jle	 $LN7@PointInTop

; 867  : 		return -1;
; 868  : 
; 869  : 	CPacket* dataPacket = NULL;
; 870  : 	CPacket* pointPacket = NULL;
; 871  : 	POSITION pos = packetList.GetHeadPosition();

  00056	8b 40 04	 mov	 eax, DWORD PTR [eax+4]

; 872  : 	if(pos == NULL)	

  00059	85 c0		 test	 eax, eax
  0005b	0f 84 a3 00 00
	00		 je	 $LN7@PointInTop
; File C:\Program Files (x86)\Microsoft Visual Studio\2019\Community\VC\Tools\MSVC\14.29.30133\atlmfc\include\afxtempl.h

; 819  : 		rPosition = (POSITION) pNode->pNext;

  00061	8b 08		 mov	 ecx, DWORD PTR [eax]
; File D:\git\src\IBK\IBK_DRFN\ProjSrc\SrcChartEx\ChartOCX\GraphDraw\SelectSubGraph.cpp

; 874  : 	dataPacket = packetList.GetNext(pos);

  00063	8b 40 08	 mov	 eax, DWORD PTR [eax+8]
  00066	89 45 84	 mov	 DWORD PTR _dataPacket$1$[ebp], eax

; 875  : 	if(pos == NULL)	

  00069	85 c9		 test	 ecx, ecx
  0006b	0f 84 93 00 00
	00		 je	 $LN7@PointInTop

; 876  : 		return -1;
; 877  : 	pointPacket = packetList.GetNext(pos);

  00071	8b 41 08	 mov	 eax, DWORD PTR [ecx+8]

; 878  : 
; 879  : 	int dataStart = pSelectSubGraphData->GetDisplayAttributes().GetDataStartInBlock();

  00074	8b cb		 mov	 ecx, ebx
  00076	89 85 70 ff ff
	ff		 mov	 DWORD PTR _pointPacket$1$[ebp], eax
  0007c	8d 45 88	 lea	 eax, DWORD PTR $T8[ebp]
  0007f	50		 push	 eax
  00080	e8 00 00 00 00	 call	 ?GetDisplayAttributes@CSelectSubGraphData@@QBE?AVCDisplayAttributes@@XZ ; CSelectSubGraphData::GetDisplayAttributes
  00085	8b c8		 mov	 ecx, eax
  00087	e8 00 00 00 00	 call	 ?GetDataStartInBlock@CDisplayAttributes@@QBEHXZ ; CDisplayAttributes::GetDataStartInBlock
  0008c	89 45 80	 mov	 DWORD PTR _dataStart$1$[ebp], eax

; 880  : 	int dataEnd = pSelectSubGraphData->GetDisplayAttributes().GetDataEndInBlock();

  0008f	8b cb		 mov	 ecx, ebx
  00091	8d 45 88	 lea	 eax, DWORD PTR $T7[ebp]
  00094	50		 push	 eax
  00095	e8 00 00 00 00	 call	 ?GetDisplayAttributes@CSelectSubGraphData@@QBE?AVCDisplayAttributes@@XZ ; CSelectSubGraphData::GetDisplayAttributes
  0009a	8b c8		 mov	 ecx, eax
  0009c	e8 00 00 00 00	 call	 ?GetDataEndInBlock@CDisplayAttributes@@QBEHXZ ; CDisplayAttributes::GetDataEndInBlock
  000a1	8b f8		 mov	 edi, eax

; 881  : 	int pageDataCount = pSelectSubGraphData->GetDisplayAttributes().GetDataCountInBlock();

  000a3	8b cb		 mov	 ecx, ebx
  000a5	8d 45 88	 lea	 eax, DWORD PTR $T6[ebp]
  000a8	50		 push	 eax
  000a9	e8 00 00 00 00	 call	 ?GetDisplayAttributes@CSelectSubGraphData@@QBE?AVCDisplayAttributes@@XZ ; CSelectSubGraphData::GetDisplayAttributes
  000ae	8b c8		 mov	 ecx, eax
  000b0	e8 00 00 00 00	 call	 ?GetDataCountInBlock@CDisplayAttributes@@QBEHXZ ; CDisplayAttributes::GetDataCountInBlock
  000b5	89 45 8c	 mov	 DWORD PTR _pageDataCount$1$[ebp], eax

; 883  : 	CRect graphRegion = pSelectSubGraphData->GetGraphRegions().GetDrawingRegion();

  000b8	8b cb		 mov	 ecx, ebx
  000ba	8d 45 f8	 lea	 eax, DWORD PTR $T11[ebp]
; File D:\git\src\IBK\IBK_DRFN\ProjSrc\SrcChartEx\ChartOCX\Include_Chart\BlockBaseData.h

; 43   : 	CGraphStyle(const int style) { m_nStyle = style; };

  000bd	c7 45 f8 ff ff
	ff ff		 mov	 DWORD PTR $T11[ebp], -1
; File D:\git\src\IBK\IBK_DRFN\ProjSrc\SrcChartEx\ChartOCX\GraphDraw\SelectSubGraph.cpp

; 883  : 	CRect graphRegion = pSelectSubGraphData->GetGraphRegions().GetDrawingRegion();

  000c4	50		 push	 eax
  000c5	6a ff		 push	 -1
  000c7	8d 45 dc	 lea	 eax, DWORD PTR _graphRegion$[ebp]
  000ca	50		 push	 eax
  000cb	8d 45 98	 lea	 eax, DWORD PTR $T9[ebp]
  000ce	50		 push	 eax
  000cf	e8 00 00 00 00	 call	 ?GetGraphRegions@CSelectSubGraphData@@QBE?AVCGraphRegions@@XZ ; CSelectSubGraphData::GetGraphRegions
  000d4	8b c8		 mov	 ecx, eax
  000d6	e8 00 00 00 00	 call	 ?GetDrawingRegion@CGraphRegions@@QBE?AVCRect@@W4GRAPHTYPE@CGraphBaseData@@ABVCGraphStyle@@@Z ; CGraphRegions::GetDrawingRegion

; 884  : 	int dataIndex = 0;
; 885  : 	dataIndex = GetDataIndex(graphRegion, point, dataStart, dataEnd, pageDataCount); 

  000db	0f 10 45 dc	 movups	 xmm0, XMMWORD PTR _graphRegion$[ebp]
  000df	8b 0e		 mov	 ecx, DWORD PTR [esi]
  000e1	0f 11 45 ec	 movups	 XMMWORD PTR _drawingRegion$[ebp], xmm0
  000e5	66 0f 73 d8 08	 psrldq	 xmm0, 8
  000ea	66 0f 7e c0	 movd	 eax, xmm0
  000ee	3b c1		 cmp	 eax, ecx

; 1288 : 	if(drawingRegion.right <= point.x)

  000f0	7f 28		 jg	 SHORT $LN32@PointInTop

; 1289 : 		return -1;

  000f2	8b 4d 94	 mov	 ecx, DWORD PTR _this$GSCopy$1$[ebp]
  000f5	8d 45 dc	 lea	 eax, DWORD PTR _graphRegion$[ebp]
  000f8	57		 push	 edi
  000f9	ff 75 80	 push	 DWORD PTR _dataStart$1$[ebp]
  000fc	50		 push	 eax
$LN51@PointInTop:

; 895  : 	}
; 896  : 	else
; 897  : 		return -1;

  000fd	e8 00 00 00 00	 call	 ?CalRealWidth@CDraw@@IAENABVCRect@@HH@Z ; CDraw::CalRealWidth
  00102	dd d8		 fstp	 ST(0)
$LN7@PointInTop:

; 938  : 		}
; 939  : 	}
; 940  : 	return -1;
; 941  : }

  00104	5f		 pop	 edi
  00105	5e		 pop	 esi
  00106	83 c8 ff	 or	 eax, -1
  00109	5b		 pop	 ebx
  0010a	8b 4d fc	 mov	 ecx, DWORD PTR __$ArrayPad$[ebp]
  0010d	33 cd		 xor	 ecx, ebp
  0010f	e8 00 00 00 00	 call	 @__security_check_cookie@4
  00114	8b e5		 mov	 esp, ebp
  00116	5d		 pop	 ebp
  00117	c2 08 00	 ret	 8
$LN32@PointInTop:

; 1290 : 	int index = CDataConversion::AbsoluteToRelative_X(drawingRegion, point.x, pageDataCount);

  0011a	ff 75 8c	 push	 DWORD PTR _pageDataCount$1$[ebp]
  0011d	8d 45 ec	 lea	 eax, DWORD PTR _drawingRegion$[ebp]
  00120	51		 push	 ecx
  00121	50		 push	 eax
  00122	e8 00 00 00 00	 call	 ?AbsoluteToRelative_X@CDataConversion@@SAHABVCRect@@HH@Z ; CDataConversion::AbsoluteToRelative_X
  00127	8b d8		 mov	 ebx, eax
  00129	83 c4 0c	 add	 esp, 12			; 0000000cH

; 1291 : 	if(index >= 0)

  0012c	8b 45 80	 mov	 eax, DWORD PTR _dataStart$1$[ebp]
  0012f	85 db		 test	 ebx, ebx
  00131	78 02		 js	 SHORT $LN33@PointInTop

; 1292 : 		index = dataStart + index;

  00133	03 d8		 add	 ebx, eax
$LN33@PointInTop:

; 1293 : 	if(index > dataEnd)

  00135	8b 4d 94	 mov	 ecx, DWORD PTR _this$GSCopy$1$[ebp]
  00138	57		 push	 edi
  00139	50		 push	 eax
  0013a	8d 45 dc	 lea	 eax, DWORD PTR _graphRegion$[ebp]
  0013d	50		 push	 eax
  0013e	3b df		 cmp	 ebx, edi
  00140	7f bb		 jg	 SHORT $LN51@PointInTop

; 886  : 	double realWidth = CDraw::CalRealWidth(graphRegion, dataStart, dataEnd);

  00142	e8 00 00 00 00	 call	 ?CalRealWidth@CDraw@@IAENABVCRect@@HH@Z ; CDraw::CalRealWidth
  00147	dd 9d 5c ff ff
	ff		 fstp	 QWORD PTR _realWidth$[ebp]

; 887  : 	if(dataIndex == -1)

  0014d	83 fb ff	 cmp	 ebx, -1
  00150	74 b2		 je	 SHORT $LN7@PointInTop

; 888  : 		return -1;
; 889  : 
; 890  : 	POSITION dataPos = NULL;
; 891  : 	POSITION pointPos = NULL;
; 892  : 	if(dataPacket->GetnumericDataList() && pointPacket->GetnumericDataList()){

  00152	8b 7d 84	 mov	 edi, DWORD PTR _dataPacket$1$[ebp]
  00155	8b cf		 mov	 ecx, edi
  00157	8b 35 00 00 00
	00		 mov	 esi, DWORD PTR __imp_?GetnumericDataList@CPacket@@QAEPAV?$CList@NN@@XZ
  0015d	ff d6		 call	 esi
  0015f	85 c0		 test	 eax, eax
  00161	74 a1		 je	 SHORT $LN7@PointInTop
  00163	8b 8d 70 ff ff
	ff		 mov	 ecx, DWORD PTR _pointPacket$1$[ebp]
  00169	ff d6		 call	 esi
  0016b	85 c0		 test	 eax, eax
  0016d	74 95		 je	 SHORT $LN7@PointInTop

; 893  : 		dataPos = dataPacket->GetnumericDataList()->FindIndex(dataIndex);

  0016f	53		 push	 ebx
  00170	8b cf		 mov	 ecx, edi
  00172	ff d6		 call	 esi
  00174	8b c8		 mov	 ecx, eax
  00176	e8 00 00 00 00	 call	 ?FindIndex@?$CList@NN@@QBEPAU__POSITION@@H@Z ; CList<double,double>::FindIndex

; 894  : 		pointPos = pointPacket->GetnumericDataList()->FindIndex(dataIndex);

  0017b	8b 8d 70 ff ff
	ff		 mov	 ecx, DWORD PTR _pointPacket$1$[ebp]
  00181	53		 push	 ebx
  00182	89 45 f8	 mov	 DWORD PTR _dataPos$1$[ebp], eax
  00185	ff d6		 call	 esi
  00187	8b c8		 mov	 ecx, eax
  00189	e8 00 00 00 00	 call	 ?FindIndex@?$CList@NN@@QBEPAU__POSITION@@H@Z ; CList<double,double>::FindIndex

; 898  : 	
; 899  : 	
; 900  : 	if(dataPos == NULL) 

  0018e	83 7d f8 00	 cmp	 DWORD PTR _dataPos$1$[ebp], 0
  00192	89 45 84	 mov	 DWORD PTR _pointPos$1$[ebp], eax
  00195	0f 84 69 ff ff
	ff		 je	 $LN7@PointInTop

; 901  : 		return -1;
; 902  : 
; 903  : 	double dData = dataPacket->GetnumericDataList()->GetNext(dataPos);

  0019b	8b cf		 mov	 ecx, edi
  0019d	ff d6		 call	 esi
  0019f	8b 45 f8	 mov	 eax, DWORD PTR _dataPos$1$[ebp]

; 904  : 	if(dData < 1)

  001a2	f2 0f 10 0d 00
	00 00 00	 movsd	 xmm1, QWORD PTR __real@3ff0000000000000
  001aa	f2 0f 10 40 08	 movsd	 xmm0, QWORD PTR [eax+8]
  001af	66 0f 2f c8	 comisd	 xmm1, xmm0
  001b3	f2 0f 11 45 88	 movsd	 QWORD PTR _dData$1$[ebp], xmm0
  001b8	0f 87 46 ff ff
	ff		 ja	 $LN7@PointInTop

; 905  : 		return -1;
; 906  : 	
; 907  : 	int nWidth = CMath::Round(realWidth/* 2/3*/);

  001be	f2 0f 10 85 5c
	ff ff ff	 movsd	 xmm0, QWORD PTR _realWidth$[ebp]
  001c6	83 ec 08	 sub	 esp, 8
  001c9	f2 0f 11 04 24	 movsd	 QWORD PTR [esp], xmm0
  001ce	e8 00 00 00 00	 call	 ?Round@CMath@@SAHN@Z	; CMath::Round
  001d3	8b f8		 mov	 edi, eax
  001d5	83 c4 08	 add	 esp, 8

; 908  : 	if(nWidth > 15)

  001d8	83 ff 0f	 cmp	 edi, 15			; 0000000fH
  001db	7e 07		 jle	 SHORT $LN11@PointInTop

; 909  : 		nWidth = 15;

  001dd	bf 0f 00 00 00	 mov	 edi, 15			; 0000000fH
  001e2	eb 0a		 jmp	 SHORT $LN13@PointInTop
$LN11@PointInTop:

; 910  : 	else if(nWidth < 10)

  001e4	b8 0a 00 00 00	 mov	 eax, 10			; 0000000aH
  001e9	3b f8		 cmp	 edi, eax
  001eb	0f 4c f8	 cmovl	 edi, eax
$LN13@PointInTop:

; 1324 : 	return (dataIndex - dataStart);

  001ee	8b 45 80	 mov	 eax, DWORD PTR _dataStart$1$[ebp]
  001f1	8b f3		 mov	 esi, ebx

; 911  : 		nWidth = 10;
; 912  : 
; 913  : 	int nIndex = GetIndex(dataIndex, dataStart);
; 914  : 	CPoint dataPt = CDataConversion::GetVerticalPoint(graphRegion, nIndex, realWidth, CDraw::CalLogValue(pSelectSubGraphData->GetVertScaleLogType(), pSelectSubGraphData->GetDisplayDataVertMinMax().GetDisplayMin()), CDraw::CalLogValue(pSelectSubGraphData->GetVertScaleLogType(), pSelectSubGraphData->GetDisplayDataVertMinMax().GetDisplayMax()), CDraw::CalLogValue(pSelectSubGraphData->GetVertScaleLogType(), pointPacket->GetnumericDataList()->GetNext(pointPos)));

  001f3	8b 8d 70 ff ff
	ff		 mov	 ecx, DWORD PTR _pointPacket$1$[ebp]

; 1324 : 	return (dataIndex - dataStart);

  001f9	2b f0		 sub	 esi, eax
  001fb	3b d8		 cmp	 ebx, eax
  001fd	0f 4c f0	 cmovl	 esi, eax

; 911  : 		nWidth = 10;
; 912  : 
; 913  : 	int nIndex = GetIndex(dataIndex, dataStart);
; 914  : 	CPoint dataPt = CDataConversion::GetVerticalPoint(graphRegion, nIndex, realWidth, CDraw::CalLogValue(pSelectSubGraphData->GetVertScaleLogType(), pSelectSubGraphData->GetDisplayDataVertMinMax().GetDisplayMin()), CDraw::CalLogValue(pSelectSubGraphData->GetVertScaleLogType(), pSelectSubGraphData->GetDisplayDataVertMinMax().GetDisplayMax()), CDraw::CalLogValue(pSelectSubGraphData->GetVertScaleLogType(), pointPacket->GetnumericDataList()->GetNext(pointPos)));

  00200	ff 15 00 00 00
	00		 call	 DWORD PTR __imp_?GetnumericDataList@CPacket@@QAEPAV?$CList@NN@@XZ
  00206	8b 45 84	 mov	 eax, DWORD PTR _pointPos$1$[ebp]
  00209	83 ec 08	 sub	 esp, 8
  0020c	8b 4d 90	 mov	 ecx, DWORD PTR _pSelectSubGraphData$GSCopy$1$[ebp]
  0020f	f2 0f 10 40 08	 movsd	 xmm0, QWORD PTR [eax+8]
  00214	f2 0f 11 04 24	 movsd	 QWORD PTR [esp], xmm0
  00219	e8 00 00 00 00	 call	 ?GetVertScaleLogType@CSelectSubGraphData@@QBE_NXZ ; CSelectSubGraphData::GetVertScaleLogType
  0021e	8b 4d 94	 mov	 ecx, DWORD PTR _this$GSCopy$1$[ebp]
  00221	0f b6 c0	 movzx	 eax, al
  00224	50		 push	 eax
  00225	e8 00 00 00 00	 call	 ?CalLogValue@CDraw@@IAEN_NN@Z ; CDraw::CalLogValue
  0022a	8b 4d 90	 mov	 ecx, DWORD PTR _pSelectSubGraphData$GSCopy$1$[ebp]
  0022d	8d 85 4c ff ff
	ff		 lea	 eax, DWORD PTR $T2[ebp]
  00233	50		 push	 eax
  00234	dd 5d f4	 fstp	 QWORD PTR $T10[ebp]
  00237	e8 00 00 00 00	 call	 ?GetDisplayDataVertMinMax@CSelectSubGraphData@@QBE?AVCDisplayDataMinMax@@XZ ; CSelectSubGraphData::GetDisplayDataVertMinMax
  0023c	8b c8		 mov	 ecx, eax
  0023e	ff 15 00 00 00
	00		 call	 DWORD PTR __imp_?GetDisplayMax@CDisplayDataMinMax@@QBENXZ
  00244	8b 4d 90	 mov	 ecx, DWORD PTR _pSelectSubGraphData$GSCopy$1$[ebp]
  00247	83 ec 08	 sub	 esp, 8
  0024a	dd 1c 24	 fstp	 QWORD PTR [esp]
  0024d	e8 00 00 00 00	 call	 ?GetVertScaleLogType@CSelectSubGraphData@@QBE_NXZ ; CSelectSubGraphData::GetVertScaleLogType
  00252	8b 4d 94	 mov	 ecx, DWORD PTR _this$GSCopy$1$[ebp]
  00255	0f b6 c0	 movzx	 eax, al
  00258	50		 push	 eax
  00259	e8 00 00 00 00	 call	 ?CalLogValue@CDraw@@IAEN_NN@Z ; CDraw::CalLogValue
  0025e	8b 4d 90	 mov	 ecx, DWORD PTR _pSelectSubGraphData$GSCopy$1$[ebp]
  00261	8d 85 3c ff ff
	ff		 lea	 eax, DWORD PTR $T1[ebp]
  00267	50		 push	 eax
  00268	dd 9d 6c ff ff
	ff		 fstp	 QWORD PTR $T4[ebp]
  0026e	e8 00 00 00 00	 call	 ?GetDisplayDataVertMinMax@CSelectSubGraphData@@QBE?AVCDisplayDataMinMax@@XZ ; CSelectSubGraphData::GetDisplayDataVertMinMax
  00273	8b c8		 mov	 ecx, eax
  00275	ff 15 00 00 00
	00		 call	 DWORD PTR __imp_?GetDisplayMin@CDisplayDataMinMax@@QBENXZ
  0027b	8b 4d 90	 mov	 ecx, DWORD PTR _pSelectSubGraphData$GSCopy$1$[ebp]
  0027e	83 ec 08	 sub	 esp, 8
  00281	dd 1c 24	 fstp	 QWORD PTR [esp]
  00284	e8 00 00 00 00	 call	 ?GetVertScaleLogType@CSelectSubGraphData@@QBE_NXZ ; CSelectSubGraphData::GetVertScaleLogType
  00289	8b 4d 94	 mov	 ecx, DWORD PTR _this$GSCopy$1$[ebp]
  0028c	0f b6 c0	 movzx	 eax, al
  0028f	50		 push	 eax
  00290	e8 00 00 00 00	 call	 ?CalLogValue@CDraw@@IAEN_NN@Z ; CDraw::CalLogValue
  00295	6a 01		 push	 1
  00297	8d 45 f4	 lea	 eax, DWORD PTR $T10[ebp]
  0029a	50		 push	 eax
  0029b	8d 85 6c ff ff
	ff		 lea	 eax, DWORD PTR $T4[ebp]
  002a1	50		 push	 eax
  002a2	8d 85 7c ff ff
	ff		 lea	 eax, DWORD PTR $T5[ebp]
  002a8	50		 push	 eax
  002a9	8d 85 5c ff ff
	ff		 lea	 eax, DWORD PTR _realWidth$[ebp]
  002af	50		 push	 eax
  002b0	56		 push	 esi
  002b1	8d 45 dc	 lea	 eax, DWORD PTR _graphRegion$[ebp]
  002b4	50		 push	 eax
  002b5	8d 85 74 ff ff
	ff		 lea	 eax, DWORD PTR _dataPt$[ebp]
  002bb	50		 push	 eax
  002bc	dd 9d 7c ff ff
	ff		 fstp	 QWORD PTR $T5[ebp]
  002c2	e8 00 00 00 00	 call	 ?GetVerticalPoint@CDataConversion@@SA?AVCPoint@@ABVCRect@@HABN111_N@Z ; CDataConversion::GetVerticalPoint

; 915  : 
; 916  : 	int unit = 2;

  002c7	8b b5 64 ff ff
	ff		 mov	 esi, DWORD PTR _point$GSCopy$1$[ebp]
  002cd	83 c4 20	 add	 esp, 32			; 00000020H

; 917  : 	
; 918  : 	if(checkUpDown){

  002d0	83 bd 68 ff ff
	ff 04		 cmp	 DWORD PTR tv740[ebp], 4
  002d7	8b 8d 78 ff ff
	ff		 mov	 ecx, DWORD PTR _dataPt$[ebp+4]
  002dd	8b 56 04	 mov	 edx, DWORD PTR [esi+4]
  002e0	74 43		 je	 SHORT $LN14@PointInTop

; 919  : 		dataPt.y = dataPt.y - 4;

  002e2	83 c1 fc	 add	 ecx, -4			; fffffffcH
  002e5	8d 41 02	 lea	 eax, DWORD PTR [ecx+2]

; 921  : 			if(point.y <= dataPt.y + unit && point.y >= dataPt.y - nWidth - unit && point.x >= dataPt.x - nWidth -unit && point.x <= dataPt.x + nWidth + unit)

  002e8	3b d0		 cmp	 edx, eax
  002ea	0f 8f 14 fe ff
	ff		 jg	 $LN7@PointInTop

; 920  : 		if(dData == 1){

  002f0	f2 0f 10 45 88	 movsd	 xmm0, QWORD PTR _dData$1$[ebp]
  002f5	66 0f 2e 05 00
	00 00 00	 ucomisd xmm0, QWORD PTR __real@3ff0000000000000
  002fd	9f		 lahf
  002fe	f6 c4 44	 test	 ah, 68			; 00000044H
  00301	7a 0f		 jp	 SHORT $LN16@PointInTop

; 921  : 			if(point.y <= dataPt.y + unit && point.y >= dataPt.y - nWidth - unit && point.x >= dataPt.x - nWidth -unit && point.x <= dataPt.x + nWidth + unit)

  00303	2b cf		 sub	 ecx, edi
  00305	83 e9 02	 sub	 ecx, 2
  00308	3b d1		 cmp	 edx, ecx
  0030a	0f 8c f4 fd ff
	ff		 jl	 $LN7@PointInTop
  00310	eb 43		 jmp	 SHORT $LN48@PointInTop
$LN16@PointInTop:

; 922  : 				return dataIndex;
; 923  : 		}
; 924  : 		else{
; 925  : 			if(point.y <= dataPt.y + unit&& point.y >= dataPt.y - nWidth*2 - unit && point.x >= dataPt.x - nWidth - unit && point.x <= dataPt.x + nWidth + unit)

  00312	8d 04 7d 02 00
	00 00		 lea	 eax, DWORD PTR [edi*2+2]
  00319	2b c8		 sub	 ecx, eax
  0031b	3b d1		 cmp	 edx, ecx
  0031d	0f 8c e1 fd ff
	ff		 jl	 $LN7@PointInTop
  00323	eb 30		 jmp	 SHORT $LN48@PointInTop
$LN14@PointInTop:

; 926  : 				return dataIndex;
; 927  : 		}
; 928  : 	}
; 929  : 	else{
; 930  : 		dataPt.y = dataPt.y + 4;

  00325	8d 41 02	 lea	 eax, DWORD PTR [ecx+2]

; 932  : 			if(point.y >= dataPt.y - unit && point.y <= dataPt.y + nWidth + unit && point.x >= dataPt.x - nWidth - unit && point.x <= dataPt.x + nWidth + unit)

  00328	3b d0		 cmp	 edx, eax
  0032a	0f 8c d4 fd ff
	ff		 jl	 $LN7@PointInTop

; 931  : 		if(dData == 1){

  00330	f2 0f 10 45 88	 movsd	 xmm0, QWORD PTR _dData$1$[ebp]
  00335	66 0f 2e 05 00
	00 00 00	 ucomisd xmm0, QWORD PTR __real@3ff0000000000000
  0033d	9f		 lahf
  0033e	f6 c4 44	 test	 ah, 68			; 00000044H
  00341	8d 41 06	 lea	 eax, DWORD PTR [ecx+6]
  00344	7a 04		 jp	 SHORT $LN20@PointInTop

; 932  : 			if(point.y >= dataPt.y - unit && point.y <= dataPt.y + nWidth + unit && point.x >= dataPt.x - nWidth - unit && point.x <= dataPt.x + nWidth + unit)

  00346	03 c7		 add	 eax, edi
  00348	eb 03		 jmp	 SHORT $LN50@PointInTop
$LN20@PointInTop:

; 933  : 				return dataIndex;
; 934  : 		}
; 935  : 		else{
; 936  : 			if(point.y >= dataPt.y - unit && point.y <= dataPt.y + nWidth*2 + unit && point.x >= dataPt.x - nWidth - unit && point.x <= dataPt.x + nWidth + unit)

  0034a	8d 04 78	 lea	 eax, DWORD PTR [eax+edi*2]
$LN50@PointInTop:

; 937  : 				return dataIndex;

  0034d	3b d0		 cmp	 edx, eax
  0034f	0f 8f af fd ff
	ff		 jg	 $LN7@PointInTop
$LN48@PointInTop:
  00355	8b 95 74 ff ff
	ff		 mov	 edx, DWORD PTR _dataPt$[ebp]
  0035b	8b c2		 mov	 eax, edx
  0035d	8b 0e		 mov	 ecx, DWORD PTR [esi]
  0035f	2b c7		 sub	 eax, edi
  00361	83 e8 02	 sub	 eax, 2
  00364	3b c8		 cmp	 ecx, eax
  00366	0f 8c 98 fd ff
	ff		 jl	 $LN7@PointInTop
  0036c	8d 42 02	 lea	 eax, DWORD PTR [edx+2]
  0036f	03 c7		 add	 eax, edi
  00371	3b c8		 cmp	 ecx, eax
  00373	0f 8f 8b fd ff
	ff		 jg	 $LN7@PointInTop

; 938  : 		}
; 939  : 	}
; 940  : 	return -1;
; 941  : }

  00379	8b 4d fc	 mov	 ecx, DWORD PTR __$ArrayPad$[ebp]
  0037c	8b c3		 mov	 eax, ebx
  0037e	5f		 pop	 edi
  0037f	5e		 pop	 esi
  00380	33 cd		 xor	 ecx, ebp
  00382	5b		 pop	 ebx
  00383	e8 00 00 00 00	 call	 @__security_check_cookie@4
  00388	8b e5		 mov	 esp, ebp
  0038a	5d		 pop	 ebp
  0038b	c2 08 00	 ret	 8
?PointInTopBottomSignalGraph@CSelectSubGraph@@AAEHABVCPoint@@PBVCSelectSubGraphData@@@Z ENDP ; CSelectSubGraph::PointInTopBottomSignalGraph
_TEXT	ENDS
; Function compile flags: /Ogtp
; File D:\git\src\IBK\IBK_DRFN\ProjSrc\SrcChartEx\ChartOCX\GraphDraw\SelectSubGraph.cpp
; File D:\git\src\IBK\IBK_DRFN\ProjSrc\SrcChartEx\ChartOCX\Include_Chart\BlockBaseData.h
; File D:\git\src\IBK\IBK_DRFN\ProjSrc\SrcChartEx\ChartOCX\GraphDraw\SelectSubGraph.cpp
; File C:\Program Files (x86)\Microsoft Visual Studio\2019\Community\VC\Tools\MSVC\14.29.30133\atlmfc\include\afxtempl.h
; File D:\git\src\IBK\IBK_DRFN\ProjSrc\SrcChartEx\ChartOCX\GraphDraw\SelectSubGraph.cpp
;	COMDAT ?PointInDotBarGraph@CSelectSubGraph@@AAEHABVCPoint@@PBVCSelectSubGraphData@@PAVCIndicatorList@@@Z
_TEXT	SEGMENT
_dataViewMin$ = -160					; size = 8
_dataViewMax$ = -152					; size = 8
_dataPt$ = -144						; size = 8
_realWidth$ = -136					; size = 8
_point$GSCopy$1$ = -128					; size = 4
_dataPacket$1$ = -124					; size = 4
_dataEnd$1$ = -120					; size = 4
_dataStart$1$ = -116					; size = 4
_pSelectSubGraphData$GSCopy$1$ = -112			; size = 4
_mousePoint$2$ = -112					; size = 4
_this$GSCopy$1$ = -108					; size = 4
$T1 = -104						; size = 68
_graphRegion$ = -36					; size = 16
_drawingRegion$ = -20					; size = 16
$T2 = -20						; size = 16
$T3 = -20						; size = 16
$T4 = -12						; size = 8
$T5 = -12						; size = 8
$T6 = -12						; size = 8
$T7 = -12						; size = 8
_mousePoint$1$ = -8					; size = 4
$T8 = -8						; size = 4
__$ArrayPad$ = -4					; size = 4
_point$ = 8						; size = 4
_pSelectSubGraphData$ = 12				; size = 4
_pIndicatorList$ = 16					; size = 4
?PointInDotBarGraph@CSelectSubGraph@@AAEHABVCPoint@@PBVCSelectSubGraphData@@PAVCIndicatorList@@@Z PROC ; CSelectSubGraph::PointInDotBarGraph, COMDAT
; _this$ = ecx

; 279  : {			

  00000	55		 push	 ebp
  00001	8b ec		 mov	 ebp, esp
  00003	81 ec a0 00 00
	00		 sub	 esp, 160		; 000000a0H
  00009	a1 00 00 00 00	 mov	 eax, DWORD PTR ___security_cookie
  0000e	33 c5		 xor	 eax, ebp
  00010	89 45 fc	 mov	 DWORD PTR __$ArrayPad$[ebp], eax
  00013	53		 push	 ebx
  00014	8b 5d 0c	 mov	 ebx, DWORD PTR _pSelectSubGraphData$[ebp]
  00017	56		 push	 esi
  00018	8b 75 08	 mov	 esi, DWORD PTR _point$[ebp]
  0001b	89 4d 94	 mov	 DWORD PTR _this$GSCopy$1$[ebp], ecx

; 280  : 	const CList< CPacket *, CPacket *> &packetList = pSelectSubGraphData->GetSubGraphPacketList()->GetSubGraphPacketList();

  0001e	8b cb		 mov	 ecx, ebx
  00020	57		 push	 edi
  00021	89 75 80	 mov	 DWORD PTR _point$GSCopy$1$[ebp], esi
  00024	89 5d 90	 mov	 DWORD PTR _pSelectSubGraphData$GSCopy$1$[ebp], ebx
  00027	e8 00 00 00 00	 call	 ?GetSubGraphPacketList@CSelectSubGraphData@@QBEPAVCSubGraphPacketList@@XZ ; CSelectSubGraphData::GetSubGraphPacketList
  0002c	8b c8		 mov	 ecx, eax
  0002e	e8 00 00 00 00	 call	 ?GetSubGraphPacketList@CSubGraphPacketList@@QBEABV?$CList@PAVCPacket@@PAV1@@@XZ ; CSubGraphPacketList::GetSubGraphPacketList

; 281  : 	if(packetList.GetCount() <= 0)

  00033	83 78 0c 00	 cmp	 DWORD PTR [eax+12], 0
  00037	0f 8e 53 02 00
	00		 jle	 $LN7@PointInDot

; 282  : 		return -1;
; 283  : 	POSITION Pos = packetList.GetHeadPosition();

  0003d	8b 40 04	 mov	 eax, DWORD PTR [eax+4]

; 284  : 	if(Pos == NULL)

  00040	85 c0		 test	 eax, eax
  00042	0f 84 48 02 00
	00		 je	 $LN7@PointInDot

; 285  : 		return -1;
; 286  : 	CPacket* dataPacket;
; 287  : 	dataPacket = packetList.GetNext(Pos);

  00048	8b 40 08	 mov	 eax, DWORD PTR [eax+8]

; 288  : 
; 289  : 	int dataStart = pSelectSubGraphData->GetDisplayAttributes().GetDataStartInBlock();

  0004b	8b cb		 mov	 ecx, ebx
  0004d	89 45 84	 mov	 DWORD PTR _dataPacket$1$[ebp], eax
  00050	8d 45 f4	 lea	 eax, DWORD PTR $T7[ebp]
  00053	50		 push	 eax
  00054	e8 00 00 00 00	 call	 ?GetDisplayAttributes@CSelectSubGraphData@@QBE?AVCDisplayAttributes@@XZ ; CSelectSubGraphData::GetDisplayAttributes
  00059	8b c8		 mov	 ecx, eax
  0005b	e8 00 00 00 00	 call	 ?GetDataStartInBlock@CDisplayAttributes@@QBEHXZ ; CDisplayAttributes::GetDataStartInBlock
  00060	89 45 8c	 mov	 DWORD PTR _dataStart$1$[ebp], eax

; 290  : 	int dataEnd = pSelectSubGraphData->GetDisplayAttributes().GetDataEndInBlock();

  00063	8b cb		 mov	 ecx, ebx
  00065	8d 45 f4	 lea	 eax, DWORD PTR $T6[ebp]
  00068	50		 push	 eax
  00069	e8 00 00 00 00	 call	 ?GetDisplayAttributes@CSelectSubGraphData@@QBE?AVCDisplayAttributes@@XZ ; CSelectSubGraphData::GetDisplayAttributes
  0006e	8b c8		 mov	 ecx, eax
  00070	e8 00 00 00 00	 call	 ?GetDataEndInBlock@CDisplayAttributes@@QBEHXZ ; CDisplayAttributes::GetDataEndInBlock
  00075	89 45 88	 mov	 DWORD PTR _dataEnd$1$[ebp], eax

; 291  : 	int pageDataCount = pSelectSubGraphData->GetDisplayAttributes().GetDataCountInBlock();

  00078	8b cb		 mov	 ecx, ebx
  0007a	8d 45 f4	 lea	 eax, DWORD PTR $T5[ebp]
  0007d	50		 push	 eax
  0007e	e8 00 00 00 00	 call	 ?GetDisplayAttributes@CSelectSubGraphData@@QBE?AVCDisplayAttributes@@XZ ; CSelectSubGraphData::GetDisplayAttributes
  00083	8b c8		 mov	 ecx, eax
  00085	e8 00 00 00 00	 call	 ?GetDataCountInBlock@CDisplayAttributes@@QBEHXZ ; CDisplayAttributes::GetDataCountInBlock
  0008a	8b f8		 mov	 edi, eax
; File D:\git\src\IBK\IBK_DRFN\ProjSrc\SrcChartEx\ChartOCX\Include_Chart\BlockBaseData.h

; 43   : 	CGraphStyle(const int style) { m_nStyle = style; };

  0008c	c7 45 f8 ff ff
	ff ff		 mov	 DWORD PTR $T8[ebp], -1
; File D:\git\src\IBK\IBK_DRFN\ProjSrc\SrcChartEx\ChartOCX\GraphDraw\SelectSubGraph.cpp

; 292  : 	CRect graphRegion = pSelectSubGraphData->GetGraphRegions().GetDrawingRegion();

  00093	8d 45 f8	 lea	 eax, DWORD PTR $T8[ebp]
  00096	8b cb		 mov	 ecx, ebx
  00098	50		 push	 eax
  00099	6a ff		 push	 -1
  0009b	8d 45 dc	 lea	 eax, DWORD PTR _graphRegion$[ebp]
  0009e	50		 push	 eax
  0009f	8d 45 98	 lea	 eax, DWORD PTR $T1[ebp]
  000a2	50		 push	 eax
  000a3	e8 00 00 00 00	 call	 ?GetGraphRegions@CSelectSubGraphData@@QBE?AVCGraphRegions@@XZ ; CSelectSubGraphData::GetGraphRegions
  000a8	8b c8		 mov	 ecx, eax
  000aa	e8 00 00 00 00	 call	 ?GetDrawingRegion@CGraphRegions@@QBE?AVCRect@@W4GRAPHTYPE@CGraphBaseData@@ABVCGraphStyle@@@Z ; CGraphRegions::GetDrawingRegion

; 293  : 	int dataIndex = GetDataIndex(graphRegion, point, dataStart, dataEnd, pageDataCount); 

  000af	0f 10 45 dc	 movups	 xmm0, XMMWORD PTR _graphRegion$[ebp]
  000b3	8b 0e		 mov	 ecx, DWORD PTR [esi]
  000b5	0f 11 45 ec	 movups	 XMMWORD PTR _drawingRegion$[ebp], xmm0
  000b9	66 0f 73 d8 08	 psrldq	 xmm0, 8
  000be	66 0f 7e c0	 movd	 eax, xmm0
  000c2	3b c1		 cmp	 eax, ecx

; 1288 : 	if(drawingRegion.right <= point.x)

  000c4	0f 8e c6 01 00
	00		 jle	 $LN7@PointInDot

; 1289 : 		return -1;
; 1290 : 	int index = CDataConversion::AbsoluteToRelative_X(drawingRegion, point.x, pageDataCount);

  000ca	57		 push	 edi
  000cb	51		 push	 ecx
  000cc	8d 45 ec	 lea	 eax, DWORD PTR _drawingRegion$[ebp]
  000cf	50		 push	 eax
  000d0	e8 00 00 00 00	 call	 ?AbsoluteToRelative_X@CDataConversion@@SAHABVCRect@@HH@Z ; CDataConversion::AbsoluteToRelative_X
  000d5	8b f8		 mov	 edi, eax
  000d7	83 c4 0c	 add	 esp, 12			; 0000000cH

; 1291 : 	if(index >= 0)

  000da	85 ff		 test	 edi, edi
  000dc	78 03		 js	 SHORT $LN15@PointInDot

; 1292 : 		index = dataStart + index;

  000de	03 7d 8c	 add	 edi, DWORD PTR _dataStart$1$[ebp]
$LN15@PointInDot:

; 1293 : 	if(index > dataEnd)

  000e1	3b 7d 88	 cmp	 edi, DWORD PTR _dataEnd$1$[ebp]
  000e4	0f 8f a6 01 00
	00		 jg	 $LN7@PointInDot

; 294  : 
; 295  : 	if(dataIndex == -1)

  000ea	83 ff ff	 cmp	 edi, -1
  000ed	0f 84 9d 01 00
	00		 je	 $LN7@PointInDot

; 296  : 		return -1;
; 297  : 	 
; 298  : 	POSITION dataPos = dataPacket->GetnumericDataList()->FindIndex(dataIndex);

  000f3	8b 4d 84	 mov	 ecx, DWORD PTR _dataPacket$1$[ebp]
  000f6	8b f7		 mov	 esi, edi
  000f8	ff 15 00 00 00
	00		 call	 DWORD PTR __imp_?GetnumericDataList@CPacket@@QAEPAV?$CList@NN@@XZ
; File C:\Program Files (x86)\Microsoft Visual Studio\2019\Community\VC\Tools\MSVC\14.29.30133\atlmfc\include\afxtempl.h

; 1133 : 	if (nIndex >= m_nCount || nIndex < 0)

  000fe	3b 78 0c	 cmp	 edi, DWORD PTR [eax+12]
  00101	0f 8d 89 01 00
	00		 jge	 $LN7@PointInDot
  00107	85 ff		 test	 edi, edi
  00109	0f 88 81 01 00
	00		 js	 $LN7@PointInDot

; 1134 : 		return NULL;  // went too far
; 1135 : 
; 1136 : 	CNode* pNode = m_pNodeHead;

  0010f	8b 58 04	 mov	 ebx, DWORD PTR [eax+4]

; 1137 : 	while (nIndex--)

  00112	74 07		 je	 SHORT $LN30@PointInDot
$LL19@PointInDot:

; 1138 : 	{
; 1139 : 		ASSERT(AfxIsValidAddress(pNode, sizeof(CNode)));
; 1140 : 		pNode = pNode->pNext;

  00114	8b 1b		 mov	 ebx, DWORD PTR [ebx]
  00116	83 ee 01	 sub	 esi, 1
  00119	75 f9		 jne	 SHORT $LL19@PointInDot
$LN30@PointInDot:
; File D:\git\src\IBK\IBK_DRFN\ProjSrc\SrcChartEx\ChartOCX\GraphDraw\SelectSubGraph.cpp

; 299  : 	if(dataPos == NULL) 

  0011b	85 db		 test	 ebx, ebx
  0011d	0f 84 6d 01 00
	00		 je	 $LN7@PointInDot

; 300  : 		return -1;
; 301  : 
; 302  : 	double realWidth = CDraw::CalRealWidth(graphRegion, dataStart, dataEnd);

  00123	ff 75 88	 push	 DWORD PTR _dataEnd$1$[ebp]
  00126	8b 4d 94	 mov	 ecx, DWORD PTR _this$GSCopy$1$[ebp]
  00129	8d 45 dc	 lea	 eax, DWORD PTR _graphRegion$[ebp]
  0012c	ff 75 8c	 push	 DWORD PTR _dataStart$1$[ebp]
  0012f	50		 push	 eax
  00130	e8 00 00 00 00	 call	 ?CalRealWidth@CDraw@@IAENABVCRect@@HH@Z ; CDraw::CalRealWidth

; 303  : 	double dataViewMin = CDraw::CalLogValue(pSelectSubGraphData->GetVertScaleLogType(), pSelectSubGraphData->GetDisplayDataVertMinMax().GetDisplayMin());

  00135	8b 75 90	 mov	 esi, DWORD PTR _pSelectSubGraphData$GSCopy$1$[ebp]
  00138	8d 45 ec	 lea	 eax, DWORD PTR $T3[ebp]
  0013b	50		 push	 eax
  0013c	8b ce		 mov	 ecx, esi
  0013e	dd 9d 78 ff ff
	ff		 fstp	 QWORD PTR _realWidth$[ebp]
  00144	e8 00 00 00 00	 call	 ?GetDisplayDataVertMinMax@CSelectSubGraphData@@QBE?AVCDisplayDataMinMax@@XZ ; CSelectSubGraphData::GetDisplayDataVertMinMax
  00149	8b c8		 mov	 ecx, eax
  0014b	ff 15 00 00 00
	00		 call	 DWORD PTR __imp_?GetDisplayMin@CDisplayDataMinMax@@QBENXZ
  00151	83 ec 08	 sub	 esp, 8
  00154	8b ce		 mov	 ecx, esi
  00156	dd 1c 24	 fstp	 QWORD PTR [esp]
  00159	e8 00 00 00 00	 call	 ?GetVertScaleLogType@CSelectSubGraphData@@QBE_NXZ ; CSelectSubGraphData::GetVertScaleLogType
  0015e	8b 4d 94	 mov	 ecx, DWORD PTR _this$GSCopy$1$[ebp]
  00161	0f b6 c0	 movzx	 eax, al
  00164	50		 push	 eax
  00165	e8 00 00 00 00	 call	 ?CalLogValue@CDraw@@IAEN_NN@Z ; CDraw::CalLogValue

; 304  : 	double dataViewMax = CDraw::CalLogValue(pSelectSubGraphData->GetVertScaleLogType(), pSelectSubGraphData->GetDisplayDataVertMinMax().GetDisplayMax());

  0016a	8d 45 ec	 lea	 eax, DWORD PTR $T2[ebp]
  0016d	8b ce		 mov	 ecx, esi
  0016f	50		 push	 eax
  00170	dd 9d 60 ff ff
	ff		 fstp	 QWORD PTR _dataViewMin$[ebp]
  00176	e8 00 00 00 00	 call	 ?GetDisplayDataVertMinMax@CSelectSubGraphData@@QBE?AVCDisplayDataMinMax@@XZ ; CSelectSubGraphData::GetDisplayDataVertMinMax
  0017b	8b c8		 mov	 ecx, eax
  0017d	ff 15 00 00 00
	00		 call	 DWORD PTR __imp_?GetDisplayMax@CDisplayDataMinMax@@QBENXZ
  00183	83 ec 08	 sub	 esp, 8
  00186	8b ce		 mov	 ecx, esi
  00188	dd 1c 24	 fstp	 QWORD PTR [esp]
  0018b	e8 00 00 00 00	 call	 ?GetVertScaleLogType@CSelectSubGraphData@@QBE_NXZ ; CSelectSubGraphData::GetVertScaleLogType
  00190	8b 4d 94	 mov	 ecx, DWORD PTR _this$GSCopy$1$[ebp]
  00193	0f b6 c0	 movzx	 eax, al
  00196	50		 push	 eax
  00197	e8 00 00 00 00	 call	 ?CalLogValue@CDraw@@IAEN_NN@Z ; CDraw::CalLogValue

; 1324 : 	return (dataIndex - dataStart);

  0019c	8b 45 8c	 mov	 eax, DWORD PTR _dataStart$1$[ebp]
  0019f	8b f7		 mov	 esi, edi

; 305  : 	int nIndex = GetIndex(dataIndex, dataStart);
; 306  : 	CPoint dataPt = CDataConversion::GetVerticalPoint(graphRegion, nIndex, realWidth, dataViewMin, dataViewMax, CDraw::CalLogValue(pSelectSubGraphData->GetVertScaleLogType(), dataPacket->GetnumericDataList()->GetNext(dataPos)));

  001a1	8b 4d 84	 mov	 ecx, DWORD PTR _dataPacket$1$[ebp]

; 1324 : 	return (dataIndex - dataStart);

  001a4	2b f0		 sub	 esi, eax
  001a6	3b f8		 cmp	 edi, eax

; 304  : 	double dataViewMax = CDraw::CalLogValue(pSelectSubGraphData->GetVertScaleLogType(), pSelectSubGraphData->GetDisplayDataVertMinMax().GetDisplayMax());

  001a8	dd 9d 68 ff ff
	ff		 fstp	 QWORD PTR _dataViewMax$[ebp]

; 1321 : 	if(dataIndex < dataStart)

  001ae	0f 4c f0	 cmovl	 esi, eax

; 305  : 	int nIndex = GetIndex(dataIndex, dataStart);
; 306  : 	CPoint dataPt = CDataConversion::GetVerticalPoint(graphRegion, nIndex, realWidth, dataViewMin, dataViewMax, CDraw::CalLogValue(pSelectSubGraphData->GetVertScaleLogType(), dataPacket->GetnumericDataList()->GetNext(dataPos)));

  001b1	ff 15 00 00 00
	00		 call	 DWORD PTR __imp_?GetnumericDataList@CPacket@@QAEPAV?$CList@NN@@XZ
  001b7	f2 0f 10 43 08	 movsd	 xmm0, QWORD PTR [ebx+8]
  001bc	83 ec 08	 sub	 esp, 8
  001bf	8b 5d 90	 mov	 ebx, DWORD PTR _pSelectSubGraphData$GSCopy$1$[ebp]
  001c2	8b cb		 mov	 ecx, ebx
  001c4	f2 0f 11 04 24	 movsd	 QWORD PTR [esp], xmm0
  001c9	e8 00 00 00 00	 call	 ?GetVertScaleLogType@CSelectSubGraphData@@QBE_NXZ ; CSelectSubGraphData::GetVertScaleLogType
  001ce	8b 4d 94	 mov	 ecx, DWORD PTR _this$GSCopy$1$[ebp]
  001d1	0f b6 c0	 movzx	 eax, al
  001d4	50		 push	 eax
  001d5	e8 00 00 00 00	 call	 ?CalLogValue@CDraw@@IAEN_NN@Z ; CDraw::CalLogValue
  001da	6a 01		 push	 1
  001dc	8d 45 f4	 lea	 eax, DWORD PTR $T4[ebp]
  001df	50		 push	 eax
  001e0	8d 85 68 ff ff
	ff		 lea	 eax, DWORD PTR _dataViewMax$[ebp]
  001e6	50		 push	 eax
  001e7	8d 85 60 ff ff
	ff		 lea	 eax, DWORD PTR _dataViewMin$[ebp]
  001ed	50		 push	 eax
  001ee	8d 85 78 ff ff
	ff		 lea	 eax, DWORD PTR _realWidth$[ebp]
  001f4	50		 push	 eax
  001f5	56		 push	 esi
  001f6	8d 45 dc	 lea	 eax, DWORD PTR _graphRegion$[ebp]
  001f9	50		 push	 eax
  001fa	8d 85 70 ff ff
	ff		 lea	 eax, DWORD PTR _dataPt$[ebp]
  00200	50		 push	 eax
  00201	dd 5d f4	 fstp	 QWORD PTR $T4[ebp]
  00204	e8 00 00 00 00	 call	 ?GetVerticalPoint@CDataConversion@@SA?AVCPoint@@ABVCRect@@HABN111_N@Z ; CDataConversion::GetVerticalPoint

; 307  : 	int barWidth = int(realWidth*0.8);

  00209	f2 0f 10 85 78
	ff ff ff	 movsd	 xmm0, QWORD PTR _realWidth$[ebp]
  00211	83 c4 20	 add	 esp, 32			; 00000020H

; 308  : 
; 309  : 	//invert scale .
; 310  : 	CPoint mousePoint = point;

  00214	8b 45 80	 mov	 eax, DWORD PTR _point$GSCopy$1$[ebp]
  00217	f2 0f 59 05 00
	00 00 00	 mulsd	 xmm0, QWORD PTR __real@3fe999999999999a
  0021f	8b 08		 mov	 ecx, DWORD PTR [eax]
  00221	8b 40 04	 mov	 eax, DWORD PTR [eax+4]
  00224	89 4d 90	 mov	 DWORD PTR _mousePoint$2$[ebp], ecx

; 311  : 	if(pSelectSubGraphData->GetVertScaleInvertType())

  00227	8b cb		 mov	 ecx, ebx
  00229	f2 0f 2c f0	 cvttsd2si esi, xmm0
  0022d	89 45 f8	 mov	 DWORD PTR _mousePoint$1$[ebp], eax
  00230	e8 00 00 00 00	 call	 ?GetVertScaleInvertType@CSelectSubGraphData@@QBE_NXZ ; CSelectSubGraphData::GetVertScaleInvertType
  00235	84 c0		 test	 al, al
  00237	74 14		 je	 SHORT $LN36@PointInDot

; 312  : 		mousePoint.y = CDataConversion::InvertGraphDataPt(graphRegion, point.y);

  00239	8b 45 80	 mov	 eax, DWORD PTR _point$GSCopy$1$[ebp]
  0023c	ff 70 04	 push	 DWORD PTR [eax+4]
  0023f	8d 45 dc	 lea	 eax, DWORD PTR _graphRegion$[ebp]
  00242	50		 push	 eax
  00243	e8 00 00 00 00	 call	 ?InvertGraphDataPt@CDataConversion@@SAHABVCRect@@H@Z ; CDataConversion::InvertGraphDataPt
  00248	83 c4 08	 add	 esp, 8
  0024b	eb 03		 jmp	 SHORT $LN6@PointInDot
$LN36@PointInDot:

; 311  : 	if(pSelectSubGraphData->GetVertScaleInvertType())

  0024d	8b 45 f8	 mov	 eax, DWORD PTR _mousePoint$1$[ebp]
$LN6@PointInDot:

; 313  : 
; 314  : 	if(mousePoint.y <= dataPt.y + barWidth && mousePoint.y >= dataPt.y - barWidth && mousePoint.x >=dataPt.x - barWidth && mousePoint.x <= dataPt.x + barWidth)

  00250	8b 95 74 ff ff
	ff		 mov	 edx, DWORD PTR _dataPt$[ebp+4]
  00256	8d 0c 32	 lea	 ecx, DWORD PTR [edx+esi]
  00259	3b c1		 cmp	 eax, ecx
  0025b	7f 33		 jg	 SHORT $LN7@PointInDot
  0025d	2b d6		 sub	 edx, esi
  0025f	3b c2		 cmp	 eax, edx
  00261	7c 2d		 jl	 SHORT $LN7@PointInDot
  00263	8b 8d 70 ff ff
	ff		 mov	 ecx, DWORD PTR _dataPt$[ebp]
  00269	8b c1		 mov	 eax, ecx
  0026b	8b 55 90	 mov	 edx, DWORD PTR _mousePoint$2$[ebp]
  0026e	2b c6		 sub	 eax, esi
  00270	3b d0		 cmp	 edx, eax
  00272	7c 1c		 jl	 SHORT $LN7@PointInDot
  00274	8d 04 31	 lea	 eax, DWORD PTR [ecx+esi]
  00277	3b d0		 cmp	 edx, eax
  00279	7f 15		 jg	 SHORT $LN7@PointInDot

; 315  : 		return dataIndex;

  0027b	8b c7		 mov	 eax, edi
  0027d	5f		 pop	 edi

; 316  : 
; 317  : 	return -1;
; 318  : }

  0027e	5e		 pop	 esi
  0027f	5b		 pop	 ebx
  00280	8b 4d fc	 mov	 ecx, DWORD PTR __$ArrayPad$[ebp]
  00283	33 cd		 xor	 ecx, ebp
  00285	e8 00 00 00 00	 call	 @__security_check_cookie@4
  0028a	8b e5		 mov	 esp, ebp
  0028c	5d		 pop	 ebp
  0028d	c2 0c 00	 ret	 12			; 0000000cH
$LN7@PointInDot:
  00290	8b 4d fc	 mov	 ecx, DWORD PTR __$ArrayPad$[ebp]
  00293	83 c8 ff	 or	 eax, -1
  00296	5f		 pop	 edi
  00297	5e		 pop	 esi
  00298	33 cd		 xor	 ecx, ebp
  0029a	5b		 pop	 ebx
  0029b	e8 00 00 00 00	 call	 @__security_check_cookie@4
  002a0	8b e5		 mov	 esp, ebp
  002a2	5d		 pop	 ebp
  002a3	c2 0c 00	 ret	 12			; 0000000cH
?PointInDotBarGraph@CSelectSubGraph@@AAEHABVCPoint@@PBVCSelectSubGraphData@@PAVCIndicatorList@@@Z ENDP ; CSelectSubGraph::PointInDotBarGraph
_TEXT	ENDS
; Function compile flags: /Ogtp
; File D:\git\src\IBK\IBK_DRFN\ProjSrc\SrcChartEx\ChartOCX\GraphDraw\SelectSubGraph.cpp
; File C:\Program Files (x86)\Microsoft Visual Studio\2019\Community\VC\Tools\MSVC\14.29.30133\atlmfc\include\afxtempl.h
; File D:\git\src\IBK\IBK_DRFN\ProjSrc\SrcChartEx\ChartOCX\GraphDraw\SelectSubGraph.cpp
; File D:\git\src\IBK\IBK_DRFN\ProjSrc\SrcChartEx\ChartOCX\Include_Chart\BlockBaseData.h
; File D:\git\src\IBK\IBK_DRFN\ProjSrc\SrcChartEx\ChartOCX\GraphDraw\SelectSubGraph.cpp
;	COMDAT ?PointInCombBarGraph@CSelectSubGraph@@AAEHABVCPoint@@PBVCSelectSubGraphData@@PAVCIndicatorList@@@Z
_TEXT	SEGMENT
_dataPt2$ = -212					; size = 8
_dataPt1$ = -204					; size = 8
_realWidth$ = -196					; size = 8
_tempmin$ = -188					; size = 8
_tempmax$ = -180					; size = 8
_datamin$ = -172					; size = 8
$T1 = -164						; size = 8
_dataEnd$1$ = -160					; size = 4
_point$GSCopy$1$ = -156					; size = 4
$T2 = -152						; size = 8
$T3 = -152						; size = 8
_m_dataPacket2$1$ = -148				; size = 4
_datamax$ = -144					; size = 8
_data2$1$ = -136					; size = 8
$T4 = -136						; size = 8
$T5 = -136						; size = 8
$T6 = -136						; size = 8
$T7 = -136						; size = 8
_Data2Pos$1$ = -132					; size = 4
_pageDataCount$1$ = -132				; size = 4
_dataStart$1$ = -128					; size = 4
_data1$1$ = -124					; size = 8
$T8 = -124						; size = 8
$T9 = -124						; size = 8
_mousePoint$2$ = -120					; size = 4
_m_dataPacket1$1$ = -120				; size = 4
_barWidth$1$ = -116					; size = 4
_Data1Pos$1$ = -116					; size = 4
$T10 = -116						; size = 4
_pSelectSubGraphData$GSCopy$1$ = -112			; size = 4
_this$GSCopy$1$ = -108					; size = 4
$T11 = -104						; size = 68
_drawingRegion$ = -36					; size = 16
_graphRegion$ = -20					; size = 16
__$ArrayPad$ = -4					; size = 4
_point$ = 8						; size = 4
_pSelectSubGraphData$ = 12				; size = 4
_pIndicatorList$ = 16					; size = 4
?PointInCombBarGraph@CSelectSubGraph@@AAEHABVCPoint@@PBVCSelectSubGraphData@@PAVCIndicatorList@@@Z PROC ; CSelectSubGraph::PointInCombBarGraph, COMDAT
; _this$ = ecx

; 202  : {

  00000	55		 push	 ebp
  00001	8b ec		 mov	 ebp, esp
  00003	81 ec d4 00 00
	00		 sub	 esp, 212		; 000000d4H
  00009	a1 00 00 00 00	 mov	 eax, DWORD PTR ___security_cookie
  0000e	33 c5		 xor	 eax, ebp
  00010	89 45 fc	 mov	 DWORD PTR __$ArrayPad$[ebp], eax
  00013	8b 45 08	 mov	 eax, DWORD PTR _point$[ebp]
  00016	56		 push	 esi
  00017	8b 75 0c	 mov	 esi, DWORD PTR _pSelectSubGraphData$[ebp]
  0001a	89 4d 94	 mov	 DWORD PTR _this$GSCopy$1$[ebp], ecx

; 203  : 	const CList< CPacket *, CPacket *> &packetList = pSelectSubGraphData->GetSubGraphPacketList()->GetSubGraphPacketList();

  0001d	8b ce		 mov	 ecx, esi
  0001f	57		 push	 edi
  00020	89 85 64 ff ff
	ff		 mov	 DWORD PTR _point$GSCopy$1$[ebp], eax
  00026	89 75 90	 mov	 DWORD PTR _pSelectSubGraphData$GSCopy$1$[ebp], esi
  00029	e8 00 00 00 00	 call	 ?GetSubGraphPacketList@CSelectSubGraphData@@QBEPAVCSubGraphPacketList@@XZ ; CSelectSubGraphData::GetSubGraphPacketList
  0002e	8b c8		 mov	 ecx, eax
  00030	e8 00 00 00 00	 call	 ?GetSubGraphPacketList@CSubGraphPacketList@@QBEABV?$CList@PAVCPacket@@PAV1@@@XZ ; CSubGraphPacketList::GetSubGraphPacketList

; 204  : 	if(packetList.GetCount() <= 0)

  00035	83 78 0c 00	 cmp	 DWORD PTR [eax+12], 0
  00039	0f 8e 62 04 00
	00		 jle	 $LN10@PointInCom

; 205  : 		return -1;
; 206  : 
; 207  : 	CPacket* m_dataPacket1 = NULL;
; 208  : 	CPacket* m_dataPacket2 = NULL;
; 209  : 	POSITION pos = packetList.GetHeadPosition();

  0003f	8b 40 04	 mov	 eax, DWORD PTR [eax+4]

; 210  : 	if(pos == NULL)	

  00042	85 c0		 test	 eax, eax
  00044	0f 84 57 04 00
	00		 je	 $LN10@PointInCom
; File C:\Program Files (x86)\Microsoft Visual Studio\2019\Community\VC\Tools\MSVC\14.29.30133\atlmfc\include\afxtempl.h

; 819  : 		rPosition = (POSITION) pNode->pNext;

  0004a	8b 08		 mov	 ecx, DWORD PTR [eax]
; File D:\git\src\IBK\IBK_DRFN\ProjSrc\SrcChartEx\ChartOCX\GraphDraw\SelectSubGraph.cpp

; 212  : 	m_dataPacket1 = packetList.GetNext(pos);

  0004c	8b 78 08	 mov	 edi, DWORD PTR [eax+8]
  0004f	89 7d 88	 mov	 DWORD PTR _m_dataPacket1$1$[ebp], edi

; 213  : 	if(pos == NULL)	

  00052	85 c9		 test	 ecx, ecx
  00054	0f 84 47 04 00
	00		 je	 $LN10@PointInCom

; 214  : 		return -1;
; 215  : 	m_dataPacket2 = packetList.GetNext(pos);

  0005a	8b 41 08	 mov	 eax, DWORD PTR [ecx+8]

; 216  : 
; 217  : 	int dataStart = pSelectSubGraphData->GetDisplayAttributes().GetDataStartInBlock();

  0005d	8b ce		 mov	 ecx, esi
  0005f	89 85 6c ff ff
	ff		 mov	 DWORD PTR _m_dataPacket2$1$[ebp], eax
  00065	8d 85 78 ff ff
	ff		 lea	 eax, DWORD PTR $T7[ebp]
  0006b	50		 push	 eax
  0006c	e8 00 00 00 00	 call	 ?GetDisplayAttributes@CSelectSubGraphData@@QBE?AVCDisplayAttributes@@XZ ; CSelectSubGraphData::GetDisplayAttributes
  00071	8b c8		 mov	 ecx, eax
  00073	e8 00 00 00 00	 call	 ?GetDataStartInBlock@CDisplayAttributes@@QBEHXZ ; CDisplayAttributes::GetDataStartInBlock
  00078	89 45 80	 mov	 DWORD PTR _dataStart$1$[ebp], eax

; 218  : 	int dataEnd = pSelectSubGraphData->GetDisplayAttributes().GetDataEndInBlock();

  0007b	8b ce		 mov	 ecx, esi
  0007d	8d 85 78 ff ff
	ff		 lea	 eax, DWORD PTR $T6[ebp]
  00083	50		 push	 eax
  00084	e8 00 00 00 00	 call	 ?GetDisplayAttributes@CSelectSubGraphData@@QBE?AVCDisplayAttributes@@XZ ; CSelectSubGraphData::GetDisplayAttributes
  00089	8b c8		 mov	 ecx, eax
  0008b	e8 00 00 00 00	 call	 ?GetDataEndInBlock@CDisplayAttributes@@QBEHXZ ; CDisplayAttributes::GetDataEndInBlock
  00090	89 85 60 ff ff
	ff		 mov	 DWORD PTR _dataEnd$1$[ebp], eax

; 219  : 	int pageDataCount = pSelectSubGraphData->GetDisplayAttributes().GetDataCountInBlock();

  00096	8b ce		 mov	 ecx, esi
  00098	8d 85 78 ff ff
	ff		 lea	 eax, DWORD PTR $T5[ebp]
  0009e	50		 push	 eax
  0009f	e8 00 00 00 00	 call	 ?GetDisplayAttributes@CSelectSubGraphData@@QBE?AVCDisplayAttributes@@XZ ; CSelectSubGraphData::GetDisplayAttributes
  000a4	8b c8		 mov	 ecx, eax
  000a6	e8 00 00 00 00	 call	 ?GetDataCountInBlock@CDisplayAttributes@@QBEHXZ ; CDisplayAttributes::GetDataCountInBlock

; 220  : 			
; 221  : 	//min  max  .=====================================================
; 222  : 	double datamax = 0.0, datamin = 0.0, tempmax = 0.0, tempmin = 0.0;
; 223  : 	m_dataPacket1->GetMinMax(dataStart, dataEnd, datamin, datamax); 

  000ab	6a 00		 push	 0
  000ad	89 85 7c ff ff
	ff		 mov	 DWORD PTR _pageDataCount$1$[ebp], eax
  000b3	0f 57 c0	 xorps	 xmm0, xmm0
  000b6	8d 85 70 ff ff
	ff		 lea	 eax, DWORD PTR _datamax$[ebp]
  000bc	f2 0f 11 85 70
	ff ff ff	 movsd	 QWORD PTR _datamax$[ebp], xmm0
  000c4	50		 push	 eax
  000c5	8d 85 54 ff ff
	ff		 lea	 eax, DWORD PTR _datamin$[ebp]
  000cb	f2 0f 11 85 54
	ff ff ff	 movsd	 QWORD PTR _datamin$[ebp], xmm0
  000d3	50		 push	 eax
  000d4	ff b5 60 ff ff
	ff		 push	 DWORD PTR _dataEnd$1$[ebp]
  000da	8b cf		 mov	 ecx, edi
  000dc	f2 0f 11 85 4c
	ff ff ff	 movsd	 QWORD PTR _tempmax$[ebp], xmm0
  000e4	ff 75 80	 push	 DWORD PTR _dataStart$1$[ebp]
  000e7	8b 3d 00 00 00
	00		 mov	 edi, DWORD PTR __imp_?GetMinMax@CPacket@@QAEHHHAAN0H@Z
  000ed	f2 0f 11 85 44
	ff ff ff	 movsd	 QWORD PTR _tempmin$[ebp], xmm0
  000f5	ff d7		 call	 edi

; 224  : 	datamin = fabs(datamin);

  000f7	f2 0f 10 8d 54
	ff ff ff	 movsd	 xmm1, QWORD PTR _datamin$[ebp]

; 225  : 	datamax = fabs(datamax);

  000ff	f2 0f 10 85 70
	ff ff ff	 movsd	 xmm0, QWORD PTR _datamax$[ebp]
  00107	0f 54 0d 00 00
	00 00		 andps	 xmm1, QWORD PTR __xmm@7fffffffffffffff7fffffffffffffff
  0010e	0f 54 05 00 00
	00 00		 andps	 xmm0, QWORD PTR __xmm@7fffffffffffffff7fffffffffffffff
  00115	66 0f 2f c8	 comisd	 xmm1, xmm0
  00119	f2 0f 11 8d 54
	ff ff ff	 movsd	 QWORD PTR _datamin$[ebp], xmm1
  00121	f2 0f 11 85 70
	ff ff ff	 movsd	 QWORD PTR _datamax$[ebp], xmm0

; 226  : 	if(datamin > datamax)

  00129	76 08		 jbe	 SHORT $LN5@PointInCom

; 227  : 		datamax = datamin;

  0012b	f2 0f 11 8d 70
	ff ff ff	 movsd	 QWORD PTR _datamax$[ebp], xmm1
$LN5@PointInCom:

; 228  : 	m_dataPacket2->GetMinMax(dataStart, dataEnd, tempmax, tempmin); 

  00133	8b 8d 6c ff ff
	ff		 mov	 ecx, DWORD PTR _m_dataPacket2$1$[ebp]
  00139	8d 85 44 ff ff
	ff		 lea	 eax, DWORD PTR _tempmin$[ebp]
  0013f	6a 00		 push	 0
  00141	50		 push	 eax
  00142	8d 85 4c ff ff
	ff		 lea	 eax, DWORD PTR _tempmax$[ebp]
  00148	50		 push	 eax
  00149	ff b5 60 ff ff
	ff		 push	 DWORD PTR _dataEnd$1$[ebp]
  0014f	ff 75 80	 push	 DWORD PTR _dataStart$1$[ebp]
  00152	ff d7		 call	 edi

; 229  : 	tempmin = fabs(tempmin);

  00154	f2 0f 10 8d 44
	ff ff ff	 movsd	 xmm1, QWORD PTR _tempmin$[ebp]

; 230  : 	tempmax = fabs(tempmax);

  0015c	f2 0f 10 85 4c
	ff ff ff	 movsd	 xmm0, QWORD PTR _tempmax$[ebp]
  00164	0f 54 0d 00 00
	00 00		 andps	 xmm1, QWORD PTR __xmm@7fffffffffffffff7fffffffffffffff
  0016b	0f 54 05 00 00
	00 00		 andps	 xmm0, QWORD PTR __xmm@7fffffffffffffff7fffffffffffffff
  00172	66 0f 2f c8	 comisd	 xmm1, xmm0
  00176	f2 0f 11 8d 44
	ff ff ff	 movsd	 QWORD PTR _tempmin$[ebp], xmm1
  0017e	f2 0f 11 85 4c
	ff ff ff	 movsd	 QWORD PTR _tempmax$[ebp], xmm0

; 231  : 	if(tempmin > tempmax)

  00186	76 0b		 jbe	 SHORT $LN6@PointInCom

; 232  : 		tempmax = tempmin;

  00188	0f 28 c1	 movaps	 xmm0, xmm1
  0018b	f2 0f 11 85 4c
	ff ff ff	 movsd	 QWORD PTR _tempmax$[ebp], xmm0
$LN6@PointInCom:

; 233  : 	if(tempmax > datamax)

  00193	f2 0f 10 8d 70
	ff ff ff	 movsd	 xmm1, QWORD PTR _datamax$[ebp]
  0019b	66 0f 2f c1	 comisd	 xmm0, xmm1
  0019f	76 0b		 jbe	 SHORT $LN7@PointInCom

; 234  : 		datamax = tempmax;

  001a1	0f 28 c8	 movaps	 xmm1, xmm0
  001a4	f2 0f 11 8d 70
	ff ff ff	 movsd	 QWORD PTR _datamax$[ebp], xmm1
$LN7@PointInCom:

; 235  : 	datamin = datamax * -1;

  001ac	f2 0f 59 0d 00
	00 00 00	 mulsd	 xmm1, QWORD PTR __real@bff0000000000000

; 237  : 	CRect graphRegion = pSelectSubGraphData->GetGraphRegions().GetDrawingRegion();

  001b4	8d 45 8c	 lea	 eax, DWORD PTR $T10[ebp]
  001b7	50		 push	 eax
  001b8	6a ff		 push	 -1
  001ba	8d 45 ec	 lea	 eax, DWORD PTR _graphRegion$[ebp]
; File D:\git\src\IBK\IBK_DRFN\ProjSrc\SrcChartEx\ChartOCX\Include_Chart\BlockBaseData.h

; 43   : 	CGraphStyle(const int style) { m_nStyle = style; };

  001bd	c7 45 8c ff ff
	ff ff		 mov	 DWORD PTR $T10[ebp], -1
; File D:\git\src\IBK\IBK_DRFN\ProjSrc\SrcChartEx\ChartOCX\GraphDraw\SelectSubGraph.cpp

; 237  : 	CRect graphRegion = pSelectSubGraphData->GetGraphRegions().GetDrawingRegion();

  001c4	50		 push	 eax
  001c5	8d 45 98	 lea	 eax, DWORD PTR $T11[ebp]
  001c8	f2 0f 11 8d 54
	ff ff ff	 movsd	 QWORD PTR _datamin$[ebp], xmm1
  001d0	50		 push	 eax
  001d1	8b ce		 mov	 ecx, esi
  001d3	e8 00 00 00 00	 call	 ?GetGraphRegions@CSelectSubGraphData@@QBE?AVCGraphRegions@@XZ ; CSelectSubGraphData::GetGraphRegions
  001d8	8b c8		 mov	 ecx, eax
  001da	e8 00 00 00 00	 call	 ?GetDrawingRegion@CGraphRegions@@QBE?AVCRect@@W4GRAPHTYPE@CGraphBaseData@@ABVCGraphStyle@@@Z ; CGraphRegions::GetDrawingRegion

; 238  : 
; 239  : 	int dataIndex = GetDataIndex(graphRegion, point, dataStart, dataEnd, pageDataCount); 

  001df	0f 10 45 ec	 movups	 xmm0, XMMWORD PTR _graphRegion$[ebp]
  001e3	8b 85 64 ff ff
	ff		 mov	 eax, DWORD PTR _point$GSCopy$1$[ebp]
  001e9	0f 11 45 dc	 movups	 XMMWORD PTR _drawingRegion$[ebp], xmm0
  001ed	8b 08		 mov	 ecx, DWORD PTR [eax]
  001ef	66 0f 73 d8 08	 psrldq	 xmm0, 8
  001f4	66 0f 7e c0	 movd	 eax, xmm0
  001f8	3b c1		 cmp	 eax, ecx

; 1288 : 	if(drawingRegion.right <= point.x)

  001fa	0f 8e a1 02 00
	00		 jle	 $LN10@PointInCom

; 1289 : 		return -1;
; 1290 : 	int index = CDataConversion::AbsoluteToRelative_X(drawingRegion, point.x, pageDataCount);

  00200	ff b5 7c ff ff
	ff		 push	 DWORD PTR _pageDataCount$1$[ebp]
  00206	8d 45 dc	 lea	 eax, DWORD PTR _drawingRegion$[ebp]
  00209	51		 push	 ecx
  0020a	50		 push	 eax
  0020b	e8 00 00 00 00	 call	 ?AbsoluteToRelative_X@CDataConversion@@SAHABVCRect@@HH@Z ; CDataConversion::AbsoluteToRelative_X
  00210	8b f8		 mov	 edi, eax
  00212	83 c4 0c	 add	 esp, 12			; 0000000cH

; 1291 : 	if(index >= 0)

  00215	85 ff		 test	 edi, edi
  00217	78 03		 js	 SHORT $LN27@PointInCom

; 1292 : 		index = dataStart + index;

  00219	03 7d 80	 add	 edi, DWORD PTR _dataStart$1$[ebp]
$LN27@PointInCom:

; 1293 : 	if(index > dataEnd)

  0021c	3b bd 60 ff ff
	ff		 cmp	 edi, DWORD PTR _dataEnd$1$[ebp]
  00222	0f 8f 79 02 00
	00		 jg	 $LN10@PointInCom

; 240  : 	if(dataIndex == -1)

  00228	83 ff ff	 cmp	 edi, -1
  0022b	0f 84 70 02 00
	00		 je	 $LN10@PointInCom

; 241  : 		return -1;
; 242  : 	
; 243  : 	POSITION Data1Pos = m_dataPacket1->GetnumericDataList()->FindIndex(dataIndex);

  00231	8b 4d 88	 mov	 ecx, DWORD PTR _m_dataPacket1$1$[ebp]
  00234	8b 35 00 00 00
	00		 mov	 esi, DWORD PTR __imp_?GetnumericDataList@CPacket@@QAEPAV?$CList@NN@@XZ
  0023a	57		 push	 edi
  0023b	ff d6		 call	 esi
  0023d	8b c8		 mov	 ecx, eax
  0023f	e8 00 00 00 00	 call	 ?FindIndex@?$CList@NN@@QBEPAU__POSITION@@H@Z ; CList<double,double>::FindIndex

; 244  : 	POSITION Data2Pos = m_dataPacket2->GetnumericDataList()->FindIndex(dataIndex);

  00244	8b 8d 6c ff ff
	ff		 mov	 ecx, DWORD PTR _m_dataPacket2$1$[ebp]
  0024a	57		 push	 edi
  0024b	89 45 8c	 mov	 DWORD PTR _Data1Pos$1$[ebp], eax
  0024e	ff d6		 call	 esi
  00250	8b c8		 mov	 ecx, eax
  00252	e8 00 00 00 00	 call	 ?FindIndex@?$CList@NN@@QBEPAU__POSITION@@H@Z ; CList<double,double>::FindIndex

; 245  : 	if(Data1Pos == NULL || Data2Pos == NULL)

  00257	83 7d 8c 00	 cmp	 DWORD PTR _Data1Pos$1$[ebp], 0
  0025b	89 85 7c ff ff
	ff		 mov	 DWORD PTR _Data2Pos$1$[ebp], eax
  00261	0f 84 3a 02 00
	00		 je	 $LN10@PointInCom
  00267	85 c0		 test	 eax, eax
  00269	0f 84 32 02 00
	00		 je	 $LN10@PointInCom

; 247  : 
; 248  : 	double data1 = m_dataPacket1->GetnumericDataList()->GetNext(Data1Pos);

  0026f	8b 4d 88	 mov	 ecx, DWORD PTR _m_dataPacket1$1$[ebp]
  00272	ff d6		 call	 esi
  00274	8b 45 8c	 mov	 eax, DWORD PTR _Data1Pos$1$[ebp]
  00277	0f 57 c9	 xorps	 xmm1, xmm1
  0027a	f2 0f 10 40 08	 movsd	 xmm0, QWORD PTR [eax+8]

; 249  : 	if(data1 < 0)

  0027f	66 0f 2f c8	 comisd	 xmm1, xmm0
  00283	f2 0f 11 45 84	 movsd	 QWORD PTR _data1$1$[ebp], xmm0
  00288	76 0d		 jbe	 SHORT $LN11@PointInCom

; 250  : 		data1 = data1 * -1.0;

  0028a	f2 0f 59 05 00
	00 00 00	 mulsd	 xmm0, QWORD PTR __real@bff0000000000000
  00292	f2 0f 11 45 84	 movsd	 QWORD PTR _data1$1$[ebp], xmm0
$LN11@PointInCom:

; 251  : 	double data2 = m_dataPacket2->GetnumericDataList()->GetNext(Data2Pos);

  00297	8b 8d 6c ff ff
	ff		 mov	 ecx, DWORD PTR _m_dataPacket2$1$[ebp]
  0029d	ff d6		 call	 esi
  0029f	8b 85 7c ff ff
	ff		 mov	 eax, DWORD PTR _Data2Pos$1$[ebp]
  002a5	f2 0f 10 40 08	 movsd	 xmm0, QWORD PTR [eax+8]

; 252  : 	if(data2 > 0)

  002aa	66 0f 2f 05 00
	00 00 00	 comisd	 xmm0, QWORD PTR __real@0000000000000000
  002b2	f2 0f 11 85 78
	ff ff ff	 movsd	 QWORD PTR _data2$1$[ebp], xmm0
  002ba	76 10		 jbe	 SHORT $LN12@PointInCom

; 253  : 		data2 = data2 * -1.0;

  002bc	f2 0f 59 05 00
	00 00 00	 mulsd	 xmm0, QWORD PTR __real@bff0000000000000
  002c4	f2 0f 11 85 78
	ff ff ff	 movsd	 QWORD PTR _data2$1$[ebp], xmm0
$LN12@PointInCom:

; 254  : 	
; 255  : 	double realWidth = CDraw::CalRealWidth(graphRegion, dataStart, dataEnd);

  002cc	ff b5 60 ff ff
	ff		 push	 DWORD PTR _dataEnd$1$[ebp]
  002d2	8b 4d 94	 mov	 ecx, DWORD PTR _this$GSCopy$1$[ebp]
  002d5	8d 45 ec	 lea	 eax, DWORD PTR _graphRegion$[ebp]
  002d8	ff 75 80	 push	 DWORD PTR _dataStart$1$[ebp]
  002db	50		 push	 eax
  002dc	e8 00 00 00 00	 call	 ?CalRealWidth@CDraw@@IAENABVCRect@@HH@Z ; CDraw::CalRealWidth

; 257  : 	int nIndex = GetIndex(dataIndex, dataStart);
; 258  : 	CPoint dataPt1 = CDataConversion::GetVerticalPoint(graphRegion, nIndex, realWidth, CDraw::CalLogValue(pSelectSubGraphData->GetVertScaleLogType(), datamin), CDraw::CalLogValue(pSelectSubGraphData->GetVertScaleLogType(), datamax), CDraw::CalLogValue(pSelectSubGraphData->GetVertScaleLogType(), data1));

  002e1	8b 4d 90	 mov	 ecx, DWORD PTR _pSelectSubGraphData$GSCopy$1$[ebp]

; 1324 : 	return (dataIndex - dataStart);

  002e4	8b f7		 mov	 esi, edi

; 254  : 	
; 255  : 	double realWidth = CDraw::CalRealWidth(graphRegion, dataStart, dataEnd);

  002e6	dd 9d 3c ff ff
	ff		 fstp	 QWORD PTR _realWidth$[ebp]

; 256  : 	int barWidth = int(realWidth*0.8);

  002ec	f2 0f 10 85 3c
	ff ff ff	 movsd	 xmm0, QWORD PTR _realWidth$[ebp]
  002f4	f2 0f 59 05 00
	00 00 00	 mulsd	 xmm0, QWORD PTR __real@3fe999999999999a
  002fc	f2 0f 2c c0	 cvttsd2si eax, xmm0

; 257  : 	int nIndex = GetIndex(dataIndex, dataStart);
; 258  : 	CPoint dataPt1 = CDataConversion::GetVerticalPoint(graphRegion, nIndex, realWidth, CDraw::CalLogValue(pSelectSubGraphData->GetVertScaleLogType(), datamin), CDraw::CalLogValue(pSelectSubGraphData->GetVertScaleLogType(), datamax), CDraw::CalLogValue(pSelectSubGraphData->GetVertScaleLogType(), data1));

  00300	f2 0f 10 45 84	 movsd	 xmm0, QWORD PTR _data1$1$[ebp]
  00305	89 45 8c	 mov	 DWORD PTR _barWidth$1$[ebp], eax

; 1324 : 	return (dataIndex - dataStart);

  00308	8b 45 80	 mov	 eax, DWORD PTR _dataStart$1$[ebp]
  0030b	2b f0		 sub	 esi, eax
  0030d	3b f8		 cmp	 edi, eax
  0030f	0f 4c f0	 cmovl	 esi, eax

; 257  : 	int nIndex = GetIndex(dataIndex, dataStart);
; 258  : 	CPoint dataPt1 = CDataConversion::GetVerticalPoint(graphRegion, nIndex, realWidth, CDraw::CalLogValue(pSelectSubGraphData->GetVertScaleLogType(), datamin), CDraw::CalLogValue(pSelectSubGraphData->GetVertScaleLogType(), datamax), CDraw::CalLogValue(pSelectSubGraphData->GetVertScaleLogType(), data1));

  00312	83 ec 08	 sub	 esp, 8
  00315	f2 0f 11 04 24	 movsd	 QWORD PTR [esp], xmm0
  0031a	e8 00 00 00 00	 call	 ?GetVertScaleLogType@CSelectSubGraphData@@QBE_NXZ ; CSelectSubGraphData::GetVertScaleLogType
  0031f	8b 4d 94	 mov	 ecx, DWORD PTR _this$GSCopy$1$[ebp]
  00322	0f b6 c0	 movzx	 eax, al
  00325	50		 push	 eax
  00326	e8 00 00 00 00	 call	 ?CalLogValue@CDraw@@IAEN_NN@Z ; CDraw::CalLogValue
  0032b	f2 0f 10 85 70
	ff ff ff	 movsd	 xmm0, QWORD PTR _datamax$[ebp]
  00333	83 ec 08	 sub	 esp, 8
  00336	8b 4d 90	 mov	 ecx, DWORD PTR _pSelectSubGraphData$GSCopy$1$[ebp]
  00339	dd 5d 84	 fstp	 QWORD PTR $T9[ebp]
  0033c	f2 0f 11 04 24	 movsd	 QWORD PTR [esp], xmm0
  00341	e8 00 00 00 00	 call	 ?GetVertScaleLogType@CSelectSubGraphData@@QBE_NXZ ; CSelectSubGraphData::GetVertScaleLogType
  00346	8b 4d 94	 mov	 ecx, DWORD PTR _this$GSCopy$1$[ebp]
  00349	0f b6 c0	 movzx	 eax, al
  0034c	50		 push	 eax
  0034d	e8 00 00 00 00	 call	 ?CalLogValue@CDraw@@IAEN_NN@Z ; CDraw::CalLogValue
  00352	f2 0f 10 85 54
	ff ff ff	 movsd	 xmm0, QWORD PTR _datamin$[ebp]
  0035a	83 ec 08	 sub	 esp, 8
  0035d	8b 4d 90	 mov	 ecx, DWORD PTR _pSelectSubGraphData$GSCopy$1$[ebp]
  00360	dd 9d 68 ff ff
	ff		 fstp	 QWORD PTR $T3[ebp]
  00366	f2 0f 11 04 24	 movsd	 QWORD PTR [esp], xmm0
  0036b	e8 00 00 00 00	 call	 ?GetVertScaleLogType@CSelectSubGraphData@@QBE_NXZ ; CSelectSubGraphData::GetVertScaleLogType
  00370	8b 4d 94	 mov	 ecx, DWORD PTR _this$GSCopy$1$[ebp]
  00373	0f b6 c0	 movzx	 eax, al
  00376	50		 push	 eax
  00377	e8 00 00 00 00	 call	 ?CalLogValue@CDraw@@IAEN_NN@Z ; CDraw::CalLogValue
  0037c	6a 01		 push	 1
  0037e	8d 45 84	 lea	 eax, DWORD PTR $T9[ebp]
  00381	50		 push	 eax
  00382	8d 85 68 ff ff
	ff		 lea	 eax, DWORD PTR $T3[ebp]
  00388	50		 push	 eax
  00389	8d 85 5c ff ff
	ff		 lea	 eax, DWORD PTR $T1[ebp]
  0038f	50		 push	 eax
  00390	8d 85 3c ff ff
	ff		 lea	 eax, DWORD PTR _realWidth$[ebp]
  00396	50		 push	 eax
  00397	56		 push	 esi
  00398	8d 45 ec	 lea	 eax, DWORD PTR _graphRegion$[ebp]
  0039b	50		 push	 eax
  0039c	8d 85 34 ff ff
	ff		 lea	 eax, DWORD PTR _dataPt1$[ebp]
  003a2	50		 push	 eax
  003a3	dd 9d 5c ff ff
	ff		 fstp	 QWORD PTR $T1[ebp]
  003a9	e8 00 00 00 00	 call	 ?GetVerticalPoint@CDataConversion@@SA?AVCPoint@@ABVCRect@@HABN111_N@Z ; CDataConversion::GetVerticalPoint

; 259  : 	CPoint dataPt2 = CDataConversion::GetVerticalPoint(graphRegion, nIndex, realWidth, CDraw::CalLogValue(pSelectSubGraphData->GetVertScaleLogType(), datamin), CDraw::CalLogValue(pSelectSubGraphData->GetVertScaleLogType(), datamax), CDraw::CalLogValue(pSelectSubGraphData->GetVertScaleLogType(), data2));

  003ae	f2 0f 10 85 78
	ff ff ff	 movsd	 xmm0, QWORD PTR _data2$1$[ebp]
  003b6	83 c4 18	 add	 esp, 24			; 00000018H
  003b9	8b 4d 90	 mov	 ecx, DWORD PTR _pSelectSubGraphData$GSCopy$1$[ebp]
  003bc	f2 0f 11 04 24	 movsd	 QWORD PTR [esp], xmm0
  003c1	e8 00 00 00 00	 call	 ?GetVertScaleLogType@CSelectSubGraphData@@QBE_NXZ ; CSelectSubGraphData::GetVertScaleLogType
  003c6	8b 4d 94	 mov	 ecx, DWORD PTR _this$GSCopy$1$[ebp]
  003c9	0f b6 c0	 movzx	 eax, al
  003cc	50		 push	 eax
  003cd	e8 00 00 00 00	 call	 ?CalLogValue@CDraw@@IAEN_NN@Z ; CDraw::CalLogValue
  003d2	f2 0f 10 85 70
	ff ff ff	 movsd	 xmm0, QWORD PTR _datamax$[ebp]
  003da	83 ec 08	 sub	 esp, 8
  003dd	8b 4d 90	 mov	 ecx, DWORD PTR _pSelectSubGraphData$GSCopy$1$[ebp]
  003e0	dd 9d 78 ff ff
	ff		 fstp	 QWORD PTR $T4[ebp]
  003e6	f2 0f 11 04 24	 movsd	 QWORD PTR [esp], xmm0
  003eb	e8 00 00 00 00	 call	 ?GetVertScaleLogType@CSelectSubGraphData@@QBE_NXZ ; CSelectSubGraphData::GetVertScaleLogType
  003f0	8b 4d 94	 mov	 ecx, DWORD PTR _this$GSCopy$1$[ebp]
  003f3	0f b6 c0	 movzx	 eax, al
  003f6	50		 push	 eax
  003f7	e8 00 00 00 00	 call	 ?CalLogValue@CDraw@@IAEN_NN@Z ; CDraw::CalLogValue
  003fc	dd 5d 84	 fstp	 QWORD PTR $T8[ebp]
  003ff	f2 0f 10 85 54
	ff ff ff	 movsd	 xmm0, QWORD PTR _datamin$[ebp]
  00407	83 ec 08	 sub	 esp, 8
  0040a	8b 4d 90	 mov	 ecx, DWORD PTR _pSelectSubGraphData$GSCopy$1$[ebp]
  0040d	f2 0f 11 04 24	 movsd	 QWORD PTR [esp], xmm0
  00412	e8 00 00 00 00	 call	 ?GetVertScaleLogType@CSelectSubGraphData@@QBE_NXZ ; CSelectSubGraphData::GetVertScaleLogType
  00417	8b 4d 94	 mov	 ecx, DWORD PTR _this$GSCopy$1$[ebp]
  0041a	0f b6 c0	 movzx	 eax, al
  0041d	50		 push	 eax
  0041e	e8 00 00 00 00	 call	 ?CalLogValue@CDraw@@IAEN_NN@Z ; CDraw::CalLogValue
  00423	6a 01		 push	 1
  00425	8d 85 78 ff ff
	ff		 lea	 eax, DWORD PTR $T4[ebp]
  0042b	50		 push	 eax
  0042c	8d 45 84	 lea	 eax, DWORD PTR $T8[ebp]
  0042f	50		 push	 eax
  00430	8d 85 68 ff ff
	ff		 lea	 eax, DWORD PTR $T2[ebp]
  00436	50		 push	 eax
  00437	8d 85 3c ff ff
	ff		 lea	 eax, DWORD PTR _realWidth$[ebp]
  0043d	50		 push	 eax
  0043e	56		 push	 esi
  0043f	8d 45 ec	 lea	 eax, DWORD PTR _graphRegion$[ebp]
  00442	50		 push	 eax
  00443	8d 85 2c ff ff
	ff		 lea	 eax, DWORD PTR _dataPt2$[ebp]
  00449	50		 push	 eax
  0044a	dd 9d 68 ff ff
	ff		 fstp	 QWORD PTR $T2[ebp]
  00450	e8 00 00 00 00	 call	 ?GetVerticalPoint@CDataConversion@@SA?AVCPoint@@ABVCRect@@HABN111_N@Z ; CDataConversion::GetVerticalPoint

; 260  : 
; 261  : 	//invert scale .
; 262  : 	CPoint mousePoint = point;

  00455	8b 8d 64 ff ff
	ff		 mov	 ecx, DWORD PTR _point$GSCopy$1$[ebp]
  0045b	83 c4 20	 add	 esp, 32			; 00000020H
  0045e	8b 01		 mov	 eax, DWORD PTR [ecx]
  00460	8b 71 04	 mov	 esi, DWORD PTR [ecx+4]

; 263  : 	if(pSelectSubGraphData->GetVertScaleInvertType())

  00463	8b 4d 90	 mov	 ecx, DWORD PTR _pSelectSubGraphData$GSCopy$1$[ebp]
  00466	89 45 88	 mov	 DWORD PTR _mousePoint$2$[ebp], eax
  00469	e8 00 00 00 00	 call	 ?GetVertScaleInvertType@CSelectSubGraphData@@QBE_NXZ ; CSelectSubGraphData::GetVertScaleInvertType
  0046e	84 c0		 test	 al, al
  00470	74 17		 je	 SHORT $LN13@PointInCom

; 264  : 		mousePoint.y = CDataConversion::InvertGraphDataPt(graphRegion, point.y);

  00472	8b 85 64 ff ff
	ff		 mov	 eax, DWORD PTR _point$GSCopy$1$[ebp]
  00478	ff 70 04	 push	 DWORD PTR [eax+4]
  0047b	8d 45 ec	 lea	 eax, DWORD PTR _graphRegion$[ebp]
  0047e	50		 push	 eax
  0047f	e8 00 00 00 00	 call	 ?InvertGraphDataPt@CDataConversion@@SAHABVCRect@@H@Z ; CDataConversion::InvertGraphDataPt
  00484	83 c4 08	 add	 esp, 8
  00487	8b f0		 mov	 esi, eax
$LN13@PointInCom:

; 265  : 
; 266  : 	if(dataPt1.y <= dataPt2.y){

  00489	8b 8d 38 ff ff
	ff		 mov	 ecx, DWORD PTR _dataPt1$[ebp+4]
  0048f	8b 85 30 ff ff
	ff		 mov	 eax, DWORD PTR _dataPt2$[ebp+4]
  00495	3b c8		 cmp	 ecx, eax
  00497	7f 1d		 jg	 SHORT $LN14@PointInCom

; 267  : 		if(dataPt1.y <= mousePoint.y && dataPt2.y >= mousePoint.y && mousePoint.x >=dataPt1.x - barWidth && mousePoint.x <= dataPt1.x + barWidth)

  00499	3b ce		 cmp	 ecx, esi
  0049b	7f 04		 jg	 SHORT $LN10@PointInCom
  0049d	3b c6		 cmp	 eax, esi
  0049f	7d 1d		 jge	 SHORT $LN41@PointInCom
$LN10@PointInCom:
  004a1	5f		 pop	 edi

; 246  : 		return -1;

  004a2	83 c8 ff	 or	 eax, -1

; 273  : 	}
; 274  : 
; 275  : 	return -1;
; 276  : }

  004a5	5e		 pop	 esi
  004a6	8b 4d fc	 mov	 ecx, DWORD PTR __$ArrayPad$[ebp]
  004a9	33 cd		 xor	 ecx, ebp
  004ab	e8 00 00 00 00	 call	 @__security_check_cookie@4
  004b0	8b e5		 mov	 esp, ebp
  004b2	5d		 pop	 ebp
  004b3	c2 0c 00	 ret	 12			; 0000000cH
$LN14@PointInCom:

; 268  : 			return dataIndex;
; 269  : 	}
; 270  : 	else{
; 271  : 		if(dataPt1.y >= mousePoint.y && dataPt2.y <= mousePoint.y && mousePoint.x >=dataPt1.x - barWidth && mousePoint.x <= dataPt1.x + barWidth)

  004b6	3b ce		 cmp	 ecx, esi
  004b8	7c e7		 jl	 SHORT $LN10@PointInCom
  004ba	3b c6		 cmp	 eax, esi
  004bc	7f e3		 jg	 SHORT $LN10@PointInCom
$LN41@PointInCom:

; 272  : 			return dataIndex;

  004be	8b b5 34 ff ff
	ff		 mov	 esi, DWORD PTR _dataPt1$[ebp]
  004c4	8b c6		 mov	 eax, esi
  004c6	8b 4d 8c	 mov	 ecx, DWORD PTR _barWidth$1$[ebp]
  004c9	2b c1		 sub	 eax, ecx
  004cb	8b 55 88	 mov	 edx, DWORD PTR _mousePoint$2$[ebp]
  004ce	3b d0		 cmp	 edx, eax
  004d0	7c cf		 jl	 SHORT $LN10@PointInCom
  004d2	8d 04 0e	 lea	 eax, DWORD PTR [esi+ecx]
  004d5	3b d0		 cmp	 edx, eax
  004d7	7f c8		 jg	 SHORT $LN10@PointInCom

; 273  : 	}
; 274  : 
; 275  : 	return -1;
; 276  : }

  004d9	8b 4d fc	 mov	 ecx, DWORD PTR __$ArrayPad$[ebp]
  004dc	8b c7		 mov	 eax, edi
  004de	5f		 pop	 edi
  004df	33 cd		 xor	 ecx, ebp
  004e1	5e		 pop	 esi
  004e2	e8 00 00 00 00	 call	 @__security_check_cookie@4
  004e7	8b e5		 mov	 esp, ebp
  004e9	5d		 pop	 ebp
  004ea	c2 0c 00	 ret	 12			; 0000000cH
?PointInCombBarGraph@CSelectSubGraph@@AAEHABVCPoint@@PBVCSelectSubGraphData@@PAVCIndicatorList@@@Z ENDP ; CSelectSubGraph::PointInCombBarGraph
_TEXT	ENDS
; Function compile flags: /Ogtp
; File D:\git\src\IBK\IBK_DRFN\ProjSrc\SrcChartEx\ChartOCX\GraphDraw\SelectSubGraph.cpp
; File C:\Program Files (x86)\Microsoft Visual Studio\2019\Community\VC\Tools\MSVC\14.29.30133\atlmfc\include\atltypes.h
; File D:\git\src\IBK\IBK_DRFN\ProjSrc\SrcChartEx\ChartOCX\GraphDraw\SelectSubGraph.cpp
; File D:\git\src\IBK\IBK_DRFN\ProjSrc\SrcChartEx\ChartOCX\Include_Chart\Dll_Load\XScaleManager.h
; File D:\git\src\IBK\IBK_DRFN\ProjSrc\SrcChartEx\ChartOCX\GraphDraw\SelectSubGraph.cpp
; File D:\git\src\IBK\IBK_DRFN\ProjSrc\SrcChartEx\ChartOCX\Include_Chart\SelectSubGraphData.h
; File D:\git\src\IBK\IBK_DRFN\ProjSrc\SrcChartEx\ChartOCX\GraphDraw\SelectSubGraph.cpp
; File C:\Program Files (x86)\Microsoft Visual Studio\2019\Community\VC\Tools\MSVC\14.29.30133\atlmfc\include\afxtempl.h
; File D:\git\src\IBK\IBK_DRFN\ProjSrc\SrcChartEx\ChartOCX\GraphDraw\SelectSubGraph.cpp
; File C:\Program Files (x86)\Microsoft Visual Studio\2019\Community\VC\Tools\MSVC\14.29.30133\atlmfc\include\cstringt.h
; File D:\git\src\IBK\IBK_DRFN\ProjSrc\SrcChartEx\ChartOCX\GraphDraw\SelectSubGraph.cpp
; File C:\Program Files (x86)\Microsoft Visual Studio\2019\Community\VC\Tools\MSVC\14.29.30133\atlmfc\include\cstringt.h
; File D:\git\src\IBK\IBK_DRFN\ProjSrc\SrcChartEx\ChartOCX\GraphDraw\SelectSubGraph.cpp
; File C:\Program Files (x86)\Microsoft Visual Studio\2019\Community\VC\Tools\MSVC\14.29.30133\atlmfc\include\atltypes.h
; File D:\git\src\IBK\IBK_DRFN\ProjSrc\SrcChartEx\ChartOCX\GraphDraw\SelectSubGraph.cpp
; File C:\Program Files (x86)\Microsoft Visual Studio\2019\Community\VC\Tools\MSVC\14.29.30133\atlmfc\include\atltypes.h
; File D:\git\src\IBK\IBK_DRFN\ProjSrc\SrcChartEx\ChartOCX\GraphDraw\SelectSubGraph.cpp
; File C:\Program Files (x86)\Microsoft Visual Studio\2019\Community\VC\Tools\MSVC\14.29.30133\atlmfc\include\atltypes.h
; File D:\git\src\IBK\IBK_DRFN\ProjSrc\SrcChartEx\ChartOCX\GraphDraw\SelectSubGraph.cpp
; File C:\Program Files (x86)\Microsoft Visual Studio\2019\Community\VC\Tools\MSVC\14.29.30133\atlmfc\include\atltypes.h
; File D:\git\src\IBK\IBK_DRFN\ProjSrc\SrcChartEx\ChartOCX\GraphDraw\SelectSubGraph.cpp
; File C:\Program Files (x86)\Microsoft Visual Studio\2019\Community\VC\Tools\MSVC\14.29.30133\atlmfc\include\atltypes.h
; File D:\git\src\IBK\IBK_DRFN\ProjSrc\SrcChartEx\ChartOCX\GraphDraw\SelectSubGraph.cpp
; File C:\Program Files (x86)\Microsoft Visual Studio\2019\Community\VC\Tools\MSVC\14.29.30133\atlmfc\include\afxtempl.h
; File D:\git\src\IBK\IBK_DRFN\ProjSrc\SrcChartEx\ChartOCX\GraphDraw\SelectSubGraph.cpp
;	COMDAT ?PointInBarGraph@CSelectSubGraph@@AAEHABVCPoint@@PBVCSelectSubGraphData@@PAVCIndicatorList@@@Z
_TEXT	SEGMENT
$T2 = -192						; size = 40
_dataViewMin$ = -152					; size = 8
_dataViewMax$ = -144					; size = 8
_dataPt$ = -136						; size = 8
_realWidth$ = -128					; size = 8
$T3 = -120						; size = 8
$T4 = -120						; size = 8
_pIndicatorList$GSCopy$1$ = -116			; size = 4
$T5 = -116						; size = 4
_pDataPacket$1$ = -112					; size = 4
$T6 = -112						; size = 4
_nIndex$1$ = -108					; size = 4
_standardDataPt$7 = -104				; size = 8
_viewDataMin$8 = -104					; size = 8
_pageDataCount$1$ = -100				; size = 4
tv774 = -96						; size = 8
_viewDataMax$9 = -96					; size = 8
$T10 = -96						; size = 8
_nGap$2$ = -92						; size = 4
$T11 = -92						; size = 4
_mousePoint$1$ = -88					; size = 4
$T12 = -84						; size = 8
_point$GSCopy$1$ = -80					; size = 4
$T13 = -80						; size = 4
_dataStart$ = -76					; size = 4
_dataEnd$ = -72						; size = 4
_area$ = -68						; size = 6
_this$GSCopy$1$ = -60					; size = 4
_dataIndex$ = -56					; size = 4
tv903 = -52						; size = 4
_mousePoint$2$ = -52					; size = 4
_dataPos$1$ = -52					; size = 4
_nCol$14 = -52						; size = 4
$T15 = -52						; size = 4
_region$16 = -48					; size = 16
$T17 = -48						; size = 16
$T18 = -48						; size = 16
$T19 = -40						; size = 8
_graphRegion$ = -32					; size = 16
__$ArrayPad$ = -16					; size = 4
__$EHRec$ = -12						; size = 12
_point$ = 8						; size = 4
_pSelectSubGraphData$ = 12				; size = 4
_pIndicatorList$ = 16					; size = 4
?PointInBarGraph@CSelectSubGraph@@AAEHABVCPoint@@PBVCSelectSubGraphData@@PAVCIndicatorList@@@Z PROC ; CSelectSubGraph::PointInBarGraph, COMDAT
; _this$ = ecx

; 322  : {

  00000	55		 push	 ebp
  00001	8b ec		 mov	 ebp, esp
  00003	6a ff		 push	 -1
  00005	68 00 00 00 00	 push	 __ehhandler$?PointInBarGraph@CSelectSubGraph@@AAEHABVCPoint@@PBVCSelectSubGraphData@@PAVCIndicatorList@@@Z
  0000a	64 a1 00 00 00
	00		 mov	 eax, DWORD PTR fs:0
  00010	50		 push	 eax
  00011	81 ec b4 00 00
	00		 sub	 esp, 180		; 000000b4H
  00017	a1 00 00 00 00	 mov	 eax, DWORD PTR ___security_cookie
  0001c	33 c5		 xor	 eax, ebp
  0001e	89 45 f0	 mov	 DWORD PTR __$ArrayPad$[ebp], eax
  00021	53		 push	 ebx
  00022	56		 push	 esi
  00023	57		 push	 edi
  00024	50		 push	 eax
  00025	8d 45 f4	 lea	 eax, DWORD PTR __$EHRec$[ebp]
  00028	64 a3 00 00 00
	00		 mov	 DWORD PTR fs:0, eax
  0002e	89 4d c4	 mov	 DWORD PTR _this$GSCopy$1$[ebp], ecx
  00031	8b 45 08	 mov	 eax, DWORD PTR _point$[ebp]
  00034	8b 7d 0c	 mov	 edi, DWORD PTR _pSelectSubGraphData$[ebp]
  00037	89 45 b0	 mov	 DWORD PTR _point$GSCopy$1$[ebp], eax
  0003a	8b 45 10	 mov	 eax, DWORD PTR _pIndicatorList$[ebp]
  0003d	89 45 8c	 mov	 DWORD PTR _pIndicatorList$GSCopy$1$[ebp], eax

; 323  : 	if(pSelectSubGraphData == NULL || pSelectSubGraphData->GetSubGraphType() != CGraphBaseData::Bar_Type)

  00040	85 ff		 test	 edi, edi
  00042	0f 84 a1 05 00
	00		 je	 $LN3@PointInBar
  00048	8b cf		 mov	 ecx, edi
  0004a	e8 00 00 00 00	 call	 ?GetSubGraphType@CSelectSubGraphData@@QBE?AW4GRAPHTYPE@CGraphBaseData@@XZ ; CSelectSubGraphData::GetSubGraphType
  0004f	83 f8 02	 cmp	 eax, 2
  00052	0f 85 91 05 00
	00		 jne	 $LN3@PointInBar

; 325  : 
; 326  : 	const CList< CPacket *, CPacket *> &packetList = pSelectSubGraphData->GetSubGraphPacketList()->GetSubGraphPacketList();

  00058	8b cf		 mov	 ecx, edi
  0005a	e8 00 00 00 00	 call	 ?GetSubGraphPacketList@CSelectSubGraphData@@QBEPAVCSubGraphPacketList@@XZ ; CSelectSubGraphData::GetSubGraphPacketList
  0005f	8b c8		 mov	 ecx, eax
  00061	e8 00 00 00 00	 call	 ?GetSubGraphPacketList@CSubGraphPacketList@@QBEABV?$CList@PAVCPacket@@PAV1@@@XZ ; CSubGraphPacketList::GetSubGraphPacketList

; 327  : 	if(packetList.GetCount() <= 0)

  00066	83 78 0c 00	 cmp	 DWORD PTR [eax+12], 0
  0006a	0f 8e 79 05 00
	00		 jle	 $LN3@PointInBar

; 328  : 		return -1;
; 329  : 	
; 330  : 	POSITION pos = packetList.GetHeadPosition();

  00070	8b 70 04	 mov	 esi, DWORD PTR [eax+4]

; 331  : 	if(pos == NULL)	

  00073	85 f6		 test	 esi, esi
  00075	0f 84 6e 05 00
	00		 je	 $LN3@PointInBar

; 332  : 		return -1;
; 333  : 	CPacket* pDataPacket = packetList.GetNext(pos);

  0007b	8b 76 08	 mov	 esi, DWORD PTR [esi+8]
  0007e	89 75 90	 mov	 DWORD PTR _pDataPacket$1$[ebp], esi

; 334  : 	if(pDataPacket == NULL)	return -1;

  00081	85 f6		 test	 esi, esi
  00083	0f 84 60 05 00
	00		 je	 $LN3@PointInBar

; 335  : 
; 336  : 	//sy 2004.12.45.
; 337  : 	int dataStart = 0, dataEnd = 0;

  00089	0f 57 c0	 xorps	 xmm0, xmm0
  0008c	c7 45 b4 00 00
	00 00		 mov	 DWORD PTR _dataStart$[ebp], 0

; 339  : 	if(!CGripDraw().GetGripDrawData_BarType(pDataPacket, *pSelectSubGraphData, 

  00093	8d 8d 40 ff ff
	ff		 lea	 ecx, DWORD PTR $T2[ebp]
  00099	c7 45 b8 00 00
	00 00		 mov	 DWORD PTR _dataEnd$[ebp], 0
; File C:\Program Files (x86)\Microsoft Visual Studio\2019\Community\VC\Tools\MSVC\14.29.30133\atlmfc\include\atltypes.h

; 540  : 	left = l;

  000a0	0f 11 45 e0	 movups	 XMMWORD PTR _graphRegion$[ebp], xmm0
; File D:\git\src\IBK\IBK_DRFN\ProjSrc\SrcChartEx\ChartOCX\GraphDraw\SelectSubGraph.cpp

; 339  : 	if(!CGripDraw().GetGripDrawData_BarType(pDataPacket, *pSelectSubGraphData, 

  000a4	e8 00 00 00 00	 call	 ??0CGripDraw@@QAE@XZ	; CGripDraw::CGripDraw
  000a9	8d 4d e0	 lea	 ecx, DWORD PTR _graphRegion$[ebp]
  000ac	c7 45 fc 00 00
	00 00		 mov	 DWORD PTR __$EHRec$[ebp+8], 0
  000b3	51		 push	 ecx
  000b4	8d 4d b8	 lea	 ecx, DWORD PTR _dataEnd$[ebp]
  000b7	51		 push	 ecx
  000b8	8d 4d b4	 lea	 ecx, DWORD PTR _dataStart$[ebp]
  000bb	51		 push	 ecx
  000bc	57		 push	 edi
  000bd	56		 push	 esi
  000be	8b c8		 mov	 ecx, eax
  000c0	e8 00 00 00 00	 call	 ?GetGripDrawData_BarType@CGripDraw@@QBE_NPAVCPacket@@ABVCSelectSubGraphData@@AAH2AAVCRect@@@Z ; CGripDraw::GetGripDrawData_BarType
  000c5	8d 8d 40 ff ff
	ff		 lea	 ecx, DWORD PTR $T2[ebp]
  000cb	c7 45 fc ff ff
	ff ff		 mov	 DWORD PTR __$EHRec$[ebp+8], -1
  000d2	8a d8		 mov	 bl, al
  000d4	e8 00 00 00 00	 call	 ??1CGripDraw@@UAE@XZ	; CGripDraw::~CGripDraw
  000d9	84 db		 test	 bl, bl
  000db	0f 84 08 05 00
	00		 je	 $LN3@PointInBar

; 340  : 		dataStart, dataEnd, graphRegion))
; 341  : 		return -1;
; 342  : 	//sy end
; 343  : 
; 344  : 	int pageDataCount = dataEnd - dataStart + 1;

  000e1	8b 45 b8	 mov	 eax, DWORD PTR _dataEnd$[ebp]

; 347  : 	CGraphBaseData::BARSTYLE eGraphStyle = pSelectSubGraphData->GetSubGraphStyle().GetGraphBarStyle();

  000e4	8b cf		 mov	 ecx, edi
  000e6	2b 45 b4	 sub	 eax, DWORD PTR _dataStart$[ebp]
  000e9	40		 inc	 eax
  000ea	c7 45 c8 00 00
	00 00		 mov	 DWORD PTR _dataIndex$[ebp], 0
  000f1	89 45 9c	 mov	 DWORD PTR _pageDataCount$1$[ebp], eax
; File D:\git\src\IBK\IBK_DRFN\ProjSrc\SrcChartEx\ChartOCX\Include_Chart\Dll_Load\XScaleManager.h

; 67   : 			left = center = right = 0;

  000f4	33 c0		 xor	 eax, eax
  000f6	89 45 be	 mov	 DWORD PTR _area$[ebp+2], eax
  000f9	66 89 45 bc	 mov	 WORD PTR _area$[ebp], ax
; File D:\git\src\IBK\IBK_DRFN\ProjSrc\SrcChartEx\ChartOCX\GraphDraw\SelectSubGraph.cpp

; 347  : 	CGraphBaseData::BARSTYLE eGraphStyle = pSelectSubGraphData->GetSubGraphStyle().GetGraphBarStyle();

  000fd	8d 45 a4	 lea	 eax, DWORD PTR $T11[ebp]
  00100	50		 push	 eax
  00101	e8 00 00 00 00	 call	 ?GetSubGraphStyle@CSelectSubGraphData@@QBE?AVCGraphStyle@@XZ ; CSelectSubGraphData::GetSubGraphStyle
  00106	8b 18		 mov	 ebx, DWORD PTR [eax]

; 348  : 	if(eGraphStyle == CGraphBaseData::HorizontalBar || eGraphStyle == CGraphBaseData::TextHorizontalBar){

  00108	83 fb 01	 cmp	 ebx, 1
  0010b	0f 84 48 02 00
	00		 je	 $LN10@PointInBar
  00111	83 fb 0a	 cmp	 ebx, 10			; 0000000aH
  00114	0f 84 3f 02 00
	00		 je	 $LN10@PointInBar

; 351  : 	}
; 352  : 	else
; 353  : 	{
; 354  : 		int nCol = 0;
; 355  : 		pSelectSubGraphData->GetXScaleManager()->GetDTInAREAfRQnPt(pSelectSubGraphData->GetRQ(), point.x, nCol, &dataIndex, &area);

  0011a	8b cf		 mov	 ecx, edi
  0011c	c7 45 cc 00 00
	00 00		 mov	 DWORD PTR _nCol$14[ebp], 0
  00123	e8 00 00 00 00	 call	 ?GetXScaleManager@CSelectSubGraphData@@QBEPAVCXScaleManager@@XZ ; CSelectSubGraphData::GetXScaleManager
  00128	8b 4d b0	 mov	 ecx, DWORD PTR _point$GSCopy$1$[ebp]
  0012b	8b f0		 mov	 esi, eax
  0012d	6a 00		 push	 0
  0012f	8d 45 bc	 lea	 eax, DWORD PTR _area$[ebp]
  00132	50		 push	 eax
  00133	8d 45 c8	 lea	 eax, DWORD PTR _dataIndex$[ebp]
  00136	50		 push	 eax
  00137	8d 45 cc	 lea	 eax, DWORD PTR _nCol$14[ebp]
  0013a	50		 push	 eax
  0013b	ff 31		 push	 DWORD PTR [ecx]
  0013d	51		 push	 ecx
  0013e	54		 push	 esp
  0013f	8b cf		 mov	 ecx, edi
  00141	e8 00 00 00 00	 call	 ?GetRQ@CSelectSubGraphData@@QBE?AV?$CStringT@DV?$StrTraitMFC_DLL@DV?$ChTraitsCRT@D@ATL@@@@@ATL@@XZ ; CSelectSubGraphData::GetRQ
  00146	8b 06		 mov	 eax, DWORD PTR [esi]
  00148	8b ce		 mov	 ecx, esi
  0014a	ff 90 34 01 00
	00		 call	 DWORD PTR [eax+308]
$LN84@PointInBar:

; 356  : 	}
; 357  : 
; 358  : 	if(dataIndex == -1)

  00150	8b 45 c8	 mov	 eax, DWORD PTR _dataIndex$[ebp]
$LN11@PointInBar:
  00153	83 f8 ff	 cmp	 eax, -1
  00156	0f 84 8d 04 00
	00		 je	 $LN3@PointInBar

; 359  : 		return -1;
; 360  : 	 
; 361  : 	POSITION dataPos = pDataPacket->GetnumericDataList()->FindIndex(dataIndex);

  0015c	8b 75 90	 mov	 esi, DWORD PTR _pDataPacket$1$[ebp]
  0015f	8b ce		 mov	 ecx, esi
  00161	50		 push	 eax
  00162	ff 15 00 00 00
	00		 call	 DWORD PTR __imp_?GetnumericDataList@CPacket@@QAEPAV?$CList@NN@@XZ
  00168	8b c8		 mov	 ecx, eax
  0016a	e8 00 00 00 00	 call	 ?FindIndex@?$CList@NN@@QBEPAU__POSITION@@H@Z ; CList<double,double>::FindIndex
  0016f	89 45 cc	 mov	 DWORD PTR _dataPos$1$[ebp], eax

; 362  : 	if(dataPos == NULL) 

  00172	85 c0		 test	 eax, eax
  00174	0f 84 6f 04 00
	00		 je	 $LN3@PointInBar

; 363  : 		return -1;
; 364  : 
; 365  : 	double realWidth = CDraw::CalRealWidth(graphRegion, dataStart, dataEnd);

  0017a	ff 75 b8	 push	 DWORD PTR _dataEnd$[ebp]
  0017d	8b 4d c4	 mov	 ecx, DWORD PTR _this$GSCopy$1$[ebp]
  00180	8d 45 e0	 lea	 eax, DWORD PTR _graphRegion$[ebp]
  00183	ff 75 b4	 push	 DWORD PTR _dataStart$[ebp]
  00186	50		 push	 eax
  00187	e8 00 00 00 00	 call	 ?CalRealWidth@CDraw@@IAENABVCRect@@HH@Z ; CDraw::CalRealWidth

; 366  : 	double dataViewMin = CDraw::CalLogValue(pSelectSubGraphData->GetVertScaleLogType(), pSelectSubGraphData->GetDisplayDataVertMinMax().GetDisplayMin());

  0018c	8d 45 d0	 lea	 eax, DWORD PTR $T18[ebp]
  0018f	8b cf		 mov	 ecx, edi
  00191	50		 push	 eax
  00192	dd 5d 80	 fstp	 QWORD PTR _realWidth$[ebp]
  00195	e8 00 00 00 00	 call	 ?GetDisplayDataVertMinMax@CSelectSubGraphData@@QBE?AVCDisplayDataMinMax@@XZ ; CSelectSubGraphData::GetDisplayDataVertMinMax
  0019a	8b c8		 mov	 ecx, eax
  0019c	ff 15 00 00 00
	00		 call	 DWORD PTR __imp_?GetDisplayMin@CDisplayDataMinMax@@QBENXZ
  001a2	83 ec 08	 sub	 esp, 8
  001a5	8b cf		 mov	 ecx, edi
  001a7	dd 1c 24	 fstp	 QWORD PTR [esp]
  001aa	e8 00 00 00 00	 call	 ?GetVertScaleLogType@CSelectSubGraphData@@QBE_NXZ ; CSelectSubGraphData::GetVertScaleLogType
  001af	8b 4d c4	 mov	 ecx, DWORD PTR _this$GSCopy$1$[ebp]
  001b2	0f b6 c0	 movzx	 eax, al
  001b5	50		 push	 eax
  001b6	e8 00 00 00 00	 call	 ?CalLogValue@CDraw@@IAEN_NN@Z ; CDraw::CalLogValue

; 367  : 	double dataViewMax = CDraw::CalLogValue(pSelectSubGraphData->GetVertScaleLogType(), pSelectSubGraphData->GetDisplayDataVertMinMax().GetDisplayMax());

  001bb	8d 45 d0	 lea	 eax, DWORD PTR $T17[ebp]
  001be	8b cf		 mov	 ecx, edi
  001c0	50		 push	 eax
  001c1	dd 9d 68 ff ff
	ff		 fstp	 QWORD PTR _dataViewMin$[ebp]
  001c7	e8 00 00 00 00	 call	 ?GetDisplayDataVertMinMax@CSelectSubGraphData@@QBE?AVCDisplayDataMinMax@@XZ ; CSelectSubGraphData::GetDisplayDataVertMinMax
  001cc	8b c8		 mov	 ecx, eax
  001ce	ff 15 00 00 00
	00		 call	 DWORD PTR __imp_?GetDisplayMax@CDisplayDataMinMax@@QBENXZ
  001d4	83 ec 08	 sub	 esp, 8
  001d7	8b cf		 mov	 ecx, edi
  001d9	dd 1c 24	 fstp	 QWORD PTR [esp]
  001dc	e8 00 00 00 00	 call	 ?GetVertScaleLogType@CSelectSubGraphData@@QBE_NXZ ; CSelectSubGraphData::GetVertScaleLogType
  001e1	8b 4d c4	 mov	 ecx, DWORD PTR _this$GSCopy$1$[ebp]
  001e4	0f b6 c0	 movzx	 eax, al
  001e7	50		 push	 eax
  001e8	e8 00 00 00 00	 call	 ?CalLogValue@CDraw@@IAEN_NN@Z ; CDraw::CalLogValue

; 1322 : 		return dataStart;

  001ed	8b 4d b4	 mov	 ecx, DWORD PTR _dataStart$[ebp]

; 1323 : 	
; 1324 : 	return (dataIndex - dataStart);

  001f0	8b 55 c8	 mov	 edx, DWORD PTR _dataIndex$[ebp]
  001f3	2b d1		 sub	 edx, ecx
  001f5	39 4d c8	 cmp	 DWORD PTR _dataIndex$[ebp], ecx

; 367  : 	double dataViewMax = CDraw::CalLogValue(pSelectSubGraphData->GetVertScaleLogType(), pSelectSubGraphData->GetDisplayDataVertMinMax().GetDisplayMax());

  001f8	dd 9d 70 ff ff
	ff		 fstp	 QWORD PTR _dataViewMax$[ebp]

; 1321 : 	if(dataIndex < dataStart)

  001fe	0f 4c d1	 cmovl	 edx, ecx

; 368  : 	int nIndex = GetIndex(dataIndex, dataStart);
; 369  : 	CPoint dataPt = CDataConversion::GetVerticalPoint(graphRegion, nIndex, realWidth, dataViewMin, dataViewMax, CDraw::CalLogValue(pSelectSubGraphData->GetVertScaleLogType(), pDataPacket->GetnumericDataList()->GetNext(dataPos)));

  00201	8b ce		 mov	 ecx, esi

; 1321 : 	if(dataIndex < dataStart)

  00203	89 55 94	 mov	 DWORD PTR _nIndex$1$[ebp], edx

; 368  : 	int nIndex = GetIndex(dataIndex, dataStart);
; 369  : 	CPoint dataPt = CDataConversion::GetVerticalPoint(graphRegion, nIndex, realWidth, dataViewMin, dataViewMax, CDraw::CalLogValue(pSelectSubGraphData->GetVertScaleLogType(), pDataPacket->GetnumericDataList()->GetNext(dataPos)));

  00206	ff 15 00 00 00
	00		 call	 DWORD PTR __imp_?GetnumericDataList@CPacket@@QAEPAV?$CList@NN@@XZ
  0020c	8b 45 cc	 mov	 eax, DWORD PTR _dataPos$1$[ebp]
  0020f	83 ec 08	 sub	 esp, 8
  00212	8b cf		 mov	 ecx, edi
  00214	f2 0f 10 40 08	 movsd	 xmm0, QWORD PTR [eax+8]
  00219	f2 0f 11 04 24	 movsd	 QWORD PTR [esp], xmm0
  0021e	e8 00 00 00 00	 call	 ?GetVertScaleLogType@CSelectSubGraphData@@QBE_NXZ ; CSelectSubGraphData::GetVertScaleLogType
  00223	8b 4d c4	 mov	 ecx, DWORD PTR _this$GSCopy$1$[ebp]
  00226	0f b6 c0	 movzx	 eax, al
  00229	50		 push	 eax
  0022a	e8 00 00 00 00	 call	 ?CalLogValue@CDraw@@IAEN_NN@Z ; CDraw::CalLogValue
  0022f	6a 01		 push	 1
  00231	8d 45 a0	 lea	 eax, DWORD PTR $T10[ebp]
  00234	50		 push	 eax
  00235	8d 85 70 ff ff
	ff		 lea	 eax, DWORD PTR _dataViewMax$[ebp]
  0023b	50		 push	 eax
  0023c	8d 85 68 ff ff
	ff		 lea	 eax, DWORD PTR _dataViewMin$[ebp]
  00242	50		 push	 eax
  00243	8d 45 80	 lea	 eax, DWORD PTR _realWidth$[ebp]
  00246	50		 push	 eax
  00247	ff 75 94	 push	 DWORD PTR _nIndex$1$[ebp]
  0024a	8d 45 e0	 lea	 eax, DWORD PTR _graphRegion$[ebp]
  0024d	50		 push	 eax
  0024e	8d 85 78 ff ff
	ff		 lea	 eax, DWORD PTR _dataPt$[ebp]
  00254	50		 push	 eax
  00255	dd 5d a0	 fstp	 QWORD PTR $T10[ebp]
  00258	e8 00 00 00 00	 call	 ?GetVerticalPoint@CDataConversion@@SA?AVCPoint@@ABVCRect@@HABN111_N@Z ; CDataConversion::GetVerticalPoint

; 370  : //	CPoint startPt = CDataConversion::GetVerticalPoint(graphRegion, count, realWidth, dataViewMin, dataViewMax, CDraw::CalLogValue(pSelectSubGraphData->GetVertScaleLogType(), pDataPacket->GetnumericDataList()->GetNext(dataPos)), false);
; 371  : //	CPoint endPt = CDataConversion::GetVerticalPoint(graphRegion, count+1, realWidth, dataViewMin, dataViewMax, CDraw::CalLogValue(pSelectSubGraphData->GetVertScaleLogType(), pDataPacket->GetnumericDataList()->GetNext(dataPos)), false);
; 372  : 
; 373  : 	//invert scale .
; 374  : 	CPoint mousePoint = point;

  0025d	8b 4d b0	 mov	 ecx, DWORD PTR _point$GSCopy$1$[ebp]
  00260	83 c4 20	 add	 esp, 32			; 00000020H
  00263	8b 01		 mov	 eax, DWORD PTR [ecx]
  00265	89 45 cc	 mov	 DWORD PTR _mousePoint$2$[ebp], eax
  00268	8b 41 04	 mov	 eax, DWORD PTR [ecx+4]

; 375  : 	if(pSelectSubGraphData->GetVertScaleInvertType())

  0026b	8b cf		 mov	 ecx, edi
  0026d	89 45 a8	 mov	 DWORD PTR _mousePoint$1$[ebp], eax
  00270	e8 00 00 00 00	 call	 ?GetVertScaleInvertType@CSelectSubGraphData@@QBE_NXZ ; CSelectSubGraphData::GetVertScaleInvertType
  00275	84 c0		 test	 al, al
  00277	74 15		 je	 SHORT $LN14@PointInBar

; 376  : 		mousePoint.y = CDataConversion::InvertGraphDataPt(graphRegion, point.y);

  00279	8b 4d b0	 mov	 ecx, DWORD PTR _point$GSCopy$1$[ebp]
  0027c	8d 45 e0	 lea	 eax, DWORD PTR _graphRegion$[ebp]
  0027f	ff 71 04	 push	 DWORD PTR [ecx+4]
  00282	50		 push	 eax
  00283	e8 00 00 00 00	 call	 ?InvertGraphDataPt@CDataConversion@@SAHABVCRect@@H@Z ; CDataConversion::InvertGraphDataPt
  00288	83 c4 08	 add	 esp, 8
  0028b	89 45 a8	 mov	 DWORD PTR _mousePoint$1$[ebp], eax
$LN14@PointInBar:

; 377  : 
; 378  : 	int nGap = int(realWidth*0.8/2.0);

  0028e	f2 0f 10 45 80	 movsd	 xmm0, QWORD PTR _realWidth$[ebp]

; 379  : 	if(nGap < 6)

  00293	b9 06 00 00 00	 mov	 ecx, 6
  00298	f2 0f 59 05 00
	00 00 00	 mulsd	 xmm0, QWORD PTR __real@3fe999999999999a
  002a0	f2 0f 59 05 00
	00 00 00	 mulsd	 xmm0, QWORD PTR __real@3fe0000000000000
  002a8	f2 0f 2c c0	 cvttsd2si eax, xmm0
  002ac	3b c1		 cmp	 eax, ecx
  002ae	0f 4c c1	 cmovl	 eax, ecx
  002b1	89 45 a4	 mov	 DWORD PTR _nGap$2$[ebp], eax

; 380  : 		nGap = 6;
; 381  : 	if(eGraphStyle == CGraphBaseData::HorizontalBar || eGraphStyle == CGraphBaseData::TextHorizontalBar){

  002b4	83 fb 01	 cmp	 ebx, 1
  002b7	0f 84 e1 01 00
	00		 je	 $LN18@PointInBar
  002bd	83 fb 0a	 cmp	 ebx, 10			; 0000000aH
  002c0	0f 84 d8 01 00
	00		 je	 $LN18@PointInBar

; 388  : 		if(nGap > 6)
; 389  : 			nGap = int(realWidth*0.8/2.0);
; 390  : 	}
; 391  : 	//   - ojtaso (20080603)
; 392  : 	else if(eGraphStyle == CGraphBaseData::UpDownBar || eGraphStyle == CGraphBaseData::FixedRateUpDownBar)

  002c6	83 fb 02	 cmp	 ebx, 2
  002c9	74 09		 je	 SHORT $LN21@PointInBar
  002cb	83 fb 10	 cmp	 ebx, 16			; 00000010H
  002ce	0f 85 b0 02 00
	00		 jne	 $LN87@PointInBar
$LN21@PointInBar:

; 393  : 	{
; 394  : 		double standardData = 0.0;   //  ~~~
; 395  : 		CIndicatorInfo* pIndicatorInfo = NULL;
; 396  : 		if(pIndicatorList != NULL)

  002d4	8b 75 8c	 mov	 esi, DWORD PTR _pIndicatorList$GSCopy$1$[ebp]
  002d7	0f 57 c0	 xorps	 xmm0, xmm0
  002da	85 f6		 test	 esi, esi
  002dc	0f 84 30 01 00
	00		 je	 $LN24@PointInBar
; File D:\git\src\IBK\IBK_DRFN\ProjSrc\SrcChartEx\ChartOCX\Include_Chart\SelectSubGraphData.h

; 42   : 	CString GetIndicatorName() const	{	return m_strIndicatorName;	}

  002e2	8d 47 08	 lea	 eax, DWORD PTR [edi+8]
  002e5	50		 push	 eax
  002e6	8d 4d b0	 lea	 ecx, DWORD PTR $T13[ebp]
  002e9	ff 15 00 00 00
	00		 call	 DWORD PTR __imp_??0?$CStringT@DV?$StrTraitMFC_DLL@DV?$ChTraitsCRT@D@ATL@@@@@ATL@@QAE@ABV01@@Z
; File D:\git\src\IBK\IBK_DRFN\ProjSrc\SrcChartEx\ChartOCX\GraphDraw\SelectSubGraph.cpp

; 397  : 			pIndicatorInfo = pIndicatorList->GetGraphIndicatorInfo( EILT_USER, pSelectSubGraphData->GetGraphName(), pSelectSubGraphData->GetIndicatorName(), EIIGT_WITH_DEFAULT_GET);

  002ef	8d 45 8c	 lea	 eax, DWORD PTR $T5[ebp]
  002f2	c7 45 fc 02 00
	00 00		 mov	 DWORD PTR __$EHRec$[ebp+8], 2
  002f9	50		 push	 eax
  002fa	8b cf		 mov	 ecx, edi
  002fc	e8 00 00 00 00	 call	 ?GetGraphName@CSelectSubGraphData@@QBE?AV?$CStringT@DV?$StrTraitMFC_DLL@DV?$ChTraitsCRT@D@ATL@@@@@ATL@@XZ ; CSelectSubGraphData::GetGraphName
  00301	6a 01		 push	 1
  00303	ff 75 b0	 push	 DWORD PTR $T13[ebp]
  00306	8b ce		 mov	 ecx, esi
  00308	c6 45 fc 03	 mov	 BYTE PTR __$EHRec$[ebp+8], 3
  0030c	ff 30		 push	 DWORD PTR [eax]
  0030e	6a 03		 push	 3
  00310	ff 15 00 00 00
	00		 call	 DWORD PTR __imp_?GetGraphIndicatorInfo@CIndicatorList@@QAEPAVCIndicatorInfo@@W4EIndicatorListType@@PBD1W4EIndicatorInfoGettingType@@@Z
  00316	8d 4d 8c	 lea	 ecx, DWORD PTR $T5[ebp]
  00319	8b f0		 mov	 esi, eax
  0031b	ff 15 00 00 00
	00		 call	 DWORD PTR __imp_??1?$CStringT@DV?$StrTraitMFC_DLL@DV?$ChTraitsCRT@D@ATL@@@@@ATL@@QAE@XZ
  00321	8d 4d b0	 lea	 ecx, DWORD PTR $T13[ebp]
  00324	c7 45 fc ff ff
	ff ff		 mov	 DWORD PTR __$EHRec$[ebp+8], -1
  0032b	ff 15 00 00 00
	00		 call	 DWORD PTR __imp_??1?$CStringT@DV?$StrTraitMFC_DLL@DV?$ChTraitsCRT@D@ATL@@@@@ATL@@QAE@XZ

; 398  : 		if(pIndicatorInfo != NULL){

  00331	85 f6		 test	 esi, esi
  00333	0f 84 d6 00 00
	00		 je	 $LN86@PointInBar

; 399  : 			CList<double, double>* pBaseLineList = pIndicatorInfo->GetBaseLineList();

  00339	8b ce		 mov	 ecx, esi
  0033b	ff 15 00 00 00
	00		 call	 DWORD PTR __imp_?GetBaseLineList@CIndicatorInfo@@QAEPAV?$CList@NN@@XZ

; 400  : 			if(pBaseLineList != NULL)

  00341	85 c0		 test	 eax, eax
  00343	0f 84 c6 00 00
	00		 je	 $LN86@PointInBar
; File C:\Program Files (x86)\Microsoft Visual Studio\2019\Community\VC\Tools\MSVC\14.29.30133\atlmfc\include\afxtempl.h

; 789  : 	{ ENSURE(m_pNodeHead != NULL);

  00349	8b 40 04	 mov	 eax, DWORD PTR [eax+4]
  0034c	85 c0		 test	 eax, eax
  0034e	0f 84 b8 02 00
	00		 je	 $LN92@PointInBar
  00354	e9 af 00 00 00	 jmp	 $LN71@PointInBar
$LN10@PointInBar:
; File D:\git\src\IBK\IBK_DRFN\ProjSrc\SrcChartEx\ChartOCX\GraphDraw\SelectSubGraph.cpp

; 349  : 		if(pDataPacket->GetName() == _MTEXT( C2_OVERHANGING_SUPPLY))

  00359	8d 45 cc	 lea	 eax, DWORD PTR $T15[ebp]
  0035c	8b ce		 mov	 ecx, esi
  0035e	50		 push	 eax
  0035f	ff 15 00 00 00
	00		 call	 DWORD PTR __imp_?GetName@CPacket@@QAE?AV?$CStringT@DV?$StrTraitMFC_DLL@DV?$ChTraitsCRT@D@ATL@@@@@ATL@@XZ
  00365	8b 0d 54 00 00
	00		 mov	 ecx, DWORD PTR ?g_iMetaTable@@3VIMetaTable@@A+84
  0036b	c7 45 fc 01 00
	00 00		 mov	 DWORD PTR __$EHRec$[ebp+8], 1
; File C:\Program Files (x86)\Microsoft Visual Studio\2019\Community\VC\Tools\MSVC\14.29.30133\atlmfc\include\cstringt.h

; 2486 : 		return(str1.Compare(psz2) == 0);

  00372	ff b1 34 03 00
	00		 push	 DWORD PTR [ecx+820]
  00378	8b c8		 mov	 ecx, eax
  0037a	ff 15 00 00 00
	00		 call	 DWORD PTR __imp_?Compare@?$CStringT@DV?$StrTraitMFC_DLL@DV?$ChTraitsCRT@D@ATL@@@@@ATL@@QBEHPBD@Z
; File D:\git\src\IBK\IBK_DRFN\ProjSrc\SrcChartEx\ChartOCX\GraphDraw\SelectSubGraph.cpp

; 349  : 		if(pDataPacket->GetName() == _MTEXT( C2_OVERHANGING_SUPPLY))

  00380	8d 4d cc	 lea	 ecx, DWORD PTR $T15[ebp]
  00383	c7 45 fc ff ff
	ff ff		 mov	 DWORD PTR __$EHRec$[ebp+8], -1
; File C:\Program Files (x86)\Microsoft Visual Studio\2019\Community\VC\Tools\MSVC\14.29.30133\atlmfc\include\cstringt.h

; 2486 : 		return(str1.Compare(psz2) == 0);

  0038a	8b f0		 mov	 esi, eax
; File D:\git\src\IBK\IBK_DRFN\ProjSrc\SrcChartEx\ChartOCX\GraphDraw\SelectSubGraph.cpp

; 349  : 		if(pDataPacket->GetName() == _MTEXT( C2_OVERHANGING_SUPPLY))

  0038c	ff 15 00 00 00
	00		 call	 DWORD PTR __imp_??1?$CStringT@DV?$StrTraitMFC_DLL@DV?$ChTraitsCRT@D@ATL@@@@@ATL@@QAE@XZ
  00392	85 f6		 test	 esi, esi
  00394	0f 85 b6 fd ff
	ff		 jne	 $LN84@PointInBar

; 350  : 			dataIndex = GetDataIndex(graphRegion, point, 0, dataEnd);

  0039a	8b 4d b0	 mov	 ecx, DWORD PTR _point$GSCopy$1$[ebp]
  0039d	8b 01		 mov	 eax, DWORD PTR [ecx]
  0039f	8b 49 04	 mov	 ecx, DWORD PTR [ecx+4]
  003a2	89 45 a0	 mov	 DWORD PTR tv774[ebp], eax
  003a5	8b 45 ec	 mov	 eax, DWORD PTR _graphRegion$[ebp+12]
  003a8	3b c1		 cmp	 eax, ecx

; 1301 : 	if(drawingRegion.bottom < point.y || point.y < drawingRegion.top)

  003aa	7c 51		 jl	 SHORT $LN46@PointInBar
  003ac	3b 4d e4	 cmp	 ecx, DWORD PTR _graphRegion$[ebp+4]
  003af	7c 4c		 jl	 SHORT $LN46@PointInBar

; 1303 : 	int index = 0;
; 1304 : 	if(dataEnd - dataStart +1 <= 0)

  003b1	8b 75 b8	 mov	 esi, DWORD PTR _dataEnd$[ebp]
  003b4	8d 56 01	 lea	 edx, DWORD PTR [esi+1]
  003b7	89 55 cc	 mov	 DWORD PTR tv903[ebp], edx
  003ba	85 d2		 test	 edx, edx
  003bc	8b 55 e4	 mov	 edx, DWORD PTR _graphRegion$[ebp+4]
  003bf	7f 0a		 jg	 SHORT $LN47@PointInBar

; 1305 : 		return index;

  003c1	33 c0		 xor	 eax, eax

; 350  : 			dataIndex = GetDataIndex(graphRegion, point, 0, dataEnd);

  003c3	89 45 c8	 mov	 DWORD PTR _dataIndex$[ebp], eax
  003c6	e9 88 fd ff ff	 jmp	 $LN11@PointInBar
$LN47@PointInBar:

; 1308 : 	index =  int((double)((point.y - drawingRegion.top)*(dataEnd - (dataStart -1))) / (double)drawingRegion.Height());

  003cb	2b ca		 sub	 ecx, edx
; File C:\Program Files (x86)\Microsoft Visual Studio\2019\Community\VC\Tools\MSVC\14.29.30133\atlmfc\include\atltypes.h

; 581  : 	return bottom - top;

  003cd	2b c2		 sub	 eax, edx
; File D:\git\src\IBK\IBK_DRFN\ProjSrc\SrcChartEx\ChartOCX\GraphDraw\SelectSubGraph.cpp

; 1308 : 	index =  int((double)((point.y - drawingRegion.top)*(dataEnd - (dataStart -1))) / (double)drawingRegion.Height());

  003cf	0f af 4d cc	 imul	 ecx, DWORD PTR tv903[ebp]
  003d3	66 0f 6e c0	 movd	 xmm0, eax
  003d7	f3 0f e6 c0	 cvtdq2pd xmm0, xmm0
  003db	66 0f 6e c9	 movd	 xmm1, ecx

; 1309 : 
; 1310 : 	if(index >= 0)
; 1311 : 		index = dataStart + index;
; 1312 : 	if(index > dataEnd)

  003df	b9 ff ff ff ff	 mov	 ecx, -1
  003e4	f3 0f e6 c9	 cvtdq2pd xmm1, xmm1
  003e8	f2 0f 5e c8	 divsd	 xmm1, xmm0
  003ec	f2 0f 2c c1	 cvttsd2si eax, xmm1
  003f0	3b c6		 cmp	 eax, esi
  003f2	0f 4f c1	 cmovg	 eax, ecx

; 350  : 			dataIndex = GetDataIndex(graphRegion, point, 0, dataEnd);

  003f5	89 45 c8	 mov	 DWORD PTR _dataIndex$[ebp], eax
  003f8	e9 56 fd ff ff	 jmp	 $LN11@PointInBar
$LN46@PointInBar:

; 1302 : 		return -1;

  003fd	83 c8 ff	 or	 eax, -1

; 350  : 			dataIndex = GetDataIndex(graphRegion, point, 0, dataEnd);

  00400	89 45 c8	 mov	 DWORD PTR _dataIndex$[ebp], eax
  00403	e9 4b fd ff ff	 jmp	 $LN11@PointInBar
$LN71@PointInBar:

; 401  : 				standardData = pBaseLineList->GetHead();

  00408	f2 0f 10 40 08	 movsd	 xmm0, QWORD PTR [eax+8]
  0040d	eb 03		 jmp	 SHORT $LN24@PointInBar
$LN86@PointInBar:

; 403  : 		CPoint standardDataPt = CDataConversion::GetVerticalPoint(graphRegion, nIndex, realWidth, dataViewMin, dataViewMax, CDraw::CalLogValue(pSelectSubGraphData->GetVertScaleLogType(), standardData));

  0040f	0f 57 c0	 xorps	 xmm0, xmm0
$LN24@PointInBar:
  00412	83 ec 08	 sub	 esp, 8
  00415	8b cf		 mov	 ecx, edi
  00417	f2 0f 11 04 24	 movsd	 QWORD PTR [esp], xmm0
  0041c	e8 00 00 00 00	 call	 ?GetVertScaleLogType@CSelectSubGraphData@@QBE_NXZ ; CSelectSubGraphData::GetVertScaleLogType
  00421	8b 4d c4	 mov	 ecx, DWORD PTR _this$GSCopy$1$[ebp]
  00424	0f b6 c0	 movzx	 eax, al
  00427	50		 push	 eax
  00428	e8 00 00 00 00	 call	 ?CalLogValue@CDraw@@IAEN_NN@Z ; CDraw::CalLogValue
  0042d	6a 01		 push	 1
  0042f	8d 45 88	 lea	 eax, DWORD PTR $T3[ebp]
  00432	50		 push	 eax
  00433	8d 85 70 ff ff
	ff		 lea	 eax, DWORD PTR _dataViewMax$[ebp]
  00439	50		 push	 eax
  0043a	8d 85 68 ff ff
	ff		 lea	 eax, DWORD PTR _dataViewMin$[ebp]
  00440	50		 push	 eax
  00441	8d 45 80	 lea	 eax, DWORD PTR _realWidth$[ebp]
  00444	50		 push	 eax
  00445	ff 75 94	 push	 DWORD PTR _nIndex$1$[ebp]
  00448	8d 45 e0	 lea	 eax, DWORD PTR _graphRegion$[ebp]
  0044b	50		 push	 eax
  0044c	8d 45 98	 lea	 eax, DWORD PTR _standardDataPt$7[ebp]
  0044f	50		 push	 eax
  00450	dd 5d 88	 fstp	 QWORD PTR $T3[ebp]
  00453	e8 00 00 00 00	 call	 ?GetVerticalPoint@CDataConversion@@SA?AVCPoint@@ABVCRect@@HABN111_N@Z ; CDataConversion::GetVerticalPoint
; File C:\Program Files (x86)\Microsoft Visual Studio\2019\Community\VC\Tools\MSVC\14.29.30133\atlmfc\include\atltypes.h

; 569  : 	top = topLeft.y;

  00458	8b 45 9c	 mov	 eax, DWORD PTR _standardDataPt$7[ebp+4]
; File D:\git\src\IBK\IBK_DRFN\ProjSrc\SrcChartEx\ChartOCX\GraphDraw\SelectSubGraph.cpp

; 403  : 		CPoint standardDataPt = CDataConversion::GetVerticalPoint(graphRegion, nIndex, realWidth, dataViewMin, dataViewMax, CDraw::CalLogValue(pSelectSubGraphData->GetVertScaleLogType(), standardData));

  0045b	83 c4 20	 add	 esp, 32			; 00000020H
; File C:\Program Files (x86)\Microsoft Visual Studio\2019\Community\VC\Tools\MSVC\14.29.30133\atlmfc\include\atltypes.h

; 568  : 	left = topLeft.x;

  0045e	8b 4d 98	 mov	 ecx, DWORD PTR _standardDataPt$7[ebp]

; 569  : 	top = topLeft.y;

  00461	89 45 d4	 mov	 DWORD PTR _region$16[ebp+4], eax

; 571  : 	bottom = bottomRight.y;

  00464	89 45 dc	 mov	 DWORD PTR _region$16[ebp+12], eax

; 686  : 	::InflateRect(this, x, y);

  00467	8b 45 a4	 mov	 eax, DWORD PTR _nGap$2$[ebp]
  0046a	50		 push	 eax
  0046b	50		 push	 eax
  0046c	8d 45 d0	 lea	 eax, DWORD PTR _region$16[ebp]

; 568  : 	left = topLeft.x;

  0046f	89 4d d0	 mov	 DWORD PTR _region$16[ebp], ecx

; 686  : 	::InflateRect(this, x, y);

  00472	50		 push	 eax

; 570  : 	right = bottomRight.x;

  00473	89 4d d8	 mov	 DWORD PTR _region$16[ebp+8], ecx

; 686  : 	::InflateRect(this, x, y);

  00476	ff 15 00 00 00
	00		 call	 DWORD PTR __imp__InflateRect@12

; 648  : 	return ::PtInRect(this, point);

  0047c	8b 5d a8	 mov	 ebx, DWORD PTR _mousePoint$1$[ebp]
  0047f	8d 45 d0	 lea	 eax, DWORD PTR _region$16[ebp]
  00482	8b 75 cc	 mov	 esi, DWORD PTR _mousePoint$2$[ebp]
  00485	53		 push	 ebx
  00486	56		 push	 esi
  00487	50		 push	 eax
  00488	ff 15 00 00 00
	00		 call	 DWORD PTR __imp__PtInRect@12
; File D:\git\src\IBK\IBK_DRFN\ProjSrc\SrcChartEx\ChartOCX\GraphDraw\SelectSubGraph.cpp

; 406  : 		if(region.PtInRect(mousePoint))

  0048e	85 c0		 test	 eax, eax
  00490	0f 84 f4 00 00
	00		 je	 $LN19@PointInBar

; 421  : 			return dataIndex;

  00496	8b 45 c8	 mov	 eax, DWORD PTR _dataIndex$[ebp]
  00499	e9 50 01 00 00	 jmp	 $LN1@PointInBar
$LN18@PointInBar:
; File C:\Program Files (x86)\Microsoft Visual Studio\2019\Community\VC\Tools\MSVC\14.29.30133\atlmfc\include\atltypes.h

; 581  : 	return bottom - top;

  0049e	8b 45 ec	 mov	 eax, DWORD PTR _graphRegion$[ebp+12]
; File D:\git\src\IBK\IBK_DRFN\ProjSrc\SrcChartEx\ChartOCX\GraphDraw\SelectSubGraph.cpp

; 384  : 		pDataPacket->GetMinMax(0, pDataPacket->GetCount(), viewDataMin, viewDataMax);

  004a1	8b ce		 mov	 ecx, esi
; File C:\Program Files (x86)\Microsoft Visual Studio\2019\Community\VC\Tools\MSVC\14.29.30133\atlmfc\include\atltypes.h

; 581  : 	return bottom - top;

  004a3	2b 45 e4	 sub	 eax, DWORD PTR _graphRegion$[ebp+4]
  004a6	66 0f 6e 45 9c	 movd	 xmm0, DWORD PTR _pageDataCount$1$[ebp]
; File D:\git\src\IBK\IBK_DRFN\ProjSrc\SrcChartEx\ChartOCX\GraphDraw\SelectSubGraph.cpp

; 382  : 		realWidth = (double)graphRegion.Height()/(double)pageDataCount;

  004ab	f3 0f e6 c0	 cvtdq2pd xmm0, xmm0

; 384  : 		pDataPacket->GetMinMax(0, pDataPacket->GetCount(), viewDataMin, viewDataMax);

  004af	6a 00		 push	 0
  004b1	66 0f 6e c8	 movd	 xmm1, eax
  004b5	8d 45 a0	 lea	 eax, DWORD PTR _viewDataMax$9[ebp]
  004b8	f3 0f e6 c9	 cvtdq2pd xmm1, xmm1
  004bc	50		 push	 eax
  004bd	8d 45 98	 lea	 eax, DWORD PTR _viewDataMin$8[ebp]
  004c0	50		 push	 eax
  004c1	f2 0f 5e c8	 divsd	 xmm1, xmm0
  004c5	0f 57 c0	 xorps	 xmm0, xmm0
  004c8	f2 0f 11 4d 80	 movsd	 QWORD PTR _realWidth$[ebp], xmm1
  004cd	8b 06		 mov	 eax, DWORD PTR [esi]
  004cf	f2 0f 11 45 98	 movsd	 QWORD PTR _viewDataMin$8[ebp], xmm0
  004d4	f2 0f 11 45 a0	 movsd	 QWORD PTR _viewDataMax$9[ebp], xmm0
  004d9	ff 50 14	 call	 DWORD PTR [eax+20]
  004dc	50		 push	 eax
  004dd	6a 00		 push	 0
  004df	8b ce		 mov	 ecx, esi
  004e1	ff 15 00 00 00
	00		 call	 DWORD PTR __imp_?GetMinMax@CPacket@@QAEHHHAAN0H@Z

; 385  : 		viewDataMin = 0.0;
; 386  : 		dataPos = pDataPacket->GetnumericDataList()->FindIndex(dataIndex);

  004e7	ff 75 c8	 push	 DWORD PTR _dataIndex$[ebp]
  004ea	8b 1d 00 00 00
	00		 mov	 ebx, DWORD PTR __imp_?GetnumericDataList@CPacket@@QAEPAV?$CList@NN@@XZ
  004f0	0f 57 c0	 xorps	 xmm0, xmm0
  004f3	8b ce		 mov	 ecx, esi
  004f5	f2 0f 11 45 98	 movsd	 QWORD PTR _viewDataMin$8[ebp], xmm0
  004fa	ff d3		 call	 ebx
  004fc	8b c8		 mov	 ecx, eax
  004fe	e8 00 00 00 00	 call	 ?FindIndex@?$CList@NN@@QBEPAU__POSITION@@H@Z ; CList<double,double>::FindIndex

; 387  : 		dataPt = CDataConversion::GetHorizontalPoint(graphRegion, nIndex, realWidth, viewDataMin, CDraw::CalLogValue(pSelectSubGraphData->GetVertScaleLogType(), viewDataMax), CDraw::CalLogValue(pSelectSubGraphData->GetVertScaleLogType(), pDataPacket->GetnumericDataList()->GetNext(dataPos)));

  00503	8b 4d 90	 mov	 ecx, DWORD PTR _pDataPacket$1$[ebp]
  00506	8b f0		 mov	 esi, eax
  00508	ff d3		 call	 ebx
  0050a	f2 0f 10 46 08	 movsd	 xmm0, QWORD PTR [esi+8]
  0050f	83 ec 08	 sub	 esp, 8
  00512	8b cf		 mov	 ecx, edi
  00514	f2 0f 11 04 24	 movsd	 QWORD PTR [esp], xmm0
  00519	e8 00 00 00 00	 call	 ?GetVertScaleLogType@CSelectSubGraphData@@QBE_NXZ ; CSelectSubGraphData::GetVertScaleLogType
  0051e	8b 4d c4	 mov	 ecx, DWORD PTR _this$GSCopy$1$[ebp]
  00521	0f b6 c0	 movzx	 eax, al
  00524	50		 push	 eax
  00525	e8 00 00 00 00	 call	 ?CalLogValue@CDraw@@IAEN_NN@Z ; CDraw::CalLogValue
  0052a	f2 0f 10 45 a0	 movsd	 xmm0, QWORD PTR _viewDataMax$9[ebp]
  0052f	83 ec 08	 sub	 esp, 8
  00532	8b cf		 mov	 ecx, edi
  00534	dd 5d 88	 fstp	 QWORD PTR $T4[ebp]
  00537	f2 0f 11 04 24	 movsd	 QWORD PTR [esp], xmm0
  0053c	e8 00 00 00 00	 call	 ?GetVertScaleLogType@CSelectSubGraphData@@QBE_NXZ ; CSelectSubGraphData::GetVertScaleLogType
  00541	8b 4d c4	 mov	 ecx, DWORD PTR _this$GSCopy$1$[ebp]
  00544	0f b6 c0	 movzx	 eax, al
  00547	50		 push	 eax
  00548	e8 00 00 00 00	 call	 ?CalLogValue@CDraw@@IAEN_NN@Z ; CDraw::CalLogValue
  0054d	8d 45 88	 lea	 eax, DWORD PTR $T4[ebp]
  00550	50		 push	 eax
  00551	8d 45 ac	 lea	 eax, DWORD PTR $T12[ebp]
  00554	50		 push	 eax
  00555	8d 45 98	 lea	 eax, DWORD PTR _viewDataMin$8[ebp]
  00558	50		 push	 eax
  00559	8d 45 80	 lea	 eax, DWORD PTR _realWidth$[ebp]
  0055c	50		 push	 eax
  0055d	ff 75 94	 push	 DWORD PTR _nIndex$1$[ebp]
  00560	8d 45 e0	 lea	 eax, DWORD PTR _graphRegion$[ebp]
  00563	50		 push	 eax
  00564	8d 45 d8	 lea	 eax, DWORD PTR $T19[ebp]
  00567	50		 push	 eax
  00568	dd 5d ac	 fstp	 QWORD PTR $T12[ebp]
  0056b	e8 00 00 00 00	 call	 ?GetHorizontalPoint@CDataConversion@@SA?AVCPoint@@ABVCRect@@HABN111@Z ; CDataConversion::GetHorizontalPoint
  00570	83 c4 1c	 add	 esp, 28			; 0000001cH
  00573	8b 10		 mov	 edx, DWORD PTR [eax]
  00575	8b 40 04	 mov	 eax, DWORD PTR [eax+4]
  00578	89 95 78 ff ff
	ff		 mov	 DWORD PTR _dataPt$[ebp], edx
  0057e	89 85 7c ff ff
	ff		 mov	 DWORD PTR _dataPt$[ebp+4], eax
$LN87@PointInBar:

; 407  : 			return dataIndex;
; 408  : 	}
; 409  : 	
; 410  : 	dataPt.x = area.center;

  00584	8b 75 cc	 mov	 esi, DWORD PTR _mousePoint$2$[ebp]
  00587	8b 5d a8	 mov	 ebx, DWORD PTR _mousePoint$1$[ebp]
$LN19@PointInBar:
  0058a	0f bf 45 be	 movsx	 eax, WORD PTR _area$[ebp+2]

; 411  : 	if(pSelectSubGraphData->GetSubGraphStyle().GetGraphBarStyle() == CGraphBaseData::VerticalBar)

  0058e	8b cf		 mov	 ecx, edi
  00590	89 85 78 ff ff
	ff		 mov	 DWORD PTR _dataPt$[ebp], eax
  00596	8d 45 90	 lea	 eax, DWORD PTR $T6[ebp]
  00599	50		 push	 eax
  0059a	e8 00 00 00 00	 call	 ?GetSubGraphStyle@CSelectSubGraphData@@QBE?AVCGraphStyle@@XZ ; CSelectSubGraphData::GetSubGraphStyle
  0059f	83 38 00	 cmp	 DWORD PTR [eax], 0
  005a2	0f bf 45 bc	 movsx	 eax, WORD PTR _area$[ebp]
  005a6	75 1c		 jne	 SHORT $LN26@PointInBar

; 412  : 	{
; 413  : 		if(mousePoint.x >= area.left && mousePoint.x <= area.right
; 414  : 			&& mousePoint.y >= (dataPt.y-1) && mousePoint.y <= graphRegion.bottom)

  005a8	3b f0		 cmp	 esi, eax
  005aa	7c 3d		 jl	 SHORT $LN3@PointInBar
  005ac	0f bf 45 c0	 movsx	 eax, WORD PTR _area$[ebp+4]
  005b0	3b f0		 cmp	 esi, eax
  005b2	7f 35		 jg	 SHORT $LN3@PointInBar
  005b4	8b 85 7c ff ff
	ff		 mov	 eax, DWORD PTR _dataPt$[ebp+4]
  005ba	48		 dec	 eax
  005bb	3b d8		 cmp	 ebx, eax
  005bd	7c 2a		 jl	 SHORT $LN3@PointInBar
  005bf	3b 5d ec	 cmp	 ebx, DWORD PTR _graphRegion$[ebp+12]
  005c2	eb 1e		 jmp	 SHORT $LN90@PointInBar
$LN26@PointInBar:

; 415  : 			return dataIndex;
; 416  : 	}
; 417  : 	else
; 418  : 	{
; 419  : 		if(mousePoint.x >= area.left && mousePoint.x <= area.right
; 420  : 			&& mousePoint.y >= (dataPt.y-5) && mousePoint.y <= (dataPt.y+5))

  005c4	3b f0		 cmp	 esi, eax
  005c6	7c 21		 jl	 SHORT $LN3@PointInBar
  005c8	0f bf 45 c0	 movsx	 eax, WORD PTR _area$[ebp+4]
  005cc	3b f0		 cmp	 esi, eax
  005ce	7f 19		 jg	 SHORT $LN3@PointInBar
  005d0	8b 8d 7c ff ff
	ff		 mov	 ecx, DWORD PTR _dataPt$[ebp+4]
  005d6	8d 41 fb	 lea	 eax, DWORD PTR [ecx-5]
  005d9	3b d8		 cmp	 ebx, eax
  005db	7c 0c		 jl	 SHORT $LN3@PointInBar
  005dd	8d 41 05	 lea	 eax, DWORD PTR [ecx+5]
  005e0	3b d8		 cmp	 ebx, eax
$LN90@PointInBar:

; 421  : 			return dataIndex;

  005e2	7f 05		 jg	 SHORT $LN3@PointInBar
  005e4	8b 45 c8	 mov	 eax, DWORD PTR _dataIndex$[ebp]
  005e7	eb 05		 jmp	 SHORT $LN1@PointInBar
$LN3@PointInBar:

; 324  : 		return -1;

  005e9	83 cf ff	 or	 edi, -1
  005ec	8b c7		 mov	 eax, edi
$LN1@PointInBar:

; 425  : }

  005ee	8b 4d f4	 mov	 ecx, DWORD PTR __$EHRec$[ebp]
  005f1	64 89 0d 00 00
	00 00		 mov	 DWORD PTR fs:0, ecx
  005f8	59		 pop	 ecx
  005f9	5f		 pop	 edi
  005fa	5e		 pop	 esi
  005fb	5b		 pop	 ebx
  005fc	8b 4d f0	 mov	 ecx, DWORD PTR __$ArrayPad$[ebp]
  005ff	33 cd		 xor	 ecx, ebp
  00601	e8 00 00 00 00	 call	 @__security_check_cookie@4
  00606	8b e5		 mov	 esp, ebp
  00608	5d		 pop	 ebp
  00609	c2 0c 00	 ret	 12			; 0000000cH
$LN92@PointInBar:
; File C:\Program Files (x86)\Microsoft Visual Studio\2019\Community\VC\Tools\MSVC\14.29.30133\atlmfc\include\afxtempl.h

; 789  : 	{ ENSURE(m_pNodeHead != NULL);

  0060c	e8 00 00 00 00	 call	 ?AfxThrowInvalidArgException@@YGXXZ ; AfxThrowInvalidArgException
$LN89@PointInBar:
  00611	cc		 int	 3
_TEXT	ENDS
;	COMDAT text$x
text$x	SEGMENT
__unwindfunclet$?PointInBarGraph@CSelectSubGraph@@AAEHABVCPoint@@PBVCSelectSubGraphData@@PAVCIndicatorList@@@Z$0:
  00000	8d 8d 40 ff ff
	ff		 lea	 ecx, DWORD PTR $T2[ebp]
  00006	e9 00 00 00 00	 jmp	 ??1CGripDraw@@UAE@XZ	; CGripDraw::~CGripDraw
__unwindfunclet$?PointInBarGraph@CSelectSubGraph@@AAEHABVCPoint@@PBVCSelectSubGraphData@@PAVCIndicatorList@@@Z$3:
  0000b	8d 4d b0	 lea	 ecx, DWORD PTR $T13[ebp]
  0000e	ff 25 00 00 00
	00		 jmp	 DWORD PTR __imp_??1?$CStringT@DV?$StrTraitMFC_DLL@DV?$ChTraitsCRT@D@ATL@@@@@ATL@@QAE@XZ
__unwindfunclet$?PointInBarGraph@CSelectSubGraph@@AAEHABVCPoint@@PBVCSelectSubGraphData@@PAVCIndicatorList@@@Z$4:
  00014	8d 4d 8c	 lea	 ecx, DWORD PTR $T5[ebp]
  00017	ff 25 00 00 00
	00		 jmp	 DWORD PTR __imp_??1?$CStringT@DV?$StrTraitMFC_DLL@DV?$ChTraitsCRT@D@ATL@@@@@ATL@@QAE@XZ
__unwindfunclet$?PointInBarGraph@CSelectSubGraph@@AAEHABVCPoint@@PBVCSelectSubGraphData@@PAVCIndicatorList@@@Z$1:
  0001d	8d 4d cc	 lea	 ecx, DWORD PTR $T15[ebp]
  00020	ff 25 00 00 00
	00		 jmp	 DWORD PTR __imp_??1?$CStringT@DV?$StrTraitMFC_DLL@DV?$ChTraitsCRT@D@ATL@@@@@ATL@@QAE@XZ
  00026	cc		 int	 3
  00027	cc		 int	 3
  00028	cc		 int	 3
  00029	cc		 int	 3
  0002a	cc		 int	 3
__ehhandler$?PointInBarGraph@CSelectSubGraph@@AAEHABVCPoint@@PBVCSelectSubGraphData@@PAVCIndicatorList@@@Z:
  0002b	90		 npad	 1
  0002c	90		 npad	 1
  0002d	8b 54 24 08	 mov	 edx, DWORD PTR [esp+8]
  00031	8d 42 0c	 lea	 eax, DWORD PTR [edx+12]
  00034	8b 8a 3c ff ff
	ff		 mov	 ecx, DWORD PTR [edx-196]
  0003a	33 c8		 xor	 ecx, eax
  0003c	e8 00 00 00 00	 call	 @__security_check_cookie@4
  00041	8b 4a fc	 mov	 ecx, DWORD PTR [edx-4]
  00044	33 c8		 xor	 ecx, eax
  00046	e8 00 00 00 00	 call	 @__security_check_cookie@4
  0004b	b8 00 00 00 00	 mov	 eax, OFFSET __ehfuncinfo$?PointInBarGraph@CSelectSubGraph@@AAEHABVCPoint@@PBVCSelectSubGraphData@@PAVCIndicatorList@@@Z
  00050	e9 00 00 00 00	 jmp	 ___CxxFrameHandler3
text$x	ENDS
?PointInBarGraph@CSelectSubGraph@@AAEHABVCPoint@@PBVCSelectSubGraphData@@PAVCIndicatorList@@@Z ENDP ; CSelectSubGraph::PointInBarGraph
; Function compile flags: /Ogtp
; File D:\git\src\IBK\IBK_DRFN\ProjSrc\SrcChartEx\ChartOCX\GraphDraw\SelectSubGraph.cpp
; File C:\Program Files (x86)\Microsoft Visual Studio\2019\Community\VC\Tools\MSVC\14.29.30133\atlmfc\include\afxtempl.h
; File D:\git\src\IBK\IBK_DRFN\ProjSrc\SrcChartEx\ChartOCX\GraphDraw\SelectSubGraph.cpp
; File D:\git\src\IBK\IBK_DRFN\ProjSrc\SrcChartEx\ChartOCX\Include_Chart\BlockBaseData.h
; File D:\git\src\IBK\IBK_DRFN\ProjSrc\SrcChartEx\ChartOCX\GraphDraw\SelectSubGraph.cpp
; File C:\Program Files (x86)\Microsoft Visual Studio\2019\Community\VC\Tools\MSVC\14.29.30133\atlmfc\include\afxtempl.h
; File D:\git\src\IBK\IBK_DRFN\ProjSrc\SrcChartEx\ChartOCX\GraphDraw\SelectSubGraph.cpp
; File C:\Program Files (x86)\Microsoft Visual Studio\2019\Community\VC\Tools\MSVC\14.29.30133\atlmfc\include\afxtempl.h
; File D:\git\src\IBK\IBK_DRFN\ProjSrc\SrcChartEx\ChartOCX\GraphDraw\SelectSubGraph.cpp
;	COMDAT ?PointInSolidLineBongGraph@CSelectSubGraph@@AAEHABVCPoint@@PBVCSelectSubGraphData@@@Z
_TEXT	SEGMENT
$T1 = -188						; size = 16
$T2 = -188						; size = 16
_realWidth$ = -172					; size = 8
_dataViewMin$ = -164					; size = 8
_dataViewMax$ = -156					; size = 8
_nCol$ = -148						; size = 4
$T3 = -144						; size = 8
_pPacket$1$ = -140					; size = 4
_dataPt$ = -136						; size = 8
$T4 = -128						; size = 8
tv766 = -124						; size = 4
$T5 = -124						; size = 4
_point$GSCopy$1$ = -120					; size = 4
_tempDataPt$6 = -116					; size = 8
_dataPos$1$ = -112					; size = 4
_pageDataCount$1$ = -112				; size = 4
_dataIndex$ = -108					; size = 4
_this$GSCopy$1$ = -104					; size = 4
_nIndex$1$ = -100					; size = 4
_dataStart$1$ = -100					; size = 4
_realData$1$ = -96					; size = 8
$T7 = -96						; size = 8
_tempDataPt$8 = -96					; size = 8
$T9 = -96						; size = 8
$T10 = -96						; size = 8
$T11 = -96						; size = 8
_dataPos$2$ = -92					; size = 4
_dataEnd$1$ = -92					; size = 4
$T12 = -88						; size = 68
_graphRegion$ = -20					; size = 16
__$ArrayPad$ = -4					; size = 4
_point$ = 8						; size = 4
_pSelectSubGraphData$ = 12				; size = 4
?PointInSolidLineBongGraph@CSelectSubGraph@@AAEHABVCPoint@@PBVCSelectSubGraphData@@@Z PROC ; CSelectSubGraph::PointInSolidLineBongGraph, COMDAT
; _this$ = ecx

; 944  : {

  00000	55		 push	 ebp
  00001	8b ec		 mov	 ebp, esp
  00003	81 ec bc 00 00
	00		 sub	 esp, 188		; 000000bcH
  00009	a1 00 00 00 00	 mov	 eax, DWORD PTR ___security_cookie
  0000e	33 c5		 xor	 eax, ebp
  00010	89 45 fc	 mov	 DWORD PTR __$ArrayPad$[ebp], eax
  00013	8b 45 08	 mov	 eax, DWORD PTR _point$[ebp]
  00016	53		 push	 ebx
  00017	56		 push	 esi
  00018	57		 push	 edi
  00019	8b 7d 0c	 mov	 edi, DWORD PTR _pSelectSubGraphData$[ebp]
  0001c	89 4d 98	 mov	 DWORD PTR _this$GSCopy$1$[ebp], ecx

; 945  : 	const CList< CPacket *, CPacket *> &packetList = pSelectSubGraphData->GetSubGraphPacketList()->GetSubGraphPacketList();

  0001f	8b cf		 mov	 ecx, edi
  00021	89 45 88	 mov	 DWORD PTR _point$GSCopy$1$[ebp], eax
  00024	e8 00 00 00 00	 call	 ?GetSubGraphPacketList@CSelectSubGraphData@@QBEPAVCSubGraphPacketList@@XZ ; CSelectSubGraphData::GetSubGraphPacketList
  00029	8b c8		 mov	 ecx, eax
  0002b	e8 00 00 00 00	 call	 ?GetSubGraphPacketList@CSubGraphPacketList@@QBEABV?$CList@PAVCPacket@@PAV1@@@XZ ; CSubGraphPacketList::GetSubGraphPacketList

; 946  : 	if(packetList.GetCount() <= 0)

  00030	83 78 0c 00	 cmp	 DWORD PTR [eax+12], 0
  00034	0f 8e 44 03 00
	00		 jle	 $LN23@PointInSol

; 947  : 		return -1;
; 948  : 
; 949  : 	int nUnit = 10;
; 950  : 	CPacket* pPacket = NULL;
; 951  : 	POSITION pos = packetList.GetHeadPosition();

  0003a	8b 58 04	 mov	 ebx, DWORD PTR [eax+4]

; 952  : 	if(pos == NULL)	

  0003d	85 db		 test	 ebx, ebx
  0003f	0f 84 39 03 00
	00		 je	 $LN23@PointInSol

; 953  : 		return -1;
; 954  : 	pPacket = packetList.GetNext(pos);

  00045	8b 5b 08	 mov	 ebx, DWORD PTR [ebx+8]
  00048	89 9d 74 ff ff
	ff		 mov	 DWORD PTR _pPacket$1$[ebp], ebx

; 955  : 	if(pPacket == NULL)	return -1;

  0004e	85 db		 test	 ebx, ebx
  00050	0f 84 28 03 00
	00		 je	 $LN23@PointInSol

; 956  : 
; 957  : 	int dataStart = pSelectSubGraphData->GetDisplayAttributes().GetDataStartInBlock();

  00056	8d 45 a0	 lea	 eax, DWORD PTR $T11[ebp]
  00059	8b cf		 mov	 ecx, edi
  0005b	50		 push	 eax
  0005c	e8 00 00 00 00	 call	 ?GetDisplayAttributes@CSelectSubGraphData@@QBE?AVCDisplayAttributes@@XZ ; CSelectSubGraphData::GetDisplayAttributes
  00061	8b c8		 mov	 ecx, eax
  00063	e8 00 00 00 00	 call	 ?GetDataStartInBlock@CDisplayAttributes@@QBEHXZ ; CDisplayAttributes::GetDataStartInBlock
  00068	8b f0		 mov	 esi, eax

; 958  : 	int dataEnd = pSelectSubGraphData->GetDisplayAttributes().GetDataEndInBlock();

  0006a	8b cf		 mov	 ecx, edi
  0006c	8d 45 a0	 lea	 eax, DWORD PTR $T10[ebp]
  0006f	89 75 9c	 mov	 DWORD PTR _dataStart$1$[ebp], esi
  00072	50		 push	 eax
  00073	e8 00 00 00 00	 call	 ?GetDisplayAttributes@CSelectSubGraphData@@QBE?AVCDisplayAttributes@@XZ ; CSelectSubGraphData::GetDisplayAttributes
  00078	8b c8		 mov	 ecx, eax
  0007a	e8 00 00 00 00	 call	 ?GetDataEndInBlock@CDisplayAttributes@@QBEHXZ ; CDisplayAttributes::GetDataEndInBlock
  0007f	89 45 a4	 mov	 DWORD PTR _dataEnd$1$[ebp], eax

; 959  : 	int pageDataCount = pSelectSubGraphData->GetDisplayAttributes().GetDataCountInBlock();

  00082	8b cf		 mov	 ecx, edi
  00084	8d 45 80	 lea	 eax, DWORD PTR $T4[ebp]
  00087	50		 push	 eax
  00088	e8 00 00 00 00	 call	 ?GetDisplayAttributes@CSelectSubGraphData@@QBE?AVCDisplayAttributes@@XZ ; CSelectSubGraphData::GetDisplayAttributes
  0008d	8b c8		 mov	 ecx, eax
  0008f	e8 00 00 00 00	 call	 ?GetDataCountInBlock@CDisplayAttributes@@QBEHXZ ; CDisplayAttributes::GetDataCountInBlock

; 960  : 
; 961  : ///	POSITION dataPos = pPacket->GetnumericDataList()->FindIndex(dataStart-1);
; 962  : 	POSITION dataPos = pPacket->GetnumericDataList()->FindIndex(dataStart);

  00094	8b cb		 mov	 ecx, ebx
  00096	89 45 90	 mov	 DWORD PTR _pageDataCount$1$[ebp], eax
  00099	ff 15 00 00 00
	00		 call	 DWORD PTR __imp_?GetnumericDataList@CPacket@@QAEPAV?$CList@NN@@XZ
; File C:\Program Files (x86)\Microsoft Visual Studio\2019\Community\VC\Tools\MSVC\14.29.30133\atlmfc\include\afxtempl.h

; 1133 : 	if (nIndex >= m_nCount || nIndex < 0)

  0009f	8b ce		 mov	 ecx, esi
  000a1	3b 48 0c	 cmp	 ecx, DWORD PTR [eax+12]
  000a4	0f 8d d4 02 00
	00		 jge	 $LN23@PointInSol
  000aa	85 c9		 test	 ecx, ecx
  000ac	0f 88 cc 02 00
	00		 js	 $LN23@PointInSol

; 1134 : 		return NULL;  // went too far
; 1135 : 
; 1136 : 	CNode* pNode = m_pNodeHead;

  000b2	8b 40 04	 mov	 eax, DWORD PTR [eax+4]

; 1137 : 	while (nIndex--)

  000b5	74 07		 je	 SHORT $LN46@PointInSol
$LL29@PointInSol:

; 1138 : 	{
; 1139 : 		ASSERT(AfxIsValidAddress(pNode, sizeof(CNode)));
; 1140 : 		pNode = pNode->pNext;

  000b7	8b 00		 mov	 eax, DWORD PTR [eax]
  000b9	83 ee 01	 sub	 esi, 1
  000bc	75 f9		 jne	 SHORT $LL29@PointInSol
$LN46@PointInSol:
; File D:\git\src\IBK\IBK_DRFN\ProjSrc\SrcChartEx\ChartOCX\GraphDraw\SelectSubGraph.cpp

; 963  : 	if(dataPos == NULL) 

  000be	85 c0		 test	 eax, eax
  000c0	0f 84 b8 02 00
	00		 je	 $LN23@PointInSol

; 966  : 	CRect graphRegion = pSelectSubGraphData->GetGraphRegions().GetDrawingRegion();

  000c6	8d 45 84	 lea	 eax, DWORD PTR $T5[ebp]
; File D:\git\src\IBK\IBK_DRFN\ProjSrc\SrcChartEx\ChartOCX\Include_Chart\BlockBaseData.h

; 43   : 	CGraphStyle(const int style) { m_nStyle = style; };

  000c9	c7 45 84 ff ff
	ff ff		 mov	 DWORD PTR $T5[ebp], -1
; File D:\git\src\IBK\IBK_DRFN\ProjSrc\SrcChartEx\ChartOCX\GraphDraw\SelectSubGraph.cpp

; 966  : 	CRect graphRegion = pSelectSubGraphData->GetGraphRegions().GetDrawingRegion();

  000d0	50		 push	 eax
  000d1	6a ff		 push	 -1
  000d3	8d 45 ec	 lea	 eax, DWORD PTR _graphRegion$[ebp]
  000d6	8b cf		 mov	 ecx, edi
  000d8	50		 push	 eax
  000d9	8d 45 a8	 lea	 eax, DWORD PTR $T12[ebp]
  000dc	50		 push	 eax
  000dd	e8 00 00 00 00	 call	 ?GetGraphRegions@CSelectSubGraphData@@QBE?AVCGraphRegions@@XZ ; CSelectSubGraphData::GetGraphRegions
  000e2	8b c8		 mov	 ecx, eax
  000e4	e8 00 00 00 00	 call	 ?GetDrawingRegion@CGraphRegions@@QBE?AVCRect@@W4GRAPHTYPE@CGraphBaseData@@ABVCGraphStyle@@@Z ; CGraphRegions::GetDrawingRegion

; 967  : 
; 968  : 	int dataIndex = GetDataIndex(graphRegion, point, dataStart, dataEnd, pageDataCount); 

  000e9	ff 75 90	 push	 DWORD PTR _pageDataCount$1$[ebp]
  000ec	8b 45 88	 mov	 eax, DWORD PTR _point$GSCopy$1$[ebp]
  000ef	ff 75 a4	 push	 DWORD PTR _dataEnd$1$[ebp]
  000f2	8b 75 9c	 mov	 esi, DWORD PTR _dataStart$1$[ebp]
  000f5	0f 10 45 ec	 movups	 xmm0, XMMWORD PTR _graphRegion$[ebp]
  000f9	8b 4d 98	 mov	 ecx, DWORD PTR _this$GSCopy$1$[ebp]
  000fc	56		 push	 esi
  000fd	ff 70 04	 push	 DWORD PTR [eax+4]
  00100	ff 30		 push	 DWORD PTR [eax]
  00102	83 ec 10	 sub	 esp, 16			; 00000010H
  00105	8b c4		 mov	 eax, esp
  00107	0f 11 00	 movups	 XMMWORD PTR [eax], xmm0
  0010a	e8 00 00 00 00	 call	 ?GetDataIndex@CSelectSubGraph@@AAEHVCRect@@VCPoint@@HHH@Z ; CSelectSubGraph::GetDataIndex

; 969  : 	//int dataIndex;
; 970  : 	int nCol = 0;
; 971  : 	pSelectSubGraphData->GetXScaleManager()->GetDTInAREAfRQnPt(pSelectSubGraphData->GetRQ(), point.x, nCol, &dataIndex, NULL);

  0010f	8b cf		 mov	 ecx, edi
  00111	89 45 94	 mov	 DWORD PTR _dataIndex$[ebp], eax
  00114	c7 85 6c ff ff
	ff 00 00 00 00	 mov	 DWORD PTR _nCol$[ebp], 0
  0011e	e8 00 00 00 00	 call	 ?GetXScaleManager@CSelectSubGraphData@@QBEPAVCXScaleManager@@XZ ; CSelectSubGraphData::GetXScaleManager
  00123	6a 00		 push	 0
  00125	6a 00		 push	 0
  00127	8b f0		 mov	 esi, eax
  00129	8d 45 94	 lea	 eax, DWORD PTR _dataIndex$[ebp]
  0012c	50		 push	 eax
  0012d	8d 85 6c ff ff
	ff		 lea	 eax, DWORD PTR _nCol$[ebp]
  00133	50		 push	 eax
  00134	8b 45 88	 mov	 eax, DWORD PTR _point$GSCopy$1$[ebp]
  00137	ff 30		 push	 DWORD PTR [eax]
  00139	51		 push	 ecx
  0013a	54		 push	 esp
  0013b	8b cf		 mov	 ecx, edi
  0013d	e8 00 00 00 00	 call	 ?GetRQ@CSelectSubGraphData@@QBE?AV?$CStringT@DV?$StrTraitMFC_DLL@DV?$ChTraitsCRT@D@ATL@@@@@ATL@@XZ ; CSelectSubGraphData::GetRQ
  00142	8b 06		 mov	 eax, DWORD PTR [esi]
  00144	8b ce		 mov	 ecx, esi
  00146	ff 90 34 01 00
	00		 call	 DWORD PTR [eax+308]

; 972  : 
; 973  : 	if(dataIndex == -1)

  0014c	8b 45 94	 mov	 eax, DWORD PTR _dataIndex$[ebp]
  0014f	83 f8 ff	 cmp	 eax, -1
  00152	0f 84 26 02 00
	00		 je	 $LN23@PointInSol

; 974  : 		return -1;
; 975  : 
; 976  : 	dataPos = pPacket->GetnumericDataList()->FindIndex(dataIndex);

  00158	50		 push	 eax
  00159	8b cb		 mov	 ecx, ebx
  0015b	ff 15 00 00 00
	00		 call	 DWORD PTR __imp_?GetnumericDataList@CPacket@@QAEPAV?$CList@NN@@XZ
  00161	8b c8		 mov	 ecx, eax
  00163	e8 00 00 00 00	 call	 ?FindIndex@?$CList@NN@@QBEPAU__POSITION@@H@Z ; CList<double,double>::FindIndex

; 977  : 	
; 978  : 	bool packet1InIndex= true;
; 979  : 
; 980  : 	if(dataPos == NULL)
; 981  : 		packet1InIndex = false;
; 982  : 
; 983  : 	double realWidth = CDraw::CalRealWidth(graphRegion, dataStart, dataEnd);

  00168	ff 75 a4	 push	 DWORD PTR _dataEnd$1$[ebp]
  0016b	8b 75 9c	 mov	 esi, DWORD PTR _dataStart$1$[ebp]
  0016e	8b 4d 98	 mov	 ecx, DWORD PTR _this$GSCopy$1$[ebp]
  00171	89 45 84	 mov	 DWORD PTR tv766[ebp], eax
  00174	89 45 90	 mov	 DWORD PTR _dataPos$1$[ebp], eax
  00177	8d 45 ec	 lea	 eax, DWORD PTR _graphRegion$[ebp]
  0017a	56		 push	 esi
  0017b	50		 push	 eax
  0017c	e8 00 00 00 00	 call	 ?CalRealWidth@CDraw@@IAENABVCRect@@HH@Z ; CDraw::CalRealWidth

; 984  : 	int lineWidth = int(realWidth*(8.0/10.0));
; 985  : 	double realData = 0.0;
; 986  : 	double realData2 = realData;
; 987  : 	
; 988  : 	if(packet1InIndex)

  00181	83 7d 84 00	 cmp	 DWORD PTR tv766[ebp], 0
  00185	0f 57 c0	 xorps	 xmm0, xmm0
  00188	dd 9d 54 ff ff
	ff		 fstp	 QWORD PTR _realWidth$[ebp]
  0018e	f2 0f 11 45 a0	 movsd	 QWORD PTR _realData$1$[ebp], xmm0
  00193	74 1c		 je	 SHORT $LN8@PointInSol

; 989  : 		realData = pPacket->GetnumericDataList()->GetNext(dataPos);

  00195	8b cb		 mov	 ecx, ebx
  00197	ff 15 00 00 00
	00		 call	 DWORD PTR __imp_?GetnumericDataList@CPacket@@QAEPAV?$CList@NN@@XZ
; File C:\Program Files (x86)\Microsoft Visual Studio\2019\Community\VC\Tools\MSVC\14.29.30133\atlmfc\include\afxtempl.h

; 811  : 	{ CNode* pNode = (CNode*) rPosition;

  0019d	8b 4d 90	 mov	 ecx, DWORD PTR _dataPos$1$[ebp]
  001a0	8b c1		 mov	 eax, ecx
; File D:\git\src\IBK\IBK_DRFN\ProjSrc\SrcChartEx\ChartOCX\GraphDraw\SelectSubGraph.cpp

; 989  : 		realData = pPacket->GetnumericDataList()->GetNext(dataPos);

  001a2	f2 0f 10 40 08	 movsd	 xmm0, QWORD PTR [eax+8]
; File C:\Program Files (x86)\Microsoft Visual Studio\2019\Community\VC\Tools\MSVC\14.29.30133\atlmfc\include\afxtempl.h

; 813  : 		rPosition = (POSITION) pNode->pNext;

  001a7	8b 09		 mov	 ecx, DWORD PTR [ecx]
  001a9	89 4d 90	 mov	 DWORD PTR _dataPos$1$[ebp], ecx
; File D:\git\src\IBK\IBK_DRFN\ProjSrc\SrcChartEx\ChartOCX\GraphDraw\SelectSubGraph.cpp

; 989  : 		realData = pPacket->GetnumericDataList()->GetNext(dataPos);

  001ac	f2 0f 11 45 a0	 movsd	 QWORD PTR _realData$1$[ebp], xmm0
$LN8@PointInSol:

; 990  : 	
; 991  : 	double dataViewMin = CDraw::CalLogValue(pSelectSubGraphData->GetVertScaleLogType(), pSelectSubGraphData->GetDisplayDataVertMinMax().GetDisplayMin());

  001b1	8d 85 44 ff ff
	ff		 lea	 eax, DWORD PTR $T2[ebp]
  001b7	8b cf		 mov	 ecx, edi
  001b9	50		 push	 eax
  001ba	e8 00 00 00 00	 call	 ?GetDisplayDataVertMinMax@CSelectSubGraphData@@QBE?AVCDisplayDataMinMax@@XZ ; CSelectSubGraphData::GetDisplayDataVertMinMax
  001bf	8b c8		 mov	 ecx, eax
  001c1	ff 15 00 00 00
	00		 call	 DWORD PTR __imp_?GetDisplayMin@CDisplayDataMinMax@@QBENXZ
  001c7	83 ec 08	 sub	 esp, 8
  001ca	8b cf		 mov	 ecx, edi
  001cc	dd 1c 24	 fstp	 QWORD PTR [esp]
  001cf	e8 00 00 00 00	 call	 ?GetVertScaleLogType@CSelectSubGraphData@@QBE_NXZ ; CSelectSubGraphData::GetVertScaleLogType
  001d4	8b 5d 98	 mov	 ebx, DWORD PTR _this$GSCopy$1$[ebp]
  001d7	8b cb		 mov	 ecx, ebx
  001d9	0f b6 c0	 movzx	 eax, al
  001dc	50		 push	 eax
  001dd	e8 00 00 00 00	 call	 ?CalLogValue@CDraw@@IAEN_NN@Z ; CDraw::CalLogValue

; 992  : 	double dataViewMax = CDraw::CalLogValue(pSelectSubGraphData->GetVertScaleLogType(), pSelectSubGraphData->GetDisplayDataVertMinMax().GetDisplayMax());

  001e2	8d 85 44 ff ff
	ff		 lea	 eax, DWORD PTR $T1[ebp]
  001e8	8b cf		 mov	 ecx, edi
  001ea	50		 push	 eax
  001eb	dd 9d 5c ff ff
	ff		 fstp	 QWORD PTR _dataViewMin$[ebp]
  001f1	e8 00 00 00 00	 call	 ?GetDisplayDataVertMinMax@CSelectSubGraphData@@QBE?AVCDisplayDataMinMax@@XZ ; CSelectSubGraphData::GetDisplayDataVertMinMax
  001f6	8b c8		 mov	 ecx, eax
  001f8	ff 15 00 00 00
	00		 call	 DWORD PTR __imp_?GetDisplayMax@CDisplayDataMinMax@@QBENXZ
  001fe	83 ec 08	 sub	 esp, 8
  00201	8b cf		 mov	 ecx, edi
  00203	dd 1c 24	 fstp	 QWORD PTR [esp]
  00206	e8 00 00 00 00	 call	 ?GetVertScaleLogType@CSelectSubGraphData@@QBE_NXZ ; CSelectSubGraphData::GetVertScaleLogType
  0020b	0f b6 c0	 movzx	 eax, al
  0020e	8b cb		 mov	 ecx, ebx
  00210	50		 push	 eax
  00211	e8 00 00 00 00	 call	 ?CalLogValue@CDraw@@IAEN_NN@Z ; CDraw::CalLogValue

; 1324 : 	return (dataIndex - dataStart);

  00216	8b 4d 94	 mov	 ecx, DWORD PTR _dataIndex$[ebp]

; 993  : 
; 994  : 	int nIndex = GetIndex(dataIndex, dataStart);
; 995  : 	CPoint dataPt = CDataConversion::GetVerticalPoint(graphRegion, nIndex, realWidth, dataViewMin, dataViewMax, CDraw::CalLogValue(pSelectSubGraphData->GetVertScaleLogType(), realData));

  00219	f2 0f 10 45 a0	 movsd	 xmm0, QWORD PTR _realData$1$[ebp]

; 1324 : 	return (dataIndex - dataStart);

  0021e	2b ce		 sub	 ecx, esi
  00220	39 75 94	 cmp	 DWORD PTR _dataIndex$[ebp], esi

; 992  : 	double dataViewMax = CDraw::CalLogValue(pSelectSubGraphData->GetVertScaleLogType(), pSelectSubGraphData->GetDisplayDataVertMinMax().GetDisplayMax());

  00223	dd 9d 64 ff ff
	ff		 fstp	 QWORD PTR _dataViewMax$[ebp]

; 1321 : 	if(dataIndex < dataStart)

  00229	0f 4c ce	 cmovl	 ecx, esi

; 993  : 
; 994  : 	int nIndex = GetIndex(dataIndex, dataStart);
; 995  : 	CPoint dataPt = CDataConversion::GetVerticalPoint(graphRegion, nIndex, realWidth, dataViewMin, dataViewMax, CDraw::CalLogValue(pSelectSubGraphData->GetVertScaleLogType(), realData));

  0022c	83 ec 08	 sub	 esp, 8

; 1321 : 	if(dataIndex < dataStart)

  0022f	89 4d 9c	 mov	 DWORD PTR _nIndex$1$[ebp], ecx

; 993  : 
; 994  : 	int nIndex = GetIndex(dataIndex, dataStart);
; 995  : 	CPoint dataPt = CDataConversion::GetVerticalPoint(graphRegion, nIndex, realWidth, dataViewMin, dataViewMax, CDraw::CalLogValue(pSelectSubGraphData->GetVertScaleLogType(), realData));

  00232	8b cf		 mov	 ecx, edi
  00234	f2 0f 11 04 24	 movsd	 QWORD PTR [esp], xmm0
  00239	e8 00 00 00 00	 call	 ?GetVertScaleLogType@CSelectSubGraphData@@QBE_NXZ ; CSelectSubGraphData::GetVertScaleLogType
  0023e	0f b6 c0	 movzx	 eax, al
  00241	8b cb		 mov	 ecx, ebx
  00243	50		 push	 eax
  00244	e8 00 00 00 00	 call	 ?CalLogValue@CDraw@@IAEN_NN@Z ; CDraw::CalLogValue
  00249	6a 01		 push	 1
  0024b	8d 45 a0	 lea	 eax, DWORD PTR $T9[ebp]
  0024e	50		 push	 eax
  0024f	8d 85 64 ff ff
	ff		 lea	 eax, DWORD PTR _dataViewMax$[ebp]
  00255	50		 push	 eax
  00256	8d 85 5c ff ff
	ff		 lea	 eax, DWORD PTR _dataViewMin$[ebp]
  0025c	50		 push	 eax
  0025d	8d 85 54 ff ff
	ff		 lea	 eax, DWORD PTR _realWidth$[ebp]
  00263	50		 push	 eax
  00264	ff 75 9c	 push	 DWORD PTR _nIndex$1$[ebp]
  00267	8d 45 ec	 lea	 eax, DWORD PTR _graphRegion$[ebp]
  0026a	50		 push	 eax
  0026b	8d 85 78 ff ff
	ff		 lea	 eax, DWORD PTR _dataPt$[ebp]
  00271	50		 push	 eax
  00272	dd 5d a0	 fstp	 QWORD PTR $T9[ebp]
  00275	e8 00 00 00 00	 call	 ?GetVerticalPoint@CDataConversion@@SA?AVCPoint@@ABVCRect@@HABN111_N@Z ; CDataConversion::GetVerticalPoint

; 996  : 
; 997  : 	int realPointY = 0;
; 998  : 	int realPointY2 = 0;
; 999  : 	double tempData = 0.0, tempData2 = 0.0;
; 1000 : 
; 1001 : 	//invert scale .
; 1002 : 	CPoint mousePoint = point;

  0027a	8b 45 88	 mov	 eax, DWORD PTR _point$GSCopy$1$[ebp]
  0027d	83 c4 20	 add	 esp, 32			; 00000020H

; 1003 : 	if(pSelectSubGraphData->GetVertScaleInvertType())

  00280	8b cf		 mov	 ecx, edi
  00282	8b 30		 mov	 esi, DWORD PTR [eax]
  00284	8b 58 04	 mov	 ebx, DWORD PTR [eax+4]
  00287	e8 00 00 00 00	 call	 ?GetVertScaleInvertType@CSelectSubGraphData@@QBE_NXZ ; CSelectSubGraphData::GetVertScaleInvertType
  0028c	84 c0		 test	 al, al
  0028e	74 14		 je	 SHORT $LN9@PointInSol

; 1004 : 		mousePoint.y = CDataConversion::InvertGraphDataPt(graphRegion, point.y);

  00290	8b 45 88	 mov	 eax, DWORD PTR _point$GSCopy$1$[ebp]
  00293	ff 70 04	 push	 DWORD PTR [eax+4]
  00296	8d 45 ec	 lea	 eax, DWORD PTR _graphRegion$[ebp]
  00299	50		 push	 eax
  0029a	e8 00 00 00 00	 call	 ?InvertGraphDataPt@CDataConversion@@SAHABVCRect@@H@Z ; CDataConversion::InvertGraphDataPt
  0029f	83 c4 08	 add	 esp, 8
  002a2	8b d8		 mov	 ebx, eax
$LN9@PointInSol:

; 1005 : 
; 1006 : 	// line  ===============================================================================
; 1007 : 	if(dataPt.x < mousePoint.x){

  002a4	8b 85 78 ff ff
	ff		 mov	 eax, DWORD PTR _dataPt$[ebp]
  002aa	3b c6		 cmp	 eax, esi
  002ac	0f 8d e2 00 00
	00		 jge	 $LN10@PointInSol

; 1008 : 	
; 1009 : 		if(dataPos == NULL)

  002b2	83 7d 90 00	 cmp	 DWORD PTR _dataPos$1$[ebp], 0
  002b6	0f 84 c2 00 00
	00		 je	 $LN23@PointInSol

; 1010 : 			return -1;
; 1011 : 		tempData = pPacket->GetnumericDataList()->GetNext(dataPos);

  002bc	8b 8d 74 ff ff
	ff		 mov	 ecx, DWORD PTR _pPacket$1$[ebp]
  002c2	ff 15 00 00 00
	00		 call	 DWORD PTR __imp_?GetnumericDataList@CPacket@@QAEPAV?$CList@NN@@XZ
  002c8	8b 45 90	 mov	 eax, DWORD PTR _dataPos$1$[ebp]

; 1012 : 		
; 1013 : 		CPoint tempDataPt = CDataConversion::GetVerticalPoint(graphRegion, nIndex+1, realWidth, dataViewMin, dataViewMax, CDraw::CalLogValue(pSelectSubGraphData->GetVertScaleLogType(), tempData));

  002cb	83 ec 08	 sub	 esp, 8
  002ce	8b cf		 mov	 ecx, edi
  002d0	f2 0f 10 40 08	 movsd	 xmm0, QWORD PTR [eax+8]
  002d5	f2 0f 11 04 24	 movsd	 QWORD PTR [esp], xmm0
  002da	e8 00 00 00 00	 call	 ?GetVertScaleLogType@CSelectSubGraphData@@QBE_NXZ ; CSelectSubGraphData::GetVertScaleLogType
  002df	8b 4d 98	 mov	 ecx, DWORD PTR _this$GSCopy$1$[ebp]
  002e2	0f b6 c0	 movzx	 eax, al
  002e5	50		 push	 eax
  002e6	e8 00 00 00 00	 call	 ?CalLogValue@CDraw@@IAEN_NN@Z ; CDraw::CalLogValue
  002eb	6a 01		 push	 1
  002ed	8d 85 70 ff ff
	ff		 lea	 eax, DWORD PTR $T3[ebp]
  002f3	50		 push	 eax
  002f4	8d 85 64 ff ff
	ff		 lea	 eax, DWORD PTR _dataViewMax$[ebp]
  002fa	50		 push	 eax
  002fb	8d 85 5c ff ff
	ff		 lea	 eax, DWORD PTR _dataViewMin$[ebp]
  00301	50		 push	 eax
  00302	8d 85 54 ff ff
	ff		 lea	 eax, DWORD PTR _realWidth$[ebp]
  00308	50		 push	 eax
  00309	8b 45 9c	 mov	 eax, DWORD PTR _nIndex$1$[ebp]
  0030c	40		 inc	 eax
  0030d	50		 push	 eax
  0030e	8d 45 ec	 lea	 eax, DWORD PTR _graphRegion$[ebp]
  00311	50		 push	 eax
  00312	8d 45 a0	 lea	 eax, DWORD PTR _tempDataPt$8[ebp]
  00315	50		 push	 eax
  00316	dd 9d 70 ff ff
	ff		 fstp	 QWORD PTR $T3[ebp]
  0031c	e8 00 00 00 00	 call	 ?GetVerticalPoint@CDataConversion@@SA?AVCPoint@@ABVCRect@@HABN111_N@Z ; CDataConversion::GetVerticalPoint

; 1014 : 			
; 1015 : 		if(tempDataPt.y > dataPt.y)

  00321	8b 55 a4	 mov	 edx, DWORD PTR _tempDataPt$8[ebp+4]
  00324	83 c4 20	 add	 esp, 32			; 00000020H
  00327	8b bd 7c ff ff
	ff		 mov	 edi, DWORD PTR _dataPt$[ebp+4]
  0032d	2b b5 78 ff ff
	ff		 sub	 esi, DWORD PTR _dataPt$[ebp]
  00333	3b d7		 cmp	 edx, edi
  00335	7e 18		 jle	 SHORT $LN13@PointInSol

; 1016 : 			realPointY = (tempDataPt.y - dataPt.y) * (mousePoint.x - dataPt.x) / (tempDataPt.x - dataPt.x) + dataPt.y;

  00337	2b d7		 sub	 edx, edi
  00339	0f af d6	 imul	 edx, esi
  0033c	8b 75 a0	 mov	 esi, DWORD PTR _tempDataPt$8[ebp]
  0033f	2b b5 78 ff ff
	ff		 sub	 esi, DWORD PTR _dataPt$[ebp]
  00345	8b c2		 mov	 eax, edx
  00347	99		 cdq
  00348	f7 fe		 idiv	 esi
  0034a	8d 0c 07	 lea	 ecx, DWORD PTR [edi+eax]
  0034d	eb 17		 jmp	 SHORT $LN14@PointInSol
$LN13@PointInSol:

; 1017 : 		else 
; 1018 : 			realPointY = dataPt.y - (dataPt.y - tempDataPt.y) * (mousePoint.x - dataPt.x) / (tempDataPt.x - dataPt.x);

  0034f	8b c7		 mov	 eax, edi
  00351	8b cf		 mov	 ecx, edi
  00353	2b c2		 sub	 eax, edx
  00355	0f af c6	 imul	 eax, esi
  00358	8b 75 a0	 mov	 esi, DWORD PTR _tempDataPt$8[ebp]
  0035b	2b b5 78 ff ff
	ff		 sub	 esi, DWORD PTR _dataPt$[ebp]
  00361	99		 cdq
  00362	f7 fe		 idiv	 esi
  00364	2b c8		 sub	 ecx, eax
$LN14@PointInSol:

; 1019 : 		if(packet1InIndex == true && realPointY >= mousePoint.y - nUnit && realPointY <= mousePoint.y + nUnit)

  00366	83 7d 84 00	 cmp	 DWORD PTR tv766[ebp], 0
  0036a	74 12		 je	 SHORT $LN23@PointInSol
  0036c	8d 43 f6	 lea	 eax, DWORD PTR [ebx-10]
  0036f	3b c8		 cmp	 ecx, eax
  00371	7c 0b		 jl	 SHORT $LN23@PointInSol
  00373	8d 43 0a	 lea	 eax, DWORD PTR [ebx+10]
  00376	3b c8		 cmp	 ecx, eax
  00378	0f 8e 47 01 00
	00		 jle	 $LN51@PointInSol
$LN23@PointInSol:

; 1042 : 	
; 1043 : 	return -1;

  0037e	83 c8 ff	 or	 eax, -1

; 1044 : }

  00381	5f		 pop	 edi
  00382	5e		 pop	 esi
  00383	5b		 pop	 ebx
  00384	8b 4d fc	 mov	 ecx, DWORD PTR __$ArrayPad$[ebp]
  00387	33 cd		 xor	 ecx, ebp
  00389	e8 00 00 00 00	 call	 @__security_check_cookie@4
  0038e	8b e5		 mov	 esp, ebp
  00390	5d		 pop	 ebp
  00391	c2 08 00	 ret	 8
$LN10@PointInSol:

; 1020 : 			return dataIndex;
; 1021 : 	}
; 1022 : 	else if(dataPt.x > mousePoint.x){

  00394	0f 8e fd 00 00
	00		 jle	 $LN16@PointInSol

; 1023 : 		if(dataIndex -1 < 0)

  0039a	8b 45 94	 mov	 eax, DWORD PTR _dataIndex$[ebp]
  0039d	83 c0 ff	 add	 eax, -1
  003a0	78 dc		 js	 SHORT $LN23@PointInSol

; 1024 : 			return -1;
; 1025 : 		dataPos = pPacket->GetnumericDataList()->FindIndex(dataIndex -1);

  003a2	8b 8d 74 ff ff
	ff		 mov	 ecx, DWORD PTR _pPacket$1$[ebp]
  003a8	50		 push	 eax
  003a9	ff 15 00 00 00
	00		 call	 DWORD PTR __imp_?GetnumericDataList@CPacket@@QAEPAV?$CList@NN@@XZ
  003af	8b c8		 mov	 ecx, eax
  003b1	e8 00 00 00 00	 call	 ?FindIndex@?$CList@NN@@QBEPAU__POSITION@@H@Z ; CList<double,double>::FindIndex
  003b6	89 45 a4	 mov	 DWORD PTR _dataPos$2$[ebp], eax

; 1026 : 		if(dataPos == NULL)

  003b9	85 c0		 test	 eax, eax
  003bb	74 c1		 je	 SHORT $LN23@PointInSol

; 1027 : 			return -1;
; 1028 : 		tempData = pPacket->GetnumericDataList()->GetNext(dataPos);

  003bd	8b 8d 74 ff ff
	ff		 mov	 ecx, DWORD PTR _pPacket$1$[ebp]
  003c3	ff 15 00 00 00
	00		 call	 DWORD PTR __imp_?GetnumericDataList@CPacket@@QAEPAV?$CList@NN@@XZ
  003c9	8b 45 a4	 mov	 eax, DWORD PTR _dataPos$2$[ebp]

; 1029 : 	
; 1030 : 		CPoint tempDataPt = CDataConversion::GetVerticalPoint(graphRegion, nIndex-1, realWidth, dataViewMin, dataViewMax, CDraw::CalLogValue(pSelectSubGraphData->GetVertScaleLogType(), tempData));

  003cc	83 ec 08	 sub	 esp, 8
  003cf	8b cf		 mov	 ecx, edi
  003d1	f2 0f 10 40 08	 movsd	 xmm0, QWORD PTR [eax+8]
  003d6	f2 0f 11 04 24	 movsd	 QWORD PTR [esp], xmm0
  003db	e8 00 00 00 00	 call	 ?GetVertScaleLogType@CSelectSubGraphData@@QBE_NXZ ; CSelectSubGraphData::GetVertScaleLogType
  003e0	8b 4d 98	 mov	 ecx, DWORD PTR _this$GSCopy$1$[ebp]
  003e3	0f b6 c0	 movzx	 eax, al
  003e6	50		 push	 eax
  003e7	e8 00 00 00 00	 call	 ?CalLogValue@CDraw@@IAEN_NN@Z ; CDraw::CalLogValue
  003ec	6a 01		 push	 1
  003ee	8d 45 a0	 lea	 eax, DWORD PTR $T7[ebp]
  003f1	50		 push	 eax
  003f2	8d 85 64 ff ff
	ff		 lea	 eax, DWORD PTR _dataViewMax$[ebp]
  003f8	50		 push	 eax
  003f9	8d 85 5c ff ff
	ff		 lea	 eax, DWORD PTR _dataViewMin$[ebp]
  003ff	50		 push	 eax
  00400	8d 85 54 ff ff
	ff		 lea	 eax, DWORD PTR _realWidth$[ebp]
  00406	50		 push	 eax
  00407	8b 45 9c	 mov	 eax, DWORD PTR _nIndex$1$[ebp]
  0040a	48		 dec	 eax
  0040b	50		 push	 eax
  0040c	8d 45 ec	 lea	 eax, DWORD PTR _graphRegion$[ebp]
  0040f	50		 push	 eax
  00410	8d 45 8c	 lea	 eax, DWORD PTR _tempDataPt$6[ebp]
  00413	50		 push	 eax
  00414	dd 5d a0	 fstp	 QWORD PTR $T7[ebp]
  00417	e8 00 00 00 00	 call	 ?GetVerticalPoint@CDataConversion@@SA?AVCPoint@@ABVCRect@@HABN111_N@Z ; CDataConversion::GetVerticalPoint

; 1031 : 		
; 1032 : 		if(tempDataPt.y > dataPt.y)

  0041c	8b 55 90	 mov	 edx, DWORD PTR _tempDataPt$6[ebp+4]
  0041f	83 c4 20	 add	 esp, 32			; 00000020H
  00422	8b bd 7c ff ff
	ff		 mov	 edi, DWORD PTR _dataPt$[ebp+4]
  00428	2b b5 78 ff ff
	ff		 sub	 esi, DWORD PTR _dataPt$[ebp]
  0042e	3b d7		 cmp	 edx, edi
  00430	7e 18		 jle	 SHORT $LN20@PointInSol

; 1033 : 			realPointY = ((tempDataPt.y - dataPt.y) * (mousePoint.x - dataPt.x) / (tempDataPt.x - dataPt.x)) + dataPt.y;

  00432	2b d7		 sub	 edx, edi
  00434	0f af d6	 imul	 edx, esi
  00437	8b 75 8c	 mov	 esi, DWORD PTR _tempDataPt$6[ebp]
  0043a	2b b5 78 ff ff
	ff		 sub	 esi, DWORD PTR _dataPt$[ebp]
  00440	8b c2		 mov	 eax, edx
  00442	99		 cdq
  00443	f7 fe		 idiv	 esi
  00445	8d 0c 07	 lea	 ecx, DWORD PTR [edi+eax]
  00448	eb 17		 jmp	 SHORT $LN21@PointInSol
$LN20@PointInSol:

; 1034 : 		else 
; 1035 : 			realPointY = dataPt.y - ((dataPt.y - tempDataPt.y) * (mousePoint.x - dataPt.x) / (tempDataPt.x - dataPt.x));

  0044a	8b c7		 mov	 eax, edi
  0044c	8b cf		 mov	 ecx, edi
  0044e	2b c2		 sub	 eax, edx
  00450	0f af c6	 imul	 eax, esi
  00453	8b 75 8c	 mov	 esi, DWORD PTR _tempDataPt$6[ebp]
  00456	2b b5 78 ff ff
	ff		 sub	 esi, DWORD PTR _dataPt$[ebp]
  0045c	99		 cdq
  0045d	f7 fe		 idiv	 esi
  0045f	2b c8		 sub	 ecx, eax
$LN21@PointInSol:

; 1036 : 		if(packet1InIndex == true && realPointY >= mousePoint.y - nUnit && realPointY <= mousePoint.y + nUnit)

  00461	83 7d 84 00	 cmp	 DWORD PTR tv766[ebp], 0
  00465	0f 84 13 ff ff
	ff		 je	 $LN23@PointInSol
  0046b	8d 43 f6	 lea	 eax, DWORD PTR [ebx-10]
  0046e	3b c8		 cmp	 ecx, eax
  00470	0f 8c 08 ff ff
	ff		 jl	 $LN23@PointInSol
  00476	8d 43 0a	 lea	 eax, DWORD PTR [ebx+10]
  00479	3b c8		 cmp	 ecx, eax
  0047b	0f 8f fd fe ff
	ff		 jg	 $LN23@PointInSol

; 1041 : 		return dataIndex;

  00481	8b 45 94	 mov	 eax, DWORD PTR _dataIndex$[ebp]

; 1044 : }

  00484	5f		 pop	 edi
  00485	5e		 pop	 esi
  00486	5b		 pop	 ebx
  00487	8b 4d fc	 mov	 ecx, DWORD PTR __$ArrayPad$[ebp]
  0048a	33 cd		 xor	 ecx, ebp
  0048c	e8 00 00 00 00	 call	 @__security_check_cookie@4
  00491	8b e5		 mov	 esp, ebp
  00493	5d		 pop	 ebp
  00494	c2 08 00	 ret	 8
$LN16@PointInSol:

; 1037 : 			return dataIndex;
; 1038 : 	
; 1039 : 	}
; 1040 : 	else if(packet1InIndex == true && dataPt.x == mousePoint.x && mousePoint.y <= dataPt.y + nUnit && mousePoint.y >= dataPt.y - nUnit)

  00497	83 7d 84 00	 cmp	 DWORD PTR tv766[ebp], 0
  0049b	0f 84 dd fe ff
	ff		 je	 $LN23@PointInSol
  004a1	3b c6		 cmp	 eax, esi
  004a3	0f 85 d5 fe ff
	ff		 jne	 $LN23@PointInSol
  004a9	8b 8d 7c ff ff
	ff		 mov	 ecx, DWORD PTR _dataPt$[ebp+4]
  004af	8d 41 0a	 lea	 eax, DWORD PTR [ecx+10]
  004b2	3b d8		 cmp	 ebx, eax
  004b4	0f 8f c4 fe ff
	ff		 jg	 $LN23@PointInSol
  004ba	8d 41 f6	 lea	 eax, DWORD PTR [ecx-10]
  004bd	3b d8		 cmp	 ebx, eax
  004bf	0f 8c b9 fe ff
	ff		 jl	 $LN23@PointInSol
$LN51@PointInSol:

; 1044 : }

  004c5	8b 4d fc	 mov	 ecx, DWORD PTR __$ArrayPad$[ebp]
  004c8	8b 45 94	 mov	 eax, DWORD PTR _dataIndex$[ebp]
  004cb	33 cd		 xor	 ecx, ebp
  004cd	5f		 pop	 edi
  004ce	5e		 pop	 esi
  004cf	5b		 pop	 ebx
  004d0	e8 00 00 00 00	 call	 @__security_check_cookie@4
  004d5	8b e5		 mov	 esp, ebp
  004d7	5d		 pop	 ebp
  004d8	c2 08 00	 ret	 8
?PointInSolidLineBongGraph@CSelectSubGraph@@AAEHABVCPoint@@PBVCSelectSubGraphData@@@Z ENDP ; CSelectSubGraph::PointInSolidLineBongGraph
_TEXT	ENDS
; Function compile flags: /Ogtp
; File D:\git\src\IBK\IBK_DRFN\ProjSrc\SrcChartEx\ChartOCX\GraphDraw\SelectSubGraph.cpp
; File C:\Program Files (x86)\Microsoft Visual Studio\2019\Community\VC\Tools\MSVC\14.29.30133\atlmfc\include\afxtempl.h
; File D:\git\src\IBK\IBK_DRFN\ProjSrc\SrcChartEx\ChartOCX\GraphDraw\SelectSubGraph.cpp
; File D:\git\src\IBK\IBK_DRFN\ProjSrc\SrcChartEx\ChartOCX\Include_Chart\BlockBaseData.h
; File D:\git\src\IBK\IBK_DRFN\ProjSrc\SrcChartEx\ChartOCX\GraphDraw\SelectSubGraph.cpp
; File D:\git\src\IBK\IBK_DRFN\ProjSrc\SrcChartEx\ChartOCX\Include_Chart\Dll_Load\XScaleManager.h
; File D:\git\src\IBK\IBK_DRFN\ProjSrc\SrcChartEx\ChartOCX\GraphDraw\SelectSubGraph.cpp
; File D:\git\src\IBK\IBK_DRFN\ProjSrc\SrcChartEx\ChartOCX\Include_Chart\Dll_Load\XScaleManager.h
; File D:\git\src\IBK\IBK_DRFN\ProjSrc\SrcChartEx\ChartOCX\GraphDraw\SelectSubGraph.cpp
; File C:\Program Files (x86)\Microsoft Visual Studio\2019\Community\VC\Tools\MSVC\14.29.30133\atlmfc\include\afxtempl.h
; File D:\git\src\IBK\IBK_DRFN\ProjSrc\SrcChartEx\ChartOCX\GraphDraw\SelectSubGraph.cpp
; File C:\Program Files (x86)\Microsoft Visual Studio\2019\Community\VC\Tools\MSVC\14.29.30133\atlmfc\include\afxtempl.h
; File D:\git\src\IBK\IBK_DRFN\ProjSrc\SrcChartEx\ChartOCX\GraphDraw\SelectSubGraph.cpp
; File C:\Program Files (x86)\Microsoft Visual Studio\2019\Community\VC\Tools\MSVC\14.29.30133\atlmfc\include\afxtempl.h
; File D:\git\src\IBK\IBK_DRFN\ProjSrc\SrcChartEx\ChartOCX\GraphDraw\SelectSubGraph.cpp
;	COMDAT ?PointInLineGraph@CSelectSubGraph@@AAEHABVCPoint@@PBVCSelectSubGraphData@@@Z
_TEXT	SEGMENT
$T2 = -260						; size = 16
$T3 = -260						; size = 16
$T4 = -252						; size = 8
_dataPt2$2$ = -248					; size = 4
$T5 = -248						; size = 4
_dataViewMin$ = -244					; size = 8
_dataViewMax$ = -236					; size = 8
_tempData$2$ = -228					; size = 8
tv1967 = -224						; size = 4
_dataPos$3$ = -224					; size = 4
_tempDataPt$1$ = -220					; size = 4
_dataEnd$ = -220					; size = 4
_dataStart$ = -216					; size = 4
_tempDataPt$6 = -212					; size = 8
tv1966 = -208						; size = 4
_realWidth$ = -204					; size = 8
_mousePoint$2$ = -196					; size = 4
_lineWidth$1$ = -192					; size = 4
_pPacket2$1$ = -188					; size = 4
_dataPos2$1$ = -184					; size = 4
_this$GSCopy$1$ = -180					; size = 4
$T7 = -180						; size = 4
_dataPt2$1$ = -176					; size = 4
_area$ = -172						; size = 6
_tempData$1$ = -164					; size = 8
_realData2$1$ = -164					; size = 8
_tempDataPt$8 = -164					; size = 8
_tempDataPt2$9 = -164					; size = 8
_dataIndex$ = -156					; size = 4
_pPacket1$1$ = -152					; size = 4
tv1981 = -148						; size = 4
_point$GSCopy$1$ = -144					; size = 4
_dataPt$ = -140						; size = 8
_tempData2$1$ = -132					; size = 8
_realData$1$ = -132					; size = 8
$T10 = -132						; size = 8
$T11 = -132						; size = 8
$T12 = -132						; size = 8
_dataPt2$ = -132					; size = 8
$T13 = -132						; size = 8
$T14 = -132						; size = 8
_realPointY$2$ = -124					; size = 4
_realPointY$1$ = -124					; size = 4
_nCol$ = -124						; size = 4
_tempDataPt2$1$ = -120					; size = 4
_tempDataPt2$1$ = -120					; size = 4
_nIndex$1$ = -120					; size = 4
$T15 = -116						; size = 8
_tempDataPt2$16 = -116					; size = 8
$T17 = -116						; size = 8
$T18 = -116						; size = 8
$T19 = -116						; size = 8
tv1965 = -112						; size = 4
$T20 = -112						; size = 4
$T21 = -112						; size = 4
$T22 = -112						; size = 4
$T23 = -112						; size = 4
$T24 = -112						; size = 4
_dataPos2$ = -112					; size = 4
$T25 = -112						; size = 4
$T26 = -112						; size = 4
$T27 = -112						; size = 4
_tempDataPt2$2$ = -108					; size = 4
_tempDataPt2$2$ = -108					; size = 4
_dataPos$2$ = -108					; size = 4
$T28 = -108						; size = 4
$T29 = -108						; size = 4
_checkCloudLine$1$ = -101				; size = 1
$T30 = -100						; size = 68
_graphRegion$ = -32					; size = 16
__$ArrayPad$ = -16					; size = 4
__$EHRec$ = -12						; size = 12
_point$ = 8						; size = 4
_pSelectSubGraphData$ = 12				; size = 4
?PointInLineGraph@CSelectSubGraph@@AAEHABVCPoint@@PBVCSelectSubGraphData@@@Z PROC ; CSelectSubGraph::PointInLineGraph, COMDAT
; _this$ = ecx

; 514  : {

  00000	55		 push	 ebp
  00001	8b ec		 mov	 ebp, esp
  00003	6a ff		 push	 -1
  00005	68 00 00 00 00	 push	 __ehhandler$?PointInLineGraph@CSelectSubGraph@@AAEHABVCPoint@@PBVCSelectSubGraphData@@@Z
  0000a	64 a1 00 00 00
	00		 mov	 eax, DWORD PTR fs:0
  00010	50		 push	 eax
  00011	81 ec f8 00 00
	00		 sub	 esp, 248		; 000000f8H
  00017	a1 00 00 00 00	 mov	 eax, DWORD PTR ___security_cookie
  0001c	33 c5		 xor	 eax, ebp
  0001e	89 45 f0	 mov	 DWORD PTR __$ArrayPad$[ebp], eax
  00021	53		 push	 ebx
  00022	56		 push	 esi
  00023	57		 push	 edi
  00024	50		 push	 eax
  00025	8d 45 f4	 lea	 eax, DWORD PTR __$EHRec$[ebp]
  00028	64 a3 00 00 00
	00		 mov	 DWORD PTR fs:0, eax
  0002e	89 8d 4c ff ff
	ff		 mov	 DWORD PTR _this$GSCopy$1$[ebp], ecx
  00034	8b 7d 0c	 mov	 edi, DWORD PTR _pSelectSubGraphData$[ebp]
  00037	8b 45 08	 mov	 eax, DWORD PTR _point$[ebp]
  0003a	89 85 70 ff ff
	ff		 mov	 DWORD PTR _point$GSCopy$1$[ebp], eax

; 515  : 	if(pSelectSubGraphData == NULL || pSelectSubGraphData->GetSubGraphPacketList() == NULL)

  00040	85 ff		 test	 edi, edi
  00042	0f 84 82 08 00
	00		 je	 $LN3@PointInLin
  00048	8b cf		 mov	 ecx, edi
  0004a	e8 00 00 00 00	 call	 ?GetSubGraphPacketList@CSelectSubGraphData@@QBEPAVCSubGraphPacketList@@XZ ; CSelectSubGraphData::GetSubGraphPacketList
  0004f	85 c0		 test	 eax, eax
  00051	0f 84 73 08 00
	00		 je	 $LN3@PointInLin

; 517  : 
; 518  : 	const CList< CPacket *, CPacket *> &packetList = pSelectSubGraphData->GetSubGraphPacketList()->GetSubGraphPacketList();

  00057	8b cf		 mov	 ecx, edi
  00059	e8 00 00 00 00	 call	 ?GetSubGraphPacketList@CSelectSubGraphData@@QBEPAVCSubGraphPacketList@@XZ ; CSelectSubGraphData::GetSubGraphPacketList
  0005e	8b c8		 mov	 ecx, eax
  00060	e8 00 00 00 00	 call	 ?GetSubGraphPacketList@CSubGraphPacketList@@QBEABV?$CList@PAVCPacket@@PAV1@@@XZ ; CSubGraphPacketList::GetSubGraphPacketList
  00065	8b f0		 mov	 esi, eax

; 519  : 	if(packetList.GetCount() <= 0)

  00067	83 7e 0c 00	 cmp	 DWORD PTR [esi+12], 0
  0006b	0f 8e 59 08 00
	00		 jle	 $LN3@PointInLin

; 520  : 		return -1;
; 521  : 
; 522  : 	int nUnit = 8;
; 523  : 	CPacket* pPacket1 = NULL;
; 524  : 	CPacket* pPacket2 = NULL;
; 525  : 	bool checkCloudLine = false;

  00071	32 ff		 xor	 bh, bh
  00073	c7 85 44 ff ff
	ff 00 00 00 00	 mov	 DWORD PTR _pPacket2$1$[ebp], 0

; 526  : 	// (2007/4/5 - Seung-Won, Bae) Check Line Graph Type for Bong Graph of Line Style.
; 527  : 	if( pSelectSubGraphData->GetSubGraphType() == CGraphBaseData::Line_Type)

  0007d	8b cf		 mov	 ecx, edi
  0007f	88 7d 9b	 mov	 BYTE PTR _checkCloudLine$1$[ebp], bh
  00082	e8 00 00 00 00	 call	 ?GetSubGraphType@CSelectSubGraphData@@QBE?AW4GRAPHTYPE@CGraphBaseData@@XZ ; CSelectSubGraphData::GetSubGraphType
  00087	83 f8 01	 cmp	 eax, 1
  0008a	75 35		 jne	 SHORT $LN6@PointInLin

; 528  : 	{
; 529  : 		if(pSelectSubGraphData->GetSubGraphStyle().GetGraphLineStyle() == CGraphBaseData::CloudLine
; 530  : 			|| pSelectSubGraphData->GetSubGraphStyle().GetGraphLineStyle() == CGraphBaseData::LineCloudLine
; 531  : 			|| pSelectSubGraphData->GetSubGraphStyle().GetGraphLineStyle() == CGraphBaseData::NonCloudLine)

  0008c	8d 45 90	 lea	 eax, DWORD PTR $T27[ebp]
  0008f	8b cf		 mov	 ecx, edi
  00091	50		 push	 eax
  00092	e8 00 00 00 00	 call	 ?GetSubGraphStyle@CSelectSubGraphData@@QBE?AVCGraphStyle@@XZ ; CSelectSubGraphData::GetSubGraphStyle
  00097	83 38 02	 cmp	 DWORD PTR [eax], 2
  0009a	74 20		 je	 SHORT $LN7@PointInLin
  0009c	8d 45 90	 lea	 eax, DWORD PTR $T26[ebp]
  0009f	8b cf		 mov	 ecx, edi
  000a1	50		 push	 eax
  000a2	e8 00 00 00 00	 call	 ?GetSubGraphStyle@CSelectSubGraphData@@QBE?AVCGraphStyle@@XZ ; CSelectSubGraphData::GetSubGraphStyle
  000a7	83 38 09	 cmp	 DWORD PTR [eax], 9
  000aa	74 10		 je	 SHORT $LN7@PointInLin
  000ac	8d 45 90	 lea	 eax, DWORD PTR $T25[ebp]
  000af	8b cf		 mov	 ecx, edi
  000b1	50		 push	 eax
  000b2	e8 00 00 00 00	 call	 ?GetSubGraphStyle@CSelectSubGraphData@@QBE?AVCGraphStyle@@XZ ; CSelectSubGraphData::GetSubGraphStyle
  000b7	83 38 0c	 cmp	 DWORD PTR [eax], 12	; 0000000cH
  000ba	75 05		 jne	 SHORT $LN6@PointInLin
$LN7@PointInLin:

; 532  : 			checkCloudLine = true;

  000bc	b7 01		 mov	 bh, 1
  000be	88 7d 9b	 mov	 BYTE PTR _checkCloudLine$1$[ebp], bh
$LN6@PointInLin:

; 533  : 	}
; 534  : 
; 535  : 	//sy 2002.9.18.
; 536  : 	//POSITION pos = packetList.GetHeadPosition();
; 537  : 	POSITION pos = NULL;
; 538  : 	if( g_iMetaTable.IsViewVertMinMax_EndPacket(pSelectSubGraphData->GetGraphName()))

  000c1	8d 45 94	 lea	 eax, DWORD PTR $T29[ebp]
  000c4	8b cf		 mov	 ecx, edi
  000c6	50		 push	 eax
  000c7	e8 00 00 00 00	 call	 ?GetGraphName@CSelectSubGraphData@@QBE?AV?$CStringT@DV?$StrTraitMFC_DLL@DV?$ChTraitsCRT@D@ATL@@@@@ATL@@XZ ; CSelectSubGraphData::GetGraphName
  000cc	50		 push	 eax
  000cd	b9 00 00 00 00	 mov	 ecx, OFFSET ?g_iMetaTable@@3VIMetaTable@@A ; g_iMetaTable
  000d2	c7 45 fc 00 00
	00 00		 mov	 DWORD PTR __$EHRec$[ebp+8], 0
  000d9	e8 00 00 00 00	 call	 ?IsViewVertMinMax_EndPacket@IMetaTable@@QAE_NABV?$CStringT@DV?$StrTraitMFC_DLL@DV?$ChTraitsCRT@D@ATL@@@@@ATL@@@Z ; IMetaTable::IsViewVertMinMax_EndPacket
  000de	8d 4d 94	 lea	 ecx, DWORD PTR $T29[ebp]
  000e1	c7 45 fc ff ff
	ff ff		 mov	 DWORD PTR __$EHRec$[ebp+8], -1
  000e8	8a d8		 mov	 bl, al
  000ea	ff 15 00 00 00
	00		 call	 DWORD PTR __imp_??1?$CStringT@DV?$StrTraitMFC_DLL@DV?$ChTraitsCRT@D@ATL@@@@@ATL@@QAE@XZ
  000f0	84 db		 test	 bl, bl
  000f2	74 05		 je	 SHORT $LN8@PointInLin

; 539  : 		pos = packetList.GetTailPosition();

  000f4	8b 46 08	 mov	 eax, DWORD PTR [esi+8]
  000f7	eb 03		 jmp	 SHORT $LN9@PointInLin
$LN8@PointInLin:

; 540  : 	else
; 541  : 		pos = packetList.GetHeadPosition();

  000f9	8b 46 04	 mov	 eax, DWORD PTR [esi+4]
$LN9@PointInLin:

; 542  : 	if(pos == NULL)	

  000fc	85 c0		 test	 eax, eax
  000fe	0f 84 c6 07 00
	00		 je	 $LN3@PointInLin
; File C:\Program Files (x86)\Microsoft Visual Studio\2019\Community\VC\Tools\MSVC\14.29.30133\atlmfc\include\afxtempl.h

; 819  : 		rPosition = (POSITION) pNode->pNext;

  00104	8b 08		 mov	 ecx, DWORD PTR [eax]
; File D:\git\src\IBK\IBK_DRFN\ProjSrc\SrcChartEx\ChartOCX\GraphDraw\SelectSubGraph.cpp

; 546  : 	pPacket1 = packetList.GetNext(pos);

  00106	8b 40 08	 mov	 eax, DWORD PTR [eax+8]
  00109	89 85 68 ff ff
	ff		 mov	 DWORD PTR _pPacket1$1$[ebp], eax

; 547  : 
; 548  : 	//
; 549  : 	if(checkCloudLine){

  0010f	84 ff		 test	 bh, bh
  00111	74 11		 je	 SHORT $LN11@PointInLin

; 550  : 		if(pos == NULL)

  00113	85 c9		 test	 ecx, ecx
  00115	0f 84 af 07 00
	00		 je	 $LN3@PointInLin

; 551  : 			return -1;
; 552  : 		pPacket2 = packetList.GetNext(pos);

  0011b	8b 41 08	 mov	 eax, DWORD PTR [ecx+8]
  0011e	89 85 44 ff ff
	ff		 mov	 DWORD PTR _pPacket2$1$[ebp], eax
$LN11@PointInLin:

; 553  : 	}
; 554  : 	
; 555  : 	//int dataStart = pSelectSubGraphData->GetDisplayAttributes().GetDataStartInBlock();
; 556  : 	//int dataEnd = pSelectSubGraphData->GetDisplayAttributes().GetDataEndInBlock();
; 557  : 	int pageDataCount = pSelectSubGraphData->GetDisplayAttributes().GetDataCountInBlock();

  00124	8d 85 7c ff ff
	ff		 lea	 eax, DWORD PTR $T14[ebp]
  0012a	8b cf		 mov	 ecx, edi
  0012c	50		 push	 eax
  0012d	e8 00 00 00 00	 call	 ?GetDisplayAttributes@CSelectSubGraphData@@QBE?AVCDisplayAttributes@@XZ ; CSelectSubGraphData::GetDisplayAttributes
  00132	8b c8		 mov	 ecx, eax
  00134	e8 00 00 00 00	 call	 ?GetDataCountInBlock@CDisplayAttributes@@QBEHXZ ; CDisplayAttributes::GetDataCountInBlock

; 558  : 	
; 559  : 	int dataStart, dataEnd;
; 560  : 	pSelectSubGraphData->GetXScaleManager()->GetDrawIndex(pSelectSubGraphData->GetRQ(), FALSE, FALSE, dataStart, dataEnd);

  00139	8b cf		 mov	 ecx, edi
  0013b	e8 00 00 00 00	 call	 ?GetXScaleManager@CSelectSubGraphData@@QBEPAVCXScaleManager@@XZ ; CSelectSubGraphData::GetXScaleManager
  00140	8b f0		 mov	 esi, eax
  00142	8d 85 24 ff ff
	ff		 lea	 eax, DWORD PTR _dataEnd$[ebp]
  00148	50		 push	 eax
  00149	8d 85 28 ff ff
	ff		 lea	 eax, DWORD PTR _dataStart$[ebp]
  0014f	50		 push	 eax
  00150	6a 00		 push	 0
  00152	6a 00		 push	 0
  00154	51		 push	 ecx
  00155	54		 push	 esp
  00156	8b cf		 mov	 ecx, edi
  00158	e8 00 00 00 00	 call	 ?GetRQ@CSelectSubGraphData@@QBE?AV?$CStringT@DV?$StrTraitMFC_DLL@DV?$ChTraitsCRT@D@ATL@@@@@ATL@@XZ ; CSelectSubGraphData::GetRQ
  0015d	8b 06		 mov	 eax, DWORD PTR [esi]
  0015f	8b ce		 mov	 ecx, esi
  00161	ff 90 a4 00 00
	00		 call	 DWORD PTR [eax+164]

; 561  : 	
; 562  : 	POSITION dataPos = pPacket1->GetnumericDataList()->FindIndex(dataStart);

  00167	ff b5 28 ff ff
	ff		 push	 DWORD PTR _dataStart$[ebp]
  0016d	8b 8d 68 ff ff
	ff		 mov	 ecx, DWORD PTR _pPacket1$1$[ebp]
  00173	ff 15 00 00 00
	00		 call	 DWORD PTR __imp_?GetnumericDataList@CPacket@@QAEPAV?$CList@NN@@XZ
  00179	8b c8		 mov	 ecx, eax
  0017b	e8 00 00 00 00	 call	 ?FindIndex@?$CList@NN@@QBEPAU__POSITION@@H@Z ; CList<double,double>::FindIndex

; 563  : 	if(dataPos == NULL) 

  00180	85 c0		 test	 eax, eax
  00182	0f 84 42 07 00
	00		 je	 $LN3@PointInLin

; 566  : 	CRect graphRegion = pSelectSubGraphData->GetGraphRegions().GetDrawingRegion();

  00188	8d 45 94	 lea	 eax, DWORD PTR $T28[ebp]
; File D:\git\src\IBK\IBK_DRFN\ProjSrc\SrcChartEx\ChartOCX\Include_Chart\BlockBaseData.h

; 43   : 	CGraphStyle(const int style) { m_nStyle = style; };

  0018b	c7 45 94 ff ff
	ff ff		 mov	 DWORD PTR $T28[ebp], -1
; File D:\git\src\IBK\IBK_DRFN\ProjSrc\SrcChartEx\ChartOCX\GraphDraw\SelectSubGraph.cpp

; 566  : 	CRect graphRegion = pSelectSubGraphData->GetGraphRegions().GetDrawingRegion();

  00192	50		 push	 eax
  00193	6a ff		 push	 -1
  00195	8d 45 e0	 lea	 eax, DWORD PTR _graphRegion$[ebp]
  00198	8b cf		 mov	 ecx, edi
  0019a	50		 push	 eax
  0019b	8d 45 9c	 lea	 eax, DWORD PTR $T30[ebp]
  0019e	50		 push	 eax
  0019f	e8 00 00 00 00	 call	 ?GetGraphRegions@CSelectSubGraphData@@QBE?AVCGraphRegions@@XZ ; CSelectSubGraphData::GetGraphRegions
  001a4	8b c8		 mov	 ecx, eax
  001a6	e8 00 00 00 00	 call	 ?GetDrawingRegion@CGraphRegions@@QBE?AVCRect@@W4GRAPHTYPE@CGraphBaseData@@ABVCGraphStyle@@@Z ; CGraphRegions::GetDrawingRegion
; File D:\git\src\IBK\IBK_DRFN\ProjSrc\SrcChartEx\ChartOCX\Include_Chart\Dll_Load\XScaleManager.h

; 67   : 			left = center = right = 0;

  001ab	33 c0		 xor	 eax, eax
; File D:\git\src\IBK\IBK_DRFN\ProjSrc\SrcChartEx\ChartOCX\GraphDraw\SelectSubGraph.cpp

; 570  : 	int nCol = 0;

  001ad	c7 45 84 00 00
	00 00		 mov	 DWORD PTR _nCol$[ebp], 0

; 572  : 	pSelectSubGraphData->GetXScaleManager()->GetDTInAREAfRQnPt(pSelectSubGraphData->GetRQ(), point.x, nCol, &dataIndex, &area);

  001b4	8b cf		 mov	 ecx, edi
; File D:\git\src\IBK\IBK_DRFN\ProjSrc\SrcChartEx\ChartOCX\Include_Chart\Dll_Load\XScaleManager.h

; 67   : 			left = center = right = 0;

  001b6	89 85 56 ff ff
	ff		 mov	 DWORD PTR _area$[ebp+2], eax
  001bc	66 89 85 54 ff
	ff ff		 mov	 WORD PTR _area$[ebp], ax
; File D:\git\src\IBK\IBK_DRFN\ProjSrc\SrcChartEx\ChartOCX\GraphDraw\SelectSubGraph.cpp

; 572  : 	pSelectSubGraphData->GetXScaleManager()->GetDTInAREAfRQnPt(pSelectSubGraphData->GetRQ(), point.x, nCol, &dataIndex, &area);

  001c3	e8 00 00 00 00	 call	 ?GetXScaleManager@CSelectSubGraphData@@QBEPAVCXScaleManager@@XZ ; CSelectSubGraphData::GetXScaleManager
  001c8	8b 8d 70 ff ff
	ff		 mov	 ecx, DWORD PTR _point$GSCopy$1$[ebp]
  001ce	8b f0		 mov	 esi, eax
  001d0	6a 00		 push	 0
  001d2	8d 85 54 ff ff
	ff		 lea	 eax, DWORD PTR _area$[ebp]
  001d8	50		 push	 eax
  001d9	8d 85 64 ff ff
	ff		 lea	 eax, DWORD PTR _dataIndex$[ebp]
  001df	50		 push	 eax
  001e0	8d 45 84	 lea	 eax, DWORD PTR _nCol$[ebp]
  001e3	50		 push	 eax
  001e4	ff 31		 push	 DWORD PTR [ecx]
  001e6	51		 push	 ecx
  001e7	54		 push	 esp
  001e8	8b cf		 mov	 ecx, edi
  001ea	e8 00 00 00 00	 call	 ?GetRQ@CSelectSubGraphData@@QBE?AV?$CStringT@DV?$StrTraitMFC_DLL@DV?$ChTraitsCRT@D@ATL@@@@@ATL@@XZ ; CSelectSubGraphData::GetRQ
  001ef	8b 06		 mov	 eax, DWORD PTR [esi]
  001f1	8b ce		 mov	 ecx, esi
  001f3	ff 90 34 01 00
	00		 call	 DWORD PTR [eax+308]

; 573  : 
; 574  : 	if(dataIndex == -1)

  001f9	8b 85 64 ff ff
	ff		 mov	 eax, DWORD PTR _dataIndex$[ebp]
  001ff	83 f8 ff	 cmp	 eax, -1
  00202	0f 84 c2 06 00
	00		 je	 $LN3@PointInLin

; 575  : 		return -1;
; 576  : 	 
; 577  : 	if(area.left<0 || area.center<0)

  00208	66 83 bd 54 ff
	ff ff 00	 cmp	 WORD PTR _area$[ebp], 0
  00210	0f 8c b4 06 00
	00		 jl	 $LN3@PointInLin
  00216	66 83 bd 56 ff
	ff ff 00	 cmp	 WORD PTR _area$[ebp+2], 0
  0021e	0f 8c a6 06 00
	00		 jl	 $LN3@PointInLin

; 578  : 		return -1;
; 579  : 
; 580  : 	dataPos = pPacket1->GetnumericDataList()->FindIndex(dataIndex);

  00224	8b 8d 68 ff ff
	ff		 mov	 ecx, DWORD PTR _pPacket1$1$[ebp]
  0022a	8b 35 00 00 00
	00		 mov	 esi, DWORD PTR __imp_?GetnumericDataList@CPacket@@QAEPAV?$CList@NN@@XZ
  00230	50		 push	 eax
  00231	ff d6		 call	 esi
  00233	8b c8		 mov	 ecx, eax
  00235	e8 00 00 00 00	 call	 ?FindIndex@?$CList@NN@@QBEPAU__POSITION@@H@Z ; CList<double,double>::FindIndex
  0023a	89 85 6c ff ff
	ff		 mov	 DWORD PTR tv1981[ebp], eax
  00240	89 45 94	 mov	 DWORD PTR _dataPos$2$[ebp], eax

; 581  : 	
; 582  : 	POSITION dataPos2;
; 583  : 	//
; 584  : 	if(checkCloudLine)

  00243	84 ff		 test	 bh, bh
  00245	74 1f		 je	 SHORT $LN121@PointInLin

; 585  : 		dataPos2 = pPacket2->GetnumericDataList()->FindIndex(dataIndex);

  00247	ff b5 64 ff ff
	ff		 push	 DWORD PTR _dataIndex$[ebp]
  0024d	8b 8d 44 ff ff
	ff		 mov	 ecx, DWORD PTR _pPacket2$1$[ebp]
  00253	ff d6		 call	 esi
  00255	8b c8		 mov	 ecx, eax
  00257	e8 00 00 00 00	 call	 ?FindIndex@?$CList@NN@@QBEPAU__POSITION@@H@Z ; CList<double,double>::FindIndex
  0025c	8b d8		 mov	 ebx, eax
  0025e	89 85 48 ff ff
	ff		 mov	 DWORD PTR _dataPos2$1$[ebp], eax
  00264	eb 09		 jmp	 SHORT $LN17@PointInLin
$LN121@PointInLin:

; 581  : 	
; 582  : 	POSITION dataPos2;
; 583  : 	//
; 584  : 	if(checkCloudLine)

  00266	8b 5d 90	 mov	 ebx, DWORD PTR _dataPos2$[ebp]
  00269	89 9d 48 ff ff
	ff		 mov	 DWORD PTR _dataPos2$1$[ebp], ebx
$LN17@PointInLin:

; 586  : 
; 587  : 	bool packet1InIndex= true;
; 588  : 	bool packet2InIndex= true;
; 589  : 
; 590  : 	if(dataPos == NULL)
; 591  : 		packet1InIndex = false;
; 592  : 	if(dataPos2 == NULL)
; 593  : 		packet2InIndex = false;
; 594  : 
; 595  : 	double realWidth = CDraw::CalRealWidth(graphRegion, dataStart, dataEnd);

  0026f	ff b5 24 ff ff
	ff		 push	 DWORD PTR _dataEnd$[ebp]
  00275	8b 8d 4c ff ff
	ff		 mov	 ecx, DWORD PTR _this$GSCopy$1$[ebp]
  0027b	8d 45 e0	 lea	 eax, DWORD PTR _graphRegion$[ebp]
  0027e	ff b5 28 ff ff
	ff		 push	 DWORD PTR _dataStart$[ebp]
  00284	89 9d 20 ff ff
	ff		 mov	 DWORD PTR tv1967[ebp], ebx
  0028a	50		 push	 eax
  0028b	89 9d 30 ff ff
	ff		 mov	 DWORD PTR tv1966[ebp], ebx
  00291	89 5d 90	 mov	 DWORD PTR tv1965[ebp], ebx
  00294	e8 00 00 00 00	 call	 ?CalRealWidth@CDraw@@IAENABVCRect@@HH@Z ; CDraw::CalRealWidth

; 596  : 	int lineWidth = int(realWidth*(8.0/10.0));
; 597  : 	double realData = 0.0;
; 598  : 	double realData2 = realData;
; 599  : 	
; 600  : 	if(packet1InIndex)

  00299	83 bd 6c ff ff
	ff 00		 cmp	 DWORD PTR tv1981[ebp], 0
  002a0	dd 9d 34 ff ff
	ff		 fstp	 QWORD PTR _realWidth$[ebp]
  002a6	f2 0f 10 85 34
	ff ff ff	 movsd	 xmm0, QWORD PTR _realWidth$[ebp]
  002ae	f2 0f 59 05 00
	00 00 00	 mulsd	 xmm0, QWORD PTR __real@3fe999999999999a
  002b6	f2 0f 2c c0	 cvttsd2si eax, xmm0
  002ba	0f 57 c0	 xorps	 xmm0, xmm0
  002bd	89 85 40 ff ff
	ff		 mov	 DWORD PTR _lineWidth$1$[ebp], eax
  002c3	f2 0f 11 85 7c
	ff ff ff	 movsd	 QWORD PTR _realData$1$[ebp], xmm0
  002cb	f2 0f 11 85 5c
	ff ff ff	 movsd	 QWORD PTR _realData2$1$[ebp], xmm0
  002d3	74 1f		 je	 SHORT $LN20@PointInLin

; 601  : 		realData = pPacket1->GetnumericDataList()->GetNext(dataPos);

  002d5	8b 8d 68 ff ff
	ff		 mov	 ecx, DWORD PTR _pPacket1$1$[ebp]
  002db	ff d6		 call	 esi
; File C:\Program Files (x86)\Microsoft Visual Studio\2019\Community\VC\Tools\MSVC\14.29.30133\atlmfc\include\afxtempl.h

; 811  : 	{ CNode* pNode = (CNode*) rPosition;

  002dd	8b 4d 94	 mov	 ecx, DWORD PTR _dataPos$2$[ebp]
  002e0	8b c1		 mov	 eax, ecx
; File D:\git\src\IBK\IBK_DRFN\ProjSrc\SrcChartEx\ChartOCX\GraphDraw\SelectSubGraph.cpp

; 601  : 		realData = pPacket1->GetnumericDataList()->GetNext(dataPos);

  002e2	f2 0f 10 40 08	 movsd	 xmm0, QWORD PTR [eax+8]
; File C:\Program Files (x86)\Microsoft Visual Studio\2019\Community\VC\Tools\MSVC\14.29.30133\atlmfc\include\afxtempl.h

; 813  : 		rPosition = (POSITION) pNode->pNext;

  002e7	8b 09		 mov	 ecx, DWORD PTR [ecx]
  002e9	89 4d 94	 mov	 DWORD PTR _dataPos$2$[ebp], ecx
; File D:\git\src\IBK\IBK_DRFN\ProjSrc\SrcChartEx\ChartOCX\GraphDraw\SelectSubGraph.cpp

; 601  : 		realData = pPacket1->GetnumericDataList()->GetNext(dataPos);

  002ec	f2 0f 11 85 7c
	ff ff ff	 movsd	 QWORD PTR _realData$1$[ebp], xmm0
$LN20@PointInLin:

; 602  : 	
; 603  : 	//
; 604  : 	if(checkCloudLine){

  002f4	80 7d 9b 00	 cmp	 BYTE PTR _checkCloudLine$1$[ebp], 0
  002f8	74 23		 je	 SHORT $LN22@PointInLin

; 605  : 		if(packet2InIndex)

  002fa	85 db		 test	 ebx, ebx
  002fc	74 1f		 je	 SHORT $LN22@PointInLin

; 606  : 			realData2 = pPacket1->GetnumericDataList()->GetNext(dataPos2);

  002fe	8b 8d 68 ff ff
	ff		 mov	 ecx, DWORD PTR _pPacket1$1$[ebp]
  00304	ff d6		 call	 esi
; File C:\Program Files (x86)\Microsoft Visual Studio\2019\Community\VC\Tools\MSVC\14.29.30133\atlmfc\include\afxtempl.h

; 811  : 	{ CNode* pNode = (CNode*) rPosition;

  00306	8b c3		 mov	 eax, ebx

; 813  : 		rPosition = (POSITION) pNode->pNext;

  00308	8b 1b		 mov	 ebx, DWORD PTR [ebx]
  0030a	89 9d 48 ff ff
	ff		 mov	 DWORD PTR _dataPos2$1$[ebp], ebx
; File D:\git\src\IBK\IBK_DRFN\ProjSrc\SrcChartEx\ChartOCX\GraphDraw\SelectSubGraph.cpp

; 606  : 			realData2 = pPacket1->GetnumericDataList()->GetNext(dataPos2);

  00310	f2 0f 10 40 08	 movsd	 xmm0, QWORD PTR [eax+8]
  00315	f2 0f 11 85 5c
	ff ff ff	 movsd	 QWORD PTR _realData2$1$[ebp], xmm0
$LN22@PointInLin:

; 607  : 	}
; 608  : 
; 609  : 	// NonZeroLine 
; 610  : 	if(pSelectSubGraphData->GetSubGraphStyle().GetGraphBarStyle() == CGraphBaseData::NonZeroLine){

  0031d	8d 85 08 ff ff
	ff		 lea	 eax, DWORD PTR $T5[ebp]
  00323	8b cf		 mov	 ecx, edi
  00325	50		 push	 eax
  00326	e8 00 00 00 00	 call	 ?GetSubGraphStyle@CSelectSubGraphData@@QBE?AVCGraphStyle@@XZ ; CSelectSubGraphData::GetSubGraphStyle
  0032b	83 38 05	 cmp	 DWORD PTR [eax], 5
  0032e	75 19		 jne	 SHORT $LN24@PointInLin

; 611  : 		if(realData == 0)

  00330	f2 0f 10 8d 7c
	ff ff ff	 movsd	 xmm1, QWORD PTR _realData$1$[ebp]
  00338	0f 57 c0	 xorps	 xmm0, xmm0
  0033b	66 0f 2e c8	 ucomisd xmm1, xmm0
  0033f	9f		 lahf
  00340	f6 c4 44	 test	 ah, 68			; 00000044H
  00343	0f 8b 81 05 00
	00		 jnp	 $LN3@PointInLin
$LN24@PointInLin:

; 612  : 			return -1;
; 613  : 	}
; 614  : 	double dataViewMin = CDraw::CalLogValue(pSelectSubGraphData->GetVertScaleLogType(), pSelectSubGraphData->GetDisplayDataVertMinMax().GetDisplayMin());

  00349	8d 85 fc fe ff
	ff		 lea	 eax, DWORD PTR $T3[ebp]
  0034f	8b cf		 mov	 ecx, edi
  00351	50		 push	 eax
  00352	e8 00 00 00 00	 call	 ?GetDisplayDataVertMinMax@CSelectSubGraphData@@QBE?AVCDisplayDataMinMax@@XZ ; CSelectSubGraphData::GetDisplayDataVertMinMax
  00357	8b c8		 mov	 ecx, eax
  00359	ff 15 00 00 00
	00		 call	 DWORD PTR __imp_?GetDisplayMin@CDisplayDataMinMax@@QBENXZ
  0035f	83 ec 08	 sub	 esp, 8
  00362	8b cf		 mov	 ecx, edi
  00364	dd 1c 24	 fstp	 QWORD PTR [esp]
  00367	e8 00 00 00 00	 call	 ?GetVertScaleLogType@CSelectSubGraphData@@QBE_NXZ ; CSelectSubGraphData::GetVertScaleLogType
  0036c	8b 9d 4c ff ff
	ff		 mov	 ebx, DWORD PTR _this$GSCopy$1$[ebp]
  00372	8b cb		 mov	 ecx, ebx
  00374	0f b6 c0	 movzx	 eax, al
  00377	50		 push	 eax
  00378	e8 00 00 00 00	 call	 ?CalLogValue@CDraw@@IAEN_NN@Z ; CDraw::CalLogValue

; 615  : 	double dataViewMax = CDraw::CalLogValue(pSelectSubGraphData->GetVertScaleLogType(), pSelectSubGraphData->GetDisplayDataVertMinMax().GetDisplayMax());

  0037d	8d 85 fc fe ff
	ff		 lea	 eax, DWORD PTR $T2[ebp]
  00383	8b cf		 mov	 ecx, edi
  00385	50		 push	 eax
  00386	dd 9d 0c ff ff
	ff		 fstp	 QWORD PTR _dataViewMin$[ebp]
  0038c	e8 00 00 00 00	 call	 ?GetDisplayDataVertMinMax@CSelectSubGraphData@@QBE?AVCDisplayDataMinMax@@XZ ; CSelectSubGraphData::GetDisplayDataVertMinMax
  00391	8b c8		 mov	 ecx, eax
  00393	ff 15 00 00 00
	00		 call	 DWORD PTR __imp_?GetDisplayMax@CDisplayDataMinMax@@QBENXZ
  00399	83 ec 08	 sub	 esp, 8
  0039c	8b cf		 mov	 ecx, edi
  0039e	dd 1c 24	 fstp	 QWORD PTR [esp]
  003a1	e8 00 00 00 00	 call	 ?GetVertScaleLogType@CSelectSubGraphData@@QBE_NXZ ; CSelectSubGraphData::GetVertScaleLogType
  003a6	0f b6 c0	 movzx	 eax, al
  003a9	8b cb		 mov	 ecx, ebx
  003ab	50		 push	 eax
  003ac	e8 00 00 00 00	 call	 ?CalLogValue@CDraw@@IAEN_NN@Z ; CDraw::CalLogValue

; 1322 : 		return dataStart;

  003b1	8b 8d 28 ff ff
	ff		 mov	 ecx, DWORD PTR _dataStart$[ebp]

; 1323 : 	
; 1324 : 	return (dataIndex - dataStart);

  003b7	8b b5 64 ff ff
	ff		 mov	 esi, DWORD PTR _dataIndex$[ebp]

; 616  : 	int nIndex = GetIndex(dataIndex, dataStart);
; 617  : 	CPoint dataPt = CDataConversion::GetVerticalPoint(graphRegion, nIndex, realWidth, dataViewMin, dataViewMax, CDraw::CalLogValue(pSelectSubGraphData->GetVertScaleLogType(), realData));

  003bd	f2 0f 10 85 7c
	ff ff ff	 movsd	 xmm0, QWORD PTR _realData$1$[ebp]

; 1324 : 	return (dataIndex - dataStart);

  003c5	2b f1		 sub	 esi, ecx
  003c7	39 8d 64 ff ff
	ff		 cmp	 DWORD PTR _dataIndex$[ebp], ecx

; 615  : 	double dataViewMax = CDraw::CalLogValue(pSelectSubGraphData->GetVertScaleLogType(), pSelectSubGraphData->GetDisplayDataVertMinMax().GetDisplayMax());

  003cd	dd 9d 14 ff ff
	ff		 fstp	 QWORD PTR _dataViewMax$[ebp]

; 1321 : 	if(dataIndex < dataStart)

  003d3	0f 4c f1	 cmovl	 esi, ecx

; 616  : 	int nIndex = GetIndex(dataIndex, dataStart);
; 617  : 	CPoint dataPt = CDataConversion::GetVerticalPoint(graphRegion, nIndex, realWidth, dataViewMin, dataViewMax, CDraw::CalLogValue(pSelectSubGraphData->GetVertScaleLogType(), realData));

  003d6	83 ec 08	 sub	 esp, 8
  003d9	8b cf		 mov	 ecx, edi

; 1321 : 	if(dataIndex < dataStart)

  003db	89 75 88	 mov	 DWORD PTR _nIndex$1$[ebp], esi

; 616  : 	int nIndex = GetIndex(dataIndex, dataStart);
; 617  : 	CPoint dataPt = CDataConversion::GetVerticalPoint(graphRegion, nIndex, realWidth, dataViewMin, dataViewMax, CDraw::CalLogValue(pSelectSubGraphData->GetVertScaleLogType(), realData));

  003de	f2 0f 11 04 24	 movsd	 QWORD PTR [esp], xmm0
  003e3	e8 00 00 00 00	 call	 ?GetVertScaleLogType@CSelectSubGraphData@@QBE_NXZ ; CSelectSubGraphData::GetVertScaleLogType
  003e8	0f b6 c0	 movzx	 eax, al
  003eb	8b cb		 mov	 ecx, ebx
  003ed	50		 push	 eax
  003ee	e8 00 00 00 00	 call	 ?CalLogValue@CDraw@@IAEN_NN@Z ; CDraw::CalLogValue
  003f3	6a 01		 push	 1
  003f5	8d 85 7c ff ff
	ff		 lea	 eax, DWORD PTR $T13[ebp]
  003fb	50		 push	 eax
  003fc	8d 85 14 ff ff
	ff		 lea	 eax, DWORD PTR _dataViewMax$[ebp]
  00402	50		 push	 eax
  00403	8d 85 0c ff ff
	ff		 lea	 eax, DWORD PTR _dataViewMin$[ebp]
  00409	50		 push	 eax
  0040a	8d 85 34 ff ff
	ff		 lea	 eax, DWORD PTR _realWidth$[ebp]
  00410	50		 push	 eax
  00411	56		 push	 esi
  00412	8d 45 e0	 lea	 eax, DWORD PTR _graphRegion$[ebp]
  00415	50		 push	 eax
  00416	8d 85 74 ff ff
	ff		 lea	 eax, DWORD PTR _dataPt$[ebp]
  0041c	50		 push	 eax
  0041d	dd 9d 7c ff ff
	ff		 fstp	 QWORD PTR $T13[ebp]
  00423	e8 00 00 00 00	 call	 ?GetVerticalPoint@CDataConversion@@SA?AVCPoint@@ABVCRect@@HABN111_N@Z ; CDataConversion::GetVerticalPoint

; 618  : 	CPoint dataPt2 = dataPt;

  00428	8b 85 74 ff ff
	ff		 mov	 eax, DWORD PTR _dataPt$[ebp]
  0042e	83 c4 20	 add	 esp, 32			; 00000020H

; 619  : 
; 620  : 	if(checkCloudLine)

  00431	80 7d 9b 00	 cmp	 BYTE PTR _checkCloudLine$1$[ebp], 0
  00435	8b 8d 78 ff ff
	ff		 mov	 ecx, DWORD PTR _dataPt$[ebp+4]
  0043b	89 8d 08 ff ff
	ff		 mov	 DWORD PTR _dataPt2$2$[ebp], ecx
  00441	89 85 7c ff ff
	ff		 mov	 DWORD PTR _dataPt2$[ebp], eax
  00447	74 6b		 je	 SHORT $LN25@PointInLin

; 621  : 		dataPt2 = CDataConversion::GetVerticalPoint(graphRegion, nIndex, realWidth, dataViewMin, dataViewMax, CDraw::CalLogValue(pSelectSubGraphData->GetVertScaleLogType(), realData2));

  00449	f2 0f 10 85 5c
	ff ff ff	 movsd	 xmm0, QWORD PTR _realData2$1$[ebp]
  00451	83 ec 08	 sub	 esp, 8
  00454	8b cf		 mov	 ecx, edi
  00456	f2 0f 11 04 24	 movsd	 QWORD PTR [esp], xmm0
  0045b	e8 00 00 00 00	 call	 ?GetVertScaleLogType@CSelectSubGraphData@@QBE_NXZ ; CSelectSubGraphData::GetVertScaleLogType
  00460	0f b6 c0	 movzx	 eax, al
  00463	8b cb		 mov	 ecx, ebx
  00465	50		 push	 eax
  00466	e8 00 00 00 00	 call	 ?CalLogValue@CDraw@@IAEN_NN@Z ; CDraw::CalLogValue
  0046b	6a 01		 push	 1
  0046d	8d 85 7c ff ff
	ff		 lea	 eax, DWORD PTR $T12[ebp]
  00473	50		 push	 eax
  00474	8d 85 14 ff ff
	ff		 lea	 eax, DWORD PTR _dataViewMax$[ebp]
  0047a	50		 push	 eax
  0047b	8d 85 0c ff ff
	ff		 lea	 eax, DWORD PTR _dataViewMin$[ebp]
  00481	50		 push	 eax
  00482	8d 85 34 ff ff
	ff		 lea	 eax, DWORD PTR _realWidth$[ebp]
  00488	50		 push	 eax
  00489	56		 push	 esi
  0048a	8d 45 e0	 lea	 eax, DWORD PTR _graphRegion$[ebp]
  0048d	50		 push	 eax
  0048e	8d 85 04 ff ff
	ff		 lea	 eax, DWORD PTR $T4[ebp]
  00494	50		 push	 eax
  00495	dd 9d 7c ff ff
	ff		 fstp	 QWORD PTR $T12[ebp]
  0049b	e8 00 00 00 00	 call	 ?GetVerticalPoint@CDataConversion@@SA?AVCPoint@@ABVCRect@@HABN111_N@Z ; CDataConversion::GetVerticalPoint
  004a0	83 c4 20	 add	 esp, 32			; 00000020H
  004a3	8b 08		 mov	 ecx, DWORD PTR [eax]
  004a5	8b 40 04	 mov	 eax, DWORD PTR [eax+4]
  004a8	89 85 08 ff ff
	ff		 mov	 DWORD PTR _dataPt2$2$[ebp], eax
  004ae	89 8d 7c ff ff
	ff		 mov	 DWORD PTR _dataPt2$[ebp], ecx
$LN25@PointInLin:

; 622  : 
; 623  : 	int realPointY = 0;
; 624  : 	int realPointY2 = 0;
; 625  : 	double tempData = 0.0, tempData2 = 0.0;
; 626  : 
; 627  : 	//invert scale .
; 628  : 	CPoint mousePoint = point;

  004b4	8b 85 70 ff ff
	ff		 mov	 eax, DWORD PTR _point$GSCopy$1$[ebp]
  004ba	0f 57 c0	 xorps	 xmm0, xmm0

; 629  : 	if(pSelectSubGraphData->GetVertScaleInvertType())

  004bd	8b cf		 mov	 ecx, edi
  004bf	f2 0f 11 85 7c
	ff ff ff	 movsd	 QWORD PTR _tempData2$1$[ebp], xmm0
  004c7	8b 30		 mov	 esi, DWORD PTR [eax]
  004c9	8b 58 04	 mov	 ebx, DWORD PTR [eax+4]
  004cc	89 b5 3c ff ff
	ff		 mov	 DWORD PTR _mousePoint$2$[ebp], esi
  004d2	e8 00 00 00 00	 call	 ?GetVertScaleInvertType@CSelectSubGraphData@@QBE_NXZ ; CSelectSubGraphData::GetVertScaleInvertType
  004d7	84 c0		 test	 al, al
  004d9	74 17		 je	 SHORT $LN26@PointInLin

; 630  : 		mousePoint.y = CDataConversion::InvertGraphDataPt(graphRegion, point.y);

  004db	8b 85 70 ff ff
	ff		 mov	 eax, DWORD PTR _point$GSCopy$1$[ebp]
  004e1	ff 70 04	 push	 DWORD PTR [eax+4]
  004e4	8d 45 e0	 lea	 eax, DWORD PTR _graphRegion$[ebp]
  004e7	50		 push	 eax
  004e8	e8 00 00 00 00	 call	 ?InvertGraphDataPt@CDataConversion@@SAHABVCRect@@H@Z ; CDataConversion::InvertGraphDataPt
  004ed	83 c4 08	 add	 esp, 8
  004f0	8b d8		 mov	 ebx, eax
$LN26@PointInLin:

; 631  : 
; 632  : 	dataPt.x = dataPt2.x = area.center;
; 633  : 
; 634  : 	// line  ===============================================================================
; 635  : 	if(dataPt.x < point.x){

  004f2	8b 8d 70 ff ff
	ff		 mov	 ecx, DWORD PTR _point$GSCopy$1$[ebp]
  004f8	0f bf 85 56 ff
	ff ff		 movsx	 eax, WORD PTR _area$[ebp+2]
  004ff	89 85 50 ff ff
	ff		 mov	 DWORD PTR _dataPt2$1$[ebp], eax
  00505	89 85 74 ff ff
	ff		 mov	 DWORD PTR _dataPt$[ebp], eax
  0050b	3b 01		 cmp	 eax, DWORD PTR [ecx]
  0050d	0f 8d d8 03 00
	00		 jge	 $LN27@PointInLin

; 636  : 		// line  
; 637  : 		if(pSelectSubGraphData->GetSubGraphStyle().GetGraphBarStyle() == CGraphBaseData::HorizontalLine){

  00513	8d 45 90	 lea	 eax, DWORD PTR $T24[ebp]
  00516	8b cf		 mov	 ecx, edi
  00518	50		 push	 eax
  00519	e8 00 00 00 00	 call	 ?GetSubGraphStyle@CSelectSubGraphData@@QBE?AVCGraphStyle@@XZ ; CSelectSubGraphData::GetSubGraphStyle
  0051e	83 38 03	 cmp	 DWORD PTR [eax], 3
  00521	75 2c		 jne	 SHORT $LN31@PointInLin

; 638  : 			if(packet1InIndex == true && dataPt.x + lineWidth >= mousePoint.x && mousePoint.y <= dataPt.y + nUnit && mousePoint.y >= dataPt.y - nUnit)

  00523	83 bd 6c ff ff
	ff 00		 cmp	 DWORD PTR tv1981[ebp], 0
  0052a	0f 84 9a 03 00
	00		 je	 $LN3@PointInLin
  00530	8b 85 74 ff ff
	ff		 mov	 eax, DWORD PTR _dataPt$[ebp]
  00536	03 85 40 ff ff
	ff		 add	 eax, DWORD PTR _lineWidth$1$[ebp]
  0053c	3b c6		 cmp	 eax, esi
  0053e	0f 8c 86 03 00
	00		 jl	 $LN3@PointInLin
  00544	8b 8d 78 ff ff
	ff		 mov	 ecx, DWORD PTR _dataPt$[ebp+4]
  0054a	e9 bb 07 00 00	 jmp	 $LN132@PointInLin
$LN31@PointInLin:

; 639  : 				return dataIndex;
; 640  : 			else
; 641  : 				return -1;
; 642  : 		}
; 643  : 
; 644  : 		if(dataPos == NULL)

  0054f	8b 75 94	 mov	 esi, DWORD PTR _dataPos$2$[ebp]
  00552	85 f6		 test	 esi, esi
  00554	0f 84 70 03 00
	00		 je	 $LN3@PointInLin

; 645  : 			return -1;
; 646  : 		tempData = pPacket1->GetnumericDataList()->GetNext(dataPos);

  0055a	8b 8d 68 ff ff
	ff		 mov	 ecx, DWORD PTR _pPacket1$1$[ebp]
  00560	ff 15 00 00 00
	00		 call	 DWORD PTR __imp_?GetnumericDataList@CPacket@@QAEPAV?$CList@NN@@XZ

; 647  : 		
; 648  : 		if(checkCloudLine){

  00566	80 7d 9b 00	 cmp	 BYTE PTR _checkCloudLine$1$[ebp], 0
  0056a	f2 0f 10 46 08	 movsd	 xmm0, QWORD PTR [esi+8]
  0056f	f2 0f 11 85 5c
	ff ff ff	 movsd	 QWORD PTR _tempData$1$[ebp], xmm0
  00577	74 27		 je	 SHORT $LN35@PointInLin

; 649  : 			if(dataPos2 == NULL)

  00579	8b b5 48 ff ff
	ff		 mov	 esi, DWORD PTR _dataPos2$1$[ebp]
  0057f	85 f6		 test	 esi, esi
  00581	0f 84 43 03 00
	00		 je	 $LN3@PointInLin

; 650  : 				return -1;
; 651  : 			else
; 652  : 				tempData2 = pPacket2->GetnumericDataList()->GetNext(dataPos2);

  00587	8b 8d 44 ff ff
	ff		 mov	 ecx, DWORD PTR _pPacket2$1$[ebp]
  0058d	ff 15 00 00 00
	00		 call	 DWORD PTR __imp_?GetnumericDataList@CPacket@@QAEPAV?$CList@NN@@XZ
  00593	f2 0f 10 46 08	 movsd	 xmm0, QWORD PTR [esi+8]
  00598	f2 0f 11 85 7c
	ff ff ff	 movsd	 QWORD PTR _tempData2$1$[ebp], xmm0
$LN35@PointInLin:

; 653  : 		}
; 654  : 
; 655  : 		// NonZeroLine 
; 656  : 		if(pSelectSubGraphData->GetSubGraphStyle().GetGraphBarStyle() == CGraphBaseData::NonZeroLine){

  005a0	8d 45 90	 lea	 eax, DWORD PTR $T23[ebp]
  005a3	8b cf		 mov	 ecx, edi
  005a5	50		 push	 eax
  005a6	e8 00 00 00 00	 call	 ?GetSubGraphStyle@CSelectSubGraphData@@QBE?AVCGraphStyle@@XZ ; CSelectSubGraphData::GetSubGraphStyle
  005ab	f2 0f 10 8d 5c
	ff ff ff	 movsd	 xmm1, QWORD PTR _tempData$1$[ebp]
  005b3	83 38 05	 cmp	 DWORD PTR [eax], 5
  005b6	75 11		 jne	 SHORT $LN37@PointInLin

; 657  : 			if(tempData == 0)

  005b8	0f 57 c0	 xorps	 xmm0, xmm0
  005bb	66 0f 2e c8	 ucomisd xmm1, xmm0
  005bf	9f		 lahf
  005c0	f6 c4 44	 test	 ah, 68			; 00000044H
  005c3	0f 8b 01 03 00
	00		 jnp	 $LN3@PointInLin
$LN37@PointInLin:

; 658  : 				return -1;
; 659  : 		}
; 660  : 		CPoint tempDataPt = CDataConversion::GetVerticalPoint(graphRegion, nIndex+1, realWidth, dataViewMin, dataViewMax, CDraw::CalLogValue(pSelectSubGraphData->GetVertScaleLogType(), tempData));

  005c9	83 ec 08	 sub	 esp, 8
  005cc	8b cf		 mov	 ecx, edi
  005ce	f2 0f 11 0c 24	 movsd	 QWORD PTR [esp], xmm1
  005d3	e8 00 00 00 00	 call	 ?GetVertScaleLogType@CSelectSubGraphData@@QBE_NXZ ; CSelectSubGraphData::GetVertScaleLogType
  005d8	8b b5 4c ff ff
	ff		 mov	 esi, DWORD PTR _this$GSCopy$1$[ebp]
  005de	8b ce		 mov	 ecx, esi
  005e0	0f b6 c0	 movzx	 eax, al
  005e3	50		 push	 eax
  005e4	e8 00 00 00 00	 call	 ?CalLogValue@CDraw@@IAEN_NN@Z ; CDraw::CalLogValue
  005e9	8b 45 88	 mov	 eax, DWORD PTR _nIndex$1$[ebp]
  005ec	8d 4d 8c	 lea	 ecx, DWORD PTR $T19[ebp]
  005ef	6a 01		 push	 1
  005f1	51		 push	 ecx
  005f2	8d 8d 14 ff ff
	ff		 lea	 ecx, DWORD PTR _dataViewMax$[ebp]
  005f8	40		 inc	 eax
  005f9	51		 push	 ecx
  005fa	8d 8d 0c ff ff
	ff		 lea	 ecx, DWORD PTR _dataViewMin$[ebp]
  00600	51		 push	 ecx
  00601	8d 8d 34 ff ff
	ff		 lea	 ecx, DWORD PTR _realWidth$[ebp]
  00607	51		 push	 ecx
  00608	50		 push	 eax
  00609	8d 45 e0	 lea	 eax, DWORD PTR _graphRegion$[ebp]
  0060c	50		 push	 eax
  0060d	8d 85 2c ff ff
	ff		 lea	 eax, DWORD PTR _tempDataPt$6[ebp]
  00613	50		 push	 eax
  00614	dd 5d 8c	 fstp	 QWORD PTR $T19[ebp]
  00617	e8 00 00 00 00	 call	 ?GetVerticalPoint@CDataConversion@@SA?AVCPoint@@ABVCRect@@HABN111_N@Z ; CDataConversion::GetVerticalPoint

; 661  : 		CPoint tempDataPt2 = tempDataPt;

  0061c	8b 85 2c ff ff
	ff		 mov	 eax, DWORD PTR _tempDataPt$6[ebp]
  00622	83 c4 20	 add	 esp, 32			; 00000020H

; 662  : 		if(checkCloudLine)

  00625	80 7d 9b 00	 cmp	 BYTE PTR _checkCloudLine$1$[ebp], 0
  00629	8b 95 30 ff ff
	ff		 mov	 edx, DWORD PTR _tempDataPt$6[ebp+4]
  0062f	89 55 94	 mov	 DWORD PTR _tempDataPt2$2$[ebp], edx
  00632	89 85 5c ff ff
	ff		 mov	 DWORD PTR _tempDataPt2$9[ebp], eax
  00638	74 69		 je	 SHORT $LN38@PointInLin

; 663  : 			tempDataPt2 = CDataConversion::GetVerticalPoint(graphRegion, nIndex+1, realWidth, dataViewMin, dataViewMax, CDraw::CalLogValue(pSelectSubGraphData->GetVertScaleLogType(), tempData2));

  0063a	f2 0f 10 85 7c
	ff ff ff	 movsd	 xmm0, QWORD PTR _tempData2$1$[ebp]
  00642	83 ec 08	 sub	 esp, 8
  00645	8b cf		 mov	 ecx, edi
  00647	f2 0f 11 04 24	 movsd	 QWORD PTR [esp], xmm0
  0064c	e8 00 00 00 00	 call	 ?GetVertScaleLogType@CSelectSubGraphData@@QBE_NXZ ; CSelectSubGraphData::GetVertScaleLogType
  00651	0f b6 c0	 movzx	 eax, al
  00654	8b ce		 mov	 ecx, esi
  00656	50		 push	 eax
  00657	e8 00 00 00 00	 call	 ?CalLogValue@CDraw@@IAEN_NN@Z ; CDraw::CalLogValue
  0065c	6a 01		 push	 1
  0065e	8d 85 7c ff ff
	ff		 lea	 eax, DWORD PTR $T11[ebp]
  00664	50		 push	 eax
  00665	8d 85 14 ff ff
	ff		 lea	 eax, DWORD PTR _dataViewMax$[ebp]
  0066b	50		 push	 eax
  0066c	8d 85 0c ff ff
	ff		 lea	 eax, DWORD PTR _dataViewMin$[ebp]
  00672	50		 push	 eax
  00673	8d 85 34 ff ff
	ff		 lea	 eax, DWORD PTR _realWidth$[ebp]
  00679	50		 push	 eax
  0067a	8b 45 88	 mov	 eax, DWORD PTR _nIndex$1$[ebp]
  0067d	40		 inc	 eax
  0067e	50		 push	 eax
  0067f	8d 45 e0	 lea	 eax, DWORD PTR _graphRegion$[ebp]
  00682	50		 push	 eax
  00683	8d 45 8c	 lea	 eax, DWORD PTR $T18[ebp]
  00686	50		 push	 eax
  00687	dd 9d 7c ff ff
	ff		 fstp	 QWORD PTR $T11[ebp]
  0068d	e8 00 00 00 00	 call	 ?GetVerticalPoint@CDataConversion@@SA?AVCPoint@@ABVCRect@@HABN111_N@Z ; CDataConversion::GetVerticalPoint
  00692	83 c4 20	 add	 esp, 32			; 00000020H
  00695	8b 08		 mov	 ecx, DWORD PTR [eax]
  00697	8b 50 04	 mov	 edx, DWORD PTR [eax+4]
  0069a	89 55 94	 mov	 DWORD PTR _tempDataPt2$2$[ebp], edx
  0069d	89 8d 5c ff ff
	ff		 mov	 DWORD PTR _tempDataPt2$9[ebp], ecx
$LN38@PointInLin:

; 664  : 		
; 665  : 		//{{XScale
; 666  : 		pSelectSubGraphData->GetXScaleManager()->GetAREAfRQnDTI(pSelectSubGraphData->GetRQ(), dataIndex+1, nCol, &area);

  006a3	8b cf		 mov	 ecx, edi
  006a5	e8 00 00 00 00	 call	 ?GetXScaleManager@CSelectSubGraphData@@QBEPAVCXScaleManager@@XZ ; CSelectSubGraphData::GetXScaleManager
  006aa	8b 8d 64 ff ff
	ff		 mov	 ecx, DWORD PTR _dataIndex$[ebp]
  006b0	8b f0		 mov	 esi, eax
  006b2	8d 85 54 ff ff
	ff		 lea	 eax, DWORD PTR _area$[ebp]
  006b8	41		 inc	 ecx
  006b9	50		 push	 eax
  006ba	ff 75 84	 push	 DWORD PTR _nCol$[ebp]
  006bd	51		 push	 ecx
  006be	51		 push	 ecx
  006bf	54		 push	 esp
  006c0	8b cf		 mov	 ecx, edi
  006c2	e8 00 00 00 00	 call	 ?GetRQ@CSelectSubGraphData@@QBE?AV?$CStringT@DV?$StrTraitMFC_DLL@DV?$ChTraitsCRT@D@ATL@@@@@ATL@@XZ ; CSelectSubGraphData::GetRQ
  006c7	8b 06		 mov	 eax, DWORD PTR [esi]
  006c9	8b ce		 mov	 ecx, esi
  006cb	ff 90 d0 00 00
	00		 call	 DWORD PTR [eax+208]

; 667  : 		tempDataPt.x = tempDataPt2.x = area.center;

  006d1	0f bf 85 56 ff
	ff ff		 movsx	 eax, WORD PTR _area$[ebp+2]
  006d8	89 45 88	 mov	 DWORD PTR _tempDataPt2$1$[ebp], eax
  006db	89 85 2c ff ff
	ff		 mov	 DWORD PTR _tempDataPt$6[ebp], eax

; 668  : 		if(dataPt.x == tempDataPt.x)

  006e1	39 85 74 ff ff
	ff		 cmp	 DWORD PTR _dataPt$[ebp], eax
  006e7	0f 84 dd 01 00
	00		 je	 $LN3@PointInLin

; 669  : 			return -1;
; 670  : 		//}}
; 671  : 		//StairLine
; 672  : 		if(pSelectSubGraphData->GetSubGraphStyle().GetGraphBarStyle() == CGraphBaseData::StairLine){

  006ed	8d 45 90	 lea	 eax, DWORD PTR $T22[ebp]
  006f0	8b cf		 mov	 ecx, edi
  006f2	50		 push	 eax
  006f3	e8 00 00 00 00	 call	 ?GetSubGraphStyle@CSelectSubGraphData@@QBE?AVCGraphStyle@@XZ ; CSelectSubGraphData::GetSubGraphStyle
  006f8	8b bd 78 ff ff
	ff		 mov	 edi, DWORD PTR _dataPt$[ebp+4]
  006fe	8b 95 74 ff ff
	ff		 mov	 edx, DWORD PTR _dataPt$[ebp]
  00704	8b 8d 30 ff ff
	ff		 mov	 ecx, DWORD PTR _tempDataPt$6[ebp+4]
  0070a	83 38 04	 cmp	 DWORD PTR [eax], 4
  0070d	0f 85 d9 00 00
	00		 jne	 $LN124@PointInLin

; 673  : 			if(packet1InIndex == true && dataPt.x + lineWidth/2 >= mousePoint.x && mousePoint.y <= dataPt.y + nUnit && mousePoint.y >= dataPt.y - nUnit)

  00713	83 bd 6c ff ff
	ff 00		 cmp	 DWORD PTR tv1981[ebp], 0
  0071a	0f 84 aa 01 00
	00		 je	 $LN3@PointInLin
  00720	8b 85 40 ff ff
	ff		 mov	 eax, DWORD PTR _lineWidth$1$[ebp]
  00726	8b b5 3c ff ff
	ff		 mov	 esi, DWORD PTR _mousePoint$2$[ebp]
  0072c	99		 cdq
  0072d	2b c2		 sub	 eax, edx
  0072f	8b 95 74 ff ff
	ff		 mov	 edx, DWORD PTR _dataPt$[ebp]
  00735	d1 f8		 sar	 eax, 1
  00737	03 c2		 add	 eax, edx
  00739	3b c6		 cmp	 eax, esi
  0073b	7c 12		 jl	 SHORT $LN41@PointInLin
  0073d	8d 47 08	 lea	 eax, DWORD PTR [edi+8]
  00740	3b d8		 cmp	 ebx, eax
  00742	7f 0b		 jg	 SHORT $LN41@PointInLin
  00744	8d 47 f8	 lea	 eax, DWORD PTR [edi-8]
  00747	3b d8		 cmp	 ebx, eax
  00749	0f 8d d1 05 00
	00		 jge	 $LN120@PointInLin
$LN41@PointInLin:

; 674  : 				return dataIndex;
; 675  : 			
; 676  : 			else if(packet1InIndex == true && mousePoint.x <= dataPt.x + realWidth/2 + nUnit && mousePoint.x >= dataPt.x + realWidth/2 - nUnit && tempDataPt.y > dataPt.y){

  0074f	f2 0f 10 8d 34
	ff ff ff	 movsd	 xmm1, QWORD PTR _realWidth$[ebp]
  00757	f2 0f 59 0d 00
	00 00 00	 mulsd	 xmm1, QWORD PTR __real@3fe0000000000000
  0075f	f2 0f 10 25 00
	00 00 00	 movsd	 xmm4, QWORD PTR __real@4020000000000000
  00767	66 0f 6e c2	 movd	 xmm0, edx
  0076b	f3 0f e6 c0	 cvtdq2pd xmm0, xmm0
  0076f	66 0f 6e d6	 movd	 xmm2, esi
  00773	f2 0f 58 c8	 addsd	 xmm1, xmm0
  00777	f3 0f e6 d2	 cvtdq2pd xmm2, xmm2
  0077b	0f 28 d9	 movaps	 xmm3, xmm1
  0077e	f2 0f 58 dc	 addsd	 xmm3, xmm4
  00782	66 0f 2f da	 comisd	 xmm3, xmm2
  00786	0f 82 3e 01 00
	00		 jb	 $LN3@PointInLin
  0078c	0f 28 c1	 movaps	 xmm0, xmm1
  0078f	f2 0f 5c c4	 subsd	 xmm0, xmm4
  00793	66 0f 2f d0	 comisd	 xmm2, xmm0
  00797	72 1e		 jb	 SHORT $LN43@PointInLin
  00799	3b cf		 cmp	 ecx, edi
  0079b	7e 1a		 jle	 SHORT $LN43@PointInLin

; 677  : 				if(point.y <= tempDataPt.y && mousePoint.y >= dataPt.y)

  0079d	8b 85 70 ff ff
	ff		 mov	 eax, DWORD PTR _point$GSCopy$1$[ebp]
  007a3	39 48 04	 cmp	 DWORD PTR [eax+4], ecx
  007a6	7f 4a		 jg	 SHORT $LN47@PointInLin
  007a8	3b df		 cmp	 ebx, edi
  007aa	7c 46		 jl	 SHORT $LN47@PointInLin

; 795  : 		return dataIndex;

  007ac	8b 85 64 ff ff
	ff		 mov	 eax, DWORD PTR _dataIndex$[ebp]
  007b2	e9 16 01 00 00	 jmp	 $LN1@PointInLin
$LN43@PointInLin:

; 678  : 					return dataIndex;
; 679  : 			}
; 680  : 			else if(packet1InIndex == true && mousePoint.x <= dataPt.x + realWidth/2 + nUnit && mousePoint.x >= dataPt.x + realWidth/2 - nUnit && tempDataPt.y < dataPt.y){

  007b7	66 0f 2f da	 comisd	 xmm3, xmm2
  007bb	0f 82 09 01 00
	00		 jb	 $LN3@PointInLin
  007c1	f2 0f 5c cc	 subsd	 xmm1, xmm4
  007c5	66 0f 2f d1	 comisd	 xmm2, xmm1
  007c9	0f 82 fb 00 00
	00		 jb	 $LN3@PointInLin
  007cf	3b cf		 cmp	 ecx, edi
  007d1	0f 8d f3 00 00
	00		 jge	 $LN3@PointInLin

; 681  : 				if(point.y >= tempDataPt.y && mousePoint.y <= dataPt.y)

  007d7	8b 85 70 ff ff
	ff		 mov	 eax, DWORD PTR _point$GSCopy$1$[ebp]
  007dd	39 48 04	 cmp	 DWORD PTR [eax+4], ecx
  007e0	7c 10		 jl	 SHORT $LN47@PointInLin
  007e2	3b df		 cmp	 ebx, edi
  007e4	0f 8e 36 05 00
	00		 jle	 $LN120@PointInLin

; 669  : 			return -1;
; 670  : 		//}}
; 671  : 		//StairLine
; 672  : 		if(pSelectSubGraphData->GetSubGraphStyle().GetGraphBarStyle() == CGraphBaseData::StairLine){

  007ea	eb 06		 jmp	 SHORT $LN47@PointInLin
$LN124@PointInLin:
  007ec	8b b5 3c ff ff
	ff		 mov	 esi, DWORD PTR _mousePoint$2$[ebp]
$LN47@PointInLin:

; 682  : 					return dataIndex;
; 683  : 			}
; 684  : 			else
; 685  : 				return -1;
; 686  : 		}
; 687  : 		
; 688  : 		//realPointY = (tempDataPt.y - dataPt.y) * (mousePoint.x - dataPt.x) / (tempDataPt.x - dataPt.x) + dataPt.y;
; 689  : 		if(tempDataPt.y > dataPt.y)

  007f2	3b cf		 cmp	 ecx, edi
  007f4	7e 27		 jle	 SHORT $LN49@PointInLin

; 690  : 			realPointY = (tempDataPt.y - dataPt.y) * (mousePoint.x - dataPt.x) / (tempDataPt.x - dataPt.x) + dataPt.y;

  007f6	2b cf		 sub	 ecx, edi
  007f8	89 8d 24 ff ff
	ff		 mov	 DWORD PTR _tempDataPt$1$[ebp], ecx
  007fe	8b ce		 mov	 ecx, esi
  00800	8b 85 24 ff ff
	ff		 mov	 eax, DWORD PTR _tempDataPt$1$[ebp]
  00806	2b ca		 sub	 ecx, edx
  00808	0f af c1	 imul	 eax, ecx
  0080b	8b 8d 2c ff ff
	ff		 mov	 ecx, DWORD PTR _tempDataPt$6[ebp]
  00811	2b ca		 sub	 ecx, edx
  00813	99		 cdq
  00814	f7 f9		 idiv	 ecx
  00816	03 c7		 add	 eax, edi
  00818	89 45 84	 mov	 DWORD PTR _realPointY$1$[ebp], eax
  0081b	eb 1d		 jmp	 SHORT $LN50@PointInLin
$LN49@PointInLin:

; 691  : 		else
; 692  : 			realPointY = dataPt.y - (dataPt.y - tempDataPt.y) * (mousePoint.x - dataPt.x) / (tempDataPt.x - dataPt.x);

  0081d	8b c7		 mov	 eax, edi
  0081f	2b c1		 sub	 eax, ecx
  00821	8b ce		 mov	 ecx, esi
  00823	2b ca		 sub	 ecx, edx
  00825	0f af c1	 imul	 eax, ecx
  00828	8b 8d 2c ff ff
	ff		 mov	 ecx, DWORD PTR _tempDataPt$6[ebp]
  0082e	2b ca		 sub	 ecx, edx
  00830	99		 cdq
  00831	f7 f9		 idiv	 ecx
  00833	8b cf		 mov	 ecx, edi
  00835	2b c8		 sub	 ecx, eax
  00837	89 4d 84	 mov	 DWORD PTR _realPointY$1$[ebp], ecx
$LN50@PointInLin:

; 693  : 
; 694  : 		if(checkCloudLine){

  0083a	8a 55 9b	 mov	 dl, BYTE PTR _checkCloudLine$1$[ebp]
  0083d	84 d2		 test	 dl, dl
  0083f	74 4a		 je	 SHORT $LN126@PointInLin

; 695  : 			//realPointY2 = (tempDataPt2.y - dataPt2.y) * (mousePoint.x - dataPt2.x) / (tempDataPt2.x - dataPt2.x) + dataPt2.y;
; 696  : 			if(tempDataPt2.y > dataPt2.y)

  00841	8b bd 08 ff ff
	ff		 mov	 edi, DWORD PTR _dataPt2$2$[ebp]
  00847	8b 55 94	 mov	 edx, DWORD PTR _tempDataPt2$2$[ebp]
  0084a	2b b5 50 ff ff
	ff		 sub	 esi, DWORD PTR _dataPt2$1$[ebp]
  00850	3b d7		 cmp	 edx, edi
  00852	7e 1b		 jle	 SHORT $LN52@PointInLin

; 697  : 				realPointY2 = (tempDataPt2.y - dataPt2.y) * (mousePoint.x - dataPt2.x) / (tempDataPt2.x - dataPt2.x) + dataPt2.y;

  00854	2b d7		 sub	 edx, edi
  00856	0f af d6	 imul	 edx, esi
  00859	8b 75 88	 mov	 esi, DWORD PTR _tempDataPt2$1$[ebp]
  0085c	2b b5 50 ff ff
	ff		 sub	 esi, DWORD PTR _dataPt2$1$[ebp]
  00862	8b c2		 mov	 eax, edx
  00864	99		 cdq
  00865	f7 fe		 idiv	 esi
  00867	8a 55 9b	 mov	 dl, BYTE PTR _checkCloudLine$1$[ebp]
  0086a	8d 0c 07	 lea	 ecx, DWORD PTR [edi+eax]
  0086d	eb 1e		 jmp	 SHORT $LN53@PointInLin
$LN52@PointInLin:

; 698  : 			else
; 699  : 				realPointY2 = dataPt2.y - (dataPt2.y - tempDataPt2.y) * (mousePoint.x - dataPt2.x) / (tempDataPt2.x - dataPt2.x);

  0086f	8b c7		 mov	 eax, edi
  00871	8b cf		 mov	 ecx, edi
  00873	2b c2		 sub	 eax, edx
  00875	0f af c6	 imul	 eax, esi
  00878	8b 75 88	 mov	 esi, DWORD PTR _tempDataPt2$1$[ebp]
  0087b	2b b5 50 ff ff
	ff		 sub	 esi, DWORD PTR _dataPt2$1$[ebp]
  00881	99		 cdq
  00882	f7 fe		 idiv	 esi
  00884	8a 55 9b	 mov	 dl, BYTE PTR _checkCloudLine$1$[ebp]
  00887	2b c8		 sub	 ecx, eax
  00889	eb 02		 jmp	 SHORT $LN53@PointInLin
$LN126@PointInLin:

; 693  : 
; 694  : 		if(checkCloudLine){

  0088b	33 c9		 xor	 ecx, ecx
$LN53@PointInLin:

; 700  : 		}
; 701  : 			
; 702  : 
; 703  : 		if(packet1InIndex == true && realPointY >= mousePoint.y - nUnit && realPointY <= mousePoint.y + nUnit)

  0088d	83 bd 6c ff ff
	ff 00		 cmp	 DWORD PTR tv1981[ebp], 0
  00894	74 15		 je	 SHORT $LN54@PointInLin
  00896	8b 75 84	 mov	 esi, DWORD PTR _realPointY$1$[ebp]
  00899	8d 43 f8	 lea	 eax, DWORD PTR [ebx-8]
  0089c	3b f0		 cmp	 esi, eax
  0089e	7c 0b		 jl	 SHORT $LN54@PointInLin
  008a0	8d 43 08	 lea	 eax, DWORD PTR [ebx+8]
  008a3	3b f0		 cmp	 esi, eax
  008a5	0f 8e 75 04 00
	00		 jle	 $LN120@PointInLin
$LN54@PointInLin:

; 704  : 			return dataIndex;
; 705  : 		if(checkCloudLine){

  008ab	84 d2		 test	 dl, dl
  008ad	74 1b		 je	 SHORT $LN3@PointInLin

; 706  : 			if(packet2InIndex == true && realPointY2 >= mousePoint.y - nUnit && realPointY2 <= mousePoint.y + nUnit)

  008af	83 bd 20 ff ff
	ff 00		 cmp	 DWORD PTR tv1967[ebp], 0
  008b6	74 12		 je	 SHORT $LN3@PointInLin
  008b8	8d 43 f8	 lea	 eax, DWORD PTR [ebx-8]
  008bb	3b c8		 cmp	 ecx, eax
  008bd	7c 0b		 jl	 SHORT $LN3@PointInLin
  008bf	8d 43 08	 lea	 eax, DWORD PTR [ebx+8]
  008c2	3b c8		 cmp	 ecx, eax
  008c4	0f 8e 56 04 00
	00		 jle	 $LN120@PointInLin
$LN3@PointInLin:

; 516  : 		return -1;

  008ca	83 c8 ff	 or	 eax, -1
$LN1@PointInLin:

; 796  : 
; 797  : 	return -1;
; 798  : }

  008cd	8b 4d f4	 mov	 ecx, DWORD PTR __$EHRec$[ebp]
  008d0	64 89 0d 00 00
	00 00		 mov	 DWORD PTR fs:0, ecx
  008d7	59		 pop	 ecx
  008d8	5f		 pop	 edi
  008d9	5e		 pop	 esi
  008da	5b		 pop	 ebx
  008db	8b 4d f0	 mov	 ecx, DWORD PTR __$ArrayPad$[ebp]
  008de	33 cd		 xor	 ecx, ebp
  008e0	e8 00 00 00 00	 call	 @__security_check_cookie@4
  008e5	8b e5		 mov	 esp, ebp
  008e7	5d		 pop	 ebp
  008e8	c2 08 00	 ret	 8
$LN27@PointInLin:

; 707  : 				return dataIndex;
; 708  : 		}
; 709  : 
; 710  : 	}
; 711  : 	else if(dataPt.x > mousePoint.x){

  008eb	3b c6		 cmp	 eax, esi
  008ed	0f 8e d8 03 00
	00		 jle	 $LN57@PointInLin

; 712  : 		// line  
; 713  : 		if(pSelectSubGraphData->GetSubGraphStyle().GetGraphBarStyle() == CGraphBaseData::HorizontalLine){

  008f3	8d 45 90	 lea	 eax, DWORD PTR $T21[ebp]
  008f6	8b cf		 mov	 ecx, edi
  008f8	50		 push	 eax
  008f9	e8 00 00 00 00	 call	 ?GetSubGraphStyle@CSelectSubGraphData@@QBE?AVCGraphStyle@@XZ ; CSelectSubGraphData::GetSubGraphStyle
  008fe	83 38 03	 cmp	 DWORD PTR [eax], 3
  00901	75 24		 jne	 SHORT $LN61@PointInLin

; 714  : 			if(packet1InIndex == true && dataPt.x - lineWidth <= mousePoint.x && mousePoint.y <= dataPt.y + nUnit && mousePoint.y >= dataPt.y - nUnit)

  00903	83 bd 6c ff ff
	ff 00		 cmp	 DWORD PTR tv1981[ebp], 0
  0090a	74 be		 je	 SHORT $LN3@PointInLin
  0090c	8b 85 74 ff ff
	ff		 mov	 eax, DWORD PTR _dataPt$[ebp]
  00912	2b 85 40 ff ff
	ff		 sub	 eax, DWORD PTR _lineWidth$1$[ebp]
  00918	3b c6		 cmp	 eax, esi
  0091a	7f ae		 jg	 SHORT $LN3@PointInLin
  0091c	8b 8d 78 ff ff
	ff		 mov	 ecx, DWORD PTR _dataPt$[ebp+4]
  00922	e9 e3 03 00 00	 jmp	 $LN132@PointInLin
$LN61@PointInLin:

; 715  : 				return dataIndex;
; 716  : 			else
; 717  : 				return -1;
; 718  : 		}
; 719  : 
; 720  : 		if(dataIndex -1 < 0)

  00927	8b 85 64 ff ff
	ff		 mov	 eax, DWORD PTR _dataIndex$[ebp]
  0092d	83 c0 ff	 add	 eax, -1
  00930	78 98		 js	 SHORT $LN3@PointInLin

; 721  : 			return -1;
; 722  : 		dataPos = pPacket1->GetnumericDataList()->FindIndex(dataIndex -1);

  00932	8b 8d 68 ff ff
	ff		 mov	 ecx, DWORD PTR _pPacket1$1$[ebp]
  00938	8b 35 00 00 00
	00		 mov	 esi, DWORD PTR __imp_?GetnumericDataList@CPacket@@QAEPAV?$CList@NN@@XZ
  0093e	50		 push	 eax
  0093f	ff d6		 call	 esi
  00941	8b c8		 mov	 ecx, eax
  00943	e8 00 00 00 00	 call	 ?FindIndex@?$CList@NN@@QBEPAU__POSITION@@H@Z ; CList<double,double>::FindIndex
  00948	89 85 20 ff ff
	ff		 mov	 DWORD PTR _dataPos$3$[ebp], eax

; 723  : 		if(dataPos == NULL)

  0094e	85 c0		 test	 eax, eax
  00950	0f 84 74 ff ff
	ff		 je	 $LN3@PointInLin

; 724  : 			return -1;
; 725  : 		tempData = pPacket1->GetnumericDataList()->GetNext(dataPos);

  00956	8b 8d 68 ff ff
	ff		 mov	 ecx, DWORD PTR _pPacket1$1$[ebp]
  0095c	ff d6		 call	 esi

; 726  : 		if(checkCloudLine){

  0095e	80 7d 9b 00	 cmp	 BYTE PTR _checkCloudLine$1$[ebp], 0
  00962	8b 85 20 ff ff
	ff		 mov	 eax, DWORD PTR _dataPos$3$[ebp]
  00968	f2 0f 10 40 08	 movsd	 xmm0, QWORD PTR [eax+8]
  0096d	f2 0f 11 85 1c
	ff ff ff	 movsd	 QWORD PTR _tempData$2$[ebp], xmm0
  00975	74 27		 je	 SHORT $LN66@PointInLin

; 727  : 			if(dataPos2 == NULL)

  00977	8b b5 48 ff ff
	ff		 mov	 esi, DWORD PTR _dataPos2$1$[ebp]
  0097d	85 f6		 test	 esi, esi
  0097f	0f 84 45 ff ff
	ff		 je	 $LN3@PointInLin

; 728  : 				return -1;
; 729  : 			else
; 730  : 				tempData2 = pPacket2->GetnumericDataList()->GetNext(dataPos2);

  00985	8b 8d 44 ff ff
	ff		 mov	 ecx, DWORD PTR _pPacket2$1$[ebp]
  0098b	ff 15 00 00 00
	00		 call	 DWORD PTR __imp_?GetnumericDataList@CPacket@@QAEPAV?$CList@NN@@XZ
  00991	f2 0f 10 46 08	 movsd	 xmm0, QWORD PTR [esi+8]
  00996	f2 0f 11 85 7c
	ff ff ff	 movsd	 QWORD PTR _tempData2$1$[ebp], xmm0
$LN66@PointInLin:

; 731  : 		}
; 732  : 
; 733  : 		// NonZeroLine 
; 734  : 		if(pSelectSubGraphData->GetSubGraphStyle().GetGraphBarStyle() == CGraphBaseData::NonZeroLine){

  0099e	8d 45 90	 lea	 eax, DWORD PTR $T20[ebp]
  009a1	8b cf		 mov	 ecx, edi
  009a3	50		 push	 eax
  009a4	e8 00 00 00 00	 call	 ?GetSubGraphStyle@CSelectSubGraphData@@QBE?AVCGraphStyle@@XZ ; CSelectSubGraphData::GetSubGraphStyle
  009a9	f2 0f 10 8d 1c
	ff ff ff	 movsd	 xmm1, QWORD PTR _tempData$2$[ebp]
  009b1	83 38 05	 cmp	 DWORD PTR [eax], 5
  009b4	75 11		 jne	 SHORT $LN68@PointInLin

; 735  : 			if(tempData == 0)

  009b6	0f 57 c0	 xorps	 xmm0, xmm0
  009b9	66 0f 2e c8	 ucomisd xmm1, xmm0
  009bd	9f		 lahf
  009be	f6 c4 44	 test	 ah, 68			; 00000044H
  009c1	0f 8b 03 ff ff
	ff		 jnp	 $LN3@PointInLin
$LN68@PointInLin:

; 736  : 				return -1;
; 737  : 		}
; 738  : 
; 739  : 		CPoint tempDataPt = CDataConversion::GetVerticalPoint(graphRegion, nIndex-1, realWidth, dataViewMin, dataViewMax, CDraw::CalLogValue(pSelectSubGraphData->GetVertScaleLogType(), tempData));

  009c7	83 ec 08	 sub	 esp, 8
  009ca	8b cf		 mov	 ecx, edi
  009cc	f2 0f 11 0c 24	 movsd	 QWORD PTR [esp], xmm1
  009d1	e8 00 00 00 00	 call	 ?GetVertScaleLogType@CSelectSubGraphData@@QBE_NXZ ; CSelectSubGraphData::GetVertScaleLogType
  009d6	8b b5 4c ff ff
	ff		 mov	 esi, DWORD PTR _this$GSCopy$1$[ebp]
  009dc	8b ce		 mov	 ecx, esi
  009de	0f b6 c0	 movzx	 eax, al
  009e1	50		 push	 eax
  009e2	e8 00 00 00 00	 call	 ?CalLogValue@CDraw@@IAEN_NN@Z ; CDraw::CalLogValue
  009e7	8b 45 88	 mov	 eax, DWORD PTR _nIndex$1$[ebp]
  009ea	8d 4d 8c	 lea	 ecx, DWORD PTR $T17[ebp]
  009ed	6a 01		 push	 1
  009ef	51		 push	 ecx
  009f0	8d 8d 14 ff ff
	ff		 lea	 ecx, DWORD PTR _dataViewMax$[ebp]
  009f6	48		 dec	 eax
  009f7	51		 push	 ecx
  009f8	8d 8d 0c ff ff
	ff		 lea	 ecx, DWORD PTR _dataViewMin$[ebp]
  009fe	51		 push	 ecx
  009ff	8d 8d 34 ff ff
	ff		 lea	 ecx, DWORD PTR _realWidth$[ebp]
  00a05	51		 push	 ecx
  00a06	50		 push	 eax
  00a07	8d 45 e0	 lea	 eax, DWORD PTR _graphRegion$[ebp]
  00a0a	50		 push	 eax
  00a0b	8d 85 5c ff ff
	ff		 lea	 eax, DWORD PTR _tempDataPt$8[ebp]
  00a11	50		 push	 eax
  00a12	dd 5d 8c	 fstp	 QWORD PTR $T17[ebp]
  00a15	e8 00 00 00 00	 call	 ?GetVerticalPoint@CDataConversion@@SA?AVCPoint@@ABVCRect@@HABN111_N@Z ; CDataConversion::GetVerticalPoint

; 740  : 		CPoint tempDataPt2 = tempDataPt;

  00a1a	8b 85 5c ff ff
	ff		 mov	 eax, DWORD PTR _tempDataPt$8[ebp]
  00a20	83 c4 20	 add	 esp, 32			; 00000020H

; 741  : 		if(checkCloudLine)

  00a23	80 7d 9b 00	 cmp	 BYTE PTR _checkCloudLine$1$[ebp], 0
  00a27	8b 95 60 ff ff
	ff		 mov	 edx, DWORD PTR _tempDataPt$8[ebp+4]
  00a2d	89 55 94	 mov	 DWORD PTR _tempDataPt2$2$[ebp], edx
  00a30	89 45 8c	 mov	 DWORD PTR _tempDataPt2$16[ebp], eax
  00a33	74 61		 je	 SHORT $LN69@PointInLin

; 742  : 			tempDataPt2 = CDataConversion::GetVerticalPoint(graphRegion, nIndex-1, realWidth, dataViewMin, dataViewMax, CDraw::CalLogValue(pSelectSubGraphData->GetVertScaleLogType(), tempData2));

  00a35	f2 0f 10 85 7c
	ff ff ff	 movsd	 xmm0, QWORD PTR _tempData2$1$[ebp]
  00a3d	83 ec 08	 sub	 esp, 8
  00a40	8b cf		 mov	 ecx, edi
  00a42	f2 0f 11 04 24	 movsd	 QWORD PTR [esp], xmm0
  00a47	e8 00 00 00 00	 call	 ?GetVertScaleLogType@CSelectSubGraphData@@QBE_NXZ ; CSelectSubGraphData::GetVertScaleLogType
  00a4c	0f b6 c0	 movzx	 eax, al
  00a4f	8b ce		 mov	 ecx, esi
  00a51	50		 push	 eax
  00a52	e8 00 00 00 00	 call	 ?CalLogValue@CDraw@@IAEN_NN@Z ; CDraw::CalLogValue
  00a57	6a 01		 push	 1
  00a59	8d 85 7c ff ff
	ff		 lea	 eax, DWORD PTR $T10[ebp]
  00a5f	50		 push	 eax
  00a60	8d 85 14 ff ff
	ff		 lea	 eax, DWORD PTR _dataViewMax$[ebp]
  00a66	50		 push	 eax
  00a67	8d 85 0c ff ff
	ff		 lea	 eax, DWORD PTR _dataViewMin$[ebp]
  00a6d	50		 push	 eax
  00a6e	8d 85 34 ff ff
	ff		 lea	 eax, DWORD PTR _realWidth$[ebp]
  00a74	50		 push	 eax
  00a75	8b 45 88	 mov	 eax, DWORD PTR _nIndex$1$[ebp]
  00a78	48		 dec	 eax
  00a79	50		 push	 eax
  00a7a	8d 45 e0	 lea	 eax, DWORD PTR _graphRegion$[ebp]
  00a7d	50		 push	 eax
  00a7e	8d 45 8c	 lea	 eax, DWORD PTR $T15[ebp]
  00a81	50		 push	 eax
  00a82	dd 9d 7c ff ff
	ff		 fstp	 QWORD PTR $T10[ebp]
  00a88	e8 00 00 00 00	 call	 ?GetVerticalPoint@CDataConversion@@SA?AVCPoint@@ABVCRect@@HABN111_N@Z ; CDataConversion::GetVerticalPoint
  00a8d	83 c4 20	 add	 esp, 32			; 00000020H
  00a90	8b 50 04	 mov	 edx, DWORD PTR [eax+4]
  00a93	89 55 94	 mov	 DWORD PTR _tempDataPt2$2$[ebp], edx
$LN69@PointInLin:

; 743  : 		
; 744  : 		//{{XScale
; 745  : 		pSelectSubGraphData->GetXScaleManager()->GetAREAfRQnDTI(pSelectSubGraphData->GetRQ(), dataIndex-1, nCol, &area);

  00a96	8b cf		 mov	 ecx, edi
  00a98	e8 00 00 00 00	 call	 ?GetXScaleManager@CSelectSubGraphData@@QBEPAVCXScaleManager@@XZ ; CSelectSubGraphData::GetXScaleManager
  00a9d	8b 8d 64 ff ff
	ff		 mov	 ecx, DWORD PTR _dataIndex$[ebp]
  00aa3	8b f0		 mov	 esi, eax
  00aa5	8d 85 54 ff ff
	ff		 lea	 eax, DWORD PTR _area$[ebp]
  00aab	49		 dec	 ecx
  00aac	50		 push	 eax
  00aad	ff 75 84	 push	 DWORD PTR _nCol$[ebp]
  00ab0	51		 push	 ecx
  00ab1	51		 push	 ecx
  00ab2	54		 push	 esp
  00ab3	8b cf		 mov	 ecx, edi
  00ab5	e8 00 00 00 00	 call	 ?GetRQ@CSelectSubGraphData@@QBE?AV?$CStringT@DV?$StrTraitMFC_DLL@DV?$ChTraitsCRT@D@ATL@@@@@ATL@@XZ ; CSelectSubGraphData::GetRQ
  00aba	8b 06		 mov	 eax, DWORD PTR [esi]
  00abc	8b ce		 mov	 ecx, esi
  00abe	ff 90 d0 00 00
	00		 call	 DWORD PTR [eax+208]

; 746  : 		tempDataPt.x = tempDataPt2.x = area.center;

  00ac4	0f bf 85 56 ff
	ff ff		 movsx	 eax, WORD PTR _area$[ebp+2]
  00acb	89 45 88	 mov	 DWORD PTR _tempDataPt2$1$[ebp], eax
  00ace	89 85 5c ff ff
	ff		 mov	 DWORD PTR _tempDataPt$8[ebp], eax

; 747  : 		if(dataPt.x == tempDataPt.x)

  00ad4	39 85 74 ff ff
	ff		 cmp	 DWORD PTR _dataPt$[ebp], eax
  00ada	0f 84 ea fd ff
	ff		 je	 $LN3@PointInLin

; 748  : 			return -1;
; 749  : 		//}}
; 750  : 		//StairLine
; 751  : 		if(pSelectSubGraphData->GetSubGraphStyle().GetGraphBarStyle() == CGraphBaseData::StairLine)

  00ae0	8d 85 4c ff ff
	ff		 lea	 eax, DWORD PTR $T7[ebp]
  00ae6	8b cf		 mov	 ecx, edi
  00ae8	50		 push	 eax
  00ae9	e8 00 00 00 00	 call	 ?GetSubGraphStyle@CSelectSubGraphData@@QBE?AVCGraphStyle@@XZ ; CSelectSubGraphData::GetSubGraphStyle
  00aee	8b 8d 78 ff ff
	ff		 mov	 ecx, DWORD PTR _dataPt$[ebp+4]
  00af4	8b 95 74 ff ff
	ff		 mov	 edx, DWORD PTR _dataPt$[ebp]
  00afa	8b bd 60 ff ff
	ff		 mov	 edi, DWORD PTR _tempDataPt$8[ebp+4]
  00b00	83 38 04	 cmp	 DWORD PTR [eax], 4
  00b03	8b b5 3c ff ff
	ff		 mov	 esi, DWORD PTR _mousePoint$2$[ebp]
  00b09	0f 85 d1 00 00
	00		 jne	 $LN78@PointInLin

; 752  : 		{
; 753  : 			// (2009/11/6 - Seung-Won, Bae) Do not disable zoom and scroll on OneChart
; 754  : 			mousePoint.x += lineWidth/2;

  00b0f	8b 85 40 ff ff
	ff		 mov	 eax, DWORD PTR _lineWidth$1$[ebp]
  00b15	99		 cdq
  00b16	2b c2		 sub	 eax, edx
  00b18	d1 f8		 sar	 eax, 1
  00b1a	03 f0		 add	 esi, eax

; 755  : 			if(packet1InIndex == true && dataPt.x <= mousePoint.x && mousePoint.y <= tempDataPt.y + nUnit && mousePoint.y >= tempDataPt.y - nUnit)

  00b1c	83 bd 6c ff ff
	ff 00		 cmp	 DWORD PTR tv1981[ebp], 0
  00b23	0f 84 a1 fd ff
	ff		 je	 $LN3@PointInLin
  00b29	8b 95 74 ff ff
	ff		 mov	 edx, DWORD PTR _dataPt$[ebp]
  00b2f	3b d6		 cmp	 edx, esi
  00b31	7f 12		 jg	 SHORT $LN72@PointInLin
  00b33	8d 47 08	 lea	 eax, DWORD PTR [edi+8]
  00b36	3b d8		 cmp	 ebx, eax
  00b38	7f 0b		 jg	 SHORT $LN72@PointInLin
  00b3a	8d 47 f8	 lea	 eax, DWORD PTR [edi-8]
  00b3d	3b d8		 cmp	 ebx, eax
  00b3f	0f 8d db 01 00
	00		 jge	 $LN120@PointInLin
$LN72@PointInLin:

; 756  : 				return dataIndex;
; 757  : 			else if(packet1InIndex == true && mousePoint.x <= dataPt.x - realWidth/2 + nUnit && mousePoint.x >= dataPt.x - realWidth/2 - nUnit && tempDataPt.y > dataPt.y){

  00b45	f2 0f 10 85 34
	ff ff ff	 movsd	 xmm0, QWORD PTR _realWidth$[ebp]
  00b4d	f2 0f 59 05 00
	00 00 00	 mulsd	 xmm0, QWORD PTR __real@3fe0000000000000
  00b55	f2 0f 10 25 00
	00 00 00	 movsd	 xmm4, QWORD PTR __real@4020000000000000
  00b5d	66 0f 6e ca	 movd	 xmm1, edx
  00b61	f3 0f e6 c9	 cvtdq2pd xmm1, xmm1
  00b65	66 0f 6e d6	 movd	 xmm2, esi
  00b69	f2 0f 5c c8	 subsd	 xmm1, xmm0
  00b6d	f3 0f e6 d2	 cvtdq2pd xmm2, xmm2
  00b71	0f 28 d9	 movaps	 xmm3, xmm1
  00b74	f2 0f 58 dc	 addsd	 xmm3, xmm4
  00b78	66 0f 2f da	 comisd	 xmm3, xmm2
  00b7c	0f 82 48 fd ff
	ff		 jb	 $LN3@PointInLin
  00b82	0f 28 c1	 movaps	 xmm0, xmm1
  00b85	f2 0f 5c c4	 subsd	 xmm0, xmm4
  00b89	66 0f 2f d0	 comisd	 xmm2, xmm0
  00b8d	72 1e		 jb	 SHORT $LN74@PointInLin
  00b8f	3b f9		 cmp	 edi, ecx
  00b91	7e 1a		 jle	 SHORT $LN74@PointInLin

; 758  : 				if(point.y <= tempDataPt.y && mousePoint.y >= dataPt.y)

  00b93	8b 85 70 ff ff
	ff		 mov	 eax, DWORD PTR _point$GSCopy$1$[ebp]
  00b99	39 78 04	 cmp	 DWORD PTR [eax+4], edi
  00b9c	7f 42		 jg	 SHORT $LN78@PointInLin
  00b9e	3b d9		 cmp	 ebx, ecx
  00ba0	7c 3e		 jl	 SHORT $LN78@PointInLin

; 795  : 		return dataIndex;

  00ba2	8b 85 64 ff ff
	ff		 mov	 eax, DWORD PTR _dataIndex$[ebp]
  00ba8	e9 20 fd ff ff	 jmp	 $LN1@PointInLin
$LN74@PointInLin:

; 759  : 					return dataIndex;
; 760  : 			}
; 761  : 			else if(packet1InIndex == true && mousePoint.x <= dataPt.x - realWidth/2 + nUnit && mousePoint.x >= dataPt.x - realWidth/2 - nUnit && tempDataPt.y < dataPt.y){

  00bad	66 0f 2f da	 comisd	 xmm3, xmm2
  00bb1	0f 82 13 fd ff
	ff		 jb	 $LN3@PointInLin
  00bb7	f2 0f 5c cc	 subsd	 xmm1, xmm4
  00bbb	66 0f 2f d1	 comisd	 xmm2, xmm1
  00bbf	0f 82 05 fd ff
	ff		 jb	 $LN3@PointInLin
  00bc5	3b f9		 cmp	 edi, ecx
  00bc7	0f 8d fd fc ff
	ff		 jge	 $LN3@PointInLin

; 762  : 				if(point.y >= tempDataPt.y && mousePoint.y <= dataPt.y)

  00bcd	8b 85 70 ff ff
	ff		 mov	 eax, DWORD PTR _point$GSCopy$1$[ebp]
  00bd3	39 78 04	 cmp	 DWORD PTR [eax+4], edi
  00bd6	7c 08		 jl	 SHORT $LN78@PointInLin
  00bd8	3b d9		 cmp	 ebx, ecx
  00bda	0f 8e 40 01 00
	00		 jle	 $LN120@PointInLin
$LN78@PointInLin:

; 763  : 					return dataIndex;
; 764  : 			}
; 765  : 			else
; 766  : 				return -1;
; 767  : 		}
; 768  : 		
; 769  : 		//realPointY = ((tempDataPt.y - dataPt.y) * (dataPt.x - mousePoint.x) / (tempDataPt.x - dataPt.x)) + dataPt.y;
; 770  : 		if(tempDataPt.y > dataPt.y)

  00be0	3b f9		 cmp	 edi, ecx
  00be2	7e 1f		 jle	 SHORT $LN80@PointInLin

; 771  : 			realPointY = ((tempDataPt.y - dataPt.y) * (mousePoint.x - dataPt.x) / (tempDataPt.x - dataPt.x)) + dataPt.y;

  00be4	2b f9		 sub	 edi, ecx
  00be6	8b c6		 mov	 eax, esi
  00be8	8b 8d 5c ff ff
	ff		 mov	 ecx, DWORD PTR _tempDataPt$8[ebp]
  00bee	2b c2		 sub	 eax, edx
  00bf0	0f af c7	 imul	 eax, edi
  00bf3	2b ca		 sub	 ecx, edx
  00bf5	99		 cdq
  00bf6	f7 f9		 idiv	 ecx
  00bf8	03 85 78 ff ff
	ff		 add	 eax, DWORD PTR _dataPt$[ebp+4]
  00bfe	89 45 84	 mov	 DWORD PTR _realPointY$2$[ebp], eax
  00c01	eb 21		 jmp	 SHORT $LN81@PointInLin
$LN80@PointInLin:

; 772  : 		else
; 773  : 			realPointY = dataPt.y - ((dataPt.y - tempDataPt.y) * (mousePoint.x - dataPt.x) / (tempDataPt.x - dataPt.x));

  00c03	8b c1		 mov	 eax, ecx
  00c05	8b ce		 mov	 ecx, esi
  00c07	2b ca		 sub	 ecx, edx
  00c09	2b c7		 sub	 eax, edi
  00c0b	0f af c1	 imul	 eax, ecx
  00c0e	8b 8d 5c ff ff
	ff		 mov	 ecx, DWORD PTR _tempDataPt$8[ebp]
  00c14	2b ca		 sub	 ecx, edx
  00c16	99		 cdq
  00c17	f7 f9		 idiv	 ecx
  00c19	8b 8d 78 ff ff
	ff		 mov	 ecx, DWORD PTR _dataPt$[ebp+4]
  00c1f	2b c8		 sub	 ecx, eax
  00c21	89 4d 84	 mov	 DWORD PTR _realPointY$2$[ebp], ecx
$LN81@PointInLin:

; 774  : 		
; 775  : 		if(checkCloudLine){

  00c24	8a 55 9b	 mov	 dl, BYTE PTR _checkCloudLine$1$[ebp]
  00c27	84 d2		 test	 dl, dl
  00c29	74 4a		 je	 SHORT $LN127@PointInLin

; 776  : 		//	realPointY2 = (tempDataPt2.y - dataPt2.y) * (dataPt2.x - mousePoint.x) / (tempDataPt2.x - dataPt2.x) + dataPt2.y;
; 777  : 			if(tempDataPt2.y > dataPt2.y)

  00c2b	8b bd 08 ff ff
	ff		 mov	 edi, DWORD PTR _dataPt2$2$[ebp]
  00c31	8b 55 94	 mov	 edx, DWORD PTR _tempDataPt2$2$[ebp]
  00c34	2b b5 50 ff ff
	ff		 sub	 esi, DWORD PTR _dataPt2$1$[ebp]
  00c3a	3b d7		 cmp	 edx, edi
  00c3c	7e 1b		 jle	 SHORT $LN83@PointInLin

; 778  : 				realPointY2 = ((tempDataPt2.y - dataPt2.y) * (mousePoint.x - dataPt2.x) / (tempDataPt2.x - dataPt2.x)) + dataPt2.y;

  00c3e	2b d7		 sub	 edx, edi
  00c40	0f af d6	 imul	 edx, esi
  00c43	8b 75 88	 mov	 esi, DWORD PTR _tempDataPt2$1$[ebp]
  00c46	2b b5 50 ff ff
	ff		 sub	 esi, DWORD PTR _dataPt2$1$[ebp]
  00c4c	8b c2		 mov	 eax, edx
  00c4e	99		 cdq
  00c4f	f7 fe		 idiv	 esi
  00c51	8a 55 9b	 mov	 dl, BYTE PTR _checkCloudLine$1$[ebp]
  00c54	8d 0c 07	 lea	 ecx, DWORD PTR [edi+eax]
  00c57	eb 1e		 jmp	 SHORT $LN84@PointInLin
$LN83@PointInLin:

; 779  : 			else
; 780  : 				realPointY2 = dataPt2.y - ((dataPt2.y - tempDataPt2.y) * (mousePoint.x - dataPt2.x) / (tempDataPt2.x - dataPt2.x));

  00c59	8b c7		 mov	 eax, edi
  00c5b	8b cf		 mov	 ecx, edi
  00c5d	2b c2		 sub	 eax, edx
  00c5f	0f af c6	 imul	 eax, esi
  00c62	8b 75 88	 mov	 esi, DWORD PTR _tempDataPt2$1$[ebp]
  00c65	2b b5 50 ff ff
	ff		 sub	 esi, DWORD PTR _dataPt2$1$[ebp]
  00c6b	99		 cdq
  00c6c	f7 fe		 idiv	 esi
  00c6e	8a 55 9b	 mov	 dl, BYTE PTR _checkCloudLine$1$[ebp]
  00c71	2b c8		 sub	 ecx, eax
  00c73	eb 02		 jmp	 SHORT $LN84@PointInLin
$LN127@PointInLin:

; 774  : 		
; 775  : 		if(checkCloudLine){

  00c75	33 c9		 xor	 ecx, ecx
$LN84@PointInLin:

; 781  : 		}
; 782  : 			
; 783  : 		
; 784  : 		if(packet1InIndex == true && realPointY >= mousePoint.y - nUnit && realPointY <= mousePoint.y + nUnit)

  00c77	83 bd 6c ff ff
	ff 00		 cmp	 DWORD PTR tv1981[ebp], 0
  00c7e	74 15		 je	 SHORT $LN85@PointInLin
  00c80	8b 75 84	 mov	 esi, DWORD PTR _realPointY$2$[ebp]
  00c83	8d 43 f8	 lea	 eax, DWORD PTR [ebx-8]
  00c86	3b f0		 cmp	 esi, eax
  00c88	7c 0b		 jl	 SHORT $LN85@PointInLin
  00c8a	8d 43 08	 lea	 eax, DWORD PTR [ebx+8]
  00c8d	3b f0		 cmp	 esi, eax
  00c8f	0f 8e 8b 00 00
	00		 jle	 $LN120@PointInLin
$LN85@PointInLin:

; 785  : 			return dataIndex;
; 786  : 		if(checkCloudLine){

  00c95	84 d2		 test	 dl, dl
  00c97	0f 84 2d fc ff
	ff		 je	 $LN3@PointInLin

; 787  : 			if(packet2InIndex == true && realPointY2 >= mousePoint.y - nUnit && realPointY2 <= mousePoint.y + nUnit)

  00c9d	83 bd 30 ff ff
	ff 00		 cmp	 DWORD PTR tv1966[ebp], 0
  00ca4	0f 84 20 fc ff
	ff		 je	 $LN3@PointInLin
  00caa	8d 43 f8	 lea	 eax, DWORD PTR [ebx-8]
  00cad	3b c8		 cmp	 ecx, eax
  00caf	0f 8c 15 fc ff
	ff		 jl	 $LN3@PointInLin
  00cb5	8d 43 08	 lea	 eax, DWORD PTR [ebx+8]
  00cb8	3b c8		 cmp	 ecx, eax
  00cba	0f 8f 0a fc ff
	ff		 jg	 $LN3@PointInLin

; 795  : 		return dataIndex;

  00cc0	8b 85 64 ff ff
	ff		 mov	 eax, DWORD PTR _dataIndex$[ebp]
  00cc6	e9 02 fc ff ff	 jmp	 $LN1@PointInLin
$LN57@PointInLin:

; 788  : 				return dataIndex;
; 789  : 		}
; 790  : 
; 791  : 	}
; 792  : 	else if(packet1InIndex == true && dataPt.x == mousePoint.x && mousePoint.y <= dataPt.y + nUnit && mousePoint.y >= dataPt.y - nUnit)

  00ccb	83 bd 6c ff ff
	ff 00		 cmp	 DWORD PTR tv1981[ebp], 0
  00cd2	74 1e		 je	 SHORT $LN88@PointInLin
  00cd4	3b c6		 cmp	 eax, esi
  00cd6	75 1a		 jne	 SHORT $LN88@PointInLin
  00cd8	8b 8d 78 ff ff
	ff		 mov	 ecx, DWORD PTR _dataPt$[ebp+4]
  00cde	8d 41 08	 lea	 eax, DWORD PTR [ecx+8]
  00ce1	3b d8		 cmp	 ebx, eax
  00ce3	7f 07		 jg	 SHORT $LN128@PointInLin
  00ce5	8d 41 f8	 lea	 eax, DWORD PTR [ecx-8]
  00ce8	3b d8		 cmp	 ebx, eax
  00cea	7d 34		 jge	 SHORT $LN120@PointInLin
$LN128@PointInLin:

; 793  : 		return dataIndex;
; 794  : 	else if(packet2InIndex == true && dataPt2.x == mousePoint.x && mousePoint.y <= dataPt2.y + nUnit && mousePoint.y >= dataPt2.y - nUnit)

  00cec	8b 85 50 ff ff
	ff		 mov	 eax, DWORD PTR _dataPt2$1$[ebp]
$LN88@PointInLin:
  00cf2	83 7d 90 00	 cmp	 DWORD PTR tv1965[ebp], 0
  00cf6	0f 84 ce fb ff
	ff		 je	 $LN3@PointInLin
  00cfc	3b c6		 cmp	 eax, esi
  00cfe	0f 85 c6 fb ff
	ff		 jne	 $LN3@PointInLin
  00d04	8b 8d 08 ff ff
	ff		 mov	 ecx, DWORD PTR _dataPt2$2$[ebp]
$LN132@PointInLin:

; 795  : 		return dataIndex;

  00d0a	8d 41 08	 lea	 eax, DWORD PTR [ecx+8]
  00d0d	3b d8		 cmp	 ebx, eax
  00d0f	0f 8f b5 fb ff
	ff		 jg	 $LN3@PointInLin
  00d15	8d 41 f8	 lea	 eax, DWORD PTR [ecx-8]
  00d18	3b d8		 cmp	 ebx, eax
  00d1a	0f 8c aa fb ff
	ff		 jl	 $LN3@PointInLin
$LN120@PointInLin:
  00d20	8b 85 64 ff ff
	ff		 mov	 eax, DWORD PTR _dataIndex$[ebp]
  00d26	e9 a2 fb ff ff	 jmp	 $LN1@PointInLin
_TEXT	ENDS
;	COMDAT text$x
text$x	SEGMENT
__unwindfunclet$?PointInLineGraph@CSelectSubGraph@@AAEHABVCPoint@@PBVCSelectSubGraphData@@@Z$0:
  00000	8d 4d 94	 lea	 ecx, DWORD PTR $T29[ebp]
  00003	ff 25 00 00 00
	00		 jmp	 DWORD PTR __imp_??1?$CStringT@DV?$StrTraitMFC_DLL@DV?$ChTraitsCRT@D@ATL@@@@@ATL@@QAE@XZ
  00009	cc		 int	 3
  0000a	cc		 int	 3
  0000b	cc		 int	 3
  0000c	cc		 int	 3
  0000d	cc		 int	 3
__ehhandler$?PointInLineGraph@CSelectSubGraph@@AAEHABVCPoint@@PBVCSelectSubGraphData@@@Z:
  0000e	90		 npad	 1
  0000f	90		 npad	 1
  00010	8b 54 24 08	 mov	 edx, DWORD PTR [esp+8]
  00014	8d 42 0c	 lea	 eax, DWORD PTR [edx+12]
  00017	8b 8a f8 fe ff
	ff		 mov	 ecx, DWORD PTR [edx-264]
  0001d	33 c8		 xor	 ecx, eax
  0001f	e8 00 00 00 00	 call	 @__security_check_cookie@4
  00024	8b 4a fc	 mov	 ecx, DWORD PTR [edx-4]
  00027	33 c8		 xor	 ecx, eax
  00029	e8 00 00 00 00	 call	 @__security_check_cookie@4
  0002e	b8 00 00 00 00	 mov	 eax, OFFSET __ehfuncinfo$?PointInLineGraph@CSelectSubGraph@@AAEHABVCPoint@@PBVCSelectSubGraphData@@@Z
  00033	e9 00 00 00 00	 jmp	 ___CxxFrameHandler3
text$x	ENDS
?PointInLineGraph@CSelectSubGraph@@AAEHABVCPoint@@PBVCSelectSubGraphData@@@Z ENDP ; CSelectSubGraph::PointInLineGraph
; Function compile flags: /Ogtp
; File D:\git\src\IBK\IBK_DRFN\ProjSrc\SrcChartEx\ChartOCX\GraphDraw\SelectSubGraph.cpp
; File C:\Program Files (x86)\Microsoft Visual Studio\2019\Community\VC\Tools\MSVC\14.29.30133\atlmfc\include\afxtempl.h
; File D:\git\src\IBK\IBK_DRFN\ProjSrc\SrcChartEx\ChartOCX\GraphDraw\SelectSubGraph.cpp
; File C:\Program Files (x86)\Microsoft Visual Studio\2019\Community\VC\Tools\MSVC\14.29.30133\atlmfc\include\afxtempl.h
; File D:\git\src\IBK\IBK_DRFN\ProjSrc\SrcChartEx\ChartOCX\GraphDraw\SelectSubGraph.cpp
; File C:\Program Files (x86)\Microsoft Visual Studio\2019\Community\VC\Tools\MSVC\14.29.30133\atlmfc\include\afxtempl.h
; File D:\git\src\IBK\IBK_DRFN\ProjSrc\SrcChartEx\ChartOCX\GraphDraw\SelectSubGraph.cpp
; File D:\git\src\IBK\IBK_DRFN\ProjSrc\SrcChartEx\ChartOCX\Include_Chart\BlockBaseData.h
; File D:\git\src\IBK\IBK_DRFN\ProjSrc\SrcChartEx\ChartOCX\GraphDraw\SelectSubGraph.cpp
; File D:\git\src\IBK\IBK_DRFN\ProjSrc\SrcChartEx\ChartOCX\Include_Chart\Dll_Load\XScaleManager.h
; File D:\git\src\IBK\IBK_DRFN\ProjSrc\SrcChartEx\ChartOCX\GraphDraw\SelectSubGraph.cpp
; File D:\git\src\IBK\IBK_DRFN\ProjSrc\SrcChartEx\ChartOCX\Include_Chart\Dll_Load\XScaleManager.h
; File D:\git\src\IBK\IBK_DRFN\ProjSrc\SrcChartEx\ChartOCX\GraphDraw\SelectSubGraph.cpp
;	COMDAT ?PointInBongGraph@CSelectSubGraph@@AAEHABVCPoint@@PBVCSelectSubGraphData@@@Z
_TEXT	SEGMENT
_endDataPt$ = -256					; size = 8
_startDataPt$ = -248					; size = 8
$T1 = -240						; size = 16
$T2 = -240						; size = 16
$T3 = -240						; size = 16
$T4 = -240						; size = 16
$T5 = -224						; size = 16
$T6 = -224						; size = 16
$T7 = -224						; size = 16
$T8 = -224						; size = 16
_lowDataPt$ = -208					; size = 8
_highDataPt$ = -200					; size = 8
_nCol$ = -192						; size = 4
_realWidth$ = -188					; size = 8
$T9 = -180						; size = 8
_pClosePacket$1$ = -176					; size = 4
$T10 = -172						; size = 8
_pLowPacket$1$ = -168					; size = 4
$T11 = -164						; size = 8
_pHighPacket$1$ = -160					; size = 4
$T12 = -156						; size = 8
_startDataPos$1$ = -152					; size = 4
$T13 = -148						; size = 8
_pOpenPacket$1$ = -144					; size = 4
$T14 = -140						; size = 8
$T15 = -140						; size = 8
_highDataPos$1$ = -136					; size = 4
$T16 = -132						; size = 8
_dataStart$1$ = -128					; size = 4
_area$ = -124						; size = 6
_point$GSCopy$1$ = -116					; size = 4
_mousePoint$2$ = -112					; size = 4
_endDataPos$1$ = -112					; size = 4
_lowDataPos$1$ = -108					; size = 4
$T17 = -108						; size = 4
$T18 = -104						; size = 8
$T19 = -104						; size = 8
$T20 = -104						; size = 8
$T21 = -104						; size = 8
$T22 = -104						; size = 8
$T23 = -104						; size = 8
$T24 = -104						; size = 8
_dataIndex$ = -96					; size = 4
_this$GSCopy$1$ = -92					; size = 4
$T25 = -88						; size = 68
_graphRegion$ = -20					; size = 16
__$ArrayPad$ = -4					; size = 4
_point$ = 8						; size = 4
_pSelectSubGraphData$ = 12				; size = 4
?PointInBongGraph@CSelectSubGraph@@AAEHABVCPoint@@PBVCSelectSubGraphData@@@Z PROC ; CSelectSubGraph::PointInBongGraph, COMDAT
; _this$ = ecx

; 123  : {

  00000	55		 push	 ebp
  00001	8b ec		 mov	 ebp, esp
  00003	81 ec 00 01 00
	00		 sub	 esp, 256		; 00000100H
  00009	a1 00 00 00 00	 mov	 eax, DWORD PTR ___security_cookie
  0000e	33 c5		 xor	 eax, ebp
  00010	89 45 fc	 mov	 DWORD PTR __$ArrayPad$[ebp], eax
  00013	8b 45 08	 mov	 eax, DWORD PTR _point$[ebp]
  00016	53		 push	 ebx
  00017	8b 5d 0c	 mov	 ebx, DWORD PTR _pSelectSubGraphData$[ebp]
  0001a	56		 push	 esi
  0001b	89 4d a4	 mov	 DWORD PTR _this$GSCopy$1$[ebp], ecx

; 124  : 	const CList< CPacket *, CPacket *> &packetList = pSelectSubGraphData->GetSubGraphPacketList()->GetSubGraphPacketList();

  0001e	8b cb		 mov	 ecx, ebx
  00020	57		 push	 edi
  00021	89 45 8c	 mov	 DWORD PTR _point$GSCopy$1$[ebp], eax
  00024	e8 00 00 00 00	 call	 ?GetSubGraphPacketList@CSelectSubGraphData@@QBEPAVCSubGraphPacketList@@XZ ; CSelectSubGraphData::GetSubGraphPacketList
  00029	8b c8		 mov	 ecx, eax
  0002b	e8 00 00 00 00	 call	 ?GetSubGraphPacketList@CSubGraphPacketList@@QBEABV?$CList@PAVCPacket@@PAV1@@@XZ ; CSubGraphPacketList::GetSubGraphPacketList

; 125  : 	if(packetList.GetCount() <= 0)

  00030	8b 48 0c	 mov	 ecx, DWORD PTR [eax+12]
  00033	85 c9		 test	 ecx, ecx
  00035	0f 8e 63 05 00
	00		 jle	 $LN4@PointInBon

; 126  : 		return -1;
; 127  : 
; 128  : 	CPacket* pOpenPacket = NULL;
; 129  : 	CPacket* pHighPacket = NULL; 
; 130  : 	CPacket* pLowPacket = NULL; 
; 131  : 	CPacket* pClosePacket = NULL;
; 132  : 
; 133  : 	POSITION pos = packetList.GetHeadPosition();

  0003b	8b 40 04	 mov	 eax, DWORD PTR [eax+4]

; 134  : 	if(pos == NULL)	return -1;

  0003e	85 c0		 test	 eax, eax
  00040	0f 84 58 05 00
	00		 je	 $LN4@PointInBon

; 135  : 	
; 136  : 	if(packetList.GetCount() >= 4){

  00046	83 f9 04	 cmp	 ecx, 4
  00049	0f 8c 4f 05 00
	00		 jl	 $LN4@PointInBon

; 137  : 		pOpenPacket = packetList.GetNext(pos);

  0004f	8b 48 08	 mov	 ecx, DWORD PTR [eax+8]
  00052	89 8d 70 ff ff
	ff		 mov	 DWORD PTR _pOpenPacket$1$[ebp], ecx

; 141  : 	}
; 142  : 	else
; 143  : 		return -1;
; 144  : 
; 145  : 	if(pOpenPacket == NULL || pHighPacket == NULL || pLowPacket == NULL || pClosePacket == NULL)

  00058	85 c9		 test	 ecx, ecx
  0005a	0f 84 3e 05 00
	00		 je	 $LN4@PointInBon
; File C:\Program Files (x86)\Microsoft Visual Studio\2019\Community\VC\Tools\MSVC\14.29.30133\atlmfc\include\afxtempl.h

; 817  : 	{ CNode* pNode = (CNode*) rPosition;

  00060	8b 00		 mov	 eax, DWORD PTR [eax]
; File D:\git\src\IBK\IBK_DRFN\ProjSrc\SrcChartEx\ChartOCX\GraphDraw\SelectSubGraph.cpp

; 138  : 		pHighPacket = packetList.GetNext(pos);

  00062	8b 48 08	 mov	 ecx, DWORD PTR [eax+8]
  00065	89 8d 60 ff ff
	ff		 mov	 DWORD PTR _pHighPacket$1$[ebp], ecx

; 141  : 	}
; 142  : 	else
; 143  : 		return -1;
; 144  : 
; 145  : 	if(pOpenPacket == NULL || pHighPacket == NULL || pLowPacket == NULL || pClosePacket == NULL)

  0006b	85 c9		 test	 ecx, ecx
  0006d	0f 84 2b 05 00
	00		 je	 $LN4@PointInBon
; File C:\Program Files (x86)\Microsoft Visual Studio\2019\Community\VC\Tools\MSVC\14.29.30133\atlmfc\include\afxtempl.h

; 817  : 	{ CNode* pNode = (CNode*) rPosition;

  00073	8b 00		 mov	 eax, DWORD PTR [eax]
; File D:\git\src\IBK\IBK_DRFN\ProjSrc\SrcChartEx\ChartOCX\GraphDraw\SelectSubGraph.cpp

; 139  : 		pLowPacket = packetList.GetNext(pos);

  00075	8b 48 08	 mov	 ecx, DWORD PTR [eax+8]
  00078	89 8d 58 ff ff
	ff		 mov	 DWORD PTR _pLowPacket$1$[ebp], ecx

; 141  : 	}
; 142  : 	else
; 143  : 		return -1;
; 144  : 
; 145  : 	if(pOpenPacket == NULL || pHighPacket == NULL || pLowPacket == NULL || pClosePacket == NULL)

  0007e	85 c9		 test	 ecx, ecx
  00080	0f 84 18 05 00
	00		 je	 $LN4@PointInBon
; File C:\Program Files (x86)\Microsoft Visual Studio\2019\Community\VC\Tools\MSVC\14.29.30133\atlmfc\include\afxtempl.h

; 819  : 		rPosition = (POSITION) pNode->pNext;

  00086	8b 00		 mov	 eax, DWORD PTR [eax]
; File D:\git\src\IBK\IBK_DRFN\ProjSrc\SrcChartEx\ChartOCX\GraphDraw\SelectSubGraph.cpp

; 140  : 		pClosePacket = packetList.GetNext(pos);

  00088	8b 40 08	 mov	 eax, DWORD PTR [eax+8]
  0008b	89 85 50 ff ff
	ff		 mov	 DWORD PTR _pClosePacket$1$[ebp], eax

; 141  : 	}
; 142  : 	else
; 143  : 		return -1;
; 144  : 
; 145  : 	if(pOpenPacket == NULL || pHighPacket == NULL || pLowPacket == NULL || pClosePacket == NULL)

  00091	85 c0		 test	 eax, eax
  00093	0f 84 05 05 00
	00		 je	 $LN4@PointInBon

; 146  : 		return -1;
; 147  : 
; 148  : 	int dataStart = pSelectSubGraphData->GetDisplayAttributes().GetDataStartInBlock();

  00099	8d 45 98	 lea	 eax, DWORD PTR $T24[ebp]
  0009c	8b cb		 mov	 ecx, ebx
  0009e	50		 push	 eax
  0009f	e8 00 00 00 00	 call	 ?GetDisplayAttributes@CSelectSubGraphData@@QBE?AVCDisplayAttributes@@XZ ; CSelectSubGraphData::GetDisplayAttributes
  000a4	8b c8		 mov	 ecx, eax
  000a6	e8 00 00 00 00	 call	 ?GetDataStartInBlock@CDisplayAttributes@@QBEHXZ ; CDisplayAttributes::GetDataStartInBlock
  000ab	89 45 80	 mov	 DWORD PTR _dataStart$1$[ebp], eax

; 149  : 	int dataEnd = pSelectSubGraphData->GetDisplayAttributes().GetDataEndInBlock();

  000ae	8b cb		 mov	 ecx, ebx
  000b0	8d 45 98	 lea	 eax, DWORD PTR $T23[ebp]
  000b3	50		 push	 eax
  000b4	e8 00 00 00 00	 call	 ?GetDisplayAttributes@CSelectSubGraphData@@QBE?AVCDisplayAttributes@@XZ ; CSelectSubGraphData::GetDisplayAttributes
  000b9	8b c8		 mov	 ecx, eax
  000bb	e8 00 00 00 00	 call	 ?GetDataEndInBlock@CDisplayAttributes@@QBEHXZ ; CDisplayAttributes::GetDataEndInBlock
  000c0	8b f8		 mov	 edi, eax

; 150  : 	int pageDataCount = pSelectSubGraphData->GetDisplayAttributes().GetDataCountInBlock();

  000c2	8b cb		 mov	 ecx, ebx
  000c4	8d 45 98	 lea	 eax, DWORD PTR $T22[ebp]
  000c7	50		 push	 eax
  000c8	e8 00 00 00 00	 call	 ?GetDisplayAttributes@CSelectSubGraphData@@QBE?AVCDisplayAttributes@@XZ ; CSelectSubGraphData::GetDisplayAttributes
  000cd	8b c8		 mov	 ecx, eax
  000cf	e8 00 00 00 00	 call	 ?GetDataCountInBlock@CDisplayAttributes@@QBEHXZ ; CDisplayAttributes::GetDataCountInBlock
  000d4	8b f0		 mov	 esi, eax
; File D:\git\src\IBK\IBK_DRFN\ProjSrc\SrcChartEx\ChartOCX\Include_Chart\BlockBaseData.h

; 43   : 	CGraphStyle(const int style) { m_nStyle = style; };

  000d6	c7 45 94 ff ff
	ff ff		 mov	 DWORD PTR $T17[ebp], -1
; File D:\git\src\IBK\IBK_DRFN\ProjSrc\SrcChartEx\ChartOCX\GraphDraw\SelectSubGraph.cpp

; 152  : 	CRect graphRegion = pSelectSubGraphData->GetGraphRegions().GetDrawingRegion();

  000dd	8d 45 94	 lea	 eax, DWORD PTR $T17[ebp]
  000e0	8b cb		 mov	 ecx, ebx
  000e2	50		 push	 eax
  000e3	6a ff		 push	 -1
  000e5	8d 45 ec	 lea	 eax, DWORD PTR _graphRegion$[ebp]
  000e8	50		 push	 eax
  000e9	8d 45 a8	 lea	 eax, DWORD PTR $T25[ebp]
  000ec	50		 push	 eax
  000ed	e8 00 00 00 00	 call	 ?GetGraphRegions@CSelectSubGraphData@@QBE?AVCGraphRegions@@XZ ; CSelectSubGraphData::GetGraphRegions
  000f2	8b c8		 mov	 ecx, eax
  000f4	e8 00 00 00 00	 call	 ?GetDrawingRegion@CGraphRegions@@QBE?AVCRect@@W4GRAPHTYPE@CGraphBaseData@@ABVCGraphStyle@@@Z ; CGraphRegions::GetDrawingRegion

; 153  : 
; 154  : 	int dataIndex = GetDataIndex(graphRegion, point, dataStart, dataEnd, pageDataCount); 

  000f9	8b 45 8c	 mov	 eax, DWORD PTR _point$GSCopy$1$[ebp]
  000fc	0f 10 45 ec	 movups	 xmm0, XMMWORD PTR _graphRegion$[ebp]
  00100	8b 4d a4	 mov	 ecx, DWORD PTR _this$GSCopy$1$[ebp]
  00103	56		 push	 esi
  00104	57		 push	 edi
  00105	ff 75 80	 push	 DWORD PTR _dataStart$1$[ebp]
  00108	ff 70 04	 push	 DWORD PTR [eax+4]
  0010b	ff 30		 push	 DWORD PTR [eax]
  0010d	83 ec 10	 sub	 esp, 16			; 00000010H
  00110	8b c4		 mov	 eax, esp
  00112	0f 11 00	 movups	 XMMWORD PTR [eax], xmm0
  00115	e8 00 00 00 00	 call	 ?GetDataIndex@CSelectSubGraph@@AAEHVCRect@@VCPoint@@HHH@Z ; CSelectSubGraph::GetDataIndex
  0011a	89 45 a0	 mov	 DWORD PTR _dataIndex$[ebp], eax

; 158  : 	pSelectSubGraphData->GetXScaleManager()->GetDTInAREAfRQnPt(pSelectSubGraphData->GetRQ(), point.x, nCol, &dataIndex, &area);

  0011d	8b cb		 mov	 ecx, ebx
; File D:\git\src\IBK\IBK_DRFN\ProjSrc\SrcChartEx\ChartOCX\Include_Chart\Dll_Load\XScaleManager.h

; 67   : 			left = center = right = 0;

  0011f	33 c0		 xor	 eax, eax
; File D:\git\src\IBK\IBK_DRFN\ProjSrc\SrcChartEx\ChartOCX\GraphDraw\SelectSubGraph.cpp

; 156  : 	int nCol = 0;

  00121	c7 85 40 ff ff
	ff 00 00 00 00	 mov	 DWORD PTR _nCol$[ebp], 0
; File D:\git\src\IBK\IBK_DRFN\ProjSrc\SrcChartEx\ChartOCX\Include_Chart\Dll_Load\XScaleManager.h

; 67   : 			left = center = right = 0;

  0012b	89 45 86	 mov	 DWORD PTR _area$[ebp+2], eax
  0012e	66 89 45 84	 mov	 WORD PTR _area$[ebp], ax
; File D:\git\src\IBK\IBK_DRFN\ProjSrc\SrcChartEx\ChartOCX\GraphDraw\SelectSubGraph.cpp

; 158  : 	pSelectSubGraphData->GetXScaleManager()->GetDTInAREAfRQnPt(pSelectSubGraphData->GetRQ(), point.x, nCol, &dataIndex, &area);

  00132	e8 00 00 00 00	 call	 ?GetXScaleManager@CSelectSubGraphData@@QBEPAVCXScaleManager@@XZ ; CSelectSubGraphData::GetXScaleManager
  00137	6a 00		 push	 0
  00139	8b f0		 mov	 esi, eax
  0013b	8d 45 84	 lea	 eax, DWORD PTR _area$[ebp]
  0013e	50		 push	 eax
  0013f	8d 45 a0	 lea	 eax, DWORD PTR _dataIndex$[ebp]
  00142	50		 push	 eax
  00143	8d 85 40 ff ff
	ff		 lea	 eax, DWORD PTR _nCol$[ebp]
  00149	50		 push	 eax
  0014a	8b 45 8c	 mov	 eax, DWORD PTR _point$GSCopy$1$[ebp]
  0014d	ff 30		 push	 DWORD PTR [eax]
  0014f	51		 push	 ecx
  00150	54		 push	 esp
  00151	8b cb		 mov	 ecx, ebx
  00153	e8 00 00 00 00	 call	 ?GetRQ@CSelectSubGraphData@@QBE?AV?$CStringT@DV?$StrTraitMFC_DLL@DV?$ChTraitsCRT@D@ATL@@@@@ATL@@XZ ; CSelectSubGraphData::GetRQ
  00158	8b 06		 mov	 eax, DWORD PTR [esi]
  0015a	8b ce		 mov	 ecx, esi
  0015c	ff 90 34 01 00
	00		 call	 DWORD PTR [eax+308]

; 159  : 
; 160  : 	double realWidth = CDraw::CalRealWidth(graphRegion, dataStart, dataEnd);

  00162	8b 4d a4	 mov	 ecx, DWORD PTR _this$GSCopy$1$[ebp]
  00165	8d 45 ec	 lea	 eax, DWORD PTR _graphRegion$[ebp]
  00168	57		 push	 edi
  00169	ff 75 80	 push	 DWORD PTR _dataStart$1$[ebp]
  0016c	50		 push	 eax
  0016d	e8 00 00 00 00	 call	 ?CalRealWidth@CDraw@@IAENABVCRect@@HH@Z ; CDraw::CalRealWidth

; 161  : 	if(dataIndex == -1)

  00172	8b 45 a0	 mov	 eax, DWORD PTR _dataIndex$[ebp]
  00175	dd 9d 44 ff ff
	ff		 fstp	 QWORD PTR _realWidth$[ebp]
  0017b	83 f8 ff	 cmp	 eax, -1
  0017e	0f 84 1a 04 00
	00		 je	 $LN4@PointInBon

; 162  : 		return -1;
; 163  : 
; 164  : 	POSITION startDataPos = pOpenPacket->GetnumericDataList()->FindIndex(dataIndex);

  00184	8b 8d 70 ff ff
	ff		 mov	 ecx, DWORD PTR _pOpenPacket$1$[ebp]
  0018a	8b 3d 00 00 00
	00		 mov	 edi, DWORD PTR __imp_?GetnumericDataList@CPacket@@QAEPAV?$CList@NN@@XZ
  00190	50		 push	 eax
  00191	ff d7		 call	 edi
  00193	8b c8		 mov	 ecx, eax
  00195	e8 00 00 00 00	 call	 ?FindIndex@?$CList@NN@@QBEPAU__POSITION@@H@Z ; CList<double,double>::FindIndex

; 165  : 	POSITION highDataPos = pHighPacket->GetnumericDataList()->FindIndex(dataIndex);

  0019a	ff 75 a0	 push	 DWORD PTR _dataIndex$[ebp]
  0019d	8b 8d 60 ff ff
	ff		 mov	 ecx, DWORD PTR _pHighPacket$1$[ebp]
  001a3	89 85 68 ff ff
	ff		 mov	 DWORD PTR _startDataPos$1$[ebp], eax
  001a9	ff d7		 call	 edi
  001ab	8b c8		 mov	 ecx, eax
  001ad	e8 00 00 00 00	 call	 ?FindIndex@?$CList@NN@@QBEPAU__POSITION@@H@Z ; CList<double,double>::FindIndex

; 166  : 	POSITION lowDataPos = pLowPacket->GetnumericDataList()->FindIndex(dataIndex);

  001b2	ff 75 a0	 push	 DWORD PTR _dataIndex$[ebp]
  001b5	8b 8d 58 ff ff
	ff		 mov	 ecx, DWORD PTR _pLowPacket$1$[ebp]
  001bb	8b f0		 mov	 esi, eax
  001bd	89 b5 78 ff ff
	ff		 mov	 DWORD PTR _highDataPos$1$[ebp], esi
  001c3	ff d7		 call	 edi
  001c5	8b c8		 mov	 ecx, eax
  001c7	e8 00 00 00 00	 call	 ?FindIndex@?$CList@NN@@QBEPAU__POSITION@@H@Z ; CList<double,double>::FindIndex

; 167  : 	POSITION endDataPos = pClosePacket->GetnumericDataList()->FindIndex(dataIndex);

  001cc	ff 75 a0	 push	 DWORD PTR _dataIndex$[ebp]
  001cf	8b 8d 50 ff ff
	ff		 mov	 ecx, DWORD PTR _pClosePacket$1$[ebp]
  001d5	89 45 94	 mov	 DWORD PTR _lowDataPos$1$[ebp], eax
  001d8	ff d7		 call	 edi
  001da	8b c8		 mov	 ecx, eax
  001dc	e8 00 00 00 00	 call	 ?FindIndex@?$CList@NN@@QBEPAU__POSITION@@H@Z ; CList<double,double>::FindIndex

; 168  : 	
; 169  : 	if(startDataPos == NULL || highDataPos == NULL || lowDataPos == NULL || endDataPos == NULL) 

  001e1	83 bd 68 ff ff
	ff 00		 cmp	 DWORD PTR _startDataPos$1$[ebp], 0
  001e8	89 45 90	 mov	 DWORD PTR _endDataPos$1$[ebp], eax
  001eb	0f 84 ad 03 00
	00		 je	 $LN4@PointInBon
  001f1	85 f6		 test	 esi, esi
  001f3	0f 84 a5 03 00
	00		 je	 $LN4@PointInBon
  001f9	83 7d 94 00	 cmp	 DWORD PTR _lowDataPos$1$[ebp], 0
  001fd	0f 84 9b 03 00
	00		 je	 $LN4@PointInBon
  00203	85 c0		 test	 eax, eax
  00205	0f 84 93 03 00
	00		 je	 $LN4@PointInBon

; 1324 : 	return (dataIndex - dataStart);

  0020b	8b 4d 80	 mov	 ecx, DWORD PTR _dataStart$1$[ebp]
  0020e	8b 75 a0	 mov	 esi, DWORD PTR _dataIndex$[ebp]
  00211	2b f1		 sub	 esi, ecx
  00213	39 4d a0	 cmp	 DWORD PTR _dataIndex$[ebp], ecx
  00216	0f 4c f1	 cmovl	 esi, ecx

; 170  : 		return -1;
; 171  : 
; 172  : 	int nIndex = GetIndex(dataIndex, dataStart);
; 173  : //	CPoint highDataPt = CDataConversion::GetVerticalPoint(graphRegion, count, realWidth, CDraw::CalLogValue(pSelectSubGraphData->GetVertScaleLogType(), pSelectSubGraphData->GetDisplayDataVertMinMax().GetDisplayMin()), CDraw::CalLogValue(pSelectSubGraphData->GetVertScaleLogType(), pSelectSubGraphData->GetDisplayDataVertMinMax().GetDisplayMax()), CDraw::CalLogValue(pSelectSubGraphData->GetVertScaleLogType(), pHighPacket->GetnumericDataList()->GetNext(highDataPos)));
; 174  : //	CPoint startDataPt = CDataConversion::GetVerticalPoint(graphRegion, count, realWidth, CDraw::CalLogValue(pSelectSubGraphData->GetVertScaleLogType(), pSelectSubGraphData->GetDisplayDataVertMinMax().GetDisplayMin()), CDraw::CalLogValue(pSelectSubGraphData->GetVertScaleLogType(), pSelectSubGraphData->GetDisplayDataVertMinMax().GetDisplayMax()), CDraw::CalLogValue(pSelectSubGraphData->GetVertScaleLogType(), pOpenPacket->GetnumericDataList()->GetNext(startDataPos)));
; 175  : //	CPoint endDataPt = CDataConversion::GetVerticalPoint(graphRegion, count, realWidth, CDraw::CalLogValue(pSelectSubGraphData->GetVertScaleLogType(), pSelectSubGraphData->GetDisplayDataVertMinMax().GetDisplayMin()), CDraw::CalLogValue(pSelectSubGraphData->GetVertScaleLogType(), pSelectSubGraphData->GetDisplayDataVertMinMax().GetDisplayMax()), CDraw::CalLogValue(pSelectSubGraphData->GetVertScaleLogType(), pClosePacket->GetnumericDataList()->GetNext(endDataPos)));
; 176  : //	CPoint lowDataPt = CDataConversion::GetVerticalPoint(graphRegion, count, realWidth, CDraw::CalLogValue(pSelectSubGraphData->GetVertScaleLogType(), pSelectSubGraphData->GetDisplayDataVertMinMax().GetDisplayMin()), CDraw::CalLogValue(pSelectSubGraphData->GetVertScaleLogType(), pSelectSubGraphData->GetDisplayDataVertMinMax().GetDisplayMax()), CDraw::CalLogValue(pSelectSubGraphData->GetVertScaleLogType(), pLowPacket->GetnumericDataList()->GetNext(lowDataPos)));
; 177  : 
; 178  : 	CPoint startDataPt = CDataConversion::GetVerticalPoint(graphRegion, nIndex, realWidth, CDraw::CalLogValue(pSelectSubGraphData->GetVertScaleLogType(), pSelectSubGraphData->GetDisplayDataVertMinMax().GetDisplayMin()), CDraw::CalLogValue(pSelectSubGraphData->GetVertScaleLogType(), pSelectSubGraphData->GetDisplayDataVertMinMax().GetDisplayMax()), CDraw::CalLogValue(pSelectSubGraphData->GetVertScaleLogType(), pOpenPacket->GetnumericDataList()->GetNext(startDataPos)), false);

  00219	8b 8d 70 ff ff
	ff		 mov	 ecx, DWORD PTR _pOpenPacket$1$[ebp]
  0021f	ff d7		 call	 edi
  00221	8b 85 68 ff ff
	ff		 mov	 eax, DWORD PTR _startDataPos$1$[ebp]
  00227	83 ec 08	 sub	 esp, 8
  0022a	8b cb		 mov	 ecx, ebx
  0022c	f2 0f 10 40 08	 movsd	 xmm0, QWORD PTR [eax+8]
  00231	f2 0f 11 04 24	 movsd	 QWORD PTR [esp], xmm0
  00236	e8 00 00 00 00	 call	 ?GetVertScaleLogType@CSelectSubGraphData@@QBE_NXZ ; CSelectSubGraphData::GetVertScaleLogType
  0023b	8b 4d a4	 mov	 ecx, DWORD PTR _this$GSCopy$1$[ebp]
  0023e	0f b6 c0	 movzx	 eax, al
  00241	50		 push	 eax
  00242	e8 00 00 00 00	 call	 ?CalLogValue@CDraw@@IAEN_NN@Z ; CDraw::CalLogValue
  00247	8d 85 20 ff ff
	ff		 lea	 eax, DWORD PTR $T8[ebp]
  0024d	8b cb		 mov	 ecx, ebx
  0024f	50		 push	 eax
  00250	dd 9d 6c ff ff
	ff		 fstp	 QWORD PTR $T13[ebp]
  00256	e8 00 00 00 00	 call	 ?GetDisplayDataVertMinMax@CSelectSubGraphData@@QBE?AVCDisplayDataMinMax@@XZ ; CSelectSubGraphData::GetDisplayDataVertMinMax
  0025b	8b c8		 mov	 ecx, eax
  0025d	ff 15 00 00 00
	00		 call	 DWORD PTR __imp_?GetDisplayMax@CDisplayDataMinMax@@QBENXZ
  00263	83 ec 08	 sub	 esp, 8
  00266	8b cb		 mov	 ecx, ebx
  00268	dd 1c 24	 fstp	 QWORD PTR [esp]
  0026b	e8 00 00 00 00	 call	 ?GetVertScaleLogType@CSelectSubGraphData@@QBE_NXZ ; CSelectSubGraphData::GetVertScaleLogType
  00270	8b 4d a4	 mov	 ecx, DWORD PTR _this$GSCopy$1$[ebp]
  00273	0f b6 c0	 movzx	 eax, al
  00276	50		 push	 eax
  00277	e8 00 00 00 00	 call	 ?CalLogValue@CDraw@@IAEN_NN@Z ; CDraw::CalLogValue
  0027c	8d 85 10 ff ff
	ff		 lea	 eax, DWORD PTR $T4[ebp]
  00282	8b cb		 mov	 ecx, ebx
  00284	50		 push	 eax
  00285	dd 9d 7c ff ff
	ff		 fstp	 QWORD PTR $T16[ebp]
  0028b	e8 00 00 00 00	 call	 ?GetDisplayDataVertMinMax@CSelectSubGraphData@@QBE?AVCDisplayDataMinMax@@XZ ; CSelectSubGraphData::GetDisplayDataVertMinMax
  00290	8b c8		 mov	 ecx, eax
  00292	ff 15 00 00 00
	00		 call	 DWORD PTR __imp_?GetDisplayMin@CDisplayDataMinMax@@QBENXZ
  00298	83 ec 08	 sub	 esp, 8
  0029b	8b cb		 mov	 ecx, ebx
  0029d	dd 1c 24	 fstp	 QWORD PTR [esp]
  002a0	e8 00 00 00 00	 call	 ?GetVertScaleLogType@CSelectSubGraphData@@QBE_NXZ ; CSelectSubGraphData::GetVertScaleLogType
  002a5	8b 4d a4	 mov	 ecx, DWORD PTR _this$GSCopy$1$[ebp]
  002a8	0f b6 c0	 movzx	 eax, al
  002ab	50		 push	 eax
  002ac	e8 00 00 00 00	 call	 ?CalLogValue@CDraw@@IAEN_NN@Z ; CDraw::CalLogValue
  002b1	6a 00		 push	 0
  002b3	8d 85 6c ff ff
	ff		 lea	 eax, DWORD PTR $T13[ebp]
  002b9	50		 push	 eax
  002ba	8d 85 7c ff ff
	ff		 lea	 eax, DWORD PTR $T16[ebp]
  002c0	50		 push	 eax
  002c1	8d 45 98	 lea	 eax, DWORD PTR $T21[ebp]
  002c4	50		 push	 eax
  002c5	8d 85 44 ff ff
	ff		 lea	 eax, DWORD PTR _realWidth$[ebp]
  002cb	50		 push	 eax
  002cc	56		 push	 esi
  002cd	8d 45 ec	 lea	 eax, DWORD PTR _graphRegion$[ebp]
  002d0	50		 push	 eax
  002d1	8d 85 08 ff ff
	ff		 lea	 eax, DWORD PTR _startDataPt$[ebp]
  002d7	50		 push	 eax
  002d8	dd 5d 98	 fstp	 QWORD PTR $T21[ebp]
  002db	e8 00 00 00 00	 call	 ?GetVerticalPoint@CDataConversion@@SA?AVCPoint@@ABVCRect@@HABN111_N@Z ; CDataConversion::GetVerticalPoint

; 179  : 	CPoint highDataPt = CDataConversion::GetVerticalPoint(graphRegion, nIndex, realWidth, CDraw::CalLogValue(pSelectSubGraphData->GetVertScaleLogType(), pSelectSubGraphData->GetDisplayDataVertMinMax().GetDisplayMin()), CDraw::CalLogValue(pSelectSubGraphData->GetVertScaleLogType(), pSelectSubGraphData->GetDisplayDataVertMinMax().GetDisplayMax()), CDraw::CalLogValue(pSelectSubGraphData->GetVertScaleLogType(), pHighPacket->GetnumericDataList()->GetNext(highDataPos)), true);

  002e0	8b 8d 60 ff ff
	ff		 mov	 ecx, DWORD PTR _pHighPacket$1$[ebp]
  002e6	83 c4 20	 add	 esp, 32			; 00000020H
  002e9	ff d7		 call	 edi
  002eb	8b 85 78 ff ff
	ff		 mov	 eax, DWORD PTR _highDataPos$1$[ebp]
  002f1	83 ec 08	 sub	 esp, 8
  002f4	8b cb		 mov	 ecx, ebx
  002f6	f2 0f 10 40 08	 movsd	 xmm0, QWORD PTR [eax+8]
  002fb	f2 0f 11 04 24	 movsd	 QWORD PTR [esp], xmm0
  00300	e8 00 00 00 00	 call	 ?GetVertScaleLogType@CSelectSubGraphData@@QBE_NXZ ; CSelectSubGraphData::GetVertScaleLogType
  00305	8b 4d a4	 mov	 ecx, DWORD PTR _this$GSCopy$1$[ebp]
  00308	0f b6 c0	 movzx	 eax, al
  0030b	50		 push	 eax
  0030c	e8 00 00 00 00	 call	 ?CalLogValue@CDraw@@IAEN_NN@Z ; CDraw::CalLogValue
  00311	8d 85 10 ff ff
	ff		 lea	 eax, DWORD PTR $T3[ebp]
  00317	8b cb		 mov	 ecx, ebx
  00319	50		 push	 eax
  0031a	dd 5d 98	 fstp	 QWORD PTR $T20[ebp]
  0031d	e8 00 00 00 00	 call	 ?GetDisplayDataVertMinMax@CSelectSubGraphData@@QBE?AVCDisplayDataMinMax@@XZ ; CSelectSubGraphData::GetDisplayDataVertMinMax
  00322	8b c8		 mov	 ecx, eax
  00324	ff 15 00 00 00
	00		 call	 DWORD PTR __imp_?GetDisplayMax@CDisplayDataMinMax@@QBENXZ
  0032a	83 ec 08	 sub	 esp, 8
  0032d	8b cb		 mov	 ecx, ebx
  0032f	dd 1c 24	 fstp	 QWORD PTR [esp]
  00332	e8 00 00 00 00	 call	 ?GetVertScaleLogType@CSelectSubGraphData@@QBE_NXZ ; CSelectSubGraphData::GetVertScaleLogType
  00337	8b 4d a4	 mov	 ecx, DWORD PTR _this$GSCopy$1$[ebp]
  0033a	0f b6 c0	 movzx	 eax, al
  0033d	50		 push	 eax
  0033e	e8 00 00 00 00	 call	 ?CalLogValue@CDraw@@IAEN_NN@Z ; CDraw::CalLogValue
  00343	8d 85 20 ff ff
	ff		 lea	 eax, DWORD PTR $T7[ebp]
  00349	8b cb		 mov	 ecx, ebx
  0034b	50		 push	 eax
  0034c	dd 9d 5c ff ff
	ff		 fstp	 QWORD PTR $T11[ebp]
  00352	e8 00 00 00 00	 call	 ?GetDisplayDataVertMinMax@CSelectSubGraphData@@QBE?AVCDisplayDataMinMax@@XZ ; CSelectSubGraphData::GetDisplayDataVertMinMax
  00357	8b c8		 mov	 ecx, eax
  00359	ff 15 00 00 00
	00		 call	 DWORD PTR __imp_?GetDisplayMin@CDisplayDataMinMax@@QBENXZ
  0035f	83 ec 08	 sub	 esp, 8
  00362	8b cb		 mov	 ecx, ebx
  00364	dd 1c 24	 fstp	 QWORD PTR [esp]
  00367	e8 00 00 00 00	 call	 ?GetVertScaleLogType@CSelectSubGraphData@@QBE_NXZ ; CSelectSubGraphData::GetVertScaleLogType
  0036c	8b 4d a4	 mov	 ecx, DWORD PTR _this$GSCopy$1$[ebp]
  0036f	0f b6 c0	 movzx	 eax, al
  00372	50		 push	 eax
  00373	e8 00 00 00 00	 call	 ?CalLogValue@CDraw@@IAEN_NN@Z ; CDraw::CalLogValue
  00378	6a 01		 push	 1
  0037a	8d 45 98	 lea	 eax, DWORD PTR $T20[ebp]
  0037d	50		 push	 eax
  0037e	8d 85 5c ff ff
	ff		 lea	 eax, DWORD PTR $T11[ebp]
  00384	50		 push	 eax
  00385	8d 85 64 ff ff
	ff		 lea	 eax, DWORD PTR $T12[ebp]
  0038b	50		 push	 eax
  0038c	8d 85 44 ff ff
	ff		 lea	 eax, DWORD PTR _realWidth$[ebp]
  00392	50		 push	 eax
  00393	56		 push	 esi
  00394	8d 45 ec	 lea	 eax, DWORD PTR _graphRegion$[ebp]
  00397	50		 push	 eax
  00398	8d 85 38 ff ff
	ff		 lea	 eax, DWORD PTR _highDataPt$[ebp]
  0039e	50		 push	 eax
  0039f	dd 9d 64 ff ff
	ff		 fstp	 QWORD PTR $T12[ebp]
  003a5	e8 00 00 00 00	 call	 ?GetVerticalPoint@CDataConversion@@SA?AVCPoint@@ABVCRect@@HABN111_N@Z ; CDataConversion::GetVerticalPoint

; 180  : 	CPoint lowDataPt = CDataConversion::GetVerticalPoint(graphRegion, nIndex, realWidth, CDraw::CalLogValue(pSelectSubGraphData->GetVertScaleLogType(), pSelectSubGraphData->GetDisplayDataVertMinMax().GetDisplayMin()), CDraw::CalLogValue(pSelectSubGraphData->GetVertScaleLogType(), pSelectSubGraphData->GetDisplayDataVertMinMax().GetDisplayMax()), CDraw::CalLogValue(pSelectSubGraphData->GetVertScaleLogType(), pLowPacket->GetnumericDataList()->GetNext(lowDataPos)), true);

  003aa	8b 8d 58 ff ff
	ff		 mov	 ecx, DWORD PTR _pLowPacket$1$[ebp]
  003b0	83 c4 20	 add	 esp, 32			; 00000020H
  003b3	ff d7		 call	 edi
  003b5	8b 45 94	 mov	 eax, DWORD PTR _lowDataPos$1$[ebp]
  003b8	83 ec 08	 sub	 esp, 8
  003bb	8b cb		 mov	 ecx, ebx
  003bd	f2 0f 10 40 08	 movsd	 xmm0, QWORD PTR [eax+8]
  003c2	f2 0f 11 04 24	 movsd	 QWORD PTR [esp], xmm0
  003c7	e8 00 00 00 00	 call	 ?GetVertScaleLogType@CSelectSubGraphData@@QBE_NXZ ; CSelectSubGraphData::GetVertScaleLogType
  003cc	8b 4d a4	 mov	 ecx, DWORD PTR _this$GSCopy$1$[ebp]
  003cf	0f b6 c0	 movzx	 eax, al
  003d2	50		 push	 eax
  003d3	e8 00 00 00 00	 call	 ?CalLogValue@CDraw@@IAEN_NN@Z ; CDraw::CalLogValue
  003d8	8d 85 10 ff ff
	ff		 lea	 eax, DWORD PTR $T2[ebp]
  003de	8b cb		 mov	 ecx, ebx
  003e0	50		 push	 eax
  003e1	dd 5d 98	 fstp	 QWORD PTR $T19[ebp]
  003e4	e8 00 00 00 00	 call	 ?GetDisplayDataVertMinMax@CSelectSubGraphData@@QBE?AVCDisplayDataMinMax@@XZ ; CSelectSubGraphData::GetDisplayDataVertMinMax
  003e9	8b c8		 mov	 ecx, eax
  003eb	ff 15 00 00 00
	00		 call	 DWORD PTR __imp_?GetDisplayMax@CDisplayDataMinMax@@QBENXZ
  003f1	83 ec 08	 sub	 esp, 8
  003f4	8b cb		 mov	 ecx, ebx
  003f6	dd 1c 24	 fstp	 QWORD PTR [esp]
  003f9	e8 00 00 00 00	 call	 ?GetVertScaleLogType@CSelectSubGraphData@@QBE_NXZ ; CSelectSubGraphData::GetVertScaleLogType
  003fe	8b 4d a4	 mov	 ecx, DWORD PTR _this$GSCopy$1$[ebp]
  00401	0f b6 c0	 movzx	 eax, al
  00404	50		 push	 eax
  00405	e8 00 00 00 00	 call	 ?CalLogValue@CDraw@@IAEN_NN@Z ; CDraw::CalLogValue
  0040a	8d 85 20 ff ff
	ff		 lea	 eax, DWORD PTR $T6[ebp]
  00410	8b cb		 mov	 ecx, ebx
  00412	50		 push	 eax
  00413	dd 9d 74 ff ff
	ff		 fstp	 QWORD PTR $T15[ebp]
  00419	e8 00 00 00 00	 call	 ?GetDisplayDataVertMinMax@CSelectSubGraphData@@QBE?AVCDisplayDataMinMax@@XZ ; CSelectSubGraphData::GetDisplayDataVertMinMax
  0041e	8b c8		 mov	 ecx, eax
  00420	ff 15 00 00 00
	00		 call	 DWORD PTR __imp_?GetDisplayMin@CDisplayDataMinMax@@QBENXZ
  00426	83 ec 08	 sub	 esp, 8
  00429	8b cb		 mov	 ecx, ebx
  0042b	dd 1c 24	 fstp	 QWORD PTR [esp]
  0042e	e8 00 00 00 00	 call	 ?GetVertScaleLogType@CSelectSubGraphData@@QBE_NXZ ; CSelectSubGraphData::GetVertScaleLogType
  00433	0f b6 c0	 movzx	 eax, al
  00436	8b 4d a4	 mov	 ecx, DWORD PTR _this$GSCopy$1$[ebp]
  00439	50		 push	 eax
  0043a	e8 00 00 00 00	 call	 ?CalLogValue@CDraw@@IAEN_NN@Z ; CDraw::CalLogValue
  0043f	6a 01		 push	 1
  00441	8d 45 98	 lea	 eax, DWORD PTR $T19[ebp]
  00444	50		 push	 eax
  00445	8d 85 74 ff ff
	ff		 lea	 eax, DWORD PTR $T15[ebp]
  0044b	50		 push	 eax
  0044c	8d 85 54 ff ff
	ff		 lea	 eax, DWORD PTR $T10[ebp]
  00452	50		 push	 eax
  00453	8d 85 44 ff ff
	ff		 lea	 eax, DWORD PTR _realWidth$[ebp]
  00459	50		 push	 eax
  0045a	56		 push	 esi
  0045b	8d 45 ec	 lea	 eax, DWORD PTR _graphRegion$[ebp]
  0045e	50		 push	 eax
  0045f	8d 85 30 ff ff
	ff		 lea	 eax, DWORD PTR _lowDataPt$[ebp]
  00465	50		 push	 eax
  00466	dd 9d 54 ff ff
	ff		 fstp	 QWORD PTR $T10[ebp]
  0046c	e8 00 00 00 00	 call	 ?GetVerticalPoint@CDataConversion@@SA?AVCPoint@@ABVCRect@@HABN111_N@Z ; CDataConversion::GetVerticalPoint

; 181  : 	CPoint endDataPt = CDataConversion::GetVerticalPoint(graphRegion, nIndex + 1, realWidth, CDraw::CalLogValue(pSelectSubGraphData->GetVertScaleLogType(), pSelectSubGraphData->GetDisplayDataVertMinMax().GetDisplayMin()), CDraw::CalLogValue(pSelectSubGraphData->GetVertScaleLogType(), pSelectSubGraphData->GetDisplayDataVertMinMax().GetDisplayMax()), CDraw::CalLogValue(pSelectSubGraphData->GetVertScaleLogType(), pClosePacket->GetnumericDataList()->GetNext(endDataPos)), false);

  00471	8b 8d 50 ff ff
	ff		 mov	 ecx, DWORD PTR _pClosePacket$1$[ebp]
  00477	83 c4 20	 add	 esp, 32			; 00000020H
  0047a	ff d7		 call	 edi
  0047c	8b 45 90	 mov	 eax, DWORD PTR _endDataPos$1$[ebp]
  0047f	83 ec 08	 sub	 esp, 8
  00482	8b cb		 mov	 ecx, ebx
  00484	f2 0f 10 40 08	 movsd	 xmm0, QWORD PTR [eax+8]
  00489	f2 0f 11 04 24	 movsd	 QWORD PTR [esp], xmm0
  0048e	e8 00 00 00 00	 call	 ?GetVertScaleLogType@CSelectSubGraphData@@QBE_NXZ ; CSelectSubGraphData::GetVertScaleLogType
  00493	8b 7d a4	 mov	 edi, DWORD PTR _this$GSCopy$1$[ebp]
  00496	8b cf		 mov	 ecx, edi
  00498	0f b6 c0	 movzx	 eax, al
  0049b	50		 push	 eax
  0049c	e8 00 00 00 00	 call	 ?CalLogValue@CDraw@@IAEN_NN@Z ; CDraw::CalLogValue
  004a1	8d 85 10 ff ff
	ff		 lea	 eax, DWORD PTR $T1[ebp]
  004a7	8b cb		 mov	 ecx, ebx
  004a9	50		 push	 eax
  004aa	dd 5d 98	 fstp	 QWORD PTR $T18[ebp]
  004ad	e8 00 00 00 00	 call	 ?GetDisplayDataVertMinMax@CSelectSubGraphData@@QBE?AVCDisplayDataMinMax@@XZ ; CSelectSubGraphData::GetDisplayDataVertMinMax
  004b2	8b c8		 mov	 ecx, eax
  004b4	ff 15 00 00 00
	00		 call	 DWORD PTR __imp_?GetDisplayMax@CDisplayDataMinMax@@QBENXZ
  004ba	83 ec 08	 sub	 esp, 8
  004bd	8b cb		 mov	 ecx, ebx
  004bf	dd 1c 24	 fstp	 QWORD PTR [esp]
  004c2	e8 00 00 00 00	 call	 ?GetVertScaleLogType@CSelectSubGraphData@@QBE_NXZ ; CSelectSubGraphData::GetVertScaleLogType
  004c7	0f b6 c0	 movzx	 eax, al
  004ca	8b cf		 mov	 ecx, edi
  004cc	50		 push	 eax
  004cd	e8 00 00 00 00	 call	 ?CalLogValue@CDraw@@IAEN_NN@Z ; CDraw::CalLogValue
  004d2	8d 85 20 ff ff
	ff		 lea	 eax, DWORD PTR $T5[ebp]
  004d8	8b cb		 mov	 ecx, ebx
  004da	50		 push	 eax
  004db	dd 9d 74 ff ff
	ff		 fstp	 QWORD PTR $T14[ebp]
  004e1	e8 00 00 00 00	 call	 ?GetDisplayDataVertMinMax@CSelectSubGraphData@@QBE?AVCDisplayDataMinMax@@XZ ; CSelectSubGraphData::GetDisplayDataVertMinMax
  004e6	8b c8		 mov	 ecx, eax
  004e8	ff 15 00 00 00
	00		 call	 DWORD PTR __imp_?GetDisplayMin@CDisplayDataMinMax@@QBENXZ
  004ee	83 ec 08	 sub	 esp, 8
  004f1	8b cb		 mov	 ecx, ebx
  004f3	dd 1c 24	 fstp	 QWORD PTR [esp]
  004f6	e8 00 00 00 00	 call	 ?GetVertScaleLogType@CSelectSubGraphData@@QBE_NXZ ; CSelectSubGraphData::GetVertScaleLogType
  004fb	0f b6 c0	 movzx	 eax, al
  004fe	8b cf		 mov	 ecx, edi
  00500	50		 push	 eax
  00501	e8 00 00 00 00	 call	 ?CalLogValue@CDraw@@IAEN_NN@Z ; CDraw::CalLogValue
  00506	6a 00		 push	 0
  00508	8d 45 98	 lea	 eax, DWORD PTR $T18[ebp]
  0050b	50		 push	 eax
  0050c	8d 85 74 ff ff
	ff		 lea	 eax, DWORD PTR $T14[ebp]
  00512	50		 push	 eax
  00513	8d 85 4c ff ff
	ff		 lea	 eax, DWORD PTR $T9[ebp]
  00519	50		 push	 eax
  0051a	8d 85 44 ff ff
	ff		 lea	 eax, DWORD PTR _realWidth$[ebp]
  00520	50		 push	 eax
  00521	8d 46 01	 lea	 eax, DWORD PTR [esi+1]
  00524	50		 push	 eax
  00525	8d 45 ec	 lea	 eax, DWORD PTR _graphRegion$[ebp]
  00528	50		 push	 eax
  00529	8d 85 00 ff ff
	ff		 lea	 eax, DWORD PTR _endDataPt$[ebp]
  0052f	50		 push	 eax
  00530	dd 9d 4c ff ff
	ff		 fstp	 QWORD PTR $T9[ebp]
  00536	e8 00 00 00 00	 call	 ?GetVerticalPoint@CDataConversion@@SA?AVCPoint@@ABVCRect@@HABN111_N@Z ; CDataConversion::GetVerticalPoint
  0053b	83 c4 20	 add	 esp, 32			; 00000020H

; 182  : 
; 183  : ///	int bongWidth = int(realWidth*0.8);
; 184  : 
; 185  : 	//invert scale .
; 186  : 	CPoint mousePoint = point;

  0053e	8b 75 8c	 mov	 esi, DWORD PTR _point$GSCopy$1$[ebp]

; 187  : 	if(pSelectSubGraphData->GetVertScaleInvertType())

  00541	8b cb		 mov	 ecx, ebx
  00543	8b 06		 mov	 eax, DWORD PTR [esi]
  00545	8b 7e 04	 mov	 edi, DWORD PTR [esi+4]
  00548	89 45 90	 mov	 DWORD PTR _mousePoint$2$[ebp], eax
  0054b	e8 00 00 00 00	 call	 ?GetVertScaleInvertType@CSelectSubGraphData@@QBE_NXZ ; CSelectSubGraphData::GetVertScaleInvertType
  00550	84 c0		 test	 al, al
  00552	74 11		 je	 SHORT $LN11@PointInBon

; 188  : 		mousePoint.y = CDataConversion::InvertGraphDataPt(graphRegion, point.y);

  00554	ff 76 04	 push	 DWORD PTR [esi+4]
  00557	8d 45 ec	 lea	 eax, DWORD PTR _graphRegion$[ebp]
  0055a	50		 push	 eax
  0055b	e8 00 00 00 00	 call	 ?InvertGraphDataPt@CDataConversion@@SAHABVCRect@@H@Z ; CDataConversion::InvertGraphDataPt
  00560	83 c4 08	 add	 esp, 8
  00563	8b f8		 mov	 edi, eax
$LN11@PointInBon:

; 189  : 
; 190  : 
; 191  : 	startDataPt.x = area.left;

  00565	0f bf 55 84	 movsx	 edx, WORD PTR _area$[ebp]

; 192  : 	endDataPt.x = area.right;

  00569	0f bf 4d 88	 movsx	 ecx, WORD PTR _area$[ebp+4]

; 193  : 
; 194  : ///	if(highDataPt.y <= mousePoint.y && lowDataPt.y >= mousePoint.y && mousePoint.x >= highDataPt.x - bongWidth && mousePoint.x <= highDataPt.x + bongWidth)
; 195  : 	if(highDataPt.y <= mousePoint.y && lowDataPt.y >= mousePoint.y && mousePoint.x >= startDataPt.x && mousePoint.x <= endDataPt.x)

  0056d	39 bd 3c ff ff
	ff		 cmp	 DWORD PTR _highDataPt$[ebp+4], edi
  00573	7f 29		 jg	 SHORT $LN4@PointInBon
  00575	39 bd 34 ff ff
	ff		 cmp	 DWORD PTR _lowDataPt$[ebp+4], edi
  0057b	7c 21		 jl	 SHORT $LN4@PointInBon
  0057d	8b 45 90	 mov	 eax, DWORD PTR _mousePoint$2$[ebp]
  00580	3b c2		 cmp	 eax, edx
  00582	7c 1a		 jl	 SHORT $LN4@PointInBon
  00584	3b c1		 cmp	 eax, ecx
  00586	7f 16		 jg	 SHORT $LN4@PointInBon

; 196  : 		return dataIndex;

  00588	8b 45 a0	 mov	 eax, DWORD PTR _dataIndex$[ebp]

; 197  : 		
; 198  : 	return -1;
; 199  : }

  0058b	5f		 pop	 edi
  0058c	5e		 pop	 esi
  0058d	5b		 pop	 ebx
  0058e	8b 4d fc	 mov	 ecx, DWORD PTR __$ArrayPad$[ebp]
  00591	33 cd		 xor	 ecx, ebp
  00593	e8 00 00 00 00	 call	 @__security_check_cookie@4
  00598	8b e5		 mov	 esp, ebp
  0059a	5d		 pop	 ebp
  0059b	c2 08 00	 ret	 8
$LN4@PointInBon:
  0059e	8b 4d fc	 mov	 ecx, DWORD PTR __$ArrayPad$[ebp]
  005a1	83 c8 ff	 or	 eax, -1
  005a4	5f		 pop	 edi
  005a5	5e		 pop	 esi
  005a6	33 cd		 xor	 ecx, ebp
  005a8	5b		 pop	 ebx
  005a9	e8 00 00 00 00	 call	 @__security_check_cookie@4
  005ae	8b e5		 mov	 esp, ebp
  005b0	5d		 pop	 ebp
  005b1	c2 08 00	 ret	 8
?PointInBongGraph@CSelectSubGraph@@AAEHABVCPoint@@PBVCSelectSubGraphData@@@Z ENDP ; CSelectSubGraph::PointInBongGraph
_TEXT	ENDS
; Function compile flags: /Ogtp
; File D:\git\src\IBK\IBK_DRFN\ProjSrc\SrcChartEx\ChartOCX\GraphDraw\SelectSubGraph.cpp
; File C:\Program Files (x86)\Microsoft Visual Studio\2019\Community\VC\Tools\MSVC\14.29.30133\atlmfc\include\afxtempl.h
; File D:\git\src\IBK\IBK_DRFN\ProjSrc\SrcChartEx\ChartOCX\GraphDraw\SelectSubGraph.cpp
; File C:\Program Files (x86)\Microsoft Visual Studio\2019\Community\VC\Tools\MSVC\14.29.30133\atlmfc\include\afxtempl.h
; File D:\git\src\IBK\IBK_DRFN\ProjSrc\SrcChartEx\ChartOCX\GraphDraw\SelectSubGraph.cpp
; File C:\Program Files (x86)\Microsoft Visual Studio\2019\Community\VC\Tools\MSVC\14.29.30133\atlmfc\include\afxtempl.h
; File D:\git\src\IBK\IBK_DRFN\ProjSrc\SrcChartEx\ChartOCX\GraphDraw\SelectSubGraph.cpp
;	COMDAT ?GetPacketData_InverseLineGraph@CSelectSubGraph@@QBE_NPBVCSelectSubGraphData@@AAHAAPAV?$CList@NN@@2AAPAU__POSITION@@3331@Z
_TEXT	SEGMENT
_pSelectSubGraphData$ = 8				; size = 4
_nDataCount$ = 12					; size = 4
_pCloseDataList$ = 16					; size = 4
_pVolumeDataList$ = 20					; size = 4
_closeStartPos$ = 24					; size = 4
_closeEndPos$ = 28					; size = 4
_volumeStartPos$ = 32					; size = 4
_volumeEndPos$ = 36					; size = 4
_p_nStartIndex$ = 40					; size = 4
?GetPacketData_InverseLineGraph@CSelectSubGraph@@QBE_NPBVCSelectSubGraphData@@AAHAAPAV?$CList@NN@@2AAPAU__POSITION@@3331@Z PROC ; CSelectSubGraph::GetPacketData_InverseLineGraph, COMDAT
; _this$ = ecx

; 1198 : {

  00000	55		 push	 ebp
  00001	8b ec		 mov	 ebp, esp
  00003	56		 push	 esi

; 1199 : 	if(pSelectSubGraphData == NULL || pSelectSubGraphData->GetSubGraphPacketList() == NULL)

  00004	8b 75 08	 mov	 esi, DWORD PTR _pSelectSubGraphData$[ebp]
  00007	57		 push	 edi
  00008	85 f6		 test	 esi, esi
  0000a	0f 84 db 00 00
	00		 je	 $LN3@GetPacketD
  00010	8b ce		 mov	 ecx, esi
  00012	e8 00 00 00 00	 call	 ?GetSubGraphPacketList@CSelectSubGraphData@@QBEPAVCSubGraphPacketList@@XZ ; CSelectSubGraphData::GetSubGraphPacketList
  00017	85 c0		 test	 eax, eax
  00019	0f 84 cc 00 00
	00		 je	 $LN3@GetPacketD

; 1200 : 		return false;
; 1201 : 
; 1202 : 	const CList< CPacket *, CPacket *> &packetList = pSelectSubGraphData->GetSubGraphPacketList()->GetSubGraphPacketList();

  0001f	8b ce		 mov	 ecx, esi
  00021	e8 00 00 00 00	 call	 ?GetSubGraphPacketList@CSelectSubGraphData@@QBEPAVCSubGraphPacketList@@XZ ; CSelectSubGraphData::GetSubGraphPacketList
  00026	8b c8		 mov	 ecx, eax
  00028	e8 00 00 00 00	 call	 ?GetSubGraphPacketList@CSubGraphPacketList@@QBEABV?$CList@PAVCPacket@@PAV1@@@XZ ; CSubGraphPacketList::GetSubGraphPacketList
  0002d	8b f0		 mov	 esi, eax

; 1203 : 	if( packetList.GetCount() < 2)

  0002f	83 7e 0c 02	 cmp	 DWORD PTR [esi+12], 2
  00033	0f 8c b2 00 00
	00		 jl	 $LN3@GetPacketD
; File C:\Program Files (x86)\Microsoft Visual Studio\2019\Community\VC\Tools\MSVC\14.29.30133\atlmfc\include\afxtempl.h

; 793  : 	{ ENSURE(m_pNodeHead != NULL);

  00039	8b 7e 04	 mov	 edi, DWORD PTR [esi+4]
  0003c	85 ff		 test	 edi, edi
  0003e	0f 84 af 00 00
	00		 je	 $LN33@GetPacketD
; File D:\git\src\IBK\IBK_DRFN\ProjSrc\SrcChartEx\ChartOCX\GraphDraw\SelectSubGraph.cpp

; 1208 : 	if(pClosePacket == NULL)

  00044	8b 7f 08	 mov	 edi, DWORD PTR [edi+8]
  00047	85 ff		 test	 edi, edi
  00049	0f 84 9c 00 00
	00		 je	 $LN3@GetPacketD

; 1209 : 		return false;
; 1210 : 	pCloseDataList = pClosePacket->GetnumericDataList();

  0004f	8b cf		 mov	 ecx, edi
  00051	ff 15 00 00 00
	00		 call	 DWORD PTR __imp_?GetnumericDataList@CPacket@@QAEPAV?$CList@NN@@XZ
  00057	8b 4d 10	 mov	 ecx, DWORD PTR _pCloseDataList$[ebp]
  0005a	89 01		 mov	 DWORD PTR [ecx], eax

; 1211 : 	if(pCloseDataList == NULL)

  0005c	85 c0		 test	 eax, eax
  0005e	0f 84 87 00 00
	00		 je	 $LN3@GetPacketD

; 1212 : 		return false;
; 1213 : 	p_nStartIndex = pClosePacket->GetStartPeriod();

  00064	8b cf		 mov	 ecx, edi
  00066	ff 15 00 00 00
	00		 call	 DWORD PTR __imp_?GetStartPeriod@CPacket@@QAEHXZ
  0006c	8b 4d 28	 mov	 ecx, DWORD PTR _p_nStartIndex$[ebp]

; 1214 : 	closeStartPos = closeEndPos = pCloseDataList->FindIndex( p_nStartIndex);

  0006f	8b 7d 10	 mov	 edi, DWORD PTR _pCloseDataList$[ebp]
  00072	50		 push	 eax
  00073	89 01		 mov	 DWORD PTR [ecx], eax
  00075	8b 0f		 mov	 ecx, DWORD PTR [edi]
  00077	e8 00 00 00 00	 call	 ?FindIndex@?$CList@NN@@QBEPAU__POSITION@@H@Z ; CList<double,double>::FindIndex
  0007c	8b 4d 1c	 mov	 ecx, DWORD PTR _closeEndPos$[ebp]
  0007f	89 01		 mov	 DWORD PTR [ecx], eax
  00081	8b 4d 18	 mov	 ecx, DWORD PTR _closeStartPos$[ebp]
  00084	89 01		 mov	 DWORD PTR [ecx], eax
; File C:\Program Files (x86)\Microsoft Visual Studio\2019\Community\VC\Tools\MSVC\14.29.30133\atlmfc\include\afxtempl.h

; 1133 : 	if (nIndex >= m_nCount || nIndex < 0)

  00086	83 7e 0c 01	 cmp	 DWORD PTR [esi+12], 1
  0008a	7e 07		 jle	 SHORT $LN24@GetPacketD

; 1135 : 
; 1136 : 	CNode* pNode = m_pNodeHead;

  0008c	8b 46 04	 mov	 eax, DWORD PTR [esi+4]

; 1137 : 	while (nIndex--)
; 1138 : 	{
; 1139 : 		ASSERT(AfxIsValidAddress(pNode, sizeof(CNode)));
; 1140 : 		pNode = pNode->pNext;
; 1141 : 	}
; 1142 : 	return (POSITION) pNode;

  0008f	8b 00		 mov	 eax, DWORD PTR [eax]
  00091	eb 02		 jmp	 SHORT $LN20@GetPacketD
$LN24@GetPacketD:

; 1134 : 		return NULL;  // went too far

  00093	33 c0		 xor	 eax, eax
$LN20@GetPacketD:
; File D:\git\src\IBK\IBK_DRFN\ProjSrc\SrcChartEx\ChartOCX\GraphDraw\SelectSubGraph.cpp

; 1217 : 	CPacket* pVolumePacket = packetList.GetAt(packetList.FindIndex(1));

  00095	8b 48 08	 mov	 ecx, DWORD PTR [eax+8]

; 1218 : 	if(pVolumePacket == NULL)

  00098	85 c9		 test	 ecx, ecx
  0009a	74 4f		 je	 SHORT $LN3@GetPacketD

; 1219 : 		return false;
; 1220 : 	pVolumeDataList = pVolumePacket->GetnumericDataList();

  0009c	ff 15 00 00 00
	00		 call	 DWORD PTR __imp_?GetnumericDataList@CPacket@@QAEPAV?$CList@NN@@XZ
  000a2	8b 75 14	 mov	 esi, DWORD PTR _pVolumeDataList$[ebp]
  000a5	89 06		 mov	 DWORD PTR [esi], eax

; 1221 : 	if(pVolumeDataList == NULL)

  000a7	85 c0		 test	 eax, eax
  000a9	74 40		 je	 SHORT $LN3@GetPacketD

; 1222 : 		return false;
; 1223 : 	volumeStartPos = volumeEndPos = pVolumeDataList->FindIndex( p_nStartIndex);

  000ab	8b 4d 28	 mov	 ecx, DWORD PTR _p_nStartIndex$[ebp]
  000ae	ff 31		 push	 DWORD PTR [ecx]
  000b0	8b c8		 mov	 ecx, eax
  000b2	e8 00 00 00 00	 call	 ?FindIndex@?$CList@NN@@QBEPAU__POSITION@@H@Z ; CList<double,double>::FindIndex
  000b7	8b 4d 24	 mov	 ecx, DWORD PTR _volumeEndPos$[ebp]
  000ba	8b 55 20	 mov	 edx, DWORD PTR _volumeStartPos$[ebp]
  000bd	89 01		 mov	 DWORD PTR [ecx], eax
  000bf	89 02		 mov	 DWORD PTR [edx], eax

; 1224 : 
; 1225 : 	nDataCount = pCloseDataList->GetCount();

  000c1	8b 07		 mov	 eax, DWORD PTR [edi]
  000c3	8b 7d 0c	 mov	 edi, DWORD PTR _nDataCount$[ebp]
  000c6	8b 48 0c	 mov	 ecx, DWORD PTR [eax+12]
  000c9	89 0f		 mov	 DWORD PTR [edi], ecx

; 1226 : 	if(nDataCount > pVolumeDataList->GetCount())

  000cb	8b 06		 mov	 eax, DWORD PTR [esi]
  000cd	8b 40 0c	 mov	 eax, DWORD PTR [eax+12]
  000d0	3b c8		 cmp	 ecx, eax
  000d2	7e 02		 jle	 SHORT $LN9@GetPacketD

; 1227 : 		nDataCount = pVolumeDataList->GetCount();

  000d4	89 07		 mov	 DWORD PTR [edi], eax
$LN9@GetPacketD:

; 1228 : 
; 1229 : 	return (closeStartPos != NULL && volumeStartPos != NULL);

  000d6	8b 45 18	 mov	 eax, DWORD PTR _closeStartPos$[ebp]
  000d9	83 38 00	 cmp	 DWORD PTR [eax], 0
  000dc	74 0d		 je	 SHORT $LN3@GetPacketD
  000de	83 3a 00	 cmp	 DWORD PTR [edx], 0
  000e1	74 08		 je	 SHORT $LN3@GetPacketD
  000e3	5f		 pop	 edi
  000e4	b0 01		 mov	 al, 1

; 1230 : }

  000e6	5e		 pop	 esi
  000e7	5d		 pop	 ebp
  000e8	c2 24 00	 ret	 36			; 00000024H
$LN3@GetPacketD:
  000eb	5f		 pop	 edi
  000ec	32 c0		 xor	 al, al
  000ee	5e		 pop	 esi
  000ef	5d		 pop	 ebp
  000f0	c2 24 00	 ret	 36			; 00000024H
$LN33@GetPacketD:
; File C:\Program Files (x86)\Microsoft Visual Studio\2019\Community\VC\Tools\MSVC\14.29.30133\atlmfc\include\afxtempl.h

; 793  : 	{ ENSURE(m_pNodeHead != NULL);

  000f3	e8 00 00 00 00	 call	 ?AfxThrowInvalidArgException@@YGXXZ ; AfxThrowInvalidArgException
$LN31@GetPacketD:
  000f8	cc		 int	 3
?GetPacketData_InverseLineGraph@CSelectSubGraph@@QBE_NPBVCSelectSubGraphData@@AAHAAPAV?$CList@NN@@2AAPAU__POSITION@@3331@Z ENDP ; CSelectSubGraph::GetPacketData_InverseLineGraph
_TEXT	ENDS
; Function compile flags: /Ogtp
; File D:\git\src\IBK\IBK_DRFN\ProjSrc\SrcChartEx\ChartOCX\GraphDraw\SelectSubGraph.cpp
;	COMDAT ?PointInSubGraph@CSelectSubGraph@@QAEHABVCPoint@@PBVCSelectSubGraphData@@PAVCIndicatorList@@@Z
_TEXT	SEGMENT
_point$ = 8						; size = 4
$T1 = 12						; size = 4
_pSelectSubGraphData$ = 12				; size = 4
$T2 = 16						; size = 4
$T3 = 16						; size = 4
$T4 = 16						; size = 4
$T5 = 16						; size = 4
_pIndicatorList$ = 16					; size = 4
?PointInSubGraph@CSelectSubGraph@@QAEHABVCPoint@@PBVCSelectSubGraphData@@PAVCIndicatorList@@@Z PROC ; CSelectSubGraph::PointInSubGraph, COMDAT
; _this$ = ecx

; 41   : {

  00000	55		 push	 ebp
  00001	8b ec		 mov	 ebp, esp
  00003	56		 push	 esi

; 42   : 	if(pSelectSubGraphData == NULL || pSelectSubGraphData->GetSubGraphPacketList() == NULL)

  00004	8b 75 0c	 mov	 esi, DWORD PTR _pSelectSubGraphData$[ebp]
  00007	57		 push	 edi
  00008	8b f9		 mov	 edi, ecx
  0000a	85 f6		 test	 esi, esi
  0000c	0f 84 5b 01 00
	00		 je	 $LN11@PointInSub
  00012	8b ce		 mov	 ecx, esi
  00014	e8 00 00 00 00	 call	 ?GetSubGraphPacketList@CSelectSubGraphData@@QBEPAVCSubGraphPacketList@@XZ ; CSelectSubGraphData::GetSubGraphPacketList
  00019	85 c0		 test	 eax, eax
  0001b	0f 84 4c 01 00
	00		 je	 $LN11@PointInSub

; 44   : 
; 45   : 	switch(pSelectSubGraphData->GetSubGraphType()){

  00021	8b ce		 mov	 ecx, esi
  00023	e8 00 00 00 00	 call	 ?GetSubGraphType@CSelectSubGraphData@@QBE?AW4GRAPHTYPE@CGraphBaseData@@XZ ; CSelectSubGraphData::GetSubGraphType
  00028	83 f8 07	 cmp	 eax, 7
  0002b	0f 87 3c 01 00
	00		 ja	 $LN11@PointInSub
  00031	ff 24 85 00 00
	00 00		 jmp	 DWORD PTR $LN39@PointInSub[eax*4]
$LN12@PointInSub:

; 46   : 	case CGraphBaseData::Bong_Type:
; 47   : 		{
; 48   : 			if(pSelectSubGraphData->GetSubGraphStyle().GetGraphBongStyle() == CGraphBaseData::Line_Draw)

  00038	8d 45 10	 lea	 eax, DWORD PTR $T5[ebp]
  0003b	8b ce		 mov	 ecx, esi
  0003d	50		 push	 eax
  0003e	e8 00 00 00 00	 call	 ?GetSubGraphStyle@CSelectSubGraphData@@QBE?AVCGraphStyle@@XZ ; CSelectSubGraphData::GetSubGraphStyle
  00043	56		 push	 esi
  00044	ff 75 08	 push	 DWORD PTR _point$[ebp]
  00047	8b cf		 mov	 ecx, edi
  00049	83 38 02	 cmp	 DWORD PTR [eax], 2
  0004c	0f 84 b1 00 00
	00		 je	 $LN42@PointInSub

; 49   : 					return PointInLineGraph(point, pSelectSubGraphData);
; 50   : 			return PointInBongGraph(point, pSelectSubGraphData);

  00052	e8 00 00 00 00	 call	 ?PointInBongGraph@CSelectSubGraph@@AAEHABVCPoint@@PBVCSelectSubGraphData@@@Z ; CSelectSubGraph::PointInBongGraph
  00057	5f		 pop	 edi

; 115  : 		return -1;
; 116  : 	}
; 117  : 
; 118  : 	return -1;	
; 119  : }

  00058	5e		 pop	 esi
  00059	5d		 pop	 ebp
  0005a	c2 0c 00	 ret	 12			; 0000000cH
$LN14@PointInSub:

; 51   : 		}
; 52   : 	case CGraphBaseData::Bar_Type:
; 53   : 		{
; 54   : 			switch(pSelectSubGraphData->GetSubGraphStyle().GetGraphBarStyle()){

  0005d	8d 45 0c	 lea	 eax, DWORD PTR $T1[ebp]
  00060	8b ce		 mov	 ecx, esi
  00062	50		 push	 eax
  00063	e8 00 00 00 00	 call	 ?GetSubGraphStyle@CSelectSubGraphData@@QBE?AVCGraphStyle@@XZ ; CSelectSubGraphData::GetSubGraphStyle
  00068	8b 00		 mov	 eax, DWORD PTR [eax]
  0006a	83 f8 10	 cmp	 eax, 16			; 00000010H
  0006d	0f 87 fa 00 00
	00		 ja	 $LN11@PointInSub
  00073	0f b6 80 00 00
	00 00		 movzx	 eax, BYTE PTR $LN40@PointInSub[eax]
  0007a	ff 24 85 00 00
	00 00		 jmp	 DWORD PTR $LN41@PointInSub[eax*4]
$LN15@PointInSub:

; 55   : 			case CGraphBaseData::VerticalBar:
; 56   : 			case CGraphBaseData::HorizontalBar:
; 57   : 			case CGraphBaseData::UpDownBar:
; 58   : 			//   - ojtaso (20080603)
; 59   : 			case CGraphBaseData::FixedRateUpDownBar:
; 60   : 			case CGraphBaseData::TextHorizontalBar:
; 61   : 
; 62   : 			/// ... 2002 12 3 
; 63   : 			case CGraphBaseData::UpDownHighLowBar:
; 64   : 				return PointInBarGraph(point, pSelectSubGraphData, pIndicatorList);

  00081	ff 75 10	 push	 DWORD PTR _pIndicatorList$[ebp]
  00084	8b cf		 mov	 ecx, edi
  00086	56		 push	 esi
  00087	ff 75 08	 push	 DWORD PTR _point$[ebp]
  0008a	e8 00 00 00 00	 call	 ?PointInBarGraph@CSelectSubGraph@@AAEHABVCPoint@@PBVCSelectSubGraphData@@PAVCIndicatorList@@@Z ; CSelectSubGraph::PointInBarGraph
  0008f	5f		 pop	 edi

; 115  : 		return -1;
; 116  : 	}
; 117  : 
; 118  : 	return -1;	
; 119  : }

  00090	5e		 pop	 esi
  00091	5d		 pop	 ebp
  00092	c2 0c 00	 ret	 12			; 0000000cH
$LN21@PointInSub:

; 65   : 			case CGraphBaseData::CombBar:
; 66   : 				return PointInCombBarGraph(point, pSelectSubGraphData, pIndicatorList);

  00095	ff 75 10	 push	 DWORD PTR _pIndicatorList$[ebp]
  00098	8b cf		 mov	 ecx, edi
  0009a	56		 push	 esi
  0009b	ff 75 08	 push	 DWORD PTR _point$[ebp]
  0009e	e8 00 00 00 00	 call	 ?PointInCombBarGraph@CSelectSubGraph@@AAEHABVCPoint@@PBVCSelectSubGraphData@@PAVCIndicatorList@@@Z ; CSelectSubGraph::PointInCombBarGraph
  000a3	5f		 pop	 edi

; 115  : 		return -1;
; 116  : 	}
; 117  : 
; 118  : 	return -1;	
; 119  : }

  000a4	5e		 pop	 esi
  000a5	5d		 pop	 ebp
  000a6	c2 0c 00	 ret	 12			; 0000000cH
$LN22@PointInSub:

; 67   : 			case CGraphBaseData::DotBar:
; 68   : 				return PointInDotBarGraph(point, pSelectSubGraphData, pIndicatorList);

  000a9	ff 75 10	 push	 DWORD PTR _pIndicatorList$[ebp]
  000ac	8b cf		 mov	 ecx, edi
  000ae	56		 push	 esi
  000af	ff 75 08	 push	 DWORD PTR _point$[ebp]
  000b2	e8 00 00 00 00	 call	 ?PointInDotBarGraph@CSelectSubGraph@@AAEHABVCPoint@@PBVCSelectSubGraphData@@PAVCIndicatorList@@@Z ; CSelectSubGraph::PointInDotBarGraph
  000b7	5f		 pop	 edi

; 115  : 		return -1;
; 116  : 	}
; 117  : 
; 118  : 	return -1;	
; 119  : }

  000b8	5e		 pop	 esi
  000b9	5d		 pop	 ebp
  000ba	c2 0c 00	 ret	 12			; 0000000cH
$LN23@PointInSub:

; 69   : 
; 70   : 			/// ... 2002 12 5 
; 71   : 			case CGraphBaseData::BoxBar:
; 72   : 				return PointInBoxBarGraph(point, pSelectSubGraphData, pIndicatorList);

  000bd	ff 75 10	 push	 DWORD PTR _pIndicatorList$[ebp]
  000c0	8b cf		 mov	 ecx, edi
  000c2	56		 push	 esi
  000c3	ff 75 08	 push	 DWORD PTR _point$[ebp]
  000c6	e8 00 00 00 00	 call	 ?PointInBoxBarGraph@CSelectSubGraph@@AAEHABVCPoint@@PBVCSelectSubGraphData@@PAVCIndicatorList@@@Z ; CSelectSubGraph::PointInBoxBarGraph
  000cb	5f		 pop	 edi

; 115  : 		return -1;
; 116  : 	}
; 117  : 
; 118  : 	return -1;	
; 119  : }

  000cc	5e		 pop	 esi
  000cd	5d		 pop	 ebp
  000ce	c2 0c 00	 ret	 12			; 0000000cH
$LN26@PointInSub:

; 73   : 			case CGraphBaseData::LeftRightBar:
; 74   : 				return PointInLeftRightBarGraph(point, pSelectSubGraphData, pIndicatorList);
; 75   : 			case CGraphBaseData::GroupBar:
; 76   : 				return PointInGroupBarGraph(point, pSelectSubGraphData, pIndicatorList);
; 77   : 			}
; 78   : 			return -1;
; 79   : 		}
; 80   : 	case CGraphBaseData::DataView_Type:
; 81   : 		{
; 82   : 			switch(pSelectSubGraphData->GetSubGraphStyle().GetGraphDataViewStyle())

  000d1	8d 45 10	 lea	 eax, DWORD PTR $T4[ebp]
  000d4	8b ce		 mov	 ecx, esi
  000d6	50		 push	 eax
  000d7	e8 00 00 00 00	 call	 ?GetSubGraphStyle@CSelectSubGraphData@@QBE?AVCGraphStyle@@XZ ; CSelectSubGraphData::GetSubGraphStyle
  000dc	8b 00		 mov	 eax, DWORD PTR [eax]
  000de	83 e8 03	 sub	 eax, 3
  000e1	74 09		 je	 SHORT $LN27@PointInSub
  000e3	83 e8 01	 sub	 eax, 1
  000e6	0f 85 81 00 00
	00		 jne	 $LN11@PointInSub
$LN27@PointInSub:

; 83   : 			{
; 84   : //			case CGraphBaseData::TopDataBar:
; 85   : //			case CGraphBaseData::BottomDataBar:
; 86   : //				return PointInDataBarGraph(point, pSelectSubGraphData);
; 87   : 			case CGraphBaseData::TopSignal:
; 88   : 			case CGraphBaseData::BottomSignal:
; 89   : 				return PointInTopBottomSignalGraph(point, pSelectSubGraphData);

  000ec	56		 push	 esi
  000ed	ff 75 08	 push	 DWORD PTR _point$[ebp]
  000f0	8b cf		 mov	 ecx, edi
  000f2	e8 00 00 00 00	 call	 ?PointInTopBottomSignalGraph@CSelectSubGraph@@AAEHABVCPoint@@PBVCSelectSubGraphData@@@Z ; CSelectSubGraph::PointInTopBottomSignalGraph
  000f7	5f		 pop	 edi

; 115  : 		return -1;
; 116  : 	}
; 117  : 
; 118  : 	return -1;	
; 119  : }

  000f8	5e		 pop	 esi
  000f9	5d		 pop	 ebp
  000fa	c2 0c 00	 ret	 12			; 0000000cH
$LN29@PointInSub:

; 90   : 			}
; 91   : 			return -1;
; 92   : 		}
; 93   : 	case CGraphBaseData::Line_Type:
; 94   : 		return PointInLineGraph(point, pSelectSubGraphData);

  000fd	56		 push	 esi
  000fe	ff 75 08	 push	 DWORD PTR _point$[ebp]
  00101	8b cf		 mov	 ecx, edi
$LN42@PointInSub:

; 115  : 		return -1;
; 116  : 	}
; 117  : 
; 118  : 	return -1;	
; 119  : }

  00103	e8 00 00 00 00	 call	 ?PointInLineGraph@CSelectSubGraph@@AAEHABVCPoint@@PBVCSelectSubGraphData@@@Z ; CSelectSubGraph::PointInLineGraph
  00108	5f		 pop	 edi
  00109	5e		 pop	 esi
  0010a	5d		 pop	 ebp
  0010b	c2 0c 00	 ret	 12			; 0000000cH
$LN31@PointInSub:

; 95   : 	case CGraphBaseData::Pie_Type:
; 96   : 		return -1;
; 97   : 	case CGraphBaseData::Special_Type:
; 98   : 	{
; 99   : 		switch(pSelectSubGraphData->GetSubGraphStyle().GetGraphBarStyle())

  0010e	8d 45 10	 lea	 eax, DWORD PTR $T3[ebp]
  00111	8b ce		 mov	 ecx, esi
  00113	50		 push	 eax
  00114	e8 00 00 00 00	 call	 ?GetSubGraphStyle@CSelectSubGraphData@@QBE?AVCGraphStyle@@XZ ; CSelectSubGraphData::GetSubGraphStyle
  00119	8b 00		 mov	 eax, DWORD PTR [eax]
  0011b	83 e8 00	 sub	 eax, 0
  0011e	74 2c		 je	 SHORT $LN32@PointInSub
  00120	83 e8 01	 sub	 eax, 1
  00123	74 16		 je	 SHORT $LN33@PointInSub
  00125	83 e8 01	 sub	 eax, 1
$LN43@PointInSub:

; 115  : 		return -1;
; 116  : 	}
; 117  : 
; 118  : 	return -1;	
; 119  : }

  00128	75 43		 jne	 SHORT $LN11@PointInSub
  0012a	56		 push	 esi
  0012b	ff 75 08	 push	 DWORD PTR _point$[ebp]
  0012e	8b cf		 mov	 ecx, edi
  00130	e8 00 00 00 00	 call	 ?PointInPAndFGraph@CSelectSubGraph@@AAEHABVCPoint@@PBVCSelectSubGraphData@@@Z ; CSelectSubGraph::PointInPAndFGraph
  00135	5f		 pop	 edi
  00136	5e		 pop	 esi
  00137	5d		 pop	 ebp
  00138	c2 0c 00	 ret	 12			; 0000000cH
$LN33@PointInSub:

; 103  : 		case CGraphBaseData::InverseLine:
; 104  : 			return PointInInverseLineGraph(point, pSelectSubGraphData);			

  0013b	56		 push	 esi
  0013c	ff 75 08	 push	 DWORD PTR _point$[ebp]
  0013f	8b cf		 mov	 ecx, edi
  00141	e8 00 00 00 00	 call	 ?PointInInverseLineGraph@CSelectSubGraph@@AAEHABVCPoint@@PBVCSelectSubGraphData@@@Z ; CSelectSubGraph::PointInInverseLineGraph
  00146	5f		 pop	 edi

; 115  : 		return -1;
; 116  : 	}
; 117  : 
; 118  : 	return -1;	
; 119  : }

  00147	5e		 pop	 esi
  00148	5d		 pop	 ebp
  00149	c2 0c 00	 ret	 12			; 0000000cH
$LN32@PointInSub:

; 100  : 		{
; 101  : 		case CGraphBaseData::ThreeLineBreak:
; 102  : 			return PointInThreeLineBreakGraph(point, pSelectSubGraphData);

  0014c	56		 push	 esi
  0014d	ff 75 08	 push	 DWORD PTR _point$[ebp]
  00150	8b cf		 mov	 ecx, edi
  00152	e8 00 00 00 00	 call	 ?PointInThreeLineBreakGraph@CSelectSubGraph@@AAEHABVCPoint@@PBVCSelectSubGraphData@@@Z ; CSelectSubGraph::PointInThreeLineBreakGraph
  00157	5f		 pop	 edi

; 115  : 		return -1;
; 116  : 	}
; 117  : 
; 118  : 	return -1;	
; 119  : }

  00158	5e		 pop	 esi
  00159	5d		 pop	 ebp
  0015a	c2 0c 00	 ret	 12			; 0000000cH
$LN36@PointInSub:

; 105  : 		case CGraphBaseData::PAndF:
; 106  : 			return PointInPAndFGraph(point, pSelectSubGraphData);
; 107  : 		}
; 108  : 		return -1;
; 109  : 	}
; 110  : 	case CGraphBaseData::Fund_Type:
; 111  : 		return -1;
; 112  : 	case CGraphBaseData::FuOp_Type:
; 113  : 		if(pSelectSubGraphData->GetSubGraphStyle().GetGraphFuOpStyle() == CGraphBaseData::FuOpPAndF)

  0015d	8d 45 10	 lea	 eax, DWORD PTR $T2[ebp]
  00160	8b ce		 mov	 ecx, esi
  00162	50		 push	 eax
  00163	e8 00 00 00 00	 call	 ?GetSubGraphStyle@CSelectSubGraphData@@QBE?AVCGraphStyle@@XZ ; CSelectSubGraphData::GetSubGraphStyle
  00168	83 38 01	 cmp	 DWORD PTR [eax], 1

; 114  : 			return PointInPAndFGraph(point, pSelectSubGraphData);

  0016b	eb bb		 jmp	 SHORT $LN43@PointInSub
$LN11@PointInSub:
  0016d	5f		 pop	 edi

; 43   : 		return -1;

  0016e	83 c8 ff	 or	 eax, -1

; 115  : 		return -1;
; 116  : 	}
; 117  : 
; 118  : 	return -1;	
; 119  : }

  00171	5e		 pop	 esi
  00172	5d		 pop	 ebp
  00173	c2 0c 00	 ret	 12			; 0000000cH
  00176	66 90		 npad	 2
$LN39@PointInSub:
  00178	00 00 00 00	 DD	 $LN12@PointInSub
  0017c	00 00 00 00	 DD	 $LN29@PointInSub
  00180	00 00 00 00	 DD	 $LN14@PointInSub
  00184	00 00 00 00	 DD	 $LN11@PointInSub
  00188	00 00 00 00	 DD	 $LN31@PointInSub
  0018c	00 00 00 00	 DD	 $LN11@PointInSub
  00190	00 00 00 00	 DD	 $LN26@PointInSub
  00194	00 00 00 00	 DD	 $LN36@PointInSub
$LN41@PointInSub:
  00198	00 00 00 00	 DD	 $LN15@PointInSub
  0019c	00 00 00 00	 DD	 $LN21@PointInSub
  001a0	00 00 00 00	 DD	 $LN23@PointInSub
  001a4	00 00 00 00	 DD	 $LN22@PointInSub
  001a8	00 00 00 00	 DD	 $LN11@PointInSub
  001ac	00 00 00 00	 DD	 $LN11@PointInSub
$LN40@PointInSub:
  001b0	00		 DB	 0
  001b1	00		 DB	 0
  001b2	00		 DB	 0
  001b3	01		 DB	 1
  001b4	02		 DB	 2
  001b5	03		 DB	 3
  001b6	04		 DB	 4
  001b7	05		 DB	 5
  001b8	04		 DB	 4
  001b9	05		 DB	 5
  001ba	00		 DB	 0
  001bb	05		 DB	 5
  001bc	00		 DB	 0
  001bd	05		 DB	 5
  001be	05		 DB	 5
  001bf	05		 DB	 5
  001c0	00		 DB	 0
?PointInSubGraph@CSelectSubGraph@@QAEHABVCPoint@@PBVCSelectSubGraphData@@PAVCIndicatorList@@@Z ENDP ; CSelectSubGraph::PointInSubGraph
_TEXT	ENDS
; Function compile flags: /Ogtp
; File D:\git\src\IBK\IBK_DRFN\ProjSrc\SrcChartEx\ChartOCX\GraphDraw\SelectSubGraph.cpp
;	COMDAT ??1CSelectSubGraph@@UAE@XZ
_TEXT	SEGMENT
??1CSelectSubGraph@@UAE@XZ PROC				; CSelectSubGraph::~CSelectSubGraph, COMDAT
; _this$ = ecx

; 36   : {

  00000	c7 01 00 00 00
	00		 mov	 DWORD PTR [ecx], OFFSET ??_7CSelectSubGraph@@6B@

; 37   : 
; 38   : }

  00006	e9 00 00 00 00	 jmp	 ??1CDraw@@UAE@XZ	; CDraw::~CDraw
??1CSelectSubGraph@@UAE@XZ ENDP				; CSelectSubGraph::~CSelectSubGraph
_TEXT	ENDS
; Function compile flags: /Ogtp
; File D:\git\src\IBK\IBK_DRFN\ProjSrc\SrcChartEx\ChartOCX\GraphDraw\SelectSubGraph.cpp
;	COMDAT ??0CSelectSubGraph@@QAE@XZ
_TEXT	SEGMENT
_this$ = -4						; size = 4
??0CSelectSubGraph@@QAE@XZ PROC				; CSelectSubGraph::CSelectSubGraph, COMDAT
; _this$ = ecx

; 31   : {

  00000	55		 push	 ebp
  00001	8b ec		 mov	 ebp, esp
  00003	51		 push	 ecx
  00004	56		 push	 esi
  00005	8b f1		 mov	 esi, ecx
  00007	89 75 fc	 mov	 DWORD PTR _this$[ebp], esi
  0000a	e8 00 00 00 00	 call	 ??0CDraw@@QAE@XZ	; CDraw::CDraw
  0000f	c7 06 00 00 00
	00		 mov	 DWORD PTR [esi], OFFSET ??_7CSelectSubGraph@@6B@

; 32   : 
; 33   : }

  00015	8b c6		 mov	 eax, esi
  00017	5e		 pop	 esi
  00018	8b e5		 mov	 esp, ebp
  0001a	5d		 pop	 ebp
  0001b	c3		 ret	 0
??0CSelectSubGraph@@QAE@XZ ENDP				; CSelectSubGraph::CSelectSubGraph
_TEXT	ENDS
; Function compile flags: /Ogtp
; File C:\Program Files (x86)\Microsoft Visual Studio\2019\Community\VC\Tools\MSVC\14.29.30133\atlmfc\include\afxwin1.inl
; File C:\Program Files (x86)\Microsoft Visual Studio\2019\Community\VC\Tools\MSVC\14.29.30133\atlmfc\include\afx.inl
;	COMDAT ??_GCRgn@@UAEPAXI@Z
_TEXT	SEGMENT
___flags$ = 8						; size = 4
??_GCRgn@@UAEPAXI@Z PROC				; CRgn::`scalar deleting destructor', COMDAT
; _this$ = ecx
  00000	55		 push	 ebp
  00001	8b ec		 mov	 ebp, esp
; File C:\Program Files (x86)\Microsoft Visual Studio\2019\Community\VC\Tools\MSVC\14.29.30133\atlmfc\include\afxwin1.inl

; 266  : 	{ }

  00003	56		 push	 esi
  00004	8b f1		 mov	 esi, ecx
  00006	c7 06 00 00 00
	00		 mov	 DWORD PTR [esi], OFFSET ??_7CRgn@@6B@
  0000c	e8 00 00 00 00	 call	 ??1CGdiObject@@UAE@XZ	; CGdiObject::~CGdiObject
  00011	8b 45 08	 mov	 eax, DWORD PTR ___flags$[ebp]
  00014	a8 01		 test	 al, 1
  00016	74 1f		 je	 SHORT $LN12@scalar
  00018	a8 04		 test	 al, 4
  0001a	75 10		 jne	 SHORT $LN3@scalar
; File C:\Program Files (x86)\Microsoft Visual Studio\2019\Community\VC\Tools\MSVC\14.29.30133\atlmfc\include\afx.inl

; 112  : 	{ ::operator delete(p); }

  0001c	56		 push	 esi
  0001d	e8 00 00 00 00	 call	 ??3@YAXPAX@Z		; operator delete
  00022	83 c4 04	 add	 esp, 4
  00025	8b c6		 mov	 eax, esi
  00027	5e		 pop	 esi
  00028	5d		 pop	 ebp
  00029	c2 04 00	 ret	 4
$LN3@scalar:
  0002c	6a 08		 push	 8
  0002e	56		 push	 esi
  0002f	e8 00 00 00 00	 call	 ?__global_delete@@YAXPAXI@Z ; __global_delete
  00034	83 c4 08	 add	 esp, 8
$LN12@scalar:
  00037	8b c6		 mov	 eax, esi
  00039	5e		 pop	 esi
  0003a	5d		 pop	 ebp
  0003b	c2 04 00	 ret	 4
??_GCRgn@@UAEPAXI@Z ENDP				; CRgn::`scalar deleting destructor'
_TEXT	ENDS
; Function compile flags: /Ogtp
; File C:\Program Files (x86)\Microsoft Visual Studio\2019\Community\VC\Tools\MSVC\14.29.30133\atlmfc\include\afxwin1.inl
;	COMDAT ??1CRgn@@UAE@XZ
_TEXT	SEGMENT
??1CRgn@@UAE@XZ PROC					; CRgn::~CRgn, COMDAT
; _this$ = ecx

; 266  : 	{ }

  00000	c7 01 00 00 00
	00		 mov	 DWORD PTR [ecx], OFFSET ??_7CRgn@@6B@
  00006	e9 00 00 00 00	 jmp	 ??1CGdiObject@@UAE@XZ	; CGdiObject::~CGdiObject
??1CRgn@@UAE@XZ ENDP					; CRgn::~CRgn
_TEXT	ENDS
; Function compile flags: /Ogtp
; File C:\Program Files (x86)\Microsoft Visual Studio\2019\Community\VC\Tools\MSVC\14.29.30133\atlmfc\include\afx.inl
;	COMDAT ??_GCGdiObject@@UAEPAXI@Z
_TEXT	SEGMENT
___flags$ = 8						; size = 4
??_GCGdiObject@@UAEPAXI@Z PROC				; CGdiObject::`scalar deleting destructor', COMDAT
; _this$ = ecx
  00000	55		 push	 ebp
  00001	8b ec		 mov	 ebp, esp
  00003	56		 push	 esi
  00004	8b f1		 mov	 esi, ecx
  00006	e8 00 00 00 00	 call	 ??1CGdiObject@@UAE@XZ	; CGdiObject::~CGdiObject
  0000b	8b 45 08	 mov	 eax, DWORD PTR ___flags$[ebp]
  0000e	a8 01		 test	 al, 1
  00010	74 1f		 je	 SHORT $LN9@scalar
  00012	a8 04		 test	 al, 4
  00014	75 10		 jne	 SHORT $LN3@scalar

; 112  : 	{ ::operator delete(p); }

  00016	56		 push	 esi
  00017	e8 00 00 00 00	 call	 ??3@YAXPAX@Z		; operator delete
  0001c	83 c4 04	 add	 esp, 4
  0001f	8b c6		 mov	 eax, esi
  00021	5e		 pop	 esi
  00022	5d		 pop	 ebp
  00023	c2 04 00	 ret	 4
$LN3@scalar:
  00026	6a 08		 push	 8
  00028	56		 push	 esi
  00029	e8 00 00 00 00	 call	 ?__global_delete@@YAXPAXI@Z ; __global_delete
  0002e	83 c4 08	 add	 esp, 8
$LN9@scalar:
  00031	8b c6		 mov	 eax, esi
  00033	5e		 pop	 esi
  00034	5d		 pop	 ebp
  00035	c2 04 00	 ret	 4
??_GCGdiObject@@UAEPAXI@Z ENDP				; CGdiObject::`scalar deleting destructor'
_TEXT	ENDS
; Function compile flags: /Ogtp
; File C:\Program Files (x86)\Microsoft Visual Studio\2019\Community\VC\Tools\MSVC\14.29.30133\atlmfc\include\afxwin1.inl
;	COMDAT ??1CGdiObject@@UAE@XZ
_TEXT	SEGMENT
_pException$2 = -540					; size = 4
_strMsg$3 = -536					; size = 4
_szErrorMessage$4 = -532				; size = 512
__$ArrayPad$ = -20					; size = 4
__$EHRec$ = -16						; size = 16
??1CGdiObject@@UAE@XZ PROC				; CGdiObject::~CGdiObject, COMDAT
; _this$ = ecx

; 74   : {

  00000	55		 push	 ebp
  00001	8b ec		 mov	 ebp, esp
  00003	6a ff		 push	 -1
  00005	68 00 00 00 00	 push	 __ehhandler$??1CGdiObject@@UAE@XZ
  0000a	64 a1 00 00 00
	00		 mov	 eax, DWORD PTR fs:0
  00010	50		 push	 eax
  00011	81 ec 10 02 00
	00		 sub	 esp, 528		; 00000210H
  00017	a1 00 00 00 00	 mov	 eax, DWORD PTR ___security_cookie
  0001c	33 c5		 xor	 eax, ebp
  0001e	89 45 ec	 mov	 DWORD PTR __$ArrayPad$[ebp], eax
  00021	53		 push	 ebx
  00022	56		 push	 esi
  00023	57		 push	 edi
  00024	50		 push	 eax
  00025	8d 45 f4	 lea	 eax, DWORD PTR __$EHRec$[ebp+4]
  00028	64 a3 00 00 00
	00		 mov	 DWORD PTR fs:0, eax
  0002e	89 65 f0	 mov	 DWORD PTR __$EHRec$[ebp], esp
  00031	c7 01 00 00 00
	00		 mov	 DWORD PTR [ecx], OFFSET ??_7CGdiObject@@6B@

; 75   : 	AFX_BEGIN_DESTRUCTOR

  00037	c7 45 fc 00 00
	00 00		 mov	 DWORD PTR __$EHRec$[ebp+12], 0

; 76   : 	DeleteObject();

  0003e	e8 00 00 00 00	 call	 ?DeleteObject@CGdiObject@@QAEHXZ ; CGdiObject::DeleteObject
$LN18@CGdiObject:

; 78   : }

  00043	8b 4d f4	 mov	 ecx, DWORD PTR __$EHRec$[ebp+4]
  00046	64 89 0d 00 00
	00 00		 mov	 DWORD PTR fs:0, ecx
  0004d	59		 pop	 ecx
  0004e	5f		 pop	 edi
  0004f	5e		 pop	 esi
  00050	5b		 pop	 ebx
  00051	8b 4d ec	 mov	 ecx, DWORD PTR __$ArrayPad$[ebp]
  00054	33 cd		 xor	 ecx, ebp
  00056	e8 00 00 00 00	 call	 @__security_check_cookie@4
  0005b	8b e5		 mov	 esp, ebp
  0005d	5d		 pop	 ebp
  0005e	c3		 ret	 0
__catch$??1CGdiObject@@UAE@XZ$0:

; 77   : 	AFX_END_DESTRUCTOR

  0005f	8d 8d e8 fd ff
	ff		 lea	 ecx, DWORD PTR _strMsg$3[ebp]
  00065	ff 15 00 00 00
	00		 call	 DWORD PTR __imp_??0?$CStringT@DV?$StrTraitMFC_DLL@DV?$ChTraitsCRT@D@ATL@@@@@ATL@@QAE@XZ
  0006b	8b b5 e4 fd ff
	ff		 mov	 esi, DWORD PTR _pException$2[ebp]
  00071	8d 8d ec fd ff
	ff		 lea	 ecx, DWORD PTR _szErrorMessage$4[ebp]
  00077	6a 00		 push	 0
  00079	68 00 02 00 00	 push	 512			; 00000200H
  0007e	51		 push	 ecx
  0007f	8b 06		 mov	 eax, DWORD PTR [esi]
  00081	8b ce		 mov	 ecx, esi
  00083	c6 45 fc 02	 mov	 BYTE PTR __$EHRec$[ebp+12], 2
  00087	ff 50 14	 call	 DWORD PTR [eax+20]
  0008a	85 c0		 test	 eax, eax
  0008c	74 2a		 je	 SHORT $LN9@CGdiObject
  0008e	8d 85 ec fd ff
	ff		 lea	 eax, DWORD PTR _szErrorMessage$4[ebp]
  00094	50		 push	 eax
  00095	6a 4d		 push	 77			; 0000004dH
  00097	68 00 00 00 00	 push	 OFFSET ??_C@_0HD@JJCHHHNK@C?3?2Program?5Files?5?$CIx86?$CJ?2Microsof@
  0009c	68 00 00 00 00	 push	 OFFSET ??_C@_0BP@OIEOKIDM@Exception?5thrown?5in?5destructor@
  000a1	8d 85 e8 fd ff
	ff		 lea	 eax, DWORD PTR _strMsg$3[ebp]
  000a7	68 00 00 00 00	 push	 OFFSET ??_C@_0BB@HBOOMJBF@?$CFTs?5?$CI?$CFTs?3?$CFd?$CJ?6?$CFTs@
  000ac	50		 push	 eax
  000ad	ff 15 00 00 00
	00		 call	 DWORD PTR __imp_?Format@?$CStringT@DV?$StrTraitMFC_DLL@DV?$ChTraitsCRT@D@ATL@@@@@ATL@@QAAXPBDZZ
  000b3	83 c4 18	 add	 esp, 24			; 00000018H
  000b6	eb 21		 jmp	 SHORT $LN10@CGdiObject
$LN9@CGdiObject:
  000b8	6a 4d		 push	 77			; 0000004dH
  000ba	68 00 00 00 00	 push	 OFFSET ??_C@_0HD@JJCHHHNK@C?3?2Program?5Files?5?$CIx86?$CJ?2Microsof@
  000bf	68 00 00 00 00	 push	 OFFSET ??_C@_0BP@OIEOKIDM@Exception?5thrown?5in?5destructor@
  000c4	8d 85 e8 fd ff
	ff		 lea	 eax, DWORD PTR _strMsg$3[ebp]
  000ca	68 00 00 00 00	 push	 OFFSET ??_C@_0N@OMEMOKLE@?$CFTs?5?$CI?$CFTs?3?$CFd?$CJ@
  000cf	50		 push	 eax
  000d0	ff 15 00 00 00
	00		 call	 DWORD PTR __imp_?Format@?$CStringT@DV?$StrTraitMFC_DLL@DV?$ChTraitsCRT@D@ATL@@@@@ATL@@QAAXPBDZZ
  000d6	83 c4 14	 add	 esp, 20			; 00000014H
$LN10@CGdiObject:
  000d9	6a 00		 push	 0
  000db	6a 00		 push	 0
  000dd	ff b5 e8 fd ff
	ff		 push	 DWORD PTR _strMsg$3[ebp]
  000e3	e8 00 00 00 00	 call	 ?AfxMessageBox@@YGHPBDII@Z ; AfxMessageBox
  000e8	8d 8d e8 fd ff
	ff		 lea	 ecx, DWORD PTR _strMsg$3[ebp]
  000ee	ff 15 00 00 00
	00		 call	 DWORD PTR __imp_??1?$CStringT@DV?$StrTraitMFC_DLL@DV?$ChTraitsCRT@D@ATL@@@@@ATL@@QAE@XZ
  000f4	8b 06		 mov	 eax, DWORD PTR [esi]
  000f6	8b ce		 mov	 ecx, esi
  000f8	6a 01		 push	 1
  000fa	ff 50 04	 call	 DWORD PTR [eax+4]
  000fd	b8 00 00 00 00	 mov	 eax, $LN18@CGdiObject
  00102	c3		 ret	 0
_TEXT	ENDS
;	COMDAT text$x
text$x	SEGMENT
__unwindfunclet$??1CGdiObject@@UAE@XZ$2:
  00000	8d 8d e8 fd ff
	ff		 lea	 ecx, DWORD PTR _strMsg$3[ebp]
  00006	ff 25 00 00 00
	00		 jmp	 DWORD PTR __imp_??1?$CStringT@DV?$StrTraitMFC_DLL@DV?$ChTraitsCRT@D@ATL@@@@@ATL@@QAE@XZ
  0000c	cc		 int	 3
  0000d	cc		 int	 3
  0000e	cc		 int	 3
  0000f	cc		 int	 3
  00010	cc		 int	 3
__ehhandler$??1CGdiObject@@UAE@XZ:
  00011	90		 npad	 1
  00012	90		 npad	 1
  00013	8b 54 24 08	 mov	 edx, DWORD PTR [esp+8]
  00017	8d 42 0c	 lea	 eax, DWORD PTR [edx+12]
  0001a	8b 8a e0 fd ff
	ff		 mov	 ecx, DWORD PTR [edx-544]
  00020	33 c8		 xor	 ecx, eax
  00022	e8 00 00 00 00	 call	 @__security_check_cookie@4
  00027	8b 4a f8	 mov	 ecx, DWORD PTR [edx-8]
  0002a	33 c8		 xor	 ecx, eax
  0002c	e8 00 00 00 00	 call	 @__security_check_cookie@4
  00031	b8 00 00 00 00	 mov	 eax, OFFSET __ehfuncinfo$??1CGdiObject@@UAE@XZ
  00036	e9 00 00 00 00	 jmp	 ___CxxFrameHandler3
text$x	ENDS
??1CGdiObject@@UAE@XZ ENDP				; CGdiObject::~CGdiObject
; Function compile flags: /Ogtp
; File C:\Program Files (x86)\Microsoft Visual Studio\2019\Community\VC\Tools\MSVC\14.29.30133\atlmfc\include\atltypes.h
;	COMDAT ??0CPoint@@QAE@XZ
_TEXT	SEGMENT
??0CPoint@@QAE@XZ PROC					; CPoint::CPoint, COMDAT
; _this$ = ecx

; 400  : 	x = 0;

  00000	c7 01 00 00 00
	00		 mov	 DWORD PTR [ecx], 0

; 401  : 	y = 0;
; 402  : }

  00006	8b c1		 mov	 eax, ecx
  00008	c7 41 04 00 00
	00 00		 mov	 DWORD PTR [ecx+4], 0
  0000f	c3		 ret	 0
??0CPoint@@QAE@XZ ENDP					; CPoint::CPoint
_TEXT	ENDS
; Function compile flags: /Ogtp
; File C:\Program Files (x86)\Microsoft Visual Studio\2019\Community\VC\Tools\MSVC\14.29.30133\atlmfc\include\afx.inl
;	COMDAT ?Dump@CObject@@UBEXAAVCDumpContext@@@Z
_TEXT	SEGMENT
___formal$ = 8						; size = 4
?Dump@CObject@@UBEXAAVCDumpContext@@@Z PROC		; CObject::Dump, COMDAT
; _this$ = ecx

; 122  : 	{ /* no dumping in release builds */ }

  00000	c2 04 00	 ret	 4
?Dump@CObject@@UBEXAAVCDumpContext@@@Z ENDP		; CObject::Dump
_TEXT	ENDS
; Function compile flags: /Ogtp
; File C:\Program Files (x86)\Microsoft Visual Studio\2019\Community\VC\Tools\MSVC\14.29.30133\atlmfc\include\afx.inl
;	COMDAT ?AssertValid@CObject@@UBEXXZ
_TEXT	SEGMENT
?AssertValid@CObject@@UBEXXZ PROC			; CObject::AssertValid, COMDAT
; _this$ = ecx

; 120  : 	{ /* no asserts in release builds */ }

  00000	c2 00 00	 ret	 0
?AssertValid@CObject@@UBEXXZ ENDP			; CObject::AssertValid
_TEXT	ENDS
; Function compile flags: /Ogtp
; File C:\Program Files (x86)\Microsoft Visual Studio\2019\Community\VC\Tools\MSVC\14.29.30133\atlmfc\include\afx.inl
;	COMDAT ?Serialize@CObject@@UAEXAAVCArchive@@@Z
_TEXT	SEGMENT
___formal$ = 8						; size = 4
?Serialize@CObject@@UAEXAAVCArchive@@@Z PROC		; CObject::Serialize, COMDAT
; _this$ = ecx

; 106  : 	{ /* CObject does not serialize anything by default */ }

  00000	c2 04 00	 ret	 4
?Serialize@CObject@@UAEXAAVCArchive@@@Z ENDP		; CObject::Serialize
_TEXT	ENDS
; Function compile flags: /Ogtp
; File C:\Program Files (x86)\Microsoft Visual Studio\2019\Community\VC\Tools\MSVC\14.29.30133\atlmfc\include\afx.inl
;	COMDAT ??1CObject@@UAE@XZ
_TEXT	SEGMENT
??1CObject@@UAE@XZ PROC					; CObject::~CObject, COMDAT
; _this$ = ecx

; 104  : 	{ }

  00000	c2 00 00	 ret	 0
??1CObject@@UAE@XZ ENDP					; CObject::~CObject
_TEXT	ENDS
; Function compile flags: /Ogtp
; File D:\git\src\IBK\IBK_DRFN\ProjSrc\SrcChartEx\ChartOCX\GraphDraw\SelectSubGraph.cpp
;	COMDAT ?__empty_global_delete@@YAXPAXI@Z
_TEXT	SEGMENT
___formal$ = 8						; size = 4
___formal$ = 12						; size = 4
?__empty_global_delete@@YAXPAXI@Z PROC			; __empty_global_delete, COMDAT

  00000	c2 00 00	 ret	 0
?__empty_global_delete@@YAXPAXI@Z ENDP			; __empty_global_delete
_TEXT	ENDS
; Function compile flags: /Ogtp
; File D:\git\src\IBK\IBK_DRFN\ProjSrc\SrcChartEx\ChartOCX\GraphDraw\SelectSubGraph.cpp
;	COMDAT ?__empty_global_delete@@YAXPAX@Z
_TEXT	SEGMENT
___formal$ = 8						; size = 4
?__empty_global_delete@@YAXPAX@Z PROC			; __empty_global_delete, COMDAT

  00000	c2 00 00	 ret	 0
?__empty_global_delete@@YAXPAX@Z ENDP			; __empty_global_delete
_TEXT	ENDS
; Function compile flags: /Ogtp
;	COMDAT ??_H@YGXPAXIIP6EPAX0@Z@Z
_TEXT	SEGMENT
___t$ = 8						; size = 4
___s$ = 12						; size = 4
___n$ = 16						; size = 4
___f$ = 20						; size = 4
??_H@YGXPAXIIP6EPAX0@Z@Z PROC				; `vector constructor iterator', COMDAT
  00000	55		 push	 ebp
  00001	8b ec		 mov	 ebp, esp
  00003	56		 push	 esi
  00004	8b 75 10	 mov	 esi, DWORD PTR ___n$[ebp]
  00007	85 f6		 test	 esi, esi
  00009	74 16		 je	 SHORT $LN6@vector
  0000b	53		 push	 ebx
  0000c	8b 5d 14	 mov	 ebx, DWORD PTR ___f$[ebp]
  0000f	57		 push	 edi
  00010	8b 7d 08	 mov	 edi, DWORD PTR ___t$[ebp]
$LL2@vector:
  00013	8b cf		 mov	 ecx, edi
  00015	ff d3		 call	 ebx
  00017	03 7d 0c	 add	 edi, DWORD PTR ___s$[ebp]
  0001a	83 ee 01	 sub	 esi, 1
  0001d	75 f4		 jne	 SHORT $LL2@vector
  0001f	5f		 pop	 edi
  00020	5b		 pop	 ebx
$LN6@vector:
  00021	5e		 pop	 esi
  00022	5d		 pop	 ebp
  00023	c2 10 00	 ret	 16			; 00000010H
??_H@YGXPAXIIP6EPAX0@Z@Z ENDP				; `vector constructor iterator'
_TEXT	ENDS
END
