; Listing generated by Microsoft (R) Optimizing Compiler Version 19.29.30145.0 

	TITLE	D:\git\src\IBK\IBK_DRFN\#DRfn-CS\_Obj\GraphDraw\SelectSubGraphData.obj
	.686P
	.XMM
	include listing.inc
	.model	flat

INCLUDELIB MSVCRT
INCLUDELIB OLDNAMES

CONST	SEGMENT
?_Fake_alloc@std@@3U_Fake_allocator@1@B	ORG $+1		; std::_Fake_alloc
CONST	ENDS
PUBLIC	?__empty_global_delete@@YAXPAX@Z		; __empty_global_delete
PUBLIC	?__empty_global_delete@@YAXPAXI@Z		; __empty_global_delete
PUBLIC	??4CGraphDrawer@@QAEAAV0@ABV0@@Z		; CGraphDrawer::operator=
PUBLIC	??4CGraphDrawer@@QAEAAV0@$$QAV0@@Z		; CGraphDrawer::operator=
PUBLIC	??0CSelectSubGraphData@@QAE@XZ			; CSelectSubGraphData::CSelectSubGraphData
PUBLIC	?SetDrawingOrderType@CSelectSubGraphData@@QAEXW4DRAWINGORDER@CDrawingOption@@@Z ; CSelectSubGraphData::SetDrawingOrderType
PUBLIC	?SetGraphName@CSelectSubGraphData@@QAEXABV?$CStringT@DV?$StrTraitMFC_DLL@DV?$ChTraitsCRT@D@ATL@@@@@ATL@@@Z ; CSelectSubGraphData::SetGraphName
PUBLIC	?SetVertScaleLogType@CSelectSubGraphData@@QAEX_N@Z ; CSelectSubGraphData::SetVertScaleLogType
PUBLIC	?SetVertScaleInvertType@CSelectSubGraphData@@QAEX_N@Z ; CSelectSubGraphData::SetVertScaleInvertType
PUBLIC	?SetGraphRegions@CSelectSubGraphData@@QAEXABVCGraphRegions@@@Z ; CSelectSubGraphData::SetGraphRegions
PUBLIC	?SetSubGraphType@CSelectSubGraphData@@QAEXW4GRAPHTYPE@CGraphBaseData@@@Z ; CSelectSubGraphData::SetSubGraphType
PUBLIC	?SetSubGraphStyle@CSelectSubGraphData@@QAEXABVCGraphStyle@@@Z ; CSelectSubGraphData::SetSubGraphStyle
PUBLIC	?SetSubGraphDrawStyle@CSelectSubGraphData@@QAEXABVCGraphDrawStyle@@@Z ; CSelectSubGraphData::SetSubGraphDrawStyle
PUBLIC	?SetDisplayDataHorzMinMax@CSelectSubGraphData@@QAEXABVCDisplayDataMinMax@@@Z ; CSelectSubGraphData::SetDisplayDataHorzMinMax
PUBLIC	?SetDisplayDataVertMinMax@CSelectSubGraphData@@QAEXABVCDisplayDataMinMax@@@Z ; CSelectSubGraphData::SetDisplayDataVertMinMax
PUBLIC	?SetDisplayAttributes@CSelectSubGraphData@@QAEXABVCDisplayAttributes@@@Z ; CSelectSubGraphData::SetDisplayAttributes
PUBLIC	?SetSubGraphPacketList@CSelectSubGraphData@@QAEXPAVCSubGraphPacketList@@@Z ; CSelectSubGraphData::SetSubGraphPacketList
PUBLIC	?SetIndicatorInfo@CSelectSubGraphData@@QAEXPAVCIndicatorInfo@@@Z ; CSelectSubGraphData::SetIndicatorInfo
PUBLIC	?SetXScaleManager@CSelectSubGraphData@@QAEXPAVCXScaleManager@@@Z ; CSelectSubGraphData::SetXScaleManager
PUBLIC	?SetRQ@CSelectSubGraphData@@QAEXV?$CStringT@DV?$StrTraitMFC_DLL@DV?$ChTraitsCRT@D@ATL@@@@@ATL@@@Z ; CSelectSubGraphData::SetRQ
PUBLIC	?GetDrawingOrderType@CSelectSubGraphData@@QBE?AW4DRAWINGORDER@CDrawingOption@@XZ ; CSelectSubGraphData::GetDrawingOrderType
PUBLIC	?GetGraphName@CSelectSubGraphData@@QBE?AV?$CStringT@DV?$StrTraitMFC_DLL@DV?$ChTraitsCRT@D@ATL@@@@@ATL@@XZ ; CSelectSubGraphData::GetGraphName
PUBLIC	?GetVertScaleLogType@CSelectSubGraphData@@QBE_NXZ ; CSelectSubGraphData::GetVertScaleLogType
PUBLIC	?GetVertScaleInvertType@CSelectSubGraphData@@QBE_NXZ ; CSelectSubGraphData::GetVertScaleInvertType
PUBLIC	?GetGraphRegions@CSelectSubGraphData@@QBE?AVCGraphRegions@@XZ ; CSelectSubGraphData::GetGraphRegions
PUBLIC	?GetSubGraphType@CSelectSubGraphData@@QBE?AW4GRAPHTYPE@CGraphBaseData@@XZ ; CSelectSubGraphData::GetSubGraphType
PUBLIC	?GetSubGraphStyle@CSelectSubGraphData@@QBE?AVCGraphStyle@@XZ ; CSelectSubGraphData::GetSubGraphStyle
PUBLIC	?GetSubGraphDrawStyle@CSelectSubGraphData@@QBE?AVCGraphDrawStyle@@XZ ; CSelectSubGraphData::GetSubGraphDrawStyle
PUBLIC	?GetDisplayDataHorzMinMax@CSelectSubGraphData@@QBE?AVCDisplayDataMinMax@@XZ ; CSelectSubGraphData::GetDisplayDataHorzMinMax
PUBLIC	?GetDisplayDataVertMinMax@CSelectSubGraphData@@QBE?AVCDisplayDataMinMax@@XZ ; CSelectSubGraphData::GetDisplayDataVertMinMax
PUBLIC	?GetDisplayAttributes@CSelectSubGraphData@@QBE?AVCDisplayAttributes@@XZ ; CSelectSubGraphData::GetDisplayAttributes
PUBLIC	?GetSubGraphPacketList@CSelectSubGraphData@@QBEPAVCSubGraphPacketList@@XZ ; CSelectSubGraphData::GetSubGraphPacketList
PUBLIC	?GetIndicatorInfo@CSelectSubGraphData@@QBEPAVCIndicatorInfo@@XZ ; CSelectSubGraphData::GetIndicatorInfo
PUBLIC	?GetXScaleManager@CSelectSubGraphData@@QBEPAVCXScaleManager@@XZ ; CSelectSubGraphData::GetXScaleManager
PUBLIC	?GetRQ@CSelectSubGraphData@@QBE?AV?$CStringT@DV?$StrTraitMFC_DLL@DV?$ChTraitsCRT@D@ATL@@@@@ATL@@XZ ; CSelectSubGraphData::GetRQ
PUBLIC	??_C@_07MGCPDNLD@DEFAULT@			; `string'
EXTRN	__imp_??0?$CStringT@DV?$StrTraitMFC_DLL@DV?$ChTraitsCRT@D@ATL@@@@@ATL@@QAE@XZ:PROC
EXTRN	__imp_??0?$CStringT@DV?$StrTraitMFC_DLL@DV?$ChTraitsCRT@D@ATL@@@@@ATL@@QAE@ABV01@@Z:PROC
EXTRN	__imp_??1?$CStringT@DV?$StrTraitMFC_DLL@DV?$ChTraitsCRT@D@ATL@@@@@ATL@@QAE@XZ:PROC
EXTRN	__imp_??4?$CStringT@DV?$StrTraitMFC_DLL@DV?$ChTraitsCRT@D@ATL@@@@@ATL@@QAEAAV01@ABV01@@Z:PROC
EXTRN	__imp_??4?$CStringT@DV?$StrTraitMFC_DLL@DV?$ChTraitsCRT@D@ATL@@@@@ATL@@QAEAAV01@PBD@Z:PROC
EXTRN	__imp_??4CDisplayDataMinMax@@QAEAAV0@ABV0@@Z:PROC
EXTRN	__imp_??0CDisplayDataMinMax@@QAE@XZ:PROC
EXTRN	??4CDisplayAttributes@@QAEAAV0@ABV0@@Z:PROC	; CDisplayAttributes::operator=
EXTRN	??0CDisplayAttributes@@QAE@XZ:PROC		; CDisplayAttributes::CDisplayAttributes
EXTRN	??0CGraphRegions@@QAE@XZ:PROC			; CGraphRegions::CGraphRegions
EXTRN	@__security_check_cookie@4:PROC
EXTRN	___CxxFrameHandler3:PROC
EXTRN	___security_cookie:DWORD
;	COMDAT ??_C@_07MGCPDNLD@DEFAULT@
CONST	SEGMENT
??_C@_07MGCPDNLD@DEFAULT@ DB 'DEFAULT', 00H		; `string'
CONST	ENDS
;	COMDAT xdata$x
xdata$x	SEGMENT
__unwindtable$?SetRQ@CSelectSubGraphData@@QAEXV?$CStringT@DV?$StrTraitMFC_DLL@DV?$ChTraitsCRT@D@ATL@@@@@ATL@@@Z DD 0ffffffffH
	DD	FLAT:__unwindfunclet$?SetRQ@CSelectSubGraphData@@QAEXV?$CStringT@DV?$StrTraitMFC_DLL@DV?$ChTraitsCRT@D@ATL@@@@@ATL@@@Z$0
__ehfuncinfo$?SetRQ@CSelectSubGraphData@@QAEXV?$CStringT@DV?$StrTraitMFC_DLL@DV?$ChTraitsCRT@D@ATL@@@@@ATL@@@Z DD 019930522H
	DD	01H
	DD	FLAT:__unwindtable$?SetRQ@CSelectSubGraphData@@QAEXV?$CStringT@DV?$StrTraitMFC_DLL@DV?$ChTraitsCRT@D@ATL@@@@@ATL@@@Z
	DD	2 DUP(00H)
	DD	2 DUP(00H)
	DD	00H
	DD	01H
xdata$x	ENDS
;	COMDAT xdata$x
xdata$x	SEGMENT
__unwindtable$??0CSelectSubGraphData@@QAE@XZ DD 0ffffffffH
	DD	FLAT:__unwindfunclet$??0CSelectSubGraphData@@QAE@XZ$0
	DD	00H
	DD	FLAT:__unwindfunclet$??0CSelectSubGraphData@@QAE@XZ$1
	DD	01H
	DD	FLAT:__unwindfunclet$??0CSelectSubGraphData@@QAE@XZ$2
__ehfuncinfo$??0CSelectSubGraphData@@QAE@XZ DD 019930522H
	DD	03H
	DD	FLAT:__unwindtable$??0CSelectSubGraphData@@QAE@XZ
	DD	2 DUP(00H)
	DD	2 DUP(00H)
	DD	00H
	DD	01H
xdata$x	ENDS
; Function compile flags: /Ogtp
; File D:\git\src\IBK\IBK_DRFN\ProjSrc\SrcChartEx\ChartOCX\Include_Chart\SelectSubGraphData.cpp
;	COMDAT ?GetRQ@CSelectSubGraphData@@QBE?AV?$CStringT@DV?$StrTraitMFC_DLL@DV?$ChTraitsCRT@D@ATL@@@@@ATL@@XZ
_TEXT	SEGMENT
___$ReturnUdt$ = 8					; size = 4
?GetRQ@CSelectSubGraphData@@QBE?AV?$CStringT@DV?$StrTraitMFC_DLL@DV?$ChTraitsCRT@D@ATL@@@@@ATL@@XZ PROC ; CSelectSubGraphData::GetRQ, COMDAT
; _this$ = ecx

; 171  : {

  00000	55		 push	 ebp
  00001	8b ec		 mov	 ebp, esp

; 172  : 	return m_strRQ;

  00003	8d 81 94 00 00
	00		 lea	 eax, DWORD PTR [ecx+148]
  00009	8b 4d 08	 mov	 ecx, DWORD PTR ___$ReturnUdt$[ebp]
  0000c	50		 push	 eax
  0000d	ff 15 00 00 00
	00		 call	 DWORD PTR __imp_??0?$CStringT@DV?$StrTraitMFC_DLL@DV?$ChTraitsCRT@D@ATL@@@@@ATL@@QAE@ABV01@@Z
  00013	8b 45 08	 mov	 eax, DWORD PTR ___$ReturnUdt$[ebp]

; 173  : }

  00016	5d		 pop	 ebp
  00017	c2 04 00	 ret	 4
?GetRQ@CSelectSubGraphData@@QBE?AV?$CStringT@DV?$StrTraitMFC_DLL@DV?$ChTraitsCRT@D@ATL@@@@@ATL@@XZ ENDP ; CSelectSubGraphData::GetRQ
_TEXT	ENDS
; Function compile flags: /Ogtp
; File D:\git\src\IBK\IBK_DRFN\ProjSrc\SrcChartEx\ChartOCX\Include_Chart\SelectSubGraphData.cpp
;	COMDAT ?GetXScaleManager@CSelectSubGraphData@@QBEPAVCXScaleManager@@XZ
_TEXT	SEGMENT
?GetXScaleManager@CSelectSubGraphData@@QBEPAVCXScaleManager@@XZ PROC ; CSelectSubGraphData::GetXScaleManager, COMDAT
; _this$ = ecx

; 167  : 	return m_pXScaleManager;

  00000	8b 81 90 00 00
	00		 mov	 eax, DWORD PTR [ecx+144]

; 168  : }

  00006	c3		 ret	 0
?GetXScaleManager@CSelectSubGraphData@@QBEPAVCXScaleManager@@XZ ENDP ; CSelectSubGraphData::GetXScaleManager
_TEXT	ENDS
; Function compile flags: /Ogtp
; File D:\git\src\IBK\IBK_DRFN\ProjSrc\SrcChartEx\ChartOCX\Include_Chart\SelectSubGraphData.cpp
;	COMDAT ?GetIndicatorInfo@CSelectSubGraphData@@QBEPAVCIndicatorInfo@@XZ
_TEXT	SEGMENT
?GetIndicatorInfo@CSelectSubGraphData@@QBEPAVCIndicatorInfo@@XZ PROC ; CSelectSubGraphData::GetIndicatorInfo, COMDAT
; _this$ = ecx

; 162  : 	return m_pIndicatorInfo;

  00000	8b 81 8c 00 00
	00		 mov	 eax, DWORD PTR [ecx+140]

; 163  : }

  00006	c3		 ret	 0
?GetIndicatorInfo@CSelectSubGraphData@@QBEPAVCIndicatorInfo@@XZ ENDP ; CSelectSubGraphData::GetIndicatorInfo
_TEXT	ENDS
; Function compile flags: /Ogtp
; File D:\git\src\IBK\IBK_DRFN\ProjSrc\SrcChartEx\ChartOCX\Include_Chart\SelectSubGraphData.cpp
;	COMDAT ?GetSubGraphPacketList@CSelectSubGraphData@@QBEPAVCSubGraphPacketList@@XZ
_TEXT	SEGMENT
?GetSubGraphPacketList@CSelectSubGraphData@@QBEPAVCSubGraphPacketList@@XZ PROC ; CSelectSubGraphData::GetSubGraphPacketList, COMDAT
; _this$ = ecx

; 157  : 	return m_pSubGraphPacketList;

  00000	8b 81 88 00 00
	00		 mov	 eax, DWORD PTR [ecx+136]

; 158  : }

  00006	c3		 ret	 0
?GetSubGraphPacketList@CSelectSubGraphData@@QBEPAVCSubGraphPacketList@@XZ ENDP ; CSelectSubGraphData::GetSubGraphPacketList
_TEXT	ENDS
; Function compile flags: /Ogtp
; File D:\git\src\IBK\IBK_DRFN\ProjSrc\SrcChartEx\ChartOCX\Include_Chart\SelectSubGraphData.cpp
;	COMDAT ?GetDisplayAttributes@CSelectSubGraphData@@QBE?AVCDisplayAttributes@@XZ
_TEXT	SEGMENT
___$ReturnUdt$ = 8					; size = 4
?GetDisplayAttributes@CSelectSubGraphData@@QBE?AVCDisplayAttributes@@XZ PROC ; CSelectSubGraphData::GetDisplayAttributes, COMDAT
; _this$ = ecx

; 151  : {

  00000	55		 push	 ebp
  00001	8b ec		 mov	 ebp, esp

; 152  : 	return m_displayAttributes;

  00003	8b 45 08	 mov	 eax, DWORD PTR ___$ReturnUdt$[ebp]
  00006	8b 91 80 00 00
	00		 mov	 edx, DWORD PTR [ecx+128]
  0000c	8b 89 84 00 00
	00		 mov	 ecx, DWORD PTR [ecx+132]
  00012	89 10		 mov	 DWORD PTR [eax], edx
  00014	89 48 04	 mov	 DWORD PTR [eax+4], ecx

; 153  : }

  00017	5d		 pop	 ebp
  00018	c2 04 00	 ret	 4
?GetDisplayAttributes@CSelectSubGraphData@@QBE?AVCDisplayAttributes@@XZ ENDP ; CSelectSubGraphData::GetDisplayAttributes
_TEXT	ENDS
; Function compile flags: /Ogtp
; File D:\git\src\IBK\IBK_DRFN\ProjSrc\SrcChartEx\ChartOCX\Include_Chart\SelectSubGraphData.cpp
;	COMDAT ?GetDisplayDataVertMinMax@CSelectSubGraphData@@QBE?AVCDisplayDataMinMax@@XZ
_TEXT	SEGMENT
___$ReturnUdt$ = 8					; size = 4
?GetDisplayDataVertMinMax@CSelectSubGraphData@@QBE?AVCDisplayDataMinMax@@XZ PROC ; CSelectSubGraphData::GetDisplayDataVertMinMax, COMDAT
; _this$ = ecx

; 146  : {

  00000	55		 push	 ebp
  00001	8b ec		 mov	 ebp, esp

; 147  : 	return m_displayDataVertMinMax;

  00003	8b 45 08	 mov	 eax, DWORD PTR ___$ReturnUdt$[ebp]
  00006	0f 10 41 70	 movups	 xmm0, XMMWORD PTR [ecx+112]
  0000a	0f 11 00	 movups	 XMMWORD PTR [eax], xmm0

; 148  : }

  0000d	5d		 pop	 ebp
  0000e	c2 04 00	 ret	 4
?GetDisplayDataVertMinMax@CSelectSubGraphData@@QBE?AVCDisplayDataMinMax@@XZ ENDP ; CSelectSubGraphData::GetDisplayDataVertMinMax
_TEXT	ENDS
; Function compile flags: /Ogtp
; File D:\git\src\IBK\IBK_DRFN\ProjSrc\SrcChartEx\ChartOCX\Include_Chart\SelectSubGraphData.cpp
;	COMDAT ?GetDisplayDataHorzMinMax@CSelectSubGraphData@@QBE?AVCDisplayDataMinMax@@XZ
_TEXT	SEGMENT
___$ReturnUdt$ = 8					; size = 4
?GetDisplayDataHorzMinMax@CSelectSubGraphData@@QBE?AVCDisplayDataMinMax@@XZ PROC ; CSelectSubGraphData::GetDisplayDataHorzMinMax, COMDAT
; _this$ = ecx

; 141  : {

  00000	55		 push	 ebp
  00001	8b ec		 mov	 ebp, esp

; 142  : 	return m_displayDataHorzMinMax;

  00003	8b 45 08	 mov	 eax, DWORD PTR ___$ReturnUdt$[ebp]
  00006	0f 10 41 60	 movups	 xmm0, XMMWORD PTR [ecx+96]
  0000a	0f 11 00	 movups	 XMMWORD PTR [eax], xmm0

; 143  : }

  0000d	5d		 pop	 ebp
  0000e	c2 04 00	 ret	 4
?GetDisplayDataHorzMinMax@CSelectSubGraphData@@QBE?AVCDisplayDataMinMax@@XZ ENDP ; CSelectSubGraphData::GetDisplayDataHorzMinMax
_TEXT	ENDS
; Function compile flags: /Ogtp
; File D:\git\src\IBK\IBK_DRFN\ProjSrc\SrcChartEx\ChartOCX\Include_Chart\SelectSubGraphData.cpp
;	COMDAT ?GetSubGraphDrawStyle@CSelectSubGraphData@@QBE?AVCGraphDrawStyle@@XZ
_TEXT	SEGMENT
___$ReturnUdt$ = 8					; size = 4
?GetSubGraphDrawStyle@CSelectSubGraphData@@QBE?AVCGraphDrawStyle@@XZ PROC ; CSelectSubGraphData::GetSubGraphDrawStyle, COMDAT
; _this$ = ecx

; 136  : {

  00000	55		 push	 ebp
  00001	8b ec		 mov	 ebp, esp

; 137  : 	return m_nSubGraphDrawStyle;

  00003	8b 45 08	 mov	 eax, DWORD PTR ___$ReturnUdt$[ebp]
  00006	8b 49 5c	 mov	 ecx, DWORD PTR [ecx+92]
  00009	89 08		 mov	 DWORD PTR [eax], ecx

; 138  : }

  0000b	5d		 pop	 ebp
  0000c	c2 04 00	 ret	 4
?GetSubGraphDrawStyle@CSelectSubGraphData@@QBE?AVCGraphDrawStyle@@XZ ENDP ; CSelectSubGraphData::GetSubGraphDrawStyle
_TEXT	ENDS
; Function compile flags: /Ogtp
; File D:\git\src\IBK\IBK_DRFN\ProjSrc\SrcChartEx\ChartOCX\Include_Chart\SelectSubGraphData.cpp
;	COMDAT ?GetSubGraphStyle@CSelectSubGraphData@@QBE?AVCGraphStyle@@XZ
_TEXT	SEGMENT
___$ReturnUdt$ = 8					; size = 4
?GetSubGraphStyle@CSelectSubGraphData@@QBE?AVCGraphStyle@@XZ PROC ; CSelectSubGraphData::GetSubGraphStyle, COMDAT
; _this$ = ecx

; 131  : {

  00000	55		 push	 ebp
  00001	8b ec		 mov	 ebp, esp

; 132  : 	return m_nSubGraphStyle;

  00003	8b 45 08	 mov	 eax, DWORD PTR ___$ReturnUdt$[ebp]
  00006	8b 49 58	 mov	 ecx, DWORD PTR [ecx+88]
  00009	89 08		 mov	 DWORD PTR [eax], ecx

; 133  : }

  0000b	5d		 pop	 ebp
  0000c	c2 04 00	 ret	 4
?GetSubGraphStyle@CSelectSubGraphData@@QBE?AVCGraphStyle@@XZ ENDP ; CSelectSubGraphData::GetSubGraphStyle
_TEXT	ENDS
; Function compile flags: /Ogtp
; File D:\git\src\IBK\IBK_DRFN\ProjSrc\SrcChartEx\ChartOCX\Include_Chart\SelectSubGraphData.cpp
;	COMDAT ?GetSubGraphType@CSelectSubGraphData@@QBE?AW4GRAPHTYPE@CGraphBaseData@@XZ
_TEXT	SEGMENT
?GetSubGraphType@CSelectSubGraphData@@QBE?AW4GRAPHTYPE@CGraphBaseData@@XZ PROC ; CSelectSubGraphData::GetSubGraphType, COMDAT
; _this$ = ecx

; 127  : 	return m_TYPESubGraphType;

  00000	8b 41 54	 mov	 eax, DWORD PTR [ecx+84]

; 128  : }

  00003	c3		 ret	 0
?GetSubGraphType@CSelectSubGraphData@@QBE?AW4GRAPHTYPE@CGraphBaseData@@XZ ENDP ; CSelectSubGraphData::GetSubGraphType
_TEXT	ENDS
; Function compile flags: /Ogtp
; File D:\git\src\IBK\IBK_DRFN\ProjSrc\SrcChartEx\ChartOCX\Include_Chart\SelectSubGraphData.cpp
;	COMDAT ?GetGraphRegions@CSelectSubGraphData@@QBE?AVCGraphRegions@@XZ
_TEXT	SEGMENT
___$ReturnUdt$ = 8					; size = 4
?GetGraphRegions@CSelectSubGraphData@@QBE?AVCGraphRegions@@XZ PROC ; CSelectSubGraphData::GetGraphRegions, COMDAT
; _this$ = ecx

; 121  : {

  00000	55		 push	 ebp
  00001	8b ec		 mov	 ebp, esp

; 122  : 	return m_graphRegions;

  00003	8b 45 08	 mov	 eax, DWORD PTR ___$ReturnUdt$[ebp]
  00006	0f 10 41 10	 movups	 xmm0, XMMWORD PTR [ecx+16]
  0000a	0f 11 00	 movups	 XMMWORD PTR [eax], xmm0
  0000d	0f 10 41 20	 movups	 xmm0, XMMWORD PTR [ecx+32]
  00011	0f 11 40 10	 movups	 XMMWORD PTR [eax+16], xmm0
  00015	0f 10 41 30	 movups	 xmm0, XMMWORD PTR [ecx+48]
  00019	0f 11 40 20	 movups	 XMMWORD PTR [eax+32], xmm0
  0001d	0f 10 41 40	 movups	 xmm0, XMMWORD PTR [ecx+64]
  00021	8b 49 50	 mov	 ecx, DWORD PTR [ecx+80]
  00024	0f 11 40 30	 movups	 XMMWORD PTR [eax+48], xmm0
  00028	89 48 40	 mov	 DWORD PTR [eax+64], ecx

; 123  : }

  0002b	5d		 pop	 ebp
  0002c	c2 04 00	 ret	 4
?GetGraphRegions@CSelectSubGraphData@@QBE?AVCGraphRegions@@XZ ENDP ; CSelectSubGraphData::GetGraphRegions
_TEXT	ENDS
; Function compile flags: /Ogtp
; File D:\git\src\IBK\IBK_DRFN\ProjSrc\SrcChartEx\ChartOCX\Include_Chart\SelectSubGraphData.cpp
;	COMDAT ?GetVertScaleInvertType@CSelectSubGraphData@@QBE_NXZ
_TEXT	SEGMENT
?GetVertScaleInvertType@CSelectSubGraphData@@QBE_NXZ PROC ; CSelectSubGraphData::GetVertScaleInvertType, COMDAT
; _this$ = ecx

; 117  : 	return m_bIsVertScaleInvertType;

  00000	8a 41 0d	 mov	 al, BYTE PTR [ecx+13]

; 118  : }

  00003	c3		 ret	 0
?GetVertScaleInvertType@CSelectSubGraphData@@QBE_NXZ ENDP ; CSelectSubGraphData::GetVertScaleInvertType
_TEXT	ENDS
; Function compile flags: /Ogtp
; File D:\git\src\IBK\IBK_DRFN\ProjSrc\SrcChartEx\ChartOCX\Include_Chart\SelectSubGraphData.cpp
;	COMDAT ?GetVertScaleLogType@CSelectSubGraphData@@QBE_NXZ
_TEXT	SEGMENT
?GetVertScaleLogType@CSelectSubGraphData@@QBE_NXZ PROC	; CSelectSubGraphData::GetVertScaleLogType, COMDAT
; _this$ = ecx

; 112  : 	return m_bIsVertScaleLogType;

  00000	8a 41 0c	 mov	 al, BYTE PTR [ecx+12]

; 113  : }

  00003	c3		 ret	 0
?GetVertScaleLogType@CSelectSubGraphData@@QBE_NXZ ENDP	; CSelectSubGraphData::GetVertScaleLogType
_TEXT	ENDS
; Function compile flags: /Ogtp
; File D:\git\src\IBK\IBK_DRFN\ProjSrc\SrcChartEx\ChartOCX\Include_Chart\SelectSubGraphData.cpp
;	COMDAT ?GetGraphName@CSelectSubGraphData@@QBE?AV?$CStringT@DV?$StrTraitMFC_DLL@DV?$ChTraitsCRT@D@ATL@@@@@ATL@@XZ
_TEXT	SEGMENT
___$ReturnUdt$ = 8					; size = 4
?GetGraphName@CSelectSubGraphData@@QBE?AV?$CStringT@DV?$StrTraitMFC_DLL@DV?$ChTraitsCRT@D@ATL@@@@@ATL@@XZ PROC ; CSelectSubGraphData::GetGraphName, COMDAT
; _this$ = ecx

; 106  : {

  00000	55		 push	 ebp
  00001	8b ec		 mov	 ebp, esp

; 107  : 	return m_strGraphName;

  00003	8d 41 04	 lea	 eax, DWORD PTR [ecx+4]
  00006	8b 4d 08	 mov	 ecx, DWORD PTR ___$ReturnUdt$[ebp]
  00009	50		 push	 eax
  0000a	ff 15 00 00 00
	00		 call	 DWORD PTR __imp_??0?$CStringT@DV?$StrTraitMFC_DLL@DV?$ChTraitsCRT@D@ATL@@@@@ATL@@QAE@ABV01@@Z
  00010	8b 45 08	 mov	 eax, DWORD PTR ___$ReturnUdt$[ebp]

; 108  : }

  00013	5d		 pop	 ebp
  00014	c2 04 00	 ret	 4
?GetGraphName@CSelectSubGraphData@@QBE?AV?$CStringT@DV?$StrTraitMFC_DLL@DV?$ChTraitsCRT@D@ATL@@@@@ATL@@XZ ENDP ; CSelectSubGraphData::GetGraphName
_TEXT	ENDS
; Function compile flags: /Ogtp
; File D:\git\src\IBK\IBK_DRFN\ProjSrc\SrcChartEx\ChartOCX\Include_Chart\SelectSubGraphData.cpp
;	COMDAT ?GetDrawingOrderType@CSelectSubGraphData@@QBE?AW4DRAWINGORDER@CDrawingOption@@XZ
_TEXT	SEGMENT
?GetDrawingOrderType@CSelectSubGraphData@@QBE?AW4DRAWINGORDER@CDrawingOption@@XZ PROC ; CSelectSubGraphData::GetDrawingOrderType, COMDAT
; _this$ = ecx

; 102  : 	return m_eDrawingOrderType;

  00000	8b 01		 mov	 eax, DWORD PTR [ecx]

; 103  : }

  00002	c3		 ret	 0
?GetDrawingOrderType@CSelectSubGraphData@@QBE?AW4DRAWINGORDER@CDrawingOption@@XZ ENDP ; CSelectSubGraphData::GetDrawingOrderType
_TEXT	ENDS
; Function compile flags: /Ogtp
; File D:\git\src\IBK\IBK_DRFN\ProjSrc\SrcChartEx\ChartOCX\Include_Chart\SelectSubGraphData.cpp
;	COMDAT ?SetRQ@CSelectSubGraphData@@QAEXV?$CStringT@DV?$StrTraitMFC_DLL@DV?$ChTraitsCRT@D@ATL@@@@@ATL@@@Z
_TEXT	SEGMENT
__$EHRec$ = -12						; size = 12
_strRQ$ = 8						; size = 4
?SetRQ@CSelectSubGraphData@@QAEXV?$CStringT@DV?$StrTraitMFC_DLL@DV?$ChTraitsCRT@D@ATL@@@@@ATL@@@Z PROC ; CSelectSubGraphData::SetRQ, COMDAT
; _this$ = ecx

; 96   : {

  00000	55		 push	 ebp
  00001	8b ec		 mov	 ebp, esp
  00003	6a ff		 push	 -1
  00005	68 00 00 00 00	 push	 __ehhandler$?SetRQ@CSelectSubGraphData@@QAEXV?$CStringT@DV?$StrTraitMFC_DLL@DV?$ChTraitsCRT@D@ATL@@@@@ATL@@@Z
  0000a	64 a1 00 00 00
	00		 mov	 eax, DWORD PTR fs:0
  00010	50		 push	 eax
  00011	a1 00 00 00 00	 mov	 eax, DWORD PTR ___security_cookie
  00016	33 c5		 xor	 eax, ebp
  00018	50		 push	 eax
  00019	8d 45 f4	 lea	 eax, DWORD PTR __$EHRec$[ebp]
  0001c	64 a3 00 00 00
	00		 mov	 DWORD PTR fs:0, eax

; 97   : 	m_strRQ = strRQ;

  00022	8d 45 08	 lea	 eax, DWORD PTR _strRQ$[ebp]
  00025	c7 45 fc 00 00
	00 00		 mov	 DWORD PTR __$EHRec$[ebp+8], 0
  0002c	50		 push	 eax
  0002d	81 c1 94 00 00
	00		 add	 ecx, 148		; 00000094H
  00033	ff 15 00 00 00
	00		 call	 DWORD PTR __imp_??4?$CStringT@DV?$StrTraitMFC_DLL@DV?$ChTraitsCRT@D@ATL@@@@@ATL@@QAEAAV01@ABV01@@Z

; 98   : }

  00039	8d 4d 08	 lea	 ecx, DWORD PTR _strRQ$[ebp]
  0003c	ff 15 00 00 00
	00		 call	 DWORD PTR __imp_??1?$CStringT@DV?$StrTraitMFC_DLL@DV?$ChTraitsCRT@D@ATL@@@@@ATL@@QAE@XZ
  00042	8b 4d f4	 mov	 ecx, DWORD PTR __$EHRec$[ebp]
  00045	64 89 0d 00 00
	00 00		 mov	 DWORD PTR fs:0, ecx
  0004c	59		 pop	 ecx
  0004d	8b e5		 mov	 esp, ebp
  0004f	5d		 pop	 ebp
  00050	c2 04 00	 ret	 4
_TEXT	ENDS
;	COMDAT text$x
text$x	SEGMENT
__unwindfunclet$?SetRQ@CSelectSubGraphData@@QAEXV?$CStringT@DV?$StrTraitMFC_DLL@DV?$ChTraitsCRT@D@ATL@@@@@ATL@@@Z$0:
  00000	8d 4d 08	 lea	 ecx, DWORD PTR _strRQ$[ebp]
  00003	ff 25 00 00 00
	00		 jmp	 DWORD PTR __imp_??1?$CStringT@DV?$StrTraitMFC_DLL@DV?$ChTraitsCRT@D@ATL@@@@@ATL@@QAE@XZ
  00009	cc		 int	 3
  0000a	cc		 int	 3
  0000b	cc		 int	 3
  0000c	cc		 int	 3
  0000d	cc		 int	 3
__ehhandler$?SetRQ@CSelectSubGraphData@@QAEXV?$CStringT@DV?$StrTraitMFC_DLL@DV?$ChTraitsCRT@D@ATL@@@@@ATL@@@Z:
  0000e	90		 npad	 1
  0000f	90		 npad	 1
  00010	8b 54 24 08	 mov	 edx, DWORD PTR [esp+8]
  00014	8d 42 0c	 lea	 eax, DWORD PTR [edx+12]
  00017	8b 4a fc	 mov	 ecx, DWORD PTR [edx-4]
  0001a	33 c8		 xor	 ecx, eax
  0001c	e8 00 00 00 00	 call	 @__security_check_cookie@4
  00021	b8 00 00 00 00	 mov	 eax, OFFSET __ehfuncinfo$?SetRQ@CSelectSubGraphData@@QAEXV?$CStringT@DV?$StrTraitMFC_DLL@DV?$ChTraitsCRT@D@ATL@@@@@ATL@@@Z
  00026	e9 00 00 00 00	 jmp	 ___CxxFrameHandler3
text$x	ENDS
?SetRQ@CSelectSubGraphData@@QAEXV?$CStringT@DV?$StrTraitMFC_DLL@DV?$ChTraitsCRT@D@ATL@@@@@ATL@@@Z ENDP ; CSelectSubGraphData::SetRQ
; Function compile flags: /Ogtp
; File D:\git\src\IBK\IBK_DRFN\ProjSrc\SrcChartEx\ChartOCX\Include_Chart\SelectSubGraphData.cpp
;	COMDAT ?SetXScaleManager@CSelectSubGraphData@@QAEXPAVCXScaleManager@@@Z
_TEXT	SEGMENT
_pXScaleManager$ = 8					; size = 4
?SetXScaleManager@CSelectSubGraphData@@QAEXPAVCXScaleManager@@@Z PROC ; CSelectSubGraphData::SetXScaleManager, COMDAT
; _this$ = ecx

; 91   : {

  00000	55		 push	 ebp
  00001	8b ec		 mov	 ebp, esp

; 92   : 	m_pXScaleManager = pXScaleManager;

  00003	8b 45 08	 mov	 eax, DWORD PTR _pXScaleManager$[ebp]
  00006	89 81 90 00 00
	00		 mov	 DWORD PTR [ecx+144], eax

; 93   : }

  0000c	5d		 pop	 ebp
  0000d	c2 04 00	 ret	 4
?SetXScaleManager@CSelectSubGraphData@@QAEXPAVCXScaleManager@@@Z ENDP ; CSelectSubGraphData::SetXScaleManager
_TEXT	ENDS
; Function compile flags: /Ogtp
; File D:\git\src\IBK\IBK_DRFN\ProjSrc\SrcChartEx\ChartOCX\Include_Chart\SelectSubGraphData.cpp
;	COMDAT ?SetIndicatorInfo@CSelectSubGraphData@@QAEXPAVCIndicatorInfo@@@Z
_TEXT	SEGMENT
_pIndicatorInfo$ = 8					; size = 4
?SetIndicatorInfo@CSelectSubGraphData@@QAEXPAVCIndicatorInfo@@@Z PROC ; CSelectSubGraphData::SetIndicatorInfo, COMDAT
; _this$ = ecx

; 86   : {

  00000	55		 push	 ebp
  00001	8b ec		 mov	 ebp, esp

; 87   : 	m_pIndicatorInfo = pIndicatorInfo;

  00003	8b 45 08	 mov	 eax, DWORD PTR _pIndicatorInfo$[ebp]
  00006	89 81 8c 00 00
	00		 mov	 DWORD PTR [ecx+140], eax

; 88   : }

  0000c	5d		 pop	 ebp
  0000d	c2 04 00	 ret	 4
?SetIndicatorInfo@CSelectSubGraphData@@QAEXPAVCIndicatorInfo@@@Z ENDP ; CSelectSubGraphData::SetIndicatorInfo
_TEXT	ENDS
; Function compile flags: /Ogtp
; File D:\git\src\IBK\IBK_DRFN\ProjSrc\SrcChartEx\ChartOCX\Include_Chart\SelectSubGraphData.cpp
;	COMDAT ?SetSubGraphPacketList@CSelectSubGraphData@@QAEXPAVCSubGraphPacketList@@@Z
_TEXT	SEGMENT
_pSubGraphPacketList$ = 8				; size = 4
?SetSubGraphPacketList@CSelectSubGraphData@@QAEXPAVCSubGraphPacketList@@@Z PROC ; CSelectSubGraphData::SetSubGraphPacketList, COMDAT
; _this$ = ecx

; 81   : {

  00000	55		 push	 ebp
  00001	8b ec		 mov	 ebp, esp

; 82   : 	m_pSubGraphPacketList = pSubGraphPacketList;

  00003	8b 45 08	 mov	 eax, DWORD PTR _pSubGraphPacketList$[ebp]
  00006	89 81 88 00 00
	00		 mov	 DWORD PTR [ecx+136], eax

; 83   : }

  0000c	5d		 pop	 ebp
  0000d	c2 04 00	 ret	 4
?SetSubGraphPacketList@CSelectSubGraphData@@QAEXPAVCSubGraphPacketList@@@Z ENDP ; CSelectSubGraphData::SetSubGraphPacketList
_TEXT	ENDS
; Function compile flags: /Ogtp
; File D:\git\src\IBK\IBK_DRFN\ProjSrc\SrcChartEx\ChartOCX\Include_Chart\SelectSubGraphData.cpp
;	COMDAT ?SetDisplayAttributes@CSelectSubGraphData@@QAEXABVCDisplayAttributes@@@Z
_TEXT	SEGMENT
_displayAttributes$ = 8					; size = 4
?SetDisplayAttributes@CSelectSubGraphData@@QAEXABVCDisplayAttributes@@@Z PROC ; CSelectSubGraphData::SetDisplayAttributes, COMDAT
; _this$ = ecx

; 76   : {

  00000	55		 push	 ebp
  00001	8b ec		 mov	 ebp, esp

; 77   : 	m_displayAttributes = displayAttributes;

  00003	83 e9 80	 sub	 ecx, -128		; ffffff80H

; 78   : }

  00006	5d		 pop	 ebp

; 77   : 	m_displayAttributes = displayAttributes;

  00007	e9 00 00 00 00	 jmp	 ??4CDisplayAttributes@@QAEAAV0@ABV0@@Z ; CDisplayAttributes::operator=
?SetDisplayAttributes@CSelectSubGraphData@@QAEXABVCDisplayAttributes@@@Z ENDP ; CSelectSubGraphData::SetDisplayAttributes
_TEXT	ENDS
; Function compile flags: /Ogtp
; File D:\git\src\IBK\IBK_DRFN\ProjSrc\SrcChartEx\ChartOCX\Include_Chart\SelectSubGraphData.cpp
;	COMDAT ?SetDisplayDataVertMinMax@CSelectSubGraphData@@QAEXABVCDisplayDataMinMax@@@Z
_TEXT	SEGMENT
_displayDataMinMax$ = 8					; size = 4
?SetDisplayDataVertMinMax@CSelectSubGraphData@@QAEXABVCDisplayDataMinMax@@@Z PROC ; CSelectSubGraphData::SetDisplayDataVertMinMax, COMDAT
; _this$ = ecx

; 71   : {

  00000	55		 push	 ebp
  00001	8b ec		 mov	 ebp, esp

; 72   : 	m_displayDataVertMinMax = displayDataMinMax;

  00003	83 c1 70	 add	 ecx, 112		; 00000070H

; 73   : }

  00006	5d		 pop	 ebp

; 72   : 	m_displayDataVertMinMax = displayDataMinMax;

  00007	ff 25 00 00 00
	00		 jmp	 DWORD PTR __imp_??4CDisplayDataMinMax@@QAEAAV0@ABV0@@Z
?SetDisplayDataVertMinMax@CSelectSubGraphData@@QAEXABVCDisplayDataMinMax@@@Z ENDP ; CSelectSubGraphData::SetDisplayDataVertMinMax
_TEXT	ENDS
; Function compile flags: /Ogtp
; File D:\git\src\IBK\IBK_DRFN\ProjSrc\SrcChartEx\ChartOCX\Include_Chart\SelectSubGraphData.cpp
;	COMDAT ?SetDisplayDataHorzMinMax@CSelectSubGraphData@@QAEXABVCDisplayDataMinMax@@@Z
_TEXT	SEGMENT
_displayDataMinMax$ = 8					; size = 4
?SetDisplayDataHorzMinMax@CSelectSubGraphData@@QAEXABVCDisplayDataMinMax@@@Z PROC ; CSelectSubGraphData::SetDisplayDataHorzMinMax, COMDAT
; _this$ = ecx

; 66   : {

  00000	55		 push	 ebp
  00001	8b ec		 mov	 ebp, esp

; 67   : 	m_displayDataHorzMinMax = displayDataMinMax;

  00003	83 c1 60	 add	 ecx, 96			; 00000060H

; 68   : }

  00006	5d		 pop	 ebp

; 67   : 	m_displayDataHorzMinMax = displayDataMinMax;

  00007	ff 25 00 00 00
	00		 jmp	 DWORD PTR __imp_??4CDisplayDataMinMax@@QAEAAV0@ABV0@@Z
?SetDisplayDataHorzMinMax@CSelectSubGraphData@@QAEXABVCDisplayDataMinMax@@@Z ENDP ; CSelectSubGraphData::SetDisplayDataHorzMinMax
_TEXT	ENDS
; Function compile flags: /Ogtp
; File D:\git\src\IBK\IBK_DRFN\ProjSrc\SrcChartEx\ChartOCX\Include_Chart\SelectSubGraphData.cpp
;	COMDAT ?SetSubGraphDrawStyle@CSelectSubGraphData@@QAEXABVCGraphDrawStyle@@@Z
_TEXT	SEGMENT
_subGraphDrawStyle$ = 8					; size = 4
?SetSubGraphDrawStyle@CSelectSubGraphData@@QAEXABVCGraphDrawStyle@@@Z PROC ; CSelectSubGraphData::SetSubGraphDrawStyle, COMDAT
; _this$ = ecx

; 61   : {

  00000	55		 push	 ebp
  00001	8b ec		 mov	 ebp, esp

; 62   : 	m_nSubGraphDrawStyle = subGraphDrawStyle;

  00003	8b 45 08	 mov	 eax, DWORD PTR _subGraphDrawStyle$[ebp]
  00006	8b 00		 mov	 eax, DWORD PTR [eax]
  00008	89 41 5c	 mov	 DWORD PTR [ecx+92], eax

; 63   : }

  0000b	5d		 pop	 ebp
  0000c	c2 04 00	 ret	 4
?SetSubGraphDrawStyle@CSelectSubGraphData@@QAEXABVCGraphDrawStyle@@@Z ENDP ; CSelectSubGraphData::SetSubGraphDrawStyle
_TEXT	ENDS
; Function compile flags: /Ogtp
; File D:\git\src\IBK\IBK_DRFN\ProjSrc\SrcChartEx\ChartOCX\Include_Chart\SelectSubGraphData.cpp
;	COMDAT ?SetSubGraphStyle@CSelectSubGraphData@@QAEXABVCGraphStyle@@@Z
_TEXT	SEGMENT
_subGraphStyle$ = 8					; size = 4
?SetSubGraphStyle@CSelectSubGraphData@@QAEXABVCGraphStyle@@@Z PROC ; CSelectSubGraphData::SetSubGraphStyle, COMDAT
; _this$ = ecx

; 56   : {

  00000	55		 push	 ebp
  00001	8b ec		 mov	 ebp, esp

; 57   : 	m_nSubGraphStyle = subGraphStyle;

  00003	8b 45 08	 mov	 eax, DWORD PTR _subGraphStyle$[ebp]
  00006	8b 00		 mov	 eax, DWORD PTR [eax]
  00008	89 41 58	 mov	 DWORD PTR [ecx+88], eax

; 58   : }

  0000b	5d		 pop	 ebp
  0000c	c2 04 00	 ret	 4
?SetSubGraphStyle@CSelectSubGraphData@@QAEXABVCGraphStyle@@@Z ENDP ; CSelectSubGraphData::SetSubGraphStyle
_TEXT	ENDS
; Function compile flags: /Ogtp
; File D:\git\src\IBK\IBK_DRFN\ProjSrc\SrcChartEx\ChartOCX\Include_Chart\SelectSubGraphData.cpp
;	COMDAT ?SetSubGraphType@CSelectSubGraphData@@QAEXW4GRAPHTYPE@CGraphBaseData@@@Z
_TEXT	SEGMENT
_subGraphType$ = 8					; size = 4
?SetSubGraphType@CSelectSubGraphData@@QAEXW4GRAPHTYPE@CGraphBaseData@@@Z PROC ; CSelectSubGraphData::SetSubGraphType, COMDAT
; _this$ = ecx

; 51   : {

  00000	55		 push	 ebp
  00001	8b ec		 mov	 ebp, esp

; 52   : 	m_TYPESubGraphType = subGraphType;

  00003	8b 45 08	 mov	 eax, DWORD PTR _subGraphType$[ebp]
  00006	89 41 54	 mov	 DWORD PTR [ecx+84], eax

; 53   : }

  00009	5d		 pop	 ebp
  0000a	c2 04 00	 ret	 4
?SetSubGraphType@CSelectSubGraphData@@QAEXW4GRAPHTYPE@CGraphBaseData@@@Z ENDP ; CSelectSubGraphData::SetSubGraphType
_TEXT	ENDS
; Function compile flags: /Ogtp
; File D:\git\src\IBK\IBK_DRFN\ProjSrc\SrcChartEx\ChartOCX\Include_Chart\SelectSubGraphData.cpp
;	COMDAT ?SetGraphRegions@CSelectSubGraphData@@QAEXABVCGraphRegions@@@Z
_TEXT	SEGMENT
_graphRegions$ = 8					; size = 4
?SetGraphRegions@CSelectSubGraphData@@QAEXABVCGraphRegions@@@Z PROC ; CSelectSubGraphData::SetGraphRegions, COMDAT
; _this$ = ecx

; 46   : {

  00000	55		 push	 ebp
  00001	8b ec		 mov	 ebp, esp

; 47   : 	m_graphRegions = graphRegions;

  00003	8b 45 08	 mov	 eax, DWORD PTR _graphRegions$[ebp]
  00006	0f 10 00	 movups	 xmm0, XMMWORD PTR [eax]
  00009	0f 11 41 10	 movups	 XMMWORD PTR [ecx+16], xmm0
  0000d	0f 10 40 10	 movups	 xmm0, XMMWORD PTR [eax+16]
  00011	0f 11 41 20	 movups	 XMMWORD PTR [ecx+32], xmm0
  00015	0f 10 40 20	 movups	 xmm0, XMMWORD PTR [eax+32]
  00019	0f 11 41 30	 movups	 XMMWORD PTR [ecx+48], xmm0
  0001d	0f 10 40 30	 movups	 xmm0, XMMWORD PTR [eax+48]
  00021	0f 11 41 40	 movups	 XMMWORD PTR [ecx+64], xmm0
  00025	8b 40 40	 mov	 eax, DWORD PTR [eax+64]
  00028	89 41 50	 mov	 DWORD PTR [ecx+80], eax

; 48   : }

  0002b	5d		 pop	 ebp
  0002c	c2 04 00	 ret	 4
?SetGraphRegions@CSelectSubGraphData@@QAEXABVCGraphRegions@@@Z ENDP ; CSelectSubGraphData::SetGraphRegions
_TEXT	ENDS
; Function compile flags: /Ogtp
; File D:\git\src\IBK\IBK_DRFN\ProjSrc\SrcChartEx\ChartOCX\Include_Chart\SelectSubGraphData.cpp
;	COMDAT ?SetVertScaleInvertType@CSelectSubGraphData@@QAEX_N@Z
_TEXT	SEGMENT
_bIsVertScaleInvertType$ = 8				; size = 1
?SetVertScaleInvertType@CSelectSubGraphData@@QAEX_N@Z PROC ; CSelectSubGraphData::SetVertScaleInvertType, COMDAT
; _this$ = ecx

; 41   : {

  00000	55		 push	 ebp
  00001	8b ec		 mov	 ebp, esp

; 42   : 	m_bIsVertScaleInvertType = bIsVertScaleInvertType;

  00003	8a 45 08	 mov	 al, BYTE PTR _bIsVertScaleInvertType$[ebp]
  00006	88 41 0d	 mov	 BYTE PTR [ecx+13], al

; 43   : }

  00009	5d		 pop	 ebp
  0000a	c2 04 00	 ret	 4
?SetVertScaleInvertType@CSelectSubGraphData@@QAEX_N@Z ENDP ; CSelectSubGraphData::SetVertScaleInvertType
_TEXT	ENDS
; Function compile flags: /Ogtp
; File D:\git\src\IBK\IBK_DRFN\ProjSrc\SrcChartEx\ChartOCX\Include_Chart\SelectSubGraphData.cpp
;	COMDAT ?SetVertScaleLogType@CSelectSubGraphData@@QAEX_N@Z
_TEXT	SEGMENT
_bIsVertScaleLogType$ = 8				; size = 1
?SetVertScaleLogType@CSelectSubGraphData@@QAEX_N@Z PROC	; CSelectSubGraphData::SetVertScaleLogType, COMDAT
; _this$ = ecx

; 36   : {

  00000	55		 push	 ebp
  00001	8b ec		 mov	 ebp, esp

; 37   : 	m_bIsVertScaleLogType = bIsVertScaleLogType;

  00003	8a 45 08	 mov	 al, BYTE PTR _bIsVertScaleLogType$[ebp]
  00006	88 41 0c	 mov	 BYTE PTR [ecx+12], al

; 38   : }

  00009	5d		 pop	 ebp
  0000a	c2 04 00	 ret	 4
?SetVertScaleLogType@CSelectSubGraphData@@QAEX_N@Z ENDP	; CSelectSubGraphData::SetVertScaleLogType
_TEXT	ENDS
; Function compile flags: /Ogtp
; File D:\git\src\IBK\IBK_DRFN\ProjSrc\SrcChartEx\ChartOCX\Include_Chart\SelectSubGraphData.cpp
;	COMDAT ?SetGraphName@CSelectSubGraphData@@QAEXABV?$CStringT@DV?$StrTraitMFC_DLL@DV?$ChTraitsCRT@D@ATL@@@@@ATL@@@Z
_TEXT	SEGMENT
_GraphName$ = 8						; size = 4
?SetGraphName@CSelectSubGraphData@@QAEXABV?$CStringT@DV?$StrTraitMFC_DLL@DV?$ChTraitsCRT@D@ATL@@@@@ATL@@@Z PROC ; CSelectSubGraphData::SetGraphName, COMDAT
; _this$ = ecx

; 31   : {

  00000	55		 push	 ebp
  00001	8b ec		 mov	 ebp, esp

; 32   : 	m_strGraphName = GraphName;

  00003	83 c1 04	 add	 ecx, 4

; 33   : }

  00006	5d		 pop	 ebp

; 32   : 	m_strGraphName = GraphName;

  00007	ff 25 00 00 00
	00		 jmp	 DWORD PTR __imp_??4?$CStringT@DV?$StrTraitMFC_DLL@DV?$ChTraitsCRT@D@ATL@@@@@ATL@@QAEAAV01@ABV01@@Z
?SetGraphName@CSelectSubGraphData@@QAEXABV?$CStringT@DV?$StrTraitMFC_DLL@DV?$ChTraitsCRT@D@ATL@@@@@ATL@@@Z ENDP ; CSelectSubGraphData::SetGraphName
_TEXT	ENDS
; Function compile flags: /Ogtp
; File D:\git\src\IBK\IBK_DRFN\ProjSrc\SrcChartEx\ChartOCX\Include_Chart\SelectSubGraphData.cpp
;	COMDAT ?SetDrawingOrderType@CSelectSubGraphData@@QAEXW4DRAWINGORDER@CDrawingOption@@@Z
_TEXT	SEGMENT
_eDrawingOrderType$ = 8					; size = 4
?SetDrawingOrderType@CSelectSubGraphData@@QAEXW4DRAWINGORDER@CDrawingOption@@@Z PROC ; CSelectSubGraphData::SetDrawingOrderType, COMDAT
; _this$ = ecx

; 26   : {

  00000	55		 push	 ebp
  00001	8b ec		 mov	 ebp, esp

; 27   : 	m_eDrawingOrderType = eDrawingOrderType;

  00003	8b 45 08	 mov	 eax, DWORD PTR _eDrawingOrderType$[ebp]
  00006	89 01		 mov	 DWORD PTR [ecx], eax

; 28   : }

  00008	5d		 pop	 ebp
  00009	c2 04 00	 ret	 4
?SetDrawingOrderType@CSelectSubGraphData@@QAEXW4DRAWINGORDER@CDrawingOption@@@Z ENDP ; CSelectSubGraphData::SetDrawingOrderType
_TEXT	ENDS
; Function compile flags: /Ogtp
; File D:\git\src\IBK\IBK_DRFN\ProjSrc\SrcChartEx\ChartOCX\Include_Chart\SelectSubGraphData.cpp
; File D:\git\src\IBK\IBK_DRFN\ProjSrc\SrcChartEx\ChartOCX\Include_Chart\BlockBaseData.h
; File D:\git\src\IBK\IBK_DRFN\ProjSrc\SrcChartEx\ChartOCX\Include_Chart\SelectSubGraphData.cpp
;	COMDAT ??0CSelectSubGraphData@@QAE@XZ
_TEXT	SEGMENT
_this$ = -16						; size = 4
__$EHRec$ = -12						; size = 12
??0CSelectSubGraphData@@QAE@XZ PROC			; CSelectSubGraphData::CSelectSubGraphData, COMDAT
; _this$ = ecx

; 21   : {

  00000	55		 push	 ebp
  00001	8b ec		 mov	 ebp, esp
  00003	6a ff		 push	 -1
  00005	68 00 00 00 00	 push	 __ehhandler$??0CSelectSubGraphData@@QAE@XZ
  0000a	64 a1 00 00 00
	00		 mov	 eax, DWORD PTR fs:0
  00010	50		 push	 eax
  00011	51		 push	 ecx
  00012	56		 push	 esi
  00013	57		 push	 edi
  00014	a1 00 00 00 00	 mov	 eax, DWORD PTR ___security_cookie
  00019	33 c5		 xor	 eax, ebp
  0001b	50		 push	 eax
  0001c	8d 45 f4	 lea	 eax, DWORD PTR __$EHRec$[ebp]
  0001f	64 a3 00 00 00
	00		 mov	 DWORD PTR fs:0, eax
  00025	8b f9		 mov	 edi, ecx
  00027	89 7d f0	 mov	 DWORD PTR _this$[ebp], edi
  0002a	8d 4f 04	 lea	 ecx, DWORD PTR [edi+4]
  0002d	c7 07 00 00 00
	00		 mov	 DWORD PTR [edi], 0
  00033	ff 15 00 00 00
	00		 call	 DWORD PTR __imp_??0?$CStringT@DV?$StrTraitMFC_DLL@DV?$ChTraitsCRT@D@ATL@@@@@ATL@@QAE@XZ
  00039	8d 4f 08	 lea	 ecx, DWORD PTR [edi+8]
  0003c	c7 45 fc 00 00
	00 00		 mov	 DWORD PTR __$EHRec$[ebp+8], 0
  00043	ff 15 00 00 00
	00		 call	 DWORD PTR __imp_??0?$CStringT@DV?$StrTraitMFC_DLL@DV?$ChTraitsCRT@D@ATL@@@@@ATL@@QAE@XZ
  00049	8d 4f 10	 lea	 ecx, DWORD PTR [edi+16]
  0004c	c6 45 fc 01	 mov	 BYTE PTR __$EHRec$[ebp+8], 1
  00050	66 c7 47 0c 00
	00		 mov	 WORD PTR [edi+12], 0
  00056	e8 00 00 00 00	 call	 ??0CGraphRegions@@QAE@XZ ; CGraphRegions::CGraphRegions
  0005b	8b 35 00 00 00
	00		 mov	 esi, DWORD PTR __imp_??0CDisplayDataMinMax@@QAE@XZ
  00061	8d 4f 60	 lea	 ecx, DWORD PTR [edi+96]
  00064	c7 47 54 ff ff
	ff ff		 mov	 DWORD PTR [edi+84], -1
; File D:\git\src\IBK\IBK_DRFN\ProjSrc\SrcChartEx\ChartOCX\Include_Chart\BlockBaseData.h

; 42   : 	CGraphStyle() { m_nStyle = -1; };

  0006b	c7 47 58 ff ff
	ff ff		 mov	 DWORD PTR [edi+88], -1

; 65   : 	CGraphDrawStyle() { m_nStyle = -1; };

  00072	c7 47 5c ff ff
	ff ff		 mov	 DWORD PTR [edi+92], -1
; File D:\git\src\IBK\IBK_DRFN\ProjSrc\SrcChartEx\ChartOCX\Include_Chart\SelectSubGraphData.cpp

; 21   : {

  00079	ff d6		 call	 esi
  0007b	8d 4f 70	 lea	 ecx, DWORD PTR [edi+112]
  0007e	ff d6		 call	 esi
  00080	8d 8f 80 00 00
	00		 lea	 ecx, DWORD PTR [edi+128]
  00086	e8 00 00 00 00	 call	 ??0CDisplayAttributes@@QAE@XZ ; CDisplayAttributes::CDisplayAttributes
  0008b	8d 8f 94 00 00
	00		 lea	 ecx, DWORD PTR [edi+148]
  00091	c7 87 88 00 00
	00 00 00 00 00	 mov	 DWORD PTR [edi+136], 0
  0009b	c7 87 8c 00 00
	00 00 00 00 00	 mov	 DWORD PTR [edi+140], 0
  000a5	c7 87 90 00 00
	00 00 00 00 00	 mov	 DWORD PTR [edi+144], 0
  000af	ff 15 00 00 00
	00		 call	 DWORD PTR __imp_??0?$CStringT@DV?$StrTraitMFC_DLL@DV?$ChTraitsCRT@D@ATL@@@@@ATL@@QAE@XZ

; 22   : 	m_strRQ = "DEFAULT";

  000b5	68 00 00 00 00	 push	 OFFSET ??_C@_07MGCPDNLD@DEFAULT@
  000ba	8d 8f 94 00 00
	00		 lea	 ecx, DWORD PTR [edi+148]
  000c0	c6 45 fc 02	 mov	 BYTE PTR __$EHRec$[ebp+8], 2
  000c4	ff 15 00 00 00
	00		 call	 DWORD PTR __imp_??4?$CStringT@DV?$StrTraitMFC_DLL@DV?$ChTraitsCRT@D@ATL@@@@@ATL@@QAEAAV01@PBD@Z

; 23   : }

  000ca	8b c7		 mov	 eax, edi
  000cc	8b 4d f4	 mov	 ecx, DWORD PTR __$EHRec$[ebp]
  000cf	64 89 0d 00 00
	00 00		 mov	 DWORD PTR fs:0, ecx
  000d6	59		 pop	 ecx
  000d7	5f		 pop	 edi
  000d8	5e		 pop	 esi
  000d9	8b e5		 mov	 esp, ebp
  000db	5d		 pop	 ebp
  000dc	c3		 ret	 0
_TEXT	ENDS
;	COMDAT text$x
text$x	SEGMENT
__unwindfunclet$??0CSelectSubGraphData@@QAE@XZ$0:
  00000	8b 4d f0	 mov	 ecx, DWORD PTR _this$[ebp]
  00003	83 c1 04	 add	 ecx, 4
  00006	ff 25 00 00 00
	00		 jmp	 DWORD PTR __imp_??1?$CStringT@DV?$StrTraitMFC_DLL@DV?$ChTraitsCRT@D@ATL@@@@@ATL@@QAE@XZ
__unwindfunclet$??0CSelectSubGraphData@@QAE@XZ$1:
  0000c	8b 4d f0	 mov	 ecx, DWORD PTR _this$[ebp]
  0000f	83 c1 08	 add	 ecx, 8
  00012	ff 25 00 00 00
	00		 jmp	 DWORD PTR __imp_??1?$CStringT@DV?$StrTraitMFC_DLL@DV?$ChTraitsCRT@D@ATL@@@@@ATL@@QAE@XZ
__unwindfunclet$??0CSelectSubGraphData@@QAE@XZ$2:
  00018	8b 4d f0	 mov	 ecx, DWORD PTR _this$[ebp]
  0001b	81 c1 94 00 00
	00		 add	 ecx, 148		; 00000094H
  00021	ff 25 00 00 00
	00		 jmp	 DWORD PTR __imp_??1?$CStringT@DV?$StrTraitMFC_DLL@DV?$ChTraitsCRT@D@ATL@@@@@ATL@@QAE@XZ
  00027	cc		 int	 3
  00028	cc		 int	 3
  00029	cc		 int	 3
  0002a	cc		 int	 3
  0002b	cc		 int	 3
__ehhandler$??0CSelectSubGraphData@@QAE@XZ:
  0002c	90		 npad	 1
  0002d	90		 npad	 1
  0002e	8b 54 24 08	 mov	 edx, DWORD PTR [esp+8]
  00032	8d 42 0c	 lea	 eax, DWORD PTR [edx+12]
  00035	8b 4a f0	 mov	 ecx, DWORD PTR [edx-16]
  00038	33 c8		 xor	 ecx, eax
  0003a	e8 00 00 00 00	 call	 @__security_check_cookie@4
  0003f	b8 00 00 00 00	 mov	 eax, OFFSET __ehfuncinfo$??0CSelectSubGraphData@@QAE@XZ
  00044	e9 00 00 00 00	 jmp	 ___CxxFrameHandler3
text$x	ENDS
??0CSelectSubGraphData@@QAE@XZ ENDP			; CSelectSubGraphData::CSelectSubGraphData
; Function compile flags: /Ogtp
;	COMDAT ??4CGraphDrawer@@QAEAAV0@$$QAV0@@Z
_TEXT	SEGMENT
___that$ = 8						; size = 4
??4CGraphDrawer@@QAEAAV0@$$QAV0@@Z PROC			; CGraphDrawer::operator=, COMDAT
; _this$ = ecx
  00000	8b c1		 mov	 eax, ecx
  00002	c2 04 00	 ret	 4
??4CGraphDrawer@@QAEAAV0@$$QAV0@@Z ENDP			; CGraphDrawer::operator=
_TEXT	ENDS
; Function compile flags: /Ogtp
;	COMDAT ??4CGraphDrawer@@QAEAAV0@ABV0@@Z
_TEXT	SEGMENT
___that$ = 8						; size = 4
??4CGraphDrawer@@QAEAAV0@ABV0@@Z PROC			; CGraphDrawer::operator=, COMDAT
; _this$ = ecx
  00000	8b c1		 mov	 eax, ecx
  00002	c2 04 00	 ret	 4
??4CGraphDrawer@@QAEAAV0@ABV0@@Z ENDP			; CGraphDrawer::operator=
_TEXT	ENDS
; Function compile flags: /Ogtp
; File D:\git\src\IBK\IBK_DRFN\ProjSrc\SrcChartEx\ChartOCX\Include_Chart\SelectSubGraphData.cpp
;	COMDAT ?__empty_global_delete@@YAXPAXI@Z
_TEXT	SEGMENT
___formal$ = 8						; size = 4
___formal$ = 12						; size = 4
?__empty_global_delete@@YAXPAXI@Z PROC			; __empty_global_delete, COMDAT

  00000	c2 00 00	 ret	 0
?__empty_global_delete@@YAXPAXI@Z ENDP			; __empty_global_delete
_TEXT	ENDS
; Function compile flags: /Ogtp
; File D:\git\src\IBK\IBK_DRFN\ProjSrc\SrcChartEx\ChartOCX\Include_Chart\SelectSubGraphData.cpp
;	COMDAT ?__empty_global_delete@@YAXPAX@Z
_TEXT	SEGMENT
___formal$ = 8						; size = 4
?__empty_global_delete@@YAXPAX@Z PROC			; __empty_global_delete, COMDAT

  00000	c2 00 00	 ret	 0
?__empty_global_delete@@YAXPAX@Z ENDP			; __empty_global_delete
_TEXT	ENDS
END
