; Listing generated by Microsoft (R) Optimizing Compiler Version 19.29.30145.0 

	TITLE	D:\git\src\IBK\IBK_DRFN\#DRfn-CS\_Obj\ChartAnalysisToolAddIn\CrosshairsDragAddInImp.obj
	.686P
	.XMM
	include listing.inc
	.model	flat

INCLUDELIB MSVCRT
INCLUDELIB OLDNAMES

PUBLIC	??_C@_0L@FBEDBBOG@CROSS_DRAG@			; `string'
PUBLIC	?m_eRegisteredEventMap@CCrosshairsDragAddInImp@@1QBW4EAddInEventType@IChartAddIn133101@@B ; CCrosshairsDragAddInImp::m_eRegisteredEventMap
CONST	SEGMENT
?m_eRegisteredEventMap@CCrosshairsDragAddInImp@@1QBW4EAddInEventType@IChartAddIn133101@@B DD 014H ; CCrosshairsDragAddInImp::m_eRegisteredEventMap
	DD	022H
	DD	035H
	DD	02fH
	DD	012H
	DD	013H
	DD	01dH
	DD	01aH
	DD	01bH
	DD	01H
	DD	07H
	DD	03bH
	ORG $+192
CONST	ENDS
;	COMDAT ??_C@_0L@FBEDBBOG@CROSS_DRAG@
CONST	SEGMENT
??_C@_0L@FBEDBBOG@CROSS_DRAG@ DB 'CROSS_DRAG', 00H	; `string'
CONST	ENDS
PUBLIC	?__empty_global_delete@@YAXPAX@Z		; __empty_global_delete
PUBLIC	?__empty_global_delete@@YAXPAXI@Z		; __empty_global_delete
PUBLIC	?Serialize@CObject@@UAEXAAVCArchive@@@Z		; CObject::Serialize
PUBLIC	?AssertValid@CObject@@UBEXXZ			; CObject::AssertValid
PUBLIC	?Dump@CObject@@UBEXAAVCDumpContext@@@Z		; CObject::Dump
PUBLIC	?PostConstruct@CIWUnknown@@MAEXXZ		; CIWUnknown::PostConstruct
PUBLIC	?PreDestructX@CIWUnknown@@MAEXXZ		; CIWUnknown::PreDestructX
PUBLIC	?PreDestruct@CIWUnknown@@MAEXXZ			; CIWUnknown::PreDestruct
PUBLIC	?AddRef@CChartAddInBase133101@@MAGKXZ		; CChartAddInBase133101::AddRef
PUBLIC	?Release@CChartAddInBase133101@@MAGKXZ		; CChartAddInBase133101::Release
PUBLIC	?QueryInterface@CChartAddInBase133101@@MAGJABU_GUID@@PAPAX@Z ; CChartAddInBase133101::QueryInterface
PUBLIC	?GetAddInCustomInterface@CChartAddInBase133101@@MAEPAUIUnknown@@XZ ; CChartAddInBase133101::GetAddInCustomInterface
PUBLIC	?InvokeAddIn@CChartAddInBase133101@@MAEHHJ@Z	; CChartAddInBase133101::InvokeAddIn
PUBLIC	?InvokeAddInStr@CChartAddInBase133101@@MAEHPBD0@Z ; CChartAddInBase133101::InvokeAddInStr
PUBLIC	?OnOcxDestroyWindow@CChartAddInBase133101@@MAEXXZ ; CChartAddInBase133101::OnOcxDestroyWindow
PUBLIC	?OnGSharedDataChange@CChartAddInBase133101@@MAEXPBD0H@Z ; CChartAddInBase133101::OnGSharedDataChange
PUBLIC	?OnLSharedDataChange@CChartAddInBase133101@@MAEXPBD0@Z ; CChartAddInBase133101::OnLSharedDataChange
PUBLIC	?OnDrawBeforeGraph@CChartAddInBase133101@@MAEXPAUHDC__@@@Z ; CChartAddInBase133101::OnDrawBeforeGraph
PUBLIC	?OnPacketDataMultiItem@CChartAddInBase133101@@MAEXPBD0H@Z ; CChartAddInBase133101::OnPacketDataMultiItem
PUBLIC	?OnTimer@CChartAddInBase133101@@MAEXI@Z		; CChartAddInBase133101::OnTimer
PUBLIC	?OnResetMainBlock@CChartAddInBase133101@@MAEXXZ	; CChartAddInBase133101::OnResetMainBlock
PUBLIC	?OnUserIndiatorConditionLoaded@CChartAddInBase133101@@MAEXXZ ; CChartAddInBase133101::OnUserIndiatorConditionLoaded
PUBLIC	?OnChartItemChanged@CChartAddInBase133101@@MAEXXZ ; CChartAddInBase133101::OnChartItemChanged
PUBLIC	?OnGraphDataChanged@CChartAddInBase133101@@MAEXXZ ; CChartAddInBase133101::OnGraphDataChanged
PUBLIC	?OnBlockRemoved@CChartAddInBase133101@@MAEXHH@Z	; CChartAddInBase133101::OnBlockRemoved
PUBLIC	?OnGraphAdded@CChartAddInBase133101@@MAEXPBD0@Z	; CChartAddInBase133101::OnGraphAdded
PUBLIC	?OnManualRealData@CChartAddInBase133101@@MAEXPBDNH@Z ; CChartAddInBase133101::OnManualRealData
PUBLIC	?OnContextMenu@CChartAddInBase133101@@MAEXPAUHWND__@@AAUtagPOINT@@@Z ; CChartAddInBase133101::OnContextMenu
PUBLIC	?OnGraphDeleted@CChartAddInBase133101@@MAEXPBD0@Z ; CChartAddInBase133101::OnGraphDeleted
PUBLIC	?OnPacketTruncated@CChartAddInBase133101@@MAEXH@Z ; CChartAddInBase133101::OnPacketTruncated
PUBLIC	?OnBlockChanged@CChartAddInBase133101@@MAEXW4BLOCKBEHAVIOR@CBlockBaseData@@HHHH@Z ; CChartAddInBase133101::OnBlockChanged
PUBLIC	?OnRealData@CChartAddInBase133101@@MAEXPBDN0@Z	; CChartAddInBase133101::OnRealData
PUBLIC	?OnIndexedRealData@CChartAddInBase133101@@MAEXPBDHN@Z ; CChartAddInBase133101::OnIndexedRealData
PUBLIC	?OnRealPacketEnd@CChartAddInBase133101@@MAEXPBD@Z ; CChartAddInBase133101::OnRealPacketEnd
PUBLIC	?OnLoadEnvironment@CChartAddInBase133101@@MAEXPAUIPropertyMap@@@Z ; CChartAddInBase133101::OnLoadEnvironment
PUBLIC	?OnSaveEnvironment@CChartAddInBase133101@@MAEXPAUIPropertyMap@@@Z ; CChartAddInBase133101::OnSaveEnvironment
PUBLIC	?OnRecalculationComplete@CChartAddInBase133101@@MAEXXZ ; CChartAddInBase133101::OnRecalculationComplete
PUBLIC	?OnPreRealData@CChartAddInBase133101@@MAEHPBDAAN0@Z ; CChartAddInBase133101::OnPreRealData
PUBLIC	?OnPreIndexedRealData@CChartAddInBase133101@@MAEHPBDHAAN@Z ; CChartAddInBase133101::OnPreIndexedRealData
PUBLIC	?OnPreRealPacketEnd@CChartAddInBase133101@@MAEHPBD@Z ; CChartAddInBase133101::OnPreRealPacketEnd
PUBLIC	?OnAddInMsg@CChartAddInBase133101@@MAEHPBDJ@Z	; CChartAddInBase133101::OnAddInMsg
PUBLIC	?OnAddInToolCommand@CChartAddInBase133101@@MAEHW4EAICommandType@@PAUHDC__@@IAAUtagPOINT@@K@Z ; CChartAddInBase133101::OnAddInToolCommand
PUBLIC	?OnAddInToolCommand@CChartAddInBase133101@@MAEHW4EAICommandType@@PBD@Z ; CChartAddInBase133101::OnAddInToolCommand
PUBLIC	?OnAddInToolCommand@CChartAddInBase133101@@MAEHW4EAICommandType@@PBD1@Z ; CChartAddInBase133101::OnAddInToolCommand
PUBLIC	?OnAddInToolCommand@CChartAddInBase133101@@MAEHW4EAICommandType@@PBDJ@Z ; CChartAddInBase133101::OnAddInToolCommand
PUBLIC	?OnAddInToolCommand@CChartAddInBase133101@@MAEHW4EAICommandType@@PBUIAddInDllBase@@@Z ; CChartAddInBase133101::OnAddInToolCommand
PUBLIC	?OnAddInToolCommand@CChartAddInBase133101@@MAEHW4EAICommandType@@JPBD@Z ; CChartAddInBase133101::OnAddInToolCommand
PUBLIC	?OnAddInToolCommand@CChartAddInBase133101@@MAEHW4EAICommandType@@JPBD11@Z ; CChartAddInBase133101::OnAddInToolCommand
PUBLIC	?OnAddInToolCommand@CChartAddInBase133101@@MAEHW4EAICommandType@@JJ@Z ; CChartAddInBase133101::OnAddInToolCommand
PUBLIC	?OnAddInToolCommand@CChartAddInBase133101@@MAEHW4EAICommandType@@JJJJJJJJJ@Z ; CChartAddInBase133101::OnAddInToolCommand
PUBLIC	?OnAddInToolCommand@CChartAddInBase133101@@MAEHAAJW4EAICommandType@@@Z ; CChartAddInBase133101::OnAddInToolCommand
PUBLIC	?OnAddInToolCommand@CChartAddInBase133101@@MAEHAAJW4EAICommandType@@PAUIGraphInfo133101@@@Z ; CChartAddInBase133101::OnAddInToolCommand
PUBLIC	?OnAddInToolCommand@CChartAddInBase133101@@MAEHAAJW4EAICommandType@@PBD@Z ; CChartAddInBase133101::OnAddInToolCommand
PUBLIC	?OnAddInToolCommand@CChartAddInBase133101@@MAEHAAJW4EAICommandType@@PBDPAVCObject@@@Z ; CChartAddInBase133101::OnAddInToolCommand
PUBLIC	?OnAddInToolCommand@CChartAddInBase133101@@MAEHAAJW4EAICommandType@@J@Z ; CChartAddInBase133101::OnAddInToolCommand
PUBLIC	?OnAddInToolCommand@CChartAddInBase133101@@MAEHAAJW4EAICommandType@@JJ@Z ; CChartAddInBase133101::OnAddInToolCommand
PUBLIC	?OnKeyDown@CChartAddInBase133101@@MAEHIII@Z	; CChartAddInBase133101::OnKeyDown
PUBLIC	?OnKeyUp@CChartAddInBase133101@@MAEHIII@Z	; CChartAddInBase133101::OnKeyUp
PUBLIC	?OnMouseWheel@CChartAddInBase133101@@MAEHIFUtagPOINT@@K@Z ; CChartAddInBase133101::OnMouseWheel
PUBLIC	?OnLButtonDblClk@CChartAddInBase133101@@MAEHPAUHDC__@@IAAUtagPOINT@@K@Z ; CChartAddInBase133101::OnLButtonDblClk
PUBLIC	?OnRButtonDown@CChartAddInBase133101@@MAEHPAUHDC__@@IAAUtagPOINT@@K@Z ; CChartAddInBase133101::OnRButtonDown
PUBLIC	?OnRButtonUp@CChartAddInBase133101@@MAEHPAUHDC__@@IAAUtagPOINT@@K@Z ; CChartAddInBase133101::OnRButtonUp
PUBLIC	?OnRButtonDblClk@CChartAddInBase133101@@MAEHPAUHDC__@@IAAUtagPOINT@@K@Z ; CChartAddInBase133101::OnRButtonDblClk
PUBLIC	??0CCrosshairsDragAddInImp@@QAE@PAUIChartOCX133101@@PAUIAddInDllBase@@@Z ; CCrosshairsDragAddInImp::CCrosshairsDragAddInImp
PUBLIC	??1CCrosshairsDragAddInImp@@UAE@XZ		; CCrosshairsDragAddInImp::~CCrosshairsDragAddInImp
PUBLIC	?GetRegisteredEventMap@CCrosshairsDragAddInImp@@MBEPBW4EAddInEventType@IChartAddIn133101@@XZ ; CCrosshairsDragAddInImp::GetRegisteredEventMap
PUBLIC	?DrawNewCross@CCrosshairsDragAddInImp@@IAEXPAUHDC__@@@Z ; CCrosshairsDragAddInImp::DrawNewCross
PUBLIC	?GetGraphTotalRegion@CCrosshairsDragAddInImp@@IAEHVCPoint@@@Z ; CCrosshairsDragAddInImp::GetGraphTotalRegion
PUBLIC	?GetCurrentPosData@CCrosshairsDragAddInImp@@IAEHVCPoint@@@Z ; CCrosshairsDragAddInImp::GetCurrentPosData
PUBLIC	?SetCaptureWithFlag@CCrosshairsDragAddInImp@@IAEXXZ ; CCrosshairsDragAddInImp::SetCaptureWithFlag
PUBLIC	?ReleaseCaptureWithFlag@CCrosshairsDragAddInImp@@IAEXXZ ; CCrosshairsDragAddInImp::ReleaseCaptureWithFlag
PUBLIC	?SetInquiryXData@CCrosshairsDragAddInImp@@IAEXAAV?$CStringT@DV?$StrTraitMFC_DLL@DV?$ChTraitsCRT@D@ATL@@@@@ATL@@PAVCInquiryData@@1@Z ; CCrosshairsDragAddInImp::SetInquiryXData
PUBLIC	?OnDrawAfterGraph@CCrosshairsDragAddInImp@@MAEXPAUHDC__@@@Z ; CCrosshairsDragAddInImp::OnDrawAfterGraph
PUBLIC	?OnResetChart@CCrosshairsDragAddInImp@@MAEXXZ	; CCrosshairsDragAddInImp::OnResetChart
PUBLIC	?DrawCursor@CCrosshairsDragAddInImp@@MAE?AUtagRECT@@PAUHDC__@@@Z ; CCrosshairsDragAddInImp::DrawCursor
PUBLIC	?OnToolCommand@CCrosshairsDragAddInImp@@MAEXHH@Z ; CCrosshairsDragAddInImp::OnToolCommand
PUBLIC	?OnCaptureChanged@CCrosshairsDragAddInImp@@MAEXPAUHWND__@@QAUHBITMAP__@@@Z ; CCrosshairsDragAddInImp::OnCaptureChanged
PUBLIC	?OnCmdMsg@CCrosshairsDragAddInImp@@MAEHIHPAUICmdUI133101@@@Z ; CCrosshairsDragAddInImp::OnCmdMsg
PUBLIC	?OnAddInToolCommand@CCrosshairsDragAddInImp@@MAEHW4EAICommandType@@@Z ; CCrosshairsDragAddInImp::OnAddInToolCommand
PUBLIC	?OnAddInToolCommand@CCrosshairsDragAddInImp@@MAEHW4EAICommandType@@J@Z ; CCrosshairsDragAddInImp::OnAddInToolCommand
PUBLIC	?OnMouseMove@CCrosshairsDragAddInImp@@MAEHPAUHDC__@@IAAUtagPOINT@@KQAUHBITMAP__@@@Z ; CCrosshairsDragAddInImp::OnMouseMove
PUBLIC	?OnLButtonDown@CCrosshairsDragAddInImp@@MAEHPAUHDC__@@IAAUtagPOINT@@K@Z ; CCrosshairsDragAddInImp::OnLButtonDown
PUBLIC	?OnLButtonUp@CCrosshairsDragAddInImp@@MAEHPAUHDC__@@IAAUtagPOINT@@K@Z ; CCrosshairsDragAddInImp::OnLButtonUp
PUBLIC	??_GCCrosshairsDragAddInImp@@UAEPAXI@Z		; CCrosshairsDragAddInImp::`scalar deleting destructor'
PUBLIC	??1CMultiLanguageResourceSetter@@QAE@XZ		; CMultiLanguageResourceSetter::~CMultiLanguageResourceSetter
PUBLIC	??_GCMainAnalysisTool@@UAEPAXI@Z		; CMainAnalysisTool::`scalar deleting destructor'
PUBLIC	?QueryInterface@CChartAddInBase133101@@O7AGJABU_GUID@@PAPAX@Z ; [thunk]:CChartAddInBase133101::QueryInterface`adjustor{8}'
PUBLIC	?AddRef@CChartAddInBase133101@@O7AGKXZ		; [thunk]:CChartAddInBase133101::AddRef`adjustor{8}'
PUBLIC	?Release@CChartAddInBase133101@@O7AGKXZ		; [thunk]:CChartAddInBase133101::Release`adjustor{8}'
PUBLIC	??_ECCrosshairsDragAddInImp@@W7AEPAXI@Z		; [thunk]:CCrosshairsDragAddInImp::`vector deleting destructor'
PUBLIC	??_C@_00CNPNBAHC@@				; `string'
PUBLIC	??_R0?AVCObject@@@8				; CObject `RTTI Type Descriptor'
PUBLIC	??_R3CObject@@8					; CObject::`RTTI Class Hierarchy Descriptor'
PUBLIC	??_R2CObject@@8					; CObject::`RTTI Base Class Array'
PUBLIC	??_R1A@?0A@EA@CObject@@8			; CObject::`RTTI Base Class Descriptor at (0,-1,0,64)'
PUBLIC	??_R0?AUIUnknown@@@8				; IUnknown `RTTI Type Descriptor'
PUBLIC	??_R3IUnknown@@8				; IUnknown::`RTTI Class Hierarchy Descriptor'
PUBLIC	??_R2IUnknown@@8				; IUnknown::`RTTI Base Class Array'
PUBLIC	??_R1A@?0A@EA@IUnknown@@8			; IUnknown::`RTTI Base Class Descriptor at (0,-1,0,64)'
PUBLIC	?m_strAddInItemName@CCrosshairsDragAddInImp@@2V?$CStringT@DV?$StrTraitMFC_DLL@DV?$ChTraitsCRT@D@ATL@@@@@ATL@@A ; CCrosshairsDragAddInImp::m_strAddInItemName
PUBLIC	??_7CCrosshairsDragAddInImp@@6BCIWUnknown@@@	; CCrosshairsDragAddInImp::`vftable'
PUBLIC	??_7CCrosshairsDragAddInImp@@6BIChartAddIn133101@@@ ; CCrosshairsDragAddInImp::`vftable'
PUBLIC	??_C@_0BA@ENJOCHIO@LoadResourceDLL@		; `string'
PUBLIC	??_SCMainAnalysisTool@@6B@			; CMainAnalysisTool::`local vftable'
PUBLIC	??_C@_07MGCPDNLD@DEFAULT@			; `string'
PUBLIC	??_R0?AUIChartAddIn133101@@@8			; IChartAddIn133101 `RTTI Type Descriptor'
PUBLIC	??_R3IChartAddIn133101@@8			; IChartAddIn133101::`RTTI Class Hierarchy Descriptor'
PUBLIC	??_R2IChartAddIn133101@@8			; IChartAddIn133101::`RTTI Base Class Array'
PUBLIC	??_R1A@?0A@EA@IChartAddIn133101@@8		; IChartAddIn133101::`RTTI Base Class Descriptor at (0,-1,0,64)'
PUBLIC	??_R4CMainAnalysisTool@@6B@			; CMainAnalysisTool::`RTTI Complete Object Locator'
PUBLIC	??_R0?AVCMainAnalysisTool@@@8			; CMainAnalysisTool `RTTI Type Descriptor'
PUBLIC	??_R3CMainAnalysisTool@@8			; CMainAnalysisTool::`RTTI Class Hierarchy Descriptor'
PUBLIC	??_R2CMainAnalysisTool@@8			; CMainAnalysisTool::`RTTI Base Class Array'
PUBLIC	??_R1A@?0A@EA@CMainAnalysisTool@@8		; CMainAnalysisTool::`RTTI Base Class Descriptor at (0,-1,0,64)'
PUBLIC	??_R4CCrosshairsDragAddInImp@@6BCIWUnknown@@@	; CCrosshairsDragAddInImp::`RTTI Complete Object Locator'
PUBLIC	??_R0?AVCCrosshairsDragAddInImp@@@8		; CCrosshairsDragAddInImp `RTTI Type Descriptor'
PUBLIC	??_R3CCrosshairsDragAddInImp@@8			; CCrosshairsDragAddInImp::`RTTI Class Hierarchy Descriptor'
PUBLIC	??_R2CCrosshairsDragAddInImp@@8			; CCrosshairsDragAddInImp::`RTTI Base Class Array'
PUBLIC	??_R1A@?0A@EA@CCrosshairsDragAddInImp@@8	; CCrosshairsDragAddInImp::`RTTI Base Class Descriptor at (0,-1,0,64)'
PUBLIC	??_R1A@?0A@EA@CChartAddInBase133101@@8		; CChartAddInBase133101::`RTTI Base Class Descriptor at (0,-1,0,64)'
PUBLIC	??_R0?AVCChartAddInBase133101@@@8		; CChartAddInBase133101 `RTTI Type Descriptor'
PUBLIC	??_R3CChartAddInBase133101@@8			; CChartAddInBase133101::`RTTI Class Hierarchy Descriptor'
PUBLIC	??_R2CChartAddInBase133101@@8			; CChartAddInBase133101::`RTTI Base Class Array'
PUBLIC	??_R1A@?0A@EA@CIWUnknown@@8			; CIWUnknown::`RTTI Base Class Descriptor at (0,-1,0,64)'
PUBLIC	??_R0?AVCIWUnknown@@@8				; CIWUnknown `RTTI Type Descriptor'
PUBLIC	??_R3CIWUnknown@@8				; CIWUnknown::`RTTI Class Hierarchy Descriptor'
PUBLIC	??_R2CIWUnknown@@8				; CIWUnknown::`RTTI Base Class Array'
PUBLIC	??_R17?0A@EA@IChartAddIn133101@@8		; IChartAddIn133101::`RTTI Base Class Descriptor at (8,-1,0,64)'
PUBLIC	??_R17?0A@EA@IUnknown@@8			; IUnknown::`RTTI Base Class Descriptor at (8,-1,0,64)'
PUBLIC	??_R4CCrosshairsDragAddInImp@@6BIChartAddIn133101@@@ ; CCrosshairsDragAddInImp::`RTTI Complete Object Locator'
EXTRN	??2@YAPAXI@Z:PROC				; operator new
EXTRN	??3@YAXPAX@Z:PROC				; operator delete
EXTRN	??3@YAXPAXI@Z:PROC				; operator delete
EXTRN	?__global_delete@@YAXPAXI@Z:PROC		; __global_delete
EXTRN	_atexit:PROC
EXTRN	___std_terminate:PROC
EXTRN	__imp__GetProcAddress@8:PROC
EXTRN	__imp__GetTextExtentPoint32A@16:PROC
EXTRN	__imp__Rectangle@20:PROC
EXTRN	__imp__SetRectEmpty@4:PROC
EXTRN	__imp__CopyRect@8:PROC
EXTRN	__imp__IsRectEmpty@4:PROC
EXTRN	__imp__EqualRect@8:PROC
EXTRN	__imp__PtInRect@12:PROC
EXTRN	?AfxThrowInvalidArgException@@YGXXZ:PROC	; AfxThrowInvalidArgException
EXTRN	?GetRuntimeClass@CObject@@UBEPAUCRuntimeClass@@XZ:PROC ; CObject::GetRuntimeClass
EXTRN	__imp_?Empty@?$CSimpleStringT@D$00@ATL@@QAEXXZ:PROC
EXTRN	__imp_??0?$CStringT@DV?$StrTraitMFC_DLL@DV?$ChTraitsCRT@D@ATL@@@@@ATL@@QAE@XZ:PROC
EXTRN	__imp_??0?$CStringT@DV?$StrTraitMFC_DLL@DV?$ChTraitsCRT@D@ATL@@@@@ATL@@QAE@PBD@Z:PROC
EXTRN	__imp_??1?$CStringT@DV?$StrTraitMFC_DLL@DV?$ChTraitsCRT@D@ATL@@@@@ATL@@QAE@XZ:PROC
EXTRN	__imp_??4?$CStringT@DV?$StrTraitMFC_DLL@DV?$ChTraitsCRT@D@ATL@@@@@ATL@@QAEAAV01@ABV01@@Z:PROC
EXTRN	?AfxGetModuleState@@YGPAVAFX_MODULE_STATE@@XZ:PROC ; AfxGetModuleState
EXTRN	?AfxGetStaticModuleState@@YGPAVAFX_MODULE_STATE@@XZ:PROC ; AfxGetStaticModuleState
EXTRN	?FromHandle@CDC@@SGPAV1@PAUHDC__@@@Z:PROC	; CDC::FromHandle
EXTRN	?SelectObject@CDC@@QAEPAVCPen@@PAV2@@Z:PROC	; CDC::SelectObject
EXTRN	?SelectObject@CDC@@QAEPAVCBrush@@PAV2@@Z:PROC	; CDC::SelectObject
EXTRN	?SetROP2@CDC@@QAEHH@Z:PROC			; CDC::SetROP2
EXTRN	?MoveTo@CDC@@QAE?AVCPoint@@HH@Z:PROC		; CDC::MoveTo
EXTRN	?LineTo@CDC@@QAEHHH@Z:PROC			; CDC::LineTo
EXTRN	?AddRef@CIWUnknown@@MAGKXZ:PROC			; CIWUnknown::AddRef
EXTRN	?Release@CIWUnknown@@MAGKXZ:PROC		; CIWUnknown::Release
EXTRN	??0CChartAddInBase133101@@IAE@PAUIChartOCX133101@@PAUIAddInDllBase@@@Z:PROC ; CChartAddInBase133101::CChartAddInBase133101
EXTRN	??1CChartAddInBase133101@@MAE@XZ:PROC		; CChartAddInBase133101::~CChartAddInBase133101
EXTRN	?HasFullManager@CChartAddInBase133101@@MAEHXZ:PROC ; CChartAddInBase133101::HasFullManager
EXTRN	?RegisterEventMap@CChartAddInBase133101@@UAEHH@Z:PROC ; CChartAddInBase133101::RegisterEventMap
EXTRN	?UnregisterEventMap@CChartAddInBase133101@@UAEHXZ:PROC ; CChartAddInBase133101::UnregisterEventMap
EXTRN	??0CNumericalInquiryDataQueryer@@QAE@PAUIChartOCX133101@@@Z:PROC ; CNumericalInquiryDataQueryer::CNumericalInquiryDataQueryer
EXTRN	??1CNumericalInquiryDataQueryer@@UAE@XZ:PROC	; CNumericalInquiryDataQueryer::~CNumericalInquiryDataQueryer
EXTRN	?ParsingInquiryData@CNumericalInquiryDataQueryer@@QAEHV?$CStringT@DV?$StrTraitMFC_DLL@DV?$ChTraitsCRT@D@ATL@@@@@ATL@@VCPoint@@_NHH@Z:PROC ; CNumericalInquiryDataQueryer::ParsingInquiryData
EXTRN	??_ECCrosshairsDragAddInImp@@UAEPAXI@Z:PROC	; CCrosshairsDragAddInImp::`vector deleting destructor'
EXTRN	__imp_??0CMainAnalysisTool@@QAE@PAVCWnd@@PAUHWND__@@W4CHART_MODE@CChartInfo@@@Z:PROC
EXTRN	__imp_??1CMainAnalysisTool@@UAE@XZ:PROC
EXTRN	__imp_?SetMainBlock@CMainAnalysisTool@@QAEXPAUIChartManager133101@@PAUIChartOCX133101@@@Z:PROC
EXTRN	__imp_?SetAutoPriceTool@CMainAnalysisTool@@QAEX_N@Z:PROC
EXTRN	__imp_?SetBaseColor@CMainAnalysisTool@@QAEXABK0@Z:PROC
EXTRN	__imp_?SetBasePenColor@CMainAnalysisTool@@QAEXABK@Z:PROC
EXTRN	__imp_?GetGraphTotalRegion@CMainAnalysisTool@@QAE?AVCRect@@VCPoint@@@Z:PROC
EXTRN	__imp_?GetCurrentPosData@CMainAnalysisTool@@QAEHVCPoint@@AAV?$CStringT@DV?$StrTraitMFC_DLL@DV?$ChTraitsCRT@D@ATL@@@@@ATL@@1@Z:PROC
EXTRN	__imp_?OnDraw@CMainAnalysisTool@@QAEXPAVCDC@@H@Z:PROC
EXTRN	__imp_?ChangeAllElementsColor@CMainAnalysisTool@@QAEXABK0@Z:PROC
EXTRN	??_ECMainAnalysisTool@@UAEPAXI@Z:PROC		; CMainAnalysisTool::`vector deleting destructor'
EXTRN	@__security_check_cookie@4:PROC
EXTRN	___CxxFrameHandler3:PROC
EXTRN	??_7type_info@@6B@:QWORD			; type_info::`vftable'
EXTRN	?g_iMetaTable@@3VIMetaTable@@A:BYTE		; g_iMetaTable
EXTRN	___security_cookie:DWORD
EXTRN	__fltused:DWORD
_BSS	SEGMENT
?m_strAddInItemName@CCrosshairsDragAddInImp@@2V?$CStringT@DV?$StrTraitMFC_DLL@DV?$ChTraitsCRT@D@ATL@@@@@ATL@@A DD 01H DUP (?) ; CCrosshairsDragAddInImp::m_strAddInItemName
_BSS	ENDS
CRT$XCU	SEGMENT
??m_strAddInItemName$initializer$@CCrosshairsDragAddInImp@@2P6AXXZA@@3P6AXXZA DD FLAT:??__E?m_strAddInItemName@CCrosshairsDragAddInImp@@2V?$CStringT@DV?$StrTraitMFC_DLL@DV?$ChTraitsCRT@D@ATL@@@@@ATL@@A@@YAXXZ ; ??m_strAddInItemName$initializer$@CCrosshairsDragAddInImp@@2P6AXXZA@@3P6AXXZA
CRT$XCU	ENDS
;	COMDAT ??_R4CCrosshairsDragAddInImp@@6BIChartAddIn133101@@@
rdata$r	SEGMENT
??_R4CCrosshairsDragAddInImp@@6BIChartAddIn133101@@@ DD 00H ; CCrosshairsDragAddInImp::`RTTI Complete Object Locator'
	DD	08H
	DD	00H
	DD	FLAT:??_R0?AVCCrosshairsDragAddInImp@@@8
	DD	FLAT:??_R3CCrosshairsDragAddInImp@@8
rdata$r	ENDS
;	COMDAT ??_R17?0A@EA@IUnknown@@8
rdata$r	SEGMENT
??_R17?0A@EA@IUnknown@@8 DD FLAT:??_R0?AUIUnknown@@@8	; IUnknown::`RTTI Base Class Descriptor at (8,-1,0,64)'
	DD	00H
	DD	08H
	DD	0ffffffffH
	DD	00H
	DD	040H
	DD	FLAT:??_R3IUnknown@@8
rdata$r	ENDS
;	COMDAT ??_R17?0A@EA@IChartAddIn133101@@8
rdata$r	SEGMENT
??_R17?0A@EA@IChartAddIn133101@@8 DD FLAT:??_R0?AUIChartAddIn133101@@@8 ; IChartAddIn133101::`RTTI Base Class Descriptor at (8,-1,0,64)'
	DD	01H
	DD	08H
	DD	0ffffffffH
	DD	00H
	DD	040H
	DD	FLAT:??_R3IChartAddIn133101@@8
rdata$r	ENDS
;	COMDAT ??_R2CIWUnknown@@8
rdata$r	SEGMENT
??_R2CIWUnknown@@8 DD FLAT:??_R1A@?0A@EA@CIWUnknown@@8	; CIWUnknown::`RTTI Base Class Array'
	DD	FLAT:??_R1A@?0A@EA@CObject@@8
rdata$r	ENDS
;	COMDAT ??_R3CIWUnknown@@8
rdata$r	SEGMENT
??_R3CIWUnknown@@8 DD 00H				; CIWUnknown::`RTTI Class Hierarchy Descriptor'
	DD	00H
	DD	02H
	DD	FLAT:??_R2CIWUnknown@@8
rdata$r	ENDS
;	COMDAT ??_R0?AVCIWUnknown@@@8
data$rs	SEGMENT
??_R0?AVCIWUnknown@@@8 DD FLAT:??_7type_info@@6B@	; CIWUnknown `RTTI Type Descriptor'
	DD	00H
	DB	'.?AVCIWUnknown@@', 00H
data$rs	ENDS
;	COMDAT ??_R1A@?0A@EA@CIWUnknown@@8
rdata$r	SEGMENT
??_R1A@?0A@EA@CIWUnknown@@8 DD FLAT:??_R0?AVCIWUnknown@@@8 ; CIWUnknown::`RTTI Base Class Descriptor at (0,-1,0,64)'
	DD	01H
	DD	00H
	DD	0ffffffffH
	DD	00H
	DD	040H
	DD	FLAT:??_R3CIWUnknown@@8
rdata$r	ENDS
;	COMDAT ??_R2CChartAddInBase133101@@8
rdata$r	SEGMENT
??_R2CChartAddInBase133101@@8 DD FLAT:??_R1A@?0A@EA@CChartAddInBase133101@@8 ; CChartAddInBase133101::`RTTI Base Class Array'
	DD	FLAT:??_R1A@?0A@EA@CIWUnknown@@8
	DD	FLAT:??_R1A@?0A@EA@CObject@@8
	DD	FLAT:??_R17?0A@EA@IChartAddIn133101@@8
	DD	FLAT:??_R17?0A@EA@IUnknown@@8
rdata$r	ENDS
;	COMDAT ??_R3CChartAddInBase133101@@8
rdata$r	SEGMENT
??_R3CChartAddInBase133101@@8 DD 00H			; CChartAddInBase133101::`RTTI Class Hierarchy Descriptor'
	DD	01H
	DD	05H
	DD	FLAT:??_R2CChartAddInBase133101@@8
rdata$r	ENDS
;	COMDAT ??_R0?AVCChartAddInBase133101@@@8
data$rs	SEGMENT
??_R0?AVCChartAddInBase133101@@@8 DD FLAT:??_7type_info@@6B@ ; CChartAddInBase133101 `RTTI Type Descriptor'
	DD	00H
	DB	'.?AVCChartAddInBase133101@@', 00H
data$rs	ENDS
;	COMDAT ??_R1A@?0A@EA@CChartAddInBase133101@@8
rdata$r	SEGMENT
??_R1A@?0A@EA@CChartAddInBase133101@@8 DD FLAT:??_R0?AVCChartAddInBase133101@@@8 ; CChartAddInBase133101::`RTTI Base Class Descriptor at (0,-1,0,64)'
	DD	04H
	DD	00H
	DD	0ffffffffH
	DD	00H
	DD	040H
	DD	FLAT:??_R3CChartAddInBase133101@@8
rdata$r	ENDS
;	COMDAT ??_R1A@?0A@EA@CCrosshairsDragAddInImp@@8
rdata$r	SEGMENT
??_R1A@?0A@EA@CCrosshairsDragAddInImp@@8 DD FLAT:??_R0?AVCCrosshairsDragAddInImp@@@8 ; CCrosshairsDragAddInImp::`RTTI Base Class Descriptor at (0,-1,0,64)'
	DD	05H
	DD	00H
	DD	0ffffffffH
	DD	00H
	DD	040H
	DD	FLAT:??_R3CCrosshairsDragAddInImp@@8
rdata$r	ENDS
;	COMDAT ??_R2CCrosshairsDragAddInImp@@8
rdata$r	SEGMENT
??_R2CCrosshairsDragAddInImp@@8 DD FLAT:??_R1A@?0A@EA@CCrosshairsDragAddInImp@@8 ; CCrosshairsDragAddInImp::`RTTI Base Class Array'
	DD	FLAT:??_R1A@?0A@EA@CChartAddInBase133101@@8
	DD	FLAT:??_R1A@?0A@EA@CIWUnknown@@8
	DD	FLAT:??_R1A@?0A@EA@CObject@@8
	DD	FLAT:??_R17?0A@EA@IChartAddIn133101@@8
	DD	FLAT:??_R17?0A@EA@IUnknown@@8
rdata$r	ENDS
;	COMDAT ??_R3CCrosshairsDragAddInImp@@8
rdata$r	SEGMENT
??_R3CCrosshairsDragAddInImp@@8 DD 00H			; CCrosshairsDragAddInImp::`RTTI Class Hierarchy Descriptor'
	DD	01H
	DD	06H
	DD	FLAT:??_R2CCrosshairsDragAddInImp@@8
rdata$r	ENDS
;	COMDAT ??_R0?AVCCrosshairsDragAddInImp@@@8
data$rs	SEGMENT
??_R0?AVCCrosshairsDragAddInImp@@@8 DD FLAT:??_7type_info@@6B@ ; CCrosshairsDragAddInImp `RTTI Type Descriptor'
	DD	00H
	DB	'.?AVCCrosshairsDragAddInImp@@', 00H
data$rs	ENDS
;	COMDAT ??_R4CCrosshairsDragAddInImp@@6BCIWUnknown@@@
rdata$r	SEGMENT
??_R4CCrosshairsDragAddInImp@@6BCIWUnknown@@@ DD 00H	; CCrosshairsDragAddInImp::`RTTI Complete Object Locator'
	DD	00H
	DD	00H
	DD	FLAT:??_R0?AVCCrosshairsDragAddInImp@@@8
	DD	FLAT:??_R3CCrosshairsDragAddInImp@@8
rdata$r	ENDS
;	COMDAT ??_R1A@?0A@EA@CMainAnalysisTool@@8
rdata$r	SEGMENT
??_R1A@?0A@EA@CMainAnalysisTool@@8 DD FLAT:??_R0?AVCMainAnalysisTool@@@8 ; CMainAnalysisTool::`RTTI Base Class Descriptor at (0,-1,0,64)'
	DD	00H
	DD	00H
	DD	0ffffffffH
	DD	00H
	DD	040H
	DD	FLAT:??_R3CMainAnalysisTool@@8
rdata$r	ENDS
;	COMDAT ??_R2CMainAnalysisTool@@8
rdata$r	SEGMENT
??_R2CMainAnalysisTool@@8 DD FLAT:??_R1A@?0A@EA@CMainAnalysisTool@@8 ; CMainAnalysisTool::`RTTI Base Class Array'
rdata$r	ENDS
;	COMDAT ??_R3CMainAnalysisTool@@8
rdata$r	SEGMENT
??_R3CMainAnalysisTool@@8 DD 00H			; CMainAnalysisTool::`RTTI Class Hierarchy Descriptor'
	DD	00H
	DD	01H
	DD	FLAT:??_R2CMainAnalysisTool@@8
rdata$r	ENDS
;	COMDAT ??_R0?AVCMainAnalysisTool@@@8
data$rs	SEGMENT
??_R0?AVCMainAnalysisTool@@@8 DD FLAT:??_7type_info@@6B@ ; CMainAnalysisTool `RTTI Type Descriptor'
	DD	00H
	DB	'.?AVCMainAnalysisTool@@', 00H
data$rs	ENDS
;	COMDAT ??_R4CMainAnalysisTool@@6B@
rdata$r	SEGMENT
??_R4CMainAnalysisTool@@6B@ DD 00H			; CMainAnalysisTool::`RTTI Complete Object Locator'
	DD	00H
	DD	00H
	DD	FLAT:??_R0?AVCMainAnalysisTool@@@8
	DD	FLAT:??_R3CMainAnalysisTool@@8
rdata$r	ENDS
;	COMDAT ??_R1A@?0A@EA@IChartAddIn133101@@8
rdata$r	SEGMENT
??_R1A@?0A@EA@IChartAddIn133101@@8 DD FLAT:??_R0?AUIChartAddIn133101@@@8 ; IChartAddIn133101::`RTTI Base Class Descriptor at (0,-1,0,64)'
	DD	01H
	DD	00H
	DD	0ffffffffH
	DD	00H
	DD	040H
	DD	FLAT:??_R3IChartAddIn133101@@8
rdata$r	ENDS
;	COMDAT ??_R2IChartAddIn133101@@8
rdata$r	SEGMENT
??_R2IChartAddIn133101@@8 DD FLAT:??_R1A@?0A@EA@IChartAddIn133101@@8 ; IChartAddIn133101::`RTTI Base Class Array'
	DD	FLAT:??_R1A@?0A@EA@IUnknown@@8
rdata$r	ENDS
;	COMDAT ??_R3IChartAddIn133101@@8
rdata$r	SEGMENT
??_R3IChartAddIn133101@@8 DD 00H			; IChartAddIn133101::`RTTI Class Hierarchy Descriptor'
	DD	00H
	DD	02H
	DD	FLAT:??_R2IChartAddIn133101@@8
rdata$r	ENDS
;	COMDAT ??_R0?AUIChartAddIn133101@@@8
data$rs	SEGMENT
??_R0?AUIChartAddIn133101@@@8 DD FLAT:??_7type_info@@6B@ ; IChartAddIn133101 `RTTI Type Descriptor'
	DD	00H
	DB	'.?AUIChartAddIn133101@@', 00H
data$rs	ENDS
;	COMDAT ??_C@_07MGCPDNLD@DEFAULT@
CONST	SEGMENT
??_C@_07MGCPDNLD@DEFAULT@ DB 'DEFAULT', 00H		; `string'
CONST	ENDS
;	COMDAT ??_SCMainAnalysisTool@@6B@
CONST	SEGMENT
??_SCMainAnalysisTool@@6B@ DD FLAT:??_R4CMainAnalysisTool@@6B@ ; CMainAnalysisTool::`local vftable'
	DD	FLAT:??_ECMainAnalysisTool@@UAEPAXI@Z
CONST	ENDS
;	COMDAT ??_C@_0BA@ENJOCHIO@LoadResourceDLL@
CONST	SEGMENT
??_C@_0BA@ENJOCHIO@LoadResourceDLL@ DB 'LoadResourceDLL', 00H ; `string'
CONST	ENDS
;	COMDAT ??_7CCrosshairsDragAddInImp@@6BIChartAddIn133101@@@
CONST	SEGMENT
??_7CCrosshairsDragAddInImp@@6BIChartAddIn133101@@@ DD FLAT:??_R4CCrosshairsDragAddInImp@@6BIChartAddIn133101@@@ ; CCrosshairsDragAddInImp::`vftable'
	DD	FLAT:?QueryInterface@CChartAddInBase133101@@O7AGJABU_GUID@@PAPAX@Z
	DD	FLAT:?AddRef@CChartAddInBase133101@@O7AGKXZ
	DD	FLAT:?Release@CChartAddInBase133101@@O7AGKXZ
	DD	FLAT:??_ECCrosshairsDragAddInImp@@W7AEPAXI@Z
	DD	FLAT:?HasFullManager@CChartAddInBase133101@@MAEHXZ
	DD	FLAT:?GetAddInCustomInterface@CChartAddInBase133101@@MAEPAUIUnknown@@XZ
	DD	FLAT:?InvokeAddIn@CChartAddInBase133101@@MAEHHJ@Z
	DD	FLAT:?InvokeAddInStr@CChartAddInBase133101@@MAEHPBD0@Z
	DD	FLAT:?OnOcxDestroyWindow@CChartAddInBase133101@@MAEXXZ
	DD	FLAT:?RegisterEventMap@CChartAddInBase133101@@UAEHH@Z
	DD	FLAT:?UnregisterEventMap@CChartAddInBase133101@@UAEHXZ
	DD	FLAT:?OnGSharedDataChange@CChartAddInBase133101@@MAEXPBD0H@Z
	DD	FLAT:?OnLSharedDataChange@CChartAddInBase133101@@MAEXPBD0@Z
	DD	FLAT:?OnResetChart@CCrosshairsDragAddInImp@@MAEXXZ
	DD	FLAT:?OnDrawBeforeGraph@CChartAddInBase133101@@MAEXPAUHDC__@@@Z
	DD	FLAT:?OnDrawAfterGraph@CCrosshairsDragAddInImp@@MAEXPAUHDC__@@@Z
	DD	FLAT:?OnPacketDataMultiItem@CChartAddInBase133101@@MAEXPBD0H@Z
	DD	FLAT:?OnTimer@CChartAddInBase133101@@MAEXI@Z
	DD	FLAT:?OnCaptureChanged@CCrosshairsDragAddInImp@@MAEXPAUHWND__@@QAUHBITMAP__@@@Z
	DD	FLAT:?OnResetMainBlock@CChartAddInBase133101@@MAEXXZ
	DD	FLAT:?OnUserIndiatorConditionLoaded@CChartAddInBase133101@@MAEXXZ
	DD	FLAT:?OnChartItemChanged@CChartAddInBase133101@@MAEXXZ
	DD	FLAT:?OnGraphDataChanged@CChartAddInBase133101@@MAEXXZ
	DD	FLAT:?OnBlockRemoved@CChartAddInBase133101@@MAEXHH@Z
	DD	FLAT:?OnGraphAdded@CChartAddInBase133101@@MAEXPBD0@Z
	DD	FLAT:?OnManualRealData@CChartAddInBase133101@@MAEXPBDNH@Z
	DD	FLAT:?OnContextMenu@CChartAddInBase133101@@MAEXPAUHWND__@@AAUtagPOINT@@@Z
	DD	FLAT:?OnGraphDeleted@CChartAddInBase133101@@MAEXPBD0@Z
	DD	FLAT:?OnPacketTruncated@CChartAddInBase133101@@MAEXH@Z
	DD	FLAT:?OnBlockChanged@CChartAddInBase133101@@MAEXW4BLOCKBEHAVIOR@CBlockBaseData@@HHHH@Z
	DD	FLAT:?OnToolCommand@CCrosshairsDragAddInImp@@MAEXHH@Z
	DD	FLAT:?OnRealData@CChartAddInBase133101@@MAEXPBDN0@Z
	DD	FLAT:?OnIndexedRealData@CChartAddInBase133101@@MAEXPBDHN@Z
	DD	FLAT:?OnRealPacketEnd@CChartAddInBase133101@@MAEXPBD@Z
	DD	FLAT:?OnLoadEnvironment@CChartAddInBase133101@@MAEXPAUIPropertyMap@@@Z
	DD	FLAT:?OnSaveEnvironment@CChartAddInBase133101@@MAEXPAUIPropertyMap@@@Z
	DD	FLAT:?DrawCursor@CCrosshairsDragAddInImp@@MAE?AUtagRECT@@PAUHDC__@@@Z
	DD	FLAT:?OnRecalculationComplete@CChartAddInBase133101@@MAEXXZ
	DD	FLAT:?OnPreRealData@CChartAddInBase133101@@MAEHPBDAAN0@Z
	DD	FLAT:?OnPreIndexedRealData@CChartAddInBase133101@@MAEHPBDHAAN@Z
	DD	FLAT:?OnPreRealPacketEnd@CChartAddInBase133101@@MAEHPBD@Z
	DD	FLAT:?OnCmdMsg@CCrosshairsDragAddInImp@@MAEHIHPAUICmdUI133101@@@Z
	DD	FLAT:?OnAddInMsg@CChartAddInBase133101@@MAEHPBDJ@Z
	DD	FLAT:?OnAddInToolCommand@CChartAddInBase133101@@MAEHAAJW4EAICommandType@@JJ@Z
	DD	FLAT:?OnAddInToolCommand@CChartAddInBase133101@@MAEHAAJW4EAICommandType@@J@Z
	DD	FLAT:?OnAddInToolCommand@CChartAddInBase133101@@MAEHAAJW4EAICommandType@@PBDPAVCObject@@@Z
	DD	FLAT:?OnAddInToolCommand@CChartAddInBase133101@@MAEHAAJW4EAICommandType@@PBD@Z
	DD	FLAT:?OnAddInToolCommand@CChartAddInBase133101@@MAEHAAJW4EAICommandType@@PAUIGraphInfo133101@@@Z
	DD	FLAT:?OnAddInToolCommand@CChartAddInBase133101@@MAEHAAJW4EAICommandType@@@Z
	DD	FLAT:?OnAddInToolCommand@CChartAddInBase133101@@MAEHW4EAICommandType@@JJJJJJJJJ@Z
	DD	FLAT:?OnAddInToolCommand@CChartAddInBase133101@@MAEHW4EAICommandType@@JJ@Z
	DD	FLAT:?OnAddInToolCommand@CChartAddInBase133101@@MAEHW4EAICommandType@@JPBD11@Z
	DD	FLAT:?OnAddInToolCommand@CChartAddInBase133101@@MAEHW4EAICommandType@@JPBD@Z
	DD	FLAT:?OnAddInToolCommand@CCrosshairsDragAddInImp@@MAEHW4EAICommandType@@J@Z
	DD	FLAT:?OnAddInToolCommand@CChartAddInBase133101@@MAEHW4EAICommandType@@PBUIAddInDllBase@@@Z
	DD	FLAT:?OnAddInToolCommand@CChartAddInBase133101@@MAEHW4EAICommandType@@PBDJ@Z
	DD	FLAT:?OnAddInToolCommand@CChartAddInBase133101@@MAEHW4EAICommandType@@PBD1@Z
	DD	FLAT:?OnAddInToolCommand@CChartAddInBase133101@@MAEHW4EAICommandType@@PBD@Z
	DD	FLAT:?OnAddInToolCommand@CChartAddInBase133101@@MAEHW4EAICommandType@@PAUHDC__@@IAAUtagPOINT@@K@Z
	DD	FLAT:?OnAddInToolCommand@CCrosshairsDragAddInImp@@MAEHW4EAICommandType@@@Z
	DD	FLAT:?OnKeyDown@CChartAddInBase133101@@MAEHIII@Z
	DD	FLAT:?OnKeyUp@CChartAddInBase133101@@MAEHIII@Z
	DD	FLAT:?OnMouseWheel@CChartAddInBase133101@@MAEHIFUtagPOINT@@K@Z
	DD	FLAT:?OnMouseMove@CCrosshairsDragAddInImp@@MAEHPAUHDC__@@IAAUtagPOINT@@KQAUHBITMAP__@@@Z
	DD	FLAT:?OnLButtonDown@CCrosshairsDragAddInImp@@MAEHPAUHDC__@@IAAUtagPOINT@@K@Z
	DD	FLAT:?OnLButtonUp@CCrosshairsDragAddInImp@@MAEHPAUHDC__@@IAAUtagPOINT@@K@Z
	DD	FLAT:?OnLButtonDblClk@CChartAddInBase133101@@MAEHPAUHDC__@@IAAUtagPOINT@@K@Z
	DD	FLAT:?OnRButtonDown@CChartAddInBase133101@@MAEHPAUHDC__@@IAAUtagPOINT@@K@Z
	DD	FLAT:?OnRButtonUp@CChartAddInBase133101@@MAEHPAUHDC__@@IAAUtagPOINT@@K@Z
	DD	FLAT:?OnRButtonDblClk@CChartAddInBase133101@@MAEHPAUHDC__@@IAAUtagPOINT@@K@Z
CONST	ENDS
;	COMDAT ??_7CCrosshairsDragAddInImp@@6BCIWUnknown@@@
CONST	SEGMENT
??_7CCrosshairsDragAddInImp@@6BCIWUnknown@@@ DD FLAT:??_R4CCrosshairsDragAddInImp@@6BCIWUnknown@@@ ; CCrosshairsDragAddInImp::`vftable'
	DD	FLAT:?GetRuntimeClass@CObject@@UBEPAUCRuntimeClass@@XZ
	DD	FLAT:??_ECCrosshairsDragAddInImp@@UAEPAXI@Z
	DD	FLAT:?Serialize@CObject@@UAEXAAVCArchive@@@Z
	DD	FLAT:?AssertValid@CObject@@UBEXXZ
	DD	FLAT:?Dump@CObject@@UBEXAAVCDumpContext@@@Z
	DD	FLAT:?AddRef@CChartAddInBase133101@@MAGKXZ
	DD	FLAT:?Release@CChartAddInBase133101@@MAGKXZ
	DD	FLAT:?QueryInterface@CChartAddInBase133101@@MAGJABU_GUID@@PAPAX@Z
	DD	FLAT:?PostConstruct@CIWUnknown@@MAEXXZ
	DD	FLAT:?PreDestructX@CIWUnknown@@MAEXXZ
	DD	FLAT:?PreDestruct@CIWUnknown@@MAEXXZ
	DD	FLAT:?GetRegisteredEventMap@CCrosshairsDragAddInImp@@MBEPBW4EAddInEventType@IChartAddIn133101@@XZ
CONST	ENDS
;	COMDAT ??_R1A@?0A@EA@IUnknown@@8
rdata$r	SEGMENT
??_R1A@?0A@EA@IUnknown@@8 DD FLAT:??_R0?AUIUnknown@@@8	; IUnknown::`RTTI Base Class Descriptor at (0,-1,0,64)'
	DD	00H
	DD	00H
	DD	0ffffffffH
	DD	00H
	DD	040H
	DD	FLAT:??_R3IUnknown@@8
rdata$r	ENDS
;	COMDAT ??_R2IUnknown@@8
rdata$r	SEGMENT
??_R2IUnknown@@8 DD FLAT:??_R1A@?0A@EA@IUnknown@@8	; IUnknown::`RTTI Base Class Array'
rdata$r	ENDS
;	COMDAT ??_R3IUnknown@@8
rdata$r	SEGMENT
??_R3IUnknown@@8 DD 00H					; IUnknown::`RTTI Class Hierarchy Descriptor'
	DD	00H
	DD	01H
	DD	FLAT:??_R2IUnknown@@8
rdata$r	ENDS
;	COMDAT ??_R0?AUIUnknown@@@8
data$rs	SEGMENT
??_R0?AUIUnknown@@@8 DD FLAT:??_7type_info@@6B@		; IUnknown `RTTI Type Descriptor'
	DD	00H
	DB	'.?AUIUnknown@@', 00H
data$rs	ENDS
;	COMDAT ??_R1A@?0A@EA@CObject@@8
rdata$r	SEGMENT
??_R1A@?0A@EA@CObject@@8 DD FLAT:??_R0?AVCObject@@@8	; CObject::`RTTI Base Class Descriptor at (0,-1,0,64)'
	DD	00H
	DD	00H
	DD	0ffffffffH
	DD	00H
	DD	040H
	DD	FLAT:??_R3CObject@@8
rdata$r	ENDS
;	COMDAT ??_R2CObject@@8
rdata$r	SEGMENT
??_R2CObject@@8 DD FLAT:??_R1A@?0A@EA@CObject@@8	; CObject::`RTTI Base Class Array'
rdata$r	ENDS
;	COMDAT ??_R3CObject@@8
rdata$r	SEGMENT
??_R3CObject@@8 DD 00H					; CObject::`RTTI Class Hierarchy Descriptor'
	DD	00H
	DD	01H
	DD	FLAT:??_R2CObject@@8
rdata$r	ENDS
;	COMDAT ??_R0?AVCObject@@@8
data$rs	SEGMENT
??_R0?AVCObject@@@8 DD FLAT:??_7type_info@@6B@		; CObject `RTTI Type Descriptor'
	DD	00H
	DB	'.?AVCObject@@', 00H
data$rs	ENDS
;	COMDAT ??_C@_00CNPNBAHC@@
CONST	SEGMENT
??_C@_00CNPNBAHC@@ DB 00H				; `string'
CONST	ENDS
;	COMDAT xdata$x
xdata$x	SEGMENT
__ehfuncinfo$??1CMultiLanguageResourceSetter@@QAE@XZ DD 019930522H
	DD	00H
	DD	00H
	DD	2 DUP(00H)
	DD	2 DUP(00H)
	DD	00H
	DD	05H
xdata$x	ENDS
;	COMDAT xdata$x
xdata$x	SEGMENT
__unwindtable$?DrawCursor@CCrosshairsDragAddInImp@@MAE?AUtagRECT@@PAUHDC__@@@Z DD 0ffffffffH
	DD	FLAT:__unwindfunclet$?DrawCursor@CCrosshairsDragAddInImp@@MAE?AUtagRECT@@PAUHDC__@@@Z$1
	DD	00H
	DD	FLAT:__unwindfunclet$?DrawCursor@CCrosshairsDragAddInImp@@MAE?AUtagRECT@@PAUHDC__@@@Z$2
__ehfuncinfo$?DrawCursor@CCrosshairsDragAddInImp@@MAE?AUtagRECT@@PAUHDC__@@@Z DD 019930522H
	DD	02H
	DD	FLAT:__unwindtable$?DrawCursor@CCrosshairsDragAddInImp@@MAE?AUtagRECT@@PAUHDC__@@@Z
	DD	2 DUP(00H)
	DD	2 DUP(00H)
	DD	00H
	DD	01H
xdata$x	ENDS
;	COMDAT xdata$x
xdata$x	SEGMENT
__unwindtable$?SetInquiryXData@CCrosshairsDragAddInImp@@IAEXAAV?$CStringT@DV?$StrTraitMFC_DLL@DV?$ChTraitsCRT@D@ATL@@@@@ATL@@PAVCInquiryData@@1@Z DD 0ffffffffH
	DD	FLAT:__unwindfunclet$?SetInquiryXData@CCrosshairsDragAddInImp@@IAEXAAV?$CStringT@DV?$StrTraitMFC_DLL@DV?$ChTraitsCRT@D@ATL@@@@@ATL@@PAVCInquiryData@@1@Z$0
	DD	00H
	DD	FLAT:__unwindfunclet$?SetInquiryXData@CCrosshairsDragAddInImp@@IAEXAAV?$CStringT@DV?$StrTraitMFC_DLL@DV?$ChTraitsCRT@D@ATL@@@@@ATL@@PAVCInquiryData@@1@Z$1
__ehfuncinfo$?SetInquiryXData@CCrosshairsDragAddInImp@@IAEXAAV?$CStringT@DV?$StrTraitMFC_DLL@DV?$ChTraitsCRT@D@ATL@@@@@ATL@@PAVCInquiryData@@1@Z DD 019930522H
	DD	02H
	DD	FLAT:__unwindtable$?SetInquiryXData@CCrosshairsDragAddInImp@@IAEXAAV?$CStringT@DV?$StrTraitMFC_DLL@DV?$ChTraitsCRT@D@ATL@@@@@ATL@@PAVCInquiryData@@1@Z
	DD	2 DUP(00H)
	DD	2 DUP(00H)
	DD	00H
	DD	01H
xdata$x	ENDS
;	COMDAT xdata$x
xdata$x	SEGMENT
__unwindtable$?GetCurrentPosData@CCrosshairsDragAddInImp@@IAEHVCPoint@@@Z DD 0ffffffffH
	DD	FLAT:__unwindfunclet$?GetCurrentPosData@CCrosshairsDragAddInImp@@IAEHVCPoint@@@Z$1
	DD	00H
	DD	FLAT:__unwindfunclet$?GetCurrentPosData@CCrosshairsDragAddInImp@@IAEHVCPoint@@@Z$2
__ehfuncinfo$?GetCurrentPosData@CCrosshairsDragAddInImp@@IAEHVCPoint@@@Z DD 019930522H
	DD	02H
	DD	FLAT:__unwindtable$?GetCurrentPosData@CCrosshairsDragAddInImp@@IAEHVCPoint@@@Z
	DD	2 DUP(00H)
	DD	2 DUP(00H)
	DD	00H
	DD	01H
xdata$x	ENDS
;	COMDAT xdata$x
xdata$x	SEGMENT
__unwindtable$?DrawNewCross@CCrosshairsDragAddInImp@@IAEXPAUHDC__@@@Z DD 0ffffffffH
	DD	FLAT:__unwindfunclet$?DrawNewCross@CCrosshairsDragAddInImp@@IAEXPAUHDC__@@@Z$0
	DD	0ffffffffH
	DD	00H
	DD	0ffffffffH
	DD	FLAT:___std_terminate
__ehfuncinfo$?DrawNewCross@CCrosshairsDragAddInImp@@IAEXPAUHDC__@@@Z DD 019930522H
	DD	03H
	DD	FLAT:__unwindtable$?DrawNewCross@CCrosshairsDragAddInImp@@IAEXPAUHDC__@@@Z
	DD	2 DUP(00H)
	DD	2 DUP(00H)
	DD	00H
	DD	01H
xdata$x	ENDS
;	COMDAT xdata$x
xdata$x	SEGMENT
__ehfuncinfo$??0CCrosshairsDragAddInImp@@QAE@PAUIChartOCX133101@@PAUIAddInDllBase@@@Z DD 019930522H
	DD	05H
	DD	FLAT:__unwindtable$??0CCrosshairsDragAddInImp@@QAE@PAUIChartOCX133101@@PAUIAddInDllBase@@@Z
	DD	2 DUP(00H)
	DD	2 DUP(00H)
	DD	00H
	DD	01H
__unwindtable$??0CCrosshairsDragAddInImp@@QAE@PAUIChartOCX133101@@PAUIAddInDllBase@@@Z DD 0ffffffffH
	DD	FLAT:__unwindfunclet$??0CCrosshairsDragAddInImp@@QAE@PAUIChartOCX133101@@PAUIAddInDllBase@@@Z$0
	DD	00H
	DD	FLAT:__unwindfunclet$??0CCrosshairsDragAddInImp@@QAE@PAUIChartOCX133101@@PAUIAddInDllBase@@@Z$1
	DD	01H
	DD	FLAT:__unwindfunclet$??0CCrosshairsDragAddInImp@@QAE@PAUIChartOCX133101@@PAUIAddInDllBase@@@Z$2
	DD	02H
	DD	FLAT:__unwindfunclet$??0CCrosshairsDragAddInImp@@QAE@PAUIChartOCX133101@@PAUIAddInDllBase@@@Z$3
	DD	03H
	DD	FLAT:__unwindfunclet$??0CCrosshairsDragAddInImp@@QAE@PAUIChartOCX133101@@PAUIAddInDllBase@@@Z$4
xdata$x	ENDS
; Function compile flags: /Odsp
;	COMDAT ??_ECCrosshairsDragAddInImp@@W7AEPAXI@Z
_TEXT	SEGMENT
??_ECCrosshairsDragAddInImp@@W7AEPAXI@Z PROC		; [thunk]:CCrosshairsDragAddInImp::`vector deleting destructor', COMDAT
  00000	83 e9 08	 sub	 ecx, 8
  00003	e9 00 00 00 00	 jmp	 ??_ECCrosshairsDragAddInImp@@UAEPAXI@Z
??_ECCrosshairsDragAddInImp@@W7AEPAXI@Z ENDP		; [thunk]:CCrosshairsDragAddInImp::`vector deleting destructor'
_TEXT	ENDS
; Function compile flags: /Odsp
;	COMDAT ?Release@CChartAddInBase133101@@O7AGKXZ
_TEXT	SEGMENT
?Release@CChartAddInBase133101@@O7AGKXZ PROC		; [thunk]:CChartAddInBase133101::Release`adjustor{8}', COMDAT
  00000	83 6c 24 04 08	 sub	 DWORD PTR [esp+4], 8
  00005	e9 00 00 00 00	 jmp	 ?Release@CChartAddInBase133101@@MAGKXZ ; CChartAddInBase133101::Release
?Release@CChartAddInBase133101@@O7AGKXZ ENDP		; [thunk]:CChartAddInBase133101::Release`adjustor{8}'
_TEXT	ENDS
; Function compile flags: /Odsp
;	COMDAT ?AddRef@CChartAddInBase133101@@O7AGKXZ
_TEXT	SEGMENT
?AddRef@CChartAddInBase133101@@O7AGKXZ PROC		; [thunk]:CChartAddInBase133101::AddRef`adjustor{8}', COMDAT
  00000	83 6c 24 04 08	 sub	 DWORD PTR [esp+4], 8
  00005	e9 00 00 00 00	 jmp	 ?AddRef@CChartAddInBase133101@@MAGKXZ ; CChartAddInBase133101::AddRef
?AddRef@CChartAddInBase133101@@O7AGKXZ ENDP		; [thunk]:CChartAddInBase133101::AddRef`adjustor{8}'
_TEXT	ENDS
; Function compile flags: /Odsp
;	COMDAT ?QueryInterface@CChartAddInBase133101@@O7AGJABU_GUID@@PAPAX@Z
_TEXT	SEGMENT
?QueryInterface@CChartAddInBase133101@@O7AGJABU_GUID@@PAPAX@Z PROC ; [thunk]:CChartAddInBase133101::QueryInterface`adjustor{8}', COMDAT
  00000	83 6c 24 04 08	 sub	 DWORD PTR [esp+4], 8
  00005	e9 00 00 00 00	 jmp	 ?QueryInterface@CChartAddInBase133101@@MAGJABU_GUID@@PAPAX@Z ; CChartAddInBase133101::QueryInterface
?QueryInterface@CChartAddInBase133101@@O7AGJABU_GUID@@PAPAX@Z ENDP ; [thunk]:CChartAddInBase133101::QueryInterface`adjustor{8}'
_TEXT	ENDS
; Function compile flags: /Ogtp
;	COMDAT ??__F?m_strAddInItemName@CCrosshairsDragAddInImp@@2V?$CStringT@DV?$StrTraitMFC_DLL@DV?$ChTraitsCRT@D@ATL@@@@@ATL@@A@@YAXXZ
text$yd	SEGMENT
??__F?m_strAddInItemName@CCrosshairsDragAddInImp@@2V?$CStringT@DV?$StrTraitMFC_DLL@DV?$ChTraitsCRT@D@ATL@@@@@ATL@@A@@YAXXZ PROC ; `dynamic atexit destructor for 'CCrosshairsDragAddInImp::m_strAddInItemName'', COMDAT
  00000	b9 00 00 00 00	 mov	 ecx, OFFSET ?m_strAddInItemName@CCrosshairsDragAddInImp@@2V?$CStringT@DV?$StrTraitMFC_DLL@DV?$ChTraitsCRT@D@ATL@@@@@ATL@@A ; CCrosshairsDragAddInImp::m_strAddInItemName
  00005	ff 25 00 00 00
	00		 jmp	 DWORD PTR __imp_??1?$CStringT@DV?$StrTraitMFC_DLL@DV?$ChTraitsCRT@D@ATL@@@@@ATL@@QAE@XZ
??__F?m_strAddInItemName@CCrosshairsDragAddInImp@@2V?$CStringT@DV?$StrTraitMFC_DLL@DV?$ChTraitsCRT@D@ATL@@@@@ATL@@A@@YAXXZ ENDP ; `dynamic atexit destructor for 'CCrosshairsDragAddInImp::m_strAddInItemName''
text$yd	ENDS
; Function compile flags: /Ogtp
; File D:\git\src\IBK\IBK_DRFN\ProjSrc\SrcChartEx\ChartAddIn\ChartAnalysisToolAddIn\ChartAnalysisToolAddIn\CrosshairsDragAddInImp.cpp
;	COMDAT ??__E?m_strAddInItemName@CCrosshairsDragAddInImp@@2V?$CStringT@DV?$StrTraitMFC_DLL@DV?$ChTraitsCRT@D@ATL@@@@@ATL@@A@@YAXXZ
text$di	SEGMENT
??__E?m_strAddInItemName@CCrosshairsDragAddInImp@@2V?$CStringT@DV?$StrTraitMFC_DLL@DV?$ChTraitsCRT@D@ATL@@@@@ATL@@A@@YAXXZ PROC ; `dynamic initializer for 'CCrosshairsDragAddInImp::m_strAddInItemName'', COMDAT

; 80   : CString CCrosshairsDragAddInImp::m_strAddInItemName = "CROSS_DRAG";

  00000	68 00 00 00 00	 push	 OFFSET ??_C@_0L@FBEDBBOG@CROSS_DRAG@
  00005	b9 00 00 00 00	 mov	 ecx, OFFSET ?m_strAddInItemName@CCrosshairsDragAddInImp@@2V?$CStringT@DV?$StrTraitMFC_DLL@DV?$ChTraitsCRT@D@ATL@@@@@ATL@@A ; CCrosshairsDragAddInImp::m_strAddInItemName
  0000a	ff 15 00 00 00
	00		 call	 DWORD PTR __imp_??0?$CStringT@DV?$StrTraitMFC_DLL@DV?$ChTraitsCRT@D@ATL@@@@@ATL@@QAE@PBD@Z
  00010	68 00 00 00 00	 push	 OFFSET ??__F?m_strAddInItemName@CCrosshairsDragAddInImp@@2V?$CStringT@DV?$StrTraitMFC_DLL@DV?$ChTraitsCRT@D@ATL@@@@@ATL@@A@@YAXXZ ; `dynamic atexit destructor for 'CCrosshairsDragAddInImp::m_strAddInItemName''
  00015	e8 00 00 00 00	 call	 _atexit
  0001a	59		 pop	 ecx
  0001b	c3		 ret	 0
??__E?m_strAddInItemName@CCrosshairsDragAddInImp@@2V?$CStringT@DV?$StrTraitMFC_DLL@DV?$ChTraitsCRT@D@ATL@@@@@ATL@@A@@YAXXZ ENDP ; `dynamic initializer for 'CCrosshairsDragAddInImp::m_strAddInItemName''
text$di	ENDS
; Function compile flags: /Ogtp
;	COMDAT ??_GCMainAnalysisTool@@UAEPAXI@Z
_TEXT	SEGMENT
___flags$ = 8						; size = 4
??_GCMainAnalysisTool@@UAEPAXI@Z PROC			; CMainAnalysisTool::`scalar deleting destructor', COMDAT
; _this$ = ecx
  00000	55		 push	 ebp
  00001	8b ec		 mov	 ebp, esp
  00003	56		 push	 esi
  00004	8b f1		 mov	 esi, ecx
  00006	ff 15 00 00 00
	00		 call	 DWORD PTR __imp_??1CMainAnalysisTool@@UAE@XZ
  0000c	f6 45 08 01	 test	 BYTE PTR ___flags$[ebp], 1
  00010	74 0b		 je	 SHORT $LN4@scalar
  00012	6a 10		 push	 16			; 00000010H
  00014	56		 push	 esi
  00015	e8 00 00 00 00	 call	 ??3@YAXPAXI@Z		; operator delete
  0001a	83 c4 08	 add	 esp, 8
$LN4@scalar:
  0001d	8b c6		 mov	 eax, esi
  0001f	5e		 pop	 esi
  00020	5d		 pop	 ebp
  00021	c2 04 00	 ret	 4
??_GCMainAnalysisTool@@UAEPAXI@Z ENDP			; CMainAnalysisTool::`scalar deleting destructor'
_TEXT	ENDS
; Function compile flags: /Ogtp
; File D:\git\src\IBK\IBK_DRFN\ProjSrc\SrcChartEx\ChartAddIn\ChartAnalysisToolAddIn\Include_Chart\Dll_Load\IMetaTable.h
; File C:\Program Files (x86)\Microsoft Visual Studio\2019\Community\VC\Tools\MSVC\14.29.30133\atlmfc\include\afxwin1.inl
; File D:\git\src\IBK\IBK_DRFN\ProjSrc\SrcChartEx\ChartAddIn\ChartAnalysisToolAddIn\Include_Chart\Dll_Load\IMetaTable.h
;	COMDAT ??1CMultiLanguageResourceSetter@@QAE@XZ
_TEXT	SEGMENT
__$EHRec$ = -12						; size = 12
??1CMultiLanguageResourceSetter@@QAE@XZ PROC		; CMultiLanguageResourceSetter::~CMultiLanguageResourceSetter, COMDAT
; _this$ = ecx

; 1038 : 	{

  00000	55		 push	 ebp
  00001	8b ec		 mov	 ebp, esp
  00003	6a ff		 push	 -1
  00005	68 00 00 00 00	 push	 __ehhandler$??1CMultiLanguageResourceSetter@@QAE@XZ
  0000a	64 a1 00 00 00
	00		 mov	 eax, DWORD PTR fs:0
  00010	50		 push	 eax
  00011	56		 push	 esi
  00012	a1 00 00 00 00	 mov	 eax, DWORD PTR ___security_cookie
  00017	33 c5		 xor	 eax, ebp
  00019	50		 push	 eax
  0001a	8d 45 f4	 lea	 eax, DWORD PTR __$EHRec$[ebp]
  0001d	64 a3 00 00 00
	00		 mov	 DWORD PTR fs:0, eax

; 1039 : 		AfxSetResourceHandle( m_hInstance);

  00023	8b 31		 mov	 esi, DWORD PTR [ecx]
; File C:\Program Files (x86)\Microsoft Visual Studio\2019\Community\VC\Tools\MSVC\14.29.30133\atlmfc\include\afxwin1.inl

; 27   : 	{ ASSERT(hInstResource != NULL); afxCurrentResourceHandle = hInstResource; }

  00025	e8 00 00 00 00	 call	 ?AfxGetModuleState@@YGPAVAFX_MODULE_STATE@@XZ ; AfxGetModuleState
  0002a	89 70 0c	 mov	 DWORD PTR [eax+12], esi
; File D:\git\src\IBK\IBK_DRFN\ProjSrc\SrcChartEx\ChartAddIn\ChartAnalysisToolAddIn\Include_Chart\Dll_Load\IMetaTable.h

; 1040 : 	}

  0002d	8b 4d f4	 mov	 ecx, DWORD PTR __$EHRec$[ebp]
  00030	64 89 0d 00 00
	00 00		 mov	 DWORD PTR fs:0, ecx
  00037	59		 pop	 ecx
  00038	5e		 pop	 esi
  00039	8b e5		 mov	 esp, ebp
  0003b	5d		 pop	 ebp
  0003c	c3		 ret	 0
  0003d	cc		 int	 3
  0003e	cc		 int	 3
  0003f	cc		 int	 3
  00040	cc		 int	 3
  00041	cc		 int	 3
_TEXT	ENDS
;	COMDAT text$x
text$x	SEGMENT
__ehhandler$??1CMultiLanguageResourceSetter@@QAE@XZ:
  00000	90		 npad	 1
  00001	90		 npad	 1
  00002	8b 54 24 08	 mov	 edx, DWORD PTR [esp+8]
  00006	8d 42 0c	 lea	 eax, DWORD PTR [edx+12]
  00009	8b 4a f8	 mov	 ecx, DWORD PTR [edx-8]
  0000c	33 c8		 xor	 ecx, eax
  0000e	e8 00 00 00 00	 call	 @__security_check_cookie@4
  00013	b8 00 00 00 00	 mov	 eax, OFFSET __ehfuncinfo$??1CMultiLanguageResourceSetter@@QAE@XZ
  00018	e9 00 00 00 00	 jmp	 ___CxxFrameHandler3
text$x	ENDS
??1CMultiLanguageResourceSetter@@QAE@XZ ENDP		; CMultiLanguageResourceSetter::~CMultiLanguageResourceSetter
; Function compile flags: /Ogtp
; File D:\git\src\IBK\IBK_DRFN\ProjSrc\SrcChartEx\ChartAddIn\ChartAnalysisToolAddIn\ChartAnalysisToolAddIn\CrosshairsDragAddInImp.cpp
; File C:\Program Files (x86)\Microsoft Visual Studio\2019\Community\VC\Tools\MSVC\14.29.30133\atlmfc\include\afx.inl
;	COMDAT ??_GCCrosshairsDragAddInImp@@UAEPAXI@Z
_TEXT	SEGMENT
___flags$ = 8						; size = 4
??_GCCrosshairsDragAddInImp@@UAEPAXI@Z PROC		; CCrosshairsDragAddInImp::`scalar deleting destructor', COMDAT
; _this$ = ecx
  00000	55		 push	 ebp
  00001	8b ec		 mov	 ebp, esp
; File D:\git\src\IBK\IBK_DRFN\ProjSrc\SrcChartEx\ChartAddIn\ChartAnalysisToolAddIn\ChartAnalysisToolAddIn\CrosshairsDragAddInImp.cpp

; 71   : {

  00003	56		 push	 esi
  00004	8b f1		 mov	 esi, ecx

; 72   : 	if( m_pAnalysisTool)

  00006	8b 8e 9c 00 00
	00		 mov	 ecx, DWORD PTR [esi+156]
  0000c	c7 06 00 00 00
	00		 mov	 DWORD PTR [esi], OFFSET ??_7CCrosshairsDragAddInImp@@6BCIWUnknown@@@
  00012	c7 46 08 00 00
	00 00		 mov	 DWORD PTR [esi+8], OFFSET ??_7CCrosshairsDragAddInImp@@6BIChartAddIn133101@@@
  00019	85 c9		 test	 ecx, ecx
  0001b	74 10		 je	 SHORT $LN8@scalar

; 73   : 	{
; 74   : 		delete m_pAnalysisTool;

  0001d	8b 01		 mov	 eax, DWORD PTR [ecx]
  0001f	6a 01		 push	 1
  00021	ff 10		 call	 DWORD PTR [eax]

; 75   : 		m_pAnalysisTool = NULL;

  00023	c7 86 9c 00 00
	00 00 00 00 00	 mov	 DWORD PTR [esi+156], 0
$LN8@scalar:

; 76   : 	}
; 77   : }

  0002d	8d 8e 30 01 00
	00		 lea	 ecx, DWORD PTR [esi+304]
  00033	ff 15 00 00 00
	00		 call	 DWORD PTR __imp_??1?$CStringT@DV?$StrTraitMFC_DLL@DV?$ChTraitsCRT@D@ATL@@@@@ATL@@QAE@XZ
  00039	8d 8e 2c 01 00
	00		 lea	 ecx, DWORD PTR [esi+300]
  0003f	ff 15 00 00 00
	00		 call	 DWORD PTR __imp_??1?$CStringT@DV?$StrTraitMFC_DLL@DV?$ChTraitsCRT@D@ATL@@@@@ATL@@QAE@XZ
  00045	8d 4e 40	 lea	 ecx, DWORD PTR [esi+64]
  00048	e8 00 00 00 00	 call	 ??1CNumericalInquiryDataQueryer@@UAE@XZ ; CNumericalInquiryDataQueryer::~CNumericalInquiryDataQueryer
  0004d	8b ce		 mov	 ecx, esi
  0004f	e8 00 00 00 00	 call	 ??1CChartAddInBase133101@@MAE@XZ ; CChartAddInBase133101::~CChartAddInBase133101
  00054	8b 45 08	 mov	 eax, DWORD PTR ___flags$[ebp]
  00057	a8 01		 test	 al, 1
  00059	74 22		 je	 SHORT $LN15@scalar
  0005b	a8 04		 test	 al, 4
  0005d	75 10		 jne	 SHORT $LN3@scalar
; File C:\Program Files (x86)\Microsoft Visual Studio\2019\Community\VC\Tools\MSVC\14.29.30133\atlmfc\include\afx.inl

; 112  : 	{ ::operator delete(p); }

  0005f	56		 push	 esi
  00060	e8 00 00 00 00	 call	 ??3@YAXPAX@Z		; operator delete
  00065	83 c4 04	 add	 esp, 4
  00068	8b c6		 mov	 eax, esi
  0006a	5e		 pop	 esi
  0006b	5d		 pop	 ebp
  0006c	c2 04 00	 ret	 4
$LN3@scalar:
  0006f	68 38 01 00 00	 push	 312			; 00000138H
  00074	56		 push	 esi
  00075	e8 00 00 00 00	 call	 ?__global_delete@@YAXPAXI@Z ; __global_delete
  0007a	83 c4 08	 add	 esp, 8
$LN15@scalar:
  0007d	8b c6		 mov	 eax, esi
  0007f	5e		 pop	 esi
  00080	5d		 pop	 ebp
  00081	c2 04 00	 ret	 4
??_GCCrosshairsDragAddInImp@@UAEPAXI@Z ENDP		; CCrosshairsDragAddInImp::`scalar deleting destructor'
_TEXT	ENDS
; Function compile flags: /Ogtp
; File D:\git\src\IBK\IBK_DRFN\ProjSrc\SrcChartEx\ChartAddIn\ChartAnalysisToolAddIn\ChartAnalysisToolAddIn\CrosshairsDragAddInImp.cpp
;	COMDAT ?OnLButtonUp@CCrosshairsDragAddInImp@@MAEHPAUHDC__@@IAAUtagPOINT@@K@Z
_TEXT	SEGMENT
_p_hDC$ = 8						; size = 4
_nFlags$ = 12						; size = 4
_point$ = 16						; size = 4
_p_dwMouseActionID$ = 20				; size = 4
?OnLButtonUp@CCrosshairsDragAddInImp@@MAEHPAUHDC__@@IAAUtagPOINT@@K@Z PROC ; CCrosshairsDragAddInImp::OnLButtonUp, COMDAT
; _this$ = ecx

; 323  : 	// (2006/2/16 - Seung-Won, Bae) Manage the Flag of Tool Executed
; 324  : 	if( !m_bCrossCfgExecuted || m_bCrossBtnExecuted) return FALSE;

  00000	83 b9 a8 00 00
	00 00		 cmp	 DWORD PTR [ecx+168], 0
  00007	74 1a		 je	 SHORT $LN6@OnLButtonU
  00009	83 b9 a4 00 00
	00 00		 cmp	 DWORD PTR [ecx+164], 0
  00010	75 11		 jne	 SHORT $LN6@OnLButtonU

; 325  : 
; 326  : 	if( m_bOnSetCaprture) ReleaseCaptureWithFlag();

  00012	83 b9 d8 00 00
	00 00		 cmp	 DWORD PTR [ecx+216], 0
  00019	74 08		 je	 SHORT $LN6@OnLButtonU
  0001b	83 c1 f8	 add	 ecx, -8			; fffffff8H
  0001e	e8 00 00 00 00	 call	 ?ReleaseCaptureWithFlag@CCrosshairsDragAddInImp@@IAEXXZ ; CCrosshairsDragAddInImp::ReleaseCaptureWithFlag
$LN6@OnLButtonU:

; 327  : 
; 328  : 	return FALSE;
; 329  : }

  00023	33 c0		 xor	 eax, eax
  00025	c2 10 00	 ret	 16			; 00000010H
?OnLButtonUp@CCrosshairsDragAddInImp@@MAEHPAUHDC__@@IAAUtagPOINT@@K@Z ENDP ; CCrosshairsDragAddInImp::OnLButtonUp
_TEXT	ENDS
; Function compile flags: /Ogtp
; File D:\git\src\IBK\IBK_DRFN\ProjSrc\SrcChartEx\ChartAddIn\ChartAnalysisToolAddIn\ChartAnalysisToolAddIn\CrosshairsDragAddInImp.cpp
; File C:\Program Files (x86)\Microsoft Visual Studio\2019\Community\VC\Tools\MSVC\14.29.30133\atlmfc\include\atltypes.h
; File D:\git\src\IBK\IBK_DRFN\ProjSrc\SrcChartEx\ChartAddIn\ChartAnalysisToolAddIn\ChartAnalysisToolAddIn\CrosshairsDragAddInImp.cpp
; File C:\Program Files (x86)\Microsoft Visual Studio\2019\Community\VC\Tools\MSVC\14.29.30133\atlmfc\include\atltypes.h
; File D:\git\src\IBK\IBK_DRFN\ProjSrc\SrcChartEx\ChartAddIn\ChartAnalysisToolAddIn\ChartAnalysisToolAddIn\CrosshairsDragAddInImp.cpp
;	COMDAT ?OnLButtonDown@CCrosshairsDragAddInImp@@MAEHPAUHDC__@@IAAUtagPOINT@@K@Z
_TEXT	SEGMENT
$T1 = -36						; size = 16
$T2 = -20						; size = 16
__$ArrayPad$ = -4					; size = 4
_p_hDC$ = 8						; size = 4
_nFlags$ = 12						; size = 4
_point$ = 16						; size = 4
_p_dwMouseActionID$ = 20				; size = 4
?OnLButtonDown@CCrosshairsDragAddInImp@@MAEHPAUHDC__@@IAAUtagPOINT@@K@Z PROC ; CCrosshairsDragAddInImp::OnLButtonDown, COMDAT
; _this$ = ecx

; 307  : { 

  00000	55		 push	 ebp
  00001	8b ec		 mov	 ebp, esp
  00003	83 ec 24	 sub	 esp, 36			; 00000024H
  00006	a1 00 00 00 00	 mov	 eax, DWORD PTR ___security_cookie
  0000b	33 c5		 xor	 eax, ebp
  0000d	89 45 fc	 mov	 DWORD PTR __$ArrayPad$[ebp], eax
  00010	56		 push	 esi
  00011	8b f1		 mov	 esi, ecx
  00013	57		 push	 edi
  00014	8b 7d 10	 mov	 edi, DWORD PTR _point$[ebp]

; 311  : 	if( m_pIChartManager->IsEmpty() || CRect(0, 0, 0, 0) == m_pIChartManager->GetGraphRegionSumInColumn( point)) 

  00017	8b 4e 20	 mov	 ecx, DWORD PTR [esi+32]
  0001a	8b 01		 mov	 eax, DWORD PTR [ecx]
  0001c	ff 50 2c	 call	 DWORD PTR [eax+44]
  0001f	85 c0		 test	 eax, eax
  00021	75 44		 jne	 SHORT $LN3@OnLButtonD
  00023	8b 4e 20	 mov	 ecx, DWORD PTR [esi+32]
  00026	8d 55 dc	 lea	 edx, DWORD PTR $T1[ebp]
  00029	ff 77 04	 push	 DWORD PTR [edi+4]
  0002c	0f 57 c0	 xorps	 xmm0, xmm0
  0002f	ff 37		 push	 DWORD PTR [edi]
; File C:\Program Files (x86)\Microsoft Visual Studio\2019\Community\VC\Tools\MSVC\14.29.30133\atlmfc\include\atltypes.h

; 540  : 	left = l;

  00031	0f 11 45 ec	 movups	 XMMWORD PTR $T2[ebp], xmm0
; File D:\git\src\IBK\IBK_DRFN\ProjSrc\SrcChartEx\ChartAddIn\ChartAnalysisToolAddIn\ChartAnalysisToolAddIn\CrosshairsDragAddInImp.cpp

; 311  : 	if( m_pIChartManager->IsEmpty() || CRect(0, 0, 0, 0) == m_pIChartManager->GetGraphRegionSumInColumn( point)) 

  00035	8b 01		 mov	 eax, DWORD PTR [ecx]
  00037	52		 push	 edx
  00038	ff 90 88 00 00
	00		 call	 DWORD PTR [eax+136]
; File C:\Program Files (x86)\Microsoft Visual Studio\2019\Community\VC\Tools\MSVC\14.29.30133\atlmfc\include\atltypes.h

; 770  : 	return ::EqualRect(this, &rect);

  0003e	50		 push	 eax
  0003f	8d 45 ec	 lea	 eax, DWORD PTR $T2[ebp]
  00042	50		 push	 eax
  00043	ff 15 00 00 00
	00		 call	 DWORD PTR __imp__EqualRect@8
; File D:\git\src\IBK\IBK_DRFN\ProjSrc\SrcChartEx\ChartAddIn\ChartAnalysisToolAddIn\ChartAnalysisToolAddIn\CrosshairsDragAddInImp.cpp

; 311  : 	if( m_pIChartManager->IsEmpty() || CRect(0, 0, 0, 0) == m_pIChartManager->GetGraphRegionSumInColumn( point)) 

  00049	85 c0		 test	 eax, eax
  0004b	75 1a		 jne	 SHORT $LN3@OnLButtonD

; 312  : 		return FALSE;
; 313  : 
; 314  : 	// (2006/2/6 - Seung-Won, Bae) Manage Mouse Action ID for Serial Action.
; 315  : 	m_dwMouseActionID = p_dwMouseActionID;

  0004d	8b 45 14	 mov	 eax, DWORD PTR _p_dwMouseActionID$[ebp]
  00050	89 86 a0 00 00
	00		 mov	 DWORD PTR [esi+160], eax

; 316  : 	m_ptStartDragDrop = point;	

  00056	8b 07		 mov	 eax, DWORD PTR [edi]
  00058	8b 4f 04	 mov	 ecx, DWORD PTR [edi+4]
  0005b	89 86 98 00 00
	00		 mov	 DWORD PTR [esi+152], eax
  00061	89 8e 9c 00 00
	00		 mov	 DWORD PTR [esi+156], ecx
$LN3@OnLButtonD:

; 317  : 	
; 318  : 	return FALSE;	// return FALSE. OnLButtonDown is not start time of this tool.
; 319  : }

  00067	8b 4d fc	 mov	 ecx, DWORD PTR __$ArrayPad$[ebp]
  0006a	33 c0		 xor	 eax, eax
  0006c	5f		 pop	 edi
  0006d	33 cd		 xor	 ecx, ebp
  0006f	5e		 pop	 esi
  00070	e8 00 00 00 00	 call	 @__security_check_cookie@4
  00075	8b e5		 mov	 esp, ebp
  00077	5d		 pop	 ebp
  00078	c2 10 00	 ret	 16			; 00000010H
?OnLButtonDown@CCrosshairsDragAddInImp@@MAEHPAUHDC__@@IAAUtagPOINT@@K@Z ENDP ; CCrosshairsDragAddInImp::OnLButtonDown
_TEXT	ENDS
; Function compile flags: /Ogtp
; File D:\git\src\IBK\IBK_DRFN\ProjSrc\SrcChartEx\ChartAddIn\ChartAnalysisToolAddIn\ChartAnalysisToolAddIn\CrosshairsDragAddInImp.cpp
; File C:\Program Files (x86)\Microsoft Visual Studio\2019\Community\VC\Tools\MSVC\14.29.30133\atlmfc\include\atltypes.h
; File D:\git\src\IBK\IBK_DRFN\ProjSrc\SrcChartEx\ChartAddIn\ChartAnalysisToolAddIn\ChartAnalysisToolAddIn\CrosshairsDragAddInImp.cpp
; File C:\Program Files (x86)\Microsoft Visual Studio\2019\Community\VC\Tools\MSVC\14.29.30133\atlmfc\include\atltypes.h
; File D:\git\src\IBK\IBK_DRFN\ProjSrc\SrcChartEx\ChartAddIn\ChartAnalysisToolAddIn\ChartAnalysisToolAddIn\CrosshairsDragAddInImp.cpp
; File C:\Program Files (x86)\Microsoft Visual Studio\2019\Community\VC\Tools\MSVC\14.29.30133\atlmfc\include\atltypes.h
; File D:\git\src\IBK\IBK_DRFN\ProjSrc\SrcChartEx\ChartAddIn\ChartAnalysisToolAddIn\ChartAnalysisToolAddIn\CrosshairsDragAddInImp.cpp
; File C:\Program Files (x86)\Microsoft Visual Studio\2019\Community\VC\Tools\MSVC\14.29.30133\atlmfc\include\atltypes.h
; File D:\git\src\IBK\IBK_DRFN\ProjSrc\SrcChartEx\ChartAddIn\ChartAnalysisToolAddIn\ChartAnalysisToolAddIn\CrosshairsDragAddInImp.cpp
; File C:\Program Files (x86)\Microsoft Visual Studio\2019\Community\VC\Tools\MSVC\14.29.30133\atlmfc\include\atltypes.h
; File D:\git\src\IBK\IBK_DRFN\ProjSrc\SrcChartEx\ChartAddIn\ChartAnalysisToolAddIn\ChartAnalysisToolAddIn\CrosshairsDragAddInImp.cpp
; File C:\Program Files (x86)\Microsoft Visual Studio\2019\Community\VC\Tools\MSVC\14.29.30133\atlmfc\include\atltypes.h
; File D:\git\src\IBK\IBK_DRFN\ProjSrc\SrcChartEx\ChartAddIn\ChartAnalysisToolAddIn\ChartAnalysisToolAddIn\CrosshairsDragAddInImp.cpp
;	COMDAT ?OnMouseMove@CCrosshairsDragAddInImp@@MAEHPAUHDC__@@IAAUtagPOINT@@KQAUHBITMAP__@@@Z
_TEXT	SEGMENT
_p_hDC$GSCopy$1$ = -24					; size = 4
$T1 = -20						; size = 16
__$ArrayPad$ = -4					; size = 4
_p_hDC$ = 8						; size = 4
_nFlags$ = 12						; size = 4
_point$ = 16						; size = 4
_p_dwMouseActionID$ = 20				; size = 4
_p_hbmpMainOSB$ = 24					; size = 4
?OnMouseMove@CCrosshairsDragAddInImp@@MAEHPAUHDC__@@IAAUtagPOINT@@KQAUHBITMAP__@@@Z PROC ; CCrosshairsDragAddInImp::OnMouseMove, COMDAT
; _this$ = ecx

; 267  : {

  00000	55		 push	 ebp
  00001	8b ec		 mov	 ebp, esp
  00003	83 ec 18	 sub	 esp, 24			; 00000018H
  00006	a1 00 00 00 00	 mov	 eax, DWORD PTR ___security_cookie
  0000b	33 c5		 xor	 eax, ebp
  0000d	89 45 fc	 mov	 DWORD PTR __$ArrayPad$[ebp], eax

; 268  : 	m_bLButtonDown = FALSE;
; 269  : 	if(nFlags != MK_LBUTTON) return FALSE;

  00010	83 7d 0c 01	 cmp	 DWORD PTR _nFlags$[ebp], 1
  00014	53		 push	 ebx
  00015	8b 5d 08	 mov	 ebx, DWORD PTR _p_hDC$[ebp]
  00018	56		 push	 esi
  00019	8b f1		 mov	 esi, ecx
  0001b	89 5d e8	 mov	 DWORD PTR _p_hDC$GSCopy$1$[ebp], ebx
  0001e	57		 push	 edi
  0001f	8b 7d 10	 mov	 edi, DWORD PTR _point$[ebp]
  00022	c7 86 d4 00 00
	00 00 00 00 00	 mov	 DWORD PTR [esi+212], 0
  0002c	0f 85 4e 01 00
	00		 jne	 $LN4@OnMouseMov

; 270  : 
; 271  : 	m_bLButtonDown = TRUE;
; 272  : 
; 273  : 	// (2006/2/16 - Seung-Won, Bae) Manage the Flag of Tool Executed
; 274  : 	if( !m_bCrossCfgExecuted || m_bCrossBtnExecuted) return FALSE;

  00032	83 be a8 00 00
	00 00		 cmp	 DWORD PTR [esi+168], 0
  00039	c7 86 d4 00 00
	00 01 00 00 00	 mov	 DWORD PTR [esi+212], 1
  00043	0f 84 37 01 00
	00		 je	 $LN4@OnMouseMov
  00049	83 be a4 00 00
	00 00		 cmp	 DWORD PTR [esi+164], 0
  00050	0f 85 2a 01 00
	00		 jne	 $LN4@OnMouseMov

; 275  : 
; 276  : 	// (2006/2/6 - Seung-Won, Bae) Manage Mouse Action ID for Serial Action.
; 277  : 	if( !m_pIAddInToolMgr->IsLButtonExclusive( m_pIAddInDllBase))

  00056	8b 4e 28	 mov	 ecx, DWORD PTR [esi+40]
  00059	ff 76 14	 push	 DWORD PTR [esi+20]
  0005c	8b 01		 mov	 eax, DWORD PTR [ecx]
  0005e	ff 50 34	 call	 DWORD PTR [eax+52]
  00061	85 c0		 test	 eax, eax
  00063	0f 85 9f 00 00
	00		 jne	 $LN25@OnMouseMov

; 278  : 	{
; 279  : //		if( m_ptStartDragDrop == point)	
; 280  : //			return FALSE;				// It is not moved.
; 281  : 		if( p_dwMouseActionID != m_dwMouseActionID) 

  00069	8b 45 14	 mov	 eax, DWORD PTR _p_dwMouseActionID$[ebp]
  0006c	3b 86 a0 00 00
	00		 cmp	 eax, DWORD PTR [esi+160]
  00072	0f 85 08 01 00
	00		 jne	 $LN4@OnMouseMov

; 587  : 	if(m_pAnalysisTool == NULL)

  00078	8b 8e 94 00 00
	00		 mov	 ecx, DWORD PTR [esi+148]
; File C:\Program Files (x86)\Microsoft Visual Studio\2019\Community\VC\Tools\MSVC\14.29.30133\atlmfc\include\atltypes.h

; 414  : 	*(POINT*)this = initPt;

  0007e	8b 07		 mov	 eax, DWORD PTR [edi]
  00080	8b 57 04	 mov	 edx, DWORD PTR [edi+4]
; File D:\git\src\IBK\IBK_DRFN\ProjSrc\SrcChartEx\ChartAddIn\ChartAnalysisToolAddIn\ChartAnalysisToolAddIn\CrosshairsDragAddInImp.cpp

; 587  : 	if(m_pAnalysisTool == NULL)

  00083	85 c9		 test	 ecx, ecx
  00085	74 1f		 je	 SHORT $LN33@OnMouseMov

; 588  : 	{
; 589  : 		return FALSE;
; 590  : 	}
; 591  : 
; 592  : 	m_rctBlockRegion = m_pAnalysisTool->GetGraphTotalRegion(point);		

  00087	52		 push	 edx
  00088	50		 push	 eax
  00089	8d 45 ec	 lea	 eax, DWORD PTR $T1[ebp]
  0008c	50		 push	 eax
  0008d	ff 15 00 00 00
	00		 call	 DWORD PTR __imp_?GetGraphTotalRegion@CMainAnalysisTool@@QAE?AVCRect@@VCPoint@@@Z
  00093	8d 9e b4 00 00
	00		 lea	 ebx, DWORD PTR [esi+180]
  00099	0f 10 00	 movups	 xmm0, XMMWORD PTR [eax]
  0009c	0f 11 03	 movups	 XMMWORD PTR [ebx], xmm0
  0009f	8b 07		 mov	 eax, DWORD PTR [edi]
  000a1	8b 57 04	 mov	 edx, DWORD PTR [edi+4]
  000a4	eb 06		 jmp	 SHORT $LN16@OnMouseMov
$LN33@OnMouseMov:
  000a6	8d 9e b4 00 00
	00		 lea	 ebx, DWORD PTR [esi+180]
$LN16@OnMouseMov:
; File C:\Program Files (x86)\Microsoft Visual Studio\2019\Community\VC\Tools\MSVC\14.29.30133\atlmfc\include\atltypes.h

; 648  : 	return ::PtInRect(this, point);

  000ac	52		 push	 edx
  000ad	50		 push	 eax
  000ae	53		 push	 ebx
  000af	ff 15 00 00 00
	00		 call	 DWORD PTR __imp__PtInRect@12
; File D:\git\src\IBK\IBK_DRFN\ProjSrc\SrcChartEx\ChartAddIn\ChartAnalysisToolAddIn\ChartAnalysisToolAddIn\CrosshairsDragAddInImp.cpp

; 285  : 		if( m_rctBlockRegion.PtInRect( point ) && m_rctBlockRegion.IsRectEmpty() == FALSE)

  000b5	85 c0		 test	 eax, eax
  000b7	74 4c		 je	 SHORT $LN38@OnMouseMov
; File C:\Program Files (x86)\Microsoft Visual Studio\2019\Community\VC\Tools\MSVC\14.29.30133\atlmfc\include\atltypes.h

; 638  : 	return ::IsRectEmpty(this);

  000b9	53		 push	 ebx
  000ba	ff 15 00 00 00
	00		 call	 DWORD PTR __imp__IsRectEmpty@4
; File D:\git\src\IBK\IBK_DRFN\ProjSrc\SrcChartEx\ChartAddIn\ChartAnalysisToolAddIn\ChartAnalysisToolAddIn\CrosshairsDragAddInImp.cpp

; 285  : 		if( m_rctBlockRegion.PtInRect( point ) && m_rctBlockRegion.IsRectEmpty() == FALSE)

  000c0	85 c0		 test	 eax, eax
  000c2	75 41		 jne	 SHORT $LN38@OnMouseMov

; 286  : 		{		
; 287  : 			if(!m_bOnSetCaprture)

  000c4	39 86 d8 00 00
	00		 cmp	 DWORD PTR [esi+216], eax
  000ca	75 39		 jne	 SHORT $LN38@OnMouseMov

; 333  : 	if( !m_pIAddInToolMgr->GetLButtonExclusive( m_pIAddInDllBase)) 

  000cc	8b 4e 28	 mov	 ecx, DWORD PTR [esi+40]
  000cf	ff 76 14	 push	 DWORD PTR [esi+20]
  000d2	8b 01		 mov	 eax, DWORD PTR [ecx]
  000d4	ff 50 30	 call	 DWORD PTR [eax+48]
  000d7	85 c0		 test	 eax, eax
  000d9	74 2a		 je	 SHORT $LN38@OnMouseMov

; 334  : 		return;
; 335  : 
; 336  : 	// 1. Mouse Event Capturing.
; 337  : 	// (2004.11.02, ) Mouse Capturing  ,  Count  Capturing Interface .
; 338  : 	m_pIChartOCX->AddSetCapture();

  000db	8b 4e 04	 mov	 ecx, DWORD PTR [esi+4]
  000de	8b 01		 mov	 eax, DWORD PTR [ecx]
  000e0	ff 50 44	 call	 DWORD PTR [eax+68]

; 339  : 
; 340  : 	// 2. Mouse Capturing Flag TRUE .
; 341  : 	m_bOnSetCaprture = TRUE;	
; 342  : 
; 343  : 	if( m_bWithNIDlgOnToolExec) 

  000e3	83 be ac 00 00
	00 00		 cmp	 DWORD PTR [esi+172], 0
  000ea	c7 86 d8 00 00
	00 01 00 00 00	 mov	 DWORD PTR [esi+216], 1
  000f4	74 0f		 je	 SHORT $LN38@OnMouseMov

; 344  : 		m_pIAddInToolMgr->OnAddInToolCommand( EAI_NIDLG_DRAG_SHOWHIDE, ( long)1);

  000f6	8b 4e 28	 mov	 ecx, DWORD PTR [esi+40]
  000f9	6a 01		 push	 1
  000fb	6a 23		 push	 35			; 00000023H
  000fd	8b 01		 mov	 eax, DWORD PTR [ecx]
  000ff	ff 90 98 00 00
	00		 call	 DWORD PTR [eax+152]
$LN38@OnMouseMov:

; 288  : 				SetCaptureWithFlag();
; 289  : 		}
; 290  : 	}
; 291  : 
; 292  : 	if( m_bOnSetCaprture)

  00105	8b 5d e8	 mov	 ebx, DWORD PTR _p_hDC$GSCopy$1$[ebp]
$LN25@OnMouseMov:
  00108	83 be d8 00 00
	00 00		 cmp	 DWORD PTR [esi+216], 0
  0010f	74 57		 je	 SHORT $LN11@OnMouseMov

; 293  : 	{
; 294  : 		m_ptOldMouse = point;
; 295  : 
; 296  : 		if( m_bWithNIDlgOnToolExec) 

  00111	83 be ac 00 00
	00 00		 cmp	 DWORD PTR [esi+172], 0
  00118	8b 07		 mov	 eax, DWORD PTR [edi]
  0011a	8b 4f 04	 mov	 ecx, DWORD PTR [edi+4]
  0011d	89 86 dc 00 00
	00		 mov	 DWORD PTR [esi+220], eax
  00123	89 8e e0 00 00
	00		 mov	 DWORD PTR [esi+224], ecx
  00129	74 14		 je	 SHORT $LN10@OnMouseMov

; 297  : 			m_pIAddInToolMgr->OnAddInToolCommand( EAI_NIDLG_DRAG_ONMOUSEMOVE, p_hDC, nFlags, point, p_dwMouseActionID);

  0012b	ff 75 14	 push	 DWORD PTR _p_dwMouseActionID$[ebp]
  0012e	8b 4e 28	 mov	 ecx, DWORD PTR [esi+40]
  00131	57		 push	 edi
  00132	6a 01		 push	 1
  00134	53		 push	 ebx
  00135	8b 01		 mov	 eax, DWORD PTR [ecx]
  00137	6a 24		 push	 36			; 00000024H
  00139	ff 90 a8 00 00
	00		 call	 DWORD PTR [eax+168]
$LN10@OnMouseMov:
; File C:\Program Files (x86)\Microsoft Visual Studio\2019\Community\VC\Tools\MSVC\14.29.30133\atlmfc\include\atltypes.h

; 648  : 	return ::PtInRect(this, point);

  0013f	ff 77 04	 push	 DWORD PTR [edi+4]
; File D:\git\src\IBK\IBK_DRFN\ProjSrc\SrcChartEx\ChartAddIn\ChartAnalysisToolAddIn\ChartAnalysisToolAddIn\CrosshairsDragAddInImp.cpp

; 299  : 		if( !m_rctBlockRegion.PtInRect( point ) || m_rctBlockRegion.IsRectEmpty() != FALSE)

  00142	8d 9e b4 00 00
	00		 lea	 ebx, DWORD PTR [esi+180]
; File C:\Program Files (x86)\Microsoft Visual Studio\2019\Community\VC\Tools\MSVC\14.29.30133\atlmfc\include\atltypes.h

; 648  : 	return ::PtInRect(this, point);

  00148	ff 37		 push	 DWORD PTR [edi]
  0014a	53		 push	 ebx
  0014b	ff 15 00 00 00
	00		 call	 DWORD PTR __imp__PtInRect@12
; File D:\git\src\IBK\IBK_DRFN\ProjSrc\SrcChartEx\ChartAddIn\ChartAnalysisToolAddIn\ChartAnalysisToolAddIn\CrosshairsDragAddInImp.cpp

; 299  : 		if( !m_rctBlockRegion.PtInRect( point ) || m_rctBlockRegion.IsRectEmpty() != FALSE)

  00151	85 c0		 test	 eax, eax
  00153	74 0b		 je	 SHORT $LN12@OnMouseMov
; File C:\Program Files (x86)\Microsoft Visual Studio\2019\Community\VC\Tools\MSVC\14.29.30133\atlmfc\include\atltypes.h

; 638  : 	return ::IsRectEmpty(this);

  00155	53		 push	 ebx
  00156	ff 15 00 00 00
	00		 call	 DWORD PTR __imp__IsRectEmpty@4
; File D:\git\src\IBK\IBK_DRFN\ProjSrc\SrcChartEx\ChartAddIn\ChartAnalysisToolAddIn\ChartAnalysisToolAddIn\CrosshairsDragAddInImp.cpp

; 299  : 		if( !m_rctBlockRegion.PtInRect( point ) || m_rctBlockRegion.IsRectEmpty() != FALSE)

  0015c	85 c0		 test	 eax, eax
  0015e	74 08		 je	 SHORT $LN11@OnMouseMov
$LN12@OnMouseMov:

; 300  : 			ReleaseCaptureWithFlag();

  00160	8d 4e f8	 lea	 ecx, DWORD PTR [esi-8]
  00163	e8 00 00 00 00	 call	 ?ReleaseCaptureWithFlag@CCrosshairsDragAddInImp@@IAEXXZ ; CCrosshairsDragAddInImp::ReleaseCaptureWithFlag
$LN11@OnMouseMov:

; 301  : 	}
; 302  : 
; 303  : 	return TRUE;

  00168	b8 01 00 00 00	 mov	 eax, 1

; 304  : }

  0016d	5f		 pop	 edi
  0016e	5e		 pop	 esi
  0016f	5b		 pop	 ebx
  00170	8b 4d fc	 mov	 ecx, DWORD PTR __$ArrayPad$[ebp]
  00173	33 cd		 xor	 ecx, ebp
  00175	e8 00 00 00 00	 call	 @__security_check_cookie@4
  0017a	8b e5		 mov	 esp, ebp
  0017c	5d		 pop	 ebp
  0017d	c2 14 00	 ret	 20			; 00000014H
$LN4@OnMouseMov:
  00180	8b 4d fc	 mov	 ecx, DWORD PTR __$ArrayPad$[ebp]
  00183	33 c0		 xor	 eax, eax
  00185	5f		 pop	 edi
  00186	5e		 pop	 esi
  00187	33 cd		 xor	 ecx, ebp
  00189	5b		 pop	 ebx
  0018a	e8 00 00 00 00	 call	 @__security_check_cookie@4
  0018f	8b e5		 mov	 esp, ebp
  00191	5d		 pop	 ebp
  00192	c2 14 00	 ret	 20			; 00000014H
?OnMouseMove@CCrosshairsDragAddInImp@@MAEHPAUHDC__@@IAAUtagPOINT@@KQAUHBITMAP__@@@Z ENDP ; CCrosshairsDragAddInImp::OnMouseMove
_TEXT	ENDS
; Function compile flags: /Ogtp
; File D:\git\src\IBK\IBK_DRFN\ProjSrc\SrcChartEx\ChartAddIn\ChartAnalysisToolAddIn\ChartAnalysisToolAddIn\CrosshairsDragAddInImp.cpp
;	COMDAT ?OnAddInToolCommand@CCrosshairsDragAddInImp@@MAEHW4EAICommandType@@J@Z
_TEXT	SEGMENT
_p_eCommandID$ = 8					; size = 4
_p_lParam$ = 12						; size = 4
?OnAddInToolCommand@CCrosshairsDragAddInImp@@MAEHW4EAICommandType@@J@Z PROC ; CCrosshairsDragAddInImp::OnAddInToolCommand, COMDAT
; _this$ = ecx

; 250  : { 

  00000	55		 push	 ebp
  00001	8b ec		 mov	 ebp, esp

; 251  : 	// (2006/6/28 - Seung-Won, Bae) Manage Notify from Over-Cross to Drag-Cross for avoiding the Multiple Cross Active.
; 252  : 	if( EAI_CROSSHAIRS_DRAG_OVER_ACTIVATED == p_eCommandID)

  00003	83 7d 08 26	 cmp	 DWORD PTR _p_eCommandID$[ebp], 38 ; 00000026H
  00007	56		 push	 esi
  00008	8b f1		 mov	 esi, ecx
  0000a	74 32		 je	 SHORT $LN4@OnAddInToo

; 253  : 		return FALSE;				// for CrossLine Object Tool AddIn
; 254  : 	
; 255  : 	// (2006/2/13 - Seung-Won, Bae) Check Empty Chart
; 256  : 	if( !m_pAnalysisTool || m_pIChartManager->IsEmpty() || 

  0000c	83 be 94 00 00
	00 00		 cmp	 DWORD PTR [esi+148], 0
  00013	74 29		 je	 SHORT $LN4@OnAddInToo
  00015	8b 4e 20	 mov	 ecx, DWORD PTR [esi+32]
  00018	8b 01		 mov	 eax, DWORD PTR [ecx]
  0001a	ff 50 2c	 call	 DWORD PTR [eax+44]
  0001d	85 c0		 test	 eax, eax
  0001f	75 1d		 jne	 SHORT $LN4@OnAddInToo
  00021	83 7d 08 1e	 cmp	 DWORD PTR _p_eCommandID$[ebp], 30 ; 0000001eH
  00025	75 17		 jne	 SHORT $LN4@OnAddInToo

; 257  : 		EAI_ALL_ON_CHANGE_CURSOR_MODE != p_eCommandID) return FALSE;
; 258  : 	
; 259  : 	// (2006/2/13 - Seung-Won, Bae) Manage the Flag of Environment Setting
; 260  : 	m_bCrossCfgExecuted		= ( p_lParam & CROSSLINEVIEW);

  00027	8b 4d 0c	 mov	 ecx, DWORD PTR _p_lParam$[ebp]
  0002a	8b c1		 mov	 eax, ecx
  0002c	83 e0 02	 and	 eax, 2

; 261  : 	m_bWithNIDlgOnToolExec	= ( p_lParam & NUMERICALINQUIRYDLG);	// (2006/2/28 - Seung-Won, Bae) for Active without NIDLG

  0002f	83 e1 01	 and	 ecx, 1
  00032	89 86 a8 00 00
	00		 mov	 DWORD PTR [esi+168], eax
  00038	89 8e ac 00 00
	00		 mov	 DWORD PTR [esi+172], ecx
$LN4@OnAddInToo:

; 262  : 
; 263  : 	return FALSE;	// for Other Tool
; 264  : }

  0003e	33 c0		 xor	 eax, eax
  00040	5e		 pop	 esi
  00041	5d		 pop	 ebp
  00042	c2 08 00	 ret	 8
?OnAddInToolCommand@CCrosshairsDragAddInImp@@MAEHW4EAICommandType@@J@Z ENDP ; CCrosshairsDragAddInImp::OnAddInToolCommand
_TEXT	ENDS
; Function compile flags: /Ogtp
; File D:\git\src\IBK\IBK_DRFN\ProjSrc\SrcChartEx\ChartAddIn\ChartAnalysisToolAddIn\ChartAnalysisToolAddIn\CrosshairsDragAddInImp.cpp
;	COMDAT ?OnAddInToolCommand@CCrosshairsDragAddInImp@@MAEHW4EAICommandType@@@Z
_TEXT	SEGMENT
$T1 = 8							; size = 4
_clrAnalysisTool$2 = 8					; size = 4
_p_eCommandID$ = 8					; size = 4
?OnAddInToolCommand@CCrosshairsDragAddInImp@@MAEHW4EAICommandType@@@Z PROC ; CCrosshairsDragAddInImp::OnAddInToolCommand, COMDAT
; _this$ = ecx

; 180  : {

  00000	55		 push	 ebp
  00001	8b ec		 mov	 ebp, esp
  00003	56		 push	 esi
  00004	8b f1		 mov	 esi, ecx

; 181  : 	if( !m_pAnalysisTool) return FALSE;

  00006	83 be 94 00 00
	00 00		 cmp	 DWORD PTR [esi+148], 0
  0000d	74 62		 je	 SHORT $LN8@OnAddInToo

; 182  : 
; 183  : 	switch( p_eCommandID)

  0000f	8b 45 08	 mov	 eax, DWORD PTR _p_eCommandID$[ebp]
  00012	83 e8 18	 sub	 eax, 24			; 00000018H
  00015	74 3c		 je	 SHORT $LN6@OnAddInToo
  00017	83 e8 02	 sub	 eax, 2
  0001a	75 55		 jne	 SHORT $LN8@OnAddInToo

; 184  : 	{
; 185  : 		case EAI_ALL_ANALYSIS_RESET_INITIAL_COLOR:
; 186  : 		{
; 187  : 			COLORREF clrAnalysisTool = m_pIChartOCX->GetStyleValueAnalysisToolColor();

  0001c	8b 4e 04	 mov	 ecx, DWORD PTR [esi+4]
  0001f	8b 01		 mov	 eax, DWORD PTR [ecx]
  00021	ff 90 e0 01 00
	00		 call	 DWORD PTR [eax+480]

; 188  : 			m_pAnalysisTool->SetBaseColor( clrAnalysisTool, clrAnalysisTool);

  00027	8b 8e 94 00 00
	00		 mov	 ecx, DWORD PTR [esi+148]
  0002d	89 45 08	 mov	 DWORD PTR _clrAnalysisTool$2[ebp], eax
  00030	8d 45 08	 lea	 eax, DWORD PTR _clrAnalysisTool$2[ebp]
  00033	50		 push	 eax
  00034	50		 push	 eax
  00035	ff 15 00 00 00
	00		 call	 DWORD PTR __imp_?SetBaseColor@CMainAnalysisTool@@QAEXABK0@Z

; 189  : 			m_pAnalysisTool->ChangeAllElementsColor( clrAnalysisTool, clrAnalysisTool);

  0003b	8b 8e 94 00 00
	00		 mov	 ecx, DWORD PTR [esi+148]
  00041	8d 45 08	 lea	 eax, DWORD PTR _clrAnalysisTool$2[ebp]
  00044	50		 push	 eax
  00045	50		 push	 eax
  00046	ff 15 00 00 00
	00		 call	 DWORD PTR __imp_?ChangeAllElementsColor@CMainAnalysisTool@@QAEXABK0@Z

; 195  : 			return FALSE;
; 196  : 		}
; 197  : 	}
; 198  : 	return FALSE;
; 199  : }

  0004c	33 c0		 xor	 eax, eax
  0004e	5e		 pop	 esi
  0004f	5d		 pop	 ebp
  00050	c2 04 00	 ret	 4
$LN6@OnAddInToo:

; 190  : 			break;
; 191  : 		}
; 192  : 		case EAI_ALL_APPLY_STYLE:
; 193  : 		{
; 194  : 			m_pAnalysisTool->SetBasePenColor( m_pIChartOCX->GetStyleValueAnalysisToolColor());

  00053	8b 4e 04	 mov	 ecx, DWORD PTR [esi+4]
  00056	8b 01		 mov	 eax, DWORD PTR [ecx]
  00058	ff 90 e0 01 00
	00		 call	 DWORD PTR [eax+480]
  0005e	8b 8e 94 00 00
	00		 mov	 ecx, DWORD PTR [esi+148]
  00064	89 45 08	 mov	 DWORD PTR $T1[ebp], eax
  00067	8d 45 08	 lea	 eax, DWORD PTR $T1[ebp]
  0006a	50		 push	 eax
  0006b	ff 15 00 00 00
	00		 call	 DWORD PTR __imp_?SetBasePenColor@CMainAnalysisTool@@QAEXABK@Z
$LN8@OnAddInToo:

; 195  : 			return FALSE;
; 196  : 		}
; 197  : 	}
; 198  : 	return FALSE;
; 199  : }

  00071	33 c0		 xor	 eax, eax
  00073	5e		 pop	 esi
  00074	5d		 pop	 ebp
  00075	c2 04 00	 ret	 4
?OnAddInToolCommand@CCrosshairsDragAddInImp@@MAEHW4EAICommandType@@@Z ENDP ; CCrosshairsDragAddInImp::OnAddInToolCommand
_TEXT	ENDS
; Function compile flags: /Ogtp
; File D:\git\src\IBK\IBK_DRFN\ProjSrc\SrcChartEx\ChartAddIn\ChartAnalysisToolAddIn\ChartAnalysisToolAddIn\CrosshairsDragAddInImp.cpp
;	COMDAT ?OnCmdMsg@CCrosshairsDragAddInImp@@MAEHIHPAUICmdUI133101@@@Z
_TEXT	SEGMENT
_nID$ = 8						; size = 4
_nCode$ = 12						; size = 4
_p_pICmdUI$ = 16					; size = 4
?OnCmdMsg@CCrosshairsDragAddInImp@@MAEHIHPAUICmdUI133101@@@Z PROC ; CCrosshairsDragAddInImp::OnCmdMsg, COMDAT
; _this$ = ecx

; 149  : {

  00000	55		 push	 ebp
  00001	8b ec		 mov	 ebp, esp

; 150  : 	if( ID_CAA_CROSS_FOLLOW_CLOSE != nID) return FALSE;

  00003	81 7d 08 aa 9c
	00 00		 cmp	 DWORD PTR _nID$[ebp], 40106 ; 00009caaH
  0000a	57		 push	 edi
  0000b	8b f9		 mov	 edi, ecx
  0000d	75 7f		 jne	 SHORT $LN6@OnCmdMsg

; 151  : 	
; 152  : 	if( CN_UPDATE_COMMAND_UI == nCode)

  0000f	8b 45 0c	 mov	 eax, DWORD PTR _nCode$[ebp]
  00012	83 f8 ff	 cmp	 eax, -1
  00015	75 4d		 jne	 SHORT $LN3@OnCmdMsg

; 153  : 	{
; 154  : 		if( p_pICmdUI)

  00017	56		 push	 esi
  00018	8b 75 10	 mov	 esi, DWORD PTR _p_pICmdUI$[ebp]
  0001b	85 f6		 test	 esi, esi
  0001d	74 3a		 je	 SHORT $LN4@OnCmdMsg

; 155  : 		{
; 156  : 			// (2009/6/5 - Seung-Won, Bae) Check close packet.
; 157  : 			IPacket *pIPacket = m_pIDefaultPacketManager->GetPacket( _MTEXT( C0_CLOSE));

  0001f	8b 4f 1c	 mov	 ecx, DWORD PTR [edi+28]
  00022	a1 54 00 00 00	 mov	 eax, DWORD PTR ?g_iMetaTable@@3VIMetaTable@@A+84
  00027	53		 push	 ebx
  00028	8b 11		 mov	 edx, DWORD PTR [ecx]
  0002a	ff 70 14	 push	 DWORD PTR [eax+20]
  0002d	ff 52 10	 call	 DWORD PTR [edx+16]

; 158  : 			p_pICmdUI->Enable( NULL != pIPacket);

  00030	8b 16		 mov	 edx, DWORD PTR [esi]
  00032	33 c9		 xor	 ecx, ecx
  00034	8b d8		 mov	 ebx, eax
  00036	85 db		 test	 ebx, ebx
  00038	0f 95 c1	 setne	 cl
  0003b	51		 push	 ecx
  0003c	8b ce		 mov	 ecx, esi
  0003e	ff 52 10	 call	 DWORD PTR [edx+16]

; 159  : 			if( pIPacket)

  00041	85 db		 test	 ebx, ebx
  00043	74 06		 je	 SHORT $LN5@OnCmdMsg

; 160  : 			{
; 161  : 				pIPacket->Release();

  00045	8b 03		 mov	 eax, DWORD PTR [ebx]
  00047	53		 push	 ebx
  00048	ff 50 08	 call	 DWORD PTR [eax+8]
$LN5@OnCmdMsg:

; 162  : 				pIPacket = NULL;
; 163  : 			}
; 164  : 			p_pICmdUI->SetCheck( m_bCrossLineFollowClose);

  0004b	8b 06		 mov	 eax, DWORD PTR [esi]
  0004d	8b ce		 mov	 ecx, esi
  0004f	ff b7 b0 00 00
	00		 push	 DWORD PTR [edi+176]
  00055	ff 50 14	 call	 DWORD PTR [eax+20]
  00058	5b		 pop	 ebx
$LN4@OnCmdMsg:

; 165  : 		}
; 166  : 		return TRUE;

  00059	5e		 pop	 esi
  0005a	b8 01 00 00 00	 mov	 eax, 1
  0005f	5f		 pop	 edi

; 173  : 		return FALSE;	// for Other AddIn with AnalysisTool
; 174  : 	}
; 175  : 
; 176  : 	return FALSE;
; 177  : }

  00060	5d		 pop	 ebp
  00061	c2 0c 00	 ret	 12			; 0000000cH
$LN3@OnCmdMsg:

; 167  : 	}
; 168  : 
; 169  : 	if( CN_COMMAND == nCode)

  00064	85 c0		 test	 eax, eax
  00066	75 26		 jne	 SHORT $LN6@OnCmdMsg

; 170  : 	{
; 171  : 		m_bCrossLineFollowClose = !m_bCrossLineFollowClose;

  00068	8b 8f b0 00 00
	00		 mov	 ecx, DWORD PTR [edi+176]
  0006e	85 c9		 test	 ecx, ecx
  00070	0f 94 c0	 sete	 al

; 172  : 		m_pAnalysisTool->SetAutoPriceTool( m_bCrossLineFollowClose ? true : false);

  00073	85 c9		 test	 ecx, ecx
  00075	8b 8f 94 00 00
	00		 mov	 ecx, DWORD PTR [edi+148]
  0007b	89 87 b0 00 00
	00		 mov	 DWORD PTR [edi+176], eax
  00081	0f 94 c0	 sete	 al
  00084	0f b6 c0	 movzx	 eax, al
  00087	50		 push	 eax
  00088	ff 15 00 00 00
	00		 call	 DWORD PTR __imp_?SetAutoPriceTool@CMainAnalysisTool@@QAEX_N@Z
$LN6@OnCmdMsg:

; 173  : 		return FALSE;	// for Other AddIn with AnalysisTool
; 174  : 	}
; 175  : 
; 176  : 	return FALSE;
; 177  : }

  0008e	33 c0		 xor	 eax, eax
  00090	5f		 pop	 edi
  00091	5d		 pop	 ebp
  00092	c2 0c 00	 ret	 12			; 0000000cH
?OnCmdMsg@CCrosshairsDragAddInImp@@MAEHIHPAUICmdUI133101@@@Z ENDP ; CCrosshairsDragAddInImp::OnCmdMsg
_TEXT	ENDS
; Function compile flags: /Ogtp
; File D:\git\src\IBK\IBK_DRFN\ProjSrc\SrcChartEx\ChartAddIn\ChartAnalysisToolAddIn\ChartAnalysisToolAddIn\CrosshairsDragAddInImp.cpp
;	COMDAT ?OnCaptureChanged@CCrosshairsDragAddInImp@@MAEXPAUHWND__@@QAUHBITMAP__@@@Z
_TEXT	SEGMENT
_p_hWnd$ = 8						; size = 4
_p_hbmpMainOSB$ = 12					; size = 4
?OnCaptureChanged@CCrosshairsDragAddInImp@@MAEXPAUHWND__@@QAUHBITMAP__@@@Z PROC ; CCrosshairsDragAddInImp::OnCaptureChanged, COMDAT
; _this$ = ecx

; 517  : 	if( m_bOnSetCaprture)

  00000	83 b9 d8 00 00
	00 00		 cmp	 DWORD PTR [ecx+216], 0
  00007	74 08		 je	 SHORT $LN2@OnCaptureC

; 518  : 		ReleaseCaptureWithFlag();

  00009	83 c1 f8	 add	 ecx, -8			; fffffff8H
  0000c	e8 00 00 00 00	 call	 ?ReleaseCaptureWithFlag@CCrosshairsDragAddInImp@@IAEXXZ ; CCrosshairsDragAddInImp::ReleaseCaptureWithFlag
$LN2@OnCaptureC:

; 519  : }

  00011	c2 08 00	 ret	 8
?OnCaptureChanged@CCrosshairsDragAddInImp@@MAEXPAUHWND__@@QAUHBITMAP__@@@Z ENDP ; CCrosshairsDragAddInImp::OnCaptureChanged
_TEXT	ENDS
; Function compile flags: /Ogtp
; File D:\git\src\IBK\IBK_DRFN\ProjSrc\SrcChartEx\ChartAddIn\ChartAnalysisToolAddIn\ChartAnalysisToolAddIn\CrosshairsDragAddInImp.cpp
;	COMDAT ?OnToolCommand@CCrosshairsDragAddInImp@@MAEXHH@Z
_TEXT	SEGMENT
_p_nToolType$ = 8					; size = 4
_p_nCmdOption$ = 12					; size = 4
?OnToolCommand@CCrosshairsDragAddInImp@@MAEXHH@Z PROC	; CCrosshairsDragAddInImp::OnToolCommand, COMDAT
; _this$ = ecx

; 203  : {

  00000	55		 push	 ebp
  00001	8b ec		 mov	 ebp, esp
  00003	56		 push	 esi
  00004	8b f1		 mov	 esi, ecx

; 204  : 	if( !m_pAnalysisTool || m_pIChartManager->IsEmpty()) return;

  00006	83 be 94 00 00
	00 00		 cmp	 DWORD PTR [esi+148], 0
  0000d	0f 84 18 01 00
	00		 je	 $LN3@OnToolComm
  00013	8b 4e 20	 mov	 ecx, DWORD PTR [esi+32]
  00016	8b 01		 mov	 eax, DWORD PTR [ecx]
  00018	ff 50 2c	 call	 DWORD PTR [eax+44]
  0001b	85 c0		 test	 eax, eax
  0001d	0f 85 08 01 00
	00		 jne	 $LN3@OnToolComm

; 205  : 	
; 206  : 	if(p_nToolType == CToolOptionInfo::T_ALL_TOOL_RESET_STATE)

  00023	8b 45 08	 mov	 eax, DWORD PTR _p_nToolType$[ebp]
  00026	3d fd 03 00 00	 cmp	 eax, 1021		; 000003fdH
  0002b	75 7b		 jne	 SHORT $LN4@OnToolComm

; 207  : 	{
; 208  : 		if( !m_pAnalysisTool) return;

  0002d	83 be 94 00 00
	00 00		 cmp	 DWORD PTR [esi+148], 0
  00034	0f 84 f1 00 00
	00		 je	 $LN3@OnToolComm

; 209  : 
; 210  : 		m_bLButtonDown = FALSE;
; 211  : 		m_bCrossBtnExecuted = FALSE;
; 212  : 		m_bCrossCfgExecuted	= FALSE;
; 213  : 
; 214  : 		m_pIChartOCX->OnToolStateChanged(CToolOptionInfo::T_CROSSHAIRS_TOOL,FALSE);

  0003a	8b 4e 04	 mov	 ecx, DWORD PTR [esi+4]
  0003d	c7 86 d4 00 00
	00 00 00 00 00	 mov	 DWORD PTR [esi+212], 0
  00047	c7 86 a4 00 00
	00 00 00 00 00	 mov	 DWORD PTR [esi+164], 0
  00051	c7 86 a8 00 00
	00 00 00 00 00	 mov	 DWORD PTR [esi+168], 0
  0005b	8b 01		 mov	 eax, DWORD PTR [ecx]
  0005d	6a 00		 push	 0
  0005f	6a 59		 push	 89			; 00000059H
  00061	ff 90 ac 01 00
	00		 call	 DWORD PTR [eax+428]

; 215  : 		m_pIChartOCX->OnToolStateChanged(CToolOptionInfo::T_CROSSHAIRS_TOOL_WITH_NIDLG,FALSE);

  00067	8b 4e 04	 mov	 ecx, DWORD PTR [esi+4]
  0006a	6a 00		 push	 0
  0006c	6a 5a		 push	 90			; 0000005aH
  0006e	8b 01		 mov	 eax, DWORD PTR [ecx]
  00070	ff 90 ac 01 00
	00		 call	 DWORD PTR [eax+428]

; 216  : 		
; 217  : 		if( m_bWithNIDlgOnToolExec == TRUE) 

  00076	83 be ac 00 00
	00 01		 cmp	 DWORD PTR [esi+172], 1
  0007d	0f 85 a8 00 00
	00		 jne	 $LN3@OnToolComm

; 218  : 		{
; 219  : 			m_bWithNIDlgOnToolExec = FALSE;		
; 220  : 			m_pIAddInToolMgr->OnAddInToolCommand( EAI_NIDLG_DRAG_SHOWHIDE, ( long)0);

  00083	8b 4e 28	 mov	 ecx, DWORD PTR [esi+40]
  00086	c7 86 ac 00 00
	00 00 00 00 00	 mov	 DWORD PTR [esi+172], 0
  00090	5e		 pop	 esi
  00091	8b 01		 mov	 eax, DWORD PTR [ecx]
  00093	c7 45 0c 00 00
	00 00		 mov	 DWORD PTR _p_nCmdOption$[ebp], 0
  0009a	c7 45 08 23 00
	00 00		 mov	 DWORD PTR _p_nToolType$[ebp], 35 ; 00000023H

; 246  : 	}
; 247  : }

  000a1	5d		 pop	 ebp

; 218  : 		{
; 219  : 			m_bWithNIDlgOnToolExec = FALSE;		
; 220  : 			m_pIAddInToolMgr->OnAddInToolCommand( EAI_NIDLG_DRAG_SHOWHIDE, ( long)0);

  000a2	ff a0 98 00 00
	00		 jmp	 DWORD PTR [eax+152]
$LN4@OnToolComm:

; 221  : 		}
; 222  : 		return;
; 223  : 	}
; 224  : 
; 225  : 	if(p_nToolType == CToolOptionInfo::T_ALL_TOOL_TRUE_QUERY)

  000a8	3d fc 03 00 00	 cmp	 eax, 1020		; 000003fcH
  000ad	75 3c		 jne	 SHORT $LN7@OnToolComm

; 226  : 	{
; 227  : 		if(m_bCrossBtnExecuted != FALSE) 

  000af	83 be a4 00 00
	00 00		 cmp	 DWORD PTR [esi+164], 0
  000b6	74 0f		 je	 SHORT $LN8@OnToolComm

; 228  : 			m_pIChartOCX->OnToolStateChanged(CToolOptionInfo::T_CROSSHAIRS_TOOL,TRUE);

  000b8	8b 4e 04	 mov	 ecx, DWORD PTR [esi+4]
  000bb	6a 01		 push	 1
  000bd	6a 59		 push	 89			; 00000059H
  000bf	8b 01		 mov	 eax, DWORD PTR [ecx]
  000c1	ff 90 ac 01 00
	00		 call	 DWORD PTR [eax+428]
$LN8@OnToolComm:

; 229  : 
; 230  : 		if( m_bWithNIDlgOnToolExec == TRUE) 

  000c7	83 be ac 00 00
	00 01		 cmp	 DWORD PTR [esi+172], 1
  000ce	75 5b		 jne	 SHORT $LN3@OnToolComm

; 231  : 			m_pIChartOCX->OnToolStateChanged(CToolOptionInfo::T_CROSSHAIRS_TOOL_WITH_NIDLG,( long)1);

  000d0	8b 4e 04	 mov	 ecx, DWORD PTR [esi+4]
  000d3	5e		 pop	 esi
  000d4	8b 01		 mov	 eax, DWORD PTR [ecx]
  000d6	c7 45 0c 01 00
	00 00		 mov	 DWORD PTR _p_nCmdOption$[ebp], 1
  000dd	c7 45 08 5a 00
	00 00		 mov	 DWORD PTR _p_nToolType$[ebp], 90 ; 0000005aH

; 246  : 	}
; 247  : }

  000e4	5d		 pop	 ebp

; 231  : 			m_pIChartOCX->OnToolStateChanged(CToolOptionInfo::T_CROSSHAIRS_TOOL_WITH_NIDLG,( long)1);

  000e5	ff a0 ac 01 00
	00		 jmp	 DWORD PTR [eax+428]
$LN7@OnToolComm:

; 232  : 		return;
; 233  : 	}
; 234  : 	
; 235  : 	// 0. Check New Tool State
; 236  : 	if( CToolOptionInfo::T_CROSSHAIRS_TOOL == p_nToolType || 

  000eb	83 f8 59	 cmp	 eax, 89			; 00000059H
  000ee	74 05		 je	 SHORT $LN11@OnToolComm
  000f0	83 f8 5a	 cmp	 eax, 90			; 0000005aH
  000f3	75 36		 jne	 SHORT $LN3@OnToolComm
$LN11@OnToolComm:
  000f5	57		 push	 edi

; 237  : 		CToolOptionInfo::T_CROSSHAIRS_TOOL_WITH_NIDLG == p_nToolType)
; 238  : 			m_bCrossBtnExecuted = p_nCmdOption;

  000f6	8b 7d 0c	 mov	 edi, DWORD PTR _p_nCmdOption$[ebp]
  000f9	89 be a4 00 00
	00		 mov	 DWORD PTR [esi+164], edi

; 239  : 	
; 240  : 	if( CToolOptionInfo::T_CROSSHAIRS_TOOL_WITH_NIDLG == p_nToolType)

  000ff	83 f8 5a	 cmp	 eax, 90			; 0000005aH
  00102	75 26		 jne	 SHORT $LN14@OnToolComm

; 241  : 	{
; 242  : 		m_bWithNIDlgOnToolExec = TRUE;
; 243  : 		m_pIAddInToolMgr->OnAddInToolCommand( EAI_NIDLG_DRAG_SHOWHIDE, p_nCmdOption);

  00104	8b 4e 28	 mov	 ecx, DWORD PTR [esi+40]
  00107	c7 86 ac 00 00
	00 01 00 00 00	 mov	 DWORD PTR [esi+172], 1
  00111	57		 push	 edi
  00112	6a 23		 push	 35			; 00000023H
  00114	8b 01		 mov	 eax, DWORD PTR [ecx]
  00116	ff 90 98 00 00
	00		 call	 DWORD PTR [eax+152]

; 244  : 		// (2006/6/28 - Seung-Won, Bae) Notify from CrossLine Object Tool to Over-Cross for avoiding the Multiple Cross Active.
; 245  : 		m_pIAddInToolMgr->OnAddInToolCommand( EAI_CROSSHAIRS_OVER_CROSSHAIRS_TOOL_ACTIVATED, p_nCmdOption);

  0011c	8b 4e 28	 mov	 ecx, DWORD PTR [esi+40]
  0011f	57		 push	 edi
  00120	6a 28		 push	 40			; 00000028H
  00122	8b 01		 mov	 eax, DWORD PTR [ecx]
  00124	ff 90 98 00 00
	00		 call	 DWORD PTR [eax+152]
$LN14@OnToolComm:
  0012a	5f		 pop	 edi
$LN3@OnToolComm:
  0012b	5e		 pop	 esi

; 246  : 	}
; 247  : }

  0012c	5d		 pop	 ebp
  0012d	c2 08 00	 ret	 8
?OnToolCommand@CCrosshairsDragAddInImp@@MAEXHH@Z ENDP	; CCrosshairsDragAddInImp::OnToolCommand
_TEXT	ENDS
; Function compile flags: /Ogtp
; File D:\git\src\IBK\IBK_DRFN\ProjSrc\SrcChartEx\ChartAddIn\ChartAnalysisToolAddIn\ChartAnalysisToolAddIn\CrosshairsDragAddInImp.cpp
; File C:\Program Files (x86)\Microsoft Visual Studio\2019\Community\VC\Tools\MSVC\14.29.30133\atlmfc\include\afxcoll.inl
; File D:\git\src\IBK\IBK_DRFN\ProjSrc\SrcChartEx\ChartAddIn\ChartAnalysisToolAddIn\ChartAnalysisToolAddIn\CrosshairsDragAddInImp.cpp
; File C:\Program Files (x86)\Microsoft Visual Studio\2019\Community\VC\Tools\MSVC\14.29.30133\atlmfc\include\afxcoll.inl
; File D:\git\src\IBK\IBK_DRFN\ProjSrc\SrcChartEx\ChartAddIn\ChartAnalysisToolAddIn\ChartAnalysisToolAddIn\CrosshairsDragAddInImp.cpp
; File C:\Program Files (x86)\Microsoft Visual Studio\2019\Community\VC\Tools\MSVC\14.29.30133\atlmfc\include\atlsimpstr.h
; File D:\git\src\IBK\IBK_DRFN\ProjSrc\SrcChartEx\ChartAddIn\ChartAnalysisToolAddIn\ChartAnalysisToolAddIn\CrosshairsDragAddInImp.cpp
; File C:\Program Files (x86)\Microsoft Visual Studio\2019\Community\VC\Tools\MSVC\14.29.30133\atlmfc\include\atlsimpstr.h
; File D:\git\src\IBK\IBK_DRFN\ProjSrc\SrcChartEx\ChartAddIn\ChartAnalysisToolAddIn\ChartAnalysisToolAddIn\CrosshairsDragAddInImp.cpp
;	COMDAT ?DrawCursor@CCrosshairsDragAddInImp@@MAE?AUtagRECT@@PAUHDC__@@@Z
_TEXT	SEGMENT
_this$1$ = -48						; size = 4
_strItemData$2 = -44					; size = 4
_strTempData$3 = -40					; size = 4
_nStartIndex$4 = -36					; size = 4
_nEndIndex$5 = -32					; size = 4
_strXData$1$ = -28					; size = 4
_ptPoint$2$ = -24					; size = 4
_ptPoint$1$ = -20					; size = 4
_posRow$1$ = -20					; size = 4
__$ArrayPad$ = -16					; size = 4
__$EHRec$ = -12						; size = 12
___$ReturnUdt$ = 8					; size = 4
_p_hDC$ = 12						; size = 4
?DrawCursor@CCrosshairsDragAddInImp@@MAE?AUtagRECT@@PAUHDC__@@@Z PROC ; CCrosshairsDragAddInImp::DrawCursor, COMDAT
; _this$ = ecx

; 108  : { 

  00000	55		 push	 ebp
  00001	8b ec		 mov	 ebp, esp
  00003	6a ff		 push	 -1
  00005	68 00 00 00 00	 push	 __ehhandler$?DrawCursor@CCrosshairsDragAddInImp@@MAE?AUtagRECT@@PAUHDC__@@@Z
  0000a	64 a1 00 00 00
	00		 mov	 eax, DWORD PTR fs:0
  00010	50		 push	 eax
  00011	83 ec 24	 sub	 esp, 36			; 00000024H
  00014	a1 00 00 00 00	 mov	 eax, DWORD PTR ___security_cookie
  00019	33 c5		 xor	 eax, ebp
  0001b	89 45 f0	 mov	 DWORD PTR __$ArrayPad$[ebp], eax
  0001e	56		 push	 esi
  0001f	57		 push	 edi
  00020	50		 push	 eax
  00021	8d 45 f4	 lea	 eax, DWORD PTR __$EHRec$[ebp]
  00024	64 a3 00 00 00
	00		 mov	 DWORD PTR fs:0, eax
  0002a	8b f1		 mov	 esi, ecx
  0002c	89 75 d0	 mov	 DWORD PTR _this$1$[ebp], esi

; 109  : 	RECT rct = { 0, 0, 0, 0};
; 110  : 	if( m_bOnSetCaprture == TRUE && m_bLButtonDown == TRUE && 
; 111  : 		m_bCrossBtnExecuted == FALSE && m_bCrossCfgExecuted != FALSE)

  0002f	83 be d8 00 00
	00 01		 cmp	 DWORD PTR [esi+216], 1
  00036	0f 57 c0	 xorps	 xmm0, xmm0
  00039	0f 85 7f 01 00
	00		 jne	 $LN3@DrawCursor
  0003f	83 be d4 00 00
	00 01		 cmp	 DWORD PTR [esi+212], 1
  00046	0f 85 72 01 00
	00		 jne	 $LN3@DrawCursor
  0004c	83 be a4 00 00
	00 00		 cmp	 DWORD PTR [esi+164], 0
  00053	0f 85 65 01 00
	00		 jne	 $LN3@DrawCursor
  00059	83 be a8 00 00
	00 00		 cmp	 DWORD PTR [esi+168], 0
  00060	0f 84 58 01 00
	00		 je	 $LN3@DrawCursor

; 112  : 	{		
; 113  : 		GetCurrentPosData(m_ptOldMouse);

  00066	8b 86 dc 00 00
	00		 mov	 eax, DWORD PTR [esi+220]

; 523  : 	m_strTextXDate.Empty();	

  0006c	8d be 24 01 00
	00		 lea	 edi, DWORD PTR [esi+292]

; 112  : 	{		
; 113  : 		GetCurrentPosData(m_ptOldMouse);

  00072	89 45 ec	 mov	 DWORD PTR _ptPoint$1$[ebp], eax

; 523  : 	m_strTextXDate.Empty();	

  00075	8b cf		 mov	 ecx, edi

; 112  : 	{		
; 113  : 		GetCurrentPosData(m_ptOldMouse);

  00077	8b 86 e0 00 00
	00		 mov	 eax, DWORD PTR [esi+224]
  0007d	89 45 e8	 mov	 DWORD PTR _ptPoint$2$[ebp], eax

; 523  : 	m_strTextXDate.Empty();	

  00080	89 7d e4	 mov	 DWORD PTR _strXData$1$[ebp], edi
  00083	ff 15 00 00 00
	00		 call	 DWORD PTR __imp_?Empty@?$CSimpleStringT@D$00@ATL@@QAEXXZ

; 524  : 	m_strTextYValue.Empty();	

  00089	8d 8e 28 01 00
	00		 lea	 ecx, DWORD PTR [esi+296]
  0008f	ff 15 00 00 00
	00		 call	 DWORD PTR __imp_?Empty@?$CSimpleStringT@D$00@ATL@@QAEXXZ

; 525  : 
; 526  : 	int nStartIndex = 0;
; 527  : 	int nEndIndex = 0;
; 528  : 	// 1.    Data Start/End Index .
; 529  : 
; 530  : 	// XScale :  /   - vntsorl(20070327)
; 531  : //	if( !m_pIChartOCX->GetViewStartEndIndex( nStartIndex, nEndIndex ))
; 532  : 	if( !m_pIChartManager->GetStartEndDrawIdx_Cur("DEFAULT", nStartIndex, nEndIndex))

  00095	8b 4e 20	 mov	 ecx, DWORD PTR [esi+32]
  00098	8d 55 e0	 lea	 edx, DWORD PTR _nEndIndex$5[ebp]
  0009b	52		 push	 edx
  0009c	c7 45 dc 00 00
	00 00		 mov	 DWORD PTR _nStartIndex$4[ebp], 0
  000a3	8d 55 dc	 lea	 edx, DWORD PTR _nStartIndex$4[ebp]
  000a6	c7 45 e0 00 00
	00 00		 mov	 DWORD PTR _nEndIndex$5[ebp], 0
  000ad	8b 01		 mov	 eax, DWORD PTR [ecx]
  000af	52		 push	 edx
  000b0	68 00 00 00 00	 push	 OFFSET ??_C@_07MGCPDNLD@DEFAULT@
  000b5	8b 80 e0 00 00
	00		 mov	 eax, DWORD PTR [eax+224]
  000bb	ff d0		 call	 eax
  000bd	85 c0		 test	 eax, eax
  000bf	0f 84 ce 00 00
	00		 je	 $LN10@DrawCursor

; 533  : 		return FALSE;
; 534  : 
; 535  : 	m_pAnalysisTool->GetCurrentPosData(ptPoint,m_strTextYValue,m_strTextXDate);

  000c5	8b 8e 94 00 00
	00		 mov	 ecx, DWORD PTR [esi+148]
  000cb	8d 86 28 01 00
	00		 lea	 eax, DWORD PTR [esi+296]
  000d1	57		 push	 edi
  000d2	50		 push	 eax
  000d3	ff 75 e8	 push	 DWORD PTR _ptPoint$2$[ebp]
  000d6	ff 75 ec	 push	 DWORD PTR _ptPoint$1$[ebp]
  000d9	ff 15 00 00 00
	00		 call	 DWORD PTR __imp_?GetCurrentPosData@CMainAnalysisTool@@QAEHVCPoint@@AAV?$CStringT@DV?$StrTraitMFC_DLL@DV?$ChTraitsCRT@D@ATL@@@@@ATL@@1@Z

; 536  : 
; 537  : 	//20100219  >>	
; 538  : 	if( m_niDataQueryer.ParsingInquiryData("", ptPoint))

  000df	6a 01		 push	 1
  000e1	6a 00		 push	 0
  000e3	6a 00		 push	 0
  000e5	ff 75 e8	 push	 DWORD PTR _ptPoint$2$[ebp]
  000e8	ff 75 ec	 push	 DWORD PTR _ptPoint$1$[ebp]
  000eb	51		 push	 ecx
  000ec	8b cc		 mov	 ecx, esp
  000ee	68 00 00 00 00	 push	 OFFSET ??_C@_00CNPNBAHC@@
  000f3	ff 15 00 00 00
	00		 call	 DWORD PTR __imp_??0?$CStringT@DV?$StrTraitMFC_DLL@DV?$ChTraitsCRT@D@ATL@@@@@ATL@@QAE@PBD@Z
  000f9	8d 4e 38	 lea	 ecx, DWORD PTR [esi+56]
  000fc	e8 00 00 00 00	 call	 ?ParsingInquiryData@CNumericalInquiryDataQueryer@@QAEHV?$CStringT@DV?$StrTraitMFC_DLL@DV?$ChTraitsCRT@D@ATL@@@@@ATL@@VCPoint@@_NHH@Z ; CNumericalInquiryDataQueryer::ParsingInquiryData
  00101	85 c0		 test	 eax, eax
  00103	0f 84 8a 00 00
	00		 je	 $LN10@DrawCursor
; File C:\Program Files (x86)\Microsoft Visual Studio\2019\Community\VC\Tools\MSVC\14.29.30133\atlmfc\include\afxcoll.inl

; 410  : 	{ return m_nCount == 0; }

  00109	83 7e 74 00	 cmp	 DWORD PTR [esi+116], 0
; File D:\git\src\IBK\IBK_DRFN\ProjSrc\SrcChartEx\ChartAddIn\ChartAnalysisToolAddIn\ChartAnalysisToolAddIn\CrosshairsDragAddInImp.cpp

; 549  : 	if( pInquiryData->IsEmpty()) return;

  0010d	0f 84 80 00 00
	00		 je	 $LN10@DrawCursor
; File C:\Program Files (x86)\Microsoft Visual Studio\2019\Community\VC\Tools\MSVC\14.29.30133\atlmfc\include\afxcoll.inl

; 410  : 	{ return m_nCount == 0; }

  00113	83 7e 58 00	 cmp	 DWORD PTR [esi+88], 0
; File D:\git\src\IBK\IBK_DRFN\ProjSrc\SrcChartEx\ChartAddIn\ChartAnalysisToolAddIn\ChartAnalysisToolAddIn\CrosshairsDragAddInImp.cpp

; 550  : 	if( pInquiryPrevData->IsEmpty()) return;

  00117	74 7a		 je	 SHORT $LN10@DrawCursor

; 551  : 
; 552  : 	// _LISTDATA  .    ! (Multi Line  For!)
; 553  : 	CInquiryItem * plistData	= pInquiryData->GetHead();	

  00119	8b 46 6c	 mov	 eax, DWORD PTR [esi+108]

; 554  : 	CInquiryItem* plistPrevData = pInquiryPrevData->GetHead();	
; 555  : 	
; 556  : 	//  ListCtrl .
; 557  : 	LV_ITEM ltc;
; 558  : 	ltc.mask = LVIF_TEXT;
; 559  : 	
; 560  : 	// (2006/7/2 - Seung-Won, Bae) Using Virtual Draw. 0:Title, 1:Data
; 561  : 	int nIndex = 0;
; 562  : 	CRowData *pRowData = NULL;
; 563  : 	CRowData *pRowPrevData = NULL;
; 564  : 	CString strItemData;

  0011c	8d 4d d4	 lea	 ecx, DWORD PTR _strItemData$2[ebp]
  0011f	8b 78 08	 mov	 edi, DWORD PTR [eax+8]
  00122	8b 46 50	 mov	 eax, DWORD PTR [esi+80]
  00125	8b 70 08	 mov	 esi, DWORD PTR [eax+8]
  00128	ff 15 00 00 00
	00		 call	 DWORD PTR __imp_??0?$CStringT@DV?$StrTraitMFC_DLL@DV?$ChTraitsCRT@D@ATL@@@@@ATL@@QAE@XZ

; 565  : 	double dItemData = 0.0;
; 566  : 	double dPrevItemData = 0.0;
; 567  : 	double dItemRatio = 0.0;
; 568  : 	CString strTempData;

  0012e	8d 4d d8	 lea	 ecx, DWORD PTR _strTempData$3[ebp]
  00131	c7 45 fc 00 00
	00 00		 mov	 DWORD PTR __$EHRec$[ebp+8], 0
  00138	ff 15 00 00 00
	00		 call	 DWORD PTR __imp_??0?$CStringT@DV?$StrTraitMFC_DLL@DV?$ChTraitsCRT@D@ATL@@@@@ATL@@QAE@XZ

; 569  : 	POSITION posRow = plistData->GetHeadPosition();

  0013e	8b 47 04	 mov	 eax, DWORD PTR [edi+4]

; 570  : 	POSITION posPrevRow = plistPrevData->GetHeadPosition();

  00141	8b 4e 04	 mov	 ecx, DWORD PTR [esi+4]

; 571  : 	if( posPrevRow)

  00144	8b 7d e4	 mov	 edi, DWORD PTR _strXData$1$[ebp]
  00147	c6 45 fc 01	 mov	 BYTE PTR __$EHRec$[ebp+8], 1
  0014b	89 45 ec	 mov	 DWORD PTR _posRow$1$[ebp], eax
  0014e	85 c9		 test	 ecx, ecx
  00150	74 12		 je	 SHORT $LN13@DrawCursor

; 572  : 	{
; 573  : 		pRowPrevData= plistPrevData->GetAt( posPrevRow);

  00152	8b 41 08	 mov	 eax, DWORD PTR [ecx+8]

; 574  : 		strXData	= pRowPrevData->m_strData;

  00155	8b cf		 mov	 ecx, edi
  00157	83 c0 08	 add	 eax, 8
  0015a	50		 push	 eax
  0015b	ff 15 00 00 00
	00		 call	 DWORD PTR __imp_??4?$CStringT@DV?$StrTraitMFC_DLL@DV?$ChTraitsCRT@D@ATL@@@@@ATL@@QAEAAV01@ABV01@@Z
  00161	8b 45 ec	 mov	 eax, DWORD PTR _posRow$1$[ebp]
$LN13@DrawCursor:

; 575  : 	}
; 576  : 
; 577  : 	if( posRow )

  00164	85 c0		 test	 eax, eax
  00166	74 0f		 je	 SHORT $LN14@DrawCursor

; 578  : 	{
; 579  : 		pRowData = plistData->GetAt(posRow);

  00168	8b 40 08	 mov	 eax, DWORD PTR [eax+8]

; 580  : 		strXData = pRowData->m_strData;

  0016b	8b cf		 mov	 ecx, edi
  0016d	83 c0 08	 add	 eax, 8
  00170	50		 push	 eax
  00171	ff 15 00 00 00
	00		 call	 DWORD PTR __imp_??4?$CStringT@DV?$StrTraitMFC_DLL@DV?$ChTraitsCRT@D@ATL@@@@@ATL@@QAEAAV01@ABV01@@Z
$LN14@DrawCursor:

; 581  : 	}
; 582  : }

  00177	8d 4d d8	 lea	 ecx, DWORD PTR _strTempData$3[ebp]
  0017a	ff 15 00 00 00
	00		 call	 DWORD PTR __imp_??1?$CStringT@DV?$StrTraitMFC_DLL@DV?$ChTraitsCRT@D@ATL@@@@@ATL@@QAE@XZ
  00180	8d 4d d4	 lea	 ecx, DWORD PTR _strItemData$2[ebp]
  00183	c7 45 fc ff ff
	ff ff		 mov	 DWORD PTR __$EHRec$[ebp+8], -1
  0018a	ff 15 00 00 00
	00		 call	 DWORD PTR __imp_??1?$CStringT@DV?$StrTraitMFC_DLL@DV?$ChTraitsCRT@D@ATL@@@@@ATL@@QAE@XZ
  00190	8b 75 d0	 mov	 esi, DWORD PTR _this$1$[ebp]
$LN10@DrawCursor:
; File C:\Program Files (x86)\Microsoft Visual Studio\2019\Community\VC\Tools\MSVC\14.29.30133\atlmfc\include\atlsimpstr.h

; 533  : 		return( GetLength() == 0 );

  00193	8b 07		 mov	 eax, DWORD PTR [edi]
  00195	83 78 f4 00	 cmp	 DWORD PTR [eax-12], 0
; File D:\git\src\IBK\IBK_DRFN\ProjSrc\SrcChartEx\ChartAddIn\ChartAnalysisToolAddIn\ChartAnalysisToolAddIn\CrosshairsDragAddInImp.cpp

; 114  : 		if(m_strTextXDate.IsEmpty() == FALSE && m_strTextYValue.IsEmpty() == FALSE)

  00199	74 20		 je	 SHORT $LN58@DrawCursor
; File C:\Program Files (x86)\Microsoft Visual Studio\2019\Community\VC\Tools\MSVC\14.29.30133\atlmfc\include\atlsimpstr.h

; 533  : 		return( GetLength() == 0 );

  0019b	8b 86 28 01 00
	00		 mov	 eax, DWORD PTR [esi+296]
  001a1	83 78 f4 00	 cmp	 DWORD PTR [eax-12], 0
; File D:\git\src\IBK\IBK_DRFN\ProjSrc\SrcChartEx\ChartAddIn\ChartAnalysisToolAddIn\ChartAnalysisToolAddIn\CrosshairsDragAddInImp.cpp

; 114  : 		if(m_strTextXDate.IsEmpty() == FALSE && m_strTextYValue.IsEmpty() == FALSE)

  001a5	74 14		 je	 SHORT $LN58@DrawCursor

; 115  : 		{
; 116  : 			DrawNewCross(p_hDC);

  001a7	ff 75 0c	 push	 DWORD PTR _p_hDC$[ebp]
  001aa	8d 4e f8	 lea	 ecx, DWORD PTR [esi-8]
  001ad	e8 00 00 00 00	 call	 ?DrawNewCross@CCrosshairsDragAddInImp@@IAEXPAUHDC__@@@Z ; CCrosshairsDragAddInImp::DrawNewCross

; 117  : 			return m_rctBlockRegion;

  001b2	0f 10 86 b4 00
	00 00		 movups	 xmm0, XMMWORD PTR [esi+180]
  001b9	eb 03		 jmp	 SHORT $LN3@DrawCursor
$LN58@DrawCursor:

; 118  : 		}
; 119  : 	}
; 120  : 
; 121  : 	return rct;	
; 122  : }

  001bb	0f 57 c0	 xorps	 xmm0, xmm0
$LN3@DrawCursor:
  001be	8b 45 08	 mov	 eax, DWORD PTR ___$ReturnUdt$[ebp]
  001c1	0f 11 00	 movups	 XMMWORD PTR [eax], xmm0
  001c4	8b 4d f4	 mov	 ecx, DWORD PTR __$EHRec$[ebp]
  001c7	64 89 0d 00 00
	00 00		 mov	 DWORD PTR fs:0, ecx
  001ce	59		 pop	 ecx
  001cf	5f		 pop	 edi
  001d0	5e		 pop	 esi
  001d1	8b 4d f0	 mov	 ecx, DWORD PTR __$ArrayPad$[ebp]
  001d4	33 cd		 xor	 ecx, ebp
  001d6	e8 00 00 00 00	 call	 @__security_check_cookie@4
  001db	8b e5		 mov	 esp, ebp
  001dd	5d		 pop	 ebp
  001de	c2 08 00	 ret	 8
_TEXT	ENDS
;	COMDAT text$x
text$x	SEGMENT
__unwindfunclet$?DrawCursor@CCrosshairsDragAddInImp@@MAE?AUtagRECT@@PAUHDC__@@@Z$1:
  00000	8d 4d d4	 lea	 ecx, DWORD PTR _strItemData$2[ebp]
  00003	ff 25 00 00 00
	00		 jmp	 DWORD PTR __imp_??1?$CStringT@DV?$StrTraitMFC_DLL@DV?$ChTraitsCRT@D@ATL@@@@@ATL@@QAE@XZ
__unwindfunclet$?DrawCursor@CCrosshairsDragAddInImp@@MAE?AUtagRECT@@PAUHDC__@@@Z$2:
  00009	8d 4d d8	 lea	 ecx, DWORD PTR _strTempData$3[ebp]
  0000c	ff 25 00 00 00
	00		 jmp	 DWORD PTR __imp_??1?$CStringT@DV?$StrTraitMFC_DLL@DV?$ChTraitsCRT@D@ATL@@@@@ATL@@QAE@XZ
  00012	cc		 int	 3
  00013	cc		 int	 3
  00014	cc		 int	 3
  00015	cc		 int	 3
  00016	cc		 int	 3
__ehhandler$?DrawCursor@CCrosshairsDragAddInImp@@MAE?AUtagRECT@@PAUHDC__@@@Z:
  00017	90		 npad	 1
  00018	90		 npad	 1
  00019	8b 54 24 08	 mov	 edx, DWORD PTR [esp+8]
  0001d	8d 42 0c	 lea	 eax, DWORD PTR [edx+12]
  00020	8b 4a d0	 mov	 ecx, DWORD PTR [edx-48]
  00023	33 c8		 xor	 ecx, eax
  00025	e8 00 00 00 00	 call	 @__security_check_cookie@4
  0002a	8b 4a fc	 mov	 ecx, DWORD PTR [edx-4]
  0002d	33 c8		 xor	 ecx, eax
  0002f	e8 00 00 00 00	 call	 @__security_check_cookie@4
  00034	b8 00 00 00 00	 mov	 eax, OFFSET __ehfuncinfo$?DrawCursor@CCrosshairsDragAddInImp@@MAE?AUtagRECT@@PAUHDC__@@@Z
  00039	e9 00 00 00 00	 jmp	 ___CxxFrameHandler3
text$x	ENDS
?DrawCursor@CCrosshairsDragAddInImp@@MAE?AUtagRECT@@PAUHDC__@@@Z ENDP ; CCrosshairsDragAddInImp::DrawCursor
; Function compile flags: /Ogtp
; File D:\git\src\IBK\IBK_DRFN\ProjSrc\SrcChartEx\ChartAddIn\ChartAnalysisToolAddIn\ChartAnalysisToolAddIn\CrosshairsDragAddInImp.cpp
;	COMDAT ?OnResetChart@CCrosshairsDragAddInImp@@MAEXXZ
_TEXT	SEGMENT
?OnResetChart@CCrosshairsDragAddInImp@@MAEXXZ PROC	; CCrosshairsDragAddInImp::OnResetChart, COMDAT
; _this$ = ecx

; 125  : {

  00000	56		 push	 esi
  00001	8b f1		 mov	 esi, ecx

; 126  : 	if( !m_pAnalysisTool) return;

  00003	83 be 94 00 00
	00 00		 cmp	 DWORD PTR [esi+148], 0
  0000a	74 28		 je	 SHORT $LN1@OnResetCha

; 127  : 
; 128  : 	m_bLButtonDown = FALSE;
; 129  : 	//m_bCrossBtnExecuted = FALSE;
; 130  : 	//m_bCrossCfgExecuted	= FALSE;
; 131  : 
; 132  : 	m_pIChartOCX->OnToolStateChanged(CToolOptionInfo::T_CROSSHAIRS_TOOL,FALSE);

  0000c	8b 4e 04	 mov	 ecx, DWORD PTR [esi+4]
  0000f	c7 86 d4 00 00
	00 00 00 00 00	 mov	 DWORD PTR [esi+212], 0
  00019	6a 00		 push	 0
  0001b	6a 59		 push	 89			; 00000059H
  0001d	8b 01		 mov	 eax, DWORD PTR [ecx]
  0001f	ff 90 ac 01 00
	00		 call	 DWORD PTR [eax+428]

; 133  : 	m_pIChartOCX->OnToolStateChanged(CToolOptionInfo::T_CROSSHAIRS_TOOL_WITH_NIDLG,FALSE);

  00025	8b 4e 04	 mov	 ecx, DWORD PTR [esi+4]
  00028	6a 00		 push	 0
  0002a	6a 5a		 push	 90			; 0000005aH
  0002c	8b 01		 mov	 eax, DWORD PTR [ecx]
  0002e	ff 90 ac 01 00
	00		 call	 DWORD PTR [eax+428]
$LN1@OnResetCha:

; 134  : 	
; 135  : 	/*if( m_bWithNIDlgOnToolExec == TRUE) 
; 136  : 	{
; 137  : 		m_bWithNIDlgOnToolExec = FALSE;		
; 138  : 		m_pIAddInToolMgr->OnAddInToolCommand( EAI_NIDLG_DRAG_SHOWHIDE, ( long)0);
; 139  : 	}*/
; 140  : }

  00034	5e		 pop	 esi
  00035	c3		 ret	 0
?OnResetChart@CCrosshairsDragAddInImp@@MAEXXZ ENDP	; CCrosshairsDragAddInImp::OnResetChart
_TEXT	ENDS
; Function compile flags: /Ogtp
; File D:\git\src\IBK\IBK_DRFN\ProjSrc\SrcChartEx\ChartAddIn\ChartAnalysisToolAddIn\ChartAnalysisToolAddIn\CrosshairsDragAddInImp.cpp
; File C:\Program Files (x86)\Microsoft Visual Studio\2019\Community\VC\Tools\MSVC\14.29.30133\atlmfc\include\atltypes.h
; File D:\git\src\IBK\IBK_DRFN\ProjSrc\SrcChartEx\ChartAddIn\ChartAnalysisToolAddIn\ChartAnalysisToolAddIn\CrosshairsDragAddInImp.cpp
;	COMDAT ?OnDrawAfterGraph@CCrosshairsDragAddInImp@@MAEXPAUHDC__@@@Z
_TEXT	SEGMENT
_p_hDC$ = 8						; size = 4
?OnDrawAfterGraph@CCrosshairsDragAddInImp@@MAEXPAUHDC__@@@Z PROC ; CCrosshairsDragAddInImp::OnDrawAfterGraph, COMDAT
; _this$ = ecx

; 101  : {

  00000	55		 push	 ebp
  00001	8b ec		 mov	 ebp, esp
  00003	56		 push	 esi
  00004	8b f1		 mov	 esi, ecx
; File C:\Program Files (x86)\Microsoft Visual Studio\2019\Community\VC\Tools\MSVC\14.29.30133\atlmfc\include\atltypes.h

; 463  : 	return (x != point.x || y != point.y);

  00006	83 be 98 00 00
	00 ff		 cmp	 DWORD PTR [esi+152], -1
  0000d	75 09		 jne	 SHORT $LN8@OnDrawAfte
  0000f	83 be 9c 00 00
	00 ff		 cmp	 DWORD PTR [esi+156], -1
  00016	74 20		 je	 SHORT $LN2@OnDrawAfte
$LN8@OnDrawAfte:
; File D:\git\src\IBK\IBK_DRFN\ProjSrc\SrcChartEx\ChartAddIn\ChartAnalysisToolAddIn\ChartAnalysisToolAddIn\CrosshairsDragAddInImp.cpp

; 103  : 	if( m_ptStartDragDrop != CPoint(-1, -1) && m_pAnalysisTool) 

  00018	83 be 94 00 00
	00 00		 cmp	 DWORD PTR [esi+148], 0
  0001f	74 17		 je	 SHORT $LN2@OnDrawAfte

; 104  : 		m_pAnalysisTool->OnDraw( CDC::FromHandle( p_hDC), TRUE);	

  00021	6a 01		 push	 1
  00023	ff 75 08	 push	 DWORD PTR _p_hDC$[ebp]
  00026	e8 00 00 00 00	 call	 ?FromHandle@CDC@@SGPAV1@PAUHDC__@@@Z ; CDC::FromHandle
  0002b	8b 8e 94 00 00
	00		 mov	 ecx, DWORD PTR [esi+148]
  00031	50		 push	 eax
  00032	ff 15 00 00 00
	00		 call	 DWORD PTR __imp_?OnDraw@CMainAnalysisTool@@QAEXPAVCDC@@H@Z
$LN2@OnDrawAfte:
  00038	5e		 pop	 esi

; 105  : }

  00039	5d		 pop	 ebp
  0003a	c2 04 00	 ret	 4
?OnDrawAfterGraph@CCrosshairsDragAddInImp@@MAEXPAUHDC__@@@Z ENDP ; CCrosshairsDragAddInImp::OnDrawAfterGraph
_TEXT	ENDS
; Function compile flags: /Ogtp
; File D:\git\src\IBK\IBK_DRFN\ProjSrc\SrcChartEx\ChartAddIn\ChartAnalysisToolAddIn\ChartAnalysisToolAddIn\CrosshairsDragAddInImp.cpp
; File C:\Program Files (x86)\Microsoft Visual Studio\2019\Community\VC\Tools\MSVC\14.29.30133\atlmfc\include\afxcoll.inl
; File D:\git\src\IBK\IBK_DRFN\ProjSrc\SrcChartEx\ChartAddIn\ChartAnalysisToolAddIn\ChartAnalysisToolAddIn\CrosshairsDragAddInImp.cpp
; File C:\Program Files (x86)\Microsoft Visual Studio\2019\Community\VC\Tools\MSVC\14.29.30133\atlmfc\include\afxcoll.inl
; File D:\git\src\IBK\IBK_DRFN\ProjSrc\SrcChartEx\ChartAddIn\ChartAnalysisToolAddIn\ChartAnalysisToolAddIn\CrosshairsDragAddInImp.cpp
;	COMDAT ?SetInquiryXData@CCrosshairsDragAddInImp@@IAEXAAV?$CStringT@DV?$StrTraitMFC_DLL@DV?$ChTraitsCRT@D@ATL@@@@@ATL@@PAVCInquiryData@@1@Z
_TEXT	SEGMENT
__$EHRec$ = -12						; size = 12
_strXData$ = 8						; size = 4
_strTempData$ = 12					; size = 4
_pInquiryData$ = 12					; size = 4
_strItemData$ = 16					; size = 4
_pInquiryPrevData$ = 16					; size = 4
?SetInquiryXData@CCrosshairsDragAddInImp@@IAEXAAV?$CStringT@DV?$StrTraitMFC_DLL@DV?$ChTraitsCRT@D@ATL@@@@@ATL@@PAVCInquiryData@@1@Z PROC ; CCrosshairsDragAddInImp::SetInquiryXData, COMDAT
; _this$ = ecx

; 548  : {

  00000	55		 push	 ebp
  00001	8b ec		 mov	 ebp, esp
  00003	6a ff		 push	 -1
  00005	68 00 00 00 00	 push	 __ehhandler$?SetInquiryXData@CCrosshairsDragAddInImp@@IAEXAAV?$CStringT@DV?$StrTraitMFC_DLL@DV?$ChTraitsCRT@D@ATL@@@@@ATL@@PAVCInquiryData@@1@Z
  0000a	64 a1 00 00 00
	00		 mov	 eax, DWORD PTR fs:0
  00010	50		 push	 eax
  00011	56		 push	 esi
  00012	57		 push	 edi
  00013	a1 00 00 00 00	 mov	 eax, DWORD PTR ___security_cookie
  00018	33 c5		 xor	 eax, ebp
  0001a	50		 push	 eax
  0001b	8d 45 f4	 lea	 eax, DWORD PTR __$EHRec$[ebp]
  0001e	64 a3 00 00 00
	00		 mov	 DWORD PTR fs:0, eax
; File C:\Program Files (x86)\Microsoft Visual Studio\2019\Community\VC\Tools\MSVC\14.29.30133\atlmfc\include\afxcoll.inl

; 410  : 	{ return m_nCount == 0; }

  00024	8b 45 0c	 mov	 eax, DWORD PTR _pInquiryData$[ebp]
  00027	83 78 0c 00	 cmp	 DWORD PTR [eax+12], 0
; File D:\git\src\IBK\IBK_DRFN\ProjSrc\SrcChartEx\ChartAddIn\ChartAnalysisToolAddIn\ChartAnalysisToolAddIn\CrosshairsDragAddInImp.cpp

; 549  : 	if( pInquiryData->IsEmpty()) return;

  0002b	74 73		 je	 SHORT $LN1@SetInquiry
; File C:\Program Files (x86)\Microsoft Visual Studio\2019\Community\VC\Tools\MSVC\14.29.30133\atlmfc\include\afxcoll.inl

; 410  : 	{ return m_nCount == 0; }

  0002d	8b 4d 10	 mov	 ecx, DWORD PTR _pInquiryPrevData$[ebp]
  00030	83 79 0c 00	 cmp	 DWORD PTR [ecx+12], 0
; File D:\git\src\IBK\IBK_DRFN\ProjSrc\SrcChartEx\ChartAddIn\ChartAnalysisToolAddIn\ChartAnalysisToolAddIn\CrosshairsDragAddInImp.cpp

; 550  : 	if( pInquiryPrevData->IsEmpty()) return;

  00034	74 6a		 je	 SHORT $LN1@SetInquiry

; 551  : 
; 552  : 	// _LISTDATA  .    ! (Multi Line  For!)
; 553  : 	CInquiryItem * plistData	= pInquiryData->GetHead();	

  00036	8b 40 04	 mov	 eax, DWORD PTR [eax+4]
  00039	8b 78 08	 mov	 edi, DWORD PTR [eax+8]

; 554  : 	CInquiryItem* plistPrevData = pInquiryPrevData->GetHead();	

  0003c	8b 41 04	 mov	 eax, DWORD PTR [ecx+4]

; 555  : 	
; 556  : 	//  ListCtrl .
; 557  : 	LV_ITEM ltc;
; 558  : 	ltc.mask = LVIF_TEXT;
; 559  : 	
; 560  : 	// (2006/7/2 - Seung-Won, Bae) Using Virtual Draw. 0:Title, 1:Data
; 561  : 	int nIndex = 0;
; 562  : 	CRowData *pRowData = NULL;
; 563  : 	CRowData *pRowPrevData = NULL;
; 564  : 	CString strItemData;

  0003f	8d 4d 10	 lea	 ecx, DWORD PTR _strItemData$[ebp]
  00042	8b 70 08	 mov	 esi, DWORD PTR [eax+8]
  00045	ff 15 00 00 00
	00		 call	 DWORD PTR __imp_??0?$CStringT@DV?$StrTraitMFC_DLL@DV?$ChTraitsCRT@D@ATL@@@@@ATL@@QAE@XZ

; 565  : 	double dItemData = 0.0;
; 566  : 	double dPrevItemData = 0.0;
; 567  : 	double dItemRatio = 0.0;
; 568  : 	CString strTempData;

  0004b	8d 4d 0c	 lea	 ecx, DWORD PTR _strTempData$[ebp]
  0004e	c7 45 fc 00 00
	00 00		 mov	 DWORD PTR __$EHRec$[ebp+8], 0
  00055	ff 15 00 00 00
	00		 call	 DWORD PTR __imp_??0?$CStringT@DV?$StrTraitMFC_DLL@DV?$ChTraitsCRT@D@ATL@@@@@ATL@@QAE@XZ

; 569  : 	POSITION posRow = plistData->GetHeadPosition();
; 570  : 	POSITION posPrevRow = plistPrevData->GetHeadPosition();

  0005b	8b 46 04	 mov	 eax, DWORD PTR [esi+4]
  0005e	8b 7f 04	 mov	 edi, DWORD PTR [edi+4]

; 571  : 	if( posPrevRow)

  00061	8b 75 08	 mov	 esi, DWORD PTR _strXData$[ebp]
  00064	c6 45 fc 01	 mov	 BYTE PTR __$EHRec$[ebp+8], 1
  00068	85 c0		 test	 eax, eax
  0006a	74 0f		 je	 SHORT $LN4@SetInquiry

; 572  : 	{
; 573  : 		pRowPrevData= plistPrevData->GetAt( posPrevRow);
; 574  : 		strXData	= pRowPrevData->m_strData;

  0006c	8b 40 08	 mov	 eax, DWORD PTR [eax+8]
  0006f	8b ce		 mov	 ecx, esi
  00071	83 c0 08	 add	 eax, 8
  00074	50		 push	 eax
  00075	ff 15 00 00 00
	00		 call	 DWORD PTR __imp_??4?$CStringT@DV?$StrTraitMFC_DLL@DV?$ChTraitsCRT@D@ATL@@@@@ATL@@QAEAAV01@ABV01@@Z
$LN4@SetInquiry:

; 575  : 	}
; 576  : 
; 577  : 	if( posRow )

  0007b	85 ff		 test	 edi, edi
  0007d	74 0f		 je	 SHORT $LN5@SetInquiry

; 578  : 	{
; 579  : 		pRowData = plistData->GetAt(posRow);
; 580  : 		strXData = pRowData->m_strData;

  0007f	8b 47 08	 mov	 eax, DWORD PTR [edi+8]
  00082	8b ce		 mov	 ecx, esi
  00084	83 c0 08	 add	 eax, 8
  00087	50		 push	 eax
  00088	ff 15 00 00 00
	00		 call	 DWORD PTR __imp_??4?$CStringT@DV?$StrTraitMFC_DLL@DV?$ChTraitsCRT@D@ATL@@@@@ATL@@QAEAAV01@ABV01@@Z
$LN5@SetInquiry:

; 581  : 	}
; 582  : }

  0008e	8d 4d 0c	 lea	 ecx, DWORD PTR _strTempData$[ebp]
  00091	ff 15 00 00 00
	00		 call	 DWORD PTR __imp_??1?$CStringT@DV?$StrTraitMFC_DLL@DV?$ChTraitsCRT@D@ATL@@@@@ATL@@QAE@XZ
  00097	8d 4d 10	 lea	 ecx, DWORD PTR _strItemData$[ebp]
  0009a	ff 15 00 00 00
	00		 call	 DWORD PTR __imp_??1?$CStringT@DV?$StrTraitMFC_DLL@DV?$ChTraitsCRT@D@ATL@@@@@ATL@@QAE@XZ
$LN1@SetInquiry:
  000a0	8b 4d f4	 mov	 ecx, DWORD PTR __$EHRec$[ebp]
  000a3	64 89 0d 00 00
	00 00		 mov	 DWORD PTR fs:0, ecx
  000aa	59		 pop	 ecx
  000ab	5f		 pop	 edi
  000ac	5e		 pop	 esi
  000ad	8b e5		 mov	 esp, ebp
  000af	5d		 pop	 ebp
  000b0	c2 0c 00	 ret	 12			; 0000000cH
_TEXT	ENDS
;	COMDAT text$x
text$x	SEGMENT
__unwindfunclet$?SetInquiryXData@CCrosshairsDragAddInImp@@IAEXAAV?$CStringT@DV?$StrTraitMFC_DLL@DV?$ChTraitsCRT@D@ATL@@@@@ATL@@PAVCInquiryData@@1@Z$0:
  00000	8d 4d 10	 lea	 ecx, DWORD PTR _strItemData$[ebp]
  00003	ff 25 00 00 00
	00		 jmp	 DWORD PTR __imp_??1?$CStringT@DV?$StrTraitMFC_DLL@DV?$ChTraitsCRT@D@ATL@@@@@ATL@@QAE@XZ
__unwindfunclet$?SetInquiryXData@CCrosshairsDragAddInImp@@IAEXAAV?$CStringT@DV?$StrTraitMFC_DLL@DV?$ChTraitsCRT@D@ATL@@@@@ATL@@PAVCInquiryData@@1@Z$1:
  00009	8d 4d 0c	 lea	 ecx, DWORD PTR _strTempData$[ebp]
  0000c	ff 25 00 00 00
	00		 jmp	 DWORD PTR __imp_??1?$CStringT@DV?$StrTraitMFC_DLL@DV?$ChTraitsCRT@D@ATL@@@@@ATL@@QAE@XZ
  00012	cc		 int	 3
  00013	cc		 int	 3
  00014	cc		 int	 3
  00015	cc		 int	 3
  00016	cc		 int	 3
__ehhandler$?SetInquiryXData@CCrosshairsDragAddInImp@@IAEXAAV?$CStringT@DV?$StrTraitMFC_DLL@DV?$ChTraitsCRT@D@ATL@@@@@ATL@@PAVCInquiryData@@1@Z:
  00017	90		 npad	 1
  00018	90		 npad	 1
  00019	8b 54 24 08	 mov	 edx, DWORD PTR [esp+8]
  0001d	8d 42 0c	 lea	 eax, DWORD PTR [edx+12]
  00020	8b 4a f4	 mov	 ecx, DWORD PTR [edx-12]
  00023	33 c8		 xor	 ecx, eax
  00025	e8 00 00 00 00	 call	 @__security_check_cookie@4
  0002a	b8 00 00 00 00	 mov	 eax, OFFSET __ehfuncinfo$?SetInquiryXData@CCrosshairsDragAddInImp@@IAEXAAV?$CStringT@DV?$StrTraitMFC_DLL@DV?$ChTraitsCRT@D@ATL@@@@@ATL@@PAVCInquiryData@@1@Z
  0002f	e9 00 00 00 00	 jmp	 ___CxxFrameHandler3
text$x	ENDS
?SetInquiryXData@CCrosshairsDragAddInImp@@IAEXAAV?$CStringT@DV?$StrTraitMFC_DLL@DV?$ChTraitsCRT@D@ATL@@@@@ATL@@PAVCInquiryData@@1@Z ENDP ; CCrosshairsDragAddInImp::SetInquiryXData
; Function compile flags: /Ogtp
; File D:\git\src\IBK\IBK_DRFN\ProjSrc\SrcChartEx\ChartAddIn\ChartAnalysisToolAddIn\ChartAnalysisToolAddIn\CrosshairsDragAddInImp.cpp
;	COMDAT ?ReleaseCaptureWithFlag@CCrosshairsDragAddInImp@@IAEXXZ
_TEXT	SEGMENT
?ReleaseCaptureWithFlag@CCrosshairsDragAddInImp@@IAEXXZ PROC ; CCrosshairsDragAddInImp::ReleaseCaptureWithFlag, COMDAT
; _this$ = ecx

; 348  : {

  00000	56		 push	 esi
  00001	8b f1		 mov	 esi, ecx

; 349  : 	// 1. Mouse Capturing Flag FALSE .
; 350  : 	m_bOnSetCaprture = FALSE;
; 351  : 	
; 352  : 	m_pIChartOCX->RemoveSetCapture();

  00003	8b 4e 0c	 mov	 ecx, DWORD PTR [esi+12]
  00006	c7 86 e0 00 00
	00 00 00 00 00	 mov	 DWORD PTR [esi+224], 0
  00010	8b 01		 mov	 eax, DWORD PTR [ecx]
  00012	ff 50 48	 call	 DWORD PTR [eax+72]

; 353  : 
; 354  : 	// (2006/2/6 - Seung-Won, Bae) Manage Mouse Action ID for Serial Action.
; 355  : 	if( !m_pIAddInToolMgr->ReleaseLButtonExclusive( m_pIAddInDllBase)) return;

  00015	8b 4e 30	 mov	 ecx, DWORD PTR [esi+48]
  00018	ff 76 1c	 push	 DWORD PTR [esi+28]
  0001b	8b 01		 mov	 eax, DWORD PTR [ecx]
  0001d	ff 50 38	 call	 DWORD PTR [eax+56]
  00020	85 c0		 test	 eax, eax
  00022	74 2c		 je	 SHORT $LN3@ReleaseCap

; 356  : 
; 357  : 	m_ptStartDragDrop = CPoint(-1, -1);
; 358  : 
; 359  : 	if( m_bWithNIDlgOnToolExec) 

  00024	83 be b4 00 00
	00 00		 cmp	 DWORD PTR [esi+180], 0
  0002b	c7 86 a0 00 00
	00 ff ff ff ff	 mov	 DWORD PTR [esi+160], -1
  00035	c7 86 a4 00 00
	00 ff ff ff ff	 mov	 DWORD PTR [esi+164], -1
  0003f	74 0f		 je	 SHORT $LN3@ReleaseCap

; 360  : 		m_pIAddInToolMgr->OnAddInToolCommand( EAI_NIDLG_DRAG_SHOWHIDE, ( long)0);

  00041	8b 4e 30	 mov	 ecx, DWORD PTR [esi+48]
  00044	6a 00		 push	 0
  00046	6a 23		 push	 35			; 00000023H
  00048	8b 01		 mov	 eax, DWORD PTR [ecx]
  0004a	ff 90 98 00 00
	00		 call	 DWORD PTR [eax+152]
$LN3@ReleaseCap:

; 361  : }

  00050	5e		 pop	 esi
  00051	c3		 ret	 0
?ReleaseCaptureWithFlag@CCrosshairsDragAddInImp@@IAEXXZ ENDP ; CCrosshairsDragAddInImp::ReleaseCaptureWithFlag
_TEXT	ENDS
; Function compile flags: /Ogtp
; File D:\git\src\IBK\IBK_DRFN\ProjSrc\SrcChartEx\ChartAddIn\ChartAnalysisToolAddIn\ChartAnalysisToolAddIn\CrosshairsDragAddInImp.cpp
;	COMDAT ?SetCaptureWithFlag@CCrosshairsDragAddInImp@@IAEXXZ
_TEXT	SEGMENT
?SetCaptureWithFlag@CCrosshairsDragAddInImp@@IAEXXZ PROC ; CCrosshairsDragAddInImp::SetCaptureWithFlag, COMDAT
; _this$ = ecx

; 332  : {

  00000	56		 push	 esi
  00001	8b f1		 mov	 esi, ecx

; 333  : 	if( !m_pIAddInToolMgr->GetLButtonExclusive( m_pIAddInDllBase)) 

  00003	8b 4e 30	 mov	 ecx, DWORD PTR [esi+48]
  00006	ff 76 1c	 push	 DWORD PTR [esi+28]
  00009	8b 01		 mov	 eax, DWORD PTR [ecx]
  0000b	ff 50 30	 call	 DWORD PTR [eax+48]
  0000e	85 c0		 test	 eax, eax
  00010	74 2a		 je	 SHORT $LN3@SetCapture

; 334  : 		return;
; 335  : 
; 336  : 	// 1. Mouse Event Capturing.
; 337  : 	// (2004.11.02, ) Mouse Capturing  ,  Count  Capturing Interface .
; 338  : 	m_pIChartOCX->AddSetCapture();

  00012	8b 4e 0c	 mov	 ecx, DWORD PTR [esi+12]
  00015	8b 01		 mov	 eax, DWORD PTR [ecx]
  00017	ff 50 44	 call	 DWORD PTR [eax+68]

; 339  : 
; 340  : 	// 2. Mouse Capturing Flag TRUE .
; 341  : 	m_bOnSetCaprture = TRUE;	
; 342  : 
; 343  : 	if( m_bWithNIDlgOnToolExec) 

  0001a	83 be b4 00 00
	00 00		 cmp	 DWORD PTR [esi+180], 0
  00021	c7 86 e0 00 00
	00 01 00 00 00	 mov	 DWORD PTR [esi+224], 1
  0002b	74 0f		 je	 SHORT $LN3@SetCapture

; 344  : 		m_pIAddInToolMgr->OnAddInToolCommand( EAI_NIDLG_DRAG_SHOWHIDE, ( long)1);

  0002d	8b 4e 30	 mov	 ecx, DWORD PTR [esi+48]
  00030	6a 01		 push	 1
  00032	6a 23		 push	 35			; 00000023H
  00034	8b 01		 mov	 eax, DWORD PTR [ecx]
  00036	ff 90 98 00 00
	00		 call	 DWORD PTR [eax+152]
$LN3@SetCapture:

; 345  : }

  0003c	5e		 pop	 esi
  0003d	c3		 ret	 0
?SetCaptureWithFlag@CCrosshairsDragAddInImp@@IAEXXZ ENDP ; CCrosshairsDragAddInImp::SetCaptureWithFlag
_TEXT	ENDS
; Function compile flags: /Ogtp
; File D:\git\src\IBK\IBK_DRFN\ProjSrc\SrcChartEx\ChartAddIn\ChartAnalysisToolAddIn\ChartAnalysisToolAddIn\CrosshairsDragAddInImp.cpp
; File C:\Program Files (x86)\Microsoft Visual Studio\2019\Community\VC\Tools\MSVC\14.29.30133\atlmfc\include\afxcoll.inl
; File D:\git\src\IBK\IBK_DRFN\ProjSrc\SrcChartEx\ChartAddIn\ChartAnalysisToolAddIn\ChartAnalysisToolAddIn\CrosshairsDragAddInImp.cpp
; File C:\Program Files (x86)\Microsoft Visual Studio\2019\Community\VC\Tools\MSVC\14.29.30133\atlmfc\include\afxcoll.inl
; File D:\git\src\IBK\IBK_DRFN\ProjSrc\SrcChartEx\ChartAddIn\ChartAnalysisToolAddIn\ChartAnalysisToolAddIn\CrosshairsDragAddInImp.cpp
;	COMDAT ?GetCurrentPosData@CCrosshairsDragAddInImp@@IAEHVCPoint@@@Z
_TEXT	SEGMENT
_strItemData$2 = -28					; size = 4
_strTempData$3 = -24					; size = 4
_nStartIndex$ = -20					; size = 4
_nEndIndex$ = -16					; size = 4
__$EHRec$ = -12						; size = 12
_ptPoint$ = 8						; size = 8
?GetCurrentPosData@CCrosshairsDragAddInImp@@IAEHVCPoint@@@Z PROC ; CCrosshairsDragAddInImp::GetCurrentPosData, COMDAT
; _this$ = ecx

; 522  : {

  00000	55		 push	 ebp
  00001	8b ec		 mov	 ebp, esp
  00003	6a ff		 push	 -1
  00005	68 00 00 00 00	 push	 __ehhandler$?GetCurrentPosData@CCrosshairsDragAddInImp@@IAEHVCPoint@@@Z
  0000a	64 a1 00 00 00
	00		 mov	 eax, DWORD PTR fs:0
  00010	50		 push	 eax
  00011	83 ec 14	 sub	 esp, 20			; 00000014H
  00014	53		 push	 ebx
  00015	56		 push	 esi
  00016	57		 push	 edi
  00017	a1 00 00 00 00	 mov	 eax, DWORD PTR ___security_cookie
  0001c	33 c5		 xor	 eax, ebp
  0001e	50		 push	 eax
  0001f	8d 45 f4	 lea	 eax, DWORD PTR __$EHRec$[ebp]
  00022	64 a3 00 00 00
	00		 mov	 DWORD PTR fs:0, eax
  00028	8b f1		 mov	 esi, ecx

; 523  : 	m_strTextXDate.Empty();	

  0002a	8d 9e 2c 01 00
	00		 lea	 ebx, DWORD PTR [esi+300]
  00030	8b cb		 mov	 ecx, ebx
  00032	ff 15 00 00 00
	00		 call	 DWORD PTR __imp_?Empty@?$CSimpleStringT@D$00@ATL@@QAEXXZ

; 524  : 	m_strTextYValue.Empty();	

  00038	8d be 30 01 00
	00		 lea	 edi, DWORD PTR [esi+304]
  0003e	8b cf		 mov	 ecx, edi
  00040	ff 15 00 00 00
	00		 call	 DWORD PTR __imp_?Empty@?$CSimpleStringT@D$00@ATL@@QAEXXZ

; 525  : 
; 526  : 	int nStartIndex = 0;
; 527  : 	int nEndIndex = 0;
; 528  : 	// 1.    Data Start/End Index .
; 529  : 
; 530  : 	// XScale :  /   - vntsorl(20070327)
; 531  : //	if( !m_pIChartOCX->GetViewStartEndIndex( nStartIndex, nEndIndex ))
; 532  : 	if( !m_pIChartManager->GetStartEndDrawIdx_Cur("DEFAULT", nStartIndex, nEndIndex))

  00046	8b 4e 28	 mov	 ecx, DWORD PTR [esi+40]
  00049	8d 55 f0	 lea	 edx, DWORD PTR _nEndIndex$[ebp]
  0004c	52		 push	 edx
  0004d	c7 45 ec 00 00
	00 00		 mov	 DWORD PTR _nStartIndex$[ebp], 0
  00054	8d 55 ec	 lea	 edx, DWORD PTR _nStartIndex$[ebp]
  00057	c7 45 f0 00 00
	00 00		 mov	 DWORD PTR _nEndIndex$[ebp], 0
  0005e	8b 01		 mov	 eax, DWORD PTR [ecx]
  00060	52		 push	 edx
  00061	68 00 00 00 00	 push	 OFFSET ??_C@_07MGCPDNLD@DEFAULT@
  00066	ff 90 e0 00 00
	00		 call	 DWORD PTR [eax+224]
  0006c	85 c0		 test	 eax, eax
  0006e	75 14		 jne	 SHORT $LN2@GetCurrent

; 544  : }

  00070	8b 4d f4	 mov	 ecx, DWORD PTR __$EHRec$[ebp]
  00073	64 89 0d 00 00
	00 00		 mov	 DWORD PTR fs:0, ecx
  0007a	59		 pop	 ecx
  0007b	5f		 pop	 edi
  0007c	5e		 pop	 esi
  0007d	5b		 pop	 ebx
  0007e	8b e5		 mov	 esp, ebp
  00080	5d		 pop	 ebp
  00081	c2 08 00	 ret	 8
$LN2@GetCurrent:

; 533  : 		return FALSE;
; 534  : 
; 535  : 	m_pAnalysisTool->GetCurrentPosData(ptPoint,m_strTextYValue,m_strTextXDate);

  00084	8b 8e 9c 00 00
	00		 mov	 ecx, DWORD PTR [esi+156]
  0008a	53		 push	 ebx
  0008b	57		 push	 edi
  0008c	ff 75 0c	 push	 DWORD PTR _ptPoint$[ebp+4]
  0008f	ff 75 08	 push	 DWORD PTR _ptPoint$[ebp]
  00092	ff 15 00 00 00
	00		 call	 DWORD PTR __imp_?GetCurrentPosData@CMainAnalysisTool@@QAEHVCPoint@@AAV?$CStringT@DV?$StrTraitMFC_DLL@DV?$ChTraitsCRT@D@ATL@@@@@ATL@@1@Z

; 536  : 
; 537  : 	//20100219  >>	
; 538  : 	if( m_niDataQueryer.ParsingInquiryData("", ptPoint))

  00098	6a 01		 push	 1
  0009a	6a 00		 push	 0
  0009c	6a 00		 push	 0
  0009e	ff 75 0c	 push	 DWORD PTR _ptPoint$[ebp+4]
  000a1	ff 75 08	 push	 DWORD PTR _ptPoint$[ebp]
  000a4	51		 push	 ecx
  000a5	8b cc		 mov	 ecx, esp
  000a7	68 00 00 00 00	 push	 OFFSET ??_C@_00CNPNBAHC@@
  000ac	ff 15 00 00 00
	00		 call	 DWORD PTR __imp_??0?$CStringT@DV?$StrTraitMFC_DLL@DV?$ChTraitsCRT@D@ATL@@@@@ATL@@QAE@PBD@Z
  000b2	8d 4e 40	 lea	 ecx, DWORD PTR [esi+64]
  000b5	e8 00 00 00 00	 call	 ?ParsingInquiryData@CNumericalInquiryDataQueryer@@QAEHV?$CStringT@DV?$StrTraitMFC_DLL@DV?$ChTraitsCRT@D@ATL@@@@@ATL@@VCPoint@@_NHH@Z ; CNumericalInquiryDataQueryer::ParsingInquiryData
  000ba	85 c0		 test	 eax, eax
  000bc	74 73		 je	 SHORT $LN6@GetCurrent
; File C:\Program Files (x86)\Microsoft Visual Studio\2019\Community\VC\Tools\MSVC\14.29.30133\atlmfc\include\afxcoll.inl

; 410  : 	{ return m_nCount == 0; }

  000be	83 7e 7c 00	 cmp	 DWORD PTR [esi+124], 0
; File D:\git\src\IBK\IBK_DRFN\ProjSrc\SrcChartEx\ChartAddIn\ChartAnalysisToolAddIn\ChartAnalysisToolAddIn\CrosshairsDragAddInImp.cpp

; 549  : 	if( pInquiryData->IsEmpty()) return;

  000c2	74 6d		 je	 SHORT $LN6@GetCurrent
; File C:\Program Files (x86)\Microsoft Visual Studio\2019\Community\VC\Tools\MSVC\14.29.30133\atlmfc\include\afxcoll.inl

; 410  : 	{ return m_nCount == 0; }

  000c4	83 7e 60 00	 cmp	 DWORD PTR [esi+96], 0
; File D:\git\src\IBK\IBK_DRFN\ProjSrc\SrcChartEx\ChartAddIn\ChartAnalysisToolAddIn\ChartAnalysisToolAddIn\CrosshairsDragAddInImp.cpp

; 550  : 	if( pInquiryPrevData->IsEmpty()) return;

  000c8	74 67		 je	 SHORT $LN6@GetCurrent

; 551  : 
; 552  : 	// _LISTDATA  .    ! (Multi Line  For!)
; 553  : 	CInquiryItem * plistData	= pInquiryData->GetHead();	

  000ca	8b 46 74	 mov	 eax, DWORD PTR [esi+116]

; 554  : 	CInquiryItem* plistPrevData = pInquiryPrevData->GetHead();	
; 555  : 	
; 556  : 	//  ListCtrl .
; 557  : 	LV_ITEM ltc;
; 558  : 	ltc.mask = LVIF_TEXT;
; 559  : 	
; 560  : 	// (2006/7/2 - Seung-Won, Bae) Using Virtual Draw. 0:Title, 1:Data
; 561  : 	int nIndex = 0;
; 562  : 	CRowData *pRowData = NULL;
; 563  : 	CRowData *pRowPrevData = NULL;
; 564  : 	CString strItemData;

  000cd	8d 4d e4	 lea	 ecx, DWORD PTR _strItemData$2[ebp]
  000d0	8b 78 08	 mov	 edi, DWORD PTR [eax+8]
  000d3	8b 46 58	 mov	 eax, DWORD PTR [esi+88]
  000d6	8b 70 08	 mov	 esi, DWORD PTR [eax+8]
  000d9	ff 15 00 00 00
	00		 call	 DWORD PTR __imp_??0?$CStringT@DV?$StrTraitMFC_DLL@DV?$ChTraitsCRT@D@ATL@@@@@ATL@@QAE@XZ

; 565  : 	double dItemData = 0.0;
; 566  : 	double dPrevItemData = 0.0;
; 567  : 	double dItemRatio = 0.0;
; 568  : 	CString strTempData;

  000df	8d 4d e8	 lea	 ecx, DWORD PTR _strTempData$3[ebp]
  000e2	c7 45 fc 00 00
	00 00		 mov	 DWORD PTR __$EHRec$[ebp+8], 0
  000e9	ff 15 00 00 00
	00		 call	 DWORD PTR __imp_??0?$CStringT@DV?$StrTraitMFC_DLL@DV?$ChTraitsCRT@D@ATL@@@@@ATL@@QAE@XZ

; 569  : 	POSITION posRow = plistData->GetHeadPosition();
; 570  : 	POSITION posPrevRow = plistPrevData->GetHeadPosition();

  000ef	8b 46 04	 mov	 eax, DWORD PTR [esi+4]
  000f2	8b 7f 04	 mov	 edi, DWORD PTR [edi+4]
  000f5	c6 45 fc 01	 mov	 BYTE PTR __$EHRec$[ebp+8], 1

; 571  : 	if( posPrevRow)

  000f9	85 c0		 test	 eax, eax
  000fb	74 0f		 je	 SHORT $LN9@GetCurrent

; 572  : 	{
; 573  : 		pRowPrevData= plistPrevData->GetAt( posPrevRow);
; 574  : 		strXData	= pRowPrevData->m_strData;

  000fd	8b 40 08	 mov	 eax, DWORD PTR [eax+8]
  00100	8b cb		 mov	 ecx, ebx
  00102	83 c0 08	 add	 eax, 8
  00105	50		 push	 eax
  00106	ff 15 00 00 00
	00		 call	 DWORD PTR __imp_??4?$CStringT@DV?$StrTraitMFC_DLL@DV?$ChTraitsCRT@D@ATL@@@@@ATL@@QAEAAV01@ABV01@@Z
$LN9@GetCurrent:

; 575  : 	}
; 576  : 
; 577  : 	if( posRow )

  0010c	85 ff		 test	 edi, edi
  0010e	74 0f		 je	 SHORT $LN10@GetCurrent

; 578  : 	{
; 579  : 		pRowData = plistData->GetAt(posRow);
; 580  : 		strXData = pRowData->m_strData;

  00110	8b 47 08	 mov	 eax, DWORD PTR [edi+8]
  00113	8b cb		 mov	 ecx, ebx
  00115	83 c0 08	 add	 eax, 8
  00118	50		 push	 eax
  00119	ff 15 00 00 00
	00		 call	 DWORD PTR __imp_??4?$CStringT@DV?$StrTraitMFC_DLL@DV?$ChTraitsCRT@D@ATL@@@@@ATL@@QAEAAV01@ABV01@@Z
$LN10@GetCurrent:

; 581  : 	}
; 582  : }

  0011f	8d 4d e8	 lea	 ecx, DWORD PTR _strTempData$3[ebp]
  00122	ff 15 00 00 00
	00		 call	 DWORD PTR __imp_??1?$CStringT@DV?$StrTraitMFC_DLL@DV?$ChTraitsCRT@D@ATL@@@@@ATL@@QAE@XZ
  00128	8d 4d e4	 lea	 ecx, DWORD PTR _strItemData$2[ebp]
  0012b	ff 15 00 00 00
	00		 call	 DWORD PTR __imp_??1?$CStringT@DV?$StrTraitMFC_DLL@DV?$ChTraitsCRT@D@ATL@@@@@ATL@@QAE@XZ
$LN6@GetCurrent:

; 539  : 	{
; 540  : 		SetInquiryXData(m_strTextXDate, &m_niDataQueryer.m_listInquiryData,&m_niDataQueryer.m_listPrevInquiryData);
; 541  : 	}
; 542  : 	//20100219  <<
; 543  : 	return TRUE;

  00131	b8 01 00 00 00	 mov	 eax, 1

; 544  : }

  00136	8b 4d f4	 mov	 ecx, DWORD PTR __$EHRec$[ebp]
  00139	64 89 0d 00 00
	00 00		 mov	 DWORD PTR fs:0, ecx
  00140	59		 pop	 ecx
  00141	5f		 pop	 edi
  00142	5e		 pop	 esi
  00143	5b		 pop	 ebx
  00144	8b e5		 mov	 esp, ebp
  00146	5d		 pop	 ebp
  00147	c2 08 00	 ret	 8
_TEXT	ENDS
;	COMDAT text$x
text$x	SEGMENT
__unwindfunclet$?GetCurrentPosData@CCrosshairsDragAddInImp@@IAEHVCPoint@@@Z$1:
  00000	8d 4d e4	 lea	 ecx, DWORD PTR _strItemData$2[ebp]
  00003	ff 25 00 00 00
	00		 jmp	 DWORD PTR __imp_??1?$CStringT@DV?$StrTraitMFC_DLL@DV?$ChTraitsCRT@D@ATL@@@@@ATL@@QAE@XZ
__unwindfunclet$?GetCurrentPosData@CCrosshairsDragAddInImp@@IAEHVCPoint@@@Z$2:
  00009	8d 4d e8	 lea	 ecx, DWORD PTR _strTempData$3[ebp]
  0000c	ff 25 00 00 00
	00		 jmp	 DWORD PTR __imp_??1?$CStringT@DV?$StrTraitMFC_DLL@DV?$ChTraitsCRT@D@ATL@@@@@ATL@@QAE@XZ
  00012	cc		 int	 3
  00013	cc		 int	 3
  00014	cc		 int	 3
  00015	cc		 int	 3
  00016	cc		 int	 3
__ehhandler$?GetCurrentPosData@CCrosshairsDragAddInImp@@IAEHVCPoint@@@Z:
  00017	90		 npad	 1
  00018	90		 npad	 1
  00019	8b 54 24 08	 mov	 edx, DWORD PTR [esp+8]
  0001d	8d 42 0c	 lea	 eax, DWORD PTR [edx+12]
  00020	8b 4a dc	 mov	 ecx, DWORD PTR [edx-36]
  00023	33 c8		 xor	 ecx, eax
  00025	e8 00 00 00 00	 call	 @__security_check_cookie@4
  0002a	b8 00 00 00 00	 mov	 eax, OFFSET __ehfuncinfo$?GetCurrentPosData@CCrosshairsDragAddInImp@@IAEHVCPoint@@@Z
  0002f	e9 00 00 00 00	 jmp	 ___CxxFrameHandler3
text$x	ENDS
?GetCurrentPosData@CCrosshairsDragAddInImp@@IAEHVCPoint@@@Z ENDP ; CCrosshairsDragAddInImp::GetCurrentPosData
; Function compile flags: /Ogtp
; File D:\git\src\IBK\IBK_DRFN\ProjSrc\SrcChartEx\ChartAddIn\ChartAnalysisToolAddIn\ChartAnalysisToolAddIn\CrosshairsDragAddInImp.cpp
;	COMDAT ?GetGraphTotalRegion@CCrosshairsDragAddInImp@@IAEHVCPoint@@@Z
_TEXT	SEGMENT
$T1 = -20						; size = 16
__$ArrayPad$ = -4					; size = 4
_point$ = 8						; size = 8
?GetGraphTotalRegion@CCrosshairsDragAddInImp@@IAEHVCPoint@@@Z PROC ; CCrosshairsDragAddInImp::GetGraphTotalRegion, COMDAT
; _this$ = ecx

; 586  : {

  00000	55		 push	 ebp
  00001	8b ec		 mov	 ebp, esp
  00003	83 ec 14	 sub	 esp, 20			; 00000014H
  00006	a1 00 00 00 00	 mov	 eax, DWORD PTR ___security_cookie
  0000b	33 c5		 xor	 eax, ebp
  0000d	89 45 fc	 mov	 DWORD PTR __$ArrayPad$[ebp], eax
  00010	56		 push	 esi
  00011	8b f1		 mov	 esi, ecx

; 587  : 	if(m_pAnalysisTool == NULL)

  00013	8b 8e 9c 00 00
	00		 mov	 ecx, DWORD PTR [esi+156]
  00019	85 c9		 test	 ecx, ecx
  0001b	75 13		 jne	 SHORT $LN2@GetGraphTo

; 588  : 	{
; 589  : 		return FALSE;

  0001d	33 c0		 xor	 eax, eax
  0001f	5e		 pop	 esi

; 593  : 	return TRUE;
; 594  : }

  00020	8b 4d fc	 mov	 ecx, DWORD PTR __$ArrayPad$[ebp]
  00023	33 cd		 xor	 ecx, ebp
  00025	e8 00 00 00 00	 call	 @__security_check_cookie@4
  0002a	8b e5		 mov	 esp, ebp
  0002c	5d		 pop	 ebp
  0002d	c2 08 00	 ret	 8
$LN2@GetGraphTo:

; 590  : 	}
; 591  : 
; 592  : 	m_rctBlockRegion = m_pAnalysisTool->GetGraphTotalRegion(point);		

  00030	ff 75 0c	 push	 DWORD PTR _point$[ebp+4]
  00033	8d 45 ec	 lea	 eax, DWORD PTR $T1[ebp]
  00036	ff 75 08	 push	 DWORD PTR _point$[ebp]
  00039	50		 push	 eax
  0003a	ff 15 00 00 00
	00		 call	 DWORD PTR __imp_?GetGraphTotalRegion@CMainAnalysisTool@@QAE?AVCRect@@VCPoint@@@Z

; 593  : 	return TRUE;
; 594  : }

  00040	8b 4d fc	 mov	 ecx, DWORD PTR __$ArrayPad$[ebp]
  00043	33 cd		 xor	 ecx, ebp
  00045	0f 10 00	 movups	 xmm0, XMMWORD PTR [eax]
  00048	b8 01 00 00 00	 mov	 eax, 1
  0004d	0f 11 86 bc 00
	00 00		 movups	 XMMWORD PTR [esi+188], xmm0
  00054	5e		 pop	 esi
  00055	e8 00 00 00 00	 call	 @__security_check_cookie@4
  0005a	8b e5		 mov	 esp, ebp
  0005c	5d		 pop	 ebp
  0005d	c2 08 00	 ret	 8
?GetGraphTotalRegion@CCrosshairsDragAddInImp@@IAEHVCPoint@@@Z ENDP ; CCrosshairsDragAddInImp::GetGraphTotalRegion
_TEXT	ENDS
; Function compile flags: /Ogtp
; File D:\git\src\IBK\IBK_DRFN\ProjSrc\SrcChartEx\ChartAddIn\ChartAnalysisToolAddIn\ChartAnalysisToolAddIn\CrosshairsDragAddInImp.cpp
; File D:\git\src\IBK\IBK_DRFN\ProjSrc\SrcChartEx\ChartAddIn\ChartAnalysisToolAddIn\Include_Chart\Dll_Load\IMetaTable.h
; File C:\Program Files (x86)\Microsoft Visual Studio\2019\Community\VC\Tools\MSVC\14.29.30133\atlmfc\include\afxwin1.inl
; File D:\git\src\IBK\IBK_DRFN\ProjSrc\SrcChartEx\ChartAddIn\ChartAnalysisToolAddIn\Include_Chart\Dll_Load\IMetaTable.h
; File C:\Program Files (x86)\Microsoft Visual Studio\2019\Community\VC\Tools\MSVC\14.29.30133\atlmfc\include\afxwin1.inl
; File D:\git\src\IBK\IBK_DRFN\ProjSrc\SrcChartEx\ChartAddIn\ChartAnalysisToolAddIn\ChartAnalysisToolAddIn\CrosshairsDragAddInImp.cpp
; File C:\Program Files (x86)\Microsoft Visual Studio\2019\Community\VC\Tools\MSVC\14.29.30133\atlmfc\include\atltypes.h
; File D:\git\src\IBK\IBK_DRFN\ProjSrc\SrcChartEx\ChartAddIn\ChartAnalysisToolAddIn\ChartAnalysisToolAddIn\CrosshairsDragAddInImp.cpp
; File C:\Program Files (x86)\Microsoft Visual Studio\2019\Community\VC\Tools\MSVC\14.29.30133\atlmfc\include\atltypes.h
; File D:\git\src\IBK\IBK_DRFN\ProjSrc\SrcChartEx\ChartAddIn\ChartAnalysisToolAddIn\ChartAnalysisToolAddIn\CrosshairsDragAddInImp.cpp
; File C:\Program Files (x86)\Microsoft Visual Studio\2019\Community\VC\Tools\MSVC\14.29.30133\atlmfc\include\atltypes.h
; File D:\git\src\IBK\IBK_DRFN\ProjSrc\SrcChartEx\ChartAddIn\ChartAnalysisToolAddIn\ChartAnalysisToolAddIn\CrosshairsDragAddInImp.cpp
; File C:\Program Files (x86)\Microsoft Visual Studio\2019\Community\VC\Tools\MSVC\14.29.30133\atlmfc\include\atltypes.h
; File D:\git\src\IBK\IBK_DRFN\ProjSrc\SrcChartEx\ChartAddIn\ChartAnalysisToolAddIn\ChartAnalysisToolAddIn\CrosshairsDragAddInImp.cpp
; File C:\Program Files (x86)\Microsoft Visual Studio\2019\Community\VC\Tools\MSVC\14.29.30133\atlmfc\include\atltypes.h
; File D:\git\src\IBK\IBK_DRFN\ProjSrc\SrcChartEx\ChartAddIn\ChartAnalysisToolAddIn\ChartAnalysisToolAddIn\CrosshairsDragAddInImp.cpp
; File C:\Program Files (x86)\Microsoft Visual Studio\2019\Community\VC\Tools\MSVC\14.29.30133\atlmfc\include\atltypes.h
; File D:\git\src\IBK\IBK_DRFN\ProjSrc\SrcChartEx\ChartAddIn\ChartAnalysisToolAddIn\ChartAnalysisToolAddIn\CrosshairsDragAddInImp.cpp
; File C:\Program Files (x86)\Microsoft Visual Studio\2019\Community\VC\Tools\MSVC\14.29.30133\atlmfc\include\atltypes.h
; File D:\git\src\IBK\IBK_DRFN\ProjSrc\SrcChartEx\ChartAddIn\ChartAnalysisToolAddIn\ChartAnalysisToolAddIn\CrosshairsDragAddInImp.cpp
; File C:\Program Files (x86)\Microsoft Visual Studio\2019\Community\VC\Tools\MSVC\14.29.30133\atlmfc\include\atltypes.h
; File D:\git\src\IBK\IBK_DRFN\ProjSrc\SrcChartEx\ChartAddIn\ChartAnalysisToolAddIn\ChartAnalysisToolAddIn\CrosshairsDragAddInImp.cpp
; File C:\Program Files (x86)\Microsoft Visual Studio\2019\Community\VC\Tools\MSVC\14.29.30133\atlmfc\include\atltypes.h
; File D:\git\src\IBK\IBK_DRFN\ProjSrc\SrcChartEx\ChartAddIn\ChartAnalysisToolAddIn\ChartAnalysisToolAddIn\CrosshairsDragAddInImp.cpp
; File C:\Program Files (x86)\Microsoft Visual Studio\2019\Community\VC\Tools\MSVC\14.29.30133\atlmfc\include\atltypes.h
; File D:\git\src\IBK\IBK_DRFN\ProjSrc\SrcChartEx\ChartAddIn\ChartAnalysisToolAddIn\ChartAnalysisToolAddIn\CrosshairsDragAddInImp.cpp
; File C:\Program Files (x86)\Microsoft Visual Studio\2019\Community\VC\Tools\MSVC\14.29.30133\atlmfc\include\atltypes.h
; File D:\git\src\IBK\IBK_DRFN\ProjSrc\SrcChartEx\ChartAddIn\ChartAnalysisToolAddIn\ChartAnalysisToolAddIn\CrosshairsDragAddInImp.cpp
; File C:\Program Files (x86)\Microsoft Visual Studio\2019\Community\VC\Tools\MSVC\14.29.30133\atlmfc\include\atltypes.h
; File D:\git\src\IBK\IBK_DRFN\ProjSrc\SrcChartEx\ChartAddIn\ChartAnalysisToolAddIn\ChartAnalysisToolAddIn\CrosshairsDragAddInImp.cpp
; File C:\Program Files (x86)\Microsoft Visual Studio\2019\Community\VC\Tools\MSVC\14.29.30133\atlmfc\include\atltypes.h
; File D:\git\src\IBK\IBK_DRFN\ProjSrc\SrcChartEx\ChartAddIn\ChartAnalysisToolAddIn\ChartAnalysisToolAddIn\CrosshairsDragAddInImp.cpp
; File C:\Program Files (x86)\Microsoft Visual Studio\2019\Community\VC\Tools\MSVC\14.29.30133\atlmfc\include\atltypes.h
; File D:\git\src\IBK\IBK_DRFN\ProjSrc\SrcChartEx\ChartAddIn\ChartAnalysisToolAddIn\ChartAnalysisToolAddIn\CrosshairsDragAddInImp.cpp
; File C:\Program Files (x86)\Microsoft Visual Studio\2019\Community\VC\Tools\MSVC\14.29.30133\atlmfc\include\atltypes.h
; File D:\git\src\IBK\IBK_DRFN\ProjSrc\SrcChartEx\ChartAddIn\ChartAnalysisToolAddIn\ChartAnalysisToolAddIn\CrosshairsDragAddInImp.cpp
; File C:\Program Files (x86)\Microsoft Visual Studio\2019\Community\VC\Tools\MSVC\14.29.30133\atlmfc\include\atltypes.h
; File D:\git\src\IBK\IBK_DRFN\ProjSrc\SrcChartEx\ChartAddIn\ChartAnalysisToolAddIn\ChartAnalysisToolAddIn\CrosshairsDragAddInImp.cpp
; File C:\Program Files (x86)\Microsoft Visual Studio\2019\Community\VC\Tools\MSVC\14.29.30133\atlmfc\include\atlsimpstr.h
; File C:\Program Files (x86)\Microsoft Visual Studio\2019\Community\VC\Tools\MSVC\14.29.30133\atlmfc\include\afxwin1.inl
; File D:\git\src\IBK\IBK_DRFN\ProjSrc\SrcChartEx\ChartAddIn\ChartAnalysisToolAddIn\ChartAnalysisToolAddIn\CrosshairsDragAddInImp.cpp
; File C:\Program Files (x86)\Microsoft Visual Studio\2019\Community\VC\Tools\MSVC\14.29.30133\atlmfc\include\atlsimpstr.h
; File C:\Program Files (x86)\Microsoft Visual Studio\2019\Community\VC\Tools\MSVC\14.29.30133\atlmfc\include\afxwin1.inl
; File D:\git\src\IBK\IBK_DRFN\ProjSrc\SrcChartEx\ChartAddIn\ChartAnalysisToolAddIn\ChartAnalysisToolAddIn\CrosshairsDragAddInImp.cpp
; File C:\Program Files (x86)\Microsoft Visual Studio\2019\Community\VC\Tools\MSVC\14.29.30133\atlmfc\include\atlsimpstr.h
; File C:\Program Files (x86)\Microsoft Visual Studio\2019\Community\VC\Tools\MSVC\14.29.30133\atlmfc\include\afxwin1.inl
; File D:\git\src\IBK\IBK_DRFN\ProjSrc\SrcChartEx\ChartAddIn\ChartAnalysisToolAddIn\ChartAnalysisToolAddIn\CrosshairsDragAddInImp.cpp
; File C:\Program Files (x86)\Microsoft Visual Studio\2019\Community\VC\Tools\MSVC\14.29.30133\atlmfc\include\atlsimpstr.h
; File C:\Program Files (x86)\Microsoft Visual Studio\2019\Community\VC\Tools\MSVC\14.29.30133\atlmfc\include\afxwin1.inl
; File D:\git\src\IBK\IBK_DRFN\ProjSrc\SrcChartEx\ChartAddIn\ChartAnalysisToolAddIn\ChartAnalysisToolAddIn\CrosshairsDragAddInImp.cpp
; File C:\Program Files (x86)\Microsoft Visual Studio\2019\Community\VC\Tools\MSVC\14.29.30133\atlmfc\include\afxwin1.inl
; File C:\Program Files (x86)\Microsoft Visual Studio\2019\Community\VC\Tools\MSVC\14.29.30133\atlmfc\include\atlsimpstr.h
; File D:\git\src\IBK\IBK_DRFN\ProjSrc\SrcChartEx\ChartAddIn\ChartAnalysisToolAddIn\ChartAnalysisToolAddIn\CrosshairsDragAddInImp.cpp
; File C:\Program Files (x86)\Microsoft Visual Studio\2019\Community\VC\Tools\MSVC\14.29.30133\atlmfc\include\afxwin1.inl
; File D:\git\src\IBK\IBK_DRFN\ProjSrc\SrcChartEx\ChartAddIn\ChartAnalysisToolAddIn\ChartAnalysisToolAddIn\CrosshairsDragAddInImp.cpp
; File C:\Program Files (x86)\Microsoft Visual Studio\2019\Community\VC\Tools\MSVC\14.29.30133\atlmfc\include\afxwin1.inl
; File D:\git\src\IBK\IBK_DRFN\ProjSrc\SrcChartEx\ChartAddIn\ChartAnalysisToolAddIn\ChartAnalysisToolAddIn\CrosshairsDragAddInImp.cpp
; File C:\Program Files (x86)\Microsoft Visual Studio\2019\Community\VC\Tools\MSVC\14.29.30133\atlmfc\include\afxwin1.inl
; File D:\git\src\IBK\IBK_DRFN\ProjSrc\SrcChartEx\ChartAddIn\ChartAnalysisToolAddIn\ChartAnalysisToolAddIn\CrosshairsDragAddInImp.cpp
; File C:\Program Files (x86)\Microsoft Visual Studio\2019\Community\VC\Tools\MSVC\14.29.30133\atlmfc\include\afxwin1.inl
; File C:\Program Files (x86)\Microsoft Visual Studio\2019\Community\VC\Tools\MSVC\14.29.30133\atlmfc\include\atlsimpstr.h
; File D:\git\src\IBK\IBK_DRFN\ProjSrc\SrcChartEx\ChartAddIn\ChartAnalysisToolAddIn\ChartAnalysisToolAddIn\CrosshairsDragAddInImp.cpp
; File C:\Program Files (x86)\Microsoft Visual Studio\2019\Community\VC\Tools\MSVC\14.29.30133\atlmfc\include\afxwin1.inl
; File D:\git\src\IBK\IBK_DRFN\ProjSrc\SrcChartEx\ChartAddIn\ChartAnalysisToolAddIn\ChartAnalysisToolAddIn\CrosshairsDragAddInImp.cpp
; File C:\Program Files (x86)\Microsoft Visual Studio\2019\Community\VC\Tools\MSVC\14.29.30133\atlmfc\include\afxwin1.inl
; File D:\git\src\IBK\IBK_DRFN\ProjSrc\SrcChartEx\ChartAddIn\ChartAnalysisToolAddIn\ChartAnalysisToolAddIn\CrosshairsDragAddInImp.cpp
; File C:\Program Files (x86)\Microsoft Visual Studio\2019\Community\VC\Tools\MSVC\14.29.30133\atlmfc\include\afxwin1.inl
; File D:\git\src\IBK\IBK_DRFN\ProjSrc\SrcChartEx\ChartAddIn\ChartAnalysisToolAddIn\ChartAnalysisToolAddIn\CrosshairsDragAddInImp.cpp
; File C:\Program Files (x86)\Microsoft Visual Studio\2019\Community\VC\Tools\MSVC\14.29.30133\atlmfc\include\afxwin1.inl
; File C:\Program Files (x86)\Microsoft Visual Studio\2019\Community\VC\Tools\MSVC\14.29.30133\atlmfc\include\atlsimpstr.h
; File D:\git\src\IBK\IBK_DRFN\ProjSrc\SrcChartEx\ChartAddIn\ChartAnalysisToolAddIn\ChartAnalysisToolAddIn\CrosshairsDragAddInImp.cpp
; File C:\Program Files (x86)\Microsoft Visual Studio\2019\Community\VC\Tools\MSVC\14.29.30133\atlmfc\include\afxwin1.inl
; File D:\git\src\IBK\IBK_DRFN\ProjSrc\SrcChartEx\ChartAddIn\ChartAnalysisToolAddIn\ChartAnalysisToolAddIn\CrosshairsDragAddInImp.cpp
; File C:\Program Files (x86)\Microsoft Visual Studio\2019\Community\VC\Tools\MSVC\14.29.30133\atlmfc\include\afxwin1.inl
; File D:\git\src\IBK\IBK_DRFN\ProjSrc\SrcChartEx\ChartAddIn\ChartAnalysisToolAddIn\ChartAnalysisToolAddIn\CrosshairsDragAddInImp.cpp
; File C:\Program Files (x86)\Microsoft Visual Studio\2019\Community\VC\Tools\MSVC\14.29.30133\atlmfc\include\afxwin1.inl
; File D:\git\src\IBK\IBK_DRFN\ProjSrc\SrcChartEx\ChartAddIn\ChartAnalysisToolAddIn\ChartAnalysisToolAddIn\CrosshairsDragAddInImp.cpp
; File C:\Program Files (x86)\Microsoft Visual Studio\2019\Community\VC\Tools\MSVC\14.29.30133\atlmfc\include\afxwin1.inl
; File C:\Program Files (x86)\Microsoft Visual Studio\2019\Community\VC\Tools\MSVC\14.29.30133\atlmfc\include\atlsimpstr.h
; File D:\git\src\IBK\IBK_DRFN\ProjSrc\SrcChartEx\ChartAddIn\ChartAnalysisToolAddIn\ChartAnalysisToolAddIn\CrosshairsDragAddInImp.cpp
; File C:\Program Files (x86)\Microsoft Visual Studio\2019\Community\VC\Tools\MSVC\14.29.30133\atlmfc\include\afxwin1.inl
; File D:\git\src\IBK\IBK_DRFN\ProjSrc\SrcChartEx\ChartAddIn\ChartAnalysisToolAddIn\ChartAnalysisToolAddIn\CrosshairsDragAddInImp.cpp
; File C:\Program Files (x86)\Microsoft Visual Studio\2019\Community\VC\Tools\MSVC\14.29.30133\atlmfc\include\afxwin1.inl
; File D:\git\src\IBK\IBK_DRFN\ProjSrc\SrcChartEx\ChartAddIn\ChartAnalysisToolAddIn\ChartAnalysisToolAddIn\CrosshairsDragAddInImp.cpp
; File D:\git\src\IBK\IBK_DRFN\ProjSrc\SrcChartEx\ChartAddIn\ChartAnalysisToolAddIn\Include_Chart\Dll_Load\IMetaTable.h
; File C:\Program Files (x86)\Microsoft Visual Studio\2019\Community\VC\Tools\MSVC\14.29.30133\atlmfc\include\afxwin1.inl
; File D:\git\src\IBK\IBK_DRFN\ProjSrc\SrcChartEx\ChartAddIn\ChartAnalysisToolAddIn\ChartAnalysisToolAddIn\CrosshairsDragAddInImp.cpp
;	COMDAT ?DrawNewCross@CCrosshairsDragAddInImp@@IAEXPAUHDC__@@@Z
_TEXT	SEGMENT
___mlrs__$ = -152					; size = 4
_pOldBrush$1$ = -148					; size = 4
___mlrs__$1$ = -148					; size = 4
_nRowCount$1$ = -144					; size = 4
tv1667 = -144						; size = 4
_p_hDC$GSCopy$1$ = -140					; size = 4
_nColCount$1$ = -140					; size = 4
tv1679 = -140						; size = 4
_this$GSCopy$1$ = -136					; size = 4
tv1671 = -136						; size = 4
_i$1$ = -132						; size = 4
tv1675 = -132						; size = 4
_size$2 = -128						; size = 8
_size$3 = -128						; size = 8
_size$4 = -128						; size = 8
_size$5 = -128						; size = 8
$T6 = -128						; size = 8
$T7 = -128						; size = 8
_pOldPen$1$ = -124					; size = 4
_bBottomExist$1$ = -120					; size = 1
_bTopExist$1$ = -119					; size = 1
_bRightExist$1$ = -118					; size = 1
_bLeftExist$1$ = -117					; size = 1
_pDC$1$ = -116						; size = 4
_rcBottom$ = -112					; size = 16
_rcTop$ = -96						; size = 16
_rcRight$ = -80						; size = 16
_rcLeft$ = -64						; size = 16
_rcBottomTemp$ = -48					; size = 16
_rcTopTemp$ = -32					; size = 16
__$ArrayPad$ = -16					; size = 4
__$EHRec$ = -12						; size = 12
_p_hDC$ = 8						; size = 4
?DrawNewCross@CCrosshairsDragAddInImp@@IAEXPAUHDC__@@@Z PROC ; CCrosshairsDragAddInImp::DrawNewCross, COMDAT
; _this$ = ecx

; 364  : {

  00000	55		 push	 ebp
  00001	8b ec		 mov	 ebp, esp
  00003	6a ff		 push	 -1
  00005	68 00 00 00 00	 push	 __ehhandler$?DrawNewCross@CCrosshairsDragAddInImp@@IAEXPAUHDC__@@@Z
  0000a	64 a1 00 00 00
	00		 mov	 eax, DWORD PTR fs:0
  00010	50		 push	 eax
  00011	81 ec 8c 00 00
	00		 sub	 esp, 140		; 0000008cH
  00017	a1 00 00 00 00	 mov	 eax, DWORD PTR ___security_cookie
  0001c	33 c5		 xor	 eax, ebp
  0001e	89 45 f0	 mov	 DWORD PTR __$ArrayPad$[ebp], eax
  00021	53		 push	 ebx
  00022	56		 push	 esi
  00023	57		 push	 edi
  00024	50		 push	 eax
  00025	8d 45 f4	 lea	 eax, DWORD PTR __$EHRec$[ebp]
  00028	64 a3 00 00 00
	00		 mov	 DWORD PTR fs:0, eax
  0002e	8b f9		 mov	 edi, ecx
  00030	89 bd 78 ff ff
	ff		 mov	 DWORD PTR _this$GSCopy$1$[ebp], edi
  00036	8b 45 08	 mov	 eax, DWORD PTR _p_hDC$[ebp]
  00039	89 85 74 ff ff
	ff		 mov	 DWORD PTR _p_hDC$GSCopy$1$[ebp], eax

; 365  : 	// Manage State for Resource Loading of Cursor 
; 366  : 	ML_SET_LANGUAGE_RES();

  0003f	e8 00 00 00 00	 call	 ?AfxGetStaticModuleState@@YGPAVAFX_MODULE_STATE@@XZ ; AfxGetStaticModuleState
  00044	8b 9f 34 01 00
	00		 mov	 ebx, DWORD PTR [edi+308]
  0004a	8b 70 08	 mov	 esi, DWORD PTR [eax+8]
; File D:\git\src\IBK\IBK_DRFN\ProjSrc\SrcChartEx\ChartAddIn\ChartAnalysisToolAddIn\Include_Chart\Dll_Load\IMetaTable.h

; 938  : 	DECLARE_FUNCTION2(	LoadResourceDLL,				HMODULE, AfxGetStaticModuleState()->m_hCurrentInstanceHandle, HWND, HMODULE);

  0004d	a1 04 00 00 00	 mov	 eax, DWORD PTR ?g_iMetaTable@@3VIMetaTable@@A+4
  00052	85 c0		 test	 eax, eax
  00054	74 4b		 je	 SHORT $LN33@DrawNewCro
  00056	b9 80 0d 00 00	 mov	 ecx, 3456		; 00000d80H
  0005b	66 3b 0d 94 00
	00 00		 cmp	 cx, WORD PTR ?g_iMetaTable@@3VIMetaTable@@A+148
  00062	74 29		 je	 SHORT $LN195@DrawNewCro
  00064	68 00 00 00 00	 push	 OFFSET ??_C@_0BA@ENJOCHIO@LoadResourceDLL@
  00069	50		 push	 eax
  0006a	c7 05 90 00 00
	00 00 00 00 00	 mov	 DWORD PTR ?g_iMetaTable@@3VIMetaTable@@A+144, 0
  00074	ff 15 00 00 00
	00		 call	 DWORD PTR __imp__GetProcAddress@8
  0007a	b9 80 0d 00 00	 mov	 ecx, 3456		; 00000d80H
  0007f	a3 90 00 00 00	 mov	 DWORD PTR ?g_iMetaTable@@3VIMetaTable@@A+144, eax
  00084	66 89 0d 94 00
	00 00		 mov	 WORD PTR ?g_iMetaTable@@3VIMetaTable@@A+148, cx
  0008b	eb 05		 jmp	 SHORT $LN32@DrawNewCro
$LN195@DrawNewCro:
  0008d	a1 90 00 00 00	 mov	 eax, DWORD PTR ?g_iMetaTable@@3VIMetaTable@@A+144
$LN32@DrawNewCro:
  00092	85 c0		 test	 eax, eax
  00094	74 0b		 je	 SHORT $LN33@DrawNewCro
  00096	56		 push	 esi
  00097	53		 push	 ebx
  00098	ff d0		 call	 eax
  0009a	83 c4 08	 add	 esp, 8
  0009d	8b d8		 mov	 ebx, eax
  0009f	eb 08		 jmp	 SHORT $LN30@DrawNewCro
$LN33@DrawNewCro:
  000a1	e8 00 00 00 00	 call	 ?AfxGetStaticModuleState@@YGPAVAFX_MODULE_STATE@@XZ ; AfxGetStaticModuleState
  000a6	8b 58 08	 mov	 ebx, DWORD PTR [eax+8]
$LN30@DrawNewCro:
; File C:\Program Files (x86)\Microsoft Visual Studio\2019\Community\VC\Tools\MSVC\14.29.30133\atlmfc\include\afxwin1.inl

; 25   : 		return afxCurrentResourceHandle; }

  000a9	e8 00 00 00 00	 call	 ?AfxGetModuleState@@YGPAVAFX_MODULE_STATE@@XZ ; AfxGetModuleState
; File D:\git\src\IBK\IBK_DRFN\ProjSrc\SrcChartEx\ChartAddIn\ChartAnalysisToolAddIn\Include_Chart\Dll_Load\IMetaTable.h

; 1034 : 		m_hInstance = AfxGetResourceHandle();

  000ae	8b 70 0c	 mov	 esi, DWORD PTR [eax+12]
  000b1	89 b5 6c ff ff
	ff		 mov	 DWORD PTR ___mlrs__$1$[ebp], esi
  000b7	89 b5 68 ff ff
	ff		 mov	 DWORD PTR ___mlrs__$[ebp], esi
; File C:\Program Files (x86)\Microsoft Visual Studio\2019\Community\VC\Tools\MSVC\14.29.30133\atlmfc\include\afxwin1.inl

; 27   : 	{ ASSERT(hInstResource != NULL); afxCurrentResourceHandle = hInstResource; }

  000bd	e8 00 00 00 00	 call	 ?AfxGetModuleState@@YGPAVAFX_MODULE_STATE@@XZ ; AfxGetModuleState
  000c2	89 58 0c	 mov	 DWORD PTR [eax+12], ebx
; File D:\git\src\IBK\IBK_DRFN\ProjSrc\SrcChartEx\ChartAddIn\ChartAnalysisToolAddIn\ChartAnalysisToolAddIn\CrosshairsDragAddInImp.cpp

; 369  : 	CDC *pDC = CDC::FromHandle( p_hDC);

  000c5	ff b5 74 ff ff
	ff		 push	 DWORD PTR _p_hDC$GSCopy$1$[ebp]
  000cb	c7 45 fc 00 00
	00 00		 mov	 DWORD PTR __$EHRec$[ebp+8], 0
  000d2	e8 00 00 00 00	 call	 ?FromHandle@CDC@@SGPAV1@PAUHDC__@@@Z ; CDC::FromHandle
  000d7	89 45 8c	 mov	 DWORD PTR _pDC$1$[ebp], eax

; 370  : 	if( !pDC) return;

  000da	85 c0		 test	 eax, eax
  000dc	0f 84 62 05 00
	00		 je	 $LN29@DrawNewCro
; File C:\Program Files (x86)\Microsoft Visual Studio\2019\Community\VC\Tools\MSVC\14.29.30133\atlmfc\include\atltypes.h

; 669  : 	::SetRectEmpty(this);

  000e2	8b 1d 00 00 00
	00		 mov	 ebx, DWORD PTR __imp__SetRectEmpty@4
  000e8	8d 45 c0	 lea	 eax, DWORD PTR _rcLeft$[ebp]
  000eb	0f 57 c0	 xorps	 xmm0, xmm0
; File D:\git\src\IBK\IBK_DRFN\ProjSrc\SrcChartEx\ChartAddIn\ChartAnalysisToolAddIn\ChartAnalysisToolAddIn\CrosshairsDragAddInImp.cpp

; 372  : 	bool bLeftExist = true;

  000ee	c6 45 8b 01	 mov	 BYTE PTR _bLeftExist$1$[ebp], 1
; File C:\Program Files (x86)\Microsoft Visual Studio\2019\Community\VC\Tools\MSVC\14.29.30133\atlmfc\include\atltypes.h

; 669  : 	::SetRectEmpty(this);

  000f2	50		 push	 eax
; File D:\git\src\IBK\IBK_DRFN\ProjSrc\SrcChartEx\ChartAddIn\ChartAnalysisToolAddIn\ChartAnalysisToolAddIn\CrosshairsDragAddInImp.cpp

; 373  : 	bool bRightExist = true;

  000f3	c6 45 8a 01	 mov	 BYTE PTR _bRightExist$1$[ebp], 1

; 374  : 	bool bTopExist = true;

  000f7	c6 45 89 01	 mov	 BYTE PTR _bTopExist$1$[ebp], 1

; 375  : 	bool bBottomExist = true;

  000fb	c6 45 88 01	 mov	 BYTE PTR _bBottomExist$1$[ebp], 1
; File C:\Program Files (x86)\Microsoft Visual Studio\2019\Community\VC\Tools\MSVC\14.29.30133\atlmfc\include\atltypes.h

; 528  : 	left = 0;

  000ff	0f 11 45 a0	 movups	 XMMWORD PTR _rcTop$[ebp], xmm0
  00103	0f 11 45 90	 movups	 XMMWORD PTR _rcBottom$[ebp], xmm0
  00107	0f 11 45 c0	 movups	 XMMWORD PTR _rcLeft$[ebp], xmm0
  0010b	0f 11 45 b0	 movups	 XMMWORD PTR _rcRight$[ebp], xmm0

; 669  : 	::SetRectEmpty(this);

  0010f	ff d3		 call	 ebx
  00111	8d 45 b0	 lea	 eax, DWORD PTR _rcRight$[ebp]
  00114	50		 push	 eax
  00115	ff d3		 call	 ebx
; File D:\git\src\IBK\IBK_DRFN\ProjSrc\SrcChartEx\ChartAddIn\ChartAnalysisToolAddIn\ChartAnalysisToolAddIn\CrosshairsDragAddInImp.cpp

; 384  : 	IBlock *pBlock = m_pIChartManager->GetBlock(0,0);

  00117	8b 4f 28	 mov	 ecx, DWORD PTR [edi+40]
  0011a	6a 00		 push	 0
  0011c	6a 00		 push	 0
  0011e	8b 01		 mov	 eax, DWORD PTR [ecx]
  00120	ff 50 38	 call	 DWORD PTR [eax+56]
  00123	8b f8		 mov	 edi, eax

; 385  : 	pBlock->GetVertScaleRegion(rcLeft,rcRight);	

  00125	8d 45 b0	 lea	 eax, DWORD PTR _rcRight$[ebp]
  00128	50		 push	 eax
  00129	8d 45 c0	 lea	 eax, DWORD PTR _rcLeft$[ebp]
  0012c	8b cf		 mov	 ecx, edi
  0012e	50		 push	 eax
  0012f	8b 17		 mov	 edx, DWORD PTR [edi]
  00131	ff 52 18	 call	 DWORD PTR [edx+24]

; 386  : 	pBlock->Release();

  00134	8b 0f		 mov	 ecx, DWORD PTR [edi]
  00136	57		 push	 edi
  00137	ff 51 08	 call	 DWORD PTR [ecx+8]
; File C:\Program Files (x86)\Microsoft Visual Studio\2019\Community\VC\Tools\MSVC\14.29.30133\atlmfc\include\atltypes.h

; 669  : 	::SetRectEmpty(this);

  0013a	8d 45 a0	 lea	 eax, DWORD PTR _rcTop$[ebp]
  0013d	50		 push	 eax
  0013e	ff d3		 call	 ebx
  00140	8d 45 90	 lea	 eax, DWORD PTR _rcBottom$[ebp]
  00143	50		 push	 eax
  00144	ff d3		 call	 ebx
; File D:\git\src\IBK\IBK_DRFN\ProjSrc\SrcChartEx\ChartAddIn\ChartAnalysisToolAddIn\ChartAnalysisToolAddIn\CrosshairsDragAddInImp.cpp

; 392  : 	int nRowCount = m_pIChartManager->GetRowCount();

  00146	8b 9d 78 ff ff
	ff		 mov	 ebx, DWORD PTR _this$GSCopy$1$[ebp]
; File C:\Program Files (x86)\Microsoft Visual Studio\2019\Community\VC\Tools\MSVC\14.29.30133\atlmfc\include\atltypes.h

; 528  : 	left = 0;

  0014c	c7 45 e0 00 00
	00 00		 mov	 DWORD PTR _rcTopTemp$[ebp], 0
  00153	c7 45 d0 00 00
	00 00		 mov	 DWORD PTR _rcBottomTemp$[ebp], 0
  0015a	c7 45 e4 00 00
	00 00		 mov	 DWORD PTR _rcTopTemp$[ebp+4], 0
; File D:\git\src\IBK\IBK_DRFN\ProjSrc\SrcChartEx\ChartAddIn\ChartAnalysisToolAddIn\ChartAnalysisToolAddIn\CrosshairsDragAddInImp.cpp

; 392  : 	int nRowCount = m_pIChartManager->GetRowCount();

  00161	8b 4b 28	 mov	 ecx, DWORD PTR [ebx+40]
; File C:\Program Files (x86)\Microsoft Visual Studio\2019\Community\VC\Tools\MSVC\14.29.30133\atlmfc\include\atltypes.h

; 528  : 	left = 0;

  00164	c7 45 d4 00 00
	00 00		 mov	 DWORD PTR _rcBottomTemp$[ebp+4], 0
  0016b	c7 45 e8 00 00
	00 00		 mov	 DWORD PTR _rcTopTemp$[ebp+8], 0
  00172	c7 45 d8 00 00
	00 00		 mov	 DWORD PTR _rcBottomTemp$[ebp+8], 0
  00179	c7 45 ec 00 00
	00 00		 mov	 DWORD PTR _rcTopTemp$[ebp+12], 0
  00180	c7 45 dc 00 00
	00 00		 mov	 DWORD PTR _rcBottomTemp$[ebp+12], 0
; File D:\git\src\IBK\IBK_DRFN\ProjSrc\SrcChartEx\ChartAddIn\ChartAnalysisToolAddIn\ChartAnalysisToolAddIn\CrosshairsDragAddInImp.cpp

; 392  : 	int nRowCount = m_pIChartManager->GetRowCount();

  00187	8b 01		 mov	 eax, DWORD PTR [ecx]
  00189	ff 50 1c	 call	 DWORD PTR [eax+28]

; 393  : 	int nColCount = m_pIChartManager->GetColumnCount();

  0018c	8b 4b 28	 mov	 ecx, DWORD PTR [ebx+40]
  0018f	8b f8		 mov	 edi, eax
  00191	89 bd 70 ff ff
	ff		 mov	 DWORD PTR _nRowCount$1$[ebp], edi
  00197	8b 11		 mov	 edx, DWORD PTR [ecx]
  00199	ff 52 20	 call	 DWORD PTR [edx+32]
  0019c	33 d2		 xor	 edx, edx
  0019e	89 85 74 ff ff
	ff		 mov	 DWORD PTR _nColCount$1$[ebp], eax

; 394  : 	for(int i=0;i<nRowCount;i++)

  001a4	85 ff		 test	 edi, edi
  001a6	89 95 7c ff ff
	ff		 mov	 DWORD PTR _i$1$[ebp], edx
  001ac	8b 3d 00 00 00
	00		 mov	 edi, DWORD PTR __imp__IsRectEmpty@4
  001b2	0f 8e 99 00 00
	00		 jle	 $LN3@DrawNewCro
  001b8	8b 8d 70 ff ff
	ff		 mov	 ecx, DWORD PTR _nRowCount$1$[ebp]
  001be	8b f3		 mov	 esi, ebx
$LL4@DrawNewCro:

; 396  : 		for(int j=0;j<nColCount;j++)

  001c0	33 ff		 xor	 edi, edi
  001c2	85 c0		 test	 eax, eax
  001c4	7e 6e		 jle	 SHORT $LN2@DrawNewCro
$LL7@DrawNewCro:

; 397  : 		{
; 398  : 			IBlock *pBlock = m_pIChartManager->GetBlock(i,j);

  001c6	8b 4e 28	 mov	 ecx, DWORD PTR [esi+40]
  001c9	57		 push	 edi
  001ca	52		 push	 edx
  001cb	8b 01		 mov	 eax, DWORD PTR [ecx]
  001cd	ff 50 38	 call	 DWORD PTR [eax+56]
  001d0	8b d8		 mov	 ebx, eax

; 399  : 			pBlock->GetHorzScaleRegion(rcTopTemp,rcBottomTemp);	

  001d2	8d 45 d0	 lea	 eax, DWORD PTR _rcBottomTemp$[ebp]
  001d5	50		 push	 eax
  001d6	8d 45 e0	 lea	 eax, DWORD PTR _rcTopTemp$[ebp]
  001d9	8b cb		 mov	 ecx, ebx
  001db	50		 push	 eax
  001dc	8b 13		 mov	 edx, DWORD PTR [ebx]
  001de	ff 52 14	 call	 DWORD PTR [edx+20]

; 400  : 			pBlock->Release();

  001e1	8b 0b		 mov	 ecx, DWORD PTR [ebx]
  001e3	53		 push	 ebx
  001e4	ff 51 08	 call	 DWORD PTR [ecx+8]
; File C:\Program Files (x86)\Microsoft Visual Studio\2019\Community\VC\Tools\MSVC\14.29.30133\atlmfc\include\atltypes.h

; 638  : 	return ::IsRectEmpty(this);

  001e7	8d 45 e0	 lea	 eax, DWORD PTR _rcTopTemp$[ebp]
  001ea	50		 push	 eax
  001eb	ff 15 00 00 00
	00		 call	 DWORD PTR __imp__IsRectEmpty@4
; File D:\git\src\IBK\IBK_DRFN\ProjSrc\SrcChartEx\ChartAddIn\ChartAnalysisToolAddIn\ChartAnalysisToolAddIn\CrosshairsDragAddInImp.cpp

; 402  : 			if(rcTopTemp.IsRectEmpty() == FALSE)

  001f1	8b 1d 00 00 00
	00		 mov	 ebx, DWORD PTR __imp__CopyRect@8
  001f7	85 c0		 test	 eax, eax
  001f9	75 0a		 jne	 SHORT $LN9@DrawNewCro
; File C:\Program Files (x86)\Microsoft Visual Studio\2019\Community\VC\Tools\MSVC\14.29.30133\atlmfc\include\atltypes.h

; 674  : 	::CopyRect(this, lpSrcRect);

  001fb	8d 45 e0	 lea	 eax, DWORD PTR _rcTopTemp$[ebp]
  001fe	50		 push	 eax
  001ff	8d 45 a0	 lea	 eax, DWORD PTR _rcTop$[ebp]
  00202	50		 push	 eax
  00203	ff d3		 call	 ebx
$LN9@DrawNewCro:

; 638  : 	return ::IsRectEmpty(this);

  00205	8d 45 d0	 lea	 eax, DWORD PTR _rcBottomTemp$[ebp]
  00208	50		 push	 eax
  00209	ff 15 00 00 00
	00		 call	 DWORD PTR __imp__IsRectEmpty@4
; File D:\git\src\IBK\IBK_DRFN\ProjSrc\SrcChartEx\ChartAddIn\ChartAnalysisToolAddIn\ChartAnalysisToolAddIn\CrosshairsDragAddInImp.cpp

; 405  : 			if(rcBottomTemp.IsRectEmpty() == FALSE)

  0020f	85 c0		 test	 eax, eax
  00211	75 0a		 jne	 SHORT $LN5@DrawNewCro
; File C:\Program Files (x86)\Microsoft Visual Studio\2019\Community\VC\Tools\MSVC\14.29.30133\atlmfc\include\atltypes.h

; 674  : 	::CopyRect(this, lpSrcRect);

  00213	8d 45 d0	 lea	 eax, DWORD PTR _rcBottomTemp$[ebp]
  00216	50		 push	 eax
  00217	8d 45 90	 lea	 eax, DWORD PTR _rcBottom$[ebp]
  0021a	50		 push	 eax
  0021b	ff d3		 call	 ebx
$LN5@DrawNewCro:
; File D:\git\src\IBK\IBK_DRFN\ProjSrc\SrcChartEx\ChartAddIn\ChartAnalysisToolAddIn\ChartAnalysisToolAddIn\CrosshairsDragAddInImp.cpp

; 396  : 		for(int j=0;j<nColCount;j++)

  0021d	8b 85 74 ff ff
	ff		 mov	 eax, DWORD PTR _nColCount$1$[ebp]
  00223	47		 inc	 edi
  00224	8b 95 7c ff ff
	ff		 mov	 edx, DWORD PTR _i$1$[ebp]
  0022a	3b f8		 cmp	 edi, eax
  0022c	7c 98		 jl	 SHORT $LL7@DrawNewCro
  0022e	8b 8d 70 ff ff
	ff		 mov	 ecx, DWORD PTR _nRowCount$1$[ebp]
$LN2@DrawNewCro:

; 394  : 	for(int i=0;i<nRowCount;i++)

  00234	42		 inc	 edx
  00235	89 95 7c ff ff
	ff		 mov	 DWORD PTR _i$1$[ebp], edx
  0023b	3b d1		 cmp	 edx, ecx
  0023d	7c 81		 jl	 SHORT $LL4@DrawNewCro
  0023f	8b b5 6c ff ff
	ff		 mov	 esi, DWORD PTR ___mlrs__$1$[ebp]
  00245	8b 9d 78 ff ff
	ff		 mov	 ebx, DWORD PTR _this$GSCopy$1$[ebp]
  0024b	8b 3d 00 00 00
	00		 mov	 edi, DWORD PTR __imp__IsRectEmpty@4
$LN3@DrawNewCro:
; File C:\Program Files (x86)\Microsoft Visual Studio\2019\Community\VC\Tools\MSVC\14.29.30133\atlmfc\include\atltypes.h

; 638  : 	return ::IsRectEmpty(this);

  00251	8d 45 c0	 lea	 eax, DWORD PTR _rcLeft$[ebp]
  00254	50		 push	 eax
  00255	ff d7		 call	 edi
; File D:\git\src\IBK\IBK_DRFN\ProjSrc\SrcChartEx\ChartAddIn\ChartAnalysisToolAddIn\ChartAnalysisToolAddIn\CrosshairsDragAddInImp.cpp

; 410  : 	if(rcLeft.IsRectEmpty())

  00257	0f b6 4d 8b	 movzx	 ecx, BYTE PTR _bLeftExist$1$[ebp]
  0025b	33 d2		 xor	 edx, edx
  0025d	85 c0		 test	 eax, eax
; File C:\Program Files (x86)\Microsoft Visual Studio\2019\Community\VC\Tools\MSVC\14.29.30133\atlmfc\include\atltypes.h

; 638  : 	return ::IsRectEmpty(this);

  0025f	8d 45 b0	 lea	 eax, DWORD PTR _rcRight$[ebp]
  00262	50		 push	 eax
; File D:\git\src\IBK\IBK_DRFN\ProjSrc\SrcChartEx\ChartAddIn\ChartAnalysisToolAddIn\ChartAnalysisToolAddIn\CrosshairsDragAddInImp.cpp

; 410  : 	if(rcLeft.IsRectEmpty())

  00263	0f 45 ca	 cmovne	 ecx, edx
  00266	89 8d 70 ff ff
	ff		 mov	 DWORD PTR tv1667[ebp], ecx
; File C:\Program Files (x86)\Microsoft Visual Studio\2019\Community\VC\Tools\MSVC\14.29.30133\atlmfc\include\atltypes.h

; 638  : 	return ::IsRectEmpty(this);

  0026c	ff d7		 call	 edi
; File D:\git\src\IBK\IBK_DRFN\ProjSrc\SrcChartEx\ChartAddIn\ChartAnalysisToolAddIn\ChartAnalysisToolAddIn\CrosshairsDragAddInImp.cpp

; 413  : 	if(rcRight.IsRectEmpty())

  0026e	0f b6 4d 8a	 movzx	 ecx, BYTE PTR _bRightExist$1$[ebp]
  00272	33 d2		 xor	 edx, edx
  00274	85 c0		 test	 eax, eax
; File C:\Program Files (x86)\Microsoft Visual Studio\2019\Community\VC\Tools\MSVC\14.29.30133\atlmfc\include\atltypes.h

; 638  : 	return ::IsRectEmpty(this);

  00276	8d 45 a0	 lea	 eax, DWORD PTR _rcTop$[ebp]
  00279	50		 push	 eax
; File D:\git\src\IBK\IBK_DRFN\ProjSrc\SrcChartEx\ChartAddIn\ChartAnalysisToolAddIn\ChartAnalysisToolAddIn\CrosshairsDragAddInImp.cpp

; 413  : 	if(rcRight.IsRectEmpty())

  0027a	0f 45 ca	 cmovne	 ecx, edx
  0027d	89 8d 78 ff ff
	ff		 mov	 DWORD PTR tv1671[ebp], ecx
; File C:\Program Files (x86)\Microsoft Visual Studio\2019\Community\VC\Tools\MSVC\14.29.30133\atlmfc\include\atltypes.h

; 638  : 	return ::IsRectEmpty(this);

  00283	ff d7		 call	 edi
; File D:\git\src\IBK\IBK_DRFN\ProjSrc\SrcChartEx\ChartAddIn\ChartAnalysisToolAddIn\ChartAnalysisToolAddIn\CrosshairsDragAddInImp.cpp

; 416  : 	if(rcTop.IsRectEmpty())

  00285	0f b6 4d 89	 movzx	 ecx, BYTE PTR _bTopExist$1$[ebp]
  00289	33 d2		 xor	 edx, edx
  0028b	85 c0		 test	 eax, eax
; File C:\Program Files (x86)\Microsoft Visual Studio\2019\Community\VC\Tools\MSVC\14.29.30133\atlmfc\include\atltypes.h

; 638  : 	return ::IsRectEmpty(this);

  0028d	8d 45 90	 lea	 eax, DWORD PTR _rcBottom$[ebp]
  00290	50		 push	 eax
; File D:\git\src\IBK\IBK_DRFN\ProjSrc\SrcChartEx\ChartAddIn\ChartAnalysisToolAddIn\ChartAnalysisToolAddIn\CrosshairsDragAddInImp.cpp

; 416  : 	if(rcTop.IsRectEmpty())

  00291	0f 45 ca	 cmovne	 ecx, edx
  00294	89 8d 7c ff ff
	ff		 mov	 DWORD PTR tv1675[ebp], ecx
; File C:\Program Files (x86)\Microsoft Visual Studio\2019\Community\VC\Tools\MSVC\14.29.30133\atlmfc\include\atltypes.h

; 638  : 	return ::IsRectEmpty(this);

  0029a	ff d7		 call	 edi
; File D:\git\src\IBK\IBK_DRFN\ProjSrc\SrcChartEx\ChartAddIn\ChartAnalysisToolAddIn\ChartAnalysisToolAddIn\CrosshairsDragAddInImp.cpp

; 419  : 	if(rcBottom.IsRectEmpty())

  0029c	0f b6 4d 88	 movzx	 ecx, BYTE PTR _bBottomExist$1$[ebp]
  002a0	33 d2		 xor	 edx, edx
  002a2	85 c0		 test	 eax, eax
  002a4	0f 45 ca	 cmovne	 ecx, edx

; 420  : 		bBottomExist = false;
; 421  : 
; 422  : 	if(bLeftExist == true)

  002a7	80 bd 70 ff ff
	ff 01		 cmp	 BYTE PTR tv1667[ebp], 1
  002ae	89 8d 74 ff ff
	ff		 mov	 DWORD PTR tv1679[ebp], ecx
  002b4	8b 0d 00 00 00
	00		 mov	 ecx, DWORD PTR __imp__GetTextExtentPoint32A@16
  002ba	75 72		 jne	 SHORT $LN17@DrawNewCro
; File C:\Program Files (x86)\Microsoft Visual Studio\2019\Community\VC\Tools\MSVC\14.29.30133\atlmfc\include\atlsimpstr.h

; 519  : 		return( GetData()->nDataLength );

  002bc	8b 83 30 01 00
	00		 mov	 eax, DWORD PTR [ebx+304]
; File C:\Program Files (x86)\Microsoft Visual Studio\2019\Community\VC\Tools\MSVC\14.29.30133\atlmfc\include\afxwin1.inl

; 639  : 		VERIFY(::GetTextExtentPoint32(m_hAttribDC, str, (int)str.GetLength(), &size));

  002c2	8d 55 80	 lea	 edx, DWORD PTR _size$5[ebp]
  002c5	52		 push	 edx
  002c6	8b 55 8c	 mov	 edx, DWORD PTR _pDC$1$[ebp]
  002c9	ff 70 f4	 push	 DWORD PTR [eax-12]
  002cc	50		 push	 eax
  002cd	ff 72 08	 push	 DWORD PTR [edx+8]
  002d0	ff d1		 call	 ecx
; File D:\git\src\IBK\IBK_DRFN\ProjSrc\SrcChartEx\ChartAddIn\ChartAnalysisToolAddIn\ChartAnalysisToolAddIn\CrosshairsDragAddInImp.cpp

; 425  : 		m_rctTextLeft.top = m_ptOldMouse.y - szTextLeft.cy/2;

  002d2	8b 45 84	 mov	 eax, DWORD PTR _size$5[ebp+4]
  002d5	8b bb e8 00 00
	00		 mov	 edi, DWORD PTR [ebx+232]
  002db	8b cf		 mov	 ecx, edi
  002dd	99		 cdq
  002de	2b c2		 sub	 eax, edx

; 426  : 		m_rctTextLeft.bottom = m_ptOldMouse.y + szTextLeft.cy/2+3;
; 427  : 		if((rcLeft.right - szTextLeft.cx-5) <= rcLeft.left)

  002e0	8b 55 c8	 mov	 edx, DWORD PTR _rcLeft$[ebp+8]
  002e3	d1 f8		 sar	 eax, 1
  002e5	2b c8		 sub	 ecx, eax
  002e7	83 c0 03	 add	 eax, 3
  002ea	03 c7		 add	 eax, edi
  002ec	89 8b f0 00 00
	00		 mov	 DWORD PTR [ebx+240], ecx
  002f2	8b 7d 80	 mov	 edi, DWORD PTR _size$5[ebp]
  002f5	8b 4d c0	 mov	 ecx, DWORD PTR _rcLeft$[ebp]
  002f8	89 83 f8 00 00
	00		 mov	 DWORD PTR [ebx+248], eax
  002fe	8b c2		 mov	 eax, edx
  00300	2b c7		 sub	 eax, edi
  00302	83 c0 fb	 add	 eax, -5			; fffffffbH
  00305	3b c1		 cmp	 eax, ecx
  00307	7f 13		 jg	 SHORT $LN16@DrawNewCro

; 428  : 		{
; 429  : 			m_rctTextLeft.right = rcLeft.left + szTextLeft.cx+5;

  00309	8d 41 05	 lea	 eax, DWORD PTR [ecx+5]

; 430  : 			m_rctTextLeft.left = rcLeft.left;

  0030c	89 8b ec 00 00
	00		 mov	 DWORD PTR [ebx+236], ecx
  00312	03 c7		 add	 eax, edi
  00314	89 83 f4 00 00
	00		 mov	 DWORD PTR [ebx+244], eax

; 431  : 		}

  0031a	eb 0c		 jmp	 SHORT $LN198@DrawNewCro
$LN16@DrawNewCro:

; 432  : 		else
; 433  : 		{
; 434  : 			m_rctTextLeft.left = rcLeft.right - szTextLeft.cx-5;

  0031c	89 83 ec 00 00
	00		 mov	 DWORD PTR [ebx+236], eax

; 435  : 			m_rctTextLeft.right = rcLeft.right;

  00322	89 93 f4 00 00
	00		 mov	 DWORD PTR [ebx+244], edx
$LN198@DrawNewCro:

; 436  : 		}	
; 437  : 	}
; 438  : 
; 439  : 	if(bRightExist == true)

  00328	8b 0d 00 00 00
	00		 mov	 ecx, DWORD PTR __imp__GetTextExtentPoint32A@16
$LN17@DrawNewCro:
  0032e	80 bd 78 ff ff
	ff 01		 cmp	 BYTE PTR tv1671[ebp], 1
  00335	75 6a		 jne	 SHORT $LN20@DrawNewCro
; File C:\Program Files (x86)\Microsoft Visual Studio\2019\Community\VC\Tools\MSVC\14.29.30133\atlmfc\include\atlsimpstr.h

; 519  : 		return( GetData()->nDataLength );

  00337	8b 83 30 01 00
	00		 mov	 eax, DWORD PTR [ebx+304]
; File C:\Program Files (x86)\Microsoft Visual Studio\2019\Community\VC\Tools\MSVC\14.29.30133\atlmfc\include\afxwin1.inl

; 639  : 		VERIFY(::GetTextExtentPoint32(m_hAttribDC, str, (int)str.GetLength(), &size));

  0033d	8d 55 80	 lea	 edx, DWORD PTR _size$4[ebp]
  00340	52		 push	 edx
  00341	ff 70 f4	 push	 DWORD PTR [eax-12]
  00344	50		 push	 eax
  00345	8b 45 8c	 mov	 eax, DWORD PTR _pDC$1$[ebp]
  00348	ff 70 08	 push	 DWORD PTR [eax+8]
  0034b	ff d1		 call	 ecx
; File D:\git\src\IBK\IBK_DRFN\ProjSrc\SrcChartEx\ChartAddIn\ChartAnalysisToolAddIn\ChartAnalysisToolAddIn\CrosshairsDragAddInImp.cpp

; 442  : 		m_rctTextRight.top = m_ptOldMouse.y - szTextRight.cy/2;

  0034d	8b 45 84	 mov	 eax, DWORD PTR _size$4[ebp+4]
  00350	8b bb e8 00 00
	00		 mov	 edi, DWORD PTR [ebx+232]
  00356	8b cf		 mov	 ecx, edi
  00358	99		 cdq
  00359	2b c2		 sub	 eax, edx
  0035b	d1 f8		 sar	 eax, 1
  0035d	2b c8		 sub	 ecx, eax

; 443  : 		m_rctTextRight.bottom = m_ptOldMouse.y + szTextRight.cy/2+3;

  0035f	83 c0 03	 add	 eax, 3
  00362	89 8b 00 01 00
	00		 mov	 DWORD PTR [ebx+256], ecx
  00368	03 c7		 add	 eax, edi

; 444  : 		if((rcRight.left + szTextRight.cx+5) >= rcRight.right)

  0036a	8b 4d b0	 mov	 ecx, DWORD PTR _rcRight$[ebp]
  0036d	8b 7d 80	 mov	 edi, DWORD PTR _size$4[ebp]
  00370	89 83 08 01 00
	00		 mov	 DWORD PTR [ebx+264], eax
  00376	8b 45 b8	 mov	 eax, DWORD PTR _rcRight$[ebp+8]
  00379	8d 51 05	 lea	 edx, DWORD PTR [ecx+5]
  0037c	03 d7		 add	 edx, edi
  0037e	3b d0		 cmp	 edx, eax
  00380	7c 13		 jl	 SHORT $LN19@DrawNewCro

; 445  : 		{
; 446  : 			m_rctTextRight.right = rcRight.right;

  00382	89 83 04 01 00
	00		 mov	 DWORD PTR [ebx+260], eax

; 447  : 			m_rctTextRight.left = rcRight.right - szTextRight.cx-5;

  00388	2b c7		 sub	 eax, edi
  0038a	83 e8 05	 sub	 eax, 5
  0038d	89 83 fc 00 00
	00		 mov	 DWORD PTR [ebx+252], eax

; 448  : 		}

  00393	eb 0c		 jmp	 SHORT $LN20@DrawNewCro
$LN19@DrawNewCro:

; 449  : 		else
; 450  : 		{
; 451  : 			m_rctTextRight.right = rcRight.left + szTextRight.cx+5;

  00395	89 93 04 01 00
	00		 mov	 DWORD PTR [ebx+260], edx

; 452  : 			m_rctTextRight.left = rcRight.left;

  0039b	89 8b fc 00 00
	00		 mov	 DWORD PTR [ebx+252], ecx
$LN20@DrawNewCro:

; 453  : 		}
; 454  : 	}
; 455  : 	
; 456  : 	if(bTopExist == true)

  003a1	80 bd 7c ff ff
	ff 01		 cmp	 BYTE PTR tv1675[ebp], 1
  003a8	75 52		 jne	 SHORT $LN193@DrawNewCro
; File C:\Program Files (x86)\Microsoft Visual Studio\2019\Community\VC\Tools\MSVC\14.29.30133\atlmfc\include\atlsimpstr.h

; 519  : 		return( GetData()->nDataLength );

  003aa	8b 83 2c 01 00
	00		 mov	 eax, DWORD PTR [ebx+300]
; File C:\Program Files (x86)\Microsoft Visual Studio\2019\Community\VC\Tools\MSVC\14.29.30133\atlmfc\include\afxwin1.inl

; 639  : 		VERIFY(::GetTextExtentPoint32(m_hAttribDC, str, (int)str.GetLength(), &size));

  003b0	8d 4d 80	 lea	 ecx, DWORD PTR _size$3[ebp]
  003b3	51		 push	 ecx
  003b4	ff 70 f4	 push	 DWORD PTR [eax-12]
  003b7	50		 push	 eax
  003b8	8b 45 8c	 mov	 eax, DWORD PTR _pDC$1$[ebp]
  003bb	ff 70 08	 push	 DWORD PTR [eax+8]
  003be	ff 15 00 00 00
	00		 call	 DWORD PTR __imp__GetTextExtentPoint32A@16
; File D:\git\src\IBK\IBK_DRFN\ProjSrc\SrcChartEx\ChartAddIn\ChartAnalysisToolAddIn\ChartAnalysisToolAddIn\CrosshairsDragAddInImp.cpp

; 459  : 		m_rctTextTop.top = rcTop.top;

  003c4	8b 4d a4	 mov	 ecx, DWORD PTR _rcTop$[ebp+4]

; 460  : 		m_rctTextTop.bottom = rcTop.top + szTextTop.cy+2;

  003c7	8b 45 84	 mov	 eax, DWORD PTR _size$3[ebp+4]

; 461  : 		m_rctTextTop.right = m_ptOldMouse.x + szTextTop.cx/2 + 5;

  003ca	8b bb e4 00 00
	00		 mov	 edi, DWORD PTR [ebx+228]
  003d0	89 8b 10 01 00
	00		 mov	 DWORD PTR [ebx+272], ecx
  003d6	83 c1 02	 add	 ecx, 2
  003d9	03 c1		 add	 eax, ecx
  003db	89 83 18 01 00
	00		 mov	 DWORD PTR [ebx+280], eax
  003e1	8b 45 80	 mov	 eax, DWORD PTR _size$3[ebp]
  003e4	99		 cdq
  003e5	2b c2		 sub	 eax, edx
  003e7	d1 f8		 sar	 eax, 1
  003e9	8d 48 05	 lea	 ecx, DWORD PTR [eax+5]
  003ec	03 cf		 add	 ecx, edi

; 462  : 		m_rctTextTop.left = m_ptOldMouse.x - szTextTop.cx/2;

  003ee	2b f8		 sub	 edi, eax
  003f0	89 8b 14 01 00
	00		 mov	 DWORD PTR [ebx+276], ecx
  003f6	89 bb 0c 01 00
	00		 mov	 DWORD PTR [ebx+268], edi
$LN193@DrawNewCro:

; 463  : 	}
; 464  : 
; 465  : 	if(bBottomExist == true)

  003fc	80 bd 74 ff ff
	ff 01		 cmp	 BYTE PTR tv1679[ebp], 1
  00403	75 52		 jne	 SHORT $LN194@DrawNewCro
; File C:\Program Files (x86)\Microsoft Visual Studio\2019\Community\VC\Tools\MSVC\14.29.30133\atlmfc\include\atlsimpstr.h

; 519  : 		return( GetData()->nDataLength );

  00405	8b 83 2c 01 00
	00		 mov	 eax, DWORD PTR [ebx+300]
; File C:\Program Files (x86)\Microsoft Visual Studio\2019\Community\VC\Tools\MSVC\14.29.30133\atlmfc\include\afxwin1.inl

; 639  : 		VERIFY(::GetTextExtentPoint32(m_hAttribDC, str, (int)str.GetLength(), &size));

  0040b	8d 4d 80	 lea	 ecx, DWORD PTR _size$2[ebp]
  0040e	51		 push	 ecx
  0040f	ff 70 f4	 push	 DWORD PTR [eax-12]
  00412	50		 push	 eax
  00413	8b 45 8c	 mov	 eax, DWORD PTR _pDC$1$[ebp]
  00416	ff 70 08	 push	 DWORD PTR [eax+8]
  00419	ff 15 00 00 00
	00		 call	 DWORD PTR __imp__GetTextExtentPoint32A@16
; File D:\git\src\IBK\IBK_DRFN\ProjSrc\SrcChartEx\ChartAddIn\ChartAnalysisToolAddIn\ChartAnalysisToolAddIn\CrosshairsDragAddInImp.cpp

; 468  : 		m_rctTextBottom.top = rcBottom.top;

  0041f	8b 4d 94	 mov	 ecx, DWORD PTR _rcBottom$[ebp+4]

; 469  : 		m_rctTextBottom.bottom = rcBottom.top + szTextBottom.cy+2;

  00422	8b 45 84	 mov	 eax, DWORD PTR _size$2[ebp+4]

; 470  : 		m_rctTextBottom.right = m_ptOldMouse.x + szTextBottom.cx/2 + 5;

  00425	8b bb e4 00 00
	00		 mov	 edi, DWORD PTR [ebx+228]
  0042b	89 8b 20 01 00
	00		 mov	 DWORD PTR [ebx+288], ecx
  00431	83 c1 02	 add	 ecx, 2
  00434	03 c1		 add	 eax, ecx
  00436	89 83 28 01 00
	00		 mov	 DWORD PTR [ebx+296], eax
  0043c	8b 45 80	 mov	 eax, DWORD PTR _size$2[ebp]
  0043f	99		 cdq
  00440	2b c2		 sub	 eax, edx
  00442	d1 f8		 sar	 eax, 1
  00444	8d 48 05	 lea	 ecx, DWORD PTR [eax+5]
  00447	03 cf		 add	 ecx, edi

; 471  : 		m_rctTextBottom.left = m_ptOldMouse.x - szTextBottom.cx/2;

  00449	2b f8		 sub	 edi, eax
  0044b	89 8b 24 01 00
	00		 mov	 DWORD PTR [ebx+292], ecx
  00451	89 bb 1c 01 00
	00		 mov	 DWORD PTR [ebx+284], edi
$LN194@DrawNewCro:

; 472  : 	}
; 473  : 
; 474  : 	// 5.    .
; 475  : 	// 5.1 NOT Line .
; 476  : 	int nPreROP = pDC->SetROP2( R2_NOT);

  00457	8b 4d 8c	 mov	 ecx, DWORD PTR _pDC$1$[ebp]
  0045a	6a 06		 push	 6
  0045c	e8 00 00 00 00	 call	 ?SetROP2@CDC@@QAEHH@Z	; CDC::SetROP2

; 477  : 	pDC->MoveTo( m_rctBlockRegion.left,	m_ptOldMouse.y);

  00461	ff b3 e8 00 00
	00		 push	 DWORD PTR [ebx+232]
  00467	8b 4d 8c	 mov	 ecx, DWORD PTR _pDC$1$[ebp]
  0046a	8b f8		 mov	 edi, eax
  0046c	ff b3 bc 00 00
	00		 push	 DWORD PTR [ebx+188]
  00472	8d 45 80	 lea	 eax, DWORD PTR $T7[ebp]
  00475	50		 push	 eax
  00476	e8 00 00 00 00	 call	 ?MoveTo@CDC@@QAE?AVCPoint@@HH@Z ; CDC::MoveTo

; 478  : 	pDC->LineTo( m_rctBlockRegion.right,m_ptOldMouse.y);

  0047b	ff b3 e8 00 00
	00		 push	 DWORD PTR [ebx+232]
  00481	8b 4d 8c	 mov	 ecx, DWORD PTR _pDC$1$[ebp]
  00484	ff b3 c4 00 00
	00		 push	 DWORD PTR [ebx+196]
  0048a	e8 00 00 00 00	 call	 ?LineTo@CDC@@QAEHHH@Z	; CDC::LineTo

; 479  : 
; 480  : 	pDC->MoveTo( m_ptOldMouse.x,m_rctBlockRegion.top);

  0048f	ff b3 c0 00 00
	00		 push	 DWORD PTR [ebx+192]
  00495	8b 4d 8c	 mov	 ecx, DWORD PTR _pDC$1$[ebp]
  00498	8d 45 80	 lea	 eax, DWORD PTR $T6[ebp]
  0049b	ff b3 e4 00 00
	00		 push	 DWORD PTR [ebx+228]
  004a1	50		 push	 eax
  004a2	e8 00 00 00 00	 call	 ?MoveTo@CDC@@QAE?AVCPoint@@HH@Z ; CDC::MoveTo

; 481  : 	pDC->LineTo( m_ptOldMouse.x,m_rctBlockRegion.bottom);

  004a7	ff b3 c8 00 00
	00		 push	 DWORD PTR [ebx+200]
  004ad	8b 4d 8c	 mov	 ecx, DWORD PTR _pDC$1$[ebp]
  004b0	ff b3 e4 00 00
	00		 push	 DWORD PTR [ebx+228]
  004b6	e8 00 00 00 00	 call	 ?LineTo@CDC@@QAEHHH@Z	; CDC::LineTo

; 482  : 	pDC->SetROP2( nPreROP);

  004bb	57		 push	 edi
  004bc	8b 7d 8c	 mov	 edi, DWORD PTR _pDC$1$[ebp]
  004bf	8b cf		 mov	 ecx, edi
  004c1	e8 00 00 00 00	 call	 ?SetROP2@CDC@@QAEHH@Z	; CDC::SetROP2

; 483  : 		
; 484  : 	CPen *	pOldPen		= ( CPen *)pDC->SelectStockObject( BLACK_PEN);

  004c6	8b 07		 mov	 eax, DWORD PTR [edi]
  004c8	8b cf		 mov	 ecx, edi
  004ca	6a 07		 push	 7
  004cc	ff 50 2c	 call	 DWORD PTR [eax+44]

; 485  : 	CBrush *pOldBrush	= ( CBrush *)pDC->SelectStockObject( WHITE_BRUSH);

  004cf	8b 17		 mov	 edx, DWORD PTR [edi]
  004d1	8b cf		 mov	 ecx, edi
  004d3	6a 00		 push	 0
  004d5	89 45 84	 mov	 DWORD PTR _pOldPen$1$[ebp], eax
  004d8	ff 52 2c	 call	 DWORD PTR [edx+44]

; 486  : 
; 487  : 	if(bLeftExist == true)

  004db	80 bd 70 ff ff
	ff 01		 cmp	 BYTE PTR tv1667[ebp], 1
  004e2	89 85 6c ff ff
	ff		 mov	 DWORD PTR _pOldBrush$1$[ebp], eax
  004e8	a1 00 00 00 00	 mov	 eax, DWORD PTR __imp__Rectangle@20
  004ed	75 4d		 jne	 SHORT $LN23@DrawNewCro
; File C:\Program Files (x86)\Microsoft Visual Studio\2019\Community\VC\Tools\MSVC\14.29.30133\atlmfc\include\afxwin1.inl

; 541  : 	{ ASSERT(m_hDC != NULL); return ::Rectangle(m_hDC, lpRect->left, lpRect->top,

  004ef	ff b3 f8 00 00
	00		 push	 DWORD PTR [ebx+248]
  004f5	ff b3 f4 00 00
	00		 push	 DWORD PTR [ebx+244]
  004fb	ff b3 f0 00 00
	00		 push	 DWORD PTR [ebx+240]
  00501	ff b3 ec 00 00
	00		 push	 DWORD PTR [ebx+236]
  00507	ff 77 04	 push	 DWORD PTR [edi+4]
  0050a	ff d0		 call	 eax
; File C:\Program Files (x86)\Microsoft Visual Studio\2019\Community\VC\Tools\MSVC\14.29.30133\atlmfc\include\atlsimpstr.h

; 519  : 		return( GetData()->nDataLength );

  0050c	8b 83 30 01 00
	00		 mov	 eax, DWORD PTR [ebx+304]
; File D:\git\src\IBK\IBK_DRFN\ProjSrc\SrcChartEx\ChartAddIn\ChartAnalysisToolAddIn\ChartAnalysisToolAddIn\CrosshairsDragAddInImp.cpp

; 490  : 		pDC->TextOut( m_rctTextLeft.left + 3, m_rctTextLeft.top + 2, m_strTextYValue);

  00512	8b bb f0 00 00
	00		 mov	 edi, DWORD PTR [ebx+240]
; File C:\Program Files (x86)\Microsoft Visual Studio\2019\Community\VC\Tools\MSVC\14.29.30133\atlmfc\include\afxwin1.inl

; 574  : 	{ ASSERT(m_hDC != NULL); return TextOut(x, y, (LPCTSTR)str, (int)str.GetLength()); } // call virtual

  00518	8b 55 8c	 mov	 edx, DWORD PTR _pDC$1$[ebp]
; File D:\git\src\IBK\IBK_DRFN\ProjSrc\SrcChartEx\ChartAddIn\ChartAnalysisToolAddIn\ChartAnalysisToolAddIn\CrosshairsDragAddInImp.cpp

; 490  : 		pDC->TextOut( m_rctTextLeft.left + 3, m_rctTextLeft.top + 2, m_strTextYValue);

  0051b	83 c7 02	 add	 edi, 2
  0051e	8b 8b ec 00 00
	00		 mov	 ecx, DWORD PTR [ebx+236]
; File C:\Program Files (x86)\Microsoft Visual Studio\2019\Community\VC\Tools\MSVC\14.29.30133\atlmfc\include\afxwin1.inl

; 574  : 	{ ASSERT(m_hDC != NULL); return TextOut(x, y, (LPCTSTR)str, (int)str.GetLength()); } // call virtual

  00524	ff 70 f4	 push	 DWORD PTR [eax-12]
; File D:\git\src\IBK\IBK_DRFN\ProjSrc\SrcChartEx\ChartAddIn\ChartAnalysisToolAddIn\ChartAnalysisToolAddIn\CrosshairsDragAddInImp.cpp

; 490  : 		pDC->TextOut( m_rctTextLeft.left + 3, m_rctTextLeft.top + 2, m_strTextYValue);

  00527	83 c1 03	 add	 ecx, 3
; File C:\Program Files (x86)\Microsoft Visual Studio\2019\Community\VC\Tools\MSVC\14.29.30133\atlmfc\include\afxwin1.inl

; 574  : 	{ ASSERT(m_hDC != NULL); return TextOut(x, y, (LPCTSTR)str, (int)str.GetLength()); } // call virtual

  0052a	8b 12		 mov	 edx, DWORD PTR [edx]
  0052c	50		 push	 eax
  0052d	57		 push	 edi
  0052e	8b 7d 8c	 mov	 edi, DWORD PTR _pDC$1$[ebp]
  00531	51		 push	 ecx
  00532	8b cf		 mov	 ecx, edi
  00534	ff 52 64	 call	 DWORD PTR [edx+100]
  00537	a1 00 00 00 00	 mov	 eax, DWORD PTR __imp__Rectangle@20
$LN23@DrawNewCro:
; File D:\git\src\IBK\IBK_DRFN\ProjSrc\SrcChartEx\ChartAddIn\ChartAnalysisToolAddIn\ChartAnalysisToolAddIn\CrosshairsDragAddInImp.cpp

; 493  : 	if(bRightExist == true)

  0053c	80 bd 78 ff ff
	ff 01		 cmp	 BYTE PTR tv1671[ebp], 1
  00543	75 48		 jne	 SHORT $LN24@DrawNewCro
; File C:\Program Files (x86)\Microsoft Visual Studio\2019\Community\VC\Tools\MSVC\14.29.30133\atlmfc\include\afxwin1.inl

; 541  : 	{ ASSERT(m_hDC != NULL); return ::Rectangle(m_hDC, lpRect->left, lpRect->top,

  00545	ff b3 08 01 00
	00		 push	 DWORD PTR [ebx+264]
  0054b	ff b3 04 01 00
	00		 push	 DWORD PTR [ebx+260]
  00551	ff b3 00 01 00
	00		 push	 DWORD PTR [ebx+256]
  00557	ff b3 fc 00 00
	00		 push	 DWORD PTR [ebx+252]
  0055d	ff 77 04	 push	 DWORD PTR [edi+4]
  00560	ff d0		 call	 eax
; File C:\Program Files (x86)\Microsoft Visual Studio\2019\Community\VC\Tools\MSVC\14.29.30133\atlmfc\include\atlsimpstr.h

; 519  : 		return( GetData()->nDataLength );

  00562	8b 83 30 01 00
	00		 mov	 eax, DWORD PTR [ebx+304]
; File D:\git\src\IBK\IBK_DRFN\ProjSrc\SrcChartEx\ChartAddIn\ChartAnalysisToolAddIn\ChartAnalysisToolAddIn\CrosshairsDragAddInImp.cpp

; 496  : 		pDC->TextOut( m_rctTextRight.left + 3, m_rctTextRight.top + 2, m_strTextYValue);

  00568	8b bb 00 01 00
	00		 mov	 edi, DWORD PTR [ebx+256]
; File C:\Program Files (x86)\Microsoft Visual Studio\2019\Community\VC\Tools\MSVC\14.29.30133\atlmfc\include\afxwin1.inl

; 574  : 	{ ASSERT(m_hDC != NULL); return TextOut(x, y, (LPCTSTR)str, (int)str.GetLength()); } // call virtual

  0056e	8b 55 8c	 mov	 edx, DWORD PTR _pDC$1$[ebp]
; File D:\git\src\IBK\IBK_DRFN\ProjSrc\SrcChartEx\ChartAddIn\ChartAnalysisToolAddIn\ChartAnalysisToolAddIn\CrosshairsDragAddInImp.cpp

; 496  : 		pDC->TextOut( m_rctTextRight.left + 3, m_rctTextRight.top + 2, m_strTextYValue);

  00571	83 c7 02	 add	 edi, 2
  00574	8b 8b fc 00 00
	00		 mov	 ecx, DWORD PTR [ebx+252]
; File C:\Program Files (x86)\Microsoft Visual Studio\2019\Community\VC\Tools\MSVC\14.29.30133\atlmfc\include\afxwin1.inl

; 574  : 	{ ASSERT(m_hDC != NULL); return TextOut(x, y, (LPCTSTR)str, (int)str.GetLength()); } // call virtual

  0057a	ff 70 f4	 push	 DWORD PTR [eax-12]
; File D:\git\src\IBK\IBK_DRFN\ProjSrc\SrcChartEx\ChartAddIn\ChartAnalysisToolAddIn\ChartAnalysisToolAddIn\CrosshairsDragAddInImp.cpp

; 496  : 		pDC->TextOut( m_rctTextRight.left + 3, m_rctTextRight.top + 2, m_strTextYValue);

  0057d	83 c1 03	 add	 ecx, 3
; File C:\Program Files (x86)\Microsoft Visual Studio\2019\Community\VC\Tools\MSVC\14.29.30133\atlmfc\include\afxwin1.inl

; 574  : 	{ ASSERT(m_hDC != NULL); return TextOut(x, y, (LPCTSTR)str, (int)str.GetLength()); } // call virtual

  00580	8b 12		 mov	 edx, DWORD PTR [edx]
  00582	50		 push	 eax
  00583	57		 push	 edi
  00584	8b 7d 8c	 mov	 edi, DWORD PTR _pDC$1$[ebp]
  00587	51		 push	 ecx
  00588	8b cf		 mov	 ecx, edi
  0058a	ff 52 64	 call	 DWORD PTR [edx+100]
$LN24@DrawNewCro:
; File D:\git\src\IBK\IBK_DRFN\ProjSrc\SrcChartEx\ChartAddIn\ChartAnalysisToolAddIn\ChartAnalysisToolAddIn\CrosshairsDragAddInImp.cpp

; 499  : 	if(bTopExist == true)

  0058d	80 bd 7c ff ff
	ff 01		 cmp	 BYTE PTR tv1675[ebp], 1
  00594	75 4c		 jne	 SHORT $LN25@DrawNewCro
; File C:\Program Files (x86)\Microsoft Visual Studio\2019\Community\VC\Tools\MSVC\14.29.30133\atlmfc\include\afxwin1.inl

; 541  : 	{ ASSERT(m_hDC != NULL); return ::Rectangle(m_hDC, lpRect->left, lpRect->top,

  00596	ff b3 18 01 00
	00		 push	 DWORD PTR [ebx+280]
  0059c	ff b3 14 01 00
	00		 push	 DWORD PTR [ebx+276]
  005a2	ff b3 10 01 00
	00		 push	 DWORD PTR [ebx+272]
  005a8	ff b3 0c 01 00
	00		 push	 DWORD PTR [ebx+268]
  005ae	ff 77 04	 push	 DWORD PTR [edi+4]
  005b1	ff 15 00 00 00
	00		 call	 DWORD PTR __imp__Rectangle@20
; File C:\Program Files (x86)\Microsoft Visual Studio\2019\Community\VC\Tools\MSVC\14.29.30133\atlmfc\include\atlsimpstr.h

; 519  : 		return( GetData()->nDataLength );

  005b7	8b 83 2c 01 00
	00		 mov	 eax, DWORD PTR [ebx+300]
; File D:\git\src\IBK\IBK_DRFN\ProjSrc\SrcChartEx\ChartAddIn\ChartAnalysisToolAddIn\ChartAnalysisToolAddIn\CrosshairsDragAddInImp.cpp

; 502  : 		pDC->TextOut( m_rctTextTop.left + 3, m_rctTextTop.top + 2, m_strTextXDate);

  005bd	8b bb 10 01 00
	00		 mov	 edi, DWORD PTR [ebx+272]
; File C:\Program Files (x86)\Microsoft Visual Studio\2019\Community\VC\Tools\MSVC\14.29.30133\atlmfc\include\afxwin1.inl

; 574  : 	{ ASSERT(m_hDC != NULL); return TextOut(x, y, (LPCTSTR)str, (int)str.GetLength()); } // call virtual

  005c3	8b 55 8c	 mov	 edx, DWORD PTR _pDC$1$[ebp]
; File D:\git\src\IBK\IBK_DRFN\ProjSrc\SrcChartEx\ChartAddIn\ChartAnalysisToolAddIn\ChartAnalysisToolAddIn\CrosshairsDragAddInImp.cpp

; 502  : 		pDC->TextOut( m_rctTextTop.left + 3, m_rctTextTop.top + 2, m_strTextXDate);

  005c6	83 c7 02	 add	 edi, 2
  005c9	8b 8b 0c 01 00
	00		 mov	 ecx, DWORD PTR [ebx+268]
; File C:\Program Files (x86)\Microsoft Visual Studio\2019\Community\VC\Tools\MSVC\14.29.30133\atlmfc\include\afxwin1.inl

; 574  : 	{ ASSERT(m_hDC != NULL); return TextOut(x, y, (LPCTSTR)str, (int)str.GetLength()); } // call virtual

  005cf	ff 70 f4	 push	 DWORD PTR [eax-12]
; File D:\git\src\IBK\IBK_DRFN\ProjSrc\SrcChartEx\ChartAddIn\ChartAnalysisToolAddIn\ChartAnalysisToolAddIn\CrosshairsDragAddInImp.cpp

; 502  : 		pDC->TextOut( m_rctTextTop.left + 3, m_rctTextTop.top + 2, m_strTextXDate);

  005d2	83 c1 03	 add	 ecx, 3
; File C:\Program Files (x86)\Microsoft Visual Studio\2019\Community\VC\Tools\MSVC\14.29.30133\atlmfc\include\afxwin1.inl

; 574  : 	{ ASSERT(m_hDC != NULL); return TextOut(x, y, (LPCTSTR)str, (int)str.GetLength()); } // call virtual

  005d5	8b 12		 mov	 edx, DWORD PTR [edx]
  005d7	50		 push	 eax
  005d8	57		 push	 edi
  005d9	8b 7d 8c	 mov	 edi, DWORD PTR _pDC$1$[ebp]
  005dc	51		 push	 ecx
  005dd	8b cf		 mov	 ecx, edi
  005df	ff 52 64	 call	 DWORD PTR [edx+100]
$LN25@DrawNewCro:
; File D:\git\src\IBK\IBK_DRFN\ProjSrc\SrcChartEx\ChartAddIn\ChartAnalysisToolAddIn\ChartAnalysisToolAddIn\CrosshairsDragAddInImp.cpp

; 505  : 	if(bBottomExist == true)

  005e2	80 bd 74 ff ff
	ff 01		 cmp	 BYTE PTR tv1679[ebp], 1
  005e9	75 42		 jne	 SHORT $LN26@DrawNewCro
; File C:\Program Files (x86)\Microsoft Visual Studio\2019\Community\VC\Tools\MSVC\14.29.30133\atlmfc\include\afxwin1.inl

; 541  : 	{ ASSERT(m_hDC != NULL); return ::Rectangle(m_hDC, lpRect->left, lpRect->top,

  005eb	ff b3 28 01 00
	00		 push	 DWORD PTR [ebx+296]
  005f1	ff b3 24 01 00
	00		 push	 DWORD PTR [ebx+292]
  005f7	ff b3 20 01 00
	00		 push	 DWORD PTR [ebx+288]
  005fd	ff b3 1c 01 00
	00		 push	 DWORD PTR [ebx+284]
  00603	ff 77 04	 push	 DWORD PTR [edi+4]
  00606	ff 15 00 00 00
	00		 call	 DWORD PTR __imp__Rectangle@20
; File C:\Program Files (x86)\Microsoft Visual Studio\2019\Community\VC\Tools\MSVC\14.29.30133\atlmfc\include\atlsimpstr.h

; 519  : 		return( GetData()->nDataLength );

  0060c	8b 83 2c 01 00
	00		 mov	 eax, DWORD PTR [ebx+300]
; File D:\git\src\IBK\IBK_DRFN\ProjSrc\SrcChartEx\ChartAddIn\ChartAnalysisToolAddIn\ChartAnalysisToolAddIn\CrosshairsDragAddInImp.cpp

; 508  : 		pDC->TextOut( m_rctTextBottom.left + 3, m_rctTextBottom.top/* + 2*/, m_strTextXDate);

  00612	8b 8b 1c 01 00
	00		 mov	 ecx, DWORD PTR [ebx+284]
; File C:\Program Files (x86)\Microsoft Visual Studio\2019\Community\VC\Tools\MSVC\14.29.30133\atlmfc\include\afxwin1.inl

; 574  : 	{ ASSERT(m_hDC != NULL); return TextOut(x, y, (LPCTSTR)str, (int)str.GetLength()); } // call virtual

  00618	8b 17		 mov	 edx, DWORD PTR [edi]
; File D:\git\src\IBK\IBK_DRFN\ProjSrc\SrcChartEx\ChartAddIn\ChartAnalysisToolAddIn\ChartAnalysisToolAddIn\CrosshairsDragAddInImp.cpp

; 508  : 		pDC->TextOut( m_rctTextBottom.left + 3, m_rctTextBottom.top/* + 2*/, m_strTextXDate);

  0061a	83 c1 03	 add	 ecx, 3
; File C:\Program Files (x86)\Microsoft Visual Studio\2019\Community\VC\Tools\MSVC\14.29.30133\atlmfc\include\afxwin1.inl

; 574  : 	{ ASSERT(m_hDC != NULL); return TextOut(x, y, (LPCTSTR)str, (int)str.GetLength()); } // call virtual

  0061d	ff 70 f4	 push	 DWORD PTR [eax-12]
  00620	50		 push	 eax
  00621	ff b3 20 01 00
	00		 push	 DWORD PTR [ebx+288]
  00627	51		 push	 ecx
  00628	8b cf		 mov	 ecx, edi
  0062a	ff 52 64	 call	 DWORD PTR [edx+100]
$LN26@DrawNewCro:
; File D:\git\src\IBK\IBK_DRFN\ProjSrc\SrcChartEx\ChartAddIn\ChartAnalysisToolAddIn\ChartAnalysisToolAddIn\CrosshairsDragAddInImp.cpp

; 511  : 	pDC->SelectObject( pOldBrush);

  0062d	ff b5 6c ff ff
	ff		 push	 DWORD PTR _pOldBrush$1$[ebp]
  00633	8b cf		 mov	 ecx, edi
  00635	e8 00 00 00 00	 call	 ?SelectObject@CDC@@QAEPAVCBrush@@PAV2@@Z ; CDC::SelectObject

; 512  : 	pDC->SelectObject( pOldPen);

  0063a	ff 75 84	 push	 DWORD PTR _pOldPen$1$[ebp]
  0063d	8b cf		 mov	 ecx, edi
  0063f	e8 00 00 00 00	 call	 ?SelectObject@CDC@@QAEPAVCPen@@PAV2@@Z ; CDC::SelectObject
$LN29@DrawNewCro:
; File D:\git\src\IBK\IBK_DRFN\ProjSrc\SrcChartEx\ChartAddIn\ChartAnalysisToolAddIn\Include_Chart\Dll_Load\IMetaTable.h

; 1038 : 	{

  00644	c7 45 fc 02 00
	00 00		 mov	 DWORD PTR __$EHRec$[ebp+8], 2
; File C:\Program Files (x86)\Microsoft Visual Studio\2019\Community\VC\Tools\MSVC\14.29.30133\atlmfc\include\afxwin1.inl

; 27   : 	{ ASSERT(hInstResource != NULL); afxCurrentResourceHandle = hInstResource; }

  0064b	e8 00 00 00 00	 call	 ?AfxGetModuleState@@YGPAVAFX_MODULE_STATE@@XZ ; AfxGetModuleState
  00650	89 70 0c	 mov	 DWORD PTR [eax+12], esi
; File D:\git\src\IBK\IBK_DRFN\ProjSrc\SrcChartEx\ChartAddIn\ChartAnalysisToolAddIn\ChartAnalysisToolAddIn\CrosshairsDragAddInImp.cpp

; 513  : }

  00653	8b 4d f4	 mov	 ecx, DWORD PTR __$EHRec$[ebp]
  00656	64 89 0d 00 00
	00 00		 mov	 DWORD PTR fs:0, ecx
  0065d	59		 pop	 ecx
  0065e	5f		 pop	 edi
  0065f	5e		 pop	 esi
  00660	5b		 pop	 ebx
  00661	8b 4d f0	 mov	 ecx, DWORD PTR __$ArrayPad$[ebp]
  00664	33 cd		 xor	 ecx, ebp
  00666	e8 00 00 00 00	 call	 @__security_check_cookie@4
  0066b	8b e5		 mov	 esp, ebp
  0066d	5d		 pop	 ebp
  0066e	c2 04 00	 ret	 4
_TEXT	ENDS
;	COMDAT text$x
text$x	SEGMENT
__unwindfunclet$?DrawNewCross@CCrosshairsDragAddInImp@@IAEXPAUHDC__@@@Z$0:
  00000	8d 8d 68 ff ff
	ff		 lea	 ecx, DWORD PTR ___mlrs__$[ebp]
  00006	e9 00 00 00 00	 jmp	 ??1CMultiLanguageResourceSetter@@QAE@XZ ; CMultiLanguageResourceSetter::~CMultiLanguageResourceSetter
  0000b	cc		 int	 3
  0000c	cc		 int	 3
  0000d	cc		 int	 3
  0000e	cc		 int	 3
  0000f	cc		 int	 3
__ehhandler$?DrawNewCross@CCrosshairsDragAddInImp@@IAEXPAUHDC__@@@Z:
  00010	90		 npad	 1
  00011	90		 npad	 1
  00012	8b 54 24 08	 mov	 edx, DWORD PTR [esp+8]
  00016	8d 42 0c	 lea	 eax, DWORD PTR [edx+12]
  00019	8b 8a 64 ff ff
	ff		 mov	 ecx, DWORD PTR [edx-156]
  0001f	33 c8		 xor	 ecx, eax
  00021	e8 00 00 00 00	 call	 @__security_check_cookie@4
  00026	8b 4a fc	 mov	 ecx, DWORD PTR [edx-4]
  00029	33 c8		 xor	 ecx, eax
  0002b	e8 00 00 00 00	 call	 @__security_check_cookie@4
  00030	b8 00 00 00 00	 mov	 eax, OFFSET __ehfuncinfo$?DrawNewCross@CCrosshairsDragAddInImp@@IAEXPAUHDC__@@@Z
  00035	e9 00 00 00 00	 jmp	 ___CxxFrameHandler3
text$x	ENDS
?DrawNewCross@CCrosshairsDragAddInImp@@IAEXPAUHDC__@@@Z ENDP ; CCrosshairsDragAddInImp::DrawNewCross
; Function compile flags: /Ogtp
; File D:\git\src\IBK\IBK_DRFN\ProjSrc\SrcChartEx\ChartAddIn\ChartAnalysisToolAddIn\ChartAnalysisToolAddIn\CrosshairsDragAddInImp.h
;	COMDAT ?GetRegisteredEventMap@CCrosshairsDragAddInImp@@MBEPBW4EAddInEventType@IChartAddIn133101@@XZ
_TEXT	SEGMENT
?GetRegisteredEventMap@CCrosshairsDragAddInImp@@MBEPBW4EAddInEventType@IChartAddIn133101@@XZ PROC ; CCrosshairsDragAddInImp::GetRegisteredEventMap, COMDAT
; _this$ = ecx

; 40   : 	DECLARE_ADDIN_EVENT_MAP()

  00000	b8 00 00 00 00	 mov	 eax, OFFSET ?m_eRegisteredEventMap@CCrosshairsDragAddInImp@@1QBW4EAddInEventType@IChartAddIn133101@@B ; CCrosshairsDragAddInImp::m_eRegisteredEventMap
  00005	c3		 ret	 0
?GetRegisteredEventMap@CCrosshairsDragAddInImp@@MBEPBW4EAddInEventType@IChartAddIn133101@@XZ ENDP ; CCrosshairsDragAddInImp::GetRegisteredEventMap
_TEXT	ENDS
; Function compile flags: /Ogtp
; File D:\git\src\IBK\IBK_DRFN\ProjSrc\SrcChartEx\ChartAddIn\ChartAnalysisToolAddIn\ChartAnalysisToolAddIn\CrosshairsDragAddInImp.cpp
;	COMDAT ??1CCrosshairsDragAddInImp@@UAE@XZ
_TEXT	SEGMENT
??1CCrosshairsDragAddInImp@@UAE@XZ PROC			; CCrosshairsDragAddInImp::~CCrosshairsDragAddInImp, COMDAT
; _this$ = ecx

; 71   : {

  00000	56		 push	 esi
  00001	8b f1		 mov	 esi, ecx

; 72   : 	if( m_pAnalysisTool)

  00003	8b 8e 9c 00 00
	00		 mov	 ecx, DWORD PTR [esi+156]
  00009	c7 06 00 00 00
	00		 mov	 DWORD PTR [esi], OFFSET ??_7CCrosshairsDragAddInImp@@6BCIWUnknown@@@
  0000f	c7 46 08 00 00
	00 00		 mov	 DWORD PTR [esi+8], OFFSET ??_7CCrosshairsDragAddInImp@@6BIChartAddIn133101@@@
  00016	85 c9		 test	 ecx, ecx
  00018	74 10		 je	 SHORT $LN2@CCrosshair

; 73   : 	{
; 74   : 		delete m_pAnalysisTool;

  0001a	8b 01		 mov	 eax, DWORD PTR [ecx]
  0001c	6a 01		 push	 1
  0001e	ff 10		 call	 DWORD PTR [eax]

; 75   : 		m_pAnalysisTool = NULL;

  00020	c7 86 9c 00 00
	00 00 00 00 00	 mov	 DWORD PTR [esi+156], 0
$LN2@CCrosshair:

; 76   : 	}
; 77   : }

  0002a	8d 8e 30 01 00
	00		 lea	 ecx, DWORD PTR [esi+304]
  00030	ff 15 00 00 00
	00		 call	 DWORD PTR __imp_??1?$CStringT@DV?$StrTraitMFC_DLL@DV?$ChTraitsCRT@D@ATL@@@@@ATL@@QAE@XZ
  00036	8d 8e 2c 01 00
	00		 lea	 ecx, DWORD PTR [esi+300]
  0003c	ff 15 00 00 00
	00		 call	 DWORD PTR __imp_??1?$CStringT@DV?$StrTraitMFC_DLL@DV?$ChTraitsCRT@D@ATL@@@@@ATL@@QAE@XZ
  00042	8d 4e 40	 lea	 ecx, DWORD PTR [esi+64]
  00045	e8 00 00 00 00	 call	 ??1CNumericalInquiryDataQueryer@@UAE@XZ ; CNumericalInquiryDataQueryer::~CNumericalInquiryDataQueryer
  0004a	8b ce		 mov	 ecx, esi
  0004c	5e		 pop	 esi
  0004d	e9 00 00 00 00	 jmp	 ??1CChartAddInBase133101@@MAE@XZ ; CChartAddInBase133101::~CChartAddInBase133101
??1CCrosshairsDragAddInImp@@UAE@XZ ENDP			; CCrosshairsDragAddInImp::~CCrosshairsDragAddInImp
_TEXT	ENDS
; Function compile flags: /Ogtp
; File D:\git\src\IBK\IBK_DRFN\ProjSrc\SrcChartEx\ChartAddIn\ChartAnalysisToolAddIn\ChartAnalysisToolAddIn\CrosshairsDragAddInImp.cpp
; File C:\Program Files (x86)\Microsoft Visual Studio\2019\Community\VC\Tools\MSVC\14.29.30133\atlmfc\include\atltypes.h
; File D:\git\src\IBK\IBK_DRFN\ProjSrc\SrcChartEx\ChartAddIn\ChartAnalysisToolAddIn\ChartAnalysisToolAddIn\CrosshairsDragAddInImp.cpp
; File C:\Program Files (x86)\Microsoft Visual Studio\2019\Community\VC\Tools\MSVC\14.29.30133\atlmfc\include\atltypes.h
; File D:\git\src\IBK\IBK_DRFN\ProjSrc\SrcChartEx\ChartAddIn\ChartAnalysisToolAddIn\ChartAnalysisToolAddIn\CrosshairsDragAddInImp.cpp
; File C:\Program Files (x86)\Microsoft Visual Studio\2019\Community\VC\Tools\MSVC\14.29.30133\atlmfc\include\afxwin2.inl
; File D:\git\src\IBK\IBK_DRFN\ProjSrc\SrcChartEx\ChartAddIn\ChartAnalysisToolAddIn\ChartAnalysisToolAddIn\CrosshairsDragAddInImp.cpp
;	COMDAT ??0CCrosshairsDragAddInImp@@QAE@PAUIChartOCX133101@@PAUIAddInDllBase@@@Z
_TEXT	SEGMENT
_this$ = -16						; size = 4
__$EHRec$ = -12						; size = 12
_clrAnalysisTool$2 = 8					; size = 4
_p_pIChartOCX$ = 8					; size = 4
$T3 = 12						; size = 4
_p_pIAddInDllBase$ = 12					; size = 4
??0CCrosshairsDragAddInImp@@QAE@PAUIChartOCX133101@@PAUIAddInDllBase@@@Z PROC ; CCrosshairsDragAddInImp::CCrosshairsDragAddInImp, COMDAT
; _this$ = ecx

; 27   : {

  00000	55		 push	 ebp
  00001	8b ec		 mov	 ebp, esp
  00003	6a ff		 push	 -1
  00005	68 00 00 00 00	 push	 __ehhandler$??0CCrosshairsDragAddInImp@@QAE@PAUIChartOCX133101@@PAUIAddInDllBase@@@Z
  0000a	64 a1 00 00 00
	00		 mov	 eax, DWORD PTR fs:0
  00010	50		 push	 eax
  00011	51		 push	 ecx
  00012	56		 push	 esi
  00013	57		 push	 edi
  00014	a1 00 00 00 00	 mov	 eax, DWORD PTR ___security_cookie
  00019	33 c5		 xor	 eax, ebp
  0001b	50		 push	 eax
  0001c	8d 45 f4	 lea	 eax, DWORD PTR __$EHRec$[ebp]
  0001f	64 a3 00 00 00
	00		 mov	 DWORD PTR fs:0, eax
  00025	8b f1		 mov	 esi, ecx
  00027	89 75 f0	 mov	 DWORD PTR _this$[ebp], esi

; 25   : 	: CChartAddInBase( p_pIChartOCX, p_pIAddInDllBase),

  0002a	ff 75 0c	 push	 DWORD PTR _p_pIAddInDllBase$[ebp]
  0002d	8b 7d 08	 mov	 edi, DWORD PTR _p_pIChartOCX$[ebp]
  00030	57		 push	 edi
  00031	e8 00 00 00 00	 call	 ??0CChartAddInBase133101@@IAE@PAUIChartOCX133101@@PAUIAddInDllBase@@@Z ; CChartAddInBase133101::CChartAddInBase133101

; 26   : 	m_niDataQueryer( p_pIChartOCX) //20100219  >>

  00036	57		 push	 edi
  00037	8d 4e 40	 lea	 ecx, DWORD PTR [esi+64]
  0003a	c7 45 fc 00 00
	00 00		 mov	 DWORD PTR __$EHRec$[ebp+8], 0

; 27   : {

  00041	c7 06 00 00 00
	00		 mov	 DWORD PTR [esi], OFFSET ??_7CCrosshairsDragAddInImp@@6BCIWUnknown@@@
  00047	c7 46 08 00 00
	00 00		 mov	 DWORD PTR [esi+8], OFFSET ??_7CCrosshairsDragAddInImp@@6BIChartAddIn133101@@@
  0004e	e8 00 00 00 00	 call	 ??0CNumericalInquiryDataQueryer@@QAE@PAUIChartOCX133101@@@Z ; CNumericalInquiryDataQueryer::CNumericalInquiryDataQueryer
; File C:\Program Files (x86)\Microsoft Visual Studio\2019\Community\VC\Tools\MSVC\14.29.30133\atlmfc\include\atltypes.h

; 400  : 	x = 0;

  00053	c7 86 a0 00 00
	00 00 00 00 00	 mov	 DWORD PTR [esi+160], 0
; File D:\git\src\IBK\IBK_DRFN\ProjSrc\SrcChartEx\ChartAddIn\ChartAnalysisToolAddIn\ChartAnalysisToolAddIn\CrosshairsDragAddInImp.cpp

; 27   : {

  0005d	8d 8e 2c 01 00
	00		 lea	 ecx, DWORD PTR [esi+300]
; File C:\Program Files (x86)\Microsoft Visual Studio\2019\Community\VC\Tools\MSVC\14.29.30133\atlmfc\include\atltypes.h

; 401  : 	y = 0;

  00063	c7 86 a4 00 00
	00 00 00 00 00	 mov	 DWORD PTR [esi+164], 0

; 528  : 	left = 0;

  0006d	c7 86 bc 00 00
	00 00 00 00 00	 mov	 DWORD PTR [esi+188], 0

; 529  : 	top = 0;

  00077	c7 86 c0 00 00
	00 00 00 00 00	 mov	 DWORD PTR [esi+192], 0

; 530  : 	right = 0;

  00081	c7 86 c4 00 00
	00 00 00 00 00	 mov	 DWORD PTR [esi+196], 0

; 531  : 	bottom = 0;

  0008b	c7 86 c8 00 00
	00 00 00 00 00	 mov	 DWORD PTR [esi+200], 0

; 528  : 	left = 0;

  00095	c7 86 cc 00 00
	00 00 00 00 00	 mov	 DWORD PTR [esi+204], 0

; 529  : 	top = 0;

  0009f	c7 86 d0 00 00
	00 00 00 00 00	 mov	 DWORD PTR [esi+208], 0

; 530  : 	right = 0;

  000a9	c7 86 d4 00 00
	00 00 00 00 00	 mov	 DWORD PTR [esi+212], 0

; 531  : 	bottom = 0;

  000b3	c7 86 d8 00 00
	00 00 00 00 00	 mov	 DWORD PTR [esi+216], 0

; 400  : 	x = 0;

  000bd	c7 86 e4 00 00
	00 00 00 00 00	 mov	 DWORD PTR [esi+228], 0

; 401  : 	y = 0;

  000c7	c7 86 e8 00 00
	00 00 00 00 00	 mov	 DWORD PTR [esi+232], 0

; 528  : 	left = 0;

  000d1	c7 86 ec 00 00
	00 00 00 00 00	 mov	 DWORD PTR [esi+236], 0

; 529  : 	top = 0;

  000db	c7 86 f0 00 00
	00 00 00 00 00	 mov	 DWORD PTR [esi+240], 0

; 530  : 	right = 0;

  000e5	c7 86 f4 00 00
	00 00 00 00 00	 mov	 DWORD PTR [esi+244], 0

; 531  : 	bottom = 0;

  000ef	c7 86 f8 00 00
	00 00 00 00 00	 mov	 DWORD PTR [esi+248], 0

; 528  : 	left = 0;

  000f9	c7 86 fc 00 00
	00 00 00 00 00	 mov	 DWORD PTR [esi+252], 0

; 529  : 	top = 0;

  00103	c7 86 00 01 00
	00 00 00 00 00	 mov	 DWORD PTR [esi+256], 0

; 530  : 	right = 0;

  0010d	c7 86 04 01 00
	00 00 00 00 00	 mov	 DWORD PTR [esi+260], 0

; 531  : 	bottom = 0;

  00117	c7 86 08 01 00
	00 00 00 00 00	 mov	 DWORD PTR [esi+264], 0

; 528  : 	left = 0;

  00121	c7 86 0c 01 00
	00 00 00 00 00	 mov	 DWORD PTR [esi+268], 0

; 529  : 	top = 0;

  0012b	c7 86 10 01 00
	00 00 00 00 00	 mov	 DWORD PTR [esi+272], 0

; 530  : 	right = 0;

  00135	c7 86 14 01 00
	00 00 00 00 00	 mov	 DWORD PTR [esi+276], 0

; 531  : 	bottom = 0;

  0013f	c7 86 18 01 00
	00 00 00 00 00	 mov	 DWORD PTR [esi+280], 0

; 528  : 	left = 0;

  00149	c7 86 1c 01 00
	00 00 00 00 00	 mov	 DWORD PTR [esi+284], 0

; 529  : 	top = 0;

  00153	c7 86 20 01 00
	00 00 00 00 00	 mov	 DWORD PTR [esi+288], 0

; 530  : 	right = 0;

  0015d	c7 86 24 01 00
	00 00 00 00 00	 mov	 DWORD PTR [esi+292], 0

; 531  : 	bottom = 0;

  00167	c7 86 28 01 00
	00 00 00 00 00	 mov	 DWORD PTR [esi+296], 0
; File D:\git\src\IBK\IBK_DRFN\ProjSrc\SrcChartEx\ChartAddIn\ChartAnalysisToolAddIn\ChartAnalysisToolAddIn\CrosshairsDragAddInImp.cpp

; 27   : {

  00171	ff 15 00 00 00
	00		 call	 DWORD PTR __imp_??0?$CStringT@DV?$StrTraitMFC_DLL@DV?$ChTraitsCRT@D@ATL@@@@@ATL@@QAE@XZ
  00177	8d 8e 30 01 00
	00		 lea	 ecx, DWORD PTR [esi+304]
  0017d	ff 15 00 00 00
	00		 call	 DWORD PTR __imp_??0?$CStringT@DV?$StrTraitMFC_DLL@DV?$ChTraitsCRT@D@ATL@@@@@ATL@@QAE@XZ

; 28   : 	// save point for inflate when mouse drag & drop
; 29   : 	// 09.21.2001
; 30   : 	m_ptStartDragDrop = CPoint(-1, -1);
; 31   : 
; 32   : 	// (2006/2/6 - Seung-Won, Bae) Manage Mouse Action ID for Serial Action.
; 33   : 	m_dwMouseActionID = UINT_MAX;
; 34   : 
; 35   : 	// (2006/1/24 - Seung-Won, Bae) Manage Analysis Tool Interface.
; 36   : 	m_pAnalysisTool = new CMainAnalysisTool( m_pChartCWnd, p_pIChartOCX->GetOcxHwnd(), ( CChartInfo::CHART_MODE)p_pIChartOCX->GetChartMode());

  00183	6a 10		 push	 16			; 00000010H
  00185	c6 45 fc 03	 mov	 BYTE PTR __$EHRec$[ebp+8], 3
  00189	c7 86 a0 00 00
	00 ff ff ff ff	 mov	 DWORD PTR [esi+160], -1
  00193	c7 86 a4 00 00
	00 ff ff ff ff	 mov	 DWORD PTR [esi+164], -1
  0019d	c7 86 a8 00 00
	00 ff ff ff ff	 mov	 DWORD PTR [esi+168], -1
  001a7	e8 00 00 00 00	 call	 ??2@YAPAXI@Z		; operator new
  001ac	8b f8		 mov	 edi, eax
  001ae	83 c4 04	 add	 esp, 4
  001b1	89 7d 0c	 mov	 DWORD PTR $T3[ebp], edi
  001b4	c6 45 fc 04	 mov	 BYTE PTR __$EHRec$[ebp+8], 4
  001b8	85 ff		 test	 edi, edi
  001ba	74 2c		 je	 SHORT $LN3@CCrosshair
  001bc	8b 4d 08	 mov	 ecx, DWORD PTR _p_pIChartOCX$[ebp]
  001bf	8b 01		 mov	 eax, DWORD PTR [ecx]
  001c1	8b 80 5c 02 00
	00		 mov	 eax, DWORD PTR [eax+604]
  001c7	ff d0		 call	 eax
  001c9	8b 4d 08	 mov	 ecx, DWORD PTR _p_pIChartOCX$[ebp]
  001cc	50		 push	 eax
  001cd	8b 01		 mov	 eax, DWORD PTR [ecx]
  001cf	8b 40 40	 mov	 eax, DWORD PTR [eax+64]
  001d2	ff d0		 call	 eax
  001d4	50		 push	 eax
  001d5	ff 76 10	 push	 DWORD PTR [esi+16]
  001d8	8b cf		 mov	 ecx, edi
  001da	ff 15 00 00 00
	00		 call	 DWORD PTR __imp_??0CMainAnalysisTool@@QAE@PAVCWnd@@PAUHWND__@@W4CHART_MODE@CChartInfo@@@Z
  001e0	c7 07 00 00 00
	00		 mov	 DWORD PTR [edi], OFFSET ??_SCMainAnalysisTool@@6B@
  001e6	eb 02		 jmp	 SHORT $LN4@CCrosshair
$LN3@CCrosshair:
  001e8	33 ff		 xor	 edi, edi
$LN4@CCrosshair:

; 37   : 	// update ver 1.2 -> 11.5.2001
; 38   : 	m_pAnalysisTool->SetMainBlock( m_pIChartManager, p_pIChartOCX);

  001ea	ff 75 08	 push	 DWORD PTR _p_pIChartOCX$[ebp]
  001ed	8b cf		 mov	 ecx, edi
  001ef	c6 45 fc 03	 mov	 BYTE PTR __$EHRec$[ebp+8], 3
  001f3	ff 76 28	 push	 DWORD PTR [esi+40]
  001f6	89 be 9c 00 00
	00		 mov	 DWORD PTR [esi+156], edi
  001fc	ff 15 00 00 00
	00		 call	 DWORD PTR __imp_?SetMainBlock@CMainAnalysisTool@@QAEXPAUIChartManager133101@@PAUIChartOCX133101@@@Z

; 181  : 	if( !m_pAnalysisTool) return FALSE;

  00202	83 be 9c 00 00
	00 00		 cmp	 DWORD PTR [esi+156], 0
  00209	74 32		 je	 SHORT $LN35@CCrosshair

; 182  : 
; 183  : 	switch( p_eCommandID)
; 184  : 	{
; 185  : 		case EAI_ALL_ANALYSIS_RESET_INITIAL_COLOR:
; 186  : 		{
; 187  : 			COLORREF clrAnalysisTool = m_pIChartOCX->GetStyleValueAnalysisToolColor();

  0020b	8b 4e 0c	 mov	 ecx, DWORD PTR [esi+12]
  0020e	8b 01		 mov	 eax, DWORD PTR [ecx]
  00210	8b 80 e0 01 00
	00		 mov	 eax, DWORD PTR [eax+480]
  00216	ff d0		 call	 eax

; 188  : 			m_pAnalysisTool->SetBaseColor( clrAnalysisTool, clrAnalysisTool);

  00218	8b 8e 9c 00 00
	00		 mov	 ecx, DWORD PTR [esi+156]
  0021e	89 45 08	 mov	 DWORD PTR _clrAnalysisTool$2[ebp], eax
  00221	8d 45 08	 lea	 eax, DWORD PTR _clrAnalysisTool$2[ebp]
  00224	50		 push	 eax
  00225	50		 push	 eax
  00226	ff 15 00 00 00
	00		 call	 DWORD PTR __imp_?SetBaseColor@CMainAnalysisTool@@QAEXABK0@Z

; 189  : 			m_pAnalysisTool->ChangeAllElementsColor( clrAnalysisTool, clrAnalysisTool);

  0022c	8b 8e 9c 00 00
	00		 mov	 ecx, DWORD PTR [esi+156]
  00232	8d 45 08	 lea	 eax, DWORD PTR _clrAnalysisTool$2[ebp]
  00235	50		 push	 eax
  00236	50		 push	 eax
  00237	ff 15 00 00 00
	00		 call	 DWORD PTR __imp_?ChangeAllElementsColor@CMainAnalysisTool@@QAEXABK0@Z
$LN35@CCrosshair:

; 67   : 	m_hOcxWnd = ( m_pChartCWnd ? m_pChartCWnd->GetSafeHwnd() : NULL);

  0023d	8b 46 10	 mov	 eax, DWORD PTR [esi+16]
  00240	0f 57 c0	 xorps	 xmm0, xmm0
  00243	c7 86 ac 00 00
	00 00 00 00 00	 mov	 DWORD PTR [esi+172], 0
  0024d	c7 86 b4 00 00
	00 00 00 00 00	 mov	 DWORD PTR [esi+180], 0
  00257	c7 86 b0 00 00
	00 00 00 00 00	 mov	 DWORD PTR [esi+176], 0
  00261	c7 86 dc 00 00
	00 00 00 00 00	 mov	 DWORD PTR [esi+220], 0
  0026b	c7 86 b8 00 00
	00 00 00 00 00	 mov	 DWORD PTR [esi+184], 0
  00275	c7 86 e0 00 00
	00 00 00 00 00	 mov	 DWORD PTR [esi+224], 0
  0027f	c7 86 e4 00 00
	00 00 00 00 00	 mov	 DWORD PTR [esi+228], 0
  00289	c7 86 e8 00 00
	00 00 00 00 00	 mov	 DWORD PTR [esi+232], 0
  00293	0f 11 86 bc 00
	00 00		 movups	 XMMWORD PTR [esi+188], xmm0
  0029a	0f 11 86 ec 00
	00 00		 movups	 XMMWORD PTR [esi+236], xmm0
  002a1	0f 11 86 fc 00
	00 00		 movups	 XMMWORD PTR [esi+252], xmm0
  002a8	0f 11 86 0c 01
	00 00		 movups	 XMMWORD PTR [esi+268], xmm0
  002af	0f 11 86 1c 01
	00 00		 movups	 XMMWORD PTR [esi+284], xmm0
  002b6	85 c0		 test	 eax, eax
  002b8	74 0b		 je	 SHORT $LN5@CCrosshair
; File C:\Program Files (x86)\Microsoft Visual Studio\2019\Community\VC\Tools\MSVC\14.29.30133\atlmfc\include\afxwin2.inl

; 25   : 	{ return this == NULL ? NULL : m_hWnd; }

  002ba	8b 40 20	 mov	 eax, DWORD PTR [eax+32]
; File D:\git\src\IBK\IBK_DRFN\ProjSrc\SrcChartEx\ChartAddIn\ChartAnalysisToolAddIn\ChartAnalysisToolAddIn\CrosshairsDragAddInImp.cpp

; 67   : 	m_hOcxWnd = ( m_pChartCWnd ? m_pChartCWnd->GetSafeHwnd() : NULL);

  002bd	89 86 34 01 00
	00		 mov	 DWORD PTR [esi+308], eax
  002c3	eb 0a		 jmp	 SHORT $LN54@CCrosshair
$LN5@CCrosshair:
  002c5	c7 86 34 01 00
	00 00 00 00 00	 mov	 DWORD PTR [esi+308], 0
$LN54@CCrosshair:

; 68   : }

  002cf	8b c6		 mov	 eax, esi
  002d1	8b 4d f4	 mov	 ecx, DWORD PTR __$EHRec$[ebp]
  002d4	64 89 0d 00 00
	00 00		 mov	 DWORD PTR fs:0, ecx
  002db	59		 pop	 ecx
  002dc	5f		 pop	 edi
  002dd	5e		 pop	 esi
  002de	8b e5		 mov	 esp, ebp
  002e0	5d		 pop	 ebp
  002e1	c2 08 00	 ret	 8
_TEXT	ENDS
;	COMDAT text$x
text$x	SEGMENT
__unwindfunclet$??0CCrosshairsDragAddInImp@@QAE@PAUIChartOCX133101@@PAUIAddInDllBase@@@Z$0:
  00000	8b 4d f0	 mov	 ecx, DWORD PTR _this$[ebp]
  00003	e9 00 00 00 00	 jmp	 ??1CChartAddInBase133101@@MAE@XZ ; CChartAddInBase133101::~CChartAddInBase133101
__unwindfunclet$??0CCrosshairsDragAddInImp@@QAE@PAUIChartOCX133101@@PAUIAddInDllBase@@@Z$1:
  00008	8b 4d f0	 mov	 ecx, DWORD PTR _this$[ebp]
  0000b	83 c1 40	 add	 ecx, 64			; 00000040H
  0000e	e9 00 00 00 00	 jmp	 ??1CNumericalInquiryDataQueryer@@UAE@XZ ; CNumericalInquiryDataQueryer::~CNumericalInquiryDataQueryer
__unwindfunclet$??0CCrosshairsDragAddInImp@@QAE@PAUIChartOCX133101@@PAUIAddInDllBase@@@Z$2:
  00013	8b 4d f0	 mov	 ecx, DWORD PTR _this$[ebp]
  00016	81 c1 2c 01 00
	00		 add	 ecx, 300		; 0000012cH
  0001c	ff 25 00 00 00
	00		 jmp	 DWORD PTR __imp_??1?$CStringT@DV?$StrTraitMFC_DLL@DV?$ChTraitsCRT@D@ATL@@@@@ATL@@QAE@XZ
__unwindfunclet$??0CCrosshairsDragAddInImp@@QAE@PAUIChartOCX133101@@PAUIAddInDllBase@@@Z$3:
  00022	8b 4d f0	 mov	 ecx, DWORD PTR _this$[ebp]
  00025	81 c1 30 01 00
	00		 add	 ecx, 304		; 00000130H
  0002b	ff 25 00 00 00
	00		 jmp	 DWORD PTR __imp_??1?$CStringT@DV?$StrTraitMFC_DLL@DV?$ChTraitsCRT@D@ATL@@@@@ATL@@QAE@XZ
__unwindfunclet$??0CCrosshairsDragAddInImp@@QAE@PAUIChartOCX133101@@PAUIAddInDllBase@@@Z$4:
  00031	6a 10		 push	 16			; 00000010H
  00033	8b 45 0c	 mov	 eax, DWORD PTR $T3[ebp]
  00036	50		 push	 eax
  00037	e8 00 00 00 00	 call	 ??3@YAXPAXI@Z		; operator delete
  0003c	83 c4 08	 add	 esp, 8
  0003f	c3		 ret	 0
  00040	cc		 int	 3
  00041	cc		 int	 3
  00042	cc		 int	 3
  00043	cc		 int	 3
  00044	cc		 int	 3
__ehhandler$??0CCrosshairsDragAddInImp@@QAE@PAUIChartOCX133101@@PAUIAddInDllBase@@@Z:
  00045	90		 npad	 1
  00046	90		 npad	 1
  00047	8b 54 24 08	 mov	 edx, DWORD PTR [esp+8]
  0004b	8d 42 0c	 lea	 eax, DWORD PTR [edx+12]
  0004e	8b 4a f0	 mov	 ecx, DWORD PTR [edx-16]
  00051	33 c8		 xor	 ecx, eax
  00053	e8 00 00 00 00	 call	 @__security_check_cookie@4
  00058	b8 00 00 00 00	 mov	 eax, OFFSET __ehfuncinfo$??0CCrosshairsDragAddInImp@@QAE@PAUIChartOCX133101@@PAUIAddInDllBase@@@Z
  0005d	e9 00 00 00 00	 jmp	 ___CxxFrameHandler3
text$x	ENDS
??0CCrosshairsDragAddInImp@@QAE@PAUIChartOCX133101@@PAUIAddInDllBase@@@Z ENDP ; CCrosshairsDragAddInImp::CCrosshairsDragAddInImp
; Function compile flags: /Ogtp
; File D:\git\src\IBK\IBK_DRFN\ProjSrc\SrcChartEx\ChartAddIn\ChartAnalysisToolAddIn\Include_AddIn_133101\I133101\_ChartAddInBase.h
;	COMDAT ?OnRButtonDblClk@CChartAddInBase133101@@MAEHPAUHDC__@@IAAUtagPOINT@@K@Z
_TEXT	SEGMENT
_p_hDC$ = 8						; size = 4
_nFlags$ = 12						; size = 4
_point$ = 16						; size = 4
_p_dwMouseActionID$ = 20				; size = 4
?OnRButtonDblClk@CChartAddInBase133101@@MAEHPAUHDC__@@IAAUtagPOINT@@K@Z PROC ; CChartAddInBase133101::OnRButtonDblClk, COMDAT
; _this$ = ecx

; 215  : 	virtual BOOL	OnRButtonDblClk(	HDC p_hDC, UINT nFlags, POINT &point, const DWORD p_dwMouseActionID)									{	return FALSE;	}

  00000	33 c0		 xor	 eax, eax
  00002	c2 10 00	 ret	 16			; 00000010H
?OnRButtonDblClk@CChartAddInBase133101@@MAEHPAUHDC__@@IAAUtagPOINT@@K@Z ENDP ; CChartAddInBase133101::OnRButtonDblClk
_TEXT	ENDS
; Function compile flags: /Ogtp
; File D:\git\src\IBK\IBK_DRFN\ProjSrc\SrcChartEx\ChartAddIn\ChartAnalysisToolAddIn\Include_AddIn_133101\I133101\_ChartAddInBase.h
;	COMDAT ?OnRButtonUp@CChartAddInBase133101@@MAEHPAUHDC__@@IAAUtagPOINT@@K@Z
_TEXT	SEGMENT
_p_hDC$ = 8						; size = 4
_nFlags$ = 12						; size = 4
_point$ = 16						; size = 4
_p_dwMouseActionID$ = 20				; size = 4
?OnRButtonUp@CChartAddInBase133101@@MAEHPAUHDC__@@IAAUtagPOINT@@K@Z PROC ; CChartAddInBase133101::OnRButtonUp, COMDAT
; _this$ = ecx

; 214  : 	virtual BOOL	OnRButtonUp(		HDC p_hDC, UINT nFlags, POINT &point, const DWORD p_dwMouseActionID)									{	return FALSE;	}

  00000	33 c0		 xor	 eax, eax
  00002	c2 10 00	 ret	 16			; 00000010H
?OnRButtonUp@CChartAddInBase133101@@MAEHPAUHDC__@@IAAUtagPOINT@@K@Z ENDP ; CChartAddInBase133101::OnRButtonUp
_TEXT	ENDS
; Function compile flags: /Ogtp
; File D:\git\src\IBK\IBK_DRFN\ProjSrc\SrcChartEx\ChartAddIn\ChartAnalysisToolAddIn\Include_AddIn_133101\I133101\_ChartAddInBase.h
;	COMDAT ?OnRButtonDown@CChartAddInBase133101@@MAEHPAUHDC__@@IAAUtagPOINT@@K@Z
_TEXT	SEGMENT
_p_hDC$ = 8						; size = 4
_nFlags$ = 12						; size = 4
_point$ = 16						; size = 4
_p_dwMouseActionID$ = 20				; size = 4
?OnRButtonDown@CChartAddInBase133101@@MAEHPAUHDC__@@IAAUtagPOINT@@K@Z PROC ; CChartAddInBase133101::OnRButtonDown, COMDAT
; _this$ = ecx

; 213  : 	virtual BOOL	OnRButtonDown(		HDC p_hDC, UINT nFlags, POINT &point, const DWORD p_dwMouseActionID)									{	return FALSE;	}

  00000	33 c0		 xor	 eax, eax
  00002	c2 10 00	 ret	 16			; 00000010H
?OnRButtonDown@CChartAddInBase133101@@MAEHPAUHDC__@@IAAUtagPOINT@@K@Z ENDP ; CChartAddInBase133101::OnRButtonDown
_TEXT	ENDS
; Function compile flags: /Ogtp
; File D:\git\src\IBK\IBK_DRFN\ProjSrc\SrcChartEx\ChartAddIn\ChartAnalysisToolAddIn\Include_AddIn_133101\I133101\_ChartAddInBase.h
;	COMDAT ?OnLButtonDblClk@CChartAddInBase133101@@MAEHPAUHDC__@@IAAUtagPOINT@@K@Z
_TEXT	SEGMENT
_p_hDC$ = 8						; size = 4
_nFlags$ = 12						; size = 4
_point$ = 16						; size = 4
_p_dwMouseActionID$ = 20				; size = 4
?OnLButtonDblClk@CChartAddInBase133101@@MAEHPAUHDC__@@IAAUtagPOINT@@K@Z PROC ; CChartAddInBase133101::OnLButtonDblClk, COMDAT
; _this$ = ecx

; 212  : 	virtual BOOL	OnLButtonDblClk(	HDC p_hDC, UINT nFlags, POINT &point, const DWORD p_dwMouseActionID)									{	return FALSE;	}

  00000	33 c0		 xor	 eax, eax
  00002	c2 10 00	 ret	 16			; 00000010H
?OnLButtonDblClk@CChartAddInBase133101@@MAEHPAUHDC__@@IAAUtagPOINT@@K@Z ENDP ; CChartAddInBase133101::OnLButtonDblClk
_TEXT	ENDS
; Function compile flags: /Ogtp
; File D:\git\src\IBK\IBK_DRFN\ProjSrc\SrcChartEx\ChartAddIn\ChartAnalysisToolAddIn\Include_AddIn_133101\I133101\_ChartAddInBase.h
;	COMDAT ?OnMouseWheel@CChartAddInBase133101@@MAEHIFUtagPOINT@@K@Z
_TEXT	SEGMENT
_nFlags$ = 8						; size = 4
_zDelta$ = 12						; size = 2
_pt$ = 16						; size = 8
_p_dwMouseActionID$ = 24				; size = 4
?OnMouseWheel@CChartAddInBase133101@@MAEHIFUtagPOINT@@K@Z PROC ; CChartAddInBase133101::OnMouseWheel, COMDAT
; _this$ = ecx

; 208  : 	virtual BOOL	OnMouseWheel(		UINT nFlags, short zDelta, POINT pt, const DWORD p_dwMouseActionID)										{	return FALSE;	}

  00000	33 c0		 xor	 eax, eax
  00002	c2 14 00	 ret	 20			; 00000014H
?OnMouseWheel@CChartAddInBase133101@@MAEHIFUtagPOINT@@K@Z ENDP ; CChartAddInBase133101::OnMouseWheel
_TEXT	ENDS
; Function compile flags: /Ogtp
; File D:\git\src\IBK\IBK_DRFN\ProjSrc\SrcChartEx\ChartAddIn\ChartAnalysisToolAddIn\Include_AddIn_133101\I133101\_ChartAddInBase.h
;	COMDAT ?OnKeyUp@CChartAddInBase133101@@MAEHIII@Z
_TEXT	SEGMENT
_nChar$ = 8						; size = 4
_nRepCnt$ = 12						; size = 4
_nFlags$ = 16						; size = 4
?OnKeyUp@CChartAddInBase133101@@MAEHIII@Z PROC		; CChartAddInBase133101::OnKeyUp, COMDAT
; _this$ = ecx

; 207  : 	virtual BOOL	OnKeyUp(			UINT nChar, UINT nRepCnt, UINT nFlags)																	{	return FALSE;	}

  00000	33 c0		 xor	 eax, eax
  00002	c2 0c 00	 ret	 12			; 0000000cH
?OnKeyUp@CChartAddInBase133101@@MAEHIII@Z ENDP		; CChartAddInBase133101::OnKeyUp
_TEXT	ENDS
; Function compile flags: /Ogtp
; File D:\git\src\IBK\IBK_DRFN\ProjSrc\SrcChartEx\ChartAddIn\ChartAnalysisToolAddIn\Include_AddIn_133101\I133101\_ChartAddInBase.h
;	COMDAT ?OnKeyDown@CChartAddInBase133101@@MAEHIII@Z
_TEXT	SEGMENT
_nChar$ = 8						; size = 4
_nRepCnt$ = 12						; size = 4
_nFlags$ = 16						; size = 4
?OnKeyDown@CChartAddInBase133101@@MAEHIII@Z PROC	; CChartAddInBase133101::OnKeyDown, COMDAT
; _this$ = ecx

; 206  : 	virtual BOOL	OnKeyDown(			UINT nChar, UINT nRepCnt, UINT nFlags)																	{	return FALSE;	}

  00000	33 c0		 xor	 eax, eax
  00002	c2 0c 00	 ret	 12			; 0000000cH
?OnKeyDown@CChartAddInBase133101@@MAEHIII@Z ENDP	; CChartAddInBase133101::OnKeyDown
_TEXT	ENDS
; Function compile flags: /Ogtp
; File D:\git\src\IBK\IBK_DRFN\ProjSrc\SrcChartEx\ChartAddIn\ChartAnalysisToolAddIn\Include_AddIn_133101\I133101\_ChartAddInBase.h
;	COMDAT ?OnAddInToolCommand@CChartAddInBase133101@@MAEHAAJW4EAICommandType@@JJ@Z
_TEXT	SEGMENT
_p_lResult$ = 8						; size = 4
_p_eCommandID$ = 12					; size = 4
_p_lParam1$ = 16					; size = 4
_p_lParam2$ = 20					; size = 4
?OnAddInToolCommand@CChartAddInBase133101@@MAEHAAJW4EAICommandType@@JJ@Z PROC ; CChartAddInBase133101::OnAddInToolCommand, COMDAT
; _this$ = ecx

; 204  : 	virtual BOOL	OnAddInToolCommand(	long &p_lResult, const EAICommandType p_eCommandID, const long p_lParam1, const long p_lParam2)			{	return FALSE;	}

  00000	33 c0		 xor	 eax, eax
  00002	c2 10 00	 ret	 16			; 00000010H
?OnAddInToolCommand@CChartAddInBase133101@@MAEHAAJW4EAICommandType@@JJ@Z ENDP ; CChartAddInBase133101::OnAddInToolCommand
_TEXT	ENDS
; Function compile flags: /Ogtp
; File D:\git\src\IBK\IBK_DRFN\ProjSrc\SrcChartEx\ChartAddIn\ChartAnalysisToolAddIn\Include_AddIn_133101\I133101\_ChartAddInBase.h
;	COMDAT ?OnAddInToolCommand@CChartAddInBase133101@@MAEHAAJW4EAICommandType@@J@Z
_TEXT	SEGMENT
_p_lResult$ = 8						; size = 4
_p_eCommandID$ = 12					; size = 4
_p_lParam$ = 16						; size = 4
?OnAddInToolCommand@CChartAddInBase133101@@MAEHAAJW4EAICommandType@@J@Z PROC ; CChartAddInBase133101::OnAddInToolCommand, COMDAT
; _this$ = ecx

; 203  : 	virtual BOOL	OnAddInToolCommand(	long &p_lResult, const EAICommandType p_eCommandID, const long p_lParam)								{	return FALSE;	}

  00000	33 c0		 xor	 eax, eax
  00002	c2 0c 00	 ret	 12			; 0000000cH
?OnAddInToolCommand@CChartAddInBase133101@@MAEHAAJW4EAICommandType@@J@Z ENDP ; CChartAddInBase133101::OnAddInToolCommand
_TEXT	ENDS
; Function compile flags: /Ogtp
; File D:\git\src\IBK\IBK_DRFN\ProjSrc\SrcChartEx\ChartAddIn\ChartAnalysisToolAddIn\Include_AddIn_133101\I133101\_ChartAddInBase.h
;	COMDAT ?OnAddInToolCommand@CChartAddInBase133101@@MAEHAAJW4EAICommandType@@PBDPAVCObject@@@Z
_TEXT	SEGMENT
_p_lResult$ = 8						; size = 4
_p_eCommandID$ = 12					; size = 4
_p_szParam$ = 16					; size = 4
_p_pParam$ = 20						; size = 4
?OnAddInToolCommand@CChartAddInBase133101@@MAEHAAJW4EAICommandType@@PBDPAVCObject@@@Z PROC ; CChartAddInBase133101::OnAddInToolCommand, COMDAT
; _this$ = ecx

; 202  : 	virtual BOOL	OnAddInToolCommand(	long &p_lResult, const EAICommandType p_eCommandID, const char *p_szParam, CObject *p_pParam)			{	return FALSE;	}

  00000	33 c0		 xor	 eax, eax
  00002	c2 10 00	 ret	 16			; 00000010H
?OnAddInToolCommand@CChartAddInBase133101@@MAEHAAJW4EAICommandType@@PBDPAVCObject@@@Z ENDP ; CChartAddInBase133101::OnAddInToolCommand
_TEXT	ENDS
; Function compile flags: /Ogtp
; File D:\git\src\IBK\IBK_DRFN\ProjSrc\SrcChartEx\ChartAddIn\ChartAnalysisToolAddIn\Include_AddIn_133101\I133101\_ChartAddInBase.h
;	COMDAT ?OnAddInToolCommand@CChartAddInBase133101@@MAEHAAJW4EAICommandType@@PBD@Z
_TEXT	SEGMENT
_p_lResult$ = 8						; size = 4
_p_eCommandID$ = 12					; size = 4
_p_szParam$ = 16					; size = 4
?OnAddInToolCommand@CChartAddInBase133101@@MAEHAAJW4EAICommandType@@PBD@Z PROC ; CChartAddInBase133101::OnAddInToolCommand, COMDAT
; _this$ = ecx

; 201  : 	virtual BOOL	OnAddInToolCommand(	long &p_lResult, const EAICommandType p_eCommandID, const char *p_szParam)								{	return FALSE;	}

  00000	33 c0		 xor	 eax, eax
  00002	c2 0c 00	 ret	 12			; 0000000cH
?OnAddInToolCommand@CChartAddInBase133101@@MAEHAAJW4EAICommandType@@PBD@Z ENDP ; CChartAddInBase133101::OnAddInToolCommand
_TEXT	ENDS
; Function compile flags: /Ogtp
; File D:\git\src\IBK\IBK_DRFN\ProjSrc\SrcChartEx\ChartAddIn\ChartAnalysisToolAddIn\Include_AddIn_133101\I133101\_ChartAddInBase.h
;	COMDAT ?OnAddInToolCommand@CChartAddInBase133101@@MAEHAAJW4EAICommandType@@PAUIGraphInfo133101@@@Z
_TEXT	SEGMENT
_p_lResult$ = 8						; size = 4
_p_eCommandID$ = 12					; size = 4
_p_pIGraphInfo$ = 16					; size = 4
?OnAddInToolCommand@CChartAddInBase133101@@MAEHAAJW4EAICommandType@@PAUIGraphInfo133101@@@Z PROC ; CChartAddInBase133101::OnAddInToolCommand, COMDAT
; _this$ = ecx

; 200  : 	virtual BOOL	OnAddInToolCommand(	long &p_lResult, const EAICommandType p_eCommandID, IGraphInfo *p_pIGraphInfo)							{	return FALSE;	}

  00000	33 c0		 xor	 eax, eax
  00002	c2 0c 00	 ret	 12			; 0000000cH
?OnAddInToolCommand@CChartAddInBase133101@@MAEHAAJW4EAICommandType@@PAUIGraphInfo133101@@@Z ENDP ; CChartAddInBase133101::OnAddInToolCommand
_TEXT	ENDS
; Function compile flags: /Ogtp
; File D:\git\src\IBK\IBK_DRFN\ProjSrc\SrcChartEx\ChartAddIn\ChartAnalysisToolAddIn\Include_AddIn_133101\I133101\_ChartAddInBase.h
;	COMDAT ?OnAddInToolCommand@CChartAddInBase133101@@MAEHAAJW4EAICommandType@@@Z
_TEXT	SEGMENT
_p_lResult$ = 8						; size = 4
_p_eCommandID$ = 12					; size = 4
?OnAddInToolCommand@CChartAddInBase133101@@MAEHAAJW4EAICommandType@@@Z PROC ; CChartAddInBase133101::OnAddInToolCommand, COMDAT
; _this$ = ecx

; 199  : 	virtual BOOL	OnAddInToolCommand(	long &p_lResult, const EAICommandType p_eCommandID)														{	return FALSE;	}

  00000	33 c0		 xor	 eax, eax
  00002	c2 08 00	 ret	 8
?OnAddInToolCommand@CChartAddInBase133101@@MAEHAAJW4EAICommandType@@@Z ENDP ; CChartAddInBase133101::OnAddInToolCommand
_TEXT	ENDS
; Function compile flags: /Ogtp
; File D:\git\src\IBK\IBK_DRFN\ProjSrc\SrcChartEx\ChartAddIn\ChartAnalysisToolAddIn\Include_AddIn_133101\I133101\_ChartAddInBase.h
;	COMDAT ?OnAddInToolCommand@CChartAddInBase133101@@MAEHW4EAICommandType@@JJJJJJJJJ@Z
_TEXT	SEGMENT
_p_eCommandID$ = 8					; size = 4
_p_lParam1$ = 12					; size = 4
_p_lParam2$ = 16					; size = 4
_p_lParam3$ = 20					; size = 4
_p_lParam4$ = 24					; size = 4
_p_lParam5$ = 28					; size = 4
_p_lParam6$ = 32					; size = 4
_p_lParam7$ = 36					; size = 4
_p_lParam8$ = 40					; size = 4
_p_lParam9$ = 44					; size = 4
?OnAddInToolCommand@CChartAddInBase133101@@MAEHW4EAICommandType@@JJJJJJJJJ@Z PROC ; CChartAddInBase133101::OnAddInToolCommand, COMDAT
; _this$ = ecx

; 198  : 	virtual BOOL	OnAddInToolCommand(	const EAICommandType p_eCommandID, const long p_lParam1, const long p_lParam2, const long p_lParam3, const long p_lParam4, const long p_lParam5, const long p_lParam6, const long p_lParam7, const long p_lParam8, const long p_lParam9)	{	return FALSE;	}

  00000	33 c0		 xor	 eax, eax
  00002	c2 28 00	 ret	 40			; 00000028H
?OnAddInToolCommand@CChartAddInBase133101@@MAEHW4EAICommandType@@JJJJJJJJJ@Z ENDP ; CChartAddInBase133101::OnAddInToolCommand
_TEXT	ENDS
; Function compile flags: /Ogtp
; File D:\git\src\IBK\IBK_DRFN\ProjSrc\SrcChartEx\ChartAddIn\ChartAnalysisToolAddIn\Include_AddIn_133101\I133101\_ChartAddInBase.h
;	COMDAT ?OnAddInToolCommand@CChartAddInBase133101@@MAEHW4EAICommandType@@JJ@Z
_TEXT	SEGMENT
_p_eCommandID$ = 8					; size = 4
_p_lParam1$ = 12					; size = 4
_p_lParam2$ = 16					; size = 4
?OnAddInToolCommand@CChartAddInBase133101@@MAEHW4EAICommandType@@JJ@Z PROC ; CChartAddInBase133101::OnAddInToolCommand, COMDAT
; _this$ = ecx

; 197  : 	virtual BOOL	OnAddInToolCommand(	const EAICommandType p_eCommandID, const long p_lParam1, const long p_lParam2)							{	return FALSE;	}

  00000	33 c0		 xor	 eax, eax
  00002	c2 0c 00	 ret	 12			; 0000000cH
?OnAddInToolCommand@CChartAddInBase133101@@MAEHW4EAICommandType@@JJ@Z ENDP ; CChartAddInBase133101::OnAddInToolCommand
_TEXT	ENDS
; Function compile flags: /Ogtp
; File D:\git\src\IBK\IBK_DRFN\ProjSrc\SrcChartEx\ChartAddIn\ChartAnalysisToolAddIn\Include_AddIn_133101\I133101\_ChartAddInBase.h
;	COMDAT ?OnAddInToolCommand@CChartAddInBase133101@@MAEHW4EAICommandType@@JPBD11@Z
_TEXT	SEGMENT
_p_eCommandID$ = 8					; size = 4
_p_lParam$ = 12						; size = 4
_p_szParam1$ = 16					; size = 4
_p_szParam2$ = 20					; size = 4
_p_szParam3$ = 24					; size = 4
?OnAddInToolCommand@CChartAddInBase133101@@MAEHW4EAICommandType@@JPBD11@Z PROC ; CChartAddInBase133101::OnAddInToolCommand, COMDAT
; _this$ = ecx

; 196  : 	virtual BOOL	OnAddInToolCommand( const EAICommandType p_eCommandID, const long p_lParam, const char *p_szParam1, const char *p_szParam2, const char *p_szParam3)	{	return FALSE;	}

  00000	33 c0		 xor	 eax, eax
  00002	c2 14 00	 ret	 20			; 00000014H
?OnAddInToolCommand@CChartAddInBase133101@@MAEHW4EAICommandType@@JPBD11@Z ENDP ; CChartAddInBase133101::OnAddInToolCommand
_TEXT	ENDS
; Function compile flags: /Ogtp
; File D:\git\src\IBK\IBK_DRFN\ProjSrc\SrcChartEx\ChartAddIn\ChartAnalysisToolAddIn\Include_AddIn_133101\I133101\_ChartAddInBase.h
;	COMDAT ?OnAddInToolCommand@CChartAddInBase133101@@MAEHW4EAICommandType@@JPBD@Z
_TEXT	SEGMENT
_p_eCommandID$ = 8					; size = 4
_p_lParam$ = 12						; size = 4
_p_szParam$ = 16					; size = 4
?OnAddInToolCommand@CChartAddInBase133101@@MAEHW4EAICommandType@@JPBD@Z PROC ; CChartAddInBase133101::OnAddInToolCommand, COMDAT
; _this$ = ecx

; 195  : 	virtual BOOL	OnAddInToolCommand( const EAICommandType p_eCommandID, const long p_lParam, const char *p_szParam)							{	return FALSE;	}

  00000	33 c0		 xor	 eax, eax
  00002	c2 0c 00	 ret	 12			; 0000000cH
?OnAddInToolCommand@CChartAddInBase133101@@MAEHW4EAICommandType@@JPBD@Z ENDP ; CChartAddInBase133101::OnAddInToolCommand
_TEXT	ENDS
; Function compile flags: /Ogtp
; File D:\git\src\IBK\IBK_DRFN\ProjSrc\SrcChartEx\ChartAddIn\ChartAnalysisToolAddIn\Include_AddIn_133101\I133101\_ChartAddInBase.h
;	COMDAT ?OnAddInToolCommand@CChartAddInBase133101@@MAEHW4EAICommandType@@PBUIAddInDllBase@@@Z
_TEXT	SEGMENT
_p_eCommandID$ = 8					; size = 4
_p_pParam$ = 12						; size = 4
?OnAddInToolCommand@CChartAddInBase133101@@MAEHW4EAICommandType@@PBUIAddInDllBase@@@Z PROC ; CChartAddInBase133101::OnAddInToolCommand, COMDAT
; _this$ = ecx

; 193  : 	virtual BOOL	OnAddInToolCommand(	const EAICommandType p_eCommandID, const IAddInDllBase *p_pParam)										{	return FALSE;	}

  00000	33 c0		 xor	 eax, eax
  00002	c2 08 00	 ret	 8
?OnAddInToolCommand@CChartAddInBase133101@@MAEHW4EAICommandType@@PBUIAddInDllBase@@@Z ENDP ; CChartAddInBase133101::OnAddInToolCommand
_TEXT	ENDS
; Function compile flags: /Ogtp
; File D:\git\src\IBK\IBK_DRFN\ProjSrc\SrcChartEx\ChartAddIn\ChartAnalysisToolAddIn\Include_AddIn_133101\I133101\_ChartAddInBase.h
;	COMDAT ?OnAddInToolCommand@CChartAddInBase133101@@MAEHW4EAICommandType@@PBDJ@Z
_TEXT	SEGMENT
_p_eCommandID$ = 8					; size = 4
_p_szParam$ = 12					; size = 4
_p_lParam$ = 16						; size = 4
?OnAddInToolCommand@CChartAddInBase133101@@MAEHW4EAICommandType@@PBDJ@Z PROC ; CChartAddInBase133101::OnAddInToolCommand, COMDAT
; _this$ = ecx

; 192  : 	virtual BOOL	OnAddInToolCommand( const EAICommandType p_eCommandID, const char *p_szParam, const long p_lParam)							{	return FALSE;	}

  00000	33 c0		 xor	 eax, eax
  00002	c2 0c 00	 ret	 12			; 0000000cH
?OnAddInToolCommand@CChartAddInBase133101@@MAEHW4EAICommandType@@PBDJ@Z ENDP ; CChartAddInBase133101::OnAddInToolCommand
_TEXT	ENDS
; Function compile flags: /Ogtp
; File D:\git\src\IBK\IBK_DRFN\ProjSrc\SrcChartEx\ChartAddIn\ChartAnalysisToolAddIn\Include_AddIn_133101\I133101\_ChartAddInBase.h
;	COMDAT ?OnAddInToolCommand@CChartAddInBase133101@@MAEHW4EAICommandType@@PBD1@Z
_TEXT	SEGMENT
_p_eCommandID$ = 8					; size = 4
_p_szParam1$ = 12					; size = 4
_p_szParam2$ = 16					; size = 4
?OnAddInToolCommand@CChartAddInBase133101@@MAEHW4EAICommandType@@PBD1@Z PROC ; CChartAddInBase133101::OnAddInToolCommand, COMDAT
; _this$ = ecx

; 191  : 	virtual BOOL	OnAddInToolCommand(	const EAICommandType p_eCommandID, const char *p_szParam1, const char *p_szParam2)						{	return FALSE;	}

  00000	33 c0		 xor	 eax, eax
  00002	c2 0c 00	 ret	 12			; 0000000cH
?OnAddInToolCommand@CChartAddInBase133101@@MAEHW4EAICommandType@@PBD1@Z ENDP ; CChartAddInBase133101::OnAddInToolCommand
_TEXT	ENDS
; Function compile flags: /Ogtp
; File D:\git\src\IBK\IBK_DRFN\ProjSrc\SrcChartEx\ChartAddIn\ChartAnalysisToolAddIn\Include_AddIn_133101\I133101\_ChartAddInBase.h
;	COMDAT ?OnAddInToolCommand@CChartAddInBase133101@@MAEHW4EAICommandType@@PBD@Z
_TEXT	SEGMENT
_p_eCommandID$ = 8					; size = 4
_p_szParam$ = 12					; size = 4
?OnAddInToolCommand@CChartAddInBase133101@@MAEHW4EAICommandType@@PBD@Z PROC ; CChartAddInBase133101::OnAddInToolCommand, COMDAT
; _this$ = ecx

; 190  : 	virtual BOOL	OnAddInToolCommand(	const EAICommandType p_eCommandID, const char *p_szParam)												{	return FALSE;	}

  00000	33 c0		 xor	 eax, eax
  00002	c2 08 00	 ret	 8
?OnAddInToolCommand@CChartAddInBase133101@@MAEHW4EAICommandType@@PBD@Z ENDP ; CChartAddInBase133101::OnAddInToolCommand
_TEXT	ENDS
; Function compile flags: /Ogtp
; File D:\git\src\IBK\IBK_DRFN\ProjSrc\SrcChartEx\ChartAddIn\ChartAnalysisToolAddIn\Include_AddIn_133101\I133101\_ChartAddInBase.h
;	COMDAT ?OnAddInToolCommand@CChartAddInBase133101@@MAEHW4EAICommandType@@PAUHDC__@@IAAUtagPOINT@@K@Z
_TEXT	SEGMENT
_p_eCommandID$ = 8					; size = 4
_p_hDC$ = 12						; size = 4
_nFlags$ = 16						; size = 4
_point$ = 20						; size = 4
_p_dwMouseActionID$ = 24				; size = 4
?OnAddInToolCommand@CChartAddInBase133101@@MAEHW4EAICommandType@@PAUHDC__@@IAAUtagPOINT@@K@Z PROC ; CChartAddInBase133101::OnAddInToolCommand, COMDAT
; _this$ = ecx

; 189  : 	virtual BOOL	OnAddInToolCommand(	const EAICommandType p_eCommandID, HDC p_hDC, UINT nFlags, POINT &point, const DWORD p_dwMouseActionID)	{	return FALSE;	}

  00000	33 c0		 xor	 eax, eax
  00002	c2 14 00	 ret	 20			; 00000014H
?OnAddInToolCommand@CChartAddInBase133101@@MAEHW4EAICommandType@@PAUHDC__@@IAAUtagPOINT@@K@Z ENDP ; CChartAddInBase133101::OnAddInToolCommand
_TEXT	ENDS
; Function compile flags: /Ogtp
; File D:\git\src\IBK\IBK_DRFN\ProjSrc\SrcChartEx\ChartAddIn\ChartAnalysisToolAddIn\Include_AddIn_133101\I133101\_ChartAddInBase.h
;	COMDAT ?OnAddInMsg@CChartAddInBase133101@@MAEHPBDJ@Z
_TEXT	SEGMENT
_p_szAddInItemName$ = 8					; size = 4
_p_lParam$ = 12						; size = 4
?OnAddInMsg@CChartAddInBase133101@@MAEHPBDJ@Z PROC	; CChartAddInBase133101::OnAddInMsg, COMDAT
; _this$ = ecx

; 187  : 	virtual BOOL	OnAddInMsg(			const char *p_szAddInItemName, const long p_lParam)														{	return FALSE;	}

  00000	33 c0		 xor	 eax, eax
  00002	c2 08 00	 ret	 8
?OnAddInMsg@CChartAddInBase133101@@MAEHPBDJ@Z ENDP	; CChartAddInBase133101::OnAddInMsg
_TEXT	ENDS
; Function compile flags: /Ogtp
; File D:\git\src\IBK\IBK_DRFN\ProjSrc\SrcChartEx\ChartAddIn\ChartAnalysisToolAddIn\Include_AddIn_133101\I133101\_ChartAddInBase.h
;	COMDAT ?OnPreRealPacketEnd@CChartAddInBase133101@@MAEHPBD@Z
_TEXT	SEGMENT
_p_szRQ$ = 8						; size = 4
?OnPreRealPacketEnd@CChartAddInBase133101@@MAEHPBD@Z PROC ; CChartAddInBase133101::OnPreRealPacketEnd, COMDAT
; _this$ = ecx

; 180  : 	virtual BOOL	OnPreRealPacketEnd( const char *p_szRQ = NULL)											{	return TRUE;	}

  00000	b8 01 00 00 00	 mov	 eax, 1
  00005	c2 04 00	 ret	 4
?OnPreRealPacketEnd@CChartAddInBase133101@@MAEHPBD@Z ENDP ; CChartAddInBase133101::OnPreRealPacketEnd
_TEXT	ENDS
; Function compile flags: /Ogtp
; File D:\git\src\IBK\IBK_DRFN\ProjSrc\SrcChartEx\ChartAddIn\ChartAnalysisToolAddIn\Include_AddIn_133101\I133101\_ChartAddInBase.h
;	COMDAT ?OnPreIndexedRealData@CChartAddInBase133101@@MAEHPBDHAAN@Z
_TEXT	SEGMENT
_p_szPacketName$ = 8					; size = 4
_p_nIndex$ = 12						; size = 4
_p_dData$ = 16						; size = 4
?OnPreIndexedRealData@CChartAddInBase133101@@MAEHPBDHAAN@Z PROC ; CChartAddInBase133101::OnPreIndexedRealData, COMDAT
; _this$ = ecx

; 179  : 	virtual BOOL	OnPreIndexedRealData( const char *p_szPacketName, const int p_nIndex, double &p_dData)	{	return TRUE;	}

  00000	b8 01 00 00 00	 mov	 eax, 1
  00005	c2 0c 00	 ret	 12			; 0000000cH
?OnPreIndexedRealData@CChartAddInBase133101@@MAEHPBDHAAN@Z ENDP ; CChartAddInBase133101::OnPreIndexedRealData
_TEXT	ENDS
; Function compile flags: /Ogtp
; File D:\git\src\IBK\IBK_DRFN\ProjSrc\SrcChartEx\ChartAddIn\ChartAnalysisToolAddIn\Include_AddIn_133101\I133101\_ChartAddInBase.h
;	COMDAT ?OnPreRealData@CChartAddInBase133101@@MAEHPBDAAN0@Z
_TEXT	SEGMENT
_p_szPacketName$ = 8					; size = 4
_p_dData$ = 12						; size = 4
_p_szRQ$ = 16						; size = 4
?OnPreRealData@CChartAddInBase133101@@MAEHPBDAAN0@Z PROC ; CChartAddInBase133101::OnPreRealData, COMDAT
; _this$ = ecx

; 178  : 	virtual BOOL	OnPreRealData( const char *p_szPacketName, double &p_dData, const char *p_szRQ = NULL)	{	return TRUE;	}

  00000	b8 01 00 00 00	 mov	 eax, 1
  00005	c2 0c 00	 ret	 12			; 0000000cH
?OnPreRealData@CChartAddInBase133101@@MAEHPBDAAN0@Z ENDP ; CChartAddInBase133101::OnPreRealData
_TEXT	ENDS
; Function compile flags: /Ogtp
; File D:\git\src\IBK\IBK_DRFN\ProjSrc\SrcChartEx\ChartAddIn\ChartAnalysisToolAddIn\Include_AddIn_133101\I133101\_ChartAddInBase.h
;	COMDAT ?OnRecalculationComplete@CChartAddInBase133101@@MAEXXZ
_TEXT	SEGMENT
?OnRecalculationComplete@CChartAddInBase133101@@MAEXXZ PROC ; CChartAddInBase133101::OnRecalculationComplete, COMDAT
; _this$ = ecx

; 174  : 	virtual void	OnRecalculationComplete( void)						{}

  00000	c2 00 00	 ret	 0
?OnRecalculationComplete@CChartAddInBase133101@@MAEXXZ ENDP ; CChartAddInBase133101::OnRecalculationComplete
_TEXT	ENDS
; Function compile flags: /Ogtp
; File D:\git\src\IBK\IBK_DRFN\ProjSrc\SrcChartEx\ChartAddIn\ChartAnalysisToolAddIn\Include_AddIn_133101\I133101\_ChartAddInBase.h
;	COMDAT ?OnSaveEnvironment@CChartAddInBase133101@@MAEXPAUIPropertyMap@@@Z
_TEXT	SEGMENT
_p_pIAddInEnvMap$ = 8					; size = 4
?OnSaveEnvironment@CChartAddInBase133101@@MAEXPAUIPropertyMap@@@Z PROC ; CChartAddInBase133101::OnSaveEnvironment, COMDAT
; _this$ = ecx

; 170  : 	virtual void	OnSaveEnvironment( IPropertyMap *p_pIAddInEnvMap)	{}

  00000	c2 04 00	 ret	 4
?OnSaveEnvironment@CChartAddInBase133101@@MAEXPAUIPropertyMap@@@Z ENDP ; CChartAddInBase133101::OnSaveEnvironment
_TEXT	ENDS
; Function compile flags: /Ogtp
; File D:\git\src\IBK\IBK_DRFN\ProjSrc\SrcChartEx\ChartAddIn\ChartAnalysisToolAddIn\Include_AddIn_133101\I133101\_ChartAddInBase.h
;	COMDAT ?OnLoadEnvironment@CChartAddInBase133101@@MAEXPAUIPropertyMap@@@Z
_TEXT	SEGMENT
_p_pIAddInEnvMap$ = 8					; size = 4
?OnLoadEnvironment@CChartAddInBase133101@@MAEXPAUIPropertyMap@@@Z PROC ; CChartAddInBase133101::OnLoadEnvironment, COMDAT
; _this$ = ecx

; 169  : 	virtual void	OnLoadEnvironment( IPropertyMap *p_pIAddInEnvMap)	{}

  00000	c2 04 00	 ret	 4
?OnLoadEnvironment@CChartAddInBase133101@@MAEXPAUIPropertyMap@@@Z ENDP ; CChartAddInBase133101::OnLoadEnvironment
_TEXT	ENDS
; Function compile flags: /Ogtp
; File D:\git\src\IBK\IBK_DRFN\ProjSrc\SrcChartEx\ChartAddIn\ChartAnalysisToolAddIn\Include_AddIn_133101\I133101\_ChartAddInBase.h
;	COMDAT ?OnRealPacketEnd@CChartAddInBase133101@@MAEXPBD@Z
_TEXT	SEGMENT
_p_szRQ$ = 8						; size = 4
?OnRealPacketEnd@CChartAddInBase133101@@MAEXPBD@Z PROC	; CChartAddInBase133101::OnRealPacketEnd, COMDAT
; _this$ = ecx

; 167  : 	virtual void	OnRealPacketEnd( const char *p_szRQ)								{}

  00000	c2 04 00	 ret	 4
?OnRealPacketEnd@CChartAddInBase133101@@MAEXPBD@Z ENDP	; CChartAddInBase133101::OnRealPacketEnd
_TEXT	ENDS
; Function compile flags: /Ogtp
; File D:\git\src\IBK\IBK_DRFN\ProjSrc\SrcChartEx\ChartAddIn\ChartAnalysisToolAddIn\Include_AddIn_133101\I133101\_ChartAddInBase.h
;	COMDAT ?OnIndexedRealData@CChartAddInBase133101@@MAEXPBDHN@Z
_TEXT	SEGMENT
_p_szPacketName$ = 8					; size = 4
_p_nIndex$ = 12						; size = 4
_p_dData$ = 16						; size = 8
?OnIndexedRealData@CChartAddInBase133101@@MAEXPBDHN@Z PROC ; CChartAddInBase133101::OnIndexedRealData, COMDAT
; _this$ = ecx

; 165  : 	virtual void	OnIndexedRealData( const char *p_szPacketName, const int p_nIndex, double p_dData)		{}

  00000	c2 10 00	 ret	 16			; 00000010H
?OnIndexedRealData@CChartAddInBase133101@@MAEXPBDHN@Z ENDP ; CChartAddInBase133101::OnIndexedRealData
_TEXT	ENDS
; Function compile flags: /Ogtp
; File D:\git\src\IBK\IBK_DRFN\ProjSrc\SrcChartEx\ChartAddIn\ChartAnalysisToolAddIn\Include_AddIn_133101\I133101\_ChartAddInBase.h
;	COMDAT ?OnRealData@CChartAddInBase133101@@MAEXPBDN0@Z
_TEXT	SEGMENT
_p_szPacketName$ = 8					; size = 4
_p_dData$ = 12						; size = 8
_p_szRQ$ = 20						; size = 4
?OnRealData@CChartAddInBase133101@@MAEXPBDN0@Z PROC	; CChartAddInBase133101::OnRealData, COMDAT
; _this$ = ecx

; 164  : 	virtual void	OnRealData( const char *p_szPacketName, double p_dData, const char *p_szRQ)			{}

  00000	c2 10 00	 ret	 16			; 00000010H
?OnRealData@CChartAddInBase133101@@MAEXPBDN0@Z ENDP	; CChartAddInBase133101::OnRealData
_TEXT	ENDS
; Function compile flags: /Ogtp
; File D:\git\src\IBK\IBK_DRFN\ProjSrc\SrcChartEx\ChartAddIn\ChartAnalysisToolAddIn\Include_AddIn_133101\I133101\_ChartAddInBase.h
;	COMDAT ?OnBlockChanged@CChartAddInBase133101@@MAEXW4BLOCKBEHAVIOR@CBlockBaseData@@HHHH@Z
_TEXT	SEGMENT
_p_eChangeType$ = 8					; size = 4
_p_nSourceRow$ = 12					; size = 4
_p_nSourceColumn$ = 16					; size = 4
_p_nTargetRow$ = 20					; size = 4
_p_nTargetColumn$ = 24					; size = 4
?OnBlockChanged@CChartAddInBase133101@@MAEXW4BLOCKBEHAVIOR@CBlockBaseData@@HHHH@Z PROC ; CChartAddInBase133101::OnBlockChanged, COMDAT
; _this$ = ecx

; 160  : 	virtual void	OnBlockChanged( const CBlockBaseData::BLOCKBEHAVIOR p_eChangeType, const int p_nSourceRow, const int p_nSourceColumn, const int p_nTargetRow, const int p_nTargetColumn)	{}

  00000	c2 14 00	 ret	 20			; 00000014H
?OnBlockChanged@CChartAddInBase133101@@MAEXW4BLOCKBEHAVIOR@CBlockBaseData@@HHHH@Z ENDP ; CChartAddInBase133101::OnBlockChanged
_TEXT	ENDS
; Function compile flags: /Ogtp
; File D:\git\src\IBK\IBK_DRFN\ProjSrc\SrcChartEx\ChartAddIn\ChartAnalysisToolAddIn\Include_AddIn_133101\I133101\_ChartAddInBase.h
;	COMDAT ?OnPacketTruncated@CChartAddInBase133101@@MAEXH@Z
_TEXT	SEGMENT
_p_nDataCount$ = 8					; size = 4
?OnPacketTruncated@CChartAddInBase133101@@MAEXH@Z PROC	; CChartAddInBase133101::OnPacketTruncated, COMDAT
; _this$ = ecx

; 158  : 	virtual void	OnPacketTruncated( const int p_nDataCount)			{}

  00000	c2 04 00	 ret	 4
?OnPacketTruncated@CChartAddInBase133101@@MAEXH@Z ENDP	; CChartAddInBase133101::OnPacketTruncated
_TEXT	ENDS
; Function compile flags: /Ogtp
; File D:\git\src\IBK\IBK_DRFN\ProjSrc\SrcChartEx\ChartAddIn\ChartAnalysisToolAddIn\Include_AddIn_133101\I133101\_ChartAddInBase.h
;	COMDAT ?OnGraphDeleted@CChartAddInBase133101@@MAEXPBD0@Z
_TEXT	SEGMENT
_p_szGraphName$ = 8					; size = 4
_p_szIndicatorName$ = 12				; size = 4
?OnGraphDeleted@CChartAddInBase133101@@MAEXPBD0@Z PROC	; CChartAddInBase133101::OnGraphDeleted, COMDAT
; _this$ = ecx

; 156  : 	virtual void	OnGraphDeleted( const char *p_szGraphName, const char *p_szIndicatorName)			{}

  00000	c2 08 00	 ret	 8
?OnGraphDeleted@CChartAddInBase133101@@MAEXPBD0@Z ENDP	; CChartAddInBase133101::OnGraphDeleted
_TEXT	ENDS
; Function compile flags: /Ogtp
; File D:\git\src\IBK\IBK_DRFN\ProjSrc\SrcChartEx\ChartAddIn\ChartAnalysisToolAddIn\Include_AddIn_133101\I133101\_ChartAddInBase.h
;	COMDAT ?OnContextMenu@CChartAddInBase133101@@MAEXPAUHWND__@@AAUtagPOINT@@@Z
_TEXT	SEGMENT
_p_hWnd$ = 8						; size = 4
_p_pt$ = 12						; size = 4
?OnContextMenu@CChartAddInBase133101@@MAEXPAUHWND__@@AAUtagPOINT@@@Z PROC ; CChartAddInBase133101::OnContextMenu, COMDAT
; _this$ = ecx

; 154  : 	virtual void	OnContextMenu( HWND p_hWnd, POINT &p_pt)			{}

  00000	c2 08 00	 ret	 8
?OnContextMenu@CChartAddInBase133101@@MAEXPAUHWND__@@AAUtagPOINT@@@Z ENDP ; CChartAddInBase133101::OnContextMenu
_TEXT	ENDS
; Function compile flags: /Ogtp
; File D:\git\src\IBK\IBK_DRFN\ProjSrc\SrcChartEx\ChartAddIn\ChartAnalysisToolAddIn\Include_AddIn_133101\I133101\_ChartAddInBase.h
;	COMDAT ?OnManualRealData@CChartAddInBase133101@@MAEXPBDNH@Z
_TEXT	SEGMENT
_p_szPacketName$ = 8					; size = 4
_p_dData$ = 12						; size = 8
_p_nOption$ = 20					; size = 4
?OnManualRealData@CChartAddInBase133101@@MAEXPBDNH@Z PROC ; CChartAddInBase133101::OnManualRealData, COMDAT
; _this$ = ecx

; 152  : 	virtual void	OnManualRealData( const char *p_szPacketName, const double p_dData, const int p_nOption)	{}

  00000	c2 10 00	 ret	 16			; 00000010H
?OnManualRealData@CChartAddInBase133101@@MAEXPBDNH@Z ENDP ; CChartAddInBase133101::OnManualRealData
_TEXT	ENDS
; Function compile flags: /Ogtp
; File D:\git\src\IBK\IBK_DRFN\ProjSrc\SrcChartEx\ChartAddIn\ChartAnalysisToolAddIn\Include_AddIn_133101\I133101\_ChartAddInBase.h
;	COMDAT ?OnGraphAdded@CChartAddInBase133101@@MAEXPBD0@Z
_TEXT	SEGMENT
_p_szGraphName$ = 8					; size = 4
_p_szIndicatorName$ = 12				; size = 4
?OnGraphAdded@CChartAddInBase133101@@MAEXPBD0@Z PROC	; CChartAddInBase133101::OnGraphAdded, COMDAT
; _this$ = ecx

; 150  : 	virtual void	OnGraphAdded( const char *p_szGraphName, const char *p_szIndicatorName)			{}

  00000	c2 08 00	 ret	 8
?OnGraphAdded@CChartAddInBase133101@@MAEXPBD0@Z ENDP	; CChartAddInBase133101::OnGraphAdded
_TEXT	ENDS
; Function compile flags: /Ogtp
; File D:\git\src\IBK\IBK_DRFN\ProjSrc\SrcChartEx\ChartAddIn\ChartAnalysisToolAddIn\Include_AddIn_133101\I133101\_ChartAddInBase.h
;	COMDAT ?OnBlockRemoved@CChartAddInBase133101@@MAEXHH@Z
_TEXT	SEGMENT
_p_nRow$ = 8						; size = 4
_p_nColumn$ = 12					; size = 4
?OnBlockRemoved@CChartAddInBase133101@@MAEXHH@Z PROC	; CChartAddInBase133101::OnBlockRemoved, COMDAT
; _this$ = ecx

; 148  : 	virtual void	OnBlockRemoved( const int p_nRow, const int p_nColumn)	{}

  00000	c2 08 00	 ret	 8
?OnBlockRemoved@CChartAddInBase133101@@MAEXHH@Z ENDP	; CChartAddInBase133101::OnBlockRemoved
_TEXT	ENDS
; Function compile flags: /Ogtp
; File D:\git\src\IBK\IBK_DRFN\ProjSrc\SrcChartEx\ChartAddIn\ChartAnalysisToolAddIn\Include_AddIn_133101\I133101\_ChartAddInBase.h
;	COMDAT ?OnGraphDataChanged@CChartAddInBase133101@@MAEXXZ
_TEXT	SEGMENT
?OnGraphDataChanged@CChartAddInBase133101@@MAEXXZ PROC	; CChartAddInBase133101::OnGraphDataChanged, COMDAT
; _this$ = ecx

; 146  : 	virtual void	OnGraphDataChanged( void)							{}

  00000	c2 00 00	 ret	 0
?OnGraphDataChanged@CChartAddInBase133101@@MAEXXZ ENDP	; CChartAddInBase133101::OnGraphDataChanged
_TEXT	ENDS
; Function compile flags: /Ogtp
; File D:\git\src\IBK\IBK_DRFN\ProjSrc\SrcChartEx\ChartAddIn\ChartAnalysisToolAddIn\Include_AddIn_133101\I133101\_ChartAddInBase.h
;	COMDAT ?OnChartItemChanged@CChartAddInBase133101@@MAEXXZ
_TEXT	SEGMENT
?OnChartItemChanged@CChartAddInBase133101@@MAEXXZ PROC	; CChartAddInBase133101::OnChartItemChanged, COMDAT
; _this$ = ecx

; 144  : 	virtual void	OnChartItemChanged( void)							{}

  00000	c2 00 00	 ret	 0
?OnChartItemChanged@CChartAddInBase133101@@MAEXXZ ENDP	; CChartAddInBase133101::OnChartItemChanged
_TEXT	ENDS
; Function compile flags: /Ogtp
; File D:\git\src\IBK\IBK_DRFN\ProjSrc\SrcChartEx\ChartAddIn\ChartAnalysisToolAddIn\Include_AddIn_133101\I133101\_ChartAddInBase.h
;	COMDAT ?OnUserIndiatorConditionLoaded@CChartAddInBase133101@@MAEXXZ
_TEXT	SEGMENT
?OnUserIndiatorConditionLoaded@CChartAddInBase133101@@MAEXXZ PROC ; CChartAddInBase133101::OnUserIndiatorConditionLoaded, COMDAT
; _this$ = ecx

; 142  : 	virtual void	OnUserIndiatorConditionLoaded( void)				{}

  00000	c2 00 00	 ret	 0
?OnUserIndiatorConditionLoaded@CChartAddInBase133101@@MAEXXZ ENDP ; CChartAddInBase133101::OnUserIndiatorConditionLoaded
_TEXT	ENDS
; Function compile flags: /Ogtp
; File D:\git\src\IBK\IBK_DRFN\ProjSrc\SrcChartEx\ChartAddIn\ChartAnalysisToolAddIn\Include_AddIn_133101\I133101\_ChartAddInBase.h
;	COMDAT ?OnResetMainBlock@CChartAddInBase133101@@MAEXXZ
_TEXT	SEGMENT
?OnResetMainBlock@CChartAddInBase133101@@MAEXXZ PROC	; CChartAddInBase133101::OnResetMainBlock, COMDAT
; _this$ = ecx

; 140  : 	virtual void	OnResetMainBlock( void)								{}

  00000	c2 00 00	 ret	 0
?OnResetMainBlock@CChartAddInBase133101@@MAEXXZ ENDP	; CChartAddInBase133101::OnResetMainBlock
_TEXT	ENDS
; Function compile flags: /Ogtp
; File D:\git\src\IBK\IBK_DRFN\ProjSrc\SrcChartEx\ChartAddIn\ChartAnalysisToolAddIn\Include_AddIn_133101\I133101\_ChartAddInBase.h
;	COMDAT ?OnTimer@CChartAddInBase133101@@MAEXI@Z
_TEXT	SEGMENT
_p_uTimerID$ = 8					; size = 4
?OnTimer@CChartAddInBase133101@@MAEXI@Z PROC		; CChartAddInBase133101::OnTimer, COMDAT
; _this$ = ecx

; 133  : 	virtual void	OnTimer( UINT p_uTimerID)	{}

  00000	c2 04 00	 ret	 4
?OnTimer@CChartAddInBase133101@@MAEXI@Z ENDP		; CChartAddInBase133101::OnTimer
_TEXT	ENDS
; Function compile flags: /Ogtp
; File D:\git\src\IBK\IBK_DRFN\ProjSrc\SrcChartEx\ChartAddIn\ChartAnalysisToolAddIn\Include_AddIn_133101\I133101\_ChartAddInBase.h
;	COMDAT ?OnPacketDataMultiItem@CChartAddInBase133101@@MAEXPBD0H@Z
_TEXT	SEGMENT
_lpszRQ$ = 8						; size = 4
_p_szPacketNames$ = 12					; size = 4
_p_bWithReset$ = 16					; size = 4
?OnPacketDataMultiItem@CChartAddInBase133101@@MAEXPBD0H@Z PROC ; CChartAddInBase133101::OnPacketDataMultiItem, COMDAT
; _this$ = ecx

; 131  : 	virtual void	OnPacketDataMultiItem(LPCTSTR lpszRQ, const char *p_szPacketNames, BOOL p_bWithReset)	{}

  00000	c2 0c 00	 ret	 12			; 0000000cH
?OnPacketDataMultiItem@CChartAddInBase133101@@MAEXPBD0H@Z ENDP ; CChartAddInBase133101::OnPacketDataMultiItem
_TEXT	ENDS
; Function compile flags: /Ogtp
; File D:\git\src\IBK\IBK_DRFN\ProjSrc\SrcChartEx\ChartAddIn\ChartAnalysisToolAddIn\Include_AddIn_133101\I133101\_ChartAddInBase.h
;	COMDAT ?OnDrawBeforeGraph@CChartAddInBase133101@@MAEXPAUHDC__@@@Z
_TEXT	SEGMENT
_p_hDC$ = 8						; size = 4
?OnDrawBeforeGraph@CChartAddInBase133101@@MAEXPAUHDC__@@@Z PROC ; CChartAddInBase133101::OnDrawBeforeGraph, COMDAT
; _this$ = ecx

; 127  : 	virtual void	OnDrawBeforeGraph( HDC p_hDC)	{}

  00000	c2 04 00	 ret	 4
?OnDrawBeforeGraph@CChartAddInBase133101@@MAEXPAUHDC__@@@Z ENDP ; CChartAddInBase133101::OnDrawBeforeGraph
_TEXT	ENDS
; Function compile flags: /Ogtp
; File D:\git\src\IBK\IBK_DRFN\ProjSrc\SrcChartEx\ChartAddIn\ChartAnalysisToolAddIn\Include_AddIn_133101\I133101\_ChartAddInBase.h
;	COMDAT ?OnLSharedDataChange@CChartAddInBase133101@@MAEXPBD0@Z
_TEXT	SEGMENT
_p_szLShareKey$ = 8					; size = 4
_p_szLShareValue$ = 12					; size = 4
?OnLSharedDataChange@CChartAddInBase133101@@MAEXPBD0@Z PROC ; CChartAddInBase133101::OnLSharedDataChange, COMDAT
; _this$ = ecx

; 123  : 	virtual void	OnLSharedDataChange( const char *p_szLShareKey, const char *p_szLShareValue)	{}

  00000	c2 08 00	 ret	 8
?OnLSharedDataChange@CChartAddInBase133101@@MAEXPBD0@Z ENDP ; CChartAddInBase133101::OnLSharedDataChange
_TEXT	ENDS
; Function compile flags: /Ogtp
; File D:\git\src\IBK\IBK_DRFN\ProjSrc\SrcChartEx\ChartAddIn\ChartAnalysisToolAddIn\Include_AddIn_133101\I133101\_ChartAddInBase.h
;	COMDAT ?OnGSharedDataChange@CChartAddInBase133101@@MAEXPBD0H@Z
_TEXT	SEGMENT
_p_szGShareKey$ = 8					; size = 4
_p_szGShareValue$ = 12					; size = 4
_p_bStartShare$ = 16					; size = 4
?OnGSharedDataChange@CChartAddInBase133101@@MAEXPBD0H@Z PROC ; CChartAddInBase133101::OnGSharedDataChange, COMDAT
; _this$ = ecx

; 121  : 	virtual void	OnGSharedDataChange( const char *p_szGShareKey, const char *p_szGShareValue, BOOL p_bStartShare)	{}

  00000	c2 0c 00	 ret	 12			; 0000000cH
?OnGSharedDataChange@CChartAddInBase133101@@MAEXPBD0H@Z ENDP ; CChartAddInBase133101::OnGSharedDataChange
_TEXT	ENDS
; Function compile flags: /Ogtp
; File D:\git\src\IBK\IBK_DRFN\ProjSrc\SrcChartEx\ChartAddIn\ChartAnalysisToolAddIn\Include_AddIn_133101\I133101\_ChartAddInBase.h
;	COMDAT ?OnOcxDestroyWindow@CChartAddInBase133101@@MAEXXZ
_TEXT	SEGMENT
?OnOcxDestroyWindow@CChartAddInBase133101@@MAEXXZ PROC	; CChartAddInBase133101::OnOcxDestroyWindow, COMDAT
; _this$ = ecx

; 111  : 	virtual void	OnOcxDestroyWindow( void)							{	m_bOcxDestroyed = TRUE;	}

  00000	c7 41 34 01 00
	00 00		 mov	 DWORD PTR [ecx+52], 1
  00007	c3		 ret	 0
?OnOcxDestroyWindow@CChartAddInBase133101@@MAEXXZ ENDP	; CChartAddInBase133101::OnOcxDestroyWindow
_TEXT	ENDS
; Function compile flags: /Ogtp
; File D:\git\src\IBK\IBK_DRFN\ProjSrc\SrcChartEx\ChartAddIn\ChartAnalysisToolAddIn\Include_AddIn_133101\I133101\_ChartAddInBase.h
;	COMDAT ?InvokeAddInStr@CChartAddInBase133101@@MAEHPBD0@Z
_TEXT	SEGMENT
_p_szCommandName$ = 8					; size = 4
_p_szData$ = 12						; size = 4
?InvokeAddInStr@CChartAddInBase133101@@MAEHPBD0@Z PROC	; CChartAddInBase133101::InvokeAddInStr, COMDAT
; _this$ = ecx

; 96   : 	virtual BOOL	InvokeAddInStr( LPCTSTR p_szCommandName, LPCTSTR p_szData)	{	return FALSE;	}	// (2005/9/2 - Seung-Won, Bae) for String Data

  00000	33 c0		 xor	 eax, eax
  00002	c2 08 00	 ret	 8
?InvokeAddInStr@CChartAddInBase133101@@MAEHPBD0@Z ENDP	; CChartAddInBase133101::InvokeAddInStr
_TEXT	ENDS
; Function compile flags: /Ogtp
; File D:\git\src\IBK\IBK_DRFN\ProjSrc\SrcChartEx\ChartAddIn\ChartAnalysisToolAddIn\Include_AddIn_133101\I133101\_ChartAddInBase.h
;	COMDAT ?InvokeAddIn@CChartAddInBase133101@@MAEHHJ@Z
_TEXT	SEGMENT
_p_nCommandType$ = 8					; size = 4
_p_lData$ = 12						; size = 4
?InvokeAddIn@CChartAddInBase133101@@MAEHHJ@Z PROC	; CChartAddInBase133101::InvokeAddIn, COMDAT
; _this$ = ecx

; 95   : 	virtual BOOL	InvokeAddIn( int p_nCommandType, long p_lData)	{	return FALSE;	}

  00000	33 c0		 xor	 eax, eax
  00002	c2 08 00	 ret	 8
?InvokeAddIn@CChartAddInBase133101@@MAEHHJ@Z ENDP	; CChartAddInBase133101::InvokeAddIn
_TEXT	ENDS
; Function compile flags: /Ogtp
; File D:\git\src\IBK\IBK_DRFN\ProjSrc\SrcChartEx\ChartAddIn\ChartAnalysisToolAddIn\Include_AddIn_133101\I133101\_ChartAddInBase.h
;	COMDAT ?GetAddInCustomInterface@CChartAddInBase133101@@MAEPAUIUnknown@@XZ
_TEXT	SEGMENT
?GetAddInCustomInterface@CChartAddInBase133101@@MAEPAUIUnknown@@XZ PROC ; CChartAddInBase133101::GetAddInCustomInterface, COMDAT
; _this$ = ecx

; 91   : 	virtual IUnknown *	GetAddInCustomInterface( void)				{	return NULL;	}

  00000	33 c0		 xor	 eax, eax
  00002	c3		 ret	 0
?GetAddInCustomInterface@CChartAddInBase133101@@MAEPAUIUnknown@@XZ ENDP ; CChartAddInBase133101::GetAddInCustomInterface
_TEXT	ENDS
; Function compile flags: /Ogtp
; File D:\git\src\IBK\IBK_DRFN\ProjSrc\SrcChartEx\ChartAddIn\ChartAnalysisToolAddIn\Include_AddIn_133101\I133101\_ChartAddInBase.h
;	COMDAT ?QueryInterface@CChartAddInBase133101@@MAGJABU_GUID@@PAPAX@Z
_TEXT	SEGMENT
_this$ = 8						; size = 4
_iid$ = 12						; size = 4
_ppvObject$ = 16					; size = 4
?QueryInterface@CChartAddInBase133101@@MAGJABU_GUID@@PAPAX@Z PROC ; CChartAddInBase133101::QueryInterface, COMDAT

; 54   : 	_IWRAPPER_IUNKNOWN_INTERFACE()

  00000	b8 02 40 00 80	 mov	 eax, -2147467262	; 80004002H
  00005	c2 0c 00	 ret	 12			; 0000000cH
?QueryInterface@CChartAddInBase133101@@MAGJABU_GUID@@PAPAX@Z ENDP ; CChartAddInBase133101::QueryInterface
_TEXT	ENDS
; Function compile flags: /Ogtp
; File D:\git\src\IBK\IBK_DRFN\ProjSrc\SrcChartEx\ChartAddIn\ChartAnalysisToolAddIn\Include_AddIn_133101\I133101\_ChartAddInBase.h
;	COMDAT ?Release@CChartAddInBase133101@@MAGKXZ
_TEXT	SEGMENT
_this$ = 8						; size = 4
?Release@CChartAddInBase133101@@MAGKXZ PROC		; CChartAddInBase133101::Release, COMDAT

; 54   : 	_IWRAPPER_IUNKNOWN_INTERFACE()

  00000	55		 push	 ebp
  00001	8b ec		 mov	 ebp, esp
  00003	5d		 pop	 ebp
  00004	e9 00 00 00 00	 jmp	 ?Release@CIWUnknown@@MAGKXZ ; CIWUnknown::Release
?Release@CChartAddInBase133101@@MAGKXZ ENDP		; CChartAddInBase133101::Release
_TEXT	ENDS
; Function compile flags: /Ogtp
; File D:\git\src\IBK\IBK_DRFN\ProjSrc\SrcChartEx\ChartAddIn\ChartAnalysisToolAddIn\Include_AddIn_133101\I133101\_ChartAddInBase.h
;	COMDAT ?AddRef@CChartAddInBase133101@@MAGKXZ
_TEXT	SEGMENT
_this$ = 8						; size = 4
?AddRef@CChartAddInBase133101@@MAGKXZ PROC		; CChartAddInBase133101::AddRef, COMDAT

; 54   : 	_IWRAPPER_IUNKNOWN_INTERFACE()

  00000	55		 push	 ebp
  00001	8b ec		 mov	 ebp, esp
  00003	5d		 pop	 ebp
  00004	e9 00 00 00 00	 jmp	 ?AddRef@CIWUnknown@@MAGKXZ ; CIWUnknown::AddRef
?AddRef@CChartAddInBase133101@@MAGKXZ ENDP		; CChartAddInBase133101::AddRef
_TEXT	ENDS
; Function compile flags: /Ogtp
; File D:\git\src\IBK\IBK_DRFN\ProjSrc\SrcChartEx\ChartAddIn\ChartAnalysisToolAddIn\Include_AddIn_133101\_IWUnknown.h
;	COMDAT ?PreDestruct@CIWUnknown@@MAEXXZ
_TEXT	SEGMENT
?PreDestruct@CIWUnknown@@MAEXXZ PROC			; CIWUnknown::PreDestruct, COMDAT
; _this$ = ecx

; 48   : 	virtual void	PreDestruct( void)		{}

  00000	c2 00 00	 ret	 0
?PreDestruct@CIWUnknown@@MAEXXZ ENDP			; CIWUnknown::PreDestruct
_TEXT	ENDS
; Function compile flags: /Ogtp
; File D:\git\src\IBK\IBK_DRFN\ProjSrc\SrcChartEx\ChartAddIn\ChartAnalysisToolAddIn\Include_AddIn_133101\_IWUnknown.h
;	COMDAT ?PreDestructX@CIWUnknown@@MAEXXZ
_TEXT	SEGMENT
?PreDestructX@CIWUnknown@@MAEXXZ PROC			; CIWUnknown::PreDestructX, COMDAT
; _this$ = ecx

; 47   : 	virtual void	PreDestructX( void)		{}

  00000	c2 00 00	 ret	 0
?PreDestructX@CIWUnknown@@MAEXXZ ENDP			; CIWUnknown::PreDestructX
_TEXT	ENDS
; Function compile flags: /Ogtp
; File D:\git\src\IBK\IBK_DRFN\ProjSrc\SrcChartEx\ChartAddIn\ChartAnalysisToolAddIn\Include_AddIn_133101\_IWUnknown.h
;	COMDAT ?PostConstruct@CIWUnknown@@MAEXXZ
_TEXT	SEGMENT
?PostConstruct@CIWUnknown@@MAEXXZ PROC			; CIWUnknown::PostConstruct, COMDAT
; _this$ = ecx

; 46   : 	virtual void	PostConstruct( void)	{}

  00000	c2 00 00	 ret	 0
?PostConstruct@CIWUnknown@@MAEXXZ ENDP			; CIWUnknown::PostConstruct
_TEXT	ENDS
; Function compile flags: /Ogtp
; File C:\Program Files (x86)\Microsoft Visual Studio\2019\Community\VC\Tools\MSVC\14.29.30133\atlmfc\include\afx.inl
;	COMDAT ?Dump@CObject@@UBEXAAVCDumpContext@@@Z
_TEXT	SEGMENT
___formal$ = 8						; size = 4
?Dump@CObject@@UBEXAAVCDumpContext@@@Z PROC		; CObject::Dump, COMDAT
; _this$ = ecx

; 122  : 	{ /* no dumping in release builds */ }

  00000	c2 04 00	 ret	 4
?Dump@CObject@@UBEXAAVCDumpContext@@@Z ENDP		; CObject::Dump
_TEXT	ENDS
; Function compile flags: /Ogtp
; File C:\Program Files (x86)\Microsoft Visual Studio\2019\Community\VC\Tools\MSVC\14.29.30133\atlmfc\include\afx.inl
;	COMDAT ?AssertValid@CObject@@UBEXXZ
_TEXT	SEGMENT
?AssertValid@CObject@@UBEXXZ PROC			; CObject::AssertValid, COMDAT
; _this$ = ecx

; 120  : 	{ /* no asserts in release builds */ }

  00000	c2 00 00	 ret	 0
?AssertValid@CObject@@UBEXXZ ENDP			; CObject::AssertValid
_TEXT	ENDS
; Function compile flags: /Ogtp
; File C:\Program Files (x86)\Microsoft Visual Studio\2019\Community\VC\Tools\MSVC\14.29.30133\atlmfc\include\afx.inl
;	COMDAT ?Serialize@CObject@@UAEXAAVCArchive@@@Z
_TEXT	SEGMENT
___formal$ = 8						; size = 4
?Serialize@CObject@@UAEXAAVCArchive@@@Z PROC		; CObject::Serialize, COMDAT
; _this$ = ecx

; 106  : 	{ /* CObject does not serialize anything by default */ }

  00000	c2 04 00	 ret	 4
?Serialize@CObject@@UAEXAAVCArchive@@@Z ENDP		; CObject::Serialize
_TEXT	ENDS
; Function compile flags: /Ogtp
; File D:\git\src\IBK\IBK_DRFN\ProjSrc\SrcChartEx\ChartAddIn\ChartAnalysisToolAddIn\ChartAnalysisToolAddIn\CrosshairsDragAddInImp.cpp
;	COMDAT ?__empty_global_delete@@YAXPAXI@Z
_TEXT	SEGMENT
___formal$ = 8						; size = 4
___formal$ = 12						; size = 4
?__empty_global_delete@@YAXPAXI@Z PROC			; __empty_global_delete, COMDAT

  00000	c2 00 00	 ret	 0
?__empty_global_delete@@YAXPAXI@Z ENDP			; __empty_global_delete
_TEXT	ENDS
; Function compile flags: /Ogtp
; File D:\git\src\IBK\IBK_DRFN\ProjSrc\SrcChartEx\ChartAddIn\ChartAnalysisToolAddIn\ChartAnalysisToolAddIn\CrosshairsDragAddInImp.cpp
;	COMDAT ?__empty_global_delete@@YAXPAX@Z
_TEXT	SEGMENT
___formal$ = 8						; size = 4
?__empty_global_delete@@YAXPAX@Z PROC			; __empty_global_delete, COMDAT

  00000	c2 00 00	 ret	 0
?__empty_global_delete@@YAXPAX@Z ENDP			; __empty_global_delete
_TEXT	ENDS
END
