; Listing generated by Microsoft (R) Optimizing Compiler Version 19.29.30145.0 

	TITLE	D:\git\src\IBK\IBK_DRFN\#DRfn-CS\_Obj\ChartAnalysisToolAddIn\CrosshairsToolAddInImp.obj
	.686P
	.XMM
	include listing.inc
	.model	flat

INCLUDELIB MSVCRT
INCLUDELIB OLDNAMES

PUBLIC	??_C@_0L@HKLKPNOH@CROSS_TOOL@			; `string'
PUBLIC	?m_eRegisteredEventMap@CCrosshairsToolAddInImp@@1QBW4EAddInEventType@IChartAddIn133101@@B ; CCrosshairsToolAddInImp::m_eRegisteredEventMap
PUBLIC	??_C@_0BC@MMPGLPDH@RMS_ANALYSIS_FUNC@		; `string'
;	COMDAT ??_C@_0BC@MMPGLPDH@RMS_ANALYSIS_FUNC@
CONST	SEGMENT
??_C@_0BC@MMPGLPDH@RMS_ANALYSIS_FUNC@ DB 'RMS_ANALYSIS_FUNC', 00H ; `string'
CONST	ENDS
CONST	SEGMENT
?m_eRegisteredEventMap@CCrosshairsToolAddInImp@@1QBW4EAddInEventType@IChartAddIn133101@@B DD 014H ; CCrosshairsToolAddInImp::m_eRegisteredEventMap
	DD	022H
	DD	035H
	DD	012H
	DD	02fH
	DD	013H
	DD	01dH
	DD	01H
	DD	07H
	DD	03bH
	ORG $+200
CONST	ENDS
;	COMDAT ??_C@_0L@HKLKPNOH@CROSS_TOOL@
CONST	SEGMENT
??_C@_0L@HKLKPNOH@CROSS_TOOL@ DB 'CROSS_TOOL', 00H	; `string'
CONST	ENDS
PUBLIC	?__empty_global_delete@@YAXPAX@Z		; __empty_global_delete
PUBLIC	?__empty_global_delete@@YAXPAXI@Z		; __empty_global_delete
PUBLIC	??1CObject@@UAE@XZ				; CObject::~CObject
PUBLIC	?Serialize@CObject@@UAEXAAVCArchive@@@Z		; CObject::Serialize
PUBLIC	?AssertValid@CObject@@UBEXXZ			; CObject::AssertValid
PUBLIC	?Dump@CObject@@UBEXAAVCDumpContext@@@Z		; CObject::Dump
PUBLIC	??1CGdiObject@@UAE@XZ				; CGdiObject::~CGdiObject
PUBLIC	??_GCGdiObject@@UAEPAXI@Z			; CGdiObject::`scalar deleting destructor'
PUBLIC	??1CPen@@UAE@XZ					; CPen::~CPen
PUBLIC	??_GCPen@@UAEPAXI@Z				; CPen::`scalar deleting destructor'
PUBLIC	?PostConstruct@CIWUnknown@@MAEXXZ		; CIWUnknown::PostConstruct
PUBLIC	?PreDestructX@CIWUnknown@@MAEXXZ		; CIWUnknown::PreDestructX
PUBLIC	?PreDestruct@CIWUnknown@@MAEXXZ			; CIWUnknown::PreDestruct
PUBLIC	?AddRef@CChartAddInBase133101@@MAGKXZ		; CChartAddInBase133101::AddRef
PUBLIC	?Release@CChartAddInBase133101@@MAGKXZ		; CChartAddInBase133101::Release
PUBLIC	?QueryInterface@CChartAddInBase133101@@MAGJABU_GUID@@PAPAX@Z ; CChartAddInBase133101::QueryInterface
PUBLIC	?GetAddInCustomInterface@CChartAddInBase133101@@MAEPAUIUnknown@@XZ ; CChartAddInBase133101::GetAddInCustomInterface
PUBLIC	?InvokeAddIn@CChartAddInBase133101@@MAEHHJ@Z	; CChartAddInBase133101::InvokeAddIn
PUBLIC	?InvokeAddInStr@CChartAddInBase133101@@MAEHPBD0@Z ; CChartAddInBase133101::InvokeAddInStr
PUBLIC	?OnOcxDestroyWindow@CChartAddInBase133101@@MAEXXZ ; CChartAddInBase133101::OnOcxDestroyWindow
PUBLIC	?OnGSharedDataChange@CChartAddInBase133101@@MAEXPBD0H@Z ; CChartAddInBase133101::OnGSharedDataChange
PUBLIC	?OnLSharedDataChange@CChartAddInBase133101@@MAEXPBD0@Z ; CChartAddInBase133101::OnLSharedDataChange
PUBLIC	?OnDrawBeforeGraph@CChartAddInBase133101@@MAEXPAUHDC__@@@Z ; CChartAddInBase133101::OnDrawBeforeGraph
PUBLIC	?OnPacketDataMultiItem@CChartAddInBase133101@@MAEXPBD0H@Z ; CChartAddInBase133101::OnPacketDataMultiItem
PUBLIC	?OnTimer@CChartAddInBase133101@@MAEXI@Z		; CChartAddInBase133101::OnTimer
PUBLIC	?OnResetMainBlock@CChartAddInBase133101@@MAEXXZ	; CChartAddInBase133101::OnResetMainBlock
PUBLIC	?OnUserIndiatorConditionLoaded@CChartAddInBase133101@@MAEXXZ ; CChartAddInBase133101::OnUserIndiatorConditionLoaded
PUBLIC	?OnChartItemChanged@CChartAddInBase133101@@MAEXXZ ; CChartAddInBase133101::OnChartItemChanged
PUBLIC	?OnGraphDataChanged@CChartAddInBase133101@@MAEXXZ ; CChartAddInBase133101::OnGraphDataChanged
PUBLIC	?OnBlockRemoved@CChartAddInBase133101@@MAEXHH@Z	; CChartAddInBase133101::OnBlockRemoved
PUBLIC	?OnGraphAdded@CChartAddInBase133101@@MAEXPBD0@Z	; CChartAddInBase133101::OnGraphAdded
PUBLIC	?OnManualRealData@CChartAddInBase133101@@MAEXPBDNH@Z ; CChartAddInBase133101::OnManualRealData
PUBLIC	?OnContextMenu@CChartAddInBase133101@@MAEXPAUHWND__@@AAUtagPOINT@@@Z ; CChartAddInBase133101::OnContextMenu
PUBLIC	?OnGraphDeleted@CChartAddInBase133101@@MAEXPBD0@Z ; CChartAddInBase133101::OnGraphDeleted
PUBLIC	?OnPacketTruncated@CChartAddInBase133101@@MAEXH@Z ; CChartAddInBase133101::OnPacketTruncated
PUBLIC	?OnBlockChanged@CChartAddInBase133101@@MAEXW4BLOCKBEHAVIOR@CBlockBaseData@@HHHH@Z ; CChartAddInBase133101::OnBlockChanged
PUBLIC	?OnRealData@CChartAddInBase133101@@MAEXPBDN0@Z	; CChartAddInBase133101::OnRealData
PUBLIC	?OnIndexedRealData@CChartAddInBase133101@@MAEXPBDHN@Z ; CChartAddInBase133101::OnIndexedRealData
PUBLIC	?OnRealPacketEnd@CChartAddInBase133101@@MAEXPBD@Z ; CChartAddInBase133101::OnRealPacketEnd
PUBLIC	?OnLoadEnvironment@CChartAddInBase133101@@MAEXPAUIPropertyMap@@@Z ; CChartAddInBase133101::OnLoadEnvironment
PUBLIC	?OnSaveEnvironment@CChartAddInBase133101@@MAEXPAUIPropertyMap@@@Z ; CChartAddInBase133101::OnSaveEnvironment
PUBLIC	?OnRecalculationComplete@CChartAddInBase133101@@MAEXXZ ; CChartAddInBase133101::OnRecalculationComplete
PUBLIC	?OnPreRealData@CChartAddInBase133101@@MAEHPBDAAN0@Z ; CChartAddInBase133101::OnPreRealData
PUBLIC	?OnPreIndexedRealData@CChartAddInBase133101@@MAEHPBDHAAN@Z ; CChartAddInBase133101::OnPreIndexedRealData
PUBLIC	?OnPreRealPacketEnd@CChartAddInBase133101@@MAEHPBD@Z ; CChartAddInBase133101::OnPreRealPacketEnd
PUBLIC	?OnAddInMsg@CChartAddInBase133101@@MAEHPBDJ@Z	; CChartAddInBase133101::OnAddInMsg
PUBLIC	?OnAddInToolCommand@CChartAddInBase133101@@MAEHW4EAICommandType@@PAUHDC__@@IAAUtagPOINT@@K@Z ; CChartAddInBase133101::OnAddInToolCommand
PUBLIC	?OnAddInToolCommand@CChartAddInBase133101@@MAEHW4EAICommandType@@PBD@Z ; CChartAddInBase133101::OnAddInToolCommand
PUBLIC	?OnAddInToolCommand@CChartAddInBase133101@@MAEHW4EAICommandType@@PBD1@Z ; CChartAddInBase133101::OnAddInToolCommand
PUBLIC	?OnAddInToolCommand@CChartAddInBase133101@@MAEHW4EAICommandType@@PBDJ@Z ; CChartAddInBase133101::OnAddInToolCommand
PUBLIC	?OnAddInToolCommand@CChartAddInBase133101@@MAEHW4EAICommandType@@PBUIAddInDllBase@@@Z ; CChartAddInBase133101::OnAddInToolCommand
PUBLIC	?OnAddInToolCommand@CChartAddInBase133101@@MAEHW4EAICommandType@@JPBD@Z ; CChartAddInBase133101::OnAddInToolCommand
PUBLIC	?OnAddInToolCommand@CChartAddInBase133101@@MAEHW4EAICommandType@@JPBD11@Z ; CChartAddInBase133101::OnAddInToolCommand
PUBLIC	?OnAddInToolCommand@CChartAddInBase133101@@MAEHW4EAICommandType@@JJ@Z ; CChartAddInBase133101::OnAddInToolCommand
PUBLIC	?OnAddInToolCommand@CChartAddInBase133101@@MAEHW4EAICommandType@@JJJJJJJJJ@Z ; CChartAddInBase133101::OnAddInToolCommand
PUBLIC	?OnAddInToolCommand@CChartAddInBase133101@@MAEHAAJW4EAICommandType@@@Z ; CChartAddInBase133101::OnAddInToolCommand
PUBLIC	?OnAddInToolCommand@CChartAddInBase133101@@MAEHAAJW4EAICommandType@@PAUIGraphInfo133101@@@Z ; CChartAddInBase133101::OnAddInToolCommand
PUBLIC	?OnAddInToolCommand@CChartAddInBase133101@@MAEHAAJW4EAICommandType@@PBD@Z ; CChartAddInBase133101::OnAddInToolCommand
PUBLIC	?OnAddInToolCommand@CChartAddInBase133101@@MAEHAAJW4EAICommandType@@PBDPAVCObject@@@Z ; CChartAddInBase133101::OnAddInToolCommand
PUBLIC	?OnAddInToolCommand@CChartAddInBase133101@@MAEHAAJW4EAICommandType@@J@Z ; CChartAddInBase133101::OnAddInToolCommand
PUBLIC	?OnAddInToolCommand@CChartAddInBase133101@@MAEHAAJW4EAICommandType@@JJ@Z ; CChartAddInBase133101::OnAddInToolCommand
PUBLIC	?OnKeyDown@CChartAddInBase133101@@MAEHIII@Z	; CChartAddInBase133101::OnKeyDown
PUBLIC	?OnKeyUp@CChartAddInBase133101@@MAEHIII@Z	; CChartAddInBase133101::OnKeyUp
PUBLIC	?OnMouseWheel@CChartAddInBase133101@@MAEHIFUtagPOINT@@K@Z ; CChartAddInBase133101::OnMouseWheel
PUBLIC	?OnLButtonDown@CChartAddInBase133101@@MAEHPAUHDC__@@IAAUtagPOINT@@K@Z ; CChartAddInBase133101::OnLButtonDown
PUBLIC	?OnLButtonUp@CChartAddInBase133101@@MAEHPAUHDC__@@IAAUtagPOINT@@K@Z ; CChartAddInBase133101::OnLButtonUp
PUBLIC	?OnLButtonDblClk@CChartAddInBase133101@@MAEHPAUHDC__@@IAAUtagPOINT@@K@Z ; CChartAddInBase133101::OnLButtonDblClk
PUBLIC	?OnRButtonDown@CChartAddInBase133101@@MAEHPAUHDC__@@IAAUtagPOINT@@K@Z ; CChartAddInBase133101::OnRButtonDown
PUBLIC	?OnRButtonUp@CChartAddInBase133101@@MAEHPAUHDC__@@IAAUtagPOINT@@K@Z ; CChartAddInBase133101::OnRButtonUp
PUBLIC	?OnRButtonDblClk@CChartAddInBase133101@@MAEHPAUHDC__@@IAAUtagPOINT@@K@Z ; CChartAddInBase133101::OnRButtonDblClk
PUBLIC	??0CCrosshairsToolAddInImp@@QAE@PAUIChartOCX133101@@PAUIAddInDllBase@@@Z ; CCrosshairsToolAddInImp::CCrosshairsToolAddInImp
PUBLIC	??1CCrosshairsToolAddInImp@@UAE@XZ		; CCrosshairsToolAddInImp::~CCrosshairsToolAddInImp
PUBLIC	?GetRegisteredEventMap@CCrosshairsToolAddInImp@@MBEPBW4EAddInEventType@IChartAddIn133101@@XZ ; CCrosshairsToolAddInImp::GetRegisteredEventMap
PUBLIC	?DrawNewCross@CCrosshairsToolAddInImp@@AAEXPAUHDC__@@@Z ; CCrosshairsToolAddInImp::DrawNewCross
PUBLIC	?GetGraphTotalRegion@CCrosshairsToolAddInImp@@AAEHVCPoint@@@Z ; CCrosshairsToolAddInImp::GetGraphTotalRegion
PUBLIC	?GetCurrentPosData@CCrosshairsToolAddInImp@@AAEHVCPoint@@@Z ; CCrosshairsToolAddInImp::GetCurrentPosData
PUBLIC	?SetCaptureWithFlag@CCrosshairsToolAddInImp@@AAEXXZ ; CCrosshairsToolAddInImp::SetCaptureWithFlag
PUBLIC	?ReleaseCaptureWithFlag@CCrosshairsToolAddInImp@@AAEXXZ ; CCrosshairsToolAddInImp::ReleaseCaptureWithFlag
PUBLIC	?OnDrawAfterGraph@CCrosshairsToolAddInImp@@MAEXPAUHDC__@@@Z ; CCrosshairsToolAddInImp::OnDrawAfterGraph
PUBLIC	?OnResetChart@CCrosshairsToolAddInImp@@MAEXXZ	; CCrosshairsToolAddInImp::OnResetChart
PUBLIC	?DrawCursor@CCrosshairsToolAddInImp@@MAE?AUtagRECT@@PAUHDC__@@@Z ; CCrosshairsToolAddInImp::DrawCursor
PUBLIC	?OnCaptureChanged@CCrosshairsToolAddInImp@@MAEXPAUHWND__@@QAUHBITMAP__@@@Z ; CCrosshairsToolAddInImp::OnCaptureChanged
PUBLIC	?OnToolCommand@CCrosshairsToolAddInImp@@MAEXHH@Z ; CCrosshairsToolAddInImp::OnToolCommand
PUBLIC	?OnCmdMsg@CCrosshairsToolAddInImp@@MAEHIHPAUICmdUI133101@@@Z ; CCrosshairsToolAddInImp::OnCmdMsg
PUBLIC	?OnAddInToolCommand@CCrosshairsToolAddInImp@@MAEHW4EAICommandType@@@Z ; CCrosshairsToolAddInImp::OnAddInToolCommand
PUBLIC	?OnAddInToolCommand@CCrosshairsToolAddInImp@@MAEHW4EAICommandType@@J@Z ; CCrosshairsToolAddInImp::OnAddInToolCommand
PUBLIC	?OnMouseMove@CCrosshairsToolAddInImp@@MAEHPAUHDC__@@IAAUtagPOINT@@KQAUHBITMAP__@@@Z ; CCrosshairsToolAddInImp::OnMouseMove
PUBLIC	??_GCCrosshairsToolAddInImp@@UAEPAXI@Z		; CCrosshairsToolAddInImp::`scalar deleting destructor'
PUBLIC	??1CMultiLanguageResourceSetter@@QAE@XZ		; CMultiLanguageResourceSetter::~CMultiLanguageResourceSetter
PUBLIC	??_GCMainAnalysisTool@@UAEPAXI@Z		; CMainAnalysisTool::`scalar deleting destructor'
PUBLIC	?QueryInterface@CChartAddInBase133101@@O7AGJABU_GUID@@PAPAX@Z ; [thunk]:CChartAddInBase133101::QueryInterface`adjustor{8}'
PUBLIC	?AddRef@CChartAddInBase133101@@O7AGKXZ		; [thunk]:CChartAddInBase133101::AddRef`adjustor{8}'
PUBLIC	?Release@CChartAddInBase133101@@O7AGKXZ		; [thunk]:CChartAddInBase133101::Release`adjustor{8}'
PUBLIC	??_ECCrosshairsToolAddInImp@@W7AEPAXI@Z		; [thunk]:CCrosshairsToolAddInImp::`vector deleting destructor'
PUBLIC	??_R0PAVCException@@@8				; CException * `RTTI Type Descriptor'
PUBLIC	??_7CGdiObject@@6B@				; CGdiObject::`vftable'
PUBLIC	??_7CPen@@6B@					; CPen::`vftable'
PUBLIC	??_C@_0HD@JJCHHHNK@C?3?2Program?5Files?5?$CIx86?$CJ?2Microsof@ ; `string'
PUBLIC	??_C@_0BP@OIEOKIDM@Exception?5thrown?5in?5destructor@ ; `string'
PUBLIC	??_C@_0BB@HBOOMJBF@?$CFTs?5?$CI?$CFTs?3?$CFd?$CJ?6?$CFTs@ ; `string'
PUBLIC	??_C@_0N@OMEMOKLE@?$CFTs?5?$CI?$CFTs?3?$CFd?$CJ@ ; `string'
PUBLIC	??_R0?AVCObject@@@8				; CObject `RTTI Type Descriptor'
PUBLIC	??_R3CObject@@8					; CObject::`RTTI Class Hierarchy Descriptor'
PUBLIC	??_R2CObject@@8					; CObject::`RTTI Base Class Array'
PUBLIC	??_R1A@?0A@EA@CObject@@8			; CObject::`RTTI Base Class Descriptor at (0,-1,0,64)'
PUBLIC	??_R0?AUIUnknown@@@8				; IUnknown `RTTI Type Descriptor'
PUBLIC	??_R3IUnknown@@8				; IUnknown::`RTTI Class Hierarchy Descriptor'
PUBLIC	??_R2IUnknown@@8				; IUnknown::`RTTI Base Class Array'
PUBLIC	??_R1A@?0A@EA@IUnknown@@8			; IUnknown::`RTTI Base Class Descriptor at (0,-1,0,64)'
PUBLIC	??_R4CGdiObject@@6B@				; CGdiObject::`RTTI Complete Object Locator'
PUBLIC	??_R0?AVCGdiObject@@@8				; CGdiObject `RTTI Type Descriptor'
PUBLIC	??_R3CGdiObject@@8				; CGdiObject::`RTTI Class Hierarchy Descriptor'
PUBLIC	??_R2CGdiObject@@8				; CGdiObject::`RTTI Base Class Array'
PUBLIC	??_R1A@?0A@EA@CGdiObject@@8			; CGdiObject::`RTTI Base Class Descriptor at (0,-1,0,64)'
PUBLIC	??_R4CPen@@6B@					; CPen::`RTTI Complete Object Locator'
PUBLIC	??_R0?AVCPen@@@8				; CPen `RTTI Type Descriptor'
PUBLIC	??_R3CPen@@8					; CPen::`RTTI Class Hierarchy Descriptor'
PUBLIC	??_R2CPen@@8					; CPen::`RTTI Base Class Array'
PUBLIC	??_R1A@?0A@EA@CPen@@8				; CPen::`RTTI Base Class Descriptor at (0,-1,0,64)'
PUBLIC	?m_strAddInItemName@CCrosshairsToolAddInImp@@2V?$CStringT@DV?$StrTraitMFC_DLL@DV?$ChTraitsCRT@D@ATL@@@@@ATL@@A ; CCrosshairsToolAddInImp::m_strAddInItemName
PUBLIC	??_7CCrosshairsToolAddInImp@@6BCIWUnknown@@@	; CCrosshairsToolAddInImp::`vftable'
PUBLIC	??_7CCrosshairsToolAddInImp@@6BIChartAddIn133101@@@ ; CCrosshairsToolAddInImp::`vftable'
PUBLIC	??_C@_0BA@ENJOCHIO@LoadResourceDLL@		; `string'
PUBLIC	??_SCMainAnalysisTool@@6B@			; CMainAnalysisTool::`local vftable'
PUBLIC	??_C@_07MGCPDNLD@DEFAULT@			; `string'
PUBLIC	??_R0?AUIChartAddIn133101@@@8			; IChartAddIn133101 `RTTI Type Descriptor'
PUBLIC	??_R3IChartAddIn133101@@8			; IChartAddIn133101::`RTTI Class Hierarchy Descriptor'
PUBLIC	??_R2IChartAddIn133101@@8			; IChartAddIn133101::`RTTI Base Class Array'
PUBLIC	??_R1A@?0A@EA@IChartAddIn133101@@8		; IChartAddIn133101::`RTTI Base Class Descriptor at (0,-1,0,64)'
PUBLIC	??_R4CMainAnalysisTool@@6B@			; CMainAnalysisTool::`RTTI Complete Object Locator'
PUBLIC	??_R0?AVCMainAnalysisTool@@@8			; CMainAnalysisTool `RTTI Type Descriptor'
PUBLIC	??_R3CMainAnalysisTool@@8			; CMainAnalysisTool::`RTTI Class Hierarchy Descriptor'
PUBLIC	??_R2CMainAnalysisTool@@8			; CMainAnalysisTool::`RTTI Base Class Array'
PUBLIC	??_R1A@?0A@EA@CMainAnalysisTool@@8		; CMainAnalysisTool::`RTTI Base Class Descriptor at (0,-1,0,64)'
PUBLIC	??_R4CCrosshairsToolAddInImp@@6BCIWUnknown@@@	; CCrosshairsToolAddInImp::`RTTI Complete Object Locator'
PUBLIC	??_R0?AVCCrosshairsToolAddInImp@@@8		; CCrosshairsToolAddInImp `RTTI Type Descriptor'
PUBLIC	??_R3CCrosshairsToolAddInImp@@8			; CCrosshairsToolAddInImp::`RTTI Class Hierarchy Descriptor'
PUBLIC	??_R2CCrosshairsToolAddInImp@@8			; CCrosshairsToolAddInImp::`RTTI Base Class Array'
PUBLIC	??_R1A@?0A@EA@CCrosshairsToolAddInImp@@8	; CCrosshairsToolAddInImp::`RTTI Base Class Descriptor at (0,-1,0,64)'
PUBLIC	??_R1A@?0A@EA@CChartAddInBase133101@@8		; CChartAddInBase133101::`RTTI Base Class Descriptor at (0,-1,0,64)'
PUBLIC	??_R0?AVCChartAddInBase133101@@@8		; CChartAddInBase133101 `RTTI Type Descriptor'
PUBLIC	??_R3CChartAddInBase133101@@8			; CChartAddInBase133101::`RTTI Class Hierarchy Descriptor'
PUBLIC	??_R2CChartAddInBase133101@@8			; CChartAddInBase133101::`RTTI Base Class Array'
PUBLIC	??_R1A@?0A@EA@CIWUnknown@@8			; CIWUnknown::`RTTI Base Class Descriptor at (0,-1,0,64)'
PUBLIC	??_R0?AVCIWUnknown@@@8				; CIWUnknown `RTTI Type Descriptor'
PUBLIC	??_R3CIWUnknown@@8				; CIWUnknown::`RTTI Class Hierarchy Descriptor'
PUBLIC	??_R2CIWUnknown@@8				; CIWUnknown::`RTTI Base Class Array'
PUBLIC	??_R17?0A@EA@IChartAddIn133101@@8		; IChartAddIn133101::`RTTI Base Class Descriptor at (8,-1,0,64)'
PUBLIC	??_R17?0A@EA@IUnknown@@8			; IUnknown::`RTTI Base Class Descriptor at (8,-1,0,64)'
PUBLIC	??_R4CCrosshairsToolAddInImp@@6BIChartAddIn133101@@@ ; CCrosshairsToolAddInImp::`RTTI Complete Object Locator'
EXTRN	??2@YAPAXI@Z:PROC				; operator new
EXTRN	??3@YAXPAX@Z:PROC				; operator delete
EXTRN	??3@YAXPAXI@Z:PROC				; operator delete
EXTRN	?__global_delete@@YAXPAXI@Z:PROC		; __global_delete
EXTRN	_atexit:PROC
EXTRN	___std_terminate:PROC
EXTRN	__imp__GetProcAddress@8:PROC
EXTRN	__imp__CreatePen@12:PROC
EXTRN	__imp__GetTextExtentPoint32A@16:PROC
EXTRN	__imp__Rectangle@20:PROC
EXTRN	__imp__RegisterWindowMessageA@4:PROC
EXTRN	__imp__SetRectEmpty@4:PROC
EXTRN	__imp__CopyRect@8:PROC
EXTRN	__imp__IsRectEmpty@4:PROC
EXTRN	__imp__PtInRect@12:PROC
EXTRN	?GetRuntimeClass@CObject@@UBEPAUCRuntimeClass@@XZ:PROC ; CObject::GetRuntimeClass
EXTRN	__imp_?Empty@?$CSimpleStringT@D$00@ATL@@QAEXXZ:PROC
EXTRN	__imp_??0?$CStringT@DV?$StrTraitMFC_DLL@DV?$ChTraitsCRT@D@ATL@@@@@ATL@@QAE@XZ:PROC
EXTRN	__imp_??0?$CStringT@DV?$StrTraitMFC_DLL@DV?$ChTraitsCRT@D@ATL@@@@@ATL@@QAE@PBD@Z:PROC
EXTRN	__imp_??1?$CStringT@DV?$StrTraitMFC_DLL@DV?$ChTraitsCRT@D@ATL@@@@@ATL@@QAE@XZ:PROC
EXTRN	__imp_?Format@?$CStringT@DV?$StrTraitMFC_DLL@DV?$ChTraitsCRT@D@ATL@@@@@ATL@@QAAXPBDZZ:PROC
EXTRN	?AfxGetModuleState@@YGPAVAFX_MODULE_STATE@@XZ:PROC ; AfxGetModuleState
EXTRN	?AfxGetStaticModuleState@@YGPAVAFX_MODULE_STATE@@XZ:PROC ; AfxGetStaticModuleState
EXTRN	?GetRuntimeClass@CGdiObject@@UBEPAUCRuntimeClass@@XZ:PROC ; CGdiObject::GetRuntimeClass
EXTRN	?Attach@CGdiObject@@QAEHPAX@Z:PROC		; CGdiObject::Attach
EXTRN	?DeleteObject@CGdiObject@@QAEHXZ:PROC		; CGdiObject::DeleteObject
EXTRN	??_ECGdiObject@@UAEPAXI@Z:PROC			; CGdiObject::`vector deleting destructor'
EXTRN	?GetRuntimeClass@CPen@@UBEPAUCRuntimeClass@@XZ:PROC ; CPen::GetRuntimeClass
EXTRN	??_ECPen@@UAEPAXI@Z:PROC			; CPen::`vector deleting destructor'
EXTRN	?FromHandle@CDC@@SGPAV1@PAUHDC__@@@Z:PROC	; CDC::FromHandle
EXTRN	?SelectObject@CDC@@QAEPAVCPen@@PAV2@@Z:PROC	; CDC::SelectObject
EXTRN	?SelectObject@CDC@@QAEPAVCBrush@@PAV2@@Z:PROC	; CDC::SelectObject
EXTRN	?MoveTo@CDC@@QAE?AVCPoint@@HH@Z:PROC		; CDC::MoveTo
EXTRN	?LineTo@CDC@@QAEHHH@Z:PROC			; CDC::LineTo
EXTRN	?AfxMessageBox@@YGHPBDII@Z:PROC			; AfxMessageBox
EXTRN	?AddRef@CIWUnknown@@MAGKXZ:PROC			; CIWUnknown::AddRef
EXTRN	?Release@CIWUnknown@@MAGKXZ:PROC		; CIWUnknown::Release
EXTRN	??0CChartAddInBase133101@@IAE@PAUIChartOCX133101@@PAUIAddInDllBase@@@Z:PROC ; CChartAddInBase133101::CChartAddInBase133101
EXTRN	??1CChartAddInBase133101@@MAE@XZ:PROC		; CChartAddInBase133101::~CChartAddInBase133101
EXTRN	?HasFullManager@CChartAddInBase133101@@MAEHXZ:PROC ; CChartAddInBase133101::HasFullManager
EXTRN	?RegisterEventMap@CChartAddInBase133101@@UAEHH@Z:PROC ; CChartAddInBase133101::RegisterEventMap
EXTRN	?UnregisterEventMap@CChartAddInBase133101@@UAEHXZ:PROC ; CChartAddInBase133101::UnregisterEventMap
EXTRN	??_ECCrosshairsToolAddInImp@@UAEPAXI@Z:PROC	; CCrosshairsToolAddInImp::`vector deleting destructor'
EXTRN	__imp_??0CMainAnalysisTool@@QAE@PAVCWnd@@PAUHWND__@@W4CHART_MODE@CChartInfo@@@Z:PROC
EXTRN	__imp_??1CMainAnalysisTool@@UAE@XZ:PROC
EXTRN	__imp_?SetMainBlock@CMainAnalysisTool@@QAEXPAUIChartManager133101@@PAUIChartOCX133101@@@Z:PROC
EXTRN	__imp_?SetAutoPriceTool@CMainAnalysisTool@@QAEX_N@Z:PROC
EXTRN	__imp_?SetBaseColor@CMainAnalysisTool@@QAEXABK0@Z:PROC
EXTRN	__imp_?SetBasePenColor@CMainAnalysisTool@@QAEXABK@Z:PROC
EXTRN	__imp_?GetGraphTotalRegion@CMainAnalysisTool@@QAE?AVCRect@@VCPoint@@@Z:PROC
EXTRN	__imp_?GetCurrentPosData@CMainAnalysisTool@@QAEHVCPoint@@AAV?$CStringT@DV?$StrTraitMFC_DLL@DV?$ChTraitsCRT@D@ATL@@@@@ATL@@1@Z:PROC
EXTRN	__imp_?OnDraw@CMainAnalysisTool@@QAEXPAVCDC@@H@Z:PROC
EXTRN	__imp_?ChangeAllElementsColor@CMainAnalysisTool@@QAEXABK0@Z:PROC
EXTRN	??_ECMainAnalysisTool@@UAEPAXI@Z:PROC		; CMainAnalysisTool::`vector deleting destructor'
EXTRN	@__security_check_cookie@4:PROC
EXTRN	___CxxFrameHandler3:PROC
EXTRN	??_7type_info@@6B@:QWORD			; type_info::`vftable'
EXTRN	?g_iMetaTable@@3VIMetaTable@@A:BYTE		; g_iMetaTable
EXTRN	___security_cookie:DWORD
_BSS	SEGMENT
?m_strAddInItemName@CCrosshairsToolAddInImp@@2V?$CStringT@DV?$StrTraitMFC_DLL@DV?$ChTraitsCRT@D@ATL@@@@@ATL@@A DD 01H DUP (?) ; CCrosshairsToolAddInImp::m_strAddInItemName
?RMS_ANALYSIS_FUNC@@3IB DD 01H DUP (?)			; RMS_ANALYSIS_FUNC
_BSS	ENDS
CRT$XCU	SEGMENT
?RMS_ANALYSIS_FUNC$initializer$@@3P6AXXZA DD FLAT:??__ERMS_ANALYSIS_FUNC@@YAXXZ ; RMS_ANALYSIS_FUNC$initializer$
CRT$XCU	ENDS
;	COMDAT ??_R4CCrosshairsToolAddInImp@@6BIChartAddIn133101@@@
rdata$r	SEGMENT
??_R4CCrosshairsToolAddInImp@@6BIChartAddIn133101@@@ DD 00H ; CCrosshairsToolAddInImp::`RTTI Complete Object Locator'
	DD	08H
	DD	00H
	DD	FLAT:??_R0?AVCCrosshairsToolAddInImp@@@8
	DD	FLAT:??_R3CCrosshairsToolAddInImp@@8
rdata$r	ENDS
;	COMDAT ??_R17?0A@EA@IUnknown@@8
rdata$r	SEGMENT
??_R17?0A@EA@IUnknown@@8 DD FLAT:??_R0?AUIUnknown@@@8	; IUnknown::`RTTI Base Class Descriptor at (8,-1,0,64)'
	DD	00H
	DD	08H
	DD	0ffffffffH
	DD	00H
	DD	040H
	DD	FLAT:??_R3IUnknown@@8
rdata$r	ENDS
;	COMDAT ??_R17?0A@EA@IChartAddIn133101@@8
rdata$r	SEGMENT
??_R17?0A@EA@IChartAddIn133101@@8 DD FLAT:??_R0?AUIChartAddIn133101@@@8 ; IChartAddIn133101::`RTTI Base Class Descriptor at (8,-1,0,64)'
	DD	01H
	DD	08H
	DD	0ffffffffH
	DD	00H
	DD	040H
	DD	FLAT:??_R3IChartAddIn133101@@8
rdata$r	ENDS
;	COMDAT ??_R2CIWUnknown@@8
rdata$r	SEGMENT
??_R2CIWUnknown@@8 DD FLAT:??_R1A@?0A@EA@CIWUnknown@@8	; CIWUnknown::`RTTI Base Class Array'
	DD	FLAT:??_R1A@?0A@EA@CObject@@8
rdata$r	ENDS
;	COMDAT ??_R3CIWUnknown@@8
rdata$r	SEGMENT
??_R3CIWUnknown@@8 DD 00H				; CIWUnknown::`RTTI Class Hierarchy Descriptor'
	DD	00H
	DD	02H
	DD	FLAT:??_R2CIWUnknown@@8
rdata$r	ENDS
;	COMDAT ??_R0?AVCIWUnknown@@@8
data$rs	SEGMENT
??_R0?AVCIWUnknown@@@8 DD FLAT:??_7type_info@@6B@	; CIWUnknown `RTTI Type Descriptor'
	DD	00H
	DB	'.?AVCIWUnknown@@', 00H
data$rs	ENDS
;	COMDAT ??_R1A@?0A@EA@CIWUnknown@@8
rdata$r	SEGMENT
??_R1A@?0A@EA@CIWUnknown@@8 DD FLAT:??_R0?AVCIWUnknown@@@8 ; CIWUnknown::`RTTI Base Class Descriptor at (0,-1,0,64)'
	DD	01H
	DD	00H
	DD	0ffffffffH
	DD	00H
	DD	040H
	DD	FLAT:??_R3CIWUnknown@@8
rdata$r	ENDS
;	COMDAT ??_R2CChartAddInBase133101@@8
rdata$r	SEGMENT
??_R2CChartAddInBase133101@@8 DD FLAT:??_R1A@?0A@EA@CChartAddInBase133101@@8 ; CChartAddInBase133101::`RTTI Base Class Array'
	DD	FLAT:??_R1A@?0A@EA@CIWUnknown@@8
	DD	FLAT:??_R1A@?0A@EA@CObject@@8
	DD	FLAT:??_R17?0A@EA@IChartAddIn133101@@8
	DD	FLAT:??_R17?0A@EA@IUnknown@@8
rdata$r	ENDS
;	COMDAT ??_R3CChartAddInBase133101@@8
rdata$r	SEGMENT
??_R3CChartAddInBase133101@@8 DD 00H			; CChartAddInBase133101::`RTTI Class Hierarchy Descriptor'
	DD	01H
	DD	05H
	DD	FLAT:??_R2CChartAddInBase133101@@8
rdata$r	ENDS
;	COMDAT ??_R0?AVCChartAddInBase133101@@@8
data$rs	SEGMENT
??_R0?AVCChartAddInBase133101@@@8 DD FLAT:??_7type_info@@6B@ ; CChartAddInBase133101 `RTTI Type Descriptor'
	DD	00H
	DB	'.?AVCChartAddInBase133101@@', 00H
data$rs	ENDS
;	COMDAT ??_R1A@?0A@EA@CChartAddInBase133101@@8
rdata$r	SEGMENT
??_R1A@?0A@EA@CChartAddInBase133101@@8 DD FLAT:??_R0?AVCChartAddInBase133101@@@8 ; CChartAddInBase133101::`RTTI Base Class Descriptor at (0,-1,0,64)'
	DD	04H
	DD	00H
	DD	0ffffffffH
	DD	00H
	DD	040H
	DD	FLAT:??_R3CChartAddInBase133101@@8
rdata$r	ENDS
;	COMDAT ??_R1A@?0A@EA@CCrosshairsToolAddInImp@@8
rdata$r	SEGMENT
??_R1A@?0A@EA@CCrosshairsToolAddInImp@@8 DD FLAT:??_R0?AVCCrosshairsToolAddInImp@@@8 ; CCrosshairsToolAddInImp::`RTTI Base Class Descriptor at (0,-1,0,64)'
	DD	05H
	DD	00H
	DD	0ffffffffH
	DD	00H
	DD	040H
	DD	FLAT:??_R3CCrosshairsToolAddInImp@@8
rdata$r	ENDS
;	COMDAT ??_R2CCrosshairsToolAddInImp@@8
rdata$r	SEGMENT
??_R2CCrosshairsToolAddInImp@@8 DD FLAT:??_R1A@?0A@EA@CCrosshairsToolAddInImp@@8 ; CCrosshairsToolAddInImp::`RTTI Base Class Array'
	DD	FLAT:??_R1A@?0A@EA@CChartAddInBase133101@@8
	DD	FLAT:??_R1A@?0A@EA@CIWUnknown@@8
	DD	FLAT:??_R1A@?0A@EA@CObject@@8
	DD	FLAT:??_R17?0A@EA@IChartAddIn133101@@8
	DD	FLAT:??_R17?0A@EA@IUnknown@@8
rdata$r	ENDS
;	COMDAT ??_R3CCrosshairsToolAddInImp@@8
rdata$r	SEGMENT
??_R3CCrosshairsToolAddInImp@@8 DD 00H			; CCrosshairsToolAddInImp::`RTTI Class Hierarchy Descriptor'
	DD	01H
	DD	06H
	DD	FLAT:??_R2CCrosshairsToolAddInImp@@8
rdata$r	ENDS
;	COMDAT ??_R0?AVCCrosshairsToolAddInImp@@@8
data$rs	SEGMENT
??_R0?AVCCrosshairsToolAddInImp@@@8 DD FLAT:??_7type_info@@6B@ ; CCrosshairsToolAddInImp `RTTI Type Descriptor'
	DD	00H
	DB	'.?AVCCrosshairsToolAddInImp@@', 00H
data$rs	ENDS
;	COMDAT ??_R4CCrosshairsToolAddInImp@@6BCIWUnknown@@@
rdata$r	SEGMENT
??_R4CCrosshairsToolAddInImp@@6BCIWUnknown@@@ DD 00H	; CCrosshairsToolAddInImp::`RTTI Complete Object Locator'
	DD	00H
	DD	00H
	DD	FLAT:??_R0?AVCCrosshairsToolAddInImp@@@8
	DD	FLAT:??_R3CCrosshairsToolAddInImp@@8
rdata$r	ENDS
;	COMDAT ??_R1A@?0A@EA@CMainAnalysisTool@@8
rdata$r	SEGMENT
??_R1A@?0A@EA@CMainAnalysisTool@@8 DD FLAT:??_R0?AVCMainAnalysisTool@@@8 ; CMainAnalysisTool::`RTTI Base Class Descriptor at (0,-1,0,64)'
	DD	00H
	DD	00H
	DD	0ffffffffH
	DD	00H
	DD	040H
	DD	FLAT:??_R3CMainAnalysisTool@@8
rdata$r	ENDS
;	COMDAT ??_R2CMainAnalysisTool@@8
rdata$r	SEGMENT
??_R2CMainAnalysisTool@@8 DD FLAT:??_R1A@?0A@EA@CMainAnalysisTool@@8 ; CMainAnalysisTool::`RTTI Base Class Array'
rdata$r	ENDS
;	COMDAT ??_R3CMainAnalysisTool@@8
rdata$r	SEGMENT
??_R3CMainAnalysisTool@@8 DD 00H			; CMainAnalysisTool::`RTTI Class Hierarchy Descriptor'
	DD	00H
	DD	01H
	DD	FLAT:??_R2CMainAnalysisTool@@8
rdata$r	ENDS
;	COMDAT ??_R0?AVCMainAnalysisTool@@@8
data$rs	SEGMENT
??_R0?AVCMainAnalysisTool@@@8 DD FLAT:??_7type_info@@6B@ ; CMainAnalysisTool `RTTI Type Descriptor'
	DD	00H
	DB	'.?AVCMainAnalysisTool@@', 00H
data$rs	ENDS
;	COMDAT ??_R4CMainAnalysisTool@@6B@
rdata$r	SEGMENT
??_R4CMainAnalysisTool@@6B@ DD 00H			; CMainAnalysisTool::`RTTI Complete Object Locator'
	DD	00H
	DD	00H
	DD	FLAT:??_R0?AVCMainAnalysisTool@@@8
	DD	FLAT:??_R3CMainAnalysisTool@@8
rdata$r	ENDS
;	COMDAT ??_R1A@?0A@EA@IChartAddIn133101@@8
rdata$r	SEGMENT
??_R1A@?0A@EA@IChartAddIn133101@@8 DD FLAT:??_R0?AUIChartAddIn133101@@@8 ; IChartAddIn133101::`RTTI Base Class Descriptor at (0,-1,0,64)'
	DD	01H
	DD	00H
	DD	0ffffffffH
	DD	00H
	DD	040H
	DD	FLAT:??_R3IChartAddIn133101@@8
rdata$r	ENDS
;	COMDAT ??_R2IChartAddIn133101@@8
rdata$r	SEGMENT
??_R2IChartAddIn133101@@8 DD FLAT:??_R1A@?0A@EA@IChartAddIn133101@@8 ; IChartAddIn133101::`RTTI Base Class Array'
	DD	FLAT:??_R1A@?0A@EA@IUnknown@@8
rdata$r	ENDS
;	COMDAT ??_R3IChartAddIn133101@@8
rdata$r	SEGMENT
??_R3IChartAddIn133101@@8 DD 00H			; IChartAddIn133101::`RTTI Class Hierarchy Descriptor'
	DD	00H
	DD	02H
	DD	FLAT:??_R2IChartAddIn133101@@8
rdata$r	ENDS
;	COMDAT ??_R0?AUIChartAddIn133101@@@8
data$rs	SEGMENT
??_R0?AUIChartAddIn133101@@@8 DD FLAT:??_7type_info@@6B@ ; IChartAddIn133101 `RTTI Type Descriptor'
	DD	00H
	DB	'.?AUIChartAddIn133101@@', 00H
data$rs	ENDS
;	COMDAT ??_C@_07MGCPDNLD@DEFAULT@
CONST	SEGMENT
??_C@_07MGCPDNLD@DEFAULT@ DB 'DEFAULT', 00H		; `string'
CONST	ENDS
;	COMDAT ??_SCMainAnalysisTool@@6B@
CONST	SEGMENT
??_SCMainAnalysisTool@@6B@ DD FLAT:??_R4CMainAnalysisTool@@6B@ ; CMainAnalysisTool::`local vftable'
	DD	FLAT:??_ECMainAnalysisTool@@UAEPAXI@Z
CONST	ENDS
;	COMDAT ??_C@_0BA@ENJOCHIO@LoadResourceDLL@
CONST	SEGMENT
??_C@_0BA@ENJOCHIO@LoadResourceDLL@ DB 'LoadResourceDLL', 00H ; `string'
CONST	ENDS
;	COMDAT ??_7CCrosshairsToolAddInImp@@6BIChartAddIn133101@@@
CONST	SEGMENT
??_7CCrosshairsToolAddInImp@@6BIChartAddIn133101@@@ DD FLAT:??_R4CCrosshairsToolAddInImp@@6BIChartAddIn133101@@@ ; CCrosshairsToolAddInImp::`vftable'
	DD	FLAT:?QueryInterface@CChartAddInBase133101@@O7AGJABU_GUID@@PAPAX@Z
	DD	FLAT:?AddRef@CChartAddInBase133101@@O7AGKXZ
	DD	FLAT:?Release@CChartAddInBase133101@@O7AGKXZ
	DD	FLAT:??_ECCrosshairsToolAddInImp@@W7AEPAXI@Z
	DD	FLAT:?HasFullManager@CChartAddInBase133101@@MAEHXZ
	DD	FLAT:?GetAddInCustomInterface@CChartAddInBase133101@@MAEPAUIUnknown@@XZ
	DD	FLAT:?InvokeAddIn@CChartAddInBase133101@@MAEHHJ@Z
	DD	FLAT:?InvokeAddInStr@CChartAddInBase133101@@MAEHPBD0@Z
	DD	FLAT:?OnOcxDestroyWindow@CChartAddInBase133101@@MAEXXZ
	DD	FLAT:?RegisterEventMap@CChartAddInBase133101@@UAEHH@Z
	DD	FLAT:?UnregisterEventMap@CChartAddInBase133101@@UAEHXZ
	DD	FLAT:?OnGSharedDataChange@CChartAddInBase133101@@MAEXPBD0H@Z
	DD	FLAT:?OnLSharedDataChange@CChartAddInBase133101@@MAEXPBD0@Z
	DD	FLAT:?OnResetChart@CCrosshairsToolAddInImp@@MAEXXZ
	DD	FLAT:?OnDrawBeforeGraph@CChartAddInBase133101@@MAEXPAUHDC__@@@Z
	DD	FLAT:?OnDrawAfterGraph@CCrosshairsToolAddInImp@@MAEXPAUHDC__@@@Z
	DD	FLAT:?OnPacketDataMultiItem@CChartAddInBase133101@@MAEXPBD0H@Z
	DD	FLAT:?OnTimer@CChartAddInBase133101@@MAEXI@Z
	DD	FLAT:?OnCaptureChanged@CCrosshairsToolAddInImp@@MAEXPAUHWND__@@QAUHBITMAP__@@@Z
	DD	FLAT:?OnResetMainBlock@CChartAddInBase133101@@MAEXXZ
	DD	FLAT:?OnUserIndiatorConditionLoaded@CChartAddInBase133101@@MAEXXZ
	DD	FLAT:?OnChartItemChanged@CChartAddInBase133101@@MAEXXZ
	DD	FLAT:?OnGraphDataChanged@CChartAddInBase133101@@MAEXXZ
	DD	FLAT:?OnBlockRemoved@CChartAddInBase133101@@MAEXHH@Z
	DD	FLAT:?OnGraphAdded@CChartAddInBase133101@@MAEXPBD0@Z
	DD	FLAT:?OnManualRealData@CChartAddInBase133101@@MAEXPBDNH@Z
	DD	FLAT:?OnContextMenu@CChartAddInBase133101@@MAEXPAUHWND__@@AAUtagPOINT@@@Z
	DD	FLAT:?OnGraphDeleted@CChartAddInBase133101@@MAEXPBD0@Z
	DD	FLAT:?OnPacketTruncated@CChartAddInBase133101@@MAEXH@Z
	DD	FLAT:?OnBlockChanged@CChartAddInBase133101@@MAEXW4BLOCKBEHAVIOR@CBlockBaseData@@HHHH@Z
	DD	FLAT:?OnToolCommand@CCrosshairsToolAddInImp@@MAEXHH@Z
	DD	FLAT:?OnRealData@CChartAddInBase133101@@MAEXPBDN0@Z
	DD	FLAT:?OnIndexedRealData@CChartAddInBase133101@@MAEXPBDHN@Z
	DD	FLAT:?OnRealPacketEnd@CChartAddInBase133101@@MAEXPBD@Z
	DD	FLAT:?OnLoadEnvironment@CChartAddInBase133101@@MAEXPAUIPropertyMap@@@Z
	DD	FLAT:?OnSaveEnvironment@CChartAddInBase133101@@MAEXPAUIPropertyMap@@@Z
	DD	FLAT:?DrawCursor@CCrosshairsToolAddInImp@@MAE?AUtagRECT@@PAUHDC__@@@Z
	DD	FLAT:?OnRecalculationComplete@CChartAddInBase133101@@MAEXXZ
	DD	FLAT:?OnPreRealData@CChartAddInBase133101@@MAEHPBDAAN0@Z
	DD	FLAT:?OnPreIndexedRealData@CChartAddInBase133101@@MAEHPBDHAAN@Z
	DD	FLAT:?OnPreRealPacketEnd@CChartAddInBase133101@@MAEHPBD@Z
	DD	FLAT:?OnCmdMsg@CCrosshairsToolAddInImp@@MAEHIHPAUICmdUI133101@@@Z
	DD	FLAT:?OnAddInMsg@CChartAddInBase133101@@MAEHPBDJ@Z
	DD	FLAT:?OnAddInToolCommand@CChartAddInBase133101@@MAEHAAJW4EAICommandType@@JJ@Z
	DD	FLAT:?OnAddInToolCommand@CChartAddInBase133101@@MAEHAAJW4EAICommandType@@J@Z
	DD	FLAT:?OnAddInToolCommand@CChartAddInBase133101@@MAEHAAJW4EAICommandType@@PBDPAVCObject@@@Z
	DD	FLAT:?OnAddInToolCommand@CChartAddInBase133101@@MAEHAAJW4EAICommandType@@PBD@Z
	DD	FLAT:?OnAddInToolCommand@CChartAddInBase133101@@MAEHAAJW4EAICommandType@@PAUIGraphInfo133101@@@Z
	DD	FLAT:?OnAddInToolCommand@CChartAddInBase133101@@MAEHAAJW4EAICommandType@@@Z
	DD	FLAT:?OnAddInToolCommand@CChartAddInBase133101@@MAEHW4EAICommandType@@JJJJJJJJJ@Z
	DD	FLAT:?OnAddInToolCommand@CChartAddInBase133101@@MAEHW4EAICommandType@@JJ@Z
	DD	FLAT:?OnAddInToolCommand@CChartAddInBase133101@@MAEHW4EAICommandType@@JPBD11@Z
	DD	FLAT:?OnAddInToolCommand@CChartAddInBase133101@@MAEHW4EAICommandType@@JPBD@Z
	DD	FLAT:?OnAddInToolCommand@CCrosshairsToolAddInImp@@MAEHW4EAICommandType@@J@Z
	DD	FLAT:?OnAddInToolCommand@CChartAddInBase133101@@MAEHW4EAICommandType@@PBUIAddInDllBase@@@Z
	DD	FLAT:?OnAddInToolCommand@CChartAddInBase133101@@MAEHW4EAICommandType@@PBDJ@Z
	DD	FLAT:?OnAddInToolCommand@CChartAddInBase133101@@MAEHW4EAICommandType@@PBD1@Z
	DD	FLAT:?OnAddInToolCommand@CChartAddInBase133101@@MAEHW4EAICommandType@@PBD@Z
	DD	FLAT:?OnAddInToolCommand@CChartAddInBase133101@@MAEHW4EAICommandType@@PAUHDC__@@IAAUtagPOINT@@K@Z
	DD	FLAT:?OnAddInToolCommand@CCrosshairsToolAddInImp@@MAEHW4EAICommandType@@@Z
	DD	FLAT:?OnKeyDown@CChartAddInBase133101@@MAEHIII@Z
	DD	FLAT:?OnKeyUp@CChartAddInBase133101@@MAEHIII@Z
	DD	FLAT:?OnMouseWheel@CChartAddInBase133101@@MAEHIFUtagPOINT@@K@Z
	DD	FLAT:?OnMouseMove@CCrosshairsToolAddInImp@@MAEHPAUHDC__@@IAAUtagPOINT@@KQAUHBITMAP__@@@Z
	DD	FLAT:?OnLButtonDown@CChartAddInBase133101@@MAEHPAUHDC__@@IAAUtagPOINT@@K@Z
	DD	FLAT:?OnLButtonUp@CChartAddInBase133101@@MAEHPAUHDC__@@IAAUtagPOINT@@K@Z
	DD	FLAT:?OnLButtonDblClk@CChartAddInBase133101@@MAEHPAUHDC__@@IAAUtagPOINT@@K@Z
	DD	FLAT:?OnRButtonDown@CChartAddInBase133101@@MAEHPAUHDC__@@IAAUtagPOINT@@K@Z
	DD	FLAT:?OnRButtonUp@CChartAddInBase133101@@MAEHPAUHDC__@@IAAUtagPOINT@@K@Z
	DD	FLAT:?OnRButtonDblClk@CChartAddInBase133101@@MAEHPAUHDC__@@IAAUtagPOINT@@K@Z
CONST	ENDS
;	COMDAT ??_7CCrosshairsToolAddInImp@@6BCIWUnknown@@@
CONST	SEGMENT
??_7CCrosshairsToolAddInImp@@6BCIWUnknown@@@ DD FLAT:??_R4CCrosshairsToolAddInImp@@6BCIWUnknown@@@ ; CCrosshairsToolAddInImp::`vftable'
	DD	FLAT:?GetRuntimeClass@CObject@@UBEPAUCRuntimeClass@@XZ
	DD	FLAT:??_ECCrosshairsToolAddInImp@@UAEPAXI@Z
	DD	FLAT:?Serialize@CObject@@UAEXAAVCArchive@@@Z
	DD	FLAT:?AssertValid@CObject@@UBEXXZ
	DD	FLAT:?Dump@CObject@@UBEXAAVCDumpContext@@@Z
	DD	FLAT:?AddRef@CChartAddInBase133101@@MAGKXZ
	DD	FLAT:?Release@CChartAddInBase133101@@MAGKXZ
	DD	FLAT:?QueryInterface@CChartAddInBase133101@@MAGJABU_GUID@@PAPAX@Z
	DD	FLAT:?PostConstruct@CIWUnknown@@MAEXXZ
	DD	FLAT:?PreDestructX@CIWUnknown@@MAEXXZ
	DD	FLAT:?PreDestruct@CIWUnknown@@MAEXXZ
	DD	FLAT:?GetRegisteredEventMap@CCrosshairsToolAddInImp@@MBEPBW4EAddInEventType@IChartAddIn133101@@XZ
CONST	ENDS
;	COMDAT ??_R1A@?0A@EA@CPen@@8
rdata$r	SEGMENT
??_R1A@?0A@EA@CPen@@8 DD FLAT:??_R0?AVCPen@@@8		; CPen::`RTTI Base Class Descriptor at (0,-1,0,64)'
	DD	02H
	DD	00H
	DD	0ffffffffH
	DD	00H
	DD	040H
	DD	FLAT:??_R3CPen@@8
rdata$r	ENDS
;	COMDAT ??_R2CPen@@8
rdata$r	SEGMENT
??_R2CPen@@8 DD	FLAT:??_R1A@?0A@EA@CPen@@8		; CPen::`RTTI Base Class Array'
	DD	FLAT:??_R1A@?0A@EA@CGdiObject@@8
	DD	FLAT:??_R1A@?0A@EA@CObject@@8
rdata$r	ENDS
;	COMDAT ??_R3CPen@@8
rdata$r	SEGMENT
??_R3CPen@@8 DD	00H					; CPen::`RTTI Class Hierarchy Descriptor'
	DD	00H
	DD	03H
	DD	FLAT:??_R2CPen@@8
rdata$r	ENDS
;	COMDAT ??_R0?AVCPen@@@8
data$rs	SEGMENT
??_R0?AVCPen@@@8 DD FLAT:??_7type_info@@6B@		; CPen `RTTI Type Descriptor'
	DD	00H
	DB	'.?AVCPen@@', 00H
data$rs	ENDS
;	COMDAT ??_R4CPen@@6B@
rdata$r	SEGMENT
??_R4CPen@@6B@ DD 00H					; CPen::`RTTI Complete Object Locator'
	DD	00H
	DD	00H
	DD	FLAT:??_R0?AVCPen@@@8
	DD	FLAT:??_R3CPen@@8
rdata$r	ENDS
;	COMDAT ??_R1A@?0A@EA@CGdiObject@@8
rdata$r	SEGMENT
??_R1A@?0A@EA@CGdiObject@@8 DD FLAT:??_R0?AVCGdiObject@@@8 ; CGdiObject::`RTTI Base Class Descriptor at (0,-1,0,64)'
	DD	01H
	DD	00H
	DD	0ffffffffH
	DD	00H
	DD	040H
	DD	FLAT:??_R3CGdiObject@@8
rdata$r	ENDS
;	COMDAT ??_R2CGdiObject@@8
rdata$r	SEGMENT
??_R2CGdiObject@@8 DD FLAT:??_R1A@?0A@EA@CGdiObject@@8	; CGdiObject::`RTTI Base Class Array'
	DD	FLAT:??_R1A@?0A@EA@CObject@@8
rdata$r	ENDS
;	COMDAT ??_R3CGdiObject@@8
rdata$r	SEGMENT
??_R3CGdiObject@@8 DD 00H				; CGdiObject::`RTTI Class Hierarchy Descriptor'
	DD	00H
	DD	02H
	DD	FLAT:??_R2CGdiObject@@8
rdata$r	ENDS
;	COMDAT ??_R0?AVCGdiObject@@@8
data$rs	SEGMENT
??_R0?AVCGdiObject@@@8 DD FLAT:??_7type_info@@6B@	; CGdiObject `RTTI Type Descriptor'
	DD	00H
	DB	'.?AVCGdiObject@@', 00H
data$rs	ENDS
;	COMDAT ??_R4CGdiObject@@6B@
rdata$r	SEGMENT
??_R4CGdiObject@@6B@ DD 00H				; CGdiObject::`RTTI Complete Object Locator'
	DD	00H
	DD	00H
	DD	FLAT:??_R0?AVCGdiObject@@@8
	DD	FLAT:??_R3CGdiObject@@8
rdata$r	ENDS
;	COMDAT ??_R1A@?0A@EA@IUnknown@@8
rdata$r	SEGMENT
??_R1A@?0A@EA@IUnknown@@8 DD FLAT:??_R0?AUIUnknown@@@8	; IUnknown::`RTTI Base Class Descriptor at (0,-1,0,64)'
	DD	00H
	DD	00H
	DD	0ffffffffH
	DD	00H
	DD	040H
	DD	FLAT:??_R3IUnknown@@8
rdata$r	ENDS
;	COMDAT ??_R2IUnknown@@8
rdata$r	SEGMENT
??_R2IUnknown@@8 DD FLAT:??_R1A@?0A@EA@IUnknown@@8	; IUnknown::`RTTI Base Class Array'
rdata$r	ENDS
;	COMDAT ??_R3IUnknown@@8
rdata$r	SEGMENT
??_R3IUnknown@@8 DD 00H					; IUnknown::`RTTI Class Hierarchy Descriptor'
	DD	00H
	DD	01H
	DD	FLAT:??_R2IUnknown@@8
rdata$r	ENDS
;	COMDAT ??_R0?AUIUnknown@@@8
data$rs	SEGMENT
??_R0?AUIUnknown@@@8 DD FLAT:??_7type_info@@6B@		; IUnknown `RTTI Type Descriptor'
	DD	00H
	DB	'.?AUIUnknown@@', 00H
data$rs	ENDS
;	COMDAT ??_R1A@?0A@EA@CObject@@8
rdata$r	SEGMENT
??_R1A@?0A@EA@CObject@@8 DD FLAT:??_R0?AVCObject@@@8	; CObject::`RTTI Base Class Descriptor at (0,-1,0,64)'
	DD	00H
	DD	00H
	DD	0ffffffffH
	DD	00H
	DD	040H
	DD	FLAT:??_R3CObject@@8
rdata$r	ENDS
;	COMDAT ??_R2CObject@@8
rdata$r	SEGMENT
??_R2CObject@@8 DD FLAT:??_R1A@?0A@EA@CObject@@8	; CObject::`RTTI Base Class Array'
rdata$r	ENDS
;	COMDAT ??_R3CObject@@8
rdata$r	SEGMENT
??_R3CObject@@8 DD 00H					; CObject::`RTTI Class Hierarchy Descriptor'
	DD	00H
	DD	01H
	DD	FLAT:??_R2CObject@@8
rdata$r	ENDS
;	COMDAT ??_R0?AVCObject@@@8
data$rs	SEGMENT
??_R0?AVCObject@@@8 DD FLAT:??_7type_info@@6B@		; CObject `RTTI Type Descriptor'
	DD	00H
	DB	'.?AVCObject@@', 00H
data$rs	ENDS
;	COMDAT ??_C@_0N@OMEMOKLE@?$CFTs?5?$CI?$CFTs?3?$CFd?$CJ@
CONST	SEGMENT
??_C@_0N@OMEMOKLE@?$CFTs?5?$CI?$CFTs?3?$CFd?$CJ@ DB '%Ts (%Ts:%d)', 00H ; `string'
CONST	ENDS
;	COMDAT ??_C@_0BB@HBOOMJBF@?$CFTs?5?$CI?$CFTs?3?$CFd?$CJ?6?$CFTs@
CONST	SEGMENT
??_C@_0BB@HBOOMJBF@?$CFTs?5?$CI?$CFTs?3?$CFd?$CJ?6?$CFTs@ DB '%Ts (%Ts:%d'
	DB	')', 0aH, '%Ts', 00H				; `string'
CONST	ENDS
;	COMDAT ??_C@_0BP@OIEOKIDM@Exception?5thrown?5in?5destructor@
CONST	SEGMENT
??_C@_0BP@OIEOKIDM@Exception?5thrown?5in?5destructor@ DB 'Exception throw'
	DB	'n in destructor', 00H			; `string'
CONST	ENDS
;	COMDAT ??_C@_0HD@JJCHHHNK@C?3?2Program?5Files?5?$CIx86?$CJ?2Microsof@
CONST	SEGMENT
??_C@_0HD@JJCHHHNK@C?3?2Program?5Files?5?$CIx86?$CJ?2Microsof@ DB 'C:\Pro'
	DB	'gram Files (x86)\Microsoft Visual Studio\2019\Community\VC\To'
	DB	'ols\MSVC\14.29.30133\atlmfc\include\afxwin1.inl', 00H ; `string'
CONST	ENDS
;	COMDAT ??_7CPen@@6B@
CONST	SEGMENT
??_7CPen@@6B@ DD FLAT:??_R4CPen@@6B@			; CPen::`vftable'
	DD	FLAT:?GetRuntimeClass@CPen@@UBEPAUCRuntimeClass@@XZ
	DD	FLAT:??_ECPen@@UAEPAXI@Z
	DD	FLAT:?Serialize@CObject@@UAEXAAVCArchive@@@Z
	DD	FLAT:?AssertValid@CObject@@UBEXXZ
	DD	FLAT:?Dump@CObject@@UBEXAAVCDumpContext@@@Z
CONST	ENDS
;	COMDAT ??_7CGdiObject@@6B@
CONST	SEGMENT
??_7CGdiObject@@6B@ DD FLAT:??_R4CGdiObject@@6B@	; CGdiObject::`vftable'
	DD	FLAT:?GetRuntimeClass@CGdiObject@@UBEPAUCRuntimeClass@@XZ
	DD	FLAT:??_ECGdiObject@@UAEPAXI@Z
	DD	FLAT:?Serialize@CObject@@UAEXAAVCArchive@@@Z
	DD	FLAT:?AssertValid@CObject@@UBEXXZ
	DD	FLAT:?Dump@CObject@@UBEXAAVCDumpContext@@@Z
CONST	ENDS
;	COMDAT ??_R0PAVCException@@@8
data$r	SEGMENT
??_R0PAVCException@@@8 DD FLAT:??_7type_info@@6B@	; CException * `RTTI Type Descriptor'
	DD	00H
	DB	'.PAVCException@@', 00H
data$r	ENDS
;	COMDAT xdata$x
xdata$x	SEGMENT
__ehfuncinfo$??1CMultiLanguageResourceSetter@@QAE@XZ DD 019930522H
	DD	00H
	DD	00H
	DD	2 DUP(00H)
	DD	2 DUP(00H)
	DD	00H
	DD	05H
xdata$x	ENDS
;	COMDAT xdata$x
xdata$x	SEGMENT
__unwindtable$??_GCCrosshairsToolAddInImp@@UAEPAXI@Z DD 0ffffffffH
	DD	FLAT:___std_terminate
__ehfuncinfo$??_GCCrosshairsToolAddInImp@@UAEPAXI@Z DD 019930522H
	DD	01H
	DD	FLAT:__unwindtable$??_GCCrosshairsToolAddInImp@@UAEPAXI@Z
	DD	2 DUP(00H)
	DD	2 DUP(00H)
	DD	00H
	DD	05H
xdata$x	ENDS
;	COMDAT xdata$x
xdata$x	SEGMENT
__unwindtable$?DrawNewCross@CCrosshairsToolAddInImp@@AAEXPAUHDC__@@@Z DD 0ffffffffH
	DD	FLAT:__unwindfunclet$?DrawNewCross@CCrosshairsToolAddInImp@@AAEXPAUHDC__@@@Z$0
	DD	0ffffffffH
	DD	00H
	DD	0ffffffffH
	DD	FLAT:___std_terminate
__ehfuncinfo$?DrawNewCross@CCrosshairsToolAddInImp@@AAEXPAUHDC__@@@Z DD 019930522H
	DD	03H
	DD	FLAT:__unwindtable$?DrawNewCross@CCrosshairsToolAddInImp@@AAEXPAUHDC__@@@Z
	DD	2 DUP(00H)
	DD	2 DUP(00H)
	DD	00H
	DD	01H
xdata$x	ENDS
;	COMDAT xdata$x
xdata$x	SEGMENT
__ehfuncinfo$??1CCrosshairsToolAddInImp@@UAE@XZ DD 019930522H
	DD	00H
	DD	00H
	DD	2 DUP(00H)
	DD	2 DUP(00H)
	DD	00H
	DD	05H
xdata$x	ENDS
;	COMDAT xdata$x
xdata$x	SEGMENT
__ehfuncinfo$??0CCrosshairsToolAddInImp@@QAE@PAUIChartOCX133101@@PAUIAddInDllBase@@@Z DD 019930522H
	DD	05H
	DD	FLAT:__unwindtable$??0CCrosshairsToolAddInImp@@QAE@PAUIChartOCX133101@@PAUIAddInDllBase@@@Z
	DD	2 DUP(00H)
	DD	2 DUP(00H)
	DD	00H
	DD	01H
__unwindtable$??0CCrosshairsToolAddInImp@@QAE@PAUIChartOCX133101@@PAUIAddInDllBase@@@Z DD 0ffffffffH
	DD	FLAT:__unwindfunclet$??0CCrosshairsToolAddInImp@@QAE@PAUIChartOCX133101@@PAUIAddInDllBase@@@Z$0
	DD	00H
	DD	FLAT:__unwindfunclet$??0CCrosshairsToolAddInImp@@QAE@PAUIChartOCX133101@@PAUIAddInDllBase@@@Z$1
	DD	01H
	DD	FLAT:__unwindfunclet$??0CCrosshairsToolAddInImp@@QAE@PAUIChartOCX133101@@PAUIAddInDllBase@@@Z$2
	DD	02H
	DD	FLAT:__unwindfunclet$??0CCrosshairsToolAddInImp@@QAE@PAUIChartOCX133101@@PAUIAddInDllBase@@@Z$3
	DD	03H
	DD	FLAT:__unwindfunclet$??0CCrosshairsToolAddInImp@@QAE@PAUIChartOCX133101@@PAUIAddInDllBase@@@Z$4
xdata$x	ENDS
;	COMDAT xdata$x
xdata$x	SEGMENT
__catchsym$??1CGdiObject@@UAE@XZ$3 DD 00H
	DD	FLAT:??_R0PAVCException@@@8
	DD	0fffffde4H
	DD	FLAT:__catch$??1CGdiObject@@UAE@XZ$0
__tryblocktable$??1CGdiObject@@UAE@XZ DD 00H
	DD	00H
	DD	02H
	DD	01H
	DD	FLAT:__catchsym$??1CGdiObject@@UAE@XZ$3
__unwindtable$??1CGdiObject@@UAE@XZ DD 0ffffffffH
	DD	00H
	DD	0ffffffffH
	DD	00H
	DD	01H
	DD	FLAT:__unwindfunclet$??1CGdiObject@@UAE@XZ$2
__ehfuncinfo$??1CGdiObject@@UAE@XZ DD 019930522H
	DD	03H
	DD	FLAT:__unwindtable$??1CGdiObject@@UAE@XZ
	DD	01H
	DD	FLAT:__tryblocktable$??1CGdiObject@@UAE@XZ
	DD	2 DUP(00H)
	DD	00H
	DD	05H
xdata$x	ENDS
CRT$XCU	SEGMENT
??m_strAddInItemName$initializer$@CCrosshairsToolAddInImp@@2P6AXXZA@@3P6AXXZA DD FLAT:??__E?m_strAddInItemName@CCrosshairsToolAddInImp@@2V?$CStringT@DV?$StrTraitMFC_DLL@DV?$ChTraitsCRT@D@ATL@@@@@ATL@@A@@YAXXZ ; ??m_strAddInItemName$initializer$@CCrosshairsToolAddInImp@@2P6AXXZA@@3P6AXXZA
CRT$XCU	ENDS
; Function compile flags: /Odsp
;	COMDAT ??_ECCrosshairsToolAddInImp@@W7AEPAXI@Z
_TEXT	SEGMENT
??_ECCrosshairsToolAddInImp@@W7AEPAXI@Z PROC		; [thunk]:CCrosshairsToolAddInImp::`vector deleting destructor', COMDAT
  00000	83 e9 08	 sub	 ecx, 8
  00003	e9 00 00 00 00	 jmp	 ??_ECCrosshairsToolAddInImp@@UAEPAXI@Z
??_ECCrosshairsToolAddInImp@@W7AEPAXI@Z ENDP		; [thunk]:CCrosshairsToolAddInImp::`vector deleting destructor'
_TEXT	ENDS
; Function compile flags: /Odsp
;	COMDAT ?Release@CChartAddInBase133101@@O7AGKXZ
_TEXT	SEGMENT
?Release@CChartAddInBase133101@@O7AGKXZ PROC		; [thunk]:CChartAddInBase133101::Release`adjustor{8}', COMDAT
  00000	83 6c 24 04 08	 sub	 DWORD PTR [esp+4], 8
  00005	e9 00 00 00 00	 jmp	 ?Release@CChartAddInBase133101@@MAGKXZ ; CChartAddInBase133101::Release
?Release@CChartAddInBase133101@@O7AGKXZ ENDP		; [thunk]:CChartAddInBase133101::Release`adjustor{8}'
_TEXT	ENDS
; Function compile flags: /Odsp
;	COMDAT ?AddRef@CChartAddInBase133101@@O7AGKXZ
_TEXT	SEGMENT
?AddRef@CChartAddInBase133101@@O7AGKXZ PROC		; [thunk]:CChartAddInBase133101::AddRef`adjustor{8}', COMDAT
  00000	83 6c 24 04 08	 sub	 DWORD PTR [esp+4], 8
  00005	e9 00 00 00 00	 jmp	 ?AddRef@CChartAddInBase133101@@MAGKXZ ; CChartAddInBase133101::AddRef
?AddRef@CChartAddInBase133101@@O7AGKXZ ENDP		; [thunk]:CChartAddInBase133101::AddRef`adjustor{8}'
_TEXT	ENDS
; Function compile flags: /Odsp
;	COMDAT ?QueryInterface@CChartAddInBase133101@@O7AGJABU_GUID@@PAPAX@Z
_TEXT	SEGMENT
?QueryInterface@CChartAddInBase133101@@O7AGJABU_GUID@@PAPAX@Z PROC ; [thunk]:CChartAddInBase133101::QueryInterface`adjustor{8}', COMDAT
  00000	83 6c 24 04 08	 sub	 DWORD PTR [esp+4], 8
  00005	e9 00 00 00 00	 jmp	 ?QueryInterface@CChartAddInBase133101@@MAGJABU_GUID@@PAPAX@Z ; CChartAddInBase133101::QueryInterface
?QueryInterface@CChartAddInBase133101@@O7AGJABU_GUID@@PAPAX@Z ENDP ; [thunk]:CChartAddInBase133101::QueryInterface`adjustor{8}'
_TEXT	ENDS
; Function compile flags: /Ogtp
;	COMDAT ??__F?m_strAddInItemName@CCrosshairsToolAddInImp@@2V?$CStringT@DV?$StrTraitMFC_DLL@DV?$ChTraitsCRT@D@ATL@@@@@ATL@@A@@YAXXZ
text$yd	SEGMENT
??__F?m_strAddInItemName@CCrosshairsToolAddInImp@@2V?$CStringT@DV?$StrTraitMFC_DLL@DV?$ChTraitsCRT@D@ATL@@@@@ATL@@A@@YAXXZ PROC ; `dynamic atexit destructor for 'CCrosshairsToolAddInImp::m_strAddInItemName'', COMDAT
  00000	b9 00 00 00 00	 mov	 ecx, OFFSET ?m_strAddInItemName@CCrosshairsToolAddInImp@@2V?$CStringT@DV?$StrTraitMFC_DLL@DV?$ChTraitsCRT@D@ATL@@@@@ATL@@A ; CCrosshairsToolAddInImp::m_strAddInItemName
  00005	ff 25 00 00 00
	00		 jmp	 DWORD PTR __imp_??1?$CStringT@DV?$StrTraitMFC_DLL@DV?$ChTraitsCRT@D@ATL@@@@@ATL@@QAE@XZ
??__F?m_strAddInItemName@CCrosshairsToolAddInImp@@2V?$CStringT@DV?$StrTraitMFC_DLL@DV?$ChTraitsCRT@D@ATL@@@@@ATL@@A@@YAXXZ ENDP ; `dynamic atexit destructor for 'CCrosshairsToolAddInImp::m_strAddInItemName''
text$yd	ENDS
; Function compile flags: /Ogtp
; File D:\git\src\IBK\IBK_DRFN\ProjSrc\SrcChartEx\ChartAddIn\ChartAnalysisToolAddIn\ChartAnalysisToolAddIn\CrosshairsToolAddInImp.cpp
;	COMDAT ??__E?m_strAddInItemName@CCrosshairsToolAddInImp@@2V?$CStringT@DV?$StrTraitMFC_DLL@DV?$ChTraitsCRT@D@ATL@@@@@ATL@@A@@YAXXZ
text$di	SEGMENT
??__E?m_strAddInItemName@CCrosshairsToolAddInImp@@2V?$CStringT@DV?$StrTraitMFC_DLL@DV?$ChTraitsCRT@D@ATL@@@@@ATL@@A@@YAXXZ PROC ; `dynamic initializer for 'CCrosshairsToolAddInImp::m_strAddInItemName'', COMDAT

; 71   : CString CCrosshairsToolAddInImp::m_strAddInItemName = "CROSS_TOOL";

  00000	68 00 00 00 00	 push	 OFFSET ??_C@_0L@HKLKPNOH@CROSS_TOOL@
  00005	b9 00 00 00 00	 mov	 ecx, OFFSET ?m_strAddInItemName@CCrosshairsToolAddInImp@@2V?$CStringT@DV?$StrTraitMFC_DLL@DV?$ChTraitsCRT@D@ATL@@@@@ATL@@A ; CCrosshairsToolAddInImp::m_strAddInItemName
  0000a	ff 15 00 00 00
	00		 call	 DWORD PTR __imp_??0?$CStringT@DV?$StrTraitMFC_DLL@DV?$ChTraitsCRT@D@ATL@@@@@ATL@@QAE@PBD@Z
  00010	68 00 00 00 00	 push	 OFFSET ??__F?m_strAddInItemName@CCrosshairsToolAddInImp@@2V?$CStringT@DV?$StrTraitMFC_DLL@DV?$ChTraitsCRT@D@ATL@@@@@ATL@@A@@YAXXZ ; `dynamic atexit destructor for 'CCrosshairsToolAddInImp::m_strAddInItemName''
  00015	e8 00 00 00 00	 call	 _atexit
  0001a	59		 pop	 ecx
  0001b	c3		 ret	 0
??__E?m_strAddInItemName@CCrosshairsToolAddInImp@@2V?$CStringT@DV?$StrTraitMFC_DLL@DV?$ChTraitsCRT@D@ATL@@@@@ATL@@A@@YAXXZ ENDP ; `dynamic initializer for 'CCrosshairsToolAddInImp::m_strAddInItemName''
text$di	ENDS
; Function compile flags: /Ogtp
;	COMDAT ??_GCMainAnalysisTool@@UAEPAXI@Z
_TEXT	SEGMENT
___flags$ = 8						; size = 4
??_GCMainAnalysisTool@@UAEPAXI@Z PROC			; CMainAnalysisTool::`scalar deleting destructor', COMDAT
; _this$ = ecx
  00000	55		 push	 ebp
  00001	8b ec		 mov	 ebp, esp
  00003	56		 push	 esi
  00004	8b f1		 mov	 esi, ecx
  00006	ff 15 00 00 00
	00		 call	 DWORD PTR __imp_??1CMainAnalysisTool@@UAE@XZ
  0000c	f6 45 08 01	 test	 BYTE PTR ___flags$[ebp], 1
  00010	74 0b		 je	 SHORT $LN4@scalar
  00012	6a 10		 push	 16			; 00000010H
  00014	56		 push	 esi
  00015	e8 00 00 00 00	 call	 ??3@YAXPAXI@Z		; operator delete
  0001a	83 c4 08	 add	 esp, 8
$LN4@scalar:
  0001d	8b c6		 mov	 eax, esi
  0001f	5e		 pop	 esi
  00020	5d		 pop	 ebp
  00021	c2 04 00	 ret	 4
??_GCMainAnalysisTool@@UAEPAXI@Z ENDP			; CMainAnalysisTool::`scalar deleting destructor'
_TEXT	ENDS
; Function compile flags: /Ogtp
; File D:\git\src\IBK\IBK_DRFN\ProjSrc\SrcChartEx\ChartAddIn\ChartAnalysisToolAddIn\Include_Chart\Dll_Load\IMetaTable.h
; File C:\Program Files (x86)\Microsoft Visual Studio\2019\Community\VC\Tools\MSVC\14.29.30133\atlmfc\include\afxwin1.inl
; File D:\git\src\IBK\IBK_DRFN\ProjSrc\SrcChartEx\ChartAddIn\ChartAnalysisToolAddIn\Include_Chart\Dll_Load\IMetaTable.h
;	COMDAT ??1CMultiLanguageResourceSetter@@QAE@XZ
_TEXT	SEGMENT
__$EHRec$ = -12						; size = 12
??1CMultiLanguageResourceSetter@@QAE@XZ PROC		; CMultiLanguageResourceSetter::~CMultiLanguageResourceSetter, COMDAT
; _this$ = ecx

; 1038 : 	{

  00000	55		 push	 ebp
  00001	8b ec		 mov	 ebp, esp
  00003	6a ff		 push	 -1
  00005	68 00 00 00 00	 push	 __ehhandler$??1CMultiLanguageResourceSetter@@QAE@XZ
  0000a	64 a1 00 00 00
	00		 mov	 eax, DWORD PTR fs:0
  00010	50		 push	 eax
  00011	56		 push	 esi
  00012	a1 00 00 00 00	 mov	 eax, DWORD PTR ___security_cookie
  00017	33 c5		 xor	 eax, ebp
  00019	50		 push	 eax
  0001a	8d 45 f4	 lea	 eax, DWORD PTR __$EHRec$[ebp]
  0001d	64 a3 00 00 00
	00		 mov	 DWORD PTR fs:0, eax

; 1039 : 		AfxSetResourceHandle( m_hInstance);

  00023	8b 31		 mov	 esi, DWORD PTR [ecx]
; File C:\Program Files (x86)\Microsoft Visual Studio\2019\Community\VC\Tools\MSVC\14.29.30133\atlmfc\include\afxwin1.inl

; 27   : 	{ ASSERT(hInstResource != NULL); afxCurrentResourceHandle = hInstResource; }

  00025	e8 00 00 00 00	 call	 ?AfxGetModuleState@@YGPAVAFX_MODULE_STATE@@XZ ; AfxGetModuleState
  0002a	89 70 0c	 mov	 DWORD PTR [eax+12], esi
; File D:\git\src\IBK\IBK_DRFN\ProjSrc\SrcChartEx\ChartAddIn\ChartAnalysisToolAddIn\Include_Chart\Dll_Load\IMetaTable.h

; 1040 : 	}

  0002d	8b 4d f4	 mov	 ecx, DWORD PTR __$EHRec$[ebp]
  00030	64 89 0d 00 00
	00 00		 mov	 DWORD PTR fs:0, ecx
  00037	59		 pop	 ecx
  00038	5e		 pop	 esi
  00039	8b e5		 mov	 esp, ebp
  0003b	5d		 pop	 ebp
  0003c	c3		 ret	 0
  0003d	cc		 int	 3
  0003e	cc		 int	 3
  0003f	cc		 int	 3
  00040	cc		 int	 3
  00041	cc		 int	 3
_TEXT	ENDS
;	COMDAT text$x
text$x	SEGMENT
__ehhandler$??1CMultiLanguageResourceSetter@@QAE@XZ:
  00000	90		 npad	 1
  00001	90		 npad	 1
  00002	8b 54 24 08	 mov	 edx, DWORD PTR [esp+8]
  00006	8d 42 0c	 lea	 eax, DWORD PTR [edx+12]
  00009	8b 4a f8	 mov	 ecx, DWORD PTR [edx-8]
  0000c	33 c8		 xor	 ecx, eax
  0000e	e8 00 00 00 00	 call	 @__security_check_cookie@4
  00013	b8 00 00 00 00	 mov	 eax, OFFSET __ehfuncinfo$??1CMultiLanguageResourceSetter@@QAE@XZ
  00018	e9 00 00 00 00	 jmp	 ___CxxFrameHandler3
text$x	ENDS
??1CMultiLanguageResourceSetter@@QAE@XZ ENDP		; CMultiLanguageResourceSetter::~CMultiLanguageResourceSetter
; Function compile flags: /Ogtp
; File D:\git\src\IBK\IBK_DRFN\ProjSrc\SrcChartEx\ChartAddIn\ChartAnalysisToolAddIn\Include_Chart\MessageDefine.h
;	COMDAT ??__ERMS_ANALYSIS_FUNC@@YAXXZ
text$di	SEGMENT
??__ERMS_ANALYSIS_FUNC@@YAXXZ PROC			; `dynamic initializer for 'RMS_ANALYSIS_FUNC'', COMDAT

; 5    : const UINT RMS_ANALYSIS_FUNC = ::RegisterWindowMessage(_T("RMS_ANALYSIS_FUNC"));

  00000	68 00 00 00 00	 push	 OFFSET ??_C@_0BC@MMPGLPDH@RMS_ANALYSIS_FUNC@
  00005	ff 15 00 00 00
	00		 call	 DWORD PTR __imp__RegisterWindowMessageA@4
  0000b	a3 00 00 00 00	 mov	 DWORD PTR ?RMS_ANALYSIS_FUNC@@3IB, eax
  00010	c3		 ret	 0
??__ERMS_ANALYSIS_FUNC@@YAXXZ ENDP			; `dynamic initializer for 'RMS_ANALYSIS_FUNC''
text$di	ENDS
; Function compile flags: /Ogtp
; File D:\git\src\IBK\IBK_DRFN\ProjSrc\SrcChartEx\ChartAddIn\ChartAnalysisToolAddIn\ChartAnalysisToolAddIn\CrosshairsToolAddInImp.cpp
; File C:\Program Files (x86)\Microsoft Visual Studio\2019\Community\VC\Tools\MSVC\14.29.30133\atlmfc\include\afxwin1.inl
; File D:\git\src\IBK\IBK_DRFN\ProjSrc\SrcChartEx\ChartAddIn\ChartAnalysisToolAddIn\ChartAnalysisToolAddIn\CrosshairsToolAddInImp.cpp
; File C:\Program Files (x86)\Microsoft Visual Studio\2019\Community\VC\Tools\MSVC\14.29.30133\atlmfc\include\afx.inl
;	COMDAT ??_GCCrosshairsToolAddInImp@@UAEPAXI@Z
_TEXT	SEGMENT
__$EHRec$ = -12						; size = 12
___flags$ = 8						; size = 4
??_GCCrosshairsToolAddInImp@@UAEPAXI@Z PROC		; CCrosshairsToolAddInImp::`scalar deleting destructor', COMDAT
; _this$ = ecx
  00000	55		 push	 ebp
  00001	8b ec		 mov	 ebp, esp
  00003	6a ff		 push	 -1
  00005	68 00 00 00 00	 push	 __ehhandler$??_GCCrosshairsToolAddInImp@@UAEPAXI@Z
  0000a	64 a1 00 00 00
	00		 mov	 eax, DWORD PTR fs:0
  00010	50		 push	 eax
  00011	56		 push	 esi
  00012	57		 push	 edi
  00013	a1 00 00 00 00	 mov	 eax, DWORD PTR ___security_cookie
  00018	33 c5		 xor	 eax, ebp
  0001a	50		 push	 eax
  0001b	8d 45 f4	 lea	 eax, DWORD PTR __$EHRec$[ebp]
  0001e	64 a3 00 00 00
	00		 mov	 DWORD PTR fs:0, eax
  00024	8b f1		 mov	 esi, ecx
; File D:\git\src\IBK\IBK_DRFN\ProjSrc\SrcChartEx\ChartAddIn\ChartAnalysisToolAddIn\ChartAnalysisToolAddIn\CrosshairsToolAddInImp.cpp

; 61   : 	m_penLine.DeleteObject();

  00026	8d 8e d0 00 00
	00		 lea	 ecx, DWORD PTR [esi+208]
  0002c	c7 45 fc 00 00
	00 00		 mov	 DWORD PTR __$EHRec$[ebp+8], 0
  00033	c7 06 00 00 00
	00		 mov	 DWORD PTR [esi], OFFSET ??_7CCrosshairsToolAddInImp@@6BCIWUnknown@@@
  00039	c7 46 08 00 00
	00 00		 mov	 DWORD PTR [esi+8], OFFSET ??_7CCrosshairsToolAddInImp@@6BIChartAddIn133101@@@
  00040	e8 00 00 00 00	 call	 ?DeleteObject@CGdiObject@@QAEHXZ ; CGdiObject::DeleteObject

; 62   : 
; 63   : 	if( m_pAnalysisTool)

  00045	8b 4e 40	 mov	 ecx, DWORD PTR [esi+64]
  00048	85 c9		 test	 ecx, ecx
  0004a	74 0d		 je	 SHORT $LN8@scalar

; 64   : 	{
; 65   : 		delete m_pAnalysisTool;

  0004c	8b 01		 mov	 eax, DWORD PTR [ecx]
  0004e	6a 01		 push	 1
  00050	ff 10		 call	 DWORD PTR [eax]

; 66   : 		m_pAnalysisTool = NULL;

  00052	c7 46 40 00 00
	00 00		 mov	 DWORD PTR [esi+64], 0
$LN8@scalar:
; File C:\Program Files (x86)\Microsoft Visual Studio\2019\Community\VC\Tools\MSVC\14.29.30133\atlmfc\include\afxwin1.inl

; 106  : 	{ }

  00059	8d 8e d0 00 00
	00		 lea	 ecx, DWORD PTR [esi+208]
  0005f	c7 86 d0 00 00
	00 00 00 00 00	 mov	 DWORD PTR [esi+208], OFFSET ??_7CPen@@6B@
  00069	e8 00 00 00 00	 call	 ??1CGdiObject@@UAE@XZ	; CGdiObject::~CGdiObject
; File D:\git\src\IBK\IBK_DRFN\ProjSrc\SrcChartEx\ChartAddIn\ChartAnalysisToolAddIn\ChartAnalysisToolAddIn\CrosshairsToolAddInImp.cpp

; 68   : }

  0006e	8d 8e c8 00 00
	00		 lea	 ecx, DWORD PTR [esi+200]
  00074	ff 15 00 00 00
	00		 call	 DWORD PTR __imp_??1?$CStringT@DV?$StrTraitMFC_DLL@DV?$ChTraitsCRT@D@ATL@@@@@ATL@@QAE@XZ
  0007a	8d 8e c4 00 00
	00		 lea	 ecx, DWORD PTR [esi+196]
  00080	ff 15 00 00 00
	00		 call	 DWORD PTR __imp_??1?$CStringT@DV?$StrTraitMFC_DLL@DV?$ChTraitsCRT@D@ATL@@@@@ATL@@QAE@XZ
  00086	8b ce		 mov	 ecx, esi
  00088	e8 00 00 00 00	 call	 ??1CChartAddInBase133101@@MAE@XZ ; CChartAddInBase133101::~CChartAddInBase133101
  0008d	8b 45 08	 mov	 eax, DWORD PTR ___flags$[ebp]
  00090	a8 01		 test	 al, 1
  00092	74 1d		 je	 SHORT $LN18@scalar
  00094	a8 04		 test	 al, 4
  00096	75 0b		 jne	 SHORT $LN3@scalar
; File C:\Program Files (x86)\Microsoft Visual Studio\2019\Community\VC\Tools\MSVC\14.29.30133\atlmfc\include\afx.inl

; 112  : 	{ ::operator delete(p); }

  00098	56		 push	 esi
  00099	e8 00 00 00 00	 call	 ??3@YAXPAX@Z		; operator delete
  0009e	83 c4 04	 add	 esp, 4
  000a1	eb 0e		 jmp	 SHORT $LN18@scalar
$LN3@scalar:
  000a3	68 d8 00 00 00	 push	 216			; 000000d8H
  000a8	56		 push	 esi
  000a9	e8 00 00 00 00	 call	 ?__global_delete@@YAXPAXI@Z ; __global_delete
  000ae	83 c4 08	 add	 esp, 8
$LN18@scalar:
  000b1	8b c6		 mov	 eax, esi
  000b3	8b 4d f4	 mov	 ecx, DWORD PTR __$EHRec$[ebp]
  000b6	64 89 0d 00 00
	00 00		 mov	 DWORD PTR fs:0, ecx
  000bd	59		 pop	 ecx
  000be	5f		 pop	 edi
  000bf	5e		 pop	 esi
  000c0	8b e5		 mov	 esp, ebp
  000c2	5d		 pop	 ebp
  000c3	c2 04 00	 ret	 4
  000c6	cc		 int	 3
  000c7	cc		 int	 3
  000c8	cc		 int	 3
  000c9	cc		 int	 3
  000ca	cc		 int	 3
_TEXT	ENDS
;	COMDAT text$x
text$x	SEGMENT
__ehhandler$??_GCCrosshairsToolAddInImp@@UAEPAXI@Z:
  00000	90		 npad	 1
  00001	90		 npad	 1
  00002	8b 54 24 08	 mov	 edx, DWORD PTR [esp+8]
  00006	8d 42 0c	 lea	 eax, DWORD PTR [edx+12]
  00009	8b 4a f4	 mov	 ecx, DWORD PTR [edx-12]
  0000c	33 c8		 xor	 ecx, eax
  0000e	e8 00 00 00 00	 call	 @__security_check_cookie@4
  00013	b8 00 00 00 00	 mov	 eax, OFFSET __ehfuncinfo$??_GCCrosshairsToolAddInImp@@UAEPAXI@Z
  00018	e9 00 00 00 00	 jmp	 ___CxxFrameHandler3
text$x	ENDS
??_GCCrosshairsToolAddInImp@@UAEPAXI@Z ENDP		; CCrosshairsToolAddInImp::`scalar deleting destructor'
; Function compile flags: /Ogtp
; File D:\git\src\IBK\IBK_DRFN\ProjSrc\SrcChartEx\ChartAddIn\ChartAnalysisToolAddIn\ChartAnalysisToolAddIn\CrosshairsToolAddInImp.cpp
; File C:\Program Files (x86)\Microsoft Visual Studio\2019\Community\VC\Tools\MSVC\14.29.30133\atlmfc\include\atltypes.h
; File D:\git\src\IBK\IBK_DRFN\ProjSrc\SrcChartEx\ChartAddIn\ChartAnalysisToolAddIn\ChartAnalysisToolAddIn\CrosshairsToolAddInImp.cpp
; File C:\Program Files (x86)\Microsoft Visual Studio\2019\Community\VC\Tools\MSVC\14.29.30133\atlmfc\include\atltypes.h
; File D:\git\src\IBK\IBK_DRFN\ProjSrc\SrcChartEx\ChartAddIn\ChartAnalysisToolAddIn\ChartAnalysisToolAddIn\CrosshairsToolAddInImp.cpp
; File C:\Program Files (x86)\Microsoft Visual Studio\2019\Community\VC\Tools\MSVC\14.29.30133\atlmfc\include\atltypes.h
; File D:\git\src\IBK\IBK_DRFN\ProjSrc\SrcChartEx\ChartAddIn\ChartAnalysisToolAddIn\ChartAnalysisToolAddIn\CrosshairsToolAddInImp.cpp
;	COMDAT ?OnMouseMove@CCrosshairsToolAddInImp@@MAEHPAUHDC__@@IAAUtagPOINT@@KQAUHBITMAP__@@@Z
_TEXT	SEGMENT
_p_hDC$GSCopy$1$ = -24					; size = 4
$T1 = -20						; size = 16
__$ArrayPad$ = -4					; size = 4
_p_hDC$ = 8						; size = 4
_nFlags$ = 12						; size = 4
_point$ = 16						; size = 4
_p_dwMouseActionID$ = 20				; size = 4
_p_hbmpMainOSB$ = 24					; size = 4
?OnMouseMove@CCrosshairsToolAddInImp@@MAEHPAUHDC__@@IAAUtagPOINT@@KQAUHBITMAP__@@@Z PROC ; CCrosshairsToolAddInImp::OnMouseMove, COMDAT
; _this$ = ecx

; 261  : {

  00000	55		 push	 ebp
  00001	8b ec		 mov	 ebp, esp
  00003	83 ec 18	 sub	 esp, 24			; 00000018H
  00006	a1 00 00 00 00	 mov	 eax, DWORD PTR ___security_cookie
  0000b	33 c5		 xor	 eax, ebp
  0000d	89 45 fc	 mov	 DWORD PTR __$ArrayPad$[ebp], eax
  00010	8b 45 08	 mov	 eax, DWORD PTR _p_hDC$[ebp]
  00013	53		 push	 ebx
  00014	56		 push	 esi
  00015	8b f1		 mov	 esi, ecx
  00017	89 45 e8	 mov	 DWORD PTR _p_hDC$GSCopy$1$[ebp], eax
  0001a	57		 push	 edi
  0001b	8b 7d 10	 mov	 edi, DWORD PTR _point$[ebp]

; 262  : 	if( !m_pAnalysisTool) return FALSE;

  0001e	83 7e 38 00	 cmp	 DWORD PTR [esi+56], 0
  00022	0f 84 9f 00 00
	00		 je	 $LN24@OnMouseMov

; 263  : 
; 264  : 	// (2006/2/13 - Seung-Won, Bae) Check Empty Chart
; 265  : 	if( m_pIChartManager->IsEmpty())	return FALSE;

  00028	8b 4e 20	 mov	 ecx, DWORD PTR [esi+32]
  0002b	8b 01		 mov	 eax, DWORD PTR [ecx]
  0002d	ff 50 2c	 call	 DWORD PTR [eax+44]
  00030	85 c0		 test	 eax, eax
  00032	0f 85 8f 00 00
	00		 jne	 $LN24@OnMouseMov

; 266  : 
; 267  : 	// (2006/2/16 - Seung-Won, Bae) Manage the Flag of Tool Executed
; 268  : 	if( m_bCrossBtnExecuted == FALSE) return FALSE;

  00038	39 46 40	 cmp	 DWORD PTR [esi+64], eax
  0003b	0f 84 86 00 00
	00		 je	 $LN24@OnMouseMov

; 342  : 	if(m_pAnalysisTool == NULL)

  00041	8b 4e 38	 mov	 ecx, DWORD PTR [esi+56]
; File C:\Program Files (x86)\Microsoft Visual Studio\2019\Community\VC\Tools\MSVC\14.29.30133\atlmfc\include\atltypes.h

; 414  : 	*(POINT*)this = initPt;

  00044	8b 07		 mov	 eax, DWORD PTR [edi]
  00046	8b 57 04	 mov	 edx, DWORD PTR [edi+4]
; File D:\git\src\IBK\IBK_DRFN\ProjSrc\SrcChartEx\ChartAddIn\ChartAnalysisToolAddIn\ChartAnalysisToolAddIn\CrosshairsToolAddInImp.cpp

; 342  : 	if(m_pAnalysisTool == NULL)

  00049	85 c9		 test	 ecx, ecx
  0004b	74 1c		 je	 SHORT $LN22@OnMouseMov

; 343  : 	{
; 344  : 		return FALSE;
; 345  : 	}
; 346  : 
; 347  : 	m_rctBlockRegion = m_pAnalysisTool->GetGraphTotalRegion(point);		

  0004d	52		 push	 edx
  0004e	50		 push	 eax
  0004f	8d 45 ec	 lea	 eax, DWORD PTR $T1[ebp]
  00052	50		 push	 eax
  00053	ff 15 00 00 00
	00		 call	 DWORD PTR __imp_?GetGraphTotalRegion@CMainAnalysisTool@@QAE?AVCRect@@VCPoint@@@Z
  00059	8d 5e 4c	 lea	 ebx, DWORD PTR [esi+76]
  0005c	0f 10 00	 movups	 xmm0, XMMWORD PTR [eax]
  0005f	0f 11 03	 movups	 XMMWORD PTR [ebx], xmm0
  00062	8b 07		 mov	 eax, DWORD PTR [edi]
  00064	8b 57 04	 mov	 edx, DWORD PTR [edi+4]
  00067	eb 03		 jmp	 SHORT $LN13@OnMouseMov
$LN22@OnMouseMov:
  00069	8d 5e 4c	 lea	 ebx, DWORD PTR [esi+76]
$LN13@OnMouseMov:
; File C:\Program Files (x86)\Microsoft Visual Studio\2019\Community\VC\Tools\MSVC\14.29.30133\atlmfc\include\atltypes.h

; 648  : 	return ::PtInRect(this, point);

  0006c	52		 push	 edx
  0006d	50		 push	 eax
  0006e	53		 push	 ebx
  0006f	ff 15 00 00 00
	00		 call	 DWORD PTR __imp__PtInRect@12
; File D:\git\src\IBK\IBK_DRFN\ProjSrc\SrcChartEx\ChartAddIn\ChartAnalysisToolAddIn\ChartAnalysisToolAddIn\CrosshairsToolAddInImp.cpp

; 271  : 	if( m_rctBlockRegion.PtInRect( point ) && m_rctBlockRegion.IsRectEmpty() == FALSE)

  00075	85 c0		 test	 eax, eax
  00077	74 19		 je	 SHORT $LN5@OnMouseMov
; File C:\Program Files (x86)\Microsoft Visual Studio\2019\Community\VC\Tools\MSVC\14.29.30133\atlmfc\include\atltypes.h

; 638  : 	return ::IsRectEmpty(this);

  00079	53		 push	 ebx
  0007a	ff 15 00 00 00
	00		 call	 DWORD PTR __imp__IsRectEmpty@4
; File D:\git\src\IBK\IBK_DRFN\ProjSrc\SrcChartEx\ChartAddIn\ChartAnalysisToolAddIn\ChartAnalysisToolAddIn\CrosshairsToolAddInImp.cpp

; 271  : 	if( m_rctBlockRegion.PtInRect( point ) && m_rctBlockRegion.IsRectEmpty() == FALSE)

  00080	85 c0		 test	 eax, eax
  00082	75 0e		 jne	 SHORT $LN5@OnMouseMov

; 272  : 	{		
; 273  : 		if(!m_bOnSetCaprture)

  00084	39 46 70	 cmp	 DWORD PTR [esi+112], eax
  00087	75 16		 jne	 SHORT $LN8@OnMouseMov

; 274  : 			SetCaptureWithFlag();

  00089	c7 46 70 01 00
	00 00		 mov	 DWORD PTR [esi+112], 1

; 275  : 	}

  00090	eb 0d		 jmp	 SHORT $LN8@OnMouseMov
$LN5@OnMouseMov:

; 276  : 	else
; 277  : 	{
; 278  : 		if( m_bOnSetCaprture)

  00092	83 7e 70 00	 cmp	 DWORD PTR [esi+112], 0
  00096	74 07		 je	 SHORT $LN8@OnMouseMov

; 279  : 			ReleaseCaptureWithFlag();

  00098	c7 46 70 00 00
	00 00		 mov	 DWORD PTR [esi+112], 0
$LN8@OnMouseMov:

; 280  : 	}
; 281  : 
; 282  : 	m_ptOldMouse = point;
; 283  : 
; 284  : 	// (2006/2/14 - Seung-Won, Bae) the Controlliing of Numerical Inquiry Dialog.
; 285  : 	if(m_bWithNIDlgOnToolExec)

  0009f	83 7e 48 00	 cmp	 DWORD PTR [esi+72], 0
  000a3	8b 07		 mov	 eax, DWORD PTR [edi]
  000a5	8b 4f 04	 mov	 ecx, DWORD PTR [edi+4]
  000a8	89 46 74	 mov	 DWORD PTR [esi+116], eax
  000ab	89 4e 78	 mov	 DWORD PTR [esi+120], ecx
  000ae	74 17		 je	 SHORT $LN24@OnMouseMov

; 286  : 		m_pIAddInToolMgr->OnAddInToolCommand( EAI_NIDLG_DRAG_ONMOUSEMOVE, p_hDC, nFlags, point, p_dwMouseActionID);

  000b0	ff 75 14	 push	 DWORD PTR _p_dwMouseActionID$[ebp]
  000b3	8b 4e 28	 mov	 ecx, DWORD PTR [esi+40]
  000b6	57		 push	 edi
  000b7	ff 75 0c	 push	 DWORD PTR _nFlags$[ebp]
  000ba	ff 75 e8	 push	 DWORD PTR _p_hDC$GSCopy$1$[ebp]
  000bd	8b 01		 mov	 eax, DWORD PTR [ecx]
  000bf	6a 24		 push	 36			; 00000024H
  000c1	ff 90 a8 00 00
	00		 call	 DWORD PTR [eax+168]
$LN24@OnMouseMov:

; 287  : 	
; 288  : 	return FALSE;
; 289  : }

  000c7	8b 4d fc	 mov	 ecx, DWORD PTR __$ArrayPad$[ebp]
  000ca	33 c0		 xor	 eax, eax
  000cc	5f		 pop	 edi
  000cd	5e		 pop	 esi
  000ce	33 cd		 xor	 ecx, ebp
  000d0	5b		 pop	 ebx
  000d1	e8 00 00 00 00	 call	 @__security_check_cookie@4
  000d6	8b e5		 mov	 esp, ebp
  000d8	5d		 pop	 ebp
  000d9	c2 14 00	 ret	 20			; 00000014H
?OnMouseMove@CCrosshairsToolAddInImp@@MAEHPAUHDC__@@IAAUtagPOINT@@KQAUHBITMAP__@@@Z ENDP ; CCrosshairsToolAddInImp::OnMouseMove
_TEXT	ENDS
; Function compile flags: /Ogtp
; File D:\git\src\IBK\IBK_DRFN\ProjSrc\SrcChartEx\ChartAddIn\ChartAnalysisToolAddIn\ChartAnalysisToolAddIn\CrosshairsToolAddInImp.cpp
;	COMDAT ?OnAddInToolCommand@CCrosshairsToolAddInImp@@MAEHW4EAICommandType@@J@Z
_TEXT	SEGMENT
_p_eCommandID$ = 8					; size = 4
_p_lParam$ = 12						; size = 4
?OnAddInToolCommand@CCrosshairsToolAddInImp@@MAEHW4EAICommandType@@J@Z PROC ; CCrosshairsToolAddInImp::OnAddInToolCommand, COMDAT
; _this$ = ecx

; 244  : { 

  00000	55		 push	 ebp
  00001	8b ec		 mov	 ebp, esp

; 245  : 	// (2006/6/28 - Seung-Won, Bae) Manage Notify from Over-Cross to Drag-Cross for avoiding the Multiple Cross Active.
; 246  : 	if( EAI_CROSSHAIRS_DRAG_OVER_ACTIVATED == p_eCommandID)

  00003	83 7d 08 26	 cmp	 DWORD PTR _p_eCommandID$[ebp], 38 ; 00000026H
  00007	56		 push	 esi
  00008	8b f1		 mov	 esi, ecx
  0000a	74 29		 je	 SHORT $LN4@OnAddInToo

; 247  : 		return FALSE;				// for CrossLine Object Tool AddIn
; 248  : 	
; 249  : 	// (2006/2/13 - Seung-Won, Bae) Check Empty Chart
; 250  : 	if( !m_pAnalysisTool || m_pIChartManager->IsEmpty() || 

  0000c	83 7e 38 00	 cmp	 DWORD PTR [esi+56], 0
  00010	74 23		 je	 SHORT $LN4@OnAddInToo
  00012	8b 4e 20	 mov	 ecx, DWORD PTR [esi+32]
  00015	8b 01		 mov	 eax, DWORD PTR [ecx]
  00017	ff 50 2c	 call	 DWORD PTR [eax+44]
  0001a	85 c0		 test	 eax, eax
  0001c	75 17		 jne	 SHORT $LN4@OnAddInToo
  0001e	83 7d 08 1e	 cmp	 DWORD PTR _p_eCommandID$[ebp], 30 ; 0000001eH
  00022	75 11		 jne	 SHORT $LN4@OnAddInToo

; 251  : 		EAI_ALL_ON_CHANGE_CURSOR_MODE != p_eCommandID) return FALSE;
; 252  : 	
; 253  : 	// (2006/2/13 - Seung-Won, Bae) Manage the Flag of Environment Setting
; 254  : 	m_bCrossCfgExecuted		= ( p_lParam & CROSSLINEVIEW);

  00024	8b 4d 0c	 mov	 ecx, DWORD PTR _p_lParam$[ebp]
  00027	8b c1		 mov	 eax, ecx
  00029	83 e0 02	 and	 eax, 2

; 255  : 	m_bWithNIDlgOnToolExec	= ( p_lParam & NUMERICALINQUIRYDLG);	// (2006/2/28 - Seung-Won, Bae) for Active without NIDLG

  0002c	83 e1 01	 and	 ecx, 1
  0002f	89 46 44	 mov	 DWORD PTR [esi+68], eax
  00032	89 4e 48	 mov	 DWORD PTR [esi+72], ecx
$LN4@OnAddInToo:

; 256  : 
; 257  : 	return FALSE;	// for Other Tool
; 258  : }

  00035	33 c0		 xor	 eax, eax
  00037	5e		 pop	 esi
  00038	5d		 pop	 ebp
  00039	c2 08 00	 ret	 8
?OnAddInToolCommand@CCrosshairsToolAddInImp@@MAEHW4EAICommandType@@J@Z ENDP ; CCrosshairsToolAddInImp::OnAddInToolCommand
_TEXT	ENDS
; Function compile flags: /Ogtp
; File D:\git\src\IBK\IBK_DRFN\ProjSrc\SrcChartEx\ChartAddIn\ChartAnalysisToolAddIn\ChartAnalysisToolAddIn\CrosshairsToolAddInImp.cpp
;	COMDAT ?OnAddInToolCommand@CCrosshairsToolAddInImp@@MAEHW4EAICommandType@@@Z
_TEXT	SEGMENT
$T1 = 8							; size = 4
_clrAnalysisTool$2 = 8					; size = 4
_p_eCommandID$ = 8					; size = 4
?OnAddInToolCommand@CCrosshairsToolAddInImp@@MAEHW4EAICommandType@@@Z PROC ; CCrosshairsToolAddInImp::OnAddInToolCommand, COMDAT
; _this$ = ecx

; 179  : {

  00000	55		 push	 ebp
  00001	8b ec		 mov	 ebp, esp
  00003	56		 push	 esi
  00004	8b f1		 mov	 esi, ecx

; 180  : 	if( !m_pAnalysisTool) return FALSE;

  00006	83 7e 38 00	 cmp	 DWORD PTR [esi+56], 0
  0000a	74 59		 je	 SHORT $LN8@OnAddInToo

; 181  : 
; 182  : 	switch( p_eCommandID)

  0000c	8b 45 08	 mov	 eax, DWORD PTR _p_eCommandID$[ebp]
  0000f	83 e8 18	 sub	 eax, 24			; 00000018H
  00012	74 36		 je	 SHORT $LN6@OnAddInToo
  00014	83 e8 02	 sub	 eax, 2
  00017	75 4c		 jne	 SHORT $LN8@OnAddInToo

; 183  : 	{
; 184  : 		case EAI_ALL_ANALYSIS_RESET_INITIAL_COLOR:
; 185  : 		{
; 186  : 			COLORREF clrAnalysisTool = m_pIChartOCX->GetStyleValueAnalysisToolColor();

  00019	8b 4e 04	 mov	 ecx, DWORD PTR [esi+4]
  0001c	8b 01		 mov	 eax, DWORD PTR [ecx]
  0001e	ff 90 e0 01 00
	00		 call	 DWORD PTR [eax+480]

; 187  : 			m_pAnalysisTool->SetBaseColor( clrAnalysisTool, clrAnalysisTool);

  00024	8b 4e 38	 mov	 ecx, DWORD PTR [esi+56]
  00027	89 45 08	 mov	 DWORD PTR _clrAnalysisTool$2[ebp], eax
  0002a	8d 45 08	 lea	 eax, DWORD PTR _clrAnalysisTool$2[ebp]
  0002d	50		 push	 eax
  0002e	50		 push	 eax
  0002f	ff 15 00 00 00
	00		 call	 DWORD PTR __imp_?SetBaseColor@CMainAnalysisTool@@QAEXABK0@Z

; 188  : 			//sy 2004.12.28.   element  .
; 189  : 			m_pAnalysisTool->ChangeAllElementsColor( clrAnalysisTool, clrAnalysisTool);

  00035	8b 4e 38	 mov	 ecx, DWORD PTR [esi+56]
  00038	8d 45 08	 lea	 eax, DWORD PTR _clrAnalysisTool$2[ebp]
  0003b	50		 push	 eax
  0003c	50		 push	 eax
  0003d	ff 15 00 00 00
	00		 call	 DWORD PTR __imp_?ChangeAllElementsColor@CMainAnalysisTool@@QAEXABK0@Z

; 195  : 			return FALSE;
; 196  : 		}
; 197  : 	}
; 198  : 	return FALSE;
; 199  : }

  00043	33 c0		 xor	 eax, eax
  00045	5e		 pop	 esi
  00046	5d		 pop	 ebp
  00047	c2 04 00	 ret	 4
$LN6@OnAddInToo:

; 190  : 			break;
; 191  : 		}
; 192  : 		case EAI_ALL_APPLY_STYLE:
; 193  : 		{
; 194  : 			m_pAnalysisTool->SetBasePenColor( m_pIChartOCX->GetStyleValueAnalysisToolColor());	

  0004a	8b 4e 04	 mov	 ecx, DWORD PTR [esi+4]
  0004d	8b 01		 mov	 eax, DWORD PTR [ecx]
  0004f	ff 90 e0 01 00
	00		 call	 DWORD PTR [eax+480]
  00055	8b 4e 38	 mov	 ecx, DWORD PTR [esi+56]
  00058	89 45 08	 mov	 DWORD PTR $T1[ebp], eax
  0005b	8d 45 08	 lea	 eax, DWORD PTR $T1[ebp]
  0005e	50		 push	 eax
  0005f	ff 15 00 00 00
	00		 call	 DWORD PTR __imp_?SetBasePenColor@CMainAnalysisTool@@QAEXABK@Z
$LN8@OnAddInToo:

; 195  : 			return FALSE;
; 196  : 		}
; 197  : 	}
; 198  : 	return FALSE;
; 199  : }

  00065	33 c0		 xor	 eax, eax
  00067	5e		 pop	 esi
  00068	5d		 pop	 ebp
  00069	c2 04 00	 ret	 4
?OnAddInToolCommand@CCrosshairsToolAddInImp@@MAEHW4EAICommandType@@@Z ENDP ; CCrosshairsToolAddInImp::OnAddInToolCommand
_TEXT	ENDS
; Function compile flags: /Ogtp
; File D:\git\src\IBK\IBK_DRFN\ProjSrc\SrcChartEx\ChartAddIn\ChartAnalysisToolAddIn\ChartAnalysisToolAddIn\CrosshairsToolAddInImp.cpp
;	COMDAT ?OnCmdMsg@CCrosshairsToolAddInImp@@MAEHIHPAUICmdUI133101@@@Z
_TEXT	SEGMENT
_nID$ = 8						; size = 4
_nCode$ = 12						; size = 4
_p_pICmdUI$ = 16					; size = 4
?OnCmdMsg@CCrosshairsToolAddInImp@@MAEHIHPAUICmdUI133101@@@Z PROC ; CCrosshairsToolAddInImp::OnCmdMsg, COMDAT
; _this$ = ecx

; 136  : {

  00000	55		 push	 ebp
  00001	8b ec		 mov	 ebp, esp

; 137  : 	if( ID_COA_CROSSHAIRS_TOOL_CLOSE != nID && ID_CAA_CROSS_FOLLOW_CLOSE != nID) return FALSE;

  00003	8b 45 08	 mov	 eax, DWORD PTR _nID$[ebp]
  00006	56		 push	 esi
  00007	8b f1		 mov	 esi, ecx
  00009	3d 35 9e 00 00	 cmp	 eax, 40501		; 00009e35H
  0000e	74 0b		 je	 SHORT $LN4@OnCmdMsg
  00010	3d aa 9c 00 00	 cmp	 eax, 40106		; 00009caaH
  00015	0f 85 a2 00 00
	00		 jne	 $LN2@OnCmdMsg
$LN4@OnCmdMsg:

; 138  : 
; 139  : 	if( CN_UPDATE_COMMAND_UI == nCode)

  0001b	8b 4d 0c	 mov	 ecx, DWORD PTR _nCode$[ebp]
  0001e	83 f9 ff	 cmp	 ecx, -1
  00021	75 4a		 jne	 SHORT $LN5@OnCmdMsg

; 140  : 	{
; 141  : 		if( p_pICmdUI)

  00023	57		 push	 edi
  00024	8b 7d 10	 mov	 edi, DWORD PTR _p_pICmdUI$[ebp]
  00027	85 ff		 test	 edi, edi
  00029	74 37		 je	 SHORT $LN8@OnCmdMsg

; 142  : 		{
; 143  : 			if( ID_CAA_CROSS_FOLLOW_CLOSE)
; 144  : 			{
; 145  : 				// (2009/6/5 - Seung-Won, Bae) Check close packet.
; 146  : 				IPacket *pIPacket = m_pIDefaultPacketManager->GetPacket( _MTEXT( C0_CLOSE));

  0002b	8b 4e 1c	 mov	 ecx, DWORD PTR [esi+28]
  0002e	a1 54 00 00 00	 mov	 eax, DWORD PTR ?g_iMetaTable@@3VIMetaTable@@A+84
  00033	53		 push	 ebx
  00034	8b 11		 mov	 edx, DWORD PTR [ecx]
  00036	ff 70 14	 push	 DWORD PTR [eax+20]
  00039	ff 52 10	 call	 DWORD PTR [edx+16]

; 147  : 				p_pICmdUI->Enable( NULL != pIPacket);

  0003c	8b 17		 mov	 edx, DWORD PTR [edi]
  0003e	33 c9		 xor	 ecx, ecx
  00040	8b d8		 mov	 ebx, eax
  00042	85 db		 test	 ebx, ebx
  00044	0f 95 c1	 setne	 cl
  00047	51		 push	 ecx
  00048	8b cf		 mov	 ecx, edi
  0004a	ff 52 10	 call	 DWORD PTR [edx+16]

; 148  : 				if( pIPacket)

  0004d	85 db		 test	 ebx, ebx
  0004f	74 06		 je	 SHORT $LN9@OnCmdMsg

; 149  : 				{
; 150  : 					pIPacket->Release();

  00051	8b 03		 mov	 eax, DWORD PTR [ebx]
  00053	53		 push	 ebx
  00054	ff 50 08	 call	 DWORD PTR [eax+8]
$LN9@OnCmdMsg:

; 151  : 					pIPacket = NULL;
; 152  : 				}
; 153  : 				p_pICmdUI->SetCheck( m_bCrossLineFollowClose);

  00057	8b 07		 mov	 eax, DWORD PTR [edi]
  00059	8b cf		 mov	 ecx, edi
  0005b	ff 76 3c	 push	 DWORD PTR [esi+60]
  0005e	ff 50 14	 call	 DWORD PTR [eax+20]
  00061	5b		 pop	 ebx
$LN8@OnCmdMsg:

; 154  : 			}
; 155  : 			else p_pICmdUI->Enable( TRUE);
; 156  : 		}
; 157  : 		return TRUE;

  00062	5f		 pop	 edi
  00063	b8 01 00 00 00	 mov	 eax, 1
  00068	5e		 pop	 esi

; 168  : 											return FALSE;	// for Other AddIn with AnalysisTool
; 169  : 	}
; 170  : 
; 171  : 	return FALSE;
; 172  : }

  00069	5d		 pop	 ebp
  0006a	c2 0c 00	 ret	 12			; 0000000cH
$LN5@OnCmdMsg:

; 158  : 	}
; 159  : 
; 160  : 	if( CN_COMMAND == nCode) switch( nID)

  0006d	85 c9		 test	 ecx, ecx
  0006f	75 4c		 jne	 SHORT $LN2@OnCmdMsg
  00071	3d aa 9c 00 00	 cmp	 eax, 40106		; 00009caaH
  00076	74 26		 je	 SHORT $LN12@OnCmdMsg
  00078	3d 35 9e 00 00	 cmp	 eax, 40501		; 00009e35H
  0007d	75 3e		 jne	 SHORT $LN2@OnCmdMsg

; 161  : 	{
; 162  : 		case ID_COA_CROSSHAIRS_TOOL_CLOSE:	//  
; 163  : 											m_pIChartOCX->ReleaseOtherToolUI( ( CToolOptionInfo::TOOLOPTION)-1);

  0007f	8b 4e 04	 mov	 ecx, DWORD PTR [esi+4]
  00082	6a ff		 push	 -1
  00084	8b 01		 mov	 eax, DWORD PTR [ecx]
  00086	ff 90 a0 01 00
	00		 call	 DWORD PTR [eax+416]

; 164  : 											OnToolCommand( CToolOptionInfo::T_CROSSHAIRS_TOOL_WITH_NIDLG, 0);

  0008c	8b 06		 mov	 eax, DWORD PTR [esi]
  0008e	8b ce		 mov	 ecx, esi
  00090	6a 00		 push	 0
  00092	6a 5a		 push	 90			; 0000005aH
  00094	ff 50 78	 call	 DWORD PTR [eax+120]

; 168  : 											return FALSE;	// for Other AddIn with AnalysisTool
; 169  : 	}
; 170  : 
; 171  : 	return FALSE;
; 172  : }

  00097	33 c0		 xor	 eax, eax
  00099	5e		 pop	 esi
  0009a	5d		 pop	 ebp
  0009b	c2 0c 00	 ret	 12			; 0000000cH
$LN12@OnCmdMsg:

; 165  : 											return FALSE;
; 166  : 		case ID_CAA_CROSS_FOLLOW_CLOSE:		m_bCrossLineFollowClose = !m_bCrossLineFollowClose;

  0009e	8b 4e 3c	 mov	 ecx, DWORD PTR [esi+60]
  000a1	33 c0		 xor	 eax, eax
  000a3	85 c9		 test	 ecx, ecx
  000a5	0f 94 c0	 sete	 al

; 167  : 											m_pAnalysisTool->SetAutoPriceTool( m_bCrossLineFollowClose ? true : false);

  000a8	85 c9		 test	 ecx, ecx
  000aa	8b 4e 38	 mov	 ecx, DWORD PTR [esi+56]
  000ad	89 46 3c	 mov	 DWORD PTR [esi+60], eax
  000b0	0f 94 c0	 sete	 al
  000b3	0f b6 c0	 movzx	 eax, al
  000b6	50		 push	 eax
  000b7	ff 15 00 00 00
	00		 call	 DWORD PTR __imp_?SetAutoPriceTool@CMainAnalysisTool@@QAEX_N@Z
$LN2@OnCmdMsg:

; 168  : 											return FALSE;	// for Other AddIn with AnalysisTool
; 169  : 	}
; 170  : 
; 171  : 	return FALSE;
; 172  : }

  000bd	33 c0		 xor	 eax, eax
  000bf	5e		 pop	 esi
  000c0	5d		 pop	 ebp
  000c1	c2 0c 00	 ret	 12			; 0000000cH
?OnCmdMsg@CCrosshairsToolAddInImp@@MAEHIHPAUICmdUI133101@@@Z ENDP ; CCrosshairsToolAddInImp::OnCmdMsg
_TEXT	ENDS
; Function compile flags: /Ogtp
; File D:\git\src\IBK\IBK_DRFN\ProjSrc\SrcChartEx\ChartAddIn\ChartAnalysisToolAddIn\ChartAnalysisToolAddIn\CrosshairsToolAddInImp.cpp
;	COMDAT ?OnToolCommand@CCrosshairsToolAddInImp@@MAEXHH@Z
_TEXT	SEGMENT
_p_nToolType$ = 8					; size = 4
_p_nCmdOption$ = 12					; size = 4
?OnToolCommand@CCrosshairsToolAddInImp@@MAEXHH@Z PROC	; CCrosshairsToolAddInImp::OnToolCommand, COMDAT
; _this$ = ecx

; 202  : { 

  00000	55		 push	 ebp
  00001	8b ec		 mov	 ebp, esp
  00003	56		 push	 esi
  00004	8b f1		 mov	 esi, ecx

; 203  : 	if( !m_pAnalysisTool || m_pIChartManager->IsEmpty())  return;

  00006	83 7e 38 00	 cmp	 DWORD PTR [esi+56], 0
  0000a	0f 84 f2 00 00
	00		 je	 $LN3@OnToolComm
  00010	8b 4e 20	 mov	 ecx, DWORD PTR [esi+32]
  00013	8b 01		 mov	 eax, DWORD PTR [ecx]
  00015	ff 50 2c	 call	 DWORD PTR [eax+44]
  00018	85 c0		 test	 eax, eax
  0001a	0f 85 e2 00 00
	00		 jne	 $LN3@OnToolComm

; 204  : 	
; 205  : 	if(p_nToolType == CToolOptionInfo::T_ALL_TOOL_RESET_STATE)

  00020	8b 45 08	 mov	 eax, DWORD PTR _p_nToolType$[ebp]
  00023	3d fd 03 00 00	 cmp	 eax, 1021		; 000003fdH
  00028	75 65		 jne	 SHORT $LN4@OnToolComm

; 206  : 	{
; 207  : 		if( !m_pAnalysisTool) return;

  0002a	83 7e 38 00	 cmp	 DWORD PTR [esi+56], 0
  0002e	0f 84 ce 00 00
	00		 je	 $LN3@OnToolComm

; 208  : 
; 209  : 		if(m_bCrossBtnExecuted == FALSE) return;

  00034	83 7e 40 00	 cmp	 DWORD PTR [esi+64], 0
  00038	0f 84 c4 00 00
	00		 je	 $LN3@OnToolComm

; 210  : 		
; 211  : 		m_bCrossBtnExecuted = FALSE;
; 212  : 		m_pIChartOCX->OnToolStateChanged(CToolOptionInfo::T_CROSSHAIRS_TOOL,FALSE);

  0003e	8b 4e 04	 mov	 ecx, DWORD PTR [esi+4]
  00041	c7 46 40 00 00
	00 00		 mov	 DWORD PTR [esi+64], 0
  00048	6a 00		 push	 0
  0004a	6a 59		 push	 89			; 00000059H
  0004c	8b 01		 mov	 eax, DWORD PTR [ecx]
  0004e	ff 90 ac 01 00
	00		 call	 DWORD PTR [eax+428]

; 213  : 		m_pIChartOCX->OnToolStateChanged(CToolOptionInfo::T_CROSSHAIRS_TOOL_WITH_NIDLG,FALSE);

  00054	8b 4e 04	 mov	 ecx, DWORD PTR [esi+4]
  00057	6a 00		 push	 0
  00059	6a 5a		 push	 90			; 0000005aH
  0005b	8b 01		 mov	 eax, DWORD PTR [ecx]
  0005d	ff 90 ac 01 00
	00		 call	 DWORD PTR [eax+428]

; 214  : 		if( m_bWithNIDlgOnToolExec == TRUE) 

  00063	83 7e 48 01	 cmp	 DWORD PTR [esi+72], 1
  00067	0f 85 95 00 00
	00		 jne	 $LN3@OnToolComm

; 215  : 		{
; 216  : 			m_bWithNIDlgOnToolExec = FALSE;		
; 217  : 			m_pIAddInToolMgr->OnAddInToolCommand( EAI_NIDLG_DRAG_SHOWHIDE, ( long)0);

  0006d	8b 4e 28	 mov	 ecx, DWORD PTR [esi+40]
  00070	c7 46 48 00 00
	00 00		 mov	 DWORD PTR [esi+72], 0
  00077	5e		 pop	 esi
  00078	8b 01		 mov	 eax, DWORD PTR [ecx]
  0007a	c7 45 0c 00 00
	00 00		 mov	 DWORD PTR _p_nCmdOption$[ebp], 0
  00081	c7 45 08 23 00
	00 00		 mov	 DWORD PTR _p_nToolType$[ebp], 35 ; 00000023H

; 240  : 	}
; 241  : }

  00088	5d		 pop	 ebp

; 215  : 		{
; 216  : 			m_bWithNIDlgOnToolExec = FALSE;		
; 217  : 			m_pIAddInToolMgr->OnAddInToolCommand( EAI_NIDLG_DRAG_SHOWHIDE, ( long)0);

  00089	ff a0 98 00 00
	00		 jmp	 DWORD PTR [eax+152]
$LN4@OnToolComm:

; 218  : 		}
; 219  : 		return;
; 220  : 	}
; 221  : 	else if(p_nToolType == CToolOptionInfo::T_ALL_TOOL_TRUE_QUERY)

  0008f	3d fc 03 00 00	 cmp	 eax, 1020		; 000003fcH
  00094	75 36		 jne	 SHORT $LN9@OnToolComm

; 222  : 	{
; 223  : 		if(m_bCrossBtnExecuted != FALSE) 

  00096	83 7e 40 00	 cmp	 DWORD PTR [esi+64], 0
  0009a	74 0f		 je	 SHORT $LN10@OnToolComm

; 224  : 			m_pIChartOCX->OnToolStateChanged(CToolOptionInfo::T_CROSSHAIRS_TOOL,TRUE);

  0009c	8b 4e 04	 mov	 ecx, DWORD PTR [esi+4]
  0009f	6a 01		 push	 1
  000a1	6a 59		 push	 89			; 00000059H
  000a3	8b 01		 mov	 eax, DWORD PTR [ecx]
  000a5	ff 90 ac 01 00
	00		 call	 DWORD PTR [eax+428]
$LN10@OnToolComm:

; 225  : 
; 226  : 		if( m_bWithNIDlgOnToolExec == TRUE) 

  000ab	83 7e 48 01	 cmp	 DWORD PTR [esi+72], 1
  000af	75 51		 jne	 SHORT $LN3@OnToolComm

; 227  : 			m_pIChartOCX->OnToolStateChanged(CToolOptionInfo::T_CROSSHAIRS_TOOL_WITH_NIDLG,( long)1);

  000b1	8b 4e 04	 mov	 ecx, DWORD PTR [esi+4]
  000b4	5e		 pop	 esi
  000b5	8b 01		 mov	 eax, DWORD PTR [ecx]
  000b7	c7 45 0c 01 00
	00 00		 mov	 DWORD PTR _p_nCmdOption$[ebp], 1
  000be	c7 45 08 5a 00
	00 00		 mov	 DWORD PTR _p_nToolType$[ebp], 90 ; 0000005aH

; 240  : 	}
; 241  : }

  000c5	5d		 pop	 ebp

; 227  : 			m_pIChartOCX->OnToolStateChanged(CToolOptionInfo::T_CROSSHAIRS_TOOL_WITH_NIDLG,( long)1);

  000c6	ff a0 ac 01 00
	00		 jmp	 DWORD PTR [eax+428]
$LN9@OnToolComm:

; 228  : 		return;
; 229  : 	}
; 230  : 
; 231  : 	if( CToolOptionInfo::T_CROSSHAIRS_TOOL == p_nToolType || 		

  000cc	83 f8 59	 cmp	 eax, 89			; 00000059H
  000cf	74 05		 je	 SHORT $LN13@OnToolComm
  000d1	83 f8 5a	 cmp	 eax, 90			; 0000005aH
  000d4	75 2c		 jne	 SHORT $LN3@OnToolComm
$LN13@OnToolComm:
  000d6	57		 push	 edi

; 232  : 		CToolOptionInfo::T_CROSSHAIRS_TOOL_WITH_NIDLG == p_nToolType)
; 233  : 			m_bCrossBtnExecuted = p_nCmdOption;

  000d7	8b 7d 0c	 mov	 edi, DWORD PTR _p_nCmdOption$[ebp]
  000da	89 7e 40	 mov	 DWORD PTR [esi+64], edi

; 234  : 
; 235  : 	if(	CToolOptionInfo::T_CROSSHAIRS_TOOL_WITH_NIDLG == p_nToolType)

  000dd	83 f8 5a	 cmp	 eax, 90			; 0000005aH
  000e0	75 1f		 jne	 SHORT $LN16@OnToolComm

; 236  : 	{
; 237  : 		m_bWithNIDlgOnToolExec = p_nCmdOption;
; 238  : 		m_pIAddInToolMgr->OnAddInToolCommand( EAI_NIDLG_DRAG_SHOWHIDE, p_nCmdOption);

  000e2	8b 4e 28	 mov	 ecx, DWORD PTR [esi+40]
  000e5	89 7e 48	 mov	 DWORD PTR [esi+72], edi
  000e8	57		 push	 edi
  000e9	6a 23		 push	 35			; 00000023H
  000eb	8b 01		 mov	 eax, DWORD PTR [ecx]
  000ed	ff 90 98 00 00
	00		 call	 DWORD PTR [eax+152]

; 239  : 		m_pIAddInToolMgr->OnAddInToolCommand( EAI_CROSSHAIRS_OVER_CROSSHAIRS_TOOL_ACTIVATED, ( long)p_nCmdOption);

  000f3	8b 4e 28	 mov	 ecx, DWORD PTR [esi+40]
  000f6	57		 push	 edi
  000f7	6a 28		 push	 40			; 00000028H
  000f9	8b 01		 mov	 eax, DWORD PTR [ecx]
  000fb	ff 90 98 00 00
	00		 call	 DWORD PTR [eax+152]
$LN16@OnToolComm:
  00101	5f		 pop	 edi
$LN3@OnToolComm:
  00102	5e		 pop	 esi

; 240  : 	}
; 241  : }

  00103	5d		 pop	 ebp
  00104	c2 08 00	 ret	 8
?OnToolCommand@CCrosshairsToolAddInImp@@MAEXHH@Z ENDP	; CCrosshairsToolAddInImp::OnToolCommand
_TEXT	ENDS
; Function compile flags: /Ogtp
; File D:\git\src\IBK\IBK_DRFN\ProjSrc\SrcChartEx\ChartAddIn\ChartAnalysisToolAddIn\ChartAnalysisToolAddIn\CrosshairsToolAddInImp.cpp
;	COMDAT ?OnCaptureChanged@CCrosshairsToolAddInImp@@MAEXPAUHWND__@@QAUHBITMAP__@@@Z
_TEXT	SEGMENT
_p_hWnd$ = 8						; size = 4
_p_hbmpMainOSB$ = 12					; size = 4
?OnCaptureChanged@CCrosshairsToolAddInImp@@MAEXPAUHWND__@@QAUHBITMAP__@@@Z PROC ; CCrosshairsToolAddInImp::OnCaptureChanged, COMDAT
; _this$ = ecx

; 319  : 	//if( m_bOnSetCaprture)
; 320  : 	//	ReleaseCaptureWithFlag();
; 321  : }

  00000	c2 08 00	 ret	 8
?OnCaptureChanged@CCrosshairsToolAddInImp@@MAEXPAUHWND__@@QAUHBITMAP__@@@Z ENDP ; CCrosshairsToolAddInImp::OnCaptureChanged
_TEXT	ENDS
; Function compile flags: /Ogtp
; File D:\git\src\IBK\IBK_DRFN\ProjSrc\SrcChartEx\ChartAddIn\ChartAnalysisToolAddIn\ChartAnalysisToolAddIn\CrosshairsToolAddInImp.cpp
; File C:\Program Files (x86)\Microsoft Visual Studio\2019\Community\VC\Tools\MSVC\14.29.30133\atlmfc\include\atlsimpstr.h
; File D:\git\src\IBK\IBK_DRFN\ProjSrc\SrcChartEx\ChartAddIn\ChartAnalysisToolAddIn\ChartAnalysisToolAddIn\CrosshairsToolAddInImp.cpp
; File C:\Program Files (x86)\Microsoft Visual Studio\2019\Community\VC\Tools\MSVC\14.29.30133\atlmfc\include\atlsimpstr.h
; File D:\git\src\IBK\IBK_DRFN\ProjSrc\SrcChartEx\ChartAddIn\ChartAnalysisToolAddIn\ChartAnalysisToolAddIn\CrosshairsToolAddInImp.cpp
;	COMDAT ?DrawCursor@CCrosshairsToolAddInImp@@MAE?AUtagRECT@@PAUHDC__@@@Z
_TEXT	SEGMENT
_ptPoint$1$ = -20					; size = 4
_ptPoint$2$ = -16					; size = 4
_nStartIndex$1 = -12					; size = 4
_nEndIndex$2 = -8					; size = 4
__$ArrayPad$ = -4					; size = 4
___$ReturnUdt$ = 8					; size = 4
_p_hDC$ = 12						; size = 4
?DrawCursor@CCrosshairsToolAddInImp@@MAE?AUtagRECT@@PAUHDC__@@@Z PROC ; CCrosshairsToolAddInImp::DrawCursor, COMDAT
; _this$ = ecx

; 95   : {

  00000	55		 push	 ebp
  00001	8b ec		 mov	 ebp, esp
  00003	83 ec 14	 sub	 esp, 20			; 00000014H
  00006	a1 00 00 00 00	 mov	 eax, DWORD PTR ___security_cookie
  0000b	33 c5		 xor	 eax, ebp
  0000d	89 45 fc	 mov	 DWORD PTR __$ArrayPad$[ebp], eax
  00010	56		 push	 esi
  00011	8b f1		 mov	 esi, ecx
  00013	57		 push	 edi

; 96   : 	RECT rct = { 0, 0, 0, 0};
; 97   : 	if( m_bOnSetCaprture == TRUE && m_bCrossBtnExecuted != FALSE)

  00014	83 7e 70 01	 cmp	 DWORD PTR [esi+112], 1
  00018	0f 85 a6 00 00
	00		 jne	 $LN3@DrawCursor
  0001e	83 7e 40 00	 cmp	 DWORD PTR [esi+64], 0
  00022	0f 84 9c 00 00
	00		 je	 $LN3@DrawCursor

; 98   : 	{		
; 99   : 		GetCurrentPosData(m_ptOldMouse);

  00028	8b 46 74	 mov	 eax, DWORD PTR [esi+116]
  0002b	53		 push	 ebx
  0002c	89 45 ec	 mov	 DWORD PTR _ptPoint$1$[ebp], eax

; 325  : 	m_strTextXDate.Empty();	

  0002f	8d 9e bc 00 00
	00		 lea	 ebx, DWORD PTR [esi+188]

; 98   : 	{		
; 99   : 		GetCurrentPosData(m_ptOldMouse);

  00035	8b 46 78	 mov	 eax, DWORD PTR [esi+120]

; 325  : 	m_strTextXDate.Empty();	

  00038	8b cb		 mov	 ecx, ebx

; 98   : 	{		
; 99   : 		GetCurrentPosData(m_ptOldMouse);

  0003a	89 45 f0	 mov	 DWORD PTR _ptPoint$2$[ebp], eax

; 325  : 	m_strTextXDate.Empty();	

  0003d	ff 15 00 00 00
	00		 call	 DWORD PTR __imp_?Empty@?$CSimpleStringT@D$00@ATL@@QAEXXZ

; 326  : 	m_strTextYValue.Empty();	

  00043	8d be c0 00 00
	00		 lea	 edi, DWORD PTR [esi+192]
  00049	8b cf		 mov	 ecx, edi
  0004b	ff 15 00 00 00
	00		 call	 DWORD PTR __imp_?Empty@?$CSimpleStringT@D$00@ATL@@QAEXXZ

; 327  : 
; 328  : 	int nStartIndex = 0;
; 329  : 	int nEndIndex = 0;
; 330  : 	// 1.    Data Start/End Index .
; 331  : 	// XScale :  /   - vntsorl(20070327)
; 332  : //	if( !m_pIChartOCX->GetViewStartEndIndex( nStartIndex, nEndIndex ))
; 333  : 	if( !m_pIChartManager->GetStartEndDrawIdx_Cur("DEFAULT", nStartIndex, nEndIndex))

  00051	8b 4e 20	 mov	 ecx, DWORD PTR [esi+32]
  00054	8d 55 f8	 lea	 edx, DWORD PTR _nEndIndex$2[ebp]
  00057	52		 push	 edx
  00058	c7 45 f4 00 00
	00 00		 mov	 DWORD PTR _nStartIndex$1[ebp], 0
  0005f	8d 55 f4	 lea	 edx, DWORD PTR _nStartIndex$1[ebp]
  00062	c7 45 f8 00 00
	00 00		 mov	 DWORD PTR _nEndIndex$2[ebp], 0
  00069	8b 01		 mov	 eax, DWORD PTR [ecx]
  0006b	52		 push	 edx
  0006c	68 00 00 00 00	 push	 OFFSET ??_C@_07MGCPDNLD@DEFAULT@
  00071	ff 90 e0 00 00
	00		 call	 DWORD PTR [eax+224]
  00077	85 c0		 test	 eax, eax
  00079	74 11		 je	 SHORT $LN5@DrawCursor

; 334  : 		return FALSE;
; 335  : 
; 336  : 	m_pAnalysisTool->GetCurrentPosData(ptPoint,m_strTextYValue,m_strTextXDate);

  0007b	8b 4e 38	 mov	 ecx, DWORD PTR [esi+56]
  0007e	53		 push	 ebx
  0007f	57		 push	 edi
  00080	ff 75 f0	 push	 DWORD PTR _ptPoint$2$[ebp]
  00083	ff 75 ec	 push	 DWORD PTR _ptPoint$1$[ebp]
  00086	ff 15 00 00 00
	00		 call	 DWORD PTR __imp_?GetCurrentPosData@CMainAnalysisTool@@QAEHVCPoint@@AAV?$CStringT@DV?$StrTraitMFC_DLL@DV?$ChTraitsCRT@D@ATL@@@@@ATL@@1@Z
$LN5@DrawCursor:
; File C:\Program Files (x86)\Microsoft Visual Studio\2019\Community\VC\Tools\MSVC\14.29.30133\atlmfc\include\atlsimpstr.h

; 533  : 		return( GetLength() == 0 );

  0008c	8b 03		 mov	 eax, DWORD PTR [ebx]
  0008e	5b		 pop	 ebx
  0008f	83 78 f4 00	 cmp	 DWORD PTR [eax-12], 0
; File D:\git\src\IBK\IBK_DRFN\ProjSrc\SrcChartEx\ChartAddIn\ChartAnalysisToolAddIn\ChartAnalysisToolAddIn\CrosshairsToolAddInImp.cpp

; 100  : 		if(m_strTextXDate.IsEmpty() == FALSE && m_strTextYValue.IsEmpty() == FALSE)

  00093	74 2f		 je	 SHORT $LN3@DrawCursor
; File C:\Program Files (x86)\Microsoft Visual Studio\2019\Community\VC\Tools\MSVC\14.29.30133\atlmfc\include\atlsimpstr.h

; 533  : 		return( GetLength() == 0 );

  00095	8b 07		 mov	 eax, DWORD PTR [edi]
  00097	83 78 f4 00	 cmp	 DWORD PTR [eax-12], 0
; File D:\git\src\IBK\IBK_DRFN\ProjSrc\SrcChartEx\ChartAddIn\ChartAnalysisToolAddIn\ChartAnalysisToolAddIn\CrosshairsToolAddInImp.cpp

; 100  : 		if(m_strTextXDate.IsEmpty() == FALSE && m_strTextYValue.IsEmpty() == FALSE)

  0009b	74 27		 je	 SHORT $LN3@DrawCursor

; 101  : 		{
; 102  : 			DrawNewCross(p_hDC);

  0009d	ff 75 0c	 push	 DWORD PTR _p_hDC$[ebp]
  000a0	8d 4e f8	 lea	 ecx, DWORD PTR [esi-8]
  000a3	e8 00 00 00 00	 call	 ?DrawNewCross@CCrosshairsToolAddInImp@@AAEXPAUHDC__@@@Z ; CCrosshairsToolAddInImp::DrawNewCross

; 103  : 			return m_rctBlockRegion;

  000a8	0f 10 46 4c	 movups	 xmm0, XMMWORD PTR [esi+76]
  000ac	8b 45 08	 mov	 eax, DWORD PTR ___$ReturnUdt$[ebp]
  000af	5f		 pop	 edi

; 108  : }

  000b0	5e		 pop	 esi
  000b1	0f 11 00	 movups	 XMMWORD PTR [eax], xmm0
  000b4	8b 4d fc	 mov	 ecx, DWORD PTR __$ArrayPad$[ebp]
  000b7	33 cd		 xor	 ecx, ebp
  000b9	e8 00 00 00 00	 call	 @__security_check_cookie@4
  000be	8b e5		 mov	 esp, ebp
  000c0	5d		 pop	 ebp
  000c1	c2 08 00	 ret	 8
$LN3@DrawCursor:

; 104  : 		}
; 105  : 	}
; 106  : 
; 107  : 	return rct;	

  000c4	8b 45 08	 mov	 eax, DWORD PTR ___$ReturnUdt$[ebp]

; 108  : }

  000c7	8b 4d fc	 mov	 ecx, DWORD PTR __$ArrayPad$[ebp]
  000ca	5f		 pop	 edi
  000cb	33 cd		 xor	 ecx, ebp
  000cd	c7 00 00 00 00
	00		 mov	 DWORD PTR [eax], 0
  000d3	c7 40 04 00 00
	00 00		 mov	 DWORD PTR [eax+4], 0
  000da	c7 40 08 00 00
	00 00		 mov	 DWORD PTR [eax+8], 0
  000e1	c7 40 0c 00 00
	00 00		 mov	 DWORD PTR [eax+12], 0
  000e8	5e		 pop	 esi
  000e9	e8 00 00 00 00	 call	 @__security_check_cookie@4
  000ee	8b e5		 mov	 esp, ebp
  000f0	5d		 pop	 ebp
  000f1	c2 08 00	 ret	 8
?DrawCursor@CCrosshairsToolAddInImp@@MAE?AUtagRECT@@PAUHDC__@@@Z ENDP ; CCrosshairsToolAddInImp::DrawCursor
_TEXT	ENDS
; Function compile flags: /Ogtp
; File D:\git\src\IBK\IBK_DRFN\ProjSrc\SrcChartEx\ChartAddIn\ChartAnalysisToolAddIn\ChartAnalysisToolAddIn\CrosshairsToolAddInImp.cpp
;	COMDAT ?OnResetChart@CCrosshairsToolAddInImp@@MAEXXZ
_TEXT	SEGMENT
?OnResetChart@CCrosshairsToolAddInImp@@MAEXXZ PROC	; CCrosshairsToolAddInImp::OnResetChart, COMDAT
; _this$ = ecx

; 112  : 	// (2008/11/7 - Seung-Won, Bae) Do not release on reset chart for Multi-Chart's Sync within ChartItem.
; 113  : 	return;
; 114  : 
; 115  : 	if( !m_pAnalysisTool) return;
; 116  : 
; 117  : 	if(m_bCrossBtnExecuted == FALSE) return;
; 118  : 		
; 119  : 	m_bCrossBtnExecuted = FALSE;
; 120  : 	m_pIChartOCX->OnToolStateChanged(CToolOptionInfo::T_CROSSHAIRS_TOOL,FALSE);
; 121  : 	m_pIChartOCX->OnToolStateChanged(CToolOptionInfo::T_CROSSHAIRS_TOOL_WITH_NIDLG,FALSE);
; 122  : 	if( m_bWithNIDlgOnToolExec == TRUE) 
; 123  : 	{
; 124  : 		m_bWithNIDlgOnToolExec = FALSE;		
; 125  : 		m_pIAddInToolMgr->OnAddInToolCommand( EAI_NIDLG_DRAG_SHOWHIDE, ( long)0);
; 126  : 	}
; 127  : }

  00000	c2 00 00	 ret	 0
?OnResetChart@CCrosshairsToolAddInImp@@MAEXXZ ENDP	; CCrosshairsToolAddInImp::OnResetChart
_TEXT	ENDS
; Function compile flags: /Ogtp
; File D:\git\src\IBK\IBK_DRFN\ProjSrc\SrcChartEx\ChartAddIn\ChartAnalysisToolAddIn\ChartAnalysisToolAddIn\CrosshairsToolAddInImp.cpp
;	COMDAT ?OnDrawAfterGraph@CCrosshairsToolAddInImp@@MAEXPAUHDC__@@@Z
_TEXT	SEGMENT
_p_hDC$ = 8						; size = 4
?OnDrawAfterGraph@CCrosshairsToolAddInImp@@MAEXPAUHDC__@@@Z PROC ; CCrosshairsToolAddInImp::OnDrawAfterGraph, COMDAT
; _this$ = ecx

; 90   : {

  00000	55		 push	 ebp
  00001	8b ec		 mov	 ebp, esp
  00003	56		 push	 esi
  00004	8b f1		 mov	 esi, ecx

; 91   : 	if( m_pAnalysisTool) m_pAnalysisTool->OnDraw( CDC::FromHandle( p_hDC));

  00006	83 7e 38 00	 cmp	 DWORD PTR [esi+56], 0
  0000a	74 14		 je	 SHORT $LN2@OnDrawAfte
  0000c	6a 00		 push	 0
  0000e	ff 75 08	 push	 DWORD PTR _p_hDC$[ebp]
  00011	e8 00 00 00 00	 call	 ?FromHandle@CDC@@SGPAV1@PAUHDC__@@@Z ; CDC::FromHandle
  00016	8b 4e 38	 mov	 ecx, DWORD PTR [esi+56]
  00019	50		 push	 eax
  0001a	ff 15 00 00 00
	00		 call	 DWORD PTR __imp_?OnDraw@CMainAnalysisTool@@QAEXPAVCDC@@H@Z
$LN2@OnDrawAfte:
  00020	5e		 pop	 esi

; 92   : }

  00021	5d		 pop	 ebp
  00022	c2 04 00	 ret	 4
?OnDrawAfterGraph@CCrosshairsToolAddInImp@@MAEXPAUHDC__@@@Z ENDP ; CCrosshairsToolAddInImp::OnDrawAfterGraph
_TEXT	ENDS
; Function compile flags: /Ogtp
; File D:\git\src\IBK\IBK_DRFN\ProjSrc\SrcChartEx\ChartAddIn\ChartAnalysisToolAddIn\ChartAnalysisToolAddIn\CrosshairsToolAddInImp.cpp
;	COMDAT ?ReleaseCaptureWithFlag@CCrosshairsToolAddInImp@@AAEXXZ
_TEXT	SEGMENT
?ReleaseCaptureWithFlag@CCrosshairsToolAddInImp@@AAEXXZ PROC ; CCrosshairsToolAddInImp::ReleaseCaptureWithFlag, COMDAT
; _this$ = ecx

; 363  : 	// 1. Mouse Capturing Flag FALSE .
; 364  : 	m_bOnSetCaprture = FALSE;

  00000	c7 41 78 00 00
	00 00		 mov	 DWORD PTR [ecx+120], 0

; 365  : 	
; 366  : 	//m_pIChartOCX->RemoveSetCapture();
; 367  : }

  00007	c3		 ret	 0
?ReleaseCaptureWithFlag@CCrosshairsToolAddInImp@@AAEXXZ ENDP ; CCrosshairsToolAddInImp::ReleaseCaptureWithFlag
_TEXT	ENDS
; Function compile flags: /Ogtp
; File D:\git\src\IBK\IBK_DRFN\ProjSrc\SrcChartEx\ChartAddIn\ChartAnalysisToolAddIn\ChartAnalysisToolAddIn\CrosshairsToolAddInImp.cpp
;	COMDAT ?SetCaptureWithFlag@CCrosshairsToolAddInImp@@AAEXXZ
_TEXT	SEGMENT
?SetCaptureWithFlag@CCrosshairsToolAddInImp@@AAEXXZ PROC ; CCrosshairsToolAddInImp::SetCaptureWithFlag, COMDAT
; _this$ = ecx

; 353  : 	// 1. Mouse Event Capturing.
; 354  : 	// (2004.11.02, ) Mouse Capturing  ,  Count  Capturing Interface .
; 355  : 	//m_pIChartOCX->AddSetCapture();
; 356  : 
; 357  : 	// 2. Mouse Capturing Flag TRUE .
; 358  : 	m_bOnSetCaprture = TRUE;	

  00000	c7 41 78 01 00
	00 00		 mov	 DWORD PTR [ecx+120], 1

; 359  : }

  00007	c3		 ret	 0
?SetCaptureWithFlag@CCrosshairsToolAddInImp@@AAEXXZ ENDP ; CCrosshairsToolAddInImp::SetCaptureWithFlag
_TEXT	ENDS
; Function compile flags: /Ogtp
; File D:\git\src\IBK\IBK_DRFN\ProjSrc\SrcChartEx\ChartAddIn\ChartAnalysisToolAddIn\ChartAnalysisToolAddIn\CrosshairsToolAddInImp.cpp
;	COMDAT ?GetCurrentPosData@CCrosshairsToolAddInImp@@AAEHVCPoint@@@Z
_TEXT	SEGMENT
_nStartIndex$ = -8					; size = 4
_nEndIndex$ = -4					; size = 4
_ptPoint$ = 8						; size = 8
?GetCurrentPosData@CCrosshairsToolAddInImp@@AAEHVCPoint@@@Z PROC ; CCrosshairsToolAddInImp::GetCurrentPosData, COMDAT
; _this$ = ecx

; 324  : {

  00000	55		 push	 ebp
  00001	8b ec		 mov	 ebp, esp
  00003	83 ec 08	 sub	 esp, 8
  00006	53		 push	 ebx
  00007	56		 push	 esi
  00008	8b f1		 mov	 esi, ecx
  0000a	57		 push	 edi

; 325  : 	m_strTextXDate.Empty();	

  0000b	8d be c4 00 00
	00		 lea	 edi, DWORD PTR [esi+196]
  00011	8b cf		 mov	 ecx, edi
  00013	ff 15 00 00 00
	00		 call	 DWORD PTR __imp_?Empty@?$CSimpleStringT@D$00@ATL@@QAEXXZ

; 326  : 	m_strTextYValue.Empty();	

  00019	8d 9e c8 00 00
	00		 lea	 ebx, DWORD PTR [esi+200]
  0001f	8b cb		 mov	 ecx, ebx
  00021	ff 15 00 00 00
	00		 call	 DWORD PTR __imp_?Empty@?$CSimpleStringT@D$00@ATL@@QAEXXZ

; 327  : 
; 328  : 	int nStartIndex = 0;
; 329  : 	int nEndIndex = 0;
; 330  : 	// 1.    Data Start/End Index .
; 331  : 	// XScale :  /   - vntsorl(20070327)
; 332  : //	if( !m_pIChartOCX->GetViewStartEndIndex( nStartIndex, nEndIndex ))
; 333  : 	if( !m_pIChartManager->GetStartEndDrawIdx_Cur("DEFAULT", nStartIndex, nEndIndex))

  00027	8b 4e 28	 mov	 ecx, DWORD PTR [esi+40]
  0002a	8d 55 fc	 lea	 edx, DWORD PTR _nEndIndex$[ebp]
  0002d	52		 push	 edx
  0002e	c7 45 f8 00 00
	00 00		 mov	 DWORD PTR _nStartIndex$[ebp], 0
  00035	8d 55 f8	 lea	 edx, DWORD PTR _nStartIndex$[ebp]
  00038	c7 45 fc 00 00
	00 00		 mov	 DWORD PTR _nEndIndex$[ebp], 0
  0003f	8b 01		 mov	 eax, DWORD PTR [ecx]
  00041	52		 push	 edx
  00042	68 00 00 00 00	 push	 OFFSET ??_C@_07MGCPDNLD@DEFAULT@
  00047	ff 90 e0 00 00
	00		 call	 DWORD PTR [eax+224]
  0004d	85 c0		 test	 eax, eax
  0004f	75 09		 jne	 SHORT $LN2@GetCurrent

; 337  : 	return TRUE;
; 338  : }

  00051	5f		 pop	 edi
  00052	5e		 pop	 esi
  00053	5b		 pop	 ebx
  00054	8b e5		 mov	 esp, ebp
  00056	5d		 pop	 ebp
  00057	c2 08 00	 ret	 8
$LN2@GetCurrent:

; 334  : 		return FALSE;
; 335  : 
; 336  : 	m_pAnalysisTool->GetCurrentPosData(ptPoint,m_strTextYValue,m_strTextXDate);

  0005a	8b 4e 40	 mov	 ecx, DWORD PTR [esi+64]
  0005d	57		 push	 edi
  0005e	53		 push	 ebx
  0005f	ff 75 0c	 push	 DWORD PTR _ptPoint$[ebp+4]
  00062	ff 75 08	 push	 DWORD PTR _ptPoint$[ebp]
  00065	ff 15 00 00 00
	00		 call	 DWORD PTR __imp_?GetCurrentPosData@CMainAnalysisTool@@QAEHVCPoint@@AAV?$CStringT@DV?$StrTraitMFC_DLL@DV?$ChTraitsCRT@D@ATL@@@@@ATL@@1@Z
  0006b	5f		 pop	 edi

; 337  : 	return TRUE;
; 338  : }

  0006c	5e		 pop	 esi
  0006d	b8 01 00 00 00	 mov	 eax, 1
  00072	5b		 pop	 ebx
  00073	8b e5		 mov	 esp, ebp
  00075	5d		 pop	 ebp
  00076	c2 08 00	 ret	 8
?GetCurrentPosData@CCrosshairsToolAddInImp@@AAEHVCPoint@@@Z ENDP ; CCrosshairsToolAddInImp::GetCurrentPosData
_TEXT	ENDS
; Function compile flags: /Ogtp
; File D:\git\src\IBK\IBK_DRFN\ProjSrc\SrcChartEx\ChartAddIn\ChartAnalysisToolAddIn\ChartAnalysisToolAddIn\CrosshairsToolAddInImp.cpp
;	COMDAT ?GetGraphTotalRegion@CCrosshairsToolAddInImp@@AAEHVCPoint@@@Z
_TEXT	SEGMENT
$T1 = -20						; size = 16
__$ArrayPad$ = -4					; size = 4
_point$ = 8						; size = 8
?GetGraphTotalRegion@CCrosshairsToolAddInImp@@AAEHVCPoint@@@Z PROC ; CCrosshairsToolAddInImp::GetGraphTotalRegion, COMDAT
; _this$ = ecx

; 341  : {

  00000	55		 push	 ebp
  00001	8b ec		 mov	 ebp, esp
  00003	83 ec 14	 sub	 esp, 20			; 00000014H
  00006	a1 00 00 00 00	 mov	 eax, DWORD PTR ___security_cookie
  0000b	33 c5		 xor	 eax, ebp
  0000d	89 45 fc	 mov	 DWORD PTR __$ArrayPad$[ebp], eax
  00010	56		 push	 esi
  00011	8b f1		 mov	 esi, ecx

; 342  : 	if(m_pAnalysisTool == NULL)

  00013	8b 4e 40	 mov	 ecx, DWORD PTR [esi+64]
  00016	85 c9		 test	 ecx, ecx
  00018	75 13		 jne	 SHORT $LN2@GetGraphTo

; 343  : 	{
; 344  : 		return FALSE;

  0001a	33 c0		 xor	 eax, eax
  0001c	5e		 pop	 esi

; 348  : 	return TRUE;
; 349  : }

  0001d	8b 4d fc	 mov	 ecx, DWORD PTR __$ArrayPad$[ebp]
  00020	33 cd		 xor	 ecx, ebp
  00022	e8 00 00 00 00	 call	 @__security_check_cookie@4
  00027	8b e5		 mov	 esp, ebp
  00029	5d		 pop	 ebp
  0002a	c2 08 00	 ret	 8
$LN2@GetGraphTo:

; 345  : 	}
; 346  : 
; 347  : 	m_rctBlockRegion = m_pAnalysisTool->GetGraphTotalRegion(point);		

  0002d	ff 75 0c	 push	 DWORD PTR _point$[ebp+4]
  00030	8d 45 ec	 lea	 eax, DWORD PTR $T1[ebp]
  00033	ff 75 08	 push	 DWORD PTR _point$[ebp]
  00036	50		 push	 eax
  00037	ff 15 00 00 00
	00		 call	 DWORD PTR __imp_?GetGraphTotalRegion@CMainAnalysisTool@@QAE?AVCRect@@VCPoint@@@Z

; 348  : 	return TRUE;
; 349  : }

  0003d	8b 4d fc	 mov	 ecx, DWORD PTR __$ArrayPad$[ebp]
  00040	33 cd		 xor	 ecx, ebp
  00042	0f 10 00	 movups	 xmm0, XMMWORD PTR [eax]
  00045	b8 01 00 00 00	 mov	 eax, 1
  0004a	0f 11 46 54	 movups	 XMMWORD PTR [esi+84], xmm0
  0004e	5e		 pop	 esi
  0004f	e8 00 00 00 00	 call	 @__security_check_cookie@4
  00054	8b e5		 mov	 esp, ebp
  00056	5d		 pop	 ebp
  00057	c2 08 00	 ret	 8
?GetGraphTotalRegion@CCrosshairsToolAddInImp@@AAEHVCPoint@@@Z ENDP ; CCrosshairsToolAddInImp::GetGraphTotalRegion
_TEXT	ENDS
; Function compile flags: /Ogtp
; File D:\git\src\IBK\IBK_DRFN\ProjSrc\SrcChartEx\ChartAddIn\ChartAnalysisToolAddIn\ChartAnalysisToolAddIn\CrosshairsToolAddInImp.cpp
; File D:\git\src\IBK\IBK_DRFN\ProjSrc\SrcChartEx\ChartAddIn\ChartAnalysisToolAddIn\Include_Chart\Dll_Load\IMetaTable.h
; File C:\Program Files (x86)\Microsoft Visual Studio\2019\Community\VC\Tools\MSVC\14.29.30133\atlmfc\include\afxwin1.inl
; File D:\git\src\IBK\IBK_DRFN\ProjSrc\SrcChartEx\ChartAddIn\ChartAnalysisToolAddIn\Include_Chart\Dll_Load\IMetaTable.h
; File C:\Program Files (x86)\Microsoft Visual Studio\2019\Community\VC\Tools\MSVC\14.29.30133\atlmfc\include\afxwin1.inl
; File D:\git\src\IBK\IBK_DRFN\ProjSrc\SrcChartEx\ChartAddIn\ChartAnalysisToolAddIn\ChartAnalysisToolAddIn\CrosshairsToolAddInImp.cpp
; File C:\Program Files (x86)\Microsoft Visual Studio\2019\Community\VC\Tools\MSVC\14.29.30133\atlmfc\include\atltypes.h
; File D:\git\src\IBK\IBK_DRFN\ProjSrc\SrcChartEx\ChartAddIn\ChartAnalysisToolAddIn\ChartAnalysisToolAddIn\CrosshairsToolAddInImp.cpp
; File C:\Program Files (x86)\Microsoft Visual Studio\2019\Community\VC\Tools\MSVC\14.29.30133\atlmfc\include\atltypes.h
; File D:\git\src\IBK\IBK_DRFN\ProjSrc\SrcChartEx\ChartAddIn\ChartAnalysisToolAddIn\ChartAnalysisToolAddIn\CrosshairsToolAddInImp.cpp
; File C:\Program Files (x86)\Microsoft Visual Studio\2019\Community\VC\Tools\MSVC\14.29.30133\atlmfc\include\atltypes.h
; File D:\git\src\IBK\IBK_DRFN\ProjSrc\SrcChartEx\ChartAddIn\ChartAnalysisToolAddIn\ChartAnalysisToolAddIn\CrosshairsToolAddInImp.cpp
; File C:\Program Files (x86)\Microsoft Visual Studio\2019\Community\VC\Tools\MSVC\14.29.30133\atlmfc\include\atltypes.h
; File D:\git\src\IBK\IBK_DRFN\ProjSrc\SrcChartEx\ChartAddIn\ChartAnalysisToolAddIn\ChartAnalysisToolAddIn\CrosshairsToolAddInImp.cpp
; File C:\Program Files (x86)\Microsoft Visual Studio\2019\Community\VC\Tools\MSVC\14.29.30133\atlmfc\include\atltypes.h
; File D:\git\src\IBK\IBK_DRFN\ProjSrc\SrcChartEx\ChartAddIn\ChartAnalysisToolAddIn\ChartAnalysisToolAddIn\CrosshairsToolAddInImp.cpp
; File C:\Program Files (x86)\Microsoft Visual Studio\2019\Community\VC\Tools\MSVC\14.29.30133\atlmfc\include\atltypes.h
; File D:\git\src\IBK\IBK_DRFN\ProjSrc\SrcChartEx\ChartAddIn\ChartAnalysisToolAddIn\ChartAnalysisToolAddIn\CrosshairsToolAddInImp.cpp
; File C:\Program Files (x86)\Microsoft Visual Studio\2019\Community\VC\Tools\MSVC\14.29.30133\atlmfc\include\atltypes.h
; File D:\git\src\IBK\IBK_DRFN\ProjSrc\SrcChartEx\ChartAddIn\ChartAnalysisToolAddIn\ChartAnalysisToolAddIn\CrosshairsToolAddInImp.cpp
; File C:\Program Files (x86)\Microsoft Visual Studio\2019\Community\VC\Tools\MSVC\14.29.30133\atlmfc\include\atltypes.h
; File D:\git\src\IBK\IBK_DRFN\ProjSrc\SrcChartEx\ChartAddIn\ChartAnalysisToolAddIn\ChartAnalysisToolAddIn\CrosshairsToolAddInImp.cpp
; File C:\Program Files (x86)\Microsoft Visual Studio\2019\Community\VC\Tools\MSVC\14.29.30133\atlmfc\include\atltypes.h
; File D:\git\src\IBK\IBK_DRFN\ProjSrc\SrcChartEx\ChartAddIn\ChartAnalysisToolAddIn\ChartAnalysisToolAddIn\CrosshairsToolAddInImp.cpp
; File C:\Program Files (x86)\Microsoft Visual Studio\2019\Community\VC\Tools\MSVC\14.29.30133\atlmfc\include\atltypes.h
; File D:\git\src\IBK\IBK_DRFN\ProjSrc\SrcChartEx\ChartAddIn\ChartAnalysisToolAddIn\ChartAnalysisToolAddIn\CrosshairsToolAddInImp.cpp
; File C:\Program Files (x86)\Microsoft Visual Studio\2019\Community\VC\Tools\MSVC\14.29.30133\atlmfc\include\atltypes.h
; File D:\git\src\IBK\IBK_DRFN\ProjSrc\SrcChartEx\ChartAddIn\ChartAnalysisToolAddIn\ChartAnalysisToolAddIn\CrosshairsToolAddInImp.cpp
; File C:\Program Files (x86)\Microsoft Visual Studio\2019\Community\VC\Tools\MSVC\14.29.30133\atlmfc\include\atltypes.h
; File D:\git\src\IBK\IBK_DRFN\ProjSrc\SrcChartEx\ChartAddIn\ChartAnalysisToolAddIn\ChartAnalysisToolAddIn\CrosshairsToolAddInImp.cpp
; File C:\Program Files (x86)\Microsoft Visual Studio\2019\Community\VC\Tools\MSVC\14.29.30133\atlmfc\include\atltypes.h
; File D:\git\src\IBK\IBK_DRFN\ProjSrc\SrcChartEx\ChartAddIn\ChartAnalysisToolAddIn\ChartAnalysisToolAddIn\CrosshairsToolAddInImp.cpp
; File C:\Program Files (x86)\Microsoft Visual Studio\2019\Community\VC\Tools\MSVC\14.29.30133\atlmfc\include\atltypes.h
; File D:\git\src\IBK\IBK_DRFN\ProjSrc\SrcChartEx\ChartAddIn\ChartAnalysisToolAddIn\ChartAnalysisToolAddIn\CrosshairsToolAddInImp.cpp
; File C:\Program Files (x86)\Microsoft Visual Studio\2019\Community\VC\Tools\MSVC\14.29.30133\atlmfc\include\atltypes.h
; File D:\git\src\IBK\IBK_DRFN\ProjSrc\SrcChartEx\ChartAddIn\ChartAnalysisToolAddIn\ChartAnalysisToolAddIn\CrosshairsToolAddInImp.cpp
; File C:\Program Files (x86)\Microsoft Visual Studio\2019\Community\VC\Tools\MSVC\14.29.30133\atlmfc\include\atltypes.h
; File D:\git\src\IBK\IBK_DRFN\ProjSrc\SrcChartEx\ChartAddIn\ChartAnalysisToolAddIn\ChartAnalysisToolAddIn\CrosshairsToolAddInImp.cpp
; File C:\Program Files (x86)\Microsoft Visual Studio\2019\Community\VC\Tools\MSVC\14.29.30133\atlmfc\include\atlsimpstr.h
; File C:\Program Files (x86)\Microsoft Visual Studio\2019\Community\VC\Tools\MSVC\14.29.30133\atlmfc\include\afxwin1.inl
; File D:\git\src\IBK\IBK_DRFN\ProjSrc\SrcChartEx\ChartAddIn\ChartAnalysisToolAddIn\ChartAnalysisToolAddIn\CrosshairsToolAddInImp.cpp
; File C:\Program Files (x86)\Microsoft Visual Studio\2019\Community\VC\Tools\MSVC\14.29.30133\atlmfc\include\atlsimpstr.h
; File C:\Program Files (x86)\Microsoft Visual Studio\2019\Community\VC\Tools\MSVC\14.29.30133\atlmfc\include\afxwin1.inl
; File D:\git\src\IBK\IBK_DRFN\ProjSrc\SrcChartEx\ChartAddIn\ChartAnalysisToolAddIn\ChartAnalysisToolAddIn\CrosshairsToolAddInImp.cpp
; File C:\Program Files (x86)\Microsoft Visual Studio\2019\Community\VC\Tools\MSVC\14.29.30133\atlmfc\include\atlsimpstr.h
; File C:\Program Files (x86)\Microsoft Visual Studio\2019\Community\VC\Tools\MSVC\14.29.30133\atlmfc\include\afxwin1.inl
; File D:\git\src\IBK\IBK_DRFN\ProjSrc\SrcChartEx\ChartAddIn\ChartAnalysisToolAddIn\ChartAnalysisToolAddIn\CrosshairsToolAddInImp.cpp
; File C:\Program Files (x86)\Microsoft Visual Studio\2019\Community\VC\Tools\MSVC\14.29.30133\atlmfc\include\atlsimpstr.h
; File C:\Program Files (x86)\Microsoft Visual Studio\2019\Community\VC\Tools\MSVC\14.29.30133\atlmfc\include\afxwin1.inl
; File D:\git\src\IBK\IBK_DRFN\ProjSrc\SrcChartEx\ChartAddIn\ChartAnalysisToolAddIn\ChartAnalysisToolAddIn\CrosshairsToolAddInImp.cpp
; File C:\Program Files (x86)\Microsoft Visual Studio\2019\Community\VC\Tools\MSVC\14.29.30133\atlmfc\include\afxwin1.inl
; File C:\Program Files (x86)\Microsoft Visual Studio\2019\Community\VC\Tools\MSVC\14.29.30133\atlmfc\include\atlsimpstr.h
; File D:\git\src\IBK\IBK_DRFN\ProjSrc\SrcChartEx\ChartAddIn\ChartAnalysisToolAddIn\ChartAnalysisToolAddIn\CrosshairsToolAddInImp.cpp
; File C:\Program Files (x86)\Microsoft Visual Studio\2019\Community\VC\Tools\MSVC\14.29.30133\atlmfc\include\afxwin1.inl
; File D:\git\src\IBK\IBK_DRFN\ProjSrc\SrcChartEx\ChartAddIn\ChartAnalysisToolAddIn\ChartAnalysisToolAddIn\CrosshairsToolAddInImp.cpp
; File C:\Program Files (x86)\Microsoft Visual Studio\2019\Community\VC\Tools\MSVC\14.29.30133\atlmfc\include\afxwin1.inl
; File D:\git\src\IBK\IBK_DRFN\ProjSrc\SrcChartEx\ChartAddIn\ChartAnalysisToolAddIn\ChartAnalysisToolAddIn\CrosshairsToolAddInImp.cpp
; File C:\Program Files (x86)\Microsoft Visual Studio\2019\Community\VC\Tools\MSVC\14.29.30133\atlmfc\include\afxwin1.inl
; File D:\git\src\IBK\IBK_DRFN\ProjSrc\SrcChartEx\ChartAddIn\ChartAnalysisToolAddIn\ChartAnalysisToolAddIn\CrosshairsToolAddInImp.cpp
; File C:\Program Files (x86)\Microsoft Visual Studio\2019\Community\VC\Tools\MSVC\14.29.30133\atlmfc\include\afxwin1.inl
; File C:\Program Files (x86)\Microsoft Visual Studio\2019\Community\VC\Tools\MSVC\14.29.30133\atlmfc\include\atlsimpstr.h
; File D:\git\src\IBK\IBK_DRFN\ProjSrc\SrcChartEx\ChartAddIn\ChartAnalysisToolAddIn\ChartAnalysisToolAddIn\CrosshairsToolAddInImp.cpp
; File C:\Program Files (x86)\Microsoft Visual Studio\2019\Community\VC\Tools\MSVC\14.29.30133\atlmfc\include\afxwin1.inl
; File D:\git\src\IBK\IBK_DRFN\ProjSrc\SrcChartEx\ChartAddIn\ChartAnalysisToolAddIn\ChartAnalysisToolAddIn\CrosshairsToolAddInImp.cpp
; File C:\Program Files (x86)\Microsoft Visual Studio\2019\Community\VC\Tools\MSVC\14.29.30133\atlmfc\include\afxwin1.inl
; File D:\git\src\IBK\IBK_DRFN\ProjSrc\SrcChartEx\ChartAddIn\ChartAnalysisToolAddIn\ChartAnalysisToolAddIn\CrosshairsToolAddInImp.cpp
; File C:\Program Files (x86)\Microsoft Visual Studio\2019\Community\VC\Tools\MSVC\14.29.30133\atlmfc\include\afxwin1.inl
; File D:\git\src\IBK\IBK_DRFN\ProjSrc\SrcChartEx\ChartAddIn\ChartAnalysisToolAddIn\ChartAnalysisToolAddIn\CrosshairsToolAddInImp.cpp
; File C:\Program Files (x86)\Microsoft Visual Studio\2019\Community\VC\Tools\MSVC\14.29.30133\atlmfc\include\afxwin1.inl
; File C:\Program Files (x86)\Microsoft Visual Studio\2019\Community\VC\Tools\MSVC\14.29.30133\atlmfc\include\atlsimpstr.h
; File D:\git\src\IBK\IBK_DRFN\ProjSrc\SrcChartEx\ChartAddIn\ChartAnalysisToolAddIn\ChartAnalysisToolAddIn\CrosshairsToolAddInImp.cpp
; File C:\Program Files (x86)\Microsoft Visual Studio\2019\Community\VC\Tools\MSVC\14.29.30133\atlmfc\include\afxwin1.inl
; File D:\git\src\IBK\IBK_DRFN\ProjSrc\SrcChartEx\ChartAddIn\ChartAnalysisToolAddIn\ChartAnalysisToolAddIn\CrosshairsToolAddInImp.cpp
; File C:\Program Files (x86)\Microsoft Visual Studio\2019\Community\VC\Tools\MSVC\14.29.30133\atlmfc\include\afxwin1.inl
; File D:\git\src\IBK\IBK_DRFN\ProjSrc\SrcChartEx\ChartAddIn\ChartAnalysisToolAddIn\ChartAnalysisToolAddIn\CrosshairsToolAddInImp.cpp
; File C:\Program Files (x86)\Microsoft Visual Studio\2019\Community\VC\Tools\MSVC\14.29.30133\atlmfc\include\afxwin1.inl
; File D:\git\src\IBK\IBK_DRFN\ProjSrc\SrcChartEx\ChartAddIn\ChartAnalysisToolAddIn\ChartAnalysisToolAddIn\CrosshairsToolAddInImp.cpp
; File C:\Program Files (x86)\Microsoft Visual Studio\2019\Community\VC\Tools\MSVC\14.29.30133\atlmfc\include\afxwin1.inl
; File C:\Program Files (x86)\Microsoft Visual Studio\2019\Community\VC\Tools\MSVC\14.29.30133\atlmfc\include\atlsimpstr.h
; File D:\git\src\IBK\IBK_DRFN\ProjSrc\SrcChartEx\ChartAddIn\ChartAnalysisToolAddIn\ChartAnalysisToolAddIn\CrosshairsToolAddInImp.cpp
; File C:\Program Files (x86)\Microsoft Visual Studio\2019\Community\VC\Tools\MSVC\14.29.30133\atlmfc\include\afxwin1.inl
; File D:\git\src\IBK\IBK_DRFN\ProjSrc\SrcChartEx\ChartAddIn\ChartAnalysisToolAddIn\ChartAnalysisToolAddIn\CrosshairsToolAddInImp.cpp
; File C:\Program Files (x86)\Microsoft Visual Studio\2019\Community\VC\Tools\MSVC\14.29.30133\atlmfc\include\afxwin1.inl
; File D:\git\src\IBK\IBK_DRFN\ProjSrc\SrcChartEx\ChartAddIn\ChartAnalysisToolAddIn\ChartAnalysisToolAddIn\CrosshairsToolAddInImp.cpp
; File D:\git\src\IBK\IBK_DRFN\ProjSrc\SrcChartEx\ChartAddIn\ChartAnalysisToolAddIn\Include_Chart\Dll_Load\IMetaTable.h
; File C:\Program Files (x86)\Microsoft Visual Studio\2019\Community\VC\Tools\MSVC\14.29.30133\atlmfc\include\afxwin1.inl
; File D:\git\src\IBK\IBK_DRFN\ProjSrc\SrcChartEx\ChartAddIn\ChartAnalysisToolAddIn\ChartAnalysisToolAddIn\CrosshairsToolAddInImp.cpp
;	COMDAT ?DrawNewCross@CCrosshairsToolAddInImp@@AAEXPAUHDC__@@@Z
_TEXT	SEGMENT
$T2 = -164						; size = 8
___mlrs__$ = -156					; size = 4
$T3 = -152						; size = 8
_pOldBrush$1$ = -148					; size = 4
___mlrs__$1$ = -148					; size = 4
_nRowCount$1$ = -144					; size = 4
tv1635 = -144						; size = 4
_size$4 = -140						; size = 8
_size$5 = -140						; size = 8
_size$6 = -140						; size = 8
_size$7 = -140						; size = 8
_pOldPen$1$ = -136					; size = 4
_p_hDC$GSCopy$1$ = -132					; size = 4
_nColCount$1$ = -132					; size = 4
tv1647 = -132						; size = 4
_this$GSCopy$1$ = -128					; size = 4
tv1639 = -128						; size = 4
_i$1$ = -124						; size = 4
tv1643 = -124						; size = 4
_bBottomExist$1$ = -120					; size = 1
_bTopExist$1$ = -119					; size = 1
_bRightExist$1$ = -118					; size = 1
_bLeftExist$1$ = -117					; size = 1
_pDC$1$ = -116						; size = 4
_rcBottom$ = -112					; size = 16
_rcTop$ = -96						; size = 16
_rcRight$ = -80						; size = 16
_rcLeft$ = -64						; size = 16
_rcBottomTemp$ = -48					; size = 16
_rcTopTemp$ = -32					; size = 16
__$ArrayPad$ = -16					; size = 4
__$EHRec$ = -12						; size = 12
_p_hDC$ = 8						; size = 4
?DrawNewCross@CCrosshairsToolAddInImp@@AAEXPAUHDC__@@@Z PROC ; CCrosshairsToolAddInImp::DrawNewCross, COMDAT
; _this$ = ecx

; 370  : {

  00000	55		 push	 ebp
  00001	8b ec		 mov	 ebp, esp
  00003	6a ff		 push	 -1
  00005	68 00 00 00 00	 push	 __ehhandler$?DrawNewCross@CCrosshairsToolAddInImp@@AAEXPAUHDC__@@@Z
  0000a	64 a1 00 00 00
	00		 mov	 eax, DWORD PTR fs:0
  00010	50		 push	 eax
  00011	81 ec 98 00 00
	00		 sub	 esp, 152		; 00000098H
  00017	a1 00 00 00 00	 mov	 eax, DWORD PTR ___security_cookie
  0001c	33 c5		 xor	 eax, ebp
  0001e	89 45 f0	 mov	 DWORD PTR __$ArrayPad$[ebp], eax
  00021	53		 push	 ebx
  00022	56		 push	 esi
  00023	57		 push	 edi
  00024	50		 push	 eax
  00025	8d 45 f4	 lea	 eax, DWORD PTR __$EHRec$[ebp]
  00028	64 a3 00 00 00
	00		 mov	 DWORD PTR fs:0, eax
  0002e	8b f9		 mov	 edi, ecx
  00030	89 7d 80	 mov	 DWORD PTR _this$GSCopy$1$[ebp], edi
  00033	8b 45 08	 mov	 eax, DWORD PTR _p_hDC$[ebp]
  00036	89 85 7c ff ff
	ff		 mov	 DWORD PTR _p_hDC$GSCopy$1$[ebp], eax

; 371  : 	// Manage State for Resource Loading of Cursor 
; 372  : 	ML_SET_LANGUAGE_RES();

  0003c	e8 00 00 00 00	 call	 ?AfxGetStaticModuleState@@YGPAVAFX_MODULE_STATE@@XZ ; AfxGetStaticModuleState
  00041	8b 9f cc 00 00
	00		 mov	 ebx, DWORD PTR [edi+204]
  00047	8b 70 08	 mov	 esi, DWORD PTR [eax+8]
; File D:\git\src\IBK\IBK_DRFN\ProjSrc\SrcChartEx\ChartAddIn\ChartAnalysisToolAddIn\Include_Chart\Dll_Load\IMetaTable.h

; 938  : 	DECLARE_FUNCTION2(	LoadResourceDLL,				HMODULE, AfxGetStaticModuleState()->m_hCurrentInstanceHandle, HWND, HMODULE);

  0004a	a1 04 00 00 00	 mov	 eax, DWORD PTR ?g_iMetaTable@@3VIMetaTable@@A+4
  0004f	85 c0		 test	 eax, eax
  00051	74 4b		 je	 SHORT $LN33@DrawNewCro
  00053	b9 80 0d 00 00	 mov	 ecx, 3456		; 00000d80H
  00058	66 3b 0d 94 00
	00 00		 cmp	 cx, WORD PTR ?g_iMetaTable@@3VIMetaTable@@A+148
  0005f	74 29		 je	 SHORT $LN195@DrawNewCro
  00061	68 00 00 00 00	 push	 OFFSET ??_C@_0BA@ENJOCHIO@LoadResourceDLL@
  00066	50		 push	 eax
  00067	c7 05 90 00 00
	00 00 00 00 00	 mov	 DWORD PTR ?g_iMetaTable@@3VIMetaTable@@A+144, 0
  00071	ff 15 00 00 00
	00		 call	 DWORD PTR __imp__GetProcAddress@8
  00077	b9 80 0d 00 00	 mov	 ecx, 3456		; 00000d80H
  0007c	a3 90 00 00 00	 mov	 DWORD PTR ?g_iMetaTable@@3VIMetaTable@@A+144, eax
  00081	66 89 0d 94 00
	00 00		 mov	 WORD PTR ?g_iMetaTable@@3VIMetaTable@@A+148, cx
  00088	eb 05		 jmp	 SHORT $LN32@DrawNewCro
$LN195@DrawNewCro:
  0008a	a1 90 00 00 00	 mov	 eax, DWORD PTR ?g_iMetaTable@@3VIMetaTable@@A+144
$LN32@DrawNewCro:
  0008f	85 c0		 test	 eax, eax
  00091	74 0b		 je	 SHORT $LN33@DrawNewCro
  00093	56		 push	 esi
  00094	53		 push	 ebx
  00095	ff d0		 call	 eax
  00097	83 c4 08	 add	 esp, 8
  0009a	8b d8		 mov	 ebx, eax
  0009c	eb 08		 jmp	 SHORT $LN30@DrawNewCro
$LN33@DrawNewCro:
  0009e	e8 00 00 00 00	 call	 ?AfxGetStaticModuleState@@YGPAVAFX_MODULE_STATE@@XZ ; AfxGetStaticModuleState
  000a3	8b 58 08	 mov	 ebx, DWORD PTR [eax+8]
$LN30@DrawNewCro:
; File C:\Program Files (x86)\Microsoft Visual Studio\2019\Community\VC\Tools\MSVC\14.29.30133\atlmfc\include\afxwin1.inl

; 25   : 		return afxCurrentResourceHandle; }

  000a6	e8 00 00 00 00	 call	 ?AfxGetModuleState@@YGPAVAFX_MODULE_STATE@@XZ ; AfxGetModuleState
; File D:\git\src\IBK\IBK_DRFN\ProjSrc\SrcChartEx\ChartAddIn\ChartAnalysisToolAddIn\Include_Chart\Dll_Load\IMetaTable.h

; 1034 : 		m_hInstance = AfxGetResourceHandle();

  000ab	8b 70 0c	 mov	 esi, DWORD PTR [eax+12]
  000ae	89 b5 6c ff ff
	ff		 mov	 DWORD PTR ___mlrs__$1$[ebp], esi
  000b4	89 b5 64 ff ff
	ff		 mov	 DWORD PTR ___mlrs__$[ebp], esi
; File C:\Program Files (x86)\Microsoft Visual Studio\2019\Community\VC\Tools\MSVC\14.29.30133\atlmfc\include\afxwin1.inl

; 27   : 	{ ASSERT(hInstResource != NULL); afxCurrentResourceHandle = hInstResource; }

  000ba	e8 00 00 00 00	 call	 ?AfxGetModuleState@@YGPAVAFX_MODULE_STATE@@XZ ; AfxGetModuleState
  000bf	89 58 0c	 mov	 DWORD PTR [eax+12], ebx
; File D:\git\src\IBK\IBK_DRFN\ProjSrc\SrcChartEx\ChartAddIn\ChartAnalysisToolAddIn\ChartAnalysisToolAddIn\CrosshairsToolAddInImp.cpp

; 375  : 	CDC *pDC = CDC::FromHandle( p_hDC);

  000c2	ff b5 7c ff ff
	ff		 push	 DWORD PTR _p_hDC$GSCopy$1$[ebp]
  000c8	c7 45 fc 00 00
	00 00		 mov	 DWORD PTR __$EHRec$[ebp+8], 0
  000cf	e8 00 00 00 00	 call	 ?FromHandle@CDC@@SGPAV1@PAUHDC__@@@Z ; CDC::FromHandle
  000d4	89 45 8c	 mov	 DWORD PTR _pDC$1$[ebp], eax

; 376  : 	if( !pDC) return;

  000d7	85 c0		 test	 eax, eax
  000d9	0f 84 52 05 00
	00		 je	 $LN29@DrawNewCro
; File C:\Program Files (x86)\Microsoft Visual Studio\2019\Community\VC\Tools\MSVC\14.29.30133\atlmfc\include\atltypes.h

; 669  : 	::SetRectEmpty(this);

  000df	8b 1d 00 00 00
	00		 mov	 ebx, DWORD PTR __imp__SetRectEmpty@4
  000e5	8d 45 c0	 lea	 eax, DWORD PTR _rcLeft$[ebp]
  000e8	0f 57 c0	 xorps	 xmm0, xmm0
; File D:\git\src\IBK\IBK_DRFN\ProjSrc\SrcChartEx\ChartAddIn\ChartAnalysisToolAddIn\ChartAnalysisToolAddIn\CrosshairsToolAddInImp.cpp

; 378  : 	bool bLeftExist = true;

  000eb	c6 45 8b 01	 mov	 BYTE PTR _bLeftExist$1$[ebp], 1
; File C:\Program Files (x86)\Microsoft Visual Studio\2019\Community\VC\Tools\MSVC\14.29.30133\atlmfc\include\atltypes.h

; 669  : 	::SetRectEmpty(this);

  000ef	50		 push	 eax
; File D:\git\src\IBK\IBK_DRFN\ProjSrc\SrcChartEx\ChartAddIn\ChartAnalysisToolAddIn\ChartAnalysisToolAddIn\CrosshairsToolAddInImp.cpp

; 379  : 	bool bRightExist = true;

  000f0	c6 45 8a 01	 mov	 BYTE PTR _bRightExist$1$[ebp], 1

; 380  : 	bool bTopExist = true;

  000f4	c6 45 89 01	 mov	 BYTE PTR _bTopExist$1$[ebp], 1

; 381  : 	bool bBottomExist = true;

  000f8	c6 45 88 01	 mov	 BYTE PTR _bBottomExist$1$[ebp], 1
; File C:\Program Files (x86)\Microsoft Visual Studio\2019\Community\VC\Tools\MSVC\14.29.30133\atlmfc\include\atltypes.h

; 528  : 	left = 0;

  000fc	0f 11 45 a0	 movups	 XMMWORD PTR _rcTop$[ebp], xmm0
  00100	0f 11 45 90	 movups	 XMMWORD PTR _rcBottom$[ebp], xmm0
  00104	0f 11 45 c0	 movups	 XMMWORD PTR _rcLeft$[ebp], xmm0
  00108	0f 11 45 b0	 movups	 XMMWORD PTR _rcRight$[ebp], xmm0

; 669  : 	::SetRectEmpty(this);

  0010c	ff d3		 call	 ebx
  0010e	8d 45 b0	 lea	 eax, DWORD PTR _rcRight$[ebp]
  00111	50		 push	 eax
  00112	ff d3		 call	 ebx
; File D:\git\src\IBK\IBK_DRFN\ProjSrc\SrcChartEx\ChartAddIn\ChartAnalysisToolAddIn\ChartAnalysisToolAddIn\CrosshairsToolAddInImp.cpp

; 390  : 	IBlock *pBlock = m_pIChartManager->GetBlock(0,0);

  00114	8b 4f 28	 mov	 ecx, DWORD PTR [edi+40]
  00117	6a 00		 push	 0
  00119	6a 00		 push	 0
  0011b	8b 01		 mov	 eax, DWORD PTR [ecx]
  0011d	ff 50 38	 call	 DWORD PTR [eax+56]
  00120	8b f8		 mov	 edi, eax

; 391  : 	pBlock->GetVertScaleRegion(rcLeft,rcRight);	

  00122	8d 45 b0	 lea	 eax, DWORD PTR _rcRight$[ebp]
  00125	50		 push	 eax
  00126	8d 45 c0	 lea	 eax, DWORD PTR _rcLeft$[ebp]
  00129	8b cf		 mov	 ecx, edi
  0012b	50		 push	 eax
  0012c	8b 17		 mov	 edx, DWORD PTR [edi]
  0012e	ff 52 18	 call	 DWORD PTR [edx+24]

; 392  : 	pBlock->Release();

  00131	8b 0f		 mov	 ecx, DWORD PTR [edi]
  00133	57		 push	 edi
  00134	ff 51 08	 call	 DWORD PTR [ecx+8]
; File C:\Program Files (x86)\Microsoft Visual Studio\2019\Community\VC\Tools\MSVC\14.29.30133\atlmfc\include\atltypes.h

; 669  : 	::SetRectEmpty(this);

  00137	8d 45 a0	 lea	 eax, DWORD PTR _rcTop$[ebp]
  0013a	50		 push	 eax
  0013b	ff d3		 call	 ebx
  0013d	8d 45 90	 lea	 eax, DWORD PTR _rcBottom$[ebp]
  00140	50		 push	 eax
  00141	ff d3		 call	 ebx
; File D:\git\src\IBK\IBK_DRFN\ProjSrc\SrcChartEx\ChartAddIn\ChartAnalysisToolAddIn\ChartAnalysisToolAddIn\CrosshairsToolAddInImp.cpp

; 398  : 	int nRowCount = m_pIChartManager->GetRowCount();

  00143	8b 5d 80	 mov	 ebx, DWORD PTR _this$GSCopy$1$[ebp]
; File C:\Program Files (x86)\Microsoft Visual Studio\2019\Community\VC\Tools\MSVC\14.29.30133\atlmfc\include\atltypes.h

; 528  : 	left = 0;

  00146	c7 45 e0 00 00
	00 00		 mov	 DWORD PTR _rcTopTemp$[ebp], 0
  0014d	c7 45 d0 00 00
	00 00		 mov	 DWORD PTR _rcBottomTemp$[ebp], 0
  00154	c7 45 e4 00 00
	00 00		 mov	 DWORD PTR _rcTopTemp$[ebp+4], 0
; File D:\git\src\IBK\IBK_DRFN\ProjSrc\SrcChartEx\ChartAddIn\ChartAnalysisToolAddIn\ChartAnalysisToolAddIn\CrosshairsToolAddInImp.cpp

; 398  : 	int nRowCount = m_pIChartManager->GetRowCount();

  0015b	8b 4b 28	 mov	 ecx, DWORD PTR [ebx+40]
; File C:\Program Files (x86)\Microsoft Visual Studio\2019\Community\VC\Tools\MSVC\14.29.30133\atlmfc\include\atltypes.h

; 528  : 	left = 0;

  0015e	c7 45 d4 00 00
	00 00		 mov	 DWORD PTR _rcBottomTemp$[ebp+4], 0
  00165	c7 45 e8 00 00
	00 00		 mov	 DWORD PTR _rcTopTemp$[ebp+8], 0
  0016c	c7 45 d8 00 00
	00 00		 mov	 DWORD PTR _rcBottomTemp$[ebp+8], 0
  00173	c7 45 ec 00 00
	00 00		 mov	 DWORD PTR _rcTopTemp$[ebp+12], 0
  0017a	c7 45 dc 00 00
	00 00		 mov	 DWORD PTR _rcBottomTemp$[ebp+12], 0
; File D:\git\src\IBK\IBK_DRFN\ProjSrc\SrcChartEx\ChartAddIn\ChartAnalysisToolAddIn\ChartAnalysisToolAddIn\CrosshairsToolAddInImp.cpp

; 398  : 	int nRowCount = m_pIChartManager->GetRowCount();

  00181	8b 01		 mov	 eax, DWORD PTR [ecx]
  00183	ff 50 1c	 call	 DWORD PTR [eax+28]

; 399  : 	int nColCount = m_pIChartManager->GetColumnCount();

  00186	8b 4b 28	 mov	 ecx, DWORD PTR [ebx+40]
  00189	8b f8		 mov	 edi, eax
  0018b	89 bd 70 ff ff
	ff		 mov	 DWORD PTR _nRowCount$1$[ebp], edi
  00191	8b 11		 mov	 edx, DWORD PTR [ecx]
  00193	ff 52 20	 call	 DWORD PTR [edx+32]
  00196	33 d2		 xor	 edx, edx
  00198	89 85 7c ff ff
	ff		 mov	 DWORD PTR _nColCount$1$[ebp], eax

; 400  : 	for(int i=0;i<nRowCount;i++)

  0019e	85 ff		 test	 edi, edi
  001a0	89 55 84	 mov	 DWORD PTR _i$1$[ebp], edx
  001a3	8b 3d 00 00 00
	00		 mov	 edi, DWORD PTR __imp__IsRectEmpty@4
  001a9	0f 8e 93 00 00
	00		 jle	 $LN3@DrawNewCro
  001af	8b 8d 70 ff ff
	ff		 mov	 ecx, DWORD PTR _nRowCount$1$[ebp]
  001b5	8b f3		 mov	 esi, ebx
$LL4@DrawNewCro:

; 402  : 		for(int j=0;j<nColCount;j++)

  001b7	33 ff		 xor	 edi, edi
  001b9	85 c0		 test	 eax, eax
  001bb	7e 6e		 jle	 SHORT $LN2@DrawNewCro
  001bd	0f 1f 00	 npad	 3
$LL7@DrawNewCro:

; 403  : 		{
; 404  : 			IBlock *pBlock = m_pIChartManager->GetBlock(i,j);

  001c0	8b 4e 28	 mov	 ecx, DWORD PTR [esi+40]
  001c3	57		 push	 edi
  001c4	52		 push	 edx
  001c5	8b 01		 mov	 eax, DWORD PTR [ecx]
  001c7	ff 50 38	 call	 DWORD PTR [eax+56]
  001ca	8b d8		 mov	 ebx, eax

; 405  : 			pBlock->GetHorzScaleRegion(rcTopTemp,rcBottomTemp);	

  001cc	8d 45 d0	 lea	 eax, DWORD PTR _rcBottomTemp$[ebp]
  001cf	50		 push	 eax
  001d0	8d 45 e0	 lea	 eax, DWORD PTR _rcTopTemp$[ebp]
  001d3	8b cb		 mov	 ecx, ebx
  001d5	50		 push	 eax
  001d6	8b 13		 mov	 edx, DWORD PTR [ebx]
  001d8	ff 52 14	 call	 DWORD PTR [edx+20]

; 406  : 			pBlock->Release();

  001db	8b 0b		 mov	 ecx, DWORD PTR [ebx]
  001dd	53		 push	 ebx
  001de	ff 51 08	 call	 DWORD PTR [ecx+8]
; File C:\Program Files (x86)\Microsoft Visual Studio\2019\Community\VC\Tools\MSVC\14.29.30133\atlmfc\include\atltypes.h

; 638  : 	return ::IsRectEmpty(this);

  001e1	8d 45 e0	 lea	 eax, DWORD PTR _rcTopTemp$[ebp]
  001e4	50		 push	 eax
  001e5	ff 15 00 00 00
	00		 call	 DWORD PTR __imp__IsRectEmpty@4
; File D:\git\src\IBK\IBK_DRFN\ProjSrc\SrcChartEx\ChartAddIn\ChartAnalysisToolAddIn\ChartAnalysisToolAddIn\CrosshairsToolAddInImp.cpp

; 408  : 			if(rcTopTemp.IsRectEmpty() == FALSE)

  001eb	8b 1d 00 00 00
	00		 mov	 ebx, DWORD PTR __imp__CopyRect@8
  001f1	85 c0		 test	 eax, eax
  001f3	75 0a		 jne	 SHORT $LN9@DrawNewCro
; File C:\Program Files (x86)\Microsoft Visual Studio\2019\Community\VC\Tools\MSVC\14.29.30133\atlmfc\include\atltypes.h

; 674  : 	::CopyRect(this, lpSrcRect);

  001f5	8d 45 e0	 lea	 eax, DWORD PTR _rcTopTemp$[ebp]
  001f8	50		 push	 eax
  001f9	8d 45 a0	 lea	 eax, DWORD PTR _rcTop$[ebp]
  001fc	50		 push	 eax
  001fd	ff d3		 call	 ebx
$LN9@DrawNewCro:

; 638  : 	return ::IsRectEmpty(this);

  001ff	8d 45 d0	 lea	 eax, DWORD PTR _rcBottomTemp$[ebp]
  00202	50		 push	 eax
  00203	ff 15 00 00 00
	00		 call	 DWORD PTR __imp__IsRectEmpty@4
; File D:\git\src\IBK\IBK_DRFN\ProjSrc\SrcChartEx\ChartAddIn\ChartAnalysisToolAddIn\ChartAnalysisToolAddIn\CrosshairsToolAddInImp.cpp

; 411  : 			if(rcBottomTemp.IsRectEmpty() == FALSE)

  00209	85 c0		 test	 eax, eax
  0020b	75 0a		 jne	 SHORT $LN5@DrawNewCro
; File C:\Program Files (x86)\Microsoft Visual Studio\2019\Community\VC\Tools\MSVC\14.29.30133\atlmfc\include\atltypes.h

; 674  : 	::CopyRect(this, lpSrcRect);

  0020d	8d 45 d0	 lea	 eax, DWORD PTR _rcBottomTemp$[ebp]
  00210	50		 push	 eax
  00211	8d 45 90	 lea	 eax, DWORD PTR _rcBottom$[ebp]
  00214	50		 push	 eax
  00215	ff d3		 call	 ebx
$LN5@DrawNewCro:
; File D:\git\src\IBK\IBK_DRFN\ProjSrc\SrcChartEx\ChartAddIn\ChartAnalysisToolAddIn\ChartAnalysisToolAddIn\CrosshairsToolAddInImp.cpp

; 402  : 		for(int j=0;j<nColCount;j++)

  00217	8b 85 7c ff ff
	ff		 mov	 eax, DWORD PTR _nColCount$1$[ebp]
  0021d	47		 inc	 edi
  0021e	8b 55 84	 mov	 edx, DWORD PTR _i$1$[ebp]
  00221	3b f8		 cmp	 edi, eax
  00223	7c 9b		 jl	 SHORT $LL7@DrawNewCro
  00225	8b 8d 70 ff ff
	ff		 mov	 ecx, DWORD PTR _nRowCount$1$[ebp]
$LN2@DrawNewCro:

; 400  : 	for(int i=0;i<nRowCount;i++)

  0022b	42		 inc	 edx
  0022c	89 55 84	 mov	 DWORD PTR _i$1$[ebp], edx
  0022f	3b d1		 cmp	 edx, ecx
  00231	7c 84		 jl	 SHORT $LL4@DrawNewCro
  00233	8b b5 6c ff ff
	ff		 mov	 esi, DWORD PTR ___mlrs__$1$[ebp]
  00239	8b 5d 80	 mov	 ebx, DWORD PTR _this$GSCopy$1$[ebp]
  0023c	8b 3d 00 00 00
	00		 mov	 edi, DWORD PTR __imp__IsRectEmpty@4
$LN3@DrawNewCro:
; File C:\Program Files (x86)\Microsoft Visual Studio\2019\Community\VC\Tools\MSVC\14.29.30133\atlmfc\include\atltypes.h

; 638  : 	return ::IsRectEmpty(this);

  00242	8d 45 c0	 lea	 eax, DWORD PTR _rcLeft$[ebp]
  00245	50		 push	 eax
  00246	ff d7		 call	 edi
; File D:\git\src\IBK\IBK_DRFN\ProjSrc\SrcChartEx\ChartAddIn\ChartAnalysisToolAddIn\ChartAnalysisToolAddIn\CrosshairsToolAddInImp.cpp

; 416  : 	if(rcLeft.IsRectEmpty())

  00248	0f b6 4d 8b	 movzx	 ecx, BYTE PTR _bLeftExist$1$[ebp]
  0024c	33 d2		 xor	 edx, edx
  0024e	85 c0		 test	 eax, eax
; File C:\Program Files (x86)\Microsoft Visual Studio\2019\Community\VC\Tools\MSVC\14.29.30133\atlmfc\include\atltypes.h

; 638  : 	return ::IsRectEmpty(this);

  00250	8d 45 b0	 lea	 eax, DWORD PTR _rcRight$[ebp]
  00253	50		 push	 eax
; File D:\git\src\IBK\IBK_DRFN\ProjSrc\SrcChartEx\ChartAddIn\ChartAnalysisToolAddIn\ChartAnalysisToolAddIn\CrosshairsToolAddInImp.cpp

; 416  : 	if(rcLeft.IsRectEmpty())

  00254	0f 45 ca	 cmovne	 ecx, edx
  00257	89 8d 70 ff ff
	ff		 mov	 DWORD PTR tv1635[ebp], ecx
; File C:\Program Files (x86)\Microsoft Visual Studio\2019\Community\VC\Tools\MSVC\14.29.30133\atlmfc\include\atltypes.h

; 638  : 	return ::IsRectEmpty(this);

  0025d	ff d7		 call	 edi
; File D:\git\src\IBK\IBK_DRFN\ProjSrc\SrcChartEx\ChartAddIn\ChartAnalysisToolAddIn\ChartAnalysisToolAddIn\CrosshairsToolAddInImp.cpp

; 419  : 	if(rcRight.IsRectEmpty())

  0025f	0f b6 4d 8a	 movzx	 ecx, BYTE PTR _bRightExist$1$[ebp]
  00263	33 d2		 xor	 edx, edx
  00265	85 c0		 test	 eax, eax
; File C:\Program Files (x86)\Microsoft Visual Studio\2019\Community\VC\Tools\MSVC\14.29.30133\atlmfc\include\atltypes.h

; 638  : 	return ::IsRectEmpty(this);

  00267	8d 45 a0	 lea	 eax, DWORD PTR _rcTop$[ebp]
  0026a	50		 push	 eax
; File D:\git\src\IBK\IBK_DRFN\ProjSrc\SrcChartEx\ChartAddIn\ChartAnalysisToolAddIn\ChartAnalysisToolAddIn\CrosshairsToolAddInImp.cpp

; 419  : 	if(rcRight.IsRectEmpty())

  0026b	0f 45 ca	 cmovne	 ecx, edx
  0026e	89 4d 80	 mov	 DWORD PTR tv1639[ebp], ecx
; File C:\Program Files (x86)\Microsoft Visual Studio\2019\Community\VC\Tools\MSVC\14.29.30133\atlmfc\include\atltypes.h

; 638  : 	return ::IsRectEmpty(this);

  00271	ff d7		 call	 edi
; File D:\git\src\IBK\IBK_DRFN\ProjSrc\SrcChartEx\ChartAddIn\ChartAnalysisToolAddIn\ChartAnalysisToolAddIn\CrosshairsToolAddInImp.cpp

; 422  : 	if(rcTop.IsRectEmpty())

  00273	0f b6 4d 89	 movzx	 ecx, BYTE PTR _bTopExist$1$[ebp]
  00277	33 d2		 xor	 edx, edx
  00279	85 c0		 test	 eax, eax
; File C:\Program Files (x86)\Microsoft Visual Studio\2019\Community\VC\Tools\MSVC\14.29.30133\atlmfc\include\atltypes.h

; 638  : 	return ::IsRectEmpty(this);

  0027b	8d 45 90	 lea	 eax, DWORD PTR _rcBottom$[ebp]
  0027e	50		 push	 eax
; File D:\git\src\IBK\IBK_DRFN\ProjSrc\SrcChartEx\ChartAddIn\ChartAnalysisToolAddIn\ChartAnalysisToolAddIn\CrosshairsToolAddInImp.cpp

; 422  : 	if(rcTop.IsRectEmpty())

  0027f	0f 45 ca	 cmovne	 ecx, edx
  00282	89 4d 84	 mov	 DWORD PTR tv1643[ebp], ecx
; File C:\Program Files (x86)\Microsoft Visual Studio\2019\Community\VC\Tools\MSVC\14.29.30133\atlmfc\include\atltypes.h

; 638  : 	return ::IsRectEmpty(this);

  00285	ff d7		 call	 edi
; File D:\git\src\IBK\IBK_DRFN\ProjSrc\SrcChartEx\ChartAddIn\ChartAnalysisToolAddIn\ChartAnalysisToolAddIn\CrosshairsToolAddInImp.cpp

; 425  : 	if(rcBottom.IsRectEmpty())

  00287	0f b6 4d 88	 movzx	 ecx, BYTE PTR _bBottomExist$1$[ebp]
  0028b	33 d2		 xor	 edx, edx
  0028d	85 c0		 test	 eax, eax
  0028f	0f 45 ca	 cmovne	 ecx, edx

; 426  : 		bBottomExist = false;
; 427  : 
; 428  : 	if(bLeftExist == true)

  00292	80 bd 70 ff ff
	ff 01		 cmp	 BYTE PTR tv1635[ebp], 1
  00299	89 8d 7c ff ff
	ff		 mov	 DWORD PTR tv1647[ebp], ecx
  0029f	8b 0d 00 00 00
	00		 mov	 ecx, DWORD PTR __imp__GetTextExtentPoint32A@16
  002a5	75 7b		 jne	 SHORT $LN17@DrawNewCro
; File C:\Program Files (x86)\Microsoft Visual Studio\2019\Community\VC\Tools\MSVC\14.29.30133\atlmfc\include\atlsimpstr.h

; 519  : 		return( GetData()->nDataLength );

  002a7	8b 83 c8 00 00
	00		 mov	 eax, DWORD PTR [ebx+200]
; File C:\Program Files (x86)\Microsoft Visual Studio\2019\Community\VC\Tools\MSVC\14.29.30133\atlmfc\include\afxwin1.inl

; 639  : 		VERIFY(::GetTextExtentPoint32(m_hAttribDC, str, (int)str.GetLength(), &size));

  002ad	8d 95 74 ff ff
	ff		 lea	 edx, DWORD PTR _size$7[ebp]
  002b3	52		 push	 edx
  002b4	8b 55 8c	 mov	 edx, DWORD PTR _pDC$1$[ebp]
  002b7	ff 70 f4	 push	 DWORD PTR [eax-12]
  002ba	50		 push	 eax
  002bb	ff 72 08	 push	 DWORD PTR [edx+8]
  002be	ff d1		 call	 ecx
; File D:\git\src\IBK\IBK_DRFN\ProjSrc\SrcChartEx\ChartAddIn\ChartAnalysisToolAddIn\ChartAnalysisToolAddIn\CrosshairsToolAddInImp.cpp

; 431  : 		m_rctTextLeft.top = m_ptOldMouse.y - szTextLeft.cy/2;

  002c0	8b 85 78 ff ff
	ff		 mov	 eax, DWORD PTR _size$7[ebp+4]
  002c6	8b bb 80 00 00
	00		 mov	 edi, DWORD PTR [ebx+128]
  002cc	8b cf		 mov	 ecx, edi
  002ce	99		 cdq
  002cf	2b c2		 sub	 eax, edx

; 432  : 		m_rctTextLeft.bottom = m_ptOldMouse.y + szTextLeft.cy/2+3;
; 433  : 		if((rcLeft.right - szTextLeft.cx-5) <= rcLeft.left)

  002d1	8b 55 c8	 mov	 edx, DWORD PTR _rcLeft$[ebp+8]
  002d4	d1 f8		 sar	 eax, 1
  002d6	2b c8		 sub	 ecx, eax
  002d8	83 c0 03	 add	 eax, 3
  002db	03 c7		 add	 eax, edi
  002dd	89 8b 88 00 00
	00		 mov	 DWORD PTR [ebx+136], ecx
  002e3	8b bd 74 ff ff
	ff		 mov	 edi, DWORD PTR _size$7[ebp]
  002e9	8b 4d c0	 mov	 ecx, DWORD PTR _rcLeft$[ebp]
  002ec	89 83 90 00 00
	00		 mov	 DWORD PTR [ebx+144], eax
  002f2	8b c2		 mov	 eax, edx
  002f4	2b c7		 sub	 eax, edi
  002f6	83 c0 fb	 add	 eax, -5			; fffffffbH
  002f9	3b c1		 cmp	 eax, ecx
  002fb	7f 13		 jg	 SHORT $LN16@DrawNewCro

; 434  : 		{
; 435  : 			m_rctTextLeft.right = rcLeft.left + szTextLeft.cx+5;

  002fd	8d 41 05	 lea	 eax, DWORD PTR [ecx+5]

; 436  : 			m_rctTextLeft.left = rcLeft.left;

  00300	89 8b 84 00 00
	00		 mov	 DWORD PTR [ebx+132], ecx
  00306	03 c7		 add	 eax, edi
  00308	89 83 8c 00 00
	00		 mov	 DWORD PTR [ebx+140], eax

; 437  : 		}

  0030e	eb 0c		 jmp	 SHORT $LN198@DrawNewCro
$LN16@DrawNewCro:

; 438  : 		else
; 439  : 		{
; 440  : 			m_rctTextLeft.left = rcLeft.right - szTextLeft.cx-5;

  00310	89 83 84 00 00
	00		 mov	 DWORD PTR [ebx+132], eax

; 441  : 			m_rctTextLeft.right = rcLeft.right;

  00316	89 93 8c 00 00
	00		 mov	 DWORD PTR [ebx+140], edx
$LN198@DrawNewCro:

; 442  : 		}	
; 443  : 	}
; 444  : 
; 445  : 	if(bRightExist == true)

  0031c	8b 0d 00 00 00
	00		 mov	 ecx, DWORD PTR __imp__GetTextExtentPoint32A@16
$LN17@DrawNewCro:
  00322	80 7d 80 01	 cmp	 BYTE PTR tv1639[ebp], 1
  00326	75 73		 jne	 SHORT $LN20@DrawNewCro
; File C:\Program Files (x86)\Microsoft Visual Studio\2019\Community\VC\Tools\MSVC\14.29.30133\atlmfc\include\atlsimpstr.h

; 519  : 		return( GetData()->nDataLength );

  00328	8b 83 c8 00 00
	00		 mov	 eax, DWORD PTR [ebx+200]
; File C:\Program Files (x86)\Microsoft Visual Studio\2019\Community\VC\Tools\MSVC\14.29.30133\atlmfc\include\afxwin1.inl

; 639  : 		VERIFY(::GetTextExtentPoint32(m_hAttribDC, str, (int)str.GetLength(), &size));

  0032e	8d 95 74 ff ff
	ff		 lea	 edx, DWORD PTR _size$6[ebp]
  00334	52		 push	 edx
  00335	ff 70 f4	 push	 DWORD PTR [eax-12]
  00338	50		 push	 eax
  00339	8b 45 8c	 mov	 eax, DWORD PTR _pDC$1$[ebp]
  0033c	ff 70 08	 push	 DWORD PTR [eax+8]
  0033f	ff d1		 call	 ecx
; File D:\git\src\IBK\IBK_DRFN\ProjSrc\SrcChartEx\ChartAddIn\ChartAnalysisToolAddIn\ChartAnalysisToolAddIn\CrosshairsToolAddInImp.cpp

; 448  : 		m_rctTextRight.top = m_ptOldMouse.y - szTextRight.cy/2;

  00341	8b 85 78 ff ff
	ff		 mov	 eax, DWORD PTR _size$6[ebp+4]
  00347	8b bb 80 00 00
	00		 mov	 edi, DWORD PTR [ebx+128]
  0034d	8b cf		 mov	 ecx, edi
  0034f	99		 cdq
  00350	2b c2		 sub	 eax, edx
  00352	d1 f8		 sar	 eax, 1
  00354	2b c8		 sub	 ecx, eax

; 449  : 		m_rctTextRight.bottom = m_ptOldMouse.y + szTextRight.cy/2+3;

  00356	83 c0 03	 add	 eax, 3
  00359	89 8b 98 00 00
	00		 mov	 DWORD PTR [ebx+152], ecx
  0035f	03 c7		 add	 eax, edi

; 450  : 		if((rcRight.left + szTextRight.cx+5) >= rcRight.right)

  00361	8b 4d b0	 mov	 ecx, DWORD PTR _rcRight$[ebp]
  00364	8b bd 74 ff ff
	ff		 mov	 edi, DWORD PTR _size$6[ebp]
  0036a	89 83 a0 00 00
	00		 mov	 DWORD PTR [ebx+160], eax
  00370	8b 45 b8	 mov	 eax, DWORD PTR _rcRight$[ebp+8]
  00373	8d 51 05	 lea	 edx, DWORD PTR [ecx+5]
  00376	03 d7		 add	 edx, edi
  00378	3b d0		 cmp	 edx, eax
  0037a	7c 13		 jl	 SHORT $LN19@DrawNewCro

; 451  : 		{
; 452  : 			m_rctTextRight.right = rcRight.right;

  0037c	89 83 9c 00 00
	00		 mov	 DWORD PTR [ebx+156], eax

; 453  : 			m_rctTextRight.left = rcRight.right - szTextRight.cx-5;

  00382	2b c7		 sub	 eax, edi
  00384	83 e8 05	 sub	 eax, 5
  00387	89 83 94 00 00
	00		 mov	 DWORD PTR [ebx+148], eax

; 454  : 		}

  0038d	eb 0c		 jmp	 SHORT $LN20@DrawNewCro
$LN19@DrawNewCro:

; 455  : 		else
; 456  : 		{
; 457  : 			m_rctTextRight.right = rcRight.left + szTextRight.cx+5;

  0038f	89 93 9c 00 00
	00		 mov	 DWORD PTR [ebx+156], edx

; 458  : 			m_rctTextRight.left = rcRight.left;

  00395	89 8b 94 00 00
	00		 mov	 DWORD PTR [ebx+148], ecx
$LN20@DrawNewCro:

; 459  : 		}
; 460  : 	}
; 461  : 	
; 462  : 	if(bTopExist == true)

  0039b	80 7d 84 01	 cmp	 BYTE PTR tv1643[ebp], 1
  0039f	75 58		 jne	 SHORT $LN193@DrawNewCro
; File C:\Program Files (x86)\Microsoft Visual Studio\2019\Community\VC\Tools\MSVC\14.29.30133\atlmfc\include\atlsimpstr.h

; 519  : 		return( GetData()->nDataLength );

  003a1	8b 83 c4 00 00
	00		 mov	 eax, DWORD PTR [ebx+196]
; File C:\Program Files (x86)\Microsoft Visual Studio\2019\Community\VC\Tools\MSVC\14.29.30133\atlmfc\include\afxwin1.inl

; 639  : 		VERIFY(::GetTextExtentPoint32(m_hAttribDC, str, (int)str.GetLength(), &size));

  003a7	8d 8d 74 ff ff
	ff		 lea	 ecx, DWORD PTR _size$5[ebp]
  003ad	51		 push	 ecx
  003ae	ff 70 f4	 push	 DWORD PTR [eax-12]
  003b1	50		 push	 eax
  003b2	8b 45 8c	 mov	 eax, DWORD PTR _pDC$1$[ebp]
  003b5	ff 70 08	 push	 DWORD PTR [eax+8]
  003b8	ff 15 00 00 00
	00		 call	 DWORD PTR __imp__GetTextExtentPoint32A@16
; File D:\git\src\IBK\IBK_DRFN\ProjSrc\SrcChartEx\ChartAddIn\ChartAnalysisToolAddIn\ChartAnalysisToolAddIn\CrosshairsToolAddInImp.cpp

; 465  : 		m_rctTextTop.top = rcTop.top;

  003be	8b 4d a4	 mov	 ecx, DWORD PTR _rcTop$[ebp+4]

; 466  : 		m_rctTextTop.bottom = rcTop.top + szTextTop.cy+2;

  003c1	8b 85 78 ff ff
	ff		 mov	 eax, DWORD PTR _size$5[ebp+4]

; 467  : 		m_rctTextTop.right = m_ptOldMouse.x + szTextTop.cx/2 + 5;

  003c7	8b 7b 7c	 mov	 edi, DWORD PTR [ebx+124]
  003ca	89 8b a8 00 00
	00		 mov	 DWORD PTR [ebx+168], ecx
  003d0	83 c1 02	 add	 ecx, 2
  003d3	03 c1		 add	 eax, ecx
  003d5	89 83 b0 00 00
	00		 mov	 DWORD PTR [ebx+176], eax
  003db	8b 85 74 ff ff
	ff		 mov	 eax, DWORD PTR _size$5[ebp]
  003e1	99		 cdq
  003e2	2b c2		 sub	 eax, edx
  003e4	d1 f8		 sar	 eax, 1
  003e6	8d 48 05	 lea	 ecx, DWORD PTR [eax+5]
  003e9	03 cf		 add	 ecx, edi

; 468  : 		m_rctTextTop.left = m_ptOldMouse.x - szTextTop.cx/2;

  003eb	2b f8		 sub	 edi, eax
  003ed	89 8b ac 00 00
	00		 mov	 DWORD PTR [ebx+172], ecx
  003f3	89 bb a4 00 00
	00		 mov	 DWORD PTR [ebx+164], edi
$LN193@DrawNewCro:

; 469  : 	}
; 470  : 
; 471  : 	if(bBottomExist == true)

  003f9	80 bd 7c ff ff
	ff 01		 cmp	 BYTE PTR tv1647[ebp], 1
  00400	75 58		 jne	 SHORT $LN194@DrawNewCro
; File C:\Program Files (x86)\Microsoft Visual Studio\2019\Community\VC\Tools\MSVC\14.29.30133\atlmfc\include\atlsimpstr.h

; 519  : 		return( GetData()->nDataLength );

  00402	8b 83 c4 00 00
	00		 mov	 eax, DWORD PTR [ebx+196]
; File C:\Program Files (x86)\Microsoft Visual Studio\2019\Community\VC\Tools\MSVC\14.29.30133\atlmfc\include\afxwin1.inl

; 639  : 		VERIFY(::GetTextExtentPoint32(m_hAttribDC, str, (int)str.GetLength(), &size));

  00408	8d 8d 74 ff ff
	ff		 lea	 ecx, DWORD PTR _size$4[ebp]
  0040e	51		 push	 ecx
  0040f	ff 70 f4	 push	 DWORD PTR [eax-12]
  00412	50		 push	 eax
  00413	8b 45 8c	 mov	 eax, DWORD PTR _pDC$1$[ebp]
  00416	ff 70 08	 push	 DWORD PTR [eax+8]
  00419	ff 15 00 00 00
	00		 call	 DWORD PTR __imp__GetTextExtentPoint32A@16
; File D:\git\src\IBK\IBK_DRFN\ProjSrc\SrcChartEx\ChartAddIn\ChartAnalysisToolAddIn\ChartAnalysisToolAddIn\CrosshairsToolAddInImp.cpp

; 474  : 		m_rctTextBottom.top = rcBottom.top;

  0041f	8b 4d 94	 mov	 ecx, DWORD PTR _rcBottom$[ebp+4]

; 475  : 		m_rctTextBottom.bottom = rcBottom.top + szTextBottom.cy+2;

  00422	8b 85 78 ff ff
	ff		 mov	 eax, DWORD PTR _size$4[ebp+4]

; 476  : 		m_rctTextBottom.right = m_ptOldMouse.x + szTextBottom.cx/2 + 5;

  00428	8b 7b 7c	 mov	 edi, DWORD PTR [ebx+124]
  0042b	89 8b b8 00 00
	00		 mov	 DWORD PTR [ebx+184], ecx
  00431	83 c1 02	 add	 ecx, 2
  00434	03 c1		 add	 eax, ecx
  00436	89 83 c0 00 00
	00		 mov	 DWORD PTR [ebx+192], eax
  0043c	8b 85 74 ff ff
	ff		 mov	 eax, DWORD PTR _size$4[ebp]
  00442	99		 cdq
  00443	2b c2		 sub	 eax, edx
  00445	d1 f8		 sar	 eax, 1
  00447	8d 48 05	 lea	 ecx, DWORD PTR [eax+5]
  0044a	03 cf		 add	 ecx, edi

; 477  : 		m_rctTextBottom.left = m_ptOldMouse.x - szTextBottom.cx/2;

  0044c	2b f8		 sub	 edi, eax
  0044e	89 8b bc 00 00
	00		 mov	 DWORD PTR [ebx+188], ecx
  00454	89 bb b4 00 00
	00		 mov	 DWORD PTR [ebx+180], edi
$LN194@DrawNewCro:

; 478  : 	}
; 479  : 
; 480  : 	// 5.    .
; 481  : 	// 5.1 NOT Line .
; 482  :  	CPen *	pOldPen		= ( CPen *)pDC->SelectObject (&m_penLine);

  0045a	8b 7d 8c	 mov	 edi, DWORD PTR _pDC$1$[ebp]
  0045d	8d 83 d0 00 00
	00		 lea	 eax, DWORD PTR [ebx+208]
  00463	50		 push	 eax
  00464	8b cf		 mov	 ecx, edi
  00466	e8 00 00 00 00	 call	 ?SelectObject@CDC@@QAEPAVCPen@@PAV2@@Z ; CDC::SelectObject

; 483  : 
; 484  : // 	int nPreROP = pDC->SetROP2( R2_NOT);
; 485  :  	pDC->MoveTo( m_rctBlockRegion.left,	m_ptOldMouse.y);

  0046b	ff b3 80 00 00
	00		 push	 DWORD PTR [ebx+128]
  00471	89 85 78 ff ff
	ff		 mov	 DWORD PTR _pOldPen$1$[ebp], eax
  00477	8b cf		 mov	 ecx, edi
  00479	ff 73 54	 push	 DWORD PTR [ebx+84]
  0047c	8d 85 68 ff ff
	ff		 lea	 eax, DWORD PTR $T3[ebp]
  00482	50		 push	 eax
  00483	e8 00 00 00 00	 call	 ?MoveTo@CDC@@QAE?AVCPoint@@HH@Z ; CDC::MoveTo

; 486  :  	pDC->LineTo( m_rctBlockRegion.right,m_ptOldMouse.y);

  00488	ff b3 80 00 00
	00		 push	 DWORD PTR [ebx+128]
  0048e	8b cf		 mov	 ecx, edi
  00490	ff 73 5c	 push	 DWORD PTR [ebx+92]
  00493	e8 00 00 00 00	 call	 ?LineTo@CDC@@QAEHHH@Z	; CDC::LineTo

; 487  : // 
; 488  :  	pDC->MoveTo( m_ptOldMouse.x,m_rctBlockRegion.top);

  00498	ff 73 58	 push	 DWORD PTR [ebx+88]
  0049b	8d 85 5c ff ff
	ff		 lea	 eax, DWORD PTR $T2[ebp]
  004a1	8b cf		 mov	 ecx, edi
  004a3	ff 73 7c	 push	 DWORD PTR [ebx+124]
  004a6	50		 push	 eax
  004a7	e8 00 00 00 00	 call	 ?MoveTo@CDC@@QAE?AVCPoint@@HH@Z ; CDC::MoveTo

; 489  :  	pDC->LineTo( m_ptOldMouse.x,m_rctBlockRegion.bottom);

  004ac	ff 73 60	 push	 DWORD PTR [ebx+96]
  004af	8b cf		 mov	 ecx, edi
  004b1	ff 73 7c	 push	 DWORD PTR [ebx+124]
  004b4	e8 00 00 00 00	 call	 ?LineTo@CDC@@QAEHHH@Z	; CDC::LineTo

; 490  : // 	pDC->SetROP2( nPreROP);
; 491  : 		
; 492  : 	//CPen *	pOldPen		= ( CPen *)pDC->SelectStockObject( BLACK_PEN );
; 493  : 	pDC->SelectStockObject( BLACK_PEN );

  004b9	8b 07		 mov	 eax, DWORD PTR [edi]
  004bb	8b cf		 mov	 ecx, edi
  004bd	6a 07		 push	 7
  004bf	ff 50 2c	 call	 DWORD PTR [eax+44]

; 494  : 	CBrush *pOldBrush	= ( CBrush *)pDC->SelectStockObject( WHITE_BRUSH );

  004c2	8b 07		 mov	 eax, DWORD PTR [edi]
  004c4	8b cf		 mov	 ecx, edi
  004c6	6a 00		 push	 0
  004c8	ff 50 2c	 call	 DWORD PTR [eax+44]

; 495  : 
; 496  : 	if(bLeftExist == true)

  004cb	80 bd 70 ff ff
	ff 01		 cmp	 BYTE PTR tv1635[ebp], 1
  004d2	89 85 6c ff ff
	ff		 mov	 DWORD PTR _pOldBrush$1$[ebp], eax
  004d8	a1 00 00 00 00	 mov	 eax, DWORD PTR __imp__Rectangle@20
  004dd	75 4d		 jne	 SHORT $LN23@DrawNewCro
; File C:\Program Files (x86)\Microsoft Visual Studio\2019\Community\VC\Tools\MSVC\14.29.30133\atlmfc\include\afxwin1.inl

; 541  : 	{ ASSERT(m_hDC != NULL); return ::Rectangle(m_hDC, lpRect->left, lpRect->top,

  004df	ff b3 90 00 00
	00		 push	 DWORD PTR [ebx+144]
  004e5	ff b3 8c 00 00
	00		 push	 DWORD PTR [ebx+140]
  004eb	ff b3 88 00 00
	00		 push	 DWORD PTR [ebx+136]
  004f1	ff b3 84 00 00
	00		 push	 DWORD PTR [ebx+132]
  004f7	ff 77 04	 push	 DWORD PTR [edi+4]
  004fa	ff d0		 call	 eax
; File C:\Program Files (x86)\Microsoft Visual Studio\2019\Community\VC\Tools\MSVC\14.29.30133\atlmfc\include\atlsimpstr.h

; 519  : 		return( GetData()->nDataLength );

  004fc	8b 83 c8 00 00
	00		 mov	 eax, DWORD PTR [ebx+200]
; File D:\git\src\IBK\IBK_DRFN\ProjSrc\SrcChartEx\ChartAddIn\ChartAnalysisToolAddIn\ChartAnalysisToolAddIn\CrosshairsToolAddInImp.cpp

; 499  : 		pDC->TextOut( m_rctTextLeft.left + 3, m_rctTextLeft.top + 2, m_strTextYValue);

  00502	8b bb 88 00 00
	00		 mov	 edi, DWORD PTR [ebx+136]
; File C:\Program Files (x86)\Microsoft Visual Studio\2019\Community\VC\Tools\MSVC\14.29.30133\atlmfc\include\afxwin1.inl

; 574  : 	{ ASSERT(m_hDC != NULL); return TextOut(x, y, (LPCTSTR)str, (int)str.GetLength()); } // call virtual

  00508	8b 55 8c	 mov	 edx, DWORD PTR _pDC$1$[ebp]
; File D:\git\src\IBK\IBK_DRFN\ProjSrc\SrcChartEx\ChartAddIn\ChartAnalysisToolAddIn\ChartAnalysisToolAddIn\CrosshairsToolAddInImp.cpp

; 499  : 		pDC->TextOut( m_rctTextLeft.left + 3, m_rctTextLeft.top + 2, m_strTextYValue);

  0050b	83 c7 02	 add	 edi, 2
  0050e	8b 8b 84 00 00
	00		 mov	 ecx, DWORD PTR [ebx+132]
; File C:\Program Files (x86)\Microsoft Visual Studio\2019\Community\VC\Tools\MSVC\14.29.30133\atlmfc\include\afxwin1.inl

; 574  : 	{ ASSERT(m_hDC != NULL); return TextOut(x, y, (LPCTSTR)str, (int)str.GetLength()); } // call virtual

  00514	ff 70 f4	 push	 DWORD PTR [eax-12]
; File D:\git\src\IBK\IBK_DRFN\ProjSrc\SrcChartEx\ChartAddIn\ChartAnalysisToolAddIn\ChartAnalysisToolAddIn\CrosshairsToolAddInImp.cpp

; 499  : 		pDC->TextOut( m_rctTextLeft.left + 3, m_rctTextLeft.top + 2, m_strTextYValue);

  00517	83 c1 03	 add	 ecx, 3
; File C:\Program Files (x86)\Microsoft Visual Studio\2019\Community\VC\Tools\MSVC\14.29.30133\atlmfc\include\afxwin1.inl

; 574  : 	{ ASSERT(m_hDC != NULL); return TextOut(x, y, (LPCTSTR)str, (int)str.GetLength()); } // call virtual

  0051a	8b 12		 mov	 edx, DWORD PTR [edx]
  0051c	50		 push	 eax
  0051d	57		 push	 edi
  0051e	8b 7d 8c	 mov	 edi, DWORD PTR _pDC$1$[ebp]
  00521	51		 push	 ecx
  00522	8b cf		 mov	 ecx, edi
  00524	ff 52 64	 call	 DWORD PTR [edx+100]
  00527	a1 00 00 00 00	 mov	 eax, DWORD PTR __imp__Rectangle@20
$LN23@DrawNewCro:
; File D:\git\src\IBK\IBK_DRFN\ProjSrc\SrcChartEx\ChartAddIn\ChartAnalysisToolAddIn\ChartAnalysisToolAddIn\CrosshairsToolAddInImp.cpp

; 502  : 	if(bRightExist == true)

  0052c	80 7d 80 01	 cmp	 BYTE PTR tv1639[ebp], 1
  00530	75 48		 jne	 SHORT $LN24@DrawNewCro
; File C:\Program Files (x86)\Microsoft Visual Studio\2019\Community\VC\Tools\MSVC\14.29.30133\atlmfc\include\afxwin1.inl

; 541  : 	{ ASSERT(m_hDC != NULL); return ::Rectangle(m_hDC, lpRect->left, lpRect->top,

  00532	ff b3 a0 00 00
	00		 push	 DWORD PTR [ebx+160]
  00538	ff b3 9c 00 00
	00		 push	 DWORD PTR [ebx+156]
  0053e	ff b3 98 00 00
	00		 push	 DWORD PTR [ebx+152]
  00544	ff b3 94 00 00
	00		 push	 DWORD PTR [ebx+148]
  0054a	ff 77 04	 push	 DWORD PTR [edi+4]
  0054d	ff d0		 call	 eax
; File C:\Program Files (x86)\Microsoft Visual Studio\2019\Community\VC\Tools\MSVC\14.29.30133\atlmfc\include\atlsimpstr.h

; 519  : 		return( GetData()->nDataLength );

  0054f	8b 83 c8 00 00
	00		 mov	 eax, DWORD PTR [ebx+200]
; File D:\git\src\IBK\IBK_DRFN\ProjSrc\SrcChartEx\ChartAddIn\ChartAnalysisToolAddIn\ChartAnalysisToolAddIn\CrosshairsToolAddInImp.cpp

; 505  : 		pDC->TextOut( m_rctTextRight.left + 3, m_rctTextRight.top + 2, m_strTextYValue);

  00555	8b bb 98 00 00
	00		 mov	 edi, DWORD PTR [ebx+152]
; File C:\Program Files (x86)\Microsoft Visual Studio\2019\Community\VC\Tools\MSVC\14.29.30133\atlmfc\include\afxwin1.inl

; 574  : 	{ ASSERT(m_hDC != NULL); return TextOut(x, y, (LPCTSTR)str, (int)str.GetLength()); } // call virtual

  0055b	8b 55 8c	 mov	 edx, DWORD PTR _pDC$1$[ebp]
; File D:\git\src\IBK\IBK_DRFN\ProjSrc\SrcChartEx\ChartAddIn\ChartAnalysisToolAddIn\ChartAnalysisToolAddIn\CrosshairsToolAddInImp.cpp

; 505  : 		pDC->TextOut( m_rctTextRight.left + 3, m_rctTextRight.top + 2, m_strTextYValue);

  0055e	83 c7 02	 add	 edi, 2
  00561	8b 8b 94 00 00
	00		 mov	 ecx, DWORD PTR [ebx+148]
; File C:\Program Files (x86)\Microsoft Visual Studio\2019\Community\VC\Tools\MSVC\14.29.30133\atlmfc\include\afxwin1.inl

; 574  : 	{ ASSERT(m_hDC != NULL); return TextOut(x, y, (LPCTSTR)str, (int)str.GetLength()); } // call virtual

  00567	ff 70 f4	 push	 DWORD PTR [eax-12]
; File D:\git\src\IBK\IBK_DRFN\ProjSrc\SrcChartEx\ChartAddIn\ChartAnalysisToolAddIn\ChartAnalysisToolAddIn\CrosshairsToolAddInImp.cpp

; 505  : 		pDC->TextOut( m_rctTextRight.left + 3, m_rctTextRight.top + 2, m_strTextYValue);

  0056a	83 c1 03	 add	 ecx, 3
; File C:\Program Files (x86)\Microsoft Visual Studio\2019\Community\VC\Tools\MSVC\14.29.30133\atlmfc\include\afxwin1.inl

; 574  : 	{ ASSERT(m_hDC != NULL); return TextOut(x, y, (LPCTSTR)str, (int)str.GetLength()); } // call virtual

  0056d	8b 12		 mov	 edx, DWORD PTR [edx]
  0056f	50		 push	 eax
  00570	57		 push	 edi
  00571	8b 7d 8c	 mov	 edi, DWORD PTR _pDC$1$[ebp]
  00574	51		 push	 ecx
  00575	8b cf		 mov	 ecx, edi
  00577	ff 52 64	 call	 DWORD PTR [edx+100]
$LN24@DrawNewCro:
; File D:\git\src\IBK\IBK_DRFN\ProjSrc\SrcChartEx\ChartAddIn\ChartAnalysisToolAddIn\ChartAnalysisToolAddIn\CrosshairsToolAddInImp.cpp

; 508  : 	if(bTopExist == true)

  0057a	80 7d 84 01	 cmp	 BYTE PTR tv1643[ebp], 1
  0057e	75 4c		 jne	 SHORT $LN25@DrawNewCro
; File C:\Program Files (x86)\Microsoft Visual Studio\2019\Community\VC\Tools\MSVC\14.29.30133\atlmfc\include\afxwin1.inl

; 541  : 	{ ASSERT(m_hDC != NULL); return ::Rectangle(m_hDC, lpRect->left, lpRect->top,

  00580	ff b3 b0 00 00
	00		 push	 DWORD PTR [ebx+176]
  00586	ff b3 ac 00 00
	00		 push	 DWORD PTR [ebx+172]
  0058c	ff b3 a8 00 00
	00		 push	 DWORD PTR [ebx+168]
  00592	ff b3 a4 00 00
	00		 push	 DWORD PTR [ebx+164]
  00598	ff 77 04	 push	 DWORD PTR [edi+4]
  0059b	ff 15 00 00 00
	00		 call	 DWORD PTR __imp__Rectangle@20
; File C:\Program Files (x86)\Microsoft Visual Studio\2019\Community\VC\Tools\MSVC\14.29.30133\atlmfc\include\atlsimpstr.h

; 519  : 		return( GetData()->nDataLength );

  005a1	8b 83 c4 00 00
	00		 mov	 eax, DWORD PTR [ebx+196]
; File D:\git\src\IBK\IBK_DRFN\ProjSrc\SrcChartEx\ChartAddIn\ChartAnalysisToolAddIn\ChartAnalysisToolAddIn\CrosshairsToolAddInImp.cpp

; 511  : 		pDC->TextOut( m_rctTextTop.left + 3, m_rctTextTop.top + 2, m_strTextXDate);

  005a7	8b bb a8 00 00
	00		 mov	 edi, DWORD PTR [ebx+168]
; File C:\Program Files (x86)\Microsoft Visual Studio\2019\Community\VC\Tools\MSVC\14.29.30133\atlmfc\include\afxwin1.inl

; 574  : 	{ ASSERT(m_hDC != NULL); return TextOut(x, y, (LPCTSTR)str, (int)str.GetLength()); } // call virtual

  005ad	8b 55 8c	 mov	 edx, DWORD PTR _pDC$1$[ebp]
; File D:\git\src\IBK\IBK_DRFN\ProjSrc\SrcChartEx\ChartAddIn\ChartAnalysisToolAddIn\ChartAnalysisToolAddIn\CrosshairsToolAddInImp.cpp

; 511  : 		pDC->TextOut( m_rctTextTop.left + 3, m_rctTextTop.top + 2, m_strTextXDate);

  005b0	83 c7 02	 add	 edi, 2
  005b3	8b 8b a4 00 00
	00		 mov	 ecx, DWORD PTR [ebx+164]
; File C:\Program Files (x86)\Microsoft Visual Studio\2019\Community\VC\Tools\MSVC\14.29.30133\atlmfc\include\afxwin1.inl

; 574  : 	{ ASSERT(m_hDC != NULL); return TextOut(x, y, (LPCTSTR)str, (int)str.GetLength()); } // call virtual

  005b9	ff 70 f4	 push	 DWORD PTR [eax-12]
; File D:\git\src\IBK\IBK_DRFN\ProjSrc\SrcChartEx\ChartAddIn\ChartAnalysisToolAddIn\ChartAnalysisToolAddIn\CrosshairsToolAddInImp.cpp

; 511  : 		pDC->TextOut( m_rctTextTop.left + 3, m_rctTextTop.top + 2, m_strTextXDate);

  005bc	83 c1 03	 add	 ecx, 3
; File C:\Program Files (x86)\Microsoft Visual Studio\2019\Community\VC\Tools\MSVC\14.29.30133\atlmfc\include\afxwin1.inl

; 574  : 	{ ASSERT(m_hDC != NULL); return TextOut(x, y, (LPCTSTR)str, (int)str.GetLength()); } // call virtual

  005bf	8b 12		 mov	 edx, DWORD PTR [edx]
  005c1	50		 push	 eax
  005c2	57		 push	 edi
  005c3	8b 7d 8c	 mov	 edi, DWORD PTR _pDC$1$[ebp]
  005c6	51		 push	 ecx
  005c7	8b cf		 mov	 ecx, edi
  005c9	ff 52 64	 call	 DWORD PTR [edx+100]
$LN25@DrawNewCro:
; File D:\git\src\IBK\IBK_DRFN\ProjSrc\SrcChartEx\ChartAddIn\ChartAnalysisToolAddIn\ChartAnalysisToolAddIn\CrosshairsToolAddInImp.cpp

; 514  : 	if(bBottomExist == true)

  005cc	80 bd 7c ff ff
	ff 01		 cmp	 BYTE PTR tv1647[ebp], 1
  005d3	75 42		 jne	 SHORT $LN26@DrawNewCro
; File C:\Program Files (x86)\Microsoft Visual Studio\2019\Community\VC\Tools\MSVC\14.29.30133\atlmfc\include\afxwin1.inl

; 541  : 	{ ASSERT(m_hDC != NULL); return ::Rectangle(m_hDC, lpRect->left, lpRect->top,

  005d5	ff b3 c0 00 00
	00		 push	 DWORD PTR [ebx+192]
  005db	ff b3 bc 00 00
	00		 push	 DWORD PTR [ebx+188]
  005e1	ff b3 b8 00 00
	00		 push	 DWORD PTR [ebx+184]
  005e7	ff b3 b4 00 00
	00		 push	 DWORD PTR [ebx+180]
  005ed	ff 77 04	 push	 DWORD PTR [edi+4]
  005f0	ff 15 00 00 00
	00		 call	 DWORD PTR __imp__Rectangle@20
; File C:\Program Files (x86)\Microsoft Visual Studio\2019\Community\VC\Tools\MSVC\14.29.30133\atlmfc\include\atlsimpstr.h

; 519  : 		return( GetData()->nDataLength );

  005f6	8b 83 c4 00 00
	00		 mov	 eax, DWORD PTR [ebx+196]
; File D:\git\src\IBK\IBK_DRFN\ProjSrc\SrcChartEx\ChartAddIn\ChartAnalysisToolAddIn\ChartAnalysisToolAddIn\CrosshairsToolAddInImp.cpp

; 517  : 		pDC->TextOut( m_rctTextBottom.left + 3, m_rctTextBottom.top/* + 2*/, m_strTextXDate);

  005fc	8b 8b b4 00 00
	00		 mov	 ecx, DWORD PTR [ebx+180]
; File C:\Program Files (x86)\Microsoft Visual Studio\2019\Community\VC\Tools\MSVC\14.29.30133\atlmfc\include\afxwin1.inl

; 574  : 	{ ASSERT(m_hDC != NULL); return TextOut(x, y, (LPCTSTR)str, (int)str.GetLength()); } // call virtual

  00602	8b 17		 mov	 edx, DWORD PTR [edi]
; File D:\git\src\IBK\IBK_DRFN\ProjSrc\SrcChartEx\ChartAddIn\ChartAnalysisToolAddIn\ChartAnalysisToolAddIn\CrosshairsToolAddInImp.cpp

; 517  : 		pDC->TextOut( m_rctTextBottom.left + 3, m_rctTextBottom.top/* + 2*/, m_strTextXDate);

  00604	83 c1 03	 add	 ecx, 3
; File C:\Program Files (x86)\Microsoft Visual Studio\2019\Community\VC\Tools\MSVC\14.29.30133\atlmfc\include\afxwin1.inl

; 574  : 	{ ASSERT(m_hDC != NULL); return TextOut(x, y, (LPCTSTR)str, (int)str.GetLength()); } // call virtual

  00607	ff 70 f4	 push	 DWORD PTR [eax-12]
  0060a	50		 push	 eax
  0060b	ff b3 b8 00 00
	00		 push	 DWORD PTR [ebx+184]
  00611	51		 push	 ecx
  00612	8b cf		 mov	 ecx, edi
  00614	ff 52 64	 call	 DWORD PTR [edx+100]
$LN26@DrawNewCro:
; File D:\git\src\IBK\IBK_DRFN\ProjSrc\SrcChartEx\ChartAddIn\ChartAnalysisToolAddIn\ChartAnalysisToolAddIn\CrosshairsToolAddInImp.cpp

; 520  : 	pDC->SelectObject( pOldBrush);

  00617	ff b5 6c ff ff
	ff		 push	 DWORD PTR _pOldBrush$1$[ebp]
  0061d	8b cf		 mov	 ecx, edi
  0061f	e8 00 00 00 00	 call	 ?SelectObject@CDC@@QAEPAVCBrush@@PAV2@@Z ; CDC::SelectObject

; 521  : 	pDC->SelectObject( pOldPen);

  00624	ff b5 78 ff ff
	ff		 push	 DWORD PTR _pOldPen$1$[ebp]
  0062a	8b cf		 mov	 ecx, edi
  0062c	e8 00 00 00 00	 call	 ?SelectObject@CDC@@QAEPAVCPen@@PAV2@@Z ; CDC::SelectObject
$LN29@DrawNewCro:
; File D:\git\src\IBK\IBK_DRFN\ProjSrc\SrcChartEx\ChartAddIn\ChartAnalysisToolAddIn\Include_Chart\Dll_Load\IMetaTable.h

; 1038 : 	{

  00631	c7 45 fc 02 00
	00 00		 mov	 DWORD PTR __$EHRec$[ebp+8], 2
; File C:\Program Files (x86)\Microsoft Visual Studio\2019\Community\VC\Tools\MSVC\14.29.30133\atlmfc\include\afxwin1.inl

; 27   : 	{ ASSERT(hInstResource != NULL); afxCurrentResourceHandle = hInstResource; }

  00638	e8 00 00 00 00	 call	 ?AfxGetModuleState@@YGPAVAFX_MODULE_STATE@@XZ ; AfxGetModuleState
  0063d	89 70 0c	 mov	 DWORD PTR [eax+12], esi
; File D:\git\src\IBK\IBK_DRFN\ProjSrc\SrcChartEx\ChartAddIn\ChartAnalysisToolAddIn\ChartAnalysisToolAddIn\CrosshairsToolAddInImp.cpp

; 522  : }

  00640	8b 4d f4	 mov	 ecx, DWORD PTR __$EHRec$[ebp]
  00643	64 89 0d 00 00
	00 00		 mov	 DWORD PTR fs:0, ecx
  0064a	59		 pop	 ecx
  0064b	5f		 pop	 edi
  0064c	5e		 pop	 esi
  0064d	5b		 pop	 ebx
  0064e	8b 4d f0	 mov	 ecx, DWORD PTR __$ArrayPad$[ebp]
  00651	33 cd		 xor	 ecx, ebp
  00653	e8 00 00 00 00	 call	 @__security_check_cookie@4
  00658	8b e5		 mov	 esp, ebp
  0065a	5d		 pop	 ebp
  0065b	c2 04 00	 ret	 4
_TEXT	ENDS
;	COMDAT text$x
text$x	SEGMENT
__unwindfunclet$?DrawNewCross@CCrosshairsToolAddInImp@@AAEXPAUHDC__@@@Z$0:
  00000	8d 8d 64 ff ff
	ff		 lea	 ecx, DWORD PTR ___mlrs__$[ebp]
  00006	e9 00 00 00 00	 jmp	 ??1CMultiLanguageResourceSetter@@QAE@XZ ; CMultiLanguageResourceSetter::~CMultiLanguageResourceSetter
  0000b	cc		 int	 3
  0000c	cc		 int	 3
  0000d	cc		 int	 3
  0000e	cc		 int	 3
  0000f	cc		 int	 3
__ehhandler$?DrawNewCross@CCrosshairsToolAddInImp@@AAEXPAUHDC__@@@Z:
  00010	90		 npad	 1
  00011	90		 npad	 1
  00012	8b 54 24 08	 mov	 edx, DWORD PTR [esp+8]
  00016	8d 42 0c	 lea	 eax, DWORD PTR [edx+12]
  00019	8b 8a 58 ff ff
	ff		 mov	 ecx, DWORD PTR [edx-168]
  0001f	33 c8		 xor	 ecx, eax
  00021	e8 00 00 00 00	 call	 @__security_check_cookie@4
  00026	8b 4a fc	 mov	 ecx, DWORD PTR [edx-4]
  00029	33 c8		 xor	 ecx, eax
  0002b	e8 00 00 00 00	 call	 @__security_check_cookie@4
  00030	b8 00 00 00 00	 mov	 eax, OFFSET __ehfuncinfo$?DrawNewCross@CCrosshairsToolAddInImp@@AAEXPAUHDC__@@@Z
  00035	e9 00 00 00 00	 jmp	 ___CxxFrameHandler3
text$x	ENDS
?DrawNewCross@CCrosshairsToolAddInImp@@AAEXPAUHDC__@@@Z ENDP ; CCrosshairsToolAddInImp::DrawNewCross
; Function compile flags: /Ogtp
; File D:\git\src\IBK\IBK_DRFN\ProjSrc\SrcChartEx\ChartAddIn\ChartAnalysisToolAddIn\ChartAnalysisToolAddIn\CrosshairsToolAddInImp.h
;	COMDAT ?GetRegisteredEventMap@CCrosshairsToolAddInImp@@MBEPBW4EAddInEventType@IChartAddIn133101@@XZ
_TEXT	SEGMENT
?GetRegisteredEventMap@CCrosshairsToolAddInImp@@MBEPBW4EAddInEventType@IChartAddIn133101@@XZ PROC ; CCrosshairsToolAddInImp::GetRegisteredEventMap, COMDAT
; _this$ = ecx

; 39   : 	DECLARE_ADDIN_EVENT_MAP()

  00000	b8 00 00 00 00	 mov	 eax, OFFSET ?m_eRegisteredEventMap@CCrosshairsToolAddInImp@@1QBW4EAddInEventType@IChartAddIn133101@@B ; CCrosshairsToolAddInImp::m_eRegisteredEventMap
  00005	c3		 ret	 0
?GetRegisteredEventMap@CCrosshairsToolAddInImp@@MBEPBW4EAddInEventType@IChartAddIn133101@@XZ ENDP ; CCrosshairsToolAddInImp::GetRegisteredEventMap
_TEXT	ENDS
; Function compile flags: /Ogtp
; File D:\git\src\IBK\IBK_DRFN\ProjSrc\SrcChartEx\ChartAddIn\ChartAnalysisToolAddIn\ChartAnalysisToolAddIn\CrosshairsToolAddInImp.cpp
; File C:\Program Files (x86)\Microsoft Visual Studio\2019\Community\VC\Tools\MSVC\14.29.30133\atlmfc\include\afxwin1.inl
; File D:\git\src\IBK\IBK_DRFN\ProjSrc\SrcChartEx\ChartAddIn\ChartAnalysisToolAddIn\ChartAnalysisToolAddIn\CrosshairsToolAddInImp.cpp
;	COMDAT ??1CCrosshairsToolAddInImp@@UAE@XZ
_TEXT	SEGMENT
__$EHRec$ = -12						; size = 12
??1CCrosshairsToolAddInImp@@UAE@XZ PROC			; CCrosshairsToolAddInImp::~CCrosshairsToolAddInImp, COMDAT
; _this$ = ecx

; 60   : {

  00000	55		 push	 ebp
  00001	8b ec		 mov	 ebp, esp
  00003	6a ff		 push	 -1
  00005	68 00 00 00 00	 push	 __ehhandler$??1CCrosshairsToolAddInImp@@UAE@XZ
  0000a	64 a1 00 00 00
	00		 mov	 eax, DWORD PTR fs:0
  00010	50		 push	 eax
  00011	56		 push	 esi
  00012	57		 push	 edi
  00013	a1 00 00 00 00	 mov	 eax, DWORD PTR ___security_cookie
  00018	33 c5		 xor	 eax, ebp
  0001a	50		 push	 eax
  0001b	8d 45 f4	 lea	 eax, DWORD PTR __$EHRec$[ebp]
  0001e	64 a3 00 00 00
	00		 mov	 DWORD PTR fs:0, eax
  00024	8b f1		 mov	 esi, ecx

; 61   : 	m_penLine.DeleteObject();

  00026	8d 8e d0 00 00
	00		 lea	 ecx, DWORD PTR [esi+208]
  0002c	c7 06 00 00 00
	00		 mov	 DWORD PTR [esi], OFFSET ??_7CCrosshairsToolAddInImp@@6BCIWUnknown@@@
  00032	c7 46 08 00 00
	00 00		 mov	 DWORD PTR [esi+8], OFFSET ??_7CCrosshairsToolAddInImp@@6BIChartAddIn133101@@@
  00039	e8 00 00 00 00	 call	 ?DeleteObject@CGdiObject@@QAEHXZ ; CGdiObject::DeleteObject

; 62   : 
; 63   : 	if( m_pAnalysisTool)

  0003e	8b 4e 40	 mov	 ecx, DWORD PTR [esi+64]
  00041	85 c9		 test	 ecx, ecx
  00043	74 0d		 je	 SHORT $LN2@CCrosshair

; 64   : 	{
; 65   : 		delete m_pAnalysisTool;

  00045	8b 01		 mov	 eax, DWORD PTR [ecx]
  00047	6a 01		 push	 1
  00049	ff 10		 call	 DWORD PTR [eax]

; 66   : 		m_pAnalysisTool = NULL;

  0004b	c7 46 40 00 00
	00 00		 mov	 DWORD PTR [esi+64], 0
$LN2@CCrosshair:
; File C:\Program Files (x86)\Microsoft Visual Studio\2019\Community\VC\Tools\MSVC\14.29.30133\atlmfc\include\afxwin1.inl

; 106  : 	{ }

  00052	8d 8e d0 00 00
	00		 lea	 ecx, DWORD PTR [esi+208]
  00058	c7 86 d0 00 00
	00 00 00 00 00	 mov	 DWORD PTR [esi+208], OFFSET ??_7CPen@@6B@
  00062	e8 00 00 00 00	 call	 ??1CGdiObject@@UAE@XZ	; CGdiObject::~CGdiObject
; File D:\git\src\IBK\IBK_DRFN\ProjSrc\SrcChartEx\ChartAddIn\ChartAnalysisToolAddIn\ChartAnalysisToolAddIn\CrosshairsToolAddInImp.cpp

; 68   : }

  00067	8d 8e c8 00 00
	00		 lea	 ecx, DWORD PTR [esi+200]
  0006d	ff 15 00 00 00
	00		 call	 DWORD PTR __imp_??1?$CStringT@DV?$StrTraitMFC_DLL@DV?$ChTraitsCRT@D@ATL@@@@@ATL@@QAE@XZ
  00073	8d 8e c4 00 00
	00		 lea	 ecx, DWORD PTR [esi+196]
  00079	ff 15 00 00 00
	00		 call	 DWORD PTR __imp_??1?$CStringT@DV?$StrTraitMFC_DLL@DV?$ChTraitsCRT@D@ATL@@@@@ATL@@QAE@XZ
  0007f	8b ce		 mov	 ecx, esi
  00081	e8 00 00 00 00	 call	 ??1CChartAddInBase133101@@MAE@XZ ; CChartAddInBase133101::~CChartAddInBase133101
  00086	8b 4d f4	 mov	 ecx, DWORD PTR __$EHRec$[ebp]
  00089	64 89 0d 00 00
	00 00		 mov	 DWORD PTR fs:0, ecx
  00090	59		 pop	 ecx
  00091	5f		 pop	 edi
  00092	5e		 pop	 esi
  00093	8b e5		 mov	 esp, ebp
  00095	5d		 pop	 ebp
  00096	c3		 ret	 0
  00097	cc		 int	 3
  00098	cc		 int	 3
  00099	cc		 int	 3
  0009a	cc		 int	 3
  0009b	cc		 int	 3
_TEXT	ENDS
;	COMDAT text$x
text$x	SEGMENT
__ehhandler$??1CCrosshairsToolAddInImp@@UAE@XZ:
  00000	90		 npad	 1
  00001	90		 npad	 1
  00002	8b 54 24 08	 mov	 edx, DWORD PTR [esp+8]
  00006	8d 42 0c	 lea	 eax, DWORD PTR [edx+12]
  00009	8b 4a f4	 mov	 ecx, DWORD PTR [edx-12]
  0000c	33 c8		 xor	 ecx, eax
  0000e	e8 00 00 00 00	 call	 @__security_check_cookie@4
  00013	b8 00 00 00 00	 mov	 eax, OFFSET __ehfuncinfo$??1CCrosshairsToolAddInImp@@UAE@XZ
  00018	e9 00 00 00 00	 jmp	 ___CxxFrameHandler3
text$x	ENDS
??1CCrosshairsToolAddInImp@@UAE@XZ ENDP			; CCrosshairsToolAddInImp::~CCrosshairsToolAddInImp
; Function compile flags: /Ogtp
; File D:\git\src\IBK\IBK_DRFN\ProjSrc\SrcChartEx\ChartAddIn\ChartAnalysisToolAddIn\ChartAnalysisToolAddIn\CrosshairsToolAddInImp.cpp
; File C:\Program Files (x86)\Microsoft Visual Studio\2019\Community\VC\Tools\MSVC\14.29.30133\atlmfc\include\atltypes.h
; File D:\git\src\IBK\IBK_DRFN\ProjSrc\SrcChartEx\ChartAddIn\ChartAnalysisToolAddIn\ChartAnalysisToolAddIn\CrosshairsToolAddInImp.cpp
; File C:\Program Files (x86)\Microsoft Visual Studio\2019\Community\VC\Tools\MSVC\14.29.30133\atlmfc\include\atltypes.h
; File D:\git\src\IBK\IBK_DRFN\ProjSrc\SrcChartEx\ChartAddIn\ChartAnalysisToolAddIn\ChartAnalysisToolAddIn\CrosshairsToolAddInImp.cpp
; File C:\Program Files (x86)\Microsoft Visual Studio\2019\Community\VC\Tools\MSVC\14.29.30133\atlmfc\include\afxwin1.inl
; File D:\git\src\IBK\IBK_DRFN\ProjSrc\SrcChartEx\ChartAddIn\ChartAnalysisToolAddIn\ChartAnalysisToolAddIn\CrosshairsToolAddInImp.cpp
; File C:\Program Files (x86)\Microsoft Visual Studio\2019\Community\VC\Tools\MSVC\14.29.30133\atlmfc\include\afxwin2.inl
; File D:\git\src\IBK\IBK_DRFN\ProjSrc\SrcChartEx\ChartAddIn\ChartAnalysisToolAddIn\ChartAnalysisToolAddIn\CrosshairsToolAddInImp.cpp
; File C:\Program Files (x86)\Microsoft Visual Studio\2019\Community\VC\Tools\MSVC\14.29.30133\atlmfc\include\afxwin1.inl
; File D:\git\src\IBK\IBK_DRFN\ProjSrc\SrcChartEx\ChartAddIn\ChartAnalysisToolAddIn\ChartAnalysisToolAddIn\CrosshairsToolAddInImp.cpp
; File C:\Program Files (x86)\Microsoft Visual Studio\2019\Community\VC\Tools\MSVC\14.29.30133\atlmfc\include\afxwin1.inl
; File D:\git\src\IBK\IBK_DRFN\ProjSrc\SrcChartEx\ChartAddIn\ChartAnalysisToolAddIn\ChartAnalysisToolAddIn\CrosshairsToolAddInImp.cpp
;	COMDAT ??0CCrosshairsToolAddInImp@@QAE@PAUIChartOCX133101@@PAUIAddInDllBase@@@Z
_TEXT	SEGMENT
_this$ = -16						; size = 4
__$EHRec$ = -12						; size = 12
_p_pIChartOCX$ = 8					; size = 4
$T2 = 12						; size = 4
_p_pIAddInDllBase$ = 12					; size = 4
??0CCrosshairsToolAddInImp@@QAE@PAUIChartOCX133101@@PAUIAddInDllBase@@@Z PROC ; CCrosshairsToolAddInImp::CCrosshairsToolAddInImp, COMDAT
; _this$ = ecx

; 28   : {

  00000	55		 push	 ebp
  00001	8b ec		 mov	 ebp, esp
  00003	6a ff		 push	 -1
  00005	68 00 00 00 00	 push	 __ehhandler$??0CCrosshairsToolAddInImp@@QAE@PAUIChartOCX133101@@PAUIAddInDllBase@@@Z
  0000a	64 a1 00 00 00
	00		 mov	 eax, DWORD PTR fs:0
  00010	50		 push	 eax
  00011	51		 push	 ecx
  00012	56		 push	 esi
  00013	57		 push	 edi
  00014	a1 00 00 00 00	 mov	 eax, DWORD PTR ___security_cookie
  00019	33 c5		 xor	 eax, ebp
  0001b	50		 push	 eax
  0001c	8d 45 f4	 lea	 eax, DWORD PTR __$EHRec$[ebp]
  0001f	64 a3 00 00 00
	00		 mov	 DWORD PTR fs:0, eax
  00025	8b f1		 mov	 esi, ecx
  00027	89 75 f0	 mov	 DWORD PTR _this$[ebp], esi

; 27   : 	: CChartAddInBase( p_pIChartOCX, p_pIAddInDllBase)

  0002a	ff 75 0c	 push	 DWORD PTR _p_pIAddInDllBase$[ebp]
  0002d	ff 75 08	 push	 DWORD PTR _p_pIChartOCX$[ebp]
  00030	e8 00 00 00 00	 call	 ??0CChartAddInBase133101@@IAE@PAUIChartOCX133101@@PAUIAddInDllBase@@@Z ; CChartAddInBase133101::CChartAddInBase133101

; 28   : {

  00035	c7 06 00 00 00
	00		 mov	 DWORD PTR [esi], OFFSET ??_7CCrosshairsToolAddInImp@@6BCIWUnknown@@@
  0003b	8d 8e c4 00 00
	00		 lea	 ecx, DWORD PTR [esi+196]
  00041	c7 46 08 00 00
	00 00		 mov	 DWORD PTR [esi+8], OFFSET ??_7CCrosshairsToolAddInImp@@6BIChartAddIn133101@@@
; File C:\Program Files (x86)\Microsoft Visual Studio\2019\Community\VC\Tools\MSVC\14.29.30133\atlmfc\include\atltypes.h

; 528  : 	left = 0;

  00048	c7 46 54 00 00
	00 00		 mov	 DWORD PTR [esi+84], 0

; 529  : 	top = 0;

  0004f	c7 46 58 00 00
	00 00		 mov	 DWORD PTR [esi+88], 0

; 530  : 	right = 0;

  00056	c7 46 5c 00 00
	00 00		 mov	 DWORD PTR [esi+92], 0

; 531  : 	bottom = 0;

  0005d	c7 46 60 00 00
	00 00		 mov	 DWORD PTR [esi+96], 0

; 528  : 	left = 0;

  00064	c7 46 64 00 00
	00 00		 mov	 DWORD PTR [esi+100], 0

; 529  : 	top = 0;

  0006b	c7 46 68 00 00
	00 00		 mov	 DWORD PTR [esi+104], 0

; 530  : 	right = 0;

  00072	c7 46 6c 00 00
	00 00		 mov	 DWORD PTR [esi+108], 0

; 531  : 	bottom = 0;

  00079	c7 46 70 00 00
	00 00		 mov	 DWORD PTR [esi+112], 0

; 400  : 	x = 0;

  00080	c7 46 7c 00 00
	00 00		 mov	 DWORD PTR [esi+124], 0

; 401  : 	y = 0;

  00087	c7 86 80 00 00
	00 00 00 00 00	 mov	 DWORD PTR [esi+128], 0

; 528  : 	left = 0;

  00091	c7 86 84 00 00
	00 00 00 00 00	 mov	 DWORD PTR [esi+132], 0

; 529  : 	top = 0;

  0009b	c7 86 88 00 00
	00 00 00 00 00	 mov	 DWORD PTR [esi+136], 0

; 530  : 	right = 0;

  000a5	c7 86 8c 00 00
	00 00 00 00 00	 mov	 DWORD PTR [esi+140], 0

; 531  : 	bottom = 0;

  000af	c7 86 90 00 00
	00 00 00 00 00	 mov	 DWORD PTR [esi+144], 0

; 528  : 	left = 0;

  000b9	c7 86 94 00 00
	00 00 00 00 00	 mov	 DWORD PTR [esi+148], 0

; 529  : 	top = 0;

  000c3	c7 86 98 00 00
	00 00 00 00 00	 mov	 DWORD PTR [esi+152], 0

; 530  : 	right = 0;

  000cd	c7 86 9c 00 00
	00 00 00 00 00	 mov	 DWORD PTR [esi+156], 0

; 531  : 	bottom = 0;

  000d7	c7 86 a0 00 00
	00 00 00 00 00	 mov	 DWORD PTR [esi+160], 0

; 528  : 	left = 0;

  000e1	c7 86 a4 00 00
	00 00 00 00 00	 mov	 DWORD PTR [esi+164], 0

; 529  : 	top = 0;

  000eb	c7 86 a8 00 00
	00 00 00 00 00	 mov	 DWORD PTR [esi+168], 0

; 530  : 	right = 0;

  000f5	c7 86 ac 00 00
	00 00 00 00 00	 mov	 DWORD PTR [esi+172], 0

; 531  : 	bottom = 0;

  000ff	c7 86 b0 00 00
	00 00 00 00 00	 mov	 DWORD PTR [esi+176], 0
; File D:\git\src\IBK\IBK_DRFN\ProjSrc\SrcChartEx\ChartAddIn\ChartAnalysisToolAddIn\ChartAnalysisToolAddIn\CrosshairsToolAddInImp.cpp

; 27   : 	: CChartAddInBase( p_pIChartOCX, p_pIAddInDllBase)

  00109	c7 45 fc 00 00
	00 00		 mov	 DWORD PTR __$EHRec$[ebp+8], 0
; File C:\Program Files (x86)\Microsoft Visual Studio\2019\Community\VC\Tools\MSVC\14.29.30133\atlmfc\include\atltypes.h

; 528  : 	left = 0;

  00110	c7 86 b4 00 00
	00 00 00 00 00	 mov	 DWORD PTR [esi+180], 0

; 529  : 	top = 0;

  0011a	c7 86 b8 00 00
	00 00 00 00 00	 mov	 DWORD PTR [esi+184], 0

; 530  : 	right = 0;

  00124	c7 86 bc 00 00
	00 00 00 00 00	 mov	 DWORD PTR [esi+188], 0

; 531  : 	bottom = 0;

  0012e	c7 86 c0 00 00
	00 00 00 00 00	 mov	 DWORD PTR [esi+192], 0
; File D:\git\src\IBK\IBK_DRFN\ProjSrc\SrcChartEx\ChartAddIn\ChartAnalysisToolAddIn\ChartAnalysisToolAddIn\CrosshairsToolAddInImp.cpp

; 28   : {

  00138	ff 15 00 00 00
	00		 call	 DWORD PTR __imp_??0?$CStringT@DV?$StrTraitMFC_DLL@DV?$ChTraitsCRT@D@ATL@@@@@ATL@@QAE@XZ
  0013e	8d 8e c8 00 00
	00		 lea	 ecx, DWORD PTR [esi+200]
  00144	ff 15 00 00 00
	00		 call	 DWORD PTR __imp_??0?$CStringT@DV?$StrTraitMFC_DLL@DV?$ChTraitsCRT@D@ATL@@@@@ATL@@QAE@XZ
; File C:\Program Files (x86)\Microsoft Visual Studio\2019\Community\VC\Tools\MSVC\14.29.30133\atlmfc\include\afxwin1.inl

; 70   : 	{ m_hObject = NULL; }

  0014a	c7 86 d4 00 00
	00 00 00 00 00	 mov	 DWORD PTR [esi+212], 0

; 104  : 	{ }

  00154	c7 86 d0 00 00
	00 00 00 00 00	 mov	 DWORD PTR [esi+208], OFFSET ??_7CPen@@6B@
; File D:\git\src\IBK\IBK_DRFN\ProjSrc\SrcChartEx\ChartAddIn\ChartAnalysisToolAddIn\ChartAnalysisToolAddIn\CrosshairsToolAddInImp.cpp

; 30   : 	m_pAnalysisTool = new CMainAnalysisTool( m_pChartCWnd, p_pIChartOCX->GetOcxHwnd(), ( CChartInfo::CHART_MODE)p_pIChartOCX->GetChartMode());

  0015e	6a 10		 push	 16			; 00000010H
  00160	c6 45 fc 03	 mov	 BYTE PTR __$EHRec$[ebp+8], 3
  00164	e8 00 00 00 00	 call	 ??2@YAPAXI@Z		; operator new
  00169	8b f8		 mov	 edi, eax
  0016b	83 c4 04	 add	 esp, 4
  0016e	89 7d 0c	 mov	 DWORD PTR $T2[ebp], edi
  00171	c6 45 fc 04	 mov	 BYTE PTR __$EHRec$[ebp+8], 4
  00175	85 ff		 test	 edi, edi
  00177	74 2c		 je	 SHORT $LN3@CCrosshair
  00179	8b 4d 08	 mov	 ecx, DWORD PTR _p_pIChartOCX$[ebp]
  0017c	8b 01		 mov	 eax, DWORD PTR [ecx]
  0017e	8b 80 5c 02 00
	00		 mov	 eax, DWORD PTR [eax+604]
  00184	ff d0		 call	 eax
  00186	8b 4d 08	 mov	 ecx, DWORD PTR _p_pIChartOCX$[ebp]
  00189	50		 push	 eax
  0018a	8b 01		 mov	 eax, DWORD PTR [ecx]
  0018c	8b 40 40	 mov	 eax, DWORD PTR [eax+64]
  0018f	ff d0		 call	 eax
  00191	50		 push	 eax
  00192	ff 76 10	 push	 DWORD PTR [esi+16]
  00195	8b cf		 mov	 ecx, edi
  00197	ff 15 00 00 00
	00		 call	 DWORD PTR __imp_??0CMainAnalysisTool@@QAE@PAVCWnd@@PAUHWND__@@W4CHART_MODE@CChartInfo@@@Z
  0019d	c7 07 00 00 00
	00		 mov	 DWORD PTR [edi], OFFSET ??_SCMainAnalysisTool@@6B@
  001a3	eb 02		 jmp	 SHORT $LN4@CCrosshair
$LN3@CCrosshair:
  001a5	33 ff		 xor	 edi, edi
$LN4@CCrosshair:

; 31   : 	// update ver 1.2 -> 11.5.2001
; 32   : 	m_pAnalysisTool->SetMainBlock( m_pIChartManager, p_pIChartOCX);

  001a7	ff 75 08	 push	 DWORD PTR _p_pIChartOCX$[ebp]
  001aa	8b cf		 mov	 ecx, edi
  001ac	c6 45 fc 03	 mov	 BYTE PTR __$EHRec$[ebp+8], 3
  001b0	ff 76 28	 push	 DWORD PTR [esi+40]
  001b3	89 7e 40	 mov	 DWORD PTR [esi+64], edi
  001b6	ff 15 00 00 00
	00		 call	 DWORD PTR __imp_?SetMainBlock@CMainAnalysisTool@@QAEXPAUIChartManager133101@@PAUIChartOCX133101@@@Z

; 54   : 	m_hOcxWnd = ( m_pChartCWnd ? m_pChartCWnd->GetSafeHwnd() : NULL);

  001bc	8b 46 10	 mov	 eax, DWORD PTR [esi+16]
  001bf	0f 57 c0	 xorps	 xmm0, xmm0
  001c2	c7 46 44 00 00
	00 00		 mov	 DWORD PTR [esi+68], 0
  001c9	c7 46 50 00 00
	00 00		 mov	 DWORD PTR [esi+80], 0
  001d0	c7 46 48 00 00
	00 00		 mov	 DWORD PTR [esi+72], 0
  001d7	c7 46 4c 00 00
	00 00		 mov	 DWORD PTR [esi+76], 0
  001de	c7 46 78 00 00
	00 00		 mov	 DWORD PTR [esi+120], 0
  001e5	c7 46 7c 00 00
	00 00		 mov	 DWORD PTR [esi+124], 0
  001ec	c7 86 80 00 00
	00 00 00 00 00	 mov	 DWORD PTR [esi+128], 0
  001f6	0f 11 46 54	 movups	 XMMWORD PTR [esi+84], xmm0
  001fa	0f 11 46 64	 movups	 XMMWORD PTR [esi+100], xmm0
  001fe	0f 11 86 84 00
	00 00		 movups	 XMMWORD PTR [esi+132], xmm0
  00205	0f 11 86 94 00
	00 00		 movups	 XMMWORD PTR [esi+148], xmm0
  0020c	0f 11 86 a4 00
	00 00		 movups	 XMMWORD PTR [esi+164], xmm0
  00213	0f 11 86 b4 00
	00 00		 movups	 XMMWORD PTR [esi+180], xmm0
  0021a	85 c0		 test	 eax, eax
  0021c	74 05		 je	 SHORT $LN5@CCrosshair
; File C:\Program Files (x86)\Microsoft Visual Studio\2019\Community\VC\Tools\MSVC\14.29.30133\atlmfc\include\afxwin2.inl

; 25   : 	{ return this == NULL ? NULL : m_hWnd; }

  0021e	8b 40 20	 mov	 eax, DWORD PTR [eax+32]
; File D:\git\src\IBK\IBK_DRFN\ProjSrc\SrcChartEx\ChartAddIn\ChartAnalysisToolAddIn\ChartAnalysisToolAddIn\CrosshairsToolAddInImp.cpp

; 54   : 	m_hOcxWnd = ( m_pChartCWnd ? m_pChartCWnd->GetSafeHwnd() : NULL);

  00221	eb 02		 jmp	 SHORT $LN6@CCrosshair
$LN5@CCrosshair:
  00223	33 c0		 xor	 eax, eax
$LN6@CCrosshair:
; File C:\Program Files (x86)\Microsoft Visual Studio\2019\Community\VC\Tools\MSVC\14.29.30133\atlmfc\include\afxwin1.inl

; 108  : 	{ return Attach(::CreatePen(nPenStyle, nWidth, crColor)); }

  00225	68 ff 00 00 00	 push	 255			; 000000ffH
  0022a	6a 01		 push	 1
  0022c	6a 00		 push	 0
; File D:\git\src\IBK\IBK_DRFN\ProjSrc\SrcChartEx\ChartAddIn\ChartAnalysisToolAddIn\ChartAnalysisToolAddIn\CrosshairsToolAddInImp.cpp

; 54   : 	m_hOcxWnd = ( m_pChartCWnd ? m_pChartCWnd->GetSafeHwnd() : NULL);

  0022e	89 86 cc 00 00
	00		 mov	 DWORD PTR [esi+204], eax
; File C:\Program Files (x86)\Microsoft Visual Studio\2019\Community\VC\Tools\MSVC\14.29.30133\atlmfc\include\afxwin1.inl

; 108  : 	{ return Attach(::CreatePen(nPenStyle, nWidth, crColor)); }

  00234	ff 15 00 00 00
	00		 call	 DWORD PTR __imp__CreatePen@12
  0023a	50		 push	 eax
  0023b	8d 8e d0 00 00
	00		 lea	 ecx, DWORD PTR [esi+208]
  00241	e8 00 00 00 00	 call	 ?Attach@CGdiObject@@QAEHPAX@Z ; CGdiObject::Attach
; File D:\git\src\IBK\IBK_DRFN\ProjSrc\SrcChartEx\ChartAddIn\ChartAnalysisToolAddIn\ChartAnalysisToolAddIn\CrosshairsToolAddInImp.cpp

; 57   : }

  00246	8b c6		 mov	 eax, esi
  00248	8b 4d f4	 mov	 ecx, DWORD PTR __$EHRec$[ebp]
  0024b	64 89 0d 00 00
	00 00		 mov	 DWORD PTR fs:0, ecx
  00252	59		 pop	 ecx
  00253	5f		 pop	 edi
  00254	5e		 pop	 esi
  00255	8b e5		 mov	 esp, ebp
  00257	5d		 pop	 ebp
  00258	c2 08 00	 ret	 8
_TEXT	ENDS
;	COMDAT text$x
text$x	SEGMENT
__unwindfunclet$??0CCrosshairsToolAddInImp@@QAE@PAUIChartOCX133101@@PAUIAddInDllBase@@@Z$0:
  00000	8b 4d f0	 mov	 ecx, DWORD PTR _this$[ebp]
  00003	e9 00 00 00 00	 jmp	 ??1CChartAddInBase133101@@MAE@XZ ; CChartAddInBase133101::~CChartAddInBase133101
__unwindfunclet$??0CCrosshairsToolAddInImp@@QAE@PAUIChartOCX133101@@PAUIAddInDllBase@@@Z$1:
  00008	8b 4d f0	 mov	 ecx, DWORD PTR _this$[ebp]
  0000b	81 c1 c4 00 00
	00		 add	 ecx, 196		; 000000c4H
  00011	ff 25 00 00 00
	00		 jmp	 DWORD PTR __imp_??1?$CStringT@DV?$StrTraitMFC_DLL@DV?$ChTraitsCRT@D@ATL@@@@@ATL@@QAE@XZ
__unwindfunclet$??0CCrosshairsToolAddInImp@@QAE@PAUIChartOCX133101@@PAUIAddInDllBase@@@Z$2:
  00017	8b 4d f0	 mov	 ecx, DWORD PTR _this$[ebp]
  0001a	81 c1 c8 00 00
	00		 add	 ecx, 200		; 000000c8H
  00020	ff 25 00 00 00
	00		 jmp	 DWORD PTR __imp_??1?$CStringT@DV?$StrTraitMFC_DLL@DV?$ChTraitsCRT@D@ATL@@@@@ATL@@QAE@XZ
__unwindfunclet$??0CCrosshairsToolAddInImp@@QAE@PAUIChartOCX133101@@PAUIAddInDllBase@@@Z$3:
  00026	8b 4d f0	 mov	 ecx, DWORD PTR _this$[ebp]
  00029	81 c1 d0 00 00
	00		 add	 ecx, 208		; 000000d0H
  0002f	e9 00 00 00 00	 jmp	 ??1CPen@@UAE@XZ		; CPen::~CPen
__unwindfunclet$??0CCrosshairsToolAddInImp@@QAE@PAUIChartOCX133101@@PAUIAddInDllBase@@@Z$4:
  00034	6a 10		 push	 16			; 00000010H
  00036	8b 45 0c	 mov	 eax, DWORD PTR $T2[ebp]
  00039	50		 push	 eax
  0003a	e8 00 00 00 00	 call	 ??3@YAXPAXI@Z		; operator delete
  0003f	83 c4 08	 add	 esp, 8
  00042	c3		 ret	 0
  00043	cc		 int	 3
  00044	cc		 int	 3
  00045	cc		 int	 3
  00046	cc		 int	 3
  00047	cc		 int	 3
__ehhandler$??0CCrosshairsToolAddInImp@@QAE@PAUIChartOCX133101@@PAUIAddInDllBase@@@Z:
  00048	90		 npad	 1
  00049	90		 npad	 1
  0004a	8b 54 24 08	 mov	 edx, DWORD PTR [esp+8]
  0004e	8d 42 0c	 lea	 eax, DWORD PTR [edx+12]
  00051	8b 4a f0	 mov	 ecx, DWORD PTR [edx-16]
  00054	33 c8		 xor	 ecx, eax
  00056	e8 00 00 00 00	 call	 @__security_check_cookie@4
  0005b	b8 00 00 00 00	 mov	 eax, OFFSET __ehfuncinfo$??0CCrosshairsToolAddInImp@@QAE@PAUIChartOCX133101@@PAUIAddInDllBase@@@Z
  00060	e9 00 00 00 00	 jmp	 ___CxxFrameHandler3
text$x	ENDS
??0CCrosshairsToolAddInImp@@QAE@PAUIChartOCX133101@@PAUIAddInDllBase@@@Z ENDP ; CCrosshairsToolAddInImp::CCrosshairsToolAddInImp
; Function compile flags: /Ogtp
; File D:\git\src\IBK\IBK_DRFN\ProjSrc\SrcChartEx\ChartAddIn\ChartAnalysisToolAddIn\Include_AddIn_133101\I133101\_ChartAddInBase.h
;	COMDAT ?OnRButtonDblClk@CChartAddInBase133101@@MAEHPAUHDC__@@IAAUtagPOINT@@K@Z
_TEXT	SEGMENT
_p_hDC$ = 8						; size = 4
_nFlags$ = 12						; size = 4
_point$ = 16						; size = 4
_p_dwMouseActionID$ = 20				; size = 4
?OnRButtonDblClk@CChartAddInBase133101@@MAEHPAUHDC__@@IAAUtagPOINT@@K@Z PROC ; CChartAddInBase133101::OnRButtonDblClk, COMDAT
; _this$ = ecx

; 215  : 	virtual BOOL	OnRButtonDblClk(	HDC p_hDC, UINT nFlags, POINT &point, const DWORD p_dwMouseActionID)									{	return FALSE;	}

  00000	33 c0		 xor	 eax, eax
  00002	c2 10 00	 ret	 16			; 00000010H
?OnRButtonDblClk@CChartAddInBase133101@@MAEHPAUHDC__@@IAAUtagPOINT@@K@Z ENDP ; CChartAddInBase133101::OnRButtonDblClk
_TEXT	ENDS
; Function compile flags: /Ogtp
; File D:\git\src\IBK\IBK_DRFN\ProjSrc\SrcChartEx\ChartAddIn\ChartAnalysisToolAddIn\Include_AddIn_133101\I133101\_ChartAddInBase.h
;	COMDAT ?OnRButtonUp@CChartAddInBase133101@@MAEHPAUHDC__@@IAAUtagPOINT@@K@Z
_TEXT	SEGMENT
_p_hDC$ = 8						; size = 4
_nFlags$ = 12						; size = 4
_point$ = 16						; size = 4
_p_dwMouseActionID$ = 20				; size = 4
?OnRButtonUp@CChartAddInBase133101@@MAEHPAUHDC__@@IAAUtagPOINT@@K@Z PROC ; CChartAddInBase133101::OnRButtonUp, COMDAT
; _this$ = ecx

; 214  : 	virtual BOOL	OnRButtonUp(		HDC p_hDC, UINT nFlags, POINT &point, const DWORD p_dwMouseActionID)									{	return FALSE;	}

  00000	33 c0		 xor	 eax, eax
  00002	c2 10 00	 ret	 16			; 00000010H
?OnRButtonUp@CChartAddInBase133101@@MAEHPAUHDC__@@IAAUtagPOINT@@K@Z ENDP ; CChartAddInBase133101::OnRButtonUp
_TEXT	ENDS
; Function compile flags: /Ogtp
; File D:\git\src\IBK\IBK_DRFN\ProjSrc\SrcChartEx\ChartAddIn\ChartAnalysisToolAddIn\Include_AddIn_133101\I133101\_ChartAddInBase.h
;	COMDAT ?OnRButtonDown@CChartAddInBase133101@@MAEHPAUHDC__@@IAAUtagPOINT@@K@Z
_TEXT	SEGMENT
_p_hDC$ = 8						; size = 4
_nFlags$ = 12						; size = 4
_point$ = 16						; size = 4
_p_dwMouseActionID$ = 20				; size = 4
?OnRButtonDown@CChartAddInBase133101@@MAEHPAUHDC__@@IAAUtagPOINT@@K@Z PROC ; CChartAddInBase133101::OnRButtonDown, COMDAT
; _this$ = ecx

; 213  : 	virtual BOOL	OnRButtonDown(		HDC p_hDC, UINT nFlags, POINT &point, const DWORD p_dwMouseActionID)									{	return FALSE;	}

  00000	33 c0		 xor	 eax, eax
  00002	c2 10 00	 ret	 16			; 00000010H
?OnRButtonDown@CChartAddInBase133101@@MAEHPAUHDC__@@IAAUtagPOINT@@K@Z ENDP ; CChartAddInBase133101::OnRButtonDown
_TEXT	ENDS
; Function compile flags: /Ogtp
; File D:\git\src\IBK\IBK_DRFN\ProjSrc\SrcChartEx\ChartAddIn\ChartAnalysisToolAddIn\Include_AddIn_133101\I133101\_ChartAddInBase.h
;	COMDAT ?OnLButtonDblClk@CChartAddInBase133101@@MAEHPAUHDC__@@IAAUtagPOINT@@K@Z
_TEXT	SEGMENT
_p_hDC$ = 8						; size = 4
_nFlags$ = 12						; size = 4
_point$ = 16						; size = 4
_p_dwMouseActionID$ = 20				; size = 4
?OnLButtonDblClk@CChartAddInBase133101@@MAEHPAUHDC__@@IAAUtagPOINT@@K@Z PROC ; CChartAddInBase133101::OnLButtonDblClk, COMDAT
; _this$ = ecx

; 212  : 	virtual BOOL	OnLButtonDblClk(	HDC p_hDC, UINT nFlags, POINT &point, const DWORD p_dwMouseActionID)									{	return FALSE;	}

  00000	33 c0		 xor	 eax, eax
  00002	c2 10 00	 ret	 16			; 00000010H
?OnLButtonDblClk@CChartAddInBase133101@@MAEHPAUHDC__@@IAAUtagPOINT@@K@Z ENDP ; CChartAddInBase133101::OnLButtonDblClk
_TEXT	ENDS
; Function compile flags: /Ogtp
; File D:\git\src\IBK\IBK_DRFN\ProjSrc\SrcChartEx\ChartAddIn\ChartAnalysisToolAddIn\Include_AddIn_133101\I133101\_ChartAddInBase.h
;	COMDAT ?OnLButtonUp@CChartAddInBase133101@@MAEHPAUHDC__@@IAAUtagPOINT@@K@Z
_TEXT	SEGMENT
_p_hDC$ = 8						; size = 4
_nFlags$ = 12						; size = 4
_point$ = 16						; size = 4
_p_dwMouseActionID$ = 20				; size = 4
?OnLButtonUp@CChartAddInBase133101@@MAEHPAUHDC__@@IAAUtagPOINT@@K@Z PROC ; CChartAddInBase133101::OnLButtonUp, COMDAT
; _this$ = ecx

; 211  : 	virtual BOOL	OnLButtonUp(		HDC p_hDC, UINT nFlags, POINT &point, const DWORD p_dwMouseActionID)									{	return FALSE;	}

  00000	33 c0		 xor	 eax, eax
  00002	c2 10 00	 ret	 16			; 00000010H
?OnLButtonUp@CChartAddInBase133101@@MAEHPAUHDC__@@IAAUtagPOINT@@K@Z ENDP ; CChartAddInBase133101::OnLButtonUp
_TEXT	ENDS
; Function compile flags: /Ogtp
; File D:\git\src\IBK\IBK_DRFN\ProjSrc\SrcChartEx\ChartAddIn\ChartAnalysisToolAddIn\Include_AddIn_133101\I133101\_ChartAddInBase.h
;	COMDAT ?OnLButtonDown@CChartAddInBase133101@@MAEHPAUHDC__@@IAAUtagPOINT@@K@Z
_TEXT	SEGMENT
_p_hDC$ = 8						; size = 4
_nFlags$ = 12						; size = 4
_point$ = 16						; size = 4
_p_dwMouseActionID$ = 20				; size = 4
?OnLButtonDown@CChartAddInBase133101@@MAEHPAUHDC__@@IAAUtagPOINT@@K@Z PROC ; CChartAddInBase133101::OnLButtonDown, COMDAT
; _this$ = ecx

; 210  : 	virtual BOOL	OnLButtonDown(		HDC p_hDC, UINT nFlags, POINT &point, const DWORD p_dwMouseActionID)									{	return FALSE;	}

  00000	33 c0		 xor	 eax, eax
  00002	c2 10 00	 ret	 16			; 00000010H
?OnLButtonDown@CChartAddInBase133101@@MAEHPAUHDC__@@IAAUtagPOINT@@K@Z ENDP ; CChartAddInBase133101::OnLButtonDown
_TEXT	ENDS
; Function compile flags: /Ogtp
; File D:\git\src\IBK\IBK_DRFN\ProjSrc\SrcChartEx\ChartAddIn\ChartAnalysisToolAddIn\Include_AddIn_133101\I133101\_ChartAddInBase.h
;	COMDAT ?OnMouseWheel@CChartAddInBase133101@@MAEHIFUtagPOINT@@K@Z
_TEXT	SEGMENT
_nFlags$ = 8						; size = 4
_zDelta$ = 12						; size = 2
_pt$ = 16						; size = 8
_p_dwMouseActionID$ = 24				; size = 4
?OnMouseWheel@CChartAddInBase133101@@MAEHIFUtagPOINT@@K@Z PROC ; CChartAddInBase133101::OnMouseWheel, COMDAT
; _this$ = ecx

; 208  : 	virtual BOOL	OnMouseWheel(		UINT nFlags, short zDelta, POINT pt, const DWORD p_dwMouseActionID)										{	return FALSE;	}

  00000	33 c0		 xor	 eax, eax
  00002	c2 14 00	 ret	 20			; 00000014H
?OnMouseWheel@CChartAddInBase133101@@MAEHIFUtagPOINT@@K@Z ENDP ; CChartAddInBase133101::OnMouseWheel
_TEXT	ENDS
; Function compile flags: /Ogtp
; File D:\git\src\IBK\IBK_DRFN\ProjSrc\SrcChartEx\ChartAddIn\ChartAnalysisToolAddIn\Include_AddIn_133101\I133101\_ChartAddInBase.h
;	COMDAT ?OnKeyUp@CChartAddInBase133101@@MAEHIII@Z
_TEXT	SEGMENT
_nChar$ = 8						; size = 4
_nRepCnt$ = 12						; size = 4
_nFlags$ = 16						; size = 4
?OnKeyUp@CChartAddInBase133101@@MAEHIII@Z PROC		; CChartAddInBase133101::OnKeyUp, COMDAT
; _this$ = ecx

; 207  : 	virtual BOOL	OnKeyUp(			UINT nChar, UINT nRepCnt, UINT nFlags)																	{	return FALSE;	}

  00000	33 c0		 xor	 eax, eax
  00002	c2 0c 00	 ret	 12			; 0000000cH
?OnKeyUp@CChartAddInBase133101@@MAEHIII@Z ENDP		; CChartAddInBase133101::OnKeyUp
_TEXT	ENDS
; Function compile flags: /Ogtp
; File D:\git\src\IBK\IBK_DRFN\ProjSrc\SrcChartEx\ChartAddIn\ChartAnalysisToolAddIn\Include_AddIn_133101\I133101\_ChartAddInBase.h
;	COMDAT ?OnKeyDown@CChartAddInBase133101@@MAEHIII@Z
_TEXT	SEGMENT
_nChar$ = 8						; size = 4
_nRepCnt$ = 12						; size = 4
_nFlags$ = 16						; size = 4
?OnKeyDown@CChartAddInBase133101@@MAEHIII@Z PROC	; CChartAddInBase133101::OnKeyDown, COMDAT
; _this$ = ecx

; 206  : 	virtual BOOL	OnKeyDown(			UINT nChar, UINT nRepCnt, UINT nFlags)																	{	return FALSE;	}

  00000	33 c0		 xor	 eax, eax
  00002	c2 0c 00	 ret	 12			; 0000000cH
?OnKeyDown@CChartAddInBase133101@@MAEHIII@Z ENDP	; CChartAddInBase133101::OnKeyDown
_TEXT	ENDS
; Function compile flags: /Ogtp
; File D:\git\src\IBK\IBK_DRFN\ProjSrc\SrcChartEx\ChartAddIn\ChartAnalysisToolAddIn\Include_AddIn_133101\I133101\_ChartAddInBase.h
;	COMDAT ?OnAddInToolCommand@CChartAddInBase133101@@MAEHAAJW4EAICommandType@@JJ@Z
_TEXT	SEGMENT
_p_lResult$ = 8						; size = 4
_p_eCommandID$ = 12					; size = 4
_p_lParam1$ = 16					; size = 4
_p_lParam2$ = 20					; size = 4
?OnAddInToolCommand@CChartAddInBase133101@@MAEHAAJW4EAICommandType@@JJ@Z PROC ; CChartAddInBase133101::OnAddInToolCommand, COMDAT
; _this$ = ecx

; 204  : 	virtual BOOL	OnAddInToolCommand(	long &p_lResult, const EAICommandType p_eCommandID, const long p_lParam1, const long p_lParam2)			{	return FALSE;	}

  00000	33 c0		 xor	 eax, eax
  00002	c2 10 00	 ret	 16			; 00000010H
?OnAddInToolCommand@CChartAddInBase133101@@MAEHAAJW4EAICommandType@@JJ@Z ENDP ; CChartAddInBase133101::OnAddInToolCommand
_TEXT	ENDS
; Function compile flags: /Ogtp
; File D:\git\src\IBK\IBK_DRFN\ProjSrc\SrcChartEx\ChartAddIn\ChartAnalysisToolAddIn\Include_AddIn_133101\I133101\_ChartAddInBase.h
;	COMDAT ?OnAddInToolCommand@CChartAddInBase133101@@MAEHAAJW4EAICommandType@@J@Z
_TEXT	SEGMENT
_p_lResult$ = 8						; size = 4
_p_eCommandID$ = 12					; size = 4
_p_lParam$ = 16						; size = 4
?OnAddInToolCommand@CChartAddInBase133101@@MAEHAAJW4EAICommandType@@J@Z PROC ; CChartAddInBase133101::OnAddInToolCommand, COMDAT
; _this$ = ecx

; 203  : 	virtual BOOL	OnAddInToolCommand(	long &p_lResult, const EAICommandType p_eCommandID, const long p_lParam)								{	return FALSE;	}

  00000	33 c0		 xor	 eax, eax
  00002	c2 0c 00	 ret	 12			; 0000000cH
?OnAddInToolCommand@CChartAddInBase133101@@MAEHAAJW4EAICommandType@@J@Z ENDP ; CChartAddInBase133101::OnAddInToolCommand
_TEXT	ENDS
; Function compile flags: /Ogtp
; File D:\git\src\IBK\IBK_DRFN\ProjSrc\SrcChartEx\ChartAddIn\ChartAnalysisToolAddIn\Include_AddIn_133101\I133101\_ChartAddInBase.h
;	COMDAT ?OnAddInToolCommand@CChartAddInBase133101@@MAEHAAJW4EAICommandType@@PBDPAVCObject@@@Z
_TEXT	SEGMENT
_p_lResult$ = 8						; size = 4
_p_eCommandID$ = 12					; size = 4
_p_szParam$ = 16					; size = 4
_p_pParam$ = 20						; size = 4
?OnAddInToolCommand@CChartAddInBase133101@@MAEHAAJW4EAICommandType@@PBDPAVCObject@@@Z PROC ; CChartAddInBase133101::OnAddInToolCommand, COMDAT
; _this$ = ecx

; 202  : 	virtual BOOL	OnAddInToolCommand(	long &p_lResult, const EAICommandType p_eCommandID, const char *p_szParam, CObject *p_pParam)			{	return FALSE;	}

  00000	33 c0		 xor	 eax, eax
  00002	c2 10 00	 ret	 16			; 00000010H
?OnAddInToolCommand@CChartAddInBase133101@@MAEHAAJW4EAICommandType@@PBDPAVCObject@@@Z ENDP ; CChartAddInBase133101::OnAddInToolCommand
_TEXT	ENDS
; Function compile flags: /Ogtp
; File D:\git\src\IBK\IBK_DRFN\ProjSrc\SrcChartEx\ChartAddIn\ChartAnalysisToolAddIn\Include_AddIn_133101\I133101\_ChartAddInBase.h
;	COMDAT ?OnAddInToolCommand@CChartAddInBase133101@@MAEHAAJW4EAICommandType@@PBD@Z
_TEXT	SEGMENT
_p_lResult$ = 8						; size = 4
_p_eCommandID$ = 12					; size = 4
_p_szParam$ = 16					; size = 4
?OnAddInToolCommand@CChartAddInBase133101@@MAEHAAJW4EAICommandType@@PBD@Z PROC ; CChartAddInBase133101::OnAddInToolCommand, COMDAT
; _this$ = ecx

; 201  : 	virtual BOOL	OnAddInToolCommand(	long &p_lResult, const EAICommandType p_eCommandID, const char *p_szParam)								{	return FALSE;	}

  00000	33 c0		 xor	 eax, eax
  00002	c2 0c 00	 ret	 12			; 0000000cH
?OnAddInToolCommand@CChartAddInBase133101@@MAEHAAJW4EAICommandType@@PBD@Z ENDP ; CChartAddInBase133101::OnAddInToolCommand
_TEXT	ENDS
; Function compile flags: /Ogtp
; File D:\git\src\IBK\IBK_DRFN\ProjSrc\SrcChartEx\ChartAddIn\ChartAnalysisToolAddIn\Include_AddIn_133101\I133101\_ChartAddInBase.h
;	COMDAT ?OnAddInToolCommand@CChartAddInBase133101@@MAEHAAJW4EAICommandType@@PAUIGraphInfo133101@@@Z
_TEXT	SEGMENT
_p_lResult$ = 8						; size = 4
_p_eCommandID$ = 12					; size = 4
_p_pIGraphInfo$ = 16					; size = 4
?OnAddInToolCommand@CChartAddInBase133101@@MAEHAAJW4EAICommandType@@PAUIGraphInfo133101@@@Z PROC ; CChartAddInBase133101::OnAddInToolCommand, COMDAT
; _this$ = ecx

; 200  : 	virtual BOOL	OnAddInToolCommand(	long &p_lResult, const EAICommandType p_eCommandID, IGraphInfo *p_pIGraphInfo)							{	return FALSE;	}

  00000	33 c0		 xor	 eax, eax
  00002	c2 0c 00	 ret	 12			; 0000000cH
?OnAddInToolCommand@CChartAddInBase133101@@MAEHAAJW4EAICommandType@@PAUIGraphInfo133101@@@Z ENDP ; CChartAddInBase133101::OnAddInToolCommand
_TEXT	ENDS
; Function compile flags: /Ogtp
; File D:\git\src\IBK\IBK_DRFN\ProjSrc\SrcChartEx\ChartAddIn\ChartAnalysisToolAddIn\Include_AddIn_133101\I133101\_ChartAddInBase.h
;	COMDAT ?OnAddInToolCommand@CChartAddInBase133101@@MAEHAAJW4EAICommandType@@@Z
_TEXT	SEGMENT
_p_lResult$ = 8						; size = 4
_p_eCommandID$ = 12					; size = 4
?OnAddInToolCommand@CChartAddInBase133101@@MAEHAAJW4EAICommandType@@@Z PROC ; CChartAddInBase133101::OnAddInToolCommand, COMDAT
; _this$ = ecx

; 199  : 	virtual BOOL	OnAddInToolCommand(	long &p_lResult, const EAICommandType p_eCommandID)														{	return FALSE;	}

  00000	33 c0		 xor	 eax, eax
  00002	c2 08 00	 ret	 8
?OnAddInToolCommand@CChartAddInBase133101@@MAEHAAJW4EAICommandType@@@Z ENDP ; CChartAddInBase133101::OnAddInToolCommand
_TEXT	ENDS
; Function compile flags: /Ogtp
; File D:\git\src\IBK\IBK_DRFN\ProjSrc\SrcChartEx\ChartAddIn\ChartAnalysisToolAddIn\Include_AddIn_133101\I133101\_ChartAddInBase.h
;	COMDAT ?OnAddInToolCommand@CChartAddInBase133101@@MAEHW4EAICommandType@@JJJJJJJJJ@Z
_TEXT	SEGMENT
_p_eCommandID$ = 8					; size = 4
_p_lParam1$ = 12					; size = 4
_p_lParam2$ = 16					; size = 4
_p_lParam3$ = 20					; size = 4
_p_lParam4$ = 24					; size = 4
_p_lParam5$ = 28					; size = 4
_p_lParam6$ = 32					; size = 4
_p_lParam7$ = 36					; size = 4
_p_lParam8$ = 40					; size = 4
_p_lParam9$ = 44					; size = 4
?OnAddInToolCommand@CChartAddInBase133101@@MAEHW4EAICommandType@@JJJJJJJJJ@Z PROC ; CChartAddInBase133101::OnAddInToolCommand, COMDAT
; _this$ = ecx

; 198  : 	virtual BOOL	OnAddInToolCommand(	const EAICommandType p_eCommandID, const long p_lParam1, const long p_lParam2, const long p_lParam3, const long p_lParam4, const long p_lParam5, const long p_lParam6, const long p_lParam7, const long p_lParam8, const long p_lParam9)	{	return FALSE;	}

  00000	33 c0		 xor	 eax, eax
  00002	c2 28 00	 ret	 40			; 00000028H
?OnAddInToolCommand@CChartAddInBase133101@@MAEHW4EAICommandType@@JJJJJJJJJ@Z ENDP ; CChartAddInBase133101::OnAddInToolCommand
_TEXT	ENDS
; Function compile flags: /Ogtp
; File D:\git\src\IBK\IBK_DRFN\ProjSrc\SrcChartEx\ChartAddIn\ChartAnalysisToolAddIn\Include_AddIn_133101\I133101\_ChartAddInBase.h
;	COMDAT ?OnAddInToolCommand@CChartAddInBase133101@@MAEHW4EAICommandType@@JJ@Z
_TEXT	SEGMENT
_p_eCommandID$ = 8					; size = 4
_p_lParam1$ = 12					; size = 4
_p_lParam2$ = 16					; size = 4
?OnAddInToolCommand@CChartAddInBase133101@@MAEHW4EAICommandType@@JJ@Z PROC ; CChartAddInBase133101::OnAddInToolCommand, COMDAT
; _this$ = ecx

; 197  : 	virtual BOOL	OnAddInToolCommand(	const EAICommandType p_eCommandID, const long p_lParam1, const long p_lParam2)							{	return FALSE;	}

  00000	33 c0		 xor	 eax, eax
  00002	c2 0c 00	 ret	 12			; 0000000cH
?OnAddInToolCommand@CChartAddInBase133101@@MAEHW4EAICommandType@@JJ@Z ENDP ; CChartAddInBase133101::OnAddInToolCommand
_TEXT	ENDS
; Function compile flags: /Ogtp
; File D:\git\src\IBK\IBK_DRFN\ProjSrc\SrcChartEx\ChartAddIn\ChartAnalysisToolAddIn\Include_AddIn_133101\I133101\_ChartAddInBase.h
;	COMDAT ?OnAddInToolCommand@CChartAddInBase133101@@MAEHW4EAICommandType@@JPBD11@Z
_TEXT	SEGMENT
_p_eCommandID$ = 8					; size = 4
_p_lParam$ = 12						; size = 4
_p_szParam1$ = 16					; size = 4
_p_szParam2$ = 20					; size = 4
_p_szParam3$ = 24					; size = 4
?OnAddInToolCommand@CChartAddInBase133101@@MAEHW4EAICommandType@@JPBD11@Z PROC ; CChartAddInBase133101::OnAddInToolCommand, COMDAT
; _this$ = ecx

; 196  : 	virtual BOOL	OnAddInToolCommand( const EAICommandType p_eCommandID, const long p_lParam, const char *p_szParam1, const char *p_szParam2, const char *p_szParam3)	{	return FALSE;	}

  00000	33 c0		 xor	 eax, eax
  00002	c2 14 00	 ret	 20			; 00000014H
?OnAddInToolCommand@CChartAddInBase133101@@MAEHW4EAICommandType@@JPBD11@Z ENDP ; CChartAddInBase133101::OnAddInToolCommand
_TEXT	ENDS
; Function compile flags: /Ogtp
; File D:\git\src\IBK\IBK_DRFN\ProjSrc\SrcChartEx\ChartAddIn\ChartAnalysisToolAddIn\Include_AddIn_133101\I133101\_ChartAddInBase.h
;	COMDAT ?OnAddInToolCommand@CChartAddInBase133101@@MAEHW4EAICommandType@@JPBD@Z
_TEXT	SEGMENT
_p_eCommandID$ = 8					; size = 4
_p_lParam$ = 12						; size = 4
_p_szParam$ = 16					; size = 4
?OnAddInToolCommand@CChartAddInBase133101@@MAEHW4EAICommandType@@JPBD@Z PROC ; CChartAddInBase133101::OnAddInToolCommand, COMDAT
; _this$ = ecx

; 195  : 	virtual BOOL	OnAddInToolCommand( const EAICommandType p_eCommandID, const long p_lParam, const char *p_szParam)							{	return FALSE;	}

  00000	33 c0		 xor	 eax, eax
  00002	c2 0c 00	 ret	 12			; 0000000cH
?OnAddInToolCommand@CChartAddInBase133101@@MAEHW4EAICommandType@@JPBD@Z ENDP ; CChartAddInBase133101::OnAddInToolCommand
_TEXT	ENDS
; Function compile flags: /Ogtp
; File D:\git\src\IBK\IBK_DRFN\ProjSrc\SrcChartEx\ChartAddIn\ChartAnalysisToolAddIn\Include_AddIn_133101\I133101\_ChartAddInBase.h
;	COMDAT ?OnAddInToolCommand@CChartAddInBase133101@@MAEHW4EAICommandType@@PBUIAddInDllBase@@@Z
_TEXT	SEGMENT
_p_eCommandID$ = 8					; size = 4
_p_pParam$ = 12						; size = 4
?OnAddInToolCommand@CChartAddInBase133101@@MAEHW4EAICommandType@@PBUIAddInDllBase@@@Z PROC ; CChartAddInBase133101::OnAddInToolCommand, COMDAT
; _this$ = ecx

; 193  : 	virtual BOOL	OnAddInToolCommand(	const EAICommandType p_eCommandID, const IAddInDllBase *p_pParam)										{	return FALSE;	}

  00000	33 c0		 xor	 eax, eax
  00002	c2 08 00	 ret	 8
?OnAddInToolCommand@CChartAddInBase133101@@MAEHW4EAICommandType@@PBUIAddInDllBase@@@Z ENDP ; CChartAddInBase133101::OnAddInToolCommand
_TEXT	ENDS
; Function compile flags: /Ogtp
; File D:\git\src\IBK\IBK_DRFN\ProjSrc\SrcChartEx\ChartAddIn\ChartAnalysisToolAddIn\Include_AddIn_133101\I133101\_ChartAddInBase.h
;	COMDAT ?OnAddInToolCommand@CChartAddInBase133101@@MAEHW4EAICommandType@@PBDJ@Z
_TEXT	SEGMENT
_p_eCommandID$ = 8					; size = 4
_p_szParam$ = 12					; size = 4
_p_lParam$ = 16						; size = 4
?OnAddInToolCommand@CChartAddInBase133101@@MAEHW4EAICommandType@@PBDJ@Z PROC ; CChartAddInBase133101::OnAddInToolCommand, COMDAT
; _this$ = ecx

; 192  : 	virtual BOOL	OnAddInToolCommand( const EAICommandType p_eCommandID, const char *p_szParam, const long p_lParam)							{	return FALSE;	}

  00000	33 c0		 xor	 eax, eax
  00002	c2 0c 00	 ret	 12			; 0000000cH
?OnAddInToolCommand@CChartAddInBase133101@@MAEHW4EAICommandType@@PBDJ@Z ENDP ; CChartAddInBase133101::OnAddInToolCommand
_TEXT	ENDS
; Function compile flags: /Ogtp
; File D:\git\src\IBK\IBK_DRFN\ProjSrc\SrcChartEx\ChartAddIn\ChartAnalysisToolAddIn\Include_AddIn_133101\I133101\_ChartAddInBase.h
;	COMDAT ?OnAddInToolCommand@CChartAddInBase133101@@MAEHW4EAICommandType@@PBD1@Z
_TEXT	SEGMENT
_p_eCommandID$ = 8					; size = 4
_p_szParam1$ = 12					; size = 4
_p_szParam2$ = 16					; size = 4
?OnAddInToolCommand@CChartAddInBase133101@@MAEHW4EAICommandType@@PBD1@Z PROC ; CChartAddInBase133101::OnAddInToolCommand, COMDAT
; _this$ = ecx

; 191  : 	virtual BOOL	OnAddInToolCommand(	const EAICommandType p_eCommandID, const char *p_szParam1, const char *p_szParam2)						{	return FALSE;	}

  00000	33 c0		 xor	 eax, eax
  00002	c2 0c 00	 ret	 12			; 0000000cH
?OnAddInToolCommand@CChartAddInBase133101@@MAEHW4EAICommandType@@PBD1@Z ENDP ; CChartAddInBase133101::OnAddInToolCommand
_TEXT	ENDS
; Function compile flags: /Ogtp
; File D:\git\src\IBK\IBK_DRFN\ProjSrc\SrcChartEx\ChartAddIn\ChartAnalysisToolAddIn\Include_AddIn_133101\I133101\_ChartAddInBase.h
;	COMDAT ?OnAddInToolCommand@CChartAddInBase133101@@MAEHW4EAICommandType@@PBD@Z
_TEXT	SEGMENT
_p_eCommandID$ = 8					; size = 4
_p_szParam$ = 12					; size = 4
?OnAddInToolCommand@CChartAddInBase133101@@MAEHW4EAICommandType@@PBD@Z PROC ; CChartAddInBase133101::OnAddInToolCommand, COMDAT
; _this$ = ecx

; 190  : 	virtual BOOL	OnAddInToolCommand(	const EAICommandType p_eCommandID, const char *p_szParam)												{	return FALSE;	}

  00000	33 c0		 xor	 eax, eax
  00002	c2 08 00	 ret	 8
?OnAddInToolCommand@CChartAddInBase133101@@MAEHW4EAICommandType@@PBD@Z ENDP ; CChartAddInBase133101::OnAddInToolCommand
_TEXT	ENDS
; Function compile flags: /Ogtp
; File D:\git\src\IBK\IBK_DRFN\ProjSrc\SrcChartEx\ChartAddIn\ChartAnalysisToolAddIn\Include_AddIn_133101\I133101\_ChartAddInBase.h
;	COMDAT ?OnAddInToolCommand@CChartAddInBase133101@@MAEHW4EAICommandType@@PAUHDC__@@IAAUtagPOINT@@K@Z
_TEXT	SEGMENT
_p_eCommandID$ = 8					; size = 4
_p_hDC$ = 12						; size = 4
_nFlags$ = 16						; size = 4
_point$ = 20						; size = 4
_p_dwMouseActionID$ = 24				; size = 4
?OnAddInToolCommand@CChartAddInBase133101@@MAEHW4EAICommandType@@PAUHDC__@@IAAUtagPOINT@@K@Z PROC ; CChartAddInBase133101::OnAddInToolCommand, COMDAT
; _this$ = ecx

; 189  : 	virtual BOOL	OnAddInToolCommand(	const EAICommandType p_eCommandID, HDC p_hDC, UINT nFlags, POINT &point, const DWORD p_dwMouseActionID)	{	return FALSE;	}

  00000	33 c0		 xor	 eax, eax
  00002	c2 14 00	 ret	 20			; 00000014H
?OnAddInToolCommand@CChartAddInBase133101@@MAEHW4EAICommandType@@PAUHDC__@@IAAUtagPOINT@@K@Z ENDP ; CChartAddInBase133101::OnAddInToolCommand
_TEXT	ENDS
; Function compile flags: /Ogtp
; File D:\git\src\IBK\IBK_DRFN\ProjSrc\SrcChartEx\ChartAddIn\ChartAnalysisToolAddIn\Include_AddIn_133101\I133101\_ChartAddInBase.h
;	COMDAT ?OnAddInMsg@CChartAddInBase133101@@MAEHPBDJ@Z
_TEXT	SEGMENT
_p_szAddInItemName$ = 8					; size = 4
_p_lParam$ = 12						; size = 4
?OnAddInMsg@CChartAddInBase133101@@MAEHPBDJ@Z PROC	; CChartAddInBase133101::OnAddInMsg, COMDAT
; _this$ = ecx

; 187  : 	virtual BOOL	OnAddInMsg(			const char *p_szAddInItemName, const long p_lParam)														{	return FALSE;	}

  00000	33 c0		 xor	 eax, eax
  00002	c2 08 00	 ret	 8
?OnAddInMsg@CChartAddInBase133101@@MAEHPBDJ@Z ENDP	; CChartAddInBase133101::OnAddInMsg
_TEXT	ENDS
; Function compile flags: /Ogtp
; File D:\git\src\IBK\IBK_DRFN\ProjSrc\SrcChartEx\ChartAddIn\ChartAnalysisToolAddIn\Include_AddIn_133101\I133101\_ChartAddInBase.h
;	COMDAT ?OnPreRealPacketEnd@CChartAddInBase133101@@MAEHPBD@Z
_TEXT	SEGMENT
_p_szRQ$ = 8						; size = 4
?OnPreRealPacketEnd@CChartAddInBase133101@@MAEHPBD@Z PROC ; CChartAddInBase133101::OnPreRealPacketEnd, COMDAT
; _this$ = ecx

; 180  : 	virtual BOOL	OnPreRealPacketEnd( const char *p_szRQ = NULL)											{	return TRUE;	}

  00000	b8 01 00 00 00	 mov	 eax, 1
  00005	c2 04 00	 ret	 4
?OnPreRealPacketEnd@CChartAddInBase133101@@MAEHPBD@Z ENDP ; CChartAddInBase133101::OnPreRealPacketEnd
_TEXT	ENDS
; Function compile flags: /Ogtp
; File D:\git\src\IBK\IBK_DRFN\ProjSrc\SrcChartEx\ChartAddIn\ChartAnalysisToolAddIn\Include_AddIn_133101\I133101\_ChartAddInBase.h
;	COMDAT ?OnPreIndexedRealData@CChartAddInBase133101@@MAEHPBDHAAN@Z
_TEXT	SEGMENT
_p_szPacketName$ = 8					; size = 4
_p_nIndex$ = 12						; size = 4
_p_dData$ = 16						; size = 4
?OnPreIndexedRealData@CChartAddInBase133101@@MAEHPBDHAAN@Z PROC ; CChartAddInBase133101::OnPreIndexedRealData, COMDAT
; _this$ = ecx

; 179  : 	virtual BOOL	OnPreIndexedRealData( const char *p_szPacketName, const int p_nIndex, double &p_dData)	{	return TRUE;	}

  00000	b8 01 00 00 00	 mov	 eax, 1
  00005	c2 0c 00	 ret	 12			; 0000000cH
?OnPreIndexedRealData@CChartAddInBase133101@@MAEHPBDHAAN@Z ENDP ; CChartAddInBase133101::OnPreIndexedRealData
_TEXT	ENDS
; Function compile flags: /Ogtp
; File D:\git\src\IBK\IBK_DRFN\ProjSrc\SrcChartEx\ChartAddIn\ChartAnalysisToolAddIn\Include_AddIn_133101\I133101\_ChartAddInBase.h
;	COMDAT ?OnPreRealData@CChartAddInBase133101@@MAEHPBDAAN0@Z
_TEXT	SEGMENT
_p_szPacketName$ = 8					; size = 4
_p_dData$ = 12						; size = 4
_p_szRQ$ = 16						; size = 4
?OnPreRealData@CChartAddInBase133101@@MAEHPBDAAN0@Z PROC ; CChartAddInBase133101::OnPreRealData, COMDAT
; _this$ = ecx

; 178  : 	virtual BOOL	OnPreRealData( const char *p_szPacketName, double &p_dData, const char *p_szRQ = NULL)	{	return TRUE;	}

  00000	b8 01 00 00 00	 mov	 eax, 1
  00005	c2 0c 00	 ret	 12			; 0000000cH
?OnPreRealData@CChartAddInBase133101@@MAEHPBDAAN0@Z ENDP ; CChartAddInBase133101::OnPreRealData
_TEXT	ENDS
; Function compile flags: /Ogtp
; File D:\git\src\IBK\IBK_DRFN\ProjSrc\SrcChartEx\ChartAddIn\ChartAnalysisToolAddIn\Include_AddIn_133101\I133101\_ChartAddInBase.h
;	COMDAT ?OnRecalculationComplete@CChartAddInBase133101@@MAEXXZ
_TEXT	SEGMENT
?OnRecalculationComplete@CChartAddInBase133101@@MAEXXZ PROC ; CChartAddInBase133101::OnRecalculationComplete, COMDAT
; _this$ = ecx

; 174  : 	virtual void	OnRecalculationComplete( void)						{}

  00000	c2 00 00	 ret	 0
?OnRecalculationComplete@CChartAddInBase133101@@MAEXXZ ENDP ; CChartAddInBase133101::OnRecalculationComplete
_TEXT	ENDS
; Function compile flags: /Ogtp
; File D:\git\src\IBK\IBK_DRFN\ProjSrc\SrcChartEx\ChartAddIn\ChartAnalysisToolAddIn\Include_AddIn_133101\I133101\_ChartAddInBase.h
;	COMDAT ?OnSaveEnvironment@CChartAddInBase133101@@MAEXPAUIPropertyMap@@@Z
_TEXT	SEGMENT
_p_pIAddInEnvMap$ = 8					; size = 4
?OnSaveEnvironment@CChartAddInBase133101@@MAEXPAUIPropertyMap@@@Z PROC ; CChartAddInBase133101::OnSaveEnvironment, COMDAT
; _this$ = ecx

; 170  : 	virtual void	OnSaveEnvironment( IPropertyMap *p_pIAddInEnvMap)	{}

  00000	c2 04 00	 ret	 4
?OnSaveEnvironment@CChartAddInBase133101@@MAEXPAUIPropertyMap@@@Z ENDP ; CChartAddInBase133101::OnSaveEnvironment
_TEXT	ENDS
; Function compile flags: /Ogtp
; File D:\git\src\IBK\IBK_DRFN\ProjSrc\SrcChartEx\ChartAddIn\ChartAnalysisToolAddIn\Include_AddIn_133101\I133101\_ChartAddInBase.h
;	COMDAT ?OnLoadEnvironment@CChartAddInBase133101@@MAEXPAUIPropertyMap@@@Z
_TEXT	SEGMENT
_p_pIAddInEnvMap$ = 8					; size = 4
?OnLoadEnvironment@CChartAddInBase133101@@MAEXPAUIPropertyMap@@@Z PROC ; CChartAddInBase133101::OnLoadEnvironment, COMDAT
; _this$ = ecx

; 169  : 	virtual void	OnLoadEnvironment( IPropertyMap *p_pIAddInEnvMap)	{}

  00000	c2 04 00	 ret	 4
?OnLoadEnvironment@CChartAddInBase133101@@MAEXPAUIPropertyMap@@@Z ENDP ; CChartAddInBase133101::OnLoadEnvironment
_TEXT	ENDS
; Function compile flags: /Ogtp
; File D:\git\src\IBK\IBK_DRFN\ProjSrc\SrcChartEx\ChartAddIn\ChartAnalysisToolAddIn\Include_AddIn_133101\I133101\_ChartAddInBase.h
;	COMDAT ?OnRealPacketEnd@CChartAddInBase133101@@MAEXPBD@Z
_TEXT	SEGMENT
_p_szRQ$ = 8						; size = 4
?OnRealPacketEnd@CChartAddInBase133101@@MAEXPBD@Z PROC	; CChartAddInBase133101::OnRealPacketEnd, COMDAT
; _this$ = ecx

; 167  : 	virtual void	OnRealPacketEnd( const char *p_szRQ)								{}

  00000	c2 04 00	 ret	 4
?OnRealPacketEnd@CChartAddInBase133101@@MAEXPBD@Z ENDP	; CChartAddInBase133101::OnRealPacketEnd
_TEXT	ENDS
; Function compile flags: /Ogtp
; File D:\git\src\IBK\IBK_DRFN\ProjSrc\SrcChartEx\ChartAddIn\ChartAnalysisToolAddIn\Include_AddIn_133101\I133101\_ChartAddInBase.h
;	COMDAT ?OnIndexedRealData@CChartAddInBase133101@@MAEXPBDHN@Z
_TEXT	SEGMENT
_p_szPacketName$ = 8					; size = 4
_p_nIndex$ = 12						; size = 4
_p_dData$ = 16						; size = 8
?OnIndexedRealData@CChartAddInBase133101@@MAEXPBDHN@Z PROC ; CChartAddInBase133101::OnIndexedRealData, COMDAT
; _this$ = ecx

; 165  : 	virtual void	OnIndexedRealData( const char *p_szPacketName, const int p_nIndex, double p_dData)		{}

  00000	c2 10 00	 ret	 16			; 00000010H
?OnIndexedRealData@CChartAddInBase133101@@MAEXPBDHN@Z ENDP ; CChartAddInBase133101::OnIndexedRealData
_TEXT	ENDS
; Function compile flags: /Ogtp
; File D:\git\src\IBK\IBK_DRFN\ProjSrc\SrcChartEx\ChartAddIn\ChartAnalysisToolAddIn\Include_AddIn_133101\I133101\_ChartAddInBase.h
;	COMDAT ?OnRealData@CChartAddInBase133101@@MAEXPBDN0@Z
_TEXT	SEGMENT
_p_szPacketName$ = 8					; size = 4
_p_dData$ = 12						; size = 8
_p_szRQ$ = 20						; size = 4
?OnRealData@CChartAddInBase133101@@MAEXPBDN0@Z PROC	; CChartAddInBase133101::OnRealData, COMDAT
; _this$ = ecx

; 164  : 	virtual void	OnRealData( const char *p_szPacketName, double p_dData, const char *p_szRQ)			{}

  00000	c2 10 00	 ret	 16			; 00000010H
?OnRealData@CChartAddInBase133101@@MAEXPBDN0@Z ENDP	; CChartAddInBase133101::OnRealData
_TEXT	ENDS
; Function compile flags: /Ogtp
; File D:\git\src\IBK\IBK_DRFN\ProjSrc\SrcChartEx\ChartAddIn\ChartAnalysisToolAddIn\Include_AddIn_133101\I133101\_ChartAddInBase.h
;	COMDAT ?OnBlockChanged@CChartAddInBase133101@@MAEXW4BLOCKBEHAVIOR@CBlockBaseData@@HHHH@Z
_TEXT	SEGMENT
_p_eChangeType$ = 8					; size = 4
_p_nSourceRow$ = 12					; size = 4
_p_nSourceColumn$ = 16					; size = 4
_p_nTargetRow$ = 20					; size = 4
_p_nTargetColumn$ = 24					; size = 4
?OnBlockChanged@CChartAddInBase133101@@MAEXW4BLOCKBEHAVIOR@CBlockBaseData@@HHHH@Z PROC ; CChartAddInBase133101::OnBlockChanged, COMDAT
; _this$ = ecx

; 160  : 	virtual void	OnBlockChanged( const CBlockBaseData::BLOCKBEHAVIOR p_eChangeType, const int p_nSourceRow, const int p_nSourceColumn, const int p_nTargetRow, const int p_nTargetColumn)	{}

  00000	c2 14 00	 ret	 20			; 00000014H
?OnBlockChanged@CChartAddInBase133101@@MAEXW4BLOCKBEHAVIOR@CBlockBaseData@@HHHH@Z ENDP ; CChartAddInBase133101::OnBlockChanged
_TEXT	ENDS
; Function compile flags: /Ogtp
; File D:\git\src\IBK\IBK_DRFN\ProjSrc\SrcChartEx\ChartAddIn\ChartAnalysisToolAddIn\Include_AddIn_133101\I133101\_ChartAddInBase.h
;	COMDAT ?OnPacketTruncated@CChartAddInBase133101@@MAEXH@Z
_TEXT	SEGMENT
_p_nDataCount$ = 8					; size = 4
?OnPacketTruncated@CChartAddInBase133101@@MAEXH@Z PROC	; CChartAddInBase133101::OnPacketTruncated, COMDAT
; _this$ = ecx

; 158  : 	virtual void	OnPacketTruncated( const int p_nDataCount)			{}

  00000	c2 04 00	 ret	 4
?OnPacketTruncated@CChartAddInBase133101@@MAEXH@Z ENDP	; CChartAddInBase133101::OnPacketTruncated
_TEXT	ENDS
; Function compile flags: /Ogtp
; File D:\git\src\IBK\IBK_DRFN\ProjSrc\SrcChartEx\ChartAddIn\ChartAnalysisToolAddIn\Include_AddIn_133101\I133101\_ChartAddInBase.h
;	COMDAT ?OnGraphDeleted@CChartAddInBase133101@@MAEXPBD0@Z
_TEXT	SEGMENT
_p_szGraphName$ = 8					; size = 4
_p_szIndicatorName$ = 12				; size = 4
?OnGraphDeleted@CChartAddInBase133101@@MAEXPBD0@Z PROC	; CChartAddInBase133101::OnGraphDeleted, COMDAT
; _this$ = ecx

; 156  : 	virtual void	OnGraphDeleted( const char *p_szGraphName, const char *p_szIndicatorName)			{}

  00000	c2 08 00	 ret	 8
?OnGraphDeleted@CChartAddInBase133101@@MAEXPBD0@Z ENDP	; CChartAddInBase133101::OnGraphDeleted
_TEXT	ENDS
; Function compile flags: /Ogtp
; File D:\git\src\IBK\IBK_DRFN\ProjSrc\SrcChartEx\ChartAddIn\ChartAnalysisToolAddIn\Include_AddIn_133101\I133101\_ChartAddInBase.h
;	COMDAT ?OnContextMenu@CChartAddInBase133101@@MAEXPAUHWND__@@AAUtagPOINT@@@Z
_TEXT	SEGMENT
_p_hWnd$ = 8						; size = 4
_p_pt$ = 12						; size = 4
?OnContextMenu@CChartAddInBase133101@@MAEXPAUHWND__@@AAUtagPOINT@@@Z PROC ; CChartAddInBase133101::OnContextMenu, COMDAT
; _this$ = ecx

; 154  : 	virtual void	OnContextMenu( HWND p_hWnd, POINT &p_pt)			{}

  00000	c2 08 00	 ret	 8
?OnContextMenu@CChartAddInBase133101@@MAEXPAUHWND__@@AAUtagPOINT@@@Z ENDP ; CChartAddInBase133101::OnContextMenu
_TEXT	ENDS
; Function compile flags: /Ogtp
; File D:\git\src\IBK\IBK_DRFN\ProjSrc\SrcChartEx\ChartAddIn\ChartAnalysisToolAddIn\Include_AddIn_133101\I133101\_ChartAddInBase.h
;	COMDAT ?OnManualRealData@CChartAddInBase133101@@MAEXPBDNH@Z
_TEXT	SEGMENT
_p_szPacketName$ = 8					; size = 4
_p_dData$ = 12						; size = 8
_p_nOption$ = 20					; size = 4
?OnManualRealData@CChartAddInBase133101@@MAEXPBDNH@Z PROC ; CChartAddInBase133101::OnManualRealData, COMDAT
; _this$ = ecx

; 152  : 	virtual void	OnManualRealData( const char *p_szPacketName, const double p_dData, const int p_nOption)	{}

  00000	c2 10 00	 ret	 16			; 00000010H
?OnManualRealData@CChartAddInBase133101@@MAEXPBDNH@Z ENDP ; CChartAddInBase133101::OnManualRealData
_TEXT	ENDS
; Function compile flags: /Ogtp
; File D:\git\src\IBK\IBK_DRFN\ProjSrc\SrcChartEx\ChartAddIn\ChartAnalysisToolAddIn\Include_AddIn_133101\I133101\_ChartAddInBase.h
;	COMDAT ?OnGraphAdded@CChartAddInBase133101@@MAEXPBD0@Z
_TEXT	SEGMENT
_p_szGraphName$ = 8					; size = 4
_p_szIndicatorName$ = 12				; size = 4
?OnGraphAdded@CChartAddInBase133101@@MAEXPBD0@Z PROC	; CChartAddInBase133101::OnGraphAdded, COMDAT
; _this$ = ecx

; 150  : 	virtual void	OnGraphAdded( const char *p_szGraphName, const char *p_szIndicatorName)			{}

  00000	c2 08 00	 ret	 8
?OnGraphAdded@CChartAddInBase133101@@MAEXPBD0@Z ENDP	; CChartAddInBase133101::OnGraphAdded
_TEXT	ENDS
; Function compile flags: /Ogtp
; File D:\git\src\IBK\IBK_DRFN\ProjSrc\SrcChartEx\ChartAddIn\ChartAnalysisToolAddIn\Include_AddIn_133101\I133101\_ChartAddInBase.h
;	COMDAT ?OnBlockRemoved@CChartAddInBase133101@@MAEXHH@Z
_TEXT	SEGMENT
_p_nRow$ = 8						; size = 4
_p_nColumn$ = 12					; size = 4
?OnBlockRemoved@CChartAddInBase133101@@MAEXHH@Z PROC	; CChartAddInBase133101::OnBlockRemoved, COMDAT
; _this$ = ecx

; 148  : 	virtual void	OnBlockRemoved( const int p_nRow, const int p_nColumn)	{}

  00000	c2 08 00	 ret	 8
?OnBlockRemoved@CChartAddInBase133101@@MAEXHH@Z ENDP	; CChartAddInBase133101::OnBlockRemoved
_TEXT	ENDS
; Function compile flags: /Ogtp
; File D:\git\src\IBK\IBK_DRFN\ProjSrc\SrcChartEx\ChartAddIn\ChartAnalysisToolAddIn\Include_AddIn_133101\I133101\_ChartAddInBase.h
;	COMDAT ?OnGraphDataChanged@CChartAddInBase133101@@MAEXXZ
_TEXT	SEGMENT
?OnGraphDataChanged@CChartAddInBase133101@@MAEXXZ PROC	; CChartAddInBase133101::OnGraphDataChanged, COMDAT
; _this$ = ecx

; 146  : 	virtual void	OnGraphDataChanged( void)							{}

  00000	c2 00 00	 ret	 0
?OnGraphDataChanged@CChartAddInBase133101@@MAEXXZ ENDP	; CChartAddInBase133101::OnGraphDataChanged
_TEXT	ENDS
; Function compile flags: /Ogtp
; File D:\git\src\IBK\IBK_DRFN\ProjSrc\SrcChartEx\ChartAddIn\ChartAnalysisToolAddIn\Include_AddIn_133101\I133101\_ChartAddInBase.h
;	COMDAT ?OnChartItemChanged@CChartAddInBase133101@@MAEXXZ
_TEXT	SEGMENT
?OnChartItemChanged@CChartAddInBase133101@@MAEXXZ PROC	; CChartAddInBase133101::OnChartItemChanged, COMDAT
; _this$ = ecx

; 144  : 	virtual void	OnChartItemChanged( void)							{}

  00000	c2 00 00	 ret	 0
?OnChartItemChanged@CChartAddInBase133101@@MAEXXZ ENDP	; CChartAddInBase133101::OnChartItemChanged
_TEXT	ENDS
; Function compile flags: /Ogtp
; File D:\git\src\IBK\IBK_DRFN\ProjSrc\SrcChartEx\ChartAddIn\ChartAnalysisToolAddIn\Include_AddIn_133101\I133101\_ChartAddInBase.h
;	COMDAT ?OnUserIndiatorConditionLoaded@CChartAddInBase133101@@MAEXXZ
_TEXT	SEGMENT
?OnUserIndiatorConditionLoaded@CChartAddInBase133101@@MAEXXZ PROC ; CChartAddInBase133101::OnUserIndiatorConditionLoaded, COMDAT
; _this$ = ecx

; 142  : 	virtual void	OnUserIndiatorConditionLoaded( void)				{}

  00000	c2 00 00	 ret	 0
?OnUserIndiatorConditionLoaded@CChartAddInBase133101@@MAEXXZ ENDP ; CChartAddInBase133101::OnUserIndiatorConditionLoaded
_TEXT	ENDS
; Function compile flags: /Ogtp
; File D:\git\src\IBK\IBK_DRFN\ProjSrc\SrcChartEx\ChartAddIn\ChartAnalysisToolAddIn\Include_AddIn_133101\I133101\_ChartAddInBase.h
;	COMDAT ?OnResetMainBlock@CChartAddInBase133101@@MAEXXZ
_TEXT	SEGMENT
?OnResetMainBlock@CChartAddInBase133101@@MAEXXZ PROC	; CChartAddInBase133101::OnResetMainBlock, COMDAT
; _this$ = ecx

; 140  : 	virtual void	OnResetMainBlock( void)								{}

  00000	c2 00 00	 ret	 0
?OnResetMainBlock@CChartAddInBase133101@@MAEXXZ ENDP	; CChartAddInBase133101::OnResetMainBlock
_TEXT	ENDS
; Function compile flags: /Ogtp
; File D:\git\src\IBK\IBK_DRFN\ProjSrc\SrcChartEx\ChartAddIn\ChartAnalysisToolAddIn\Include_AddIn_133101\I133101\_ChartAddInBase.h
;	COMDAT ?OnTimer@CChartAddInBase133101@@MAEXI@Z
_TEXT	SEGMENT
_p_uTimerID$ = 8					; size = 4
?OnTimer@CChartAddInBase133101@@MAEXI@Z PROC		; CChartAddInBase133101::OnTimer, COMDAT
; _this$ = ecx

; 133  : 	virtual void	OnTimer( UINT p_uTimerID)	{}

  00000	c2 04 00	 ret	 4
?OnTimer@CChartAddInBase133101@@MAEXI@Z ENDP		; CChartAddInBase133101::OnTimer
_TEXT	ENDS
; Function compile flags: /Ogtp
; File D:\git\src\IBK\IBK_DRFN\ProjSrc\SrcChartEx\ChartAddIn\ChartAnalysisToolAddIn\Include_AddIn_133101\I133101\_ChartAddInBase.h
;	COMDAT ?OnPacketDataMultiItem@CChartAddInBase133101@@MAEXPBD0H@Z
_TEXT	SEGMENT
_lpszRQ$ = 8						; size = 4
_p_szPacketNames$ = 12					; size = 4
_p_bWithReset$ = 16					; size = 4
?OnPacketDataMultiItem@CChartAddInBase133101@@MAEXPBD0H@Z PROC ; CChartAddInBase133101::OnPacketDataMultiItem, COMDAT
; _this$ = ecx

; 131  : 	virtual void	OnPacketDataMultiItem(LPCTSTR lpszRQ, const char *p_szPacketNames, BOOL p_bWithReset)	{}

  00000	c2 0c 00	 ret	 12			; 0000000cH
?OnPacketDataMultiItem@CChartAddInBase133101@@MAEXPBD0H@Z ENDP ; CChartAddInBase133101::OnPacketDataMultiItem
_TEXT	ENDS
; Function compile flags: /Ogtp
; File D:\git\src\IBK\IBK_DRFN\ProjSrc\SrcChartEx\ChartAddIn\ChartAnalysisToolAddIn\Include_AddIn_133101\I133101\_ChartAddInBase.h
;	COMDAT ?OnDrawBeforeGraph@CChartAddInBase133101@@MAEXPAUHDC__@@@Z
_TEXT	SEGMENT
_p_hDC$ = 8						; size = 4
?OnDrawBeforeGraph@CChartAddInBase133101@@MAEXPAUHDC__@@@Z PROC ; CChartAddInBase133101::OnDrawBeforeGraph, COMDAT
; _this$ = ecx

; 127  : 	virtual void	OnDrawBeforeGraph( HDC p_hDC)	{}

  00000	c2 04 00	 ret	 4
?OnDrawBeforeGraph@CChartAddInBase133101@@MAEXPAUHDC__@@@Z ENDP ; CChartAddInBase133101::OnDrawBeforeGraph
_TEXT	ENDS
; Function compile flags: /Ogtp
; File D:\git\src\IBK\IBK_DRFN\ProjSrc\SrcChartEx\ChartAddIn\ChartAnalysisToolAddIn\Include_AddIn_133101\I133101\_ChartAddInBase.h
;	COMDAT ?OnLSharedDataChange@CChartAddInBase133101@@MAEXPBD0@Z
_TEXT	SEGMENT
_p_szLShareKey$ = 8					; size = 4
_p_szLShareValue$ = 12					; size = 4
?OnLSharedDataChange@CChartAddInBase133101@@MAEXPBD0@Z PROC ; CChartAddInBase133101::OnLSharedDataChange, COMDAT
; _this$ = ecx

; 123  : 	virtual void	OnLSharedDataChange( const char *p_szLShareKey, const char *p_szLShareValue)	{}

  00000	c2 08 00	 ret	 8
?OnLSharedDataChange@CChartAddInBase133101@@MAEXPBD0@Z ENDP ; CChartAddInBase133101::OnLSharedDataChange
_TEXT	ENDS
; Function compile flags: /Ogtp
; File D:\git\src\IBK\IBK_DRFN\ProjSrc\SrcChartEx\ChartAddIn\ChartAnalysisToolAddIn\Include_AddIn_133101\I133101\_ChartAddInBase.h
;	COMDAT ?OnGSharedDataChange@CChartAddInBase133101@@MAEXPBD0H@Z
_TEXT	SEGMENT
_p_szGShareKey$ = 8					; size = 4
_p_szGShareValue$ = 12					; size = 4
_p_bStartShare$ = 16					; size = 4
?OnGSharedDataChange@CChartAddInBase133101@@MAEXPBD0H@Z PROC ; CChartAddInBase133101::OnGSharedDataChange, COMDAT
; _this$ = ecx

; 121  : 	virtual void	OnGSharedDataChange( const char *p_szGShareKey, const char *p_szGShareValue, BOOL p_bStartShare)	{}

  00000	c2 0c 00	 ret	 12			; 0000000cH
?OnGSharedDataChange@CChartAddInBase133101@@MAEXPBD0H@Z ENDP ; CChartAddInBase133101::OnGSharedDataChange
_TEXT	ENDS
; Function compile flags: /Ogtp
; File D:\git\src\IBK\IBK_DRFN\ProjSrc\SrcChartEx\ChartAddIn\ChartAnalysisToolAddIn\Include_AddIn_133101\I133101\_ChartAddInBase.h
;	COMDAT ?OnOcxDestroyWindow@CChartAddInBase133101@@MAEXXZ
_TEXT	SEGMENT
?OnOcxDestroyWindow@CChartAddInBase133101@@MAEXXZ PROC	; CChartAddInBase133101::OnOcxDestroyWindow, COMDAT
; _this$ = ecx

; 111  : 	virtual void	OnOcxDestroyWindow( void)							{	m_bOcxDestroyed = TRUE;	}

  00000	c7 41 34 01 00
	00 00		 mov	 DWORD PTR [ecx+52], 1
  00007	c3		 ret	 0
?OnOcxDestroyWindow@CChartAddInBase133101@@MAEXXZ ENDP	; CChartAddInBase133101::OnOcxDestroyWindow
_TEXT	ENDS
; Function compile flags: /Ogtp
; File D:\git\src\IBK\IBK_DRFN\ProjSrc\SrcChartEx\ChartAddIn\ChartAnalysisToolAddIn\Include_AddIn_133101\I133101\_ChartAddInBase.h
;	COMDAT ?InvokeAddInStr@CChartAddInBase133101@@MAEHPBD0@Z
_TEXT	SEGMENT
_p_szCommandName$ = 8					; size = 4
_p_szData$ = 12						; size = 4
?InvokeAddInStr@CChartAddInBase133101@@MAEHPBD0@Z PROC	; CChartAddInBase133101::InvokeAddInStr, COMDAT
; _this$ = ecx

; 96   : 	virtual BOOL	InvokeAddInStr( LPCTSTR p_szCommandName, LPCTSTR p_szData)	{	return FALSE;	}	// (2005/9/2 - Seung-Won, Bae) for String Data

  00000	33 c0		 xor	 eax, eax
  00002	c2 08 00	 ret	 8
?InvokeAddInStr@CChartAddInBase133101@@MAEHPBD0@Z ENDP	; CChartAddInBase133101::InvokeAddInStr
_TEXT	ENDS
; Function compile flags: /Ogtp
; File D:\git\src\IBK\IBK_DRFN\ProjSrc\SrcChartEx\ChartAddIn\ChartAnalysisToolAddIn\Include_AddIn_133101\I133101\_ChartAddInBase.h
;	COMDAT ?InvokeAddIn@CChartAddInBase133101@@MAEHHJ@Z
_TEXT	SEGMENT
_p_nCommandType$ = 8					; size = 4
_p_lData$ = 12						; size = 4
?InvokeAddIn@CChartAddInBase133101@@MAEHHJ@Z PROC	; CChartAddInBase133101::InvokeAddIn, COMDAT
; _this$ = ecx

; 95   : 	virtual BOOL	InvokeAddIn( int p_nCommandType, long p_lData)	{	return FALSE;	}

  00000	33 c0		 xor	 eax, eax
  00002	c2 08 00	 ret	 8
?InvokeAddIn@CChartAddInBase133101@@MAEHHJ@Z ENDP	; CChartAddInBase133101::InvokeAddIn
_TEXT	ENDS
; Function compile flags: /Ogtp
; File D:\git\src\IBK\IBK_DRFN\ProjSrc\SrcChartEx\ChartAddIn\ChartAnalysisToolAddIn\Include_AddIn_133101\I133101\_ChartAddInBase.h
;	COMDAT ?GetAddInCustomInterface@CChartAddInBase133101@@MAEPAUIUnknown@@XZ
_TEXT	SEGMENT
?GetAddInCustomInterface@CChartAddInBase133101@@MAEPAUIUnknown@@XZ PROC ; CChartAddInBase133101::GetAddInCustomInterface, COMDAT
; _this$ = ecx

; 91   : 	virtual IUnknown *	GetAddInCustomInterface( void)				{	return NULL;	}

  00000	33 c0		 xor	 eax, eax
  00002	c3		 ret	 0
?GetAddInCustomInterface@CChartAddInBase133101@@MAEPAUIUnknown@@XZ ENDP ; CChartAddInBase133101::GetAddInCustomInterface
_TEXT	ENDS
; Function compile flags: /Ogtp
; File D:\git\src\IBK\IBK_DRFN\ProjSrc\SrcChartEx\ChartAddIn\ChartAnalysisToolAddIn\Include_AddIn_133101\I133101\_ChartAddInBase.h
;	COMDAT ?QueryInterface@CChartAddInBase133101@@MAGJABU_GUID@@PAPAX@Z
_TEXT	SEGMENT
_this$ = 8						; size = 4
_iid$ = 12						; size = 4
_ppvObject$ = 16					; size = 4
?QueryInterface@CChartAddInBase133101@@MAGJABU_GUID@@PAPAX@Z PROC ; CChartAddInBase133101::QueryInterface, COMDAT

; 54   : 	_IWRAPPER_IUNKNOWN_INTERFACE()

  00000	b8 02 40 00 80	 mov	 eax, -2147467262	; 80004002H
  00005	c2 0c 00	 ret	 12			; 0000000cH
?QueryInterface@CChartAddInBase133101@@MAGJABU_GUID@@PAPAX@Z ENDP ; CChartAddInBase133101::QueryInterface
_TEXT	ENDS
; Function compile flags: /Ogtp
; File D:\git\src\IBK\IBK_DRFN\ProjSrc\SrcChartEx\ChartAddIn\ChartAnalysisToolAddIn\Include_AddIn_133101\I133101\_ChartAddInBase.h
;	COMDAT ?Release@CChartAddInBase133101@@MAGKXZ
_TEXT	SEGMENT
_this$ = 8						; size = 4
?Release@CChartAddInBase133101@@MAGKXZ PROC		; CChartAddInBase133101::Release, COMDAT

; 54   : 	_IWRAPPER_IUNKNOWN_INTERFACE()

  00000	55		 push	 ebp
  00001	8b ec		 mov	 ebp, esp
  00003	5d		 pop	 ebp
  00004	e9 00 00 00 00	 jmp	 ?Release@CIWUnknown@@MAGKXZ ; CIWUnknown::Release
?Release@CChartAddInBase133101@@MAGKXZ ENDP		; CChartAddInBase133101::Release
_TEXT	ENDS
; Function compile flags: /Ogtp
; File D:\git\src\IBK\IBK_DRFN\ProjSrc\SrcChartEx\ChartAddIn\ChartAnalysisToolAddIn\Include_AddIn_133101\I133101\_ChartAddInBase.h
;	COMDAT ?AddRef@CChartAddInBase133101@@MAGKXZ
_TEXT	SEGMENT
_this$ = 8						; size = 4
?AddRef@CChartAddInBase133101@@MAGKXZ PROC		; CChartAddInBase133101::AddRef, COMDAT

; 54   : 	_IWRAPPER_IUNKNOWN_INTERFACE()

  00000	55		 push	 ebp
  00001	8b ec		 mov	 ebp, esp
  00003	5d		 pop	 ebp
  00004	e9 00 00 00 00	 jmp	 ?AddRef@CIWUnknown@@MAGKXZ ; CIWUnknown::AddRef
?AddRef@CChartAddInBase133101@@MAGKXZ ENDP		; CChartAddInBase133101::AddRef
_TEXT	ENDS
; Function compile flags: /Ogtp
; File D:\git\src\IBK\IBK_DRFN\ProjSrc\SrcChartEx\ChartAddIn\ChartAnalysisToolAddIn\Include_AddIn_133101\_IWUnknown.h
;	COMDAT ?PreDestruct@CIWUnknown@@MAEXXZ
_TEXT	SEGMENT
?PreDestruct@CIWUnknown@@MAEXXZ PROC			; CIWUnknown::PreDestruct, COMDAT
; _this$ = ecx

; 48   : 	virtual void	PreDestruct( void)		{}

  00000	c2 00 00	 ret	 0
?PreDestruct@CIWUnknown@@MAEXXZ ENDP			; CIWUnknown::PreDestruct
_TEXT	ENDS
; Function compile flags: /Ogtp
; File D:\git\src\IBK\IBK_DRFN\ProjSrc\SrcChartEx\ChartAddIn\ChartAnalysisToolAddIn\Include_AddIn_133101\_IWUnknown.h
;	COMDAT ?PreDestructX@CIWUnknown@@MAEXXZ
_TEXT	SEGMENT
?PreDestructX@CIWUnknown@@MAEXXZ PROC			; CIWUnknown::PreDestructX, COMDAT
; _this$ = ecx

; 47   : 	virtual void	PreDestructX( void)		{}

  00000	c2 00 00	 ret	 0
?PreDestructX@CIWUnknown@@MAEXXZ ENDP			; CIWUnknown::PreDestructX
_TEXT	ENDS
; Function compile flags: /Ogtp
; File D:\git\src\IBK\IBK_DRFN\ProjSrc\SrcChartEx\ChartAddIn\ChartAnalysisToolAddIn\Include_AddIn_133101\_IWUnknown.h
;	COMDAT ?PostConstruct@CIWUnknown@@MAEXXZ
_TEXT	SEGMENT
?PostConstruct@CIWUnknown@@MAEXXZ PROC			; CIWUnknown::PostConstruct, COMDAT
; _this$ = ecx

; 46   : 	virtual void	PostConstruct( void)	{}

  00000	c2 00 00	 ret	 0
?PostConstruct@CIWUnknown@@MAEXXZ ENDP			; CIWUnknown::PostConstruct
_TEXT	ENDS
; Function compile flags: /Ogtp
; File C:\Program Files (x86)\Microsoft Visual Studio\2019\Community\VC\Tools\MSVC\14.29.30133\atlmfc\include\afxwin1.inl
; File C:\Program Files (x86)\Microsoft Visual Studio\2019\Community\VC\Tools\MSVC\14.29.30133\atlmfc\include\afx.inl
;	COMDAT ??_GCPen@@UAEPAXI@Z
_TEXT	SEGMENT
___flags$ = 8						; size = 4
??_GCPen@@UAEPAXI@Z PROC				; CPen::`scalar deleting destructor', COMDAT
; _this$ = ecx
  00000	55		 push	 ebp
  00001	8b ec		 mov	 ebp, esp
; File C:\Program Files (x86)\Microsoft Visual Studio\2019\Community\VC\Tools\MSVC\14.29.30133\atlmfc\include\afxwin1.inl

; 106  : 	{ }

  00003	56		 push	 esi
  00004	8b f1		 mov	 esi, ecx
  00006	c7 06 00 00 00
	00		 mov	 DWORD PTR [esi], OFFSET ??_7CPen@@6B@
  0000c	e8 00 00 00 00	 call	 ??1CGdiObject@@UAE@XZ	; CGdiObject::~CGdiObject
  00011	8b 45 08	 mov	 eax, DWORD PTR ___flags$[ebp]
  00014	a8 01		 test	 al, 1
  00016	74 1f		 je	 SHORT $LN12@scalar
  00018	a8 04		 test	 al, 4
  0001a	75 10		 jne	 SHORT $LN3@scalar
; File C:\Program Files (x86)\Microsoft Visual Studio\2019\Community\VC\Tools\MSVC\14.29.30133\atlmfc\include\afx.inl

; 112  : 	{ ::operator delete(p); }

  0001c	56		 push	 esi
  0001d	e8 00 00 00 00	 call	 ??3@YAXPAX@Z		; operator delete
  00022	83 c4 04	 add	 esp, 4
  00025	8b c6		 mov	 eax, esi
  00027	5e		 pop	 esi
  00028	5d		 pop	 ebp
  00029	c2 04 00	 ret	 4
$LN3@scalar:
  0002c	6a 08		 push	 8
  0002e	56		 push	 esi
  0002f	e8 00 00 00 00	 call	 ?__global_delete@@YAXPAXI@Z ; __global_delete
  00034	83 c4 08	 add	 esp, 8
$LN12@scalar:
  00037	8b c6		 mov	 eax, esi
  00039	5e		 pop	 esi
  0003a	5d		 pop	 ebp
  0003b	c2 04 00	 ret	 4
??_GCPen@@UAEPAXI@Z ENDP				; CPen::`scalar deleting destructor'
_TEXT	ENDS
; Function compile flags: /Ogtp
; File C:\Program Files (x86)\Microsoft Visual Studio\2019\Community\VC\Tools\MSVC\14.29.30133\atlmfc\include\afxwin1.inl
;	COMDAT ??1CPen@@UAE@XZ
_TEXT	SEGMENT
??1CPen@@UAE@XZ PROC					; CPen::~CPen, COMDAT
; _this$ = ecx

; 106  : 	{ }

  00000	c7 01 00 00 00
	00		 mov	 DWORD PTR [ecx], OFFSET ??_7CPen@@6B@
  00006	e9 00 00 00 00	 jmp	 ??1CGdiObject@@UAE@XZ	; CGdiObject::~CGdiObject
??1CPen@@UAE@XZ ENDP					; CPen::~CPen
_TEXT	ENDS
; Function compile flags: /Ogtp
; File C:\Program Files (x86)\Microsoft Visual Studio\2019\Community\VC\Tools\MSVC\14.29.30133\atlmfc\include\afx.inl
;	COMDAT ??_GCGdiObject@@UAEPAXI@Z
_TEXT	SEGMENT
___flags$ = 8						; size = 4
??_GCGdiObject@@UAEPAXI@Z PROC				; CGdiObject::`scalar deleting destructor', COMDAT
; _this$ = ecx
  00000	55		 push	 ebp
  00001	8b ec		 mov	 ebp, esp
  00003	56		 push	 esi
  00004	8b f1		 mov	 esi, ecx
  00006	e8 00 00 00 00	 call	 ??1CGdiObject@@UAE@XZ	; CGdiObject::~CGdiObject
  0000b	8b 45 08	 mov	 eax, DWORD PTR ___flags$[ebp]
  0000e	a8 01		 test	 al, 1
  00010	74 1f		 je	 SHORT $LN9@scalar
  00012	a8 04		 test	 al, 4
  00014	75 10		 jne	 SHORT $LN3@scalar

; 112  : 	{ ::operator delete(p); }

  00016	56		 push	 esi
  00017	e8 00 00 00 00	 call	 ??3@YAXPAX@Z		; operator delete
  0001c	83 c4 04	 add	 esp, 4
  0001f	8b c6		 mov	 eax, esi
  00021	5e		 pop	 esi
  00022	5d		 pop	 ebp
  00023	c2 04 00	 ret	 4
$LN3@scalar:
  00026	6a 08		 push	 8
  00028	56		 push	 esi
  00029	e8 00 00 00 00	 call	 ?__global_delete@@YAXPAXI@Z ; __global_delete
  0002e	83 c4 08	 add	 esp, 8
$LN9@scalar:
  00031	8b c6		 mov	 eax, esi
  00033	5e		 pop	 esi
  00034	5d		 pop	 ebp
  00035	c2 04 00	 ret	 4
??_GCGdiObject@@UAEPAXI@Z ENDP				; CGdiObject::`scalar deleting destructor'
_TEXT	ENDS
; Function compile flags: /Ogtp
; File C:\Program Files (x86)\Microsoft Visual Studio\2019\Community\VC\Tools\MSVC\14.29.30133\atlmfc\include\afxwin1.inl
;	COMDAT ??1CGdiObject@@UAE@XZ
_TEXT	SEGMENT
_pException$2 = -540					; size = 4
_strMsg$3 = -536					; size = 4
_szErrorMessage$4 = -532				; size = 512
__$ArrayPad$ = -20					; size = 4
__$EHRec$ = -16						; size = 16
??1CGdiObject@@UAE@XZ PROC				; CGdiObject::~CGdiObject, COMDAT
; _this$ = ecx

; 74   : {

  00000	55		 push	 ebp
  00001	8b ec		 mov	 ebp, esp
  00003	6a ff		 push	 -1
  00005	68 00 00 00 00	 push	 __ehhandler$??1CGdiObject@@UAE@XZ
  0000a	64 a1 00 00 00
	00		 mov	 eax, DWORD PTR fs:0
  00010	50		 push	 eax
  00011	81 ec 10 02 00
	00		 sub	 esp, 528		; 00000210H
  00017	a1 00 00 00 00	 mov	 eax, DWORD PTR ___security_cookie
  0001c	33 c5		 xor	 eax, ebp
  0001e	89 45 ec	 mov	 DWORD PTR __$ArrayPad$[ebp], eax
  00021	53		 push	 ebx
  00022	56		 push	 esi
  00023	57		 push	 edi
  00024	50		 push	 eax
  00025	8d 45 f4	 lea	 eax, DWORD PTR __$EHRec$[ebp+4]
  00028	64 a3 00 00 00
	00		 mov	 DWORD PTR fs:0, eax
  0002e	89 65 f0	 mov	 DWORD PTR __$EHRec$[ebp], esp
  00031	c7 01 00 00 00
	00		 mov	 DWORD PTR [ecx], OFFSET ??_7CGdiObject@@6B@

; 75   : 	AFX_BEGIN_DESTRUCTOR

  00037	c7 45 fc 00 00
	00 00		 mov	 DWORD PTR __$EHRec$[ebp+12], 0

; 76   : 	DeleteObject();

  0003e	e8 00 00 00 00	 call	 ?DeleteObject@CGdiObject@@QAEHXZ ; CGdiObject::DeleteObject
$LN18@CGdiObject:

; 78   : }

  00043	8b 4d f4	 mov	 ecx, DWORD PTR __$EHRec$[ebp+4]
  00046	64 89 0d 00 00
	00 00		 mov	 DWORD PTR fs:0, ecx
  0004d	59		 pop	 ecx
  0004e	5f		 pop	 edi
  0004f	5e		 pop	 esi
  00050	5b		 pop	 ebx
  00051	8b 4d ec	 mov	 ecx, DWORD PTR __$ArrayPad$[ebp]
  00054	33 cd		 xor	 ecx, ebp
  00056	e8 00 00 00 00	 call	 @__security_check_cookie@4
  0005b	8b e5		 mov	 esp, ebp
  0005d	5d		 pop	 ebp
  0005e	c3		 ret	 0
__catch$??1CGdiObject@@UAE@XZ$0:

; 77   : 	AFX_END_DESTRUCTOR

  0005f	8d 8d e8 fd ff
	ff		 lea	 ecx, DWORD PTR _strMsg$3[ebp]
  00065	ff 15 00 00 00
	00		 call	 DWORD PTR __imp_??0?$CStringT@DV?$StrTraitMFC_DLL@DV?$ChTraitsCRT@D@ATL@@@@@ATL@@QAE@XZ
  0006b	8b b5 e4 fd ff
	ff		 mov	 esi, DWORD PTR _pException$2[ebp]
  00071	8d 8d ec fd ff
	ff		 lea	 ecx, DWORD PTR _szErrorMessage$4[ebp]
  00077	6a 00		 push	 0
  00079	68 00 02 00 00	 push	 512			; 00000200H
  0007e	51		 push	 ecx
  0007f	8b 06		 mov	 eax, DWORD PTR [esi]
  00081	8b ce		 mov	 ecx, esi
  00083	c6 45 fc 02	 mov	 BYTE PTR __$EHRec$[ebp+12], 2
  00087	ff 50 14	 call	 DWORD PTR [eax+20]
  0008a	85 c0		 test	 eax, eax
  0008c	74 2a		 je	 SHORT $LN9@CGdiObject
  0008e	8d 85 ec fd ff
	ff		 lea	 eax, DWORD PTR _szErrorMessage$4[ebp]
  00094	50		 push	 eax
  00095	6a 4d		 push	 77			; 0000004dH
  00097	68 00 00 00 00	 push	 OFFSET ??_C@_0HD@JJCHHHNK@C?3?2Program?5Files?5?$CIx86?$CJ?2Microsof@
  0009c	68 00 00 00 00	 push	 OFFSET ??_C@_0BP@OIEOKIDM@Exception?5thrown?5in?5destructor@
  000a1	8d 85 e8 fd ff
	ff		 lea	 eax, DWORD PTR _strMsg$3[ebp]
  000a7	68 00 00 00 00	 push	 OFFSET ??_C@_0BB@HBOOMJBF@?$CFTs?5?$CI?$CFTs?3?$CFd?$CJ?6?$CFTs@
  000ac	50		 push	 eax
  000ad	ff 15 00 00 00
	00		 call	 DWORD PTR __imp_?Format@?$CStringT@DV?$StrTraitMFC_DLL@DV?$ChTraitsCRT@D@ATL@@@@@ATL@@QAAXPBDZZ
  000b3	83 c4 18	 add	 esp, 24			; 00000018H
  000b6	eb 21		 jmp	 SHORT $LN10@CGdiObject
$LN9@CGdiObject:
  000b8	6a 4d		 push	 77			; 0000004dH
  000ba	68 00 00 00 00	 push	 OFFSET ??_C@_0HD@JJCHHHNK@C?3?2Program?5Files?5?$CIx86?$CJ?2Microsof@
  000bf	68 00 00 00 00	 push	 OFFSET ??_C@_0BP@OIEOKIDM@Exception?5thrown?5in?5destructor@
  000c4	8d 85 e8 fd ff
	ff		 lea	 eax, DWORD PTR _strMsg$3[ebp]
  000ca	68 00 00 00 00	 push	 OFFSET ??_C@_0N@OMEMOKLE@?$CFTs?5?$CI?$CFTs?3?$CFd?$CJ@
  000cf	50		 push	 eax
  000d0	ff 15 00 00 00
	00		 call	 DWORD PTR __imp_?Format@?$CStringT@DV?$StrTraitMFC_DLL@DV?$ChTraitsCRT@D@ATL@@@@@ATL@@QAAXPBDZZ
  000d6	83 c4 14	 add	 esp, 20			; 00000014H
$LN10@CGdiObject:
  000d9	6a 00		 push	 0
  000db	6a 00		 push	 0
  000dd	ff b5 e8 fd ff
	ff		 push	 DWORD PTR _strMsg$3[ebp]
  000e3	e8 00 00 00 00	 call	 ?AfxMessageBox@@YGHPBDII@Z ; AfxMessageBox
  000e8	8d 8d e8 fd ff
	ff		 lea	 ecx, DWORD PTR _strMsg$3[ebp]
  000ee	ff 15 00 00 00
	00		 call	 DWORD PTR __imp_??1?$CStringT@DV?$StrTraitMFC_DLL@DV?$ChTraitsCRT@D@ATL@@@@@ATL@@QAE@XZ
  000f4	8b 06		 mov	 eax, DWORD PTR [esi]
  000f6	8b ce		 mov	 ecx, esi
  000f8	6a 01		 push	 1
  000fa	ff 50 04	 call	 DWORD PTR [eax+4]
  000fd	b8 00 00 00 00	 mov	 eax, $LN18@CGdiObject
  00102	c3		 ret	 0
_TEXT	ENDS
;	COMDAT text$x
text$x	SEGMENT
__unwindfunclet$??1CGdiObject@@UAE@XZ$2:
  00000	8d 8d e8 fd ff
	ff		 lea	 ecx, DWORD PTR _strMsg$3[ebp]
  00006	ff 25 00 00 00
	00		 jmp	 DWORD PTR __imp_??1?$CStringT@DV?$StrTraitMFC_DLL@DV?$ChTraitsCRT@D@ATL@@@@@ATL@@QAE@XZ
  0000c	cc		 int	 3
  0000d	cc		 int	 3
  0000e	cc		 int	 3
  0000f	cc		 int	 3
  00010	cc		 int	 3
__ehhandler$??1CGdiObject@@UAE@XZ:
  00011	90		 npad	 1
  00012	90		 npad	 1
  00013	8b 54 24 08	 mov	 edx, DWORD PTR [esp+8]
  00017	8d 42 0c	 lea	 eax, DWORD PTR [edx+12]
  0001a	8b 8a e0 fd ff
	ff		 mov	 ecx, DWORD PTR [edx-544]
  00020	33 c8		 xor	 ecx, eax
  00022	e8 00 00 00 00	 call	 @__security_check_cookie@4
  00027	8b 4a f8	 mov	 ecx, DWORD PTR [edx-8]
  0002a	33 c8		 xor	 ecx, eax
  0002c	e8 00 00 00 00	 call	 @__security_check_cookie@4
  00031	b8 00 00 00 00	 mov	 eax, OFFSET __ehfuncinfo$??1CGdiObject@@UAE@XZ
  00036	e9 00 00 00 00	 jmp	 ___CxxFrameHandler3
text$x	ENDS
??1CGdiObject@@UAE@XZ ENDP				; CGdiObject::~CGdiObject
; Function compile flags: /Ogtp
; File C:\Program Files (x86)\Microsoft Visual Studio\2019\Community\VC\Tools\MSVC\14.29.30133\atlmfc\include\afx.inl
;	COMDAT ?Dump@CObject@@UBEXAAVCDumpContext@@@Z
_TEXT	SEGMENT
___formal$ = 8						; size = 4
?Dump@CObject@@UBEXAAVCDumpContext@@@Z PROC		; CObject::Dump, COMDAT
; _this$ = ecx

; 122  : 	{ /* no dumping in release builds */ }

  00000	c2 04 00	 ret	 4
?Dump@CObject@@UBEXAAVCDumpContext@@@Z ENDP		; CObject::Dump
_TEXT	ENDS
; Function compile flags: /Ogtp
; File C:\Program Files (x86)\Microsoft Visual Studio\2019\Community\VC\Tools\MSVC\14.29.30133\atlmfc\include\afx.inl
;	COMDAT ?AssertValid@CObject@@UBEXXZ
_TEXT	SEGMENT
?AssertValid@CObject@@UBEXXZ PROC			; CObject::AssertValid, COMDAT
; _this$ = ecx

; 120  : 	{ /* no asserts in release builds */ }

  00000	c2 00 00	 ret	 0
?AssertValid@CObject@@UBEXXZ ENDP			; CObject::AssertValid
_TEXT	ENDS
; Function compile flags: /Ogtp
; File C:\Program Files (x86)\Microsoft Visual Studio\2019\Community\VC\Tools\MSVC\14.29.30133\atlmfc\include\afx.inl
;	COMDAT ?Serialize@CObject@@UAEXAAVCArchive@@@Z
_TEXT	SEGMENT
___formal$ = 8						; size = 4
?Serialize@CObject@@UAEXAAVCArchive@@@Z PROC		; CObject::Serialize, COMDAT
; _this$ = ecx

; 106  : 	{ /* CObject does not serialize anything by default */ }

  00000	c2 04 00	 ret	 4
?Serialize@CObject@@UAEXAAVCArchive@@@Z ENDP		; CObject::Serialize
_TEXT	ENDS
; Function compile flags: /Ogtp
; File C:\Program Files (x86)\Microsoft Visual Studio\2019\Community\VC\Tools\MSVC\14.29.30133\atlmfc\include\afx.inl
;	COMDAT ??1CObject@@UAE@XZ
_TEXT	SEGMENT
??1CObject@@UAE@XZ PROC					; CObject::~CObject, COMDAT
; _this$ = ecx

; 104  : 	{ }

  00000	c2 00 00	 ret	 0
??1CObject@@UAE@XZ ENDP					; CObject::~CObject
_TEXT	ENDS
; Function compile flags: /Ogtp
; File D:\git\src\IBK\IBK_DRFN\ProjSrc\SrcChartEx\ChartAddIn\ChartAnalysisToolAddIn\ChartAnalysisToolAddIn\CrosshairsToolAddInImp.cpp
;	COMDAT ?__empty_global_delete@@YAXPAXI@Z
_TEXT	SEGMENT
___formal$ = 8						; size = 4
___formal$ = 12						; size = 4
?__empty_global_delete@@YAXPAXI@Z PROC			; __empty_global_delete, COMDAT

  00000	c2 00 00	 ret	 0
?__empty_global_delete@@YAXPAXI@Z ENDP			; __empty_global_delete
_TEXT	ENDS
; Function compile flags: /Ogtp
; File D:\git\src\IBK\IBK_DRFN\ProjSrc\SrcChartEx\ChartAddIn\ChartAnalysisToolAddIn\ChartAnalysisToolAddIn\CrosshairsToolAddInImp.cpp
;	COMDAT ?__empty_global_delete@@YAXPAX@Z
_TEXT	SEGMENT
___formal$ = 8						; size = 4
?__empty_global_delete@@YAXPAX@Z PROC			; __empty_global_delete, COMDAT

  00000	c2 00 00	 ret	 0
?__empty_global_delete@@YAXPAX@Z ENDP			; __empty_global_delete
_TEXT	ENDS
END
