; Listing generated by Microsoft (R) Optimizing Compiler Version 19.29.30145.0 

	TITLE	D:\git\src\IBK\IBK_DRFN\#DRfn-CS\_Obj\ChartAnalysisToolAddIn\NumericalInquiryDragAddInImp.obj
	.686P
	.XMM
	include listing.inc
	.model	flat

INCLUDELIB MSVCRT
INCLUDELIB OLDNAMES

PUBLIC	?m_eRegisteredEventMap@CNumericalInquiryDragAddInImp@@1QBW4EAddInEventType@IChartAddIn133101@@B ; CNumericalInquiryDragAddInImp::m_eRegisteredEventMap
PUBLIC	??_C@_0L@PBMGCDHJ@NIDLG_DRAG@			; `string'
;	COMDAT ??_C@_0L@PBMGCDHJ@NIDLG_DRAG@
CONST	SEGMENT
??_C@_0L@PBMGCDHJ@NIDLG_DRAG@ DB 'NIDLG_DRAG', 00H	; `string'
CONST	ENDS
CONST	SEGMENT
?m_eRegisteredEventMap@CNumericalInquiryDragAddInImp@@1QBW4EAddInEventType@IChartAddIn133101@@B DD 014H ; CNumericalInquiryDragAddInImp::m_eRegisteredEventMap
	DD	022H
	DD	032H
	DD	037H
	DD	024H
	DD	01dH
	DD	01aH
	DD	01bH
	DD	01H
	DD	02H
	DD	07H
	DD	03bH
	ORG $+192
CONST	ENDS
PUBLIC	?__empty_global_delete@@YAXPAX@Z		; __empty_global_delete
PUBLIC	?__empty_global_delete@@YAXPAXI@Z		; __empty_global_delete
PUBLIC	??3CObject@@SGXPAX@Z				; CObject::operator delete
PUBLIC	?Serialize@CObject@@UAEXAAVCArchive@@@Z		; CObject::Serialize
PUBLIC	?AssertValid@CObject@@UBEXXZ			; CObject::AssertValid
PUBLIC	?Dump@CObject@@UBEXAAVCDumpContext@@@Z		; CObject::Dump
PUBLIC	?PostConstruct@CIWUnknown@@MAEXXZ		; CIWUnknown::PostConstruct
PUBLIC	?PreDestructX@CIWUnknown@@MAEXXZ		; CIWUnknown::PreDestructX
PUBLIC	?PreDestruct@CIWUnknown@@MAEXXZ			; CIWUnknown::PreDestruct
PUBLIC	?AddRef@CChartAddInBase133101@@MAGKXZ		; CChartAddInBase133101::AddRef
PUBLIC	?Release@CChartAddInBase133101@@MAGKXZ		; CChartAddInBase133101::Release
PUBLIC	?QueryInterface@CChartAddInBase133101@@MAGJABU_GUID@@PAPAX@Z ; CChartAddInBase133101::QueryInterface
PUBLIC	?GetAddInCustomInterface@CChartAddInBase133101@@MAEPAUIUnknown@@XZ ; CChartAddInBase133101::GetAddInCustomInterface
PUBLIC	?InvokeAddInStr@CChartAddInBase133101@@MAEHPBD0@Z ; CChartAddInBase133101::InvokeAddInStr
PUBLIC	?OnOcxDestroyWindow@CChartAddInBase133101@@MAEXXZ ; CChartAddInBase133101::OnOcxDestroyWindow
PUBLIC	?OnGSharedDataChange@CChartAddInBase133101@@MAEXPBD0H@Z ; CChartAddInBase133101::OnGSharedDataChange
PUBLIC	?OnLSharedDataChange@CChartAddInBase133101@@MAEXPBD0@Z ; CChartAddInBase133101::OnLSharedDataChange
PUBLIC	?OnDrawBeforeGraph@CChartAddInBase133101@@MAEXPAUHDC__@@@Z ; CChartAddInBase133101::OnDrawBeforeGraph
PUBLIC	?OnTimer@CChartAddInBase133101@@MAEXI@Z		; CChartAddInBase133101::OnTimer
PUBLIC	?OnCaptureChanged@CChartAddInBase133101@@MAEXPAUHWND__@@QAUHBITMAP__@@@Z ; CChartAddInBase133101::OnCaptureChanged
PUBLIC	?OnUserIndiatorConditionLoaded@CChartAddInBase133101@@MAEXXZ ; CChartAddInBase133101::OnUserIndiatorConditionLoaded
PUBLIC	?OnChartItemChanged@CChartAddInBase133101@@MAEXXZ ; CChartAddInBase133101::OnChartItemChanged
PUBLIC	?OnGraphDataChanged@CChartAddInBase133101@@MAEXXZ ; CChartAddInBase133101::OnGraphDataChanged
PUBLIC	?OnBlockRemoved@CChartAddInBase133101@@MAEXHH@Z	; CChartAddInBase133101::OnBlockRemoved
PUBLIC	?OnGraphAdded@CChartAddInBase133101@@MAEXPBD0@Z	; CChartAddInBase133101::OnGraphAdded
PUBLIC	?OnManualRealData@CChartAddInBase133101@@MAEXPBDNH@Z ; CChartAddInBase133101::OnManualRealData
PUBLIC	?OnContextMenu@CChartAddInBase133101@@MAEXPAUHWND__@@AAUtagPOINT@@@Z ; CChartAddInBase133101::OnContextMenu
PUBLIC	?OnGraphDeleted@CChartAddInBase133101@@MAEXPBD0@Z ; CChartAddInBase133101::OnGraphDeleted
PUBLIC	?OnPacketTruncated@CChartAddInBase133101@@MAEXH@Z ; CChartAddInBase133101::OnPacketTruncated
PUBLIC	?OnBlockChanged@CChartAddInBase133101@@MAEXW4BLOCKBEHAVIOR@CBlockBaseData@@HHHH@Z ; CChartAddInBase133101::OnBlockChanged
PUBLIC	?OnToolCommand@CChartAddInBase133101@@MAEXHH@Z	; CChartAddInBase133101::OnToolCommand
PUBLIC	?OnRealData@CChartAddInBase133101@@MAEXPBDN0@Z	; CChartAddInBase133101::OnRealData
PUBLIC	?OnIndexedRealData@CChartAddInBase133101@@MAEXPBDHN@Z ; CChartAddInBase133101::OnIndexedRealData
PUBLIC	?OnLoadEnvironment@CChartAddInBase133101@@MAEXPAUIPropertyMap@@@Z ; CChartAddInBase133101::OnLoadEnvironment
PUBLIC	?OnSaveEnvironment@CChartAddInBase133101@@MAEXPAUIPropertyMap@@@Z ; CChartAddInBase133101::OnSaveEnvironment
PUBLIC	?DrawCursor@CChartAddInBase133101@@MAE?AUtagRECT@@PAUHDC__@@@Z ; CChartAddInBase133101::DrawCursor
PUBLIC	?OnRecalculationComplete@CChartAddInBase133101@@MAEXXZ ; CChartAddInBase133101::OnRecalculationComplete
PUBLIC	?OnPreRealData@CChartAddInBase133101@@MAEHPBDAAN0@Z ; CChartAddInBase133101::OnPreRealData
PUBLIC	?OnPreIndexedRealData@CChartAddInBase133101@@MAEHPBDHAAN@Z ; CChartAddInBase133101::OnPreIndexedRealData
PUBLIC	?OnPreRealPacketEnd@CChartAddInBase133101@@MAEHPBD@Z ; CChartAddInBase133101::OnPreRealPacketEnd
PUBLIC	?OnCmdMsg@CChartAddInBase133101@@MAEHIHPAUICmdUI133101@@@Z ; CChartAddInBase133101::OnCmdMsg
PUBLIC	?OnAddInMsg@CChartAddInBase133101@@MAEHPBDJ@Z	; CChartAddInBase133101::OnAddInMsg
PUBLIC	?OnAddInToolCommand@CChartAddInBase133101@@MAEHW4EAICommandType@@PBD@Z ; CChartAddInBase133101::OnAddInToolCommand
PUBLIC	?OnAddInToolCommand@CChartAddInBase133101@@MAEHW4EAICommandType@@PBD1@Z ; CChartAddInBase133101::OnAddInToolCommand
PUBLIC	?OnAddInToolCommand@CChartAddInBase133101@@MAEHW4EAICommandType@@PBDJ@Z ; CChartAddInBase133101::OnAddInToolCommand
PUBLIC	?OnAddInToolCommand@CChartAddInBase133101@@MAEHW4EAICommandType@@PBUIAddInDllBase@@@Z ; CChartAddInBase133101::OnAddInToolCommand
PUBLIC	?OnAddInToolCommand@CChartAddInBase133101@@MAEHW4EAICommandType@@JPBD@Z ; CChartAddInBase133101::OnAddInToolCommand
PUBLIC	?OnAddInToolCommand@CChartAddInBase133101@@MAEHW4EAICommandType@@JPBD11@Z ; CChartAddInBase133101::OnAddInToolCommand
PUBLIC	?OnAddInToolCommand@CChartAddInBase133101@@MAEHW4EAICommandType@@JJ@Z ; CChartAddInBase133101::OnAddInToolCommand
PUBLIC	?OnAddInToolCommand@CChartAddInBase133101@@MAEHW4EAICommandType@@JJJJJJJJJ@Z ; CChartAddInBase133101::OnAddInToolCommand
PUBLIC	?OnAddInToolCommand@CChartAddInBase133101@@MAEHAAJW4EAICommandType@@@Z ; CChartAddInBase133101::OnAddInToolCommand
PUBLIC	?OnAddInToolCommand@CChartAddInBase133101@@MAEHAAJW4EAICommandType@@PAUIGraphInfo133101@@@Z ; CChartAddInBase133101::OnAddInToolCommand
PUBLIC	?OnAddInToolCommand@CChartAddInBase133101@@MAEHAAJW4EAICommandType@@PBD@Z ; CChartAddInBase133101::OnAddInToolCommand
PUBLIC	?OnAddInToolCommand@CChartAddInBase133101@@MAEHAAJW4EAICommandType@@PBDPAVCObject@@@Z ; CChartAddInBase133101::OnAddInToolCommand
PUBLIC	?OnAddInToolCommand@CChartAddInBase133101@@MAEHAAJW4EAICommandType@@J@Z ; CChartAddInBase133101::OnAddInToolCommand
PUBLIC	?OnAddInToolCommand@CChartAddInBase133101@@MAEHAAJW4EAICommandType@@JJ@Z ; CChartAddInBase133101::OnAddInToolCommand
PUBLIC	?OnKeyDown@CChartAddInBase133101@@MAEHIII@Z	; CChartAddInBase133101::OnKeyDown
PUBLIC	?OnKeyUp@CChartAddInBase133101@@MAEHIII@Z	; CChartAddInBase133101::OnKeyUp
PUBLIC	?OnMouseWheel@CChartAddInBase133101@@MAEHIFUtagPOINT@@K@Z ; CChartAddInBase133101::OnMouseWheel
PUBLIC	?OnLButtonDblClk@CChartAddInBase133101@@MAEHPAUHDC__@@IAAUtagPOINT@@K@Z ; CChartAddInBase133101::OnLButtonDblClk
PUBLIC	?OnRButtonDown@CChartAddInBase133101@@MAEHPAUHDC__@@IAAUtagPOINT@@K@Z ; CChartAddInBase133101::OnRButtonDown
PUBLIC	?OnRButtonUp@CChartAddInBase133101@@MAEHPAUHDC__@@IAAUtagPOINT@@K@Z ; CChartAddInBase133101::OnRButtonUp
PUBLIC	?OnRButtonDblClk@CChartAddInBase133101@@MAEHPAUHDC__@@IAAUtagPOINT@@K@Z ; CChartAddInBase133101::OnRButtonDblClk
PUBLIC	??0CNumericalInquiryDragAddInImp@@QAE@PAUIChartOCX133101@@PAUIAddInDllBase@@@Z ; CNumericalInquiryDragAddInImp::CNumericalInquiryDragAddInImp
PUBLIC	??1CNumericalInquiryDragAddInImp@@UAE@XZ	; CNumericalInquiryDragAddInImp::~CNumericalInquiryDragAddInImp
PUBLIC	?GetRegisteredEventMap@CNumericalInquiryDragAddInImp@@MBEPBW4EAddInEventType@IChartAddIn133101@@XZ ; CNumericalInquiryDragAddInImp::GetRegisteredEventMap
PUBLIC	?InvokeAddIn@CNumericalInquiryDragAddInImp@@MAEHHJ@Z ; CNumericalInquiryDragAddInImp::InvokeAddIn
PUBLIC	?OnDrawAfterGraph@CNumericalInquiryDragAddInImp@@MAEXPAUHDC__@@@Z ; CNumericalInquiryDragAddInImp::OnDrawAfterGraph
PUBLIC	?OnResetChart@CNumericalInquiryDragAddInImp@@MAEXXZ ; CNumericalInquiryDragAddInImp::OnResetChart
PUBLIC	?OnRealPacketEnd@CNumericalInquiryDragAddInImp@@MAEXPBD@Z ; CNumericalInquiryDragAddInImp::OnRealPacketEnd
PUBLIC	?OnPacketDataMultiItem@CNumericalInquiryDragAddInImp@@MAEXPBD0H@Z ; CNumericalInquiryDragAddInImp::OnPacketDataMultiItem
PUBLIC	?OnResetMainBlock@CNumericalInquiryDragAddInImp@@MAEXXZ ; CNumericalInquiryDragAddInImp::OnResetMainBlock
PUBLIC	?OnAddInToolCommand@CNumericalInquiryDragAddInImp@@MAEHW4EAICommandType@@@Z ; CNumericalInquiryDragAddInImp::OnAddInToolCommand
PUBLIC	?OnAddInToolCommand@CNumericalInquiryDragAddInImp@@MAEHW4EAICommandType@@PAUHDC__@@IAAUtagPOINT@@K@Z ; CNumericalInquiryDragAddInImp::OnAddInToolCommand
PUBLIC	?OnAddInToolCommand@CNumericalInquiryDragAddInImp@@MAEHW4EAICommandType@@J@Z ; CNumericalInquiryDragAddInImp::OnAddInToolCommand
PUBLIC	?OnMouseMove@CNumericalInquiryDragAddInImp@@MAEHPAUHDC__@@IAAUtagPOINT@@KQAUHBITMAP__@@@Z ; CNumericalInquiryDragAddInImp::OnMouseMove
PUBLIC	?OnLButtonDown@CNumericalInquiryDragAddInImp@@MAEHPAUHDC__@@IAAUtagPOINT@@K@Z ; CNumericalInquiryDragAddInImp::OnLButtonDown
PUBLIC	?OnLButtonUp@CNumericalInquiryDragAddInImp@@MAEHPAUHDC__@@IAAUtagPOINT@@K@Z ; CNumericalInquiryDragAddInImp::OnLButtonUp
PUBLIC	??_GCNumericalInquiryDragAddInImp@@UAEPAXI@Z	; CNumericalInquiryDragAddInImp::`scalar deleting destructor'
PUBLIC	?LoadResourceDLL@IMetaTable@@QAEPAUHINSTANCE__@@PAUHWND__@@PAU2@@Z ; IMetaTable::LoadResourceDLL
PUBLIC	??1CMultiLanguageResourceSetter@@QAE@XZ		; CMultiLanguageResourceSetter::~CMultiLanguageResourceSetter
PUBLIC	?QueryInterface@CChartAddInBase133101@@O7AGJABU_GUID@@PAPAX@Z ; [thunk]:CChartAddInBase133101::QueryInterface`adjustor{8}'
PUBLIC	?AddRef@CChartAddInBase133101@@O7AGKXZ		; [thunk]:CChartAddInBase133101::AddRef`adjustor{8}'
PUBLIC	?Release@CChartAddInBase133101@@O7AGKXZ		; [thunk]:CChartAddInBase133101::Release`adjustor{8}'
PUBLIC	??_ECNumericalInquiryDragAddInImp@@W7AEPAXI@Z	; [thunk]:CNumericalInquiryDragAddInImp::`vector deleting destructor'
PUBLIC	??_R0?AVCObject@@@8				; CObject `RTTI Type Descriptor'
PUBLIC	??_R3CObject@@8					; CObject::`RTTI Class Hierarchy Descriptor'
PUBLIC	??_R2CObject@@8					; CObject::`RTTI Base Class Array'
PUBLIC	??_R1A@?0A@EA@CObject@@8			; CObject::`RTTI Base Class Descriptor at (0,-1,0,64)'
PUBLIC	??_R0?AUIUnknown@@@8				; IUnknown `RTTI Type Descriptor'
PUBLIC	??_R3IUnknown@@8				; IUnknown::`RTTI Class Hierarchy Descriptor'
PUBLIC	??_R2IUnknown@@8				; IUnknown::`RTTI Base Class Array'
PUBLIC	??_R1A@?0A@EA@IUnknown@@8			; IUnknown::`RTTI Base Class Descriptor at (0,-1,0,64)'
PUBLIC	?m_strAddInItemName@CNumericalInquiryDragAddInImp@@2V?$CStringT@DV?$StrTraitMFC_DLL@DV?$ChTraitsCRT@D@ATL@@@@@ATL@@A ; CNumericalInquiryDragAddInImp::m_strAddInItemName
PUBLIC	??_7CNumericalInquiryDragAddInImp@@6BCIWUnknown@@@ ; CNumericalInquiryDragAddInImp::`vftable'
PUBLIC	??_7CNumericalInquiryDragAddInImp@@6BIChartAddIn133101@@@ ; CNumericalInquiryDragAddInImp::`vftable'
PUBLIC	??_C@_0BA@ENJOCHIO@LoadResourceDLL@		; `string'
PUBLIC	??_R0?AUIChartAddIn133101@@@8			; IChartAddIn133101 `RTTI Type Descriptor'
PUBLIC	??_R3IChartAddIn133101@@8			; IChartAddIn133101::`RTTI Class Hierarchy Descriptor'
PUBLIC	??_R2IChartAddIn133101@@8			; IChartAddIn133101::`RTTI Base Class Array'
PUBLIC	??_R1A@?0A@EA@IChartAddIn133101@@8		; IChartAddIn133101::`RTTI Base Class Descriptor at (0,-1,0,64)'
PUBLIC	??_R4CNumericalInquiryDragAddInImp@@6BCIWUnknown@@@ ; CNumericalInquiryDragAddInImp::`RTTI Complete Object Locator'
PUBLIC	??_R0?AVCNumericalInquiryDragAddInImp@@@8	; CNumericalInquiryDragAddInImp `RTTI Type Descriptor'
PUBLIC	??_R3CNumericalInquiryDragAddInImp@@8		; CNumericalInquiryDragAddInImp::`RTTI Class Hierarchy Descriptor'
PUBLIC	??_R2CNumericalInquiryDragAddInImp@@8		; CNumericalInquiryDragAddInImp::`RTTI Base Class Array'
PUBLIC	??_R1A@?0A@EA@CNumericalInquiryDragAddInImp@@8	; CNumericalInquiryDragAddInImp::`RTTI Base Class Descriptor at (0,-1,0,64)'
PUBLIC	??_R1A@?0A@EA@CChartAddInBase133101@@8		; CChartAddInBase133101::`RTTI Base Class Descriptor at (0,-1,0,64)'
PUBLIC	??_R0?AVCChartAddInBase133101@@@8		; CChartAddInBase133101 `RTTI Type Descriptor'
PUBLIC	??_R3CChartAddInBase133101@@8			; CChartAddInBase133101::`RTTI Class Hierarchy Descriptor'
PUBLIC	??_R2CChartAddInBase133101@@8			; CChartAddInBase133101::`RTTI Base Class Array'
PUBLIC	??_R1A@?0A@EA@CIWUnknown@@8			; CIWUnknown::`RTTI Base Class Descriptor at (0,-1,0,64)'
PUBLIC	??_R0?AVCIWUnknown@@@8				; CIWUnknown `RTTI Type Descriptor'
PUBLIC	??_R3CIWUnknown@@8				; CIWUnknown::`RTTI Class Hierarchy Descriptor'
PUBLIC	??_R2CIWUnknown@@8				; CIWUnknown::`RTTI Base Class Array'
PUBLIC	??_R17?0A@EA@IChartAddIn133101@@8		; IChartAddIn133101::`RTTI Base Class Descriptor at (8,-1,0,64)'
PUBLIC	??_R17?0A@EA@IUnknown@@8			; IUnknown::`RTTI Base Class Descriptor at (8,-1,0,64)'
PUBLIC	??_R4CNumericalInquiryDragAddInImp@@6BIChartAddIn133101@@@ ; CNumericalInquiryDragAddInImp::`RTTI Complete Object Locator'
EXTRN	??2@YAPAXI@Z:PROC				; operator new
EXTRN	??3@YAXPAX@Z:PROC				; operator delete
EXTRN	?__global_delete@@YAXPAXI@Z:PROC		; __global_delete
EXTRN	_atexit:PROC
EXTRN	___std_terminate:PROC
EXTRN	__imp__GetProcAddress@8:PROC
EXTRN	__imp__RedrawWindow@16:PROC
EXTRN	__imp__EqualRect@8:PROC
EXTRN	?GetRuntimeClass@CObject@@UBEPAUCRuntimeClass@@XZ:PROC ; CObject::GetRuntimeClass
EXTRN	__imp_??0?$CStringT@DV?$StrTraitMFC_DLL@DV?$ChTraitsCRT@D@ATL@@@@@ATL@@QAE@PBD@Z:PROC
EXTRN	__imp_??1?$CStringT@DV?$StrTraitMFC_DLL@DV?$ChTraitsCRT@D@ATL@@@@@ATL@@QAE@XZ:PROC
EXTRN	?AfxGetModuleState@@YGPAVAFX_MODULE_STATE@@XZ:PROC ; AfxGetModuleState
EXTRN	?AfxGetStaticModuleState@@YGPAVAFX_MODULE_STATE@@XZ:PROC ; AfxGetStaticModuleState
EXTRN	?FromHandle@CDC@@SGPAV1@PAUHDC__@@@Z:PROC	; CDC::FromHandle
EXTRN	?AddRef@CIWUnknown@@MAGKXZ:PROC			; CIWUnknown::AddRef
EXTRN	?Release@CIWUnknown@@MAGKXZ:PROC		; CIWUnknown::Release
EXTRN	??0CChartAddInBase133101@@IAE@PAUIChartOCX133101@@PAUIAddInDllBase@@@Z:PROC ; CChartAddInBase133101::CChartAddInBase133101
EXTRN	??1CChartAddInBase133101@@MAE@XZ:PROC		; CChartAddInBase133101::~CChartAddInBase133101
EXTRN	?HasFullManager@CChartAddInBase133101@@MAEHXZ:PROC ; CChartAddInBase133101::HasFullManager
EXTRN	?RegisterEventMap@CChartAddInBase133101@@UAEHH@Z:PROC ; CChartAddInBase133101::RegisterEventMap
EXTRN	?UnregisterEventMap@CChartAddInBase133101@@UAEHXZ:PROC ; CChartAddInBase133101::UnregisterEventMap
EXTRN	??_ECNumericalInquiryDragAddInImp@@UAEPAXI@Z:PROC ; CNumericalInquiryDragAddInImp::`vector deleting destructor'
EXTRN	??0CInquiryDataWindowDlg@@QAE@PAUIChartOCX133101@@PAVCWnd@@@Z:PROC ; CInquiryDataWindowDlg::CInquiryDataWindowDlg
EXTRN	?ShowNumericalInquiryDlg@CInquiryDataWindowDlg@@QAEXH@Z:PROC ; CInquiryDataWindowDlg::ShowNumericalInquiryDlg
EXTRN	?ShowNumericalInquiryDlg@CInquiryDataWindowDlg@@QAEXPAVCDC@@ABVCPoint@@@Z:PROC ; CInquiryDataWindowDlg::ShowNumericalInquiryDlg
EXTRN	?SetNumericalInquiryDlgBrush@CInquiryDataWindowDlg@@QAEXK@Z:PROC ; CInquiryDataWindowDlg::SetNumericalInquiryDlgBrush
EXTRN	?OnNumericalInquiryOptionChanged@CInquiryDataWindowDlg@@QAEXJ@Z:PROC ; CInquiryDataWindowDlg::OnNumericalInquiryOptionChanged
EXTRN	?Refresh@CInquiryDataWindowDlg@@QAEXXZ:PROC	; CInquiryDataWindowDlg::Refresh
EXTRN	@__security_check_cookie@4:PROC
EXTRN	___CxxFrameHandler3:PROC
EXTRN	??_7type_info@@6B@:QWORD			; type_info::`vftable'
EXTRN	?g_iMetaTable@@3VIMetaTable@@A:BYTE		; g_iMetaTable
EXTRN	___security_cookie:DWORD
_BSS	SEGMENT
?m_strAddInItemName@CNumericalInquiryDragAddInImp@@2V?$CStringT@DV?$StrTraitMFC_DLL@DV?$ChTraitsCRT@D@ATL@@@@@ATL@@A DD 01H DUP (?) ; CNumericalInquiryDragAddInImp::m_strAddInItemName
_BSS	ENDS
CRT$XCU	SEGMENT
??m_strAddInItemName$initializer$@CNumericalInquiryDragAddInImp@@2P6AXXZA@@3P6AXXZA DD FLAT:??__E?m_strAddInItemName@CNumericalInquiryDragAddInImp@@2V?$CStringT@DV?$StrTraitMFC_DLL@DV?$ChTraitsCRT@D@ATL@@@@@ATL@@A@@YAXXZ ; ??m_strAddInItemName$initializer$@CNumericalInquiryDragAddInImp@@2P6AXXZA@@3P6AXXZA
CRT$XCU	ENDS
;	COMDAT ??_R4CNumericalInquiryDragAddInImp@@6BIChartAddIn133101@@@
rdata$r	SEGMENT
??_R4CNumericalInquiryDragAddInImp@@6BIChartAddIn133101@@@ DD 00H ; CNumericalInquiryDragAddInImp::`RTTI Complete Object Locator'
	DD	08H
	DD	00H
	DD	FLAT:??_R0?AVCNumericalInquiryDragAddInImp@@@8
	DD	FLAT:??_R3CNumericalInquiryDragAddInImp@@8
rdata$r	ENDS
;	COMDAT ??_R17?0A@EA@IUnknown@@8
rdata$r	SEGMENT
??_R17?0A@EA@IUnknown@@8 DD FLAT:??_R0?AUIUnknown@@@8	; IUnknown::`RTTI Base Class Descriptor at (8,-1,0,64)'
	DD	00H
	DD	08H
	DD	0ffffffffH
	DD	00H
	DD	040H
	DD	FLAT:??_R3IUnknown@@8
rdata$r	ENDS
;	COMDAT ??_R17?0A@EA@IChartAddIn133101@@8
rdata$r	SEGMENT
??_R17?0A@EA@IChartAddIn133101@@8 DD FLAT:??_R0?AUIChartAddIn133101@@@8 ; IChartAddIn133101::`RTTI Base Class Descriptor at (8,-1,0,64)'
	DD	01H
	DD	08H
	DD	0ffffffffH
	DD	00H
	DD	040H
	DD	FLAT:??_R3IChartAddIn133101@@8
rdata$r	ENDS
;	COMDAT ??_R2CIWUnknown@@8
rdata$r	SEGMENT
??_R2CIWUnknown@@8 DD FLAT:??_R1A@?0A@EA@CIWUnknown@@8	; CIWUnknown::`RTTI Base Class Array'
	DD	FLAT:??_R1A@?0A@EA@CObject@@8
rdata$r	ENDS
;	COMDAT ??_R3CIWUnknown@@8
rdata$r	SEGMENT
??_R3CIWUnknown@@8 DD 00H				; CIWUnknown::`RTTI Class Hierarchy Descriptor'
	DD	00H
	DD	02H
	DD	FLAT:??_R2CIWUnknown@@8
rdata$r	ENDS
;	COMDAT ??_R0?AVCIWUnknown@@@8
data$rs	SEGMENT
??_R0?AVCIWUnknown@@@8 DD FLAT:??_7type_info@@6B@	; CIWUnknown `RTTI Type Descriptor'
	DD	00H
	DB	'.?AVCIWUnknown@@', 00H
data$rs	ENDS
;	COMDAT ??_R1A@?0A@EA@CIWUnknown@@8
rdata$r	SEGMENT
??_R1A@?0A@EA@CIWUnknown@@8 DD FLAT:??_R0?AVCIWUnknown@@@8 ; CIWUnknown::`RTTI Base Class Descriptor at (0,-1,0,64)'
	DD	01H
	DD	00H
	DD	0ffffffffH
	DD	00H
	DD	040H
	DD	FLAT:??_R3CIWUnknown@@8
rdata$r	ENDS
;	COMDAT ??_R2CChartAddInBase133101@@8
rdata$r	SEGMENT
??_R2CChartAddInBase133101@@8 DD FLAT:??_R1A@?0A@EA@CChartAddInBase133101@@8 ; CChartAddInBase133101::`RTTI Base Class Array'
	DD	FLAT:??_R1A@?0A@EA@CIWUnknown@@8
	DD	FLAT:??_R1A@?0A@EA@CObject@@8
	DD	FLAT:??_R17?0A@EA@IChartAddIn133101@@8
	DD	FLAT:??_R17?0A@EA@IUnknown@@8
rdata$r	ENDS
;	COMDAT ??_R3CChartAddInBase133101@@8
rdata$r	SEGMENT
??_R3CChartAddInBase133101@@8 DD 00H			; CChartAddInBase133101::`RTTI Class Hierarchy Descriptor'
	DD	01H
	DD	05H
	DD	FLAT:??_R2CChartAddInBase133101@@8
rdata$r	ENDS
;	COMDAT ??_R0?AVCChartAddInBase133101@@@8
data$rs	SEGMENT
??_R0?AVCChartAddInBase133101@@@8 DD FLAT:??_7type_info@@6B@ ; CChartAddInBase133101 `RTTI Type Descriptor'
	DD	00H
	DB	'.?AVCChartAddInBase133101@@', 00H
data$rs	ENDS
;	COMDAT ??_R1A@?0A@EA@CChartAddInBase133101@@8
rdata$r	SEGMENT
??_R1A@?0A@EA@CChartAddInBase133101@@8 DD FLAT:??_R0?AVCChartAddInBase133101@@@8 ; CChartAddInBase133101::`RTTI Base Class Descriptor at (0,-1,0,64)'
	DD	04H
	DD	00H
	DD	0ffffffffH
	DD	00H
	DD	040H
	DD	FLAT:??_R3CChartAddInBase133101@@8
rdata$r	ENDS
;	COMDAT ??_R1A@?0A@EA@CNumericalInquiryDragAddInImp@@8
rdata$r	SEGMENT
??_R1A@?0A@EA@CNumericalInquiryDragAddInImp@@8 DD FLAT:??_R0?AVCNumericalInquiryDragAddInImp@@@8 ; CNumericalInquiryDragAddInImp::`RTTI Base Class Descriptor at (0,-1,0,64)'
	DD	05H
	DD	00H
	DD	0ffffffffH
	DD	00H
	DD	040H
	DD	FLAT:??_R3CNumericalInquiryDragAddInImp@@8
rdata$r	ENDS
;	COMDAT ??_R2CNumericalInquiryDragAddInImp@@8
rdata$r	SEGMENT
??_R2CNumericalInquiryDragAddInImp@@8 DD FLAT:??_R1A@?0A@EA@CNumericalInquiryDragAddInImp@@8 ; CNumericalInquiryDragAddInImp::`RTTI Base Class Array'
	DD	FLAT:??_R1A@?0A@EA@CChartAddInBase133101@@8
	DD	FLAT:??_R1A@?0A@EA@CIWUnknown@@8
	DD	FLAT:??_R1A@?0A@EA@CObject@@8
	DD	FLAT:??_R17?0A@EA@IChartAddIn133101@@8
	DD	FLAT:??_R17?0A@EA@IUnknown@@8
rdata$r	ENDS
;	COMDAT ??_R3CNumericalInquiryDragAddInImp@@8
rdata$r	SEGMENT
??_R3CNumericalInquiryDragAddInImp@@8 DD 00H		; CNumericalInquiryDragAddInImp::`RTTI Class Hierarchy Descriptor'
	DD	01H
	DD	06H
	DD	FLAT:??_R2CNumericalInquiryDragAddInImp@@8
rdata$r	ENDS
;	COMDAT ??_R0?AVCNumericalInquiryDragAddInImp@@@8
data$rs	SEGMENT
??_R0?AVCNumericalInquiryDragAddInImp@@@8 DD FLAT:??_7type_info@@6B@ ; CNumericalInquiryDragAddInImp `RTTI Type Descriptor'
	DD	00H
	DB	'.?AVCNumericalInquiryDragAddInImp@@', 00H
data$rs	ENDS
;	COMDAT ??_R4CNumericalInquiryDragAddInImp@@6BCIWUnknown@@@
rdata$r	SEGMENT
??_R4CNumericalInquiryDragAddInImp@@6BCIWUnknown@@@ DD 00H ; CNumericalInquiryDragAddInImp::`RTTI Complete Object Locator'
	DD	00H
	DD	00H
	DD	FLAT:??_R0?AVCNumericalInquiryDragAddInImp@@@8
	DD	FLAT:??_R3CNumericalInquiryDragAddInImp@@8
rdata$r	ENDS
;	COMDAT ??_R1A@?0A@EA@IChartAddIn133101@@8
rdata$r	SEGMENT
??_R1A@?0A@EA@IChartAddIn133101@@8 DD FLAT:??_R0?AUIChartAddIn133101@@@8 ; IChartAddIn133101::`RTTI Base Class Descriptor at (0,-1,0,64)'
	DD	01H
	DD	00H
	DD	0ffffffffH
	DD	00H
	DD	040H
	DD	FLAT:??_R3IChartAddIn133101@@8
rdata$r	ENDS
;	COMDAT ??_R2IChartAddIn133101@@8
rdata$r	SEGMENT
??_R2IChartAddIn133101@@8 DD FLAT:??_R1A@?0A@EA@IChartAddIn133101@@8 ; IChartAddIn133101::`RTTI Base Class Array'
	DD	FLAT:??_R1A@?0A@EA@IUnknown@@8
rdata$r	ENDS
;	COMDAT ??_R3IChartAddIn133101@@8
rdata$r	SEGMENT
??_R3IChartAddIn133101@@8 DD 00H			; IChartAddIn133101::`RTTI Class Hierarchy Descriptor'
	DD	00H
	DD	02H
	DD	FLAT:??_R2IChartAddIn133101@@8
rdata$r	ENDS
;	COMDAT ??_R0?AUIChartAddIn133101@@@8
data$rs	SEGMENT
??_R0?AUIChartAddIn133101@@@8 DD FLAT:??_7type_info@@6B@ ; IChartAddIn133101 `RTTI Type Descriptor'
	DD	00H
	DB	'.?AUIChartAddIn133101@@', 00H
data$rs	ENDS
;	COMDAT ??_C@_0BA@ENJOCHIO@LoadResourceDLL@
CONST	SEGMENT
??_C@_0BA@ENJOCHIO@LoadResourceDLL@ DB 'LoadResourceDLL', 00H ; `string'
CONST	ENDS
;	COMDAT ??_7CNumericalInquiryDragAddInImp@@6BIChartAddIn133101@@@
CONST	SEGMENT
??_7CNumericalInquiryDragAddInImp@@6BIChartAddIn133101@@@ DD FLAT:??_R4CNumericalInquiryDragAddInImp@@6BIChartAddIn133101@@@ ; CNumericalInquiryDragAddInImp::`vftable'
	DD	FLAT:?QueryInterface@CChartAddInBase133101@@O7AGJABU_GUID@@PAPAX@Z
	DD	FLAT:?AddRef@CChartAddInBase133101@@O7AGKXZ
	DD	FLAT:?Release@CChartAddInBase133101@@O7AGKXZ
	DD	FLAT:??_ECNumericalInquiryDragAddInImp@@W7AEPAXI@Z
	DD	FLAT:?HasFullManager@CChartAddInBase133101@@MAEHXZ
	DD	FLAT:?GetAddInCustomInterface@CChartAddInBase133101@@MAEPAUIUnknown@@XZ
	DD	FLAT:?InvokeAddIn@CNumericalInquiryDragAddInImp@@MAEHHJ@Z
	DD	FLAT:?InvokeAddInStr@CChartAddInBase133101@@MAEHPBD0@Z
	DD	FLAT:?OnOcxDestroyWindow@CChartAddInBase133101@@MAEXXZ
	DD	FLAT:?RegisterEventMap@CChartAddInBase133101@@UAEHH@Z
	DD	FLAT:?UnregisterEventMap@CChartAddInBase133101@@UAEHXZ
	DD	FLAT:?OnGSharedDataChange@CChartAddInBase133101@@MAEXPBD0H@Z
	DD	FLAT:?OnLSharedDataChange@CChartAddInBase133101@@MAEXPBD0@Z
	DD	FLAT:?OnResetChart@CNumericalInquiryDragAddInImp@@MAEXXZ
	DD	FLAT:?OnDrawBeforeGraph@CChartAddInBase133101@@MAEXPAUHDC__@@@Z
	DD	FLAT:?OnDrawAfterGraph@CNumericalInquiryDragAddInImp@@MAEXPAUHDC__@@@Z
	DD	FLAT:?OnPacketDataMultiItem@CNumericalInquiryDragAddInImp@@MAEXPBD0H@Z
	DD	FLAT:?OnTimer@CChartAddInBase133101@@MAEXI@Z
	DD	FLAT:?OnCaptureChanged@CChartAddInBase133101@@MAEXPAUHWND__@@QAUHBITMAP__@@@Z
	DD	FLAT:?OnResetMainBlock@CNumericalInquiryDragAddInImp@@MAEXXZ
	DD	FLAT:?OnUserIndiatorConditionLoaded@CChartAddInBase133101@@MAEXXZ
	DD	FLAT:?OnChartItemChanged@CChartAddInBase133101@@MAEXXZ
	DD	FLAT:?OnGraphDataChanged@CChartAddInBase133101@@MAEXXZ
	DD	FLAT:?OnBlockRemoved@CChartAddInBase133101@@MAEXHH@Z
	DD	FLAT:?OnGraphAdded@CChartAddInBase133101@@MAEXPBD0@Z
	DD	FLAT:?OnManualRealData@CChartAddInBase133101@@MAEXPBDNH@Z
	DD	FLAT:?OnContextMenu@CChartAddInBase133101@@MAEXPAUHWND__@@AAUtagPOINT@@@Z
	DD	FLAT:?OnGraphDeleted@CChartAddInBase133101@@MAEXPBD0@Z
	DD	FLAT:?OnPacketTruncated@CChartAddInBase133101@@MAEXH@Z
	DD	FLAT:?OnBlockChanged@CChartAddInBase133101@@MAEXW4BLOCKBEHAVIOR@CBlockBaseData@@HHHH@Z
	DD	FLAT:?OnToolCommand@CChartAddInBase133101@@MAEXHH@Z
	DD	FLAT:?OnRealData@CChartAddInBase133101@@MAEXPBDN0@Z
	DD	FLAT:?OnIndexedRealData@CChartAddInBase133101@@MAEXPBDHN@Z
	DD	FLAT:?OnRealPacketEnd@CNumericalInquiryDragAddInImp@@MAEXPBD@Z
	DD	FLAT:?OnLoadEnvironment@CChartAddInBase133101@@MAEXPAUIPropertyMap@@@Z
	DD	FLAT:?OnSaveEnvironment@CChartAddInBase133101@@MAEXPAUIPropertyMap@@@Z
	DD	FLAT:?DrawCursor@CChartAddInBase133101@@MAE?AUtagRECT@@PAUHDC__@@@Z
	DD	FLAT:?OnRecalculationComplete@CChartAddInBase133101@@MAEXXZ
	DD	FLAT:?OnPreRealData@CChartAddInBase133101@@MAEHPBDAAN0@Z
	DD	FLAT:?OnPreIndexedRealData@CChartAddInBase133101@@MAEHPBDHAAN@Z
	DD	FLAT:?OnPreRealPacketEnd@CChartAddInBase133101@@MAEHPBD@Z
	DD	FLAT:?OnCmdMsg@CChartAddInBase133101@@MAEHIHPAUICmdUI133101@@@Z
	DD	FLAT:?OnAddInMsg@CChartAddInBase133101@@MAEHPBDJ@Z
	DD	FLAT:?OnAddInToolCommand@CChartAddInBase133101@@MAEHAAJW4EAICommandType@@JJ@Z
	DD	FLAT:?OnAddInToolCommand@CChartAddInBase133101@@MAEHAAJW4EAICommandType@@J@Z
	DD	FLAT:?OnAddInToolCommand@CChartAddInBase133101@@MAEHAAJW4EAICommandType@@PBDPAVCObject@@@Z
	DD	FLAT:?OnAddInToolCommand@CChartAddInBase133101@@MAEHAAJW4EAICommandType@@PBD@Z
	DD	FLAT:?OnAddInToolCommand@CChartAddInBase133101@@MAEHAAJW4EAICommandType@@PAUIGraphInfo133101@@@Z
	DD	FLAT:?OnAddInToolCommand@CChartAddInBase133101@@MAEHAAJW4EAICommandType@@@Z
	DD	FLAT:?OnAddInToolCommand@CChartAddInBase133101@@MAEHW4EAICommandType@@JJJJJJJJJ@Z
	DD	FLAT:?OnAddInToolCommand@CChartAddInBase133101@@MAEHW4EAICommandType@@JJ@Z
	DD	FLAT:?OnAddInToolCommand@CChartAddInBase133101@@MAEHW4EAICommandType@@JPBD11@Z
	DD	FLAT:?OnAddInToolCommand@CChartAddInBase133101@@MAEHW4EAICommandType@@JPBD@Z
	DD	FLAT:?OnAddInToolCommand@CNumericalInquiryDragAddInImp@@MAEHW4EAICommandType@@J@Z
	DD	FLAT:?OnAddInToolCommand@CChartAddInBase133101@@MAEHW4EAICommandType@@PBUIAddInDllBase@@@Z
	DD	FLAT:?OnAddInToolCommand@CChartAddInBase133101@@MAEHW4EAICommandType@@PBDJ@Z
	DD	FLAT:?OnAddInToolCommand@CChartAddInBase133101@@MAEHW4EAICommandType@@PBD1@Z
	DD	FLAT:?OnAddInToolCommand@CChartAddInBase133101@@MAEHW4EAICommandType@@PBD@Z
	DD	FLAT:?OnAddInToolCommand@CNumericalInquiryDragAddInImp@@MAEHW4EAICommandType@@PAUHDC__@@IAAUtagPOINT@@K@Z
	DD	FLAT:?OnAddInToolCommand@CNumericalInquiryDragAddInImp@@MAEHW4EAICommandType@@@Z
	DD	FLAT:?OnKeyDown@CChartAddInBase133101@@MAEHIII@Z
	DD	FLAT:?OnKeyUp@CChartAddInBase133101@@MAEHIII@Z
	DD	FLAT:?OnMouseWheel@CChartAddInBase133101@@MAEHIFUtagPOINT@@K@Z
	DD	FLAT:?OnMouseMove@CNumericalInquiryDragAddInImp@@MAEHPAUHDC__@@IAAUtagPOINT@@KQAUHBITMAP__@@@Z
	DD	FLAT:?OnLButtonDown@CNumericalInquiryDragAddInImp@@MAEHPAUHDC__@@IAAUtagPOINT@@K@Z
	DD	FLAT:?OnLButtonUp@CNumericalInquiryDragAddInImp@@MAEHPAUHDC__@@IAAUtagPOINT@@K@Z
	DD	FLAT:?OnLButtonDblClk@CChartAddInBase133101@@MAEHPAUHDC__@@IAAUtagPOINT@@K@Z
	DD	FLAT:?OnRButtonDown@CChartAddInBase133101@@MAEHPAUHDC__@@IAAUtagPOINT@@K@Z
	DD	FLAT:?OnRButtonUp@CChartAddInBase133101@@MAEHPAUHDC__@@IAAUtagPOINT@@K@Z
	DD	FLAT:?OnRButtonDblClk@CChartAddInBase133101@@MAEHPAUHDC__@@IAAUtagPOINT@@K@Z
CONST	ENDS
;	COMDAT ??_7CNumericalInquiryDragAddInImp@@6BCIWUnknown@@@
CONST	SEGMENT
??_7CNumericalInquiryDragAddInImp@@6BCIWUnknown@@@ DD FLAT:??_R4CNumericalInquiryDragAddInImp@@6BCIWUnknown@@@ ; CNumericalInquiryDragAddInImp::`vftable'
	DD	FLAT:?GetRuntimeClass@CObject@@UBEPAUCRuntimeClass@@XZ
	DD	FLAT:??_ECNumericalInquiryDragAddInImp@@UAEPAXI@Z
	DD	FLAT:?Serialize@CObject@@UAEXAAVCArchive@@@Z
	DD	FLAT:?AssertValid@CObject@@UBEXXZ
	DD	FLAT:?Dump@CObject@@UBEXAAVCDumpContext@@@Z
	DD	FLAT:?AddRef@CChartAddInBase133101@@MAGKXZ
	DD	FLAT:?Release@CChartAddInBase133101@@MAGKXZ
	DD	FLAT:?QueryInterface@CChartAddInBase133101@@MAGJABU_GUID@@PAPAX@Z
	DD	FLAT:?PostConstruct@CIWUnknown@@MAEXXZ
	DD	FLAT:?PreDestructX@CIWUnknown@@MAEXXZ
	DD	FLAT:?PreDestruct@CIWUnknown@@MAEXXZ
	DD	FLAT:?GetRegisteredEventMap@CNumericalInquiryDragAddInImp@@MBEPBW4EAddInEventType@IChartAddIn133101@@XZ
CONST	ENDS
;	COMDAT ??_R1A@?0A@EA@IUnknown@@8
rdata$r	SEGMENT
??_R1A@?0A@EA@IUnknown@@8 DD FLAT:??_R0?AUIUnknown@@@8	; IUnknown::`RTTI Base Class Descriptor at (0,-1,0,64)'
	DD	00H
	DD	00H
	DD	0ffffffffH
	DD	00H
	DD	040H
	DD	FLAT:??_R3IUnknown@@8
rdata$r	ENDS
;	COMDAT ??_R2IUnknown@@8
rdata$r	SEGMENT
??_R2IUnknown@@8 DD FLAT:??_R1A@?0A@EA@IUnknown@@8	; IUnknown::`RTTI Base Class Array'
rdata$r	ENDS
;	COMDAT ??_R3IUnknown@@8
rdata$r	SEGMENT
??_R3IUnknown@@8 DD 00H					; IUnknown::`RTTI Class Hierarchy Descriptor'
	DD	00H
	DD	01H
	DD	FLAT:??_R2IUnknown@@8
rdata$r	ENDS
;	COMDAT ??_R0?AUIUnknown@@@8
data$rs	SEGMENT
??_R0?AUIUnknown@@@8 DD FLAT:??_7type_info@@6B@		; IUnknown `RTTI Type Descriptor'
	DD	00H
	DB	'.?AUIUnknown@@', 00H
data$rs	ENDS
;	COMDAT ??_R1A@?0A@EA@CObject@@8
rdata$r	SEGMENT
??_R1A@?0A@EA@CObject@@8 DD FLAT:??_R0?AVCObject@@@8	; CObject::`RTTI Base Class Descriptor at (0,-1,0,64)'
	DD	00H
	DD	00H
	DD	0ffffffffH
	DD	00H
	DD	040H
	DD	FLAT:??_R3CObject@@8
rdata$r	ENDS
;	COMDAT ??_R2CObject@@8
rdata$r	SEGMENT
??_R2CObject@@8 DD FLAT:??_R1A@?0A@EA@CObject@@8	; CObject::`RTTI Base Class Array'
rdata$r	ENDS
;	COMDAT ??_R3CObject@@8
rdata$r	SEGMENT
??_R3CObject@@8 DD 00H					; CObject::`RTTI Class Hierarchy Descriptor'
	DD	00H
	DD	01H
	DD	FLAT:??_R2CObject@@8
rdata$r	ENDS
;	COMDAT ??_R0?AVCObject@@@8
data$rs	SEGMENT
??_R0?AVCObject@@@8 DD FLAT:??_7type_info@@6B@		; CObject `RTTI Type Descriptor'
	DD	00H
	DB	'.?AVCObject@@', 00H
data$rs	ENDS
;	COMDAT xdata$x
xdata$x	SEGMENT
__ehfuncinfo$??1CMultiLanguageResourceSetter@@QAE@XZ DD 019930522H
	DD	00H
	DD	00H
	DD	2 DUP(00H)
	DD	2 DUP(00H)
	DD	00H
	DD	05H
xdata$x	ENDS
;	COMDAT xdata$x
xdata$x	SEGMENT
__unwindtable$??_GCNumericalInquiryDragAddInImp@@UAEPAXI@Z DD 0ffffffffH
	DD	FLAT:___std_terminate
	DD	00H
	DD	FLAT:___std_terminate
__ehfuncinfo$??_GCNumericalInquiryDragAddInImp@@UAEPAXI@Z DD 019930522H
	DD	02H
	DD	FLAT:__unwindtable$??_GCNumericalInquiryDragAddInImp@@UAEPAXI@Z
	DD	2 DUP(00H)
	DD	2 DUP(00H)
	DD	00H
	DD	05H
xdata$x	ENDS
;	COMDAT xdata$x
xdata$x	SEGMENT
__unwindtable$??1CNumericalInquiryDragAddInImp@@UAE@XZ DD 0ffffffffH
	DD	FLAT:___std_terminate
__ehfuncinfo$??1CNumericalInquiryDragAddInImp@@UAE@XZ DD 019930522H
	DD	01H
	DD	FLAT:__unwindtable$??1CNumericalInquiryDragAddInImp@@UAE@XZ
	DD	2 DUP(00H)
	DD	2 DUP(00H)
	DD	00H
	DD	05H
xdata$x	ENDS
;	COMDAT xdata$x
xdata$x	SEGMENT
__unwindtable$??0CNumericalInquiryDragAddInImp@@QAE@PAUIChartOCX133101@@PAUIAddInDllBase@@@Z DD 0ffffffffH
	DD	FLAT:__unwindfunclet$??0CNumericalInquiryDragAddInImp@@QAE@PAUIChartOCX133101@@PAUIAddInDllBase@@@Z$0
	DD	00H
	DD	FLAT:__unwindfunclet$??0CNumericalInquiryDragAddInImp@@QAE@PAUIChartOCX133101@@PAUIAddInDllBase@@@Z$1
	DD	01H
	DD	FLAT:__unwindfunclet$??0CNumericalInquiryDragAddInImp@@QAE@PAUIChartOCX133101@@PAUIAddInDllBase@@@Z$2
	DD	00H
	DD	FLAT:___std_terminate
__ehfuncinfo$??0CNumericalInquiryDragAddInImp@@QAE@PAUIChartOCX133101@@PAUIAddInDllBase@@@Z DD 019930522H
	DD	04H
	DD	FLAT:__unwindtable$??0CNumericalInquiryDragAddInImp@@QAE@PAUIChartOCX133101@@PAUIAddInDllBase@@@Z
	DD	2 DUP(00H)
	DD	2 DUP(00H)
	DD	00H
	DD	01H
xdata$x	ENDS
; Function compile flags: /Odsp
;	COMDAT ??_ECNumericalInquiryDragAddInImp@@W7AEPAXI@Z
_TEXT	SEGMENT
??_ECNumericalInquiryDragAddInImp@@W7AEPAXI@Z PROC	; [thunk]:CNumericalInquiryDragAddInImp::`vector deleting destructor', COMDAT
  00000	83 e9 08	 sub	 ecx, 8
  00003	e9 00 00 00 00	 jmp	 ??_ECNumericalInquiryDragAddInImp@@UAEPAXI@Z
??_ECNumericalInquiryDragAddInImp@@W7AEPAXI@Z ENDP	; [thunk]:CNumericalInquiryDragAddInImp::`vector deleting destructor'
_TEXT	ENDS
; Function compile flags: /Odsp
;	COMDAT ?Release@CChartAddInBase133101@@O7AGKXZ
_TEXT	SEGMENT
?Release@CChartAddInBase133101@@O7AGKXZ PROC		; [thunk]:CChartAddInBase133101::Release`adjustor{8}', COMDAT
  00000	83 6c 24 04 08	 sub	 DWORD PTR [esp+4], 8
  00005	e9 00 00 00 00	 jmp	 ?Release@CChartAddInBase133101@@MAGKXZ ; CChartAddInBase133101::Release
?Release@CChartAddInBase133101@@O7AGKXZ ENDP		; [thunk]:CChartAddInBase133101::Release`adjustor{8}'
_TEXT	ENDS
; Function compile flags: /Odsp
;	COMDAT ?AddRef@CChartAddInBase133101@@O7AGKXZ
_TEXT	SEGMENT
?AddRef@CChartAddInBase133101@@O7AGKXZ PROC		; [thunk]:CChartAddInBase133101::AddRef`adjustor{8}', COMDAT
  00000	83 6c 24 04 08	 sub	 DWORD PTR [esp+4], 8
  00005	e9 00 00 00 00	 jmp	 ?AddRef@CChartAddInBase133101@@MAGKXZ ; CChartAddInBase133101::AddRef
?AddRef@CChartAddInBase133101@@O7AGKXZ ENDP		; [thunk]:CChartAddInBase133101::AddRef`adjustor{8}'
_TEXT	ENDS
; Function compile flags: /Odsp
;	COMDAT ?QueryInterface@CChartAddInBase133101@@O7AGJABU_GUID@@PAPAX@Z
_TEXT	SEGMENT
?QueryInterface@CChartAddInBase133101@@O7AGJABU_GUID@@PAPAX@Z PROC ; [thunk]:CChartAddInBase133101::QueryInterface`adjustor{8}', COMDAT
  00000	83 6c 24 04 08	 sub	 DWORD PTR [esp+4], 8
  00005	e9 00 00 00 00	 jmp	 ?QueryInterface@CChartAddInBase133101@@MAGJABU_GUID@@PAPAX@Z ; CChartAddInBase133101::QueryInterface
?QueryInterface@CChartAddInBase133101@@O7AGJABU_GUID@@PAPAX@Z ENDP ; [thunk]:CChartAddInBase133101::QueryInterface`adjustor{8}'
_TEXT	ENDS
; Function compile flags: /Ogtp
;	COMDAT ??__F?m_strAddInItemName@CNumericalInquiryDragAddInImp@@2V?$CStringT@DV?$StrTraitMFC_DLL@DV?$ChTraitsCRT@D@ATL@@@@@ATL@@A@@YAXXZ
text$yd	SEGMENT
??__F?m_strAddInItemName@CNumericalInquiryDragAddInImp@@2V?$CStringT@DV?$StrTraitMFC_DLL@DV?$ChTraitsCRT@D@ATL@@@@@ATL@@A@@YAXXZ PROC ; `dynamic atexit destructor for 'CNumericalInquiryDragAddInImp::m_strAddInItemName'', COMDAT
  00000	b9 00 00 00 00	 mov	 ecx, OFFSET ?m_strAddInItemName@CNumericalInquiryDragAddInImp@@2V?$CStringT@DV?$StrTraitMFC_DLL@DV?$ChTraitsCRT@D@ATL@@@@@ATL@@A ; CNumericalInquiryDragAddInImp::m_strAddInItemName
  00005	ff 25 00 00 00
	00		 jmp	 DWORD PTR __imp_??1?$CStringT@DV?$StrTraitMFC_DLL@DV?$ChTraitsCRT@D@ATL@@@@@ATL@@QAE@XZ
??__F?m_strAddInItemName@CNumericalInquiryDragAddInImp@@2V?$CStringT@DV?$StrTraitMFC_DLL@DV?$ChTraitsCRT@D@ATL@@@@@ATL@@A@@YAXXZ ENDP ; `dynamic atexit destructor for 'CNumericalInquiryDragAddInImp::m_strAddInItemName''
text$yd	ENDS
; Function compile flags: /Ogtp
; File D:\git\src\IBK\IBK_DRFN\ProjSrc\SrcChartEx\ChartAddIn\ChartAnalysisToolAddIn\ChartAnalysisToolAddIn\NumericalInquiryDragAddInImp.cpp
;	COMDAT ??__E?m_strAddInItemName@CNumericalInquiryDragAddInImp@@2V?$CStringT@DV?$StrTraitMFC_DLL@DV?$ChTraitsCRT@D@ATL@@@@@ATL@@A@@YAXXZ
text$di	SEGMENT
??__E?m_strAddInItemName@CNumericalInquiryDragAddInImp@@2V?$CStringT@DV?$StrTraitMFC_DLL@DV?$ChTraitsCRT@D@ATL@@@@@ATL@@A@@YAXXZ PROC ; `dynamic initializer for 'CNumericalInquiryDragAddInImp::m_strAddInItemName'', COMDAT

; 53   : CString CNumericalInquiryDragAddInImp::m_strAddInItemName = "NIDLG_DRAG";

  00000	68 00 00 00 00	 push	 OFFSET ??_C@_0L@PBMGCDHJ@NIDLG_DRAG@
  00005	b9 00 00 00 00	 mov	 ecx, OFFSET ?m_strAddInItemName@CNumericalInquiryDragAddInImp@@2V?$CStringT@DV?$StrTraitMFC_DLL@DV?$ChTraitsCRT@D@ATL@@@@@ATL@@A ; CNumericalInquiryDragAddInImp::m_strAddInItemName
  0000a	ff 15 00 00 00
	00		 call	 DWORD PTR __imp_??0?$CStringT@DV?$StrTraitMFC_DLL@DV?$ChTraitsCRT@D@ATL@@@@@ATL@@QAE@PBD@Z
  00010	68 00 00 00 00	 push	 OFFSET ??__F?m_strAddInItemName@CNumericalInquiryDragAddInImp@@2V?$CStringT@DV?$StrTraitMFC_DLL@DV?$ChTraitsCRT@D@ATL@@@@@ATL@@A@@YAXXZ ; `dynamic atexit destructor for 'CNumericalInquiryDragAddInImp::m_strAddInItemName''
  00015	e8 00 00 00 00	 call	 _atexit
  0001a	59		 pop	 ecx
  0001b	c3		 ret	 0
??__E?m_strAddInItemName@CNumericalInquiryDragAddInImp@@2V?$CStringT@DV?$StrTraitMFC_DLL@DV?$ChTraitsCRT@D@ATL@@@@@ATL@@A@@YAXXZ ENDP ; `dynamic initializer for 'CNumericalInquiryDragAddInImp::m_strAddInItemName''
text$di	ENDS
; Function compile flags: /Ogtp
; File D:\git\src\IBK\IBK_DRFN\ProjSrc\SrcChartEx\ChartAddIn\ChartAnalysisToolAddIn\Include_Chart\Dll_Load\IMetaTable.h
; File C:\Program Files (x86)\Microsoft Visual Studio\2019\Community\VC\Tools\MSVC\14.29.30133\atlmfc\include\afxwin1.inl
; File D:\git\src\IBK\IBK_DRFN\ProjSrc\SrcChartEx\ChartAddIn\ChartAnalysisToolAddIn\Include_Chart\Dll_Load\IMetaTable.h
;	COMDAT ??1CMultiLanguageResourceSetter@@QAE@XZ
_TEXT	SEGMENT
__$EHRec$ = -12						; size = 12
??1CMultiLanguageResourceSetter@@QAE@XZ PROC		; CMultiLanguageResourceSetter::~CMultiLanguageResourceSetter, COMDAT
; _this$ = ecx

; 1038 : 	{

  00000	55		 push	 ebp
  00001	8b ec		 mov	 ebp, esp
  00003	6a ff		 push	 -1
  00005	68 00 00 00 00	 push	 __ehhandler$??1CMultiLanguageResourceSetter@@QAE@XZ
  0000a	64 a1 00 00 00
	00		 mov	 eax, DWORD PTR fs:0
  00010	50		 push	 eax
  00011	56		 push	 esi
  00012	a1 00 00 00 00	 mov	 eax, DWORD PTR ___security_cookie
  00017	33 c5		 xor	 eax, ebp
  00019	50		 push	 eax
  0001a	8d 45 f4	 lea	 eax, DWORD PTR __$EHRec$[ebp]
  0001d	64 a3 00 00 00
	00		 mov	 DWORD PTR fs:0, eax

; 1039 : 		AfxSetResourceHandle( m_hInstance);

  00023	8b 31		 mov	 esi, DWORD PTR [ecx]
; File C:\Program Files (x86)\Microsoft Visual Studio\2019\Community\VC\Tools\MSVC\14.29.30133\atlmfc\include\afxwin1.inl

; 27   : 	{ ASSERT(hInstResource != NULL); afxCurrentResourceHandle = hInstResource; }

  00025	e8 00 00 00 00	 call	 ?AfxGetModuleState@@YGPAVAFX_MODULE_STATE@@XZ ; AfxGetModuleState
  0002a	89 70 0c	 mov	 DWORD PTR [eax+12], esi
; File D:\git\src\IBK\IBK_DRFN\ProjSrc\SrcChartEx\ChartAddIn\ChartAnalysisToolAddIn\Include_Chart\Dll_Load\IMetaTable.h

; 1040 : 	}

  0002d	8b 4d f4	 mov	 ecx, DWORD PTR __$EHRec$[ebp]
  00030	64 89 0d 00 00
	00 00		 mov	 DWORD PTR fs:0, ecx
  00037	59		 pop	 ecx
  00038	5e		 pop	 esi
  00039	8b e5		 mov	 esp, ebp
  0003b	5d		 pop	 ebp
  0003c	c3		 ret	 0
  0003d	cc		 int	 3
  0003e	cc		 int	 3
  0003f	cc		 int	 3
  00040	cc		 int	 3
  00041	cc		 int	 3
_TEXT	ENDS
;	COMDAT text$x
text$x	SEGMENT
__ehhandler$??1CMultiLanguageResourceSetter@@QAE@XZ:
  00000	90		 npad	 1
  00001	90		 npad	 1
  00002	8b 54 24 08	 mov	 edx, DWORD PTR [esp+8]
  00006	8d 42 0c	 lea	 eax, DWORD PTR [edx+12]
  00009	8b 4a f8	 mov	 ecx, DWORD PTR [edx-8]
  0000c	33 c8		 xor	 ecx, eax
  0000e	e8 00 00 00 00	 call	 @__security_check_cookie@4
  00013	b8 00 00 00 00	 mov	 eax, OFFSET __ehfuncinfo$??1CMultiLanguageResourceSetter@@QAE@XZ
  00018	e9 00 00 00 00	 jmp	 ___CxxFrameHandler3
text$x	ENDS
??1CMultiLanguageResourceSetter@@QAE@XZ ENDP		; CMultiLanguageResourceSetter::~CMultiLanguageResourceSetter
; Function compile flags: /Ogtp
; File D:\git\src\IBK\IBK_DRFN\ProjSrc\SrcChartEx\ChartAddIn\ChartAnalysisToolAddIn\Include_Chart\Dll_Load\IMetaTable.h
;	COMDAT ?LoadResourceDLL@IMetaTable@@QAEPAUHINSTANCE__@@PAUHWND__@@PAU2@@Z
_TEXT	SEGMENT
_p1$ = 8						; size = 4
_p2$ = 12						; size = 4
?LoadResourceDLL@IMetaTable@@QAEPAUHINSTANCE__@@PAUHWND__@@PAU2@@Z PROC ; IMetaTable::LoadResourceDLL, COMDAT
; _this$ = ecx

; 938  : 	DECLARE_FUNCTION2(	LoadResourceDLL,				HMODULE, AfxGetStaticModuleState()->m_hCurrentInstanceHandle, HWND, HMODULE);

  00000	55		 push	 ebp
  00001	8b ec		 mov	 ebp, esp
  00003	56		 push	 esi
  00004	8b f1		 mov	 esi, ecx
  00006	8b 46 04	 mov	 eax, DWORD PTR [esi+4]
  00009	85 c0		 test	 eax, eax
  0000b	74 4d		 je	 SHORT $LN4@LoadResour
  0000d	57		 push	 edi
  0000e	bf 80 0d 00 00	 mov	 edi, 3456		; 00000d80H
  00013	66 3b be 94 00
	00 00		 cmp	 di, WORD PTR [esi+148]
  0001a	74 23		 je	 SHORT $LN3@LoadResour
  0001c	68 00 00 00 00	 push	 OFFSET ??_C@_0BA@ENJOCHIO@LoadResourceDLL@
  00021	50		 push	 eax
  00022	c7 86 90 00 00
	00 00 00 00 00	 mov	 DWORD PTR [esi+144], 0
  0002c	ff 15 00 00 00
	00		 call	 DWORD PTR __imp__GetProcAddress@8
  00032	89 86 90 00 00
	00		 mov	 DWORD PTR [esi+144], eax
  00038	66 89 be 94 00
	00 00		 mov	 WORD PTR [esi+148], di
$LN3@LoadResour:
  0003f	8b 86 90 00 00
	00		 mov	 eax, DWORD PTR [esi+144]
  00045	5f		 pop	 edi
  00046	85 c0		 test	 eax, eax
  00048	74 10		 je	 SHORT $LN4@LoadResour
  0004a	ff 75 0c	 push	 DWORD PTR _p2$[ebp]
  0004d	ff 75 08	 push	 DWORD PTR _p1$[ebp]
  00050	ff d0		 call	 eax
  00052	83 c4 08	 add	 esp, 8
  00055	5e		 pop	 esi
  00056	5d		 pop	 ebp
  00057	c2 08 00	 ret	 8
$LN4@LoadResour:
  0005a	e8 00 00 00 00	 call	 ?AfxGetStaticModuleState@@YGPAVAFX_MODULE_STATE@@XZ ; AfxGetStaticModuleState
  0005f	5e		 pop	 esi
  00060	8b 40 08	 mov	 eax, DWORD PTR [eax+8]
  00063	5d		 pop	 ebp
  00064	c2 08 00	 ret	 8
?LoadResourceDLL@IMetaTable@@QAEPAUHINSTANCE__@@PAUHWND__@@PAU2@@Z ENDP ; IMetaTable::LoadResourceDLL
_TEXT	ENDS
; Function compile flags: /Ogtp
; File D:\git\src\IBK\IBK_DRFN\ProjSrc\SrcChartEx\ChartAddIn\ChartAnalysisToolAddIn\ChartAnalysisToolAddIn\NumericalInquiryDragAddInImp.cpp
; File C:\Program Files (x86)\Microsoft Visual Studio\2019\Community\VC\Tools\MSVC\14.29.30133\atlmfc\include\afxwin1.inl
; File D:\git\src\IBK\IBK_DRFN\ProjSrc\SrcChartEx\ChartAddIn\ChartAnalysisToolAddIn\Include_Chart\Dll_Load\IMetaTable.h
; File C:\Program Files (x86)\Microsoft Visual Studio\2019\Community\VC\Tools\MSVC\14.29.30133\atlmfc\include\afxwin1.inl
; File D:\git\src\IBK\IBK_DRFN\ProjSrc\SrcChartEx\ChartAddIn\ChartAnalysisToolAddIn\ChartAnalysisToolAddIn\NumericalInquiryDragAddInImp.cpp
; File D:\git\src\IBK\IBK_DRFN\ProjSrc\SrcChartEx\ChartAddIn\ChartAnalysisToolAddIn\Include_Chart\Dll_Load\IMetaTable.h
; File C:\Program Files (x86)\Microsoft Visual Studio\2019\Community\VC\Tools\MSVC\14.29.30133\atlmfc\include\afxwin1.inl
; File D:\git\src\IBK\IBK_DRFN\ProjSrc\SrcChartEx\ChartAddIn\ChartAnalysisToolAddIn\ChartAnalysisToolAddIn\NumericalInquiryDragAddInImp.cpp
; File C:\Program Files (x86)\Microsoft Visual Studio\2019\Community\VC\Tools\MSVC\14.29.30133\atlmfc\include\afxwin1.inl
; File D:\git\src\IBK\IBK_DRFN\ProjSrc\SrcChartEx\ChartAddIn\ChartAnalysisToolAddIn\ChartAnalysisToolAddIn\NumericalInquiryDragAddInImp.cpp
; File C:\Program Files (x86)\Microsoft Visual Studio\2019\Community\VC\Tools\MSVC\14.29.30133\atlmfc\include\afx.inl
;	COMDAT ??_GCNumericalInquiryDragAddInImp@@UAEPAXI@Z
_TEXT	SEGMENT
__$EHRec$ = -12						; size = 12
___flags$ = 8						; size = 4
??_GCNumericalInquiryDragAddInImp@@UAEPAXI@Z PROC	; CNumericalInquiryDragAddInImp::`scalar deleting destructor', COMDAT
; _this$ = ecx
  00000	55		 push	 ebp
  00001	8b ec		 mov	 ebp, esp
  00003	6a ff		 push	 -1
  00005	68 00 00 00 00	 push	 __ehhandler$??_GCNumericalInquiryDragAddInImp@@UAEPAXI@Z
  0000a	64 a1 00 00 00
	00		 mov	 eax, DWORD PTR fs:0
  00010	50		 push	 eax
  00011	53		 push	 ebx
  00012	56		 push	 esi
  00013	57		 push	 edi
  00014	a1 00 00 00 00	 mov	 eax, DWORD PTR ___security_cookie
  00019	33 c5		 xor	 eax, ebp
  0001b	50		 push	 eax
  0001c	8d 45 f4	 lea	 eax, DWORD PTR __$EHRec$[ebp]
  0001f	64 a3 00 00 00
	00		 mov	 DWORD PTR fs:0, eax
  00025	8b d9		 mov	 ebx, ecx
; File D:\git\src\IBK\IBK_DRFN\ProjSrc\SrcChartEx\ChartAddIn\ChartAnalysisToolAddIn\ChartAnalysisToolAddIn\NumericalInquiryDragAddInImp.cpp

; 46   : {

  00027	c7 45 fc 00 00
	00 00		 mov	 DWORD PTR __$EHRec$[ebp+8], 0
  0002e	c7 03 00 00 00
	00		 mov	 DWORD PTR [ebx], OFFSET ??_7CNumericalInquiryDragAddInImp@@6BCIWUnknown@@@
  00034	c7 43 08 00 00
	00 00		 mov	 DWORD PTR [ebx+8], OFFSET ??_7CNumericalInquiryDragAddInImp@@6BIChartAddIn133101@@@

; 47   : 	// (2006/6/27 - Seung-Won, Bae) Manage Numerical Inquiry Dialog with DLL Resource
; 48   : 	ML_SET_LANGUAGE_RES();

  0003b	e8 00 00 00 00	 call	 ?AfxGetStaticModuleState@@YGPAVAFX_MODULE_STATE@@XZ ; AfxGetStaticModuleState
  00040	b9 00 00 00 00	 mov	 ecx, OFFSET ?g_iMetaTable@@3VIMetaTable@@A ; g_iMetaTable
  00045	8b 40 08	 mov	 eax, DWORD PTR [eax+8]
  00048	50		 push	 eax
  00049	ff 73 60	 push	 DWORD PTR [ebx+96]
  0004c	e8 00 00 00 00	 call	 ?LoadResourceDLL@IMetaTable@@QAEPAUHINSTANCE__@@PAUHWND__@@PAU2@@Z ; IMetaTable::LoadResourceDLL
  00051	8b f8		 mov	 edi, eax
; File C:\Program Files (x86)\Microsoft Visual Studio\2019\Community\VC\Tools\MSVC\14.29.30133\atlmfc\include\afxwin1.inl

; 25   : 		return afxCurrentResourceHandle; }

  00053	e8 00 00 00 00	 call	 ?AfxGetModuleState@@YGPAVAFX_MODULE_STATE@@XZ ; AfxGetModuleState
; File D:\git\src\IBK\IBK_DRFN\ProjSrc\SrcChartEx\ChartAddIn\ChartAnalysisToolAddIn\Include_Chart\Dll_Load\IMetaTable.h

; 1034 : 		m_hInstance = AfxGetResourceHandle();

  00058	8b 70 0c	 mov	 esi, DWORD PTR [eax+12]
; File C:\Program Files (x86)\Microsoft Visual Studio\2019\Community\VC\Tools\MSVC\14.29.30133\atlmfc\include\afxwin1.inl

; 27   : 	{ ASSERT(hInstResource != NULL); afxCurrentResourceHandle = hInstResource; }

  0005b	e8 00 00 00 00	 call	 ?AfxGetModuleState@@YGPAVAFX_MODULE_STATE@@XZ ; AfxGetModuleState
  00060	89 78 0c	 mov	 DWORD PTR [eax+12], edi
; File D:\git\src\IBK\IBK_DRFN\ProjSrc\SrcChartEx\ChartAddIn\ChartAnalysisToolAddIn\ChartAnalysisToolAddIn\NumericalInquiryDragAddInImp.cpp

; 49   : 	if( m_pNumericalInquiryDlg) delete m_pNumericalInquiryDlg;	

  00063	8b 4b 58	 mov	 ecx, DWORD PTR [ebx+88]
  00066	85 c9		 test	 ecx, ecx
  00068	74 07		 je	 SHORT $LN10@scalar
  0006a	8b 01		 mov	 eax, DWORD PTR [ecx]
  0006c	6a 01		 push	 1
  0006e	ff 50 04	 call	 DWORD PTR [eax+4]
$LN10@scalar:
; File D:\git\src\IBK\IBK_DRFN\ProjSrc\SrcChartEx\ChartAddIn\ChartAnalysisToolAddIn\Include_Chart\Dll_Load\IMetaTable.h

; 1038 : 	{

  00071	c6 45 fc 01	 mov	 BYTE PTR __$EHRec$[ebp+8], 1
; File C:\Program Files (x86)\Microsoft Visual Studio\2019\Community\VC\Tools\MSVC\14.29.30133\atlmfc\include\afxwin1.inl

; 27   : 	{ ASSERT(hInstResource != NULL); afxCurrentResourceHandle = hInstResource; }

  00075	e8 00 00 00 00	 call	 ?AfxGetModuleState@@YGPAVAFX_MODULE_STATE@@XZ ; AfxGetModuleState
; File D:\git\src\IBK\IBK_DRFN\ProjSrc\SrcChartEx\ChartAddIn\ChartAnalysisToolAddIn\ChartAnalysisToolAddIn\NumericalInquiryDragAddInImp.cpp

; 50   : }

  0007a	8b cb		 mov	 ecx, ebx
; File C:\Program Files (x86)\Microsoft Visual Studio\2019\Community\VC\Tools\MSVC\14.29.30133\atlmfc\include\afxwin1.inl

; 27   : 	{ ASSERT(hInstResource != NULL); afxCurrentResourceHandle = hInstResource; }

  0007c	89 70 0c	 mov	 DWORD PTR [eax+12], esi
; File D:\git\src\IBK\IBK_DRFN\ProjSrc\SrcChartEx\ChartAddIn\ChartAnalysisToolAddIn\ChartAnalysisToolAddIn\NumericalInquiryDragAddInImp.cpp

; 50   : }

  0007f	e8 00 00 00 00	 call	 ??1CChartAddInBase133101@@MAE@XZ ; CChartAddInBase133101::~CChartAddInBase133101
  00084	8b 45 08	 mov	 eax, DWORD PTR ___flags$[ebp]
  00087	a8 01		 test	 al, 1
  00089	74 1a		 je	 SHORT $LN26@scalar
  0008b	a8 04		 test	 al, 4
  0008d	75 0b		 jne	 SHORT $LN3@scalar
; File C:\Program Files (x86)\Microsoft Visual Studio\2019\Community\VC\Tools\MSVC\14.29.30133\atlmfc\include\afx.inl

; 112  : 	{ ::operator delete(p); }

  0008f	53		 push	 ebx
  00090	e8 00 00 00 00	 call	 ??3@YAXPAX@Z		; operator delete
  00095	83 c4 04	 add	 esp, 4
  00098	eb 0b		 jmp	 SHORT $LN26@scalar
$LN3@scalar:
  0009a	6a 64		 push	 100			; 00000064H
  0009c	53		 push	 ebx
  0009d	e8 00 00 00 00	 call	 ?__global_delete@@YAXPAXI@Z ; __global_delete
  000a2	83 c4 08	 add	 esp, 8
$LN26@scalar:
  000a5	8b c3		 mov	 eax, ebx
  000a7	8b 4d f4	 mov	 ecx, DWORD PTR __$EHRec$[ebp]
  000aa	64 89 0d 00 00
	00 00		 mov	 DWORD PTR fs:0, ecx
  000b1	59		 pop	 ecx
  000b2	5f		 pop	 edi
  000b3	5e		 pop	 esi
  000b4	5b		 pop	 ebx
  000b5	8b e5		 mov	 esp, ebp
  000b7	5d		 pop	 ebp
  000b8	c2 04 00	 ret	 4
  000bb	cc		 int	 3
  000bc	cc		 int	 3
  000bd	cc		 int	 3
  000be	cc		 int	 3
  000bf	cc		 int	 3
_TEXT	ENDS
;	COMDAT text$x
text$x	SEGMENT
__ehhandler$??_GCNumericalInquiryDragAddInImp@@UAEPAXI@Z:
  00000	90		 npad	 1
  00001	90		 npad	 1
  00002	8b 54 24 08	 mov	 edx, DWORD PTR [esp+8]
  00006	8d 42 0c	 lea	 eax, DWORD PTR [edx+12]
  00009	8b 4a f0	 mov	 ecx, DWORD PTR [edx-16]
  0000c	33 c8		 xor	 ecx, eax
  0000e	e8 00 00 00 00	 call	 @__security_check_cookie@4
  00013	b8 00 00 00 00	 mov	 eax, OFFSET __ehfuncinfo$??_GCNumericalInquiryDragAddInImp@@UAEPAXI@Z
  00018	e9 00 00 00 00	 jmp	 ___CxxFrameHandler3
text$x	ENDS
??_GCNumericalInquiryDragAddInImp@@UAEPAXI@Z ENDP	; CNumericalInquiryDragAddInImp::`scalar deleting destructor'
; Function compile flags: /Ogtp
; File D:\git\src\IBK\IBK_DRFN\ProjSrc\SrcChartEx\ChartAddIn\ChartAnalysisToolAddIn\ChartAnalysisToolAddIn\NumericalInquiryDragAddInImp.cpp
;	COMDAT ?OnLButtonUp@CNumericalInquiryDragAddInImp@@MAEHPAUHDC__@@IAAUtagPOINT@@K@Z
_TEXT	SEGMENT
_p_hDC$ = 8						; size = 4
_nFlags$ = 12						; size = 4
_point$ = 16						; size = 4
_p_dwMouseActionID$ = 20				; size = 4
?OnLButtonUp@CNumericalInquiryDragAddInImp@@MAEHPAUHDC__@@IAAUtagPOINT@@K@Z PROC ; CNumericalInquiryDragAddInImp::OnLButtonUp, COMDAT
; _this$ = ecx

; 222  : {

  00000	56		 push	 esi
  00001	8b f1		 mov	 esi, ecx

; 223  : 	// (2006/2/6 - Seung-Won, Bae) Manage Mouse Action ID for Serial Action.
; 224  : 	if( !m_pIAddInToolMgr->ReleaseLButtonExclusive( m_pIAddInDllBase)) return FALSE;

  00003	8b 4e 28	 mov	 ecx, DWORD PTR [esi+40]
  00006	ff 76 14	 push	 DWORD PTR [esi+20]
  00009	8b 01		 mov	 eax, DWORD PTR [ecx]
  0000b	ff 50 38	 call	 DWORD PTR [eax+56]
  0000e	85 c0		 test	 eax, eax
  00010	75 04		 jne	 SHORT $LN2@OnLButtonU
  00012	5e		 pop	 esi

; 233  : }

  00013	c2 10 00	 ret	 16			; 00000010H
$LN2@OnLButtonU:

; 225  : 
; 226  : 	m_ptStartDragDrop = CPoint(-1, -1);
; 227  : 
; 228  : //////////////////////////////////////////////////////////////////////
; 229  : // (2006/6/28 - Seung-Won, Bae) NIDLG Hide with Mouse Action.
; 230  : //////////////////////////////////////////////////////////////////////
; 231  : 	if( m_pNumericalInquiryDlg && !m_bOverActivated) m_pNumericalInquiryDlg->ShowNumericalInquiryDlg( FALSE);	

  00016	8b 4e 50	 mov	 ecx, DWORD PTR [esi+80]
  00019	c7 46 38 ff ff
	ff ff		 mov	 DWORD PTR [esi+56], -1
  00020	c7 46 3c ff ff
	ff ff		 mov	 DWORD PTR [esi+60], -1
  00027	85 c9		 test	 ecx, ecx
  00029	74 0d		 je	 SHORT $LN3@OnLButtonU
  0002b	83 7e 48 00	 cmp	 DWORD PTR [esi+72], 0
  0002f	75 07		 jne	 SHORT $LN3@OnLButtonU
  00031	6a 00		 push	 0
  00033	e8 00 00 00 00	 call	 ?ShowNumericalInquiryDlg@CInquiryDataWindowDlg@@QAEXH@Z ; CInquiryDataWindowDlg::ShowNumericalInquiryDlg
$LN3@OnLButtonU:

; 232  : 	return TRUE;

  00038	b8 01 00 00 00	 mov	 eax, 1
  0003d	5e		 pop	 esi

; 233  : }

  0003e	c2 10 00	 ret	 16			; 00000010H
?OnLButtonUp@CNumericalInquiryDragAddInImp@@MAEHPAUHDC__@@IAAUtagPOINT@@K@Z ENDP ; CNumericalInquiryDragAddInImp::OnLButtonUp
_TEXT	ENDS
; Function compile flags: /Ogtp
; File D:\git\src\IBK\IBK_DRFN\ProjSrc\SrcChartEx\ChartAddIn\ChartAnalysisToolAddIn\ChartAnalysisToolAddIn\NumericalInquiryDragAddInImp.cpp
; File C:\Program Files (x86)\Microsoft Visual Studio\2019\Community\VC\Tools\MSVC\14.29.30133\atlmfc\include\atltypes.h
; File D:\git\src\IBK\IBK_DRFN\ProjSrc\SrcChartEx\ChartAddIn\ChartAnalysisToolAddIn\ChartAnalysisToolAddIn\NumericalInquiryDragAddInImp.cpp
; File C:\Program Files (x86)\Microsoft Visual Studio\2019\Community\VC\Tools\MSVC\14.29.30133\atlmfc\include\atltypes.h
; File D:\git\src\IBK\IBK_DRFN\ProjSrc\SrcChartEx\ChartAddIn\ChartAnalysisToolAddIn\ChartAnalysisToolAddIn\NumericalInquiryDragAddInImp.cpp
;	COMDAT ?OnLButtonDown@CNumericalInquiryDragAddInImp@@MAEHPAUHDC__@@IAAUtagPOINT@@K@Z
_TEXT	SEGMENT
$T1 = -36						; size = 16
$T2 = -20						; size = 16
__$ArrayPad$ = -4					; size = 4
_p_hDC$ = 8						; size = 4
_nFlags$ = 12						; size = 4
_point$ = 16						; size = 4
_p_dwMouseActionID$ = 20				; size = 4
?OnLButtonDown@CNumericalInquiryDragAddInImp@@MAEHPAUHDC__@@IAAUtagPOINT@@K@Z PROC ; CNumericalInquiryDragAddInImp::OnLButtonDown, COMDAT
; _this$ = ecx

; 210  : {

  00000	55		 push	 ebp
  00001	8b ec		 mov	 ebp, esp
  00003	83 ec 24	 sub	 esp, 36			; 00000024H
  00006	a1 00 00 00 00	 mov	 eax, DWORD PTR ___security_cookie
  0000b	33 c5		 xor	 eax, ebp
  0000d	89 45 fc	 mov	 DWORD PTR __$ArrayPad$[ebp], eax
  00010	56		 push	 esi
  00011	8b f1		 mov	 esi, ecx
  00013	57		 push	 edi
  00014	8b 7d 10	 mov	 edi, DWORD PTR _point$[ebp]

; 212  : 		|| CRect(0, 0, 0, 0) == m_pIChartManager->GetGraphRegionSumInColumn( point)) return FALSE;

  00017	83 7e 44 00	 cmp	 DWORD PTR [esi+68], 0
  0001b	74 56		 je	 SHORT $LN3@OnLButtonD
  0001d	8b 4e 20	 mov	 ecx, DWORD PTR [esi+32]
  00020	8b 01		 mov	 eax, DWORD PTR [ecx]
  00022	ff 50 2c	 call	 DWORD PTR [eax+44]
  00025	85 c0		 test	 eax, eax
  00027	75 4a		 jne	 SHORT $LN3@OnLButtonD
  00029	8b 4e 04	 mov	 ecx, DWORD PTR [esi+4]
  0002c	8b 01		 mov	 eax, DWORD PTR [ecx]
  0002e	ff 90 84 00 00
	00		 call	 DWORD PTR [eax+132]
  00034	85 c0		 test	 eax, eax
  00036	75 3b		 jne	 SHORT $LN3@OnLButtonD
  00038	8b 4e 20	 mov	 ecx, DWORD PTR [esi+32]
  0003b	8d 55 dc	 lea	 edx, DWORD PTR $T1[ebp]
  0003e	ff 77 04	 push	 DWORD PTR [edi+4]
  00041	0f 57 c0	 xorps	 xmm0, xmm0
  00044	ff 37		 push	 DWORD PTR [edi]
; File C:\Program Files (x86)\Microsoft Visual Studio\2019\Community\VC\Tools\MSVC\14.29.30133\atlmfc\include\atltypes.h

; 540  : 	left = l;

  00046	0f 11 45 ec	 movups	 XMMWORD PTR $T2[ebp], xmm0
; File D:\git\src\IBK\IBK_DRFN\ProjSrc\SrcChartEx\ChartAddIn\ChartAnalysisToolAddIn\ChartAnalysisToolAddIn\NumericalInquiryDragAddInImp.cpp

; 212  : 		|| CRect(0, 0, 0, 0) == m_pIChartManager->GetGraphRegionSumInColumn( point)) return FALSE;

  0004a	8b 01		 mov	 eax, DWORD PTR [ecx]
  0004c	52		 push	 edx
  0004d	ff 90 88 00 00
	00		 call	 DWORD PTR [eax+136]
; File C:\Program Files (x86)\Microsoft Visual Studio\2019\Community\VC\Tools\MSVC\14.29.30133\atlmfc\include\atltypes.h

; 770  : 	return ::EqualRect(this, &rect);

  00053	50		 push	 eax
  00054	8d 45 ec	 lea	 eax, DWORD PTR $T2[ebp]
  00057	50		 push	 eax
  00058	ff 15 00 00 00
	00		 call	 DWORD PTR __imp__EqualRect@8
; File D:\git\src\IBK\IBK_DRFN\ProjSrc\SrcChartEx\ChartAddIn\ChartAnalysisToolAddIn\ChartAnalysisToolAddIn\NumericalInquiryDragAddInImp.cpp

; 212  : 		|| CRect(0, 0, 0, 0) == m_pIChartManager->GetGraphRegionSumInColumn( point)) return FALSE;

  0005e	85 c0		 test	 eax, eax
  00060	75 11		 jne	 SHORT $LN3@OnLButtonD

; 213  : 
; 214  : 	// (2006/2/6 - Seung-Won, Bae) Manage Mouse Action ID for Serial Action.
; 215  : 	m_dwMouseActionID = p_dwMouseActionID;

  00062	8b 45 14	 mov	 eax, DWORD PTR _p_dwMouseActionID$[ebp]
  00065	89 46 40	 mov	 DWORD PTR [esi+64], eax

; 216  : 	m_ptStartDragDrop = point;

  00068	8b 07		 mov	 eax, DWORD PTR [edi]
  0006a	8b 4f 04	 mov	 ecx, DWORD PTR [edi+4]
  0006d	89 46 38	 mov	 DWORD PTR [esi+56], eax
  00070	89 4e 3c	 mov	 DWORD PTR [esi+60], ecx
$LN3@OnLButtonD:

; 217  : 
; 218  : 	return FALSE;	// return FALSE. OnLButtonDown is not start time of this tool.
; 219  : }

  00073	8b 4d fc	 mov	 ecx, DWORD PTR __$ArrayPad$[ebp]
  00076	33 c0		 xor	 eax, eax
  00078	5f		 pop	 edi
  00079	33 cd		 xor	 ecx, ebp
  0007b	5e		 pop	 esi
  0007c	e8 00 00 00 00	 call	 @__security_check_cookie@4
  00081	8b e5		 mov	 esp, ebp
  00083	5d		 pop	 ebp
  00084	c2 10 00	 ret	 16			; 00000010H
?OnLButtonDown@CNumericalInquiryDragAddInImp@@MAEHPAUHDC__@@IAAUtagPOINT@@K@Z ENDP ; CNumericalInquiryDragAddInImp::OnLButtonDown
_TEXT	ENDS
; Function compile flags: /Ogtp
; File D:\git\src\IBK\IBK_DRFN\ProjSrc\SrcChartEx\ChartAddIn\ChartAnalysisToolAddIn\ChartAnalysisToolAddIn\NumericalInquiryDragAddInImp.cpp
; File C:\Program Files (x86)\Microsoft Visual Studio\2019\Community\VC\Tools\MSVC\14.29.30133\atlmfc\include\atltypes.h
; File D:\git\src\IBK\IBK_DRFN\ProjSrc\SrcChartEx\ChartAddIn\ChartAnalysisToolAddIn\ChartAnalysisToolAddIn\NumericalInquiryDragAddInImp.cpp
; File C:\Program Files (x86)\Microsoft Visual Studio\2019\Community\VC\Tools\MSVC\14.29.30133\atlmfc\include\atltypes.h
; File D:\git\src\IBK\IBK_DRFN\ProjSrc\SrcChartEx\ChartAddIn\ChartAnalysisToolAddIn\ChartAnalysisToolAddIn\NumericalInquiryDragAddInImp.cpp
;	COMDAT ?OnMouseMove@CNumericalInquiryDragAddInImp@@MAEHPAUHDC__@@IAAUtagPOINT@@KQAUHBITMAP__@@@Z
_TEXT	SEGMENT
$T1 = -8						; size = 8
_p_hDC$ = 8						; size = 4
_nFlags$ = 12						; size = 4
_point$ = 16						; size = 4
_p_dwMouseActionID$ = 20				; size = 4
_p_hbmpMainOSB$ = 24					; size = 4
?OnMouseMove@CNumericalInquiryDragAddInImp@@MAEHPAUHDC__@@IAAUtagPOINT@@KQAUHBITMAP__@@@Z PROC ; CNumericalInquiryDragAddInImp::OnMouseMove, COMDAT
; _this$ = ecx

; 185  : { 

  00000	55		 push	 ebp
  00001	8b ec		 mov	 ebp, esp
  00003	83 ec 08	 sub	 esp, 8
  00006	56		 push	 esi
  00007	8b f1		 mov	 esi, ecx

; 186  : 	// (2006/2/6 - Seung-Won, Bae) Manage Mouse Action ID for Serial Action.
; 187  : 	if( !m_pIAddInToolMgr->IsLButtonExclusive( m_pIAddInDllBase))

  00009	8b 4e 28	 mov	 ecx, DWORD PTR [esi+40]
  0000c	ff 76 14	 push	 DWORD PTR [esi+20]
  0000f	8b 01		 mov	 eax, DWORD PTR [ecx]
  00011	ff 50 34	 call	 DWORD PTR [eax+52]
  00014	85 c0		 test	 eax, eax
  00016	75 2b		 jne	 SHORT $LN5@OnMouseMov

; 188  : 	{
; 189  : 		// (2007/2/14 - Seung-Won, Bae) In Win2000, if m_ptStartDragDrop == point, DragZoom takes start.
; 190  : 		//	So, m_ptStartDragDrop == point Checking makes loosing the chance to GeneralStart.
; 191  : 		//	if( m_ptStartDragDrop == point)	return FALSE;			// It is not moved.
; 192  : 
; 193  : 		if( p_dwMouseActionID != m_dwMouseActionID) return FALSE;	// It is not one action.

  00018	8b 45 14	 mov	 eax, DWORD PTR _p_dwMouseActionID$[ebp]
  0001b	3b 46 40	 cmp	 eax, DWORD PTR [esi+64]
  0001e	75 5e		 jne	 SHORT $LN10@OnMouseMov

; 194  : 
; 195  : 		if( !m_pIAddInToolMgr->GetLButtonExclusive( m_pIAddInDllBase)) return FALSE;

  00020	8b 4e 28	 mov	 ecx, DWORD PTR [esi+40]
  00023	ff 76 14	 push	 DWORD PTR [esi+20]
  00026	8b 01		 mov	 eax, DWORD PTR [ecx]
  00028	ff 50 30	 call	 DWORD PTR [eax+48]
  0002b	85 c0		 test	 eax, eax
  0002d	74 4f		 je	 SHORT $LN10@OnMouseMov

; 196  : //////////////////////////////////////////////////////////////////////
; 197  : // (2006/6/28 - Seung-Won, Bae) NIDLG Show with Mouse Action.
; 198  : //////////////////////////////////////////////////////////////////////
; 199  : 		if( m_pNumericalInquiryDlg && !m_bOverActivated) m_pNumericalInquiryDlg->ShowNumericalInquiryDlg( TRUE);		

  0002f	8b 4e 50	 mov	 ecx, DWORD PTR [esi+80]
  00032	85 c9		 test	 ecx, ecx
  00034	74 0d		 je	 SHORT $LN5@OnMouseMov
  00036	83 7e 48 00	 cmp	 DWORD PTR [esi+72], 0
  0003a	75 07		 jne	 SHORT $LN5@OnMouseMov
  0003c	6a 01		 push	 1
  0003e	e8 00 00 00 00	 call	 ?ShowNumericalInquiryDlg@CInquiryDataWindowDlg@@QAEXH@Z ; CInquiryDataWindowDlg::ShowNumericalInquiryDlg
$LN5@OnMouseMov:

; 205  : 	if( m_pNumericalInquiryDlg && !m_bOverActivated) m_pNumericalInquiryDlg->ShowNumericalInquiryDlg( CDC::FromHandle( p_hDC), point);	

  00043	83 7e 50 00	 cmp	 DWORD PTR [esi+80], 0
  00047	74 29		 je	 SHORT $LN6@OnMouseMov
  00049	83 7e 48 00	 cmp	 DWORD PTR [esi+72], 0
  0004d	75 23		 jne	 SHORT $LN6@OnMouseMov
; File C:\Program Files (x86)\Microsoft Visual Studio\2019\Community\VC\Tools\MSVC\14.29.30133\atlmfc\include\atltypes.h

; 414  : 	*(POINT*)this = initPt;

  0004f	8b 45 10	 mov	 eax, DWORD PTR _point$[ebp]
  00052	8b 08		 mov	 ecx, DWORD PTR [eax]
  00054	8b 40 04	 mov	 eax, DWORD PTR [eax+4]
  00057	89 45 fc	 mov	 DWORD PTR $T1[ebp+4], eax
; File D:\git\src\IBK\IBK_DRFN\ProjSrc\SrcChartEx\ChartAddIn\ChartAnalysisToolAddIn\ChartAnalysisToolAddIn\NumericalInquiryDragAddInImp.cpp

; 205  : 	if( m_pNumericalInquiryDlg && !m_bOverActivated) m_pNumericalInquiryDlg->ShowNumericalInquiryDlg( CDC::FromHandle( p_hDC), point);	

  0005a	8d 45 f8	 lea	 eax, DWORD PTR $T1[ebp]
  0005d	50		 push	 eax
  0005e	ff 75 08	 push	 DWORD PTR _p_hDC$[ebp]
; File C:\Program Files (x86)\Microsoft Visual Studio\2019\Community\VC\Tools\MSVC\14.29.30133\atlmfc\include\atltypes.h

; 414  : 	*(POINT*)this = initPt;

  00061	89 4d f8	 mov	 DWORD PTR $T1[ebp], ecx
; File D:\git\src\IBK\IBK_DRFN\ProjSrc\SrcChartEx\ChartAddIn\ChartAnalysisToolAddIn\ChartAnalysisToolAddIn\NumericalInquiryDragAddInImp.cpp

; 205  : 	if( m_pNumericalInquiryDlg && !m_bOverActivated) m_pNumericalInquiryDlg->ShowNumericalInquiryDlg( CDC::FromHandle( p_hDC), point);	

  00064	e8 00 00 00 00	 call	 ?FromHandle@CDC@@SGPAV1@PAUHDC__@@@Z ; CDC::FromHandle
  00069	8b 4e 50	 mov	 ecx, DWORD PTR [esi+80]
  0006c	50		 push	 eax
  0006d	e8 00 00 00 00	 call	 ?ShowNumericalInquiryDlg@CInquiryDataWindowDlg@@QAEXPAVCDC@@ABVCPoint@@@Z ; CInquiryDataWindowDlg::ShowNumericalInquiryDlg
$LN6@OnMouseMov:

; 206  : 	return TRUE;

  00072	b8 01 00 00 00	 mov	 eax, 1
  00077	5e		 pop	 esi

; 207  : }

  00078	8b e5		 mov	 esp, ebp
  0007a	5d		 pop	 ebp
  0007b	c2 14 00	 ret	 20			; 00000014H
$LN10@OnMouseMov:

; 194  : 
; 195  : 		if( !m_pIAddInToolMgr->GetLButtonExclusive( m_pIAddInDllBase)) return FALSE;

  0007e	33 c0		 xor	 eax, eax
  00080	5e		 pop	 esi

; 207  : }

  00081	8b e5		 mov	 esp, ebp
  00083	5d		 pop	 ebp
  00084	c2 14 00	 ret	 20			; 00000014H
?OnMouseMove@CNumericalInquiryDragAddInImp@@MAEHPAUHDC__@@IAAUtagPOINT@@KQAUHBITMAP__@@@Z ENDP ; CNumericalInquiryDragAddInImp::OnMouseMove
_TEXT	ENDS
; Function compile flags: /Ogtp
; File D:\git\src\IBK\IBK_DRFN\ProjSrc\SrcChartEx\ChartAddIn\ChartAnalysisToolAddIn\ChartAnalysisToolAddIn\NumericalInquiryDragAddInImp.cpp
;	COMDAT ?OnAddInToolCommand@CNumericalInquiryDragAddInImp@@MAEHW4EAICommandType@@J@Z
_TEXT	SEGMENT
_p_eCommandID$ = 8					; size = 4
_p_lParam$ = 12						; size = 4
?OnAddInToolCommand@CNumericalInquiryDragAddInImp@@MAEHW4EAICommandType@@J@Z PROC ; CNumericalInquiryDragAddInImp::OnAddInToolCommand, COMDAT
; _this$ = ecx

; 144  : {

  00000	55		 push	 ebp
  00001	8b ec		 mov	 ebp, esp
  00003	56		 push	 esi
  00004	8b f1		 mov	 esi, ecx

; 145  : 	// (2006/2/13 - Seung-Won, Bae) Check Empty Chart
; 146  : 	if( m_pIChartManager->IsEmpty()) return FALSE;

  00006	8b 4e 20	 mov	 ecx, DWORD PTR [esi+32]
  00009	8b 01		 mov	 eax, DWORD PTR [ecx]
  0000b	ff 50 2c	 call	 DWORD PTR [eax+44]
  0000e	85 c0		 test	 eax, eax
  00010	0f 85 bb 00 00
	00		 jne	 $LN13@OnAddInToo

; 147  : 
; 148  : 	switch( p_eCommandID)

  00016	8b 45 08	 mov	 eax, DWORD PTR _p_eCommandID$[ebp]
  00019	83 c0 e2	 add	 eax, -30		; ffffffe2H
  0001c	83 f8 0b	 cmp	 eax, 11			; 0000000bH
  0001f	0f 87 ac 00 00
	00		 ja	 $LN13@OnAddInToo
  00025	0f b6 80 00 00
	00 00		 movzx	 eax, BYTE PTR $LN20@OnAddInToo[eax]
  0002c	ff 24 85 00 00
	00 00		 jmp	 DWORD PTR $LN21@OnAddInToo[eax*4]
$LN5@OnAddInToo:

; 149  : 	{
; 150  : 		case EAI_ALL_ON_CHANGE_CURSOR_MODE:
; 151  : 			// (2006/2/13 - Seung-Won, Bae) Manage the Flag of Environment Setting
; 152  : 			m_bOnToolExecuted = ( p_lParam & NUMERICALINQUIRYDLG) && !( p_lParam & CROSSLINEVIEW);

  00033	8b 55 0c	 mov	 edx, DWORD PTR _p_lParam$[ebp]
  00036	33 c9		 xor	 ecx, ecx
  00038	8b c2		 mov	 eax, edx
  0003a	24 03		 and	 al, 3
  0003c	3c 01		 cmp	 al, 1
  0003e	0f 94 c1	 sete	 cl
  00041	89 4e 44	 mov	 DWORD PTR [esi+68], ecx

; 153  : 			if( m_pNumericalInquiryDlg) m_pNumericalInquiryDlg->OnNumericalInquiryOptionChanged( p_lParam);

  00044	8b 4e 50	 mov	 ecx, DWORD PTR [esi+80]
  00047	85 c9		 test	 ecx, ecx
  00049	0f 84 82 00 00
	00		 je	 $LN13@OnAddInToo
  0004f	52		 push	 edx
  00050	e8 00 00 00 00	 call	 ?OnNumericalInquiryOptionChanged@CInquiryDataWindowDlg@@QAEXJ@Z ; CInquiryDataWindowDlg::OnNumericalInquiryOptionChanged

; 176  : 													return FALSE;
; 177  : 
; 178  : 		default:	return FALSE;

  00055	33 c0		 xor	 eax, eax
  00057	5e		 pop	 esi

; 182  : }

  00058	5d		 pop	 ebp
  00059	c2 08 00	 ret	 8
$LN7@OnAddInToo:

; 154  : 			//		Return False for Next Cursor Mode Handler
; 155  : 			return FALSE;
; 156  : 
; 157  : 		// (2006/6/28 - Seung-Won, Bae) Notify from Over-NIDLG to Drag-NIDLG for avoiding the Multiple NIDLG Active.
; 158  : 		case EAI_NIDLG_DRAG_OVER_ACTIVATED:	m_bOverActivated		= p_lParam;
; 159  : 											
; 160  : 											if( m_pNumericalInquiryDlg) 

  0005c	8b 4e 50	 mov	 ecx, DWORD PTR [esi+80]
  0005f	8b 45 0c	 mov	 eax, DWORD PTR _p_lParam$[ebp]
  00062	89 46 48	 mov	 DWORD PTR [esi+72], eax
  00065	85 c9		 test	 ecx, ecx
  00067	74 68		 je	 SHORT $LN13@OnAddInToo

; 161  : 												m_pNumericalInquiryDlg->ShowNumericalInquiryDlg( !m_bOverActivated && ( m_bOnToolExecuted || m_bOnSubToolExecuted));

  00069	85 c0		 test	 eax, eax
  0006b	75 1c		 jne	 SHORT $LN18@OnAddInToo
  0006d	39 46 44	 cmp	 DWORD PTR [esi+68], eax
  00070	75 05		 jne	 SHORT $LN17@OnAddInToo
  00072	39 46 4c	 cmp	 DWORD PTR [esi+76], eax
  00075	74 12		 je	 SHORT $LN18@OnAddInToo
$LN17@OnAddInToo:
  00077	b8 01 00 00 00	 mov	 eax, 1
  0007c	50		 push	 eax
  0007d	e8 00 00 00 00	 call	 ?ShowNumericalInquiryDlg@CInquiryDataWindowDlg@@QAEXH@Z ; CInquiryDataWindowDlg::ShowNumericalInquiryDlg

; 176  : 													return FALSE;
; 177  : 
; 178  : 		default:	return FALSE;

  00082	33 c0		 xor	 eax, eax
  00084	5e		 pop	 esi

; 182  : }

  00085	5d		 pop	 ebp
  00086	c2 08 00	 ret	 8
$LN18@OnAddInToo:

; 161  : 												m_pNumericalInquiryDlg->ShowNumericalInquiryDlg( !m_bOverActivated && ( m_bOnToolExecuted || m_bOnSubToolExecuted));

  00089	33 c0		 xor	 eax, eax
  0008b	50		 push	 eax
  0008c	e8 00 00 00 00	 call	 ?ShowNumericalInquiryDlg@CInquiryDataWindowDlg@@QAEXH@Z ; CInquiryDataWindowDlg::ShowNumericalInquiryDlg

; 176  : 													return FALSE;
; 177  : 
; 178  : 		default:	return FALSE;

  00091	33 c0		 xor	 eax, eax
  00093	5e		 pop	 esi

; 182  : }

  00094	5d		 pop	 ebp
  00095	c2 08 00	 ret	 8
$LN9@OnAddInToo:

; 162  : 											return FALSE;		// for NIDLG_TOOL
; 163  : 			
; 164  : 		case EAI_NIDLG_DRAG_SHOWHIDE:	// (2006/7/3 - Seung-Won, Bae) Manage the Flag of Sub Tool Executed for Restarting in Over Closing.
; 165  : 										m_bOnSubToolExecuted = ( 1 == p_lParam);
; 166  : 											
; 167  : 										//////////////////////////////////////////////////////////////////////
; 168  : 										// (2006/6/28 - Seung-Won, Bae) NIDLG Show/Hide with Other Control
; 169  : 										//////////////////////////////////////////////////////////////////////
; 170  : 										if( m_pNumericalInquiryDlg && !m_bOverActivated) m_pNumericalInquiryDlg->ShowNumericalInquiryDlg( m_bOnSubToolExecuted);			

  00098	8b 4e 50	 mov	 ecx, DWORD PTR [esi+80]
  0009b	33 c0		 xor	 eax, eax
  0009d	83 7d 0c 01	 cmp	 DWORD PTR _p_lParam$[ebp], 1
  000a1	0f 94 c0	 sete	 al
  000a4	89 46 4c	 mov	 DWORD PTR [esi+76], eax
  000a7	85 c9		 test	 ecx, ecx
  000a9	74 0c		 je	 SHORT $LN10@OnAddInToo
  000ab	83 7e 48 00	 cmp	 DWORD PTR [esi+72], 0
  000af	75 06		 jne	 SHORT $LN10@OnAddInToo
  000b1	50		 push	 eax
  000b2	e8 00 00 00 00	 call	 ?ShowNumericalInquiryDlg@CInquiryDataWindowDlg@@QAEXH@Z ; CInquiryDataWindowDlg::ShowNumericalInquiryDlg
$LN10@OnAddInToo:

; 179  : 	}
; 180  : 
; 181  : 	return TRUE;

  000b7	b8 01 00 00 00	 mov	 eax, 1
  000bc	5e		 pop	 esi

; 182  : }

  000bd	5d		 pop	 ebp
  000be	c2 08 00	 ret	 8
$LN11@OnAddInToo:

; 171  : 										break;
; 172  : 
; 173  : 		// (2006/6/24 - Seung-Won, Bae) Manage the Numerical Inquiry Data Queryer with HorizontalLine Option.
; 174  : 		case EAI_NIDLG_ALL_ENABLE_HORIZONTAL_LINE:	if( m_pNumericalInquiryDlg) 

  000c1	8b 4e 50	 mov	 ecx, DWORD PTR [esi+80]
  000c4	85 c9		 test	 ecx, ecx
  000c6	74 09		 je	 SHORT $LN13@OnAddInToo

; 175  : 														m_pNumericalInquiryDlg->EnableHorizontalLineInNIDLG( p_lParam);

  000c8	8b 45 0c	 mov	 eax, DWORD PTR _p_lParam$[ebp]
  000cb	89 81 cc 01 00
	00		 mov	 DWORD PTR [ecx+460], eax
$LN13@OnAddInToo:

; 176  : 													return FALSE;
; 177  : 
; 178  : 		default:	return FALSE;

  000d1	33 c0		 xor	 eax, eax
  000d3	5e		 pop	 esi

; 182  : }

  000d4	5d		 pop	 ebp
  000d5	c2 08 00	 ret	 8
$LN21@OnAddInToo:
  000d8	00 00 00 00	 DD	 $LN5@OnAddInToo
  000dc	00 00 00 00	 DD	 $LN9@OnAddInToo
  000e0	00 00 00 00	 DD	 $LN7@OnAddInToo
  000e4	00 00 00 00	 DD	 $LN11@OnAddInToo
  000e8	00 00 00 00	 DD	 $LN13@OnAddInToo
$LN20@OnAddInToo:
  000ec	00		 DB	 0
  000ed	04		 DB	 4
  000ee	04		 DB	 4
  000ef	04		 DB	 4
  000f0	04		 DB	 4
  000f1	01		 DB	 1
  000f2	04		 DB	 4
  000f3	02		 DB	 2
  000f4	04		 DB	 4
  000f5	04		 DB	 4
  000f6	04		 DB	 4
  000f7	03		 DB	 3
?OnAddInToolCommand@CNumericalInquiryDragAddInImp@@MAEHW4EAICommandType@@J@Z ENDP ; CNumericalInquiryDragAddInImp::OnAddInToolCommand
_TEXT	ENDS
; Function compile flags: /Ogtp
; File D:\git\src\IBK\IBK_DRFN\ProjSrc\SrcChartEx\ChartAddIn\ChartAnalysisToolAddIn\ChartAnalysisToolAddIn\NumericalInquiryDragAddInImp.cpp
; File C:\Program Files (x86)\Microsoft Visual Studio\2019\Community\VC\Tools\MSVC\14.29.30133\atlmfc\include\atltypes.h
; File D:\git\src\IBK\IBK_DRFN\ProjSrc\SrcChartEx\ChartAddIn\ChartAnalysisToolAddIn\ChartAnalysisToolAddIn\NumericalInquiryDragAddInImp.cpp
; File C:\Program Files (x86)\Microsoft Visual Studio\2019\Community\VC\Tools\MSVC\14.29.30133\atlmfc\include\atltypes.h
; File D:\git\src\IBK\IBK_DRFN\ProjSrc\SrcChartEx\ChartAddIn\ChartAnalysisToolAddIn\ChartAnalysisToolAddIn\NumericalInquiryDragAddInImp.cpp
;	COMDAT ?OnAddInToolCommand@CNumericalInquiryDragAddInImp@@MAEHW4EAICommandType@@PAUHDC__@@IAAUtagPOINT@@K@Z
_TEXT	SEGMENT
$T1 = -8						; size = 8
_p_eCommandID$ = 8					; size = 4
_p_hDC$ = 12						; size = 4
_nFlags$ = 16						; size = 4
_point$ = 20						; size = 4
_p_dwMouseActionID$ = 24				; size = 4
?OnAddInToolCommand@CNumericalInquiryDragAddInImp@@MAEHW4EAICommandType@@PAUHDC__@@IAAUtagPOINT@@K@Z PROC ; CNumericalInquiryDragAddInImp::OnAddInToolCommand, COMDAT
; _this$ = ecx

; 134  : {

  00000	55		 push	 ebp
  00001	8b ec		 mov	 ebp, esp
  00003	83 ec 08	 sub	 esp, 8

; 135  : 	if( EAI_NIDLG_DRAG_ONMOUSEMOVE != p_eCommandID) return FALSE;

  00006	83 7d 08 24	 cmp	 DWORD PTR _p_eCommandID$[ebp], 36 ; 00000024H
  0000a	56		 push	 esi
  0000b	8b f1		 mov	 esi, ecx
  0000d	74 09		 je	 SHORT $LN2@OnAddInToo
  0000f	33 c0		 xor	 eax, eax
  00011	5e		 pop	 esi

; 141  : }

  00012	8b e5		 mov	 esp, ebp
  00014	5d		 pop	 ebp
  00015	c2 14 00	 ret	 20			; 00000014H
$LN2@OnAddInToo:

; 139  : 	if( m_pNumericalInquiryDlg && !m_bOverActivated) m_pNumericalInquiryDlg->ShowNumericalInquiryDlg( CDC::FromHandle( p_hDC), point);	

  00018	83 7e 50 00	 cmp	 DWORD PTR [esi+80], 0
  0001c	74 29		 je	 SHORT $LN3@OnAddInToo
  0001e	83 7e 48 00	 cmp	 DWORD PTR [esi+72], 0
  00022	75 23		 jne	 SHORT $LN3@OnAddInToo
; File C:\Program Files (x86)\Microsoft Visual Studio\2019\Community\VC\Tools\MSVC\14.29.30133\atlmfc\include\atltypes.h

; 414  : 	*(POINT*)this = initPt;

  00024	8b 45 14	 mov	 eax, DWORD PTR _point$[ebp]
  00027	8b 08		 mov	 ecx, DWORD PTR [eax]
  00029	8b 40 04	 mov	 eax, DWORD PTR [eax+4]
  0002c	89 45 fc	 mov	 DWORD PTR $T1[ebp+4], eax
; File D:\git\src\IBK\IBK_DRFN\ProjSrc\SrcChartEx\ChartAddIn\ChartAnalysisToolAddIn\ChartAnalysisToolAddIn\NumericalInquiryDragAddInImp.cpp

; 139  : 	if( m_pNumericalInquiryDlg && !m_bOverActivated) m_pNumericalInquiryDlg->ShowNumericalInquiryDlg( CDC::FromHandle( p_hDC), point);	

  0002f	8d 45 f8	 lea	 eax, DWORD PTR $T1[ebp]
  00032	50		 push	 eax
  00033	ff 75 0c	 push	 DWORD PTR _p_hDC$[ebp]
; File C:\Program Files (x86)\Microsoft Visual Studio\2019\Community\VC\Tools\MSVC\14.29.30133\atlmfc\include\atltypes.h

; 414  : 	*(POINT*)this = initPt;

  00036	89 4d f8	 mov	 DWORD PTR $T1[ebp], ecx
; File D:\git\src\IBK\IBK_DRFN\ProjSrc\SrcChartEx\ChartAddIn\ChartAnalysisToolAddIn\ChartAnalysisToolAddIn\NumericalInquiryDragAddInImp.cpp

; 139  : 	if( m_pNumericalInquiryDlg && !m_bOverActivated) m_pNumericalInquiryDlg->ShowNumericalInquiryDlg( CDC::FromHandle( p_hDC), point);	

  00039	e8 00 00 00 00	 call	 ?FromHandle@CDC@@SGPAV1@PAUHDC__@@@Z ; CDC::FromHandle
  0003e	8b 4e 50	 mov	 ecx, DWORD PTR [esi+80]
  00041	50		 push	 eax
  00042	e8 00 00 00 00	 call	 ?ShowNumericalInquiryDlg@CInquiryDataWindowDlg@@QAEXPAVCDC@@ABVCPoint@@@Z ; CInquiryDataWindowDlg::ShowNumericalInquiryDlg
$LN3@OnAddInToo:

; 140  : 	return TRUE;

  00047	b8 01 00 00 00	 mov	 eax, 1
  0004c	5e		 pop	 esi

; 141  : }

  0004d	8b e5		 mov	 esp, ebp
  0004f	5d		 pop	 ebp
  00050	c2 14 00	 ret	 20			; 00000014H
?OnAddInToolCommand@CNumericalInquiryDragAddInImp@@MAEHW4EAICommandType@@PAUHDC__@@IAAUtagPOINT@@K@Z ENDP ; CNumericalInquiryDragAddInImp::OnAddInToolCommand
_TEXT	ENDS
; Function compile flags: /Ogtp
; File D:\git\src\IBK\IBK_DRFN\ProjSrc\SrcChartEx\ChartAddIn\ChartAnalysisToolAddIn\ChartAnalysisToolAddIn\NumericalInquiryDragAddInImp.cpp
;	COMDAT ?OnAddInToolCommand@CNumericalInquiryDragAddInImp@@MAEHW4EAICommandType@@@Z
_TEXT	SEGMENT
_p_eCommandID$ = 8					; size = 4
?OnAddInToolCommand@CNumericalInquiryDragAddInImp@@MAEHW4EAICommandType@@@Z PROC ; CNumericalInquiryDragAddInImp::OnAddInToolCommand, COMDAT
; _this$ = ecx

; 128  : {

  00000	55		 push	 ebp
  00001	8b ec		 mov	 ebp, esp

; 129  : 	if( EAI_ALL_APPLY_STYLE == p_eCommandID) if( m_pNumericalInquiryDlg) m_pNumericalInquiryDlg->SetNumericalInquiryDlgBrush( m_pIChartOCX->GetStyleValueNIDLGColor());

  00003	83 7d 08 18	 cmp	 DWORD PTR _p_eCommandID$[ebp], 24 ; 00000018H
  00007	56		 push	 esi
  00008	8b f1		 mov	 esi, ecx
  0000a	75 1a		 jne	 SHORT $LN6@OnAddInToo
  0000c	83 7e 50 00	 cmp	 DWORD PTR [esi+80], 0
  00010	74 14		 je	 SHORT $LN6@OnAddInToo
  00012	8b 4e 04	 mov	 ecx, DWORD PTR [esi+4]
  00015	8b 01		 mov	 eax, DWORD PTR [ecx]
  00017	ff 90 e4 01 00
	00		 call	 DWORD PTR [eax+484]
  0001d	8b 4e 50	 mov	 ecx, DWORD PTR [esi+80]
  00020	50		 push	 eax
  00021	e8 00 00 00 00	 call	 ?SetNumericalInquiryDlgBrush@CInquiryDataWindowDlg@@QAEXK@Z ; CInquiryDataWindowDlg::SetNumericalInquiryDlgBrush
$LN6@OnAddInToo:

; 130  : 	return FALSE;
; 131  : }

  00026	33 c0		 xor	 eax, eax
  00028	5e		 pop	 esi
  00029	5d		 pop	 ebp
  0002a	c2 04 00	 ret	 4
?OnAddInToolCommand@CNumericalInquiryDragAddInImp@@MAEHW4EAICommandType@@@Z ENDP ; CNumericalInquiryDragAddInImp::OnAddInToolCommand
_TEXT	ENDS
; Function compile flags: /Ogtp
; File D:\git\src\IBK\IBK_DRFN\ProjSrc\SrcChartEx\ChartAddIn\ChartAnalysisToolAddIn\ChartAnalysisToolAddIn\NumericalInquiryDragAddInImp.cpp
;	COMDAT ?OnResetMainBlock@CNumericalInquiryDragAddInImp@@MAEXXZ
_TEXT	SEGMENT
?OnResetMainBlock@CNumericalInquiryDragAddInImp@@MAEXXZ PROC ; CNumericalInquiryDragAddInImp::OnResetMainBlock, COMDAT
; _this$ = ecx

; 123  : {

  00000	56		 push	 esi
  00001	8b f1		 mov	 esi, ecx

; 124  : 	if( m_pNumericalInquiryDlg) m_pNumericalInquiryDlg->SetNumericalInquiryDlgBrush( m_pIChartOCX->GetStyleValueNIDLGColor());

  00003	83 7e 50 00	 cmp	 DWORD PTR [esi+80], 0
  00007	74 14		 je	 SHORT $LN2@OnResetMai
  00009	8b 4e 04	 mov	 ecx, DWORD PTR [esi+4]
  0000c	8b 01		 mov	 eax, DWORD PTR [ecx]
  0000e	ff 90 e4 01 00
	00		 call	 DWORD PTR [eax+484]
  00014	8b 4e 50	 mov	 ecx, DWORD PTR [esi+80]
  00017	50		 push	 eax
  00018	e8 00 00 00 00	 call	 ?SetNumericalInquiryDlgBrush@CInquiryDataWindowDlg@@QAEXK@Z ; CInquiryDataWindowDlg::SetNumericalInquiryDlgBrush
$LN2@OnResetMai:

; 125  : }

  0001d	5e		 pop	 esi
  0001e	c3		 ret	 0
?OnResetMainBlock@CNumericalInquiryDragAddInImp@@MAEXXZ ENDP ; CNumericalInquiryDragAddInImp::OnResetMainBlock
_TEXT	ENDS
; Function compile flags: /Ogtp
; File D:\git\src\IBK\IBK_DRFN\ProjSrc\SrcChartEx\ChartAddIn\ChartAnalysisToolAddIn\ChartAnalysisToolAddIn\NumericalInquiryDragAddInImp.cpp
;	COMDAT ?OnPacketDataMultiItem@CNumericalInquiryDragAddInImp@@MAEXPBD0H@Z
_TEXT	SEGMENT
_lpszRQ$ = 8						; size = 4
_p_szPacketNames$ = 12					; size = 4
_p_bWithReset$ = 16					; size = 4
?OnPacketDataMultiItem@CNumericalInquiryDragAddInImp@@MAEXPBD0H@Z PROC ; CNumericalInquiryDragAddInImp::OnPacketDataMultiItem, COMDAT
; _this$ = ecx

; 103  : {

  00000	8b c1		 mov	 eax, ecx

; 104  : 	if( m_pNumericalInquiryDlg && !m_bOverActivated) if( m_pNumericalInquiryDlg->GetSafeHwnd()) m_pNumericalInquiryDlg->Refresh();	

  00002	8b 48 50	 mov	 ecx, DWORD PTR [eax+80]
  00005	85 c9		 test	 ecx, ecx
  00007	74 11		 je	 SHORT $LN3@OnPacketDa
  00009	83 78 48 00	 cmp	 DWORD PTR [eax+72], 0
  0000d	75 0b		 jne	 SHORT $LN3@OnPacketDa
  0000f	83 79 20 00	 cmp	 DWORD PTR [ecx+32], 0
  00013	74 05		 je	 SHORT $LN3@OnPacketDa
  00015	e8 00 00 00 00	 call	 ?Refresh@CInquiryDataWindowDlg@@QAEXXZ ; CInquiryDataWindowDlg::Refresh
$LN3@OnPacketDa:

; 105  : }

  0001a	c2 0c 00	 ret	 12			; 0000000cH
?OnPacketDataMultiItem@CNumericalInquiryDragAddInImp@@MAEXPBD0H@Z ENDP ; CNumericalInquiryDragAddInImp::OnPacketDataMultiItem
_TEXT	ENDS
; Function compile flags: /Ogtp
; File D:\git\src\IBK\IBK_DRFN\ProjSrc\SrcChartEx\ChartAddIn\ChartAnalysisToolAddIn\ChartAnalysisToolAddIn\NumericalInquiryDragAddInImp.cpp
;	COMDAT ?OnRealPacketEnd@CNumericalInquiryDragAddInImp@@MAEXPBD@Z
_TEXT	SEGMENT
_p_szRQ$ = 8						; size = 4
?OnRealPacketEnd@CNumericalInquiryDragAddInImp@@MAEXPBD@Z PROC ; CNumericalInquiryDragAddInImp::OnRealPacketEnd, COMDAT
; _this$ = ecx

; 98   : {

  00000	8b c1		 mov	 eax, ecx

; 99   : 	if( m_pNumericalInquiryDlg && !m_bOverActivated) if( m_pNumericalInquiryDlg->GetSafeHwnd()) m_pNumericalInquiryDlg->Refresh();	

  00002	8b 48 50	 mov	 ecx, DWORD PTR [eax+80]
  00005	85 c9		 test	 ecx, ecx
  00007	74 11		 je	 SHORT $LN3@OnRealPack
  00009	83 78 48 00	 cmp	 DWORD PTR [eax+72], 0
  0000d	75 0b		 jne	 SHORT $LN3@OnRealPack
  0000f	83 79 20 00	 cmp	 DWORD PTR [ecx+32], 0
  00013	74 05		 je	 SHORT $LN3@OnRealPack
  00015	e8 00 00 00 00	 call	 ?Refresh@CInquiryDataWindowDlg@@QAEXXZ ; CInquiryDataWindowDlg::Refresh
$LN3@OnRealPack:

; 100  : }

  0001a	c2 04 00	 ret	 4
?OnRealPacketEnd@CNumericalInquiryDragAddInImp@@MAEXPBD@Z ENDP ; CNumericalInquiryDragAddInImp::OnRealPacketEnd
_TEXT	ENDS
; Function compile flags: /Ogtp
; File D:\git\src\IBK\IBK_DRFN\ProjSrc\SrcChartEx\ChartAddIn\ChartAnalysisToolAddIn\ChartAnalysisToolAddIn\NumericalInquiryDragAddInImp.cpp
;	COMDAT ?OnResetChart@CNumericalInquiryDragAddInImp@@MAEXXZ
_TEXT	SEGMENT
?OnResetChart@CNumericalInquiryDragAddInImp@@MAEXXZ PROC ; CNumericalInquiryDragAddInImp::OnResetChart, COMDAT
; _this$ = ecx

; 109  : 	if(m_bOnSubToolExecuted == FALSE) return;

  00000	83 79 4c 00	 cmp	 DWORD PTR [ecx+76], 0
  00004	74 1c		 je	 SHORT $LN3@OnResetCha

; 110  : 
; 111  : 	m_bOnSubToolExecuted = FALSE;	

  00006	c7 41 4c 00 00
	00 00		 mov	 DWORD PTR [ecx+76], 0

; 112  : 	m_bOverActivated = FALSE;

  0000d	c7 41 48 00 00
	00 00		 mov	 DWORD PTR [ecx+72], 0

; 113  : 	if( m_pNumericalInquiryDlg && !m_bOverActivated) 

  00014	8b 49 50	 mov	 ecx, DWORD PTR [ecx+80]
  00017	85 c9		 test	 ecx, ecx
  00019	74 07		 je	 SHORT $LN3@OnResetCha

; 114  : 		m_pNumericalInquiryDlg->ShowNumericalInquiryDlg( m_bOnSubToolExecuted);	

  0001b	6a 00		 push	 0
  0001d	e8 00 00 00 00	 call	 ?ShowNumericalInquiryDlg@CInquiryDataWindowDlg@@QAEXH@Z ; CInquiryDataWindowDlg::ShowNumericalInquiryDlg
$LN3@OnResetCha:

; 115  : } 

  00022	c3		 ret	 0
?OnResetChart@CNumericalInquiryDragAddInImp@@MAEXXZ ENDP ; CNumericalInquiryDragAddInImp::OnResetChart
_TEXT	ENDS
; Function compile flags: /Ogtp
; File D:\git\src\IBK\IBK_DRFN\ProjSrc\SrcChartEx\ChartAddIn\ChartAnalysisToolAddIn\ChartAnalysisToolAddIn\NumericalInquiryDragAddInImp.cpp
; File C:\Program Files (x86)\Microsoft Visual Studio\2019\Community\VC\Tools\MSVC\14.29.30133\atlmfc\include\afxwin2.inl
; File D:\git\src\IBK\IBK_DRFN\ProjSrc\SrcChartEx\ChartAddIn\ChartAnalysisToolAddIn\ChartAnalysisToolAddIn\NumericalInquiryDragAddInImp.cpp
; File C:\Program Files (x86)\Microsoft Visual Studio\2019\Community\VC\Tools\MSVC\14.29.30133\atlmfc\include\afxwin2.inl
; File D:\git\src\IBK\IBK_DRFN\ProjSrc\SrcChartEx\ChartAddIn\ChartAnalysisToolAddIn\ChartAnalysisToolAddIn\NumericalInquiryDragAddInImp.cpp
;	COMDAT ?OnDrawAfterGraph@CNumericalInquiryDragAddInImp@@MAEXPAUHDC__@@@Z
_TEXT	SEGMENT
_p_hDC$ = 8						; size = 4
?OnDrawAfterGraph@CNumericalInquiryDragAddInImp@@MAEXPAUHDC__@@@Z PROC ; CNumericalInquiryDragAddInImp::OnDrawAfterGraph, COMDAT
; _this$ = ecx

; 92   : 	if( m_pNumericalInquiryDlg && !m_bOverActivated) if( m_pNumericalInquiryDlg->GetSafeHwnd())

  00000	8b 41 50	 mov	 eax, DWORD PTR [ecx+80]
  00003	85 c0		 test	 eax, eax
  00005	74 1d		 je	 SHORT $LN3@OnDrawAfte
  00007	83 79 48 00	 cmp	 DWORD PTR [ecx+72], 0
  0000b	75 17		 jne	 SHORT $LN3@OnDrawAfte
; File C:\Program Files (x86)\Microsoft Visual Studio\2019\Community\VC\Tools\MSVC\14.29.30133\atlmfc\include\afxwin2.inl

; 25   : 	{ return this == NULL ? NULL : m_hWnd; }

  0000d	8b 40 20	 mov	 eax, DWORD PTR [eax+32]
; File D:\git\src\IBK\IBK_DRFN\ProjSrc\SrcChartEx\ChartAddIn\ChartAnalysisToolAddIn\ChartAnalysisToolAddIn\NumericalInquiryDragAddInImp.cpp

; 92   : 	if( m_pNumericalInquiryDlg && !m_bOverActivated) if( m_pNumericalInquiryDlg->GetSafeHwnd())

  00010	85 c0		 test	 eax, eax
  00012	74 10		 je	 SHORT $LN3@OnDrawAfte
; File C:\Program Files (x86)\Microsoft Visual Studio\2019\Community\VC\Tools\MSVC\14.29.30133\atlmfc\include\afxwin2.inl

; 142  : 	{ ASSERT(::IsWindow(m_hWnd)); return ::RedrawWindow(m_hWnd, lpRectUpdate, (HRGN)prgnUpdate->GetSafeHandle(), flags); }

  00014	68 05 05 00 00	 push	 1285			; 00000505H
  00019	6a 00		 push	 0
  0001b	6a 00		 push	 0
  0001d	50		 push	 eax
  0001e	ff 15 00 00 00
	00		 call	 DWORD PTR __imp__RedrawWindow@16
$LN3@OnDrawAfte:
; File D:\git\src\IBK\IBK_DRFN\ProjSrc\SrcChartEx\ChartAddIn\ChartAnalysisToolAddIn\ChartAnalysisToolAddIn\NumericalInquiryDragAddInImp.cpp

; 94   : }

  00024	c2 04 00	 ret	 4
?OnDrawAfterGraph@CNumericalInquiryDragAddInImp@@MAEXPAUHDC__@@@Z ENDP ; CNumericalInquiryDragAddInImp::OnDrawAfterGraph
_TEXT	ENDS
; Function compile flags: /Ogtp
; File D:\git\src\IBK\IBK_DRFN\ProjSrc\SrcChartEx\ChartAddIn\ChartAnalysisToolAddIn\ChartAnalysisToolAddIn\NumericalInquiryDragAddInImp.cpp
;	COMDAT ?InvokeAddIn@CNumericalInquiryDragAddInImp@@MAEHHJ@Z
_TEXT	SEGMENT
_p_nCommandType$ = 8					; size = 4
_p_lData$ = 12						; size = 4
?InvokeAddIn@CNumericalInquiryDragAddInImp@@MAEHHJ@Z PROC ; CNumericalInquiryDragAddInImp::InvokeAddIn, COMDAT
; _this$ = ecx

; 78   : {

  00000	55		 push	 ebp
  00001	8b ec		 mov	 ebp, esp

; 79   : 	// (2008/10/30 - Seung-Won, Bae) for Inquiry Data Export.
; 80   : 	if( 1030 == p_nCommandType && m_pNumericalInquiryDlg)

  00003	81 7d 08 06 04
	00 00		 cmp	 DWORD PTR _p_nCommandType$[ebp], 1030 ; 00000406H
  0000a	75 19		 jne	 SHORT $LN2@InvokeAddI
  0000c	8b 49 50	 mov	 ecx, DWORD PTR [ecx+80]
  0000f	85 c9		 test	 ecx, ecx
  00011	74 12		 je	 SHORT $LN2@InvokeAddI

; 81   : 	{
; 82   : 		m_pNumericalInquiryDlg->SetExportMode( ( HWND)p_lData);

  00013	8b 45 0c	 mov	 eax, DWORD PTR _p_lData$[ebp]
  00016	89 81 e8 01 00
	00		 mov	 DWORD PTR [ecx+488], eax

; 83   : 		return TRUE;

  0001c	b8 01 00 00 00	 mov	 eax, 1

; 86   : }

  00021	5d		 pop	 ebp
  00022	c2 08 00	 ret	 8
$LN2@InvokeAddI:

; 84   : 	}
; 85   : 	return FALSE;

  00025	33 c0		 xor	 eax, eax

; 86   : }

  00027	5d		 pop	 ebp
  00028	c2 08 00	 ret	 8
?InvokeAddIn@CNumericalInquiryDragAddInImp@@MAEHHJ@Z ENDP ; CNumericalInquiryDragAddInImp::InvokeAddIn
_TEXT	ENDS
; Function compile flags: /Ogtp
; File D:\git\src\IBK\IBK_DRFN\ProjSrc\SrcChartEx\ChartAddIn\ChartAnalysisToolAddIn\ChartAnalysisToolAddIn\NumericalInquiryDragAddInImp.h
;	COMDAT ?GetRegisteredEventMap@CNumericalInquiryDragAddInImp@@MBEPBW4EAddInEventType@IChartAddIn133101@@XZ
_TEXT	SEGMENT
?GetRegisteredEventMap@CNumericalInquiryDragAddInImp@@MBEPBW4EAddInEventType@IChartAddIn133101@@XZ PROC ; CNumericalInquiryDragAddInImp::GetRegisteredEventMap, COMDAT
; _this$ = ecx

; 90   : 	DECLARE_ADDIN_EVENT_MAP()

  00000	b8 00 00 00 00	 mov	 eax, OFFSET ?m_eRegisteredEventMap@CNumericalInquiryDragAddInImp@@1QBW4EAddInEventType@IChartAddIn133101@@B ; CNumericalInquiryDragAddInImp::m_eRegisteredEventMap
  00005	c3		 ret	 0
?GetRegisteredEventMap@CNumericalInquiryDragAddInImp@@MBEPBW4EAddInEventType@IChartAddIn133101@@XZ ENDP ; CNumericalInquiryDragAddInImp::GetRegisteredEventMap
_TEXT	ENDS
; Function compile flags: /Ogtp
; File D:\git\src\IBK\IBK_DRFN\ProjSrc\SrcChartEx\ChartAddIn\ChartAnalysisToolAddIn\ChartAnalysisToolAddIn\NumericalInquiryDragAddInImp.cpp
; File C:\Program Files (x86)\Microsoft Visual Studio\2019\Community\VC\Tools\MSVC\14.29.30133\atlmfc\include\afxwin1.inl
; File D:\git\src\IBK\IBK_DRFN\ProjSrc\SrcChartEx\ChartAddIn\ChartAnalysisToolAddIn\Include_Chart\Dll_Load\IMetaTable.h
; File C:\Program Files (x86)\Microsoft Visual Studio\2019\Community\VC\Tools\MSVC\14.29.30133\atlmfc\include\afxwin1.inl
; File D:\git\src\IBK\IBK_DRFN\ProjSrc\SrcChartEx\ChartAddIn\ChartAnalysisToolAddIn\ChartAnalysisToolAddIn\NumericalInquiryDragAddInImp.cpp
; File D:\git\src\IBK\IBK_DRFN\ProjSrc\SrcChartEx\ChartAddIn\ChartAnalysisToolAddIn\Include_Chart\Dll_Load\IMetaTable.h
; File C:\Program Files (x86)\Microsoft Visual Studio\2019\Community\VC\Tools\MSVC\14.29.30133\atlmfc\include\afxwin1.inl
; File D:\git\src\IBK\IBK_DRFN\ProjSrc\SrcChartEx\ChartAddIn\ChartAnalysisToolAddIn\ChartAnalysisToolAddIn\NumericalInquiryDragAddInImp.cpp
; File C:\Program Files (x86)\Microsoft Visual Studio\2019\Community\VC\Tools\MSVC\14.29.30133\atlmfc\include\afxwin1.inl
; File D:\git\src\IBK\IBK_DRFN\ProjSrc\SrcChartEx\ChartAddIn\ChartAnalysisToolAddIn\ChartAnalysisToolAddIn\NumericalInquiryDragAddInImp.cpp
;	COMDAT ??1CNumericalInquiryDragAddInImp@@UAE@XZ
_TEXT	SEGMENT
__$EHRec$ = -12						; size = 12
??1CNumericalInquiryDragAddInImp@@UAE@XZ PROC		; CNumericalInquiryDragAddInImp::~CNumericalInquiryDragAddInImp, COMDAT
; _this$ = ecx

; 46   : {

  00000	55		 push	 ebp
  00001	8b ec		 mov	 ebp, esp
  00003	6a ff		 push	 -1
  00005	68 00 00 00 00	 push	 __ehhandler$??1CNumericalInquiryDragAddInImp@@UAE@XZ
  0000a	64 a1 00 00 00
	00		 mov	 eax, DWORD PTR fs:0
  00010	50		 push	 eax
  00011	53		 push	 ebx
  00012	56		 push	 esi
  00013	57		 push	 edi
  00014	a1 00 00 00 00	 mov	 eax, DWORD PTR ___security_cookie
  00019	33 c5		 xor	 eax, ebp
  0001b	50		 push	 eax
  0001c	8d 45 f4	 lea	 eax, DWORD PTR __$EHRec$[ebp]
  0001f	64 a3 00 00 00
	00		 mov	 DWORD PTR fs:0, eax
  00025	8b d9		 mov	 ebx, ecx
  00027	c7 03 00 00 00
	00		 mov	 DWORD PTR [ebx], OFFSET ??_7CNumericalInquiryDragAddInImp@@6BCIWUnknown@@@
  0002d	c7 43 08 00 00
	00 00		 mov	 DWORD PTR [ebx+8], OFFSET ??_7CNumericalInquiryDragAddInImp@@6BIChartAddIn133101@@@

; 47   : 	// (2006/6/27 - Seung-Won, Bae) Manage Numerical Inquiry Dialog with DLL Resource
; 48   : 	ML_SET_LANGUAGE_RES();

  00034	e8 00 00 00 00	 call	 ?AfxGetStaticModuleState@@YGPAVAFX_MODULE_STATE@@XZ ; AfxGetStaticModuleState
  00039	b9 00 00 00 00	 mov	 ecx, OFFSET ?g_iMetaTable@@3VIMetaTable@@A ; g_iMetaTable
  0003e	8b 40 08	 mov	 eax, DWORD PTR [eax+8]
  00041	50		 push	 eax
  00042	ff 73 60	 push	 DWORD PTR [ebx+96]
  00045	e8 00 00 00 00	 call	 ?LoadResourceDLL@IMetaTable@@QAEPAUHINSTANCE__@@PAUHWND__@@PAU2@@Z ; IMetaTable::LoadResourceDLL
  0004a	8b f8		 mov	 edi, eax
; File C:\Program Files (x86)\Microsoft Visual Studio\2019\Community\VC\Tools\MSVC\14.29.30133\atlmfc\include\afxwin1.inl

; 25   : 		return afxCurrentResourceHandle; }

  0004c	e8 00 00 00 00	 call	 ?AfxGetModuleState@@YGPAVAFX_MODULE_STATE@@XZ ; AfxGetModuleState
; File D:\git\src\IBK\IBK_DRFN\ProjSrc\SrcChartEx\ChartAddIn\ChartAnalysisToolAddIn\Include_Chart\Dll_Load\IMetaTable.h

; 1034 : 		m_hInstance = AfxGetResourceHandle();

  00051	8b 70 0c	 mov	 esi, DWORD PTR [eax+12]
; File C:\Program Files (x86)\Microsoft Visual Studio\2019\Community\VC\Tools\MSVC\14.29.30133\atlmfc\include\afxwin1.inl

; 27   : 	{ ASSERT(hInstResource != NULL); afxCurrentResourceHandle = hInstResource; }

  00054	e8 00 00 00 00	 call	 ?AfxGetModuleState@@YGPAVAFX_MODULE_STATE@@XZ ; AfxGetModuleState
  00059	89 78 0c	 mov	 DWORD PTR [eax+12], edi
; File D:\git\src\IBK\IBK_DRFN\ProjSrc\SrcChartEx\ChartAddIn\ChartAnalysisToolAddIn\ChartAnalysisToolAddIn\NumericalInquiryDragAddInImp.cpp

; 49   : 	if( m_pNumericalInquiryDlg) delete m_pNumericalInquiryDlg;	

  0005c	8b 4b 58	 mov	 ecx, DWORD PTR [ebx+88]
  0005f	85 c9		 test	 ecx, ecx
  00061	74 07		 je	 SHORT $LN4@CNumerical
  00063	8b 01		 mov	 eax, DWORD PTR [ecx]
  00065	6a 01		 push	 1
  00067	ff 50 04	 call	 DWORD PTR [eax+4]
$LN4@CNumerical:
; File D:\git\src\IBK\IBK_DRFN\ProjSrc\SrcChartEx\ChartAddIn\ChartAnalysisToolAddIn\Include_Chart\Dll_Load\IMetaTable.h

; 1038 : 	{

  0006a	c7 45 fc 00 00
	00 00		 mov	 DWORD PTR __$EHRec$[ebp+8], 0
; File C:\Program Files (x86)\Microsoft Visual Studio\2019\Community\VC\Tools\MSVC\14.29.30133\atlmfc\include\afxwin1.inl

; 27   : 	{ ASSERT(hInstResource != NULL); afxCurrentResourceHandle = hInstResource; }

  00071	e8 00 00 00 00	 call	 ?AfxGetModuleState@@YGPAVAFX_MODULE_STATE@@XZ ; AfxGetModuleState
; File D:\git\src\IBK\IBK_DRFN\ProjSrc\SrcChartEx\ChartAddIn\ChartAnalysisToolAddIn\ChartAnalysisToolAddIn\NumericalInquiryDragAddInImp.cpp

; 50   : }

  00076	8b cb		 mov	 ecx, ebx
; File C:\Program Files (x86)\Microsoft Visual Studio\2019\Community\VC\Tools\MSVC\14.29.30133\atlmfc\include\afxwin1.inl

; 27   : 	{ ASSERT(hInstResource != NULL); afxCurrentResourceHandle = hInstResource; }

  00078	89 70 0c	 mov	 DWORD PTR [eax+12], esi
; File D:\git\src\IBK\IBK_DRFN\ProjSrc\SrcChartEx\ChartAddIn\ChartAnalysisToolAddIn\ChartAnalysisToolAddIn\NumericalInquiryDragAddInImp.cpp

; 50   : }

  0007b	e8 00 00 00 00	 call	 ??1CChartAddInBase133101@@MAE@XZ ; CChartAddInBase133101::~CChartAddInBase133101
  00080	8b 4d f4	 mov	 ecx, DWORD PTR __$EHRec$[ebp]
  00083	64 89 0d 00 00
	00 00		 mov	 DWORD PTR fs:0, ecx
  0008a	59		 pop	 ecx
  0008b	5f		 pop	 edi
  0008c	5e		 pop	 esi
  0008d	5b		 pop	 ebx
  0008e	8b e5		 mov	 esp, ebp
  00090	5d		 pop	 ebp
  00091	c3		 ret	 0
  00092	cc		 int	 3
  00093	cc		 int	 3
  00094	cc		 int	 3
  00095	cc		 int	 3
  00096	cc		 int	 3
_TEXT	ENDS
;	COMDAT text$x
text$x	SEGMENT
__ehhandler$??1CNumericalInquiryDragAddInImp@@UAE@XZ:
  00000	90		 npad	 1
  00001	90		 npad	 1
  00002	8b 54 24 08	 mov	 edx, DWORD PTR [esp+8]
  00006	8d 42 0c	 lea	 eax, DWORD PTR [edx+12]
  00009	8b 4a f0	 mov	 ecx, DWORD PTR [edx-16]
  0000c	33 c8		 xor	 ecx, eax
  0000e	e8 00 00 00 00	 call	 @__security_check_cookie@4
  00013	b8 00 00 00 00	 mov	 eax, OFFSET __ehfuncinfo$??1CNumericalInquiryDragAddInImp@@UAE@XZ
  00018	e9 00 00 00 00	 jmp	 ___CxxFrameHandler3
text$x	ENDS
??1CNumericalInquiryDragAddInImp@@UAE@XZ ENDP		; CNumericalInquiryDragAddInImp::~CNumericalInquiryDragAddInImp
; Function compile flags: /Ogtp
; File D:\git\src\IBK\IBK_DRFN\ProjSrc\SrcChartEx\ChartAddIn\ChartAnalysisToolAddIn\ChartAnalysisToolAddIn\NumericalInquiryDragAddInImp.cpp
; File C:\Program Files (x86)\Microsoft Visual Studio\2019\Community\VC\Tools\MSVC\14.29.30133\atlmfc\include\atltypes.h
; File D:\git\src\IBK\IBK_DRFN\ProjSrc\SrcChartEx\ChartAddIn\ChartAnalysisToolAddIn\ChartAnalysisToolAddIn\NumericalInquiryDragAddInImp.cpp
; File C:\Program Files (x86)\Microsoft Visual Studio\2019\Community\VC\Tools\MSVC\14.29.30133\atlmfc\include\afxwin1.inl
; File D:\git\src\IBK\IBK_DRFN\ProjSrc\SrcChartEx\ChartAddIn\ChartAnalysisToolAddIn\Include_Chart\Dll_Load\IMetaTable.h
; File C:\Program Files (x86)\Microsoft Visual Studio\2019\Community\VC\Tools\MSVC\14.29.30133\atlmfc\include\afxwin1.inl
; File C:\Program Files (x86)\Microsoft Visual Studio\2019\Community\VC\Tools\MSVC\14.29.30133\atlmfc\include\afx.inl
; File D:\git\src\IBK\IBK_DRFN\ProjSrc\SrcChartEx\ChartAddIn\ChartAnalysisToolAddIn\ChartAnalysisToolAddIn\NumericalInquiryDragAddInImp.cpp
; File C:\Program Files (x86)\Microsoft Visual Studio\2019\Community\VC\Tools\MSVC\14.29.30133\atlmfc\include\afx.inl
; File D:\git\src\IBK\IBK_DRFN\ProjSrc\SrcChartEx\ChartAddIn\ChartAnalysisToolAddIn\ChartAnalysisToolAddIn\NumericalInquiryDragAddInImp.cpp
; File D:\git\src\IBK\IBK_DRFN\ProjSrc\SrcChartEx\ChartAddIn\ChartAnalysisToolAddIn\Include_Chart\Dll_Load\IMetaTable.h
; File C:\Program Files (x86)\Microsoft Visual Studio\2019\Community\VC\Tools\MSVC\14.29.30133\atlmfc\include\afxwin1.inl
; File D:\git\src\IBK\IBK_DRFN\ProjSrc\SrcChartEx\ChartAddIn\ChartAnalysisToolAddIn\ChartAnalysisToolAddIn\NumericalInquiryDragAddInImp.cpp
;	COMDAT ??0CNumericalInquiryDragAddInImp@@QAE@PAUIChartOCX133101@@PAUIAddInDllBase@@@Z
_TEXT	SEGMENT
$T2 = -20						; size = 4
_this$ = -16						; size = 4
__$EHRec$ = -12						; size = 12
_p_pIChartOCX$ = 8					; size = 4
___mlrs__$ = 12						; size = 4
_p_pIAddInDllBase$ = 12					; size = 4
??0CNumericalInquiryDragAddInImp@@QAE@PAUIChartOCX133101@@PAUIAddInDllBase@@@Z PROC ; CNumericalInquiryDragAddInImp::CNumericalInquiryDragAddInImp, COMDAT
; _this$ = ecx

; 22   : {

  00000	55		 push	 ebp
  00001	8b ec		 mov	 ebp, esp
  00003	6a ff		 push	 -1
  00005	68 00 00 00 00	 push	 __ehhandler$??0CNumericalInquiryDragAddInImp@@QAE@PAUIChartOCX133101@@PAUIAddInDllBase@@@Z
  0000a	64 a1 00 00 00
	00		 mov	 eax, DWORD PTR fs:0
  00010	50		 push	 eax
  00011	83 ec 08	 sub	 esp, 8
  00014	53		 push	 ebx
  00015	56		 push	 esi
  00016	57		 push	 edi
  00017	a1 00 00 00 00	 mov	 eax, DWORD PTR ___security_cookie
  0001c	33 c5		 xor	 eax, ebp
  0001e	50		 push	 eax
  0001f	8d 45 f4	 lea	 eax, DWORD PTR __$EHRec$[ebp]
  00022	64 a3 00 00 00
	00		 mov	 DWORD PTR fs:0, eax
  00028	8b d9		 mov	 ebx, ecx
  0002a	89 5d f0	 mov	 DWORD PTR _this$[ebp], ebx

; 21   : 	: CChartAddInBase( p_pIChartOCX, p_pIAddInDllBase)

  0002d	ff 75 0c	 push	 DWORD PTR _p_pIAddInDllBase$[ebp]
  00030	ff 75 08	 push	 DWORD PTR _p_pIChartOCX$[ebp]
  00033	e8 00 00 00 00	 call	 ??0CChartAddInBase133101@@IAE@PAUIChartOCX133101@@PAUIAddInDllBase@@@Z ; CChartAddInBase133101::CChartAddInBase133101

; 22   : {

  00038	c7 03 00 00 00
	00		 mov	 DWORD PTR [ebx], OFFSET ??_7CNumericalInquiryDragAddInImp@@6BCIWUnknown@@@
  0003e	c7 43 08 00 00
	00 00		 mov	 DWORD PTR [ebx+8], OFFSET ??_7CNumericalInquiryDragAddInImp@@6BIChartAddIn133101@@@
; File C:\Program Files (x86)\Microsoft Visual Studio\2019\Community\VC\Tools\MSVC\14.29.30133\atlmfc\include\atltypes.h

; 400  : 	x = 0;

  00045	c7 43 40 00 00
	00 00		 mov	 DWORD PTR [ebx+64], 0

; 401  : 	y = 0;

  0004c	c7 43 44 00 00
	00 00		 mov	 DWORD PTR [ebx+68], 0
; File D:\git\src\IBK\IBK_DRFN\ProjSrc\SrcChartEx\ChartAddIn\ChartAnalysisToolAddIn\ChartAnalysisToolAddIn\NumericalInquiryDragAddInImp.cpp

; 23   : 	m_hOcxWnd = ( m_pIChartOCX ? m_pIChartOCX->GetOcxHwnd() : NULL);

  00053	8b 4b 0c	 mov	 ecx, DWORD PTR [ebx+12]
  00056	c7 45 fc 00 00
	00 00		 mov	 DWORD PTR __$EHRec$[ebp+8], 0
  0005d	85 c9		 test	 ecx, ecx
  0005f	74 07		 je	 SHORT $LN3@CNumerical
  00061	8b 01		 mov	 eax, DWORD PTR [ecx]
  00063	ff 50 40	 call	 DWORD PTR [eax+64]
  00066	eb 02		 jmp	 SHORT $LN4@CNumerical
$LN3@CNumerical:
  00068	33 c0		 xor	 eax, eax
$LN4@CNumerical:
  0006a	89 43 60	 mov	 DWORD PTR [ebx+96], eax

; 24   : 
; 25   : 	// save point for inflate when mouse drag & drop
; 26   : 	// 09.21.2001
; 27   : 	m_ptStartDragDrop = CPoint(-1, -1);

  0006d	c7 43 40 ff ff
	ff ff		 mov	 DWORD PTR [ebx+64], -1
  00074	c7 43 44 ff ff
	ff ff		 mov	 DWORD PTR [ebx+68], -1

; 28   : 
; 29   : 	// (2006/2/6 - Seung-Won, Bae) Manage Mouse Action ID for Serial Action.
; 30   : 	m_dwMouseActionID = UINT_MAX;

  0007b	c7 43 48 ff ff
	ff ff		 mov	 DWORD PTR [ebx+72], -1

; 31   : 
; 32   : 	// (2006/2/16 - Seung-Won, Bae) Manage the Flag of Tool Executed
; 33   : 	m_bOnToolExecuted		= FALSE;

  00082	c7 43 4c 00 00
	00 00		 mov	 DWORD PTR [ebx+76], 0

; 34   : 	// (2006/6/28 - Seung-Won, Bae) Manage Notify from Over-NIDLG to Drag-NIDLG for avoiding the Multiple NIDLG Active.
; 35   : 	m_bOverActivated		= FALSE;

  00089	c7 43 50 00 00
	00 00		 mov	 DWORD PTR [ebx+80], 0

; 38   : 	ML_SET_LANGUAGE_RES();

  00090	e8 00 00 00 00	 call	 ?AfxGetStaticModuleState@@YGPAVAFX_MODULE_STATE@@XZ ; AfxGetStaticModuleState
  00095	b9 00 00 00 00	 mov	 ecx, OFFSET ?g_iMetaTable@@3VIMetaTable@@A ; g_iMetaTable
  0009a	8b 40 08	 mov	 eax, DWORD PTR [eax+8]
  0009d	50		 push	 eax
  0009e	ff 73 60	 push	 DWORD PTR [ebx+96]
  000a1	e8 00 00 00 00	 call	 ?LoadResourceDLL@IMetaTable@@QAEPAUHINSTANCE__@@PAUHWND__@@PAU2@@Z ; IMetaTable::LoadResourceDLL
  000a6	8b f8		 mov	 edi, eax
; File C:\Program Files (x86)\Microsoft Visual Studio\2019\Community\VC\Tools\MSVC\14.29.30133\atlmfc\include\afxwin1.inl

; 25   : 		return afxCurrentResourceHandle; }

  000a8	e8 00 00 00 00	 call	 ?AfxGetModuleState@@YGPAVAFX_MODULE_STATE@@XZ ; AfxGetModuleState
; File D:\git\src\IBK\IBK_DRFN\ProjSrc\SrcChartEx\ChartAddIn\ChartAnalysisToolAddIn\Include_Chart\Dll_Load\IMetaTable.h

; 1034 : 		m_hInstance = AfxGetResourceHandle();

  000ad	8b 70 0c	 mov	 esi, DWORD PTR [eax+12]
  000b0	89 75 0c	 mov	 DWORD PTR ___mlrs__$[ebp], esi
; File C:\Program Files (x86)\Microsoft Visual Studio\2019\Community\VC\Tools\MSVC\14.29.30133\atlmfc\include\afxwin1.inl

; 27   : 	{ ASSERT(hInstResource != NULL); afxCurrentResourceHandle = hInstResource; }

  000b3	e8 00 00 00 00	 call	 ?AfxGetModuleState@@YGPAVAFX_MODULE_STATE@@XZ ; AfxGetModuleState
  000b8	89 78 0c	 mov	 DWORD PTR [eax+12], edi
; File C:\Program Files (x86)\Microsoft Visual Studio\2019\Community\VC\Tools\MSVC\14.29.30133\atlmfc\include\afx.inl

; 116  : 	{ return ::operator new(nSize); }

  000bb	68 f0 01 00 00	 push	 496			; 000001f0H
; File D:\git\src\IBK\IBK_DRFN\ProjSrc\SrcChartEx\ChartAddIn\ChartAnalysisToolAddIn\ChartAnalysisToolAddIn\NumericalInquiryDragAddInImp.cpp

; 38   : 	ML_SET_LANGUAGE_RES();

  000c0	c6 45 fc 01	 mov	 BYTE PTR __$EHRec$[ebp+8], 1
; File C:\Program Files (x86)\Microsoft Visual Studio\2019\Community\VC\Tools\MSVC\14.29.30133\atlmfc\include\afx.inl

; 116  : 	{ return ::operator new(nSize); }

  000c4	e8 00 00 00 00	 call	 ??2@YAPAXI@Z		; operator new
  000c9	83 c4 04	 add	 esp, 4
; File D:\git\src\IBK\IBK_DRFN\ProjSrc\SrcChartEx\ChartAddIn\ChartAnalysisToolAddIn\ChartAnalysisToolAddIn\NumericalInquiryDragAddInImp.cpp

; 39   : 	m_pNumericalInquiryDlg = new CInquiryDataWindowDlg( p_pIChartOCX, m_pChartCWnd);

  000cc	89 45 ec	 mov	 DWORD PTR $T2[ebp], eax
  000cf	c6 45 fc 02	 mov	 BYTE PTR __$EHRec$[ebp+8], 2
  000d3	85 c0		 test	 eax, eax
  000d5	74 0f		 je	 SHORT $LN5@CNumerical
  000d7	ff 73 10	 push	 DWORD PTR [ebx+16]
  000da	8b c8		 mov	 ecx, eax
  000dc	ff 75 08	 push	 DWORD PTR _p_pIChartOCX$[ebp]
  000df	e8 00 00 00 00	 call	 ??0CInquiryDataWindowDlg@@QAE@PAUIChartOCX133101@@PAVCWnd@@@Z ; CInquiryDataWindowDlg::CInquiryDataWindowDlg
  000e4	eb 02		 jmp	 SHORT $LN6@CNumerical
$LN5@CNumerical:
  000e6	33 c0		 xor	 eax, eax
$LN6@CNumerical:
  000e8	89 43 58	 mov	 DWORD PTR [ebx+88], eax

; 40   : 	
; 41   : 	// (2006/7/3 - Seung-Won, Bae) Manage the Flag of Sub Tool Executed for Restarting in Over Closing.
; 42   : 	m_bOnSubToolExecuted = FALSE;	

  000eb	c7 43 54 00 00
	00 00		 mov	 DWORD PTR [ebx+84], 0
; File D:\git\src\IBK\IBK_DRFN\ProjSrc\SrcChartEx\ChartAddIn\ChartAnalysisToolAddIn\Include_Chart\Dll_Load\IMetaTable.h

; 1038 : 	{

  000f2	c6 45 fc 03	 mov	 BYTE PTR __$EHRec$[ebp+8], 3
; File C:\Program Files (x86)\Microsoft Visual Studio\2019\Community\VC\Tools\MSVC\14.29.30133\atlmfc\include\afxwin1.inl

; 27   : 	{ ASSERT(hInstResource != NULL); afxCurrentResourceHandle = hInstResource; }

  000f6	e8 00 00 00 00	 call	 ?AfxGetModuleState@@YGPAVAFX_MODULE_STATE@@XZ ; AfxGetModuleState
  000fb	89 70 0c	 mov	 DWORD PTR [eax+12], esi
; File D:\git\src\IBK\IBK_DRFN\ProjSrc\SrcChartEx\ChartAddIn\ChartAnalysisToolAddIn\ChartAnalysisToolAddIn\NumericalInquiryDragAddInImp.cpp

; 43   : }

  000fe	8b c3		 mov	 eax, ebx
  00100	8b 4d f4	 mov	 ecx, DWORD PTR __$EHRec$[ebp]
  00103	64 89 0d 00 00
	00 00		 mov	 DWORD PTR fs:0, ecx
  0010a	59		 pop	 ecx
  0010b	5f		 pop	 edi
  0010c	5e		 pop	 esi
  0010d	5b		 pop	 ebx
  0010e	8b e5		 mov	 esp, ebp
  00110	5d		 pop	 ebp
  00111	c2 08 00	 ret	 8
_TEXT	ENDS
;	COMDAT text$x
text$x	SEGMENT
__unwindfunclet$??0CNumericalInquiryDragAddInImp@@QAE@PAUIChartOCX133101@@PAUIAddInDllBase@@@Z$0:
  00000	8b 4d f0	 mov	 ecx, DWORD PTR _this$[ebp]
  00003	e9 00 00 00 00	 jmp	 ??1CChartAddInBase133101@@MAE@XZ ; CChartAddInBase133101::~CChartAddInBase133101
__unwindfunclet$??0CNumericalInquiryDragAddInImp@@QAE@PAUIChartOCX133101@@PAUIAddInDllBase@@@Z$1:
  00008	8d 4d 0c	 lea	 ecx, DWORD PTR ___mlrs__$[ebp]
  0000b	e9 00 00 00 00	 jmp	 ??1CMultiLanguageResourceSetter@@QAE@XZ ; CMultiLanguageResourceSetter::~CMultiLanguageResourceSetter
__unwindfunclet$??0CNumericalInquiryDragAddInImp@@QAE@PAUIChartOCX133101@@PAUIAddInDllBase@@@Z$2:
  00010	8b 45 ec	 mov	 eax, DWORD PTR $T2[ebp]
  00013	50		 push	 eax
  00014	e8 00 00 00 00	 call	 ??3CObject@@SGXPAX@Z	; CObject::operator delete
  00019	c3		 ret	 0
  0001a	cc		 int	 3
  0001b	cc		 int	 3
  0001c	cc		 int	 3
  0001d	cc		 int	 3
  0001e	cc		 int	 3
__ehhandler$??0CNumericalInquiryDragAddInImp@@QAE@PAUIChartOCX133101@@PAUIAddInDllBase@@@Z:
  0001f	90		 npad	 1
  00020	90		 npad	 1
  00021	8b 54 24 08	 mov	 edx, DWORD PTR [esp+8]
  00025	8d 42 0c	 lea	 eax, DWORD PTR [edx+12]
  00028	8b 4a e8	 mov	 ecx, DWORD PTR [edx-24]
  0002b	33 c8		 xor	 ecx, eax
  0002d	e8 00 00 00 00	 call	 @__security_check_cookie@4
  00032	b8 00 00 00 00	 mov	 eax, OFFSET __ehfuncinfo$??0CNumericalInquiryDragAddInImp@@QAE@PAUIChartOCX133101@@PAUIAddInDllBase@@@Z
  00037	e9 00 00 00 00	 jmp	 ___CxxFrameHandler3
text$x	ENDS
??0CNumericalInquiryDragAddInImp@@QAE@PAUIChartOCX133101@@PAUIAddInDllBase@@@Z ENDP ; CNumericalInquiryDragAddInImp::CNumericalInquiryDragAddInImp
; Function compile flags: /Ogtp
; File D:\git\src\IBK\IBK_DRFN\ProjSrc\SrcChartEx\ChartAddIn\ChartAnalysisToolAddIn\Include_AddIn_133101\I133101\_ChartAddInBase.h
;	COMDAT ?OnRButtonDblClk@CChartAddInBase133101@@MAEHPAUHDC__@@IAAUtagPOINT@@K@Z
_TEXT	SEGMENT
_p_hDC$ = 8						; size = 4
_nFlags$ = 12						; size = 4
_point$ = 16						; size = 4
_p_dwMouseActionID$ = 20				; size = 4
?OnRButtonDblClk@CChartAddInBase133101@@MAEHPAUHDC__@@IAAUtagPOINT@@K@Z PROC ; CChartAddInBase133101::OnRButtonDblClk, COMDAT
; _this$ = ecx

; 215  : 	virtual BOOL	OnRButtonDblClk(	HDC p_hDC, UINT nFlags, POINT &point, const DWORD p_dwMouseActionID)									{	return FALSE;	}

  00000	33 c0		 xor	 eax, eax
  00002	c2 10 00	 ret	 16			; 00000010H
?OnRButtonDblClk@CChartAddInBase133101@@MAEHPAUHDC__@@IAAUtagPOINT@@K@Z ENDP ; CChartAddInBase133101::OnRButtonDblClk
_TEXT	ENDS
; Function compile flags: /Ogtp
; File D:\git\src\IBK\IBK_DRFN\ProjSrc\SrcChartEx\ChartAddIn\ChartAnalysisToolAddIn\Include_AddIn_133101\I133101\_ChartAddInBase.h
;	COMDAT ?OnRButtonUp@CChartAddInBase133101@@MAEHPAUHDC__@@IAAUtagPOINT@@K@Z
_TEXT	SEGMENT
_p_hDC$ = 8						; size = 4
_nFlags$ = 12						; size = 4
_point$ = 16						; size = 4
_p_dwMouseActionID$ = 20				; size = 4
?OnRButtonUp@CChartAddInBase133101@@MAEHPAUHDC__@@IAAUtagPOINT@@K@Z PROC ; CChartAddInBase133101::OnRButtonUp, COMDAT
; _this$ = ecx

; 214  : 	virtual BOOL	OnRButtonUp(		HDC p_hDC, UINT nFlags, POINT &point, const DWORD p_dwMouseActionID)									{	return FALSE;	}

  00000	33 c0		 xor	 eax, eax
  00002	c2 10 00	 ret	 16			; 00000010H
?OnRButtonUp@CChartAddInBase133101@@MAEHPAUHDC__@@IAAUtagPOINT@@K@Z ENDP ; CChartAddInBase133101::OnRButtonUp
_TEXT	ENDS
; Function compile flags: /Ogtp
; File D:\git\src\IBK\IBK_DRFN\ProjSrc\SrcChartEx\ChartAddIn\ChartAnalysisToolAddIn\Include_AddIn_133101\I133101\_ChartAddInBase.h
;	COMDAT ?OnRButtonDown@CChartAddInBase133101@@MAEHPAUHDC__@@IAAUtagPOINT@@K@Z
_TEXT	SEGMENT
_p_hDC$ = 8						; size = 4
_nFlags$ = 12						; size = 4
_point$ = 16						; size = 4
_p_dwMouseActionID$ = 20				; size = 4
?OnRButtonDown@CChartAddInBase133101@@MAEHPAUHDC__@@IAAUtagPOINT@@K@Z PROC ; CChartAddInBase133101::OnRButtonDown, COMDAT
; _this$ = ecx

; 213  : 	virtual BOOL	OnRButtonDown(		HDC p_hDC, UINT nFlags, POINT &point, const DWORD p_dwMouseActionID)									{	return FALSE;	}

  00000	33 c0		 xor	 eax, eax
  00002	c2 10 00	 ret	 16			; 00000010H
?OnRButtonDown@CChartAddInBase133101@@MAEHPAUHDC__@@IAAUtagPOINT@@K@Z ENDP ; CChartAddInBase133101::OnRButtonDown
_TEXT	ENDS
; Function compile flags: /Ogtp
; File D:\git\src\IBK\IBK_DRFN\ProjSrc\SrcChartEx\ChartAddIn\ChartAnalysisToolAddIn\Include_AddIn_133101\I133101\_ChartAddInBase.h
;	COMDAT ?OnLButtonDblClk@CChartAddInBase133101@@MAEHPAUHDC__@@IAAUtagPOINT@@K@Z
_TEXT	SEGMENT
_p_hDC$ = 8						; size = 4
_nFlags$ = 12						; size = 4
_point$ = 16						; size = 4
_p_dwMouseActionID$ = 20				; size = 4
?OnLButtonDblClk@CChartAddInBase133101@@MAEHPAUHDC__@@IAAUtagPOINT@@K@Z PROC ; CChartAddInBase133101::OnLButtonDblClk, COMDAT
; _this$ = ecx

; 212  : 	virtual BOOL	OnLButtonDblClk(	HDC p_hDC, UINT nFlags, POINT &point, const DWORD p_dwMouseActionID)									{	return FALSE;	}

  00000	33 c0		 xor	 eax, eax
  00002	c2 10 00	 ret	 16			; 00000010H
?OnLButtonDblClk@CChartAddInBase133101@@MAEHPAUHDC__@@IAAUtagPOINT@@K@Z ENDP ; CChartAddInBase133101::OnLButtonDblClk
_TEXT	ENDS
; Function compile flags: /Ogtp
; File D:\git\src\IBK\IBK_DRFN\ProjSrc\SrcChartEx\ChartAddIn\ChartAnalysisToolAddIn\Include_AddIn_133101\I133101\_ChartAddInBase.h
;	COMDAT ?OnMouseWheel@CChartAddInBase133101@@MAEHIFUtagPOINT@@K@Z
_TEXT	SEGMENT
_nFlags$ = 8						; size = 4
_zDelta$ = 12						; size = 2
_pt$ = 16						; size = 8
_p_dwMouseActionID$ = 24				; size = 4
?OnMouseWheel@CChartAddInBase133101@@MAEHIFUtagPOINT@@K@Z PROC ; CChartAddInBase133101::OnMouseWheel, COMDAT
; _this$ = ecx

; 208  : 	virtual BOOL	OnMouseWheel(		UINT nFlags, short zDelta, POINT pt, const DWORD p_dwMouseActionID)										{	return FALSE;	}

  00000	33 c0		 xor	 eax, eax
  00002	c2 14 00	 ret	 20			; 00000014H
?OnMouseWheel@CChartAddInBase133101@@MAEHIFUtagPOINT@@K@Z ENDP ; CChartAddInBase133101::OnMouseWheel
_TEXT	ENDS
; Function compile flags: /Ogtp
; File D:\git\src\IBK\IBK_DRFN\ProjSrc\SrcChartEx\ChartAddIn\ChartAnalysisToolAddIn\Include_AddIn_133101\I133101\_ChartAddInBase.h
;	COMDAT ?OnKeyUp@CChartAddInBase133101@@MAEHIII@Z
_TEXT	SEGMENT
_nChar$ = 8						; size = 4
_nRepCnt$ = 12						; size = 4
_nFlags$ = 16						; size = 4
?OnKeyUp@CChartAddInBase133101@@MAEHIII@Z PROC		; CChartAddInBase133101::OnKeyUp, COMDAT
; _this$ = ecx

; 207  : 	virtual BOOL	OnKeyUp(			UINT nChar, UINT nRepCnt, UINT nFlags)																	{	return FALSE;	}

  00000	33 c0		 xor	 eax, eax
  00002	c2 0c 00	 ret	 12			; 0000000cH
?OnKeyUp@CChartAddInBase133101@@MAEHIII@Z ENDP		; CChartAddInBase133101::OnKeyUp
_TEXT	ENDS
; Function compile flags: /Ogtp
; File D:\git\src\IBK\IBK_DRFN\ProjSrc\SrcChartEx\ChartAddIn\ChartAnalysisToolAddIn\Include_AddIn_133101\I133101\_ChartAddInBase.h
;	COMDAT ?OnKeyDown@CChartAddInBase133101@@MAEHIII@Z
_TEXT	SEGMENT
_nChar$ = 8						; size = 4
_nRepCnt$ = 12						; size = 4
_nFlags$ = 16						; size = 4
?OnKeyDown@CChartAddInBase133101@@MAEHIII@Z PROC	; CChartAddInBase133101::OnKeyDown, COMDAT
; _this$ = ecx

; 206  : 	virtual BOOL	OnKeyDown(			UINT nChar, UINT nRepCnt, UINT nFlags)																	{	return FALSE;	}

  00000	33 c0		 xor	 eax, eax
  00002	c2 0c 00	 ret	 12			; 0000000cH
?OnKeyDown@CChartAddInBase133101@@MAEHIII@Z ENDP	; CChartAddInBase133101::OnKeyDown
_TEXT	ENDS
; Function compile flags: /Ogtp
; File D:\git\src\IBK\IBK_DRFN\ProjSrc\SrcChartEx\ChartAddIn\ChartAnalysisToolAddIn\Include_AddIn_133101\I133101\_ChartAddInBase.h
;	COMDAT ?OnAddInToolCommand@CChartAddInBase133101@@MAEHAAJW4EAICommandType@@JJ@Z
_TEXT	SEGMENT
_p_lResult$ = 8						; size = 4
_p_eCommandID$ = 12					; size = 4
_p_lParam1$ = 16					; size = 4
_p_lParam2$ = 20					; size = 4
?OnAddInToolCommand@CChartAddInBase133101@@MAEHAAJW4EAICommandType@@JJ@Z PROC ; CChartAddInBase133101::OnAddInToolCommand, COMDAT
; _this$ = ecx

; 204  : 	virtual BOOL	OnAddInToolCommand(	long &p_lResult, const EAICommandType p_eCommandID, const long p_lParam1, const long p_lParam2)			{	return FALSE;	}

  00000	33 c0		 xor	 eax, eax
  00002	c2 10 00	 ret	 16			; 00000010H
?OnAddInToolCommand@CChartAddInBase133101@@MAEHAAJW4EAICommandType@@JJ@Z ENDP ; CChartAddInBase133101::OnAddInToolCommand
_TEXT	ENDS
; Function compile flags: /Ogtp
; File D:\git\src\IBK\IBK_DRFN\ProjSrc\SrcChartEx\ChartAddIn\ChartAnalysisToolAddIn\Include_AddIn_133101\I133101\_ChartAddInBase.h
;	COMDAT ?OnAddInToolCommand@CChartAddInBase133101@@MAEHAAJW4EAICommandType@@J@Z
_TEXT	SEGMENT
_p_lResult$ = 8						; size = 4
_p_eCommandID$ = 12					; size = 4
_p_lParam$ = 16						; size = 4
?OnAddInToolCommand@CChartAddInBase133101@@MAEHAAJW4EAICommandType@@J@Z PROC ; CChartAddInBase133101::OnAddInToolCommand, COMDAT
; _this$ = ecx

; 203  : 	virtual BOOL	OnAddInToolCommand(	long &p_lResult, const EAICommandType p_eCommandID, const long p_lParam)								{	return FALSE;	}

  00000	33 c0		 xor	 eax, eax
  00002	c2 0c 00	 ret	 12			; 0000000cH
?OnAddInToolCommand@CChartAddInBase133101@@MAEHAAJW4EAICommandType@@J@Z ENDP ; CChartAddInBase133101::OnAddInToolCommand
_TEXT	ENDS
; Function compile flags: /Ogtp
; File D:\git\src\IBK\IBK_DRFN\ProjSrc\SrcChartEx\ChartAddIn\ChartAnalysisToolAddIn\Include_AddIn_133101\I133101\_ChartAddInBase.h
;	COMDAT ?OnAddInToolCommand@CChartAddInBase133101@@MAEHAAJW4EAICommandType@@PBDPAVCObject@@@Z
_TEXT	SEGMENT
_p_lResult$ = 8						; size = 4
_p_eCommandID$ = 12					; size = 4
_p_szParam$ = 16					; size = 4
_p_pParam$ = 20						; size = 4
?OnAddInToolCommand@CChartAddInBase133101@@MAEHAAJW4EAICommandType@@PBDPAVCObject@@@Z PROC ; CChartAddInBase133101::OnAddInToolCommand, COMDAT
; _this$ = ecx

; 202  : 	virtual BOOL	OnAddInToolCommand(	long &p_lResult, const EAICommandType p_eCommandID, const char *p_szParam, CObject *p_pParam)			{	return FALSE;	}

  00000	33 c0		 xor	 eax, eax
  00002	c2 10 00	 ret	 16			; 00000010H
?OnAddInToolCommand@CChartAddInBase133101@@MAEHAAJW4EAICommandType@@PBDPAVCObject@@@Z ENDP ; CChartAddInBase133101::OnAddInToolCommand
_TEXT	ENDS
; Function compile flags: /Ogtp
; File D:\git\src\IBK\IBK_DRFN\ProjSrc\SrcChartEx\ChartAddIn\ChartAnalysisToolAddIn\Include_AddIn_133101\I133101\_ChartAddInBase.h
;	COMDAT ?OnAddInToolCommand@CChartAddInBase133101@@MAEHAAJW4EAICommandType@@PBD@Z
_TEXT	SEGMENT
_p_lResult$ = 8						; size = 4
_p_eCommandID$ = 12					; size = 4
_p_szParam$ = 16					; size = 4
?OnAddInToolCommand@CChartAddInBase133101@@MAEHAAJW4EAICommandType@@PBD@Z PROC ; CChartAddInBase133101::OnAddInToolCommand, COMDAT
; _this$ = ecx

; 201  : 	virtual BOOL	OnAddInToolCommand(	long &p_lResult, const EAICommandType p_eCommandID, const char *p_szParam)								{	return FALSE;	}

  00000	33 c0		 xor	 eax, eax
  00002	c2 0c 00	 ret	 12			; 0000000cH
?OnAddInToolCommand@CChartAddInBase133101@@MAEHAAJW4EAICommandType@@PBD@Z ENDP ; CChartAddInBase133101::OnAddInToolCommand
_TEXT	ENDS
; Function compile flags: /Ogtp
; File D:\git\src\IBK\IBK_DRFN\ProjSrc\SrcChartEx\ChartAddIn\ChartAnalysisToolAddIn\Include_AddIn_133101\I133101\_ChartAddInBase.h
;	COMDAT ?OnAddInToolCommand@CChartAddInBase133101@@MAEHAAJW4EAICommandType@@PAUIGraphInfo133101@@@Z
_TEXT	SEGMENT
_p_lResult$ = 8						; size = 4
_p_eCommandID$ = 12					; size = 4
_p_pIGraphInfo$ = 16					; size = 4
?OnAddInToolCommand@CChartAddInBase133101@@MAEHAAJW4EAICommandType@@PAUIGraphInfo133101@@@Z PROC ; CChartAddInBase133101::OnAddInToolCommand, COMDAT
; _this$ = ecx

; 200  : 	virtual BOOL	OnAddInToolCommand(	long &p_lResult, const EAICommandType p_eCommandID, IGraphInfo *p_pIGraphInfo)							{	return FALSE;	}

  00000	33 c0		 xor	 eax, eax
  00002	c2 0c 00	 ret	 12			; 0000000cH
?OnAddInToolCommand@CChartAddInBase133101@@MAEHAAJW4EAICommandType@@PAUIGraphInfo133101@@@Z ENDP ; CChartAddInBase133101::OnAddInToolCommand
_TEXT	ENDS
; Function compile flags: /Ogtp
; File D:\git\src\IBK\IBK_DRFN\ProjSrc\SrcChartEx\ChartAddIn\ChartAnalysisToolAddIn\Include_AddIn_133101\I133101\_ChartAddInBase.h
;	COMDAT ?OnAddInToolCommand@CChartAddInBase133101@@MAEHAAJW4EAICommandType@@@Z
_TEXT	SEGMENT
_p_lResult$ = 8						; size = 4
_p_eCommandID$ = 12					; size = 4
?OnAddInToolCommand@CChartAddInBase133101@@MAEHAAJW4EAICommandType@@@Z PROC ; CChartAddInBase133101::OnAddInToolCommand, COMDAT
; _this$ = ecx

; 199  : 	virtual BOOL	OnAddInToolCommand(	long &p_lResult, const EAICommandType p_eCommandID)														{	return FALSE;	}

  00000	33 c0		 xor	 eax, eax
  00002	c2 08 00	 ret	 8
?OnAddInToolCommand@CChartAddInBase133101@@MAEHAAJW4EAICommandType@@@Z ENDP ; CChartAddInBase133101::OnAddInToolCommand
_TEXT	ENDS
; Function compile flags: /Ogtp
; File D:\git\src\IBK\IBK_DRFN\ProjSrc\SrcChartEx\ChartAddIn\ChartAnalysisToolAddIn\Include_AddIn_133101\I133101\_ChartAddInBase.h
;	COMDAT ?OnAddInToolCommand@CChartAddInBase133101@@MAEHW4EAICommandType@@JJJJJJJJJ@Z
_TEXT	SEGMENT
_p_eCommandID$ = 8					; size = 4
_p_lParam1$ = 12					; size = 4
_p_lParam2$ = 16					; size = 4
_p_lParam3$ = 20					; size = 4
_p_lParam4$ = 24					; size = 4
_p_lParam5$ = 28					; size = 4
_p_lParam6$ = 32					; size = 4
_p_lParam7$ = 36					; size = 4
_p_lParam8$ = 40					; size = 4
_p_lParam9$ = 44					; size = 4
?OnAddInToolCommand@CChartAddInBase133101@@MAEHW4EAICommandType@@JJJJJJJJJ@Z PROC ; CChartAddInBase133101::OnAddInToolCommand, COMDAT
; _this$ = ecx

; 198  : 	virtual BOOL	OnAddInToolCommand(	const EAICommandType p_eCommandID, const long p_lParam1, const long p_lParam2, const long p_lParam3, const long p_lParam4, const long p_lParam5, const long p_lParam6, const long p_lParam7, const long p_lParam8, const long p_lParam9)	{	return FALSE;	}

  00000	33 c0		 xor	 eax, eax
  00002	c2 28 00	 ret	 40			; 00000028H
?OnAddInToolCommand@CChartAddInBase133101@@MAEHW4EAICommandType@@JJJJJJJJJ@Z ENDP ; CChartAddInBase133101::OnAddInToolCommand
_TEXT	ENDS
; Function compile flags: /Ogtp
; File D:\git\src\IBK\IBK_DRFN\ProjSrc\SrcChartEx\ChartAddIn\ChartAnalysisToolAddIn\Include_AddIn_133101\I133101\_ChartAddInBase.h
;	COMDAT ?OnAddInToolCommand@CChartAddInBase133101@@MAEHW4EAICommandType@@JJ@Z
_TEXT	SEGMENT
_p_eCommandID$ = 8					; size = 4
_p_lParam1$ = 12					; size = 4
_p_lParam2$ = 16					; size = 4
?OnAddInToolCommand@CChartAddInBase133101@@MAEHW4EAICommandType@@JJ@Z PROC ; CChartAddInBase133101::OnAddInToolCommand, COMDAT
; _this$ = ecx

; 197  : 	virtual BOOL	OnAddInToolCommand(	const EAICommandType p_eCommandID, const long p_lParam1, const long p_lParam2)							{	return FALSE;	}

  00000	33 c0		 xor	 eax, eax
  00002	c2 0c 00	 ret	 12			; 0000000cH
?OnAddInToolCommand@CChartAddInBase133101@@MAEHW4EAICommandType@@JJ@Z ENDP ; CChartAddInBase133101::OnAddInToolCommand
_TEXT	ENDS
; Function compile flags: /Ogtp
; File D:\git\src\IBK\IBK_DRFN\ProjSrc\SrcChartEx\ChartAddIn\ChartAnalysisToolAddIn\Include_AddIn_133101\I133101\_ChartAddInBase.h
;	COMDAT ?OnAddInToolCommand@CChartAddInBase133101@@MAEHW4EAICommandType@@JPBD11@Z
_TEXT	SEGMENT
_p_eCommandID$ = 8					; size = 4
_p_lParam$ = 12						; size = 4
_p_szParam1$ = 16					; size = 4
_p_szParam2$ = 20					; size = 4
_p_szParam3$ = 24					; size = 4
?OnAddInToolCommand@CChartAddInBase133101@@MAEHW4EAICommandType@@JPBD11@Z PROC ; CChartAddInBase133101::OnAddInToolCommand, COMDAT
; _this$ = ecx

; 196  : 	virtual BOOL	OnAddInToolCommand( const EAICommandType p_eCommandID, const long p_lParam, const char *p_szParam1, const char *p_szParam2, const char *p_szParam3)	{	return FALSE;	}

  00000	33 c0		 xor	 eax, eax
  00002	c2 14 00	 ret	 20			; 00000014H
?OnAddInToolCommand@CChartAddInBase133101@@MAEHW4EAICommandType@@JPBD11@Z ENDP ; CChartAddInBase133101::OnAddInToolCommand
_TEXT	ENDS
; Function compile flags: /Ogtp
; File D:\git\src\IBK\IBK_DRFN\ProjSrc\SrcChartEx\ChartAddIn\ChartAnalysisToolAddIn\Include_AddIn_133101\I133101\_ChartAddInBase.h
;	COMDAT ?OnAddInToolCommand@CChartAddInBase133101@@MAEHW4EAICommandType@@JPBD@Z
_TEXT	SEGMENT
_p_eCommandID$ = 8					; size = 4
_p_lParam$ = 12						; size = 4
_p_szParam$ = 16					; size = 4
?OnAddInToolCommand@CChartAddInBase133101@@MAEHW4EAICommandType@@JPBD@Z PROC ; CChartAddInBase133101::OnAddInToolCommand, COMDAT
; _this$ = ecx

; 195  : 	virtual BOOL	OnAddInToolCommand( const EAICommandType p_eCommandID, const long p_lParam, const char *p_szParam)							{	return FALSE;	}

  00000	33 c0		 xor	 eax, eax
  00002	c2 0c 00	 ret	 12			; 0000000cH
?OnAddInToolCommand@CChartAddInBase133101@@MAEHW4EAICommandType@@JPBD@Z ENDP ; CChartAddInBase133101::OnAddInToolCommand
_TEXT	ENDS
; Function compile flags: /Ogtp
; File D:\git\src\IBK\IBK_DRFN\ProjSrc\SrcChartEx\ChartAddIn\ChartAnalysisToolAddIn\Include_AddIn_133101\I133101\_ChartAddInBase.h
;	COMDAT ?OnAddInToolCommand@CChartAddInBase133101@@MAEHW4EAICommandType@@PBUIAddInDllBase@@@Z
_TEXT	SEGMENT
_p_eCommandID$ = 8					; size = 4
_p_pParam$ = 12						; size = 4
?OnAddInToolCommand@CChartAddInBase133101@@MAEHW4EAICommandType@@PBUIAddInDllBase@@@Z PROC ; CChartAddInBase133101::OnAddInToolCommand, COMDAT
; _this$ = ecx

; 193  : 	virtual BOOL	OnAddInToolCommand(	const EAICommandType p_eCommandID, const IAddInDllBase *p_pParam)										{	return FALSE;	}

  00000	33 c0		 xor	 eax, eax
  00002	c2 08 00	 ret	 8
?OnAddInToolCommand@CChartAddInBase133101@@MAEHW4EAICommandType@@PBUIAddInDllBase@@@Z ENDP ; CChartAddInBase133101::OnAddInToolCommand
_TEXT	ENDS
; Function compile flags: /Ogtp
; File D:\git\src\IBK\IBK_DRFN\ProjSrc\SrcChartEx\ChartAddIn\ChartAnalysisToolAddIn\Include_AddIn_133101\I133101\_ChartAddInBase.h
;	COMDAT ?OnAddInToolCommand@CChartAddInBase133101@@MAEHW4EAICommandType@@PBDJ@Z
_TEXT	SEGMENT
_p_eCommandID$ = 8					; size = 4
_p_szParam$ = 12					; size = 4
_p_lParam$ = 16						; size = 4
?OnAddInToolCommand@CChartAddInBase133101@@MAEHW4EAICommandType@@PBDJ@Z PROC ; CChartAddInBase133101::OnAddInToolCommand, COMDAT
; _this$ = ecx

; 192  : 	virtual BOOL	OnAddInToolCommand( const EAICommandType p_eCommandID, const char *p_szParam, const long p_lParam)							{	return FALSE;	}

  00000	33 c0		 xor	 eax, eax
  00002	c2 0c 00	 ret	 12			; 0000000cH
?OnAddInToolCommand@CChartAddInBase133101@@MAEHW4EAICommandType@@PBDJ@Z ENDP ; CChartAddInBase133101::OnAddInToolCommand
_TEXT	ENDS
; Function compile flags: /Ogtp
; File D:\git\src\IBK\IBK_DRFN\ProjSrc\SrcChartEx\ChartAddIn\ChartAnalysisToolAddIn\Include_AddIn_133101\I133101\_ChartAddInBase.h
;	COMDAT ?OnAddInToolCommand@CChartAddInBase133101@@MAEHW4EAICommandType@@PBD1@Z
_TEXT	SEGMENT
_p_eCommandID$ = 8					; size = 4
_p_szParam1$ = 12					; size = 4
_p_szParam2$ = 16					; size = 4
?OnAddInToolCommand@CChartAddInBase133101@@MAEHW4EAICommandType@@PBD1@Z PROC ; CChartAddInBase133101::OnAddInToolCommand, COMDAT
; _this$ = ecx

; 191  : 	virtual BOOL	OnAddInToolCommand(	const EAICommandType p_eCommandID, const char *p_szParam1, const char *p_szParam2)						{	return FALSE;	}

  00000	33 c0		 xor	 eax, eax
  00002	c2 0c 00	 ret	 12			; 0000000cH
?OnAddInToolCommand@CChartAddInBase133101@@MAEHW4EAICommandType@@PBD1@Z ENDP ; CChartAddInBase133101::OnAddInToolCommand
_TEXT	ENDS
; Function compile flags: /Ogtp
; File D:\git\src\IBK\IBK_DRFN\ProjSrc\SrcChartEx\ChartAddIn\ChartAnalysisToolAddIn\Include_AddIn_133101\I133101\_ChartAddInBase.h
;	COMDAT ?OnAddInToolCommand@CChartAddInBase133101@@MAEHW4EAICommandType@@PBD@Z
_TEXT	SEGMENT
_p_eCommandID$ = 8					; size = 4
_p_szParam$ = 12					; size = 4
?OnAddInToolCommand@CChartAddInBase133101@@MAEHW4EAICommandType@@PBD@Z PROC ; CChartAddInBase133101::OnAddInToolCommand, COMDAT
; _this$ = ecx

; 190  : 	virtual BOOL	OnAddInToolCommand(	const EAICommandType p_eCommandID, const char *p_szParam)												{	return FALSE;	}

  00000	33 c0		 xor	 eax, eax
  00002	c2 08 00	 ret	 8
?OnAddInToolCommand@CChartAddInBase133101@@MAEHW4EAICommandType@@PBD@Z ENDP ; CChartAddInBase133101::OnAddInToolCommand
_TEXT	ENDS
; Function compile flags: /Ogtp
; File D:\git\src\IBK\IBK_DRFN\ProjSrc\SrcChartEx\ChartAddIn\ChartAnalysisToolAddIn\Include_AddIn_133101\I133101\_ChartAddInBase.h
;	COMDAT ?OnAddInMsg@CChartAddInBase133101@@MAEHPBDJ@Z
_TEXT	SEGMENT
_p_szAddInItemName$ = 8					; size = 4
_p_lParam$ = 12						; size = 4
?OnAddInMsg@CChartAddInBase133101@@MAEHPBDJ@Z PROC	; CChartAddInBase133101::OnAddInMsg, COMDAT
; _this$ = ecx

; 187  : 	virtual BOOL	OnAddInMsg(			const char *p_szAddInItemName, const long p_lParam)														{	return FALSE;	}

  00000	33 c0		 xor	 eax, eax
  00002	c2 08 00	 ret	 8
?OnAddInMsg@CChartAddInBase133101@@MAEHPBDJ@Z ENDP	; CChartAddInBase133101::OnAddInMsg
_TEXT	ENDS
; Function compile flags: /Ogtp
; File D:\git\src\IBK\IBK_DRFN\ProjSrc\SrcChartEx\ChartAddIn\ChartAnalysisToolAddIn\Include_AddIn_133101\I133101\_ChartAddInBase.h
;	COMDAT ?OnCmdMsg@CChartAddInBase133101@@MAEHIHPAUICmdUI133101@@@Z
_TEXT	SEGMENT
_nID$ = 8						; size = 4
_nCode$ = 12						; size = 4
_p_pICmdUI$ = 16					; size = 4
?OnCmdMsg@CChartAddInBase133101@@MAEHIHPAUICmdUI133101@@@Z PROC ; CChartAddInBase133101::OnCmdMsg, COMDAT
; _this$ = ecx

; 186  : 	virtual BOOL	OnCmdMsg(			UINT nID, int nCode, ICmdUI *p_pICmdUI)																	{	return FALSE;	}

  00000	33 c0		 xor	 eax, eax
  00002	c2 0c 00	 ret	 12			; 0000000cH
?OnCmdMsg@CChartAddInBase133101@@MAEHIHPAUICmdUI133101@@@Z ENDP ; CChartAddInBase133101::OnCmdMsg
_TEXT	ENDS
; Function compile flags: /Ogtp
; File D:\git\src\IBK\IBK_DRFN\ProjSrc\SrcChartEx\ChartAddIn\ChartAnalysisToolAddIn\Include_AddIn_133101\I133101\_ChartAddInBase.h
;	COMDAT ?OnPreRealPacketEnd@CChartAddInBase133101@@MAEHPBD@Z
_TEXT	SEGMENT
_p_szRQ$ = 8						; size = 4
?OnPreRealPacketEnd@CChartAddInBase133101@@MAEHPBD@Z PROC ; CChartAddInBase133101::OnPreRealPacketEnd, COMDAT
; _this$ = ecx

; 180  : 	virtual BOOL	OnPreRealPacketEnd( const char *p_szRQ = NULL)											{	return TRUE;	}

  00000	b8 01 00 00 00	 mov	 eax, 1
  00005	c2 04 00	 ret	 4
?OnPreRealPacketEnd@CChartAddInBase133101@@MAEHPBD@Z ENDP ; CChartAddInBase133101::OnPreRealPacketEnd
_TEXT	ENDS
; Function compile flags: /Ogtp
; File D:\git\src\IBK\IBK_DRFN\ProjSrc\SrcChartEx\ChartAddIn\ChartAnalysisToolAddIn\Include_AddIn_133101\I133101\_ChartAddInBase.h
;	COMDAT ?OnPreIndexedRealData@CChartAddInBase133101@@MAEHPBDHAAN@Z
_TEXT	SEGMENT
_p_szPacketName$ = 8					; size = 4
_p_nIndex$ = 12						; size = 4
_p_dData$ = 16						; size = 4
?OnPreIndexedRealData@CChartAddInBase133101@@MAEHPBDHAAN@Z PROC ; CChartAddInBase133101::OnPreIndexedRealData, COMDAT
; _this$ = ecx

; 179  : 	virtual BOOL	OnPreIndexedRealData( const char *p_szPacketName, const int p_nIndex, double &p_dData)	{	return TRUE;	}

  00000	b8 01 00 00 00	 mov	 eax, 1
  00005	c2 0c 00	 ret	 12			; 0000000cH
?OnPreIndexedRealData@CChartAddInBase133101@@MAEHPBDHAAN@Z ENDP ; CChartAddInBase133101::OnPreIndexedRealData
_TEXT	ENDS
; Function compile flags: /Ogtp
; File D:\git\src\IBK\IBK_DRFN\ProjSrc\SrcChartEx\ChartAddIn\ChartAnalysisToolAddIn\Include_AddIn_133101\I133101\_ChartAddInBase.h
;	COMDAT ?OnPreRealData@CChartAddInBase133101@@MAEHPBDAAN0@Z
_TEXT	SEGMENT
_p_szPacketName$ = 8					; size = 4
_p_dData$ = 12						; size = 4
_p_szRQ$ = 16						; size = 4
?OnPreRealData@CChartAddInBase133101@@MAEHPBDAAN0@Z PROC ; CChartAddInBase133101::OnPreRealData, COMDAT
; _this$ = ecx

; 178  : 	virtual BOOL	OnPreRealData( const char *p_szPacketName, double &p_dData, const char *p_szRQ = NULL)	{	return TRUE;	}

  00000	b8 01 00 00 00	 mov	 eax, 1
  00005	c2 0c 00	 ret	 12			; 0000000cH
?OnPreRealData@CChartAddInBase133101@@MAEHPBDAAN0@Z ENDP ; CChartAddInBase133101::OnPreRealData
_TEXT	ENDS
; Function compile flags: /Ogtp
; File D:\git\src\IBK\IBK_DRFN\ProjSrc\SrcChartEx\ChartAddIn\ChartAnalysisToolAddIn\Include_AddIn_133101\I133101\_ChartAddInBase.h
;	COMDAT ?OnRecalculationComplete@CChartAddInBase133101@@MAEXXZ
_TEXT	SEGMENT
?OnRecalculationComplete@CChartAddInBase133101@@MAEXXZ PROC ; CChartAddInBase133101::OnRecalculationComplete, COMDAT
; _this$ = ecx

; 174  : 	virtual void	OnRecalculationComplete( void)						{}

  00000	c2 00 00	 ret	 0
?OnRecalculationComplete@CChartAddInBase133101@@MAEXXZ ENDP ; CChartAddInBase133101::OnRecalculationComplete
_TEXT	ENDS
; Function compile flags: /Ogtp
; File D:\git\src\IBK\IBK_DRFN\ProjSrc\SrcChartEx\ChartAddIn\ChartAnalysisToolAddIn\Include_AddIn_133101\I133101\_ChartAddInBase.h
;	COMDAT ?DrawCursor@CChartAddInBase133101@@MAE?AUtagRECT@@PAUHDC__@@@Z
_TEXT	SEGMENT
___$ReturnUdt$ = 8					; size = 4
_p_hDC$ = 12						; size = 4
?DrawCursor@CChartAddInBase133101@@MAE?AUtagRECT@@PAUHDC__@@@Z PROC ; CChartAddInBase133101::DrawCursor, COMDAT
; _this$ = ecx

; 172  : 	virtual RECT	DrawCursor( HDC p_hDC)								{	RECT rct = { 0, 0, 0, 0};	return rct;		}

  00000	55		 push	 ebp
  00001	8b ec		 mov	 ebp, esp
  00003	8b 45 08	 mov	 eax, DWORD PTR ___$ReturnUdt$[ebp]
  00006	c7 00 00 00 00
	00		 mov	 DWORD PTR [eax], 0
  0000c	c7 40 04 00 00
	00 00		 mov	 DWORD PTR [eax+4], 0
  00013	c7 40 08 00 00
	00 00		 mov	 DWORD PTR [eax+8], 0
  0001a	c7 40 0c 00 00
	00 00		 mov	 DWORD PTR [eax+12], 0
  00021	5d		 pop	 ebp
  00022	c2 08 00	 ret	 8
?DrawCursor@CChartAddInBase133101@@MAE?AUtagRECT@@PAUHDC__@@@Z ENDP ; CChartAddInBase133101::DrawCursor
_TEXT	ENDS
; Function compile flags: /Ogtp
; File D:\git\src\IBK\IBK_DRFN\ProjSrc\SrcChartEx\ChartAddIn\ChartAnalysisToolAddIn\Include_AddIn_133101\I133101\_ChartAddInBase.h
;	COMDAT ?OnSaveEnvironment@CChartAddInBase133101@@MAEXPAUIPropertyMap@@@Z
_TEXT	SEGMENT
_p_pIAddInEnvMap$ = 8					; size = 4
?OnSaveEnvironment@CChartAddInBase133101@@MAEXPAUIPropertyMap@@@Z PROC ; CChartAddInBase133101::OnSaveEnvironment, COMDAT
; _this$ = ecx

; 170  : 	virtual void	OnSaveEnvironment( IPropertyMap *p_pIAddInEnvMap)	{}

  00000	c2 04 00	 ret	 4
?OnSaveEnvironment@CChartAddInBase133101@@MAEXPAUIPropertyMap@@@Z ENDP ; CChartAddInBase133101::OnSaveEnvironment
_TEXT	ENDS
; Function compile flags: /Ogtp
; File D:\git\src\IBK\IBK_DRFN\ProjSrc\SrcChartEx\ChartAddIn\ChartAnalysisToolAddIn\Include_AddIn_133101\I133101\_ChartAddInBase.h
;	COMDAT ?OnLoadEnvironment@CChartAddInBase133101@@MAEXPAUIPropertyMap@@@Z
_TEXT	SEGMENT
_p_pIAddInEnvMap$ = 8					; size = 4
?OnLoadEnvironment@CChartAddInBase133101@@MAEXPAUIPropertyMap@@@Z PROC ; CChartAddInBase133101::OnLoadEnvironment, COMDAT
; _this$ = ecx

; 169  : 	virtual void	OnLoadEnvironment( IPropertyMap *p_pIAddInEnvMap)	{}

  00000	c2 04 00	 ret	 4
?OnLoadEnvironment@CChartAddInBase133101@@MAEXPAUIPropertyMap@@@Z ENDP ; CChartAddInBase133101::OnLoadEnvironment
_TEXT	ENDS
; Function compile flags: /Ogtp
; File D:\git\src\IBK\IBK_DRFN\ProjSrc\SrcChartEx\ChartAddIn\ChartAnalysisToolAddIn\Include_AddIn_133101\I133101\_ChartAddInBase.h
;	COMDAT ?OnIndexedRealData@CChartAddInBase133101@@MAEXPBDHN@Z
_TEXT	SEGMENT
_p_szPacketName$ = 8					; size = 4
_p_nIndex$ = 12						; size = 4
_p_dData$ = 16						; size = 8
?OnIndexedRealData@CChartAddInBase133101@@MAEXPBDHN@Z PROC ; CChartAddInBase133101::OnIndexedRealData, COMDAT
; _this$ = ecx

; 165  : 	virtual void	OnIndexedRealData( const char *p_szPacketName, const int p_nIndex, double p_dData)		{}

  00000	c2 10 00	 ret	 16			; 00000010H
?OnIndexedRealData@CChartAddInBase133101@@MAEXPBDHN@Z ENDP ; CChartAddInBase133101::OnIndexedRealData
_TEXT	ENDS
; Function compile flags: /Ogtp
; File D:\git\src\IBK\IBK_DRFN\ProjSrc\SrcChartEx\ChartAddIn\ChartAnalysisToolAddIn\Include_AddIn_133101\I133101\_ChartAddInBase.h
;	COMDAT ?OnRealData@CChartAddInBase133101@@MAEXPBDN0@Z
_TEXT	SEGMENT
_p_szPacketName$ = 8					; size = 4
_p_dData$ = 12						; size = 8
_p_szRQ$ = 20						; size = 4
?OnRealData@CChartAddInBase133101@@MAEXPBDN0@Z PROC	; CChartAddInBase133101::OnRealData, COMDAT
; _this$ = ecx

; 164  : 	virtual void	OnRealData( const char *p_szPacketName, double p_dData, const char *p_szRQ)			{}

  00000	c2 10 00	 ret	 16			; 00000010H
?OnRealData@CChartAddInBase133101@@MAEXPBDN0@Z ENDP	; CChartAddInBase133101::OnRealData
_TEXT	ENDS
; Function compile flags: /Ogtp
; File D:\git\src\IBK\IBK_DRFN\ProjSrc\SrcChartEx\ChartAddIn\ChartAnalysisToolAddIn\Include_AddIn_133101\I133101\_ChartAddInBase.h
;	COMDAT ?OnToolCommand@CChartAddInBase133101@@MAEXHH@Z
_TEXT	SEGMENT
_p_nToolType$ = 8					; size = 4
_p_nCmdOption$ = 12					; size = 4
?OnToolCommand@CChartAddInBase133101@@MAEXHH@Z PROC	; CChartAddInBase133101::OnToolCommand, COMDAT
; _this$ = ecx

; 162  : 	virtual void	OnToolCommand( const int p_nToolType, const int p_nCmdOption)	{}

  00000	c2 08 00	 ret	 8
?OnToolCommand@CChartAddInBase133101@@MAEXHH@Z ENDP	; CChartAddInBase133101::OnToolCommand
_TEXT	ENDS
; Function compile flags: /Ogtp
; File D:\git\src\IBK\IBK_DRFN\ProjSrc\SrcChartEx\ChartAddIn\ChartAnalysisToolAddIn\Include_AddIn_133101\I133101\_ChartAddInBase.h
;	COMDAT ?OnBlockChanged@CChartAddInBase133101@@MAEXW4BLOCKBEHAVIOR@CBlockBaseData@@HHHH@Z
_TEXT	SEGMENT
_p_eChangeType$ = 8					; size = 4
_p_nSourceRow$ = 12					; size = 4
_p_nSourceColumn$ = 16					; size = 4
_p_nTargetRow$ = 20					; size = 4
_p_nTargetColumn$ = 24					; size = 4
?OnBlockChanged@CChartAddInBase133101@@MAEXW4BLOCKBEHAVIOR@CBlockBaseData@@HHHH@Z PROC ; CChartAddInBase133101::OnBlockChanged, COMDAT
; _this$ = ecx

; 160  : 	virtual void	OnBlockChanged( const CBlockBaseData::BLOCKBEHAVIOR p_eChangeType, const int p_nSourceRow, const int p_nSourceColumn, const int p_nTargetRow, const int p_nTargetColumn)	{}

  00000	c2 14 00	 ret	 20			; 00000014H
?OnBlockChanged@CChartAddInBase133101@@MAEXW4BLOCKBEHAVIOR@CBlockBaseData@@HHHH@Z ENDP ; CChartAddInBase133101::OnBlockChanged
_TEXT	ENDS
; Function compile flags: /Ogtp
; File D:\git\src\IBK\IBK_DRFN\ProjSrc\SrcChartEx\ChartAddIn\ChartAnalysisToolAddIn\Include_AddIn_133101\I133101\_ChartAddInBase.h
;	COMDAT ?OnPacketTruncated@CChartAddInBase133101@@MAEXH@Z
_TEXT	SEGMENT
_p_nDataCount$ = 8					; size = 4
?OnPacketTruncated@CChartAddInBase133101@@MAEXH@Z PROC	; CChartAddInBase133101::OnPacketTruncated, COMDAT
; _this$ = ecx

; 158  : 	virtual void	OnPacketTruncated( const int p_nDataCount)			{}

  00000	c2 04 00	 ret	 4
?OnPacketTruncated@CChartAddInBase133101@@MAEXH@Z ENDP	; CChartAddInBase133101::OnPacketTruncated
_TEXT	ENDS
; Function compile flags: /Ogtp
; File D:\git\src\IBK\IBK_DRFN\ProjSrc\SrcChartEx\ChartAddIn\ChartAnalysisToolAddIn\Include_AddIn_133101\I133101\_ChartAddInBase.h
;	COMDAT ?OnGraphDeleted@CChartAddInBase133101@@MAEXPBD0@Z
_TEXT	SEGMENT
_p_szGraphName$ = 8					; size = 4
_p_szIndicatorName$ = 12				; size = 4
?OnGraphDeleted@CChartAddInBase133101@@MAEXPBD0@Z PROC	; CChartAddInBase133101::OnGraphDeleted, COMDAT
; _this$ = ecx

; 156  : 	virtual void	OnGraphDeleted( const char *p_szGraphName, const char *p_szIndicatorName)			{}

  00000	c2 08 00	 ret	 8
?OnGraphDeleted@CChartAddInBase133101@@MAEXPBD0@Z ENDP	; CChartAddInBase133101::OnGraphDeleted
_TEXT	ENDS
; Function compile flags: /Ogtp
; File D:\git\src\IBK\IBK_DRFN\ProjSrc\SrcChartEx\ChartAddIn\ChartAnalysisToolAddIn\Include_AddIn_133101\I133101\_ChartAddInBase.h
;	COMDAT ?OnContextMenu@CChartAddInBase133101@@MAEXPAUHWND__@@AAUtagPOINT@@@Z
_TEXT	SEGMENT
_p_hWnd$ = 8						; size = 4
_p_pt$ = 12						; size = 4
?OnContextMenu@CChartAddInBase133101@@MAEXPAUHWND__@@AAUtagPOINT@@@Z PROC ; CChartAddInBase133101::OnContextMenu, COMDAT
; _this$ = ecx

; 154  : 	virtual void	OnContextMenu( HWND p_hWnd, POINT &p_pt)			{}

  00000	c2 08 00	 ret	 8
?OnContextMenu@CChartAddInBase133101@@MAEXPAUHWND__@@AAUtagPOINT@@@Z ENDP ; CChartAddInBase133101::OnContextMenu
_TEXT	ENDS
; Function compile flags: /Ogtp
; File D:\git\src\IBK\IBK_DRFN\ProjSrc\SrcChartEx\ChartAddIn\ChartAnalysisToolAddIn\Include_AddIn_133101\I133101\_ChartAddInBase.h
;	COMDAT ?OnManualRealData@CChartAddInBase133101@@MAEXPBDNH@Z
_TEXT	SEGMENT
_p_szPacketName$ = 8					; size = 4
_p_dData$ = 12						; size = 8
_p_nOption$ = 20					; size = 4
?OnManualRealData@CChartAddInBase133101@@MAEXPBDNH@Z PROC ; CChartAddInBase133101::OnManualRealData, COMDAT
; _this$ = ecx

; 152  : 	virtual void	OnManualRealData( const char *p_szPacketName, const double p_dData, const int p_nOption)	{}

  00000	c2 10 00	 ret	 16			; 00000010H
?OnManualRealData@CChartAddInBase133101@@MAEXPBDNH@Z ENDP ; CChartAddInBase133101::OnManualRealData
_TEXT	ENDS
; Function compile flags: /Ogtp
; File D:\git\src\IBK\IBK_DRFN\ProjSrc\SrcChartEx\ChartAddIn\ChartAnalysisToolAddIn\Include_AddIn_133101\I133101\_ChartAddInBase.h
;	COMDAT ?OnGraphAdded@CChartAddInBase133101@@MAEXPBD0@Z
_TEXT	SEGMENT
_p_szGraphName$ = 8					; size = 4
_p_szIndicatorName$ = 12				; size = 4
?OnGraphAdded@CChartAddInBase133101@@MAEXPBD0@Z PROC	; CChartAddInBase133101::OnGraphAdded, COMDAT
; _this$ = ecx

; 150  : 	virtual void	OnGraphAdded( const char *p_szGraphName, const char *p_szIndicatorName)			{}

  00000	c2 08 00	 ret	 8
?OnGraphAdded@CChartAddInBase133101@@MAEXPBD0@Z ENDP	; CChartAddInBase133101::OnGraphAdded
_TEXT	ENDS
; Function compile flags: /Ogtp
; File D:\git\src\IBK\IBK_DRFN\ProjSrc\SrcChartEx\ChartAddIn\ChartAnalysisToolAddIn\Include_AddIn_133101\I133101\_ChartAddInBase.h
;	COMDAT ?OnBlockRemoved@CChartAddInBase133101@@MAEXHH@Z
_TEXT	SEGMENT
_p_nRow$ = 8						; size = 4
_p_nColumn$ = 12					; size = 4
?OnBlockRemoved@CChartAddInBase133101@@MAEXHH@Z PROC	; CChartAddInBase133101::OnBlockRemoved, COMDAT
; _this$ = ecx

; 148  : 	virtual void	OnBlockRemoved( const int p_nRow, const int p_nColumn)	{}

  00000	c2 08 00	 ret	 8
?OnBlockRemoved@CChartAddInBase133101@@MAEXHH@Z ENDP	; CChartAddInBase133101::OnBlockRemoved
_TEXT	ENDS
; Function compile flags: /Ogtp
; File D:\git\src\IBK\IBK_DRFN\ProjSrc\SrcChartEx\ChartAddIn\ChartAnalysisToolAddIn\Include_AddIn_133101\I133101\_ChartAddInBase.h
;	COMDAT ?OnGraphDataChanged@CChartAddInBase133101@@MAEXXZ
_TEXT	SEGMENT
?OnGraphDataChanged@CChartAddInBase133101@@MAEXXZ PROC	; CChartAddInBase133101::OnGraphDataChanged, COMDAT
; _this$ = ecx

; 146  : 	virtual void	OnGraphDataChanged( void)							{}

  00000	c2 00 00	 ret	 0
?OnGraphDataChanged@CChartAddInBase133101@@MAEXXZ ENDP	; CChartAddInBase133101::OnGraphDataChanged
_TEXT	ENDS
; Function compile flags: /Ogtp
; File D:\git\src\IBK\IBK_DRFN\ProjSrc\SrcChartEx\ChartAddIn\ChartAnalysisToolAddIn\Include_AddIn_133101\I133101\_ChartAddInBase.h
;	COMDAT ?OnChartItemChanged@CChartAddInBase133101@@MAEXXZ
_TEXT	SEGMENT
?OnChartItemChanged@CChartAddInBase133101@@MAEXXZ PROC	; CChartAddInBase133101::OnChartItemChanged, COMDAT
; _this$ = ecx

; 144  : 	virtual void	OnChartItemChanged( void)							{}

  00000	c2 00 00	 ret	 0
?OnChartItemChanged@CChartAddInBase133101@@MAEXXZ ENDP	; CChartAddInBase133101::OnChartItemChanged
_TEXT	ENDS
; Function compile flags: /Ogtp
; File D:\git\src\IBK\IBK_DRFN\ProjSrc\SrcChartEx\ChartAddIn\ChartAnalysisToolAddIn\Include_AddIn_133101\I133101\_ChartAddInBase.h
;	COMDAT ?OnUserIndiatorConditionLoaded@CChartAddInBase133101@@MAEXXZ
_TEXT	SEGMENT
?OnUserIndiatorConditionLoaded@CChartAddInBase133101@@MAEXXZ PROC ; CChartAddInBase133101::OnUserIndiatorConditionLoaded, COMDAT
; _this$ = ecx

; 142  : 	virtual void	OnUserIndiatorConditionLoaded( void)				{}

  00000	c2 00 00	 ret	 0
?OnUserIndiatorConditionLoaded@CChartAddInBase133101@@MAEXXZ ENDP ; CChartAddInBase133101::OnUserIndiatorConditionLoaded
_TEXT	ENDS
; Function compile flags: /Ogtp
; File D:\git\src\IBK\IBK_DRFN\ProjSrc\SrcChartEx\ChartAddIn\ChartAnalysisToolAddIn\Include_AddIn_133101\I133101\_ChartAddInBase.h
;	COMDAT ?OnCaptureChanged@CChartAddInBase133101@@MAEXPAUHWND__@@QAUHBITMAP__@@@Z
_TEXT	SEGMENT
_p_hWnd$ = 8						; size = 4
_p_hbmpMainOSB$ = 12					; size = 4
?OnCaptureChanged@CChartAddInBase133101@@MAEXPAUHWND__@@QAUHBITMAP__@@@Z PROC ; CChartAddInBase133101::OnCaptureChanged, COMDAT
; _this$ = ecx

; 138  : 	virtual void	OnCaptureChanged( HWND p_hWnd, const HBITMAP p_hbmpMainOSB)	{}	// (2006/11/5 - Seung-Won, Bae) Support MainOSB

  00000	c2 08 00	 ret	 8
?OnCaptureChanged@CChartAddInBase133101@@MAEXPAUHWND__@@QAUHBITMAP__@@@Z ENDP ; CChartAddInBase133101::OnCaptureChanged
_TEXT	ENDS
; Function compile flags: /Ogtp
; File D:\git\src\IBK\IBK_DRFN\ProjSrc\SrcChartEx\ChartAddIn\ChartAnalysisToolAddIn\Include_AddIn_133101\I133101\_ChartAddInBase.h
;	COMDAT ?OnTimer@CChartAddInBase133101@@MAEXI@Z
_TEXT	SEGMENT
_p_uTimerID$ = 8					; size = 4
?OnTimer@CChartAddInBase133101@@MAEXI@Z PROC		; CChartAddInBase133101::OnTimer, COMDAT
; _this$ = ecx

; 133  : 	virtual void	OnTimer( UINT p_uTimerID)	{}

  00000	c2 04 00	 ret	 4
?OnTimer@CChartAddInBase133101@@MAEXI@Z ENDP		; CChartAddInBase133101::OnTimer
_TEXT	ENDS
; Function compile flags: /Ogtp
; File D:\git\src\IBK\IBK_DRFN\ProjSrc\SrcChartEx\ChartAddIn\ChartAnalysisToolAddIn\Include_AddIn_133101\I133101\_ChartAddInBase.h
;	COMDAT ?OnDrawBeforeGraph@CChartAddInBase133101@@MAEXPAUHDC__@@@Z
_TEXT	SEGMENT
_p_hDC$ = 8						; size = 4
?OnDrawBeforeGraph@CChartAddInBase133101@@MAEXPAUHDC__@@@Z PROC ; CChartAddInBase133101::OnDrawBeforeGraph, COMDAT
; _this$ = ecx

; 127  : 	virtual void	OnDrawBeforeGraph( HDC p_hDC)	{}

  00000	c2 04 00	 ret	 4
?OnDrawBeforeGraph@CChartAddInBase133101@@MAEXPAUHDC__@@@Z ENDP ; CChartAddInBase133101::OnDrawBeforeGraph
_TEXT	ENDS
; Function compile flags: /Ogtp
; File D:\git\src\IBK\IBK_DRFN\ProjSrc\SrcChartEx\ChartAddIn\ChartAnalysisToolAddIn\Include_AddIn_133101\I133101\_ChartAddInBase.h
;	COMDAT ?OnLSharedDataChange@CChartAddInBase133101@@MAEXPBD0@Z
_TEXT	SEGMENT
_p_szLShareKey$ = 8					; size = 4
_p_szLShareValue$ = 12					; size = 4
?OnLSharedDataChange@CChartAddInBase133101@@MAEXPBD0@Z PROC ; CChartAddInBase133101::OnLSharedDataChange, COMDAT
; _this$ = ecx

; 123  : 	virtual void	OnLSharedDataChange( const char *p_szLShareKey, const char *p_szLShareValue)	{}

  00000	c2 08 00	 ret	 8
?OnLSharedDataChange@CChartAddInBase133101@@MAEXPBD0@Z ENDP ; CChartAddInBase133101::OnLSharedDataChange
_TEXT	ENDS
; Function compile flags: /Ogtp
; File D:\git\src\IBK\IBK_DRFN\ProjSrc\SrcChartEx\ChartAddIn\ChartAnalysisToolAddIn\Include_AddIn_133101\I133101\_ChartAddInBase.h
;	COMDAT ?OnGSharedDataChange@CChartAddInBase133101@@MAEXPBD0H@Z
_TEXT	SEGMENT
_p_szGShareKey$ = 8					; size = 4
_p_szGShareValue$ = 12					; size = 4
_p_bStartShare$ = 16					; size = 4
?OnGSharedDataChange@CChartAddInBase133101@@MAEXPBD0H@Z PROC ; CChartAddInBase133101::OnGSharedDataChange, COMDAT
; _this$ = ecx

; 121  : 	virtual void	OnGSharedDataChange( const char *p_szGShareKey, const char *p_szGShareValue, BOOL p_bStartShare)	{}

  00000	c2 0c 00	 ret	 12			; 0000000cH
?OnGSharedDataChange@CChartAddInBase133101@@MAEXPBD0H@Z ENDP ; CChartAddInBase133101::OnGSharedDataChange
_TEXT	ENDS
; Function compile flags: /Ogtp
; File D:\git\src\IBK\IBK_DRFN\ProjSrc\SrcChartEx\ChartAddIn\ChartAnalysisToolAddIn\Include_AddIn_133101\I133101\_ChartAddInBase.h
;	COMDAT ?OnOcxDestroyWindow@CChartAddInBase133101@@MAEXXZ
_TEXT	SEGMENT
?OnOcxDestroyWindow@CChartAddInBase133101@@MAEXXZ PROC	; CChartAddInBase133101::OnOcxDestroyWindow, COMDAT
; _this$ = ecx

; 111  : 	virtual void	OnOcxDestroyWindow( void)							{	m_bOcxDestroyed = TRUE;	}

  00000	c7 41 34 01 00
	00 00		 mov	 DWORD PTR [ecx+52], 1
  00007	c3		 ret	 0
?OnOcxDestroyWindow@CChartAddInBase133101@@MAEXXZ ENDP	; CChartAddInBase133101::OnOcxDestroyWindow
_TEXT	ENDS
; Function compile flags: /Ogtp
; File D:\git\src\IBK\IBK_DRFN\ProjSrc\SrcChartEx\ChartAddIn\ChartAnalysisToolAddIn\Include_AddIn_133101\I133101\_ChartAddInBase.h
;	COMDAT ?InvokeAddInStr@CChartAddInBase133101@@MAEHPBD0@Z
_TEXT	SEGMENT
_p_szCommandName$ = 8					; size = 4
_p_szData$ = 12						; size = 4
?InvokeAddInStr@CChartAddInBase133101@@MAEHPBD0@Z PROC	; CChartAddInBase133101::InvokeAddInStr, COMDAT
; _this$ = ecx

; 96   : 	virtual BOOL	InvokeAddInStr( LPCTSTR p_szCommandName, LPCTSTR p_szData)	{	return FALSE;	}	// (2005/9/2 - Seung-Won, Bae) for String Data

  00000	33 c0		 xor	 eax, eax
  00002	c2 08 00	 ret	 8
?InvokeAddInStr@CChartAddInBase133101@@MAEHPBD0@Z ENDP	; CChartAddInBase133101::InvokeAddInStr
_TEXT	ENDS
; Function compile flags: /Ogtp
; File D:\git\src\IBK\IBK_DRFN\ProjSrc\SrcChartEx\ChartAddIn\ChartAnalysisToolAddIn\Include_AddIn_133101\I133101\_ChartAddInBase.h
;	COMDAT ?GetAddInCustomInterface@CChartAddInBase133101@@MAEPAUIUnknown@@XZ
_TEXT	SEGMENT
?GetAddInCustomInterface@CChartAddInBase133101@@MAEPAUIUnknown@@XZ PROC ; CChartAddInBase133101::GetAddInCustomInterface, COMDAT
; _this$ = ecx

; 91   : 	virtual IUnknown *	GetAddInCustomInterface( void)				{	return NULL;	}

  00000	33 c0		 xor	 eax, eax
  00002	c3		 ret	 0
?GetAddInCustomInterface@CChartAddInBase133101@@MAEPAUIUnknown@@XZ ENDP ; CChartAddInBase133101::GetAddInCustomInterface
_TEXT	ENDS
; Function compile flags: /Ogtp
; File D:\git\src\IBK\IBK_DRFN\ProjSrc\SrcChartEx\ChartAddIn\ChartAnalysisToolAddIn\Include_AddIn_133101\I133101\_ChartAddInBase.h
;	COMDAT ?QueryInterface@CChartAddInBase133101@@MAGJABU_GUID@@PAPAX@Z
_TEXT	SEGMENT
_this$ = 8						; size = 4
_iid$ = 12						; size = 4
_ppvObject$ = 16					; size = 4
?QueryInterface@CChartAddInBase133101@@MAGJABU_GUID@@PAPAX@Z PROC ; CChartAddInBase133101::QueryInterface, COMDAT

; 54   : 	_IWRAPPER_IUNKNOWN_INTERFACE()

  00000	b8 02 40 00 80	 mov	 eax, -2147467262	; 80004002H
  00005	c2 0c 00	 ret	 12			; 0000000cH
?QueryInterface@CChartAddInBase133101@@MAGJABU_GUID@@PAPAX@Z ENDP ; CChartAddInBase133101::QueryInterface
_TEXT	ENDS
; Function compile flags: /Ogtp
; File D:\git\src\IBK\IBK_DRFN\ProjSrc\SrcChartEx\ChartAddIn\ChartAnalysisToolAddIn\Include_AddIn_133101\I133101\_ChartAddInBase.h
;	COMDAT ?Release@CChartAddInBase133101@@MAGKXZ
_TEXT	SEGMENT
_this$ = 8						; size = 4
?Release@CChartAddInBase133101@@MAGKXZ PROC		; CChartAddInBase133101::Release, COMDAT

; 54   : 	_IWRAPPER_IUNKNOWN_INTERFACE()

  00000	55		 push	 ebp
  00001	8b ec		 mov	 ebp, esp
  00003	5d		 pop	 ebp
  00004	e9 00 00 00 00	 jmp	 ?Release@CIWUnknown@@MAGKXZ ; CIWUnknown::Release
?Release@CChartAddInBase133101@@MAGKXZ ENDP		; CChartAddInBase133101::Release
_TEXT	ENDS
; Function compile flags: /Ogtp
; File D:\git\src\IBK\IBK_DRFN\ProjSrc\SrcChartEx\ChartAddIn\ChartAnalysisToolAddIn\Include_AddIn_133101\I133101\_ChartAddInBase.h
;	COMDAT ?AddRef@CChartAddInBase133101@@MAGKXZ
_TEXT	SEGMENT
_this$ = 8						; size = 4
?AddRef@CChartAddInBase133101@@MAGKXZ PROC		; CChartAddInBase133101::AddRef, COMDAT

; 54   : 	_IWRAPPER_IUNKNOWN_INTERFACE()

  00000	55		 push	 ebp
  00001	8b ec		 mov	 ebp, esp
  00003	5d		 pop	 ebp
  00004	e9 00 00 00 00	 jmp	 ?AddRef@CIWUnknown@@MAGKXZ ; CIWUnknown::AddRef
?AddRef@CChartAddInBase133101@@MAGKXZ ENDP		; CChartAddInBase133101::AddRef
_TEXT	ENDS
; Function compile flags: /Ogtp
; File D:\git\src\IBK\IBK_DRFN\ProjSrc\SrcChartEx\ChartAddIn\ChartAnalysisToolAddIn\Include_AddIn_133101\_IWUnknown.h
;	COMDAT ?PreDestruct@CIWUnknown@@MAEXXZ
_TEXT	SEGMENT
?PreDestruct@CIWUnknown@@MAEXXZ PROC			; CIWUnknown::PreDestruct, COMDAT
; _this$ = ecx

; 48   : 	virtual void	PreDestruct( void)		{}

  00000	c2 00 00	 ret	 0
?PreDestruct@CIWUnknown@@MAEXXZ ENDP			; CIWUnknown::PreDestruct
_TEXT	ENDS
; Function compile flags: /Ogtp
; File D:\git\src\IBK\IBK_DRFN\ProjSrc\SrcChartEx\ChartAddIn\ChartAnalysisToolAddIn\Include_AddIn_133101\_IWUnknown.h
;	COMDAT ?PreDestructX@CIWUnknown@@MAEXXZ
_TEXT	SEGMENT
?PreDestructX@CIWUnknown@@MAEXXZ PROC			; CIWUnknown::PreDestructX, COMDAT
; _this$ = ecx

; 47   : 	virtual void	PreDestructX( void)		{}

  00000	c2 00 00	 ret	 0
?PreDestructX@CIWUnknown@@MAEXXZ ENDP			; CIWUnknown::PreDestructX
_TEXT	ENDS
; Function compile flags: /Ogtp
; File D:\git\src\IBK\IBK_DRFN\ProjSrc\SrcChartEx\ChartAddIn\ChartAnalysisToolAddIn\Include_AddIn_133101\_IWUnknown.h
;	COMDAT ?PostConstruct@CIWUnknown@@MAEXXZ
_TEXT	SEGMENT
?PostConstruct@CIWUnknown@@MAEXXZ PROC			; CIWUnknown::PostConstruct, COMDAT
; _this$ = ecx

; 46   : 	virtual void	PostConstruct( void)	{}

  00000	c2 00 00	 ret	 0
?PostConstruct@CIWUnknown@@MAEXXZ ENDP			; CIWUnknown::PostConstruct
_TEXT	ENDS
; Function compile flags: /Ogtp
; File C:\Program Files (x86)\Microsoft Visual Studio\2019\Community\VC\Tools\MSVC\14.29.30133\atlmfc\include\afx.inl
;	COMDAT ?Dump@CObject@@UBEXAAVCDumpContext@@@Z
_TEXT	SEGMENT
___formal$ = 8						; size = 4
?Dump@CObject@@UBEXAAVCDumpContext@@@Z PROC		; CObject::Dump, COMDAT
; _this$ = ecx

; 122  : 	{ /* no dumping in release builds */ }

  00000	c2 04 00	 ret	 4
?Dump@CObject@@UBEXAAVCDumpContext@@@Z ENDP		; CObject::Dump
_TEXT	ENDS
; Function compile flags: /Ogtp
; File C:\Program Files (x86)\Microsoft Visual Studio\2019\Community\VC\Tools\MSVC\14.29.30133\atlmfc\include\afx.inl
;	COMDAT ?AssertValid@CObject@@UBEXXZ
_TEXT	SEGMENT
?AssertValid@CObject@@UBEXXZ PROC			; CObject::AssertValid, COMDAT
; _this$ = ecx

; 120  : 	{ /* no asserts in release builds */ }

  00000	c2 00 00	 ret	 0
?AssertValid@CObject@@UBEXXZ ENDP			; CObject::AssertValid
_TEXT	ENDS
; Function compile flags: /Ogtp
; File C:\Program Files (x86)\Microsoft Visual Studio\2019\Community\VC\Tools\MSVC\14.29.30133\atlmfc\include\afx.inl
;	COMDAT ?Serialize@CObject@@UAEXAAVCArchive@@@Z
_TEXT	SEGMENT
___formal$ = 8						; size = 4
?Serialize@CObject@@UAEXAAVCArchive@@@Z PROC		; CObject::Serialize, COMDAT
; _this$ = ecx

; 106  : 	{ /* CObject does not serialize anything by default */ }

  00000	c2 04 00	 ret	 4
?Serialize@CObject@@UAEXAAVCArchive@@@Z ENDP		; CObject::Serialize
_TEXT	ENDS
; Function compile flags: /Ogtp
; File C:\Program Files (x86)\Microsoft Visual Studio\2019\Community\VC\Tools\MSVC\14.29.30133\atlmfc\include\afx.inl
;	COMDAT ??3CObject@@SGXPAX@Z
_TEXT	SEGMENT
_p$ = 8							; size = 4
??3CObject@@SGXPAX@Z PROC				; CObject::operator delete, COMDAT

; 112  : 	{ ::operator delete(p); }

  00000	55		 push	 ebp
  00001	8b ec		 mov	 ebp, esp
  00003	ff 75 08	 push	 DWORD PTR _p$[ebp]
  00006	e8 00 00 00 00	 call	 ??3@YAXPAX@Z		; operator delete
  0000b	83 c4 04	 add	 esp, 4
  0000e	5d		 pop	 ebp
  0000f	c2 04 00	 ret	 4
??3CObject@@SGXPAX@Z ENDP				; CObject::operator delete
_TEXT	ENDS
; Function compile flags: /Ogtp
; File D:\git\src\IBK\IBK_DRFN\ProjSrc\SrcChartEx\ChartAddIn\ChartAnalysisToolAddIn\ChartAnalysisToolAddIn\NumericalInquiryDragAddInImp.cpp
;	COMDAT ?__empty_global_delete@@YAXPAXI@Z
_TEXT	SEGMENT
___formal$ = 8						; size = 4
___formal$ = 12						; size = 4
?__empty_global_delete@@YAXPAXI@Z PROC			; __empty_global_delete, COMDAT

  00000	c2 00 00	 ret	 0
?__empty_global_delete@@YAXPAXI@Z ENDP			; __empty_global_delete
_TEXT	ENDS
; Function compile flags: /Ogtp
; File D:\git\src\IBK\IBK_DRFN\ProjSrc\SrcChartEx\ChartAddIn\ChartAnalysisToolAddIn\ChartAnalysisToolAddIn\NumericalInquiryDragAddInImp.cpp
;	COMDAT ?__empty_global_delete@@YAXPAX@Z
_TEXT	SEGMENT
___formal$ = 8						; size = 4
?__empty_global_delete@@YAXPAX@Z PROC			; __empty_global_delete, COMDAT

  00000	c2 00 00	 ret	 0
?__empty_global_delete@@YAXPAX@Z ENDP			; __empty_global_delete
_TEXT	ENDS
END
