; Listing generated by Microsoft (R) Optimizing Compiler Version 19.29.30145.0 

	TITLE	D:\git\src\IBK\IBK_DRFN\#DRfn-CS\_Obj\STConfigureDlg\DlgSTOption.obj
	.686P
	.XMM
	include listing.inc
	.model	flat

INCLUDELIB MSVCRT
INCLUDELIB OLDNAMES

PUBLIC	??_C@_0BF@PGCFFKKJ@RMSG_STCONFIGURENAME@	; `string'
PUBLIC	??_C@_0BG@OOPLPPOA@RMSG_VERIFYSCRIPTNAME@	; `string'
PUBLIC	??_C@_0BE@ODKFPHJE@RMSG_STSAVETOUSERST@		; `string'
;	COMDAT ??_C@_0BE@ODKFPHJE@RMSG_STSAVETOUSERST@
CONST	SEGMENT
??_C@_0BE@ODKFPHJE@RMSG_STSAVETOUSERST@ DB 'RMSG_STSAVETOUSERST', 00H ; `string'
CONST	ENDS
;	COMDAT ??_C@_0BG@OOPLPPOA@RMSG_VERIFYSCRIPTNAME@
CONST	SEGMENT
??_C@_0BG@OOPLPPOA@RMSG_VERIFYSCRIPTNAME@ DB 'RMSG_VERIFYSCRIPTNAME', 00H ; `string'
CONST	ENDS
;	COMDAT ??_C@_0BF@PGCFFKKJ@RMSG_STCONFIGURENAME@
CONST	SEGMENT
??_C@_0BF@PGCFFKKJ@RMSG_STCONFIGURENAME@ DB 'RMSG_STCONFIGURENAME', 00H ; `string'
CONST	ENDS
PUBLIC	?__empty_global_delete@@YAXPAX@Z		; __empty_global_delete
PUBLIC	?__empty_global_delete@@YAXPAXI@Z		; __empty_global_delete
PUBLIC	?AfxCrtErrorCheck@@YAHH@Z			; AfxCrtErrorCheck
PUBLIC	??1CObject@@UAE@XZ				; CObject::~CObject
PUBLIC	??3CObject@@SGXPAX@Z				; CObject::operator delete
PUBLIC	?Serialize@CObject@@UAEXAAVCArchive@@@Z		; CObject::Serialize
PUBLIC	?AssertValid@CObject@@UBEXXZ			; CObject::AssertValid
PUBLIC	?Dump@CObject@@UBEXAAVCDumpContext@@@Z		; CObject::Dump
PUBLIC	??1CGdiObject@@UAE@XZ				; CGdiObject::~CGdiObject
PUBLIC	??_GCGdiObject@@UAEPAXI@Z			; CGdiObject::`scalar deleting destructor'
PUBLIC	??1CBrush@@UAE@XZ				; CBrush::~CBrush
PUBLIC	??_GCBrush@@UAEPAXI@Z				; CBrush::`scalar deleting destructor'
PUBLIC	?BeginModalState@CWnd@@UAEXXZ			; CWnd::BeginModalState
PUBLIC	?EndModalState@CWnd@@UAEXXZ			; CWnd::EndModalState
PUBLIC	?PreTranslateMessage@CRscDlg@@MAEHPAUtagMSG@@@Z	; CRscDlg::PreTranslateMessage
PUBLIC	?LoadInfo@CRscDlg@@UAEXXZ			; CRscDlg::LoadInfo
PUBLIC	?SaveInfo@CRscDlg@@UAEHXZ			; CRscDlg::SaveInfo
PUBLIC	?RemoveInfo@CRscDlg@@UAEXXZ			; CRscDlg::RemoveInfo
PUBLIC	?SetDefault@CRscDlg@@UAEXXZ			; CRscDlg::SetDefault
PUBLIC	??1CRscDlg@@UAE@XZ				; CRscDlg::~CRscDlg
PUBLIC	??0CDlgSTOption@@QAE@PAVCWnd@@@Z		; CDlgSTOption::CDlgSTOption
PUBLIC	?ChangeSfgPath@CDlgSTOption@@QAEXPBD@Z		; CDlgSTOption::ChangeSfgPath
PUBLIC	?GetSdPath@CDlgSTOption@@QAE?AV?$CStringT@DV?$StrTraitMFC_DLL@DV?$ChTraitsCRT@D@ATL@@@@@ATL@@XZ ; CDlgSTOption::GetSdPath
PUBLIC	?GetPassword@CDlgSTOption@@QAE?AV?$CStringT@DV?$StrTraitMFC_DLL@DV?$ChTraitsCRT@D@ATL@@@@@ATL@@XZ ; CDlgSTOption::GetPassword
PUBLIC	?GetExpiredDate@CDlgSTOption@@QAE?AV?$CStringT@DV?$StrTraitMFC_DLL@DV?$ChTraitsCRT@D@ATL@@@@@ATL@@XZ ; CDlgSTOption::GetExpiredDate
PUBLIC	?GetUserID@CDlgSTOption@@QAE?AV?$CStringT@DV?$StrTraitMFC_DLL@DV?$ChTraitsCRT@D@ATL@@@@@ATL@@XZ ; CDlgSTOption::GetUserID
PUBLIC	?GetSTFile@CDlgSTOption@@QAEXPBD@Z		; CDlgSTOption::GetSTFile
PUBLIC	?GetUsePassword@CDlgSTOption@@QAEHXZ		; CDlgSTOption::GetUsePassword
PUBLIC	?GetUseUserID@CDlgSTOption@@QAEHXZ		; CDlgSTOption::GetUseUserID
PUBLIC	?GetUseExpiredDate@CDlgSTOption@@QAEHXZ		; CDlgSTOption::GetUseExpiredDate
PUBLIC	?GetPrivateProfileStringInST@CDlgSTOption@@QAEKPBD00PADKH@Z ; CDlgSTOption::GetPrivateProfileStringInST
PUBLIC	?WritePrivateProfileStringInST@CDlgSTOption@@QAEHPBD00H@Z ; CDlgSTOption::WritePrivateProfileStringInST
PUBLIC	?GetSfgPath@CDlgSTOption@@QAE?AV?$CStringT@DV?$StrTraitMFC_DLL@DV?$ChTraitsCRT@D@ATL@@@@@ATL@@XZ ; CDlgSTOption::GetSfgPath
PUBLIC	?SaveConfig@CDlgSTOption@@QAEXXZ		; CDlgSTOption::SaveConfig
PUBLIC	?DeleteConfig@CDlgSTOption@@QAEXXZ		; CDlgSTOption::DeleteConfig
PUBLIC	?ChangeConfigureInfo@CDlgSTOption@@QAEXXZ	; CDlgSTOption::ChangeConfigureInfo
PUBLIC	?ApplyConfig@CDlgSTOption@@QAEXXZ		; CDlgSTOption::ApplyConfig
PUBLIC	?DoDataExchange@CDlgSTOption@@MAEXPAVCDataExchange@@@Z ; CDlgSTOption::DoDataExchange
PUBLIC	??0?$CArray@PAVCRscDlg@@PAV1@@@QAE@XZ		; CArray<CRscDlg *,CRscDlg *>::CArray<CRscDlg *,CRscDlg *>
PUBLIC	?SetSize@?$CArray@PAVCRscDlg@@PAV1@@@QAEXHH@Z	; CArray<CRscDlg *,CRscDlg *>::SetSize
PUBLIC	?SetAtGrow@?$CArray@PAVCRscDlg@@PAV1@@@QAEXHPAVCRscDlg@@@Z ; CArray<CRscDlg *,CRscDlg *>::SetAtGrow
PUBLIC	??1?$CArray@PAVCRscDlg@@PAV1@@@UAE@XZ		; CArray<CRscDlg *,CRscDlg *>::~CArray<CRscDlg *,CRscDlg *>
PUBLIC	?Serialize@?$CArray@PAVCRscDlg@@PAV1@@@UAEXAAVCArchive@@@Z ; CArray<CRscDlg *,CRscDlg *>::Serialize
PUBLIC	??_G?$CArray@PAVCRscDlg@@PAV1@@@UAEPAXI@Z	; CArray<CRscDlg *,CRscDlg *>::`scalar deleting destructor'
PUBLIC	?OnInitDialog@CDlgSTOption@@MAEHXZ		; CDlgSTOption::OnInitDialog
PUBLIC	?OnDestroy@CDlgSTOption@@IAEXXZ			; CDlgSTOption::OnDestroy
PUBLIC	?OnOK@CDlgSTOption@@MAEXXZ			; CDlgSTOption::OnOK
PUBLIC	?OnCancel@CDlgSTOption@@MAEXXZ			; CDlgSTOption::OnCancel
PUBLIC	?OnCtlColor@CDlgSTOption@@IAEPAUHBRUSH__@@PAVCDC@@PAVCWnd@@I@Z ; CDlgSTOption::OnCtlColor
PUBLIC	?GetThisMessageMap@CDlgSTOption@@KGPBUAFX_MSGMAP@@XZ ; CDlgSTOption::GetThisMessageMap
PUBLIC	?GetMessageMap@CDlgSTOption@@MBEPBUAFX_MSGMAP@@XZ ; CDlgSTOption::GetMessageMap
PUBLIC	??_GCDlgSTOption@@UAEPAXI@Z			; CDlgSTOption::`scalar deleting destructor'
PUBLIC	??$SerializeElements@PAVCRscDlg@@@@YGXAAVCArchive@@PAPAVCRscDlg@@H@Z ; SerializeElements<CRscDlg *>
PUBLIC	??_R0PAVCException@@@8				; CException * `RTTI Type Descriptor'
PUBLIC	??_C@_02DPKJAMEF@?$CFd@				; `string'
PUBLIC	??_7CGdiObject@@6B@				; CGdiObject::`vftable'
PUBLIC	??_7CBrush@@6B@					; CBrush::`vftable'
PUBLIC	??_C@_0HD@JJCHHHNK@C?3?2Program?5Files?5?$CIx86?$CJ?2Microsof@ ; `string'
PUBLIC	??_C@_0BP@OIEOKIDM@Exception?5thrown?5in?5destructor@ ; `string'
PUBLIC	??_C@_0BB@HBOOMJBF@?$CFTs?5?$CI?$CFTs?3?$CFd?$CJ?6?$CFTs@ ; `string'
PUBLIC	??_C@_0N@OMEMOKLE@?$CFTs?5?$CI?$CFTs?3?$CFd?$CJ@ ; `string'
PUBLIC	??_R0?AVCObject@@@8				; CObject `RTTI Type Descriptor'
PUBLIC	??_R3CObject@@8					; CObject::`RTTI Class Hierarchy Descriptor'
PUBLIC	??_R2CObject@@8					; CObject::`RTTI Base Class Array'
PUBLIC	??_R1A@?0A@EA@CObject@@8			; CObject::`RTTI Base Class Descriptor at (0,-1,0,64)'
PUBLIC	??_R4CGdiObject@@6B@				; CGdiObject::`RTTI Complete Object Locator'
PUBLIC	??_R0?AVCGdiObject@@@8				; CGdiObject `RTTI Type Descriptor'
PUBLIC	??_R3CGdiObject@@8				; CGdiObject::`RTTI Class Hierarchy Descriptor'
PUBLIC	??_R2CGdiObject@@8				; CGdiObject::`RTTI Base Class Array'
PUBLIC	??_R1A@?0A@EA@CGdiObject@@8			; CGdiObject::`RTTI Base Class Descriptor at (0,-1,0,64)'
PUBLIC	??_R4CBrush@@6B@				; CBrush::`RTTI Complete Object Locator'
PUBLIC	??_R0?AVCBrush@@@8				; CBrush `RTTI Type Descriptor'
PUBLIC	??_R3CBrush@@8					; CBrush::`RTTI Class Hierarchy Descriptor'
PUBLIC	??_R2CBrush@@8					; CBrush::`RTTI Base Class Array'
PUBLIC	??_R1A@?0A@EA@CBrush@@8				; CBrush::`RTTI Base Class Descriptor at (0,-1,0,64)'
PUBLIC	??_R1A@?0A@EA@CWnd@@8				; CWnd::`RTTI Base Class Descriptor at (0,-1,0,64)'
PUBLIC	??_R0?AVCWnd@@@8				; CWnd `RTTI Type Descriptor'
PUBLIC	??_R3CWnd@@8					; CWnd::`RTTI Class Hierarchy Descriptor'
PUBLIC	??_R2CWnd@@8					; CWnd::`RTTI Base Class Array'
PUBLIC	??_R1A@?0A@EA@CCmdTarget@@8			; CCmdTarget::`RTTI Base Class Descriptor at (0,-1,0,64)'
PUBLIC	??_R0?AVCCmdTarget@@@8				; CCmdTarget `RTTI Type Descriptor'
PUBLIC	??_R3CCmdTarget@@8				; CCmdTarget::`RTTI Class Hierarchy Descriptor'
PUBLIC	??_R2CCmdTarget@@8				; CCmdTarget::`RTTI Base Class Array'
PUBLIC	??_R1A@?0A@EA@CDialog@@8			; CDialog::`RTTI Base Class Descriptor at (0,-1,0,64)'
PUBLIC	??_R0?AVCDialog@@@8				; CDialog `RTTI Type Descriptor'
PUBLIC	??_R3CDialog@@8					; CDialog::`RTTI Class Hierarchy Descriptor'
PUBLIC	??_R2CDialog@@8					; CDialog::`RTTI Base Class Array'
PUBLIC	??_7?$CArray@PAVCRscDlg@@PAV1@@@6B@		; CArray<CRscDlg *,CRscDlg *>::`vftable'
PUBLIC	??_7CDlgSTOption@@6B@				; CDlgSTOption::`vftable'
PUBLIC	??_C@_0P@OFKHPJJP@?$LL?g?$LP?k?$MA?Z?G?T?$LM?v?$LP?I?$LM?G@ ; `string'
PUBLIC	??_C@_0N@HDJNLEJM@?$LE?$NM?$MA?$KH?$MA?$PM?$LH?$KL?$LP?I?$LM?G@ ; `string'
PUBLIC	??_C@_04KHPEKMEA@?$LB?b?$LK?$LL@		; `string'
PUBLIC	??_C@_04PIAAFAEL@?$LK?$KP?$LM?v@		; `string'
PUBLIC	??_C@_08PODAADFG@?$LN?E?H?$KD?G?$KF?$LN?C@	; `string'
PUBLIC	??_C@_08MDPEPEPN@?A?v?G?$KF?G?$KF?$LN?C@	; `string'
PUBLIC	??_C@_04HHIPPAHO@?$LK?$LI?$LO?H@		; `string'
PUBLIC	??_C@_01KICIPPFI@?2@				; `string'
PUBLIC	??_C@_05DAINAMK@?$FO?$CK?4ST@			; `string'
PUBLIC	??_C@_01GBGANLPD@0@				; `string'
PUBLIC	??_C@_01NBENCBCI@?$CK@				; `string'
PUBLIC	??_C@_04HGGBINEM@?$CFs?$CFd@			; `string'
PUBLIC	??_R4CDlgSTOption@@6B@				; CDlgSTOption::`RTTI Complete Object Locator'
PUBLIC	??_R0?AVCDlgSTOption@@@8			; CDlgSTOption `RTTI Type Descriptor'
PUBLIC	??_R3CDlgSTOption@@8				; CDlgSTOption::`RTTI Class Hierarchy Descriptor'
PUBLIC	??_R2CDlgSTOption@@8				; CDlgSTOption::`RTTI Base Class Array'
PUBLIC	??_R1A@?0A@EA@CDlgSTOption@@8			; CDlgSTOption::`RTTI Base Class Descriptor at (0,-1,0,64)'
PUBLIC	??_R1A@?0A@EA@CRscDlg@@8			; CRscDlg::`RTTI Base Class Descriptor at (0,-1,0,64)'
PUBLIC	??_R0?AVCRscDlg@@@8				; CRscDlg `RTTI Type Descriptor'
PUBLIC	??_R3CRscDlg@@8					; CRscDlg::`RTTI Class Hierarchy Descriptor'
PUBLIC	??_R2CRscDlg@@8					; CRscDlg::`RTTI Base Class Array'
PUBLIC	??_R4?$CArray@PAVCRscDlg@@PAV1@@@6B@		; CArray<CRscDlg *,CRscDlg *>::`RTTI Complete Object Locator'
PUBLIC	??_R0?AV?$CArray@PAVCRscDlg@@PAV1@@@@8		; CArray<CRscDlg *,CRscDlg *> `RTTI Type Descriptor'
PUBLIC	??_R3?$CArray@PAVCRscDlg@@PAV1@@@8		; CArray<CRscDlg *,CRscDlg *>::`RTTI Class Hierarchy Descriptor'
PUBLIC	??_R2?$CArray@PAVCRscDlg@@PAV1@@@8		; CArray<CRscDlg *,CRscDlg *>::`RTTI Base Class Array'
PUBLIC	??_R1A@?0A@EA@?$CArray@PAVCRscDlg@@PAV1@@@8	; CArray<CRscDlg *,CRscDlg *>::`RTTI Base Class Descriptor at (0,-1,0,64)'
EXTRN	??2@YAPAXI@Z:PROC				; operator new
EXTRN	??3@YAXPAX@Z:PROC				; operator delete
EXTRN	?__global_delete@@YAXPAXI@Z:PROC		; __global_delete
EXTRN	??_U@YAPAXI@Z:PROC				; operator new[]
EXTRN	??_V@YAXPAX@Z:PROC				; operator delete[]
EXTRN	__imp___invalid_parameter_noinfo:PROC
EXTRN	__imp___errno:PROC
EXTRN	__imp__GetPrivateProfileStringA@24:PROC
EXTRN	__imp__WritePrivateProfileStringA@16:PROC
EXTRN	__imp__CreateSolidBrush@4:PROC
EXTRN	__imp__RegisterWindowMessageA@4:PROC
EXTRN	__imp__SendMessageA@16:PROC
EXTRN	__imp__GetKeyState@4:PROC
EXTRN	__imp__EnableWindow@8:PROC
EXTRN	__imp__GetSystemMetrics@4:PROC
EXTRN	__imp__GetClientRect@8:PROC
EXTRN	__imp__GetWindowRect@8:PROC
EXTRN	__imp__GetParent@4:PROC
EXTRN	?AfxThrowMemoryException@@YGXXZ:PROC		; AfxThrowMemoryException
EXTRN	?AfxThrowInvalidArgException@@YGXXZ:PROC	; AfxThrowInvalidArgException
EXTRN	?AfxThrowArchiveException@@YGXHPBD@Z:PROC	; AfxThrowArchiveException
EXTRN	?GetRuntimeClass@CObject@@UBEPAUCRuntimeClass@@XZ:PROC ; CObject::GetRuntimeClass
EXTRN	__imp_?GetBuffer@?$CSimpleStringT@D$00@ATL@@QAEPADH@Z:PROC
EXTRN	__imp_?ReleaseBuffer@?$CSimpleStringT@D$00@ATL@@QAEXH@Z:PROC
EXTRN	__imp_??0?$CStringT@DV?$StrTraitMFC_DLL@DV?$ChTraitsCRT@D@ATL@@@@@ATL@@QAE@XZ:PROC
EXTRN	__imp_??0?$CStringT@DV?$StrTraitMFC_DLL@DV?$ChTraitsCRT@D@ATL@@@@@ATL@@QAE@ABV01@@Z:PROC
EXTRN	__imp_??1?$CStringT@DV?$StrTraitMFC_DLL@DV?$ChTraitsCRT@D@ATL@@@@@ATL@@QAE@XZ:PROC
EXTRN	__imp_??4?$CStringT@DV?$StrTraitMFC_DLL@DV?$ChTraitsCRT@D@ATL@@@@@ATL@@QAEAAV01@ABV01@@Z:PROC
EXTRN	__imp_??4?$CStringT@DV?$StrTraitMFC_DLL@DV?$ChTraitsCRT@D@ATL@@@@@ATL@@QAEAAV01@PBD@Z:PROC
EXTRN	__imp_??Y?$CStringT@DV?$StrTraitMFC_DLL@DV?$ChTraitsCRT@D@ATL@@@@@ATL@@QAEAAV01@PBD@Z:PROC
EXTRN	__imp_?Delete@?$CStringT@DV?$StrTraitMFC_DLL@DV?$ChTraitsCRT@D@ATL@@@@@ATL@@QAEHHH@Z:PROC
EXTRN	__imp_?Replace@?$CStringT@DV?$StrTraitMFC_DLL@DV?$ChTraitsCRT@D@ATL@@@@@ATL@@QAEHPBD0@Z:PROC
EXTRN	__imp_?Find@?$CStringT@DV?$StrTraitMFC_DLL@DV?$ChTraitsCRT@D@ATL@@@@@ATL@@QBEHDH@Z:PROC
EXTRN	__imp_?ReverseFind@?$CStringT@DV?$StrTraitMFC_DLL@DV?$ChTraitsCRT@D@ATL@@@@@ATL@@QBEHD@Z:PROC
EXTRN	__imp_?MakeUpper@?$CStringT@DV?$StrTraitMFC_DLL@DV?$ChTraitsCRT@D@ATL@@@@@ATL@@QAEAAV12@XZ:PROC
EXTRN	__imp_?Mid@?$CStringT@DV?$StrTraitMFC_DLL@DV?$ChTraitsCRT@D@ATL@@@@@ATL@@QBE?AV12@HH@Z:PROC
EXTRN	__imp_?Left@?$CStringT@DV?$StrTraitMFC_DLL@DV?$ChTraitsCRT@D@ATL@@@@@ATL@@QBE?AV12@H@Z:PROC
EXTRN	__imp_?Format@?$CStringT@DV?$StrTraitMFC_DLL@DV?$ChTraitsCRT@D@ATL@@@@@ATL@@QAAXPBDZZ:PROC
EXTRN	??0CFileFind@@QAE@XZ:PROC			; CFileFind::CFileFind
EXTRN	??1CFileFind@@UAE@XZ:PROC			; CFileFind::~CFileFind
EXTRN	?GetFilePath@CFileFind@@UBE?AV?$CStringT@DV?$StrTraitMFC_DLL@DV?$ChTraitsCRT@D@ATL@@@@@ATL@@XZ:PROC ; CFileFind::GetFilePath
EXTRN	?FindFile@CFileFind@@UAEHPBDK@Z:PROC		; CFileFind::FindFile
EXTRN	?FindNextFileA@CFileFind@@UAEHXZ:PROC		; CFileFind::FindNextFileA
EXTRN	?Read@CArchive@@QAEIPAXI@Z:PROC			; CArchive::Read
EXTRN	?Write@CArchive@@QAEXPBXI@Z:PROC		; CArchive::Write
EXTRN	?ReadCount@CArchive@@QAEKXZ:PROC		; CArchive::ReadCount
EXTRN	?WriteCount@CArchive@@QAEXK@Z:PROC		; CArchive::WriteCount
EXTRN	?GetRuntimeClass@CGdiObject@@UBEPAUCRuntimeClass@@XZ:PROC ; CGdiObject::GetRuntimeClass
EXTRN	?Attach@CGdiObject@@QAEHPAX@Z:PROC		; CGdiObject::Attach
EXTRN	?DeleteObject@CGdiObject@@QAEHXZ:PROC		; CGdiObject::DeleteObject
EXTRN	??_ECGdiObject@@UAEPAXI@Z:PROC			; CGdiObject::`vector deleting destructor'
EXTRN	?GetRuntimeClass@CBrush@@UBEPAUCRuntimeClass@@XZ:PROC ; CBrush::GetRuntimeClass
EXTRN	??_ECBrush@@UAEPAXI@Z:PROC			; CBrush::`vector deleting destructor'
EXTRN	?DDX_Control@@YGXPAVCDataExchange@@HAAVCWnd@@@Z:PROC ; DDX_Control
EXTRN	?IsInvokeAllowed@CCmdTarget@@UAEHJ@Z:PROC	; CCmdTarget::IsInvokeAllowed
EXTRN	?GetDispatchIID@CCmdTarget@@UAEHPAU_GUID@@@Z:PROC ; CCmdTarget::GetDispatchIID
EXTRN	?GetTypeInfoCount@CCmdTarget@@UAEIXZ:PROC	; CCmdTarget::GetTypeInfoCount
EXTRN	?GetTypeLibCache@CCmdTarget@@UAEPAVCTypeLibCache@@XZ:PROC ; CCmdTarget::GetTypeLibCache
EXTRN	?GetTypeLib@CCmdTarget@@UAEJKPAPAUITypeLib@@@Z:PROC ; CCmdTarget::GetTypeLib
EXTRN	?GetCommandMap@CCmdTarget@@MBEPBUAFX_OLECMDMAP@@XZ:PROC ; CCmdTarget::GetCommandMap
EXTRN	?GetDispatchMap@CCmdTarget@@MBEPBUAFX_DISPMAP@@XZ:PROC ; CCmdTarget::GetDispatchMap
EXTRN	?GetConnectionMap@CCmdTarget@@MBEPBUAFX_CONNECTIONMAP@@XZ:PROC ; CCmdTarget::GetConnectionMap
EXTRN	?GetEventSinkMap@CCmdTarget@@MBEPBUAFX_EVENTSINKMAP@@XZ:PROC ; CCmdTarget::GetEventSinkMap
EXTRN	?OnCreateAggregates@CCmdTarget@@UAEHXZ:PROC	; CCmdTarget::OnCreateAggregates
EXTRN	?GetInterfaceHook@CCmdTarget@@UAEPAUIUnknown@@PBX@Z:PROC ; CCmdTarget::GetInterfaceHook
EXTRN	?GetExtraConnectionPoints@CCmdTarget@@MAEHPAVCPtrArray@@@Z:PROC ; CCmdTarget::GetExtraConnectionPoints
EXTRN	?GetConnectionHook@CCmdTarget@@MAEPAUIConnectionPoint@@ABU_GUID@@@Z:PROC ; CCmdTarget::GetConnectionHook
EXTRN	?ModifyStyle@CWnd@@QAEHKKI@Z:PROC		; CWnd::ModifyStyle
EXTRN	?FromHandle@CWnd@@SGPAV1@PAUHWND__@@@Z:PROC	; CWnd::FromHandle
EXTRN	?PreSubclassWindow@CWnd@@UAEXXZ:PROC		; CWnd::PreSubclassWindow
EXTRN	?Create@CWnd@@UAEHPBD0KABUtagRECT@@PAV1@IPAUCCreateContext@@@Z:PROC ; CWnd::Create
EXTRN	?CreateEx@CWnd@@UAEHKPBD0KHHHHPAUHWND__@@PAUHMENU__@@PAX@Z:PROC ; CWnd::CreateEx
EXTRN	?CreateEx@CWnd@@UAEHKPBD0KABUtagRECT@@PAV1@IPAX@Z:PROC ; CWnd::CreateEx
EXTRN	?DestroyWindow@CWnd@@UAEHXZ:PROC		; CWnd::DestroyWindow
EXTRN	?PreCreateWindow@CWnd@@UAEHAAUtagCREATESTRUCTA@@@Z:PROC ; CWnd::PreCreateWindow
EXTRN	?CalcWindowRect@CWnd@@UAEXPAUtagRECT@@I@Z:PROC	; CWnd::CalcWindowRect
EXTRN	?SetWindowTextA@CWnd@@QAEXPBD@Z:PROC		; CWnd::SetWindowTextA
EXTRN	?GetWindowTextA@CWnd@@QBEXAAV?$CStringT@DV?$StrTraitMFC_DLL@DV?$ChTraitsCRT@D@ATL@@@@@ATL@@@Z:PROC ; CWnd::GetWindowTextA
EXTRN	?GetMenu@CWnd@@UBEPAVCMenu@@XZ:PROC		; CWnd::GetMenu
EXTRN	?SetMenu@CWnd@@UAEHPAVCMenu@@@Z:PROC		; CWnd::SetMenu
EXTRN	?MoveWindow@CWnd@@QAEXHHHHH@Z:PROC		; CWnd::MoveWindow
EXTRN	?SetWindowPos@CWnd@@QAEHPBV1@HHHHI@Z:PROC	; CWnd::SetWindowPos
EXTRN	?ScreenToClient@CWnd@@QBEXPAUtagRECT@@@Z:PROC	; CWnd::ScreenToClient
EXTRN	?ShowWindow@CWnd@@QAEHH@Z:PROC			; CWnd::ShowWindow
EXTRN	?OnToolHitTest@CWnd@@UBEHVCPoint@@PAUtagTOOLINFOA@@@Z:PROC ; CWnd::OnToolHitTest
EXTRN	?GetScrollBarCtrl@CWnd@@UBEPAVCScrollBar@@H@Z:PROC ; CWnd::GetScrollBarCtrl
EXTRN	?MessageBoxA@CWnd@@QAEHPBD0I@Z:PROC		; CWnd::MessageBoxA
EXTRN	?WinHelpA@CWnd@@UAEXKI@Z:PROC			; CWnd::WinHelpA
EXTRN	?HtmlHelpA@CWnd@@UAEXKI@Z:PROC			; CWnd::HtmlHelpA
EXTRN	?WinHelpInternal@CWnd@@UAEXKI@Z:PROC		; CWnd::WinHelpInternal
EXTRN	?ContinueModal@CWnd@@UAEHXZ:PROC		; CWnd::ContinueModal
EXTRN	?EndModalLoop@CWnd@@UAEXH@Z:PROC		; CWnd::EndModalLoop
EXTRN	?OnDrawIconicThumbnailOrLivePreview@CWnd@@UAEXAAVCDC@@VCRect@@VCSize@@HAAH@Z:PROC ; CWnd::OnDrawIconicThumbnailOrLivePreview
EXTRN	?GetInterfaceMap@CWnd@@MBEPBUAFX_INTERFACEMAP@@XZ:PROC ; CWnd::GetInterfaceMap
EXTRN	?EnsureStdObj@CWnd@@UAEJXZ:PROC			; CWnd::EnsureStdObj
EXTRN	?get_accParent@CWnd@@UAEJPAPAUIDispatch@@@Z:PROC ; CWnd::get_accParent
EXTRN	?get_accChildCount@CWnd@@UAEJPAJ@Z:PROC		; CWnd::get_accChildCount
EXTRN	?get_accChild@CWnd@@UAEJUtagVARIANT@@PAPAUIDispatch@@@Z:PROC ; CWnd::get_accChild
EXTRN	?get_accName@CWnd@@UAEJUtagVARIANT@@PAPA_W@Z:PROC ; CWnd::get_accName
EXTRN	?get_accValue@CWnd@@UAEJUtagVARIANT@@PAPA_W@Z:PROC ; CWnd::get_accValue
EXTRN	?get_accDescription@CWnd@@UAEJUtagVARIANT@@PAPA_W@Z:PROC ; CWnd::get_accDescription
EXTRN	?get_accRole@CWnd@@UAEJUtagVARIANT@@PAU2@@Z:PROC ; CWnd::get_accRole
EXTRN	?get_accState@CWnd@@UAEJUtagVARIANT@@PAU2@@Z:PROC ; CWnd::get_accState
EXTRN	?get_accHelp@CWnd@@UAEJUtagVARIANT@@PAPA_W@Z:PROC ; CWnd::get_accHelp
EXTRN	?get_accHelpTopic@CWnd@@UAEJPAPA_WUtagVARIANT@@PAJ@Z:PROC ; CWnd::get_accHelpTopic
EXTRN	?get_accKeyboardShortcut@CWnd@@UAEJUtagVARIANT@@PAPA_W@Z:PROC ; CWnd::get_accKeyboardShortcut
EXTRN	?get_accFocus@CWnd@@UAEJPAUtagVARIANT@@@Z:PROC	; CWnd::get_accFocus
EXTRN	?get_accSelection@CWnd@@UAEJPAUtagVARIANT@@@Z:PROC ; CWnd::get_accSelection
EXTRN	?get_accDefaultAction@CWnd@@UAEJUtagVARIANT@@PAPA_W@Z:PROC ; CWnd::get_accDefaultAction
EXTRN	?accSelect@CWnd@@UAEJJUtagVARIANT@@@Z:PROC	; CWnd::accSelect
EXTRN	?accLocation@CWnd@@UAEJPAJ000UtagVARIANT@@@Z:PROC ; CWnd::accLocation
EXTRN	?accNavigate@CWnd@@UAEJJUtagVARIANT@@PAU2@@Z:PROC ; CWnd::accNavigate
EXTRN	?accHitTest@CWnd@@UAEJJJPAUtagVARIANT@@@Z:PROC	; CWnd::accHitTest
EXTRN	?accDoDefaultAction@CWnd@@UAEJUtagVARIANT@@@Z:PROC ; CWnd::accDoDefaultAction
EXTRN	?put_accName@CWnd@@UAEJUtagVARIANT@@PA_W@Z:PROC	; CWnd::put_accName
EXTRN	?put_accValue@CWnd@@UAEJUtagVARIANT@@PA_W@Z:PROC ; CWnd::put_accValue
EXTRN	?SetProxy@CWnd@@UAEJPAUIAccessibleProxy@@@Z:PROC ; CWnd::SetProxy
EXTRN	?CreateAccessibleProxy@CWnd@@UAEJIJPAJ@Z:PROC	; CWnd::CreateAccessibleProxy
EXTRN	?OnCommand@CWnd@@MAEHIJ@Z:PROC			; CWnd::OnCommand
EXTRN	?OnNotify@CWnd@@MAEHIJPAJ@Z:PROC		; CWnd::OnNotify
EXTRN	?OnCtlColor@CWnd@@IAEPAUHBRUSH__@@PAVCDC@@PAV1@I@Z:PROC ; CWnd::OnCtlColor
EXTRN	?OnDestroy@CWnd@@IAEXXZ:PROC			; CWnd::OnDestroy
EXTRN	?GetSuperWndProcAddr@CWnd@@MAEPAP6GJPAUHWND__@@IIJ@ZXZ:PROC ; CWnd::GetSuperWndProcAddr
EXTRN	?OnAmbientProperty@CWnd@@UAEHPAVCOleControlSite@@JPAUtagVARIANT@@@Z:PROC ; CWnd::OnAmbientProperty
EXTRN	?WindowProc@CWnd@@MAEJIIJ@Z:PROC		; CWnd::WindowProc
EXTRN	?OnWndMsg@CWnd@@MAEHIIJPAJ@Z:PROC		; CWnd::OnWndMsg
EXTRN	?DefWindowProcA@CWnd@@MAEJIIJ@Z:PROC		; CWnd::DefWindowProcA
EXTRN	?PostNcDestroy@CWnd@@MAEXXZ:PROC		; CWnd::PostNcDestroy
EXTRN	?OnChildNotify@CWnd@@MAEHIIJPAJ@Z:PROC		; CWnd::OnChildNotify
EXTRN	?OnTouchInputs@CWnd@@MAEHIPAUtagTOUCHINPUT@@@Z:PROC ; CWnd::OnTouchInputs
EXTRN	?OnTouchInput@CWnd@@MAEHVCPoint@@HHPAUtagTOUCHINPUT@@@Z:PROC ; CWnd::OnTouchInput
EXTRN	?GetGestureStatus@CWnd@@MAEKVCPoint@@@Z:PROC	; CWnd::GetGestureStatus
EXTRN	?OnGestureZoom@CWnd@@MAEHVCPoint@@J@Z:PROC	; CWnd::OnGestureZoom
EXTRN	?OnGesturePan@CWnd@@MAEHVCPoint@@0@Z:PROC	; CWnd::OnGesturePan
EXTRN	?OnGestureRotate@CWnd@@MAEHVCPoint@@N@Z:PROC	; CWnd::OnGestureRotate
EXTRN	?OnGestureTwoFingerTap@CWnd@@MAEHVCPoint@@@Z:PROC ; CWnd::OnGestureTwoFingerTap
EXTRN	?OnGesturePressAndTap@CWnd@@MAEHVCPoint@@J@Z:PROC ; CWnd::OnGesturePressAndTap
EXTRN	?ResizeDynamicLayout@CWnd@@MAEXXZ:PROC		; CWnd::ResizeDynamicLayout
EXTRN	?IsFrameWnd@CWnd@@UBEHXZ:PROC			; CWnd::IsFrameWnd
EXTRN	?OnFinalRelease@CWnd@@UAEXXZ:PROC		; CWnd::OnFinalRelease
EXTRN	?CreateControlContainer@CWnd@@MAEHPAPAVCOleControlContainer@@@Z:PROC ; CWnd::CreateControlContainer
EXTRN	?CreateControlSite@CWnd@@MAEHPAVCOleControlContainer@@PAPAVCOleControlSite@@IABU_GUID@@@Z:PROC ; CWnd::CreateControlSite
EXTRN	?GetRuntimeClass@CDialog@@UBEPAUCRuntimeClass@@XZ:PROC ; CDialog::GetRuntimeClass
EXTRN	?Create@CDialog@@UAEHPBDPAVCWnd@@@Z:PROC	; CDialog::Create
EXTRN	?CreateIndirect@CDialog@@UAEHPBUDLGTEMPLATE@@PAVCWnd@@PAX@Z:PROC ; CDialog::CreateIndirect
EXTRN	?CreateIndirect@CDialog@@UAEHPAXPAVCWnd@@@Z:PROC ; CDialog::CreateIndirect
EXTRN	?OnInitDialog@CDialog@@UAEHXZ:PROC		; CDialog::OnInitDialog
EXTRN	?OnSetFont@CDialog@@UAEXPAVCFont@@@Z:PROC	; CDialog::OnSetFont
EXTRN	?OnOK@CDialog@@MAEXXZ:PROC			; CDialog::OnOK
EXTRN	?OnCancel@CDialog@@MAEXXZ:PROC			; CDialog::OnCancel
EXTRN	??1CDialog@@UAE@XZ:PROC				; CDialog::~CDialog
EXTRN	?PreTranslateMessage@CDialog@@UAEHPAUtagMSG@@@Z:PROC ; CDialog::PreTranslateMessage
EXTRN	?OnCmdMsg@CDialog@@UAEHIHPAXPAUAFX_CMDHANDLERINFO@@@Z:PROC ; CDialog::OnCmdMsg
EXTRN	?CheckAutoCenter@CDialog@@UAEHXZ:PROC		; CDialog::CheckAutoCenter
EXTRN	?SetOccDialogInfo@CDialog@@MAEHPAU_AFX_OCC_DIALOG_INFO@@@Z:PROC ; CDialog::SetOccDialogInfo
EXTRN	?GetOccDialogInfo@CDialog@@MAEPAU_AFX_OCC_DIALOG_INFO@@XZ:PROC ; CDialog::GetOccDialogInfo
EXTRN	?PreInitDialog@CDialog@@MAEXXZ:PROC		; CDialog::PreInitDialog
EXTRN	?AfxMessageBox@@YGHPBDII@Z:PROC			; AfxMessageBox
EXTRN	??0CRscDlg@@QAE@IPAVCWnd@@@Z:PROC		; CRscDlg::CRscDlg
EXTRN	?Create@CRscDlg@@UAEHIPAVCWnd@@@Z:PROC		; CRscDlg::Create
EXTRN	?DoModal@CRscDlg@@UAEHXZ:PROC			; CRscDlg::DoModal
EXTRN	?DoDataExchange@CRscDlg@@MAEXPAVCDataExchange@@@Z:PROC ; CRscDlg::DoDataExchange
EXTRN	?GetThisMessageMap@CRscDlg@@KGPBUAFX_MSGMAP@@XZ:PROC ; CRscDlg::GetThisMessageMap
EXTRN	??0CXTabCtrl@@QAE@XZ:PROC			; CXTabCtrl::CXTabCtrl
EXTRN	?AddTab@CXTabCtrl@@QAEXPAVCWnd@@PADH@Z:PROC	; CXTabCtrl::AddTab
EXTRN	?SelectTab@CXTabCtrl@@QAEHH@Z:PROC		; CXTabCtrl::SelectTab
EXTRN	?SetTopLeftCorner@CXTabCtrl@@QAEXVCPoint@@@Z:PROC ; CXTabCtrl::SetTopLeftCorner
EXTRN	?SetSelectedColor@CXTabCtrl@@QAEXKK@Z:PROC	; CXTabCtrl::SetSelectedColor
EXTRN	?SetNormalColor@CXTabCtrl@@QAEXKKK@Z:PROC	; CXTabCtrl::SetNormalColor
EXTRN	??1CXTabCtrl@@UAE@XZ:PROC			; CXTabCtrl::~CXTabCtrl
EXTRN	??0CDlgSTConfig@@QAE@PAVCWnd@@@Z:PROC		; CDlgSTConfig::CDlgSTConfig
EXTRN	?ReloadInfo@CDlgSTConfig@@QAEXXZ:PROC		; CDlgSTConfig::ReloadInfo
EXTRN	??0CxSkinButton@@QAE@XZ:PROC			; CxSkinButton::CxSkinButton
EXTRN	?SetSkin@CxSkinButton@@QAEXIIIIIIFFF@Z:PROC	; CxSkinButton::SetSkin
EXTRN	??1CxSkinButton@@UAE@XZ:PROC			; CxSkinButton::~CxSkinButton
EXTRN	??_E?$CArray@PAVCRscDlg@@PAV1@@@UAEPAXI@Z:PROC	; CArray<CRscDlg *,CRscDlg *>::`vector deleting destructor'
EXTRN	??_ECDlgSTOption@@UAEPAXI@Z:PROC		; CDlgSTOption::`vector deleting destructor'
EXTRN	??0CTabBasic@@QAE@PAVCWnd@@@Z:PROC		; CTabBasic::CTabBasic
EXTRN	??0CTabVariables@@QAE@PAVCWnd@@@Z:PROC		; CTabVariables::CTabVariables
EXTRN	??0CTabSignal@@QAE@PAVCWnd@@@Z:PROC		; CTabSignal::CTabSignal
EXTRN	??0CTabIndex@@QAE@PAVCWnd@@@Z:PROC		; CTabIndex::CTabIndex
EXTRN	??0CTabAuthority@@QAE@PAVCWnd@@@Z:PROC		; CTabAuthority::CTabAuthority
EXTRN	@__security_check_cookie@4:PROC
EXTRN	___CxxFrameHandler3:PROC
EXTRN	_memcpy:PROC
EXTRN	_memset:PROC
EXTRN	??_7type_info@@6B@:QWORD			; type_info::`vftable'
EXTRN	___security_cookie:DWORD
_BSS	SEGMENT
?RMSG_STCONFIGURENAME@@3IB DD 01H DUP (?)		; RMSG_STCONFIGURENAME
?RMSG_VERIFYSCRIPTNAME@@3IB DD 01H DUP (?)		; RMSG_VERIFYSCRIPTNAME
?RMSG_STSAVETOUSERST@@3IB DD 01H DUP (?)		; RMSG_STSAVETOUSERST
_BSS	ENDS
CRT$XCU	SEGMENT
?RMSG_STCONFIGURENAME$initializer$@@3P6AXXZA DD FLAT:??__ERMSG_STCONFIGURENAME@@YAXXZ ; RMSG_STCONFIGURENAME$initializer$
CRT$XCU	ENDS
;	COMDAT ??_R1A@?0A@EA@?$CArray@PAVCRscDlg@@PAV1@@@8
rdata$r	SEGMENT
??_R1A@?0A@EA@?$CArray@PAVCRscDlg@@PAV1@@@8 DD FLAT:??_R0?AV?$CArray@PAVCRscDlg@@PAV1@@@@8 ; CArray<CRscDlg *,CRscDlg *>::`RTTI Base Class Descriptor at (0,-1,0,64)'
	DD	01H
	DD	00H
	DD	0ffffffffH
	DD	00H
	DD	040H
	DD	FLAT:??_R3?$CArray@PAVCRscDlg@@PAV1@@@8
rdata$r	ENDS
;	COMDAT ??_R2?$CArray@PAVCRscDlg@@PAV1@@@8
rdata$r	SEGMENT
??_R2?$CArray@PAVCRscDlg@@PAV1@@@8 DD FLAT:??_R1A@?0A@EA@?$CArray@PAVCRscDlg@@PAV1@@@8 ; CArray<CRscDlg *,CRscDlg *>::`RTTI Base Class Array'
	DD	FLAT:??_R1A@?0A@EA@CObject@@8
rdata$r	ENDS
;	COMDAT ??_R3?$CArray@PAVCRscDlg@@PAV1@@@8
rdata$r	SEGMENT
??_R3?$CArray@PAVCRscDlg@@PAV1@@@8 DD 00H		; CArray<CRscDlg *,CRscDlg *>::`RTTI Class Hierarchy Descriptor'
	DD	00H
	DD	02H
	DD	FLAT:??_R2?$CArray@PAVCRscDlg@@PAV1@@@8
rdata$r	ENDS
;	COMDAT ??_R0?AV?$CArray@PAVCRscDlg@@PAV1@@@@8
data$rs	SEGMENT
??_R0?AV?$CArray@PAVCRscDlg@@PAV1@@@@8 DD FLAT:??_7type_info@@6B@ ; CArray<CRscDlg *,CRscDlg *> `RTTI Type Descriptor'
	DD	00H
	DB	'.?AV?$CArray@PAVCRscDlg@@PAV1@@@', 00H
data$rs	ENDS
;	COMDAT ??_R4?$CArray@PAVCRscDlg@@PAV1@@@6B@
rdata$r	SEGMENT
??_R4?$CArray@PAVCRscDlg@@PAV1@@@6B@ DD 00H		; CArray<CRscDlg *,CRscDlg *>::`RTTI Complete Object Locator'
	DD	00H
	DD	00H
	DD	FLAT:??_R0?AV?$CArray@PAVCRscDlg@@PAV1@@@@8
	DD	FLAT:??_R3?$CArray@PAVCRscDlg@@PAV1@@@8
rdata$r	ENDS
;	COMDAT ??_R2CRscDlg@@8
rdata$r	SEGMENT
??_R2CRscDlg@@8 DD FLAT:??_R1A@?0A@EA@CRscDlg@@8	; CRscDlg::`RTTI Base Class Array'
	DD	FLAT:??_R1A@?0A@EA@CDialog@@8
	DD	FLAT:??_R1A@?0A@EA@CWnd@@8
	DD	FLAT:??_R1A@?0A@EA@CCmdTarget@@8
	DD	FLAT:??_R1A@?0A@EA@CObject@@8
rdata$r	ENDS
;	COMDAT ??_R3CRscDlg@@8
rdata$r	SEGMENT
??_R3CRscDlg@@8 DD 00H					; CRscDlg::`RTTI Class Hierarchy Descriptor'
	DD	00H
	DD	05H
	DD	FLAT:??_R2CRscDlg@@8
rdata$r	ENDS
;	COMDAT ??_R0?AVCRscDlg@@@8
data$rs	SEGMENT
??_R0?AVCRscDlg@@@8 DD FLAT:??_7type_info@@6B@		; CRscDlg `RTTI Type Descriptor'
	DD	00H
	DB	'.?AVCRscDlg@@', 00H
data$rs	ENDS
;	COMDAT ??_R1A@?0A@EA@CRscDlg@@8
rdata$r	SEGMENT
??_R1A@?0A@EA@CRscDlg@@8 DD FLAT:??_R0?AVCRscDlg@@@8	; CRscDlg::`RTTI Base Class Descriptor at (0,-1,0,64)'
	DD	04H
	DD	00H
	DD	0ffffffffH
	DD	00H
	DD	040H
	DD	FLAT:??_R3CRscDlg@@8
rdata$r	ENDS
;	COMDAT ??_R1A@?0A@EA@CDlgSTOption@@8
rdata$r	SEGMENT
??_R1A@?0A@EA@CDlgSTOption@@8 DD FLAT:??_R0?AVCDlgSTOption@@@8 ; CDlgSTOption::`RTTI Base Class Descriptor at (0,-1,0,64)'
	DD	05H
	DD	00H
	DD	0ffffffffH
	DD	00H
	DD	040H
	DD	FLAT:??_R3CDlgSTOption@@8
rdata$r	ENDS
;	COMDAT ??_R2CDlgSTOption@@8
rdata$r	SEGMENT
??_R2CDlgSTOption@@8 DD FLAT:??_R1A@?0A@EA@CDlgSTOption@@8 ; CDlgSTOption::`RTTI Base Class Array'
	DD	FLAT:??_R1A@?0A@EA@CRscDlg@@8
	DD	FLAT:??_R1A@?0A@EA@CDialog@@8
	DD	FLAT:??_R1A@?0A@EA@CWnd@@8
	DD	FLAT:??_R1A@?0A@EA@CCmdTarget@@8
	DD	FLAT:??_R1A@?0A@EA@CObject@@8
rdata$r	ENDS
;	COMDAT ??_R3CDlgSTOption@@8
rdata$r	SEGMENT
??_R3CDlgSTOption@@8 DD 00H				; CDlgSTOption::`RTTI Class Hierarchy Descriptor'
	DD	00H
	DD	06H
	DD	FLAT:??_R2CDlgSTOption@@8
rdata$r	ENDS
;	COMDAT ??_R0?AVCDlgSTOption@@@8
data$rs	SEGMENT
??_R0?AVCDlgSTOption@@@8 DD FLAT:??_7type_info@@6B@	; CDlgSTOption `RTTI Type Descriptor'
	DD	00H
	DB	'.?AVCDlgSTOption@@', 00H
data$rs	ENDS
;	COMDAT ??_R4CDlgSTOption@@6B@
rdata$r	SEGMENT
??_R4CDlgSTOption@@6B@ DD 00H				; CDlgSTOption::`RTTI Complete Object Locator'
	DD	00H
	DD	00H
	DD	FLAT:??_R0?AVCDlgSTOption@@@8
	DD	FLAT:??_R3CDlgSTOption@@8
rdata$r	ENDS
;	COMDAT ??_C@_04HGGBINEM@?$CFs?$CFd@
CONST	SEGMENT
??_C@_04HGGBINEM@?$CFs?$CFd@ DB '%s%d', 00H		; `string'
CONST	ENDS
;	COMDAT ??_C@_01NBENCBCI@?$CK@
CONST	SEGMENT
??_C@_01NBENCBCI@?$CK@ DB '*', 00H			; `string'
CONST	ENDS
;	COMDAT ??_C@_01GBGANLPD@0@
CONST	SEGMENT
??_C@_01GBGANLPD@0@ DB '0', 00H				; `string'
CONST	ENDS
;	COMDAT ??_C@_05DAINAMK@?$FO?$CK?4ST@
CONST	SEGMENT
??_C@_05DAINAMK@?$FO?$CK?4ST@ DB '^*.ST', 00H		; `string'
CONST	ENDS
;	COMDAT ??_C@_01KICIPPFI@?2@
CONST	SEGMENT
??_C@_01KICIPPFI@?2@ DB '\', 00H			; `string'
CONST	ENDS
;	COMDAT ??_C@_04HHIPPAHO@?$LK?$LI?$LO?H@
CONST	SEGMENT
??_C@_04HHIPPAHO@?$LK?$LI?$LO?H@ DB 0baH, 0b8H, 0beH, 0c8H, 00H ; `string'
CONST	ENDS
;	COMDAT ??_C@_08MDPEPEPN@?A?v?G?$KF?G?$KF?$LN?C@
CONST	SEGMENT
??_C@_08MDPEPEPN@?A?v?G?$KF?G?$KF?$LN?C@ DB 0c1H, 0f6H, 0c7H, 0a5H, 0c7H, 0a5H
	DB	0bdH, 0c3H, 00H				; `string'
CONST	ENDS
;	COMDAT ??_C@_08PODAADFG@?$LN?E?H?$KD?G?$KF?$LN?C@
CONST	SEGMENT
??_C@_08PODAADFG@?$LN?E?H?$KD?G?$KF?$LN?C@ DB 0bdH, 0c5H, 0c8H, 0a3H, 0c7H
	DB	0a5H, 0bdH, 0c3H, 00H			; `string'
CONST	ENDS
;	COMDAT ??_C@_04PIAAFAEL@?$LK?$KP?$LM?v@
CONST	SEGMENT
??_C@_04PIAAFAEL@?$LK?$KP?$LM?v@ DB 0baH, 0afH, 0bcH, 0f6H, 00H ; `string'
CONST	ENDS
;	COMDAT ??_C@_04KHPEKMEA@?$LB?b?$LK?$LL@
CONST	SEGMENT
??_C@_04KHPEKMEA@?$LB?b?$LK?$LL@ DB 0b1H, 0e2H, 0baH, 0bbH, 00H ; `string'
CONST	ENDS
;	COMDAT ??_C@_0N@HDJNLEJM@?$LE?$NM?$MA?$KH?$MA?$PM?$LH?$KL?$LP?I?$LM?G@
CONST	SEGMENT
??_C@_0N@HDJNLEJM@?$LE?$NM?$MA?$KH?$MA?$PM?$LH?$KL?$LP?I?$LM?G@ DB 0b4H, 0dcH
	DB	0c0H, 0a7H, 0c0H, 0fcH, 0b7H, 0abH, 0bfH, 0c9H, 0bcH, 0c7H, 00H ; `string'
CONST	ENDS
;	COMDAT ??_C@_0P@OFKHPJJP@?$LL?g?$LP?k?$MA?Z?G?T?$LM?v?$LP?I?$LM?G@
CONST	SEGMENT
??_C@_0P@OFKHPJJP@?$LL?g?$LP?k?$MA?Z?G?T?$LM?v?$LP?I?$LM?G@ DB 0bbH, 0e7H
	DB	0bfH, 0ebH, 0c0H, 0daH, 0c7H, 0d4H, 0bcH, 0f6H, 0bfH, 0c9H, 0bcH
	DB	0c7H, 00H					; `string'
CONST	ENDS
;	COMDAT ?messageMap@?1??GetThisMessageMap@CDlgSTOption@@KGPBUAFX_MSGMAP@@XZ@4U3@B
CONST	SEGMENT
?messageMap@?1??GetThisMessageMap@CDlgSTOption@@KGPBUAFX_MSGMAP@@XZ@4U3@B DD FLAT:?GetThisMessageMap@CRscDlg@@KGPBUAFX_MSGMAP@@XZ ; `CDlgSTOption::GetThisMessageMap'::`2'::messageMap
	DD	FLAT:?_messageEntries@?1??GetThisMessageMap@CDlgSTOption@@KGPBUAFX_MSGMAP@@XZ@4QBUAFX_MSGMAP_ENTRY@@B
CONST	ENDS
;	COMDAT ?_messageEntries@?1??GetThisMessageMap@CDlgSTOption@@KGPBUAFX_MSGMAP@@XZ@4QBUAFX_MSGMAP_ENTRY@@B
CONST	SEGMENT
?_messageEntries@?1??GetThisMessageMap@CDlgSTOption@@KGPBUAFX_MSGMAP@@XZ@4QBUAFX_MSGMAP_ENTRY@@B DD 02H ; `CDlgSTOption::GetThisMessageMap'::`2'::_messageEntries
	DD	00H
	DD	00H
	DD	00H
	DD	013H
	DD	FLAT:?OnDestroy@CDlgSTOption@@IAEXXZ
	DD	019H
	DD	00H
	DD	00H
	DD	00H
	DD	08H
	DD	FLAT:?OnCtlColor@CDlgSTOption@@IAEPAUHBRUSH__@@PAVCDC@@PAVCWnd@@I@Z
	DD	00H
	DD	00H
	DD	00H
	DD	00H
	DD	00H
	DD	00H
CONST	ENDS
;	COMDAT ??_7CDlgSTOption@@6B@
CONST	SEGMENT
??_7CDlgSTOption@@6B@ DD FLAT:??_R4CDlgSTOption@@6B@	; CDlgSTOption::`vftable'
	DD	FLAT:?GetRuntimeClass@CDialog@@UBEPAUCRuntimeClass@@XZ
	DD	FLAT:??_ECDlgSTOption@@UAEPAXI@Z
	DD	FLAT:?Serialize@CObject@@UAEXAAVCArchive@@@Z
	DD	FLAT:?AssertValid@CObject@@UBEXXZ
	DD	FLAT:?Dump@CObject@@UBEXAAVCDumpContext@@@Z
	DD	FLAT:?OnCmdMsg@CDialog@@UAEHIHPAXPAUAFX_CMDHANDLERINFO@@@Z
	DD	FLAT:?OnFinalRelease@CWnd@@UAEXXZ
	DD	FLAT:?IsInvokeAllowed@CCmdTarget@@UAEHJ@Z
	DD	FLAT:?GetDispatchIID@CCmdTarget@@UAEHPAU_GUID@@@Z
	DD	FLAT:?GetTypeInfoCount@CCmdTarget@@UAEIXZ
	DD	FLAT:?GetTypeLibCache@CCmdTarget@@UAEPAVCTypeLibCache@@XZ
	DD	FLAT:?GetTypeLib@CCmdTarget@@UAEJKPAPAUITypeLib@@@Z
	DD	FLAT:?GetMessageMap@CDlgSTOption@@MBEPBUAFX_MSGMAP@@XZ
	DD	FLAT:?GetCommandMap@CCmdTarget@@MBEPBUAFX_OLECMDMAP@@XZ
	DD	FLAT:?GetDispatchMap@CCmdTarget@@MBEPBUAFX_DISPMAP@@XZ
	DD	FLAT:?GetConnectionMap@CCmdTarget@@MBEPBUAFX_CONNECTIONMAP@@XZ
	DD	FLAT:?GetInterfaceMap@CWnd@@MBEPBUAFX_INTERFACEMAP@@XZ
	DD	FLAT:?GetEventSinkMap@CCmdTarget@@MBEPBUAFX_EVENTSINKMAP@@XZ
	DD	FLAT:?OnCreateAggregates@CCmdTarget@@UAEHXZ
	DD	FLAT:?GetInterfaceHook@CCmdTarget@@UAEPAUIUnknown@@PBX@Z
	DD	FLAT:?GetExtraConnectionPoints@CCmdTarget@@MAEHPAVCPtrArray@@@Z
	DD	FLAT:?GetConnectionHook@CCmdTarget@@MAEPAUIConnectionPoint@@ABU_GUID@@@Z
	DD	FLAT:?PreSubclassWindow@CWnd@@UAEXXZ
	DD	FLAT:?Create@CWnd@@UAEHPBD0KABUtagRECT@@PAV1@IPAUCCreateContext@@@Z
	DD	FLAT:?CreateEx@CWnd@@UAEHKPBD0KABUtagRECT@@PAV1@IPAX@Z
	DD	FLAT:?CreateEx@CWnd@@UAEHKPBD0KHHHHPAUHWND__@@PAUHMENU__@@PAX@Z
	DD	FLAT:?DestroyWindow@CWnd@@UAEHXZ
	DD	FLAT:?PreCreateWindow@CWnd@@UAEHAAUtagCREATESTRUCTA@@@Z
	DD	FLAT:?CalcWindowRect@CWnd@@UAEXPAUtagRECT@@I@Z
	DD	FLAT:?GetMenu@CWnd@@UBEPAVCMenu@@XZ
	DD	FLAT:?SetMenu@CWnd@@UAEHPAVCMenu@@@Z
	DD	FLAT:?OnToolHitTest@CWnd@@UBEHVCPoint@@PAUtagTOOLINFOA@@@Z
	DD	FLAT:?GetScrollBarCtrl@CWnd@@UBEPAVCScrollBar@@H@Z
	DD	FLAT:?WinHelpA@CWnd@@UAEXKI@Z
	DD	FLAT:?HtmlHelpA@CWnd@@UAEXKI@Z
	DD	FLAT:?WinHelpInternal@CWnd@@UAEXKI@Z
	DD	FLAT:?ContinueModal@CWnd@@UAEHXZ
	DD	FLAT:?EndModalLoop@CWnd@@UAEXH@Z
	DD	FLAT:?OnDrawIconicThumbnailOrLivePreview@CWnd@@UAEXAAVCDC@@VCRect@@VCSize@@HAAH@Z
	DD	FLAT:?EnsureStdObj@CWnd@@UAEJXZ
	DD	FLAT:?get_accParent@CWnd@@UAEJPAPAUIDispatch@@@Z
	DD	FLAT:?get_accChildCount@CWnd@@UAEJPAJ@Z
	DD	FLAT:?get_accChild@CWnd@@UAEJUtagVARIANT@@PAPAUIDispatch@@@Z
	DD	FLAT:?get_accName@CWnd@@UAEJUtagVARIANT@@PAPA_W@Z
	DD	FLAT:?get_accValue@CWnd@@UAEJUtagVARIANT@@PAPA_W@Z
	DD	FLAT:?get_accDescription@CWnd@@UAEJUtagVARIANT@@PAPA_W@Z
	DD	FLAT:?get_accRole@CWnd@@UAEJUtagVARIANT@@PAU2@@Z
	DD	FLAT:?get_accState@CWnd@@UAEJUtagVARIANT@@PAU2@@Z
	DD	FLAT:?get_accHelp@CWnd@@UAEJUtagVARIANT@@PAPA_W@Z
	DD	FLAT:?get_accHelpTopic@CWnd@@UAEJPAPA_WUtagVARIANT@@PAJ@Z
	DD	FLAT:?get_accKeyboardShortcut@CWnd@@UAEJUtagVARIANT@@PAPA_W@Z
	DD	FLAT:?get_accFocus@CWnd@@UAEJPAUtagVARIANT@@@Z
	DD	FLAT:?get_accSelection@CWnd@@UAEJPAUtagVARIANT@@@Z
	DD	FLAT:?get_accDefaultAction@CWnd@@UAEJUtagVARIANT@@PAPA_W@Z
	DD	FLAT:?accSelect@CWnd@@UAEJJUtagVARIANT@@@Z
	DD	FLAT:?accLocation@CWnd@@UAEJPAJ000UtagVARIANT@@@Z
	DD	FLAT:?accNavigate@CWnd@@UAEJJUtagVARIANT@@PAU2@@Z
	DD	FLAT:?accHitTest@CWnd@@UAEJJJPAUtagVARIANT@@@Z
	DD	FLAT:?accDoDefaultAction@CWnd@@UAEJUtagVARIANT@@@Z
	DD	FLAT:?put_accName@CWnd@@UAEJUtagVARIANT@@PA_W@Z
	DD	FLAT:?put_accValue@CWnd@@UAEJUtagVARIANT@@PA_W@Z
	DD	FLAT:?SetProxy@CWnd@@UAEJPAUIAccessibleProxy@@@Z
	DD	FLAT:?CreateAccessibleProxy@CWnd@@UAEJIJPAJ@Z
	DD	FLAT:?OnCommand@CWnd@@MAEHIJ@Z
	DD	FLAT:?OnNotify@CWnd@@MAEHIJPAJ@Z
	DD	FLAT:?GetSuperWndProcAddr@CWnd@@MAEPAP6GJPAUHWND__@@IIJ@ZXZ
	DD	FLAT:?DoDataExchange@CDlgSTOption@@MAEXPAVCDataExchange@@@Z
	DD	FLAT:?BeginModalState@CWnd@@UAEXXZ
	DD	FLAT:?EndModalState@CWnd@@UAEXXZ
	DD	FLAT:?PreTranslateMessage@CRscDlg@@MAEHPAUtagMSG@@@Z
	DD	FLAT:?OnAmbientProperty@CWnd@@UAEHPAVCOleControlSite@@JPAUtagVARIANT@@@Z
	DD	FLAT:?WindowProc@CWnd@@MAEJIIJ@Z
	DD	FLAT:?OnWndMsg@CWnd@@MAEHIIJPAJ@Z
	DD	FLAT:?DefWindowProcA@CWnd@@MAEJIIJ@Z
	DD	FLAT:?PostNcDestroy@CWnd@@MAEXXZ
	DD	FLAT:?OnChildNotify@CWnd@@MAEHIIJPAJ@Z
	DD	FLAT:?OnTouchInputs@CWnd@@MAEHIPAUtagTOUCHINPUT@@@Z
	DD	FLAT:?OnTouchInput@CWnd@@MAEHVCPoint@@HHPAUtagTOUCHINPUT@@@Z
	DD	FLAT:?GetGestureStatus@CWnd@@MAEKVCPoint@@@Z
	DD	FLAT:?OnGestureZoom@CWnd@@MAEHVCPoint@@J@Z
	DD	FLAT:?OnGesturePan@CWnd@@MAEHVCPoint@@0@Z
	DD	FLAT:?OnGestureRotate@CWnd@@MAEHVCPoint@@N@Z
	DD	FLAT:?OnGestureTwoFingerTap@CWnd@@MAEHVCPoint@@@Z
	DD	FLAT:?OnGesturePressAndTap@CWnd@@MAEHVCPoint@@J@Z
	DD	FLAT:?ResizeDynamicLayout@CWnd@@MAEXXZ
	DD	FLAT:?CheckAutoCenter@CDialog@@UAEHXZ
	DD	FLAT:?IsFrameWnd@CWnd@@UBEHXZ
	DD	FLAT:?CreateControlContainer@CWnd@@MAEHPAPAVCOleControlContainer@@@Z
	DD	FLAT:?CreateControlSite@CWnd@@MAEHPAVCOleControlContainer@@PAPAVCOleControlSite@@IABU_GUID@@@Z
	DD	FLAT:?SetOccDialogInfo@CDialog@@MAEHPAU_AFX_OCC_DIALOG_INFO@@@Z
	DD	FLAT:?GetOccDialogInfo@CDialog@@MAEPAU_AFX_OCC_DIALOG_INFO@@XZ
	DD	FLAT:?Create@CRscDlg@@UAEHIPAVCWnd@@@Z
	DD	FLAT:?Create@CDialog@@UAEHPBDPAVCWnd@@@Z
	DD	FLAT:?CreateIndirect@CDialog@@UAEHPAXPAVCWnd@@@Z
	DD	FLAT:?CreateIndirect@CDialog@@UAEHPBUDLGTEMPLATE@@PAVCWnd@@PAX@Z
	DD	FLAT:?DoModal@CRscDlg@@UAEHXZ
	DD	FLAT:?OnInitDialog@CDlgSTOption@@MAEHXZ
	DD	FLAT:?OnSetFont@CDialog@@UAEXPAVCFont@@@Z
	DD	FLAT:?OnOK@CDlgSTOption@@MAEXXZ
	DD	FLAT:?OnCancel@CDlgSTOption@@MAEXXZ
	DD	FLAT:?PreInitDialog@CDialog@@MAEXXZ
	DD	FLAT:?LoadInfo@CRscDlg@@UAEXXZ
	DD	FLAT:?SaveInfo@CRscDlg@@UAEHXZ
	DD	FLAT:?RemoveInfo@CRscDlg@@UAEXXZ
	DD	FLAT:?SetDefault@CRscDlg@@UAEXXZ
CONST	ENDS
;	COMDAT ??_7?$CArray@PAVCRscDlg@@PAV1@@@6B@
CONST	SEGMENT
??_7?$CArray@PAVCRscDlg@@PAV1@@@6B@ DD FLAT:??_R4?$CArray@PAVCRscDlg@@PAV1@@@6B@ ; CArray<CRscDlg *,CRscDlg *>::`vftable'
	DD	FLAT:?GetRuntimeClass@CObject@@UBEPAUCRuntimeClass@@XZ
	DD	FLAT:??_E?$CArray@PAVCRscDlg@@PAV1@@@UAEPAXI@Z
	DD	FLAT:?Serialize@?$CArray@PAVCRscDlg@@PAV1@@@UAEXAAVCArchive@@@Z
	DD	FLAT:?AssertValid@CObject@@UBEXXZ
	DD	FLAT:?Dump@CObject@@UBEXAAVCDumpContext@@@Z
CONST	ENDS
;	COMDAT ??_R2CDialog@@8
rdata$r	SEGMENT
??_R2CDialog@@8 DD FLAT:??_R1A@?0A@EA@CDialog@@8	; CDialog::`RTTI Base Class Array'
	DD	FLAT:??_R1A@?0A@EA@CWnd@@8
	DD	FLAT:??_R1A@?0A@EA@CCmdTarget@@8
	DD	FLAT:??_R1A@?0A@EA@CObject@@8
rdata$r	ENDS
;	COMDAT ??_R3CDialog@@8
rdata$r	SEGMENT
??_R3CDialog@@8 DD 00H					; CDialog::`RTTI Class Hierarchy Descriptor'
	DD	00H
	DD	04H
	DD	FLAT:??_R2CDialog@@8
rdata$r	ENDS
;	COMDAT ??_R0?AVCDialog@@@8
data$rs	SEGMENT
??_R0?AVCDialog@@@8 DD FLAT:??_7type_info@@6B@		; CDialog `RTTI Type Descriptor'
	DD	00H
	DB	'.?AVCDialog@@', 00H
data$rs	ENDS
;	COMDAT ??_R1A@?0A@EA@CDialog@@8
rdata$r	SEGMENT
??_R1A@?0A@EA@CDialog@@8 DD FLAT:??_R0?AVCDialog@@@8	; CDialog::`RTTI Base Class Descriptor at (0,-1,0,64)'
	DD	03H
	DD	00H
	DD	0ffffffffH
	DD	00H
	DD	040H
	DD	FLAT:??_R3CDialog@@8
rdata$r	ENDS
;	COMDAT ??_R2CCmdTarget@@8
rdata$r	SEGMENT
??_R2CCmdTarget@@8 DD FLAT:??_R1A@?0A@EA@CCmdTarget@@8	; CCmdTarget::`RTTI Base Class Array'
	DD	FLAT:??_R1A@?0A@EA@CObject@@8
rdata$r	ENDS
;	COMDAT ??_R3CCmdTarget@@8
rdata$r	SEGMENT
??_R3CCmdTarget@@8 DD 00H				; CCmdTarget::`RTTI Class Hierarchy Descriptor'
	DD	00H
	DD	02H
	DD	FLAT:??_R2CCmdTarget@@8
rdata$r	ENDS
;	COMDAT ??_R0?AVCCmdTarget@@@8
data$rs	SEGMENT
??_R0?AVCCmdTarget@@@8 DD FLAT:??_7type_info@@6B@	; CCmdTarget `RTTI Type Descriptor'
	DD	00H
	DB	'.?AVCCmdTarget@@', 00H
data$rs	ENDS
;	COMDAT ??_R1A@?0A@EA@CCmdTarget@@8
rdata$r	SEGMENT
??_R1A@?0A@EA@CCmdTarget@@8 DD FLAT:??_R0?AVCCmdTarget@@@8 ; CCmdTarget::`RTTI Base Class Descriptor at (0,-1,0,64)'
	DD	01H
	DD	00H
	DD	0ffffffffH
	DD	00H
	DD	040H
	DD	FLAT:??_R3CCmdTarget@@8
rdata$r	ENDS
;	COMDAT ??_R2CWnd@@8
rdata$r	SEGMENT
??_R2CWnd@@8 DD	FLAT:??_R1A@?0A@EA@CWnd@@8		; CWnd::`RTTI Base Class Array'
	DD	FLAT:??_R1A@?0A@EA@CCmdTarget@@8
	DD	FLAT:??_R1A@?0A@EA@CObject@@8
rdata$r	ENDS
;	COMDAT ??_R3CWnd@@8
rdata$r	SEGMENT
??_R3CWnd@@8 DD	00H					; CWnd::`RTTI Class Hierarchy Descriptor'
	DD	00H
	DD	03H
	DD	FLAT:??_R2CWnd@@8
rdata$r	ENDS
;	COMDAT ??_R0?AVCWnd@@@8
data$rs	SEGMENT
??_R0?AVCWnd@@@8 DD FLAT:??_7type_info@@6B@		; CWnd `RTTI Type Descriptor'
	DD	00H
	DB	'.?AVCWnd@@', 00H
data$rs	ENDS
;	COMDAT ??_R1A@?0A@EA@CWnd@@8
rdata$r	SEGMENT
??_R1A@?0A@EA@CWnd@@8 DD FLAT:??_R0?AVCWnd@@@8		; CWnd::`RTTI Base Class Descriptor at (0,-1,0,64)'
	DD	02H
	DD	00H
	DD	0ffffffffH
	DD	00H
	DD	040H
	DD	FLAT:??_R3CWnd@@8
rdata$r	ENDS
;	COMDAT ??_R1A@?0A@EA@CBrush@@8
rdata$r	SEGMENT
??_R1A@?0A@EA@CBrush@@8 DD FLAT:??_R0?AVCBrush@@@8	; CBrush::`RTTI Base Class Descriptor at (0,-1,0,64)'
	DD	02H
	DD	00H
	DD	0ffffffffH
	DD	00H
	DD	040H
	DD	FLAT:??_R3CBrush@@8
rdata$r	ENDS
;	COMDAT ??_R2CBrush@@8
rdata$r	SEGMENT
??_R2CBrush@@8 DD FLAT:??_R1A@?0A@EA@CBrush@@8		; CBrush::`RTTI Base Class Array'
	DD	FLAT:??_R1A@?0A@EA@CGdiObject@@8
	DD	FLAT:??_R1A@?0A@EA@CObject@@8
rdata$r	ENDS
;	COMDAT ??_R3CBrush@@8
rdata$r	SEGMENT
??_R3CBrush@@8 DD 00H					; CBrush::`RTTI Class Hierarchy Descriptor'
	DD	00H
	DD	03H
	DD	FLAT:??_R2CBrush@@8
rdata$r	ENDS
;	COMDAT ??_R0?AVCBrush@@@8
data$rs	SEGMENT
??_R0?AVCBrush@@@8 DD FLAT:??_7type_info@@6B@		; CBrush `RTTI Type Descriptor'
	DD	00H
	DB	'.?AVCBrush@@', 00H
data$rs	ENDS
;	COMDAT ??_R4CBrush@@6B@
rdata$r	SEGMENT
??_R4CBrush@@6B@ DD 00H					; CBrush::`RTTI Complete Object Locator'
	DD	00H
	DD	00H
	DD	FLAT:??_R0?AVCBrush@@@8
	DD	FLAT:??_R3CBrush@@8
rdata$r	ENDS
;	COMDAT ??_R1A@?0A@EA@CGdiObject@@8
rdata$r	SEGMENT
??_R1A@?0A@EA@CGdiObject@@8 DD FLAT:??_R0?AVCGdiObject@@@8 ; CGdiObject::`RTTI Base Class Descriptor at (0,-1,0,64)'
	DD	01H
	DD	00H
	DD	0ffffffffH
	DD	00H
	DD	040H
	DD	FLAT:??_R3CGdiObject@@8
rdata$r	ENDS
;	COMDAT ??_R2CGdiObject@@8
rdata$r	SEGMENT
??_R2CGdiObject@@8 DD FLAT:??_R1A@?0A@EA@CGdiObject@@8	; CGdiObject::`RTTI Base Class Array'
	DD	FLAT:??_R1A@?0A@EA@CObject@@8
rdata$r	ENDS
;	COMDAT ??_R3CGdiObject@@8
rdata$r	SEGMENT
??_R3CGdiObject@@8 DD 00H				; CGdiObject::`RTTI Class Hierarchy Descriptor'
	DD	00H
	DD	02H
	DD	FLAT:??_R2CGdiObject@@8
rdata$r	ENDS
;	COMDAT ??_R0?AVCGdiObject@@@8
data$rs	SEGMENT
??_R0?AVCGdiObject@@@8 DD FLAT:??_7type_info@@6B@	; CGdiObject `RTTI Type Descriptor'
	DD	00H
	DB	'.?AVCGdiObject@@', 00H
data$rs	ENDS
;	COMDAT ??_R4CGdiObject@@6B@
rdata$r	SEGMENT
??_R4CGdiObject@@6B@ DD 00H				; CGdiObject::`RTTI Complete Object Locator'
	DD	00H
	DD	00H
	DD	FLAT:??_R0?AVCGdiObject@@@8
	DD	FLAT:??_R3CGdiObject@@8
rdata$r	ENDS
;	COMDAT ??_R1A@?0A@EA@CObject@@8
rdata$r	SEGMENT
??_R1A@?0A@EA@CObject@@8 DD FLAT:??_R0?AVCObject@@@8	; CObject::`RTTI Base Class Descriptor at (0,-1,0,64)'
	DD	00H
	DD	00H
	DD	0ffffffffH
	DD	00H
	DD	040H
	DD	FLAT:??_R3CObject@@8
rdata$r	ENDS
;	COMDAT ??_R2CObject@@8
rdata$r	SEGMENT
??_R2CObject@@8 DD FLAT:??_R1A@?0A@EA@CObject@@8	; CObject::`RTTI Base Class Array'
rdata$r	ENDS
;	COMDAT ??_R3CObject@@8
rdata$r	SEGMENT
??_R3CObject@@8 DD 00H					; CObject::`RTTI Class Hierarchy Descriptor'
	DD	00H
	DD	01H
	DD	FLAT:??_R2CObject@@8
rdata$r	ENDS
;	COMDAT ??_R0?AVCObject@@@8
data$rs	SEGMENT
??_R0?AVCObject@@@8 DD FLAT:??_7type_info@@6B@		; CObject `RTTI Type Descriptor'
	DD	00H
	DB	'.?AVCObject@@', 00H
data$rs	ENDS
;	COMDAT ??_C@_0N@OMEMOKLE@?$CFTs?5?$CI?$CFTs?3?$CFd?$CJ@
CONST	SEGMENT
??_C@_0N@OMEMOKLE@?$CFTs?5?$CI?$CFTs?3?$CFd?$CJ@ DB '%Ts (%Ts:%d)', 00H ; `string'
CONST	ENDS
;	COMDAT ??_C@_0BB@HBOOMJBF@?$CFTs?5?$CI?$CFTs?3?$CFd?$CJ?6?$CFTs@
CONST	SEGMENT
??_C@_0BB@HBOOMJBF@?$CFTs?5?$CI?$CFTs?3?$CFd?$CJ?6?$CFTs@ DB '%Ts (%Ts:%d'
	DB	')', 0aH, '%Ts', 00H				; `string'
CONST	ENDS
;	COMDAT ??_C@_0BP@OIEOKIDM@Exception?5thrown?5in?5destructor@
CONST	SEGMENT
??_C@_0BP@OIEOKIDM@Exception?5thrown?5in?5destructor@ DB 'Exception throw'
	DB	'n in destructor', 00H			; `string'
CONST	ENDS
;	COMDAT ??_C@_0HD@JJCHHHNK@C?3?2Program?5Files?5?$CIx86?$CJ?2Microsof@
CONST	SEGMENT
??_C@_0HD@JJCHHHNK@C?3?2Program?5Files?5?$CIx86?$CJ?2Microsof@ DB 'C:\Pro'
	DB	'gram Files (x86)\Microsoft Visual Studio\2019\Community\VC\To'
	DB	'ols\MSVC\14.29.30133\atlmfc\include\afxwin1.inl', 00H ; `string'
CONST	ENDS
;	COMDAT ??_7CBrush@@6B@
CONST	SEGMENT
??_7CBrush@@6B@ DD FLAT:??_R4CBrush@@6B@		; CBrush::`vftable'
	DD	FLAT:?GetRuntimeClass@CBrush@@UBEPAUCRuntimeClass@@XZ
	DD	FLAT:??_ECBrush@@UAEPAXI@Z
	DD	FLAT:?Serialize@CObject@@UAEXAAVCArchive@@@Z
	DD	FLAT:?AssertValid@CObject@@UBEXXZ
	DD	FLAT:?Dump@CObject@@UBEXAAVCDumpContext@@@Z
CONST	ENDS
;	COMDAT ??_7CGdiObject@@6B@
CONST	SEGMENT
??_7CGdiObject@@6B@ DD FLAT:??_R4CGdiObject@@6B@	; CGdiObject::`vftable'
	DD	FLAT:?GetRuntimeClass@CGdiObject@@UBEPAUCRuntimeClass@@XZ
	DD	FLAT:??_ECGdiObject@@UAEPAXI@Z
	DD	FLAT:?Serialize@CObject@@UAEXAAVCArchive@@@Z
	DD	FLAT:?AssertValid@CObject@@UBEXXZ
	DD	FLAT:?Dump@CObject@@UBEXAAVCDumpContext@@@Z
CONST	ENDS
;	COMDAT ??_C@_02DPKJAMEF@?$CFd@
CONST	SEGMENT
??_C@_02DPKJAMEF@?$CFd@ DB '%d', 00H			; `string'
CONST	ENDS
;	COMDAT ??_R0PAVCException@@@8
data$r	SEGMENT
??_R0PAVCException@@@8 DD FLAT:??_7type_info@@6B@	; CException * `RTTI Type Descriptor'
	DD	00H
	DB	'.PAVCException@@', 00H
data$r	ENDS
;	COMDAT xdata$x
xdata$x	SEGMENT
__unwindtable$?OnOK@CDlgSTOption@@MAEXXZ DD 0ffffffffH
	DD	FLAT:__unwindfunclet$?OnOK@CDlgSTOption@@MAEXXZ$0
	DD	00H
	DD	FLAT:__unwindfunclet$?OnOK@CDlgSTOption@@MAEXXZ$1
	DD	0ffffffffH
	DD	FLAT:__unwindfunclet$?OnOK@CDlgSTOption@@MAEXXZ$2
__ehfuncinfo$?OnOK@CDlgSTOption@@MAEXXZ DD 019930522H
	DD	03H
	DD	FLAT:__unwindtable$?OnOK@CDlgSTOption@@MAEXXZ
	DD	2 DUP(00H)
	DD	2 DUP(00H)
	DD	00H
	DD	01H
xdata$x	ENDS
;	COMDAT xdata$x
xdata$x	SEGMENT
__ehfuncinfo$?OnInitDialog@CDlgSTOption@@MAEHXZ DD 019930522H
	DD	06H
	DD	FLAT:__unwindtable$?OnInitDialog@CDlgSTOption@@MAEHXZ
	DD	2 DUP(00H)
	DD	2 DUP(00H)
	DD	00H
	DD	01H
__unwindtable$?OnInitDialog@CDlgSTOption@@MAEHXZ DD 0ffffffffH
	DD	FLAT:__unwindfunclet$?OnInitDialog@CDlgSTOption@@MAEHXZ$0
	DD	0ffffffffH
	DD	FLAT:__unwindfunclet$?OnInitDialog@CDlgSTOption@@MAEHXZ$1
	DD	0ffffffffH
	DD	FLAT:__unwindfunclet$?OnInitDialog@CDlgSTOption@@MAEHXZ$2
	DD	0ffffffffH
	DD	FLAT:__unwindfunclet$?OnInitDialog@CDlgSTOption@@MAEHXZ$3
	DD	0ffffffffH
	DD	FLAT:__unwindfunclet$?OnInitDialog@CDlgSTOption@@MAEHXZ$4
	DD	0ffffffffH
	DD	FLAT:__unwindfunclet$?OnInitDialog@CDlgSTOption@@MAEHXZ$5
xdata$x	ENDS
;	COMDAT xdata$x
xdata$x	SEGMENT
__ehfuncinfo$?ApplyConfig@CDlgSTOption@@QAEXXZ DD 019930522H
	DD	05H
	DD	FLAT:__unwindtable$?ApplyConfig@CDlgSTOption@@QAEXXZ
	DD	2 DUP(00H)
	DD	2 DUP(00H)
	DD	00H
	DD	01H
__unwindtable$?ApplyConfig@CDlgSTOption@@QAEXXZ DD 0ffffffffH
	DD	FLAT:__unwindfunclet$?ApplyConfig@CDlgSTOption@@QAEXXZ$0
	DD	00H
	DD	FLAT:__unwindfunclet$?ApplyConfig@CDlgSTOption@@QAEXXZ$1
	DD	01H
	DD	FLAT:__unwindfunclet$?ApplyConfig@CDlgSTOption@@QAEXXZ$2
	DD	00H
	DD	FLAT:__unwindfunclet$?ApplyConfig@CDlgSTOption@@QAEXXZ$3
	DD	03H
	DD	FLAT:__unwindfunclet$?ApplyConfig@CDlgSTOption@@QAEXXZ$4
xdata$x	ENDS
;	COMDAT xdata$x
xdata$x	SEGMENT
__unwindtable$?WritePrivateProfileStringInST@CDlgSTOption@@QAEHPBD00H@Z DD 0ffffffffH
	DD	FLAT:__unwindfunclet$?WritePrivateProfileStringInST@CDlgSTOption@@QAEHPBD00H@Z$0
	DD	00H
	DD	FLAT:__unwindfunclet$?WritePrivateProfileStringInST@CDlgSTOption@@QAEHPBD00H@Z$1
__ehfuncinfo$?WritePrivateProfileStringInST@CDlgSTOption@@QAEHPBD00H@Z DD 019930522H
	DD	02H
	DD	FLAT:__unwindtable$?WritePrivateProfileStringInST@CDlgSTOption@@QAEHPBD00H@Z
	DD	2 DUP(00H)
	DD	2 DUP(00H)
	DD	00H
	DD	01H
xdata$x	ENDS
;	COMDAT xdata$x
xdata$x	SEGMENT
__unwindtable$?GetPrivateProfileStringInST@CDlgSTOption@@QAEKPBD00PADKH@Z DD 0ffffffffH
	DD	FLAT:__unwindfunclet$?GetPrivateProfileStringInST@CDlgSTOption@@QAEKPBD00PADKH@Z$0
	DD	00H
	DD	FLAT:__unwindfunclet$?GetPrivateProfileStringInST@CDlgSTOption@@QAEKPBD00PADKH@Z$1
__ehfuncinfo$?GetPrivateProfileStringInST@CDlgSTOption@@QAEKPBD00PADKH@Z DD 019930522H
	DD	02H
	DD	FLAT:__unwindtable$?GetPrivateProfileStringInST@CDlgSTOption@@QAEKPBD00PADKH@Z
	DD	2 DUP(00H)
	DD	2 DUP(00H)
	DD	00H
	DD	01H
xdata$x	ENDS
;	COMDAT xdata$x
xdata$x	SEGMENT
__unwindtable$?GetSTFile@CDlgSTOption@@QAEXPBD@Z DD 0ffffffffH
	DD	FLAT:__unwindfunclet$?GetSTFile@CDlgSTOption@@QAEXPBD@Z$0
	DD	00H
	DD	FLAT:__unwindfunclet$?GetSTFile@CDlgSTOption@@QAEXPBD@Z$1
__ehfuncinfo$?GetSTFile@CDlgSTOption@@QAEXPBD@Z DD 019930522H
	DD	02H
	DD	FLAT:__unwindtable$?GetSTFile@CDlgSTOption@@QAEXPBD@Z
	DD	2 DUP(00H)
	DD	2 DUP(00H)
	DD	00H
	DD	01H
xdata$x	ENDS
;	COMDAT xdata$x
xdata$x	SEGMENT
__unwindtable$?GetExpiredDate@CDlgSTOption@@QAE?AV?$CStringT@DV?$StrTraitMFC_DLL@DV?$ChTraitsCRT@D@ATL@@@@@ATL@@XZ DD 0ffffffffH
	DD	FLAT:__unwindfunclet$?GetExpiredDate@CDlgSTOption@@QAE?AV?$CStringT@DV?$StrTraitMFC_DLL@DV?$ChTraitsCRT@D@ATL@@@@@ATL@@XZ$0
__ehfuncinfo$?GetExpiredDate@CDlgSTOption@@QAE?AV?$CStringT@DV?$StrTraitMFC_DLL@DV?$ChTraitsCRT@D@ATL@@@@@ATL@@XZ DD 019930522H
	DD	01H
	DD	FLAT:__unwindtable$?GetExpiredDate@CDlgSTOption@@QAE?AV?$CStringT@DV?$StrTraitMFC_DLL@DV?$ChTraitsCRT@D@ATL@@@@@ATL@@XZ
	DD	2 DUP(00H)
	DD	2 DUP(00H)
	DD	00H
	DD	01H
xdata$x	ENDS
;	COMDAT xdata$x
xdata$x	SEGMENT
__ehfuncinfo$?GetSdPath@CDlgSTOption@@QAE?AV?$CStringT@DV?$StrTraitMFC_DLL@DV?$ChTraitsCRT@D@ATL@@@@@ATL@@XZ DD 019930522H
	DD	05H
	DD	FLAT:__unwindtable$?GetSdPath@CDlgSTOption@@QAE?AV?$CStringT@DV?$StrTraitMFC_DLL@DV?$ChTraitsCRT@D@ATL@@@@@ATL@@XZ
	DD	2 DUP(00H)
	DD	2 DUP(00H)
	DD	00H
	DD	01H
__unwindtable$?GetSdPath@CDlgSTOption@@QAE?AV?$CStringT@DV?$StrTraitMFC_DLL@DV?$ChTraitsCRT@D@ATL@@@@@ATL@@XZ DD 0ffffffffH
	DD	FLAT:__unwindfunclet$?GetSdPath@CDlgSTOption@@QAE?AV?$CStringT@DV?$StrTraitMFC_DLL@DV?$ChTraitsCRT@D@ATL@@@@@ATL@@XZ$0
	DD	00H
	DD	FLAT:__unwindfunclet$?GetSdPath@CDlgSTOption@@QAE?AV?$CStringT@DV?$StrTraitMFC_DLL@DV?$ChTraitsCRT@D@ATL@@@@@ATL@@XZ$1
	DD	00H
	DD	FLAT:__unwindfunclet$?GetSdPath@CDlgSTOption@@QAE?AV?$CStringT@DV?$StrTraitMFC_DLL@DV?$ChTraitsCRT@D@ATL@@@@@ATL@@XZ$2
	DD	00H
	DD	FLAT:__unwindfunclet$?GetSdPath@CDlgSTOption@@QAE?AV?$CStringT@DV?$StrTraitMFC_DLL@DV?$ChTraitsCRT@D@ATL@@@@@ATL@@XZ$3
	DD	00H
	DD	FLAT:__unwindfunclet$?GetSdPath@CDlgSTOption@@QAE?AV?$CStringT@DV?$StrTraitMFC_DLL@DV?$ChTraitsCRT@D@ATL@@@@@ATL@@XZ$4
xdata$x	ENDS
;	COMDAT xdata$x
xdata$x	SEGMENT
__unwindtable$?ChangeSfgPath@CDlgSTOption@@QAEXPBD@Z DD 0ffffffffH
	DD	FLAT:__unwindfunclet$?ChangeSfgPath@CDlgSTOption@@QAEXPBD@Z$0
	DD	00H
	DD	FLAT:__unwindfunclet$?ChangeSfgPath@CDlgSTOption@@QAEXPBD@Z$2
	DD	01H
	DD	FLAT:__unwindfunclet$?ChangeSfgPath@CDlgSTOption@@QAEXPBD@Z$3
__ehfuncinfo$?ChangeSfgPath@CDlgSTOption@@QAEXPBD@Z DD 019930522H
	DD	03H
	DD	FLAT:__unwindtable$?ChangeSfgPath@CDlgSTOption@@QAEXPBD@Z
	DD	2 DUP(00H)
	DD	2 DUP(00H)
	DD	00H
	DD	01H
xdata$x	ENDS
;	COMDAT xdata$x
xdata$x	SEGMENT
__unwindtable$??0CDlgSTOption@@QAE@PAVCWnd@@@Z DD 0ffffffffH
	DD	FLAT:__unwindfunclet$??0CDlgSTOption@@QAE@PAVCWnd@@@Z$0
	DD	00H
	DD	FLAT:__unwindfunclet$??0CDlgSTOption@@QAE@PAVCWnd@@@Z$1
	DD	01H
	DD	FLAT:__unwindfunclet$??0CDlgSTOption@@QAE@PAVCWnd@@@Z$2
__ehfuncinfo$??0CDlgSTOption@@QAE@PAVCWnd@@@Z DD 019930522H
	DD	03H
	DD	FLAT:__unwindtable$??0CDlgSTOption@@QAE@PAVCWnd@@@Z
	DD	2 DUP(00H)
	DD	2 DUP(00H)
	DD	00H
	DD	01H
xdata$x	ENDS
;	COMDAT xdata$x
xdata$x	SEGMENT
__catchsym$??1CGdiObject@@UAE@XZ$3 DD 00H
	DD	FLAT:??_R0PAVCException@@@8
	DD	0fffffde4H
	DD	FLAT:__catch$??1CGdiObject@@UAE@XZ$0
__tryblocktable$??1CGdiObject@@UAE@XZ DD 00H
	DD	00H
	DD	02H
	DD	01H
	DD	FLAT:__catchsym$??1CGdiObject@@UAE@XZ$3
__unwindtable$??1CGdiObject@@UAE@XZ DD 0ffffffffH
	DD	00H
	DD	0ffffffffH
	DD	00H
	DD	01H
	DD	FLAT:__unwindfunclet$??1CGdiObject@@UAE@XZ$2
__ehfuncinfo$??1CGdiObject@@UAE@XZ DD 019930522H
	DD	03H
	DD	FLAT:__unwindtable$??1CGdiObject@@UAE@XZ
	DD	01H
	DD	FLAT:__tryblocktable$??1CGdiObject@@UAE@XZ
	DD	2 DUP(00H)
	DD	00H
	DD	05H
xdata$x	ENDS
CRT$XCU	SEGMENT
?RMSG_VERIFYSCRIPTNAME$initializer$@@3P6AXXZA DD FLAT:??__ERMSG_VERIFYSCRIPTNAME@@YAXXZ ; RMSG_VERIFYSCRIPTNAME$initializer$
CRT$XCU	ENDS
CRT$XCU	SEGMENT
?RMSG_STSAVETOUSERST$initializer$@@3P6AXXZA DD FLAT:??__ERMSG_STSAVETOUSERST@@YAXXZ ; RMSG_STSAVETOUSERST$initializer$
CRT$XCU	ENDS
; Function compile flags: /Ogtp
; File C:\Program Files (x86)\Microsoft Visual Studio\2019\Community\VC\Tools\MSVC\14.29.30133\atlmfc\include\afxtempl.h
; File C:\Program Files (x86)\Microsoft Visual Studio\2019\Community\VC\Tools\MSVC\14.29.30133\atlmfc\include\afx.inl
; File C:\Program Files (x86)\Microsoft Visual Studio\2019\Community\VC\Tools\MSVC\14.29.30133\atlmfc\include\afxtempl.h
; File C:\Program Files (x86)\Microsoft Visual Studio\2019\Community\VC\Tools\MSVC\14.29.30133\atlmfc\include\afx.inl
; File C:\Program Files (x86)\Microsoft Visual Studio\2019\Community\VC\Tools\MSVC\14.29.30133\atlmfc\include\afxtempl.h
; File C:\Program Files (x86)\Microsoft Visual Studio\2019\Community\VC\Tools\MSVC\14.29.30133\atlmfc\include\afx.inl
; File C:\Program Files (x86)\Microsoft Visual Studio\2019\Community\VC\Tools\MSVC\14.29.30133\atlmfc\include\afxtempl.h
;	COMDAT ??$SerializeElements@PAVCRscDlg@@@@YGXAAVCArchive@@PAPAVCRscDlg@@H@Z
_TEXT	SEGMENT
_ar$ = 8						; size = 4
_pElements$ = 12					; size = 4
_nCount$ = 16						; size = 4
??$SerializeElements@PAVCRscDlg@@@@YGXAAVCArchive@@PAPAVCRscDlg@@H@Z PROC ; SerializeElements<CRscDlg *>, COMDAT

; 67   : {

  00000	55		 push	 ebp
  00001	8b ec		 mov	 ebp, esp

; 68   : 	ENSURE(nCount == 0 || pElements != NULL);

  00003	8b 4d 0c	 mov	 ecx, DWORD PTR _pElements$[ebp]
  00006	53		 push	 ebx
  00007	56		 push	 esi
  00008	8b 75 10	 mov	 esi, DWORD PTR _nCount$[ebp]
  0000b	57		 push	 edi
  0000c	85 f6		 test	 esi, esi
  0000e	74 08		 je	 SHORT $LN2@SerializeE
  00010	85 c9		 test	 ecx, ecx
  00012	0f 84 89 00 00
	00		 je	 $LN34@SerializeE
$LN2@SerializeE:
; File C:\Program Files (x86)\Microsoft Visual Studio\2019\Community\VC\Tools\MSVC\14.29.30133\atlmfc\include\afx.inl

; 212  : 	{ return (m_nMode & CArchive::load) == 0; }

  00018	8b 55 08	 mov	 edx, DWORD PTR _ar$[ebp]
  0001b	8b 42 18	 mov	 eax, DWORD PTR [edx+24]
  0001e	f7 d0		 not	 eax
  00020	a8 01		 test	 al, 1
; File C:\Program Files (x86)\Microsoft Visual Studio\2019\Community\VC\Tools\MSVC\14.29.30133\atlmfc\include\afxtempl.h

; 73   : 	if (ar.IsStoring())

  00022	74 3c		 je	 SHORT $LN10@SerializeE

; 74   : 	{
; 75   : 		TYPE* pData;
; 76   : 		UINT_PTR nElementsLeft;
; 77   : 
; 78   : 		nElementsLeft = nCount;
; 79   : 		pData = pElements;
; 80   : 		while( nElementsLeft > 0 )

  00024	85 f6		 test	 esi, esi
  00026	74 31		 je	 SHORT $LN8@SerializeE
  00028	0f 1f 84 00 00
	00 00 00	 npad	 8
$LL5@SerializeE:

; 81   : 		{
; 82   : 			UINT nElementsToWrite;
; 83   : 
; 84   : 			nElementsToWrite = UINT(__min(nElementsLeft, INT_MAX/sizeof(TYPE)));

  00030	bb ff ff ff 1f	 mov	 ebx, 536870911		; 1fffffffH
  00035	3b f3		 cmp	 esi, ebx
  00037	0f 42 de	 cmovb	 ebx, esi

; 85   : 			ar.Write(pData, nElementsToWrite*sizeof(TYPE));

  0003a	8d 3c 9d 00 00
	00 00		 lea	 edi, DWORD PTR [ebx*4]
  00041	57		 push	 edi
  00042	51		 push	 ecx
  00043	8b ca		 mov	 ecx, edx
  00045	e8 00 00 00 00	 call	 ?Write@CArchive@@QAEXPBXI@Z ; CArchive::Write

; 86   : 			nElementsLeft -= nElementsToWrite;
; 87   : 			pData += nElementsToWrite;

  0004a	8b 4d 0c	 mov	 ecx, DWORD PTR _pElements$[ebp]
  0004d	8b 55 08	 mov	 edx, DWORD PTR _ar$[ebp]
  00050	03 cf		 add	 ecx, edi
  00052	89 4d 0c	 mov	 DWORD PTR _pElements$[ebp], ecx
  00055	2b f3		 sub	 esi, ebx
  00057	75 d7		 jne	 SHORT $LL5@SerializeE
$LN8@SerializeE:
  00059	5f		 pop	 edi

; 105  : 		}
; 106  : 	}
; 107  : }

  0005a	5e		 pop	 esi
  0005b	5b		 pop	 ebx
  0005c	5d		 pop	 ebp
  0005d	c2 0c 00	 ret	 12			; 0000000cH
$LN10@SerializeE:

; 97   : 		while( nElementsLeft > 0 )

  00060	85 f6		 test	 esi, esi
  00062	74 f5		 je	 SHORT $LN8@SerializeE
$LL7@SerializeE:

; 98   : 		{
; 99   : 			UINT nElementsToRead;
; 100  : 
; 101  : 			nElementsToRead = UINT(__min(nElementsLeft, INT_MAX/sizeof(TYPE)));

  00064	bf ff ff ff 1f	 mov	 edi, 536870911		; 1fffffffH
  00069	3b f7		 cmp	 esi, edi
  0006b	0f 42 fe	 cmovb	 edi, esi

; 102  : 			ar.EnsureRead(pData, nElementsToRead*sizeof(TYPE));

  0006e	8d 1c bd 00 00
	00 00		 lea	 ebx, DWORD PTR [edi*4]
; File C:\Program Files (x86)\Microsoft Visual Studio\2019\Community\VC\Tools\MSVC\14.29.30133\atlmfc\include\afx.inl

; 399  : 	UINT nRead=Read(lpBuf, nCount);

  00075	53		 push	 ebx
  00076	51		 push	 ecx
  00077	8b ca		 mov	 ecx, edx
  00079	e8 00 00 00 00	 call	 ?Read@CArchive@@QAEIPAXI@Z ; CArchive::Read

; 400  : 	if(nRead!=nCount)

  0007e	3b c3		 cmp	 eax, ebx
  00080	75 16		 jne	 SHORT $LN23@SerializeE
; File C:\Program Files (x86)\Microsoft Visual Studio\2019\Community\VC\Tools\MSVC\14.29.30133\atlmfc\include\afxtempl.h

; 97   : 		while( nElementsLeft > 0 )

  00082	8b 4d 0c	 mov	 ecx, DWORD PTR _pElements$[ebp]
  00085	8b 55 08	 mov	 edx, DWORD PTR _ar$[ebp]

; 103  : 			nElementsLeft -= nElementsToRead;
; 104  : 			pData += nElementsToRead;

  00088	03 cb		 add	 ecx, ebx
  0008a	89 4d 0c	 mov	 DWORD PTR _pElements$[ebp], ecx
  0008d	2b f7		 sub	 esi, edi
  0008f	75 d3		 jne	 SHORT $LL7@SerializeE

; 105  : 		}
; 106  : 	}
; 107  : }

  00091	5f		 pop	 edi
  00092	5e		 pop	 esi
  00093	5b		 pop	 ebx
  00094	5d		 pop	 ebp
  00095	c2 0c 00	 ret	 12			; 0000000cH
$LN23@SerializeE:
; File C:\Program Files (x86)\Microsoft Visual Studio\2019\Community\VC\Tools\MSVC\14.29.30133\atlmfc\include\afx.inl

; 402  : 		AfxThrowArchiveException(CArchiveException::endOfFile);

  00098	6a 00		 push	 0
  0009a	6a 03		 push	 3
  0009c	e8 00 00 00 00	 call	 ?AfxThrowArchiveException@@YGXHPBD@Z ; AfxThrowArchiveException
$LN34@SerializeE:
; File C:\Program Files (x86)\Microsoft Visual Studio\2019\Community\VC\Tools\MSVC\14.29.30133\atlmfc\include\afxtempl.h

; 68   : 	ENSURE(nCount == 0 || pElements != NULL);

  000a1	e8 00 00 00 00	 call	 ?AfxThrowInvalidArgException@@YGXXZ ; AfxThrowInvalidArgException
$LN32@SerializeE:
  000a6	cc		 int	 3
??$SerializeElements@PAVCRscDlg@@@@YGXAAVCArchive@@PAPAVCRscDlg@@H@Z ENDP ; SerializeElements<CRscDlg *>
_TEXT	ENDS
; Function compile flags: /Ogtp
; File D:\git\src\IBK\IBK_DRFN\ProjSrc\SrcDrfn\Chart\STCONFIGUREDLG\DlgSTOption.cpp
;	COMDAT ??__ERMSG_STSAVETOUSERST@@YAXXZ
text$di	SEGMENT
??__ERMSG_STSAVETOUSERST@@YAXXZ PROC			; `dynamic initializer for 'RMSG_STSAVETOUSERST'', COMDAT

; 22   : const UINT RMSG_STSAVETOUSERST = ::RegisterWindowMessage("RMSG_STSAVETOUSERST");

  00000	68 00 00 00 00	 push	 OFFSET ??_C@_0BE@ODKFPHJE@RMSG_STSAVETOUSERST@
  00005	ff 15 00 00 00
	00		 call	 DWORD PTR __imp__RegisterWindowMessageA@4
  0000b	a3 00 00 00 00	 mov	 DWORD PTR ?RMSG_STSAVETOUSERST@@3IB, eax
  00010	c3		 ret	 0
??__ERMSG_STSAVETOUSERST@@YAXXZ ENDP			; `dynamic initializer for 'RMSG_STSAVETOUSERST''
text$di	ENDS
; Function compile flags: /Ogtp
; File D:\git\src\IBK\IBK_DRFN\ProjSrc\SrcDrfn\Chart\STCONFIGUREDLG\DlgSTOption.cpp
;	COMDAT ??__ERMSG_VERIFYSCRIPTNAME@@YAXXZ
text$di	SEGMENT
??__ERMSG_VERIFYSCRIPTNAME@@YAXXZ PROC			; `dynamic initializer for 'RMSG_VERIFYSCRIPTNAME'', COMDAT

; 21   : const UINT RMSG_VERIFYSCRIPTNAME = ::RegisterWindowMessage("RMSG_VERIFYSCRIPTNAME");// when user Kills focus at Name control, send it...

  00000	68 00 00 00 00	 push	 OFFSET ??_C@_0BG@OOPLPPOA@RMSG_VERIFYSCRIPTNAME@
  00005	ff 15 00 00 00
	00		 call	 DWORD PTR __imp__RegisterWindowMessageA@4
  0000b	a3 00 00 00 00	 mov	 DWORD PTR ?RMSG_VERIFYSCRIPTNAME@@3IB, eax
  00010	c3		 ret	 0
??__ERMSG_VERIFYSCRIPTNAME@@YAXXZ ENDP			; `dynamic initializer for 'RMSG_VERIFYSCRIPTNAME''
text$di	ENDS
; Function compile flags: /Ogtp
; File D:\git\src\IBK\IBK_DRFN\ProjSrc\SrcDrfn\Chart\STCONFIGUREDLG\DlgSTOption.cpp
;	COMDAT ??__ERMSG_STCONFIGURENAME@@YAXXZ
text$di	SEGMENT
??__ERMSG_STCONFIGURENAME@@YAXXZ PROC			; `dynamic initializer for 'RMSG_STCONFIGURENAME'', COMDAT

; 20   : const UINT RMSG_STCONFIGURENAME = ::RegisterWindowMessage("RMSG_STCONFIGURENAME");// when user clicks OK or Cancel, send it...

  00000	68 00 00 00 00	 push	 OFFSET ??_C@_0BF@PGCFFKKJ@RMSG_STCONFIGURENAME@
  00005	ff 15 00 00 00
	00		 call	 DWORD PTR __imp__RegisterWindowMessageA@4
  0000b	a3 00 00 00 00	 mov	 DWORD PTR ?RMSG_STCONFIGURENAME@@3IB, eax
  00010	c3		 ret	 0
??__ERMSG_STCONFIGURENAME@@YAXXZ ENDP			; `dynamic initializer for 'RMSG_STCONFIGURENAME''
text$di	ENDS
; Function compile flags: /Ogtp
; File C:\Program Files (x86)\Microsoft Visual Studio\2019\Community\VC\Tools\MSVC\14.29.30133\atlmfc\include\afxwin1.inl
; File C:\Program Files (x86)\Microsoft Visual Studio\2019\Community\VC\Tools\MSVC\14.29.30133\atlmfc\include\afxtempl.h
; File C:\Program Files (x86)\Microsoft Visual Studio\2019\Community\VC\Tools\MSVC\14.29.30133\atlmfc\include\afx.inl
;	COMDAT ??_GCDlgSTOption@@UAEPAXI@Z
_TEXT	SEGMENT
___flags$ = 8						; size = 4
??_GCDlgSTOption@@UAEPAXI@Z PROC			; CDlgSTOption::`scalar deleting destructor', COMDAT
; _this$ = ecx
  00000	55		 push	 ebp
  00001	8b ec		 mov	 ebp, esp
; File C:\Program Files (x86)\Microsoft Visual Studio\2019\Community\VC\Tools\MSVC\14.29.30133\atlmfc\include\afxwin1.inl

; 130  : 	{ }

  00003	56		 push	 esi
  00004	8b f1		 mov	 esi, ecx
  00006	8d 8e 00 05 00
	00		 lea	 ecx, DWORD PTR [esi+1280]
  0000c	ff 15 00 00 00
	00		 call	 DWORD PTR __imp_??1?$CStringT@DV?$StrTraitMFC_DLL@DV?$ChTraitsCRT@D@ATL@@@@@ATL@@QAE@XZ
  00012	8d 8e f0 04 00
	00		 lea	 ecx, DWORD PTR [esi+1264]
  00018	c7 01 00 00 00
	00		 mov	 DWORD PTR [ecx], OFFSET ??_7CBrush@@6B@
  0001e	e8 00 00 00 00	 call	 ??1CGdiObject@@UAE@XZ	; CGdiObject::~CGdiObject
  00023	8d 8e e4 04 00
	00		 lea	 ecx, DWORD PTR [esi+1252]
  00029	ff 15 00 00 00
	00		 call	 DWORD PTR __imp_??1?$CStringT@DV?$StrTraitMFC_DLL@DV?$ChTraitsCRT@D@ATL@@@@@ATL@@QAE@XZ
  0002f	8d 8e d4 04 00
	00		 lea	 ecx, DWORD PTR [esi+1236]
  00035	ff 15 00 00 00
	00		 call	 DWORD PTR __imp_??1?$CStringT@DV?$StrTraitMFC_DLL@DV?$ChTraitsCRT@D@ATL@@@@@ATL@@QAE@XZ
  0003b	8d 8e d0 04 00
	00		 lea	 ecx, DWORD PTR [esi+1232]
  00041	ff 15 00 00 00
	00		 call	 DWORD PTR __imp_??1?$CStringT@DV?$StrTraitMFC_DLL@DV?$ChTraitsCRT@D@ATL@@@@@ATL@@QAE@XZ
  00047	8d 8e cc 04 00
	00		 lea	 ecx, DWORD PTR [esi+1228]
  0004d	ff 15 00 00 00
	00		 call	 DWORD PTR __imp_??1?$CStringT@DV?$StrTraitMFC_DLL@DV?$ChTraitsCRT@D@ATL@@@@@ATL@@QAE@XZ
  00053	8d 8e c4 04 00
	00		 lea	 ecx, DWORD PTR [esi+1220]
  00059	ff 15 00 00 00
	00		 call	 DWORD PTR __imp_??1?$CStringT@DV?$StrTraitMFC_DLL@DV?$ChTraitsCRT@D@ATL@@@@@ATL@@QAE@XZ
; File C:\Program Files (x86)\Microsoft Visual Studio\2019\Community\VC\Tools\MSVC\14.29.30133\atlmfc\include\afxtempl.h

; 358  : 	if (m_pData != NULL)

  0005f	8b 86 ac 04 00
	00		 mov	 eax, DWORD PTR [esi+1196]
  00065	c7 86 a8 04 00
	00 00 00 00 00	 mov	 DWORD PTR [esi+1192], OFFSET ??_7?$CArray@PAVCRscDlg@@PAV1@@@6B@
  0006f	85 c0		 test	 eax, eax
  00071	74 13		 je	 SHORT $LN17@scalar

; 359  : 	{
; 360  : 		for( int i = 0; i < m_nSize; i++ )

  00073	83 be b0 04 00
	00 00		 cmp	 DWORD PTR [esi+1200], 0
  0007a	0f 4f c0	 cmovg	 eax, eax

; 361  : 			(m_pData + i)->~TYPE();
; 362  : 		delete[] (BYTE*)m_pData;

  0007d	50		 push	 eax
  0007e	e8 00 00 00 00	 call	 ??_V@YAXPAX@Z		; operator delete[]
  00083	83 c4 04	 add	 esp, 4
$LN17@scalar:
  00086	8d 8e a0 03 00
	00		 lea	 ecx, DWORD PTR [esi+928]
  0008c	e8 00 00 00 00	 call	 ??1CXTabCtrl@@UAE@XZ	; CXTabCtrl::~CXTabCtrl
  00091	8d 8e 28 02 00
	00		 lea	 ecx, DWORD PTR [esi+552]
  00097	e8 00 00 00 00	 call	 ??1CxSkinButton@@UAE@XZ	; CxSkinButton::~CxSkinButton
  0009c	8d 8e b0 00 00
	00		 lea	 ecx, DWORD PTR [esi+176]
  000a2	e8 00 00 00 00	 call	 ??1CxSkinButton@@UAE@XZ	; CxSkinButton::~CxSkinButton
  000a7	8d 8e ac 00 00
	00		 lea	 ecx, DWORD PTR [esi+172]
  000ad	ff 15 00 00 00
	00		 call	 DWORD PTR __imp_??1?$CStringT@DV?$StrTraitMFC_DLL@DV?$ChTraitsCRT@D@ATL@@@@@ATL@@QAE@XZ
  000b3	8d 8e a8 00 00
	00		 lea	 ecx, DWORD PTR [esi+168]
  000b9	ff 15 00 00 00
	00		 call	 DWORD PTR __imp_??1?$CStringT@DV?$StrTraitMFC_DLL@DV?$ChTraitsCRT@D@ATL@@@@@ATL@@QAE@XZ
  000bf	8b ce		 mov	 ecx, esi
  000c1	e8 00 00 00 00	 call	 ??1CDialog@@UAE@XZ	; CDialog::~CDialog
  000c6	8b 45 08	 mov	 eax, DWORD PTR ___flags$[ebp]
  000c9	a8 01		 test	 al, 1
  000cb	74 22		 je	 SHORT $LN29@scalar
  000cd	a8 04		 test	 al, 4
  000cf	75 10		 jne	 SHORT $LN3@scalar
; File C:\Program Files (x86)\Microsoft Visual Studio\2019\Community\VC\Tools\MSVC\14.29.30133\atlmfc\include\afx.inl

; 112  : 	{ ::operator delete(p); }

  000d1	56		 push	 esi
  000d2	e8 00 00 00 00	 call	 ??3@YAXPAX@Z		; operator delete
  000d7	83 c4 04	 add	 esp, 4
  000da	8b c6		 mov	 eax, esi
  000dc	5e		 pop	 esi
  000dd	5d		 pop	 ebp
  000de	c2 04 00	 ret	 4
$LN3@scalar:
  000e1	68 08 05 00 00	 push	 1288			; 00000508H
  000e6	56		 push	 esi
  000e7	e8 00 00 00 00	 call	 ?__global_delete@@YAXPAXI@Z ; __global_delete
  000ec	83 c4 08	 add	 esp, 8
$LN29@scalar:
  000ef	8b c6		 mov	 eax, esi
  000f1	5e		 pop	 esi
  000f2	5d		 pop	 ebp
  000f3	c2 04 00	 ret	 4
??_GCDlgSTOption@@UAEPAXI@Z ENDP			; CDlgSTOption::`scalar deleting destructor'
_TEXT	ENDS
; Function compile flags: /Ogtp
; File D:\git\src\IBK\IBK_DRFN\ProjSrc\SrcDrfn\Chart\STCONFIGUREDLG\DlgSTOption.cpp
;	COMDAT ?GetMessageMap@CDlgSTOption@@MBEPBUAFX_MSGMAP@@XZ
_TEXT	SEGMENT
?GetMessageMap@CDlgSTOption@@MBEPBUAFX_MSGMAP@@XZ PROC	; CDlgSTOption::GetMessageMap, COMDAT
; _this$ = ecx

; 65   : BEGIN_MESSAGE_MAP(CDlgSTOption, CRscDlg)

  00000	b8 00 00 00 00	 mov	 eax, OFFSET ?messageMap@?1??GetThisMessageMap@CDlgSTOption@@KGPBUAFX_MSGMAP@@XZ@4U3@B
  00005	c3		 ret	 0
?GetMessageMap@CDlgSTOption@@MBEPBUAFX_MSGMAP@@XZ ENDP	; CDlgSTOption::GetMessageMap
_TEXT	ENDS
; Function compile flags: /Ogtp
; File D:\git\src\IBK\IBK_DRFN\ProjSrc\SrcDrfn\Chart\STCONFIGUREDLG\DlgSTOption.cpp
;	COMDAT ?GetThisMessageMap@CDlgSTOption@@KGPBUAFX_MSGMAP@@XZ
_TEXT	SEGMENT
?GetThisMessageMap@CDlgSTOption@@KGPBUAFX_MSGMAP@@XZ PROC ; CDlgSTOption::GetThisMessageMap, COMDAT

; 66   : 	//{{AFX_MSG_MAP(CDlgSTOption)
; 67   : 	ON_WM_DESTROY()
; 68   : 	ON_WM_CTLCOLOR()
; 69   : 	//}}AFX_MSG_MAP
; 70   : END_MESSAGE_MAP()

  00000	b8 00 00 00 00	 mov	 eax, OFFSET ?messageMap@?1??GetThisMessageMap@CDlgSTOption@@KGPBUAFX_MSGMAP@@XZ@4U3@B
  00005	c3		 ret	 0
?GetThisMessageMap@CDlgSTOption@@KGPBUAFX_MSGMAP@@XZ ENDP ; CDlgSTOption::GetThisMessageMap
_TEXT	ENDS
; Function compile flags: /Ogtp
; File D:\git\src\IBK\IBK_DRFN\ProjSrc\SrcDrfn\Chart\STCONFIGUREDLG\DlgSTOption.cpp
; File C:\Program Files (x86)\Microsoft Visual Studio\2019\Community\VC\Tools\MSVC\14.29.30133\atlmfc\include\afxwin1.inl
; File D:\git\src\IBK\IBK_DRFN\ProjSrc\SrcDrfn\Chart\STCONFIGUREDLG\DlgSTOption.cpp
; File C:\Program Files (x86)\Microsoft Visual Studio\2019\Community\VC\Tools\MSVC\14.29.30133\atlmfc\include\afxwin1.inl
; File D:\git\src\IBK\IBK_DRFN\ProjSrc\SrcDrfn\Chart\STCONFIGUREDLG\DlgSTOption.cpp
;	COMDAT ?OnCtlColor@CDlgSTOption@@IAEPAUHBRUSH__@@PAVCDC@@PAVCWnd@@I@Z
_TEXT	SEGMENT
_pDC$ = 8						; size = 4
_pWnd$ = 12						; size = 4
_nCtlColor$ = 16					; size = 4
?OnCtlColor@CDlgSTOption@@IAEPAUHBRUSH__@@PAVCDC@@PAVCWnd@@I@Z PROC ; CDlgSTOption::OnCtlColor, COMDAT
; _this$ = ecx

; 496  : {

  00000	55		 push	 ebp
  00001	8b ec		 mov	 ebp, esp
  00003	53		 push	 ebx

; 497  : 	HBRUSH hbr = CRscDlg::OnCtlColor(pDC, pWnd, nCtlColor);

  00004	8b 5d 08	 mov	 ebx, DWORD PTR _pDC$[ebp]
  00007	56		 push	 esi
  00008	8b 75 10	 mov	 esi, DWORD PTR _nCtlColor$[ebp]
  0000b	57		 push	 edi
  0000c	56		 push	 esi
  0000d	ff 75 0c	 push	 DWORD PTR _pWnd$[ebp]
  00010	8b f9		 mov	 edi, ecx
  00012	53		 push	 ebx
  00013	e8 00 00 00 00	 call	 ?OnCtlColor@CWnd@@IAEPAUHBRUSH__@@PAVCDC@@PAV1@I@Z ; CWnd::OnCtlColor

; 498  : 	
; 499  : 	// TODO: Change any attributes of the DC here
; 500  : 	switch(nCtlColor) 

  00018	83 ee 01	 sub	 esi, 1
  0001b	74 26		 je	 SHORT $LN1@OnCtlColor
  0001d	83 ee 01	 sub	 esi, 1
  00020	74 21		 je	 SHORT $LN1@OnCtlColor

; 501  : 	{
; 502  : 	case CTLCOLOR_EDIT:
; 503  : 	case CTLCOLOR_LISTBOX:
; 504  : 		return hbr;
; 505  : 		break;
; 506  : 	default:
; 507  : 		pDC->SetBkColor(m_crBk);

  00022	8b 03		 mov	 eax, DWORD PTR [ebx]
  00024	8b cb		 mov	 ecx, ebx
  00026	ff b7 ec 04 00
	00		 push	 DWORD PTR [edi+1260]
  0002c	ff 50 34	 call	 DWORD PTR [eax+52]

; 508  : 		return m_brBkColor;		

  0002f	8d 87 f0 04 00
	00		 lea	 eax, DWORD PTR [edi+1264]
; File C:\Program Files (x86)\Microsoft Visual Studio\2019\Community\VC\Tools\MSVC\14.29.30133\atlmfc\include\afxwin1.inl

; 124  : 	{ return (HBRUSH)(this == NULL ? NULL : m_hObject); }

  00035	85 c0		 test	 eax, eax
  00037	75 07		 jne	 SHORT $LN10@OnCtlColor
; File D:\git\src\IBK\IBK_DRFN\ProjSrc\SrcDrfn\Chart\STCONFIGUREDLG\DlgSTOption.cpp

; 514  : }

  00039	5f		 pop	 edi
  0003a	5e		 pop	 esi
  0003b	5b		 pop	 ebx
  0003c	5d		 pop	 ebp
  0003d	c2 0c 00	 ret	 12			; 0000000cH
$LN10@OnCtlColor:
; File C:\Program Files (x86)\Microsoft Visual Studio\2019\Community\VC\Tools\MSVC\14.29.30133\atlmfc\include\afxwin1.inl

; 124  : 	{ return (HBRUSH)(this == NULL ? NULL : m_hObject); }

  00040	8b 40 04	 mov	 eax, DWORD PTR [eax+4]
$LN1@OnCtlColor:
  00043	5f		 pop	 edi
; File D:\git\src\IBK\IBK_DRFN\ProjSrc\SrcDrfn\Chart\STCONFIGUREDLG\DlgSTOption.cpp

; 514  : }

  00044	5e		 pop	 esi
  00045	5b		 pop	 ebx
  00046	5d		 pop	 ebp
  00047	c2 0c 00	 ret	 12			; 0000000cH
?OnCtlColor@CDlgSTOption@@IAEPAUHBRUSH__@@PAVCDC@@PAVCWnd@@I@Z ENDP ; CDlgSTOption::OnCtlColor
_TEXT	ENDS
; Function compile flags: /Ogtp
; File D:\git\src\IBK\IBK_DRFN\ProjSrc\SrcDrfn\Chart\STCONFIGUREDLG\DlgSTOption.cpp
;	COMDAT ?OnCancel@CDlgSTOption@@MAEXXZ
_TEXT	SEGMENT
$T1 = -4						; size = 4
?OnCancel@CDlgSTOption@@MAEXXZ PROC			; CDlgSTOption::OnCancel, COMDAT
; _this$ = ecx

; 333  : {

  00000	55		 push	 ebp
  00001	8b ec		 mov	 ebp, esp
  00003	51		 push	 ecx
  00004	56		 push	 esi
  00005	8b f1		 mov	 esi, ecx

; 217  : 	if(m_pSTControllerD)

  00007	8b 8e bc 04 00
	00		 mov	 ecx, DWORD PTR [esi+1212]
  0000d	85 c9		 test	 ecx, ecx
  0000f	74 0b		 je	 SHORT $LN5@OnCancel

; 218  : 	{
; 219  : 		return m_pSTControllerD->GetSfgPath();

  00011	8b 01		 mov	 eax, DWORD PTR [ecx]
  00013	8d 55 fc	 lea	 edx, DWORD PTR $T1[ebp]
  00016	52		 push	 edx
  00017	ff 50 28	 call	 DWORD PTR [eax+40]
  0001a	eb 10		 jmp	 SHORT $LN4@OnCancel
$LN5@OnCancel:

; 220  : 	}
; 221  : 	return m_strSfgName;

  0001c	8d 86 c4 04 00
	00		 lea	 eax, DWORD PTR [esi+1220]
  00022	50		 push	 eax
  00023	8d 4d fc	 lea	 ecx, DWORD PTR $T1[ebp]
  00026	ff 15 00 00 00
	00		 call	 DWORD PTR __imp_??0?$CStringT@DV?$StrTraitMFC_DLL@DV?$ChTraitsCRT@D@ATL@@@@@ATL@@QAE@ABV01@@Z
$LN4@OnCancel:

; 334  : 	// TODO: Add extra cleanup here
; 335  : 	::SendMessage(m_hParentUsr,RMSG_STCONFIGURENAME,(WPARAM)(LPCTSTR)GetSfgPath(),0);

  0002c	6a 00		 push	 0
  0002e	ff 75 fc	 push	 DWORD PTR $T1[ebp]
  00031	ff 35 00 00 00
	00		 push	 DWORD PTR ?RMSG_STCONFIGURENAME@@3IB
  00037	ff b6 e8 04 00
	00		 push	 DWORD PTR [esi+1256]
  0003d	ff 15 00 00 00
	00		 call	 DWORD PTR __imp__SendMessageA@16
  00043	8d 4d fc	 lea	 ecx, DWORD PTR $T1[ebp]
  00046	ff 15 00 00 00
	00		 call	 DWORD PTR __imp_??1?$CStringT@DV?$StrTraitMFC_DLL@DV?$ChTraitsCRT@D@ATL@@@@@ATL@@QAE@XZ

; 336  : 	CRscDlg::OnCancel();

  0004c	8b ce		 mov	 ecx, esi
  0004e	e8 00 00 00 00	 call	 ?OnCancel@CDialog@@MAEXXZ ; CDialog::OnCancel
  00053	5e		 pop	 esi

; 337  : }

  00054	8b e5		 mov	 esp, ebp
  00056	5d		 pop	 ebp
  00057	c3		 ret	 0
?OnCancel@CDlgSTOption@@MAEXXZ ENDP			; CDlgSTOption::OnCancel
_TEXT	ENDS
; Function compile flags: /Ogtp
; File D:\git\src\IBK\IBK_DRFN\ProjSrc\SrcDrfn\Chart\STCONFIGUREDLG\DlgSTOption.cpp
;	COMDAT ?OnOK@CDlgSTOption@@MAEXXZ
_TEXT	SEGMENT
_strName$2 = -20					; size = 4
_strSfgPath$3 = -16					; size = 4
_strSfgPath$4 = -16					; size = 4
__$EHRec$ = -12						; size = 12
?OnOK@CDlgSTOption@@MAEXXZ PROC				; CDlgSTOption::OnOK, COMDAT
; _this$ = ecx

; 378  : {

  00000	55		 push	 ebp
  00001	8b ec		 mov	 ebp, esp
  00003	6a ff		 push	 -1
  00005	68 00 00 00 00	 push	 __ehhandler$?OnOK@CDlgSTOption@@MAEXXZ
  0000a	64 a1 00 00 00
	00		 mov	 eax, DWORD PTR fs:0
  00010	50		 push	 eax
  00011	83 ec 08	 sub	 esp, 8
  00014	56		 push	 esi
  00015	a1 00 00 00 00	 mov	 eax, DWORD PTR ___security_cookie
  0001a	33 c5		 xor	 eax, ebp
  0001c	50		 push	 eax
  0001d	8d 45 f4	 lea	 eax, DWORD PTR __$EHRec$[ebp]
  00020	64 a3 00 00 00
	00		 mov	 DWORD PTR fs:0, eax
  00026	8b f1		 mov	 esi, ecx

; 379  : 	// TODO: Add extra validation here
; 380  : 	if(m_nType==1||m_nType==2)

  00028	8b 86 c8 04 00
	00		 mov	 eax, DWORD PTR [esi+1224]
  0002e	83 f8 01	 cmp	 eax, 1
  00031	74 65		 je	 SHORT $LN4@OnOK
  00033	83 f8 02	 cmp	 eax, 2
  00036	74 60		 je	 SHORT $LN4@OnOK

; 397  : 	else
; 398  : 	{
; 399  : 		SaveConfig();

  00038	e8 00 00 00 00	 call	 ?SaveConfig@CDlgSTOption@@QAEXXZ ; CDlgSTOption::SaveConfig

; 217  : 	if(m_pSTControllerD)

  0003d	8b 8e bc 04 00
	00		 mov	 ecx, DWORD PTR [esi+1212]
  00043	85 c9		 test	 ecx, ecx
  00045	74 0b		 je	 SHORT $LN21@OnOK

; 218  : 	{
; 219  : 		return m_pSTControllerD->GetSfgPath();

  00047	8b 01		 mov	 eax, DWORD PTR [ecx]
  00049	8d 55 f0	 lea	 edx, DWORD PTR _strSfgPath$3[ebp]
  0004c	52		 push	 edx
  0004d	ff 50 28	 call	 DWORD PTR [eax+40]
  00050	eb 10		 jmp	 SHORT $LN20@OnOK
$LN21@OnOK:

; 220  : 	}
; 221  : 	return m_strSfgName;

  00052	8d 86 c4 04 00
	00		 lea	 eax, DWORD PTR [esi+1220]
  00058	50		 push	 eax
  00059	8d 4d f0	 lea	 ecx, DWORD PTR _strSfgPath$3[ebp]
  0005c	ff 15 00 00 00
	00		 call	 DWORD PTR __imp_??0?$CStringT@DV?$StrTraitMFC_DLL@DV?$ChTraitsCRT@D@ATL@@@@@ATL@@QAE@ABV01@@Z
$LN20@OnOK:

; 400  : 		CString strSfgPath = GetSfgPath();
; 401  : 		strSfgPath.MakeUpper();

  00062	8d 4d f0	 lea	 ecx, DWORD PTR _strSfgPath$3[ebp]
  00065	c7 45 fc 02 00
	00 00		 mov	 DWORD PTR __$EHRec$[ebp+8], 2
  0006c	ff 15 00 00 00
	00		 call	 DWORD PTR __imp_?MakeUpper@?$CStringT@DV?$StrTraitMFC_DLL@DV?$ChTraitsCRT@D@ATL@@@@@ATL@@QAEAAV12@XZ

; 402  : 		::SendMessage(m_hParentUsr,RMSG_STCONFIGURENAME,(WPARAM)(LPCTSTR)strSfgPath,1);

  00072	6a 01		 push	 1
  00074	ff 75 f0	 push	 DWORD PTR _strSfgPath$3[ebp]
  00077	ff 35 00 00 00
	00		 push	 DWORD PTR ?RMSG_STCONFIGURENAME@@3IB
  0007d	ff b6 e8 04 00
	00		 push	 DWORD PTR [esi+1256]
  00083	ff 15 00 00 00
	00		 call	 DWORD PTR __imp__SendMessageA@16

; 403  : 		CRscDlg::OnOK();

  00089	8b ce		 mov	 ecx, esi
  0008b	e8 00 00 00 00	 call	 ?OnOK@CDialog@@MAEXXZ	; CDialog::OnOK

; 404  : 	}

  00090	8d 4d f0	 lea	 ecx, DWORD PTR _strSfgPath$3[ebp]
  00093	e9 ab 00 00 00	 jmp	 $LN28@OnOK
$LN4@OnOK:

; 381  : 	{
; 382  : 		CString strName;

  00098	8d 4d ec	 lea	 ecx, DWORD PTR _strName$2[ebp]
  0009b	ff 15 00 00 00
	00		 call	 DWORD PTR __imp_??0?$CStringT@DV?$StrTraitMFC_DLL@DV?$ChTraitsCRT@D@ATL@@@@@ATL@@QAE@XZ

; 383  : 		if(m_pTabBasic)

  000a1	8b 8e c0 04 00
	00		 mov	 ecx, DWORD PTR [esi+1216]
  000a7	c7 45 fc 00 00
	00 00		 mov	 DWORD PTR __$EHRec$[ebp+8], 0
  000ae	85 c9		 test	 ecx, ecx
  000b0	74 0f		 je	 SHORT $LN5@OnOK

; 384  : 		{
; 385  : 			m_pTabBasic->m_editName.GetWindowText(strName);

  000b2	8d 45 ec	 lea	 eax, DWORD PTR _strName$2[ebp]
  000b5	81 c1 b0 01 00
	00		 add	 ecx, 432		; 000001b0H
  000bb	50		 push	 eax
  000bc	e8 00 00 00 00	 call	 ?GetWindowTextA@CWnd@@QBEXAAV?$CStringT@DV?$StrTraitMFC_DLL@DV?$ChTraitsCRT@D@ATL@@@@@ATL@@@Z ; CWnd::GetWindowTextA
$LN5@OnOK:

; 386  : 		}	
; 387  : 		BOOL bRetValue = ::SendMessage(m_hParentUsr,RMSG_VERIFYSCRIPTNAME,m_nType,(LPARAM)(LPCTSTR)strName);

  000c1	ff 75 ec	 push	 DWORD PTR _strName$2[ebp]
  000c4	ff b6 c8 04 00
	00		 push	 DWORD PTR [esi+1224]
  000ca	ff 35 00 00 00
	00		 push	 DWORD PTR ?RMSG_VERIFYSCRIPTNAME@@3IB
  000d0	ff b6 e8 04 00
	00		 push	 DWORD PTR [esi+1256]
  000d6	ff 15 00 00 00
	00		 call	 DWORD PTR __imp__SendMessageA@16

; 388  : 		if(bRetValue) 

  000dc	85 c0		 test	 eax, eax
  000de	74 60		 je	 SHORT $LN6@OnOK

; 389  : 		{
; 390  : 			SaveConfig();

  000e0	8b ce		 mov	 ecx, esi
  000e2	e8 00 00 00 00	 call	 ?SaveConfig@CDlgSTOption@@QAEXXZ ; CDlgSTOption::SaveConfig

; 217  : 	if(m_pSTControllerD)

  000e7	8b 8e bc 04 00
	00		 mov	 ecx, DWORD PTR [esi+1212]
  000ed	85 c9		 test	 ecx, ecx
  000ef	74 0b		 je	 SHORT $LN14@OnOK

; 218  : 	{
; 219  : 		return m_pSTControllerD->GetSfgPath();

  000f1	8b 01		 mov	 eax, DWORD PTR [ecx]
  000f3	8d 55 f0	 lea	 edx, DWORD PTR _strSfgPath$4[ebp]
  000f6	52		 push	 edx
  000f7	ff 50 28	 call	 DWORD PTR [eax+40]
  000fa	eb 10		 jmp	 SHORT $LN13@OnOK
$LN14@OnOK:

; 220  : 	}
; 221  : 	return m_strSfgName;

  000fc	8d 86 c4 04 00
	00		 lea	 eax, DWORD PTR [esi+1220]
  00102	50		 push	 eax
  00103	8d 4d f0	 lea	 ecx, DWORD PTR _strSfgPath$4[ebp]
  00106	ff 15 00 00 00
	00		 call	 DWORD PTR __imp_??0?$CStringT@DV?$StrTraitMFC_DLL@DV?$ChTraitsCRT@D@ATL@@@@@ATL@@QAE@ABV01@@Z
$LN13@OnOK:

; 391  : 			CString strSfgPath = GetSfgPath();
; 392  : 			strSfgPath.MakeUpper();

  0010c	8d 4d f0	 lea	 ecx, DWORD PTR _strSfgPath$4[ebp]
  0010f	c6 45 fc 01	 mov	 BYTE PTR __$EHRec$[ebp+8], 1
  00113	ff 15 00 00 00
	00		 call	 DWORD PTR __imp_?MakeUpper@?$CStringT@DV?$StrTraitMFC_DLL@DV?$ChTraitsCRT@D@ATL@@@@@ATL@@QAEAAV12@XZ

; 393  : 			::SendMessage(m_hParentUsr,RMSG_STCONFIGURENAME,(WPARAM)(LPCTSTR)strSfgPath,1);

  00119	6a 01		 push	 1
  0011b	ff 75 f0	 push	 DWORD PTR _strSfgPath$4[ebp]
  0011e	ff 35 00 00 00
	00		 push	 DWORD PTR ?RMSG_STCONFIGURENAME@@3IB
  00124	ff b6 e8 04 00
	00		 push	 DWORD PTR [esi+1256]
  0012a	ff 15 00 00 00
	00		 call	 DWORD PTR __imp__SendMessageA@16

; 394  : 			CRscDlg::OnOK();

  00130	8b ce		 mov	 ecx, esi
  00132	e8 00 00 00 00	 call	 ?OnOK@CDialog@@MAEXXZ	; CDialog::OnOK

; 395  : 		}

  00137	8d 4d f0	 lea	 ecx, DWORD PTR _strSfgPath$4[ebp]
  0013a	ff 15 00 00 00
	00		 call	 DWORD PTR __imp_??1?$CStringT@DV?$StrTraitMFC_DLL@DV?$ChTraitsCRT@D@ATL@@@@@ATL@@QAE@XZ
$LN6@OnOK:

; 396  : 	}

  00140	8d 4d ec	 lea	 ecx, DWORD PTR _strName$2[ebp]
$LN28@OnOK:

; 405  : }

  00143	ff 15 00 00 00
	00		 call	 DWORD PTR __imp_??1?$CStringT@DV?$StrTraitMFC_DLL@DV?$ChTraitsCRT@D@ATL@@@@@ATL@@QAE@XZ
  00149	8b 4d f4	 mov	 ecx, DWORD PTR __$EHRec$[ebp]
  0014c	64 89 0d 00 00
	00 00		 mov	 DWORD PTR fs:0, ecx
  00153	59		 pop	 ecx
  00154	5e		 pop	 esi
  00155	8b e5		 mov	 esp, ebp
  00157	5d		 pop	 ebp
  00158	c3		 ret	 0
_TEXT	ENDS
;	COMDAT text$x
text$x	SEGMENT
__unwindfunclet$?OnOK@CDlgSTOption@@MAEXXZ$2:
  00000	8d 4d f0	 lea	 ecx, DWORD PTR _strSfgPath$3[ebp]
  00003	ff 25 00 00 00
	00		 jmp	 DWORD PTR __imp_??1?$CStringT@DV?$StrTraitMFC_DLL@DV?$ChTraitsCRT@D@ATL@@@@@ATL@@QAE@XZ
__unwindfunclet$?OnOK@CDlgSTOption@@MAEXXZ$0:
  00009	8d 4d ec	 lea	 ecx, DWORD PTR _strName$2[ebp]
  0000c	ff 25 00 00 00
	00		 jmp	 DWORD PTR __imp_??1?$CStringT@DV?$StrTraitMFC_DLL@DV?$ChTraitsCRT@D@ATL@@@@@ATL@@QAE@XZ
__unwindfunclet$?OnOK@CDlgSTOption@@MAEXXZ$1:
  00012	8d 4d f0	 lea	 ecx, DWORD PTR _strSfgPath$4[ebp]
  00015	ff 25 00 00 00
	00		 jmp	 DWORD PTR __imp_??1?$CStringT@DV?$StrTraitMFC_DLL@DV?$ChTraitsCRT@D@ATL@@@@@ATL@@QAE@XZ
  0001b	cc		 int	 3
  0001c	cc		 int	 3
  0001d	cc		 int	 3
  0001e	cc		 int	 3
  0001f	cc		 int	 3
__ehhandler$?OnOK@CDlgSTOption@@MAEXXZ:
  00020	90		 npad	 1
  00021	90		 npad	 1
  00022	8b 54 24 08	 mov	 edx, DWORD PTR [esp+8]
  00026	8d 42 0c	 lea	 eax, DWORD PTR [edx+12]
  00029	8b 4a f0	 mov	 ecx, DWORD PTR [edx-16]
  0002c	33 c8		 xor	 ecx, eax
  0002e	e8 00 00 00 00	 call	 @__security_check_cookie@4
  00033	b8 00 00 00 00	 mov	 eax, OFFSET __ehfuncinfo$?OnOK@CDlgSTOption@@MAEXXZ
  00038	e9 00 00 00 00	 jmp	 ___CxxFrameHandler3
text$x	ENDS
?OnOK@CDlgSTOption@@MAEXXZ ENDP				; CDlgSTOption::OnOK
; Function compile flags: /Ogtp
; File D:\git\src\IBK\IBK_DRFN\ProjSrc\SrcDrfn\Chart\STCONFIGUREDLG\DlgSTOption.cpp
; File C:\Program Files (x86)\Microsoft Visual Studio\2019\Community\VC\Tools\MSVC\14.29.30133\atlmfc\include\afxtempl.h
; File D:\git\src\IBK\IBK_DRFN\ProjSrc\SrcDrfn\Chart\STCONFIGUREDLG\DlgSTOption.cpp
; File C:\Program Files (x86)\Microsoft Visual Studio\2019\Community\VC\Tools\MSVC\14.29.30133\atlmfc\include\afxtempl.h
; File D:\git\src\IBK\IBK_DRFN\ProjSrc\SrcDrfn\Chart\STCONFIGUREDLG\DlgSTOption.cpp
; File C:\Program Files (x86)\Microsoft Visual Studio\2019\Community\VC\Tools\MSVC\14.29.30133\atlmfc\include\afxtempl.h
; File D:\git\src\IBK\IBK_DRFN\ProjSrc\SrcDrfn\Chart\STCONFIGUREDLG\DlgSTOption.cpp
;	COMDAT ?OnDestroy@CDlgSTOption@@IAEXXZ
_TEXT	SEGMENT
_nSize$1$ = -4						; size = 4
?OnDestroy@CDlgSTOption@@IAEXXZ PROC			; CDlgSTOption::OnDestroy, COMDAT
; _this$ = ecx

; 192  : {

  00000	55		 push	 ebp
  00001	8b ec		 mov	 ebp, esp
  00003	51		 push	 ecx
  00004	53		 push	 ebx
  00005	56		 push	 esi
  00006	8b f1		 mov	 esi, ecx

; 193  : 	CRscDlg::OnDestroy();

  00008	e8 00 00 00 00	 call	 ?OnDestroy@CWnd@@IAEXXZ	; CWnd::OnDestroy

; 194  : 	
; 195  : 	// TODO: Add your message handler code here
; 196  : 	m_brBkColor.DeleteObject();

  0000d	8d 8e f0 04 00
	00		 lea	 ecx, DWORD PTR [esi+1264]
  00013	e8 00 00 00 00	 call	 ?DeleteObject@CGdiObject@@QAEHXZ ; CGdiObject::DeleteObject

; 197  : 	CRscDlg *pTabDlg = NULL;
; 198  : 	int nSize = m_arrayTab.GetSize();

  00018	8b 86 b0 04 00
	00		 mov	 eax, DWORD PTR [esi+1200]

; 199  : 	for(int nPos=0;nPos<nSize;nPos++)

  0001e	33 db		 xor	 ebx, ebx
  00020	89 45 fc	 mov	 DWORD PTR _nSize$1$[ebp], eax
  00023	85 c0		 test	 eax, eax
  00025	7e 35		 jle	 SHORT $LN3@OnDestroy
  00027	57		 push	 edi
$LL4@OnDestroy:
; File C:\Program Files (x86)\Microsoft Visual Studio\2019\Community\VC\Tools\MSVC\14.29.30133\atlmfc\include\afxtempl.h

; 288  : 	if(nIndex >= 0 && nIndex < m_nSize)

  00028	85 db		 test	 ebx, ebx
  0002a	0f 88 8d 00 00
	00		 js	 $LN12@OnDestroy
  00030	3b 9e b0 04 00
	00		 cmp	 ebx, DWORD PTR [esi+1200]
  00036	0f 8d 81 00 00
	00		 jge	 $LN12@OnDestroy
; File D:\git\src\IBK\IBK_DRFN\ProjSrc\SrcDrfn\Chart\STCONFIGUREDLG\DlgSTOption.cpp

; 201  : 		pTabDlg = m_arrayTab.GetAt(nPos);

  0003c	8b 86 ac 04 00
	00		 mov	 eax, DWORD PTR [esi+1196]
  00042	8b 3c 98	 mov	 edi, DWORD PTR [eax+ebx*4]

; 202  : 		pTabDlg->DestroyWindow();

  00045	8b cf		 mov	 ecx, edi
  00047	8b 07		 mov	 eax, DWORD PTR [edi]
  00049	ff 50 68	 call	 DWORD PTR [eax+104]

; 203  : 		delete pTabDlg;

  0004c	8b 07		 mov	 eax, DWORD PTR [edi]
  0004e	8b cf		 mov	 ecx, edi
  00050	6a 01		 push	 1
  00052	ff 50 04	 call	 DWORD PTR [eax+4]
  00055	43		 inc	 ebx
  00056	3b 5d fc	 cmp	 ebx, DWORD PTR _nSize$1$[ebp]
  00059	7c cd		 jl	 SHORT $LL4@OnDestroy

; 199  : 	for(int nPos=0;nPos<nSize;nPos++)

  0005b	5f		 pop	 edi
$LN3@OnDestroy:
; File C:\Program Files (x86)\Microsoft Visual Studio\2019\Community\VC\Tools\MSVC\14.29.30133\atlmfc\include\afxtempl.h

; 381  : 		if (m_pData != NULL)

  0005c	8b 86 ac 04 00
	00		 mov	 eax, DWORD PTR [esi+1196]
  00062	85 c0		 test	 eax, eax
  00064	74 13		 je	 SHORT $LN37@OnDestroy

; 382  : 		{
; 383  : 			for( int i = 0; i < m_nSize; i++ )
; 384  : 				(m_pData + i)->~TYPE();
; 385  : 			delete[] (BYTE*)m_pData;

  00066	50		 push	 eax
  00067	e8 00 00 00 00	 call	 ??_V@YAXPAX@Z		; operator delete[]
  0006c	83 c4 04	 add	 esp, 4

; 386  : 			m_pData = NULL;

  0006f	c7 86 ac 04 00
	00 00 00 00 00	 mov	 DWORD PTR [esi+1196], 0
$LN37@OnDestroy:

; 387  : 		}
; 388  : 		m_nSize = m_nMaxSize = 0;

  00079	c7 86 b4 04 00
	00 00 00 00 00	 mov	 DWORD PTR [esi+1204], 0
  00083	c7 86 b0 04 00
	00 00 00 00 00	 mov	 DWORD PTR [esi+1200], 0
; File D:\git\src\IBK\IBK_DRFN\ProjSrc\SrcDrfn\Chart\STCONFIGUREDLG\DlgSTOption.cpp

; 207  : 	if(m_pSTConfig) {

  0008d	8b 8e f8 04 00
	00		 mov	 ecx, DWORD PTR [esi+1272]
  00093	85 c9		 test	 ecx, ecx
  00095	74 20		 je	 SHORT $LN5@OnDestroy

; 208  : 		m_pSTConfig->DestroyWindow();

  00097	8b 01		 mov	 eax, DWORD PTR [ecx]
  00099	ff 50 68	 call	 DWORD PTR [eax+104]

; 209  : 		delete m_pSTConfig;

  0009c	8b 8e f8 04 00
	00		 mov	 ecx, DWORD PTR [esi+1272]
  000a2	85 c9		 test	 ecx, ecx
  000a4	74 07		 je	 SHORT $LN9@OnDestroy
  000a6	8b 01		 mov	 eax, DWORD PTR [ecx]
  000a8	6a 01		 push	 1
  000aa	ff 50 04	 call	 DWORD PTR [eax+4]
$LN9@OnDestroy:

; 210  : 		m_pSTConfig = NULL;

  000ad	c7 86 f8 04 00
	00 00 00 00 00	 mov	 DWORD PTR [esi+1272], 0
$LN5@OnDestroy:
  000b7	5e		 pop	 esi

; 213  : }

  000b8	5b		 pop	 ebx
  000b9	8b e5		 mov	 esp, ebp
  000bb	5d		 pop	 ebp
  000bc	c3		 ret	 0
$LN12@OnDestroy:
; File C:\Program Files (x86)\Microsoft Visual Studio\2019\Community\VC\Tools\MSVC\14.29.30133\atlmfc\include\afxtempl.h

; 290  : 	AfxThrowInvalidArgException();

  000bd	e8 00 00 00 00	 call	 ?AfxThrowInvalidArgException@@YGXXZ ; AfxThrowInvalidArgException
$LN73@OnDestroy:
  000c2	cc		 int	 3
?OnDestroy@CDlgSTOption@@IAEXXZ ENDP			; CDlgSTOption::OnDestroy
_TEXT	ENDS
; Function compile flags: /Ogtp
; File D:\git\src\IBK\IBK_DRFN\ProjSrc\SrcDrfn\Chart\STCONFIGUREDLG\DlgSTOption.cpp
; File C:\Program Files (x86)\Microsoft Visual Studio\2019\Community\VC\Tools\MSVC\14.29.30133\atlmfc\include\afxwin1.inl
; File D:\git\src\IBK\IBK_DRFN\ProjSrc\SrcDrfn\Chart\STCONFIGUREDLG\DlgSTOption.cpp
; File C:\Program Files (x86)\Microsoft Visual Studio\2019\Community\VC\Tools\MSVC\14.29.30133\atlmfc\include\afxwin1.inl
; File D:\git\src\IBK\IBK_DRFN\ProjSrc\SrcDrfn\Chart\STCONFIGUREDLG\DlgSTOption.cpp
; File C:\Program Files (x86)\Microsoft Visual Studio\2019\Community\VC\Tools\MSVC\14.29.30133\atlmfc\include\afxwin2.inl
; File C:\Program Files (x86)\Microsoft Visual Studio\2019\Community\VC\Tools\MSVC\14.29.30133\atlmfc\include\atltypes.h
; File C:\Program Files (x86)\Microsoft Visual Studio\2019\Community\VC\Tools\MSVC\14.29.30133\atlmfc\include\afxwin2.inl
; File D:\git\src\IBK\IBK_DRFN\ProjSrc\SrcDrfn\Chart\STCONFIGUREDLG\DlgSTOption.cpp
; File C:\Program Files (x86)\Microsoft Visual Studio\2019\Community\VC\Tools\MSVC\14.29.30133\atlmfc\include\afxwin2.inl
; File D:\git\src\IBK\IBK_DRFN\ProjSrc\SrcDrfn\Chart\STCONFIGUREDLG\DlgSTOption.cpp
; File C:\Program Files (x86)\Microsoft Visual Studio\2019\Community\VC\Tools\MSVC\14.29.30133\atlmfc\include\afxwin2.inl
; File D:\git\src\IBK\IBK_DRFN\ProjSrc\SrcDrfn\Chart\STCONFIGUREDLG\DlgSTOption.cpp
; File C:\Program Files (x86)\Microsoft Visual Studio\2019\Community\VC\Tools\MSVC\14.29.30133\atlmfc\include\afxwin2.inl
; File D:\git\src\IBK\IBK_DRFN\ProjSrc\SrcDrfn\Chart\STCONFIGUREDLG\DlgSTOption.cpp
; File C:\Program Files (x86)\Microsoft Visual Studio\2019\Community\VC\Tools\MSVC\14.29.30133\atlmfc\include\afxwin2.inl
; File D:\git\src\IBK\IBK_DRFN\ProjSrc\SrcDrfn\Chart\STCONFIGUREDLG\DlgSTOption.cpp
; File C:\Program Files (x86)\Microsoft Visual Studio\2019\Community\VC\Tools\MSVC\14.29.30133\atlmfc\include\afxwin2.inl
; File D:\git\src\IBK\IBK_DRFN\ProjSrc\SrcDrfn\Chart\STCONFIGUREDLG\DlgSTOption.cpp
; File C:\Program Files (x86)\Microsoft Visual Studio\2019\Community\VC\Tools\MSVC\14.29.30133\atlmfc\include\afxwin2.inl
; File D:\git\src\IBK\IBK_DRFN\ProjSrc\SrcDrfn\Chart\STCONFIGUREDLG\DlgSTOption.cpp
; File C:\Program Files (x86)\Microsoft Visual Studio\2019\Community\VC\Tools\MSVC\14.29.30133\atlmfc\include\afx.inl
; File D:\git\src\IBK\IBK_DRFN\ProjSrc\SrcDrfn\Chart\STCONFIGUREDLG\DlgSTOption.cpp
; File C:\Program Files (x86)\Microsoft Visual Studio\2019\Community\VC\Tools\MSVC\14.29.30133\atlmfc\include\afx.inl
; File D:\git\src\IBK\IBK_DRFN\ProjSrc\SrcDrfn\Chart\STCONFIGUREDLG\DlgSTOption.cpp
; File C:\Program Files (x86)\Microsoft Visual Studio\2019\Community\VC\Tools\MSVC\14.29.30133\atlmfc\include\afxtempl.h
; File D:\git\src\IBK\IBK_DRFN\ProjSrc\SrcDrfn\Chart\STCONFIGUREDLG\DlgSTOption.cpp
; File C:\Program Files (x86)\Microsoft Visual Studio\2019\Community\VC\Tools\MSVC\14.29.30133\atlmfc\include\afxtempl.h
; File D:\git\src\IBK\IBK_DRFN\ProjSrc\SrcDrfn\Chart\STCONFIGUREDLG\DlgSTOption.cpp
; File C:\Program Files (x86)\Microsoft Visual Studio\2019\Community\VC\Tools\MSVC\14.29.30133\atlmfc\include\afx.inl
; File D:\git\src\IBK\IBK_DRFN\ProjSrc\SrcDrfn\Chart\STCONFIGUREDLG\DlgSTOption.cpp
; File C:\Program Files (x86)\Microsoft Visual Studio\2019\Community\VC\Tools\MSVC\14.29.30133\atlmfc\include\afxtempl.h
; File D:\git\src\IBK\IBK_DRFN\ProjSrc\SrcDrfn\Chart\STCONFIGUREDLG\DlgSTOption.cpp
; File C:\Program Files (x86)\Microsoft Visual Studio\2019\Community\VC\Tools\MSVC\14.29.30133\atlmfc\include\afxtempl.h
; File D:\git\src\IBK\IBK_DRFN\ProjSrc\SrcDrfn\Chart\STCONFIGUREDLG\DlgSTOption.cpp
; File C:\Program Files (x86)\Microsoft Visual Studio\2019\Community\VC\Tools\MSVC\14.29.30133\atlmfc\include\afx.inl
; File D:\git\src\IBK\IBK_DRFN\ProjSrc\SrcDrfn\Chart\STCONFIGUREDLG\DlgSTOption.cpp
; File C:\Program Files (x86)\Microsoft Visual Studio\2019\Community\VC\Tools\MSVC\14.29.30133\atlmfc\include\afxtempl.h
; File D:\git\src\IBK\IBK_DRFN\ProjSrc\SrcDrfn\Chart\STCONFIGUREDLG\DlgSTOption.cpp
; File C:\Program Files (x86)\Microsoft Visual Studio\2019\Community\VC\Tools\MSVC\14.29.30133\atlmfc\include\afxtempl.h
; File D:\git\src\IBK\IBK_DRFN\ProjSrc\SrcDrfn\Chart\STCONFIGUREDLG\DlgSTOption.cpp
; File C:\Program Files (x86)\Microsoft Visual Studio\2019\Community\VC\Tools\MSVC\14.29.30133\atlmfc\include\afx.inl
; File D:\git\src\IBK\IBK_DRFN\ProjSrc\SrcDrfn\Chart\STCONFIGUREDLG\DlgSTOption.cpp
; File C:\Program Files (x86)\Microsoft Visual Studio\2019\Community\VC\Tools\MSVC\14.29.30133\atlmfc\include\afxtempl.h
; File D:\git\src\IBK\IBK_DRFN\ProjSrc\SrcDrfn\Chart\STCONFIGUREDLG\DlgSTOption.cpp
; File C:\Program Files (x86)\Microsoft Visual Studio\2019\Community\VC\Tools\MSVC\14.29.30133\atlmfc\include\afxtempl.h
; File D:\git\src\IBK\IBK_DRFN\ProjSrc\SrcDrfn\Chart\STCONFIGUREDLG\DlgSTOption.cpp
; File C:\Program Files (x86)\Microsoft Visual Studio\2019\Community\VC\Tools\MSVC\14.29.30133\atlmfc\include\afx.inl
; File D:\git\src\IBK\IBK_DRFN\ProjSrc\SrcDrfn\Chart\STCONFIGUREDLG\DlgSTOption.cpp
; File C:\Program Files (x86)\Microsoft Visual Studio\2019\Community\VC\Tools\MSVC\14.29.30133\atlmfc\include\afxtempl.h
; File D:\git\src\IBK\IBK_DRFN\ProjSrc\SrcDrfn\Chart\STCONFIGUREDLG\DlgSTOption.cpp
; File C:\Program Files (x86)\Microsoft Visual Studio\2019\Community\VC\Tools\MSVC\14.29.30133\atlmfc\include\afxtempl.h
; File D:\git\src\IBK\IBK_DRFN\ProjSrc\SrcDrfn\Chart\STCONFIGUREDLG\DlgSTOption.cpp
; File C:\Program Files (x86)\Microsoft Visual Studio\2019\Community\VC\Tools\MSVC\14.29.30133\atlmfc\include\afx.inl
; File D:\git\src\IBK\IBK_DRFN\ProjSrc\SrcDrfn\Chart\STCONFIGUREDLG\DlgSTOption.cpp
; File C:\Program Files (x86)\Microsoft Visual Studio\2019\Community\VC\Tools\MSVC\14.29.30133\atlmfc\include\afxwin2.inl
; File C:\Program Files (x86)\Microsoft Visual Studio\2019\Community\VC\Tools\MSVC\14.29.30133\atlmfc\include\atltypes.h
; File C:\Program Files (x86)\Microsoft Visual Studio\2019\Community\VC\Tools\MSVC\14.29.30133\atlmfc\include\afxwin2.inl
; File D:\git\src\IBK\IBK_DRFN\ProjSrc\SrcDrfn\Chart\STCONFIGUREDLG\DlgSTOption.cpp
; File C:\Program Files (x86)\Microsoft Visual Studio\2019\Community\VC\Tools\MSVC\14.29.30133\atlmfc\include\afxwin2.inl
; File D:\git\src\IBK\IBK_DRFN\ProjSrc\SrcDrfn\Chart\STCONFIGUREDLG\DlgSTOption.cpp
; File C:\Program Files (x86)\Microsoft Visual Studio\2019\Community\VC\Tools\MSVC\14.29.30133\atlmfc\include\atltypes.h
; File D:\git\src\IBK\IBK_DRFN\ProjSrc\SrcDrfn\Chart\STCONFIGUREDLG\DlgSTOption.cpp
; File C:\Program Files (x86)\Microsoft Visual Studio\2019\Community\VC\Tools\MSVC\14.29.30133\atlmfc\include\atltypes.h
; File D:\git\src\IBK\IBK_DRFN\ProjSrc\SrcDrfn\Chart\STCONFIGUREDLG\DlgSTOption.cpp
; File C:\Program Files (x86)\Microsoft Visual Studio\2019\Community\VC\Tools\MSVC\14.29.30133\atlmfc\include\afxtempl.h
; File D:\git\src\IBK\IBK_DRFN\ProjSrc\SrcDrfn\Chart\STCONFIGUREDLG\DlgSTOption.cpp
;	COMDAT ?OnInitDialog@CDlgSTOption@@MAEHXZ
_TEXT	SEGMENT
_this$GSCopy$1$ = -56					; size = 4
_nIndex$1$ = -56					; size = 4
_nIndex$1$ = -52					; size = 4
_nIndex$1$ = -52					; size = 4
_nIndex$1$ = -52					; size = 4
_nIndex$1$ = -52					; size = 4
_newElement$1$ = -52					; size = 4
$T2 = -52						; size = 4
$T3 = -52						; size = 4
$T4 = -52						; size = 4
$T5 = -52						; size = 4
$T6 = -52						; size = 4
$T7 = -52						; size = 4
_rect$8 = -48						; size = 16
_rcDlg$9 = -32						; size = 16
__$ArrayPad$ = -16					; size = 4
__$EHRec$ = -12						; size = 12
?OnInitDialog@CDlgSTOption@@MAEHXZ PROC			; CDlgSTOption::OnInitDialog, COMDAT
; _this$ = ecx

; 76   : {

  00000	55		 push	 ebp
  00001	8b ec		 mov	 ebp, esp
  00003	6a ff		 push	 -1
  00005	68 00 00 00 00	 push	 __ehhandler$?OnInitDialog@CDlgSTOption@@MAEHXZ
  0000a	64 a1 00 00 00
	00		 mov	 eax, DWORD PTR fs:0
  00010	50		 push	 eax
  00011	83 ec 2c	 sub	 esp, 44			; 0000002cH
  00014	a1 00 00 00 00	 mov	 eax, DWORD PTR ___security_cookie
  00019	33 c5		 xor	 eax, ebp
  0001b	89 45 f0	 mov	 DWORD PTR __$ArrayPad$[ebp], eax
  0001e	53		 push	 ebx
  0001f	56		 push	 esi
  00020	57		 push	 edi
  00021	50		 push	 eax
  00022	8d 45 f4	 lea	 eax, DWORD PTR __$EHRec$[ebp]
  00025	64 a3 00 00 00
	00		 mov	 DWORD PTR fs:0, eax
  0002b	8b d9		 mov	 ebx, ecx
  0002d	89 5d c8	 mov	 DWORD PTR _this$GSCopy$1$[ebp], ebx

; 77   : 	CRscDlg::OnInitDialog();

  00030	e8 00 00 00 00	 call	 ?OnInitDialog@CDialog@@UAEHXZ ; CDialog::OnInitDialog
; File C:\Program Files (x86)\Microsoft Visual Studio\2019\Community\VC\Tools\MSVC\14.29.30133\atlmfc\include\afxwin1.inl

; 132  : 	{ return Attach(::CreateSolidBrush(crColor)); }

  00035	ff b3 ec 04 00
	00		 push	 DWORD PTR [ebx+1260]
; File D:\git\src\IBK\IBK_DRFN\ProjSrc\SrcDrfn\Chart\STCONFIGUREDLG\DlgSTOption.cpp

; 80   : 	m_brBkColor.CreateSolidBrush(m_crBk);

  0003b	8d b3 f0 04 00
	00		 lea	 esi, DWORD PTR [ebx+1264]
; File C:\Program Files (x86)\Microsoft Visual Studio\2019\Community\VC\Tools\MSVC\14.29.30133\atlmfc\include\afxwin1.inl

; 132  : 	{ return Attach(::CreateSolidBrush(crColor)); }

  00041	ff 15 00 00 00
	00		 call	 DWORD PTR __imp__CreateSolidBrush@4
  00047	50		 push	 eax
  00048	8b ce		 mov	 ecx, esi
  0004a	e8 00 00 00 00	 call	 ?Attach@CGdiObject@@QAEHPAX@Z ; CGdiObject::Attach
; File D:\git\src\IBK\IBK_DRFN\ProjSrc\SrcDrfn\Chart\STCONFIGUREDLG\DlgSTOption.cpp

; 81   : 	m_btOK.SetSkin(IDB_BITMAP_OKNOR,IDB_BITMAP_OKSEL,IDB_BITMAP_OKNOR,IDB_BITMAP_OKDIS);

  0004f	6a 04		 push	 4
  00051	6a 01		 push	 1
  00053	6a 01		 push	 1
  00055	6a 00		 push	 0
  00057	6a 00		 push	 0
  00059	68 4b 71 00 00	 push	 29003			; 0000714bH
  0005e	68 4c 71 00 00	 push	 29004			; 0000714cH
  00063	68 48 71 00 00	 push	 29000			; 00007148H
  00068	68 4c 71 00 00	 push	 29004			; 0000714cH
  0006d	8d 8b b0 00 00
	00		 lea	 ecx, DWORD PTR [ebx+176]
  00073	e8 00 00 00 00	 call	 ?SetSkin@CxSkinButton@@QAEXIIIIIIFFF@Z ; CxSkinButton::SetSkin

; 82   : 	m_btCancel.SetSkin(IDB_BITMAP_CANCELNOR,IDB_BITMAP_CANCELSEL,IDB_BITMAP_CANCELNOR,IDB_BITMAP_CANCELDIS);

  00078	6a 04		 push	 4
  0007a	6a 01		 push	 1
  0007c	6a 01		 push	 1
  0007e	6a 00		 push	 0
  00080	6a 00		 push	 0
  00082	68 4d 71 00 00	 push	 29005			; 0000714dH
  00087	68 49 71 00 00	 push	 29001			; 00007149H
  0008c	68 4a 71 00 00	 push	 29002			; 0000714aH
  00091	68 49 71 00 00	 push	 29001			; 00007149H
  00096	8d 8b 28 02 00
	00		 lea	 ecx, DWORD PTR [ebx+552]
  0009c	e8 00 00 00 00	 call	 ?SetSkin@CxSkinButton@@QAEXIIIIIIFFF@Z ; CxSkinButton::SetSkin

; 83   : 	if(m_nType==2||m_nType==4)

  000a1	8b 83 c8 04 00
	00		 mov	 eax, DWORD PTR [ebx+1224]
  000a7	83 f8 02	 cmp	 eax, 2
  000aa	74 0a		 je	 SHORT $LN4@OnInitDial
  000ac	83 f8 04	 cmp	 eax, 4

; 86   : 	}
; 87   : 	else
; 88   : 	{
; 89   : 		SetWindowText("");

  000af	b8 00 00 00 00	 mov	 eax, OFFSET ??_C@_0N@HDJNLEJM@?$LE?$NM?$MA?$KH?$MA?$PM?$LH?$KL?$LP?I?$LM?G@
  000b4	75 05		 jne	 SHORT $LN3@OnInitDial
$LN4@OnInitDial:

; 84   : 	{
; 85   : 		SetWindowText("");

  000b6	b8 00 00 00 00	 mov	 eax, OFFSET ??_C@_0P@OFKHPJJP@?$LL?g?$LP?k?$MA?Z?G?T?$LM?v?$LP?I?$LM?G@
$LN3@OnInitDial:

; 90   : 	}
; 91   : 
; 92   : 	if(m_nOpenType == 0) {

  000bb	50		 push	 eax
  000bc	8b cb		 mov	 ecx, ebx
  000be	e8 00 00 00 00	 call	 ?SetWindowTextA@CWnd@@QAEXPBD@Z ; CWnd::SetWindowTextA
  000c3	8b 83 fc 04 00
	00		 mov	 eax, DWORD PTR [ebx+1276]
  000c9	85 c0		 test	 eax, eax
  000cb	0f 85 0e 04 00
	00		 jne	 $LN5@OnInitDial

; 93   : 		ModifyStyle(WS_CHILD, WS_POPUP|WS_CAPTION|WS_SYSMENU);

  000d1	50		 push	 eax
  000d2	68 00 00 c8 80	 push	 -2134376448		; 80c80000H
  000d7	68 00 00 00 40	 push	 1073741824		; 40000000H
  000dc	8b cb		 mov	 ecx, ebx
  000de	e8 00 00 00 00	 call	 ?ModifyStyle@CWnd@@QAEHKKI@Z ; CWnd::ModifyStyle
; File C:\Program Files (x86)\Microsoft Visual Studio\2019\Community\VC\Tools\MSVC\14.29.30133\atlmfc\include\afxwin2.inl

; 84   : 	{ ASSERT(::IsWindow(m_hWnd)); ::GetWindowRect(m_hWnd, lpRect); }

  000e3	8b 3d 00 00 00
	00		 mov	 edi, DWORD PTR __imp__GetWindowRect@8
  000e9	8d 45 e0	 lea	 eax, DWORD PTR _rcDlg$9[ebp]
  000ec	50		 push	 eax
  000ed	ff 73 20	 push	 DWORD PTR [ebx+32]
  000f0	0f 57 c0	 xorps	 xmm0, xmm0
; File C:\Program Files (x86)\Microsoft Visual Studio\2019\Community\VC\Tools\MSVC\14.29.30133\atlmfc\include\atltypes.h

; 528  : 	left = 0;

  000f3	0f 11 45 e0	 movups	 XMMWORD PTR _rcDlg$9[ebp], xmm0
; File C:\Program Files (x86)\Microsoft Visual Studio\2019\Community\VC\Tools\MSVC\14.29.30133\atlmfc\include\afxwin2.inl

; 84   : 	{ ASSERT(::IsWindow(m_hWnd)); ::GetWindowRect(m_hWnd, lpRect); }

  000f7	ff d7		 call	 edi
; File D:\git\src\IBK\IBK_DRFN\ProjSrc\SrcDrfn\Chart\STCONFIGUREDLG\DlgSTOption.cpp

; 98   : 		rcDlg.bottom += GetSystemMetrics(SM_CYCAPTION) + GetSystemMetrics(SM_CYBORDER);

  000f9	8b 1d 00 00 00
	00		 mov	 ebx, DWORD PTR __imp__GetSystemMetrics@4
  000ff	6a 06		 push	 6
  00101	ff d3		 call	 ebx
  00103	6a 04		 push	 4
  00105	8b f0		 mov	 esi, eax
  00107	ff d3		 call	 ebx
  00109	03 45 ec	 add	 eax, DWORD PTR _rcDlg$9[ebp+12]
; File C:\Program Files (x86)\Microsoft Visual Studio\2019\Community\VC\Tools\MSVC\14.29.30133\atlmfc\include\afxwin2.inl

; 73   : 	{ MoveWindow(lpRect->left, lpRect->top, lpRect->right - lpRect->left,

  0010c	8b 55 e4	 mov	 edx, DWORD PTR _rcDlg$9[ebp+4]
; File D:\git\src\IBK\IBK_DRFN\ProjSrc\SrcDrfn\Chart\STCONFIGUREDLG\DlgSTOption.cpp

; 98   : 		rcDlg.bottom += GetSystemMetrics(SM_CYCAPTION) + GetSystemMetrics(SM_CYBORDER);

  0010f	03 c6		 add	 eax, esi
; File C:\Program Files (x86)\Microsoft Visual Studio\2019\Community\VC\Tools\MSVC\14.29.30133\atlmfc\include\afxwin2.inl

; 73   : 	{ MoveWindow(lpRect->left, lpRect->top, lpRect->right - lpRect->left,

  00111	8b 4d e0	 mov	 ecx, DWORD PTR _rcDlg$9[ebp]
  00114	8b 75 c8	 mov	 esi, DWORD PTR _this$GSCopy$1$[ebp]
; File D:\git\src\IBK\IBK_DRFN\ProjSrc\SrcDrfn\Chart\STCONFIGUREDLG\DlgSTOption.cpp

; 98   : 		rcDlg.bottom += GetSystemMetrics(SM_CYCAPTION) + GetSystemMetrics(SM_CYBORDER);

  00117	89 45 ec	 mov	 DWORD PTR _rcDlg$9[ebp+12], eax
; File C:\Program Files (x86)\Microsoft Visual Studio\2019\Community\VC\Tools\MSVC\14.29.30133\atlmfc\include\afxwin2.inl

; 73   : 	{ MoveWindow(lpRect->left, lpRect->top, lpRect->right - lpRect->left,

  0011a	2b c2		 sub	 eax, edx
  0011c	6a 01		 push	 1
  0011e	50		 push	 eax
  0011f	8b 45 e8	 mov	 eax, DWORD PTR _rcDlg$9[ebp+8]
  00122	2b c1		 sub	 eax, ecx
  00124	50		 push	 eax
  00125	52		 push	 edx
  00126	51		 push	 ecx
  00127	8b ce		 mov	 ecx, esi
  00129	e8 00 00 00 00	 call	 ?MoveWindow@CWnd@@QAEXHHHHH@Z ; CWnd::MoveWindow

; 84   : 	{ ASSERT(::IsWindow(m_hWnd)); ::GetWindowRect(m_hWnd, lpRect); }

  0012e	8d 45 e0	 lea	 eax, DWORD PTR _rcDlg$9[ebp]
  00131	50		 push	 eax
  00132	ff b6 c0 03 00
	00		 push	 DWORD PTR [esi+960]
  00138	ff d7		 call	 edi
; File D:\git\src\IBK\IBK_DRFN\ProjSrc\SrcDrfn\Chart\STCONFIGUREDLG\DlgSTOption.cpp

; 102  : 		ScreenToClient(rcDlg);

  0013a	8d 45 e0	 lea	 eax, DWORD PTR _rcDlg$9[ebp]
  0013d	8b fe		 mov	 edi, esi
  0013f	50		 push	 eax
  00140	8b cf		 mov	 ecx, edi
  00142	e8 00 00 00 00	 call	 ?ScreenToClient@CWnd@@QBEXPAUtagRECT@@@Z ; CWnd::ScreenToClient

; 104  : 		rcDlg.bottom += GetSystemMetrics(SM_CYCAPTION) + GetSystemMetrics(SM_CYBORDER);

  00147	6a 06		 push	 6
  00149	ff d3		 call	 ebx
  0014b	6a 04		 push	 4
  0014d	8b f0		 mov	 esi, eax
  0014f	ff d3		 call	 ebx
  00151	03 45 ec	 add	 eax, DWORD PTR _rcDlg$9[ebp+12]
; File C:\Program Files (x86)\Microsoft Visual Studio\2019\Community\VC\Tools\MSVC\14.29.30133\atlmfc\include\afxwin2.inl

; 73   : 	{ MoveWindow(lpRect->left, lpRect->top, lpRect->right - lpRect->left,

  00154	8b 55 e4	 mov	 edx, DWORD PTR _rcDlg$9[ebp+4]
; File D:\git\src\IBK\IBK_DRFN\ProjSrc\SrcDrfn\Chart\STCONFIGUREDLG\DlgSTOption.cpp

; 104  : 		rcDlg.bottom += GetSystemMetrics(SM_CYCAPTION) + GetSystemMetrics(SM_CYBORDER);

  00157	03 c6		 add	 eax, esi
; File C:\Program Files (x86)\Microsoft Visual Studio\2019\Community\VC\Tools\MSVC\14.29.30133\atlmfc\include\afxwin2.inl

; 73   : 	{ MoveWindow(lpRect->left, lpRect->top, lpRect->right - lpRect->left,

  00159	8b 4d e0	 mov	 ecx, DWORD PTR _rcDlg$9[ebp]
; File D:\git\src\IBK\IBK_DRFN\ProjSrc\SrcDrfn\Chart\STCONFIGUREDLG\DlgSTOption.cpp

; 104  : 		rcDlg.bottom += GetSystemMetrics(SM_CYCAPTION) + GetSystemMetrics(SM_CYBORDER);

  0015c	89 45 ec	 mov	 DWORD PTR _rcDlg$9[ebp+12], eax
; File C:\Program Files (x86)\Microsoft Visual Studio\2019\Community\VC\Tools\MSVC\14.29.30133\atlmfc\include\afxwin2.inl

; 73   : 	{ MoveWindow(lpRect->left, lpRect->top, lpRect->right - lpRect->left,

  0015f	2b c2		 sub	 eax, edx
  00161	6a 01		 push	 1
  00163	50		 push	 eax
  00164	8b 45 e8	 mov	 eax, DWORD PTR _rcDlg$9[ebp+8]
  00167	2b c1		 sub	 eax, ecx
  00169	50		 push	 eax
  0016a	52		 push	 edx
  0016b	51		 push	 ecx
  0016c	8d 8f a0 03 00
	00		 lea	 ecx, DWORD PTR [edi+928]
  00172	e8 00 00 00 00	 call	 ?MoveWindow@CWnd@@QAEXHHHHH@Z ; CWnd::MoveWindow
; File D:\git\src\IBK\IBK_DRFN\ProjSrc\SrcDrfn\Chart\STCONFIGUREDLG\DlgSTOption.cpp

; 107  : 		m_tabCtrl.SetTopLeftCorner(CPoint(10,28));//14,32

  00177	6a 1c		 push	 28			; 0000001cH
  00179	6a 0a		 push	 10			; 0000000aH
  0017b	8d 8f a0 03 00
	00		 lea	 ecx, DWORD PTR [edi+928]
  00181	e8 00 00 00 00	 call	 ?SetTopLeftCorner@CXTabCtrl@@QAEXVCPoint@@@Z ; CXTabCtrl::SetTopLeftCorner

; 108  : 		m_tabCtrl.SetLeftOffset(0);	//9
; 109  : 		m_tabCtrl.SetUpperOffset(0);//9
; 110  : 		m_tabCtrl.SetSelectedColor(RGB(0, 0, 0),CRBACKGROUND);

  00186	68 d3 df f1 00	 push	 15851475		; 00f1dfd3H
  0018b	6a 00		 push	 0
  0018d	8d 8f a0 03 00
	00		 lea	 ecx, DWORD PTR [edi+928]
  00193	c7 87 a0 04 00
	00 00 00 00 00	 mov	 DWORD PTR [edi+1184], 0
  0019d	c7 87 9c 04 00
	00 00 00 00 00	 mov	 DWORD PTR [edi+1180], 0
  001a7	e8 00 00 00 00	 call	 ?SetSelectedColor@CXTabCtrl@@QAEXKK@Z ; CXTabCtrl::SetSelectedColor

; 111  : 		m_tabCtrl.SetNormalColor(RGB(0,0,0), RGB(255,255,255) , RGB(226,225,233));

  001ac	68 e2 e1 e9 00	 push	 15327714		; 00e9e1e2H
  001b1	68 ff ff ff 00	 push	 16777215		; 00ffffffH
  001b6	6a 00		 push	 0
  001b8	8d 8f a0 03 00
	00		 lea	 ecx, DWORD PTR [edi+928]
  001be	e8 00 00 00 00	 call	 ?SetNormalColor@CXTabCtrl@@QAEXKKK@Z ; CXTabCtrl::SetNormalColor
; File C:\Program Files (x86)\Microsoft Visual Studio\2019\Community\VC\Tools\MSVC\14.29.30133\atlmfc\include\afx.inl

; 116  : 	{ return ::operator new(nSize); }

  001c3	68 40 03 00 00	 push	 832			; 00000340H
; File D:\git\src\IBK\IBK_DRFN\ProjSrc\SrcDrfn\Chart\STCONFIGUREDLG\DlgSTOption.cpp

; 112  : 		m_tabCtrl.SetTabBkColor(RGB(234,235,233));

  001c8	c7 87 60 04 00
	00 ea eb e9 00	 mov	 DWORD PTR [edi+1120], 15330282 ; 00e9ebeaH
; File C:\Program Files (x86)\Microsoft Visual Studio\2019\Community\VC\Tools\MSVC\14.29.30133\atlmfc\include\afx.inl

; 116  : 	{ return ::operator new(nSize); }

  001d2	e8 00 00 00 00	 call	 ??2@YAPAXI@Z		; operator new
  001d7	83 c4 04	 add	 esp, 4
; File D:\git\src\IBK\IBK_DRFN\ProjSrc\SrcDrfn\Chart\STCONFIGUREDLG\DlgSTOption.cpp

; 114  : 		m_pTabBasic = new CTabBasic(this);

  001da	89 45 cc	 mov	 DWORD PTR $T7[ebp], eax
  001dd	c7 45 fc 00 00
	00 00		 mov	 DWORD PTR __$EHRec$[ebp+8], 0
  001e4	85 c0		 test	 eax, eax
  001e6	74 0c		 je	 SHORT $LN12@OnInitDial
  001e8	57		 push	 edi
  001e9	8b c8		 mov	 ecx, eax
  001eb	e8 00 00 00 00	 call	 ??0CTabBasic@@QAE@PAVCWnd@@@Z ; CTabBasic::CTabBasic
  001f0	8b c8		 mov	 ecx, eax
  001f2	eb 02		 jmp	 SHORT $LN13@OnInitDial
$LN12@OnInitDial:
  001f4	33 c9		 xor	 ecx, ecx
$LN13@OnInitDial:
  001f6	89 8f c0 04 00
	00		 mov	 DWORD PTR [edi+1216], ecx

; 115  : 		m_pTabBasic->Create(CTabBasic::IDD,this);

  001fc	8b 01		 mov	 eax, DWORD PTR [ecx]
  001fe	57		 push	 edi
  001ff	68 09 52 00 00	 push	 21001			; 00005209H
  00204	c7 45 fc ff ff
	ff ff		 mov	 DWORD PTR __$EHRec$[ebp+8], -1
  0020b	ff 90 6c 01 00
	00		 call	 DWORD PTR [eax+364]

; 116  : 		m_pTabBasic->SetColor(m_crBk);

  00211	8b 8f c0 04 00
	00		 mov	 ecx, DWORD PTR [edi+1216]

; 117  : 		m_pTabBasic->SetBrush(&m_brBkColor);
; 118  : 		m_arrayTab.Add(m_pTabBasic);

  00217	8d b7 a8 04 00
	00		 lea	 esi, DWORD PTR [edi+1192]
  0021d	8b 87 ec 04 00
	00		 mov	 eax, DWORD PTR [edi+1260]
  00223	89 81 30 03 00
	00		 mov	 DWORD PTR [ecx+816], eax
  00229	8d 8f f0 04 00
	00		 lea	 ecx, DWORD PTR [edi+1264]
  0022f	8b 87 c0 04 00
	00		 mov	 eax, DWORD PTR [edi+1216]
  00235	89 88 34 03 00
	00		 mov	 DWORD PTR [eax+820], ecx
  0023b	8b 87 c0 04 00
	00		 mov	 eax, DWORD PTR [edi+1216]
  00241	89 45 cc	 mov	 DWORD PTR _newElement$1$[ebp], eax
; File C:\Program Files (x86)\Microsoft Visual Studio\2019\Community\VC\Tools\MSVC\14.29.30133\atlmfc\include\afxtempl.h

; 333  : 	{ INT_PTR nIndex = m_nSize;

  00244	8b 46 08	 mov	 eax, DWORD PTR [esi+8]
  00247	89 45 c8	 mov	 DWORD PTR _nIndex$1$[ebp], eax

; 538  : 	if(nIndex < 0)

  0024a	85 c0		 test	 eax, eax
  0024c	0f 88 87 03 00
	00		 js	 $LN104@OnInitDial

; 540  : 
; 541  : 	if (nIndex >= m_nSize)
; 542  : 		SetSize(nIndex+1, -1);

  00252	6a ff		 push	 -1
  00254	40		 inc	 eax
  00255	8b ce		 mov	 ecx, esi
  00257	50		 push	 eax
  00258	e8 00 00 00 00	 call	 ?SetSize@?$CArray@PAVCRscDlg@@PAV1@@@QAEXHH@Z ; CArray<CRscDlg *,CRscDlg *>::SetSize

; 543  : 	m_pData[nIndex] = newElement;

  0025d	8b 46 04	 mov	 eax, DWORD PTR [esi+4]
  00260	8b 4d c8	 mov	 ecx, DWORD PTR _nIndex$1$[ebp]
  00263	8b 55 cc	 mov	 edx, DWORD PTR _newElement$1$[ebp]
; File D:\git\src\IBK\IBK_DRFN\ProjSrc\SrcDrfn\Chart\STCONFIGUREDLG\DlgSTOption.cpp

; 119  : 		m_tabCtrl.AddTab(m_pTabBasic,"");

  00266	6a 00		 push	 0
  00268	68 00 00 00 00	 push	 OFFSET ??_C@_04KHPEKMEA@?$LB?b?$LK?$LL@
; File C:\Program Files (x86)\Microsoft Visual Studio\2019\Community\VC\Tools\MSVC\14.29.30133\atlmfc\include\afxtempl.h

; 543  : 	m_pData[nIndex] = newElement;

  0026d	89 14 88	 mov	 DWORD PTR [eax+ecx*4], edx
; File D:\git\src\IBK\IBK_DRFN\ProjSrc\SrcDrfn\Chart\STCONFIGUREDLG\DlgSTOption.cpp

; 119  : 		m_tabCtrl.AddTab(m_pTabBasic,"");

  00270	8d 8f a0 03 00
	00		 lea	 ecx, DWORD PTR [edi+928]
  00276	ff b7 c0 04 00
	00		 push	 DWORD PTR [edi+1216]
  0027c	e8 00 00 00 00	 call	 ?AddTab@CXTabCtrl@@QAEXPAVCWnd@@PADH@Z ; CXTabCtrl::AddTab

; 120  : 		m_pTabBasic->ShowWindow(SW_SHOW);

  00281	8b 8f c0 04 00
	00		 mov	 ecx, DWORD PTR [edi+1216]
  00287	6a 05		 push	 5
  00289	e8 00 00 00 00	 call	 ?ShowWindow@CWnd@@QAEHH@Z ; CWnd::ShowWindow

; 121  : 
; 122  : 
; 123  : 		if(m_nType==0||m_nType==1||m_nType==3)

  0028e	8b 87 c8 04 00
	00		 mov	 eax, DWORD PTR [edi+1224]
  00294	85 c0		 test	 eax, eax
  00296	74 0e		 je	 SHORT $LN8@OnInitDial
  00298	83 f8 01	 cmp	 eax, 1
  0029b	74 09		 je	 SHORT $LN8@OnInitDial
  0029d	83 f8 03	 cmp	 eax, 3
  002a0	0f 85 a7 01 00
	00		 jne	 $LN7@OnInitDial
$LN8@OnInitDial:
; File C:\Program Files (x86)\Microsoft Visual Studio\2019\Community\VC\Tools\MSVC\14.29.30133\atlmfc\include\afx.inl

; 116  : 	{ return ::operator new(nSize); }

  002a6	68 e8 03 00 00	 push	 1000			; 000003e8H
  002ab	e8 00 00 00 00	 call	 ??2@YAPAXI@Z		; operator new
  002b0	83 c4 04	 add	 esp, 4
; File D:\git\src\IBK\IBK_DRFN\ProjSrc\SrcDrfn\Chart\STCONFIGUREDLG\DlgSTOption.cpp

; 125  : 			CTabVariables *pTabVariables = new CTabVariables(this);

  002b3	89 45 cc	 mov	 DWORD PTR $T6[ebp], eax
  002b6	c7 45 fc 01 00
	00 00		 mov	 DWORD PTR __$EHRec$[ebp+8], 1
  002bd	85 c0		 test	 eax, eax
  002bf	74 0c		 je	 SHORT $LN14@OnInitDial
  002c1	57		 push	 edi
  002c2	8b c8		 mov	 ecx, eax
  002c4	e8 00 00 00 00	 call	 ??0CTabVariables@@QAE@PAVCWnd@@@Z ; CTabVariables::CTabVariables
  002c9	8b d8		 mov	 ebx, eax
  002cb	eb 02		 jmp	 SHORT $LN15@OnInitDial
$LN14@OnInitDial:
  002cd	33 db		 xor	 ebx, ebx
$LN15@OnInitDial:

; 126  : 			pTabVariables->Create(CTabVariables::IDD,this);

  002cf	8b 03		 mov	 eax, DWORD PTR [ebx]
  002d1	8b cb		 mov	 ecx, ebx
  002d3	57		 push	 edi
  002d4	68 0a 52 00 00	 push	 21002			; 0000520aH
  002d9	c7 45 fc ff ff
	ff ff		 mov	 DWORD PTR __$EHRec$[ebp+8], -1
  002e0	ff 90 6c 01 00
	00		 call	 DWORD PTR [eax+364]

; 127  : 			pTabVariables->SetColor(m_crBk);

  002e6	8b 87 ec 04 00
	00		 mov	 eax, DWORD PTR [edi+1260]
  002ec	89 83 d8 03 00
	00		 mov	 DWORD PTR [ebx+984], eax

; 128  : 			pTabVariables->SetBrush(&m_brBkColor);

  002f2	8d 87 f0 04 00
	00		 lea	 eax, DWORD PTR [edi+1264]
  002f8	89 83 dc 03 00
	00		 mov	 DWORD PTR [ebx+988], eax
; File C:\Program Files (x86)\Microsoft Visual Studio\2019\Community\VC\Tools\MSVC\14.29.30133\atlmfc\include\afxtempl.h

; 333  : 	{ INT_PTR nIndex = m_nSize;

  002fe	8b 46 08	 mov	 eax, DWORD PTR [esi+8]
  00301	89 45 cc	 mov	 DWORD PTR _nIndex$1$[ebp], eax

; 538  : 	if(nIndex < 0)

  00304	85 c0		 test	 eax, eax
  00306	0f 88 cd 02 00
	00		 js	 $LN104@OnInitDial

; 540  : 
; 541  : 	if (nIndex >= m_nSize)
; 542  : 		SetSize(nIndex+1, -1);

  0030c	6a ff		 push	 -1
  0030e	40		 inc	 eax
  0030f	8b ce		 mov	 ecx, esi
  00311	50		 push	 eax
  00312	e8 00 00 00 00	 call	 ?SetSize@?$CArray@PAVCRscDlg@@PAV1@@@QAEXHH@Z ; CArray<CRscDlg *,CRscDlg *>::SetSize

; 543  : 	m_pData[nIndex] = newElement;

  00317	8b 46 04	 mov	 eax, DWORD PTR [esi+4]
  0031a	8b 4d cc	 mov	 ecx, DWORD PTR _nIndex$1$[ebp]
; File D:\git\src\IBK\IBK_DRFN\ProjSrc\SrcDrfn\Chart\STCONFIGUREDLG\DlgSTOption.cpp

; 130  : 			m_tabCtrl.AddTab(pTabVariables,"");

  0031d	6a 00		 push	 0
  0031f	68 00 00 00 00	 push	 OFFSET ??_C@_04PIAAFAEL@?$LK?$KP?$LM?v@
  00324	53		 push	 ebx
; File C:\Program Files (x86)\Microsoft Visual Studio\2019\Community\VC\Tools\MSVC\14.29.30133\atlmfc\include\afxtempl.h

; 543  : 	m_pData[nIndex] = newElement;

  00325	89 1c 88	 mov	 DWORD PTR [eax+ecx*4], ebx
; File D:\git\src\IBK\IBK_DRFN\ProjSrc\SrcDrfn\Chart\STCONFIGUREDLG\DlgSTOption.cpp

; 130  : 			m_tabCtrl.AddTab(pTabVariables,"");

  00328	8d 8f a0 03 00
	00		 lea	 ecx, DWORD PTR [edi+928]
  0032e	e8 00 00 00 00	 call	 ?AddTab@CXTabCtrl@@QAEXPAVCWnd@@PADH@Z ; CXTabCtrl::AddTab
; File C:\Program Files (x86)\Microsoft Visual Studio\2019\Community\VC\Tools\MSVC\14.29.30133\atlmfc\include\afx.inl

; 116  : 	{ return ::operator new(nSize); }

  00333	68 b0 06 00 00	 push	 1712			; 000006b0H
  00338	e8 00 00 00 00	 call	 ??2@YAPAXI@Z		; operator new
  0033d	83 c4 04	 add	 esp, 4
; File D:\git\src\IBK\IBK_DRFN\ProjSrc\SrcDrfn\Chart\STCONFIGUREDLG\DlgSTOption.cpp

; 132  : 			CTabSignal *pTabSignal = new CTabSignal(this);

  00340	89 45 cc	 mov	 DWORD PTR $T5[ebp], eax
  00343	c7 45 fc 02 00
	00 00		 mov	 DWORD PTR __$EHRec$[ebp+8], 2
  0034a	85 c0		 test	 eax, eax
  0034c	74 0c		 je	 SHORT $LN16@OnInitDial
  0034e	57		 push	 edi
  0034f	8b c8		 mov	 ecx, eax
  00351	e8 00 00 00 00	 call	 ??0CTabSignal@@QAE@PAVCWnd@@@Z ; CTabSignal::CTabSignal
  00356	8b d8		 mov	 ebx, eax
  00358	eb 02		 jmp	 SHORT $LN17@OnInitDial
$LN16@OnInitDial:
  0035a	33 db		 xor	 ebx, ebx
$LN17@OnInitDial:

; 133  : 			pTabSignal->Create(CTabSignal::IDD,this);

  0035c	8b 03		 mov	 eax, DWORD PTR [ebx]
  0035e	8b cb		 mov	 ecx, ebx
  00360	57		 push	 edi
  00361	68 0b 52 00 00	 push	 21003			; 0000520bH
  00366	c7 45 fc ff ff
	ff ff		 mov	 DWORD PTR __$EHRec$[ebp+8], -1
  0036d	ff 90 6c 01 00
	00		 call	 DWORD PTR [eax+364]

; 134  : 			pTabSignal->SetColor(m_crBk);

  00373	8b 87 ec 04 00
	00		 mov	 eax, DWORD PTR [edi+1260]
  00379	89 83 a0 06 00
	00		 mov	 DWORD PTR [ebx+1696], eax

; 135  : 			pTabSignal->SetBrush(&m_brBkColor);

  0037f	8d 87 f0 04 00
	00		 lea	 eax, DWORD PTR [edi+1264]
  00385	89 83 a4 06 00
	00		 mov	 DWORD PTR [ebx+1700], eax
; File C:\Program Files (x86)\Microsoft Visual Studio\2019\Community\VC\Tools\MSVC\14.29.30133\atlmfc\include\afxtempl.h

; 333  : 	{ INT_PTR nIndex = m_nSize;

  0038b	8b 46 08	 mov	 eax, DWORD PTR [esi+8]
  0038e	89 45 cc	 mov	 DWORD PTR _nIndex$1$[ebp], eax

; 538  : 	if(nIndex < 0)

  00391	85 c0		 test	 eax, eax
  00393	0f 88 40 02 00
	00		 js	 $LN104@OnInitDial

; 540  : 
; 541  : 	if (nIndex >= m_nSize)
; 542  : 		SetSize(nIndex+1, -1);

  00399	6a ff		 push	 -1
  0039b	40		 inc	 eax
  0039c	8b ce		 mov	 ecx, esi
  0039e	50		 push	 eax
  0039f	e8 00 00 00 00	 call	 ?SetSize@?$CArray@PAVCRscDlg@@PAV1@@@QAEXHH@Z ; CArray<CRscDlg *,CRscDlg *>::SetSize

; 543  : 	m_pData[nIndex] = newElement;

  003a4	8b 46 04	 mov	 eax, DWORD PTR [esi+4]
  003a7	8b 4d cc	 mov	 ecx, DWORD PTR _nIndex$1$[ebp]
; File D:\git\src\IBK\IBK_DRFN\ProjSrc\SrcDrfn\Chart\STCONFIGUREDLG\DlgSTOption.cpp

; 137  : 			m_tabCtrl.AddTab(pTabSignal,"");

  003aa	6a 00		 push	 0
  003ac	68 00 00 00 00	 push	 OFFSET ??_C@_08PODAADFG@?$LN?E?H?$KD?G?$KF?$LN?C@
  003b1	53		 push	 ebx
; File C:\Program Files (x86)\Microsoft Visual Studio\2019\Community\VC\Tools\MSVC\14.29.30133\atlmfc\include\afxtempl.h

; 543  : 	m_pData[nIndex] = newElement;

  003b2	89 1c 88	 mov	 DWORD PTR [eax+ecx*4], ebx
; File D:\git\src\IBK\IBK_DRFN\ProjSrc\SrcDrfn\Chart\STCONFIGUREDLG\DlgSTOption.cpp

; 137  : 			m_tabCtrl.AddTab(pTabSignal,"");

  003b5	8d 8f a0 03 00
	00		 lea	 ecx, DWORD PTR [edi+928]
  003bb	e8 00 00 00 00	 call	 ?AddTab@CXTabCtrl@@QAEXPAVCWnd@@PADH@Z ; CXTabCtrl::AddTab
; File C:\Program Files (x86)\Microsoft Visual Studio\2019\Community\VC\Tools\MSVC\14.29.30133\atlmfc\include\afx.inl

; 116  : 	{ return ::operator new(nSize); }

  003c0	68 38 07 00 00	 push	 1848			; 00000738H
  003c5	e8 00 00 00 00	 call	 ??2@YAPAXI@Z		; operator new
  003ca	83 c4 04	 add	 esp, 4
; File D:\git\src\IBK\IBK_DRFN\ProjSrc\SrcDrfn\Chart\STCONFIGUREDLG\DlgSTOption.cpp

; 139  : 			CTabIndex *pTabIndex = new CTabIndex(this);

  003cd	89 45 cc	 mov	 DWORD PTR $T4[ebp], eax
  003d0	c7 45 fc 03 00
	00 00		 mov	 DWORD PTR __$EHRec$[ebp+8], 3
  003d7	85 c0		 test	 eax, eax
  003d9	74 0c		 je	 SHORT $LN18@OnInitDial
  003db	57		 push	 edi
  003dc	8b c8		 mov	 ecx, eax
  003de	e8 00 00 00 00	 call	 ??0CTabIndex@@QAE@PAVCWnd@@@Z ; CTabIndex::CTabIndex
  003e3	8b d8		 mov	 ebx, eax
  003e5	eb 02		 jmp	 SHORT $LN19@OnInitDial
$LN18@OnInitDial:
  003e7	33 db		 xor	 ebx, ebx
$LN19@OnInitDial:

; 140  : 			pTabIndex->Create(CTabIndex::IDD,this);

  003e9	8b 03		 mov	 eax, DWORD PTR [ebx]
  003eb	8b cb		 mov	 ecx, ebx
  003ed	57		 push	 edi
  003ee	68 0c 52 00 00	 push	 21004			; 0000520cH
  003f3	c7 45 fc ff ff
	ff ff		 mov	 DWORD PTR __$EHRec$[ebp+8], -1
  003fa	ff 90 6c 01 00
	00		 call	 DWORD PTR [eax+364]

; 141  : 			pTabIndex->SetColor(m_crBk);

  00400	8b 87 ec 04 00
	00		 mov	 eax, DWORD PTR [edi+1260]
  00406	89 83 2c 07 00
	00		 mov	 DWORD PTR [ebx+1836], eax

; 142  : 			pTabIndex->SetBrush(&m_brBkColor);

  0040c	8d 87 f0 04 00
	00		 lea	 eax, DWORD PTR [edi+1264]
  00412	89 83 30 07 00
	00		 mov	 DWORD PTR [ebx+1840], eax
; File C:\Program Files (x86)\Microsoft Visual Studio\2019\Community\VC\Tools\MSVC\14.29.30133\atlmfc\include\afxtempl.h

; 333  : 	{ INT_PTR nIndex = m_nSize;

  00418	8b 46 08	 mov	 eax, DWORD PTR [esi+8]
  0041b	89 45 cc	 mov	 DWORD PTR _nIndex$1$[ebp], eax

; 538  : 	if(nIndex < 0)

  0041e	85 c0		 test	 eax, eax
  00420	0f 88 b3 01 00
	00		 js	 $LN104@OnInitDial

; 540  : 
; 541  : 	if (nIndex >= m_nSize)
; 542  : 		SetSize(nIndex+1, -1);

  00426	6a ff		 push	 -1
  00428	40		 inc	 eax
  00429	8b ce		 mov	 ecx, esi
  0042b	50		 push	 eax
  0042c	e8 00 00 00 00	 call	 ?SetSize@?$CArray@PAVCRscDlg@@PAV1@@@QAEXHH@Z ; CArray<CRscDlg *,CRscDlg *>::SetSize

; 543  : 	m_pData[nIndex] = newElement;

  00431	8b 46 04	 mov	 eax, DWORD PTR [esi+4]
  00434	8b 4d cc	 mov	 ecx, DWORD PTR _nIndex$1$[ebp]
; File D:\git\src\IBK\IBK_DRFN\ProjSrc\SrcDrfn\Chart\STCONFIGUREDLG\DlgSTOption.cpp

; 144  : 			m_tabCtrl.AddTab(pTabIndex,"");

  00437	6a 00		 push	 0
  00439	68 00 00 00 00	 push	 OFFSET ??_C@_08MDPEPEPN@?A?v?G?$KF?G?$KF?$LN?C@
  0043e	53		 push	 ebx
; File C:\Program Files (x86)\Microsoft Visual Studio\2019\Community\VC\Tools\MSVC\14.29.30133\atlmfc\include\afxtempl.h

; 543  : 	m_pData[nIndex] = newElement;

  0043f	89 1c 88	 mov	 DWORD PTR [eax+ecx*4], ebx
; File D:\git\src\IBK\IBK_DRFN\ProjSrc\SrcDrfn\Chart\STCONFIGUREDLG\DlgSTOption.cpp

; 144  : 			m_tabCtrl.AddTab(pTabIndex,"");

  00442	8d 8f a0 03 00
	00		 lea	 ecx, DWORD PTR [edi+928]
  00448	e8 00 00 00 00	 call	 ?AddTab@CXTabCtrl@@QAEXPAVCWnd@@PADH@Z ; CXTabCtrl::AddTab
$LN7@OnInitDial:
; File C:\Program Files (x86)\Microsoft Visual Studio\2019\Community\VC\Tools\MSVC\14.29.30133\atlmfc\include\afx.inl

; 116  : 	{ return ::operator new(nSize); }

  0044d	68 e0 04 00 00	 push	 1248			; 000004e0H
  00452	e8 00 00 00 00	 call	 ??2@YAPAXI@Z		; operator new
  00457	83 c4 04	 add	 esp, 4
; File D:\git\src\IBK\IBK_DRFN\ProjSrc\SrcDrfn\Chart\STCONFIGUREDLG\DlgSTOption.cpp

; 147  : 		CTabAuthority *pTabAuthority = new CTabAuthority(this);

  0045a	89 45 cc	 mov	 DWORD PTR $T3[ebp], eax
  0045d	c7 45 fc 04 00
	00 00		 mov	 DWORD PTR __$EHRec$[ebp+8], 4
  00464	85 c0		 test	 eax, eax
  00466	74 0c		 je	 SHORT $LN20@OnInitDial
  00468	57		 push	 edi
  00469	8b c8		 mov	 ecx, eax
  0046b	e8 00 00 00 00	 call	 ??0CTabAuthority@@QAE@PAVCWnd@@@Z ; CTabAuthority::CTabAuthority
  00470	8b d8		 mov	 ebx, eax
  00472	eb 02		 jmp	 SHORT $LN21@OnInitDial
$LN20@OnInitDial:
  00474	33 db		 xor	 ebx, ebx
$LN21@OnInitDial:

; 148  : 		pTabAuthority->Create(CTabAuthority::IDD,this);

  00476	8b 03		 mov	 eax, DWORD PTR [ebx]
  00478	8b cb		 mov	 ecx, ebx
  0047a	57		 push	 edi
  0047b	68 0d 52 00 00	 push	 21005			; 0000520dH
  00480	c7 45 fc ff ff
	ff ff		 mov	 DWORD PTR __$EHRec$[ebp+8], -1
  00487	ff 90 6c 01 00
	00		 call	 DWORD PTR [eax+364]

; 149  : 		pTabAuthority->SetColor(m_crBk);

  0048d	8b 87 ec 04 00
	00		 mov	 eax, DWORD PTR [edi+1260]
  00493	89 83 d0 04 00
	00		 mov	 DWORD PTR [ebx+1232], eax

; 150  : 		pTabAuthority->SetBrush(&m_brBkColor);

  00499	8d 87 f0 04 00
	00		 lea	 eax, DWORD PTR [edi+1264]
  0049f	89 83 d4 04 00
	00		 mov	 DWORD PTR [ebx+1236], eax
; File C:\Program Files (x86)\Microsoft Visual Studio\2019\Community\VC\Tools\MSVC\14.29.30133\atlmfc\include\afxtempl.h

; 333  : 	{ INT_PTR nIndex = m_nSize;

  004a5	8b 46 08	 mov	 eax, DWORD PTR [esi+8]
  004a8	89 45 cc	 mov	 DWORD PTR _nIndex$1$[ebp], eax

; 538  : 	if(nIndex < 0)

  004ab	85 c0		 test	 eax, eax
  004ad	0f 88 26 01 00
	00		 js	 $LN104@OnInitDial

; 540  : 
; 541  : 	if (nIndex >= m_nSize)
; 542  : 		SetSize(nIndex+1, -1);

  004b3	6a ff		 push	 -1
  004b5	40		 inc	 eax
  004b6	8b ce		 mov	 ecx, esi
  004b8	50		 push	 eax
  004b9	e8 00 00 00 00	 call	 ?SetSize@?$CArray@PAVCRscDlg@@PAV1@@@QAEXHH@Z ; CArray<CRscDlg *,CRscDlg *>::SetSize

; 543  : 	m_pData[nIndex] = newElement;

  004be	8b 46 04	 mov	 eax, DWORD PTR [esi+4]
  004c1	8b 4d cc	 mov	 ecx, DWORD PTR _nIndex$1$[ebp]
; File D:\git\src\IBK\IBK_DRFN\ProjSrc\SrcDrfn\Chart\STCONFIGUREDLG\DlgSTOption.cpp

; 152  : 		m_tabCtrl.AddTab(pTabAuthority,"");	

  004c4	6a 00		 push	 0
  004c6	68 00 00 00 00	 push	 OFFSET ??_C@_04HHIPPAHO@?$LK?$LI?$LO?H@
  004cb	53		 push	 ebx
; File C:\Program Files (x86)\Microsoft Visual Studio\2019\Community\VC\Tools\MSVC\14.29.30133\atlmfc\include\afxtempl.h

; 543  : 	m_pData[nIndex] = newElement;

  004cc	89 1c 88	 mov	 DWORD PTR [eax+ecx*4], ebx
; File D:\git\src\IBK\IBK_DRFN\ProjSrc\SrcDrfn\Chart\STCONFIGUREDLG\DlgSTOption.cpp

; 152  : 		m_tabCtrl.AddTab(pTabAuthority,"");	

  004cf	8d 8f a0 03 00
	00		 lea	 ecx, DWORD PTR [edi+928]
  004d5	e8 00 00 00 00	 call	 ?AddTab@CXTabCtrl@@QAEXPAVCWnd@@PADH@Z ; CXTabCtrl::AddTab

; 153  : 	}

  004da	e9 d9 00 00 00	 jmp	 $LN10@OnInitDial
$LN5@OnInitDial:

; 154  : 	else if(m_nOpenType == 1) {

  004df	83 f8 01	 cmp	 eax, 1
  004e2	0f 85 d0 00 00
	00		 jne	 $LN10@OnInitDial

; 155  : 		ModifyStyle(WS_POPUP|WS_CAPTION|WS_SYSMENU, WS_CHILD);

  004e8	6a 00		 push	 0
  004ea	68 00 00 00 40	 push	 1073741824		; 40000000H
  004ef	68 00 00 c8 80	 push	 -2134376448		; 80c80000H
  004f4	8b cb		 mov	 ecx, ebx
  004f6	e8 00 00 00 00	 call	 ?ModifyStyle@CWnd@@QAEHKKI@Z ; CWnd::ModifyStyle

; 156  : 
; 157  : 		m_tabCtrl.ShowWindow(SW_HIDE);

  004fb	6a 00		 push	 0
  004fd	8d 8b a0 03 00
	00		 lea	 ecx, DWORD PTR [ebx+928]
  00503	e8 00 00 00 00	 call	 ?ShowWindow@CWnd@@QAEHH@Z ; CWnd::ShowWindow
; File C:\Program Files (x86)\Microsoft Visual Studio\2019\Community\VC\Tools\MSVC\14.29.30133\atlmfc\include\afx.inl

; 116  : 	{ return ::operator new(nSize); }

  00508	68 80 03 00 00	 push	 896			; 00000380H
  0050d	e8 00 00 00 00	 call	 ??2@YAPAXI@Z		; operator new
  00512	83 c4 04	 add	 esp, 4
; File D:\git\src\IBK\IBK_DRFN\ProjSrc\SrcDrfn\Chart\STCONFIGUREDLG\DlgSTOption.cpp

; 158  : 		m_pSTConfig = new CDlgSTConfig(this);

  00515	89 45 cc	 mov	 DWORD PTR $T2[ebp], eax
  00518	c7 45 fc 05 00
	00 00		 mov	 DWORD PTR __$EHRec$[ebp+8], 5
  0051f	85 c0		 test	 eax, eax
  00521	74 0c		 je	 SHORT $LN22@OnInitDial
  00523	53		 push	 ebx
  00524	8b c8		 mov	 ecx, eax
  00526	e8 00 00 00 00	 call	 ??0CDlgSTConfig@@QAE@PAVCWnd@@@Z ; CDlgSTConfig::CDlgSTConfig
  0052b	8b c8		 mov	 ecx, eax
  0052d	eb 02		 jmp	 SHORT $LN23@OnInitDial
$LN22@OnInitDial:
  0052f	33 c9		 xor	 ecx, ecx
$LN23@OnInitDial:
  00531	89 8b f8 04 00
	00		 mov	 DWORD PTR [ebx+1272], ecx

; 159  : 		m_pSTConfig->Create(CDlgSTConfig::IDD,this);

  00537	8b 01		 mov	 eax, DWORD PTR [ecx]
  00539	53		 push	 ebx
  0053a	68 4f 71 00 00	 push	 29007			; 0000714fH
  0053f	c7 45 fc ff ff
	ff ff		 mov	 DWORD PTR __$EHRec$[ebp+8], -1
  00546	ff 90 6c 01 00
	00		 call	 DWORD PTR [eax+364]

; 160  : 		m_pSTConfig->SetColor(m_crBk);

  0054c	8b 8b f8 04 00
	00		 mov	 ecx, DWORD PTR [ebx+1272]
  00552	8b 83 ec 04 00
	00		 mov	 eax, DWORD PTR [ebx+1260]

; 161  : 		m_pSTConfig->SetBrush(&m_brBkColor);
; 162  : 		m_pSTConfig->ShowWindow(SW_SHOW);

  00558	6a 05		 push	 5
  0055a	89 81 70 03 00
	00		 mov	 DWORD PTR [ecx+880], eax
  00560	8b 83 f8 04 00
	00		 mov	 eax, DWORD PTR [ebx+1272]
  00566	89 b0 74 03 00
	00		 mov	 DWORD PTR [eax+884], esi
  0056c	8b 8b f8 04 00
	00		 mov	 ecx, DWORD PTR [ebx+1272]
  00572	e8 00 00 00 00	 call	 ?ShowWindow@CWnd@@QAEHH@Z ; CWnd::ShowWindow
; File C:\Program Files (x86)\Microsoft Visual Studio\2019\Community\VC\Tools\MSVC\14.29.30133\atlmfc\include\afxwin2.inl

; 86   : 	{ ASSERT(::IsWindow(m_hWnd)); ::GetClientRect(m_hWnd, lpRect); }

  00577	8d 45 d0	 lea	 eax, DWORD PTR _rect$8[ebp]
  0057a	0f 57 c0	 xorps	 xmm0, xmm0
  0057d	50		 push	 eax
  0057e	ff 73 20	 push	 DWORD PTR [ebx+32]
; File C:\Program Files (x86)\Microsoft Visual Studio\2019\Community\VC\Tools\MSVC\14.29.30133\atlmfc\include\atltypes.h

; 528  : 	left = 0;

  00581	0f 11 45 d0	 movups	 XMMWORD PTR _rect$8[ebp], xmm0
; File C:\Program Files (x86)\Microsoft Visual Studio\2019\Community\VC\Tools\MSVC\14.29.30133\atlmfc\include\afxwin2.inl

; 86   : 	{ ASSERT(::IsWindow(m_hWnd)); ::GetClientRect(m_hWnd, lpRect); }

  00585	ff 15 00 00 00
	00		 call	 DWORD PTR __imp__GetClientRect@8
; File D:\git\src\IBK\IBK_DRFN\ProjSrc\SrcDrfn\Chart\STCONFIGUREDLG\DlgSTOption.cpp

; 166  : 		if(m_pSTConfig->GetSafeHwnd())

  0058b	8b 8b f8 04 00
	00		 mov	 ecx, DWORD PTR [ebx+1272]
; File C:\Program Files (x86)\Microsoft Visual Studio\2019\Community\VC\Tools\MSVC\14.29.30133\atlmfc\include\afxwin2.inl

; 25   : 	{ return this == NULL ? NULL : m_hWnd; }

  00591	85 c9		 test	 ecx, ecx
  00593	74 23		 je	 SHORT $LN10@OnInitDial
; File D:\git\src\IBK\IBK_DRFN\ProjSrc\SrcDrfn\Chart\STCONFIGUREDLG\DlgSTOption.cpp

; 166  : 		if(m_pSTConfig->GetSafeHwnd())

  00595	83 79 20 00	 cmp	 DWORD PTR [ecx+32], 0
  00599	74 1d		 je	 SHORT $LN10@OnInitDial
; File C:\Program Files (x86)\Microsoft Visual Studio\2019\Community\VC\Tools\MSVC\14.29.30133\atlmfc\include\atltypes.h

; 581  : 	return bottom - top;

  0059b	8b 45 dc	 mov	 eax, DWORD PTR _rect$8[ebp+12]
  0059e	8b 75 d4	 mov	 esi, DWORD PTR _rect$8[ebp+4]
  005a1	2b c6		 sub	 eax, esi

; 576  : 	return right - left;

  005a3	8b 55 d0	 mov	 edx, DWORD PTR _rect$8[ebp]
; File D:\git\src\IBK\IBK_DRFN\ProjSrc\SrcDrfn\Chart\STCONFIGUREDLG\DlgSTOption.cpp

; 167  : 			m_pSTConfig->SetWindowPos(NULL, rect.left , rect.top, rect.Width(), rect.Height(), SWP_NOACTIVATE);	

  005a6	6a 10		 push	 16			; 00000010H
  005a8	50		 push	 eax
; File C:\Program Files (x86)\Microsoft Visual Studio\2019\Community\VC\Tools\MSVC\14.29.30133\atlmfc\include\atltypes.h

; 576  : 	return right - left;

  005a9	8b 45 d8	 mov	 eax, DWORD PTR _rect$8[ebp+8]
  005ac	2b c2		 sub	 eax, edx
; File D:\git\src\IBK\IBK_DRFN\ProjSrc\SrcDrfn\Chart\STCONFIGUREDLG\DlgSTOption.cpp

; 167  : 			m_pSTConfig->SetWindowPos(NULL, rect.left , rect.top, rect.Width(), rect.Height(), SWP_NOACTIVATE);	

  005ae	50		 push	 eax
  005af	56		 push	 esi
  005b0	52		 push	 edx
  005b1	6a 00		 push	 0
  005b3	e8 00 00 00 00	 call	 ?SetWindowPos@CWnd@@QAEHPBV1@HHHHI@Z ; CWnd::SetWindowPos
$LN10@OnInitDial:

; 168  : 	}
; 169  : 
; 170  : 	return TRUE;  // return TRUE unless you set the focus to a control

  005b8	b8 01 00 00 00	 mov	 eax, 1

; 172  : }

  005bd	8b 4d f4	 mov	 ecx, DWORD PTR __$EHRec$[ebp]
  005c0	64 89 0d 00 00
	00 00		 mov	 DWORD PTR fs:0, ecx
  005c7	59		 pop	 ecx
  005c8	5f		 pop	 edi
  005c9	5e		 pop	 esi
  005ca	5b		 pop	 ebx
  005cb	8b 4d f0	 mov	 ecx, DWORD PTR __$ArrayPad$[ebp]
  005ce	33 cd		 xor	 ecx, ebp
  005d0	e8 00 00 00 00	 call	 @__security_check_cookie@4
  005d5	8b e5		 mov	 esp, ebp
  005d7	5d		 pop	 ebp
  005d8	c3		 ret	 0
$LN104@OnInitDial:
; File C:\Program Files (x86)\Microsoft Visual Studio\2019\Community\VC\Tools\MSVC\14.29.30133\atlmfc\include\afxtempl.h

; 539  : 		AfxThrowInvalidArgException();

  005d9	e8 00 00 00 00	 call	 ?AfxThrowInvalidArgException@@YGXXZ ; AfxThrowInvalidArgException
$LN106@OnInitDial:
  005de	cc		 int	 3
_TEXT	ENDS
;	COMDAT text$x
text$x	SEGMENT
__unwindfunclet$?OnInitDialog@CDlgSTOption@@MAEHXZ$0:
  00000	8b 45 cc	 mov	 eax, DWORD PTR $T7[ebp]
  00003	50		 push	 eax
  00004	e8 00 00 00 00	 call	 ??3CObject@@SGXPAX@Z	; CObject::operator delete
  00009	c3		 ret	 0
__unwindfunclet$?OnInitDialog@CDlgSTOption@@MAEHXZ$1:
  0000a	8b 45 cc	 mov	 eax, DWORD PTR $T6[ebp]
  0000d	50		 push	 eax
  0000e	e8 00 00 00 00	 call	 ??3CObject@@SGXPAX@Z	; CObject::operator delete
  00013	c3		 ret	 0
__unwindfunclet$?OnInitDialog@CDlgSTOption@@MAEHXZ$2:
  00014	8b 45 cc	 mov	 eax, DWORD PTR $T5[ebp]
  00017	50		 push	 eax
  00018	e8 00 00 00 00	 call	 ??3CObject@@SGXPAX@Z	; CObject::operator delete
  0001d	c3		 ret	 0
__unwindfunclet$?OnInitDialog@CDlgSTOption@@MAEHXZ$3:
  0001e	8b 45 cc	 mov	 eax, DWORD PTR $T4[ebp]
  00021	50		 push	 eax
  00022	e8 00 00 00 00	 call	 ??3CObject@@SGXPAX@Z	; CObject::operator delete
  00027	c3		 ret	 0
__unwindfunclet$?OnInitDialog@CDlgSTOption@@MAEHXZ$4:
  00028	8b 45 cc	 mov	 eax, DWORD PTR $T3[ebp]
  0002b	50		 push	 eax
  0002c	e8 00 00 00 00	 call	 ??3CObject@@SGXPAX@Z	; CObject::operator delete
  00031	c3		 ret	 0
__unwindfunclet$?OnInitDialog@CDlgSTOption@@MAEHXZ$5:
  00032	8b 45 cc	 mov	 eax, DWORD PTR $T2[ebp]
  00035	50		 push	 eax
  00036	e8 00 00 00 00	 call	 ??3CObject@@SGXPAX@Z	; CObject::operator delete
  0003b	c3		 ret	 0
  0003c	cc		 int	 3
  0003d	cc		 int	 3
  0003e	cc		 int	 3
  0003f	cc		 int	 3
  00040	cc		 int	 3
__ehhandler$?OnInitDialog@CDlgSTOption@@MAEHXZ:
  00041	90		 npad	 1
  00042	90		 npad	 1
  00043	8b 54 24 08	 mov	 edx, DWORD PTR [esp+8]
  00047	8d 42 0c	 lea	 eax, DWORD PTR [edx+12]
  0004a	8b 4a c4	 mov	 ecx, DWORD PTR [edx-60]
  0004d	33 c8		 xor	 ecx, eax
  0004f	e8 00 00 00 00	 call	 @__security_check_cookie@4
  00054	8b 4a fc	 mov	 ecx, DWORD PTR [edx-4]
  00057	33 c8		 xor	 ecx, eax
  00059	e8 00 00 00 00	 call	 @__security_check_cookie@4
  0005e	b8 00 00 00 00	 mov	 eax, OFFSET __ehfuncinfo$?OnInitDialog@CDlgSTOption@@MAEHXZ
  00063	e9 00 00 00 00	 jmp	 ___CxxFrameHandler3
text$x	ENDS
?OnInitDialog@CDlgSTOption@@MAEHXZ ENDP			; CDlgSTOption::OnInitDialog
; Function compile flags: /Ogtp
; File C:\Program Files (x86)\Microsoft Visual Studio\2019\Community\VC\Tools\MSVC\14.29.30133\atlmfc\include\afxtempl.h
; File C:\Program Files (x86)\Microsoft Visual Studio\2019\Community\VC\Tools\MSVC\14.29.30133\atlmfc\include\afx.inl
;	COMDAT ??_G?$CArray@PAVCRscDlg@@PAV1@@@UAEPAXI@Z
_TEXT	SEGMENT
___flags$ = 8						; size = 4
??_G?$CArray@PAVCRscDlg@@PAV1@@@UAEPAXI@Z PROC		; CArray<CRscDlg *,CRscDlg *>::`scalar deleting destructor', COMDAT
; _this$ = ecx
  00000	55		 push	 ebp
  00001	8b ec		 mov	 ebp, esp
; File C:\Program Files (x86)\Microsoft Visual Studio\2019\Community\VC\Tools\MSVC\14.29.30133\atlmfc\include\afxtempl.h

; 355  : {

  00003	56		 push	 esi
  00004	8b f1		 mov	 esi, ecx

; 356  : 	ASSERT_VALID(this);
; 357  : 
; 358  : 	if (m_pData != NULL)

  00006	8b 46 04	 mov	 eax, DWORD PTR [esi+4]
  00009	c7 06 00 00 00
	00		 mov	 DWORD PTR [esi], OFFSET ??_7?$CArray@PAVCRscDlg@@PAV1@@@6B@
  0000f	85 c0		 test	 eax, eax
  00011	74 09		 je	 SHORT $LN11@scalar

; 359  : 	{
; 360  : 		for( int i = 0; i < m_nSize; i++ )
; 361  : 			(m_pData + i)->~TYPE();
; 362  : 		delete[] (BYTE*)m_pData;

  00013	50		 push	 eax
  00014	e8 00 00 00 00	 call	 ??_V@YAXPAX@Z		; operator delete[]
  00019	83 c4 04	 add	 esp, 4
$LN11@scalar:
  0001c	8b 45 08	 mov	 eax, DWORD PTR ___flags$[ebp]
  0001f	a8 01		 test	 al, 1
  00021	74 1f		 je	 SHORT $LN20@scalar
  00023	a8 04		 test	 al, 4
  00025	75 10		 jne	 SHORT $LN3@scalar
; File C:\Program Files (x86)\Microsoft Visual Studio\2019\Community\VC\Tools\MSVC\14.29.30133\atlmfc\include\afx.inl

; 112  : 	{ ::operator delete(p); }

  00027	56		 push	 esi
  00028	e8 00 00 00 00	 call	 ??3@YAXPAX@Z		; operator delete
  0002d	83 c4 04	 add	 esp, 4
  00030	8b c6		 mov	 eax, esi
  00032	5e		 pop	 esi
  00033	5d		 pop	 ebp
  00034	c2 04 00	 ret	 4
$LN3@scalar:
  00037	6a 14		 push	 20			; 00000014H
  00039	56		 push	 esi
  0003a	e8 00 00 00 00	 call	 ?__global_delete@@YAXPAXI@Z ; __global_delete
  0003f	83 c4 08	 add	 esp, 8
$LN20@scalar:
  00042	8b c6		 mov	 eax, esi
  00044	5e		 pop	 esi
  00045	5d		 pop	 ebp
  00046	c2 04 00	 ret	 4
??_G?$CArray@PAVCRscDlg@@PAV1@@@UAEPAXI@Z ENDP		; CArray<CRscDlg *,CRscDlg *>::`scalar deleting destructor'
_TEXT	ENDS
; Function compile flags: /Ogtp
; File C:\Program Files (x86)\Microsoft Visual Studio\2019\Community\VC\Tools\MSVC\14.29.30133\atlmfc\include\afxtempl.h
; File C:\Program Files (x86)\Microsoft Visual Studio\2019\Community\VC\Tools\MSVC\14.29.30133\atlmfc\include\afx.inl
; File C:\Program Files (x86)\Microsoft Visual Studio\2019\Community\VC\Tools\MSVC\14.29.30133\atlmfc\include\afxtempl.h
; File C:\Program Files (x86)\Microsoft Visual Studio\2019\Community\VC\Tools\MSVC\14.29.30133\atlmfc\include\afx.inl
; File C:\Program Files (x86)\Microsoft Visual Studio\2019\Community\VC\Tools\MSVC\14.29.30133\atlmfc\include\afxtempl.h
; File C:\Program Files (x86)\Microsoft Visual Studio\2019\Community\VC\Tools\MSVC\14.29.30133\atlmfc\include\afx.inl
; File C:\Program Files (x86)\Microsoft Visual Studio\2019\Community\VC\Tools\MSVC\14.29.30133\atlmfc\include\afxtempl.h
; File C:\Program Files (x86)\Microsoft Visual Studio\2019\Community\VC\Tools\MSVC\14.29.30133\atlmfc\include\afx.inl
; File C:\Program Files (x86)\Microsoft Visual Studio\2019\Community\VC\Tools\MSVC\14.29.30133\atlmfc\include\afxtempl.h
;	COMDAT ?Serialize@?$CArray@PAVCRscDlg@@PAV1@@@UAEXAAVCArchive@@@Z
_TEXT	SEGMENT
_pData$1$ = -4						; size = 4
_ar$ = 8						; size = 4
?Serialize@?$CArray@PAVCRscDlg@@PAV1@@@UAEXAAVCArchive@@@Z PROC ; CArray<CRscDlg *,CRscDlg *>::Serialize, COMDAT
; _this$ = ecx

; 633  : {

  00000	55		 push	 ebp
  00001	8b ec		 mov	 ebp, esp
  00003	51		 push	 ecx
  00004	53		 push	 ebx
  00005	56		 push	 esi
  00006	57		 push	 edi
  00007	8b f9		 mov	 edi, ecx
; File C:\Program Files (x86)\Microsoft Visual Studio\2019\Community\VC\Tools\MSVC\14.29.30133\atlmfc\include\afx.inl

; 212  : 	{ return (m_nMode & CArchive::load) == 0; }

  00009	8b 4d 08	 mov	 ecx, DWORD PTR _ar$[ebp]
  0000c	8b 41 18	 mov	 eax, DWORD PTR [ecx+24]
  0000f	f7 d0		 not	 eax
  00011	a8 01		 test	 al, 1
; File C:\Program Files (x86)\Microsoft Visual Studio\2019\Community\VC\Tools\MSVC\14.29.30133\atlmfc\include\afxtempl.h

; 637  : 	if (ar.IsStoring())

  00013	74 0a		 je	 SHORT $LN2@Serialize

; 638  : 	{
; 639  : 		ar.WriteCount(m_nSize);

  00015	ff 77 08	 push	 DWORD PTR [edi+8]
  00018	e8 00 00 00 00	 call	 ?WriteCount@CArchive@@QAEXK@Z ; CArchive::WriteCount

; 640  : 	}

  0001d	eb 0f		 jmp	 SHORT $LN3@Serialize
$LN2@Serialize:

; 641  : 	else
; 642  : 	{
; 643  : 		DWORD_PTR nOldSize = ar.ReadCount();

  0001f	e8 00 00 00 00	 call	 ?ReadCount@CArchive@@QAEKXZ ; CArchive::ReadCount

; 644  : 		SetSize(nOldSize, -1);

  00024	6a ff		 push	 -1
  00026	50		 push	 eax
  00027	8b cf		 mov	 ecx, edi
  00029	e8 00 00 00 00	 call	 ?SetSize@?$CArray@PAVCRscDlg@@PAV1@@@QAEXHH@Z ; CArray<CRscDlg *,CRscDlg *>::SetSize
$LN3@Serialize:

; 645  : 	}
; 646  : 	SerializeElements<TYPE>(ar, m_pData, m_nSize);

  0002e	8b 77 08	 mov	 esi, DWORD PTR [edi+8]
  00031	8b 4f 04	 mov	 ecx, DWORD PTR [edi+4]
  00034	89 4d fc	 mov	 DWORD PTR _pData$1$[ebp], ecx

; 68   : 	ENSURE(nCount == 0 || pElements != NULL);

  00037	85 f6		 test	 esi, esi
  00039	74 08		 je	 SHORT $LN8@Serialize
  0003b	85 c9		 test	 ecx, ecx
  0003d	0f 84 8c 00 00
	00		 je	 $LN40@Serialize
$LN8@Serialize:
; File C:\Program Files (x86)\Microsoft Visual Studio\2019\Community\VC\Tools\MSVC\14.29.30133\atlmfc\include\afx.inl

; 212  : 	{ return (m_nMode & CArchive::load) == 0; }

  00043	8b 55 08	 mov	 edx, DWORD PTR _ar$[ebp]
  00046	8b 42 18	 mov	 eax, DWORD PTR [edx+24]
  00049	f7 d0		 not	 eax
  0004b	a8 01		 test	 al, 1
; File C:\Program Files (x86)\Microsoft Visual Studio\2019\Community\VC\Tools\MSVC\14.29.30133\atlmfc\include\afxtempl.h

; 73   : 	if (ar.IsStoring())

  0004d	74 36		 je	 SHORT $LN16@Serialize

; 74   : 	{
; 75   : 		TYPE* pData;
; 76   : 		UINT_PTR nElementsLeft;
; 77   : 
; 78   : 		nElementsLeft = nCount;
; 79   : 		pData = pElements;
; 80   : 		while( nElementsLeft > 0 )

  0004f	85 f6		 test	 esi, esi
  00051	74 29		 je	 SHORT $LN14@Serialize
$LL11@Serialize:

; 81   : 		{
; 82   : 			UINT nElementsToWrite;
; 83   : 
; 84   : 			nElementsToWrite = UINT(__min(nElementsLeft, INT_MAX/sizeof(TYPE)));

  00053	bb ff ff ff 1f	 mov	 ebx, 536870911		; 1fffffffH
  00058	3b f3		 cmp	 esi, ebx
  0005a	0f 42 de	 cmovb	 ebx, esi

; 85   : 			ar.Write(pData, nElementsToWrite*sizeof(TYPE));

  0005d	8d 3c 9d 00 00
	00 00		 lea	 edi, DWORD PTR [ebx*4]
  00064	57		 push	 edi
  00065	51		 push	 ecx
  00066	8b ca		 mov	 ecx, edx
  00068	e8 00 00 00 00	 call	 ?Write@CArchive@@QAEXPBXI@Z ; CArchive::Write

; 86   : 			nElementsLeft -= nElementsToWrite;
; 87   : 			pData += nElementsToWrite;

  0006d	8b 4d fc	 mov	 ecx, DWORD PTR _pData$1$[ebp]
  00070	8b 55 08	 mov	 edx, DWORD PTR _ar$[ebp]
  00073	03 cf		 add	 ecx, edi
  00075	89 4d fc	 mov	 DWORD PTR _pData$1$[ebp], ecx
  00078	2b f3		 sub	 esi, ebx
  0007a	75 d7		 jne	 SHORT $LL11@Serialize
$LN14@Serialize:
  0007c	5f		 pop	 edi

; 647  : }

  0007d	5e		 pop	 esi
  0007e	5b		 pop	 ebx
  0007f	8b e5		 mov	 esp, ebp
  00081	5d		 pop	 ebp
  00082	c2 04 00	 ret	 4
$LN16@Serialize:

; 97   : 		while( nElementsLeft > 0 )

  00085	85 f6		 test	 esi, esi
  00087	74 f3		 je	 SHORT $LN14@Serialize
  00089	0f 1f 80 00 00
	00 00		 npad	 7
$LL13@Serialize:

; 98   : 		{
; 99   : 			UINT nElementsToRead;
; 100  : 
; 101  : 			nElementsToRead = UINT(__min(nElementsLeft, INT_MAX/sizeof(TYPE)));

  00090	bf ff ff ff 1f	 mov	 edi, 536870911		; 1fffffffH
  00095	3b f7		 cmp	 esi, edi
  00097	0f 42 fe	 cmovb	 edi, esi

; 102  : 			ar.EnsureRead(pData, nElementsToRead*sizeof(TYPE));

  0009a	8d 1c bd 00 00
	00 00		 lea	 ebx, DWORD PTR [edi*4]
; File C:\Program Files (x86)\Microsoft Visual Studio\2019\Community\VC\Tools\MSVC\14.29.30133\atlmfc\include\afx.inl

; 399  : 	UINT nRead=Read(lpBuf, nCount);

  000a1	53		 push	 ebx
  000a2	51		 push	 ecx
  000a3	8b ca		 mov	 ecx, edx
  000a5	e8 00 00 00 00	 call	 ?Read@CArchive@@QAEIPAXI@Z ; CArchive::Read

; 400  : 	if(nRead!=nCount)

  000aa	3b c3		 cmp	 eax, ebx
  000ac	75 18		 jne	 SHORT $LN30@Serialize
; File C:\Program Files (x86)\Microsoft Visual Studio\2019\Community\VC\Tools\MSVC\14.29.30133\atlmfc\include\afxtempl.h

; 97   : 		while( nElementsLeft > 0 )

  000ae	8b 4d fc	 mov	 ecx, DWORD PTR _pData$1$[ebp]
  000b1	8b 55 08	 mov	 edx, DWORD PTR _ar$[ebp]

; 103  : 			nElementsLeft -= nElementsToRead;
; 104  : 			pData += nElementsToRead;

  000b4	03 cb		 add	 ecx, ebx
  000b6	89 4d fc	 mov	 DWORD PTR _pData$1$[ebp], ecx
  000b9	2b f7		 sub	 esi, edi
  000bb	75 d3		 jne	 SHORT $LL13@Serialize

; 647  : }

  000bd	5f		 pop	 edi
  000be	5e		 pop	 esi
  000bf	5b		 pop	 ebx
  000c0	8b e5		 mov	 esp, ebp
  000c2	5d		 pop	 ebp
  000c3	c2 04 00	 ret	 4
$LN30@Serialize:
; File C:\Program Files (x86)\Microsoft Visual Studio\2019\Community\VC\Tools\MSVC\14.29.30133\atlmfc\include\afx.inl

; 402  : 		AfxThrowArchiveException(CArchiveException::endOfFile);

  000c6	6a 00		 push	 0
  000c8	6a 03		 push	 3
  000ca	e8 00 00 00 00	 call	 ?AfxThrowArchiveException@@YGXHPBD@Z ; AfxThrowArchiveException
$LN40@Serialize:
; File C:\Program Files (x86)\Microsoft Visual Studio\2019\Community\VC\Tools\MSVC\14.29.30133\atlmfc\include\afxtempl.h

; 68   : 	ENSURE(nCount == 0 || pElements != NULL);

  000cf	e8 00 00 00 00	 call	 ?AfxThrowInvalidArgException@@YGXXZ ; AfxThrowInvalidArgException
$LN38@Serialize:
  000d4	cc		 int	 3
?Serialize@?$CArray@PAVCRscDlg@@PAV1@@@UAEXAAVCArchive@@@Z ENDP ; CArray<CRscDlg *,CRscDlg *>::Serialize
_TEXT	ENDS
; Function compile flags: /Ogtp
; File C:\Program Files (x86)\Microsoft Visual Studio\2019\Community\VC\Tools\MSVC\14.29.30133\atlmfc\include\afxtempl.h
;	COMDAT ??1?$CArray@PAVCRscDlg@@PAV1@@@UAE@XZ
_TEXT	SEGMENT
??1?$CArray@PAVCRscDlg@@PAV1@@@UAE@XZ PROC		; CArray<CRscDlg *,CRscDlg *>::~CArray<CRscDlg *,CRscDlg *>, COMDAT
; _this$ = ecx

; 356  : 	ASSERT_VALID(this);
; 357  : 
; 358  : 	if (m_pData != NULL)

  00000	8b 41 04	 mov	 eax, DWORD PTR [ecx+4]
  00003	c7 01 00 00 00
	00		 mov	 DWORD PTR [ecx], OFFSET ??_7?$CArray@PAVCRscDlg@@PAV1@@@6B@
  00009	85 c0		 test	 eax, eax
  0000b	74 07		 je	 SHORT $LN5@CArray

; 359  : 	{
; 360  : 		for( int i = 0; i < m_nSize; i++ )
; 361  : 			(m_pData + i)->~TYPE();
; 362  : 		delete[] (BYTE*)m_pData;

  0000d	50		 push	 eax
  0000e	e8 00 00 00 00	 call	 ??_V@YAXPAX@Z		; operator delete[]
  00013	59		 pop	 ecx
$LN5@CArray:

; 363  : 	}
; 364  : }

  00014	c3		 ret	 0
??1?$CArray@PAVCRscDlg@@PAV1@@@UAE@XZ ENDP		; CArray<CRscDlg *,CRscDlg *>::~CArray<CRscDlg *,CRscDlg *>
_TEXT	ENDS
; Function compile flags: /Ogtp
; File C:\Program Files (x86)\Microsoft Visual Studio\2019\Community\VC\Tools\MSVC\14.29.30133\atlmfc\include\afxtempl.h
;	COMDAT ?SetAtGrow@?$CArray@PAVCRscDlg@@PAV1@@@QAEXHPAVCRscDlg@@@Z
_TEXT	SEGMENT
_nIndex$ = 8						; size = 4
_newElement$ = 12					; size = 4
?SetAtGrow@?$CArray@PAVCRscDlg@@PAV1@@@QAEXHPAVCRscDlg@@@Z PROC ; CArray<CRscDlg *,CRscDlg *>::SetAtGrow, COMDAT
; _this$ = ecx

; 534  : {

  00000	55		 push	 ebp
  00001	8b ec		 mov	 ebp, esp
  00003	56		 push	 esi

; 535  : 	ASSERT_VALID(this);
; 536  : 	ASSERT(nIndex >= 0);
; 537  : 
; 538  : 	if(nIndex < 0)

  00004	8b 75 08	 mov	 esi, DWORD PTR _nIndex$[ebp]
  00007	57		 push	 edi
  00008	8b f9		 mov	 edi, ecx
  0000a	85 f6		 test	 esi, esi
  0000c	78 1f		 js	 SHORT $LN7@SetAtGrow

; 540  : 
; 541  : 	if (nIndex >= m_nSize)

  0000e	3b 77 08	 cmp	 esi, DWORD PTR [edi+8]
  00011	7c 0b		 jl	 SHORT $LN3@SetAtGrow

; 542  : 		SetSize(nIndex+1, -1);

  00013	6a ff		 push	 -1
  00015	8d 46 01	 lea	 eax, DWORD PTR [esi+1]
  00018	50		 push	 eax
  00019	e8 00 00 00 00	 call	 ?SetSize@?$CArray@PAVCRscDlg@@PAV1@@@QAEXHH@Z ; CArray<CRscDlg *,CRscDlg *>::SetSize
$LN3@SetAtGrow:

; 543  : 	m_pData[nIndex] = newElement;

  0001e	8b 4f 04	 mov	 ecx, DWORD PTR [edi+4]
  00021	8b 45 0c	 mov	 eax, DWORD PTR _newElement$[ebp]
  00024	5f		 pop	 edi
  00025	89 04 b1	 mov	 DWORD PTR [ecx+esi*4], eax
  00028	5e		 pop	 esi

; 544  : }

  00029	5d		 pop	 ebp
  0002a	c2 08 00	 ret	 8
$LN7@SetAtGrow:

; 539  : 		AfxThrowInvalidArgException();

  0002d	e8 00 00 00 00	 call	 ?AfxThrowInvalidArgException@@YGXXZ ; AfxThrowInvalidArgException
$LN5@SetAtGrow:
  00032	cc		 int	 3
?SetAtGrow@?$CArray@PAVCRscDlg@@PAV1@@@QAEXHPAVCRscDlg@@@Z ENDP ; CArray<CRscDlg *,CRscDlg *>::SetAtGrow
_TEXT	ENDS
; Function compile flags: /Ogtp
; File C:\Program Files (x86)\Microsoft Visual Studio\2019\Community\VC\Tools\MSVC\14.29.30133\atlmfc\include\afxtempl.h
; File C:\Program Files (x86)\Windows Kits\10\Include\10.0.22000.0\ucrt\corecrt_memcpy_s.h
; File C:\Program Files (x86)\Microsoft Visual Studio\2019\Community\VC\Tools\MSVC\14.29.30133\atlmfc\include\atlchecked.h
; File C:\Program Files (x86)\Microsoft Visual Studio\2019\Community\VC\Tools\MSVC\14.29.30133\atlmfc\include\afxtempl.h
; File C:\Program Files (x86)\Windows Kits\10\Include\10.0.22000.0\ucrt\corecrt_memcpy_s.h
; File C:\Program Files (x86)\Microsoft Visual Studio\2019\Community\VC\Tools\MSVC\14.29.30133\atlmfc\include\atlchecked.h
; File C:\Program Files (x86)\Windows Kits\10\Include\10.0.22000.0\ucrt\corecrt_memcpy_s.h
; File C:\Program Files (x86)\Microsoft Visual Studio\2019\Community\VC\Tools\MSVC\14.29.30133\atlmfc\include\afxtempl.h
;	COMDAT ?SetSize@?$CArray@PAVCRscDlg@@PAV1@@@QAEXHH@Z
_TEXT	SEGMENT
__N$1$ = -4						; size = 4
__S2$1$ = 8						; size = 4
_nNewSize$ = 8						; size = 4
_pNewData$1$ = 12					; size = 4
_nGrowBy$ = 12						; size = 4
?SetSize@?$CArray@PAVCRscDlg@@PAV1@@@QAEXHH@Z PROC	; CArray<CRscDlg *,CRscDlg *>::SetSize, COMDAT
; _this$ = ecx

; 368  : {

  00000	55		 push	 ebp
  00001	8b ec		 mov	 ebp, esp
  00003	51		 push	 ecx
  00004	53		 push	 ebx
  00005	56		 push	 esi

; 369  : 	ASSERT_VALID(this);
; 370  : 	ASSERT(nNewSize >= 0);
; 371  : 
; 372  : 	if(nNewSize < 0 )

  00006	8b 75 08	 mov	 esi, DWORD PTR _nNewSize$[ebp]
  00009	8b d9		 mov	 ebx, ecx
  0000b	57		 push	 edi
  0000c	85 f6		 test	 esi, esi
  0000e	0f 88 c2 01 00
	00		 js	 $LN70@SetSize

; 373  : 		AfxThrowInvalidArgException();
; 374  : 
; 375  : 	if (nGrowBy >= 0)

  00014	8b 45 0c	 mov	 eax, DWORD PTR _nGrowBy$[ebp]
  00017	85 c0		 test	 eax, eax
  00019	78 03		 js	 SHORT $LN69@SetSize

; 376  : 		m_nGrowBy = nGrowBy;  // set new size

  0001b	89 43 10	 mov	 DWORD PTR [ebx+16], eax
$LN69@SetSize:

; 377  : 
; 378  : 	if (nNewSize == 0)

  0001e	8b 4b 04	 mov	 ecx, DWORD PTR [ebx+4]
  00021	85 f6		 test	 esi, esi
  00023	75 27		 jne	 SHORT $LN19@SetSize

; 379  : 	{
; 380  : 		// shrink to nothing
; 381  : 		if (m_pData != NULL)

  00025	85 c9		 test	 ecx, ecx
  00027	74 0c		 je	 SHORT $LN21@SetSize

; 382  : 		{
; 383  : 			for( int i = 0; i < m_nSize; i++ )
; 384  : 				(m_pData + i)->~TYPE();
; 385  : 			delete[] (BYTE*)m_pData;

  00029	51		 push	 ecx
  0002a	e8 00 00 00 00	 call	 ??_V@YAXPAX@Z		; operator delete[]
  0002f	83 c4 04	 add	 esp, 4

; 386  : 			m_pData = NULL;

  00032	89 73 04	 mov	 DWORD PTR [ebx+4], esi
$LN21@SetSize:

; 472  : 		m_nSize = nNewSize;
; 473  : 		m_nMaxSize = nNewMax;
; 474  : 	}
; 475  : }

  00035	5f		 pop	 edi
  00036	5e		 pop	 esi
  00037	c7 43 0c 00 00
	00 00		 mov	 DWORD PTR [ebx+12], 0
  0003e	c7 43 08 00 00
	00 00		 mov	 DWORD PTR [ebx+8], 0
  00045	5b		 pop	 ebx
  00046	8b e5		 mov	 esp, ebp
  00048	5d		 pop	 ebp
  00049	c2 08 00	 ret	 8
$LN19@SetSize:

; 387  : 		}
; 388  : 		m_nSize = m_nMaxSize = 0;
; 389  : 	}
; 390  : 	else if (m_pData == NULL)

  0004c	85 c9		 test	 ecx, ecx
  0004e	75 36		 jne	 SHORT $LN22@SetSize

; 391  : 	{
; 392  : 		// create buffer big enough to hold number of requested elements or
; 393  : 		// m_nGrowBy elements, whichever is larger.
; 394  : #ifdef SIZE_T_MAX
; 395  : 		ASSERT(nNewSize <= SIZE_T_MAX/sizeof(TYPE));    // no overflow
; 396  : #endif
; 397  : 		size_t nAllocSize = __max(nNewSize, m_nGrowBy);

  00050	8b 7b 10	 mov	 edi, DWORD PTR [ebx+16]
  00053	3b f7		 cmp	 esi, edi
  00055	0f 4f fe	 cmovg	 edi, esi

; 398  : 		m_pData = (TYPE*) new BYTE[(size_t)nAllocSize * sizeof(TYPE)];

  00058	8d 34 bd 00 00
	00 00		 lea	 esi, DWORD PTR [edi*4]
  0005f	56		 push	 esi
  00060	e8 00 00 00 00	 call	 ??_U@YAPAXI@Z		; operator new[]

; 399  : 		memset((void*)m_pData, 0, (size_t)nAllocSize * sizeof(TYPE));

  00065	56		 push	 esi
  00066	6a 00		 push	 0
  00068	50		 push	 eax
  00069	89 43 04	 mov	 DWORD PTR [ebx+4], eax
  0006c	e8 00 00 00 00	 call	 _memset

; 400  : 		for( int i = 0; i < nNewSize; i++ )
; 401  : #pragma push_macro("new")
; 402  : #undef new
; 403  : 			::new( (void*)( m_pData + i ) ) TYPE;
; 404  : #pragma pop_macro("new")
; 405  : 		m_nSize = nNewSize;

  00071	8b 45 08	 mov	 eax, DWORD PTR _nNewSize$[ebp]
  00074	83 c4 10	 add	 esp, 16			; 00000010H

; 472  : 		m_nSize = nNewSize;
; 473  : 		m_nMaxSize = nNewMax;
; 474  : 	}
; 475  : }

  00077	89 7b 0c	 mov	 DWORD PTR [ebx+12], edi
  0007a	89 43 08	 mov	 DWORD PTR [ebx+8], eax
  0007d	5f		 pop	 edi
  0007e	5e		 pop	 esi
  0007f	5b		 pop	 ebx
  00080	8b e5		 mov	 esp, ebp
  00082	5d		 pop	 ebp
  00083	c2 08 00	 ret	 8
$LN22@SetSize:

; 406  : 		m_nMaxSize = nAllocSize;
; 407  : 	}
; 408  : 	else if (nNewSize <= m_nMaxSize)

  00086	8b 7b 0c	 mov	 edi, DWORD PTR [ebx+12]
  00089	3b f7		 cmp	 esi, edi
  0008b	7f 29		 jg	 SHORT $LN24@SetSize

; 409  : 	{
; 410  : 		// it fits
; 411  : 		if (nNewSize > m_nSize)

  0008d	8b 53 08	 mov	 edx, DWORD PTR [ebx+8]
  00090	3b f2		 cmp	 esi, edx
  00092	7e 16		 jle	 SHORT $LN26@SetSize

; 412  : 		{
; 413  : 			// initialize the new elements
; 414  : 			memset((void*)(m_pData + m_nSize), 0, (size_t)(nNewSize-m_nSize) * sizeof(TYPE));

  00094	8b c6		 mov	 eax, esi
  00096	2b c2		 sub	 eax, edx
  00098	c1 e0 02	 shl	 eax, 2
  0009b	50		 push	 eax
  0009c	8d 04 91	 lea	 eax, DWORD PTR [ecx+edx*4]
  0009f	6a 00		 push	 0
  000a1	50		 push	 eax
  000a2	e8 00 00 00 00	 call	 _memset
  000a7	83 c4 0c	 add	 esp, 12			; 0000000cH
$LN26@SetSize:

; 415  : 			for( int i = 0; i < nNewSize-m_nSize; i++ )
; 416  : #pragma push_macro("new")
; 417  : #undef new
; 418  : 				::new( (void*)( m_pData + m_nSize + i ) ) TYPE;
; 419  : #pragma pop_macro("new")
; 420  : 		}
; 421  : 		else if (m_nSize > nNewSize)
; 422  : 		{
; 423  : 			// destroy the old elements
; 424  : 			for( int i = 0; i < m_nSize-nNewSize; i++ )
; 425  : 				(m_pData + nNewSize + i)->~TYPE();
; 426  : 		}
; 427  : 		m_nSize = nNewSize;

  000aa	5f		 pop	 edi
  000ab	89 73 08	 mov	 DWORD PTR [ebx+8], esi

; 472  : 		m_nSize = nNewSize;
; 473  : 		m_nMaxSize = nNewMax;
; 474  : 	}
; 475  : }

  000ae	5e		 pop	 esi
  000af	5b		 pop	 ebx
  000b0	8b e5		 mov	 esp, ebp
  000b2	5d		 pop	 ebp
  000b3	c2 08 00	 ret	 8
$LN24@SetSize:

; 428  : 	}
; 429  : 	else
; 430  : 	{
; 431  : 		// otherwise, grow array
; 432  : 		nGrowBy = m_nGrowBy;

  000b6	8b 43 10	 mov	 eax, DWORD PTR [ebx+16]

; 433  : 		if (nGrowBy == 0)

  000b9	85 c0		 test	 eax, eax
  000bb	75 22		 jne	 SHORT $LN37@SetSize

; 434  : 		{
; 435  : 			// heuristically determine growth when nGrowBy == 0
; 436  : 			//  (this avoids heap fragmentation in many situations)
; 437  : 			nGrowBy = m_nSize / 8;

  000bd	8b 43 08	 mov	 eax, DWORD PTR [ebx+8]
  000c0	99		 cdq
  000c1	83 e2 07	 and	 edx, 7
  000c4	03 c2		 add	 eax, edx
  000c6	c1 f8 03	 sar	 eax, 3

; 438  : 			nGrowBy = (nGrowBy < 4) ? 4 : ((nGrowBy > 1024) ? 1024 : nGrowBy);

  000c9	83 f8 04	 cmp	 eax, 4
  000cc	7d 07		 jge	 SHORT $LN36@SetSize
  000ce	b8 04 00 00 00	 mov	 eax, 4
  000d3	eb 0a		 jmp	 SHORT $LN37@SetSize
$LN36@SetSize:
  000d5	b9 00 04 00 00	 mov	 ecx, 1024		; 00000400H
  000da	3b c1		 cmp	 eax, ecx
  000dc	0f 4f c1	 cmovg	 eax, ecx
$LN37@SetSize:

; 439  : 		}
; 440  : 		INT_PTR nNewMax;
; 441  : 		if (nNewSize < m_nMaxSize + nGrowBy)

  000df	03 f8		 add	 edi, eax
  000e1	3b f7		 cmp	 esi, edi
  000e3	7d 0b		 jge	 SHORT $LN30@SetSize

; 445  : 
; 446  : 		ASSERT(nNewMax >= m_nMaxSize);  // no wrap around
; 447  : 
; 448  : 		if(nNewMax  < m_nMaxSize)

  000e5	3b 7b 0c	 cmp	 edi, DWORD PTR [ebx+12]
  000e8	0f 8c e8 00 00
	00		 jl	 $LN70@SetSize
  000ee	eb 02		 jmp	 SHORT $LN32@SetSize
$LN30@SetSize:

; 442  : 			nNewMax = m_nMaxSize + nGrowBy;  // granularity
; 443  : 		else
; 444  : 			nNewMax = nNewSize;  // no slush

  000f0	8b fe		 mov	 edi, esi
$LN32@SetSize:

; 450  : 
; 451  : #ifdef SIZE_T_MAX
; 452  : 		ASSERT(nNewMax <= SIZE_T_MAX/sizeof(TYPE)); // no overflow
; 453  : #endif
; 454  : 		TYPE* pNewData = (TYPE*) new BYTE[(size_t)nNewMax * sizeof(TYPE)];

  000f2	8d 04 bd 00 00
	00 00		 lea	 eax, DWORD PTR [edi*4]
  000f9	50		 push	 eax
  000fa	e8 00 00 00 00	 call	 ??_U@YAPAXI@Z		; operator new[]

; 455  : 
; 456  : 		// copy new data from old
; 457  : 		::ATL::Checked::memcpy_s(pNewData, (size_t)nNewMax * sizeof(TYPE),

  000ff	8b 53 04	 mov	 edx, DWORD PTR [ebx+4]
  00102	8b c8		 mov	 ecx, eax
  00104	8b 43 08	 mov	 eax, DWORD PTR [ebx+8]
  00107	83 c4 04	 add	 esp, 4
  0010a	c1 e0 02	 shl	 eax, 2
  0010d	89 4d 0c	 mov	 DWORD PTR _pNewData$1$[ebp], ecx
  00110	89 45 fc	 mov	 DWORD PTR __N$1$[ebp], eax
  00113	89 55 08	 mov	 DWORD PTR __S2$1$[ebp], edx
; File C:\Program Files (x86)\Windows Kits\10\Include\10.0.22000.0\ucrt\corecrt_memcpy_s.h

; 46   :         if (_SourceSize == 0)

  00116	85 c0		 test	 eax, eax
  00118	74 76		 je	 SHORT $LN74@SetSize

; 47   :         {
; 48   :             return 0;
; 49   :         }
; 50   : 
; 51   :         _CRT_MEMCPY_S_VALIDATE_RETURN_ERRCODE(_Destination != NULL, EINVAL);

  0011a	85 c9		 test	 ecx, ecx
  0011c	75 56		 jne	 SHORT $LN42@SetSize
$LN73@SetSize:
; File C:\Program Files (x86)\Microsoft Visual Studio\2019\Community\VC\Tools\MSVC\14.29.30133\atlmfc\include\atlchecked.h

; 69   : 	ATLMFC_CRT_ERRORCHECK(::memcpy_s(_S1, _S1max, _S2, _N));

  0011e	ff 15 00 00 00
	00		 call	 DWORD PTR __imp___errno
  00124	c7 00 16 00 00
	00		 mov	 DWORD PTR [eax], 22	; 00000016H
  0012a	ff 15 00 00 00
	00		 call	 DWORD PTR __imp___invalid_parameter_noinfo
$LN46@SetSize:
  00130	b8 16 00 00 00	 mov	 eax, 22			; 00000016H
$LN40@SetSize:
  00135	50		 push	 eax
  00136	e8 00 00 00 00	 call	 ?AfxCrtErrorCheck@@YAHH@Z ; AfxCrtErrorCheck
; File C:\Program Files (x86)\Microsoft Visual Studio\2019\Community\VC\Tools\MSVC\14.29.30133\atlmfc\include\afxtempl.h

; 462  : 		memset((void*)(pNewData + m_nSize), 0, (size_t)(nNewSize-m_nSize) * sizeof(TYPE));

  0013b	8b 4b 08	 mov	 ecx, DWORD PTR [ebx+8]
  0013e	8b c6		 mov	 eax, esi
  00140	2b c1		 sub	 eax, ecx
  00142	c1 e0 02	 shl	 eax, 2
  00145	50		 push	 eax
  00146	8b 45 0c	 mov	 eax, DWORD PTR _pNewData$1$[ebp]
  00149	6a 00		 push	 0
  0014b	8d 04 88	 lea	 eax, DWORD PTR [eax+ecx*4]
  0014e	50		 push	 eax
  0014f	e8 00 00 00 00	 call	 _memset

; 463  : 		for( int i = 0; i < nNewSize-m_nSize; i++ )
; 464  : #pragma push_macro("new")
; 465  : #undef new
; 466  : 			::new( (void*)( pNewData + m_nSize + i ) ) TYPE;
; 467  : #pragma pop_macro("new")
; 468  : 
; 469  : 		// get rid of old stuff (note: no destructors called)
; 470  : 		delete[] (BYTE*)m_pData;

  00154	ff 73 04	 push	 DWORD PTR [ebx+4]
  00157	e8 00 00 00 00	 call	 ??_V@YAXPAX@Z		; operator delete[]

; 471  : 		m_pData = pNewData;

  0015c	8b 45 0c	 mov	 eax, DWORD PTR _pNewData$1$[ebp]
  0015f	83 c4 14	 add	 esp, 20			; 00000014H

; 472  : 		m_nSize = nNewSize;
; 473  : 		m_nMaxSize = nNewMax;
; 474  : 	}
; 475  : }

  00162	89 7b 0c	 mov	 DWORD PTR [ebx+12], edi
  00165	89 73 08	 mov	 DWORD PTR [ebx+8], esi
  00168	89 43 04	 mov	 DWORD PTR [ebx+4], eax
  0016b	5f		 pop	 edi
  0016c	5e		 pop	 esi
  0016d	5b		 pop	 ebx
  0016e	8b e5		 mov	 esp, ebp
  00170	5d		 pop	 ebp
  00171	c2 08 00	 ret	 8
$LN42@SetSize:
; File C:\Program Files (x86)\Windows Kits\10\Include\10.0.22000.0\ucrt\corecrt_memcpy_s.h

; 52   :         if (_Source == NULL || _DestinationSize < _SourceSize)

  00174	85 d2		 test	 edx, edx
  00176	8d 14 bd 00 00
	00 00		 lea	 edx, DWORD PTR [edi*4]
  0017d	74 15		 je	 SHORT $LN44@SetSize
  0017f	3b d0		 cmp	 edx, eax
  00181	72 11		 jb	 SHORT $LN44@SetSize

; 58   : 
; 59   :             // Unreachable, but required to suppress /analyze warnings:
; 60   :             return EINVAL;
; 61   :         }
; 62   :         memcpy(_Destination, _Source, _SourceSize);

  00183	50		 push	 eax
  00184	ff 75 08	 push	 DWORD PTR __S2$1$[ebp]
  00187	51		 push	 ecx
  00188	e8 00 00 00 00	 call	 _memcpy
  0018d	83 c4 0c	 add	 esp, 12			; 0000000cH
$LN74@SetSize:
; File C:\Program Files (x86)\Microsoft Visual Studio\2019\Community\VC\Tools\MSVC\14.29.30133\atlmfc\include\atlchecked.h

; 69   : 	ATLMFC_CRT_ERRORCHECK(::memcpy_s(_S1, _S1max, _S2, _N));

  00190	33 c0		 xor	 eax, eax
  00192	eb a1		 jmp	 SHORT $LN40@SetSize
$LN44@SetSize:
; File C:\Program Files (x86)\Windows Kits\10\Include\10.0.22000.0\ucrt\corecrt_memcpy_s.h

; 54   :             memset(_Destination, 0, _DestinationSize);

  00194	52		 push	 edx
  00195	6a 00		 push	 0
  00197	51		 push	 ecx
  00198	e8 00 00 00 00	 call	 _memset
  0019d	83 c4 0c	 add	 esp, 12			; 0000000cH

; 55   : 
; 56   :             _CRT_MEMCPY_S_VALIDATE_RETURN_ERRCODE(_Source != NULL,                 EINVAL);

  001a0	83 7d 08 00	 cmp	 DWORD PTR __S2$1$[ebp], 0
  001a4	0f 84 74 ff ff
	ff		 je	 $LN73@SetSize

; 57   :             _CRT_MEMCPY_S_VALIDATE_RETURN_ERRCODE(_DestinationSize >= _SourceSize, ERANGE);

  001aa	8d 04 bd 00 00
	00 00		 lea	 eax, DWORD PTR [edi*4]
  001b1	3b 45 fc	 cmp	 eax, DWORD PTR __N$1$[ebp]
  001b4	0f 83 76 ff ff
	ff		 jae	 $LN46@SetSize
  001ba	ff 15 00 00 00
	00		 call	 DWORD PTR __imp___errno
  001c0	c7 00 22 00 00
	00		 mov	 DWORD PTR [eax], 34	; 00000022H
  001c6	ff 15 00 00 00
	00		 call	 DWORD PTR __imp___invalid_parameter_noinfo
  001cc	b8 22 00 00 00	 mov	 eax, 34			; 00000022H
  001d1	e9 5f ff ff ff	 jmp	 $LN40@SetSize
$LN70@SetSize:
; File C:\Program Files (x86)\Microsoft Visual Studio\2019\Community\VC\Tools\MSVC\14.29.30133\atlmfc\include\afxtempl.h

; 449  : 			AfxThrowInvalidArgException();

  001d6	e8 00 00 00 00	 call	 ?AfxThrowInvalidArgException@@YGXXZ ; AfxThrowInvalidArgException
$LN72@SetSize:
  001db	cc		 int	 3
?SetSize@?$CArray@PAVCRscDlg@@PAV1@@@QAEXHH@Z ENDP	; CArray<CRscDlg *,CRscDlg *>::SetSize
_TEXT	ENDS
; Function compile flags: /Ogtp
; File C:\Program Files (x86)\Microsoft Visual Studio\2019\Community\VC\Tools\MSVC\14.29.30133\atlmfc\include\afxtempl.h
;	COMDAT ??0?$CArray@PAVCRscDlg@@PAV1@@@QAE@XZ
_TEXT	SEGMENT
??0?$CArray@PAVCRscDlg@@PAV1@@@QAE@XZ PROC		; CArray<CRscDlg *,CRscDlg *>::CArray<CRscDlg *,CRscDlg *>, COMDAT
; _this$ = ecx

; 348  : {

  00000	c7 01 00 00 00
	00		 mov	 DWORD PTR [ecx], OFFSET ??_7?$CArray@PAVCRscDlg@@PAV1@@@6B@

; 349  : 	m_pData = NULL;
; 350  : 	m_nSize = m_nMaxSize = m_nGrowBy = 0;
; 351  : }

  00006	8b c1		 mov	 eax, ecx
  00008	c7 41 04 00 00
	00 00		 mov	 DWORD PTR [ecx+4], 0
  0000f	c7 41 10 00 00
	00 00		 mov	 DWORD PTR [ecx+16], 0
  00016	c7 41 0c 00 00
	00 00		 mov	 DWORD PTR [ecx+12], 0
  0001d	c7 41 08 00 00
	00 00		 mov	 DWORD PTR [ecx+8], 0
  00024	c3		 ret	 0
??0?$CArray@PAVCRscDlg@@PAV1@@@QAE@XZ ENDP		; CArray<CRscDlg *,CRscDlg *>::CArray<CRscDlg *,CRscDlg *>
_TEXT	ENDS
; Function compile flags: /Ogtp
; File D:\git\src\IBK\IBK_DRFN\ProjSrc\SrcDrfn\Chart\STCONFIGUREDLG\DlgSTOption.cpp
;	COMDAT ?DoDataExchange@CDlgSTOption@@MAEXPAVCDataExchange@@@Z
_TEXT	SEGMENT
_pDX$ = 8						; size = 4
?DoDataExchange@CDlgSTOption@@MAEXPAVCDataExchange@@@Z PROC ; CDlgSTOption::DoDataExchange, COMDAT
; _this$ = ecx

; 55   : {

  00000	55		 push	 ebp
  00001	8b ec		 mov	 ebp, esp
  00003	56		 push	 esi
  00004	57		 push	 edi

; 56   : 	CRscDlg::DoDataExchange(pDX);

  00005	8b 7d 08	 mov	 edi, DWORD PTR _pDX$[ebp]
  00008	8b f1		 mov	 esi, ecx
  0000a	57		 push	 edi
  0000b	e8 00 00 00 00	 call	 ?DoDataExchange@CRscDlg@@MAEXPAVCDataExchange@@@Z ; CRscDlg::DoDataExchange

; 57   : 	//{{AFX_DATA_MAP(CDlgSTOption)
; 58   : 	DDX_Control(pDX, IDOK, m_btOK);

  00010	8d 86 b0 00 00
	00		 lea	 eax, DWORD PTR [esi+176]
  00016	50		 push	 eax
  00017	6a 01		 push	 1
  00019	57		 push	 edi
  0001a	e8 00 00 00 00	 call	 ?DDX_Control@@YGXPAVCDataExchange@@HAAVCWnd@@@Z ; DDX_Control

; 59   : 	DDX_Control(pDX, IDCANCEL, m_btCancel);

  0001f	8d 86 28 02 00
	00		 lea	 eax, DWORD PTR [esi+552]
  00025	50		 push	 eax
  00026	6a 02		 push	 2
  00028	57		 push	 edi
  00029	e8 00 00 00 00	 call	 ?DDX_Control@@YGXPAVCDataExchange@@HAAVCWnd@@@Z ; DDX_Control

; 60   : 	DDX_Control(pDX, IDC_TAB1, m_tabCtrl);

  0002e	8d 86 a0 03 00
	00		 lea	 eax, DWORD PTR [esi+928]
  00034	50		 push	 eax
  00035	68 08 52 00 00	 push	 21000			; 00005208H
  0003a	57		 push	 edi
  0003b	e8 00 00 00 00	 call	 ?DDX_Control@@YGXPAVCDataExchange@@HAAVCWnd@@@Z ; DDX_Control
  00040	5f		 pop	 edi
  00041	5e		 pop	 esi

; 61   : 	//}}AFX_DATA_MAP
; 62   : }

  00042	5d		 pop	 ebp
  00043	c2 04 00	 ret	 4
?DoDataExchange@CDlgSTOption@@MAEXPAVCDataExchange@@@Z ENDP ; CDlgSTOption::DoDataExchange
_TEXT	ENDS
; Function compile flags: /Ogtp
; File D:\git\src\IBK\IBK_DRFN\ProjSrc\SrcDrfn\Chart\STCONFIGUREDLG\DlgSTOption.cpp
;	COMDAT ?ApplyConfig@CDlgSTOption@@QAEXXZ
_TEXT	SEGMENT
$T2 = -24						; size = 4
$T3 = -24						; size = 4
_szPath$ = -20						; size = 4
_szSTPath$4 = -16					; size = 4
_strName$5 = -16					; size = 4
__$EHRec$ = -12						; size = 12
?ApplyConfig@CDlgSTOption@@QAEXXZ PROC			; CDlgSTOption::ApplyConfig, COMDAT
; _this$ = ecx

; 408  : {

  00000	55		 push	 ebp
  00001	8b ec		 mov	 ebp, esp
  00003	6a ff		 push	 -1
  00005	68 00 00 00 00	 push	 __ehhandler$?ApplyConfig@CDlgSTOption@@QAEXXZ
  0000a	64 a1 00 00 00
	00		 mov	 eax, DWORD PTR fs:0
  00010	50		 push	 eax
  00011	83 ec 0c	 sub	 esp, 12			; 0000000cH
  00014	56		 push	 esi
  00015	57		 push	 edi
  00016	a1 00 00 00 00	 mov	 eax, DWORD PTR ___security_cookie
  0001b	33 c5		 xor	 eax, ebp
  0001d	50		 push	 eax
  0001e	8d 45 f4	 lea	 eax, DWORD PTR __$EHRec$[ebp]
  00021	64 a3 00 00 00
	00		 mov	 DWORD PTR fs:0, eax
  00027	8b f1		 mov	 esi, ecx

; 409  : 	CString szPath;

  00029	8d 4d ec	 lea	 ecx, DWORD PTR _szPath$[ebp]
  0002c	ff 15 00 00 00
	00		 call	 DWORD PTR __imp_??0?$CStringT@DV?$StrTraitMFC_DLL@DV?$ChTraitsCRT@D@ATL@@@@@ATL@@QAE@XZ

; 410  : 	if(m_nType==1||m_nType==2)

  00032	8b 86 c8 04 00
	00		 mov	 eax, DWORD PTR [esi+1224]
  00038	c7 45 fc 00 00
	00 00		 mov	 DWORD PTR __$EHRec$[ebp+8], 0
  0003f	83 f8 01	 cmp	 eax, 1
  00042	0f 84 94 00 00
	00		 je	 $LN4@ApplyConfi
  00048	83 f8 02	 cmp	 eax, 2
  0004b	0f 84 8b 00 00
	00		 je	 $LN4@ApplyConfi

; 422  : 			::SendMessage(m_hParentUsr,RMSG_STCONFIGURENAME,(WPARAM)(LPCTSTR)szPath,1);
; 423  : 		}
; 424  : 	}
; 425  : 	else
; 426  : 	{
; 427  : 		CString szSTPath;

  00051	8d 4d f0	 lea	 ecx, DWORD PTR _szSTPath$4[ebp]
  00054	ff 15 00 00 00
	00		 call	 DWORD PTR __imp_??0?$CStringT@DV?$StrTraitMFC_DLL@DV?$ChTraitsCRT@D@ATL@@@@@ATL@@QAE@XZ

; 428  : 		szSTPath.GetBuffer(MAX_PATH);

  0005a	68 04 01 00 00	 push	 260			; 00000104H
  0005f	8d 4d f0	 lea	 ecx, DWORD PTR _szSTPath$4[ebp]
  00062	c6 45 fc 03	 mov	 BYTE PTR __$EHRec$[ebp+8], 3
  00066	ff 15 00 00 00
	00		 call	 DWORD PTR __imp_?GetBuffer@?$CSimpleStringT@D$00@ATL@@QAEPADH@Z

; 429  : 		if(::SendMessage(m_hParentUsr,RMSG_STSAVETOUSERST,(WPARAM)0L,(LPARAM)&szSTPath) == 1L) {

  0006c	8b 3d 00 00 00
	00		 mov	 edi, DWORD PTR __imp__SendMessageA@16
  00072	8d 45 f0	 lea	 eax, DWORD PTR _szSTPath$4[ebp]
  00075	50		 push	 eax
  00076	6a 00		 push	 0
  00078	ff 35 00 00 00
	00		 push	 DWORD PTR ?RMSG_STSAVETOUSERST@@3IB
  0007e	ff b6 e8 04 00
	00		 push	 DWORD PTR [esi+1256]
  00084	ff d7		 call	 edi
  00086	83 f8 01	 cmp	 eax, 1
  00089	0f 85 ed 00 00
	00		 jne	 $LN6@ApplyConfi

; 430  : 			szSTPath.ReleaseBuffer();

  0008f	6a ff		 push	 -1
  00091	8d 4d f0	 lea	 ecx, DWORD PTR _szSTPath$4[ebp]
  00094	ff 15 00 00 00
	00		 call	 DWORD PTR __imp_?ReleaseBuffer@?$CSimpleStringT@D$00@ATL@@QAEXH@Z

; 431  : 			m_szSTPath = szSTPath;

  0009a	8d 45 f0	 lea	 eax, DWORD PTR _szSTPath$4[ebp]
  0009d	50		 push	 eax
  0009e	8d 8e 00 05 00
	00		 lea	 ecx, DWORD PTR [esi+1280]
  000a4	ff 15 00 00 00
	00		 call	 DWORD PTR __imp_??4?$CStringT@DV?$StrTraitMFC_DLL@DV?$ChTraitsCRT@D@ATL@@@@@ATL@@QAEAAV01@ABV01@@Z

; 432  : 			SaveConfig();

  000aa	8b ce		 mov	 ecx, esi
  000ac	e8 00 00 00 00	 call	 ?SaveConfig@CDlgSTOption@@QAEXXZ ; CDlgSTOption::SaveConfig

; 217  : 	if(m_pSTControllerD)

  000b1	8b 8e bc 04 00
	00		 mov	 ecx, DWORD PTR [esi+1212]
  000b7	85 c9		 test	 ecx, ecx
  000b9	74 0b		 je	 SHORT $LN24@ApplyConfi

; 218  : 	{
; 219  : 		return m_pSTControllerD->GetSfgPath();

  000bb	8b 01		 mov	 eax, DWORD PTR [ecx]
  000bd	8d 55 e8	 lea	 edx, DWORD PTR $T2[ebp]
  000c0	52		 push	 edx
  000c1	ff 50 28	 call	 DWORD PTR [eax+40]
  000c4	eb 10		 jmp	 SHORT $LN23@ApplyConfi
$LN24@ApplyConfi:

; 220  : 	}
; 221  : 	return m_strSfgName;

  000c6	8d 86 c4 04 00
	00		 lea	 eax, DWORD PTR [esi+1220]
  000cc	50		 push	 eax
  000cd	8d 4d e8	 lea	 ecx, DWORD PTR $T2[ebp]
  000d0	ff 15 00 00 00
	00		 call	 DWORD PTR __imp_??0?$CStringT@DV?$StrTraitMFC_DLL@DV?$ChTraitsCRT@D@ATL@@@@@ATL@@QAE@ABV01@@Z
$LN23@ApplyConfi:

; 433  : 			szPath = GetSfgPath();

  000d6	c6 45 fc 04	 mov	 BYTE PTR __$EHRec$[ebp+8], 4

; 434  : 			::SendMessage(m_hParentUsr,RMSG_STCONFIGURENAME,(WPARAM)(LPCTSTR)szPath,1);
; 435  : 			//::SendMessage(m_hParentUsr,RMSG_STCONFIGURENAME,(WPARAM)(LPCTSTR)m_szSTPath,1);
; 436  : 		}
; 437  : 	}

  000da	eb 77		 jmp	 SHORT $LN31@ApplyConfi
$LN4@ApplyConfi:

; 411  : 	{
; 412  : 		CString strName;

  000dc	8d 4d f0	 lea	 ecx, DWORD PTR _strName$5[ebp]
  000df	ff 15 00 00 00
	00		 call	 DWORD PTR __imp_??0?$CStringT@DV?$StrTraitMFC_DLL@DV?$ChTraitsCRT@D@ATL@@@@@ATL@@QAE@XZ

; 413  : 		if(m_pTabBasic)

  000e5	8b 8e c0 04 00
	00		 mov	 ecx, DWORD PTR [esi+1216]
  000eb	c6 45 fc 01	 mov	 BYTE PTR __$EHRec$[ebp+8], 1
  000ef	85 c9		 test	 ecx, ecx
  000f1	74 0f		 je	 SHORT $LN5@ApplyConfi

; 414  : 		{
; 415  : 			m_pTabBasic->m_editName.GetWindowText(strName);

  000f3	8d 45 f0	 lea	 eax, DWORD PTR _strName$5[ebp]
  000f6	81 c1 b0 01 00
	00		 add	 ecx, 432		; 000001b0H
  000fc	50		 push	 eax
  000fd	e8 00 00 00 00	 call	 ?GetWindowTextA@CWnd@@QBEXAAV?$CStringT@DV?$StrTraitMFC_DLL@DV?$ChTraitsCRT@D@ATL@@@@@ATL@@@Z ; CWnd::GetWindowTextA
$LN5@ApplyConfi:

; 416  : 		}	
; 417  : 		BOOL bRetValue = ::SendMessage(m_hParentUsr,RMSG_VERIFYSCRIPTNAME,m_nType,(LPARAM)(LPCTSTR)strName);

  00102	ff 75 f0	 push	 DWORD PTR _strName$5[ebp]
  00105	8b 3d 00 00 00
	00		 mov	 edi, DWORD PTR __imp__SendMessageA@16
  0010b	ff b6 c8 04 00
	00		 push	 DWORD PTR [esi+1224]
  00111	ff 35 00 00 00
	00		 push	 DWORD PTR ?RMSG_VERIFYSCRIPTNAME@@3IB
  00117	ff b6 e8 04 00
	00		 push	 DWORD PTR [esi+1256]
  0011d	ff d7		 call	 edi

; 418  : 		if(bRetValue) 

  0011f	85 c0		 test	 eax, eax
  00121	74 59		 je	 SHORT $LN6@ApplyConfi

; 419  : 		{
; 420  : 			SaveConfig();

  00123	8b ce		 mov	 ecx, esi
  00125	e8 00 00 00 00	 call	 ?SaveConfig@CDlgSTOption@@QAEXXZ ; CDlgSTOption::SaveConfig

; 217  : 	if(m_pSTControllerD)

  0012a	8b 8e bc 04 00
	00		 mov	 ecx, DWORD PTR [esi+1212]
  00130	85 c9		 test	 ecx, ecx
  00132	74 0b		 je	 SHORT $LN17@ApplyConfi

; 218  : 	{
; 219  : 		return m_pSTControllerD->GetSfgPath();

  00134	8b 01		 mov	 eax, DWORD PTR [ecx]
  00136	8d 55 e8	 lea	 edx, DWORD PTR $T3[ebp]
  00139	52		 push	 edx
  0013a	ff 50 28	 call	 DWORD PTR [eax+40]
  0013d	eb 10		 jmp	 SHORT $LN16@ApplyConfi
$LN17@ApplyConfi:

; 220  : 	}
; 221  : 	return m_strSfgName;

  0013f	8d 86 c4 04 00
	00		 lea	 eax, DWORD PTR [esi+1220]
  00145	50		 push	 eax
  00146	8d 4d e8	 lea	 ecx, DWORD PTR $T3[ebp]
  00149	ff 15 00 00 00
	00		 call	 DWORD PTR __imp_??0?$CStringT@DV?$StrTraitMFC_DLL@DV?$ChTraitsCRT@D@ATL@@@@@ATL@@QAE@ABV01@@Z
$LN16@ApplyConfi:

; 421  : 			szPath = GetSfgPath();

  0014f	c6 45 fc 02	 mov	 BYTE PTR __$EHRec$[ebp+8], 2
$LN31@ApplyConfi:

; 438  : }

  00153	8d 45 e8	 lea	 eax, DWORD PTR $T3[ebp]
  00156	50		 push	 eax
  00157	8d 4d ec	 lea	 ecx, DWORD PTR _szPath$[ebp]
  0015a	ff 15 00 00 00
	00		 call	 DWORD PTR __imp_??4?$CStringT@DV?$StrTraitMFC_DLL@DV?$ChTraitsCRT@D@ATL@@@@@ATL@@QAEAAV01@ABV01@@Z
  00160	8d 4d e8	 lea	 ecx, DWORD PTR $T3[ebp]
  00163	ff 15 00 00 00
	00		 call	 DWORD PTR __imp_??1?$CStringT@DV?$StrTraitMFC_DLL@DV?$ChTraitsCRT@D@ATL@@@@@ATL@@QAE@XZ
  00169	6a 01		 push	 1
  0016b	ff 75 ec	 push	 DWORD PTR _szPath$[ebp]
  0016e	ff 35 00 00 00
	00		 push	 DWORD PTR ?RMSG_STCONFIGURENAME@@3IB
  00174	ff b6 e8 04 00
	00		 push	 DWORD PTR [esi+1256]
  0017a	ff d7		 call	 edi
$LN6@ApplyConfi:
  0017c	8d 4d f0	 lea	 ecx, DWORD PTR _strName$5[ebp]
  0017f	ff 15 00 00 00
	00		 call	 DWORD PTR __imp_??1?$CStringT@DV?$StrTraitMFC_DLL@DV?$ChTraitsCRT@D@ATL@@@@@ATL@@QAE@XZ
  00185	8d 4d ec	 lea	 ecx, DWORD PTR _szPath$[ebp]
  00188	ff 15 00 00 00
	00		 call	 DWORD PTR __imp_??1?$CStringT@DV?$StrTraitMFC_DLL@DV?$ChTraitsCRT@D@ATL@@@@@ATL@@QAE@XZ
  0018e	8b 4d f4	 mov	 ecx, DWORD PTR __$EHRec$[ebp]
  00191	64 89 0d 00 00
	00 00		 mov	 DWORD PTR fs:0, ecx
  00198	59		 pop	 ecx
  00199	5f		 pop	 edi
  0019a	5e		 pop	 esi
  0019b	8b e5		 mov	 esp, ebp
  0019d	5d		 pop	 ebp
  0019e	c3		 ret	 0
_TEXT	ENDS
;	COMDAT text$x
text$x	SEGMENT
__unwindfunclet$?ApplyConfig@CDlgSTOption@@QAEXXZ$0:
  00000	8d 4d ec	 lea	 ecx, DWORD PTR _szPath$[ebp]
  00003	ff 25 00 00 00
	00		 jmp	 DWORD PTR __imp_??1?$CStringT@DV?$StrTraitMFC_DLL@DV?$ChTraitsCRT@D@ATL@@@@@ATL@@QAE@XZ
__unwindfunclet$?ApplyConfig@CDlgSTOption@@QAEXXZ$3:
  00009	8d 4d f0	 lea	 ecx, DWORD PTR _szSTPath$4[ebp]
  0000c	ff 25 00 00 00
	00		 jmp	 DWORD PTR __imp_??1?$CStringT@DV?$StrTraitMFC_DLL@DV?$ChTraitsCRT@D@ATL@@@@@ATL@@QAE@XZ
__unwindfunclet$?ApplyConfig@CDlgSTOption@@QAEXXZ$4:
  00012	8d 4d e8	 lea	 ecx, DWORD PTR $T2[ebp]
  00015	ff 25 00 00 00
	00		 jmp	 DWORD PTR __imp_??1?$CStringT@DV?$StrTraitMFC_DLL@DV?$ChTraitsCRT@D@ATL@@@@@ATL@@QAE@XZ
__unwindfunclet$?ApplyConfig@CDlgSTOption@@QAEXXZ$1:
  0001b	8d 4d f0	 lea	 ecx, DWORD PTR _strName$5[ebp]
  0001e	ff 25 00 00 00
	00		 jmp	 DWORD PTR __imp_??1?$CStringT@DV?$StrTraitMFC_DLL@DV?$ChTraitsCRT@D@ATL@@@@@ATL@@QAE@XZ
__unwindfunclet$?ApplyConfig@CDlgSTOption@@QAEXXZ$2:
  00024	8d 4d e8	 lea	 ecx, DWORD PTR $T3[ebp]
  00027	ff 25 00 00 00
	00		 jmp	 DWORD PTR __imp_??1?$CStringT@DV?$StrTraitMFC_DLL@DV?$ChTraitsCRT@D@ATL@@@@@ATL@@QAE@XZ
  0002d	cc		 int	 3
  0002e	cc		 int	 3
  0002f	cc		 int	 3
  00030	cc		 int	 3
  00031	cc		 int	 3
__ehhandler$?ApplyConfig@CDlgSTOption@@QAEXXZ:
  00032	90		 npad	 1
  00033	90		 npad	 1
  00034	8b 54 24 08	 mov	 edx, DWORD PTR [esp+8]
  00038	8d 42 0c	 lea	 eax, DWORD PTR [edx+12]
  0003b	8b 4a e8	 mov	 ecx, DWORD PTR [edx-24]
  0003e	33 c8		 xor	 ecx, eax
  00040	e8 00 00 00 00	 call	 @__security_check_cookie@4
  00045	b8 00 00 00 00	 mov	 eax, OFFSET __ehfuncinfo$?ApplyConfig@CDlgSTOption@@QAEXXZ
  0004a	e9 00 00 00 00	 jmp	 ___CxxFrameHandler3
text$x	ENDS
?ApplyConfig@CDlgSTOption@@QAEXXZ ENDP			; CDlgSTOption::ApplyConfig
; Function compile flags: /Ogtp
; File D:\git\src\IBK\IBK_DRFN\ProjSrc\SrcDrfn\Chart\STCONFIGUREDLG\DlgSTOption.cpp
; File C:\Program Files (x86)\Microsoft Visual Studio\2019\Community\VC\Tools\MSVC\14.29.30133\atlmfc\include\afxtempl.h
; File D:\git\src\IBK\IBK_DRFN\ProjSrc\SrcDrfn\Chart\STCONFIGUREDLG\DlgSTOption.cpp
; File C:\Program Files (x86)\Microsoft Visual Studio\2019\Community\VC\Tools\MSVC\14.29.30133\atlmfc\include\afxtempl.h
; File D:\git\src\IBK\IBK_DRFN\ProjSrc\SrcDrfn\Chart\STCONFIGUREDLG\DlgSTOption.cpp
;	COMDAT ?ChangeConfigureInfo@CDlgSTOption@@QAEXXZ
_TEXT	SEGMENT
?ChangeConfigureInfo@CDlgSTOption@@QAEXXZ PROC		; CDlgSTOption::ChangeConfigureInfo, COMDAT
; _this$ = ecx

; 175  : {

  00000	57		 push	 edi
  00001	8b f9		 mov	 edi, ecx

; 176  : 	if(m_nOpenType == 0) {

  00003	83 bf fc 04 00
	00 00		 cmp	 DWORD PTR [edi+1276], 0
  0000a	75 3a		 jne	 SHORT $LN5@ChangeConf

; 177  : 		CRscDlg *pTabDlg = NULL;
; 178  : 		int nSize = m_arrayTab.GetSize();

  0000c	53		 push	 ebx
  0000d	8b 9f b0 04 00
	00		 mov	 ebx, DWORD PTR [edi+1200]
  00013	56		 push	 esi

; 179  : 		for(int nPos=0;nPos<nSize;nPos++)

  00014	33 f6		 xor	 esi, esi
  00016	85 db		 test	 ebx, ebx
  00018	7e 28		 jle	 SHORT $LN17@ChangeConf
  0001a	66 0f 1f 44 00
	00		 npad	 6
$LL4@ChangeConf:
; File C:\Program Files (x86)\Microsoft Visual Studio\2019\Community\VC\Tools\MSVC\14.29.30133\atlmfc\include\afxtempl.h

; 288  : 	if(nIndex >= 0 && nIndex < m_nSize)

  00020	85 f6		 test	 esi, esi
  00022	78 32		 js	 SHORT $LN10@ChangeConf
  00024	3b b7 b0 04 00
	00		 cmp	 esi, DWORD PTR [edi+1200]
  0002a	7d 2a		 jge	 SHORT $LN10@ChangeConf
; File D:\git\src\IBK\IBK_DRFN\ProjSrc\SrcDrfn\Chart\STCONFIGUREDLG\DlgSTOption.cpp

; 181  : 			pTabDlg = m_arrayTab.GetAt(nPos);

  0002c	8b 87 ac 04 00
	00		 mov	 eax, DWORD PTR [edi+1196]
  00032	8b 0c b0	 mov	 ecx, DWORD PTR [eax+esi*4]

; 182  : 			pTabDlg->LoadInfo();

  00035	8b 01		 mov	 eax, DWORD PTR [ecx]
  00037	ff 90 94 01 00
	00		 call	 DWORD PTR [eax+404]
  0003d	46		 inc	 esi
  0003e	3b f3		 cmp	 esi, ebx
  00040	7c de		 jl	 SHORT $LL4@ChangeConf
$LN17@ChangeConf:
  00042	5e		 pop	 esi
  00043	5b		 pop	 ebx
$LN7@ChangeConf:
  00044	5f		 pop	 edi

; 189  : }

  00045	c3		 ret	 0
$LN5@ChangeConf:

; 183  : 		}
; 184  : 	}
; 185  : 	else {
; 186  : 		if(m_pSTConfig)

  00046	8b 8f f8 04 00
	00		 mov	 ecx, DWORD PTR [edi+1272]
  0004c	85 c9		 test	 ecx, ecx
  0004e	74 f4		 je	 SHORT $LN7@ChangeConf

; 187  : 			m_pSTConfig->ReloadInfo();

  00050	5f		 pop	 edi
  00051	e9 00 00 00 00	 jmp	 ?ReloadInfo@CDlgSTConfig@@QAEXXZ ; CDlgSTConfig::ReloadInfo
$LN10@ChangeConf:
; File C:\Program Files (x86)\Microsoft Visual Studio\2019\Community\VC\Tools\MSVC\14.29.30133\atlmfc\include\afxtempl.h

; 290  : 	AfxThrowInvalidArgException();

  00056	e8 00 00 00 00	 call	 ?AfxThrowInvalidArgException@@YGXXZ ; AfxThrowInvalidArgException
$LN20@ChangeConf:
  0005b	cc		 int	 3
?ChangeConfigureInfo@CDlgSTOption@@QAEXXZ ENDP		; CDlgSTOption::ChangeConfigureInfo
_TEXT	ENDS
; Function compile flags: /Ogtp
; File D:\git\src\IBK\IBK_DRFN\ProjSrc\SrcDrfn\Chart\STCONFIGUREDLG\DlgSTOption.cpp
; File C:\Program Files (x86)\Microsoft Visual Studio\2019\Community\VC\Tools\MSVC\14.29.30133\atlmfc\include\afxtempl.h
; File C:\Program Files (x86)\Microsoft Visual Studio\2019\Community\VC\Tools\MSVC\14.29.30133\atlmfc\include\afxwin2.inl
; File D:\git\src\IBK\IBK_DRFN\ProjSrc\SrcDrfn\Chart\STCONFIGUREDLG\DlgSTOption.cpp
; File C:\Program Files (x86)\Microsoft Visual Studio\2019\Community\VC\Tools\MSVC\14.29.30133\atlmfc\include\afxtempl.h
; File D:\git\src\IBK\IBK_DRFN\ProjSrc\SrcDrfn\Chart\STCONFIGUREDLG\DlgSTOption.cpp
;	COMDAT ?DeleteConfig@CDlgSTOption@@QAEXXZ
_TEXT	SEGMENT
?DeleteConfig@CDlgSTOption@@QAEXXZ PROC			; CDlgSTOption::DeleteConfig, COMDAT
; _this$ = ecx

; 364  : {

  00000	57		 push	 edi
  00001	8b f9		 mov	 edi, ecx

; 365  : 	if(m_nOpenType == 0) {

  00003	83 bf fc 04 00
	00 00		 cmp	 DWORD PTR [edi+1276], 0
  0000a	75 42		 jne	 SHORT $LN3@DeleteConf

; 366  : 		CRscDlg *pTabDlg = NULL;
; 367  : 		int nSize = m_arrayTab.GetSize();

  0000c	53		 push	 ebx
  0000d	8b 9f b0 04 00
	00		 mov	 ebx, DWORD PTR [edi+1200]
  00013	56		 push	 esi

; 369  : 		for(int nPos=0;nPos<nSize;nPos++)

  00014	33 f6		 xor	 esi, esi
  00016	85 db		 test	 ebx, ebx
  00018	7e 32		 jle	 SHORT $LN17@DeleteConf
  0001a	66 0f 1f 44 00
	00		 npad	 6
$LL4@DeleteConf:
; File C:\Program Files (x86)\Microsoft Visual Studio\2019\Community\VC\Tools\MSVC\14.29.30133\atlmfc\include\afxtempl.h

; 288  : 	if(nIndex >= 0 && nIndex < m_nSize)

  00020	85 f6		 test	 esi, esi
  00022	78 2c		 js	 SHORT $LN8@DeleteConf
  00024	3b b7 b0 04 00
	00		 cmp	 esi, DWORD PTR [edi+1200]
  0002a	7d 24		 jge	 SHORT $LN8@DeleteConf
; File C:\Program Files (x86)\Microsoft Visual Studio\2019\Community\VC\Tools\MSVC\14.29.30133\atlmfc\include\afxwin2.inl

; 32   : 	{ ASSERT(::IsWindow(m_hWnd)); return ::SendMessage(m_hWnd, message, wParam, lParam); }

  0002c	8b 87 ac 04 00
	00		 mov	 eax, DWORD PTR [edi+1196]
  00032	6a 00		 push	 0
  00034	6a 00		 push	 0
  00036	68 04 04 00 00	 push	 1028			; 00000404H
  0003b	8b 04 b0	 mov	 eax, DWORD PTR [eax+esi*4]
  0003e	ff 70 20	 push	 DWORD PTR [eax+32]
  00041	ff 15 00 00 00
	00		 call	 DWORD PTR __imp__SendMessageA@16
; File D:\git\src\IBK\IBK_DRFN\ProjSrc\SrcDrfn\Chart\STCONFIGUREDLG\DlgSTOption.cpp

; 369  : 		for(int nPos=0;nPos<nSize;nPos++)

  00047	46		 inc	 esi
  00048	3b f3		 cmp	 esi, ebx
  0004a	7c d4		 jl	 SHORT $LL4@DeleteConf
$LN17@DeleteConf:
  0004c	5e		 pop	 esi
  0004d	5b		 pop	 ebx
$LN3@DeleteConf:
  0004e	5f		 pop	 edi

; 375  : }

  0004f	c3		 ret	 0
$LN8@DeleteConf:
; File C:\Program Files (x86)\Microsoft Visual Studio\2019\Community\VC\Tools\MSVC\14.29.30133\atlmfc\include\afxtempl.h

; 290  : 	AfxThrowInvalidArgException();

  00050	e8 00 00 00 00	 call	 ?AfxThrowInvalidArgException@@YGXXZ ; AfxThrowInvalidArgException
$LN19@DeleteConf:
  00055	cc		 int	 3
?DeleteConfig@CDlgSTOption@@QAEXXZ ENDP			; CDlgSTOption::DeleteConfig
_TEXT	ENDS
; Function compile flags: /Ogtp
; File D:\git\src\IBK\IBK_DRFN\ProjSrc\SrcDrfn\Chart\STCONFIGUREDLG\DlgSTOption.cpp
; File C:\Program Files (x86)\Microsoft Visual Studio\2019\Community\VC\Tools\MSVC\14.29.30133\atlmfc\include\afxtempl.h
; File D:\git\src\IBK\IBK_DRFN\ProjSrc\SrcDrfn\Chart\STCONFIGUREDLG\DlgSTOption.cpp
; File C:\Program Files (x86)\Microsoft Visual Studio\2019\Community\VC\Tools\MSVC\14.29.30133\atlmfc\include\afxwin2.inl
; File D:\git\src\IBK\IBK_DRFN\ProjSrc\SrcDrfn\Chart\STCONFIGUREDLG\DlgSTOption.cpp
; File C:\Program Files (x86)\Microsoft Visual Studio\2019\Community\VC\Tools\MSVC\14.29.30133\atlmfc\include\afxwin2.inl
; File D:\git\src\IBK\IBK_DRFN\ProjSrc\SrcDrfn\Chart\STCONFIGUREDLG\DlgSTOption.cpp
; File C:\Program Files (x86)\Microsoft Visual Studio\2019\Community\VC\Tools\MSVC\14.29.30133\atlmfc\include\afxwin2.inl
; File D:\git\src\IBK\IBK_DRFN\ProjSrc\SrcDrfn\Chart\STCONFIGUREDLG\DlgSTOption.cpp
; File C:\Program Files (x86)\Microsoft Visual Studio\2019\Community\VC\Tools\MSVC\14.29.30133\atlmfc\include\afxtempl.h
; File D:\git\src\IBK\IBK_DRFN\ProjSrc\SrcDrfn\Chart\STCONFIGUREDLG\DlgSTOption.cpp
;	COMDAT ?SaveConfig@CDlgSTOption@@QAEXXZ
_TEXT	SEGMENT
?SaveConfig@CDlgSTOption@@QAEXXZ PROC			; CDlgSTOption::SaveConfig, COMDAT
; _this$ = ecx

; 340  : {

  00000	57		 push	 edi
  00001	8b f9		 mov	 edi, ecx

; 341  : 	if(m_nOpenType == 0) {

  00003	83 bf fc 04 00
	00 00		 cmp	 DWORD PTR [edi+1276], 0
  0000a	75 69		 jne	 SHORT $LN5@SaveConfig

; 342  : 		CRscDlg *pTabDlg = NULL;
; 343  : 		int nSize = m_arrayTab.GetSize();

  0000c	53		 push	 ebx
  0000d	8b 9f b0 04 00
	00		 mov	 ebx, DWORD PTR [edi+1200]
  00013	56		 push	 esi

; 344  : 		BOOL bRetValue = FALSE;
; 345  : 		for(int nPos=0;nPos<nSize;nPos++)

  00014	33 f6		 xor	 esi, esi
  00016	85 db		 test	 ebx, ebx
  00018	7e 36		 jle	 SHORT $LN25@SaveConfig
  0001a	66 0f 1f 44 00
	00		 npad	 6
$LL4@SaveConfig:
; File C:\Program Files (x86)\Microsoft Visual Studio\2019\Community\VC\Tools\MSVC\14.29.30133\atlmfc\include\afxtempl.h

; 288  : 	if(nIndex >= 0 && nIndex < m_nSize)

  00020	85 f6		 test	 esi, esi
  00022	78 6f		 js	 SHORT $LN11@SaveConfig
  00024	3b b7 b0 04 00
	00		 cmp	 esi, DWORD PTR [edi+1200]
  0002a	7d 67		 jge	 SHORT $LN11@SaveConfig
; File D:\git\src\IBK\IBK_DRFN\ProjSrc\SrcDrfn\Chart\STCONFIGUREDLG\DlgSTOption.cpp

; 347  : 			pTabDlg = m_arrayTab.GetAt(nPos);

  0002c	8b 87 ac 04 00
	00		 mov	 eax, DWORD PTR [edi+1196]
; File C:\Program Files (x86)\Microsoft Visual Studio\2019\Community\VC\Tools\MSVC\14.29.30133\atlmfc\include\afxwin2.inl

; 32   : 	{ ASSERT(::IsWindow(m_hWnd)); return ::SendMessage(m_hWnd, message, wParam, lParam); }

  00032	6a 00		 push	 0
  00034	6a 00		 push	 0
  00036	68 03 04 00 00	 push	 1027			; 00000403H
; File D:\git\src\IBK\IBK_DRFN\ProjSrc\SrcDrfn\Chart\STCONFIGUREDLG\DlgSTOption.cpp

; 347  : 			pTabDlg = m_arrayTab.GetAt(nPos);

  0003b	8b 04 b0	 mov	 eax, DWORD PTR [eax+esi*4]
; File C:\Program Files (x86)\Microsoft Visual Studio\2019\Community\VC\Tools\MSVC\14.29.30133\atlmfc\include\afxwin2.inl

; 32   : 	{ ASSERT(::IsWindow(m_hWnd)); return ::SendMessage(m_hWnd, message, wParam, lParam); }

  0003e	ff 70 20	 push	 DWORD PTR [eax+32]
  00041	ff 15 00 00 00
	00		 call	 DWORD PTR __imp__SendMessageA@16
; File D:\git\src\IBK\IBK_DRFN\ProjSrc\SrcDrfn\Chart\STCONFIGUREDLG\DlgSTOption.cpp

; 349  : 			if(!bRetValue)

  00047	85 c0		 test	 eax, eax
  00049	74 09		 je	 SHORT $LN21@SaveConfig

; 344  : 		BOOL bRetValue = FALSE;
; 345  : 		for(int nPos=0;nPos<nSize;nPos++)

  0004b	46		 inc	 esi
  0004c	3b f3		 cmp	 esi, ebx
  0004e	7c d0		 jl	 SHORT $LL4@SaveConfig
$LN25@SaveConfig:
  00050	5e		 pop	 esi
  00051	5b		 pop	 ebx
$LN8@SaveConfig:
  00052	5f		 pop	 edi

; 361  : }

  00053	c3		 ret	 0
$LN21@SaveConfig:

; 350  : 			{
; 351  : 				m_tabCtrl.SelectTab(nPos);

  00054	56		 push	 esi
  00055	8d 8f a0 03 00
	00		 lea	 ecx, DWORD PTR [edi+928]
  0005b	e8 00 00 00 00	 call	 ?SelectTab@CXTabCtrl@@QAEHH@Z ; CXTabCtrl::SelectTab

; 352  : 				MessageBox(m_strErrorMessage);

  00060	6a 00		 push	 0
  00062	6a 00		 push	 0
  00064	ff b7 e4 04 00
	00		 push	 DWORD PTR [edi+1252]
  0006a	8b cf		 mov	 ecx, edi
  0006c	e8 00 00 00 00	 call	 ?MessageBoxA@CWnd@@QAEHPBD0I@Z ; CWnd::MessageBoxA
  00071	5e		 pop	 esi
  00072	5b		 pop	 ebx
  00073	5f		 pop	 edi

; 361  : }

  00074	c3		 ret	 0
$LN5@SaveConfig:

; 353  : 				return;
; 354  : 			}
; 355  : 		}
; 356  : 	}
; 357  : 	else {
; 358  : 		if(m_pSTConfig)

  00075	8b 87 f8 04 00
	00		 mov	 eax, DWORD PTR [edi+1272]
  0007b	85 c0		 test	 eax, eax
  0007d	74 d3		 je	 SHORT $LN8@SaveConfig
; File C:\Program Files (x86)\Microsoft Visual Studio\2019\Community\VC\Tools\MSVC\14.29.30133\atlmfc\include\afxwin2.inl

; 32   : 	{ ASSERT(::IsWindow(m_hWnd)); return ::SendMessage(m_hWnd, message, wParam, lParam); }

  0007f	6a 00		 push	 0
  00081	6a 00		 push	 0
  00083	68 03 04 00 00	 push	 1027			; 00000403H
  00088	ff 70 20	 push	 DWORD PTR [eax+32]
  0008b	ff 15 00 00 00
	00		 call	 DWORD PTR __imp__SendMessageA@16
  00091	5f		 pop	 edi
; File D:\git\src\IBK\IBK_DRFN\ProjSrc\SrcDrfn\Chart\STCONFIGUREDLG\DlgSTOption.cpp

; 361  : }

  00092	c3		 ret	 0
$LN11@SaveConfig:
; File C:\Program Files (x86)\Microsoft Visual Studio\2019\Community\VC\Tools\MSVC\14.29.30133\atlmfc\include\afxtempl.h

; 290  : 	AfxThrowInvalidArgException();

  00093	e8 00 00 00 00	 call	 ?AfxThrowInvalidArgException@@YGXXZ ; AfxThrowInvalidArgException
$LN27@SaveConfig:
  00098	cc		 int	 3
?SaveConfig@CDlgSTOption@@QAEXXZ ENDP			; CDlgSTOption::SaveConfig
_TEXT	ENDS
; Function compile flags: /Ogtp
; File D:\git\src\IBK\IBK_DRFN\ProjSrc\SrcDrfn\Chart\STCONFIGUREDLG\DlgSTOption.cpp
;	COMDAT ?GetSfgPath@CDlgSTOption@@QAE?AV?$CStringT@DV?$StrTraitMFC_DLL@DV?$ChTraitsCRT@D@ATL@@@@@ATL@@XZ
_TEXT	SEGMENT
___$ReturnUdt$ = 8					; size = 4
?GetSfgPath@CDlgSTOption@@QAE?AV?$CStringT@DV?$StrTraitMFC_DLL@DV?$ChTraitsCRT@D@ATL@@@@@ATL@@XZ PROC ; CDlgSTOption::GetSfgPath, COMDAT
; _this$ = ecx

; 216  : {

  00000	55		 push	 ebp
  00001	8b ec		 mov	 ebp, esp
  00003	8b c1		 mov	 eax, ecx
  00005	56		 push	 esi

; 217  : 	if(m_pSTControllerD)

  00006	8b 88 bc 04 00
	00		 mov	 ecx, DWORD PTR [eax+1212]
  0000c	85 c9		 test	 ecx, ecx
  0000e	74 10		 je	 SHORT $LN2@GetSfgPath

; 218  : 	{
; 219  : 		return m_pSTControllerD->GetSfgPath();

  00010	8b 11		 mov	 edx, DWORD PTR [ecx]
  00012	8b 75 08	 mov	 esi, DWORD PTR ___$ReturnUdt$[ebp]
  00015	56		 push	 esi
  00016	ff 52 28	 call	 DWORD PTR [edx+40]
  00019	8b c6		 mov	 eax, esi
  0001b	5e		 pop	 esi

; 222  : }

  0001c	5d		 pop	 ebp
  0001d	c2 04 00	 ret	 4
$LN2@GetSfgPath:

; 220  : 	}
; 221  : 	return m_strSfgName;

  00020	8b 4d 08	 mov	 ecx, DWORD PTR ___$ReturnUdt$[ebp]
  00023	05 c4 04 00 00	 add	 eax, 1220		; 000004c4H
  00028	50		 push	 eax
  00029	ff 15 00 00 00
	00		 call	 DWORD PTR __imp_??0?$CStringT@DV?$StrTraitMFC_DLL@DV?$ChTraitsCRT@D@ATL@@@@@ATL@@QAE@ABV01@@Z
  0002f	8b 45 08	 mov	 eax, DWORD PTR ___$ReturnUdt$[ebp]
  00032	5e		 pop	 esi

; 222  : }

  00033	5d		 pop	 ebp
  00034	c2 04 00	 ret	 4
?GetSfgPath@CDlgSTOption@@QAE?AV?$CStringT@DV?$StrTraitMFC_DLL@DV?$ChTraitsCRT@D@ATL@@@@@ATL@@XZ ENDP ; CDlgSTOption::GetSfgPath
_TEXT	ENDS
; Function compile flags: /Ogtp
; File D:\git\src\IBK\IBK_DRFN\ProjSrc\SrcDrfn\Chart\STCONFIGUREDLG\DlgSTOption.cpp
; File C:\Program Files (x86)\Microsoft Visual Studio\2019\Community\VC\Tools\MSVC\14.29.30133\atlmfc\include\atlsimpstr.h
; File D:\git\src\IBK\IBK_DRFN\ProjSrc\SrcDrfn\Chart\STCONFIGUREDLG\DlgSTOption.cpp
;	COMDAT ?WritePrivateProfileStringInST@CDlgSTOption@@QAEHPBD00H@Z
_TEXT	SEGMENT
_nPos$1$ = -24						; size = 4
_strSTName$2 = -20					; size = 4
_strAppNameSTName$3 = -16				; size = 4
__$EHRec$ = -12						; size = 12
_lpAppName$ = 8						; size = 4
_lpKeyName$ = 12					; size = 4
_lpString$ = 16						; size = 4
$T4 = 20						; size = 4
_nUseType$ = 20						; size = 4
?WritePrivateProfileStringInST@CDlgSTOption@@QAEHPBD00H@Z PROC ; CDlgSTOption::WritePrivateProfileStringInST, COMDAT
; _this$ = ecx

; 472  : {

  00000	55		 push	 ebp
  00001	8b ec		 mov	 ebp, esp
  00003	6a ff		 push	 -1
  00005	68 00 00 00 00	 push	 __ehhandler$?WritePrivateProfileStringInST@CDlgSTOption@@QAEHPBD00H@Z
  0000a	64 a1 00 00 00
	00		 mov	 eax, DWORD PTR fs:0
  00010	50		 push	 eax
  00011	83 ec 0c	 sub	 esp, 12			; 0000000cH
  00014	53		 push	 ebx
  00015	56		 push	 esi
  00016	a1 00 00 00 00	 mov	 eax, DWORD PTR ___security_cookie
  0001b	33 c5		 xor	 eax, ebp
  0001d	50		 push	 eax
  0001e	8d 45 f4	 lea	 eax, DWORD PTR __$EHRec$[ebp]
  00021	64 a3 00 00 00
	00		 mov	 DWORD PTR fs:0, eax
  00027	8b f1		 mov	 esi, ecx

; 473  : 	BOOL bRetValue = 0;
; 474  : 	if(m_pSTControllerD&&nUseType!=1)

  00029	8b 96 bc 04 00
	00		 mov	 edx, DWORD PTR [esi+1212]
  0002f	33 db		 xor	 ebx, ebx
  00031	8b ca		 mov	 ecx, edx
  00033	85 d2		 test	 edx, edx
  00035	0f 84 ba 00 00
	00		 je	 $LN2@WritePriva
  0003b	83 7d 14 01	 cmp	 DWORD PTR _nUseType$[ebp], 1
  0003f	0f 84 b4 00 00
	00		 je	 $LN24@WritePriva

; 475  : 	{
; 476  : 		CString strSTName = m_pSTControllerD->GetSTNamePath();

  00045	8b 02		 mov	 eax, DWORD PTR [edx]
  00047	8d 4d ec	 lea	 ecx, DWORD PTR _strSTName$2[ebp]
  0004a	51		 push	 ecx
  0004b	8b ca		 mov	 ecx, edx
  0004d	ff 90 24 01 00
	00		 call	 DWORD PTR [eax+292]

; 477  : 		int nPos = m_pSTControllerD->GetSTPos();

  00053	8b 8e bc 04 00
	00		 mov	 ecx, DWORD PTR [esi+1212]
  00059	89 5d fc	 mov	 DWORD PTR __$EHRec$[ebp+8], ebx
  0005c	8b 01		 mov	 eax, DWORD PTR [ecx]
  0005e	ff 90 28 01 00
	00		 call	 DWORD PTR [eax+296]
  00064	8b c8		 mov	 ecx, eax
; File C:\Program Files (x86)\Microsoft Visual Studio\2019\Community\VC\Tools\MSVC\14.29.30133\atlmfc\include\atlsimpstr.h

; 519  : 		return( GetData()->nDataLength );

  00066	8b 45 ec	 mov	 eax, DWORD PTR _strSTName$2[ebp]
; File D:\git\src\IBK\IBK_DRFN\ProjSrc\SrcDrfn\Chart\STCONFIGUREDLG\DlgSTOption.cpp

; 477  : 		int nPos = m_pSTControllerD->GetSTPos();

  00069	89 4d e8	 mov	 DWORD PTR _nPos$1$[ebp], ecx

; 478  : 		if(strSTName.GetLength()&&nPos>=0)

  0006c	39 58 f4	 cmp	 DWORD PTR [eax-12], ebx
  0006f	74 4d		 je	 SHORT $LN3@WritePriva
  00071	85 c9		 test	 ecx, ecx
  00073	78 49		 js	 SHORT $LN3@WritePriva

; 479  : 		{
; 480  : 			CString strAppNameSTName;

  00075	8d 4d f0	 lea	 ecx, DWORD PTR _strAppNameSTName$3[ebp]
  00078	ff 15 00 00 00
	00		 call	 DWORD PTR __imp_??0?$CStringT@DV?$StrTraitMFC_DLL@DV?$ChTraitsCRT@D@ATL@@@@@ATL@@QAE@XZ

; 481  : 			strAppNameSTName.Format("%s%d",lpAppName,nPos);

  0007e	ff 75 e8	 push	 DWORD PTR _nPos$1$[ebp]
  00081	8d 45 f0	 lea	 eax, DWORD PTR _strAppNameSTName$3[ebp]
  00084	c6 45 fc 01	 mov	 BYTE PTR __$EHRec$[ebp+8], 1
  00088	ff 75 08	 push	 DWORD PTR _lpAppName$[ebp]
  0008b	68 00 00 00 00	 push	 OFFSET ??_C@_04HGGBINEM@?$CFs?$CFd@
  00090	50		 push	 eax
  00091	ff 15 00 00 00
	00		 call	 DWORD PTR __imp_?Format@?$CStringT@DV?$StrTraitMFC_DLL@DV?$ChTraitsCRT@D@ATL@@@@@ATL@@QAAXPBDZZ
  00097	83 c4 10	 add	 esp, 16			; 00000010H

; 482  : //			bRetValue = ::WritePrivateProfileString(strAppNameSTName,lpKeyName,lpString,strSTName);
; 483  : 			bRetValue = ::WritePrivateProfileString(strAppNameSTName,lpKeyName,lpString,m_szSTPath);

  0009a	ff b6 00 05 00
	00		 push	 DWORD PTR [esi+1280]
  000a0	ff 75 10	 push	 DWORD PTR _lpString$[ebp]
  000a3	ff 75 0c	 push	 DWORD PTR _lpKeyName$[ebp]
  000a6	ff 75 f0	 push	 DWORD PTR _strAppNameSTName$3[ebp]
  000a9	ff 15 00 00 00
	00		 call	 DWORD PTR __imp__WritePrivateProfileStringA@16

; 484  : 		}

  000af	8d 4d f0	 lea	 ecx, DWORD PTR _strAppNameSTName$3[ebp]
  000b2	c6 45 fc 00	 mov	 BYTE PTR __$EHRec$[ebp+8], 0
  000b6	8b d8		 mov	 ebx, eax
  000b8	ff 15 00 00 00
	00		 call	 DWORD PTR __imp_??1?$CStringT@DV?$StrTraitMFC_DLL@DV?$ChTraitsCRT@D@ATL@@@@@ATL@@QAE@XZ
$LN3@WritePriva:

; 485  : 		if(nUseType==2)

  000be	83 7d 14 02	 cmp	 DWORD PTR _nUseType$[ebp], 2
  000c2	8d 4d ec	 lea	 ecx, DWORD PTR _strSTName$2[ebp]
  000c5	75 1b		 jne	 SHORT $LN4@WritePriva

; 486  : 		{
; 487  : 			return bRetValue;

  000c7	ff 15 00 00 00
	00		 call	 DWORD PTR __imp_??1?$CStringT@DV?$StrTraitMFC_DLL@DV?$ChTraitsCRT@D@ATL@@@@@ATL@@QAE@XZ
  000cd	8b c3		 mov	 eax, ebx

; 492  : 
; 493  : }

  000cf	8b 4d f4	 mov	 ecx, DWORD PTR __$EHRec$[ebp]
  000d2	64 89 0d 00 00
	00 00		 mov	 DWORD PTR fs:0, ecx
  000d9	59		 pop	 ecx
  000da	5e		 pop	 esi
  000db	5b		 pop	 ebx
  000dc	8b e5		 mov	 esp, ebp
  000de	5d		 pop	 ebp
  000df	c2 10 00	 ret	 16			; 00000010H
$LN4@WritePriva:

; 488  : 		}
; 489  : 	}

  000e2	c7 45 fc ff ff
	ff ff		 mov	 DWORD PTR __$EHRec$[ebp+8], -1
  000e9	ff 15 00 00 00
	00		 call	 DWORD PTR __imp_??1?$CStringT@DV?$StrTraitMFC_DLL@DV?$ChTraitsCRT@D@ATL@@@@@ATL@@QAE@XZ
  000ef	8b 8e bc 04 00
	00		 mov	 ecx, DWORD PTR [esi+1212]
$LN2@WritePriva:

; 217  : 	if(m_pSTControllerD)

  000f5	85 c9		 test	 ecx, ecx
  000f7	74 0b		 je	 SHORT $LN18@WritePriva
$LN24@WritePriva:

; 218  : 	{
; 219  : 		return m_pSTControllerD->GetSfgPath();

  000f9	8b 01		 mov	 eax, DWORD PTR [ecx]
  000fb	8d 55 14	 lea	 edx, DWORD PTR $T4[ebp]
  000fe	52		 push	 edx
  000ff	ff 50 28	 call	 DWORD PTR [eax+40]
  00102	eb 10		 jmp	 SHORT $LN17@WritePriva
$LN18@WritePriva:

; 220  : 	}
; 221  : 	return m_strSfgName;

  00104	8d 86 c4 04 00
	00		 lea	 eax, DWORD PTR [esi+1220]
  0010a	50		 push	 eax
  0010b	8d 4d 14	 lea	 ecx, DWORD PTR $T4[ebp]
  0010e	ff 15 00 00 00
	00		 call	 DWORD PTR __imp_??0?$CStringT@DV?$StrTraitMFC_DLL@DV?$ChTraitsCRT@D@ATL@@@@@ATL@@QAE@ABV01@@Z
$LN17@WritePriva:

; 490  : 	bRetValue = ::WritePrivateProfileString(lpAppName,lpKeyName,lpString,GetSfgPath());

  00114	ff 75 14	 push	 DWORD PTR $T4[ebp]
  00117	ff 75 10	 push	 DWORD PTR _lpString$[ebp]
  0011a	ff 75 0c	 push	 DWORD PTR _lpKeyName$[ebp]
  0011d	ff 75 08	 push	 DWORD PTR _lpAppName$[ebp]
  00120	ff 15 00 00 00
	00		 call	 DWORD PTR __imp__WritePrivateProfileStringA@16
  00126	8d 4d 14	 lea	 ecx, DWORD PTR $T4[ebp]
  00129	8b f0		 mov	 esi, eax
  0012b	ff 15 00 00 00
	00		 call	 DWORD PTR __imp_??1?$CStringT@DV?$StrTraitMFC_DLL@DV?$ChTraitsCRT@D@ATL@@@@@ATL@@QAE@XZ

; 491  : 	return bRetValue;

  00131	8b c6		 mov	 eax, esi

; 492  : 
; 493  : }

  00133	8b 4d f4	 mov	 ecx, DWORD PTR __$EHRec$[ebp]
  00136	64 89 0d 00 00
	00 00		 mov	 DWORD PTR fs:0, ecx
  0013d	59		 pop	 ecx
  0013e	5e		 pop	 esi
  0013f	5b		 pop	 ebx
  00140	8b e5		 mov	 esp, ebp
  00142	5d		 pop	 ebp
  00143	c2 10 00	 ret	 16			; 00000010H
_TEXT	ENDS
;	COMDAT text$x
text$x	SEGMENT
__unwindfunclet$?WritePrivateProfileStringInST@CDlgSTOption@@QAEHPBD00H@Z$0:
  00000	8d 4d ec	 lea	 ecx, DWORD PTR _strSTName$2[ebp]
  00003	ff 25 00 00 00
	00		 jmp	 DWORD PTR __imp_??1?$CStringT@DV?$StrTraitMFC_DLL@DV?$ChTraitsCRT@D@ATL@@@@@ATL@@QAE@XZ
__unwindfunclet$?WritePrivateProfileStringInST@CDlgSTOption@@QAEHPBD00H@Z$1:
  00009	8d 4d f0	 lea	 ecx, DWORD PTR _strAppNameSTName$3[ebp]
  0000c	ff 25 00 00 00
	00		 jmp	 DWORD PTR __imp_??1?$CStringT@DV?$StrTraitMFC_DLL@DV?$ChTraitsCRT@D@ATL@@@@@ATL@@QAE@XZ
  00012	cc		 int	 3
  00013	cc		 int	 3
  00014	cc		 int	 3
  00015	cc		 int	 3
  00016	cc		 int	 3
__ehhandler$?WritePrivateProfileStringInST@CDlgSTOption@@QAEHPBD00H@Z:
  00017	90		 npad	 1
  00018	90		 npad	 1
  00019	8b 54 24 08	 mov	 edx, DWORD PTR [esp+8]
  0001d	8d 42 0c	 lea	 eax, DWORD PTR [edx+12]
  00020	8b 4a e8	 mov	 ecx, DWORD PTR [edx-24]
  00023	33 c8		 xor	 ecx, eax
  00025	e8 00 00 00 00	 call	 @__security_check_cookie@4
  0002a	b8 00 00 00 00	 mov	 eax, OFFSET __ehfuncinfo$?WritePrivateProfileStringInST@CDlgSTOption@@QAEHPBD00H@Z
  0002f	e9 00 00 00 00	 jmp	 ___CxxFrameHandler3
text$x	ENDS
?WritePrivateProfileStringInST@CDlgSTOption@@QAEHPBD00H@Z ENDP ; CDlgSTOption::WritePrivateProfileStringInST
; Function compile flags: /Ogtp
; File D:\git\src\IBK\IBK_DRFN\ProjSrc\SrcDrfn\Chart\STCONFIGUREDLG\DlgSTOption.cpp
; File C:\Program Files (x86)\Microsoft Visual Studio\2019\Community\VC\Tools\MSVC\14.29.30133\atlmfc\include\atlsimpstr.h
; File D:\git\src\IBK\IBK_DRFN\ProjSrc\SrcDrfn\Chart\STCONFIGUREDLG\DlgSTOption.cpp
;	COMDAT ?GetPrivateProfileStringInST@CDlgSTOption@@QAEKPBD00PADKH@Z
_TEXT	SEGMENT
_szPath$ = -20						; size = 4
_strSTName$2 = -16					; size = 4
__$EHRec$ = -12						; size = 12
_lpAppName$ = 8						; size = 4
_lpKeyName$ = 12					; size = 4
_lpDefault$ = 16					; size = 4
_lpReturnedString$ = 20					; size = 4
_nSize$ = 24						; size = 4
_strAppNameSTName$3 = 28				; size = 4
_nUseType$ = 28						; size = 4
?GetPrivateProfileStringInST@CDlgSTOption@@QAEKPBD00PADKH@Z PROC ; CDlgSTOption::GetPrivateProfileStringInST, COMDAT
; _this$ = ecx

; 442  : {

  00000	55		 push	 ebp
  00001	8b ec		 mov	 ebp, esp
  00003	6a ff		 push	 -1
  00005	68 00 00 00 00	 push	 __ehhandler$?GetPrivateProfileStringInST@CDlgSTOption@@QAEKPBD00PADKH@Z
  0000a	64 a1 00 00 00
	00		 mov	 eax, DWORD PTR fs:0
  00010	50		 push	 eax
  00011	83 ec 08	 sub	 esp, 8
  00014	56		 push	 esi
  00015	57		 push	 edi
  00016	a1 00 00 00 00	 mov	 eax, DWORD PTR ___security_cookie
  0001b	33 c5		 xor	 eax, ebp
  0001d	50		 push	 eax
  0001e	8d 45 f4	 lea	 eax, DWORD PTR __$EHRec$[ebp]
  00021	64 a3 00 00 00
	00		 mov	 DWORD PTR fs:0, eax
  00027	8b f1		 mov	 esi, ecx

; 443  : 	DWORD dwSizeRead = 0;
; 444  : 	if(m_pSTControllerD&&nUseType!=1)

  00029	8b 96 bc 04 00
	00		 mov	 edx, DWORD PTR [esi+1212]
  0002f	8b ca		 mov	 ecx, edx
  00031	85 d2		 test	 edx, edx
  00033	0f 84 ba 00 00
	00		 je	 $LN2@GetPrivate
  00039	83 7d 1c 01	 cmp	 DWORD PTR _nUseType$[ebp], 1
  0003d	0f 84 b4 00 00
	00		 je	 $LN25@GetPrivate

; 445  : 	{
; 446  : 		CString strSTName = m_pSTControllerD->GetSTNamePath();

  00043	8b 02		 mov	 eax, DWORD PTR [edx]
  00045	8d 4d f0	 lea	 ecx, DWORD PTR _strSTName$2[ebp]
  00048	51		 push	 ecx
  00049	8b ca		 mov	 ecx, edx
  0004b	ff 90 24 01 00
	00		 call	 DWORD PTR [eax+292]

; 447  : 		int nPos = m_pSTControllerD->GetSTPos();

  00051	8b 8e bc 04 00
	00		 mov	 ecx, DWORD PTR [esi+1212]
  00057	c7 45 fc 00 00
	00 00		 mov	 DWORD PTR __$EHRec$[ebp+8], 0
  0005e	8b 01		 mov	 eax, DWORD PTR [ecx]
  00060	ff 90 28 01 00
	00		 call	 DWORD PTR [eax+296]
; File C:\Program Files (x86)\Microsoft Visual Studio\2019\Community\VC\Tools\MSVC\14.29.30133\atlmfc\include\atlsimpstr.h

; 519  : 		return( GetData()->nDataLength );

  00066	8b 4d f0	 mov	 ecx, DWORD PTR _strSTName$2[ebp]
; File D:\git\src\IBK\IBK_DRFN\ProjSrc\SrcDrfn\Chart\STCONFIGUREDLG\DlgSTOption.cpp

; 447  : 		int nPos = m_pSTControllerD->GetSTPos();

  00069	8b f8		 mov	 edi, eax

; 448  : 		if(strSTName.GetLength()&&nPos>=0)

  0006b	83 79 f4 00	 cmp	 DWORD PTR [ecx-12], 0
  0006f	74 6c		 je	 SHORT $LN3@GetPrivate
  00071	85 ff		 test	 edi, edi
  00073	78 68		 js	 SHORT $LN3@GetPrivate

; 449  : 		{
; 450  : 			CString strAppNameSTName;

  00075	8d 4d 1c	 lea	 ecx, DWORD PTR _strAppNameSTName$3[ebp]
  00078	ff 15 00 00 00
	00		 call	 DWORD PTR __imp_??0?$CStringT@DV?$StrTraitMFC_DLL@DV?$ChTraitsCRT@D@ATL@@@@@ATL@@QAE@XZ

; 451  : 			strAppNameSTName.Format("%s%d",lpAppName,nPos);

  0007e	57		 push	 edi
  0007f	ff 75 08	 push	 DWORD PTR _lpAppName$[ebp]
  00082	8d 45 1c	 lea	 eax, DWORD PTR _strAppNameSTName$3[ebp]
  00085	c6 45 fc 01	 mov	 BYTE PTR __$EHRec$[ebp+8], 1
  00089	68 00 00 00 00	 push	 OFFSET ??_C@_04HGGBINEM@?$CFs?$CFd@
  0008e	50		 push	 eax
  0008f	ff 15 00 00 00
	00		 call	 DWORD PTR __imp_?Format@?$CStringT@DV?$StrTraitMFC_DLL@DV?$ChTraitsCRT@D@ATL@@@@@ATL@@QAAXPBDZZ
  00095	83 c4 10	 add	 esp, 16			; 00000010H

; 452  : 			dwSizeRead = ::GetPrivateProfileString(strAppNameSTName,lpKeyName,lpDefault,lpReturnedString,nSize,strSTName);

  00098	ff 75 f0	 push	 DWORD PTR _strSTName$2[ebp]
  0009b	ff 75 18	 push	 DWORD PTR _nSize$[ebp]
  0009e	ff 75 14	 push	 DWORD PTR _lpReturnedString$[ebp]
  000a1	ff 75 10	 push	 DWORD PTR _lpDefault$[ebp]
  000a4	ff 75 0c	 push	 DWORD PTR _lpKeyName$[ebp]
  000a7	ff 75 1c	 push	 DWORD PTR _strAppNameSTName$3[ebp]
  000aa	ff 15 00 00 00
	00		 call	 DWORD PTR __imp__GetPrivateProfileStringA@24

; 453  : 			if(dwSizeRead)

  000b0	8d 4d 1c	 lea	 ecx, DWORD PTR _strAppNameSTName$3[ebp]
  000b3	8b f8		 mov	 edi, eax
  000b5	ff 15 00 00 00
	00		 call	 DWORD PTR __imp_??1?$CStringT@DV?$StrTraitMFC_DLL@DV?$ChTraitsCRT@D@ATL@@@@@ATL@@QAE@XZ
  000bb	85 ff		 test	 edi, edi
  000bd	74 1e		 je	 SHORT $LN3@GetPrivate

; 454  : 			{
; 455  : 				return dwSizeRead;

  000bf	8d 4d f0	 lea	 ecx, DWORD PTR _strSTName$2[ebp]
  000c2	ff 15 00 00 00
	00		 call	 DWORD PTR __imp_??1?$CStringT@DV?$StrTraitMFC_DLL@DV?$ChTraitsCRT@D@ATL@@@@@ATL@@QAE@XZ
  000c8	8b c7		 mov	 eax, edi

; 467  : }

  000ca	8b 4d f4	 mov	 ecx, DWORD PTR __$EHRec$[ebp]
  000cd	64 89 0d 00 00
	00 00		 mov	 DWORD PTR fs:0, ecx
  000d4	59		 pop	 ecx
  000d5	5f		 pop	 edi
  000d6	5e		 pop	 esi
  000d7	8b e5		 mov	 esp, ebp
  000d9	5d		 pop	 ebp
  000da	c2 18 00	 ret	 24			; 00000018H
$LN3@GetPrivate:

; 456  : 			}
; 457  : 		}
; 458  : 	}

  000dd	8d 4d f0	 lea	 ecx, DWORD PTR _strSTName$2[ebp]
  000e0	c7 45 fc ff ff
	ff ff		 mov	 DWORD PTR __$EHRec$[ebp+8], -1
  000e7	ff 15 00 00 00
	00		 call	 DWORD PTR __imp_??1?$CStringT@DV?$StrTraitMFC_DLL@DV?$ChTraitsCRT@D@ATL@@@@@ATL@@QAE@XZ
  000ed	8b 8e bc 04 00
	00		 mov	 ecx, DWORD PTR [esi+1212]
$LN2@GetPrivate:

; 217  : 	if(m_pSTControllerD)

  000f3	85 c9		 test	 ecx, ecx
  000f5	74 0b		 je	 SHORT $LN19@GetPrivate
$LN25@GetPrivate:

; 218  : 	{
; 219  : 		return m_pSTControllerD->GetSfgPath();

  000f7	8b 01		 mov	 eax, DWORD PTR [ecx]
  000f9	8d 55 ec	 lea	 edx, DWORD PTR _szPath$[ebp]
  000fc	52		 push	 edx
  000fd	ff 50 28	 call	 DWORD PTR [eax+40]
  00100	eb 10		 jmp	 SHORT $LN18@GetPrivate
$LN19@GetPrivate:

; 220  : 	}
; 221  : 	return m_strSfgName;

  00102	8d 86 c4 04 00
	00		 lea	 eax, DWORD PTR [esi+1220]
  00108	50		 push	 eax
  00109	8d 4d ec	 lea	 ecx, DWORD PTR _szPath$[ebp]
  0010c	ff 15 00 00 00
	00		 call	 DWORD PTR __imp_??0?$CStringT@DV?$StrTraitMFC_DLL@DV?$ChTraitsCRT@D@ATL@@@@@ATL@@QAE@ABV01@@Z
$LN18@GetPrivate:

; 459  : 
; 460  : 	CString szPath = GetSfgPath();
; 461  : 	dwSizeRead = ::GetPrivateProfileString(lpAppName,lpKeyName,lpDefault,lpReturnedString,nSize,szPath);

  00112	ff 75 ec	 push	 DWORD PTR _szPath$[ebp]
  00115	ff 75 18	 push	 DWORD PTR _nSize$[ebp]
  00118	ff 75 14	 push	 DWORD PTR _lpReturnedString$[ebp]
  0011b	ff 75 10	 push	 DWORD PTR _lpDefault$[ebp]
  0011e	ff 75 0c	 push	 DWORD PTR _lpKeyName$[ebp]
  00121	ff 75 08	 push	 DWORD PTR _lpAppName$[ebp]
  00124	ff 15 00 00 00
	00		 call	 DWORD PTR __imp__GetPrivateProfileStringA@24

; 462  : 	if(!dwSizeRead)
; 463  : 	{
; 464  : 		lpReturnedString = (LPTSTR)lpDefault;
; 465  : 	}
; 466  : 	return dwSizeRead;

  0012a	8d 4d ec	 lea	 ecx, DWORD PTR _szPath$[ebp]
  0012d	8b f0		 mov	 esi, eax
  0012f	ff 15 00 00 00
	00		 call	 DWORD PTR __imp_??1?$CStringT@DV?$StrTraitMFC_DLL@DV?$ChTraitsCRT@D@ATL@@@@@ATL@@QAE@XZ
  00135	8b c6		 mov	 eax, esi

; 467  : }

  00137	8b 4d f4	 mov	 ecx, DWORD PTR __$EHRec$[ebp]
  0013a	64 89 0d 00 00
	00 00		 mov	 DWORD PTR fs:0, ecx
  00141	59		 pop	 ecx
  00142	5f		 pop	 edi
  00143	5e		 pop	 esi
  00144	8b e5		 mov	 esp, ebp
  00146	5d		 pop	 ebp
  00147	c2 18 00	 ret	 24			; 00000018H
_TEXT	ENDS
;	COMDAT text$x
text$x	SEGMENT
__unwindfunclet$?GetPrivateProfileStringInST@CDlgSTOption@@QAEKPBD00PADKH@Z$0:
  00000	8d 4d f0	 lea	 ecx, DWORD PTR _strSTName$2[ebp]
  00003	ff 25 00 00 00
	00		 jmp	 DWORD PTR __imp_??1?$CStringT@DV?$StrTraitMFC_DLL@DV?$ChTraitsCRT@D@ATL@@@@@ATL@@QAE@XZ
__unwindfunclet$?GetPrivateProfileStringInST@CDlgSTOption@@QAEKPBD00PADKH@Z$1:
  00009	8d 4d 1c	 lea	 ecx, DWORD PTR _strAppNameSTName$3[ebp]
  0000c	ff 25 00 00 00
	00		 jmp	 DWORD PTR __imp_??1?$CStringT@DV?$StrTraitMFC_DLL@DV?$ChTraitsCRT@D@ATL@@@@@ATL@@QAE@XZ
  00012	cc		 int	 3
  00013	cc		 int	 3
  00014	cc		 int	 3
  00015	cc		 int	 3
  00016	cc		 int	 3
__ehhandler$?GetPrivateProfileStringInST@CDlgSTOption@@QAEKPBD00PADKH@Z:
  00017	90		 npad	 1
  00018	90		 npad	 1
  00019	8b 54 24 08	 mov	 edx, DWORD PTR [esp+8]
  0001d	8d 42 0c	 lea	 eax, DWORD PTR [edx+12]
  00020	8b 4a ec	 mov	 ecx, DWORD PTR [edx-20]
  00023	33 c8		 xor	 ecx, eax
  00025	e8 00 00 00 00	 call	 @__security_check_cookie@4
  0002a	b8 00 00 00 00	 mov	 eax, OFFSET __ehfuncinfo$?GetPrivateProfileStringInST@CDlgSTOption@@QAEKPBD00PADKH@Z
  0002f	e9 00 00 00 00	 jmp	 ___CxxFrameHandler3
text$x	ENDS
?GetPrivateProfileStringInST@CDlgSTOption@@QAEKPBD00PADKH@Z ENDP ; CDlgSTOption::GetPrivateProfileStringInST
; Function compile flags: /Ogtp
; File D:\git\src\IBK\IBK_DRFN\ProjSrc\SrcDrfn\Chart\STCONFIGUREDLG\DlgSTOption.cpp
;	COMDAT ?GetUseExpiredDate@CDlgSTOption@@QAEHXZ
_TEXT	SEGMENT
?GetUseExpiredDate@CDlgSTOption@@QAEHXZ PROC		; CDlgSTOption::GetUseExpiredDate, COMDAT
; _this$ = ecx

; 295  : 	if(m_pSTControllerD)

  00000	8b 91 bc 04 00
	00		 mov	 edx, DWORD PTR [ecx+1212]
  00006	85 d2		 test	 edx, edx
  00008	74 0a		 je	 SHORT $LN2@GetUseExpi

; 296  : 	{
; 297  : 		return m_pSTControllerD->GetUseExpiredDate();

  0000a	8b 02		 mov	 eax, DWORD PTR [edx]
  0000c	8b ca		 mov	 ecx, edx
  0000e	ff a0 20 01 00
	00		 jmp	 DWORD PTR [eax+288]
$LN2@GetUseExpi:

; 298  : 	}
; 299  : 	return m_bUseExpiredDate;

  00014	8b 81 e0 04 00
	00		 mov	 eax, DWORD PTR [ecx+1248]

; 300  : }

  0001a	c3		 ret	 0
?GetUseExpiredDate@CDlgSTOption@@QAEHXZ ENDP		; CDlgSTOption::GetUseExpiredDate
_TEXT	ENDS
; Function compile flags: /Ogtp
; File D:\git\src\IBK\IBK_DRFN\ProjSrc\SrcDrfn\Chart\STCONFIGUREDLG\DlgSTOption.cpp
;	COMDAT ?GetUseUserID@CDlgSTOption@@QAEHXZ
_TEXT	SEGMENT
?GetUseUserID@CDlgSTOption@@QAEHXZ PROC			; CDlgSTOption::GetUseUserID, COMDAT
; _this$ = ecx

; 286  : 	if(m_pSTControllerD)

  00000	8b 91 bc 04 00
	00		 mov	 edx, DWORD PTR [ecx+1212]
  00006	85 d2		 test	 edx, edx
  00008	74 0a		 je	 SHORT $LN2@GetUseUser

; 287  : 	{
; 288  : 		return m_pSTControllerD->GetUseUserID();

  0000a	8b 02		 mov	 eax, DWORD PTR [edx]
  0000c	8b ca		 mov	 ecx, edx
  0000e	ff a0 18 01 00
	00		 jmp	 DWORD PTR [eax+280]
$LN2@GetUseUser:

; 289  : 	}
; 290  : 	return m_bUseUserID;

  00014	8b 81 dc 04 00
	00		 mov	 eax, DWORD PTR [ecx+1244]

; 291  : }

  0001a	c3		 ret	 0
?GetUseUserID@CDlgSTOption@@QAEHXZ ENDP			; CDlgSTOption::GetUseUserID
_TEXT	ENDS
; Function compile flags: /Ogtp
; File D:\git\src\IBK\IBK_DRFN\ProjSrc\SrcDrfn\Chart\STCONFIGUREDLG\DlgSTOption.cpp
;	COMDAT ?GetUsePassword@CDlgSTOption@@QAEHXZ
_TEXT	SEGMENT
?GetUsePassword@CDlgSTOption@@QAEHXZ PROC		; CDlgSTOption::GetUsePassword, COMDAT
; _this$ = ecx

; 277  : 	if(m_pSTControllerD)

  00000	8b 91 bc 04 00
	00		 mov	 edx, DWORD PTR [ecx+1212]
  00006	85 d2		 test	 edx, edx
  00008	74 0a		 je	 SHORT $LN2@GetUsePass

; 278  : 	{
; 279  : 		return m_pSTControllerD->GetUsePassword();

  0000a	8b 02		 mov	 eax, DWORD PTR [edx]
  0000c	8b ca		 mov	 ecx, edx
  0000e	ff a0 1c 01 00
	00		 jmp	 DWORD PTR [eax+284]
$LN2@GetUsePass:

; 280  : 	}
; 281  : 	return m_bUsePassword;

  00014	8b 81 d8 04 00
	00		 mov	 eax, DWORD PTR [ecx+1240]

; 282  : }

  0001a	c3		 ret	 0
?GetUsePassword@CDlgSTOption@@QAEHXZ ENDP		; CDlgSTOption::GetUsePassword
_TEXT	ENDS
; Function compile flags: /Ogtp
; File D:\git\src\IBK\IBK_DRFN\ProjSrc\SrcDrfn\Chart\STCONFIGUREDLG\DlgSTOption.cpp
;	COMDAT ?GetSTFile@CDlgSTOption@@QAEXPBD@Z
_TEXT	SEGMENT
_ff$ = -40						; size = 28
__$EHRec$ = -12						; size = 12
$T2 = 8							; size = 4
_lpszScriptFile$ = 8					; size = 4
?GetSTFile@CDlgSTOption@@QAEXPBD@Z PROC			; CDlgSTOption::GetSTFile, COMDAT
; _this$ = ecx

; 316  : {

  00000	55		 push	 ebp
  00001	8b ec		 mov	 ebp, esp
  00003	6a ff		 push	 -1
  00005	68 00 00 00 00	 push	 __ehhandler$?GetSTFile@CDlgSTOption@@QAEXPBD@Z
  0000a	64 a1 00 00 00
	00		 mov	 eax, DWORD PTR fs:0
  00010	50		 push	 eax
  00011	83 ec 1c	 sub	 esp, 28			; 0000001cH
  00014	56		 push	 esi
  00015	a1 00 00 00 00	 mov	 eax, DWORD PTR ___security_cookie
  0001a	33 c5		 xor	 eax, ebp
  0001c	50		 push	 eax
  0001d	8d 45 f4	 lea	 eax, DWORD PTR __$EHRec$[ebp]
  00020	64 a3 00 00 00
	00		 mov	 DWORD PTR fs:0, eax
  00026	8b f1		 mov	 esi, ecx

; 317  : 	CFileFind ff;

  00028	8d 4d d8	 lea	 ecx, DWORD PTR _ff$[ebp]
  0002b	e8 00 00 00 00	 call	 ??0CFileFind@@QAE@XZ	; CFileFind::CFileFind

; 318  : 	BOOL bFind = ff.FindFile(lpszScriptFile);

  00030	6a 00		 push	 0
  00032	ff 75 08	 push	 DWORD PTR _lpszScriptFile$[ebp]
  00035	8d 4d d8	 lea	 ecx, DWORD PTR _ff$[ebp]
  00038	c7 45 fc 00 00
	00 00		 mov	 DWORD PTR __$EHRec$[ebp+8], 0
  0003f	e8 00 00 00 00	 call	 ?FindFile@CFileFind@@UAEHPBDK@Z ; CFileFind::FindFile
  00044	81 c6 c4 04 00
	00		 add	 esi, 1220		; 000004c4H

; 319  : 
; 320  : 	if(bFind)

  0004a	85 c0		 test	 eax, eax
  0004c	74 2c		 je	 SHORT $LN2@GetSTFile

; 321  : 	{
; 322  : 		ff.FindNextFile();		// A  ...

  0004e	8d 4d d8	 lea	 ecx, DWORD PTR _ff$[ebp]
  00051	e8 00 00 00 00	 call	 ?FindNextFileA@CFileFind@@UAEHXZ ; CFileFind::FindNextFileA

; 323  : 		m_strSfgName = ff.GetFilePath();

  00056	8d 45 08	 lea	 eax, DWORD PTR $T2[ebp]
  00059	50		 push	 eax
  0005a	8d 4d d8	 lea	 ecx, DWORD PTR _ff$[ebp]
  0005d	e8 00 00 00 00	 call	 ?GetFilePath@CFileFind@@UBE?AV?$CStringT@DV?$StrTraitMFC_DLL@DV?$ChTraitsCRT@D@ATL@@@@@ATL@@XZ ; CFileFind::GetFilePath
  00062	50		 push	 eax
  00063	8b ce		 mov	 ecx, esi
  00065	c6 45 fc 01	 mov	 BYTE PTR __$EHRec$[ebp+8], 1
  00069	ff 15 00 00 00
	00		 call	 DWORD PTR __imp_??4?$CStringT@DV?$StrTraitMFC_DLL@DV?$ChTraitsCRT@D@ATL@@@@@ATL@@QAEAAV01@ABV01@@Z
  0006f	8d 4d 08	 lea	 ecx, DWORD PTR $T2[ebp]
  00072	ff 15 00 00 00
	00		 call	 DWORD PTR __imp_??1?$CStringT@DV?$StrTraitMFC_DLL@DV?$ChTraitsCRT@D@ATL@@@@@ATL@@QAE@XZ

; 324  : 	}

  00078	eb 1d		 jmp	 SHORT $LN3@GetSTFile
$LN2@GetSTFile:

; 325  : 	else
; 326  : 	{
; 327  : 		m_strSfgName = lpszScriptFile;

  0007a	ff 75 08	 push	 DWORD PTR _lpszScriptFile$[ebp]
  0007d	8b ce		 mov	 ecx, esi
  0007f	ff 15 00 00 00
	00		 call	 DWORD PTR __imp_??4?$CStringT@DV?$StrTraitMFC_DLL@DV?$ChTraitsCRT@D@ATL@@@@@ATL@@QAEAAV01@PBD@Z

; 328  : 		m_strSfgName.Replace(_T("*"), _T("0"));

  00085	68 00 00 00 00	 push	 OFFSET ??_C@_01GBGANLPD@0@
  0008a	68 00 00 00 00	 push	 OFFSET ??_C@_01NBENCBCI@?$CK@
  0008f	8b ce		 mov	 ecx, esi
  00091	ff 15 00 00 00
	00		 call	 DWORD PTR __imp_?Replace@?$CStringT@DV?$StrTraitMFC_DLL@DV?$ChTraitsCRT@D@ATL@@@@@ATL@@QAEHPBD0@Z
$LN3@GetSTFile:

; 329  : 	}
; 330  : 
; 331  : }

  00097	8d 4d d8	 lea	 ecx, DWORD PTR _ff$[ebp]
  0009a	e8 00 00 00 00	 call	 ??1CFileFind@@UAE@XZ	; CFileFind::~CFileFind
  0009f	8b 4d f4	 mov	 ecx, DWORD PTR __$EHRec$[ebp]
  000a2	64 89 0d 00 00
	00 00		 mov	 DWORD PTR fs:0, ecx
  000a9	59		 pop	 ecx
  000aa	5e		 pop	 esi
  000ab	8b e5		 mov	 esp, ebp
  000ad	5d		 pop	 ebp
  000ae	c2 04 00	 ret	 4
_TEXT	ENDS
;	COMDAT text$x
text$x	SEGMENT
__unwindfunclet$?GetSTFile@CDlgSTOption@@QAEXPBD@Z$0:
  00000	8d 4d d8	 lea	 ecx, DWORD PTR _ff$[ebp]
  00003	e9 00 00 00 00	 jmp	 ??1CFileFind@@UAE@XZ	; CFileFind::~CFileFind
__unwindfunclet$?GetSTFile@CDlgSTOption@@QAEXPBD@Z$1:
  00008	8d 4d 08	 lea	 ecx, DWORD PTR $T2[ebp]
  0000b	ff 25 00 00 00
	00		 jmp	 DWORD PTR __imp_??1?$CStringT@DV?$StrTraitMFC_DLL@DV?$ChTraitsCRT@D@ATL@@@@@ATL@@QAE@XZ
  00011	cc		 int	 3
  00012	cc		 int	 3
  00013	cc		 int	 3
  00014	cc		 int	 3
  00015	cc		 int	 3
__ehhandler$?GetSTFile@CDlgSTOption@@QAEXPBD@Z:
  00016	90		 npad	 1
  00017	90		 npad	 1
  00018	8b 54 24 08	 mov	 edx, DWORD PTR [esp+8]
  0001c	8d 42 0c	 lea	 eax, DWORD PTR [edx+12]
  0001f	8b 4a dc	 mov	 ecx, DWORD PTR [edx-36]
  00022	33 c8		 xor	 ecx, eax
  00024	e8 00 00 00 00	 call	 @__security_check_cookie@4
  00029	b8 00 00 00 00	 mov	 eax, OFFSET __ehfuncinfo$?GetSTFile@CDlgSTOption@@QAEXPBD@Z
  0002e	e9 00 00 00 00	 jmp	 ___CxxFrameHandler3
text$x	ENDS
?GetSTFile@CDlgSTOption@@QAEXPBD@Z ENDP			; CDlgSTOption::GetSTFile
; Function compile flags: /Ogtp
; File D:\git\src\IBK\IBK_DRFN\ProjSrc\SrcDrfn\Chart\STCONFIGUREDLG\DlgSTOption.cpp
;	COMDAT ?GetUserID@CDlgSTOption@@QAE?AV?$CStringT@DV?$StrTraitMFC_DLL@DV?$ChTraitsCRT@D@ATL@@@@@ATL@@XZ
_TEXT	SEGMENT
___$ReturnUdt$ = 8					; size = 4
?GetUserID@CDlgSTOption@@QAE?AV?$CStringT@DV?$StrTraitMFC_DLL@DV?$ChTraitsCRT@D@ATL@@@@@ATL@@XZ PROC ; CDlgSTOption::GetUserID, COMDAT
; _this$ = ecx

; 267  : { 

  00000	55		 push	 ebp
  00001	8b ec		 mov	 ebp, esp
  00003	8b c1		 mov	 eax, ecx
  00005	56		 push	 esi

; 268  : 	if(m_pSTControllerD)

  00006	8b 88 bc 04 00
	00		 mov	 ecx, DWORD PTR [eax+1212]
  0000c	85 c9		 test	 ecx, ecx
  0000e	74 13		 je	 SHORT $LN2@GetUserID

; 269  : 	{
; 270  : 		return m_pSTControllerD->GetUserID();

  00010	8b 11		 mov	 edx, DWORD PTR [ecx]
  00012	8b 75 08	 mov	 esi, DWORD PTR ___$ReturnUdt$[ebp]
  00015	56		 push	 esi
  00016	ff 92 08 01 00
	00		 call	 DWORD PTR [edx+264]
  0001c	8b c6		 mov	 eax, esi
  0001e	5e		 pop	 esi

; 273  : }

  0001f	5d		 pop	 ebp
  00020	c2 04 00	 ret	 4
$LN2@GetUserID:

; 271  : 	}
; 272  : 	return m_strUserID;

  00023	8b 4d 08	 mov	 ecx, DWORD PTR ___$ReturnUdt$[ebp]
  00026	05 d0 04 00 00	 add	 eax, 1232		; 000004d0H
  0002b	50		 push	 eax
  0002c	ff 15 00 00 00
	00		 call	 DWORD PTR __imp_??0?$CStringT@DV?$StrTraitMFC_DLL@DV?$ChTraitsCRT@D@ATL@@@@@ATL@@QAE@ABV01@@Z
  00032	8b 45 08	 mov	 eax, DWORD PTR ___$ReturnUdt$[ebp]
  00035	5e		 pop	 esi

; 273  : }

  00036	5d		 pop	 ebp
  00037	c2 04 00	 ret	 4
?GetUserID@CDlgSTOption@@QAE?AV?$CStringT@DV?$StrTraitMFC_DLL@DV?$ChTraitsCRT@D@ATL@@@@@ATL@@XZ ENDP ; CDlgSTOption::GetUserID
_TEXT	ENDS
; Function compile flags: /Ogtp
; File D:\git\src\IBK\IBK_DRFN\ProjSrc\SrcDrfn\Chart\STCONFIGUREDLG\DlgSTOption.cpp
;	COMDAT ?GetExpiredDate@CDlgSTOption@@QAE?AV?$CStringT@DV?$StrTraitMFC_DLL@DV?$ChTraitsCRT@D@ATL@@@@@ATL@@XZ
_TEXT	SEGMENT
_strExpiredDate$2 = -16					; size = 4
__$EHRec$ = -12						; size = 12
___$ReturnUdt$ = 8					; size = 4
?GetExpiredDate@CDlgSTOption@@QAE?AV?$CStringT@DV?$StrTraitMFC_DLL@DV?$ChTraitsCRT@D@ATL@@@@@ATL@@XZ PROC ; CDlgSTOption::GetExpiredDate, COMDAT
; _this$ = ecx

; 256  : { 

  00000	55		 push	 ebp
  00001	8b ec		 mov	 ebp, esp
  00003	6a ff		 push	 -1
  00005	68 00 00 00 00	 push	 __ehhandler$?GetExpiredDate@CDlgSTOption@@QAE?AV?$CStringT@DV?$StrTraitMFC_DLL@DV?$ChTraitsCRT@D@ATL@@@@@ATL@@XZ
  0000a	64 a1 00 00 00
	00		 mov	 eax, DWORD PTR fs:0
  00010	50		 push	 eax
  00011	51		 push	 ecx
  00012	56		 push	 esi
  00013	a1 00 00 00 00	 mov	 eax, DWORD PTR ___security_cookie
  00018	33 c5		 xor	 eax, ebp
  0001a	50		 push	 eax
  0001b	8d 45 f4	 lea	 eax, DWORD PTR __$EHRec$[ebp]
  0001e	64 a3 00 00 00
	00		 mov	 DWORD PTR fs:0, eax
  00024	8b f1		 mov	 esi, ecx

; 257  : 	if(m_pSTControllerD)

  00026	83 be bc 04 00
	00 00		 cmp	 DWORD PTR [esi+1212], 0
  0002d	74 49		 je	 SHORT $LN2@GetExpired

; 258  : 	{
; 259  : 		CString strExpiredDate;

  0002f	8d 4d f0	 lea	 ecx, DWORD PTR _strExpiredDate$2[ebp]
  00032	ff 15 00 00 00
	00		 call	 DWORD PTR __imp_??0?$CStringT@DV?$StrTraitMFC_DLL@DV?$ChTraitsCRT@D@ATL@@@@@ATL@@QAE@XZ

; 260  : 		strExpiredDate.Format("%d",m_pSTControllerD->GetExpiredDate());

  00038	8b 8e bc 04 00
	00		 mov	 ecx, DWORD PTR [esi+1212]
  0003e	c7 45 fc 00 00
	00 00		 mov	 DWORD PTR __$EHRec$[ebp+8], 0
  00045	8b 01		 mov	 eax, DWORD PTR [ecx]
  00047	ff 90 10 01 00
	00		 call	 DWORD PTR [eax+272]
  0004d	50		 push	 eax
  0004e	8d 45 f0	 lea	 eax, DWORD PTR _strExpiredDate$2[ebp]
  00051	68 00 00 00 00	 push	 OFFSET ??_C@_02DPKJAMEF@?$CFd@
  00056	50		 push	 eax
  00057	ff 15 00 00 00
	00		 call	 DWORD PTR __imp_?Format@?$CStringT@DV?$StrTraitMFC_DLL@DV?$ChTraitsCRT@D@ATL@@@@@ATL@@QAAXPBDZZ

; 261  : 		return strExpiredDate;

  0005d	8b 4d 08	 mov	 ecx, DWORD PTR ___$ReturnUdt$[ebp]
  00060	8d 45 f0	 lea	 eax, DWORD PTR _strExpiredDate$2[ebp]
  00063	83 c4 0c	 add	 esp, 12			; 0000000cH
  00066	50		 push	 eax
  00067	ff 15 00 00 00
	00		 call	 DWORD PTR __imp_??0?$CStringT@DV?$StrTraitMFC_DLL@DV?$ChTraitsCRT@D@ATL@@@@@ATL@@QAE@ABV01@@Z
  0006d	8d 4d f0	 lea	 ecx, DWORD PTR _strExpiredDate$2[ebp]
  00070	ff 15 00 00 00
	00		 call	 DWORD PTR __imp_??1?$CStringT@DV?$StrTraitMFC_DLL@DV?$ChTraitsCRT@D@ATL@@@@@ATL@@QAE@XZ
  00076	eb 10		 jmp	 SHORT $LN8@GetExpired
$LN2@GetExpired:

; 262  : 	}
; 263  : 	return m_strExpiredDate;

  00078	8b 4d 08	 mov	 ecx, DWORD PTR ___$ReturnUdt$[ebp]
  0007b	8d 86 d4 04 00
	00		 lea	 eax, DWORD PTR [esi+1236]
  00081	50		 push	 eax
  00082	ff 15 00 00 00
	00		 call	 DWORD PTR __imp_??0?$CStringT@DV?$StrTraitMFC_DLL@DV?$ChTraitsCRT@D@ATL@@@@@ATL@@QAE@ABV01@@Z
$LN8@GetExpired:

; 264  : }

  00088	8b 45 08	 mov	 eax, DWORD PTR ___$ReturnUdt$[ebp]
  0008b	8b 4d f4	 mov	 ecx, DWORD PTR __$EHRec$[ebp]
  0008e	64 89 0d 00 00
	00 00		 mov	 DWORD PTR fs:0, ecx
  00095	59		 pop	 ecx
  00096	5e		 pop	 esi
  00097	8b e5		 mov	 esp, ebp
  00099	5d		 pop	 ebp
  0009a	c2 04 00	 ret	 4
_TEXT	ENDS
;	COMDAT text$x
text$x	SEGMENT
__unwindfunclet$?GetExpiredDate@CDlgSTOption@@QAE?AV?$CStringT@DV?$StrTraitMFC_DLL@DV?$ChTraitsCRT@D@ATL@@@@@ATL@@XZ$0:
  00000	8d 4d f0	 lea	 ecx, DWORD PTR _strExpiredDate$2[ebp]
  00003	ff 25 00 00 00
	00		 jmp	 DWORD PTR __imp_??1?$CStringT@DV?$StrTraitMFC_DLL@DV?$ChTraitsCRT@D@ATL@@@@@ATL@@QAE@XZ
  00009	cc		 int	 3
  0000a	cc		 int	 3
  0000b	cc		 int	 3
  0000c	cc		 int	 3
  0000d	cc		 int	 3
__ehhandler$?GetExpiredDate@CDlgSTOption@@QAE?AV?$CStringT@DV?$StrTraitMFC_DLL@DV?$ChTraitsCRT@D@ATL@@@@@ATL@@XZ:
  0000e	90		 npad	 1
  0000f	90		 npad	 1
  00010	8b 54 24 08	 mov	 edx, DWORD PTR [esp+8]
  00014	8d 42 0c	 lea	 eax, DWORD PTR [edx+12]
  00017	8b 4a f4	 mov	 ecx, DWORD PTR [edx-12]
  0001a	33 c8		 xor	 ecx, eax
  0001c	e8 00 00 00 00	 call	 @__security_check_cookie@4
  00021	b8 00 00 00 00	 mov	 eax, OFFSET __ehfuncinfo$?GetExpiredDate@CDlgSTOption@@QAE?AV?$CStringT@DV?$StrTraitMFC_DLL@DV?$ChTraitsCRT@D@ATL@@@@@ATL@@XZ
  00026	e9 00 00 00 00	 jmp	 ___CxxFrameHandler3
text$x	ENDS
?GetExpiredDate@CDlgSTOption@@QAE?AV?$CStringT@DV?$StrTraitMFC_DLL@DV?$ChTraitsCRT@D@ATL@@@@@ATL@@XZ ENDP ; CDlgSTOption::GetExpiredDate
; Function compile flags: /Ogtp
; File D:\git\src\IBK\IBK_DRFN\ProjSrc\SrcDrfn\Chart\STCONFIGUREDLG\DlgSTOption.cpp
;	COMDAT ?GetPassword@CDlgSTOption@@QAE?AV?$CStringT@DV?$StrTraitMFC_DLL@DV?$ChTraitsCRT@D@ATL@@@@@ATL@@XZ
_TEXT	SEGMENT
___$ReturnUdt$ = 8					; size = 4
?GetPassword@CDlgSTOption@@QAE?AV?$CStringT@DV?$StrTraitMFC_DLL@DV?$ChTraitsCRT@D@ATL@@@@@ATL@@XZ PROC ; CDlgSTOption::GetPassword, COMDAT
; _this$ = ecx

; 247  : {

  00000	55		 push	 ebp
  00001	8b ec		 mov	 ebp, esp
  00003	8b c1		 mov	 eax, ecx
  00005	56		 push	 esi

; 248  : 	if(m_pSTControllerD)

  00006	8b 88 bc 04 00
	00		 mov	 ecx, DWORD PTR [eax+1212]
  0000c	85 c9		 test	 ecx, ecx
  0000e	74 13		 je	 SHORT $LN2@GetPasswor

; 249  : 	{
; 250  : 		return m_pSTControllerD->GetPassword();

  00010	8b 11		 mov	 edx, DWORD PTR [ecx]
  00012	8b 75 08	 mov	 esi, DWORD PTR ___$ReturnUdt$[ebp]
  00015	56		 push	 esi
  00016	ff 92 0c 01 00
	00		 call	 DWORD PTR [edx+268]
  0001c	8b c6		 mov	 eax, esi
  0001e	5e		 pop	 esi

; 253  : }

  0001f	5d		 pop	 ebp
  00020	c2 04 00	 ret	 4
$LN2@GetPasswor:

; 251  : 	}
; 252  : 	return m_strPassword;

  00023	8b 4d 08	 mov	 ecx, DWORD PTR ___$ReturnUdt$[ebp]
  00026	05 cc 04 00 00	 add	 eax, 1228		; 000004ccH
  0002b	50		 push	 eax
  0002c	ff 15 00 00 00
	00		 call	 DWORD PTR __imp_??0?$CStringT@DV?$StrTraitMFC_DLL@DV?$ChTraitsCRT@D@ATL@@@@@ATL@@QAE@ABV01@@Z
  00032	8b 45 08	 mov	 eax, DWORD PTR ___$ReturnUdt$[ebp]
  00035	5e		 pop	 esi

; 253  : }

  00036	5d		 pop	 ebp
  00037	c2 04 00	 ret	 4
?GetPassword@CDlgSTOption@@QAE?AV?$CStringT@DV?$StrTraitMFC_DLL@DV?$ChTraitsCRT@D@ATL@@@@@ATL@@XZ ENDP ; CDlgSTOption::GetPassword
_TEXT	ENDS
; Function compile flags: /Ogtp
; File D:\git\src\IBK\IBK_DRFN\ProjSrc\SrcDrfn\Chart\STCONFIGUREDLG\DlgSTOption.cpp
; File C:\Program Files (x86)\Microsoft Visual Studio\2019\Community\VC\Tools\MSVC\14.29.30133\atlmfc\include\atlsimpstr.h
; File D:\git\src\IBK\IBK_DRFN\ProjSrc\SrcDrfn\Chart\STCONFIGUREDLG\DlgSTOption.cpp
;	COMDAT ?GetSdPath@CDlgSTOption@@QAE?AV?$CStringT@DV?$StrTraitMFC_DLL@DV?$ChTraitsCRT@D@ATL@@@@@ATL@@XZ
_TEXT	SEGMENT
$T2 = -20						; size = 4
$T3 = -20						; size = 4
$T4 = -20						; size = 4
$T5 = -20						; size = 4
$T6 = -16						; size = 4
__$EHRec$ = -12						; size = 12
___$ReturnUdt$ = 8					; size = 4
?GetSdPath@CDlgSTOption@@QAE?AV?$CStringT@DV?$StrTraitMFC_DLL@DV?$ChTraitsCRT@D@ATL@@@@@ATL@@XZ PROC ; CDlgSTOption::GetSdPath, COMDAT
; _this$ = ecx

; 225  : {

  00000	55		 push	 ebp
  00001	8b ec		 mov	 ebp, esp
  00003	6a ff		 push	 -1
  00005	68 00 00 00 00	 push	 __ehhandler$?GetSdPath@CDlgSTOption@@QAE?AV?$CStringT@DV?$StrTraitMFC_DLL@DV?$ChTraitsCRT@D@ATL@@@@@ATL@@XZ
  0000a	64 a1 00 00 00
	00		 mov	 eax, DWORD PTR fs:0
  00010	50		 push	 eax
  00011	83 ec 08	 sub	 esp, 8
  00014	56		 push	 esi
  00015	57		 push	 edi
  00016	a1 00 00 00 00	 mov	 eax, DWORD PTR ___security_cookie
  0001b	33 c5		 xor	 eax, ebp
  0001d	50		 push	 eax
  0001e	8d 45 f4	 lea	 eax, DWORD PTR __$EHRec$[ebp]
  00021	64 a3 00 00 00
	00		 mov	 DWORD PTR fs:0, eax
  00027	8b f9		 mov	 edi, ecx
  00029	c7 45 f0 00 00
	00 00		 mov	 DWORD PTR $T6[ebp], 0

; 226  : 	CString strPath;

  00030	8b 75 08	 mov	 esi, DWORD PTR ___$ReturnUdt$[ebp]
  00033	8b ce		 mov	 ecx, esi
  00035	ff 15 00 00 00
	00		 call	 DWORD PTR __imp_??0?$CStringT@DV?$StrTraitMFC_DLL@DV?$ChTraitsCRT@D@ATL@@@@@ATL@@QAE@XZ

; 243  : 	return strPath;

  0003b	8b 8f bc 04 00
	00		 mov	 ecx, DWORD PTR [edi+1212]
  00041	c7 45 fc 00 00
	00 00		 mov	 DWORD PTR __$EHRec$[ebp+8], 0
  00048	c7 45 f0 01 00
	00 00		 mov	 DWORD PTR $T6[ebp], 1
  0004f	85 c9		 test	 ecx, ecx
  00051	74 12		 je	 SHORT $LN2@GetSdPath

; 227  : 	if(m_pSTControllerD)
; 228  : 	{
; 229  : 		strPath = m_pSTControllerD->GetPath();

  00053	8b 01		 mov	 eax, DWORD PTR [ecx]
  00055	8d 55 ec	 lea	 edx, DWORD PTR $T5[ebp]
  00058	52		 push	 edx
  00059	ff 50 24	 call	 DWORD PTR [eax+36]
  0005c	c7 45 fc 01 00
	00 00		 mov	 DWORD PTR __$EHRec$[ebp+8], 1

; 230  : 	}

  00063	eb 21		 jmp	 SHORT $LN23@GetSdPath
$LN2@GetSdPath:

; 221  : 	return m_strSfgName;

  00065	8d 87 c4 04 00
	00		 lea	 eax, DWORD PTR [edi+1220]
  0006b	50		 push	 eax
  0006c	8d 4d ec	 lea	 ecx, DWORD PTR $T4[ebp]
  0006f	ff 15 00 00 00
	00		 call	 DWORD PTR __imp_??0?$CStringT@DV?$StrTraitMFC_DLL@DV?$ChTraitsCRT@D@ATL@@@@@ATL@@QAE@ABV01@@Z
  00075	c7 45 f0 03 00
	00 00		 mov	 DWORD PTR $T6[ebp], 3

; 231  : 	else
; 232  : 	{
; 233  : 		strPath = GetSfgPath();

  0007c	c7 45 fc 02 00
	00 00		 mov	 DWORD PTR __$EHRec$[ebp+8], 2
  00083	8d 45 ec	 lea	 eax, DWORD PTR $T4[ebp]
$LN23@GetSdPath:

; 234  : 	}
; 235  : 	int nPos = strPath.ReverseFind('\\');

  00086	50		 push	 eax
  00087	8b ce		 mov	 ecx, esi
  00089	ff 15 00 00 00
	00		 call	 DWORD PTR __imp_??4?$CStringT@DV?$StrTraitMFC_DLL@DV?$ChTraitsCRT@D@ATL@@@@@ATL@@QAEAAV01@ABV01@@Z
  0008f	8d 4d ec	 lea	 ecx, DWORD PTR $T4[ebp]
  00092	c6 45 fc 00	 mov	 BYTE PTR __$EHRec$[ebp+8], 0
  00096	ff 15 00 00 00
	00		 call	 DWORD PTR __imp_??1?$CStringT@DV?$StrTraitMFC_DLL@DV?$ChTraitsCRT@D@ATL@@@@@ATL@@QAE@XZ
  0009c	6a 5c		 push	 92			; 0000005cH
  0009e	8b ce		 mov	 ecx, esi
  000a0	ff 15 00 00 00
	00		 call	 DWORD PTR __imp_?ReverseFind@?$CStringT@DV?$StrTraitMFC_DLL@DV?$ChTraitsCRT@D@ATL@@@@@ATL@@QBEHD@Z

; 236  : 	strPath.Delete(0,nPos+1);

  000a6	40		 inc	 eax
  000a7	8b ce		 mov	 ecx, esi
  000a9	50		 push	 eax
  000aa	6a 00		 push	 0
  000ac	ff 15 00 00 00
	00		 call	 DWORD PTR __imp_?Delete@?$CStringT@DV?$StrTraitMFC_DLL@DV?$ChTraitsCRT@D@ATL@@@@@ATL@@QAEHHH@Z

; 237  : 	//nPos = strPath.Find('@');
; 238  : 	nPos = strPath.Find('^');	//090902-solomon @->^

  000b2	6a 00		 push	 0
  000b4	6a 5e		 push	 94			; 0000005eH
  000b6	8b ce		 mov	 ecx, esi
  000b8	ff 15 00 00 00
	00		 call	 DWORD PTR __imp_?Find@?$CStringT@DV?$StrTraitMFC_DLL@DV?$ChTraitsCRT@D@ATL@@@@@ATL@@QBEHDH@Z

; 239  : 	if(nPos > 0)

  000be	8b ce		 mov	 ecx, esi
  000c0	85 c0		 test	 eax, eax
  000c2	7e 16		 jle	 SHORT $LN4@GetSdPath

; 240  : 		strPath = strPath.Mid(0, nPos);

  000c4	50		 push	 eax
  000c5	6a 00		 push	 0
  000c7	8d 45 ec	 lea	 eax, DWORD PTR $T3[ebp]
  000ca	50		 push	 eax
  000cb	ff 15 00 00 00
	00		 call	 DWORD PTR __imp_?Mid@?$CStringT@DV?$StrTraitMFC_DLL@DV?$ChTraitsCRT@D@ATL@@@@@ATL@@QBE?AV12@HH@Z
  000d1	c7 45 fc 03 00
	00 00		 mov	 DWORD PTR __$EHRec$[ebp+8], 3
  000d8	eb 1a		 jmp	 SHORT $LN24@GetSdPath
$LN4@GetSdPath:
; File C:\Program Files (x86)\Microsoft Visual Studio\2019\Community\VC\Tools\MSVC\14.29.30133\atlmfc\include\atlsimpstr.h

; 519  : 		return( GetData()->nDataLength );

  000da	8b 06		 mov	 eax, DWORD PTR [esi]
  000dc	8b 40 f4	 mov	 eax, DWORD PTR [eax-12]
; File D:\git\src\IBK\IBK_DRFN\ProjSrc\SrcDrfn\Chart\STCONFIGUREDLG\DlgSTOption.cpp

; 242  : 		strPath = strPath.Left(strPath.GetLength() - 3);

  000df	83 c0 fd	 add	 eax, -3			; fffffffdH
  000e2	50		 push	 eax
  000e3	8d 45 ec	 lea	 eax, DWORD PTR $T2[ebp]
  000e6	50		 push	 eax
  000e7	ff 15 00 00 00
	00		 call	 DWORD PTR __imp_?Left@?$CStringT@DV?$StrTraitMFC_DLL@DV?$ChTraitsCRT@D@ATL@@@@@ATL@@QBE?AV12@H@Z
  000ed	c7 45 fc 04 00
	00 00		 mov	 DWORD PTR __$EHRec$[ebp+8], 4
$LN24@GetSdPath:

; 244  : }

  000f4	50		 push	 eax
  000f5	8b ce		 mov	 ecx, esi
  000f7	ff 15 00 00 00
	00		 call	 DWORD PTR __imp_??4?$CStringT@DV?$StrTraitMFC_DLL@DV?$ChTraitsCRT@D@ATL@@@@@ATL@@QAEAAV01@ABV01@@Z
  000fd	8d 4d ec	 lea	 ecx, DWORD PTR $T2[ebp]
  00100	ff 15 00 00 00
	00		 call	 DWORD PTR __imp_??1?$CStringT@DV?$StrTraitMFC_DLL@DV?$ChTraitsCRT@D@ATL@@@@@ATL@@QAE@XZ
  00106	8b c6		 mov	 eax, esi
  00108	8b 4d f4	 mov	 ecx, DWORD PTR __$EHRec$[ebp]
  0010b	64 89 0d 00 00
	00 00		 mov	 DWORD PTR fs:0, ecx
  00112	59		 pop	 ecx
  00113	5f		 pop	 edi
  00114	5e		 pop	 esi
  00115	8b e5		 mov	 esp, ebp
  00117	5d		 pop	 ebp
  00118	c2 04 00	 ret	 4
_TEXT	ENDS
;	COMDAT text$x
text$x	SEGMENT
__unwindfunclet$?GetSdPath@CDlgSTOption@@QAE?AV?$CStringT@DV?$StrTraitMFC_DLL@DV?$ChTraitsCRT@D@ATL@@@@@ATL@@XZ$0:
  00000	8b 45 f0	 mov	 eax, DWORD PTR $T6[ebp]
  00003	83 e0 01	 and	 eax, 1
  00006	0f 84 0d 00 00
	00		 je	 $LN8@GetSdPath
  0000c	83 65 f0 fe	 and	 DWORD PTR $T6[ebp], -2	; fffffffeH
  00010	8b 4d 08	 mov	 ecx, DWORD PTR ___$ReturnUdt$[ebp]
  00013	ff 25 00 00 00
	00		 jmp	 DWORD PTR __imp_??1?$CStringT@DV?$StrTraitMFC_DLL@DV?$ChTraitsCRT@D@ATL@@@@@ATL@@QAE@XZ
$LN8@GetSdPath:
  00019	c3		 ret	 0
__unwindfunclet$?GetSdPath@CDlgSTOption@@QAE?AV?$CStringT@DV?$StrTraitMFC_DLL@DV?$ChTraitsCRT@D@ATL@@@@@ATL@@XZ$1:
  0001a	8d 4d ec	 lea	 ecx, DWORD PTR $T5[ebp]
  0001d	ff 25 00 00 00
	00		 jmp	 DWORD PTR __imp_??1?$CStringT@DV?$StrTraitMFC_DLL@DV?$ChTraitsCRT@D@ATL@@@@@ATL@@QAE@XZ
__unwindfunclet$?GetSdPath@CDlgSTOption@@QAE?AV?$CStringT@DV?$StrTraitMFC_DLL@DV?$ChTraitsCRT@D@ATL@@@@@ATL@@XZ$2:
  00023	8d 4d ec	 lea	 ecx, DWORD PTR $T4[ebp]
  00026	ff 25 00 00 00
	00		 jmp	 DWORD PTR __imp_??1?$CStringT@DV?$StrTraitMFC_DLL@DV?$ChTraitsCRT@D@ATL@@@@@ATL@@QAE@XZ
__unwindfunclet$?GetSdPath@CDlgSTOption@@QAE?AV?$CStringT@DV?$StrTraitMFC_DLL@DV?$ChTraitsCRT@D@ATL@@@@@ATL@@XZ$3:
  0002c	8d 4d ec	 lea	 ecx, DWORD PTR $T3[ebp]
  0002f	ff 25 00 00 00
	00		 jmp	 DWORD PTR __imp_??1?$CStringT@DV?$StrTraitMFC_DLL@DV?$ChTraitsCRT@D@ATL@@@@@ATL@@QAE@XZ
__unwindfunclet$?GetSdPath@CDlgSTOption@@QAE?AV?$CStringT@DV?$StrTraitMFC_DLL@DV?$ChTraitsCRT@D@ATL@@@@@ATL@@XZ$4:
  00035	8d 4d ec	 lea	 ecx, DWORD PTR $T2[ebp]
  00038	ff 25 00 00 00
	00		 jmp	 DWORD PTR __imp_??1?$CStringT@DV?$StrTraitMFC_DLL@DV?$ChTraitsCRT@D@ATL@@@@@ATL@@QAE@XZ
  0003e	cc		 int	 3
  0003f	cc		 int	 3
  00040	cc		 int	 3
  00041	cc		 int	 3
  00042	cc		 int	 3
__ehhandler$?GetSdPath@CDlgSTOption@@QAE?AV?$CStringT@DV?$StrTraitMFC_DLL@DV?$ChTraitsCRT@D@ATL@@@@@ATL@@XZ:
  00043	90		 npad	 1
  00044	90		 npad	 1
  00045	8b 54 24 08	 mov	 edx, DWORD PTR [esp+8]
  00049	8d 42 0c	 lea	 eax, DWORD PTR [edx+12]
  0004c	8b 4a ec	 mov	 ecx, DWORD PTR [edx-20]
  0004f	33 c8		 xor	 ecx, eax
  00051	e8 00 00 00 00	 call	 @__security_check_cookie@4
  00056	b8 00 00 00 00	 mov	 eax, OFFSET __ehfuncinfo$?GetSdPath@CDlgSTOption@@QAE?AV?$CStringT@DV?$StrTraitMFC_DLL@DV?$ChTraitsCRT@D@ATL@@@@@ATL@@XZ
  0005b	e9 00 00 00 00	 jmp	 ___CxxFrameHandler3
text$x	ENDS
?GetSdPath@CDlgSTOption@@QAE?AV?$CStringT@DV?$StrTraitMFC_DLL@DV?$ChTraitsCRT@D@ATL@@@@@ATL@@XZ ENDP ; CDlgSTOption::GetSdPath
; Function compile flags: /Ogtp
; File D:\git\src\IBK\IBK_DRFN\ProjSrc\SrcDrfn\Chart\STCONFIGUREDLG\DlgSTOption.cpp
; File C:\Program Files (x86)\Microsoft Visual Studio\2019\Community\VC\Tools\MSVC\14.29.30133\atlmfc\include\atlsimpstr.h
; File D:\git\src\IBK\IBK_DRFN\ProjSrc\SrcDrfn\Chart\STCONFIGUREDLG\DlgSTOption.cpp
; File C:\Program Files (x86)\Microsoft Visual Studio\2019\Community\VC\Tools\MSVC\14.29.30133\atlmfc\include\atlsimpstr.h
; File D:\git\src\IBK\IBK_DRFN\ProjSrc\SrcDrfn\Chart\STCONFIGUREDLG\DlgSTOption.cpp
;	COMDAT ?ChangeSfgPath@CDlgSTOption@@QAEXPBD@Z
_TEXT	SEGMENT
_ff$2 = -44						; size = 28
_strSfgName$ = -16					; size = 4
__$EHRec$ = -12						; size = 12
$T3 = 8							; size = 4
_lpSfgName$ = 8						; size = 4
?ChangeSfgPath@CDlgSTOption@@QAEXPBD@Z PROC		; CDlgSTOption::ChangeSfgPath, COMDAT
; _this$ = ecx

; 303  : {

  00000	55		 push	 ebp
  00001	8b ec		 mov	 ebp, esp
  00003	6a ff		 push	 -1
  00005	68 00 00 00 00	 push	 __ehhandler$?ChangeSfgPath@CDlgSTOption@@QAEXPBD@Z
  0000a	64 a1 00 00 00
	00		 mov	 eax, DWORD PTR fs:0
  00010	50		 push	 eax
  00011	83 ec 20	 sub	 esp, 32			; 00000020H
  00014	56		 push	 esi
  00015	57		 push	 edi
  00016	a1 00 00 00 00	 mov	 eax, DWORD PTR ___security_cookie
  0001b	33 c5		 xor	 eax, ebp
  0001d	50		 push	 eax
  0001e	8d 45 f4	 lea	 eax, DWORD PTR __$EHRec$[ebp]
  00021	64 a3 00 00 00
	00		 mov	 DWORD PTR fs:0, eax

; 217  : 	if(m_pSTControllerD)

  00027	8b 91 bc 04 00
	00		 mov	 edx, DWORD PTR [ecx+1212]
  0002d	8d b1 c4 04 00
	00		 lea	 esi, DWORD PTR [ecx+1220]
  00033	8d 4d f0	 lea	 ecx, DWORD PTR _strSfgName$[ebp]
  00036	85 d2		 test	 edx, edx
  00038	74 0a		 je	 SHORT $LN5@ChangeSfgP

; 218  : 	{
; 219  : 		return m_pSTControllerD->GetSfgPath();

  0003a	8b 02		 mov	 eax, DWORD PTR [edx]
  0003c	51		 push	 ecx
  0003d	8b ca		 mov	 ecx, edx
  0003f	ff 50 28	 call	 DWORD PTR [eax+40]
  00042	eb 07		 jmp	 SHORT $LN4@ChangeSfgP
$LN5@ChangeSfgP:

; 220  : 	}
; 221  : 	return m_strSfgName;

  00044	56		 push	 esi
  00045	ff 15 00 00 00
	00		 call	 DWORD PTR __imp_??0?$CStringT@DV?$StrTraitMFC_DLL@DV?$ChTraitsCRT@D@ATL@@@@@ATL@@QAE@ABV01@@Z
$LN4@ChangeSfgP:

; 304  : 	CString strSfgName = GetSfgPath();
; 305  : 	int nPos = strSfgName.ReverseFind('\\');

  0004b	6a 5c		 push	 92			; 0000005cH
  0004d	8d 4d f0	 lea	 ecx, DWORD PTR _strSfgName$[ebp]
  00050	c7 45 fc 00 00
	00 00		 mov	 DWORD PTR __$EHRec$[ebp+8], 0
  00057	ff 15 00 00 00
	00		 call	 DWORD PTR __imp_?ReverseFind@?$CStringT@DV?$StrTraitMFC_DLL@DV?$ChTraitsCRT@D@ATL@@@@@ATL@@QBEHD@Z
; File C:\Program Files (x86)\Microsoft Visual Studio\2019\Community\VC\Tools\MSVC\14.29.30133\atlmfc\include\atlsimpstr.h

; 519  : 		return( GetData()->nDataLength );

  0005d	8b 4d f0	 mov	 ecx, DWORD PTR _strSfgName$[ebp]
  00060	8b 49 f4	 mov	 ecx, DWORD PTR [ecx-12]
; File D:\git\src\IBK\IBK_DRFN\ProjSrc\SrcDrfn\Chart\STCONFIGUREDLG\DlgSTOption.cpp

; 306  : 	strSfgName.Delete(nPos,strSfgName.GetLength()-nPos);

  00063	2b c8		 sub	 ecx, eax
  00065	51		 push	 ecx
  00066	50		 push	 eax
  00067	8d 4d f0	 lea	 ecx, DWORD PTR _strSfgName$[ebp]
  0006a	ff 15 00 00 00
	00		 call	 DWORD PTR __imp_?Delete@?$CStringT@DV?$StrTraitMFC_DLL@DV?$ChTraitsCRT@D@ATL@@@@@ATL@@QAEHHH@Z

; 307  : 	strSfgName += "\\";

  00070	68 00 00 00 00	 push	 OFFSET ??_C@_01KICIPPFI@?2@
  00075	8d 4d f0	 lea	 ecx, DWORD PTR _strSfgName$[ebp]
  00078	ff 15 00 00 00
	00		 call	 DWORD PTR __imp_??Y?$CStringT@DV?$StrTraitMFC_DLL@DV?$ChTraitsCRT@D@ATL@@@@@ATL@@QAEAAV01@PBD@Z

; 308  : 	strSfgName += lpSfgName;

  0007e	ff 75 08	 push	 DWORD PTR _lpSfgName$[ebp]
  00081	8d 4d f0	 lea	 ecx, DWORD PTR _strSfgName$[ebp]
  00084	ff 15 00 00 00
	00		 call	 DWORD PTR __imp_??Y?$CStringT@DV?$StrTraitMFC_DLL@DV?$ChTraitsCRT@D@ATL@@@@@ATL@@QAEAAV01@PBD@Z

; 309  : 	//strSfgName += "@*.ST";
; 310  : 	strSfgName += "^*.ST";	//090902-solomon @->^

  0008a	68 00 00 00 00	 push	 OFFSET ??_C@_05DAINAMK@?$FO?$CK?4ST@
  0008f	8d 4d f0	 lea	 ecx, DWORD PTR _strSfgName$[ebp]
  00092	ff 15 00 00 00
	00		 call	 DWORD PTR __imp_??Y?$CStringT@DV?$StrTraitMFC_DLL@DV?$ChTraitsCRT@D@ATL@@@@@ATL@@QAEAAV01@PBD@Z
; File C:\Program Files (x86)\Microsoft Visual Studio\2019\Community\VC\Tools\MSVC\14.29.30133\atlmfc\include\atlsimpstr.h

; 377  : 		return( m_pszData );

  00098	8b 7d f0	 mov	 edi, DWORD PTR _strSfgName$[ebp]
; File D:\git\src\IBK\IBK_DRFN\ProjSrc\SrcDrfn\Chart\STCONFIGUREDLG\DlgSTOption.cpp

; 317  : 	CFileFind ff;

  0009b	8d 4d d4	 lea	 ecx, DWORD PTR _ff$2[ebp]
  0009e	e8 00 00 00 00	 call	 ??0CFileFind@@QAE@XZ	; CFileFind::CFileFind

; 318  : 	BOOL bFind = ff.FindFile(lpszScriptFile);

  000a3	6a 00		 push	 0
  000a5	57		 push	 edi
  000a6	8d 4d d4	 lea	 ecx, DWORD PTR _ff$2[ebp]
  000a9	c6 45 fc 01	 mov	 BYTE PTR __$EHRec$[ebp+8], 1
  000ad	e8 00 00 00 00	 call	 ?FindFile@CFileFind@@UAEHPBDK@Z ; CFileFind::FindFile

; 319  : 
; 320  : 	if(bFind)

  000b2	85 c0		 test	 eax, eax
  000b4	74 2c		 je	 SHORT $LN16@ChangeSfgP

; 321  : 	{
; 322  : 		ff.FindNextFile();		// A  ...

  000b6	8d 4d d4	 lea	 ecx, DWORD PTR _ff$2[ebp]
  000b9	e8 00 00 00 00	 call	 ?FindNextFileA@CFileFind@@UAEHXZ ; CFileFind::FindNextFileA

; 323  : 		m_strSfgName = ff.GetFilePath();

  000be	8d 45 08	 lea	 eax, DWORD PTR $T3[ebp]
  000c1	50		 push	 eax
  000c2	8d 4d d4	 lea	 ecx, DWORD PTR _ff$2[ebp]
  000c5	e8 00 00 00 00	 call	 ?GetFilePath@CFileFind@@UBE?AV?$CStringT@DV?$StrTraitMFC_DLL@DV?$ChTraitsCRT@D@ATL@@@@@ATL@@XZ ; CFileFind::GetFilePath
  000ca	50		 push	 eax
  000cb	8b ce		 mov	 ecx, esi
  000cd	c6 45 fc 02	 mov	 BYTE PTR __$EHRec$[ebp+8], 2
  000d1	ff 15 00 00 00
	00		 call	 DWORD PTR __imp_??4?$CStringT@DV?$StrTraitMFC_DLL@DV?$ChTraitsCRT@D@ATL@@@@@ATL@@QAEAAV01@ABV01@@Z
  000d7	8d 4d 08	 lea	 ecx, DWORD PTR $T3[ebp]
  000da	ff 15 00 00 00
	00		 call	 DWORD PTR __imp_??1?$CStringT@DV?$StrTraitMFC_DLL@DV?$ChTraitsCRT@D@ATL@@@@@ATL@@QAE@XZ

; 324  : 	}

  000e0	eb 1b		 jmp	 SHORT $LN17@ChangeSfgP
$LN16@ChangeSfgP:

; 325  : 	else
; 326  : 	{
; 327  : 		m_strSfgName = lpszScriptFile;

  000e2	57		 push	 edi
  000e3	8b ce		 mov	 ecx, esi
  000e5	ff 15 00 00 00
	00		 call	 DWORD PTR __imp_??4?$CStringT@DV?$StrTraitMFC_DLL@DV?$ChTraitsCRT@D@ATL@@@@@ATL@@QAEAAV01@PBD@Z

; 328  : 		m_strSfgName.Replace(_T("*"), _T("0"));

  000eb	68 00 00 00 00	 push	 OFFSET ??_C@_01GBGANLPD@0@
  000f0	68 00 00 00 00	 push	 OFFSET ??_C@_01NBENCBCI@?$CK@
  000f5	8b ce		 mov	 ecx, esi
  000f7	ff 15 00 00 00
	00		 call	 DWORD PTR __imp_?Replace@?$CStringT@DV?$StrTraitMFC_DLL@DV?$ChTraitsCRT@D@ATL@@@@@ATL@@QAEHPBD0@Z
$LN17@ChangeSfgP:

; 329  : 	}
; 330  : 
; 331  : }

  000fd	8d 4d d4	 lea	 ecx, DWORD PTR _ff$2[ebp]
  00100	e8 00 00 00 00	 call	 ??1CFileFind@@UAE@XZ	; CFileFind::~CFileFind

; 311  : 	GetSTFile(strSfgName);
; 312  : //	m_strSfgName = strSfgName;
; 313  : }

  00105	8d 4d f0	 lea	 ecx, DWORD PTR _strSfgName$[ebp]
  00108	ff 15 00 00 00
	00		 call	 DWORD PTR __imp_??1?$CStringT@DV?$StrTraitMFC_DLL@DV?$ChTraitsCRT@D@ATL@@@@@ATL@@QAE@XZ
  0010e	8b 4d f4	 mov	 ecx, DWORD PTR __$EHRec$[ebp]
  00111	64 89 0d 00 00
	00 00		 mov	 DWORD PTR fs:0, ecx
  00118	59		 pop	 ecx
  00119	5f		 pop	 edi
  0011a	5e		 pop	 esi
  0011b	8b e5		 mov	 esp, ebp
  0011d	5d		 pop	 ebp
  0011e	c2 04 00	 ret	 4
_TEXT	ENDS
;	COMDAT text$x
text$x	SEGMENT
__unwindfunclet$?ChangeSfgPath@CDlgSTOption@@QAEXPBD@Z$0:
  00000	8d 4d f0	 lea	 ecx, DWORD PTR _strSfgName$[ebp]
  00003	ff 25 00 00 00
	00		 jmp	 DWORD PTR __imp_??1?$CStringT@DV?$StrTraitMFC_DLL@DV?$ChTraitsCRT@D@ATL@@@@@ATL@@QAE@XZ
__unwindfunclet$?ChangeSfgPath@CDlgSTOption@@QAEXPBD@Z$2:
  00009	8d 4d d4	 lea	 ecx, DWORD PTR _ff$2[ebp]
  0000c	e9 00 00 00 00	 jmp	 ??1CFileFind@@UAE@XZ	; CFileFind::~CFileFind
__unwindfunclet$?ChangeSfgPath@CDlgSTOption@@QAEXPBD@Z$3:
  00011	8d 4d 08	 lea	 ecx, DWORD PTR $T3[ebp]
  00014	ff 25 00 00 00
	00		 jmp	 DWORD PTR __imp_??1?$CStringT@DV?$StrTraitMFC_DLL@DV?$ChTraitsCRT@D@ATL@@@@@ATL@@QAE@XZ
  0001a	cc		 int	 3
  0001b	cc		 int	 3
  0001c	cc		 int	 3
  0001d	cc		 int	 3
  0001e	cc		 int	 3
__ehhandler$?ChangeSfgPath@CDlgSTOption@@QAEXPBD@Z:
  0001f	90		 npad	 1
  00020	90		 npad	 1
  00021	8b 54 24 08	 mov	 edx, DWORD PTR [esp+8]
  00025	8d 42 0c	 lea	 eax, DWORD PTR [edx+12]
  00028	8b 4a d4	 mov	 ecx, DWORD PTR [edx-44]
  0002b	33 c8		 xor	 ecx, eax
  0002d	e8 00 00 00 00	 call	 @__security_check_cookie@4
  00032	b8 00 00 00 00	 mov	 eax, OFFSET __ehfuncinfo$?ChangeSfgPath@CDlgSTOption@@QAEXPBD@Z
  00037	e9 00 00 00 00	 jmp	 ___CxxFrameHandler3
text$x	ENDS
?ChangeSfgPath@CDlgSTOption@@QAEXPBD@Z ENDP		; CDlgSTOption::ChangeSfgPath
; Function compile flags: /Ogtp
; File D:\git\src\IBK\IBK_DRFN\ProjSrc\SrcDrfn\Chart\STCONFIGUREDLG\DlgSTOption.cpp
; File C:\Program Files (x86)\Microsoft Visual Studio\2019\Community\VC\Tools\MSVC\14.29.30133\atlmfc\include\afxtempl.h
; File D:\git\src\IBK\IBK_DRFN\ProjSrc\SrcDrfn\Chart\STCONFIGUREDLG\DlgSTOption.cpp
; File C:\Program Files (x86)\Microsoft Visual Studio\2019\Community\VC\Tools\MSVC\14.29.30133\atlmfc\include\afxwin1.inl
; File D:\git\src\IBK\IBK_DRFN\ProjSrc\SrcDrfn\Chart\STCONFIGUREDLG\DlgSTOption.cpp
;	COMDAT ??0CDlgSTOption@@QAE@PAVCWnd@@@Z
_TEXT	SEGMENT
_this$ = -16						; size = 4
__$EHRec$ = -12						; size = 12
_pParent$ = 8						; size = 4
??0CDlgSTOption@@QAE@PAVCWnd@@@Z PROC			; CDlgSTOption::CDlgSTOption, COMDAT
; _this$ = ecx

; 38   : {

  00000	55		 push	 ebp
  00001	8b ec		 mov	 ebp, esp
  00003	6a ff		 push	 -1
  00005	68 00 00 00 00	 push	 __ehhandler$??0CDlgSTOption@@QAE@PAVCWnd@@@Z
  0000a	64 a1 00 00 00
	00		 mov	 eax, DWORD PTR fs:0
  00010	50		 push	 eax
  00011	51		 push	 ecx
  00012	56		 push	 esi
  00013	a1 00 00 00 00	 mov	 eax, DWORD PTR ___security_cookie
  00018	33 c5		 xor	 eax, ebp
  0001a	50		 push	 eax
  0001b	8d 45 f4	 lea	 eax, DWORD PTR __$EHRec$[ebp]
  0001e	64 a3 00 00 00
	00		 mov	 DWORD PTR fs:0, eax
  00024	8b f1		 mov	 esi, ecx
  00026	89 75 f0	 mov	 DWORD PTR _this$[ebp], esi

; 37   : 	: CRscDlg(CDlgSTOption::IDD, pParent)

  00029	ff 75 08	 push	 DWORD PTR _pParent$[ebp]
  0002c	68 08 52 00 00	 push	 21000			; 00005208H
  00031	e8 00 00 00 00	 call	 ??0CRscDlg@@QAE@IPAVCWnd@@@Z ; CRscDlg::CRscDlg

; 38   : {

  00036	8d 8e b0 00 00
	00		 lea	 ecx, DWORD PTR [esi+176]
  0003c	c7 45 fc 00 00
	00 00		 mov	 DWORD PTR __$EHRec$[ebp+8], 0
  00043	c7 06 00 00 00
	00		 mov	 DWORD PTR [esi], OFFSET ??_7CDlgSTOption@@6B@
  00049	e8 00 00 00 00	 call	 ??0CxSkinButton@@QAE@XZ	; CxSkinButton::CxSkinButton
  0004e	8d 8e 28 02 00
	00		 lea	 ecx, DWORD PTR [esi+552]
  00054	c6 45 fc 01	 mov	 BYTE PTR __$EHRec$[ebp+8], 1
  00058	e8 00 00 00 00	 call	 ??0CxSkinButton@@QAE@XZ	; CxSkinButton::CxSkinButton
  0005d	8d 8e a0 03 00
	00		 lea	 ecx, DWORD PTR [esi+928]
  00063	c6 45 fc 02	 mov	 BYTE PTR __$EHRec$[ebp+8], 2
  00067	e8 00 00 00 00	 call	 ??0CXTabCtrl@@QAE@XZ	; CXTabCtrl::CXTabCtrl
  0006c	8d 8e c4 04 00
	00		 lea	 ecx, DWORD PTR [esi+1220]
; File C:\Program Files (x86)\Microsoft Visual Studio\2019\Community\VC\Tools\MSVC\14.29.30133\atlmfc\include\afxtempl.h

; 348  : {

  00072	c7 86 a8 04 00
	00 00 00 00 00	 mov	 DWORD PTR [esi+1192], OFFSET ??_7?$CArray@PAVCRscDlg@@PAV1@@@6B@

; 349  : 	m_pData = NULL;

  0007c	c7 86 ac 04 00
	00 00 00 00 00	 mov	 DWORD PTR [esi+1196], 0

; 350  : 	m_nSize = m_nMaxSize = m_nGrowBy = 0;

  00086	c7 86 b8 04 00
	00 00 00 00 00	 mov	 DWORD PTR [esi+1208], 0
  00090	c7 86 b4 04 00
	00 00 00 00 00	 mov	 DWORD PTR [esi+1204], 0
  0009a	c7 86 b0 04 00
	00 00 00 00 00	 mov	 DWORD PTR [esi+1200], 0
; File D:\git\src\IBK\IBK_DRFN\ProjSrc\SrcDrfn\Chart\STCONFIGUREDLG\DlgSTOption.cpp

; 38   : {

  000a4	ff 15 00 00 00
	00		 call	 DWORD PTR __imp_??0?$CStringT@DV?$StrTraitMFC_DLL@DV?$ChTraitsCRT@D@ATL@@@@@ATL@@QAE@XZ
  000aa	8d 8e cc 04 00
	00		 lea	 ecx, DWORD PTR [esi+1228]
  000b0	ff 15 00 00 00
	00		 call	 DWORD PTR __imp_??0?$CStringT@DV?$StrTraitMFC_DLL@DV?$ChTraitsCRT@D@ATL@@@@@ATL@@QAE@XZ
  000b6	8d 8e d0 04 00
	00		 lea	 ecx, DWORD PTR [esi+1232]
  000bc	ff 15 00 00 00
	00		 call	 DWORD PTR __imp_??0?$CStringT@DV?$StrTraitMFC_DLL@DV?$ChTraitsCRT@D@ATL@@@@@ATL@@QAE@XZ
  000c2	8d 8e d4 04 00
	00		 lea	 ecx, DWORD PTR [esi+1236]
  000c8	ff 15 00 00 00
	00		 call	 DWORD PTR __imp_??0?$CStringT@DV?$StrTraitMFC_DLL@DV?$ChTraitsCRT@D@ATL@@@@@ATL@@QAE@XZ
  000ce	8d 8e e4 04 00
	00		 lea	 ecx, DWORD PTR [esi+1252]
  000d4	ff 15 00 00 00
	00		 call	 DWORD PTR __imp_??0?$CStringT@DV?$StrTraitMFC_DLL@DV?$ChTraitsCRT@D@ATL@@@@@ATL@@QAE@XZ
  000da	8d 8e 00 05 00
	00		 lea	 ecx, DWORD PTR [esi+1280]
; File C:\Program Files (x86)\Microsoft Visual Studio\2019\Community\VC\Tools\MSVC\14.29.30133\atlmfc\include\afxwin1.inl

; 70   : 	{ m_hObject = NULL; }

  000e0	c7 86 f4 04 00
	00 00 00 00 00	 mov	 DWORD PTR [esi+1268], 0

; 128  : 	{ }

  000ea	c7 86 f0 04 00
	00 00 00 00 00	 mov	 DWORD PTR [esi+1264], OFFSET ??_7CBrush@@6B@
; File D:\git\src\IBK\IBK_DRFN\ProjSrc\SrcDrfn\Chart\STCONFIGUREDLG\DlgSTOption.cpp

; 38   : {

  000f4	ff 15 00 00 00
	00		 call	 DWORD PTR __imp_??0?$CStringT@DV?$StrTraitMFC_DLL@DV?$ChTraitsCRT@D@ATL@@@@@ATL@@QAE@XZ

; 39   : 	//{{AFX_DATA_INIT(CDlgSTOption)
; 40   : 		// NOTE: the ClassWizard will add member initialization here
; 41   : 	//}}AFX_DATA_INIT
; 42   : 	m_pSTControllerD = NULL;

  000fa	c7 86 bc 04 00
	00 00 00 00 00	 mov	 DWORD PTR [esi+1212], 0

; 43   : 	m_nType = 0;
; 44   : 	m_bUsePassword = FALSE;
; 45   : 	m_bUseUserID = FALSE;
; 46   : 	m_bUseExpiredDate = FALSE;
; 47   : 	m_hParentUsr = NULL;
; 48   : 	m_crBk = CRBACKGROUND;
; 49   : 	m_pTabBasic = NULL;
; 50   : 	m_pSTConfig = NULL;
; 51   : }

  00104	8b c6		 mov	 eax, esi
  00106	c7 86 c8 04 00
	00 00 00 00 00	 mov	 DWORD PTR [esi+1224], 0
  00110	c7 86 d8 04 00
	00 00 00 00 00	 mov	 DWORD PTR [esi+1240], 0
  0011a	c7 86 dc 04 00
	00 00 00 00 00	 mov	 DWORD PTR [esi+1244], 0
  00124	c7 86 e0 04 00
	00 00 00 00 00	 mov	 DWORD PTR [esi+1248], 0
  0012e	c7 86 e8 04 00
	00 00 00 00 00	 mov	 DWORD PTR [esi+1256], 0
  00138	c7 86 ec 04 00
	00 d3 df f1 00	 mov	 DWORD PTR [esi+1260], 15851475 ; 00f1dfd3H
  00142	c7 86 c0 04 00
	00 00 00 00 00	 mov	 DWORD PTR [esi+1216], 0
  0014c	c7 86 f8 04 00
	00 00 00 00 00	 mov	 DWORD PTR [esi+1272], 0
  00156	8b 4d f4	 mov	 ecx, DWORD PTR __$EHRec$[ebp]
  00159	64 89 0d 00 00
	00 00		 mov	 DWORD PTR fs:0, ecx
  00160	59		 pop	 ecx
  00161	5e		 pop	 esi
  00162	8b e5		 mov	 esp, ebp
  00164	5d		 pop	 ebp
  00165	c2 04 00	 ret	 4
_TEXT	ENDS
;	COMDAT text$x
text$x	SEGMENT
__unwindfunclet$??0CDlgSTOption@@QAE@PAVCWnd@@@Z$0:
  00000	8b 4d f0	 mov	 ecx, DWORD PTR _this$[ebp]
  00003	e9 00 00 00 00	 jmp	 ??1CRscDlg@@UAE@XZ
__unwindfunclet$??0CDlgSTOption@@QAE@PAVCWnd@@@Z$1:
  00008	8b 4d f0	 mov	 ecx, DWORD PTR _this$[ebp]
  0000b	81 c1 b0 00 00
	00		 add	 ecx, 176		; 000000b0H
  00011	e9 00 00 00 00	 jmp	 ??1CxSkinButton@@UAE@XZ	; CxSkinButton::~CxSkinButton
__unwindfunclet$??0CDlgSTOption@@QAE@PAVCWnd@@@Z$2:
  00016	8b 4d f0	 mov	 ecx, DWORD PTR _this$[ebp]
  00019	81 c1 28 02 00
	00		 add	 ecx, 552		; 00000228H
  0001f	e9 00 00 00 00	 jmp	 ??1CxSkinButton@@UAE@XZ	; CxSkinButton::~CxSkinButton
  00024	cc		 int	 3
  00025	cc		 int	 3
  00026	cc		 int	 3
  00027	cc		 int	 3
  00028	cc		 int	 3
__ehhandler$??0CDlgSTOption@@QAE@PAVCWnd@@@Z:
  00029	90		 npad	 1
  0002a	90		 npad	 1
  0002b	8b 54 24 08	 mov	 edx, DWORD PTR [esp+8]
  0002f	8d 42 0c	 lea	 eax, DWORD PTR [edx+12]
  00032	8b 4a f4	 mov	 ecx, DWORD PTR [edx-12]
  00035	33 c8		 xor	 ecx, eax
  00037	e8 00 00 00 00	 call	 @__security_check_cookie@4
  0003c	b8 00 00 00 00	 mov	 eax, OFFSET __ehfuncinfo$??0CDlgSTOption@@QAE@PAVCWnd@@@Z
  00041	e9 00 00 00 00	 jmp	 ___CxxFrameHandler3
text$x	ENDS
??0CDlgSTOption@@QAE@PAVCWnd@@@Z ENDP			; CDlgSTOption::CDlgSTOption
; Function compile flags: /Ogtp
;	COMDAT ??1CRscDlg@@UAE@XZ
_TEXT	SEGMENT
??1CRscDlg@@UAE@XZ PROC					; CRscDlg::~CRscDlg, COMDAT
; _this$ = ecx
  00000	56		 push	 esi
  00001	8b f1		 mov	 esi, ecx
  00003	8d 8e ac 00 00
	00		 lea	 ecx, DWORD PTR [esi+172]
  00009	ff 15 00 00 00
	00		 call	 DWORD PTR __imp_??1?$CStringT@DV?$StrTraitMFC_DLL@DV?$ChTraitsCRT@D@ATL@@@@@ATL@@QAE@XZ
  0000f	8d 8e a8 00 00
	00		 lea	 ecx, DWORD PTR [esi+168]
  00015	ff 15 00 00 00
	00		 call	 DWORD PTR __imp_??1?$CStringT@DV?$StrTraitMFC_DLL@DV?$ChTraitsCRT@D@ATL@@@@@ATL@@QAE@XZ
  0001b	8b ce		 mov	 ecx, esi
  0001d	5e		 pop	 esi
  0001e	e9 00 00 00 00	 jmp	 ??1CDialog@@UAE@XZ	; CDialog::~CDialog
??1CRscDlg@@UAE@XZ ENDP					; CRscDlg::~CRscDlg
_TEXT	ENDS
; Function compile flags: /Ogtp
; File D:\git\src\IBK\IBK_DRFN\ProjSrc\SrcDrfn\Chart\STCONFIGUREDLG\RscDlg.h
;	COMDAT ?SetDefault@CRscDlg@@UAEXXZ
_TEXT	SEGMENT
?SetDefault@CRscDlg@@UAEXXZ PROC			; CRscDlg::SetDefault, COMDAT
; _this$ = ecx

; 49   : 	virtual void SetDefault()	{}

  00000	c2 00 00	 ret	 0
?SetDefault@CRscDlg@@UAEXXZ ENDP			; CRscDlg::SetDefault
_TEXT	ENDS
; Function compile flags: /Ogtp
; File D:\git\src\IBK\IBK_DRFN\ProjSrc\SrcDrfn\Chart\STCONFIGUREDLG\RscDlg.h
;	COMDAT ?RemoveInfo@CRscDlg@@UAEXXZ
_TEXT	SEGMENT
?RemoveInfo@CRscDlg@@UAEXXZ PROC			; CRscDlg::RemoveInfo, COMDAT
; _this$ = ecx

; 48   : 	virtual void RemoveInfo()	{}

  00000	c2 00 00	 ret	 0
?RemoveInfo@CRscDlg@@UAEXXZ ENDP			; CRscDlg::RemoveInfo
_TEXT	ENDS
; Function compile flags: /Ogtp
; File D:\git\src\IBK\IBK_DRFN\ProjSrc\SrcDrfn\Chart\STCONFIGUREDLG\RscDlg.h
;	COMDAT ?SaveInfo@CRscDlg@@UAEHXZ
_TEXT	SEGMENT
?SaveInfo@CRscDlg@@UAEHXZ PROC				; CRscDlg::SaveInfo, COMDAT
; _this$ = ecx

; 47   : 	virtual BOOL SaveInfo()		{return FALSE;}

  00000	33 c0		 xor	 eax, eax
  00002	c3		 ret	 0
?SaveInfo@CRscDlg@@UAEHXZ ENDP				; CRscDlg::SaveInfo
_TEXT	ENDS
; Function compile flags: /Ogtp
; File D:\git\src\IBK\IBK_DRFN\ProjSrc\SrcDrfn\Chart\STCONFIGUREDLG\RscDlg.h
;	COMDAT ?LoadInfo@CRscDlg@@UAEXXZ
_TEXT	SEGMENT
?LoadInfo@CRscDlg@@UAEXXZ PROC				; CRscDlg::LoadInfo, COMDAT
; _this$ = ecx

; 46   : 	virtual void LoadInfo()		{}

  00000	c2 00 00	 ret	 0
?LoadInfo@CRscDlg@@UAEXXZ ENDP				; CRscDlg::LoadInfo
_TEXT	ENDS
; Function compile flags: /Ogtp
; File D:\git\src\IBK\IBK_DRFN\ProjSrc\SrcDrfn\Chart\STCONFIGUREDLG\RscDlg.h
;	COMDAT ?PreTranslateMessage@CRscDlg@@MAEHPAUtagMSG@@@Z
_TEXT	SEGMENT
_pMsg$ = 8						; size = 4
?PreTranslateMessage@CRscDlg@@MAEHPAUtagMSG@@@Z PROC	; CRscDlg::PreTranslateMessage, COMDAT
; _this$ = ecx

; 60   : {

  00000	55		 push	 ebp
  00001	8b ec		 mov	 ebp, esp
  00003	56		 push	 esi

; 61   : 	//     		by KHD
; 62   : 	
; 63   : 	if(pMsg->message == WM_KEYDOWN)   

  00004	8b 75 08	 mov	 esi, DWORD PTR _pMsg$[ebp]
  00007	57		 push	 edi
  00008	8b f9		 mov	 edi, ecx
  0000a	81 7e 04 00 01
	00 00		 cmp	 DWORD PTR [esi+4], 256	; 00000100H
  00011	75 49		 jne	 SHORT $LN5@PreTransla

; 64   : 	{
; 65   : 		if(pMsg->wParam == VK_F4 && (::GetKeyState(VK_CONTROL) & 0x8000))

  00013	83 7e 08 73	 cmp	 DWORD PTR [esi+8], 115	; 00000073H
  00017	75 36		 jne	 SHORT $LN14@PreTransla
  00019	6a 11		 push	 17			; 00000011H
  0001b	ff 15 00 00 00
	00		 call	 DWORD PTR __imp__GetKeyState@4
  00021	66 0f ba e0 0f	 bt	 ax, 15			; 0000000fH
  00026	73 27		 jae	 SHORT $LN14@PreTransla

; 66   : 		{
; 67   : 			
; 68   : 			pMsg->wParam = VK_ESCAPE;

  00028	c7 46 08 1b 00
	00 00		 mov	 DWORD PTR [esi+8], 27	; 0000001bH
$LN15@PreTransla:

; 81   : }

  0002f	ff 77 20	 push	 DWORD PTR [edi+32]
  00032	ff 15 00 00 00
	00		 call	 DWORD PTR __imp__GetParent@4
  00038	50		 push	 eax
  00039	e8 00 00 00 00	 call	 ?FromHandle@CWnd@@SGPAV1@PAUHWND__@@@Z ; CWnd::FromHandle
  0003e	56		 push	 esi
  0003f	8b c8		 mov	 ecx, eax
  00041	8b 10		 mov	 edx, DWORD PTR [eax]
  00043	ff 92 14 01 00
	00		 call	 DWORD PTR [edx+276]
  00049	5f		 pop	 edi
  0004a	5e		 pop	 esi
  0004b	5d		 pop	 ebp
  0004c	c2 04 00	 ret	 4
$LN14@PreTransla:

; 69   : 			return GetParent()->PreTranslateMessage(pMsg);
; 70   : 		}
; 71   : 		if(pMsg->wParam == VK_ESCAPE)

  0004f	8b 46 08	 mov	 eax, DWORD PTR [esi+8]
  00052	83 f8 1b	 cmp	 eax, 27			; 0000001bH
  00055	74 d8		 je	 SHORT $LN15@PreTransla

; 72   : 		{
; 73   : 			return GetParent()->PreTranslateMessage(pMsg);
; 74   : 		}
; 75   : 		if(pMsg->wParam == VK_RETURN)

  00057	83 f8 0d	 cmp	 eax, 13			; 0000000dH
  0005a	74 d3		 je	 SHORT $LN15@PreTransla
$LN5@PreTransla:

; 76   : 			return GetParent()->PreTranslateMessage(pMsg);
; 77   : 
; 78   : 	}
; 79   : 
; 80   : 	return CDialog::PreTranslateMessage(pMsg);

  0005c	56		 push	 esi
  0005d	8b cf		 mov	 ecx, edi
  0005f	e8 00 00 00 00	 call	 ?PreTranslateMessage@CDialog@@UAEHPAUtagMSG@@@Z ; CDialog::PreTranslateMessage
  00064	5f		 pop	 edi

; 81   : }

  00065	5e		 pop	 esi
  00066	5d		 pop	 ebp
  00067	c2 04 00	 ret	 4
?PreTranslateMessage@CRscDlg@@MAEHPAUtagMSG@@@Z ENDP	; CRscDlg::PreTranslateMessage
_TEXT	ENDS
; Function compile flags: /Ogtp
; File C:\Program Files (x86)\Microsoft Visual Studio\2019\Community\VC\Tools\MSVC\14.29.30133\atlmfc\include\afxwin2.inl
;	COMDAT ?EndModalState@CWnd@@UAEXXZ
_TEXT	SEGMENT
?EndModalState@CWnd@@UAEXXZ PROC			; CWnd::EndModalState, COMDAT
; _this$ = ecx

; 567  : 	{ ::EnableWindow(m_hWnd, TRUE); }

  00000	6a 01		 push	 1
  00002	ff 71 20	 push	 DWORD PTR [ecx+32]
  00005	ff 15 00 00 00
	00		 call	 DWORD PTR __imp__EnableWindow@8
  0000b	c3		 ret	 0
?EndModalState@CWnd@@UAEXXZ ENDP			; CWnd::EndModalState
_TEXT	ENDS
; Function compile flags: /Ogtp
; File C:\Program Files (x86)\Microsoft Visual Studio\2019\Community\VC\Tools\MSVC\14.29.30133\atlmfc\include\afxwin2.inl
;	COMDAT ?BeginModalState@CWnd@@UAEXXZ
_TEXT	SEGMENT
?BeginModalState@CWnd@@UAEXXZ PROC			; CWnd::BeginModalState, COMDAT
; _this$ = ecx

; 565  : 	{ ::EnableWindow(m_hWnd, FALSE); }

  00000	6a 00		 push	 0
  00002	ff 71 20	 push	 DWORD PTR [ecx+32]
  00005	ff 15 00 00 00
	00		 call	 DWORD PTR __imp__EnableWindow@8
  0000b	c3		 ret	 0
?BeginModalState@CWnd@@UAEXXZ ENDP			; CWnd::BeginModalState
_TEXT	ENDS
; Function compile flags: /Ogtp
; File C:\Program Files (x86)\Microsoft Visual Studio\2019\Community\VC\Tools\MSVC\14.29.30133\atlmfc\include\afxwin1.inl
; File C:\Program Files (x86)\Microsoft Visual Studio\2019\Community\VC\Tools\MSVC\14.29.30133\atlmfc\include\afx.inl
;	COMDAT ??_GCBrush@@UAEPAXI@Z
_TEXT	SEGMENT
___flags$ = 8						; size = 4
??_GCBrush@@UAEPAXI@Z PROC				; CBrush::`scalar deleting destructor', COMDAT
; _this$ = ecx
  00000	55		 push	 ebp
  00001	8b ec		 mov	 ebp, esp
; File C:\Program Files (x86)\Microsoft Visual Studio\2019\Community\VC\Tools\MSVC\14.29.30133\atlmfc\include\afxwin1.inl

; 130  : 	{ }

  00003	56		 push	 esi
  00004	8b f1		 mov	 esi, ecx
  00006	c7 06 00 00 00
	00		 mov	 DWORD PTR [esi], OFFSET ??_7CBrush@@6B@
  0000c	e8 00 00 00 00	 call	 ??1CGdiObject@@UAE@XZ	; CGdiObject::~CGdiObject
  00011	8b 45 08	 mov	 eax, DWORD PTR ___flags$[ebp]
  00014	a8 01		 test	 al, 1
  00016	74 1f		 je	 SHORT $LN12@scalar
  00018	a8 04		 test	 al, 4
  0001a	75 10		 jne	 SHORT $LN3@scalar
; File C:\Program Files (x86)\Microsoft Visual Studio\2019\Community\VC\Tools\MSVC\14.29.30133\atlmfc\include\afx.inl

; 112  : 	{ ::operator delete(p); }

  0001c	56		 push	 esi
  0001d	e8 00 00 00 00	 call	 ??3@YAXPAX@Z		; operator delete
  00022	83 c4 04	 add	 esp, 4
  00025	8b c6		 mov	 eax, esi
  00027	5e		 pop	 esi
  00028	5d		 pop	 ebp
  00029	c2 04 00	 ret	 4
$LN3@scalar:
  0002c	6a 08		 push	 8
  0002e	56		 push	 esi
  0002f	e8 00 00 00 00	 call	 ?__global_delete@@YAXPAXI@Z ; __global_delete
  00034	83 c4 08	 add	 esp, 8
$LN12@scalar:
  00037	8b c6		 mov	 eax, esi
  00039	5e		 pop	 esi
  0003a	5d		 pop	 ebp
  0003b	c2 04 00	 ret	 4
??_GCBrush@@UAEPAXI@Z ENDP				; CBrush::`scalar deleting destructor'
_TEXT	ENDS
; Function compile flags: /Ogtp
; File C:\Program Files (x86)\Microsoft Visual Studio\2019\Community\VC\Tools\MSVC\14.29.30133\atlmfc\include\afxwin1.inl
;	COMDAT ??1CBrush@@UAE@XZ
_TEXT	SEGMENT
??1CBrush@@UAE@XZ PROC					; CBrush::~CBrush, COMDAT
; _this$ = ecx

; 130  : 	{ }

  00000	c7 01 00 00 00
	00		 mov	 DWORD PTR [ecx], OFFSET ??_7CBrush@@6B@
  00006	e9 00 00 00 00	 jmp	 ??1CGdiObject@@UAE@XZ	; CGdiObject::~CGdiObject
??1CBrush@@UAE@XZ ENDP					; CBrush::~CBrush
_TEXT	ENDS
; Function compile flags: /Ogtp
; File C:\Program Files (x86)\Microsoft Visual Studio\2019\Community\VC\Tools\MSVC\14.29.30133\atlmfc\include\afx.inl
;	COMDAT ??_GCGdiObject@@UAEPAXI@Z
_TEXT	SEGMENT
___flags$ = 8						; size = 4
??_GCGdiObject@@UAEPAXI@Z PROC				; CGdiObject::`scalar deleting destructor', COMDAT
; _this$ = ecx
  00000	55		 push	 ebp
  00001	8b ec		 mov	 ebp, esp
  00003	56		 push	 esi
  00004	8b f1		 mov	 esi, ecx
  00006	e8 00 00 00 00	 call	 ??1CGdiObject@@UAE@XZ	; CGdiObject::~CGdiObject
  0000b	8b 45 08	 mov	 eax, DWORD PTR ___flags$[ebp]
  0000e	a8 01		 test	 al, 1
  00010	74 1f		 je	 SHORT $LN9@scalar
  00012	a8 04		 test	 al, 4
  00014	75 10		 jne	 SHORT $LN3@scalar

; 112  : 	{ ::operator delete(p); }

  00016	56		 push	 esi
  00017	e8 00 00 00 00	 call	 ??3@YAXPAX@Z		; operator delete
  0001c	83 c4 04	 add	 esp, 4
  0001f	8b c6		 mov	 eax, esi
  00021	5e		 pop	 esi
  00022	5d		 pop	 ebp
  00023	c2 04 00	 ret	 4
$LN3@scalar:
  00026	6a 08		 push	 8
  00028	56		 push	 esi
  00029	e8 00 00 00 00	 call	 ?__global_delete@@YAXPAXI@Z ; __global_delete
  0002e	83 c4 08	 add	 esp, 8
$LN9@scalar:
  00031	8b c6		 mov	 eax, esi
  00033	5e		 pop	 esi
  00034	5d		 pop	 ebp
  00035	c2 04 00	 ret	 4
??_GCGdiObject@@UAEPAXI@Z ENDP				; CGdiObject::`scalar deleting destructor'
_TEXT	ENDS
; Function compile flags: /Ogtp
; File C:\Program Files (x86)\Microsoft Visual Studio\2019\Community\VC\Tools\MSVC\14.29.30133\atlmfc\include\afxwin1.inl
;	COMDAT ??1CGdiObject@@UAE@XZ
_TEXT	SEGMENT
_pException$2 = -540					; size = 4
_strMsg$3 = -536					; size = 4
_szErrorMessage$4 = -532				; size = 512
__$ArrayPad$ = -20					; size = 4
__$EHRec$ = -16						; size = 16
??1CGdiObject@@UAE@XZ PROC				; CGdiObject::~CGdiObject, COMDAT
; _this$ = ecx

; 74   : {

  00000	55		 push	 ebp
  00001	8b ec		 mov	 ebp, esp
  00003	6a ff		 push	 -1
  00005	68 00 00 00 00	 push	 __ehhandler$??1CGdiObject@@UAE@XZ
  0000a	64 a1 00 00 00
	00		 mov	 eax, DWORD PTR fs:0
  00010	50		 push	 eax
  00011	81 ec 10 02 00
	00		 sub	 esp, 528		; 00000210H
  00017	a1 00 00 00 00	 mov	 eax, DWORD PTR ___security_cookie
  0001c	33 c5		 xor	 eax, ebp
  0001e	89 45 ec	 mov	 DWORD PTR __$ArrayPad$[ebp], eax
  00021	53		 push	 ebx
  00022	56		 push	 esi
  00023	57		 push	 edi
  00024	50		 push	 eax
  00025	8d 45 f4	 lea	 eax, DWORD PTR __$EHRec$[ebp+4]
  00028	64 a3 00 00 00
	00		 mov	 DWORD PTR fs:0, eax
  0002e	89 65 f0	 mov	 DWORD PTR __$EHRec$[ebp], esp
  00031	c7 01 00 00 00
	00		 mov	 DWORD PTR [ecx], OFFSET ??_7CGdiObject@@6B@

; 75   : 	AFX_BEGIN_DESTRUCTOR

  00037	c7 45 fc 00 00
	00 00		 mov	 DWORD PTR __$EHRec$[ebp+12], 0

; 76   : 	DeleteObject();

  0003e	e8 00 00 00 00	 call	 ?DeleteObject@CGdiObject@@QAEHXZ ; CGdiObject::DeleteObject
$LN18@CGdiObject:

; 78   : }

  00043	8b 4d f4	 mov	 ecx, DWORD PTR __$EHRec$[ebp+4]
  00046	64 89 0d 00 00
	00 00		 mov	 DWORD PTR fs:0, ecx
  0004d	59		 pop	 ecx
  0004e	5f		 pop	 edi
  0004f	5e		 pop	 esi
  00050	5b		 pop	 ebx
  00051	8b 4d ec	 mov	 ecx, DWORD PTR __$ArrayPad$[ebp]
  00054	33 cd		 xor	 ecx, ebp
  00056	e8 00 00 00 00	 call	 @__security_check_cookie@4
  0005b	8b e5		 mov	 esp, ebp
  0005d	5d		 pop	 ebp
  0005e	c3		 ret	 0
__catch$??1CGdiObject@@UAE@XZ$0:

; 77   : 	AFX_END_DESTRUCTOR

  0005f	8d 8d e8 fd ff
	ff		 lea	 ecx, DWORD PTR _strMsg$3[ebp]
  00065	ff 15 00 00 00
	00		 call	 DWORD PTR __imp_??0?$CStringT@DV?$StrTraitMFC_DLL@DV?$ChTraitsCRT@D@ATL@@@@@ATL@@QAE@XZ
  0006b	8b b5 e4 fd ff
	ff		 mov	 esi, DWORD PTR _pException$2[ebp]
  00071	8d 8d ec fd ff
	ff		 lea	 ecx, DWORD PTR _szErrorMessage$4[ebp]
  00077	6a 00		 push	 0
  00079	68 00 02 00 00	 push	 512			; 00000200H
  0007e	51		 push	 ecx
  0007f	8b 06		 mov	 eax, DWORD PTR [esi]
  00081	8b ce		 mov	 ecx, esi
  00083	c6 45 fc 02	 mov	 BYTE PTR __$EHRec$[ebp+12], 2
  00087	ff 50 14	 call	 DWORD PTR [eax+20]
  0008a	85 c0		 test	 eax, eax
  0008c	74 2a		 je	 SHORT $LN9@CGdiObject
  0008e	8d 85 ec fd ff
	ff		 lea	 eax, DWORD PTR _szErrorMessage$4[ebp]
  00094	50		 push	 eax
  00095	6a 4d		 push	 77			; 0000004dH
  00097	68 00 00 00 00	 push	 OFFSET ??_C@_0HD@JJCHHHNK@C?3?2Program?5Files?5?$CIx86?$CJ?2Microsof@
  0009c	68 00 00 00 00	 push	 OFFSET ??_C@_0BP@OIEOKIDM@Exception?5thrown?5in?5destructor@
  000a1	8d 85 e8 fd ff
	ff		 lea	 eax, DWORD PTR _strMsg$3[ebp]
  000a7	68 00 00 00 00	 push	 OFFSET ??_C@_0BB@HBOOMJBF@?$CFTs?5?$CI?$CFTs?3?$CFd?$CJ?6?$CFTs@
  000ac	50		 push	 eax
  000ad	ff 15 00 00 00
	00		 call	 DWORD PTR __imp_?Format@?$CStringT@DV?$StrTraitMFC_DLL@DV?$ChTraitsCRT@D@ATL@@@@@ATL@@QAAXPBDZZ
  000b3	83 c4 18	 add	 esp, 24			; 00000018H
  000b6	eb 21		 jmp	 SHORT $LN10@CGdiObject
$LN9@CGdiObject:
  000b8	6a 4d		 push	 77			; 0000004dH
  000ba	68 00 00 00 00	 push	 OFFSET ??_C@_0HD@JJCHHHNK@C?3?2Program?5Files?5?$CIx86?$CJ?2Microsof@
  000bf	68 00 00 00 00	 push	 OFFSET ??_C@_0BP@OIEOKIDM@Exception?5thrown?5in?5destructor@
  000c4	8d 85 e8 fd ff
	ff		 lea	 eax, DWORD PTR _strMsg$3[ebp]
  000ca	68 00 00 00 00	 push	 OFFSET ??_C@_0N@OMEMOKLE@?$CFTs?5?$CI?$CFTs?3?$CFd?$CJ@
  000cf	50		 push	 eax
  000d0	ff 15 00 00 00
	00		 call	 DWORD PTR __imp_?Format@?$CStringT@DV?$StrTraitMFC_DLL@DV?$ChTraitsCRT@D@ATL@@@@@ATL@@QAAXPBDZZ
  000d6	83 c4 14	 add	 esp, 20			; 00000014H
$LN10@CGdiObject:
  000d9	6a 00		 push	 0
  000db	6a 00		 push	 0
  000dd	ff b5 e8 fd ff
	ff		 push	 DWORD PTR _strMsg$3[ebp]
  000e3	e8 00 00 00 00	 call	 ?AfxMessageBox@@YGHPBDII@Z ; AfxMessageBox
  000e8	8d 8d e8 fd ff
	ff		 lea	 ecx, DWORD PTR _strMsg$3[ebp]
  000ee	ff 15 00 00 00
	00		 call	 DWORD PTR __imp_??1?$CStringT@DV?$StrTraitMFC_DLL@DV?$ChTraitsCRT@D@ATL@@@@@ATL@@QAE@XZ
  000f4	8b 06		 mov	 eax, DWORD PTR [esi]
  000f6	8b ce		 mov	 ecx, esi
  000f8	6a 01		 push	 1
  000fa	ff 50 04	 call	 DWORD PTR [eax+4]
  000fd	b8 00 00 00 00	 mov	 eax, $LN18@CGdiObject
  00102	c3		 ret	 0
_TEXT	ENDS
;	COMDAT text$x
text$x	SEGMENT
__unwindfunclet$??1CGdiObject@@UAE@XZ$2:
  00000	8d 8d e8 fd ff
	ff		 lea	 ecx, DWORD PTR _strMsg$3[ebp]
  00006	ff 25 00 00 00
	00		 jmp	 DWORD PTR __imp_??1?$CStringT@DV?$StrTraitMFC_DLL@DV?$ChTraitsCRT@D@ATL@@@@@ATL@@QAE@XZ
  0000c	cc		 int	 3
  0000d	cc		 int	 3
  0000e	cc		 int	 3
  0000f	cc		 int	 3
  00010	cc		 int	 3
__ehhandler$??1CGdiObject@@UAE@XZ:
  00011	90		 npad	 1
  00012	90		 npad	 1
  00013	8b 54 24 08	 mov	 edx, DWORD PTR [esp+8]
  00017	8d 42 0c	 lea	 eax, DWORD PTR [edx+12]
  0001a	8b 8a e0 fd ff
	ff		 mov	 ecx, DWORD PTR [edx-544]
  00020	33 c8		 xor	 ecx, eax
  00022	e8 00 00 00 00	 call	 @__security_check_cookie@4
  00027	8b 4a f8	 mov	 ecx, DWORD PTR [edx-8]
  0002a	33 c8		 xor	 ecx, eax
  0002c	e8 00 00 00 00	 call	 @__security_check_cookie@4
  00031	b8 00 00 00 00	 mov	 eax, OFFSET __ehfuncinfo$??1CGdiObject@@UAE@XZ
  00036	e9 00 00 00 00	 jmp	 ___CxxFrameHandler3
text$x	ENDS
??1CGdiObject@@UAE@XZ ENDP				; CGdiObject::~CGdiObject
; Function compile flags: /Ogtp
; File C:\Program Files (x86)\Microsoft Visual Studio\2019\Community\VC\Tools\MSVC\14.29.30133\atlmfc\include\afx.inl
;	COMDAT ?Dump@CObject@@UBEXAAVCDumpContext@@@Z
_TEXT	SEGMENT
___formal$ = 8						; size = 4
?Dump@CObject@@UBEXAAVCDumpContext@@@Z PROC		; CObject::Dump, COMDAT
; _this$ = ecx

; 122  : 	{ /* no dumping in release builds */ }

  00000	c2 04 00	 ret	 4
?Dump@CObject@@UBEXAAVCDumpContext@@@Z ENDP		; CObject::Dump
_TEXT	ENDS
; Function compile flags: /Ogtp
; File C:\Program Files (x86)\Microsoft Visual Studio\2019\Community\VC\Tools\MSVC\14.29.30133\atlmfc\include\afx.inl
;	COMDAT ?AssertValid@CObject@@UBEXXZ
_TEXT	SEGMENT
?AssertValid@CObject@@UBEXXZ PROC			; CObject::AssertValid, COMDAT
; _this$ = ecx

; 120  : 	{ /* no asserts in release builds */ }

  00000	c2 00 00	 ret	 0
?AssertValid@CObject@@UBEXXZ ENDP			; CObject::AssertValid
_TEXT	ENDS
; Function compile flags: /Ogtp
; File C:\Program Files (x86)\Microsoft Visual Studio\2019\Community\VC\Tools\MSVC\14.29.30133\atlmfc\include\afx.inl
;	COMDAT ?Serialize@CObject@@UAEXAAVCArchive@@@Z
_TEXT	SEGMENT
___formal$ = 8						; size = 4
?Serialize@CObject@@UAEXAAVCArchive@@@Z PROC		; CObject::Serialize, COMDAT
; _this$ = ecx

; 106  : 	{ /* CObject does not serialize anything by default */ }

  00000	c2 04 00	 ret	 4
?Serialize@CObject@@UAEXAAVCArchive@@@Z ENDP		; CObject::Serialize
_TEXT	ENDS
; Function compile flags: /Ogtp
; File C:\Program Files (x86)\Microsoft Visual Studio\2019\Community\VC\Tools\MSVC\14.29.30133\atlmfc\include\afx.inl
;	COMDAT ??3CObject@@SGXPAX@Z
_TEXT	SEGMENT
_p$ = 8							; size = 4
??3CObject@@SGXPAX@Z PROC				; CObject::operator delete, COMDAT

; 112  : 	{ ::operator delete(p); }

  00000	55		 push	 ebp
  00001	8b ec		 mov	 ebp, esp
  00003	ff 75 08	 push	 DWORD PTR _p$[ebp]
  00006	e8 00 00 00 00	 call	 ??3@YAXPAX@Z		; operator delete
  0000b	83 c4 04	 add	 esp, 4
  0000e	5d		 pop	 ebp
  0000f	c2 04 00	 ret	 4
??3CObject@@SGXPAX@Z ENDP				; CObject::operator delete
_TEXT	ENDS
; Function compile flags: /Ogtp
; File C:\Program Files (x86)\Microsoft Visual Studio\2019\Community\VC\Tools\MSVC\14.29.30133\atlmfc\include\afx.inl
;	COMDAT ??1CObject@@UAE@XZ
_TEXT	SEGMENT
??1CObject@@UAE@XZ PROC					; CObject::~CObject, COMDAT
; _this$ = ecx

; 104  : 	{ }

  00000	c2 00 00	 ret	 0
??1CObject@@UAE@XZ ENDP					; CObject::~CObject
_TEXT	ENDS
; Function compile flags: /Ogtp
; File C:\Program Files (x86)\Microsoft Visual Studio\2019\Community\VC\Tools\MSVC\14.29.30133\atlmfc\include\afx.h
;	COMDAT ?AfxCrtErrorCheck@@YAHH@Z
_TEXT	SEGMENT
_error$ = 8						; size = 4
?AfxCrtErrorCheck@@YAHH@Z PROC				; AfxCrtErrorCheck, COMDAT

; 503  : {

  00000	55		 push	 ebp
  00001	8b ec		 mov	 ebp, esp

; 504  : 	switch(error)

  00003	8b 4d 08	 mov	 ecx, DWORD PTR _error$[ebp]
  00006	83 f9 50	 cmp	 ecx, 80			; 00000050H
  00009	77 17		 ja	 SHORT $LN9@AfxCrtErro
  0000b	0f b6 81 00 00
	00 00		 movzx	 eax, BYTE PTR $LN11@AfxCrtErro[ecx]
  00012	ff 24 85 00 00
	00 00		 jmp	 DWORD PTR $LN12@AfxCrtErro[eax*4]
$LN4@AfxCrtErro:

; 505  : 	{
; 506  : 	case ENOMEM:
; 507  : 		AfxThrowMemoryException();

  00019	e9 00 00 00 00	 jmp	 ?AfxThrowMemoryException@@YGXXZ ; AfxThrowMemoryException
$LN7@AfxCrtErro:

; 518  : 		break;
; 519  : 	}
; 520  : 	return error;

  0001e	8b c1		 mov	 eax, ecx

; 521  : }

  00020	5d		 pop	 ebp
  00021	c3		 ret	 0
$LN9@AfxCrtErro:

; 508  : 		break;
; 509  : 	case EINVAL:
; 510  : 	case ERANGE:
; 511  : 		AfxThrowInvalidArgException();
; 512  : 		break;
; 513  : 	case STRUNCATE:
; 514  : 	case 0:
; 515  : 		break;
; 516  : 	default:
; 517  : 		AfxThrowInvalidArgException();

  00022	e9 00 00 00 00	 jmp	 ?AfxThrowInvalidArgException@@YGXXZ ; AfxThrowInvalidArgException
  00027	90		 npad	 1
$LN12@AfxCrtErro:

; 521  : }

  00028	00 00 00 00	 DD	 $LN7@AfxCrtErro
  0002c	00 00 00 00	 DD	 $LN4@AfxCrtErro
  00030	00 00 00 00	 DD	 $LN9@AfxCrtErro
  00034	00 00 00 00	 DD	 $LN9@AfxCrtErro
$LN11@AfxCrtErro:
  00038	00		 DB	 0
  00039	03		 DB	 3
  0003a	03		 DB	 3
  0003b	03		 DB	 3
  0003c	03		 DB	 3
  0003d	03		 DB	 3
  0003e	03		 DB	 3
  0003f	03		 DB	 3
  00040	03		 DB	 3
  00041	03		 DB	 3
  00042	03		 DB	 3
  00043	03		 DB	 3
  00044	01		 DB	 1
  00045	03		 DB	 3
  00046	03		 DB	 3
  00047	03		 DB	 3
  00048	03		 DB	 3
  00049	03		 DB	 3
  0004a	03		 DB	 3
  0004b	03		 DB	 3
  0004c	03		 DB	 3
  0004d	03		 DB	 3
  0004e	02		 DB	 2
  0004f	03		 DB	 3
  00050	03		 DB	 3
  00051	03		 DB	 3
  00052	03		 DB	 3
  00053	03		 DB	 3
  00054	03		 DB	 3
  00055	03		 DB	 3
  00056	03		 DB	 3
  00057	03		 DB	 3
  00058	03		 DB	 3
  00059	03		 DB	 3
  0005a	02		 DB	 2
  0005b	03		 DB	 3
  0005c	03		 DB	 3
  0005d	03		 DB	 3
  0005e	03		 DB	 3
  0005f	03		 DB	 3
  00060	03		 DB	 3
  00061	03		 DB	 3
  00062	03		 DB	 3
  00063	03		 DB	 3
  00064	03		 DB	 3
  00065	03		 DB	 3
  00066	03		 DB	 3
  00067	03		 DB	 3
  00068	03		 DB	 3
  00069	03		 DB	 3
  0006a	03		 DB	 3
  0006b	03		 DB	 3
  0006c	03		 DB	 3
  0006d	03		 DB	 3
  0006e	03		 DB	 3
  0006f	03		 DB	 3
  00070	03		 DB	 3
  00071	03		 DB	 3
  00072	03		 DB	 3
  00073	03		 DB	 3
  00074	03		 DB	 3
  00075	03		 DB	 3
  00076	03		 DB	 3
  00077	03		 DB	 3
  00078	03		 DB	 3
  00079	03		 DB	 3
  0007a	03		 DB	 3
  0007b	03		 DB	 3
  0007c	03		 DB	 3
  0007d	03		 DB	 3
  0007e	03		 DB	 3
  0007f	03		 DB	 3
  00080	03		 DB	 3
  00081	03		 DB	 3
  00082	03		 DB	 3
  00083	03		 DB	 3
  00084	03		 DB	 3
  00085	03		 DB	 3
  00086	03		 DB	 3
  00087	03		 DB	 3
  00088	00		 DB	 0
?AfxCrtErrorCheck@@YAHH@Z ENDP				; AfxCrtErrorCheck
_TEXT	ENDS
; Function compile flags: /Ogtp
; File D:\git\src\IBK\IBK_DRFN\ProjSrc\SrcDrfn\Chart\STCONFIGUREDLG\DlgSTOption.cpp
;	COMDAT ?__empty_global_delete@@YAXPAXI@Z
_TEXT	SEGMENT
___formal$ = 8						; size = 4
___formal$ = 12						; size = 4
?__empty_global_delete@@YAXPAXI@Z PROC			; __empty_global_delete, COMDAT

  00000	c2 00 00	 ret	 0
?__empty_global_delete@@YAXPAXI@Z ENDP			; __empty_global_delete
_TEXT	ENDS
; Function compile flags: /Ogtp
; File D:\git\src\IBK\IBK_DRFN\ProjSrc\SrcDrfn\Chart\STCONFIGUREDLG\DlgSTOption.cpp
;	COMDAT ?__empty_global_delete@@YAXPAX@Z
_TEXT	SEGMENT
___formal$ = 8						; size = 4
?__empty_global_delete@@YAXPAX@Z PROC			; __empty_global_delete, COMDAT

  00000	c2 00 00	 ret	 0
?__empty_global_delete@@YAXPAX@Z ENDP			; __empty_global_delete
_TEXT	ENDS
END
