; Listing generated by Microsoft (R) Optimizing Compiler Version 19.29.30145.0 

	TITLE	D:\git\src\IBK\IBK_DRFN\#DRfn-CS\_Obj\STConfigureDlg\TabIndex.obj
	.686P
	.XMM
	include listing.inc
	.model	flat

INCLUDELIB MSVCRT
INCLUDELIB OLDNAMES

PUBLIC	?__empty_global_delete@@YAXPAX@Z		; __empty_global_delete
PUBLIC	?__empty_global_delete@@YAXPAXI@Z		; __empty_global_delete
PUBLIC	??1CObject@@UAE@XZ				; CObject::~CObject
PUBLIC	?Serialize@CObject@@UAEXAAVCArchive@@@Z		; CObject::Serialize
PUBLIC	?AssertValid@CObject@@UBEXXZ			; CObject::AssertValid
PUBLIC	?Dump@CObject@@UBEXAAVCDumpContext@@@Z		; CObject::Dump
PUBLIC	?DoDataExchange@CWnd@@MAEXPAVCDataExchange@@@Z	; CWnd::DoDataExchange
PUBLIC	?BeginModalState@CWnd@@UAEXXZ			; CWnd::BeginModalState
PUBLIC	?EndModalState@CWnd@@UAEXXZ			; CWnd::EndModalState
PUBLIC	?Create@CDialog@@UAEHIPAVCWnd@@@Z		; CDialog::Create
PUBLIC	??_GCStatic@@UAEPAXI@Z				; CStatic::`scalar deleting destructor'
PUBLIC	??_GCButton@@UAEPAXI@Z				; CButton::`scalar deleting destructor'
PUBLIC	??_GCComboBox@@UAEPAXI@Z			; CComboBox::`scalar deleting destructor'
PUBLIC	??1CCommonDialog@@UAE@XZ			; CCommonDialog::~CCommonDialog
PUBLIC	??_GCCommonDialog@@UAEPAXI@Z			; CCommonDialog::`scalar deleting destructor'
PUBLIC	??1CColorDialog@@UAE@XZ				; CColorDialog::~CColorDialog
PUBLIC	?PreTranslateMessage@CRscDlg@@MAEHPAUtagMSG@@@Z	; CRscDlg::PreTranslateMessage
PUBLIC	?SetDefault@CRscDlg@@UAEXXZ			; CRscDlg::SetDefault
PUBLIC	??1CRscDlg@@UAE@XZ				; CRscDlg::~CRscDlg
PUBLIC	??0CTabIndex@@QAE@PAVCWnd@@@Z			; CTabIndex::CTabIndex
PUBLIC	?InitComboBox@CTabIndex@@AAEXXZ			; CTabIndex::InitComboBox
PUBLIC	?InitColumn@CTabIndex@@AAEXXZ			; CTabIndex::InitColumn
PUBLIC	?OnBtnClr@CTabIndex@@AAEXAAVCColorButton@@@Z	; CTabIndex::OnBtnClr
PUBLIC	?LoadInfo@CTabIndex@@EAEXXZ			; CTabIndex::LoadInfo
PUBLIC	?SaveInfo@CTabIndex@@EAEHXZ			; CTabIndex::SaveInfo
PUBLIC	?RemoveInfo@CTabIndex@@EAEXXZ			; CTabIndex::RemoveInfo
PUBLIC	??0?$CArray@VCIndexData@@V1@@@QAE@XZ		; CArray<CIndexData,CIndexData>::CArray<CIndexData,CIndexData>
PUBLIC	?SetSize@?$CArray@VCIndexData@@V1@@@QAEXHH@Z	; CArray<CIndexData,CIndexData>::SetSize
PUBLIC	?SetAtGrow@?$CArray@VCIndexData@@V1@@@QAEXHVCIndexData@@@Z ; CArray<CIndexData,CIndexData>::SetAtGrow
PUBLIC	??1?$CArray@VCIndexData@@V1@@@UAE@XZ		; CArray<CIndexData,CIndexData>::~CArray<CIndexData,CIndexData>
PUBLIC	?Serialize@?$CArray@VCIndexData@@V1@@@UAEXAAVCArchive@@@Z ; CArray<CIndexData,CIndexData>::Serialize
PUBLIC	??_G?$CArray@VCIndexData@@V1@@@UAEPAXI@Z	; CArray<CIndexData,CIndexData>::`scalar deleting destructor'
PUBLIC	?DoDataExchange@CTabIndex@@MAEXPAVCDataExchange@@@Z ; CTabIndex::DoDataExchange
PUBLIC	?WindowProc@CTabIndex@@MAEJIIJ@Z		; CTabIndex::WindowProc
PUBLIC	?OnInitDialog@CTabIndex@@MAEHXZ			; CTabIndex::OnInitDialog
PUBLIC	?OnBtnClrBull@CTabIndex@@IAEXXZ			; CTabIndex::OnBtnClrBull
PUBLIC	?OnBtnCltBear@CTabIndex@@IAEXXZ			; CTabIndex::OnBtnCltBear
PUBLIC	?OnBtnGraphClr@CTabIndex@@IAEXXZ		; CTabIndex::OnBtnGraphClr
PUBLIC	?OnItemchangedListGraph@CTabIndex@@IAEXPAUtagNMHDR@@PAJ@Z ; CTabIndex::OnItemchangedListGraph
PUBLIC	?OnSelchangeCbGraphShape@CTabIndex@@IAEXXZ	; CTabIndex::OnSelchangeCbGraphShape
PUBLIC	?OnSelchangeCbGraphThick@CTabIndex@@IAEXXZ	; CTabIndex::OnSelchangeCbGraphThick
PUBLIC	?OnSelchangeCbGraphType@CTabIndex@@IAEXXZ	; CTabIndex::OnSelchangeCbGraphType
PUBLIC	?OnCtlColor@CTabIndex@@IAEPAUHBRUSH__@@PAVCDC@@PAVCWnd@@I@Z ; CTabIndex::OnCtlColor
PUBLIC	?GetThisMessageMap@CTabIndex@@KGPBUAFX_MSGMAP@@XZ ; CTabIndex::GetThisMessageMap
PUBLIC	?GetMessageMap@CTabIndex@@MBEPBUAFX_MSGMAP@@XZ	; CTabIndex::GetMessageMap
PUBLIC	??_GCTabIndex@@UAEPAXI@Z			; CTabIndex::`scalar deleting destructor'
PUBLIC	??$SerializeElements@VCIndexData@@@@YGXAAVCArchive@@PAVCIndexData@@H@Z ; SerializeElements<CIndexData>
PUBLIC	??_C@_02DPKJAMEF@?$CFd@				; `string'
PUBLIC	??_C@_00CNPNBAHC@@				; `string'
PUBLIC	??_7CStatic@@6B@				; CStatic::`vftable'
PUBLIC	??_7CButton@@6B@				; CButton::`vftable'
PUBLIC	??_7CComboBox@@6B@				; CComboBox::`vftable'
PUBLIC	??_7CCommonDialog@@6B@				; CCommonDialog::`vftable'
PUBLIC	??_R0?AVCObject@@@8				; CObject `RTTI Type Descriptor'
PUBLIC	??_R3CObject@@8					; CObject::`RTTI Class Hierarchy Descriptor'
PUBLIC	??_R2CObject@@8					; CObject::`RTTI Base Class Array'
PUBLIC	??_R1A@?0A@EA@CObject@@8			; CObject::`RTTI Base Class Descriptor at (0,-1,0,64)'
PUBLIC	??_R4CStatic@@6B@				; CStatic::`RTTI Complete Object Locator'
PUBLIC	??_R0?AVCStatic@@@8				; CStatic `RTTI Type Descriptor'
PUBLIC	??_R3CStatic@@8					; CStatic::`RTTI Class Hierarchy Descriptor'
PUBLIC	??_R2CStatic@@8					; CStatic::`RTTI Base Class Array'
PUBLIC	??_R1A@?0A@EA@CStatic@@8			; CStatic::`RTTI Base Class Descriptor at (0,-1,0,64)'
PUBLIC	??_R1A@?0A@EA@CWnd@@8				; CWnd::`RTTI Base Class Descriptor at (0,-1,0,64)'
PUBLIC	??_R0?AVCWnd@@@8				; CWnd `RTTI Type Descriptor'
PUBLIC	??_R3CWnd@@8					; CWnd::`RTTI Class Hierarchy Descriptor'
PUBLIC	??_R2CWnd@@8					; CWnd::`RTTI Base Class Array'
PUBLIC	??_R1A@?0A@EA@CCmdTarget@@8			; CCmdTarget::`RTTI Base Class Descriptor at (0,-1,0,64)'
PUBLIC	??_R0?AVCCmdTarget@@@8				; CCmdTarget `RTTI Type Descriptor'
PUBLIC	??_R3CCmdTarget@@8				; CCmdTarget::`RTTI Class Hierarchy Descriptor'
PUBLIC	??_R2CCmdTarget@@8				; CCmdTarget::`RTTI Base Class Array'
PUBLIC	??_R4CButton@@6B@				; CButton::`RTTI Complete Object Locator'
PUBLIC	??_R0?AVCButton@@@8				; CButton `RTTI Type Descriptor'
PUBLIC	??_R3CButton@@8					; CButton::`RTTI Class Hierarchy Descriptor'
PUBLIC	??_R2CButton@@8					; CButton::`RTTI Base Class Array'
PUBLIC	??_R1A@?0A@EA@CButton@@8			; CButton::`RTTI Base Class Descriptor at (0,-1,0,64)'
PUBLIC	??_R4CComboBox@@6B@				; CComboBox::`RTTI Complete Object Locator'
PUBLIC	??_R0?AVCComboBox@@@8				; CComboBox `RTTI Type Descriptor'
PUBLIC	??_R3CComboBox@@8				; CComboBox::`RTTI Class Hierarchy Descriptor'
PUBLIC	??_R2CComboBox@@8				; CComboBox::`RTTI Base Class Array'
PUBLIC	??_R1A@?0A@EA@CComboBox@@8			; CComboBox::`RTTI Base Class Descriptor at (0,-1,0,64)'
PUBLIC	??_R4CCommonDialog@@6B@				; CCommonDialog::`RTTI Complete Object Locator'
PUBLIC	??_R0?AVCCommonDialog@@@8			; CCommonDialog `RTTI Type Descriptor'
PUBLIC	??_R3CCommonDialog@@8				; CCommonDialog::`RTTI Class Hierarchy Descriptor'
PUBLIC	??_R2CCommonDialog@@8				; CCommonDialog::`RTTI Base Class Array'
PUBLIC	??_R1A@?0A@EA@CCommonDialog@@8			; CCommonDialog::`RTTI Base Class Descriptor at (0,-1,0,64)'
PUBLIC	??_R1A@?0A@EA@CDialog@@8			; CDialog::`RTTI Base Class Descriptor at (0,-1,0,64)'
PUBLIC	??_R0?AVCDialog@@@8				; CDialog `RTTI Type Descriptor'
PUBLIC	??_R3CDialog@@8					; CDialog::`RTTI Class Hierarchy Descriptor'
PUBLIC	??_R2CDialog@@8					; CDialog::`RTTI Base Class Array'
PUBLIC	??_7?$CArray@VCIndexData@@V1@@@6B@		; CArray<CIndexData,CIndexData>::`vftable'
PUBLIC	??_7CTabIndex@@6B@				; CTabIndex::`vftable'
PUBLIC	??_C@_07PEPFMEAD@UseBull@			; `string'
PUBLIC	??_C@_07HIHFDPBA@UseBear@			; `string'
PUBLIC	??_C@_05FNNGFGLF@Index@				; `string'
PUBLIC	??_C@_04FABLJDN@Name@				; `string'
PUBLIC	??_C@_04HGGBINEM@?$CFs?$CFd@			; `string'
PUBLIC	??_C@_04KOACHJEN@Type@				; `string'
PUBLIC	??_C@_05PDOBBJNA@Color@				; `string'
PUBLIC	??_C@_05KCIEHPFN@Shape@				; `string'
PUBLIC	??_C@_05PKNGFHKN@Thick@				; `string'
PUBLIC	??_C@_07MBGECCKL@ClrBull@			; `string'
PUBLIC	??_C@_07ENOENJLI@ClrBear@			; `string'
PUBLIC	??_C@_06MKCPLBEP@?A?v?G?$KF?$LI?m@		; `string'
PUBLIC	??_R4CTabIndex@@6B@				; CTabIndex::`RTTI Complete Object Locator'
PUBLIC	??_R0?AVCTabIndex@@@8				; CTabIndex `RTTI Type Descriptor'
PUBLIC	??_R3CTabIndex@@8				; CTabIndex::`RTTI Class Hierarchy Descriptor'
PUBLIC	??_R2CTabIndex@@8				; CTabIndex::`RTTI Base Class Array'
PUBLIC	??_R1A@?0A@EA@CTabIndex@@8			; CTabIndex::`RTTI Base Class Descriptor at (0,-1,0,64)'
PUBLIC	??_R1A@?0A@EA@CRscDlg@@8			; CRscDlg::`RTTI Base Class Descriptor at (0,-1,0,64)'
PUBLIC	??_R0?AVCRscDlg@@@8				; CRscDlg `RTTI Type Descriptor'
PUBLIC	??_R3CRscDlg@@8					; CRscDlg::`RTTI Class Hierarchy Descriptor'
PUBLIC	??_R2CRscDlg@@8					; CRscDlg::`RTTI Base Class Array'
PUBLIC	??_R4?$CArray@VCIndexData@@V1@@@6B@		; CArray<CIndexData,CIndexData>::`RTTI Complete Object Locator'
PUBLIC	??_R0?AV?$CArray@VCIndexData@@V1@@@@8		; CArray<CIndexData,CIndexData> `RTTI Type Descriptor'
PUBLIC	??_R3?$CArray@VCIndexData@@V1@@@8		; CArray<CIndexData,CIndexData>::`RTTI Class Hierarchy Descriptor'
PUBLIC	??_R2?$CArray@VCIndexData@@V1@@@8		; CArray<CIndexData,CIndexData>::`RTTI Base Class Array'
PUBLIC	??_R1A@?0A@EA@?$CArray@VCIndexData@@V1@@@8	; CArray<CIndexData,CIndexData>::`RTTI Base Class Descriptor at (0,-1,0,64)'
EXTRN	??3@YAXPAX@Z:PROC				; operator delete
EXTRN	?__global_delete@@YAXPAXI@Z:PROC		; __global_delete
EXTRN	??_U@YAPAXI@Z:PROC				; operator new[]
EXTRN	??_V@YAXPAX@Z:PROC				; operator delete[]
EXTRN	__imp___invalid_parameter_noinfo:PROC
EXTRN	__imp___errno:PROC
EXTRN	__imp__SendMessageA@16:PROC
EXTRN	__imp__GetKeyState@4:PROC
EXTRN	__imp__EnableWindow@8:PROC
EXTRN	__imp__InvalidateRect@12:PROC
EXTRN	__imp__GetParent@4:PROC
EXTRN	__imp__LoadBitmapW@8:PROC
EXTRN	__imp__atol:PROC
EXTRN	?AfxThrowMemoryException@@YGXXZ:PROC		; AfxThrowMemoryException
EXTRN	?AfxThrowInvalidArgException@@YGXXZ:PROC	; AfxThrowInvalidArgException
EXTRN	?AfxThrowArchiveException@@YGXHPBD@Z:PROC	; AfxThrowArchiveException
EXTRN	?GetRuntimeClass@CObject@@UBEPAUCRuntimeClass@@XZ:PROC ; CObject::GetRuntimeClass
EXTRN	__imp_??0?$CStringT@DV?$StrTraitMFC_DLL@DV?$ChTraitsCRT@D@ATL@@@@@ATL@@QAE@XZ:PROC
EXTRN	__imp_??1?$CStringT@DV?$StrTraitMFC_DLL@DV?$ChTraitsCRT@D@ATL@@@@@ATL@@QAE@XZ:PROC
EXTRN	__imp_??4?$CStringT@DV?$StrTraitMFC_DLL@DV?$ChTraitsCRT@D@ATL@@@@@ATL@@QAEAAV01@ABV01@@Z:PROC
EXTRN	__imp_??4?$CStringT@DV?$StrTraitMFC_DLL@DV?$ChTraitsCRT@D@ATL@@@@@ATL@@QAEAAV01@PBD@Z:PROC
EXTRN	__imp_?Compare@?$CStringT@DV?$StrTraitMFC_DLL@DV?$ChTraitsCRT@D@ATL@@@@@ATL@@QBEHPBD@Z:PROC
EXTRN	__imp_?Format@?$CStringT@DV?$StrTraitMFC_DLL@DV?$ChTraitsCRT@D@ATL@@@@@ATL@@QAAXPBDZZ:PROC
EXTRN	?Read@CArchive@@QAEIPAXI@Z:PROC			; CArchive::Read
EXTRN	?Write@CArchive@@QAEXPBXI@Z:PROC		; CArchive::Write
EXTRN	?ReadCount@CArchive@@QAEKXZ:PROC		; CArchive::ReadCount
EXTRN	?WriteCount@CArchive@@QAEXK@Z:PROC		; CArchive::WriteCount
EXTRN	?Attach@CGdiObject@@QAEHPAX@Z:PROC		; CGdiObject::Attach
EXTRN	?DDX_Control@@YGXPAVCDataExchange@@HAAVCWnd@@@Z:PROC ; DDX_Control
EXTRN	?OnCmdMsg@CCmdTarget@@UAEHIHPAXPAUAFX_CMDHANDLERINFO@@@Z:PROC ; CCmdTarget::OnCmdMsg
EXTRN	?IsInvokeAllowed@CCmdTarget@@UAEHJ@Z:PROC	; CCmdTarget::IsInvokeAllowed
EXTRN	?GetDispatchIID@CCmdTarget@@UAEHPAU_GUID@@@Z:PROC ; CCmdTarget::GetDispatchIID
EXTRN	?GetTypeInfoCount@CCmdTarget@@UAEIXZ:PROC	; CCmdTarget::GetTypeInfoCount
EXTRN	?GetTypeLibCache@CCmdTarget@@UAEPAVCTypeLibCache@@XZ:PROC ; CCmdTarget::GetTypeLibCache
EXTRN	?GetTypeLib@CCmdTarget@@UAEJKPAPAUITypeLib@@@Z:PROC ; CCmdTarget::GetTypeLib
EXTRN	?GetCommandMap@CCmdTarget@@MBEPBUAFX_OLECMDMAP@@XZ:PROC ; CCmdTarget::GetCommandMap
EXTRN	?GetDispatchMap@CCmdTarget@@MBEPBUAFX_DISPMAP@@XZ:PROC ; CCmdTarget::GetDispatchMap
EXTRN	?GetConnectionMap@CCmdTarget@@MBEPBUAFX_CONNECTIONMAP@@XZ:PROC ; CCmdTarget::GetConnectionMap
EXTRN	?GetEventSinkMap@CCmdTarget@@MBEPBUAFX_EVENTSINKMAP@@XZ:PROC ; CCmdTarget::GetEventSinkMap
EXTRN	?OnCreateAggregates@CCmdTarget@@UAEHXZ:PROC	; CCmdTarget::OnCreateAggregates
EXTRN	?GetInterfaceHook@CCmdTarget@@UAEPAUIUnknown@@PBX@Z:PROC ; CCmdTarget::GetInterfaceHook
EXTRN	?GetExtraConnectionPoints@CCmdTarget@@MAEHPAVCPtrArray@@@Z:PROC ; CCmdTarget::GetExtraConnectionPoints
EXTRN	?GetConnectionHook@CCmdTarget@@MAEPAUIConnectionPoint@@ABU_GUID@@@Z:PROC ; CCmdTarget::GetConnectionHook
EXTRN	??0CWnd@@QAE@XZ:PROC				; CWnd::CWnd
EXTRN	?FromHandle@CWnd@@SGPAV1@PAUHWND__@@@Z:PROC	; CWnd::FromHandle
EXTRN	?PreSubclassWindow@CWnd@@UAEXXZ:PROC		; CWnd::PreSubclassWindow
EXTRN	?Create@CWnd@@UAEHPBD0KABUtagRECT@@PAV1@IPAUCCreateContext@@@Z:PROC ; CWnd::Create
EXTRN	?CreateEx@CWnd@@UAEHKPBD0KHHHHPAUHWND__@@PAUHMENU__@@PAX@Z:PROC ; CWnd::CreateEx
EXTRN	?CreateEx@CWnd@@UAEHKPBD0KABUtagRECT@@PAV1@IPAX@Z:PROC ; CWnd::CreateEx
EXTRN	?DestroyWindow@CWnd@@UAEHXZ:PROC		; CWnd::DestroyWindow
EXTRN	?PreCreateWindow@CWnd@@UAEHAAUtagCREATESTRUCTA@@@Z:PROC ; CWnd::PreCreateWindow
EXTRN	?CalcWindowRect@CWnd@@UAEXPAUtagRECT@@I@Z:PROC	; CWnd::CalcWindowRect
EXTRN	?GetMenu@CWnd@@UBEPAVCMenu@@XZ:PROC		; CWnd::GetMenu
EXTRN	?SetMenu@CWnd@@UAEHPAVCMenu@@@Z:PROC		; CWnd::SetMenu
EXTRN	?ShowWindow@CWnd@@QAEHH@Z:PROC			; CWnd::ShowWindow
EXTRN	?OnToolHitTest@CWnd@@UBEHVCPoint@@PAUtagTOOLINFOA@@@Z:PROC ; CWnd::OnToolHitTest
EXTRN	?EnableWindow@CWnd@@QAEHH@Z:PROC		; CWnd::EnableWindow
EXTRN	?GetScrollBarCtrl@CWnd@@UBEPAVCScrollBar@@H@Z:PROC ; CWnd::GetScrollBarCtrl
EXTRN	?WinHelpA@CWnd@@UAEXKI@Z:PROC			; CWnd::WinHelpA
EXTRN	?HtmlHelpA@CWnd@@UAEXKI@Z:PROC			; CWnd::HtmlHelpA
EXTRN	?WinHelpInternal@CWnd@@UAEXKI@Z:PROC		; CWnd::WinHelpInternal
EXTRN	?ContinueModal@CWnd@@UAEHXZ:PROC		; CWnd::ContinueModal
EXTRN	?EndModalLoop@CWnd@@UAEXH@Z:PROC		; CWnd::EndModalLoop
EXTRN	?OnDrawIconicThumbnailOrLivePreview@CWnd@@UAEXAAVCDC@@VCRect@@VCSize@@HAAH@Z:PROC ; CWnd::OnDrawIconicThumbnailOrLivePreview
EXTRN	?GetInterfaceMap@CWnd@@MBEPBUAFX_INTERFACEMAP@@XZ:PROC ; CWnd::GetInterfaceMap
EXTRN	?EnsureStdObj@CWnd@@UAEJXZ:PROC			; CWnd::EnsureStdObj
EXTRN	?get_accParent@CWnd@@UAEJPAPAUIDispatch@@@Z:PROC ; CWnd::get_accParent
EXTRN	?get_accChildCount@CWnd@@UAEJPAJ@Z:PROC		; CWnd::get_accChildCount
EXTRN	?get_accChild@CWnd@@UAEJUtagVARIANT@@PAPAUIDispatch@@@Z:PROC ; CWnd::get_accChild
EXTRN	?get_accName@CWnd@@UAEJUtagVARIANT@@PAPA_W@Z:PROC ; CWnd::get_accName
EXTRN	?get_accValue@CWnd@@UAEJUtagVARIANT@@PAPA_W@Z:PROC ; CWnd::get_accValue
EXTRN	?get_accDescription@CWnd@@UAEJUtagVARIANT@@PAPA_W@Z:PROC ; CWnd::get_accDescription
EXTRN	?get_accRole@CWnd@@UAEJUtagVARIANT@@PAU2@@Z:PROC ; CWnd::get_accRole
EXTRN	?get_accState@CWnd@@UAEJUtagVARIANT@@PAU2@@Z:PROC ; CWnd::get_accState
EXTRN	?get_accHelp@CWnd@@UAEJUtagVARIANT@@PAPA_W@Z:PROC ; CWnd::get_accHelp
EXTRN	?get_accHelpTopic@CWnd@@UAEJPAPA_WUtagVARIANT@@PAJ@Z:PROC ; CWnd::get_accHelpTopic
EXTRN	?get_accKeyboardShortcut@CWnd@@UAEJUtagVARIANT@@PAPA_W@Z:PROC ; CWnd::get_accKeyboardShortcut
EXTRN	?get_accFocus@CWnd@@UAEJPAUtagVARIANT@@@Z:PROC	; CWnd::get_accFocus
EXTRN	?get_accSelection@CWnd@@UAEJPAUtagVARIANT@@@Z:PROC ; CWnd::get_accSelection
EXTRN	?get_accDefaultAction@CWnd@@UAEJUtagVARIANT@@PAPA_W@Z:PROC ; CWnd::get_accDefaultAction
EXTRN	?accSelect@CWnd@@UAEJJUtagVARIANT@@@Z:PROC	; CWnd::accSelect
EXTRN	?accLocation@CWnd@@UAEJPAJ000UtagVARIANT@@@Z:PROC ; CWnd::accLocation
EXTRN	?accNavigate@CWnd@@UAEJJUtagVARIANT@@PAU2@@Z:PROC ; CWnd::accNavigate
EXTRN	?accHitTest@CWnd@@UAEJJJPAUtagVARIANT@@@Z:PROC	; CWnd::accHitTest
EXTRN	?accDoDefaultAction@CWnd@@UAEJUtagVARIANT@@@Z:PROC ; CWnd::accDoDefaultAction
EXTRN	?put_accName@CWnd@@UAEJUtagVARIANT@@PA_W@Z:PROC	; CWnd::put_accName
EXTRN	?put_accValue@CWnd@@UAEJUtagVARIANT@@PA_W@Z:PROC ; CWnd::put_accValue
EXTRN	?SetProxy@CWnd@@UAEJPAUIAccessibleProxy@@@Z:PROC ; CWnd::SetProxy
EXTRN	?CreateAccessibleProxy@CWnd@@UAEJIJPAJ@Z:PROC	; CWnd::CreateAccessibleProxy
EXTRN	?OnCommand@CWnd@@MAEHIJ@Z:PROC			; CWnd::OnCommand
EXTRN	?OnNotify@CWnd@@MAEHIJPAJ@Z:PROC		; CWnd::OnNotify
EXTRN	?OnCtlColor@CWnd@@IAEPAUHBRUSH__@@PAVCDC@@PAV1@I@Z:PROC ; CWnd::OnCtlColor
EXTRN	?GetSuperWndProcAddr@CWnd@@MAEPAP6GJPAUHWND__@@IIJ@ZXZ:PROC ; CWnd::GetSuperWndProcAddr
EXTRN	?PreTranslateMessage@CWnd@@UAEHPAUtagMSG@@@Z:PROC ; CWnd::PreTranslateMessage
EXTRN	?OnAmbientProperty@CWnd@@UAEHPAVCOleControlSite@@JPAUtagVARIANT@@@Z:PROC ; CWnd::OnAmbientProperty
EXTRN	?WindowProc@CWnd@@MAEJIIJ@Z:PROC		; CWnd::WindowProc
EXTRN	?OnWndMsg@CWnd@@MAEHIIJPAJ@Z:PROC		; CWnd::OnWndMsg
EXTRN	?DefWindowProcA@CWnd@@MAEJIIJ@Z:PROC		; CWnd::DefWindowProcA
EXTRN	?PostNcDestroy@CWnd@@MAEXXZ:PROC		; CWnd::PostNcDestroy
EXTRN	?OnChildNotify@CWnd@@MAEHIIJPAJ@Z:PROC		; CWnd::OnChildNotify
EXTRN	?OnTouchInputs@CWnd@@MAEHIPAUtagTOUCHINPUT@@@Z:PROC ; CWnd::OnTouchInputs
EXTRN	?OnTouchInput@CWnd@@MAEHVCPoint@@HHPAUtagTOUCHINPUT@@@Z:PROC ; CWnd::OnTouchInput
EXTRN	?GetGestureStatus@CWnd@@MAEKVCPoint@@@Z:PROC	; CWnd::GetGestureStatus
EXTRN	?OnGestureZoom@CWnd@@MAEHVCPoint@@J@Z:PROC	; CWnd::OnGestureZoom
EXTRN	?OnGesturePan@CWnd@@MAEHVCPoint@@0@Z:PROC	; CWnd::OnGesturePan
EXTRN	?OnGestureRotate@CWnd@@MAEHVCPoint@@N@Z:PROC	; CWnd::OnGestureRotate
EXTRN	?OnGestureTwoFingerTap@CWnd@@MAEHVCPoint@@@Z:PROC ; CWnd::OnGestureTwoFingerTap
EXTRN	?OnGesturePressAndTap@CWnd@@MAEHVCPoint@@J@Z:PROC ; CWnd::OnGesturePressAndTap
EXTRN	?ResizeDynamicLayout@CWnd@@MAEXXZ:PROC		; CWnd::ResizeDynamicLayout
EXTRN	?CheckAutoCenter@CWnd@@UAEHXZ:PROC		; CWnd::CheckAutoCenter
EXTRN	?IsFrameWnd@CWnd@@UBEHXZ:PROC			; CWnd::IsFrameWnd
EXTRN	?OnFinalRelease@CWnd@@UAEXXZ:PROC		; CWnd::OnFinalRelease
EXTRN	?CreateControlContainer@CWnd@@MAEHPAPAVCOleControlContainer@@@Z:PROC ; CWnd::CreateControlContainer
EXTRN	?CreateControlSite@CWnd@@MAEHPAVCOleControlContainer@@PAPAVCOleControlSite@@IABU_GUID@@@Z:PROC ; CWnd::CreateControlSite
EXTRN	?SetOccDialogInfo@CWnd@@MAEHPAU_AFX_OCC_DIALOG_INFO@@@Z:PROC ; CWnd::SetOccDialogInfo
EXTRN	?GetOccDialogInfo@CWnd@@MAEPAU_AFX_OCC_DIALOG_INFO@@XZ:PROC ; CWnd::GetOccDialogInfo
EXTRN	?GetMessageMap@CWnd@@MBEPBUAFX_MSGMAP@@XZ:PROC	; CWnd::GetMessageMap
EXTRN	?GetRuntimeClass@CDialog@@UBEPAUCRuntimeClass@@XZ:PROC ; CDialog::GetRuntimeClass
EXTRN	?Create@CDialog@@UAEHPBDPAVCWnd@@@Z:PROC	; CDialog::Create
EXTRN	?CreateIndirect@CDialog@@UAEHPBUDLGTEMPLATE@@PAVCWnd@@PAX@Z:PROC ; CDialog::CreateIndirect
EXTRN	?CreateIndirect@CDialog@@UAEHPAXPAVCWnd@@@Z:PROC ; CDialog::CreateIndirect
EXTRN	?DoModal@CDialog@@UAEHXZ:PROC			; CDialog::DoModal
EXTRN	?OnInitDialog@CDialog@@UAEHXZ:PROC		; CDialog::OnInitDialog
EXTRN	?OnSetFont@CDialog@@UAEXPAVCFont@@@Z:PROC	; CDialog::OnSetFont
EXTRN	?OnOK@CDialog@@MAEXXZ:PROC			; CDialog::OnOK
EXTRN	?OnCancel@CDialog@@MAEXXZ:PROC			; CDialog::OnCancel
EXTRN	??1CDialog@@UAE@XZ:PROC				; CDialog::~CDialog
EXTRN	?PreTranslateMessage@CDialog@@UAEHPAUtagMSG@@@Z:PROC ; CDialog::PreTranslateMessage
EXTRN	?OnCmdMsg@CDialog@@UAEHIHPAXPAUAFX_CMDHANDLERINFO@@@Z:PROC ; CDialog::OnCmdMsg
EXTRN	?CheckAutoCenter@CDialog@@UAEHXZ:PROC		; CDialog::CheckAutoCenter
EXTRN	?SetOccDialogInfo@CDialog@@MAEHPAU_AFX_OCC_DIALOG_INFO@@@Z:PROC ; CDialog::SetOccDialogInfo
EXTRN	?GetOccDialogInfo@CDialog@@MAEPAU_AFX_OCC_DIALOG_INFO@@XZ:PROC ; CDialog::GetOccDialogInfo
EXTRN	?PreInitDialog@CDialog@@MAEXXZ:PROC		; CDialog::PreInitDialog
EXTRN	?GetRuntimeClass@CStatic@@UBEPAUCRuntimeClass@@XZ:PROC ; CStatic::GetRuntimeClass
EXTRN	?Create@CStatic@@UAEHPBDKABUtagRECT@@PAVCWnd@@I@Z:PROC ; CStatic::Create
EXTRN	?DrawItem@CStatic@@UAEXPAUtagDRAWITEMSTRUCT@@@Z:PROC ; CStatic::DrawItem
EXTRN	??1CStatic@@UAE@XZ:PROC				; CStatic::~CStatic
EXTRN	?OnChildNotify@CStatic@@MAEHIIJPAJ@Z:PROC	; CStatic::OnChildNotify
EXTRN	??_ECStatic@@UAEPAXI@Z:PROC			; CStatic::`vector deleting destructor'
EXTRN	?GetRuntimeClass@CButton@@UBEPAUCRuntimeClass@@XZ:PROC ; CButton::GetRuntimeClass
EXTRN	?Create@CButton@@UAEHPBDKABUtagRECT@@PAVCWnd@@I@Z:PROC ; CButton::Create
EXTRN	?DrawItem@CButton@@UAEXPAUtagDRAWITEMSTRUCT@@@Z:PROC ; CButton::DrawItem
EXTRN	??1CButton@@UAE@XZ:PROC				; CButton::~CButton
EXTRN	?OnChildNotify@CButton@@MAEHIIJPAJ@Z:PROC	; CButton::OnChildNotify
EXTRN	??_ECButton@@UAEPAXI@Z:PROC			; CButton::`vector deleting destructor'
EXTRN	?GetRuntimeClass@CComboBox@@UBEPAUCRuntimeClass@@XZ:PROC ; CComboBox::GetRuntimeClass
EXTRN	?Create@CComboBox@@UAEHKABUtagRECT@@PAVCWnd@@I@Z:PROC ; CComboBox::Create
EXTRN	?DrawItem@CComboBox@@UAEXPAUtagDRAWITEMSTRUCT@@@Z:PROC ; CComboBox::DrawItem
EXTRN	?MeasureItem@CComboBox@@UAEXPAUtagMEASUREITEMSTRUCT@@@Z:PROC ; CComboBox::MeasureItem
EXTRN	?CompareItem@CComboBox@@UAEHPAUtagCOMPAREITEMSTRUCT@@@Z:PROC ; CComboBox::CompareItem
EXTRN	?DeleteItem@CComboBox@@UAEXPAUtagDELETEITEMSTRUCT@@@Z:PROC ; CComboBox::DeleteItem
EXTRN	??1CComboBox@@UAE@XZ:PROC			; CComboBox::~CComboBox
EXTRN	?OnChildNotify@CComboBox@@MAEHIIJPAJ@Z:PROC	; CComboBox::OnChildNotify
EXTRN	??_ECComboBox@@UAEPAXI@Z:PROC			; CComboBox::`vector deleting destructor'
EXTRN	?AfxFindResourceHandle@@YGPAUHINSTANCE__@@PBD0@Z:PROC ; AfxFindResourceHandle
EXTRN	?GetRuntimeClass@CCommonDialog@@UBEPAUCRuntimeClass@@XZ:PROC ; CCommonDialog::GetRuntimeClass
EXTRN	?OnOK@CCommonDialog@@MAEXXZ:PROC		; CCommonDialog::OnOK
EXTRN	?OnCancel@CCommonDialog@@MAEXXZ:PROC		; CCommonDialog::OnCancel
EXTRN	?GetMessageMap@CCommonDialog@@MBEPBUAFX_MSGMAP@@XZ:PROC ; CCommonDialog::GetMessageMap
EXTRN	??_ECCommonDialog@@UAEPAXI@Z:PROC		; CCommonDialog::`vector deleting destructor'
EXTRN	??0CColorDialog@@QAE@KKPAVCWnd@@@Z:PROC		; CColorDialog::CColorDialog
EXTRN	?DoModal@CColorDialog@@UAEHXZ:PROC		; CColorDialog::DoModal
EXTRN	??0CBitmapItemComboBox@@QAE@XZ:PROC		; CBitmapItemComboBox::CBitmapItemComboBox
EXTRN	??1CBitmapItemComboBox@@UAE@XZ:PROC		; CBitmapItemComboBox::~CBitmapItemComboBox
EXTRN	??0CRscDlg@@QAE@IPAVCWnd@@@Z:PROC		; CRscDlg::CRscDlg
EXTRN	?Create@CRscDlg@@UAEHIPAVCWnd@@@Z:PROC		; CRscDlg::Create
EXTRN	?DoModal@CRscDlg@@UAEHXZ:PROC			; CRscDlg::DoModal
EXTRN	?DoDataExchange@CRscDlg@@MAEXPAVCDataExchange@@@Z:PROC ; CRscDlg::DoDataExchange
EXTRN	?GetThisMessageMap@CRscDlg@@KGPBUAFX_MSGMAP@@XZ:PROC ; CRscDlg::GetThisMessageMap
EXTRN	??0CColorButton@@QAE@XZ:PROC			; CColorButton::CColorButton
EXTRN	??1CColorButton@@UAE@XZ:PROC			; CColorButton::~CColorButton
EXTRN	?SetColor@CColorButton@@QAEXABK@Z:PROC		; CColorButton::SetColor
EXTRN	?EnableWindow@CColorButton@@QAEHH@Z:PROC	; CColorButton::EnableWindow
EXTRN	??0CXListCtrl@@QAE@XZ:PROC			; CXListCtrl::CXListCtrl
EXTRN	??1CXListCtrl@@UAE@XZ:PROC			; CXListCtrl::~CXListCtrl
EXTRN	?GetCurSel@CXListCtrl@@QAEHXZ:PROC		; CXListCtrl::GetCurSel
EXTRN	?InsertItem@CXListCtrl@@QAEHHPBD@Z:PROC		; CXListCtrl::InsertItem
EXTRN	?SetCurSel@CXListCtrl@@QAEHHH@Z:PROC		; CXListCtrl::SetCurSel
EXTRN	?SetItemText@CXListCtrl@@QAEHHHPBD@Z:PROC	; CXListCtrl::SetItemText
EXTRN	??_E?$CArray@VCIndexData@@V1@@@UAEPAXI@Z:PROC	; CArray<CIndexData,CIndexData>::`vector deleting destructor'
EXTRN	??_ECTabIndex@@UAEPAXI@Z:PROC			; CTabIndex::`vector deleting destructor'
EXTRN	?GetPrivateProfileStringInST@CDlgSTOption@@QAEKPBD00PADKH@Z:PROC ; CDlgSTOption::GetPrivateProfileStringInST
EXTRN	?WritePrivateProfileStringInST@CDlgSTOption@@QAEHPBD00H@Z:PROC ; CDlgSTOption::WritePrivateProfileStringInST
EXTRN	?Parser@@YA?AV?$CStringT@DV?$StrTraitMFC_DLL@DV?$ChTraitsCRT@D@ATL@@@@@ATL@@PBDPAH@Z:PROC ; Parser
EXTRN	@__security_check_cookie@4:PROC
EXTRN	___CxxFrameHandler3:PROC
EXTRN	_memcpy:PROC
EXTRN	_memset:PROC
EXTRN	??_7type_info@@6B@:QWORD			; type_info::`vftable'
EXTRN	___security_cookie:DWORD
;	COMDAT ??_R1A@?0A@EA@?$CArray@VCIndexData@@V1@@@8
rdata$r	SEGMENT
??_R1A@?0A@EA@?$CArray@VCIndexData@@V1@@@8 DD FLAT:??_R0?AV?$CArray@VCIndexData@@V1@@@@8 ; CArray<CIndexData,CIndexData>::`RTTI Base Class Descriptor at (0,-1,0,64)'
	DD	01H
	DD	00H
	DD	0ffffffffH
	DD	00H
	DD	040H
	DD	FLAT:??_R3?$CArray@VCIndexData@@V1@@@8
rdata$r	ENDS
;	COMDAT ??_R2?$CArray@VCIndexData@@V1@@@8
rdata$r	SEGMENT
??_R2?$CArray@VCIndexData@@V1@@@8 DD FLAT:??_R1A@?0A@EA@?$CArray@VCIndexData@@V1@@@8 ; CArray<CIndexData,CIndexData>::`RTTI Base Class Array'
	DD	FLAT:??_R1A@?0A@EA@CObject@@8
rdata$r	ENDS
;	COMDAT ??_R3?$CArray@VCIndexData@@V1@@@8
rdata$r	SEGMENT
??_R3?$CArray@VCIndexData@@V1@@@8 DD 00H		; CArray<CIndexData,CIndexData>::`RTTI Class Hierarchy Descriptor'
	DD	00H
	DD	02H
	DD	FLAT:??_R2?$CArray@VCIndexData@@V1@@@8
rdata$r	ENDS
;	COMDAT ??_R0?AV?$CArray@VCIndexData@@V1@@@@8
data$rs	SEGMENT
??_R0?AV?$CArray@VCIndexData@@V1@@@@8 DD FLAT:??_7type_info@@6B@ ; CArray<CIndexData,CIndexData> `RTTI Type Descriptor'
	DD	00H
	DB	'.?AV?$CArray@VCIndexData@@V1@@@', 00H
data$rs	ENDS
;	COMDAT ??_R4?$CArray@VCIndexData@@V1@@@6B@
rdata$r	SEGMENT
??_R4?$CArray@VCIndexData@@V1@@@6B@ DD 00H		; CArray<CIndexData,CIndexData>::`RTTI Complete Object Locator'
	DD	00H
	DD	00H
	DD	FLAT:??_R0?AV?$CArray@VCIndexData@@V1@@@@8
	DD	FLAT:??_R3?$CArray@VCIndexData@@V1@@@8
rdata$r	ENDS
;	COMDAT ??_R2CRscDlg@@8
rdata$r	SEGMENT
??_R2CRscDlg@@8 DD FLAT:??_R1A@?0A@EA@CRscDlg@@8	; CRscDlg::`RTTI Base Class Array'
	DD	FLAT:??_R1A@?0A@EA@CDialog@@8
	DD	FLAT:??_R1A@?0A@EA@CWnd@@8
	DD	FLAT:??_R1A@?0A@EA@CCmdTarget@@8
	DD	FLAT:??_R1A@?0A@EA@CObject@@8
rdata$r	ENDS
;	COMDAT ??_R3CRscDlg@@8
rdata$r	SEGMENT
??_R3CRscDlg@@8 DD 00H					; CRscDlg::`RTTI Class Hierarchy Descriptor'
	DD	00H
	DD	05H
	DD	FLAT:??_R2CRscDlg@@8
rdata$r	ENDS
;	COMDAT ??_R0?AVCRscDlg@@@8
data$rs	SEGMENT
??_R0?AVCRscDlg@@@8 DD FLAT:??_7type_info@@6B@		; CRscDlg `RTTI Type Descriptor'
	DD	00H
	DB	'.?AVCRscDlg@@', 00H
data$rs	ENDS
;	COMDAT ??_R1A@?0A@EA@CRscDlg@@8
rdata$r	SEGMENT
??_R1A@?0A@EA@CRscDlg@@8 DD FLAT:??_R0?AVCRscDlg@@@8	; CRscDlg::`RTTI Base Class Descriptor at (0,-1,0,64)'
	DD	04H
	DD	00H
	DD	0ffffffffH
	DD	00H
	DD	040H
	DD	FLAT:??_R3CRscDlg@@8
rdata$r	ENDS
;	COMDAT ??_R1A@?0A@EA@CTabIndex@@8
rdata$r	SEGMENT
??_R1A@?0A@EA@CTabIndex@@8 DD FLAT:??_R0?AVCTabIndex@@@8 ; CTabIndex::`RTTI Base Class Descriptor at (0,-1,0,64)'
	DD	05H
	DD	00H
	DD	0ffffffffH
	DD	00H
	DD	040H
	DD	FLAT:??_R3CTabIndex@@8
rdata$r	ENDS
;	COMDAT ??_R2CTabIndex@@8
rdata$r	SEGMENT
??_R2CTabIndex@@8 DD FLAT:??_R1A@?0A@EA@CTabIndex@@8	; CTabIndex::`RTTI Base Class Array'
	DD	FLAT:??_R1A@?0A@EA@CRscDlg@@8
	DD	FLAT:??_R1A@?0A@EA@CDialog@@8
	DD	FLAT:??_R1A@?0A@EA@CWnd@@8
	DD	FLAT:??_R1A@?0A@EA@CCmdTarget@@8
	DD	FLAT:??_R1A@?0A@EA@CObject@@8
rdata$r	ENDS
;	COMDAT ??_R3CTabIndex@@8
rdata$r	SEGMENT
??_R3CTabIndex@@8 DD 00H				; CTabIndex::`RTTI Class Hierarchy Descriptor'
	DD	00H
	DD	06H
	DD	FLAT:??_R2CTabIndex@@8
rdata$r	ENDS
;	COMDAT ??_R0?AVCTabIndex@@@8
data$rs	SEGMENT
??_R0?AVCTabIndex@@@8 DD FLAT:??_7type_info@@6B@	; CTabIndex `RTTI Type Descriptor'
	DD	00H
	DB	'.?AVCTabIndex@@', 00H
data$rs	ENDS
;	COMDAT ??_R4CTabIndex@@6B@
rdata$r	SEGMENT
??_R4CTabIndex@@6B@ DD 00H				; CTabIndex::`RTTI Complete Object Locator'
	DD	00H
	DD	00H
	DD	FLAT:??_R0?AVCTabIndex@@@8
	DD	FLAT:??_R3CTabIndex@@8
rdata$r	ENDS
;	COMDAT ??_C@_06MKCPLBEP@?A?v?G?$KF?$LI?m@
CONST	SEGMENT
??_C@_06MKCPLBEP@?A?v?G?$KF?$LI?m@ DB 0c1H, 0f6H, 0c7H, 0a5H, 0b8H, 0edH, 00H ; `string'
CONST	ENDS
;	COMDAT ??_C@_07ENOENJLI@ClrBear@
CONST	SEGMENT
??_C@_07ENOENJLI@ClrBear@ DB 'ClrBear', 00H		; `string'
CONST	ENDS
;	COMDAT ??_C@_07MBGECCKL@ClrBull@
CONST	SEGMENT
??_C@_07MBGECCKL@ClrBull@ DB 'ClrBull', 00H		; `string'
CONST	ENDS
;	COMDAT ??_C@_05PKNGFHKN@Thick@
CONST	SEGMENT
??_C@_05PKNGFHKN@Thick@ DB 'Thick', 00H			; `string'
CONST	ENDS
;	COMDAT ??_C@_05KCIEHPFN@Shape@
CONST	SEGMENT
??_C@_05KCIEHPFN@Shape@ DB 'Shape', 00H			; `string'
CONST	ENDS
;	COMDAT ??_C@_05PDOBBJNA@Color@
CONST	SEGMENT
??_C@_05PDOBBJNA@Color@ DB 'Color', 00H			; `string'
CONST	ENDS
;	COMDAT ??_C@_04KOACHJEN@Type@
CONST	SEGMENT
??_C@_04KOACHJEN@Type@ DB 'Type', 00H			; `string'
CONST	ENDS
;	COMDAT ??_C@_04HGGBINEM@?$CFs?$CFd@
CONST	SEGMENT
??_C@_04HGGBINEM@?$CFs?$CFd@ DB '%s%d', 00H		; `string'
CONST	ENDS
;	COMDAT ??_C@_04FABLJDN@Name@
CONST	SEGMENT
??_C@_04FABLJDN@Name@ DB 'Name', 00H			; `string'
CONST	ENDS
;	COMDAT ??_C@_05FNNGFGLF@Index@
CONST	SEGMENT
??_C@_05FNNGFGLF@Index@ DB 'Index', 00H			; `string'
CONST	ENDS
;	COMDAT ??_C@_07HIHFDPBA@UseBear@
CONST	SEGMENT
??_C@_07HIHFDPBA@UseBear@ DB 'UseBear', 00H		; `string'
CONST	ENDS
;	COMDAT ??_C@_07PEPFMEAD@UseBull@
CONST	SEGMENT
??_C@_07PEPFMEAD@UseBull@ DB 'UseBull', 00H		; `string'
CONST	ENDS
;	COMDAT ?messageMap@?1??GetThisMessageMap@CTabIndex@@KGPBUAFX_MSGMAP@@XZ@4U3@B
CONST	SEGMENT
?messageMap@?1??GetThisMessageMap@CTabIndex@@KGPBUAFX_MSGMAP@@XZ@4U3@B DD FLAT:?GetThisMessageMap@CRscDlg@@KGPBUAFX_MSGMAP@@XZ ; `CTabIndex::GetThisMessageMap'::`2'::messageMap
	DD	FLAT:?_messageEntries@?1??GetThisMessageMap@CTabIndex@@KGPBUAFX_MSGMAP@@XZ@4QBUAFX_MSGMAP_ENTRY@@B
CONST	ENDS
;	COMDAT ?_messageEntries@?1??GetThisMessageMap@CTabIndex@@KGPBUAFX_MSGMAP@@XZ@4QBUAFX_MSGMAP_ENTRY@@B
CONST	SEGMENT
?_messageEntries@?1??GetThisMessageMap@CTabIndex@@KGPBUAFX_MSGMAP@@XZ@4QBUAFX_MSGMAP_ENTRY@@B DD 0111H ; `CTabIndex::GetThisMessageMap'::`2'::_messageEntries
	DD	00H
	DD	05216H
	DD	05216H
	DD	03aH
	DD	FLAT:?OnBtnClrBull@CTabIndex@@IAEXXZ
	DD	0111H
	DD	00H
	DD	05217H
	DD	05217H
	DD	03aH
	DD	FLAT:?OnBtnCltBear@CTabIndex@@IAEXXZ
	DD	0111H
	DD	00H
	DD	05224H
	DD	05224H
	DD	03aH
	DD	FLAT:?OnBtnGraphClr@CTabIndex@@IAEXXZ
	DD	04eH
	DD	0ff9bH
	DD	0521fH
	DD	0521fH
	DD	03eH
	DD	FLAT:?OnItemchangedListGraph@CTabIndex@@IAEXPAUtagNMHDR@@PAJ@Z
	DD	0111H
	DD	01H
	DD	05221H
	DD	05221H
	DD	03aH
	DD	FLAT:?OnSelchangeCbGraphShape@CTabIndex@@IAEXXZ
	DD	0111H
	DD	01H
	DD	05222H
	DD	05222H
	DD	03aH
	DD	FLAT:?OnSelchangeCbGraphThick@CTabIndex@@IAEXXZ
	DD	0111H
	DD	01H
	DD	05223H
	DD	05223H
	DD	03aH
	DD	FLAT:?OnSelchangeCbGraphType@CTabIndex@@IAEXXZ
	DD	019H
	DD	00H
	DD	00H
	DD	00H
	DD	08H
	DD	FLAT:?OnCtlColor@CTabIndex@@IAEPAUHBRUSH__@@PAVCDC@@PAVCWnd@@I@Z
	DD	00H
	DD	00H
	DD	00H
	DD	00H
	DD	00H
	DD	00H
CONST	ENDS
;	COMDAT ??_7CTabIndex@@6B@
CONST	SEGMENT
??_7CTabIndex@@6B@ DD FLAT:??_R4CTabIndex@@6B@		; CTabIndex::`vftable'
	DD	FLAT:?GetRuntimeClass@CDialog@@UBEPAUCRuntimeClass@@XZ
	DD	FLAT:??_ECTabIndex@@UAEPAXI@Z
	DD	FLAT:?Serialize@CObject@@UAEXAAVCArchive@@@Z
	DD	FLAT:?AssertValid@CObject@@UBEXXZ
	DD	FLAT:?Dump@CObject@@UBEXAAVCDumpContext@@@Z
	DD	FLAT:?OnCmdMsg@CDialog@@UAEHIHPAXPAUAFX_CMDHANDLERINFO@@@Z
	DD	FLAT:?OnFinalRelease@CWnd@@UAEXXZ
	DD	FLAT:?IsInvokeAllowed@CCmdTarget@@UAEHJ@Z
	DD	FLAT:?GetDispatchIID@CCmdTarget@@UAEHPAU_GUID@@@Z
	DD	FLAT:?GetTypeInfoCount@CCmdTarget@@UAEIXZ
	DD	FLAT:?GetTypeLibCache@CCmdTarget@@UAEPAVCTypeLibCache@@XZ
	DD	FLAT:?GetTypeLib@CCmdTarget@@UAEJKPAPAUITypeLib@@@Z
	DD	FLAT:?GetMessageMap@CTabIndex@@MBEPBUAFX_MSGMAP@@XZ
	DD	FLAT:?GetCommandMap@CCmdTarget@@MBEPBUAFX_OLECMDMAP@@XZ
	DD	FLAT:?GetDispatchMap@CCmdTarget@@MBEPBUAFX_DISPMAP@@XZ
	DD	FLAT:?GetConnectionMap@CCmdTarget@@MBEPBUAFX_CONNECTIONMAP@@XZ
	DD	FLAT:?GetInterfaceMap@CWnd@@MBEPBUAFX_INTERFACEMAP@@XZ
	DD	FLAT:?GetEventSinkMap@CCmdTarget@@MBEPBUAFX_EVENTSINKMAP@@XZ
	DD	FLAT:?OnCreateAggregates@CCmdTarget@@UAEHXZ
	DD	FLAT:?GetInterfaceHook@CCmdTarget@@UAEPAUIUnknown@@PBX@Z
	DD	FLAT:?GetExtraConnectionPoints@CCmdTarget@@MAEHPAVCPtrArray@@@Z
	DD	FLAT:?GetConnectionHook@CCmdTarget@@MAEPAUIConnectionPoint@@ABU_GUID@@@Z
	DD	FLAT:?PreSubclassWindow@CWnd@@UAEXXZ
	DD	FLAT:?Create@CWnd@@UAEHPBD0KABUtagRECT@@PAV1@IPAUCCreateContext@@@Z
	DD	FLAT:?CreateEx@CWnd@@UAEHKPBD0KABUtagRECT@@PAV1@IPAX@Z
	DD	FLAT:?CreateEx@CWnd@@UAEHKPBD0KHHHHPAUHWND__@@PAUHMENU__@@PAX@Z
	DD	FLAT:?DestroyWindow@CWnd@@UAEHXZ
	DD	FLAT:?PreCreateWindow@CWnd@@UAEHAAUtagCREATESTRUCTA@@@Z
	DD	FLAT:?CalcWindowRect@CWnd@@UAEXPAUtagRECT@@I@Z
	DD	FLAT:?GetMenu@CWnd@@UBEPAVCMenu@@XZ
	DD	FLAT:?SetMenu@CWnd@@UAEHPAVCMenu@@@Z
	DD	FLAT:?OnToolHitTest@CWnd@@UBEHVCPoint@@PAUtagTOOLINFOA@@@Z
	DD	FLAT:?GetScrollBarCtrl@CWnd@@UBEPAVCScrollBar@@H@Z
	DD	FLAT:?WinHelpA@CWnd@@UAEXKI@Z
	DD	FLAT:?HtmlHelpA@CWnd@@UAEXKI@Z
	DD	FLAT:?WinHelpInternal@CWnd@@UAEXKI@Z
	DD	FLAT:?ContinueModal@CWnd@@UAEHXZ
	DD	FLAT:?EndModalLoop@CWnd@@UAEXH@Z
	DD	FLAT:?OnDrawIconicThumbnailOrLivePreview@CWnd@@UAEXAAVCDC@@VCRect@@VCSize@@HAAH@Z
	DD	FLAT:?EnsureStdObj@CWnd@@UAEJXZ
	DD	FLAT:?get_accParent@CWnd@@UAEJPAPAUIDispatch@@@Z
	DD	FLAT:?get_accChildCount@CWnd@@UAEJPAJ@Z
	DD	FLAT:?get_accChild@CWnd@@UAEJUtagVARIANT@@PAPAUIDispatch@@@Z
	DD	FLAT:?get_accName@CWnd@@UAEJUtagVARIANT@@PAPA_W@Z
	DD	FLAT:?get_accValue@CWnd@@UAEJUtagVARIANT@@PAPA_W@Z
	DD	FLAT:?get_accDescription@CWnd@@UAEJUtagVARIANT@@PAPA_W@Z
	DD	FLAT:?get_accRole@CWnd@@UAEJUtagVARIANT@@PAU2@@Z
	DD	FLAT:?get_accState@CWnd@@UAEJUtagVARIANT@@PAU2@@Z
	DD	FLAT:?get_accHelp@CWnd@@UAEJUtagVARIANT@@PAPA_W@Z
	DD	FLAT:?get_accHelpTopic@CWnd@@UAEJPAPA_WUtagVARIANT@@PAJ@Z
	DD	FLAT:?get_accKeyboardShortcut@CWnd@@UAEJUtagVARIANT@@PAPA_W@Z
	DD	FLAT:?get_accFocus@CWnd@@UAEJPAUtagVARIANT@@@Z
	DD	FLAT:?get_accSelection@CWnd@@UAEJPAUtagVARIANT@@@Z
	DD	FLAT:?get_accDefaultAction@CWnd@@UAEJUtagVARIANT@@PAPA_W@Z
	DD	FLAT:?accSelect@CWnd@@UAEJJUtagVARIANT@@@Z
	DD	FLAT:?accLocation@CWnd@@UAEJPAJ000UtagVARIANT@@@Z
	DD	FLAT:?accNavigate@CWnd@@UAEJJUtagVARIANT@@PAU2@@Z
	DD	FLAT:?accHitTest@CWnd@@UAEJJJPAUtagVARIANT@@@Z
	DD	FLAT:?accDoDefaultAction@CWnd@@UAEJUtagVARIANT@@@Z
	DD	FLAT:?put_accName@CWnd@@UAEJUtagVARIANT@@PA_W@Z
	DD	FLAT:?put_accValue@CWnd@@UAEJUtagVARIANT@@PA_W@Z
	DD	FLAT:?SetProxy@CWnd@@UAEJPAUIAccessibleProxy@@@Z
	DD	FLAT:?CreateAccessibleProxy@CWnd@@UAEJIJPAJ@Z
	DD	FLAT:?OnCommand@CWnd@@MAEHIJ@Z
	DD	FLAT:?OnNotify@CWnd@@MAEHIJPAJ@Z
	DD	FLAT:?GetSuperWndProcAddr@CWnd@@MAEPAP6GJPAUHWND__@@IIJ@ZXZ
	DD	FLAT:?DoDataExchange@CTabIndex@@MAEXPAVCDataExchange@@@Z
	DD	FLAT:?BeginModalState@CWnd@@UAEXXZ
	DD	FLAT:?EndModalState@CWnd@@UAEXXZ
	DD	FLAT:?PreTranslateMessage@CRscDlg@@MAEHPAUtagMSG@@@Z
	DD	FLAT:?OnAmbientProperty@CWnd@@UAEHPAVCOleControlSite@@JPAUtagVARIANT@@@Z
	DD	FLAT:?WindowProc@CTabIndex@@MAEJIIJ@Z
	DD	FLAT:?OnWndMsg@CWnd@@MAEHIIJPAJ@Z
	DD	FLAT:?DefWindowProcA@CWnd@@MAEJIIJ@Z
	DD	FLAT:?PostNcDestroy@CWnd@@MAEXXZ
	DD	FLAT:?OnChildNotify@CWnd@@MAEHIIJPAJ@Z
	DD	FLAT:?OnTouchInputs@CWnd@@MAEHIPAUtagTOUCHINPUT@@@Z
	DD	FLAT:?OnTouchInput@CWnd@@MAEHVCPoint@@HHPAUtagTOUCHINPUT@@@Z
	DD	FLAT:?GetGestureStatus@CWnd@@MAEKVCPoint@@@Z
	DD	FLAT:?OnGestureZoom@CWnd@@MAEHVCPoint@@J@Z
	DD	FLAT:?OnGesturePan@CWnd@@MAEHVCPoint@@0@Z
	DD	FLAT:?OnGestureRotate@CWnd@@MAEHVCPoint@@N@Z
	DD	FLAT:?OnGestureTwoFingerTap@CWnd@@MAEHVCPoint@@@Z
	DD	FLAT:?OnGesturePressAndTap@CWnd@@MAEHVCPoint@@J@Z
	DD	FLAT:?ResizeDynamicLayout@CWnd@@MAEXXZ
	DD	FLAT:?CheckAutoCenter@CDialog@@UAEHXZ
	DD	FLAT:?IsFrameWnd@CWnd@@UBEHXZ
	DD	FLAT:?CreateControlContainer@CWnd@@MAEHPAPAVCOleControlContainer@@@Z
	DD	FLAT:?CreateControlSite@CWnd@@MAEHPAVCOleControlContainer@@PAPAVCOleControlSite@@IABU_GUID@@@Z
	DD	FLAT:?SetOccDialogInfo@CDialog@@MAEHPAU_AFX_OCC_DIALOG_INFO@@@Z
	DD	FLAT:?GetOccDialogInfo@CDialog@@MAEPAU_AFX_OCC_DIALOG_INFO@@XZ
	DD	FLAT:?Create@CRscDlg@@UAEHIPAVCWnd@@@Z
	DD	FLAT:?Create@CDialog@@UAEHPBDPAVCWnd@@@Z
	DD	FLAT:?CreateIndirect@CDialog@@UAEHPAXPAVCWnd@@@Z
	DD	FLAT:?CreateIndirect@CDialog@@UAEHPBUDLGTEMPLATE@@PAVCWnd@@PAX@Z
	DD	FLAT:?DoModal@CRscDlg@@UAEHXZ
	DD	FLAT:?OnInitDialog@CTabIndex@@MAEHXZ
	DD	FLAT:?OnSetFont@CDialog@@UAEXPAVCFont@@@Z
	DD	FLAT:?OnOK@CDialog@@MAEXXZ
	DD	FLAT:?OnCancel@CDialog@@MAEXXZ
	DD	FLAT:?PreInitDialog@CDialog@@MAEXXZ
	DD	FLAT:?LoadInfo@CTabIndex@@EAEXXZ
	DD	FLAT:?SaveInfo@CTabIndex@@EAEHXZ
	DD	FLAT:?RemoveInfo@CTabIndex@@EAEXXZ
	DD	FLAT:?SetDefault@CRscDlg@@UAEXXZ
CONST	ENDS
;	COMDAT ??_7?$CArray@VCIndexData@@V1@@@6B@
CONST	SEGMENT
??_7?$CArray@VCIndexData@@V1@@@6B@ DD FLAT:??_R4?$CArray@VCIndexData@@V1@@@6B@ ; CArray<CIndexData,CIndexData>::`vftable'
	DD	FLAT:?GetRuntimeClass@CObject@@UBEPAUCRuntimeClass@@XZ
	DD	FLAT:??_E?$CArray@VCIndexData@@V1@@@UAEPAXI@Z
	DD	FLAT:?Serialize@?$CArray@VCIndexData@@V1@@@UAEXAAVCArchive@@@Z
	DD	FLAT:?AssertValid@CObject@@UBEXXZ
	DD	FLAT:?Dump@CObject@@UBEXAAVCDumpContext@@@Z
CONST	ENDS
;	COMDAT ??_R2CDialog@@8
rdata$r	SEGMENT
??_R2CDialog@@8 DD FLAT:??_R1A@?0A@EA@CDialog@@8	; CDialog::`RTTI Base Class Array'
	DD	FLAT:??_R1A@?0A@EA@CWnd@@8
	DD	FLAT:??_R1A@?0A@EA@CCmdTarget@@8
	DD	FLAT:??_R1A@?0A@EA@CObject@@8
rdata$r	ENDS
;	COMDAT ??_R3CDialog@@8
rdata$r	SEGMENT
??_R3CDialog@@8 DD 00H					; CDialog::`RTTI Class Hierarchy Descriptor'
	DD	00H
	DD	04H
	DD	FLAT:??_R2CDialog@@8
rdata$r	ENDS
;	COMDAT ??_R0?AVCDialog@@@8
data$rs	SEGMENT
??_R0?AVCDialog@@@8 DD FLAT:??_7type_info@@6B@		; CDialog `RTTI Type Descriptor'
	DD	00H
	DB	'.?AVCDialog@@', 00H
data$rs	ENDS
;	COMDAT ??_R1A@?0A@EA@CDialog@@8
rdata$r	SEGMENT
??_R1A@?0A@EA@CDialog@@8 DD FLAT:??_R0?AVCDialog@@@8	; CDialog::`RTTI Base Class Descriptor at (0,-1,0,64)'
	DD	03H
	DD	00H
	DD	0ffffffffH
	DD	00H
	DD	040H
	DD	FLAT:??_R3CDialog@@8
rdata$r	ENDS
;	COMDAT ??_R1A@?0A@EA@CCommonDialog@@8
rdata$r	SEGMENT
??_R1A@?0A@EA@CCommonDialog@@8 DD FLAT:??_R0?AVCCommonDialog@@@8 ; CCommonDialog::`RTTI Base Class Descriptor at (0,-1,0,64)'
	DD	04H
	DD	00H
	DD	0ffffffffH
	DD	00H
	DD	040H
	DD	FLAT:??_R3CCommonDialog@@8
rdata$r	ENDS
;	COMDAT ??_R2CCommonDialog@@8
rdata$r	SEGMENT
??_R2CCommonDialog@@8 DD FLAT:??_R1A@?0A@EA@CCommonDialog@@8 ; CCommonDialog::`RTTI Base Class Array'
	DD	FLAT:??_R1A@?0A@EA@CDialog@@8
	DD	FLAT:??_R1A@?0A@EA@CWnd@@8
	DD	FLAT:??_R1A@?0A@EA@CCmdTarget@@8
	DD	FLAT:??_R1A@?0A@EA@CObject@@8
rdata$r	ENDS
;	COMDAT ??_R3CCommonDialog@@8
rdata$r	SEGMENT
??_R3CCommonDialog@@8 DD 00H				; CCommonDialog::`RTTI Class Hierarchy Descriptor'
	DD	00H
	DD	05H
	DD	FLAT:??_R2CCommonDialog@@8
rdata$r	ENDS
;	COMDAT ??_R0?AVCCommonDialog@@@8
data$rs	SEGMENT
??_R0?AVCCommonDialog@@@8 DD FLAT:??_7type_info@@6B@	; CCommonDialog `RTTI Type Descriptor'
	DD	00H
	DB	'.?AVCCommonDialog@@', 00H
data$rs	ENDS
;	COMDAT ??_R4CCommonDialog@@6B@
rdata$r	SEGMENT
??_R4CCommonDialog@@6B@ DD 00H				; CCommonDialog::`RTTI Complete Object Locator'
	DD	00H
	DD	00H
	DD	FLAT:??_R0?AVCCommonDialog@@@8
	DD	FLAT:??_R3CCommonDialog@@8
rdata$r	ENDS
;	COMDAT ??_R1A@?0A@EA@CComboBox@@8
rdata$r	SEGMENT
??_R1A@?0A@EA@CComboBox@@8 DD FLAT:??_R0?AVCComboBox@@@8 ; CComboBox::`RTTI Base Class Descriptor at (0,-1,0,64)'
	DD	03H
	DD	00H
	DD	0ffffffffH
	DD	00H
	DD	040H
	DD	FLAT:??_R3CComboBox@@8
rdata$r	ENDS
;	COMDAT ??_R2CComboBox@@8
rdata$r	SEGMENT
??_R2CComboBox@@8 DD FLAT:??_R1A@?0A@EA@CComboBox@@8	; CComboBox::`RTTI Base Class Array'
	DD	FLAT:??_R1A@?0A@EA@CWnd@@8
	DD	FLAT:??_R1A@?0A@EA@CCmdTarget@@8
	DD	FLAT:??_R1A@?0A@EA@CObject@@8
rdata$r	ENDS
;	COMDAT ??_R3CComboBox@@8
rdata$r	SEGMENT
??_R3CComboBox@@8 DD 00H				; CComboBox::`RTTI Class Hierarchy Descriptor'
	DD	00H
	DD	04H
	DD	FLAT:??_R2CComboBox@@8
rdata$r	ENDS
;	COMDAT ??_R0?AVCComboBox@@@8
data$rs	SEGMENT
??_R0?AVCComboBox@@@8 DD FLAT:??_7type_info@@6B@	; CComboBox `RTTI Type Descriptor'
	DD	00H
	DB	'.?AVCComboBox@@', 00H
data$rs	ENDS
;	COMDAT ??_R4CComboBox@@6B@
rdata$r	SEGMENT
??_R4CComboBox@@6B@ DD 00H				; CComboBox::`RTTI Complete Object Locator'
	DD	00H
	DD	00H
	DD	FLAT:??_R0?AVCComboBox@@@8
	DD	FLAT:??_R3CComboBox@@8
rdata$r	ENDS
;	COMDAT ??_R1A@?0A@EA@CButton@@8
rdata$r	SEGMENT
??_R1A@?0A@EA@CButton@@8 DD FLAT:??_R0?AVCButton@@@8	; CButton::`RTTI Base Class Descriptor at (0,-1,0,64)'
	DD	03H
	DD	00H
	DD	0ffffffffH
	DD	00H
	DD	040H
	DD	FLAT:??_R3CButton@@8
rdata$r	ENDS
;	COMDAT ??_R2CButton@@8
rdata$r	SEGMENT
??_R2CButton@@8 DD FLAT:??_R1A@?0A@EA@CButton@@8	; CButton::`RTTI Base Class Array'
	DD	FLAT:??_R1A@?0A@EA@CWnd@@8
	DD	FLAT:??_R1A@?0A@EA@CCmdTarget@@8
	DD	FLAT:??_R1A@?0A@EA@CObject@@8
rdata$r	ENDS
;	COMDAT ??_R3CButton@@8
rdata$r	SEGMENT
??_R3CButton@@8 DD 00H					; CButton::`RTTI Class Hierarchy Descriptor'
	DD	00H
	DD	04H
	DD	FLAT:??_R2CButton@@8
rdata$r	ENDS
;	COMDAT ??_R0?AVCButton@@@8
data$rs	SEGMENT
??_R0?AVCButton@@@8 DD FLAT:??_7type_info@@6B@		; CButton `RTTI Type Descriptor'
	DD	00H
	DB	'.?AVCButton@@', 00H
data$rs	ENDS
;	COMDAT ??_R4CButton@@6B@
rdata$r	SEGMENT
??_R4CButton@@6B@ DD 00H				; CButton::`RTTI Complete Object Locator'
	DD	00H
	DD	00H
	DD	FLAT:??_R0?AVCButton@@@8
	DD	FLAT:??_R3CButton@@8
rdata$r	ENDS
;	COMDAT ??_R2CCmdTarget@@8
rdata$r	SEGMENT
??_R2CCmdTarget@@8 DD FLAT:??_R1A@?0A@EA@CCmdTarget@@8	; CCmdTarget::`RTTI Base Class Array'
	DD	FLAT:??_R1A@?0A@EA@CObject@@8
rdata$r	ENDS
;	COMDAT ??_R3CCmdTarget@@8
rdata$r	SEGMENT
??_R3CCmdTarget@@8 DD 00H				; CCmdTarget::`RTTI Class Hierarchy Descriptor'
	DD	00H
	DD	02H
	DD	FLAT:??_R2CCmdTarget@@8
rdata$r	ENDS
;	COMDAT ??_R0?AVCCmdTarget@@@8
data$rs	SEGMENT
??_R0?AVCCmdTarget@@@8 DD FLAT:??_7type_info@@6B@	; CCmdTarget `RTTI Type Descriptor'
	DD	00H
	DB	'.?AVCCmdTarget@@', 00H
data$rs	ENDS
;	COMDAT ??_R1A@?0A@EA@CCmdTarget@@8
rdata$r	SEGMENT
??_R1A@?0A@EA@CCmdTarget@@8 DD FLAT:??_R0?AVCCmdTarget@@@8 ; CCmdTarget::`RTTI Base Class Descriptor at (0,-1,0,64)'
	DD	01H
	DD	00H
	DD	0ffffffffH
	DD	00H
	DD	040H
	DD	FLAT:??_R3CCmdTarget@@8
rdata$r	ENDS
;	COMDAT ??_R2CWnd@@8
rdata$r	SEGMENT
??_R2CWnd@@8 DD	FLAT:??_R1A@?0A@EA@CWnd@@8		; CWnd::`RTTI Base Class Array'
	DD	FLAT:??_R1A@?0A@EA@CCmdTarget@@8
	DD	FLAT:??_R1A@?0A@EA@CObject@@8
rdata$r	ENDS
;	COMDAT ??_R3CWnd@@8
rdata$r	SEGMENT
??_R3CWnd@@8 DD	00H					; CWnd::`RTTI Class Hierarchy Descriptor'
	DD	00H
	DD	03H
	DD	FLAT:??_R2CWnd@@8
rdata$r	ENDS
;	COMDAT ??_R0?AVCWnd@@@8
data$rs	SEGMENT
??_R0?AVCWnd@@@8 DD FLAT:??_7type_info@@6B@		; CWnd `RTTI Type Descriptor'
	DD	00H
	DB	'.?AVCWnd@@', 00H
data$rs	ENDS
;	COMDAT ??_R1A@?0A@EA@CWnd@@8
rdata$r	SEGMENT
??_R1A@?0A@EA@CWnd@@8 DD FLAT:??_R0?AVCWnd@@@8		; CWnd::`RTTI Base Class Descriptor at (0,-1,0,64)'
	DD	02H
	DD	00H
	DD	0ffffffffH
	DD	00H
	DD	040H
	DD	FLAT:??_R3CWnd@@8
rdata$r	ENDS
;	COMDAT ??_R1A@?0A@EA@CStatic@@8
rdata$r	SEGMENT
??_R1A@?0A@EA@CStatic@@8 DD FLAT:??_R0?AVCStatic@@@8	; CStatic::`RTTI Base Class Descriptor at (0,-1,0,64)'
	DD	03H
	DD	00H
	DD	0ffffffffH
	DD	00H
	DD	040H
	DD	FLAT:??_R3CStatic@@8
rdata$r	ENDS
;	COMDAT ??_R2CStatic@@8
rdata$r	SEGMENT
??_R2CStatic@@8 DD FLAT:??_R1A@?0A@EA@CStatic@@8	; CStatic::`RTTI Base Class Array'
	DD	FLAT:??_R1A@?0A@EA@CWnd@@8
	DD	FLAT:??_R1A@?0A@EA@CCmdTarget@@8
	DD	FLAT:??_R1A@?0A@EA@CObject@@8
rdata$r	ENDS
;	COMDAT ??_R3CStatic@@8
rdata$r	SEGMENT
??_R3CStatic@@8 DD 00H					; CStatic::`RTTI Class Hierarchy Descriptor'
	DD	00H
	DD	04H
	DD	FLAT:??_R2CStatic@@8
rdata$r	ENDS
;	COMDAT ??_R0?AVCStatic@@@8
data$rs	SEGMENT
??_R0?AVCStatic@@@8 DD FLAT:??_7type_info@@6B@		; CStatic `RTTI Type Descriptor'
	DD	00H
	DB	'.?AVCStatic@@', 00H
data$rs	ENDS
;	COMDAT ??_R4CStatic@@6B@
rdata$r	SEGMENT
??_R4CStatic@@6B@ DD 00H				; CStatic::`RTTI Complete Object Locator'
	DD	00H
	DD	00H
	DD	FLAT:??_R0?AVCStatic@@@8
	DD	FLAT:??_R3CStatic@@8
rdata$r	ENDS
;	COMDAT ??_R1A@?0A@EA@CObject@@8
rdata$r	SEGMENT
??_R1A@?0A@EA@CObject@@8 DD FLAT:??_R0?AVCObject@@@8	; CObject::`RTTI Base Class Descriptor at (0,-1,0,64)'
	DD	00H
	DD	00H
	DD	0ffffffffH
	DD	00H
	DD	040H
	DD	FLAT:??_R3CObject@@8
rdata$r	ENDS
;	COMDAT ??_R2CObject@@8
rdata$r	SEGMENT
??_R2CObject@@8 DD FLAT:??_R1A@?0A@EA@CObject@@8	; CObject::`RTTI Base Class Array'
rdata$r	ENDS
;	COMDAT ??_R3CObject@@8
rdata$r	SEGMENT
??_R3CObject@@8 DD 00H					; CObject::`RTTI Class Hierarchy Descriptor'
	DD	00H
	DD	01H
	DD	FLAT:??_R2CObject@@8
rdata$r	ENDS
;	COMDAT ??_R0?AVCObject@@@8
data$rs	SEGMENT
??_R0?AVCObject@@@8 DD FLAT:??_7type_info@@6B@		; CObject `RTTI Type Descriptor'
	DD	00H
	DB	'.?AVCObject@@', 00H
data$rs	ENDS
;	COMDAT ??_7CCommonDialog@@6B@
CONST	SEGMENT
??_7CCommonDialog@@6B@ DD FLAT:??_R4CCommonDialog@@6B@	; CCommonDialog::`vftable'
	DD	FLAT:?GetRuntimeClass@CCommonDialog@@UBEPAUCRuntimeClass@@XZ
	DD	FLAT:??_ECCommonDialog@@UAEPAXI@Z
	DD	FLAT:?Serialize@CObject@@UAEXAAVCArchive@@@Z
	DD	FLAT:?AssertValid@CObject@@UBEXXZ
	DD	FLAT:?Dump@CObject@@UBEXAAVCDumpContext@@@Z
	DD	FLAT:?OnCmdMsg@CDialog@@UAEHIHPAXPAUAFX_CMDHANDLERINFO@@@Z
	DD	FLAT:?OnFinalRelease@CWnd@@UAEXXZ
	DD	FLAT:?IsInvokeAllowed@CCmdTarget@@UAEHJ@Z
	DD	FLAT:?GetDispatchIID@CCmdTarget@@UAEHPAU_GUID@@@Z
	DD	FLAT:?GetTypeInfoCount@CCmdTarget@@UAEIXZ
	DD	FLAT:?GetTypeLibCache@CCmdTarget@@UAEPAVCTypeLibCache@@XZ
	DD	FLAT:?GetTypeLib@CCmdTarget@@UAEJKPAPAUITypeLib@@@Z
	DD	FLAT:?GetMessageMap@CCommonDialog@@MBEPBUAFX_MSGMAP@@XZ
	DD	FLAT:?GetCommandMap@CCmdTarget@@MBEPBUAFX_OLECMDMAP@@XZ
	DD	FLAT:?GetDispatchMap@CCmdTarget@@MBEPBUAFX_DISPMAP@@XZ
	DD	FLAT:?GetConnectionMap@CCmdTarget@@MBEPBUAFX_CONNECTIONMAP@@XZ
	DD	FLAT:?GetInterfaceMap@CWnd@@MBEPBUAFX_INTERFACEMAP@@XZ
	DD	FLAT:?GetEventSinkMap@CCmdTarget@@MBEPBUAFX_EVENTSINKMAP@@XZ
	DD	FLAT:?OnCreateAggregates@CCmdTarget@@UAEHXZ
	DD	FLAT:?GetInterfaceHook@CCmdTarget@@UAEPAUIUnknown@@PBX@Z
	DD	FLAT:?GetExtraConnectionPoints@CCmdTarget@@MAEHPAVCPtrArray@@@Z
	DD	FLAT:?GetConnectionHook@CCmdTarget@@MAEPAUIConnectionPoint@@ABU_GUID@@@Z
	DD	FLAT:?PreSubclassWindow@CWnd@@UAEXXZ
	DD	FLAT:?Create@CWnd@@UAEHPBD0KABUtagRECT@@PAV1@IPAUCCreateContext@@@Z
	DD	FLAT:?CreateEx@CWnd@@UAEHKPBD0KABUtagRECT@@PAV1@IPAX@Z
	DD	FLAT:?CreateEx@CWnd@@UAEHKPBD0KHHHHPAUHWND__@@PAUHMENU__@@PAX@Z
	DD	FLAT:?DestroyWindow@CWnd@@UAEHXZ
	DD	FLAT:?PreCreateWindow@CWnd@@UAEHAAUtagCREATESTRUCTA@@@Z
	DD	FLAT:?CalcWindowRect@CWnd@@UAEXPAUtagRECT@@I@Z
	DD	FLAT:?GetMenu@CWnd@@UBEPAVCMenu@@XZ
	DD	FLAT:?SetMenu@CWnd@@UAEHPAVCMenu@@@Z
	DD	FLAT:?OnToolHitTest@CWnd@@UBEHVCPoint@@PAUtagTOOLINFOA@@@Z
	DD	FLAT:?GetScrollBarCtrl@CWnd@@UBEPAVCScrollBar@@H@Z
	DD	FLAT:?WinHelpA@CWnd@@UAEXKI@Z
	DD	FLAT:?HtmlHelpA@CWnd@@UAEXKI@Z
	DD	FLAT:?WinHelpInternal@CWnd@@UAEXKI@Z
	DD	FLAT:?ContinueModal@CWnd@@UAEHXZ
	DD	FLAT:?EndModalLoop@CWnd@@UAEXH@Z
	DD	FLAT:?OnDrawIconicThumbnailOrLivePreview@CWnd@@UAEXAAVCDC@@VCRect@@VCSize@@HAAH@Z
	DD	FLAT:?EnsureStdObj@CWnd@@UAEJXZ
	DD	FLAT:?get_accParent@CWnd@@UAEJPAPAUIDispatch@@@Z
	DD	FLAT:?get_accChildCount@CWnd@@UAEJPAJ@Z
	DD	FLAT:?get_accChild@CWnd@@UAEJUtagVARIANT@@PAPAUIDispatch@@@Z
	DD	FLAT:?get_accName@CWnd@@UAEJUtagVARIANT@@PAPA_W@Z
	DD	FLAT:?get_accValue@CWnd@@UAEJUtagVARIANT@@PAPA_W@Z
	DD	FLAT:?get_accDescription@CWnd@@UAEJUtagVARIANT@@PAPA_W@Z
	DD	FLAT:?get_accRole@CWnd@@UAEJUtagVARIANT@@PAU2@@Z
	DD	FLAT:?get_accState@CWnd@@UAEJUtagVARIANT@@PAU2@@Z
	DD	FLAT:?get_accHelp@CWnd@@UAEJUtagVARIANT@@PAPA_W@Z
	DD	FLAT:?get_accHelpTopic@CWnd@@UAEJPAPA_WUtagVARIANT@@PAJ@Z
	DD	FLAT:?get_accKeyboardShortcut@CWnd@@UAEJUtagVARIANT@@PAPA_W@Z
	DD	FLAT:?get_accFocus@CWnd@@UAEJPAUtagVARIANT@@@Z
	DD	FLAT:?get_accSelection@CWnd@@UAEJPAUtagVARIANT@@@Z
	DD	FLAT:?get_accDefaultAction@CWnd@@UAEJUtagVARIANT@@PAPA_W@Z
	DD	FLAT:?accSelect@CWnd@@UAEJJUtagVARIANT@@@Z
	DD	FLAT:?accLocation@CWnd@@UAEJPAJ000UtagVARIANT@@@Z
	DD	FLAT:?accNavigate@CWnd@@UAEJJUtagVARIANT@@PAU2@@Z
	DD	FLAT:?accHitTest@CWnd@@UAEJJJPAUtagVARIANT@@@Z
	DD	FLAT:?accDoDefaultAction@CWnd@@UAEJUtagVARIANT@@@Z
	DD	FLAT:?put_accName@CWnd@@UAEJUtagVARIANT@@PA_W@Z
	DD	FLAT:?put_accValue@CWnd@@UAEJUtagVARIANT@@PA_W@Z
	DD	FLAT:?SetProxy@CWnd@@UAEJPAUIAccessibleProxy@@@Z
	DD	FLAT:?CreateAccessibleProxy@CWnd@@UAEJIJPAJ@Z
	DD	FLAT:?OnCommand@CWnd@@MAEHIJ@Z
	DD	FLAT:?OnNotify@CWnd@@MAEHIJPAJ@Z
	DD	FLAT:?GetSuperWndProcAddr@CWnd@@MAEPAP6GJPAUHWND__@@IIJ@ZXZ
	DD	FLAT:?DoDataExchange@CWnd@@MAEXPAVCDataExchange@@@Z
	DD	FLAT:?BeginModalState@CWnd@@UAEXXZ
	DD	FLAT:?EndModalState@CWnd@@UAEXXZ
	DD	FLAT:?PreTranslateMessage@CDialog@@UAEHPAUtagMSG@@@Z
	DD	FLAT:?OnAmbientProperty@CWnd@@UAEHPAVCOleControlSite@@JPAUtagVARIANT@@@Z
	DD	FLAT:?WindowProc@CWnd@@MAEJIIJ@Z
	DD	FLAT:?OnWndMsg@CWnd@@MAEHIIJPAJ@Z
	DD	FLAT:?DefWindowProcA@CWnd@@MAEJIIJ@Z
	DD	FLAT:?PostNcDestroy@CWnd@@MAEXXZ
	DD	FLAT:?OnChildNotify@CWnd@@MAEHIIJPAJ@Z
	DD	FLAT:?OnTouchInputs@CWnd@@MAEHIPAUtagTOUCHINPUT@@@Z
	DD	FLAT:?OnTouchInput@CWnd@@MAEHVCPoint@@HHPAUtagTOUCHINPUT@@@Z
	DD	FLAT:?GetGestureStatus@CWnd@@MAEKVCPoint@@@Z
	DD	FLAT:?OnGestureZoom@CWnd@@MAEHVCPoint@@J@Z
	DD	FLAT:?OnGesturePan@CWnd@@MAEHVCPoint@@0@Z
	DD	FLAT:?OnGestureRotate@CWnd@@MAEHVCPoint@@N@Z
	DD	FLAT:?OnGestureTwoFingerTap@CWnd@@MAEHVCPoint@@@Z
	DD	FLAT:?OnGesturePressAndTap@CWnd@@MAEHVCPoint@@J@Z
	DD	FLAT:?ResizeDynamicLayout@CWnd@@MAEXXZ
	DD	FLAT:?CheckAutoCenter@CDialog@@UAEHXZ
	DD	FLAT:?IsFrameWnd@CWnd@@UBEHXZ
	DD	FLAT:?CreateControlContainer@CWnd@@MAEHPAPAVCOleControlContainer@@@Z
	DD	FLAT:?CreateControlSite@CWnd@@MAEHPAVCOleControlContainer@@PAPAVCOleControlSite@@IABU_GUID@@@Z
	DD	FLAT:?SetOccDialogInfo@CDialog@@MAEHPAU_AFX_OCC_DIALOG_INFO@@@Z
	DD	FLAT:?GetOccDialogInfo@CDialog@@MAEPAU_AFX_OCC_DIALOG_INFO@@XZ
	DD	FLAT:?Create@CDialog@@UAEHIPAVCWnd@@@Z
	DD	FLAT:?Create@CDialog@@UAEHPBDPAVCWnd@@@Z
	DD	FLAT:?CreateIndirect@CDialog@@UAEHPAXPAVCWnd@@@Z
	DD	FLAT:?CreateIndirect@CDialog@@UAEHPBUDLGTEMPLATE@@PAVCWnd@@PAX@Z
	DD	FLAT:?DoModal@CDialog@@UAEHXZ
	DD	FLAT:?OnInitDialog@CDialog@@UAEHXZ
	DD	FLAT:?OnSetFont@CDialog@@UAEXPAVCFont@@@Z
	DD	FLAT:?OnOK@CCommonDialog@@MAEXXZ
	DD	FLAT:?OnCancel@CCommonDialog@@MAEXXZ
	DD	FLAT:?PreInitDialog@CDialog@@MAEXXZ
CONST	ENDS
;	COMDAT ??_7CComboBox@@6B@
CONST	SEGMENT
??_7CComboBox@@6B@ DD FLAT:??_R4CComboBox@@6B@		; CComboBox::`vftable'
	DD	FLAT:?GetRuntimeClass@CComboBox@@UBEPAUCRuntimeClass@@XZ
	DD	FLAT:??_ECComboBox@@UAEPAXI@Z
	DD	FLAT:?Serialize@CObject@@UAEXAAVCArchive@@@Z
	DD	FLAT:?AssertValid@CObject@@UBEXXZ
	DD	FLAT:?Dump@CObject@@UBEXAAVCDumpContext@@@Z
	DD	FLAT:?OnCmdMsg@CCmdTarget@@UAEHIHPAXPAUAFX_CMDHANDLERINFO@@@Z
	DD	FLAT:?OnFinalRelease@CWnd@@UAEXXZ
	DD	FLAT:?IsInvokeAllowed@CCmdTarget@@UAEHJ@Z
	DD	FLAT:?GetDispatchIID@CCmdTarget@@UAEHPAU_GUID@@@Z
	DD	FLAT:?GetTypeInfoCount@CCmdTarget@@UAEIXZ
	DD	FLAT:?GetTypeLibCache@CCmdTarget@@UAEPAVCTypeLibCache@@XZ
	DD	FLAT:?GetTypeLib@CCmdTarget@@UAEJKPAPAUITypeLib@@@Z
	DD	FLAT:?GetMessageMap@CWnd@@MBEPBUAFX_MSGMAP@@XZ
	DD	FLAT:?GetCommandMap@CCmdTarget@@MBEPBUAFX_OLECMDMAP@@XZ
	DD	FLAT:?GetDispatchMap@CCmdTarget@@MBEPBUAFX_DISPMAP@@XZ
	DD	FLAT:?GetConnectionMap@CCmdTarget@@MBEPBUAFX_CONNECTIONMAP@@XZ
	DD	FLAT:?GetInterfaceMap@CWnd@@MBEPBUAFX_INTERFACEMAP@@XZ
	DD	FLAT:?GetEventSinkMap@CCmdTarget@@MBEPBUAFX_EVENTSINKMAP@@XZ
	DD	FLAT:?OnCreateAggregates@CCmdTarget@@UAEHXZ
	DD	FLAT:?GetInterfaceHook@CCmdTarget@@UAEPAUIUnknown@@PBX@Z
	DD	FLAT:?GetExtraConnectionPoints@CCmdTarget@@MAEHPAVCPtrArray@@@Z
	DD	FLAT:?GetConnectionHook@CCmdTarget@@MAEPAUIConnectionPoint@@ABU_GUID@@@Z
	DD	FLAT:?PreSubclassWindow@CWnd@@UAEXXZ
	DD	FLAT:?Create@CWnd@@UAEHPBD0KABUtagRECT@@PAV1@IPAUCCreateContext@@@Z
	DD	FLAT:?CreateEx@CWnd@@UAEHKPBD0KABUtagRECT@@PAV1@IPAX@Z
	DD	FLAT:?CreateEx@CWnd@@UAEHKPBD0KHHHHPAUHWND__@@PAUHMENU__@@PAX@Z
	DD	FLAT:?DestroyWindow@CWnd@@UAEHXZ
	DD	FLAT:?PreCreateWindow@CWnd@@UAEHAAUtagCREATESTRUCTA@@@Z
	DD	FLAT:?CalcWindowRect@CWnd@@UAEXPAUtagRECT@@I@Z
	DD	FLAT:?GetMenu@CWnd@@UBEPAVCMenu@@XZ
	DD	FLAT:?SetMenu@CWnd@@UAEHPAVCMenu@@@Z
	DD	FLAT:?OnToolHitTest@CWnd@@UBEHVCPoint@@PAUtagTOOLINFOA@@@Z
	DD	FLAT:?GetScrollBarCtrl@CWnd@@UBEPAVCScrollBar@@H@Z
	DD	FLAT:?WinHelpA@CWnd@@UAEXKI@Z
	DD	FLAT:?HtmlHelpA@CWnd@@UAEXKI@Z
	DD	FLAT:?WinHelpInternal@CWnd@@UAEXKI@Z
	DD	FLAT:?ContinueModal@CWnd@@UAEHXZ
	DD	FLAT:?EndModalLoop@CWnd@@UAEXH@Z
	DD	FLAT:?OnDrawIconicThumbnailOrLivePreview@CWnd@@UAEXAAVCDC@@VCRect@@VCSize@@HAAH@Z
	DD	FLAT:?EnsureStdObj@CWnd@@UAEJXZ
	DD	FLAT:?get_accParent@CWnd@@UAEJPAPAUIDispatch@@@Z
	DD	FLAT:?get_accChildCount@CWnd@@UAEJPAJ@Z
	DD	FLAT:?get_accChild@CWnd@@UAEJUtagVARIANT@@PAPAUIDispatch@@@Z
	DD	FLAT:?get_accName@CWnd@@UAEJUtagVARIANT@@PAPA_W@Z
	DD	FLAT:?get_accValue@CWnd@@UAEJUtagVARIANT@@PAPA_W@Z
	DD	FLAT:?get_accDescription@CWnd@@UAEJUtagVARIANT@@PAPA_W@Z
	DD	FLAT:?get_accRole@CWnd@@UAEJUtagVARIANT@@PAU2@@Z
	DD	FLAT:?get_accState@CWnd@@UAEJUtagVARIANT@@PAU2@@Z
	DD	FLAT:?get_accHelp@CWnd@@UAEJUtagVARIANT@@PAPA_W@Z
	DD	FLAT:?get_accHelpTopic@CWnd@@UAEJPAPA_WUtagVARIANT@@PAJ@Z
	DD	FLAT:?get_accKeyboardShortcut@CWnd@@UAEJUtagVARIANT@@PAPA_W@Z
	DD	FLAT:?get_accFocus@CWnd@@UAEJPAUtagVARIANT@@@Z
	DD	FLAT:?get_accSelection@CWnd@@UAEJPAUtagVARIANT@@@Z
	DD	FLAT:?get_accDefaultAction@CWnd@@UAEJUtagVARIANT@@PAPA_W@Z
	DD	FLAT:?accSelect@CWnd@@UAEJJUtagVARIANT@@@Z
	DD	FLAT:?accLocation@CWnd@@UAEJPAJ000UtagVARIANT@@@Z
	DD	FLAT:?accNavigate@CWnd@@UAEJJUtagVARIANT@@PAU2@@Z
	DD	FLAT:?accHitTest@CWnd@@UAEJJJPAUtagVARIANT@@@Z
	DD	FLAT:?accDoDefaultAction@CWnd@@UAEJUtagVARIANT@@@Z
	DD	FLAT:?put_accName@CWnd@@UAEJUtagVARIANT@@PA_W@Z
	DD	FLAT:?put_accValue@CWnd@@UAEJUtagVARIANT@@PA_W@Z
	DD	FLAT:?SetProxy@CWnd@@UAEJPAUIAccessibleProxy@@@Z
	DD	FLAT:?CreateAccessibleProxy@CWnd@@UAEJIJPAJ@Z
	DD	FLAT:?OnCommand@CWnd@@MAEHIJ@Z
	DD	FLAT:?OnNotify@CWnd@@MAEHIJPAJ@Z
	DD	FLAT:?GetSuperWndProcAddr@CWnd@@MAEPAP6GJPAUHWND__@@IIJ@ZXZ
	DD	FLAT:?DoDataExchange@CWnd@@MAEXPAVCDataExchange@@@Z
	DD	FLAT:?BeginModalState@CWnd@@UAEXXZ
	DD	FLAT:?EndModalState@CWnd@@UAEXXZ
	DD	FLAT:?PreTranslateMessage@CWnd@@UAEHPAUtagMSG@@@Z
	DD	FLAT:?OnAmbientProperty@CWnd@@UAEHPAVCOleControlSite@@JPAUtagVARIANT@@@Z
	DD	FLAT:?WindowProc@CWnd@@MAEJIIJ@Z
	DD	FLAT:?OnWndMsg@CWnd@@MAEHIIJPAJ@Z
	DD	FLAT:?DefWindowProcA@CWnd@@MAEJIIJ@Z
	DD	FLAT:?PostNcDestroy@CWnd@@MAEXXZ
	DD	FLAT:?OnChildNotify@CComboBox@@MAEHIIJPAJ@Z
	DD	FLAT:?OnTouchInputs@CWnd@@MAEHIPAUtagTOUCHINPUT@@@Z
	DD	FLAT:?OnTouchInput@CWnd@@MAEHVCPoint@@HHPAUtagTOUCHINPUT@@@Z
	DD	FLAT:?GetGestureStatus@CWnd@@MAEKVCPoint@@@Z
	DD	FLAT:?OnGestureZoom@CWnd@@MAEHVCPoint@@J@Z
	DD	FLAT:?OnGesturePan@CWnd@@MAEHVCPoint@@0@Z
	DD	FLAT:?OnGestureRotate@CWnd@@MAEHVCPoint@@N@Z
	DD	FLAT:?OnGestureTwoFingerTap@CWnd@@MAEHVCPoint@@@Z
	DD	FLAT:?OnGesturePressAndTap@CWnd@@MAEHVCPoint@@J@Z
	DD	FLAT:?ResizeDynamicLayout@CWnd@@MAEXXZ
	DD	FLAT:?CheckAutoCenter@CWnd@@UAEHXZ
	DD	FLAT:?IsFrameWnd@CWnd@@UBEHXZ
	DD	FLAT:?CreateControlContainer@CWnd@@MAEHPAPAVCOleControlContainer@@@Z
	DD	FLAT:?CreateControlSite@CWnd@@MAEHPAVCOleControlContainer@@PAPAVCOleControlSite@@IABU_GUID@@@Z
	DD	FLAT:?SetOccDialogInfo@CWnd@@MAEHPAU_AFX_OCC_DIALOG_INFO@@@Z
	DD	FLAT:?GetOccDialogInfo@CWnd@@MAEPAU_AFX_OCC_DIALOG_INFO@@XZ
	DD	FLAT:?Create@CComboBox@@UAEHKABUtagRECT@@PAVCWnd@@I@Z
	DD	FLAT:?DrawItem@CComboBox@@UAEXPAUtagDRAWITEMSTRUCT@@@Z
	DD	FLAT:?MeasureItem@CComboBox@@UAEXPAUtagMEASUREITEMSTRUCT@@@Z
	DD	FLAT:?CompareItem@CComboBox@@UAEHPAUtagCOMPAREITEMSTRUCT@@@Z
	DD	FLAT:?DeleteItem@CComboBox@@UAEXPAUtagDELETEITEMSTRUCT@@@Z
CONST	ENDS
;	COMDAT ??_7CButton@@6B@
CONST	SEGMENT
??_7CButton@@6B@ DD FLAT:??_R4CButton@@6B@		; CButton::`vftable'
	DD	FLAT:?GetRuntimeClass@CButton@@UBEPAUCRuntimeClass@@XZ
	DD	FLAT:??_ECButton@@UAEPAXI@Z
	DD	FLAT:?Serialize@CObject@@UAEXAAVCArchive@@@Z
	DD	FLAT:?AssertValid@CObject@@UBEXXZ
	DD	FLAT:?Dump@CObject@@UBEXAAVCDumpContext@@@Z
	DD	FLAT:?OnCmdMsg@CCmdTarget@@UAEHIHPAXPAUAFX_CMDHANDLERINFO@@@Z
	DD	FLAT:?OnFinalRelease@CWnd@@UAEXXZ
	DD	FLAT:?IsInvokeAllowed@CCmdTarget@@UAEHJ@Z
	DD	FLAT:?GetDispatchIID@CCmdTarget@@UAEHPAU_GUID@@@Z
	DD	FLAT:?GetTypeInfoCount@CCmdTarget@@UAEIXZ
	DD	FLAT:?GetTypeLibCache@CCmdTarget@@UAEPAVCTypeLibCache@@XZ
	DD	FLAT:?GetTypeLib@CCmdTarget@@UAEJKPAPAUITypeLib@@@Z
	DD	FLAT:?GetMessageMap@CWnd@@MBEPBUAFX_MSGMAP@@XZ
	DD	FLAT:?GetCommandMap@CCmdTarget@@MBEPBUAFX_OLECMDMAP@@XZ
	DD	FLAT:?GetDispatchMap@CCmdTarget@@MBEPBUAFX_DISPMAP@@XZ
	DD	FLAT:?GetConnectionMap@CCmdTarget@@MBEPBUAFX_CONNECTIONMAP@@XZ
	DD	FLAT:?GetInterfaceMap@CWnd@@MBEPBUAFX_INTERFACEMAP@@XZ
	DD	FLAT:?GetEventSinkMap@CCmdTarget@@MBEPBUAFX_EVENTSINKMAP@@XZ
	DD	FLAT:?OnCreateAggregates@CCmdTarget@@UAEHXZ
	DD	FLAT:?GetInterfaceHook@CCmdTarget@@UAEPAUIUnknown@@PBX@Z
	DD	FLAT:?GetExtraConnectionPoints@CCmdTarget@@MAEHPAVCPtrArray@@@Z
	DD	FLAT:?GetConnectionHook@CCmdTarget@@MAEPAUIConnectionPoint@@ABU_GUID@@@Z
	DD	FLAT:?PreSubclassWindow@CWnd@@UAEXXZ
	DD	FLAT:?Create@CWnd@@UAEHPBD0KABUtagRECT@@PAV1@IPAUCCreateContext@@@Z
	DD	FLAT:?CreateEx@CWnd@@UAEHKPBD0KABUtagRECT@@PAV1@IPAX@Z
	DD	FLAT:?CreateEx@CWnd@@UAEHKPBD0KHHHHPAUHWND__@@PAUHMENU__@@PAX@Z
	DD	FLAT:?DestroyWindow@CWnd@@UAEHXZ
	DD	FLAT:?PreCreateWindow@CWnd@@UAEHAAUtagCREATESTRUCTA@@@Z
	DD	FLAT:?CalcWindowRect@CWnd@@UAEXPAUtagRECT@@I@Z
	DD	FLAT:?GetMenu@CWnd@@UBEPAVCMenu@@XZ
	DD	FLAT:?SetMenu@CWnd@@UAEHPAVCMenu@@@Z
	DD	FLAT:?OnToolHitTest@CWnd@@UBEHVCPoint@@PAUtagTOOLINFOA@@@Z
	DD	FLAT:?GetScrollBarCtrl@CWnd@@UBEPAVCScrollBar@@H@Z
	DD	FLAT:?WinHelpA@CWnd@@UAEXKI@Z
	DD	FLAT:?HtmlHelpA@CWnd@@UAEXKI@Z
	DD	FLAT:?WinHelpInternal@CWnd@@UAEXKI@Z
	DD	FLAT:?ContinueModal@CWnd@@UAEHXZ
	DD	FLAT:?EndModalLoop@CWnd@@UAEXH@Z
	DD	FLAT:?OnDrawIconicThumbnailOrLivePreview@CWnd@@UAEXAAVCDC@@VCRect@@VCSize@@HAAH@Z
	DD	FLAT:?EnsureStdObj@CWnd@@UAEJXZ
	DD	FLAT:?get_accParent@CWnd@@UAEJPAPAUIDispatch@@@Z
	DD	FLAT:?get_accChildCount@CWnd@@UAEJPAJ@Z
	DD	FLAT:?get_accChild@CWnd@@UAEJUtagVARIANT@@PAPAUIDispatch@@@Z
	DD	FLAT:?get_accName@CWnd@@UAEJUtagVARIANT@@PAPA_W@Z
	DD	FLAT:?get_accValue@CWnd@@UAEJUtagVARIANT@@PAPA_W@Z
	DD	FLAT:?get_accDescription@CWnd@@UAEJUtagVARIANT@@PAPA_W@Z
	DD	FLAT:?get_accRole@CWnd@@UAEJUtagVARIANT@@PAU2@@Z
	DD	FLAT:?get_accState@CWnd@@UAEJUtagVARIANT@@PAU2@@Z
	DD	FLAT:?get_accHelp@CWnd@@UAEJUtagVARIANT@@PAPA_W@Z
	DD	FLAT:?get_accHelpTopic@CWnd@@UAEJPAPA_WUtagVARIANT@@PAJ@Z
	DD	FLAT:?get_accKeyboardShortcut@CWnd@@UAEJUtagVARIANT@@PAPA_W@Z
	DD	FLAT:?get_accFocus@CWnd@@UAEJPAUtagVARIANT@@@Z
	DD	FLAT:?get_accSelection@CWnd@@UAEJPAUtagVARIANT@@@Z
	DD	FLAT:?get_accDefaultAction@CWnd@@UAEJUtagVARIANT@@PAPA_W@Z
	DD	FLAT:?accSelect@CWnd@@UAEJJUtagVARIANT@@@Z
	DD	FLAT:?accLocation@CWnd@@UAEJPAJ000UtagVARIANT@@@Z
	DD	FLAT:?accNavigate@CWnd@@UAEJJUtagVARIANT@@PAU2@@Z
	DD	FLAT:?accHitTest@CWnd@@UAEJJJPAUtagVARIANT@@@Z
	DD	FLAT:?accDoDefaultAction@CWnd@@UAEJUtagVARIANT@@@Z
	DD	FLAT:?put_accName@CWnd@@UAEJUtagVARIANT@@PA_W@Z
	DD	FLAT:?put_accValue@CWnd@@UAEJUtagVARIANT@@PA_W@Z
	DD	FLAT:?SetProxy@CWnd@@UAEJPAUIAccessibleProxy@@@Z
	DD	FLAT:?CreateAccessibleProxy@CWnd@@UAEJIJPAJ@Z
	DD	FLAT:?OnCommand@CWnd@@MAEHIJ@Z
	DD	FLAT:?OnNotify@CWnd@@MAEHIJPAJ@Z
	DD	FLAT:?GetSuperWndProcAddr@CWnd@@MAEPAP6GJPAUHWND__@@IIJ@ZXZ
	DD	FLAT:?DoDataExchange@CWnd@@MAEXPAVCDataExchange@@@Z
	DD	FLAT:?BeginModalState@CWnd@@UAEXXZ
	DD	FLAT:?EndModalState@CWnd@@UAEXXZ
	DD	FLAT:?PreTranslateMessage@CWnd@@UAEHPAUtagMSG@@@Z
	DD	FLAT:?OnAmbientProperty@CWnd@@UAEHPAVCOleControlSite@@JPAUtagVARIANT@@@Z
	DD	FLAT:?WindowProc@CWnd@@MAEJIIJ@Z
	DD	FLAT:?OnWndMsg@CWnd@@MAEHIIJPAJ@Z
	DD	FLAT:?DefWindowProcA@CWnd@@MAEJIIJ@Z
	DD	FLAT:?PostNcDestroy@CWnd@@MAEXXZ
	DD	FLAT:?OnChildNotify@CButton@@MAEHIIJPAJ@Z
	DD	FLAT:?OnTouchInputs@CWnd@@MAEHIPAUtagTOUCHINPUT@@@Z
	DD	FLAT:?OnTouchInput@CWnd@@MAEHVCPoint@@HHPAUtagTOUCHINPUT@@@Z
	DD	FLAT:?GetGestureStatus@CWnd@@MAEKVCPoint@@@Z
	DD	FLAT:?OnGestureZoom@CWnd@@MAEHVCPoint@@J@Z
	DD	FLAT:?OnGesturePan@CWnd@@MAEHVCPoint@@0@Z
	DD	FLAT:?OnGestureRotate@CWnd@@MAEHVCPoint@@N@Z
	DD	FLAT:?OnGestureTwoFingerTap@CWnd@@MAEHVCPoint@@@Z
	DD	FLAT:?OnGesturePressAndTap@CWnd@@MAEHVCPoint@@J@Z
	DD	FLAT:?ResizeDynamicLayout@CWnd@@MAEXXZ
	DD	FLAT:?CheckAutoCenter@CWnd@@UAEHXZ
	DD	FLAT:?IsFrameWnd@CWnd@@UBEHXZ
	DD	FLAT:?CreateControlContainer@CWnd@@MAEHPAPAVCOleControlContainer@@@Z
	DD	FLAT:?CreateControlSite@CWnd@@MAEHPAVCOleControlContainer@@PAPAVCOleControlSite@@IABU_GUID@@@Z
	DD	FLAT:?SetOccDialogInfo@CWnd@@MAEHPAU_AFX_OCC_DIALOG_INFO@@@Z
	DD	FLAT:?GetOccDialogInfo@CWnd@@MAEPAU_AFX_OCC_DIALOG_INFO@@XZ
	DD	FLAT:?Create@CButton@@UAEHPBDKABUtagRECT@@PAVCWnd@@I@Z
	DD	FLAT:?DrawItem@CButton@@UAEXPAUtagDRAWITEMSTRUCT@@@Z
CONST	ENDS
;	COMDAT ??_7CStatic@@6B@
CONST	SEGMENT
??_7CStatic@@6B@ DD FLAT:??_R4CStatic@@6B@		; CStatic::`vftable'
	DD	FLAT:?GetRuntimeClass@CStatic@@UBEPAUCRuntimeClass@@XZ
	DD	FLAT:??_ECStatic@@UAEPAXI@Z
	DD	FLAT:?Serialize@CObject@@UAEXAAVCArchive@@@Z
	DD	FLAT:?AssertValid@CObject@@UBEXXZ
	DD	FLAT:?Dump@CObject@@UBEXAAVCDumpContext@@@Z
	DD	FLAT:?OnCmdMsg@CCmdTarget@@UAEHIHPAXPAUAFX_CMDHANDLERINFO@@@Z
	DD	FLAT:?OnFinalRelease@CWnd@@UAEXXZ
	DD	FLAT:?IsInvokeAllowed@CCmdTarget@@UAEHJ@Z
	DD	FLAT:?GetDispatchIID@CCmdTarget@@UAEHPAU_GUID@@@Z
	DD	FLAT:?GetTypeInfoCount@CCmdTarget@@UAEIXZ
	DD	FLAT:?GetTypeLibCache@CCmdTarget@@UAEPAVCTypeLibCache@@XZ
	DD	FLAT:?GetTypeLib@CCmdTarget@@UAEJKPAPAUITypeLib@@@Z
	DD	FLAT:?GetMessageMap@CWnd@@MBEPBUAFX_MSGMAP@@XZ
	DD	FLAT:?GetCommandMap@CCmdTarget@@MBEPBUAFX_OLECMDMAP@@XZ
	DD	FLAT:?GetDispatchMap@CCmdTarget@@MBEPBUAFX_DISPMAP@@XZ
	DD	FLAT:?GetConnectionMap@CCmdTarget@@MBEPBUAFX_CONNECTIONMAP@@XZ
	DD	FLAT:?GetInterfaceMap@CWnd@@MBEPBUAFX_INTERFACEMAP@@XZ
	DD	FLAT:?GetEventSinkMap@CCmdTarget@@MBEPBUAFX_EVENTSINKMAP@@XZ
	DD	FLAT:?OnCreateAggregates@CCmdTarget@@UAEHXZ
	DD	FLAT:?GetInterfaceHook@CCmdTarget@@UAEPAUIUnknown@@PBX@Z
	DD	FLAT:?GetExtraConnectionPoints@CCmdTarget@@MAEHPAVCPtrArray@@@Z
	DD	FLAT:?GetConnectionHook@CCmdTarget@@MAEPAUIConnectionPoint@@ABU_GUID@@@Z
	DD	FLAT:?PreSubclassWindow@CWnd@@UAEXXZ
	DD	FLAT:?Create@CWnd@@UAEHPBD0KABUtagRECT@@PAV1@IPAUCCreateContext@@@Z
	DD	FLAT:?CreateEx@CWnd@@UAEHKPBD0KABUtagRECT@@PAV1@IPAX@Z
	DD	FLAT:?CreateEx@CWnd@@UAEHKPBD0KHHHHPAUHWND__@@PAUHMENU__@@PAX@Z
	DD	FLAT:?DestroyWindow@CWnd@@UAEHXZ
	DD	FLAT:?PreCreateWindow@CWnd@@UAEHAAUtagCREATESTRUCTA@@@Z
	DD	FLAT:?CalcWindowRect@CWnd@@UAEXPAUtagRECT@@I@Z
	DD	FLAT:?GetMenu@CWnd@@UBEPAVCMenu@@XZ
	DD	FLAT:?SetMenu@CWnd@@UAEHPAVCMenu@@@Z
	DD	FLAT:?OnToolHitTest@CWnd@@UBEHVCPoint@@PAUtagTOOLINFOA@@@Z
	DD	FLAT:?GetScrollBarCtrl@CWnd@@UBEPAVCScrollBar@@H@Z
	DD	FLAT:?WinHelpA@CWnd@@UAEXKI@Z
	DD	FLAT:?HtmlHelpA@CWnd@@UAEXKI@Z
	DD	FLAT:?WinHelpInternal@CWnd@@UAEXKI@Z
	DD	FLAT:?ContinueModal@CWnd@@UAEHXZ
	DD	FLAT:?EndModalLoop@CWnd@@UAEXH@Z
	DD	FLAT:?OnDrawIconicThumbnailOrLivePreview@CWnd@@UAEXAAVCDC@@VCRect@@VCSize@@HAAH@Z
	DD	FLAT:?EnsureStdObj@CWnd@@UAEJXZ
	DD	FLAT:?get_accParent@CWnd@@UAEJPAPAUIDispatch@@@Z
	DD	FLAT:?get_accChildCount@CWnd@@UAEJPAJ@Z
	DD	FLAT:?get_accChild@CWnd@@UAEJUtagVARIANT@@PAPAUIDispatch@@@Z
	DD	FLAT:?get_accName@CWnd@@UAEJUtagVARIANT@@PAPA_W@Z
	DD	FLAT:?get_accValue@CWnd@@UAEJUtagVARIANT@@PAPA_W@Z
	DD	FLAT:?get_accDescription@CWnd@@UAEJUtagVARIANT@@PAPA_W@Z
	DD	FLAT:?get_accRole@CWnd@@UAEJUtagVARIANT@@PAU2@@Z
	DD	FLAT:?get_accState@CWnd@@UAEJUtagVARIANT@@PAU2@@Z
	DD	FLAT:?get_accHelp@CWnd@@UAEJUtagVARIANT@@PAPA_W@Z
	DD	FLAT:?get_accHelpTopic@CWnd@@UAEJPAPA_WUtagVARIANT@@PAJ@Z
	DD	FLAT:?get_accKeyboardShortcut@CWnd@@UAEJUtagVARIANT@@PAPA_W@Z
	DD	FLAT:?get_accFocus@CWnd@@UAEJPAUtagVARIANT@@@Z
	DD	FLAT:?get_accSelection@CWnd@@UAEJPAUtagVARIANT@@@Z
	DD	FLAT:?get_accDefaultAction@CWnd@@UAEJUtagVARIANT@@PAPA_W@Z
	DD	FLAT:?accSelect@CWnd@@UAEJJUtagVARIANT@@@Z
	DD	FLAT:?accLocation@CWnd@@UAEJPAJ000UtagVARIANT@@@Z
	DD	FLAT:?accNavigate@CWnd@@UAEJJUtagVARIANT@@PAU2@@Z
	DD	FLAT:?accHitTest@CWnd@@UAEJJJPAUtagVARIANT@@@Z
	DD	FLAT:?accDoDefaultAction@CWnd@@UAEJUtagVARIANT@@@Z
	DD	FLAT:?put_accName@CWnd@@UAEJUtagVARIANT@@PA_W@Z
	DD	FLAT:?put_accValue@CWnd@@UAEJUtagVARIANT@@PA_W@Z
	DD	FLAT:?SetProxy@CWnd@@UAEJPAUIAccessibleProxy@@@Z
	DD	FLAT:?CreateAccessibleProxy@CWnd@@UAEJIJPAJ@Z
	DD	FLAT:?OnCommand@CWnd@@MAEHIJ@Z
	DD	FLAT:?OnNotify@CWnd@@MAEHIJPAJ@Z
	DD	FLAT:?GetSuperWndProcAddr@CWnd@@MAEPAP6GJPAUHWND__@@IIJ@ZXZ
	DD	FLAT:?DoDataExchange@CWnd@@MAEXPAVCDataExchange@@@Z
	DD	FLAT:?BeginModalState@CWnd@@UAEXXZ
	DD	FLAT:?EndModalState@CWnd@@UAEXXZ
	DD	FLAT:?PreTranslateMessage@CWnd@@UAEHPAUtagMSG@@@Z
	DD	FLAT:?OnAmbientProperty@CWnd@@UAEHPAVCOleControlSite@@JPAUtagVARIANT@@@Z
	DD	FLAT:?WindowProc@CWnd@@MAEJIIJ@Z
	DD	FLAT:?OnWndMsg@CWnd@@MAEHIIJPAJ@Z
	DD	FLAT:?DefWindowProcA@CWnd@@MAEJIIJ@Z
	DD	FLAT:?PostNcDestroy@CWnd@@MAEXXZ
	DD	FLAT:?OnChildNotify@CStatic@@MAEHIIJPAJ@Z
	DD	FLAT:?OnTouchInputs@CWnd@@MAEHIPAUtagTOUCHINPUT@@@Z
	DD	FLAT:?OnTouchInput@CWnd@@MAEHVCPoint@@HHPAUtagTOUCHINPUT@@@Z
	DD	FLAT:?GetGestureStatus@CWnd@@MAEKVCPoint@@@Z
	DD	FLAT:?OnGestureZoom@CWnd@@MAEHVCPoint@@J@Z
	DD	FLAT:?OnGesturePan@CWnd@@MAEHVCPoint@@0@Z
	DD	FLAT:?OnGestureRotate@CWnd@@MAEHVCPoint@@N@Z
	DD	FLAT:?OnGestureTwoFingerTap@CWnd@@MAEHVCPoint@@@Z
	DD	FLAT:?OnGesturePressAndTap@CWnd@@MAEHVCPoint@@J@Z
	DD	FLAT:?ResizeDynamicLayout@CWnd@@MAEXXZ
	DD	FLAT:?CheckAutoCenter@CWnd@@UAEHXZ
	DD	FLAT:?IsFrameWnd@CWnd@@UBEHXZ
	DD	FLAT:?CreateControlContainer@CWnd@@MAEHPAPAVCOleControlContainer@@@Z
	DD	FLAT:?CreateControlSite@CWnd@@MAEHPAVCOleControlContainer@@PAPAVCOleControlSite@@IABU_GUID@@@Z
	DD	FLAT:?SetOccDialogInfo@CWnd@@MAEHPAU_AFX_OCC_DIALOG_INFO@@@Z
	DD	FLAT:?GetOccDialogInfo@CWnd@@MAEPAU_AFX_OCC_DIALOG_INFO@@XZ
	DD	FLAT:?Create@CStatic@@UAEHPBDKABUtagRECT@@PAVCWnd@@I@Z
	DD	FLAT:?DrawItem@CStatic@@UAEXPAUtagDRAWITEMSTRUCT@@@Z
CONST	ENDS
;	COMDAT ??_C@_00CNPNBAHC@@
CONST	SEGMENT
??_C@_00CNPNBAHC@@ DB 00H				; `string'
CONST	ENDS
;	COMDAT ??_C@_02DPKJAMEF@?$CFd@
CONST	SEGMENT
??_C@_02DPKJAMEF@?$CFd@ DB '%d', 00H			; `string'
CONST	ENDS
;	COMDAT xdata$x
xdata$x	SEGMENT
__unwindtable$?OnInitDialog@CTabIndex@@MAEHXZ DD 0ffffffffH
	DD	FLAT:__unwindfunclet$?OnInitDialog@CTabIndex@@MAEHXZ$0
__ehfuncinfo$?OnInitDialog@CTabIndex@@MAEHXZ DD 019930522H
	DD	01H
	DD	FLAT:__unwindtable$?OnInitDialog@CTabIndex@@MAEHXZ
	DD	2 DUP(00H)
	DD	2 DUP(00H)
	DD	00H
	DD	01H
xdata$x	ENDS
;	COMDAT xdata$x
xdata$x	SEGMENT
__unwindtable$?RemoveInfo@CTabIndex@@EAEXXZ DD 0ffffffffH
	DD	FLAT:__unwindfunclet$?RemoveInfo@CTabIndex@@EAEXXZ$0
__ehfuncinfo$?RemoveInfo@CTabIndex@@EAEXXZ DD 019930522H
	DD	01H
	DD	FLAT:__unwindtable$?RemoveInfo@CTabIndex@@EAEXXZ
	DD	2 DUP(00H)
	DD	2 DUP(00H)
	DD	00H
	DD	01H
xdata$x	ENDS
;	COMDAT xdata$x
xdata$x	SEGMENT
__unwindtable$?SaveInfo@CTabIndex@@EAEHXZ DD 0ffffffffH
	DD	FLAT:__unwindfunclet$?SaveInfo@CTabIndex@@EAEHXZ$0
	DD	00H
	DD	FLAT:__unwindfunclet$?SaveInfo@CTabIndex@@EAEHXZ$1
	DD	01H
	DD	FLAT:__unwindfunclet$?SaveInfo@CTabIndex@@EAEHXZ$2
__ehfuncinfo$?SaveInfo@CTabIndex@@EAEHXZ DD 019930522H
	DD	03H
	DD	FLAT:__unwindtable$?SaveInfo@CTabIndex@@EAEHXZ
	DD	2 DUP(00H)
	DD	2 DUP(00H)
	DD	00H
	DD	01H
xdata$x	ENDS
;	COMDAT xdata$x
xdata$x	SEGMENT
__ehfuncinfo$?LoadInfo@CTabIndex@@EAEXXZ DD 019930522H
	DD	06H
	DD	FLAT:__unwindtable$?LoadInfo@CTabIndex@@EAEXXZ
	DD	2 DUP(00H)
	DD	2 DUP(00H)
	DD	00H
	DD	01H
__unwindtable$?LoadInfo@CTabIndex@@EAEXXZ DD 0ffffffffH
	DD	FLAT:__unwindfunclet$?LoadInfo@CTabIndex@@EAEXXZ$0
	DD	00H
	DD	FLAT:__unwindfunclet$?LoadInfo@CTabIndex@@EAEXXZ$1
	DD	01H
	DD	FLAT:__unwindfunclet$?LoadInfo@CTabIndex@@EAEXXZ$2
	DD	02H
	DD	FLAT:__unwindfunclet$?LoadInfo@CTabIndex@@EAEXXZ$3
	DD	03H
	DD	FLAT:__unwindfunclet$?LoadInfo@CTabIndex@@EAEXXZ$4
	DD	01H
	DD	FLAT:__unwindfunclet$?LoadInfo@CTabIndex@@EAEXXZ$5
xdata$x	ENDS
;	COMDAT xdata$x
xdata$x	SEGMENT
__unwindtable$?OnBtnClr@CTabIndex@@AAEXAAVCColorButton@@@Z DD 0ffffffffH
	DD	FLAT:__unwindfunclet$?OnBtnClr@CTabIndex@@AAEXAAVCColorButton@@@Z$0
__ehfuncinfo$?OnBtnClr@CTabIndex@@AAEXAAVCColorButton@@@Z DD 019930522H
	DD	01H
	DD	FLAT:__unwindtable$?OnBtnClr@CTabIndex@@AAEXAAVCColorButton@@@Z
	DD	2 DUP(00H)
	DD	2 DUP(00H)
	DD	00H
	DD	01H
xdata$x	ENDS
;	COMDAT xdata$x
xdata$x	SEGMENT
__ehfuncinfo$??0CTabIndex@@QAE@PAVCWnd@@@Z DD 019930522H
	DD	0aH
	DD	FLAT:__unwindtable$??0CTabIndex@@QAE@PAVCWnd@@@Z
	DD	2 DUP(00H)
	DD	2 DUP(00H)
	DD	00H
	DD	01H
__unwindtable$??0CTabIndex@@QAE@PAVCWnd@@@Z DD 0ffffffffH
	DD	FLAT:__unwindfunclet$??0CTabIndex@@QAE@PAVCWnd@@@Z$0
	DD	00H
	DD	FLAT:__unwindfunclet$??0CTabIndex@@QAE@PAVCWnd@@@Z$1
	DD	01H
	DD	FLAT:__unwindfunclet$??0CTabIndex@@QAE@PAVCWnd@@@Z$2
	DD	02H
	DD	FLAT:__unwindfunclet$??0CTabIndex@@QAE@PAVCWnd@@@Z$3
	DD	03H
	DD	FLAT:__unwindfunclet$??0CTabIndex@@QAE@PAVCWnd@@@Z$4
	DD	04H
	DD	FLAT:__unwindfunclet$??0CTabIndex@@QAE@PAVCWnd@@@Z$5
	DD	05H
	DD	FLAT:__unwindfunclet$??0CTabIndex@@QAE@PAVCWnd@@@Z$6
	DD	06H
	DD	FLAT:__unwindfunclet$??0CTabIndex@@QAE@PAVCWnd@@@Z$7
	DD	07H
	DD	FLAT:__unwindfunclet$??0CTabIndex@@QAE@PAVCWnd@@@Z$8
	DD	08H
	DD	FLAT:__unwindfunclet$??0CTabIndex@@QAE@PAVCWnd@@@Z$9
xdata$x	ENDS
; Function compile flags: /Ogtp
; File C:\Program Files (x86)\Microsoft Visual Studio\2019\Community\VC\Tools\MSVC\14.29.30133\atlmfc\include\afxtempl.h
; File C:\Program Files (x86)\Microsoft Visual Studio\2019\Community\VC\Tools\MSVC\14.29.30133\atlmfc\include\afx.inl
; File C:\Program Files (x86)\Microsoft Visual Studio\2019\Community\VC\Tools\MSVC\14.29.30133\atlmfc\include\afxtempl.h
; File C:\Program Files (x86)\Microsoft Visual Studio\2019\Community\VC\Tools\MSVC\14.29.30133\atlmfc\include\afx.inl
; File C:\Program Files (x86)\Microsoft Visual Studio\2019\Community\VC\Tools\MSVC\14.29.30133\atlmfc\include\afxtempl.h
; File C:\Program Files (x86)\Microsoft Visual Studio\2019\Community\VC\Tools\MSVC\14.29.30133\atlmfc\include\afx.inl
; File C:\Program Files (x86)\Microsoft Visual Studio\2019\Community\VC\Tools\MSVC\14.29.30133\atlmfc\include\afxtempl.h
;	COMDAT ??$SerializeElements@VCIndexData@@@@YGXAAVCArchive@@PAVCIndexData@@H@Z
_TEXT	SEGMENT
_ar$ = 8						; size = 4
_pElements$ = 12					; size = 4
_nCount$ = 16						; size = 4
??$SerializeElements@VCIndexData@@@@YGXAAVCArchive@@PAVCIndexData@@H@Z PROC ; SerializeElements<CIndexData>, COMDAT

; 67   : {

  00000	55		 push	 ebp
  00001	8b ec		 mov	 ebp, esp

; 68   : 	ENSURE(nCount == 0 || pElements != NULL);

  00003	8b 4d 0c	 mov	 ecx, DWORD PTR _pElements$[ebp]
  00006	53		 push	 ebx
  00007	56		 push	 esi
  00008	8b 75 10	 mov	 esi, DWORD PTR _nCount$[ebp]
  0000b	57		 push	 edi
  0000c	85 f6		 test	 esi, esi
  0000e	74 08		 je	 SHORT $LN2@SerializeE
  00010	85 c9		 test	 ecx, ecx
  00012	0f 84 87 00 00
	00		 je	 $LN34@SerializeE
$LN2@SerializeE:
; File C:\Program Files (x86)\Microsoft Visual Studio\2019\Community\VC\Tools\MSVC\14.29.30133\atlmfc\include\afx.inl

; 212  : 	{ return (m_nMode & CArchive::load) == 0; }

  00018	8b 55 08	 mov	 edx, DWORD PTR _ar$[ebp]
  0001b	8b 42 18	 mov	 eax, DWORD PTR [edx+24]
  0001e	f7 d0		 not	 eax
  00020	a8 01		 test	 al, 1
; File C:\Program Files (x86)\Microsoft Visual Studio\2019\Community\VC\Tools\MSVC\14.29.30133\atlmfc\include\afxtempl.h

; 73   : 	if (ar.IsStoring())

  00022	74 3b		 je	 SHORT $LN10@SerializeE

; 74   : 	{
; 75   : 		TYPE* pData;
; 76   : 		UINT_PTR nElementsLeft;
; 77   : 
; 78   : 		nElementsLeft = nCount;
; 79   : 		pData = pElements;
; 80   : 		while( nElementsLeft > 0 )

  00024	85 f6		 test	 esi, esi
  00026	74 30		 je	 SHORT $LN8@SerializeE
  00028	0f 1f 84 00 00
	00 00 00	 npad	 8
$LL5@SerializeE:

; 81   : 		{
; 82   : 			UINT nElementsToWrite;
; 83   : 
; 84   : 			nElementsToWrite = UINT(__min(nElementsLeft, INT_MAX/sizeof(TYPE)));

  00030	bb 66 66 66 06	 mov	 ebx, 107374182		; 06666666H
  00035	3b f3		 cmp	 esi, ebx
  00037	0f 42 de	 cmovb	 ebx, esi

; 85   : 			ar.Write(pData, nElementsToWrite*sizeof(TYPE));

  0003a	8d 3c 9b	 lea	 edi, DWORD PTR [ebx+ebx*4]
  0003d	c1 e7 02	 shl	 edi, 2
  00040	57		 push	 edi
  00041	51		 push	 ecx
  00042	8b ca		 mov	 ecx, edx
  00044	e8 00 00 00 00	 call	 ?Write@CArchive@@QAEXPBXI@Z ; CArchive::Write

; 86   : 			nElementsLeft -= nElementsToWrite;
; 87   : 			pData += nElementsToWrite;

  00049	8b 4d 0c	 mov	 ecx, DWORD PTR _pElements$[ebp]
  0004c	8b 55 08	 mov	 edx, DWORD PTR _ar$[ebp]
  0004f	03 cf		 add	 ecx, edi
  00051	89 4d 0c	 mov	 DWORD PTR _pElements$[ebp], ecx
  00054	2b f3		 sub	 esi, ebx
  00056	75 d8		 jne	 SHORT $LL5@SerializeE
$LN8@SerializeE:
  00058	5f		 pop	 edi

; 105  : 		}
; 106  : 	}
; 107  : }

  00059	5e		 pop	 esi
  0005a	5b		 pop	 ebx
  0005b	5d		 pop	 ebp
  0005c	c2 0c 00	 ret	 12			; 0000000cH
$LN10@SerializeE:

; 97   : 		while( nElementsLeft > 0 )

  0005f	85 f6		 test	 esi, esi
  00061	74 f5		 je	 SHORT $LN8@SerializeE
$LL7@SerializeE:

; 98   : 		{
; 99   : 			UINT nElementsToRead;
; 100  : 
; 101  : 			nElementsToRead = UINT(__min(nElementsLeft, INT_MAX/sizeof(TYPE)));

  00063	bf 66 66 66 06	 mov	 edi, 107374182		; 06666666H
  00068	3b f7		 cmp	 esi, edi
  0006a	0f 42 fe	 cmovb	 edi, esi

; 102  : 			ar.EnsureRead(pData, nElementsToRead*sizeof(TYPE));

  0006d	8d 1c bf	 lea	 ebx, DWORD PTR [edi+edi*4]
  00070	c1 e3 02	 shl	 ebx, 2
; File C:\Program Files (x86)\Microsoft Visual Studio\2019\Community\VC\Tools\MSVC\14.29.30133\atlmfc\include\afx.inl

; 399  : 	UINT nRead=Read(lpBuf, nCount);

  00073	53		 push	 ebx
  00074	51		 push	 ecx
  00075	8b ca		 mov	 ecx, edx
  00077	e8 00 00 00 00	 call	 ?Read@CArchive@@QAEIPAXI@Z ; CArchive::Read

; 400  : 	if(nRead!=nCount)

  0007c	3b c3		 cmp	 eax, ebx
  0007e	75 16		 jne	 SHORT $LN23@SerializeE
; File C:\Program Files (x86)\Microsoft Visual Studio\2019\Community\VC\Tools\MSVC\14.29.30133\atlmfc\include\afxtempl.h

; 97   : 		while( nElementsLeft > 0 )

  00080	8b 4d 0c	 mov	 ecx, DWORD PTR _pElements$[ebp]
  00083	8b 55 08	 mov	 edx, DWORD PTR _ar$[ebp]

; 103  : 			nElementsLeft -= nElementsToRead;
; 104  : 			pData += nElementsToRead;

  00086	03 cb		 add	 ecx, ebx
  00088	89 4d 0c	 mov	 DWORD PTR _pElements$[ebp], ecx
  0008b	2b f7		 sub	 esi, edi
  0008d	75 d4		 jne	 SHORT $LL7@SerializeE

; 105  : 		}
; 106  : 	}
; 107  : }

  0008f	5f		 pop	 edi
  00090	5e		 pop	 esi
  00091	5b		 pop	 ebx
  00092	5d		 pop	 ebp
  00093	c2 0c 00	 ret	 12			; 0000000cH
$LN23@SerializeE:
; File C:\Program Files (x86)\Microsoft Visual Studio\2019\Community\VC\Tools\MSVC\14.29.30133\atlmfc\include\afx.inl

; 402  : 		AfxThrowArchiveException(CArchiveException::endOfFile);

  00096	6a 00		 push	 0
  00098	6a 03		 push	 3
  0009a	e8 00 00 00 00	 call	 ?AfxThrowArchiveException@@YGXHPBD@Z ; AfxThrowArchiveException
$LN34@SerializeE:
; File C:\Program Files (x86)\Microsoft Visual Studio\2019\Community\VC\Tools\MSVC\14.29.30133\atlmfc\include\afxtempl.h

; 68   : 	ENSURE(nCount == 0 || pElements != NULL);

  0009f	e8 00 00 00 00	 call	 ?AfxThrowInvalidArgException@@YGXXZ ; AfxThrowInvalidArgException
$LN32@SerializeE:
  000a4	cc		 int	 3
??$SerializeElements@VCIndexData@@@@YGXAAVCArchive@@PAVCIndexData@@H@Z ENDP ; SerializeElements<CIndexData>
_TEXT	ENDS
; Function compile flags: /Ogtp
; File C:\Program Files (x86)\Microsoft Visual Studio\2019\Community\VC\Tools\MSVC\14.29.30133\atlmfc\include\afxtempl.h
; File C:\Program Files (x86)\Microsoft Visual Studio\2019\Community\VC\Tools\MSVC\14.29.30133\atlmfc\include\afx.inl
;	COMDAT ??_GCTabIndex@@UAEPAXI@Z
_TEXT	SEGMENT
___flags$ = 8						; size = 4
??_GCTabIndex@@UAEPAXI@Z PROC				; CTabIndex::`scalar deleting destructor', COMDAT
; _this$ = ecx
  00000	55		 push	 ebp
  00001	8b ec		 mov	 ebp, esp
; File C:\Program Files (x86)\Microsoft Visual Studio\2019\Community\VC\Tools\MSVC\14.29.30133\atlmfc\include\afxtempl.h

; 355  : {

  00003	56		 push	 esi
  00004	8b f1		 mov	 esi, ecx

; 356  : 	ASSERT_VALID(this);
; 357  : 
; 358  : 	if (m_pData != NULL)

  00006	8b 86 1c 07 00
	00		 mov	 eax, DWORD PTR [esi+1820]
  0000c	c7 86 18 07 00
	00 00 00 00 00	 mov	 DWORD PTR [esi+1816], OFFSET ??_7?$CArray@VCIndexData@@V1@@@6B@
  00016	85 c0		 test	 eax, eax
  00018	74 13		 je	 SHORT $LN14@scalar

; 359  : 	{
; 360  : 		for( int i = 0; i < m_nSize; i++ )

  0001a	83 be 20 07 00
	00 00		 cmp	 DWORD PTR [esi+1824], 0
  00021	0f 4f c0	 cmovg	 eax, eax

; 361  : 			(m_pData + i)->~TYPE();
; 362  : 		delete[] (BYTE*)m_pData;

  00024	50		 push	 eax
  00025	e8 00 00 00 00	 call	 ??_V@YAXPAX@Z		; operator delete[]
  0002a	83 c4 04	 add	 esp, 4
$LN14@scalar:
  0002d	8d 8e 88 06 00
	00		 lea	 ecx, DWORD PTR [esi+1672]
  00033	e8 00 00 00 00	 call	 ??1CColorButton@@UAE@XZ	; CColorButton::~CColorButton
  00038	8d 8e f8 05 00
	00		 lea	 ecx, DWORD PTR [esi+1528]
  0003e	e8 00 00 00 00	 call	 ??1CColorButton@@UAE@XZ	; CColorButton::~CColorButton
  00043	8d 8e 70 05 00
	00		 lea	 ecx, DWORD PTR [esi+1392]
  00049	e8 00 00 00 00	 call	 ??1CBitmapItemComboBox@@UAE@XZ ; CBitmapItemComboBox::~CBitmapItemComboBox
  0004e	8d 8e e8 04 00
	00		 lea	 ecx, DWORD PTR [esi+1256]
  00054	e8 00 00 00 00	 call	 ??1CBitmapItemComboBox@@UAE@XZ ; CBitmapItemComboBox::~CBitmapItemComboBox
  00059	8d 8e 68 04 00
	00		 lea	 ecx, DWORD PTR [esi+1128]
  0005f	e8 00 00 00 00	 call	 ??1CComboBox@@UAE@XZ	; CComboBox::~CComboBox
  00064	8d 8e c0 02 00
	00		 lea	 ecx, DWORD PTR [esi+704]
  0006a	e8 00 00 00 00	 call	 ??1CXListCtrl@@UAE@XZ	; CXListCtrl::~CXListCtrl
  0006f	8d 8e 30 02 00
	00		 lea	 ecx, DWORD PTR [esi+560]
  00075	e8 00 00 00 00	 call	 ??1CColorButton@@UAE@XZ	; CColorButton::~CColorButton
  0007a	8d 8e b0 01 00
	00		 lea	 ecx, DWORD PTR [esi+432]
  00080	e8 00 00 00 00	 call	 ??1CButton@@UAE@XZ	; CButton::~CButton
  00085	8d 8e 30 01 00
	00		 lea	 ecx, DWORD PTR [esi+304]
  0008b	e8 00 00 00 00	 call	 ??1CStatic@@UAE@XZ	; CStatic::~CStatic
  00090	8d 8e b0 00 00
	00		 lea	 ecx, DWORD PTR [esi+176]
  00096	e8 00 00 00 00	 call	 ??1CStatic@@UAE@XZ	; CStatic::~CStatic
  0009b	8d 8e ac 00 00
	00		 lea	 ecx, DWORD PTR [esi+172]
  000a1	ff 15 00 00 00
	00		 call	 DWORD PTR __imp_??1?$CStringT@DV?$StrTraitMFC_DLL@DV?$ChTraitsCRT@D@ATL@@@@@ATL@@QAE@XZ
  000a7	8d 8e a8 00 00
	00		 lea	 ecx, DWORD PTR [esi+168]
  000ad	ff 15 00 00 00
	00		 call	 DWORD PTR __imp_??1?$CStringT@DV?$StrTraitMFC_DLL@DV?$ChTraitsCRT@D@ATL@@@@@ATL@@QAE@XZ
  000b3	8b ce		 mov	 ecx, esi
  000b5	e8 00 00 00 00	 call	 ??1CDialog@@UAE@XZ	; CDialog::~CDialog
  000ba	8b 45 08	 mov	 eax, DWORD PTR ___flags$[ebp]
  000bd	a8 01		 test	 al, 1
  000bf	74 22		 je	 SHORT $LN26@scalar
  000c1	a8 04		 test	 al, 4
  000c3	75 10		 jne	 SHORT $LN3@scalar
; File C:\Program Files (x86)\Microsoft Visual Studio\2019\Community\VC\Tools\MSVC\14.29.30133\atlmfc\include\afx.inl

; 112  : 	{ ::operator delete(p); }

  000c5	56		 push	 esi
  000c6	e8 00 00 00 00	 call	 ??3@YAXPAX@Z		; operator delete
  000cb	83 c4 04	 add	 esp, 4
  000ce	8b c6		 mov	 eax, esi
  000d0	5e		 pop	 esi
  000d1	5d		 pop	 ebp
  000d2	c2 04 00	 ret	 4
$LN3@scalar:
  000d5	68 38 07 00 00	 push	 1848			; 00000738H
  000da	56		 push	 esi
  000db	e8 00 00 00 00	 call	 ?__global_delete@@YAXPAXI@Z ; __global_delete
  000e0	83 c4 08	 add	 esp, 8
$LN26@scalar:
  000e3	8b c6		 mov	 eax, esi
  000e5	5e		 pop	 esi
  000e6	5d		 pop	 ebp
  000e7	c2 04 00	 ret	 4
??_GCTabIndex@@UAEPAXI@Z ENDP				; CTabIndex::`scalar deleting destructor'
_TEXT	ENDS
; Function compile flags: /Ogtp
; File D:\git\src\IBK\IBK_DRFN\ProjSrc\SrcDrfn\Chart\STCONFIGUREDLG\TabIndex.cpp
;	COMDAT ?GetMessageMap@CTabIndex@@MBEPBUAFX_MSGMAP@@XZ
_TEXT	SEGMENT
?GetMessageMap@CTabIndex@@MBEPBUAFX_MSGMAP@@XZ PROC	; CTabIndex::GetMessageMap, COMDAT
; _this$ = ecx

; 49   : BEGIN_MESSAGE_MAP(CTabIndex, CRscDlg)

  00000	b8 00 00 00 00	 mov	 eax, OFFSET ?messageMap@?1??GetThisMessageMap@CTabIndex@@KGPBUAFX_MSGMAP@@XZ@4U3@B
  00005	c3		 ret	 0
?GetMessageMap@CTabIndex@@MBEPBUAFX_MSGMAP@@XZ ENDP	; CTabIndex::GetMessageMap
_TEXT	ENDS
; Function compile flags: /Ogtp
; File D:\git\src\IBK\IBK_DRFN\ProjSrc\SrcDrfn\Chart\STCONFIGUREDLG\TabIndex.cpp
;	COMDAT ?GetThisMessageMap@CTabIndex@@KGPBUAFX_MSGMAP@@XZ
_TEXT	SEGMENT
?GetThisMessageMap@CTabIndex@@KGPBUAFX_MSGMAP@@XZ PROC	; CTabIndex::GetThisMessageMap, COMDAT

; 50   : 	//{{AFX_MSG_MAP(CTabIndex)
; 51   : 	ON_BN_CLICKED(IDC_BTN_CLR_BULL, OnBtnClrBull)
; 52   : 	ON_BN_CLICKED(IDC_BTN_CLT_BEAR, OnBtnCltBear)
; 53   : 	ON_BN_CLICKED(IDC_BTN_GRAPH_CLR, OnBtnGraphClr)
; 54   : 	ON_NOTIFY(LVN_ITEMCHANGED, IDC_LIST_GRAPH, OnItemchangedListGraph)
; 55   : 	ON_CBN_SELCHANGE(IDC_CB_GRAPH_SHAPE, OnSelchangeCbGraphShape)
; 56   : 	ON_CBN_SELCHANGE(IDC_CB_GRAPH_THICK, OnSelchangeCbGraphThick)
; 57   : 	ON_CBN_SELCHANGE(IDC_CB_GRAPH_TYPE, OnSelchangeCbGraphType)
; 58   : 	ON_WM_CTLCOLOR()
; 59   : 	//}}AFX_MSG_MAP
; 60   : END_MESSAGE_MAP()

  00000	b8 00 00 00 00	 mov	 eax, OFFSET ?messageMap@?1??GetThisMessageMap@CTabIndex@@KGPBUAFX_MSGMAP@@XZ@4U3@B
  00005	c3		 ret	 0
?GetThisMessageMap@CTabIndex@@KGPBUAFX_MSGMAP@@XZ ENDP	; CTabIndex::GetThisMessageMap
_TEXT	ENDS
; Function compile flags: /Ogtp
; File D:\git\src\IBK\IBK_DRFN\ProjSrc\SrcDrfn\Chart\STCONFIGUREDLG\TabIndex.cpp
; File C:\Program Files (x86)\Microsoft Visual Studio\2019\Community\VC\Tools\MSVC\14.29.30133\atlmfc\include\afxwin1.inl
; File D:\git\src\IBK\IBK_DRFN\ProjSrc\SrcDrfn\Chart\STCONFIGUREDLG\TabIndex.cpp
; File C:\Program Files (x86)\Microsoft Visual Studio\2019\Community\VC\Tools\MSVC\14.29.30133\atlmfc\include\afxwin1.inl
; File D:\git\src\IBK\IBK_DRFN\ProjSrc\SrcDrfn\Chart\STCONFIGUREDLG\TabIndex.cpp
;	COMDAT ?OnCtlColor@CTabIndex@@IAEPAUHBRUSH__@@PAVCDC@@PAVCWnd@@I@Z
_TEXT	SEGMENT
_pDC$ = 8						; size = 4
_pWnd$ = 12						; size = 4
_nCtlColor$ = 16					; size = 4
?OnCtlColor@CTabIndex@@IAEPAUHBRUSH__@@PAVCDC@@PAVCWnd@@I@Z PROC ; CTabIndex::OnCtlColor, COMDAT
; _this$ = ecx

; 552  : {

  00000	55		 push	 ebp
  00001	8b ec		 mov	 ebp, esp
  00003	53		 push	 ebx

; 553  : 	HBRUSH hbr = CRscDlg::OnCtlColor(pDC, pWnd, nCtlColor);

  00004	8b 5d 08	 mov	 ebx, DWORD PTR _pDC$[ebp]
  00007	56		 push	 esi
  00008	8b 75 10	 mov	 esi, DWORD PTR _nCtlColor$[ebp]
  0000b	57		 push	 edi
  0000c	56		 push	 esi
  0000d	ff 75 0c	 push	 DWORD PTR _pWnd$[ebp]
  00010	8b f9		 mov	 edi, ecx
  00012	53		 push	 ebx
  00013	e8 00 00 00 00	 call	 ?OnCtlColor@CWnd@@IAEPAUHBRUSH__@@PAVCDC@@PAV1@I@Z ; CWnd::OnCtlColor

; 554  : 	
; 555  : 	// TODO: Change any attributes of the DC here
; 556  : 	switch(nCtlColor) 

  00018	83 ee 01	 sub	 esi, 1
  0001b	74 26		 je	 SHORT $LN1@OnCtlColor
  0001d	83 ee 01	 sub	 esi, 1
  00020	74 21		 je	 SHORT $LN1@OnCtlColor

; 557  : 	{
; 558  : 	case CTLCOLOR_EDIT:
; 559  : 	case CTLCOLOR_LISTBOX:
; 560  : 		return hbr;
; 561  : 		break;
; 562  : 	default:
; 563  : 		pDC->SetBkColor(m_crBk);

  00022	8b 03		 mov	 eax, DWORD PTR [ebx]
  00024	8b cb		 mov	 ecx, ebx
  00026	ff b7 2c 07 00
	00		 push	 DWORD PTR [edi+1836]
  0002c	ff 50 34	 call	 DWORD PTR [eax+52]

; 564  : 		return *m_pBrBkColor;		

  0002f	8b 87 30 07 00
	00		 mov	 eax, DWORD PTR [edi+1840]
; File C:\Program Files (x86)\Microsoft Visual Studio\2019\Community\VC\Tools\MSVC\14.29.30133\atlmfc\include\afxwin1.inl

; 124  : 	{ return (HBRUSH)(this == NULL ? NULL : m_hObject); }

  00035	85 c0		 test	 eax, eax
  00037	75 07		 jne	 SHORT $LN10@OnCtlColor
; File D:\git\src\IBK\IBK_DRFN\ProjSrc\SrcDrfn\Chart\STCONFIGUREDLG\TabIndex.cpp

; 570  : }

  00039	5f		 pop	 edi
  0003a	5e		 pop	 esi
  0003b	5b		 pop	 ebx
  0003c	5d		 pop	 ebp
  0003d	c2 0c 00	 ret	 12			; 0000000cH
$LN10@OnCtlColor:
; File C:\Program Files (x86)\Microsoft Visual Studio\2019\Community\VC\Tools\MSVC\14.29.30133\atlmfc\include\afxwin1.inl

; 124  : 	{ return (HBRUSH)(this == NULL ? NULL : m_hObject); }

  00040	8b 40 04	 mov	 eax, DWORD PTR [eax+4]
$LN1@OnCtlColor:
  00043	5f		 pop	 edi
; File D:\git\src\IBK\IBK_DRFN\ProjSrc\SrcDrfn\Chart\STCONFIGUREDLG\TabIndex.cpp

; 570  : }

  00044	5e		 pop	 esi
  00045	5b		 pop	 ebx
  00046	5d		 pop	 ebp
  00047	c2 0c 00	 ret	 12			; 0000000cH
?OnCtlColor@CTabIndex@@IAEPAUHBRUSH__@@PAVCDC@@PAVCWnd@@I@Z ENDP ; CTabIndex::OnCtlColor
_TEXT	ENDS
; Function compile flags: /Ogtp
; File D:\git\src\IBK\IBK_DRFN\ProjSrc\SrcDrfn\Chart\STCONFIGUREDLG\TabIndex.cpp
; File C:\Program Files (x86)\Microsoft Visual Studio\2019\Community\VC\Tools\MSVC\14.29.30133\atlmfc\include\afxtempl.h
; File C:\Program Files (x86)\Microsoft Visual Studio\2019\Community\VC\Tools\MSVC\14.29.30133\atlmfc\include\afxwin2.inl
; File D:\git\src\IBK\IBK_DRFN\ProjSrc\SrcDrfn\Chart\STCONFIGUREDLG\TabIndex.cpp
; File C:\Program Files (x86)\Microsoft Visual Studio\2019\Community\VC\Tools\MSVC\14.29.30133\atlmfc\include\afxwin2.inl
; File C:\Program Files (x86)\Microsoft Visual Studio\2019\Community\VC\Tools\MSVC\14.29.30133\atlmfc\include\afxtempl.h
; File D:\git\src\IBK\IBK_DRFN\ProjSrc\SrcDrfn\Chart\STCONFIGUREDLG\TabIndex.cpp
; File C:\Program Files (x86)\Microsoft Visual Studio\2019\Community\VC\Tools\MSVC\14.29.30133\atlmfc\include\afxwin2.inl
; File D:\git\src\IBK\IBK_DRFN\ProjSrc\SrcDrfn\Chart\STCONFIGUREDLG\TabIndex.cpp
; File C:\Program Files (x86)\Microsoft Visual Studio\2019\Community\VC\Tools\MSVC\14.29.30133\atlmfc\include\afxtempl.h
; File D:\git\src\IBK\IBK_DRFN\ProjSrc\SrcDrfn\Chart\STCONFIGUREDLG\TabIndex.cpp
; File C:\Program Files (x86)\Microsoft Visual Studio\2019\Community\VC\Tools\MSVC\14.29.30133\atlmfc\include\afxtempl.h
; File D:\git\src\IBK\IBK_DRFN\ProjSrc\SrcDrfn\Chart\STCONFIGUREDLG\TabIndex.cpp
; File C:\Program Files (x86)\Microsoft Visual Studio\2019\Community\VC\Tools\MSVC\14.29.30133\atlmfc\include\afxtempl.h
; File D:\git\src\IBK\IBK_DRFN\ProjSrc\SrcDrfn\Chart\STCONFIGUREDLG\TabIndex.cpp
;	COMDAT ?OnSelchangeCbGraphType@CTabIndex@@IAEXXZ
_TEXT	SEGMENT
_indexData$ = -28					; size = 20
_indexData$2$ = -8					; size = 4
tv252 = -4						; size = 4
?OnSelchangeCbGraphType@CTabIndex@@IAEXXZ PROC		; CTabIndex::OnSelchangeCbGraphType, COMDAT
; _this$ = ecx

; 518  : {

  00000	55		 push	 ebp
  00001	8b ec		 mov	 ebp, esp
  00003	83 ec 1c	 sub	 esp, 28			; 0000001cH
  00006	53		 push	 ebx
  00007	56		 push	 esi
  00008	8b f1		 mov	 esi, ecx
  0000a	57		 push	 edi

; 519  : 	// TODO: Add your control notification handler code here
; 520  : 	int nCurSel = m_listGraph.GetCurSel();

  0000b	8d 8e c0 02 00
	00		 lea	 ecx, DWORD PTR [esi+704]
  00011	e8 00 00 00 00	 call	 ?GetCurSel@CXListCtrl@@QAEHXZ ; CXListCtrl::GetCurSel
  00016	8b f8		 mov	 edi, eax
; File C:\Program Files (x86)\Microsoft Visual Studio\2019\Community\VC\Tools\MSVC\14.29.30133\atlmfc\include\afxtempl.h

; 288  : 	if(nIndex >= 0 && nIndex < m_nSize)

  00018	85 ff		 test	 edi, edi
  0001a	0f 88 e7 00 00
	00		 js	 $LN6@OnSelchang
  00020	3b be 20 07 00
	00		 cmp	 edi, DWORD PTR [esi+1824]
  00026	0f 8d db 00 00
	00		 jge	 $LN6@OnSelchang

; 289  : 		return m_pData[nIndex];

  0002c	8b 86 1c 07 00
	00		 mov	 eax, DWORD PTR [esi+1820]
  00032	8d 0c bf	 lea	 ecx, DWORD PTR [edi+edi*4]
  00035	c1 e1 02	 shl	 ecx, 2
; File C:\Program Files (x86)\Microsoft Visual Studio\2019\Community\VC\Tools\MSVC\14.29.30133\atlmfc\include\afxwin2.inl

; 765  : 	{ ASSERT(::IsWindow(m_hWnd)); return (int)::SendMessage(m_hWnd, CB_GETCURSEL, 0, 0); }

  00038	6a 00		 push	 0
  0003a	6a 00		 push	 0
  0003c	68 47 01 00 00	 push	 327			; 00000147H
; File D:\git\src\IBK\IBK_DRFN\ProjSrc\SrcDrfn\Chart\STCONFIGUREDLG\TabIndex.cpp

; 521  : 	CIndexData indexData = m_arrayIndexData.GetAt(nCurSel);	

  00041	0f 10 04 08	 movups	 xmm0, XMMWORD PTR [eax+ecx]
  00045	8b 44 08 10	 mov	 eax, DWORD PTR [eax+ecx+16]
; File C:\Program Files (x86)\Microsoft Visual Studio\2019\Community\VC\Tools\MSVC\14.29.30133\atlmfc\include\afxwin2.inl

; 765  : 	{ ASSERT(::IsWindow(m_hWnd)); return (int)::SendMessage(m_hWnd, CB_GETCURSEL, 0, 0); }

  00049	ff b6 88 04 00
	00		 push	 DWORD PTR [esi+1160]
; File C:\Program Files (x86)\Microsoft Visual Studio\2019\Community\VC\Tools\MSVC\14.29.30133\atlmfc\include\afxtempl.h

; 289  : 		return m_pData[nIndex];

  0004f	89 4d fc	 mov	 DWORD PTR tv252[ebp], ecx
; File D:\git\src\IBK\IBK_DRFN\ProjSrc\SrcDrfn\Chart\STCONFIGUREDLG\TabIndex.cpp

; 521  : 	CIndexData indexData = m_arrayIndexData.GetAt(nCurSel);	

  00052	0f 11 45 e4	 movups	 XMMWORD PTR _indexData$[ebp], xmm0
  00056	89 45 f8	 mov	 DWORD PTR _indexData$2$[ebp], eax
; File C:\Program Files (x86)\Microsoft Visual Studio\2019\Community\VC\Tools\MSVC\14.29.30133\atlmfc\include\afxwin2.inl

; 765  : 	{ ASSERT(::IsWindow(m_hWnd)); return (int)::SendMessage(m_hWnd, CB_GETCURSEL, 0, 0); }

  00059	ff 15 00 00 00
	00		 call	 DWORD PTR __imp__SendMessageA@16
; File D:\git\src\IBK\IBK_DRFN\ProjSrc\SrcDrfn\Chart\STCONFIGUREDLG\TabIndex.cpp

; 522  : 	indexData.m_lType = m_cbGraphType.GetCurSel();	

  0005f	89 45 e8	 mov	 DWORD PTR _indexData$[ebp+4], eax
; File C:\Program Files (x86)\Microsoft Visual Studio\2019\Community\VC\Tools\MSVC\14.29.30133\atlmfc\include\afxtempl.h

; 541  : 	if (nIndex >= m_nSize)

  00062	3b be 20 07 00
	00		 cmp	 edi, DWORD PTR [esi+1824]
  00068	7c 11		 jl	 SHORT $LN13@OnSelchang

; 542  : 		SetSize(nIndex+1, -1);

  0006a	6a ff		 push	 -1
  0006c	8d 4f 01	 lea	 ecx, DWORD PTR [edi+1]
  0006f	51		 push	 ecx
  00070	8d 8e 18 07 00
	00		 lea	 ecx, DWORD PTR [esi+1816]
  00076	e8 00 00 00 00	 call	 ?SetSize@?$CArray@VCIndexData@@V1@@@QAEXHH@Z ; CArray<CIndexData,CIndexData>::SetSize
$LN13@OnSelchang:

; 543  : 	m_pData[nIndex] = newElement;

  0007b	8b 86 1c 07 00
	00		 mov	 eax, DWORD PTR [esi+1820]
  00081	03 45 fc	 add	 eax, DWORD PTR tv252[ebp]
; File D:\git\src\IBK\IBK_DRFN\ProjSrc\SrcDrfn\Chart\STCONFIGUREDLG\TabIndex.cpp

; 524  : 	if(indexData.m_lType!=0)

  00084	83 7d e8 00	 cmp	 DWORD PTR _indexData$[ebp+4], 0
; File C:\Program Files (x86)\Microsoft Visual Studio\2019\Community\VC\Tools\MSVC\14.29.30133\atlmfc\include\afxtempl.h

; 543  : 	m_pData[nIndex] = newElement;

  00088	0f 10 45 e4	 movups	 xmm0, XMMWORD PTR _indexData$[ebp]
  0008c	8b 4d f8	 mov	 ecx, DWORD PTR _indexData$2$[ebp]
  0008f	0f 11 00	 movups	 XMMWORD PTR [eax], xmm0
  00092	89 48 10	 mov	 DWORD PTR [eax+16], ecx
  00095	8d 8e b0 00 00
	00		 lea	 ecx, DWORD PTR [esi+176]
; File D:\git\src\IBK\IBK_DRFN\ProjSrc\SrcDrfn\Chart\STCONFIGUREDLG\TabIndex.cpp

; 524  : 	if(indexData.m_lType!=0)

  0009b	74 35		 je	 SHORT $LN2@OnSelchang

; 525  : 	{
; 526  : 		m_stThick.ShowWindow(SW_HIDE);

  0009d	6a 00		 push	 0
  0009f	e8 00 00 00 00	 call	 ?ShowWindow@CWnd@@QAEHH@Z ; CWnd::ShowWindow

; 527  : 		m_stShape.ShowWindow(SW_HIDE);

  000a4	6a 00		 push	 0
  000a6	8d 8e 30 01 00
	00		 lea	 ecx, DWORD PTR [esi+304]
  000ac	e8 00 00 00 00	 call	 ?ShowWindow@CWnd@@QAEHH@Z ; CWnd::ShowWindow

; 528  : 		m_cbGraphThick.ShowWindow(SW_HIDE);

  000b1	6a 00		 push	 0
  000b3	8d 8e e8 04 00
	00		 lea	 ecx, DWORD PTR [esi+1256]
  000b9	e8 00 00 00 00	 call	 ?ShowWindow@CWnd@@QAEHH@Z ; CWnd::ShowWindow

; 529  : 		m_cbGraphShape.ShowWindow(SW_HIDE);

  000be	6a 00		 push	 0

; 539  : }

  000c0	8d 8e 70 05 00
	00		 lea	 ecx, DWORD PTR [esi+1392]
  000c6	e8 00 00 00 00	 call	 ?ShowWindow@CWnd@@QAEHH@Z ; CWnd::ShowWindow
  000cb	5f		 pop	 edi
  000cc	5e		 pop	 esi
  000cd	5b		 pop	 ebx
  000ce	8b e5		 mov	 esp, ebp
  000d0	5d		 pop	 ebp
  000d1	c3		 ret	 0
$LN2@OnSelchang:

; 530  : 	}
; 531  : 	else
; 532  : 	{
; 533  : 		m_stThick.ShowWindow(SW_SHOW);

  000d2	6a 05		 push	 5
  000d4	e8 00 00 00 00	 call	 ?ShowWindow@CWnd@@QAEHH@Z ; CWnd::ShowWindow

; 534  : 		m_stShape.ShowWindow(SW_SHOW);

  000d9	6a 05		 push	 5
  000db	8d 8e 30 01 00
	00		 lea	 ecx, DWORD PTR [esi+304]
  000e1	e8 00 00 00 00	 call	 ?ShowWindow@CWnd@@QAEHH@Z ; CWnd::ShowWindow

; 535  : 		m_cbGraphThick.ShowWindow(SW_SHOW);

  000e6	6a 05		 push	 5
  000e8	8d 8e e8 04 00
	00		 lea	 ecx, DWORD PTR [esi+1256]
  000ee	e8 00 00 00 00	 call	 ?ShowWindow@CWnd@@QAEHH@Z ; CWnd::ShowWindow

; 536  : 		m_cbGraphShape.ShowWindow(SW_SHOW);

  000f3	6a 05		 push	 5

; 539  : }

  000f5	8d 8e 70 05 00
	00		 lea	 ecx, DWORD PTR [esi+1392]
  000fb	e8 00 00 00 00	 call	 ?ShowWindow@CWnd@@QAEHH@Z ; CWnd::ShowWindow
  00100	5f		 pop	 edi
  00101	5e		 pop	 esi
  00102	5b		 pop	 ebx
  00103	8b e5		 mov	 esp, ebp
  00105	5d		 pop	 ebp
  00106	c3		 ret	 0
$LN6@OnSelchang:
; File C:\Program Files (x86)\Microsoft Visual Studio\2019\Community\VC\Tools\MSVC\14.29.30133\atlmfc\include\afxtempl.h

; 290  : 	AfxThrowInvalidArgException();

  00107	e8 00 00 00 00	 call	 ?AfxThrowInvalidArgException@@YGXXZ ; AfxThrowInvalidArgException
$LN15@OnSelchang:
  0010c	cc		 int	 3
?OnSelchangeCbGraphType@CTabIndex@@IAEXXZ ENDP		; CTabIndex::OnSelchangeCbGraphType
_TEXT	ENDS
; Function compile flags: /Ogtp
; File D:\git\src\IBK\IBK_DRFN\ProjSrc\SrcDrfn\Chart\STCONFIGUREDLG\TabIndex.cpp
; File C:\Program Files (x86)\Microsoft Visual Studio\2019\Community\VC\Tools\MSVC\14.29.30133\atlmfc\include\afxtempl.h
; File C:\Program Files (x86)\Microsoft Visual Studio\2019\Community\VC\Tools\MSVC\14.29.30133\atlmfc\include\afxwin2.inl
; File D:\git\src\IBK\IBK_DRFN\ProjSrc\SrcDrfn\Chart\STCONFIGUREDLG\TabIndex.cpp
; File C:\Program Files (x86)\Microsoft Visual Studio\2019\Community\VC\Tools\MSVC\14.29.30133\atlmfc\include\afxwin2.inl
; File D:\git\src\IBK\IBK_DRFN\ProjSrc\SrcDrfn\Chart\STCONFIGUREDLG\TabIndex.cpp
; File C:\Program Files (x86)\Microsoft Visual Studio\2019\Community\VC\Tools\MSVC\14.29.30133\atlmfc\include\afxwin2.inl
; File D:\git\src\IBK\IBK_DRFN\ProjSrc\SrcDrfn\Chart\STCONFIGUREDLG\TabIndex.cpp
; File C:\Program Files (x86)\Microsoft Visual Studio\2019\Community\VC\Tools\MSVC\14.29.30133\atlmfc\include\afxtempl.h
; File D:\git\src\IBK\IBK_DRFN\ProjSrc\SrcDrfn\Chart\STCONFIGUREDLG\TabIndex.cpp
; File C:\Program Files (x86)\Microsoft Visual Studio\2019\Community\VC\Tools\MSVC\14.29.30133\atlmfc\include\afxtempl.h
; File D:\git\src\IBK\IBK_DRFN\ProjSrc\SrcDrfn\Chart\STCONFIGUREDLG\TabIndex.cpp
;	COMDAT ?OnSelchangeCbGraphThick@CTabIndex@@IAEXXZ
_TEXT	SEGMENT
_indexData$ = -24					; size = 20
_indexData$1$ = -4					; size = 4
?OnSelchangeCbGraphThick@CTabIndex@@IAEXXZ PROC		; CTabIndex::OnSelchangeCbGraphThick, COMDAT
; _this$ = ecx

; 509  : {

  00000	55		 push	 ebp
  00001	8b ec		 mov	 ebp, esp
  00003	83 ec 18	 sub	 esp, 24			; 00000018H
  00006	53		 push	 ebx
  00007	56		 push	 esi
  00008	57		 push	 edi
  00009	8b f9		 mov	 edi, ecx

; 510  : 	// TODO: Add your control notification handler code here
; 511  : 	int nCurSel = m_listGraph.GetCurSel();

  0000b	8d 8f c0 02 00
	00		 lea	 ecx, DWORD PTR [edi+704]
  00011	e8 00 00 00 00	 call	 ?GetCurSel@CXListCtrl@@QAEHXZ ; CXListCtrl::GetCurSel
  00016	8b f0		 mov	 esi, eax
; File C:\Program Files (x86)\Microsoft Visual Studio\2019\Community\VC\Tools\MSVC\14.29.30133\atlmfc\include\afxtempl.h

; 288  : 	if(nIndex >= 0 && nIndex < m_nSize)

  00018	85 f6		 test	 esi, esi
  0001a	78 6d		 js	 SHORT $LN4@OnSelchang
  0001c	3b b7 20 07 00
	00		 cmp	 esi, DWORD PTR [edi+1824]
  00022	7d 65		 jge	 SHORT $LN4@OnSelchang

; 289  : 		return m_pData[nIndex];

  00024	8b 87 1c 07 00
	00		 mov	 eax, DWORD PTR [edi+1820]
  0002a	8d 1c b6	 lea	 ebx, DWORD PTR [esi+esi*4]
; File C:\Program Files (x86)\Microsoft Visual Studio\2019\Community\VC\Tools\MSVC\14.29.30133\atlmfc\include\afxwin2.inl

; 765  : 	{ ASSERT(::IsWindow(m_hWnd)); return (int)::SendMessage(m_hWnd, CB_GETCURSEL, 0, 0); }

  0002d	6a 00		 push	 0
  0002f	6a 00		 push	 0
  00031	68 47 01 00 00	 push	 327			; 00000147H
; File D:\git\src\IBK\IBK_DRFN\ProjSrc\SrcDrfn\Chart\STCONFIGUREDLG\TabIndex.cpp

; 512  : 	CIndexData indexData = m_arrayIndexData.GetAt(nCurSel);	

  00036	0f 10 04 98	 movups	 xmm0, XMMWORD PTR [eax+ebx*4]
  0003a	8b 44 98 10	 mov	 eax, DWORD PTR [eax+ebx*4+16]
; File C:\Program Files (x86)\Microsoft Visual Studio\2019\Community\VC\Tools\MSVC\14.29.30133\atlmfc\include\afxwin2.inl

; 765  : 	{ ASSERT(::IsWindow(m_hWnd)); return (int)::SendMessage(m_hWnd, CB_GETCURSEL, 0, 0); }

  0003e	ff b7 08 05 00
	00		 push	 DWORD PTR [edi+1288]
; File D:\git\src\IBK\IBK_DRFN\ProjSrc\SrcDrfn\Chart\STCONFIGUREDLG\TabIndex.cpp

; 512  : 	CIndexData indexData = m_arrayIndexData.GetAt(nCurSel);	

  00044	0f 11 45 e8	 movups	 XMMWORD PTR _indexData$[ebp], xmm0
  00048	89 45 fc	 mov	 DWORD PTR _indexData$1$[ebp], eax
; File C:\Program Files (x86)\Microsoft Visual Studio\2019\Community\VC\Tools\MSVC\14.29.30133\atlmfc\include\afxwin2.inl

; 765  : 	{ ASSERT(::IsWindow(m_hWnd)); return (int)::SendMessage(m_hWnd, CB_GETCURSEL, 0, 0); }

  0004b	ff 15 00 00 00
	00		 call	 DWORD PTR __imp__SendMessageA@16
; File D:\git\src\IBK\IBK_DRFN\ProjSrc\SrcDrfn\Chart\STCONFIGUREDLG\TabIndex.cpp

; 513  : 	indexData.m_lThick = m_cbGraphThick.GetCurSel();

  00051	89 45 f4	 mov	 DWORD PTR _indexData$[ebp+12], eax
; File C:\Program Files (x86)\Microsoft Visual Studio\2019\Community\VC\Tools\MSVC\14.29.30133\atlmfc\include\afxtempl.h

; 541  : 	if (nIndex >= m_nSize)

  00054	3b b7 20 07 00
	00		 cmp	 esi, DWORD PTR [edi+1824]
  0005a	7c 11		 jl	 SHORT $LN11@OnSelchang

; 542  : 		SetSize(nIndex+1, -1);

  0005c	6a ff		 push	 -1
  0005e	8d 46 01	 lea	 eax, DWORD PTR [esi+1]
  00061	50		 push	 eax
  00062	8d 8f 18 07 00
	00		 lea	 ecx, DWORD PTR [edi+1816]
  00068	e8 00 00 00 00	 call	 ?SetSize@?$CArray@VCIndexData@@V1@@@QAEXHH@Z ; CArray<CIndexData,CIndexData>::SetSize
$LN11@OnSelchang:

; 543  : 	m_pData[nIndex] = newElement;

  0006d	8b 87 1c 07 00
	00		 mov	 eax, DWORD PTR [edi+1820]
  00073	0f 10 45 e8	 movups	 xmm0, XMMWORD PTR _indexData$[ebp]
  00077	8b 4d fc	 mov	 ecx, DWORD PTR _indexData$1$[ebp]
  0007a	5f		 pop	 edi
  0007b	0f 11 04 98	 movups	 XMMWORD PTR [eax+ebx*4], xmm0
  0007f	5e		 pop	 esi
  00080	89 4c 98 10	 mov	 DWORD PTR [eax+ebx*4+16], ecx
  00084	5b		 pop	 ebx
; File D:\git\src\IBK\IBK_DRFN\ProjSrc\SrcDrfn\Chart\STCONFIGUREDLG\TabIndex.cpp

; 515  : }

  00085	8b e5		 mov	 esp, ebp
  00087	5d		 pop	 ebp
  00088	c3		 ret	 0
$LN4@OnSelchang:
; File C:\Program Files (x86)\Microsoft Visual Studio\2019\Community\VC\Tools\MSVC\14.29.30133\atlmfc\include\afxtempl.h

; 290  : 	AfxThrowInvalidArgException();

  00089	e8 00 00 00 00	 call	 ?AfxThrowInvalidArgException@@YGXXZ ; AfxThrowInvalidArgException
$LN13@OnSelchang:
  0008e	cc		 int	 3
?OnSelchangeCbGraphThick@CTabIndex@@IAEXXZ ENDP		; CTabIndex::OnSelchangeCbGraphThick
_TEXT	ENDS
; Function compile flags: /Ogtp
; File D:\git\src\IBK\IBK_DRFN\ProjSrc\SrcDrfn\Chart\STCONFIGUREDLG\TabIndex.cpp
; File C:\Program Files (x86)\Microsoft Visual Studio\2019\Community\VC\Tools\MSVC\14.29.30133\atlmfc\include\afxtempl.h
; File C:\Program Files (x86)\Microsoft Visual Studio\2019\Community\VC\Tools\MSVC\14.29.30133\atlmfc\include\afxwin2.inl
; File D:\git\src\IBK\IBK_DRFN\ProjSrc\SrcDrfn\Chart\STCONFIGUREDLG\TabIndex.cpp
; File C:\Program Files (x86)\Microsoft Visual Studio\2019\Community\VC\Tools\MSVC\14.29.30133\atlmfc\include\afxwin2.inl
; File C:\Program Files (x86)\Microsoft Visual Studio\2019\Community\VC\Tools\MSVC\14.29.30133\atlmfc\include\afxtempl.h
; File D:\git\src\IBK\IBK_DRFN\ProjSrc\SrcDrfn\Chart\STCONFIGUREDLG\TabIndex.cpp
; File C:\Program Files (x86)\Microsoft Visual Studio\2019\Community\VC\Tools\MSVC\14.29.30133\atlmfc\include\afxwin2.inl
; File D:\git\src\IBK\IBK_DRFN\ProjSrc\SrcDrfn\Chart\STCONFIGUREDLG\TabIndex.cpp
; File C:\Program Files (x86)\Microsoft Visual Studio\2019\Community\VC\Tools\MSVC\14.29.30133\atlmfc\include\afxtempl.h
; File D:\git\src\IBK\IBK_DRFN\ProjSrc\SrcDrfn\Chart\STCONFIGUREDLG\TabIndex.cpp
; File C:\Program Files (x86)\Microsoft Visual Studio\2019\Community\VC\Tools\MSVC\14.29.30133\atlmfc\include\afxtempl.h
; File D:\git\src\IBK\IBK_DRFN\ProjSrc\SrcDrfn\Chart\STCONFIGUREDLG\TabIndex.cpp
; File C:\Program Files (x86)\Microsoft Visual Studio\2019\Community\VC\Tools\MSVC\14.29.30133\atlmfc\include\afxtempl.h
; File D:\git\src\IBK\IBK_DRFN\ProjSrc\SrcDrfn\Chart\STCONFIGUREDLG\TabIndex.cpp
;	COMDAT ?OnSelchangeCbGraphShape@CTabIndex@@IAEXXZ
_TEXT	SEGMENT
_indexData$ = -28					; size = 20
_indexData$2$ = -8					; size = 4
tv242 = -4						; size = 4
?OnSelchangeCbGraphShape@CTabIndex@@IAEXXZ PROC		; CTabIndex::OnSelchangeCbGraphShape, COMDAT
; _this$ = ecx

; 490  : {

  00000	55		 push	 ebp
  00001	8b ec		 mov	 ebp, esp
  00003	83 ec 1c	 sub	 esp, 28			; 0000001cH
  00006	56		 push	 esi
  00007	8b f1		 mov	 esi, ecx
  00009	57		 push	 edi

; 491  : 	// TODO: Add your control notification handler code here
; 492  : 	int nCurSel = m_listGraph.GetCurSel();

  0000a	8d 8e c0 02 00
	00		 lea	 ecx, DWORD PTR [esi+704]
  00010	e8 00 00 00 00	 call	 ?GetCurSel@CXListCtrl@@QAEHXZ ; CXListCtrl::GetCurSel
  00015	8b f8		 mov	 edi, eax
; File C:\Program Files (x86)\Microsoft Visual Studio\2019\Community\VC\Tools\MSVC\14.29.30133\atlmfc\include\afxtempl.h

; 288  : 	if(nIndex >= 0 && nIndex < m_nSize)

  00017	85 ff		 test	 edi, edi
  00019	0f 88 b3 00 00
	00		 js	 $LN6@OnSelchang
  0001f	3b be 20 07 00
	00		 cmp	 edi, DWORD PTR [esi+1824]
  00025	0f 8d a7 00 00
	00		 jge	 $LN6@OnSelchang

; 289  : 		return m_pData[nIndex];

  0002b	8b 86 1c 07 00
	00		 mov	 eax, DWORD PTR [esi+1820]
  00031	8d 0c bf	 lea	 ecx, DWORD PTR [edi+edi*4]
  00034	53		 push	 ebx
  00035	c1 e1 02	 shl	 ecx, 2
; File C:\Program Files (x86)\Microsoft Visual Studio\2019\Community\VC\Tools\MSVC\14.29.30133\atlmfc\include\afxwin2.inl

; 765  : 	{ ASSERT(::IsWindow(m_hWnd)); return (int)::SendMessage(m_hWnd, CB_GETCURSEL, 0, 0); }

  00038	6a 00		 push	 0
  0003a	6a 00		 push	 0
  0003c	68 47 01 00 00	 push	 327			; 00000147H
; File D:\git\src\IBK\IBK_DRFN\ProjSrc\SrcDrfn\Chart\STCONFIGUREDLG\TabIndex.cpp

; 493  : 	CIndexData indexData = m_arrayIndexData.GetAt(nCurSel);	

  00041	0f 10 04 08	 movups	 xmm0, XMMWORD PTR [eax+ecx]
  00045	8b 44 08 10	 mov	 eax, DWORD PTR [eax+ecx+16]
; File C:\Program Files (x86)\Microsoft Visual Studio\2019\Community\VC\Tools\MSVC\14.29.30133\atlmfc\include\afxwin2.inl

; 765  : 	{ ASSERT(::IsWindow(m_hWnd)); return (int)::SendMessage(m_hWnd, CB_GETCURSEL, 0, 0); }

  00049	ff b6 90 05 00
	00		 push	 DWORD PTR [esi+1424]
; File C:\Program Files (x86)\Microsoft Visual Studio\2019\Community\VC\Tools\MSVC\14.29.30133\atlmfc\include\afxtempl.h

; 289  : 		return m_pData[nIndex];

  0004f	89 4d fc	 mov	 DWORD PTR tv242[ebp], ecx
; File D:\git\src\IBK\IBK_DRFN\ProjSrc\SrcDrfn\Chart\STCONFIGUREDLG\TabIndex.cpp

; 493  : 	CIndexData indexData = m_arrayIndexData.GetAt(nCurSel);	

  00052	0f 11 45 e4	 movups	 XMMWORD PTR _indexData$[ebp], xmm0
  00056	89 45 f8	 mov	 DWORD PTR _indexData$2$[ebp], eax
; File C:\Program Files (x86)\Microsoft Visual Studio\2019\Community\VC\Tools\MSVC\14.29.30133\atlmfc\include\afxwin2.inl

; 765  : 	{ ASSERT(::IsWindow(m_hWnd)); return (int)::SendMessage(m_hWnd, CB_GETCURSEL, 0, 0); }

  00059	ff 15 00 00 00
	00		 call	 DWORD PTR __imp__SendMessageA@16
; File D:\git\src\IBK\IBK_DRFN\ProjSrc\SrcDrfn\Chart\STCONFIGUREDLG\TabIndex.cpp

; 494  : 	indexData.m_lShape = m_cbGraphShape.GetCurSel();

  0005f	89 45 ec	 mov	 DWORD PTR _indexData$[ebp+8], eax
; File C:\Program Files (x86)\Microsoft Visual Studio\2019\Community\VC\Tools\MSVC\14.29.30133\atlmfc\include\afxtempl.h

; 541  : 	if (nIndex >= m_nSize)

  00062	3b be 20 07 00
	00		 cmp	 edi, DWORD PTR [esi+1824]
  00068	7c 11		 jl	 SHORT $LN13@OnSelchang

; 542  : 		SetSize(nIndex+1, -1);

  0006a	6a ff		 push	 -1
  0006c	8d 4f 01	 lea	 ecx, DWORD PTR [edi+1]
  0006f	51		 push	 ecx
  00070	8d 8e 18 07 00
	00		 lea	 ecx, DWORD PTR [esi+1816]
  00076	e8 00 00 00 00	 call	 ?SetSize@?$CArray@VCIndexData@@V1@@@QAEXHH@Z ; CArray<CIndexData,CIndexData>::SetSize
$LN13@OnSelchang:

; 543  : 	m_pData[nIndex] = newElement;

  0007b	8b 86 1c 07 00
	00		 mov	 eax, DWORD PTR [esi+1820]
  00081	03 45 fc	 add	 eax, DWORD PTR tv242[ebp]
; File D:\git\src\IBK\IBK_DRFN\ProjSrc\SrcDrfn\Chart\STCONFIGUREDLG\TabIndex.cpp

; 496  : 	if(indexData.m_lShape!=0)

  00084	83 7d ec 00	 cmp	 DWORD PTR _indexData$[ebp+8], 0
; File C:\Program Files (x86)\Microsoft Visual Studio\2019\Community\VC\Tools\MSVC\14.29.30133\atlmfc\include\afxtempl.h

; 543  : 	m_pData[nIndex] = newElement;

  00088	0f 10 45 e4	 movups	 xmm0, XMMWORD PTR _indexData$[ebp]
  0008c	8b 4d f8	 mov	 ecx, DWORD PTR _indexData$2$[ebp]
  0008f	5b		 pop	 ebx
  00090	0f 11 00	 movups	 XMMWORD PTR [eax], xmm0
  00093	89 48 10	 mov	 DWORD PTR [eax+16], ecx
  00096	8d 8e b0 00 00
	00		 lea	 ecx, DWORD PTR [esi+176]
; File D:\git\src\IBK\IBK_DRFN\ProjSrc\SrcDrfn\Chart\STCONFIGUREDLG\TabIndex.cpp

; 496  : 	if(indexData.m_lShape!=0)

  0009c	74 1a		 je	 SHORT $LN2@OnSelchang

; 497  : 	{
; 498  : 		m_stThick.ShowWindow(SW_HIDE);

  0009e	6a 00		 push	 0
  000a0	e8 00 00 00 00	 call	 ?ShowWindow@CWnd@@QAEHH@Z ; CWnd::ShowWindow

; 499  : 		m_cbGraphThick.ShowWindow(SW_HIDE);

  000a5	6a 00		 push	 0

; 506  : }

  000a7	8d 8e e8 04 00
	00		 lea	 ecx, DWORD PTR [esi+1256]
  000ad	e8 00 00 00 00	 call	 ?ShowWindow@CWnd@@QAEHH@Z ; CWnd::ShowWindow
  000b2	5f		 pop	 edi
  000b3	5e		 pop	 esi
  000b4	8b e5		 mov	 esp, ebp
  000b6	5d		 pop	 ebp
  000b7	c3		 ret	 0
$LN2@OnSelchang:

; 500  : 	}
; 501  : 	else
; 502  : 	{
; 503  : 		m_stThick.ShowWindow(SW_SHOW);

  000b8	6a 05		 push	 5
  000ba	e8 00 00 00 00	 call	 ?ShowWindow@CWnd@@QAEHH@Z ; CWnd::ShowWindow

; 504  : 		m_cbGraphThick.ShowWindow(SW_SHOW);

  000bf	6a 05		 push	 5

; 506  : }

  000c1	8d 8e e8 04 00
	00		 lea	 ecx, DWORD PTR [esi+1256]
  000c7	e8 00 00 00 00	 call	 ?ShowWindow@CWnd@@QAEHH@Z ; CWnd::ShowWindow
  000cc	5f		 pop	 edi
  000cd	5e		 pop	 esi
  000ce	8b e5		 mov	 esp, ebp
  000d0	5d		 pop	 ebp
  000d1	c3		 ret	 0
$LN6@OnSelchang:
; File C:\Program Files (x86)\Microsoft Visual Studio\2019\Community\VC\Tools\MSVC\14.29.30133\atlmfc\include\afxtempl.h

; 290  : 	AfxThrowInvalidArgException();

  000d2	e8 00 00 00 00	 call	 ?AfxThrowInvalidArgException@@YGXXZ ; AfxThrowInvalidArgException
$LN15@OnSelchang:
  000d7	cc		 int	 3
?OnSelchangeCbGraphShape@CTabIndex@@IAEXXZ ENDP		; CTabIndex::OnSelchangeCbGraphShape
_TEXT	ENDS
; Function compile flags: /Ogtp
; File D:\git\src\IBK\IBK_DRFN\ProjSrc\SrcDrfn\Chart\STCONFIGUREDLG\TabIndex.cpp
; File C:\Program Files (x86)\Microsoft Visual Studio\2019\Community\VC\Tools\MSVC\14.29.30133\atlmfc\include\afxtempl.h
; File D:\git\src\IBK\IBK_DRFN\ProjSrc\SrcDrfn\Chart\STCONFIGUREDLG\TabIndex.cpp
; File C:\Program Files (x86)\Microsoft Visual Studio\2019\Community\VC\Tools\MSVC\14.29.30133\atlmfc\include\afxwin2.inl
; File D:\git\src\IBK\IBK_DRFN\ProjSrc\SrcDrfn\Chart\STCONFIGUREDLG\TabIndex.cpp
; File C:\Program Files (x86)\Microsoft Visual Studio\2019\Community\VC\Tools\MSVC\14.29.30133\atlmfc\include\afxwin2.inl
; File D:\git\src\IBK\IBK_DRFN\ProjSrc\SrcDrfn\Chart\STCONFIGUREDLG\TabIndex.cpp
; File C:\Program Files (x86)\Microsoft Visual Studio\2019\Community\VC\Tools\MSVC\14.29.30133\atlmfc\include\afxtempl.h
; File D:\git\src\IBK\IBK_DRFN\ProjSrc\SrcDrfn\Chart\STCONFIGUREDLG\TabIndex.cpp
;	COMDAT ?OnItemchangedListGraph@CTabIndex@@IAEXPAUtagNMHDR@@PAJ@Z
_TEXT	SEGMENT
_indexData$1 = -20					; size = 20
tv347 = 8						; size = 4
_pNMHDR$ = 8						; size = 4
_pResult$ = 12						; size = 4
?OnItemchangedListGraph@CTabIndex@@IAEXPAUtagNMHDR@@PAJ@Z PROC ; CTabIndex::OnItemchangedListGraph, COMDAT
; _this$ = ecx

; 449  : {

  00000	55		 push	 ebp
  00001	8b ec		 mov	 ebp, esp

; 450  : 	NM_LISTVIEW* pNMListView = (NM_LISTVIEW*)pNMHDR;
; 451  : 	// TODO: Add your control notification handler code here
; 452  : 	if(pNMListView->uNewState==3)

  00003	8b 55 08	 mov	 edx, DWORD PTR _pNMHDR$[ebp]
  00006	83 ec 14	 sub	 esp, 20			; 00000014H
  00009	83 7a 14 03	 cmp	 DWORD PTR [edx+20], 3
  0000d	57		 push	 edi
  0000e	8b f9		 mov	 edi, ecx
  00010	0f 85 0a 01 00
	00		 jne	 $LN6@OnItemchan

; 453  : 	{
; 454  : 		CIndexData indexData = m_arrayIndexData.GetAt(pNMListView->iItem);

  00016	8b 52 0c	 mov	 edx, DWORD PTR [edx+12]
; File C:\Program Files (x86)\Microsoft Visual Studio\2019\Community\VC\Tools\MSVC\14.29.30133\atlmfc\include\afxtempl.h

; 288  : 	if(nIndex >= 0 && nIndex < m_nSize)

  00019	85 d2		 test	 edx, edx
  0001b	0f 88 1a 01 00
	00		 js	 $LN9@OnItemchan
  00021	3b 97 20 07 00
	00		 cmp	 edx, DWORD PTR [edi+1824]
  00027	0f 8d 0e 01 00
	00		 jge	 $LN9@OnItemchan

; 289  : 		return m_pData[nIndex];

  0002d	8b 87 1c 07 00
	00		 mov	 eax, DWORD PTR [edi+1820]
  00033	8d 0c 92	 lea	 ecx, DWORD PTR [edx+edx*4]
  00036	53		 push	 ebx
  00037	56		 push	 esi
; File D:\git\src\IBK\IBK_DRFN\ProjSrc\SrcDrfn\Chart\STCONFIGUREDLG\TabIndex.cpp

; 455  : 		m_listGraph.SetCurSel(pNMListView->iItem);

  00038	6a 01		 push	 1
  0003a	0f 10 04 88	 movups	 xmm0, XMMWORD PTR [eax+ecx*4]
  0003e	52		 push	 edx
  0003f	0f 11 45 ec	 movups	 XMMWORD PTR _indexData$1[ebp], xmm0
  00043	8b 44 88 10	 mov	 eax, DWORD PTR [eax+ecx*4+16]
  00047	8d 8f c0 02 00
	00		 lea	 ecx, DWORD PTR [edi+704]
  0004d	89 45 fc	 mov	 DWORD PTR _indexData$1[ebp+16], eax
  00050	e8 00 00 00 00	 call	 ?SetCurSel@CXListCtrl@@QAEHHH@Z ; CXListCtrl::SetCurSel
; File C:\Program Files (x86)\Microsoft Visual Studio\2019\Community\VC\Tools\MSVC\14.29.30133\atlmfc\include\afxwin2.inl

; 767  : 	{ ASSERT(::IsWindow(m_hWnd)); return (int)::SendMessage(m_hWnd, CB_SETCURSEL, nSelect, 0); }

  00055	8b 35 00 00 00
	00		 mov	 esi, DWORD PTR __imp__SendMessageA@16
  0005b	6a 00		 push	 0
  0005d	ff 75 f0	 push	 DWORD PTR _indexData$1[ebp+4]
  00060	68 4e 01 00 00	 push	 334			; 0000014eH
  00065	ff b7 88 04 00
	00		 push	 DWORD PTR [edi+1160]
  0006b	ff d6		 call	 esi
  0006d	6a 00		 push	 0
  0006f	ff 75 f8	 push	 DWORD PTR _indexData$1[ebp+12]
  00072	68 4e 01 00 00	 push	 334			; 0000014eH
  00077	ff b7 08 05 00
	00		 push	 DWORD PTR [edi+1288]
  0007d	ff d6		 call	 esi
  0007f	6a 00		 push	 0
  00081	ff 75 f4	 push	 DWORD PTR _indexData$1[ebp+8]
  00084	68 4e 01 00 00	 push	 334			; 0000014eH
  00089	ff b7 90 05 00
	00		 push	 DWORD PTR [edi+1424]
  0008f	ff d6		 call	 esi
; File D:\git\src\IBK\IBK_DRFN\ProjSrc\SrcDrfn\Chart\STCONFIGUREDLG\TabIndex.cpp

; 459  : 		m_btnGraphClr.SetColor(indexData.m_clrIndex);

  00091	8d 45 ec	 lea	 eax, DWORD PTR _indexData$1[ebp]
  00094	50		 push	 eax
  00095	8d 8f 30 02 00
	00		 lea	 ecx, DWORD PTR [edi+560]
  0009b	e8 00 00 00 00	 call	 ?SetColor@CColorButton@@QAEXABK@Z ; CColorButton::SetColor
; File C:\Program Files (x86)\Microsoft Visual Studio\2019\Community\VC\Tools\MSVC\14.29.30133\atlmfc\include\afxwin2.inl

; 114  : 	{ ASSERT(::IsWindow(m_hWnd)); ::InvalidateRect(m_hWnd, NULL, bErase); }

  000a0	6a 01		 push	 1
  000a2	6a 00		 push	 0
  000a4	ff b7 50 02 00
	00		 push	 DWORD PTR [edi+592]
  000aa	ff 15 00 00 00
	00		 call	 DWORD PTR __imp__InvalidateRect@12
  000b0	8d 87 70 05 00
	00		 lea	 eax, DWORD PTR [edi+1392]
  000b6	8d 9f 30 01 00
	00		 lea	 ebx, DWORD PTR [edi+304]
  000bc	89 45 08	 mov	 DWORD PTR tv347[ebp], eax
  000bf	8d b7 b0 00 00
	00		 lea	 esi, DWORD PTR [edi+176]
  000c5	81 c7 e8 04 00
	00		 add	 edi, 1256		; 000004e8H
; File D:\git\src\IBK\IBK_DRFN\ProjSrc\SrcDrfn\Chart\STCONFIGUREDLG\TabIndex.cpp

; 461  : 		if(indexData.m_lType!=0)

  000cb	83 7d f0 00	 cmp	 DWORD PTR _indexData$1[ebp+4], 0
  000cf	74 22		 je	 SHORT $LN3@OnItemchan

; 462  : 		{
; 463  : 			m_stThick.ShowWindow(SW_HIDE);

  000d1	6a 00		 push	 0
  000d3	8b ce		 mov	 ecx, esi
  000d5	e8 00 00 00 00	 call	 ?ShowWindow@CWnd@@QAEHH@Z ; CWnd::ShowWindow

; 464  : 			m_stShape.ShowWindow(SW_HIDE);

  000da	6a 00		 push	 0
  000dc	8b cb		 mov	 ecx, ebx
  000de	e8 00 00 00 00	 call	 ?ShowWindow@CWnd@@QAEHH@Z ; CWnd::ShowWindow

; 465  : 			m_cbGraphThick.ShowWindow(SW_HIDE);

  000e3	6a 00		 push	 0
  000e5	8b cf		 mov	 ecx, edi
  000e7	e8 00 00 00 00	 call	 ?ShowWindow@CWnd@@QAEHH@Z ; CWnd::ShowWindow

; 466  : 			m_cbGraphShape.ShowWindow(SW_HIDE);

  000ec	8b 4d 08	 mov	 ecx, DWORD PTR tv347[ebp]
  000ef	6a 00		 push	 0

; 467  : 		}

  000f1	eb 26		 jmp	 SHORT $LN24@OnItemchan
$LN3@OnItemchan:

; 468  : 		else
; 469  : 		{
; 470  : 			m_stShape.ShowWindow(SW_SHOW);

  000f3	6a 05		 push	 5
  000f5	8b cb		 mov	 ecx, ebx
  000f7	e8 00 00 00 00	 call	 ?ShowWindow@CWnd@@QAEHH@Z ; CWnd::ShowWindow

; 471  : 			m_cbGraphShape.ShowWindow(SW_SHOW);

  000fc	8b 4d 08	 mov	 ecx, DWORD PTR tv347[ebp]
  000ff	6a 05		 push	 5
  00101	e8 00 00 00 00	 call	 ?ShowWindow@CWnd@@QAEHH@Z ; CWnd::ShowWindow

; 472  : 			
; 473  : 			if(indexData.m_lShape!=0)

  00106	83 7d f4 00	 cmp	 DWORD PTR _indexData$1[ebp+8], 0
  0010a	8b ce		 mov	 ecx, esi
  0010c	74 22		 je	 SHORT $LN5@OnItemchan

; 474  : 			{
; 475  : 				m_stThick.ShowWindow(SW_HIDE);

  0010e	6a 00		 push	 0
  00110	e8 00 00 00 00	 call	 ?ShowWindow@CWnd@@QAEHH@Z ; CWnd::ShowWindow

; 476  : 				m_cbGraphThick.ShowWindow(SW_HIDE);

  00115	6a 00		 push	 0
$LN23@OnItemchan:
  00117	8b cf		 mov	 ecx, edi
$LN24@OnItemchan:
  00119	e8 00 00 00 00	 call	 ?ShowWindow@CWnd@@QAEHH@Z ; CWnd::ShowWindow
  0011e	5e		 pop	 esi
  0011f	5b		 pop	 ebx
$LN6@OnItemchan:

; 482  : 			}			
; 483  : 		}
; 484  : 	}
; 485  : 	
; 486  : 	*pResult = 0;

  00120	8b 45 0c	 mov	 eax, DWORD PTR _pResult$[ebp]
  00123	5f		 pop	 edi
  00124	c7 00 00 00 00
	00		 mov	 DWORD PTR [eax], 0

; 487  : }

  0012a	8b e5		 mov	 esp, ebp
  0012c	5d		 pop	 ebp
  0012d	c2 08 00	 ret	 8
$LN5@OnItemchan:

; 477  : 			}
; 478  : 			else
; 479  : 			{
; 480  : 				m_stThick.ShowWindow(SW_SHOW);

  00130	6a 05		 push	 5
  00132	e8 00 00 00 00	 call	 ?ShowWindow@CWnd@@QAEHH@Z ; CWnd::ShowWindow

; 481  : 				m_cbGraphThick.ShowWindow(SW_SHOW);				

  00137	6a 05		 push	 5
  00139	eb dc		 jmp	 SHORT $LN23@OnItemchan
$LN9@OnItemchan:
; File C:\Program Files (x86)\Microsoft Visual Studio\2019\Community\VC\Tools\MSVC\14.29.30133\atlmfc\include\afxtempl.h

; 290  : 	AfxThrowInvalidArgException();

  0013b	e8 00 00 00 00	 call	 ?AfxThrowInvalidArgException@@YGXXZ ; AfxThrowInvalidArgException
$LN22@OnItemchan:
  00140	cc		 int	 3
?OnItemchangedListGraph@CTabIndex@@IAEXPAUtagNMHDR@@PAJ@Z ENDP ; CTabIndex::OnItemchangedListGraph
_TEXT	ENDS
; Function compile flags: /Ogtp
; File D:\git\src\IBK\IBK_DRFN\ProjSrc\SrcDrfn\Chart\STCONFIGUREDLG\TabIndex.cpp
; File C:\Program Files (x86)\Microsoft Visual Studio\2019\Community\VC\Tools\MSVC\14.29.30133\atlmfc\include\afxtempl.h
; File D:\git\src\IBK\IBK_DRFN\ProjSrc\SrcDrfn\Chart\STCONFIGUREDLG\TabIndex.cpp
; File C:\Program Files (x86)\Microsoft Visual Studio\2019\Community\VC\Tools\MSVC\14.29.30133\atlmfc\include\afxtempl.h
; File D:\git\src\IBK\IBK_DRFN\ProjSrc\SrcDrfn\Chart\STCONFIGUREDLG\TabIndex.cpp
; File C:\Program Files (x86)\Microsoft Visual Studio\2019\Community\VC\Tools\MSVC\14.29.30133\atlmfc\include\afxtempl.h
; File D:\git\src\IBK\IBK_DRFN\ProjSrc\SrcDrfn\Chart\STCONFIGUREDLG\TabIndex.cpp
; File C:\Program Files (x86)\Microsoft Visual Studio\2019\Community\VC\Tools\MSVC\14.29.30133\atlmfc\include\afxtempl.h
; File D:\git\src\IBK\IBK_DRFN\ProjSrc\SrcDrfn\Chart\STCONFIGUREDLG\TabIndex.cpp
;	COMDAT ?OnBtnGraphClr@CTabIndex@@IAEXXZ
_TEXT	SEGMENT
_indexData$ = -20					; size = 20
?OnBtnGraphClr@CTabIndex@@IAEXXZ PROC			; CTabIndex::OnBtnGraphClr, COMDAT
; _this$ = ecx

; 542  : {

  00000	55		 push	 ebp
  00001	8b ec		 mov	 ebp, esp
  00003	83 ec 14	 sub	 esp, 20			; 00000014H
  00006	56		 push	 esi
  00007	57		 push	 edi
  00008	8b f9		 mov	 edi, ecx

; 543  : 	// TODO: Add your control notification handler code here
; 544  : 	OnBtnClr(m_btnGraphClr);

  0000a	8d 87 30 02 00
	00		 lea	 eax, DWORD PTR [edi+560]
  00010	50		 push	 eax
  00011	e8 00 00 00 00	 call	 ?OnBtnClr@CTabIndex@@AAEXAAVCColorButton@@@Z ; CTabIndex::OnBtnClr

; 545  : 	int nCurSel = m_listGraph.GetCurSel();

  00016	8d 8f c0 02 00
	00		 lea	 ecx, DWORD PTR [edi+704]
  0001c	e8 00 00 00 00	 call	 ?GetCurSel@CXListCtrl@@QAEHXZ ; CXListCtrl::GetCurSel
; File C:\Program Files (x86)\Microsoft Visual Studio\2019\Community\VC\Tools\MSVC\14.29.30133\atlmfc\include\afxtempl.h

; 288  : 	if(nIndex >= 0 && nIndex < m_nSize)

  00021	85 c0		 test	 eax, eax
  00023	78 38		 js	 SHORT $LN4@OnBtnGraph
  00025	3b 87 20 07 00
	00		 cmp	 eax, DWORD PTR [edi+1824]
  0002b	7d 30		 jge	 SHORT $LN4@OnBtnGraph

; 289  : 		return m_pData[nIndex];

  0002d	8b 97 1c 07 00
	00		 mov	 edx, DWORD PTR [edi+1820]
  00033	8d 34 80	 lea	 esi, DWORD PTR [eax+eax*4]
; File D:\git\src\IBK\IBK_DRFN\ProjSrc\SrcDrfn\Chart\STCONFIGUREDLG\TabIndex.cpp

; 547  : 	indexData.m_clrIndex = m_btnGraphClr.GetColor();

  00036	8b 87 b0 02 00
	00		 mov	 eax, DWORD PTR [edi+688]
; File C:\Program Files (x86)\Microsoft Visual Studio\2019\Community\VC\Tools\MSVC\14.29.30133\atlmfc\include\afxtempl.h

; 543  : 	m_pData[nIndex] = newElement;

  0003c	5f		 pop	 edi
; File D:\git\src\IBK\IBK_DRFN\ProjSrc\SrcDrfn\Chart\STCONFIGUREDLG\TabIndex.cpp

; 546  : 	CIndexData indexData = m_arrayIndexData.GetAt(nCurSel);	

  0003d	0f 10 04 b2	 movups	 xmm0, XMMWORD PTR [edx+esi*4]
  00041	8b 4c b2 10	 mov	 ecx, DWORD PTR [edx+esi*4+16]
  00045	0f 11 45 ec	 movups	 XMMWORD PTR _indexData$[ebp], xmm0

; 547  : 	indexData.m_clrIndex = m_btnGraphClr.GetColor();

  00049	89 45 ec	 mov	 DWORD PTR _indexData$[ebp], eax
; File C:\Program Files (x86)\Microsoft Visual Studio\2019\Community\VC\Tools\MSVC\14.29.30133\atlmfc\include\afxtempl.h

; 543  : 	m_pData[nIndex] = newElement;

  0004c	0f 10 45 ec	 movups	 xmm0, XMMWORD PTR _indexData$[ebp]
  00050	0f 11 04 b2	 movups	 XMMWORD PTR [edx+esi*4], xmm0
  00054	89 4c b2 10	 mov	 DWORD PTR [edx+esi*4+16], ecx
  00058	5e		 pop	 esi
; File D:\git\src\IBK\IBK_DRFN\ProjSrc\SrcDrfn\Chart\STCONFIGUREDLG\TabIndex.cpp

; 549  : }

  00059	8b e5		 mov	 esp, ebp
  0005b	5d		 pop	 ebp
  0005c	c3		 ret	 0
$LN4@OnBtnGraph:
; File C:\Program Files (x86)\Microsoft Visual Studio\2019\Community\VC\Tools\MSVC\14.29.30133\atlmfc\include\afxtempl.h

; 290  : 	AfxThrowInvalidArgException();

  0005d	e8 00 00 00 00	 call	 ?AfxThrowInvalidArgException@@YGXXZ ; AfxThrowInvalidArgException
$LN11@OnBtnGraph:
  00062	cc		 int	 3
?OnBtnGraphClr@CTabIndex@@IAEXXZ ENDP			; CTabIndex::OnBtnGraphClr
_TEXT	ENDS
; Function compile flags: /Ogtp
; File D:\git\src\IBK\IBK_DRFN\ProjSrc\SrcDrfn\Chart\STCONFIGUREDLG\TabIndex.cpp
;	COMDAT ?OnBtnCltBear@CTabIndex@@IAEXXZ
_TEXT	SEGMENT
?OnBtnCltBear@CTabIndex@@IAEXXZ PROC			; CTabIndex::OnBtnCltBear, COMDAT
; _this$ = ecx

; 132  : 	// TODO: Add your control notification handler code here
; 133  : 	OnBtnClr(m_btnClrBear);

  00000	8d 81 f8 05 00
	00		 lea	 eax, DWORD PTR [ecx+1528]
  00006	50		 push	 eax
  00007	e8 00 00 00 00	 call	 ?OnBtnClr@CTabIndex@@AAEXAAVCColorButton@@@Z ; CTabIndex::OnBtnClr

; 134  : }

  0000c	c3		 ret	 0
?OnBtnCltBear@CTabIndex@@IAEXXZ ENDP			; CTabIndex::OnBtnCltBear
_TEXT	ENDS
; Function compile flags: /Ogtp
; File D:\git\src\IBK\IBK_DRFN\ProjSrc\SrcDrfn\Chart\STCONFIGUREDLG\TabIndex.cpp
;	COMDAT ?OnBtnClrBull@CTabIndex@@IAEXXZ
_TEXT	SEGMENT
?OnBtnClrBull@CTabIndex@@IAEXXZ PROC			; CTabIndex::OnBtnClrBull, COMDAT
; _this$ = ecx

; 126  : 	// TODO: Add your control notification handler code here
; 127  : 	OnBtnClr(m_btnClrBull);

  00000	8d 81 88 06 00
	00		 lea	 eax, DWORD PTR [ecx+1672]
  00006	50		 push	 eax
  00007	e8 00 00 00 00	 call	 ?OnBtnClr@CTabIndex@@AAEXAAVCColorButton@@@Z ; CTabIndex::OnBtnClr

; 128  : }

  0000c	c3		 ret	 0
?OnBtnClrBull@CTabIndex@@IAEXXZ ENDP			; CTabIndex::OnBtnClrBull
_TEXT	ENDS
; Function compile flags: /Ogtp
; File D:\git\src\IBK\IBK_DRFN\ProjSrc\SrcDrfn\Chart\STCONFIGUREDLG\TabIndex.cpp
; File C:\Program Files (x86)\Microsoft Visual Studio\2019\Community\VC\Tools\MSVC\14.29.30133\atlmfc\include\afxcmn2.inl
; File D:\git\src\IBK\IBK_DRFN\ProjSrc\SrcDrfn\Chart\STCONFIGUREDLG\TabIndex.cpp
; File C:\Program Files (x86)\Microsoft Visual Studio\2019\Community\VC\Tools\MSVC\14.29.30133\atlmfc\include\afxcmn2.inl
; File D:\git\src\IBK\IBK_DRFN\ProjSrc\SrcDrfn\Chart\STCONFIGUREDLG\TabIndex.cpp
; File C:\Program Files (x86)\Microsoft Visual Studio\2019\Community\VC\Tools\MSVC\14.29.30133\atlmfc\include\afxcmn2.inl
; File D:\git\src\IBK\IBK_DRFN\ProjSrc\SrcDrfn\Chart\STCONFIGUREDLG\TabIndex.cpp
; File C:\Program Files (x86)\Microsoft Visual Studio\2019\Community\VC\Tools\MSVC\14.29.30133\atlmfc\include\afxcmn.inl
; File D:\git\src\IBK\IBK_DRFN\ProjSrc\SrcDrfn\Chart\STCONFIGUREDLG\TabIndex.cpp
; File C:\Program Files (x86)\Microsoft Visual Studio\2019\Community\VC\Tools\MSVC\14.29.30133\atlmfc\include\afxcmn.inl
; File D:\git\src\IBK\IBK_DRFN\ProjSrc\SrcDrfn\Chart\STCONFIGUREDLG\TabIndex.cpp
; File D:\git\src\IBK\IBK_DRFN\ProjSrc\SrcDrfn\Chart\STCONFIGUREDLG\Control\XListCtrl.h
; File D:\git\src\IBK\IBK_DRFN\ProjSrc\SrcDrfn\Chart\STCONFIGUREDLG\TabIndex.cpp
; File C:\Program Files (x86)\Microsoft Visual Studio\2019\Community\VC\Tools\MSVC\14.29.30133\atlmfc\include\afxwin2.inl
; File D:\git\src\IBK\IBK_DRFN\ProjSrc\SrcDrfn\Chart\STCONFIGUREDLG\TabIndex.cpp
; File C:\Program Files (x86)\Microsoft Visual Studio\2019\Community\VC\Tools\MSVC\14.29.30133\atlmfc\include\atlsimpstr.h
; File D:\git\src\IBK\IBK_DRFN\ProjSrc\SrcDrfn\Chart\STCONFIGUREDLG\TabIndex.cpp
; File C:\Program Files (x86)\Microsoft Visual Studio\2019\Community\VC\Tools\MSVC\14.29.30133\atlmfc\include\afxwin2.inl
; File D:\git\src\IBK\IBK_DRFN\ProjSrc\SrcDrfn\Chart\STCONFIGUREDLG\TabIndex.cpp
;	COMDAT ?OnInitDialog@CTabIndex@@MAEHXZ
_TEXT	SEGMENT
_lvcolumn$2 = -96					; size = 44
_lpszHeadersType0$3 = -52				; size = 8
_pSTControllerCfg$1$ = -44				; size = 4
_strSTNamePath$4 = -44					; size = 4
_colwidthsType0$5 = -40					; size = 24
__$ArrayPad$ = -16					; size = 4
__$EHRec$ = -12						; size = 12
?OnInitDialog@CTabIndex@@MAEHXZ PROC			; CTabIndex::OnInitDialog, COMDAT
; _this$ = ecx

; 65   : {

  00000	55		 push	 ebp
  00001	8b ec		 mov	 ebp, esp
  00003	6a ff		 push	 -1
  00005	68 00 00 00 00	 push	 __ehhandler$?OnInitDialog@CTabIndex@@MAEHXZ
  0000a	64 a1 00 00 00
	00		 mov	 eax, DWORD PTR fs:0
  00010	50		 push	 eax
  00011	83 ec 54	 sub	 esp, 84			; 00000054H
  00014	a1 00 00 00 00	 mov	 eax, DWORD PTR ___security_cookie
  00019	33 c5		 xor	 eax, ebp
  0001b	89 45 f0	 mov	 DWORD PTR __$ArrayPad$[ebp], eax
  0001e	56		 push	 esi
  0001f	57		 push	 edi
  00020	50		 push	 eax
  00021	8d 45 f4	 lea	 eax, DWORD PTR __$EHRec$[ebp]
  00024	64 a3 00 00 00
	00		 mov	 DWORD PTR fs:0, eax
  0002a	8b f9		 mov	 edi, ecx

; 66   : 	CRscDlg::OnInitDialog();

  0002c	e8 00 00 00 00	 call	 ?OnInitDialog@CDialog@@UAEHXZ ; CDialog::OnInitDialog

; 69   : 	CISTControllerD *pSTControllerCfg = ((CDlgSTOption*)m_pDlgSTOption)->GetISTControllerD();

  00031	8b 87 34 07 00
	00		 mov	 eax, DWORD PTR [edi+1844]
  00037	0f 57 c0	 xorps	 xmm0, xmm0
; File C:\Program Files (x86)\Microsoft Visual Studio\2019\Community\VC\Tools\MSVC\14.29.30133\atlmfc\include\afxcmn2.inl

; 117  : 	{ ASSERT(::IsWindow(m_hWnd)); return (DWORD) ::SendMessage(m_hWnd, LVM_SETEXTENDEDLISTVIEWSTYLE, 0, (LPARAM) dwNewStyle); }

  0003a	6a 20		 push	 32			; 00000020H
  0003c	6a 00		 push	 0
  0003e	68 36 10 00 00	 push	 4150			; 00001036H
; File D:\git\src\IBK\IBK_DRFN\ProjSrc\SrcDrfn\Chart\STCONFIGUREDLG\TabIndex.cpp

; 69   : 	CISTControllerD *pSTControllerCfg = ((CDlgSTOption*)m_pDlgSTOption)->GetISTControllerD();

  00043	8b 80 bc 04 00
	00		 mov	 eax, DWORD PTR [eax+1212]
; File C:\Program Files (x86)\Microsoft Visual Studio\2019\Community\VC\Tools\MSVC\14.29.30133\atlmfc\include\afxcmn2.inl

; 117  : 	{ ASSERT(::IsWindow(m_hWnd)); return (DWORD) ::SendMessage(m_hWnd, LVM_SETEXTENDEDLISTVIEWSTYLE, 0, (LPARAM) dwNewStyle); }

  00049	ff b7 e0 02 00
	00		 push	 DWORD PTR [edi+736]
; File D:\git\src\IBK\IBK_DRFN\ProjSrc\SrcDrfn\Chart\STCONFIGUREDLG\TabIndex.cpp

; 69   : 	CISTControllerD *pSTControllerCfg = ((CDlgSTOption*)m_pDlgSTOption)->GetISTControllerD();

  0004f	89 45 d4	 mov	 DWORD PTR _pSTControllerCfg$1$[ebp], eax

; 409  : 	int colwidthsType0[6] = { 140};	// sixty-fourths

  00052	c7 45 d8 8c 00
	00 00		 mov	 DWORD PTR _colwidthsType0$5[ebp], 140 ; 0000008cH
  00059	0f 11 45 dc	 movups	 XMMWORD PTR _colwidthsType0$5[ebp+4], xmm0
  0005d	c7 45 ec 00 00
	00 00		 mov	 DWORD PTR _colwidthsType0$5[ebp+20], 0

; 410  : 
; 411  : 	TCHAR *	lpszHeadersType0[] = {
; 412  : 							  _T(""),

  00064	c7 45 cc 00 00
	00 00		 mov	 DWORD PTR _lpszHeadersType0$3[ebp], OFFSET ??_C@_06MKCPLBEP@?A?v?G?$KF?$LI?m@

; 413  : 							  NULL };

  0006b	c7 45 d0 00 00
	00 00		 mov	 DWORD PTR _lpszHeadersType0$3[ebp+4], 0
; File C:\Program Files (x86)\Microsoft Visual Studio\2019\Community\VC\Tools\MSVC\14.29.30133\atlmfc\include\afxcmn2.inl

; 117  : 	{ ASSERT(::IsWindow(m_hWnd)); return (DWORD) ::SendMessage(m_hWnd, LVM_SETEXTENDEDLISTVIEWSTYLE, 0, (LPARAM) dwNewStyle); }

  00072	ff 15 00 00 00
	00		 call	 DWORD PTR __imp__SendMessageA@16
  00078	0f 57 c0	 xorps	 xmm0, xmm0
; File D:\git\src\IBK\IBK_DRFN\ProjSrc\SrcDrfn\Chart\STCONFIGUREDLG\TabIndex.cpp

; 419  : 	memset(&lvcolumn, 0, sizeof(lvcolumn));

  0007b	c7 45 b0 00 00
	00 00		 mov	 DWORD PTR _lvcolumn$2[ebp+16], 0

; 421  : 	for (i = 0; ; i++)

  00082	33 f6		 xor	 esi, esi
  00084	66 0f 13 45 b8	 movlpd	 QWORD PTR _lvcolumn$2[ebp+24], xmm0
  00089	66 0f 13 45 c0	 movlpd	 QWORD PTR _lvcolumn$2[ebp+32], xmm0
  0008e	b9 00 00 00 00	 mov	 ecx, OFFSET ??_C@_06MKCPLBEP@?A?v?G?$KF?$LI?m@

; 419  : 	memset(&lvcolumn, 0, sizeof(lvcolumn));

  00093	c7 45 c8 00 00
	00 00		 mov	 DWORD PTR _lvcolumn$2[ebp+40], 0
  0009a	33 d2		 xor	 edx, edx
  0009c	0f 1f 40 00	 npad	 4
$LL10@OnInitDial:

; 424  : 			break;
; 425  : 		lvcolumn.mask = LVCF_FMT | LVCF_SUBITEM | LVCF_TEXT | LVCF_WIDTH;
; 426  : 		lvcolumn.fmt = i>1 ? LVCFMT_RIGHT:LVCFMT_LEFT;

  000a0	33 c0		 xor	 eax, eax
  000a2	c7 45 a0 0f 00
	00 00		 mov	 DWORD PTR _lvcolumn$2[ebp], 15 ; 0000000fH
  000a9	83 fe 01	 cmp	 esi, 1

; 427  : 		lvcolumn.pszText = lpszHeadersType0[i];

  000ac	89 4d ac	 mov	 DWORD PTR _lvcolumn$2[ebp+12], ecx

; 428  : 		lvcolumn.iSubItem = i;

  000af	89 75 b4	 mov	 DWORD PTR _lvcolumn$2[ebp+20], esi
  000b2	0f 9f c0	 setg	 al
  000b5	89 45 a4	 mov	 DWORD PTR _lvcolumn$2[ebp+4], eax

; 429  : 		lvcolumn.cx = colwidthsType0[i];

  000b8	8b 44 15 d8	 mov	 eax, DWORD PTR _colwidthsType0$5[ebp+edx]
  000bc	89 45 a8	 mov	 DWORD PTR _lvcolumn$2[ebp+8], eax
; File C:\Program Files (x86)\Microsoft Visual Studio\2019\Community\VC\Tools\MSVC\14.29.30133\atlmfc\include\afxcmn.inl

; 209  : 	{ ASSERT(::IsWindow(m_hWnd)); return (int) ::SendMessage(m_hWnd, LVM_INSERTCOLUMN, nCol, (LPARAM)pColumn); }

  000bf	8d 45 a0	 lea	 eax, DWORD PTR _lvcolumn$2[ebp]
  000c2	50		 push	 eax
  000c3	56		 push	 esi
  000c4	68 1b 10 00 00	 push	 4123			; 0000101bH
  000c9	ff b7 e0 02 00
	00		 push	 DWORD PTR [edi+736]
  000cf	ff 15 00 00 00
	00		 call	 DWORD PTR __imp__SendMessageA@16
; File D:\git\src\IBK\IBK_DRFN\ProjSrc\SrcDrfn\Chart\STCONFIGUREDLG\TabIndex.cpp

; 421  : 	for (i = 0; ; i++)

  000d5	46		 inc	 esi

; 422  : 	{
; 423  : 		if (lpszHeadersType0[i] == NULL)

  000d6	8d 14 b5 00 00
	00 00		 lea	 edx, DWORD PTR [esi*4]
  000dd	8b 4c 15 cc	 mov	 ecx, DWORD PTR _lpszHeadersType0$3[ebp+edx]
  000e1	85 c9		 test	 ecx, ecx
  000e3	75 bb		 jne	 SHORT $LL10@OnInitDial
  000e5	0f 57 c0	 xorps	 xmm0, xmm0

; 430  : 		total_cx += lvcolumn.cx;
; 431  : 		m_listGraph.InsertColumn(i, &lvcolumn);
; 432  : 	}
; 433  : 	// iterate through header items and attach the image list
; 434  : 	memset(&lvcolumn, 0, sizeof(lvcolumn));

  000e8	89 4d b0	 mov	 DWORD PTR _lvcolumn$2[ebp+16], ecx
  000eb	66 0f 13 45 a8	 movlpd	 QWORD PTR _lvcolumn$2[ebp+8], xmm0

; 436  : 	for (i = 0; ; i++)

  000f0	33 f6		 xor	 esi, esi
  000f2	66 0f 13 45 b8	 movlpd	 QWORD PTR _lvcolumn$2[ebp+24], xmm0
  000f7	66 0f 13 45 c0	 movlpd	 QWORD PTR _lvcolumn$2[ebp+32], xmm0
  000fc	89 4d c8	 mov	 DWORD PTR _lvcolumn$2[ebp+40], ecx
  000ff	90		 npad	 1
$LL13@OnInitDial:

; 439  : 			break;
; 440  : 		lvcolumn.mask = LVCF_FMT | LVCF_SUBITEM;
; 441  : 		lvcolumn.fmt = i>1 ? LVCFMT_RIGHT:LVCFMT_LEFT;

  00100	33 c0		 xor	 eax, eax
  00102	c7 45 a0 09 00
	00 00		 mov	 DWORD PTR _lvcolumn$2[ebp], 9
  00109	83 fe 01	 cmp	 esi, 1

; 442  : 		lvcolumn.iSubItem = i;

  0010c	89 75 b4	 mov	 DWORD PTR _lvcolumn$2[ebp+20], esi
  0010f	0f 9f c0	 setg	 al
  00112	89 45 a4	 mov	 DWORD PTR _lvcolumn$2[ebp+4], eax
; File C:\Program Files (x86)\Microsoft Visual Studio\2019\Community\VC\Tools\MSVC\14.29.30133\atlmfc\include\afxcmn.inl

; 207  : 	{ ASSERT(::IsWindow(m_hWnd)); return (BOOL) ::SendMessage(m_hWnd, LVM_SETCOLUMN, nCol, (LPARAM)pColumn); }

  00115	8d 45 a0	 lea	 eax, DWORD PTR _lvcolumn$2[ebp]
  00118	50		 push	 eax
  00119	56		 push	 esi
  0011a	68 1a 10 00 00	 push	 4122			; 0000101aH
  0011f	ff b7 e0 02 00
	00		 push	 DWORD PTR [edi+736]
  00125	ff 15 00 00 00
	00		 call	 DWORD PTR __imp__SendMessageA@16
; File D:\git\src\IBK\IBK_DRFN\ProjSrc\SrcDrfn\Chart\STCONFIGUREDLG\TabIndex.cpp

; 436  : 	for (i = 0; ; i++)

  0012b	46		 inc	 esi

; 437  : 	{
; 438  : 		if (lpszHeadersType0[i] == NULL)

  0012c	83 7c b5 cc 00	 cmp	 DWORD PTR _lpszHeadersType0$3[ebp+esi*4], 0
  00131	75 cd		 jne	 SHORT $LL13@OnInitDial

; 71   : 	InitComboBox();

  00133	8b cf		 mov	 ecx, edi
; File D:\git\src\IBK\IBK_DRFN\ProjSrc\SrcDrfn\Chart\STCONFIGUREDLG\Control\XListCtrl.h

; 176  : 		m_crHighLightText = m_crUsrHighLightText = crText;

  00135	c7 87 50 04 00
	00 00 00 00 00	 mov	 DWORD PTR [edi+1104], 0
  0013f	c7 87 40 04 00
	00 00 00 00 00	 mov	 DWORD PTR [edi+1088], 0

; 177  : 		m_crHighLight = m_crUsrHighLight = crBackground;

  00149	c7 87 4c 04 00
	00 d0 dd f0 00	 mov	 DWORD PTR [edi+1100], 15785424 ; 00f0ddd0H
  00153	c7 87 3c 04 00
	00 d0 dd f0 00	 mov	 DWORD PTR [edi+1084], 15785424 ; 00f0ddd0H
; File D:\git\src\IBK\IBK_DRFN\ProjSrc\SrcDrfn\Chart\STCONFIGUREDLG\TabIndex.cpp

; 71   : 	InitComboBox();

  0015d	e8 00 00 00 00	 call	 ?InitComboBox@CTabIndex@@AAEXXZ ; CTabIndex::InitComboBox

; 72   : 	if(!pSTControllerCfg)

  00162	8b 4d d4	 mov	 ecx, DWORD PTR _pSTControllerCfg$1$[ebp]
  00165	85 c9		 test	 ecx, ecx
  00167	75 23		 jne	 SHORT $LN2@OnInitDial
; File C:\Program Files (x86)\Microsoft Visual Studio\2019\Community\VC\Tools\MSVC\14.29.30133\atlmfc\include\afxwin2.inl

; 630  : 	{ ASSERT(::IsWindow(m_hWnd)); ::SendMessage(m_hWnd, BM_SETCHECK, nCheck, 0); }

  00169	51		 push	 ecx
  0016a	6a 01		 push	 1
  0016c	68 f1 00 00 00	 push	 241			; 000000f1H
  00171	ff b7 d0 01 00
	00		 push	 DWORD PTR [edi+464]
  00177	ff 15 00 00 00
	00		 call	 DWORD PTR __imp__SendMessageA@16
; File D:\git\src\IBK\IBK_DRFN\ProjSrc\SrcDrfn\Chart\STCONFIGUREDLG\TabIndex.cpp

; 75   : 		m_chkSaveAsDefault.EnableWindow(FALSE);

  0017d	6a 00		 push	 0
  0017f	8d 8f b0 01 00
	00		 lea	 ecx, DWORD PTR [edi+432]
  00185	e8 00 00 00 00	 call	 ?EnableWindow@CWnd@@QAEHH@Z ; CWnd::EnableWindow

; 76   : 	}

  0018a	eb 4e		 jmp	 SHORT $LN3@OnInitDial
$LN2@OnInitDial:

; 79   : 		CString strSTNamePath = pSTControllerCfg->GetSTNamePath();

  0018c	8b 01		 mov	 eax, DWORD PTR [ecx]
  0018e	8d 55 d4	 lea	 edx, DWORD PTR _strSTNamePath$4[ebp]
  00191	52		 push	 edx
  00192	ff 90 24 01 00
	00		 call	 DWORD PTR [eax+292]
; File C:\Program Files (x86)\Microsoft Visual Studio\2019\Community\VC\Tools\MSVC\14.29.30133\atlmfc\include\atlsimpstr.h

; 519  : 		return( GetData()->nDataLength );

  00198	8b 45 d4	 mov	 eax, DWORD PTR _strSTNamePath$4[ebp]
; File D:\git\src\IBK\IBK_DRFN\ProjSrc\SrcDrfn\Chart\STCONFIGUREDLG\TabIndex.cpp

; 79   : 		CString strSTNamePath = pSTControllerCfg->GetSTNamePath();

  0019b	c7 45 fc 00 00
	00 00		 mov	 DWORD PTR __$EHRec$[ebp+8], 0

; 80   : 		if(!strSTNamePath.GetLength())

  001a2	83 78 f4 00	 cmp	 DWORD PTR [eax-12], 0
  001a6	75 22		 jne	 SHORT $LN4@OnInitDial
; File C:\Program Files (x86)\Microsoft Visual Studio\2019\Community\VC\Tools\MSVC\14.29.30133\atlmfc\include\afxwin2.inl

; 630  : 	{ ASSERT(::IsWindow(m_hWnd)); ::SendMessage(m_hWnd, BM_SETCHECK, nCheck, 0); }

  001a8	6a 00		 push	 0
  001aa	6a 01		 push	 1
  001ac	68 f1 00 00 00	 push	 241			; 000000f1H
  001b1	ff b7 d0 01 00
	00		 push	 DWORD PTR [edi+464]
  001b7	ff 15 00 00 00
	00		 call	 DWORD PTR __imp__SendMessageA@16
; File D:\git\src\IBK\IBK_DRFN\ProjSrc\SrcDrfn\Chart\STCONFIGUREDLG\TabIndex.cpp

; 83   : 			m_chkSaveAsDefault.EnableWindow(FALSE);

  001bd	6a 00		 push	 0
  001bf	8d 8f b0 01 00
	00		 lea	 ecx, DWORD PTR [edi+432]
  001c5	e8 00 00 00 00	 call	 ?EnableWindow@CWnd@@QAEHH@Z ; CWnd::EnableWindow
$LN4@OnInitDial:

; 84   : 		}
; 85   : 	}

  001ca	8d 4d d4	 lea	 ecx, DWORD PTR _strSTNamePath$4[ebp]
  001cd	c7 45 fc ff ff
	ff ff		 mov	 DWORD PTR __$EHRec$[ebp+8], -1
  001d4	ff 15 00 00 00
	00		 call	 DWORD PTR __imp_??1?$CStringT@DV?$StrTraitMFC_DLL@DV?$ChTraitsCRT@D@ATL@@@@@ATL@@QAE@XZ
$LN3@OnInitDial:

; 86   : 	LoadInfo();

  001da	8b 07		 mov	 eax, DWORD PTR [edi]
  001dc	8b cf		 mov	 ecx, edi
  001de	ff 90 94 01 00
	00		 call	 DWORD PTR [eax+404]

; 87   : 	return TRUE;  // return TRUE unless you set the focus to a control

  001e4	b8 01 00 00 00	 mov	 eax, 1

; 88   : 	              // EXCEPTION: OCX Property Pages should return FALSE
; 89   : }

  001e9	8b 4d f4	 mov	 ecx, DWORD PTR __$EHRec$[ebp]
  001ec	64 89 0d 00 00
	00 00		 mov	 DWORD PTR fs:0, ecx
  001f3	59		 pop	 ecx
  001f4	5f		 pop	 edi
  001f5	5e		 pop	 esi
  001f6	8b 4d f0	 mov	 ecx, DWORD PTR __$ArrayPad$[ebp]
  001f9	33 cd		 xor	 ecx, ebp
  001fb	e8 00 00 00 00	 call	 @__security_check_cookie@4
  00200	8b e5		 mov	 esp, ebp
  00202	5d		 pop	 ebp
  00203	c3		 ret	 0
_TEXT	ENDS
;	COMDAT text$x
text$x	SEGMENT
__unwindfunclet$?OnInitDialog@CTabIndex@@MAEHXZ$0:
  00000	8d 4d d4	 lea	 ecx, DWORD PTR _strSTNamePath$4[ebp]
  00003	ff 25 00 00 00
	00		 jmp	 DWORD PTR __imp_??1?$CStringT@DV?$StrTraitMFC_DLL@DV?$ChTraitsCRT@D@ATL@@@@@ATL@@QAE@XZ
  00009	cc		 int	 3
  0000a	cc		 int	 3
  0000b	cc		 int	 3
  0000c	cc		 int	 3
  0000d	cc		 int	 3
__ehhandler$?OnInitDialog@CTabIndex@@MAEHXZ:
  0000e	90		 npad	 1
  0000f	90		 npad	 1
  00010	8b 54 24 08	 mov	 edx, DWORD PTR [esp+8]
  00014	8d 42 0c	 lea	 eax, DWORD PTR [edx+12]
  00017	8b 4a a0	 mov	 ecx, DWORD PTR [edx-96]
  0001a	33 c8		 xor	 ecx, eax
  0001c	e8 00 00 00 00	 call	 @__security_check_cookie@4
  00021	8b 4a fc	 mov	 ecx, DWORD PTR [edx-4]
  00024	33 c8		 xor	 ecx, eax
  00026	e8 00 00 00 00	 call	 @__security_check_cookie@4
  0002b	b8 00 00 00 00	 mov	 eax, OFFSET __ehfuncinfo$?OnInitDialog@CTabIndex@@MAEHXZ
  00030	e9 00 00 00 00	 jmp	 ___CxxFrameHandler3
text$x	ENDS
?OnInitDialog@CTabIndex@@MAEHXZ ENDP			; CTabIndex::OnInitDialog
; Function compile flags: /Ogtp
; File D:\git\src\IBK\IBK_DRFN\ProjSrc\SrcDrfn\Chart\STCONFIGUREDLG\TabIndex.cpp
;	COMDAT ?WindowProc@CTabIndex@@MAEJIIJ@Z
_TEXT	SEGMENT
_message$ = 8						; size = 4
_wParam$ = 12						; size = 4
_lParam$ = 16						; size = 4
?WindowProc@CTabIndex@@MAEJIIJ@Z PROC			; CTabIndex::WindowProc, COMDAT
; _this$ = ecx

; 138  : {

  00000	55		 push	 ebp
  00001	8b ec		 mov	 ebp, esp

; 139  : 	// TODO: Add your specialized code here and/or call the base class
; 140  : 	switch(message)

  00003	8b 45 08	 mov	 eax, DWORD PTR _message$[ebp]
  00006	56		 push	 esi
  00007	8b f1		 mov	 esi, ecx
  00009	2d 03 04 00 00	 sub	 eax, 1027		; 00000403H
  0000e	74 22		 je	 SHORT $LN4@WindowProc
  00010	83 e8 01	 sub	 eax, 1
  00013	75 08		 jne	 SHORT $LN2@WindowProc

; 145  : 		}		
; 146  : 		break;
; 147  : 	case UMSG_ST_REMOVE_ENV:
; 148  : 		{
; 149  : 			RemoveInfo();

  00015	8b 06		 mov	 eax, DWORD PTR [esi]
  00017	ff 90 9c 01 00
	00		 call	 DWORD PTR [eax+412]
$LN2@WindowProc:

; 150  : 		}
; 151  : 		break;
; 152  : 	}	
; 153  : 	return CRscDlg::WindowProc(message, wParam, lParam);

  0001d	ff 75 10	 push	 DWORD PTR _lParam$[ebp]
  00020	8b ce		 mov	 ecx, esi
  00022	ff 75 0c	 push	 DWORD PTR _wParam$[ebp]
  00025	ff 75 08	 push	 DWORD PTR _message$[ebp]
  00028	e8 00 00 00 00	 call	 ?WindowProc@CWnd@@MAEJIIJ@Z ; CWnd::WindowProc
  0002d	5e		 pop	 esi

; 154  : }

  0002e	5d		 pop	 ebp
  0002f	c2 0c 00	 ret	 12			; 0000000cH
$LN4@WindowProc:

; 141  : 	{
; 142  : 	case UMSG_ST_SAVE_ENV:
; 143  : 		{
; 144  : 			return SaveInfo();

  00032	8b 06		 mov	 eax, DWORD PTR [esi]
  00034	ff 90 98 01 00
	00		 call	 DWORD PTR [eax+408]
  0003a	5e		 pop	 esi

; 154  : }

  0003b	5d		 pop	 ebp
  0003c	c2 0c 00	 ret	 12			; 0000000cH
?WindowProc@CTabIndex@@MAEJIIJ@Z ENDP			; CTabIndex::WindowProc
_TEXT	ENDS
; Function compile flags: /Ogtp
; File D:\git\src\IBK\IBK_DRFN\ProjSrc\SrcDrfn\Chart\STCONFIGUREDLG\TabIndex.cpp
;	COMDAT ?DoDataExchange@CTabIndex@@MAEXPAVCDataExchange@@@Z
_TEXT	SEGMENT
_pDX$ = 8						; size = 4
?DoDataExchange@CTabIndex@@MAEXPAVCDataExchange@@@Z PROC ; CTabIndex::DoDataExchange, COMDAT
; _this$ = ecx

; 32   : {

  00000	55		 push	 ebp
  00001	8b ec		 mov	 ebp, esp
  00003	56		 push	 esi
  00004	57		 push	 edi

; 33   : 	CRscDlg::DoDataExchange(pDX);

  00005	8b 7d 08	 mov	 edi, DWORD PTR _pDX$[ebp]
  00008	8b f1		 mov	 esi, ecx
  0000a	57		 push	 edi
  0000b	e8 00 00 00 00	 call	 ?DoDataExchange@CRscDlg@@MAEXPAVCDataExchange@@@Z ; CRscDlg::DoDataExchange

; 34   : 	//{{AFX_DATA_MAP(CTabIndex)
; 35   : 	DDX_Control(pDX, IDC_ST_THICK, m_stThick);

  00010	8d 86 b0 00 00
	00		 lea	 eax, DWORD PTR [esi+176]
  00016	50		 push	 eax
  00017	68 4e 71 00 00	 push	 29006			; 0000714eH
  0001c	57		 push	 edi
  0001d	e8 00 00 00 00	 call	 ?DDX_Control@@YGXPAVCDataExchange@@HAAVCWnd@@@Z ; DDX_Control

; 36   : 	DDX_Control(pDX, IDC_ST_SHAPE, m_stShape);

  00022	8d 86 30 01 00
	00		 lea	 eax, DWORD PTR [esi+304]
  00028	50		 push	 eax
  00029	68 4d 71 00 00	 push	 29005			; 0000714dH
  0002e	57		 push	 edi
  0002f	e8 00 00 00 00	 call	 ?DDX_Control@@YGXPAVCDataExchange@@HAAVCWnd@@@Z ; DDX_Control

; 37   : 	DDX_Control(pDX, IDC_CHK_SAVEASDEFAULT, m_chkSaveAsDefault);

  00034	8d 86 b0 01 00
	00		 lea	 eax, DWORD PTR [esi+432]
  0003a	50		 push	 eax
  0003b	68 27 52 00 00	 push	 21031			; 00005227H
  00040	57		 push	 edi
  00041	e8 00 00 00 00	 call	 ?DDX_Control@@YGXPAVCDataExchange@@HAAVCWnd@@@Z ; DDX_Control

; 38   : 	DDX_Control(pDX, IDC_BTN_GRAPH_CLR, m_btnGraphClr);

  00046	8d 86 30 02 00
	00		 lea	 eax, DWORD PTR [esi+560]
  0004c	50		 push	 eax
  0004d	68 24 52 00 00	 push	 21028			; 00005224H
  00052	57		 push	 edi
  00053	e8 00 00 00 00	 call	 ?DDX_Control@@YGXPAVCDataExchange@@HAAVCWnd@@@Z ; DDX_Control

; 39   : 	DDX_Control(pDX, IDC_LIST_GRAPH, m_listGraph);

  00058	8d 86 c0 02 00
	00		 lea	 eax, DWORD PTR [esi+704]
  0005e	50		 push	 eax
  0005f	68 1f 52 00 00	 push	 21023			; 0000521fH
  00064	57		 push	 edi
  00065	e8 00 00 00 00	 call	 ?DDX_Control@@YGXPAVCDataExchange@@HAAVCWnd@@@Z ; DDX_Control

; 40   : 	DDX_Control(pDX, IDC_CB_GRAPH_TYPE, m_cbGraphType);

  0006a	8d 86 68 04 00
	00		 lea	 eax, DWORD PTR [esi+1128]
  00070	50		 push	 eax
  00071	68 23 52 00 00	 push	 21027			; 00005223H
  00076	57		 push	 edi
  00077	e8 00 00 00 00	 call	 ?DDX_Control@@YGXPAVCDataExchange@@HAAVCWnd@@@Z ; DDX_Control

; 41   : 	DDX_Control(pDX, IDC_CB_GRAPH_THICK, m_cbGraphThick);

  0007c	8d 86 e8 04 00
	00		 lea	 eax, DWORD PTR [esi+1256]
  00082	50		 push	 eax
  00083	68 22 52 00 00	 push	 21026			; 00005222H
  00088	57		 push	 edi
  00089	e8 00 00 00 00	 call	 ?DDX_Control@@YGXPAVCDataExchange@@HAAVCWnd@@@Z ; DDX_Control

; 42   : 	DDX_Control(pDX, IDC_CB_GRAPH_SHAPE, m_cbGraphShape);

  0008e	8d 86 70 05 00
	00		 lea	 eax, DWORD PTR [esi+1392]
  00094	50		 push	 eax
  00095	68 21 52 00 00	 push	 21025			; 00005221H
  0009a	57		 push	 edi
  0009b	e8 00 00 00 00	 call	 ?DDX_Control@@YGXPAVCDataExchange@@HAAVCWnd@@@Z ; DDX_Control

; 43   : 	DDX_Control(pDX, IDC_BTN_CLT_BEAR, m_btnClrBear);

  000a0	8d 86 f8 05 00
	00		 lea	 eax, DWORD PTR [esi+1528]
  000a6	50		 push	 eax
  000a7	68 17 52 00 00	 push	 21015			; 00005217H
  000ac	57		 push	 edi
  000ad	e8 00 00 00 00	 call	 ?DDX_Control@@YGXPAVCDataExchange@@HAAVCWnd@@@Z ; DDX_Control

; 44   : 	DDX_Control(pDX, IDC_BTN_CLR_BULL, m_btnClrBull);

  000b2	8d 86 88 06 00
	00		 lea	 eax, DWORD PTR [esi+1672]
  000b8	50		 push	 eax
  000b9	68 16 52 00 00	 push	 21014			; 00005216H
  000be	57		 push	 edi
  000bf	e8 00 00 00 00	 call	 ?DDX_Control@@YGXPAVCDataExchange@@HAAVCWnd@@@Z ; DDX_Control
  000c4	5f		 pop	 edi
  000c5	5e		 pop	 esi

; 45   : 	//}}AFX_DATA_MAP
; 46   : }

  000c6	5d		 pop	 ebp
  000c7	c2 04 00	 ret	 4
?DoDataExchange@CTabIndex@@MAEXPAVCDataExchange@@@Z ENDP ; CTabIndex::DoDataExchange
_TEXT	ENDS
; Function compile flags: /Ogtp
; File C:\Program Files (x86)\Microsoft Visual Studio\2019\Community\VC\Tools\MSVC\14.29.30133\atlmfc\include\afxtempl.h
; File C:\Program Files (x86)\Microsoft Visual Studio\2019\Community\VC\Tools\MSVC\14.29.30133\atlmfc\include\afx.inl
;	COMDAT ??_G?$CArray@VCIndexData@@V1@@@UAEPAXI@Z
_TEXT	SEGMENT
___flags$ = 8						; size = 4
??_G?$CArray@VCIndexData@@V1@@@UAEPAXI@Z PROC		; CArray<CIndexData,CIndexData>::`scalar deleting destructor', COMDAT
; _this$ = ecx
  00000	55		 push	 ebp
  00001	8b ec		 mov	 ebp, esp
; File C:\Program Files (x86)\Microsoft Visual Studio\2019\Community\VC\Tools\MSVC\14.29.30133\atlmfc\include\afxtempl.h

; 355  : {

  00003	56		 push	 esi
  00004	8b f1		 mov	 esi, ecx

; 356  : 	ASSERT_VALID(this);
; 357  : 
; 358  : 	if (m_pData != NULL)

  00006	8b 46 04	 mov	 eax, DWORD PTR [esi+4]
  00009	c7 06 00 00 00
	00		 mov	 DWORD PTR [esi], OFFSET ??_7?$CArray@VCIndexData@@V1@@@6B@
  0000f	85 c0		 test	 eax, eax
  00011	74 09		 je	 SHORT $LN11@scalar

; 359  : 	{
; 360  : 		for( int i = 0; i < m_nSize; i++ )
; 361  : 			(m_pData + i)->~TYPE();
; 362  : 		delete[] (BYTE*)m_pData;

  00013	50		 push	 eax
  00014	e8 00 00 00 00	 call	 ??_V@YAXPAX@Z		; operator delete[]
  00019	83 c4 04	 add	 esp, 4
$LN11@scalar:
  0001c	8b 45 08	 mov	 eax, DWORD PTR ___flags$[ebp]
  0001f	a8 01		 test	 al, 1
  00021	74 1f		 je	 SHORT $LN20@scalar
  00023	a8 04		 test	 al, 4
  00025	75 10		 jne	 SHORT $LN3@scalar
; File C:\Program Files (x86)\Microsoft Visual Studio\2019\Community\VC\Tools\MSVC\14.29.30133\atlmfc\include\afx.inl

; 112  : 	{ ::operator delete(p); }

  00027	56		 push	 esi
  00028	e8 00 00 00 00	 call	 ??3@YAXPAX@Z		; operator delete
  0002d	83 c4 04	 add	 esp, 4
  00030	8b c6		 mov	 eax, esi
  00032	5e		 pop	 esi
  00033	5d		 pop	 ebp
  00034	c2 04 00	 ret	 4
$LN3@scalar:
  00037	6a 14		 push	 20			; 00000014H
  00039	56		 push	 esi
  0003a	e8 00 00 00 00	 call	 ?__global_delete@@YAXPAXI@Z ; __global_delete
  0003f	83 c4 08	 add	 esp, 8
$LN20@scalar:
  00042	8b c6		 mov	 eax, esi
  00044	5e		 pop	 esi
  00045	5d		 pop	 ebp
  00046	c2 04 00	 ret	 4
??_G?$CArray@VCIndexData@@V1@@@UAEPAXI@Z ENDP		; CArray<CIndexData,CIndexData>::`scalar deleting destructor'
_TEXT	ENDS
; Function compile flags: /Ogtp
; File C:\Program Files (x86)\Microsoft Visual Studio\2019\Community\VC\Tools\MSVC\14.29.30133\atlmfc\include\afxtempl.h
; File C:\Program Files (x86)\Microsoft Visual Studio\2019\Community\VC\Tools\MSVC\14.29.30133\atlmfc\include\afx.inl
; File C:\Program Files (x86)\Microsoft Visual Studio\2019\Community\VC\Tools\MSVC\14.29.30133\atlmfc\include\afxtempl.h
; File C:\Program Files (x86)\Microsoft Visual Studio\2019\Community\VC\Tools\MSVC\14.29.30133\atlmfc\include\afx.inl
; File C:\Program Files (x86)\Microsoft Visual Studio\2019\Community\VC\Tools\MSVC\14.29.30133\atlmfc\include\afxtempl.h
; File C:\Program Files (x86)\Microsoft Visual Studio\2019\Community\VC\Tools\MSVC\14.29.30133\atlmfc\include\afx.inl
; File C:\Program Files (x86)\Microsoft Visual Studio\2019\Community\VC\Tools\MSVC\14.29.30133\atlmfc\include\afxtempl.h
; File C:\Program Files (x86)\Microsoft Visual Studio\2019\Community\VC\Tools\MSVC\14.29.30133\atlmfc\include\afx.inl
; File C:\Program Files (x86)\Microsoft Visual Studio\2019\Community\VC\Tools\MSVC\14.29.30133\atlmfc\include\afxtempl.h
;	COMDAT ?Serialize@?$CArray@VCIndexData@@V1@@@UAEXAAVCArchive@@@Z
_TEXT	SEGMENT
_pData$1$ = -4						; size = 4
_ar$ = 8						; size = 4
?Serialize@?$CArray@VCIndexData@@V1@@@UAEXAAVCArchive@@@Z PROC ; CArray<CIndexData,CIndexData>::Serialize, COMDAT
; _this$ = ecx

; 633  : {

  00000	55		 push	 ebp
  00001	8b ec		 mov	 ebp, esp
  00003	51		 push	 ecx
  00004	53		 push	 ebx
  00005	56		 push	 esi
  00006	57		 push	 edi
  00007	8b f9		 mov	 edi, ecx
; File C:\Program Files (x86)\Microsoft Visual Studio\2019\Community\VC\Tools\MSVC\14.29.30133\atlmfc\include\afx.inl

; 212  : 	{ return (m_nMode & CArchive::load) == 0; }

  00009	8b 4d 08	 mov	 ecx, DWORD PTR _ar$[ebp]
  0000c	8b 41 18	 mov	 eax, DWORD PTR [ecx+24]
  0000f	f7 d0		 not	 eax
  00011	a8 01		 test	 al, 1
; File C:\Program Files (x86)\Microsoft Visual Studio\2019\Community\VC\Tools\MSVC\14.29.30133\atlmfc\include\afxtempl.h

; 637  : 	if (ar.IsStoring())

  00013	74 0a		 je	 SHORT $LN2@Serialize

; 638  : 	{
; 639  : 		ar.WriteCount(m_nSize);

  00015	ff 77 08	 push	 DWORD PTR [edi+8]
  00018	e8 00 00 00 00	 call	 ?WriteCount@CArchive@@QAEXK@Z ; CArchive::WriteCount

; 640  : 	}

  0001d	eb 0f		 jmp	 SHORT $LN3@Serialize
$LN2@Serialize:

; 641  : 	else
; 642  : 	{
; 643  : 		DWORD_PTR nOldSize = ar.ReadCount();

  0001f	e8 00 00 00 00	 call	 ?ReadCount@CArchive@@QAEKXZ ; CArchive::ReadCount

; 644  : 		SetSize(nOldSize, -1);

  00024	6a ff		 push	 -1
  00026	50		 push	 eax
  00027	8b cf		 mov	 ecx, edi
  00029	e8 00 00 00 00	 call	 ?SetSize@?$CArray@VCIndexData@@V1@@@QAEXHH@Z ; CArray<CIndexData,CIndexData>::SetSize
$LN3@Serialize:

; 645  : 	}
; 646  : 	SerializeElements<TYPE>(ar, m_pData, m_nSize);

  0002e	8b 77 08	 mov	 esi, DWORD PTR [edi+8]
  00031	8b 4f 04	 mov	 ecx, DWORD PTR [edi+4]
  00034	89 4d fc	 mov	 DWORD PTR _pData$1$[ebp], ecx

; 68   : 	ENSURE(nCount == 0 || pElements != NULL);

  00037	85 f6		 test	 esi, esi
  00039	74 08		 je	 SHORT $LN8@Serialize
  0003b	85 c9		 test	 ecx, ecx
  0003d	0f 84 8b 00 00
	00		 je	 $LN40@Serialize
$LN8@Serialize:
; File C:\Program Files (x86)\Microsoft Visual Studio\2019\Community\VC\Tools\MSVC\14.29.30133\atlmfc\include\afx.inl

; 212  : 	{ return (m_nMode & CArchive::load) == 0; }

  00043	8b 55 08	 mov	 edx, DWORD PTR _ar$[ebp]
  00046	8b 42 18	 mov	 eax, DWORD PTR [edx+24]
  00049	f7 d0		 not	 eax
  0004b	a8 01		 test	 al, 1
; File C:\Program Files (x86)\Microsoft Visual Studio\2019\Community\VC\Tools\MSVC\14.29.30133\atlmfc\include\afxtempl.h

; 73   : 	if (ar.IsStoring())

  0004d	74 35		 je	 SHORT $LN16@Serialize

; 74   : 	{
; 75   : 		TYPE* pData;
; 76   : 		UINT_PTR nElementsLeft;
; 77   : 
; 78   : 		nElementsLeft = nCount;
; 79   : 		pData = pElements;
; 80   : 		while( nElementsLeft > 0 )

  0004f	85 f6		 test	 esi, esi
  00051	74 28		 je	 SHORT $LN14@Serialize
$LL11@Serialize:

; 81   : 		{
; 82   : 			UINT nElementsToWrite;
; 83   : 
; 84   : 			nElementsToWrite = UINT(__min(nElementsLeft, INT_MAX/sizeof(TYPE)));

  00053	bb 66 66 66 06	 mov	 ebx, 107374182		; 06666666H
  00058	3b f3		 cmp	 esi, ebx
  0005a	0f 42 de	 cmovb	 ebx, esi

; 85   : 			ar.Write(pData, nElementsToWrite*sizeof(TYPE));

  0005d	8d 3c 9b	 lea	 edi, DWORD PTR [ebx+ebx*4]
  00060	c1 e7 02	 shl	 edi, 2
  00063	57		 push	 edi
  00064	51		 push	 ecx
  00065	8b ca		 mov	 ecx, edx
  00067	e8 00 00 00 00	 call	 ?Write@CArchive@@QAEXPBXI@Z ; CArchive::Write

; 86   : 			nElementsLeft -= nElementsToWrite;
; 87   : 			pData += nElementsToWrite;

  0006c	8b 4d fc	 mov	 ecx, DWORD PTR _pData$1$[ebp]
  0006f	8b 55 08	 mov	 edx, DWORD PTR _ar$[ebp]
  00072	03 cf		 add	 ecx, edi
  00074	89 4d fc	 mov	 DWORD PTR _pData$1$[ebp], ecx
  00077	2b f3		 sub	 esi, ebx
  00079	75 d8		 jne	 SHORT $LL11@Serialize
$LN14@Serialize:
  0007b	5f		 pop	 edi

; 647  : }

  0007c	5e		 pop	 esi
  0007d	5b		 pop	 ebx
  0007e	8b e5		 mov	 esp, ebp
  00080	5d		 pop	 ebp
  00081	c2 04 00	 ret	 4
$LN16@Serialize:

; 97   : 		while( nElementsLeft > 0 )

  00084	85 f6		 test	 esi, esi
  00086	74 f3		 je	 SHORT $LN14@Serialize
  00088	0f 1f 84 00 00
	00 00 00	 npad	 8
$LL13@Serialize:

; 98   : 		{
; 99   : 			UINT nElementsToRead;
; 100  : 
; 101  : 			nElementsToRead = UINT(__min(nElementsLeft, INT_MAX/sizeof(TYPE)));

  00090	bf 66 66 66 06	 mov	 edi, 107374182		; 06666666H
  00095	3b f7		 cmp	 esi, edi
  00097	0f 42 fe	 cmovb	 edi, esi

; 102  : 			ar.EnsureRead(pData, nElementsToRead*sizeof(TYPE));

  0009a	8d 1c bf	 lea	 ebx, DWORD PTR [edi+edi*4]
  0009d	c1 e3 02	 shl	 ebx, 2
; File C:\Program Files (x86)\Microsoft Visual Studio\2019\Community\VC\Tools\MSVC\14.29.30133\atlmfc\include\afx.inl

; 399  : 	UINT nRead=Read(lpBuf, nCount);

  000a0	53		 push	 ebx
  000a1	51		 push	 ecx
  000a2	8b ca		 mov	 ecx, edx
  000a4	e8 00 00 00 00	 call	 ?Read@CArchive@@QAEIPAXI@Z ; CArchive::Read

; 400  : 	if(nRead!=nCount)

  000a9	3b c3		 cmp	 eax, ebx
  000ab	75 18		 jne	 SHORT $LN30@Serialize
; File C:\Program Files (x86)\Microsoft Visual Studio\2019\Community\VC\Tools\MSVC\14.29.30133\atlmfc\include\afxtempl.h

; 97   : 		while( nElementsLeft > 0 )

  000ad	8b 4d fc	 mov	 ecx, DWORD PTR _pData$1$[ebp]
  000b0	8b 55 08	 mov	 edx, DWORD PTR _ar$[ebp]

; 103  : 			nElementsLeft -= nElementsToRead;
; 104  : 			pData += nElementsToRead;

  000b3	03 cb		 add	 ecx, ebx
  000b5	89 4d fc	 mov	 DWORD PTR _pData$1$[ebp], ecx
  000b8	2b f7		 sub	 esi, edi
  000ba	75 d4		 jne	 SHORT $LL13@Serialize

; 647  : }

  000bc	5f		 pop	 edi
  000bd	5e		 pop	 esi
  000be	5b		 pop	 ebx
  000bf	8b e5		 mov	 esp, ebp
  000c1	5d		 pop	 ebp
  000c2	c2 04 00	 ret	 4
$LN30@Serialize:
; File C:\Program Files (x86)\Microsoft Visual Studio\2019\Community\VC\Tools\MSVC\14.29.30133\atlmfc\include\afx.inl

; 402  : 		AfxThrowArchiveException(CArchiveException::endOfFile);

  000c5	6a 00		 push	 0
  000c7	6a 03		 push	 3
  000c9	e8 00 00 00 00	 call	 ?AfxThrowArchiveException@@YGXHPBD@Z ; AfxThrowArchiveException
$LN40@Serialize:
; File C:\Program Files (x86)\Microsoft Visual Studio\2019\Community\VC\Tools\MSVC\14.29.30133\atlmfc\include\afxtempl.h

; 68   : 	ENSURE(nCount == 0 || pElements != NULL);

  000ce	e8 00 00 00 00	 call	 ?AfxThrowInvalidArgException@@YGXXZ ; AfxThrowInvalidArgException
$LN38@Serialize:
  000d3	cc		 int	 3
?Serialize@?$CArray@VCIndexData@@V1@@@UAEXAAVCArchive@@@Z ENDP ; CArray<CIndexData,CIndexData>::Serialize
_TEXT	ENDS
; Function compile flags: /Ogtp
; File C:\Program Files (x86)\Microsoft Visual Studio\2019\Community\VC\Tools\MSVC\14.29.30133\atlmfc\include\afxtempl.h
;	COMDAT ??1?$CArray@VCIndexData@@V1@@@UAE@XZ
_TEXT	SEGMENT
??1?$CArray@VCIndexData@@V1@@@UAE@XZ PROC		; CArray<CIndexData,CIndexData>::~CArray<CIndexData,CIndexData>, COMDAT
; _this$ = ecx

; 356  : 	ASSERT_VALID(this);
; 357  : 
; 358  : 	if (m_pData != NULL)

  00000	8b 41 04	 mov	 eax, DWORD PTR [ecx+4]
  00003	c7 01 00 00 00
	00		 mov	 DWORD PTR [ecx], OFFSET ??_7?$CArray@VCIndexData@@V1@@@6B@
  00009	85 c0		 test	 eax, eax
  0000b	74 07		 je	 SHORT $LN5@CArray

; 359  : 	{
; 360  : 		for( int i = 0; i < m_nSize; i++ )
; 361  : 			(m_pData + i)->~TYPE();
; 362  : 		delete[] (BYTE*)m_pData;

  0000d	50		 push	 eax
  0000e	e8 00 00 00 00	 call	 ??_V@YAXPAX@Z		; operator delete[]
  00013	59		 pop	 ecx
$LN5@CArray:

; 363  : 	}
; 364  : }

  00014	c3		 ret	 0
??1?$CArray@VCIndexData@@V1@@@UAE@XZ ENDP		; CArray<CIndexData,CIndexData>::~CArray<CIndexData,CIndexData>
_TEXT	ENDS
; Function compile flags: /Ogtp
; File C:\Program Files (x86)\Microsoft Visual Studio\2019\Community\VC\Tools\MSVC\14.29.30133\atlmfc\include\afxtempl.h
;	COMDAT ?SetAtGrow@?$CArray@VCIndexData@@V1@@@QAEXHVCIndexData@@@Z
_TEXT	SEGMENT
_nIndex$ = 8						; size = 4
_newElement$ = 12					; size = 20
?SetAtGrow@?$CArray@VCIndexData@@V1@@@QAEXHVCIndexData@@@Z PROC ; CArray<CIndexData,CIndexData>::SetAtGrow, COMDAT
; _this$ = ecx

; 534  : {

  00000	55		 push	 ebp
  00001	8b ec		 mov	 ebp, esp
  00003	56		 push	 esi

; 535  : 	ASSERT_VALID(this);
; 536  : 	ASSERT(nIndex >= 0);
; 537  : 
; 538  : 	if(nIndex < 0)

  00004	8b 75 08	 mov	 esi, DWORD PTR _nIndex$[ebp]
  00007	57		 push	 edi
  00008	8b f9		 mov	 edi, ecx
  0000a	85 f6		 test	 esi, esi
  0000c	78 2c		 js	 SHORT $LN7@SetAtGrow

; 540  : 
; 541  : 	if (nIndex >= m_nSize)

  0000e	3b 77 08	 cmp	 esi, DWORD PTR [edi+8]
  00011	7c 0b		 jl	 SHORT $LN3@SetAtGrow

; 542  : 		SetSize(nIndex+1, -1);

  00013	6a ff		 push	 -1
  00015	8d 46 01	 lea	 eax, DWORD PTR [esi+1]
  00018	50		 push	 eax
  00019	e8 00 00 00 00	 call	 ?SetSize@?$CArray@VCIndexData@@V1@@@QAEXHH@Z ; CArray<CIndexData,CIndexData>::SetSize
$LN3@SetAtGrow:

; 543  : 	m_pData[nIndex] = newElement;

  0001e	8b 47 04	 mov	 eax, DWORD PTR [edi+4]
  00021	8d 0c b6	 lea	 ecx, DWORD PTR [esi+esi*4]
  00024	0f 10 45 0c	 movups	 xmm0, XMMWORD PTR _newElement$[ebp]
  00028	5f		 pop	 edi
  00029	5e		 pop	 esi
  0002a	8d 0c 88	 lea	 ecx, DWORD PTR [eax+ecx*4]
  0002d	0f 11 01	 movups	 XMMWORD PTR [ecx], xmm0
  00030	8b 45 1c	 mov	 eax, DWORD PTR _newElement$[ebp+16]
  00033	89 41 10	 mov	 DWORD PTR [ecx+16], eax

; 544  : }

  00036	5d		 pop	 ebp
  00037	c2 18 00	 ret	 24			; 00000018H
$LN7@SetAtGrow:

; 539  : 		AfxThrowInvalidArgException();

  0003a	e8 00 00 00 00	 call	 ?AfxThrowInvalidArgException@@YGXXZ ; AfxThrowInvalidArgException
$LN5@SetAtGrow:
  0003f	cc		 int	 3
?SetAtGrow@?$CArray@VCIndexData@@V1@@@QAEXHVCIndexData@@@Z ENDP ; CArray<CIndexData,CIndexData>::SetAtGrow
_TEXT	ENDS
; Function compile flags: /Ogtp
; File C:\Program Files (x86)\Microsoft Visual Studio\2019\Community\VC\Tools\MSVC\14.29.30133\atlmfc\include\afxtempl.h
; File D:\git\src\IBK\IBK_DRFN\ProjSrc\SrcDrfn\Chart\STCONFIGUREDLG\TabIndex.h
; File C:\Program Files (x86)\Microsoft Visual Studio\2019\Community\VC\Tools\MSVC\14.29.30133\atlmfc\include\afxtempl.h
; File D:\git\src\IBK\IBK_DRFN\ProjSrc\SrcDrfn\Chart\STCONFIGUREDLG\TabIndex.h
; File C:\Program Files (x86)\Microsoft Visual Studio\2019\Community\VC\Tools\MSVC\14.29.30133\atlmfc\include\afxtempl.h
; File C:\Program Files (x86)\Windows Kits\10\Include\10.0.22000.0\ucrt\corecrt_memcpy_s.h
; File C:\Program Files (x86)\Microsoft Visual Studio\2019\Community\VC\Tools\MSVC\14.29.30133\atlmfc\include\afxtempl.h
; File D:\git\src\IBK\IBK_DRFN\ProjSrc\SrcDrfn\Chart\STCONFIGUREDLG\TabIndex.h
; File C:\Program Files (x86)\Microsoft Visual Studio\2019\Community\VC\Tools\MSVC\14.29.30133\atlmfc\include\afxtempl.h
; File C:\Program Files (x86)\Windows Kits\10\Include\10.0.22000.0\ucrt\corecrt_memcpy_s.h
; File C:\Program Files (x86)\Microsoft Visual Studio\2019\Community\VC\Tools\MSVC\14.29.30133\atlmfc\include\afx.h
; File C:\Program Files (x86)\Microsoft Visual Studio\2019\Community\VC\Tools\MSVC\14.29.30133\atlmfc\include\afxtempl.h
;	COMDAT ?SetSize@?$CArray@VCIndexData@@V1@@@QAEXHH@Z
_TEXT	SEGMENT
__N$1$ = -8						; size = 4
__S2$1$ = -4						; size = 4
__S1max$1$ = 8						; size = 4
_nAllocSize$1$ = 8					; size = 4
_nNewSize$ = 8						; size = 4
_nNewMax$1$ = 12					; size = 4
_nGrowBy$ = 12						; size = 4
?SetSize@?$CArray@VCIndexData@@V1@@@QAEXHH@Z PROC	; CArray<CIndexData,CIndexData>::SetSize, COMDAT
; _this$ = ecx

; 368  : {

  00000	55		 push	 ebp
  00001	8b ec		 mov	 ebp, esp
  00003	83 ec 08	 sub	 esp, 8
  00006	53		 push	 ebx
  00007	8b 5d 08	 mov	 ebx, DWORD PTR _nNewSize$[ebp]
  0000a	56		 push	 esi
  0000b	57		 push	 edi
  0000c	8b f9		 mov	 edi, ecx

; 369  : 	ASSERT_VALID(this);
; 370  : 	ASSERT(nNewSize >= 0);
; 371  : 
; 372  : 	if(nNewSize < 0 )

  0000e	85 db		 test	 ebx, ebx
  00010	0f 88 74 02 00
	00		 js	 $LN64@SetSize

; 373  : 		AfxThrowInvalidArgException();
; 374  : 
; 375  : 	if (nGrowBy >= 0)

  00016	8b 45 0c	 mov	 eax, DWORD PTR _nGrowBy$[ebp]
  00019	85 c0		 test	 eax, eax
  0001b	78 03		 js	 SHORT $LN94@SetSize

; 376  : 		m_nGrowBy = nGrowBy;  // set new size

  0001d	89 47 10	 mov	 DWORD PTR [edi+16], eax
$LN94@SetSize:

; 377  : 
; 378  : 	if (nNewSize == 0)

  00020	8b 4f 04	 mov	 ecx, DWORD PTR [edi+4]
  00023	85 db		 test	 ebx, ebx
  00025	75 27		 jne	 SHORT $LN19@SetSize

; 379  : 	{
; 380  : 		// shrink to nothing
; 381  : 		if (m_pData != NULL)

  00027	85 c9		 test	 ecx, ecx
  00029	74 0c		 je	 SHORT $LN21@SetSize

; 382  : 		{
; 383  : 			for( int i = 0; i < m_nSize; i++ )
; 384  : 				(m_pData + i)->~TYPE();
; 385  : 			delete[] (BYTE*)m_pData;

  0002b	51		 push	 ecx
  0002c	e8 00 00 00 00	 call	 ??_V@YAXPAX@Z		; operator delete[]
  00031	83 c4 04	 add	 esp, 4

; 386  : 			m_pData = NULL;

  00034	89 5f 04	 mov	 DWORD PTR [edi+4], ebx
$LN21@SetSize:

; 387  : 		}
; 388  : 		m_nSize = m_nMaxSize = 0;

  00037	c7 47 0c 00 00
	00 00		 mov	 DWORD PTR [edi+12], 0
  0003e	c7 47 08 00 00
	00 00		 mov	 DWORD PTR [edi+8], 0
  00045	5f		 pop	 edi

; 475  : }

  00046	5e		 pop	 esi
  00047	5b		 pop	 ebx
  00048	8b e5		 mov	 esp, ebp
  0004a	5d		 pop	 ebp
  0004b	c2 08 00	 ret	 8
$LN19@SetSize:

; 389  : 	}
; 390  : 	else if (m_pData == NULL)

  0004e	85 c9		 test	 ecx, ecx
  00050	75 6f		 jne	 SHORT $LN22@SetSize

; 391  : 	{
; 392  : 		// create buffer big enough to hold number of requested elements or
; 393  : 		// m_nGrowBy elements, whichever is larger.
; 394  : #ifdef SIZE_T_MAX
; 395  : 		ASSERT(nNewSize <= SIZE_T_MAX/sizeof(TYPE));    // no overflow
; 396  : #endif
; 397  : 		size_t nAllocSize = __max(nNewSize, m_nGrowBy);

  00052	8b 47 10	 mov	 eax, DWORD PTR [edi+16]
  00055	3b d8		 cmp	 ebx, eax
  00057	0f 4f c3	 cmovg	 eax, ebx
  0005a	89 45 08	 mov	 DWORD PTR _nAllocSize$1$[ebp], eax

; 398  : 		m_pData = (TYPE*) new BYTE[(size_t)nAllocSize * sizeof(TYPE)];

  0005d	8d 34 80	 lea	 esi, DWORD PTR [eax+eax*4]
  00060	c1 e6 02	 shl	 esi, 2
  00063	56		 push	 esi
  00064	e8 00 00 00 00	 call	 ??_U@YAPAXI@Z		; operator new[]

; 399  : 		memset((void*)m_pData, 0, (size_t)nAllocSize * sizeof(TYPE));

  00069	56		 push	 esi
  0006a	6a 00		 push	 0
  0006c	50		 push	 eax
  0006d	89 47 04	 mov	 DWORD PTR [edi+4], eax
  00070	e8 00 00 00 00	 call	 _memset
  00075	83 c4 10	 add	 esp, 16			; 00000010H

; 400  : 		for( int i = 0; i < nNewSize; i++ )

  00078	85 db		 test	 ebx, ebx
  0007a	7e 33		 jle	 SHORT $LN6@SetSize

; 398  : 		m_pData = (TYPE*) new BYTE[(size_t)nAllocSize * sizeof(TYPE)];

  0007c	33 c9		 xor	 ecx, ecx
  0007e	8b d3		 mov	 edx, ebx
$LL7@SetSize:

; 401  : #pragma push_macro("new")
; 402  : #undef new
; 403  : 			::new( (void*)( m_pData + i ) ) TYPE;

  00080	8b 47 04	 mov	 eax, DWORD PTR [edi+4]
  00083	03 c1		 add	 eax, ecx
  00085	83 c1 14	 add	 ecx, 20			; 00000014H
; File D:\git\src\IBK\IBK_DRFN\ProjSrc\SrcDrfn\Chart\STCONFIGUREDLG\TabIndex.h

; 28   : 		m_clrIndex = RGB(0,0,0);

  00088	c7 00 00 00 00
	00		 mov	 DWORD PTR [eax], 0

; 29   : 		m_lType = 0;

  0008e	c7 40 04 00 00
	00 00		 mov	 DWORD PTR [eax+4], 0

; 30   : 		m_lShape = 0;

  00095	c7 40 08 00 00
	00 00		 mov	 DWORD PTR [eax+8], 0

; 31   : 		m_lThick = 0;

  0009c	c7 40 0c 00 00
	00 00		 mov	 DWORD PTR [eax+12], 0

; 32   : 		m_nPos = 0;

  000a3	c7 40 10 00 00
	00 00		 mov	 DWORD PTR [eax+16], 0
; File C:\Program Files (x86)\Microsoft Visual Studio\2019\Community\VC\Tools\MSVC\14.29.30133\atlmfc\include\afxtempl.h

; 400  : 		for( int i = 0; i < nNewSize; i++ )

  000aa	83 ea 01	 sub	 edx, 1
  000ad	75 d1		 jne	 SHORT $LL7@SetSize
$LN6@SetSize:

; 404  : #pragma pop_macro("new")
; 405  : 		m_nSize = nNewSize;
; 406  : 		m_nMaxSize = nAllocSize;

  000af	8b 45 08	 mov	 eax, DWORD PTR _nAllocSize$1$[ebp]
  000b2	89 5f 08	 mov	 DWORD PTR [edi+8], ebx

; 475  : }

  000b5	89 47 0c	 mov	 DWORD PTR [edi+12], eax
  000b8	5f		 pop	 edi
  000b9	5e		 pop	 esi
  000ba	5b		 pop	 ebx
  000bb	8b e5		 mov	 esp, ebp
  000bd	5d		 pop	 ebp
  000be	c2 08 00	 ret	 8
$LN22@SetSize:

; 407  : 	}
; 408  : 	else if (nNewSize <= m_nMaxSize)

  000c1	8b 77 0c	 mov	 esi, DWORD PTR [edi+12]
  000c4	3b de		 cmp	 ebx, esi
  000c6	7f 76		 jg	 SHORT $LN24@SetSize

; 409  : 	{
; 410  : 		// it fits
; 411  : 		if (nNewSize > m_nSize)

  000c8	8b 57 08	 mov	 edx, DWORD PTR [edi+8]
  000cb	3b da		 cmp	 ebx, edx
  000cd	7e 63		 jle	 SHORT $LN26@SetSize

; 412  : 		{
; 413  : 			// initialize the new elements
; 414  : 			memset((void*)(m_pData + m_nSize), 0, (size_t)(nNewSize-m_nSize) * sizeof(TYPE));

  000cf	8b c3		 mov	 eax, ebx
  000d1	2b c2		 sub	 eax, edx
  000d3	8d 04 80	 lea	 eax, DWORD PTR [eax+eax*4]
  000d6	c1 e0 02	 shl	 eax, 2
  000d9	50		 push	 eax
  000da	8d 04 92	 lea	 eax, DWORD PTR [edx+edx*4]
  000dd	8d 04 81	 lea	 eax, DWORD PTR [ecx+eax*4]
  000e0	6a 00		 push	 0
  000e2	50		 push	 eax
  000e3	e8 00 00 00 00	 call	 _memset

; 415  : 			for( int i = 0; i < nNewSize-m_nSize; i++ )

  000e8	8b c3		 mov	 eax, ebx
  000ea	83 c4 0c	 add	 esp, 12			; 0000000cH
  000ed	2b 47 08	 sub	 eax, DWORD PTR [edi+8]
  000f0	33 d2		 xor	 edx, edx
  000f2	85 c0		 test	 eax, eax
  000f4	7e 3c		 jle	 SHORT $LN26@SetSize
$LL10@SetSize:

; 416  : #pragma push_macro("new")
; 417  : #undef new
; 418  : 				::new( (void*)( m_pData + m_nSize + i ) ) TYPE;

  000f6	8b 47 08	 mov	 eax, DWORD PTR [edi+8]
  000f9	03 c2		 add	 eax, edx
  000fb	42		 inc	 edx
  000fc	8d 0c 80	 lea	 ecx, DWORD PTR [eax+eax*4]
  000ff	8b 47 04	 mov	 eax, DWORD PTR [edi+4]
; File D:\git\src\IBK\IBK_DRFN\ProjSrc\SrcDrfn\Chart\STCONFIGUREDLG\TabIndex.h

; 28   : 		m_clrIndex = RGB(0,0,0);

  00102	c7 04 88 00 00
	00 00		 mov	 DWORD PTR [eax+ecx*4], 0

; 29   : 		m_lType = 0;

  00109	c7 44 88 04 00
	00 00 00	 mov	 DWORD PTR [eax+ecx*4+4], 0

; 30   : 		m_lShape = 0;

  00111	c7 44 88 08 00
	00 00 00	 mov	 DWORD PTR [eax+ecx*4+8], 0

; 31   : 		m_lThick = 0;

  00119	c7 44 88 0c 00
	00 00 00	 mov	 DWORD PTR [eax+ecx*4+12], 0

; 32   : 		m_nPos = 0;

  00121	c7 44 88 10 00
	00 00 00	 mov	 DWORD PTR [eax+ecx*4+16], 0
; File C:\Program Files (x86)\Microsoft Visual Studio\2019\Community\VC\Tools\MSVC\14.29.30133\atlmfc\include\afxtempl.h

; 415  : 			for( int i = 0; i < nNewSize-m_nSize; i++ )

  00129	8b c3		 mov	 eax, ebx
  0012b	2b 47 08	 sub	 eax, DWORD PTR [edi+8]
  0012e	3b d0		 cmp	 edx, eax
  00130	7c c4		 jl	 SHORT $LL10@SetSize
$LN26@SetSize:

; 419  : #pragma pop_macro("new")
; 420  : 		}
; 421  : 		else if (m_nSize > nNewSize)
; 422  : 		{
; 423  : 			// destroy the old elements
; 424  : 			for( int i = 0; i < m_nSize-nNewSize; i++ )
; 425  : 				(m_pData + nNewSize + i)->~TYPE();
; 426  : 		}
; 427  : 		m_nSize = nNewSize;

  00132	89 5f 08	 mov	 DWORD PTR [edi+8], ebx
  00135	5f		 pop	 edi

; 475  : }

  00136	5e		 pop	 esi
  00137	5b		 pop	 ebx
  00138	8b e5		 mov	 esp, ebp
  0013a	5d		 pop	 ebp
  0013b	c2 08 00	 ret	 8
$LN24@SetSize:

; 428  : 	}
; 429  : 	else
; 430  : 	{
; 431  : 		// otherwise, grow array
; 432  : 		nGrowBy = m_nGrowBy;

  0013e	8b 47 10	 mov	 eax, DWORD PTR [edi+16]

; 433  : 		if (nGrowBy == 0)

  00141	85 c0		 test	 eax, eax
  00143	75 22		 jne	 SHORT $LN37@SetSize

; 434  : 		{
; 435  : 			// heuristically determine growth when nGrowBy == 0
; 436  : 			//  (this avoids heap fragmentation in many situations)
; 437  : 			nGrowBy = m_nSize / 8;

  00145	8b 47 08	 mov	 eax, DWORD PTR [edi+8]
  00148	99		 cdq
  00149	83 e2 07	 and	 edx, 7
  0014c	03 c2		 add	 eax, edx
  0014e	c1 f8 03	 sar	 eax, 3

; 438  : 			nGrowBy = (nGrowBy < 4) ? 4 : ((nGrowBy > 1024) ? 1024 : nGrowBy);

  00151	83 f8 04	 cmp	 eax, 4
  00154	7d 07		 jge	 SHORT $LN36@SetSize
  00156	b8 04 00 00 00	 mov	 eax, 4
  0015b	eb 0a		 jmp	 SHORT $LN37@SetSize
$LN36@SetSize:
  0015d	b9 00 04 00 00	 mov	 ecx, 1024		; 00000400H
  00162	3b c1		 cmp	 eax, ecx
  00164	0f 4f c1	 cmovg	 eax, ecx
$LN37@SetSize:

; 439  : 		}
; 440  : 		INT_PTR nNewMax;
; 441  : 		if (nNewSize < m_nMaxSize + nGrowBy)

  00167	03 c6		 add	 eax, esi
  00169	89 45 0c	 mov	 DWORD PTR _nNewMax$1$[ebp], eax
  0016c	3b d8		 cmp	 ebx, eax
  0016e	7d 0a		 jge	 SHORT $LN30@SetSize

; 445  : 
; 446  : 		ASSERT(nNewMax >= m_nMaxSize);  // no wrap around
; 447  : 
; 448  : 		if(nNewMax  < m_nMaxSize)

  00170	3b c6		 cmp	 eax, esi
  00172	0f 8c 12 01 00
	00		 jl	 $LN64@SetSize
  00178	eb 05		 jmp	 SHORT $LN32@SetSize
$LN30@SetSize:

; 442  : 			nNewMax = m_nMaxSize + nGrowBy;  // granularity
; 443  : 		else
; 444  : 			nNewMax = nNewSize;  // no slush

  0017a	8b c3		 mov	 eax, ebx
  0017c	89 5d 0c	 mov	 DWORD PTR _nNewMax$1$[ebp], ebx
$LN32@SetSize:

; 449  : 			AfxThrowInvalidArgException();
; 450  : 
; 451  : #ifdef SIZE_T_MAX
; 452  : 		ASSERT(nNewMax <= SIZE_T_MAX/sizeof(TYPE)); // no overflow
; 453  : #endif
; 454  : 		TYPE* pNewData = (TYPE*) new BYTE[(size_t)nNewMax * sizeof(TYPE)];

  0017f	8d 04 80	 lea	 eax, DWORD PTR [eax+eax*4]
  00182	c1 e0 02	 shl	 eax, 2
  00185	50		 push	 eax
  00186	89 45 08	 mov	 DWORD PTR __S1max$1$[ebp], eax
  00189	e8 00 00 00 00	 call	 ??_U@YAPAXI@Z		; operator new[]

; 455  : 
; 456  : 		// copy new data from old
; 457  : 		::ATL::Checked::memcpy_s(pNewData, (size_t)nNewMax * sizeof(TYPE),

  0018e	8b 4f 08	 mov	 ecx, DWORD PTR [edi+8]
  00191	8b f0		 mov	 esi, eax
  00193	83 c4 04	 add	 esp, 4
  00196	8d 04 89	 lea	 eax, DWORD PTR [ecx+ecx*4]
  00199	8b 4f 04	 mov	 ecx, DWORD PTR [edi+4]
  0019c	c1 e0 02	 shl	 eax, 2
  0019f	89 45 f8	 mov	 DWORD PTR __N$1$[ebp], eax
  001a2	89 4d fc	 mov	 DWORD PTR __S2$1$[ebp], ecx
; File C:\Program Files (x86)\Windows Kits\10\Include\10.0.22000.0\ucrt\corecrt_memcpy_s.h

; 46   :         if (_SourceSize == 0)

  001a5	85 c0		 test	 eax, eax
  001a7	74 24		 je	 SHORT $LN62@SetSize

; 47   :         {
; 48   :             return 0;
; 49   :         }
; 50   : 
; 51   :         _CRT_MEMCPY_S_VALIDATE_RETURN_ERRCODE(_Destination != NULL, EINVAL);

  001a9	85 f6		 test	 esi, esi
  001ab	0f 84 c7 00 00
	00		 je	 $LN96@SetSize

; 52   :         if (_Source == NULL || _DestinationSize < _SourceSize)

  001b1	85 c9		 test	 ecx, ecx
  001b3	0f 84 97 00 00
	00		 je	 $LN88@SetSize
  001b9	39 45 08	 cmp	 DWORD PTR __S1max$1$[ebp], eax
  001bc	0f 82 8e 00 00
	00		 jb	 $LN88@SetSize

; 58   : 
; 59   :             // Unreachable, but required to suppress /analyze warnings:
; 60   :             return EINVAL;
; 61   :         }
; 62   :         memcpy(_Destination, _Source, _SourceSize);

  001c2	50		 push	 eax
  001c3	51		 push	 ecx
  001c4	56		 push	 esi
  001c5	e8 00 00 00 00	 call	 _memcpy
  001ca	83 c4 0c	 add	 esp, 12			; 0000000cH
$LN62@SetSize:
; File C:\Program Files (x86)\Microsoft Visual Studio\2019\Community\VC\Tools\MSVC\14.29.30133\atlmfc\include\afxtempl.h

; 462  : 		memset((void*)(pNewData + m_nSize), 0, (size_t)(nNewSize-m_nSize) * sizeof(TYPE));

  001cd	8b 4f 08	 mov	 ecx, DWORD PTR [edi+8]
  001d0	8b c3		 mov	 eax, ebx
  001d2	2b c1		 sub	 eax, ecx
  001d4	8d 04 80	 lea	 eax, DWORD PTR [eax+eax*4]
  001d7	c1 e0 02	 shl	 eax, 2
  001da	50		 push	 eax
  001db	8d 04 89	 lea	 eax, DWORD PTR [ecx+ecx*4]
  001de	8d 04 86	 lea	 eax, DWORD PTR [esi+eax*4]
  001e1	6a 00		 push	 0
  001e3	50		 push	 eax
  001e4	e8 00 00 00 00	 call	 _memset

; 463  : 		for( int i = 0; i < nNewSize-m_nSize; i++ )

  001e9	8b c3		 mov	 eax, ebx
  001eb	83 c4 0c	 add	 esp, 12			; 0000000cH
  001ee	2b 47 08	 sub	 eax, DWORD PTR [edi+8]
  001f1	33 c9		 xor	 ecx, ecx
  001f3	85 c0		 test	 eax, eax
  001f5	7e 39		 jle	 SHORT $LN15@SetSize
$LL16@SetSize:

; 464  : #pragma push_macro("new")
; 465  : #undef new
; 466  : 			::new( (void*)( pNewData + m_nSize + i ) ) TYPE;

  001f7	8b 47 08	 mov	 eax, DWORD PTR [edi+8]
  001fa	03 c1		 add	 eax, ecx
  001fc	41		 inc	 ecx
  001fd	8d 04 80	 lea	 eax, DWORD PTR [eax+eax*4]
; File D:\git\src\IBK\IBK_DRFN\ProjSrc\SrcDrfn\Chart\STCONFIGUREDLG\TabIndex.h

; 28   : 		m_clrIndex = RGB(0,0,0);

  00200	c7 04 86 00 00
	00 00		 mov	 DWORD PTR [esi+eax*4], 0

; 29   : 		m_lType = 0;

  00207	c7 44 86 04 00
	00 00 00	 mov	 DWORD PTR [esi+eax*4+4], 0

; 30   : 		m_lShape = 0;

  0020f	c7 44 86 08 00
	00 00 00	 mov	 DWORD PTR [esi+eax*4+8], 0

; 31   : 		m_lThick = 0;

  00217	c7 44 86 0c 00
	00 00 00	 mov	 DWORD PTR [esi+eax*4+12], 0

; 32   : 		m_nPos = 0;

  0021f	c7 44 86 10 00
	00 00 00	 mov	 DWORD PTR [esi+eax*4+16], 0
; File C:\Program Files (x86)\Microsoft Visual Studio\2019\Community\VC\Tools\MSVC\14.29.30133\atlmfc\include\afxtempl.h

; 463  : 		for( int i = 0; i < nNewSize-m_nSize; i++ )

  00227	8b c3		 mov	 eax, ebx
  00229	2b 47 08	 sub	 eax, DWORD PTR [edi+8]
  0022c	3b c8		 cmp	 ecx, eax
  0022e	7c c7		 jl	 SHORT $LL16@SetSize
$LN15@SetSize:

; 467  : #pragma pop_macro("new")
; 468  : 
; 469  : 		// get rid of old stuff (note: no destructors called)
; 470  : 		delete[] (BYTE*)m_pData;

  00230	ff 77 04	 push	 DWORD PTR [edi+4]
  00233	e8 00 00 00 00	 call	 ??_V@YAXPAX@Z		; operator delete[]

; 471  : 		m_pData = pNewData;
; 472  : 		m_nSize = nNewSize;
; 473  : 		m_nMaxSize = nNewMax;

  00238	8b 45 0c	 mov	 eax, DWORD PTR _nNewMax$1$[ebp]
  0023b	83 c4 04	 add	 esp, 4
  0023e	89 77 04	 mov	 DWORD PTR [edi+4], esi
  00241	89 5f 08	 mov	 DWORD PTR [edi+8], ebx

; 475  : }

  00244	89 47 0c	 mov	 DWORD PTR [edi+12], eax
  00247	5f		 pop	 edi
  00248	5e		 pop	 esi
  00249	5b		 pop	 ebx
  0024a	8b e5		 mov	 esp, ebp
  0024c	5d		 pop	 ebp
  0024d	c2 08 00	 ret	 8
$LN88@SetSize:
; File C:\Program Files (x86)\Windows Kits\10\Include\10.0.22000.0\ucrt\corecrt_memcpy_s.h

; 54   :             memset(_Destination, 0, _DestinationSize);

  00250	8b 5d 08	 mov	 ebx, DWORD PTR __S1max$1$[ebp]
  00253	53		 push	 ebx
  00254	6a 00		 push	 0
  00256	56		 push	 esi
  00257	e8 00 00 00 00	 call	 _memset
  0025c	83 c4 0c	 add	 esp, 12			; 0000000cH

; 55   : 
; 56   :             _CRT_MEMCPY_S_VALIDATE_RETURN_ERRCODE(_Source != NULL,                 EINVAL);

  0025f	83 7d fc 00	 cmp	 DWORD PTR __S2$1$[ebp], 0
  00263	74 13		 je	 SHORT $LN96@SetSize

; 57   :             _CRT_MEMCPY_S_VALIDATE_RETURN_ERRCODE(_DestinationSize >= _SourceSize, ERANGE);

  00265	3b 5d f8	 cmp	 ebx, DWORD PTR __N$1$[ebp]
  00268	73 20		 jae	 SHORT $LN64@SetSize
  0026a	ff 15 00 00 00
	00		 call	 DWORD PTR __imp___errno
  00270	c7 00 22 00 00
	00		 mov	 DWORD PTR [eax], 34	; 00000022H
  00276	eb 0c		 jmp	 SHORT $LN97@SetSize
$LN96@SetSize:
; File C:\Program Files (x86)\Microsoft Visual Studio\2019\Community\VC\Tools\MSVC\14.29.30133\atlmfc\include\afx.h

; 517  : 		AfxThrowInvalidArgException();

  00278	ff 15 00 00 00
	00		 call	 DWORD PTR __imp___errno
  0027e	c7 00 16 00 00
	00		 mov	 DWORD PTR [eax], 22	; 00000016H
$LN97@SetSize:
  00284	ff 15 00 00 00
	00		 call	 DWORD PTR __imp___invalid_parameter_noinfo
$LN64@SetSize:
  0028a	e8 00 00 00 00	 call	 ?AfxThrowInvalidArgException@@YGXXZ ; AfxThrowInvalidArgException
$LN95@SetSize:
  0028f	cc		 int	 3
?SetSize@?$CArray@VCIndexData@@V1@@@QAEXHH@Z ENDP	; CArray<CIndexData,CIndexData>::SetSize
_TEXT	ENDS
; Function compile flags: /Ogtp
; File C:\Program Files (x86)\Microsoft Visual Studio\2019\Community\VC\Tools\MSVC\14.29.30133\atlmfc\include\afxtempl.h
;	COMDAT ??0?$CArray@VCIndexData@@V1@@@QAE@XZ
_TEXT	SEGMENT
??0?$CArray@VCIndexData@@V1@@@QAE@XZ PROC		; CArray<CIndexData,CIndexData>::CArray<CIndexData,CIndexData>, COMDAT
; _this$ = ecx

; 348  : {

  00000	c7 01 00 00 00
	00		 mov	 DWORD PTR [ecx], OFFSET ??_7?$CArray@VCIndexData@@V1@@@6B@

; 349  : 	m_pData = NULL;
; 350  : 	m_nSize = m_nMaxSize = m_nGrowBy = 0;
; 351  : }

  00006	8b c1		 mov	 eax, ecx
  00008	c7 41 04 00 00
	00 00		 mov	 DWORD PTR [ecx+4], 0
  0000f	c7 41 10 00 00
	00 00		 mov	 DWORD PTR [ecx+16], 0
  00016	c7 41 0c 00 00
	00 00		 mov	 DWORD PTR [ecx+12], 0
  0001d	c7 41 08 00 00
	00 00		 mov	 DWORD PTR [ecx+8], 0
  00024	c3		 ret	 0
??0?$CArray@VCIndexData@@V1@@@QAE@XZ ENDP		; CArray<CIndexData,CIndexData>::CArray<CIndexData,CIndexData>
_TEXT	ENDS
; Function compile flags: /Ogtp
; File D:\git\src\IBK\IBK_DRFN\ProjSrc\SrcDrfn\Chart\STCONFIGUREDLG\TabIndex.cpp
;	COMDAT ?RemoveInfo@CTabIndex@@EAEXXZ
_TEXT	SEGMENT
_strKeyName$ = -16					; size = 4
__$EHRec$ = -12						; size = 12
?RemoveInfo@CTabIndex@@EAEXXZ PROC			; CTabIndex::RemoveInfo, COMDAT
; _this$ = ecx

; 381  : {

  00000	55		 push	 ebp
  00001	8b ec		 mov	 ebp, esp
  00003	6a ff		 push	 -1
  00005	68 00 00 00 00	 push	 __ehhandler$?RemoveInfo@CTabIndex@@EAEXXZ
  0000a	64 a1 00 00 00
	00		 mov	 eax, DWORD PTR fs:0
  00010	50		 push	 eax
  00011	51		 push	 ecx
  00012	53		 push	 ebx
  00013	56		 push	 esi
  00014	57		 push	 edi
  00015	a1 00 00 00 00	 mov	 eax, DWORD PTR ___security_cookie
  0001a	33 c5		 xor	 eax, ebp
  0001c	50		 push	 eax
  0001d	8d 45 f4	 lea	 eax, DWORD PTR __$EHRec$[ebp]
  00020	64 a3 00 00 00
	00		 mov	 DWORD PTR fs:0, eax
  00026	8b f9		 mov	 edi, ecx

; 382  : 	int nUseType = 2; // Remove In STFile
; 383  : 	CString strKeyName;

  00028	8d 4d f0	 lea	 ecx, DWORD PTR _strKeyName$[ebp]
  0002b	ff 15 00 00 00
	00		 call	 DWORD PTR __imp_??0?$CStringT@DV?$StrTraitMFC_DLL@DV?$ChTraitsCRT@D@ATL@@@@@ATL@@QAE@XZ
  00031	8b 1d 00 00 00
	00		 mov	 ebx, DWORD PTR __imp_?Format@?$CStringT@DV?$StrTraitMFC_DLL@DV?$ChTraitsCRT@D@ATL@@@@@ATL@@QAAXPBDZZ
  00037	33 f6		 xor	 esi, esi
  00039	c7 45 fc 00 00
	00 00		 mov	 DWORD PTR __$EHRec$[ebp+8], 0
$LL4@RemoveInfo:

; 384  : 	for(int nPos=0;nPos<MAXCNTOFPLOTHOLDER;nPos++)
; 385  : 	{
; 386  : 		// type
; 387  : 		strKeyName.Format("%s%d",INDEXTYPE,nPos);

  00040	56		 push	 esi
  00041	68 00 00 00 00	 push	 OFFSET ??_C@_04KOACHJEN@Type@
  00046	8d 45 f0	 lea	 eax, DWORD PTR _strKeyName$[ebp]
  00049	68 00 00 00 00	 push	 OFFSET ??_C@_04HGGBINEM@?$CFs?$CFd@
  0004e	50		 push	 eax
  0004f	ff d3		 call	 ebx

; 388  : 		((CDlgSTOption*)m_pDlgSTOption)->WritePrivateProfileStringInST(INDEX,strKeyName,"",nUseType);

  00051	8b 8f 34 07 00
	00		 mov	 ecx, DWORD PTR [edi+1844]
  00057	83 c4 10	 add	 esp, 16			; 00000010H
  0005a	6a 02		 push	 2
  0005c	68 00 00 00 00	 push	 OFFSET ??_C@_00CNPNBAHC@@
  00061	ff 75 f0	 push	 DWORD PTR _strKeyName$[ebp]
  00064	68 00 00 00 00	 push	 OFFSET ??_C@_05FNNGFGLF@Index@
  00069	e8 00 00 00 00	 call	 ?WritePrivateProfileStringInST@CDlgSTOption@@QAEHPBD00H@Z ; CDlgSTOption::WritePrivateProfileStringInST

; 389  : 		
; 390  : 		// color
; 391  : 		strKeyName.Format("%s%d",INDEXCOLOR,nPos);

  0006e	56		 push	 esi
  0006f	68 00 00 00 00	 push	 OFFSET ??_C@_05PDOBBJNA@Color@
  00074	8d 45 f0	 lea	 eax, DWORD PTR _strKeyName$[ebp]
  00077	68 00 00 00 00	 push	 OFFSET ??_C@_04HGGBINEM@?$CFs?$CFd@
  0007c	50		 push	 eax
  0007d	ff d3		 call	 ebx

; 392  : 		((CDlgSTOption*)m_pDlgSTOption)->WritePrivateProfileStringInST(INDEX,strKeyName,"",nUseType);

  0007f	8b 8f 34 07 00
	00		 mov	 ecx, DWORD PTR [edi+1844]
  00085	83 c4 10	 add	 esp, 16			; 00000010H
  00088	6a 02		 push	 2
  0008a	68 00 00 00 00	 push	 OFFSET ??_C@_00CNPNBAHC@@
  0008f	ff 75 f0	 push	 DWORD PTR _strKeyName$[ebp]
  00092	68 00 00 00 00	 push	 OFFSET ??_C@_05FNNGFGLF@Index@
  00097	e8 00 00 00 00	 call	 ?WritePrivateProfileStringInST@CDlgSTOption@@QAEHPBD00H@Z ; CDlgSTOption::WritePrivateProfileStringInST

; 393  : 
; 394  : 		// Shape
; 395  : 		strKeyName.Format("%s%d",INDEXSHAPE,nPos);

  0009c	56		 push	 esi
  0009d	68 00 00 00 00	 push	 OFFSET ??_C@_05KCIEHPFN@Shape@
  000a2	8d 45 f0	 lea	 eax, DWORD PTR _strKeyName$[ebp]
  000a5	68 00 00 00 00	 push	 OFFSET ??_C@_04HGGBINEM@?$CFs?$CFd@
  000aa	50		 push	 eax
  000ab	ff d3		 call	 ebx

; 396  : 		((CDlgSTOption*)m_pDlgSTOption)->WritePrivateProfileStringInST(INDEX,strKeyName,"",nUseType);

  000ad	8b 8f 34 07 00
	00		 mov	 ecx, DWORD PTR [edi+1844]
  000b3	83 c4 10	 add	 esp, 16			; 00000010H
  000b6	6a 02		 push	 2
  000b8	68 00 00 00 00	 push	 OFFSET ??_C@_00CNPNBAHC@@
  000bd	ff 75 f0	 push	 DWORD PTR _strKeyName$[ebp]
  000c0	68 00 00 00 00	 push	 OFFSET ??_C@_05FNNGFGLF@Index@
  000c5	e8 00 00 00 00	 call	 ?WritePrivateProfileStringInST@CDlgSTOption@@QAEHPBD00H@Z ; CDlgSTOption::WritePrivateProfileStringInST

; 397  : 
; 398  : 		// Thick
; 399  : 		strKeyName.Format("%s%d",INDEXTHICK,nPos);

  000ca	56		 push	 esi
  000cb	68 00 00 00 00	 push	 OFFSET ??_C@_05PKNGFHKN@Thick@
  000d0	8d 45 f0	 lea	 eax, DWORD PTR _strKeyName$[ebp]
  000d3	68 00 00 00 00	 push	 OFFSET ??_C@_04HGGBINEM@?$CFs?$CFd@
  000d8	50		 push	 eax
  000d9	ff d3		 call	 ebx

; 400  : 		((CDlgSTOption*)m_pDlgSTOption)->WritePrivateProfileStringInST(INDEX,strKeyName,"",nUseType);

  000db	8b 8f 34 07 00
	00		 mov	 ecx, DWORD PTR [edi+1844]
  000e1	83 c4 10	 add	 esp, 16			; 00000010H
  000e4	6a 02		 push	 2
  000e6	68 00 00 00 00	 push	 OFFSET ??_C@_00CNPNBAHC@@
  000eb	ff 75 f0	 push	 DWORD PTR _strKeyName$[ebp]
  000ee	68 00 00 00 00	 push	 OFFSET ??_C@_05FNNGFGLF@Index@
  000f3	e8 00 00 00 00	 call	 ?WritePrivateProfileStringInST@CDlgSTOption@@QAEHPBD00H@Z ; CDlgSTOption::WritePrivateProfileStringInST
  000f8	46		 inc	 esi
  000f9	83 fe 17	 cmp	 esi, 23			; 00000017H
  000fc	0f 8c 3e ff ff
	ff		 jl	 $LL4@RemoveInfo

; 401  : 	}	
; 402  : 
; 403  : 	((CDlgSTOption*)m_pDlgSTOption)->WritePrivateProfileStringInST(INDEX,COLORBULL,"",nUseType);

  00102	8b 8f 34 07 00
	00		 mov	 ecx, DWORD PTR [edi+1844]
  00108	6a 02		 push	 2
  0010a	68 00 00 00 00	 push	 OFFSET ??_C@_00CNPNBAHC@@
  0010f	68 00 00 00 00	 push	 OFFSET ??_C@_07MBGECCKL@ClrBull@
  00114	68 00 00 00 00	 push	 OFFSET ??_C@_05FNNGFGLF@Index@
  00119	e8 00 00 00 00	 call	 ?WritePrivateProfileStringInST@CDlgSTOption@@QAEHPBD00H@Z ; CDlgSTOption::WritePrivateProfileStringInST

; 404  : 	((CDlgSTOption*)m_pDlgSTOption)->WritePrivateProfileStringInST(INDEX,COLORBEAR,"",nUseType);

  0011e	8b 8f 34 07 00
	00		 mov	 ecx, DWORD PTR [edi+1844]
  00124	6a 02		 push	 2
  00126	68 00 00 00 00	 push	 OFFSET ??_C@_00CNPNBAHC@@
  0012b	68 00 00 00 00	 push	 OFFSET ??_C@_07ENOENJLI@ClrBear@
  00130	68 00 00 00 00	 push	 OFFSET ??_C@_05FNNGFGLF@Index@
  00135	e8 00 00 00 00	 call	 ?WritePrivateProfileStringInST@CDlgSTOption@@QAEHPBD00H@Z ; CDlgSTOption::WritePrivateProfileStringInST

; 405  : }

  0013a	8d 4d f0	 lea	 ecx, DWORD PTR _strKeyName$[ebp]
  0013d	ff 15 00 00 00
	00		 call	 DWORD PTR __imp_??1?$CStringT@DV?$StrTraitMFC_DLL@DV?$ChTraitsCRT@D@ATL@@@@@ATL@@QAE@XZ
  00143	8b 4d f4	 mov	 ecx, DWORD PTR __$EHRec$[ebp]
  00146	64 89 0d 00 00
	00 00		 mov	 DWORD PTR fs:0, ecx
  0014d	59		 pop	 ecx
  0014e	5f		 pop	 edi
  0014f	5e		 pop	 esi
  00150	5b		 pop	 ebx
  00151	8b e5		 mov	 esp, ebp
  00153	5d		 pop	 ebp
  00154	c3		 ret	 0
_TEXT	ENDS
;	COMDAT text$x
text$x	SEGMENT
__unwindfunclet$?RemoveInfo@CTabIndex@@EAEXXZ$0:
  00000	8d 4d f0	 lea	 ecx, DWORD PTR _strKeyName$[ebp]
  00003	ff 25 00 00 00
	00		 jmp	 DWORD PTR __imp_??1?$CStringT@DV?$StrTraitMFC_DLL@DV?$ChTraitsCRT@D@ATL@@@@@ATL@@QAE@XZ
  00009	cc		 int	 3
  0000a	cc		 int	 3
  0000b	cc		 int	 3
  0000c	cc		 int	 3
  0000d	cc		 int	 3
__ehhandler$?RemoveInfo@CTabIndex@@EAEXXZ:
  0000e	90		 npad	 1
  0000f	90		 npad	 1
  00010	8b 54 24 08	 mov	 edx, DWORD PTR [esp+8]
  00014	8d 42 0c	 lea	 eax, DWORD PTR [edx+12]
  00017	8b 4a ec	 mov	 ecx, DWORD PTR [edx-20]
  0001a	33 c8		 xor	 ecx, eax
  0001c	e8 00 00 00 00	 call	 @__security_check_cookie@4
  00021	b8 00 00 00 00	 mov	 eax, OFFSET __ehfuncinfo$?RemoveInfo@CTabIndex@@EAEXXZ
  00026	e9 00 00 00 00	 jmp	 ___CxxFrameHandler3
text$x	ENDS
?RemoveInfo@CTabIndex@@EAEXXZ ENDP			; CTabIndex::RemoveInfo
; Function compile flags: /Ogtp
; File D:\git\src\IBK\IBK_DRFN\ProjSrc\SrcDrfn\Chart\STCONFIGUREDLG\TabIndex.cpp
; File C:\Program Files (x86)\Microsoft Visual Studio\2019\Community\VC\Tools\MSVC\14.29.30133\atlmfc\include\afxwin2.inl
; File D:\git\src\IBK\IBK_DRFN\ProjSrc\SrcDrfn\Chart\STCONFIGUREDLG\TabIndex.cpp
; File C:\Program Files (x86)\Microsoft Visual Studio\2019\Community\VC\Tools\MSVC\14.29.30133\atlmfc\include\afxcmn.inl
; File D:\git\src\IBK\IBK_DRFN\ProjSrc\SrcDrfn\Chart\STCONFIGUREDLG\TabIndex.cpp
; File C:\Program Files (x86)\Microsoft Visual Studio\2019\Community\VC\Tools\MSVC\14.29.30133\atlmfc\include\afxcmn.inl
; File D:\git\src\IBK\IBK_DRFN\ProjSrc\SrcDrfn\Chart\STCONFIGUREDLG\TabIndex.cpp
; File C:\Program Files (x86)\Microsoft Visual Studio\2019\Community\VC\Tools\MSVC\14.29.30133\atlmfc\include\afxwin2.inl
; File C:\Program Files (x86)\Microsoft Visual Studio\2019\Community\VC\Tools\MSVC\14.29.30133\atlmfc\include\afxtempl.h
; File D:\git\src\IBK\IBK_DRFN\ProjSrc\SrcDrfn\Chart\STCONFIGUREDLG\TabIndex.cpp
; File C:\Program Files (x86)\Microsoft Visual Studio\2019\Community\VC\Tools\MSVC\14.29.30133\atlmfc\include\afxtempl.h
; File D:\git\src\IBK\IBK_DRFN\ProjSrc\SrcDrfn\Chart\STCONFIGUREDLG\TabIndex.cpp
;	COMDAT ?SaveInfo@CTabIndex@@EAEHXZ
_TEXT	SEGMENT
_indexData$6$ = -56					; size = 16
_strItemText$ = -40					; size = 4
_nItemCount$1$ = -36					; size = 4
tv416 = -32						; size = 4
_nPos$1$ = -28						; size = 4
_nUseType$1$ = -24					; size = 4
_strKeyName$ = -20					; size = 4
_strKeyData$ = -16					; size = 4
__$EHRec$ = -12						; size = 12
?SaveInfo@CTabIndex@@EAEHXZ PROC			; CTabIndex::SaveInfo, COMDAT
; _this$ = ecx

; 339  : {

  00000	55		 push	 ebp
  00001	8b ec		 mov	 ebp, esp
  00003	6a ff		 push	 -1
  00005	68 00 00 00 00	 push	 __ehhandler$?SaveInfo@CTabIndex@@EAEHXZ
  0000a	64 a1 00 00 00
	00		 mov	 eax, DWORD PTR fs:0
  00010	50		 push	 eax
  00011	83 ec 2c	 sub	 esp, 44			; 0000002cH
  00014	56		 push	 esi
  00015	57		 push	 edi
  00016	a1 00 00 00 00	 mov	 eax, DWORD PTR ___security_cookie
  0001b	33 c5		 xor	 eax, ebp
  0001d	50		 push	 eax
  0001e	8d 45 f4	 lea	 eax, DWORD PTR __$EHRec$[ebp]
  00021	64 a3 00 00 00
	00		 mov	 DWORD PTR fs:0, eax
  00027	8b f1		 mov	 esi, ecx
; File C:\Program Files (x86)\Microsoft Visual Studio\2019\Community\VC\Tools\MSVC\14.29.30133\atlmfc\include\afxwin2.inl

; 628  : 	{ ASSERT(::IsWindow(m_hWnd)); return (int)::SendMessage(m_hWnd, BM_GETCHECK, 0, 0); }

  00029	8b 3d 00 00 00
	00		 mov	 edi, DWORD PTR __imp__SendMessageA@16
  0002f	6a 00		 push	 0
  00031	6a 00		 push	 0
  00033	68 f0 00 00 00	 push	 240			; 000000f0H
  00038	ff b6 d0 01 00
	00		 push	 DWORD PTR [esi+464]
  0003e	ff d7		 call	 edi
; File D:\git\src\IBK\IBK_DRFN\ProjSrc\SrcDrfn\Chart\STCONFIGUREDLG\TabIndex.cpp

; 340  : 	int nUseType = m_chkSaveAsDefault.GetCheck()==TRUE? 3 : 2;

  00040	48		 dec	 eax

; 341  : 	COLORREF clrIndex = RGB(0,0,0);
; 342  : 	DWORD dSizeRead = 0;
; 343  : 	CString strKeyName;

  00041	8d 4d ec	 lea	 ecx, DWORD PTR _strKeyName$[ebp]
  00044	f7 d8		 neg	 eax
  00046	1b c0		 sbb	 eax, eax
  00048	83 c0 03	 add	 eax, 3
  0004b	89 45 e8	 mov	 DWORD PTR _nUseType$1$[ebp], eax
  0004e	ff 15 00 00 00
	00		 call	 DWORD PTR __imp_??0?$CStringT@DV?$StrTraitMFC_DLL@DV?$ChTraitsCRT@D@ATL@@@@@ATL@@QAE@XZ

; 344  : 	CString strKeyData;

  00054	8d 4d f0	 lea	 ecx, DWORD PTR _strKeyData$[ebp]
  00057	c7 45 fc 00 00
	00 00		 mov	 DWORD PTR __$EHRec$[ebp+8], 0
  0005e	ff 15 00 00 00
	00		 call	 DWORD PTR __imp_??0?$CStringT@DV?$StrTraitMFC_DLL@DV?$ChTraitsCRT@D@ATL@@@@@ATL@@QAE@XZ

; 346  : 	CString strItemText;

  00064	8d 4d d8	 lea	 ecx, DWORD PTR _strItemText$[ebp]
  00067	ff 15 00 00 00
	00		 call	 DWORD PTR __imp_??0?$CStringT@DV?$StrTraitMFC_DLL@DV?$ChTraitsCRT@D@ATL@@@@@ATL@@QAE@XZ
; File C:\Program Files (x86)\Microsoft Visual Studio\2019\Community\VC\Tools\MSVC\14.29.30133\atlmfc\include\afxcmn.inl

; 155  : 	{ ASSERT(::IsWindow(m_hWnd)); return (int) ::SendMessage(m_hWnd, LVM_GETITEMCOUNT, 0, 0L); }

  0006d	6a 00		 push	 0
  0006f	6a 00		 push	 0
  00071	68 04 10 00 00	 push	 4100			; 00001004H
  00076	ff b6 e0 02 00
	00		 push	 DWORD PTR [esi+736]
; File D:\git\src\IBK\IBK_DRFN\ProjSrc\SrcDrfn\Chart\STCONFIGUREDLG\TabIndex.cpp

; 346  : 	CString strItemText;

  0007c	c6 45 fc 02	 mov	 BYTE PTR __$EHRec$[ebp+8], 2
; File C:\Program Files (x86)\Microsoft Visual Studio\2019\Community\VC\Tools\MSVC\14.29.30133\atlmfc\include\afxcmn.inl

; 155  : 	{ ASSERT(::IsWindow(m_hWnd)); return (int) ::SendMessage(m_hWnd, LVM_GETITEMCOUNT, 0, 0L); }

  00080	ff d7		 call	 edi
; File D:\git\src\IBK\IBK_DRFN\ProjSrc\SrcDrfn\Chart\STCONFIGUREDLG\TabIndex.cpp

; 349  : 	for(int nPos=0;nPos<nItemCount;nPos++)

  00082	8b 15 00 00 00
	00		 mov	 edx, DWORD PTR __imp_?Format@?$CStringT@DV?$StrTraitMFC_DLL@DV?$ChTraitsCRT@D@ATL@@@@@ATL@@QAAXPBDZZ
  00088	8b c8		 mov	 ecx, eax
  0008a	33 c0		 xor	 eax, eax
  0008c	89 4d dc	 mov	 DWORD PTR _nItemCount$1$[ebp], ecx
  0008f	89 45 e4	 mov	 DWORD PTR _nPos$1$[ebp], eax
  00092	85 c9		 test	 ecx, ecx
  00094	0f 8e 76 01 00
	00		 jle	 $LN45@SaveInfo
; File C:\Program Files (x86)\Microsoft Visual Studio\2019\Community\VC\Tools\MSVC\14.29.30133\atlmfc\include\afxwin2.inl

; 628  : 	{ ASSERT(::IsWindow(m_hWnd)); return (int)::SendMessage(m_hWnd, BM_GETCHECK, 0, 0); }

  0009a	33 c9		 xor	 ecx, ecx
  0009c	89 4d e0	 mov	 DWORD PTR tv416[ebp], ecx
  0009f	90		 npad	 1
$LL4@SaveInfo:
; File C:\Program Files (x86)\Microsoft Visual Studio\2019\Community\VC\Tools\MSVC\14.29.30133\atlmfc\include\afxtempl.h

; 288  : 	if(nIndex >= 0 && nIndex < m_nSize)

  000a0	85 c9		 test	 ecx, ecx
  000a2	0f 88 fa 01 00
	00		 js	 $LN18@SaveInfo
  000a8	3b 86 20 07 00
	00		 cmp	 eax, DWORD PTR [esi+1824]
  000ae	0f 8d ee 01 00
	00		 jge	 $LN18@SaveInfo

; 289  : 		return m_pData[nIndex];

  000b4	8b 86 1c 07 00
	00		 mov	 eax, DWORD PTR [esi+1820]
; File D:\git\src\IBK\IBK_DRFN\ProjSrc\SrcDrfn\Chart\STCONFIGUREDLG\TabIndex.cpp

; 351  : 		indexData = m_arrayIndexData.GetAt(nPos);

  000ba	8b 7c 08 10	 mov	 edi, DWORD PTR [eax+ecx+16]
  000be	0f 10 04 08	 movups	 xmm0, XMMWORD PTR [eax+ecx]

; 352  : 		// type
; 353  : 		strKeyName.Format("%s%d",INDEXTYPE,indexData.m_nPos);

  000c2	57		 push	 edi
  000c3	68 00 00 00 00	 push	 OFFSET ??_C@_04KOACHJEN@Type@
  000c8	8d 45 ec	 lea	 eax, DWORD PTR _strKeyName$[ebp]
  000cb	68 00 00 00 00	 push	 OFFSET ??_C@_04HGGBINEM@?$CFs?$CFd@
  000d0	50		 push	 eax
  000d1	0f 11 45 c8	 movups	 XMMWORD PTR _indexData$6$[ebp], xmm0
  000d5	ff d2		 call	 edx

; 354  : 		strKeyData.Format("%d",indexData.m_lType);

  000d7	0f 10 45 c8	 movups	 xmm0, XMMWORD PTR _indexData$6$[ebp]
  000db	66 0f 73 d8 04	 psrldq	 xmm0, 4
  000e0	66 0f 7e c0	 movd	 eax, xmm0
  000e4	50		 push	 eax
  000e5	8d 45 f0	 lea	 eax, DWORD PTR _strKeyData$[ebp]
  000e8	68 00 00 00 00	 push	 OFFSET ??_C@_02DPKJAMEF@?$CFd@
  000ed	50		 push	 eax
  000ee	ff 15 00 00 00
	00		 call	 DWORD PTR __imp_?Format@?$CStringT@DV?$StrTraitMFC_DLL@DV?$ChTraitsCRT@D@ATL@@@@@ATL@@QAAXPBDZZ

; 355  : 		((CDlgSTOption*)m_pDlgSTOption)->WritePrivateProfileStringInST(INDEX,strKeyName,strKeyData,nUseType);

  000f4	8b 8e 34 07 00
	00		 mov	 ecx, DWORD PTR [esi+1844]
  000fa	83 c4 1c	 add	 esp, 28			; 0000001cH
  000fd	ff 75 e8	 push	 DWORD PTR _nUseType$1$[ebp]
  00100	ff 75 f0	 push	 DWORD PTR _strKeyData$[ebp]
  00103	ff 75 ec	 push	 DWORD PTR _strKeyName$[ebp]
  00106	68 00 00 00 00	 push	 OFFSET ??_C@_05FNNGFGLF@Index@
  0010b	e8 00 00 00 00	 call	 ?WritePrivateProfileStringInST@CDlgSTOption@@QAEHPBD00H@Z ; CDlgSTOption::WritePrivateProfileStringInST

; 356  : 		
; 357  : 		// color
; 358  : 		strKeyName.Format("%s%d",INDEXCOLOR,indexData.m_nPos);

  00110	57		 push	 edi
  00111	68 00 00 00 00	 push	 OFFSET ??_C@_05PDOBBJNA@Color@
  00116	8d 45 ec	 lea	 eax, DWORD PTR _strKeyName$[ebp]
  00119	68 00 00 00 00	 push	 OFFSET ??_C@_04HGGBINEM@?$CFs?$CFd@
  0011e	50		 push	 eax
  0011f	ff 15 00 00 00
	00		 call	 DWORD PTR __imp_?Format@?$CStringT@DV?$StrTraitMFC_DLL@DV?$ChTraitsCRT@D@ATL@@@@@ATL@@QAAXPBDZZ

; 359  : 		strKeyData.Format("%d",indexData.m_clrIndex);

  00125	8b 45 c8	 mov	 eax, DWORD PTR _indexData$6$[ebp]
  00128	50		 push	 eax
  00129	8d 45 f0	 lea	 eax, DWORD PTR _strKeyData$[ebp]
  0012c	68 00 00 00 00	 push	 OFFSET ??_C@_02DPKJAMEF@?$CFd@
  00131	50		 push	 eax
  00132	ff 15 00 00 00
	00		 call	 DWORD PTR __imp_?Format@?$CStringT@DV?$StrTraitMFC_DLL@DV?$ChTraitsCRT@D@ATL@@@@@ATL@@QAAXPBDZZ

; 360  : 		((CDlgSTOption*)m_pDlgSTOption)->WritePrivateProfileStringInST(INDEX,strKeyName,strKeyData,nUseType);

  00138	8b 8e 34 07 00
	00		 mov	 ecx, DWORD PTR [esi+1844]
  0013e	83 c4 1c	 add	 esp, 28			; 0000001cH
  00141	ff 75 e8	 push	 DWORD PTR _nUseType$1$[ebp]
  00144	ff 75 f0	 push	 DWORD PTR _strKeyData$[ebp]
  00147	ff 75 ec	 push	 DWORD PTR _strKeyName$[ebp]
  0014a	68 00 00 00 00	 push	 OFFSET ??_C@_05FNNGFGLF@Index@
  0014f	e8 00 00 00 00	 call	 ?WritePrivateProfileStringInST@CDlgSTOption@@QAEHPBD00H@Z ; CDlgSTOption::WritePrivateProfileStringInST

; 361  : 
; 362  : 		// Shape
; 363  : 		strKeyName.Format("%s%d",INDEXSHAPE,indexData.m_nPos);

  00154	57		 push	 edi
  00155	68 00 00 00 00	 push	 OFFSET ??_C@_05KCIEHPFN@Shape@
  0015a	8d 45 ec	 lea	 eax, DWORD PTR _strKeyName$[ebp]
  0015d	68 00 00 00 00	 push	 OFFSET ??_C@_04HGGBINEM@?$CFs?$CFd@
  00162	50		 push	 eax
  00163	ff 15 00 00 00
	00		 call	 DWORD PTR __imp_?Format@?$CStringT@DV?$StrTraitMFC_DLL@DV?$ChTraitsCRT@D@ATL@@@@@ATL@@QAAXPBDZZ

; 364  : 		strKeyData.Format("%d",indexData.m_lShape);

  00169	0f 10 45 c8	 movups	 xmm0, XMMWORD PTR _indexData$6$[ebp]
  0016d	66 0f 73 d8 08	 psrldq	 xmm0, 8
  00172	66 0f 7e c0	 movd	 eax, xmm0
  00176	50		 push	 eax
  00177	8d 45 f0	 lea	 eax, DWORD PTR _strKeyData$[ebp]
  0017a	68 00 00 00 00	 push	 OFFSET ??_C@_02DPKJAMEF@?$CFd@
  0017f	50		 push	 eax
  00180	ff 15 00 00 00
	00		 call	 DWORD PTR __imp_?Format@?$CStringT@DV?$StrTraitMFC_DLL@DV?$ChTraitsCRT@D@ATL@@@@@ATL@@QAAXPBDZZ

; 365  : 		((CDlgSTOption*)m_pDlgSTOption)->WritePrivateProfileStringInST(INDEX,strKeyName,strKeyData,nUseType);

  00186	8b 8e 34 07 00
	00		 mov	 ecx, DWORD PTR [esi+1844]
  0018c	83 c4 1c	 add	 esp, 28			; 0000001cH
  0018f	ff 75 e8	 push	 DWORD PTR _nUseType$1$[ebp]
  00192	ff 75 f0	 push	 DWORD PTR _strKeyData$[ebp]
  00195	ff 75 ec	 push	 DWORD PTR _strKeyName$[ebp]
  00198	68 00 00 00 00	 push	 OFFSET ??_C@_05FNNGFGLF@Index@
  0019d	e8 00 00 00 00	 call	 ?WritePrivateProfileStringInST@CDlgSTOption@@QAEHPBD00H@Z ; CDlgSTOption::WritePrivateProfileStringInST

; 366  : 
; 367  : 		// Thick
; 368  : 		strKeyName.Format("%s%d",INDEXTHICK,indexData.m_nPos);

  001a2	57		 push	 edi
  001a3	8b 3d 00 00 00
	00		 mov	 edi, DWORD PTR __imp_?Format@?$CStringT@DV?$StrTraitMFC_DLL@DV?$ChTraitsCRT@D@ATL@@@@@ATL@@QAAXPBDZZ
  001a9	8d 45 ec	 lea	 eax, DWORD PTR _strKeyName$[ebp]
  001ac	68 00 00 00 00	 push	 OFFSET ??_C@_05PKNGFHKN@Thick@
  001b1	68 00 00 00 00	 push	 OFFSET ??_C@_04HGGBINEM@?$CFs?$CFd@
  001b6	50		 push	 eax
  001b7	ff d7		 call	 edi

; 369  : 		strKeyData.Format("%d",indexData.m_lThick);

  001b9	0f 10 45 c8	 movups	 xmm0, XMMWORD PTR _indexData$6$[ebp]
  001bd	66 0f 73 d8 0c	 psrldq	 xmm0, 12		; 0000000cH
  001c2	66 0f 7e c0	 movd	 eax, xmm0
  001c6	50		 push	 eax
  001c7	8d 45 f0	 lea	 eax, DWORD PTR _strKeyData$[ebp]
  001ca	68 00 00 00 00	 push	 OFFSET ??_C@_02DPKJAMEF@?$CFd@
  001cf	50		 push	 eax
  001d0	ff d7		 call	 edi
  001d2	83 c4 1c	 add	 esp, 28			; 0000001cH

; 370  : 		((CDlgSTOption*)m_pDlgSTOption)->WritePrivateProfileStringInST(INDEX,strKeyName,strKeyData,nUseType);

  001d5	8b 7d e8	 mov	 edi, DWORD PTR _nUseType$1$[ebp]
  001d8	8b 8e 34 07 00
	00		 mov	 ecx, DWORD PTR [esi+1844]
  001de	57		 push	 edi
  001df	ff 75 f0	 push	 DWORD PTR _strKeyData$[ebp]
  001e2	ff 75 ec	 push	 DWORD PTR _strKeyName$[ebp]
  001e5	68 00 00 00 00	 push	 OFFSET ??_C@_05FNNGFGLF@Index@
  001ea	e8 00 00 00 00	 call	 ?WritePrivateProfileStringInST@CDlgSTOption@@QAEHPBD00H@Z ; CDlgSTOption::WritePrivateProfileStringInST
  001ef	8b 45 e4	 mov	 eax, DWORD PTR _nPos$1$[ebp]
  001f2	8b 4d e0	 mov	 ecx, DWORD PTR tv416[ebp]
  001f5	40		 inc	 eax
  001f6	8b 15 00 00 00
	00		 mov	 edx, DWORD PTR __imp_?Format@?$CStringT@DV?$StrTraitMFC_DLL@DV?$ChTraitsCRT@D@ATL@@@@@ATL@@QAAXPBDZZ
  001fc	83 c1 14	 add	 ecx, 20			; 00000014H
  001ff	89 45 e4	 mov	 DWORD PTR _nPos$1$[ebp], eax
  00202	89 4d e0	 mov	 DWORD PTR tv416[ebp], ecx
  00205	3b 45 dc	 cmp	 eax, DWORD PTR _nItemCount$1$[ebp]
  00208	0f 8c 92 fe ff
	ff		 jl	 $LL4@SaveInfo

; 349  : 	for(int nPos=0;nPos<nItemCount;nPos++)

  0020e	eb 03		 jmp	 SHORT $LN3@SaveInfo
$LN45@SaveInfo:
  00210	8b 7d e8	 mov	 edi, DWORD PTR _nUseType$1$[ebp]
$LN3@SaveInfo:

; 371  : 	}	
; 372  : 
; 373  : 	strKeyData.Format("%d",m_btnClrBull.GetColor());

  00213	ff b6 08 07 00
	00		 push	 DWORD PTR [esi+1800]
  00219	8d 45 f0	 lea	 eax, DWORD PTR _strKeyData$[ebp]
  0021c	68 00 00 00 00	 push	 OFFSET ??_C@_02DPKJAMEF@?$CFd@
  00221	50		 push	 eax
  00222	ff d2		 call	 edx

; 374  : 	((CDlgSTOption*)m_pDlgSTOption)->WritePrivateProfileStringInST(INDEX,COLORBULL,strKeyData,nUseType);

  00224	8b 8e 34 07 00
	00		 mov	 ecx, DWORD PTR [esi+1844]
  0022a	83 c4 0c	 add	 esp, 12			; 0000000cH
  0022d	57		 push	 edi
  0022e	ff 75 f0	 push	 DWORD PTR _strKeyData$[ebp]
  00231	68 00 00 00 00	 push	 OFFSET ??_C@_07MBGECCKL@ClrBull@
  00236	68 00 00 00 00	 push	 OFFSET ??_C@_05FNNGFGLF@Index@
  0023b	e8 00 00 00 00	 call	 ?WritePrivateProfileStringInST@CDlgSTOption@@QAEHPBD00H@Z ; CDlgSTOption::WritePrivateProfileStringInST

; 375  : 	strKeyData.Format("%d",m_btnClrBear.GetColor());

  00240	ff b6 78 06 00
	00		 push	 DWORD PTR [esi+1656]
  00246	8d 45 f0	 lea	 eax, DWORD PTR _strKeyData$[ebp]
  00249	68 00 00 00 00	 push	 OFFSET ??_C@_02DPKJAMEF@?$CFd@
  0024e	50		 push	 eax
  0024f	ff 15 00 00 00
	00		 call	 DWORD PTR __imp_?Format@?$CStringT@DV?$StrTraitMFC_DLL@DV?$ChTraitsCRT@D@ATL@@@@@ATL@@QAAXPBDZZ

; 376  : 	((CDlgSTOption*)m_pDlgSTOption)->WritePrivateProfileStringInST(INDEX,COLORBEAR,strKeyData,nUseType);

  00255	8b 8e 34 07 00
	00		 mov	 ecx, DWORD PTR [esi+1844]
  0025b	83 c4 0c	 add	 esp, 12			; 0000000cH
  0025e	57		 push	 edi
  0025f	ff 75 f0	 push	 DWORD PTR _strKeyData$[ebp]
  00262	68 00 00 00 00	 push	 OFFSET ??_C@_07ENOENJLI@ClrBear@
  00267	68 00 00 00 00	 push	 OFFSET ??_C@_05FNNGFGLF@Index@
  0026c	e8 00 00 00 00	 call	 ?WritePrivateProfileStringInST@CDlgSTOption@@QAEHPBD00H@Z ; CDlgSTOption::WritePrivateProfileStringInST

; 377  : 	return TRUE;

  00271	8d 4d d8	 lea	 ecx, DWORD PTR _strItemText$[ebp]
  00274	ff 15 00 00 00
	00		 call	 DWORD PTR __imp_??1?$CStringT@DV?$StrTraitMFC_DLL@DV?$ChTraitsCRT@D@ATL@@@@@ATL@@QAE@XZ
  0027a	8d 4d f0	 lea	 ecx, DWORD PTR _strKeyData$[ebp]
  0027d	ff 15 00 00 00
	00		 call	 DWORD PTR __imp_??1?$CStringT@DV?$StrTraitMFC_DLL@DV?$ChTraitsCRT@D@ATL@@@@@ATL@@QAE@XZ
  00283	8d 4d ec	 lea	 ecx, DWORD PTR _strKeyName$[ebp]
  00286	ff 15 00 00 00
	00		 call	 DWORD PTR __imp_??1?$CStringT@DV?$StrTraitMFC_DLL@DV?$ChTraitsCRT@D@ATL@@@@@ATL@@QAE@XZ
  0028c	b8 01 00 00 00	 mov	 eax, 1

; 378  : }

  00291	8b 4d f4	 mov	 ecx, DWORD PTR __$EHRec$[ebp]
  00294	64 89 0d 00 00
	00 00		 mov	 DWORD PTR fs:0, ecx
  0029b	59		 pop	 ecx
  0029c	5f		 pop	 edi
  0029d	5e		 pop	 esi
  0029e	8b e5		 mov	 esp, ebp
  002a0	5d		 pop	 ebp
  002a1	c3		 ret	 0
$LN18@SaveInfo:
; File C:\Program Files (x86)\Microsoft Visual Studio\2019\Community\VC\Tools\MSVC\14.29.30133\atlmfc\include\afxtempl.h

; 290  : 	AfxThrowInvalidArgException();

  002a2	e8 00 00 00 00	 call	 ?AfxThrowInvalidArgException@@YGXXZ ; AfxThrowInvalidArgException
$LN47@SaveInfo:
  002a7	cc		 int	 3
_TEXT	ENDS
;	COMDAT text$x
text$x	SEGMENT
__unwindfunclet$?SaveInfo@CTabIndex@@EAEHXZ$0:
  00000	8d 4d ec	 lea	 ecx, DWORD PTR _strKeyName$[ebp]
  00003	ff 25 00 00 00
	00		 jmp	 DWORD PTR __imp_??1?$CStringT@DV?$StrTraitMFC_DLL@DV?$ChTraitsCRT@D@ATL@@@@@ATL@@QAE@XZ
__unwindfunclet$?SaveInfo@CTabIndex@@EAEHXZ$1:
  00009	8d 4d f0	 lea	 ecx, DWORD PTR _strKeyData$[ebp]
  0000c	ff 25 00 00 00
	00		 jmp	 DWORD PTR __imp_??1?$CStringT@DV?$StrTraitMFC_DLL@DV?$ChTraitsCRT@D@ATL@@@@@ATL@@QAE@XZ
__unwindfunclet$?SaveInfo@CTabIndex@@EAEHXZ$2:
  00012	8d 4d d8	 lea	 ecx, DWORD PTR _strItemText$[ebp]
  00015	ff 25 00 00 00
	00		 jmp	 DWORD PTR __imp_??1?$CStringT@DV?$StrTraitMFC_DLL@DV?$ChTraitsCRT@D@ATL@@@@@ATL@@QAE@XZ
  0001b	cc		 int	 3
  0001c	cc		 int	 3
  0001d	cc		 int	 3
  0001e	cc		 int	 3
  0001f	cc		 int	 3
__ehhandler$?SaveInfo@CTabIndex@@EAEHXZ:
  00020	90		 npad	 1
  00021	90		 npad	 1
  00022	8b 54 24 08	 mov	 edx, DWORD PTR [esp+8]
  00026	8d 42 0c	 lea	 eax, DWORD PTR [edx+12]
  00029	8b 4a c8	 mov	 ecx, DWORD PTR [edx-56]
  0002c	33 c8		 xor	 ecx, eax
  0002e	e8 00 00 00 00	 call	 @__security_check_cookie@4
  00033	b8 00 00 00 00	 mov	 eax, OFFSET __ehfuncinfo$?SaveInfo@CTabIndex@@EAEHXZ
  00038	e9 00 00 00 00	 jmp	 ___CxxFrameHandler3
text$x	ENDS
?SaveInfo@CTabIndex@@EAEHXZ ENDP			; CTabIndex::SaveInfo
; Function compile flags: /Ogtp
; File D:\git\src\IBK\IBK_DRFN\ProjSrc\SrcDrfn\Chart\STCONFIGUREDLG\TabIndex.cpp
; File D:\git\src\IBK\IBK_DRFN\ProjSrc\SrcDrfn\Chart\STCONFIGUREDLG\TabIndex.h
; File D:\git\src\IBK\IBK_DRFN\ProjSrc\SrcDrfn\Chart\STCONFIGUREDLG\TabIndex.cpp
; File C:\Program Files (x86)\Microsoft Visual Studio\2019\Community\VC\Tools\MSVC\14.29.30133\atlmfc\include\atlsimpstr.h
; File D:\git\src\IBK\IBK_DRFN\ProjSrc\SrcDrfn\Chart\STCONFIGUREDLG\TabIndex.cpp
; File C:\Program Files (x86)\Microsoft Visual Studio\2019\Community\VC\Tools\MSVC\14.29.30133\atlmfc\include\cstringt.h
; File D:\git\src\IBK\IBK_DRFN\ProjSrc\SrcDrfn\Chart\STCONFIGUREDLG\TabIndex.cpp
; File C:\Program Files (x86)\Microsoft Visual Studio\2019\Community\VC\Tools\MSVC\14.29.30133\atlmfc\include\cstringt.h
; File D:\git\src\IBK\IBK_DRFN\ProjSrc\SrcDrfn\Chart\STCONFIGUREDLG\TabIndex.cpp
; File C:\Program Files (x86)\Microsoft Visual Studio\2019\Community\VC\Tools\MSVC\14.29.30133\atlmfc\include\cstringt.h
; File D:\git\src\IBK\IBK_DRFN\ProjSrc\SrcDrfn\Chart\STCONFIGUREDLG\TabIndex.cpp
; File C:\Program Files (x86)\Microsoft Visual Studio\2019\Community\VC\Tools\MSVC\14.29.30133\atlmfc\include\atlsimpstr.h
; File D:\git\src\IBK\IBK_DRFN\ProjSrc\SrcDrfn\Chart\STCONFIGUREDLG\TabIndex.cpp
; File C:\Program Files (x86)\Microsoft Visual Studio\2019\Community\VC\Tools\MSVC\14.29.30133\atlmfc\include\cstringt.h
; File D:\git\src\IBK\IBK_DRFN\ProjSrc\SrcDrfn\Chart\STCONFIGUREDLG\TabIndex.cpp
; File C:\Program Files (x86)\Microsoft Visual Studio\2019\Community\VC\Tools\MSVC\14.29.30133\atlmfc\include\afxtempl.h
; File D:\git\src\IBK\IBK_DRFN\ProjSrc\SrcDrfn\Chart\STCONFIGUREDLG\TabIndex.cpp
; File C:\Program Files (x86)\Microsoft Visual Studio\2019\Community\VC\Tools\MSVC\14.29.30133\atlmfc\include\afxtempl.h
; File D:\git\src\IBK\IBK_DRFN\ProjSrc\SrcDrfn\Chart\STCONFIGUREDLG\TabIndex.cpp
; File C:\Program Files (x86)\Microsoft Visual Studio\2019\Community\VC\Tools\MSVC\14.29.30133\atlmfc\include\afxtempl.h
; File D:\git\src\IBK\IBK_DRFN\ProjSrc\SrcDrfn\Chart\STCONFIGUREDLG\TabIndex.cpp
; File C:\Program Files (x86)\Microsoft Visual Studio\2019\Community\VC\Tools\MSVC\14.29.30133\atlmfc\include\afxtempl.h
; File D:\git\src\IBK\IBK_DRFN\ProjSrc\SrcDrfn\Chart\STCONFIGUREDLG\TabIndex.cpp
;	COMDAT ?LoadInfo@CTabIndex@@EAEXXZ
_TEXT	SEGMENT
_indexData$ = -356					; size = 20
_clrBear$ = -336					; size = 4
_clrBull$ = -332					; size = 4
_bHasData$1$ = -328					; size = 4
_bIsFirst$1$ = -324					; size = 4
_pSTControllerCfg$1$ = -320				; size = 4
_bUseBull$1$ = -316					; size = 4
_this$GSCopy$1$ = -312					; size = 4
_lThick$1$ = -312					; size = 4
_bUseBear$1$ = -308					; size = 4
$T2 = -304						; size = 4
$T3 = -304						; size = 4
$T4 = -304						; size = 4
_lType$1$ = -300					; size = 4
_nShifter$5 = -300					; size = 4
_strGraphName$ = -296					; size = 4
_clrIndex$1$ = -292					; size = 4
_strComment$6 = -292					; size = 4
_lShape$1$ = -288					; size = 4
$T7 = -288						; size = 4
_lPosOfList$1$ = -284					; size = 4
_strKeyName$ = -280					; size = 4
tv613 = -276						; size = 4
_strItem$8 = -276					; size = 4
_szBuffer$ = -272					; size = 256
__$ArrayPad$ = -16					; size = 4
__$EHRec$ = -12						; size = 12
?LoadInfo@CTabIndex@@EAEXXZ PROC			; CTabIndex::LoadInfo, COMDAT
; _this$ = ecx

; 157  : {

  00000	55		 push	 ebp
  00001	8b ec		 mov	 ebp, esp
  00003	6a ff		 push	 -1
  00005	68 00 00 00 00	 push	 __ehhandler$?LoadInfo@CTabIndex@@EAEXXZ
  0000a	64 a1 00 00 00
	00		 mov	 eax, DWORD PTR fs:0
  00010	50		 push	 eax
  00011	81 ec 58 01 00
	00		 sub	 esp, 344		; 00000158H
  00017	a1 00 00 00 00	 mov	 eax, DWORD PTR ___security_cookie
  0001c	33 c5		 xor	 eax, ebp
  0001e	89 45 f0	 mov	 DWORD PTR __$ArrayPad$[ebp], eax
  00021	56		 push	 esi
  00022	57		 push	 edi
  00023	50		 push	 eax
  00024	8d 45 f4	 lea	 eax, DWORD PTR __$EHRec$[ebp]
  00027	64 a3 00 00 00
	00		 mov	 DWORD PTR fs:0, eax
  0002d	8b f9		 mov	 edi, ecx
  0002f	89 bd c8 fe ff
	ff		 mov	 DWORD PTR _this$GSCopy$1$[ebp], edi

; 158  : 	CISTControllerD* pSTControllerCfg = ((CDlgSTOption*)m_pDlgSTOption)->GetISTControllerD();

  00035	8b 87 34 07 00
	00		 mov	 eax, DWORD PTR [edi+1844]

; 159  : 	char szBuffer[256];
; 160  : 	long lType = 0;
; 161  : 	long lShape = 0;
; 162  : 	long lThick = 0;
; 163  : 	COLORREF clrIndex = RGB(0,0,0);
; 164  : 	COLORREF clrBull = RGB(0,0,0);
; 165  : 	COLORREF clrBear = RGB(0,0,0);
; 166  : 	CIDataItem *pDataItem = NULL;
; 167  : 	DWORD dSizeRead = 0;
; 168  : 	CString strKeyName;

  0003b	8d 8d e8 fe ff
	ff		 lea	 ecx, DWORD PTR _strKeyName$[ebp]
  00041	8b 80 bc 04 00
	00		 mov	 eax, DWORD PTR [eax+1212]
  00047	89 85 c0 fe ff
	ff		 mov	 DWORD PTR _pSTControllerCfg$1$[ebp], eax
  0004d	c7 85 b4 fe ff
	ff 00 00 00 00	 mov	 DWORD PTR _clrBull$[ebp], 0
  00057	c7 85 b0 fe ff
	ff 00 00 00 00	 mov	 DWORD PTR _clrBear$[ebp], 0
  00061	ff 15 00 00 00
	00		 call	 DWORD PTR __imp_??0?$CStringT@DV?$StrTraitMFC_DLL@DV?$ChTraitsCRT@D@ATL@@@@@ATL@@QAE@XZ
  00067	0f 57 c0	 xorps	 xmm0, xmm0
  0006a	c7 45 fc 00 00
	00 00		 mov	 DWORD PTR __$EHRec$[ebp+8], 0

; 170  : 	CString strGraphName;

  00071	8d 8d d8 fe ff
	ff		 lea	 ecx, DWORD PTR _strGraphName$[ebp]
; File D:\git\src\IBK\IBK_DRFN\ProjSrc\SrcDrfn\Chart\STCONFIGUREDLG\TabIndex.h

; 28   : 		m_clrIndex = RGB(0,0,0);

  00077	c7 85 9c fe ff
	ff 00 00 00 00	 mov	 DWORD PTR _indexData$[ebp], 0

; 29   : 		m_lType = 0;

  00081	0f 11 85 a0 fe
	ff ff		 movups	 XMMWORD PTR _indexData$[ebp+4], xmm0
; File D:\git\src\IBK\IBK_DRFN\ProjSrc\SrcDrfn\Chart\STCONFIGUREDLG\TabIndex.cpp

; 170  : 	CString strGraphName;

  00088	ff 15 00 00 00
	00		 call	 DWORD PTR __imp_??0?$CStringT@DV?$StrTraitMFC_DLL@DV?$ChTraitsCRT@D@ATL@@@@@ATL@@QAE@XZ

; 171  : 	BOOL bUseBull = FALSE;
; 172  : 	BOOL bUseBear = FALSE;
; 173  : 	BOOL bIsFirst = TRUE;
; 174  : 	BOOL bHasData = FALSE;
; 175  : 	long lPosOfList = 0;
; 176  : 
; 177  : 	if(pSTControllerCfg)

  0008e	8b 8d c0 fe ff
	ff		 mov	 ecx, DWORD PTR _pSTControllerCfg$1$[ebp]
  00094	33 c0		 xor	 eax, eax
  00096	8b 35 00 00 00
	00		 mov	 esi, DWORD PTR __imp__atol
  0009c	c6 45 fc 01	 mov	 BYTE PTR __$EHRec$[ebp+8], 1
  000a0	c7 85 c4 fe ff
	ff 00 00 00 00	 mov	 DWORD PTR _bUseBull$1$[ebp], 0
  000aa	c7 85 cc fe ff
	ff 00 00 00 00	 mov	 DWORD PTR _bUseBear$1$[ebp], 0
  000b4	c7 85 bc fe ff
	ff 01 00 00 00	 mov	 DWORD PTR _bIsFirst$1$[ebp], 1
  000be	89 85 b8 fe ff
	ff		 mov	 DWORD PTR _bHasData$1$[ebp], eax
  000c4	89 85 e4 fe ff
	ff		 mov	 DWORD PTR _lPosOfList$1$[ebp], eax
  000ca	85 c9		 test	 ecx, ecx
  000cc	0f 84 2d 01 00
	00		 je	 $LN7@LoadInfo

; 178  : 	{
; 179  : 		CString strComment = pSTControllerCfg->GetDeclaredInnerFuncInfo();

  000d2	8b 01		 mov	 eax, DWORD PTR [ecx]
  000d4	8d 95 dc fe ff
	ff		 lea	 edx, DWORD PTR _strComment$6[ebp]
  000da	52		 push	 edx
  000db	ff 90 dc 00 00
	00		 call	 DWORD PTR [eax+220]

; 180  : 		CString strItem;

  000e1	8d 8d ec fe ff
	ff		 lea	 ecx, DWORD PTR _strItem$8[ebp]
  000e7	ff 15 00 00 00
	00		 call	 DWORD PTR __imp_??0?$CStringT@DV?$StrTraitMFC_DLL@DV?$ChTraitsCRT@D@ATL@@@@@ATL@@QAE@XZ

; 184  : 			strItem = Parser(strComment,&nShifter);

  000ed	8d 85 d4 fe ff
	ff		 lea	 eax, DWORD PTR _nShifter$5[ebp]
  000f3	c6 45 fc 03	 mov	 BYTE PTR __$EHRec$[ebp+8], 3
  000f7	50		 push	 eax
  000f8	ff b5 dc fe ff
	ff		 push	 DWORD PTR _strComment$6[ebp]
  000fe	8d 85 e0 fe ff
	ff		 lea	 eax, DWORD PTR $T7[ebp]
  00104	c7 85 d4 fe ff
	ff 00 00 00 00	 mov	 DWORD PTR _nShifter$5[ebp], 0
  0010e	50		 push	 eax
  0010f	e8 00 00 00 00	 call	 ?Parser@@YA?AV?$CStringT@DV?$StrTraitMFC_DLL@DV?$ChTraitsCRT@D@ATL@@@@@ATL@@PBDPAH@Z ; Parser
  00114	83 c4 0c	 add	 esp, 12			; 0000000cH
  00117	50		 push	 eax
  00118	8d 8d ec fe ff
	ff		 lea	 ecx, DWORD PTR _strItem$8[ebp]
  0011e	c6 45 fc 04	 mov	 BYTE PTR __$EHRec$[ebp+8], 4
  00122	ff 15 00 00 00
	00		 call	 DWORD PTR __imp_??4?$CStringT@DV?$StrTraitMFC_DLL@DV?$ChTraitsCRT@D@ATL@@@@@ATL@@QAEAAV01@ABV01@@Z
  00128	8d 8d e0 fe ff
	ff		 lea	 ecx, DWORD PTR $T7[ebp]
  0012e	c6 45 fc 03	 mov	 BYTE PTR __$EHRec$[ebp+8], 3
  00132	ff 15 00 00 00
	00		 call	 DWORD PTR __imp_??1?$CStringT@DV?$StrTraitMFC_DLL@DV?$ChTraitsCRT@D@ATL@@@@@ATL@@QAE@XZ
; File C:\Program Files (x86)\Microsoft Visual Studio\2019\Community\VC\Tools\MSVC\14.29.30133\atlmfc\include\atlsimpstr.h

; 519  : 		return( GetData()->nDataLength );

  00138	8b 85 ec fe ff
	ff		 mov	 eax, DWORD PTR _strItem$8[ebp]
; File D:\git\src\IBK\IBK_DRFN\ProjSrc\SrcDrfn\Chart\STCONFIGUREDLG\TabIndex.cpp

; 185  : 			if(strItem.GetLength())

  0013e	83 78 f4 00	 cmp	 DWORD PTR [eax-12], 0
  00142	0f 84 99 00 00
	00		 je	 $LN9@LoadInfo
  00148	be 01 00 00 00	 mov	 esi, 1
  0014d	33 ff		 xor	 edi, edi
  0014f	90		 npad	 1
$LL2@LoadInfo:
; File C:\Program Files (x86)\Microsoft Visual Studio\2019\Community\VC\Tools\MSVC\14.29.30133\atlmfc\include\cstringt.h

; 2486 : 		return(str1.Compare(psz2) == 0);

  00150	68 00 00 00 00	 push	 OFFSET ??_C@_07PEPFMEAD@UseBull@
  00155	8d 8d ec fe ff
	ff		 lea	 ecx, DWORD PTR _strItem$8[ebp]
  0015b	ff 15 00 00 00
	00		 call	 DWORD PTR __imp_?Compare@?$CStringT@DV?$StrTraitMFC_DLL@DV?$ChTraitsCRT@D@ATL@@@@@ATL@@QBEHPBD@Z
  00161	85 c0		 test	 eax, eax
  00163	8d 8d ec fe ff
	ff		 lea	 ecx, DWORD PTR _strItem$8[ebp]
  00169	68 00 00 00 00	 push	 OFFSET ??_C@_07HIHFDPBA@UseBear@
; File D:\git\src\IBK\IBK_DRFN\ProjSrc\SrcDrfn\Chart\STCONFIGUREDLG\TabIndex.cpp

; 187  : 				if(strItem==USEBULL)			bUseBull = TRUE;

  0016e	0f 44 fe	 cmove	 edi, esi
; File C:\Program Files (x86)\Microsoft Visual Studio\2019\Community\VC\Tools\MSVC\14.29.30133\atlmfc\include\cstringt.h

; 2486 : 		return(str1.Compare(psz2) == 0);

  00171	ff 15 00 00 00
	00		 call	 DWORD PTR __imp_?Compare@?$CStringT@DV?$StrTraitMFC_DLL@DV?$ChTraitsCRT@D@ATL@@@@@ATL@@QBEHPBD@Z
; File D:\git\src\IBK\IBK_DRFN\ProjSrc\SrcDrfn\Chart\STCONFIGUREDLG\TabIndex.cpp

; 188  : 				if(strItem==USEBEAR)			bUseBear = TRUE;

  00177	8b 8d cc fe ff
	ff		 mov	 ecx, DWORD PTR _bUseBear$1$[ebp]
; File C:\Program Files (x86)\Microsoft Visual Studio\2019\Community\VC\Tools\MSVC\14.29.30133\atlmfc\include\cstringt.h

; 2486 : 		return(str1.Compare(psz2) == 0);

  0017d	85 c0		 test	 eax, eax
; File D:\git\src\IBK\IBK_DRFN\ProjSrc\SrcDrfn\Chart\STCONFIGUREDLG\TabIndex.cpp

; 184  : 			strItem = Parser(strComment,&nShifter);

  0017f	8d 85 d4 fe ff
	ff		 lea	 eax, DWORD PTR _nShifter$5[ebp]
  00185	50		 push	 eax
  00186	ff b5 dc fe ff
	ff		 push	 DWORD PTR _strComment$6[ebp]
  0018c	8d 85 e0 fe ff
	ff		 lea	 eax, DWORD PTR $T7[ebp]

; 188  : 				if(strItem==USEBEAR)			bUseBear = TRUE;

  00192	0f 44 ce	 cmove	 ecx, esi
  00195	50		 push	 eax
  00196	89 8d cc fe ff
	ff		 mov	 DWORD PTR _bUseBear$1$[ebp], ecx
  0019c	e8 00 00 00 00	 call	 ?Parser@@YA?AV?$CStringT@DV?$StrTraitMFC_DLL@DV?$ChTraitsCRT@D@ATL@@@@@ATL@@PBDPAH@Z ; Parser
  001a1	83 c4 0c	 add	 esp, 12			; 0000000cH
  001a4	50		 push	 eax
  001a5	8d 8d ec fe ff
	ff		 lea	 ecx, DWORD PTR _strItem$8[ebp]
  001ab	c6 45 fc 04	 mov	 BYTE PTR __$EHRec$[ebp+8], 4
  001af	ff 15 00 00 00
	00		 call	 DWORD PTR __imp_??4?$CStringT@DV?$StrTraitMFC_DLL@DV?$ChTraitsCRT@D@ATL@@@@@ATL@@QAEAAV01@ABV01@@Z
  001b5	8d 8d e0 fe ff
	ff		 lea	 ecx, DWORD PTR $T7[ebp]
  001bb	c6 45 fc 03	 mov	 BYTE PTR __$EHRec$[ebp+8], 3
  001bf	ff 15 00 00 00
	00		 call	 DWORD PTR __imp_??1?$CStringT@DV?$StrTraitMFC_DLL@DV?$ChTraitsCRT@D@ATL@@@@@ATL@@QAE@XZ
; File C:\Program Files (x86)\Microsoft Visual Studio\2019\Community\VC\Tools\MSVC\14.29.30133\atlmfc\include\atlsimpstr.h

; 519  : 		return( GetData()->nDataLength );

  001c5	8b 85 ec fe ff
	ff		 mov	 eax, DWORD PTR _strItem$8[ebp]
; File D:\git\src\IBK\IBK_DRFN\ProjSrc\SrcDrfn\Chart\STCONFIGUREDLG\TabIndex.cpp

; 185  : 			if(strItem.GetLength())

  001cb	83 78 f4 00	 cmp	 DWORD PTR [eax-12], 0
  001cf	0f 85 7b ff ff
	ff		 jne	 $LL2@LoadInfo
  001d5	89 bd c4 fe ff
	ff		 mov	 DWORD PTR _bUseBull$1$[ebp], edi
  001db	8b bd c8 fe ff
	ff		 mov	 edi, DWORD PTR _this$GSCopy$1$[ebp]
$LN9@LoadInfo:

; 189  : 			}
; 190  : 			else
; 191  : 			{
; 192  : 				break;
; 193  : 			}			
; 194  : 		}
; 195  : 	}

  001e1	8d 8d ec fe ff
	ff		 lea	 ecx, DWORD PTR _strItem$8[ebp]
  001e7	ff 15 00 00 00
	00		 call	 DWORD PTR __imp_??1?$CStringT@DV?$StrTraitMFC_DLL@DV?$ChTraitsCRT@D@ATL@@@@@ATL@@QAE@XZ
  001ed	8d 8d dc fe ff
	ff		 lea	 ecx, DWORD PTR _strComment$6[ebp]
  001f3	c6 45 fc 01	 mov	 BYTE PTR __$EHRec$[ebp+8], 1
  001f7	ff 15 00 00 00
	00		 call	 DWORD PTR __imp_??1?$CStringT@DV?$StrTraitMFC_DLL@DV?$ChTraitsCRT@D@ATL@@@@@ATL@@QAE@XZ
  001fd	eb 74		 jmp	 SHORT $LN8@LoadInfo
$LN7@LoadInfo:

; 196  : 	else
; 197  : 	{
; 198  : 		((CDlgSTOption*)m_pDlgSTOption)->GetPrivateProfileStringInST(INDEX,USEBULL,"",szBuffer,sizeof(szBuffer),2);

  001ff	8b 8f 34 07 00
	00		 mov	 ecx, DWORD PTR [edi+1844]
  00205	8d 85 f0 fe ff
	ff		 lea	 eax, DWORD PTR _szBuffer$[ebp]
  0020b	6a 02		 push	 2
  0020d	68 00 01 00 00	 push	 256			; 00000100H
  00212	50		 push	 eax
  00213	68 00 00 00 00	 push	 OFFSET ??_C@_00CNPNBAHC@@
  00218	68 00 00 00 00	 push	 OFFSET ??_C@_07PEPFMEAD@UseBull@
  0021d	68 00 00 00 00	 push	 OFFSET ??_C@_05FNNGFGLF@Index@
  00222	e8 00 00 00 00	 call	 ?GetPrivateProfileStringInST@CDlgSTOption@@QAEKPBD00PADKH@Z ; CDlgSTOption::GetPrivateProfileStringInST

; 199  : 		bUseBull = atol(szBuffer);

  00227	8d 85 f0 fe ff
	ff		 lea	 eax, DWORD PTR _szBuffer$[ebp]
  0022d	50		 push	 eax
  0022e	ff d6		 call	 esi

; 200  : 		((CDlgSTOption*)m_pDlgSTOption)->GetPrivateProfileStringInST(INDEX,USEBEAR,"",szBuffer,sizeof(szBuffer),2);

  00230	8b 8f 34 07 00
	00		 mov	 ecx, DWORD PTR [edi+1844]
  00236	83 c4 04	 add	 esp, 4
  00239	89 85 c4 fe ff
	ff		 mov	 DWORD PTR _bUseBull$1$[ebp], eax
  0023f	8d 85 f0 fe ff
	ff		 lea	 eax, DWORD PTR _szBuffer$[ebp]
  00245	6a 02		 push	 2
  00247	68 00 01 00 00	 push	 256			; 00000100H
  0024c	50		 push	 eax
  0024d	68 00 00 00 00	 push	 OFFSET ??_C@_00CNPNBAHC@@
  00252	68 00 00 00 00	 push	 OFFSET ??_C@_07HIHFDPBA@UseBear@
  00257	68 00 00 00 00	 push	 OFFSET ??_C@_05FNNGFGLF@Index@
  0025c	e8 00 00 00 00	 call	 ?GetPrivateProfileStringInST@CDlgSTOption@@QAEKPBD00PADKH@Z ; CDlgSTOption::GetPrivateProfileStringInST

; 201  : 		bUseBear = atol(szBuffer);

  00261	8d 85 f0 fe ff
	ff		 lea	 eax, DWORD PTR _szBuffer$[ebp]
  00267	50		 push	 eax
  00268	ff d6		 call	 esi
  0026a	83 c4 04	 add	 esp, 4
  0026d	89 85 cc fe ff
	ff		 mov	 DWORD PTR _bUseBear$1$[ebp], eax
$LN8@LoadInfo:

; 202  : 	}
; 203  : 
; 204  : 	for(int nPos=0;nPos<MAXCNTOFPLOTHOLDER;nPos++)

  00273	33 f6		 xor	 esi, esi
  00275	89 b5 ec fe ff
	ff		 mov	 DWORD PTR tv613[ebp], esi
  0027b	0f 1f 44 00 00	 npad	 5
$LL6@LoadInfo:

; 205  : 	{
; 206  : 		if(pSTControllerCfg)

  00280	8b 8d c0 fe ff
	ff		 mov	 ecx, DWORD PTR _pSTControllerCfg$1$[ebp]
  00286	56		 push	 esi
  00287	85 c9		 test	 ecx, ecx
  00289	74 45		 je	 SHORT $LN13@LoadInfo

; 207  : 		{
; 208  : 			pDataItem = pSTControllerCfg->GetPlotHolderDataItem(nPos);

  0028b	8b 01		 mov	 eax, DWORD PTR [ecx]
  0028d	8b 80 f4 00 00
	00		 mov	 eax, DWORD PTR [eax+244]
  00293	ff d0		 call	 eax
  00295	8b c8		 mov	 ecx, eax

; 209  : 			if(!pDataItem)	continue;

  00297	85 c9		 test	 ecx, ecx
  00299	0f 84 1a 03 00
	00		 je	 $LN4@LoadInfo

; 210  : 			strGraphName = pDataItem->GetDataItemName();

  0029f	8b 01		 mov	 eax, DWORD PTR [ecx]
  002a1	8d 95 d0 fe ff
	ff		 lea	 edx, DWORD PTR $T4[ebp]
  002a7	52		 push	 edx
  002a8	8b 40 14	 mov	 eax, DWORD PTR [eax+20]
  002ab	ff d0		 call	 eax
  002ad	50		 push	 eax
  002ae	8d 8d d8 fe ff
	ff		 lea	 ecx, DWORD PTR _strGraphName$[ebp]
  002b4	c6 45 fc 05	 mov	 BYTE PTR __$EHRec$[ebp+8], 5
  002b8	ff 15 00 00 00
	00		 call	 DWORD PTR __imp_??4?$CStringT@DV?$StrTraitMFC_DLL@DV?$ChTraitsCRT@D@ATL@@@@@ATL@@QAEAAV01@ABV01@@Z
  002be	8d 8d d0 fe ff
	ff		 lea	 ecx, DWORD PTR $T4[ebp]
  002c4	c6 45 fc 01	 mov	 BYTE PTR __$EHRec$[ebp+8], 1
  002c8	ff 15 00 00 00
	00		 call	 DWORD PTR __imp_??1?$CStringT@DV?$StrTraitMFC_DLL@DV?$ChTraitsCRT@D@ATL@@@@@ATL@@QAE@XZ

; 211  : 		}

  002ce	eb 6f		 jmp	 SHORT $LN16@LoadInfo
$LN13@LoadInfo:

; 212  : 		else
; 213  : 		{
; 214  : 			// Name
; 215  : 			strKeyName.Format("%s%d",INDEXNAME,nPos);

  002d0	68 00 00 00 00	 push	 OFFSET ??_C@_04FABLJDN@Name@
  002d5	8d 85 e8 fe ff
	ff		 lea	 eax, DWORD PTR _strKeyName$[ebp]
  002db	68 00 00 00 00	 push	 OFFSET ??_C@_04HGGBINEM@?$CFs?$CFd@
  002e0	50		 push	 eax
  002e1	ff 15 00 00 00
	00		 call	 DWORD PTR __imp_?Format@?$CStringT@DV?$StrTraitMFC_DLL@DV?$ChTraitsCRT@D@ATL@@@@@ATL@@QAAXPBDZZ

; 216  : 			dSizeRead = ((CDlgSTOption*)m_pDlgSTOption)->GetPrivateProfileStringInST(INDEX,strKeyName,"",szBuffer,sizeof(szBuffer),2);

  002e7	8b 8f 34 07 00
	00		 mov	 ecx, DWORD PTR [edi+1844]
  002ed	8d 85 f0 fe ff
	ff		 lea	 eax, DWORD PTR _szBuffer$[ebp]
  002f3	83 c4 10	 add	 esp, 16			; 00000010H
  002f6	6a 02		 push	 2
  002f8	68 00 01 00 00	 push	 256			; 00000100H
  002fd	50		 push	 eax
  002fe	68 00 00 00 00	 push	 OFFSET ??_C@_00CNPNBAHC@@
  00303	ff b5 e8 fe ff
	ff		 push	 DWORD PTR _strKeyName$[ebp]
  00309	68 00 00 00 00	 push	 OFFSET ??_C@_05FNNGFGLF@Index@
  0030e	e8 00 00 00 00	 call	 ?GetPrivateProfileStringInST@CDlgSTOption@@QAEKPBD00PADKH@Z ; CDlgSTOption::GetPrivateProfileStringInST

; 217  : 			strGraphName = szBuffer;

  00313	8d 85 f0 fe ff
	ff		 lea	 eax, DWORD PTR _szBuffer$[ebp]
  00319	50		 push	 eax
  0031a	8d 8d d8 fe ff
	ff		 lea	 ecx, DWORD PTR _strGraphName$[ebp]
  00320	ff 15 00 00 00
	00		 call	 DWORD PTR __imp_??4?$CStringT@DV?$StrTraitMFC_DLL@DV?$ChTraitsCRT@D@ATL@@@@@ATL@@QAEAAV01@PBD@Z
; File C:\Program Files (x86)\Microsoft Visual Studio\2019\Community\VC\Tools\MSVC\14.29.30133\atlmfc\include\cstringt.h

; 2486 : 		return(str1.Compare(psz2) == 0);

  00326	68 00 00 00 00	 push	 OFFSET ??_C@_00CNPNBAHC@@
  0032b	8d 8d d8 fe ff
	ff		 lea	 ecx, DWORD PTR _strGraphName$[ebp]
  00331	ff 15 00 00 00
	00		 call	 DWORD PTR __imp_?Compare@?$CStringT@DV?$StrTraitMFC_DLL@DV?$ChTraitsCRT@D@ATL@@@@@ATL@@QBEHPBD@Z
  00337	85 c0		 test	 eax, eax
; File D:\git\src\IBK\IBK_DRFN\ProjSrc\SrcDrfn\Chart\STCONFIGUREDLG\TabIndex.cpp

; 218  : 			if(strGraphName=="")

  00339	0f 84 7a 02 00
	00		 je	 $LN4@LoadInfo
$LN16@LoadInfo:

; 219  : 			{
; 220  : 				continue;
; 221  : 			}
; 222  : 		}
; 223  : 
; 224  : 		// type
; 225  : 		strKeyName.Format("%s%d",INDEXTYPE,nPos);

  0033f	56		 push	 esi
  00340	68 00 00 00 00	 push	 OFFSET ??_C@_04KOACHJEN@Type@
  00345	8d 85 e8 fe ff
	ff		 lea	 eax, DWORD PTR _strKeyName$[ebp]
  0034b	68 00 00 00 00	 push	 OFFSET ??_C@_04HGGBINEM@?$CFs?$CFd@
  00350	50		 push	 eax
  00351	ff 15 00 00 00
	00		 call	 DWORD PTR __imp_?Format@?$CStringT@DV?$StrTraitMFC_DLL@DV?$ChTraitsCRT@D@ATL@@@@@ATL@@QAAXPBDZZ

; 226  : 		dSizeRead = ((CDlgSTOption*)m_pDlgSTOption)->GetPrivateProfileStringInST(INDEX,strKeyName,"",szBuffer,sizeof(szBuffer),2);

  00357	8b 8f 34 07 00
	00		 mov	 ecx, DWORD PTR [edi+1844]
  0035d	8d 85 f0 fe ff
	ff		 lea	 eax, DWORD PTR _szBuffer$[ebp]
  00363	83 c4 10	 add	 esp, 16			; 00000010H
  00366	6a 02		 push	 2
  00368	68 00 01 00 00	 push	 256			; 00000100H
  0036d	50		 push	 eax
  0036e	68 00 00 00 00	 push	 OFFSET ??_C@_00CNPNBAHC@@
  00373	ff b5 e8 fe ff
	ff		 push	 DWORD PTR _strKeyName$[ebp]
  00379	68 00 00 00 00	 push	 OFFSET ??_C@_05FNNGFGLF@Index@
  0037e	e8 00 00 00 00	 call	 ?GetPrivateProfileStringInST@CDlgSTOption@@QAEKPBD00PADKH@Z ; CDlgSTOption::GetPrivateProfileStringInST

; 227  : 		if(!dSizeRead)

  00383	85 c0		 test	 eax, eax
  00385	75 08		 jne	 SHORT $LN17@LoadInfo

; 228  : 		{
; 229  : 			lType = INDEXTYPEDEFAULT;	

  00387	89 85 d4 fe ff
	ff		 mov	 DWORD PTR _lType$1$[ebp], eax

; 230  : 		}

  0038d	eb 16		 jmp	 SHORT $LN18@LoadInfo
$LN17@LoadInfo:

; 231  : 		else
; 232  : 		{
; 233  : 			lType = atol(szBuffer);

  0038f	8d 85 f0 fe ff
	ff		 lea	 eax, DWORD PTR _szBuffer$[ebp]
  00395	50		 push	 eax
  00396	ff 15 00 00 00
	00		 call	 DWORD PTR __imp__atol
  0039c	83 c4 04	 add	 esp, 4
  0039f	89 85 d4 fe ff
	ff		 mov	 DWORD PTR _lType$1$[ebp], eax
$LN18@LoadInfo:

; 234  : 		}	
; 235  : 		
; 236  : 		// color
; 237  : 		strKeyName.Format("%s%d",INDEXCOLOR,nPos);

  003a5	56		 push	 esi
  003a6	68 00 00 00 00	 push	 OFFSET ??_C@_05PDOBBJNA@Color@
  003ab	8d 85 e8 fe ff
	ff		 lea	 eax, DWORD PTR _strKeyName$[ebp]
  003b1	68 00 00 00 00	 push	 OFFSET ??_C@_04HGGBINEM@?$CFs?$CFd@
  003b6	50		 push	 eax
  003b7	ff 15 00 00 00
	00		 call	 DWORD PTR __imp_?Format@?$CStringT@DV?$StrTraitMFC_DLL@DV?$ChTraitsCRT@D@ATL@@@@@ATL@@QAAXPBDZZ

; 238  : 		dSizeRead = ((CDlgSTOption*)m_pDlgSTOption)->GetPrivateProfileStringInST(INDEX,strKeyName,"",szBuffer,sizeof(szBuffer),2);

  003bd	8b 8f 34 07 00
	00		 mov	 ecx, DWORD PTR [edi+1844]
  003c3	8d 85 f0 fe ff
	ff		 lea	 eax, DWORD PTR _szBuffer$[ebp]
  003c9	83 c4 10	 add	 esp, 16			; 00000010H
  003cc	6a 02		 push	 2
  003ce	68 00 01 00 00	 push	 256			; 00000100H
  003d3	50		 push	 eax
  003d4	68 00 00 00 00	 push	 OFFSET ??_C@_00CNPNBAHC@@
  003d9	ff b5 e8 fe ff
	ff		 push	 DWORD PTR _strKeyName$[ebp]
  003df	68 00 00 00 00	 push	 OFFSET ??_C@_05FNNGFGLF@Index@
  003e4	e8 00 00 00 00	 call	 ?GetPrivateProfileStringInST@CDlgSTOption@@QAEKPBD00PADKH@Z ; CDlgSTOption::GetPrivateProfileStringInST

; 239  : 		if(!dSizeRead)

  003e9	85 c0		 test	 eax, eax
  003eb	75 08		 jne	 SHORT $LN19@LoadInfo

; 240  : 		{
; 241  : 			clrIndex = INDEXCOLORDEFAULT;	

  003ed	89 85 dc fe ff
	ff		 mov	 DWORD PTR _clrIndex$1$[ebp], eax

; 242  : 		}

  003f3	eb 16		 jmp	 SHORT $LN20@LoadInfo
$LN19@LoadInfo:

; 243  : 		else
; 244  : 		{
; 245  : 			clrIndex = atol(szBuffer);

  003f5	8d 85 f0 fe ff
	ff		 lea	 eax, DWORD PTR _szBuffer$[ebp]
  003fb	50		 push	 eax
  003fc	ff 15 00 00 00
	00		 call	 DWORD PTR __imp__atol
  00402	83 c4 04	 add	 esp, 4
  00405	89 85 dc fe ff
	ff		 mov	 DWORD PTR _clrIndex$1$[ebp], eax
$LN20@LoadInfo:

; 246  : 		}		
; 247  : 
; 248  : 		// Shape
; 249  : 		strKeyName.Format("%s%d",INDEXSHAPE,nPos);

  0040b	56		 push	 esi
  0040c	68 00 00 00 00	 push	 OFFSET ??_C@_05KCIEHPFN@Shape@
  00411	8d 85 e8 fe ff
	ff		 lea	 eax, DWORD PTR _strKeyName$[ebp]
  00417	68 00 00 00 00	 push	 OFFSET ??_C@_04HGGBINEM@?$CFs?$CFd@
  0041c	50		 push	 eax
  0041d	ff 15 00 00 00
	00		 call	 DWORD PTR __imp_?Format@?$CStringT@DV?$StrTraitMFC_DLL@DV?$ChTraitsCRT@D@ATL@@@@@ATL@@QAAXPBDZZ

; 250  : 		dSizeRead = ((CDlgSTOption*)m_pDlgSTOption)->GetPrivateProfileStringInST(INDEX,strKeyName,"",szBuffer,sizeof(szBuffer),2);

  00423	8b 8f 34 07 00
	00		 mov	 ecx, DWORD PTR [edi+1844]
  00429	8d 85 f0 fe ff
	ff		 lea	 eax, DWORD PTR _szBuffer$[ebp]
  0042f	83 c4 10	 add	 esp, 16			; 00000010H
  00432	6a 02		 push	 2
  00434	68 00 01 00 00	 push	 256			; 00000100H
  00439	50		 push	 eax
  0043a	68 00 00 00 00	 push	 OFFSET ??_C@_00CNPNBAHC@@
  0043f	ff b5 e8 fe ff
	ff		 push	 DWORD PTR _strKeyName$[ebp]
  00445	68 00 00 00 00	 push	 OFFSET ??_C@_05FNNGFGLF@Index@
  0044a	e8 00 00 00 00	 call	 ?GetPrivateProfileStringInST@CDlgSTOption@@QAEKPBD00PADKH@Z ; CDlgSTOption::GetPrivateProfileStringInST

; 251  : 		if(!dSizeRead)

  0044f	85 c0		 test	 eax, eax
  00451	75 08		 jne	 SHORT $LN21@LoadInfo

; 252  : 		{
; 253  : 			lShape = INDEXSHAPEDEFAULT;	

  00453	89 85 e0 fe ff
	ff		 mov	 DWORD PTR _lShape$1$[ebp], eax

; 254  : 		}

  00459	eb 16		 jmp	 SHORT $LN22@LoadInfo
$LN21@LoadInfo:

; 255  : 		else
; 256  : 		{
; 257  : 			lShape = atol(szBuffer);

  0045b	8d 85 f0 fe ff
	ff		 lea	 eax, DWORD PTR _szBuffer$[ebp]
  00461	50		 push	 eax
  00462	ff 15 00 00 00
	00		 call	 DWORD PTR __imp__atol
  00468	83 c4 04	 add	 esp, 4
  0046b	89 85 e0 fe ff
	ff		 mov	 DWORD PTR _lShape$1$[ebp], eax
$LN22@LoadInfo:

; 258  : 		}		
; 259  : 
; 260  : 		// Thick
; 261  : 		strKeyName.Format("%s%d",INDEXTHICK,nPos);

  00471	56		 push	 esi
  00472	68 00 00 00 00	 push	 OFFSET ??_C@_05PKNGFHKN@Thick@
  00477	8d 85 e8 fe ff
	ff		 lea	 eax, DWORD PTR _strKeyName$[ebp]
  0047d	68 00 00 00 00	 push	 OFFSET ??_C@_04HGGBINEM@?$CFs?$CFd@
  00482	50		 push	 eax
  00483	ff 15 00 00 00
	00		 call	 DWORD PTR __imp_?Format@?$CStringT@DV?$StrTraitMFC_DLL@DV?$ChTraitsCRT@D@ATL@@@@@ATL@@QAAXPBDZZ

; 262  : 		dSizeRead = ((CDlgSTOption*)m_pDlgSTOption)->GetPrivateProfileStringInST(INDEX,strKeyName,"",szBuffer,sizeof(szBuffer),2);

  00489	8b 8f 34 07 00
	00		 mov	 ecx, DWORD PTR [edi+1844]
  0048f	8d 85 f0 fe ff
	ff		 lea	 eax, DWORD PTR _szBuffer$[ebp]
  00495	83 c4 10	 add	 esp, 16			; 00000010H
  00498	6a 02		 push	 2
  0049a	68 00 01 00 00	 push	 256			; 00000100H
  0049f	50		 push	 eax
  004a0	68 00 00 00 00	 push	 OFFSET ??_C@_00CNPNBAHC@@
  004a5	ff b5 e8 fe ff
	ff		 push	 DWORD PTR _strKeyName$[ebp]
  004ab	68 00 00 00 00	 push	 OFFSET ??_C@_05FNNGFGLF@Index@
  004b0	e8 00 00 00 00	 call	 ?GetPrivateProfileStringInST@CDlgSTOption@@QAEKPBD00PADKH@Z ; CDlgSTOption::GetPrivateProfileStringInST

; 263  : 		if(!dSizeRead)

  004b5	85 c0		 test	 eax, eax
  004b7	75 08		 jne	 SHORT $LN23@LoadInfo

; 264  : 		{
; 265  : 			lThick = INDEXTHICKDEFAULT;	

  004b9	89 85 c8 fe ff
	ff		 mov	 DWORD PTR _lThick$1$[ebp], eax

; 266  : 		}

  004bf	eb 16		 jmp	 SHORT $LN24@LoadInfo
$LN23@LoadInfo:

; 267  : 		else
; 268  : 		{
; 269  : 			lThick = atol(szBuffer);

  004c1	8d 85 f0 fe ff
	ff		 lea	 eax, DWORD PTR _szBuffer$[ebp]
  004c7	50		 push	 eax
  004c8	ff 15 00 00 00
	00		 call	 DWORD PTR __imp__atol
  004ce	83 c4 04	 add	 esp, 4
  004d1	89 85 c8 fe ff
	ff		 mov	 DWORD PTR _lThick$1$[ebp], eax
$LN24@LoadInfo:

; 270  : 		}		
; 271  : 
; 272  : 		m_listGraph.InsertItem(lPosOfList,"");

  004d7	68 00 00 00 00	 push	 OFFSET ??_C@_00CNPNBAHC@@
  004dc	ff b5 e4 fe ff
	ff		 push	 DWORD PTR _lPosOfList$1$[ebp]
  004e2	8d 8f c0 02 00
	00		 lea	 ecx, DWORD PTR [edi+704]
  004e8	e8 00 00 00 00	 call	 ?InsertItem@CXListCtrl@@QAEHHPBD@Z ; CXListCtrl::InsertItem

; 273  : 		m_listGraph.SetItemText(lPosOfList,0,strGraphName);

  004ed	ff b5 d8 fe ff
	ff		 push	 DWORD PTR _strGraphName$[ebp]
  004f3	8d 8f c0 02 00
	00		 lea	 ecx, DWORD PTR [edi+704]
  004f9	6a 00		 push	 0
  004fb	ff b5 e4 fe ff
	ff		 push	 DWORD PTR _lPosOfList$1$[ebp]
  00501	e8 00 00 00 00	 call	 ?SetItemText@CXListCtrl@@QAEHHHPBD@Z ; CXListCtrl::SetItemText
; File C:\Program Files (x86)\Microsoft Visual Studio\2019\Community\VC\Tools\MSVC\14.29.30133\atlmfc\include\afxtempl.h

; 538  : 	if(nIndex < 0)

  00506	83 bd ec fe ff
	ff 00		 cmp	 DWORD PTR tv613[ebp], 0
; File D:\git\src\IBK\IBK_DRFN\ProjSrc\SrcDrfn\Chart\STCONFIGUREDLG\TabIndex.cpp

; 279  : 		m_arrayIndexData.SetAtGrow(lPosOfList,indexData);

  0050d	8d 97 18 07 00
	00		 lea	 edx, DWORD PTR [edi+1816]
  00513	8b 85 d4 fe ff
	ff		 mov	 eax, DWORD PTR _lType$1$[ebp]
  00519	89 85 a0 fe ff
	ff		 mov	 DWORD PTR _indexData$[ebp+4], eax
  0051f	8b 85 dc fe ff
	ff		 mov	 eax, DWORD PTR _clrIndex$1$[ebp]
  00525	89 85 9c fe ff
	ff		 mov	 DWORD PTR _indexData$[ebp], eax
  0052b	8b 85 e0 fe ff
	ff		 mov	 eax, DWORD PTR _lShape$1$[ebp]
  00531	89 85 a4 fe ff
	ff		 mov	 DWORD PTR _indexData$[ebp+8], eax
  00537	8b 85 c8 fe ff
	ff		 mov	 eax, DWORD PTR _lThick$1$[ebp]
  0053d	89 85 a8 fe ff
	ff		 mov	 DWORD PTR _indexData$[ebp+12], eax
; File C:\Program Files (x86)\Microsoft Visual Studio\2019\Community\VC\Tools\MSVC\14.29.30133\atlmfc\include\afxtempl.h

; 538  : 	if(nIndex < 0)

  00543	0f 8c 08 02 00
	00		 jl	 $LN77@LoadInfo

; 540  : 
; 541  : 	if (nIndex >= m_nSize)

  00549	8b 8d e4 fe ff
	ff		 mov	 ecx, DWORD PTR _lPosOfList$1$[ebp]
  0054f	3b 4a 08	 cmp	 ecx, DWORD PTR [edx+8]
  00552	7c 19		 jl	 SHORT $LN72@LoadInfo

; 542  : 		SetSize(nIndex+1, -1);

  00554	8d 41 01	 lea	 eax, DWORD PTR [ecx+1]
  00557	8b ca		 mov	 ecx, edx
  00559	6a ff		 push	 -1
  0055b	50		 push	 eax
  0055c	e8 00 00 00 00	 call	 ?SetSize@?$CArray@VCIndexData@@V1@@@QAEXHH@Z ; CArray<CIndexData,CIndexData>::SetSize
  00561	8b 8d e4 fe ff
	ff		 mov	 ecx, DWORD PTR _lPosOfList$1$[ebp]
  00567	8d 97 18 07 00
	00		 lea	 edx, DWORD PTR [edi+1816]
$LN72@LoadInfo:

; 543  : 	m_pData[nIndex] = newElement;

  0056d	8b 42 04	 mov	 eax, DWORD PTR [edx+4]
  00570	03 85 ec fe ff
	ff		 add	 eax, DWORD PTR tv613[ebp]
; File D:\git\src\IBK\IBK_DRFN\ProjSrc\SrcDrfn\Chart\STCONFIGUREDLG\TabIndex.cpp

; 281  : 		if(bIsFirst)

  00576	83 bd bc fe ff
	ff 00		 cmp	 DWORD PTR _bIsFirst$1$[ebp], 0
; File C:\Program Files (x86)\Microsoft Visual Studio\2019\Community\VC\Tools\MSVC\14.29.30133\atlmfc\include\afxtempl.h

; 543  : 	m_pData[nIndex] = newElement;

  0057d	0f 10 85 9c fe
	ff ff		 movups	 xmm0, XMMWORD PTR _indexData$[ebp]
  00584	0f 11 00	 movups	 XMMWORD PTR [eax], xmm0
  00587	89 70 10	 mov	 DWORD PTR [eax+16], esi
; File D:\git\src\IBK\IBK_DRFN\ProjSrc\SrcDrfn\Chart\STCONFIGUREDLG\TabIndex.cpp

; 281  : 		if(bIsFirst)

  0058a	74 20		 je	 SHORT $LN25@LoadInfo

; 282  : 		{
; 283  : 			m_listGraph.SetCurSel(lPosOfList);

  0058c	6a 01		 push	 1
  0058e	51		 push	 ecx
  0058f	8d 8f c0 02 00
	00		 lea	 ecx, DWORD PTR [edi+704]
  00595	e8 00 00 00 00	 call	 ?SetCurSel@CXListCtrl@@QAEHHH@Z ; CXListCtrl::SetCurSel

; 284  : 			bIsFirst = FALSE;

  0059a	33 c0		 xor	 eax, eax

; 285  : 			bHasData = TRUE;

  0059c	c7 85 b8 fe ff
	ff 01 00 00 00	 mov	 DWORD PTR _bHasData$1$[ebp], 1
  005a6	89 85 bc fe ff
	ff		 mov	 DWORD PTR _bIsFirst$1$[ebp], eax
$LN25@LoadInfo:

; 286  : 		}
; 287  : 
; 288  : 		lPosOfList++;		

  005ac	ff 85 e4 fe ff
	ff		 inc	 DWORD PTR _lPosOfList$1$[ebp]
  005b2	83 85 ec fe ff
	ff 14		 add	 DWORD PTR tv613[ebp], 20 ; 00000014H
$LN4@LoadInfo:

; 202  : 	}
; 203  : 
; 204  : 	for(int nPos=0;nPos<MAXCNTOFPLOTHOLDER;nPos++)

  005b9	46		 inc	 esi
  005ba	83 fe 17	 cmp	 esi, 23			; 00000017H
  005bd	0f 8c bd fc ff
	ff		 jl	 $LL6@LoadInfo

; 289  : 	}
; 290  : 	if(!bHasData)

  005c3	83 bd b8 fe ff
	ff 00		 cmp	 DWORD PTR _bHasData$1$[ebp], 0
  005ca	75 34		 jne	 SHORT $LN26@LoadInfo

; 291  : 	{
; 292  : 		m_btnGraphClr.EnableWindow(FALSE);

  005cc	6a 00		 push	 0
  005ce	8d 8f 30 02 00
	00		 lea	 ecx, DWORD PTR [edi+560]
  005d4	e8 00 00 00 00	 call	 ?EnableWindow@CColorButton@@QAEHH@Z ; CColorButton::EnableWindow

; 293  : 		m_cbGraphShape.EnableWindow(FALSE);

  005d9	6a 00		 push	 0
  005db	8d 8f 70 05 00
	00		 lea	 ecx, DWORD PTR [edi+1392]
  005e1	e8 00 00 00 00	 call	 ?EnableWindow@CWnd@@QAEHH@Z ; CWnd::EnableWindow

; 294  : 		m_cbGraphThick.EnableWindow(FALSE);

  005e6	6a 00		 push	 0
  005e8	8d 8f e8 04 00
	00		 lea	 ecx, DWORD PTR [edi+1256]
  005ee	e8 00 00 00 00	 call	 ?EnableWindow@CWnd@@QAEHH@Z ; CWnd::EnableWindow

; 295  : 		m_cbGraphType.EnableWindow(FALSE);

  005f3	6a 00		 push	 0
  005f5	8d 8f 68 04 00
	00		 lea	 ecx, DWORD PTR [edi+1128]
  005fb	e8 00 00 00 00	 call	 ?EnableWindow@CWnd@@QAEHH@Z ; CWnd::EnableWindow
$LN26@LoadInfo:

; 296  : 	}
; 297  : 
; 298  : 
; 299  : 	if(bUseBull)

  00600	83 bd c4 fe ff
	ff 00		 cmp	 DWORD PTR _bUseBull$1$[ebp], 0
  00607	74 5d		 je	 SHORT $LN27@LoadInfo

; 300  : 	{
; 301  : 		dSizeRead = ((CDlgSTOption*)m_pDlgSTOption)->GetPrivateProfileStringInST(INDEX,COLORBULL,"",szBuffer,sizeof(szBuffer),2);

  00609	8b 8f 34 07 00
	00		 mov	 ecx, DWORD PTR [edi+1844]
  0060f	8d 85 f0 fe ff
	ff		 lea	 eax, DWORD PTR _szBuffer$[ebp]
  00615	6a 02		 push	 2
  00617	68 00 01 00 00	 push	 256			; 00000100H
  0061c	50		 push	 eax
  0061d	68 00 00 00 00	 push	 OFFSET ??_C@_00CNPNBAHC@@
  00622	68 00 00 00 00	 push	 OFFSET ??_C@_07MBGECCKL@ClrBull@
  00627	68 00 00 00 00	 push	 OFFSET ??_C@_05FNNGFGLF@Index@
  0062c	e8 00 00 00 00	 call	 ?GetPrivateProfileStringInST@CDlgSTOption@@QAEKPBD00PADKH@Z ; CDlgSTOption::GetPrivateProfileStringInST

; 302  : 		if(!dSizeRead)

  00631	85 c0		 test	 eax, eax
  00633	75 07		 jne	 SHORT $LN29@LoadInfo

; 303  : 		{
; 304  : 			clrBull = INDEXBULLDEFAULT;	

  00635	b8 fa dc dc 00	 mov	 eax, 14474490		; 00dcdcfaH

; 305  : 		}

  0063a	eb 10		 jmp	 SHORT $LN30@LoadInfo
$LN29@LoadInfo:

; 306  : 		else
; 307  : 		{
; 308  : 			clrBull = atol(szBuffer);

  0063c	8d 85 f0 fe ff
	ff		 lea	 eax, DWORD PTR _szBuffer$[ebp]
  00642	50		 push	 eax
  00643	ff 15 00 00 00
	00		 call	 DWORD PTR __imp__atol
  00649	83 c4 04	 add	 esp, 4
$LN30@LoadInfo:

; 309  : 		}
; 310  : 		m_btnClrBull.SetColor(clrBull);

  0064c	89 85 b4 fe ff
	ff		 mov	 DWORD PTR _clrBull$[ebp], eax
  00652	8d 8f 88 06 00
	00		 lea	 ecx, DWORD PTR [edi+1672]
  00658	8d 85 b4 fe ff
	ff		 lea	 eax, DWORD PTR _clrBull$[ebp]
  0065e	50		 push	 eax
  0065f	e8 00 00 00 00	 call	 ?SetColor@CColorButton@@QAEXABK@Z ; CColorButton::SetColor

; 311  : 	}

  00664	eb 29		 jmp	 SHORT $LN28@LoadInfo
$LN27@LoadInfo:

; 312  : 	else
; 313  : 	{
; 314  : 		m_btnClrBull.SetColor(DISABLEDEFAULT);

  00666	8d 85 d0 fe ff
	ff		 lea	 eax, DWORD PTR $T3[ebp]
  0066c	c7 85 d0 fe ff
	ff dc dc dc 00	 mov	 DWORD PTR $T3[ebp], 14474460 ; 00dcdcdcH
  00676	50		 push	 eax
  00677	8d 8f 88 06 00
	00		 lea	 ecx, DWORD PTR [edi+1672]
  0067d	e8 00 00 00 00	 call	 ?SetColor@CColorButton@@QAEXABK@Z ; CColorButton::SetColor

; 315  : 		m_btnClrBull.EnableWindow(FALSE);

  00682	6a 00		 push	 0
  00684	8d 8f 88 06 00
	00		 lea	 ecx, DWORD PTR [edi+1672]
  0068a	e8 00 00 00 00	 call	 ?EnableWindow@CColorButton@@QAEHH@Z ; CColorButton::EnableWindow
$LN28@LoadInfo:

; 316  : 	}
; 317  : 
; 318  : 	if(bUseBear)

  0068f	83 bd cc fe ff
	ff 00		 cmp	 DWORD PTR _bUseBear$1$[ebp], 0
  00696	74 5d		 je	 SHORT $LN31@LoadInfo

; 319  : 	{
; 320  : 		dSizeRead = ((CDlgSTOption*)m_pDlgSTOption)->GetPrivateProfileStringInST(INDEX,COLORBEAR,"",szBuffer,sizeof(szBuffer),2);

  00698	8b 8f 34 07 00
	00		 mov	 ecx, DWORD PTR [edi+1844]
  0069e	8d 85 f0 fe ff
	ff		 lea	 eax, DWORD PTR _szBuffer$[ebp]
  006a4	6a 02		 push	 2
  006a6	68 00 01 00 00	 push	 256			; 00000100H
  006ab	50		 push	 eax
  006ac	68 00 00 00 00	 push	 OFFSET ??_C@_00CNPNBAHC@@
  006b1	68 00 00 00 00	 push	 OFFSET ??_C@_07ENOENJLI@ClrBear@
  006b6	68 00 00 00 00	 push	 OFFSET ??_C@_05FNNGFGLF@Index@
  006bb	e8 00 00 00 00	 call	 ?GetPrivateProfileStringInST@CDlgSTOption@@QAEKPBD00PADKH@Z ; CDlgSTOption::GetPrivateProfileStringInST

; 321  : 		if(!dSizeRead)

  006c0	85 c0		 test	 eax, eax
  006c2	75 07		 jne	 SHORT $LN33@LoadInfo

; 322  : 		{
; 323  : 			clrBear = INDEXBEARDEFAULT;	

  006c4	b8 dc dc fa 00	 mov	 eax, 16440540		; 00fadcdcH

; 324  : 		}

  006c9	eb 10		 jmp	 SHORT $LN34@LoadInfo
$LN33@LoadInfo:

; 325  : 		else
; 326  : 		{
; 327  : 			clrBear = atol(szBuffer);

  006cb	8d 85 f0 fe ff
	ff		 lea	 eax, DWORD PTR _szBuffer$[ebp]
  006d1	50		 push	 eax
  006d2	ff 15 00 00 00
	00		 call	 DWORD PTR __imp__atol
  006d8	83 c4 04	 add	 esp, 4
$LN34@LoadInfo:

; 328  : 		}
; 329  : 		m_btnClrBear.SetColor(clrBear);

  006db	89 85 b0 fe ff
	ff		 mov	 DWORD PTR _clrBear$[ebp], eax
  006e1	8d 8f f8 05 00
	00		 lea	 ecx, DWORD PTR [edi+1528]
  006e7	8d 85 b0 fe ff
	ff		 lea	 eax, DWORD PTR _clrBear$[ebp]
  006ed	50		 push	 eax
  006ee	e8 00 00 00 00	 call	 ?SetColor@CColorButton@@QAEXABK@Z ; CColorButton::SetColor

; 330  : 	}

  006f3	eb 29		 jmp	 SHORT $LN32@LoadInfo
$LN31@LoadInfo:

; 331  : 	else
; 332  : 	{
; 333  : 		m_btnClrBear.SetColor(DISABLEDEFAULT);

  006f5	8d 85 d0 fe ff
	ff		 lea	 eax, DWORD PTR $T2[ebp]
  006fb	c7 85 d0 fe ff
	ff dc dc dc 00	 mov	 DWORD PTR $T2[ebp], 14474460 ; 00dcdcdcH
  00705	50		 push	 eax
  00706	8d 8f f8 05 00
	00		 lea	 ecx, DWORD PTR [edi+1528]
  0070c	e8 00 00 00 00	 call	 ?SetColor@CColorButton@@QAEXABK@Z ; CColorButton::SetColor

; 334  : 		m_btnClrBear.EnableWindow(FALSE);

  00711	6a 00		 push	 0
  00713	8d 8f f8 05 00
	00		 lea	 ecx, DWORD PTR [edi+1528]
  00719	e8 00 00 00 00	 call	 ?EnableWindow@CColorButton@@QAEHH@Z ; CColorButton::EnableWindow
$LN32@LoadInfo:

; 336  : }

  0071e	8d 8d d8 fe ff
	ff		 lea	 ecx, DWORD PTR _strGraphName$[ebp]
  00724	ff 15 00 00 00
	00		 call	 DWORD PTR __imp_??1?$CStringT@DV?$StrTraitMFC_DLL@DV?$ChTraitsCRT@D@ATL@@@@@ATL@@QAE@XZ
  0072a	8d 8d e8 fe ff
	ff		 lea	 ecx, DWORD PTR _strKeyName$[ebp]
  00730	ff 15 00 00 00
	00		 call	 DWORD PTR __imp_??1?$CStringT@DV?$StrTraitMFC_DLL@DV?$ChTraitsCRT@D@ATL@@@@@ATL@@QAE@XZ
  00736	8b 4d f4	 mov	 ecx, DWORD PTR __$EHRec$[ebp]
  00739	64 89 0d 00 00
	00 00		 mov	 DWORD PTR fs:0, ecx
  00740	59		 pop	 ecx
  00741	5f		 pop	 edi
  00742	5e		 pop	 esi
  00743	8b 4d f0	 mov	 ecx, DWORD PTR __$ArrayPad$[ebp]
  00746	33 cd		 xor	 ecx, ebp
  00748	e8 00 00 00 00	 call	 @__security_check_cookie@4
  0074d	8b e5		 mov	 esp, ebp
  0074f	5d		 pop	 ebp
  00750	c3		 ret	 0
$LN77@LoadInfo:
; File C:\Program Files (x86)\Microsoft Visual Studio\2019\Community\VC\Tools\MSVC\14.29.30133\atlmfc\include\afxtempl.h

; 539  : 		AfxThrowInvalidArgException();

  00751	e8 00 00 00 00	 call	 ?AfxThrowInvalidArgException@@YGXXZ ; AfxThrowInvalidArgException
$LN85@LoadInfo:
  00756	cc		 int	 3
_TEXT	ENDS
;	COMDAT text$x
text$x	SEGMENT
__unwindfunclet$?LoadInfo@CTabIndex@@EAEXXZ$0:
  00000	8d 8d e8 fe ff
	ff		 lea	 ecx, DWORD PTR _strKeyName$[ebp]
  00006	ff 25 00 00 00
	00		 jmp	 DWORD PTR __imp_??1?$CStringT@DV?$StrTraitMFC_DLL@DV?$ChTraitsCRT@D@ATL@@@@@ATL@@QAE@XZ
__unwindfunclet$?LoadInfo@CTabIndex@@EAEXXZ$1:
  0000c	8d 8d d8 fe ff
	ff		 lea	 ecx, DWORD PTR _strGraphName$[ebp]
  00012	ff 25 00 00 00
	00		 jmp	 DWORD PTR __imp_??1?$CStringT@DV?$StrTraitMFC_DLL@DV?$ChTraitsCRT@D@ATL@@@@@ATL@@QAE@XZ
__unwindfunclet$?LoadInfo@CTabIndex@@EAEXXZ$2:
  00018	8d 8d dc fe ff
	ff		 lea	 ecx, DWORD PTR _strComment$6[ebp]
  0001e	ff 25 00 00 00
	00		 jmp	 DWORD PTR __imp_??1?$CStringT@DV?$StrTraitMFC_DLL@DV?$ChTraitsCRT@D@ATL@@@@@ATL@@QAE@XZ
__unwindfunclet$?LoadInfo@CTabIndex@@EAEXXZ$3:
  00024	8d 8d ec fe ff
	ff		 lea	 ecx, DWORD PTR _strItem$8[ebp]
  0002a	ff 25 00 00 00
	00		 jmp	 DWORD PTR __imp_??1?$CStringT@DV?$StrTraitMFC_DLL@DV?$ChTraitsCRT@D@ATL@@@@@ATL@@QAE@XZ
__unwindfunclet$?LoadInfo@CTabIndex@@EAEXXZ$4:
  00030	8d 8d e0 fe ff
	ff		 lea	 ecx, DWORD PTR $T7[ebp]
  00036	ff 25 00 00 00
	00		 jmp	 DWORD PTR __imp_??1?$CStringT@DV?$StrTraitMFC_DLL@DV?$ChTraitsCRT@D@ATL@@@@@ATL@@QAE@XZ
__unwindfunclet$?LoadInfo@CTabIndex@@EAEXXZ$5:
  0003c	8d 8d d0 fe ff
	ff		 lea	 ecx, DWORD PTR $T4[ebp]
  00042	ff 25 00 00 00
	00		 jmp	 DWORD PTR __imp_??1?$CStringT@DV?$StrTraitMFC_DLL@DV?$ChTraitsCRT@D@ATL@@@@@ATL@@QAE@XZ
  00048	cc		 int	 3
  00049	cc		 int	 3
  0004a	cc		 int	 3
  0004b	cc		 int	 3
  0004c	cc		 int	 3
__ehhandler$?LoadInfo@CTabIndex@@EAEXXZ:
  0004d	90		 npad	 1
  0004e	90		 npad	 1
  0004f	8b 54 24 08	 mov	 edx, DWORD PTR [esp+8]
  00053	8d 42 0c	 lea	 eax, DWORD PTR [edx+12]
  00056	8b 8a 9c fe ff
	ff		 mov	 ecx, DWORD PTR [edx-356]
  0005c	33 c8		 xor	 ecx, eax
  0005e	e8 00 00 00 00	 call	 @__security_check_cookie@4
  00063	8b 4a fc	 mov	 ecx, DWORD PTR [edx-4]
  00066	33 c8		 xor	 ecx, eax
  00068	e8 00 00 00 00	 call	 @__security_check_cookie@4
  0006d	b8 00 00 00 00	 mov	 eax, OFFSET __ehfuncinfo$?LoadInfo@CTabIndex@@EAEXXZ
  00072	e9 00 00 00 00	 jmp	 ___CxxFrameHandler3
text$x	ENDS
?LoadInfo@CTabIndex@@EAEXXZ ENDP			; CTabIndex::LoadInfo
; Function compile flags: /Ogtp
; File D:\git\src\IBK\IBK_DRFN\ProjSrc\SrcDrfn\Chart\STCONFIGUREDLG\TabIndex.cpp
; File C:\Program Files (x86)\Microsoft Visual Studio\2019\Community\VC\Tools\MSVC\14.29.30133\atlmfc\include\afxwin2.inl
; File C:\Program Files (x86)\Microsoft Visual Studio\2019\Community\VC\Tools\MSVC\14.29.30133\atlmfc\include\afxdlgs.h
; File D:\git\src\IBK\IBK_DRFN\ProjSrc\SrcDrfn\Chart\STCONFIGUREDLG\TabIndex.cpp
;	COMDAT ?OnBtnClr@CTabIndex@@AAEXAAVCColorButton@@@Z
_TEXT	SEGMENT
_color$ = -220						; size = 208
__$EHRec$ = -12						; size = 12
$T2 = 8							; size = 4
_rColorButton$ = 8					; size = 4
?OnBtnClr@CTabIndex@@AAEXAAVCColorButton@@@Z PROC	; CTabIndex::OnBtnClr, COMDAT
; _this$ = ecx

; 114  : {

  00000	55		 push	 ebp
  00001	8b ec		 mov	 ebp, esp
  00003	6a ff		 push	 -1
  00005	68 00 00 00 00	 push	 __ehhandler$?OnBtnClr@CTabIndex@@AAEXAAVCColorButton@@@Z
  0000a	64 a1 00 00 00
	00		 mov	 eax, DWORD PTR fs:0
  00010	50		 push	 eax
  00011	81 ec d0 00 00
	00		 sub	 esp, 208		; 000000d0H
  00017	56		 push	 esi
  00018	a1 00 00 00 00	 mov	 eax, DWORD PTR ___security_cookie
  0001d	33 c5		 xor	 eax, ebp
  0001f	50		 push	 eax
  00020	8d 45 f4	 lea	 eax, DWORD PTR __$EHRec$[ebp]
  00023	64 a3 00 00 00
	00		 mov	 DWORD PTR fs:0, eax

; 115  : 	COLORREF crColor = rColorButton.GetColor();

  00029	8b 75 08	 mov	 esi, DWORD PTR _rColorButton$[ebp]

; 116  : 	CColorDialog color(crColor, CC_FULLOPEN);

  0002c	8d 8d 24 ff ff
	ff		 lea	 ecx, DWORD PTR _color$[ebp]
  00032	6a 00		 push	 0
  00034	6a 02		 push	 2
  00036	ff b6 80 00 00
	00		 push	 DWORD PTR [esi+128]
  0003c	e8 00 00 00 00	 call	 ??0CColorDialog@@QAE@KKPAVCWnd@@@Z ; CColorDialog::CColorDialog

; 117  : 	if(color.DoModal() == IDOK) 

  00041	8d 8d 24 ff ff
	ff		 lea	 ecx, DWORD PTR _color$[ebp]
  00047	c7 45 fc 00 00
	00 00		 mov	 DWORD PTR __$EHRec$[ebp+8], 0
  0004e	e8 00 00 00 00	 call	 ?DoModal@CColorDialog@@UAEHXZ ; CColorDialog::DoModal
  00053	83 f8 01	 cmp	 eax, 1
  00056	75 1e		 jne	 SHORT $LN2@OnBtnClr

; 118  : 	{
; 119  : 		rColorButton.SetColor(color.GetColor());				

  00058	8b 45 d8	 mov	 eax, DWORD PTR _color$[ebp+180]
  0005b	8b ce		 mov	 ecx, esi
  0005d	89 45 08	 mov	 DWORD PTR $T2[ebp], eax
  00060	8d 45 08	 lea	 eax, DWORD PTR $T2[ebp]
  00063	50		 push	 eax
  00064	e8 00 00 00 00	 call	 ?SetColor@CColorButton@@QAEXABK@Z ; CColorButton::SetColor
; File C:\Program Files (x86)\Microsoft Visual Studio\2019\Community\VC\Tools\MSVC\14.29.30133\atlmfc\include\afxwin2.inl

; 114  : 	{ ASSERT(::IsWindow(m_hWnd)); ::InvalidateRect(m_hWnd, NULL, bErase); }

  00069	6a 01		 push	 1
  0006b	6a 00		 push	 0
  0006d	ff 76 20	 push	 DWORD PTR [esi+32]
  00070	ff 15 00 00 00
	00		 call	 DWORD PTR __imp__InvalidateRect@12
$LN2@OnBtnClr:
; File C:\Program Files (x86)\Microsoft Visual Studio\2019\Community\VC\Tools\MSVC\14.29.30133\atlmfc\include\afxdlgs.h

; 110  :     virtual ~CCommonDialog() {};

  00076	8d 8d 24 ff ff
	ff		 lea	 ecx, DWORD PTR _color$[ebp]
  0007c	c7 85 24 ff ff
	ff 00 00 00 00	 mov	 DWORD PTR _color$[ebp], OFFSET ??_7CCommonDialog@@6B@
  00086	e8 00 00 00 00	 call	 ??1CDialog@@UAE@XZ	; CDialog::~CDialog
; File D:\git\src\IBK\IBK_DRFN\ProjSrc\SrcDrfn\Chart\STCONFIGUREDLG\TabIndex.cpp

; 122  : }

  0008b	8b 4d f4	 mov	 ecx, DWORD PTR __$EHRec$[ebp]
  0008e	64 89 0d 00 00
	00 00		 mov	 DWORD PTR fs:0, ecx
  00095	59		 pop	 ecx
  00096	5e		 pop	 esi
  00097	8b e5		 mov	 esp, ebp
  00099	5d		 pop	 ebp
  0009a	c2 04 00	 ret	 4
_TEXT	ENDS
;	COMDAT text$x
text$x	SEGMENT
__unwindfunclet$?OnBtnClr@CTabIndex@@AAEXAAVCColorButton@@@Z$0:
  00000	8d 8d 24 ff ff
	ff		 lea	 ecx, DWORD PTR _color$[ebp]
  00006	e9 00 00 00 00	 jmp	 ??1CColorDialog@@UAE@XZ
  0000b	cc		 int	 3
  0000c	cc		 int	 3
  0000d	cc		 int	 3
  0000e	cc		 int	 3
  0000f	cc		 int	 3
__ehhandler$?OnBtnClr@CTabIndex@@AAEXAAVCColorButton@@@Z:
  00010	90		 npad	 1
  00011	90		 npad	 1
  00012	8b 54 24 08	 mov	 edx, DWORD PTR [esp+8]
  00016	8d 42 0c	 lea	 eax, DWORD PTR [edx+12]
  00019	8b 8a 28 ff ff
	ff		 mov	 ecx, DWORD PTR [edx-216]
  0001f	33 c8		 xor	 ecx, eax
  00021	e8 00 00 00 00	 call	 @__security_check_cookie@4
  00026	b8 00 00 00 00	 mov	 eax, OFFSET __ehfuncinfo$?OnBtnClr@CTabIndex@@AAEXAAVCColorButton@@@Z
  0002b	e9 00 00 00 00	 jmp	 ___CxxFrameHandler3
text$x	ENDS
?OnBtnClr@CTabIndex@@AAEXAAVCColorButton@@@Z ENDP	; CTabIndex::OnBtnClr
; Function compile flags: /Ogtp
; File D:\git\src\IBK\IBK_DRFN\ProjSrc\SrcDrfn\Chart\STCONFIGUREDLG\TabIndex.cpp
; File C:\Program Files (x86)\Microsoft Visual Studio\2019\Community\VC\Tools\MSVC\14.29.30133\atlmfc\include\afxcmn2.inl
; File D:\git\src\IBK\IBK_DRFN\ProjSrc\SrcDrfn\Chart\STCONFIGUREDLG\TabIndex.cpp
; File C:\Program Files (x86)\Microsoft Visual Studio\2019\Community\VC\Tools\MSVC\14.29.30133\atlmfc\include\afxcmn2.inl
; File D:\git\src\IBK\IBK_DRFN\ProjSrc\SrcDrfn\Chart\STCONFIGUREDLG\TabIndex.cpp
; File C:\Program Files (x86)\Microsoft Visual Studio\2019\Community\VC\Tools\MSVC\14.29.30133\atlmfc\include\afxcmn2.inl
; File D:\git\src\IBK\IBK_DRFN\ProjSrc\SrcDrfn\Chart\STCONFIGUREDLG\TabIndex.cpp
; File C:\Program Files (x86)\Microsoft Visual Studio\2019\Community\VC\Tools\MSVC\14.29.30133\atlmfc\include\afxcmn2.inl
; File D:\git\src\IBK\IBK_DRFN\ProjSrc\SrcDrfn\Chart\STCONFIGUREDLG\TabIndex.cpp
; File C:\Program Files (x86)\Microsoft Visual Studio\2019\Community\VC\Tools\MSVC\14.29.30133\atlmfc\include\afxcmn2.inl
; File D:\git\src\IBK\IBK_DRFN\ProjSrc\SrcDrfn\Chart\STCONFIGUREDLG\TabIndex.cpp
; File C:\Program Files (x86)\Microsoft Visual Studio\2019\Community\VC\Tools\MSVC\14.29.30133\atlmfc\include\afxcmn.inl
; File D:\git\src\IBK\IBK_DRFN\ProjSrc\SrcDrfn\Chart\STCONFIGUREDLG\TabIndex.cpp
; File C:\Program Files (x86)\Microsoft Visual Studio\2019\Community\VC\Tools\MSVC\14.29.30133\atlmfc\include\afxcmn.inl
; File D:\git\src\IBK\IBK_DRFN\ProjSrc\SrcDrfn\Chart\STCONFIGUREDLG\TabIndex.cpp
; File D:\git\src\IBK\IBK_DRFN\ProjSrc\SrcDrfn\Chart\STCONFIGUREDLG\Control\XListCtrl.h
; File D:\git\src\IBK\IBK_DRFN\ProjSrc\SrcDrfn\Chart\STCONFIGUREDLG\TabIndex.cpp
; File D:\git\src\IBK\IBK_DRFN\ProjSrc\SrcDrfn\Chart\STCONFIGUREDLG\Control\XListCtrl.h
; File D:\git\src\IBK\IBK_DRFN\ProjSrc\SrcDrfn\Chart\STCONFIGUREDLG\TabIndex.cpp
;	COMDAT ?InitColumn@CTabIndex@@AAEXXZ
_TEXT	SEGMENT
_lvcolumn$ = -80					; size = 44
_lpszHeadersType0$ = -36				; size = 8
_colwidthsType0$ = -28					; size = 24
__$ArrayPad$ = -4					; size = 4
?InitColumn@CTabIndex@@AAEXXZ PROC			; CTabIndex::InitColumn, COMDAT
; _this$ = ecx

; 408  : {

  00000	55		 push	 ebp
  00001	8b ec		 mov	 ebp, esp
  00003	83 ec 50	 sub	 esp, 80			; 00000050H
  00006	a1 00 00 00 00	 mov	 eax, DWORD PTR ___security_cookie
  0000b	33 c5		 xor	 eax, ebp
  0000d	89 45 fc	 mov	 DWORD PTR __$ArrayPad$[ebp], eax
  00010	53		 push	 ebx
; File C:\Program Files (x86)\Microsoft Visual Studio\2019\Community\VC\Tools\MSVC\14.29.30133\atlmfc\include\afxcmn2.inl

; 117  : 	{ ASSERT(::IsWindow(m_hWnd)); return (DWORD) ::SendMessage(m_hWnd, LVM_SETEXTENDEDLISTVIEWSTYLE, 0, (LPARAM) dwNewStyle); }

  00011	8b 1d 00 00 00
	00		 mov	 ebx, DWORD PTR __imp__SendMessageA@16
  00017	0f 57 c0	 xorps	 xmm0, xmm0
; File D:\git\src\IBK\IBK_DRFN\ProjSrc\SrcDrfn\Chart\STCONFIGUREDLG\TabIndex.cpp

; 408  : {

  0001a	56		 push	 esi
  0001b	57		 push	 edi
; File C:\Program Files (x86)\Microsoft Visual Studio\2019\Community\VC\Tools\MSVC\14.29.30133\atlmfc\include\afxcmn2.inl

; 117  : 	{ ASSERT(::IsWindow(m_hWnd)); return (DWORD) ::SendMessage(m_hWnd, LVM_SETEXTENDEDLISTVIEWSTYLE, 0, (LPARAM) dwNewStyle); }

  0001c	6a 20		 push	 32			; 00000020H
; File D:\git\src\IBK\IBK_DRFN\ProjSrc\SrcDrfn\Chart\STCONFIGUREDLG\TabIndex.cpp

; 408  : {

  0001e	8b f9		 mov	 edi, ecx

; 409  : 	int colwidthsType0[6] = { 140};	// sixty-fourths

  00020	c7 45 e4 8c 00
	00 00		 mov	 DWORD PTR _colwidthsType0$[ebp], 140 ; 0000008cH
; File C:\Program Files (x86)\Microsoft Visual Studio\2019\Community\VC\Tools\MSVC\14.29.30133\atlmfc\include\afxcmn2.inl

; 117  : 	{ ASSERT(::IsWindow(m_hWnd)); return (DWORD) ::SendMessage(m_hWnd, LVM_SETEXTENDEDLISTVIEWSTYLE, 0, (LPARAM) dwNewStyle); }

  00027	6a 00		 push	 0
  00029	68 36 10 00 00	 push	 4150			; 00001036H
; File D:\git\src\IBK\IBK_DRFN\ProjSrc\SrcDrfn\Chart\STCONFIGUREDLG\TabIndex.cpp

; 409  : 	int colwidthsType0[6] = { 140};	// sixty-fourths

  0002e	0f 11 45 e8	 movups	 XMMWORD PTR _colwidthsType0$[ebp+4], xmm0
  00032	c7 45 f8 00 00
	00 00		 mov	 DWORD PTR _colwidthsType0$[ebp+20], 0
; File C:\Program Files (x86)\Microsoft Visual Studio\2019\Community\VC\Tools\MSVC\14.29.30133\atlmfc\include\afxcmn2.inl

; 117  : 	{ ASSERT(::IsWindow(m_hWnd)); return (DWORD) ::SendMessage(m_hWnd, LVM_SETEXTENDEDLISTVIEWSTYLE, 0, (LPARAM) dwNewStyle); }

  00039	ff b7 e0 02 00
	00		 push	 DWORD PTR [edi+736]
; File D:\git\src\IBK\IBK_DRFN\ProjSrc\SrcDrfn\Chart\STCONFIGUREDLG\TabIndex.cpp

; 412  : 							  _T(""),

  0003f	c7 45 dc 00 00
	00 00		 mov	 DWORD PTR _lpszHeadersType0$[ebp], OFFSET ??_C@_06MKCPLBEP@?A?v?G?$KF?$LI?m@

; 413  : 							  NULL };

  00046	c7 45 e0 00 00
	00 00		 mov	 DWORD PTR _lpszHeadersType0$[ebp+4], 0
; File C:\Program Files (x86)\Microsoft Visual Studio\2019\Community\VC\Tools\MSVC\14.29.30133\atlmfc\include\afxcmn2.inl

; 117  : 	{ ASSERT(::IsWindow(m_hWnd)); return (DWORD) ::SendMessage(m_hWnd, LVM_SETEXTENDEDLISTVIEWSTYLE, 0, (LPARAM) dwNewStyle); }

  0004d	ff d3		 call	 ebx
  0004f	0f 57 c0	 xorps	 xmm0, xmm0
; File D:\git\src\IBK\IBK_DRFN\ProjSrc\SrcDrfn\Chart\STCONFIGUREDLG\TabIndex.cpp

; 419  : 	memset(&lvcolumn, 0, sizeof(lvcolumn));

  00052	c7 45 c0 00 00
	00 00		 mov	 DWORD PTR _lvcolumn$[ebp+16], 0

; 421  : 	for (i = 0; ; i++)

  00059	33 f6		 xor	 esi, esi
  0005b	66 0f 13 45 c8	 movlpd	 QWORD PTR _lvcolumn$[ebp+24], xmm0
  00060	66 0f 13 45 d0	 movlpd	 QWORD PTR _lvcolumn$[ebp+32], xmm0
  00065	b9 00 00 00 00	 mov	 ecx, OFFSET ??_C@_06MKCPLBEP@?A?v?G?$KF?$LI?m@
  0006a	c7 45 d8 00 00
	00 00		 mov	 DWORD PTR _lvcolumn$[ebp+40], 0
  00071	33 d2		 xor	 edx, edx
$LL4@InitColumn:

; 424  : 			break;
; 425  : 		lvcolumn.mask = LVCF_FMT | LVCF_SUBITEM | LVCF_TEXT | LVCF_WIDTH;
; 426  : 		lvcolumn.fmt = i>1 ? LVCFMT_RIGHT:LVCFMT_LEFT;

  00073	33 c0		 xor	 eax, eax
  00075	c7 45 b0 0f 00
	00 00		 mov	 DWORD PTR _lvcolumn$[ebp], 15 ; 0000000fH
  0007c	83 fe 01	 cmp	 esi, 1

; 427  : 		lvcolumn.pszText = lpszHeadersType0[i];

  0007f	89 4d bc	 mov	 DWORD PTR _lvcolumn$[ebp+12], ecx

; 428  : 		lvcolumn.iSubItem = i;

  00082	89 75 c4	 mov	 DWORD PTR _lvcolumn$[ebp+20], esi
  00085	0f 9f c0	 setg	 al
  00088	89 45 b4	 mov	 DWORD PTR _lvcolumn$[ebp+4], eax

; 429  : 		lvcolumn.cx = colwidthsType0[i];

  0008b	8b 44 15 e4	 mov	 eax, DWORD PTR _colwidthsType0$[ebp+edx]
  0008f	89 45 b8	 mov	 DWORD PTR _lvcolumn$[ebp+8], eax
; File C:\Program Files (x86)\Microsoft Visual Studio\2019\Community\VC\Tools\MSVC\14.29.30133\atlmfc\include\afxcmn.inl

; 209  : 	{ ASSERT(::IsWindow(m_hWnd)); return (int) ::SendMessage(m_hWnd, LVM_INSERTCOLUMN, nCol, (LPARAM)pColumn); }

  00092	8d 45 b0	 lea	 eax, DWORD PTR _lvcolumn$[ebp]
  00095	50		 push	 eax
  00096	56		 push	 esi
  00097	68 1b 10 00 00	 push	 4123			; 0000101bH
  0009c	ff b7 e0 02 00
	00		 push	 DWORD PTR [edi+736]
  000a2	ff d3		 call	 ebx
; File D:\git\src\IBK\IBK_DRFN\ProjSrc\SrcDrfn\Chart\STCONFIGUREDLG\TabIndex.cpp

; 421  : 	for (i = 0; ; i++)

  000a4	46		 inc	 esi

; 422  : 	{
; 423  : 		if (lpszHeadersType0[i] == NULL)

  000a5	8d 14 b5 00 00
	00 00		 lea	 edx, DWORD PTR [esi*4]
  000ac	8b 4c 15 dc	 mov	 ecx, DWORD PTR _lpszHeadersType0$[ebp+edx]
  000b0	85 c9		 test	 ecx, ecx
  000b2	75 bf		 jne	 SHORT $LL4@InitColumn

; 430  : 		total_cx += lvcolumn.cx;
; 431  : 		m_listGraph.InsertColumn(i, &lvcolumn);
; 432  : 	}
; 433  : 	// iterate through header items and attach the image list
; 434  : 	memset(&lvcolumn, 0, sizeof(lvcolumn));

  000b4	0f 57 c0	 xorps	 xmm0, xmm0
  000b7	89 4d c0	 mov	 DWORD PTR _lvcolumn$[ebp+16], ecx
  000ba	66 0f 13 45 b8	 movlpd	 QWORD PTR _lvcolumn$[ebp+8], xmm0

; 436  : 	for (i = 0; ; i++)

  000bf	33 f6		 xor	 esi, esi
  000c1	66 0f 13 45 c8	 movlpd	 QWORD PTR _lvcolumn$[ebp+24], xmm0
  000c6	66 0f 13 45 d0	 movlpd	 QWORD PTR _lvcolumn$[ebp+32], xmm0
  000cb	89 4d d8	 mov	 DWORD PTR _lvcolumn$[ebp+40], ecx
  000ce	66 90		 npad	 2
$LL7@InitColumn:

; 439  : 			break;
; 440  : 		lvcolumn.mask = LVCF_FMT | LVCF_SUBITEM;
; 441  : 		lvcolumn.fmt = i>1 ? LVCFMT_RIGHT:LVCFMT_LEFT;

  000d0	33 c0		 xor	 eax, eax
  000d2	c7 45 b0 09 00
	00 00		 mov	 DWORD PTR _lvcolumn$[ebp], 9
  000d9	83 fe 01	 cmp	 esi, 1

; 442  : 		lvcolumn.iSubItem = i;

  000dc	89 75 c4	 mov	 DWORD PTR _lvcolumn$[ebp+20], esi
  000df	0f 9f c0	 setg	 al
  000e2	89 45 b4	 mov	 DWORD PTR _lvcolumn$[ebp+4], eax
; File C:\Program Files (x86)\Microsoft Visual Studio\2019\Community\VC\Tools\MSVC\14.29.30133\atlmfc\include\afxcmn.inl

; 207  : 	{ ASSERT(::IsWindow(m_hWnd)); return (BOOL) ::SendMessage(m_hWnd, LVM_SETCOLUMN, nCol, (LPARAM)pColumn); }

  000e5	8d 45 b0	 lea	 eax, DWORD PTR _lvcolumn$[ebp]
  000e8	50		 push	 eax
  000e9	56		 push	 esi
  000ea	68 1a 10 00 00	 push	 4122			; 0000101aH
  000ef	ff b7 e0 02 00
	00		 push	 DWORD PTR [edi+736]
  000f5	ff d3		 call	 ebx
; File D:\git\src\IBK\IBK_DRFN\ProjSrc\SrcDrfn\Chart\STCONFIGUREDLG\TabIndex.cpp

; 436  : 	for (i = 0; ; i++)

  000f7	46		 inc	 esi

; 437  : 	{
; 438  : 		if (lpszHeadersType0[i] == NULL)

  000f8	83 7c b5 dc 00	 cmp	 DWORD PTR _lpszHeadersType0$[ebp+esi*4], 0
  000fd	75 d1		 jne	 SHORT $LL7@InitColumn

; 446  : }

  000ff	8b 4d fc	 mov	 ecx, DWORD PTR __$ArrayPad$[ebp]
; File D:\git\src\IBK\IBK_DRFN\ProjSrc\SrcDrfn\Chart\STCONFIGUREDLG\Control\XListCtrl.h

; 176  : 		m_crHighLightText = m_crUsrHighLightText = crText;

  00102	c7 87 50 04 00
	00 00 00 00 00	 mov	 DWORD PTR [edi+1104], 0
; File D:\git\src\IBK\IBK_DRFN\ProjSrc\SrcDrfn\Chart\STCONFIGUREDLG\TabIndex.cpp

; 446  : }

  0010c	33 cd		 xor	 ecx, ebp
; File D:\git\src\IBK\IBK_DRFN\ProjSrc\SrcDrfn\Chart\STCONFIGUREDLG\Control\XListCtrl.h

; 176  : 		m_crHighLightText = m_crUsrHighLightText = crText;

  0010e	c7 87 40 04 00
	00 00 00 00 00	 mov	 DWORD PTR [edi+1088], 0

; 177  : 		m_crHighLight = m_crUsrHighLight = crBackground;

  00118	c7 87 4c 04 00
	00 d0 dd f0 00	 mov	 DWORD PTR [edi+1100], 15785424 ; 00f0ddd0H
  00122	c7 87 3c 04 00
	00 d0 dd f0 00	 mov	 DWORD PTR [edi+1084], 15785424 ; 00f0ddd0H
  0012c	5f		 pop	 edi
  0012d	5e		 pop	 esi
  0012e	5b		 pop	 ebx
; File D:\git\src\IBK\IBK_DRFN\ProjSrc\SrcDrfn\Chart\STCONFIGUREDLG\TabIndex.cpp

; 446  : }

  0012f	e8 00 00 00 00	 call	 @__security_check_cookie@4
  00134	8b e5		 mov	 esp, ebp
  00136	5d		 pop	 ebp
  00137	c3		 ret	 0
?InitColumn@CTabIndex@@AAEXXZ ENDP			; CTabIndex::InitColumn
_TEXT	ENDS
; Function compile flags: /Ogtp
; File D:\git\src\IBK\IBK_DRFN\ProjSrc\SrcDrfn\Chart\STCONFIGUREDLG\TabIndex.cpp
; File C:\Program Files (x86)\Microsoft Visual Studio\2019\Community\VC\Tools\MSVC\14.29.30133\atlmfc\include\afxwin1.inl
; File D:\git\src\IBK\IBK_DRFN\ProjSrc\SrcDrfn\Chart\STCONFIGUREDLG\TabIndex.cpp
; File C:\Program Files (x86)\Microsoft Visual Studio\2019\Community\VC\Tools\MSVC\14.29.30133\atlmfc\include\afxwin1.inl
; File D:\git\src\IBK\IBK_DRFN\ProjSrc\SrcDrfn\Chart\STCONFIGUREDLG\TabIndex.cpp
; File C:\Program Files (x86)\Microsoft Visual Studio\2019\Community\VC\Tools\MSVC\14.29.30133\atlmfc\include\afxwin1.inl
; File C:\Program Files (x86)\Microsoft Visual Studio\2019\Community\VC\Tools\MSVC\14.29.30133\atlmfc\include\afxwin2.inl
; File D:\git\src\IBK\IBK_DRFN\ProjSrc\SrcDrfn\Chart\STCONFIGUREDLG\TabIndex.cpp
; File C:\Program Files (x86)\Microsoft Visual Studio\2019\Community\VC\Tools\MSVC\14.29.30133\atlmfc\include\afxwin2.inl
; File D:\git\src\IBK\IBK_DRFN\ProjSrc\SrcDrfn\Chart\STCONFIGUREDLG\TabIndex.cpp
; File C:\Program Files (x86)\Microsoft Visual Studio\2019\Community\VC\Tools\MSVC\14.29.30133\atlmfc\include\afxwin2.inl
; File D:\git\src\IBK\IBK_DRFN\ProjSrc\SrcDrfn\Chart\STCONFIGUREDLG\TabIndex.cpp
; File C:\Program Files (x86)\Microsoft Visual Studio\2019\Community\VC\Tools\MSVC\14.29.30133\atlmfc\include\afxwin2.inl
; File D:\git\src\IBK\IBK_DRFN\ProjSrc\SrcDrfn\Chart\STCONFIGUREDLG\TabIndex.cpp
; File C:\Program Files (x86)\Microsoft Visual Studio\2019\Community\VC\Tools\MSVC\14.29.30133\atlmfc\include\afxwin1.inl
; File D:\git\src\IBK\IBK_DRFN\ProjSrc\SrcDrfn\Chart\STCONFIGUREDLG\TabIndex.cpp
; File C:\Program Files (x86)\Microsoft Visual Studio\2019\Community\VC\Tools\MSVC\14.29.30133\atlmfc\include\afxwin1.inl
; File C:\Program Files (x86)\Microsoft Visual Studio\2019\Community\VC\Tools\MSVC\14.29.30133\atlmfc\include\afxwin2.inl
; File D:\git\src\IBK\IBK_DRFN\ProjSrc\SrcDrfn\Chart\STCONFIGUREDLG\TabIndex.cpp
; File C:\Program Files (x86)\Microsoft Visual Studio\2019\Community\VC\Tools\MSVC\14.29.30133\atlmfc\include\afxwin2.inl
; File D:\git\src\IBK\IBK_DRFN\ProjSrc\SrcDrfn\Chart\STCONFIGUREDLG\TabIndex.cpp
; File C:\Program Files (x86)\Microsoft Visual Studio\2019\Community\VC\Tools\MSVC\14.29.30133\atlmfc\include\afxwin2.inl
; File D:\git\src\IBK\IBK_DRFN\ProjSrc\SrcDrfn\Chart\STCONFIGUREDLG\TabIndex.cpp
; File C:\Program Files (x86)\Microsoft Visual Studio\2019\Community\VC\Tools\MSVC\14.29.30133\atlmfc\include\afxwin2.inl
; File D:\git\src\IBK\IBK_DRFN\ProjSrc\SrcDrfn\Chart\STCONFIGUREDLG\TabIndex.cpp
;	COMDAT ?InitComboBox@CTabIndex@@AAEXXZ
_TEXT	SEGMENT
?InitComboBox@CTabIndex@@AAEXXZ PROC			; CTabIndex::InitComboBox, COMDAT
; _this$ = ecx

; 92   : {

  00000	53		 push	 ebx
  00001	56		 push	 esi
  00002	57		 push	 edi
; File C:\Program Files (x86)\Microsoft Visual Studio\2019\Community\VC\Tools\MSVC\14.29.30133\atlmfc\include\afxwin1.inl

; 212  : 	{ return Attach(::LoadBitmapW(AfxFindResourceHandle(

  00003	68 11 52 00 00	 push	 21009			; 00005211H
  00008	6a 02		 push	 2
  0000a	68 11 52 00 00	 push	 21009			; 00005211H
; File D:\git\src\IBK\IBK_DRFN\ProjSrc\SrcDrfn\Chart\STCONFIGUREDLG\TabIndex.cpp

; 92   : {

  0000f	8b f1		 mov	 esi, ecx
; File C:\Program Files (x86)\Microsoft Visual Studio\2019\Community\VC\Tools\MSVC\14.29.30133\atlmfc\include\afxwin1.inl

