; Listing generated by Microsoft (R) Optimizing Compiler Version 19.29.30145.0 

	TITLE	D:\git\src\IBK\IBK_DRFN\#DRfn-CS\_Obj\STConfigureDlg\TabRunSetup.obj
	.686P
	.XMM
	include listing.inc
	.model	flat

INCLUDELIB MSVCRT
INCLUDELIB OLDNAMES

PUBLIC	?__empty_global_delete@@YAXPAX@Z		; __empty_global_delete
PUBLIC	?__empty_global_delete@@YAXPAXI@Z		; __empty_global_delete
PUBLIC	?Serialize@CObject@@UAEXAAVCArchive@@@Z		; CObject::Serialize
PUBLIC	?AssertValid@CObject@@UBEXXZ			; CObject::AssertValid
PUBLIC	?Dump@CObject@@UBEXAAVCDumpContext@@@Z		; CObject::Dump
PUBLIC	?DoDataExchange@CWnd@@MAEXPAVCDataExchange@@@Z	; CWnd::DoDataExchange
PUBLIC	?BeginModalState@CWnd@@UAEXXZ			; CWnd::BeginModalState
PUBLIC	?EndModalState@CWnd@@UAEXXZ			; CWnd::EndModalState
PUBLIC	?Create@CDialog@@UAEHIPAVCWnd@@@Z		; CDialog::Create
PUBLIC	??1CCommonDialog@@UAE@XZ			; CCommonDialog::~CCommonDialog
PUBLIC	??_GCCommonDialog@@UAEPAXI@Z			; CCommonDialog::`scalar deleting destructor'
PUBLIC	??1CColorDialog@@UAE@XZ				; CColorDialog::~CColorDialog
PUBLIC	??0CSTConfigEnv_Jumun@@QAE@XZ			; CSTConfigEnv_Jumun::CSTConfigEnv_Jumun
PUBLIC	??1CSTConfigEnv_Jumun@@QAE@XZ			; CSTConfigEnv_Jumun::~CSTConfigEnv_Jumun
PUBLIC	?LoadInfo@CSTConfigEnv_Jumun@@QAEXPBD@Z		; CSTConfigEnv_Jumun::LoadInfo
PUBLIC	??0CSTConfigEnv_Signal@@QAE@XZ			; CSTConfigEnv_Signal::CSTConfigEnv_Signal
PUBLIC	??1CSTConfigEnv_Signal@@QAE@XZ			; CSTConfigEnv_Signal::~CSTConfigEnv_Signal
PUBLIC	?LoadInfo@CSTConfigEnv_Signal@@QAEXPBD@Z	; CSTConfigEnv_Signal::LoadInfo
PUBLIC	??0CSTConfigEnv_Setup@@QAE@XZ			; CSTConfigEnv_Setup::CSTConfigEnv_Setup
PUBLIC	??1CSTConfigEnv_Setup@@QAE@XZ			; CSTConfigEnv_Setup::~CSTConfigEnv_Setup
PUBLIC	?LoadInfo@CSTConfigEnv_Setup@@QAEXPBD@Z		; CSTConfigEnv_Setup::LoadInfo
PUBLIC	??0CSTConfigEnv_Clear@@QAE@XZ			; CSTConfigEnv_Clear::CSTConfigEnv_Clear
PUBLIC	??1CSTConfigEnv_Clear@@QAE@XZ			; CSTConfigEnv_Clear::~CSTConfigEnv_Clear
PUBLIC	?LoadInfo@CSTConfigEnv_Clear@@QAEXPBD@Z		; CSTConfigEnv_Clear::LoadInfo
PUBLIC	?LoadInfo@CSTConfigEnv@@QAEXPBD0H@Z		; CSTConfigEnv::LoadInfo
PUBLIC	??1CSTConfigEnv@@QAE@XZ				; CSTConfigEnv::~CSTConfigEnv
PUBLIC	?cmStar@CConfigHelper@@SAHPAVCComboBox@@@Z	; CConfigHelper::cmStar
PUBLIC	?PreTranslateMessage@CRscDlg@@MAEHPAUtagMSG@@@Z	; CRscDlg::PreTranslateMessage
PUBLIC	??1CRscDlg@@UAE@XZ				; CRscDlg::~CRscDlg
PUBLIC	??0CTabRunSetup@@QAE@PAVCWnd@@@Z		; CTabRunSetup::CTabRunSetup
PUBLIC	?DoDataExchange@CTabRunSetup@@MAEXPAVCDataExchange@@@Z ; CTabRunSetup::DoDataExchange
PUBLIC	?LoadInfo@CTabRunSetup@@UAEXXZ			; CTabRunSetup::LoadInfo
PUBLIC	?SaveInfo@CTabRunSetup@@UAEHXZ			; CTabRunSetup::SaveInfo
PUBLIC	?RemoveInfo@CTabRunSetup@@UAEXXZ		; CTabRunSetup::RemoveInfo
PUBLIC	?SetDefault@CTabRunSetup@@UAEXXZ		; CTabRunSetup::SetDefault
PUBLIC	?OnInitDialog@CTabRunSetup@@MAEHXZ		; CTabRunSetup::OnInitDialog
PUBLIC	?OnCtlColor@CTabRunSetup@@IAEPAUHBRUSH__@@PAVCDC@@PAVCWnd@@I@Z ; CTabRunSetup::OnCtlColor
PUBLIC	?OnBnClickedBtC1@CTabRunSetup@@IAEXXZ		; CTabRunSetup::OnBnClickedBtC1
PUBLIC	?OnBnClickedBtC2@CTabRunSetup@@IAEXXZ		; CTabRunSetup::OnBnClickedBtC2
PUBLIC	?OnBnClickedBtC3@CTabRunSetup@@IAEXXZ		; CTabRunSetup::OnBnClickedBtC3
PUBLIC	?OnBnClickedBtC4@CTabRunSetup@@IAEXXZ		; CTabRunSetup::OnBnClickedBtC4
PUBLIC	?OnBnClickedBtC5@CTabRunSetup@@IAEXXZ		; CTabRunSetup::OnBnClickedBtC5
PUBLIC	?GetThisMessageMap@CTabRunSetup@@KGPBUAFX_MSGMAP@@XZ ; CTabRunSetup::GetThisMessageMap
PUBLIC	?GetMessageMap@CTabRunSetup@@MBEPBUAFX_MSGMAP@@XZ ; CTabRunSetup::GetMessageMap
PUBLIC	?OnBtnClr@CTabRunSetup@@QAEXAAVCColorButton@@@Z	; CTabRunSetup::OnBtnClr
PUBLIC	??_GCTabRunSetup@@UAEPAXI@Z			; CTabRunSetup::`scalar deleting destructor'
PUBLIC	?_OptionsStorage@?1??__local_stdio_printf_options@@9@4_KA ; `__local_stdio_printf_options'::`2'::_OptionsStorage
PUBLIC	??_C@_02DPKJAMEF@?$CFd@				; `string'
PUBLIC	??_C@_00CNPNBAHC@@				; `string'
PUBLIC	??_7CCommonDialog@@6B@				; CCommonDialog::`vftable'
PUBLIC	??_C@_01HIHLOKLC@1@				; `string'
PUBLIC	??_C@_02DKCKIIND@?$CFs@				; `string'
PUBLIC	??_C@_03EAIPFAE@255@				; `string'
PUBLIC	??_C@_08HNMDJOHO@16711680@			; `string'
PUBLIC	??_C@_03NKBOLEBK@0?41@				; `string'
PUBLIC	??_C@_03KHGJEAFP@0?44@				; `string'
PUBLIC	??_C@_08IFJCKPBE@RunJumun@			; `string'
PUBLIC	??_C@_04HEBPOIHN@Acct@				; `string'
PUBLIC	??_C@_08JIEKPDDN@AcctName@			; `string'
PUBLIC	??_C@_09PBAMDNFG@MKPRC_ENT@			; `string'
PUBLIC	??_C@_09IBLJBBGC@MKPRC_CLR@			; `string'
PUBLIC	??_C@_07DKAPHGBA@JAmount@			; `string'
PUBLIC	??_C@_08OPHLCDJG@BuyPrice@			; `string'
PUBLIC	??_C@_09IFJBEAG@SellPrice@			; `string'
PUBLIC	??_C@_07OPLPMPLO@JMethod@			; `string'
PUBLIC	??_C@_05DDMGGBEF@JTime@				; `string'
PUBLIC	??_C@_0N@PHFNPPGD@JStartSignal@			; `string'
PUBLIC	??_C@_0O@GGGJIOBG@Sound_Buy_Use@		; `string'
PUBLIC	??_C@_0P@PLANCCBL@Sound_Buy_File@		; `string'
PUBLIC	??_C@_0P@ELHCNFMP@Sound_Sell_Use@		; `string'
PUBLIC	??_C@_0BA@ECPFDDA@Sound_Sell_File@		; `string'
PUBLIC	??_C@_09HGMEBGJP@?$CFs?2Media?2@		; `string'
PUBLIC	??_C@_08KBMMPOBE@ding?4wav@			; `string'
PUBLIC	??_C@_09JICOEDDI@chord?4wav@			; `string'
PUBLIC	??_C@_08LLMMGHPD@ShapeBuy@			; `string'
PUBLIC	??_C@_06CPODCDOI@Signal@			; `string'
PUBLIC	??_C@_0O@GJJKDADC@ShapeExitlong@		; `string'
PUBLIC	??_C@_09PKDDMDFM@ShapeSell@			; `string'
PUBLIC	??_C@_0P@GBBMBNOC@ShapeExitshort@		; `string'
PUBLIC	??_C@_06HGIOMLFJ@ClrBuy@			; `string'
PUBLIC	??_C@_0M@FJPKOBBF@ClrExitlong@			; `string'
PUBLIC	??_C@_07MMPNMLAG@ClrSell@			; `string'
PUBLIC	??_C@_0N@MECGMIFI@ClrExitshort@			; `string'
PUBLIC	??_C@_0L@DJJDHKPF@ClearPoint@			; `string'
PUBLIC	??_C@_08DIPLEMAP@RunSetup@			; `string'
PUBLIC	??_C@_04FKMDNGOE@Chk1@				; `string'
PUBLIC	??_C@_03MDLPKKEC@ED1@				; `string'
PUBLIC	??_C@_02KKFPAPOP@P1@				; `string'
PUBLIC	??_C@_02KIBJLBLG@S1@				; `string'
PUBLIC	??_C@_06IEMDKIBD@CLR_?$CFs@			; `string'
PUBLIC	??_C@_04HBOOIFCH@Chk2@				; `string'
PUBLIC	??_C@_03OIJCPJIB@ED2@				; `string'
PUBLIC	??_C@_02IBHCFMCM@P2@				; `string'
PUBLIC	??_C@_02IDDEOCHF@S2@				; `string'
PUBLIC	??_C@_01FDFGLJHB@2@				; `string'
PUBLIC	??_C@_04GIPFLEGG@Chk3@				; `string'
PUBLIC	??_C@_03PBIJMIMA@ED3@				; `string'
PUBLIC	??_C@_02JIGJGNGN@P3@				; `string'
PUBLIC	??_C@_02JKCPNDDE@S3@				; `string'
PUBLIC	??_C@_01EKENIIDA@3@				; `string'
PUBLIC	??_C@_04CHLECCKB@Chk4@				; `string'
PUBLIC	??_C@_03LOMIFOAH@ED4@				; `string'
PUBLIC	??_C@_02NHCIPLKK@P4@				; `string'
PUBLIC	??_C@_02NFGOEFPD@S4@				; `string'
PUBLIC	??_C@_01FAMBOPH@4@				; `string'
PUBLIC	??_C@_04DOKPBDOA@Chk5@				; `string'
PUBLIC	??_C@_03KHNDGPEG@ED5@				; `string'
PUBLIC	??_C@_02MODDMKOL@P5@				; `string'
PUBLIC	??_C@_04BAFOPPNE@Bong@				; `string'
PUBLIC	??_C@_04BFICEACD@Chk6@				; `string'
PUBLIC	??_C@_05CDDCFJNA@TimeA@				; `string'
PUBLIC	??_C@_07GFAEBBEE@ED_Time@			; `string'
PUBLIC	??_C@_04MJJHBGC@Chk7@				; `string'
PUBLIC	??_C@_03IMPODMIF@ED6@				; `string'
PUBLIC	??_C@_03JFOFANME@ED7@				; `string'
PUBLIC	??_C@_02OFBOJJCI@P6@				; `string'
PUBLIC	??_C@_02PMAFKIGJ@P7@				; `string'
PUBLIC	??_C@_02MMHFHELC@S5@				; `string'
PUBLIC	??_C@_01BMBHCPLG@5@				; `string'
PUBLIC	??_C@_02PKFBJPLJ@10@				; `string'
PUBLIC	??_C@_02PIBHCBOA@20@				; `string'
PUBLIC	??_C@_02PJNFELNH@30@				; `string'
PUBLIC	??_C@_05PFBNHJLB@02?300@			; `string'
PUBLIC	??_C@_05IEPODGEO@Allow@				; `string'
PUBLIC	??_C@_08PHIBHFDB@RunClear@			; `string'
PUBLIC	??_C@_06HJIMLMON@Repeat@			; `string'
PUBLIC	??_C@_06EFLNJIJO@JCount@			; `string'
PUBLIC	??_C@_06CCNJGCGG@TaxBuy@			; `string'
PUBLIC	??_C@_07HKMPLBJC@TaxSell@			; `string'
PUBLIC	??_C@_05MJDDMNJJ@cbTax@				; `string'
PUBLIC	??_C@_0L@IAKIPLHP@SlipigyBuy@			; `string'
PUBLIC	??_C@_0M@BOAGGIML@SlipigySell@			; `string'
PUBLIC	??_C@_0L@KHLJBL@cbSplipigy@			; `string'
PUBLIC	??_R0?AVCObject@@@8				; CObject `RTTI Type Descriptor'
PUBLIC	??_R3CObject@@8					; CObject::`RTTI Class Hierarchy Descriptor'
PUBLIC	??_R2CObject@@8					; CObject::`RTTI Base Class Array'
PUBLIC	??_R1A@?0A@EA@CObject@@8			; CObject::`RTTI Base Class Descriptor at (0,-1,0,64)'
PUBLIC	??_R1A@?0A@EA@CWnd@@8				; CWnd::`RTTI Base Class Descriptor at (0,-1,0,64)'
PUBLIC	??_R0?AVCWnd@@@8				; CWnd `RTTI Type Descriptor'
PUBLIC	??_R3CWnd@@8					; CWnd::`RTTI Class Hierarchy Descriptor'
PUBLIC	??_R2CWnd@@8					; CWnd::`RTTI Base Class Array'
PUBLIC	??_R1A@?0A@EA@CCmdTarget@@8			; CCmdTarget::`RTTI Base Class Descriptor at (0,-1,0,64)'
PUBLIC	??_R0?AVCCmdTarget@@@8				; CCmdTarget `RTTI Type Descriptor'
PUBLIC	??_R3CCmdTarget@@8				; CCmdTarget::`RTTI Class Hierarchy Descriptor'
PUBLIC	??_R2CCmdTarget@@8				; CCmdTarget::`RTTI Base Class Array'
PUBLIC	??_R4CCommonDialog@@6B@				; CCommonDialog::`RTTI Complete Object Locator'
PUBLIC	??_R0?AVCCommonDialog@@@8			; CCommonDialog `RTTI Type Descriptor'
PUBLIC	??_R3CCommonDialog@@8				; CCommonDialog::`RTTI Class Hierarchy Descriptor'
PUBLIC	??_R2CCommonDialog@@8				; CCommonDialog::`RTTI Base Class Array'
PUBLIC	??_R1A@?0A@EA@CCommonDialog@@8			; CCommonDialog::`RTTI Base Class Descriptor at (0,-1,0,64)'
PUBLIC	??_R1A@?0A@EA@CDialog@@8			; CDialog::`RTTI Base Class Descriptor at (0,-1,0,64)'
PUBLIC	??_R0?AVCDialog@@@8				; CDialog `RTTI Type Descriptor'
PUBLIC	??_R3CDialog@@8					; CDialog::`RTTI Class Hierarchy Descriptor'
PUBLIC	??_R2CDialog@@8					; CDialog::`RTTI Base Class Array'
PUBLIC	??_C@_01FGNFDNOH@?$CF@				; `string'
PUBLIC	??_C@_05BGOFFEGG@Point@				; `string'
PUBLIC	??_C@_04PEKBEBNA@?$LP?$MA?$MA?$PM@		; `string'
PUBLIC	??_C@_04ONCNKMJD@?$LP?$MA?H?D@			; `string'
PUBLIC	??_C@_02KDNDDMCP@?$KB?Z@			; `string'
PUBLIC	??_C@_02IIPOGPOM@?$KB?Y@			; `string'
PUBLIC	??_C@_02BBLIHIKN@?$KC?$MA@			; `string'
PUBLIC	??_C@_02LJBPBNJE@?$KC?$LP@			; `string'
PUBLIC	??_C@_02CDIOBKCP@?$KC?B@			; `string'
PUBLIC	??_C@_02DKJFCLGO@?$KC?C@			; `string'
PUBLIC	??_C@_02JPGBNDBH@?$KB?a@			; `string'
PUBLIC	??_C@_02IGHKOCFG@?$KB?$OA@			; `string'
PUBLIC	??_7CTabRunSetup@@6B@				; CTabRunSetup::`vftable'
PUBLIC	??_C@_03JALODAI@?$CFld@				; `string'
PUBLIC	??_R4CTabRunSetup@@6B@				; CTabRunSetup::`RTTI Complete Object Locator'
PUBLIC	??_R0?AVCTabRunSetup@@@8			; CTabRunSetup `RTTI Type Descriptor'
PUBLIC	??_R3CTabRunSetup@@8				; CTabRunSetup::`RTTI Class Hierarchy Descriptor'
PUBLIC	??_R2CTabRunSetup@@8				; CTabRunSetup::`RTTI Base Class Array'
PUBLIC	??_R1A@?0A@EA@CTabRunSetup@@8			; CTabRunSetup::`RTTI Base Class Descriptor at (0,-1,0,64)'
PUBLIC	??_R1A@?0A@EA@CRscDlg@@8			; CRscDlg::`RTTI Base Class Descriptor at (0,-1,0,64)'
PUBLIC	??_R0?AVCRscDlg@@@8				; CRscDlg `RTTI Type Descriptor'
PUBLIC	??_R3CRscDlg@@8					; CRscDlg::`RTTI Class Hierarchy Descriptor'
PUBLIC	??_R2CRscDlg@@8					; CRscDlg::`RTTI Base Class Array'
EXTRN	??2@YAPAXI@Z:PROC				; operator new
EXTRN	??3@YAXPAX@Z:PROC				; operator delete
EXTRN	??3@YAXPAXI@Z:PROC				; operator delete
EXTRN	?__global_delete@@YAXPAXI@Z:PROC		; __global_delete
EXTRN	__imp__GetWindowsDirectoryA@8:PROC
EXTRN	__imp__GetPrivateProfileIntA@16:PROC
EXTRN	__imp__GetPrivateProfileStringA@24:PROC
EXTRN	__imp__WritePrivateProfileStringA@16:PROC
EXTRN	__imp__SendMessageA@16:PROC
EXTRN	__imp__GetKeyState@4:PROC
EXTRN	__imp__EnableWindow@8:PROC
EXTRN	__imp__InvalidateRect@12:PROC
EXTRN	__imp__GetParent@4:PROC
EXTRN	__imp____stdio_common_vsprintf:PROC
EXTRN	__imp__atoi:PROC
EXTRN	__imp__atol:PROC
EXTRN	__imp_?Concatenate@?$CSimpleStringT@D$00@ATL@@KAXAAV12@PBDH1H@Z:PROC
EXTRN	__imp_??0?$CStringT@DV?$StrTraitMFC_DLL@DV?$ChTraitsCRT@D@ATL@@@@@ATL@@QAE@XZ:PROC
EXTRN	__imp_??0?$CStringT@DV?$StrTraitMFC_DLL@DV?$ChTraitsCRT@D@ATL@@@@@ATL@@QAE@PAUIAtlStringMgr@1@@Z:PROC
EXTRN	__imp_??0?$CStringT@DV?$StrTraitMFC_DLL@DV?$ChTraitsCRT@D@ATL@@@@@ATL@@QAE@PBD@Z:PROC
EXTRN	__imp_??1?$CStringT@DV?$StrTraitMFC_DLL@DV?$ChTraitsCRT@D@ATL@@@@@ATL@@QAE@XZ:PROC
EXTRN	__imp_??4?$CStringT@DV?$StrTraitMFC_DLL@DV?$ChTraitsCRT@D@ATL@@@@@ATL@@QAEAAV01@ABV01@@Z:PROC
EXTRN	__imp_??4?$CStringT@DV?$StrTraitMFC_DLL@DV?$ChTraitsCRT@D@ATL@@@@@ATL@@QAEAAV01@PBD@Z:PROC
EXTRN	__imp_?GetManager@?$CStringT@DV?$StrTraitMFC_DLL@DV?$ChTraitsCRT@D@ATL@@@@@ATL@@QBEPAUIAtlStringMgr@2@XZ:PROC
EXTRN	__imp_?Format@?$CStringT@DV?$StrTraitMFC_DLL@DV?$ChTraitsCRT@D@ATL@@@@@ATL@@QAAXPBDZZ:PROC
EXTRN	?DDX_Control@@YGXPAVCDataExchange@@HAAVCWnd@@@Z:PROC ; DDX_Control
EXTRN	?IsInvokeAllowed@CCmdTarget@@UAEHJ@Z:PROC	; CCmdTarget::IsInvokeAllowed
EXTRN	?GetDispatchIID@CCmdTarget@@UAEHPAU_GUID@@@Z:PROC ; CCmdTarget::GetDispatchIID
EXTRN	?GetTypeInfoCount@CCmdTarget@@UAEIXZ:PROC	; CCmdTarget::GetTypeInfoCount
EXTRN	?GetTypeLibCache@CCmdTarget@@UAEPAVCTypeLibCache@@XZ:PROC ; CCmdTarget::GetTypeLibCache
EXTRN	?GetTypeLib@CCmdTarget@@UAEJKPAPAUITypeLib@@@Z:PROC ; CCmdTarget::GetTypeLib
EXTRN	?GetCommandMap@CCmdTarget@@MBEPBUAFX_OLECMDMAP@@XZ:PROC ; CCmdTarget::GetCommandMap
EXTRN	?GetDispatchMap@CCmdTarget@@MBEPBUAFX_DISPMAP@@XZ:PROC ; CCmdTarget::GetDispatchMap
EXTRN	?GetConnectionMap@CCmdTarget@@MBEPBUAFX_CONNECTIONMAP@@XZ:PROC ; CCmdTarget::GetConnectionMap
EXTRN	?GetEventSinkMap@CCmdTarget@@MBEPBUAFX_EVENTSINKMAP@@XZ:PROC ; CCmdTarget::GetEventSinkMap
EXTRN	?OnCreateAggregates@CCmdTarget@@UAEHXZ:PROC	; CCmdTarget::OnCreateAggregates
EXTRN	?GetInterfaceHook@CCmdTarget@@UAEPAUIUnknown@@PBX@Z:PROC ; CCmdTarget::GetInterfaceHook
EXTRN	?GetExtraConnectionPoints@CCmdTarget@@MAEHPAVCPtrArray@@@Z:PROC ; CCmdTarget::GetExtraConnectionPoints
EXTRN	?GetConnectionHook@CCmdTarget@@MAEPAUIConnectionPoint@@ABU_GUID@@@Z:PROC ; CCmdTarget::GetConnectionHook
EXTRN	?FromHandle@CWnd@@SGPAV1@PAUHWND__@@@Z:PROC	; CWnd::FromHandle
EXTRN	?PreSubclassWindow@CWnd@@UAEXXZ:PROC		; CWnd::PreSubclassWindow
EXTRN	?Create@CWnd@@UAEHPBD0KABUtagRECT@@PAV1@IPAUCCreateContext@@@Z:PROC ; CWnd::Create
EXTRN	?CreateEx@CWnd@@UAEHKPBD0KHHHHPAUHWND__@@PAUHMENU__@@PAX@Z:PROC ; CWnd::CreateEx
EXTRN	?CreateEx@CWnd@@UAEHKPBD0KABUtagRECT@@PAV1@IPAX@Z:PROC ; CWnd::CreateEx
EXTRN	?DestroyWindow@CWnd@@UAEHXZ:PROC		; CWnd::DestroyWindow
EXTRN	?PreCreateWindow@CWnd@@UAEHAAUtagCREATESTRUCTA@@@Z:PROC ; CWnd::PreCreateWindow
EXTRN	?CalcWindowRect@CWnd@@UAEXPAUtagRECT@@I@Z:PROC	; CWnd::CalcWindowRect
EXTRN	?GetMenu@CWnd@@UBEPAVCMenu@@XZ:PROC		; CWnd::GetMenu
EXTRN	?SetMenu@CWnd@@UAEHPAVCMenu@@@Z:PROC		; CWnd::SetMenu
EXTRN	?OnToolHitTest@CWnd@@UBEHVCPoint@@PAUtagTOOLINFOA@@@Z:PROC ; CWnd::OnToolHitTest
EXTRN	?CheckDlgButton@CWnd@@QAEXHI@Z:PROC		; CWnd::CheckDlgButton
EXTRN	?CheckRadioButton@CWnd@@QAEXHHH@Z:PROC		; CWnd::CheckRadioButton
EXTRN	?GetCheckedRadioButton@CWnd@@QBEHHH@Z:PROC	; CWnd::GetCheckedRadioButton
EXTRN	?GetDlgItemTextA@CWnd@@QBEHHAAV?$CStringT@DV?$StrTraitMFC_DLL@DV?$ChTraitsCRT@D@ATL@@@@@ATL@@@Z:PROC ; CWnd::GetDlgItemTextA
EXTRN	?IsDlgButtonChecked@CWnd@@QBEIH@Z:PROC		; CWnd::IsDlgButtonChecked
EXTRN	?SetDlgItemTextA@CWnd@@QAEXHPBD@Z:PROC		; CWnd::SetDlgItemTextA
EXTRN	?GetScrollBarCtrl@CWnd@@UBEPAVCScrollBar@@H@Z:PROC ; CWnd::GetScrollBarCtrl
EXTRN	?WinHelpA@CWnd@@UAEXKI@Z:PROC			; CWnd::WinHelpA
EXTRN	?HtmlHelpA@CWnd@@UAEXKI@Z:PROC			; CWnd::HtmlHelpA
EXTRN	?WinHelpInternal@CWnd@@UAEXKI@Z:PROC		; CWnd::WinHelpInternal
EXTRN	?ContinueModal@CWnd@@UAEHXZ:PROC		; CWnd::ContinueModal
EXTRN	?EndModalLoop@CWnd@@UAEXH@Z:PROC		; CWnd::EndModalLoop
EXTRN	?OnDrawIconicThumbnailOrLivePreview@CWnd@@UAEXAAVCDC@@VCRect@@VCSize@@HAAH@Z:PROC ; CWnd::OnDrawIconicThumbnailOrLivePreview
EXTRN	?GetInterfaceMap@CWnd@@MBEPBUAFX_INTERFACEMAP@@XZ:PROC ; CWnd::GetInterfaceMap
EXTRN	?EnsureStdObj@CWnd@@UAEJXZ:PROC			; CWnd::EnsureStdObj
EXTRN	?get_accParent@CWnd@@UAEJPAPAUIDispatch@@@Z:PROC ; CWnd::get_accParent
EXTRN	?get_accChildCount@CWnd@@UAEJPAJ@Z:PROC		; CWnd::get_accChildCount
EXTRN	?get_accChild@CWnd@@UAEJUtagVARIANT@@PAPAUIDispatch@@@Z:PROC ; CWnd::get_accChild
EXTRN	?get_accName@CWnd@@UAEJUtagVARIANT@@PAPA_W@Z:PROC ; CWnd::get_accName
EXTRN	?get_accValue@CWnd@@UAEJUtagVARIANT@@PAPA_W@Z:PROC ; CWnd::get_accValue
EXTRN	?get_accDescription@CWnd@@UAEJUtagVARIANT@@PAPA_W@Z:PROC ; CWnd::get_accDescription
EXTRN	?get_accRole@CWnd@@UAEJUtagVARIANT@@PAU2@@Z:PROC ; CWnd::get_accRole
EXTRN	?get_accState@CWnd@@UAEJUtagVARIANT@@PAU2@@Z:PROC ; CWnd::get_accState
EXTRN	?get_accHelp@CWnd@@UAEJUtagVARIANT@@PAPA_W@Z:PROC ; CWnd::get_accHelp
EXTRN	?get_accHelpTopic@CWnd@@UAEJPAPA_WUtagVARIANT@@PAJ@Z:PROC ; CWnd::get_accHelpTopic
EXTRN	?get_accKeyboardShortcut@CWnd@@UAEJUtagVARIANT@@PAPA_W@Z:PROC ; CWnd::get_accKeyboardShortcut
EXTRN	?get_accFocus@CWnd@@UAEJPAUtagVARIANT@@@Z:PROC	; CWnd::get_accFocus
EXTRN	?get_accSelection@CWnd@@UAEJPAUtagVARIANT@@@Z:PROC ; CWnd::get_accSelection
EXTRN	?get_accDefaultAction@CWnd@@UAEJUtagVARIANT@@PAPA_W@Z:PROC ; CWnd::get_accDefaultAction
EXTRN	?accSelect@CWnd@@UAEJJUtagVARIANT@@@Z:PROC	; CWnd::accSelect
EXTRN	?accLocation@CWnd@@UAEJPAJ000UtagVARIANT@@@Z:PROC ; CWnd::accLocation
EXTRN	?accNavigate@CWnd@@UAEJJUtagVARIANT@@PAU2@@Z:PROC ; CWnd::accNavigate
EXTRN	?accHitTest@CWnd@@UAEJJJPAUtagVARIANT@@@Z:PROC	; CWnd::accHitTest
EXTRN	?accDoDefaultAction@CWnd@@UAEJUtagVARIANT@@@Z:PROC ; CWnd::accDoDefaultAction
EXTRN	?put_accName@CWnd@@UAEJUtagVARIANT@@PA_W@Z:PROC	; CWnd::put_accName
EXTRN	?put_accValue@CWnd@@UAEJUtagVARIANT@@PA_W@Z:PROC ; CWnd::put_accValue
EXTRN	?SetProxy@CWnd@@UAEJPAUIAccessibleProxy@@@Z:PROC ; CWnd::SetProxy
EXTRN	?CreateAccessibleProxy@CWnd@@UAEJIJPAJ@Z:PROC	; CWnd::CreateAccessibleProxy
EXTRN	?OnCommand@CWnd@@MAEHIJ@Z:PROC			; CWnd::OnCommand
EXTRN	?OnNotify@CWnd@@MAEHIJPAJ@Z:PROC		; CWnd::OnNotify
EXTRN	?OnCtlColor@CWnd@@IAEPAUHBRUSH__@@PAVCDC@@PAV1@I@Z:PROC ; CWnd::OnCtlColor
EXTRN	?GetSuperWndProcAddr@CWnd@@MAEPAP6GJPAUHWND__@@IIJ@ZXZ:PROC ; CWnd::GetSuperWndProcAddr
EXTRN	?OnAmbientProperty@CWnd@@UAEHPAVCOleControlSite@@JPAUtagVARIANT@@@Z:PROC ; CWnd::OnAmbientProperty
EXTRN	?WindowProc@CWnd@@MAEJIIJ@Z:PROC		; CWnd::WindowProc
EXTRN	?OnWndMsg@CWnd@@MAEHIIJPAJ@Z:PROC		; CWnd::OnWndMsg
EXTRN	?DefWindowProcA@CWnd@@MAEJIIJ@Z:PROC		; CWnd::DefWindowProcA
EXTRN	?PostNcDestroy@CWnd@@MAEXXZ:PROC		; CWnd::PostNcDestroy
EXTRN	?OnChildNotify@CWnd@@MAEHIIJPAJ@Z:PROC		; CWnd::OnChildNotify
EXTRN	?OnTouchInputs@CWnd@@MAEHIPAUtagTOUCHINPUT@@@Z:PROC ; CWnd::OnTouchInputs
EXTRN	?OnTouchInput@CWnd@@MAEHVCPoint@@HHPAUtagTOUCHINPUT@@@Z:PROC ; CWnd::OnTouchInput
EXTRN	?GetGestureStatus@CWnd@@MAEKVCPoint@@@Z:PROC	; CWnd::GetGestureStatus
EXTRN	?OnGestureZoom@CWnd@@MAEHVCPoint@@J@Z:PROC	; CWnd::OnGestureZoom
EXTRN	?OnGesturePan@CWnd@@MAEHVCPoint@@0@Z:PROC	; CWnd::OnGesturePan
EXTRN	?OnGestureRotate@CWnd@@MAEHVCPoint@@N@Z:PROC	; CWnd::OnGestureRotate
EXTRN	?OnGestureTwoFingerTap@CWnd@@MAEHVCPoint@@@Z:PROC ; CWnd::OnGestureTwoFingerTap
EXTRN	?OnGesturePressAndTap@CWnd@@MAEHVCPoint@@J@Z:PROC ; CWnd::OnGesturePressAndTap
EXTRN	?ResizeDynamicLayout@CWnd@@MAEXXZ:PROC		; CWnd::ResizeDynamicLayout
EXTRN	?IsFrameWnd@CWnd@@UBEHXZ:PROC			; CWnd::IsFrameWnd
EXTRN	?OnFinalRelease@CWnd@@UAEXXZ:PROC		; CWnd::OnFinalRelease
EXTRN	?CreateControlContainer@CWnd@@MAEHPAPAVCOleControlContainer@@@Z:PROC ; CWnd::CreateControlContainer
EXTRN	?CreateControlSite@CWnd@@MAEHPAVCOleControlContainer@@PAPAVCOleControlSite@@IABU_GUID@@@Z:PROC ; CWnd::CreateControlSite
EXTRN	?GetRuntimeClass@CDialog@@UBEPAUCRuntimeClass@@XZ:PROC ; CDialog::GetRuntimeClass
EXTRN	?Create@CDialog@@UAEHPBDPAVCWnd@@@Z:PROC	; CDialog::Create
EXTRN	?CreateIndirect@CDialog@@UAEHPBUDLGTEMPLATE@@PAVCWnd@@PAX@Z:PROC ; CDialog::CreateIndirect
EXTRN	?CreateIndirect@CDialog@@UAEHPAXPAVCWnd@@@Z:PROC ; CDialog::CreateIndirect
EXTRN	?DoModal@CDialog@@UAEHXZ:PROC			; CDialog::DoModal
EXTRN	?OnInitDialog@CDialog@@UAEHXZ:PROC		; CDialog::OnInitDialog
EXTRN	?OnSetFont@CDialog@@UAEXPAVCFont@@@Z:PROC	; CDialog::OnSetFont
EXTRN	?OnOK@CDialog@@MAEXXZ:PROC			; CDialog::OnOK
EXTRN	?OnCancel@CDialog@@MAEXXZ:PROC			; CDialog::OnCancel
EXTRN	??1CDialog@@UAE@XZ:PROC				; CDialog::~CDialog
EXTRN	?PreTranslateMessage@CDialog@@UAEHPAUtagMSG@@@Z:PROC ; CDialog::PreTranslateMessage
EXTRN	?OnCmdMsg@CDialog@@UAEHIHPAXPAUAFX_CMDHANDLERINFO@@@Z:PROC ; CDialog::OnCmdMsg
EXTRN	?CheckAutoCenter@CDialog@@UAEHXZ:PROC		; CDialog::CheckAutoCenter
EXTRN	?SetOccDialogInfo@CDialog@@MAEHPAU_AFX_OCC_DIALOG_INFO@@@Z:PROC ; CDialog::SetOccDialogInfo
EXTRN	?GetOccDialogInfo@CDialog@@MAEPAU_AFX_OCC_DIALOG_INFO@@XZ:PROC ; CDialog::GetOccDialogInfo
EXTRN	?PreInitDialog@CDialog@@MAEXXZ:PROC		; CDialog::PreInitDialog
EXTRN	?GetRuntimeClass@CCommonDialog@@UBEPAUCRuntimeClass@@XZ:PROC ; CCommonDialog::GetRuntimeClass
EXTRN	?OnOK@CCommonDialog@@MAEXXZ:PROC		; CCommonDialog::OnOK
EXTRN	?OnCancel@CCommonDialog@@MAEXXZ:PROC		; CCommonDialog::OnCancel
EXTRN	?GetMessageMap@CCommonDialog@@MBEPBUAFX_MSGMAP@@XZ:PROC ; CCommonDialog::GetMessageMap
EXTRN	??_ECCommonDialog@@UAEPAXI@Z:PROC		; CCommonDialog::`vector deleting destructor'
EXTRN	??0CColorDialog@@QAE@KKPAVCWnd@@@Z:PROC		; CColorDialog::CColorDialog
EXTRN	?DoModal@CColorDialog@@UAEHXZ:PROC		; CColorDialog::DoModal
EXTRN	??0CExComboBox@@QAE@H@Z:PROC			; CExComboBox::CExComboBox
EXTRN	??1CExComboBox@@UAE@XZ:PROC			; CExComboBox::~CExComboBox
EXTRN	??0CRscDlg@@QAE@IPAVCWnd@@@Z:PROC		; CRscDlg::CRscDlg
EXTRN	?Create@CRscDlg@@UAEHIPAVCWnd@@@Z:PROC		; CRscDlg::Create
EXTRN	?DoModal@CRscDlg@@UAEHXZ:PROC			; CRscDlg::DoModal
EXTRN	?DoDataExchange@CRscDlg@@MAEXPAVCDataExchange@@@Z:PROC ; CRscDlg::DoDataExchange
EXTRN	?GetThisMessageMap@CRscDlg@@KGPBUAFX_MSGMAP@@XZ:PROC ; CRscDlg::GetThisMessageMap
EXTRN	??0CColorButton@@QAE@XZ:PROC			; CColorButton::CColorButton
EXTRN	??1CColorButton@@UAE@XZ:PROC			; CColorButton::~CColorButton
EXTRN	?SetColor@CColorButton@@QAEXABK@Z:PROC		; CColorButton::SetColor
EXTRN	??0CXEdit@@QAE@XZ:PROC				; CXEdit::CXEdit
EXTRN	??1CXEdit@@UAE@XZ:PROC				; CXEdit::~CXEdit
EXTRN	??_ECTabRunSetup@@UAEPAXI@Z:PROC		; CTabRunSetup::`vector deleting destructor'
EXTRN	@__security_check_cookie@4:PROC
EXTRN	___CxxFrameHandler3:PROC
EXTRN	_memset:PROC
EXTRN	??_7type_info@@6B@:QWORD			; type_info::`vftable'
EXTRN	___security_cookie:DWORD
;	COMDAT ?_OptionsStorage@?1??__local_stdio_printf_options@@9@4_KA
_BSS	SEGMENT
?_OptionsStorage@?1??__local_stdio_printf_options@@9@4_KA DQ 01H DUP (?) ; `__local_stdio_printf_options'::`2'::_OptionsStorage
_BSS	ENDS
;	COMDAT ??_R2CRscDlg@@8
rdata$r	SEGMENT
??_R2CRscDlg@@8 DD FLAT:??_R1A@?0A@EA@CRscDlg@@8	; CRscDlg::`RTTI Base Class Array'
	DD	FLAT:??_R1A@?0A@EA@CDialog@@8
	DD	FLAT:??_R1A@?0A@EA@CWnd@@8
	DD	FLAT:??_R1A@?0A@EA@CCmdTarget@@8
	DD	FLAT:??_R1A@?0A@EA@CObject@@8
rdata$r	ENDS
;	COMDAT ??_R3CRscDlg@@8
rdata$r	SEGMENT
??_R3CRscDlg@@8 DD 00H					; CRscDlg::`RTTI Class Hierarchy Descriptor'
	DD	00H
	DD	05H
	DD	FLAT:??_R2CRscDlg@@8
rdata$r	ENDS
;	COMDAT ??_R0?AVCRscDlg@@@8
data$rs	SEGMENT
??_R0?AVCRscDlg@@@8 DD FLAT:??_7type_info@@6B@		; CRscDlg `RTTI Type Descriptor'
	DD	00H
	DB	'.?AVCRscDlg@@', 00H
data$rs	ENDS
;	COMDAT ??_R1A@?0A@EA@CRscDlg@@8
rdata$r	SEGMENT
??_R1A@?0A@EA@CRscDlg@@8 DD FLAT:??_R0?AVCRscDlg@@@8	; CRscDlg::`RTTI Base Class Descriptor at (0,-1,0,64)'
	DD	04H
	DD	00H
	DD	0ffffffffH
	DD	00H
	DD	040H
	DD	FLAT:??_R3CRscDlg@@8
rdata$r	ENDS
;	COMDAT ??_R1A@?0A@EA@CTabRunSetup@@8
rdata$r	SEGMENT
??_R1A@?0A@EA@CTabRunSetup@@8 DD FLAT:??_R0?AVCTabRunSetup@@@8 ; CTabRunSetup::`RTTI Base Class Descriptor at (0,-1,0,64)'
	DD	05H
	DD	00H
	DD	0ffffffffH
	DD	00H
	DD	040H
	DD	FLAT:??_R3CTabRunSetup@@8
rdata$r	ENDS
;	COMDAT ??_R2CTabRunSetup@@8
rdata$r	SEGMENT
??_R2CTabRunSetup@@8 DD FLAT:??_R1A@?0A@EA@CTabRunSetup@@8 ; CTabRunSetup::`RTTI Base Class Array'
	DD	FLAT:??_R1A@?0A@EA@CRscDlg@@8
	DD	FLAT:??_R1A@?0A@EA@CDialog@@8
	DD	FLAT:??_R1A@?0A@EA@CWnd@@8
	DD	FLAT:??_R1A@?0A@EA@CCmdTarget@@8
	DD	FLAT:??_R1A@?0A@EA@CObject@@8
rdata$r	ENDS
;	COMDAT ??_R3CTabRunSetup@@8
rdata$r	SEGMENT
??_R3CTabRunSetup@@8 DD 00H				; CTabRunSetup::`RTTI Class Hierarchy Descriptor'
	DD	00H
	DD	06H
	DD	FLAT:??_R2CTabRunSetup@@8
rdata$r	ENDS
;	COMDAT ??_R0?AVCTabRunSetup@@@8
data$rs	SEGMENT
??_R0?AVCTabRunSetup@@@8 DD FLAT:??_7type_info@@6B@	; CTabRunSetup `RTTI Type Descriptor'
	DD	00H
	DB	'.?AVCTabRunSetup@@', 00H
data$rs	ENDS
;	COMDAT ??_R4CTabRunSetup@@6B@
rdata$r	SEGMENT
??_R4CTabRunSetup@@6B@ DD 00H				; CTabRunSetup::`RTTI Complete Object Locator'
	DD	00H
	DD	00H
	DD	FLAT:??_R0?AVCTabRunSetup@@@8
	DD	FLAT:??_R3CTabRunSetup@@8
rdata$r	ENDS
;	COMDAT ??_C@_03JALODAI@?$CFld@
CONST	SEGMENT
??_C@_03JALODAI@?$CFld@ DB '%ld', 00H			; `string'
CONST	ENDS
;	COMDAT ?messageMap@?1??GetThisMessageMap@CTabRunSetup@@KGPBUAFX_MSGMAP@@XZ@4U3@B
CONST	SEGMENT
?messageMap@?1??GetThisMessageMap@CTabRunSetup@@KGPBUAFX_MSGMAP@@XZ@4U3@B DD FLAT:?GetThisMessageMap@CRscDlg@@KGPBUAFX_MSGMAP@@XZ ; `CTabRunSetup::GetThisMessageMap'::`2'::messageMap
	DD	FLAT:?_messageEntries@?1??GetThisMessageMap@CTabRunSetup@@KGPBUAFX_MSGMAP@@XZ@4QBUAFX_MSGMAP_ENTRY@@B
CONST	ENDS
;	COMDAT ?_messageEntries@?1??GetThisMessageMap@CTabRunSetup@@KGPBUAFX_MSGMAP@@XZ@4QBUAFX_MSGMAP_ENTRY@@B
CONST	SEGMENT
?_messageEntries@?1??GetThisMessageMap@CTabRunSetup@@KGPBUAFX_MSGMAP@@XZ@4QBUAFX_MSGMAP_ENTRY@@B DD 019H ; `CTabRunSetup::GetThisMessageMap'::`2'::_messageEntries
	DD	00H
	DD	00H
	DD	00H
	DD	08H
	DD	FLAT:?OnCtlColor@CTabRunSetup@@IAEPAUHBRUSH__@@PAVCDC@@PAVCWnd@@I@Z
	DD	0111H
	DD	00H
	DD	07178H
	DD	07178H
	DD	03aH
	DD	FLAT:?OnBnClickedBtC1@CTabRunSetup@@IAEXXZ
	DD	0111H
	DD	00H
	DD	07179H
	DD	07179H
	DD	03aH
	DD	FLAT:?OnBnClickedBtC2@CTabRunSetup@@IAEXXZ
	DD	0111H
	DD	00H
	DD	0717aH
	DD	0717aH
	DD	03aH
	DD	FLAT:?OnBnClickedBtC3@CTabRunSetup@@IAEXXZ
	DD	0111H
	DD	00H
	DD	0717bH
	DD	0717bH
	DD	03aH
	DD	FLAT:?OnBnClickedBtC4@CTabRunSetup@@IAEXXZ
	DD	0111H
	DD	00H
	DD	07151H
	DD	07151H
	DD	03aH
	DD	FLAT:?OnBnClickedBtC5@CTabRunSetup@@IAEXXZ
	DD	00H
	DD	00H
	DD	00H
	DD	00H
	DD	00H
	DD	00H
CONST	ENDS
;	COMDAT ??_7CTabRunSetup@@6B@
CONST	SEGMENT
??_7CTabRunSetup@@6B@ DD FLAT:??_R4CTabRunSetup@@6B@	; CTabRunSetup::`vftable'
	DD	FLAT:?GetRuntimeClass@CDialog@@UBEPAUCRuntimeClass@@XZ
	DD	FLAT:??_ECTabRunSetup@@UAEPAXI@Z
	DD	FLAT:?Serialize@CObject@@UAEXAAVCArchive@@@Z
	DD	FLAT:?AssertValid@CObject@@UBEXXZ
	DD	FLAT:?Dump@CObject@@UBEXAAVCDumpContext@@@Z
	DD	FLAT:?OnCmdMsg@CDialog@@UAEHIHPAXPAUAFX_CMDHANDLERINFO@@@Z
	DD	FLAT:?OnFinalRelease@CWnd@@UAEXXZ
	DD	FLAT:?IsInvokeAllowed@CCmdTarget@@UAEHJ@Z
	DD	FLAT:?GetDispatchIID@CCmdTarget@@UAEHPAU_GUID@@@Z
	DD	FLAT:?GetTypeInfoCount@CCmdTarget@@UAEIXZ
	DD	FLAT:?GetTypeLibCache@CCmdTarget@@UAEPAVCTypeLibCache@@XZ
	DD	FLAT:?GetTypeLib@CCmdTarget@@UAEJKPAPAUITypeLib@@@Z
	DD	FLAT:?GetMessageMap@CTabRunSetup@@MBEPBUAFX_MSGMAP@@XZ
	DD	FLAT:?GetCommandMap@CCmdTarget@@MBEPBUAFX_OLECMDMAP@@XZ
	DD	FLAT:?GetDispatchMap@CCmdTarget@@MBEPBUAFX_DISPMAP@@XZ
	DD	FLAT:?GetConnectionMap@CCmdTarget@@MBEPBUAFX_CONNECTIONMAP@@XZ
	DD	FLAT:?GetInterfaceMap@CWnd@@MBEPBUAFX_INTERFACEMAP@@XZ
	DD	FLAT:?GetEventSinkMap@CCmdTarget@@MBEPBUAFX_EVENTSINKMAP@@XZ
	DD	FLAT:?OnCreateAggregates@CCmdTarget@@UAEHXZ
	DD	FLAT:?GetInterfaceHook@CCmdTarget@@UAEPAUIUnknown@@PBX@Z
	DD	FLAT:?GetExtraConnectionPoints@CCmdTarget@@MAEHPAVCPtrArray@@@Z
	DD	FLAT:?GetConnectionHook@CCmdTarget@@MAEPAUIConnectionPoint@@ABU_GUID@@@Z
	DD	FLAT:?PreSubclassWindow@CWnd@@UAEXXZ
	DD	FLAT:?Create@CWnd@@UAEHPBD0KABUtagRECT@@PAV1@IPAUCCreateContext@@@Z
	DD	FLAT:?CreateEx@CWnd@@UAEHKPBD0KABUtagRECT@@PAV1@IPAX@Z
	DD	FLAT:?CreateEx@CWnd@@UAEHKPBD0KHHHHPAUHWND__@@PAUHMENU__@@PAX@Z
	DD	FLAT:?DestroyWindow@CWnd@@UAEHXZ
	DD	FLAT:?PreCreateWindow@CWnd@@UAEHAAUtagCREATESTRUCTA@@@Z
	DD	FLAT:?CalcWindowRect@CWnd@@UAEXPAUtagRECT@@I@Z
	DD	FLAT:?GetMenu@CWnd@@UBEPAVCMenu@@XZ
	DD	FLAT:?SetMenu@CWnd@@UAEHPAVCMenu@@@Z
	DD	FLAT:?OnToolHitTest@CWnd@@UBEHVCPoint@@PAUtagTOOLINFOA@@@Z
	DD	FLAT:?GetScrollBarCtrl@CWnd@@UBEPAVCScrollBar@@H@Z
	DD	FLAT:?WinHelpA@CWnd@@UAEXKI@Z
	DD	FLAT:?HtmlHelpA@CWnd@@UAEXKI@Z
	DD	FLAT:?WinHelpInternal@CWnd@@UAEXKI@Z
	DD	FLAT:?ContinueModal@CWnd@@UAEHXZ
	DD	FLAT:?EndModalLoop@CWnd@@UAEXH@Z
	DD	FLAT:?OnDrawIconicThumbnailOrLivePreview@CWnd@@UAEXAAVCDC@@VCRect@@VCSize@@HAAH@Z
	DD	FLAT:?EnsureStdObj@CWnd@@UAEJXZ
	DD	FLAT:?get_accParent@CWnd@@UAEJPAPAUIDispatch@@@Z
	DD	FLAT:?get_accChildCount@CWnd@@UAEJPAJ@Z
	DD	FLAT:?get_accChild@CWnd@@UAEJUtagVARIANT@@PAPAUIDispatch@@@Z
	DD	FLAT:?get_accName@CWnd@@UAEJUtagVARIANT@@PAPA_W@Z
	DD	FLAT:?get_accValue@CWnd@@UAEJUtagVARIANT@@PAPA_W@Z
	DD	FLAT:?get_accDescription@CWnd@@UAEJUtagVARIANT@@PAPA_W@Z
	DD	FLAT:?get_accRole@CWnd@@UAEJUtagVARIANT@@PAU2@@Z
	DD	FLAT:?get_accState@CWnd@@UAEJUtagVARIANT@@PAU2@@Z
	DD	FLAT:?get_accHelp@CWnd@@UAEJUtagVARIANT@@PAPA_W@Z
	DD	FLAT:?get_accHelpTopic@CWnd@@UAEJPAPA_WUtagVARIANT@@PAJ@Z
	DD	FLAT:?get_accKeyboardShortcut@CWnd@@UAEJUtagVARIANT@@PAPA_W@Z
	DD	FLAT:?get_accFocus@CWnd@@UAEJPAUtagVARIANT@@@Z
	DD	FLAT:?get_accSelection@CWnd@@UAEJPAUtagVARIANT@@@Z
	DD	FLAT:?get_accDefaultAction@CWnd@@UAEJUtagVARIANT@@PAPA_W@Z
	DD	FLAT:?accSelect@CWnd@@UAEJJUtagVARIANT@@@Z
	DD	FLAT:?accLocation@CWnd@@UAEJPAJ000UtagVARIANT@@@Z
	DD	FLAT:?accNavigate@CWnd@@UAEJJUtagVARIANT@@PAU2@@Z
	DD	FLAT:?accHitTest@CWnd@@UAEJJJPAUtagVARIANT@@@Z
	DD	FLAT:?accDoDefaultAction@CWnd@@UAEJUtagVARIANT@@@Z
	DD	FLAT:?put_accName@CWnd@@UAEJUtagVARIANT@@PA_W@Z
	DD	FLAT:?put_accValue@CWnd@@UAEJUtagVARIANT@@PA_W@Z
	DD	FLAT:?SetProxy@CWnd@@UAEJPAUIAccessibleProxy@@@Z
	DD	FLAT:?CreateAccessibleProxy@CWnd@@UAEJIJPAJ@Z
	DD	FLAT:?OnCommand@CWnd@@MAEHIJ@Z
	DD	FLAT:?OnNotify@CWnd@@MAEHIJPAJ@Z
	DD	FLAT:?GetSuperWndProcAddr@CWnd@@MAEPAP6GJPAUHWND__@@IIJ@ZXZ
	DD	FLAT:?DoDataExchange@CTabRunSetup@@MAEXPAVCDataExchange@@@Z
	DD	FLAT:?BeginModalState@CWnd@@UAEXXZ
	DD	FLAT:?EndModalState@CWnd@@UAEXXZ
	DD	FLAT:?PreTranslateMessage@CRscDlg@@MAEHPAUtagMSG@@@Z
	DD	FLAT:?OnAmbientProperty@CWnd@@UAEHPAVCOleControlSite@@JPAUtagVARIANT@@@Z
	DD	FLAT:?WindowProc@CWnd@@MAEJIIJ@Z
	DD	FLAT:?OnWndMsg@CWnd@@MAEHIIJPAJ@Z
	DD	FLAT:?DefWindowProcA@CWnd@@MAEJIIJ@Z
	DD	FLAT:?PostNcDestroy@CWnd@@MAEXXZ
	DD	FLAT:?OnChildNotify@CWnd@@MAEHIIJPAJ@Z
	DD	FLAT:?OnTouchInputs@CWnd@@MAEHIPAUtagTOUCHINPUT@@@Z
	DD	FLAT:?OnTouchInput@CWnd@@MAEHVCPoint@@HHPAUtagTOUCHINPUT@@@Z
	DD	FLAT:?GetGestureStatus@CWnd@@MAEKVCPoint@@@Z
	DD	FLAT:?OnGestureZoom@CWnd@@MAEHVCPoint@@J@Z
	DD	FLAT:?OnGesturePan@CWnd@@MAEHVCPoint@@0@Z
	DD	FLAT:?OnGestureRotate@CWnd@@MAEHVCPoint@@N@Z
	DD	FLAT:?OnGestureTwoFingerTap@CWnd@@MAEHVCPoint@@@Z
	DD	FLAT:?OnGesturePressAndTap@CWnd@@MAEHVCPoint@@J@Z
	DD	FLAT:?ResizeDynamicLayout@CWnd@@MAEXXZ
	DD	FLAT:?CheckAutoCenter@CDialog@@UAEHXZ
	DD	FLAT:?IsFrameWnd@CWnd@@UBEHXZ
	DD	FLAT:?CreateControlContainer@CWnd@@MAEHPAPAVCOleControlContainer@@@Z
	DD	FLAT:?CreateControlSite@CWnd@@MAEHPAVCOleControlContainer@@PAPAVCOleControlSite@@IABU_GUID@@@Z
	DD	FLAT:?SetOccDialogInfo@CDialog@@MAEHPAU_AFX_OCC_DIALOG_INFO@@@Z
	DD	FLAT:?GetOccDialogInfo@CDialog@@MAEPAU_AFX_OCC_DIALOG_INFO@@XZ
	DD	FLAT:?Create@CRscDlg@@UAEHIPAVCWnd@@@Z
	DD	FLAT:?Create@CDialog@@UAEHPBDPAVCWnd@@@Z
	DD	FLAT:?CreateIndirect@CDialog@@UAEHPAXPAVCWnd@@@Z
	DD	FLAT:?CreateIndirect@CDialog@@UAEHPBUDLGTEMPLATE@@PAVCWnd@@PAX@Z
	DD	FLAT:?DoModal@CRscDlg@@UAEHXZ
	DD	FLAT:?OnInitDialog@CTabRunSetup@@MAEHXZ
	DD	FLAT:?OnSetFont@CDialog@@UAEXPAVCFont@@@Z
	DD	FLAT:?OnOK@CDialog@@MAEXXZ
	DD	FLAT:?OnCancel@CDialog@@MAEXXZ
	DD	FLAT:?PreInitDialog@CDialog@@MAEXXZ
	DD	FLAT:?LoadInfo@CTabRunSetup@@UAEXXZ
	DD	FLAT:?SaveInfo@CTabRunSetup@@UAEHXZ
	DD	FLAT:?RemoveInfo@CTabRunSetup@@UAEXXZ
	DD	FLAT:?SetDefault@CTabRunSetup@@UAEXXZ
CONST	ENDS
;	COMDAT ??_C@_02IGHKOCFG@?$KB?$OA@
CONST	SEGMENT
??_C@_02IGHKOCFG@?$KB?$OA@ DB 0a1H, 0e0H, 00H		; `string'
CONST	ENDS
;	COMDAT ??_C@_02JPGBNDBH@?$KB?a@
CONST	SEGMENT
??_C@_02JPGBNDBH@?$KB?a@ DB 0a1H, 0e1H, 00H		; `string'
CONST	ENDS
;	COMDAT ??_C@_02DKJFCLGO@?$KC?C@
CONST	SEGMENT
??_C@_02DKJFCLGO@?$KC?C@ DB 0a2H, 0c3H, 00H		; `string'
CONST	ENDS
;	COMDAT ??_C@_02CDIOBKCP@?$KC?B@
CONST	SEGMENT
??_C@_02CDIOBKCP@?$KC?B@ DB 0a2H, 0c2H, 00H		; `string'
CONST	ENDS
;	COMDAT ??_C@_02LJBPBNJE@?$KC?$LP@
CONST	SEGMENT
??_C@_02LJBPBNJE@?$KC?$LP@ DB 0a2H, 0bfH, 00H		; `string'
CONST	ENDS
;	COMDAT ??_C@_02BBLIHIKN@?$KC?$MA@
CONST	SEGMENT
??_C@_02BBLIHIKN@?$KC?$MA@ DB 0a2H, 0c0H, 00H		; `string'
CONST	ENDS
;	COMDAT ??_C@_02IIPOGPOM@?$KB?Y@
CONST	SEGMENT
??_C@_02IIPOGPOM@?$KB?Y@ DB 0a1H, 0d9H, 00H		; `string'
CONST	ENDS
;	COMDAT ??_C@_02KDNDDMCP@?$KB?Z@
CONST	SEGMENT
??_C@_02KDNDDMCP@?$KB?Z@ DB 0a1H, 0daH, 00H		; `string'
CONST	ENDS
;	COMDAT ??_C@_04ONCNKMJD@?$LP?$MA?H?D@
CONST	SEGMENT
??_C@_04ONCNKMJD@?$LP?$MA?H?D@ DB 0bfH, 0c0H, 0c8H, 0c4H, 00H ; `string'
CONST	ENDS
;	COMDAT ??_C@_04PEKBEBNA@?$LP?$MA?$MA?$PM@
CONST	SEGMENT
??_C@_04PEKBEBNA@?$LP?$MA?$MA?$PM@ DB 0bfH, 0c0H, 0c0H, 0fcH, 00H ; `string'
CONST	ENDS
;	COMDAT ??_C@_05BGOFFEGG@Point@
CONST	SEGMENT
??_C@_05BGOFFEGG@Point@ DB 'Point', 00H			; `string'
CONST	ENDS
;	COMDAT ??_C@_01FGNFDNOH@?$CF@
CONST	SEGMENT
??_C@_01FGNFDNOH@?$CF@ DB '%', 00H			; `string'
CONST	ENDS
;	COMDAT ??_R2CDialog@@8
rdata$r	SEGMENT
??_R2CDialog@@8 DD FLAT:??_R1A@?0A@EA@CDialog@@8	; CDialog::`RTTI Base Class Array'
	DD	FLAT:??_R1A@?0A@EA@CWnd@@8
	DD	FLAT:??_R1A@?0A@EA@CCmdTarget@@8
	DD	FLAT:??_R1A@?0A@EA@CObject@@8
rdata$r	ENDS
;	COMDAT ??_R3CDialog@@8
rdata$r	SEGMENT
??_R3CDialog@@8 DD 00H					; CDialog::`RTTI Class Hierarchy Descriptor'
	DD	00H
	DD	04H
	DD	FLAT:??_R2CDialog@@8
rdata$r	ENDS
;	COMDAT ??_R0?AVCDialog@@@8
data$rs	SEGMENT
??_R0?AVCDialog@@@8 DD FLAT:??_7type_info@@6B@		; CDialog `RTTI Type Descriptor'
	DD	00H
	DB	'.?AVCDialog@@', 00H
data$rs	ENDS
;	COMDAT ??_R1A@?0A@EA@CDialog@@8
rdata$r	SEGMENT
??_R1A@?0A@EA@CDialog@@8 DD FLAT:??_R0?AVCDialog@@@8	; CDialog::`RTTI Base Class Descriptor at (0,-1,0,64)'
	DD	03H
	DD	00H
	DD	0ffffffffH
	DD	00H
	DD	040H
	DD	FLAT:??_R3CDialog@@8
rdata$r	ENDS
;	COMDAT ??_R1A@?0A@EA@CCommonDialog@@8
rdata$r	SEGMENT
??_R1A@?0A@EA@CCommonDialog@@8 DD FLAT:??_R0?AVCCommonDialog@@@8 ; CCommonDialog::`RTTI Base Class Descriptor at (0,-1,0,64)'
	DD	04H
	DD	00H
	DD	0ffffffffH
	DD	00H
	DD	040H
	DD	FLAT:??_R3CCommonDialog@@8
rdata$r	ENDS
;	COMDAT ??_R2CCommonDialog@@8
rdata$r	SEGMENT
??_R2CCommonDialog@@8 DD FLAT:??_R1A@?0A@EA@CCommonDialog@@8 ; CCommonDialog::`RTTI Base Class Array'
	DD	FLAT:??_R1A@?0A@EA@CDialog@@8
	DD	FLAT:??_R1A@?0A@EA@CWnd@@8
	DD	FLAT:??_R1A@?0A@EA@CCmdTarget@@8
	DD	FLAT:??_R1A@?0A@EA@CObject@@8
rdata$r	ENDS
;	COMDAT ??_R3CCommonDialog@@8
rdata$r	SEGMENT
??_R3CCommonDialog@@8 DD 00H				; CCommonDialog::`RTTI Class Hierarchy Descriptor'
	DD	00H
	DD	05H
	DD	FLAT:??_R2CCommonDialog@@8
rdata$r	ENDS
;	COMDAT ??_R0?AVCCommonDialog@@@8
data$rs	SEGMENT
??_R0?AVCCommonDialog@@@8 DD FLAT:??_7type_info@@6B@	; CCommonDialog `RTTI Type Descriptor'
	DD	00H
	DB	'.?AVCCommonDialog@@', 00H
data$rs	ENDS
;	COMDAT ??_R4CCommonDialog@@6B@
rdata$r	SEGMENT
??_R4CCommonDialog@@6B@ DD 00H				; CCommonDialog::`RTTI Complete Object Locator'
	DD	00H
	DD	00H
	DD	FLAT:??_R0?AVCCommonDialog@@@8
	DD	FLAT:??_R3CCommonDialog@@8
rdata$r	ENDS
;	COMDAT ??_R2CCmdTarget@@8
rdata$r	SEGMENT
??_R2CCmdTarget@@8 DD FLAT:??_R1A@?0A@EA@CCmdTarget@@8	; CCmdTarget::`RTTI Base Class Array'
	DD	FLAT:??_R1A@?0A@EA@CObject@@8
rdata$r	ENDS
;	COMDAT ??_R3CCmdTarget@@8
rdata$r	SEGMENT
??_R3CCmdTarget@@8 DD 00H				; CCmdTarget::`RTTI Class Hierarchy Descriptor'
	DD	00H
	DD	02H
	DD	FLAT:??_R2CCmdTarget@@8
rdata$r	ENDS
;	COMDAT ??_R0?AVCCmdTarget@@@8
data$rs	SEGMENT
??_R0?AVCCmdTarget@@@8 DD FLAT:??_7type_info@@6B@	; CCmdTarget `RTTI Type Descriptor'
	DD	00H
	DB	'.?AVCCmdTarget@@', 00H
data$rs	ENDS
;	COMDAT ??_R1A@?0A@EA@CCmdTarget@@8
rdata$r	SEGMENT
??_R1A@?0A@EA@CCmdTarget@@8 DD FLAT:??_R0?AVCCmdTarget@@@8 ; CCmdTarget::`RTTI Base Class Descriptor at (0,-1,0,64)'
	DD	01H
	DD	00H
	DD	0ffffffffH
	DD	00H
	DD	040H
	DD	FLAT:??_R3CCmdTarget@@8
rdata$r	ENDS
;	COMDAT ??_R2CWnd@@8
rdata$r	SEGMENT
??_R2CWnd@@8 DD	FLAT:??_R1A@?0A@EA@CWnd@@8		; CWnd::`RTTI Base Class Array'
	DD	FLAT:??_R1A@?0A@EA@CCmdTarget@@8
	DD	FLAT:??_R1A@?0A@EA@CObject@@8
rdata$r	ENDS
;	COMDAT ??_R3CWnd@@8
rdata$r	SEGMENT
??_R3CWnd@@8 DD	00H					; CWnd::`RTTI Class Hierarchy Descriptor'
	DD	00H
	DD	03H
	DD	FLAT:??_R2CWnd@@8
rdata$r	ENDS
;	COMDAT ??_R0?AVCWnd@@@8
data$rs	SEGMENT
??_R0?AVCWnd@@@8 DD FLAT:??_7type_info@@6B@		; CWnd `RTTI Type Descriptor'
	DD	00H
	DB	'.?AVCWnd@@', 00H
data$rs	ENDS
;	COMDAT ??_R1A@?0A@EA@CWnd@@8
rdata$r	SEGMENT
??_R1A@?0A@EA@CWnd@@8 DD FLAT:??_R0?AVCWnd@@@8		; CWnd::`RTTI Base Class Descriptor at (0,-1,0,64)'
	DD	02H
	DD	00H
	DD	0ffffffffH
	DD	00H
	DD	040H
	DD	FLAT:??_R3CWnd@@8
rdata$r	ENDS
;	COMDAT ??_R1A@?0A@EA@CObject@@8
rdata$r	SEGMENT
??_R1A@?0A@EA@CObject@@8 DD FLAT:??_R0?AVCObject@@@8	; CObject::`RTTI Base Class Descriptor at (0,-1,0,64)'
	DD	00H
	DD	00H
	DD	0ffffffffH
	DD	00H
	DD	040H
	DD	FLAT:??_R3CObject@@8
rdata$r	ENDS
;	COMDAT ??_R2CObject@@8
rdata$r	SEGMENT
??_R2CObject@@8 DD FLAT:??_R1A@?0A@EA@CObject@@8	; CObject::`RTTI Base Class Array'
rdata$r	ENDS
;	COMDAT ??_R3CObject@@8
rdata$r	SEGMENT
??_R3CObject@@8 DD 00H					; CObject::`RTTI Class Hierarchy Descriptor'
	DD	00H
	DD	01H
	DD	FLAT:??_R2CObject@@8
rdata$r	ENDS
;	COMDAT ??_R0?AVCObject@@@8
data$rs	SEGMENT
??_R0?AVCObject@@@8 DD FLAT:??_7type_info@@6B@		; CObject `RTTI Type Descriptor'
	DD	00H
	DB	'.?AVCObject@@', 00H
data$rs	ENDS
;	COMDAT ??_C@_0L@KHLJBL@cbSplipigy@
CONST	SEGMENT
??_C@_0L@KHLJBL@cbSplipigy@ DB 'cbSplipigy', 00H	; `string'
CONST	ENDS
;	COMDAT ??_C@_0M@BOAGGIML@SlipigySell@
CONST	SEGMENT
??_C@_0M@BOAGGIML@SlipigySell@ DB 'SlipigySell', 00H	; `string'
CONST	ENDS
;	COMDAT ??_C@_0L@IAKIPLHP@SlipigyBuy@
CONST	SEGMENT
??_C@_0L@IAKIPLHP@SlipigyBuy@ DB 'SlipigyBuy', 00H	; `string'
CONST	ENDS
;	COMDAT ??_C@_05MJDDMNJJ@cbTax@
CONST	SEGMENT
??_C@_05MJDDMNJJ@cbTax@ DB 'cbTax', 00H			; `string'
CONST	ENDS
;	COMDAT ??_C@_07HKMPLBJC@TaxSell@
CONST	SEGMENT
??_C@_07HKMPLBJC@TaxSell@ DB 'TaxSell', 00H		; `string'
CONST	ENDS
;	COMDAT ??_C@_06CCNJGCGG@TaxBuy@
CONST	SEGMENT
??_C@_06CCNJGCGG@TaxBuy@ DB 'TaxBuy', 00H		; `string'
CONST	ENDS
;	COMDAT ??_C@_06EFLNJIJO@JCount@
CONST	SEGMENT
??_C@_06EFLNJIJO@JCount@ DB 'JCount', 00H		; `string'
CONST	ENDS
;	COMDAT ??_C@_06HJIMLMON@Repeat@
CONST	SEGMENT
??_C@_06HJIMLMON@Repeat@ DB 'Repeat', 00H		; `string'
CONST	ENDS
;	COMDAT ??_C@_08PHIBHFDB@RunClear@
CONST	SEGMENT
??_C@_08PHIBHFDB@RunClear@ DB 'RunClear', 00H		; `string'
CONST	ENDS
;	COMDAT ??_C@_05IEPODGEO@Allow@
CONST	SEGMENT
??_C@_05IEPODGEO@Allow@ DB 'Allow', 00H			; `string'
CONST	ENDS
;	COMDAT ??_C@_05PFBNHJLB@02?300@
CONST	SEGMENT
??_C@_05PFBNHJLB@02?300@ DB '02:00', 00H		; `string'
CONST	ENDS
;	COMDAT ??_C@_02PJNFELNH@30@
CONST	SEGMENT
??_C@_02PJNFELNH@30@ DB '30', 00H			; `string'
CONST	ENDS
;	COMDAT ??_C@_02PIBHCBOA@20@
CONST	SEGMENT
??_C@_02PIBHCBOA@20@ DB '20', 00H			; `string'
CONST	ENDS
;	COMDAT ??_C@_02PKFBJPLJ@10@
CONST	SEGMENT
??_C@_02PKFBJPLJ@10@ DB '10', 00H			; `string'
CONST	ENDS
;	COMDAT ??_C@_01BMBHCPLG@5@
CONST	SEGMENT
??_C@_01BMBHCPLG@5@ DB '5', 00H				; `string'
CONST	ENDS
;	COMDAT ??_C@_02MMHFHELC@S5@
CONST	SEGMENT
??_C@_02MMHFHELC@S5@ DB 'S5', 00H			; `string'
CONST	ENDS
;	COMDAT ??_C@_02PMAFKIGJ@P7@
CONST	SEGMENT
??_C@_02PMAFKIGJ@P7@ DB 'P7', 00H			; `string'
CONST	ENDS
;	COMDAT ??_C@_02OFBOJJCI@P6@
CONST	SEGMENT
??_C@_02OFBOJJCI@P6@ DB 'P6', 00H			; `string'
CONST	ENDS
;	COMDAT ??_C@_03JFOFANME@ED7@
CONST	SEGMENT
??_C@_03JFOFANME@ED7@ DB 'ED7', 00H			; `string'
CONST	ENDS
;	COMDAT ??_C@_03IMPODMIF@ED6@
CONST	SEGMENT
??_C@_03IMPODMIF@ED6@ DB 'ED6', 00H			; `string'
CONST	ENDS
;	COMDAT ??_C@_04MJJHBGC@Chk7@
CONST	SEGMENT
??_C@_04MJJHBGC@Chk7@ DB 'Chk7', 00H			; `string'
CONST	ENDS
;	COMDAT ??_C@_07GFAEBBEE@ED_Time@
CONST	SEGMENT
??_C@_07GFAEBBEE@ED_Time@ DB 'ED_Time', 00H		; `string'
CONST	ENDS
;	COMDAT ??_C@_05CDDCFJNA@TimeA@
CONST	SEGMENT
??_C@_05CDDCFJNA@TimeA@ DB 'TimeA', 00H			; `string'
CONST	ENDS
;	COMDAT ??_C@_04BFICEACD@Chk6@
CONST	SEGMENT
??_C@_04BFICEACD@Chk6@ DB 'Chk6', 00H			; `string'
CONST	ENDS
;	COMDAT ??_C@_04BAFOPPNE@Bong@
CONST	SEGMENT
??_C@_04BAFOPPNE@Bong@ DB 'Bong', 00H			; `string'
CONST	ENDS
;	COMDAT ??_C@_02MODDMKOL@P5@
CONST	SEGMENT
??_C@_02MODDMKOL@P5@ DB 'P5', 00H			; `string'
CONST	ENDS
;	COMDAT ??_C@_03KHNDGPEG@ED5@
CONST	SEGMENT
??_C@_03KHNDGPEG@ED5@ DB 'ED5', 00H			; `string'
CONST	ENDS
;	COMDAT ??_C@_04DOKPBDOA@Chk5@
CONST	SEGMENT
??_C@_04DOKPBDOA@Chk5@ DB 'Chk5', 00H			; `string'
CONST	ENDS
;	COMDAT ??_C@_01FAMBOPH@4@
CONST	SEGMENT
??_C@_01FAMBOPH@4@ DB '4', 00H				; `string'
CONST	ENDS
;	COMDAT ??_C@_02NFGOEFPD@S4@
CONST	SEGMENT
??_C@_02NFGOEFPD@S4@ DB 'S4', 00H			; `string'
CONST	ENDS
;	COMDAT ??_C@_02NHCIPLKK@P4@
CONST	SEGMENT
??_C@_02NHCIPLKK@P4@ DB 'P4', 00H			; `string'
CONST	ENDS
;	COMDAT ??_C@_03LOMIFOAH@ED4@
CONST	SEGMENT
??_C@_03LOMIFOAH@ED4@ DB 'ED4', 00H			; `string'
CONST	ENDS
;	COMDAT ??_C@_04CHLECCKB@Chk4@
CONST	SEGMENT
??_C@_04CHLECCKB@Chk4@ DB 'Chk4', 00H			; `string'
CONST	ENDS
;	COMDAT ??_C@_01EKENIIDA@3@
CONST	SEGMENT
??_C@_01EKENIIDA@3@ DB '3', 00H				; `string'
CONST	ENDS
;	COMDAT ??_C@_02JKCPNDDE@S3@
CONST	SEGMENT
??_C@_02JKCPNDDE@S3@ DB 'S3', 00H			; `string'
CONST	ENDS
;	COMDAT ??_C@_02JIGJGNGN@P3@
CONST	SEGMENT
??_C@_02JIGJGNGN@P3@ DB 'P3', 00H			; `string'
CONST	ENDS
;	COMDAT ??_C@_03PBIJMIMA@ED3@
CONST	SEGMENT
??_C@_03PBIJMIMA@ED3@ DB 'ED3', 00H			; `string'
CONST	ENDS
;	COMDAT ??_C@_04GIPFLEGG@Chk3@
CONST	SEGMENT
??_C@_04GIPFLEGG@Chk3@ DB 'Chk3', 00H			; `string'
CONST	ENDS
;	COMDAT ??_C@_01FDFGLJHB@2@
CONST	SEGMENT
??_C@_01FDFGLJHB@2@ DB '2', 00H				; `string'
CONST	ENDS
;	COMDAT ??_C@_02IDDEOCHF@S2@
CONST	SEGMENT
??_C@_02IDDEOCHF@S2@ DB 'S2', 00H			; `string'
CONST	ENDS
;	COMDAT ??_C@_02IBHCFMCM@P2@
CONST	SEGMENT
??_C@_02IBHCFMCM@P2@ DB 'P2', 00H			; `string'
CONST	ENDS
;	COMDAT ??_C@_03OIJCPJIB@ED2@
CONST	SEGMENT
??_C@_03OIJCPJIB@ED2@ DB 'ED2', 00H			; `string'
CONST	ENDS
;	COMDAT ??_C@_04HBOOIFCH@Chk2@
CONST	SEGMENT
??_C@_04HBOOIFCH@Chk2@ DB 'Chk2', 00H			; `string'
CONST	ENDS
;	COMDAT ??_C@_06IEMDKIBD@CLR_?$CFs@
CONST	SEGMENT
??_C@_06IEMDKIBD@CLR_?$CFs@ DB 'CLR_%s', 00H		; `string'
CONST	ENDS
;	COMDAT ??_C@_02KIBJLBLG@S1@
CONST	SEGMENT
??_C@_02KIBJLBLG@S1@ DB 'S1', 00H			; `string'
CONST	ENDS
;	COMDAT ??_C@_02KKFPAPOP@P1@
CONST	SEGMENT
??_C@_02KKFPAPOP@P1@ DB 'P1', 00H			; `string'
CONST	ENDS
;	COMDAT ??_C@_03MDLPKKEC@ED1@
CONST	SEGMENT
??_C@_03MDLPKKEC@ED1@ DB 'ED1', 00H			; `string'
CONST	ENDS
;	COMDAT ??_C@_04FKMDNGOE@Chk1@
CONST	SEGMENT
??_C@_04FKMDNGOE@Chk1@ DB 'Chk1', 00H			; `string'
CONST	ENDS
;	COMDAT ??_C@_08DIPLEMAP@RunSetup@
CONST	SEGMENT
??_C@_08DIPLEMAP@RunSetup@ DB 'RunSetup', 00H		; `string'
CONST	ENDS
;	COMDAT ??_C@_0L@DJJDHKPF@ClearPoint@
CONST	SEGMENT
??_C@_0L@DJJDHKPF@ClearPoint@ DB 'ClearPoint', 00H	; `string'
CONST	ENDS
;	COMDAT ??_C@_0N@MECGMIFI@ClrExitshort@
CONST	SEGMENT
??_C@_0N@MECGMIFI@ClrExitshort@ DB 'ClrExitshort', 00H	; `string'
CONST	ENDS
;	COMDAT ??_C@_07MMPNMLAG@ClrSell@
CONST	SEGMENT
??_C@_07MMPNMLAG@ClrSell@ DB 'ClrSell', 00H		; `string'
CONST	ENDS
;	COMDAT ??_C@_0M@FJPKOBBF@ClrExitlong@
CONST	SEGMENT
??_C@_0M@FJPKOBBF@ClrExitlong@ DB 'ClrExitlong', 00H	; `string'
CONST	ENDS
;	COMDAT ??_C@_06HGIOMLFJ@ClrBuy@
CONST	SEGMENT
??_C@_06HGIOMLFJ@ClrBuy@ DB 'ClrBuy', 00H		; `string'
CONST	ENDS
;	COMDAT ??_C@_0P@GBBMBNOC@ShapeExitshort@
CONST	SEGMENT
??_C@_0P@GBBMBNOC@ShapeExitshort@ DB 'ShapeExitshort', 00H ; `string'
CONST	ENDS
;	COMDAT ??_C@_09PKDDMDFM@ShapeSell@
CONST	SEGMENT
??_C@_09PKDDMDFM@ShapeSell@ DB 'ShapeSell', 00H		; `string'
CONST	ENDS
;	COMDAT ??_C@_0O@GJJKDADC@ShapeExitlong@
CONST	SEGMENT
??_C@_0O@GJJKDADC@ShapeExitlong@ DB 'ShapeExitlong', 00H ; `string'
CONST	ENDS
;	COMDAT ??_C@_06CPODCDOI@Signal@
CONST	SEGMENT
??_C@_06CPODCDOI@Signal@ DB 'Signal', 00H		; `string'
CONST	ENDS
;	COMDAT ??_C@_08LLMMGHPD@ShapeBuy@
CONST	SEGMENT
??_C@_08LLMMGHPD@ShapeBuy@ DB 'ShapeBuy', 00H		; `string'
CONST	ENDS
;	COMDAT ??_C@_09JICOEDDI@chord?4wav@
CONST	SEGMENT
??_C@_09JICOEDDI@chord?4wav@ DB 'chord.wav', 00H	; `string'
CONST	ENDS
;	COMDAT ??_C@_08KBMMPOBE@ding?4wav@
CONST	SEGMENT
??_C@_08KBMMPOBE@ding?4wav@ DB 'ding.wav', 00H		; `string'
CONST	ENDS
;	COMDAT ??_C@_09HGMEBGJP@?$CFs?2Media?2@
CONST	SEGMENT
??_C@_09HGMEBGJP@?$CFs?2Media?2@ DB '%s\Media\', 00H	; `string'
CONST	ENDS
;	COMDAT ??_C@_0BA@ECPFDDA@Sound_Sell_File@
CONST	SEGMENT
??_C@_0BA@ECPFDDA@Sound_Sell_File@ DB 'Sound_Sell_File', 00H ; `string'
CONST	ENDS
;	COMDAT ??_C@_0P@ELHCNFMP@Sound_Sell_Use@
CONST	SEGMENT
??_C@_0P@ELHCNFMP@Sound_Sell_Use@ DB 'Sound_Sell_Use', 00H ; `string'
CONST	ENDS
;	COMDAT ??_C@_0P@PLANCCBL@Sound_Buy_File@
CONST	SEGMENT
??_C@_0P@PLANCCBL@Sound_Buy_File@ DB 'Sound_Buy_File', 00H ; `string'
CONST	ENDS
;	COMDAT ??_C@_0O@GGGJIOBG@Sound_Buy_Use@
CONST	SEGMENT
??_C@_0O@GGGJIOBG@Sound_Buy_Use@ DB 'Sound_Buy_Use', 00H ; `string'
CONST	ENDS
;	COMDAT ??_C@_0N@PHFNPPGD@JStartSignal@
CONST	SEGMENT
??_C@_0N@PHFNPPGD@JStartSignal@ DB 'JStartSignal', 00H	; `string'
CONST	ENDS
;	COMDAT ??_C@_05DDMGGBEF@JTime@
CONST	SEGMENT
??_C@_05DDMGGBEF@JTime@ DB 'JTime', 00H			; `string'
CONST	ENDS
;	COMDAT ??_C@_07OPLPMPLO@JMethod@
CONST	SEGMENT
??_C@_07OPLPMPLO@JMethod@ DB 'JMethod', 00H		; `string'
CONST	ENDS
;	COMDAT ??_C@_09IFJBEAG@SellPrice@
CONST	SEGMENT
??_C@_09IFJBEAG@SellPrice@ DB 'SellPrice', 00H		; `string'
CONST	ENDS
;	COMDAT ??_C@_08OPHLCDJG@BuyPrice@
CONST	SEGMENT
??_C@_08OPHLCDJG@BuyPrice@ DB 'BuyPrice', 00H		; `string'
CONST	ENDS
;	COMDAT ??_C@_07DKAPHGBA@JAmount@
CONST	SEGMENT
??_C@_07DKAPHGBA@JAmount@ DB 'JAmount', 00H		; `string'
CONST	ENDS
;	COMDAT ??_C@_09IBLJBBGC@MKPRC_CLR@
CONST	SEGMENT
??_C@_09IBLJBBGC@MKPRC_CLR@ DB 'MKPRC_CLR', 00H		; `string'
CONST	ENDS
;	COMDAT ??_C@_09PBAMDNFG@MKPRC_ENT@
CONST	SEGMENT
??_C@_09PBAMDNFG@MKPRC_ENT@ DB 'MKPRC_ENT', 00H		; `string'
CONST	ENDS
;	COMDAT ??_C@_08JIEKPDDN@AcctName@
CONST	SEGMENT
??_C@_08JIEKPDDN@AcctName@ DB 'AcctName', 00H		; `string'
CONST	ENDS
;	COMDAT ??_C@_04HEBPOIHN@Acct@
CONST	SEGMENT
??_C@_04HEBPOIHN@Acct@ DB 'Acct', 00H			; `string'
CONST	ENDS
;	COMDAT ??_C@_08IFJCKPBE@RunJumun@
CONST	SEGMENT
??_C@_08IFJCKPBE@RunJumun@ DB 'RunJumun', 00H		; `string'
CONST	ENDS
;	COMDAT ??_C@_03KHGJEAFP@0?44@
CONST	SEGMENT
??_C@_03KHGJEAFP@0?44@ DB '0.4', 00H			; `string'
CONST	ENDS
;	COMDAT ??_C@_03NKBOLEBK@0?41@
CONST	SEGMENT
??_C@_03NKBOLEBK@0?41@ DB '0.1', 00H			; `string'
CONST	ENDS
;	COMDAT ??_C@_08HNMDJOHO@16711680@
CONST	SEGMENT
??_C@_08HNMDJOHO@16711680@ DB '16711680', 00H		; `string'
CONST	ENDS
;	COMDAT ??_C@_03EAIPFAE@255@
CONST	SEGMENT
??_C@_03EAIPFAE@255@ DB '255', 00H			; `string'
CONST	ENDS
;	COMDAT ??_C@_02DKCKIIND@?$CFs@
CONST	SEGMENT
??_C@_02DKCKIIND@?$CFs@ DB '%s', 00H			; `string'
CONST	ENDS
;	COMDAT ??_C@_01HIHLOKLC@1@
CONST	SEGMENT
??_C@_01HIHLOKLC@1@ DB '1', 00H				; `string'
CONST	ENDS
;	COMDAT ??_7CCommonDialog@@6B@
CONST	SEGMENT
??_7CCommonDialog@@6B@ DD FLAT:??_R4CCommonDialog@@6B@	; CCommonDialog::`vftable'
	DD	FLAT:?GetRuntimeClass@CCommonDialog@@UBEPAUCRuntimeClass@@XZ
	DD	FLAT:??_ECCommonDialog@@UAEPAXI@Z
	DD	FLAT:?Serialize@CObject@@UAEXAAVCArchive@@@Z
	DD	FLAT:?AssertValid@CObject@@UBEXXZ
	DD	FLAT:?Dump@CObject@@UBEXAAVCDumpContext@@@Z
	DD	FLAT:?OnCmdMsg@CDialog@@UAEHIHPAXPAUAFX_CMDHANDLERINFO@@@Z
	DD	FLAT:?OnFinalRelease@CWnd@@UAEXXZ
	DD	FLAT:?IsInvokeAllowed@CCmdTarget@@UAEHJ@Z
	DD	FLAT:?GetDispatchIID@CCmdTarget@@UAEHPAU_GUID@@@Z
	DD	FLAT:?GetTypeInfoCount@CCmdTarget@@UAEIXZ
	DD	FLAT:?GetTypeLibCache@CCmdTarget@@UAEPAVCTypeLibCache@@XZ
	DD	FLAT:?GetTypeLib@CCmdTarget@@UAEJKPAPAUITypeLib@@@Z
	DD	FLAT:?GetMessageMap@CCommonDialog@@MBEPBUAFX_MSGMAP@@XZ
	DD	FLAT:?GetCommandMap@CCmdTarget@@MBEPBUAFX_OLECMDMAP@@XZ
	DD	FLAT:?GetDispatchMap@CCmdTarget@@MBEPBUAFX_DISPMAP@@XZ
	DD	FLAT:?GetConnectionMap@CCmdTarget@@MBEPBUAFX_CONNECTIONMAP@@XZ
	DD	FLAT:?GetInterfaceMap@CWnd@@MBEPBUAFX_INTERFACEMAP@@XZ
	DD	FLAT:?GetEventSinkMap@CCmdTarget@@MBEPBUAFX_EVENTSINKMAP@@XZ
	DD	FLAT:?OnCreateAggregates@CCmdTarget@@UAEHXZ
	DD	FLAT:?GetInterfaceHook@CCmdTarget@@UAEPAUIUnknown@@PBX@Z
	DD	FLAT:?GetExtraConnectionPoints@CCmdTarget@@MAEHPAVCPtrArray@@@Z
	DD	FLAT:?GetConnectionHook@CCmdTarget@@MAEPAUIConnectionPoint@@ABU_GUID@@@Z
	DD	FLAT:?PreSubclassWindow@CWnd@@UAEXXZ
	DD	FLAT:?Create@CWnd@@UAEHPBD0KABUtagRECT@@PAV1@IPAUCCreateContext@@@Z
	DD	FLAT:?CreateEx@CWnd@@UAEHKPBD0KABUtagRECT@@PAV1@IPAX@Z
	DD	FLAT:?CreateEx@CWnd@@UAEHKPBD0KHHHHPAUHWND__@@PAUHMENU__@@PAX@Z
	DD	FLAT:?DestroyWindow@CWnd@@UAEHXZ
	DD	FLAT:?PreCreateWindow@CWnd@@UAEHAAUtagCREATESTRUCTA@@@Z
	DD	FLAT:?CalcWindowRect@CWnd@@UAEXPAUtagRECT@@I@Z
	DD	FLAT:?GetMenu@CWnd@@UBEPAVCMenu@@XZ
	DD	FLAT:?SetMenu@CWnd@@UAEHPAVCMenu@@@Z
	DD	FLAT:?OnToolHitTest@CWnd@@UBEHVCPoint@@PAUtagTOOLINFOA@@@Z
	DD	FLAT:?GetScrollBarCtrl@CWnd@@UBEPAVCScrollBar@@H@Z
	DD	FLAT:?WinHelpA@CWnd@@UAEXKI@Z
	DD	FLAT:?HtmlHelpA@CWnd@@UAEXKI@Z
	DD	FLAT:?WinHelpInternal@CWnd@@UAEXKI@Z
	DD	FLAT:?ContinueModal@CWnd@@UAEHXZ
	DD	FLAT:?EndModalLoop@CWnd@@UAEXH@Z
	DD	FLAT:?OnDrawIconicThumbnailOrLivePreview@CWnd@@UAEXAAVCDC@@VCRect@@VCSize@@HAAH@Z
	DD	FLAT:?EnsureStdObj@CWnd@@UAEJXZ
	DD	FLAT:?get_accParent@CWnd@@UAEJPAPAUIDispatch@@@Z
	DD	FLAT:?get_accChildCount@CWnd@@UAEJPAJ@Z
	DD	FLAT:?get_accChild@CWnd@@UAEJUtagVARIANT@@PAPAUIDispatch@@@Z
	DD	FLAT:?get_accName@CWnd@@UAEJUtagVARIANT@@PAPA_W@Z
	DD	FLAT:?get_accValue@CWnd@@UAEJUtagVARIANT@@PAPA_W@Z
	DD	FLAT:?get_accDescription@CWnd@@UAEJUtagVARIANT@@PAPA_W@Z
	DD	FLAT:?get_accRole@CWnd@@UAEJUtagVARIANT@@PAU2@@Z
	DD	FLAT:?get_accState@CWnd@@UAEJUtagVARIANT@@PAU2@@Z
	DD	FLAT:?get_accHelp@CWnd@@UAEJUtagVARIANT@@PAPA_W@Z
	DD	FLAT:?get_accHelpTopic@CWnd@@UAEJPAPA_WUtagVARIANT@@PAJ@Z
	DD	FLAT:?get_accKeyboardShortcut@CWnd@@UAEJUtagVARIANT@@PAPA_W@Z
	DD	FLAT:?get_accFocus@CWnd@@UAEJPAUtagVARIANT@@@Z
	DD	FLAT:?get_accSelection@CWnd@@UAEJPAUtagVARIANT@@@Z
	DD	FLAT:?get_accDefaultAction@CWnd@@UAEJUtagVARIANT@@PAPA_W@Z
	DD	FLAT:?accSelect@CWnd@@UAEJJUtagVARIANT@@@Z
	DD	FLAT:?accLocation@CWnd@@UAEJPAJ000UtagVARIANT@@@Z
	DD	FLAT:?accNavigate@CWnd@@UAEJJUtagVARIANT@@PAU2@@Z
	DD	FLAT:?accHitTest@CWnd@@UAEJJJPAUtagVARIANT@@@Z
	DD	FLAT:?accDoDefaultAction@CWnd@@UAEJUtagVARIANT@@@Z
	DD	FLAT:?put_accName@CWnd@@UAEJUtagVARIANT@@PA_W@Z
	DD	FLAT:?put_accValue@CWnd@@UAEJUtagVARIANT@@PA_W@Z
	DD	FLAT:?SetProxy@CWnd@@UAEJPAUIAccessibleProxy@@@Z
	DD	FLAT:?CreateAccessibleProxy@CWnd@@UAEJIJPAJ@Z
	DD	FLAT:?OnCommand@CWnd@@MAEHIJ@Z
	DD	FLAT:?OnNotify@CWnd@@MAEHIJPAJ@Z
	DD	FLAT:?GetSuperWndProcAddr@CWnd@@MAEPAP6GJPAUHWND__@@IIJ@ZXZ
	DD	FLAT:?DoDataExchange@CWnd@@MAEXPAVCDataExchange@@@Z
	DD	FLAT:?BeginModalState@CWnd@@UAEXXZ
	DD	FLAT:?EndModalState@CWnd@@UAEXXZ
	DD	FLAT:?PreTranslateMessage@CDialog@@UAEHPAUtagMSG@@@Z
	DD	FLAT:?OnAmbientProperty@CWnd@@UAEHPAVCOleControlSite@@JPAUtagVARIANT@@@Z
	DD	FLAT:?WindowProc@CWnd@@MAEJIIJ@Z
	DD	FLAT:?OnWndMsg@CWnd@@MAEHIIJPAJ@Z
	DD	FLAT:?DefWindowProcA@CWnd@@MAEJIIJ@Z
	DD	FLAT:?PostNcDestroy@CWnd@@MAEXXZ
	DD	FLAT:?OnChildNotify@CWnd@@MAEHIIJPAJ@Z
	DD	FLAT:?OnTouchInputs@CWnd@@MAEHIPAUtagTOUCHINPUT@@@Z
	DD	FLAT:?OnTouchInput@CWnd@@MAEHVCPoint@@HHPAUtagTOUCHINPUT@@@Z
	DD	FLAT:?GetGestureStatus@CWnd@@MAEKVCPoint@@@Z
	DD	FLAT:?OnGestureZoom@CWnd@@MAEHVCPoint@@J@Z
	DD	FLAT:?OnGesturePan@CWnd@@MAEHVCPoint@@0@Z
	DD	FLAT:?OnGestureRotate@CWnd@@MAEHVCPoint@@N@Z
	DD	FLAT:?OnGestureTwoFingerTap@CWnd@@MAEHVCPoint@@@Z
	DD	FLAT:?OnGesturePressAndTap@CWnd@@MAEHVCPoint@@J@Z
	DD	FLAT:?ResizeDynamicLayout@CWnd@@MAEXXZ
	DD	FLAT:?CheckAutoCenter@CDialog@@UAEHXZ
	DD	FLAT:?IsFrameWnd@CWnd@@UBEHXZ
	DD	FLAT:?CreateControlContainer@CWnd@@MAEHPAPAVCOleControlContainer@@@Z
	DD	FLAT:?CreateControlSite@CWnd@@MAEHPAVCOleControlContainer@@PAPAVCOleControlSite@@IABU_GUID@@@Z
	DD	FLAT:?SetOccDialogInfo@CDialog@@MAEHPAU_AFX_OCC_DIALOG_INFO@@@Z
	DD	FLAT:?GetOccDialogInfo@CDialog@@MAEPAU_AFX_OCC_DIALOG_INFO@@XZ
	DD	FLAT:?Create@CDialog@@UAEHIPAVCWnd@@@Z
	DD	FLAT:?Create@CDialog@@UAEHPBDPAVCWnd@@@Z
	DD	FLAT:?CreateIndirect@CDialog@@UAEHPAXPAVCWnd@@@Z
	DD	FLAT:?CreateIndirect@CDialog@@UAEHPBUDLGTEMPLATE@@PAVCWnd@@PAX@Z
	DD	FLAT:?DoModal@CDialog@@UAEHXZ
	DD	FLAT:?OnInitDialog@CDialog@@UAEHXZ
	DD	FLAT:?OnSetFont@CDialog@@UAEXPAVCFont@@@Z
	DD	FLAT:?OnOK@CCommonDialog@@MAEXXZ
	DD	FLAT:?OnCancel@CCommonDialog@@MAEXXZ
	DD	FLAT:?PreInitDialog@CDialog@@MAEXXZ
CONST	ENDS
;	COMDAT ??_C@_00CNPNBAHC@@
CONST	SEGMENT
??_C@_00CNPNBAHC@@ DB 00H				; `string'
CONST	ENDS
;	COMDAT ??_C@_02DPKJAMEF@?$CFd@
CONST	SEGMENT
??_C@_02DPKJAMEF@?$CFd@ DB '%d', 00H			; `string'
CONST	ENDS
;	COMDAT xdata$x
xdata$x	SEGMENT
__unwindtable$?OnBtnClr@CTabRunSetup@@QAEXAAVCColorButton@@@Z DD 0ffffffffH
	DD	FLAT:__unwindfunclet$?OnBtnClr@CTabRunSetup@@QAEXAAVCColorButton@@@Z$0
__ehfuncinfo$?OnBtnClr@CTabRunSetup@@QAEXAAVCColorButton@@@Z DD 019930522H
	DD	01H
	DD	FLAT:__unwindtable$?OnBtnClr@CTabRunSetup@@QAEXAAVCColorButton@@@Z
	DD	2 DUP(00H)
	DD	2 DUP(00H)
	DD	00H
	DD	01H
xdata$x	ENDS
;	COMDAT xdata$x
xdata$x	SEGMENT
__unwindtable$?SaveInfo@CTabRunSetup@@UAEHXZ DD 0ffffffffH
	DD	FLAT:__unwindfunclet$?SaveInfo@CTabRunSetup@@UAEHXZ$0
	DD	00H
	DD	FLAT:__unwindfunclet$?SaveInfo@CTabRunSetup@@UAEHXZ$1
__ehfuncinfo$?SaveInfo@CTabRunSetup@@UAEHXZ DD 019930522H
	DD	02H
	DD	FLAT:__unwindtable$?SaveInfo@CTabRunSetup@@UAEHXZ
	DD	2 DUP(00H)
	DD	2 DUP(00H)
	DD	00H
	DD	01H
xdata$x	ENDS
;	COMDAT xdata$x
xdata$x	SEGMENT
__unwindtable$?LoadInfo@CTabRunSetup@@UAEXXZ DD 0ffffffffH
	DD	FLAT:__unwindfunclet$?LoadInfo@CTabRunSetup@@UAEXXZ$1
	DD	00H
	DD	FLAT:__unwindfunclet$?LoadInfo@CTabRunSetup@@UAEXXZ$2
	DD	01H
	DD	FLAT:__unwindfunclet$?LoadInfo@CTabRunSetup@@UAEXXZ$3
	DD	0ffffffffH
	DD	FLAT:__unwindfunclet$?LoadInfo@CTabRunSetup@@UAEXXZ$0
__ehfuncinfo$?LoadInfo@CTabRunSetup@@UAEXXZ DD 019930522H
	DD	04H
	DD	FLAT:__unwindtable$?LoadInfo@CTabRunSetup@@UAEXXZ
	DD	2 DUP(00H)
	DD	2 DUP(00H)
	DD	00H
	DD	01H
xdata$x	ENDS
;	COMDAT xdata$x
xdata$x	SEGMENT
__ehfuncinfo$??0CTabRunSetup@@QAE@PAVCWnd@@@Z DD 019930522H
	DD	013H
	DD	FLAT:__unwindtable$??0CTabRunSetup@@QAE@PAVCWnd@@@Z
	DD	2 DUP(00H)
	DD	2 DUP(00H)
	DD	00H
	DD	01H
__unwindtable$??0CTabRunSetup@@QAE@PAVCWnd@@@Z DD 0ffffffffH
	DD	FLAT:__unwindfunclet$??0CTabRunSetup@@QAE@PAVCWnd@@@Z$0
	DD	00H
	DD	FLAT:__unwindfunclet$??0CTabRunSetup@@QAE@PAVCWnd@@@Z$1
	DD	01H
	DD	FLAT:__unwindfunclet$??0CTabRunSetup@@QAE@PAVCWnd@@@Z$2
	DD	02H
	DD	FLAT:__unwindfunclet$??0CTabRunSetup@@QAE@PAVCWnd@@@Z$3
	DD	03H
	DD	FLAT:__unwindfunclet$??0CTabRunSetup@@QAE@PAVCWnd@@@Z$4
	DD	04H
	DD	FLAT:__unwindfunclet$??0CTabRunSetup@@QAE@PAVCWnd@@@Z$5
	DD	05H
	DD	FLAT:__unwindfunclet$??0CTabRunSetup@@QAE@PAVCWnd@@@Z$6
	DD	06H
	DD	FLAT:__unwindfunclet$??0CTabRunSetup@@QAE@PAVCWnd@@@Z$7
	DD	07H
	DD	FLAT:__unwindfunclet$??0CTabRunSetup@@QAE@PAVCWnd@@@Z$8
	DD	08H
	DD	FLAT:__unwindfunclet$??0CTabRunSetup@@QAE@PAVCWnd@@@Z$9
	DD	09H
	DD	FLAT:__unwindfunclet$??0CTabRunSetup@@QAE@PAVCWnd@@@Z$10
	DD	0aH
	DD	FLAT:__unwindfunclet$??0CTabRunSetup@@QAE@PAVCWnd@@@Z$11
	DD	0bH
	DD	FLAT:__unwindfunclet$??0CTabRunSetup@@QAE@PAVCWnd@@@Z$12
	DD	0cH
	DD	FLAT:__unwindfunclet$??0CTabRunSetup@@QAE@PAVCWnd@@@Z$13
	DD	0dH
	DD	FLAT:__unwindfunclet$??0CTabRunSetup@@QAE@PAVCWnd@@@Z$14
	DD	0eH
	DD	FLAT:__unwindfunclet$??0CTabRunSetup@@QAE@PAVCWnd@@@Z$15
	DD	0fH
	DD	FLAT:__unwindfunclet$??0CTabRunSetup@@QAE@PAVCWnd@@@Z$16
	DD	010H
	DD	FLAT:__unwindfunclet$??0CTabRunSetup@@QAE@PAVCWnd@@@Z$17
	DD	011H
	DD	FLAT:__unwindfunclet$??0CTabRunSetup@@QAE@PAVCWnd@@@Z$18
xdata$x	ENDS
;	COMDAT xdata$x
xdata$x	SEGMENT
__unwindtable$?LoadInfo@CSTConfigEnv@@QAEXPBD0H@Z DD 0ffffffffH
	DD	FLAT:__unwindfunclet$?LoadInfo@CSTConfigEnv@@QAEXPBD0H@Z$1
	DD	0ffffffffH
	DD	FLAT:__unwindfunclet$?LoadInfo@CSTConfigEnv@@QAEXPBD0H@Z$2
	DD	0ffffffffH
	DD	FLAT:__unwindfunclet$?LoadInfo@CSTConfigEnv@@QAEXPBD0H@Z$3
__ehfuncinfo$?LoadInfo@CSTConfigEnv@@QAEXPBD0H@Z DD 019930522H
	DD	03H
	DD	FLAT:__unwindtable$?LoadInfo@CSTConfigEnv@@QAEXPBD0H@Z
	DD	2 DUP(00H)
	DD	2 DUP(00H)
	DD	00H
	DD	01H
xdata$x	ENDS
;	COMDAT xdata$x
xdata$x	SEGMENT
__unwindtable$??0CSTConfigEnv@@QAE@XZ DD 0ffffffffH
	DD	FLAT:__unwindfunclet$??0CSTConfigEnv@@QAE@XZ$0
	DD	00H
	DD	FLAT:__unwindfunclet$??0CSTConfigEnv@@QAE@XZ$1
	DD	01H
	DD	FLAT:__unwindfunclet$??0CSTConfigEnv@@QAE@XZ$2
__ehfuncinfo$??0CSTConfigEnv@@QAE@XZ DD 019930522H
	DD	03H
	DD	FLAT:__unwindtable$??0CSTConfigEnv@@QAE@XZ
	DD	2 DUP(00H)
	DD	2 DUP(00H)
	DD	00H
	DD	01H
xdata$x	ENDS
;	COMDAT xdata$x
xdata$x	SEGMENT
__unwindtable$?LoadInfo@CSTConfigEnv_Clear@@QAEXPBD@Z DD 0ffffffffH
	DD	FLAT:__unwindfunclet$?LoadInfo@CSTConfigEnv_Clear@@QAEXPBD@Z$0
__ehfuncinfo$?LoadInfo@CSTConfigEnv_Clear@@QAEXPBD@Z DD 019930522H
	DD	01H
	DD	FLAT:__unwindtable$?LoadInfo@CSTConfigEnv_Clear@@QAEXPBD@Z
	DD	2 DUP(00H)
	DD	2 DUP(00H)
	DD	00H
	DD	01H
xdata$x	ENDS
;	COMDAT xdata$x
xdata$x	SEGMENT
__unwindtable$??0CSTConfigEnv_Clear@@QAE@XZ DD 0ffffffffH
	DD	FLAT:__unwindfunclet$??0CSTConfigEnv_Clear@@QAE@XZ$0
	DD	00H
	DD	FLAT:__unwindfunclet$??0CSTConfigEnv_Clear@@QAE@XZ$1
	DD	01H
	DD	FLAT:__unwindfunclet$??0CSTConfigEnv_Clear@@QAE@XZ$2
__ehfuncinfo$??0CSTConfigEnv_Clear@@QAE@XZ DD 019930522H
	DD	03H
	DD	FLAT:__unwindtable$??0CSTConfigEnv_Clear@@QAE@XZ
	DD	2 DUP(00H)
	DD	2 DUP(00H)
	DD	00H
	DD	01H
xdata$x	ENDS
;	COMDAT xdata$x
xdata$x	SEGMENT
__unwindtable$?LoadInfo@CSTConfigEnv_Setup@@QAEXPBD@Z DD 0ffffffffH
	DD	FLAT:__unwindfunclet$?LoadInfo@CSTConfigEnv_Setup@@QAEXPBD@Z$0
__ehfuncinfo$?LoadInfo@CSTConfigEnv_Setup@@QAEXPBD@Z DD 019930522H
	DD	01H
	DD	FLAT:__unwindtable$?LoadInfo@CSTConfigEnv_Setup@@QAEXPBD@Z
	DD	2 DUP(00H)
	DD	2 DUP(00H)
	DD	00H
	DD	01H
xdata$x	ENDS
;	COMDAT xdata$x
xdata$x	SEGMENT
__ehfuncinfo$??0CSTConfigEnv_Setup@@QAE@XZ DD 019930522H
	DD	015H
	DD	FLAT:__unwindtable$??0CSTConfigEnv_Setup@@QAE@XZ
	DD	2 DUP(00H)
	DD	2 DUP(00H)
	DD	00H
	DD	01H
__unwindtable$??0CSTConfigEnv_Setup@@QAE@XZ DD 0ffffffffH
	DD	FLAT:__unwindfunclet$??0CSTConfigEnv_Setup@@QAE@XZ$0
	DD	00H
	DD	FLAT:__unwindfunclet$??0CSTConfigEnv_Setup@@QAE@XZ$1
	DD	01H
	DD	FLAT:__unwindfunclet$??0CSTConfigEnv_Setup@@QAE@XZ$2
	DD	02H
	DD	FLAT:__unwindfunclet$??0CSTConfigEnv_Setup@@QAE@XZ$3
	DD	03H
	DD	FLAT:__unwindfunclet$??0CSTConfigEnv_Setup@@QAE@XZ$4
	DD	04H
	DD	FLAT:__unwindfunclet$??0CSTConfigEnv_Setup@@QAE@XZ$5
	DD	05H
	DD	FLAT:__unwindfunclet$??0CSTConfigEnv_Setup@@QAE@XZ$6
	DD	06H
	DD	FLAT:__unwindfunclet$??0CSTConfigEnv_Setup@@QAE@XZ$7
	DD	07H
	DD	FLAT:__unwindfunclet$??0CSTConfigEnv_Setup@@QAE@XZ$8
	DD	08H
	DD	FLAT:__unwindfunclet$??0CSTConfigEnv_Setup@@QAE@XZ$9
	DD	09H
	DD	FLAT:__unwindfunclet$??0CSTConfigEnv_Setup@@QAE@XZ$10
	DD	0aH
	DD	FLAT:__unwindfunclet$??0CSTConfigEnv_Setup@@QAE@XZ$11
	DD	0bH
	DD	FLAT:__unwindfunclet$??0CSTConfigEnv_Setup@@QAE@XZ$12
	DD	0cH
	DD	FLAT:__unwindfunclet$??0CSTConfigEnv_Setup@@QAE@XZ$13
	DD	0dH
	DD	FLAT:__unwindfunclet$??0CSTConfigEnv_Setup@@QAE@XZ$14
	DD	0eH
	DD	FLAT:__unwindfunclet$??0CSTConfigEnv_Setup@@QAE@XZ$15
	DD	0fH
	DD	FLAT:__unwindfunclet$??0CSTConfigEnv_Setup@@QAE@XZ$16
	DD	010H
	DD	FLAT:__unwindfunclet$??0CSTConfigEnv_Setup@@QAE@XZ$17
	DD	011H
	DD	FLAT:__unwindfunclet$??0CSTConfigEnv_Setup@@QAE@XZ$18
	DD	012H
	DD	FLAT:__unwindfunclet$??0CSTConfigEnv_Setup@@QAE@XZ$19
	DD	013H
	DD	FLAT:__unwindfunclet$??0CSTConfigEnv_Setup@@QAE@XZ$20
xdata$x	ENDS
;	COMDAT xdata$x
xdata$x	SEGMENT
__unwindtable$?LoadInfo@CSTConfigEnv_Signal@@QAEXPBD@Z DD 0ffffffffH
	DD	FLAT:__unwindfunclet$?LoadInfo@CSTConfigEnv_Signal@@QAEXPBD@Z$0
__ehfuncinfo$?LoadInfo@CSTConfigEnv_Signal@@QAEXPBD@Z DD 019930522H
	DD	01H
	DD	FLAT:__unwindtable$?LoadInfo@CSTConfigEnv_Signal@@QAEXPBD@Z
	DD	2 DUP(00H)
	DD	2 DUP(00H)
	DD	00H
	DD	01H
xdata$x	ENDS
;	COMDAT xdata$x
xdata$x	SEGMENT
__unwindtable$??0CSTConfigEnv_Signal@@QAE@XZ DD 0ffffffffH
	DD	FLAT:__unwindfunclet$??0CSTConfigEnv_Signal@@QAE@XZ$0
	DD	00H
	DD	FLAT:__unwindfunclet$??0CSTConfigEnv_Signal@@QAE@XZ$1
	DD	01H
	DD	FLAT:__unwindfunclet$??0CSTConfigEnv_Signal@@QAE@XZ$2
__ehfuncinfo$??0CSTConfigEnv_Signal@@QAE@XZ DD 019930522H
	DD	03H
	DD	FLAT:__unwindtable$??0CSTConfigEnv_Signal@@QAE@XZ
	DD	2 DUP(00H)
	DD	2 DUP(00H)
	DD	00H
	DD	01H
xdata$x	ENDS
;	COMDAT xdata$x
xdata$x	SEGMENT
__ehfuncinfo$?LoadInfo@CSTConfigEnv_Jumun@@QAEXPBD@Z DD 019930522H
	DD	05H
	DD	FLAT:__unwindtable$?LoadInfo@CSTConfigEnv_Jumun@@QAEXPBD@Z
	DD	2 DUP(00H)
	DD	2 DUP(00H)
	DD	00H
	DD	01H
__unwindtable$?LoadInfo@CSTConfigEnv_Jumun@@QAEXPBD@Z DD 0ffffffffH
	DD	FLAT:__unwindfunclet$?LoadInfo@CSTConfigEnv_Jumun@@QAEXPBD@Z$0
	DD	00H
	DD	FLAT:__unwindfunclet$?LoadInfo@CSTConfigEnv_Jumun@@QAEXPBD@Z$1
	DD	01H
	DD	FLAT:__unwindfunclet$?LoadInfo@CSTConfigEnv_Jumun@@QAEXPBD@Z$2
	DD	02H
	DD	FLAT:__unwindfunclet$?LoadInfo@CSTConfigEnv_Jumun@@QAEXPBD@Z$5
	DD	02H
	DD	FLAT:__unwindfunclet$?LoadInfo@CSTConfigEnv_Jumun@@QAEXPBD@Z$6
xdata$x	ENDS
;	COMDAT xdata$x
xdata$x	SEGMENT
__unwindtable$??HATL@@YA?AV?$CStringT@DV?$StrTraitMFC_DLL@DV?$ChTraitsCRT@D@ATL@@@@@0@ABV10@PBD@Z DD 0ffffffffH
	DD	FLAT:__unwindfunclet$??HATL@@YA?AV?$CStringT@DV?$StrTraitMFC_DLL@DV?$ChTraitsCRT@D@ATL@@@@@0@ABV10@PBD@Z$0
__ehfuncinfo$??HATL@@YA?AV?$CStringT@DV?$StrTraitMFC_DLL@DV?$ChTraitsCRT@D@ATL@@@@@0@ABV10@PBD@Z DD 019930522H
	DD	01H
	DD	FLAT:__unwindtable$??HATL@@YA?AV?$CStringT@DV?$StrTraitMFC_DLL@DV?$ChTraitsCRT@D@ATL@@@@@0@ABV10@PBD@Z
	DD	2 DUP(00H)
	DD	2 DUP(00H)
	DD	00H
	DD	01H
xdata$x	ENDS
; Function compile flags: /Ogtp
; File C:\Program Files (x86)\Microsoft Visual Studio\2019\Community\VC\Tools\MSVC\14.29.30133\atlmfc\include\afx.inl
;	COMDAT ??_GCTabRunSetup@@UAEPAXI@Z
_TEXT	SEGMENT
___flags$ = 8						; size = 4
??_GCTabRunSetup@@UAEPAXI@Z PROC			; CTabRunSetup::`scalar deleting destructor', COMDAT
; _this$ = ecx
  00000	55		 push	 ebp
  00001	8b ec		 mov	 ebp, esp
  00003	56		 push	 esi
  00004	8b f1		 mov	 esi, ecx
  00006	8d 8e 78 0a 00
	00		 lea	 ecx, DWORD PTR [esi+2680]
  0000c	e8 00 00 00 00	 call	 ??1CXEdit@@UAE@XZ	; CXEdit::~CXEdit
  00011	8d 8e e0 09 00
	00		 lea	 ecx, DWORD PTR [esi+2528]
  00017	e8 00 00 00 00	 call	 ??1CExComboBox@@UAE@XZ	; CExComboBox::~CExComboBox
  0001c	8d 8e 50 09 00
	00		 lea	 ecx, DWORD PTR [esi+2384]
  00022	e8 00 00 00 00	 call	 ??1CColorButton@@UAE@XZ	; CColorButton::~CColorButton
  00027	8d 8e c0 08 00
	00		 lea	 ecx, DWORD PTR [esi+2240]
  0002d	e8 00 00 00 00	 call	 ??1CColorButton@@UAE@XZ	; CColorButton::~CColorButton
  00032	8d 8e 30 08 00
	00		 lea	 ecx, DWORD PTR [esi+2096]
  00038	e8 00 00 00 00	 call	 ??1CColorButton@@UAE@XZ	; CColorButton::~CColorButton
  0003d	8d 8e a0 07 00
	00		 lea	 ecx, DWORD PTR [esi+1952]
  00043	e8 00 00 00 00	 call	 ??1CColorButton@@UAE@XZ	; CColorButton::~CColorButton
  00048	8d 8e 10 07 00
	00		 lea	 ecx, DWORD PTR [esi+1808]
  0004e	e8 00 00 00 00	 call	 ??1CColorButton@@UAE@XZ	; CColorButton::~CColorButton
  00053	8d 8e 88 06 00
	00		 lea	 ecx, DWORD PTR [esi+1672]
  00059	e8 00 00 00 00	 call	 ??1CExComboBox@@UAE@XZ	; CExComboBox::~CExComboBox
  0005e	8d 8e 00 06 00
	00		 lea	 ecx, DWORD PTR [esi+1536]
  00064	e8 00 00 00 00	 call	 ??1CExComboBox@@UAE@XZ	; CExComboBox::~CExComboBox
  00069	8d 8e 78 05 00
	00		 lea	 ecx, DWORD PTR [esi+1400]
  0006f	e8 00 00 00 00	 call	 ??1CExComboBox@@UAE@XZ	; CExComboBox::~CExComboBox
  00074	8d 8e f0 04 00
	00		 lea	 ecx, DWORD PTR [esi+1264]
  0007a	e8 00 00 00 00	 call	 ??1CExComboBox@@UAE@XZ	; CExComboBox::~CExComboBox
  0007f	8d 8e 68 04 00
	00		 lea	 ecx, DWORD PTR [esi+1128]
  00085	e8 00 00 00 00	 call	 ??1CExComboBox@@UAE@XZ	; CExComboBox::~CExComboBox
  0008a	8d 8e e0 03 00
	00		 lea	 ecx, DWORD PTR [esi+992]
  00090	e8 00 00 00 00	 call	 ??1CExComboBox@@UAE@XZ	; CExComboBox::~CExComboBox
  00095	8d 8e 58 03 00
	00		 lea	 ecx, DWORD PTR [esi+856]
  0009b	e8 00 00 00 00	 call	 ??1CExComboBox@@UAE@XZ	; CExComboBox::~CExComboBox
  000a0	8d 8e d0 02 00
	00		 lea	 ecx, DWORD PTR [esi+720]
  000a6	e8 00 00 00 00	 call	 ??1CExComboBox@@UAE@XZ	; CExComboBox::~CExComboBox
  000ab	8d 8e 48 02 00
	00		 lea	 ecx, DWORD PTR [esi+584]
  000b1	e8 00 00 00 00	 call	 ??1CExComboBox@@UAE@XZ	; CExComboBox::~CExComboBox
  000b6	8d 8e c0 01 00
	00		 lea	 ecx, DWORD PTR [esi+448]
  000bc	e8 00 00 00 00	 call	 ??1CExComboBox@@UAE@XZ	; CExComboBox::~CExComboBox
  000c1	8d 8e 38 01 00
	00		 lea	 ecx, DWORD PTR [esi+312]
  000c7	e8 00 00 00 00	 call	 ??1CExComboBox@@UAE@XZ	; CExComboBox::~CExComboBox
  000cc	8d 8e b0 00 00
	00		 lea	 ecx, DWORD PTR [esi+176]
  000d2	e8 00 00 00 00	 call	 ??1CExComboBox@@UAE@XZ	; CExComboBox::~CExComboBox
  000d7	8d 8e ac 00 00
	00		 lea	 ecx, DWORD PTR [esi+172]
  000dd	ff 15 00 00 00
	00		 call	 DWORD PTR __imp_??1?$CStringT@DV?$StrTraitMFC_DLL@DV?$ChTraitsCRT@D@ATL@@@@@ATL@@QAE@XZ
  000e3	8d 8e a8 00 00
	00		 lea	 ecx, DWORD PTR [esi+168]
  000e9	ff 15 00 00 00
	00		 call	 DWORD PTR __imp_??1?$CStringT@DV?$StrTraitMFC_DLL@DV?$ChTraitsCRT@D@ATL@@@@@ATL@@QAE@XZ
  000ef	8b ce		 mov	 ecx, esi
  000f1	e8 00 00 00 00	 call	 ??1CDialog@@UAE@XZ	; CDialog::~CDialog
  000f6	8b 45 08	 mov	 eax, DWORD PTR ___flags$[ebp]
  000f9	a8 01		 test	 al, 1
  000fb	74 22		 je	 SHORT $LN15@scalar
  000fd	a8 04		 test	 al, 4
  000ff	75 10		 jne	 SHORT $LN3@scalar

; 112  : 	{ ::operator delete(p); }

  00101	56		 push	 esi
  00102	e8 00 00 00 00	 call	 ??3@YAXPAX@Z		; operator delete
  00107	83 c4 04	 add	 esp, 4
  0010a	8b c6		 mov	 eax, esi
  0010c	5e		 pop	 esi
  0010d	5d		 pop	 ebp
  0010e	c2 04 00	 ret	 4
$LN3@scalar:
  00111	68 00 0b 00 00	 push	 2816			; 00000b00H
  00116	56		 push	 esi
  00117	e8 00 00 00 00	 call	 ?__global_delete@@YAXPAXI@Z ; __global_delete
  0011c	83 c4 08	 add	 esp, 8
$LN15@scalar:
  0011f	8b c6		 mov	 eax, esi
  00121	5e		 pop	 esi
  00122	5d		 pop	 ebp
  00123	c2 04 00	 ret	 4
??_GCTabRunSetup@@UAEPAXI@Z ENDP			; CTabRunSetup::`scalar deleting destructor'
_TEXT	ENDS
; Function compile flags: /Ogtp
; File D:\git\src\IBK\IBK_DRFN\ProjSrc\SrcDrfn\Chart\STCONFIGUREDLG\TabRunSetup.cpp
; File C:\Program Files (x86)\Microsoft Visual Studio\2019\Community\VC\Tools\MSVC\14.29.30133\atlmfc\include\afxwin2.inl
; File C:\Program Files (x86)\Microsoft Visual Studio\2019\Community\VC\Tools\MSVC\14.29.30133\atlmfc\include\afxdlgs.h
; File D:\git\src\IBK\IBK_DRFN\ProjSrc\SrcDrfn\Chart\STCONFIGUREDLG\TabRunSetup.cpp
;	COMDAT ?OnBtnClr@CTabRunSetup@@QAEXAAVCColorButton@@@Z
_TEXT	SEGMENT
_color$ = -220						; size = 208
__$EHRec$ = -12						; size = 12
$T2 = 8							; size = 4
_rColorButton$ = 8					; size = 4
?OnBtnClr@CTabRunSetup@@QAEXAAVCColorButton@@@Z PROC	; CTabRunSetup::OnBtnClr, COMDAT
; _this$ = ecx

; 509  : {

  00000	55		 push	 ebp
  00001	8b ec		 mov	 ebp, esp
  00003	6a ff		 push	 -1
  00005	68 00 00 00 00	 push	 __ehhandler$?OnBtnClr@CTabRunSetup@@QAEXAAVCColorButton@@@Z
  0000a	64 a1 00 00 00
	00		 mov	 eax, DWORD PTR fs:0
  00010	50		 push	 eax
  00011	81 ec d0 00 00
	00		 sub	 esp, 208		; 000000d0H
  00017	56		 push	 esi
  00018	a1 00 00 00 00	 mov	 eax, DWORD PTR ___security_cookie
  0001d	33 c5		 xor	 eax, ebp
  0001f	50		 push	 eax
  00020	8d 45 f4	 lea	 eax, DWORD PTR __$EHRec$[ebp]
  00023	64 a3 00 00 00
	00		 mov	 DWORD PTR fs:0, eax

; 510  : 	COLORREF crColor = rColorButton.GetColor();

  00029	8b 75 08	 mov	 esi, DWORD PTR _rColorButton$[ebp]

; 511  : 	CColorDialog color(crColor, CC_FULLOPEN);

  0002c	8d 8d 24 ff ff
	ff		 lea	 ecx, DWORD PTR _color$[ebp]
  00032	6a 00		 push	 0
  00034	6a 02		 push	 2
  00036	ff b6 80 00 00
	00		 push	 DWORD PTR [esi+128]
  0003c	e8 00 00 00 00	 call	 ??0CColorDialog@@QAE@KKPAVCWnd@@@Z ; CColorDialog::CColorDialog

; 512  : 	if(color.DoModal() == IDOK) 

  00041	8d 8d 24 ff ff
	ff		 lea	 ecx, DWORD PTR _color$[ebp]
  00047	c7 45 fc 00 00
	00 00		 mov	 DWORD PTR __$EHRec$[ebp+8], 0
  0004e	e8 00 00 00 00	 call	 ?DoModal@CColorDialog@@UAEHXZ ; CColorDialog::DoModal
  00053	83 f8 01	 cmp	 eax, 1
  00056	75 1e		 jne	 SHORT $LN2@OnBtnClr

; 513  : 	{
; 514  : 		rColorButton.SetColor(color.GetColor());				

  00058	8b 45 d8	 mov	 eax, DWORD PTR _color$[ebp+180]
  0005b	8b ce		 mov	 ecx, esi
  0005d	89 45 08	 mov	 DWORD PTR $T2[ebp], eax
  00060	8d 45 08	 lea	 eax, DWORD PTR $T2[ebp]
  00063	50		 push	 eax
  00064	e8 00 00 00 00	 call	 ?SetColor@CColorButton@@QAEXABK@Z ; CColorButton::SetColor
; File C:\Program Files (x86)\Microsoft Visual Studio\2019\Community\VC\Tools\MSVC\14.29.30133\atlmfc\include\afxwin2.inl

; 114  : 	{ ASSERT(::IsWindow(m_hWnd)); ::InvalidateRect(m_hWnd, NULL, bErase); }

  00069	6a 01		 push	 1
  0006b	6a 00		 push	 0
  0006d	ff 76 20	 push	 DWORD PTR [esi+32]
  00070	ff 15 00 00 00
	00		 call	 DWORD PTR __imp__InvalidateRect@12
$LN2@OnBtnClr:
; File C:\Program Files (x86)\Microsoft Visual Studio\2019\Community\VC\Tools\MSVC\14.29.30133\atlmfc\include\afxdlgs.h

; 110  :     virtual ~CCommonDialog() {};

  00076	8d 8d 24 ff ff
	ff		 lea	 ecx, DWORD PTR _color$[ebp]
  0007c	c7 85 24 ff ff
	ff 00 00 00 00	 mov	 DWORD PTR _color$[ebp], OFFSET ??_7CCommonDialog@@6B@
  00086	e8 00 00 00 00	 call	 ??1CDialog@@UAE@XZ	; CDialog::~CDialog
; File D:\git\src\IBK\IBK_DRFN\ProjSrc\SrcDrfn\Chart\STCONFIGUREDLG\TabRunSetup.cpp

; 517  : }

  0008b	8b 4d f4	 mov	 ecx, DWORD PTR __$EHRec$[ebp]
  0008e	64 89 0d 00 00
	00 00		 mov	 DWORD PTR fs:0, ecx
  00095	59		 pop	 ecx
  00096	5e		 pop	 esi
  00097	8b e5		 mov	 esp, ebp
  00099	5d		 pop	 ebp
  0009a	c2 04 00	 ret	 4
_TEXT	ENDS
;	COMDAT text$x
text$x	SEGMENT
__unwindfunclet$?OnBtnClr@CTabRunSetup@@QAEXAAVCColorButton@@@Z$0:
  00000	8d 8d 24 ff ff
	ff		 lea	 ecx, DWORD PTR _color$[ebp]
  00006	e9 00 00 00 00	 jmp	 ??1CColorDialog@@UAE@XZ
  0000b	cc		 int	 3
  0000c	cc		 int	 3
  0000d	cc		 int	 3
  0000e	cc		 int	 3
  0000f	cc		 int	 3
__ehhandler$?OnBtnClr@CTabRunSetup@@QAEXAAVCColorButton@@@Z:
  00010	90		 npad	 1
  00011	90		 npad	 1
  00012	8b 54 24 08	 mov	 edx, DWORD PTR [esp+8]
  00016	8d 42 0c	 lea	 eax, DWORD PTR [edx+12]
  00019	8b 8a 28 ff ff
	ff		 mov	 ecx, DWORD PTR [edx-216]
  0001f	33 c8		 xor	 ecx, eax
  00021	e8 00 00 00 00	 call	 @__security_check_cookie@4
  00026	b8 00 00 00 00	 mov	 eax, OFFSET __ehfuncinfo$?OnBtnClr@CTabRunSetup@@QAEXAAVCColorButton@@@Z
  0002b	e9 00 00 00 00	 jmp	 ___CxxFrameHandler3
text$x	ENDS
?OnBtnClr@CTabRunSetup@@QAEXAAVCColorButton@@@Z ENDP	; CTabRunSetup::OnBtnClr
; Function compile flags: /Ogtp
; File D:\git\src\IBK\IBK_DRFN\ProjSrc\SrcDrfn\Chart\STCONFIGUREDLG\TabRunSetup.cpp
;	COMDAT ?GetMessageMap@CTabRunSetup@@MBEPBUAFX_MSGMAP@@XZ
_TEXT	SEGMENT
?GetMessageMap@CTabRunSetup@@MBEPBUAFX_MSGMAP@@XZ PROC	; CTabRunSetup::GetMessageMap, COMDAT
; _this$ = ecx

; 58   : BEGIN_MESSAGE_MAP(CTabRunSetup, CRscDlg)

  00000	b8 00 00 00 00	 mov	 eax, OFFSET ?messageMap@?1??GetThisMessageMap@CTabRunSetup@@KGPBUAFX_MSGMAP@@XZ@4U3@B
  00005	c3		 ret	 0
?GetMessageMap@CTabRunSetup@@MBEPBUAFX_MSGMAP@@XZ ENDP	; CTabRunSetup::GetMessageMap
_TEXT	ENDS
; Function compile flags: /Ogtp
; File D:\git\src\IBK\IBK_DRFN\ProjSrc\SrcDrfn\Chart\STCONFIGUREDLG\TabRunSetup.cpp
;	COMDAT ?GetThisMessageMap@CTabRunSetup@@KGPBUAFX_MSGMAP@@XZ
_TEXT	SEGMENT
?GetThisMessageMap@CTabRunSetup@@KGPBUAFX_MSGMAP@@XZ PROC ; CTabRunSetup::GetThisMessageMap, COMDAT

; 59   : 	//{{AFX_MSG_MAP(CTabRunSetup)
; 60   : 	ON_WM_CTLCOLOR()
; 61   : 	//}}AFX_MSG_MAP
; 62   : 	ON_BN_CLICKED(IDC_BT_C1, OnBnClickedBtC1)
; 63   : 	ON_BN_CLICKED(IDC_BT_C2, OnBnClickedBtC2)
; 64   : 	ON_BN_CLICKED(IDC_BT_C3, OnBnClickedBtC3)
; 65   : 	ON_BN_CLICKED(IDC_BT_C4, OnBnClickedBtC4)
; 66   : 	ON_BN_CLICKED(IDC_BT_C5, OnBnClickedBtC5)
; 67   : END_MESSAGE_MAP()

  00000	b8 00 00 00 00	 mov	 eax, OFFSET ?messageMap@?1??GetThisMessageMap@CTabRunSetup@@KGPBUAFX_MSGMAP@@XZ@4U3@B
  00005	c3		 ret	 0
?GetThisMessageMap@CTabRunSetup@@KGPBUAFX_MSGMAP@@XZ ENDP ; CTabRunSetup::GetThisMessageMap
_TEXT	ENDS
; Function compile flags: /Ogtp
; File D:\git\src\IBK\IBK_DRFN\ProjSrc\SrcDrfn\Chart\STCONFIGUREDLG\TabRunSetup.cpp
;	COMDAT ?OnBnClickedBtC5@CTabRunSetup@@IAEXXZ
_TEXT	SEGMENT
?OnBnClickedBtC5@CTabRunSetup@@IAEXXZ PROC		; CTabRunSetup::OnBnClickedBtC5, COMDAT
; _this$ = ecx

; 505  : 	OnBtnClr(m_btnC5);

  00000	8d 81 50 09 00
	00		 lea	 eax, DWORD PTR [ecx+2384]
  00006	50		 push	 eax
  00007	e8 00 00 00 00	 call	 ?OnBtnClr@CTabRunSetup@@QAEXAAVCColorButton@@@Z ; CTabRunSetup::OnBtnClr

; 506  : }

  0000c	c3		 ret	 0
?OnBnClickedBtC5@CTabRunSetup@@IAEXXZ ENDP		; CTabRunSetup::OnBnClickedBtC5
_TEXT	ENDS
; Function compile flags: /Ogtp
; File D:\git\src\IBK\IBK_DRFN\ProjSrc\SrcDrfn\Chart\STCONFIGUREDLG\TabRunSetup.cpp
;	COMDAT ?OnBnClickedBtC4@CTabRunSetup@@IAEXXZ
_TEXT	SEGMENT
?OnBnClickedBtC4@CTabRunSetup@@IAEXXZ PROC		; CTabRunSetup::OnBnClickedBtC4, COMDAT
; _this$ = ecx

; 500  : 	OnBtnClr(m_btnC4);

  00000	8d 81 c0 08 00
	00		 lea	 eax, DWORD PTR [ecx+2240]
  00006	50		 push	 eax
  00007	e8 00 00 00 00	 call	 ?OnBtnClr@CTabRunSetup@@QAEXAAVCColorButton@@@Z ; CTabRunSetup::OnBtnClr

; 501  : }

  0000c	c3		 ret	 0
?OnBnClickedBtC4@CTabRunSetup@@IAEXXZ ENDP		; CTabRunSetup::OnBnClickedBtC4
_TEXT	ENDS
; Function compile flags: /Ogtp
; File D:\git\src\IBK\IBK_DRFN\ProjSrc\SrcDrfn\Chart\STCONFIGUREDLG\TabRunSetup.cpp
;	COMDAT ?OnBnClickedBtC3@CTabRunSetup@@IAEXXZ
_TEXT	SEGMENT
?OnBnClickedBtC3@CTabRunSetup@@IAEXXZ PROC		; CTabRunSetup::OnBnClickedBtC3, COMDAT
; _this$ = ecx

; 495  : 	OnBtnClr(m_btnC3);

  00000	8d 81 30 08 00
	00		 lea	 eax, DWORD PTR [ecx+2096]
  00006	50		 push	 eax
  00007	e8 00 00 00 00	 call	 ?OnBtnClr@CTabRunSetup@@QAEXAAVCColorButton@@@Z ; CTabRunSetup::OnBtnClr

; 496  : }

  0000c	c3		 ret	 0
?OnBnClickedBtC3@CTabRunSetup@@IAEXXZ ENDP		; CTabRunSetup::OnBnClickedBtC3
_TEXT	ENDS
; Function compile flags: /Ogtp
; File D:\git\src\IBK\IBK_DRFN\ProjSrc\SrcDrfn\Chart\STCONFIGUREDLG\TabRunSetup.cpp
;	COMDAT ?OnBnClickedBtC2@CTabRunSetup@@IAEXXZ
_TEXT	SEGMENT
?OnBnClickedBtC2@CTabRunSetup@@IAEXXZ PROC		; CTabRunSetup::OnBnClickedBtC2, COMDAT
; _this$ = ecx

; 490  : 	OnBtnClr(m_btnC2);

  00000	8d 81 a0 07 00
	00		 lea	 eax, DWORD PTR [ecx+1952]
  00006	50		 push	 eax
  00007	e8 00 00 00 00	 call	 ?OnBtnClr@CTabRunSetup@@QAEXAAVCColorButton@@@Z ; CTabRunSetup::OnBtnClr

; 491  : }

  0000c	c3		 ret	 0
?OnBnClickedBtC2@CTabRunSetup@@IAEXXZ ENDP		; CTabRunSetup::OnBnClickedBtC2
_TEXT	ENDS
; Function compile flags: /Ogtp
; File D:\git\src\IBK\IBK_DRFN\ProjSrc\SrcDrfn\Chart\STCONFIGUREDLG\TabRunSetup.cpp
;	COMDAT ?OnBnClickedBtC1@CTabRunSetup@@IAEXXZ
_TEXT	SEGMENT
?OnBnClickedBtC1@CTabRunSetup@@IAEXXZ PROC		; CTabRunSetup::OnBnClickedBtC1, COMDAT
; _this$ = ecx

; 485  : 	OnBtnClr(m_btnC1);

  00000	8d 81 10 07 00
	00		 lea	 eax, DWORD PTR [ecx+1808]
  00006	50		 push	 eax
  00007	e8 00 00 00 00	 call	 ?OnBtnClr@CTabRunSetup@@QAEXAAVCColorButton@@@Z ; CTabRunSetup::OnBtnClr

; 486  : }

  0000c	c3		 ret	 0
?OnBnClickedBtC1@CTabRunSetup@@IAEXXZ ENDP		; CTabRunSetup::OnBnClickedBtC1
_TEXT	ENDS
; Function compile flags: /Ogtp
; File D:\git\src\IBK\IBK_DRFN\ProjSrc\SrcDrfn\Chart\STCONFIGUREDLG\TabRunSetup.cpp
; File C:\Program Files (x86)\Microsoft Visual Studio\2019\Community\VC\Tools\MSVC\14.29.30133\atlmfc\include\afxwin1.inl
; File D:\git\src\IBK\IBK_DRFN\ProjSrc\SrcDrfn\Chart\STCONFIGUREDLG\TabRunSetup.cpp
; File C:\Program Files (x86)\Microsoft Visual Studio\2019\Community\VC\Tools\MSVC\14.29.30133\atlmfc\include\afxwin1.inl
; File D:\git\src\IBK\IBK_DRFN\ProjSrc\SrcDrfn\Chart\STCONFIGUREDLG\TabRunSetup.cpp
;	COMDAT ?OnCtlColor@CTabRunSetup@@IAEPAUHBRUSH__@@PAVCDC@@PAVCWnd@@I@Z
_TEXT	SEGMENT
_pDC$ = 8						; size = 4
_pWnd$ = 12						; size = 4
_nCtlColor$ = 16					; size = 4
?OnCtlColor@CTabRunSetup@@IAEPAUHBRUSH__@@PAVCDC@@PAVCWnd@@I@Z PROC ; CTabRunSetup::OnCtlColor, COMDAT
; _this$ = ecx

; 410  : {

  00000	55		 push	 ebp
  00001	8b ec		 mov	 ebp, esp
  00003	53		 push	 ebx

; 411  : 	HBRUSH hbr = CRscDlg::OnCtlColor(pDC, pWnd, nCtlColor);

  00004	8b 5d 08	 mov	 ebx, DWORD PTR _pDC$[ebp]
  00007	56		 push	 esi
  00008	8b 75 10	 mov	 esi, DWORD PTR _nCtlColor$[ebp]
  0000b	57		 push	 edi
  0000c	56		 push	 esi
  0000d	ff 75 0c	 push	 DWORD PTR _pWnd$[ebp]
  00010	8b f9		 mov	 edi, ecx
  00012	53		 push	 ebx
  00013	e8 00 00 00 00	 call	 ?OnCtlColor@CWnd@@IAEPAUHBRUSH__@@PAVCDC@@PAV1@I@Z ; CWnd::OnCtlColor

; 412  : 	
; 413  : 	// TODO: Change any attributes of the DC here
; 414  : 	switch(nCtlColor) 

  00018	83 ee 01	 sub	 esi, 1
  0001b	74 26		 je	 SHORT $LN1@OnCtlColor
  0001d	83 ee 01	 sub	 esi, 1
  00020	74 21		 je	 SHORT $LN1@OnCtlColor

; 415  : 	{
; 416  : 	case CTLCOLOR_EDIT:
; 417  : 	case CTLCOLOR_LISTBOX:
; 418  : 		return hbr;
; 419  : 		break;
; 420  : 	default:
; 421  : 		pDC->SetBkColor(m_crBk);

  00022	8b 03		 mov	 eax, DWORD PTR [ebx]
  00024	8b cb		 mov	 ecx, ebx
  00026	ff b7 68 0a 00
	00		 push	 DWORD PTR [edi+2664]
  0002c	ff 50 34	 call	 DWORD PTR [eax+52]

; 422  : 		return *m_pBrBkColor;		

  0002f	8b 87 6c 0a 00
	00		 mov	 eax, DWORD PTR [edi+2668]
; File C:\Program Files (x86)\Microsoft Visual Studio\2019\Community\VC\Tools\MSVC\14.29.30133\atlmfc\include\afxwin1.inl

; 124  : 	{ return (HBRUSH)(this == NULL ? NULL : m_hObject); }

  00035	85 c0		 test	 eax, eax
  00037	75 07		 jne	 SHORT $LN10@OnCtlColor
; File D:\git\src\IBK\IBK_DRFN\ProjSrc\SrcDrfn\Chart\STCONFIGUREDLG\TabRunSetup.cpp

; 428  : }

  00039	5f		 pop	 edi
  0003a	5e		 pop	 esi
  0003b	5b		 pop	 ebx
  0003c	5d		 pop	 ebp
  0003d	c2 0c 00	 ret	 12			; 0000000cH
$LN10@OnCtlColor:
; File C:\Program Files (x86)\Microsoft Visual Studio\2019\Community\VC\Tools\MSVC\14.29.30133\atlmfc\include\afxwin1.inl

; 124  : 	{ return (HBRUSH)(this == NULL ? NULL : m_hObject); }

  00040	8b 40 04	 mov	 eax, DWORD PTR [eax+4]
$LN1@OnCtlColor:
  00043	5f		 pop	 edi
; File D:\git\src\IBK\IBK_DRFN\ProjSrc\SrcDrfn\Chart\STCONFIGUREDLG\TabRunSetup.cpp

; 428  : }

  00044	5e		 pop	 esi
  00045	5b		 pop	 ebx
  00046	5d		 pop	 ebp
  00047	c2 0c 00	 ret	 12			; 0000000cH
?OnCtlColor@CTabRunSetup@@IAEPAUHBRUSH__@@PAVCDC@@PAVCWnd@@I@Z ENDP ; CTabRunSetup::OnCtlColor
_TEXT	ENDS
; Function compile flags: /Ogtp
; File D:\git\src\IBK\IBK_DRFN\ProjSrc\SrcDrfn\Chart\STCONFIGUREDLG\TabRunSetup.cpp
; File C:\Program Files (x86)\Microsoft Visual Studio\2019\Community\VC\Tools\MSVC\14.29.30133\atlmfc\include\afxwin2.inl
; File D:\git\src\IBK\IBK_DRFN\ProjSrc\SrcDrfn\Chart\STCONFIGUREDLG\TabRunSetup.cpp
; File C:\Program Files (x86)\Microsoft Visual Studio\2019\Community\VC\Tools\MSVC\14.29.30133\atlmfc\include\afxwin2.inl
; File D:\git\src\IBK\IBK_DRFN\ProjSrc\SrcDrfn\Chart\STCONFIGUREDLG\TabRunSetup.cpp
;	COMDAT ?OnInitDialog@CTabRunSetup@@MAEHXZ
_TEXT	SEGMENT
?OnInitDialog@CTabRunSetup@@MAEHXZ PROC			; CTabRunSetup::OnInitDialog, COMDAT
; _this$ = ecx

; 73   : {

  00000	56		 push	 esi
  00001	57		 push	 edi
  00002	8b f9		 mov	 edi, ecx

; 74   : 	CRscDlg::OnInitDialog();

  00004	e8 00 00 00 00	 call	 ?OnInitDialog@CDialog@@UAEHXZ ; CDialog::OnInitDialog
; File C:\Program Files (x86)\Microsoft Visual Studio\2019\Community\VC\Tools\MSVC\14.29.30133\atlmfc\include\afxwin2.inl

; 795  : 	{ ASSERT(::IsWindow(m_hWnd)); return (int)::SendMessage(m_hWnd, CB_ADDSTRING, 0, (LPARAM)lpszString); }

  00009	8b 35 00 00 00
	00		 mov	 esi, DWORD PTR __imp__SendMessageA@16
  0000f	68 00 00 00 00	 push	 OFFSET ??_C@_01FGNFDNOH@?$CF@
  00014	6a 00		 push	 0
  00016	68 43 01 00 00	 push	 323			; 00000143H
  0001b	ff b7 d0 00 00
	00		 push	 DWORD PTR [edi+208]
  00021	ff d6		 call	 esi
  00023	68 00 00 00 00	 push	 OFFSET ??_C@_05BGOFFEGG@Point@
  00028	6a 00		 push	 0
  0002a	68 43 01 00 00	 push	 323			; 00000143H
  0002f	ff b7 d0 00 00
	00		 push	 DWORD PTR [edi+208]
  00035	ff d6		 call	 esi

; 763  : 	{ ASSERT(::IsWindow(m_hWnd)); return (int)::SendMessage(m_hWnd, CB_GETCOUNT, 0, 0); }

  00037	6a 00		 push	 0
  00039	6a 00		 push	 0
  0003b	68 46 01 00 00	 push	 326			; 00000146H
  00040	ff b7 d0 00 00
	00		 push	 DWORD PTR [edi+208]
  00046	ff d6		 call	 esi

; 795  : 	{ ASSERT(::IsWindow(m_hWnd)); return (int)::SendMessage(m_hWnd, CB_ADDSTRING, 0, (LPARAM)lpszString); }

  00048	68 00 00 00 00	 push	 OFFSET ??_C@_01FGNFDNOH@?$CF@
  0004d	6a 00		 push	 0
  0004f	68 43 01 00 00	 push	 323			; 00000143H
  00054	ff b7 58 01 00
	00		 push	 DWORD PTR [edi+344]
  0005a	ff d6		 call	 esi
  0005c	68 00 00 00 00	 push	 OFFSET ??_C@_05BGOFFEGG@Point@
  00061	6a 00		 push	 0
  00063	68 43 01 00 00	 push	 323			; 00000143H
  00068	ff b7 58 01 00
	00		 push	 DWORD PTR [edi+344]
  0006e	ff d6		 call	 esi

; 763  : 	{ ASSERT(::IsWindow(m_hWnd)); return (int)::SendMessage(m_hWnd, CB_GETCOUNT, 0, 0); }

  00070	6a 00		 push	 0
  00072	6a 00		 push	 0
  00074	68 46 01 00 00	 push	 326			; 00000146H
  00079	ff b7 58 01 00
	00		 push	 DWORD PTR [edi+344]
  0007f	ff d6		 call	 esi

; 795  : 	{ ASSERT(::IsWindow(m_hWnd)); return (int)::SendMessage(m_hWnd, CB_ADDSTRING, 0, (LPARAM)lpszString); }

  00081	68 00 00 00 00	 push	 OFFSET ??_C@_01FGNFDNOH@?$CF@
  00086	6a 00		 push	 0
  00088	68 43 01 00 00	 push	 323			; 00000143H
  0008d	ff b7 e0 01 00
	00		 push	 DWORD PTR [edi+480]
  00093	ff d6		 call	 esi
  00095	68 00 00 00 00	 push	 OFFSET ??_C@_05BGOFFEGG@Point@
  0009a	6a 00		 push	 0
  0009c	68 43 01 00 00	 push	 323			; 00000143H
  000a1	ff b7 e0 01 00
	00		 push	 DWORD PTR [edi+480]
  000a7	ff d6		 call	 esi

; 763  : 	{ ASSERT(::IsWindow(m_hWnd)); return (int)::SendMessage(m_hWnd, CB_GETCOUNT, 0, 0); }

  000a9	6a 00		 push	 0
  000ab	6a 00		 push	 0
  000ad	68 46 01 00 00	 push	 326			; 00000146H
  000b2	ff b7 e0 01 00
	00		 push	 DWORD PTR [edi+480]
  000b8	ff d6		 call	 esi

; 795  : 	{ ASSERT(::IsWindow(m_hWnd)); return (int)::SendMessage(m_hWnd, CB_ADDSTRING, 0, (LPARAM)lpszString); }

  000ba	68 00 00 00 00	 push	 OFFSET ??_C@_01FGNFDNOH@?$CF@
  000bf	6a 00		 push	 0
  000c1	68 43 01 00 00	 push	 323			; 00000143H
  000c6	ff b7 68 02 00
	00		 push	 DWORD PTR [edi+616]
  000cc	ff d6		 call	 esi
  000ce	68 00 00 00 00	 push	 OFFSET ??_C@_05BGOFFEGG@Point@
  000d3	6a 00		 push	 0
  000d5	68 43 01 00 00	 push	 323			; 00000143H
  000da	ff b7 68 02 00
	00		 push	 DWORD PTR [edi+616]
  000e0	ff d6		 call	 esi

; 763  : 	{ ASSERT(::IsWindow(m_hWnd)); return (int)::SendMessage(m_hWnd, CB_GETCOUNT, 0, 0); }

  000e2	6a 00		 push	 0
  000e4	6a 00		 push	 0
  000e6	68 46 01 00 00	 push	 326			; 00000146H
  000eb	ff b7 68 02 00
	00		 push	 DWORD PTR [edi+616]
  000f1	ff d6		 call	 esi

; 795  : 	{ ASSERT(::IsWindow(m_hWnd)); return (int)::SendMessage(m_hWnd, CB_ADDSTRING, 0, (LPARAM)lpszString); }

  000f3	68 00 00 00 00	 push	 OFFSET ??_C@_01FGNFDNOH@?$CF@
  000f8	6a 00		 push	 0
  000fa	68 43 01 00 00	 push	 323			; 00000143H
  000ff	ff b7 f0 02 00
	00		 push	 DWORD PTR [edi+752]
  00105	ff d6		 call	 esi
  00107	68 00 00 00 00	 push	 OFFSET ??_C@_05BGOFFEGG@Point@
  0010c	6a 00		 push	 0
  0010e	68 43 01 00 00	 push	 323			; 00000143H
  00113	ff b7 f0 02 00
	00		 push	 DWORD PTR [edi+752]
  00119	ff d6		 call	 esi

; 763  : 	{ ASSERT(::IsWindow(m_hWnd)); return (int)::SendMessage(m_hWnd, CB_GETCOUNT, 0, 0); }

  0011b	6a 00		 push	 0
  0011d	6a 00		 push	 0
  0011f	68 46 01 00 00	 push	 326			; 00000146H
  00124	ff b7 f0 02 00
	00		 push	 DWORD PTR [edi+752]
  0012a	ff d6		 call	 esi

; 795  : 	{ ASSERT(::IsWindow(m_hWnd)); return (int)::SendMessage(m_hWnd, CB_ADDSTRING, 0, (LPARAM)lpszString); }

  0012c	68 00 00 00 00	 push	 OFFSET ??_C@_01FGNFDNOH@?$CF@
  00131	6a 00		 push	 0
  00133	68 43 01 00 00	 push	 323			; 00000143H
  00138	ff b7 78 03 00
	00		 push	 DWORD PTR [edi+888]
  0013e	ff d6		 call	 esi
  00140	68 00 00 00 00	 push	 OFFSET ??_C@_05BGOFFEGG@Point@
  00145	6a 00		 push	 0
  00147	68 43 01 00 00	 push	 323			; 00000143H
  0014c	ff b7 78 03 00
	00		 push	 DWORD PTR [edi+888]
  00152	ff d6		 call	 esi

; 763  : 	{ ASSERT(::IsWindow(m_hWnd)); return (int)::SendMessage(m_hWnd, CB_GETCOUNT, 0, 0); }

  00154	6a 00		 push	 0
  00156	6a 00		 push	 0
  00158	68 46 01 00 00	 push	 326			; 00000146H
  0015d	ff b7 78 03 00
	00		 push	 DWORD PTR [edi+888]
  00163	ff d6		 call	 esi

; 795  : 	{ ASSERT(::IsWindow(m_hWnd)); return (int)::SendMessage(m_hWnd, CB_ADDSTRING, 0, (LPARAM)lpszString); }

  00165	68 00 00 00 00	 push	 OFFSET ??_C@_01FGNFDNOH@?$CF@
  0016a	6a 00		 push	 0
  0016c	68 43 01 00 00	 push	 323			; 00000143H
  00171	ff b7 00 04 00
	00		 push	 DWORD PTR [edi+1024]
  00177	ff d6		 call	 esi
  00179	68 00 00 00 00	 push	 OFFSET ??_C@_05BGOFFEGG@Point@
  0017e	6a 00		 push	 0
  00180	68 43 01 00 00	 push	 323			; 00000143H
  00185	ff b7 00 04 00
	00		 push	 DWORD PTR [edi+1024]
  0018b	ff d6		 call	 esi

; 763  : 	{ ASSERT(::IsWindow(m_hWnd)); return (int)::SendMessage(m_hWnd, CB_GETCOUNT, 0, 0); }

  0018d	6a 00		 push	 0
  0018f	6a 00		 push	 0
  00191	68 46 01 00 00	 push	 326			; 00000146H
  00196	ff b7 00 04 00
	00		 push	 DWORD PTR [edi+1024]
  0019c	ff d6		 call	 esi
; File D:\git\src\IBK\IBK_DRFN\ProjSrc\SrcDrfn\Chart\STCONFIGUREDLG\TabRunSetup.cpp

; 84   : 	CConfigHelper::cmStar(&m_cbS1);

  0019e	8d 87 68 04 00
	00		 lea	 eax, DWORD PTR [edi+1128]
  001a4	50		 push	 eax
  001a5	e8 00 00 00 00	 call	 ?cmStar@CConfigHelper@@SAHPAVCComboBox@@@Z ; CConfigHelper::cmStar

; 85   : 	CConfigHelper::cmStar(&m_cbS2);

  001aa	8d 87 f0 04 00
	00		 lea	 eax, DWORD PTR [edi+1264]
  001b0	50		 push	 eax
  001b1	e8 00 00 00 00	 call	 ?cmStar@CConfigHelper@@SAHPAVCComboBox@@@Z ; CConfigHelper::cmStar

; 86   : 	CConfigHelper::cmStar(&m_cbS3);

  001b6	8d 87 78 05 00
	00		 lea	 eax, DWORD PTR [edi+1400]
  001bc	50		 push	 eax
  001bd	e8 00 00 00 00	 call	 ?cmStar@CConfigHelper@@SAHPAVCComboBox@@@Z ; CConfigHelper::cmStar

; 87   : 	CConfigHelper::cmStar(&m_cbS4);

  001c2	8d 87 00 06 00
	00		 lea	 eax, DWORD PTR [edi+1536]
  001c8	50		 push	 eax
  001c9	e8 00 00 00 00	 call	 ?cmStar@CConfigHelper@@SAHPAVCComboBox@@@Z ; CConfigHelper::cmStar

; 88   : 	CConfigHelper::cmStar(&m_cbS5);

  001ce	8d 87 88 06 00
	00		 lea	 eax, DWORD PTR [edi+1672]
  001d4	50		 push	 eax
  001d5	e8 00 00 00 00	 call	 ?cmStar@CConfigHelper@@SAHPAVCComboBox@@@Z ; CConfigHelper::cmStar
  001da	83 c4 14	 add	 esp, 20			; 00000014H
; File C:\Program Files (x86)\Microsoft Visual Studio\2019\Community\VC\Tools\MSVC\14.29.30133\atlmfc\include\afxwin2.inl

; 795  : 	{ ASSERT(::IsWindow(m_hWnd)); return (int)::SendMessage(m_hWnd, CB_ADDSTRING, 0, (LPARAM)lpszString); }

  001dd	68 00 00 00 00	 push	 OFFSET ??_C@_04PEKBEBNA@?$LP?$MA?$MA?$PM@
  001e2	6a 00		 push	 0
  001e4	68 43 01 00 00	 push	 323			; 00000143H
  001e9	ff b7 00 0a 00
	00		 push	 DWORD PTR [edi+2560]
  001ef	ff d6		 call	 esi
  001f1	68 00 00 00 00	 push	 OFFSET ??_C@_04ONCNKMJD@?$LP?$MA?H?D@
  001f6	6a 00		 push	 0
  001f8	68 43 01 00 00	 push	 323			; 00000143H
  001fd	ff b7 00 0a 00
	00		 push	 DWORD PTR [edi+2560]
  00203	ff d6		 call	 esi

; 763  : 	{ ASSERT(::IsWindow(m_hWnd)); return (int)::SendMessage(m_hWnd, CB_GETCOUNT, 0, 0); }

  00205	6a 00		 push	 0
  00207	6a 00		 push	 0
  00209	68 46 01 00 00	 push	 326			; 00000146H
  0020e	ff b7 00 0a 00
	00		 push	 DWORD PTR [edi+2560]
  00214	ff d6		 call	 esi
; File D:\git\src\IBK\IBK_DRFN\ProjSrc\SrcDrfn\Chart\STCONFIGUREDLG\TabRunSetup.cpp

; 92   : 	LoadInfo();

  00216	8b 07		 mov	 eax, DWORD PTR [edi]
  00218	8b cf		 mov	 ecx, edi
  0021a	c7 87 f8 0a 00
	00 01 00 00 00	 mov	 DWORD PTR [edi+2808], 1
  00224	ff 90 94 01 00
	00		 call	 DWORD PTR [eax+404]

; 93   : 	return TRUE;  // return TRUE unless you set the focus to a control

  0022a	5f		 pop	 edi
  0022b	b8 01 00 00 00	 mov	 eax, 1
  00230	5e		 pop	 esi

; 94   : 	              // EXCEPTION: OCX Property Pages should return FALSE
; 95   : }

  00231	c3		 ret	 0
?OnInitDialog@CTabRunSetup@@MAEHXZ ENDP			; CTabRunSetup::OnInitDialog
_TEXT	ENDS
; Function compile flags: /Ogtp
; File D:\git\src\IBK\IBK_DRFN\ProjSrc\SrcDrfn\Chart\STCONFIGUREDLG\TabRunSetup.cpp
; File C:\Program Files (x86)\Microsoft Visual Studio\2019\Community\VC\Tools\MSVC\14.29.30133\atlmfc\include\afxwin2.inl
; File D:\git\src\IBK\IBK_DRFN\ProjSrc\SrcDrfn\Chart\STCONFIGUREDLG\TabRunSetup.cpp
; File C:\Program Files (x86)\Microsoft Visual Studio\2019\Community\VC\Tools\MSVC\14.29.30133\atlmfc\include\afxwin2.inl
; File D:\git\src\IBK\IBK_DRFN\ProjSrc\SrcDrfn\Chart\STCONFIGUREDLG\TabRunSetup.cpp
; File C:\Program Files (x86)\Microsoft Visual Studio\2019\Community\VC\Tools\MSVC\14.29.30133\atlmfc\include\afxwin2.inl
; File D:\git\src\IBK\IBK_DRFN\ProjSrc\SrcDrfn\Chart\STCONFIGUREDLG\TabRunSetup.cpp
; File C:\Program Files (x86)\Microsoft Visual Studio\2019\Community\VC\Tools\MSVC\14.29.30133\atlmfc\include\afxwin2.inl
; File D:\git\src\IBK\IBK_DRFN\ProjSrc\SrcDrfn\Chart\STCONFIGUREDLG\TabRunSetup.cpp
; File C:\Program Files (x86)\Microsoft Visual Studio\2019\Community\VC\Tools\MSVC\14.29.30133\atlmfc\include\afxwin2.inl
; File D:\git\src\IBK\IBK_DRFN\ProjSrc\SrcDrfn\Chart\STCONFIGUREDLG\TabRunSetup.cpp
; File C:\Program Files (x86)\Microsoft Visual Studio\2019\Community\VC\Tools\MSVC\14.29.30133\atlmfc\include\afxwin2.inl
; File D:\git\src\IBK\IBK_DRFN\ProjSrc\SrcDrfn\Chart\STCONFIGUREDLG\TabRunSetup.cpp
; File C:\Program Files (x86)\Microsoft Visual Studio\2019\Community\VC\Tools\MSVC\14.29.30133\atlmfc\include\afxwin2.inl
; File D:\git\src\IBK\IBK_DRFN\ProjSrc\SrcDrfn\Chart\STCONFIGUREDLG\TabRunSetup.cpp
; File C:\Program Files (x86)\Microsoft Visual Studio\2019\Community\VC\Tools\MSVC\14.29.30133\atlmfc\include\afxwin2.inl
; File D:\git\src\IBK\IBK_DRFN\ProjSrc\SrcDrfn\Chart\STCONFIGUREDLG\TabRunSetup.cpp
;	COMDAT ?SetDefault@CTabRunSetup@@UAEXXZ
_TEXT	SEGMENT
$T1 = -4						; size = 4
$T2 = -4						; size = 4
$T3 = -4						; size = 4
$T4 = -4						; size = 4
$T5 = -4						; size = 4
?SetDefault@CTabRunSetup@@UAEXXZ PROC			; CTabRunSetup::SetDefault, COMDAT
; _this$ = ecx

; 431  : {

  00000	55		 push	 ebp
  00001	8b ec		 mov	 ebp, esp
  00003	51		 push	 ecx
  00004	56		 push	 esi
  00005	57		 push	 edi

; 432  : 	CheckRadioButton(IDC_SELLINFO_OPT1, IDC_SELLINFO_OPT2, IDC_SELLINFO_OPT1+0);

  00006	68 5e 71 00 00	 push	 29022			; 0000715eH
  0000b	68 5f 71 00 00	 push	 29023			; 0000715fH
  00010	68 5e 71 00 00	 push	 29022			; 0000715eH
  00015	8b f9		 mov	 edi, ecx
  00017	e8 00 00 00 00	 call	 ?CheckRadioButton@CWnd@@QAEXHHH@Z ; CWnd::CheckRadioButton

; 433  : 	CheckDlgButton(IDC_CHK1, 0);

  0001c	6a 00		 push	 0
  0001e	68 60 71 00 00	 push	 29024			; 00007160H
  00023	8b cf		 mov	 ecx, edi
  00025	e8 00 00 00 00	 call	 ?CheckDlgButton@CWnd@@QAEXHI@Z ; CWnd::CheckDlgButton

; 434  : 	SetDlgItemText(IDC_ED_1, "");

  0002a	68 00 00 00 00	 push	 OFFSET ??_C@_00CNPNBAHC@@
  0002f	68 09 52 00 00	 push	 21001			; 00005209H
  00034	8b cf		 mov	 ecx, edi
  00036	e8 00 00 00 00	 call	 ?SetDlgItemTextA@CWnd@@QAEXHPBD@Z ; CWnd::SetDlgItemTextA
; File C:\Program Files (x86)\Microsoft Visual Studio\2019\Community\VC\Tools\MSVC\14.29.30133\atlmfc\include\afxwin2.inl

; 767  : 	{ ASSERT(::IsWindow(m_hWnd)); return (int)::SendMessage(m_hWnd, CB_SETCURSEL, nSelect, 0); }

  0003b	8b 35 00 00 00
	00		 mov	 esi, DWORD PTR __imp__SendMessageA@16
  00041	6a 00		 push	 0
  00043	6a 00		 push	 0
  00045	68 4e 01 00 00	 push	 334			; 0000014eH
  0004a	ff b7 d0 00 00
	00		 push	 DWORD PTR [edi+208]
  00050	ff d6		 call	 esi
  00052	6a 00		 push	 0
  00054	6a 00		 push	 0
  00056	68 4e 01 00 00	 push	 334			; 0000014eH
  0005b	ff b7 88 04 00
	00		 push	 DWORD PTR [edi+1160]
  00061	ff d6		 call	 esi
; File D:\git\src\IBK\IBK_DRFN\ProjSrc\SrcDrfn\Chart\STCONFIGUREDLG\TabRunSetup.cpp

; 437  : 	m_btnC1.SetColor(255);

  00063	8d 45 fc	 lea	 eax, DWORD PTR $T5[ebp]
  00066	c7 45 fc ff 00
	00 00		 mov	 DWORD PTR $T5[ebp], 255	; 000000ffH
  0006d	50		 push	 eax
  0006e	8d 8f 10 07 00
	00		 lea	 ecx, DWORD PTR [edi+1808]
  00074	e8 00 00 00 00	 call	 ?SetColor@CColorButton@@QAEXABK@Z ; CColorButton::SetColor

; 438  : 
; 439  : 	CheckDlgButton(IDC_CHK2, 0);

  00079	6a 00		 push	 0
  0007b	68 61 71 00 00	 push	 29025			; 00007161H
  00080	8b cf		 mov	 ecx, edi
  00082	e8 00 00 00 00	 call	 ?CheckDlgButton@CWnd@@QAEXHI@Z ; CWnd::CheckDlgButton

; 440  : 	SetDlgItemText(IDC_ED_2, "");

  00087	68 00 00 00 00	 push	 OFFSET ??_C@_00CNPNBAHC@@
  0008c	68 0a 52 00 00	 push	 21002			; 0000520aH
  00091	8b cf		 mov	 ecx, edi
  00093	e8 00 00 00 00	 call	 ?SetDlgItemTextA@CWnd@@QAEXHPBD@Z ; CWnd::SetDlgItemTextA
; File C:\Program Files (x86)\Microsoft Visual Studio\2019\Community\VC\Tools\MSVC\14.29.30133\atlmfc\include\afxwin2.inl

; 767  : 	{ ASSERT(::IsWindow(m_hWnd)); return (int)::SendMessage(m_hWnd, CB_SETCURSEL, nSelect, 0); }

  00098	6a 00		 push	 0
  0009a	6a 00		 push	 0
  0009c	68 4e 01 00 00	 push	 334			; 0000014eH
  000a1	ff b7 58 01 00
	00		 push	 DWORD PTR [edi+344]
  000a7	ff d6		 call	 esi
  000a9	6a 00		 push	 0
  000ab	6a 00		 push	 0
  000ad	68 4e 01 00 00	 push	 334			; 0000014eH
  000b2	ff b7 10 05 00
	00		 push	 DWORD PTR [edi+1296]
  000b8	ff d6		 call	 esi
; File D:\git\src\IBK\IBK_DRFN\ProjSrc\SrcDrfn\Chart\STCONFIGUREDLG\TabRunSetup.cpp

; 443  : 	m_btnC2.SetColor(255);

  000ba	8d 45 fc	 lea	 eax, DWORD PTR $T4[ebp]
  000bd	c7 45 fc ff 00
	00 00		 mov	 DWORD PTR $T4[ebp], 255	; 000000ffH
  000c4	50		 push	 eax
  000c5	8d 8f a0 07 00
	00		 lea	 ecx, DWORD PTR [edi+1952]
  000cb	e8 00 00 00 00	 call	 ?SetColor@CColorButton@@QAEXABK@Z ; CColorButton::SetColor

; 444  : 
; 445  : 	CheckDlgButton(IDC_CHK3, 0);

  000d0	6a 00		 push	 0
  000d2	68 62 71 00 00	 push	 29026			; 00007162H
  000d7	8b cf		 mov	 ecx, edi
  000d9	e8 00 00 00 00	 call	 ?CheckDlgButton@CWnd@@QAEXHI@Z ; CWnd::CheckDlgButton

; 446  : 	SetDlgItemText(IDC_ED_3, "");

  000de	68 00 00 00 00	 push	 OFFSET ??_C@_00CNPNBAHC@@
  000e3	68 0b 52 00 00	 push	 21003			; 0000520bH
  000e8	8b cf		 mov	 ecx, edi
  000ea	e8 00 00 00 00	 call	 ?SetDlgItemTextA@CWnd@@QAEXHPBD@Z ; CWnd::SetDlgItemTextA
; File C:\Program Files (x86)\Microsoft Visual Studio\2019\Community\VC\Tools\MSVC\14.29.30133\atlmfc\include\afxwin2.inl

; 767  : 	{ ASSERT(::IsWindow(m_hWnd)); return (int)::SendMessage(m_hWnd, CB_SETCURSEL, nSelect, 0); }

  000ef	6a 00		 push	 0
  000f1	6a 00		 push	 0
  000f3	68 4e 01 00 00	 push	 334			; 0000014eH
  000f8	ff b7 e0 01 00
	00		 push	 DWORD PTR [edi+480]
  000fe	ff d6		 call	 esi
  00100	6a 00		 push	 0
  00102	6a 00		 push	 0
  00104	68 4e 01 00 00	 push	 334			; 0000014eH
  00109	ff b7 98 05 00
	00		 push	 DWORD PTR [edi+1432]
  0010f	ff d6		 call	 esi
; File D:\git\src\IBK\IBK_DRFN\ProjSrc\SrcDrfn\Chart\STCONFIGUREDLG\TabRunSetup.cpp

; 449  : 	m_btnC3.SetColor(255);

  00111	8d 45 fc	 lea	 eax, DWORD PTR $T3[ebp]
  00114	c7 45 fc ff 00
	00 00		 mov	 DWORD PTR $T3[ebp], 255	; 000000ffH
  0011b	50		 push	 eax
  0011c	8d 8f 30 08 00
	00		 lea	 ecx, DWORD PTR [edi+2096]
  00122	e8 00 00 00 00	 call	 ?SetColor@CColorButton@@QAEXABK@Z ; CColorButton::SetColor

; 450  : 
; 451  : 	CheckDlgButton(IDC_CHK4, 0);

  00127	6a 00		 push	 0
  00129	68 63 71 00 00	 push	 29027			; 00007163H
  0012e	8b cf		 mov	 ecx, edi
  00130	e8 00 00 00 00	 call	 ?CheckDlgButton@CWnd@@QAEXHI@Z ; CWnd::CheckDlgButton

; 452  : 	SetDlgItemText(IDC_ED_4, "");

  00135	68 00 00 00 00	 push	 OFFSET ??_C@_00CNPNBAHC@@
  0013a	68 0c 52 00 00	 push	 21004			; 0000520cH
  0013f	8b cf		 mov	 ecx, edi
  00141	e8 00 00 00 00	 call	 ?SetDlgItemTextA@CWnd@@QAEXHPBD@Z ; CWnd::SetDlgItemTextA
; File C:\Program Files (x86)\Microsoft Visual Studio\2019\Community\VC\Tools\MSVC\14.29.30133\atlmfc\include\afxwin2.inl

; 767  : 	{ ASSERT(::IsWindow(m_hWnd)); return (int)::SendMessage(m_hWnd, CB_SETCURSEL, nSelect, 0); }

  00146	6a 00		 push	 0
  00148	6a 00		 push	 0
  0014a	68 4e 01 00 00	 push	 334			; 0000014eH
  0014f	ff b7 68 02 00
	00		 push	 DWORD PTR [edi+616]
  00155	ff d6		 call	 esi
  00157	6a 00		 push	 0
  00159	6a 00		 push	 0
  0015b	68 4e 01 00 00	 push	 334			; 0000014eH
  00160	ff b7 20 06 00
	00		 push	 DWORD PTR [edi+1568]
  00166	ff d6		 call	 esi
; File D:\git\src\IBK\IBK_DRFN\ProjSrc\SrcDrfn\Chart\STCONFIGUREDLG\TabRunSetup.cpp

; 455  : 	m_btnC4.SetColor(255);

  00168	8d 45 fc	 lea	 eax, DWORD PTR $T2[ebp]
  0016b	c7 45 fc ff 00
	00 00		 mov	 DWORD PTR $T2[ebp], 255	; 000000ffH
  00172	50		 push	 eax
  00173	8d 8f c0 08 00
	00		 lea	 ecx, DWORD PTR [edi+2240]
  00179	e8 00 00 00 00	 call	 ?SetColor@CColorButton@@QAEXABK@Z ; CColorButton::SetColor

; 456  : 	
; 457  : 	CheckDlgButton(IDC_CHK5, 0);

  0017e	6a 00		 push	 0
  00180	68 64 71 00 00	 push	 29028			; 00007164H
  00185	8b cf		 mov	 ecx, edi
  00187	e8 00 00 00 00	 call	 ?CheckDlgButton@CWnd@@QAEXHI@Z ; CWnd::CheckDlgButton

; 458  : 	SetDlgItemText(IDC_ED_5, "");

  0018c	68 00 00 00 00	 push	 OFFSET ??_C@_00CNPNBAHC@@
  00191	68 0d 52 00 00	 push	 21005			; 0000520dH
  00196	8b cf		 mov	 ecx, edi
  00198	e8 00 00 00 00	 call	 ?SetDlgItemTextA@CWnd@@QAEXHPBD@Z ; CWnd::SetDlgItemTextA
; File C:\Program Files (x86)\Microsoft Visual Studio\2019\Community\VC\Tools\MSVC\14.29.30133\atlmfc\include\afxwin2.inl

; 767  : 	{ ASSERT(::IsWindow(m_hWnd)); return (int)::SendMessage(m_hWnd, CB_SETCURSEL, nSelect, 0); }

  0019d	6a 00		 push	 0
  0019f	6a 00		 push	 0
  001a1	68 4e 01 00 00	 push	 334			; 0000014eH
  001a6	ff b7 f0 02 00
	00		 push	 DWORD PTR [edi+752]
  001ac	ff d6		 call	 esi
; File D:\git\src\IBK\IBK_DRFN\ProjSrc\SrcDrfn\Chart\STCONFIGUREDLG\TabRunSetup.cpp

; 460  : 	SetDlgItemText(IDC_ED_BONG, "");

  001ae	68 00 00 00 00	 push	 OFFSET ??_C@_00CNPNBAHC@@
  001b3	68 0f 52 00 00	 push	 21007			; 0000520fH
  001b8	8b cf		 mov	 ecx, edi
  001ba	e8 00 00 00 00	 call	 ?SetDlgItemTextA@CWnd@@QAEXHPBD@Z ; CWnd::SetDlgItemTextA

; 461  : 
; 462  : 	CheckDlgButton(IDC_CHK6, 0);

  001bf	6a 00		 push	 0
  001c1	68 65 71 00 00	 push	 29029			; 00007165H
  001c6	8b cf		 mov	 ecx, edi
  001c8	e8 00 00 00 00	 call	 ?CheckDlgButton@CWnd@@QAEXHI@Z ; CWnd::CheckDlgButton
; File C:\Program Files (x86)\Microsoft Visual Studio\2019\Community\VC\Tools\MSVC\14.29.30133\atlmfc\include\afxwin2.inl

; 767  : 	{ ASSERT(::IsWindow(m_hWnd)); return (int)::SendMessage(m_hWnd, CB_SETCURSEL, nSelect, 0); }

  001cd	6a 00		 push	 0
  001cf	6a 00		 push	 0
  001d1	68 4e 01 00 00	 push	 334			; 0000014eH
  001d6	ff b7 00 0a 00
	00		 push	 DWORD PTR [edi+2560]
  001dc	ff d6		 call	 esi
; File D:\git\src\IBK\IBK_DRFN\ProjSrc\SrcDrfn\Chart\STCONFIGUREDLG\TabRunSetup.cpp

; 464  : 	SetDlgItemText(IDC_ED_TIME, "");

  001de	68 00 00 00 00	 push	 OFFSET ??_C@_00CNPNBAHC@@
  001e3	68 0e 52 00 00	 push	 21006			; 0000520eH
  001e8	8b cf		 mov	 ecx, edi
  001ea	e8 00 00 00 00	 call	 ?SetDlgItemTextA@CWnd@@QAEXHPBD@Z ; CWnd::SetDlgItemTextA

; 465  : 
; 466  : 	CheckDlgButton(IDC_CHK7, 0);

  001ef	6a 00		 push	 0
  001f1	68 11 52 00 00	 push	 21009			; 00005211H
  001f6	8b cf		 mov	 ecx, edi
  001f8	e8 00 00 00 00	 call	 ?CheckDlgButton@CWnd@@QAEXHI@Z ; CWnd::CheckDlgButton

; 467  : 	SetDlgItemText(IDC_ED_6, "");

  001fd	68 00 00 00 00	 push	 OFFSET ??_C@_00CNPNBAHC@@
  00202	68 7d 71 00 00	 push	 29053			; 0000717dH
  00207	8b cf		 mov	 ecx, edi
  00209	e8 00 00 00 00	 call	 ?SetDlgItemTextA@CWnd@@QAEXHPBD@Z ; CWnd::SetDlgItemTextA

; 468  : 	SetDlgItemText(IDC_ED_7, "");

  0020e	68 00 00 00 00	 push	 OFFSET ??_C@_00CNPNBAHC@@
  00213	68 7e 71 00 00	 push	 29054			; 0000717eH
  00218	8b cf		 mov	 ecx, edi
  0021a	e8 00 00 00 00	 call	 ?SetDlgItemTextA@CWnd@@QAEXHPBD@Z ; CWnd::SetDlgItemTextA
; File C:\Program Files (x86)\Microsoft Visual Studio\2019\Community\VC\Tools\MSVC\14.29.30133\atlmfc\include\afxwin2.inl

; 767  : 	{ ASSERT(::IsWindow(m_hWnd)); return (int)::SendMessage(m_hWnd, CB_SETCURSEL, nSelect, 0); }

  0021f	6a 00		 push	 0
  00221	6a 00		 push	 0
  00223	68 4e 01 00 00	 push	 334			; 0000014eH
  00228	ff b7 78 03 00
	00		 push	 DWORD PTR [edi+888]
  0022e	ff d6		 call	 esi
  00230	6a 00		 push	 0
  00232	6a 00		 push	 0
  00234	68 4e 01 00 00	 push	 334			; 0000014eH
  00239	ff b7 00 04 00
	00		 push	 DWORD PTR [edi+1024]
  0023f	ff d6		 call	 esi
  00241	6a 00		 push	 0
  00243	6a 00		 push	 0
  00245	68 4e 01 00 00	 push	 334			; 0000014eH
  0024a	ff b7 a8 06 00
	00		 push	 DWORD PTR [edi+1704]
  00250	ff d6		 call	 esi
; File D:\git\src\IBK\IBK_DRFN\ProjSrc\SrcDrfn\Chart\STCONFIGUREDLG\TabRunSetup.cpp

; 472  : 	m_btnC5.SetColor(255);

  00252	8d 45 fc	 lea	 eax, DWORD PTR $T1[ebp]
  00255	c7 45 fc ff 00
	00 00		 mov	 DWORD PTR $T1[ebp], 255	; 000000ffH
  0025c	50		 push	 eax
  0025d	8d 8f 50 09 00
	00		 lea	 ecx, DWORD PTR [edi+2384]
  00263	e8 00 00 00 00	 call	 ?SetColor@CColorButton@@QAEXABK@Z ; CColorButton::SetColor

; 473  : 
; 474  : 	SaveInfo();

  00268	8b 07		 mov	 eax, DWORD PTR [edi]
  0026a	8b cf		 mov	 ecx, edi
  0026c	ff 90 98 01 00
	00		 call	 DWORD PTR [eax+408]
; File C:\Program Files (x86)\Microsoft Visual Studio\2019\Community\VC\Tools\MSVC\14.29.30133\atlmfc\include\afxwin2.inl

; 114  : 	{ ASSERT(::IsWindow(m_hWnd)); ::InvalidateRect(m_hWnd, NULL, bErase); }

  00272	8b 35 00 00 00
	00		 mov	 esi, DWORD PTR __imp__InvalidateRect@12
  00278	6a 01		 push	 1
  0027a	6a 00		 push	 0
  0027c	ff b7 30 07 00
	00		 push	 DWORD PTR [edi+1840]
  00282	ff d6		 call	 esi
  00284	6a 01		 push	 1
  00286	6a 00		 push	 0
  00288	ff b7 c0 07 00
	00		 push	 DWORD PTR [edi+1984]
  0028e	ff d6		 call	 esi
  00290	6a 01		 push	 1
  00292	6a 00		 push	 0
  00294	ff b7 50 08 00
	00		 push	 DWORD PTR [edi+2128]
  0029a	ff d6		 call	 esi
  0029c	6a 01		 push	 1
  0029e	6a 00		 push	 0
  002a0	ff b7 e0 08 00
	00		 push	 DWORD PTR [edi+2272]
  002a6	ff d6		 call	 esi
  002a8	6a 01		 push	 1
  002aa	6a 00		 push	 0
  002ac	ff b7 70 09 00
	00		 push	 DWORD PTR [edi+2416]
  002b2	ff d6		 call	 esi
  002b4	5f		 pop	 edi
  002b5	5e		 pop	 esi
; File D:\git\src\IBK\IBK_DRFN\ProjSrc\SrcDrfn\Chart\STCONFIGUREDLG\TabRunSetup.cpp

; 481  : }

  002b6	8b e5		 mov	 esp, ebp
  002b8	5d		 pop	 ebp
  002b9	c3		 ret	 0
?SetDefault@CTabRunSetup@@UAEXXZ ENDP			; CTabRunSetup::SetDefault
_TEXT	ENDS
; Function compile flags: /Ogtp
; File D:\git\src\IBK\IBK_DRFN\ProjSrc\SrcDrfn\Chart\STCONFIGUREDLG\TabRunSetup.cpp
;	COMDAT ?RemoveInfo@CTabRunSetup@@UAEXXZ
_TEXT	SEGMENT
?RemoveInfo@CTabRunSetup@@UAEXXZ PROC			; CTabRunSetup::RemoveInfo, COMDAT
; _this$ = ecx

; 408  : }

  00000	c2 00 00	 ret	 0
?RemoveInfo@CTabRunSetup@@UAEXXZ ENDP			; CTabRunSetup::RemoveInfo
_TEXT	ENDS
; Function compile flags: /Ogtp
; File D:\git\src\IBK\IBK_DRFN\ProjSrc\SrcDrfn\Chart\STCONFIGUREDLG\TabRunSetup.cpp
; File C:\Program Files (x86)\Microsoft Visual Studio\2019\Community\VC\Tools\MSVC\14.29.30133\atlmfc\include\afxwin2.inl
; File D:\git\src\IBK\IBK_DRFN\ProjSrc\SrcDrfn\Chart\STCONFIGUREDLG\TabRunSetup.cpp
; File C:\Program Files (x86)\Microsoft Visual Studio\2019\Community\VC\Tools\MSVC\14.29.30133\atlmfc\include\afxwin2.inl
; File D:\git\src\IBK\IBK_DRFN\ProjSrc\SrcDrfn\Chart\STCONFIGUREDLG\TabRunSetup.cpp
; File C:\Program Files (x86)\Microsoft Visual Studio\2019\Community\VC\Tools\MSVC\14.29.30133\atlmfc\include\afxwin2.inl
; File D:\git\src\IBK\IBK_DRFN\ProjSrc\SrcDrfn\Chart\STCONFIGUREDLG\TabRunSetup.cpp
; File C:\Program Files (x86)\Microsoft Visual Studio\2019\Community\VC\Tools\MSVC\14.29.30133\atlmfc\include\afxwin2.inl
; File D:\git\src\IBK\IBK_DRFN\ProjSrc\SrcDrfn\Chart\STCONFIGUREDLG\TabRunSetup.cpp
; File C:\Program Files (x86)\Microsoft Visual Studio\2019\Community\VC\Tools\MSVC\14.29.30133\atlmfc\include\afxwin2.inl
; File D:\git\src\IBK\IBK_DRFN\ProjSrc\SrcDrfn\Chart\STCONFIGUREDLG\TabRunSetup.cpp
; File C:\Program Files (x86)\Microsoft Visual Studio\2019\Community\VC\Tools\MSVC\14.29.30133\atlmfc\include\afxwin2.inl
; File D:\git\src\IBK\IBK_DRFN\ProjSrc\SrcDrfn\Chart\STCONFIGUREDLG\TabRunSetup.cpp
; File C:\Program Files (x86)\Microsoft Visual Studio\2019\Community\VC\Tools\MSVC\14.29.30133\atlmfc\include\afxwin2.inl
; File D:\git\src\IBK\IBK_DRFN\ProjSrc\SrcDrfn\Chart\STCONFIGUREDLG\TabRunSetup.cpp
; File C:\Program Files (x86)\Microsoft Visual Studio\2019\Community\VC\Tools\MSVC\14.29.30133\atlmfc\include\afxwin2.inl
; File D:\git\src\IBK\IBK_DRFN\ProjSrc\SrcDrfn\Chart\STCONFIGUREDLG\TabRunSetup.cpp
; File C:\Program Files (x86)\Microsoft Visual Studio\2019\Community\VC\Tools\MSVC\14.29.30133\atlmfc\include\afxwin2.inl
; File D:\git\src\IBK\IBK_DRFN\ProjSrc\SrcDrfn\Chart\STCONFIGUREDLG\TabRunSetup.cpp
; File C:\Program Files (x86)\Microsoft Visual Studio\2019\Community\VC\Tools\MSVC\14.29.30133\atlmfc\include\afxwin2.inl
; File D:\git\src\IBK\IBK_DRFN\ProjSrc\SrcDrfn\Chart\STCONFIGUREDLG\TabRunSetup.cpp
; File C:\Program Files (x86)\Microsoft Visual Studio\2019\Community\VC\Tools\MSVC\14.29.30133\atlmfc\include\afxwin2.inl
; File D:\git\src\IBK\IBK_DRFN\ProjSrc\SrcDrfn\Chart\STCONFIGUREDLG\TabRunSetup.cpp
; File C:\Program Files (x86)\Microsoft Visual Studio\2019\Community\VC\Tools\MSVC\14.29.30133\atlmfc\include\afxwin2.inl
; File D:\git\src\IBK\IBK_DRFN\ProjSrc\SrcDrfn\Chart\STCONFIGUREDLG\TabRunSetup.cpp
; File C:\Program Files (x86)\Microsoft Visual Studio\2019\Community\VC\Tools\MSVC\14.29.30133\atlmfc\include\afxwin2.inl
; File D:\git\src\IBK\IBK_DRFN\ProjSrc\SrcDrfn\Chart\STCONFIGUREDLG\TabRunSetup.cpp
; File C:\Program Files (x86)\Microsoft Visual Studio\2019\Community\VC\Tools\MSVC\14.29.30133\atlmfc\include\afxwin2.inl
; File D:\git\src\IBK\IBK_DRFN\ProjSrc\SrcDrfn\Chart\STCONFIGUREDLG\TabRunSetup.cpp
; File C:\Program Files (x86)\Microsoft Visual Studio\2019\Community\VC\Tools\MSVC\14.29.30133\atlmfc\include\afxwin2.inl
; File D:\git\src\IBK\IBK_DRFN\ProjSrc\SrcDrfn\Chart\STCONFIGUREDLG\TabRunSetup.cpp
; File C:\Program Files (x86)\Microsoft Visual Studio\2019\Community\VC\Tools\MSVC\14.29.30133\atlmfc\include\afxwin2.inl
; File D:\git\src\IBK\IBK_DRFN\ProjSrc\SrcDrfn\Chart\STCONFIGUREDLG\TabRunSetup.cpp
; File C:\Program Files (x86)\Microsoft Visual Studio\2019\Community\VC\Tools\MSVC\14.29.30133\atlmfc\include\afxwin2.inl
; File D:\git\src\IBK\IBK_DRFN\ProjSrc\SrcDrfn\Chart\STCONFIGUREDLG\TabRunSetup.cpp
; File C:\Program Files (x86)\Microsoft Visual Studio\2019\Community\VC\Tools\MSVC\14.29.30133\atlmfc\include\afxwin2.inl
; File D:\git\src\IBK\IBK_DRFN\ProjSrc\SrcDrfn\Chart\STCONFIGUREDLG\TabRunSetup.cpp
; File C:\Program Files (x86)\Microsoft Visual Studio\2019\Community\VC\Tools\MSVC\14.29.30133\atlmfc\include\afxwin2.inl
; File D:\git\src\IBK\IBK_DRFN\ProjSrc\SrcDrfn\Chart\STCONFIGUREDLG\TabRunSetup.cpp
; File C:\Program Files (x86)\Microsoft Visual Studio\2019\Community\VC\Tools\MSVC\14.29.30133\atlmfc\include\afxwin2.inl
; File D:\git\src\IBK\IBK_DRFN\ProjSrc\SrcDrfn\Chart\STCONFIGUREDLG\TabRunSetup.cpp
; File C:\Program Files (x86)\Microsoft Visual Studio\2019\Community\VC\Tools\MSVC\14.29.30133\atlmfc\include\afxwin2.inl
; File D:\git\src\IBK\IBK_DRFN\ProjSrc\SrcDrfn\Chart\STCONFIGUREDLG\TabRunSetup.cpp
; File C:\Program Files (x86)\Microsoft Visual Studio\2019\Community\VC\Tools\MSVC\14.29.30133\atlmfc\include\afxwin2.inl
; File D:\git\src\IBK\IBK_DRFN\ProjSrc\SrcDrfn\Chart\STCONFIGUREDLG\TabRunSetup.cpp
; File C:\Program Files (x86)\Microsoft Visual Studio\2019\Community\VC\Tools\MSVC\14.29.30133\atlmfc\include\afxwin2.inl
; File D:\git\src\IBK\IBK_DRFN\ProjSrc\SrcDrfn\Chart\STCONFIGUREDLG\TabRunSetup.cpp
;	COMDAT ?SaveInfo@CTabRunSetup@@UAEHXZ
_TEXT	SEGMENT
_this$1$ = -24						; size = 4
_szKey$ = -20						; size = 4
_szTmp$ = -16						; size = 4
__$EHRec$ = -12						; size = 12
?SaveInfo@CTabRunSetup@@UAEHXZ PROC			; CTabRunSetup::SaveInfo, COMDAT
; _this$ = ecx

; 205  : {

  00000	55		 push	 ebp
  00001	8b ec		 mov	 ebp, esp
  00003	6a ff		 push	 -1
  00005	68 00 00 00 00	 push	 __ehhandler$?SaveInfo@CTabRunSetup@@UAEHXZ
  0000a	64 a1 00 00 00
	00		 mov	 eax, DWORD PTR fs:0
  00010	50		 push	 eax
  00011	83 ec 0c	 sub	 esp, 12			; 0000000cH
  00014	53		 push	 ebx
  00015	56		 push	 esi
  00016	57		 push	 edi
  00017	a1 00 00 00 00	 mov	 eax, DWORD PTR ___security_cookie
  0001c	33 c5		 xor	 eax, ebp
  0001e	50		 push	 eax
  0001f	8d 45 f4	 lea	 eax, DWORD PTR __$EHRec$[ebp]
  00022	64 a3 00 00 00
	00		 mov	 DWORD PTR fs:0, eax
  00028	8b f1		 mov	 esi, ecx
  0002a	89 75 e8	 mov	 DWORD PTR _this$1$[ebp], esi

; 206  : 	CString szKey, szTmp;

  0002d	8d 4d ec	 lea	 ecx, DWORD PTR _szKey$[ebp]
  00030	ff 15 00 00 00
	00		 call	 DWORD PTR __imp_??0?$CStringT@DV?$StrTraitMFC_DLL@DV?$ChTraitsCRT@D@ATL@@@@@ATL@@QAE@XZ
  00036	8d 4d f0	 lea	 ecx, DWORD PTR _szTmp$[ebp]
  00039	c7 45 fc 00 00
	00 00		 mov	 DWORD PTR __$EHRec$[ebp+8], 0
  00040	ff 15 00 00 00
	00		 call	 DWORD PTR __imp_??0?$CStringT@DV?$StrTraitMFC_DLL@DV?$ChTraitsCRT@D@ATL@@@@@ATL@@QAE@XZ

; 207  : 	COLORREF clrSignal = RGB(0,0,0);
; 208  : 	int nSel;
; 209  : 
; 210  : 	//  
; 211  : 	szKey.Format("%s", "ClearPoint");

  00046	8b 1d 00 00 00
	00		 mov	 ebx, DWORD PTR __imp_?Format@?$CStringT@DV?$StrTraitMFC_DLL@DV?$ChTraitsCRT@D@ATL@@@@@ATL@@QAAXPBDZZ
  0004c	8d 45 ec	 lea	 eax, DWORD PTR _szKey$[ebp]
  0004f	68 00 00 00 00	 push	 OFFSET ??_C@_0L@DJJDHKPF@ClearPoint@
  00054	68 00 00 00 00	 push	 OFFSET ??_C@_02DKCKIIND@?$CFs@
  00059	50		 push	 eax
  0005a	c6 45 fc 01	 mov	 BYTE PTR __$EHRec$[ebp+8], 1
  0005e	ff d3		 call	 ebx
  00060	83 c4 0c	 add	 esp, 12			; 0000000cH

; 212  : 	nSel = GetCheckedRadioButton(IDC_SELLINFO_OPT1, IDC_SELLINFO_OPT2);

  00063	8b ce		 mov	 ecx, esi
  00065	68 5f 71 00 00	 push	 29023			; 0000715fH
  0006a	68 5e 71 00 00	 push	 29022			; 0000715eH
  0006f	e8 00 00 00 00	 call	 ?GetCheckedRadioButton@CWnd@@QBEHHH@Z ; CWnd::GetCheckedRadioButton

; 213  : 	szTmp.Format("%d", nSel-IDC_SELLINFO_OPT1);

  00074	05 a2 8e ff ff	 add	 eax, -29022		; ffff8ea2H
  00079	50		 push	 eax
  0007a	8d 45 f0	 lea	 eax, DWORD PTR _szTmp$[ebp]
  0007d	68 00 00 00 00	 push	 OFFSET ??_C@_02DPKJAMEF@?$CFd@
  00082	50		 push	 eax
  00083	ff d3		 call	 ebx

; 214  : 	::WritePrivateProfileString(STCONFIG_CLEAR, szKey, szTmp, m_szCFGFile);

  00085	8b 3d 00 00 00
	00		 mov	 edi, DWORD PTR __imp__WritePrivateProfileStringA@16
  0008b	83 c4 0c	 add	 esp, 12			; 0000000cH
  0008e	ff b6 a8 00 00
	00		 push	 DWORD PTR [esi+168]
  00094	ff 75 f0	 push	 DWORD PTR _szTmp$[ebp]
  00097	ff 75 ec	 push	 DWORD PTR _szKey$[ebp]
  0009a	68 00 00 00 00	 push	 OFFSET ??_C@_08DIPLEMAP@RunSetup@
  0009f	ff d7		 call	 edi

; 215  : 
; 216  : 	//-------- 1 -----------------------------
; 217  : 	//()
; 218  : 	szKey.Format("%s", "Chk1");

  000a1	68 00 00 00 00	 push	 OFFSET ??_C@_04FKMDNGOE@Chk1@
  000a6	8d 45 ec	 lea	 eax, DWORD PTR _szKey$[ebp]
  000a9	68 00 00 00 00	 push	 OFFSET ??_C@_02DKCKIIND@?$CFs@
  000ae	50		 push	 eax
  000af	ff d3		 call	 ebx
  000b1	83 c4 0c	 add	 esp, 12			; 0000000cH

; 219  : 	szTmp.Format("%d", IsDlgButtonChecked(IDC_CHK1));

  000b4	8b ce		 mov	 ecx, esi
  000b6	68 60 71 00 00	 push	 29024			; 00007160H
  000bb	e8 00 00 00 00	 call	 ?IsDlgButtonChecked@CWnd@@QBEIH@Z ; CWnd::IsDlgButtonChecked
  000c0	50		 push	 eax
  000c1	8d 45 f0	 lea	 eax, DWORD PTR _szTmp$[ebp]
  000c4	68 00 00 00 00	 push	 OFFSET ??_C@_02DPKJAMEF@?$CFd@
  000c9	50		 push	 eax
  000ca	ff d3		 call	 ebx
  000cc	83 c4 0c	 add	 esp, 12			; 0000000cH

; 220  : 	::WritePrivateProfileString(STCONFIG_CLEAR, szKey, szTmp, m_szCFGFile);

  000cf	ff b6 a8 00 00
	00		 push	 DWORD PTR [esi+168]
  000d5	ff 75 f0	 push	 DWORD PTR _szTmp$[ebp]
  000d8	ff 75 ec	 push	 DWORD PTR _szKey$[ebp]
  000db	68 00 00 00 00	 push	 OFFSET ??_C@_08DIPLEMAP@RunSetup@
  000e0	ff d7		 call	 edi

; 221  : 
; 222  : 	szKey.Format("%s", "ED1");

  000e2	68 00 00 00 00	 push	 OFFSET ??_C@_03MDLPKKEC@ED1@
  000e7	8d 45 ec	 lea	 eax, DWORD PTR _szKey$[ebp]
  000ea	68 00 00 00 00	 push	 OFFSET ??_C@_02DKCKIIND@?$CFs@
  000ef	50		 push	 eax
  000f0	ff d3		 call	 ebx
  000f2	83 c4 0c	 add	 esp, 12			; 0000000cH

; 223  : 	GetDlgItemText(IDC_ED_1, szTmp);

  000f5	8d 45 f0	 lea	 eax, DWORD PTR _szTmp$[ebp]
  000f8	8b ce		 mov	 ecx, esi
  000fa	50		 push	 eax
  000fb	68 09 52 00 00	 push	 21001			; 00005209H
  00100	e8 00 00 00 00	 call	 ?GetDlgItemTextA@CWnd@@QBEHHAAV?$CStringT@DV?$StrTraitMFC_DLL@DV?$ChTraitsCRT@D@ATL@@@@@ATL@@@Z ; CWnd::GetDlgItemTextA

; 224  : 	::WritePrivateProfileString(STCONFIG_CLEAR, szKey, szTmp, m_szCFGFile);

  00105	ff b6 a8 00 00
	00		 push	 DWORD PTR [esi+168]
  0010b	ff 75 f0	 push	 DWORD PTR _szTmp$[ebp]
  0010e	ff 75 ec	 push	 DWORD PTR _szKey$[ebp]
  00111	68 00 00 00 00	 push	 OFFSET ??_C@_08DIPLEMAP@RunSetup@
  00116	ff d7		 call	 edi

; 225  : 
; 226  : 	// () : P
; 227  : 	szKey.Format("%s", "P1");

  00118	68 00 00 00 00	 push	 OFFSET ??_C@_02KKFPAPOP@P1@
  0011d	8d 45 ec	 lea	 eax, DWORD PTR _szKey$[ebp]
  00120	68 00 00 00 00	 push	 OFFSET ??_C@_02DKCKIIND@?$CFs@
  00125	50		 push	 eax
  00126	ff d3		 call	 ebx
  00128	83 c4 0c	 add	 esp, 12			; 0000000cH
; File C:\Program Files (x86)\Microsoft Visual Studio\2019\Community\VC\Tools\MSVC\14.29.30133\atlmfc\include\afxwin2.inl

; 765  : 	{ ASSERT(::IsWindow(m_hWnd)); return (int)::SendMessage(m_hWnd, CB_GETCURSEL, 0, 0); }

  0012b	6a 00		 push	 0
  0012d	6a 00		 push	 0
  0012f	68 47 01 00 00	 push	 327			; 00000147H
  00134	ff b6 d0 00 00
	00		 push	 DWORD PTR [esi+208]
  0013a	8b 35 00 00 00
	00		 mov	 esi, DWORD PTR __imp__SendMessageA@16
  00140	ff d6		 call	 esi
; File D:\git\src\IBK\IBK_DRFN\ProjSrc\SrcDrfn\Chart\STCONFIGUREDLG\TabRunSetup.cpp

; 228  : 	nSel = m_cbP1.GetCurSel();	if(nSel==CB_ERR) nSel=0;

  00142	33 c9		 xor	 ecx, ecx
  00144	83 f8 ff	 cmp	 eax, -1
  00147	0f 44 c1	 cmove	 eax, ecx

; 229  : 	szTmp.Format("%d", nSel);

  0014a	50		 push	 eax
  0014b	8d 45 f0	 lea	 eax, DWORD PTR _szTmp$[ebp]
  0014e	68 00 00 00 00	 push	 OFFSET ??_C@_02DPKJAMEF@?$CFd@
  00153	50		 push	 eax
  00154	ff d3		 call	 ebx

; 230  : 	::WritePrivateProfileString(STCONFIG_CLEAR, szKey, szTmp, m_szCFGFile);

  00156	8b 45 e8	 mov	 eax, DWORD PTR _this$1$[ebp]
  00159	83 c4 0c	 add	 esp, 12			; 0000000cH
  0015c	ff b0 a8 00 00
	00		 push	 DWORD PTR [eax+168]
  00162	ff 75 f0	 push	 DWORD PTR _szTmp$[ebp]
  00165	ff 75 ec	 push	 DWORD PTR _szKey$[ebp]
  00168	68 00 00 00 00	 push	 OFFSET ??_C@_08DIPLEMAP@RunSetup@
  0016d	ff d7		 call	 edi

; 233  : 	szKey.Format("%s", "S1");

  0016f	68 00 00 00 00	 push	 OFFSET ??_C@_02KIBJLBLG@S1@
  00174	8d 45 ec	 lea	 eax, DWORD PTR _szKey$[ebp]
  00177	68 00 00 00 00	 push	 OFFSET ??_C@_02DKCKIIND@?$CFs@
  0017c	50		 push	 eax
  0017d	ff d3		 call	 ebx
; File C:\Program Files (x86)\Microsoft Visual Studio\2019\Community\VC\Tools\MSVC\14.29.30133\atlmfc\include\afxwin2.inl

; 765  : 	{ ASSERT(::IsWindow(m_hWnd)); return (int)::SendMessage(m_hWnd, CB_GETCURSEL, 0, 0); }

  0017f	8b 45 e8	 mov	 eax, DWORD PTR _this$1$[ebp]
; File D:\git\src\IBK\IBK_DRFN\ProjSrc\SrcDrfn\Chart\STCONFIGUREDLG\TabRunSetup.cpp

; 233  : 	szKey.Format("%s", "S1");

  00182	83 c4 0c	 add	 esp, 12			; 0000000cH
; File C:\Program Files (x86)\Microsoft Visual Studio\2019\Community\VC\Tools\MSVC\14.29.30133\atlmfc\include\afxwin2.inl

; 765  : 	{ ASSERT(::IsWindow(m_hWnd)); return (int)::SendMessage(m_hWnd, CB_GETCURSEL, 0, 0); }

  00185	6a 00		 push	 0
  00187	6a 00		 push	 0
  00189	68 47 01 00 00	 push	 327			; 00000147H
  0018e	ff b0 88 04 00
	00		 push	 DWORD PTR [eax+1160]
  00194	ff d6		 call	 esi
; File D:\git\src\IBK\IBK_DRFN\ProjSrc\SrcDrfn\Chart\STCONFIGUREDLG\TabRunSetup.cpp

; 234  : 	nSel = m_cbS1.GetCurSel();	if(nSel==CB_ERR) nSel=0;

  00196	33 c9		 xor	 ecx, ecx
  00198	83 f8 ff	 cmp	 eax, -1
  0019b	0f 44 c1	 cmove	 eax, ecx

; 235  : 	szTmp.Format("%d", nSel);

  0019e	50		 push	 eax
  0019f	8d 45 f0	 lea	 eax, DWORD PTR _szTmp$[ebp]
  001a2	68 00 00 00 00	 push	 OFFSET ??_C@_02DPKJAMEF@?$CFd@
  001a7	50		 push	 eax
  001a8	ff d3		 call	 ebx

; 236  : 	::WritePrivateProfileString(STCONFIG_CLEAR, szKey, szTmp, m_szCFGFile);

  001aa	8b 45 e8	 mov	 eax, DWORD PTR _this$1$[ebp]
  001ad	83 c4 0c	 add	 esp, 12			; 0000000cH
  001b0	ff b0 a8 00 00
	00		 push	 DWORD PTR [eax+168]
  001b6	ff 75 f0	 push	 DWORD PTR _szTmp$[ebp]
  001b9	ff 75 ec	 push	 DWORD PTR _szKey$[ebp]
  001bc	68 00 00 00 00	 push	 OFFSET ??_C@_08DIPLEMAP@RunSetup@
  001c1	ff d7		 call	 edi

; 237  : 
; 238  : 	// () : C
; 239  : 	szKey.Format("CLR_%s", "1");

  001c3	68 00 00 00 00	 push	 OFFSET ??_C@_01HIHLOKLC@1@
  001c8	8d 45 ec	 lea	 eax, DWORD PTR _szKey$[ebp]
  001cb	68 00 00 00 00	 push	 OFFSET ??_C@_06IEMDKIBD@CLR_?$CFs@
  001d0	50		 push	 eax
  001d1	ff d3		 call	 ebx

; 240  : 	szTmp.Format("%ld", m_btnC1.GetColor());

  001d3	8b 45 e8	 mov	 eax, DWORD PTR _this$1$[ebp]
  001d6	ff b0 90 07 00
	00		 push	 DWORD PTR [eax+1936]
  001dc	8d 45 f0	 lea	 eax, DWORD PTR _szTmp$[ebp]
  001df	68 00 00 00 00	 push	 OFFSET ??_C@_03JALODAI@?$CFld@
  001e4	50		 push	 eax
  001e5	ff d3		 call	 ebx

; 241  : 	::WritePrivateProfileString(STCONFIG_CLEAR, szKey, szTmp, m_szCFGFile);

  001e7	8b 45 e8	 mov	 eax, DWORD PTR _this$1$[ebp]
  001ea	83 c4 18	 add	 esp, 24			; 00000018H
  001ed	ff b0 a8 00 00
	00		 push	 DWORD PTR [eax+168]
  001f3	ff 75 f0	 push	 DWORD PTR _szTmp$[ebp]
  001f6	ff 75 ec	 push	 DWORD PTR _szKey$[ebp]
  001f9	68 00 00 00 00	 push	 OFFSET ??_C@_08DIPLEMAP@RunSetup@
  001fe	ff d7		 call	 edi

; 242  : 
; 243  : 	//------- 2 ------------------------------
; 244  : 	//	
; 245  : 	szKey.Format("%s", "Chk2");

  00200	68 00 00 00 00	 push	 OFFSET ??_C@_04HBOOIFCH@Chk2@
  00205	8d 45 ec	 lea	 eax, DWORD PTR _szKey$[ebp]
  00208	68 00 00 00 00	 push	 OFFSET ??_C@_02DKCKIIND@?$CFs@
  0020d	50		 push	 eax
  0020e	ff d3		 call	 ebx

; 246  : 	szTmp.Format("%d", IsDlgButtonChecked(IDC_CHK2));

  00210	8b 4d e8	 mov	 ecx, DWORD PTR _this$1$[ebp]
  00213	83 c4 0c	 add	 esp, 12			; 0000000cH
  00216	68 61 71 00 00	 push	 29025			; 00007161H
  0021b	e8 00 00 00 00	 call	 ?IsDlgButtonChecked@CWnd@@QBEIH@Z ; CWnd::IsDlgButtonChecked
  00220	50		 push	 eax
  00221	8d 45 f0	 lea	 eax, DWORD PTR _szTmp$[ebp]
  00224	68 00 00 00 00	 push	 OFFSET ??_C@_02DPKJAMEF@?$CFd@
  00229	50		 push	 eax
  0022a	ff d3		 call	 ebx

; 247  : 	::WritePrivateProfileString(STCONFIG_CLEAR, szKey, szTmp, m_szCFGFile);

  0022c	8b 45 e8	 mov	 eax, DWORD PTR _this$1$[ebp]
  0022f	83 c4 0c	 add	 esp, 12			; 0000000cH
  00232	ff b0 a8 00 00
	00		 push	 DWORD PTR [eax+168]
  00238	ff 75 f0	 push	 DWORD PTR _szTmp$[ebp]
  0023b	ff 75 ec	 push	 DWORD PTR _szKey$[ebp]
  0023e	68 00 00 00 00	 push	 OFFSET ??_C@_08DIPLEMAP@RunSetup@
  00243	ff d7		 call	 edi

; 248  : 
; 249  : 	szKey.Format("%s", "ED2");

  00245	68 00 00 00 00	 push	 OFFSET ??_C@_03OIJCPJIB@ED2@
  0024a	8d 45 ec	 lea	 eax, DWORD PTR _szKey$[ebp]
  0024d	68 00 00 00 00	 push	 OFFSET ??_C@_02DKCKIIND@?$CFs@
  00252	50		 push	 eax
  00253	ff d3		 call	 ebx

; 250  : 	GetDlgItemText(IDC_ED_2, szTmp);

  00255	8b 4d e8	 mov	 ecx, DWORD PTR _this$1$[ebp]
  00258	8d 45 f0	 lea	 eax, DWORD PTR _szTmp$[ebp]
  0025b	83 c4 0c	 add	 esp, 12			; 0000000cH
  0025e	50		 push	 eax
  0025f	68 0a 52 00 00	 push	 21002			; 0000520aH
  00264	e8 00 00 00 00	 call	 ?GetDlgItemTextA@CWnd@@QBEHHAAV?$CStringT@DV?$StrTraitMFC_DLL@DV?$ChTraitsCRT@D@ATL@@@@@ATL@@@Z ; CWnd::GetDlgItemTextA

; 251  : 	::WritePrivateProfileString(STCONFIG_CLEAR, szKey, szTmp, m_szCFGFile);

  00269	8b 45 e8	 mov	 eax, DWORD PTR _this$1$[ebp]
  0026c	ff b0 a8 00 00
	00		 push	 DWORD PTR [eax+168]
  00272	ff 75 f0	 push	 DWORD PTR _szTmp$[ebp]
  00275	ff 75 ec	 push	 DWORD PTR _szKey$[ebp]
  00278	68 00 00 00 00	 push	 OFFSET ??_C@_08DIPLEMAP@RunSetup@
  0027d	ff d7		 call	 edi

; 254  : 	szKey.Format("%s", "P2");

  0027f	68 00 00 00 00	 push	 OFFSET ??_C@_02IBHCFMCM@P2@
  00284	8d 45 ec	 lea	 eax, DWORD PTR _szKey$[ebp]
  00287	68 00 00 00 00	 push	 OFFSET ??_C@_02DKCKIIND@?$CFs@
  0028c	50		 push	 eax
  0028d	ff d3		 call	 ebx
; File C:\Program Files (x86)\Microsoft Visual Studio\2019\Community\VC\Tools\MSVC\14.29.30133\atlmfc\include\afxwin2.inl

; 765  : 	{ ASSERT(::IsWindow(m_hWnd)); return (int)::SendMessage(m_hWnd, CB_GETCURSEL, 0, 0); }

  0028f	8b 45 e8	 mov	 eax, DWORD PTR _this$1$[ebp]
; File D:\git\src\IBK\IBK_DRFN\ProjSrc\SrcDrfn\Chart\STCONFIGUREDLG\TabRunSetup.cpp

; 254  : 	szKey.Format("%s", "P2");

  00292	83 c4 0c	 add	 esp, 12			; 0000000cH
; File C:\Program Files (x86)\Microsoft Visual Studio\2019\Community\VC\Tools\MSVC\14.29.30133\atlmfc\include\afxwin2.inl

; 765  : 	{ ASSERT(::IsWindow(m_hWnd)); return (int)::SendMessage(m_hWnd, CB_GETCURSEL, 0, 0); }

  00295	6a 00		 push	 0
  00297	6a 00		 push	 0
  00299	68 47 01 00 00	 push	 327			; 00000147H
  0029e	ff b0 58 01 00
	00		 push	 DWORD PTR [eax+344]
  002a4	ff d6		 call	 esi
; File D:\git\src\IBK\IBK_DRFN\ProjSrc\SrcDrfn\Chart\STCONFIGUREDLG\TabRunSetup.cpp

; 255  : 	nSel = m_cbP2.GetCurSel();	if(nSel==CB_ERR) nSel=0;

  002a6	33 c9		 xor	 ecx, ecx
  002a8	83 f8 ff	 cmp	 eax, -1
  002ab	0f 44 c1	 cmove	 eax, ecx

; 256  : 	szTmp.Format("%d", nSel);

  002ae	50		 push	 eax
  002af	8d 45 f0	 lea	 eax, DWORD PTR _szTmp$[ebp]
  002b2	68 00 00 00 00	 push	 OFFSET ??_C@_02DPKJAMEF@?$CFd@
  002b7	50		 push	 eax
  002b8	ff d3		 call	 ebx

; 257  : 	::WritePrivateProfileString(STCONFIG_CLEAR, szKey, szTmp, m_szCFGFile);

  002ba	8b 45 e8	 mov	 eax, DWORD PTR _this$1$[ebp]
  002bd	83 c4 0c	 add	 esp, 12			; 0000000cH
  002c0	ff b0 a8 00 00
	00		 push	 DWORD PTR [eax+168]
  002c6	ff 75 f0	 push	 DWORD PTR _szTmp$[ebp]
  002c9	ff 75 ec	 push	 DWORD PTR _szKey$[ebp]
  002cc	68 00 00 00 00	 push	 OFFSET ??_C@_08DIPLEMAP@RunSetup@
  002d1	ff d7		 call	 edi

; 260  : 	szKey.Format("%s", "S2");

  002d3	68 00 00 00 00	 push	 OFFSET ??_C@_02IDDEOCHF@S2@
  002d8	8d 45 ec	 lea	 eax, DWORD PTR _szKey$[ebp]
  002db	68 00 00 00 00	 push	 OFFSET ??_C@_02DKCKIIND@?$CFs@
  002e0	50		 push	 eax
  002e1	ff d3		 call	 ebx
; File C:\Program Files (x86)\Microsoft Visual Studio\2019\Community\VC\Tools\MSVC\14.29.30133\atlmfc\include\afxwin2.inl

; 765  : 	{ ASSERT(::IsWindow(m_hWnd)); return (int)::SendMessage(m_hWnd, CB_GETCURSEL, 0, 0); }

  002e3	8b 45 e8	 mov	 eax, DWORD PTR _this$1$[ebp]
; File D:\git\src\IBK\IBK_DRFN\ProjSrc\SrcDrfn\Chart\STCONFIGUREDLG\TabRunSetup.cpp

; 260  : 	szKey.Format("%s", "S2");

  002e6	83 c4 0c	 add	 esp, 12			; 0000000cH
; File C:\Program Files (x86)\Microsoft Visual Studio\2019\Community\VC\Tools\MSVC\14.29.30133\atlmfc\include\afxwin2.inl

; 765  : 	{ ASSERT(::IsWindow(m_hWnd)); return (int)::SendMessage(m_hWnd, CB_GETCURSEL, 0, 0); }

  002e9	6a 00		 push	 0
  002eb	6a 00		 push	 0
  002ed	68 47 01 00 00	 push	 327			; 00000147H
  002f2	ff b0 10 05 00
	00		 push	 DWORD PTR [eax+1296]
  002f8	ff d6		 call	 esi
; File D:\git\src\IBK\IBK_DRFN\ProjSrc\SrcDrfn\Chart\STCONFIGUREDLG\TabRunSetup.cpp

; 261  : 	nSel = m_cbS2.GetCurSel();	if(nSel==CB_ERR) nSel=0;

  002fa	33 c9		 xor	 ecx, ecx
  002fc	83 f8 ff	 cmp	 eax, -1
  002ff	0f 44 c1	 cmove	 eax, ecx

; 262  : 	szTmp.Format("%d", nSel);

  00302	50		 push	 eax
  00303	8d 45 f0	 lea	 eax, DWORD PTR _szTmp$[ebp]
  00306	68 00 00 00 00	 push	 OFFSET ??_C@_02DPKJAMEF@?$CFd@
  0030b	50		 push	 eax
  0030c	ff d3		 call	 ebx

; 263  : 	::WritePrivateProfileString(STCONFIG_CLEAR, szKey, szTmp, m_szCFGFile);

  0030e	8b 45 e8	 mov	 eax, DWORD PTR _this$1$[ebp]
  00311	83 c4 0c	 add	 esp, 12			; 0000000cH
  00314	ff b0 a8 00 00
	00		 push	 DWORD PTR [eax+168]
  0031a	ff 75 f0	 push	 DWORD PTR _szTmp$[ebp]
  0031d	ff 75 ec	 push	 DWORD PTR _szKey$[ebp]
  00320	68 00 00 00 00	 push	 OFFSET ??_C@_08DIPLEMAP@RunSetup@
  00325	ff d7		 call	 edi

; 264  : 
; 265  : 	//  : C
; 266  : 	szKey.Format("CLR_%s", "2");

  00327	68 00 00 00 00	 push	 OFFSET ??_C@_01FDFGLJHB@2@
  0032c	8d 45 ec	 lea	 eax, DWORD PTR _szKey$[ebp]
  0032f	68 00 00 00 00	 push	 OFFSET ??_C@_06IEMDKIBD@CLR_?$CFs@
  00334	50		 push	 eax
  00335	ff d3		 call	 ebx

; 267  : 	szTmp.Format("%ld", m_btnC2.GetColor());

  00337	8b 45 e8	 mov	 eax, DWORD PTR _this$1$[ebp]
  0033a	ff b0 20 08 00
	00		 push	 DWORD PTR [eax+2080]
  00340	8d 45 f0	 lea	 eax, DWORD PTR _szTmp$[ebp]
  00343	68 00 00 00 00	 push	 OFFSET ??_C@_03JALODAI@?$CFld@
  00348	50		 push	 eax
  00349	ff d3		 call	 ebx

; 268  : 	::WritePrivateProfileString(STCONFIG_CLEAR, szKey, szTmp, m_szCFGFile);

  0034b	8b 45 e8	 mov	 eax, DWORD PTR _this$1$[ebp]
  0034e	83 c4 18	 add	 esp, 24			; 00000018H
  00351	ff b0 a8 00 00
	00		 push	 DWORD PTR [eax+168]
  00357	ff 75 f0	 push	 DWORD PTR _szTmp$[ebp]
  0035a	ff 75 ec	 push	 DWORD PTR _szKey$[ebp]
  0035d	68 00 00 00 00	 push	 OFFSET ??_C@_08DIPLEMAP@RunSetup@
  00362	ff d7		 call	 edi

; 269  : 
; 270  : 	//----------- 3 --------------------------
; 271  : 	//  
; 272  : 	szKey.Format("%s", "Chk3");

  00364	68 00 00 00 00	 push	 OFFSET ??_C@_04GIPFLEGG@Chk3@
  00369	8d 45 ec	 lea	 eax, DWORD PTR _szKey$[ebp]
  0036c	68 00 00 00 00	 push	 OFFSET ??_C@_02DKCKIIND@?$CFs@
  00371	50		 push	 eax
  00372	ff d3		 call	 ebx

; 273  : 	szTmp.Format("%d", IsDlgButtonChecked(IDC_CHK3));

  00374	8b 4d e8	 mov	 ecx, DWORD PTR _this$1$[ebp]
  00377	83 c4 0c	 add	 esp, 12			; 0000000cH
  0037a	68 62 71 00 00	 push	 29026			; 00007162H
  0037f	e8 00 00 00 00	 call	 ?IsDlgButtonChecked@CWnd@@QBEIH@Z ; CWnd::IsDlgButtonChecked
  00384	50		 push	 eax
  00385	8d 45 f0	 lea	 eax, DWORD PTR _szTmp$[ebp]
  00388	68 00 00 00 00	 push	 OFFSET ??_C@_02DPKJAMEF@?$CFd@
  0038d	50		 push	 eax
  0038e	ff d3		 call	 ebx

; 274  : 	::WritePrivateProfileString(STCONFIG_CLEAR, szKey, szTmp, m_szCFGFile);

  00390	8b 45 e8	 mov	 eax, DWORD PTR _this$1$[ebp]
  00393	83 c4 0c	 add	 esp, 12			; 0000000cH
  00396	ff b0 a8 00 00
	00		 push	 DWORD PTR [eax+168]
  0039c	ff 75 f0	 push	 DWORD PTR _szTmp$[ebp]
  0039f	ff 75 ec	 push	 DWORD PTR _szKey$[ebp]
  003a2	68 00 00 00 00	 push	 OFFSET ??_C@_08DIPLEMAP@RunSetup@
  003a7	ff d7		 call	 edi

; 275  : 
; 276  : 	szKey.Format("%s", "ED3");

  003a9	68 00 00 00 00	 push	 OFFSET ??_C@_03PBIJMIMA@ED3@
  003ae	8d 45 ec	 lea	 eax, DWORD PTR _szKey$[ebp]
  003b1	68 00 00 00 00	 push	 OFFSET ??_C@_02DKCKIIND@?$CFs@
  003b6	50		 push	 eax
  003b7	ff d3		 call	 ebx

; 277  : 	GetDlgItemText(IDC_ED_3, szTmp);

  003b9	8b 4d e8	 mov	 ecx, DWORD PTR _this$1$[ebp]
  003bc	8d 45 f0	 lea	 eax, DWORD PTR _szTmp$[ebp]
  003bf	83 c4 0c	 add	 esp, 12			; 0000000cH
  003c2	50		 push	 eax
  003c3	68 0b 52 00 00	 push	 21003			; 0000520bH
  003c8	e8 00 00 00 00	 call	 ?GetDlgItemTextA@CWnd@@QBEHHAAV?$CStringT@DV?$StrTraitMFC_DLL@DV?$ChTraitsCRT@D@ATL@@@@@ATL@@@Z ; CWnd::GetDlgItemTextA

; 278  : 	::WritePrivateProfileString(STCONFIG_CLEAR, szKey, szTmp, m_szCFGFile);

  003cd	8b 45 e8	 mov	 eax, DWORD PTR _this$1$[ebp]
  003d0	ff b0 a8 00 00
	00		 push	 DWORD PTR [eax+168]
  003d6	ff 75 f0	 push	 DWORD PTR _szTmp$[ebp]
  003d9	ff 75 ec	 push	 DWORD PTR _szKey$[ebp]
  003dc	68 00 00 00 00	 push	 OFFSET ??_C@_08DIPLEMAP@RunSetup@
  003e1	ff d7		 call	 edi

; 281  : 	szKey.Format("%s", "P3");

  003e3	68 00 00 00 00	 push	 OFFSET ??_C@_02JIGJGNGN@P3@
  003e8	8d 45 ec	 lea	 eax, DWORD PTR _szKey$[ebp]
  003eb	68 00 00 00 00	 push	 OFFSET ??_C@_02DKCKIIND@?$CFs@
  003f0	50		 push	 eax
  003f1	ff d3		 call	 ebx
; File C:\Program Files (x86)\Microsoft Visual Studio\2019\Community\VC\Tools\MSVC\14.29.30133\atlmfc\include\afxwin2.inl

; 765  : 	{ ASSERT(::IsWindow(m_hWnd)); return (int)::SendMessage(m_hWnd, CB_GETCURSEL, 0, 0); }

  003f3	8b 45 e8	 mov	 eax, DWORD PTR _this$1$[ebp]
; File D:\git\src\IBK\IBK_DRFN\ProjSrc\SrcDrfn\Chart\STCONFIGUREDLG\TabRunSetup.cpp

; 281  : 	szKey.Format("%s", "P3");

  003f6	83 c4 0c	 add	 esp, 12			; 0000000cH
; File C:\Program Files (x86)\Microsoft Visual Studio\2019\Community\VC\Tools\MSVC\14.29.30133\atlmfc\include\afxwin2.inl

; 765  : 	{ ASSERT(::IsWindow(m_hWnd)); return (int)::SendMessage(m_hWnd, CB_GETCURSEL, 0, 0); }

  003f9	6a 00		 push	 0
  003fb	6a 00		 push	 0
  003fd	68 47 01 00 00	 push	 327			; 00000147H
  00402	ff b0 e0 01 00
	00		 push	 DWORD PTR [eax+480]
  00408	ff d6		 call	 esi
; File D:\git\src\IBK\IBK_DRFN\ProjSrc\SrcDrfn\Chart\STCONFIGUREDLG\TabRunSetup.cpp

; 282  : 	nSel = m_cbP3.GetCurSel();	if(nSel==CB_ERR) nSel=0;

  0040a	33 c9		 xor	 ecx, ecx
  0040c	83 f8 ff	 cmp	 eax, -1
  0040f	0f 44 c1	 cmove	 eax, ecx

; 283  : 	szTmp.Format("%d", nSel);

  00412	50		 push	 eax
  00413	8d 45 f0	 lea	 eax, DWORD PTR _szTmp$[ebp]
  00416	68 00 00 00 00	 push	 OFFSET ??_C@_02DPKJAMEF@?$CFd@
  0041b	50		 push	 eax
  0041c	ff d3		 call	 ebx

; 284  : 	::WritePrivateProfileString(STCONFIG_CLEAR, szKey, szTmp, m_szCFGFile);

  0041e	8b 45 e8	 mov	 eax, DWORD PTR _this$1$[ebp]
  00421	83 c4 0c	 add	 esp, 12			; 0000000cH
  00424	ff b0 a8 00 00
	00		 push	 DWORD PTR [eax+168]
  0042a	ff 75 f0	 push	 DWORD PTR _szTmp$[ebp]
  0042d	ff 75 ec	 push	 DWORD PTR _szKey$[ebp]
  00430	68 00 00 00 00	 push	 OFFSET ??_C@_08DIPLEMAP@RunSetup@
  00435	ff d7		 call	 edi

; 285  : 
; 286  : 	//   : S
; 287  : 	szKey.Format("%s", "S3");

  00437	68 00 00 00 00	 push	 OFFSET ??_C@_02JKCPNDDE@S3@
  0043c	8d 45 ec	 lea	 eax, DWORD PTR _szKey$[ebp]
  0043f	68 00 00 00 00	 push	 OFFSET ??_C@_02DKCKIIND@?$CFs@
  00444	50		 push	 eax
  00445	ff d3		 call	 ebx
  00447	83 c4 0c	 add	 esp, 12			; 0000000cH
; File C:\Program Files (x86)\Microsoft Visual Studio\2019\Community\VC\Tools\MSVC\14.29.30133\atlmfc\include\afxwin2.inl

; 765  : 	{ ASSERT(::IsWindow(m_hWnd)); return (int)::SendMessage(m_hWnd, CB_GETCURSEL, 0, 0); }

  0044a	6a 00		 push	 0
  0044c	6a 00		 push	 0
  0044e	68 47 01 00 00	 push	 327			; 00000147H
  00453	8b 45 e8	 mov	 eax, DWORD PTR _this$1$[ebp]
  00456	ff b0 98 05 00
	00		 push	 DWORD PTR [eax+1432]
  0045c	ff d6		 call	 esi
; File D:\git\src\IBK\IBK_DRFN\ProjSrc\SrcDrfn\Chart\STCONFIGUREDLG\TabRunSetup.cpp

; 288  : 	nSel = m_cbS3.GetCurSel();	if(nSel==CB_ERR) nSel=0;

  0045e	33 c9		 xor	 ecx, ecx
  00460	83 f8 ff	 cmp	 eax, -1
  00463	0f 44 c1	 cmove	 eax, ecx

; 289  : 	szTmp.Format("%d", nSel);

  00466	50		 push	 eax
  00467	8d 45 f0	 lea	 eax, DWORD PTR _szTmp$[ebp]
  0046a	68 00 00 00 00	 push	 OFFSET ??_C@_02DPKJAMEF@?$CFd@
  0046f	50		 push	 eax
  00470	ff d3		 call	 ebx

; 290  : 	::WritePrivateProfileString(STCONFIG_CLEAR, szKey, szTmp, m_szCFGFile);

  00472	8b 45 e8	 mov	 eax, DWORD PTR _this$1$[ebp]
  00475	83 c4 0c	 add	 esp, 12			; 0000000cH
  00478	ff b0 a8 00 00
	00		 push	 DWORD PTR [eax+168]
  0047e	ff 75 f0	 push	 DWORD PTR _szTmp$[ebp]
  00481	ff 75 ec	 push	 DWORD PTR _szKey$[ebp]
  00484	68 00 00 00 00	 push	 OFFSET ??_C@_08DIPLEMAP@RunSetup@
  00489	ff d7		 call	 edi

; 291  : 
; 292  : 	//   : C
; 293  : 	szKey.Format("CLR_%s", "3");

  0048b	68 00 00 00 00	 push	 OFFSET ??_C@_01EKENIIDA@3@
  00490	8d 45 ec	 lea	 eax, DWORD PTR _szKey$[ebp]
  00493	68 00 00 00 00	 push	 OFFSET ??_C@_06IEMDKIBD@CLR_?$CFs@
  00498	50		 push	 eax
  00499	ff d3		 call	 ebx

; 294  : 	szTmp.Format("%ld", m_btnC3.GetColor());

  0049b	8b 45 e8	 mov	 eax, DWORD PTR _this$1$[ebp]
  0049e	ff b0 b0 08 00
	00		 push	 DWORD PTR [eax+2224]
  004a4	8d 45 f0	 lea	 eax, DWORD PTR _szTmp$[ebp]
  004a7	68 00 00 00 00	 push	 OFFSET ??_C@_03JALODAI@?$CFld@
  004ac	50		 push	 eax
  004ad	ff d3		 call	 ebx

; 295  : 	::WritePrivateProfileString(STCONFIG_CLEAR, szKey, szTmp, m_szCFGFile);

  004af	8b 45 e8	 mov	 eax, DWORD PTR _this$1$[ebp]
  004b2	83 c4 18	 add	 esp, 24			; 00000018H
  004b5	ff b0 a8 00 00
	00		 push	 DWORD PTR [eax+168]
  004bb	ff 75 f0	 push	 DWORD PTR _szTmp$[ebp]
  004be	ff 75 ec	 push	 DWORD PTR _szKey$[ebp]
  004c1	68 00 00 00 00	 push	 OFFSET ??_C@_08DIPLEMAP@RunSetup@
  004c6	ff d7		 call	 edi

; 296  : 
; 297  : 	//----------- 4 --------------------------
; 298  : 	//  
; 299  : 	szKey.Format("%s", "Chk4");

  004c8	68 00 00 00 00	 push	 OFFSET ??_C@_04CHLECCKB@Chk4@
  004cd	8d 45 ec	 lea	 eax, DWORD PTR _szKey$[ebp]
  004d0	68 00 00 00 00	 push	 OFFSET ??_C@_02DKCKIIND@?$CFs@
  004d5	50		 push	 eax
  004d6	ff d3		 call	 ebx

; 300  : 	szTmp.Format("%d", IsDlgButtonChecked(IDC_CHK4));

  004d8	8b 4d e8	 mov	 ecx, DWORD PTR _this$1$[ebp]
  004db	83 c4 0c	 add	 esp, 12			; 0000000cH
  004de	68 63 71 00 00	 push	 29027			; 00007163H
  004e3	e8 00 00 00 00	 call	 ?IsDlgButtonChecked@CWnd@@QBEIH@Z ; CWnd::IsDlgButtonChecked
  004e8	50		 push	 eax
  004e9	8d 45 f0	 lea	 eax, DWORD PTR _szTmp$[ebp]
  004ec	68 00 00 00 00	 push	 OFFSET ??_C@_02DPKJAMEF@?$CFd@
  004f1	50		 push	 eax
  004f2	ff d3		 call	 ebx

; 301  : 	::WritePrivateProfileString(STCONFIG_CLEAR, szKey, szTmp, m_szCFGFile);

  004f4	8b 45 e8	 mov	 eax, DWORD PTR _this$1$[ebp]
  004f7	83 c4 0c	 add	 esp, 12			; 0000000cH
  004fa	ff b0 a8 00 00
	00		 push	 DWORD PTR [eax+168]
  00500	ff 75 f0	 push	 DWORD PTR _szTmp$[ebp]
  00503	ff 75 ec	 push	 DWORD PTR _szKey$[ebp]
  00506	68 00 00 00 00	 push	 OFFSET ??_C@_08DIPLEMAP@RunSetup@
  0050b	ff d7		 call	 edi

; 302  : 
; 303  : 	szKey.Format("%s", "ED4");

  0050d	68 00 00 00 00	 push	 OFFSET ??_C@_03LOMIFOAH@ED4@
  00512	8d 45 ec	 lea	 eax, DWORD PTR _szKey$[ebp]
  00515	68 00 00 00 00	 push	 OFFSET ??_C@_02DKCKIIND@?$CFs@
  0051a	50		 push	 eax
  0051b	ff d3		 call	 ebx

; 304  : 	GetDlgItemText(IDC_ED_4, szTmp);

  0051d	8b 4d e8	 mov	 ecx, DWORD PTR _this$1$[ebp]
  00520	8d 45 f0	 lea	 eax, DWORD PTR _szTmp$[ebp]
  00523	83 c4 0c	 add	 esp, 12			; 0000000cH
  00526	50		 push	 eax
  00527	68 0c 52 00 00	 push	 21004			; 0000520cH
  0052c	e8 00 00 00 00	 call	 ?GetDlgItemTextA@CWnd@@QBEHHAAV?$CStringT@DV?$StrTraitMFC_DLL@DV?$ChTraitsCRT@D@ATL@@@@@ATL@@@Z ; CWnd::GetDlgItemTextA

; 305  : 	::WritePrivateProfileString(STCONFIG_CLEAR, szKey, szTmp, m_szCFGFile);

  00531	8b 45 e8	 mov	 eax, DWORD PTR _this$1$[ebp]
  00534	ff b0 a8 00 00
	00		 push	 DWORD PTR [eax+168]
  0053a	ff 75 f0	 push	 DWORD PTR _szTmp$[ebp]
  0053d	ff 75 ec	 push	 DWORD PTR _szKey$[ebp]
  00540	68 00 00 00 00	 push	 OFFSET ??_C@_08DIPLEMAP@RunSetup@
  00545	ff d7		 call	 edi

; 306  : 
; 307  : 	//   : P
; 308  : 	szKey.Format("%s", "P4");

  00547	68 00 00 00 00	 push	 OFFSET ??_C@_02NHCIPLKK@P4@
  0054c	8d 45 ec	 lea	 eax, DWORD PTR _szKey$[ebp]
  0054f	68 00 00 00 00	 push	 OFFSET ??_C@_02DKCKIIND@?$CFs@
  00554	50		 push	 eax
  00555	ff d3		 call	 ebx
  00557	83 c4 0c	 add	 esp, 12			; 0000000cH
; File C:\Program Files (x86)\Microsoft Visual Studio\2019\Community\VC\Tools\MSVC\14.29.30133\atlmfc\include\afxwin2.inl

; 765  : 	{ ASSERT(::IsWindow(m_hWnd)); return (int)::SendMessage(m_hWnd, CB_GETCURSEL, 0, 0); }

  0055a	6a 00		 push	 0
  0055c	8b 45 e8	 mov	 eax, DWORD PTR _this$1$[ebp]
  0055f	6a 00		 push	 0
  00561	68 47 01 00 00	 push	 327			; 00000147H
  00566	ff b0 68 02 00
	00		 push	 DWORD PTR [eax+616]
  0056c	ff d6		 call	 esi
; File D:\git\src\IBK\IBK_DRFN\ProjSrc\SrcDrfn\Chart\STCONFIGUREDLG\TabRunSetup.cpp

; 309  : 	nSel = m_cbP4.GetCurSel();	if(nSel==CB_ERR) nSel=0;

  0056e	33 c9		 xor	 ecx, ecx
  00570	83 f8 ff	 cmp	 eax, -1
  00573	0f 44 c1	 cmove	 eax, ecx

; 310  : 	szTmp.Format("%d", nSel);

  00576	50		 push	 eax
  00577	8d 45 f0	 lea	 eax, DWORD PTR _szTmp$[ebp]
  0057a	68 00 00 00 00	 push	 OFFSET ??_C@_02DPKJAMEF@?$CFd@
  0057f	50		 push	 eax
  00580	ff d3		 call	 ebx

; 311  : 	::WritePrivateProfileString(STCONFIG_CLEAR, szKey, szTmp, m_szCFGFile);

  00582	8b 45 e8	 mov	 eax, DWORD PTR _this$1$[ebp]
  00585	83 c4 0c	 add	 esp, 12			; 0000000cH
  00588	ff b0 a8 00 00
	00		 push	 DWORD PTR [eax+168]
  0058e	ff 75 f0	 push	 DWORD PTR _szTmp$[ebp]
  00591	ff 75 ec	 push	 DWORD PTR _szKey$[ebp]
  00594	68 00 00 00 00	 push	 OFFSET ??_C@_08DIPLEMAP@RunSetup@
  00599	ff d7		 call	 edi

; 314  : 	szKey.Format("%s", "S4");

  0059b	68 00 00 00 00	 push	 OFFSET ??_C@_02NFGOEFPD@S4@
  005a0	8d 45 ec	 lea	 eax, DWORD PTR _szKey$[ebp]
  005a3	68 00 00 00 00	 push	 OFFSET ??_C@_02DKCKIIND@?$CFs@
  005a8	50		 push	 eax
  005a9	ff d3		 call	 ebx
; File C:\Program Files (x86)\Microsoft Visual Studio\2019\Community\VC\Tools\MSVC\14.29.30133\atlmfc\include\afxwin2.inl

; 765  : 	{ ASSERT(::IsWindow(m_hWnd)); return (int)::SendMessage(m_hWnd, CB_GETCURSEL, 0, 0); }

  005ab	8b 45 e8	 mov	 eax, DWORD PTR _this$1$[ebp]
; File D:\git\src\IBK\IBK_DRFN\ProjSrc\SrcDrfn\Chart\STCONFIGUREDLG\TabRunSetup.cpp

; 314  : 	szKey.Format("%s", "S4");

  005ae	83 c4 0c	 add	 esp, 12			; 0000000cH
; File C:\Program Files (x86)\Microsoft Visual Studio\2019\Community\VC\Tools\MSVC\14.29.30133\atlmfc\include\afxwin2.inl

; 765  : 	{ ASSERT(::IsWindow(m_hWnd)); return (int)::SendMessage(m_hWnd, CB_GETCURSEL, 0, 0); }

  005b1	6a 00		 push	 0
  005b3	6a 00		 push	 0
  005b5	68 47 01 00 00	 push	 327			; 00000147H
  005ba	ff b0 20 06 00
	00		 push	 DWORD PTR [eax+1568]
  005c0	ff d6		 call	 esi
; File D:\git\src\IBK\IBK_DRFN\ProjSrc\SrcDrfn\Chart\STCONFIGUREDLG\TabRunSetup.cpp

; 315  : 	nSel = m_cbS4.GetCurSel();	if(nSel==CB_ERR) nSel=0;

  005c2	33 c9		 xor	 ecx, ecx
  005c4	83 f8 ff	 cmp	 eax, -1
  005c7	0f 44 c1	 cmove	 eax, ecx

; 316  : 	szTmp.Format("%d", nSel);

  005ca	50		 push	 eax
  005cb	8d 45 f0	 lea	 eax, DWORD PTR _szTmp$[ebp]
  005ce	68 00 00 00 00	 push	 OFFSET ??_C@_02DPKJAMEF@?$CFd@
  005d3	50		 push	 eax
  005d4	ff d3		 call	 ebx

; 317  : 	::WritePrivateProfileString(STCONFIG_CLEAR, szKey, szTmp, m_szCFGFile);

  005d6	8b 45 e8	 mov	 eax, DWORD PTR _this$1$[ebp]
  005d9	83 c4 0c	 add	 esp, 12			; 0000000cH
  005dc	ff b0 a8 00 00
	00		 push	 DWORD PTR [eax+168]
  005e2	ff 75 f0	 push	 DWORD PTR _szTmp$[ebp]
  005e5	ff 75 ec	 push	 DWORD PTR _szKey$[ebp]
  005e8	68 00 00 00 00	 push	 OFFSET ??_C@_08DIPLEMAP@RunSetup@
  005ed	ff d7		 call	 edi

; 318  : 
; 319  : 	//   : C
; 320  : 	szKey.Format("CLR_%s", "4");

  005ef	68 00 00 00 00	 push	 OFFSET ??_C@_01FAMBOPH@4@
  005f4	8d 45 ec	 lea	 eax, DWORD PTR _szKey$[ebp]
  005f7	68 00 00 00 00	 push	 OFFSET ??_C@_06IEMDKIBD@CLR_?$CFs@
  005fc	50		 push	 eax
  005fd	ff d3		 call	 ebx

; 321  : 	szTmp.Format("%ld", m_btnC4.GetColor());

  005ff	8b 45 e8	 mov	 eax, DWORD PTR _this$1$[ebp]
  00602	ff b0 40 09 00
	00		 push	 DWORD PTR [eax+2368]
  00608	8d 45 f0	 lea	 eax, DWORD PTR _szTmp$[ebp]
  0060b	68 00 00 00 00	 push	 OFFSET ??_C@_03JALODAI@?$CFld@
  00610	50		 push	 eax
  00611	ff d3		 call	 ebx

; 322  : 	::WritePrivateProfileString(STCONFIG_CLEAR, szKey, szTmp, m_szCFGFile);

  00613	8b 45 e8	 mov	 eax, DWORD PTR _this$1$[ebp]
  00616	83 c4 18	 add	 esp, 24			; 00000018H
  00619	ff b0 a8 00 00
	00		 push	 DWORD PTR [eax+168]
  0061f	ff 75 f0	 push	 DWORD PTR _szTmp$[ebp]
  00622	ff 75 ec	 push	 DWORD PTR _szKey$[ebp]
  00625	68 00 00 00 00	 push	 OFFSET ??_C@_08DIPLEMAP@RunSetup@
  0062a	ff d7		 call	 edi

; 323  : 
; 324  : 	//----------- 5 --------------------------
; 325  : 	// 
; 326  : 	szKey.Format("%s", "Chk5");

  0062c	68 00 00 00 00	 push	 OFFSET ??_C@_04DOKPBDOA@Chk5@
  00631	8d 45 ec	 lea	 eax, DWORD PTR _szKey$[ebp]
  00634	68 00 00 00 00	 push	 OFFSET ??_C@_02DKCKIIND@?$CFs@
  00639	50		 push	 eax
  0063a	ff d3		 call	 ebx

; 327  : 	szTmp.Format("%d", IsDlgButtonChecked(IDC_CHK5));

  0063c	8b 4d e8	 mov	 ecx, DWORD PTR _this$1$[ebp]
  0063f	83 c4 0c	 add	 esp, 12			; 0000000cH
  00642	68 64 71 00 00	 push	 29028			; 00007164H
  00647	e8 00 00 00 00	 call	 ?IsDlgButtonChecked@CWnd@@QBEIH@Z ; CWnd::IsDlgButtonChecked
  0064c	50		 push	 eax
  0064d	8d 45 f0	 lea	 eax, DWORD PTR _szTmp$[ebp]
  00650	68 00 00 00 00	 push	 OFFSET ??_C@_02DPKJAMEF@?$CFd@
  00655	50		 push	 eax
  00656	ff d3		 call	 ebx

; 328  : 	::WritePrivateProfileString(STCONFIG_CLEAR, szKey, szTmp, m_szCFGFile);

  00658	8b 45 e8	 mov	 eax, DWORD PTR _this$1$[ebp]
  0065b	83 c4 0c	 add	 esp, 12			; 0000000cH
  0065e	ff b0 a8 00 00
	00		 push	 DWORD PTR [eax+168]
  00664	ff 75 f0	 push	 DWORD PTR _szTmp$[ebp]
  00667	ff 75 ec	 push	 DWORD PTR _szKey$[ebp]
  0066a	68 00 00 00 00	 push	 OFFSET ??_C@_08DIPLEMAP@RunSetup@
  0066f	ff d7		 call	 edi

; 329  : 
; 330  : 	szKey.Format("%s", "ED5");

  00671	68 00 00 00 00	 push	 OFFSET ??_C@_03KHNDGPEG@ED5@
  00676	8d 45 ec	 lea	 eax, DWORD PTR _szKey$[ebp]
  00679	68 00 00 00 00	 push	 OFFSET ??_C@_02DKCKIIND@?$CFs@
  0067e	50		 push	 eax
  0067f	ff d3		 call	 ebx

; 331  : 	GetDlgItemText(IDC_ED_5, szTmp);

  00681	8b 4d e8	 mov	 ecx, DWORD PTR _this$1$[ebp]
  00684	8d 45 f0	 lea	 eax, DWORD PTR _szTmp$[ebp]
  00687	83 c4 0c	 add	 esp, 12			; 0000000cH
  0068a	50		 push	 eax
  0068b	68 0d 52 00 00	 push	 21005			; 0000520dH
  00690	e8 00 00 00 00	 call	 ?GetDlgItemTextA@CWnd@@QBEHHAAV?$CStringT@DV?$StrTraitMFC_DLL@DV?$ChTraitsCRT@D@ATL@@@@@ATL@@@Z ; CWnd::GetDlgItemTextA

; 332  : 	::WritePrivateProfileString(STCONFIG_CLEAR, szKey, szTmp, m_szCFGFile);

  00695	8b 45 e8	 mov	 eax, DWORD PTR _this$1$[ebp]
  00698	ff b0 a8 00 00
	00		 push	 DWORD PTR [eax+168]
  0069e	ff 75 f0	 push	 DWORD PTR _szTmp$[ebp]
  006a1	ff 75 ec	 push	 DWORD PTR _szKey$[ebp]
  006a4	68 00 00 00 00	 push	 OFFSET ??_C@_08DIPLEMAP@RunSetup@
  006a9	ff d7		 call	 edi

; 335  : 	szKey.Format("%s", "P5");

  006ab	68 00 00 00 00	 push	 OFFSET ??_C@_02MODDMKOL@P5@
  006b0	8d 45 ec	 lea	 eax, DWORD PTR _szKey$[ebp]
  006b3	68 00 00 00 00	 push	 OFFSET ??_C@_02DKCKIIND@?$CFs@
  006b8	50		 push	 eax
  006b9	ff d3		 call	 ebx
; File C:\Program Files (x86)\Microsoft Visual Studio\2019\Community\VC\Tools\MSVC\14.29.30133\atlmfc\include\afxwin2.inl

; 765  : 	{ ASSERT(::IsWindow(m_hWnd)); return (int)::SendMessage(m_hWnd, CB_GETCURSEL, 0, 0); }

  006bb	8b 45 e8	 mov	 eax, DWORD PTR _this$1$[ebp]
; File D:\git\src\IBK\IBK_DRFN\ProjSrc\SrcDrfn\Chart\STCONFIGUREDLG\TabRunSetup.cpp

; 335  : 	szKey.Format("%s", "P5");

  006be	83 c4 0c	 add	 esp, 12			; 0000000cH
; File C:\Program Files (x86)\Microsoft Visual Studio\2019\Community\VC\Tools\MSVC\14.29.30133\atlmfc\include\afxwin2.inl

; 765  : 	{ ASSERT(::IsWindow(m_hWnd)); return (int)::SendMessage(m_hWnd, CB_GETCURSEL, 0, 0); }

  006c1	6a 00		 push	 0
  006c3	6a 00		 push	 0
  006c5	68 47 01 00 00	 push	 327			; 00000147H
  006ca	ff b0 f0 02 00
	00		 push	 DWORD PTR [eax+752]
  006d0	ff d6		 call	 esi
; File D:\git\src\IBK\IBK_DRFN\ProjSrc\SrcDrfn\Chart\STCONFIGUREDLG\TabRunSetup.cpp

; 336  : 	nSel = m_cbP5.GetCurSel();	if(nSel==CB_ERR) nSel=0;

  006d2	33 c9		 xor	 ecx, ecx
  006d4	83 f8 ff	 cmp	 eax, -1
  006d7	0f 44 c1	 cmove	 eax, ecx

; 337  : 	szTmp.Format("%d", nSel);

  006da	50		 push	 eax
  006db	8d 45 f0	 lea	 eax, DWORD PTR _szTmp$[ebp]
  006de	68 00 00 00 00	 push	 OFFSET ??_C@_02DPKJAMEF@?$CFd@
  006e3	50		 push	 eax
  006e4	ff d3		 call	 ebx

; 338  : 	::WritePrivateProfileString(STCONFIG_CLEAR, szKey, szTmp, m_szCFGFile);

  006e6	8b 45 e8	 mov	 eax, DWORD PTR _this$1$[ebp]
  006e9	83 c4 0c	 add	 esp, 12			; 0000000cH
  006ec	ff b0 a8 00 00
	00		 push	 DWORD PTR [eax+168]
  006f2	ff 75 f0	 push	 DWORD PTR _szTmp$[ebp]
  006f5	ff 75 ec	 push	 DWORD PTR _szKey$[ebp]
  006f8	68 00 00 00 00	 push	 OFFSET ??_C@_08DIPLEMAP@RunSetup@
  006fd	ff d7		 call	 edi

; 339  : 
; 340  : 	//  : S
; 341  : 
; 342  : 	// 
; 343  : 	szKey.Format("%s", "Bong");

  006ff	68 00 00 00 00	 push	 OFFSET ??_C@_04BAFOPPNE@Bong@
  00704	8d 45 ec	 lea	 eax, DWORD PTR _szKey$[ebp]
  00707	68 00 00 00 00	 push	 OFFSET ??_C@_02DKCKIIND@?$CFs@
  0070c	50		 push	 eax
  0070d	ff d3		 call	 ebx

; 344  : 	GetDlgItemText(IDC_ED_BONG, szTmp);

  0070f	8b 4d e8	 mov	 ecx, DWORD PTR _this$1$[ebp]
  00712	8d 45 f0	 lea	 eax, DWORD PTR _szTmp$[ebp]
  00715	83 c4 0c	 add	 esp, 12			; 0000000cH
  00718	50		 push	 eax
  00719	68 0f 52 00 00	 push	 21007			; 0000520fH
  0071e	e8 00 00 00 00	 call	 ?GetDlgItemTextA@CWnd@@QBEHHAAV?$CStringT@DV?$StrTraitMFC_DLL@DV?$ChTraitsCRT@D@ATL@@@@@ATL@@@Z ; CWnd::GetDlgItemTextA

; 345  : 	::WritePrivateProfileString(STCONFIG_CLEAR, szKey, szTmp, m_szCFGFile);

  00723	8b 45 e8	 mov	 eax, DWORD PTR _this$1$[ebp]
  00726	ff b0 a8 00 00
	00		 push	 DWORD PTR [eax+168]
  0072c	ff 75 f0	 push	 DWORD PTR _szTmp$[ebp]
  0072f	ff 75 ec	 push	 DWORD PTR _szKey$[ebp]
  00732	68 00 00 00 00	 push	 OFFSET ??_C@_08DIPLEMAP@RunSetup@
  00737	ff d7		 call	 edi

; 346  : 
; 347  : 
; 348  : 	//----------- 6 --------------------------
; 349  : 	//
; 350  : 	szKey.Format("%s", "Chk6");

  00739	68 00 00 00 00	 push	 OFFSET ??_C@_04BFICEACD@Chk6@
  0073e	8d 45 ec	 lea	 eax, DWORD PTR _szKey$[ebp]
  00741	68 00 00 00 00	 push	 OFFSET ??_C@_02DKCKIIND@?$CFs@
  00746	50		 push	 eax
  00747	ff d3		 call	 ebx

; 351  : 	szTmp.Format("%d", IsDlgButtonChecked(IDC_CHK6));

  00749	8b 4d e8	 mov	 ecx, DWORD PTR _this$1$[ebp]
  0074c	83 c4 0c	 add	 esp, 12			; 0000000cH
  0074f	68 65 71 00 00	 push	 29029			; 00007165H
  00754	e8 00 00 00 00	 call	 ?IsDlgButtonChecked@CWnd@@QBEIH@Z ; CWnd::IsDlgButtonChecked
  00759	50		 push	 eax
  0075a	8d 45 f0	 lea	 eax, DWORD PTR _szTmp$[ebp]
  0075d	68 00 00 00 00	 push	 OFFSET ??_C@_02DPKJAMEF@?$CFd@
  00762	50		 push	 eax
  00763	ff d3		 call	 ebx
  00765	83 c4 0c	 add	 esp, 12			; 0000000cH

; 352  : 	::WritePrivateProfileString(STCONFIG_CLEAR, szKey, szTmp, m_szCFGFile);

  00768	8b 45 e8	 mov	 eax, DWORD PTR _this$1$[ebp]
  0076b	ff b0 a8 00 00
	00		 push	 DWORD PTR [eax+168]
  00771	ff 75 f0	 push	 DWORD PTR _szTmp$[ebp]
  00774	ff 75 ec	 push	 DWORD PTR _szKey$[ebp]
  00777	68 00 00 00 00	 push	 OFFSET ??_C@_08DIPLEMAP@RunSetup@
  0077c	ff d7		 call	 edi

; 356  : 	szKey.Format("%s", "TimeA");

  0077e	68 00 00 00 00	 push	 OFFSET ??_C@_05CDDCFJNA@TimeA@
  00783	8d 45 ec	 lea	 eax, DWORD PTR _szKey$[ebp]
  00786	68 00 00 00 00	 push	 OFFSET ??_C@_02DKCKIIND@?$CFs@
  0078b	50		 push	 eax
  0078c	ff d3		 call	 ebx
; File C:\Program Files (x86)\Microsoft Visual Studio\2019\Community\VC\Tools\MSVC\14.29.30133\atlmfc\include\afxwin2.inl

; 765  : 	{ ASSERT(::IsWindow(m_hWnd)); return (int)::SendMessage(m_hWnd, CB_GETCURSEL, 0, 0); }

  0078e	8b 45 e8	 mov	 eax, DWORD PTR _this$1$[ebp]
; File D:\git\src\IBK\IBK_DRFN\ProjSrc\SrcDrfn\Chart\STCONFIGUREDLG\TabRunSetup.cpp

; 356  : 	szKey.Format("%s", "TimeA");

  00791	83 c4 0c	 add	 esp, 12			; 0000000cH
; File C:\Program Files (x86)\Microsoft Visual Studio\2019\Community\VC\Tools\MSVC\14.29.30133\atlmfc\include\afxwin2.inl

; 765  : 	{ ASSERT(::IsWindow(m_hWnd)); return (int)::SendMessage(m_hWnd, CB_GETCURSEL, 0, 0); }

  00794	6a 00		 push	 0
  00796	6a 00		 push	 0
  00798	68 47 01 00 00	 push	 327			; 00000147H
  0079d	ff b0 00 0a 00
	00		 push	 DWORD PTR [eax+2560]
  007a3	ff d6		 call	 esi
; File D:\git\src\IBK\IBK_DRFN\ProjSrc\SrcDrfn\Chart\STCONFIGUREDLG\TabRunSetup.cpp

; 357  : 	nSel = m_cbTime.GetCurSel();	if(nSel==CB_ERR) nSel=0;

  007a5	33 c9		 xor	 ecx, ecx
  007a7	83 f8 ff	 cmp	 eax, -1
  007aa	0f 44 c1	 cmove	 eax, ecx

; 358  : 	szTmp.Format("%d", nSel);

  007ad	50		 push	 eax
  007ae	8d 45 f0	 lea	 eax, DWORD PTR _szTmp$[ebp]
  007b1	68 00 00 00 00	 push	 OFFSET ??_C@_02DPKJAMEF@?$CFd@
  007b6	50		 push	 eax
  007b7	ff d3		 call	 ebx

; 359  : 	::WritePrivateProfileString(STCONFIG_CLEAR, szKey, szTmp, m_szCFGFile);

  007b9	8b 45 e8	 mov	 eax, DWORD PTR _this$1$[ebp]
  007bc	83 c4 0c	 add	 esp, 12			; 0000000cH
  007bf	ff b0 a8 00 00
	00		 push	 DWORD PTR [eax+168]
  007c5	ff 75 f0	 push	 DWORD PTR _szTmp$[ebp]
  007c8	ff 75 ec	 push	 DWORD PTR _szKey$[ebp]
  007cb	68 00 00 00 00	 push	 OFFSET ??_C@_08DIPLEMAP@RunSetup@
  007d0	ff d7		 call	 edi

; 360  : 
; 361  : 	// 
; 362  : 	szKey.Format("%s", "ED_Time");

  007d2	68 00 00 00 00	 push	 OFFSET ??_C@_07GFAEBBEE@ED_Time@
  007d7	8d 45 ec	 lea	 eax, DWORD PTR _szKey$[ebp]
  007da	68 00 00 00 00	 push	 OFFSET ??_C@_02DKCKIIND@?$CFs@
  007df	50		 push	 eax
  007e0	ff d3		 call	 ebx

; 363  : 	GetDlgItemText(IDC_ED_TIME, szTmp);

  007e2	8b 4d e8	 mov	 ecx, DWORD PTR _this$1$[ebp]
  007e5	8d 45 f0	 lea	 eax, DWORD PTR _szTmp$[ebp]
  007e8	83 c4 0c	 add	 esp, 12			; 0000000cH
  007eb	50		 push	 eax
  007ec	68 0e 52 00 00	 push	 21006			; 0000520eH
  007f1	e8 00 00 00 00	 call	 ?GetDlgItemTextA@CWnd@@QBEHHAAV?$CStringT@DV?$StrTraitMFC_DLL@DV?$ChTraitsCRT@D@ATL@@@@@ATL@@@Z ; CWnd::GetDlgItemTextA

; 364  : 	::WritePrivateProfileString(STCONFIG_CLEAR, szKey, szTmp, m_szCFGFile);

  007f6	8b 45 e8	 mov	 eax, DWORD PTR _this$1$[ebp]
  007f9	ff b0 a8 00 00
	00		 push	 DWORD PTR [eax+168]
  007ff	ff 75 f0	 push	 DWORD PTR _szTmp$[ebp]
  00802	ff 75 ec	 push	 DWORD PTR _szKey$[ebp]
  00805	68 00 00 00 00	 push	 OFFSET ??_C@_08DIPLEMAP@RunSetup@
  0080a	ff d7		 call	 edi

; 365  : 
; 366  : 	//----------- 7 --------------------------
; 367  : 	//  
; 368  : 	szKey.Format("%s", "Chk7");

  0080c	68 00 00 00 00	 push	 OFFSET ??_C@_04MJJHBGC@Chk7@
  00811	8d 45 ec	 lea	 eax, DWORD PTR _szKey$[ebp]
  00814	68 00 00 00 00	 push	 OFFSET ??_C@_02DKCKIIND@?$CFs@
  00819	50		 push	 eax
  0081a	ff d3		 call	 ebx

; 369  : 	szTmp.Format("%d", IsDlgButtonChecked(IDC_CHK7));

  0081c	8b 4d e8	 mov	 ecx, DWORD PTR _this$1$[ebp]
  0081f	83 c4 0c	 add	 esp, 12			; 0000000cH
  00822	68 11 52 00 00	 push	 21009			; 00005211H
  00827	e8 00 00 00 00	 call	 ?IsDlgButtonChecked@CWnd@@QBEIH@Z ; CWnd::IsDlgButtonChecked
  0082c	50		 push	 eax
  0082d	8d 45 f0	 lea	 eax, DWORD PTR _szTmp$[ebp]
  00830	68 00 00 00 00	 push	 OFFSET ??_C@_02DPKJAMEF@?$CFd@
  00835	50		 push	 eax
  00836	ff d3		 call	 ebx

; 370  : 	::WritePrivateProfileString(STCONFIG_CLEAR, szKey, szTmp, m_szCFGFile);

  00838	8b 45 e8	 mov	 eax, DWORD PTR _this$1$[ebp]
  0083b	83 c4 0c	 add	 esp, 12			; 0000000cH
  0083e	ff b0 a8 00 00
	00		 push	 DWORD PTR [eax+168]
  00844	ff 75 f0	 push	 DWORD PTR _szTmp$[ebp]
  00847	ff 75 ec	 push	 DWORD PTR _szKey$[ebp]
  0084a	68 00 00 00 00	 push	 OFFSET ??_C@_08DIPLEMAP@RunSetup@
  0084f	ff d7		 call	 edi

; 371  : 
; 372  : 	szKey.Format("%s", "ED6");

  00851	68 00 00 00 00	 push	 OFFSET ??_C@_03IMPODMIF@ED6@
  00856	8d 45 ec	 lea	 eax, DWORD PTR _szKey$[ebp]
  00859	68 00 00 00 00	 push	 OFFSET ??_C@_02DKCKIIND@?$CFs@
  0085e	50		 push	 eax
  0085f	ff d3		 call	 ebx

; 373  : 	GetDlgItemText(IDC_ED_6, szTmp);

  00861	8b 4d e8	 mov	 ecx, DWORD PTR _this$1$[ebp]
  00864	8d 45 f0	 lea	 eax, DWORD PTR _szTmp$[ebp]
  00867	83 c4 0c	 add	 esp, 12			; 0000000cH
  0086a	50		 push	 eax
  0086b	68 7d 71 00 00	 push	 29053			; 0000717dH
  00870	e8 00 00 00 00	 call	 ?GetDlgItemTextA@CWnd@@QBEHHAAV?$CStringT@DV?$StrTraitMFC_DLL@DV?$ChTraitsCRT@D@ATL@@@@@ATL@@@Z ; CWnd::GetDlgItemTextA

; 374  : 	::WritePrivateProfileString(STCONFIG_CLEAR, szKey, szTmp, m_szCFGFile);

  00875	8b 45 e8	 mov	 eax, DWORD PTR _this$1$[ebp]
  00878	ff b0 a8 00 00
	00		 push	 DWORD PTR [eax+168]
  0087e	ff 75 f0	 push	 DWORD PTR _szTmp$[ebp]
  00881	ff 75 ec	 push	 DWORD PTR _szKey$[ebp]
  00884	68 00 00 00 00	 push	 OFFSET ??_C@_08DIPLEMAP@RunSetup@
  00889	ff d7		 call	 edi

; 375  : 
; 376  : 	szKey.Format("%s", "ED7");

  0088b	68 00 00 00 00	 push	 OFFSET ??_C@_03JFOFANME@ED7@
  00890	8d 45 ec	 lea	 eax, DWORD PTR _szKey$[ebp]
  00893	68 00 00 00 00	 push	 OFFSET ??_C@_02DKCKIIND@?$CFs@
  00898	50		 push	 eax
  00899	ff d3		 call	 ebx

; 377  : 	GetDlgItemText(IDC_ED_7, szTmp);

  0089b	8b 4d e8	 mov	 ecx, DWORD PTR _this$1$[ebp]
  0089e	8d 45 f0	 lea	 eax, DWORD PTR _szTmp$[ebp]
  008a1	83 c4 0c	 add	 esp, 12			; 0000000cH
  008a4	50		 push	 eax
  008a5	68 7e 71 00 00	 push	 29054			; 0000717eH
  008aa	e8 00 00 00 00	 call	 ?GetDlgItemTextA@CWnd@@QBEHHAAV?$CStringT@DV?$StrTraitMFC_DLL@DV?$ChTraitsCRT@D@ATL@@@@@ATL@@@Z ; CWnd::GetDlgItemTextA

; 378  : 	::WritePrivateProfileString(STCONFIG_CLEAR, szKey, szTmp, m_szCFGFile);

  008af	8b 45 e8	 mov	 eax, DWORD PTR _this$1$[ebp]
  008b2	ff b0 a8 00 00
	00		 push	 DWORD PTR [eax+168]
  008b8	ff 75 f0	 push	 DWORD PTR _szTmp$[ebp]
  008bb	ff 75 ec	 push	 DWORD PTR _szKey$[ebp]
  008be	68 00 00 00 00	 push	 OFFSET ??_C@_08DIPLEMAP@RunSetup@
  008c3	ff d7		 call	 edi

; 381  : 	szKey.Format("%s", "P6");

  008c5	68 00 00 00 00	 push	 OFFSET ??_C@_02OFBOJJCI@P6@
  008ca	8d 45 ec	 lea	 eax, DWORD PTR _szKey$[ebp]
  008cd	68 00 00 00 00	 push	 OFFSET ??_C@_02DKCKIIND@?$CFs@
  008d2	50		 push	 eax
  008d3	ff d3		 call	 ebx
; File C:\Program Files (x86)\Microsoft Visual Studio\2019\Community\VC\Tools\MSVC\14.29.30133\atlmfc\include\afxwin2.inl

; 765  : 	{ ASSERT(::IsWindow(m_hWnd)); return (int)::SendMessage(m_hWnd, CB_GETCURSEL, 0, 0); }

  008d5	8b 45 e8	 mov	 eax, DWORD PTR _this$1$[ebp]
; File D:\git\src\IBK\IBK_DRFN\ProjSrc\SrcDrfn\Chart\STCONFIGUREDLG\TabRunSetup.cpp

; 381  : 	szKey.Format("%s", "P6");

  008d8	83 c4 0c	 add	 esp, 12			; 0000000cH
; File C:\Program Files (x86)\Microsoft Visual Studio\2019\Community\VC\Tools\MSVC\14.29.30133\atlmfc\include\afxwin2.inl

; 765  : 	{ ASSERT(::IsWindow(m_hWnd)); return (int)::SendMessage(m_hWnd, CB_GETCURSEL, 0, 0); }

  008db	6a 00		 push	 0
  008dd	6a 00		 push	 0
  008df	68 47 01 00 00	 push	 327			; 00000147H
  008e4	ff b0 78 03 00
	00		 push	 DWORD PTR [eax+888]
  008ea	ff d6		 call	 esi
; File D:\git\src\IBK\IBK_DRFN\ProjSrc\SrcDrfn\Chart\STCONFIGUREDLG\TabRunSetup.cpp

; 382  : 	nSel = m_cbP6.GetCurSel();	if(nSel==CB_ERR) nSel=0;

  008ec	33 c9		 xor	 ecx, ecx
  008ee	83 f8 ff	 cmp	 eax, -1
  008f1	0f 44 c1	 cmove	 eax, ecx

; 383  : 	szTmp.Format("%d", nSel);

  008f4	50		 push	 eax
  008f5	8d 45 f0	 lea	 eax, DWORD PTR _szTmp$[ebp]
  008f8	68 00 00 00 00	 push	 OFFSET ??_C@_02DPKJAMEF@?$CFd@
  008fd	50		 push	 eax
  008fe	ff d3		 call	 ebx

; 384  : 	::WritePrivateProfileString(STCONFIG_CLEAR, szKey, szTmp, m_szCFGFile);

  00900	8b 45 e8	 mov	 eax, DWORD PTR _this$1$[ebp]
  00903	83 c4 0c	 add	 esp, 12			; 0000000cH
  00906	ff b0 a8 00 00
	00		 push	 DWORD PTR [eax+168]
  0090c	ff 75 f0	 push	 DWORD PTR _szTmp$[ebp]
  0090f	ff 75 ec	 push	 DWORD PTR _szKey$[ebp]
  00912	68 00 00 00 00	 push	 OFFSET ??_C@_08DIPLEMAP@RunSetup@
  00917	ff d7		 call	 edi

; 387  : 	szKey.Format("%s", "P7");

  00919	68 00 00 00 00	 push	 OFFSET ??_C@_02PMAFKIGJ@P7@
  0091e	8d 45 ec	 lea	 eax, DWORD PTR _szKey$[ebp]
  00921	68 00 00 00 00	 push	 OFFSET ??_C@_02DKCKIIND@?$CFs@
  00926	50		 push	 eax
  00927	ff d3		 call	 ebx
; File C:\Program Files (x86)\Microsoft Visual Studio\2019\Community\VC\Tools\MSVC\14.29.30133\atlmfc\include\afxwin2.inl

; 765  : 	{ ASSERT(::IsWindow(m_hWnd)); return (int)::SendMessage(m_hWnd, CB_GETCURSEL, 0, 0); }

  00929	8b 45 e8	 mov	 eax, DWORD PTR _this$1$[ebp]
; File D:\git\src\IBK\IBK_DRFN\ProjSrc\SrcDrfn\Chart\STCONFIGUREDLG\TabRunSetup.cpp

; 387  : 	szKey.Format("%s", "P7");

  0092c	83 c4 0c	 add	 esp, 12			; 0000000cH
; File C:\Program Files (x86)\Microsoft Visual Studio\2019\Community\VC\Tools\MSVC\14.29.30133\atlmfc\include\afxwin2.inl

; 765  : 	{ ASSERT(::IsWindow(m_hWnd)); return (int)::SendMessage(m_hWnd, CB_GETCURSEL, 0, 0); }

  0092f	6a 00		 push	 0
  00931	6a 00		 push	 0
  00933	68 47 01 00 00	 push	 327			; 00000147H
  00938	ff b0 00 04 00
	00		 push	 DWORD PTR [eax+1024]
  0093e	ff d6		 call	 esi
; File D:\git\src\IBK\IBK_DRFN\ProjSrc\SrcDrfn\Chart\STCONFIGUREDLG\TabRunSetup.cpp

; 388  : 	nSel = m_cbP7.GetCurSel();	if(nSel==CB_ERR) nSel=0;

  00940	33 c9		 xor	 ecx, ecx
  00942	83 f8 ff	 cmp	 eax, -1
  00945	0f 44 c1	 cmove	 eax, ecx

; 389  : 	szTmp.Format("%d", nSel);

  00948	50		 push	 eax
  00949	8d 45 f0	 lea	 eax, DWORD PTR _szTmp$[ebp]
  0094c	68 00 00 00 00	 push	 OFFSET ??_C@_02DPKJAMEF@?$CFd@
  00951	50		 push	 eax
  00952	ff d3		 call	 ebx

; 390  : 	::WritePrivateProfileString(STCONFIG_CLEAR, szKey, szTmp, m_szCFGFile);

  00954	8b 45 e8	 mov	 eax, DWORD PTR _this$1$[ebp]
  00957	83 c4 0c	 add	 esp, 12			; 0000000cH
  0095a	ff b0 a8 00 00
	00		 push	 DWORD PTR [eax+168]
  00960	ff 75 f0	 push	 DWORD PTR _szTmp$[ebp]
  00963	ff 75 ec	 push	 DWORD PTR _szKey$[ebp]
  00966	68 00 00 00 00	 push	 OFFSET ??_C@_08DIPLEMAP@RunSetup@
  0096b	ff d7		 call	 edi

; 393  : 	szKey.Format("%s", "S5");

  0096d	68 00 00 00 00	 push	 OFFSET ??_C@_02MMHFHELC@S5@
  00972	68 00 00 00 00	 push	 OFFSET ??_C@_02DKCKIIND@?$CFs@
  00977	8d 45 ec	 lea	 eax, DWORD PTR _szKey$[ebp]
  0097a	50		 push	 eax
  0097b	ff d3		 call	 ebx
; File C:\Program Files (x86)\Microsoft Visual Studio\2019\Community\VC\Tools\MSVC\14.29.30133\atlmfc\include\afxwin2.inl

; 765  : 	{ ASSERT(::IsWindow(m_hWnd)); return (int)::SendMessage(m_hWnd, CB_GETCURSEL, 0, 0); }

  0097d	8b 45 e8	 mov	 eax, DWORD PTR _this$1$[ebp]
; File D:\git\src\IBK\IBK_DRFN\ProjSrc\SrcDrfn\Chart\STCONFIGUREDLG\TabRunSetup.cpp

; 393  : 	szKey.Format("%s", "S5");

  00980	83 c4 0c	 add	 esp, 12			; 0000000cH
; File C:\Program Files (x86)\Microsoft Visual Studio\2019\Community\VC\Tools\MSVC\14.29.30133\atlmfc\include\afxwin2.inl

; 765  : 	{ ASSERT(::IsWindow(m_hWnd)); return (int)::SendMessage(m_hWnd, CB_GETCURSEL, 0, 0); }

  00983	6a 00		 push	 0
  00985	6a 00		 push	 0
  00987	68 47 01 00 00	 push	 327			; 00000147H
  0098c	ff b0 a8 06 00
	00		 push	 DWORD PTR [eax+1704]
  00992	ff d6		 call	 esi
; File D:\git\src\IBK\IBK_DRFN\ProjSrc\SrcDrfn\Chart\STCONFIGUREDLG\TabRunSetup.cpp

; 394  : 	nSel = m_cbS5.GetCurSel();	if(nSel==CB_ERR) nSel=0;

  00994	33 c9		 xor	 ecx, ecx
  00996	83 f8 ff	 cmp	 eax, -1
  00999	0f 44 c1	 cmove	 eax, ecx

; 395  : 	szTmp.Format("%d", nSel);

  0099c	50		 push	 eax
  0099d	8d 45 f0	 lea	 eax, DWORD PTR _szTmp$[ebp]
  009a0	68 00 00 00 00	 push	 OFFSET ??_C@_02DPKJAMEF@?$CFd@
  009a5	50		 push	 eax
  009a6	ff d3		 call	 ebx

; 396  : 	::WritePrivateProfileString(STCONFIG_CLEAR, szKey, szTmp, m_szCFGFile);

  009a8	8b 75 e8	 mov	 esi, DWORD PTR _this$1$[ebp]
  009ab	83 c4 0c	 add	 esp, 12			; 0000000cH
  009ae	ff b6 a8 00 00
	00		 push	 DWORD PTR [esi+168]
  009b4	ff 75 f0	 push	 DWORD PTR _szTmp$[ebp]
  009b7	ff 75 ec	 push	 DWORD PTR _szKey$[ebp]
  009ba	68 00 00 00 00	 push	 OFFSET ??_C@_08DIPLEMAP@RunSetup@
  009bf	ff d7		 call	 edi

; 397  : 
; 398  : 	//   : C
; 399  : 	szKey.Format("CLR_%s", "5");

  009c1	68 00 00 00 00	 push	 OFFSET ??_C@_01BMBHCPLG@5@
  009c6	8d 45 ec	 lea	 eax, DWORD PTR _szKey$[ebp]
  009c9	68 00 00 00 00	 push	 OFFSET ??_C@_06IEMDKIBD@CLR_?$CFs@
  009ce	50		 push	 eax
  009cf	ff d3		 call	 ebx

; 400  : 	szTmp.Format("%ld", m_btnC5.GetColor());

  009d1	ff b6 d0 09 00
	00		 push	 DWORD PTR [esi+2512]
  009d7	8d 45 f0	 lea	 eax, DWORD PTR _szTmp$[ebp]
  009da	68 00 00 00 00	 push	 OFFSET ??_C@_03JALODAI@?$CFld@
  009df	50		 push	 eax
  009e0	ff d3		 call	 ebx
  009e2	83 c4 18	 add	 esp, 24			; 00000018H

; 401  : 	::WritePrivateProfileString(STCONFIG_CLEAR, szKey, szTmp, m_szCFGFile);

  009e5	ff b6 a8 00 00
	00		 push	 DWORD PTR [esi+168]
  009eb	ff 75 f0	 push	 DWORD PTR _szTmp$[ebp]
  009ee	ff 75 ec	 push	 DWORD PTR _szKey$[ebp]
  009f1	68 00 00 00 00	 push	 OFFSET ??_C@_08DIPLEMAP@RunSetup@
  009f6	ff d7		 call	 edi

; 402  : 
; 403  : 	return TRUE;

  009f8	8d 4d f0	 lea	 ecx, DWORD PTR _szTmp$[ebp]
  009fb	ff 15 00 00 00
	00		 call	 DWORD PTR __imp_??1?$CStringT@DV?$StrTraitMFC_DLL@DV?$ChTraitsCRT@D@ATL@@@@@ATL@@QAE@XZ
  00a01	8d 4d ec	 lea	 ecx, DWORD PTR _szKey$[ebp]
  00a04	ff 15 00 00 00
	00		 call	 DWORD PTR __imp_??1?$CStringT@DV?$StrTraitMFC_DLL@DV?$ChTraitsCRT@D@ATL@@@@@ATL@@QAE@XZ
  00a0a	b8 01 00 00 00	 mov	 eax, 1

; 404  : }

  00a0f	8b 4d f4	 mov	 ecx, DWORD PTR __$EHRec$[ebp]
  00a12	64 89 0d 00 00
	00 00		 mov	 DWORD PTR fs:0, ecx
  00a19	59		 pop	 ecx
  00a1a	5f		 pop	 edi
  00a1b	5e		 pop	 esi
  00a1c	5b		 pop	 ebx
  00a1d	8b e5		 mov	 esp, ebp
  00a1f	5d		 pop	 ebp
  00a20	c3		 ret	 0
_TEXT	ENDS
;	COMDAT text$x
text$x	SEGMENT
__unwindfunclet$?SaveInfo@CTabRunSetup@@UAEHXZ$0:
  00000	8d 4d ec	 lea	 ecx, DWORD PTR _szKey$[ebp]
  00003	ff 25 00 00 00
	00		 jmp	 DWORD PTR __imp_??1?$CStringT@DV?$StrTraitMFC_DLL@DV?$ChTraitsCRT@D@ATL@@@@@ATL@@QAE@XZ
__unwindfunclet$?SaveInfo@CTabRunSetup@@UAEHXZ$1:
  00009	8d 4d f0	 lea	 ecx, DWORD PTR _szTmp$[ebp]
  0000c	ff 25 00 00 00
	00		 jmp	 DWORD PTR __imp_??1?$CStringT@DV?$StrTraitMFC_DLL@DV?$ChTraitsCRT@D@ATL@@@@@ATL@@QAE@XZ
  00012	cc		 int	 3
  00013	cc		 int	 3
  00014	cc		 int	 3
  00015	cc		 int	 3
  00016	cc		 int	 3
__ehhandler$?SaveInfo@CTabRunSetup@@UAEHXZ:
  00017	90		 npad	 1
  00018	90		 npad	 1
  00019	8b 54 24 08	 mov	 edx, DWORD PTR [esp+8]
  0001d	8d 42 0c	 lea	 eax, DWORD PTR [edx+12]
  00020	8b 4a e4	 mov	 ecx, DWORD PTR [edx-28]
  00023	33 c8		 xor	 ecx, eax
  00025	e8 00 00 00 00	 call	 @__security_check_cookie@4
  0002a	b8 00 00 00 00	 mov	 eax, OFFSET __ehfuncinfo$?SaveInfo@CTabRunSetup@@UAEHXZ
  0002f	e9 00 00 00 00	 jmp	 ___CxxFrameHandler3
text$x	ENDS
?SaveInfo@CTabRunSetup@@UAEHXZ ENDP			; CTabRunSetup::SaveInfo
; Function compile flags: /Ogtp
; File D:\git\src\IBK\IBK_DRFN\ProjSrc\SrcDrfn\Chart\STCONFIGUREDLG\TabRunSetup.cpp
; File D:\git\src\IBK\IBK_DRFN\ProjSrc\SrcDrfn\Chart\Common_ST\STConfigEnv.h
; File D:\git\src\IBK\IBK_DRFN\ProjSrc\SrcDrfn\Chart\STCONFIGUREDLG\TabRunSetup.cpp
; File C:\Program Files (x86)\Microsoft Visual Studio\2019\Community\VC\Tools\MSVC\14.29.30133\atlmfc\include\afxwin2.inl
; File D:\git\src\IBK\IBK_DRFN\ProjSrc\SrcDrfn\Chart\STCONFIGUREDLG\TabRunSetup.cpp
; File C:\Program Files (x86)\Microsoft Visual Studio\2019\Community\VC\Tools\MSVC\14.29.30133\atlmfc\include\afxwin2.inl
; File D:\git\src\IBK\IBK_DRFN\ProjSrc\SrcDrfn\Chart\STCONFIGUREDLG\TabRunSetup.cpp
; File C:\Program Files (x86)\Microsoft Visual Studio\2019\Community\VC\Tools\MSVC\14.29.30133\atlmfc\include\afxwin2.inl
; File D:\git\src\IBK\IBK_DRFN\ProjSrc\SrcDrfn\Chart\STCONFIGUREDLG\TabRunSetup.cpp
; File C:\Program Files (x86)\Microsoft Visual Studio\2019\Community\VC\Tools\MSVC\14.29.30133\atlmfc\include\afxwin2.inl
; File D:\git\src\IBK\IBK_DRFN\ProjSrc\SrcDrfn\Chart\STCONFIGUREDLG\TabRunSetup.cpp
; File C:\Program Files (x86)\Microsoft Visual Studio\2019\Community\VC\Tools\MSVC\14.29.30133\atlmfc\include\afxwin2.inl
; File D:\git\src\IBK\IBK_DRFN\ProjSrc\SrcDrfn\Chart\STCONFIGUREDLG\TabRunSetup.cpp
; File C:\Program Files (x86)\Microsoft Visual Studio\2019\Community\VC\Tools\MSVC\14.29.30133\atlmfc\include\afxwin2.inl
; File D:\git\src\IBK\IBK_DRFN\ProjSrc\SrcDrfn\Chart\STCONFIGUREDLG\TabRunSetup.cpp
; File C:\Program Files (x86)\Microsoft Visual Studio\2019\Community\VC\Tools\MSVC\14.29.30133\atlmfc\include\afxwin2.inl
; File D:\git\src\IBK\IBK_DRFN\ProjSrc\SrcDrfn\Chart\STCONFIGUREDLG\TabRunSetup.cpp
; File D:\git\src\IBK\IBK_DRFN\ProjSrc\SrcDrfn\Chart\Common_ST\STConfigEnv.h
; File D:\git\src\IBK\IBK_DRFN\ProjSrc\SrcDrfn\Chart\STCONFIGUREDLG\TabRunSetup.cpp
;	COMDAT ?LoadInfo@CTabRunSetup@@UAEXXZ
_TEXT	SEGMENT
$T2 = -384						; size = 4
$T3 = -384						; size = 4
$T4 = -384						; size = 4
$T5 = -384						; size = 4
$T6 = -384						; size = 4
_this$GSCopy$1$ = -380					; size = 4
_envHelper$ = -376					; size = 360
__$ArrayPad$ = -16					; size = 4
__$EHRec$ = -12						; size = 12
?LoadInfo@CTabRunSetup@@UAEXXZ PROC			; CTabRunSetup::LoadInfo, COMDAT
; _this$ = ecx

; 99   : {

  00000	55		 push	 ebp
  00001	8b ec		 mov	 ebp, esp
  00003	6a ff		 push	 -1
  00005	68 00 00 00 00	 push	 __ehhandler$?LoadInfo@CTabRunSetup@@UAEXXZ
  0000a	64 a1 00 00 00
	00		 mov	 eax, DWORD PTR fs:0
  00010	50		 push	 eax
  00011	81 ec 74 01 00
	00		 sub	 esp, 372		; 00000174H
  00017	a1 00 00 00 00	 mov	 eax, DWORD PTR ___security_cookie
  0001c	33 c5		 xor	 eax, ebp
  0001e	89 45 f0	 mov	 DWORD PTR __$ArrayPad$[ebp], eax
  00021	53		 push	 ebx
  00022	56		 push	 esi
  00023	57		 push	 edi
  00024	50		 push	 eax
  00025	8d 45 f4	 lea	 eax, DWORD PTR __$EHRec$[ebp]
  00028	64 a3 00 00 00
	00		 mov	 DWORD PTR fs:0, eax
  0002e	8b f9		 mov	 edi, ecx
  00030	89 bd 84 fe ff
	ff		 mov	 DWORD PTR _this$GSCopy$1$[ebp], edi
; File D:\git\src\IBK\IBK_DRFN\ProjSrc\SrcDrfn\Chart\Common_ST\STConfigEnv.h

; 329  : 	CSTConfigEnv()

  00036	8d 8d 88 fe ff
	ff		 lea	 ecx, DWORD PTR _envHelper$[ebp]
  0003c	e8 00 00 00 00	 call	 ??0CSTConfigEnv_Jumun@@QAE@XZ ; CSTConfigEnv_Jumun::CSTConfigEnv_Jumun
  00041	8d 8d fc fe ff
	ff		 lea	 ecx, DWORD PTR _envHelper$[ebp+116]
  00047	c7 45 fc 00 00
	00 00		 mov	 DWORD PTR __$EHRec$[ebp+8], 0
  0004e	e8 00 00 00 00	 call	 ??0CSTConfigEnv_Signal@@QAE@XZ ; CSTConfigEnv_Signal::CSTConfigEnv_Signal
  00053	8d 8d 20 ff ff
	ff		 lea	 ecx, DWORD PTR _envHelper$[ebp+152]
  00059	c6 45 fc 01	 mov	 BYTE PTR __$EHRec$[ebp+8], 1
  0005d	e8 00 00 00 00	 call	 ??0CSTConfigEnv_Setup@@QAE@XZ ; CSTConfigEnv_Setup::CSTConfigEnv_Setup
  00062	8d 4d b0	 lea	 ecx, DWORD PTR _envHelper$[ebp+296]
  00065	c6 45 fc 02	 mov	 BYTE PTR __$EHRec$[ebp+8], 2
  00069	e8 00 00 00 00	 call	 ??0CSTConfigEnv_Clear@@QAE@XZ ; CSTConfigEnv_Clear::CSTConfigEnv_Clear
  0006e	8d 4d d8	 lea	 ecx, DWORD PTR _envHelper$[ebp+336]
  00071	ff 15 00 00 00
	00		 call	 DWORD PTR __imp_??0?$CStringT@DV?$StrTraitMFC_DLL@DV?$ChTraitsCRT@D@ATL@@@@@ATL@@QAE@XZ
  00077	8d 4d dc	 lea	 ecx, DWORD PTR _envHelper$[ebp+340]
  0007a	ff 15 00 00 00
	00		 call	 DWORD PTR __imp_??0?$CStringT@DV?$StrTraitMFC_DLL@DV?$ChTraitsCRT@D@ATL@@@@@ATL@@QAE@XZ
  00080	8d 4d e0	 lea	 ecx, DWORD PTR _envHelper$[ebp+344]
  00083	ff 15 00 00 00
	00		 call	 DWORD PTR __imp_??0?$CStringT@DV?$StrTraitMFC_DLL@DV?$ChTraitsCRT@D@ATL@@@@@ATL@@QAE@XZ
  00089	8d 4d e4	 lea	 ecx, DWORD PTR _envHelper$[ebp+348]
  0008c	ff 15 00 00 00
	00		 call	 DWORD PTR __imp_??0?$CStringT@DV?$StrTraitMFC_DLL@DV?$ChTraitsCRT@D@ATL@@@@@ATL@@QAE@XZ

; 330  : 	{
; 331  : 		m_nCodeType		= 0;

  00092	c7 45 e8 00 00
	00 00		 mov	 DWORD PTR _envHelper$[ebp+352], 0

; 332  : 		m_nOrderType	= -1;

  00099	c7 45 ec ff ff
	ff ff		 mov	 DWORD PTR _envHelper$[ebp+356], -1
; File D:\git\src\IBK\IBK_DRFN\ProjSrc\SrcDrfn\Chart\STCONFIGUREDLG\TabRunSetup.cpp

; 101  : 	envHelper.LoadInfo(m_szCFGFile,  m_szDefCFGFile, STConfigEnv_Setup);

  000a0	6a 04		 push	 4
  000a2	ff b7 ac 00 00
	00		 push	 DWORD PTR [edi+172]
  000a8	8d 8d 88 fe ff
	ff		 lea	 ecx, DWORD PTR _envHelper$[ebp]
  000ae	c7 45 fc 03 00
	00 00		 mov	 DWORD PTR __$EHRec$[ebp+8], 3
  000b5	ff b7 a8 00 00
	00		 push	 DWORD PTR [edi+168]
  000bb	e8 00 00 00 00	 call	 ?LoadInfo@CSTConfigEnv@@QAEXPBD0H@Z ; CSTConfigEnv::LoadInfo

; 102  : 
; 103  : 	//  
; 104  : 	CheckRadioButton(IDC_SELLINFO_OPT1, IDC_SELLINFO_OPT2, IDC_SELLINFO_OPT1+envHelper.m_InfoSetup.m_ClearPoint);

  000c0	8b 85 20 ff ff
	ff		 mov	 eax, DWORD PTR _envHelper$[ebp+152]
  000c6	8b cf		 mov	 ecx, edi
  000c8	05 5e 71 00 00	 add	 eax, 29022		; 0000715eH
  000cd	50		 push	 eax
  000ce	68 5f 71 00 00	 push	 29023			; 0000715fH
  000d3	68 5e 71 00 00	 push	 29022			; 0000715eH
  000d8	e8 00 00 00 00	 call	 ?CheckRadioButton@CWnd@@QAEXHHH@Z ; CWnd::CheckRadioButton

; 105  : 
; 106  : 	//-------- 1 -----------------------------
; 107  : 	//()
; 108  : 	CheckDlgButton(IDC_CHK1, atoi(envHelper.m_InfoSetup.m_Chk1));

  000dd	ff b5 24 ff ff
	ff		 push	 DWORD PTR _envHelper$[ebp+156]
  000e3	8b 35 00 00 00
	00		 mov	 esi, DWORD PTR __imp__atoi
  000e9	ff d6		 call	 esi
  000eb	83 c4 04	 add	 esp, 4
  000ee	8b cf		 mov	 ecx, edi
  000f0	50		 push	 eax
  000f1	68 60 71 00 00	 push	 29024			; 00007160H
  000f6	e8 00 00 00 00	 call	 ?CheckDlgButton@CWnd@@QAEXHI@Z ; CWnd::CheckDlgButton

; 109  : 	SetDlgItemText(IDC_ED_1, envHelper.m_InfoSetup.m_ED1);

  000fb	ff b5 28 ff ff
	ff		 push	 DWORD PTR _envHelper$[ebp+160]
  00101	8b cf		 mov	 ecx, edi
  00103	68 09 52 00 00	 push	 21001			; 00005209H
  00108	e8 00 00 00 00	 call	 ?SetDlgItemTextA@CWnd@@QAEXHPBD@Z ; CWnd::SetDlgItemTextA
; File C:\Program Files (x86)\Microsoft Visual Studio\2019\Community\VC\Tools\MSVC\14.29.30133\atlmfc\include\afxwin2.inl

; 767  : 	{ ASSERT(::IsWindow(m_hWnd)); return (int)::SendMessage(m_hWnd, CB_SETCURSEL, nSelect, 0); }

  0010d	8b 1d 00 00 00
	00		 mov	 ebx, DWORD PTR __imp__SendMessageA@16
  00113	6a 00		 push	 0
  00115	ff b5 2c ff ff
	ff		 push	 DWORD PTR _envHelper$[ebp+164]
  0011b	68 4e 01 00 00	 push	 334			; 0000014eH
  00120	ff b7 d0 00 00
	00		 push	 DWORD PTR [edi+208]
  00126	ff d3		 call	 ebx
  00128	6a 00		 push	 0
  0012a	ff b5 30 ff ff
	ff		 push	 DWORD PTR _envHelper$[ebp+168]
  00130	68 4e 01 00 00	 push	 334			; 0000014eH
  00135	ff b7 88 04 00
	00		 push	 DWORD PTR [edi+1160]
  0013b	ff d3		 call	 ebx
; File D:\git\src\IBK\IBK_DRFN\ProjSrc\SrcDrfn\Chart\STCONFIGUREDLG\TabRunSetup.cpp

; 118  : 	m_btnC1.SetColor(atol(envHelper.m_InfoSetup.m_CLR_1));

  0013d	ff b5 34 ff ff
	ff		 push	 DWORD PTR _envHelper$[ebp+172]
  00143	8b 3d 00 00 00
	00		 mov	 edi, DWORD PTR __imp__atol
  00149	ff d7		 call	 edi
  0014b	8b 8d 84 fe ff
	ff		 mov	 ecx, DWORD PTR _this$GSCopy$1$[ebp]
  00151	83 c4 04	 add	 esp, 4
  00154	89 85 80 fe ff
	ff		 mov	 DWORD PTR $T6[ebp], eax
  0015a	81 c1 10 07 00
	00		 add	 ecx, 1808		; 00000710H
  00160	8d 85 80 fe ff
	ff		 lea	 eax, DWORD PTR $T6[ebp]
  00166	50		 push	 eax
  00167	e8 00 00 00 00	 call	 ?SetColor@CColorButton@@QAEXABK@Z ; CColorButton::SetColor

; 119  : 
; 120  : 	//------- 2 ------------------------------
; 121  : 	//	
; 122  : 	CheckDlgButton(IDC_CHK2, atoi(envHelper.m_InfoSetup.m_Chk2));

  0016c	ff b5 38 ff ff
	ff		 push	 DWORD PTR _envHelper$[ebp+176]
  00172	ff d6		 call	 esi
  00174	8b 8d 84 fe ff
	ff		 mov	 ecx, DWORD PTR _this$GSCopy$1$[ebp]
  0017a	83 c4 04	 add	 esp, 4
  0017d	50		 push	 eax
  0017e	68 61 71 00 00	 push	 29025			; 00007161H
  00183	e8 00 00 00 00	 call	 ?CheckDlgButton@CWnd@@QAEXHI@Z ; CWnd::CheckDlgButton

; 123  : 	SetDlgItemText(IDC_ED_2, envHelper.m_InfoSetup.m_ED2);

  00188	ff b5 3c ff ff
	ff		 push	 DWORD PTR _envHelper$[ebp+180]
  0018e	8b 8d 84 fe ff
	ff		 mov	 ecx, DWORD PTR _this$GSCopy$1$[ebp]
  00194	68 0a 52 00 00	 push	 21002			; 0000520aH
  00199	e8 00 00 00 00	 call	 ?SetDlgItemTextA@CWnd@@QAEXHPBD@Z ; CWnd::SetDlgItemTextA
; File C:\Program Files (x86)\Microsoft Visual Studio\2019\Community\VC\Tools\MSVC\14.29.30133\atlmfc\include\afxwin2.inl

; 767  : 	{ ASSERT(::IsWindow(m_hWnd)); return (int)::SendMessage(m_hWnd, CB_SETCURSEL, nSelect, 0); }

  0019e	8b 85 84 fe ff
	ff		 mov	 eax, DWORD PTR _this$GSCopy$1$[ebp]
  001a4	6a 00		 push	 0
  001a6	ff b5 40 ff ff
	ff		 push	 DWORD PTR _envHelper$[ebp+184]
  001ac	68 4e 01 00 00	 push	 334			; 0000014eH
  001b1	ff b0 58 01 00
	00		 push	 DWORD PTR [eax+344]
  001b7	ff d3		 call	 ebx
  001b9	8b 85 84 fe ff
	ff		 mov	 eax, DWORD PTR _this$GSCopy$1$[ebp]
  001bf	6a 00		 push	 0
  001c1	ff b5 44 ff ff
	ff		 push	 DWORD PTR _envHelper$[ebp+188]
  001c7	68 4e 01 00 00	 push	 334			; 0000014eH
  001cc	ff b0 10 05 00
	00		 push	 DWORD PTR [eax+1296]
  001d2	ff d3		 call	 ebx
; File D:\git\src\IBK\IBK_DRFN\ProjSrc\SrcDrfn\Chart\STCONFIGUREDLG\TabRunSetup.cpp

; 132  : 	m_btnC2.SetColor(atol(envHelper.m_InfoSetup.m_CLR_2));

  001d4	ff b5 48 ff ff
	ff		 push	 DWORD PTR _envHelper$[ebp+192]
  001da	ff d7		 call	 edi
  001dc	8b 8d 84 fe ff
	ff		 mov	 ecx, DWORD PTR _this$GSCopy$1$[ebp]
  001e2	83 c4 04	 add	 esp, 4
  001e5	89 85 80 fe ff
	ff		 mov	 DWORD PTR $T5[ebp], eax
  001eb	8d 85 80 fe ff
	ff		 lea	 eax, DWORD PTR $T5[ebp]
  001f1	50		 push	 eax
  001f2	8d 89 a0 07 00
	00		 lea	 ecx, DWORD PTR [ecx+1952]
  001f8	e8 00 00 00 00	 call	 ?SetColor@CColorButton@@QAEXABK@Z ; CColorButton::SetColor

; 133  : 
; 134  : 	//----------- 3 --------------------------
; 135  : 	//  
; 136  : 	CheckDlgButton(IDC_CHK3, atoi(envHelper.m_InfoSetup.m_Chk3));

  001fd	ff b5 4c ff ff
	ff		 push	 DWORD PTR _envHelper$[ebp+196]
  00203	ff d6		 call	 esi
  00205	8b 8d 84 fe ff
	ff		 mov	 ecx, DWORD PTR _this$GSCopy$1$[ebp]
  0020b	83 c4 04	 add	 esp, 4
  0020e	50		 push	 eax
  0020f	68 62 71 00 00	 push	 29026			; 00007162H
  00214	e8 00 00 00 00	 call	 ?CheckDlgButton@CWnd@@QAEXHI@Z ; CWnd::CheckDlgButton

; 137  : 	SetDlgItemText(IDC_ED_3, envHelper.m_InfoSetup.m_ED3);

  00219	ff b5 50 ff ff
	ff		 push	 DWORD PTR _envHelper$[ebp+200]
  0021f	8b 8d 84 fe ff
	ff		 mov	 ecx, DWORD PTR _this$GSCopy$1$[ebp]
  00225	68 0b 52 00 00	 push	 21003			; 0000520bH
  0022a	e8 00 00 00 00	 call	 ?SetDlgItemTextA@CWnd@@QAEXHPBD@Z ; CWnd::SetDlgItemTextA
; File C:\Program Files (x86)\Microsoft Visual Studio\2019\Community\VC\Tools\MSVC\14.29.30133\atlmfc\include\afxwin2.inl

; 767  : 	{ ASSERT(::IsWindow(m_hWnd)); return (int)::SendMessage(m_hWnd, CB_SETCURSEL, nSelect, 0); }

  0022f	8b 85 84 fe ff
	ff		 mov	 eax, DWORD PTR _this$GSCopy$1$[ebp]
  00235	6a 00		 push	 0
  00237	ff b5 54 ff ff
	ff		 push	 DWORD PTR _envHelper$[ebp+204]
  0023d	68 4e 01 00 00	 push	 334			; 0000014eH
  00242	ff b0 e0 01 00
	00		 push	 DWORD PTR [eax+480]
  00248	ff d3		 call	 ebx
  0024a	8b 85 84 fe ff
	ff		 mov	 eax, DWORD PTR _this$GSCopy$1$[ebp]
  00250	6a 00		 push	 0
  00252	ff b5 58 ff ff
	ff		 push	 DWORD PTR _envHelper$[ebp+208]
  00258	68 4e 01 00 00	 push	 334			; 0000014eH
  0025d	ff b0 98 05 00
	00		 push	 DWORD PTR [eax+1432]
  00263	ff d3		 call	 ebx
; File D:\git\src\IBK\IBK_DRFN\ProjSrc\SrcDrfn\Chart\STCONFIGUREDLG\TabRunSetup.cpp

; 146  : 	m_btnC3.SetColor(atol(envHelper.m_InfoSetup.m_CLR_3));

  00265	ff b5 5c ff ff
	ff		 push	 DWORD PTR _envHelper$[ebp+212]
  0026b	ff d7		 call	 edi
  0026d	8b 8d 84 fe ff
	ff		 mov	 ecx, DWORD PTR _this$GSCopy$1$[ebp]
  00273	83 c4 04	 add	 esp, 4
  00276	89 85 80 fe ff
	ff		 mov	 DWORD PTR $T4[ebp], eax
  0027c	8d 85 80 fe ff
	ff		 lea	 eax, DWORD PTR $T4[ebp]
  00282	50		 push	 eax
  00283	8d 89 30 08 00
	00		 lea	 ecx, DWORD PTR [ecx+2096]
  00289	e8 00 00 00 00	 call	 ?SetColor@CColorButton@@QAEXABK@Z ; CColorButton::SetColor

; 147  : 
; 148  : 	//----------- 4 --------------------------
; 149  : 	// 
; 150  : 	CheckDlgButton(IDC_CHK4, atoi(envHelper.m_InfoSetup.m_Chk4));

  0028e	ff b5 60 ff ff
	ff		 push	 DWORD PTR _envHelper$[ebp+216]
  00294	ff d6		 call	 esi
  00296	8b 8d 84 fe ff
	ff		 mov	 ecx, DWORD PTR _this$GSCopy$1$[ebp]
  0029c	83 c4 04	 add	 esp, 4
  0029f	50		 push	 eax
  002a0	68 63 71 00 00	 push	 29027			; 00007163H
  002a5	e8 00 00 00 00	 call	 ?CheckDlgButton@CWnd@@QAEXHI@Z ; CWnd::CheckDlgButton

; 151  : 	SetDlgItemText(IDC_ED_4, envHelper.m_InfoSetup.m_ED4);

  002aa	ff b5 64 ff ff
	ff		 push	 DWORD PTR _envHelper$[ebp+220]
  002b0	8b 8d 84 fe ff
	ff		 mov	 ecx, DWORD PTR _this$GSCopy$1$[ebp]
  002b6	68 0c 52 00 00	 push	 21004			; 0000520cH
  002bb	e8 00 00 00 00	 call	 ?SetDlgItemTextA@CWnd@@QAEXHPBD@Z ; CWnd::SetDlgItemTextA
; File C:\Program Files (x86)\Microsoft Visual Studio\2019\Community\VC\Tools\MSVC\14.29.30133\atlmfc\include\afxwin2.inl

; 767  : 	{ ASSERT(::IsWindow(m_hWnd)); return (int)::SendMessage(m_hWnd, CB_SETCURSEL, nSelect, 0); }

  002c0	8b 85 84 fe ff
	ff		 mov	 eax, DWORD PTR _this$GSCopy$1$[ebp]
  002c6	6a 00		 push	 0
  002c8	ff b5 68 ff ff
	ff		 push	 DWORD PTR _envHelper$[ebp+224]
  002ce	68 4e 01 00 00	 push	 334			; 0000014eH
  002d3	ff b0 68 02 00
	00		 push	 DWORD PTR [eax+616]
  002d9	ff d3		 call	 ebx
  002db	8b 85 84 fe ff
	ff		 mov	 eax, DWORD PTR _this$GSCopy$1$[ebp]
  002e1	6a 00		 push	 0
  002e3	ff b5 6c ff ff
	ff		 push	 DWORD PTR _envHelper$[ebp+228]
  002e9	68 4e 01 00 00	 push	 334			; 0000014eH
  002ee	ff b0 20 06 00
	00		 push	 DWORD PTR [eax+1568]
  002f4	ff d3		 call	 ebx
; File D:\git\src\IBK\IBK_DRFN\ProjSrc\SrcDrfn\Chart\STCONFIGUREDLG\TabRunSetup.cpp

; 160  : 	m_btnC4.SetColor(atol(envHelper.m_InfoSetup.m_CLR_4));

  002f6	ff b5 70 ff ff
	ff		 push	 DWORD PTR _envHelper$[ebp+232]
  002fc	ff d7		 call	 edi
  002fe	83 c4 04	 add	 esp, 4
  00301	89 85 80 fe ff
	ff		 mov	 DWORD PTR $T3[ebp], eax
  00307	8b 8d 84 fe ff
	ff		 mov	 ecx, DWORD PTR _this$GSCopy$1$[ebp]
  0030d	8d 85 80 fe ff
	ff		 lea	 eax, DWORD PTR $T3[ebp]
  00313	50		 push	 eax
  00314	8d 89 c0 08 00
	00		 lea	 ecx, DWORD PTR [ecx+2240]
  0031a	e8 00 00 00 00	 call	 ?SetColor@CColorButton@@QAEXABK@Z ; CColorButton::SetColor

; 161  : 
; 162  : 	//----------- 5 --------------------------
; 163  : 	//
; 164  : 	CheckDlgButton(IDC_CHK5, atoi(envHelper.m_InfoSetup.m_Chk5));

  0031f	ff b5 74 ff ff
	ff		 push	 DWORD PTR _envHelper$[ebp+236]
  00325	ff d6		 call	 esi
  00327	8b 8d 84 fe ff
	ff		 mov	 ecx, DWORD PTR _this$GSCopy$1$[ebp]
  0032d	83 c4 04	 add	 esp, 4
  00330	50		 push	 eax
  00331	68 64 71 00 00	 push	 29028			; 00007164H
  00336	e8 00 00 00 00	 call	 ?CheckDlgButton@CWnd@@QAEXHI@Z ; CWnd::CheckDlgButton

; 165  : 	SetDlgItemText(IDC_ED_5, envHelper.m_InfoSetup.m_ED5);

  0033b	ff b5 78 ff ff
	ff		 push	 DWORD PTR _envHelper$[ebp+240]
  00341	8b 8d 84 fe ff
	ff		 mov	 ecx, DWORD PTR _this$GSCopy$1$[ebp]
  00347	68 0d 52 00 00	 push	 21005			; 0000520dH
  0034c	e8 00 00 00 00	 call	 ?SetDlgItemTextA@CWnd@@QAEXHPBD@Z ; CWnd::SetDlgItemTextA
; File C:\Program Files (x86)\Microsoft Visual Studio\2019\Community\VC\Tools\MSVC\14.29.30133\atlmfc\include\afxwin2.inl

; 767  : 	{ ASSERT(::IsWindow(m_hWnd)); return (int)::SendMessage(m_hWnd, CB_SETCURSEL, nSelect, 0); }

  00351	8b 85 84 fe ff
	ff		 mov	 eax, DWORD PTR _this$GSCopy$1$[ebp]
  00357	6a 00		 push	 0
  00359	ff b5 7c ff ff
	ff		 push	 DWORD PTR _envHelper$[ebp+244]
  0035f	68 4e 01 00 00	 push	 334			; 0000014eH
  00364	ff b0 f0 02 00
	00		 push	 DWORD PTR [eax+752]
  0036a	ff d3		 call	 ebx
; File D:\git\src\IBK\IBK_DRFN\ProjSrc\SrcDrfn\Chart\STCONFIGUREDLG\TabRunSetup.cpp

; 173  : 	SetDlgItemText(IDC_ED_BONG, envHelper.m_InfoSetup.m_Bong);

  0036c	ff 75 80	 push	 DWORD PTR _envHelper$[ebp+248]
  0036f	8b 8d 84 fe ff
	ff		 mov	 ecx, DWORD PTR _this$GSCopy$1$[ebp]
  00375	68 0f 52 00 00	 push	 21007			; 0000520fH
  0037a	e8 00 00 00 00	 call	 ?SetDlgItemTextA@CWnd@@QAEXHPBD@Z ; CWnd::SetDlgItemTextA

; 174  : 
; 175  : 
; 176  : 	//----------- 6 --------------------------
; 177  : 	//
; 178  : 	CheckDlgButton(IDC_CHK6, atoi(envHelper.m_InfoSetup.m_Chk6));

  0037f	ff 75 84	 push	 DWORD PTR _envHelper$[ebp+252]
  00382	ff d6		 call	 esi
  00384	8b 8d 84 fe ff
	ff		 mov	 ecx, DWORD PTR _this$GSCopy$1$[ebp]
  0038a	83 c4 04	 add	 esp, 4
  0038d	50		 push	 eax
  0038e	68 65 71 00 00	 push	 29029			; 00007165H
  00393	e8 00 00 00 00	 call	 ?CheckDlgButton@CWnd@@QAEXHI@Z ; CWnd::CheckDlgButton
; File C:\Program Files (x86)\Microsoft Visual Studio\2019\Community\VC\Tools\MSVC\14.29.30133\atlmfc\include\afxwin2.inl

; 767  : 	{ ASSERT(::IsWindow(m_hWnd)); return (int)::SendMessage(m_hWnd, CB_SETCURSEL, nSelect, 0); }

  00398	8b 85 84 fe ff
	ff		 mov	 eax, DWORD PTR _this$GSCopy$1$[ebp]
  0039e	6a 00		 push	 0
  003a0	ff 75 88	 push	 DWORD PTR _envHelper$[ebp+256]
  003a3	68 4e 01 00 00	 push	 334			; 0000014eH
  003a8	ff b0 00 0a 00
	00		 push	 DWORD PTR [eax+2560]
  003ae	ff d3		 call	 ebx
; File D:\git\src\IBK\IBK_DRFN\ProjSrc\SrcDrfn\Chart\STCONFIGUREDLG\TabRunSetup.cpp

; 185  : 	SetDlgItemText(IDC_ED_TIME, envHelper.m_InfoSetup.m_ED_Time);

  003b0	ff 75 8c	 push	 DWORD PTR _envHelper$[ebp+260]
  003b3	8b 8d 84 fe ff
	ff		 mov	 ecx, DWORD PTR _this$GSCopy$1$[ebp]
  003b9	68 0e 52 00 00	 push	 21006			; 0000520eH
  003be	e8 00 00 00 00	 call	 ?SetDlgItemTextA@CWnd@@QAEXHPBD@Z ; CWnd::SetDlgItemTextA

; 186  : 
; 187  : 	//----------- 7 --------------------------
; 188  : 	//
; 189  : 	CheckDlgButton(IDC_CHK7, atoi(envHelper.m_InfoSetup.m_Chk7));

  003c3	ff 75 90	 push	 DWORD PTR _envHelper$[ebp+264]
  003c6	ff d6		 call	 esi
  003c8	8b b5 84 fe ff
	ff		 mov	 esi, DWORD PTR _this$GSCopy$1$[ebp]
  003ce	83 c4 04	 add	 esp, 4
  003d1	8b ce		 mov	 ecx, esi
  003d3	50		 push	 eax
  003d4	68 11 52 00 00	 push	 21009			; 00005211H
  003d9	e8 00 00 00 00	 call	 ?CheckDlgButton@CWnd@@QAEXHI@Z ; CWnd::CheckDlgButton

; 190  : 	SetDlgItemText(IDC_ED_6, envHelper.m_InfoSetup.m_ED6);

  003de	ff 75 94	 push	 DWORD PTR _envHelper$[ebp+268]
  003e1	8b ce		 mov	 ecx, esi
  003e3	68 7d 71 00 00	 push	 29053			; 0000717dH
  003e8	e8 00 00 00 00	 call	 ?SetDlgItemTextA@CWnd@@QAEXHPBD@Z ; CWnd::SetDlgItemTextA

; 191  : 	SetDlgItemText(IDC_ED_7, envHelper.m_InfoSetup.m_ED7);

  003ed	ff 75 98	 push	 DWORD PTR _envHelper$[ebp+272]
  003f0	8b ce		 mov	 ecx, esi
  003f2	68 7e 71 00 00	 push	 29054			; 0000717eH
  003f7	e8 00 00 00 00	 call	 ?SetDlgItemTextA@CWnd@@QAEXHPBD@Z ; CWnd::SetDlgItemTextA
; File C:\Program Files (x86)\Microsoft Visual Studio\2019\Community\VC\Tools\MSVC\14.29.30133\atlmfc\include\afxwin2.inl

; 767  : 	{ ASSERT(::IsWindow(m_hWnd)); return (int)::SendMessage(m_hWnd, CB_SETCURSEL, nSelect, 0); }

  003fc	6a 00		 push	 0
  003fe	ff 75 9c	 push	 DWORD PTR _envHelper$[ebp+276]
  00401	68 4e 01 00 00	 push	 334			; 0000014eH
  00406	ff b6 78 03 00
	00		 push	 DWORD PTR [esi+888]
  0040c	ff d3		 call	 ebx
  0040e	6a 00		 push	 0
  00410	ff 75 a0	 push	 DWORD PTR _envHelper$[ebp+280]
  00413	68 4e 01 00 00	 push	 334			; 0000014eH
  00418	ff b6 00 04 00
	00		 push	 DWORD PTR [esi+1024]
  0041e	ff d3		 call	 ebx
  00420	6a 00		 push	 0
  00422	ff 75 a4	 push	 DWORD PTR _envHelper$[ebp+284]
  00425	68 4e 01 00 00	 push	 334			; 0000014eH
  0042a	ff b6 a8 06 00
	00		 push	 DWORD PTR [esi+1704]
  00430	ff d3		 call	 ebx
; File D:\git\src\IBK\IBK_DRFN\ProjSrc\SrcDrfn\Chart\STCONFIGUREDLG\TabRunSetup.cpp

; 201  : 	m_btnC5.SetColor(atol(envHelper.m_InfoSetup.m_CLR_5));

  00432	ff 75 a8	 push	 DWORD PTR _envHelper$[ebp+288]
  00435	ff d7		 call	 edi
  00437	83 c4 04	 add	 esp, 4
  0043a	89 85 80 fe ff
	ff		 mov	 DWORD PTR $T2[ebp], eax
  00440	8d 85 80 fe ff
	ff		 lea	 eax, DWORD PTR $T2[ebp]
  00446	8d 8e 50 09 00
	00		 lea	 ecx, DWORD PTR [esi+2384]
  0044c	50		 push	 eax
  0044d	e8 00 00 00 00	 call	 ?SetColor@CColorButton@@QAEXABK@Z ; CColorButton::SetColor
  00452	8d 4d e4	 lea	 ecx, DWORD PTR _envHelper$[ebp+348]
  00455	ff 15 00 00 00
	00		 call	 DWORD PTR __imp_??1?$CStringT@DV?$StrTraitMFC_DLL@DV?$ChTraitsCRT@D@ATL@@@@@ATL@@QAE@XZ
  0045b	8d 4d e0	 lea	 ecx, DWORD PTR _envHelper$[ebp+344]
  0045e	ff 15 00 00 00
	00		 call	 DWORD PTR __imp_??1?$CStringT@DV?$StrTraitMFC_DLL@DV?$ChTraitsCRT@D@ATL@@@@@ATL@@QAE@XZ
  00464	8d 4d dc	 lea	 ecx, DWORD PTR _envHelper$[ebp+340]
  00467	ff 15 00 00 00
	00		 call	 DWORD PTR __imp_??1?$CStringT@DV?$StrTraitMFC_DLL@DV?$ChTraitsCRT@D@ATL@@@@@ATL@@QAE@XZ
  0046d	8d 4d d8	 lea	 ecx, DWORD PTR _envHelper$[ebp+336]
  00470	ff 15 00 00 00
	00		 call	 DWORD PTR __imp_??1?$CStringT@DV?$StrTraitMFC_DLL@DV?$ChTraitsCRT@D@ATL@@@@@ATL@@QAE@XZ
; File D:\git\src\IBK\IBK_DRFN\ProjSrc\SrcDrfn\Chart\Common_ST\STConfigEnv.h

; 288  : 		if(m_pDefInfo) delete m_pDefInfo; m_pDefInfo=NULL;

  00476	8b 75 d4	 mov	 esi, DWORD PTR _envHelper$[ebp+332]
  00479	85 f6		 test	 esi, esi
  0047b	74 12		 je	 SHORT $LN96@LoadInfo
  0047d	8b ce		 mov	 ecx, esi
  0047f	e8 00 00 00 00	 call	 ??1CSTConfigEnv_Clear@@QAE@XZ ; CSTConfigEnv_Clear::~CSTConfigEnv_Clear
  00484	6a 28		 push	 40			; 00000028H
  00486	56		 push	 esi
  00487	e8 00 00 00 00	 call	 ??3@YAXPAXI@Z		; operator delete
  0048c	83 c4 08	 add	 esp, 8
$LN96@LoadInfo:

; 289  : 	}

  0048f	8d 4d cc	 lea	 ecx, DWORD PTR _envHelper$[ebp+324]
  00492	c7 45 d4 00 00
	00 00		 mov	 DWORD PTR _envHelper$[ebp+332], 0
  00499	ff 15 00 00 00
	00		 call	 DWORD PTR __imp_??1?$CStringT@DV?$StrTraitMFC_DLL@DV?$ChTraitsCRT@D@ATL@@@@@ATL@@QAE@XZ
  0049f	8d 4d c8	 lea	 ecx, DWORD PTR _envHelper$[ebp+320]
  004a2	ff 15 00 00 00
	00		 call	 DWORD PTR __imp_??1?$CStringT@DV?$StrTraitMFC_DLL@DV?$ChTraitsCRT@D@ATL@@@@@ATL@@QAE@XZ
  004a8	8d 4d c0	 lea	 ecx, DWORD PTR _envHelper$[ebp+312]
  004ab	ff 15 00 00 00
	00		 call	 DWORD PTR __imp_??1?$CStringT@DV?$StrTraitMFC_DLL@DV?$ChTraitsCRT@D@ATL@@@@@ATL@@QAE@XZ
  004b1	8d 4d bc	 lea	 ecx, DWORD PTR _envHelper$[ebp+308]
  004b4	ff 15 00 00 00
	00		 call	 DWORD PTR __imp_??1?$CStringT@DV?$StrTraitMFC_DLL@DV?$ChTraitsCRT@D@ATL@@@@@ATL@@QAE@XZ
  004ba	8d 8d 20 ff ff
	ff		 lea	 ecx, DWORD PTR _envHelper$[ebp+152]
  004c0	e8 00 00 00 00	 call	 ??1CSTConfigEnv_Setup@@QAE@XZ ; CSTConfigEnv_Setup::~CSTConfigEnv_Setup

; 98   : 		if(m_pDefInfo) delete m_pDefInfo; m_pDefInfo=NULL;

  004c5	8b b5 1c ff ff
	ff		 mov	 esi, DWORD PTR _envHelper$[ebp+148]
  004cb	85 f6		 test	 esi, esi
  004cd	74 12		 je	 SHORT $LN105@LoadInfo
  004cf	8b ce		 mov	 ecx, esi
  004d1	e8 00 00 00 00	 call	 ??1CSTConfigEnv_Signal@@QAE@XZ ; CSTConfigEnv_Signal::~CSTConfigEnv_Signal
  004d6	6a 24		 push	 36			; 00000024H
  004d8	56		 push	 esi
  004d9	e8 00 00 00 00	 call	 ??3@YAXPAXI@Z		; operator delete
  004de	83 c4 08	 add	 esp, 8
$LN105@LoadInfo:

; 99   : 	}

  004e1	8d 8d 18 ff ff
	ff		 lea	 ecx, DWORD PTR _envHelper$[ebp+144]
  004e7	c7 85 1c ff ff
	ff 00 00 00 00	 mov	 DWORD PTR _envHelper$[ebp+148], 0
  004f1	ff 15 00 00 00
	00		 call	 DWORD PTR __imp_??1?$CStringT@DV?$StrTraitMFC_DLL@DV?$ChTraitsCRT@D@ATL@@@@@ATL@@QAE@XZ
  004f7	8d 8d 14 ff ff
	ff		 lea	 ecx, DWORD PTR _envHelper$[ebp+140]
  004fd	ff 15 00 00 00
	00		 call	 DWORD PTR __imp_??1?$CStringT@DV?$StrTraitMFC_DLL@DV?$ChTraitsCRT@D@ATL@@@@@ATL@@QAE@XZ
  00503	8d 8d 10 ff ff
	ff		 lea	 ecx, DWORD PTR _envHelper$[ebp+136]
  00509	ff 15 00 00 00
	00		 call	 DWORD PTR __imp_??1?$CStringT@DV?$StrTraitMFC_DLL@DV?$ChTraitsCRT@D@ATL@@@@@ATL@@QAE@XZ
  0050f	8d 8d 0c ff ff
	ff		 lea	 ecx, DWORD PTR _envHelper$[ebp+132]
  00515	ff 15 00 00 00
	00		 call	 DWORD PTR __imp_??1?$CStringT@DV?$StrTraitMFC_DLL@DV?$ChTraitsCRT@D@ATL@@@@@ATL@@QAE@XZ

; 55   : 		if(m_pDefInfo) delete m_pDefInfo; m_pDefInfo=NULL;

  0051b	8b b5 f8 fe ff
	ff		 mov	 esi, DWORD PTR _envHelper$[ebp+112]
  00521	85 f6		 test	 esi, esi
  00523	74 12		 je	 SHORT $LN114@LoadInfo
  00525	8b ce		 mov	 ecx, esi
  00527	e8 00 00 00 00	 call	 ??1CSTConfigEnv_Jumun@@QAE@XZ ; CSTConfigEnv_Jumun::~CSTConfigEnv_Jumun
  0052c	6a 74		 push	 116			; 00000074H
  0052e	56		 push	 esi
  0052f	e8 00 00 00 00	 call	 ??3@YAXPAXI@Z		; operator delete
  00534	83 c4 08	 add	 esp, 8
$LN114@LoadInfo:

; 56   : 	}

  00537	8d 8d f4 fe ff
	ff		 lea	 ecx, DWORD PTR _envHelper$[ebp+108]
  0053d	c7 85 f8 fe ff
	ff 00 00 00 00	 mov	 DWORD PTR _envHelper$[ebp+112], 0
  00547	ff 15 00 00 00
	00		 call	 DWORD PTR __imp_??1?$CStringT@DV?$StrTraitMFC_DLL@DV?$ChTraitsCRT@D@ATL@@@@@ATL@@QAE@XZ
  0054d	8d 8d f0 fe ff
	ff		 lea	 ecx, DWORD PTR _envHelper$[ebp+104]
  00553	ff 15 00 00 00
	00		 call	 DWORD PTR __imp_??1?$CStringT@DV?$StrTraitMFC_DLL@DV?$ChTraitsCRT@D@ATL@@@@@ATL@@QAE@XZ
  00559	8d 8d e0 fe ff
	ff		 lea	 ecx, DWORD PTR _envHelper$[ebp+88]
  0055f	ff 15 00 00 00
	00		 call	 DWORD PTR __imp_??1?$CStringT@DV?$StrTraitMFC_DLL@DV?$ChTraitsCRT@D@ATL@@@@@ATL@@QAE@XZ
  00565	8d 8d d8 fe ff
	ff		 lea	 ecx, DWORD PTR _envHelper$[ebp+80]
  0056b	ff 15 00 00 00
	00		 call	 DWORD PTR __imp_??1?$CStringT@DV?$StrTraitMFC_DLL@DV?$ChTraitsCRT@D@ATL@@@@@ATL@@QAE@XZ
; File D:\git\src\IBK\IBK_DRFN\ProjSrc\SrcDrfn\Chart\STCONFIGUREDLG\TabRunSetup.cpp

; 202  : }

  00571	8b 4d f4	 mov	 ecx, DWORD PTR __$EHRec$[ebp]
  00574	64 89 0d 00 00
	00 00		 mov	 DWORD PTR fs:0, ecx
  0057b	59		 pop	 ecx
  0057c	5f		 pop	 edi
  0057d	5e		 pop	 esi
  0057e	5b		 pop	 ebx
  0057f	8b 4d f0	 mov	 ecx, DWORD PTR __$ArrayPad$[ebp]
  00582	33 cd		 xor	 ecx, ebp
  00584	e8 00 00 00 00	 call	 @__security_check_cookie@4
  00589	8b e5		 mov	 esp, ebp
  0058b	5d		 pop	 ebp
  0058c	c3		 ret	 0
_TEXT	ENDS
;	COMDAT text$x
text$x	SEGMENT
__unwindfunclet$?LoadInfo@CTabRunSetup@@UAEXXZ$1:
  00000	8d 8d 88 fe ff
	ff		 lea	 ecx, DWORD PTR _envHelper$[ebp]
  00006	e9 00 00 00 00	 jmp	 ??1CSTConfigEnv_Jumun@@QAE@XZ ; CSTConfigEnv_Jumun::~CSTConfigEnv_Jumun
__unwindfunclet$?LoadInfo@CTabRunSetup@@UAEXXZ$2:
  0000b	8d 8d fc fe ff
	ff		 lea	 ecx, DWORD PTR _envHelper$[ebp+116]
  00011	e9 00 00 00 00	 jmp	 ??1CSTConfigEnv_Signal@@QAE@XZ ; CSTConfigEnv_Signal::~CSTConfigEnv_Signal
__unwindfunclet$?LoadInfo@CTabRunSetup@@UAEXXZ$3:
  00016	8d 8d 20 ff ff
	ff		 lea	 ecx, DWORD PTR _envHelper$[ebp+152]
  0001c	e9 00 00 00 00	 jmp	 ??1CSTConfigEnv_Setup@@QAE@XZ ; CSTConfigEnv_Setup::~CSTConfigEnv_Setup
__unwindfunclet$?LoadInfo@CTabRunSetup@@UAEXXZ$0:
  00021	8d 8d 88 fe ff
	ff		 lea	 ecx, DWORD PTR _envHelper$[ebp]
  00027	e9 00 00 00 00	 jmp	 ??1CSTConfigEnv@@QAE@XZ
  0002c	cc		 int	 3
  0002d	cc		 int	 3
  0002e	cc		 int	 3
  0002f	cc		 int	 3
  00030	cc		 int	 3
__ehhandler$?LoadInfo@CTabRunSetup@@UAEXXZ:
  00031	90		 npad	 1
  00032	90		 npad	 1
  00033	8b 54 24 08	 mov	 edx, DWORD PTR [esp+8]
  00037	8d 42 0c	 lea	 eax, DWORD PTR [edx+12]
  0003a	8b 8a 7c fe ff
	ff		 mov	 ecx, DWORD PTR [edx-388]
  00040	33 c8		 xor	 ecx, eax
  00042	e8 00 00 00 00	 call	 @__security_check_cookie@4
  00047	8b 4a fc	 mov	 ecx, DWORD PTR [edx-4]
  0004a	33 c8		 xor	 ecx, eax
  0004c	e8 00 00 00 00	 call	 @__security_check_cookie@4
  00051	b8 00 00 00 00	 mov	 eax, OFFSET __ehfuncinfo$?LoadInfo@CTabRunSetup@@UAEXXZ
  00056	e9 00 00 00 00	 jmp	 ___CxxFrameHandler3
text$x	ENDS
?LoadInfo@CTabRunSetup@@UAEXXZ ENDP			; CTabRunSetup::LoadInfo
; Function compile flags: /Ogtp
; File D:\git\src\IBK\IBK_DRFN\ProjSrc\SrcDrfn\Chart\STCONFIGUREDLG\TabRunSetup.cpp
;	COMDAT ?DoDataExchange@CTabRunSetup@@MAEXPAVCDataExchange@@@Z
_TEXT	SEGMENT
_pDX$ = 8						; size = 4
?DoDataExchange@CTabRunSetup@@MAEXPAVCDataExchange@@@Z PROC ; CTabRunSetup::DoDataExchange, COMDAT
; _this$ = ecx

; 32   : {

  00000	55		 push	 ebp
  00001	8b ec		 mov	 ebp, esp
  00003	56		 push	 esi
  00004	57		 push	 edi

; 33   : 	CRscDlg::DoDataExchange(pDX);

  00005	8b 7d 08	 mov	 edi, DWORD PTR _pDX$[ebp]
  00008	8b f1		 mov	 esi, ecx
  0000a	57		 push	 edi
  0000b	e8 00 00 00 00	 call	 ?DoDataExchange@CRscDlg@@MAEXPAVCDataExchange@@@Z ; CRscDlg::DoDataExchange

; 34   : 	//{{AFX_DATA_MAP(CTabRunSetup)
; 35   : 	DDX_Control(pDX, IDC_CBP1, m_cbP1);

  00010	8d 86 b0 00 00
	00		 lea	 eax, DWORD PTR [esi+176]
  00016	50		 push	 eax
  00017	68 68 71 00 00	 push	 29032			; 00007168H
  0001c	57		 push	 edi
  0001d	e8 00 00 00 00	 call	 ?DDX_Control@@YGXPAVCDataExchange@@HAAVCWnd@@@Z ; DDX_Control

; 36   : 	DDX_Control(pDX, IDC_CBP2, m_cbP2);

  00022	8d 86 38 01 00
	00		 lea	 eax, DWORD PTR [esi+312]
  00028	50		 push	 eax
  00029	68 69 71 00 00	 push	 29033			; 00007169H
  0002e	57		 push	 edi
  0002f	e8 00 00 00 00	 call	 ?DDX_Control@@YGXPAVCDataExchange@@HAAVCWnd@@@Z ; DDX_Control

; 37   : 	DDX_Control(pDX, IDC_CBP3, m_cbP3);

  00034	8d 86 c0 01 00
	00		 lea	 eax, DWORD PTR [esi+448]
  0003a	50		 push	 eax
  0003b	68 6c 71 00 00	 push	 29036			; 0000716cH
  00040	57		 push	 edi
  00041	e8 00 00 00 00	 call	 ?DDX_Control@@YGXPAVCDataExchange@@HAAVCWnd@@@Z ; DDX_Control

; 38   : 	DDX_Control(pDX, IDC_CBP4, m_cbP4);

  00046	8d 86 48 02 00
	00		 lea	 eax, DWORD PTR [esi+584]
  0004c	50		 push	 eax
  0004d	68 6f 71 00 00	 push	 29039			; 0000716fH
  00052	57		 push	 edi
  00053	e8 00 00 00 00	 call	 ?DDX_Control@@YGXPAVCDataExchange@@HAAVCWnd@@@Z ; DDX_Control

; 39   : 	DDX_Control(pDX, IDC_CBP5, m_cbP5);

  00058	8d 86 d0 02 00
	00		 lea	 eax, DWORD PTR [esi+720]
  0005e	50		 push	 eax
  0005f	68 72 71 00 00	 push	 29042			; 00007172H
  00064	57		 push	 edi
  00065	e8 00 00 00 00	 call	 ?DDX_Control@@YGXPAVCDataExchange@@HAAVCWnd@@@Z ; DDX_Control

; 40   : 	DDX_Control(pDX, IDC_CBP6, m_cbP6);

  0006a	8d 86 58 03 00
	00		 lea	 eax, DWORD PTR [esi+856]
  00070	50		 push	 eax
  00071	68 7f 71 00 00	 push	 29055			; 0000717fH
  00076	57		 push	 edi
  00077	e8 00 00 00 00	 call	 ?DDX_Control@@YGXPAVCDataExchange@@HAAVCWnd@@@Z ; DDX_Control

; 41   : 	DDX_Control(pDX, IDC_CBP7, m_cbP7);

  0007c	8d 86 e0 03 00
	00		 lea	 eax, DWORD PTR [esi+992]
  00082	50		 push	 eax
  00083	68 5a 71 00 00	 push	 29018			; 0000715aH
  00088	57		 push	 edi
  00089	e8 00 00 00 00	 call	 ?DDX_Control@@YGXPAVCDataExchange@@HAAVCWnd@@@Z ; DDX_Control

; 42   : 	DDX_Control(pDX, IDC_CBS1, m_cbS1);

  0008e	8d 86 68 04 00
	00		 lea	 eax, DWORD PTR [esi+1128]
  00094	50		 push	 eax
  00095	68 66 71 00 00	 push	 29030			; 00007166H
  0009a	57		 push	 edi
  0009b	e8 00 00 00 00	 call	 ?DDX_Control@@YGXPAVCDataExchange@@HAAVCWnd@@@Z ; DDX_Control

; 43   : 	DDX_Control(pDX, IDC_CBS2, m_cbS2);

  000a0	8d 86 f0 04 00
	00		 lea	 eax, DWORD PTR [esi+1264]
  000a6	50		 push	 eax
  000a7	68 6a 71 00 00	 push	 29034			; 0000716aH
  000ac	57		 push	 edi
  000ad	e8 00 00 00 00	 call	 ?DDX_Control@@YGXPAVCDataExchange@@HAAVCWnd@@@Z ; DDX_Control

; 44   : 	DDX_Control(pDX, IDC_CBS3, m_cbS3);

  000b2	8d 86 78 05 00
	00		 lea	 eax, DWORD PTR [esi+1400]
  000b8	50		 push	 eax
  000b9	68 6d 71 00 00	 push	 29037			; 0000716dH
  000be	57		 push	 edi
  000bf	e8 00 00 00 00	 call	 ?DDX_Control@@YGXPAVCDataExchange@@HAAVCWnd@@@Z ; DDX_Control

; 45   : 	DDX_Control(pDX, IDC_CBS4, m_cbS4);

  000c4	8d 86 00 06 00
	00		 lea	 eax, DWORD PTR [esi+1536]
  000ca	50		 push	 eax
  000cb	68 70 71 00 00	 push	 29040			; 00007170H
  000d0	57		 push	 edi
  000d1	e8 00 00 00 00	 call	 ?DDX_Control@@YGXPAVCDataExchange@@HAAVCWnd@@@Z ; DDX_Control

; 46   : 	DDX_Control(pDX, IDC_CBS5, m_cbS5);

  000d6	8d 86 88 06 00
	00		 lea	 eax, DWORD PTR [esi+1672]
  000dc	50		 push	 eax
  000dd	68 5b 71 00 00	 push	 29019			; 0000715bH
  000e2	57		 push	 edi
  000e3	e8 00 00 00 00	 call	 ?DDX_Control@@YGXPAVCDataExchange@@HAAVCWnd@@@Z ; DDX_Control

; 47   : 	DDX_Control(pDX, IDC_BT_C1, m_btnC1);

  000e8	8d 86 10 07 00
	00		 lea	 eax, DWORD PTR [esi+1808]
  000ee	50		 push	 eax
  000ef	68 78 71 00 00	 push	 29048			; 00007178H
  000f4	57		 push	 edi
  000f5	e8 00 00 00 00	 call	 ?DDX_Control@@YGXPAVCDataExchange@@HAAVCWnd@@@Z ; DDX_Control

; 48   : 	DDX_Control(pDX, IDC_BT_C2, m_btnC2);

  000fa	8d 86 a0 07 00
	00		 lea	 eax, DWORD PTR [esi+1952]
  00100	50		 push	 eax
  00101	68 79 71 00 00	 push	 29049			; 00007179H
  00106	57		 push	 edi
  00107	e8 00 00 00 00	 call	 ?DDX_Control@@YGXPAVCDataExchange@@HAAVCWnd@@@Z ; DDX_Control

; 49   : 	DDX_Control(pDX, IDC_BT_C3, m_btnC3);

  0010c	8d 86 30 08 00
	00		 lea	 eax, DWORD PTR [esi+2096]
  00112	50		 push	 eax
  00113	68 7a 71 00 00	 push	 29050			; 0000717aH
  00118	57		 push	 edi
  00119	e8 00 00 00 00	 call	 ?DDX_Control@@YGXPAVCDataExchange@@HAAVCWnd@@@Z ; DDX_Control

; 50   : 	DDX_Control(pDX, IDC_BT_C4, m_btnC4);

  0011e	8d 86 c0 08 00
	00		 lea	 eax, DWORD PTR [esi+2240]
  00124	50		 push	 eax
  00125	68 7b 71 00 00	 push	 29051			; 0000717bH
  0012a	57		 push	 edi
  0012b	e8 00 00 00 00	 call	 ?DDX_Control@@YGXPAVCDataExchange@@HAAVCWnd@@@Z ; DDX_Control

; 51   : 	DDX_Control(pDX, IDC_BT_C5, m_btnC5);

  00130	8d 86 50 09 00
	00		 lea	 eax, DWORD PTR [esi+2384]
  00136	50		 push	 eax
  00137	68 51 71 00 00	 push	 29009			; 00007151H
  0013c	57		 push	 edi
  0013d	e8 00 00 00 00	 call	 ?DDX_Control@@YGXPAVCDataExchange@@HAAVCWnd@@@Z ; DDX_Control

; 52   : 	DDX_Control(pDX, IDC_CB_TIME, m_cbTime);

  00142	8d 86 e0 09 00
	00		 lea	 eax, DWORD PTR [esi+2528]
  00148	50		 push	 eax
  00149	68 73 71 00 00	 push	 29043			; 00007173H
  0014e	57		 push	 edi
  0014f	e8 00 00 00 00	 call	 ?DDX_Control@@YGXPAVCDataExchange@@HAAVCWnd@@@Z ; DDX_Control

; 53   : 	//}}AFX_DATA_MAP
; 54   : 	DDX_Control(pDX, IDC_ED_TIME, m_xEditTime);

  00154	8d 86 78 0a 00
	00		 lea	 eax, DWORD PTR [esi+2680]
  0015a	50		 push	 eax
  0015b	68 0e 52 00 00	 push	 21006			; 0000520eH
  00160	57		 push	 edi
  00161	e8 00 00 00 00	 call	 ?DDX_Control@@YGXPAVCDataExchange@@HAAVCWnd@@@Z ; DDX_Control
  00166	5f		 pop	 edi
  00167	5e		 pop	 esi

; 55   : }

  00168	5d		 pop	 ebp
  00169	c2 04 00	 ret	 4
?DoDataExchange@CTabRunSetup@@MAEXPAVCDataExchange@@@Z ENDP ; CTabRunSetup::DoDataExchange
_TEXT	ENDS
; Function compile flags: /Ogtp
; File D:\git\src\IBK\IBK_DRFN\ProjSrc\SrcDrfn\Chart\STCONFIGUREDLG\TabRunSetup.cpp
;	COMDAT ??0CTabRunSetup@@QAE@PAVCWnd@@@Z
_TEXT	SEGMENT
_this$ = -16						; size = 4
__$EHRec$ = -12						; size = 12
_pParent$ = 8						; size = 4
??0CTabRunSetup@@QAE@PAVCWnd@@@Z PROC			; CTabRunSetup::CTabRunSetup, COMDAT
; _this$ = ecx

; 24   : {

  00000	55		 push	 ebp
  00001	8b ec		 mov	 ebp, esp
  00003	6a ff		 push	 -1
  00005	68 00 00 00 00	 push	 __ehhandler$??0CTabRunSetup@@QAE@PAVCWnd@@@Z
  0000a	64 a1 00 00 00
	00		 mov	 eax, DWORD PTR fs:0
  00010	50		 push	 eax
  00011	51		 push	 ecx
  00012	56		 push	 esi
  00013	a1 00 00 00 00	 mov	 eax, DWORD PTR ___security_cookie
  00018	33 c5		 xor	 eax, ebp
  0001a	50		 push	 eax
  0001b	8d 45 f4	 lea	 eax, DWORD PTR __$EHRec$[ebp]
  0001e	64 a3 00 00 00
	00		 mov	 DWORD PTR fs:0, eax
  00024	8b f1		 mov	 esi, ecx
  00026	89 75 f0	 mov	 DWORD PTR _this$[ebp], esi

; 23   : 	: CRscDlg(CTabRunSetup::IDD, pParent)

  00029	ff 75 08	 push	 DWORD PTR _pParent$[ebp]
  0002c	68 52 71 00 00	 push	 29010			; 00007152H
  00031	e8 00 00 00 00	 call	 ??0CRscDlg@@QAE@IPAVCWnd@@@Z ; CRscDlg::CRscDlg

; 24   : {

  00036	6a 00		 push	 0
  00038	8d 8e b0 00 00
	00		 lea	 ecx, DWORD PTR [esi+176]
  0003e	c7 45 fc 00 00
	00 00		 mov	 DWORD PTR __$EHRec$[ebp+8], 0
  00045	c7 06 00 00 00
	00		 mov	 DWORD PTR [esi], OFFSET ??_7CTabRunSetup@@6B@
  0004b	e8 00 00 00 00	 call	 ??0CExComboBox@@QAE@H@Z	; CExComboBox::CExComboBox
  00050	6a 00		 push	 0
  00052	8d 8e 38 01 00
	00		 lea	 ecx, DWORD PTR [esi+312]
  00058	c6 45 fc 01	 mov	 BYTE PTR __$EHRec$[ebp+8], 1
  0005c	e8 00 00 00 00	 call	 ??0CExComboBox@@QAE@H@Z	; CExComboBox::CExComboBox
  00061	6a 00		 push	 0
  00063	8d 8e c0 01 00
	00		 lea	 ecx, DWORD PTR [esi+448]
  00069	c6 45 fc 02	 mov	 BYTE PTR __$EHRec$[ebp+8], 2
  0006d	e8 00 00 00 00	 call	 ??0CExComboBox@@QAE@H@Z	; CExComboBox::CExComboBox
  00072	6a 00		 push	 0
  00074	8d 8e 48 02 00
	00		 lea	 ecx, DWORD PTR [esi+584]
  0007a	c6 45 fc 03	 mov	 BYTE PTR __$EHRec$[ebp+8], 3
  0007e	e8 00 00 00 00	 call	 ??0CExComboBox@@QAE@H@Z	; CExComboBox::CExComboBox
  00083	6a 00		 push	 0
  00085	8d 8e d0 02 00
	00		 lea	 ecx, DWORD PTR [esi+720]
  0008b	c6 45 fc 04	 mov	 BYTE PTR __$EHRec$[ebp+8], 4
  0008f	e8 00 00 00 00	 call	 ??0CExComboBox@@QAE@H@Z	; CExComboBox::CExComboBox
  00094	6a 00		 push	 0
  00096	8d 8e 58 03 00
	00		 lea	 ecx, DWORD PTR [esi+856]
  0009c	c6 45 fc 05	 mov	 BYTE PTR __$EHRec$[ebp+8], 5
  000a0	e8 00 00 00 00	 call	 ??0CExComboBox@@QAE@H@Z	; CExComboBox::CExComboBox
  000a5	6a 00		 push	 0
  000a7	8d 8e e0 03 00
	00		 lea	 ecx, DWORD PTR [esi+992]
  000ad	c6 45 fc 06	 mov	 BYTE PTR __$EHRec$[ebp+8], 6
  000b1	e8 00 00 00 00	 call	 ??0CExComboBox@@QAE@H@Z	; CExComboBox::CExComboBox
  000b6	6a 00		 push	 0
  000b8	8d 8e 68 04 00
	00		 lea	 ecx, DWORD PTR [esi+1128]
  000be	c6 45 fc 07	 mov	 BYTE PTR __$EHRec$[ebp+8], 7
  000c2	e8 00 00 00 00	 call	 ??0CExComboBox@@QAE@H@Z	; CExComboBox::CExComboBox
  000c7	6a 00		 push	 0
  000c9	8d 8e f0 04 00
	00		 lea	 ecx, DWORD PTR [esi+1264]
  000cf	c6 45 fc 08	 mov	 BYTE PTR __$EHRec$[ebp+8], 8
  000d3	e8 00 00 00 00	 call	 ??0CExComboBox@@QAE@H@Z	; CExComboBox::CExComboBox
  000d8	6a 00		 push	 0
  000da	8d 8e 78 05 00
	00		 lea	 ecx, DWORD PTR [esi+1400]
  000e0	c6 45 fc 09	 mov	 BYTE PTR __$EHRec$[ebp+8], 9
  000e4	e8 00 00 00 00	 call	 ??0CExComboBox@@QAE@H@Z	; CExComboBox::CExComboBox
  000e9	6a 00		 push	 0
  000eb	8d 8e 00 06 00
	00		 lea	 ecx, DWORD PTR [esi+1536]
  000f1	c6 45 fc 0a	 mov	 BYTE PTR __$EHRec$[ebp+8], 10 ; 0000000aH
  000f5	e8 00 00 00 00	 call	 ??0CExComboBox@@QAE@H@Z	; CExComboBox::CExComboBox
  000fa	6a 00		 push	 0
  000fc	8d 8e 88 06 00
	00		 lea	 ecx, DWORD PTR [esi+1672]
  00102	c6 45 fc 0b	 mov	 BYTE PTR __$EHRec$[ebp+8], 11 ; 0000000bH
  00106	e8 00 00 00 00	 call	 ??0CExComboBox@@QAE@H@Z	; CExComboBox::CExComboBox
  0010b	8d 8e 10 07 00
	00		 lea	 ecx, DWORD PTR [esi+1808]
  00111	c6 45 fc 0c	 mov	 BYTE PTR __$EHRec$[ebp+8], 12 ; 0000000cH
  00115	e8 00 00 00 00	 call	 ??0CColorButton@@QAE@XZ	; CColorButton::CColorButton
  0011a	8d 8e a0 07 00
	00		 lea	 ecx, DWORD PTR [esi+1952]
  00120	c6 45 fc 0d	 mov	 BYTE PTR __$EHRec$[ebp+8], 13 ; 0000000dH
  00124	e8 00 00 00 00	 call	 ??0CColorButton@@QAE@XZ	; CColorButton::CColorButton
  00129	8d 8e 30 08 00
	00		 lea	 ecx, DWORD PTR [esi+2096]
  0012f	c6 45 fc 0e	 mov	 BYTE PTR __$EHRec$[ebp+8], 14 ; 0000000eH
  00133	e8 00 00 00 00	 call	 ??0CColorButton@@QAE@XZ	; CColorButton::CColorButton
  00138	8d 8e c0 08 00
	00		 lea	 ecx, DWORD PTR [esi+2240]
  0013e	c6 45 fc 0f	 mov	 BYTE PTR __$EHRec$[ebp+8], 15 ; 0000000fH
  00142	e8 00 00 00 00	 call	 ??0CColorButton@@QAE@XZ	; CColorButton::CColorButton
  00147	8d 8e 50 09 00
	00		 lea	 ecx, DWORD PTR [esi+2384]
  0014d	c6 45 fc 10	 mov	 BYTE PTR __$EHRec$[ebp+8], 16 ; 00000010H
  00151	e8 00 00 00 00	 call	 ??0CColorButton@@QAE@XZ	; CColorButton::CColorButton
  00156	6a 00		 push	 0
  00158	8d 8e e0 09 00
	00		 lea	 ecx, DWORD PTR [esi+2528]
  0015e	c6 45 fc 11	 mov	 BYTE PTR __$EHRec$[ebp+8], 17 ; 00000011H
  00162	e8 00 00 00 00	 call	 ??0CExComboBox@@QAE@H@Z	; CExComboBox::CExComboBox
  00167	8d 8e 78 0a 00
	00		 lea	 ecx, DWORD PTR [esi+2680]
  0016d	c6 45 fc 12	 mov	 BYTE PTR __$EHRec$[ebp+8], 18 ; 00000012H
  00171	e8 00 00 00 00	 call	 ??0CXEdit@@QAE@XZ	; CXEdit::CXEdit

; 25   : 	//{{AFX_DATA_INIT(CTabRunSetup)
; 26   : 		// NOTE: the ClassWizard will add member initialization here
; 27   : 	//}}AFX_DATA_INIT
; 28   : }

  00176	8b c6		 mov	 eax, esi
  00178	8b 4d f4	 mov	 ecx, DWORD PTR __$EHRec$[ebp]
  0017b	64 89 0d 00 00
	00 00		 mov	 DWORD PTR fs:0, ecx
  00182	59		 pop	 ecx
  00183	5e		 pop	 esi
  00184	8b e5		 mov	 esp, ebp
  00186	5d		 pop	 ebp
  00187	c2 04 00	 ret	 4
_TEXT	ENDS
;	COMDAT text$x
text$x	SEGMENT
__unwindfunclet$??0CTabRunSetup@@QAE@PAVCWnd@@@Z$0:
  00000	8b 4d f0	 mov	 ecx, DWORD PTR _this$[ebp]
  00003	e9 00 00 00 00	 jmp	 ??1CRscDlg@@UAE@XZ
__unwindfunclet$??0CTabRunSetup@@QAE@PAVCWnd@@@Z$1:
  00008	8b 4d f0	 mov	 ecx, DWORD PTR _this$[ebp]
  0000b	81 c1 b0 00 00
	00		 add	 ecx, 176		; 000000b0H
  00011	e9 00 00 00 00	 jmp	 ??1CExComboBox@@UAE@XZ	; CExComboBox::~CExComboBox
__unwindfunclet$??0CTabRunSetup@@QAE@PAVCWnd@@@Z$2:
  00016	8b 4d f0	 mov	 ecx, DWORD PTR _this$[ebp]
  00019	81 c1 38 01 00
	00		 add	 ecx, 312		; 00000138H
  0001f	e9 00 00 00 00	 jmp	 ??1CExComboBox@@UAE@XZ	; CExComboBox::~CExComboBox
__unwindfunclet$??0CTabRunSetup@@QAE@PAVCWnd@@@Z$3:
  00024	8b 4d f0	 mov	 ecx, DWORD PTR _this$[ebp]
  00027	81 c1 c0 01 00
	00		 add	 ecx, 448		; 000001c0H
  0002d	e9 00 00 00 00	 jmp	 ??1CExComboBox@@UAE@XZ	; CExComboBox::~CExComboBox
__unwindfunclet$??0CTabRunSetup@@QAE@PAVCWnd@@@Z$4:
  00032	8b 4d f0	 mov	 ecx, DWORD PTR _this$[ebp]
  00035	81 c1 48 02 00
	00		 add	 ecx, 584		; 00000248H
  0003b	e9 00 00 00 00	 jmp	 ??1CExComboBox@@UAE@XZ	; CExComboBox::~CExComboBox
__unwindfunclet$??0CTabRunSetup@@QAE@PAVCWnd@@@Z$5:
  00040	8b 4d f0	 mov	 ecx, DWORD PTR _this$[ebp]
  00043	81 c1 d0 02 00
	00		 add	 ecx, 720		; 000002d0H
  00049	e9 00 00 00 00	 jmp	 ??1CExComboBox@@UAE@XZ	; CExComboBox::~CExComboBox
__unwindfunclet$??0CTabRunSetup@@QAE@PAVCWnd@@@Z$6:
  0004e	8b 4d f0	 mov	 ecx, DWORD PTR _this$[ebp]
  00051	81 c1 58 03 00
	00		 add	 ecx, 856		; 00000358H
  00057	e9 00 00 00 00	 jmp	 ??1CExComboBox@@UAE@XZ	; CExComboBox::~CExComboBox
__unwindfunclet$??0CTabRunSetup@@QAE@PAVCWnd@@@Z$7:
  0005c	8b 4d f0	 mov	 ecx, DWORD PTR _this$[ebp]
  0005f	81 c1 e0 03 00
	00		 add	 ecx, 992		; 000003e0H
  00065	e9 00 00 00 00	 jmp	 ??1CExComboBox@@UAE@XZ	; CExComboBox::~CExComboBox
__unwindfunclet$??0CTabRunSetup@@QAE@PAVCWnd@@@Z$8:
  0006a	8b 4d f0	 mov	 ecx, DWORD PTR _this$[ebp]
  0006d	81 c1 68 04 00
	00		 add	 ecx, 1128		; 00000468H
  00073	e9 00 00 00 00	 jmp	 ??1CExComboBox@@UAE@XZ	; CExComboBox::~CExComboBox
__unwindfunclet$??0CTabRunSetup@@QAE@PAVCWnd@@@Z$9:
  00078	8b 4d f0	 mov	 ecx, DWORD PTR _this$[ebp]
  0007b	81 c1 f0 04 00
	00		 add	 ecx, 1264		; 000004f0H
  00081	e9 00 00 00 00	 jmp	 ??1CExComboBox@@UAE@XZ	; CExComboBox::~CExComboBox
__unwindfunclet$??0CTabRunSetup@@QAE@PAVCWnd@@@Z$10:
  00086	8b 4d f0	 mov	 ecx, DWORD PTR _this$[ebp]
  00089	81 c1 78 05 00
	00		 add	 ecx, 1400		; 00000578H
  0008f	e9 00 00 00 00	 jmp	 ??1CExComboBox@@UAE@XZ	; CExComboBox::~CExComboBox
__unwindfunclet$??0CTabRunSetup@@QAE@PAVCWnd@@@Z$11:
  00094	8b 4d f0	 mov	 ecx, DWORD PTR _this$[ebp]
  00097	81 c1 00 06 00
	00		 add	 ecx, 1536		; 00000600H
  0009d	e9 00 00 00 00	 jmp	 ??1CExComboBox@@UAE@XZ	; CExComboBox::~CExComboBox
__unwindfunclet$??0CTabRunSetup@@QAE@PAVCWnd@@@Z$12:
  000a2	8b 4d f0	 mov	 ecx, DWORD PTR _this$[ebp]
  000a5	81 c1 88 06 00
	00		 add	 ecx, 1672		; 00000688H
  000ab	e9 00 00 00 00	 jmp	 ??1CExComboBox@@UAE@XZ	; CExComboBox::~CExComboBox
__unwindfunclet$??0CTabRunSetup@@QAE@PAVCWnd@@@Z$13:
  000b0	8b 4d f0	 mov	 ecx, DWORD PTR _this$[ebp]
  000b3	81 c1 10 07 00
	00		 add	 ecx, 1808		; 00000710H
  000b9	e9 00 00 00 00	 jmp	 ??1CColorButton@@UAE@XZ	; CColorButton::~CColorButton
__unwindfunclet$??0CTabRunSetup@@QAE@PAVCWnd@@@Z$14:
  000be	8b 4d f0	 mov	 ecx, DWORD PTR _this$[ebp]
  000c1	81 c1 a0 07 00
	00		 add	 ecx, 1952		; 000007a0H
  000c7	e9 00 00 00 00	 jmp	 ??1CColorButton@@UAE@XZ	; CColorButton::~CColorButton
__unwindfunclet$??0CTabRunSetup@@QAE@PAVCWnd@@@Z$15:
  000cc	8b 4d f0	 mov	 ecx, DWORD PTR _this$[ebp]
  000cf	81 c1 30 08 00
	00		 add	 ecx, 2096		; 00000830H
  000d5	e9 00 00 00 00	 jmp	 ??1CColorButton@@UAE@XZ	; CColorButton::~CColorButton
__unwindfunclet$??0CTabRunSetup@@QAE@PAVCWnd@@@Z$16:
  000da	8b 4d f0	 mov	 ecx, DWORD PTR _this$[ebp]
  000dd	81 c1 c0 08 00
	00		 add	 ecx, 2240		; 000008c0H
  000e3	e9 00 00 00 00	 jmp	 ??1CColorButton@@UAE@XZ	; CColorButton::~CColorButton
__unwindfunclet$??0CTabRunSetup@@QAE@PAVCWnd@@@Z$17:
  000e8	8b 4d f0	 mov	 ecx, DWORD PTR _this$[ebp]
  000eb	81 c1 50 09 00
	00		 add	 ecx, 2384		; 00000950H
  000f1	e9 00 00 00 00	 jmp	 ??1CColorButton@@UAE@XZ	; CColorButton::~CColorButton
__unwindfunclet$??0CTabRunSetup@@QAE@PAVCWnd@@@Z$18:
  000f6	8b 4d f0	 mov	 ecx, DWORD PTR _this$[ebp]
  000f9	81 c1 e0 09 00
	00		 add	 ecx, 2528		; 000009e0H
  000ff	e9 00 00 00 00	 jmp	 ??1CExComboBox@@UAE@XZ	; CExComboBox::~CExComboBox
  00104	cc		 int	 3
  00105	cc		 int	 3
  00106	cc		 int	 3
  00107	cc		 int	 3
  00108	cc		 int	 3
__ehhandler$??0CTabRunSetup@@QAE@PAVCWnd@@@Z:
  00109	90		 npad	 1
  0010a	90		 npad	 1
  0010b	8b 54 24 08	 mov	 edx, DWORD PTR [esp+8]
  0010f	8d 42 0c	 lea	 eax, DWORD PTR [edx+12]
  00112	8b 4a f4	 mov	 ecx, DWORD PTR [edx-12]
  00115	33 c8		 xor	 ecx, eax
  00117	e8 00 00 00 00	 call	 @__security_check_cookie@4
  0011c	b8 00 00 00 00	 mov	 eax, OFFSET __ehfuncinfo$??0CTabRunSetup@@QAE@PAVCWnd@@@Z
  00121	e9 00 00 00 00	 jmp	 ___CxxFrameHandler3
text$x	ENDS
??0CTabRunSetup@@QAE@PAVCWnd@@@Z ENDP			; CTabRunSetup::CTabRunSetup
; Function compile flags: /Ogtp
;	COMDAT ??1CRscDlg@@UAE@XZ
_TEXT	SEGMENT
??1CRscDlg@@UAE@XZ PROC					; CRscDlg::~CRscDlg, COMDAT
; _this$ = ecx
  00000	56		 push	 esi
  00001	8b f1		 mov	 esi, ecx
  00003	8d 8e ac 00 00
	00		 lea	 ecx, DWORD PTR [esi+172]
  00009	ff 15 00 00 00
	00		 call	 DWORD PTR __imp_??1?$CStringT@DV?$StrTraitMFC_DLL@DV?$ChTraitsCRT@D@ATL@@@@@ATL@@QAE@XZ
  0000f	8d 8e a8 00 00
	00		 lea	 ecx, DWORD PTR [esi+168]
  00015	ff 15 00 00 00
	00		 call	 DWORD PTR __imp_??1?$CStringT@DV?$StrTraitMFC_DLL@DV?$ChTraitsCRT@D@ATL@@@@@ATL@@QAE@XZ
  0001b	8b ce		 mov	 ecx, esi
  0001d	5e		 pop	 esi
  0001e	e9 00 00 00 00	 jmp	 ??1CDialog@@UAE@XZ	; CDialog::~CDialog
??1CRscDlg@@UAE@XZ ENDP					; CRscDlg::~CRscDlg
_TEXT	ENDS
; Function compile flags: /Ogtp
; File D:\git\src\IBK\IBK_DRFN\ProjSrc\SrcDrfn\Chart\STCONFIGUREDLG\RscDlg.h
;	COMDAT ?PreTranslateMessage@CRscDlg@@MAEHPAUtagMSG@@@Z
_TEXT	SEGMENT
_pMsg$ = 8						; size = 4
?PreTranslateMessage@CRscDlg@@MAEHPAUtagMSG@@@Z PROC	; CRscDlg::PreTranslateMessage, COMDAT
; _this$ = ecx

; 60   : {

  00000	55		 push	 ebp
  00001	8b ec		 mov	 ebp, esp
  00003	56		 push	 esi

; 61   : 	//     		by KHD
; 62   : 	
; 63   : 	if(pMsg->message == WM_KEYDOWN)   

  00004	8b 75 08	 mov	 esi, DWORD PTR _pMsg$[ebp]
  00007	57		 push	 edi
  00008	8b f9		 mov	 edi, ecx
  0000a	81 7e 04 00 01
	00 00		 cmp	 DWORD PTR [esi+4], 256	; 00000100H
  00011	75 49		 jne	 SHORT $LN5@PreTransla

; 64   : 	{
; 65   : 		if(pMsg->wParam == VK_F4 && (::GetKeyState(VK_CONTROL) & 0x8000))

  00013	83 7e 08 73	 cmp	 DWORD PTR [esi+8], 115	; 00000073H
  00017	75 36		 jne	 SHORT $LN14@PreTransla
  00019	6a 11		 push	 17			; 00000011H
  0001b	ff 15 00 00 00
	00		 call	 DWORD PTR __imp__GetKeyState@4
  00021	66 0f ba e0 0f	 bt	 ax, 15			; 0000000fH
  00026	73 27		 jae	 SHORT $LN14@PreTransla

; 66   : 		{
; 67   : 			
; 68   : 			pMsg->wParam = VK_ESCAPE;

  00028	c7 46 08 1b 00
	00 00		 mov	 DWORD PTR [esi+8], 27	; 0000001bH
$LN15@PreTransla:

; 81   : }

  0002f	ff 77 20	 push	 DWORD PTR [edi+32]
  00032	ff 15 00 00 00
	00		 call	 DWORD PTR __imp__GetParent@4
  00038	50		 push	 eax
  00039	e8 00 00 00 00	 call	 ?FromHandle@CWnd@@SGPAV1@PAUHWND__@@@Z ; CWnd::FromHandle
  0003e	56		 push	 esi
  0003f	8b c8		 mov	 ecx, eax
  00041	8b 10		 mov	 edx, DWORD PTR [eax]
  00043	ff 92 14 01 00
	00		 call	 DWORD PTR [edx+276]
  00049	5f		 pop	 edi
  0004a	5e		 pop	 esi
  0004b	5d		 pop	 ebp
  0004c	c2 04 00	 ret	 4
$LN14@PreTransla:

; 69   : 			return GetParent()->PreTranslateMessage(pMsg);
; 70   : 		}
; 71   : 		if(pMsg->wParam == VK_ESCAPE)

  0004f	8b 46 08	 mov	 eax, DWORD PTR [esi+8]
  00052	83 f8 1b	 cmp	 eax, 27			; 0000001bH
  00055	74 d8		 je	 SHORT $LN15@PreTransla

; 72   : 		{
; 73   : 			return GetParent()->PreTranslateMessage(pMsg);
; 74   : 		}
; 75   : 		if(pMsg->wParam == VK_RETURN)

  00057	83 f8 0d	 cmp	 eax, 13			; 0000000dH
  0005a	74 d3		 je	 SHORT $LN15@PreTransla
$LN5@PreTransla:

; 76   : 			return GetParent()->PreTranslateMessage(pMsg);
; 77   : 
; 78   : 	}
; 79   : 
; 80   : 	return CDialog::PreTranslateMessage(pMsg);

  0005c	56		 push	 esi
  0005d	8b cf		 mov	 ecx, edi
  0005f	e8 00 00 00 00	 call	 ?PreTranslateMessage@CDialog@@UAEHPAUtagMSG@@@Z ; CDialog::PreTranslateMessage
  00064	5f		 pop	 edi

; 81   : }

  00065	5e		 pop	 esi
  00066	5d		 pop	 ebp
  00067	c2 04 00	 ret	 4
?PreTranslateMessage@CRscDlg@@MAEHPAUtagMSG@@@Z ENDP	; CRscDlg::PreTranslateMessage
_TEXT	ENDS
; Function compile flags: /Ogtp
; File D:\git\src\IBK\IBK_DRFN\ProjSrc\SrcDrfn\Chart\STCONFIGUREDLG\ConfigHelper.h
; File C:\Program Files (x86)\Microsoft Visual Studio\2019\Community\VC\Tools\MSVC\14.29.30133\atlmfc\include\afxwin2.inl
; File D:\git\src\IBK\IBK_DRFN\ProjSrc\SrcDrfn\Chart\STCONFIGUREDLG\ConfigHelper.h
; File C:\Program Files (x86)\Microsoft Visual Studio\2019\Community\VC\Tools\MSVC\14.29.30133\atlmfc\include\afxwin2.inl
; File D:\git\src\IBK\IBK_DRFN\ProjSrc\SrcDrfn\Chart\STCONFIGUREDLG\ConfigHelper.h
;	COMDAT ?cmStar@CConfigHelper@@SAHPAVCComboBox@@@Z
_TEXT	SEGMENT
_aStr$ = -36						; size = 32
__$ArrayPad$ = -4					; size = 4
_pCb$ = 8						; size = 4
?cmStar@CConfigHelper@@SAHPAVCComboBox@@@Z PROC		; CConfigHelper::cmStar, COMDAT

; 175  : 	{

  00000	55		 push	 ebp
  00001	8b ec		 mov	 ebp, esp
  00003	83 ec 24	 sub	 esp, 36			; 00000024H
  00006	a1 00 00 00 00	 mov	 eax, DWORD PTR ___security_cookie
  0000b	33 c5		 xor	 eax, ebp
  0000d	89 45 fc	 mov	 DWORD PTR __$ArrayPad$[ebp], eax
  00010	53		 push	 ebx
  00011	8b 1d 00 00 00
	00		 mov	 ebx, DWORD PTR __imp__SendMessageA@16
  00017	56		 push	 esi
  00018	57		 push	 edi
  00019	8b 7d 08	 mov	 edi, DWORD PTR _pCb$[ebp]
  0001c	33 f6		 xor	 esi, esi

; 176  : 		char *aStr[] = STRLIST_CLEAR;

  0001e	c7 45 dc 00 00
	00 00		 mov	 DWORD PTR _aStr$[ebp], OFFSET ??_C@_02KDNDDMCP@?$KB?Z@
  00025	c7 45 e0 00 00
	00 00		 mov	 DWORD PTR _aStr$[ebp+4], OFFSET ??_C@_02IIPOGPOM@?$KB?Y@
  0002c	c7 45 e4 00 00
	00 00		 mov	 DWORD PTR _aStr$[ebp+8], OFFSET ??_C@_02BBLIHIKN@?$KC?$MA@
  00033	c7 45 e8 00 00
	00 00		 mov	 DWORD PTR _aStr$[ebp+12], OFFSET ??_C@_02LJBPBNJE@?$KC?$LP@
  0003a	c7 45 ec 00 00
	00 00		 mov	 DWORD PTR _aStr$[ebp+16], OFFSET ??_C@_02CDIOBKCP@?$KC?B@
  00041	c7 45 f0 00 00
	00 00		 mov	 DWORD PTR _aStr$[ebp+20], OFFSET ??_C@_02DKJFCLGO@?$KC?C@
  00048	c7 45 f4 00 00
	00 00		 mov	 DWORD PTR _aStr$[ebp+24], OFFSET ??_C@_02JPGBNDBH@?$KB?a@
  0004f	c7 45 f8 00 00
	00 00		 mov	 DWORD PTR _aStr$[ebp+28], OFFSET ??_C@_02IGHKOCFG@?$KB?$OA@
  00056	66 66 0f 1f 84
	00 00 00 00 00	 npad	 10
$LL4@cmStar:
; File C:\Program Files (x86)\Microsoft Visual Studio\2019\Community\VC\Tools\MSVC\14.29.30133\atlmfc\include\afxwin2.inl

; 795  : 	{ ASSERT(::IsWindow(m_hWnd)); return (int)::SendMessage(m_hWnd, CB_ADDSTRING, 0, (LPARAM)lpszString); }

  00060	ff 74 b5 dc	 push	 DWORD PTR _aStr$[ebp+esi*4]
  00064	6a 00		 push	 0
  00066	68 43 01 00 00	 push	 323			; 00000143H
  0006b	ff 77 20	 push	 DWORD PTR [edi+32]
  0006e	ff d3		 call	 ebx
; File D:\git\src\IBK\IBK_DRFN\ProjSrc\SrcDrfn\Chart\STCONFIGUREDLG\ConfigHelper.h

; 179  : 		for(int i=0; i<nSize; i++)

  00070	46		 inc	 esi
  00071	83 fe 08	 cmp	 esi, 8
  00074	7c ea		 jl	 SHORT $LL4@cmStar
; File C:\Program Files (x86)\Microsoft Visual Studio\2019\Community\VC\Tools\MSVC\14.29.30133\atlmfc\include\afxwin2.inl

; 763  : 	{ ASSERT(::IsWindow(m_hWnd)); return (int)::SendMessage(m_hWnd, CB_GETCOUNT, 0, 0); }

  00076	6a 00		 push	 0
  00078	6a 00		 push	 0
  0007a	68 46 01 00 00	 push	 326			; 00000146H
  0007f	ff 77 20	 push	 DWORD PTR [edi+32]
  00082	ff d3		 call	 ebx
; File D:\git\src\IBK\IBK_DRFN\ProjSrc\SrcDrfn\Chart\STCONFIGUREDLG\ConfigHelper.h

; 192  : 	}

  00084	8b 4d fc	 mov	 ecx, DWORD PTR __$ArrayPad$[ebp]
  00087	5f		 pop	 edi
  00088	5e		 pop	 esi
  00089	33 cd		 xor	 ecx, ebp
  0008b	5b		 pop	 ebx
  0008c	e8 00 00 00 00	 call	 @__security_check_cookie@4
  00091	8b e5		 mov	 esp, ebp
  00093	5d		 pop	 ebp
  00094	c3		 ret	 0
?cmStar@CConfigHelper@@SAHPAVCComboBox@@@Z ENDP		; CConfigHelper::cmStar
_TEXT	ENDS
; Function compile flags: /Ogtp
; File D:\git\src\IBK\IBK_DRFN\ProjSrc\SrcDrfn\Chart\Common_ST\STConfigEnv.h
;	COMDAT ??1CSTConfigEnv@@QAE@XZ
_TEXT	SEGMENT
??1CSTConfigEnv@@QAE@XZ PROC				; CSTConfigEnv::~CSTConfigEnv, COMDAT
; _this$ = ecx

; 288  : 		if(m_pDefInfo) delete m_pDefInfo; m_pDefInfo=NULL;

  00000	56		 push	 esi
  00001	8b f1		 mov	 esi, ecx
  00003	57		 push	 edi
  00004	8d 8e 5c 01 00
	00		 lea	 ecx, DWORD PTR [esi+348]
  0000a	ff 15 00 00 00
	00		 call	 DWORD PTR __imp_??1?$CStringT@DV?$StrTraitMFC_DLL@DV?$ChTraitsCRT@D@ATL@@@@@ATL@@QAE@XZ
  00010	8d 8e 58 01 00
	00		 lea	 ecx, DWORD PTR [esi+344]
  00016	ff 15 00 00 00
	00		 call	 DWORD PTR __imp_??1?$CStringT@DV?$StrTraitMFC_DLL@DV?$ChTraitsCRT@D@ATL@@@@@ATL@@QAE@XZ
  0001c	8d 8e 54 01 00
	00		 lea	 ecx, DWORD PTR [esi+340]
  00022	ff 15 00 00 00
	00		 call	 DWORD PTR __imp_??1?$CStringT@DV?$StrTraitMFC_DLL@DV?$ChTraitsCRT@D@ATL@@@@@ATL@@QAE@XZ
  00028	8d 8e 50 01 00
	00		 lea	 ecx, DWORD PTR [esi+336]
  0002e	ff 15 00 00 00
	00		 call	 DWORD PTR __imp_??1?$CStringT@DV?$StrTraitMFC_DLL@DV?$ChTraitsCRT@D@ATL@@@@@ATL@@QAE@XZ
  00034	8b be 4c 01 00
	00		 mov	 edi, DWORD PTR [esi+332]
  0003a	85 ff		 test	 edi, edi
  0003c	74 12		 je	 SHORT $LN10@CSTConfigE
  0003e	8b cf		 mov	 ecx, edi
  00040	e8 00 00 00 00	 call	 ??1CSTConfigEnv_Clear@@QAE@XZ ; CSTConfigEnv_Clear::~CSTConfigEnv_Clear
  00045	6a 28		 push	 40			; 00000028H
  00047	57		 push	 edi
  00048	e8 00 00 00 00	 call	 ??3@YAXPAXI@Z		; operator delete
  0004d	83 c4 08	 add	 esp, 8
$LN10@CSTConfigE:

; 289  : 	}

  00050	8d 8e 44 01 00
	00		 lea	 ecx, DWORD PTR [esi+324]
  00056	c7 86 4c 01 00
	00 00 00 00 00	 mov	 DWORD PTR [esi+332], 0
  00060	ff 15 00 00 00
	00		 call	 DWORD PTR __imp_??1?$CStringT@DV?$StrTraitMFC_DLL@DV?$ChTraitsCRT@D@ATL@@@@@ATL@@QAE@XZ
  00066	8d 8e 40 01 00
	00		 lea	 ecx, DWORD PTR [esi+320]
  0006c	ff 15 00 00 00
	00		 call	 DWORD PTR __imp_??1?$CStringT@DV?$StrTraitMFC_DLL@DV?$ChTraitsCRT@D@ATL@@@@@ATL@@QAE@XZ
  00072	8d 8e 38 01 00
	00		 lea	 ecx, DWORD PTR [esi+312]
  00078	ff 15 00 00 00
	00		 call	 DWORD PTR __imp_??1?$CStringT@DV?$StrTraitMFC_DLL@DV?$ChTraitsCRT@D@ATL@@@@@ATL@@QAE@XZ
  0007e	8d 8e 34 01 00
	00		 lea	 ecx, DWORD PTR [esi+308]
  00084	ff 15 00 00 00
	00		 call	 DWORD PTR __imp_??1?$CStringT@DV?$StrTraitMFC_DLL@DV?$ChTraitsCRT@D@ATL@@@@@ATL@@QAE@XZ
  0008a	8d 8e 98 00 00
	00		 lea	 ecx, DWORD PTR [esi+152]
  00090	e8 00 00 00 00	 call	 ??1CSTConfigEnv_Setup@@QAE@XZ ; CSTConfigEnv_Setup::~CSTConfigEnv_Setup

; 98   : 		if(m_pDefInfo) delete m_pDefInfo; m_pDefInfo=NULL;

  00095	8b be 94 00 00
	00		 mov	 edi, DWORD PTR [esi+148]
  0009b	85 ff		 test	 edi, edi
  0009d	74 12		 je	 SHORT $LN19@CSTConfigE
  0009f	8b cf		 mov	 ecx, edi
  000a1	e8 00 00 00 00	 call	 ??1CSTConfigEnv_Signal@@QAE@XZ ; CSTConfigEnv_Signal::~CSTConfigEnv_Signal
  000a6	6a 24		 push	 36			; 00000024H
  000a8	57		 push	 edi
  000a9	e8 00 00 00 00	 call	 ??3@YAXPAXI@Z		; operator delete
  000ae	83 c4 08	 add	 esp, 8
$LN19@CSTConfigE:

; 99   : 	}

  000b1	8d 8e 90 00 00
	00		 lea	 ecx, DWORD PTR [esi+144]
  000b7	c7 86 94 00 00
	00 00 00 00 00	 mov	 DWORD PTR [esi+148], 0
  000c1	ff 15 00 00 00
	00		 call	 DWORD PTR __imp_??1?$CStringT@DV?$StrTraitMFC_DLL@DV?$ChTraitsCRT@D@ATL@@@@@ATL@@QAE@XZ
  000c7	8d 8e 8c 00 00
	00		 lea	 ecx, DWORD PTR [esi+140]
  000cd	ff 15 00 00 00
	00		 call	 DWORD PTR __imp_??1?$CStringT@DV?$StrTraitMFC_DLL@DV?$ChTraitsCRT@D@ATL@@@@@ATL@@QAE@XZ
  000d3	8d 8e 88 00 00
	00		 lea	 ecx, DWORD PTR [esi+136]
  000d9	ff 15 00 00 00
	00		 call	 DWORD PTR __imp_??1?$CStringT@DV?$StrTraitMFC_DLL@DV?$ChTraitsCRT@D@ATL@@@@@ATL@@QAE@XZ
  000df	8d 8e 84 00 00
	00		 lea	 ecx, DWORD PTR [esi+132]
  000e5	ff 15 00 00 00
	00		 call	 DWORD PTR __imp_??1?$CStringT@DV?$StrTraitMFC_DLL@DV?$ChTraitsCRT@D@ATL@@@@@ATL@@QAE@XZ

; 55   : 		if(m_pDefInfo) delete m_pDefInfo; m_pDefInfo=NULL;

  000eb	8b 7e 70	 mov	 edi, DWORD PTR [esi+112]
  000ee	85 ff		 test	 edi, edi
  000f0	74 12		 je	 SHORT $LN28@CSTConfigE
  000f2	8b cf		 mov	 ecx, edi
  000f4	e8 00 00 00 00	 call	 ??1CSTConfigEnv_Jumun@@QAE@XZ ; CSTConfigEnv_Jumun::~CSTConfigEnv_Jumun
  000f9	6a 74		 push	 116			; 00000074H
  000fb	57		 push	 edi
  000fc	e8 00 00 00 00	 call	 ??3@YAXPAXI@Z		; operator delete
  00101	83 c4 08	 add	 esp, 8
$LN28@CSTConfigE:

; 56   : 	}

  00104	8d 4e 6c	 lea	 ecx, DWORD PTR [esi+108]
  00107	c7 46 70 00 00
	00 00		 mov	 DWORD PTR [esi+112], 0
  0010e	ff 15 00 00 00
	00		 call	 DWORD PTR __imp_??1?$CStringT@DV?$StrTraitMFC_DLL@DV?$ChTraitsCRT@D@ATL@@@@@ATL@@QAE@XZ
  00114	8d 4e 68	 lea	 ecx, DWORD PTR [esi+104]
  00117	ff 15 00 00 00
	00		 call	 DWORD PTR __imp_??1?$CStringT@DV?$StrTraitMFC_DLL@DV?$ChTraitsCRT@D@ATL@@@@@ATL@@QAE@XZ
  0011d	8d 4e 58	 lea	 ecx, DWORD PTR [esi+88]
  00120	ff 15 00 00 00
	00		 call	 DWORD PTR __imp_??1?$CStringT@DV?$StrTraitMFC_DLL@DV?$ChTraitsCRT@D@ATL@@@@@ATL@@QAE@XZ
  00126	5f		 pop	 edi
  00127	8d 4e 50	 lea	 ecx, DWORD PTR [esi+80]
  0012a	5e		 pop	 esi
  0012b	ff 25 00 00 00
	00		 jmp	 DWORD PTR __imp_??1?$CStringT@DV?$StrTraitMFC_DLL@DV?$ChTraitsCRT@D@ATL@@@@@ATL@@QAE@XZ
??1CSTConfigEnv@@QAE@XZ ENDP				; CSTConfigEnv::~CSTConfigEnv
_TEXT	ENDS
; Function compile flags: /Ogtp
; File D:\git\src\IBK\IBK_DRFN\ProjSrc\SrcDrfn\Chart\Common_ST\STConfigEnv.h
;	COMDAT ?LoadInfo@CSTConfigEnv@@QAEXPBD0H@Z
_TEXT	SEGMENT
__$EHRec$ = -12						; size = 12
_szFileName$ = 8					; size = 4
_szDefFileName$ = 12					; size = 4
$T2 = 16						; size = 4
$T3 = 16						; size = 4
$T4 = 16						; size = 4
$T5 = 16						; size = 4
_nKey$ = 16						; size = 4
?LoadInfo@CSTConfigEnv@@QAEXPBD0H@Z PROC		; CSTConfigEnv::LoadInfo, COMDAT
; _this$ = ecx

; 375  : {

  00000	55		 push	 ebp
  00001	8b ec		 mov	 ebp, esp
  00003	6a ff		 push	 -1
  00005	68 00 00 00 00	 push	 __ehhandler$?LoadInfo@CSTConfigEnv@@QAEXPBD0H@Z
  0000a	64 a1 00 00 00
	00		 mov	 eax, DWORD PTR fs:0
  00010	50		 push	 eax
  00011	53		 push	 ebx
  00012	56		 push	 esi
  00013	57		 push	 edi
  00014	a1 00 00 00 00	 mov	 eax, DWORD PTR ___security_cookie
  00019	33 c5		 xor	 eax, ebp
  0001b	50		 push	 eax
  0001c	8d 45 f4	 lea	 eax, DWORD PTR __$EHRec$[ebp]
  0001f	64 a3 00 00 00
	00		 mov	 DWORD PTR fs:0, eax
  00025	8b f1		 mov	 esi, ecx

; 376  : 	if(nKey&STConfigEnv_Jumun)

  00027	8b 5d 10	 mov	 ebx, DWORD PTR _nKey$[ebp]
  0002a	8b 7d 0c	 mov	 edi, DWORD PTR _szDefFileName$[ebp]
  0002d	f6 c3 01	 test	 bl, 1
  00030	74 54		 je	 SHORT $LN2@LoadInfo

; 377  : 	{
; 378  : 		m_InfoJumun.m_pDefInfo = new CSTConfigEnv_Jumun;

  00032	6a 74		 push	 116			; 00000074H
  00034	e8 00 00 00 00	 call	 ??2@YAPAXI@Z		; operator new
  00039	83 c4 04	 add	 esp, 4
  0003c	89 45 10	 mov	 DWORD PTR $T5[ebp], eax
  0003f	85 c0		 test	 eax, eax
  00041	74 09		 je	 SHORT $LN7@LoadInfo
  00043	8b c8		 mov	 ecx, eax
  00045	e8 00 00 00 00	 call	 ??0CSTConfigEnv_Jumun@@QAE@XZ ; CSTConfigEnv_Jumun::CSTConfigEnv_Jumun
  0004a	eb 02		 jmp	 SHORT $LN8@LoadInfo
$LN7@LoadInfo:
  0004c	33 c0		 xor	 eax, eax
$LN8@LoadInfo:

; 379  : 		m_InfoJumun.m_pDefInfo->LoadInfo(szDefFileName);

  0004e	57		 push	 edi
  0004f	8b c8		 mov	 ecx, eax
  00051	89 46 70	 mov	 DWORD PTR [esi+112], eax
  00054	e8 00 00 00 00	 call	 ?LoadInfo@CSTConfigEnv_Jumun@@QAEXPBD@Z ; CSTConfigEnv_Jumun::LoadInfo

; 380  : 		m_InfoJumun.LoadInfo(szFileName);

  00059	ff 75 08	 push	 DWORD PTR _szFileName$[ebp]
  0005c	8b ce		 mov	 ecx, esi
  0005e	e8 00 00 00 00	 call	 ?LoadInfo@CSTConfigEnv_Jumun@@QAEXPBD@Z ; CSTConfigEnv_Jumun::LoadInfo

; 381  : 		delete m_InfoJumun.m_pDefInfo;

  00063	8b 7e 70	 mov	 edi, DWORD PTR [esi+112]
  00066	85 ff		 test	 edi, edi
  00068	74 12		 je	 SHORT $LN28@LoadInfo
  0006a	8b cf		 mov	 ecx, edi
  0006c	e8 00 00 00 00	 call	 ??1CSTConfigEnv_Jumun@@QAE@XZ ; CSTConfigEnv_Jumun::~CSTConfigEnv_Jumun
  00071	6a 74		 push	 116			; 00000074H
  00073	57		 push	 edi
  00074	e8 00 00 00 00	 call	 ??3@YAXPAXI@Z		; operator delete
  00079	83 c4 08	 add	 esp, 8
$LN28@LoadInfo:

; 382  : 		m_InfoJumun.m_pDefInfo = NULL;

  0007c	8b 7d 0c	 mov	 edi, DWORD PTR _szDefFileName$[ebp]
  0007f	c7 46 70 00 00
	00 00		 mov	 DWORD PTR [esi+112], 0
$LN2@LoadInfo:

; 383  : 	}
; 384  : 
; 385  : 	if(nKey&STConfigEnv_Signal)

  00086	f6 c3 02	 test	 bl, 2
  00089	74 69		 je	 SHORT $LN3@LoadInfo

; 386  : 	{
; 387  : 		m_InfoSignal.m_pDefInfo = new CSTConfigEnv_Signal;

  0008b	6a 24		 push	 36			; 00000024H
  0008d	e8 00 00 00 00	 call	 ??2@YAPAXI@Z		; operator new
  00092	83 c4 04	 add	 esp, 4
  00095	89 45 10	 mov	 DWORD PTR $T4[ebp], eax
  00098	c7 45 fc 00 00
	00 00		 mov	 DWORD PTR __$EHRec$[ebp+8], 0
  0009f	85 c0		 test	 eax, eax
  000a1	74 09		 je	 SHORT $LN11@LoadInfo
  000a3	8b c8		 mov	 ecx, eax
  000a5	e8 00 00 00 00	 call	 ??0CSTConfigEnv_Signal@@QAE@XZ ; CSTConfigEnv_Signal::CSTConfigEnv_Signal
  000aa	eb 02		 jmp	 SHORT $LN12@LoadInfo
$LN11@LoadInfo:
  000ac	33 c0		 xor	 eax, eax
$LN12@LoadInfo:

; 388  : 		m_InfoSignal.m_pDefInfo->LoadInfo(szDefFileName);

  000ae	57		 push	 edi
  000af	8b c8		 mov	 ecx, eax
  000b1	c7 45 fc ff ff
	ff ff		 mov	 DWORD PTR __$EHRec$[ebp+8], -1
  000b8	89 86 94 00 00
	00		 mov	 DWORD PTR [esi+148], eax
  000be	e8 00 00 00 00	 call	 ?LoadInfo@CSTConfigEnv_Signal@@QAEXPBD@Z ; CSTConfigEnv_Signal::LoadInfo

; 389  : 		m_InfoSignal.LoadInfo(szFileName);

  000c3	ff 75 08	 push	 DWORD PTR _szFileName$[ebp]
  000c6	8d 4e 74	 lea	 ecx, DWORD PTR [esi+116]
  000c9	e8 00 00 00 00	 call	 ?LoadInfo@CSTConfigEnv_Signal@@QAEXPBD@Z ; CSTConfigEnv_Signal::LoadInfo

; 390  : 		delete m_InfoSignal.m_pDefInfo;

  000ce	8b be 94 00 00
	00		 mov	 edi, DWORD PTR [esi+148]
  000d4	85 ff		 test	 edi, edi
  000d6	74 12		 je	 SHORT $LN31@LoadInfo
  000d8	8b cf		 mov	 ecx, edi
  000da	e8 00 00 00 00	 call	 ??1CSTConfigEnv_Signal@@QAE@XZ ; CSTConfigEnv_Signal::~CSTConfigEnv_Signal
  000df	6a 24		 push	 36			; 00000024H
  000e1	57		 push	 edi
  000e2	e8 00 00 00 00	 call	 ??3@YAXPAXI@Z		; operator delete
  000e7	83 c4 08	 add	 esp, 8
$LN31@LoadInfo:

; 391  : 		m_InfoSignal.m_pDefInfo = NULL;

  000ea	c7 86 94 00 00
	00 00 00 00 00	 mov	 DWORD PTR [esi+148], 0
$LN3@LoadInfo:

; 392  : 	}
; 393  : 
; 394  : 	if(nKey&STConfigEnv_Setup)

  000f4	f6 c3 04	 test	 bl, 4
  000f7	74 74		 je	 SHORT $LN4@LoadInfo

; 395  : 	{
; 396  : 		m_InfoSetup.m_pDefInfo = new CSTConfigEnv_Setup;

  000f9	68 90 00 00 00	 push	 144			; 00000090H
  000fe	e8 00 00 00 00	 call	 ??2@YAPAXI@Z		; operator new
  00103	83 c4 04	 add	 esp, 4
  00106	89 45 10	 mov	 DWORD PTR $T3[ebp], eax
  00109	c7 45 fc 01 00
	00 00		 mov	 DWORD PTR __$EHRec$[ebp+8], 1
  00110	85 c0		 test	 eax, eax
  00112	74 09		 je	 SHORT $LN15@LoadInfo
  00114	8b c8		 mov	 ecx, eax
  00116	e8 00 00 00 00	 call	 ??0CSTConfigEnv_Setup@@QAE@XZ ; CSTConfigEnv_Setup::CSTConfigEnv_Setup
  0011b	eb 02		 jmp	 SHORT $LN16@LoadInfo
$LN15@LoadInfo:
  0011d	33 c0		 xor	 eax, eax
$LN16@LoadInfo:

; 397  : 		m_InfoSetup.m_pDefInfo->LoadInfo(szDefFileName);

  0011f	ff 75 0c	 push	 DWORD PTR _szDefFileName$[ebp]
  00122	8b c8		 mov	 ecx, eax
  00124	c7 45 fc ff ff
	ff ff		 mov	 DWORD PTR __$EHRec$[ebp+8], -1
  0012b	89 86 24 01 00
	00		 mov	 DWORD PTR [esi+292], eax
  00131	e8 00 00 00 00	 call	 ?LoadInfo@CSTConfigEnv_Setup@@QAEXPBD@Z ; CSTConfigEnv_Setup::LoadInfo

; 398  : 		m_InfoSetup.LoadInfo(szFileName);

  00136	ff 75 08	 push	 DWORD PTR _szFileName$[ebp]
  00139	8d 8e 98 00 00
	00		 lea	 ecx, DWORD PTR [esi+152]
  0013f	e8 00 00 00 00	 call	 ?LoadInfo@CSTConfigEnv_Setup@@QAEXPBD@Z ; CSTConfigEnv_Setup::LoadInfo

; 399  : 		delete m_InfoSetup.m_pDefInfo;

  00144	8b be 24 01 00
	00		 mov	 edi, DWORD PTR [esi+292]
  0014a	85 ff		 test	 edi, edi
  0014c	74 15		 je	 SHORT $LN40@LoadInfo
  0014e	8b cf		 mov	 ecx, edi
  00150	e8 00 00 00 00	 call	 ??1CSTConfigEnv_Setup@@QAE@XZ ; CSTConfigEnv_Setup::~CSTConfigEnv_Setup
  00155	68 90 00 00 00	 push	 144			; 00000090H
  0015a	57		 push	 edi
  0015b	e8 00 00 00 00	 call	 ??3@YAXPAXI@Z		; operator delete
  00160	83 c4 08	 add	 esp, 8
$LN40@LoadInfo:

; 400  : 		m_InfoSetup.m_pDefInfo = NULL;

  00163	c7 86 24 01 00
	00 00 00 00 00	 mov	 DWORD PTR [esi+292], 0
$LN4@LoadInfo:

; 401  : 	}
; 402  : 
; 403  : 	if(nKey&STConfigEnv_Clear)

  0016d	f6 c3 08	 test	 bl, 8
  00170	74 6e		 je	 SHORT $LN5@LoadInfo

; 404  : 	{
; 405  : 		m_InfoClear.m_pDefInfo = new CSTConfigEnv_Clear;

  00172	6a 28		 push	 40			; 00000028H
  00174	e8 00 00 00 00	 call	 ??2@YAPAXI@Z		; operator new
  00179	83 c4 04	 add	 esp, 4
  0017c	89 45 10	 mov	 DWORD PTR $T2[ebp], eax
  0017f	c7 45 fc 02 00
	00 00		 mov	 DWORD PTR __$EHRec$[ebp+8], 2
  00186	85 c0		 test	 eax, eax
  00188	74 09		 je	 SHORT $LN19@LoadInfo
  0018a	8b c8		 mov	 ecx, eax
  0018c	e8 00 00 00 00	 call	 ??0CSTConfigEnv_Clear@@QAE@XZ ; CSTConfigEnv_Clear::CSTConfigEnv_Clear
  00191	eb 02		 jmp	 SHORT $LN20@LoadInfo
$LN19@LoadInfo:
  00193	33 c0		 xor	 eax, eax
$LN20@LoadInfo:

; 406  : 		m_InfoClear.m_pDefInfo->LoadInfo(szDefFileName);

  00195	ff 75 0c	 push	 DWORD PTR _szDefFileName$[ebp]
  00198	8b c8		 mov	 ecx, eax
  0019a	c7 45 fc ff ff
	ff ff		 mov	 DWORD PTR __$EHRec$[ebp+8], -1
  001a1	89 86 4c 01 00
	00		 mov	 DWORD PTR [esi+332], eax
  001a7	e8 00 00 00 00	 call	 ?LoadInfo@CSTConfigEnv_Clear@@QAEXPBD@Z ; CSTConfigEnv_Clear::LoadInfo

; 407  : 		m_InfoClear.LoadInfo(szFileName);

  001ac	ff 75 08	 push	 DWORD PTR _szFileName$[ebp]
  001af	8d 8e 28 01 00
	00		 lea	 ecx, DWORD PTR [esi+296]
  001b5	e8 00 00 00 00	 call	 ?LoadInfo@CSTConfigEnv_Clear@@QAEXPBD@Z ; CSTConfigEnv_Clear::LoadInfo

; 408  : 		delete m_InfoClear.m_pDefInfo;

  001ba	8b be 4c 01 00
	00		 mov	 edi, DWORD PTR [esi+332]
  001c0	85 ff		 test	 edi, edi
  001c2	74 12		 je	 SHORT $LN43@LoadInfo
  001c4	8b cf		 mov	 ecx, edi
  001c6	e8 00 00 00 00	 call	 ??1CSTConfigEnv_Clear@@QAE@XZ ; CSTConfigEnv_Clear::~CSTConfigEnv_Clear
  001cb	6a 28		 push	 40			; 00000028H
  001cd	57		 push	 edi
  001ce	e8 00 00 00 00	 call	 ??3@YAXPAXI@Z		; operator delete
  001d3	83 c4 08	 add	 esp, 8
$LN43@LoadInfo:

; 409  : 		m_InfoClear.m_pDefInfo = NULL;

  001d6	c7 86 4c 01 00
	00 00 00 00 00	 mov	 DWORD PTR [esi+332], 0
$LN5@LoadInfo:

; 410  : 	}
; 411  : }

  001e0	8b 4d f4	 mov	 ecx, DWORD PTR __$EHRec$[ebp]
  001e3	64 89 0d 00 00
	00 00		 mov	 DWORD PTR fs:0, ecx
  001ea	59		 pop	 ecx
  001eb	5f		 pop	 edi
  001ec	5e		 pop	 esi
  001ed	5b		 pop	 ebx
  001ee	8b e5		 mov	 esp, ebp
  001f0	5d		 pop	 ebp
  001f1	c2 0c 00	 ret	 12			; 0000000cH
_TEXT	ENDS
;	COMDAT text$x
text$x	SEGMENT
__unwindfunclet$?LoadInfo@CSTConfigEnv@@QAEXPBD0H@Z$1:
  00000	6a 24		 push	 36			; 00000024H
  00002	8b 45 10	 mov	 eax, DWORD PTR $T4[ebp]
  00005	50		 push	 eax
  00006	e8 00 00 00 00	 call	 ??3@YAXPAXI@Z		; operator delete
  0000b	83 c4 08	 add	 esp, 8
  0000e	c3		 ret	 0
__unwindfunclet$?LoadInfo@CSTConfigEnv@@QAEXPBD0H@Z$2:
  0000f	68 90 00 00 00	 push	 144			; 00000090H
  00014	8b 45 10	 mov	 eax, DWORD PTR $T3[ebp]
  00017	50		 push	 eax
  00018	e8 00 00 00 00	 call	 ??3@YAXPAXI@Z		; operator delete
  0001d	83 c4 08	 add	 esp, 8
  00020	c3		 ret	 0
__unwindfunclet$?LoadInfo@CSTConfigEnv@@QAEXPBD0H@Z$3:
  00021	6a 28		 push	 40			; 00000028H
  00023	8b 45 10	 mov	 eax, DWORD PTR $T2[ebp]
  00026	50		 push	 eax
  00027	e8 00 00 00 00	 call	 ??3@YAXPAXI@Z		; operator delete
  0002c	83 c4 08	 add	 esp, 8
  0002f	c3		 ret	 0
  00030	cc		 int	 3
  00031	cc		 int	 3
  00032	cc		 int	 3
  00033	cc		 int	 3
  00034	cc		 int	 3
__ehhandler$?LoadInfo@CSTConfigEnv@@QAEXPBD0H@Z:
  00035	90		 npad	 1
  00036	90		 npad	 1
  00037	8b 54 24 08	 mov	 edx, DWORD PTR [esp+8]
  0003b	8d 42 0c	 lea	 eax, DWORD PTR [edx+12]
  0003e	8b 4a f0	 mov	 ecx, DWORD PTR [edx-16]
  00041	33 c8		 xor	 ecx, eax
  00043	e8 00 00 00 00	 call	 @__security_check_cookie@4
  00048	b8 00 00 00 00	 mov	 eax, OFFSET __ehfuncinfo$?LoadInfo@CSTConfigEnv@@QAEXPBD0H@Z
  0004d	e9 00 00 00 00	 jmp	 ___CxxFrameHandler3
text$x	ENDS
?LoadInfo@CSTConfigEnv@@QAEXPBD0H@Z ENDP		; CSTConfigEnv::LoadInfo
; Function compile flags: /Ogtp
; File D:\git\src\IBK\IBK_DRFN\ProjSrc\SrcDrfn\Chart\Common_ST\STConfigEnv.h
;	COMDAT ?LoadInfo@CSTConfigEnv_Clear@@QAEXPBD@Z
_TEXT	SEGMENT
_szKey$ = -280						; size = 4
_szTmp$ = -276						; size = 260
__$ArrayPad$ = -16					; size = 4
__$EHRec$ = -12						; size = 12
_szFileName$ = 8					; size = 4
?LoadInfo@CSTConfigEnv_Clear@@QAEXPBD@Z PROC		; CSTConfigEnv_Clear::LoadInfo, COMDAT
; _this$ = ecx

; 1140 : {

  00000	55		 push	 ebp
  00001	8b ec		 mov	 ebp, esp
  00003	6a ff		 push	 -1
  00005	68 00 00 00 00	 push	 __ehhandler$?LoadInfo@CSTConfigEnv_Clear@@QAEXPBD@Z
  0000a	64 a1 00 00 00
	00		 mov	 eax, DWORD PTR fs:0
  00010	50		 push	 eax
  00011	81 ec 0c 01 00
	00		 sub	 esp, 268		; 0000010cH
  00017	a1 00 00 00 00	 mov	 eax, DWORD PTR ___security_cookie
  0001c	33 c5		 xor	 eax, ebp
  0001e	89 45 f0	 mov	 DWORD PTR __$ArrayPad$[ebp], eax
  00021	53		 push	 ebx
  00022	56		 push	 esi
  00023	57		 push	 edi
  00024	50		 push	 eax
  00025	8d 45 f4	 lea	 eax, DWORD PTR __$EHRec$[ebp]
  00028	64 a3 00 00 00
	00		 mov	 DWORD PTR fs:0, eax
  0002e	8b f1		 mov	 esi, ecx
  00030	8b 7d 08	 mov	 edi, DWORD PTR _szFileName$[ebp]

; 1141 : 	CString szKey;

  00033	8d 8d e8 fe ff
	ff		 lea	 ecx, DWORD PTR _szKey$[ebp]
  00039	ff 15 00 00 00
	00		 call	 DWORD PTR __imp_??0?$CStringT@DV?$StrTraitMFC_DLL@DV?$ChTraitsCRT@D@ATL@@@@@ATL@@QAE@XZ

; 1142 : 	char szTmp[MAX_PATH];
; 1143 : 
; 1144 : 	if(m_pDefInfo)

  0003f	83 7e 24 00	 cmp	 DWORD PTR [esi+36], 0
  00043	8d 85 e8 fe ff
	ff		 lea	 eax, DWORD PTR _szKey$[ebp]
  00049	8b 1d 00 00 00
	00		 mov	 ebx, DWORD PTR __imp_?Format@?$CStringT@DV?$StrTraitMFC_DLL@DV?$ChTraitsCRT@D@ATL@@@@@ATL@@QAAXPBDZZ
  0004f	68 00 00 00 00	 push	 OFFSET ??_C@_05IEPODGEO@Allow@
  00054	68 00 00 00 00	 push	 OFFSET ??_C@_02DKCKIIND@?$CFs@
  00059	c7 45 fc 00 00
	00 00		 mov	 DWORD PTR __$EHRec$[ebp+8], 0
  00060	50		 push	 eax
  00061	0f 84 20 02 00
	00		 je	 $LN2@LoadInfo

; 1145 : 	{
; 1146 : 		// 
; 1147 : 		szKey.Format("%s", "Allow");

  00067	ff d3		 call	 ebx

; 1148 : 		m_Allow = GetPrivateProfileInt(STCONFIG_SETUP, szKey, m_pDefInfo->m_Allow, szFileName);

  00069	8b 46 24	 mov	 eax, DWORD PTR [esi+36]
  0006c	83 c4 0c	 add	 esp, 12			; 0000000cH
  0006f	57		 push	 edi
  00070	ff 30		 push	 DWORD PTR [eax]
  00072	ff b5 e8 fe ff
	ff		 push	 DWORD PTR _szKey$[ebp]
  00078	68 00 00 00 00	 push	 OFFSET ??_C@_08PHIBHFDB@RunClear@
  0007d	ff 15 00 00 00
	00		 call	 DWORD PTR __imp__GetPrivateProfileIntA@16
  00083	89 06		 mov	 DWORD PTR [esi], eax

; 1149 : 		if(m_Allow<0) m_Allow=0;

  00085	85 c0		 test	 eax, eax
  00087	79 06		 jns	 SHORT $LN4@LoadInfo
  00089	c7 06 00 00 00
	00		 mov	 DWORD PTR [esi], 0
$LN4@LoadInfo:

; 1150 : 
; 1151 : 		//-----------------------------------------------------------------------------------------------------
; 1152 : 		//  
; 1153 : 		szKey.Format("%s", "Repeat");

  0008f	68 00 00 00 00	 push	 OFFSET ??_C@_06HJIMLMON@Repeat@
  00094	8d 85 e8 fe ff
	ff		 lea	 eax, DWORD PTR _szKey$[ebp]
  0009a	68 00 00 00 00	 push	 OFFSET ??_C@_02DKCKIIND@?$CFs@
  0009f	50		 push	 eax
  000a0	ff d3		 call	 ebx

; 1154 : 		m_Repeat = ::GetPrivateProfileInt(STCONFIG_SETUP, szKey, m_pDefInfo->m_Repeat, szFileName);

  000a2	8b 46 24	 mov	 eax, DWORD PTR [esi+36]
  000a5	83 c4 0c	 add	 esp, 12			; 0000000cH
  000a8	57		 push	 edi
  000a9	ff 70 04	 push	 DWORD PTR [eax+4]
  000ac	ff b5 e8 fe ff
	ff		 push	 DWORD PTR _szKey$[ebp]
  000b2	68 00 00 00 00	 push	 OFFSET ??_C@_08PHIBHFDB@RunClear@
  000b7	ff 15 00 00 00
	00		 call	 DWORD PTR __imp__GetPrivateProfileIntA@16
  000bd	89 46 04	 mov	 DWORD PTR [esi+4], eax

; 1155 : 		if(m_Repeat<0 || m_Repeat>1) m_Repeat=1;

  000c0	85 c0		 test	 eax, eax
  000c2	78 05		 js	 SHORT $LN6@LoadInfo
  000c4	83 f8 01	 cmp	 eax, 1
  000c7	7e 07		 jle	 SHORT $LN5@LoadInfo
$LN6@LoadInfo:
  000c9	c7 46 04 01 00
	00 00		 mov	 DWORD PTR [esi+4], 1
$LN5@LoadInfo:

; 1156 : 
; 1157 : 		//  
; 1158 : 		szKey.Format("%s", "JCount");

  000d0	68 00 00 00 00	 push	 OFFSET ??_C@_06EFLNJIJO@JCount@
  000d5	8d 85 e8 fe ff
	ff		 lea	 eax, DWORD PTR _szKey$[ebp]
  000db	68 00 00 00 00	 push	 OFFSET ??_C@_02DKCKIIND@?$CFs@
  000e0	50		 push	 eax
  000e1	ff d3		 call	 ebx

; 1159 : 		m_JCount = GetPrivateProfileInt(STCONFIG_SETUP, szKey, m_pDefInfo->m_JCount, szFileName);

  000e3	8b 46 24	 mov	 eax, DWORD PTR [esi+36]
  000e6	83 c4 0c	 add	 esp, 12			; 0000000cH
  000e9	57		 push	 edi
  000ea	ff 70 08	 push	 DWORD PTR [eax+8]
  000ed	ff b5 e8 fe ff
	ff		 push	 DWORD PTR _szKey$[ebp]
  000f3	68 00 00 00 00	 push	 OFFSET ??_C@_08PHIBHFDB@RunClear@
  000f8	ff 15 00 00 00
	00		 call	 DWORD PTR __imp__GetPrivateProfileIntA@16

; 1160 : 		//-----------------------------------------------------------------------------------------------------
; 1161 : 
; 1162 : 		//_+_
; 1163 : 		szKey.Format("%s", "TaxBuy");

  000fe	68 00 00 00 00	 push	 OFFSET ??_C@_06CCNJGCGG@TaxBuy@
  00103	89 46 08	 mov	 DWORD PTR [esi+8], eax
  00106	8d 85 e8 fe ff
	ff		 lea	 eax, DWORD PTR _szKey$[ebp]
  0010c	68 00 00 00 00	 push	 OFFSET ??_C@_02DKCKIIND@?$CFs@
  00111	50		 push	 eax
  00112	ff d3		 call	 ebx
  00114	83 c4 0c	 add	 esp, 12			; 0000000cH

; 1164 : 		GetPrivateProfileString(STCONFIG_SETUP, szKey, m_pDefInfo->m_TaxBuy, szTmp, MAX_PATH, szFileName);

  00117	8d 85 ec fe ff
	ff		 lea	 eax, DWORD PTR _szTmp$[ebp]
  0011d	57		 push	 edi
  0011e	68 04 01 00 00	 push	 260			; 00000104H
  00123	50		 push	 eax
  00124	8b 46 24	 mov	 eax, DWORD PTR [esi+36]
  00127	ff 70 0c	 push	 DWORD PTR [eax+12]
  0012a	ff b5 e8 fe ff
	ff		 push	 DWORD PTR _szKey$[ebp]
  00130	68 00 00 00 00	 push	 OFFSET ??_C@_08PHIBHFDB@RunClear@
  00135	ff 15 00 00 00
	00		 call	 DWORD PTR __imp__GetPrivateProfileStringA@24

; 1165 : 		m_TaxBuy = szTmp;

  0013b	8d 85 ec fe ff
	ff		 lea	 eax, DWORD PTR _szTmp$[ebp]
  00141	50		 push	 eax
  00142	8d 4e 0c	 lea	 ecx, DWORD PTR [esi+12]
  00145	ff 15 00 00 00
	00		 call	 DWORD PTR __imp_??4?$CStringT@DV?$StrTraitMFC_DLL@DV?$ChTraitsCRT@D@ATL@@@@@ATL@@QAEAAV01@PBD@Z

; 1166 : 
; 1167 : 		//_+_
; 1168 : 		szKey.Format("%s", "TaxSell");

  0014b	68 00 00 00 00	 push	 OFFSET ??_C@_07HKMPLBJC@TaxSell@
  00150	8d 85 e8 fe ff
	ff		 lea	 eax, DWORD PTR _szKey$[ebp]
  00156	68 00 00 00 00	 push	 OFFSET ??_C@_02DKCKIIND@?$CFs@
  0015b	50		 push	 eax
  0015c	ff d3		 call	 ebx
  0015e	83 c4 0c	 add	 esp, 12			; 0000000cH

; 1169 : 		GetPrivateProfileString(STCONFIG_SETUP, szKey, m_pDefInfo->m_TaxSell, szTmp, MAX_PATH, szFileName);

  00161	8d 85 ec fe ff
	ff		 lea	 eax, DWORD PTR _szTmp$[ebp]
  00167	57		 push	 edi
  00168	68 04 01 00 00	 push	 260			; 00000104H
  0016d	50		 push	 eax
  0016e	8b 46 24	 mov	 eax, DWORD PTR [esi+36]
  00171	ff 70 10	 push	 DWORD PTR [eax+16]
  00174	ff b5 e8 fe ff
	ff		 push	 DWORD PTR _szKey$[ebp]
  0017a	68 00 00 00 00	 push	 OFFSET ??_C@_08PHIBHFDB@RunClear@
  0017f	ff 15 00 00 00
	00		 call	 DWORD PTR __imp__GetPrivateProfileStringA@24

; 1170 : 		m_TaxSell = szTmp;

  00185	8d 85 ec fe ff
	ff		 lea	 eax, DWORD PTR _szTmp$[ebp]
  0018b	50		 push	 eax
  0018c	8d 4e 10	 lea	 ecx, DWORD PTR [esi+16]
  0018f	ff 15 00 00 00
	00		 call	 DWORD PTR __imp_??4?$CStringT@DV?$StrTraitMFC_DLL@DV?$ChTraitsCRT@D@ATL@@@@@ATL@@QAEAAV01@PBD@Z

; 1171 : 
; 1172 : 		//_+_POINT
; 1173 : 		szKey.Format("%s", "cbTax");

  00195	68 00 00 00 00	 push	 OFFSET ??_C@_05MJDDMNJJ@cbTax@
  0019a	8d 85 e8 fe ff
	ff		 lea	 eax, DWORD PTR _szKey$[ebp]
  001a0	68 00 00 00 00	 push	 OFFSET ??_C@_02DKCKIIND@?$CFs@
  001a5	50		 push	 eax
  001a6	ff d3		 call	 ebx

; 1174 : 		m_cbTax = GetPrivateProfileInt(STCONFIG_SETUP, szKey, m_pDefInfo->m_cbTax, szFileName);

  001a8	8b 46 24	 mov	 eax, DWORD PTR [esi+36]
  001ab	83 c4 0c	 add	 esp, 12			; 0000000cH
  001ae	57		 push	 edi
  001af	ff 70 14	 push	 DWORD PTR [eax+20]
  001b2	ff b5 e8 fe ff
	ff		 push	 DWORD PTR _szKey$[ebp]
  001b8	68 00 00 00 00	 push	 OFFSET ??_C@_08PHIBHFDB@RunClear@
  001bd	ff 15 00 00 00
	00		 call	 DWORD PTR __imp__GetPrivateProfileIntA@16
  001c3	89 46 14	 mov	 DWORD PTR [esi+20], eax

; 1175 : 		if(m_cbTax<0) m_cbTax=0;

  001c6	85 c0		 test	 eax, eax
  001c8	79 07		 jns	 SHORT $LN7@LoadInfo
  001ca	c7 46 14 00 00
	00 00		 mov	 DWORD PTR [esi+20], 0
$LN7@LoadInfo:

; 1176 : 
; 1177 : 		//__
; 1178 : 		szKey.Format("%s", "SlipigyBuy");

  001d1	68 00 00 00 00	 push	 OFFSET ??_C@_0L@IAKIPLHP@SlipigyBuy@
  001d6	8d 85 e8 fe ff
	ff		 lea	 eax, DWORD PTR _szKey$[ebp]
  001dc	68 00 00 00 00	 push	 OFFSET ??_C@_02DKCKIIND@?$CFs@
  001e1	50		 push	 eax
  001e2	ff d3		 call	 ebx
  001e4	83 c4 0c	 add	 esp, 12			; 0000000cH

; 1179 : 		GetPrivateProfileString(STCONFIG_SETUP, szKey, m_pDefInfo->m_SlipigyBuy, szTmp, MAX_PATH, szFileName);

  001e7	8d 85 ec fe ff
	ff		 lea	 eax, DWORD PTR _szTmp$[ebp]
  001ed	57		 push	 edi
  001ee	68 04 01 00 00	 push	 260			; 00000104H
  001f3	50		 push	 eax
  001f4	8b 46 24	 mov	 eax, DWORD PTR [esi+36]
  001f7	ff 70 18	 push	 DWORD PTR [eax+24]
  001fa	ff b5 e8 fe ff
	ff		 push	 DWORD PTR _szKey$[ebp]
  00200	68 00 00 00 00	 push	 OFFSET ??_C@_08PHIBHFDB@RunClear@
  00205	ff 15 00 00 00
	00		 call	 DWORD PTR __imp__GetPrivateProfileStringA@24

; 1180 : 		m_SlipigyBuy = szTmp;

  0020b	8d 85 ec fe ff
	ff		 lea	 eax, DWORD PTR _szTmp$[ebp]
  00211	50		 push	 eax
  00212	8d 4e 18	 lea	 ecx, DWORD PTR [esi+24]
  00215	ff 15 00 00 00
	00		 call	 DWORD PTR __imp_??4?$CStringT@DV?$StrTraitMFC_DLL@DV?$ChTraitsCRT@D@ATL@@@@@ATL@@QAEAAV01@PBD@Z

; 1181 : 
; 1182 : 		//__
; 1183 : 		szKey.Format("%s", "SlipigySell");

  0021b	68 00 00 00 00	 push	 OFFSET ??_C@_0M@BOAGGIML@SlipigySell@
  00220	8d 85 e8 fe ff
	ff		 lea	 eax, DWORD PTR _szKey$[ebp]
  00226	68 00 00 00 00	 push	 OFFSET ??_C@_02DKCKIIND@?$CFs@
  0022b	50		 push	 eax
  0022c	ff d3		 call	 ebx
  0022e	83 c4 0c	 add	 esp, 12			; 0000000cH

; 1184 : 		GetPrivateProfileString(STCONFIG_SETUP, szKey, m_pDefInfo->m_SlipigySell, szTmp, MAX_PATH, szFileName);

  00231	8d 85 ec fe ff
	ff		 lea	 eax, DWORD PTR _szTmp$[ebp]
  00237	57		 push	 edi
  00238	68 04 01 00 00	 push	 260			; 00000104H
  0023d	50		 push	 eax
  0023e	8b 46 24	 mov	 eax, DWORD PTR [esi+36]
  00241	ff 70 1c	 push	 DWORD PTR [eax+28]
  00244	ff b5 e8 fe ff
	ff		 push	 DWORD PTR _szKey$[ebp]
  0024a	68 00 00 00 00	 push	 OFFSET ??_C@_08PHIBHFDB@RunClear@
  0024f	ff 15 00 00 00
	00		 call	 DWORD PTR __imp__GetPrivateProfileStringA@24

; 1185 : 		m_SlipigySell = szTmp;

  00255	8d 85 ec fe ff
	ff		 lea	 eax, DWORD PTR _szTmp$[ebp]
  0025b	50		 push	 eax
  0025c	8d 4e 1c	 lea	 ecx, DWORD PTR [esi+28]
  0025f	ff 15 00 00 00
	00		 call	 DWORD PTR __imp_??4?$CStringT@DV?$StrTraitMFC_DLL@DV?$ChTraitsCRT@D@ATL@@@@@ATL@@QAEAAV01@PBD@Z

; 1186 : 
; 1187 : 		//__POINT
; 1188 : 		szKey.Format("%s", "cbSplipigy");

  00265	68 00 00 00 00	 push	 OFFSET ??_C@_0L@KHLJBL@cbSplipigy@
  0026a	8d 85 e8 fe ff
	ff		 lea	 eax, DWORD PTR _szKey$[ebp]
  00270	68 00 00 00 00	 push	 OFFSET ??_C@_02DKCKIIND@?$CFs@
  00275	50		 push	 eax
  00276	ff d3		 call	 ebx

; 1189 : 		m_cbSplipigy = GetPrivateProfileInt(STCONFIG_SETUP, szKey, m_pDefInfo->m_cbSplipigy, szFileName);

  00278	8b 46 24	 mov	 eax, DWORD PTR [esi+36]
  0027b	83 c4 0c	 add	 esp, 12			; 0000000cH
  0027e	57		 push	 edi
  0027f	ff 70 20	 push	 DWORD PTR [eax+32]

; 1190 : 		if(m_cbSplipigy<0) m_cbSplipigy=0;
; 1191 : 	}

  00282	e9 04 02 00 00	 jmp	 $LN62@LoadInfo
$LN2@LoadInfo:

; 1192 : 	else
; 1193 : 	{
; 1194 : 		// 
; 1195 : 		szKey.Format("%s", "Allow");

  00287	ff d3		 call	 ebx
  00289	83 c4 0c	 add	 esp, 12			; 0000000cH

; 1196 : 		m_Allow = GetPrivateProfileInt(STCONFIG_SETUP, szKey, 0, szFileName);

  0028c	57		 push	 edi
  0028d	6a 00		 push	 0
  0028f	ff b5 e8 fe ff
	ff		 push	 DWORD PTR _szKey$[ebp]
  00295	68 00 00 00 00	 push	 OFFSET ??_C@_08PHIBHFDB@RunClear@
  0029a	ff 15 00 00 00
	00		 call	 DWORD PTR __imp__GetPrivateProfileIntA@16
  002a0	89 06		 mov	 DWORD PTR [esi], eax

; 1197 : 		if(m_Allow<0) m_Allow=0;

  002a2	85 c0		 test	 eax, eax
  002a4	79 06		 jns	 SHORT $LN9@LoadInfo
  002a6	c7 06 00 00 00
	00		 mov	 DWORD PTR [esi], 0
$LN9@LoadInfo:

; 1198 : 
; 1199 : 		//-----------------------------------------------------------------------------------------------------
; 1200 : 		//  
; 1201 : 		szKey.Format("%s", "Repeat");

  002ac	68 00 00 00 00	 push	 OFFSET ??_C@_06HJIMLMON@Repeat@
  002b1	8d 85 e8 fe ff
	ff		 lea	 eax, DWORD PTR _szKey$[ebp]
  002b7	68 00 00 00 00	 push	 OFFSET ??_C@_02DKCKIIND@?$CFs@
  002bc	50		 push	 eax
  002bd	ff d3		 call	 ebx
  002bf	83 c4 0c	 add	 esp, 12			; 0000000cH

; 1202 : 		m_Repeat = ::GetPrivateProfileInt(STCONFIG_SETUP, szKey, 1, szFileName);

  002c2	57		 push	 edi
  002c3	6a 01		 push	 1
  002c5	ff b5 e8 fe ff
	ff		 push	 DWORD PTR _szKey$[ebp]
  002cb	68 00 00 00 00	 push	 OFFSET ??_C@_08PHIBHFDB@RunClear@
  002d0	ff 15 00 00 00
	00		 call	 DWORD PTR __imp__GetPrivateProfileIntA@16
  002d6	89 46 04	 mov	 DWORD PTR [esi+4], eax

; 1203 : 		if(m_Repeat<0 || m_Repeat>1) m_Repeat=1;

  002d9	85 c0		 test	 eax, eax
  002db	78 05		 js	 SHORT $LN11@LoadInfo
  002dd	83 f8 01	 cmp	 eax, 1
  002e0	7e 07		 jle	 SHORT $LN10@LoadInfo
$LN11@LoadInfo:
  002e2	c7 46 04 01 00
	00 00		 mov	 DWORD PTR [esi+4], 1
$LN10@LoadInfo:

; 1204 : 
; 1205 : 		//  
; 1206 : 		szKey.Format("%s", "JCount");

  002e9	68 00 00 00 00	 push	 OFFSET ??_C@_06EFLNJIJO@JCount@
  002ee	8d 85 e8 fe ff
	ff		 lea	 eax, DWORD PTR _szKey$[ebp]
  002f4	68 00 00 00 00	 push	 OFFSET ??_C@_02DKCKIIND@?$CFs@
  002f9	50		 push	 eax
  002fa	ff d3		 call	 ebx
  002fc	83 c4 0c	 add	 esp, 12			; 0000000cH

; 1207 : 		m_JCount = GetPrivateProfileInt(STCONFIG_SETUP, szKey, 0, szFileName);

  002ff	57		 push	 edi
  00300	6a 00		 push	 0
  00302	ff b5 e8 fe ff
	ff		 push	 DWORD PTR _szKey$[ebp]
  00308	68 00 00 00 00	 push	 OFFSET ??_C@_08PHIBHFDB@RunClear@
  0030d	ff 15 00 00 00
	00		 call	 DWORD PTR __imp__GetPrivateProfileIntA@16

; 1208 : 		//-----------------------------------------------------------------------------------------------------
; 1209 : 
; 1210 : 		//_+_
; 1211 : 		szKey.Format("%s", "TaxBuy");

  00313	68 00 00 00 00	 push	 OFFSET ??_C@_06CCNJGCGG@TaxBuy@
  00318	89 46 08	 mov	 DWORD PTR [esi+8], eax
  0031b	8d 85 e8 fe ff
	ff		 lea	 eax, DWORD PTR _szKey$[ebp]
  00321	68 00 00 00 00	 push	 OFFSET ??_C@_02DKCKIIND@?$CFs@
  00326	50		 push	 eax
  00327	ff d3		 call	 ebx
  00329	83 c4 0c	 add	 esp, 12			; 0000000cH

; 1212 : 		GetPrivateProfileString(STCONFIG_SETUP, szKey, "0.1", szTmp, MAX_PATH, szFileName);

  0032c	8d 85 ec fe ff
	ff		 lea	 eax, DWORD PTR _szTmp$[ebp]
  00332	57		 push	 edi
  00333	68 04 01 00 00	 push	 260			; 00000104H
  00338	50		 push	 eax
  00339	68 00 00 00 00	 push	 OFFSET ??_C@_03NKBOLEBK@0?41@
  0033e	ff b5 e8 fe ff
	ff		 push	 DWORD PTR _szKey$[ebp]
  00344	68 00 00 00 00	 push	 OFFSET ??_C@_08PHIBHFDB@RunClear@
  00349	ff 15 00 00 00
	00		 call	 DWORD PTR __imp__GetPrivateProfileStringA@24

; 1213 : 		m_TaxBuy = szTmp;

  0034f	8d 85 ec fe ff
	ff		 lea	 eax, DWORD PTR _szTmp$[ebp]
  00355	50		 push	 eax
  00356	8d 4e 0c	 lea	 ecx, DWORD PTR [esi+12]
  00359	ff 15 00 00 00
	00		 call	 DWORD PTR __imp_??4?$CStringT@DV?$StrTraitMFC_DLL@DV?$ChTraitsCRT@D@ATL@@@@@ATL@@QAEAAV01@PBD@Z

; 1214 : 
; 1215 : 		//_+_
; 1216 : 		szKey.Format("%s", "TaxSell");

  0035f	68 00 00 00 00	 push	 OFFSET ??_C@_07HKMPLBJC@TaxSell@
  00364	8d 85 e8 fe ff
	ff		 lea	 eax, DWORD PTR _szKey$[ebp]
  0036a	68 00 00 00 00	 push	 OFFSET ??_C@_02DKCKIIND@?$CFs@
  0036f	50		 push	 eax
  00370	ff d3		 call	 ebx
  00372	83 c4 0c	 add	 esp, 12			; 0000000cH

; 1217 : 		GetPrivateProfileString(STCONFIG_SETUP, szKey, "0.4", szTmp, MAX_PATH, szFileName);

  00375	8d 85 ec fe ff
	ff		 lea	 eax, DWORD PTR _szTmp$[ebp]
  0037b	57		 push	 edi
  0037c	68 04 01 00 00	 push	 260			; 00000104H
  00381	50		 push	 eax
  00382	68 00 00 00 00	 push	 OFFSET ??_C@_03KHGJEAFP@0?44@
  00387	ff b5 e8 fe ff
	ff		 push	 DWORD PTR _szKey$[ebp]
  0038d	68 00 00 00 00	 push	 OFFSET ??_C@_08PHIBHFDB@RunClear@
  00392	ff 15 00 00 00
	00		 call	 DWORD PTR __imp__GetPrivateProfileStringA@24

; 1218 : 		m_TaxSell = szTmp;

  00398	8d 85 ec fe ff
	ff		 lea	 eax, DWORD PTR _szTmp$[ebp]
  0039e	50		 push	 eax
  0039f	8d 4e 10	 lea	 ecx, DWORD PTR [esi+16]
  003a2	ff 15 00 00 00
	00		 call	 DWORD PTR __imp_??4?$CStringT@DV?$StrTraitMFC_DLL@DV?$ChTraitsCRT@D@ATL@@@@@ATL@@QAEAAV01@PBD@Z

; 1219 : 
; 1220 : 		//_+_POINT
; 1221 : 		szKey.Format("%s", "cbTax");

  003a8	68 00 00 00 00	 push	 OFFSET ??_C@_05MJDDMNJJ@cbTax@
  003ad	8d 85 e8 fe ff
	ff		 lea	 eax, DWORD PTR _szKey$[ebp]
  003b3	68 00 00 00 00	 push	 OFFSET ??_C@_02DKCKIIND@?$CFs@
  003b8	50		 push	 eax
  003b9	ff d3		 call	 ebx
  003bb	83 c4 0c	 add	 esp, 12			; 0000000cH

; 1222 : 		m_cbTax = GetPrivateProfileInt(STCONFIG_SETUP, szKey, 0, szFileName);

  003be	57		 push	 edi
  003bf	6a 00		 push	 0
  003c1	ff b5 e8 fe ff
	ff		 push	 DWORD PTR _szKey$[ebp]
  003c7	68 00 00 00 00	 push	 OFFSET ??_C@_08PHIBHFDB@RunClear@
  003cc	ff 15 00 00 00
	00		 call	 DWORD PTR __imp__GetPrivateProfileIntA@16
  003d2	89 46 14	 mov	 DWORD PTR [esi+20], eax

; 1223 : 		if(m_cbTax<0) m_cbTax=0;

  003d5	85 c0		 test	 eax, eax
  003d7	79 07		 jns	 SHORT $LN12@LoadInfo
  003d9	c7 46 14 00 00
	00 00		 mov	 DWORD PTR [esi+20], 0
$LN12@LoadInfo:

; 1224 : 
; 1225 : 		//__
; 1226 : 		szKey.Format("%s", "SlipigyBuy");

  003e0	68 00 00 00 00	 push	 OFFSET ??_C@_0L@IAKIPLHP@SlipigyBuy@
  003e5	8d 85 e8 fe ff
	ff		 lea	 eax, DWORD PTR _szKey$[ebp]
  003eb	68 00 00 00 00	 push	 OFFSET ??_C@_02DKCKIIND@?$CFs@
  003f0	50		 push	 eax
  003f1	ff d3		 call	 ebx
  003f3	83 c4 0c	 add	 esp, 12			; 0000000cH

; 1227 : 		GetPrivateProfileString(STCONFIG_SETUP, szKey, "", szTmp, MAX_PATH, szFileName);

  003f6	8d 85 ec fe ff
	ff		 lea	 eax, DWORD PTR _szTmp$[ebp]
  003fc	57		 push	 edi
  003fd	68 04 01 00 00	 push	 260			; 00000104H
  00402	50		 push	 eax
  00403	68 00 00 00 00	 push	 OFFSET ??_C@_00CNPNBAHC@@
  00408	ff b5 e8 fe ff
	ff		 push	 DWORD PTR _szKey$[ebp]
  0040e	68 00 00 00 00	 push	 OFFSET ??_C@_08PHIBHFDB@RunClear@
  00413	ff 15 00 00 00
	00		 call	 DWORD PTR __imp__GetPrivateProfileStringA@24

; 1228 : 		m_SlipigyBuy = szTmp;

  00419	8d 85 ec fe ff
	ff		 lea	 eax, DWORD PTR _szTmp$[ebp]
  0041f	50		 push	 eax
  00420	8d 4e 18	 lea	 ecx, DWORD PTR [esi+24]
  00423	ff 15 00 00 00
	00		 call	 DWORD PTR __imp_??4?$CStringT@DV?$StrTraitMFC_DLL@DV?$ChTraitsCRT@D@ATL@@@@@ATL@@QAEAAV01@PBD@Z

; 1229 : 
; 1230 : 		//__
; 1231 : 		szKey.Format("%s", "SlipigySell");

  00429	68 00 00 00 00	 push	 OFFSET ??_C@_0M@BOAGGIML@SlipigySell@
  0042e	8d 85 e8 fe ff
	ff		 lea	 eax, DWORD PTR _szKey$[ebp]
  00434	68 00 00 00 00	 push	 OFFSET ??_C@_02DKCKIIND@?$CFs@
  00439	50		 push	 eax
  0043a	ff d3		 call	 ebx
  0043c	83 c4 0c	 add	 esp, 12			; 0000000cH

; 1232 : 		GetPrivateProfileString(STCONFIG_SETUP, szKey, "", szTmp, MAX_PATH, szFileName);

  0043f	8d 85 ec fe ff
	ff		 lea	 eax, DWORD PTR _szTmp$[ebp]
  00445	57		 push	 edi
  00446	68 04 01 00 00	 push	 260			; 00000104H
  0044b	50		 push	 eax
  0044c	68 00 00 00 00	 push	 OFFSET ??_C@_00CNPNBAHC@@
  00451	ff b5 e8 fe ff
	ff		 push	 DWORD PTR _szKey$[ebp]
  00457	68 00 00 00 00	 push	 OFFSET ??_C@_08PHIBHFDB@RunClear@
  0045c	ff 15 00 00 00
	00		 call	 DWORD PTR __imp__GetPrivateProfileStringA@24

; 1233 : 		m_SlipigySell = szTmp;

  00462	8d 85 ec fe ff
	ff		 lea	 eax, DWORD PTR _szTmp$[ebp]
  00468	50		 push	 eax
  00469	8d 4e 1c	 lea	 ecx, DWORD PTR [esi+28]
  0046c	ff 15 00 00 00
	00		 call	 DWORD PTR __imp_??4?$CStringT@DV?$StrTraitMFC_DLL@DV?$ChTraitsCRT@D@ATL@@@@@ATL@@QAEAAV01@PBD@Z

; 1234 : 
; 1235 : 		//__POINT
; 1236 : 		szKey.Format("%s", "cbSplipigy");

  00472	68 00 00 00 00	 push	 OFFSET ??_C@_0L@KHLJBL@cbSplipigy@
  00477	8d 85 e8 fe ff
	ff		 lea	 eax, DWORD PTR _szKey$[ebp]
  0047d	68 00 00 00 00	 push	 OFFSET ??_C@_02DKCKIIND@?$CFs@
  00482	50		 push	 eax
  00483	ff d3		 call	 ebx
  00485	83 c4 0c	 add	 esp, 12			; 0000000cH

; 1237 : 		m_cbSplipigy = GetPrivateProfileInt(STCONFIG_SETUP, szKey, 0, szFileName);

  00488	57		 push	 edi
  00489	6a 00		 push	 0
$LN62@LoadInfo:

; 1238 : 		if(m_cbSplipigy<0) m_cbSplipigy=0;
; 1239 : 	}	
; 1240 : }

  0048b	ff b5 e8 fe ff
	ff		 push	 DWORD PTR _szKey$[ebp]
  00491	68 00 00 00 00	 push	 OFFSET ??_C@_08PHIBHFDB@RunClear@
  00496	ff 15 00 00 00
	00		 call	 DWORD PTR __imp__GetPrivateProfileIntA@16
  0049c	89 46 20	 mov	 DWORD PTR [esi+32], eax
  0049f	85 c0		 test	 eax, eax
  004a1	79 07		 jns	 SHORT $LN13@LoadInfo
  004a3	c7 46 20 00 00
	00 00		 mov	 DWORD PTR [esi+32], 0
$LN13@LoadInfo:
  004aa	8d 8d e8 fe ff
	ff		 lea	 ecx, DWORD PTR _szKey$[ebp]
  004b0	ff 15 00 00 00
	00		 call	 DWORD PTR __imp_??1?$CStringT@DV?$StrTraitMFC_DLL@DV?$ChTraitsCRT@D@ATL@@@@@ATL@@QAE@XZ
  004b6	8b 4d f4	 mov	 ecx, DWORD PTR __$EHRec$[ebp]
  004b9	64 89 0d 00 00
	00 00		 mov	 DWORD PTR fs:0, ecx
  004c0	59		 pop	 ecx
  004c1	5f		 pop	 edi
  004c2	5e		 pop	 esi
  004c3	5b		 pop	 ebx
  004c4	8b 4d f0	 mov	 ecx, DWORD PTR __$ArrayPad$[ebp]
  004c7	33 cd		 xor	 ecx, ebp
  004c9	e8 00 00 00 00	 call	 @__security_check_cookie@4
  004ce	8b e5		 mov	 esp, ebp
  004d0	5d		 pop	 ebp
  004d1	c2 04 00	 ret	 4
_TEXT	ENDS
;	COMDAT text$x
text$x	SEGMENT
__unwindfunclet$?LoadInfo@CSTConfigEnv_Clear@@QAEXPBD@Z$0:
  00000	8d 8d e8 fe ff
	ff		 lea	 ecx, DWORD PTR _szKey$[ebp]
  00006	ff 25 00 00 00
	00		 jmp	 DWORD PTR __imp_??1?$CStringT@DV?$StrTraitMFC_DLL@DV?$ChTraitsCRT@D@ATL@@@@@ATL@@QAE@XZ
  0000c	cc		 int	 3
  0000d	cc		 int	 3
  0000e	cc		 int	 3
  0000f	cc		 int	 3
  00010	cc		 int	 3
__ehhandler$?LoadInfo@CSTConfigEnv_Clear@@QAEXPBD@Z:
  00011	90		 npad	 1
  00012	90		 npad	 1
  00013	8b 54 24 08	 mov	 edx, DWORD PTR [esp+8]
  00017	8d 42 0c	 lea	 eax, DWORD PTR [edx+12]
  0001a	8b 8a e4 fe ff
	ff		 mov	 ecx, DWORD PTR [edx-284]
  00020	33 c8		 xor	 ecx, eax
  00022	e8 00 00 00 00	 call	 @__security_check_cookie@4
  00027	8b 4a fc	 mov	 ecx, DWORD PTR [edx-4]
  0002a	33 c8		 xor	 ecx, eax
  0002c	e8 00 00 00 00	 call	 @__security_check_cookie@4
  00031	b8 00 00 00 00	 mov	 eax, OFFSET __ehfuncinfo$?LoadInfo@CSTConfigEnv_Clear@@QAEXPBD@Z
  00036	e9 00 00 00 00	 jmp	 ___CxxFrameHandler3
text$x	ENDS
?LoadInfo@CSTConfigEnv_Clear@@QAEXPBD@Z ENDP		; CSTConfigEnv_Clear::LoadInfo
; Function compile flags: /Ogtp
; File D:\git\src\IBK\IBK_DRFN\ProjSrc\SrcDrfn\Chart\Common_ST\STConfigEnv.h
;	COMDAT ??1CSTConfigEnv_Clear@@QAE@XZ
_TEXT	SEGMENT
??1CSTConfigEnv_Clear@@QAE@XZ PROC			; CSTConfigEnv_Clear::~CSTConfigEnv_Clear, COMDAT
; _this$ = ecx

; 287  : 	{

  00000	56		 push	 esi
  00001	8b f1		 mov	 esi, ecx
  00003	57		 push	 edi

; 288  : 		if(m_pDefInfo) delete m_pDefInfo; m_pDefInfo=NULL;

  00004	8b 7e 24	 mov	 edi, DWORD PTR [esi+36]
  00007	85 ff		 test	 edi, edi
  00009	74 12		 je	 SHORT $LN7@CSTConfigE
  0000b	8b cf		 mov	 ecx, edi
  0000d	e8 00 00 00 00	 call	 ??1CSTConfigEnv_Clear@@QAE@XZ ; CSTConfigEnv_Clear::~CSTConfigEnv_Clear
  00012	6a 28		 push	 40			; 00000028H
  00014	57		 push	 edi
  00015	e8 00 00 00 00	 call	 ??3@YAXPAXI@Z		; operator delete
  0001a	83 c4 08	 add	 esp, 8
$LN7@CSTConfigE:

; 289  : 	}

  0001d	8d 4e 1c	 lea	 ecx, DWORD PTR [esi+28]
  00020	c7 46 24 00 00
	00 00		 mov	 DWORD PTR [esi+36], 0
  00027	ff 15 00 00 00
	00		 call	 DWORD PTR __imp_??1?$CStringT@DV?$StrTraitMFC_DLL@DV?$ChTraitsCRT@D@ATL@@@@@ATL@@QAE@XZ
  0002d	8d 4e 18	 lea	 ecx, DWORD PTR [esi+24]
  00030	ff 15 00 00 00
	00		 call	 DWORD PTR __imp_??1?$CStringT@DV?$StrTraitMFC_DLL@DV?$ChTraitsCRT@D@ATL@@@@@ATL@@QAE@XZ
  00036	8d 4e 10	 lea	 ecx, DWORD PTR [esi+16]
  00039	ff 15 00 00 00
	00		 call	 DWORD PTR __imp_??1?$CStringT@DV?$StrTraitMFC_DLL@DV?$ChTraitsCRT@D@ATL@@@@@ATL@@QAE@XZ
  0003f	5f		 pop	 edi
  00040	8d 4e 0c	 lea	 ecx, DWORD PTR [esi+12]
  00043	5e		 pop	 esi
  00044	ff 25 00 00 00
	00		 jmp	 DWORD PTR __imp_??1?$CStringT@DV?$StrTraitMFC_DLL@DV?$ChTraitsCRT@D@ATL@@@@@ATL@@QAE@XZ
??1CSTConfigEnv_Clear@@QAE@XZ ENDP			; CSTConfigEnv_Clear::~CSTConfigEnv_Clear
_TEXT	ENDS
; Function compile flags: /Ogtp
; File D:\git\src\IBK\IBK_DRFN\ProjSrc\SrcDrfn\Chart\Common_ST\STConfigEnv.h
;	COMDAT ??0CSTConfigEnv_Clear@@QAE@XZ
_TEXT	SEGMENT
_this$ = -16						; size = 4
__$EHRec$ = -12						; size = 12
??0CSTConfigEnv_Clear@@QAE@XZ PROC			; CSTConfigEnv_Clear::CSTConfigEnv_Clear, COMDAT
; _this$ = ecx

; 282  : 	{

  00000	55		 push	 ebp
  00001	8b ec		 mov	 ebp, esp
  00003	6a ff		 push	 -1
  00005	68 00 00 00 00	 push	 __ehhandler$??0CSTConfigEnv_Clear@@QAE@XZ
  0000a	64 a1 00 00 00
	00		 mov	 eax, DWORD PTR fs:0
  00010	50		 push	 eax
  00011	51		 push	 ecx
  00012	56		 push	 esi
  00013	a1 00 00 00 00	 mov	 eax, DWORD PTR ___security_cookie
  00018	33 c5		 xor	 eax, ebp
  0001a	50		 push	 eax
  0001b	8d 45 f4	 lea	 eax, DWORD PTR __$EHRec$[ebp]
  0001e	64 a3 00 00 00
	00		 mov	 DWORD PTR fs:0, eax
  00024	8b f1		 mov	 esi, ecx
  00026	89 75 f0	 mov	 DWORD PTR _this$[ebp], esi

; 280  : 		,m_TaxBuy("0.1"), m_TaxSell("0.4"), m_cbTax(0)

  00029	68 00 00 00 00	 push	 OFFSET ??_C@_03NKBOLEBK@0?41@
  0002e	8d 4e 0c	 lea	 ecx, DWORD PTR [esi+12]
  00031	c7 06 00 00 00
	00		 mov	 DWORD PTR [esi], 0
  00037	c7 46 04 01 00
	00 00		 mov	 DWORD PTR [esi+4], 1
  0003e	c7 46 08 00 00
	00 00		 mov	 DWORD PTR [esi+8], 0
  00045	ff 15 00 00 00
	00		 call	 DWORD PTR __imp_??0?$CStringT@DV?$StrTraitMFC_DLL@DV?$ChTraitsCRT@D@ATL@@@@@ATL@@QAE@PBD@Z
  0004b	68 00 00 00 00	 push	 OFFSET ??_C@_03KHGJEAFP@0?44@
  00050	8d 4e 10	 lea	 ecx, DWORD PTR [esi+16]
  00053	c7 45 fc 00 00
	00 00		 mov	 DWORD PTR __$EHRec$[ebp+8], 0
  0005a	ff 15 00 00 00
	00		 call	 DWORD PTR __imp_??0?$CStringT@DV?$StrTraitMFC_DLL@DV?$ChTraitsCRT@D@ATL@@@@@ATL@@QAE@PBD@Z

; 281  : 		,m_SlipigyBuy(""), m_SlipigySell(""), m_cbSplipigy(0) 

  00060	68 00 00 00 00	 push	 OFFSET ??_C@_00CNPNBAHC@@
  00065	8d 4e 18	 lea	 ecx, DWORD PTR [esi+24]
  00068	c6 45 fc 01	 mov	 BYTE PTR __$EHRec$[ebp+8], 1
  0006c	c7 46 14 00 00
	00 00		 mov	 DWORD PTR [esi+20], 0
  00073	ff 15 00 00 00
	00		 call	 DWORD PTR __imp_??0?$CStringT@DV?$StrTraitMFC_DLL@DV?$ChTraitsCRT@D@ATL@@@@@ATL@@QAE@PBD@Z
  00079	68 00 00 00 00	 push	 OFFSET ??_C@_00CNPNBAHC@@
  0007e	8d 4e 1c	 lea	 ecx, DWORD PTR [esi+28]
  00081	c6 45 fc 02	 mov	 BYTE PTR __$EHRec$[ebp+8], 2
  00085	ff 15 00 00 00
	00		 call	 DWORD PTR __imp_??0?$CStringT@DV?$StrTraitMFC_DLL@DV?$ChTraitsCRT@D@ATL@@@@@ATL@@QAE@PBD@Z
  0008b	c7 46 20 00 00
	00 00		 mov	 DWORD PTR [esi+32], 0

; 283  : 		m_pDefInfo = NULL;
; 284  : 	}

  00092	8b c6		 mov	 eax, esi
  00094	c7 46 24 00 00
	00 00		 mov	 DWORD PTR [esi+36], 0
  0009b	8b 4d f4	 mov	 ecx, DWORD PTR __$EHRec$[ebp]
  0009e	64 89 0d 00 00
	00 00		 mov	 DWORD PTR fs:0, ecx
  000a5	59		 pop	 ecx
  000a6	5e		 pop	 esi
  000a7	8b e5		 mov	 esp, ebp
  000a9	5d		 pop	 ebp
  000aa	c3		 ret	 0
_TEXT	ENDS
;	COMDAT text$x
text$x	SEGMENT
__unwindfunclet$??0CSTConfigEnv_Clear@@QAE@XZ$0:
  00000	8b 4d f0	 mov	 ecx, DWORD PTR _this$[ebp]
  00003	83 c1 0c	 add	 ecx, 12			; 0000000cH
  00006	ff 25 00 00 00
	00		 jmp	 DWORD PTR __imp_??1?$CStringT@DV?$StrTraitMFC_DLL@DV?$ChTraitsCRT@D@ATL@@@@@ATL@@QAE@XZ
__unwindfunclet$??0CSTConfigEnv_Clear@@QAE@XZ$1:
  0000c	8b 4d f0	 mov	 ecx, DWORD PTR _this$[ebp]
  0000f	83 c1 10	 add	 ecx, 16			; 00000010H
  00012	ff 25 00 00 00
	00		 jmp	 DWORD PTR __imp_??1?$CStringT@DV?$StrTraitMFC_DLL@DV?$ChTraitsCRT@D@ATL@@@@@ATL@@QAE@XZ
__unwindfunclet$??0CSTConfigEnv_Clear@@QAE@XZ$2:
  00018	8b 4d f0	 mov	 ecx, DWORD PTR _this$[ebp]
  0001b	83 c1 18	 add	 ecx, 24			; 00000018H
  0001e	ff 25 00 00 00
	00		 jmp	 DWORD PTR __imp_??1?$CStringT@DV?$StrTraitMFC_DLL@DV?$ChTraitsCRT@D@ATL@@@@@ATL@@QAE@XZ
  00024	cc		 int	 3
  00025	cc		 int	 3
  00026	cc		 int	 3
  00027	cc		 int	 3
  00028	cc		 int	 3
__ehhandler$??0CSTConfigEnv_Clear@@QAE@XZ:
  00029	90		 npad	 1
  0002a	90		 npad	 1
  0002b	8b 54 24 08	 mov	 edx, DWORD PTR [esp+8]
  0002f	8d 42 0c	 lea	 eax, DWORD PTR [edx+12]
  00032	8b 4a f4	 mov	 ecx, DWORD PTR [edx-12]
  00035	33 c8		 xor	 ecx, eax
  00037	e8 00 00 00 00	 call	 @__security_check_cookie@4
  0003c	b8 00 00 00 00	 mov	 eax, OFFSET __ehfuncinfo$??0CSTConfigEnv_Clear@@QAE@XZ
  00041	e9 00 00 00 00	 jmp	 ___CxxFrameHandler3
text$x	ENDS
??0CSTConfigEnv_Clear@@QAE@XZ ENDP			; CSTConfigEnv_Clear::CSTConfigEnv_Clear
; Function compile flags: /Ogtp
; File D:\git\src\IBK\IBK_DRFN\ProjSrc\SrcDrfn\Chart\Common_ST\STConfigEnv.h
;	COMDAT ?LoadInfo@CSTConfigEnv_Setup@@QAEXPBD@Z
_TEXT	SEGMENT
_szKey$ = -280						; size = 4
_szTmp$ = -276						; size = 260
__$ArrayPad$ = -16					; size = 4
__$EHRec$ = -12						; size = 12
_szFileName$ = 8					; size = 4
?LoadInfo@CSTConfigEnv_Setup@@QAEXPBD@Z PROC		; CSTConfigEnv_Setup::LoadInfo, COMDAT
; _this$ = ecx

; 760  : {

  00000	55		 push	 ebp
  00001	8b ec		 mov	 ebp, esp
  00003	6a ff		 push	 -1
  00005	68 00 00 00 00	 push	 __ehhandler$?LoadInfo@CSTConfigEnv_Setup@@QAEXPBD@Z
  0000a	64 a1 00 00 00
	00		 mov	 eax, DWORD PTR fs:0
  00010	50		 push	 eax
  00011	81 ec 0c 01 00
	00		 sub	 esp, 268		; 0000010cH
  00017	a1 00 00 00 00	 mov	 eax, DWORD PTR ___security_cookie
  0001c	33 c5		 xor	 eax, ebp
  0001e	89 45 f0	 mov	 DWORD PTR __$ArrayPad$[ebp], eax
  00021	53		 push	 ebx
  00022	56		 push	 esi
  00023	57		 push	 edi
  00024	50		 push	 eax
  00025	8d 45 f4	 lea	 eax, DWORD PTR __$EHRec$[ebp]
  00028	64 a3 00 00 00
	00		 mov	 DWORD PTR fs:0, eax
  0002e	8b f1		 mov	 esi, ecx
  00030	8b 7d 08	 mov	 edi, DWORD PTR _szFileName$[ebp]

; 761  : 	CString szKey;

  00033	8d 8d e8 fe ff
	ff		 lea	 ecx, DWORD PTR _szKey$[ebp]
  00039	ff 15 00 00 00
	00		 call	 DWORD PTR __imp_??0?$CStringT@DV?$StrTraitMFC_DLL@DV?$ChTraitsCRT@D@ATL@@@@@ATL@@QAE@XZ

; 762  : 
; 763  : 	char szTmp[MAX_PATH];
; 764  : 
; 765  : 	if(m_pDefInfo)

  0003f	83 be 8c 00 00
	00 00		 cmp	 DWORD PTR [esi+140], 0
  00046	8d 85 e8 fe ff
	ff		 lea	 eax, DWORD PTR _szKey$[ebp]
  0004c	8b 1d 00 00 00
	00		 mov	 ebx, DWORD PTR __imp_?Format@?$CStringT@DV?$StrTraitMFC_DLL@DV?$ChTraitsCRT@D@ATL@@@@@ATL@@QAAXPBDZZ
  00052	68 00 00 00 00	 push	 OFFSET ??_C@_0L@DJJDHKPF@ClearPoint@
  00057	68 00 00 00 00	 push	 OFFSET ??_C@_02DKCKIIND@?$CFs@
  0005c	c7 45 fc 00 00
	00 00		 mov	 DWORD PTR __$EHRec$[ebp+8], 0
  00063	50		 push	 eax
  00064	0f 84 ad 09 00
	00		 je	 $LN2@LoadInfo

; 766  : 	{
; 767  : 		//  
; 768  : 		szKey.Format("%s", "ClearPoint");

  0006a	ff d3		 call	 ebx

; 769  : 		m_ClearPoint = ::GetPrivateProfileInt(STCONFIG_CLEAR, szKey, m_pDefInfo->m_ClearPoint, szFileName);

  0006c	8b 86 8c 00 00
	00		 mov	 eax, DWORD PTR [esi+140]
  00072	83 c4 0c	 add	 esp, 12			; 0000000cH
  00075	57		 push	 edi
  00076	ff 30		 push	 DWORD PTR [eax]
  00078	ff b5 e8 fe ff
	ff		 push	 DWORD PTR _szKey$[ebp]
  0007e	68 00 00 00 00	 push	 OFFSET ??_C@_08DIPLEMAP@RunSetup@
  00083	ff 15 00 00 00
	00		 call	 DWORD PTR __imp__GetPrivateProfileIntA@16
  00089	89 06		 mov	 DWORD PTR [esi], eax

; 770  : 		if(m_ClearPoint<0 || m_ClearPoint>1) m_ClearPoint=0;

  0008b	85 c0		 test	 eax, eax
  0008d	78 05		 js	 SHORT $LN5@LoadInfo
  0008f	83 f8 01	 cmp	 eax, 1
  00092	7e 06		 jle	 SHORT $LN4@LoadInfo
$LN5@LoadInfo:
  00094	c7 06 00 00 00
	00		 mov	 DWORD PTR [esi], 0
$LN4@LoadInfo:

; 771  : 
; 772  : 		//-------- 1 -----------------------------
; 773  : 		//()
; 774  : 		szKey.Format("%s", "Chk1");

  0009a	68 00 00 00 00	 push	 OFFSET ??_C@_04FKMDNGOE@Chk1@
  0009f	8d 85 e8 fe ff
	ff		 lea	 eax, DWORD PTR _szKey$[ebp]
  000a5	68 00 00 00 00	 push	 OFFSET ??_C@_02DKCKIIND@?$CFs@
  000aa	50		 push	 eax
  000ab	ff d3		 call	 ebx
  000ad	83 c4 0c	 add	 esp, 12			; 0000000cH

; 775  : 		GetPrivateProfileString(STCONFIG_CLEAR, szKey, m_pDefInfo->m_Chk1, szTmp, MAX_PATH, szFileName);

  000b0	8d 85 ec fe ff
	ff		 lea	 eax, DWORD PTR _szTmp$[ebp]
  000b6	57		 push	 edi
  000b7	68 04 01 00 00	 push	 260			; 00000104H
  000bc	50		 push	 eax
  000bd	8b 86 8c 00 00
	00		 mov	 eax, DWORD PTR [esi+140]
  000c3	ff 70 04	 push	 DWORD PTR [eax+4]
  000c6	ff b5 e8 fe ff
	ff		 push	 DWORD PTR _szKey$[ebp]
  000cc	68 00 00 00 00	 push	 OFFSET ??_C@_08DIPLEMAP@RunSetup@
  000d1	ff 15 00 00 00
	00		 call	 DWORD PTR __imp__GetPrivateProfileStringA@24

; 776  : 		m_Chk1 = szTmp;

  000d7	8d 85 ec fe ff
	ff		 lea	 eax, DWORD PTR _szTmp$[ebp]
  000dd	50		 push	 eax
  000de	8d 4e 04	 lea	 ecx, DWORD PTR [esi+4]
  000e1	ff 15 00 00 00
	00		 call	 DWORD PTR __imp_??4?$CStringT@DV?$StrTraitMFC_DLL@DV?$ChTraitsCRT@D@ATL@@@@@ATL@@QAEAAV01@PBD@Z

; 777  : 
; 778  : 		szKey.Format("%s", "ED1");	

  000e7	68 00 00 00 00	 push	 OFFSET ??_C@_03MDLPKKEC@ED1@
  000ec	8d 85 e8 fe ff
	ff		 lea	 eax, DWORD PTR _szKey$[ebp]
  000f2	68 00 00 00 00	 push	 OFFSET ??_C@_02DKCKIIND@?$CFs@
  000f7	50		 push	 eax
  000f8	ff d3		 call	 ebx
  000fa	83 c4 0c	 add	 esp, 12			; 0000000cH

; 779  : 		GetPrivateProfileString(STCONFIG_CLEAR, szKey, m_pDefInfo->m_ED1, szTmp, MAX_PATH, szFileName);

  000fd	8d 85 ec fe ff
	ff		 lea	 eax, DWORD PTR _szTmp$[ebp]
  00103	57		 push	 edi
  00104	68 04 01 00 00	 push	 260			; 00000104H
  00109	50		 push	 eax
  0010a	8b 86 8c 00 00
	00		 mov	 eax, DWORD PTR [esi+140]
  00110	ff 70 08	 push	 DWORD PTR [eax+8]
  00113	ff b5 e8 fe ff
	ff		 push	 DWORD PTR _szKey$[ebp]
  00119	68 00 00 00 00	 push	 OFFSET ??_C@_08DIPLEMAP@RunSetup@
  0011e	ff 15 00 00 00
	00		 call	 DWORD PTR __imp__GetPrivateProfileStringA@24

; 780  : 		m_ED1 = szTmp;

  00124	8d 85 ec fe ff
	ff		 lea	 eax, DWORD PTR _szTmp$[ebp]
  0012a	50		 push	 eax
  0012b	8d 4e 08	 lea	 ecx, DWORD PTR [esi+8]
  0012e	ff 15 00 00 00
	00		 call	 DWORD PTR __imp_??4?$CStringT@DV?$StrTraitMFC_DLL@DV?$ChTraitsCRT@D@ATL@@@@@ATL@@QAEAAV01@PBD@Z

; 781  : 
; 782  : 		// () : P
; 783  : 		szKey.Format("%s", "P1");

  00134	68 00 00 00 00	 push	 OFFSET ??_C@_02KKFPAPOP@P1@
  00139	8d 85 e8 fe ff
	ff		 lea	 eax, DWORD PTR _szKey$[ebp]
  0013f	68 00 00 00 00	 push	 OFFSET ??_C@_02DKCKIIND@?$CFs@
  00144	50		 push	 eax
  00145	ff d3		 call	 ebx

; 784  : 		m_P1 = GetPrivateProfileInt(STCONFIG_CLEAR, szKey, m_pDefInfo->m_P1, szFileName);

  00147	8b 86 8c 00 00
	00		 mov	 eax, DWORD PTR [esi+140]
  0014d	83 c4 0c	 add	 esp, 12			; 0000000cH
  00150	57		 push	 edi
  00151	ff 70 0c	 push	 DWORD PTR [eax+12]
  00154	ff b5 e8 fe ff
	ff		 push	 DWORD PTR _szKey$[ebp]
  0015a	68 00 00 00 00	 push	 OFFSET ??_C@_08DIPLEMAP@RunSetup@
  0015f	ff 15 00 00 00
	00		 call	 DWORD PTR __imp__GetPrivateProfileIntA@16
  00165	89 46 0c	 mov	 DWORD PTR [esi+12], eax

; 785  : 		if(m_P1 < 0 ) m_P1 = 0;

  00168	85 c0		 test	 eax, eax
  0016a	79 07		 jns	 SHORT $LN6@LoadInfo
  0016c	c7 46 0c 00 00
	00 00		 mov	 DWORD PTR [esi+12], 0
$LN6@LoadInfo:

; 786  : 
; 787  : 		// () : S
; 788  : 		szKey.Format("%s", "S1");

  00173	68 00 00 00 00	 push	 OFFSET ??_C@_02KIBJLBLG@S1@
  00178	8d 85 e8 fe ff
	ff		 lea	 eax, DWORD PTR _szKey$[ebp]
  0017e	68 00 00 00 00	 push	 OFFSET ??_C@_02DKCKIIND@?$CFs@
  00183	50		 push	 eax
  00184	ff d3		 call	 ebx

; 789  : 		m_S1 = GetPrivateProfileInt(STCONFIG_CLEAR, szKey, m_pDefInfo->m_S1, szFileName);

  00186	8b 86 8c 00 00
	00		 mov	 eax, DWORD PTR [esi+140]
  0018c	83 c4 0c	 add	 esp, 12			; 0000000cH
  0018f	57		 push	 edi
  00190	ff 70 10	 push	 DWORD PTR [eax+16]
  00193	ff b5 e8 fe ff
	ff		 push	 DWORD PTR _szKey$[ebp]
  00199	68 00 00 00 00	 push	 OFFSET ??_C@_08DIPLEMAP@RunSetup@
  0019e	ff 15 00 00 00
	00		 call	 DWORD PTR __imp__GetPrivateProfileIntA@16
  001a4	89 46 10	 mov	 DWORD PTR [esi+16], eax

; 790  : 		if(m_S1 < 0 ) m_S1 = 0;

  001a7	85 c0		 test	 eax, eax
  001a9	79 07		 jns	 SHORT $LN7@LoadInfo
  001ab	c7 46 10 00 00
	00 00		 mov	 DWORD PTR [esi+16], 0
$LN7@LoadInfo:

; 791  : 
; 792  : 		// () : C
; 793  : 		szKey.Format("CLR_%s", "1");

  001b2	68 00 00 00 00	 push	 OFFSET ??_C@_01HIHLOKLC@1@
  001b7	8d 85 e8 fe ff
	ff		 lea	 eax, DWORD PTR _szKey$[ebp]
  001bd	68 00 00 00 00	 push	 OFFSET ??_C@_06IEMDKIBD@CLR_?$CFs@
  001c2	50		 push	 eax
  001c3	ff d3		 call	 ebx
  001c5	83 c4 0c	 add	 esp, 12			; 0000000cH

; 794  : 		GetPrivateProfileString(STCONFIG_CLEAR, szKey, m_pDefInfo->m_CLR_1, szTmp, MAX_PATH, szFileName);

  001c8	8d 85 ec fe ff
	ff		 lea	 eax, DWORD PTR _szTmp$[ebp]
  001ce	57		 push	 edi
  001cf	68 04 01 00 00	 push	 260			; 00000104H
  001d4	50		 push	 eax
  001d5	8b 86 8c 00 00
	00		 mov	 eax, DWORD PTR [esi+140]
  001db	ff 70 14	 push	 DWORD PTR [eax+20]
  001de	ff b5 e8 fe ff
	ff		 push	 DWORD PTR _szKey$[ebp]
  001e4	68 00 00 00 00	 push	 OFFSET ??_C@_08DIPLEMAP@RunSetup@
  001e9	ff 15 00 00 00
	00		 call	 DWORD PTR __imp__GetPrivateProfileStringA@24

; 795  : 		m_CLR_1 = szTmp;

  001ef	8d 85 ec fe ff
	ff		 lea	 eax, DWORD PTR _szTmp$[ebp]
  001f5	50		 push	 eax
  001f6	8d 4e 14	 lea	 ecx, DWORD PTR [esi+20]
  001f9	ff 15 00 00 00
	00		 call	 DWORD PTR __imp_??4?$CStringT@DV?$StrTraitMFC_DLL@DV?$ChTraitsCRT@D@ATL@@@@@ATL@@QAEAAV01@PBD@Z

; 796  : 
; 797  : 		//------- 2 ------------------------------
; 798  : 		// 	
; 799  : 		szKey.Format("%s", "Chk2");

  001ff	68 00 00 00 00	 push	 OFFSET ??_C@_04HBOOIFCH@Chk2@
  00204	8d 85 e8 fe ff
	ff		 lea	 eax, DWORD PTR _szKey$[ebp]
  0020a	68 00 00 00 00	 push	 OFFSET ??_C@_02DKCKIIND@?$CFs@
  0020f	50		 push	 eax
  00210	ff d3		 call	 ebx
  00212	83 c4 0c	 add	 esp, 12			; 0000000cH

; 800  : 		GetPrivateProfileString(STCONFIG_CLEAR, szKey, m_pDefInfo->m_Chk2, szTmp, MAX_PATH, szFileName);

  00215	8d 85 ec fe ff
	ff		 lea	 eax, DWORD PTR _szTmp$[ebp]
  0021b	57		 push	 edi
  0021c	68 04 01 00 00	 push	 260			; 00000104H
  00221	50		 push	 eax
  00222	8b 86 8c 00 00
	00		 mov	 eax, DWORD PTR [esi+140]
  00228	ff 70 18	 push	 DWORD PTR [eax+24]
  0022b	ff b5 e8 fe ff
	ff		 push	 DWORD PTR _szKey$[ebp]
  00231	68 00 00 00 00	 push	 OFFSET ??_C@_08DIPLEMAP@RunSetup@
  00236	ff 15 00 00 00
	00		 call	 DWORD PTR __imp__GetPrivateProfileStringA@24

; 801  : 		m_Chk2 = szTmp;

  0023c	8d 85 ec fe ff
	ff		 lea	 eax, DWORD PTR _szTmp$[ebp]
  00242	50		 push	 eax
  00243	8d 4e 18	 lea	 ecx, DWORD PTR [esi+24]
  00246	ff 15 00 00 00
	00		 call	 DWORD PTR __imp_??4?$CStringT@DV?$StrTraitMFC_DLL@DV?$ChTraitsCRT@D@ATL@@@@@ATL@@QAEAAV01@PBD@Z

; 802  : 
; 803  : 		szKey.Format("%s", "ED2");

  0024c	68 00 00 00 00	 push	 OFFSET ??_C@_03OIJCPJIB@ED2@
  00251	8d 85 e8 fe ff
	ff		 lea	 eax, DWORD PTR _szKey$[ebp]
  00257	68 00 00 00 00	 push	 OFFSET ??_C@_02DKCKIIND@?$CFs@
  0025c	50		 push	 eax
  0025d	ff d3		 call	 ebx
  0025f	83 c4 0c	 add	 esp, 12			; 0000000cH

; 804  : 		GetPrivateProfileString(STCONFIG_CLEAR, szKey, m_pDefInfo->m_ED2, szTmp, MAX_PATH, szFileName);

  00262	8d 85 ec fe ff
	ff		 lea	 eax, DWORD PTR _szTmp$[ebp]
  00268	57		 push	 edi
  00269	68 04 01 00 00	 push	 260			; 00000104H
  0026e	50		 push	 eax
  0026f	8b 86 8c 00 00
	00		 mov	 eax, DWORD PTR [esi+140]
  00275	ff 70 1c	 push	 DWORD PTR [eax+28]
  00278	ff b5 e8 fe ff
	ff		 push	 DWORD PTR _szKey$[ebp]
  0027e	68 00 00 00 00	 push	 OFFSET ??_C@_08DIPLEMAP@RunSetup@
  00283	ff 15 00 00 00
	00		 call	 DWORD PTR __imp__GetPrivateProfileStringA@24

; 805  : 		m_ED2= szTmp;

  00289	8d 85 ec fe ff
	ff		 lea	 eax, DWORD PTR _szTmp$[ebp]
  0028f	50		 push	 eax
  00290	8d 4e 1c	 lea	 ecx, DWORD PTR [esi+28]
  00293	ff 15 00 00 00
	00		 call	 DWORD PTR __imp_??4?$CStringT@DV?$StrTraitMFC_DLL@DV?$ChTraitsCRT@D@ATL@@@@@ATL@@QAEAAV01@PBD@Z

; 806  : 
; 807  : 		//  : P
; 808  : 		szKey.Format("%s", "P2");

  00299	68 00 00 00 00	 push	 OFFSET ??_C@_02IBHCFMCM@P2@
  0029e	8d 85 e8 fe ff
	ff		 lea	 eax, DWORD PTR _szKey$[ebp]
  002a4	68 00 00 00 00	 push	 OFFSET ??_C@_02DKCKIIND@?$CFs@
  002a9	50		 push	 eax
  002aa	ff d3		 call	 ebx

; 809  : 		m_P2 = GetPrivateProfileInt(STCONFIG_CLEAR, szKey, m_pDefInfo->m_P2, szFileName);

  002ac	8b 86 8c 00 00
	00		 mov	 eax, DWORD PTR [esi+140]
  002b2	83 c4 0c	 add	 esp, 12			; 0000000cH
  002b5	57		 push	 edi
  002b6	ff 70 20	 push	 DWORD PTR [eax+32]
  002b9	ff b5 e8 fe ff
	ff		 push	 DWORD PTR _szKey$[ebp]
  002bf	68 00 00 00 00	 push	 OFFSET ??_C@_08DIPLEMAP@RunSetup@
  002c4	ff 15 00 00 00
	00		 call	 DWORD PTR __imp__GetPrivateProfileIntA@16
  002ca	89 46 20	 mov	 DWORD PTR [esi+32], eax

; 810  : 		if(m_P2 < 0 ) m_P2 = 0;

  002cd	85 c0		 test	 eax, eax
  002cf	79 07		 jns	 SHORT $LN8@LoadInfo
  002d1	c7 46 20 00 00
	00 00		 mov	 DWORD PTR [esi+32], 0
$LN8@LoadInfo:

; 811  : 
; 812  : 		//  : S
; 813  : 		szKey.Format("%s", "S2");

  002d8	68 00 00 00 00	 push	 OFFSET ??_C@_02IDDEOCHF@S2@
  002dd	8d 85 e8 fe ff
	ff		 lea	 eax, DWORD PTR _szKey$[ebp]
  002e3	68 00 00 00 00	 push	 OFFSET ??_C@_02DKCKIIND@?$CFs@
  002e8	50		 push	 eax
  002e9	ff d3		 call	 ebx

; 814  : 		m_S2 = GetPrivateProfileInt(STCONFIG_CLEAR, szKey, m_pDefInfo->m_S2, szFileName);

  002eb	8b 86 8c 00 00
	00		 mov	 eax, DWORD PTR [esi+140]
  002f1	83 c4 0c	 add	 esp, 12			; 0000000cH
  002f4	57		 push	 edi
  002f5	ff 70 24	 push	 DWORD PTR [eax+36]
  002f8	ff b5 e8 fe ff
	ff		 push	 DWORD PTR _szKey$[ebp]
  002fe	68 00 00 00 00	 push	 OFFSET ??_C@_08DIPLEMAP@RunSetup@
  00303	ff 15 00 00 00
	00		 call	 DWORD PTR __imp__GetPrivateProfileIntA@16
  00309	89 46 24	 mov	 DWORD PTR [esi+36], eax

; 815  : 		if(m_S2 < 0 ) m_S2 = 0;

  0030c	85 c0		 test	 eax, eax
  0030e	79 07		 jns	 SHORT $LN9@LoadInfo
  00310	c7 46 24 00 00
	00 00		 mov	 DWORD PTR [esi+36], 0
$LN9@LoadInfo:

; 816  : 
; 817  : 		//  : C
; 818  : 		szKey.Format("CLR_%s", "2");

  00317	68 00 00 00 00	 push	 OFFSET ??_C@_01FDFGLJHB@2@
  0031c	8d 85 e8 fe ff
	ff		 lea	 eax, DWORD PTR _szKey$[ebp]
  00322	68 00 00 00 00	 push	 OFFSET ??_C@_06IEMDKIBD@CLR_?$CFs@
  00327	50		 push	 eax
  00328	ff d3		 call	 ebx
  0032a	83 c4 0c	 add	 esp, 12			; 0000000cH

; 819  : 		GetPrivateProfileString(STCONFIG_CLEAR, szKey, m_pDefInfo->m_CLR_2, szTmp, MAX_PATH, szFileName);

  0032d	8d 85 ec fe ff
	ff		 lea	 eax, DWORD PTR _szTmp$[ebp]
  00333	57		 push	 edi
  00334	68 04 01 00 00	 push	 260			; 00000104H
  00339	50		 push	 eax
  0033a	8b 86 8c 00 00
	00		 mov	 eax, DWORD PTR [esi+140]
  00340	ff 70 28	 push	 DWORD PTR [eax+40]
  00343	ff b5 e8 fe ff
	ff		 push	 DWORD PTR _szKey$[ebp]
  00349	68 00 00 00 00	 push	 OFFSET ??_C@_08DIPLEMAP@RunSetup@
  0034e	ff 15 00 00 00
	00		 call	 DWORD PTR __imp__GetPrivateProfileStringA@24

; 820  : 		m_CLR_2 = szTmp;

  00354	8d 85 ec fe ff
	ff		 lea	 eax, DWORD PTR _szTmp$[ebp]
  0035a	50		 push	 eax
  0035b	8d 4e 28	 lea	 ecx, DWORD PTR [esi+40]
  0035e	ff 15 00 00 00
	00		 call	 DWORD PTR __imp_??4?$CStringT@DV?$StrTraitMFC_DLL@DV?$ChTraitsCRT@D@ATL@@@@@ATL@@QAEAAV01@PBD@Z

; 821  : 
; 822  : 		//----------- 3 --------------------------
; 823  : 		//  
; 824  : 		szKey.Format("%s", "Chk3");

  00364	68 00 00 00 00	 push	 OFFSET ??_C@_04GIPFLEGG@Chk3@
  00369	8d 85 e8 fe ff
	ff		 lea	 eax, DWORD PTR _szKey$[ebp]
  0036f	68 00 00 00 00	 push	 OFFSET ??_C@_02DKCKIIND@?$CFs@
  00374	50		 push	 eax
  00375	ff d3		 call	 ebx
  00377	83 c4 0c	 add	 esp, 12			; 0000000cH

; 825  : 		GetPrivateProfileString(STCONFIG_CLEAR, szKey, m_pDefInfo->m_Chk3, szTmp, MAX_PATH, szFileName);

  0037a	8d 85 ec fe ff
	ff		 lea	 eax, DWORD PTR _szTmp$[ebp]
  00380	57		 push	 edi
  00381	68 04 01 00 00	 push	 260			; 00000104H
  00386	50		 push	 eax
  00387	8b 86 8c 00 00
	00		 mov	 eax, DWORD PTR [esi+140]
  0038d	ff 70 2c	 push	 DWORD PTR [eax+44]
  00390	ff b5 e8 fe ff
	ff		 push	 DWORD PTR _szKey$[ebp]
  00396	68 00 00 00 00	 push	 OFFSET ??_C@_08DIPLEMAP@RunSetup@
  0039b	ff 15 00 00 00
	00		 call	 DWORD PTR __imp__GetPrivateProfileStringA@24

; 826  : 		m_Chk3 = szTmp;

  003a1	8d 85 ec fe ff
	ff		 lea	 eax, DWORD PTR _szTmp$[ebp]
  003a7	50		 push	 eax
  003a8	8d 4e 2c	 lea	 ecx, DWORD PTR [esi+44]
  003ab	ff 15 00 00 00
	00		 call	 DWORD PTR __imp_??4?$CStringT@DV?$StrTraitMFC_DLL@DV?$ChTraitsCRT@D@ATL@@@@@ATL@@QAEAAV01@PBD@Z

; 827  : 
; 828  : 		szKey.Format("%s", "ED3");

  003b1	68 00 00 00 00	 push	 OFFSET ??_C@_03PBIJMIMA@ED3@
  003b6	8d 85 e8 fe ff
	ff		 lea	 eax, DWORD PTR _szKey$[ebp]
  003bc	68 00 00 00 00	 push	 OFFSET ??_C@_02DKCKIIND@?$CFs@
  003c1	50		 push	 eax
  003c2	ff d3		 call	 ebx
  003c4	83 c4 0c	 add	 esp, 12			; 0000000cH

; 829  : 		GetPrivateProfileString(STCONFIG_CLEAR, szKey, m_pDefInfo->m_ED3, szTmp, MAX_PATH, szFileName);

  003c7	8d 85 ec fe ff
	ff		 lea	 eax, DWORD PTR _szTmp$[ebp]
  003cd	57		 push	 edi
  003ce	68 04 01 00 00	 push	 260			; 00000104H
  003d3	50		 push	 eax
  003d4	8b 86 8c 00 00
	00		 mov	 eax, DWORD PTR [esi+140]
  003da	ff 70 30	 push	 DWORD PTR [eax+48]
  003dd	ff b5 e8 fe ff
	ff		 push	 DWORD PTR _szKey$[ebp]
  003e3	68 00 00 00 00	 push	 OFFSET ??_C@_08DIPLEMAP@RunSetup@
  003e8	ff 15 00 00 00
	00		 call	 DWORD PTR __imp__GetPrivateProfileStringA@24

; 830  : 		m_ED3 = szTmp;

  003ee	8d 85 ec fe ff
	ff		 lea	 eax, DWORD PTR _szTmp$[ebp]
  003f4	50		 push	 eax
  003f5	8d 4e 30	 lea	 ecx, DWORD PTR [esi+48]
  003f8	ff 15 00 00 00
	00		 call	 DWORD PTR __imp_??4?$CStringT@DV?$StrTraitMFC_DLL@DV?$ChTraitsCRT@D@ATL@@@@@ATL@@QAEAAV01@PBD@Z

; 831  : 
; 832  : 		//   : P
; 833  : 		szKey.Format("%s", "P3");

  003fe	68 00 00 00 00	 push	 OFFSET ??_C@_02JIGJGNGN@P3@
  00403	8d 85 e8 fe ff
	ff		 lea	 eax, DWORD PTR _szKey$[ebp]
  00409	68 00 00 00 00	 push	 OFFSET ??_C@_02DKCKIIND@?$CFs@
  0040e	50		 push	 eax
  0040f	ff d3		 call	 ebx

; 834  : 		m_P3 = GetPrivateProfileInt(STCONFIG_CLEAR, szKey, m_pDefInfo->m_P3, szFileName);

  00411	8b 86 8c 00 00
	00		 mov	 eax, DWORD PTR [esi+140]
  00417	83 c4 0c	 add	 esp, 12			; 0000000cH
  0041a	57		 push	 edi
  0041b	ff 70 34	 push	 DWORD PTR [eax+52]
  0041e	ff b5 e8 fe ff
	ff		 push	 DWORD PTR _szKey$[ebp]
  00424	68 00 00 00 00	 push	 OFFSET ??_C@_08DIPLEMAP@RunSetup@
  00429	ff 15 00 00 00
	00		 call	 DWORD PTR __imp__GetPrivateProfileIntA@16
  0042f	89 46 34	 mov	 DWORD PTR [esi+52], eax

; 835  : 		if(m_P3 < 0 ) m_P3 = 0;

  00432	85 c0		 test	 eax, eax
  00434	79 07		 jns	 SHORT $LN10@LoadInfo
  00436	c7 46 34 00 00
	00 00		 mov	 DWORD PTR [esi+52], 0
$LN10@LoadInfo:

; 836  : 
; 837  : 		//   : S
; 838  : 		szKey.Format("%s", "S3");

  0043d	68 00 00 00 00	 push	 OFFSET ??_C@_02JKCPNDDE@S3@
  00442	8d 85 e8 fe ff
	ff		 lea	 eax, DWORD PTR _szKey$[ebp]
  00448	68 00 00 00 00	 push	 OFFSET ??_C@_02DKCKIIND@?$CFs@
  0044d	50		 push	 eax
  0044e	ff d3		 call	 ebx

; 839  : 		m_S3 = GetPrivateProfileInt(STCONFIG_CLEAR, szKey, m_pDefInfo->m_S3, szFileName);

  00450	8b 86 8c 00 00
	00		 mov	 eax, DWORD PTR [esi+140]
  00456	83 c4 0c	 add	 esp, 12			; 0000000cH
  00459	57		 push	 edi
  0045a	ff 70 38	 push	 DWORD PTR [eax+56]
  0045d	ff b5 e8 fe ff
	ff		 push	 DWORD PTR _szKey$[ebp]
  00463	68 00 00 00 00	 push	 OFFSET ??_C@_08DIPLEMAP@RunSetup@
  00468	ff 15 00 00 00
	00		 call	 DWORD PTR __imp__GetPrivateProfileIntA@16
  0046e	89 46 38	 mov	 DWORD PTR [esi+56], eax

; 840  : 		if(m_S3 < 0 ) m_S3 = 0;

  00471	85 c0		 test	 eax, eax
  00473	79 07		 jns	 SHORT $LN11@LoadInfo
  00475	c7 46 38 00 00
	00 00		 mov	 DWORD PTR [esi+56], 0
$LN11@LoadInfo:

; 841  : 
; 842  : 		//   : C
; 843  : 		szKey.Format("CLR_%s", "3");

  0047c	68 00 00 00 00	 push	 OFFSET ??_C@_01EKENIIDA@3@
  00481	8d 85 e8 fe ff
	ff		 lea	 eax, DWORD PTR _szKey$[ebp]
  00487	68 00 00 00 00	 push	 OFFSET ??_C@_06IEMDKIBD@CLR_?$CFs@
  0048c	50		 push	 eax
  0048d	ff d3		 call	 ebx
  0048f	83 c4 0c	 add	 esp, 12			; 0000000cH

; 844  : 		GetPrivateProfileString(STCONFIG_CLEAR, szKey, m_pDefInfo->m_CLR_3, szTmp, MAX_PATH, szFileName);

  00492	8d 85 ec fe ff
	ff		 lea	 eax, DWORD PTR _szTmp$[ebp]
  00498	57		 push	 edi
  00499	68 04 01 00 00	 push	 260			; 00000104H
  0049e	50		 push	 eax
  0049f	8b 86 8c 00 00
	00		 mov	 eax, DWORD PTR [esi+140]
  004a5	ff 70 3c	 push	 DWORD PTR [eax+60]
  004a8	ff b5 e8 fe ff
	ff		 push	 DWORD PTR _szKey$[ebp]
  004ae	68 00 00 00 00	 push	 OFFSET ??_C@_08DIPLEMAP@RunSetup@
  004b3	ff 15 00 00 00
	00		 call	 DWORD PTR __imp__GetPrivateProfileStringA@24

; 845  : 		m_CLR_3 = szTmp;

  004b9	8d 85 ec fe ff
	ff		 lea	 eax, DWORD PTR _szTmp$[ebp]
  004bf	50		 push	 eax
  004c0	8d 4e 3c	 lea	 ecx, DWORD PTR [esi+60]
  004c3	ff 15 00 00 00
	00		 call	 DWORD PTR __imp_??4?$CStringT@DV?$StrTraitMFC_DLL@DV?$ChTraitsCRT@D@ATL@@@@@ATL@@QAEAAV01@PBD@Z

; 846  : 
; 847  : 		//----------- 4 --------------------------
; 848  : 		//  
; 849  : 		szKey.Format("%s", "Chk4");

  004c9	68 00 00 00 00	 push	 OFFSET ??_C@_04CHLECCKB@Chk4@
  004ce	8d 85 e8 fe ff
	ff		 lea	 eax, DWORD PTR _szKey$[ebp]
  004d4	68 00 00 00 00	 push	 OFFSET ??_C@_02DKCKIIND@?$CFs@
  004d9	50		 push	 eax
  004da	ff d3		 call	 ebx
  004dc	83 c4 0c	 add	 esp, 12			; 0000000cH

; 850  : 		GetPrivateProfileString(STCONFIG_CLEAR, szKey, m_pDefInfo->m_Chk4, szTmp, MAX_PATH, szFileName);

  004df	8d 85 ec fe ff
	ff		 lea	 eax, DWORD PTR _szTmp$[ebp]
  004e5	57		 push	 edi
  004e6	68 04 01 00 00	 push	 260			; 00000104H
  004eb	50		 push	 eax
  004ec	8b 86 8c 00 00
	00		 mov	 eax, DWORD PTR [esi+140]
  004f2	ff 70 40	 push	 DWORD PTR [eax+64]
  004f5	ff b5 e8 fe ff
	ff		 push	 DWORD PTR _szKey$[ebp]
  004fb	68 00 00 00 00	 push	 OFFSET ??_C@_08DIPLEMAP@RunSetup@
  00500	ff 15 00 00 00
	00		 call	 DWORD PTR __imp__GetPrivateProfileStringA@24

; 851  : 		m_Chk4 = szTmp;

  00506	8d 85 ec fe ff
	ff		 lea	 eax, DWORD PTR _szTmp$[ebp]
  0050c	50		 push	 eax
  0050d	8d 4e 40	 lea	 ecx, DWORD PTR [esi+64]
  00510	ff 15 00 00 00
	00		 call	 DWORD PTR __imp_??4?$CStringT@DV?$StrTraitMFC_DLL@DV?$ChTraitsCRT@D@ATL@@@@@ATL@@QAEAAV01@PBD@Z

; 852  : 
; 853  : 		szKey.Format("%s", "ED4");

  00516	68 00 00 00 00	 push	 OFFSET ??_C@_03LOMIFOAH@ED4@
  0051b	8d 85 e8 fe ff
	ff		 lea	 eax, DWORD PTR _szKey$[ebp]
  00521	68 00 00 00 00	 push	 OFFSET ??_C@_02DKCKIIND@?$CFs@
  00526	50		 push	 eax
  00527	ff d3		 call	 ebx
  00529	83 c4 0c	 add	 esp, 12			; 0000000cH

; 854  : 		GetPrivateProfileString(STCONFIG_CLEAR, szKey, m_pDefInfo->m_ED4, szTmp, MAX_PATH, szFileName);

  0052c	8d 85 ec fe ff
	ff		 lea	 eax, DWORD PTR _szTmp$[ebp]
  00532	57		 push	 edi
  00533	68 04 01 00 00	 push	 260			; 00000104H
  00538	50		 push	 eax
  00539	8b 86 8c 00 00
	00		 mov	 eax, DWORD PTR [esi+140]
  0053f	ff 70 44	 push	 DWORD PTR [eax+68]
  00542	ff b5 e8 fe ff
	ff		 push	 DWORD PTR _szKey$[ebp]
  00548	68 00 00 00 00	 push	 OFFSET ??_C@_08DIPLEMAP@RunSetup@
  0054d	ff 15 00 00 00
	00		 call	 DWORD PTR __imp__GetPrivateProfileStringA@24

; 855  : 		m_ED4 = szTmp;

  00553	8d 85 ec fe ff
	ff		 lea	 eax, DWORD PTR _szTmp$[ebp]
  00559	50		 push	 eax
  0055a	8d 4e 44	 lea	 ecx, DWORD PTR [esi+68]
  0055d	ff 15 00 00 00
	00		 call	 DWORD PTR __imp_??4?$CStringT@DV?$StrTraitMFC_DLL@DV?$ChTraitsCRT@D@ATL@@@@@ATL@@QAEAAV01@PBD@Z

; 856  : 
; 857  : 		//   : P
; 858  : 		szKey.Format("%s", "P4");

  00563	68 00 00 00 00	 push	 OFFSET ??_C@_02NHCIPLKK@P4@
  00568	8d 85 e8 fe ff
	ff		 lea	 eax, DWORD PTR _szKey$[ebp]
  0056e	68 00 00 00 00	 push	 OFFSET ??_C@_02DKCKIIND@?$CFs@
  00573	50		 push	 eax
  00574	ff d3		 call	 ebx

; 859  : 		m_P4 = GetPrivateProfileInt(STCONFIG_CLEAR, szKey, m_pDefInfo->m_P4, szFileName);

  00576	8b 86 8c 00 00
	00		 mov	 eax, DWORD PTR [esi+140]
  0057c	83 c4 0c	 add	 esp, 12			; 0000000cH
  0057f	57		 push	 edi
  00580	ff 70 48	 push	 DWORD PTR [eax+72]
  00583	ff b5 e8 fe ff
	ff		 push	 DWORD PTR _szKey$[ebp]
  00589	68 00 00 00 00	 push	 OFFSET ??_C@_08DIPLEMAP@RunSetup@
  0058e	ff 15 00 00 00
	00		 call	 DWORD PTR __imp__GetPrivateProfileIntA@16
  00594	89 46 48	 mov	 DWORD PTR [esi+72], eax

; 860  : 		if(m_P4 < 0 ) m_P4 = 0;

  00597	85 c0		 test	 eax, eax
  00599	79 07		 jns	 SHORT $LN12@LoadInfo
  0059b	c7 46 48 00 00
	00 00		 mov	 DWORD PTR [esi+72], 0
$LN12@LoadInfo:

; 861  : 
; 862  : 		//   : S
; 863  : 		szKey.Format("%s", "S4");

  005a2	68 00 00 00 00	 push	 OFFSET ??_C@_02NFGOEFPD@S4@
  005a7	8d 85 e8 fe ff
	ff		 lea	 eax, DWORD PTR _szKey$[ebp]
  005ad	68 00 00 00 00	 push	 OFFSET ??_C@_02DKCKIIND@?$CFs@
  005b2	50		 push	 eax
  005b3	ff d3		 call	 ebx

; 864  : 		m_S4 = GetPrivateProfileInt(STCONFIG_CLEAR, szKey, m_pDefInfo->m_S4, szFileName);

  005b5	8b 86 8c 00 00
	00		 mov	 eax, DWORD PTR [esi+140]
  005bb	83 c4 0c	 add	 esp, 12			; 0000000cH
  005be	57		 push	 edi
  005bf	ff 70 4c	 push	 DWORD PTR [eax+76]
  005c2	ff b5 e8 fe ff
	ff		 push	 DWORD PTR _szKey$[ebp]
  005c8	68 00 00 00 00	 push	 OFFSET ??_C@_08DIPLEMAP@RunSetup@
  005cd	ff 15 00 00 00
	00		 call	 DWORD PTR __imp__GetPrivateProfileIntA@16
  005d3	89 46 4c	 mov	 DWORD PTR [esi+76], eax

; 865  : 		if(m_S4 < 0 ) m_S4 = 0;

  005d6	85 c0		 test	 eax, eax
  005d8	79 07		 jns	 SHORT $LN13@LoadInfo
  005da	c7 46 4c 00 00
	00 00		 mov	 DWORD PTR [esi+76], 0
$LN13@LoadInfo:

; 866  : 
; 867  : 		//   : C
; 868  : 		szKey.Format("CLR_%s", "4");

  005e1	68 00 00 00 00	 push	 OFFSET ??_C@_01FAMBOPH@4@
  005e6	8d 85 e8 fe ff
	ff		 lea	 eax, DWORD PTR _szKey$[ebp]
  005ec	68 00 00 00 00	 push	 OFFSET ??_C@_06IEMDKIBD@CLR_?$CFs@
  005f1	50		 push	 eax
  005f2	ff d3		 call	 ebx
  005f4	83 c4 0c	 add	 esp, 12			; 0000000cH

; 869  : 		GetPrivateProfileString(STCONFIG_CLEAR, szKey, m_pDefInfo->m_CLR_4, szTmp, MAX_PATH, szFileName);

  005f7	8d 85 ec fe ff
	ff		 lea	 eax, DWORD PTR _szTmp$[ebp]
  005fd	57		 push	 edi
  005fe	68 04 01 00 00	 push	 260			; 00000104H
  00603	50		 push	 eax
  00604	8b 86 8c 00 00
	00		 mov	 eax, DWORD PTR [esi+140]
  0060a	ff 70 50	 push	 DWORD PTR [eax+80]
  0060d	ff b5 e8 fe ff
	ff		 push	 DWORD PTR _szKey$[ebp]
  00613	68 00 00 00 00	 push	 OFFSET ??_C@_08DIPLEMAP@RunSetup@
  00618	ff 15 00 00 00
	00		 call	 DWORD PTR __imp__GetPrivateProfileStringA@24

; 870  : 		m_CLR_4 = szTmp;

  0061e	8d 85 ec fe ff
	ff		 lea	 eax, DWORD PTR _szTmp$[ebp]
  00624	50		 push	 eax
  00625	8d 4e 50	 lea	 ecx, DWORD PTR [esi+80]
  00628	ff 15 00 00 00
	00		 call	 DWORD PTR __imp_??4?$CStringT@DV?$StrTraitMFC_DLL@DV?$ChTraitsCRT@D@ATL@@@@@ATL@@QAEAAV01@PBD@Z

; 871  : 
; 872  : 		//----------- 5 --------------------------
; 873  : 		//
; 874  : 		szKey.Format("%s", "Chk5");

  0062e	68 00 00 00 00	 push	 OFFSET ??_C@_04DOKPBDOA@Chk5@
  00633	8d 85 e8 fe ff
	ff		 lea	 eax, DWORD PTR _szKey$[ebp]
  00639	68 00 00 00 00	 push	 OFFSET ??_C@_02DKCKIIND@?$CFs@
  0063e	50		 push	 eax
  0063f	ff d3		 call	 ebx
  00641	83 c4 0c	 add	 esp, 12			; 0000000cH

; 875  : 		GetPrivateProfileString(STCONFIG_CLEAR, szKey, m_pDefInfo->m_Chk5, szTmp, MAX_PATH, szFileName);

  00644	8d 85 ec fe ff
	ff		 lea	 eax, DWORD PTR _szTmp$[ebp]
  0064a	57		 push	 edi
  0064b	68 04 01 00 00	 push	 260			; 00000104H
  00650	50		 push	 eax
  00651	8b 86 8c 00 00
	00		 mov	 eax, DWORD PTR [esi+140]
  00657	ff 70 54	 push	 DWORD PTR [eax+84]
  0065a	ff b5 e8 fe ff
	ff		 push	 DWORD PTR _szKey$[ebp]
  00660	68 00 00 00 00	 push	 OFFSET ??_C@_08DIPLEMAP@RunSetup@
  00665	ff 15 00 00 00
	00		 call	 DWORD PTR __imp__GetPrivateProfileStringA@24

; 876  : 		m_Chk5 = szTmp;

  0066b	8d 85 ec fe ff
	ff		 lea	 eax, DWORD PTR _szTmp$[ebp]
  00671	50		 push	 eax
  00672	8d 4e 54	 lea	 ecx, DWORD PTR [esi+84]
  00675	ff 15 00 00 00
	00		 call	 DWORD PTR __imp_??4?$CStringT@DV?$StrTraitMFC_DLL@DV?$ChTraitsCRT@D@ATL@@@@@ATL@@QAEAAV01@PBD@Z

; 877  : 
; 878  : 		szKey.Format("%s", "ED5");

  0067b	68 00 00 00 00	 push	 OFFSET ??_C@_03KHNDGPEG@ED5@
  00680	8d 85 e8 fe ff
	ff		 lea	 eax, DWORD PTR _szKey$[ebp]
  00686	68 00 00 00 00	 push	 OFFSET ??_C@_02DKCKIIND@?$CFs@
  0068b	50		 push	 eax
  0068c	ff d3		 call	 ebx
  0068e	83 c4 0c	 add	 esp, 12			; 0000000cH

; 879  : 		GetPrivateProfileString(STCONFIG_CLEAR, szKey, m_pDefInfo->m_ED5, szTmp, MAX_PATH, szFileName);

  00691	8d 85 ec fe ff
	ff		 lea	 eax, DWORD PTR _szTmp$[ebp]
  00697	57		 push	 edi
  00698	68 04 01 00 00	 push	 260			; 00000104H
  0069d	50		 push	 eax
  0069e	8b 86 8c 00 00
	00		 mov	 eax, DWORD PTR [esi+140]
  006a4	ff 70 58	 push	 DWORD PTR [eax+88]
  006a7	ff b5 e8 fe ff
	ff		 push	 DWORD PTR _szKey$[ebp]
  006ad	68 00 00 00 00	 push	 OFFSET ??_C@_08DIPLEMAP@RunSetup@
  006b2	ff 15 00 00 00
	00		 call	 DWORD PTR __imp__GetPrivateProfileStringA@24

; 880  : 		m_ED5 = szTmp;

  006b8	8d 85 ec fe ff
	ff		 lea	 eax, DWORD PTR _szTmp$[ebp]
  006be	50		 push	 eax
  006bf	8d 4e 58	 lea	 ecx, DWORD PTR [esi+88]
  006c2	ff 15 00 00 00
	00		 call	 DWORD PTR __imp_??4?$CStringT@DV?$StrTraitMFC_DLL@DV?$ChTraitsCRT@D@ATL@@@@@ATL@@QAEAAV01@PBD@Z

; 881  : 
; 882  : 		//  : P
; 883  : 		szKey.Format("%s", "P5");

  006c8	68 00 00 00 00	 push	 OFFSET ??_C@_02MODDMKOL@P5@
  006cd	8d 85 e8 fe ff
	ff		 lea	 eax, DWORD PTR _szKey$[ebp]
  006d3	68 00 00 00 00	 push	 OFFSET ??_C@_02DKCKIIND@?$CFs@
  006d8	50		 push	 eax
  006d9	ff d3		 call	 ebx

; 884  : 		m_P5 = GetPrivateProfileInt(STCONFIG_CLEAR, szKey, m_pDefInfo->m_P5, szFileName);

  006db	8b 86 8c 00 00
	00		 mov	 eax, DWORD PTR [esi+140]
  006e1	83 c4 0c	 add	 esp, 12			; 0000000cH
  006e4	57		 push	 edi
  006e5	ff 70 5c	 push	 DWORD PTR [eax+92]
  006e8	ff b5 e8 fe ff
	ff		 push	 DWORD PTR _szKey$[ebp]
  006ee	68 00 00 00 00	 push	 OFFSET ??_C@_08DIPLEMAP@RunSetup@
  006f3	ff 15 00 00 00
	00		 call	 DWORD PTR __imp__GetPrivateProfileIntA@16
  006f9	89 46 5c	 mov	 DWORD PTR [esi+92], eax

; 885  : 		if(m_P5 < 0 ) m_P5 = 0;

  006fc	85 c0		 test	 eax, eax
  006fe	79 07		 jns	 SHORT $LN14@LoadInfo
  00700	c7 46 5c 00 00
	00 00		 mov	 DWORD PTR [esi+92], 0
$LN14@LoadInfo:

; 886  : 
; 887  : 		//  : S
; 888  : 
; 889  : 		// 
; 890  : 		szKey.Format("%s", "Bong");

  00707	68 00 00 00 00	 push	 OFFSET ??_C@_04BAFOPPNE@Bong@
  0070c	8d 85 e8 fe ff
	ff		 lea	 eax, DWORD PTR _szKey$[ebp]
  00712	68 00 00 00 00	 push	 OFFSET ??_C@_02DKCKIIND@?$CFs@
  00717	50		 push	 eax
  00718	ff d3		 call	 ebx
  0071a	83 c4 0c	 add	 esp, 12			; 0000000cH

; 891  : 		GetPrivateProfileString(STCONFIG_CLEAR, szKey, m_pDefInfo->m_Bong, szTmp, MAX_PATH, szFileName);

  0071d	8d 85 ec fe ff
	ff		 lea	 eax, DWORD PTR _szTmp$[ebp]
  00723	57		 push	 edi
  00724	68 04 01 00 00	 push	 260			; 00000104H
  00729	50		 push	 eax
  0072a	8b 86 8c 00 00
	00		 mov	 eax, DWORD PTR [esi+140]
  00730	ff 70 60	 push	 DWORD PTR [eax+96]
  00733	ff b5 e8 fe ff
	ff		 push	 DWORD PTR _szKey$[ebp]
  00739	68 00 00 00 00	 push	 OFFSET ??_C@_08DIPLEMAP@RunSetup@
  0073e	ff 15 00 00 00
	00		 call	 DWORD PTR __imp__GetPrivateProfileStringA@24

; 892  : 		m_Bong = szTmp;

  00744	8d 85 ec fe ff
	ff		 lea	 eax, DWORD PTR _szTmp$[ebp]
  0074a	50		 push	 eax
  0074b	8d 4e 60	 lea	 ecx, DWORD PTR [esi+96]
  0074e	ff 15 00 00 00
	00		 call	 DWORD PTR __imp_??4?$CStringT@DV?$StrTraitMFC_DLL@DV?$ChTraitsCRT@D@ATL@@@@@ATL@@QAEAAV01@PBD@Z

; 893  : 
; 894  : 
; 895  : 		//----------- 6 --------------------------
; 896  : 		// 
; 897  : 		szKey.Format("%s", "Chk6");

  00754	68 00 00 00 00	 push	 OFFSET ??_C@_04BFICEACD@Chk6@
  00759	8d 85 e8 fe ff
	ff		 lea	 eax, DWORD PTR _szKey$[ebp]
  0075f	68 00 00 00 00	 push	 OFFSET ??_C@_02DKCKIIND@?$CFs@
  00764	50		 push	 eax
  00765	ff d3		 call	 ebx
  00767	83 c4 0c	 add	 esp, 12			; 0000000cH

; 898  : 		GetPrivateProfileString(STCONFIG_CLEAR, szKey, m_pDefInfo->m_Chk6, szTmp, MAX_PATH, szFileName);

  0076a	8d 85 ec fe ff
	ff		 lea	 eax, DWORD PTR _szTmp$[ebp]
  00770	57		 push	 edi
  00771	68 04 01 00 00	 push	 260			; 00000104H
  00776	50		 push	 eax
  00777	8b 86 8c 00 00
	00		 mov	 eax, DWORD PTR [esi+140]
  0077d	ff 70 64	 push	 DWORD PTR [eax+100]
  00780	ff b5 e8 fe ff
	ff		 push	 DWORD PTR _szKey$[ebp]
  00786	68 00 00 00 00	 push	 OFFSET ??_C@_08DIPLEMAP@RunSetup@
  0078b	ff 15 00 00 00
	00		 call	 DWORD PTR __imp__GetPrivateProfileStringA@24

; 899  : 		m_Chk6 = szTmp;

  00791	8d 85 ec fe ff
	ff		 lea	 eax, DWORD PTR _szTmp$[ebp]
  00797	50		 push	 eax
  00798	8d 4e 64	 lea	 ecx, DWORD PTR [esi+100]
  0079b	ff 15 00 00 00
	00		 call	 DWORD PTR __imp_??4?$CStringT@DV?$StrTraitMFC_DLL@DV?$ChTraitsCRT@D@ATL@@@@@ATL@@QAEAAV01@PBD@Z

; 900  : 
; 901  : 
; 902  : 		// /
; 903  : 		szKey.Format("%s", "TimeA");

  007a1	68 00 00 00 00	 push	 OFFSET ??_C@_05CDDCFJNA@TimeA@
  007a6	8d 85 e8 fe ff
	ff		 lea	 eax, DWORD PTR _szKey$[ebp]
  007ac	68 00 00 00 00	 push	 OFFSET ??_C@_02DKCKIIND@?$CFs@
  007b1	50		 push	 eax
  007b2	ff d3		 call	 ebx

; 904  : 		m_TimeA = GetPrivateProfileInt(STCONFIG_CLEAR, szKey, m_pDefInfo->m_TimeA, szFileName);

  007b4	8b 86 8c 00 00
	00		 mov	 eax, DWORD PTR [esi+140]
  007ba	83 c4 0c	 add	 esp, 12			; 0000000cH
  007bd	57		 push	 edi
  007be	ff 70 68	 push	 DWORD PTR [eax+104]
  007c1	ff b5 e8 fe ff
	ff		 push	 DWORD PTR _szKey$[ebp]
  007c7	68 00 00 00 00	 push	 OFFSET ??_C@_08DIPLEMAP@RunSetup@
  007cc	ff 15 00 00 00
	00		 call	 DWORD PTR __imp__GetPrivateProfileIntA@16
  007d2	89 46 68	 mov	 DWORD PTR [esi+104], eax

; 905  : 		if(m_TimeA < 0 ) m_TimeA = 1;

  007d5	85 c0		 test	 eax, eax
  007d7	79 07		 jns	 SHORT $LN15@LoadInfo
  007d9	c7 46 68 01 00
	00 00		 mov	 DWORD PTR [esi+104], 1
$LN15@LoadInfo:

; 906  : 
; 907  : 		// 
; 908  : 		szKey.Format("%s", "ED_Time");

  007e0	68 00 00 00 00	 push	 OFFSET ??_C@_07GFAEBBEE@ED_Time@
  007e5	8d 85 e8 fe ff
	ff		 lea	 eax, DWORD PTR _szKey$[ebp]
  007eb	68 00 00 00 00	 push	 OFFSET ??_C@_02DKCKIIND@?$CFs@
  007f0	50		 push	 eax
  007f1	ff d3		 call	 ebx
  007f3	83 c4 0c	 add	 esp, 12			; 0000000cH

; 909  : 		GetPrivateProfileString(STCONFIG_CLEAR, szKey, m_pDefInfo->m_ED_Time, szTmp, MAX_PATH, szFileName);

  007f6	8d 85 ec fe ff
	ff		 lea	 eax, DWORD PTR _szTmp$[ebp]
  007fc	57		 push	 edi
  007fd	68 04 01 00 00	 push	 260			; 00000104H
  00802	50		 push	 eax
  00803	8b 86 8c 00 00
	00		 mov	 eax, DWORD PTR [esi+140]
  00809	ff 70 6c	 push	 DWORD PTR [eax+108]
  0080c	ff b5 e8 fe ff
	ff		 push	 DWORD PTR _szKey$[ebp]
  00812	68 00 00 00 00	 push	 OFFSET ??_C@_08DIPLEMAP@RunSetup@
  00817	ff 15 00 00 00
	00		 call	 DWORD PTR __imp__GetPrivateProfileStringA@24

; 910  : 		m_ED_Time = szTmp;

  0081d	8d 85 ec fe ff
	ff		 lea	 eax, DWORD PTR _szTmp$[ebp]
  00823	50		 push	 eax
  00824	8d 4e 6c	 lea	 ecx, DWORD PTR [esi+108]
  00827	ff 15 00 00 00
	00		 call	 DWORD PTR __imp_??4?$CStringT@DV?$StrTraitMFC_DLL@DV?$ChTraitsCRT@D@ATL@@@@@ATL@@QAEAAV01@PBD@Z

; 911  : 
; 912  : 		//----------- 7 --------------------------
; 913  : 		//  
; 914  : 		szKey.Format("%s", "Chk7");

  0082d	68 00 00 00 00	 push	 OFFSET ??_C@_04MJJHBGC@Chk7@
  00832	8d 85 e8 fe ff
	ff		 lea	 eax, DWORD PTR _szKey$[ebp]
  00838	68 00 00 00 00	 push	 OFFSET ??_C@_02DKCKIIND@?$CFs@
  0083d	50		 push	 eax
  0083e	ff d3		 call	 ebx
  00840	83 c4 0c	 add	 esp, 12			; 0000000cH

; 915  : 		GetPrivateProfileString(STCONFIG_CLEAR, szKey, m_pDefInfo->m_Chk7, szTmp, MAX_PATH, szFileName);

  00843	8d 85 ec fe ff
	ff		 lea	 eax, DWORD PTR _szTmp$[ebp]
  00849	57		 push	 edi
  0084a	68 04 01 00 00	 push	 260			; 00000104H
  0084f	50		 push	 eax
  00850	8b 86 8c 00 00
	00		 mov	 eax, DWORD PTR [esi+140]
  00856	ff 70 70	 push	 DWORD PTR [eax+112]
  00859	ff b5 e8 fe ff
	ff		 push	 DWORD PTR _szKey$[ebp]
  0085f	68 00 00 00 00	 push	 OFFSET ??_C@_08DIPLEMAP@RunSetup@
  00864	ff 15 00 00 00
	00		 call	 DWORD PTR __imp__GetPrivateProfileStringA@24

; 916  : 		m_Chk7 = szTmp;

  0086a	8d 85 ec fe ff
	ff		 lea	 eax, DWORD PTR _szTmp$[ebp]
  00870	50		 push	 eax
  00871	8d 4e 70	 lea	 ecx, DWORD PTR [esi+112]
  00874	ff 15 00 00 00
	00		 call	 DWORD PTR __imp_??4?$CStringT@DV?$StrTraitMFC_DLL@DV?$ChTraitsCRT@D@ATL@@@@@ATL@@QAEAAV01@PBD@Z

; 917  : 
; 918  : 		szKey.Format("%s", "ED6");

  0087a	68 00 00 00 00	 push	 OFFSET ??_C@_03IMPODMIF@ED6@
  0087f	8d 85 e8 fe ff
	ff		 lea	 eax, DWORD PTR _szKey$[ebp]
  00885	68 00 00 00 00	 push	 OFFSET ??_C@_02DKCKIIND@?$CFs@
  0088a	50		 push	 eax
  0088b	ff d3		 call	 ebx
  0088d	83 c4 0c	 add	 esp, 12			; 0000000cH

; 919  : 		GetPrivateProfileString(STCONFIG_CLEAR, szKey, m_pDefInfo->m_ED6, szTmp, MAX_PATH, szFileName);

  00890	8d 85 ec fe ff
	ff		 lea	 eax, DWORD PTR _szTmp$[ebp]
  00896	57		 push	 edi
  00897	68 04 01 00 00	 push	 260			; 00000104H
  0089c	50		 push	 eax
  0089d	8b 86 8c 00 00
	00		 mov	 eax, DWORD PTR [esi+140]
  008a3	ff 70 74	 push	 DWORD PTR [eax+116]
  008a6	ff b5 e8 fe ff
	ff		 push	 DWORD PTR _szKey$[ebp]
  008ac	68 00 00 00 00	 push	 OFFSET ??_C@_08DIPLEMAP@RunSetup@
  008b1	ff 15 00 00 00
	00		 call	 DWORD PTR __imp__GetPrivateProfileStringA@24

; 920  : 		m_ED6 = szTmp;

  008b7	8d 85 ec fe ff
	ff		 lea	 eax, DWORD PTR _szTmp$[ebp]
  008bd	50		 push	 eax
  008be	8d 4e 74	 lea	 ecx, DWORD PTR [esi+116]
  008c1	ff 15 00 00 00
	00		 call	 DWORD PTR __imp_??4?$CStringT@DV?$StrTraitMFC_DLL@DV?$ChTraitsCRT@D@ATL@@@@@ATL@@QAEAAV01@PBD@Z

; 921  : 
; 922  : 		szKey.Format("%s", "ED7");

  008c7	68 00 00 00 00	 push	 OFFSET ??_C@_03JFOFANME@ED7@
  008cc	8d 85 e8 fe ff
	ff		 lea	 eax, DWORD PTR _szKey$[ebp]
  008d2	68 00 00 00 00	 push	 OFFSET ??_C@_02DKCKIIND@?$CFs@
  008d7	50		 push	 eax
  008d8	ff d3		 call	 ebx
  008da	83 c4 0c	 add	 esp, 12			; 0000000cH

; 923  : 		GetPrivateProfileString(STCONFIG_CLEAR, szKey, m_pDefInfo->m_ED7, szTmp, MAX_PATH, szFileName);

  008dd	8d 85 ec fe ff
	ff		 lea	 eax, DWORD PTR _szTmp$[ebp]
  008e3	57		 push	 edi
  008e4	68 04 01 00 00	 push	 260			; 00000104H
  008e9	50		 push	 eax
  008ea	8b 86 8c 00 00
	00		 mov	 eax, DWORD PTR [esi+140]
  008f0	ff 70 78	 push	 DWORD PTR [eax+120]
  008f3	ff b5 e8 fe ff
	ff		 push	 DWORD PTR _szKey$[ebp]
  008f9	68 00 00 00 00	 push	 OFFSET ??_C@_08DIPLEMAP@RunSetup@
  008fe	ff 15 00 00 00
	00		 call	 DWORD PTR __imp__GetPrivateProfileStringA@24

; 924  : 		m_ED7 = szTmp;

  00904	8d 85 ec fe ff
	ff		 lea	 eax, DWORD PTR _szTmp$[ebp]
  0090a	50		 push	 eax
  0090b	8d 4e 78	 lea	 ecx, DWORD PTR [esi+120]
  0090e	ff 15 00 00 00
	00		 call	 DWORD PTR __imp_??4?$CStringT@DV?$StrTraitMFC_DLL@DV?$ChTraitsCRT@D@ATL@@@@@ATL@@QAEAAV01@PBD@Z

; 925  : 
; 926  : 		//   : P
; 927  : 		szKey.Format("%s", "P6");

  00914	68 00 00 00 00	 push	 OFFSET ??_C@_02OFBOJJCI@P6@
  00919	8d 85 e8 fe ff
	ff		 lea	 eax, DWORD PTR _szKey$[ebp]
  0091f	68 00 00 00 00	 push	 OFFSET ??_C@_02DKCKIIND@?$CFs@
  00924	50		 push	 eax
  00925	ff d3		 call	 ebx

; 928  : 		m_P6 = GetPrivateProfileInt(STCONFIG_CLEAR, szKey, m_pDefInfo->m_P6, szFileName);

  00927	8b 86 8c 00 00
	00		 mov	 eax, DWORD PTR [esi+140]
  0092d	83 c4 0c	 add	 esp, 12			; 0000000cH
  00930	57		 push	 edi
  00931	ff 70 7c	 push	 DWORD PTR [eax+124]
  00934	ff b5 e8 fe ff
	ff		 push	 DWORD PTR _szKey$[ebp]
  0093a	68 00 00 00 00	 push	 OFFSET ??_C@_08DIPLEMAP@RunSetup@
  0093f	ff 15 00 00 00
	00		 call	 DWORD PTR __imp__GetPrivateProfileIntA@16
  00945	89 46 7c	 mov	 DWORD PTR [esi+124], eax

; 929  : 		if(m_P6 < 0 ) m_P6 = 0;

  00948	85 c0		 test	 eax, eax
  0094a	79 07		 jns	 SHORT $LN16@LoadInfo
  0094c	c7 46 7c 00 00
	00 00		 mov	 DWORD PTR [esi+124], 0
$LN16@LoadInfo:

; 930  : 
; 931  : 		//   : P
; 932  : 		szKey.Format("%s", "P7");

  00953	68 00 00 00 00	 push	 OFFSET ??_C@_02PMAFKIGJ@P7@
  00958	8d 85 e8 fe ff
	ff		 lea	 eax, DWORD PTR _szKey$[ebp]
  0095e	68 00 00 00 00	 push	 OFFSET ??_C@_02DKCKIIND@?$CFs@
  00963	50		 push	 eax
  00964	ff d3		 call	 ebx

; 933  : 		m_P7 = GetPrivateProfileInt(STCONFIG_CLEAR, szKey, m_pDefInfo->m_P7, szFileName);

  00966	8b 86 8c 00 00
	00		 mov	 eax, DWORD PTR [esi+140]
  0096c	83 c4 0c	 add	 esp, 12			; 0000000cH
  0096f	57		 push	 edi
  00970	ff b0 80 00 00
	00		 push	 DWORD PTR [eax+128]
  00976	ff b5 e8 fe ff
	ff		 push	 DWORD PTR _szKey$[ebp]
  0097c	68 00 00 00 00	 push	 OFFSET ??_C@_08DIPLEMAP@RunSetup@
  00981	ff 15 00 00 00
	00		 call	 DWORD PTR __imp__GetPrivateProfileIntA@16
  00987	89 86 80 00 00
	00		 mov	 DWORD PTR [esi+128], eax

; 934  : 		if(m_P7 < 0 ) m_P7 = 0;

  0098d	85 c0		 test	 eax, eax
  0098f	79 0a		 jns	 SHORT $LN17@LoadInfo
  00991	c7 86 80 00 00
	00 00 00 00 00	 mov	 DWORD PTR [esi+128], 0
$LN17@LoadInfo:

; 935  : 
; 936  : 		//   : S
; 937  : 		szKey.Format("%s", "S5");

  0099b	68 00 00 00 00	 push	 OFFSET ??_C@_02MMHFHELC@S5@
  009a0	8d 85 e8 fe ff
	ff		 lea	 eax, DWORD PTR _szKey$[ebp]
  009a6	68 00 00 00 00	 push	 OFFSET ??_C@_02DKCKIIND@?$CFs@
  009ab	50		 push	 eax
  009ac	ff d3		 call	 ebx

; 938  : 		m_S5 = GetPrivateProfileInt(STCONFIG_CLEAR, szKey, m_pDefInfo->m_S5, szFileName);

  009ae	8b 86 8c 00 00
	00		 mov	 eax, DWORD PTR [esi+140]
  009b4	83 c4 0c	 add	 esp, 12			; 0000000cH
  009b7	57		 push	 edi
  009b8	ff b0 84 00 00
	00		 push	 DWORD PTR [eax+132]
  009be	ff b5 e8 fe ff
	ff		 push	 DWORD PTR _szKey$[ebp]
  009c4	68 00 00 00 00	 push	 OFFSET ??_C@_08DIPLEMAP@RunSetup@
  009c9	ff 15 00 00 00
	00		 call	 DWORD PTR __imp__GetPrivateProfileIntA@16
  009cf	89 86 84 00 00
	00		 mov	 DWORD PTR [esi+132], eax

; 939  : 		if(m_S5 < 0 ) m_S5 = 0;

  009d5	85 c0		 test	 eax, eax
  009d7	79 0a		 jns	 SHORT $LN18@LoadInfo
  009d9	c7 86 84 00 00
	00 00 00 00 00	 mov	 DWORD PTR [esi+132], 0
$LN18@LoadInfo:

; 940  : 
; 941  : 		//   : C
; 942  : 		szKey.Format("CLR_%s", "5");

  009e3	68 00 00 00 00	 push	 OFFSET ??_C@_01BMBHCPLG@5@
  009e8	8d 85 e8 fe ff
	ff		 lea	 eax, DWORD PTR _szKey$[ebp]
  009ee	68 00 00 00 00	 push	 OFFSET ??_C@_06IEMDKIBD@CLR_?$CFs@
  009f3	50		 push	 eax
  009f4	ff d3		 call	 ebx
  009f6	83 c4 0c	 add	 esp, 12			; 0000000cH

; 943  : 		GetPrivateProfileString(STCONFIG_CLEAR, szKey, m_pDefInfo->m_CLR_5, szTmp, MAX_PATH, szFileName);

  009f9	8d 85 ec fe ff
	ff		 lea	 eax, DWORD PTR _szTmp$[ebp]
  009ff	57		 push	 edi
  00a00	68 04 01 00 00	 push	 260			; 00000104H
  00a05	50		 push	 eax
  00a06	8b 86 8c 00 00
	00		 mov	 eax, DWORD PTR [esi+140]
  00a0c	ff b0 88 00 00
	00		 push	 DWORD PTR [eax+136]

; 944  : 		m_CLR_5 = szTmp;
; 945  : 	}

  00a12	e9 ea 08 00 00	 jmp	 $LN219@LoadInfo
$LN2@LoadInfo:

; 946  : 	else
; 947  : 	{
; 948  : 		//  
; 949  : 		szKey.Format("%s", "ClearPoint");

  00a17	ff d3		 call	 ebx
  00a19	83 c4 0c	 add	 esp, 12			; 0000000cH

; 950  : 		m_ClearPoint = ::GetPrivateProfileInt(STCONFIG_CLEAR, szKey, 0, szFileName);

  00a1c	57		 push	 edi
  00a1d	6a 00		 push	 0
  00a1f	ff b5 e8 fe ff
	ff		 push	 DWORD PTR _szKey$[ebp]
  00a25	68 00 00 00 00	 push	 OFFSET ??_C@_08DIPLEMAP@RunSetup@
  00a2a	ff 15 00 00 00
	00		 call	 DWORD PTR __imp__GetPrivateProfileIntA@16
  00a30	89 06		 mov	 DWORD PTR [esi], eax

; 951  : 		if(m_ClearPoint<0 || m_ClearPoint>1) m_ClearPoint=0;

  00a32	85 c0		 test	 eax, eax
  00a34	78 05		 js	 SHORT $LN20@LoadInfo
  00a36	83 f8 01	 cmp	 eax, 1
  00a39	7e 06		 jle	 SHORT $LN19@LoadInfo
$LN20@LoadInfo:
  00a3b	c7 06 00 00 00
	00		 mov	 DWORD PTR [esi], 0
$LN19@LoadInfo:

; 952  : 
; 953  : 		//-------- 1 -----------------------------
; 954  : 		// ()
; 955  : 		szKey.Format("%s", "Chk1");

  00a41	68 00 00 00 00	 push	 OFFSET ??_C@_04FKMDNGOE@Chk1@
  00a46	8d 85 e8 fe ff
	ff		 lea	 eax, DWORD PTR _szKey$[ebp]
  00a4c	68 00 00 00 00	 push	 OFFSET ??_C@_02DKCKIIND@?$CFs@
  00a51	50		 push	 eax
  00a52	ff d3		 call	 ebx
  00a54	83 c4 0c	 add	 esp, 12			; 0000000cH

; 956  : 		GetPrivateProfileString(STCONFIG_CLEAR, szKey, "", szTmp, MAX_PATH, szFileName);

  00a57	8d 85 ec fe ff
	ff		 lea	 eax, DWORD PTR _szTmp$[ebp]
  00a5d	57		 push	 edi
  00a5e	68 04 01 00 00	 push	 260			; 00000104H
  00a63	50		 push	 eax
  00a64	68 00 00 00 00	 push	 OFFSET ??_C@_00CNPNBAHC@@
  00a69	ff b5 e8 fe ff
	ff		 push	 DWORD PTR _szKey$[ebp]
  00a6f	68 00 00 00 00	 push	 OFFSET ??_C@_08DIPLEMAP@RunSetup@
  00a74	ff 15 00 00 00
	00		 call	 DWORD PTR __imp__GetPrivateProfileStringA@24

; 957  : 		m_Chk1 = szTmp;

  00a7a	8d 85 ec fe ff
	ff		 lea	 eax, DWORD PTR _szTmp$[ebp]
  00a80	50		 push	 eax
  00a81	8d 4e 04	 lea	 ecx, DWORD PTR [esi+4]
  00a84	ff 15 00 00 00
	00		 call	 DWORD PTR __imp_??4?$CStringT@DV?$StrTraitMFC_DLL@DV?$ChTraitsCRT@D@ATL@@@@@ATL@@QAEAAV01@PBD@Z

; 958  : 
; 959  : 		szKey.Format("%s", "ED1");	

  00a8a	68 00 00 00 00	 push	 OFFSET ??_C@_03MDLPKKEC@ED1@
  00a8f	8d 85 e8 fe ff
	ff		 lea	 eax, DWORD PTR _szKey$[ebp]
  00a95	68 00 00 00 00	 push	 OFFSET ??_C@_02DKCKIIND@?$CFs@
  00a9a	50		 push	 eax
  00a9b	ff d3		 call	 ebx
  00a9d	83 c4 0c	 add	 esp, 12			; 0000000cH

; 960  : 		GetPrivateProfileString(STCONFIG_CLEAR, szKey, "10", szTmp, MAX_PATH, szFileName);

  00aa0	8d 85 ec fe ff
	ff		 lea	 eax, DWORD PTR _szTmp$[ebp]
  00aa6	57		 push	 edi
  00aa7	68 04 01 00 00	 push	 260			; 00000104H
  00aac	50		 push	 eax
  00aad	68 00 00 00 00	 push	 OFFSET ??_C@_02PKFBJPLJ@10@
  00ab2	ff b5 e8 fe ff
	ff		 push	 DWORD PTR _szKey$[ebp]
  00ab8	68 00 00 00 00	 push	 OFFSET ??_C@_08DIPLEMAP@RunSetup@
  00abd	ff 15 00 00 00
	00		 call	 DWORD PTR __imp__GetPrivateProfileStringA@24

; 961  : 		m_ED1 = szTmp;

  00ac3	8d 85 ec fe ff
	ff		 lea	 eax, DWORD PTR _szTmp$[ebp]
  00ac9	50		 push	 eax
  00aca	8d 4e 08	 lea	 ecx, DWORD PTR [esi+8]
  00acd	ff 15 00 00 00
	00		 call	 DWORD PTR __imp_??4?$CStringT@DV?$StrTraitMFC_DLL@DV?$ChTraitsCRT@D@ATL@@@@@ATL@@QAEAAV01@PBD@Z

; 962  : 
; 963  : 		// () : P
; 964  : 		szKey.Format("%s", "P1");

  00ad3	68 00 00 00 00	 push	 OFFSET ??_C@_02KKFPAPOP@P1@
  00ad8	8d 85 e8 fe ff
	ff		 lea	 eax, DWORD PTR _szKey$[ebp]
  00ade	68 00 00 00 00	 push	 OFFSET ??_C@_02DKCKIIND@?$CFs@
  00ae3	50		 push	 eax
  00ae4	ff d3		 call	 ebx
  00ae6	83 c4 0c	 add	 esp, 12			; 0000000cH

; 965  : 		m_P1 = GetPrivateProfileInt(STCONFIG_CLEAR, szKey, 0, szFileName);

  00ae9	57		 push	 edi
  00aea	6a 00		 push	 0
  00aec	ff b5 e8 fe ff
	ff		 push	 DWORD PTR _szKey$[ebp]
  00af2	68 00 00 00 00	 push	 OFFSET ??_C@_08DIPLEMAP@RunSetup@
  00af7	ff 15 00 00 00
	00		 call	 DWORD PTR __imp__GetPrivateProfileIntA@16
  00afd	89 46 0c	 mov	 DWORD PTR [esi+12], eax

; 966  : 		if(m_P1 < 0 ) m_P1 = 0;

  00b00	85 c0		 test	 eax, eax
  00b02	79 07		 jns	 SHORT $LN21@LoadInfo
  00b04	c7 46 0c 00 00
	00 00		 mov	 DWORD PTR [esi+12], 0
$LN21@LoadInfo:

; 967  : 
; 968  : 		// () : S
; 969  : 		szKey.Format("%s", "S1");

  00b0b	68 00 00 00 00	 push	 OFFSET ??_C@_02KIBJLBLG@S1@
  00b10	8d 85 e8 fe ff
	ff		 lea	 eax, DWORD PTR _szKey$[ebp]
  00b16	68 00 00 00 00	 push	 OFFSET ??_C@_02DKCKIIND@?$CFs@
  00b1b	50		 push	 eax
  00b1c	ff d3		 call	 ebx
  00b1e	83 c4 0c	 add	 esp, 12			; 0000000cH

; 970  : 		m_S1 = GetPrivateProfileInt(STCONFIG_CLEAR, szKey, 0, szFileName);

  00b21	57		 push	 edi
  00b22	6a 00		 push	 0
  00b24	ff b5 e8 fe ff
	ff		 push	 DWORD PTR _szKey$[ebp]
  00b2a	68 00 00 00 00	 push	 OFFSET ??_C@_08DIPLEMAP@RunSetup@
  00b2f	ff 15 00 00 00
	00		 call	 DWORD PTR __imp__GetPrivateProfileIntA@16
  00b35	89 46 10	 mov	 DWORD PTR [esi+16], eax

; 971  : 		if(m_S1 < 0 ) m_S1 = 0;

  00b38	85 c0		 test	 eax, eax
  00b3a	79 07		 jns	 SHORT $LN22@LoadInfo
  00b3c	c7 46 10 00 00
	00 00		 mov	 DWORD PTR [esi+16], 0
$LN22@LoadInfo:

; 972  : 
; 973  : 		// () : C
; 974  : 		szKey.Format("CLR_%s", "1");

  00b43	68 00 00 00 00	 push	 OFFSET ??_C@_01HIHLOKLC@1@
  00b48	8d 85 e8 fe ff
	ff		 lea	 eax, DWORD PTR _szKey$[ebp]
  00b4e	68 00 00 00 00	 push	 OFFSET ??_C@_06IEMDKIBD@CLR_?$CFs@
  00b53	50		 push	 eax
  00b54	ff d3		 call	 ebx
  00b56	83 c4 0c	 add	 esp, 12			; 0000000cH

; 975  : 		GetPrivateProfileString(STCONFIG_CLEAR, szKey, "16711680", szTmp, MAX_PATH, szFileName);

  00b59	8d 85 ec fe ff
	ff		 lea	 eax, DWORD PTR _szTmp$[ebp]
  00b5f	57		 push	 edi
  00b60	68 04 01 00 00	 push	 260			; 00000104H
  00b65	50		 push	 eax
  00b66	68 00 00 00 00	 push	 OFFSET ??_C@_08HNMDJOHO@16711680@
  00b6b	ff b5 e8 fe ff
	ff		 push	 DWORD PTR _szKey$[ebp]
  00b71	68 00 00 00 00	 push	 OFFSET ??_C@_08DIPLEMAP@RunSetup@
  00b76	ff 15 00 00 00
	00		 call	 DWORD PTR __imp__GetPrivateProfileStringA@24

; 976  : 		m_CLR_1 = szTmp;

  00b7c	8d 85 ec fe ff
	ff		 lea	 eax, DWORD PTR _szTmp$[ebp]
  00b82	50		 push	 eax
  00b83	8d 4e 14	 lea	 ecx, DWORD PTR [esi+20]
  00b86	ff 15 00 00 00
	00		 call	 DWORD PTR __imp_??4?$CStringT@DV?$StrTraitMFC_DLL@DV?$ChTraitsCRT@D@ATL@@@@@ATL@@QAEAAV01@PBD@Z

; 977  : 
; 978  : 		//------- 2 ------------------------------
; 979  : 		// 	
; 980  : 		szKey.Format("%s", "Chk2");

  00b8c	68 00 00 00 00	 push	 OFFSET ??_C@_04HBOOIFCH@Chk2@
  00b91	8d 85 e8 fe ff
	ff		 lea	 eax, DWORD PTR _szKey$[ebp]
  00b97	68 00 00 00 00	 push	 OFFSET ??_C@_02DKCKIIND@?$CFs@
  00b9c	50		 push	 eax
  00b9d	ff d3		 call	 ebx
  00b9f	83 c4 0c	 add	 esp, 12			; 0000000cH

; 981  : 		GetPrivateProfileString(STCONFIG_CLEAR, szKey, "", szTmp, MAX_PATH, szFileName);

  00ba2	8d 85 ec fe ff
	ff		 lea	 eax, DWORD PTR _szTmp$[ebp]
  00ba8	57		 push	 edi
  00ba9	68 04 01 00 00	 push	 260			; 00000104H
  00bae	50		 push	 eax
  00baf	68 00 00 00 00	 push	 OFFSET ??_C@_00CNPNBAHC@@
  00bb4	ff b5 e8 fe ff
	ff		 push	 DWORD PTR _szKey$[ebp]
  00bba	68 00 00 00 00	 push	 OFFSET ??_C@_08DIPLEMAP@RunSetup@
  00bbf	ff 15 00 00 00
	00		 call	 DWORD PTR __imp__GetPrivateProfileStringA@24

; 982  : 		m_Chk2 = szTmp;

  00bc5	8d 85 ec fe ff
	ff		 lea	 eax, DWORD PTR _szTmp$[ebp]
  00bcb	50		 push	 eax
  00bcc	8d 4e 18	 lea	 ecx, DWORD PTR [esi+24]
  00bcf	ff 15 00 00 00
	00		 call	 DWORD PTR __imp_??4?$CStringT@DV?$StrTraitMFC_DLL@DV?$ChTraitsCRT@D@ATL@@@@@ATL@@QAEAAV01@PBD@Z

; 983  : 
; 984  : 		szKey.Format("%s", "ED2");

  00bd5	68 00 00 00 00	 push	 OFFSET ??_C@_03OIJCPJIB@ED2@
  00bda	8d 85 e8 fe ff
	ff		 lea	 eax, DWORD PTR _szKey$[ebp]
  00be0	68 00 00 00 00	 push	 OFFSET ??_C@_02DKCKIIND@?$CFs@
  00be5	50		 push	 eax
  00be6	ff d3		 call	 ebx
  00be8	83 c4 0c	 add	 esp, 12			; 0000000cH

; 985  : 		GetPrivateProfileString(STCONFIG_CLEAR, szKey, "20", szTmp, MAX_PATH, szFileName);

  00beb	8d 85 ec fe ff
	ff		 lea	 eax, DWORD PTR _szTmp$[ebp]
  00bf1	57		 push	 edi
  00bf2	68 04 01 00 00	 push	 260			; 00000104H
  00bf7	50		 push	 eax
  00bf8	68 00 00 00 00	 push	 OFFSET ??_C@_02PIBHCBOA@20@
  00bfd	ff b5 e8 fe ff
	ff		 push	 DWORD PTR _szKey$[ebp]
  00c03	68 00 00 00 00	 push	 OFFSET ??_C@_08DIPLEMAP@RunSetup@
  00c08	ff 15 00 00 00
	00		 call	 DWORD PTR __imp__GetPrivateProfileStringA@24

; 986  : 		m_ED2= szTmp;

  00c0e	8d 85 ec fe ff
	ff		 lea	 eax, DWORD PTR _szTmp$[ebp]
  00c14	50		 push	 eax
  00c15	8d 4e 1c	 lea	 ecx, DWORD PTR [esi+28]
  00c18	ff 15 00 00 00
	00		 call	 DWORD PTR __imp_??4?$CStringT@DV?$StrTraitMFC_DLL@DV?$ChTraitsCRT@D@ATL@@@@@ATL@@QAEAAV01@PBD@Z

; 987  : 
; 988  : 		//  : P
; 989  : 		szKey.Format("%s", "P2");

  00c1e	68 00 00 00 00	 push	 OFFSET ??_C@_02IBHCFMCM@P2@
  00c23	8d 85 e8 fe ff
	ff		 lea	 eax, DWORD PTR _szKey$[ebp]
  00c29	68 00 00 00 00	 push	 OFFSET ??_C@_02DKCKIIND@?$CFs@
  00c2e	50		 push	 eax
  00c2f	ff d3		 call	 ebx
  00c31	83 c4 0c	 add	 esp, 12			; 0000000cH

; 990  : 		m_P2 = GetPrivateProfileInt(STCONFIG_CLEAR, szKey, 0, szFileName);

  00c34	57		 push	 edi
  00c35	6a 00		 push	 0
  00c37	ff b5 e8 fe ff
	ff		 push	 DWORD PTR _szKey$[ebp]
  00c3d	68 00 00 00 00	 push	 OFFSET ??_C@_08DIPLEMAP@RunSetup@
  00c42	ff 15 00 00 00
	00		 call	 DWORD PTR __imp__GetPrivateProfileIntA@16
  00c48	89 46 20	 mov	 DWORD PTR [esi+32], eax

; 991  : 		if(m_P2 < 0 ) m_P2 = 0;

  00c4b	85 c0		 test	 eax, eax
  00c4d	79 07		 jns	 SHORT $LN23@LoadInfo
  00c4f	c7 46 20 00 00
	00 00		 mov	 DWORD PTR [esi+32], 0
$LN23@LoadInfo:

; 992  : 
; 993  : 		//  : S
; 994  : 		szKey.Format("%s", "S2");

  00c56	68 00 00 00 00	 push	 OFFSET ??_C@_02IDDEOCHF@S2@
  00c5b	8d 85 e8 fe ff
	ff		 lea	 eax, DWORD PTR _szKey$[ebp]
  00c61	68 00 00 00 00	 push	 OFFSET ??_C@_02DKCKIIND@?$CFs@
  00c66	50		 push	 eax
  00c67	ff d3		 call	 ebx
  00c69	83 c4 0c	 add	 esp, 12			; 0000000cH

; 995  : 		m_S2 = GetPrivateProfileInt(STCONFIG_CLEAR, szKey, 2, szFileName);

  00c6c	57		 push	 edi
  00c6d	6a 02		 push	 2
  00c6f	ff b5 e8 fe ff
	ff		 push	 DWORD PTR _szKey$[ebp]
  00c75	68 00 00 00 00	 push	 OFFSET ??_C@_08DIPLEMAP@RunSetup@
  00c7a	ff 15 00 00 00
	00		 call	 DWORD PTR __imp__GetPrivateProfileIntA@16
  00c80	89 46 24	 mov	 DWORD PTR [esi+36], eax

; 996  : 		if(m_S2 < 0 ) m_S2 = 0;

  00c83	85 c0		 test	 eax, eax
  00c85	79 07		 jns	 SHORT $LN24@LoadInfo
  00c87	c7 46 24 00 00
	00 00		 mov	 DWORD PTR [esi+36], 0
$LN24@LoadInfo:

; 997  : 
; 998  : 		//  : C
; 999  : 		szKey.Format("CLR_%s", "2");

  00c8e	68 00 00 00 00	 push	 OFFSET ??_C@_01FDFGLJHB@2@
  00c93	8d 85 e8 fe ff
	ff		 lea	 eax, DWORD PTR _szKey$[ebp]
  00c99	68 00 00 00 00	 push	 OFFSET ??_C@_06IEMDKIBD@CLR_?$CFs@
  00c9e	50		 push	 eax
  00c9f	ff d3		 call	 ebx
  00ca1	83 c4 0c	 add	 esp, 12			; 0000000cH

; 1000 : 		GetPrivateProfileString(STCONFIG_CLEAR, szKey, "16711680", szTmp, MAX_PATH, szFileName);

  00ca4	8d 85 ec fe ff
	ff		 lea	 eax, DWORD PTR _szTmp$[ebp]
  00caa	57		 push	 edi
  00cab	68 04 01 00 00	 push	 260			; 00000104H
  00cb0	50		 push	 eax
  00cb1	68 00 00 00 00	 push	 OFFSET ??_C@_08HNMDJOHO@16711680@
  00cb6	ff b5 e8 fe ff
	ff		 push	 DWORD PTR _szKey$[ebp]
  00cbc	68 00 00 00 00	 push	 OFFSET ??_C@_08DIPLEMAP@RunSetup@
  00cc1	ff 15 00 00 00
	00		 call	 DWORD PTR __imp__GetPrivateProfileStringA@24

; 1001 : 		m_CLR_2 = szTmp;

  00cc7	8d 85 ec fe ff
	ff		 lea	 eax, DWORD PTR _szTmp$[ebp]
  00ccd	50		 push	 eax
  00cce	8d 4e 28	 lea	 ecx, DWORD PTR [esi+40]
  00cd1	ff 15 00 00 00
	00		 call	 DWORD PTR __imp_??4?$CStringT@DV?$StrTraitMFC_DLL@DV?$ChTraitsCRT@D@ATL@@@@@ATL@@QAEAAV01@PBD@Z

; 1002 : 
; 1003 : 		//----------- 3 --------------------------
; 1004 : 		//  
; 1005 : 		szKey.Format("%s", "Chk3");

  00cd7	68 00 00 00 00	 push	 OFFSET ??_C@_04GIPFLEGG@Chk3@
  00cdc	8d 85 e8 fe ff
	ff		 lea	 eax, DWORD PTR _szKey$[ebp]
  00ce2	68 00 00 00 00	 push	 OFFSET ??_C@_02DKCKIIND@?$CFs@
  00ce7	50		 push	 eax
  00ce8	ff d3		 call	 ebx
  00cea	83 c4 0c	 add	 esp, 12			; 0000000cH

; 1006 : 		GetPrivateProfileString(STCONFIG_CLEAR, szKey, "", szTmp, MAX_PATH, szFileName);

  00ced	8d 85 ec fe ff
	ff		 lea	 eax, DWORD PTR _szTmp$[ebp]
  00cf3	57		 push	 edi
  00cf4	68 04 01 00 00	 push	 260			; 00000104H
  00cf9	50		 push	 eax
  00cfa	68 00 00 00 00	 push	 OFFSET ??_C@_00CNPNBAHC@@
  00cff	ff b5 e8 fe ff
	ff		 push	 DWORD PTR _szKey$[ebp]
  00d05	68 00 00 00 00	 push	 OFFSET ??_C@_08DIPLEMAP@RunSetup@
  00d0a	ff 15 00 00 00
	00		 call	 DWORD PTR __imp__GetPrivateProfileStringA@24

; 1007 : 		m_Chk3 = szTmp;

  00d10	8d 85 ec fe ff
	ff		 lea	 eax, DWORD PTR _szTmp$[ebp]
  00d16	50		 push	 eax
  00d17	8d 4e 2c	 lea	 ecx, DWORD PTR [esi+44]
  00d1a	ff 15 00 00 00
	00		 call	 DWORD PTR __imp_??4?$CStringT@DV?$StrTraitMFC_DLL@DV?$ChTraitsCRT@D@ATL@@@@@ATL@@QAEAAV01@PBD@Z

; 1008 : 
; 1009 : 		szKey.Format("%s", "ED3");

  00d20	68 00 00 00 00	 push	 OFFSET ??_C@_03PBIJMIMA@ED3@
  00d25	8d 85 e8 fe ff
	ff		 lea	 eax, DWORD PTR _szKey$[ebp]
  00d2b	68 00 00 00 00	 push	 OFFSET ??_C@_02DKCKIIND@?$CFs@
  00d30	50		 push	 eax
  00d31	ff d3		 call	 ebx
  00d33	83 c4 0c	 add	 esp, 12			; 0000000cH

; 1010 : 		GetPrivateProfileString(STCONFIG_CLEAR, szKey, "5", szTmp, MAX_PATH, szFileName);

  00d36	8d 85 ec fe ff
	ff		 lea	 eax, DWORD PTR _szTmp$[ebp]
  00d3c	57		 push	 edi
  00d3d	68 04 01 00 00	 push	 260			; 00000104H
  00d42	50		 push	 eax
  00d43	68 00 00 00 00	 push	 OFFSET ??_C@_01BMBHCPLG@5@
  00d48	ff b5 e8 fe ff
	ff		 push	 DWORD PTR _szKey$[ebp]
  00d4e	68 00 00 00 00	 push	 OFFSET ??_C@_08DIPLEMAP@RunSetup@
  00d53	ff 15 00 00 00
	00		 call	 DWORD PTR __imp__GetPrivateProfileStringA@24

; 1011 : 		m_ED3 = szTmp;

  00d59	8d 85 ec fe ff
	ff		 lea	 eax, DWORD PTR _szTmp$[ebp]
  00d5f	50		 push	 eax
  00d60	8d 4e 30	 lea	 ecx, DWORD PTR [esi+48]
  00d63	ff 15 00 00 00
	00		 call	 DWORD PTR __imp_??4?$CStringT@DV?$StrTraitMFC_DLL@DV?$ChTraitsCRT@D@ATL@@@@@ATL@@QAEAAV01@PBD@Z

; 1012 : 
; 1013 : 		//   : P
; 1014 : 		szKey.Format("%s", "P3");

  00d69	68 00 00 00 00	 push	 OFFSET ??_C@_02JIGJGNGN@P3@
  00d6e	8d 85 e8 fe ff
	ff		 lea	 eax, DWORD PTR _szKey$[ebp]
  00d74	68 00 00 00 00	 push	 OFFSET ??_C@_02DKCKIIND@?$CFs@
  00d79	50		 push	 eax
  00d7a	ff d3		 call	 ebx
  00d7c	83 c4 0c	 add	 esp, 12			; 0000000cH

; 1015 : 		m_P3 = GetPrivateProfileInt(STCONFIG_CLEAR, szKey, 0, szFileName);

  00d7f	57		 push	 edi
  00d80	6a 00		 push	 0
  00d82	ff b5 e8 fe ff
	ff		 push	 DWORD PTR _szKey$[ebp]
  00d88	68 00 00 00 00	 push	 OFFSET ??_C@_08DIPLEMAP@RunSetup@
  00d8d	ff 15 00 00 00
	00		 call	 DWORD PTR __imp__GetPrivateProfileIntA@16
  00d93	89 46 34	 mov	 DWORD PTR [esi+52], eax

; 1016 : 		if(m_P3 < 0 ) m_P3 = 0;

  00d96	85 c0		 test	 eax, eax
  00d98	79 07		 jns	 SHORT $LN25@LoadInfo
  00d9a	c7 46 34 00 00
	00 00		 mov	 DWORD PTR [esi+52], 0
$LN25@LoadInfo:

; 1017 : 
; 1018 : 		//   : S
; 1019 : 		szKey.Format("%s", "S3");

  00da1	68 00 00 00 00	 push	 OFFSET ??_C@_02JKCPNDDE@S3@
  00da6	8d 85 e8 fe ff
	ff		 lea	 eax, DWORD PTR _szKey$[ebp]
  00dac	68 00 00 00 00	 push	 OFFSET ??_C@_02DKCKIIND@?$CFs@
  00db1	50		 push	 eax
  00db2	ff d3		 call	 ebx
  00db4	83 c4 0c	 add	 esp, 12			; 0000000cH

; 1020 : 		m_S3 = GetPrivateProfileInt(STCONFIG_CLEAR, szKey, 4, szFileName);

  00db7	57		 push	 edi
  00db8	6a 04		 push	 4
  00dba	ff b5 e8 fe ff
	ff		 push	 DWORD PTR _szKey$[ebp]
  00dc0	68 00 00 00 00	 push	 OFFSET ??_C@_08DIPLEMAP@RunSetup@
  00dc5	ff 15 00 00 00
	00		 call	 DWORD PTR __imp__GetPrivateProfileIntA@16
  00dcb	89 46 38	 mov	 DWORD PTR [esi+56], eax

; 1021 : 		if(m_S3 < 0 ) m_S3 = 0;

  00dce	85 c0		 test	 eax, eax
  00dd0	79 07		 jns	 SHORT $LN26@LoadInfo
  00dd2	c7 46 38 00 00
	00 00		 mov	 DWORD PTR [esi+56], 0
$LN26@LoadInfo:

; 1022 : 
; 1023 : 		//   : C
; 1024 : 		szKey.Format("CLR_%s", "3");

  00dd9	68 00 00 00 00	 push	 OFFSET ??_C@_01EKENIIDA@3@
  00dde	8d 85 e8 fe ff
	ff		 lea	 eax, DWORD PTR _szKey$[ebp]
  00de4	68 00 00 00 00	 push	 OFFSET ??_C@_06IEMDKIBD@CLR_?$CFs@
  00de9	50		 push	 eax
  00dea	ff d3		 call	 ebx
  00dec	83 c4 0c	 add	 esp, 12			; 0000000cH

; 1025 : 		GetPrivateProfileString(STCONFIG_CLEAR, szKey, "16711680", szTmp, MAX_PATH, szFileName);

  00def	8d 85 ec fe ff
	ff		 lea	 eax, DWORD PTR _szTmp$[ebp]
  00df5	57		 push	 edi
  00df6	68 04 01 00 00	 push	 260			; 00000104H
  00dfb	50		 push	 eax
  00dfc	68 00 00 00 00	 push	 OFFSET ??_C@_08HNMDJOHO@16711680@
  00e01	ff b5 e8 fe ff
	ff		 push	 DWORD PTR _szKey$[ebp]
  00e07	68 00 00 00 00	 push	 OFFSET ??_C@_08DIPLEMAP@RunSetup@
  00e0c	ff 15 00 00 00
	00		 call	 DWORD PTR __imp__GetPrivateProfileStringA@24

; 1026 : 		m_CLR_3 = szTmp;

  00e12	8d 85 ec fe ff
	ff		 lea	 eax, DWORD PTR _szTmp$[ebp]
  00e18	50		 push	 eax
  00e19	8d 4e 3c	 lea	 ecx, DWORD PTR [esi+60]
  00e1c	ff 15 00 00 00
	00		 call	 DWORD PTR __imp_??4?$CStringT@DV?$StrTraitMFC_DLL@DV?$ChTraitsCRT@D@ATL@@@@@ATL@@QAEAAV01@PBD@Z

; 1027 : 
; 1028 : 		//----------- 4 --------------------------
; 1029 : 		//  
; 1030 : 		szKey.Format("%s", "Chk4");

  00e22	68 00 00 00 00	 push	 OFFSET ??_C@_04CHLECCKB@Chk4@
  00e27	8d 85 e8 fe ff
	ff		 lea	 eax, DWORD PTR _szKey$[ebp]
  00e2d	68 00 00 00 00	 push	 OFFSET ??_C@_02DKCKIIND@?$CFs@
  00e32	50		 push	 eax
  00e33	ff d3		 call	 ebx
  00e35	83 c4 0c	 add	 esp, 12			; 0000000cH

; 1031 : 		GetPrivateProfileString(STCONFIG_CLEAR, szKey, "", szTmp, MAX_PATH, szFileName);

  00e38	8d 85 ec fe ff
	ff		 lea	 eax, DWORD PTR _szTmp$[ebp]
  00e3e	57		 push	 edi
  00e3f	68 04 01 00 00	 push	 260			; 00000104H
  00e44	50		 push	 eax
  00e45	68 00 00 00 00	 push	 OFFSET ??_C@_00CNPNBAHC@@
  00e4a	ff b5 e8 fe ff
	ff		 push	 DWORD PTR _szKey$[ebp]
  00e50	68 00 00 00 00	 push	 OFFSET ??_C@_08DIPLEMAP@RunSetup@
  00e55	ff 15 00 00 00
	00		 call	 DWORD PTR __imp__GetPrivateProfileStringA@24

; 1032 : 		m_Chk4 = szTmp;

  00e5b	8d 85 ec fe ff
	ff		 lea	 eax, DWORD PTR _szTmp$[ebp]
  00e61	50		 push	 eax
  00e62	8d 4e 40	 lea	 ecx, DWORD PTR [esi+64]
  00e65	ff 15 00 00 00
	00		 call	 DWORD PTR __imp_??4?$CStringT@DV?$StrTraitMFC_DLL@DV?$ChTraitsCRT@D@ATL@@@@@ATL@@QAEAAV01@PBD@Z

; 1033 : 
; 1034 : 		szKey.Format("%s", "ED4");

  00e6b	68 00 00 00 00	 push	 OFFSET ??_C@_03LOMIFOAH@ED4@
  00e70	8d 85 e8 fe ff
	ff		 lea	 eax, DWORD PTR _szKey$[ebp]
  00e76	68 00 00 00 00	 push	 OFFSET ??_C@_02DKCKIIND@?$CFs@
  00e7b	50		 push	 eax
  00e7c	ff d3		 call	 ebx
  00e7e	83 c4 0c	 add	 esp, 12			; 0000000cH

; 1035 : 		GetPrivateProfileString(STCONFIG_CLEAR, szKey, "30", szTmp, MAX_PATH, szFileName);

  00e81	8d 85 ec fe ff
	ff		 lea	 eax, DWORD PTR _szTmp$[ebp]
  00e87	57		 push	 edi
  00e88	68 04 01 00 00	 push	 260			; 00000104H
  00e8d	50		 push	 eax
  00e8e	68 00 00 00 00	 push	 OFFSET ??_C@_02PJNFELNH@30@
  00e93	ff b5 e8 fe ff
	ff		 push	 DWORD PTR _szKey$[ebp]
  00e99	68 00 00 00 00	 push	 OFFSET ??_C@_08DIPLEMAP@RunSetup@
  00e9e	ff 15 00 00 00
	00		 call	 DWORD PTR __imp__GetPrivateProfileStringA@24

; 1036 : 		m_ED4 = szTmp;

  00ea4	8d 85 ec fe ff
	ff		 lea	 eax, DWORD PTR _szTmp$[ebp]
  00eaa	50		 push	 eax
  00eab	8d 4e 44	 lea	 ecx, DWORD PTR [esi+68]
  00eae	ff 15 00 00 00
	00		 call	 DWORD PTR __imp_??4?$CStringT@DV?$StrTraitMFC_DLL@DV?$ChTraitsCRT@D@ATL@@@@@ATL@@QAEAAV01@PBD@Z

; 1037 : 
; 1038 : 		//   : P
; 1039 : 		szKey.Format("%s", "P4");

  00eb4	68 00 00 00 00	 push	 OFFSET ??_C@_02NHCIPLKK@P4@
  00eb9	8d 85 e8 fe ff
	ff		 lea	 eax, DWORD PTR _szKey$[ebp]
  00ebf	68 00 00 00 00	 push	 OFFSET ??_C@_02DKCKIIND@?$CFs@
  00ec4	50		 push	 eax
  00ec5	ff d3		 call	 ebx
  00ec7	83 c4 0c	 add	 esp, 12			; 0000000cH

; 1040 : 		m_P4 = GetPrivateProfileInt(STCONFIG_CLEAR, szKey, 0, szFileName);

  00eca	57		 push	 edi
  00ecb	6a 00		 push	 0
  00ecd	ff b5 e8 fe ff
	ff		 push	 DWORD PTR _szKey$[ebp]
  00ed3	68 00 00 00 00	 push	 OFFSET ??_C@_08DIPLEMAP@RunSetup@
  00ed8	ff 15 00 00 00
	00		 call	 DWORD PTR __imp__GetPrivateProfileIntA@16
  00ede	89 46 48	 mov	 DWORD PTR [esi+72], eax

; 1041 : 		if(m_P4 < 0 ) m_P4 = 0;

  00ee1	85 c0		 test	 eax, eax
  00ee3	79 07		 jns	 SHORT $LN27@LoadInfo
  00ee5	c7 46 48 00 00
	00 00		 mov	 DWORD PTR [esi+72], 0
$LN27@LoadInfo:

; 1042 : 
; 1043 : 		//   : S
; 1044 : 		szKey.Format("%s", "S4");

  00eec	68 00 00 00 00	 push	 OFFSET ??_C@_02NFGOEFPD@S4@
  00ef1	8d 85 e8 fe ff
	ff		 lea	 eax, DWORD PTR _szKey$[ebp]
  00ef7	68 00 00 00 00	 push	 OFFSET ??_C@_02DKCKIIND@?$CFs@
  00efc	50		 push	 eax
  00efd	ff d3		 call	 ebx
  00eff	83 c4 0c	 add	 esp, 12			; 0000000cH

; 1045 : 		m_S4 = GetPrivateProfileInt(STCONFIG_CLEAR, szKey, 5, szFileName);

  00f02	57		 push	 edi
  00f03	6a 05		 push	 5
  00f05	ff b5 e8 fe ff
	ff		 push	 DWORD PTR _szKey$[ebp]
  00f0b	68 00 00 00 00	 push	 OFFSET ??_C@_08DIPLEMAP@RunSetup@
  00f10	ff 15 00 00 00
	00		 call	 DWORD PTR __imp__GetPrivateProfileIntA@16
  00f16	89 46 4c	 mov	 DWORD PTR [esi+76], eax

; 1046 : 		if(m_S4 < 0 ) m_S4 = 0;

  00f19	85 c0		 test	 eax, eax
  00f1b	79 07		 jns	 SHORT $LN28@LoadInfo
  00f1d	c7 46 4c 00 00
	00 00		 mov	 DWORD PTR [esi+76], 0
$LN28@LoadInfo:

; 1047 : 
; 1048 : 		//   : C
; 1049 : 		szKey.Format("CLR_%s", "4");

  00f24	68 00 00 00 00	 push	 OFFSET ??_C@_01FAMBOPH@4@
  00f29	8d 85 e8 fe ff
	ff		 lea	 eax, DWORD PTR _szKey$[ebp]
  00f2f	68 00 00 00 00	 push	 OFFSET ??_C@_06IEMDKIBD@CLR_?$CFs@
  00f34	50		 push	 eax
  00f35	ff d3		 call	 ebx
  00f37	83 c4 0c	 add	 esp, 12			; 0000000cH

; 1050 : 		GetPrivateProfileString(STCONFIG_CLEAR, szKey, "16711680", szTmp, MAX_PATH, szFileName);

  00f3a	8d 85 ec fe ff
	ff		 lea	 eax, DWORD PTR _szTmp$[ebp]
  00f40	57		 push	 edi
  00f41	68 04 01 00 00	 push	 260			; 00000104H
  00f46	50		 push	 eax
  00f47	68 00 00 00 00	 push	 OFFSET ??_C@_08HNMDJOHO@16711680@
  00f4c	ff b5 e8 fe ff
	ff		 push	 DWORD PTR _szKey$[ebp]
  00f52	68 00 00 00 00	 push	 OFFSET ??_C@_08DIPLEMAP@RunSetup@
  00f57	ff 15 00 00 00
	00		 call	 DWORD PTR __imp__GetPrivateProfileStringA@24

; 1051 : 		m_CLR_4 = szTmp;

  00f5d	8d 85 ec fe ff
	ff		 lea	 eax, DWORD PTR _szTmp$[ebp]
  00f63	50		 push	 eax
  00f64	8d 4e 50	 lea	 ecx, DWORD PTR [esi+80]
  00f67	ff 15 00 00 00
	00		 call	 DWORD PTR __imp_??4?$CStringT@DV?$StrTraitMFC_DLL@DV?$ChTraitsCRT@D@ATL@@@@@ATL@@QAEAAV01@PBD@Z

; 1052 : 
; 1053 : 		//----------- 5 --------------------------
; 1054 : 		// 
; 1055 : 		szKey.Format("%s", "Chk5");

  00f6d	68 00 00 00 00	 push	 OFFSET ??_C@_04DOKPBDOA@Chk5@
  00f72	8d 85 e8 fe ff
	ff		 lea	 eax, DWORD PTR _szKey$[ebp]
  00f78	68 00 00 00 00	 push	 OFFSET ??_C@_02DKCKIIND@?$CFs@
  00f7d	50		 push	 eax
  00f7e	ff d3		 call	 ebx
  00f80	83 c4 0c	 add	 esp, 12			; 0000000cH

; 1056 : 		GetPrivateProfileString(STCONFIG_CLEAR, szKey, "", szTmp, MAX_PATH, szFileName);

  00f83	8d 85 ec fe ff
	ff		 lea	 eax, DWORD PTR _szTmp$[ebp]
  00f89	57		 push	 edi
  00f8a	68 04 01 00 00	 push	 260			; 00000104H
  00f8f	50		 push	 eax
  00f90	68 00 00 00 00	 push	 OFFSET ??_C@_00CNPNBAHC@@
  00f95	ff b5 e8 fe ff
	ff		 push	 DWORD PTR _szKey$[ebp]
  00f9b	68 00 00 00 00	 push	 OFFSET ??_C@_08DIPLEMAP@RunSetup@
  00fa0	ff 15 00 00 00
	00		 call	 DWORD PTR __imp__GetPrivateProfileStringA@24

; 1057 : 		m_Chk5 = szTmp;

  00fa6	8d 85 ec fe ff
	ff		 lea	 eax, DWORD PTR _szTmp$[ebp]
  00fac	50		 push	 eax
  00fad	8d 4e 54	 lea	 ecx, DWORD PTR [esi+84]
  00fb0	ff 15 00 00 00
	00		 call	 DWORD PTR __imp_??4?$CStringT@DV?$StrTraitMFC_DLL@DV?$ChTraitsCRT@D@ATL@@@@@ATL@@QAEAAV01@PBD@Z

; 1058 : 
; 1059 : 		szKey.Format("%s", "ED5");

  00fb6	68 00 00 00 00	 push	 OFFSET ??_C@_03KHNDGPEG@ED5@
  00fbb	8d 85 e8 fe ff
	ff		 lea	 eax, DWORD PTR _szKey$[ebp]
  00fc1	68 00 00 00 00	 push	 OFFSET ??_C@_02DKCKIIND@?$CFs@
  00fc6	50		 push	 eax
  00fc7	ff d3		 call	 ebx
  00fc9	83 c4 0c	 add	 esp, 12			; 0000000cH

; 1060 : 		GetPrivateProfileString(STCONFIG_CLEAR, szKey, "2", szTmp, MAX_PATH, szFileName);

  00fcc	8d 85 ec fe ff
	ff		 lea	 eax, DWORD PTR _szTmp$[ebp]
  00fd2	57		 push	 edi
  00fd3	68 04 01 00 00	 push	 260			; 00000104H
  00fd8	50		 push	 eax
  00fd9	68 00 00 00 00	 push	 OFFSET ??_C@_01FDFGLJHB@2@
  00fde	ff b5 e8 fe ff
	ff		 push	 DWORD PTR _szKey$[ebp]
  00fe4	68 00 00 00 00	 push	 OFFSET ??_C@_08DIPLEMAP@RunSetup@
  00fe9	ff 15 00 00 00
	00		 call	 DWORD PTR __imp__GetPrivateProfileStringA@24

; 1061 : 		m_ED5 = szTmp;

  00fef	8d 85 ec fe ff
	ff		 lea	 eax, DWORD PTR _szTmp$[ebp]
  00ff5	50		 push	 eax
  00ff6	8d 4e 58	 lea	 ecx, DWORD PTR [esi+88]
  00ff9	ff 15 00 00 00
	00		 call	 DWORD PTR __imp_??4?$CStringT@DV?$StrTraitMFC_DLL@DV?$ChTraitsCRT@D@ATL@@@@@ATL@@QAEAAV01@PBD@Z

; 1062 : 
; 1063 : 		//  : P
; 1064 : 		szKey.Format("%s", "P5");

  00fff	68 00 00 00 00	 push	 OFFSET ??_C@_02MODDMKOL@P5@
  01004	8d 85 e8 fe ff
	ff		 lea	 eax, DWORD PTR _szKey$[ebp]
  0100a	68 00 00 00 00	 push	 OFFSET ??_C@_02DKCKIIND@?$CFs@
  0100f	50		 push	 eax
  01010	ff d3		 call	 ebx
  01012	83 c4 0c	 add	 esp, 12			; 0000000cH

; 1065 : 		m_P5 = GetPrivateProfileInt(STCONFIG_CLEAR, szKey, 0, szFileName);

  01015	57		 push	 edi
  01016	6a 00		 push	 0
  01018	ff b5 e8 fe ff
	ff		 push	 DWORD PTR _szKey$[ebp]
  0101e	68 00 00 00 00	 push	 OFFSET ??_C@_08DIPLEMAP@RunSetup@
  01023	ff 15 00 00 00
	00		 call	 DWORD PTR __imp__GetPrivateProfileIntA@16
  01029	89 46 5c	 mov	 DWORD PTR [esi+92], eax

; 1066 : 		if(m_P5 < 0 ) m_P5 = 0;

  0102c	85 c0		 test	 eax, eax
  0102e	79 07		 jns	 SHORT $LN29@LoadInfo
  01030	c7 46 5c 00 00
	00 00		 mov	 DWORD PTR [esi+92], 0
$LN29@LoadInfo:

; 1067 : 
; 1068 : 		//  : S
; 1069 : 
; 1070 : 		// 
; 1071 : 		szKey.Format("%s", "Bong");

  01037	68 00 00 00 00	 push	 OFFSET ??_C@_04BAFOPPNE@Bong@
  0103c	8d 85 e8 fe ff
	ff		 lea	 eax, DWORD PTR _szKey$[ebp]
  01042	68 00 00 00 00	 push	 OFFSET ??_C@_02DKCKIIND@?$CFs@
  01047	50		 push	 eax
  01048	ff d3		 call	 ebx
  0104a	83 c4 0c	 add	 esp, 12			; 0000000cH

; 1072 : 		GetPrivateProfileString(STCONFIG_CLEAR, szKey, "5", szTmp, MAX_PATH, szFileName);

  0104d	8d 85 ec fe ff
	ff		 lea	 eax, DWORD PTR _szTmp$[ebp]
  01053	57		 push	 edi
  01054	68 04 01 00 00	 push	 260			; 00000104H
  01059	50		 push	 eax
  0105a	68 00 00 00 00	 push	 OFFSET ??_C@_01BMBHCPLG@5@
  0105f	ff b5 e8 fe ff
	ff		 push	 DWORD PTR _szKey$[ebp]
  01065	68 00 00 00 00	 push	 OFFSET ??_C@_08DIPLEMAP@RunSetup@
  0106a	ff 15 00 00 00
	00		 call	 DWORD PTR __imp__GetPrivateProfileStringA@24

; 1073 : 		m_Bong = szTmp;

  01070	8d 85 ec fe ff
	ff		 lea	 eax, DWORD PTR _szTmp$[ebp]
  01076	50		 push	 eax
  01077	8d 4e 60	 lea	 ecx, DWORD PTR [esi+96]
  0107a	ff 15 00 00 00
	00		 call	 DWORD PTR __imp_??4?$CStringT@DV?$StrTraitMFC_DLL@DV?$ChTraitsCRT@D@ATL@@@@@ATL@@QAEAAV01@PBD@Z

; 1074 : 
; 1075 : 
; 1076 : 		//----------- 6 --------------------------
; 1077 : 		//
; 1078 : 		szKey.Format("%s", "Chk6");

  01080	68 00 00 00 00	 push	 OFFSET ??_C@_04BFICEACD@Chk6@
  01085	8d 85 e8 fe ff
	ff		 lea	 eax, DWORD PTR _szKey$[ebp]
  0108b	68 00 00 00 00	 push	 OFFSET ??_C@_02DKCKIIND@?$CFs@
  01090	50		 push	 eax
  01091	ff d3		 call	 ebx
  01093	83 c4 0c	 add	 esp, 12			; 0000000cH

; 1079 : 		GetPrivateProfileString(STCONFIG_CLEAR, szKey, "", szTmp, MAX_PATH, szFileName);

  01096	8d 85 ec fe ff
	ff		 lea	 eax, DWORD PTR _szTmp$[ebp]
  0109c	57		 push	 edi
  0109d	68 04 01 00 00	 push	 260			; 00000104H
  010a2	50		 push	 eax
  010a3	68 00 00 00 00	 push	 OFFSET ??_C@_00CNPNBAHC@@
  010a8	ff b5 e8 fe ff
	ff		 push	 DWORD PTR _szKey$[ebp]
  010ae	68 00 00 00 00	 push	 OFFSET ??_C@_08DIPLEMAP@RunSetup@
  010b3	ff 15 00 00 00
	00		 call	 DWORD PTR __imp__GetPrivateProfileStringA@24

; 1080 : 		m_Chk6 = szTmp;

  010b9	8d 85 ec fe ff
	ff		 lea	 eax, DWORD PTR _szTmp$[ebp]
  010bf	50		 push	 eax
  010c0	8d 4e 64	 lea	 ecx, DWORD PTR [esi+100]
  010c3	ff 15 00 00 00
	00		 call	 DWORD PTR __imp_??4?$CStringT@DV?$StrTraitMFC_DLL@DV?$ChTraitsCRT@D@ATL@@@@@ATL@@QAEAAV01@PBD@Z

; 1081 : 
; 1082 : 
; 1083 : 		// /
; 1084 : 		szKey.Format("%s", "TimeA");

  010c9	68 00 00 00 00	 push	 OFFSET ??_C@_05CDDCFJNA@TimeA@
  010ce	8d 85 e8 fe ff
	ff		 lea	 eax, DWORD PTR _szKey$[ebp]
  010d4	68 00 00 00 00	 push	 OFFSET ??_C@_02DKCKIIND@?$CFs@
  010d9	50		 push	 eax
  010da	ff d3		 call	 ebx
  010dc	83 c4 0c	 add	 esp, 12			; 0000000cH

; 1085 : 		m_TimeA = GetPrivateProfileInt(STCONFIG_CLEAR, szKey, 1, szFileName);

  010df	57		 push	 edi
  010e0	6a 01		 push	 1
  010e2	ff b5 e8 fe ff
	ff		 push	 DWORD PTR _szKey$[ebp]
  010e8	68 00 00 00 00	 push	 OFFSET ??_C@_08DIPLEMAP@RunSetup@
  010ed	ff 15 00 00 00
	00		 call	 DWORD PTR __imp__GetPrivateProfileIntA@16
  010f3	89 46 68	 mov	 DWORD PTR [esi+104], eax

; 1086 : 		if(m_TimeA < 0 ) m_TimeA = 0;

  010f6	85 c0		 test	 eax, eax
  010f8	79 07		 jns	 SHORT $LN30@LoadInfo
  010fa	c7 46 68 00 00
	00 00		 mov	 DWORD PTR [esi+104], 0
$LN30@LoadInfo:

; 1087 : 
; 1088 : 		// 
; 1089 : 		szKey.Format("%s", "ED_Time");

  01101	68 00 00 00 00	 push	 OFFSET ??_C@_07GFAEBBEE@ED_Time@
  01106	8d 85 e8 fe ff
	ff		 lea	 eax, DWORD PTR _szKey$[ebp]
  0110c	68 00 00 00 00	 push	 OFFSET ??_C@_02DKCKIIND@?$CFs@
  01111	50		 push	 eax
  01112	ff d3		 call	 ebx
  01114	83 c4 0c	 add	 esp, 12			; 0000000cH

; 1090 : 		GetPrivateProfileString(STCONFIG_CLEAR, szKey, "02:00", szTmp, MAX_PATH, szFileName);

  01117	8d 85 ec fe ff
	ff		 lea	 eax, DWORD PTR _szTmp$[ebp]
  0111d	57		 push	 edi
  0111e	68 04 01 00 00	 push	 260			; 00000104H
  01123	50		 push	 eax
  01124	68 00 00 00 00	 push	 OFFSET ??_C@_05PFBNHJLB@02?300@
  01129	ff b5 e8 fe ff
	ff		 push	 DWORD PTR _szKey$[ebp]
  0112f	68 00 00 00 00	 push	 OFFSET ??_C@_08DIPLEMAP@RunSetup@
  01134	ff 15 00 00 00
	00		 call	 DWORD PTR __imp__GetPrivateProfileStringA@24

; 1091 : 		m_ED_Time = szTmp;

  0113a	8d 85 ec fe ff
	ff		 lea	 eax, DWORD PTR _szTmp$[ebp]
  01140	50		 push	 eax
  01141	8d 4e 6c	 lea	 ecx, DWORD PTR [esi+108]
  01144	ff 15 00 00 00
	00		 call	 DWORD PTR __imp_??4?$CStringT@DV?$StrTraitMFC_DLL@DV?$ChTraitsCRT@D@ATL@@@@@ATL@@QAEAAV01@PBD@Z

; 1092 : 
; 1093 : 		//----------- 7 --------------------------
; 1094 : 		// 
; 1095 : 		szKey.Format("%s", "Chk7");

  0114a	68 00 00 00 00	 push	 OFFSET ??_C@_04MJJHBGC@Chk7@
  0114f	8d 85 e8 fe ff
	ff		 lea	 eax, DWORD PTR _szKey$[ebp]
  01155	68 00 00 00 00	 push	 OFFSET ??_C@_02DKCKIIND@?$CFs@
  0115a	50		 push	 eax
  0115b	ff d3		 call	 ebx
  0115d	83 c4 0c	 add	 esp, 12			; 0000000cH

; 1096 : 		GetPrivateProfileString(STCONFIG_CLEAR, szKey, "", szTmp, MAX_PATH, szFileName);

  01160	8d 85 ec fe ff
	ff		 lea	 eax, DWORD PTR _szTmp$[ebp]
  01166	57		 push	 edi
  01167	68 04 01 00 00	 push	 260			; 00000104H
  0116c	50		 push	 eax
  0116d	68 00 00 00 00	 push	 OFFSET ??_C@_00CNPNBAHC@@
  01172	ff b5 e8 fe ff
	ff		 push	 DWORD PTR _szKey$[ebp]
  01178	68 00 00 00 00	 push	 OFFSET ??_C@_08DIPLEMAP@RunSetup@
  0117d	ff 15 00 00 00
	00		 call	 DWORD PTR __imp__GetPrivateProfileStringA@24

; 1097 : 		m_Chk7 = szTmp;

  01183	8d 85 ec fe ff
	ff		 lea	 eax, DWORD PTR _szTmp$[ebp]
  01189	50		 push	 eax
  0118a	8d 4e 70	 lea	 ecx, DWORD PTR [esi+112]
  0118d	ff 15 00 00 00
	00		 call	 DWORD PTR __imp_??4?$CStringT@DV?$StrTraitMFC_DLL@DV?$ChTraitsCRT@D@ATL@@@@@ATL@@QAEAAV01@PBD@Z

; 1098 : 
; 1099 : 		szKey.Format("%s", "ED6");

  01193	68 00 00 00 00	 push	 OFFSET ??_C@_03IMPODMIF@ED6@
  01198	8d 85 e8 fe ff
	ff		 lea	 eax, DWORD PTR _szKey$[ebp]
  0119e	68 00 00 00 00	 push	 OFFSET ??_C@_02DKCKIIND@?$CFs@
  011a3	50		 push	 eax
  011a4	ff d3		 call	 ebx
  011a6	83 c4 0c	 add	 esp, 12			; 0000000cH

; 1100 : 		GetPrivateProfileString(STCONFIG_CLEAR, szKey, "20", szTmp, MAX_PATH, szFileName);

  011a9	8d 85 ec fe ff
	ff		 lea	 eax, DWORD PTR _szTmp$[ebp]
  011af	57		 push	 edi
  011b0	68 04 01 00 00	 push	 260			; 00000104H
  011b5	50		 push	 eax
  011b6	68 00 00 00 00	 push	 OFFSET ??_C@_02PIBHCBOA@20@
  011bb	ff b5 e8 fe ff
	ff		 push	 DWORD PTR _szKey$[ebp]
  011c1	68 00 00 00 00	 push	 OFFSET ??_C@_08DIPLEMAP@RunSetup@
  011c6	ff 15 00 00 00
	00		 call	 DWORD PTR __imp__GetPrivateProfileStringA@24

; 1101 : 		m_ED6 = szTmp;

  011cc	8d 85 ec fe ff
	ff		 lea	 eax, DWORD PTR _szTmp$[ebp]
  011d2	50		 push	 eax
  011d3	8d 4e 74	 lea	 ecx, DWORD PTR [esi+116]
  011d6	ff 15 00 00 00
	00		 call	 DWORD PTR __imp_??4?$CStringT@DV?$StrTraitMFC_DLL@DV?$ChTraitsCRT@D@ATL@@@@@ATL@@QAEAAV01@PBD@Z

; 1102 : 
; 1103 : 		szKey.Format("%s", "ED7");

  011dc	68 00 00 00 00	 push	 OFFSET ??_C@_03JFOFANME@ED7@
  011e1	8d 85 e8 fe ff
	ff		 lea	 eax, DWORD PTR _szKey$[ebp]
  011e7	68 00 00 00 00	 push	 OFFSET ??_C@_02DKCKIIND@?$CFs@
  011ec	50		 push	 eax
  011ed	ff d3		 call	 ebx
  011ef	83 c4 0c	 add	 esp, 12			; 0000000cH

; 1104 : 		GetPrivateProfileString(STCONFIG_CLEAR, szKey, "10", szTmp, MAX_PATH, szFileName);

  011f2	8d 85 ec fe ff
	ff		 lea	 eax, DWORD PTR _szTmp$[ebp]
  011f8	57		 push	 edi
  011f9	68 04 01 00 00	 push	 260			; 00000104H
  011fe	50		 push	 eax
  011ff	68 00 00 00 00	 push	 OFFSET ??_C@_02PKFBJPLJ@10@
  01204	ff b5 e8 fe ff
	ff		 push	 DWORD PTR _szKey$[ebp]
  0120a	68 00 00 00 00	 push	 OFFSET ??_C@_08DIPLEMAP@RunSetup@
  0120f	ff 15 00 00 00
	00		 call	 DWORD PTR __imp__GetPrivateProfileStringA@24

; 1105 : 		m_ED7 = szTmp;

  01215	8d 85 ec fe ff
	ff		 lea	 eax, DWORD PTR _szTmp$[ebp]
  0121b	50		 push	 eax
  0121c	8d 4e 78	 lea	 ecx, DWORD PTR [esi+120]
  0121f	ff 15 00 00 00
	00		 call	 DWORD PTR __imp_??4?$CStringT@DV?$StrTraitMFC_DLL@DV?$ChTraitsCRT@D@ATL@@@@@ATL@@QAEAAV01@PBD@Z

; 1106 : 
; 1107 : 		//  : P
; 1108 : 		szKey.Format("%s", "P6");

  01225	68 00 00 00 00	 push	 OFFSET ??_C@_02OFBOJJCI@P6@
  0122a	8d 85 e8 fe ff
	ff		 lea	 eax, DWORD PTR _szKey$[ebp]
  01230	68 00 00 00 00	 push	 OFFSET ??_C@_02DKCKIIND@?$CFs@
  01235	50		 push	 eax
  01236	ff d3		 call	 ebx
  01238	83 c4 0c	 add	 esp, 12			; 0000000cH

; 1109 : 		m_P6 = GetPrivateProfileInt(STCONFIG_CLEAR, szKey, 0, szFileName);

  0123b	57		 push	 edi
  0123c	6a 00		 push	 0
  0123e	ff b5 e8 fe ff
	ff		 push	 DWORD PTR _szKey$[ebp]
  01244	68 00 00 00 00	 push	 OFFSET ??_C@_08DIPLEMAP@RunSetup@
  01249	ff 15 00 00 00
	00		 call	 DWORD PTR __imp__GetPrivateProfileIntA@16
  0124f	89 46 7c	 mov	 DWORD PTR [esi+124], eax

; 1110 : 		if(m_P6 < 0 ) m_P6 = 0;

  01252	85 c0		 test	 eax, eax
  01254	79 07		 jns	 SHORT $LN31@LoadInfo
  01256	c7 46 7c 00 00
	00 00		 mov	 DWORD PTR [esi+124], 0
$LN31@LoadInfo:

; 1111 : 
; 1112 : 		//  : P
; 1113 : 		szKey.Format("%s", "P7");

  0125d	68 00 00 00 00	 push	 OFFSET ??_C@_02PMAFKIGJ@P7@
  01262	8d 85 e8 fe ff
	ff		 lea	 eax, DWORD PTR _szKey$[ebp]
  01268	68 00 00 00 00	 push	 OFFSET ??_C@_02DKCKIIND@?$CFs@
  0126d	50		 push	 eax
  0126e	ff d3		 call	 ebx
  01270	83 c4 0c	 add	 esp, 12			; 0000000cH

; 1114 : 		m_P7 = GetPrivateProfileInt(STCONFIG_CLEAR, szKey, 0, szFileName);

  01273	57		 push	 edi
  01274	6a 00		 push	 0
  01276	ff b5 e8 fe ff
	ff		 push	 DWORD PTR _szKey$[ebp]
  0127c	68 00 00 00 00	 push	 OFFSET ??_C@_08DIPLEMAP@RunSetup@
  01281	ff 15 00 00 00
	00		 call	 DWORD PTR __imp__GetPrivateProfileIntA@16
  01287	89 86 80 00 00
	00		 mov	 DWORD PTR [esi+128], eax

; 1115 : 		if(m_P7 < 0 ) m_P7 = 0;

  0128d	85 c0		 test	 eax, eax
  0128f	79 0a		 jns	 SHORT $LN32@LoadInfo
  01291	c7 86 80 00 00
	00 00 00 00 00	 mov	 DWORD PTR [esi+128], 0
$LN32@LoadInfo:

; 1116 : 
; 1117 : 		//  : S
; 1118 : 		szKey.Format("%s", "S5");

  0129b	68 00 00 00 00	 push	 OFFSET ??_C@_02MMHFHELC@S5@
  012a0	8d 85 e8 fe ff
	ff		 lea	 eax, DWORD PTR _szKey$[ebp]
  012a6	68 00 00 00 00	 push	 OFFSET ??_C@_02DKCKIIND@?$CFs@
  012ab	50		 push	 eax
  012ac	ff d3		 call	 ebx
  012ae	83 c4 0c	 add	 esp, 12			; 0000000cH

; 1119 : 		m_S5 = GetPrivateProfileInt(STCONFIG_CLEAR, szKey, 6, szFileName);

  012b1	57		 push	 edi
  012b2	6a 06		 push	 6
  012b4	ff b5 e8 fe ff
	ff		 push	 DWORD PTR _szKey$[ebp]
  012ba	68 00 00 00 00	 push	 OFFSET ??_C@_08DIPLEMAP@RunSetup@
  012bf	ff 15 00 00 00
	00		 call	 DWORD PTR __imp__GetPrivateProfileIntA@16
  012c5	89 86 84 00 00
	00		 mov	 DWORD PTR [esi+132], eax

; 1120 : 		if(m_S5 < 0 ) m_S5 = 0;

  012cb	85 c0		 test	 eax, eax
  012cd	79 0a		 jns	 SHORT $LN33@LoadInfo
  012cf	c7 86 84 00 00
	00 00 00 00 00	 mov	 DWORD PTR [esi+132], 0
$LN33@LoadInfo:

; 1121 : 
; 1122 : 		//  : C
; 1123 : 		szKey.Format("CLR_%s", "5");

  012d9	68 00 00 00 00	 push	 OFFSET ??_C@_01BMBHCPLG@5@
  012de	8d 85 e8 fe ff
	ff		 lea	 eax, DWORD PTR _szKey$[ebp]
  012e4	68 00 00 00 00	 push	 OFFSET ??_C@_06IEMDKIBD@CLR_?$CFs@
  012e9	50		 push	 eax
  012ea	ff d3		 call	 ebx
  012ec	83 c4 0c	 add	 esp, 12			; 0000000cH

; 1124 : 		GetPrivateProfileString(STCONFIG_CLEAR, szKey, "16711680", szTmp, MAX_PATH, szFileName);

  012ef	8d 85 ec fe ff
	ff		 lea	 eax, DWORD PTR _szTmp$[ebp]
  012f5	57		 push	 edi
  012f6	68 04 01 00 00	 push	 260			; 00000104H
  012fb	50		 push	 eax
  012fc	68 00 00 00 00	 push	 OFFSET ??_C@_08HNMDJOHO@16711680@
$LN219@LoadInfo:

; 1125 : 		m_CLR_5 = szTmp;
; 1126 : 	}
; 1127 : }

  01301	ff b5 e8 fe ff
	ff		 push	 DWORD PTR _szKey$[ebp]
  01307	68 00 00 00 00	 push	 OFFSET ??_C@_08DIPLEMAP@RunSetup@
  0130c	ff 15 00 00 00
	00		 call	 DWORD PTR __imp__GetPrivateProfileStringA@24
  01312	8d 85 ec fe ff
	ff		 lea	 eax, DWORD PTR _szTmp$[ebp]
  01318	50		 push	 eax
  01319	8d 8e 88 00 00
	00		 lea	 ecx, DWORD PTR [esi+136]
  0131f	ff 15 00 00 00
	00		 call	 DWORD PTR __imp_??4?$CStringT@DV?$StrTraitMFC_DLL@DV?$ChTraitsCRT@D@ATL@@@@@ATL@@QAEAAV01@PBD@Z
  01325	8d 8d e8 fe ff
	ff		 lea	 ecx, DWORD PTR _szKey$[ebp]
  0132b	ff 15 00 00 00
	00		 call	 DWORD PTR __imp_??1?$CStringT@DV?$StrTraitMFC_DLL@DV?$ChTraitsCRT@D@ATL@@@@@ATL@@QAE@XZ
  01331	8b 4d f4	 mov	 ecx, DWORD PTR __$EHRec$[ebp]
  01334	64 89 0d 00 00
	00 00		 mov	 DWORD PTR fs:0, ecx
  0133b	59		 pop	 ecx
  0133c	5f		 pop	 edi
  0133d	5e		 pop	 esi
  0133e	5b		 pop	 ebx
  0133f	8b 4d f0	 mov	 ecx, DWORD PTR __$ArrayPad$[ebp]
  01342	33 cd		 xor	 ecx, ebp
  01344	e8 00 00 00 00	 call	 @__security_check_cookie@4
  01349	8b e5		 mov	 esp, ebp
  0134b	5d		 pop	 ebp
  0134c	c2 04 00	 ret	 4
_TEXT	ENDS
;	COMDAT text$x
text$x	SEGMENT
__unwindfunclet$?LoadInfo@CSTConfigEnv_Setup@@QAEXPBD@Z$0:
  00000	8d 8d e8 fe ff
	ff		 lea	 ecx, DWORD PTR _szKey$[ebp]
  00006	ff 25 00 00 00
	00		 jmp	 DWORD PTR __imp_??1?$CStringT@DV?$StrTraitMFC_DLL@DV?$ChTraitsCRT@D@ATL@@@@@ATL@@QAE@XZ
  0000c	cc		 int	 3
  0000d	cc		 int	 3
  0000e	cc		 int	 3
  0000f	cc		 int	 3
  00010	cc		 int	 3
__ehhandler$?LoadInfo@CSTConfigEnv_Setup@@QAEXPBD@Z:
  00011	90		 npad	 1
  00012	90		 npad	 1
  00013	8b 54 24 08	 mov	 edx, DWORD PTR [esp+8]
  00017	8d 42 0c	 lea	 eax, DWORD PTR [edx+12]
  0001a	8b 8a e4 fe ff
	ff		 mov	 ecx, DWORD PTR [edx-284]
  00020	33 c8		 xor	 ecx, eax
  00022	e8 00 00 00 00	 call	 @__security_check_cookie@4
  00027	8b 4a fc	 mov	 ecx, DWORD PTR [edx-4]
  0002a	33 c8		 xor	 ecx, eax
  0002c	e8 00 00 00 00	 call	 @__security_check_cookie@4
  00031	b8 00 00 00 00	 mov	 eax, OFFSET __ehfuncinfo$?LoadInfo@CSTConfigEnv_Setup@@QAEXPBD@Z
  00036	e9 00 00 00 00	 jmp	 ___CxxFrameHandler3
text$x	ENDS
?LoadInfo@CSTConfigEnv_Setup@@QAEXPBD@Z ENDP		; CSTConfigEnv_Setup::LoadInfo
; Function compile flags: /Ogtp
; File D:\git\src\IBK\IBK_DRFN\ProjSrc\SrcDrfn\Chart\Common_ST\STConfigEnv.h
;	COMDAT ??1CSTConfigEnv_Setup@@QAE@XZ
_TEXT	SEGMENT
??1CSTConfigEnv_Setup@@QAE@XZ PROC			; CSTConfigEnv_Setup::~CSTConfigEnv_Setup, COMDAT
; _this$ = ecx

; 212  : 	{

  00000	56		 push	 esi
  00001	8b f1		 mov	 esi, ecx
  00003	57		 push	 edi

; 213  : 		if(m_pDefInfo) delete m_pDefInfo; m_pDefInfo=NULL;

  00004	8b be 8c 00 00
	00		 mov	 edi, DWORD PTR [esi+140]
  0000a	85 ff		 test	 edi, edi
  0000c	74 15		 je	 SHORT $LN7@CSTConfigE
  0000e	8b cf		 mov	 ecx, edi
  00010	e8 00 00 00 00	 call	 ??1CSTConfigEnv_Setup@@QAE@XZ ; CSTConfigEnv_Setup::~CSTConfigEnv_Setup
  00015	68 90 00 00 00	 push	 144			; 00000090H
  0001a	57		 push	 edi
  0001b	e8 00 00 00 00	 call	 ??3@YAXPAXI@Z		; operator delete
  00020	83 c4 08	 add	 esp, 8
$LN7@CSTConfigE:

; 214  : 	}

  00023	8d 8e 88 00 00
	00		 lea	 ecx, DWORD PTR [esi+136]
  00029	c7 86 8c 00 00
	00 00 00 00 00	 mov	 DWORD PTR [esi+140], 0
  00033	ff 15 00 00 00
	00		 call	 DWORD PTR __imp_??1?$CStringT@DV?$StrTraitMFC_DLL@DV?$ChTraitsCRT@D@ATL@@@@@ATL@@QAE@XZ
  00039	8d 4e 78	 lea	 ecx, DWORD PTR [esi+120]
  0003c	ff 15 00 00 00
	00		 call	 DWORD PTR __imp_??1?$CStringT@DV?$StrTraitMFC_DLL@DV?$ChTraitsCRT@D@ATL@@@@@ATL@@QAE@XZ
  00042	8d 4e 74	 lea	 ecx, DWORD PTR [esi+116]
  00045	ff 15 00 00 00
	00		 call	 DWORD PTR __imp_??1?$CStringT@DV?$StrTraitMFC_DLL@DV?$ChTraitsCRT@D@ATL@@@@@ATL@@QAE@XZ
  0004b	8d 4e 70	 lea	 ecx, DWORD PTR [esi+112]
  0004e	ff 15 00 00 00
	00		 call	 DWORD PTR __imp_??1?$CStringT@DV?$StrTraitMFC_DLL@DV?$ChTraitsCRT@D@ATL@@@@@ATL@@QAE@XZ
  00054	8d 4e 6c	 lea	 ecx, DWORD PTR [esi+108]
  00057	ff 15 00 00 00
	00		 call	 DWORD PTR __imp_??1?$CStringT@DV?$StrTraitMFC_DLL@DV?$ChTraitsCRT@D@ATL@@@@@ATL@@QAE@XZ
  0005d	8d 4e 64	 lea	 ecx, DWORD PTR [esi+100]
  00060	ff 15 00 00 00
	00		 call	 DWORD PTR __imp_??1?$CStringT@DV?$StrTraitMFC_DLL@DV?$ChTraitsCRT@D@ATL@@@@@ATL@@QAE@XZ
  00066	8d 4e 60	 lea	 ecx, DWORD PTR [esi+96]
  00069	ff 15 00 00 00
	00		 call	 DWORD PTR __imp_??1?$CStringT@DV?$StrTraitMFC_DLL@DV?$ChTraitsCRT@D@ATL@@@@@ATL@@QAE@XZ
  0006f	8d 4e 58	 lea	 ecx, DWORD PTR [esi+88]
  00072	ff 15 00 00 00
	00		 call	 DWORD PTR __imp_??1?$CStringT@DV?$StrTraitMFC_DLL@DV?$ChTraitsCRT@D@ATL@@@@@ATL@@QAE@XZ
  00078	8d 4e 54	 lea	 ecx, DWORD PTR [esi+84]
  0007b	ff 15 00 00 00
	00		 call	 DWORD PTR __imp_??1?$CStringT@DV?$StrTraitMFC_DLL@DV?$ChTraitsCRT@D@ATL@@@@@ATL@@QAE@XZ
  00081	8d 4e 50	 lea	 ecx, DWORD PTR [esi+80]
  00084	ff 15 00 00 00
	00		 call	 DWORD PTR __imp_??1?$CStringT@DV?$StrTraitMFC_DLL@DV?$ChTraitsCRT@D@ATL@@@@@ATL@@QAE@XZ
  0008a	8d 4e 44	 lea	 ecx, DWORD PTR [esi+68]
  0008d	ff 15 00 00 00
	00		 call	 DWORD PTR __imp_??1?$CStringT@DV?$StrTraitMFC_DLL@DV?$ChTraitsCRT@D@ATL@@@@@ATL@@QAE@XZ
  00093	8d 4e 40	 lea	 ecx, DWORD PTR [esi+64]
  00096	ff 15 00 00 00
	00		 call	 DWORD PTR __imp_??1?$CStringT@DV?$StrTraitMFC_DLL@DV?$ChTraitsCRT@D@ATL@@@@@ATL@@QAE@XZ
  0009c	8d 4e 3c	 lea	 ecx, DWORD PTR [esi+60]
  0009f	ff 15 00 00 00
	00		 call	 DWORD PTR __imp_??1?$CStringT@DV?$StrTraitMFC_DLL@DV?$ChTraitsCRT@D@ATL@@@@@ATL@@QAE@XZ
  000a5	8d 4e 30	 lea	 ecx, DWORD PTR [esi+48]
  000a8	ff 15 00 00 00
	00		 call	 DWORD PTR __imp_??1?$CStringT@DV?$StrTraitMFC_DLL@DV?$ChTraitsCRT@D@ATL@@@@@ATL@@QAE@XZ
  000ae	8d 4e 2c	 lea	 ecx, DWORD PTR [esi+44]
  000b1	ff 15 00 00 00
	00		 call	 DWORD PTR __imp_??1?$CStringT@DV?$StrTraitMFC_DLL@DV?$ChTraitsCRT@D@ATL@@@@@ATL@@QAE@XZ
  000b7	8d 4e 28	 lea	 ecx, DWORD PTR [esi+40]
  000ba	ff 15 00 00 00
	00		 call	 DWORD PTR __imp_??1?$CStringT@DV?$StrTraitMFC_DLL@DV?$ChTraitsCRT@D@ATL@@@@@ATL@@QAE@XZ
  000c0	8d 4e 1c	 lea	 ecx, DWORD PTR [esi+28]
  000c3	ff 15 00 00 00
	00		 call	 DWORD PTR __imp_??1?$CStringT@DV?$StrTraitMFC_DLL@DV?$ChTraitsCRT@D@ATL@@@@@ATL@@QAE@XZ
  000c9	8d 4e 18	 lea	 ecx, DWORD PTR [esi+24]
  000cc	ff 15 00 00 00
	00		 call	 DWORD PTR __imp_??1?$CStringT@DV?$StrTraitMFC_DLL@DV?$ChTraitsCRT@D@ATL@@@@@ATL@@QAE@XZ
  000d2	8d 4e 14	 lea	 ecx, DWORD PTR [esi+20]
  000d5	ff 15 00 00 00
	00		 call	 DWORD PTR __imp_??1?$CStringT@DV?$StrTraitMFC_DLL@DV?$ChTraitsCRT@D@ATL@@@@@ATL@@QAE@XZ
  000db	8d 4e 08	 lea	 ecx, DWORD PTR [esi+8]
  000de	ff 15 00 00 00
	00		 call	 DWORD PTR __imp_??1?$CStringT@DV?$StrTraitMFC_DLL@DV?$ChTraitsCRT@D@ATL@@@@@ATL@@QAE@XZ
  000e4	5f		 pop	 edi
  000e5	8d 4e 04	 lea	 ecx, DWORD PTR [esi+4]
  000e8	5e		 pop	 esi
  000e9	ff 25 00 00 00
	00		 jmp	 DWORD PTR __imp_??1?$CStringT@DV?$StrTraitMFC_DLL@DV?$ChTraitsCRT@D@ATL@@@@@ATL@@QAE@XZ
??1CSTConfigEnv_Setup@@QAE@XZ ENDP			; CSTConfigEnv_Setup::~CSTConfigEnv_Setup
_TEXT	ENDS
; Function compile flags: /Ogtp
; File D:\git\src\IBK\IBK_DRFN\ProjSrc\SrcDrfn\Chart\Common_ST\STConfigEnv.h
;	COMDAT ??0CSTConfigEnv_Setup@@QAE@XZ
_TEXT	SEGMENT
_this$ = -16						; size = 4
__$EHRec$ = -12						; size = 12
??0CSTConfigEnv_Setup@@QAE@XZ PROC			; CSTConfigEnv_Setup::CSTConfigEnv_Setup, COMDAT
; _this$ = ecx

; 164  : 	CSTConfigEnv_Setup()

  00000	55		 push	 ebp
  00001	8b ec		 mov	 ebp, esp
  00003	6a ff		 push	 -1
  00005	68 00 00 00 00	 push	 __ehhandler$??0CSTConfigEnv_Setup@@QAE@XZ
  0000a	64 a1 00 00 00
	00		 mov	 eax, DWORD PTR fs:0
  00010	50		 push	 eax
  00011	51		 push	 ecx
  00012	53		 push	 ebx
  00013	56		 push	 esi
  00014	57		 push	 edi
  00015	a1 00 00 00 00	 mov	 eax, DWORD PTR ___security_cookie
  0001a	33 c5		 xor	 eax, ebp
  0001c	50		 push	 eax
  0001d	8d 45 f4	 lea	 eax, DWORD PTR __$EHRec$[ebp]
  00020	64 a3 00 00 00
	00		 mov	 DWORD PTR fs:0, eax
  00026	8b f1		 mov	 esi, ecx
  00028	89 75 f0	 mov	 DWORD PTR _this$[ebp], esi
  0002b	8d 4e 04	 lea	 ecx, DWORD PTR [esi+4]
  0002e	ff 15 00 00 00
	00		 call	 DWORD PTR __imp_??0?$CStringT@DV?$StrTraitMFC_DLL@DV?$ChTraitsCRT@D@ATL@@@@@ATL@@QAE@XZ
  00034	8d 4e 08	 lea	 ecx, DWORD PTR [esi+8]
  00037	c7 45 fc 00 00
	00 00		 mov	 DWORD PTR __$EHRec$[ebp+8], 0
  0003e	ff 15 00 00 00
	00		 call	 DWORD PTR __imp_??0?$CStringT@DV?$StrTraitMFC_DLL@DV?$ChTraitsCRT@D@ATL@@@@@ATL@@QAE@XZ
  00044	8d 4e 14	 lea	 ecx, DWORD PTR [esi+20]
  00047	ff 15 00 00 00
	00		 call	 DWORD PTR __imp_??0?$CStringT@DV?$StrTraitMFC_DLL@DV?$ChTraitsCRT@D@ATL@@@@@ATL@@QAE@XZ
  0004d	8d 4e 18	 lea	 ecx, DWORD PTR [esi+24]
  00050	ff 15 00 00 00
	00		 call	 DWORD PTR __imp_??0?$CStringT@DV?$StrTraitMFC_DLL@DV?$ChTraitsCRT@D@ATL@@@@@ATL@@QAE@XZ
  00056	8d 4e 1c	 lea	 ecx, DWORD PTR [esi+28]
  00059	ff 15 00 00 00
	00		 call	 DWORD PTR __imp_??0?$CStringT@DV?$StrTraitMFC_DLL@DV?$ChTraitsCRT@D@ATL@@@@@ATL@@QAE@XZ
  0005f	8d 4e 28	 lea	 ecx, DWORD PTR [esi+40]
  00062	ff 15 00 00 00
	00		 call	 DWORD PTR __imp_??0?$CStringT@DV?$StrTraitMFC_DLL@DV?$ChTraitsCRT@D@ATL@@@@@ATL@@QAE@XZ
  00068	8d 4e 2c	 lea	 ecx, DWORD PTR [esi+44]
  0006b	ff 15 00 00 00
	00		 call	 DWORD PTR __imp_??0?$CStringT@DV?$StrTraitMFC_DLL@DV?$ChTraitsCRT@D@ATL@@@@@ATL@@QAE@XZ
  00071	8d 4e 30	 lea	 ecx, DWORD PTR [esi+48]
  00074	ff 15 00 00 00
	00		 call	 DWORD PTR __imp_??0?$CStringT@DV?$StrTraitMFC_DLL@DV?$ChTraitsCRT@D@ATL@@@@@ATL@@QAE@XZ
  0007a	8d 4e 3c	 lea	 ecx, DWORD PTR [esi+60]
  0007d	ff 15 00 00 00
	00		 call	 DWORD PTR __imp_??0?$CStringT@DV?$StrTraitMFC_DLL@DV?$ChTraitsCRT@D@ATL@@@@@ATL@@QAE@XZ
  00083	8d 4e 40	 lea	 ecx, DWORD PTR [esi+64]
  00086	ff 15 00 00 00
	00		 call	 DWORD PTR __imp_??0?$CStringT@DV?$StrTraitMFC_DLL@DV?$ChTraitsCRT@D@ATL@@@@@ATL@@QAE@XZ
  0008c	8d 4e 44	 lea	 ecx, DWORD PTR [esi+68]
  0008f	ff 15 00 00 00
	00		 call	 DWORD PTR __imp_??0?$CStringT@DV?$StrTraitMFC_DLL@DV?$ChTraitsCRT@D@ATL@@@@@ATL@@QAE@XZ
  00095	8d 4e 50	 lea	 ecx, DWORD PTR [esi+80]
  00098	ff 15 00 00 00
	00		 call	 DWORD PTR __imp_??0?$CStringT@DV?$StrTraitMFC_DLL@DV?$ChTraitsCRT@D@ATL@@@@@ATL@@QAE@XZ
  0009e	8d 4e 54	 lea	 ecx, DWORD PTR [esi+84]
  000a1	ff 15 00 00 00
	00		 call	 DWORD PTR __imp_??0?$CStringT@DV?$StrTraitMFC_DLL@DV?$ChTraitsCRT@D@ATL@@@@@ATL@@QAE@XZ
  000a7	8d 4e 58	 lea	 ecx, DWORD PTR [esi+88]
  000aa	ff 15 00 00 00
	00		 call	 DWORD PTR __imp_??0?$CStringT@DV?$StrTraitMFC_DLL@DV?$ChTraitsCRT@D@ATL@@@@@ATL@@QAE@XZ
  000b0	8d 4e 60	 lea	 ecx, DWORD PTR [esi+96]
  000b3	ff 15 00 00 00
	00		 call	 DWORD PTR __imp_??0?$CStringT@DV?$StrTraitMFC_DLL@DV?$ChTraitsCRT@D@ATL@@@@@ATL@@QAE@XZ
  000b9	8d 4e 64	 lea	 ecx, DWORD PTR [esi+100]
  000bc	ff 15 00 00 00
	00		 call	 DWORD PTR __imp_??0?$CStringT@DV?$StrTraitMFC_DLL@DV?$ChTraitsCRT@D@ATL@@@@@ATL@@QAE@XZ
  000c2	8d 4e 6c	 lea	 ecx, DWORD PTR [esi+108]
  000c5	ff 15 00 00 00
	00		 call	 DWORD PTR __imp_??0?$CStringT@DV?$StrTraitMFC_DLL@DV?$ChTraitsCRT@D@ATL@@@@@ATL@@QAE@XZ
  000cb	8d 4e 70	 lea	 ecx, DWORD PTR [esi+112]
  000ce	ff 15 00 00 00
	00		 call	 DWORD PTR __imp_??0?$CStringT@DV?$StrTraitMFC_DLL@DV?$ChTraitsCRT@D@ATL@@@@@ATL@@QAE@XZ
  000d4	8d 4e 74	 lea	 ecx, DWORD PTR [esi+116]
  000d7	ff 15 00 00 00
	00		 call	 DWORD PTR __imp_??0?$CStringT@DV?$StrTraitMFC_DLL@DV?$ChTraitsCRT@D@ATL@@@@@ATL@@QAE@XZ
  000dd	8d 4e 78	 lea	 ecx, DWORD PTR [esi+120]
  000e0	ff 15 00 00 00
	00		 call	 DWORD PTR __imp_??0?$CStringT@DV?$StrTraitMFC_DLL@DV?$ChTraitsCRT@D@ATL@@@@@ATL@@QAE@XZ
  000e6	8d 8e 88 00 00
	00		 lea	 ecx, DWORD PTR [esi+136]
  000ec	ff 15 00 00 00
	00		 call	 DWORD PTR __imp_??0?$CStringT@DV?$StrTraitMFC_DLL@DV?$ChTraitsCRT@D@ATL@@@@@ATL@@QAE@XZ

; 165  : 	{
; 166  : 		m_ClearPoint = 0;

  000f2	8b c6		 mov	 eax, esi
  000f4	c6 45 fc 14	 mov	 BYTE PTR __$EHRec$[ebp+8], 20 ; 00000014H

; 167  : 		//m_Chk1;		
; 168  : 		//m_ED1;
; 169  : 		m_P1		=0;	
; 170  : 		m_S1		=0;	
; 171  : 		m_CLR_1 = _T("16711680");

  000f8	68 00 00 00 00	 push	 OFFSET ??_C@_08HNMDJOHO@16711680@
  000fd	8d 48 14	 lea	 ecx, DWORD PTR [eax+20]
  00100	c7 00 00 00 00
	00		 mov	 DWORD PTR [eax], 0
  00106	c7 40 0c 00 00
	00 00		 mov	 DWORD PTR [eax+12], 0
  0010d	c7 40 10 00 00
	00 00		 mov	 DWORD PTR [eax+16], 0
  00114	ff 15 00 00 00
	00		 call	 DWORD PTR __imp_??4?$CStringT@DV?$StrTraitMFC_DLL@DV?$ChTraitsCRT@D@ATL@@@@@ATL@@QAEAAV01@PBD@Z

; 172  : 
; 173  : 		//m_Chk2;		
; 174  : 		//m_ED2;
; 175  : 		m_P2		=0;	

  0011a	8b c6		 mov	 eax, esi

; 176  : 		m_S2		=0;	
; 177  : 		m_CLR_2 = _T("16711680");

  0011c	68 00 00 00 00	 push	 OFFSET ??_C@_08HNMDJOHO@16711680@
  00121	8d 48 28	 lea	 ecx, DWORD PTR [eax+40]
  00124	c7 40 20 00 00
	00 00		 mov	 DWORD PTR [eax+32], 0
  0012b	c7 40 24 00 00
	00 00		 mov	 DWORD PTR [eax+36], 0
  00132	ff 15 00 00 00
	00		 call	 DWORD PTR __imp_??4?$CStringT@DV?$StrTraitMFC_DLL@DV?$ChTraitsCRT@D@ATL@@@@@ATL@@QAEAAV01@PBD@Z

; 178  : 
; 179  : 		//m_Chk3;		
; 180  : 		//m_ED3;
; 181  : 		m_P3		=0;	

  00138	8b c6		 mov	 eax, esi
  0013a	c7 40 34 00 00
	00 00		 mov	 DWORD PTR [eax+52], 0

; 182  : 		m_S3		=0;	

  00141	c7 40 38 00 00
	00 00		 mov	 DWORD PTR [eax+56], 0

; 183  : 		m_CLR_3 = _T("16711680");

  00148	68 00 00 00 00	 push	 OFFSET ??_C@_08HNMDJOHO@16711680@
  0014d	8d 4e 3c	 lea	 ecx, DWORD PTR [esi+60]
  00150	ff 15 00 00 00
	00		 call	 DWORD PTR __imp_??4?$CStringT@DV?$StrTraitMFC_DLL@DV?$ChTraitsCRT@D@ATL@@@@@ATL@@QAEAAV01@PBD@Z

; 184  : 
; 185  : 		//m_Chk4;		
; 186  : 		//m_ED4;
; 187  : 		m_P4		=0;	

  00156	8b de		 mov	 ebx, esi

; 188  : 		m_S4		=0;	
; 189  : 		m_CLR_4 = _T("16711680");

  00158	8d 4e 50	 lea	 ecx, DWORD PTR [esi+80]
  0015b	68 00 00 00 00	 push	 OFFSET ??_C@_08HNMDJOHO@16711680@
  00160	c7 43 48 00 00
	00 00		 mov	 DWORD PTR [ebx+72], 0
  00167	c7 43 4c 00 00
	00 00		 mov	 DWORD PTR [ebx+76], 0
  0016e	ff 15 00 00 00
	00		 call	 DWORD PTR __imp_??4?$CStringT@DV?$StrTraitMFC_DLL@DV?$ChTraitsCRT@D@ATL@@@@@ATL@@QAEAAV01@PBD@Z

; 190  : 
; 191  : 		//m_Chk5;		
; 192  : 		//m_ED5;
; 193  : 		m_P5		=0;	
; 194  : 		//m_Bong;		
; 195  : 
; 196  : 		//m_Chk6;
; 197  : 		m_TimeA		=0;
; 198  : 		//m_ED_Time;
; 199  : 
; 200  : 		//m_Chk7;		
; 201  : 		//m_ED6;
; 202  : 		//m_ED7;
; 203  : 		m_P6		=0;	
; 204  : 		m_P7		=0;	
; 205  : 		m_S5		=0;	
; 206  : 		m_CLR_5 = _T("16711680");

  00174	68 00 00 00 00	 push	 OFFSET ??_C@_08HNMDJOHO@16711680@
  00179	8d 8e 88 00 00
	00		 lea	 ecx, DWORD PTR [esi+136]
  0017f	c7 43 5c 00 00
	00 00		 mov	 DWORD PTR [ebx+92], 0
  00186	c7 43 68 00 00
	00 00		 mov	 DWORD PTR [ebx+104], 0
  0018d	c7 43 7c 00 00
	00 00		 mov	 DWORD PTR [ebx+124], 0
  00194	c7 83 80 00 00
	00 00 00 00 00	 mov	 DWORD PTR [ebx+128], 0
  0019e	c7 83 84 00 00
	00 00 00 00 00	 mov	 DWORD PTR [ebx+132], 0
  001a8	ff 15 00 00 00
	00		 call	 DWORD PTR __imp_??4?$CStringT@DV?$StrTraitMFC_DLL@DV?$ChTraitsCRT@D@ATL@@@@@ATL@@QAEAAV01@PBD@Z

; 207  : 
; 208  : 		m_pDefInfo = NULL;

  001ae	c7 83 8c 00 00
	00 00 00 00 00	 mov	 DWORD PTR [ebx+140], 0

; 209  : 	}

  001b8	8b c3		 mov	 eax, ebx
  001ba	8b 4d f4	 mov	 ecx, DWORD PTR __$EHRec$[ebp]
  001bd	64 89 0d 00 00
	00 00		 mov	 DWORD PTR fs:0, ecx
  001c4	59		 pop	 ecx
  001c5	5f		 pop	 edi
  001c6	5e		 pop	 esi
  001c7	5b		 pop	 ebx
  001c8	8b e5		 mov	 esp, ebp
  001ca	5d		 pop	 ebp
  001cb	c3		 ret	 0
_TEXT	ENDS
;	COMDAT text$x
text$x	SEGMENT
__unwindfunclet$??0CSTConfigEnv_Setup@@QAE@XZ$0:
  00000	8b 4d f0	 mov	 ecx, DWORD PTR _this$[ebp]
  00003	83 c1 04	 add	 ecx, 4
  00006	ff 25 00 00 00
	00		 jmp	 DWORD PTR __imp_??1?$CStringT@DV?$StrTraitMFC_DLL@DV?$ChTraitsCRT@D@ATL@@@@@ATL@@QAE@XZ
__unwindfunclet$??0CSTConfigEnv_Setup@@QAE@XZ$1:
  0000c	8b 4d f0	 mov	 ecx, DWORD PTR _this$[ebp]
  0000f	83 c1 08	 add	 ecx, 8
  00012	ff 25 00 00 00
	00		 jmp	 DWORD PTR __imp_??1?$CStringT@DV?$StrTraitMFC_DLL@DV?$ChTraitsCRT@D@ATL@@@@@ATL@@QAE@XZ
__unwindfunclet$??0CSTConfigEnv_Setup@@QAE@XZ$2:
  00018	8b 4d f0	 mov	 ecx, DWORD PTR _this$[ebp]
  0001b	83 c1 14	 add	 ecx, 20			; 00000014H
  0001e	ff 25 00 00 00
	00		 jmp	 DWORD PTR __imp_??1?$CStringT@DV?$StrTraitMFC_DLL@DV?$ChTraitsCRT@D@ATL@@@@@ATL@@QAE@XZ
__unwindfunclet$??0CSTConfigEnv_Setup@@QAE@XZ$3:
  00024	8b 4d f0	 mov	 ecx, DWORD PTR _this$[ebp]
  00027	83 c1 18	 add	 ecx, 24			; 00000018H
  0002a	ff 25 00 00 00
	00		 jmp	 DWORD PTR __imp_??1?$CStringT@DV?$StrTraitMFC_DLL@DV?$ChTraitsCRT@D@ATL@@@@@ATL@@QAE@XZ
__unwindfunclet$??0CSTConfigEnv_Setup@@QAE@XZ$4:
  00030	8b 4d f0	 mov	 ecx, DWORD PTR _this$[ebp]
  00033	83 c1 1c	 add	 ecx, 28			; 0000001cH
  00036	ff 25 00 00 00
	00		 jmp	 DWORD PTR __imp_??1?$CStringT@DV?$StrTraitMFC_DLL@DV?$ChTraitsCRT@D@ATL@@@@@ATL@@QAE@XZ
__unwindfunclet$??0CSTConfigEnv_Setup@@QAE@XZ$5:
  0003c	8b 4d f0	 mov	 ecx, DWORD PTR _this$[ebp]
  0003f	83 c1 28	 add	 ecx, 40			; 00000028H
  00042	ff 25 00 00 00
	00		 jmp	 DWORD PTR __imp_??1?$CStringT@DV?$StrTraitMFC_DLL@DV?$ChTraitsCRT@D@ATL@@@@@ATL@@QAE@XZ
__unwindfunclet$??0CSTConfigEnv_Setup@@QAE@XZ$6:
  00048	8b 4d f0	 mov	 ecx, DWORD PTR _this$[ebp]
  0004b	83 c1 2c	 add	 ecx, 44			; 0000002cH
  0004e	ff 25 00 00 00
	00		 jmp	 DWORD PTR __imp_??1?$CStringT@DV?$StrTraitMFC_DLL@DV?$ChTraitsCRT@D@ATL@@@@@ATL@@QAE@XZ
__unwindfunclet$??0CSTConfigEnv_Setup@@QAE@XZ$7:
  00054	8b 4d f0	 mov	 ecx, DWORD PTR _this$[ebp]
  00057	83 c1 30	 add	 ecx, 48			; 00000030H
  0005a	ff 25 00 00 00
	00		 jmp	 DWORD PTR __imp_??1?$CStringT@DV?$StrTraitMFC_DLL@DV?$ChTraitsCRT@D@ATL@@@@@ATL@@QAE@XZ
__unwindfunclet$??0CSTConfigEnv_Setup@@QAE@XZ$8:
  00060	8b 4d f0	 mov	 ecx, DWORD PTR _this$[ebp]
  00063	83 c1 3c	 add	 ecx, 60			; 0000003cH
  00066	ff 25 00 00 00
	00		 jmp	 DWORD PTR __imp_??1?$CStringT@DV?$StrTraitMFC_DLL@DV?$ChTraitsCRT@D@ATL@@@@@ATL@@QAE@XZ
__unwindfunclet$??0CSTConfigEnv_Setup@@QAE@XZ$9:
  0006c	8b 4d f0	 mov	 ecx, DWORD PTR _this$[ebp]
  0006f	83 c1 40	 add	 ecx, 64			; 00000040H
  00072	ff 25 00 00 00
	00		 jmp	 DWORD PTR __imp_??1?$CStringT@DV?$StrTraitMFC_DLL@DV?$ChTraitsCRT@D@ATL@@@@@ATL@@QAE@XZ
__unwindfunclet$??0CSTConfigEnv_Setup@@QAE@XZ$10:
  00078	8b 4d f0	 mov	 ecx, DWORD PTR _this$[ebp]
  0007b	83 c1 44	 add	 ecx, 68			; 00000044H
  0007e	ff 25 00 00 00
	00		 jmp	 DWORD PTR __imp_??1?$CStringT@DV?$StrTraitMFC_DLL@DV?$ChTraitsCRT@D@ATL@@@@@ATL@@QAE@XZ
__unwindfunclet$??0CSTConfigEnv_Setup@@QAE@XZ$11:
  00084	8b 4d f0	 mov	 ecx, DWORD PTR _this$[ebp]
  00087	83 c1 50	 add	 ecx, 80			; 00000050H
  0008a	ff 25 00 00 00
	00		 jmp	 DWORD PTR __imp_??1?$CStringT@DV?$StrTraitMFC_DLL@DV?$ChTraitsCRT@D@ATL@@@@@ATL@@QAE@XZ
__unwindfunclet$??0CSTConfigEnv_Setup@@QAE@XZ$12:
  00090	8b 4d f0	 mov	 ecx, DWORD PTR _this$[ebp]
  00093	83 c1 54	 add	 ecx, 84			; 00000054H
  00096	ff 25 00 00 00
	00		 jmp	 DWORD PTR __imp_??1?$CStringT@DV?$StrTraitMFC_DLL@DV?$ChTraitsCRT@D@ATL@@@@@ATL@@QAE@XZ
__unwindfunclet$??0CSTConfigEnv_Setup@@QAE@XZ$13:
  0009c	8b 4d f0	 mov	 ecx, DWORD PTR _this$[ebp]
  0009f	83 c1 58	 add	 ecx, 88			; 00000058H
  000a2	ff 25 00 00 00
	00		 jmp	 DWORD PTR __imp_??1?$CStringT@DV?$StrTraitMFC_DLL@DV?$ChTraitsCRT@D@ATL@@@@@ATL@@QAE@XZ
__unwindfunclet$??0CSTConfigEnv_Setup@@QAE@XZ$14:
  000a8	8b 4d f0	 mov	 ecx, DWORD PTR _this$[ebp]
  000ab	83 c1 60	 add	 ecx, 96			; 00000060H
  000ae	ff 25 00 00 00
	00		 jmp	 DWORD PTR __imp_??1?$CStringT@DV?$StrTraitMFC_DLL@DV?$ChTraitsCRT@D@ATL@@@@@ATL@@QAE@XZ
__unwindfunclet$??0CSTConfigEnv_Setup@@QAE@XZ$15:
  000b4	8b 4d f0	 mov	 ecx, DWORD PTR _this$[ebp]
  000b7	83 c1 64	 add	 ecx, 100		; 00000064H
  000ba	ff 25 00 00 00
	00		 jmp	 DWORD PTR __imp_??1?$CStringT@DV?$StrTraitMFC_DLL@DV?$ChTraitsCRT@D@ATL@@@@@ATL@@QAE@XZ
__unwindfunclet$??0CSTConfigEnv_Setup@@QAE@XZ$16:
  000c0	8b 4d f0	 mov	 ecx, DWORD PTR _this$[ebp]
  000c3	83 c1 6c	 add	 ecx, 108		; 0000006cH
  000c6	ff 25 00 00 00
	00		 jmp	 DWORD PTR __imp_??1?$CStringT@DV?$StrTraitMFC_DLL@DV?$ChTraitsCRT@D@ATL@@@@@ATL@@QAE@XZ
__unwindfunclet$??0CSTConfigEnv_Setup@@QAE@XZ$17:
  000cc	8b 4d f0	 mov	 ecx, DWORD PTR _this$[ebp]
  000cf	83 c1 70	 add	 ecx, 112		; 00000070H
  000d2	ff 25 00 00 00
	00		 jmp	 DWORD PTR __imp_??1?$CStringT@DV?$StrTraitMFC_DLL@DV?$ChTraitsCRT@D@ATL@@@@@ATL@@QAE@XZ
__unwindfunclet$??0CSTConfigEnv_Setup@@QAE@XZ$18:
  000d8	8b 4d f0	 mov	 ecx, DWORD PTR _this$[ebp]
  000db	83 c1 74	 add	 ecx, 116		; 00000074H
  000de	ff 25 00 00 00
	00		 jmp	 DWORD PTR __imp_??1?$CStringT@DV?$StrTraitMFC_DLL@DV?$ChTraitsCRT@D@ATL@@@@@ATL@@QAE@XZ
__unwindfunclet$??0CSTConfigEnv_Setup@@QAE@XZ$19:
  000e4	8b 4d f0	 mov	 ecx, DWORD PTR _this$[ebp]
  000e7	83 c1 78	 add	 ecx, 120		; 00000078H
  000ea	ff 25 00 00 00
	00		 jmp	 DWORD PTR __imp_??1?$CStringT@DV?$StrTraitMFC_DLL@DV?$ChTraitsCRT@D@ATL@@@@@ATL@@QAE@XZ
__unwindfunclet$??0CSTConfigEnv_Setup@@QAE@XZ$20:
  000f0	8b 4d f0	 mov	 ecx, DWORD PTR _this$[ebp]
  000f3	81 c1 88 00 00
	00		 add	 ecx, 136		; 00000088H
  000f9	ff 25 00 00 00
	00		 jmp	 DWORD PTR __imp_??1?$CStringT@DV?$StrTraitMFC_DLL@DV?$ChTraitsCRT@D@ATL@@@@@ATL@@QAE@XZ
  000ff	cc		 int	 3
  00100	cc		 int	 3
  00101	cc		 int	 3
  00102	cc		 int	 3
  00103	cc		 int	 3
__ehhandler$??0CSTConfigEnv_Setup@@QAE@XZ:
  00104	90		 npad	 1
  00105	90		 npad	 1
  00106	8b 54 24 08	 mov	 edx, DWORD PTR [esp+8]
  0010a	8d 42 0c	 lea	 eax, DWORD PTR [edx+12]
  0010d	8b 4a ec	 mov	 ecx, DWORD PTR [edx-20]
  00110	33 c8		 xor	 ecx, eax
  00112	e8 00 00 00 00	 call	 @__security_check_cookie@4
  00117	b8 00 00 00 00	 mov	 eax, OFFSET __ehfuncinfo$??0CSTConfigEnv_Setup@@QAE@XZ
  0011c	e9 00 00 00 00	 jmp	 ___CxxFrameHandler3
text$x	ENDS
??0CSTConfigEnv_Setup@@QAE@XZ ENDP			; CSTConfigEnv_Setup::CSTConfigEnv_Setup
; Function compile flags: /Ogtp
; File D:\git\src\IBK\IBK_DRFN\ProjSrc\SrcDrfn\Chart\Common_ST\STConfigEnv.h
;	COMDAT ?LoadInfo@CSTConfigEnv_Signal@@QAEXPBD@Z
_TEXT	SEGMENT
_szKey$ = -280						; size = 4
_szTmp$ = -276						; size = 260
__$ArrayPad$ = -16					; size = 4
__$EHRec$ = -12						; size = 12
_szFileName$ = 8					; size = 4
?LoadInfo@CSTConfigEnv_Signal@@QAEXPBD@Z PROC		; CSTConfigEnv_Signal::LoadInfo, COMDAT
; _this$ = ecx

; 645  : {

  00000	55		 push	 ebp
  00001	8b ec		 mov	 ebp, esp
  00003	6a ff		 push	 -1
  00005	68 00 00 00 00	 push	 __ehhandler$?LoadInfo@CSTConfigEnv_Signal@@QAEXPBD@Z
  0000a	64 a1 00 00 00
	00		 mov	 eax, DWORD PTR fs:0
  00010	50		 push	 eax
  00011	81 ec 0c 01 00
	00		 sub	 esp, 268		; 0000010cH
  00017	a1 00 00 00 00	 mov	 eax, DWORD PTR ___security_cookie
  0001c	33 c5		 xor	 eax, ebp
  0001e	89 45 f0	 mov	 DWORD PTR __$ArrayPad$[ebp], eax
  00021	53		 push	 ebx
  00022	56		 push	 esi
  00023	57		 push	 edi
  00024	50		 push	 eax
  00025	8d 45 f4	 lea	 eax, DWORD PTR __$EHRec$[ebp]
  00028	64 a3 00 00 00
	00		 mov	 DWORD PTR fs:0, eax
  0002e	8b f9		 mov	 edi, ecx
  00030	8b 5d 08	 mov	 ebx, DWORD PTR _szFileName$[ebp]

; 646  : 	CString szKey;

  00033	8d 8d e8 fe ff
	ff		 lea	 ecx, DWORD PTR _szKey$[ebp]
  00039	ff 15 00 00 00
	00		 call	 DWORD PTR __imp_??0?$CStringT@DV?$StrTraitMFC_DLL@DV?$ChTraitsCRT@D@ATL@@@@@ATL@@QAE@XZ

; 647  : 	COLORREF clrSignal = RGB(0,0,0);
; 648  : 
; 649  : 	char szTmp[MAX_PATH];
; 650  : 
; 651  : 	if(m_pDefInfo)

  0003f	83 7f 20 00	 cmp	 DWORD PTR [edi+32], 0
  00043	8d 8d e8 fe ff
	ff		 lea	 ecx, DWORD PTR _szKey$[ebp]
  00049	c7 45 fc 00 00
	00 00		 mov	 DWORD PTR __$EHRec$[ebp+8], 0
  00050	68 00 00 00 00	 push	 OFFSET ??_C@_08LLMMGHPD@ShapeBuy@
  00055	0f 84 b6 01 00
	00		 je	 $LN2@LoadInfo

; 652  : 	{
; 653  : 		//  . Start...
; 654  : 		int nSel = 0;
; 655  : 		// szKey.Format("CB_%s", TRS_ST_BUY);			// 
; 656  : 		szKey = SHAPEBUY;

  0005b	ff 15 00 00 00
	00		 call	 DWORD PTR __imp_??4?$CStringT@DV?$StrTraitMFC_DLL@DV?$ChTraitsCRT@D@ATL@@@@@ATL@@QAEAAV01@PBD@Z

; 657  : 		m_ShapeBuy = ::GetPrivateProfileInt(STCONFIG_SIGNAL, szKey, m_pDefInfo->m_ShapeBuy, szFileName);

  00061	8b 47 20	 mov	 eax, DWORD PTR [edi+32]
  00064	8b 35 00 00 00
	00		 mov	 esi, DWORD PTR __imp__GetPrivateProfileIntA@16
  0006a	53		 push	 ebx
  0006b	ff 30		 push	 DWORD PTR [eax]
  0006d	ff b5 e8 fe ff
	ff		 push	 DWORD PTR _szKey$[ebp]
  00073	68 00 00 00 00	 push	 OFFSET ??_C@_06CPODCDOI@Signal@
  00078	ff d6		 call	 esi
  0007a	89 07		 mov	 DWORD PTR [edi], eax

; 658  : 		if(m_ShapeBuy<0) m_ShapeBuy=0;

  0007c	85 c0		 test	 eax, eax
  0007e	79 06		 jns	 SHORT $LN4@LoadInfo
  00080	c7 07 00 00 00
	00		 mov	 DWORD PTR [edi], 0
$LN4@LoadInfo:

; 659  : 
; 660  : 		//szKey.Format("CB_%s", TRS_ST_EXITLONG);		// 
; 661  : 		szKey = SHAPEEXITLONG;

  00086	68 00 00 00 00	 push	 OFFSET ??_C@_0O@GJJKDADC@ShapeExitlong@
  0008b	8d 8d e8 fe ff
	ff		 lea	 ecx, DWORD PTR _szKey$[ebp]
  00091	ff 15 00 00 00
	00		 call	 DWORD PTR __imp_??4?$CStringT@DV?$StrTraitMFC_DLL@DV?$ChTraitsCRT@D@ATL@@@@@ATL@@QAEAAV01@PBD@Z

; 662  : 		m_ShapeExitlong = ::GetPrivateProfileInt(STCONFIG_SIGNAL, szKey, m_pDefInfo->m_ShapeExitlong, szFileName);

  00097	8b 47 20	 mov	 eax, DWORD PTR [edi+32]
  0009a	53		 push	 ebx
  0009b	ff 70 04	 push	 DWORD PTR [eax+4]
  0009e	ff b5 e8 fe ff
	ff		 push	 DWORD PTR _szKey$[ebp]
  000a4	68 00 00 00 00	 push	 OFFSET ??_C@_06CPODCDOI@Signal@
  000a9	ff d6		 call	 esi
  000ab	89 47 04	 mov	 DWORD PTR [edi+4], eax

; 663  : 		if(m_ShapeExitlong<0) m_ShapeExitlong=0;

  000ae	85 c0		 test	 eax, eax
  000b0	79 07		 jns	 SHORT $LN5@LoadInfo
  000b2	c7 47 04 00 00
	00 00		 mov	 DWORD PTR [edi+4], 0
$LN5@LoadInfo:

; 664  : 
; 665  : 		//szKey.Format("CB_%s", TRS_ST_SELL);			// 
; 666  : 		szKey = SHAPESELL;

  000b9	68 00 00 00 00	 push	 OFFSET ??_C@_09PKDDMDFM@ShapeSell@
  000be	8d 8d e8 fe ff
	ff		 lea	 ecx, DWORD PTR _szKey$[ebp]
  000c4	ff 15 00 00 00
	00		 call	 DWORD PTR __imp_??4?$CStringT@DV?$StrTraitMFC_DLL@DV?$ChTraitsCRT@D@ATL@@@@@ATL@@QAEAAV01@PBD@Z

; 667  : 		m_ShapeSell = ::GetPrivateProfileInt(STCONFIG_SIGNAL, szKey, m_pDefInfo->m_ShapeSell, szFileName);

  000ca	8b 47 20	 mov	 eax, DWORD PTR [edi+32]
  000cd	53		 push	 ebx
  000ce	ff 70 08	 push	 DWORD PTR [eax+8]
  000d1	ff b5 e8 fe ff
	ff		 push	 DWORD PTR _szKey$[ebp]
  000d7	68 00 00 00 00	 push	 OFFSET ??_C@_06CPODCDOI@Signal@
  000dc	ff d6		 call	 esi
  000de	89 47 08	 mov	 DWORD PTR [edi+8], eax

; 668  : 		if(m_ShapeSell<0) m_ShapeSell=0;

  000e1	85 c0		 test	 eax, eax
  000e3	79 07		 jns	 SHORT $LN6@LoadInfo
  000e5	c7 47 08 00 00
	00 00		 mov	 DWORD PTR [edi+8], 0
$LN6@LoadInfo:

; 669  : 
; 670  : 		//szKey.Format("CB_%s", TRS_ST_EXITSHORT);	// 
; 671  : 		szKey = SHAPEEXITSHORT;

  000ec	68 00 00 00 00	 push	 OFFSET ??_C@_0P@GBBMBNOC@ShapeExitshort@
  000f1	8d 8d e8 fe ff
	ff		 lea	 ecx, DWORD PTR _szKey$[ebp]
  000f7	ff 15 00 00 00
	00		 call	 DWORD PTR __imp_??4?$CStringT@DV?$StrTraitMFC_DLL@DV?$ChTraitsCRT@D@ATL@@@@@ATL@@QAEAAV01@PBD@Z

; 672  : 		m_ShapeExitshort = ::GetPrivateProfileInt(STCONFIG_SIGNAL, szKey, m_pDefInfo->m_ShapeExitshort, szFileName);

  000fd	8b 47 20	 mov	 eax, DWORD PTR [edi+32]
  00100	53		 push	 ebx
  00101	ff 70 0c	 push	 DWORD PTR [eax+12]
  00104	ff b5 e8 fe ff
	ff		 push	 DWORD PTR _szKey$[ebp]
  0010a	68 00 00 00 00	 push	 OFFSET ??_C@_06CPODCDOI@Signal@
  0010f	ff d6		 call	 esi
  00111	89 47 0c	 mov	 DWORD PTR [edi+12], eax

; 673  : 		if(m_ShapeExitshort<0) m_ShapeExitshort=0;

  00114	85 c0		 test	 eax, eax
  00116	79 07		 jns	 SHORT $LN7@LoadInfo
  00118	c7 47 0c 00 00
	00 00		 mov	 DWORD PTR [edi+12], 0
$LN7@LoadInfo:

; 674  : 		//  . End
; 675  : 
; 676  : 
; 677  : 		//   . Start...
; 678  : 		//szKey.Format("CLR_%s", TRS_ST_BUY);			// 
; 679  : 		szKey = COLORBUY;

  0011f	68 00 00 00 00	 push	 OFFSET ??_C@_06HGIOMLFJ@ClrBuy@
  00124	8d 8d e8 fe ff
	ff		 lea	 ecx, DWORD PTR _szKey$[ebp]
  0012a	ff 15 00 00 00
	00		 call	 DWORD PTR __imp_??4?$CStringT@DV?$StrTraitMFC_DLL@DV?$ChTraitsCRT@D@ATL@@@@@ATL@@QAEAAV01@PBD@Z

; 680  : 		GetPrivateProfileString(STCONFIG_SIGNAL, szKey, m_pDefInfo->m_ClrBuy, szTmp, MAX_PATH, szFileName);

  00130	8b 35 00 00 00
	00		 mov	 esi, DWORD PTR __imp__GetPrivateProfileStringA@24
  00136	8d 85 ec fe ff
	ff		 lea	 eax, DWORD PTR _szTmp$[ebp]
  0013c	53		 push	 ebx
  0013d	68 04 01 00 00	 push	 260			; 00000104H
  00142	50		 push	 eax
  00143	8b 47 20	 mov	 eax, DWORD PTR [edi+32]
  00146	ff 70 10	 push	 DWORD PTR [eax+16]
  00149	ff b5 e8 fe ff
	ff		 push	 DWORD PTR _szKey$[ebp]
  0014f	68 00 00 00 00	 push	 OFFSET ??_C@_06CPODCDOI@Signal@
  00154	ff d6		 call	 esi

; 681  : 		m_ClrBuy = szTmp;

  00156	8d 85 ec fe ff
	ff		 lea	 eax, DWORD PTR _szTmp$[ebp]
  0015c	50		 push	 eax
  0015d	8d 4f 10	 lea	 ecx, DWORD PTR [edi+16]
  00160	ff 15 00 00 00
	00		 call	 DWORD PTR __imp_??4?$CStringT@DV?$StrTraitMFC_DLL@DV?$ChTraitsCRT@D@ATL@@@@@ATL@@QAEAAV01@PBD@Z

; 682  : 
; 683  : 		//szKey.Format("CLR_%s", TRS_ST_EXITLONG);		// 
; 684  : 		szKey = COLOREXITLONG;

  00166	68 00 00 00 00	 push	 OFFSET ??_C@_0M@FJPKOBBF@ClrExitlong@
  0016b	8d 8d e8 fe ff
	ff		 lea	 ecx, DWORD PTR _szKey$[ebp]
  00171	ff 15 00 00 00
	00		 call	 DWORD PTR __imp_??4?$CStringT@DV?$StrTraitMFC_DLL@DV?$ChTraitsCRT@D@ATL@@@@@ATL@@QAEAAV01@PBD@Z

; 685  : 		GetPrivateProfileString(STCONFIG_SIGNAL, szKey, m_pDefInfo->m_ClrExitlong, szTmp, MAX_PATH, szFileName);

  00177	53		 push	 ebx
  00178	68 04 01 00 00	 push	 260			; 00000104H
  0017d	8d 85 ec fe ff
	ff		 lea	 eax, DWORD PTR _szTmp$[ebp]
  00183	50		 push	 eax
  00184	8b 47 20	 mov	 eax, DWORD PTR [edi+32]
  00187	ff 70 14	 push	 DWORD PTR [eax+20]
  0018a	ff b5 e8 fe ff
	ff		 push	 DWORD PTR _szKey$[ebp]
  00190	68 00 00 00 00	 push	 OFFSET ??_C@_06CPODCDOI@Signal@
  00195	ff d6		 call	 esi

; 686  : 		m_ClrExitlong = szTmp;

  00197	8d 85 ec fe ff
	ff		 lea	 eax, DWORD PTR _szTmp$[ebp]
  0019d	50		 push	 eax
  0019e	8d 4f 14	 lea	 ecx, DWORD PTR [edi+20]
  001a1	ff 15 00 00 00
	00		 call	 DWORD PTR __imp_??4?$CStringT@DV?$StrTraitMFC_DLL@DV?$ChTraitsCRT@D@ATL@@@@@ATL@@QAEAAV01@PBD@Z

; 687  : 
; 688  : 		//szKey.Format("CLR_%s", TRS_ST_SELL);			// 
; 689  : 		szKey = COLORSELL;

  001a7	68 00 00 00 00	 push	 OFFSET ??_C@_07MMPNMLAG@ClrSell@
  001ac	8d 8d e8 fe ff
	ff		 lea	 ecx, DWORD PTR _szKey$[ebp]
  001b2	ff 15 00 00 00
	00		 call	 DWORD PTR __imp_??4?$CStringT@DV?$StrTraitMFC_DLL@DV?$ChTraitsCRT@D@ATL@@@@@ATL@@QAEAAV01@PBD@Z

; 690  : 		GetPrivateProfileString(STCONFIG_SIGNAL, szKey, m_pDefInfo->m_ClrSell, szTmp, MAX_PATH, szFileName);

  001b8	53		 push	 ebx
  001b9	68 04 01 00 00	 push	 260			; 00000104H
  001be	8d 85 ec fe ff
	ff		 lea	 eax, DWORD PTR _szTmp$[ebp]
  001c4	50		 push	 eax
  001c5	8b 47 20	 mov	 eax, DWORD PTR [edi+32]
  001c8	ff 70 18	 push	 DWORD PTR [eax+24]
  001cb	ff b5 e8 fe ff
	ff		 push	 DWORD PTR _szKey$[ebp]
  001d1	68 00 00 00 00	 push	 OFFSET ??_C@_06CPODCDOI@Signal@
  001d6	ff d6		 call	 esi

; 691  : 		m_ClrSell = szTmp;

  001d8	8d 85 ec fe ff
	ff		 lea	 eax, DWORD PTR _szTmp$[ebp]
  001de	50		 push	 eax
  001df	8d 4f 18	 lea	 ecx, DWORD PTR [edi+24]
  001e2	ff 15 00 00 00
	00		 call	 DWORD PTR __imp_??4?$CStringT@DV?$StrTraitMFC_DLL@DV?$ChTraitsCRT@D@ATL@@@@@ATL@@QAEAAV01@PBD@Z

; 692  : 
; 693  : 		// szKey.Format("CLR_%s", TRS_ST_EXITSHORT);	// 
; 694  : 		szKey = COLOREXITSHORT;

  001e8	68 00 00 00 00	 push	 OFFSET ??_C@_0N@MECGMIFI@ClrExitshort@
  001ed	8d 8d e8 fe ff
	ff		 lea	 ecx, DWORD PTR _szKey$[ebp]
  001f3	ff 15 00 00 00
	00		 call	 DWORD PTR __imp_??4?$CStringT@DV?$StrTraitMFC_DLL@DV?$ChTraitsCRT@D@ATL@@@@@ATL@@QAEAAV01@PBD@Z

; 695  : 		GetPrivateProfileString(STCONFIG_SIGNAL, szKey, m_pDefInfo->m_ClrExitshort, szTmp, MAX_PATH, szFileName);

  001f9	53		 push	 ebx
  001fa	68 04 01 00 00	 push	 260			; 00000104H
  001ff	8d 85 ec fe ff
	ff		 lea	 eax, DWORD PTR _szTmp$[ebp]
  00205	50		 push	 eax
  00206	8b 47 20	 mov	 eax, DWORD PTR [edi+32]
  00209	ff 70 1c	 push	 DWORD PTR [eax+28]

; 696  : 		m_ClrExitshort = szTmp;
; 697  : 		//   . End
; 698  : 	}

  0020c	e9 9e 01 00 00	 jmp	 $LN55@LoadInfo
$LN2@LoadInfo:

; 699  : 	else
; 700  : 	{
; 701  : 		//  . Start...
; 702  : 		int nSel = 0;
; 703  : 		// szKey.Format("CB_%s", TRS_ST_BUY);			// 
; 704  : 		szKey = SHAPEBUY;

  00211	ff 15 00 00 00
	00		 call	 DWORD PTR __imp_??4?$CStringT@DV?$StrTraitMFC_DLL@DV?$ChTraitsCRT@D@ATL@@@@@ATL@@QAEAAV01@PBD@Z

; 705  : 		m_ShapeBuy = ::GetPrivateProfileInt(STCONFIG_SIGNAL, szKey, 0, szFileName);

  00217	8b 35 00 00 00
	00		 mov	 esi, DWORD PTR __imp__GetPrivateProfileIntA@16
  0021d	53		 push	 ebx
  0021e	6a 00		 push	 0
  00220	ff b5 e8 fe ff
	ff		 push	 DWORD PTR _szKey$[ebp]
  00226	68 00 00 00 00	 push	 OFFSET ??_C@_06CPODCDOI@Signal@
  0022b	ff d6		 call	 esi
  0022d	89 07		 mov	 DWORD PTR [edi], eax

; 706  : 		if(m_ShapeBuy<0) m_ShapeBuy=0;

  0022f	85 c0		 test	 eax, eax
  00231	79 06		 jns	 SHORT $LN8@LoadInfo
  00233	c7 07 00 00 00
	00		 mov	 DWORD PTR [edi], 0
$LN8@LoadInfo:

; 707  : 
; 708  : 		//szKey.Format("CB_%s", TRS_ST_EXITLONG);		// 
; 709  : 		szKey = SHAPEEXITLONG;

  00239	68 00 00 00 00	 push	 OFFSET ??_C@_0O@GJJKDADC@ShapeExitlong@
  0023e	8d 8d e8 fe ff
	ff		 lea	 ecx, DWORD PTR _szKey$[ebp]
  00244	ff 15 00 00 00
	00		 call	 DWORD PTR __imp_??4?$CStringT@DV?$StrTraitMFC_DLL@DV?$ChTraitsCRT@D@ATL@@@@@ATL@@QAEAAV01@PBD@Z

; 710  : 		m_ShapeExitlong = ::GetPrivateProfileInt(STCONFIG_SIGNAL, szKey, 0, szFileName);

  0024a	53		 push	 ebx
  0024b	6a 00		 push	 0
  0024d	ff b5 e8 fe ff
	ff		 push	 DWORD PTR _szKey$[ebp]
  00253	68 00 00 00 00	 push	 OFFSET ??_C@_06CPODCDOI@Signal@
  00258	ff d6		 call	 esi
  0025a	89 47 04	 mov	 DWORD PTR [edi+4], eax

; 711  : 		if(m_ShapeExitlong<0) m_ShapeExitlong=0;

  0025d	85 c0		 test	 eax, eax
  0025f	79 07		 jns	 SHORT $LN9@LoadInfo
  00261	c7 47 04 00 00
	00 00		 mov	 DWORD PTR [edi+4], 0
$LN9@LoadInfo:

; 712  : 
; 713  : 		//szKey.Format("CB_%s", TRS_ST_SELL);			// 
; 714  : 		szKey = SHAPESELL;

  00268	68 00 00 00 00	 push	 OFFSET ??_C@_09PKDDMDFM@ShapeSell@
  0026d	8d 8d e8 fe ff
	ff		 lea	 ecx, DWORD PTR _szKey$[ebp]
  00273	ff 15 00 00 00
	00		 call	 DWORD PTR __imp_??4?$CStringT@DV?$StrTraitMFC_DLL@DV?$ChTraitsCRT@D@ATL@@@@@ATL@@QAEAAV01@PBD@Z

; 715  : 		m_ShapeSell = ::GetPrivateProfileInt(STCONFIG_SIGNAL, szKey, 0, szFileName);

  00279	53		 push	 ebx
  0027a	6a 00		 push	 0
  0027c	ff b5 e8 fe ff
	ff		 push	 DWORD PTR _szKey$[ebp]
  00282	68 00 00 00 00	 push	 OFFSET ??_C@_06CPODCDOI@Signal@
  00287	ff d6		 call	 esi
  00289	89 47 08	 mov	 DWORD PTR [edi+8], eax

; 716  : 		if(m_ShapeSell<0) m_ShapeSell=0;

  0028c	85 c0		 test	 eax, eax
  0028e	79 07		 jns	 SHORT $LN10@LoadInfo
  00290	c7 47 08 00 00
	00 00		 mov	 DWORD PTR [edi+8], 0
$LN10@LoadInfo:

; 717  : 
; 718  : 		//szKey.Format("CB_%s", TRS_ST_EXITSHORT);	// 
; 719  : 		szKey = SHAPEEXITSHORT;

  00297	68 00 00 00 00	 push	 OFFSET ??_C@_0P@GBBMBNOC@ShapeExitshort@
  0029c	8d 8d e8 fe ff
	ff		 lea	 ecx, DWORD PTR _szKey$[ebp]
  002a2	ff 15 00 00 00
	00		 call	 DWORD PTR __imp_??4?$CStringT@DV?$StrTraitMFC_DLL@DV?$ChTraitsCRT@D@ATL@@@@@ATL@@QAEAAV01@PBD@Z

; 720  : 		m_ShapeExitshort = ::GetPrivateProfileInt(STCONFIG_SIGNAL, szKey, 0, szFileName);

  002a8	53		 push	 ebx
  002a9	6a 00		 push	 0
  002ab	ff b5 e8 fe ff
	ff		 push	 DWORD PTR _szKey$[ebp]
  002b1	68 00 00 00 00	 push	 OFFSET ??_C@_06CPODCDOI@Signal@
  002b6	ff d6		 call	 esi
  002b8	89 47 0c	 mov	 DWORD PTR [edi+12], eax

; 721  : 		if(m_ShapeExitshort<0) m_ShapeExitshort=0;

  002bb	85 c0		 test	 eax, eax
  002bd	79 07		 jns	 SHORT $LN11@LoadInfo
  002bf	c7 47 0c 00 00
	00 00		 mov	 DWORD PTR [edi+12], 0
$LN11@LoadInfo:

; 722  : 		//  . End
; 723  : 
; 724  : 
; 725  : 		//   . Start...
; 726  : 		//szKey.Format("CLR_%s", TRS_ST_BUY);			// 
; 727  : 		szKey = COLORBUY;

  002c6	68 00 00 00 00	 push	 OFFSET ??_C@_06HGIOMLFJ@ClrBuy@
  002cb	8d 8d e8 fe ff
	ff		 lea	 ecx, DWORD PTR _szKey$[ebp]
  002d1	ff 15 00 00 00
	00		 call	 DWORD PTR __imp_??4?$CStringT@DV?$StrTraitMFC_DLL@DV?$ChTraitsCRT@D@ATL@@@@@ATL@@QAEAAV01@PBD@Z

; 728  : 		GetPrivateProfileString(STCONFIG_SIGNAL, szKey, "255", szTmp, MAX_PATH, szFileName);

  002d7	8b 35 00 00 00
	00		 mov	 esi, DWORD PTR __imp__GetPrivateProfileStringA@24
  002dd	8d 85 ec fe ff
	ff		 lea	 eax, DWORD PTR _szTmp$[ebp]
  002e3	53		 push	 ebx
  002e4	68 04 01 00 00	 push	 260			; 00000104H
  002e9	50		 push	 eax
  002ea	68 00 00 00 00	 push	 OFFSET ??_C@_03EAIPFAE@255@
  002ef	ff b5 e8 fe ff
	ff		 push	 DWORD PTR _szKey$[ebp]
  002f5	68 00 00 00 00	 push	 OFFSET ??_C@_06CPODCDOI@Signal@
  002fa	ff d6		 call	 esi

; 729  : 		m_ClrBuy = szTmp;

  002fc	8d 85 ec fe ff
	ff		 lea	 eax, DWORD PTR _szTmp$[ebp]
  00302	50		 push	 eax
  00303	8d 4f 10	 lea	 ecx, DWORD PTR [edi+16]
  00306	ff 15 00 00 00
	00		 call	 DWORD PTR __imp_??4?$CStringT@DV?$StrTraitMFC_DLL@DV?$ChTraitsCRT@D@ATL@@@@@ATL@@QAEAAV01@PBD@Z

; 730  : 
; 731  : 		//szKey.Format("CLR_%s", TRS_ST_EXITLONG);		// 
; 732  : 		szKey = COLOREXITLONG;

  0030c	68 00 00 00 00	 push	 OFFSET ??_C@_0M@FJPKOBBF@ClrExitlong@
  00311	8d 8d e8 fe ff
	ff		 lea	 ecx, DWORD PTR _szKey$[ebp]
  00317	ff 15 00 00 00
	00		 call	 DWORD PTR __imp_??4?$CStringT@DV?$StrTraitMFC_DLL@DV?$ChTraitsCRT@D@ATL@@@@@ATL@@QAEAAV01@PBD@Z

; 733  : 		GetPrivateProfileString(STCONFIG_SIGNAL, szKey, "16711680", szTmp, MAX_PATH, szFileName);

  0031d	53		 push	 ebx
  0031e	68 04 01 00 00	 push	 260			; 00000104H
  00323	8d 85 ec fe ff
	ff		 lea	 eax, DWORD PTR _szTmp$[ebp]
  00329	50		 push	 eax
  0032a	68 00 00 00 00	 push	 OFFSET ??_C@_08HNMDJOHO@16711680@
  0032f	ff b5 e8 fe ff
	ff		 push	 DWORD PTR _szKey$[ebp]
  00335	68 00 00 00 00	 push	 OFFSET ??_C@_06CPODCDOI@Signal@
  0033a	ff d6		 call	 esi

; 734  : 		m_ClrExitlong = szTmp;

  0033c	8d 85 ec fe ff
	ff		 lea	 eax, DWORD PTR _szTmp$[ebp]
  00342	50		 push	 eax
  00343	8d 4f 14	 lea	 ecx, DWORD PTR [edi+20]
  00346	ff 15 00 00 00
	00		 call	 DWORD PTR __imp_??4?$CStringT@DV?$StrTraitMFC_DLL@DV?$ChTraitsCRT@D@ATL@@@@@ATL@@QAEAAV01@PBD@Z

; 735  : 
; 736  : 		//szKey.Format("CLR_%s", TRS_ST_SELL);			// 
; 737  : 		szKey = COLORSELL;

  0034c	68 00 00 00 00	 push	 OFFSET ??_C@_07MMPNMLAG@ClrSell@
  00351	8d 8d e8 fe ff
	ff		 lea	 ecx, DWORD PTR _szKey$[ebp]
  00357	ff 15 00 00 00
	00		 call	 DWORD PTR __imp_??4?$CStringT@DV?$StrTraitMFC_DLL@DV?$ChTraitsCRT@D@ATL@@@@@ATL@@QAEAAV01@PBD@Z

; 738  : 		GetPrivateProfileString(STCONFIG_SIGNAL, szKey, "16711680", szTmp, MAX_PATH, szFileName);

  0035d	53		 push	 ebx
  0035e	68 04 01 00 00	 push	 260			; 00000104H
  00363	8d 85 ec fe ff
	ff		 lea	 eax, DWORD PTR _szTmp$[ebp]
  00369	50		 push	 eax
  0036a	68 00 00 00 00	 push	 OFFSET ??_C@_08HNMDJOHO@16711680@
  0036f	ff b5 e8 fe ff
	ff		 push	 DWORD PTR _szKey$[ebp]
  00375	68 00 00 00 00	 push	 OFFSET ??_C@_06CPODCDOI@Signal@
  0037a	ff d6		 call	 esi

; 739  : 		m_ClrSell = szTmp;

  0037c	8d 85 ec fe ff
	ff		 lea	 eax, DWORD PTR _szTmp$[ebp]
  00382	50		 push	 eax
  00383	8d 4f 18	 lea	 ecx, DWORD PTR [edi+24]
  00386	ff 15 00 00 00
	00		 call	 DWORD PTR __imp_??4?$CStringT@DV?$StrTraitMFC_DLL@DV?$ChTraitsCRT@D@ATL@@@@@ATL@@QAEAAV01@PBD@Z

; 740  : 
; 741  : 		// szKey.Format("CLR_%s", TRS_ST_EXITSHORT);	// 
; 742  : 		szKey = COLOREXITSHORT;

  0038c	68 00 00 00 00	 push	 OFFSET ??_C@_0N@MECGMIFI@ClrExitshort@
  00391	8d 8d e8 fe ff
	ff		 lea	 ecx, DWORD PTR _szKey$[ebp]
  00397	ff 15 00 00 00
	00		 call	 DWORD PTR __imp_??4?$CStringT@DV?$StrTraitMFC_DLL@DV?$ChTraitsCRT@D@ATL@@@@@ATL@@QAEAAV01@PBD@Z

; 743  : 		GetPrivateProfileString(STCONFIG_SIGNAL, szKey, "255", szTmp, MAX_PATH, szFileName);

  0039d	53		 push	 ebx
  0039e	68 04 01 00 00	 push	 260			; 00000104H
  003a3	8d 85 ec fe ff
	ff		 lea	 eax, DWORD PTR _szTmp$[ebp]
  003a9	50		 push	 eax
  003aa	68 00 00 00 00	 push	 OFFSET ??_C@_03EAIPFAE@255@
$LN55@LoadInfo:

; 744  : 		m_ClrExitshort = szTmp;
; 745  : 		//   . End
; 746  : 	}
; 747  : }

  003af	ff b5 e8 fe ff
	ff		 push	 DWORD PTR _szKey$[ebp]
  003b5	68 00 00 00 00	 push	 OFFSET ??_C@_06CPODCDOI@Signal@
  003ba	ff d6		 call	 esi
  003bc	8d 85 ec fe ff
	ff		 lea	 eax, DWORD PTR _szTmp$[ebp]
  003c2	50		 push	 eax
  003c3	8d 4f 1c	 lea	 ecx, DWORD PTR [edi+28]
  003c6	ff 15 00 00 00
	00		 call	 DWORD PTR __imp_??4?$CStringT@DV?$StrTraitMFC_DLL@DV?$ChTraitsCRT@D@ATL@@@@@ATL@@QAEAAV01@PBD@Z
  003cc	8d 8d e8 fe ff
	ff		 lea	 ecx, DWORD PTR _szKey$[ebp]
  003d2	ff 15 00 00 00
	00		 call	 DWORD PTR __imp_??1?$CStringT@DV?$StrTraitMFC_DLL@DV?$ChTraitsCRT@D@ATL@@@@@ATL@@QAE@XZ
  003d8	8b 4d f4	 mov	 ecx, DWORD PTR __$EHRec$[ebp]
  003db	64 89 0d 00 00
	00 00		 mov	 DWORD PTR fs:0, ecx
  003e2	59		 pop	 ecx
  003e3	5f		 pop	 edi
  003e4	5e		 pop	 esi
  003e5	5b		 pop	 ebx
  003e6	8b 4d f0	 mov	 ecx, DWORD PTR __$ArrayPad$[ebp]
  003e9	33 cd		 xor	 ecx, ebp
  003eb	e8 00 00 00 00	 call	 @__security_check_cookie@4
  003f0	8b e5		 mov	 esp, ebp
  003f2	5d		 pop	 ebp
  003f3	c2 04 00	 ret	 4
_TEXT	ENDS
;	COMDAT text$x
text$x	SEGMENT
__unwindfunclet$?LoadInfo@CSTConfigEnv_Signal@@QAEXPBD@Z$0:
  00000	8d 8d e8 fe ff
	ff		 lea	 ecx, DWORD PTR _szKey$[ebp]
  00006	ff 25 00 00 00
	00		 jmp	 DWORD PTR __imp_??1?$CStringT@DV?$StrTraitMFC_DLL@DV?$ChTraitsCRT@D@ATL@@@@@ATL@@QAE@XZ
  0000c	cc		 int	 3
  0000d	cc		 int	 3
  0000e	cc		 int	 3
  0000f	cc		 int	 3
  00010	cc		 int	 3
__ehhandler$?LoadInfo@CSTConfigEnv_Signal@@QAEXPBD@Z:
  00011	90		 npad	 1
  00012	90		 npad	 1
  00013	8b 54 24 08	 mov	 edx, DWORD PTR [esp+8]
  00017	8d 42 0c	 lea	 eax, DWORD PTR [edx+12]
  0001a	8b 8a e4 fe ff
	ff		 mov	 ecx, DWORD PTR [edx-284]
  00020	33 c8		 xor	 ecx, eax
  00022	e8 00 00 00 00	 call	 @__security_check_cookie@4
  00027	8b 4a fc	 mov	 ecx, DWORD PTR [edx-4]
  0002a	33 c8		 xor	 ecx, eax
  0002c	e8 00 00 00 00	 call	 @__security_check_cookie@4
  00031	b8 00 00 00 00	 mov	 eax, OFFSET __ehfuncinfo$?LoadInfo@CSTConfigEnv_Signal@@QAEXPBD@Z
  00036	e9 00 00 00 00	 jmp	 ___CxxFrameHandler3
text$x	ENDS
?LoadInfo@CSTConfigEnv_Signal@@QAEXPBD@Z ENDP		; CSTConfigEnv_Signal::LoadInfo
; Function compile flags: /Ogtp
; File D:\git\src\IBK\IBK_DRFN\ProjSrc\SrcDrfn\Chart\Common_ST\STConfigEnv.h
;	COMDAT ??1CSTConfigEnv_Signal@@QAE@XZ
_TEXT	SEGMENT
??1CSTConfigEnv_Signal@@QAE@XZ PROC			; CSTConfigEnv_Signal::~CSTConfigEnv_Signal, COMDAT
; _this$ = ecx

; 97   : 	{

  00000	56		 push	 esi
  00001	8b f1		 mov	 esi, ecx
  00003	57		 push	 edi

; 98   : 		if(m_pDefInfo) delete m_pDefInfo; m_pDefInfo=NULL;

  00004	8b 7e 20	 mov	 edi, DWORD PTR [esi+32]
  00007	85 ff		 test	 edi, edi
  00009	74 12		 je	 SHORT $LN7@CSTConfigE
  0000b	8b cf		 mov	 ecx, edi
  0000d	e8 00 00 00 00	 call	 ??1CSTConfigEnv_Signal@@QAE@XZ ; CSTConfigEnv_Signal::~CSTConfigEnv_Signal
  00012	6a 24		 push	 36			; 00000024H
  00014	57		 push	 edi
  00015	e8 00 00 00 00	 call	 ??3@YAXPAXI@Z		; operator delete
  0001a	83 c4 08	 add	 esp, 8
$LN7@CSTConfigE:

; 99   : 	}

  0001d	8d 4e 1c	 lea	 ecx, DWORD PTR [esi+28]
  00020	c7 46 20 00 00
	00 00		 mov	 DWORD PTR [esi+32], 0
  00027	ff 15 00 00 00
	00		 call	 DWORD PTR __imp_??1?$CStringT@DV?$StrTraitMFC_DLL@DV?$ChTraitsCRT@D@ATL@@@@@ATL@@QAE@XZ
  0002d	8d 4e 18	 lea	 ecx, DWORD PTR [esi+24]
  00030	ff 15 00 00 00
	00		 call	 DWORD PTR __imp_??1?$CStringT@DV?$StrTraitMFC_DLL@DV?$ChTraitsCRT@D@ATL@@@@@ATL@@QAE@XZ
  00036	8d 4e 14	 lea	 ecx, DWORD PTR [esi+20]
  00039	ff 15 00 00 00
	00		 call	 DWORD PTR __imp_??1?$CStringT@DV?$StrTraitMFC_DLL@DV?$ChTraitsCRT@D@ATL@@@@@ATL@@QAE@XZ
  0003f	5f		 pop	 edi
  00040	8d 4e 10	 lea	 ecx, DWORD PTR [esi+16]
  00043	5e		 pop	 esi
  00044	ff 25 00 00 00
	00		 jmp	 DWORD PTR __imp_??1?$CStringT@DV?$StrTraitMFC_DLL@DV?$ChTraitsCRT@D@ATL@@@@@ATL@@QAE@XZ
??1CSTConfigEnv_Signal@@QAE@XZ ENDP			; CSTConfigEnv_Signal::~CSTConfigEnv_Signal
_TEXT	ENDS
; Function compile flags: /Ogtp
; File D:\git\src\IBK\IBK_DRFN\ProjSrc\SrcDrfn\Chart\Common_ST\STConfigEnv.h
;	COMDAT ??0CSTConfigEnv_Signal@@QAE@XZ
_TEXT	SEGMENT
_this$ = -16						; size = 4
__$EHRec$ = -12						; size = 12
??0CSTConfigEnv_Signal@@QAE@XZ PROC			; CSTConfigEnv_Signal::CSTConfigEnv_Signal, COMDAT
; _this$ = ecx

; 92   : 	{

  00000	55		 push	 ebp
  00001	8b ec		 mov	 ebp, esp
  00003	6a ff		 push	 -1
  00005	68 00 00 00 00	 push	 __ehhandler$??0CSTConfigEnv_Signal@@QAE@XZ
  0000a	64 a1 00 00 00
	00		 mov	 eax, DWORD PTR fs:0
  00010	50		 push	 eax
  00011	51		 push	 ecx
  00012	56		 push	 esi
  00013	a1 00 00 00 00	 mov	 eax, DWORD PTR ___security_cookie
  00018	33 c5		 xor	 eax, ebp
  0001a	50		 push	 eax
  0001b	8d 45 f4	 lea	 eax, DWORD PTR __$EHRec$[ebp]
  0001e	64 a3 00 00 00
	00		 mov	 DWORD PTR fs:0, eax
  00024	8b f1		 mov	 esi, ecx
  00026	89 75 f0	 mov	 DWORD PTR _this$[ebp], esi

; 91   : 		,m_ClrBuy("255"), m_ClrExitlong("16711680"), m_ClrSell("16711680"), m_ClrExitshort("255")

  00029	68 00 00 00 00	 push	 OFFSET ??_C@_03EAIPFAE@255@
  0002e	8d 4e 10	 lea	 ecx, DWORD PTR [esi+16]
  00031	c7 06 00 00 00
	00		 mov	 DWORD PTR [esi], 0
  00037	c7 46 04 00 00
	00 00		 mov	 DWORD PTR [esi+4], 0
  0003e	c7 46 08 00 00
	00 00		 mov	 DWORD PTR [esi+8], 0
  00045	c7 46 0c 00 00
	00 00		 mov	 DWORD PTR [esi+12], 0
  0004c	ff 15 00 00 00
	00		 call	 DWORD PTR __imp_??0?$CStringT@DV?$StrTraitMFC_DLL@DV?$ChTraitsCRT@D@ATL@@@@@ATL@@QAE@PBD@Z
  00052	68 00 00 00 00	 push	 OFFSET ??_C@_08HNMDJOHO@16711680@
  00057	8d 4e 14	 lea	 ecx, DWORD PTR [esi+20]
  0005a	c7 45 fc 00 00
	00 00		 mov	 DWORD PTR __$EHRec$[ebp+8], 0
  00061	ff 15 00 00 00
	00		 call	 DWORD PTR __imp_??0?$CStringT@DV?$StrTraitMFC_DLL@DV?$ChTraitsCRT@D@ATL@@@@@ATL@@QAE@PBD@Z
  00067	68 00 00 00 00	 push	 OFFSET ??_C@_08HNMDJOHO@16711680@
  0006c	8d 4e 18	 lea	 ecx, DWORD PTR [esi+24]
  0006f	c6 45 fc 01	 mov	 BYTE PTR __$EHRec$[ebp+8], 1
  00073	ff 15 00 00 00
	00		 call	 DWORD PTR __imp_??0?$CStringT@DV?$StrTraitMFC_DLL@DV?$ChTraitsCRT@D@ATL@@@@@ATL@@QAE@PBD@Z
  00079	68 00 00 00 00	 push	 OFFSET ??_C@_03EAIPFAE@255@
  0007e	8d 4e 1c	 lea	 ecx, DWORD PTR [esi+28]
  00081	c6 45 fc 02	 mov	 BYTE PTR __$EHRec$[ebp+8], 2
  00085	ff 15 00 00 00
	00		 call	 DWORD PTR __imp_??0?$CStringT@DV?$StrTraitMFC_DLL@DV?$ChTraitsCRT@D@ATL@@@@@ATL@@QAE@PBD@Z

; 93   : 		m_pDefInfo = NULL;

  0008b	c7 46 20 00 00
	00 00		 mov	 DWORD PTR [esi+32], 0

; 94   : 	}

  00092	8b c6		 mov	 eax, esi
  00094	8b 4d f4	 mov	 ecx, DWORD PTR __$EHRec$[ebp]
  00097	64 89 0d 00 00
	00 00		 mov	 DWORD PTR fs:0, ecx
  0009e	59		 pop	 ecx
  0009f	5e		 pop	 esi
  000a0	8b e5		 mov	 esp, ebp
  000a2	5d		 pop	 ebp
  000a3	c3		 ret	 0
_TEXT	ENDS
;	COMDAT text$x
text$x	SEGMENT
__unwindfunclet$??0CSTConfigEnv_Signal@@QAE@XZ$0:
  00000	8b 4d f0	 mov	 ecx, DWORD PTR _this$[ebp]
  00003	83 c1 10	 add	 ecx, 16			; 00000010H
  00006	ff 25 00 00 00
	00		 jmp	 DWORD PTR __imp_??1?$CStringT@DV?$StrTraitMFC_DLL@DV?$ChTraitsCRT@D@ATL@@@@@ATL@@QAE@XZ
__unwindfunclet$??0CSTConfigEnv_Signal@@QAE@XZ$1:
  0000c	8b 4d f0	 mov	 ecx, DWORD PTR _this$[ebp]
  0000f	83 c1 14	 add	 ecx, 20			; 00000014H
  00012	ff 25 00 00 00
	00		 jmp	 DWORD PTR __imp_??1?$CStringT@DV?$StrTraitMFC_DLL@DV?$ChTraitsCRT@D@ATL@@@@@ATL@@QAE@XZ
__unwindfunclet$??0CSTConfigEnv_Signal@@QAE@XZ$2:
  00018	8b 4d f0	 mov	 ecx, DWORD PTR _this$[ebp]
  0001b	83 c1 18	 add	 ecx, 24			; 00000018H
  0001e	ff 25 00 00 00
	00		 jmp	 DWORD PTR __imp_??1?$CStringT@DV?$StrTraitMFC_DLL@DV?$ChTraitsCRT@D@ATL@@@@@ATL@@QAE@XZ
  00024	cc		 int	 3
  00025	cc		 int	 3
  00026	cc		 int	 3
  00027	cc		 int	 3
  00028	cc		 int	 3
__ehhandler$??0CSTConfigEnv_Signal@@QAE@XZ:
  00029	90		 npad	 1
  0002a	90		 npad	 1
  0002b	8b 54 24 08	 mov	 edx, DWORD PTR [esp+8]
  0002f	8d 42 0c	 lea	 eax, DWORD PTR [edx+12]
  00032	8b 4a f4	 mov	 ecx, DWORD PTR [edx-12]
  00035	33 c8		 xor	 ecx, eax
  00037	e8 00 00 00 00	 call	 @__security_check_cookie@4
  0003c	b8 00 00 00 00	 mov	 eax, OFFSET __ehfuncinfo$??0CSTConfigEnv_Signal@@QAE@XZ
  00041	e9 00 00 00 00	 jmp	 ___CxxFrameHandler3
text$x	ENDS
??0CSTConfigEnv_Signal@@QAE@XZ ENDP			; CSTConfigEnv_Signal::CSTConfigEnv_Signal
; Function compile flags: /Ogtp
; File D:\git\src\IBK\IBK_DRFN\ProjSrc\SrcDrfn\Chart\Common_ST\STConfigEnv.h
; File C:\Program Files (x86)\Microsoft Visual Studio\2019\Community\VC\Tools\MSVC\14.29.30133\atlmfc\include\cstringt.h
; File D:\git\src\IBK\IBK_DRFN\ProjSrc\SrcDrfn\Chart\Common_ST\STConfigEnv.h
; File C:\Program Files (x86)\Microsoft Visual Studio\2019\Community\VC\Tools\MSVC\14.29.30133\atlmfc\include\cstringt.h
; File C:\Program Files (x86)\Microsoft Visual Studio\2019\Community\VC\Tools\MSVC\14.29.30133\atlmfc\include\atlsimpstr.h
; File C:\Program Files (x86)\Microsoft Visual Studio\2019\Community\VC\Tools\MSVC\14.29.30133\atlmfc\include\cstringt.h
; File D:\git\src\IBK\IBK_DRFN\ProjSrc\SrcDrfn\Chart\Common_ST\STConfigEnv.h
; File C:\Program Files (x86)\Microsoft Visual Studio\2019\Community\VC\Tools\MSVC\14.29.30133\atlmfc\include\cstringt.h
; File D:\git\src\IBK\IBK_DRFN\ProjSrc\SrcDrfn\Chart\Common_ST\STConfigEnv.h
; File C:\Program Files (x86)\Microsoft Visual Studio\2019\Community\VC\Tools\MSVC\14.29.30133\atlmfc\include\cstringt.h
; File C:\Program Files (x86)\Microsoft Visual Studio\2019\Community\VC\Tools\MSVC\14.29.30133\atlmfc\include\atlsimpstr.h
; File C:\Program Files (x86)\Microsoft Visual Studio\2019\Community\VC\Tools\MSVC\14.29.30133\atlmfc\include\cstringt.h
; File D:\git\src\IBK\IBK_DRFN\ProjSrc\SrcDrfn\Chart\Common_ST\STConfigEnv.h
;	COMDAT ?LoadInfo@CSTConfigEnv_Jumun@@QAEXPBD@Z
_TEXT	SEGMENT
$T2 = -556						; size = 4
_szDefSoundPath$3 = -552				; size = 4
_szMediaPath$4 = -548					; size = 4
$T5 = -544						; size = 4
$T6 = -544						; size = 4
_szKey$ = -540						; size = 4
_szWindowsPath$7 = -536					; size = 260
_szTmp$ = -276						; size = 260
__$ArrayPad$ = -16					; size = 4
__$EHRec$ = -12						; size = 12
_szFileName$ = 8					; size = 4
?LoadInfo@CSTConfigEnv_Jumun@@QAEXPBD@Z PROC		; CSTConfigEnv_Jumun::LoadInfo, COMDAT
; _this$ = ecx

; 459  : {

  00000	55		 push	 ebp
  00001	8b ec		 mov	 ebp, esp
  00003	6a ff		 push	 -1
  00005	68 00 00 00 00	 push	 __ehhandler$?LoadInfo@CSTConfigEnv_Jumun@@QAEXPBD@Z
  0000a	64 a1 00 00 00
	00		 mov	 eax, DWORD PTR fs:0
  00010	50		 push	 eax
  00011	81 ec 20 02 00
	00		 sub	 esp, 544		; 00000220H
  00017	a1 00 00 00 00	 mov	 eax, DWORD PTR ___security_cookie
  0001c	33 c5		 xor	 eax, ebp
  0001e	89 45 f0	 mov	 DWORD PTR __$ArrayPad$[ebp], eax
  00021	53		 push	 ebx
  00022	56		 push	 esi
  00023	57		 push	 edi
  00024	50		 push	 eax
  00025	8d 45 f4	 lea	 eax, DWORD PTR __$EHRec$[ebp]
  00028	64 a3 00 00 00
	00		 mov	 DWORD PTR fs:0, eax
  0002e	8b f1		 mov	 esi, ecx
  00030	8b 7d 08	 mov	 edi, DWORD PTR _szFileName$[ebp]

; 460  : 	CString szKey;

  00033	8d 8d e4 fd ff
	ff		 lea	 ecx, DWORD PTR _szKey$[ebp]
  00039	c7 85 d4 fd ff
	ff 00 00 00 00	 mov	 DWORD PTR $T2[ebp], 0
  00043	ff 15 00 00 00
	00		 call	 DWORD PTR __imp_??0?$CStringT@DV?$StrTraitMFC_DLL@DV?$ChTraitsCRT@D@ATL@@@@@ATL@@QAE@XZ

; 461  : 	char szTmp[MAX_PATH];
; 462  : 
; 463  : 	if(m_pDefInfo)

  00049	83 7e 70 00	 cmp	 DWORD PTR [esi+112], 0
  0004d	8d 85 e4 fd ff
	ff		 lea	 eax, DWORD PTR _szKey$[ebp]
  00053	8b 1d 00 00 00
	00		 mov	 ebx, DWORD PTR __imp_?Format@?$CStringT@DV?$StrTraitMFC_DLL@DV?$ChTraitsCRT@D@ATL@@@@@ATL@@QAAXPBDZZ
  00059	68 00 00 00 00	 push	 OFFSET ??_C@_04HEBPOIHN@Acct@
  0005e	68 00 00 00 00	 push	 OFFSET ??_C@_02DKCKIIND@?$CFs@
  00063	c7 45 fc 00 00
	00 00		 mov	 DWORD PTR __$EHRec$[ebp+8], 0
  0006a	50		 push	 eax
  0006b	0f 84 57 03 00
	00		 je	 $LN2@LoadInfo

; 464  : 	{
; 465  : 		//
; 466  : 		
; 467  : 		if(gCURRENT_COMPANY_ID==nPCTRComID_SAMSUNG)
; 468  : 		{
; 469  : 			szKey.Format("%s", "AcctInfo");
; 470  : 			GetPrivateProfileString(STCONFIG_ORDER, szKey, m_pDefInfo->m_szAcctInfo, szTmp, MAX_PATH, szFileName);
; 471  : 			sprintf(m_szAcctInfo, "%s", szTmp);	// !  50  .
; 472  : 
; 473  : 		}
; 474  : 
; 475  : 		else if(gCURRENT_COMPANY_ID==nPCTRComID_EUGENE)
; 476  : 		{
; 477  : 		//
; 478  : 			szKey.Format("%s", "Acct");

  00071	ff d3		 call	 ebx
  00073	83 c4 0c	 add	 esp, 12			; 0000000cH

; 479  : 			GetPrivateProfileString(STCONFIG_ORDER, szKey, "", szTmp, MAX_PATH, szFileName);

  00076	8d 85 ec fe ff
	ff		 lea	 eax, DWORD PTR _szTmp$[ebp]
  0007c	57		 push	 edi
  0007d	68 04 01 00 00	 push	 260			; 00000104H
  00082	50		 push	 eax
  00083	68 00 00 00 00	 push	 OFFSET ??_C@_00CNPNBAHC@@
  00088	ff b5 e4 fd ff
	ff		 push	 DWORD PTR _szKey$[ebp]
  0008e	68 00 00 00 00	 push	 OFFSET ??_C@_08IFJCKPBE@RunJumun@
  00093	ff 15 00 00 00
	00		 call	 DWORD PTR __imp__GetPrivateProfileStringA@24

; 480  : 			m_szAcctNumber = szTmp;

  00099	8d 85 ec fe ff
	ff		 lea	 eax, DWORD PTR _szTmp$[ebp]
  0009f	50		 push	 eax
  000a0	8d 4e 6c	 lea	 ecx, DWORD PTR [esi+108]
  000a3	ff 15 00 00 00
	00		 call	 DWORD PTR __imp_??4?$CStringT@DV?$StrTraitMFC_DLL@DV?$ChTraitsCRT@D@ATL@@@@@ATL@@QAEAAV01@PBD@Z

; 481  : 			m_nAcct = ::GetPrivateProfileInt(STCONFIG_ORDER, szKey, m_pDefInfo->m_nAcct, szFileName);

  000a9	8b 46 70	 mov	 eax, DWORD PTR [esi+112]
  000ac	57		 push	 edi
  000ad	ff 70 64	 push	 DWORD PTR [eax+100]
  000b0	ff b5 e4 fd ff
	ff		 push	 DWORD PTR _szKey$[ebp]
  000b6	68 00 00 00 00	 push	 OFFSET ??_C@_08IFJCKPBE@RunJumun@
  000bb	ff 15 00 00 00
	00		 call	 DWORD PTR __imp__GetPrivateProfileIntA@16

; 482  : 
; 483  : 		//
; 484  : 			szKey.Format("%s", "AcctName");

  000c1	68 00 00 00 00	 push	 OFFSET ??_C@_08JIEKPDDN@AcctName@
  000c6	89 46 64	 mov	 DWORD PTR [esi+100], eax
  000c9	8d 85 e4 fd ff
	ff		 lea	 eax, DWORD PTR _szKey$[ebp]
  000cf	68 00 00 00 00	 push	 OFFSET ??_C@_02DKCKIIND@?$CFs@
  000d4	50		 push	 eax
  000d5	ff d3		 call	 ebx
  000d7	83 c4 0c	 add	 esp, 12			; 0000000cH

; 485  : 			GetPrivateProfileString(STCONFIG_ORDER, szKey, m_pDefInfo->m_szAcctName, szTmp, MAX_PATH, szFileName);

  000da	8d 85 ec fe ff
	ff		 lea	 eax, DWORD PTR _szTmp$[ebp]
  000e0	57		 push	 edi
  000e1	68 04 01 00 00	 push	 260			; 00000104H
  000e6	50		 push	 eax
  000e7	8b 46 70	 mov	 eax, DWORD PTR [esi+112]
  000ea	ff 70 68	 push	 DWORD PTR [eax+104]
  000ed	ff b5 e4 fd ff
	ff		 push	 DWORD PTR _szKey$[ebp]
  000f3	68 00 00 00 00	 push	 OFFSET ??_C@_08IFJCKPBE@RunJumun@
  000f8	ff 15 00 00 00
	00		 call	 DWORD PTR __imp__GetPrivateProfileStringA@24

; 486  : 			m_szAcctName = szTmp;

  000fe	8d 85 ec fe ff
	ff		 lea	 eax, DWORD PTR _szTmp$[ebp]
  00104	50		 push	 eax
  00105	8d 4e 68	 lea	 ecx, DWORD PTR [esi+104]
  00108	ff 15 00 00 00
	00		 call	 DWORD PTR __imp_??4?$CStringT@DV?$StrTraitMFC_DLL@DV?$ChTraitsCRT@D@ATL@@@@@ATL@@QAEAAV01@PBD@Z

; 487  : 
; 488  : 			//   
; 489  : 			szKey.Format("%s", "MKPRC_ENT");

  0010e	68 00 00 00 00	 push	 OFFSET ??_C@_09PBAMDNFG@MKPRC_ENT@
  00113	8d 85 e4 fd ff
	ff		 lea	 eax, DWORD PTR _szKey$[ebp]
  00119	68 00 00 00 00	 push	 OFFSET ??_C@_02DKCKIIND@?$CFs@
  0011e	50		 push	 eax
  0011f	ff d3		 call	 ebx

; 490  : 			m_nMkprc_Ent = GetPrivateProfileInt(STCONFIG_ORDER, szKey, m_pDefInfo->m_nMkprc_Ent, szFileName);

  00121	8b 46 70	 mov	 eax, DWORD PTR [esi+112]
  00124	83 c4 0c	 add	 esp, 12			; 0000000cH
  00127	57		 push	 edi
  00128	ff 70 5c	 push	 DWORD PTR [eax+92]
  0012b	ff b5 e4 fd ff
	ff		 push	 DWORD PTR _szKey$[ebp]
  00131	68 00 00 00 00	 push	 OFFSET ??_C@_08IFJCKPBE@RunJumun@
  00136	ff 15 00 00 00
	00		 call	 DWORD PTR __imp__GetPrivateProfileIntA@16

; 491  : 
; 492  : 			//   
; 493  : 			szKey.Format("%s", "MKPRC_CLR");

  0013c	68 00 00 00 00	 push	 OFFSET ??_C@_09IBLJBBGC@MKPRC_CLR@
  00141	89 46 5c	 mov	 DWORD PTR [esi+92], eax
  00144	8d 85 e4 fd ff
	ff		 lea	 eax, DWORD PTR _szKey$[ebp]
  0014a	68 00 00 00 00	 push	 OFFSET ??_C@_02DKCKIIND@?$CFs@
  0014f	50		 push	 eax
  00150	ff d3		 call	 ebx

; 494  : 			m_nMkprc_Clr = GetPrivateProfileInt(STCONFIG_ORDER, szKey, m_pDefInfo->m_nMkprc_Clr, szFileName);

  00152	8b 46 70	 mov	 eax, DWORD PTR [esi+112]
  00155	83 c4 0c	 add	 esp, 12			; 0000000cH
  00158	57		 push	 edi
  00159	ff 70 60	 push	 DWORD PTR [eax+96]
  0015c	ff b5 e4 fd ff
	ff		 push	 DWORD PTR _szKey$[ebp]
  00162	68 00 00 00 00	 push	 OFFSET ??_C@_08IFJCKPBE@RunJumun@
  00167	ff 15 00 00 00
	00		 call	 DWORD PTR __imp__GetPrivateProfileIntA@16

; 495  : 		}
; 496  : 		//
; 497  : 		szKey.Format("%s", "JAmount");

  0016d	68 00 00 00 00	 push	 OFFSET ??_C@_07DKAPHGBA@JAmount@
  00172	89 46 60	 mov	 DWORD PTR [esi+96], eax
  00175	8d 85 e4 fd ff
	ff		 lea	 eax, DWORD PTR _szKey$[ebp]
  0017b	68 00 00 00 00	 push	 OFFSET ??_C@_02DKCKIIND@?$CFs@
  00180	50		 push	 eax
  00181	ff d3		 call	 ebx

; 498  : 		m_nJAmount = GetPrivateProfileInt(STCONFIG_ORDER, szKey, m_pDefInfo->m_nJAmount, szFileName);

  00183	8b 46 70	 mov	 eax, DWORD PTR [esi+112]
  00186	83 c4 0c	 add	 esp, 12			; 0000000cH
  00189	57		 push	 edi
  0018a	ff 70 34	 push	 DWORD PTR [eax+52]
  0018d	ff b5 e4 fd ff
	ff		 push	 DWORD PTR _szKey$[ebp]
  00193	68 00 00 00 00	 push	 OFFSET ??_C@_08IFJCKPBE@RunJumun@
  00198	ff 15 00 00 00
	00		 call	 DWORD PTR __imp__GetPrivateProfileIntA@16

; 499  : 
; 500  : 		//
; 501  : 		szKey.Format("%s", "BuyPrice");

  0019e	68 00 00 00 00	 push	 OFFSET ??_C@_08OPHLCDJG@BuyPrice@
  001a3	89 46 34	 mov	 DWORD PTR [esi+52], eax
  001a6	68 00 00 00 00	 push	 OFFSET ??_C@_02DKCKIIND@?$CFs@
  001ab	8d 85 e4 fd ff
	ff		 lea	 eax, DWORD PTR _szKey$[ebp]
  001b1	50		 push	 eax
  001b2	ff d3		 call	 ebx

; 502  : 		m_nBuyPrice = ::GetPrivateProfileInt(STCONFIG_ORDER, szKey, m_pDefInfo->m_nBuyPrice, szFileName);

  001b4	8b 46 70	 mov	 eax, DWORD PTR [esi+112]
  001b7	83 c4 0c	 add	 esp, 12			; 0000000cH
  001ba	57		 push	 edi
  001bb	ff 70 38	 push	 DWORD PTR [eax+56]
  001be	ff b5 e4 fd ff
	ff		 push	 DWORD PTR _szKey$[ebp]
  001c4	68 00 00 00 00	 push	 OFFSET ??_C@_08IFJCKPBE@RunJumun@
  001c9	ff 15 00 00 00
	00		 call	 DWORD PTR __imp__GetPrivateProfileIntA@16
  001cf	89 46 38	 mov	 DWORD PTR [esi+56], eax

; 503  : 		if(m_nBuyPrice<0) m_nBuyPrice=0;

  001d2	85 c0		 test	 eax, eax
  001d4	79 07		 jns	 SHORT $LN7@LoadInfo
  001d6	c7 46 38 00 00
	00 00		 mov	 DWORD PTR [esi+56], 0
$LN7@LoadInfo:

; 504  : 
; 505  : 		//
; 506  : 		szKey.Format("%s", "SellPrice");

  001dd	68 00 00 00 00	 push	 OFFSET ??_C@_09IFJBEAG@SellPrice@
  001e2	8d 85 e4 fd ff
	ff		 lea	 eax, DWORD PTR _szKey$[ebp]
  001e8	68 00 00 00 00	 push	 OFFSET ??_C@_02DKCKIIND@?$CFs@
  001ed	50		 push	 eax
  001ee	ff d3		 call	 ebx

; 507  : 		m_nSellPrice = ::GetPrivateProfileInt(STCONFIG_ORDER, szKey, m_pDefInfo->m_nSellPrice, szFileName);

  001f0	8b 46 70	 mov	 eax, DWORD PTR [esi+112]
  001f3	83 c4 0c	 add	 esp, 12			; 0000000cH
  001f6	57		 push	 edi
  001f7	ff 70 3c	 push	 DWORD PTR [eax+60]
  001fa	ff b5 e4 fd ff
	ff		 push	 DWORD PTR _szKey$[ebp]
  00200	68 00 00 00 00	 push	 OFFSET ??_C@_08IFJCKPBE@RunJumun@
  00205	ff 15 00 00 00
	00		 call	 DWORD PTR __imp__GetPrivateProfileIntA@16
  0020b	89 46 3c	 mov	 DWORD PTR [esi+60], eax

; 508  : 		if(m_nSellPrice<0) m_nSellPrice=0;

  0020e	85 c0		 test	 eax, eax
  00210	79 07		 jns	 SHORT $LN8@LoadInfo
  00212	c7 46 3c 00 00
	00 00		 mov	 DWORD PTR [esi+60], 0
$LN8@LoadInfo:

; 509  : 
; 510  : 		//
; 511  : 		szKey.Format("%s", "JMethod");

  00219	68 00 00 00 00	 push	 OFFSET ??_C@_07OPLPMPLO@JMethod@
  0021e	8d 85 e4 fd ff
	ff		 lea	 eax, DWORD PTR _szKey$[ebp]
  00224	68 00 00 00 00	 push	 OFFSET ??_C@_02DKCKIIND@?$CFs@
  00229	50		 push	 eax
  0022a	ff d3		 call	 ebx

; 512  : 		m_nJMethod = ::GetPrivateProfileInt(STCONFIG_ORDER, szKey, m_pDefInfo->m_nJMethod, szFileName);

  0022c	8b 46 70	 mov	 eax, DWORD PTR [esi+112]
  0022f	83 c4 0c	 add	 esp, 12			; 0000000cH
  00232	57		 push	 edi
  00233	ff 70 40	 push	 DWORD PTR [eax+64]
  00236	ff b5 e4 fd ff
	ff		 push	 DWORD PTR _szKey$[ebp]
  0023c	68 00 00 00 00	 push	 OFFSET ??_C@_08IFJCKPBE@RunJumun@
  00241	ff 15 00 00 00
	00		 call	 DWORD PTR __imp__GetPrivateProfileIntA@16
  00247	89 46 40	 mov	 DWORD PTR [esi+64], eax

; 513  : 		if(m_nJMethod<0) m_nJMethod=0;

  0024a	85 c0		 test	 eax, eax
  0024c	79 07		 jns	 SHORT $LN9@LoadInfo
  0024e	c7 46 40 00 00
	00 00		 mov	 DWORD PTR [esi+64], 0
$LN9@LoadInfo:

; 514  : 
; 515  : 		//
; 516  : 		szKey.Format("%s", "JTime");

  00255	68 00 00 00 00	 push	 OFFSET ??_C@_05DDMGGBEF@JTime@
  0025a	8d 85 e4 fd ff
	ff		 lea	 eax, DWORD PTR _szKey$[ebp]
  00260	68 00 00 00 00	 push	 OFFSET ??_C@_02DKCKIIND@?$CFs@
  00265	50		 push	 eax
  00266	ff d3		 call	 ebx

; 517  : 		m_nJTime = ::GetPrivateProfileInt(STCONFIG_ORDER, szKey, m_pDefInfo->m_nJTime, szFileName);

  00268	8b 46 70	 mov	 eax, DWORD PTR [esi+112]
  0026b	83 c4 0c	 add	 esp, 12			; 0000000cH
  0026e	57		 push	 edi
  0026f	ff 70 44	 push	 DWORD PTR [eax+68]
  00272	ff b5 e4 fd ff
	ff		 push	 DWORD PTR _szKey$[ebp]
  00278	68 00 00 00 00	 push	 OFFSET ??_C@_08IFJCKPBE@RunJumun@
  0027d	ff 15 00 00 00
	00		 call	 DWORD PTR __imp__GetPrivateProfileIntA@16
  00283	89 46 44	 mov	 DWORD PTR [esi+68], eax

; 518  : 		if(m_nJTime<0) m_nJTime=0;

  00286	85 c0		 test	 eax, eax
  00288	79 07		 jns	 SHORT $LN10@LoadInfo
  0028a	c7 46 44 00 00
	00 00		 mov	 DWORD PTR [esi+68], 0
$LN10@LoadInfo:

; 519  : 
; 520  : 		//
; 521  : 		szKey.Format("%s", "JStartSignal");

  00291	68 00 00 00 00	 push	 OFFSET ??_C@_0N@PHFNPPGD@JStartSignal@
  00296	8d 85 e4 fd ff
	ff		 lea	 eax, DWORD PTR _szKey$[ebp]
  0029c	68 00 00 00 00	 push	 OFFSET ??_C@_02DKCKIIND@?$CFs@
  002a1	50		 push	 eax
  002a2	ff d3		 call	 ebx

; 522  : 		m_nJStartSignal = ::GetPrivateProfileInt(STCONFIG_ORDER, szKey, m_pDefInfo->m_nJStartSignal, szFileName);

  002a4	8b 46 70	 mov	 eax, DWORD PTR [esi+112]
  002a7	83 c4 0c	 add	 esp, 12			; 0000000cH
  002aa	57		 push	 edi
  002ab	ff 70 48	 push	 DWORD PTR [eax+72]
  002ae	ff b5 e4 fd ff
	ff		 push	 DWORD PTR _szKey$[ebp]
  002b4	68 00 00 00 00	 push	 OFFSET ??_C@_08IFJCKPBE@RunJumun@
  002b9	ff 15 00 00 00
	00		 call	 DWORD PTR __imp__GetPrivateProfileIntA@16
  002bf	89 46 48	 mov	 DWORD PTR [esi+72], eax

; 523  : 		if(m_nJStartSignal<0) m_nJStartSignal=0;

  002c2	85 c0		 test	 eax, eax
  002c4	79 07		 jns	 SHORT $LN11@LoadInfo
  002c6	c7 46 48 00 00
	00 00		 mov	 DWORD PTR [esi+72], 0
$LN11@LoadInfo:

; 524  : 
; 525  : 		//_ 
; 526  : 		szKey.Format("%s", "Sound_Buy_Use");

  002cd	68 00 00 00 00	 push	 OFFSET ??_C@_0O@GGGJIOBG@Sound_Buy_Use@
  002d2	8d 85 e4 fd ff
	ff		 lea	 eax, DWORD PTR _szKey$[ebp]
  002d8	68 00 00 00 00	 push	 OFFSET ??_C@_02DKCKIIND@?$CFs@
  002dd	50		 push	 eax
  002de	ff d3		 call	 ebx

; 527  : 		m_bSound_Buy_Use = (BOOL)::GetPrivateProfileInt(STCONFIG_ORDER, szKey, m_pDefInfo->m_bSound_Buy_Use, szFileName);

  002e0	8b 46 70	 mov	 eax, DWORD PTR [esi+112]
  002e3	83 c4 0c	 add	 esp, 12			; 0000000cH
  002e6	57		 push	 edi
  002e7	ff 70 4c	 push	 DWORD PTR [eax+76]
  002ea	ff b5 e4 fd ff
	ff		 push	 DWORD PTR _szKey$[ebp]
  002f0	68 00 00 00 00	 push	 OFFSET ??_C@_08IFJCKPBE@RunJumun@
  002f5	ff 15 00 00 00
	00		 call	 DWORD PTR __imp__GetPrivateProfileIntA@16

; 528  : 
; 529  : 		//_ 
; 530  : 		szKey.Format("%s", "Sound_Buy_File");

  002fb	68 00 00 00 00	 push	 OFFSET ??_C@_0P@PLANCCBL@Sound_Buy_File@
  00300	89 46 4c	 mov	 DWORD PTR [esi+76], eax
  00303	8d 85 e4 fd ff
	ff		 lea	 eax, DWORD PTR _szKey$[ebp]
  00309	68 00 00 00 00	 push	 OFFSET ??_C@_02DKCKIIND@?$CFs@
  0030e	50		 push	 eax
  0030f	ff d3		 call	 ebx
  00311	83 c4 0c	 add	 esp, 12			; 0000000cH

; 531  : 		GetPrivateProfileString(STCONFIG_ORDER, szKey, m_pDefInfo->m_szSound_Buy_File, szTmp, MAX_PATH, szFileName);

  00314	8d 85 ec fe ff
	ff		 lea	 eax, DWORD PTR _szTmp$[ebp]
  0031a	57		 push	 edi
  0031b	68 04 01 00 00	 push	 260			; 00000104H
  00320	50		 push	 eax
  00321	8b 46 70	 mov	 eax, DWORD PTR [esi+112]
  00324	ff 70 50	 push	 DWORD PTR [eax+80]
  00327	ff b5 e4 fd ff
	ff		 push	 DWORD PTR _szKey$[ebp]
  0032d	68 00 00 00 00	 push	 OFFSET ??_C@_08IFJCKPBE@RunJumun@
  00332	ff 15 00 00 00
	00		 call	 DWORD PTR __imp__GetPrivateProfileStringA@24

; 532  : 		m_szSound_Buy_File = szTmp;

  00338	8d 85 ec fe ff
	ff		 lea	 eax, DWORD PTR _szTmp$[ebp]
  0033e	50		 push	 eax
  0033f	8d 4e 50	 lea	 ecx, DWORD PTR [esi+80]
  00342	ff 15 00 00 00
	00		 call	 DWORD PTR __imp_??4?$CStringT@DV?$StrTraitMFC_DLL@DV?$ChTraitsCRT@D@ATL@@@@@ATL@@QAEAAV01@PBD@Z

; 533  : 
; 534  : 		//_ 
; 535  : 		szKey.Format("%s", "Sound_Sell_Use");

  00348	68 00 00 00 00	 push	 OFFSET ??_C@_0P@ELHCNFMP@Sound_Sell_Use@
  0034d	8d 85 e4 fd ff
	ff		 lea	 eax, DWORD PTR _szKey$[ebp]
  00353	68 00 00 00 00	 push	 OFFSET ??_C@_02DKCKIIND@?$CFs@
  00358	50		 push	 eax
  00359	ff d3		 call	 ebx

; 536  : 		m_bSound_Sell_Use = (BOOL)::GetPrivateProfileInt(STCONFIG_ORDER, szKey, m_pDefInfo->m_bSound_Sell_Use, szFileName);

  0035b	8b 46 70	 mov	 eax, DWORD PTR [esi+112]
  0035e	83 c4 0c	 add	 esp, 12			; 0000000cH
  00361	57		 push	 edi
  00362	ff 70 54	 push	 DWORD PTR [eax+84]
  00365	ff b5 e4 fd ff
	ff		 push	 DWORD PTR _szKey$[ebp]
  0036b	68 00 00 00 00	 push	 OFFSET ??_C@_08IFJCKPBE@RunJumun@
  00370	ff 15 00 00 00
	00		 call	 DWORD PTR __imp__GetPrivateProfileIntA@16

; 537  : 
; 538  : 		//_ 
; 539  : 		szKey.Format("%s", "Sound_Sell_File");

  00376	68 00 00 00 00	 push	 OFFSET ??_C@_0BA@ECPFDDA@Sound_Sell_File@
  0037b	89 46 54	 mov	 DWORD PTR [esi+84], eax
  0037e	8d 85 e4 fd ff
	ff		 lea	 eax, DWORD PTR _szKey$[ebp]
  00384	68 00 00 00 00	 push	 OFFSET ??_C@_02DKCKIIND@?$CFs@
  00389	50		 push	 eax
  0038a	ff d3		 call	 ebx
  0038c	83 c4 0c	 add	 esp, 12			; 0000000cH

; 540  : 		GetPrivateProfileString(STCONFIG_ORDER, szKey, m_pDefInfo->m_szSound_Sell_File, szTmp, MAX_PATH, szFileName);

  0038f	8d 85 ec fe ff
	ff		 lea	 eax, DWORD PTR _szTmp$[ebp]
  00395	57		 push	 edi
  00396	68 04 01 00 00	 push	 260			; 00000104H
  0039b	50		 push	 eax
  0039c	8b 46 70	 mov	 eax, DWORD PTR [esi+112]
  0039f	ff 70 58	 push	 DWORD PTR [eax+88]
  003a2	ff b5 e4 fd ff
	ff		 push	 DWORD PTR _szKey$[ebp]
  003a8	68 00 00 00 00	 push	 OFFSET ??_C@_08IFJCKPBE@RunJumun@
  003ad	ff 15 00 00 00
	00		 call	 DWORD PTR __imp__GetPrivateProfileStringA@24

; 541  : 		m_szSound_Sell_File = szTmp;

  003b3	8d 85 ec fe ff
	ff		 lea	 eax, DWORD PTR _szTmp$[ebp]
  003b9	50		 push	 eax
  003ba	8d 4e 58	 lea	 ecx, DWORD PTR [esi+88]
  003bd	ff 15 00 00 00
	00		 call	 DWORD PTR __imp_??4?$CStringT@DV?$StrTraitMFC_DLL@DV?$ChTraitsCRT@D@ATL@@@@@ATL@@QAEAAV01@PBD@Z

; 542  : 
; 543  : 
; 544  : 	}

  003c3	e9 35 04 00 00	 jmp	 $LN3@LoadInfo
$LN2@LoadInfo:

; 545  : 	else
; 546  : 	{
; 547  : 		if(gCURRENT_COMPANY_ID==nPCTRComID_SAMSUNG)
; 548  : 		{
; 549  : 			//
; 550  : 			szKey.Format("%s", "AcctInfo");
; 551  : 			GetPrivateProfileString(STCONFIG_ORDER, szKey, "", szTmp, MAX_PATH, szFileName);
; 552  : 			sprintf(m_szAcctInfo, "%s", szTmp);	// !  50  .
; 553  : 		}
; 554  : 		else if(gCURRENT_COMPANY_ID==nPCTRComID_EUGENE)
; 555  : 		{
; 556  : 		//
; 557  : 			szKey.Format("%s", "Acct");

  003c8	ff d3		 call	 ebx
  003ca	83 c4 0c	 add	 esp, 12			; 0000000cH

; 558  : 			m_nAcct = ::GetPrivateProfileInt(STCONFIG_ORDER, szKey, 0, szFileName);

  003cd	57		 push	 edi
  003ce	6a 00		 push	 0
  003d0	ff b5 e4 fd ff
	ff		 push	 DWORD PTR _szKey$[ebp]
  003d6	68 00 00 00 00	 push	 OFFSET ??_C@_08IFJCKPBE@RunJumun@
  003db	ff 15 00 00 00
	00		 call	 DWORD PTR __imp__GetPrivateProfileIntA@16
  003e1	89 46 64	 mov	 DWORD PTR [esi+100], eax

; 559  : 			if(m_nAcct<0) m_nAcct=0;

  003e4	85 c0		 test	 eax, eax
  003e6	79 07		 jns	 SHORT $LN15@LoadInfo
  003e8	c7 46 64 00 00
	00 00		 mov	 DWORD PTR [esi+100], 0
$LN15@LoadInfo:

; 560  : 			
; 561  : 		//
; 562  : 			szKey.Format("%s", "AcctName");

  003ef	68 00 00 00 00	 push	 OFFSET ??_C@_08JIEKPDDN@AcctName@
  003f4	8d 85 e4 fd ff
	ff		 lea	 eax, DWORD PTR _szKey$[ebp]
  003fa	68 00 00 00 00	 push	 OFFSET ??_C@_02DKCKIIND@?$CFs@
  003ff	50		 push	 eax
  00400	ff d3		 call	 ebx
  00402	83 c4 0c	 add	 esp, 12			; 0000000cH

; 563  : 			GetPrivateProfileString(STCONFIG_ORDER, szKey, "", szTmp, MAX_PATH, szFileName);

  00405	8d 85 ec fe ff
	ff		 lea	 eax, DWORD PTR _szTmp$[ebp]
  0040b	57		 push	 edi
  0040c	68 04 01 00 00	 push	 260			; 00000104H
  00411	50		 push	 eax
  00412	68 00 00 00 00	 push	 OFFSET ??_C@_00CNPNBAHC@@
  00417	ff b5 e4 fd ff
	ff		 push	 DWORD PTR _szKey$[ebp]
  0041d	68 00 00 00 00	 push	 OFFSET ??_C@_08IFJCKPBE@RunJumun@
  00422	ff 15 00 00 00
	00		 call	 DWORD PTR __imp__GetPrivateProfileStringA@24

; 564  : 			m_szAcctName = szTmp;

  00428	8d 85 ec fe ff
	ff		 lea	 eax, DWORD PTR _szTmp$[ebp]
  0042e	50		 push	 eax
  0042f	8d 4e 68	 lea	 ecx, DWORD PTR [esi+104]
  00432	ff 15 00 00 00
	00		 call	 DWORD PTR __imp_??4?$CStringT@DV?$StrTraitMFC_DLL@DV?$ChTraitsCRT@D@ATL@@@@@ATL@@QAEAAV01@PBD@Z

; 565  : 
; 566  : 
; 567  : 			//   
; 568  : 			szKey.Format("%s", "MKPRC_ENT");

  00438	68 00 00 00 00	 push	 OFFSET ??_C@_09PBAMDNFG@MKPRC_ENT@
  0043d	8d 85 e4 fd ff
	ff		 lea	 eax, DWORD PTR _szKey$[ebp]
  00443	68 00 00 00 00	 push	 OFFSET ??_C@_02DKCKIIND@?$CFs@
  00448	50		 push	 eax
  00449	ff d3		 call	 ebx
  0044b	83 c4 0c	 add	 esp, 12			; 0000000cH

; 569  : 			m_nMkprc_Ent = GetPrivateProfileInt(STCONFIG_ORDER, szKey, 0, szFileName);

  0044e	57		 push	 edi
  0044f	6a 00		 push	 0
  00451	ff b5 e4 fd ff
	ff		 push	 DWORD PTR _szKey$[ebp]
  00457	68 00 00 00 00	 push	 OFFSET ??_C@_08IFJCKPBE@RunJumun@
  0045c	ff 15 00 00 00
	00		 call	 DWORD PTR __imp__GetPrivateProfileIntA@16

; 570  : 
; 571  : 			//   
; 572  : 			szKey.Format("%s", "MKPRC_CLR");

  00462	68 00 00 00 00	 push	 OFFSET ??_C@_09IBLJBBGC@MKPRC_CLR@
  00467	89 46 5c	 mov	 DWORD PTR [esi+92], eax
  0046a	8d 85 e4 fd ff
	ff		 lea	 eax, DWORD PTR _szKey$[ebp]
  00470	68 00 00 00 00	 push	 OFFSET ??_C@_02DKCKIIND@?$CFs@
  00475	50		 push	 eax
  00476	ff d3		 call	 ebx
  00478	83 c4 0c	 add	 esp, 12			; 0000000cH

; 573  : 			m_nMkprc_Clr = GetPrivateProfileInt(STCONFIG_ORDER, szKey, 0, szFileName);

  0047b	57		 push	 edi
  0047c	6a 00		 push	 0
  0047e	ff b5 e4 fd ff
	ff		 push	 DWORD PTR _szKey$[ebp]
  00484	68 00 00 00 00	 push	 OFFSET ??_C@_08IFJCKPBE@RunJumun@
  00489	ff 15 00 00 00
	00		 call	 DWORD PTR __imp__GetPrivateProfileIntA@16

; 574  : 		}
; 575  : 		//
; 576  : 		szKey.Format("%s", "JAmount");

  0048f	68 00 00 00 00	 push	 OFFSET ??_C@_07DKAPHGBA@JAmount@
  00494	89 46 60	 mov	 DWORD PTR [esi+96], eax
  00497	8d 85 e4 fd ff
	ff		 lea	 eax, DWORD PTR _szKey$[ebp]
  0049d	68 00 00 00 00	 push	 OFFSET ??_C@_02DKCKIIND@?$CFs@
  004a2	50		 push	 eax
  004a3	ff d3		 call	 ebx
  004a5	83 c4 0c	 add	 esp, 12			; 0000000cH

; 577  : 		m_nJAmount = GetPrivateProfileInt(STCONFIG_ORDER, szKey, 0, szFileName);

  004a8	57		 push	 edi
  004a9	6a 00		 push	 0
  004ab	ff b5 e4 fd ff
	ff		 push	 DWORD PTR _szKey$[ebp]
  004b1	68 00 00 00 00	 push	 OFFSET ??_C@_08IFJCKPBE@RunJumun@
  004b6	ff 15 00 00 00
	00		 call	 DWORD PTR __imp__GetPrivateProfileIntA@16

; 578  : 
; 579  : 		//
; 580  : 		szKey.Format("%s", "BuyPrice");

  004bc	68 00 00 00 00	 push	 OFFSET ??_C@_08OPHLCDJG@BuyPrice@
  004c1	89 46 34	 mov	 DWORD PTR [esi+52], eax
  004c4	8d 85 e4 fd ff
	ff		 lea	 eax, DWORD PTR _szKey$[ebp]
  004ca	68 00 00 00 00	 push	 OFFSET ??_C@_02DKCKIIND@?$CFs@
  004cf	50		 push	 eax
  004d0	ff d3		 call	 ebx
  004d2	83 c4 0c	 add	 esp, 12			; 0000000cH

; 581  : 		m_nBuyPrice = ::GetPrivateProfileInt(STCONFIG_ORDER, szKey, 0, szFileName);

  004d5	57		 push	 edi
  004d6	6a 00		 push	 0
  004d8	ff b5 e4 fd ff
	ff		 push	 DWORD PTR _szKey$[ebp]
  004de	68 00 00 00 00	 push	 OFFSET ??_C@_08IFJCKPBE@RunJumun@
  004e3	ff 15 00 00 00
	00		 call	 DWORD PTR __imp__GetPrivateProfileIntA@16
  004e9	89 46 38	 mov	 DWORD PTR [esi+56], eax

; 582  : 		if(m_nBuyPrice<0) m_nBuyPrice=0;

  004ec	85 c0		 test	 eax, eax
  004ee	79 07		 jns	 SHORT $LN16@LoadInfo
  004f0	c7 46 38 00 00
	00 00		 mov	 DWORD PTR [esi+56], 0
$LN16@LoadInfo:

; 583  : 
; 584  : 		//
; 585  : 		szKey.Format("%s", "SellPrice");

  004f7	68 00 00 00 00	 push	 OFFSET ??_C@_09IFJBEAG@SellPrice@
  004fc	8d 85 e4 fd ff
	ff		 lea	 eax, DWORD PTR _szKey$[ebp]
  00502	68 00 00 00 00	 push	 OFFSET ??_C@_02DKCKIIND@?$CFs@
  00507	50		 push	 eax
  00508	ff d3		 call	 ebx
  0050a	83 c4 0c	 add	 esp, 12			; 0000000cH

; 586  : 		m_nSellPrice = ::GetPrivateProfileInt(STCONFIG_ORDER, szKey, 0, szFileName);

  0050d	57		 push	 edi
  0050e	6a 00		 push	 0
  00510	ff b5 e4 fd ff
	ff		 push	 DWORD PTR _szKey$[ebp]
  00516	68 00 00 00 00	 push	 OFFSET ??_C@_08IFJCKPBE@RunJumun@
  0051b	ff 15 00 00 00
	00		 call	 DWORD PTR __imp__GetPrivateProfileIntA@16
  00521	89 46 3c	 mov	 DWORD PTR [esi+60], eax

; 587  : 		if(m_nSellPrice<0) m_nSellPrice=0;

  00524	85 c0		 test	 eax, eax
  00526	79 07		 jns	 SHORT $LN17@LoadInfo
  00528	c7 46 3c 00 00
	00 00		 mov	 DWORD PTR [esi+60], 0
$LN17@LoadInfo:

; 588  : 
; 589  : 		//
; 590  : 		szKey.Format("%s", "JMethod");

  0052f	68 00 00 00 00	 push	 OFFSET ??_C@_07OPLPMPLO@JMethod@
  00534	8d 85 e4 fd ff
	ff		 lea	 eax, DWORD PTR _szKey$[ebp]
  0053a	68 00 00 00 00	 push	 OFFSET ??_C@_02DKCKIIND@?$CFs@
  0053f	50		 push	 eax
  00540	ff d3		 call	 ebx
  00542	83 c4 0c	 add	 esp, 12			; 0000000cH

; 591  : 		m_nJMethod = ::GetPrivateProfileInt(STCONFIG_ORDER, szKey, 0, szFileName);

  00545	57		 push	 edi
  00546	6a 00		 push	 0
  00548	ff b5 e4 fd ff
	ff		 push	 DWORD PTR _szKey$[ebp]
  0054e	68 00 00 00 00	 push	 OFFSET ??_C@_08IFJCKPBE@RunJumun@
  00553	ff 15 00 00 00
	00		 call	 DWORD PTR __imp__GetPrivateProfileIntA@16
  00559	89 46 40	 mov	 DWORD PTR [esi+64], eax

; 592  : 		if(m_nJMethod<0) m_nJMethod=0;

  0055c	85 c0		 test	 eax, eax
  0055e	79 07		 jns	 SHORT $LN18@LoadInfo
  00560	c7 46 40 00 00
	00 00		 mov	 DWORD PTR [esi+64], 0
$LN18@LoadInfo:

; 593  : 
; 594  : 		//
; 595  : 		szKey.Format("%s", "JTime");

  00567	68 00 00 00 00	 push	 OFFSET ??_C@_05DDMGGBEF@JTime@
  0056c	8d 85 e4 fd ff
	ff		 lea	 eax, DWORD PTR _szKey$[ebp]
  00572	68 00 00 00 00	 push	 OFFSET ??_C@_02DKCKIIND@?$CFs@
  00577	50		 push	 eax
  00578	ff d3		 call	 ebx
  0057a	83 c4 0c	 add	 esp, 12			; 0000000cH

; 596  : 		m_nJTime = ::GetPrivateProfileInt(STCONFIG_ORDER, szKey, 0, szFileName);

  0057d	57		 push	 edi
  0057e	6a 00		 push	 0
  00580	ff b5 e4 fd ff
	ff		 push	 DWORD PTR _szKey$[ebp]
  00586	68 00 00 00 00	 push	 OFFSET ??_C@_08IFJCKPBE@RunJumun@
  0058b	ff 15 00 00 00
	00		 call	 DWORD PTR __imp__GetPrivateProfileIntA@16
  00591	89 46 44	 mov	 DWORD PTR [esi+68], eax

; 597  : 		if(m_nJTime<0) m_nJTime=0;

  00594	85 c0		 test	 eax, eax
  00596	79 07		 jns	 SHORT $LN19@LoadInfo
  00598	c7 46 44 00 00
	00 00		 mov	 DWORD PTR [esi+68], 0
$LN19@LoadInfo:

; 598  : 
; 599  : 		//
; 600  : 		szKey.Format("%s", "JStartSignal");

  0059f	68 00 00 00 00	 push	 OFFSET ??_C@_0N@PHFNPPGD@JStartSignal@
  005a4	8d 85 e4 fd ff
	ff		 lea	 eax, DWORD PTR _szKey$[ebp]
  005aa	68 00 00 00 00	 push	 OFFSET ??_C@_02DKCKIIND@?$CFs@
  005af	50		 push	 eax
  005b0	ff d3		 call	 ebx
  005b2	83 c4 0c	 add	 esp, 12			; 0000000cH

; 601  : 		m_nJStartSignal = ::GetPrivateProfileInt(STCONFIG_ORDER, szKey, 0, szFileName);

  005b5	57		 push	 edi
  005b6	6a 00		 push	 0
  005b8	ff b5 e4 fd ff
	ff		 push	 DWORD PTR _szKey$[ebp]
  005be	68 00 00 00 00	 push	 OFFSET ??_C@_08IFJCKPBE@RunJumun@
  005c3	ff 15 00 00 00
	00		 call	 DWORD PTR __imp__GetPrivateProfileIntA@16
  005c9	89 46 48	 mov	 DWORD PTR [esi+72], eax

; 602  : 		if(m_nJStartSignal<0) m_nJStartSignal=0;

  005cc	85 c0		 test	 eax, eax
  005ce	79 07		 jns	 SHORT $LN20@LoadInfo
  005d0	c7 46 48 00 00
	00 00		 mov	 DWORD PTR [esi+72], 0
$LN20@LoadInfo:

; 603  : 		//KHD :  
; 604  : 		char szWindowsPath[MAX_PATH];
; 605  : 		GetWindowsDirectory(szWindowsPath, MAX_PATH-1);

  005d7	68 03 01 00 00	 push	 259			; 00000103H
  005dc	8d 85 e8 fd ff
	ff		 lea	 eax, DWORD PTR _szWindowsPath$7[ebp]
  005e2	50		 push	 eax
  005e3	ff 15 00 00 00
	00		 call	 DWORD PTR __imp__GetWindowsDirectoryA@8

; 606  : 
; 607  : 		CString szMediaPath;

  005e9	8d 8d dc fd ff
	ff		 lea	 ecx, DWORD PTR _szMediaPath$4[ebp]
  005ef	ff 15 00 00 00
	00		 call	 DWORD PTR __imp_??0?$CStringT@DV?$StrTraitMFC_DLL@DV?$ChTraitsCRT@D@ATL@@@@@ATL@@QAE@XZ

; 608  : 		szMediaPath.Format(_T("%s\\Media\\"), szWindowsPath);

  005f5	8d 85 e8 fd ff
	ff		 lea	 eax, DWORD PTR _szWindowsPath$7[ebp]
  005fb	c6 45 fc 01	 mov	 BYTE PTR __$EHRec$[ebp+8], 1
  005ff	50		 push	 eax
  00600	8d 85 dc fd ff
	ff		 lea	 eax, DWORD PTR _szMediaPath$4[ebp]
  00606	68 00 00 00 00	 push	 OFFSET ??_C@_09HGMEBGJP@?$CFs?2Media?2@
  0060b	50		 push	 eax
  0060c	ff d3		 call	 ebx
  0060e	83 c4 0c	 add	 esp, 12			; 0000000cH

; 609  : 
; 610  : 		CString szDefSoundPath;

  00611	8d 8d d8 fd ff
	ff		 lea	 ecx, DWORD PTR _szDefSoundPath$3[ebp]
  00617	ff 15 00 00 00
	00		 call	 DWORD PTR __imp_??0?$CStringT@DV?$StrTraitMFC_DLL@DV?$ChTraitsCRT@D@ATL@@@@@ATL@@QAE@XZ

; 611  : 		//_ 
; 612  : 		szKey.Format("%s", "Sound_Buy_Use");

  0061d	68 00 00 00 00	 push	 OFFSET ??_C@_0O@GGGJIOBG@Sound_Buy_Use@
  00622	8d 85 e4 fd ff
	ff		 lea	 eax, DWORD PTR _szKey$[ebp]
  00628	c6 45 fc 02	 mov	 BYTE PTR __$EHRec$[ebp+8], 2
  0062c	68 00 00 00 00	 push	 OFFSET ??_C@_02DKCKIIND@?$CFs@
  00631	50		 push	 eax
  00632	ff d3		 call	 ebx
  00634	83 c4 0c	 add	 esp, 12			; 0000000cH

; 613  : 		m_bSound_Buy_Use = (BOOL)::GetPrivateProfileInt(STCONFIG_ORDER, szKey, 0, szFileName);

  00637	57		 push	 edi
  00638	6a 00		 push	 0
  0063a	ff b5 e4 fd ff
	ff		 push	 DWORD PTR _szKey$[ebp]
  00640	68 00 00 00 00	 push	 OFFSET ??_C@_08IFJCKPBE@RunJumun@
  00645	ff 15 00 00 00
	00		 call	 DWORD PTR __imp__GetPrivateProfileIntA@16

; 614  : 
; 615  : 		//_ 
; 616  : 		szKey.Format("%s", "Sound_Buy_File");

  0064b	68 00 00 00 00	 push	 OFFSET ??_C@_0P@PLANCCBL@Sound_Buy_File@
  00650	89 46 4c	 mov	 DWORD PTR [esi+76], eax
  00653	8d 85 e4 fd ff
	ff		 lea	 eax, DWORD PTR _szKey$[ebp]
  00659	68 00 00 00 00	 push	 OFFSET ??_C@_02DKCKIIND@?$CFs@
  0065e	50		 push	 eax
  0065f	ff d3		 call	 ebx
  00661	83 c4 0c	 add	 esp, 12			; 0000000cH
; File C:\Program Files (x86)\Microsoft Visual Studio\2019\Community\VC\Tools\MSVC\14.29.30133\atlmfc\include\cstringt.h

; 2401 : 		CStringT strResult( str1.GetManager() );

  00664	8d 8d dc fd ff
	ff		 lea	 ecx, DWORD PTR _szMediaPath$4[ebp]
; File D:\git\src\IBK\IBK_DRFN\ProjSrc\SrcDrfn\Chart\Common_ST\STConfigEnv.h

; 617  : 		szDefSoundPath = szMediaPath + "ding.wav";

  0066a	c6 45 fc 03	 mov	 BYTE PTR __$EHRec$[ebp+8], 3
; File C:\Program Files (x86)\Microsoft Visual Studio\2019\Community\VC\Tools\MSVC\14.29.30133\atlmfc\include\cstringt.h

; 2401 : 		CStringT strResult( str1.GetManager() );

  0066e	ff 15 00 00 00
	00		 call	 DWORD PTR __imp_?GetManager@?$CStringT@DV?$StrTraitMFC_DLL@DV?$ChTraitsCRT@D@ATL@@@@@ATL@@QBEPAUIAtlStringMgr@2@XZ
  00674	50		 push	 eax
  00675	8d 8d e0 fd ff
	ff		 lea	 ecx, DWORD PTR $T6[ebp]
  0067b	ff 15 00 00 00
	00		 call	 DWORD PTR __imp_??0?$CStringT@DV?$StrTraitMFC_DLL@DV?$ChTraitsCRT@D@ATL@@@@@ATL@@QAE@PAUIAtlStringMgr@1@@Z
; File C:\Program Files (x86)\Microsoft Visual Studio\2019\Community\VC\Tools\MSVC\14.29.30133\atlmfc\include\atlsimpstr.h

; 519  : 		return( GetData()->nDataLength );

  00681	8b 85 dc fd ff
	ff		 mov	 eax, DWORD PTR _szMediaPath$4[ebp]
; File C:\Program Files (x86)\Microsoft Visual Studio\2019\Community\VC\Tools\MSVC\14.29.30133\atlmfc\include\cstringt.h

; 2403 : 		CThisSimpleString::Concatenate( strResult, str1, str1.GetLength(), psz2, CThisSimpleString::StringLength( psz2 ) );

  00687	6a 08		 push	 8
  00689	68 00 00 00 00	 push	 OFFSET ??_C@_08KBMMPOBE@ding?4wav@

; 2404 : 
; 2405 : 		return( strResult );

  0068e	c7 85 d4 fd ff
	ff 01 00 00 00	 mov	 DWORD PTR $T2[ebp], 1
  00698	ff 70 f4	 push	 DWORD PTR [eax-12]
  0069b	50		 push	 eax
  0069c	8d 85 e0 fd ff
	ff		 lea	 eax, DWORD PTR $T6[ebp]
  006a2	50		 push	 eax
  006a3	ff 15 00 00 00
	00		 call	 DWORD PTR __imp_?Concatenate@?$CSimpleStringT@D$00@ATL@@KAXAAV12@PBDH1H@Z
  006a9	83 c4 14	 add	 esp, 20			; 00000014H
; File D:\git\src\IBK\IBK_DRFN\ProjSrc\SrcDrfn\Chart\Common_ST\STConfigEnv.h

; 617  : 		szDefSoundPath = szMediaPath + "ding.wav";

  006ac	8d 85 e0 fd ff
	ff		 lea	 eax, DWORD PTR $T6[ebp]
  006b2	8d 8d d8 fd ff
	ff		 lea	 ecx, DWORD PTR _szDefSoundPath$3[ebp]
  006b8	50		 push	 eax
  006b9	ff 15 00 00 00
	00		 call	 DWORD PTR __imp_??4?$CStringT@DV?$StrTraitMFC_DLL@DV?$ChTraitsCRT@D@ATL@@@@@ATL@@QAEAAV01@ABV01@@Z
  006bf	8d 8d e0 fd ff
	ff		 lea	 ecx, DWORD PTR $T6[ebp]
  006c5	c6 45 fc 02	 mov	 BYTE PTR __$EHRec$[ebp+8], 2
  006c9	ff 15 00 00 00
	00		 call	 DWORD PTR __imp_??1?$CStringT@DV?$StrTraitMFC_DLL@DV?$ChTraitsCRT@D@ATL@@@@@ATL@@QAE@XZ

; 618  : 		GetPrivateProfileString(STCONFIG_ORDER, szKey, szDefSoundPath, szTmp, MAX_PATH, szFileName);

  006cf	57		 push	 edi
  006d0	68 04 01 00 00	 push	 260			; 00000104H
  006d5	8d 85 ec fe ff
	ff		 lea	 eax, DWORD PTR _szTmp$[ebp]
  006db	50		 push	 eax
  006dc	ff b5 d8 fd ff
	ff		 push	 DWORD PTR _szDefSoundPath$3[ebp]
  006e2	ff b5 e4 fd ff
	ff		 push	 DWORD PTR _szKey$[ebp]
  006e8	68 00 00 00 00	 push	 OFFSET ??_C@_08IFJCKPBE@RunJumun@
  006ed	ff 15 00 00 00
	00		 call	 DWORD PTR __imp__GetPrivateProfileStringA@24

; 619  : 		m_szSound_Buy_File = szTmp;

  006f3	8d 85 ec fe ff
	ff		 lea	 eax, DWORD PTR _szTmp$[ebp]
  006f9	50		 push	 eax
  006fa	8d 4e 50	 lea	 ecx, DWORD PTR [esi+80]
  006fd	ff 15 00 00 00
	00		 call	 DWORD PTR __imp_??4?$CStringT@DV?$StrTraitMFC_DLL@DV?$ChTraitsCRT@D@ATL@@@@@ATL@@QAEAAV01@PBD@Z

; 620  : 
; 621  : 		//_ 
; 622  : 		szKey.Format("%s", "Sound_Sell_Use");

  00703	68 00 00 00 00	 push	 OFFSET ??_C@_0P@ELHCNFMP@Sound_Sell_Use@
  00708	8d 85 e4 fd ff
	ff		 lea	 eax, DWORD PTR _szKey$[ebp]
  0070e	68 00 00 00 00	 push	 OFFSET ??_C@_02DKCKIIND@?$CFs@
  00713	50		 push	 eax
  00714	ff d3		 call	 ebx
  00716	83 c4 0c	 add	 esp, 12			; 0000000cH

; 623  : 		m_bSound_Sell_Use = (BOOL)::GetPrivateProfileInt(STCONFIG_ORDER, szKey, 0, szFileName);

  00719	57		 push	 edi
  0071a	6a 00		 push	 0
  0071c	ff b5 e4 fd ff
	ff		 push	 DWORD PTR _szKey$[ebp]
  00722	68 00 00 00 00	 push	 OFFSET ??_C@_08IFJCKPBE@RunJumun@
  00727	ff 15 00 00 00
	00		 call	 DWORD PTR __imp__GetPrivateProfileIntA@16

; 624  : 
; 625  : 		//_ 
; 626  : 		szKey.Format("%s", "Sound_Sell_File");

  0072d	68 00 00 00 00	 push	 OFFSET ??_C@_0BA@ECPFDDA@Sound_Sell_File@
  00732	89 46 54	 mov	 DWORD PTR [esi+84], eax
  00735	8d 85 e4 fd ff
	ff		 lea	 eax, DWORD PTR _szKey$[ebp]
  0073b	68 00 00 00 00	 push	 OFFSET ??_C@_02DKCKIIND@?$CFs@
  00740	50		 push	 eax
  00741	ff d3		 call	 ebx
  00743	83 c4 0c	 add	 esp, 12			; 0000000cH
; File C:\Program Files (x86)\Microsoft Visual Studio\2019\Community\VC\Tools\MSVC\14.29.30133\atlmfc\include\cstringt.h

; 2401 : 		CStringT strResult( str1.GetManager() );

  00746	8d 8d dc fd ff
	ff		 lea	 ecx, DWORD PTR _szMediaPath$4[ebp]
; File D:\git\src\IBK\IBK_DRFN\ProjSrc\SrcDrfn\Chart\Common_ST\STConfigEnv.h

; 627  : 		szDefSoundPath = szMediaPath + "chord.wav";

  0074c	c6 45 fc 04	 mov	 BYTE PTR __$EHRec$[ebp+8], 4
; File C:\Program Files (x86)\Microsoft Visual Studio\2019\Community\VC\Tools\MSVC\14.29.30133\atlmfc\include\cstringt.h

; 2401 : 		CStringT strResult( str1.GetManager() );

  00750	ff 15 00 00 00
	00		 call	 DWORD PTR __imp_?GetManager@?$CStringT@DV?$StrTraitMFC_DLL@DV?$ChTraitsCRT@D@ATL@@@@@ATL@@QBEPAUIAtlStringMgr@2@XZ
  00756	50		 push	 eax
  00757	8d 8d e0 fd ff
	ff		 lea	 ecx, DWORD PTR $T5[ebp]
  0075d	ff 15 00 00 00
	00		 call	 DWORD PTR __imp_??0?$CStringT@DV?$StrTraitMFC_DLL@DV?$ChTraitsCRT@D@ATL@@@@@ATL@@QAE@PAUIAtlStringMgr@1@@Z
; File C:\Program Files (x86)\Microsoft Visual Studio\2019\Community\VC\Tools\MSVC\14.29.30133\atlmfc\include\atlsimpstr.h

; 519  : 		return( GetData()->nDataLength );

  00763	8b 85 dc fd ff
	ff		 mov	 eax, DWORD PTR _szMediaPath$4[ebp]
; File C:\Program Files (x86)\Microsoft Visual Studio\2019\Community\VC\Tools\MSVC\14.29.30133\atlmfc\include\cstringt.h

; 2403 : 		CThisSimpleString::Concatenate( strResult, str1, str1.GetLength(), psz2, CThisSimpleString::StringLength( psz2 ) );

  00769	6a 09		 push	 9
  0076b	68 00 00 00 00	 push	 OFFSET ??_C@_09JICOEDDI@chord?4wav@

; 2404 : 
; 2405 : 		return( strResult );

  00770	c7 85 d4 fd ff
	ff 02 00 00 00	 mov	 DWORD PTR $T2[ebp], 2
  0077a	ff 70 f4	 push	 DWORD PTR [eax-12]
  0077d	50		 push	 eax
  0077e	8d 85 e0 fd ff
	ff		 lea	 eax, DWORD PTR $T5[ebp]
  00784	50		 push	 eax
  00785	ff 15 00 00 00
	00		 call	 DWORD PTR __imp_?Concatenate@?$CSimpleStringT@D$00@ATL@@KAXAAV12@PBDH1H@Z
  0078b	83 c4 14	 add	 esp, 20			; 00000014H
; File D:\git\src\IBK\IBK_DRFN\ProjSrc\SrcDrfn\Chart\Common_ST\STConfigEnv.h

; 627  : 		szDefSoundPath = szMediaPath + "chord.wav";

  0078e	8d 85 e0 fd ff
	ff		 lea	 eax, DWORD PTR $T5[ebp]
  00794	8d 8d d8 fd ff
	ff		 lea	 ecx, DWORD PTR _szDefSoundPath$3[ebp]
  0079a	50		 push	 eax
  0079b	ff 15 00 00 00
	00		 call	 DWORD PTR __imp_??4?$CStringT@DV?$StrTraitMFC_DLL@DV?$ChTraitsCRT@D@ATL@@@@@ATL@@QAEAAV01@ABV01@@Z
  007a1	8d 8d e0 fd ff
	ff		 lea	 ecx, DWORD PTR $T5[ebp]
  007a7	c6 45 fc 02	 mov	 BYTE PTR __$EHRec$[ebp+8], 2
  007ab	ff 15 00 00 00
	00		 call	 DWORD PTR __imp_??1?$CStringT@DV?$StrTraitMFC_DLL@DV?$ChTraitsCRT@D@ATL@@@@@ATL@@QAE@XZ

; 628  : 		GetPrivateProfileString(STCONFIG_ORDER, szKey, szDefSoundPath, szTmp, MAX_PATH, szFileName);

  007b1	57		 push	 edi
  007b2	68 04 01 00 00	 push	 260			; 00000104H
  007b7	8d 85 ec fe ff
	ff		 lea	 eax, DWORD PTR _szTmp$[ebp]
  007bd	50		 push	 eax
  007be	ff b5 d8 fd ff
	ff		 push	 DWORD PTR _szDefSoundPath$3[ebp]
  007c4	ff b5 e4 fd ff
	ff		 push	 DWORD PTR _szKey$[ebp]
  007ca	68 00 00 00 00	 push	 OFFSET ??_C@_08IFJCKPBE@RunJumun@
  007cf	ff 15 00 00 00
	00		 call	 DWORD PTR __imp__GetPrivateProfileStringA@24

; 629  : 		m_szSound_Sell_File = szTmp;//Modify End

  007d5	8d 85 ec fe ff
	ff		 lea	 eax, DWORD PTR _szTmp$[ebp]
  007db	50		 push	 eax
  007dc	8d 4e 58	 lea	 ecx, DWORD PTR [esi+88]
  007df	ff 15 00 00 00
	00		 call	 DWORD PTR __imp_??4?$CStringT@DV?$StrTraitMFC_DLL@DV?$ChTraitsCRT@D@ATL@@@@@ATL@@QAEAAV01@PBD@Z

; 630  : 
; 631  : 	}

  007e5	8d 8d d8 fd ff
	ff		 lea	 ecx, DWORD PTR _szDefSoundPath$3[ebp]
  007eb	ff 15 00 00 00
	00		 call	 DWORD PTR __imp_??1?$CStringT@DV?$StrTraitMFC_DLL@DV?$ChTraitsCRT@D@ATL@@@@@ATL@@QAE@XZ
  007f1	8d 8d dc fd ff
	ff		 lea	 ecx, DWORD PTR _szMediaPath$4[ebp]
  007f7	ff 15 00 00 00
	00		 call	 DWORD PTR __imp_??1?$CStringT@DV?$StrTraitMFC_DLL@DV?$ChTraitsCRT@D@ATL@@@@@ATL@@QAE@XZ
$LN3@LoadInfo:

; 632  : }

  007fd	8d 8d e4 fd ff
	ff		 lea	 ecx, DWORD PTR _szKey$[ebp]
  00803	ff 15 00 00 00
	00		 call	 DWORD PTR __imp_??1?$CStringT@DV?$StrTraitMFC_DLL@DV?$ChTraitsCRT@D@ATL@@@@@ATL@@QAE@XZ
  00809	8b 4d f4	 mov	 ecx, DWORD PTR __$EHRec$[ebp]
  0080c	64 89 0d 00 00
	00 00		 mov	 DWORD PTR fs:0, ecx
  00813	59		 pop	 ecx
  00814	5f		 pop	 edi
  00815	5e		 pop	 esi
  00816	5b		 pop	 ebx
  00817	8b 4d f0	 mov	 ecx, DWORD PTR __$ArrayPad$[ebp]
  0081a	33 cd		 xor	 ecx, ebp
  0081c	e8 00 00 00 00	 call	 @__security_check_cookie@4
  00821	8b e5		 mov	 esp, ebp
  00823	5d		 pop	 ebp
  00824	c2 04 00	 ret	 4
_TEXT	ENDS
;	COMDAT text$x
text$x	SEGMENT
__unwindfunclet$?LoadInfo@CSTConfigEnv_Jumun@@QAEXPBD@Z$0:
  00000	8d 8d e4 fd ff
	ff		 lea	 ecx, DWORD PTR _szKey$[ebp]
  00006	ff 25 00 00 00
	00		 jmp	 DWORD PTR __imp_??1?$CStringT@DV?$StrTraitMFC_DLL@DV?$ChTraitsCRT@D@ATL@@@@@ATL@@QAE@XZ
__unwindfunclet$?LoadInfo@CSTConfigEnv_Jumun@@QAEXPBD@Z$1:
  0000c	8d 8d dc fd ff
	ff		 lea	 ecx, DWORD PTR _szMediaPath$4[ebp]
  00012	ff 25 00 00 00
	00		 jmp	 DWORD PTR __imp_??1?$CStringT@DV?$StrTraitMFC_DLL@DV?$ChTraitsCRT@D@ATL@@@@@ATL@@QAE@XZ
__unwindfunclet$?LoadInfo@CSTConfigEnv_Jumun@@QAEXPBD@Z$2:
  00018	8d 8d d8 fd ff
	ff		 lea	 ecx, DWORD PTR _szDefSoundPath$3[ebp]
  0001e	ff 25 00 00 00
	00		 jmp	 DWORD PTR __imp_??1?$CStringT@DV?$StrTraitMFC_DLL@DV?$ChTraitsCRT@D@ATL@@@@@ATL@@QAE@XZ
__unwindfunclet$?LoadInfo@CSTConfigEnv_Jumun@@QAEXPBD@Z$5:
  00024	8b 85 d4 fd ff
	ff		 mov	 eax, DWORD PTR $T2[ebp]
  0002a	83 e0 01	 and	 eax, 1
  0002d	0f 84 13 00 00
	00		 je	 $LN92@LoadInfo
  00033	83 a5 d4 fd ff
	ff fe		 and	 DWORD PTR $T2[ebp], -2	; fffffffeH
  0003a	8d 8d e0 fd ff
	ff		 lea	 ecx, DWORD PTR $T6[ebp]
  00040	ff 25 00 00 00
	00		 jmp	 DWORD PTR __imp_??1?$CStringT@DV?$StrTraitMFC_DLL@DV?$ChTraitsCRT@D@ATL@@@@@ATL@@QAE@XZ
$LN92@LoadInfo:
  00046	c3		 ret	 0
__unwindfunclet$?LoadInfo@CSTConfigEnv_Jumun@@QAEXPBD@Z$6:
  00047	8b 85 d4 fd ff
	ff		 mov	 eax, DWORD PTR $T2[ebp]
  0004d	83 e0 02	 and	 eax, 2
  00050	0f 84 13 00 00
	00		 je	 $LN111@LoadInfo
  00056	83 a5 d4 fd ff
	ff fd		 and	 DWORD PTR $T2[ebp], -3	; fffffffdH
  0005d	8d 8d e0 fd ff
	ff		 lea	 ecx, DWORD PTR $T5[ebp]
  00063	ff 25 00 00 00
	00		 jmp	 DWORD PTR __imp_??1?$CStringT@DV?$StrTraitMFC_DLL@DV?$ChTraitsCRT@D@ATL@@@@@ATL@@QAE@XZ
$LN111@LoadInfo:
  00069	c3		 ret	 0
  0006a	cc		 int	 3
  0006b	cc		 int	 3
  0006c	cc		 int	 3
  0006d	cc		 int	 3
  0006e	cc		 int	 3
__ehhandler$?LoadInfo@CSTConfigEnv_Jumun@@QAEXPBD@Z:
  0006f	90		 npad	 1
  00070	90		 npad	 1
  00071	8b 54 24 08	 mov	 edx, DWORD PTR [esp+8]
  00075	8d 42 0c	 lea	 eax, DWORD PTR [edx+12]
  00078	8b 8a d0 fd ff
	ff		 mov	 ecx, DWORD PTR [edx-560]
  0007e	33 c8		 xor	 ecx, eax
  00080	e8 00 00 00 00	 call	 @__security_check_cookie@4
  00085	8b 4a fc	 mov	 ecx, DWORD PTR [edx-4]
  00088	33 c8		 xor	 ecx, eax
  0008a	e8 00 00 00 00	 call	 @__security_check_cookie@4
  0008f	b8 00 00 00 00	 mov	 eax, OFFSET __ehfuncinfo$?LoadInfo@CSTConfigEnv_Jumun@@QAEXPBD@Z
  00094	e9 00 00 00 00	 jmp	 ___CxxFrameHandler3
text$x	ENDS
?LoadInfo@CSTConfigEnv_Jumun@@QAEXPBD@Z ENDP		; CSTConfigEnv_Jumun::LoadInfo
; Function compile flags: /Ogtp
; File D:\git\src\IBK\IBK_DRFN\ProjSrc\SrcDrfn\Chart\Common_ST\STConfigEnv.h
;	COMDAT ??1CSTConfigEnv_Jumun@@QAE@XZ
_TEXT	SEGMENT
??1CSTConfigEnv_Jumun@@QAE@XZ PROC			; CSTConfigEnv_Jumun::~CSTConfigEnv_Jumun, COMDAT
; _this$ = ecx

; 54   : 	{

  00000	56		 push	 esi
  00001	8b f1		 mov	 esi, ecx
  00003	57		 push	 edi

; 55   : 		if(m_pDefInfo) delete m_pDefInfo; m_pDefInfo=NULL;

  00004	8b 7e 70	 mov	 edi, DWORD PTR [esi+112]
  00007	85 ff		 test	 edi, edi
  00009	74 12		 je	 SHORT $LN7@CSTConfigE
  0000b	8b cf		 mov	 ecx, edi
  0000d	e8 00 00 00 00	 call	 ??1CSTConfigEnv_Jumun@@QAE@XZ ; CSTConfigEnv_Jumun::~CSTConfigEnv_Jumun
  00012	6a 74		 push	 116			; 00000074H
  00014	57		 push	 edi
  00015	e8 00 00 00 00	 call	 ??3@YAXPAXI@Z		; operator delete
  0001a	83 c4 08	 add	 esp, 8
$LN7@CSTConfigE:

; 56   : 	}

  0001d	8d 4e 6c	 lea	 ecx, DWORD PTR [esi+108]
  00020	c7 46 70 00 00
	00 00		 mov	 DWORD PTR [esi+112], 0
  00027	ff 15 00 00 00
	00		 call	 DWORD PTR __imp_??1?$CStringT@DV?$StrTraitMFC_DLL@DV?$ChTraitsCRT@D@ATL@@@@@ATL@@QAE@XZ
  0002d	8d 4e 68	 lea	 ecx, DWORD PTR [esi+104]
  00030	ff 15 00 00 00
	00		 call	 DWORD PTR __imp_??1?$CStringT@DV?$StrTraitMFC_DLL@DV?$ChTraitsCRT@D@ATL@@@@@ATL@@QAE@XZ
  00036	8d 4e 58	 lea	 ecx, DWORD PTR [esi+88]
  00039	ff 15 00 00 00
	00		 call	 DWORD PTR __imp_??1?$CStringT@DV?$StrTraitMFC_DLL@DV?$ChTraitsCRT@D@ATL@@@@@ATL@@QAE@XZ
  0003f	5f		 pop	 edi
  00040	8d 4e 50	 lea	 ecx, DWORD PTR [esi+80]
  00043	5e		 pop	 esi
  00044	ff 25 00 00 00
	00		 jmp	 DWORD PTR __imp_??1?$CStringT@DV?$StrTraitMFC_DLL@DV?$ChTraitsCRT@D@ATL@@@@@ATL@@QAE@XZ
??1CSTConfigEnv_Jumun@@QAE@XZ ENDP			; CSTConfigEnv_Jumun::~CSTConfigEnv_Jumun
_TEXT	ENDS
; Function compile flags: /Ogtp
; File D:\git\src\IBK\IBK_DRFN\ProjSrc\SrcDrfn\Chart\Common_ST\STConfigEnv.h
;	COMDAT ??0CSTConfigEnv_Jumun@@QAE@XZ
_TEXT	SEGMENT
_this$ = -4						; size = 4
??0CSTConfigEnv_Jumun@@QAE@XZ PROC			; CSTConfigEnv_Jumun::CSTConfigEnv_Jumun, COMDAT
; _this$ = ecx

; 40   : 	CSTConfigEnv_Jumun()

  00000	55		 push	 ebp
  00001	8b ec		 mov	 ebp, esp
  00003	51		 push	 ecx
  00004	56		 push	 esi
  00005	8b f1		 mov	 esi, ecx
  00007	89 75 fc	 mov	 DWORD PTR _this$[ebp], esi
  0000a	8d 4e 50	 lea	 ecx, DWORD PTR [esi+80]
  0000d	ff 15 00 00 00
	00		 call	 DWORD PTR __imp_??0?$CStringT@DV?$StrTraitMFC_DLL@DV?$ChTraitsCRT@D@ATL@@@@@ATL@@QAE@XZ
  00013	8d 4e 58	 lea	 ecx, DWORD PTR [esi+88]
  00016	ff 15 00 00 00
	00		 call	 DWORD PTR __imp_??0?$CStringT@DV?$StrTraitMFC_DLL@DV?$ChTraitsCRT@D@ATL@@@@@ATL@@QAE@XZ
  0001c	8d 4e 68	 lea	 ecx, DWORD PTR [esi+104]
  0001f	ff 15 00 00 00
	00		 call	 DWORD PTR __imp_??0?$CStringT@DV?$StrTraitMFC_DLL@DV?$ChTraitsCRT@D@ATL@@@@@ATL@@QAE@XZ
  00025	8d 4e 6c	 lea	 ecx, DWORD PTR [esi+108]
  00028	ff 15 00 00 00
	00		 call	 DWORD PTR __imp_??0?$CStringT@DV?$StrTraitMFC_DLL@DV?$ChTraitsCRT@D@ATL@@@@@ATL@@QAE@XZ

; 41   : 	{
; 42   : 		memset(m_szAcctInfo, 0, 51);

  0002e	6a 33		 push	 51			; 00000033H
  00030	6a 00		 push	 0
  00032	56		 push	 esi
  00033	e8 00 00 00 00	 call	 _memset
  00038	83 c4 0c	 add	 esp, 12			; 0000000cH

; 43   : 		m_nJAmount			= 0;

  0003b	c7 46 34 00 00
	00 00		 mov	 DWORD PTR [esi+52], 0

; 44   : 		m_nBuyPrice			= 0;

  00042	c7 46 38 00 00
	00 00		 mov	 DWORD PTR [esi+56], 0

; 45   : 		m_nSellPrice		= 0;
; 46   : 		m_nJMethod			= 0;
; 47   : 		m_nJTime			= 0;
; 48   : 		m_nJStartSignal		= 0;
; 49   : 		m_bSound_Buy_Use	= FALSE;
; 50   : 		m_bSound_Sell_Use	= FALSE;
; 51   : 		m_pDefInfo = NULL;
; 52   : 	}

  00049	8b c6		 mov	 eax, esi
  0004b	c7 46 3c 00 00
	00 00		 mov	 DWORD PTR [esi+60], 0
  00052	c7 46 40 00 00
	00 00		 mov	 DWORD PTR [esi+64], 0
  00059	c7 46 44 00 00
	00 00		 mov	 DWORD PTR [esi+68], 0
  00060	c7 46 48 00 00
	00 00		 mov	 DWORD PTR [esi+72], 0
  00067	c7 46 4c 00 00
	00 00		 mov	 DWORD PTR [esi+76], 0
  0006e	c7 46 54 00 00
	00 00		 mov	 DWORD PTR [esi+84], 0
  00075	c7 46 70 00 00
	00 00		 mov	 DWORD PTR [esi+112], 0
  0007c	5e		 pop	 esi
  0007d	8b e5		 mov	 esp, ebp
  0007f	5d		 pop	 ebp
  00080	c3		 ret	 0
??0CSTConfigEnv_Jumun@@QAE@XZ ENDP			; CSTConfigEnv_Jumun::CSTConfigEnv_Jumun
_TEXT	ENDS
; Function compile flags: /Ogtp
; File C:\Program Files (x86)\Microsoft Visual Studio\2019\Community\VC\Tools\MSVC\14.29.30133\atlmfc\include\afxdlgs.h
;	COMDAT ??1CColorDialog@@UAE@XZ
_TEXT	SEGMENT
??1CColorDialog@@UAE@XZ PROC				; CColorDialog::~CColorDialog, COMDAT
; _this$ = ecx

; 110  :     virtual ~CCommonDialog() {};

  00000	c7 01 00 00 00
	00		 mov	 DWORD PTR [ecx], OFFSET ??_7CCommonDialog@@6B@
  00006	e9 00 00 00 00	 jmp	 ??1CDialog@@UAE@XZ	; CDialog::~CDialog
??1CColorDialog@@UAE@XZ ENDP				; CColorDialog::~CColorDialog
_TEXT	ENDS
; Function compile flags: /Ogtp
; File C:\Program Files (x86)\Microsoft Visual Studio\2019\Community\VC\Tools\MSVC\14.29.30133\atlmfc\include\afxdlgs.h
; File C:\Program Files (x86)\Microsoft Visual Studio\2019\Community\VC\Tools\MSVC\14.29.30133\atlmfc\include\afx.inl
;	COMDAT ??_GCCommonDialog@@UAEPAXI@Z
_TEXT	SEGMENT
___flags$ = 8						; size = 4
??_GCCommonDialog@@UAEPAXI@Z PROC			; CCommonDialog::`scalar deleting destructor', COMDAT
; _this$ = ecx
  00000	55		 push	 ebp
  00001	8b ec		 mov	 ebp, esp
; File C:\Program Files (x86)\Microsoft Visual Studio\2019\Community\VC\Tools\MSVC\14.29.30133\atlmfc\include\afxdlgs.h

; 110  :     virtual ~CCommonDialog() {};

  00003	56		 push	 esi
  00004	8b f1		 mov	 esi, ecx
  00006	c7 06 00 00 00
	00		 mov	 DWORD PTR [esi], OFFSET ??_7CCommonDialog@@6B@
  0000c	e8 00 00 00 00	 call	 ??1CDialog@@UAE@XZ	; CDialog::~CDialog
  00011	8b 45 08	 mov	 eax, DWORD PTR ___flags$[ebp]
  00014	a8 01		 test	 al, 1
  00016	74 22		 je	 SHORT $LN12@scalar
  00018	a8 04		 test	 al, 4
  0001a	75 10		 jne	 SHORT $LN3@scalar
; File C:\Program Files (x86)\Microsoft Visual Studio\2019\Community\VC\Tools\MSVC\14.29.30133\atlmfc\include\afx.inl

; 112  : 	{ ::operator delete(p); }

  0001c	56		 push	 esi
  0001d	e8 00 00 00 00	 call	 ??3@YAXPAX@Z		; operator delete
  00022	83 c4 04	 add	 esp, 4
  00025	8b c6		 mov	 eax, esi
  00027	5e		 pop	 esi
  00028	5d		 pop	 ebp
  00029	c2 04 00	 ret	 4
$LN3@scalar:
  0002c	68 a8 00 00 00	 push	 168			; 000000a8H
  00031	56		 push	 esi
  00032	e8 00 00 00 00	 call	 ?__global_delete@@YAXPAXI@Z ; __global_delete
  00037	83 c4 08	 add	 esp, 8
$LN12@scalar:
  0003a	8b c6		 mov	 eax, esi
  0003c	5e		 pop	 esi
  0003d	5d		 pop	 ebp
  0003e	c2 04 00	 ret	 4
??_GCCommonDialog@@UAEPAXI@Z ENDP			; CCommonDialog::`scalar deleting destructor'
_TEXT	ENDS
; Function compile flags: /Ogtp
; File C:\Program Files (x86)\Microsoft Visual Studio\2019\Community\VC\Tools\MSVC\14.29.30133\atlmfc\include\afxdlgs.h
;	COMDAT ??1CCommonDialog@@UAE@XZ
_TEXT	SEGMENT
??1CCommonDialog@@UAE@XZ PROC				; CCommonDialog::~CCommonDialog, COMDAT
; _this$ = ecx

; 110  :     virtual ~CCommonDialog() {};

  00000	c7 01 00 00 00
	00		 mov	 DWORD PTR [ecx], OFFSET ??_7CCommonDialog@@6B@
  00006	e9 00 00 00 00	 jmp	 ??1CDialog@@UAE@XZ	; CDialog::~CDialog
??1CCommonDialog@@UAE@XZ ENDP				; CCommonDialog::~CCommonDialog
_TEXT	ENDS
; Function compile flags: /Ogtp
; File C:\Program Files (x86)\Microsoft Visual Studio\2019\Community\VC\Tools\MSVC\14.29.30133\atlmfc\include\afxwin2.inl
;	COMDAT ?Create@CDialog@@UAEHIPAVCWnd@@@Z
_TEXT	SEGMENT
_nIDTemplate$ = 8					; size = 4
_pParentWnd$ = 12					; size = 4
?Create@CDialog@@UAEHIPAVCWnd@@@Z PROC			; CDialog::Create, COMDAT
; _this$ = ecx

; 585  : 	{ return CDialog::Create(ATL_MAKEINTRESOURCE(nIDTemplate), pParentWnd); }

  00000	55		 push	 ebp
  00001	8b ec		 mov	 ebp, esp
  00003	0f b7 45 08	 movzx	 eax, WORD PTR _nIDTemplate$[ebp]
  00007	89 45 08	 mov	 DWORD PTR _nIDTemplate$[ebp], eax
  0000a	5d		 pop	 ebp
  0000b	e9 00 00 00 00	 jmp	 ?Create@CDialog@@UAEHPBDPAVCWnd@@@Z ; CDialog::Create
?Create@CDialog@@UAEHIPAVCWnd@@@Z ENDP			; CDialog::Create
_TEXT	ENDS
; Function compile flags: /Ogtp
; File C:\Program Files (x86)\Microsoft Visual Studio\2019\Community\VC\Tools\MSVC\14.29.30133\atlmfc\include\afxwin2.inl
;	COMDAT ?EndModalState@CWnd@@UAEXXZ
_TEXT	SEGMENT
?EndModalState@CWnd@@UAEXXZ PROC			; CWnd::EndModalState, COMDAT
; _this$ = ecx

; 567  : 	{ ::EnableWindow(m_hWnd, TRUE); }

  00000	6a 01		 push	 1
  00002	ff 71 20	 push	 DWORD PTR [ecx+32]
  00005	ff 15 00 00 00
	00		 call	 DWORD PTR __imp__EnableWindow@8
  0000b	c3		 ret	 0
?EndModalState@CWnd@@UAEXXZ ENDP			; CWnd::EndModalState
_TEXT	ENDS
; Function compile flags: /Ogtp
; File C:\Program Files (x86)\Microsoft Visual Studio\2019\Community\VC\Tools\MSVC\14.29.30133\atlmfc\include\afxwin2.inl
;	COMDAT ?BeginModalState@CWnd@@UAEXXZ
_TEXT	SEGMENT
?BeginModalState@CWnd@@UAEXXZ PROC			; CWnd::BeginModalState, COMDAT
; _this$ = ecx

; 565  : 	{ ::EnableWindow(m_hWnd, FALSE); }

  00000	6a 00		 push	 0
  00002	ff 71 20	 push	 DWORD PTR [ecx+32]
  00005	ff 15 00 00 00
	00		 call	 DWORD PTR __imp__EnableWindow@8
  0000b	c3		 ret	 0
?BeginModalState@CWnd@@UAEXXZ ENDP			; CWnd::BeginModalState
_TEXT	ENDS
; Function compile flags: /Ogtp
; File C:\Program Files (x86)\Microsoft Visual Studio\2019\Community\VC\Tools\MSVC\14.29.30133\atlmfc\include\afxwin2.inl
;	COMDAT ?DoDataExchange@CWnd@@MAEXPAVCDataExchange@@@Z
_TEXT	SEGMENT
___formal$ = 8						; size = 4
?DoDataExchange@CWnd@@MAEXPAVCDataExchange@@@Z PROC	; CWnd::DoDataExchange, COMDAT
; _this$ = ecx

; 561  : 	{ } // default does nothing

  00000	c2 04 00	 ret	 4
?DoDataExchange@CWnd@@MAEXPAVCDataExchange@@@Z ENDP	; CWnd::DoDataExchange
_TEXT	ENDS
; Function compile flags: /Ogtp
; File C:\Program Files (x86)\Microsoft Visual Studio\2019\Community\VC\Tools\MSVC\14.29.30133\atlmfc\include\afx.inl
;	COMDAT ?Dump@CObject@@UBEXAAVCDumpContext@@@Z
_TEXT	SEGMENT
___formal$ = 8						; size = 4
?Dump@CObject@@UBEXAAVCDumpContext@@@Z PROC		; CObject::Dump, COMDAT
; _this$ = ecx

; 122  : 	{ /* no dumping in release builds */ }

  00000	c2 04 00	 ret	 4
?Dump@CObject@@UBEXAAVCDumpContext@@@Z ENDP		; CObject::Dump
_TEXT	ENDS
; Function compile flags: /Ogtp
; File C:\Program Files (x86)\Microsoft Visual Studio\2019\Community\VC\Tools\MSVC\14.29.30133\atlmfc\include\afx.inl
;	COMDAT ?AssertValid@CObject@@UBEXXZ
_TEXT	SEGMENT
?AssertValid@CObject@@UBEXXZ PROC			; CObject::AssertValid, COMDAT
; _this$ = ecx

; 120  : 	{ /* no asserts in release builds */ }

  00000	c2 00 00	 ret	 0
?AssertValid@CObject@@UBEXXZ ENDP			; CObject::AssertValid
_TEXT	ENDS
; Function compile flags: /Ogtp
; File C:\Program Files (x86)\Microsoft Visual Studio\2019\Community\VC\Tools\MSVC\14.29.30133\atlmfc\include\afx.inl
;	COMDAT ?Serialize@CObject@@UAEXAAVCArchive@@@Z
_TEXT	SEGMENT
___formal$ = 8						; size = 4
?Serialize@CObject@@UAEXAAVCArchive@@@Z PROC		; CObject::Serialize, COMDAT
; _this$ = ecx

; 106  : 	{ /* CObject does not serialize anything by default */ }

  00000	c2 04 00	 ret	 4
?Serialize@CObject@@UAEXAAVCArchive@@@Z ENDP		; CObject::Serialize
_TEXT	ENDS
; Function compile flags: /Ogtp
; File D:\git\src\IBK\IBK_DRFN\ProjSrc\SrcDrfn\Chart\STCONFIGUREDLG\TabRunSetup.cpp
;	COMDAT ?__empty_global_delete@@YAXPAXI@Z
_TEXT	SEGMENT
___formal$ = 8						; size = 4
___formal$ = 12						; size = 4
?__empty_global_delete@@YAXPAXI@Z PROC			; __empty_global_delete, COMDAT

  00000	c2 00 00	 ret	 0
?__empty_global_delete@@YAXPAXI@Z ENDP			; __empty_global_delete
_TEXT	ENDS
; Function compile flags: /Ogtp
; File D:\git\src\IBK\IBK_DRFN\ProjSrc\SrcDrfn\Chart\STCONFIGUREDLG\TabRunSetup.cpp
;	COMDAT ?__empty_global_delete@@YAXPAX@Z
_TEXT	SEGMENT
___formal$ = 8						; size = 4
?__empty_global_delete@@YAXPAX@Z PROC			; __empty_global_delete, COMDAT

  00000	c2 00 00	 ret	 0
?__empty_global_delete@@YAXPAX@Z ENDP			; __empty_global_delete
_TEXT	ENDS
END
