; Listing generated by Microsoft (R) Optimizing Compiler Version 19.29.30145.0 

	TITLE	D:\git\src\IBK\IBK_DRFN\#DRfn-CS\_Obj\STConfigureDlg\TabSignal.obj
	.686P
	.XMM
	include listing.inc
	.model	flat

INCLUDELIB MSVCRT
INCLUDELIB OLDNAMES

PUBLIC	?__empty_global_delete@@YAXPAX@Z		; __empty_global_delete
PUBLIC	?__empty_global_delete@@YAXPAXI@Z		; __empty_global_delete
PUBLIC	?Serialize@CObject@@UAEXAAVCArchive@@@Z		; CObject::Serialize
PUBLIC	?AssertValid@CObject@@UBEXXZ			; CObject::AssertValid
PUBLIC	?Dump@CObject@@UBEXAAVCDumpContext@@@Z		; CObject::Dump
PUBLIC	?DoDataExchange@CWnd@@MAEXPAVCDataExchange@@@Z	; CWnd::DoDataExchange
PUBLIC	?BeginModalState@CWnd@@UAEXXZ			; CWnd::BeginModalState
PUBLIC	?EndModalState@CWnd@@UAEXXZ			; CWnd::EndModalState
PUBLIC	?Create@CDialog@@UAEHIPAVCWnd@@@Z		; CDialog::Create
PUBLIC	??_GCButton@@UAEPAXI@Z				; CButton::`scalar deleting destructor'
PUBLIC	??1CCommonDialog@@UAE@XZ			; CCommonDialog::~CCommonDialog
PUBLIC	??_GCCommonDialog@@UAEPAXI@Z			; CCommonDialog::`scalar deleting destructor'
PUBLIC	??1CColorDialog@@UAE@XZ				; CColorDialog::~CColorDialog
PUBLIC	?PreTranslateMessage@CRscDlg@@MAEHPAUtagMSG@@@Z	; CRscDlg::PreTranslateMessage
PUBLIC	?SetDefault@CRscDlg@@UAEXXZ			; CRscDlg::SetDefault
PUBLIC	??1CRscDlg@@UAE@XZ				; CRscDlg::~CRscDlg
PUBLIC	??0CTabSignal@@QAE@PAVCWnd@@@Z			; CTabSignal::CTabSignal
PUBLIC	?OnBtnClr@CTabSignal@@QAEXAAVCColorButton@@@Z	; CTabSignal::OnBtnClr
PUBLIC	?DoDataExchange@CTabSignal@@MAEXPAVCDataExchange@@@Z ; CTabSignal::DoDataExchange
PUBLIC	?WindowProc@CTabSignal@@MAEJIIJ@Z		; CTabSignal::WindowProc
PUBLIC	?SetCBSignal@CTabSignal@@AAEXAAVCBitmapItemComboBox@@@Z ; CTabSignal::SetCBSignal
PUBLIC	?LoadInfo@CTabSignal@@EAEXXZ			; CTabSignal::LoadInfo
PUBLIC	?SaveInfo@CTabSignal@@EAEHXZ			; CTabSignal::SaveInfo
PUBLIC	?RemoveInfo@CTabSignal@@EAEXXZ			; CTabSignal::RemoveInfo
PUBLIC	?OnInitDialog@CTabSignal@@MAEHXZ		; CTabSignal::OnInitDialog
PUBLIC	?OnBtClrBuy@CTabSignal@@IAEXXZ			; CTabSignal::OnBtClrBuy
PUBLIC	?OnBtClrExitlong@CTabSignal@@IAEXXZ		; CTabSignal::OnBtClrExitlong
PUBLIC	?OnBtClrExitshort@CTabSignal@@IAEXXZ		; CTabSignal::OnBtClrExitshort
PUBLIC	?OnBtClrSell@CTabSignal@@IAEXXZ			; CTabSignal::OnBtClrSell
PUBLIC	?OnCtlColor@CTabSignal@@IAEPAUHBRUSH__@@PAVCDC@@PAVCWnd@@I@Z ; CTabSignal::OnCtlColor
PUBLIC	?GetThisMessageMap@CTabSignal@@KGPBUAFX_MSGMAP@@XZ ; CTabSignal::GetThisMessageMap
PUBLIC	?GetMessageMap@CTabSignal@@MBEPBUAFX_MSGMAP@@XZ	; CTabSignal::GetMessageMap
PUBLIC	??_GCTabSignal@@UAEPAXI@Z			; CTabSignal::`scalar deleting destructor'
PUBLIC	??_C@_02DPKJAMEF@?$CFd@				; `string'
PUBLIC	??_C@_00CNPNBAHC@@				; `string'
PUBLIC	??_7CButton@@6B@				; CButton::`vftable'
PUBLIC	??_7CCommonDialog@@6B@				; CCommonDialog::`vftable'
PUBLIC	??_C@_08LLMMGHPD@ShapeBuy@			; `string'
PUBLIC	??_C@_06CPODCDOI@Signal@			; `string'
PUBLIC	??_C@_0O@GJJKDADC@ShapeExitlong@		; `string'
PUBLIC	??_C@_09PKDDMDFM@ShapeSell@			; `string'
PUBLIC	??_C@_0P@GBBMBNOC@ShapeExitshort@		; `string'
PUBLIC	??_C@_06HGIOMLFJ@ClrBuy@			; `string'
PUBLIC	??_C@_0M@FJPKOBBF@ClrExitlong@			; `string'
PUBLIC	??_C@_07MMPNMLAG@ClrSell@			; `string'
PUBLIC	??_C@_0N@MECGMIFI@ClrExitshort@			; `string'
PUBLIC	??_R0?AVCObject@@@8				; CObject `RTTI Type Descriptor'
PUBLIC	??_R3CObject@@8					; CObject::`RTTI Class Hierarchy Descriptor'
PUBLIC	??_R2CObject@@8					; CObject::`RTTI Base Class Array'
PUBLIC	??_R1A@?0A@EA@CObject@@8			; CObject::`RTTI Base Class Descriptor at (0,-1,0,64)'
PUBLIC	??_R1A@?0A@EA@CWnd@@8				; CWnd::`RTTI Base Class Descriptor at (0,-1,0,64)'
PUBLIC	??_R0?AVCWnd@@@8				; CWnd `RTTI Type Descriptor'
PUBLIC	??_R3CWnd@@8					; CWnd::`RTTI Class Hierarchy Descriptor'
PUBLIC	??_R2CWnd@@8					; CWnd::`RTTI Base Class Array'
PUBLIC	??_R1A@?0A@EA@CCmdTarget@@8			; CCmdTarget::`RTTI Base Class Descriptor at (0,-1,0,64)'
PUBLIC	??_R0?AVCCmdTarget@@@8				; CCmdTarget `RTTI Type Descriptor'
PUBLIC	??_R3CCmdTarget@@8				; CCmdTarget::`RTTI Class Hierarchy Descriptor'
PUBLIC	??_R2CCmdTarget@@8				; CCmdTarget::`RTTI Base Class Array'
PUBLIC	??_R4CButton@@6B@				; CButton::`RTTI Complete Object Locator'
PUBLIC	??_R0?AVCButton@@@8				; CButton `RTTI Type Descriptor'
PUBLIC	??_R3CButton@@8					; CButton::`RTTI Class Hierarchy Descriptor'
PUBLIC	??_R2CButton@@8					; CButton::`RTTI Base Class Array'
PUBLIC	??_R1A@?0A@EA@CButton@@8			; CButton::`RTTI Base Class Descriptor at (0,-1,0,64)'
PUBLIC	??_R4CCommonDialog@@6B@				; CCommonDialog::`RTTI Complete Object Locator'
PUBLIC	??_R0?AVCCommonDialog@@@8			; CCommonDialog `RTTI Type Descriptor'
PUBLIC	??_R3CCommonDialog@@8				; CCommonDialog::`RTTI Class Hierarchy Descriptor'
PUBLIC	??_R2CCommonDialog@@8				; CCommonDialog::`RTTI Base Class Array'
PUBLIC	??_R1A@?0A@EA@CCommonDialog@@8			; CCommonDialog::`RTTI Base Class Descriptor at (0,-1,0,64)'
PUBLIC	??_R1A@?0A@EA@CDialog@@8			; CDialog::`RTTI Base Class Descriptor at (0,-1,0,64)'
PUBLIC	??_R0?AVCDialog@@@8				; CDialog `RTTI Type Descriptor'
PUBLIC	??_R3CDialog@@8					; CDialog::`RTTI Class Hierarchy Descriptor'
PUBLIC	??_R2CDialog@@8					; CDialog::`RTTI Base Class Array'
PUBLIC	??_7CTabSignal@@6B@				; CTabSignal::`vftable'
PUBLIC	??_C@_06FCMAJJHB@UseBuy@			; `string'
PUBLIC	??_C@_07PJGMCNKO@UseSell@			; `string'
PUBLIC	??_C@_0M@ECKDADJF@UseExitlong@			; `string'
PUBLIC	??_C@_0N@CJIFBCJK@UseExitshort@			; `string'
PUBLIC	??_C@_01GBGANLPD@0@				; `string'
PUBLIC	??_C@_0P@COPLHHII@ShowSignalName@		; `string'
PUBLIC	??_C@_0O@EOJLGNKN@ShowSignalQty@		; `string'
PUBLIC	??_R4CTabSignal@@6B@				; CTabSignal::`RTTI Complete Object Locator'
PUBLIC	??_R0?AVCTabSignal@@@8				; CTabSignal `RTTI Type Descriptor'
PUBLIC	??_R3CTabSignal@@8				; CTabSignal::`RTTI Class Hierarchy Descriptor'
PUBLIC	??_R2CTabSignal@@8				; CTabSignal::`RTTI Base Class Array'
PUBLIC	??_R1A@?0A@EA@CTabSignal@@8			; CTabSignal::`RTTI Base Class Descriptor at (0,-1,0,64)'
PUBLIC	??_R1A@?0A@EA@CRscDlg@@8			; CRscDlg::`RTTI Base Class Descriptor at (0,-1,0,64)'
PUBLIC	??_R0?AVCRscDlg@@@8				; CRscDlg `RTTI Type Descriptor'
PUBLIC	??_R3CRscDlg@@8					; CRscDlg::`RTTI Class Hierarchy Descriptor'
PUBLIC	??_R2CRscDlg@@8					; CRscDlg::`RTTI Base Class Array'
EXTRN	??3@YAXPAX@Z:PROC				; operator delete
EXTRN	?__global_delete@@YAXPAXI@Z:PROC		; __global_delete
EXTRN	__imp__SendMessageA@16:PROC
EXTRN	__imp__GetKeyState@4:PROC
EXTRN	__imp__EnableWindow@8:PROC
EXTRN	__imp__InvalidateRect@12:PROC
EXTRN	__imp__GetParent@4:PROC
EXTRN	__imp__LoadBitmapW@8:PROC
EXTRN	__imp__atol:PROC
EXTRN	__imp_??0?$CStringT@DV?$StrTraitMFC_DLL@DV?$ChTraitsCRT@D@ATL@@@@@ATL@@QAE@XZ:PROC
EXTRN	__imp_??1?$CStringT@DV?$StrTraitMFC_DLL@DV?$ChTraitsCRT@D@ATL@@@@@ATL@@QAE@XZ:PROC
EXTRN	__imp_??4?$CStringT@DV?$StrTraitMFC_DLL@DV?$ChTraitsCRT@D@ATL@@@@@ATL@@QAEAAV01@ABV01@@Z:PROC
EXTRN	__imp_?Compare@?$CStringT@DV?$StrTraitMFC_DLL@DV?$ChTraitsCRT@D@ATL@@@@@ATL@@QBEHPBD@Z:PROC
EXTRN	__imp_?Format@?$CStringT@DV?$StrTraitMFC_DLL@DV?$ChTraitsCRT@D@ATL@@@@@ATL@@QAAXPBDZZ:PROC
EXTRN	?Attach@CGdiObject@@QAEHPAX@Z:PROC		; CGdiObject::Attach
EXTRN	?DDX_Control@@YGXPAVCDataExchange@@HAAVCWnd@@@Z:PROC ; DDX_Control
EXTRN	?OnCmdMsg@CCmdTarget@@UAEHIHPAXPAUAFX_CMDHANDLERINFO@@@Z:PROC ; CCmdTarget::OnCmdMsg
EXTRN	?IsInvokeAllowed@CCmdTarget@@UAEHJ@Z:PROC	; CCmdTarget::IsInvokeAllowed
EXTRN	?GetDispatchIID@CCmdTarget@@UAEHPAU_GUID@@@Z:PROC ; CCmdTarget::GetDispatchIID
EXTRN	?GetTypeInfoCount@CCmdTarget@@UAEIXZ:PROC	; CCmdTarget::GetTypeInfoCount
EXTRN	?GetTypeLibCache@CCmdTarget@@UAEPAVCTypeLibCache@@XZ:PROC ; CCmdTarget::GetTypeLibCache
EXTRN	?GetTypeLib@CCmdTarget@@UAEJKPAPAUITypeLib@@@Z:PROC ; CCmdTarget::GetTypeLib
EXTRN	?GetCommandMap@CCmdTarget@@MBEPBUAFX_OLECMDMAP@@XZ:PROC ; CCmdTarget::GetCommandMap
EXTRN	?GetDispatchMap@CCmdTarget@@MBEPBUAFX_DISPMAP@@XZ:PROC ; CCmdTarget::GetDispatchMap
EXTRN	?GetConnectionMap@CCmdTarget@@MBEPBUAFX_CONNECTIONMAP@@XZ:PROC ; CCmdTarget::GetConnectionMap
EXTRN	?GetEventSinkMap@CCmdTarget@@MBEPBUAFX_EVENTSINKMAP@@XZ:PROC ; CCmdTarget::GetEventSinkMap
EXTRN	?OnCreateAggregates@CCmdTarget@@UAEHXZ:PROC	; CCmdTarget::OnCreateAggregates
EXTRN	?GetInterfaceHook@CCmdTarget@@UAEPAUIUnknown@@PBX@Z:PROC ; CCmdTarget::GetInterfaceHook
EXTRN	?GetExtraConnectionPoints@CCmdTarget@@MAEHPAVCPtrArray@@@Z:PROC ; CCmdTarget::GetExtraConnectionPoints
EXTRN	?GetConnectionHook@CCmdTarget@@MAEPAUIConnectionPoint@@ABU_GUID@@@Z:PROC ; CCmdTarget::GetConnectionHook
EXTRN	??0CWnd@@QAE@XZ:PROC				; CWnd::CWnd
EXTRN	?FromHandle@CWnd@@SGPAV1@PAUHWND__@@@Z:PROC	; CWnd::FromHandle
EXTRN	?PreSubclassWindow@CWnd@@UAEXXZ:PROC		; CWnd::PreSubclassWindow
EXTRN	?Create@CWnd@@UAEHPBD0KABUtagRECT@@PAV1@IPAUCCreateContext@@@Z:PROC ; CWnd::Create
EXTRN	?CreateEx@CWnd@@UAEHKPBD0KHHHHPAUHWND__@@PAUHMENU__@@PAX@Z:PROC ; CWnd::CreateEx
EXTRN	?CreateEx@CWnd@@UAEHKPBD0KABUtagRECT@@PAV1@IPAX@Z:PROC ; CWnd::CreateEx
EXTRN	?DestroyWindow@CWnd@@UAEHXZ:PROC		; CWnd::DestroyWindow
EXTRN	?PreCreateWindow@CWnd@@UAEHAAUtagCREATESTRUCTA@@@Z:PROC ; CWnd::PreCreateWindow
EXTRN	?CalcWindowRect@CWnd@@UAEXPAUtagRECT@@I@Z:PROC	; CWnd::CalcWindowRect
EXTRN	?GetMenu@CWnd@@UBEPAVCMenu@@XZ:PROC		; CWnd::GetMenu
EXTRN	?SetMenu@CWnd@@UAEHPAVCMenu@@@Z:PROC		; CWnd::SetMenu
EXTRN	?OnToolHitTest@CWnd@@UBEHVCPoint@@PAUtagTOOLINFOA@@@Z:PROC ; CWnd::OnToolHitTest
EXTRN	?EnableWindow@CWnd@@QAEHH@Z:PROC		; CWnd::EnableWindow
EXTRN	?GetScrollBarCtrl@CWnd@@UBEPAVCScrollBar@@H@Z:PROC ; CWnd::GetScrollBarCtrl
EXTRN	?WinHelpA@CWnd@@UAEXKI@Z:PROC			; CWnd::WinHelpA
EXTRN	?HtmlHelpA@CWnd@@UAEXKI@Z:PROC			; CWnd::HtmlHelpA
EXTRN	?WinHelpInternal@CWnd@@UAEXKI@Z:PROC		; CWnd::WinHelpInternal
EXTRN	?ContinueModal@CWnd@@UAEHXZ:PROC		; CWnd::ContinueModal
EXTRN	?EndModalLoop@CWnd@@UAEXH@Z:PROC		; CWnd::EndModalLoop
EXTRN	?OnDrawIconicThumbnailOrLivePreview@CWnd@@UAEXAAVCDC@@VCRect@@VCSize@@HAAH@Z:PROC ; CWnd::OnDrawIconicThumbnailOrLivePreview
EXTRN	?GetInterfaceMap@CWnd@@MBEPBUAFX_INTERFACEMAP@@XZ:PROC ; CWnd::GetInterfaceMap
EXTRN	?EnsureStdObj@CWnd@@UAEJXZ:PROC			; CWnd::EnsureStdObj
EXTRN	?get_accParent@CWnd@@UAEJPAPAUIDispatch@@@Z:PROC ; CWnd::get_accParent
EXTRN	?get_accChildCount@CWnd@@UAEJPAJ@Z:PROC		; CWnd::get_accChildCount
EXTRN	?get_accChild@CWnd@@UAEJUtagVARIANT@@PAPAUIDispatch@@@Z:PROC ; CWnd::get_accChild
EXTRN	?get_accName@CWnd@@UAEJUtagVARIANT@@PAPA_W@Z:PROC ; CWnd::get_accName
EXTRN	?get_accValue@CWnd@@UAEJUtagVARIANT@@PAPA_W@Z:PROC ; CWnd::get_accValue
EXTRN	?get_accDescription@CWnd@@UAEJUtagVARIANT@@PAPA_W@Z:PROC ; CWnd::get_accDescription
EXTRN	?get_accRole@CWnd@@UAEJUtagVARIANT@@PAU2@@Z:PROC ; CWnd::get_accRole
EXTRN	?get_accState@CWnd@@UAEJUtagVARIANT@@PAU2@@Z:PROC ; CWnd::get_accState
EXTRN	?get_accHelp@CWnd@@UAEJUtagVARIANT@@PAPA_W@Z:PROC ; CWnd::get_accHelp
EXTRN	?get_accHelpTopic@CWnd@@UAEJPAPA_WUtagVARIANT@@PAJ@Z:PROC ; CWnd::get_accHelpTopic
EXTRN	?get_accKeyboardShortcut@CWnd@@UAEJUtagVARIANT@@PAPA_W@Z:PROC ; CWnd::get_accKeyboardShortcut
EXTRN	?get_accFocus@CWnd@@UAEJPAUtagVARIANT@@@Z:PROC	; CWnd::get_accFocus
EXTRN	?get_accSelection@CWnd@@UAEJPAUtagVARIANT@@@Z:PROC ; CWnd::get_accSelection
EXTRN	?get_accDefaultAction@CWnd@@UAEJUtagVARIANT@@PAPA_W@Z:PROC ; CWnd::get_accDefaultAction
EXTRN	?accSelect@CWnd@@UAEJJUtagVARIANT@@@Z:PROC	; CWnd::accSelect
EXTRN	?accLocation@CWnd@@UAEJPAJ000UtagVARIANT@@@Z:PROC ; CWnd::accLocation
EXTRN	?accNavigate@CWnd@@UAEJJUtagVARIANT@@PAU2@@Z:PROC ; CWnd::accNavigate
EXTRN	?accHitTest@CWnd@@UAEJJJPAUtagVARIANT@@@Z:PROC	; CWnd::accHitTest
EXTRN	?accDoDefaultAction@CWnd@@UAEJUtagVARIANT@@@Z:PROC ; CWnd::accDoDefaultAction
EXTRN	?put_accName@CWnd@@UAEJUtagVARIANT@@PA_W@Z:PROC	; CWnd::put_accName
EXTRN	?put_accValue@CWnd@@UAEJUtagVARIANT@@PA_W@Z:PROC ; CWnd::put_accValue
EXTRN	?SetProxy@CWnd@@UAEJPAUIAccessibleProxy@@@Z:PROC ; CWnd::SetProxy
EXTRN	?CreateAccessibleProxy@CWnd@@UAEJIJPAJ@Z:PROC	; CWnd::CreateAccessibleProxy
EXTRN	?OnCommand@CWnd@@MAEHIJ@Z:PROC			; CWnd::OnCommand
EXTRN	?OnNotify@CWnd@@MAEHIJPAJ@Z:PROC		; CWnd::OnNotify
EXTRN	?OnCtlColor@CWnd@@IAEPAUHBRUSH__@@PAVCDC@@PAV1@I@Z:PROC ; CWnd::OnCtlColor
EXTRN	?GetSuperWndProcAddr@CWnd@@MAEPAP6GJPAUHWND__@@IIJ@ZXZ:PROC ; CWnd::GetSuperWndProcAddr
EXTRN	?PreTranslateMessage@CWnd@@UAEHPAUtagMSG@@@Z:PROC ; CWnd::PreTranslateMessage
EXTRN	?OnAmbientProperty@CWnd@@UAEHPAVCOleControlSite@@JPAUtagVARIANT@@@Z:PROC ; CWnd::OnAmbientProperty
EXTRN	?WindowProc@CWnd@@MAEJIIJ@Z:PROC		; CWnd::WindowProc
EXTRN	?OnWndMsg@CWnd@@MAEHIIJPAJ@Z:PROC		; CWnd::OnWndMsg
EXTRN	?DefWindowProcA@CWnd@@MAEJIIJ@Z:PROC		; CWnd::DefWindowProcA
EXTRN	?PostNcDestroy@CWnd@@MAEXXZ:PROC		; CWnd::PostNcDestroy
EXTRN	?OnChildNotify@CWnd@@MAEHIIJPAJ@Z:PROC		; CWnd::OnChildNotify
EXTRN	?OnTouchInputs@CWnd@@MAEHIPAUtagTOUCHINPUT@@@Z:PROC ; CWnd::OnTouchInputs
EXTRN	?OnTouchInput@CWnd@@MAEHVCPoint@@HHPAUtagTOUCHINPUT@@@Z:PROC ; CWnd::OnTouchInput
EXTRN	?GetGestureStatus@CWnd@@MAEKVCPoint@@@Z:PROC	; CWnd::GetGestureStatus
EXTRN	?OnGestureZoom@CWnd@@MAEHVCPoint@@J@Z:PROC	; CWnd::OnGestureZoom
EXTRN	?OnGesturePan@CWnd@@MAEHVCPoint@@0@Z:PROC	; CWnd::OnGesturePan
EXTRN	?OnGestureRotate@CWnd@@MAEHVCPoint@@N@Z:PROC	; CWnd::OnGestureRotate
EXTRN	?OnGestureTwoFingerTap@CWnd@@MAEHVCPoint@@@Z:PROC ; CWnd::OnGestureTwoFingerTap
EXTRN	?OnGesturePressAndTap@CWnd@@MAEHVCPoint@@J@Z:PROC ; CWnd::OnGesturePressAndTap
EXTRN	?ResizeDynamicLayout@CWnd@@MAEXXZ:PROC		; CWnd::ResizeDynamicLayout
EXTRN	?CheckAutoCenter@CWnd@@UAEHXZ:PROC		; CWnd::CheckAutoCenter
EXTRN	?IsFrameWnd@CWnd@@UBEHXZ:PROC			; CWnd::IsFrameWnd
EXTRN	?OnFinalRelease@CWnd@@UAEXXZ:PROC		; CWnd::OnFinalRelease
EXTRN	?CreateControlContainer@CWnd@@MAEHPAPAVCOleControlContainer@@@Z:PROC ; CWnd::CreateControlContainer
EXTRN	?CreateControlSite@CWnd@@MAEHPAVCOleControlContainer@@PAPAVCOleControlSite@@IABU_GUID@@@Z:PROC ; CWnd::CreateControlSite
EXTRN	?SetOccDialogInfo@CWnd@@MAEHPAU_AFX_OCC_DIALOG_INFO@@@Z:PROC ; CWnd::SetOccDialogInfo
EXTRN	?GetOccDialogInfo@CWnd@@MAEPAU_AFX_OCC_DIALOG_INFO@@XZ:PROC ; CWnd::GetOccDialogInfo
EXTRN	?GetMessageMap@CWnd@@MBEPBUAFX_MSGMAP@@XZ:PROC	; CWnd::GetMessageMap
EXTRN	?GetRuntimeClass@CDialog@@UBEPAUCRuntimeClass@@XZ:PROC ; CDialog::GetRuntimeClass
EXTRN	?Create@CDialog@@UAEHPBDPAVCWnd@@@Z:PROC	; CDialog::Create
EXTRN	?CreateIndirect@CDialog@@UAEHPBUDLGTEMPLATE@@PAVCWnd@@PAX@Z:PROC ; CDialog::CreateIndirect
EXTRN	?CreateIndirect@CDialog@@UAEHPAXPAVCWnd@@@Z:PROC ; CDialog::CreateIndirect
EXTRN	?DoModal@CDialog@@UAEHXZ:PROC			; CDialog::DoModal
EXTRN	?OnInitDialog@CDialog@@UAEHXZ:PROC		; CDialog::OnInitDialog
EXTRN	?OnSetFont@CDialog@@UAEXPAVCFont@@@Z:PROC	; CDialog::OnSetFont
EXTRN	?OnOK@CDialog@@MAEXXZ:PROC			; CDialog::OnOK
EXTRN	?OnCancel@CDialog@@MAEXXZ:PROC			; CDialog::OnCancel
EXTRN	??1CDialog@@UAE@XZ:PROC				; CDialog::~CDialog
EXTRN	?PreTranslateMessage@CDialog@@UAEHPAUtagMSG@@@Z:PROC ; CDialog::PreTranslateMessage
EXTRN	?OnCmdMsg@CDialog@@UAEHIHPAXPAUAFX_CMDHANDLERINFO@@@Z:PROC ; CDialog::OnCmdMsg
EXTRN	?CheckAutoCenter@CDialog@@UAEHXZ:PROC		; CDialog::CheckAutoCenter
EXTRN	?SetOccDialogInfo@CDialog@@MAEHPAU_AFX_OCC_DIALOG_INFO@@@Z:PROC ; CDialog::SetOccDialogInfo
EXTRN	?GetOccDialogInfo@CDialog@@MAEPAU_AFX_OCC_DIALOG_INFO@@XZ:PROC ; CDialog::GetOccDialogInfo
EXTRN	?PreInitDialog@CDialog@@MAEXXZ:PROC		; CDialog::PreInitDialog
EXTRN	?GetRuntimeClass@CButton@@UBEPAUCRuntimeClass@@XZ:PROC ; CButton::GetRuntimeClass
EXTRN	?Create@CButton@@UAEHPBDKABUtagRECT@@PAVCWnd@@I@Z:PROC ; CButton::Create
EXTRN	?DrawItem@CButton@@UAEXPAUtagDRAWITEMSTRUCT@@@Z:PROC ; CButton::DrawItem
EXTRN	??1CButton@@UAE@XZ:PROC				; CButton::~CButton
EXTRN	?OnChildNotify@CButton@@MAEHIIJPAJ@Z:PROC	; CButton::OnChildNotify
EXTRN	??_ECButton@@UAEPAXI@Z:PROC			; CButton::`vector deleting destructor'
EXTRN	?AfxFindResourceHandle@@YGPAUHINSTANCE__@@PBD0@Z:PROC ; AfxFindResourceHandle
EXTRN	?GetRuntimeClass@CCommonDialog@@UBEPAUCRuntimeClass@@XZ:PROC ; CCommonDialog::GetRuntimeClass
EXTRN	?OnOK@CCommonDialog@@MAEXXZ:PROC		; CCommonDialog::OnOK
EXTRN	?OnCancel@CCommonDialog@@MAEXXZ:PROC		; CCommonDialog::OnCancel
EXTRN	?GetMessageMap@CCommonDialog@@MBEPBUAFX_MSGMAP@@XZ:PROC ; CCommonDialog::GetMessageMap
EXTRN	??_ECCommonDialog@@UAEPAXI@Z:PROC		; CCommonDialog::`vector deleting destructor'
EXTRN	??0CColorDialog@@QAE@KKPAVCWnd@@@Z:PROC		; CColorDialog::CColorDialog
EXTRN	?DoModal@CColorDialog@@UAEHXZ:PROC		; CColorDialog::DoModal
EXTRN	??0CBitmapItemComboBox@@QAE@XZ:PROC		; CBitmapItemComboBox::CBitmapItemComboBox
EXTRN	??1CBitmapItemComboBox@@UAE@XZ:PROC		; CBitmapItemComboBox::~CBitmapItemComboBox
EXTRN	??0CRscDlg@@QAE@IPAVCWnd@@@Z:PROC		; CRscDlg::CRscDlg
EXTRN	?Create@CRscDlg@@UAEHIPAVCWnd@@@Z:PROC		; CRscDlg::Create
EXTRN	?DoModal@CRscDlg@@UAEHXZ:PROC			; CRscDlg::DoModal
EXTRN	?DoDataExchange@CRscDlg@@MAEXPAVCDataExchange@@@Z:PROC ; CRscDlg::DoDataExchange
EXTRN	?GetThisMessageMap@CRscDlg@@KGPBUAFX_MSGMAP@@XZ:PROC ; CRscDlg::GetThisMessageMap
EXTRN	??0CColorButton@@QAE@XZ:PROC			; CColorButton::CColorButton
EXTRN	??1CColorButton@@UAE@XZ:PROC			; CColorButton::~CColorButton
EXTRN	?SetColor@CColorButton@@QAEXABK@Z:PROC		; CColorButton::SetColor
EXTRN	?EnableWindow@CColorButton@@QAEHH@Z:PROC	; CColorButton::EnableWindow
EXTRN	??_ECTabSignal@@UAEPAXI@Z:PROC			; CTabSignal::`vector deleting destructor'
EXTRN	?GetPrivateProfileStringInST@CDlgSTOption@@QAEKPBD00PADKH@Z:PROC ; CDlgSTOption::GetPrivateProfileStringInST
EXTRN	?WritePrivateProfileStringInST@CDlgSTOption@@QAEHPBD00H@Z:PROC ; CDlgSTOption::WritePrivateProfileStringInST
EXTRN	?GetSfgPath@CDlgSTOption@@QAE?AV?$CStringT@DV?$StrTraitMFC_DLL@DV?$ChTraitsCRT@D@ATL@@@@@ATL@@XZ:PROC ; CDlgSTOption::GetSfgPath
EXTRN	?Parser@@YA?AV?$CStringT@DV?$StrTraitMFC_DLL@DV?$ChTraitsCRT@D@ATL@@@@@ATL@@PBDPAH@Z:PROC ; Parser
EXTRN	@__security_check_cookie@4:PROC
EXTRN	___CxxFrameHandler3:PROC
EXTRN	??_7type_info@@6B@:QWORD			; type_info::`vftable'
EXTRN	___security_cookie:DWORD
;	COMDAT ??_R2CRscDlg@@8
rdata$r	SEGMENT
??_R2CRscDlg@@8 DD FLAT:??_R1A@?0A@EA@CRscDlg@@8	; CRscDlg::`RTTI Base Class Array'
	DD	FLAT:??_R1A@?0A@EA@CDialog@@8
	DD	FLAT:??_R1A@?0A@EA@CWnd@@8
	DD	FLAT:??_R1A@?0A@EA@CCmdTarget@@8
	DD	FLAT:??_R1A@?0A@EA@CObject@@8
rdata$r	ENDS
;	COMDAT ??_R3CRscDlg@@8
rdata$r	SEGMENT
??_R3CRscDlg@@8 DD 00H					; CRscDlg::`RTTI Class Hierarchy Descriptor'
	DD	00H
	DD	05H
	DD	FLAT:??_R2CRscDlg@@8
rdata$r	ENDS
;	COMDAT ??_R0?AVCRscDlg@@@8
data$rs	SEGMENT
??_R0?AVCRscDlg@@@8 DD FLAT:??_7type_info@@6B@		; CRscDlg `RTTI Type Descriptor'
	DD	00H
	DB	'.?AVCRscDlg@@', 00H
data$rs	ENDS
;	COMDAT ??_R1A@?0A@EA@CRscDlg@@8
rdata$r	SEGMENT
??_R1A@?0A@EA@CRscDlg@@8 DD FLAT:??_R0?AVCRscDlg@@@8	; CRscDlg::`RTTI Base Class Descriptor at (0,-1,0,64)'
	DD	04H
	DD	00H
	DD	0ffffffffH
	DD	00H
	DD	040H
	DD	FLAT:??_R3CRscDlg@@8
rdata$r	ENDS
;	COMDAT ??_R1A@?0A@EA@CTabSignal@@8
rdata$r	SEGMENT
??_R1A@?0A@EA@CTabSignal@@8 DD FLAT:??_R0?AVCTabSignal@@@8 ; CTabSignal::`RTTI Base Class Descriptor at (0,-1,0,64)'
	DD	05H
	DD	00H
	DD	0ffffffffH
	DD	00H
	DD	040H
	DD	FLAT:??_R3CTabSignal@@8
rdata$r	ENDS
;	COMDAT ??_R2CTabSignal@@8
rdata$r	SEGMENT
??_R2CTabSignal@@8 DD FLAT:??_R1A@?0A@EA@CTabSignal@@8	; CTabSignal::`RTTI Base Class Array'
	DD	FLAT:??_R1A@?0A@EA@CRscDlg@@8
	DD	FLAT:??_R1A@?0A@EA@CDialog@@8
	DD	FLAT:??_R1A@?0A@EA@CWnd@@8
	DD	FLAT:??_R1A@?0A@EA@CCmdTarget@@8
	DD	FLAT:??_R1A@?0A@EA@CObject@@8
rdata$r	ENDS
;	COMDAT ??_R3CTabSignal@@8
rdata$r	SEGMENT
??_R3CTabSignal@@8 DD 00H				; CTabSignal::`RTTI Class Hierarchy Descriptor'
	DD	00H
	DD	06H
	DD	FLAT:??_R2CTabSignal@@8
rdata$r	ENDS
;	COMDAT ??_R0?AVCTabSignal@@@8
data$rs	SEGMENT
??_R0?AVCTabSignal@@@8 DD FLAT:??_7type_info@@6B@	; CTabSignal `RTTI Type Descriptor'
	DD	00H
	DB	'.?AVCTabSignal@@', 00H
data$rs	ENDS
;	COMDAT ??_R4CTabSignal@@6B@
rdata$r	SEGMENT
??_R4CTabSignal@@6B@ DD 00H				; CTabSignal::`RTTI Complete Object Locator'
	DD	00H
	DD	00H
	DD	FLAT:??_R0?AVCTabSignal@@@8
	DD	FLAT:??_R3CTabSignal@@8
rdata$r	ENDS
;	COMDAT ??_C@_0O@EOJLGNKN@ShowSignalQty@
CONST	SEGMENT
??_C@_0O@EOJLGNKN@ShowSignalQty@ DB 'ShowSignalQty', 00H ; `string'
CONST	ENDS
;	COMDAT ??_C@_0P@COPLHHII@ShowSignalName@
CONST	SEGMENT
??_C@_0P@COPLHHII@ShowSignalName@ DB 'ShowSignalName', 00H ; `string'
CONST	ENDS
;	COMDAT ??_C@_01GBGANLPD@0@
CONST	SEGMENT
??_C@_01GBGANLPD@0@ DB '0', 00H				; `string'
CONST	ENDS
;	COMDAT ??_C@_0N@CJIFBCJK@UseExitshort@
CONST	SEGMENT
??_C@_0N@CJIFBCJK@UseExitshort@ DB 'UseExitshort', 00H	; `string'
CONST	ENDS
;	COMDAT ??_C@_0M@ECKDADJF@UseExitlong@
CONST	SEGMENT
??_C@_0M@ECKDADJF@UseExitlong@ DB 'UseExitlong', 00H	; `string'
CONST	ENDS
;	COMDAT ??_C@_07PJGMCNKO@UseSell@
CONST	SEGMENT
??_C@_07PJGMCNKO@UseSell@ DB 'UseSell', 00H		; `string'
CONST	ENDS
;	COMDAT ??_C@_06FCMAJJHB@UseBuy@
CONST	SEGMENT
??_C@_06FCMAJJHB@UseBuy@ DB 'UseBuy', 00H		; `string'
CONST	ENDS
;	COMDAT ?messageMap@?1??GetThisMessageMap@CTabSignal@@KGPBUAFX_MSGMAP@@XZ@4U3@B
CONST	SEGMENT
?messageMap@?1??GetThisMessageMap@CTabSignal@@KGPBUAFX_MSGMAP@@XZ@4U3@B DD FLAT:?GetThisMessageMap@CRscDlg@@KGPBUAFX_MSGMAP@@XZ ; `CTabSignal::GetThisMessageMap'::`2'::messageMap
	DD	FLAT:?_messageEntries@?1??GetThisMessageMap@CTabSignal@@KGPBUAFX_MSGMAP@@XZ@4QBUAFX_MSGMAP_ENTRY@@B
CONST	ENDS
;	COMDAT ?_messageEntries@?1??GetThisMessageMap@CTabSignal@@KGPBUAFX_MSGMAP@@XZ@4QBUAFX_MSGMAP_ENTRY@@B
CONST	SEGMENT
?_messageEntries@?1??GetThisMessageMap@CTabSignal@@KGPBUAFX_MSGMAP@@XZ@4QBUAFX_MSGMAP_ENTRY@@B DD 0111H ; `CTabSignal::GetThisMessageMap'::`2'::_messageEntries
	DD	00H
	DD	05210H
	DD	05210H
	DD	03aH
	DD	FLAT:?OnBtClrBuy@CTabSignal@@IAEXXZ
	DD	0111H
	DD	00H
	DD	0521dH
	DD	0521dH
	DD	03aH
	DD	FLAT:?OnBtClrExitlong@CTabSignal@@IAEXXZ
	DD	0111H
	DD	00H
	DD	05218H
	DD	05218H
	DD	03aH
	DD	FLAT:?OnBtClrExitshort@CTabSignal@@IAEXXZ
	DD	0111H
	DD	00H
	DD	0521eH
	DD	0521eH
	DD	03aH
	DD	FLAT:?OnBtClrSell@CTabSignal@@IAEXXZ
	DD	019H
	DD	00H
	DD	00H
	DD	00H
	DD	08H
	DD	FLAT:?OnCtlColor@CTabSignal@@IAEPAUHBRUSH__@@PAVCDC@@PAVCWnd@@I@Z
	DD	00H
	DD	00H
	DD	00H
	DD	00H
	DD	00H
	DD	00H
CONST	ENDS
;	COMDAT ??_7CTabSignal@@6B@
CONST	SEGMENT
??_7CTabSignal@@6B@ DD FLAT:??_R4CTabSignal@@6B@	; CTabSignal::`vftable'
	DD	FLAT:?GetRuntimeClass@CDialog@@UBEPAUCRuntimeClass@@XZ
	DD	FLAT:??_ECTabSignal@@UAEPAXI@Z
	DD	FLAT:?Serialize@CObject@@UAEXAAVCArchive@@@Z
	DD	FLAT:?AssertValid@CObject@@UBEXXZ
	DD	FLAT:?Dump@CObject@@UBEXAAVCDumpContext@@@Z
	DD	FLAT:?OnCmdMsg@CDialog@@UAEHIHPAXPAUAFX_CMDHANDLERINFO@@@Z
	DD	FLAT:?OnFinalRelease@CWnd@@UAEXXZ
	DD	FLAT:?IsInvokeAllowed@CCmdTarget@@UAEHJ@Z
	DD	FLAT:?GetDispatchIID@CCmdTarget@@UAEHPAU_GUID@@@Z
	DD	FLAT:?GetTypeInfoCount@CCmdTarget@@UAEIXZ
	DD	FLAT:?GetTypeLibCache@CCmdTarget@@UAEPAVCTypeLibCache@@XZ
	DD	FLAT:?GetTypeLib@CCmdTarget@@UAEJKPAPAUITypeLib@@@Z
	DD	FLAT:?GetMessageMap@CTabSignal@@MBEPBUAFX_MSGMAP@@XZ
	DD	FLAT:?GetCommandMap@CCmdTarget@@MBEPBUAFX_OLECMDMAP@@XZ
	DD	FLAT:?GetDispatchMap@CCmdTarget@@MBEPBUAFX_DISPMAP@@XZ
	DD	FLAT:?GetConnectionMap@CCmdTarget@@MBEPBUAFX_CONNECTIONMAP@@XZ
	DD	FLAT:?GetInterfaceMap@CWnd@@MBEPBUAFX_INTERFACEMAP@@XZ
	DD	FLAT:?GetEventSinkMap@CCmdTarget@@MBEPBUAFX_EVENTSINKMAP@@XZ
	DD	FLAT:?OnCreateAggregates@CCmdTarget@@UAEHXZ
	DD	FLAT:?GetInterfaceHook@CCmdTarget@@UAEPAUIUnknown@@PBX@Z
	DD	FLAT:?GetExtraConnectionPoints@CCmdTarget@@MAEHPAVCPtrArray@@@Z
	DD	FLAT:?GetConnectionHook@CCmdTarget@@MAEPAUIConnectionPoint@@ABU_GUID@@@Z
	DD	FLAT:?PreSubclassWindow@CWnd@@UAEXXZ
	DD	FLAT:?Create@CWnd@@UAEHPBD0KABUtagRECT@@PAV1@IPAUCCreateContext@@@Z
	DD	FLAT:?CreateEx@CWnd@@UAEHKPBD0KABUtagRECT@@PAV1@IPAX@Z
	DD	FLAT:?CreateEx@CWnd@@UAEHKPBD0KHHHHPAUHWND__@@PAUHMENU__@@PAX@Z
	DD	FLAT:?DestroyWindow@CWnd@@UAEHXZ
	DD	FLAT:?PreCreateWindow@CWnd@@UAEHAAUtagCREATESTRUCTA@@@Z
	DD	FLAT:?CalcWindowRect@CWnd@@UAEXPAUtagRECT@@I@Z
	DD	FLAT:?GetMenu@CWnd@@UBEPAVCMenu@@XZ
	DD	FLAT:?SetMenu@CWnd@@UAEHPAVCMenu@@@Z
	DD	FLAT:?OnToolHitTest@CWnd@@UBEHVCPoint@@PAUtagTOOLINFOA@@@Z
	DD	FLAT:?GetScrollBarCtrl@CWnd@@UBEPAVCScrollBar@@H@Z
	DD	FLAT:?WinHelpA@CWnd@@UAEXKI@Z
	DD	FLAT:?HtmlHelpA@CWnd@@UAEXKI@Z
	DD	FLAT:?WinHelpInternal@CWnd@@UAEXKI@Z
	DD	FLAT:?ContinueModal@CWnd@@UAEHXZ
	DD	FLAT:?EndModalLoop@CWnd@@UAEXH@Z
	DD	FLAT:?OnDrawIconicThumbnailOrLivePreview@CWnd@@UAEXAAVCDC@@VCRect@@VCSize@@HAAH@Z
	DD	FLAT:?EnsureStdObj@CWnd@@UAEJXZ
	DD	FLAT:?get_accParent@CWnd@@UAEJPAPAUIDispatch@@@Z
	DD	FLAT:?get_accChildCount@CWnd@@UAEJPAJ@Z
	DD	FLAT:?get_accChild@CWnd@@UAEJUtagVARIANT@@PAPAUIDispatch@@@Z
	DD	FLAT:?get_accName@CWnd@@UAEJUtagVARIANT@@PAPA_W@Z
	DD	FLAT:?get_accValue@CWnd@@UAEJUtagVARIANT@@PAPA_W@Z
	DD	FLAT:?get_accDescription@CWnd@@UAEJUtagVARIANT@@PAPA_W@Z
	DD	FLAT:?get_accRole@CWnd@@UAEJUtagVARIANT@@PAU2@@Z
	DD	FLAT:?get_accState@CWnd@@UAEJUtagVARIANT@@PAU2@@Z
	DD	FLAT:?get_accHelp@CWnd@@UAEJUtagVARIANT@@PAPA_W@Z
	DD	FLAT:?get_accHelpTopic@CWnd@@UAEJPAPA_WUtagVARIANT@@PAJ@Z
	DD	FLAT:?get_accKeyboardShortcut@CWnd@@UAEJUtagVARIANT@@PAPA_W@Z
	DD	FLAT:?get_accFocus@CWnd@@UAEJPAUtagVARIANT@@@Z
	DD	FLAT:?get_accSelection@CWnd@@UAEJPAUtagVARIANT@@@Z
	DD	FLAT:?get_accDefaultAction@CWnd@@UAEJUtagVARIANT@@PAPA_W@Z
	DD	FLAT:?accSelect@CWnd@@UAEJJUtagVARIANT@@@Z
	DD	FLAT:?accLocation@CWnd@@UAEJPAJ000UtagVARIANT@@@Z
	DD	FLAT:?accNavigate@CWnd@@UAEJJUtagVARIANT@@PAU2@@Z
	DD	FLAT:?accHitTest@CWnd@@UAEJJJPAUtagVARIANT@@@Z
	DD	FLAT:?accDoDefaultAction@CWnd@@UAEJUtagVARIANT@@@Z
	DD	FLAT:?put_accName@CWnd@@UAEJUtagVARIANT@@PA_W@Z
	DD	FLAT:?put_accValue@CWnd@@UAEJUtagVARIANT@@PA_W@Z
	DD	FLAT:?SetProxy@CWnd@@UAEJPAUIAccessibleProxy@@@Z
	DD	FLAT:?CreateAccessibleProxy@CWnd@@UAEJIJPAJ@Z
	DD	FLAT:?OnCommand@CWnd@@MAEHIJ@Z
	DD	FLAT:?OnNotify@CWnd@@MAEHIJPAJ@Z
	DD	FLAT:?GetSuperWndProcAddr@CWnd@@MAEPAP6GJPAUHWND__@@IIJ@ZXZ
	DD	FLAT:?DoDataExchange@CTabSignal@@MAEXPAVCDataExchange@@@Z
	DD	FLAT:?BeginModalState@CWnd@@UAEXXZ
	DD	FLAT:?EndModalState@CWnd@@UAEXXZ
	DD	FLAT:?PreTranslateMessage@CRscDlg@@MAEHPAUtagMSG@@@Z
	DD	FLAT:?OnAmbientProperty@CWnd@@UAEHPAVCOleControlSite@@JPAUtagVARIANT@@@Z
	DD	FLAT:?WindowProc@CTabSignal@@MAEJIIJ@Z
	DD	FLAT:?OnWndMsg@CWnd@@MAEHIIJPAJ@Z
	DD	FLAT:?DefWindowProcA@CWnd@@MAEJIIJ@Z
	DD	FLAT:?PostNcDestroy@CWnd@@MAEXXZ
	DD	FLAT:?OnChildNotify@CWnd@@MAEHIIJPAJ@Z
	DD	FLAT:?OnTouchInputs@CWnd@@MAEHIPAUtagTOUCHINPUT@@@Z
	DD	FLAT:?OnTouchInput@CWnd@@MAEHVCPoint@@HHPAUtagTOUCHINPUT@@@Z
	DD	FLAT:?GetGestureStatus@CWnd@@MAEKVCPoint@@@Z
	DD	FLAT:?OnGestureZoom@CWnd@@MAEHVCPoint@@J@Z
	DD	FLAT:?OnGesturePan@CWnd@@MAEHVCPoint@@0@Z
	DD	FLAT:?OnGestureRotate@CWnd@@MAEHVCPoint@@N@Z
	DD	FLAT:?OnGestureTwoFingerTap@CWnd@@MAEHVCPoint@@@Z
	DD	FLAT:?OnGesturePressAndTap@CWnd@@MAEHVCPoint@@J@Z
	DD	FLAT:?ResizeDynamicLayout@CWnd@@MAEXXZ
	DD	FLAT:?CheckAutoCenter@CDialog@@UAEHXZ
	DD	FLAT:?IsFrameWnd@CWnd@@UBEHXZ
	DD	FLAT:?CreateControlContainer@CWnd@@MAEHPAPAVCOleControlContainer@@@Z
	DD	FLAT:?CreateControlSite@CWnd@@MAEHPAVCOleControlContainer@@PAPAVCOleControlSite@@IABU_GUID@@@Z
	DD	FLAT:?SetOccDialogInfo@CDialog@@MAEHPAU_AFX_OCC_DIALOG_INFO@@@Z
	DD	FLAT:?GetOccDialogInfo@CDialog@@MAEPAU_AFX_OCC_DIALOG_INFO@@XZ
	DD	FLAT:?Create@CRscDlg@@UAEHIPAVCWnd@@@Z
	DD	FLAT:?Create@CDialog@@UAEHPBDPAVCWnd@@@Z
	DD	FLAT:?CreateIndirect@CDialog@@UAEHPAXPAVCWnd@@@Z
	DD	FLAT:?CreateIndirect@CDialog@@UAEHPBUDLGTEMPLATE@@PAVCWnd@@PAX@Z
	DD	FLAT:?DoModal@CRscDlg@@UAEHXZ
	DD	FLAT:?OnInitDialog@CTabSignal@@MAEHXZ
	DD	FLAT:?OnSetFont@CDialog@@UAEXPAVCFont@@@Z
	DD	FLAT:?OnOK@CDialog@@MAEXXZ
	DD	FLAT:?OnCancel@CDialog@@MAEXXZ
	DD	FLAT:?PreInitDialog@CDialog@@MAEXXZ
	DD	FLAT:?LoadInfo@CTabSignal@@EAEXXZ
	DD	FLAT:?SaveInfo@CTabSignal@@EAEHXZ
	DD	FLAT:?RemoveInfo@CTabSignal@@EAEXXZ
	DD	FLAT:?SetDefault@CRscDlg@@UAEXXZ
CONST	ENDS
;	COMDAT ??_R2CDialog@@8
rdata$r	SEGMENT
??_R2CDialog@@8 DD FLAT:??_R1A@?0A@EA@CDialog@@8	; CDialog::`RTTI Base Class Array'
	DD	FLAT:??_R1A@?0A@EA@CWnd@@8
	DD	FLAT:??_R1A@?0A@EA@CCmdTarget@@8
	DD	FLAT:??_R1A@?0A@EA@CObject@@8
rdata$r	ENDS
;	COMDAT ??_R3CDialog@@8
rdata$r	SEGMENT
??_R3CDialog@@8 DD 00H					; CDialog::`RTTI Class Hierarchy Descriptor'
	DD	00H
	DD	04H
	DD	FLAT:??_R2CDialog@@8
rdata$r	ENDS
;	COMDAT ??_R0?AVCDialog@@@8
data$rs	SEGMENT
??_R0?AVCDialog@@@8 DD FLAT:??_7type_info@@6B@		; CDialog `RTTI Type Descriptor'
	DD	00H
	DB	'.?AVCDialog@@', 00H
data$rs	ENDS
;	COMDAT ??_R1A@?0A@EA@CDialog@@8
rdata$r	SEGMENT
??_R1A@?0A@EA@CDialog@@8 DD FLAT:??_R0?AVCDialog@@@8	; CDialog::`RTTI Base Class Descriptor at (0,-1,0,64)'
	DD	03H
	DD	00H
	DD	0ffffffffH
	DD	00H
	DD	040H
	DD	FLAT:??_R3CDialog@@8
rdata$r	ENDS
;	COMDAT ??_R1A@?0A@EA@CCommonDialog@@8
rdata$r	SEGMENT
??_R1A@?0A@EA@CCommonDialog@@8 DD FLAT:??_R0?AVCCommonDialog@@@8 ; CCommonDialog::`RTTI Base Class Descriptor at (0,-1,0,64)'
	DD	04H
	DD	00H
	DD	0ffffffffH
	DD	00H
	DD	040H
	DD	FLAT:??_R3CCommonDialog@@8
rdata$r	ENDS
;	COMDAT ??_R2CCommonDialog@@8
rdata$r	SEGMENT
??_R2CCommonDialog@@8 DD FLAT:??_R1A@?0A@EA@CCommonDialog@@8 ; CCommonDialog::`RTTI Base Class Array'
	DD	FLAT:??_R1A@?0A@EA@CDialog@@8
	DD	FLAT:??_R1A@?0A@EA@CWnd@@8
	DD	FLAT:??_R1A@?0A@EA@CCmdTarget@@8
	DD	FLAT:??_R1A@?0A@EA@CObject@@8
rdata$r	ENDS
;	COMDAT ??_R3CCommonDialog@@8
rdata$r	SEGMENT
??_R3CCommonDialog@@8 DD 00H				; CCommonDialog::`RTTI Class Hierarchy Descriptor'
	DD	00H
	DD	05H
	DD	FLAT:??_R2CCommonDialog@@8
rdata$r	ENDS
;	COMDAT ??_R0?AVCCommonDialog@@@8
data$rs	SEGMENT
??_R0?AVCCommonDialog@@@8 DD FLAT:??_7type_info@@6B@	; CCommonDialog `RTTI Type Descriptor'
	DD	00H
	DB	'.?AVCCommonDialog@@', 00H
data$rs	ENDS
;	COMDAT ??_R4CCommonDialog@@6B@
rdata$r	SEGMENT
??_R4CCommonDialog@@6B@ DD 00H				; CCommonDialog::`RTTI Complete Object Locator'
	DD	00H
	DD	00H
	DD	FLAT:??_R0?AVCCommonDialog@@@8
	DD	FLAT:??_R3CCommonDialog@@8
rdata$r	ENDS
;	COMDAT ??_R1A@?0A@EA@CButton@@8
rdata$r	SEGMENT
??_R1A@?0A@EA@CButton@@8 DD FLAT:??_R0?AVCButton@@@8	; CButton::`RTTI Base Class Descriptor at (0,-1,0,64)'
	DD	03H
	DD	00H
	DD	0ffffffffH
	DD	00H
	DD	040H
	DD	FLAT:??_R3CButton@@8
rdata$r	ENDS
;	COMDAT ??_R2CButton@@8
rdata$r	SEGMENT
??_R2CButton@@8 DD FLAT:??_R1A@?0A@EA@CButton@@8	; CButton::`RTTI Base Class Array'
	DD	FLAT:??_R1A@?0A@EA@CWnd@@8
	DD	FLAT:??_R1A@?0A@EA@CCmdTarget@@8
	DD	FLAT:??_R1A@?0A@EA@CObject@@8
rdata$r	ENDS
;	COMDAT ??_R3CButton@@8
rdata$r	SEGMENT
??_R3CButton@@8 DD 00H					; CButton::`RTTI Class Hierarchy Descriptor'
	DD	00H
	DD	04H
	DD	FLAT:??_R2CButton@@8
rdata$r	ENDS
;	COMDAT ??_R0?AVCButton@@@8
data$rs	SEGMENT
??_R0?AVCButton@@@8 DD FLAT:??_7type_info@@6B@		; CButton `RTTI Type Descriptor'
	DD	00H
	DB	'.?AVCButton@@', 00H
data$rs	ENDS
;	COMDAT ??_R4CButton@@6B@
rdata$r	SEGMENT
??_R4CButton@@6B@ DD 00H				; CButton::`RTTI Complete Object Locator'
	DD	00H
	DD	00H
	DD	FLAT:??_R0?AVCButton@@@8
	DD	FLAT:??_R3CButton@@8
rdata$r	ENDS
;	COMDAT ??_R2CCmdTarget@@8
rdata$r	SEGMENT
??_R2CCmdTarget@@8 DD FLAT:??_R1A@?0A@EA@CCmdTarget@@8	; CCmdTarget::`RTTI Base Class Array'
	DD	FLAT:??_R1A@?0A@EA@CObject@@8
rdata$r	ENDS
;	COMDAT ??_R3CCmdTarget@@8
rdata$r	SEGMENT
??_R3CCmdTarget@@8 DD 00H				; CCmdTarget::`RTTI Class Hierarchy Descriptor'
	DD	00H
	DD	02H
	DD	FLAT:??_R2CCmdTarget@@8
rdata$r	ENDS
;	COMDAT ??_R0?AVCCmdTarget@@@8
data$rs	SEGMENT
??_R0?AVCCmdTarget@@@8 DD FLAT:??_7type_info@@6B@	; CCmdTarget `RTTI Type Descriptor'
	DD	00H
	DB	'.?AVCCmdTarget@@', 00H
data$rs	ENDS
;	COMDAT ??_R1A@?0A@EA@CCmdTarget@@8
rdata$r	SEGMENT
??_R1A@?0A@EA@CCmdTarget@@8 DD FLAT:??_R0?AVCCmdTarget@@@8 ; CCmdTarget::`RTTI Base Class Descriptor at (0,-1,0,64)'
	DD	01H
	DD	00H
	DD	0ffffffffH
	DD	00H
	DD	040H
	DD	FLAT:??_R3CCmdTarget@@8
rdata$r	ENDS
;	COMDAT ??_R2CWnd@@8
rdata$r	SEGMENT
??_R2CWnd@@8 DD	FLAT:??_R1A@?0A@EA@CWnd@@8		; CWnd::`RTTI Base Class Array'
	DD	FLAT:??_R1A@?0A@EA@CCmdTarget@@8
	DD	FLAT:??_R1A@?0A@EA@CObject@@8
rdata$r	ENDS
;	COMDAT ??_R3CWnd@@8
rdata$r	SEGMENT
??_R3CWnd@@8 DD	00H					; CWnd::`RTTI Class Hierarchy Descriptor'
	DD	00H
	DD	03H
	DD	FLAT:??_R2CWnd@@8
rdata$r	ENDS
;	COMDAT ??_R0?AVCWnd@@@8
data$rs	SEGMENT
??_R0?AVCWnd@@@8 DD FLAT:??_7type_info@@6B@		; CWnd `RTTI Type Descriptor'
	DD	00H
	DB	'.?AVCWnd@@', 00H
data$rs	ENDS
;	COMDAT ??_R1A@?0A@EA@CWnd@@8
rdata$r	SEGMENT
??_R1A@?0A@EA@CWnd@@8 DD FLAT:??_R0?AVCWnd@@@8		; CWnd::`RTTI Base Class Descriptor at (0,-1,0,64)'
	DD	02H
	DD	00H
	DD	0ffffffffH
	DD	00H
	DD	040H
	DD	FLAT:??_R3CWnd@@8
rdata$r	ENDS
;	COMDAT ??_R1A@?0A@EA@CObject@@8
rdata$r	SEGMENT
??_R1A@?0A@EA@CObject@@8 DD FLAT:??_R0?AVCObject@@@8	; CObject::`RTTI Base Class Descriptor at (0,-1,0,64)'
	DD	00H
	DD	00H
	DD	0ffffffffH
	DD	00H
	DD	040H
	DD	FLAT:??_R3CObject@@8
rdata$r	ENDS
;	COMDAT ??_R2CObject@@8
rdata$r	SEGMENT
??_R2CObject@@8 DD FLAT:??_R1A@?0A@EA@CObject@@8	; CObject::`RTTI Base Class Array'
rdata$r	ENDS
;	COMDAT ??_R3CObject@@8
rdata$r	SEGMENT
??_R3CObject@@8 DD 00H					; CObject::`RTTI Class Hierarchy Descriptor'
	DD	00H
	DD	01H
	DD	FLAT:??_R2CObject@@8
rdata$r	ENDS
;	COMDAT ??_R0?AVCObject@@@8
data$rs	SEGMENT
??_R0?AVCObject@@@8 DD FLAT:??_7type_info@@6B@		; CObject `RTTI Type Descriptor'
	DD	00H
	DB	'.?AVCObject@@', 00H
data$rs	ENDS
;	COMDAT ??_C@_0N@MECGMIFI@ClrExitshort@
CONST	SEGMENT
??_C@_0N@MECGMIFI@ClrExitshort@ DB 'ClrExitshort', 00H	; `string'
CONST	ENDS
;	COMDAT ??_C@_07MMPNMLAG@ClrSell@
CONST	SEGMENT
??_C@_07MMPNMLAG@ClrSell@ DB 'ClrSell', 00H		; `string'
CONST	ENDS
;	COMDAT ??_C@_0M@FJPKOBBF@ClrExitlong@
CONST	SEGMENT
??_C@_0M@FJPKOBBF@ClrExitlong@ DB 'ClrExitlong', 00H	; `string'
CONST	ENDS
;	COMDAT ??_C@_06HGIOMLFJ@ClrBuy@
CONST	SEGMENT
??_C@_06HGIOMLFJ@ClrBuy@ DB 'ClrBuy', 00H		; `string'
CONST	ENDS
;	COMDAT ??_C@_0P@GBBMBNOC@ShapeExitshort@
CONST	SEGMENT
??_C@_0P@GBBMBNOC@ShapeExitshort@ DB 'ShapeExitshort', 00H ; `string'
CONST	ENDS
;	COMDAT ??_C@_09PKDDMDFM@ShapeSell@
CONST	SEGMENT
??_C@_09PKDDMDFM@ShapeSell@ DB 'ShapeSell', 00H		; `string'
CONST	ENDS
;	COMDAT ??_C@_0O@GJJKDADC@ShapeExitlong@
CONST	SEGMENT
??_C@_0O@GJJKDADC@ShapeExitlong@ DB 'ShapeExitlong', 00H ; `string'
CONST	ENDS
;	COMDAT ??_C@_06CPODCDOI@Signal@
CONST	SEGMENT
??_C@_06CPODCDOI@Signal@ DB 'Signal', 00H		; `string'
CONST	ENDS
;	COMDAT ??_C@_08LLMMGHPD@ShapeBuy@
CONST	SEGMENT
??_C@_08LLMMGHPD@ShapeBuy@ DB 'ShapeBuy', 00H		; `string'
CONST	ENDS
;	COMDAT ??_7CCommonDialog@@6B@
CONST	SEGMENT
??_7CCommonDialog@@6B@ DD FLAT:??_R4CCommonDialog@@6B@	; CCommonDialog::`vftable'
	DD	FLAT:?GetRuntimeClass@CCommonDialog@@UBEPAUCRuntimeClass@@XZ
	DD	FLAT:??_ECCommonDialog@@UAEPAXI@Z
	DD	FLAT:?Serialize@CObject@@UAEXAAVCArchive@@@Z
	DD	FLAT:?AssertValid@CObject@@UBEXXZ
	DD	FLAT:?Dump@CObject@@UBEXAAVCDumpContext@@@Z
	DD	FLAT:?OnCmdMsg@CDialog@@UAEHIHPAXPAUAFX_CMDHANDLERINFO@@@Z
	DD	FLAT:?OnFinalRelease@CWnd@@UAEXXZ
	DD	FLAT:?IsInvokeAllowed@CCmdTarget@@UAEHJ@Z
	DD	FLAT:?GetDispatchIID@CCmdTarget@@UAEHPAU_GUID@@@Z
	DD	FLAT:?GetTypeInfoCount@CCmdTarget@@UAEIXZ
	DD	FLAT:?GetTypeLibCache@CCmdTarget@@UAEPAVCTypeLibCache@@XZ
	DD	FLAT:?GetTypeLib@CCmdTarget@@UAEJKPAPAUITypeLib@@@Z
	DD	FLAT:?GetMessageMap@CCommonDialog@@MBEPBUAFX_MSGMAP@@XZ
	DD	FLAT:?GetCommandMap@CCmdTarget@@MBEPBUAFX_OLECMDMAP@@XZ
	DD	FLAT:?GetDispatchMap@CCmdTarget@@MBEPBUAFX_DISPMAP@@XZ
	DD	FLAT:?GetConnectionMap@CCmdTarget@@MBEPBUAFX_CONNECTIONMAP@@XZ
	DD	FLAT:?GetInterfaceMap@CWnd@@MBEPBUAFX_INTERFACEMAP@@XZ
	DD	FLAT:?GetEventSinkMap@CCmdTarget@@MBEPBUAFX_EVENTSINKMAP@@XZ
	DD	FLAT:?OnCreateAggregates@CCmdTarget@@UAEHXZ
	DD	FLAT:?GetInterfaceHook@CCmdTarget@@UAEPAUIUnknown@@PBX@Z
	DD	FLAT:?GetExtraConnectionPoints@CCmdTarget@@MAEHPAVCPtrArray@@@Z
	DD	FLAT:?GetConnectionHook@CCmdTarget@@MAEPAUIConnectionPoint@@ABU_GUID@@@Z
	DD	FLAT:?PreSubclassWindow@CWnd@@UAEXXZ
	DD	FLAT:?Create@CWnd@@UAEHPBD0KABUtagRECT@@PAV1@IPAUCCreateContext@@@Z
	DD	FLAT:?CreateEx@CWnd@@UAEHKPBD0KABUtagRECT@@PAV1@IPAX@Z
	DD	FLAT:?CreateEx@CWnd@@UAEHKPBD0KHHHHPAUHWND__@@PAUHMENU__@@PAX@Z
	DD	FLAT:?DestroyWindow@CWnd@@UAEHXZ
	DD	FLAT:?PreCreateWindow@CWnd@@UAEHAAUtagCREATESTRUCTA@@@Z
	DD	FLAT:?CalcWindowRect@CWnd@@UAEXPAUtagRECT@@I@Z
	DD	FLAT:?GetMenu@CWnd@@UBEPAVCMenu@@XZ
	DD	FLAT:?SetMenu@CWnd@@UAEHPAVCMenu@@@Z
	DD	FLAT:?OnToolHitTest@CWnd@@UBEHVCPoint@@PAUtagTOOLINFOA@@@Z
	DD	FLAT:?GetScrollBarCtrl@CWnd@@UBEPAVCScrollBar@@H@Z
	DD	FLAT:?WinHelpA@CWnd@@UAEXKI@Z
	DD	FLAT:?HtmlHelpA@CWnd@@UAEXKI@Z
	DD	FLAT:?WinHelpInternal@CWnd@@UAEXKI@Z
	DD	FLAT:?ContinueModal@CWnd@@UAEHXZ
	DD	FLAT:?EndModalLoop@CWnd@@UAEXH@Z
	DD	FLAT:?OnDrawIconicThumbnailOrLivePreview@CWnd@@UAEXAAVCDC@@VCRect@@VCSize@@HAAH@Z
	DD	FLAT:?EnsureStdObj@CWnd@@UAEJXZ
	DD	FLAT:?get_accParent@CWnd@@UAEJPAPAUIDispatch@@@Z
	DD	FLAT:?get_accChildCount@CWnd@@UAEJPAJ@Z
	DD	FLAT:?get_accChild@CWnd@@UAEJUtagVARIANT@@PAPAUIDispatch@@@Z
	DD	FLAT:?get_accName@CWnd@@UAEJUtagVARIANT@@PAPA_W@Z
	DD	FLAT:?get_accValue@CWnd@@UAEJUtagVARIANT@@PAPA_W@Z
	DD	FLAT:?get_accDescription@CWnd@@UAEJUtagVARIANT@@PAPA_W@Z
	DD	FLAT:?get_accRole@CWnd@@UAEJUtagVARIANT@@PAU2@@Z
	DD	FLAT:?get_accState@CWnd@@UAEJUtagVARIANT@@PAU2@@Z
	DD	FLAT:?get_accHelp@CWnd@@UAEJUtagVARIANT@@PAPA_W@Z
	DD	FLAT:?get_accHelpTopic@CWnd@@UAEJPAPA_WUtagVARIANT@@PAJ@Z
	DD	FLAT:?get_accKeyboardShortcut@CWnd@@UAEJUtagVARIANT@@PAPA_W@Z
	DD	FLAT:?get_accFocus@CWnd@@UAEJPAUtagVARIANT@@@Z
	DD	FLAT:?get_accSelection@CWnd@@UAEJPAUtagVARIANT@@@Z
	DD	FLAT:?get_accDefaultAction@CWnd@@UAEJUtagVARIANT@@PAPA_W@Z
	DD	FLAT:?accSelect@CWnd@@UAEJJUtagVARIANT@@@Z
	DD	FLAT:?accLocation@CWnd@@UAEJPAJ000UtagVARIANT@@@Z
	DD	FLAT:?accNavigate@CWnd@@UAEJJUtagVARIANT@@PAU2@@Z
	DD	FLAT:?accHitTest@CWnd@@UAEJJJPAUtagVARIANT@@@Z
	DD	FLAT:?accDoDefaultAction@CWnd@@UAEJUtagVARIANT@@@Z
	DD	FLAT:?put_accName@CWnd@@UAEJUtagVARIANT@@PA_W@Z
	DD	FLAT:?put_accValue@CWnd@@UAEJUtagVARIANT@@PA_W@Z
	DD	FLAT:?SetProxy@CWnd@@UAEJPAUIAccessibleProxy@@@Z
	DD	FLAT:?CreateAccessibleProxy@CWnd@@UAEJIJPAJ@Z
	DD	FLAT:?OnCommand@CWnd@@MAEHIJ@Z
	DD	FLAT:?OnNotify@CWnd@@MAEHIJPAJ@Z
	DD	FLAT:?GetSuperWndProcAddr@CWnd@@MAEPAP6GJPAUHWND__@@IIJ@ZXZ
	DD	FLAT:?DoDataExchange@CWnd@@MAEXPAVCDataExchange@@@Z
	DD	FLAT:?BeginModalState@CWnd@@UAEXXZ
	DD	FLAT:?EndModalState@CWnd@@UAEXXZ
	DD	FLAT:?PreTranslateMessage@CDialog@@UAEHPAUtagMSG@@@Z
	DD	FLAT:?OnAmbientProperty@CWnd@@UAEHPAVCOleControlSite@@JPAUtagVARIANT@@@Z
	DD	FLAT:?WindowProc@CWnd@@MAEJIIJ@Z
	DD	FLAT:?OnWndMsg@CWnd@@MAEHIIJPAJ@Z
	DD	FLAT:?DefWindowProcA@CWnd@@MAEJIIJ@Z
	DD	FLAT:?PostNcDestroy@CWnd@@MAEXXZ
	DD	FLAT:?OnChildNotify@CWnd@@MAEHIIJPAJ@Z
	DD	FLAT:?OnTouchInputs@CWnd@@MAEHIPAUtagTOUCHINPUT@@@Z
	DD	FLAT:?OnTouchInput@CWnd@@MAEHVCPoint@@HHPAUtagTOUCHINPUT@@@Z
	DD	FLAT:?GetGestureStatus@CWnd@@MAEKVCPoint@@@Z
	DD	FLAT:?OnGestureZoom@CWnd@@MAEHVCPoint@@J@Z
	DD	FLAT:?OnGesturePan@CWnd@@MAEHVCPoint@@0@Z
	DD	FLAT:?OnGestureRotate@CWnd@@MAEHVCPoint@@N@Z
	DD	FLAT:?OnGestureTwoFingerTap@CWnd@@MAEHVCPoint@@@Z
	DD	FLAT:?OnGesturePressAndTap@CWnd@@MAEHVCPoint@@J@Z
	DD	FLAT:?ResizeDynamicLayout@CWnd@@MAEXXZ
	DD	FLAT:?CheckAutoCenter@CDialog@@UAEHXZ
	DD	FLAT:?IsFrameWnd@CWnd@@UBEHXZ
	DD	FLAT:?CreateControlContainer@CWnd@@MAEHPAPAVCOleControlContainer@@@Z
	DD	FLAT:?CreateControlSite@CWnd@@MAEHPAVCOleControlContainer@@PAPAVCOleControlSite@@IABU_GUID@@@Z
	DD	FLAT:?SetOccDialogInfo@CDialog@@MAEHPAU_AFX_OCC_DIALOG_INFO@@@Z
	DD	FLAT:?GetOccDialogInfo@CDialog@@MAEPAU_AFX_OCC_DIALOG_INFO@@XZ
	DD	FLAT:?Create@CDialog@@UAEHIPAVCWnd@@@Z
	DD	FLAT:?Create@CDialog@@UAEHPBDPAVCWnd@@@Z
	DD	FLAT:?CreateIndirect@CDialog@@UAEHPAXPAVCWnd@@@Z
	DD	FLAT:?CreateIndirect@CDialog@@UAEHPBUDLGTEMPLATE@@PAVCWnd@@PAX@Z
	DD	FLAT:?DoModal@CDialog@@UAEHXZ
	DD	FLAT:?OnInitDialog@CDialog@@UAEHXZ
	DD	FLAT:?OnSetFont@CDialog@@UAEXPAVCFont@@@Z
	DD	FLAT:?OnOK@CCommonDialog@@MAEXXZ
	DD	FLAT:?OnCancel@CCommonDialog@@MAEXXZ
	DD	FLAT:?PreInitDialog@CDialog@@MAEXXZ
CONST	ENDS
;	COMDAT ??_7CButton@@6B@
CONST	SEGMENT
??_7CButton@@6B@ DD FLAT:??_R4CButton@@6B@		; CButton::`vftable'
	DD	FLAT:?GetRuntimeClass@CButton@@UBEPAUCRuntimeClass@@XZ
	DD	FLAT:??_ECButton@@UAEPAXI@Z
	DD	FLAT:?Serialize@CObject@@UAEXAAVCArchive@@@Z
	DD	FLAT:?AssertValid@CObject@@UBEXXZ
	DD	FLAT:?Dump@CObject@@UBEXAAVCDumpContext@@@Z
	DD	FLAT:?OnCmdMsg@CCmdTarget@@UAEHIHPAXPAUAFX_CMDHANDLERINFO@@@Z
	DD	FLAT:?OnFinalRelease@CWnd@@UAEXXZ
	DD	FLAT:?IsInvokeAllowed@CCmdTarget@@UAEHJ@Z
	DD	FLAT:?GetDispatchIID@CCmdTarget@@UAEHPAU_GUID@@@Z
	DD	FLAT:?GetTypeInfoCount@CCmdTarget@@UAEIXZ
	DD	FLAT:?GetTypeLibCache@CCmdTarget@@UAEPAVCTypeLibCache@@XZ
	DD	FLAT:?GetTypeLib@CCmdTarget@@UAEJKPAPAUITypeLib@@@Z
	DD	FLAT:?GetMessageMap@CWnd@@MBEPBUAFX_MSGMAP@@XZ
	DD	FLAT:?GetCommandMap@CCmdTarget@@MBEPBUAFX_OLECMDMAP@@XZ
	DD	FLAT:?GetDispatchMap@CCmdTarget@@MBEPBUAFX_DISPMAP@@XZ
	DD	FLAT:?GetConnectionMap@CCmdTarget@@MBEPBUAFX_CONNECTIONMAP@@XZ
	DD	FLAT:?GetInterfaceMap@CWnd@@MBEPBUAFX_INTERFACEMAP@@XZ
	DD	FLAT:?GetEventSinkMap@CCmdTarget@@MBEPBUAFX_EVENTSINKMAP@@XZ
	DD	FLAT:?OnCreateAggregates@CCmdTarget@@UAEHXZ
	DD	FLAT:?GetInterfaceHook@CCmdTarget@@UAEPAUIUnknown@@PBX@Z
	DD	FLAT:?GetExtraConnectionPoints@CCmdTarget@@MAEHPAVCPtrArray@@@Z
	DD	FLAT:?GetConnectionHook@CCmdTarget@@MAEPAUIConnectionPoint@@ABU_GUID@@@Z
	DD	FLAT:?PreSubclassWindow@CWnd@@UAEXXZ
	DD	FLAT:?Create@CWnd@@UAEHPBD0KABUtagRECT@@PAV1@IPAUCCreateContext@@@Z
	DD	FLAT:?CreateEx@CWnd@@UAEHKPBD0KABUtagRECT@@PAV1@IPAX@Z
	DD	FLAT:?CreateEx@CWnd@@UAEHKPBD0KHHHHPAUHWND__@@PAUHMENU__@@PAX@Z
	DD	FLAT:?DestroyWindow@CWnd@@UAEHXZ
	DD	FLAT:?PreCreateWindow@CWnd@@UAEHAAUtagCREATESTRUCTA@@@Z
	DD	FLAT:?CalcWindowRect@CWnd@@UAEXPAUtagRECT@@I@Z
	DD	FLAT:?GetMenu@CWnd@@UBEPAVCMenu@@XZ
	DD	FLAT:?SetMenu@CWnd@@UAEHPAVCMenu@@@Z
	DD	FLAT:?OnToolHitTest@CWnd@@UBEHVCPoint@@PAUtagTOOLINFOA@@@Z
	DD	FLAT:?GetScrollBarCtrl@CWnd@@UBEPAVCScrollBar@@H@Z
	DD	FLAT:?WinHelpA@CWnd@@UAEXKI@Z
	DD	FLAT:?HtmlHelpA@CWnd@@UAEXKI@Z
	DD	FLAT:?WinHelpInternal@CWnd@@UAEXKI@Z
	DD	FLAT:?ContinueModal@CWnd@@UAEHXZ
	DD	FLAT:?EndModalLoop@CWnd@@UAEXH@Z
	DD	FLAT:?OnDrawIconicThumbnailOrLivePreview@CWnd@@UAEXAAVCDC@@VCRect@@VCSize@@HAAH@Z
	DD	FLAT:?EnsureStdObj@CWnd@@UAEJXZ
	DD	FLAT:?get_accParent@CWnd@@UAEJPAPAUIDispatch@@@Z
	DD	FLAT:?get_accChildCount@CWnd@@UAEJPAJ@Z
	DD	FLAT:?get_accChild@CWnd@@UAEJUtagVARIANT@@PAPAUIDispatch@@@Z
	DD	FLAT:?get_accName@CWnd@@UAEJUtagVARIANT@@PAPA_W@Z
	DD	FLAT:?get_accValue@CWnd@@UAEJUtagVARIANT@@PAPA_W@Z
	DD	FLAT:?get_accDescription@CWnd@@UAEJUtagVARIANT@@PAPA_W@Z
	DD	FLAT:?get_accRole@CWnd@@UAEJUtagVARIANT@@PAU2@@Z
	DD	FLAT:?get_accState@CWnd@@UAEJUtagVARIANT@@PAU2@@Z
	DD	FLAT:?get_accHelp@CWnd@@UAEJUtagVARIANT@@PAPA_W@Z
	DD	FLAT:?get_accHelpTopic@CWnd@@UAEJPAPA_WUtagVARIANT@@PAJ@Z
	DD	FLAT:?get_accKeyboardShortcut@CWnd@@UAEJUtagVARIANT@@PAPA_W@Z
	DD	FLAT:?get_accFocus@CWnd@@UAEJPAUtagVARIANT@@@Z
	DD	FLAT:?get_accSelection@CWnd@@UAEJPAUtagVARIANT@@@Z
	DD	FLAT:?get_accDefaultAction@CWnd@@UAEJUtagVARIANT@@PAPA_W@Z
	DD	FLAT:?accSelect@CWnd@@UAEJJUtagVARIANT@@@Z
	DD	FLAT:?accLocation@CWnd@@UAEJPAJ000UtagVARIANT@@@Z
	DD	FLAT:?accNavigate@CWnd@@UAEJJUtagVARIANT@@PAU2@@Z
	DD	FLAT:?accHitTest@CWnd@@UAEJJJPAUtagVARIANT@@@Z
	DD	FLAT:?accDoDefaultAction@CWnd@@UAEJUtagVARIANT@@@Z
	DD	FLAT:?put_accName@CWnd@@UAEJUtagVARIANT@@PA_W@Z
	DD	FLAT:?put_accValue@CWnd@@UAEJUtagVARIANT@@PA_W@Z
	DD	FLAT:?SetProxy@CWnd@@UAEJPAUIAccessibleProxy@@@Z
	DD	FLAT:?CreateAccessibleProxy@CWnd@@UAEJIJPAJ@Z
	DD	FLAT:?OnCommand@CWnd@@MAEHIJ@Z
	DD	FLAT:?OnNotify@CWnd@@MAEHIJPAJ@Z
	DD	FLAT:?GetSuperWndProcAddr@CWnd@@MAEPAP6GJPAUHWND__@@IIJ@ZXZ
	DD	FLAT:?DoDataExchange@CWnd@@MAEXPAVCDataExchange@@@Z
	DD	FLAT:?BeginModalState@CWnd@@UAEXXZ
	DD	FLAT:?EndModalState@CWnd@@UAEXXZ
	DD	FLAT:?PreTranslateMessage@CWnd@@UAEHPAUtagMSG@@@Z
	DD	FLAT:?OnAmbientProperty@CWnd@@UAEHPAVCOleControlSite@@JPAUtagVARIANT@@@Z
	DD	FLAT:?WindowProc@CWnd@@MAEJIIJ@Z
	DD	FLAT:?OnWndMsg@CWnd@@MAEHIIJPAJ@Z
	DD	FLAT:?DefWindowProcA@CWnd@@MAEJIIJ@Z
	DD	FLAT:?PostNcDestroy@CWnd@@MAEXXZ
	DD	FLAT:?OnChildNotify@CButton@@MAEHIIJPAJ@Z
	DD	FLAT:?OnTouchInputs@CWnd@@MAEHIPAUtagTOUCHINPUT@@@Z
	DD	FLAT:?OnTouchInput@CWnd@@MAEHVCPoint@@HHPAUtagTOUCHINPUT@@@Z
	DD	FLAT:?GetGestureStatus@CWnd@@MAEKVCPoint@@@Z
	DD	FLAT:?OnGestureZoom@CWnd@@MAEHVCPoint@@J@Z
	DD	FLAT:?OnGesturePan@CWnd@@MAEHVCPoint@@0@Z
	DD	FLAT:?OnGestureRotate@CWnd@@MAEHVCPoint@@N@Z
	DD	FLAT:?OnGestureTwoFingerTap@CWnd@@MAEHVCPoint@@@Z
	DD	FLAT:?OnGesturePressAndTap@CWnd@@MAEHVCPoint@@J@Z
	DD	FLAT:?ResizeDynamicLayout@CWnd@@MAEXXZ
	DD	FLAT:?CheckAutoCenter@CWnd@@UAEHXZ
	DD	FLAT:?IsFrameWnd@CWnd@@UBEHXZ
	DD	FLAT:?CreateControlContainer@CWnd@@MAEHPAPAVCOleControlContainer@@@Z
	DD	FLAT:?CreateControlSite@CWnd@@MAEHPAVCOleControlContainer@@PAPAVCOleControlSite@@IABU_GUID@@@Z
	DD	FLAT:?SetOccDialogInfo@CWnd@@MAEHPAU_AFX_OCC_DIALOG_INFO@@@Z
	DD	FLAT:?GetOccDialogInfo@CWnd@@MAEPAU_AFX_OCC_DIALOG_INFO@@XZ
	DD	FLAT:?Create@CButton@@UAEHPBDKABUtagRECT@@PAVCWnd@@I@Z
	DD	FLAT:?DrawItem@CButton@@UAEXPAUtagDRAWITEMSTRUCT@@@Z
CONST	ENDS
;	COMDAT ??_C@_00CNPNBAHC@@
CONST	SEGMENT
??_C@_00CNPNBAHC@@ DB 00H				; `string'
CONST	ENDS
;	COMDAT ??_C@_02DPKJAMEF@?$CFd@
CONST	SEGMENT
??_C@_02DPKJAMEF@?$CFd@ DB '%d', 00H			; `string'
CONST	ENDS
;	COMDAT xdata$x
xdata$x	SEGMENT
__unwindtable$?OnInitDialog@CTabSignal@@MAEHXZ DD 0ffffffffH
	DD	FLAT:__unwindfunclet$?OnInitDialog@CTabSignal@@MAEHXZ$0
__ehfuncinfo$?OnInitDialog@CTabSignal@@MAEHXZ DD 019930522H
	DD	01H
	DD	FLAT:__unwindtable$?OnInitDialog@CTabSignal@@MAEHXZ
	DD	2 DUP(00H)
	DD	2 DUP(00H)
	DD	00H
	DD	01H
xdata$x	ENDS
;	COMDAT xdata$x
xdata$x	SEGMENT
__unwindtable$?SaveInfo@CTabSignal@@EAEHXZ DD 0ffffffffH
	DD	FLAT:__unwindfunclet$?SaveInfo@CTabSignal@@EAEHXZ$0
__ehfuncinfo$?SaveInfo@CTabSignal@@EAEHXZ DD 019930522H
	DD	01H
	DD	FLAT:__unwindtable$?SaveInfo@CTabSignal@@EAEHXZ
	DD	2 DUP(00H)
	DD	2 DUP(00H)
	DD	00H
	DD	01H
xdata$x	ENDS
;	COMDAT xdata$x
xdata$x	SEGMENT
__unwindtable$?LoadInfo@CTabSignal@@EAEXXZ DD 0ffffffffH
	DD	FLAT:__unwindfunclet$?LoadInfo@CTabSignal@@EAEXXZ$0
	DD	00H
	DD	FLAT:__unwindfunclet$?LoadInfo@CTabSignal@@EAEXXZ$1
	DD	01H
	DD	FLAT:__unwindfunclet$?LoadInfo@CTabSignal@@EAEXXZ$2
	DD	02H
	DD	FLAT:__unwindfunclet$?LoadInfo@CTabSignal@@EAEXXZ$3
__ehfuncinfo$?LoadInfo@CTabSignal@@EAEXXZ DD 019930522H
	DD	04H
	DD	FLAT:__unwindtable$?LoadInfo@CTabSignal@@EAEXXZ
	DD	2 DUP(00H)
	DD	2 DUP(00H)
	DD	00H
	DD	01H
xdata$x	ENDS
;	COMDAT xdata$x
xdata$x	SEGMENT
__unwindtable$?OnBtnClr@CTabSignal@@QAEXAAVCColorButton@@@Z DD 0ffffffffH
	DD	FLAT:__unwindfunclet$?OnBtnClr@CTabSignal@@QAEXAAVCColorButton@@@Z$0
__ehfuncinfo$?OnBtnClr@CTabSignal@@QAEXAAVCColorButton@@@Z DD 019930522H
	DD	01H
	DD	FLAT:__unwindtable$?OnBtnClr@CTabSignal@@QAEXAAVCColorButton@@@Z
	DD	2 DUP(00H)
	DD	2 DUP(00H)
	DD	00H
	DD	01H
xdata$x	ENDS
;	COMDAT xdata$x
xdata$x	SEGMENT
__ehfuncinfo$??0CTabSignal@@QAE@PAVCWnd@@@Z DD 019930522H
	DD	0bH
	DD	FLAT:__unwindtable$??0CTabSignal@@QAE@PAVCWnd@@@Z
	DD	2 DUP(00H)
	DD	2 DUP(00H)
	DD	00H
	DD	01H
__unwindtable$??0CTabSignal@@QAE@PAVCWnd@@@Z DD 0ffffffffH
	DD	FLAT:__unwindfunclet$??0CTabSignal@@QAE@PAVCWnd@@@Z$0
	DD	00H
	DD	FLAT:__unwindfunclet$??0CTabSignal@@QAE@PAVCWnd@@@Z$1
	DD	01H
	DD	FLAT:__unwindfunclet$??0CTabSignal@@QAE@PAVCWnd@@@Z$2
	DD	02H
	DD	FLAT:__unwindfunclet$??0CTabSignal@@QAE@PAVCWnd@@@Z$3
	DD	03H
	DD	FLAT:__unwindfunclet$??0CTabSignal@@QAE@PAVCWnd@@@Z$4
	DD	04H
	DD	FLAT:__unwindfunclet$??0CTabSignal@@QAE@PAVCWnd@@@Z$5
	DD	05H
	DD	FLAT:__unwindfunclet$??0CTabSignal@@QAE@PAVCWnd@@@Z$6
	DD	06H
	DD	FLAT:__unwindfunclet$??0CTabSignal@@QAE@PAVCWnd@@@Z$7
	DD	07H
	DD	FLAT:__unwindfunclet$??0CTabSignal@@QAE@PAVCWnd@@@Z$8
	DD	08H
	DD	FLAT:__unwindfunclet$??0CTabSignal@@QAE@PAVCWnd@@@Z$9
	DD	09H
	DD	FLAT:__unwindfunclet$??0CTabSignal@@QAE@PAVCWnd@@@Z$10
xdata$x	ENDS
; Function compile flags: /Ogtp
; File C:\Program Files (x86)\Microsoft Visual Studio\2019\Community\VC\Tools\MSVC\14.29.30133\atlmfc\include\afx.inl
;	COMDAT ??_GCTabSignal@@UAEPAXI@Z
_TEXT	SEGMENT
___flags$ = 8						; size = 4
??_GCTabSignal@@UAEPAXI@Z PROC				; CTabSignal::`scalar deleting destructor', COMDAT
; _this$ = ecx
  00000	55		 push	 ebp
  00001	8b ec		 mov	 ebp, esp
  00003	56		 push	 esi
  00004	8b f1		 mov	 esi, ecx
  00006	8d 8e 00 06 00
	00		 lea	 ecx, DWORD PTR [esi+1536]
  0000c	e8 00 00 00 00	 call	 ??1CColorButton@@UAE@XZ	; CColorButton::~CColorButton
  00011	8d 8e 70 05 00
	00		 lea	 ecx, DWORD PTR [esi+1392]
  00017	e8 00 00 00 00	 call	 ??1CColorButton@@UAE@XZ	; CColorButton::~CColorButton
  0001c	8d 8e e0 04 00
	00		 lea	 ecx, DWORD PTR [esi+1248]
  00022	e8 00 00 00 00	 call	 ??1CColorButton@@UAE@XZ	; CColorButton::~CColorButton
  00027	8d 8e 50 04 00
	00		 lea	 ecx, DWORD PTR [esi+1104]
  0002d	e8 00 00 00 00	 call	 ??1CColorButton@@UAE@XZ	; CColorButton::~CColorButton
  00032	8d 8e c8 03 00
	00		 lea	 ecx, DWORD PTR [esi+968]
  00038	e8 00 00 00 00	 call	 ??1CBitmapItemComboBox@@UAE@XZ ; CBitmapItemComboBox::~CBitmapItemComboBox
  0003d	8d 8e 40 03 00
	00		 lea	 ecx, DWORD PTR [esi+832]
  00043	e8 00 00 00 00	 call	 ??1CBitmapItemComboBox@@UAE@XZ ; CBitmapItemComboBox::~CBitmapItemComboBox
  00048	8d 8e b8 02 00
	00		 lea	 ecx, DWORD PTR [esi+696]
  0004e	e8 00 00 00 00	 call	 ??1CBitmapItemComboBox@@UAE@XZ ; CBitmapItemComboBox::~CBitmapItemComboBox
  00053	8d 8e 30 02 00
	00		 lea	 ecx, DWORD PTR [esi+560]
  00059	e8 00 00 00 00	 call	 ??1CBitmapItemComboBox@@UAE@XZ ; CBitmapItemComboBox::~CBitmapItemComboBox
  0005e	8d 8e b0 01 00
	00		 lea	 ecx, DWORD PTR [esi+432]
  00064	e8 00 00 00 00	 call	 ??1CButton@@UAE@XZ	; CButton::~CButton
  00069	8d 8e 30 01 00
	00		 lea	 ecx, DWORD PTR [esi+304]
  0006f	e8 00 00 00 00	 call	 ??1CButton@@UAE@XZ	; CButton::~CButton
  00074	8d 8e b0 00 00
	00		 lea	 ecx, DWORD PTR [esi+176]
  0007a	e8 00 00 00 00	 call	 ??1CButton@@UAE@XZ	; CButton::~CButton
  0007f	8d 8e ac 00 00
	00		 lea	 ecx, DWORD PTR [esi+172]
  00085	ff 15 00 00 00
	00		 call	 DWORD PTR __imp_??1?$CStringT@DV?$StrTraitMFC_DLL@DV?$ChTraitsCRT@D@ATL@@@@@ATL@@QAE@XZ
  0008b	8d 8e a8 00 00
	00		 lea	 ecx, DWORD PTR [esi+168]
  00091	ff 15 00 00 00
	00		 call	 DWORD PTR __imp_??1?$CStringT@DV?$StrTraitMFC_DLL@DV?$ChTraitsCRT@D@ATL@@@@@ATL@@QAE@XZ
  00097	8b ce		 mov	 ecx, esi
  00099	e8 00 00 00 00	 call	 ??1CDialog@@UAE@XZ	; CDialog::~CDialog
  0009e	8b 45 08	 mov	 eax, DWORD PTR ___flags$[ebp]
  000a1	a8 01		 test	 al, 1
  000a3	74 22		 je	 SHORT $LN15@scalar
  000a5	a8 04		 test	 al, 4
  000a7	75 10		 jne	 SHORT $LN3@scalar

; 112  : 	{ ::operator delete(p); }

  000a9	56		 push	 esi
  000aa	e8 00 00 00 00	 call	 ??3@YAXPAX@Z		; operator delete
  000af	83 c4 04	 add	 esp, 4
  000b2	8b c6		 mov	 eax, esi
  000b4	5e		 pop	 esi
  000b5	5d		 pop	 ebp
  000b6	c2 04 00	 ret	 4
$LN3@scalar:
  000b9	68 b0 06 00 00	 push	 1712			; 000006b0H
  000be	56		 push	 esi
  000bf	e8 00 00 00 00	 call	 ?__global_delete@@YAXPAXI@Z ; __global_delete
  000c4	83 c4 08	 add	 esp, 8
$LN15@scalar:
  000c7	8b c6		 mov	 eax, esi
  000c9	5e		 pop	 esi
  000ca	5d		 pop	 ebp
  000cb	c2 04 00	 ret	 4
??_GCTabSignal@@UAEPAXI@Z ENDP				; CTabSignal::`scalar deleting destructor'
_TEXT	ENDS
; Function compile flags: /Ogtp
; File D:\git\src\IBK\IBK_DRFN\ProjSrc\SrcDrfn\Chart\STCONFIGUREDLG\TabSignal.cpp
;	COMDAT ?GetMessageMap@CTabSignal@@MBEPBUAFX_MSGMAP@@XZ
_TEXT	SEGMENT
?GetMessageMap@CTabSignal@@MBEPBUAFX_MSGMAP@@XZ PROC	; CTabSignal::GetMessageMap, COMDAT
; _this$ = ecx

; 54   : BEGIN_MESSAGE_MAP(CTabSignal, CRscDlg)

  00000	b8 00 00 00 00	 mov	 eax, OFFSET ?messageMap@?1??GetThisMessageMap@CTabSignal@@KGPBUAFX_MSGMAP@@XZ@4U3@B
  00005	c3		 ret	 0
?GetMessageMap@CTabSignal@@MBEPBUAFX_MSGMAP@@XZ ENDP	; CTabSignal::GetMessageMap
_TEXT	ENDS
; Function compile flags: /Ogtp
; File D:\git\src\IBK\IBK_DRFN\ProjSrc\SrcDrfn\Chart\STCONFIGUREDLG\TabSignal.cpp
;	COMDAT ?GetThisMessageMap@CTabSignal@@KGPBUAFX_MSGMAP@@XZ
_TEXT	SEGMENT
?GetThisMessageMap@CTabSignal@@KGPBUAFX_MSGMAP@@XZ PROC	; CTabSignal::GetThisMessageMap, COMDAT

; 55   : 	//{{AFX_MSG_MAP(CTabSignal)
; 56   : 	ON_BN_CLICKED(IDC_BT_CLR_BUY, OnBtClrBuy)
; 57   : 	ON_BN_CLICKED(IDC_BT_CLR_EXITLONG, OnBtClrExitlong)
; 58   : 	ON_BN_CLICKED(IDC_BT_CLR_EXITSHORT, OnBtClrExitshort)
; 59   : 	ON_BN_CLICKED(IDC_BT_CLR_SELL, OnBtClrSell)
; 60   : 	ON_WM_CTLCOLOR()
; 61   : 	//}}AFX_MSG_MAP
; 62   : END_MESSAGE_MAP()

  00000	b8 00 00 00 00	 mov	 eax, OFFSET ?messageMap@?1??GetThisMessageMap@CTabSignal@@KGPBUAFX_MSGMAP@@XZ@4U3@B
  00005	c3		 ret	 0
?GetThisMessageMap@CTabSignal@@KGPBUAFX_MSGMAP@@XZ ENDP	; CTabSignal::GetThisMessageMap
_TEXT	ENDS
; Function compile flags: /Ogtp
; File D:\git\src\IBK\IBK_DRFN\ProjSrc\SrcDrfn\Chart\STCONFIGUREDLG\TabSignal.cpp
; File C:\Program Files (x86)\Microsoft Visual Studio\2019\Community\VC\Tools\MSVC\14.29.30133\atlmfc\include\afxwin1.inl
; File D:\git\src\IBK\IBK_DRFN\ProjSrc\SrcDrfn\Chart\STCONFIGUREDLG\TabSignal.cpp
; File C:\Program Files (x86)\Microsoft Visual Studio\2019\Community\VC\Tools\MSVC\14.29.30133\atlmfc\include\afxwin1.inl
; File D:\git\src\IBK\IBK_DRFN\ProjSrc\SrcDrfn\Chart\STCONFIGUREDLG\TabSignal.cpp
;	COMDAT ?OnCtlColor@CTabSignal@@IAEPAUHBRUSH__@@PAVCDC@@PAVCWnd@@I@Z
_TEXT	SEGMENT
_pDC$ = 8						; size = 4
_pWnd$ = 12						; size = 4
_nCtlColor$ = 16					; size = 4
?OnCtlColor@CTabSignal@@IAEPAUHBRUSH__@@PAVCDC@@PAVCWnd@@I@Z PROC ; CTabSignal::OnCtlColor, COMDAT
; _this$ = ecx

; 443  : {

  00000	55		 push	 ebp
  00001	8b ec		 mov	 ebp, esp
  00003	53		 push	 ebx

; 444  : 	HBRUSH hbr = CRscDlg::OnCtlColor(pDC, pWnd, nCtlColor);

  00004	8b 5d 08	 mov	 ebx, DWORD PTR _pDC$[ebp]
  00007	56		 push	 esi
  00008	8b 75 10	 mov	 esi, DWORD PTR _nCtlColor$[ebp]
  0000b	57		 push	 edi
  0000c	56		 push	 esi
  0000d	ff 75 0c	 push	 DWORD PTR _pWnd$[ebp]
  00010	8b f9		 mov	 edi, ecx
  00012	53		 push	 ebx
  00013	e8 00 00 00 00	 call	 ?OnCtlColor@CWnd@@IAEPAUHBRUSH__@@PAVCDC@@PAV1@I@Z ; CWnd::OnCtlColor

; 445  : 	
; 446  : 	// TODO: Change any attributes of the DC here
; 447  : 	switch(nCtlColor) 

  00018	83 ee 01	 sub	 esi, 1
  0001b	74 26		 je	 SHORT $LN1@OnCtlColor
  0001d	83 ee 01	 sub	 esi, 1
  00020	74 21		 je	 SHORT $LN1@OnCtlColor

; 448  : 	{
; 449  : 	case CTLCOLOR_EDIT:
; 450  : 	case CTLCOLOR_LISTBOX:
; 451  : 		return hbr;
; 452  : 		break;
; 453  : 	default:
; 454  : 		pDC->SetBkColor(m_crBk);

  00022	8b 03		 mov	 eax, DWORD PTR [ebx]
  00024	8b cb		 mov	 ecx, ebx
  00026	ff b7 a0 06 00
	00		 push	 DWORD PTR [edi+1696]
  0002c	ff 50 34	 call	 DWORD PTR [eax+52]

; 455  : 		return *m_pBrBkColor;		

  0002f	8b 87 a4 06 00
	00		 mov	 eax, DWORD PTR [edi+1700]
; File C:\Program Files (x86)\Microsoft Visual Studio\2019\Community\VC\Tools\MSVC\14.29.30133\atlmfc\include\afxwin1.inl

; 124  : 	{ return (HBRUSH)(this == NULL ? NULL : m_hObject); }

  00035	85 c0		 test	 eax, eax
  00037	75 07		 jne	 SHORT $LN10@OnCtlColor
; File D:\git\src\IBK\IBK_DRFN\ProjSrc\SrcDrfn\Chart\STCONFIGUREDLG\TabSignal.cpp

; 461  : }

  00039	5f		 pop	 edi
  0003a	5e		 pop	 esi
  0003b	5b		 pop	 ebx
  0003c	5d		 pop	 ebp
  0003d	c2 0c 00	 ret	 12			; 0000000cH
$LN10@OnCtlColor:
; File C:\Program Files (x86)\Microsoft Visual Studio\2019\Community\VC\Tools\MSVC\14.29.30133\atlmfc\include\afxwin1.inl

; 124  : 	{ return (HBRUSH)(this == NULL ? NULL : m_hObject); }

  00040	8b 40 04	 mov	 eax, DWORD PTR [eax+4]
$LN1@OnCtlColor:
  00043	5f		 pop	 edi
; File D:\git\src\IBK\IBK_DRFN\ProjSrc\SrcDrfn\Chart\STCONFIGUREDLG\TabSignal.cpp

; 461  : }

  00044	5e		 pop	 esi
  00045	5b		 pop	 ebx
  00046	5d		 pop	 ebp
  00047	c2 0c 00	 ret	 12			; 0000000cH
?OnCtlColor@CTabSignal@@IAEPAUHBRUSH__@@PAVCDC@@PAVCWnd@@I@Z ENDP ; CTabSignal::OnCtlColor
_TEXT	ENDS
; Function compile flags: /Ogtp
; File D:\git\src\IBK\IBK_DRFN\ProjSrc\SrcDrfn\Chart\STCONFIGUREDLG\TabSignal.cpp
;	COMDAT ?OnBtClrSell@CTabSignal@@IAEXXZ
_TEXT	SEGMENT
?OnBtClrSell@CTabSignal@@IAEXXZ PROC			; CTabSignal::OnBtClrSell, COMDAT
; _this$ = ecx

; 128  : 	// TODO: Add your control notification handler code here
; 129  : 	OnBtnClr(m_btnClrSell);

  00000	8d 81 50 04 00
	00		 lea	 eax, DWORD PTR [ecx+1104]
  00006	50		 push	 eax
  00007	e8 00 00 00 00	 call	 ?OnBtnClr@CTabSignal@@QAEXAAVCColorButton@@@Z ; CTabSignal::OnBtnClr

; 130  : }

  0000c	c3		 ret	 0
?OnBtClrSell@CTabSignal@@IAEXXZ ENDP			; CTabSignal::OnBtClrSell
_TEXT	ENDS
; Function compile flags: /Ogtp
; File D:\git\src\IBK\IBK_DRFN\ProjSrc\SrcDrfn\Chart\STCONFIGUREDLG\TabSignal.cpp
;	COMDAT ?OnBtClrExitshort@CTabSignal@@IAEXXZ
_TEXT	SEGMENT
?OnBtClrExitshort@CTabSignal@@IAEXXZ PROC		; CTabSignal::OnBtClrExitshort, COMDAT
; _this$ = ecx

; 122  : 	// TODO: Add your control notification handler code here
; 123  : 	OnBtnClr(m_btnClrExitshort);	

  00000	8d 81 e0 04 00
	00		 lea	 eax, DWORD PTR [ecx+1248]
  00006	50		 push	 eax
  00007	e8 00 00 00 00	 call	 ?OnBtnClr@CTabSignal@@QAEXAAVCColorButton@@@Z ; CTabSignal::OnBtnClr

; 124  : }

  0000c	c3		 ret	 0
?OnBtClrExitshort@CTabSignal@@IAEXXZ ENDP		; CTabSignal::OnBtClrExitshort
_TEXT	ENDS
; Function compile flags: /Ogtp
; File D:\git\src\IBK\IBK_DRFN\ProjSrc\SrcDrfn\Chart\STCONFIGUREDLG\TabSignal.cpp
;	COMDAT ?OnBtClrExitlong@CTabSignal@@IAEXXZ
_TEXT	SEGMENT
?OnBtClrExitlong@CTabSignal@@IAEXXZ PROC		; CTabSignal::OnBtClrExitlong, COMDAT
; _this$ = ecx

; 116  : 	// TODO: Add your control notification handler code here
; 117  : 	OnBtnClr(m_btnClrExitlong);	

  00000	8d 81 70 05 00
	00		 lea	 eax, DWORD PTR [ecx+1392]
  00006	50		 push	 eax
  00007	e8 00 00 00 00	 call	 ?OnBtnClr@CTabSignal@@QAEXAAVCColorButton@@@Z ; CTabSignal::OnBtnClr

; 118  : }

  0000c	c3		 ret	 0
?OnBtClrExitlong@CTabSignal@@IAEXXZ ENDP		; CTabSignal::OnBtClrExitlong
_TEXT	ENDS
; Function compile flags: /Ogtp
; File D:\git\src\IBK\IBK_DRFN\ProjSrc\SrcDrfn\Chart\STCONFIGUREDLG\TabSignal.cpp
;	COMDAT ?OnBtClrBuy@CTabSignal@@IAEXXZ
_TEXT	SEGMENT
?OnBtClrBuy@CTabSignal@@IAEXXZ PROC			; CTabSignal::OnBtClrBuy, COMDAT
; _this$ = ecx

; 110  : 	// TODO: Add your control notification handler code here
; 111  : 	OnBtnClr(m_btnClrBuy);

  00000	8d 81 00 06 00
	00		 lea	 eax, DWORD PTR [ecx+1536]
  00006	50		 push	 eax
  00007	e8 00 00 00 00	 call	 ?OnBtnClr@CTabSignal@@QAEXAAVCColorButton@@@Z ; CTabSignal::OnBtnClr

; 112  : }

  0000c	c3		 ret	 0
?OnBtClrBuy@CTabSignal@@IAEXXZ ENDP			; CTabSignal::OnBtClrBuy
_TEXT	ENDS
; Function compile flags: /Ogtp
; File D:\git\src\IBK\IBK_DRFN\ProjSrc\SrcDrfn\Chart\STCONFIGUREDLG\TabSignal.cpp
; File C:\Program Files (x86)\Microsoft Visual Studio\2019\Community\VC\Tools\MSVC\14.29.30133\atlmfc\include\afxwin2.inl
; File D:\git\src\IBK\IBK_DRFN\ProjSrc\SrcDrfn\Chart\STCONFIGUREDLG\TabSignal.cpp
; File C:\Program Files (x86)\Microsoft Visual Studio\2019\Community\VC\Tools\MSVC\14.29.30133\atlmfc\include\atlsimpstr.h
; File D:\git\src\IBK\IBK_DRFN\ProjSrc\SrcDrfn\Chart\STCONFIGUREDLG\TabSignal.cpp
; File C:\Program Files (x86)\Microsoft Visual Studio\2019\Community\VC\Tools\MSVC\14.29.30133\atlmfc\include\afxwin2.inl
; File D:\git\src\IBK\IBK_DRFN\ProjSrc\SrcDrfn\Chart\STCONFIGUREDLG\TabSignal.cpp
;	COMDAT ?OnInitDialog@CTabSignal@@MAEHXZ
_TEXT	SEGMENT
_strSTNamePath$2 = -16					; size = 4
__$EHRec$ = -12						; size = 12
?OnInitDialog@CTabSignal@@MAEHXZ PROC			; CTabSignal::OnInitDialog, COMDAT
; _this$ = ecx

; 68   : {

  00000	55		 push	 ebp
  00001	8b ec		 mov	 ebp, esp
  00003	6a ff		 push	 -1
  00005	68 00 00 00 00	 push	 __ehhandler$?OnInitDialog@CTabSignal@@MAEHXZ
  0000a	64 a1 00 00 00
	00		 mov	 eax, DWORD PTR fs:0
  00010	50		 push	 eax
  00011	51		 push	 ecx
  00012	56		 push	 esi
  00013	57		 push	 edi
  00014	a1 00 00 00 00	 mov	 eax, DWORD PTR ___security_cookie
  00019	33 c5		 xor	 eax, ebp
  0001b	50		 push	 eax
  0001c	8d 45 f4	 lea	 eax, DWORD PTR __$EHRec$[ebp]
  0001f	64 a3 00 00 00
	00		 mov	 DWORD PTR fs:0, eax
  00025	8b f1		 mov	 esi, ecx

; 69   : 	CRscDlg::OnInitDialog();

  00027	e8 00 00 00 00	 call	 ?OnInitDialog@CDialog@@UAEHXZ ; CDialog::OnInitDialog

; 70   : 	
; 71   : 	// TODO: Add extra initialization here
; 72   : 	CISTControllerD *pSTControllerCfg = ((CDlgSTOption*)m_pDlgSTOption)->GetISTControllerD();

  0002c	8b 86 a8 06 00
	00		 mov	 eax, DWORD PTR [esi+1704]

; 73   : 	SetCBSignal(m_cbBuy);

  00032	8b ce		 mov	 ecx, esi
  00034	8b b8 bc 04 00
	00		 mov	 edi, DWORD PTR [eax+1212]
  0003a	8d 86 c8 03 00
	00		 lea	 eax, DWORD PTR [esi+968]
  00040	50		 push	 eax
  00041	e8 00 00 00 00	 call	 ?SetCBSignal@CTabSignal@@AAEXAAVCBitmapItemComboBox@@@Z ; CTabSignal::SetCBSignal

; 74   : 	SetCBSignal(m_cbExitlong);

  00046	8d 86 40 03 00
	00		 lea	 eax, DWORD PTR [esi+832]
  0004c	8b ce		 mov	 ecx, esi
  0004e	50		 push	 eax
  0004f	e8 00 00 00 00	 call	 ?SetCBSignal@CTabSignal@@AAEXAAVCBitmapItemComboBox@@@Z ; CTabSignal::SetCBSignal

; 75   : 	SetCBSignal(m_cbSell);

  00054	8d 86 30 02 00
	00		 lea	 eax, DWORD PTR [esi+560]
  0005a	8b ce		 mov	 ecx, esi
  0005c	50		 push	 eax
  0005d	e8 00 00 00 00	 call	 ?SetCBSignal@CTabSignal@@AAEXAAVCBitmapItemComboBox@@@Z ; CTabSignal::SetCBSignal

; 76   : 	SetCBSignal(m_cbExitshort);		

  00062	8d 86 b8 02 00
	00		 lea	 eax, DWORD PTR [esi+696]
  00068	8b ce		 mov	 ecx, esi
  0006a	50		 push	 eax
  0006b	e8 00 00 00 00	 call	 ?SetCBSignal@CTabSignal@@AAEXAAVCBitmapItemComboBox@@@Z ; CTabSignal::SetCBSignal

; 77   : 	if(!pSTControllerCfg)

  00070	85 ff		 test	 edi, edi
  00072	75 22		 jne	 SHORT $LN2@OnInitDial
; File C:\Program Files (x86)\Microsoft Visual Studio\2019\Community\VC\Tools\MSVC\14.29.30133\atlmfc\include\afxwin2.inl

; 630  : 	{ ASSERT(::IsWindow(m_hWnd)); ::SendMessage(m_hWnd, BM_SETCHECK, nCheck, 0); }

  00074	57		 push	 edi
  00075	6a 01		 push	 1
  00077	68 f1 00 00 00	 push	 241			; 000000f1H
  0007c	ff b6 d0 00 00
	00		 push	 DWORD PTR [esi+208]
  00082	ff 15 00 00 00
	00		 call	 DWORD PTR __imp__SendMessageA@16
; File D:\git\src\IBK\IBK_DRFN\ProjSrc\SrcDrfn\Chart\STCONFIGUREDLG\TabSignal.cpp

; 80   : 		m_chkSaveAsDefault.EnableWindow(FALSE);

  00088	57		 push	 edi
  00089	8d 8e b0 00 00
	00		 lea	 ecx, DWORD PTR [esi+176]
  0008f	e8 00 00 00 00	 call	 ?EnableWindow@CWnd@@QAEHH@Z ; CWnd::EnableWindow

; 81   : 	}

  00094	eb 50		 jmp	 SHORT $LN3@OnInitDial
$LN2@OnInitDial:

; 84   : 		CString strSTNamePath = pSTControllerCfg->GetSTNamePath();

  00096	8b 07		 mov	 eax, DWORD PTR [edi]
  00098	8d 4d f0	 lea	 ecx, DWORD PTR _strSTNamePath$2[ebp]
  0009b	51		 push	 ecx
  0009c	8b cf		 mov	 ecx, edi
  0009e	ff 90 24 01 00
	00		 call	 DWORD PTR [eax+292]
; File C:\Program Files (x86)\Microsoft Visual Studio\2019\Community\VC\Tools\MSVC\14.29.30133\atlmfc\include\atlsimpstr.h

; 519  : 		return( GetData()->nDataLength );

  000a4	8b 45 f0	 mov	 eax, DWORD PTR _strSTNamePath$2[ebp]
; File D:\git\src\IBK\IBK_DRFN\ProjSrc\SrcDrfn\Chart\STCONFIGUREDLG\TabSignal.cpp

; 84   : 		CString strSTNamePath = pSTControllerCfg->GetSTNamePath();

  000a7	c7 45 fc 00 00
	00 00		 mov	 DWORD PTR __$EHRec$[ebp+8], 0

; 85   : 		if(!strSTNamePath.GetLength())

  000ae	83 78 f4 00	 cmp	 DWORD PTR [eax-12], 0
  000b2	75 22		 jne	 SHORT $LN4@OnInitDial
; File C:\Program Files (x86)\Microsoft Visual Studio\2019\Community\VC\Tools\MSVC\14.29.30133\atlmfc\include\afxwin2.inl

; 630  : 	{ ASSERT(::IsWindow(m_hWnd)); ::SendMessage(m_hWnd, BM_SETCHECK, nCheck, 0); }

  000b4	6a 00		 push	 0
  000b6	6a 01		 push	 1
  000b8	68 f1 00 00 00	 push	 241			; 000000f1H
  000bd	ff b6 d0 00 00
	00		 push	 DWORD PTR [esi+208]
  000c3	ff 15 00 00 00
	00		 call	 DWORD PTR __imp__SendMessageA@16
; File D:\git\src\IBK\IBK_DRFN\ProjSrc\SrcDrfn\Chart\STCONFIGUREDLG\TabSignal.cpp

; 88   : 			m_chkSaveAsDefault.EnableWindow(FALSE);

  000c9	6a 00		 push	 0
  000cb	8d 8e b0 00 00
	00		 lea	 ecx, DWORD PTR [esi+176]
  000d1	e8 00 00 00 00	 call	 ?EnableWindow@CWnd@@QAEHH@Z ; CWnd::EnableWindow
$LN4@OnInitDial:

; 89   : 		}
; 90   : 	}

  000d6	8d 4d f0	 lea	 ecx, DWORD PTR _strSTNamePath$2[ebp]
  000d9	c7 45 fc ff ff
	ff ff		 mov	 DWORD PTR __$EHRec$[ebp+8], -1
  000e0	ff 15 00 00 00
	00		 call	 DWORD PTR __imp_??1?$CStringT@DV?$StrTraitMFC_DLL@DV?$ChTraitsCRT@D@ATL@@@@@ATL@@QAE@XZ
$LN3@OnInitDial:

; 91   : 
; 92   : 	LoadInfo();

  000e6	8b 06		 mov	 eax, DWORD PTR [esi]
  000e8	8b ce		 mov	 ecx, esi
  000ea	ff 90 94 01 00
	00		 call	 DWORD PTR [eax+404]

; 93   : 	return TRUE;  // return TRUE unless you set the focus to a control

  000f0	b8 01 00 00 00	 mov	 eax, 1

; 94   : 	              // EXCEPTION: OCX Property Pages should return FALSE
; 95   : }

  000f5	8b 4d f4	 mov	 ecx, DWORD PTR __$EHRec$[ebp]
  000f8	64 89 0d 00 00
	00 00		 mov	 DWORD PTR fs:0, ecx
  000ff	59		 pop	 ecx
  00100	5f		 pop	 edi
  00101	5e		 pop	 esi
  00102	8b e5		 mov	 esp, ebp
  00104	5d		 pop	 ebp
  00105	c3		 ret	 0
_TEXT	ENDS
;	COMDAT text$x
text$x	SEGMENT
__unwindfunclet$?OnInitDialog@CTabSignal@@MAEHXZ$0:
  00000	8d 4d f0	 lea	 ecx, DWORD PTR _strSTNamePath$2[ebp]
  00003	ff 25 00 00 00
	00		 jmp	 DWORD PTR __imp_??1?$CStringT@DV?$StrTraitMFC_DLL@DV?$ChTraitsCRT@D@ATL@@@@@ATL@@QAE@XZ
  00009	cc		 int	 3
  0000a	cc		 int	 3
  0000b	cc		 int	 3
  0000c	cc		 int	 3
  0000d	cc		 int	 3
__ehhandler$?OnInitDialog@CTabSignal@@MAEHXZ:
  0000e	90		 npad	 1
  0000f	90		 npad	 1
  00010	8b 54 24 08	 mov	 edx, DWORD PTR [esp+8]
  00014	8d 42 0c	 lea	 eax, DWORD PTR [edx+12]
  00017	8b 4a f0	 mov	 ecx, DWORD PTR [edx-16]
  0001a	33 c8		 xor	 ecx, eax
  0001c	e8 00 00 00 00	 call	 @__security_check_cookie@4
  00021	b8 00 00 00 00	 mov	 eax, OFFSET __ehfuncinfo$?OnInitDialog@CTabSignal@@MAEHXZ
  00026	e9 00 00 00 00	 jmp	 ___CxxFrameHandler3
text$x	ENDS
?OnInitDialog@CTabSignal@@MAEHXZ ENDP			; CTabSignal::OnInitDialog
; Function compile flags: /Ogtp
; File D:\git\src\IBK\IBK_DRFN\ProjSrc\SrcDrfn\Chart\STCONFIGUREDLG\TabSignal.cpp
;	COMDAT ?RemoveInfo@CTabSignal@@EAEXXZ
_TEXT	SEGMENT
?RemoveInfo@CTabSignal@@EAEXXZ PROC			; CTabSignal::RemoveInfo, COMDAT
; _this$ = ecx

; 414  : {

  00000	56		 push	 esi

; 415  : 	int nUseType = 2; // Remove In STFile
; 416  : 	((CDlgSTOption*)m_pDlgSTOption)->WritePrivateProfileStringInST(STCONFIG_SIGNAL,SHAPEBUY,"",nUseType);

  00001	6a 02		 push	 2
  00003	8b f1		 mov	 esi, ecx
  00005	68 00 00 00 00	 push	 OFFSET ??_C@_00CNPNBAHC@@
  0000a	68 00 00 00 00	 push	 OFFSET ??_C@_08LLMMGHPD@ShapeBuy@
  0000f	68 00 00 00 00	 push	 OFFSET ??_C@_06CPODCDOI@Signal@
  00014	8b 8e a8 06 00
	00		 mov	 ecx, DWORD PTR [esi+1704]
  0001a	e8 00 00 00 00	 call	 ?WritePrivateProfileStringInST@CDlgSTOption@@QAEHPBD00H@Z ; CDlgSTOption::WritePrivateProfileStringInST

; 417  : 	((CDlgSTOption*)m_pDlgSTOption)->WritePrivateProfileStringInST(STCONFIG_SIGNAL,COLORBUY,"",nUseType);

  0001f	8b 8e a8 06 00
	00		 mov	 ecx, DWORD PTR [esi+1704]
  00025	6a 02		 push	 2
  00027	68 00 00 00 00	 push	 OFFSET ??_C@_00CNPNBAHC@@
  0002c	68 00 00 00 00	 push	 OFFSET ??_C@_06HGIOMLFJ@ClrBuy@
  00031	68 00 00 00 00	 push	 OFFSET ??_C@_06CPODCDOI@Signal@
  00036	e8 00 00 00 00	 call	 ?WritePrivateProfileStringInST@CDlgSTOption@@QAEHPBD00H@Z ; CDlgSTOption::WritePrivateProfileStringInST

; 418  : 	((CDlgSTOption*)m_pDlgSTOption)->WritePrivateProfileStringInST(STCONFIG_SIGNAL,SHAPEEXITLONG,"",nUseType);

  0003b	8b 8e a8 06 00
	00		 mov	 ecx, DWORD PTR [esi+1704]
  00041	6a 02		 push	 2
  00043	68 00 00 00 00	 push	 OFFSET ??_C@_00CNPNBAHC@@
  00048	68 00 00 00 00	 push	 OFFSET ??_C@_0O@GJJKDADC@ShapeExitlong@
  0004d	68 00 00 00 00	 push	 OFFSET ??_C@_06CPODCDOI@Signal@
  00052	e8 00 00 00 00	 call	 ?WritePrivateProfileStringInST@CDlgSTOption@@QAEHPBD00H@Z ; CDlgSTOption::WritePrivateProfileStringInST

; 419  : 	((CDlgSTOption*)m_pDlgSTOption)->WritePrivateProfileStringInST(STCONFIG_SIGNAL,COLOREXITLONG,"",nUseType);

  00057	8b 8e a8 06 00
	00		 mov	 ecx, DWORD PTR [esi+1704]
  0005d	6a 02		 push	 2
  0005f	68 00 00 00 00	 push	 OFFSET ??_C@_00CNPNBAHC@@
  00064	68 00 00 00 00	 push	 OFFSET ??_C@_0M@FJPKOBBF@ClrExitlong@
  00069	68 00 00 00 00	 push	 OFFSET ??_C@_06CPODCDOI@Signal@
  0006e	e8 00 00 00 00	 call	 ?WritePrivateProfileStringInST@CDlgSTOption@@QAEHPBD00H@Z ; CDlgSTOption::WritePrivateProfileStringInST

; 420  : 	((CDlgSTOption*)m_pDlgSTOption)->WritePrivateProfileStringInST(STCONFIG_SIGNAL,SHAPESELL,"",nUseType);

  00073	8b 8e a8 06 00
	00		 mov	 ecx, DWORD PTR [esi+1704]
  00079	6a 02		 push	 2
  0007b	68 00 00 00 00	 push	 OFFSET ??_C@_00CNPNBAHC@@
  00080	68 00 00 00 00	 push	 OFFSET ??_C@_09PKDDMDFM@ShapeSell@
  00085	68 00 00 00 00	 push	 OFFSET ??_C@_06CPODCDOI@Signal@
  0008a	e8 00 00 00 00	 call	 ?WritePrivateProfileStringInST@CDlgSTOption@@QAEHPBD00H@Z ; CDlgSTOption::WritePrivateProfileStringInST

; 421  : 	((CDlgSTOption*)m_pDlgSTOption)->WritePrivateProfileStringInST(STCONFIG_SIGNAL,COLORSELL,"",nUseType);

  0008f	8b 8e a8 06 00
	00		 mov	 ecx, DWORD PTR [esi+1704]
  00095	6a 02		 push	 2
  00097	68 00 00 00 00	 push	 OFFSET ??_C@_00CNPNBAHC@@
  0009c	68 00 00 00 00	 push	 OFFSET ??_C@_07MMPNMLAG@ClrSell@
  000a1	68 00 00 00 00	 push	 OFFSET ??_C@_06CPODCDOI@Signal@
  000a6	e8 00 00 00 00	 call	 ?WritePrivateProfileStringInST@CDlgSTOption@@QAEHPBD00H@Z ; CDlgSTOption::WritePrivateProfileStringInST

; 422  : 	((CDlgSTOption*)m_pDlgSTOption)->WritePrivateProfileStringInST(STCONFIG_SIGNAL,SHAPEEXITSHORT,"",nUseType);

  000ab	8b 8e a8 06 00
	00		 mov	 ecx, DWORD PTR [esi+1704]
  000b1	6a 02		 push	 2
  000b3	68 00 00 00 00	 push	 OFFSET ??_C@_00CNPNBAHC@@
  000b8	68 00 00 00 00	 push	 OFFSET ??_C@_0P@GBBMBNOC@ShapeExitshort@
  000bd	68 00 00 00 00	 push	 OFFSET ??_C@_06CPODCDOI@Signal@
  000c2	e8 00 00 00 00	 call	 ?WritePrivateProfileStringInST@CDlgSTOption@@QAEHPBD00H@Z ; CDlgSTOption::WritePrivateProfileStringInST

; 423  : 	((CDlgSTOption*)m_pDlgSTOption)->WritePrivateProfileStringInST(STCONFIG_SIGNAL,COLOREXITSHORT,"",nUseType);

  000c7	8b 8e a8 06 00
	00		 mov	 ecx, DWORD PTR [esi+1704]
  000cd	6a 02		 push	 2
  000cf	68 00 00 00 00	 push	 OFFSET ??_C@_00CNPNBAHC@@
  000d4	68 00 00 00 00	 push	 OFFSET ??_C@_0N@MECGMIFI@ClrExitshort@
  000d9	68 00 00 00 00	 push	 OFFSET ??_C@_06CPODCDOI@Signal@
  000de	e8 00 00 00 00	 call	 ?WritePrivateProfileStringInST@CDlgSTOption@@QAEHPBD00H@Z ; CDlgSTOption::WritePrivateProfileStringInST

; 424  : 	((CDlgSTOption*)m_pDlgSTOption)->WritePrivateProfileStringInST(STCONFIG_SIGNAL,SHOWSIGNALNAME,"",nUseType);

  000e3	8b 8e a8 06 00
	00		 mov	 ecx, DWORD PTR [esi+1704]
  000e9	6a 02		 push	 2
  000eb	68 00 00 00 00	 push	 OFFSET ??_C@_00CNPNBAHC@@
  000f0	68 00 00 00 00	 push	 OFFSET ??_C@_0P@COPLHHII@ShowSignalName@
  000f5	68 00 00 00 00	 push	 OFFSET ??_C@_06CPODCDOI@Signal@
  000fa	e8 00 00 00 00	 call	 ?WritePrivateProfileStringInST@CDlgSTOption@@QAEHPBD00H@Z ; CDlgSTOption::WritePrivateProfileStringInST

; 425  : 	((CDlgSTOption*)m_pDlgSTOption)->WritePrivateProfileStringInST(STCONFIG_SIGNAL,SHOWSIGNALQTY,"",nUseType);

  000ff	8b 8e a8 06 00
	00		 mov	 ecx, DWORD PTR [esi+1704]
  00105	6a 02		 push	 2
  00107	68 00 00 00 00	 push	 OFFSET ??_C@_00CNPNBAHC@@
  0010c	68 00 00 00 00	 push	 OFFSET ??_C@_0O@EOJLGNKN@ShowSignalQty@
  00111	68 00 00 00 00	 push	 OFFSET ??_C@_06CPODCDOI@Signal@
  00116	e8 00 00 00 00	 call	 ?WritePrivateProfileStringInST@CDlgSTOption@@QAEHPBD00H@Z ; CDlgSTOption::WritePrivateProfileStringInST
  0011b	5e		 pop	 esi

; 426  : }

  0011c	c3		 ret	 0
?RemoveInfo@CTabSignal@@EAEXXZ ENDP			; CTabSignal::RemoveInfo
_TEXT	ENDS
; Function compile flags: /Ogtp
; File D:\git\src\IBK\IBK_DRFN\ProjSrc\SrcDrfn\Chart\STCONFIGUREDLG\TabSignal.cpp
; File C:\Program Files (x86)\Microsoft Visual Studio\2019\Community\VC\Tools\MSVC\14.29.30133\atlmfc\include\afxwin2.inl
; File D:\git\src\IBK\IBK_DRFN\ProjSrc\SrcDrfn\Chart\STCONFIGUREDLG\TabSignal.cpp
; File C:\Program Files (x86)\Microsoft Visual Studio\2019\Community\VC\Tools\MSVC\14.29.30133\atlmfc\include\afxwin2.inl
; File D:\git\src\IBK\IBK_DRFN\ProjSrc\SrcDrfn\Chart\STCONFIGUREDLG\TabSignal.cpp
; File C:\Program Files (x86)\Microsoft Visual Studio\2019\Community\VC\Tools\MSVC\14.29.30133\atlmfc\include\afxwin2.inl
; File D:\git\src\IBK\IBK_DRFN\ProjSrc\SrcDrfn\Chart\STCONFIGUREDLG\TabSignal.cpp
; File C:\Program Files (x86)\Microsoft Visual Studio\2019\Community\VC\Tools\MSVC\14.29.30133\atlmfc\include\afxwin2.inl
; File D:\git\src\IBK\IBK_DRFN\ProjSrc\SrcDrfn\Chart\STCONFIGUREDLG\TabSignal.cpp
; File C:\Program Files (x86)\Microsoft Visual Studio\2019\Community\VC\Tools\MSVC\14.29.30133\atlmfc\include\afxwin2.inl
; File D:\git\src\IBK\IBK_DRFN\ProjSrc\SrcDrfn\Chart\STCONFIGUREDLG\TabSignal.cpp
; File C:\Program Files (x86)\Microsoft Visual Studio\2019\Community\VC\Tools\MSVC\14.29.30133\atlmfc\include\afxwin2.inl
; File D:\git\src\IBK\IBK_DRFN\ProjSrc\SrcDrfn\Chart\STCONFIGUREDLG\TabSignal.cpp
; File C:\Program Files (x86)\Microsoft Visual Studio\2019\Community\VC\Tools\MSVC\14.29.30133\atlmfc\include\afxwin2.inl
; File D:\git\src\IBK\IBK_DRFN\ProjSrc\SrcDrfn\Chart\STCONFIGUREDLG\TabSignal.cpp
;	COMDAT ?SaveInfo@CTabSignal@@EAEHXZ
_TEXT	SEGMENT
_strKeyData$ = -16					; size = 4
__$EHRec$ = -12						; size = 12
?SaveInfo@CTabSignal@@EAEHXZ PROC			; CTabSignal::SaveInfo, COMDAT
; _this$ = ecx

; 369  : {

  00000	55		 push	 ebp
  00001	8b ec		 mov	 ebp, esp
  00003	6a ff		 push	 -1
  00005	68 00 00 00 00	 push	 __ehhandler$?SaveInfo@CTabSignal@@EAEHXZ
  0000a	64 a1 00 00 00
	00		 mov	 eax, DWORD PTR fs:0
  00010	50		 push	 eax
  00011	51		 push	 ecx
  00012	53		 push	 ebx
  00013	56		 push	 esi
  00014	57		 push	 edi
  00015	a1 00 00 00 00	 mov	 eax, DWORD PTR ___security_cookie
  0001a	33 c5		 xor	 eax, ebp
  0001c	50		 push	 eax
  0001d	8d 45 f4	 lea	 eax, DWORD PTR __$EHRec$[ebp]
  00020	64 a3 00 00 00
	00		 mov	 DWORD PTR fs:0, eax
  00026	8b f1		 mov	 esi, ecx
; File C:\Program Files (x86)\Microsoft Visual Studio\2019\Community\VC\Tools\MSVC\14.29.30133\atlmfc\include\afxwin2.inl

; 628  : 	{ ASSERT(::IsWindow(m_hWnd)); return (int)::SendMessage(m_hWnd, BM_GETCHECK, 0, 0); }

  00028	6a 00		 push	 0
  0002a	6a 00		 push	 0
  0002c	68 f0 00 00 00	 push	 240			; 000000f0H
  00031	ff b6 d0 00 00
	00		 push	 DWORD PTR [esi+208]
  00037	ff 15 00 00 00
	00		 call	 DWORD PTR __imp__SendMessageA@16
; File D:\git\src\IBK\IBK_DRFN\ProjSrc\SrcDrfn\Chart\STCONFIGUREDLG\TabSignal.cpp

; 371  : 	CString strKeyData;

  0003d	8d 4d f0	 lea	 ecx, DWORD PTR _strKeyData$[ebp]
  00040	8d 78 ff	 lea	 edi, DWORD PTR [eax-1]
  00043	f7 df		 neg	 edi
  00045	1b ff		 sbb	 edi, edi
  00047	83 c7 03	 add	 edi, 3
  0004a	ff 15 00 00 00
	00		 call	 DWORD PTR __imp_??0?$CStringT@DV?$StrTraitMFC_DLL@DV?$ChTraitsCRT@D@ATL@@@@@ATL@@QAE@XZ

; 372  : 
; 373  : 	if(m_bUseBuy)

  00050	83 be 90 06 00
	00 00		 cmp	 DWORD PTR [esi+1680], 0
  00057	8b 1d 00 00 00
	00		 mov	 ebx, DWORD PTR __imp_?Format@?$CStringT@DV?$StrTraitMFC_DLL@DV?$ChTraitsCRT@D@ATL@@@@@ATL@@QAAXPBDZZ
  0005d	c7 45 fc 00 00
	00 00		 mov	 DWORD PTR __$EHRec$[ebp+8], 0
  00064	74 6a		 je	 SHORT $LN2@SaveInfo
; File C:\Program Files (x86)\Microsoft Visual Studio\2019\Community\VC\Tools\MSVC\14.29.30133\atlmfc\include\afxwin2.inl

; 765  : 	{ ASSERT(::IsWindow(m_hWnd)); return (int)::SendMessage(m_hWnd, CB_GETCURSEL, 0, 0); }

  00066	6a 00		 push	 0
  00068	6a 00		 push	 0
  0006a	68 47 01 00 00	 push	 327			; 00000147H
  0006f	ff b6 e8 03 00
	00		 push	 DWORD PTR [esi+1000]
  00075	ff 15 00 00 00
	00		 call	 DWORD PTR __imp__SendMessageA@16
; File D:\git\src\IBK\IBK_DRFN\ProjSrc\SrcDrfn\Chart\STCONFIGUREDLG\TabSignal.cpp

; 375  : 		strKeyData.Format("%d",m_cbBuy.GetCurSel());

  0007b	50		 push	 eax
  0007c	8d 45 f0	 lea	 eax, DWORD PTR _strKeyData$[ebp]
  0007f	68 00 00 00 00	 push	 OFFSET ??_C@_02DPKJAMEF@?$CFd@
  00084	50		 push	 eax
  00085	ff d3		 call	 ebx

; 376  : 		((CDlgSTOption*)m_pDlgSTOption)->WritePrivateProfileStringInST(STCONFIG_SIGNAL,SHAPEBUY,strKeyData,nUseType);

  00087	8b 8e a8 06 00
	00		 mov	 ecx, DWORD PTR [esi+1704]
  0008d	83 c4 0c	 add	 esp, 12			; 0000000cH
  00090	57		 push	 edi
  00091	ff 75 f0	 push	 DWORD PTR _strKeyData$[ebp]
  00094	68 00 00 00 00	 push	 OFFSET ??_C@_08LLMMGHPD@ShapeBuy@
  00099	68 00 00 00 00	 push	 OFFSET ??_C@_06CPODCDOI@Signal@
  0009e	e8 00 00 00 00	 call	 ?WritePrivateProfileStringInST@CDlgSTOption@@QAEHPBD00H@Z ; CDlgSTOption::WritePrivateProfileStringInST

; 377  : 		strKeyData.Format("%d",m_btnClrBuy.GetColor());

  000a3	ff b6 80 06 00
	00		 push	 DWORD PTR [esi+1664]
  000a9	8d 45 f0	 lea	 eax, DWORD PTR _strKeyData$[ebp]
  000ac	68 00 00 00 00	 push	 OFFSET ??_C@_02DPKJAMEF@?$CFd@
  000b1	50		 push	 eax
  000b2	ff d3		 call	 ebx

; 378  : 		((CDlgSTOption*)m_pDlgSTOption)->WritePrivateProfileStringInST(STCONFIG_SIGNAL,COLORBUY,strKeyData,nUseType);

  000b4	8b 8e a8 06 00
	00		 mov	 ecx, DWORD PTR [esi+1704]
  000ba	83 c4 0c	 add	 esp, 12			; 0000000cH
  000bd	57		 push	 edi
  000be	ff 75 f0	 push	 DWORD PTR _strKeyData$[ebp]
  000c1	68 00 00 00 00	 push	 OFFSET ??_C@_06HGIOMLFJ@ClrBuy@
  000c6	68 00 00 00 00	 push	 OFFSET ??_C@_06CPODCDOI@Signal@
  000cb	e8 00 00 00 00	 call	 ?WritePrivateProfileStringInST@CDlgSTOption@@QAEHPBD00H@Z ; CDlgSTOption::WritePrivateProfileStringInST
$LN2@SaveInfo:

; 379  : 	}
; 380  : 
; 381  : 	if(m_bUseExitlong)

  000d0	83 be 98 06 00
	00 00		 cmp	 DWORD PTR [esi+1688], 0
  000d7	74 6a		 je	 SHORT $LN3@SaveInfo
; File C:\Program Files (x86)\Microsoft Visual Studio\2019\Community\VC\Tools\MSVC\14.29.30133\atlmfc\include\afxwin2.inl

; 765  : 	{ ASSERT(::IsWindow(m_hWnd)); return (int)::SendMessage(m_hWnd, CB_GETCURSEL, 0, 0); }

  000d9	6a 00		 push	 0
  000db	6a 00		 push	 0
  000dd	68 47 01 00 00	 push	 327			; 00000147H
  000e2	ff b6 60 03 00
	00		 push	 DWORD PTR [esi+864]
  000e8	ff 15 00 00 00
	00		 call	 DWORD PTR __imp__SendMessageA@16
; File D:\git\src\IBK\IBK_DRFN\ProjSrc\SrcDrfn\Chart\STCONFIGUREDLG\TabSignal.cpp

; 383  : 		strKeyData.Format("%d",m_cbExitlong.GetCurSel());

  000ee	50		 push	 eax
  000ef	8d 45 f0	 lea	 eax, DWORD PTR _strKeyData$[ebp]
  000f2	68 00 00 00 00	 push	 OFFSET ??_C@_02DPKJAMEF@?$CFd@
  000f7	50		 push	 eax
  000f8	ff d3		 call	 ebx

; 384  : 		((CDlgSTOption*)m_pDlgSTOption)->WritePrivateProfileStringInST(STCONFIG_SIGNAL,SHAPEEXITLONG,strKeyData,nUseType);

  000fa	8b 8e a8 06 00
	00		 mov	 ecx, DWORD PTR [esi+1704]
  00100	83 c4 0c	 add	 esp, 12			; 0000000cH
  00103	57		 push	 edi
  00104	ff 75 f0	 push	 DWORD PTR _strKeyData$[ebp]
  00107	68 00 00 00 00	 push	 OFFSET ??_C@_0O@GJJKDADC@ShapeExitlong@
  0010c	68 00 00 00 00	 push	 OFFSET ??_C@_06CPODCDOI@Signal@
  00111	e8 00 00 00 00	 call	 ?WritePrivateProfileStringInST@CDlgSTOption@@QAEHPBD00H@Z ; CDlgSTOption::WritePrivateProfileStringInST

; 385  : 		strKeyData.Format("%d",m_btnClrExitlong.GetColor());

  00116	ff b6 f0 05 00
	00		 push	 DWORD PTR [esi+1520]
  0011c	8d 45 f0	 lea	 eax, DWORD PTR _strKeyData$[ebp]
  0011f	68 00 00 00 00	 push	 OFFSET ??_C@_02DPKJAMEF@?$CFd@
  00124	50		 push	 eax
  00125	ff d3		 call	 ebx

; 386  : 		((CDlgSTOption*)m_pDlgSTOption)->WritePrivateProfileStringInST(STCONFIG_SIGNAL,COLOREXITLONG,strKeyData,nUseType);

  00127	8b 8e a8 06 00
	00		 mov	 ecx, DWORD PTR [esi+1704]
  0012d	83 c4 0c	 add	 esp, 12			; 0000000cH
  00130	57		 push	 edi
  00131	ff 75 f0	 push	 DWORD PTR _strKeyData$[ebp]
  00134	68 00 00 00 00	 push	 OFFSET ??_C@_0M@FJPKOBBF@ClrExitlong@
  00139	68 00 00 00 00	 push	 OFFSET ??_C@_06CPODCDOI@Signal@
  0013e	e8 00 00 00 00	 call	 ?WritePrivateProfileStringInST@CDlgSTOption@@QAEHPBD00H@Z ; CDlgSTOption::WritePrivateProfileStringInST
$LN3@SaveInfo:

; 387  : 	}
; 388  : 
; 389  : 	if(m_bUseSell)

  00143	83 be 94 06 00
	00 00		 cmp	 DWORD PTR [esi+1684], 0
  0014a	74 6a		 je	 SHORT $LN4@SaveInfo
; File C:\Program Files (x86)\Microsoft Visual Studio\2019\Community\VC\Tools\MSVC\14.29.30133\atlmfc\include\afxwin2.inl

; 765  : 	{ ASSERT(::IsWindow(m_hWnd)); return (int)::SendMessage(m_hWnd, CB_GETCURSEL, 0, 0); }

  0014c	6a 00		 push	 0
  0014e	6a 00		 push	 0
  00150	68 47 01 00 00	 push	 327			; 00000147H
  00155	ff b6 50 02 00
	00		 push	 DWORD PTR [esi+592]
  0015b	ff 15 00 00 00
	00		 call	 DWORD PTR __imp__SendMessageA@16
; File D:\git\src\IBK\IBK_DRFN\ProjSrc\SrcDrfn\Chart\STCONFIGUREDLG\TabSignal.cpp

; 391  : 		strKeyData.Format("%d",m_cbSell.GetCurSel());

  00161	50		 push	 eax
  00162	8d 45 f0	 lea	 eax, DWORD PTR _strKeyData$[ebp]
  00165	68 00 00 00 00	 push	 OFFSET ??_C@_02DPKJAMEF@?$CFd@
  0016a	50		 push	 eax
  0016b	ff d3		 call	 ebx

; 392  : 		((CDlgSTOption*)m_pDlgSTOption)->WritePrivateProfileStringInST(STCONFIG_SIGNAL,SHAPESELL,strKeyData,nUseType);

  0016d	8b 8e a8 06 00
	00		 mov	 ecx, DWORD PTR [esi+1704]
  00173	83 c4 0c	 add	 esp, 12			; 0000000cH
  00176	57		 push	 edi
  00177	ff 75 f0	 push	 DWORD PTR _strKeyData$[ebp]
  0017a	68 00 00 00 00	 push	 OFFSET ??_C@_09PKDDMDFM@ShapeSell@
  0017f	68 00 00 00 00	 push	 OFFSET ??_C@_06CPODCDOI@Signal@
  00184	e8 00 00 00 00	 call	 ?WritePrivateProfileStringInST@CDlgSTOption@@QAEHPBD00H@Z ; CDlgSTOption::WritePrivateProfileStringInST

; 393  : 		strKeyData.Format("%d",m_btnClrSell.GetColor());

  00189	ff b6 d0 04 00
	00		 push	 DWORD PTR [esi+1232]
  0018f	8d 45 f0	 lea	 eax, DWORD PTR _strKeyData$[ebp]
  00192	68 00 00 00 00	 push	 OFFSET ??_C@_02DPKJAMEF@?$CFd@
  00197	50		 push	 eax
  00198	ff d3		 call	 ebx

; 394  : 		((CDlgSTOption*)m_pDlgSTOption)->WritePrivateProfileStringInST(STCONFIG_SIGNAL,COLORSELL,strKeyData,nUseType);

  0019a	8b 8e a8 06 00
	00		 mov	 ecx, DWORD PTR [esi+1704]
  001a0	83 c4 0c	 add	 esp, 12			; 0000000cH
  001a3	57		 push	 edi
  001a4	ff 75 f0	 push	 DWORD PTR _strKeyData$[ebp]
  001a7	68 00 00 00 00	 push	 OFFSET ??_C@_07MMPNMLAG@ClrSell@
  001ac	68 00 00 00 00	 push	 OFFSET ??_C@_06CPODCDOI@Signal@
  001b1	e8 00 00 00 00	 call	 ?WritePrivateProfileStringInST@CDlgSTOption@@QAEHPBD00H@Z ; CDlgSTOption::WritePrivateProfileStringInST
$LN4@SaveInfo:

; 395  : 	}
; 396  : 
; 397  : 	if(m_bUseExitshort)

  001b6	83 be 9c 06 00
	00 00		 cmp	 DWORD PTR [esi+1692], 0
  001bd	74 6a		 je	 SHORT $LN5@SaveInfo
; File C:\Program Files (x86)\Microsoft Visual Studio\2019\Community\VC\Tools\MSVC\14.29.30133\atlmfc\include\afxwin2.inl

; 765  : 	{ ASSERT(::IsWindow(m_hWnd)); return (int)::SendMessage(m_hWnd, CB_GETCURSEL, 0, 0); }

  001bf	6a 00		 push	 0
  001c1	6a 00		 push	 0
  001c3	68 47 01 00 00	 push	 327			; 00000147H
  001c8	ff b6 d8 02 00
	00		 push	 DWORD PTR [esi+728]
  001ce	ff 15 00 00 00
	00		 call	 DWORD PTR __imp__SendMessageA@16
; File D:\git\src\IBK\IBK_DRFN\ProjSrc\SrcDrfn\Chart\STCONFIGUREDLG\TabSignal.cpp

; 399  : 		strKeyData.Format("%d",m_cbExitshort.GetCurSel());

  001d4	50		 push	 eax
  001d5	8d 45 f0	 lea	 eax, DWORD PTR _strKeyData$[ebp]
  001d8	68 00 00 00 00	 push	 OFFSET ??_C@_02DPKJAMEF@?$CFd@
  001dd	50		 push	 eax
  001de	ff d3		 call	 ebx

; 400  : 		((CDlgSTOption*)m_pDlgSTOption)->WritePrivateProfileStringInST(STCONFIG_SIGNAL,SHAPEEXITSHORT,strKeyData,nUseType);

  001e0	8b 8e a8 06 00
	00		 mov	 ecx, DWORD PTR [esi+1704]
  001e6	83 c4 0c	 add	 esp, 12			; 0000000cH
  001e9	57		 push	 edi
  001ea	ff 75 f0	 push	 DWORD PTR _strKeyData$[ebp]
  001ed	68 00 00 00 00	 push	 OFFSET ??_C@_0P@GBBMBNOC@ShapeExitshort@
  001f2	68 00 00 00 00	 push	 OFFSET ??_C@_06CPODCDOI@Signal@
  001f7	e8 00 00 00 00	 call	 ?WritePrivateProfileStringInST@CDlgSTOption@@QAEHPBD00H@Z ; CDlgSTOption::WritePrivateProfileStringInST

; 401  : 		strKeyData.Format("%d",m_btnClrExitshort.GetColor());

  001fc	ff b6 60 05 00
	00		 push	 DWORD PTR [esi+1376]
  00202	8d 45 f0	 lea	 eax, DWORD PTR _strKeyData$[ebp]
  00205	68 00 00 00 00	 push	 OFFSET ??_C@_02DPKJAMEF@?$CFd@
  0020a	50		 push	 eax
  0020b	ff d3		 call	 ebx

; 402  : 		((CDlgSTOption*)m_pDlgSTOption)->WritePrivateProfileStringInST(STCONFIG_SIGNAL,COLOREXITSHORT,strKeyData,nUseType);

  0020d	8b 8e a8 06 00
	00		 mov	 ecx, DWORD PTR [esi+1704]
  00213	83 c4 0c	 add	 esp, 12			; 0000000cH
  00216	57		 push	 edi
  00217	ff 75 f0	 push	 DWORD PTR _strKeyData$[ebp]
  0021a	68 00 00 00 00	 push	 OFFSET ??_C@_0N@MECGMIFI@ClrExitshort@
  0021f	68 00 00 00 00	 push	 OFFSET ??_C@_06CPODCDOI@Signal@
  00224	e8 00 00 00 00	 call	 ?WritePrivateProfileStringInST@CDlgSTOption@@QAEHPBD00H@Z ; CDlgSTOption::WritePrivateProfileStringInST
$LN5@SaveInfo:
; File C:\Program Files (x86)\Microsoft Visual Studio\2019\Community\VC\Tools\MSVC\14.29.30133\atlmfc\include\afxwin2.inl

; 628  : 	{ ASSERT(::IsWindow(m_hWnd)); return (int)::SendMessage(m_hWnd, BM_GETCHECK, 0, 0); }

  00229	6a 00		 push	 0
  0022b	6a 00		 push	 0
  0022d	68 f0 00 00 00	 push	 240			; 000000f0H
  00232	ff b6 d0 01 00
	00		 push	 DWORD PTR [esi+464]
  00238	ff 15 00 00 00
	00		 call	 DWORD PTR __imp__SendMessageA@16
; File D:\git\src\IBK\IBK_DRFN\ProjSrc\SrcDrfn\Chart\STCONFIGUREDLG\TabSignal.cpp

; 405  : 	strKeyData.Format("%d",m_chkShowName.GetCheck());

  0023e	50		 push	 eax
  0023f	8d 45 f0	 lea	 eax, DWORD PTR _strKeyData$[ebp]
  00242	68 00 00 00 00	 push	 OFFSET ??_C@_02DPKJAMEF@?$CFd@
  00247	50		 push	 eax
  00248	ff d3		 call	 ebx

; 406  : 	((CDlgSTOption*)m_pDlgSTOption)->WritePrivateProfileStringInST(STCONFIG_SIGNAL,SHOWSIGNALNAME,strKeyData,nUseType);

  0024a	8b 8e a8 06 00
	00		 mov	 ecx, DWORD PTR [esi+1704]
  00250	83 c4 0c	 add	 esp, 12			; 0000000cH
  00253	57		 push	 edi
  00254	ff 75 f0	 push	 DWORD PTR _strKeyData$[ebp]
  00257	68 00 00 00 00	 push	 OFFSET ??_C@_0P@COPLHHII@ShowSignalName@
  0025c	68 00 00 00 00	 push	 OFFSET ??_C@_06CPODCDOI@Signal@
  00261	e8 00 00 00 00	 call	 ?WritePrivateProfileStringInST@CDlgSTOption@@QAEHPBD00H@Z ; CDlgSTOption::WritePrivateProfileStringInST
; File C:\Program Files (x86)\Microsoft Visual Studio\2019\Community\VC\Tools\MSVC\14.29.30133\atlmfc\include\afxwin2.inl

; 628  : 	{ ASSERT(::IsWindow(m_hWnd)); return (int)::SendMessage(m_hWnd, BM_GETCHECK, 0, 0); }

  00266	6a 00		 push	 0
  00268	6a 00		 push	 0
  0026a	68 f0 00 00 00	 push	 240			; 000000f0H
  0026f	ff b6 50 01 00
	00		 push	 DWORD PTR [esi+336]
  00275	ff 15 00 00 00
	00		 call	 DWORD PTR __imp__SendMessageA@16
; File D:\git\src\IBK\IBK_DRFN\ProjSrc\SrcDrfn\Chart\STCONFIGUREDLG\TabSignal.cpp

; 407  : 	strKeyData.Format("%d",m_chkShowQty.GetCheck());

  0027b	50		 push	 eax
  0027c	8d 45 f0	 lea	 eax, DWORD PTR _strKeyData$[ebp]
  0027f	68 00 00 00 00	 push	 OFFSET ??_C@_02DPKJAMEF@?$CFd@
  00284	50		 push	 eax
  00285	ff d3		 call	 ebx

; 408  : 	((CDlgSTOption*)m_pDlgSTOption)->WritePrivateProfileStringInST(STCONFIG_SIGNAL,SHOWSIGNALQTY,strKeyData,nUseType);

  00287	8b 8e a8 06 00
	00		 mov	 ecx, DWORD PTR [esi+1704]
  0028d	83 c4 0c	 add	 esp, 12			; 0000000cH
  00290	57		 push	 edi
  00291	ff 75 f0	 push	 DWORD PTR _strKeyData$[ebp]
  00294	68 00 00 00 00	 push	 OFFSET ??_C@_0O@EOJLGNKN@ShowSignalQty@
  00299	68 00 00 00 00	 push	 OFFSET ??_C@_06CPODCDOI@Signal@
  0029e	e8 00 00 00 00	 call	 ?WritePrivateProfileStringInST@CDlgSTOption@@QAEHPBD00H@Z ; CDlgSTOption::WritePrivateProfileStringInST

; 409  : 
; 410  : 	return TRUE;

  002a3	8d 4d f0	 lea	 ecx, DWORD PTR _strKeyData$[ebp]
  002a6	ff 15 00 00 00
	00		 call	 DWORD PTR __imp_??1?$CStringT@DV?$StrTraitMFC_DLL@DV?$ChTraitsCRT@D@ATL@@@@@ATL@@QAE@XZ
  002ac	b8 01 00 00 00	 mov	 eax, 1

; 411  : }

  002b1	8b 4d f4	 mov	 ecx, DWORD PTR __$EHRec$[ebp]
  002b4	64 89 0d 00 00
	00 00		 mov	 DWORD PTR fs:0, ecx
  002bb	59		 pop	 ecx
  002bc	5f		 pop	 edi
  002bd	5e		 pop	 esi
  002be	5b		 pop	 ebx
  002bf	8b e5		 mov	 esp, ebp
  002c1	5d		 pop	 ebp
  002c2	c3		 ret	 0
_TEXT	ENDS
;	COMDAT text$x
text$x	SEGMENT
__unwindfunclet$?SaveInfo@CTabSignal@@EAEHXZ$0:
  00000	8d 4d f0	 lea	 ecx, DWORD PTR _strKeyData$[ebp]
  00003	ff 25 00 00 00
	00		 jmp	 DWORD PTR __imp_??1?$CStringT@DV?$StrTraitMFC_DLL@DV?$ChTraitsCRT@D@ATL@@@@@ATL@@QAE@XZ
  00009	cc		 int	 3
  0000a	cc		 int	 3
  0000b	cc		 int	 3
  0000c	cc		 int	 3
  0000d	cc		 int	 3
__ehhandler$?SaveInfo@CTabSignal@@EAEHXZ:
  0000e	90		 npad	 1
  0000f	90		 npad	 1
  00010	8b 54 24 08	 mov	 edx, DWORD PTR [esp+8]
  00014	8d 42 0c	 lea	 eax, DWORD PTR [edx+12]
  00017	8b 4a ec	 mov	 ecx, DWORD PTR [edx-20]
  0001a	33 c8		 xor	 ecx, eax
  0001c	e8 00 00 00 00	 call	 @__security_check_cookie@4
  00021	b8 00 00 00 00	 mov	 eax, OFFSET __ehfuncinfo$?SaveInfo@CTabSignal@@EAEHXZ
  00026	e9 00 00 00 00	 jmp	 ___CxxFrameHandler3
text$x	ENDS
?SaveInfo@CTabSignal@@EAEHXZ ENDP			; CTabSignal::SaveInfo
; Function compile flags: /Ogtp
; File D:\git\src\IBK\IBK_DRFN\ProjSrc\SrcDrfn\Chart\STCONFIGUREDLG\TabSignal.cpp
; File C:\Program Files (x86)\Microsoft Visual Studio\2019\Community\VC\Tools\MSVC\14.29.30133\atlmfc\include\atlsimpstr.h
; File D:\git\src\IBK\IBK_DRFN\ProjSrc\SrcDrfn\Chart\STCONFIGUREDLG\TabSignal.cpp
; File C:\Program Files (x86)\Microsoft Visual Studio\2019\Community\VC\Tools\MSVC\14.29.30133\atlmfc\include\cstringt.h
; File D:\git\src\IBK\IBK_DRFN\ProjSrc\SrcDrfn\Chart\STCONFIGUREDLG\TabSignal.cpp
; File C:\Program Files (x86)\Microsoft Visual Studio\2019\Community\VC\Tools\MSVC\14.29.30133\atlmfc\include\cstringt.h
; File D:\git\src\IBK\IBK_DRFN\ProjSrc\SrcDrfn\Chart\STCONFIGUREDLG\TabSignal.cpp
; File C:\Program Files (x86)\Microsoft Visual Studio\2019\Community\VC\Tools\MSVC\14.29.30133\atlmfc\include\cstringt.h
; File D:\git\src\IBK\IBK_DRFN\ProjSrc\SrcDrfn\Chart\STCONFIGUREDLG\TabSignal.cpp
; File C:\Program Files (x86)\Microsoft Visual Studio\2019\Community\VC\Tools\MSVC\14.29.30133\atlmfc\include\cstringt.h
; File D:\git\src\IBK\IBK_DRFN\ProjSrc\SrcDrfn\Chart\STCONFIGUREDLG\TabSignal.cpp
; File C:\Program Files (x86)\Microsoft Visual Studio\2019\Community\VC\Tools\MSVC\14.29.30133\atlmfc\include\atlsimpstr.h
; File D:\git\src\IBK\IBK_DRFN\ProjSrc\SrcDrfn\Chart\STCONFIGUREDLG\TabSignal.cpp
; File C:\Program Files (x86)\Microsoft Visual Studio\2019\Community\VC\Tools\MSVC\14.29.30133\atlmfc\include\afxwin2.inl
; File D:\git\src\IBK\IBK_DRFN\ProjSrc\SrcDrfn\Chart\STCONFIGUREDLG\TabSignal.cpp
; File C:\Program Files (x86)\Microsoft Visual Studio\2019\Community\VC\Tools\MSVC\14.29.30133\atlmfc\include\afxwin2.inl
; File D:\git\src\IBK\IBK_DRFN\ProjSrc\SrcDrfn\Chart\STCONFIGUREDLG\TabSignal.cpp
; File C:\Program Files (x86)\Microsoft Visual Studio\2019\Community\VC\Tools\MSVC\14.29.30133\atlmfc\include\afxwin2.inl
; File D:\git\src\IBK\IBK_DRFN\ProjSrc\SrcDrfn\Chart\STCONFIGUREDLG\TabSignal.cpp
; File C:\Program Files (x86)\Microsoft Visual Studio\2019\Community\VC\Tools\MSVC\14.29.30133\atlmfc\include\afxwin2.inl
; File D:\git\src\IBK\IBK_DRFN\ProjSrc\SrcDrfn\Chart\STCONFIGUREDLG\TabSignal.cpp
; File C:\Program Files (x86)\Microsoft Visual Studio\2019\Community\VC\Tools\MSVC\14.29.30133\atlmfc\include\afxwin2.inl
; File D:\git\src\IBK\IBK_DRFN\ProjSrc\SrcDrfn\Chart\STCONFIGUREDLG\TabSignal.cpp
; File C:\Program Files (x86)\Microsoft Visual Studio\2019\Community\VC\Tools\MSVC\14.29.30133\atlmfc\include\afxwin2.inl
; File D:\git\src\IBK\IBK_DRFN\ProjSrc\SrcDrfn\Chart\STCONFIGUREDLG\TabSignal.cpp
;	COMDAT ?LoadInfo@CTabSignal@@EAEXXZ
_TEXT	SEGMENT
_strCfgPath$ = -296					; size = 4
_strComment$2 = -292					; size = 4
$T3 = -288						; size = 4
_clrSignal$ = -284					; size = 4
_strItem$4 = -280					; size = 4
$T5 = -276						; size = 4
$T6 = -276						; size = 4
$T7 = -276						; size = 4
$T8 = -276						; size = 4
_nShifter$9 = -276					; size = 4
_szBuffer$ = -272					; size = 256
__$ArrayPad$ = -16					; size = 4
__$EHRec$ = -12						; size = 12
?LoadInfo@CTabSignal@@EAEXXZ PROC			; CTabSignal::LoadInfo, COMDAT
; _this$ = ecx

; 163  : {

  00000	55		 push	 ebp
  00001	8b ec		 mov	 ebp, esp
  00003	6a ff		 push	 -1
  00005	68 00 00 00 00	 push	 __ehhandler$?LoadInfo@CTabSignal@@EAEXXZ
  0000a	64 a1 00 00 00
	00		 mov	 eax, DWORD PTR fs:0
  00010	50		 push	 eax
  00011	81 ec 1c 01 00
	00		 sub	 esp, 284		; 0000011cH
  00017	a1 00 00 00 00	 mov	 eax, DWORD PTR ___security_cookie
  0001c	33 c5		 xor	 eax, ebp
  0001e	89 45 f0	 mov	 DWORD PTR __$ArrayPad$[ebp], eax
  00021	53		 push	 ebx
  00022	56		 push	 esi
  00023	57		 push	 edi
  00024	50		 push	 eax
  00025	8d 45 f4	 lea	 eax, DWORD PTR __$EHRec$[ebp]
  00028	64 a3 00 00 00
	00		 mov	 DWORD PTR fs:0, eax
  0002e	8b f9		 mov	 edi, ecx

; 164  : 	CISTControllerD* pSTControllerCfg = ((CDlgSTOption*)m_pDlgSTOption)->GetISTControllerD();

  00030	8b 8f a8 06 00
	00		 mov	 ecx, DWORD PTR [edi+1704]

; 165  : 	CString strCfgPath = ((CDlgSTOption*)m_pDlgSTOption)->GetSfgPath();

  00036	8d 85 d8 fe ff
	ff		 lea	 eax, DWORD PTR _strCfgPath$[ebp]
  0003c	50		 push	 eax
  0003d	8b b1 bc 04 00
	00		 mov	 esi, DWORD PTR [ecx+1212]
  00043	e8 00 00 00 00	 call	 ?GetSfgPath@CDlgSTOption@@QAE?AV?$CStringT@DV?$StrTraitMFC_DLL@DV?$ChTraitsCRT@D@ATL@@@@@ATL@@XZ ; CDlgSTOption::GetSfgPath

; 166  : 
; 167  : 	char szBuffer[256];
; 168  : 	long lShapeSignal = 0;
; 169  : 	COLORREF clrSignal = RGB(0,0,0);
; 170  : 	DWORD dSizeRead = 0;
; 171  : 
; 172  : 	m_bUseBuy = FALSE;
; 173  : 	m_bUseSell = FALSE;
; 174  : 	m_bUseExitlong = FALSE;
; 175  : 	m_bUseExitshort = FALSE;
; 176  : 
; 177  : 	if(pSTControllerCfg)

  00048	8b 1d 00 00 00
	00		 mov	 ebx, DWORD PTR __imp__atol
  0004e	c7 45 fc 00 00
	00 00		 mov	 DWORD PTR __$EHRec$[ebp+8], 0
  00055	c7 85 e4 fe ff
	ff 00 00 00 00	 mov	 DWORD PTR _clrSignal$[ebp], 0
  0005f	c7 87 90 06 00
	00 00 00 00 00	 mov	 DWORD PTR [edi+1680], 0
  00069	c7 87 94 06 00
	00 00 00 00 00	 mov	 DWORD PTR [edi+1684], 0
  00073	c7 87 98 06 00
	00 00 00 00 00	 mov	 DWORD PTR [edi+1688], 0
  0007d	c7 87 9c 06 00
	00 00 00 00 00	 mov	 DWORD PTR [edi+1692], 0
  00087	85 f6		 test	 esi, esi
  00089	0f 84 6b 01 00
	00		 je	 $LN4@LoadInfo

; 178  : 	{
; 179  : 		CString strComment = pSTControllerCfg->GetDeclaredInnerFuncInfo();

  0008f	8b 06		 mov	 eax, DWORD PTR [esi]
  00091	8d 8d dc fe ff
	ff		 lea	 ecx, DWORD PTR _strComment$2[ebp]
  00097	51		 push	 ecx
  00098	8b ce		 mov	 ecx, esi
  0009a	ff 90 dc 00 00
	00		 call	 DWORD PTR [eax+220]

; 180  : 		CString strItem;

  000a0	8d 8d e8 fe ff
	ff		 lea	 ecx, DWORD PTR _strItem$4[ebp]
  000a6	ff 15 00 00 00
	00		 call	 DWORD PTR __imp_??0?$CStringT@DV?$StrTraitMFC_DLL@DV?$ChTraitsCRT@D@ATL@@@@@ATL@@QAE@XZ

; 181  : 		int nShifter = 0;
; 182  : 		while(1)
; 183  : 		{
; 184  : 			strItem = Parser(strComment,&nShifter);

  000ac	8d 85 ec fe ff
	ff		 lea	 eax, DWORD PTR _nShifter$9[ebp]
  000b2	c6 45 fc 02	 mov	 BYTE PTR __$EHRec$[ebp+8], 2
  000b6	50		 push	 eax
  000b7	ff b5 dc fe ff
	ff		 push	 DWORD PTR _strComment$2[ebp]
  000bd	8d 85 e0 fe ff
	ff		 lea	 eax, DWORD PTR $T3[ebp]
  000c3	c7 85 ec fe ff
	ff 00 00 00 00	 mov	 DWORD PTR _nShifter$9[ebp], 0
  000cd	50		 push	 eax
  000ce	e8 00 00 00 00	 call	 ?Parser@@YA?AV?$CStringT@DV?$StrTraitMFC_DLL@DV?$ChTraitsCRT@D@ATL@@@@@ATL@@PBDPAH@Z ; Parser
  000d3	83 c4 0c	 add	 esp, 12			; 0000000cH
  000d6	50		 push	 eax
  000d7	8d 8d e8 fe ff
	ff		 lea	 ecx, DWORD PTR _strItem$4[ebp]
  000dd	c6 45 fc 03	 mov	 BYTE PTR __$EHRec$[ebp+8], 3
  000e1	ff 15 00 00 00
	00		 call	 DWORD PTR __imp_??4?$CStringT@DV?$StrTraitMFC_DLL@DV?$ChTraitsCRT@D@ATL@@@@@ATL@@QAEAAV01@ABV01@@Z
  000e7	8d 8d e0 fe ff
	ff		 lea	 ecx, DWORD PTR $T3[ebp]
  000ed	c6 45 fc 02	 mov	 BYTE PTR __$EHRec$[ebp+8], 2
  000f1	ff 15 00 00 00
	00		 call	 DWORD PTR __imp_??1?$CStringT@DV?$StrTraitMFC_DLL@DV?$ChTraitsCRT@D@ATL@@@@@ATL@@QAE@XZ
; File C:\Program Files (x86)\Microsoft Visual Studio\2019\Community\VC\Tools\MSVC\14.29.30133\atlmfc\include\atlsimpstr.h

; 519  : 		return( GetData()->nDataLength );

  000f7	8b 85 e8 fe ff
	ff		 mov	 eax, DWORD PTR _strItem$4[ebp]
; File D:\git\src\IBK\IBK_DRFN\ProjSrc\SrcDrfn\Chart\STCONFIGUREDLG\TabSignal.cpp

; 185  : 			if(strItem.GetLength())

  000fd	83 78 f4 00	 cmp	 DWORD PTR [eax-12], 0
  00101	0f 84 d2 00 00
	00		 je	 $LN6@LoadInfo
  00107	66 0f 1f 84 00
	00 00 00 00	 npad	 9
$LL2@LoadInfo:
; File C:\Program Files (x86)\Microsoft Visual Studio\2019\Community\VC\Tools\MSVC\14.29.30133\atlmfc\include\cstringt.h

; 2486 : 		return(str1.Compare(psz2) == 0);

  00110	68 00 00 00 00	 push	 OFFSET ??_C@_06FCMAJJHB@UseBuy@
  00115	8d 8d e8 fe ff
	ff		 lea	 ecx, DWORD PTR _strItem$4[ebp]
  0011b	ff 15 00 00 00
	00		 call	 DWORD PTR __imp_?Compare@?$CStringT@DV?$StrTraitMFC_DLL@DV?$ChTraitsCRT@D@ATL@@@@@ATL@@QBEHPBD@Z
  00121	85 c0		 test	 eax, eax
; File D:\git\src\IBK\IBK_DRFN\ProjSrc\SrcDrfn\Chart\STCONFIGUREDLG\TabSignal.cpp

; 187  : 				if(strItem==USEBUY)			m_bUseBuy = TRUE;

  00123	75 0a		 jne	 SHORT $LN78@LoadInfo
  00125	c7 87 90 06 00
	00 01 00 00 00	 mov	 DWORD PTR [edi+1680], 1
$LN78@LoadInfo:
; File C:\Program Files (x86)\Microsoft Visual Studio\2019\Community\VC\Tools\MSVC\14.29.30133\atlmfc\include\cstringt.h

; 2486 : 		return(str1.Compare(psz2) == 0);

  0012f	68 00 00 00 00	 push	 OFFSET ??_C@_07PJGMCNKO@UseSell@
  00134	8d 8d e8 fe ff
	ff		 lea	 ecx, DWORD PTR _strItem$4[ebp]
  0013a	ff 15 00 00 00
	00		 call	 DWORD PTR __imp_?Compare@?$CStringT@DV?$StrTraitMFC_DLL@DV?$ChTraitsCRT@D@ATL@@@@@ATL@@QBEHPBD@Z
  00140	85 c0		 test	 eax, eax
; File D:\git\src\IBK\IBK_DRFN\ProjSrc\SrcDrfn\Chart\STCONFIGUREDLG\TabSignal.cpp

; 188  : 				if(strItem==USESELL)		m_bUseSell = TRUE;

  00142	75 0a		 jne	 SHORT $LN9@LoadInfo
  00144	c7 87 94 06 00
	00 01 00 00 00	 mov	 DWORD PTR [edi+1684], 1
$LN9@LoadInfo:
; File C:\Program Files (x86)\Microsoft Visual Studio\2019\Community\VC\Tools\MSVC\14.29.30133\atlmfc\include\cstringt.h

; 2486 : 		return(str1.Compare(psz2) == 0);

  0014e	68 00 00 00 00	 push	 OFFSET ??_C@_0M@ECKDADJF@UseExitlong@
  00153	8d 8d e8 fe ff
	ff		 lea	 ecx, DWORD PTR _strItem$4[ebp]
  00159	ff 15 00 00 00
	00		 call	 DWORD PTR __imp_?Compare@?$CStringT@DV?$StrTraitMFC_DLL@DV?$ChTraitsCRT@D@ATL@@@@@ATL@@QBEHPBD@Z
  0015f	85 c0		 test	 eax, eax
; File D:\git\src\IBK\IBK_DRFN\ProjSrc\SrcDrfn\Chart\STCONFIGUREDLG\TabSignal.cpp

; 189  : 				if(strItem==USEEXITLONG)	m_bUseExitlong = TRUE;

  00161	75 0a		 jne	 SHORT $LN10@LoadInfo
  00163	c7 87 98 06 00
	00 01 00 00 00	 mov	 DWORD PTR [edi+1688], 1
$LN10@LoadInfo:
; File C:\Program Files (x86)\Microsoft Visual Studio\2019\Community\VC\Tools\MSVC\14.29.30133\atlmfc\include\cstringt.h

; 2486 : 		return(str1.Compare(psz2) == 0);

  0016d	68 00 00 00 00	 push	 OFFSET ??_C@_0N@CJIFBCJK@UseExitshort@
  00172	8d 8d e8 fe ff
	ff		 lea	 ecx, DWORD PTR _strItem$4[ebp]
  00178	ff 15 00 00 00
	00		 call	 DWORD PTR __imp_?Compare@?$CStringT@DV?$StrTraitMFC_DLL@DV?$ChTraitsCRT@D@ATL@@@@@ATL@@QBEHPBD@Z
  0017e	85 c0		 test	 eax, eax
; File D:\git\src\IBK\IBK_DRFN\ProjSrc\SrcDrfn\Chart\STCONFIGUREDLG\TabSignal.cpp

; 190  : 				if(strItem==USEEXITSHORT)	m_bUseExitshort= TRUE;

  00180	75 0a		 jne	 SHORT $LN11@LoadInfo
  00182	c7 87 9c 06 00
	00 01 00 00 00	 mov	 DWORD PTR [edi+1692], 1
$LN11@LoadInfo:

; 181  : 		int nShifter = 0;
; 182  : 		while(1)
; 183  : 		{
; 184  : 			strItem = Parser(strComment,&nShifter);

  0018c	8d 85 ec fe ff
	ff		 lea	 eax, DWORD PTR _nShifter$9[ebp]
  00192	50		 push	 eax
  00193	ff b5 dc fe ff
	ff		 push	 DWORD PTR _strComment$2[ebp]
  00199	8d 85 e0 fe ff
	ff		 lea	 eax, DWORD PTR $T3[ebp]
  0019f	50		 push	 eax
  001a0	e8 00 00 00 00	 call	 ?Parser@@YA?AV?$CStringT@DV?$StrTraitMFC_DLL@DV?$ChTraitsCRT@D@ATL@@@@@ATL@@PBDPAH@Z ; Parser
  001a5	83 c4 0c	 add	 esp, 12			; 0000000cH
  001a8	50		 push	 eax
  001a9	8d 8d e8 fe ff
	ff		 lea	 ecx, DWORD PTR _strItem$4[ebp]
  001af	c6 45 fc 03	 mov	 BYTE PTR __$EHRec$[ebp+8], 3
  001b3	ff 15 00 00 00
	00		 call	 DWORD PTR __imp_??4?$CStringT@DV?$StrTraitMFC_DLL@DV?$ChTraitsCRT@D@ATL@@@@@ATL@@QAEAAV01@ABV01@@Z
  001b9	8d 8d e0 fe ff
	ff		 lea	 ecx, DWORD PTR $T3[ebp]
  001bf	c6 45 fc 02	 mov	 BYTE PTR __$EHRec$[ebp+8], 2
  001c3	ff 15 00 00 00
	00		 call	 DWORD PTR __imp_??1?$CStringT@DV?$StrTraitMFC_DLL@DV?$ChTraitsCRT@D@ATL@@@@@ATL@@QAE@XZ
; File C:\Program Files (x86)\Microsoft Visual Studio\2019\Community\VC\Tools\MSVC\14.29.30133\atlmfc\include\atlsimpstr.h

; 519  : 		return( GetData()->nDataLength );

  001c9	8b 85 e8 fe ff
	ff		 mov	 eax, DWORD PTR _strItem$4[ebp]
; File D:\git\src\IBK\IBK_DRFN\ProjSrc\SrcDrfn\Chart\STCONFIGUREDLG\TabSignal.cpp

; 185  : 			if(strItem.GetLength())

  001cf	83 78 f4 00	 cmp	 DWORD PTR [eax-12], 0
  001d3	0f 85 37 ff ff
	ff		 jne	 $LL2@LoadInfo
$LN6@LoadInfo:

; 191  : 			}
; 192  : 			else
; 193  : 			{
; 194  : 				break;
; 195  : 			}			
; 196  : 		}
; 197  : 	}

  001d9	8d 8d e8 fe ff
	ff		 lea	 ecx, DWORD PTR _strItem$4[ebp]
  001df	ff 15 00 00 00
	00		 call	 DWORD PTR __imp_??1?$CStringT@DV?$StrTraitMFC_DLL@DV?$ChTraitsCRT@D@ATL@@@@@ATL@@QAE@XZ
  001e5	8d 8d dc fe ff
	ff		 lea	 ecx, DWORD PTR _strComment$2[ebp]
  001eb	c6 45 fc 00	 mov	 BYTE PTR __$EHRec$[ebp+8], 0
  001ef	ff 15 00 00 00
	00		 call	 DWORD PTR __imp_??1?$CStringT@DV?$StrTraitMFC_DLL@DV?$ChTraitsCRT@D@ATL@@@@@ATL@@QAE@XZ
  001f5	e9 e8 00 00 00	 jmp	 $LN5@LoadInfo
$LN4@LoadInfo:

; 198  : 	else
; 199  : 	{
; 200  : 		((CDlgSTOption*)m_pDlgSTOption)->GetPrivateProfileStringInST(STCONFIG_SIGNAL,USEBUY,"0",szBuffer,sizeof(szBuffer),2);

  001fa	8b 8f a8 06 00
	00		 mov	 ecx, DWORD PTR [edi+1704]
  00200	8d 85 f0 fe ff
	ff		 lea	 eax, DWORD PTR _szBuffer$[ebp]
  00206	6a 02		 push	 2
  00208	68 00 01 00 00	 push	 256			; 00000100H
  0020d	50		 push	 eax
  0020e	68 00 00 00 00	 push	 OFFSET ??_C@_01GBGANLPD@0@
  00213	68 00 00 00 00	 push	 OFFSET ??_C@_06FCMAJJHB@UseBuy@
  00218	68 00 00 00 00	 push	 OFFSET ??_C@_06CPODCDOI@Signal@
  0021d	e8 00 00 00 00	 call	 ?GetPrivateProfileStringInST@CDlgSTOption@@QAEKPBD00PADKH@Z ; CDlgSTOption::GetPrivateProfileStringInST

; 201  : 		m_bUseBuy = atol(szBuffer);

  00222	8d 85 f0 fe ff
	ff		 lea	 eax, DWORD PTR _szBuffer$[ebp]
  00228	50		 push	 eax
  00229	ff d3		 call	 ebx

; 202  : 		((CDlgSTOption*)m_pDlgSTOption)->GetPrivateProfileStringInST(STCONFIG_SIGNAL,USEEXITLONG,"0",szBuffer,sizeof(szBuffer),2);

  0022b	8b 8f a8 06 00
	00		 mov	 ecx, DWORD PTR [edi+1704]
  00231	83 c4 04	 add	 esp, 4
  00234	89 87 90 06 00
	00		 mov	 DWORD PTR [edi+1680], eax
  0023a	8d 85 f0 fe ff
	ff		 lea	 eax, DWORD PTR _szBuffer$[ebp]
  00240	6a 02		 push	 2
  00242	68 00 01 00 00	 push	 256			; 00000100H
  00247	50		 push	 eax
  00248	68 00 00 00 00	 push	 OFFSET ??_C@_01GBGANLPD@0@
  0024d	68 00 00 00 00	 push	 OFFSET ??_C@_0M@ECKDADJF@UseExitlong@
  00252	68 00 00 00 00	 push	 OFFSET ??_C@_06CPODCDOI@Signal@
  00257	e8 00 00 00 00	 call	 ?GetPrivateProfileStringInST@CDlgSTOption@@QAEKPBD00PADKH@Z ; CDlgSTOption::GetPrivateProfileStringInST

; 203  : 		m_bUseExitlong = atol(szBuffer);

  0025c	8d 85 f0 fe ff
	ff		 lea	 eax, DWORD PTR _szBuffer$[ebp]
  00262	50		 push	 eax
  00263	ff d3		 call	 ebx

; 204  : 		((CDlgSTOption*)m_pDlgSTOption)->GetPrivateProfileStringInST(STCONFIG_SIGNAL,USESELL,"0",szBuffer,sizeof(szBuffer),2);

  00265	8b 8f a8 06 00
	00		 mov	 ecx, DWORD PTR [edi+1704]
  0026b	83 c4 04	 add	 esp, 4
  0026e	89 87 98 06 00
	00		 mov	 DWORD PTR [edi+1688], eax
  00274	8d 85 f0 fe ff
	ff		 lea	 eax, DWORD PTR _szBuffer$[ebp]
  0027a	6a 02		 push	 2
  0027c	68 00 01 00 00	 push	 256			; 00000100H
  00281	50		 push	 eax
  00282	68 00 00 00 00	 push	 OFFSET ??_C@_01GBGANLPD@0@
  00287	68 00 00 00 00	 push	 OFFSET ??_C@_07PJGMCNKO@UseSell@
  0028c	68 00 00 00 00	 push	 OFFSET ??_C@_06CPODCDOI@Signal@
  00291	e8 00 00 00 00	 call	 ?GetPrivateProfileStringInST@CDlgSTOption@@QAEKPBD00PADKH@Z ; CDlgSTOption::GetPrivateProfileStringInST

; 205  : 		m_bUseSell = atol(szBuffer);

  00296	8d 85 f0 fe ff
	ff		 lea	 eax, DWORD PTR _szBuffer$[ebp]
  0029c	50		 push	 eax
  0029d	ff d3		 call	 ebx

; 206  : 		((CDlgSTOption*)m_pDlgSTOption)->GetPrivateProfileStringInST(STCONFIG_SIGNAL,USEEXITSHORT,"0",szBuffer,sizeof(szBuffer),2);

  0029f	8b 8f a8 06 00
	00		 mov	 ecx, DWORD PTR [edi+1704]
  002a5	83 c4 04	 add	 esp, 4
  002a8	89 87 94 06 00
	00		 mov	 DWORD PTR [edi+1684], eax
  002ae	8d 85 f0 fe ff
	ff		 lea	 eax, DWORD PTR _szBuffer$[ebp]
  002b4	6a 02		 push	 2
  002b6	68 00 01 00 00	 push	 256			; 00000100H
  002bb	50		 push	 eax
  002bc	68 00 00 00 00	 push	 OFFSET ??_C@_01GBGANLPD@0@
  002c1	68 00 00 00 00	 push	 OFFSET ??_C@_0N@CJIFBCJK@UseExitshort@
  002c6	68 00 00 00 00	 push	 OFFSET ??_C@_06CPODCDOI@Signal@
  002cb	e8 00 00 00 00	 call	 ?GetPrivateProfileStringInST@CDlgSTOption@@QAEKPBD00PADKH@Z ; CDlgSTOption::GetPrivateProfileStringInST

; 207  : 		m_bUseExitshort = atol(szBuffer);

  002d0	8d 85 f0 fe ff
	ff		 lea	 eax, DWORD PTR _szBuffer$[ebp]
  002d6	50		 push	 eax
  002d7	ff d3		 call	 ebx
  002d9	83 c4 04	 add	 esp, 4
  002dc	89 87 9c 06 00
	00		 mov	 DWORD PTR [edi+1692], eax
$LN5@LoadInfo:

; 208  : 	}
; 209  : 	if(m_bUseBuy)

  002e2	83 bf 90 06 00
	00 00		 cmp	 DWORD PTR [edi+1680], 0
  002e9	0f 84 b2 00 00
	00		 je	 $LN12@LoadInfo

; 210  : 	{
; 211  : 		dSizeRead = ((CDlgSTOption*)m_pDlgSTOption)->GetPrivateProfileStringInST(STCONFIG_SIGNAL,SHAPEBUY,"",szBuffer,sizeof(szBuffer),2);

  002ef	8b 8f a8 06 00
	00		 mov	 ecx, DWORD PTR [edi+1704]
  002f5	8d 85 f0 fe ff
	ff		 lea	 eax, DWORD PTR _szBuffer$[ebp]
  002fb	6a 02		 push	 2
  002fd	68 00 01 00 00	 push	 256			; 00000100H
  00302	50		 push	 eax
  00303	68 00 00 00 00	 push	 OFFSET ??_C@_00CNPNBAHC@@
  00308	68 00 00 00 00	 push	 OFFSET ??_C@_08LLMMGHPD@ShapeBuy@
  0030d	68 00 00 00 00	 push	 OFFSET ??_C@_06CPODCDOI@Signal@
  00312	e8 00 00 00 00	 call	 ?GetPrivateProfileStringInST@CDlgSTOption@@QAEKPBD00PADKH@Z ; CDlgSTOption::GetPrivateProfileStringInST

; 212  : 		if(!dSizeRead)

  00317	85 c0		 test	 eax, eax
  00319	75 04		 jne	 SHORT $LN14@LoadInfo

; 213  : 		{
; 214  : 			lShapeSignal = 0;

  0031b	33 f6		 xor	 esi, esi

; 215  : 		}

  0031d	eb 15		 jmp	 SHORT $LN16@LoadInfo
$LN14@LoadInfo:

; 216  : 		else
; 217  : 		{
; 218  : 			lShapeSignal = atol(szBuffer);

  0031f	8d 85 f0 fe ff
	ff		 lea	 eax, DWORD PTR _szBuffer$[ebp]
  00325	50		 push	 eax
  00326	ff d3		 call	 ebx
  00328	8b f0		 mov	 esi, eax
  0032a	83 c4 04	 add	 esp, 4

; 219  : 			if(lShapeSignal<0)	lShapeSignal = 0;

  0032d	33 c0		 xor	 eax, eax
  0032f	85 f6		 test	 esi, esi
  00331	0f 48 f0	 cmovs	 esi, eax
$LN16@LoadInfo:

; 220  : 		}
; 221  : 		dSizeRead = ((CDlgSTOption*)m_pDlgSTOption)->GetPrivateProfileStringInST(STCONFIG_SIGNAL,COLORBUY,"",szBuffer,sizeof(szBuffer),2);

  00334	8b 8f a8 06 00
	00		 mov	 ecx, DWORD PTR [edi+1704]
  0033a	8d 85 f0 fe ff
	ff		 lea	 eax, DWORD PTR _szBuffer$[ebp]
  00340	6a 02		 push	 2
  00342	68 00 01 00 00	 push	 256			; 00000100H
  00347	50		 push	 eax
  00348	68 00 00 00 00	 push	 OFFSET ??_C@_00CNPNBAHC@@
  0034d	68 00 00 00 00	 push	 OFFSET ??_C@_06HGIOMLFJ@ClrBuy@
  00352	68 00 00 00 00	 push	 OFFSET ??_C@_06CPODCDOI@Signal@
  00357	e8 00 00 00 00	 call	 ?GetPrivateProfileStringInST@CDlgSTOption@@QAEKPBD00PADKH@Z ; CDlgSTOption::GetPrivateProfileStringInST

; 222  : 		if(!dSizeRead)

  0035c	85 c0		 test	 eax, eax
  0035e	75 07		 jne	 SHORT $LN17@LoadInfo

; 223  : 		{
; 224  : 			clrSignal = SIGNALBUYDEFAULT;	

  00360	b8 ff 00 00 00	 mov	 eax, 255		; 000000ffH

; 225  : 		}

  00365	eb 0c		 jmp	 SHORT $LN18@LoadInfo
$LN17@LoadInfo:

; 226  : 		else
; 227  : 		{
; 228  : 			clrSignal = atol(szBuffer);

  00367	8d 85 f0 fe ff
	ff		 lea	 eax, DWORD PTR _szBuffer$[ebp]
  0036d	50		 push	 eax
  0036e	ff d3		 call	 ebx
  00370	83 c4 04	 add	 esp, 4
$LN18@LoadInfo:
; File C:\Program Files (x86)\Microsoft Visual Studio\2019\Community\VC\Tools\MSVC\14.29.30133\atlmfc\include\afxwin2.inl

; 767  : 	{ ASSERT(::IsWindow(m_hWnd)); return (int)::SendMessage(m_hWnd, CB_SETCURSEL, nSelect, 0); }

  00373	6a 00		 push	 0
  00375	56		 push	 esi
  00376	68 4e 01 00 00	 push	 334			; 0000014eH
  0037b	ff b7 e8 03 00
	00		 push	 DWORD PTR [edi+1000]
  00381	89 85 e4 fe ff
	ff		 mov	 DWORD PTR _clrSignal$[ebp], eax
  00387	ff 15 00 00 00
	00		 call	 DWORD PTR __imp__SendMessageA@16
; File D:\git\src\IBK\IBK_DRFN\ProjSrc\SrcDrfn\Chart\STCONFIGUREDLG\TabSignal.cpp

; 231  : 		m_btnClrBuy.SetColor(clrSignal);

  0038d	8d 85 e4 fe ff
	ff		 lea	 eax, DWORD PTR _clrSignal$[ebp]
  00393	50		 push	 eax
  00394	8d 8f 00 06 00
	00		 lea	 ecx, DWORD PTR [edi+1536]
  0039a	e8 00 00 00 00	 call	 ?SetColor@CColorButton@@QAEXABK@Z ; CColorButton::SetColor

; 232  : 	}

  0039f	eb 36		 jmp	 SHORT $LN13@LoadInfo
$LN12@LoadInfo:

; 233  : 	else
; 234  : 	{
; 235  : 		m_btnClrBuy.SetColor(DISABLEDEFAULT);

  003a1	8d 85 ec fe ff
	ff		 lea	 eax, DWORD PTR $T8[ebp]
  003a7	c7 85 ec fe ff
	ff dc dc dc 00	 mov	 DWORD PTR $T8[ebp], 14474460 ; 00dcdcdcH
  003b1	50		 push	 eax
  003b2	8d 8f 00 06 00
	00		 lea	 ecx, DWORD PTR [edi+1536]
  003b8	e8 00 00 00 00	 call	 ?SetColor@CColorButton@@QAEXABK@Z ; CColorButton::SetColor

; 236  : 		m_cbBuy.EnableWindow(FALSE);

  003bd	6a 00		 push	 0
  003bf	8d 8f c8 03 00
	00		 lea	 ecx, DWORD PTR [edi+968]
  003c5	e8 00 00 00 00	 call	 ?EnableWindow@CWnd@@QAEHH@Z ; CWnd::EnableWindow

; 237  : 		m_btnClrBuy.EnableWindow(FALSE);

  003ca	6a 00		 push	 0
  003cc	8d 8f 00 06 00
	00		 lea	 ecx, DWORD PTR [edi+1536]
  003d2	e8 00 00 00 00	 call	 ?EnableWindow@CColorButton@@QAEHH@Z ; CColorButton::EnableWindow
$LN13@LoadInfo:

; 238  : 	}
; 239  : 
; 240  : 
; 241  : 	//////////////////////////////////////////////////////////////////////////////////////////////////////////
; 242  : 	if(m_bUseExitlong)

  003d7	83 bf 98 06 00
	00 00		 cmp	 DWORD PTR [edi+1688], 0
  003de	0f 84 b2 00 00
	00		 je	 $LN19@LoadInfo

; 243  : 	{
; 244  : 		dSizeRead = ((CDlgSTOption*)m_pDlgSTOption)->GetPrivateProfileStringInST(STCONFIG_SIGNAL,SHAPEEXITLONG,"",szBuffer,sizeof(szBuffer),2);

  003e4	8b 8f a8 06 00
	00		 mov	 ecx, DWORD PTR [edi+1704]
  003ea	8d 85 f0 fe ff
	ff		 lea	 eax, DWORD PTR _szBuffer$[ebp]
  003f0	6a 02		 push	 2
  003f2	68 00 01 00 00	 push	 256			; 00000100H
  003f7	50		 push	 eax
  003f8	68 00 00 00 00	 push	 OFFSET ??_C@_00CNPNBAHC@@
  003fd	68 00 00 00 00	 push	 OFFSET ??_C@_0O@GJJKDADC@ShapeExitlong@
  00402	68 00 00 00 00	 push	 OFFSET ??_C@_06CPODCDOI@Signal@
  00407	e8 00 00 00 00	 call	 ?GetPrivateProfileStringInST@CDlgSTOption@@QAEKPBD00PADKH@Z ; CDlgSTOption::GetPrivateProfileStringInST

; 245  : 		if(!dSizeRead)

  0040c	85 c0		 test	 eax, eax
  0040e	75 04		 jne	 SHORT $LN21@LoadInfo

; 246  : 		{
; 247  : 			lShapeSignal = 0;

  00410	33 f6		 xor	 esi, esi

; 248  : 		}

  00412	eb 15		 jmp	 SHORT $LN23@LoadInfo
$LN21@LoadInfo:

; 249  : 		else
; 250  : 		{
; 251  : 			lShapeSignal = atol(szBuffer);

  00414	8d 85 f0 fe ff
	ff		 lea	 eax, DWORD PTR _szBuffer$[ebp]
  0041a	50		 push	 eax
  0041b	ff d3		 call	 ebx
  0041d	8b f0		 mov	 esi, eax
  0041f	83 c4 04	 add	 esp, 4

; 252  : 			if(lShapeSignal<0)	lShapeSignal = 0;

  00422	33 c0		 xor	 eax, eax
  00424	85 f6		 test	 esi, esi
  00426	0f 48 f0	 cmovs	 esi, eax
$LN23@LoadInfo:

; 253  : 		}
; 254  : 		dSizeRead = ((CDlgSTOption*)m_pDlgSTOption)->GetPrivateProfileStringInST(STCONFIG_SIGNAL,COLOREXITLONG,"",szBuffer,sizeof(szBuffer),2);

  00429	8b 8f a8 06 00
	00		 mov	 ecx, DWORD PTR [edi+1704]
  0042f	8d 85 f0 fe ff
	ff		 lea	 eax, DWORD PTR _szBuffer$[ebp]
  00435	6a 02		 push	 2
  00437	68 00 01 00 00	 push	 256			; 00000100H
  0043c	50		 push	 eax
  0043d	68 00 00 00 00	 push	 OFFSET ??_C@_00CNPNBAHC@@
  00442	68 00 00 00 00	 push	 OFFSET ??_C@_0M@FJPKOBBF@ClrExitlong@
  00447	68 00 00 00 00	 push	 OFFSET ??_C@_06CPODCDOI@Signal@
  0044c	e8 00 00 00 00	 call	 ?GetPrivateProfileStringInST@CDlgSTOption@@QAEKPBD00PADKH@Z ; CDlgSTOption::GetPrivateProfileStringInST

; 255  : 		if(!dSizeRead)

  00451	85 c0		 test	 eax, eax
  00453	75 07		 jne	 SHORT $LN24@LoadInfo

; 256  : 		{
; 257  : 			clrSignal = SIGNALEXITLONGDEFAULT;	

  00455	b8 00 00 ff 00	 mov	 eax, 16711680		; 00ff0000H

; 258  : 		}

  0045a	eb 0c		 jmp	 SHORT $LN25@LoadInfo
$LN24@LoadInfo:

; 259  : 		else
; 260  : 		{
; 261  : 			clrSignal = atol(szBuffer);

  0045c	8d 85 f0 fe ff
	ff		 lea	 eax, DWORD PTR _szBuffer$[ebp]
  00462	50		 push	 eax
  00463	ff d3		 call	 ebx
  00465	83 c4 04	 add	 esp, 4
$LN25@LoadInfo:
; File C:\Program Files (x86)\Microsoft Visual Studio\2019\Community\VC\Tools\MSVC\14.29.30133\atlmfc\include\afxwin2.inl

; 767  : 	{ ASSERT(::IsWindow(m_hWnd)); return (int)::SendMessage(m_hWnd, CB_SETCURSEL, nSelect, 0); }

  00468	6a 00		 push	 0
  0046a	56		 push	 esi
  0046b	68 4e 01 00 00	 push	 334			; 0000014eH
  00470	ff b7 60 03 00
	00		 push	 DWORD PTR [edi+864]
  00476	89 85 e4 fe ff
	ff		 mov	 DWORD PTR _clrSignal$[ebp], eax
  0047c	ff 15 00 00 00
	00		 call	 DWORD PTR __imp__SendMessageA@16
; File D:\git\src\IBK\IBK_DRFN\ProjSrc\SrcDrfn\Chart\STCONFIGUREDLG\TabSignal.cpp

; 264  : 		m_btnClrExitlong.SetColor(clrSignal);

  00482	8d 85 e4 fe ff
	ff		 lea	 eax, DWORD PTR _clrSignal$[ebp]
  00488	50		 push	 eax
  00489	8d 8f 70 05 00
	00		 lea	 ecx, DWORD PTR [edi+1392]
  0048f	e8 00 00 00 00	 call	 ?SetColor@CColorButton@@QAEXABK@Z ; CColorButton::SetColor

; 265  : 	}

  00494	eb 36		 jmp	 SHORT $LN20@LoadInfo
$LN19@LoadInfo:

; 266  : 	else
; 267  : 	{
; 268  : 		m_btnClrExitlong.SetColor(DISABLEDEFAULT);

  00496	8d 85 ec fe ff
	ff		 lea	 eax, DWORD PTR $T7[ebp]
  0049c	c7 85 ec fe ff
	ff dc dc dc 00	 mov	 DWORD PTR $T7[ebp], 14474460 ; 00dcdcdcH
  004a6	50		 push	 eax
  004a7	8d 8f 70 05 00
	00		 lea	 ecx, DWORD PTR [edi+1392]
  004ad	e8 00 00 00 00	 call	 ?SetColor@CColorButton@@QAEXABK@Z ; CColorButton::SetColor

; 269  : 		m_cbExitlong.EnableWindow(FALSE);

  004b2	6a 00		 push	 0
  004b4	8d 8f 40 03 00
	00		 lea	 ecx, DWORD PTR [edi+832]
  004ba	e8 00 00 00 00	 call	 ?EnableWindow@CWnd@@QAEHH@Z ; CWnd::EnableWindow

; 270  : 		m_btnClrExitlong.EnableWindow(FALSE);

  004bf	6a 00		 push	 0
  004c1	8d 8f 70 05 00
	00		 lea	 ecx, DWORD PTR [edi+1392]
  004c7	e8 00 00 00 00	 call	 ?EnableWindow@CColorButton@@QAEHH@Z ; CColorButton::EnableWindow
$LN20@LoadInfo:

; 271  : 	}
; 272  : 
; 273  : 	//////////////////////////////////////////////////////////////////////////////////////////////////////////
; 274  : 	if(m_bUseSell)

  004cc	83 bf 94 06 00
	00 00		 cmp	 DWORD PTR [edi+1684], 0
  004d3	0f 84 b2 00 00
	00		 je	 $LN26@LoadInfo

; 275  : 	{
; 276  : 		dSizeRead = ((CDlgSTOption*)m_pDlgSTOption)->GetPrivateProfileStringInST(STCONFIG_SIGNAL,SHAPESELL,"",szBuffer,sizeof(szBuffer),2);

  004d9	8b 8f a8 06 00
	00		 mov	 ecx, DWORD PTR [edi+1704]
  004df	8d 85 f0 fe ff
	ff		 lea	 eax, DWORD PTR _szBuffer$[ebp]
  004e5	6a 02		 push	 2
  004e7	68 00 01 00 00	 push	 256			; 00000100H
  004ec	50		 push	 eax
  004ed	68 00 00 00 00	 push	 OFFSET ??_C@_00CNPNBAHC@@
  004f2	68 00 00 00 00	 push	 OFFSET ??_C@_09PKDDMDFM@ShapeSell@
  004f7	68 00 00 00 00	 push	 OFFSET ??_C@_06CPODCDOI@Signal@
  004fc	e8 00 00 00 00	 call	 ?GetPrivateProfileStringInST@CDlgSTOption@@QAEKPBD00PADKH@Z ; CDlgSTOption::GetPrivateProfileStringInST

; 277  : 		if(!dSizeRead)

  00501	85 c0		 test	 eax, eax
  00503	75 04		 jne	 SHORT $LN28@LoadInfo

; 278  : 		{
; 279  : 			lShapeSignal = 0;

  00505	33 f6		 xor	 esi, esi

; 280  : 		}

  00507	eb 15		 jmp	 SHORT $LN30@LoadInfo
$LN28@LoadInfo:

; 281  : 		else
; 282  : 		{
; 283  : 			lShapeSignal = atol(szBuffer);

  00509	8d 85 f0 fe ff
	ff		 lea	 eax, DWORD PTR _szBuffer$[ebp]
  0050f	50		 push	 eax
  00510	ff d3		 call	 ebx
  00512	8b f0		 mov	 esi, eax
  00514	83 c4 04	 add	 esp, 4

; 284  : 			if(lShapeSignal<0)	lShapeSignal = 0;

  00517	33 c0		 xor	 eax, eax
  00519	85 f6		 test	 esi, esi
  0051b	0f 48 f0	 cmovs	 esi, eax
$LN30@LoadInfo:

; 285  : 		}
; 286  : 		dSizeRead = ((CDlgSTOption*)m_pDlgSTOption)->GetPrivateProfileStringInST(STCONFIG_SIGNAL,COLORSELL,"",szBuffer,sizeof(szBuffer),2);

  0051e	8b 8f a8 06 00
	00		 mov	 ecx, DWORD PTR [edi+1704]
  00524	8d 85 f0 fe ff
	ff		 lea	 eax, DWORD PTR _szBuffer$[ebp]
  0052a	6a 02		 push	 2
  0052c	68 00 01 00 00	 push	 256			; 00000100H
  00531	50		 push	 eax
  00532	68 00 00 00 00	 push	 OFFSET ??_C@_00CNPNBAHC@@
  00537	68 00 00 00 00	 push	 OFFSET ??_C@_07MMPNMLAG@ClrSell@
  0053c	68 00 00 00 00	 push	 OFFSET ??_C@_06CPODCDOI@Signal@
  00541	e8 00 00 00 00	 call	 ?GetPrivateProfileStringInST@CDlgSTOption@@QAEKPBD00PADKH@Z ; CDlgSTOption::GetPrivateProfileStringInST

; 287  : 		if(!dSizeRead)

  00546	85 c0		 test	 eax, eax
  00548	75 07		 jne	 SHORT $LN31@LoadInfo

; 288  : 		{
; 289  : 			clrSignal = SIGNALSELLDEFAULT;	

  0054a	b8 00 00 ff 00	 mov	 eax, 16711680		; 00ff0000H

; 290  : 		}

  0054f	eb 0c		 jmp	 SHORT $LN32@LoadInfo
$LN31@LoadInfo:

; 291  : 		else
; 292  : 		{
; 293  : 			clrSignal = atol(szBuffer);

  00551	8d 85 f0 fe ff
	ff		 lea	 eax, DWORD PTR _szBuffer$[ebp]
  00557	50		 push	 eax
  00558	ff d3		 call	 ebx
  0055a	83 c4 04	 add	 esp, 4
$LN32@LoadInfo:
; File C:\Program Files (x86)\Microsoft Visual Studio\2019\Community\VC\Tools\MSVC\14.29.30133\atlmfc\include\afxwin2.inl

; 767  : 	{ ASSERT(::IsWindow(m_hWnd)); return (int)::SendMessage(m_hWnd, CB_SETCURSEL, nSelect, 0); }

  0055d	6a 00		 push	 0
  0055f	56		 push	 esi
  00560	68 4e 01 00 00	 push	 334			; 0000014eH
  00565	ff b7 50 02 00
	00		 push	 DWORD PTR [edi+592]
  0056b	89 85 e4 fe ff
	ff		 mov	 DWORD PTR _clrSignal$[ebp], eax
  00571	ff 15 00 00 00
	00		 call	 DWORD PTR __imp__SendMessageA@16
; File D:\git\src\IBK\IBK_DRFN\ProjSrc\SrcDrfn\Chart\STCONFIGUREDLG\TabSignal.cpp

; 296  : 		m_btnClrSell.SetColor(clrSignal);

  00577	8d 85 e4 fe ff
	ff		 lea	 eax, DWORD PTR _clrSignal$[ebp]
  0057d	50		 push	 eax
  0057e	8d 8f 50 04 00
	00		 lea	 ecx, DWORD PTR [edi+1104]
  00584	e8 00 00 00 00	 call	 ?SetColor@CColorButton@@QAEXABK@Z ; CColorButton::SetColor

; 297  : 	}

  00589	eb 36		 jmp	 SHORT $LN27@LoadInfo
$LN26@LoadInfo:

; 298  : 	else
; 299  : 	{
; 300  : 		m_btnClrSell.SetColor(DISABLEDEFAULT);

  0058b	8d 85 ec fe ff
	ff		 lea	 eax, DWORD PTR $T6[ebp]
  00591	c7 85 ec fe ff
	ff dc dc dc 00	 mov	 DWORD PTR $T6[ebp], 14474460 ; 00dcdcdcH
  0059b	50		 push	 eax
  0059c	8d 8f 50 04 00
	00		 lea	 ecx, DWORD PTR [edi+1104]
  005a2	e8 00 00 00 00	 call	 ?SetColor@CColorButton@@QAEXABK@Z ; CColorButton::SetColor

; 301  : 		m_cbSell.EnableWindow(FALSE);

  005a7	6a 00		 push	 0
  005a9	8d 8f 30 02 00
	00		 lea	 ecx, DWORD PTR [edi+560]
  005af	e8 00 00 00 00	 call	 ?EnableWindow@CWnd@@QAEHH@Z ; CWnd::EnableWindow

; 302  : 		m_btnClrSell.EnableWindow(FALSE);

  005b4	6a 00		 push	 0
  005b6	8d 8f 50 04 00
	00		 lea	 ecx, DWORD PTR [edi+1104]
  005bc	e8 00 00 00 00	 call	 ?EnableWindow@CColorButton@@QAEHH@Z ; CColorButton::EnableWindow
$LN27@LoadInfo:

; 303  : 	}
; 304  : 
; 305  : 	//////////////////////////////////////////////////////////////////////////////////////////////////////////
; 306  : 	if(m_bUseExitshort)

  005c1	83 bf 9c 06 00
	00 00		 cmp	 DWORD PTR [edi+1692], 0
  005c8	0f 84 b4 00 00
	00		 je	 $LN33@LoadInfo

; 307  : 	{
; 308  : 		dSizeRead = ((CDlgSTOption*)m_pDlgSTOption)->GetPrivateProfileStringInST(STCONFIG_SIGNAL,SHAPEEXITSHORT,"",szBuffer,sizeof(szBuffer),2);

  005ce	8b 8f a8 06 00
	00		 mov	 ecx, DWORD PTR [edi+1704]
  005d4	8d 85 f0 fe ff
	ff		 lea	 eax, DWORD PTR _szBuffer$[ebp]
  005da	6a 02		 push	 2
  005dc	68 00 01 00 00	 push	 256			; 00000100H
  005e1	50		 push	 eax
  005e2	68 00 00 00 00	 push	 OFFSET ??_C@_00CNPNBAHC@@
  005e7	68 00 00 00 00	 push	 OFFSET ??_C@_0P@GBBMBNOC@ShapeExitshort@
  005ec	68 00 00 00 00	 push	 OFFSET ??_C@_06CPODCDOI@Signal@
  005f1	e8 00 00 00 00	 call	 ?GetPrivateProfileStringInST@CDlgSTOption@@QAEKPBD00PADKH@Z ; CDlgSTOption::GetPrivateProfileStringInST

; 309  : 		if(!dSizeRead)

  005f6	85 c0		 test	 eax, eax
  005f8	75 04		 jne	 SHORT $LN35@LoadInfo

; 310  : 		{
; 311  : 			lShapeSignal = 0;

  005fa	33 f6		 xor	 esi, esi

; 312  : 		}

  005fc	eb 15		 jmp	 SHORT $LN37@LoadInfo
$LN35@LoadInfo:

; 313  : 		else
; 314  : 		{
; 315  : 			lShapeSignal = atol(szBuffer);

  005fe	8d 85 f0 fe ff
	ff		 lea	 eax, DWORD PTR _szBuffer$[ebp]
  00604	50		 push	 eax
  00605	ff d3		 call	 ebx
  00607	8b f0		 mov	 esi, eax
  00609	83 c4 04	 add	 esp, 4

; 316  : 			if(lShapeSignal<0)	lShapeSignal = 0;

  0060c	33 c0		 xor	 eax, eax
  0060e	85 f6		 test	 esi, esi
  00610	0f 48 f0	 cmovs	 esi, eax
$LN37@LoadInfo:

; 317  : 		}
; 318  : 		dSizeRead = ((CDlgSTOption*)m_pDlgSTOption)->GetPrivateProfileStringInST(STCONFIG_SIGNAL,COLOREXITSHORT,"",szBuffer,sizeof(szBuffer),2);

  00613	8b 8f a8 06 00
	00		 mov	 ecx, DWORD PTR [edi+1704]
  00619	8d 85 f0 fe ff
	ff		 lea	 eax, DWORD PTR _szBuffer$[ebp]
  0061f	6a 02		 push	 2
  00621	68 00 01 00 00	 push	 256			; 00000100H
  00626	50		 push	 eax
  00627	68 00 00 00 00	 push	 OFFSET ??_C@_00CNPNBAHC@@
  0062c	68 00 00 00 00	 push	 OFFSET ??_C@_0N@MECGMIFI@ClrExitshort@
  00631	68 00 00 00 00	 push	 OFFSET ??_C@_06CPODCDOI@Signal@
  00636	e8 00 00 00 00	 call	 ?GetPrivateProfileStringInST@CDlgSTOption@@QAEKPBD00PADKH@Z ; CDlgSTOption::GetPrivateProfileStringInST

; 319  : 		if(!dSizeRead)

  0063b	85 c0		 test	 eax, eax
  0063d	75 07		 jne	 SHORT $LN38@LoadInfo

; 320  : 		{
; 321  : 			clrSignal = SIGNALEXITSHORTDEFAULT;	

  0063f	b8 ff 00 00 00	 mov	 eax, 255		; 000000ffH

; 322  : 		}

  00644	eb 0c		 jmp	 SHORT $LN39@LoadInfo
$LN38@LoadInfo:

; 323  : 		else
; 324  : 		{
; 325  : 			clrSignal = atol(szBuffer);

  00646	8d 85 f0 fe ff
	ff		 lea	 eax, DWORD PTR _szBuffer$[ebp]
  0064c	50		 push	 eax
  0064d	ff d3		 call	 ebx
  0064f	83 c4 04	 add	 esp, 4
$LN39@LoadInfo:
; File C:\Program Files (x86)\Microsoft Visual Studio\2019\Community\VC\Tools\MSVC\14.29.30133\atlmfc\include\afxwin2.inl

; 767  : 	{ ASSERT(::IsWindow(m_hWnd)); return (int)::SendMessage(m_hWnd, CB_SETCURSEL, nSelect, 0); }

  00652	6a 00		 push	 0
  00654	56		 push	 esi
  00655	8b 35 00 00 00
	00		 mov	 esi, DWORD PTR __imp__SendMessageA@16
  0065b	68 4e 01 00 00	 push	 334			; 0000014eH
  00660	ff b7 d8 02 00
	00		 push	 DWORD PTR [edi+728]
  00666	89 85 e4 fe ff
	ff		 mov	 DWORD PTR _clrSignal$[ebp], eax
  0066c	ff d6		 call	 esi
; File D:\git\src\IBK\IBK_DRFN\ProjSrc\SrcDrfn\Chart\STCONFIGUREDLG\TabSignal.cpp

; 328  : 		m_btnClrExitshort.SetColor(clrSignal);

  0066e	8d 85 e4 fe ff
	ff		 lea	 eax, DWORD PTR _clrSignal$[ebp]
  00674	50		 push	 eax
  00675	8d 8f e0 04 00
	00		 lea	 ecx, DWORD PTR [edi+1248]
  0067b	e8 00 00 00 00	 call	 ?SetColor@CColorButton@@QAEXABK@Z ; CColorButton::SetColor

; 329  : 	}

  00680	eb 3c		 jmp	 SHORT $LN34@LoadInfo
$LN33@LoadInfo:

; 330  : 	else
; 331  : 	{
; 332  : 		m_btnClrExitshort.SetColor(DISABLEDEFAULT);

  00682	8d 85 ec fe ff
	ff		 lea	 eax, DWORD PTR $T5[ebp]
  00688	c7 85 ec fe ff
	ff dc dc dc 00	 mov	 DWORD PTR $T5[ebp], 14474460 ; 00dcdcdcH
  00692	50		 push	 eax
  00693	8d 8f e0 04 00
	00		 lea	 ecx, DWORD PTR [edi+1248]
  00699	e8 00 00 00 00	 call	 ?SetColor@CColorButton@@QAEXABK@Z ; CColorButton::SetColor

; 333  : 		m_cbExitshort.EnableWindow(FALSE);

  0069e	6a 00		 push	 0
  006a0	8d 8f b8 02 00
	00		 lea	 ecx, DWORD PTR [edi+696]
  006a6	e8 00 00 00 00	 call	 ?EnableWindow@CWnd@@QAEHH@Z ; CWnd::EnableWindow

; 334  : 		m_btnClrExitshort.EnableWindow(FALSE);

  006ab	6a 00		 push	 0
  006ad	8d 8f e0 04 00
	00		 lea	 ecx, DWORD PTR [edi+1248]
  006b3	e8 00 00 00 00	 call	 ?EnableWindow@CColorButton@@QAEHH@Z ; CColorButton::EnableWindow
  006b8	8b 35 00 00 00
	00		 mov	 esi, DWORD PTR __imp__SendMessageA@16
$LN34@LoadInfo:

; 335  : 	}
; 336  : 
; 337  : 
; 338  : 	if(m_bUseBuy||m_bUseSell||m_bUseExitlong||m_bUseExitshort)	

  006be	83 bf 90 06 00
	00 00		 cmp	 DWORD PTR [edi+1680], 0
  006c5	75 3a		 jne	 SHORT $LN42@LoadInfo
  006c7	83 bf 94 06 00
	00 00		 cmp	 DWORD PTR [edi+1684], 0
  006ce	75 31		 jne	 SHORT $LN42@LoadInfo
  006d0	83 bf 98 06 00
	00 00		 cmp	 DWORD PTR [edi+1688], 0
  006d7	75 28		 jne	 SHORT $LN42@LoadInfo
  006d9	83 bf 9c 06 00
	00 00		 cmp	 DWORD PTR [edi+1692], 0
  006e0	75 1f		 jne	 SHORT $LN42@LoadInfo

; 345  : 
; 346  : //		((CDlgSTOption*)m_pDlgSTOption)->GetPrivateProfileStringInST(SIGNAL,POSOFSIGNAL,"0",szBuffer,sizeof(szBuffer),2);
; 347  : //		int nPosOfSignal = atol(szBuffer);
; 348  : //		if(nPosOfSignal==0)
; 349  : //		{
; 350  : //			m_ctrlREndOfCandle.SetCheck(1);
; 351  : //			m_ctrlRStartOfCandle.SetCheck(0);
; 352  : //		}
; 353  : //		else
; 354  : //		{
; 355  : //			m_ctrlREndOfCandle.SetCheck(0);
; 356  : //			m_ctrlRStartOfCandle.SetCheck(1);
; 357  : //		}
; 358  : 	}
; 359  : 	else
; 360  : 	{
; 361  : 		m_chkShowName.EnableWindow(FALSE);

  006e2	6a 00		 push	 0
  006e4	8d 8f b0 01 00
	00		 lea	 ecx, DWORD PTR [edi+432]
  006ea	e8 00 00 00 00	 call	 ?EnableWindow@CWnd@@QAEHH@Z ; CWnd::EnableWindow

; 362  : 		m_chkShowQty.EnableWindow(FALSE);

  006ef	6a 00		 push	 0
  006f1	8d 8f 30 01 00
	00		 lea	 ecx, DWORD PTR [edi+304]
  006f7	e8 00 00 00 00	 call	 ?EnableWindow@CWnd@@QAEHH@Z ; CWnd::EnableWindow
  006fc	e9 88 00 00 00	 jmp	 $LN41@LoadInfo
$LN42@LoadInfo:

; 339  : 	{
; 340  : 		((CDlgSTOption*)m_pDlgSTOption)->GetPrivateProfileStringInST(STCONFIG_SIGNAL,SHOWSIGNALNAME,"0",szBuffer,sizeof(szBuffer),2);

  00701	8b 8f a8 06 00
	00		 mov	 ecx, DWORD PTR [edi+1704]
  00707	8d 85 f0 fe ff
	ff		 lea	 eax, DWORD PTR _szBuffer$[ebp]
  0070d	6a 02		 push	 2
  0070f	68 00 01 00 00	 push	 256			; 00000100H
  00714	50		 push	 eax
  00715	68 00 00 00 00	 push	 OFFSET ??_C@_01GBGANLPD@0@
  0071a	68 00 00 00 00	 push	 OFFSET ??_C@_0P@COPLHHII@ShowSignalName@
  0071f	68 00 00 00 00	 push	 OFFSET ??_C@_06CPODCDOI@Signal@
  00724	e8 00 00 00 00	 call	 ?GetPrivateProfileStringInST@CDlgSTOption@@QAEKPBD00PADKH@Z ; CDlgSTOption::GetPrivateProfileStringInST

; 341  : 		m_chkShowName.SetCheck(atol(szBuffer));

  00729	8d 85 f0 fe ff
	ff		 lea	 eax, DWORD PTR _szBuffer$[ebp]
  0072f	50		 push	 eax
  00730	ff d3		 call	 ebx
  00732	83 c4 04	 add	 esp, 4
; File C:\Program Files (x86)\Microsoft Visual Studio\2019\Community\VC\Tools\MSVC\14.29.30133\atlmfc\include\afxwin2.inl

; 630  : 	{ ASSERT(::IsWindow(m_hWnd)); ::SendMessage(m_hWnd, BM_SETCHECK, nCheck, 0); }

  00735	6a 00		 push	 0
  00737	50		 push	 eax
  00738	68 f1 00 00 00	 push	 241			; 000000f1H
  0073d	ff b7 d0 01 00
	00		 push	 DWORD PTR [edi+464]
  00743	ff d6		 call	 esi
; File D:\git\src\IBK\IBK_DRFN\ProjSrc\SrcDrfn\Chart\STCONFIGUREDLG\TabSignal.cpp

; 343  : 		((CDlgSTOption*)m_pDlgSTOption)->GetPrivateProfileStringInST(STCONFIG_SIGNAL,SHOWSIGNALQTY,"0",szBuffer,sizeof(szBuffer),2);

  00745	8b 8f a8 06 00
	00		 mov	 ecx, DWORD PTR [edi+1704]
  0074b	8d 85 f0 fe ff
	ff		 lea	 eax, DWORD PTR _szBuffer$[ebp]
  00751	6a 02		 push	 2
  00753	68 00 01 00 00	 push	 256			; 00000100H
  00758	50		 push	 eax
  00759	68 00 00 00 00	 push	 OFFSET ??_C@_01GBGANLPD@0@
  0075e	68 00 00 00 00	 push	 OFFSET ??_C@_0O@EOJLGNKN@ShowSignalQty@
  00763	68 00 00 00 00	 push	 OFFSET ??_C@_06CPODCDOI@Signal@
  00768	e8 00 00 00 00	 call	 ?GetPrivateProfileStringInST@CDlgSTOption@@QAEKPBD00PADKH@Z ; CDlgSTOption::GetPrivateProfileStringInST

; 344  : 		m_chkShowQty.SetCheck(atol(szBuffer));

  0076d	8d 85 f0 fe ff
	ff		 lea	 eax, DWORD PTR _szBuffer$[ebp]
  00773	50		 push	 eax
  00774	ff d3		 call	 ebx
  00776	83 c4 04	 add	 esp, 4
; File C:\Program Files (x86)\Microsoft Visual Studio\2019\Community\VC\Tools\MSVC\14.29.30133\atlmfc\include\afxwin2.inl

; 630  : 	{ ASSERT(::IsWindow(m_hWnd)); ::SendMessage(m_hWnd, BM_SETCHECK, nCheck, 0); }

  00779	6a 00		 push	 0
  0077b	50		 push	 eax
  0077c	68 f1 00 00 00	 push	 241			; 000000f1H
  00781	ff b7 50 01 00
	00		 push	 DWORD PTR [edi+336]
  00787	ff d6		 call	 esi
$LN41@LoadInfo:
; File D:\git\src\IBK\IBK_DRFN\ProjSrc\SrcDrfn\Chart\STCONFIGUREDLG\TabSignal.cpp

; 366  : }

  00789	8d 8d d8 fe ff
	ff		 lea	 ecx, DWORD PTR _strCfgPath$[ebp]
  0078f	ff 15 00 00 00
	00		 call	 DWORD PTR __imp_??1?$CStringT@DV?$StrTraitMFC_DLL@DV?$ChTraitsCRT@D@ATL@@@@@ATL@@QAE@XZ
  00795	8b 4d f4	 mov	 ecx, DWORD PTR __$EHRec$[ebp]
  00798	64 89 0d 00 00
	00 00		 mov	 DWORD PTR fs:0, ecx
  0079f	59		 pop	 ecx
  007a0	5f		 pop	 edi
  007a1	5e		 pop	 esi
  007a2	5b		 pop	 ebx
  007a3	8b 4d f0	 mov	 ecx, DWORD PTR __$ArrayPad$[ebp]
  007a6	33 cd		 xor	 ecx, ebp
  007a8	e8 00 00 00 00	 call	 @__security_check_cookie@4
  007ad	8b e5		 mov	 esp, ebp
  007af	5d		 pop	 ebp
  007b0	c3		 ret	 0
_TEXT	ENDS
;	COMDAT text$x
text$x	SEGMENT
__unwindfunclet$?LoadInfo@CTabSignal@@EAEXXZ$0:
  00000	8d 8d d8 fe ff
	ff		 lea	 ecx, DWORD PTR _strCfgPath$[ebp]
  00006	ff 25 00 00 00
	00		 jmp	 DWORD PTR __imp_??1?$CStringT@DV?$StrTraitMFC_DLL@DV?$ChTraitsCRT@D@ATL@@@@@ATL@@QAE@XZ
__unwindfunclet$?LoadInfo@CTabSignal@@EAEXXZ$1:
  0000c	8d 8d dc fe ff
	ff		 lea	 ecx, DWORD PTR _strComment$2[ebp]
  00012	ff 25 00 00 00
	00		 jmp	 DWORD PTR __imp_??1?$CStringT@DV?$StrTraitMFC_DLL@DV?$ChTraitsCRT@D@ATL@@@@@ATL@@QAE@XZ
__unwindfunclet$?LoadInfo@CTabSignal@@EAEXXZ$2:
  00018	8d 8d e8 fe ff
	ff		 lea	 ecx, DWORD PTR _strItem$4[ebp]
  0001e	ff 25 00 00 00
	00		 jmp	 DWORD PTR __imp_??1?$CStringT@DV?$StrTraitMFC_DLL@DV?$ChTraitsCRT@D@ATL@@@@@ATL@@QAE@XZ
__unwindfunclet$?LoadInfo@CTabSignal@@EAEXXZ$3:
  00024	8d 8d e0 fe ff
	ff		 lea	 ecx, DWORD PTR $T3[ebp]
  0002a	ff 25 00 00 00
	00		 jmp	 DWORD PTR __imp_??1?$CStringT@DV?$StrTraitMFC_DLL@DV?$ChTraitsCRT@D@ATL@@@@@ATL@@QAE@XZ
  00030	cc		 int	 3
  00031	cc		 int	 3
  00032	cc		 int	 3
  00033	cc		 int	 3
  00034	cc		 int	 3
__ehhandler$?LoadInfo@CTabSignal@@EAEXXZ:
  00035	90		 npad	 1
  00036	90		 npad	 1
  00037	8b 54 24 08	 mov	 edx, DWORD PTR [esp+8]
  0003b	8d 42 0c	 lea	 eax, DWORD PTR [edx+12]
  0003e	8b 8a d4 fe ff
	ff		 mov	 ecx, DWORD PTR [edx-300]
  00044	33 c8		 xor	 ecx, eax
  00046	e8 00 00 00 00	 call	 @__security_check_cookie@4
  0004b	8b 4a fc	 mov	 ecx, DWORD PTR [edx-4]
  0004e	33 c8		 xor	 ecx, eax
  00050	e8 00 00 00 00	 call	 @__security_check_cookie@4
  00055	b8 00 00 00 00	 mov	 eax, OFFSET __ehfuncinfo$?LoadInfo@CTabSignal@@EAEXXZ
  0005a	e9 00 00 00 00	 jmp	 ___CxxFrameHandler3
text$x	ENDS
?LoadInfo@CTabSignal@@EAEXXZ ENDP			; CTabSignal::LoadInfo
; Function compile flags: /Ogtp
; File D:\git\src\IBK\IBK_DRFN\ProjSrc\SrcDrfn\Chart\STCONFIGUREDLG\TabSignal.cpp
; File C:\Program Files (x86)\Microsoft Visual Studio\2019\Community\VC\Tools\MSVC\14.29.30133\atlmfc\include\afxwin1.inl
; File D:\git\src\IBK\IBK_DRFN\ProjSrc\SrcDrfn\Chart\STCONFIGUREDLG\TabSignal.cpp
; File C:\Program Files (x86)\Microsoft Visual Studio\2019\Community\VC\Tools\MSVC\14.29.30133\atlmfc\include\afxwin1.inl
; File D:\git\src\IBK\IBK_DRFN\ProjSrc\SrcDrfn\Chart\STCONFIGUREDLG\TabSignal.cpp
; File C:\Program Files (x86)\Microsoft Visual Studio\2019\Community\VC\Tools\MSVC\14.29.30133\atlmfc\include\afxwin1.inl
; File C:\Program Files (x86)\Microsoft Visual Studio\2019\Community\VC\Tools\MSVC\14.29.30133\atlmfc\include\afxwin2.inl
; File D:\git\src\IBK\IBK_DRFN\ProjSrc\SrcDrfn\Chart\STCONFIGUREDLG\TabSignal.cpp
; File C:\Program Files (x86)\Microsoft Visual Studio\2019\Community\VC\Tools\MSVC\14.29.30133\atlmfc\include\afxwin2.inl
; File D:\git\src\IBK\IBK_DRFN\ProjSrc\SrcDrfn\Chart\STCONFIGUREDLG\TabSignal.cpp
; File C:\Program Files (x86)\Microsoft Visual Studio\2019\Community\VC\Tools\MSVC\14.29.30133\atlmfc\include\afxwin2.inl
; File D:\git\src\IBK\IBK_DRFN\ProjSrc\SrcDrfn\Chart\STCONFIGUREDLG\TabSignal.cpp
; File C:\Program Files (x86)\Microsoft Visual Studio\2019\Community\VC\Tools\MSVC\14.29.30133\atlmfc\include\afxwin2.inl
; File D:\git\src\IBK\IBK_DRFN\ProjSrc\SrcDrfn\Chart\STCONFIGUREDLG\TabSignal.cpp
;	COMDAT ?SetCBSignal@CTabSignal@@AAEXAAVCBitmapItemComboBox@@@Z
_TEXT	SEGMENT
_rCb$ = 8						; size = 4
?SetCBSignal@CTabSignal@@AAEXAAVCBitmapItemComboBox@@@Z PROC ; CTabSignal::SetCBSignal, COMDAT
; _this$ = ecx

; 98   : {

  00000	55		 push	 ebp
  00001	8b ec		 mov	 ebp, esp
  00003	53		 push	 ebx
  00004	56		 push	 esi
  00005	57		 push	 edi
; File C:\Program Files (x86)\Microsoft Visual Studio\2019\Community\VC\Tools\MSVC\14.29.30133\atlmfc\include\afxwin1.inl

; 212  : 	{ return Attach(::LoadBitmapW(AfxFindResourceHandle(

  00006	68 15 52 00 00	 push	 21013			; 00005215H
  0000b	6a 02		 push	 2
  0000d	68 15 52 00 00	 push	 21013			; 00005215H
  00012	e8 00 00 00 00	 call	 ?AfxFindResourceHandle@@YGPAUHINSTANCE__@@PBD0@Z ; AfxFindResourceHandle
  00017	50		 push	 eax
  00018	ff 15 00 00 00
	00		 call	 DWORD PTR __imp__LoadBitmapW@8
; File D:\git\src\IBK\IBK_DRFN\ProjSrc\SrcDrfn\Chart\STCONFIGUREDLG\TabSignal.cpp

; 99   : 	rCb.m_bitmap.LoadBitmap(IDB_SIGNAL);

  0001e	8b 7d 08	 mov	 edi, DWORD PTR _rCb$[ebp]
; File C:\Program Files (x86)\Microsoft Visual Studio\2019\Community\VC\Tools\MSVC\14.29.30133\atlmfc\include\afxwin1.inl

; 212  : 	{ return Attach(::LoadBitmapW(AfxFindResourceHandle(

  00021	50		 push	 eax
; File D:\git\src\IBK\IBK_DRFN\ProjSrc\SrcDrfn\Chart\STCONFIGUREDLG\TabSignal.cpp

; 99   : 	rCb.m_bitmap.LoadBitmap(IDB_SIGNAL);

  00022	8d 8f 80 00 00
	00		 lea	 ecx, DWORD PTR [edi+128]
; File C:\Program Files (x86)\Microsoft Visual Studio\2019\Community\VC\Tools\MSVC\14.29.30133\atlmfc\include\afxwin1.inl

; 212  : 	{ return Attach(::LoadBitmapW(AfxFindResourceHandle(

  00028	e8 00 00 00 00	 call	 ?Attach@CGdiObject@@QAEHPAX@Z ; CGdiObject::Attach
; File C:\Program Files (x86)\Microsoft Visual Studio\2019\Community\VC\Tools\MSVC\14.29.30133\atlmfc\include\afxwin2.inl

; 795  : 	{ ASSERT(::IsWindow(m_hWnd)); return (int)::SendMessage(m_hWnd, CB_ADDSTRING, 0, (LPARAM)lpszString); }

  0002d	8b 1d 00 00 00
	00		 mov	 ebx, DWORD PTR __imp__SendMessageA@16
  00033	68 00 00 00 00	 push	 OFFSET ??_C@_00CNPNBAHC@@
  00038	6a 00		 push	 0
  0003a	68 43 01 00 00	 push	 323			; 00000143H
  0003f	ff 77 20	 push	 DWORD PTR [edi+32]
  00042	ff d3		 call	 ebx
  00044	68 00 00 00 00	 push	 OFFSET ??_C@_00CNPNBAHC@@
  00049	6a 00		 push	 0
  0004b	68 43 01 00 00	 push	 323			; 00000143H
  00050	ff 77 20	 push	 DWORD PTR [edi+32]
  00053	ff d3		 call	 ebx
  00055	68 00 00 00 00	 push	 OFFSET ??_C@_00CNPNBAHC@@
  0005a	6a 00		 push	 0
  0005c	68 43 01 00 00	 push	 323			; 00000143H
  00061	ff 77 20	 push	 DWORD PTR [edi+32]
  00064	ff d3		 call	 ebx
  00066	68 00 00 00 00	 push	 OFFSET ??_C@_00CNPNBAHC@@
  0006b	6a 00		 push	 0
  0006d	68 43 01 00 00	 push	 323			; 00000143H
  00072	ff 77 20	 push	 DWORD PTR [edi+32]
  00075	ff d3		 call	 ebx

; 763  : 	{ ASSERT(::IsWindow(m_hWnd)); return (int)::SendMessage(m_hWnd, CB_GETCOUNT, 0, 0); }

  00077	6a 00		 push	 0
  00079	6a 00		 push	 0
  0007b	68 46 01 00 00	 push	 326			; 00000146H
  00080	ff 77 20	 push	 DWORD PTR [edi+32]
; File D:\git\src\IBK\IBK_DRFN\ProjSrc\SrcDrfn\Chart\STCONFIGUREDLG\TabSignal.cpp

; 104  : 	for (int i= -1 ;i < rCb.GetCount();i++) 

  00083	83 ce ff	 or	 esi, -1
; File C:\Program Files (x86)\Microsoft Visual Studio\2019\Community\VC\Tools\MSVC\14.29.30133\atlmfc\include\afxwin2.inl

; 763  : 	{ ASSERT(::IsWindow(m_hWnd)); return (int)::SendMessage(m_hWnd, CB_GETCOUNT, 0, 0); }

  00086	ff d3		 call	 ebx
; File D:\git\src\IBK\IBK_DRFN\ProjSrc\SrcDrfn\Chart\STCONFIGUREDLG\TabSignal.cpp

; 104  : 	for (int i= -1 ;i < rCb.GetCount();i++) 

  00088	3b c6		 cmp	 eax, esi
  0008a	7e 24		 jle	 SHORT $LN3@SetCBSigna
  0008c	0f 1f 40 00	 npad	 4
$LL4@SetCBSigna:
; File C:\Program Files (x86)\Microsoft Visual Studio\2019\Community\VC\Tools\MSVC\14.29.30133\atlmfc\include\afxwin2.inl

; 819  : 	{ ASSERT(::IsWindow(m_hWnd)); return (int)::SendMessage(m_hWnd, CB_SETITEMHEIGHT, nIndex, MAKELONG(cyItemHeight, 0)); }

  00090	6a 0e		 push	 14			; 0000000eH
  00092	56		 push	 esi
  00093	68 53 01 00 00	 push	 339			; 00000153H
  00098	ff 77 20	 push	 DWORD PTR [edi+32]
  0009b	ff d3		 call	 ebx

; 763  : 	{ ASSERT(::IsWindow(m_hWnd)); return (int)::SendMessage(m_hWnd, CB_GETCOUNT, 0, 0); }

  0009d	6a 00		 push	 0
  0009f	6a 00		 push	 0
  000a1	68 46 01 00 00	 push	 326			; 00000146H
  000a6	ff 77 20	 push	 DWORD PTR [edi+32]
; File D:\git\src\IBK\IBK_DRFN\ProjSrc\SrcDrfn\Chart\STCONFIGUREDLG\TabSignal.cpp

; 104  : 	for (int i= -1 ;i < rCb.GetCount();i++) 

  000a9	46		 inc	 esi
; File C:\Program Files (x86)\Microsoft Visual Studio\2019\Community\VC\Tools\MSVC\14.29.30133\atlmfc\include\afxwin2.inl

; 763  : 	{ ASSERT(::IsWindow(m_hWnd)); return (int)::SendMessage(m_hWnd, CB_GETCOUNT, 0, 0); }

  000aa	ff d3		 call	 ebx
; File D:\git\src\IBK\IBK_DRFN\ProjSrc\SrcDrfn\Chart\STCONFIGUREDLG\TabSignal.cpp

; 104  : 	for (int i= -1 ;i < rCb.GetCount();i++) 

  000ac	3b f0		 cmp	 esi, eax
  000ae	7c e0		 jl	 SHORT $LL4@SetCBSigna
$LN3@SetCBSigna:
  000b0	5f		 pop	 edi

; 105  : 		rCb.SetItemHeight(i, 14);	
; 106  : }

  000b1	5e		 pop	 esi
  000b2	5b		 pop	 ebx
  000b3	5d		 pop	 ebp
  000b4	c2 04 00	 ret	 4
?SetCBSignal@CTabSignal@@AAEXAAVCBitmapItemComboBox@@@Z ENDP ; CTabSignal::SetCBSignal
_TEXT	ENDS
; Function compile flags: /Ogtp
; File D:\git\src\IBK\IBK_DRFN\ProjSrc\SrcDrfn\Chart\STCONFIGUREDLG\TabSignal.cpp
;	COMDAT ?WindowProc@CTabSignal@@MAEJIIJ@Z
_TEXT	SEGMENT
_message$ = 8						; size = 4
_wParam$ = 12						; size = 4
_lParam$ = 16						; size = 4
?WindowProc@CTabSignal@@MAEJIIJ@Z PROC			; CTabSignal::WindowProc, COMDAT
; _this$ = ecx

; 144  : {

  00000	55		 push	 ebp
  00001	8b ec		 mov	 ebp, esp

; 145  : 	// TODO: Add your specialized code here and/or call the base class
; 146  : 	switch(message)

  00003	8b 45 08	 mov	 eax, DWORD PTR _message$[ebp]
  00006	56		 push	 esi
  00007	8b f1		 mov	 esi, ecx
  00009	2d 03 04 00 00	 sub	 eax, 1027		; 00000403H
  0000e	74 22		 je	 SHORT $LN4@WindowProc
  00010	83 e8 01	 sub	 eax, 1
  00013	75 08		 jne	 SHORT $LN2@WindowProc

; 151  : 		}		
; 152  : 		break;
; 153  : 	case UMSG_ST_REMOVE_ENV:
; 154  : 		{
; 155  : 			RemoveInfo();

  00015	8b 06		 mov	 eax, DWORD PTR [esi]
  00017	ff 90 9c 01 00
	00		 call	 DWORD PTR [eax+412]
$LN2@WindowProc:

; 156  : 		}
; 157  : 		break;
; 158  : 	}	
; 159  : 	return CRscDlg::WindowProc(message, wParam, lParam);

  0001d	ff 75 10	 push	 DWORD PTR _lParam$[ebp]
  00020	8b ce		 mov	 ecx, esi
  00022	ff 75 0c	 push	 DWORD PTR _wParam$[ebp]
  00025	ff 75 08	 push	 DWORD PTR _message$[ebp]
  00028	e8 00 00 00 00	 call	 ?WindowProc@CWnd@@MAEJIIJ@Z ; CWnd::WindowProc
  0002d	5e		 pop	 esi

; 160  : }

  0002e	5d		 pop	 ebp
  0002f	c2 0c 00	 ret	 12			; 0000000cH
$LN4@WindowProc:

; 147  : 	{
; 148  : 	case UMSG_ST_SAVE_ENV:
; 149  : 		{
; 150  : 			return SaveInfo();

  00032	8b 06		 mov	 eax, DWORD PTR [esi]
  00034	ff 90 98 01 00
	00		 call	 DWORD PTR [eax+408]
  0003a	5e		 pop	 esi

; 160  : }

  0003b	5d		 pop	 ebp
  0003c	c2 0c 00	 ret	 12			; 0000000cH
?WindowProc@CTabSignal@@MAEJIIJ@Z ENDP			; CTabSignal::WindowProc
_TEXT	ENDS
; Function compile flags: /Ogtp
; File D:\git\src\IBK\IBK_DRFN\ProjSrc\SrcDrfn\Chart\STCONFIGUREDLG\TabSignal.cpp
;	COMDAT ?DoDataExchange@CTabSignal@@MAEXPAVCDataExchange@@@Z
_TEXT	SEGMENT
_pDX$ = 8						; size = 4
?DoDataExchange@CTabSignal@@MAEXPAVCDataExchange@@@Z PROC ; CTabSignal::DoDataExchange, COMDAT
; _this$ = ecx

; 36   : {

  00000	55		 push	 ebp
  00001	8b ec		 mov	 ebp, esp
  00003	56		 push	 esi
  00004	57		 push	 edi

; 37   : 	CRscDlg::DoDataExchange(pDX);

  00005	8b 7d 08	 mov	 edi, DWORD PTR _pDX$[ebp]
  00008	8b f1		 mov	 esi, ecx
  0000a	57		 push	 edi
  0000b	e8 00 00 00 00	 call	 ?DoDataExchange@CRscDlg@@MAEXPAVCDataExchange@@@Z ; CRscDlg::DoDataExchange

; 38   : 	//{{AFX_DATA_MAP(CTabSignal)
; 39   : 	DDX_Control(pDX, IDC_CHK_SAVEASDEFAULT, m_chkSaveAsDefault);

  00010	8d 86 b0 00 00
	00		 lea	 eax, DWORD PTR [esi+176]
  00016	50		 push	 eax
  00017	68 27 52 00 00	 push	 21031			; 00005227H
  0001c	57		 push	 edi
  0001d	e8 00 00 00 00	 call	 ?DDX_Control@@YGXPAVCDataExchange@@HAAVCWnd@@@Z ; DDX_Control

; 40   : 	DDX_Control(pDX, IDC_CHK_SHOWQTY, m_chkShowQty);

  00022	8d 86 30 01 00
	00		 lea	 eax, DWORD PTR [esi+304]
  00028	50		 push	 eax
  00029	68 26 52 00 00	 push	 21030			; 00005226H
  0002e	57		 push	 edi
  0002f	e8 00 00 00 00	 call	 ?DDX_Control@@YGXPAVCDataExchange@@HAAVCWnd@@@Z ; DDX_Control

; 41   : 	DDX_Control(pDX, IDC_CHK_SHOWNAME, m_chkShowName);

  00034	8d 86 b0 01 00
	00		 lea	 eax, DWORD PTR [esi+432]
  0003a	50		 push	 eax
  0003b	68 25 52 00 00	 push	 21029			; 00005225H
  00040	57		 push	 edi
  00041	e8 00 00 00 00	 call	 ?DDX_Control@@YGXPAVCDataExchange@@HAAVCWnd@@@Z ; DDX_Control

; 42   : 	DDX_Control(pDX, IDC_CB_SELL, m_cbSell);

  00046	8d 86 30 02 00
	00		 lea	 eax, DWORD PTR [esi+560]
  0004c	50		 push	 eax
  0004d	68 1b 52 00 00	 push	 21019			; 0000521bH
  00052	57		 push	 edi
  00053	e8 00 00 00 00	 call	 ?DDX_Control@@YGXPAVCDataExchange@@HAAVCWnd@@@Z ; DDX_Control

; 43   : 	DDX_Control(pDX, IDC_CB_EXITSHORT, m_cbExitshort);

  00058	8d 86 b8 02 00
	00		 lea	 eax, DWORD PTR [esi+696]
  0005e	50		 push	 eax
  0005f	68 1c 52 00 00	 push	 21020			; 0000521cH
  00064	57		 push	 edi
  00065	e8 00 00 00 00	 call	 ?DDX_Control@@YGXPAVCDataExchange@@HAAVCWnd@@@Z ; DDX_Control

; 44   : 	DDX_Control(pDX, IDC_CB_EXITLONG, m_cbExitlong);

  0006a	8d 86 40 03 00
	00		 lea	 eax, DWORD PTR [esi+832]
  00070	50		 push	 eax
  00071	68 1a 52 00 00	 push	 21018			; 0000521aH
  00076	57		 push	 edi
  00077	e8 00 00 00 00	 call	 ?DDX_Control@@YGXPAVCDataExchange@@HAAVCWnd@@@Z ; DDX_Control

; 45   : 	DDX_Control(pDX, IDC_CB_BUY, m_cbBuy);

  0007c	8d 86 c8 03 00
	00		 lea	 eax, DWORD PTR [esi+968]
  00082	50		 push	 eax
  00083	68 19 52 00 00	 push	 21017			; 00005219H
  00088	57		 push	 edi
  00089	e8 00 00 00 00	 call	 ?DDX_Control@@YGXPAVCDataExchange@@HAAVCWnd@@@Z ; DDX_Control

; 46   : 	DDX_Control(pDX, IDC_BT_CLR_SELL, m_btnClrSell);

  0008e	8d 86 50 04 00
	00		 lea	 eax, DWORD PTR [esi+1104]
  00094	50		 push	 eax
  00095	68 1e 52 00 00	 push	 21022			; 0000521eH
  0009a	57		 push	 edi
  0009b	e8 00 00 00 00	 call	 ?DDX_Control@@YGXPAVCDataExchange@@HAAVCWnd@@@Z ; DDX_Control

; 47   : 	DDX_Control(pDX, IDC_BT_CLR_EXITSHORT, m_btnClrExitshort);

  000a0	8d 86 e0 04 00
	00		 lea	 eax, DWORD PTR [esi+1248]
  000a6	50		 push	 eax
  000a7	68 18 52 00 00	 push	 21016			; 00005218H
  000ac	57		 push	 edi
  000ad	e8 00 00 00 00	 call	 ?DDX_Control@@YGXPAVCDataExchange@@HAAVCWnd@@@Z ; DDX_Control

; 48   : 	DDX_Control(pDX, IDC_BT_CLR_EXITLONG, m_btnClrExitlong);

  000b2	8d 86 70 05 00
	00		 lea	 eax, DWORD PTR [esi+1392]
  000b8	50		 push	 eax
  000b9	68 1d 52 00 00	 push	 21021			; 0000521dH
  000be	57		 push	 edi
  000bf	e8 00 00 00 00	 call	 ?DDX_Control@@YGXPAVCDataExchange@@HAAVCWnd@@@Z ; DDX_Control

; 49   : 	DDX_Control(pDX, IDC_BT_CLR_BUY, m_btnClrBuy);

  000c4	8d 86 00 06 00
	00		 lea	 eax, DWORD PTR [esi+1536]
  000ca	50		 push	 eax
  000cb	68 10 52 00 00	 push	 21008			; 00005210H
  000d0	57		 push	 edi
  000d1	e8 00 00 00 00	 call	 ?DDX_Control@@YGXPAVCDataExchange@@HAAVCWnd@@@Z ; DDX_Control
  000d6	5f		 pop	 edi
  000d7	5e		 pop	 esi

; 50   : 	//}}AFX_DATA_MAP
; 51   : }

  000d8	5d		 pop	 ebp
  000d9	c2 04 00	 ret	 4
?DoDataExchange@CTabSignal@@MAEXPAVCDataExchange@@@Z ENDP ; CTabSignal::DoDataExchange
_TEXT	ENDS
; Function compile flags: /Ogtp
; File D:\git\src\IBK\IBK_DRFN\ProjSrc\SrcDrfn\Chart\STCONFIGUREDLG\TabSignal.cpp
; File C:\Program Files (x86)\Microsoft Visual Studio\2019\Community\VC\Tools\MSVC\14.29.30133\atlmfc\include\afxwin2.inl
; File C:\Program Files (x86)\Microsoft Visual Studio\2019\Community\VC\Tools\MSVC\14.29.30133\atlmfc\include\afxdlgs.h
; File D:\git\src\IBK\IBK_DRFN\ProjSrc\SrcDrfn\Chart\STCONFIGUREDLG\TabSignal.cpp
;	COMDAT ?OnBtnClr@CTabSignal@@QAEXAAVCColorButton@@@Z
_TEXT	SEGMENT
_color$ = -220						; size = 208
__$EHRec$ = -12						; size = 12
$T2 = 8							; size = 4
_rColorButton$ = 8					; size = 4
?OnBtnClr@CTabSignal@@QAEXAAVCColorButton@@@Z PROC	; CTabSignal::OnBtnClr, COMDAT
; _this$ = ecx

; 133  : {

  00000	55		 push	 ebp
  00001	8b ec		 mov	 ebp, esp
  00003	6a ff		 push	 -1
  00005	68 00 00 00 00	 push	 __ehhandler$?OnBtnClr@CTabSignal@@QAEXAAVCColorButton@@@Z
  0000a	64 a1 00 00 00
	00		 mov	 eax, DWORD PTR fs:0
  00010	50		 push	 eax
  00011	81 ec d0 00 00
	00		 sub	 esp, 208		; 000000d0H
  00017	56		 push	 esi
  00018	a1 00 00 00 00	 mov	 eax, DWORD PTR ___security_cookie
  0001d	33 c5		 xor	 eax, ebp
  0001f	50		 push	 eax
  00020	8d 45 f4	 lea	 eax, DWORD PTR __$EHRec$[ebp]
  00023	64 a3 00 00 00
	00		 mov	 DWORD PTR fs:0, eax

; 134  : 	COLORREF crColor = rColorButton.GetColor();

  00029	8b 75 08	 mov	 esi, DWORD PTR _rColorButton$[ebp]

; 135  : 	CColorDialog color(crColor, CC_FULLOPEN);

  0002c	8d 8d 24 ff ff
	ff		 lea	 ecx, DWORD PTR _color$[ebp]
  00032	6a 00		 push	 0
  00034	6a 02		 push	 2
  00036	ff b6 80 00 00
	00		 push	 DWORD PTR [esi+128]
  0003c	e8 00 00 00 00	 call	 ??0CColorDialog@@QAE@KKPAVCWnd@@@Z ; CColorDialog::CColorDialog

; 136  : 	if(color.DoModal() == IDOK) 

  00041	8d 8d 24 ff ff
	ff		 lea	 ecx, DWORD PTR _color$[ebp]
  00047	c7 45 fc 00 00
	00 00		 mov	 DWORD PTR __$EHRec$[ebp+8], 0
  0004e	e8 00 00 00 00	 call	 ?DoModal@CColorDialog@@UAEHXZ ; CColorDialog::DoModal
  00053	83 f8 01	 cmp	 eax, 1
  00056	75 1e		 jne	 SHORT $LN2@OnBtnClr

; 137  : 	{
; 138  : 		rColorButton.SetColor(color.GetColor());				

  00058	8b 45 d8	 mov	 eax, DWORD PTR _color$[ebp+180]
  0005b	8b ce		 mov	 ecx, esi
  0005d	89 45 08	 mov	 DWORD PTR $T2[ebp], eax
  00060	8d 45 08	 lea	 eax, DWORD PTR $T2[ebp]
  00063	50		 push	 eax
  00064	e8 00 00 00 00	 call	 ?SetColor@CColorButton@@QAEXABK@Z ; CColorButton::SetColor
; File C:\Program Files (x86)\Microsoft Visual Studio\2019\Community\VC\Tools\MSVC\14.29.30133\atlmfc\include\afxwin2.inl

; 114  : 	{ ASSERT(::IsWindow(m_hWnd)); ::InvalidateRect(m_hWnd, NULL, bErase); }

  00069	6a 01		 push	 1
  0006b	6a 00		 push	 0
  0006d	ff 76 20	 push	 DWORD PTR [esi+32]
  00070	ff 15 00 00 00
	00		 call	 DWORD PTR __imp__InvalidateRect@12
$LN2@OnBtnClr:
; File C:\Program Files (x86)\Microsoft Visual Studio\2019\Community\VC\Tools\MSVC\14.29.30133\atlmfc\include\afxdlgs.h

; 110  :     virtual ~CCommonDialog() {};

  00076	8d 8d 24 ff ff
	ff		 lea	 ecx, DWORD PTR _color$[ebp]
  0007c	c7 85 24 ff ff
	ff 00 00 00 00	 mov	 DWORD PTR _color$[ebp], OFFSET ??_7CCommonDialog@@6B@
  00086	e8 00 00 00 00	 call	 ??1CDialog@@UAE@XZ	; CDialog::~CDialog
; File D:\git\src\IBK\IBK_DRFN\ProjSrc\SrcDrfn\Chart\STCONFIGUREDLG\TabSignal.cpp

; 141  : }

  0008b	8b 4d f4	 mov	 ecx, DWORD PTR __$EHRec$[ebp]
  0008e	64 89 0d 00 00
	00 00		 mov	 DWORD PTR fs:0, ecx
  00095	59		 pop	 ecx
  00096	5e		 pop	 esi
  00097	8b e5		 mov	 esp, ebp
  00099	5d		 pop	 ebp
  0009a	c2 04 00	 ret	 4
_TEXT	ENDS
;	COMDAT text$x
text$x	SEGMENT
__unwindfunclet$?OnBtnClr@CTabSignal@@QAEXAAVCColorButton@@@Z$0:
  00000	8d 8d 24 ff ff
	ff		 lea	 ecx, DWORD PTR _color$[ebp]
  00006	e9 00 00 00 00	 jmp	 ??1CColorDialog@@UAE@XZ
  0000b	cc		 int	 3
  0000c	cc		 int	 3
  0000d	cc		 int	 3
  0000e	cc		 int	 3
  0000f	cc		 int	 3
__ehhandler$?OnBtnClr@CTabSignal@@QAEXAAVCColorButton@@@Z:
  00010	90		 npad	 1
  00011	90		 npad	 1
  00012	8b 54 24 08	 mov	 edx, DWORD PTR [esp+8]
  00016	8d 42 0c	 lea	 eax, DWORD PTR [edx+12]
  00019	8b 8a 28 ff ff
	ff		 mov	 ecx, DWORD PTR [edx-216]
  0001f	33 c8		 xor	 ecx, eax
  00021	e8 00 00 00 00	 call	 @__security_check_cookie@4
  00026	b8 00 00 00 00	 mov	 eax, OFFSET __ehfuncinfo$?OnBtnClr@CTabSignal@@QAEXAAVCColorButton@@@Z
  0002b	e9 00 00 00 00	 jmp	 ___CxxFrameHandler3
text$x	ENDS
?OnBtnClr@CTabSignal@@QAEXAAVCColorButton@@@Z ENDP	; CTabSignal::OnBtnClr
; Function compile flags: /Ogtp
; File D:\git\src\IBK\IBK_DRFN\ProjSrc\SrcDrfn\Chart\STCONFIGUREDLG\TabSignal.cpp
; File C:\Program Files (x86)\Microsoft Visual Studio\2019\Community\VC\Tools\MSVC\14.29.30133\atlmfc\include\afxwin2.inl
; File D:\git\src\IBK\IBK_DRFN\ProjSrc\SrcDrfn\Chart\STCONFIGUREDLG\TabSignal.cpp
; File C:\Program Files (x86)\Microsoft Visual Studio\2019\Community\VC\Tools\MSVC\14.29.30133\atlmfc\include\afxwin2.inl
; File D:\git\src\IBK\IBK_DRFN\ProjSrc\SrcDrfn\Chart\STCONFIGUREDLG\TabSignal.cpp
; File C:\Program Files (x86)\Microsoft Visual Studio\2019\Community\VC\Tools\MSVC\14.29.30133\atlmfc\include\afxwin2.inl
; File D:\git\src\IBK\IBK_DRFN\ProjSrc\SrcDrfn\Chart\STCONFIGUREDLG\TabSignal.cpp
; File C:\Program Files (x86)\Microsoft Visual Studio\2019\Community\VC\Tools\MSVC\14.29.30133\atlmfc\include\afxwin2.inl
; File D:\git\src\IBK\IBK_DRFN\ProjSrc\SrcDrfn\Chart\STCONFIGUREDLG\TabSignal.cpp
; File C:\Program Files (x86)\Microsoft Visual Studio\2019\Community\VC\Tools\MSVC\14.29.30133\atlmfc\include\afxwin2.inl
; File D:\git\src\IBK\IBK_DRFN\ProjSrc\SrcDrfn\Chart\STCONFIGUREDLG\TabSignal.cpp
; File C:\Program Files (x86)\Microsoft Visual Studio\2019\Community\VC\Tools\MSVC\14.29.30133\atlmfc\include\afxwin2.inl
; File D:\git\src\IBK\IBK_DRFN\ProjSrc\SrcDrfn\Chart\STCONFIGUREDLG\TabSignal.cpp
;	COMDAT ??0CTabSignal@@QAE@PAVCWnd@@@Z
_TEXT	SEGMENT
_this$ = -16						; size = 4
__$EHRec$ = -12						; size = 12
_this$ = 8						; size = 4
_this$ = 8						; size = 4
_this$ = 8						; size = 4
_pParent$ = 8						; size = 4
??0CTabSignal@@QAE@PAVCWnd@@@Z PROC			; CTabSignal::CTabSignal, COMDAT
; _this$ = ecx

; 23   : {

  00000	55		 push	 ebp
  00001	8b ec		 mov	 ebp, esp
  00003	6a ff		 push	 -1
  00005	68 00 00 00 00	 push	 __ehhandler$??0CTabSignal@@QAE@PAVCWnd@@@Z
  0000a	64 a1 00 00 00
	00		 mov	 eax, DWORD PTR fs:0
  00010	50		 push	 eax
  00011	51		 push	 ecx
  00012	53		 push	 ebx
  00013	56		 push	 esi
  00014	57		 push	 edi
  00015	a1 00 00 00 00	 mov	 eax, DWORD PTR ___security_cookie
  0001a	33 c5		 xor	 eax, ebp
  0001c	50		 push	 eax
  0001d	8d 45 f4	 lea	 eax, DWORD PTR __$EHRec$[ebp]
  00020	64 a3 00 00 00
	00		 mov	 DWORD PTR fs:0, eax
  00026	8b d9		 mov	 ebx, ecx
  00028	89 5d f0	 mov	 DWORD PTR _this$[ebp], ebx

; 22   : 	: CRscDlg(CTabSignal::IDD, pParent)

  0002b	8b 7d 08	 mov	 edi, DWORD PTR _pParent$[ebp]
  0002e	57		 push	 edi
  0002f	68 0b 52 00 00	 push	 21003			; 0000520bH
  00034	e8 00 00 00 00	 call	 ??0CRscDlg@@QAE@IPAVCWnd@@@Z ; CRscDlg::CRscDlg

; 23   : {

  00039	8d b3 b0 00 00
	00		 lea	 esi, DWORD PTR [ebx+176]
  0003f	c7 45 fc 00 00
	00 00		 mov	 DWORD PTR __$EHRec$[ebp+8], 0
; File C:\Program Files (x86)\Microsoft Visual Studio\2019\Community\VC\Tools\MSVC\14.29.30133\atlmfc\include\afxwin2.inl

; 622  : 	{ }

  00046	8b ce		 mov	 ecx, esi
; File D:\git\src\IBK\IBK_DRFN\ProjSrc\SrcDrfn\Chart\STCONFIGUREDLG\TabSignal.cpp

; 23   : {

  00048	c7 03 00 00 00
	00		 mov	 DWORD PTR [ebx], OFFSET ??_7CTabSignal@@6B@
  0004e	89 75 08	 mov	 DWORD PTR _this$[ebp], esi
; File C:\Program Files (x86)\Microsoft Visual Studio\2019\Community\VC\Tools\MSVC\14.29.30133\atlmfc\include\afxwin2.inl

; 622  : 	{ }

  00051	e8 00 00 00 00	 call	 ??0CWnd@@QAE@XZ		; CWnd::CWnd
  00056	c7 06 00 00 00
	00		 mov	 DWORD PTR [esi], OFFSET ??_7CButton@@6B@
; File D:\git\src\IBK\IBK_DRFN\ProjSrc\SrcDrfn\Chart\STCONFIGUREDLG\TabSignal.cpp

; 23   : {

  0005c	8d b3 30 01 00
	00		 lea	 esi, DWORD PTR [ebx+304]
  00062	c6 45 fc 01	 mov	 BYTE PTR __$EHRec$[ebp+8], 1
; File C:\Program Files (x86)\Microsoft Visual Studio\2019\Community\VC\Tools\MSVC\14.29.30133\atlmfc\include\afxwin2.inl

; 622  : 	{ }

  00066	8b ce		 mov	 ecx, esi
; File D:\git\src\IBK\IBK_DRFN\ProjSrc\SrcDrfn\Chart\STCONFIGUREDLG\TabSignal.cpp

; 23   : {

  00068	89 75 08	 mov	 DWORD PTR _this$[ebp], esi
; File C:\Program Files (x86)\Microsoft Visual Studio\2019\Community\VC\Tools\MSVC\14.29.30133\atlmfc\include\afxwin2.inl

; 622  : 	{ }

  0006b	e8 00 00 00 00	 call	 ??0CWnd@@QAE@XZ		; CWnd::CWnd
  00070	c7 06 00 00 00
	00		 mov	 DWORD PTR [esi], OFFSET ??_7CButton@@6B@
; File D:\git\src\IBK\IBK_DRFN\ProjSrc\SrcDrfn\Chart\STCONFIGUREDLG\TabSignal.cpp

; 23   : {

  00076	8d b3 b0 01 00
	00		 lea	 esi, DWORD PTR [ebx+432]
  0007c	c6 45 fc 02	 mov	 BYTE PTR __$EHRec$[ebp+8], 2
; File C:\Program Files (x86)\Microsoft Visual Studio\2019\Community\VC\Tools\MSVC\14.29.30133\atlmfc\include\afxwin2.inl

; 622  : 	{ }

  00080	8b ce		 mov	 ecx, esi
; File D:\git\src\IBK\IBK_DRFN\ProjSrc\SrcDrfn\Chart\STCONFIGUREDLG\TabSignal.cpp

; 23   : {

  00082	89 75 08	 mov	 DWORD PTR _this$[ebp], esi
; File C:\Program Files (x86)\Microsoft Visual Studio\2019\Community\VC\Tools\MSVC\14.29.30133\atlmfc\include\afxwin2.inl

; 622  : 	{ }

  00085	e8 00 00 00 00	 call	 ??0CWnd@@QAE@XZ		; CWnd::CWnd
  0008a	c7 06 00 00 00
	00		 mov	 DWORD PTR [esi], OFFSET ??_7CButton@@6B@
; File D:\git\src\IBK\IBK_DRFN\ProjSrc\SrcDrfn\Chart\STCONFIGUREDLG\TabSignal.cpp

; 23   : {

  00090	8d 8b 30 02 00
	00		 lea	 ecx, DWORD PTR [ebx+560]
  00096	c6 45 fc 03	 mov	 BYTE PTR __$EHRec$[ebp+8], 3
  0009a	e8 00 00 00 00	 call	 ??0CBitmapItemComboBox@@QAE@XZ ; CBitmapItemComboBox::CBitmapItemComboBox
  0009f	8d 8b b8 02 00
	00		 lea	 ecx, DWORD PTR [ebx+696]
  000a5	c6 45 fc 04	 mov	 BYTE PTR __$EHRec$[ebp+8], 4
  000a9	e8 00 00 00 00	 call	 ??0CBitmapItemComboBox@@QAE@XZ ; CBitmapItemComboBox::CBitmapItemComboBox
  000ae	8d 8b 40 03 00
	00		 lea	 ecx, DWORD PTR [ebx+832]
  000b4	c6 45 fc 05	 mov	 BYTE PTR __$EHRec$[ebp+8], 5
  000b8	e8 00 00 00 00	 call	 ??0CBitmapItemComboBox@@QAE@XZ ; CBitmapItemComboBox::CBitmapItemComboBox
  000bd	8d 8b c8 03 00
	00		 lea	 ecx, DWORD PTR [ebx+968]
  000c3	c6 45 fc 06	 mov	 BYTE PTR __$EHRec$[ebp+8], 6
  000c7	e8 00 00 00 00	 call	 ??0CBitmapItemComboBox@@QAE@XZ ; CBitmapItemComboBox::CBitmapItemComboBox
  000cc	8d 8b 50 04 00
	00		 lea	 ecx, DWORD PTR [ebx+1104]
  000d2	c6 45 fc 07	 mov	 BYTE PTR __$EHRec$[ebp+8], 7
  000d6	e8 00 00 00 00	 call	 ??0CColorButton@@QAE@XZ	; CColorButton::CColorButton
  000db	8d 8b e0 04 00
	00		 lea	 ecx, DWORD PTR [ebx+1248]
  000e1	c6 45 fc 08	 mov	 BYTE PTR __$EHRec$[ebp+8], 8
  000e5	e8 00 00 00 00	 call	 ??0CColorButton@@QAE@XZ	; CColorButton::CColorButton
  000ea	8d 8b 70 05 00
	00		 lea	 ecx, DWORD PTR [ebx+1392]
  000f0	c6 45 fc 09	 mov	 BYTE PTR __$EHRec$[ebp+8], 9
  000f4	e8 00 00 00 00	 call	 ??0CColorButton@@QAE@XZ	; CColorButton::CColorButton
  000f9	8d 8b 00 06 00
	00		 lea	 ecx, DWORD PTR [ebx+1536]
  000ff	c6 45 fc 0a	 mov	 BYTE PTR __$EHRec$[ebp+8], 10 ; 0000000aH
  00103	e8 00 00 00 00	 call	 ??0CColorButton@@QAE@XZ	; CColorButton::CColorButton

; 24   : 	//{{AFX_DATA_INIT(CTabSignal)
; 25   : 		// NOTE: the ClassWizard will add member initialization here
; 26   : 	//}}AFX_DATA_INIT
; 27   : 	m_bUseBuy = FALSE;

  00108	c7 83 90 06 00
	00 00 00 00 00	 mov	 DWORD PTR [ebx+1680], 0

; 28   : 	m_bUseSell = FALSE;
; 29   : 	m_bUseExitlong = FALSE;
; 30   : 	m_bUseExitshort = FALSE;
; 31   : 	m_pDlgSTOption = pParent;
; 32   : }

  00112	8b c3		 mov	 eax, ebx
  00114	c7 83 94 06 00
	00 00 00 00 00	 mov	 DWORD PTR [ebx+1684], 0
  0011e	c7 83 98 06 00
	00 00 00 00 00	 mov	 DWORD PTR [ebx+1688], 0
  00128	c7 83 9c 06 00
	00 00 00 00 00	 mov	 DWORD PTR [ebx+1692], 0
  00132	89 bb a8 06 00
	00		 mov	 DWORD PTR [ebx+1704], edi
  00138	8b 4d f4	 mov	 ecx, DWORD PTR __$EHRec$[ebp]
  0013b	64 89 0d 00 00
	00 00		 mov	 DWORD PTR fs:0, ecx
  00142	59		 pop	 ecx
  00143	5f		 pop	 edi
  00144	5e		 pop	 esi
  00145	5b		 pop	 ebx
  00146	8b e5		 mov	 esp, ebp
  00148	5d		 pop	 ebp
  00149	c2 04 00	 ret	 4
_TEXT	ENDS
;	COMDAT text$x
text$x	SEGMENT
__unwindfunclet$??0CTabSignal@@QAE@PAVCWnd@@@Z$0:
  00000	8b 4d f0	 mov	 ecx, DWORD PTR _this$[ebp]
  00003	e9 00 00 00 00	 jmp	 ??1CRscDlg@@UAE@XZ
__unwindfunclet$??0CTabSignal@@QAE@PAVCWnd@@@Z$1:
  00008	8b 4d f0	 mov	 ecx, DWORD PTR _this$[ebp]
  0000b	81 c1 b0 00 00
	00		 add	 ecx, 176		; 000000b0H
  00011	e9 00 00 00 00	 jmp	 ??1CButton@@UAE@XZ	; CButton::~CButton
__unwindfunclet$??0CTabSignal@@QAE@PAVCWnd@@@Z$2:
  00016	8b 4d f0	 mov	 ecx, DWORD PTR _this$[ebp]
  00019	81 c1 30 01 00
	00		 add	 ecx, 304		; 00000130H
  0001f	e9 00 00 00 00	 jmp	 ??1CButton@@UAE@XZ	; CButton::~CButton
__unwindfunclet$??0CTabSignal@@QAE@PAVCWnd@@@Z$3:
  00024	8b 4d f0	 mov	 ecx, DWORD PTR _this$[ebp]
  00027	81 c1 b0 01 00
	00		 add	 ecx, 432		; 000001b0H
  0002d	e9 00 00 00 00	 jmp	 ??1CButton@@UAE@XZ	; CButton::~CButton
__unwindfunclet$??0CTabSignal@@QAE@PAVCWnd@@@Z$4:
  00032	8b 4d f0	 mov	 ecx, DWORD PTR _this$[ebp]
  00035	81 c1 30 02 00
	00		 add	 ecx, 560		; 00000230H
  0003b	e9 00 00 00 00	 jmp	 ??1CBitmapItemComboBox@@UAE@XZ ; CBitmapItemComboBox::~CBitmapItemComboBox
__unwindfunclet$??0CTabSignal@@QAE@PAVCWnd@@@Z$5:
  00040	8b 4d f0	 mov	 ecx, DWORD PTR _this$[ebp]
  00043	81 c1 b8 02 00
	00		 add	 ecx, 696		; 000002b8H
  00049	e9 00 00 00 00	 jmp	 ??1CBitmapItemComboBox@@UAE@XZ ; CBitmapItemComboBox::~CBitmapItemComboBox
__unwindfunclet$??0CTabSignal@@QAE@PAVCWnd@@@Z$6:
  0004e	8b 4d f0	 mov	 ecx, DWORD PTR _this$[ebp]
  00051	81 c1 40 03 00
	00		 add	 ecx, 832		; 00000340H
  00057	e9 00 00 00 00	 jmp	 ??1CBitmapItemComboBox@@UAE@XZ ; CBitmapItemComboBox::~CBitmapItemComboBox
__unwindfunclet$??0CTabSignal@@QAE@PAVCWnd@@@Z$7:
  0005c	8b 4d f0	 mov	 ecx, DWORD PTR _this$[ebp]
  0005f	81 c1 c8 03 00
	00		 add	 ecx, 968		; 000003c8H
  00065	e9 00 00 00 00	 jmp	 ??1CBitmapItemComboBox@@UAE@XZ ; CBitmapItemComboBox::~CBitmapItemComboBox
__unwindfunclet$??0CTabSignal@@QAE@PAVCWnd@@@Z$8:
  0006a	8b 4d f0	 mov	 ecx, DWORD PTR _this$[ebp]
  0006d	81 c1 50 04 00
	00		 add	 ecx, 1104		; 00000450H
  00073	e9 00 00 00 00	 jmp	 ??1CColorButton@@UAE@XZ	; CColorButton::~CColorButton
__unwindfunclet$??0CTabSignal@@QAE@PAVCWnd@@@Z$9:
  00078	8b 4d f0	 mov	 ecx, DWORD PTR _this$[ebp]
  0007b	81 c1 e0 04 00
	00		 add	 ecx, 1248		; 000004e0H
  00081	e9 00 00 00 00	 jmp	 ??1CColorButton@@UAE@XZ	; CColorButton::~CColorButton
__unwindfunclet$??0CTabSignal@@QAE@PAVCWnd@@@Z$10:
  00086	8b 4d f0	 mov	 ecx, DWORD PTR _this$[ebp]
  00089	81 c1 70 05 00
	00		 add	 ecx, 1392		; 00000570H
  0008f	e9 00 00 00 00	 jmp	 ??1CColorButton@@UAE@XZ	; CColorButton::~CColorButton
  00094	cc		 int	 3
  00095	cc		 int	 3
  00096	cc		 int	 3
  00097	cc		 int	 3
  00098	cc		 int	 3
__ehhandler$??0CTabSignal@@QAE@PAVCWnd@@@Z:
  00099	90		 npad	 1
  0009a	90		 npad	 1
  0009b	8b 54 24 08	 mov	 edx, DWORD PTR [esp+8]
  0009f	8d 42 0c	 lea	 eax, DWORD PTR [edx+12]
  000a2	8b 4a ec	 mov	 ecx, DWORD PTR [edx-20]
  000a5	33 c8		 xor	 ecx, eax
  000a7	e8 00 00 00 00	 call	 @__security_check_cookie@4
  000ac	b8 00 00 00 00	 mov	 eax, OFFSET __ehfuncinfo$??0CTabSignal@@QAE@PAVCWnd@@@Z
  000b1	e9 00 00 00 00	 jmp	 ___CxxFrameHandler3
text$x	ENDS
??0CTabSignal@@QAE@PAVCWnd@@@Z ENDP			; CTabSignal::CTabSignal
; Function compile flags: /Ogtp
;	COMDAT ??1CRscDlg@@UAE@XZ
_TEXT	SEGMENT
??1CRscDlg@@UAE@XZ PROC					; CRscDlg::~CRscDlg, COMDAT
; _this$ = ecx
  00000	56		 push	 esi
  00001	8b f1		 mov	 esi, ecx
  00003	8d 8e ac 00 00
	00		 lea	 ecx, DWORD PTR [esi+172]
  00009	ff 15 00 00 00
	00		 call	 DWORD PTR __imp_??1?$CStringT@DV?$StrTraitMFC_DLL@DV?$ChTraitsCRT@D@ATL@@@@@ATL@@QAE@XZ
  0000f	8d 8e a8 00 00
	00		 lea	 ecx, DWORD PTR [esi+168]
  00015	ff 15 00 00 00
	00		 call	 DWORD PTR __imp_??1?$CStringT@DV?$StrTraitMFC_DLL@DV?$ChTraitsCRT@D@ATL@@@@@ATL@@QAE@XZ
  0001b	8b ce		 mov	 ecx, esi
  0001d	5e		 pop	 esi
  0001e	e9 00 00 00 00	 jmp	 ??1CDialog@@UAE@XZ	; CDialog::~CDialog
??1CRscDlg@@UAE@XZ ENDP					; CRscDlg::~CRscDlg
_TEXT	ENDS
; Function compile flags: /Ogtp
; File D:\git\src\IBK\IBK_DRFN\ProjSrc\SrcDrfn\Chart\STCONFIGUREDLG\RscDlg.h
;	COMDAT ?SetDefault@CRscDlg@@UAEXXZ
_TEXT	SEGMENT
?SetDefault@CRscDlg@@UAEXXZ PROC			; CRscDlg::SetDefault, COMDAT
; _this$ = ecx

; 49   : 	virtual void SetDefault()	{}

  00000	c2 00 00	 ret	 0
?SetDefault@CRscDlg@@UAEXXZ ENDP			; CRscDlg::SetDefault
_TEXT	ENDS
; Function compile flags: /Ogtp
; File D:\git\src\IBK\IBK_DRFN\ProjSrc\SrcDrfn\Chart\STCONFIGUREDLG\RscDlg.h
;	COMDAT ?PreTranslateMessage@CRscDlg@@MAEHPAUtagMSG@@@Z
_TEXT	SEGMENT
_pMsg$ = 8						; size = 4
?PreTranslateMessage@CRscDlg@@MAEHPAUtagMSG@@@Z PROC	; CRscDlg::PreTranslateMessage, COMDAT
; _this$ = ecx

; 60   : {

  00000	55		 push	 ebp
  00001	8b ec		 mov	 ebp, esp
  00003	56		 push	 esi

; 61   : 	//     		by KHD
; 62   : 	
; 63   : 	if(pMsg->message == WM_KEYDOWN)   

  00004	8b 75 08	 mov	 esi, DWORD PTR _pMsg$[ebp]
  00007	57		 push	 edi
  00008	8b f9		 mov	 edi, ecx
  0000a	81 7e 04 00 01
	00 00		 cmp	 DWORD PTR [esi+4], 256	; 00000100H
  00011	75 49		 jne	 SHORT $LN5@PreTransla

; 64   : 	{
; 65   : 		if(pMsg->wParam == VK_F4 && (::GetKeyState(VK_CONTROL) & 0x8000))

  00013	83 7e 08 73	 cmp	 DWORD PTR [esi+8], 115	; 00000073H
  00017	75 36		 jne	 SHORT $LN14@PreTransla
  00019	6a 11		 push	 17			; 00000011H
  0001b	ff 15 00 00 00
	00		 call	 DWORD PTR __imp__GetKeyState@4
  00021	66 0f ba e0 0f	 bt	 ax, 15			; 0000000fH
  00026	73 27		 jae	 SHORT $LN14@PreTransla

; 66   : 		{
; 67   : 			
; 68   : 			pMsg->wParam = VK_ESCAPE;

  00028	c7 46 08 1b 00
	00 00		 mov	 DWORD PTR [esi+8], 27	; 0000001bH
$LN15@PreTransla:

; 81   : }

  0002f	ff 77 20	 push	 DWORD PTR [edi+32]
  00032	ff 15 00 00 00
	00		 call	 DWORD PTR __imp__GetParent@4
  00038	50		 push	 eax
  00039	e8 00 00 00 00	 call	 ?FromHandle@CWnd@@SGPAV1@PAUHWND__@@@Z ; CWnd::FromHandle
  0003e	56		 push	 esi
  0003f	8b c8		 mov	 ecx, eax
  00041	8b 10		 mov	 edx, DWORD PTR [eax]
  00043	ff 92 14 01 00
	00		 call	 DWORD PTR [edx+276]
  00049	5f		 pop	 edi
  0004a	5e		 pop	 esi
  0004b	5d		 pop	 ebp
  0004c	c2 04 00	 ret	 4
$LN14@PreTransla:

; 69   : 			return GetParent()->PreTranslateMessage(pMsg);
; 70   : 		}
; 71   : 		if(pMsg->wParam == VK_ESCAPE)

  0004f	8b 46 08	 mov	 eax, DWORD PTR [esi+8]
  00052	83 f8 1b	 cmp	 eax, 27			; 0000001bH
  00055	74 d8		 je	 SHORT $LN15@PreTransla

; 72   : 		{
; 73   : 			return GetParent()->PreTranslateMessage(pMsg);
; 74   : 		}
; 75   : 		if(pMsg->wParam == VK_RETURN)

  00057	83 f8 0d	 cmp	 eax, 13			; 0000000dH
  0005a	74 d3		 je	 SHORT $LN15@PreTransla
$LN5@PreTransla:

; 76   : 			return GetParent()->PreTranslateMessage(pMsg);
; 77   : 
; 78   : 	}
; 79   : 
; 80   : 	return CDialog::PreTranslateMessage(pMsg);

  0005c	56		 push	 esi
  0005d	8b cf		 mov	 ecx, edi
  0005f	e8 00 00 00 00	 call	 ?PreTranslateMessage@CDialog@@UAEHPAUtagMSG@@@Z ; CDialog::PreTranslateMessage
  00064	5f		 pop	 edi

; 81   : }

  00065	5e		 pop	 esi
  00066	5d		 pop	 ebp
  00067	c2 04 00	 ret	 4
?PreTranslateMessage@CRscDlg@@MAEHPAUtagMSG@@@Z ENDP	; CRscDlg::PreTranslateMessage
_TEXT	ENDS
; Function compile flags: /Ogtp
; File C:\Program Files (x86)\Microsoft Visual Studio\2019\Community\VC\Tools\MSVC\14.29.30133\atlmfc\include\afxdlgs.h
;	COMDAT ??1CColorDialog@@UAE@XZ
_TEXT	SEGMENT
??1CColorDialog@@UAE@XZ PROC				; CColorDialog::~CColorDialog, COMDAT
; _this$ = ecx

; 110  :     virtual ~CCommonDialog() {};

  00000	c7 01 00 00 00
	00		 mov	 DWORD PTR [ecx], OFFSET ??_7CCommonDialog@@6B@
  00006	e9 00 00 00 00	 jmp	 ??1CDialog@@UAE@XZ	; CDialog::~CDialog
??1CColorDialog@@UAE@XZ ENDP				; CColorDialog::~CColorDialog
_TEXT	ENDS
; Function compile flags: /Ogtp
; File C:\Program Files (x86)\Microsoft Visual Studio\2019\Community\VC\Tools\MSVC\14.29.30133\atlmfc\include\afxdlgs.h
; File C:\Program Files (x86)\Microsoft Visual Studio\2019\Community\VC\Tools\MSVC\14.29.30133\atlmfc\include\afx.inl
;	COMDAT ??_GCCommonDialog@@UAEPAXI@Z
_TEXT	SEGMENT
___flags$ = 8						; size = 4
??_GCCommonDialog@@UAEPAXI@Z PROC			; CCommonDialog::`scalar deleting destructor', COMDAT
; _this$ = ecx
  00000	55		 push	 ebp
  00001	8b ec		 mov	 ebp, esp
; File C:\Program Files (x86)\Microsoft Visual Studio\2019\Community\VC\Tools\MSVC\14.29.30133\atlmfc\include\afxdlgs.h

; 110  :     virtual ~CCommonDialog() {};

  00003	56		 push	 esi
  00004	8b f1		 mov	 esi, ecx
  00006	c7 06 00 00 00
	00		 mov	 DWORD PTR [esi], OFFSET ??_7CCommonDialog@@6B@
  0000c	e8 00 00 00 00	 call	 ??1CDialog@@UAE@XZ	; CDialog::~CDialog
  00011	8b 45 08	 mov	 eax, DWORD PTR ___flags$[ebp]
  00014	a8 01		 test	 al, 1
  00016	74 22		 je	 SHORT $LN12@scalar
  00018	a8 04		 test	 al, 4
  0001a	75 10		 jne	 SHORT $LN3@scalar
; File C:\Program Files (x86)\Microsoft Visual Studio\2019\Community\VC\Tools\MSVC\14.29.30133\atlmfc\include\afx.inl

; 112  : 	{ ::operator delete(p); }

  0001c	56		 push	 esi
  0001d	e8 00 00 00 00	 call	 ??3@YAXPAX@Z		; operator delete
  00022	83 c4 04	 add	 esp, 4
  00025	8b c6		 mov	 eax, esi
  00027	5e		 pop	 esi
  00028	5d		 pop	 ebp
  00029	c2 04 00	 ret	 4
$LN3@scalar:
  0002c	68 a8 00 00 00	 push	 168			; 000000a8H
  00031	56		 push	 esi
  00032	e8 00 00 00 00	 call	 ?__global_delete@@YAXPAXI@Z ; __global_delete
  00037	83 c4 08	 add	 esp, 8
$LN12@scalar:
  0003a	8b c6		 mov	 eax, esi
  0003c	5e		 pop	 esi
  0003d	5d		 pop	 ebp
  0003e	c2 04 00	 ret	 4
??_GCCommonDialog@@UAEPAXI@Z ENDP			; CCommonDialog::`scalar deleting destructor'
_TEXT	ENDS
; Function compile flags: /Ogtp
; File C:\Program Files (x86)\Microsoft Visual Studio\2019\Community\VC\Tools\MSVC\14.29.30133\atlmfc\include\afxdlgs.h
;	COMDAT ??1CCommonDialog@@UAE@XZ
_TEXT	SEGMENT
??1CCommonDialog@@UAE@XZ PROC				; CCommonDialog::~CCommonDialog, COMDAT
; _this$ = ecx

; 110  :     virtual ~CCommonDialog() {};

  00000	c7 01 00 00 00
	00		 mov	 DWORD PTR [ecx], OFFSET ??_7CCommonDialog@@6B@
  00006	e9 00 00 00 00	 jmp	 ??1CDialog@@UAE@XZ	; CDialog::~CDialog
??1CCommonDialog@@UAE@XZ ENDP				; CCommonDialog::~CCommonDialog
_TEXT	ENDS
; Function compile flags: /Ogtp
; File C:\Program Files (x86)\Microsoft Visual Studio\2019\Community\VC\Tools\MSVC\14.29.30133\atlmfc\include\afx.inl
;	COMDAT ??_GCButton@@UAEPAXI@Z
_TEXT	SEGMENT
___flags$ = 8						; size = 4
??_GCButton@@UAEPAXI@Z PROC				; CButton::`scalar deleting destructor', COMDAT
; _this$ = ecx
  00000	55		 push	 ebp
  00001	8b ec		 mov	 ebp, esp
  00003	56		 push	 esi
  00004	8b f1		 mov	 esi, ecx
  00006	e8 00 00 00 00	 call	 ??1CButton@@UAE@XZ	; CButton::~CButton
  0000b	8b 45 08	 mov	 eax, DWORD PTR ___flags$[ebp]
  0000e	a8 01		 test	 al, 1
  00010	74 22		 je	 SHORT $LN9@scalar
  00012	a8 04		 test	 al, 4
  00014	75 10		 jne	 SHORT $LN3@scalar

; 112  : 	{ ::operator delete(p); }

  00016	56		 push	 esi
  00017	e8 00 00 00 00	 call	 ??3@YAXPAX@Z		; operator delete
  0001c	83 c4 04	 add	 esp, 4
  0001f	8b c6		 mov	 eax, esi
  00021	5e		 pop	 esi
  00022	5d		 pop	 ebp
  00023	c2 04 00	 ret	 4
$LN3@scalar:
  00026	68 80 00 00 00	 push	 128			; 00000080H
  0002b	56		 push	 esi
  0002c	e8 00 00 00 00	 call	 ?__global_delete@@YAXPAXI@Z ; __global_delete
  00031	83 c4 08	 add	 esp, 8
$LN9@scalar:
  00034	8b c6		 mov	 eax, esi
  00036	5e		 pop	 esi
  00037	5d		 pop	 ebp
  00038	c2 04 00	 ret	 4
??_GCButton@@UAEPAXI@Z ENDP				; CButton::`scalar deleting destructor'
_TEXT	ENDS
; Function compile flags: /Ogtp
; File C:\Program Files (x86)\Microsoft Visual Studio\2019\Community\VC\Tools\MSVC\14.29.30133\atlmfc\include\afxwin2.inl
;	COMDAT ?Create@CDialog@@UAEHIPAVCWnd@@@Z
_TEXT	SEGMENT
_nIDTemplate$ = 8					; size = 4
_pParentWnd$ = 12					; size = 4
?Create@CDialog@@UAEHIPAVCWnd@@@Z PROC			; CDialog::Create, COMDAT
; _this$ = ecx

; 585  : 	{ return CDialog::Create(ATL_MAKEINTRESOURCE(nIDTemplate), pParentWnd); }

  00000	55		 push	 ebp
  00001	8b ec		 mov	 ebp, esp
  00003	0f b7 45 08	 movzx	 eax, WORD PTR _nIDTemplate$[ebp]
  00007	89 45 08	 mov	 DWORD PTR _nIDTemplate$[ebp], eax
  0000a	5d		 pop	 ebp
  0000b	e9 00 00 00 00	 jmp	 ?Create@CDialog@@UAEHPBDPAVCWnd@@@Z ; CDialog::Create
?Create@CDialog@@UAEHIPAVCWnd@@@Z ENDP			; CDialog::Create
_TEXT	ENDS
; Function compile flags: /Ogtp
; File C:\Program Files (x86)\Microsoft Visual Studio\2019\Community\VC\Tools\MSVC\14.29.30133\atlmfc\include\afxwin2.inl
;	COMDAT ?EndModalState@CWnd@@UAEXXZ
_TEXT	SEGMENT
?EndModalState@CWnd@@UAEXXZ PROC			; CWnd::EndModalState, COMDAT
; _this$ = ecx

; 567  : 	{ ::EnableWindow(m_hWnd, TRUE); }

  00000	6a 01		 push	 1
  00002	ff 71 20	 push	 DWORD PTR [ecx+32]
  00005	ff 15 00 00 00
	00		 call	 DWORD PTR __imp__EnableWindow@8
  0000b	c3		 ret	 0
?EndModalState@CWnd@@UAEXXZ ENDP			; CWnd::EndModalState
_TEXT	ENDS
; Function compile flags: /Ogtp
; File C:\Program Files (x86)\Microsoft Visual Studio\2019\Community\VC\Tools\MSVC\14.29.30133\atlmfc\include\afxwin2.inl
;	COMDAT ?BeginModalState@CWnd@@UAEXXZ
_TEXT	SEGMENT
?BeginModalState@CWnd@@UAEXXZ PROC			; CWnd::BeginModalState, COMDAT
; _this$ = ecx

; 565  : 	{ ::EnableWindow(m_hWnd, FALSE); }

  00000	6a 00		 push	 0
  00002	ff 71 20	 push	 DWORD PTR [ecx+32]
  00005	ff 15 00 00 00
	00		 call	 DWORD PTR __imp__EnableWindow@8
  0000b	c3		 ret	 0
?BeginModalState@CWnd@@UAEXXZ ENDP			; CWnd::BeginModalState
_TEXT	ENDS
; Function compile flags: /Ogtp
; File C:\Program Files (x86)\Microsoft Visual Studio\2019\Community\VC\Tools\MSVC\14.29.30133\atlmfc\include\afxwin2.inl
;	COMDAT ?DoDataExchange@CWnd@@MAEXPAVCDataExchange@@@Z
_TEXT	SEGMENT
___formal$ = 8						; size = 4
?DoDataExchange@CWnd@@MAEXPAVCDataExchange@@@Z PROC	; CWnd::DoDataExchange, COMDAT
; _this$ = ecx

; 561  : 	{ } // default does nothing

  00000	c2 04 00	 ret	 4
?DoDataExchange@CWnd@@MAEXPAVCDataExchange@@@Z ENDP	; CWnd::DoDataExchange
_TEXT	ENDS
; Function compile flags: /Ogtp
; File C:\Program Files (x86)\Microsoft Visual Studio\2019\Community\VC\Tools\MSVC\14.29.30133\atlmfc\include\afx.inl
;	COMDAT ?Dump@CObject@@UBEXAAVCDumpContext@@@Z
_TEXT	SEGMENT
___formal$ = 8						; size = 4
?Dump@CObject@@UBEXAAVCDumpContext@@@Z PROC		; CObject::Dump, COMDAT
; _this$ = ecx

; 122  : 	{ /* no dumping in release builds */ }

  00000	c2 04 00	 ret	 4
?Dump@CObject@@UBEXAAVCDumpContext@@@Z ENDP		; CObject::Dump
_TEXT	ENDS
; Function compile flags: /Ogtp
; File C:\Program Files (x86)\Microsoft Visual Studio\2019\Community\VC\Tools\MSVC\14.29.30133\atlmfc\include\afx.inl
;	COMDAT ?AssertValid@CObject@@UBEXXZ
_TEXT	SEGMENT
?AssertValid@CObject@@UBEXXZ PROC			; CObject::AssertValid, COMDAT
; _this$ = ecx

; 120  : 	{ /* no asserts in release builds */ }

  00000	c2 00 00	 ret	 0
?AssertValid@CObject@@UBEXXZ ENDP			; CObject::AssertValid
_TEXT	ENDS
; Function compile flags: /Ogtp
; File C:\Program Files (x86)\Microsoft Visual Studio\2019\Community\VC\Tools\MSVC\14.29.30133\atlmfc\include\afx.inl
;	COMDAT ?Serialize@CObject@@UAEXAAVCArchive@@@Z
_TEXT	SEGMENT
___formal$ = 8						; size = 4
?Serialize@CObject@@UAEXAAVCArchive@@@Z PROC		; CObject::Serialize, COMDAT
; _this$ = ecx

; 106  : 	{ /* CObject does not serialize anything by default */ }

  00000	c2 04 00	 ret	 4
?Serialize@CObject@@UAEXAAVCArchive@@@Z ENDP		; CObject::Serialize
_TEXT	ENDS
; Function compile flags: /Ogtp
; File D:\git\src\IBK\IBK_DRFN\ProjSrc\SrcDrfn\Chart\STCONFIGUREDLG\TabSignal.cpp
;	COMDAT ?__empty_global_delete@@YAXPAXI@Z
_TEXT	SEGMENT
___formal$ = 8						; size = 4
___formal$ = 12						; size = 4
?__empty_global_delete@@YAXPAXI@Z PROC			; __empty_global_delete, COMDAT

  00000	c2 00 00	 ret	 0
?__empty_global_delete@@YAXPAXI@Z ENDP			; __empty_global_delete
_TEXT	ENDS
; Function compile flags: /Ogtp
; File D:\git\src\IBK\IBK_DRFN\ProjSrc\SrcDrfn\Chart\STCONFIGUREDLG\TabSignal.cpp
;	COMDAT ?__empty_global_delete@@YAXPAX@Z
_TEXT	SEGMENT
___formal$ = 8						; size = 4
?__empty_global_delete@@YAXPAX@Z PROC			; __empty_global_delete, COMDAT

  00000	c2 00 00	 ret	 0
?__empty_global_delete@@YAXPAX@Z ENDP			; __empty_global_delete
_TEXT	ENDS
END
