; Listing generated by Microsoft (R) Optimizing Compiler Version 19.29.30145.0 

	TITLE	D:\git\src\IBK\IBK_DRFN\#DRfn-CS\_Obj\STConfigureDlg\TabVariables.obj
	.686P
	.XMM
	include listing.inc
	.model	flat

INCLUDELIB MSVCRT
INCLUDELIB OLDNAMES

PUBLIC	?__empty_global_delete@@YAXPAX@Z		; __empty_global_delete
PUBLIC	?__empty_global_delete@@YAXPAXI@Z		; __empty_global_delete
PUBLIC	?Serialize@CObject@@UAEXAAVCArchive@@@Z		; CObject::Serialize
PUBLIC	?AssertValid@CObject@@UBEXXZ			; CObject::AssertValid
PUBLIC	?Dump@CObject@@UBEXAAVCDumpContext@@@Z		; CObject::Dump
PUBLIC	?DoDataExchange@CWnd@@MAEXPAVCDataExchange@@@Z	; CWnd::DoDataExchange
PUBLIC	?BeginModalState@CWnd@@UAEXXZ			; CWnd::BeginModalState
PUBLIC	?EndModalState@CWnd@@UAEXXZ			; CWnd::EndModalState
PUBLIC	??_GCButton@@UAEPAXI@Z				; CButton::`scalar deleting destructor'
PUBLIC	?PreTranslateMessage@CRscDlg@@MAEHPAUtagMSG@@@Z	; CRscDlg::PreTranslateMessage
PUBLIC	?SetDefault@CRscDlg@@UAEXXZ			; CRscDlg::SetDefault
PUBLIC	??1CRscDlg@@UAE@XZ				; CRscDlg::~CRscDlg
PUBLIC	??0CTabVariables@@QAE@PAVCWnd@@@Z		; CTabVariables::CTabVariables
PUBLIC	?DoDataExchange@CTabVariables@@MAEXPAVCDataExchange@@@Z ; CTabVariables::DoDataExchange
PUBLIC	?WindowProc@CTabVariables@@MAEJIIJ@Z		; CTabVariables::WindowProc
PUBLIC	?InitColumn@CTabVariables@@IAEXXZ		; CTabVariables::InitColumn
PUBLIC	?LoadInfo@CTabVariables@@MAEXXZ			; CTabVariables::LoadInfo
PUBLIC	?SaveInfo@CTabVariables@@MAEHXZ			; CTabVariables::SaveInfo
PUBLIC	?RemoveInfo@CTabVariables@@MAEXXZ		; CTabVariables::RemoveInfo
PUBLIC	?CheckWhetherHasSameName@CTabVariables@@IAEHPBD@Z ; CTabVariables::CheckWhetherHasSameName
PUBLIC	?OnInitDialog@CTabVariables@@MAEHXZ		; CTabVariables::OnInitDialog
PUBLIC	?OnBtnAdd@CTabVariables@@IAEXXZ			; CTabVariables::OnBtnAdd
PUBLIC	?OnBtnDelete@CTabVariables@@IAEXXZ		; CTabVariables::OnBtnDelete
PUBLIC	?OnCtlColor@CTabVariables@@IAEPAUHBRUSH__@@PAVCDC@@PAVCWnd@@I@Z ; CTabVariables::OnCtlColor
PUBLIC	?GetThisMessageMap@CTabVariables@@KGPBUAFX_MSGMAP@@XZ ; CTabVariables::GetThisMessageMap
PUBLIC	?GetMessageMap@CTabVariables@@MBEPBUAFX_MSGMAP@@XZ ; CTabVariables::GetMessageMap
PUBLIC	??_GCTabVariables@@UAEPAXI@Z			; CTabVariables::`scalar deleting destructor'
PUBLIC	??_C@_02DPKJAMEF@?$CFd@				; `string'
PUBLIC	??_C@_00CNPNBAHC@@				; `string'
PUBLIC	??_7CButton@@6B@				; CButton::`vftable'
PUBLIC	??_R0?AVCObject@@@8				; CObject `RTTI Type Descriptor'
PUBLIC	??_R3CObject@@8					; CObject::`RTTI Class Hierarchy Descriptor'
PUBLIC	??_R2CObject@@8					; CObject::`RTTI Base Class Array'
PUBLIC	??_R1A@?0A@EA@CObject@@8			; CObject::`RTTI Base Class Descriptor at (0,-1,0,64)'
PUBLIC	??_R1A@?0A@EA@CWnd@@8				; CWnd::`RTTI Base Class Descriptor at (0,-1,0,64)'
PUBLIC	??_R0?AVCWnd@@@8				; CWnd `RTTI Type Descriptor'
PUBLIC	??_R3CWnd@@8					; CWnd::`RTTI Class Hierarchy Descriptor'
PUBLIC	??_R2CWnd@@8					; CWnd::`RTTI Base Class Array'
PUBLIC	??_R1A@?0A@EA@CCmdTarget@@8			; CCmdTarget::`RTTI Base Class Descriptor at (0,-1,0,64)'
PUBLIC	??_R0?AVCCmdTarget@@@8				; CCmdTarget `RTTI Type Descriptor'
PUBLIC	??_R3CCmdTarget@@8				; CCmdTarget::`RTTI Class Hierarchy Descriptor'
PUBLIC	??_R2CCmdTarget@@8				; CCmdTarget::`RTTI Base Class Array'
PUBLIC	??_R4CButton@@6B@				; CButton::`RTTI Complete Object Locator'
PUBLIC	??_R0?AVCButton@@@8				; CButton `RTTI Type Descriptor'
PUBLIC	??_R3CButton@@8					; CButton::`RTTI Class Hierarchy Descriptor'
PUBLIC	??_R2CButton@@8					; CButton::`RTTI Base Class Array'
PUBLIC	??_R1A@?0A@EA@CButton@@8			; CButton::`RTTI Base Class Descriptor at (0,-1,0,64)'
PUBLIC	??_R1A@?0A@EA@CDialog@@8			; CDialog::`RTTI Base Class Descriptor at (0,-1,0,64)'
PUBLIC	??_R0?AVCDialog@@@8				; CDialog `RTTI Type Descriptor'
PUBLIC	??_R3CDialog@@8					; CDialog::`RTTI Class Hierarchy Descriptor'
PUBLIC	??_R2CDialog@@8					; CDialog::`RTTI Base Class Array'
PUBLIC	??_7CTabVariables@@6B@				; CTabVariables::`vftable'
PUBLIC	??_C@_06FIHLBNDD@?$LK?$KP?$LM?v?$LI?m@		; `string'
PUBLIC	??_C@_06OJFAJFEJ@?$LK?$KP?$LM?v?$LA?$KK@	; `string'
PUBLIC	??_C@_01GBGANLPD@0@				; `string'
PUBLIC	??_C@_08JFMIELNJ@InputCnt@			; `string'
PUBLIC	??_C@_09IJIPICN@Variables@			; `string'
PUBLIC	??_C@_09FEBEHBMB@InputName@			; `string'
PUBLIC	??_C@_04HGGBINEM@?$CFs?$CFd@			; `string'
PUBLIC	??_C@_05DCDOHKAB@Input@				; `string'
PUBLIC	??_C@_0O@FPGHFDEA@NewVariable?$CFd@		; `string'
PUBLIC	??_R4CTabVariables@@6B@				; CTabVariables::`RTTI Complete Object Locator'
PUBLIC	??_R0?AVCTabVariables@@@8			; CTabVariables `RTTI Type Descriptor'
PUBLIC	??_R3CTabVariables@@8				; CTabVariables::`RTTI Class Hierarchy Descriptor'
PUBLIC	??_R2CTabVariables@@8				; CTabVariables::`RTTI Base Class Array'
PUBLIC	??_R1A@?0A@EA@CTabVariables@@8			; CTabVariables::`RTTI Base Class Descriptor at (0,-1,0,64)'
PUBLIC	??_R1A@?0A@EA@CRscDlg@@8			; CRscDlg::`RTTI Base Class Descriptor at (0,-1,0,64)'
PUBLIC	??_R0?AVCRscDlg@@@8				; CRscDlg `RTTI Type Descriptor'
PUBLIC	??_R3CRscDlg@@8					; CRscDlg::`RTTI Class Hierarchy Descriptor'
PUBLIC	??_R2CRscDlg@@8					; CRscDlg::`RTTI Base Class Array'
EXTRN	??3@YAXPAX@Z:PROC				; operator delete
EXTRN	?__global_delete@@YAXPAXI@Z:PROC		; __global_delete
EXTRN	__imp__SendMessageA@16:PROC
EXTRN	__imp__GetKeyState@4:PROC
EXTRN	__imp__EnableWindow@8:PROC
EXTRN	__imp__GetParent@4:PROC
EXTRN	__imp__atol:PROC
EXTRN	__imp_??A?$CSimpleStringT@D$00@ATL@@QBEDH@Z:PROC
EXTRN	__imp_??0?$CStringT@DV?$StrTraitMFC_DLL@DV?$ChTraitsCRT@D@ATL@@@@@ATL@@QAE@XZ:PROC
EXTRN	__imp_??1?$CStringT@DV?$StrTraitMFC_DLL@DV?$ChTraitsCRT@D@ATL@@@@@ATL@@QAE@XZ:PROC
EXTRN	__imp_??4?$CStringT@DV?$StrTraitMFC_DLL@DV?$ChTraitsCRT@D@ATL@@@@@ATL@@QAEAAV01@ABV01@@Z:PROC
EXTRN	__imp_??4?$CStringT@DV?$StrTraitMFC_DLL@DV?$ChTraitsCRT@D@ATL@@@@@ATL@@QAEAAV01@PBD@Z:PROC
EXTRN	__imp_?Compare@?$CStringT@DV?$StrTraitMFC_DLL@DV?$ChTraitsCRT@D@ATL@@@@@ATL@@QBEHPBD@Z:PROC
EXTRN	__imp_?Find@?$CStringT@DV?$StrTraitMFC_DLL@DV?$ChTraitsCRT@D@ATL@@@@@ATL@@QBEHDH@Z:PROC
EXTRN	__imp_?TrimRight@?$CStringT@DV?$StrTraitMFC_DLL@DV?$ChTraitsCRT@D@ATL@@@@@ATL@@QAEAAV12@D@Z:PROC
EXTRN	__imp_?Format@?$CStringT@DV?$StrTraitMFC_DLL@DV?$ChTraitsCRT@D@ATL@@@@@ATL@@QAAXPBDZZ:PROC
EXTRN	?DDX_Control@@YGXPAVCDataExchange@@HAAVCWnd@@@Z:PROC ; DDX_Control
EXTRN	?OnCmdMsg@CCmdTarget@@UAEHIHPAXPAUAFX_CMDHANDLERINFO@@@Z:PROC ; CCmdTarget::OnCmdMsg
EXTRN	?IsInvokeAllowed@CCmdTarget@@UAEHJ@Z:PROC	; CCmdTarget::IsInvokeAllowed
EXTRN	?GetDispatchIID@CCmdTarget@@UAEHPAU_GUID@@@Z:PROC ; CCmdTarget::GetDispatchIID
EXTRN	?GetTypeInfoCount@CCmdTarget@@UAEIXZ:PROC	; CCmdTarget::GetTypeInfoCount
EXTRN	?GetTypeLibCache@CCmdTarget@@UAEPAVCTypeLibCache@@XZ:PROC ; CCmdTarget::GetTypeLibCache
EXTRN	?GetTypeLib@CCmdTarget@@UAEJKPAPAUITypeLib@@@Z:PROC ; CCmdTarget::GetTypeLib
EXTRN	?GetCommandMap@CCmdTarget@@MBEPBUAFX_OLECMDMAP@@XZ:PROC ; CCmdTarget::GetCommandMap
EXTRN	?GetDispatchMap@CCmdTarget@@MBEPBUAFX_DISPMAP@@XZ:PROC ; CCmdTarget::GetDispatchMap
EXTRN	?GetConnectionMap@CCmdTarget@@MBEPBUAFX_CONNECTIONMAP@@XZ:PROC ; CCmdTarget::GetConnectionMap
EXTRN	?GetEventSinkMap@CCmdTarget@@MBEPBUAFX_EVENTSINKMAP@@XZ:PROC ; CCmdTarget::GetEventSinkMap
EXTRN	?OnCreateAggregates@CCmdTarget@@UAEHXZ:PROC	; CCmdTarget::OnCreateAggregates
EXTRN	?GetInterfaceHook@CCmdTarget@@UAEPAUIUnknown@@PBX@Z:PROC ; CCmdTarget::GetInterfaceHook
EXTRN	?GetExtraConnectionPoints@CCmdTarget@@MAEHPAVCPtrArray@@@Z:PROC ; CCmdTarget::GetExtraConnectionPoints
EXTRN	?GetConnectionHook@CCmdTarget@@MAEPAUIConnectionPoint@@ABU_GUID@@@Z:PROC ; CCmdTarget::GetConnectionHook
EXTRN	??0CWnd@@QAE@XZ:PROC				; CWnd::CWnd
EXTRN	?FromHandle@CWnd@@SGPAV1@PAUHWND__@@@Z:PROC	; CWnd::FromHandle
EXTRN	?PreSubclassWindow@CWnd@@UAEXXZ:PROC		; CWnd::PreSubclassWindow
EXTRN	?Create@CWnd@@UAEHPBD0KABUtagRECT@@PAV1@IPAUCCreateContext@@@Z:PROC ; CWnd::Create
EXTRN	?CreateEx@CWnd@@UAEHKPBD0KHHHHPAUHWND__@@PAUHMENU__@@PAX@Z:PROC ; CWnd::CreateEx
EXTRN	?CreateEx@CWnd@@UAEHKPBD0KABUtagRECT@@PAV1@IPAX@Z:PROC ; CWnd::CreateEx
EXTRN	?DestroyWindow@CWnd@@UAEHXZ:PROC		; CWnd::DestroyWindow
EXTRN	?PreCreateWindow@CWnd@@UAEHAAUtagCREATESTRUCTA@@@Z:PROC ; CWnd::PreCreateWindow
EXTRN	?CalcWindowRect@CWnd@@UAEXPAUtagRECT@@I@Z:PROC	; CWnd::CalcWindowRect
EXTRN	?GetMenu@CWnd@@UBEPAVCMenu@@XZ:PROC		; CWnd::GetMenu
EXTRN	?SetMenu@CWnd@@UAEHPAVCMenu@@@Z:PROC		; CWnd::SetMenu
EXTRN	?OnToolHitTest@CWnd@@UBEHVCPoint@@PAUtagTOOLINFOA@@@Z:PROC ; CWnd::OnToolHitTest
EXTRN	?EnableWindow@CWnd@@QAEHH@Z:PROC		; CWnd::EnableWindow
EXTRN	?GetScrollBarCtrl@CWnd@@UBEPAVCScrollBar@@H@Z:PROC ; CWnd::GetScrollBarCtrl
EXTRN	?WinHelpA@CWnd@@UAEXKI@Z:PROC			; CWnd::WinHelpA
EXTRN	?HtmlHelpA@CWnd@@UAEXKI@Z:PROC			; CWnd::HtmlHelpA
EXTRN	?WinHelpInternal@CWnd@@UAEXKI@Z:PROC		; CWnd::WinHelpInternal
EXTRN	?ContinueModal@CWnd@@UAEHXZ:PROC		; CWnd::ContinueModal
EXTRN	?EndModalLoop@CWnd@@UAEXH@Z:PROC		; CWnd::EndModalLoop
EXTRN	?OnDrawIconicThumbnailOrLivePreview@CWnd@@UAEXAAVCDC@@VCRect@@VCSize@@HAAH@Z:PROC ; CWnd::OnDrawIconicThumbnailOrLivePreview
EXTRN	?GetInterfaceMap@CWnd@@MBEPBUAFX_INTERFACEMAP@@XZ:PROC ; CWnd::GetInterfaceMap
EXTRN	?EnsureStdObj@CWnd@@UAEJXZ:PROC			; CWnd::EnsureStdObj
EXTRN	?get_accParent@CWnd@@UAEJPAPAUIDispatch@@@Z:PROC ; CWnd::get_accParent
EXTRN	?get_accChildCount@CWnd@@UAEJPAJ@Z:PROC		; CWnd::get_accChildCount
EXTRN	?get_accChild@CWnd@@UAEJUtagVARIANT@@PAPAUIDispatch@@@Z:PROC ; CWnd::get_accChild
EXTRN	?get_accName@CWnd@@UAEJUtagVARIANT@@PAPA_W@Z:PROC ; CWnd::get_accName
EXTRN	?get_accValue@CWnd@@UAEJUtagVARIANT@@PAPA_W@Z:PROC ; CWnd::get_accValue
EXTRN	?get_accDescription@CWnd@@UAEJUtagVARIANT@@PAPA_W@Z:PROC ; CWnd::get_accDescription
EXTRN	?get_accRole@CWnd@@UAEJUtagVARIANT@@PAU2@@Z:PROC ; CWnd::get_accRole
EXTRN	?get_accState@CWnd@@UAEJUtagVARIANT@@PAU2@@Z:PROC ; CWnd::get_accState
EXTRN	?get_accHelp@CWnd@@UAEJUtagVARIANT@@PAPA_W@Z:PROC ; CWnd::get_accHelp
EXTRN	?get_accHelpTopic@CWnd@@UAEJPAPA_WUtagVARIANT@@PAJ@Z:PROC ; CWnd::get_accHelpTopic
EXTRN	?get_accKeyboardShortcut@CWnd@@UAEJUtagVARIANT@@PAPA_W@Z:PROC ; CWnd::get_accKeyboardShortcut
EXTRN	?get_accFocus@CWnd@@UAEJPAUtagVARIANT@@@Z:PROC	; CWnd::get_accFocus
EXTRN	?get_accSelection@CWnd@@UAEJPAUtagVARIANT@@@Z:PROC ; CWnd::get_accSelection
EXTRN	?get_accDefaultAction@CWnd@@UAEJUtagVARIANT@@PAPA_W@Z:PROC ; CWnd::get_accDefaultAction
EXTRN	?accSelect@CWnd@@UAEJJUtagVARIANT@@@Z:PROC	; CWnd::accSelect
EXTRN	?accLocation@CWnd@@UAEJPAJ000UtagVARIANT@@@Z:PROC ; CWnd::accLocation
EXTRN	?accNavigate@CWnd@@UAEJJUtagVARIANT@@PAU2@@Z:PROC ; CWnd::accNavigate
EXTRN	?accHitTest@CWnd@@UAEJJJPAUtagVARIANT@@@Z:PROC	; CWnd::accHitTest
EXTRN	?accDoDefaultAction@CWnd@@UAEJUtagVARIANT@@@Z:PROC ; CWnd::accDoDefaultAction
EXTRN	?put_accName@CWnd@@UAEJUtagVARIANT@@PA_W@Z:PROC	; CWnd::put_accName
EXTRN	?put_accValue@CWnd@@UAEJUtagVARIANT@@PA_W@Z:PROC ; CWnd::put_accValue
EXTRN	?SetProxy@CWnd@@UAEJPAUIAccessibleProxy@@@Z:PROC ; CWnd::SetProxy
EXTRN	?CreateAccessibleProxy@CWnd@@UAEJIJPAJ@Z:PROC	; CWnd::CreateAccessibleProxy
EXTRN	?OnCommand@CWnd@@MAEHIJ@Z:PROC			; CWnd::OnCommand
EXTRN	?OnNotify@CWnd@@MAEHIJPAJ@Z:PROC		; CWnd::OnNotify
EXTRN	?OnCtlColor@CWnd@@IAEPAUHBRUSH__@@PAVCDC@@PAV1@I@Z:PROC ; CWnd::OnCtlColor
EXTRN	?GetSuperWndProcAddr@CWnd@@MAEPAP6GJPAUHWND__@@IIJ@ZXZ:PROC ; CWnd::GetSuperWndProcAddr
EXTRN	?PreTranslateMessage@CWnd@@UAEHPAUtagMSG@@@Z:PROC ; CWnd::PreTranslateMessage
EXTRN	?OnAmbientProperty@CWnd@@UAEHPAVCOleControlSite@@JPAUtagVARIANT@@@Z:PROC ; CWnd::OnAmbientProperty
EXTRN	?WindowProc@CWnd@@MAEJIIJ@Z:PROC		; CWnd::WindowProc
EXTRN	?OnWndMsg@CWnd@@MAEHIIJPAJ@Z:PROC		; CWnd::OnWndMsg
EXTRN	?DefWindowProcA@CWnd@@MAEJIIJ@Z:PROC		; CWnd::DefWindowProcA
EXTRN	?PostNcDestroy@CWnd@@MAEXXZ:PROC		; CWnd::PostNcDestroy
EXTRN	?OnChildNotify@CWnd@@MAEHIIJPAJ@Z:PROC		; CWnd::OnChildNotify
EXTRN	?OnTouchInputs@CWnd@@MAEHIPAUtagTOUCHINPUT@@@Z:PROC ; CWnd::OnTouchInputs
EXTRN	?OnTouchInput@CWnd@@MAEHVCPoint@@HHPAUtagTOUCHINPUT@@@Z:PROC ; CWnd::OnTouchInput
EXTRN	?GetGestureStatus@CWnd@@MAEKVCPoint@@@Z:PROC	; CWnd::GetGestureStatus
EXTRN	?OnGestureZoom@CWnd@@MAEHVCPoint@@J@Z:PROC	; CWnd::OnGestureZoom
EXTRN	?OnGesturePan@CWnd@@MAEHVCPoint@@0@Z:PROC	; CWnd::OnGesturePan
EXTRN	?OnGestureRotate@CWnd@@MAEHVCPoint@@N@Z:PROC	; CWnd::OnGestureRotate
EXTRN	?OnGestureTwoFingerTap@CWnd@@MAEHVCPoint@@@Z:PROC ; CWnd::OnGestureTwoFingerTap
EXTRN	?OnGesturePressAndTap@CWnd@@MAEHVCPoint@@J@Z:PROC ; CWnd::OnGesturePressAndTap
EXTRN	?ResizeDynamicLayout@CWnd@@MAEXXZ:PROC		; CWnd::ResizeDynamicLayout
EXTRN	?CheckAutoCenter@CWnd@@UAEHXZ:PROC		; CWnd::CheckAutoCenter
EXTRN	?IsFrameWnd@CWnd@@UBEHXZ:PROC			; CWnd::IsFrameWnd
EXTRN	?OnFinalRelease@CWnd@@UAEXXZ:PROC		; CWnd::OnFinalRelease
EXTRN	?CreateControlContainer@CWnd@@MAEHPAPAVCOleControlContainer@@@Z:PROC ; CWnd::CreateControlContainer
EXTRN	?CreateControlSite@CWnd@@MAEHPAVCOleControlContainer@@PAPAVCOleControlSite@@IABU_GUID@@@Z:PROC ; CWnd::CreateControlSite
EXTRN	?SetOccDialogInfo@CWnd@@MAEHPAU_AFX_OCC_DIALOG_INFO@@@Z:PROC ; CWnd::SetOccDialogInfo
EXTRN	?GetOccDialogInfo@CWnd@@MAEPAU_AFX_OCC_DIALOG_INFO@@XZ:PROC ; CWnd::GetOccDialogInfo
EXTRN	?GetMessageMap@CWnd@@MBEPBUAFX_MSGMAP@@XZ:PROC	; CWnd::GetMessageMap
EXTRN	?GetRuntimeClass@CDialog@@UBEPAUCRuntimeClass@@XZ:PROC ; CDialog::GetRuntimeClass
EXTRN	?Create@CDialog@@UAEHPBDPAVCWnd@@@Z:PROC	; CDialog::Create
EXTRN	?CreateIndirect@CDialog@@UAEHPBUDLGTEMPLATE@@PAVCWnd@@PAX@Z:PROC ; CDialog::CreateIndirect
EXTRN	?CreateIndirect@CDialog@@UAEHPAXPAVCWnd@@@Z:PROC ; CDialog::CreateIndirect
EXTRN	?OnInitDialog@CDialog@@UAEHXZ:PROC		; CDialog::OnInitDialog
EXTRN	?OnSetFont@CDialog@@UAEXPAVCFont@@@Z:PROC	; CDialog::OnSetFont
EXTRN	?OnOK@CDialog@@MAEXXZ:PROC			; CDialog::OnOK
EXTRN	?OnCancel@CDialog@@MAEXXZ:PROC			; CDialog::OnCancel
EXTRN	??1CDialog@@UAE@XZ:PROC				; CDialog::~CDialog
EXTRN	?PreTranslateMessage@CDialog@@UAEHPAUtagMSG@@@Z:PROC ; CDialog::PreTranslateMessage
EXTRN	?OnCmdMsg@CDialog@@UAEHIHPAXPAUAFX_CMDHANDLERINFO@@@Z:PROC ; CDialog::OnCmdMsg
EXTRN	?CheckAutoCenter@CDialog@@UAEHXZ:PROC		; CDialog::CheckAutoCenter
EXTRN	?SetOccDialogInfo@CDialog@@MAEHPAU_AFX_OCC_DIALOG_INFO@@@Z:PROC ; CDialog::SetOccDialogInfo
EXTRN	?GetOccDialogInfo@CDialog@@MAEPAU_AFX_OCC_DIALOG_INFO@@XZ:PROC ; CDialog::GetOccDialogInfo
EXTRN	?PreInitDialog@CDialog@@MAEXXZ:PROC		; CDialog::PreInitDialog
EXTRN	?GetRuntimeClass@CButton@@UBEPAUCRuntimeClass@@XZ:PROC ; CButton::GetRuntimeClass
EXTRN	?Create@CButton@@UAEHPBDKABUtagRECT@@PAVCWnd@@I@Z:PROC ; CButton::Create
EXTRN	?DrawItem@CButton@@UAEXPAUtagDRAWITEMSTRUCT@@@Z:PROC ; CButton::DrawItem
EXTRN	??1CButton@@UAE@XZ:PROC				; CButton::~CButton
EXTRN	?OnChildNotify@CButton@@MAEHIIJPAJ@Z:PROC	; CButton::OnChildNotify
EXTRN	??_ECButton@@UAEPAXI@Z:PROC			; CButton::`vector deleting destructor'
EXTRN	?GetItemText@CListCtrl@@QBE?AV?$CStringT@DV?$StrTraitMFC_DLL@DV?$ChTraitsCRT@D@ATL@@@@@ATL@@HH@Z:PROC ; CListCtrl::GetItemText
EXTRN	??0CRscDlg@@QAE@IPAVCWnd@@@Z:PROC		; CRscDlg::CRscDlg
EXTRN	?Create@CRscDlg@@UAEHIPAVCWnd@@@Z:PROC		; CRscDlg::Create
EXTRN	?DoModal@CRscDlg@@UAEHXZ:PROC			; CRscDlg::DoModal
EXTRN	?DoDataExchange@CRscDlg@@MAEXPAVCDataExchange@@@Z:PROC ; CRscDlg::DoDataExchange
EXTRN	?GetThisMessageMap@CRscDlg@@KGPBUAFX_MSGMAP@@XZ:PROC ; CRscDlg::GetThisMessageMap
EXTRN	??0CXListCtrl@@QAE@XZ:PROC			; CXListCtrl::CXListCtrl
EXTRN	??1CXListCtrl@@UAE@XZ:PROC			; CXListCtrl::~CXListCtrl
EXTRN	?DeleteItem@CXListCtrl@@QAEHH@Z:PROC		; CXListCtrl::DeleteItem
EXTRN	?GetCurSel@CXListCtrl@@QAEHXZ:PROC		; CXListCtrl::GetCurSel
EXTRN	?InsertItem@CXListCtrl@@QAEHHPBD@Z:PROC		; CXListCtrl::InsertItem
EXTRN	?SetCurSel@CXListCtrl@@QAEHHH@Z:PROC		; CXListCtrl::SetCurSel
EXTRN	?SetItemText@CXListCtrl@@QAEHHHPBD@Z:PROC	; CXListCtrl::SetItemText
EXTRN	?SetEditBox@CXListCtrl@@QAEHHHH@Z:PROC		; CXListCtrl::SetEditBox
EXTRN	?UnpressEditBox@CXListCtrl@@QAEXXZ:PROC		; CXListCtrl::UnpressEditBox
EXTRN	??_ECTabVariables@@UAEPAXI@Z:PROC		; CTabVariables::`vector deleting destructor'
EXTRN	?GetPrivateProfileStringInST@CDlgSTOption@@QAEKPBD00PADKH@Z:PROC ; CDlgSTOption::GetPrivateProfileStringInST
EXTRN	?WritePrivateProfileStringInST@CDlgSTOption@@QAEHPBD00H@Z:PROC ; CDlgSTOption::WritePrivateProfileStringInST
EXTRN	@__security_check_cookie@4:PROC
EXTRN	___CxxFrameHandler3:PROC
EXTRN	??_7type_info@@6B@:QWORD			; type_info::`vftable'
EXTRN	___security_cookie:DWORD
;	COMDAT ??_R2CRscDlg@@8
rdata$r	SEGMENT
??_R2CRscDlg@@8 DD FLAT:??_R1A@?0A@EA@CRscDlg@@8	; CRscDlg::`RTTI Base Class Array'
	DD	FLAT:??_R1A@?0A@EA@CDialog@@8
	DD	FLAT:??_R1A@?0A@EA@CWnd@@8
	DD	FLAT:??_R1A@?0A@EA@CCmdTarget@@8
	DD	FLAT:??_R1A@?0A@EA@CObject@@8
rdata$r	ENDS
;	COMDAT ??_R3CRscDlg@@8
rdata$r	SEGMENT
??_R3CRscDlg@@8 DD 00H					; CRscDlg::`RTTI Class Hierarchy Descriptor'
	DD	00H
	DD	05H
	DD	FLAT:??_R2CRscDlg@@8
rdata$r	ENDS
;	COMDAT ??_R0?AVCRscDlg@@@8
data$rs	SEGMENT
??_R0?AVCRscDlg@@@8 DD FLAT:??_7type_info@@6B@		; CRscDlg `RTTI Type Descriptor'
	DD	00H
	DB	'.?AVCRscDlg@@', 00H
data$rs	ENDS
;	COMDAT ??_R1A@?0A@EA@CRscDlg@@8
rdata$r	SEGMENT
??_R1A@?0A@EA@CRscDlg@@8 DD FLAT:??_R0?AVCRscDlg@@@8	; CRscDlg::`RTTI Base Class Descriptor at (0,-1,0,64)'
	DD	04H
	DD	00H
	DD	0ffffffffH
	DD	00H
	DD	040H
	DD	FLAT:??_R3CRscDlg@@8
rdata$r	ENDS
;	COMDAT ??_R1A@?0A@EA@CTabVariables@@8
rdata$r	SEGMENT
??_R1A@?0A@EA@CTabVariables@@8 DD FLAT:??_R0?AVCTabVariables@@@8 ; CTabVariables::`RTTI Base Class Descriptor at (0,-1,0,64)'
	DD	05H
	DD	00H
	DD	0ffffffffH
	DD	00H
	DD	040H
	DD	FLAT:??_R3CTabVariables@@8
rdata$r	ENDS
;	COMDAT ??_R2CTabVariables@@8
rdata$r	SEGMENT
??_R2CTabVariables@@8 DD FLAT:??_R1A@?0A@EA@CTabVariables@@8 ; CTabVariables::`RTTI Base Class Array'
	DD	FLAT:??_R1A@?0A@EA@CRscDlg@@8
	DD	FLAT:??_R1A@?0A@EA@CDialog@@8
	DD	FLAT:??_R1A@?0A@EA@CWnd@@8
	DD	FLAT:??_R1A@?0A@EA@CCmdTarget@@8
	DD	FLAT:??_R1A@?0A@EA@CObject@@8
rdata$r	ENDS
;	COMDAT ??_R3CTabVariables@@8
rdata$r	SEGMENT
??_R3CTabVariables@@8 DD 00H				; CTabVariables::`RTTI Class Hierarchy Descriptor'
	DD	00H
	DD	06H
	DD	FLAT:??_R2CTabVariables@@8
rdata$r	ENDS
;	COMDAT ??_R0?AVCTabVariables@@@8
data$rs	SEGMENT
??_R0?AVCTabVariables@@@8 DD FLAT:??_7type_info@@6B@	; CTabVariables `RTTI Type Descriptor'
	DD	00H
	DB	'.?AVCTabVariables@@', 00H
data$rs	ENDS
;	COMDAT ??_R4CTabVariables@@6B@
rdata$r	SEGMENT
??_R4CTabVariables@@6B@ DD 00H				; CTabVariables::`RTTI Complete Object Locator'
	DD	00H
	DD	00H
	DD	FLAT:??_R0?AVCTabVariables@@@8
	DD	FLAT:??_R3CTabVariables@@8
rdata$r	ENDS
;	COMDAT ??_C@_0O@FPGHFDEA@NewVariable?$CFd@
CONST	SEGMENT
??_C@_0O@FPGHFDEA@NewVariable?$CFd@ DB 'NewVariable%d', 00H ; `string'
CONST	ENDS
;	COMDAT ??_C@_05DCDOHKAB@Input@
CONST	SEGMENT
??_C@_05DCDOHKAB@Input@ DB 'Input', 00H			; `string'
CONST	ENDS
;	COMDAT ??_C@_04HGGBINEM@?$CFs?$CFd@
CONST	SEGMENT
??_C@_04HGGBINEM@?$CFs?$CFd@ DB '%s%d', 00H		; `string'
CONST	ENDS
;	COMDAT ??_C@_09FEBEHBMB@InputName@
CONST	SEGMENT
??_C@_09FEBEHBMB@InputName@ DB 'InputName', 00H		; `string'
CONST	ENDS
;	COMDAT ??_C@_09IJIPICN@Variables@
CONST	SEGMENT
??_C@_09IJIPICN@Variables@ DB 'Variables', 00H		; `string'
CONST	ENDS
;	COMDAT ??_C@_08JFMIELNJ@InputCnt@
CONST	SEGMENT
??_C@_08JFMIELNJ@InputCnt@ DB 'InputCnt', 00H		; `string'
CONST	ENDS
;	COMDAT ??_C@_01GBGANLPD@0@
CONST	SEGMENT
??_C@_01GBGANLPD@0@ DB '0', 00H				; `string'
CONST	ENDS
;	COMDAT ??_C@_06OJFAJFEJ@?$LK?$KP?$LM?v?$LA?$KK@
CONST	SEGMENT
??_C@_06OJFAJFEJ@?$LK?$KP?$LM?v?$LA?$KK@ DB 0baH, 0afH, 0bcH, 0f6H, 0b0H, 0aaH
	DB	00H						; `string'
CONST	ENDS
;	COMDAT ??_C@_06FIHLBNDD@?$LK?$KP?$LM?v?$LI?m@
CONST	SEGMENT
??_C@_06FIHLBNDD@?$LK?$KP?$LM?v?$LI?m@ DB 0baH, 0afH, 0bcH, 0f6H, 0b8H, 0edH
	DB	00H						; `string'
CONST	ENDS
;	COMDAT ?messageMap@?1??GetThisMessageMap@CTabVariables@@KGPBUAFX_MSGMAP@@XZ@4U3@B
CONST	SEGMENT
?messageMap@?1??GetThisMessageMap@CTabVariables@@KGPBUAFX_MSGMAP@@XZ@4U3@B DD FLAT:?GetThisMessageMap@CRscDlg@@KGPBUAFX_MSGMAP@@XZ ; `CTabVariables::GetThisMessageMap'::`2'::messageMap
	DD	FLAT:?_messageEntries@?1??GetThisMessageMap@CTabVariables@@KGPBUAFX_MSGMAP@@XZ@4QBUAFX_MSGMAP_ENTRY@@B
CONST	ENDS
;	COMDAT ?_messageEntries@?1??GetThisMessageMap@CTabVariables@@KGPBUAFX_MSGMAP@@XZ@4QBUAFX_MSGMAP_ENTRY@@B
CONST	SEGMENT
?_messageEntries@?1??GetThisMessageMap@CTabVariables@@KGPBUAFX_MSGMAP@@XZ@4QBUAFX_MSGMAP_ENTRY@@B DD 0111H ; `CTabVariables::GetThisMessageMap'::`2'::_messageEntries
	DD	00H
	DD	07148H
	DD	07148H
	DD	03aH
	DD	FLAT:?OnBtnAdd@CTabVariables@@IAEXXZ
	DD	0111H
	DD	00H
	DD	07149H
	DD	07149H
	DD	03aH
	DD	FLAT:?OnBtnDelete@CTabVariables@@IAEXXZ
	DD	019H
	DD	00H
	DD	00H
	DD	00H
	DD	08H
	DD	FLAT:?OnCtlColor@CTabVariables@@IAEPAUHBRUSH__@@PAVCDC@@PAVCWnd@@I@Z
	DD	00H
	DD	00H
	DD	00H
	DD	00H
	DD	00H
	DD	00H
CONST	ENDS
;	COMDAT ??_7CTabVariables@@6B@
CONST	SEGMENT
??_7CTabVariables@@6B@ DD FLAT:??_R4CTabVariables@@6B@	; CTabVariables::`vftable'
	DD	FLAT:?GetRuntimeClass@CDialog@@UBEPAUCRuntimeClass@@XZ
	DD	FLAT:??_ECTabVariables@@UAEPAXI@Z
	DD	FLAT:?Serialize@CObject@@UAEXAAVCArchive@@@Z
	DD	FLAT:?AssertValid@CObject@@UBEXXZ
	DD	FLAT:?Dump@CObject@@UBEXAAVCDumpContext@@@Z
	DD	FLAT:?OnCmdMsg@CDialog@@UAEHIHPAXPAUAFX_CMDHANDLERINFO@@@Z
	DD	FLAT:?OnFinalRelease@CWnd@@UAEXXZ
	DD	FLAT:?IsInvokeAllowed@CCmdTarget@@UAEHJ@Z
	DD	FLAT:?GetDispatchIID@CCmdTarget@@UAEHPAU_GUID@@@Z
	DD	FLAT:?GetTypeInfoCount@CCmdTarget@@UAEIXZ
	DD	FLAT:?GetTypeLibCache@CCmdTarget@@UAEPAVCTypeLibCache@@XZ
	DD	FLAT:?GetTypeLib@CCmdTarget@@UAEJKPAPAUITypeLib@@@Z
	DD	FLAT:?GetMessageMap@CTabVariables@@MBEPBUAFX_MSGMAP@@XZ
	DD	FLAT:?GetCommandMap@CCmdTarget@@MBEPBUAFX_OLECMDMAP@@XZ
	DD	FLAT:?GetDispatchMap@CCmdTarget@@MBEPBUAFX_DISPMAP@@XZ
	DD	FLAT:?GetConnectionMap@CCmdTarget@@MBEPBUAFX_CONNECTIONMAP@@XZ
	DD	FLAT:?GetInterfaceMap@CWnd@@MBEPBUAFX_INTERFACEMAP@@XZ
	DD	FLAT:?GetEventSinkMap@CCmdTarget@@MBEPBUAFX_EVENTSINKMAP@@XZ
	DD	FLAT:?OnCreateAggregates@CCmdTarget@@UAEHXZ
	DD	FLAT:?GetInterfaceHook@CCmdTarget@@UAEPAUIUnknown@@PBX@Z
	DD	FLAT:?GetExtraConnectionPoints@CCmdTarget@@MAEHPAVCPtrArray@@@Z
	DD	FLAT:?GetConnectionHook@CCmdTarget@@MAEPAUIConnectionPoint@@ABU_GUID@@@Z
	DD	FLAT:?PreSubclassWindow@CWnd@@UAEXXZ
	DD	FLAT:?Create@CWnd@@UAEHPBD0KABUtagRECT@@PAV1@IPAUCCreateContext@@@Z
	DD	FLAT:?CreateEx@CWnd@@UAEHKPBD0KABUtagRECT@@PAV1@IPAX@Z
	DD	FLAT:?CreateEx@CWnd@@UAEHKPBD0KHHHHPAUHWND__@@PAUHMENU__@@PAX@Z
	DD	FLAT:?DestroyWindow@CWnd@@UAEHXZ
	DD	FLAT:?PreCreateWindow@CWnd@@UAEHAAUtagCREATESTRUCTA@@@Z
	DD	FLAT:?CalcWindowRect@CWnd@@UAEXPAUtagRECT@@I@Z
	DD	FLAT:?GetMenu@CWnd@@UBEPAVCMenu@@XZ
	DD	FLAT:?SetMenu@CWnd@@UAEHPAVCMenu@@@Z
	DD	FLAT:?OnToolHitTest@CWnd@@UBEHVCPoint@@PAUtagTOOLINFOA@@@Z
	DD	FLAT:?GetScrollBarCtrl@CWnd@@UBEPAVCScrollBar@@H@Z
	DD	FLAT:?WinHelpA@CWnd@@UAEXKI@Z
	DD	FLAT:?HtmlHelpA@CWnd@@UAEXKI@Z
	DD	FLAT:?WinHelpInternal@CWnd@@UAEXKI@Z
	DD	FLAT:?ContinueModal@CWnd@@UAEHXZ
	DD	FLAT:?EndModalLoop@CWnd@@UAEXH@Z
	DD	FLAT:?OnDrawIconicThumbnailOrLivePreview@CWnd@@UAEXAAVCDC@@VCRect@@VCSize@@HAAH@Z
	DD	FLAT:?EnsureStdObj@CWnd@@UAEJXZ
	DD	FLAT:?get_accParent@CWnd@@UAEJPAPAUIDispatch@@@Z
	DD	FLAT:?get_accChildCount@CWnd@@UAEJPAJ@Z
	DD	FLAT:?get_accChild@CWnd@@UAEJUtagVARIANT@@PAPAUIDispatch@@@Z
	DD	FLAT:?get_accName@CWnd@@UAEJUtagVARIANT@@PAPA_W@Z
	DD	FLAT:?get_accValue@CWnd@@UAEJUtagVARIANT@@PAPA_W@Z
	DD	FLAT:?get_accDescription@CWnd@@UAEJUtagVARIANT@@PAPA_W@Z
	DD	FLAT:?get_accRole@CWnd@@UAEJUtagVARIANT@@PAU2@@Z
	DD	FLAT:?get_accState@CWnd@@UAEJUtagVARIANT@@PAU2@@Z
	DD	FLAT:?get_accHelp@CWnd@@UAEJUtagVARIANT@@PAPA_W@Z
	DD	FLAT:?get_accHelpTopic@CWnd@@UAEJPAPA_WUtagVARIANT@@PAJ@Z
	DD	FLAT:?get_accKeyboardShortcut@CWnd@@UAEJUtagVARIANT@@PAPA_W@Z
	DD	FLAT:?get_accFocus@CWnd@@UAEJPAUtagVARIANT@@@Z
	DD	FLAT:?get_accSelection@CWnd@@UAEJPAUtagVARIANT@@@Z
	DD	FLAT:?get_accDefaultAction@CWnd@@UAEJUtagVARIANT@@PAPA_W@Z
	DD	FLAT:?accSelect@CWnd@@UAEJJUtagVARIANT@@@Z
	DD	FLAT:?accLocation@CWnd@@UAEJPAJ000UtagVARIANT@@@Z
	DD	FLAT:?accNavigate@CWnd@@UAEJJUtagVARIANT@@PAU2@@Z
	DD	FLAT:?accHitTest@CWnd@@UAEJJJPAUtagVARIANT@@@Z
	DD	FLAT:?accDoDefaultAction@CWnd@@UAEJUtagVARIANT@@@Z
	DD	FLAT:?put_accName@CWnd@@UAEJUtagVARIANT@@PA_W@Z
	DD	FLAT:?put_accValue@CWnd@@UAEJUtagVARIANT@@PA_W@Z
	DD	FLAT:?SetProxy@CWnd@@UAEJPAUIAccessibleProxy@@@Z
	DD	FLAT:?CreateAccessibleProxy@CWnd@@UAEJIJPAJ@Z
	DD	FLAT:?OnCommand@CWnd@@MAEHIJ@Z
	DD	FLAT:?OnNotify@CWnd@@MAEHIJPAJ@Z
	DD	FLAT:?GetSuperWndProcAddr@CWnd@@MAEPAP6GJPAUHWND__@@IIJ@ZXZ
	DD	FLAT:?DoDataExchange@CTabVariables@@MAEXPAVCDataExchange@@@Z
	DD	FLAT:?BeginModalState@CWnd@@UAEXXZ
	DD	FLAT:?EndModalState@CWnd@@UAEXXZ
	DD	FLAT:?PreTranslateMessage@CRscDlg@@MAEHPAUtagMSG@@@Z
	DD	FLAT:?OnAmbientProperty@CWnd@@UAEHPAVCOleControlSite@@JPAUtagVARIANT@@@Z
	DD	FLAT:?WindowProc@CTabVariables@@MAEJIIJ@Z
	DD	FLAT:?OnWndMsg@CWnd@@MAEHIIJPAJ@Z
	DD	FLAT:?DefWindowProcA@CWnd@@MAEJIIJ@Z
	DD	FLAT:?PostNcDestroy@CWnd@@MAEXXZ
	DD	FLAT:?OnChildNotify@CWnd@@MAEHIIJPAJ@Z
	DD	FLAT:?OnTouchInputs@CWnd@@MAEHIPAUtagTOUCHINPUT@@@Z
	DD	FLAT:?OnTouchInput@CWnd@@MAEHVCPoint@@HHPAUtagTOUCHINPUT@@@Z
	DD	FLAT:?GetGestureStatus@CWnd@@MAEKVCPoint@@@Z
	DD	FLAT:?OnGestureZoom@CWnd@@MAEHVCPoint@@J@Z
	DD	FLAT:?OnGesturePan@CWnd@@MAEHVCPoint@@0@Z
	DD	FLAT:?OnGestureRotate@CWnd@@MAEHVCPoint@@N@Z
	DD	FLAT:?OnGestureTwoFingerTap@CWnd@@MAEHVCPoint@@@Z
	DD	FLAT:?OnGesturePressAndTap@CWnd@@MAEHVCPoint@@J@Z
	DD	FLAT:?ResizeDynamicLayout@CWnd@@MAEXXZ
	DD	FLAT:?CheckAutoCenter@CDialog@@UAEHXZ
	DD	FLAT:?IsFrameWnd@CWnd@@UBEHXZ
	DD	FLAT:?CreateControlContainer@CWnd@@MAEHPAPAVCOleControlContainer@@@Z
	DD	FLAT:?CreateControlSite@CWnd@@MAEHPAVCOleControlContainer@@PAPAVCOleControlSite@@IABU_GUID@@@Z
	DD	FLAT:?SetOccDialogInfo@CDialog@@MAEHPAU_AFX_OCC_DIALOG_INFO@@@Z
	DD	FLAT:?GetOccDialogInfo@CDialog@@MAEPAU_AFX_OCC_DIALOG_INFO@@XZ
	DD	FLAT:?Create@CRscDlg@@UAEHIPAVCWnd@@@Z
	DD	FLAT:?Create@CDialog@@UAEHPBDPAVCWnd@@@Z
	DD	FLAT:?CreateIndirect@CDialog@@UAEHPAXPAVCWnd@@@Z
	DD	FLAT:?CreateIndirect@CDialog@@UAEHPBUDLGTEMPLATE@@PAVCWnd@@PAX@Z
	DD	FLAT:?DoModal@CRscDlg@@UAEHXZ
	DD	FLAT:?OnInitDialog@CTabVariables@@MAEHXZ
	DD	FLAT:?OnSetFont@CDialog@@UAEXPAVCFont@@@Z
	DD	FLAT:?OnOK@CDialog@@MAEXXZ
	DD	FLAT:?OnCancel@CDialog@@MAEXXZ
	DD	FLAT:?PreInitDialog@CDialog@@MAEXXZ
	DD	FLAT:?LoadInfo@CTabVariables@@MAEXXZ
	DD	FLAT:?SaveInfo@CTabVariables@@MAEHXZ
	DD	FLAT:?RemoveInfo@CTabVariables@@MAEXXZ
	DD	FLAT:?SetDefault@CRscDlg@@UAEXXZ
CONST	ENDS
;	COMDAT ??_R2CDialog@@8
rdata$r	SEGMENT
??_R2CDialog@@8 DD FLAT:??_R1A@?0A@EA@CDialog@@8	; CDialog::`RTTI Base Class Array'
	DD	FLAT:??_R1A@?0A@EA@CWnd@@8
	DD	FLAT:??_R1A@?0A@EA@CCmdTarget@@8
	DD	FLAT:??_R1A@?0A@EA@CObject@@8
rdata$r	ENDS
;	COMDAT ??_R3CDialog@@8
rdata$r	SEGMENT
??_R3CDialog@@8 DD 00H					; CDialog::`RTTI Class Hierarchy Descriptor'
	DD	00H
	DD	04H
	DD	FLAT:??_R2CDialog@@8
rdata$r	ENDS
;	COMDAT ??_R0?AVCDialog@@@8
data$rs	SEGMENT
??_R0?AVCDialog@@@8 DD FLAT:??_7type_info@@6B@		; CDialog `RTTI Type Descriptor'
	DD	00H
	DB	'.?AVCDialog@@', 00H
data$rs	ENDS
;	COMDAT ??_R1A@?0A@EA@CDialog@@8
rdata$r	SEGMENT
??_R1A@?0A@EA@CDialog@@8 DD FLAT:??_R0?AVCDialog@@@8	; CDialog::`RTTI Base Class Descriptor at (0,-1,0,64)'
	DD	03H
	DD	00H
	DD	0ffffffffH
	DD	00H
	DD	040H
	DD	FLAT:??_R3CDialog@@8
rdata$r	ENDS
;	COMDAT ??_R1A@?0A@EA@CButton@@8
rdata$r	SEGMENT
??_R1A@?0A@EA@CButton@@8 DD FLAT:??_R0?AVCButton@@@8	; CButton::`RTTI Base Class Descriptor at (0,-1,0,64)'
	DD	03H
	DD	00H
	DD	0ffffffffH
	DD	00H
	DD	040H
	DD	FLAT:??_R3CButton@@8
rdata$r	ENDS
;	COMDAT ??_R2CButton@@8
rdata$r	SEGMENT
??_R2CButton@@8 DD FLAT:??_R1A@?0A@EA@CButton@@8	; CButton::`RTTI Base Class Array'
	DD	FLAT:??_R1A@?0A@EA@CWnd@@8
	DD	FLAT:??_R1A@?0A@EA@CCmdTarget@@8
	DD	FLAT:??_R1A@?0A@EA@CObject@@8
rdata$r	ENDS
;	COMDAT ??_R3CButton@@8
rdata$r	SEGMENT
??_R3CButton@@8 DD 00H					; CButton::`RTTI Class Hierarchy Descriptor'
	DD	00H
	DD	04H
	DD	FLAT:??_R2CButton@@8
rdata$r	ENDS
;	COMDAT ??_R0?AVCButton@@@8
data$rs	SEGMENT
??_R0?AVCButton@@@8 DD FLAT:??_7type_info@@6B@		; CButton `RTTI Type Descriptor'
	DD	00H
	DB	'.?AVCButton@@', 00H
data$rs	ENDS
;	COMDAT ??_R4CButton@@6B@
rdata$r	SEGMENT
??_R4CButton@@6B@ DD 00H				; CButton::`RTTI Complete Object Locator'
	DD	00H
	DD	00H
	DD	FLAT:??_R0?AVCButton@@@8
	DD	FLAT:??_R3CButton@@8
rdata$r	ENDS
;	COMDAT ??_R2CCmdTarget@@8
rdata$r	SEGMENT
??_R2CCmdTarget@@8 DD FLAT:??_R1A@?0A@EA@CCmdTarget@@8	; CCmdTarget::`RTTI Base Class Array'
	DD	FLAT:??_R1A@?0A@EA@CObject@@8
rdata$r	ENDS
;	COMDAT ??_R3CCmdTarget@@8
rdata$r	SEGMENT
??_R3CCmdTarget@@8 DD 00H				; CCmdTarget::`RTTI Class Hierarchy Descriptor'
	DD	00H
	DD	02H
	DD	FLAT:??_R2CCmdTarget@@8
rdata$r	ENDS
;	COMDAT ??_R0?AVCCmdTarget@@@8
data$rs	SEGMENT
??_R0?AVCCmdTarget@@@8 DD FLAT:??_7type_info@@6B@	; CCmdTarget `RTTI Type Descriptor'
	DD	00H
	DB	'.?AVCCmdTarget@@', 00H
data$rs	ENDS
;	COMDAT ??_R1A@?0A@EA@CCmdTarget@@8
rdata$r	SEGMENT
??_R1A@?0A@EA@CCmdTarget@@8 DD FLAT:??_R0?AVCCmdTarget@@@8 ; CCmdTarget::`RTTI Base Class Descriptor at (0,-1,0,64)'
	DD	01H
	DD	00H
	DD	0ffffffffH
	DD	00H
	DD	040H
	DD	FLAT:??_R3CCmdTarget@@8
rdata$r	ENDS
;	COMDAT ??_R2CWnd@@8
rdata$r	SEGMENT
??_R2CWnd@@8 DD	FLAT:??_R1A@?0A@EA@CWnd@@8		; CWnd::`RTTI Base Class Array'
	DD	FLAT:??_R1A@?0A@EA@CCmdTarget@@8
	DD	FLAT:??_R1A@?0A@EA@CObject@@8
rdata$r	ENDS
;	COMDAT ??_R3CWnd@@8
rdata$r	SEGMENT
??_R3CWnd@@8 DD	00H					; CWnd::`RTTI Class Hierarchy Descriptor'
	DD	00H
	DD	03H
	DD	FLAT:??_R2CWnd@@8
rdata$r	ENDS
;	COMDAT ??_R0?AVCWnd@@@8
data$rs	SEGMENT
??_R0?AVCWnd@@@8 DD FLAT:??_7type_info@@6B@		; CWnd `RTTI Type Descriptor'
	DD	00H
	DB	'.?AVCWnd@@', 00H
data$rs	ENDS
;	COMDAT ??_R1A@?0A@EA@CWnd@@8
rdata$r	SEGMENT
??_R1A@?0A@EA@CWnd@@8 DD FLAT:??_R0?AVCWnd@@@8		; CWnd::`RTTI Base Class Descriptor at (0,-1,0,64)'
	DD	02H
	DD	00H
	DD	0ffffffffH
	DD	00H
	DD	040H
	DD	FLAT:??_R3CWnd@@8
rdata$r	ENDS
;	COMDAT ??_R1A@?0A@EA@CObject@@8
rdata$r	SEGMENT
??_R1A@?0A@EA@CObject@@8 DD FLAT:??_R0?AVCObject@@@8	; CObject::`RTTI Base Class Descriptor at (0,-1,0,64)'
	DD	00H
	DD	00H
	DD	0ffffffffH
	DD	00H
	DD	040H
	DD	FLAT:??_R3CObject@@8
rdata$r	ENDS
;	COMDAT ??_R2CObject@@8
rdata$r	SEGMENT
??_R2CObject@@8 DD FLAT:??_R1A@?0A@EA@CObject@@8	; CObject::`RTTI Base Class Array'
rdata$r	ENDS
;	COMDAT ??_R3CObject@@8
rdata$r	SEGMENT
??_R3CObject@@8 DD 00H					; CObject::`RTTI Class Hierarchy Descriptor'
	DD	00H
	DD	01H
	DD	FLAT:??_R2CObject@@8
rdata$r	ENDS
;	COMDAT ??_R0?AVCObject@@@8
data$rs	SEGMENT
??_R0?AVCObject@@@8 DD FLAT:??_7type_info@@6B@		; CObject `RTTI Type Descriptor'
	DD	00H
	DB	'.?AVCObject@@', 00H
data$rs	ENDS
;	COMDAT ??_7CButton@@6B@
CONST	SEGMENT
??_7CButton@@6B@ DD FLAT:??_R4CButton@@6B@		; CButton::`vftable'
	DD	FLAT:?GetRuntimeClass@CButton@@UBEPAUCRuntimeClass@@XZ
	DD	FLAT:??_ECButton@@UAEPAXI@Z
	DD	FLAT:?Serialize@CObject@@UAEXAAVCArchive@@@Z
	DD	FLAT:?AssertValid@CObject@@UBEXXZ
	DD	FLAT:?Dump@CObject@@UBEXAAVCDumpContext@@@Z
	DD	FLAT:?OnCmdMsg@CCmdTarget@@UAEHIHPAXPAUAFX_CMDHANDLERINFO@@@Z
	DD	FLAT:?OnFinalRelease@CWnd@@UAEXXZ
	DD	FLAT:?IsInvokeAllowed@CCmdTarget@@UAEHJ@Z
	DD	FLAT:?GetDispatchIID@CCmdTarget@@UAEHPAU_GUID@@@Z
	DD	FLAT:?GetTypeInfoCount@CCmdTarget@@UAEIXZ
	DD	FLAT:?GetTypeLibCache@CCmdTarget@@UAEPAVCTypeLibCache@@XZ
	DD	FLAT:?GetTypeLib@CCmdTarget@@UAEJKPAPAUITypeLib@@@Z
	DD	FLAT:?GetMessageMap@CWnd@@MBEPBUAFX_MSGMAP@@XZ
	DD	FLAT:?GetCommandMap@CCmdTarget@@MBEPBUAFX_OLECMDMAP@@XZ
	DD	FLAT:?GetDispatchMap@CCmdTarget@@MBEPBUAFX_DISPMAP@@XZ
	DD	FLAT:?GetConnectionMap@CCmdTarget@@MBEPBUAFX_CONNECTIONMAP@@XZ
	DD	FLAT:?GetInterfaceMap@CWnd@@MBEPBUAFX_INTERFACEMAP@@XZ
	DD	FLAT:?GetEventSinkMap@CCmdTarget@@MBEPBUAFX_EVENTSINKMAP@@XZ
	DD	FLAT:?OnCreateAggregates@CCmdTarget@@UAEHXZ
	DD	FLAT:?GetInterfaceHook@CCmdTarget@@UAEPAUIUnknown@@PBX@Z
	DD	FLAT:?GetExtraConnectionPoints@CCmdTarget@@MAEHPAVCPtrArray@@@Z
	DD	FLAT:?GetConnectionHook@CCmdTarget@@MAEPAUIConnectionPoint@@ABU_GUID@@@Z
	DD	FLAT:?PreSubclassWindow@CWnd@@UAEXXZ
	DD	FLAT:?Create@CWnd@@UAEHPBD0KABUtagRECT@@PAV1@IPAUCCreateContext@@@Z
	DD	FLAT:?CreateEx@CWnd@@UAEHKPBD0KABUtagRECT@@PAV1@IPAX@Z
	DD	FLAT:?CreateEx@CWnd@@UAEHKPBD0KHHHHPAUHWND__@@PAUHMENU__@@PAX@Z
	DD	FLAT:?DestroyWindow@CWnd@@UAEHXZ
	DD	FLAT:?PreCreateWindow@CWnd@@UAEHAAUtagCREATESTRUCTA@@@Z
	DD	FLAT:?CalcWindowRect@CWnd@@UAEXPAUtagRECT@@I@Z
	DD	FLAT:?GetMenu@CWnd@@UBEPAVCMenu@@XZ
	DD	FLAT:?SetMenu@CWnd@@UAEHPAVCMenu@@@Z
	DD	FLAT:?OnToolHitTest@CWnd@@UBEHVCPoint@@PAUtagTOOLINFOA@@@Z
	DD	FLAT:?GetScrollBarCtrl@CWnd@@UBEPAVCScrollBar@@H@Z
	DD	FLAT:?WinHelpA@CWnd@@UAEXKI@Z
	DD	FLAT:?HtmlHelpA@CWnd@@UAEXKI@Z
	DD	FLAT:?WinHelpInternal@CWnd@@UAEXKI@Z
	DD	FLAT:?ContinueModal@CWnd@@UAEHXZ
	DD	FLAT:?EndModalLoop@CWnd@@UAEXH@Z
	DD	FLAT:?OnDrawIconicThumbnailOrLivePreview@CWnd@@UAEXAAVCDC@@VCRect@@VCSize@@HAAH@Z
	DD	FLAT:?EnsureStdObj@CWnd@@UAEJXZ
	DD	FLAT:?get_accParent@CWnd@@UAEJPAPAUIDispatch@@@Z
	DD	FLAT:?get_accChildCount@CWnd@@UAEJPAJ@Z
	DD	FLAT:?get_accChild@CWnd@@UAEJUtagVARIANT@@PAPAUIDispatch@@@Z
	DD	FLAT:?get_accName@CWnd@@UAEJUtagVARIANT@@PAPA_W@Z
	DD	FLAT:?get_accValue@CWnd@@UAEJUtagVARIANT@@PAPA_W@Z
	DD	FLAT:?get_accDescription@CWnd@@UAEJUtagVARIANT@@PAPA_W@Z
	DD	FLAT:?get_accRole@CWnd@@UAEJUtagVARIANT@@PAU2@@Z
	DD	FLAT:?get_accState@CWnd@@UAEJUtagVARIANT@@PAU2@@Z
	DD	FLAT:?get_accHelp@CWnd@@UAEJUtagVARIANT@@PAPA_W@Z
	DD	FLAT:?get_accHelpTopic@CWnd@@UAEJPAPA_WUtagVARIANT@@PAJ@Z
	DD	FLAT:?get_accKeyboardShortcut@CWnd@@UAEJUtagVARIANT@@PAPA_W@Z
	DD	FLAT:?get_accFocus@CWnd@@UAEJPAUtagVARIANT@@@Z
	DD	FLAT:?get_accSelection@CWnd@@UAEJPAUtagVARIANT@@@Z
	DD	FLAT:?get_accDefaultAction@CWnd@@UAEJUtagVARIANT@@PAPA_W@Z
	DD	FLAT:?accSelect@CWnd@@UAEJJUtagVARIANT@@@Z
	DD	FLAT:?accLocation@CWnd@@UAEJPAJ000UtagVARIANT@@@Z
	DD	FLAT:?accNavigate@CWnd@@UAEJJUtagVARIANT@@PAU2@@Z
	DD	FLAT:?accHitTest@CWnd@@UAEJJJPAUtagVARIANT@@@Z
	DD	FLAT:?accDoDefaultAction@CWnd@@UAEJUtagVARIANT@@@Z
	DD	FLAT:?put_accName@CWnd@@UAEJUtagVARIANT@@PA_W@Z
	DD	FLAT:?put_accValue@CWnd@@UAEJUtagVARIANT@@PA_W@Z
	DD	FLAT:?SetProxy@CWnd@@UAEJPAUIAccessibleProxy@@@Z
	DD	FLAT:?CreateAccessibleProxy@CWnd@@UAEJIJPAJ@Z
	DD	FLAT:?OnCommand@CWnd@@MAEHIJ@Z
	DD	FLAT:?OnNotify@CWnd@@MAEHIJPAJ@Z
	DD	FLAT:?GetSuperWndProcAddr@CWnd@@MAEPAP6GJPAUHWND__@@IIJ@ZXZ
	DD	FLAT:?DoDataExchange@CWnd@@MAEXPAVCDataExchange@@@Z
	DD	FLAT:?BeginModalState@CWnd@@UAEXXZ
	DD	FLAT:?EndModalState@CWnd@@UAEXXZ
	DD	FLAT:?PreTranslateMessage@CWnd@@UAEHPAUtagMSG@@@Z
	DD	FLAT:?OnAmbientProperty@CWnd@@UAEHPAVCOleControlSite@@JPAUtagVARIANT@@@Z
	DD	FLAT:?WindowProc@CWnd@@MAEJIIJ@Z
	DD	FLAT:?OnWndMsg@CWnd@@MAEHIIJPAJ@Z
	DD	FLAT:?DefWindowProcA@CWnd@@MAEJIIJ@Z
	DD	FLAT:?PostNcDestroy@CWnd@@MAEXXZ
	DD	FLAT:?OnChildNotify@CButton@@MAEHIIJPAJ@Z
	DD	FLAT:?OnTouchInputs@CWnd@@MAEHIPAUtagTOUCHINPUT@@@Z
	DD	FLAT:?OnTouchInput@CWnd@@MAEHVCPoint@@HHPAUtagTOUCHINPUT@@@Z
	DD	FLAT:?GetGestureStatus@CWnd@@MAEKVCPoint@@@Z
	DD	FLAT:?OnGestureZoom@CWnd@@MAEHVCPoint@@J@Z
	DD	FLAT:?OnGesturePan@CWnd@@MAEHVCPoint@@0@Z
	DD	FLAT:?OnGestureRotate@CWnd@@MAEHVCPoint@@N@Z
	DD	FLAT:?OnGestureTwoFingerTap@CWnd@@MAEHVCPoint@@@Z
	DD	FLAT:?OnGesturePressAndTap@CWnd@@MAEHVCPoint@@J@Z
	DD	FLAT:?ResizeDynamicLayout@CWnd@@MAEXXZ
	DD	FLAT:?CheckAutoCenter@CWnd@@UAEHXZ
	DD	FLAT:?IsFrameWnd@CWnd@@UBEHXZ
	DD	FLAT:?CreateControlContainer@CWnd@@MAEHPAPAVCOleControlContainer@@@Z
	DD	FLAT:?CreateControlSite@CWnd@@MAEHPAVCOleControlContainer@@PAPAVCOleControlSite@@IABU_GUID@@@Z
	DD	FLAT:?SetOccDialogInfo@CWnd@@MAEHPAU_AFX_OCC_DIALOG_INFO@@@Z
	DD	FLAT:?GetOccDialogInfo@CWnd@@MAEPAU_AFX_OCC_DIALOG_INFO@@XZ
	DD	FLAT:?Create@CButton@@UAEHPBDKABUtagRECT@@PAVCWnd@@I@Z
	DD	FLAT:?DrawItem@CButton@@UAEXPAUtagDRAWITEMSTRUCT@@@Z
CONST	ENDS
;	COMDAT ??_C@_00CNPNBAHC@@
CONST	SEGMENT
??_C@_00CNPNBAHC@@ DB 00H				; `string'
CONST	ENDS
;	COMDAT ??_C@_02DPKJAMEF@?$CFd@
CONST	SEGMENT
??_C@_02DPKJAMEF@?$CFd@ DB '%d', 00H			; `string'
CONST	ENDS
;	COMDAT xdata$x
xdata$x	SEGMENT
__unwindtable$?OnBtnAdd@CTabVariables@@IAEXXZ DD 0ffffffffH
	DD	FLAT:__unwindfunclet$?OnBtnAdd@CTabVariables@@IAEXXZ$0
	DD	00H
	DD	FLAT:__unwindfunclet$?OnBtnAdd@CTabVariables@@IAEXXZ$1
	DD	01H
	DD	FLAT:__unwindfunclet$?OnBtnAdd@CTabVariables@@IAEXXZ$2
__ehfuncinfo$?OnBtnAdd@CTabVariables@@IAEXXZ DD 019930522H
	DD	03H
	DD	FLAT:__unwindtable$?OnBtnAdd@CTabVariables@@IAEXXZ
	DD	2 DUP(00H)
	DD	2 DUP(00H)
	DD	00H
	DD	01H
xdata$x	ENDS
;	COMDAT xdata$x
xdata$x	SEGMENT
__unwindtable$?OnInitDialog@CTabVariables@@MAEHXZ DD 0ffffffffH
	DD	FLAT:__unwindfunclet$?OnInitDialog@CTabVariables@@MAEHXZ$0
__ehfuncinfo$?OnInitDialog@CTabVariables@@MAEHXZ DD 019930522H
	DD	01H
	DD	FLAT:__unwindtable$?OnInitDialog@CTabVariables@@MAEHXZ
	DD	2 DUP(00H)
	DD	2 DUP(00H)
	DD	00H
	DD	01H
xdata$x	ENDS
;	COMDAT xdata$x
xdata$x	SEGMENT
__unwindtable$?CheckWhetherHasSameName@CTabVariables@@IAEHPBD@Z DD 0ffffffffH
	DD	FLAT:__unwindfunclet$?CheckWhetherHasSameName@CTabVariables@@IAEHPBD@Z$0
	DD	00H
	DD	FLAT:__unwindfunclet$?CheckWhetherHasSameName@CTabVariables@@IAEHPBD@Z$1
__ehfuncinfo$?CheckWhetherHasSameName@CTabVariables@@IAEHPBD@Z DD 019930522H
	DD	02H
	DD	FLAT:__unwindtable$?CheckWhetherHasSameName@CTabVariables@@IAEHPBD@Z
	DD	2 DUP(00H)
	DD	2 DUP(00H)
	DD	00H
	DD	01H
xdata$x	ENDS
;	COMDAT xdata$x
xdata$x	SEGMENT
__unwindtable$?RemoveInfo@CTabVariables@@MAEXXZ DD 0ffffffffH
	DD	FLAT:__unwindfunclet$?RemoveInfo@CTabVariables@@MAEXXZ$0
__ehfuncinfo$?RemoveInfo@CTabVariables@@MAEXXZ DD 019930522H
	DD	01H
	DD	FLAT:__unwindtable$?RemoveInfo@CTabVariables@@MAEXXZ
	DD	2 DUP(00H)
	DD	2 DUP(00H)
	DD	00H
	DD	01H
xdata$x	ENDS
;	COMDAT xdata$x
xdata$x	SEGMENT
__unwindtable$?SaveInfo@CTabVariables@@MAEHXZ DD 0ffffffffH
	DD	FLAT:__unwindfunclet$?SaveInfo@CTabVariables@@MAEHXZ$0
	DD	00H
	DD	FLAT:__unwindfunclet$?SaveInfo@CTabVariables@@MAEHXZ$1
	DD	01H
	DD	FLAT:__unwindfunclet$?SaveInfo@CTabVariables@@MAEHXZ$2
	DD	01H
	DD	FLAT:__unwindfunclet$?SaveInfo@CTabVariables@@MAEHXZ$3
__ehfuncinfo$?SaveInfo@CTabVariables@@MAEHXZ DD 019930522H
	DD	04H
	DD	FLAT:__unwindtable$?SaveInfo@CTabVariables@@MAEHXZ
	DD	2 DUP(00H)
	DD	2 DUP(00H)
	DD	00H
	DD	01H
xdata$x	ENDS
;	COMDAT xdata$x
xdata$x	SEGMENT
__ehfuncinfo$?LoadInfo@CTabVariables@@MAEXXZ DD 019930522H
	DD	06H
	DD	FLAT:__unwindtable$?LoadInfo@CTabVariables@@MAEXXZ
	DD	2 DUP(00H)
	DD	2 DUP(00H)
	DD	00H
	DD	01H
__unwindtable$?LoadInfo@CTabVariables@@MAEXXZ DD 0ffffffffH
	DD	FLAT:__unwindfunclet$?LoadInfo@CTabVariables@@MAEXXZ$0
	DD	00H
	DD	FLAT:__unwindfunclet$?LoadInfo@CTabVariables@@MAEXXZ$1
	DD	01H
	DD	FLAT:__unwindfunclet$?LoadInfo@CTabVariables@@MAEXXZ$2
	DD	02H
	DD	FLAT:__unwindfunclet$?LoadInfo@CTabVariables@@MAEXXZ$3
	DD	03H
	DD	FLAT:__unwindfunclet$?LoadInfo@CTabVariables@@MAEXXZ$4
	DD	03H
	DD	FLAT:__unwindfunclet$?LoadInfo@CTabVariables@@MAEXXZ$5
xdata$x	ENDS
;	COMDAT xdata$x
xdata$x	SEGMENT
__unwindtable$??0CTabVariables@@QAE@PAVCWnd@@@Z DD 0ffffffffH
	DD	FLAT:__unwindfunclet$??0CTabVariables@@QAE@PAVCWnd@@@Z$0
	DD	00H
	DD	FLAT:__unwindfunclet$??0CTabVariables@@QAE@PAVCWnd@@@Z$1
	DD	01H
	DD	FLAT:__unwindfunclet$??0CTabVariables@@QAE@PAVCWnd@@@Z$2
	DD	02H
	DD	FLAT:__unwindfunclet$??0CTabVariables@@QAE@PAVCWnd@@@Z$3
__ehfuncinfo$??0CTabVariables@@QAE@PAVCWnd@@@Z DD 019930522H
	DD	04H
	DD	FLAT:__unwindtable$??0CTabVariables@@QAE@PAVCWnd@@@Z
	DD	2 DUP(00H)
	DD	2 DUP(00H)
	DD	00H
	DD	01H
xdata$x	ENDS
; Function compile flags: /Ogtp
; File C:\Program Files (x86)\Microsoft Visual Studio\2019\Community\VC\Tools\MSVC\14.29.30133\atlmfc\include\afx.inl
;	COMDAT ??_GCTabVariables@@UAEPAXI@Z
_TEXT	SEGMENT
___flags$ = 8						; size = 4
??_GCTabVariables@@UAEPAXI@Z PROC			; CTabVariables::`scalar deleting destructor', COMDAT
; _this$ = ecx
  00000	55		 push	 ebp
  00001	8b ec		 mov	 ebp, esp
  00003	56		 push	 esi
  00004	8b f1		 mov	 esi, ecx
  00006	8d 8e 30 02 00
	00		 lea	 ecx, DWORD PTR [esi+560]
  0000c	e8 00 00 00 00	 call	 ??1CXListCtrl@@UAE@XZ	; CXListCtrl::~CXListCtrl
  00011	8d 8e b0 01 00
	00		 lea	 ecx, DWORD PTR [esi+432]
  00017	e8 00 00 00 00	 call	 ??1CButton@@UAE@XZ	; CButton::~CButton
  0001c	8d 8e 30 01 00
	00		 lea	 ecx, DWORD PTR [esi+304]
  00022	e8 00 00 00 00	 call	 ??1CButton@@UAE@XZ	; CButton::~CButton
  00027	8d 8e b0 00 00
	00		 lea	 ecx, DWORD PTR [esi+176]
  0002d	e8 00 00 00 00	 call	 ??1CButton@@UAE@XZ	; CButton::~CButton
  00032	8d 8e ac 00 00
	00		 lea	 ecx, DWORD PTR [esi+172]
  00038	ff 15 00 00 00
	00		 call	 DWORD PTR __imp_??1?$CStringT@DV?$StrTraitMFC_DLL@DV?$ChTraitsCRT@D@ATL@@@@@ATL@@QAE@XZ
  0003e	8d 8e a8 00 00
	00		 lea	 ecx, DWORD PTR [esi+168]
  00044	ff 15 00 00 00
	00		 call	 DWORD PTR __imp_??1?$CStringT@DV?$StrTraitMFC_DLL@DV?$ChTraitsCRT@D@ATL@@@@@ATL@@QAE@XZ
  0004a	8b ce		 mov	 ecx, esi
  0004c	e8 00 00 00 00	 call	 ??1CDialog@@UAE@XZ	; CDialog::~CDialog
  00051	8b 45 08	 mov	 eax, DWORD PTR ___flags$[ebp]
  00054	a8 01		 test	 al, 1
  00056	74 22		 je	 SHORT $LN15@scalar
  00058	a8 04		 test	 al, 4
  0005a	75 10		 jne	 SHORT $LN3@scalar

; 112  : 	{ ::operator delete(p); }

  0005c	56		 push	 esi
  0005d	e8 00 00 00 00	 call	 ??3@YAXPAX@Z		; operator delete
  00062	83 c4 04	 add	 esp, 4
  00065	8b c6		 mov	 eax, esi
  00067	5e		 pop	 esi
  00068	5d		 pop	 ebp
  00069	c2 04 00	 ret	 4
$LN3@scalar:
  0006c	68 e8 03 00 00	 push	 1000			; 000003e8H
  00071	56		 push	 esi
  00072	e8 00 00 00 00	 call	 ?__global_delete@@YAXPAXI@Z ; __global_delete
  00077	83 c4 08	 add	 esp, 8
$LN15@scalar:
  0007a	8b c6		 mov	 eax, esi
  0007c	5e		 pop	 esi
  0007d	5d		 pop	 ebp
  0007e	c2 04 00	 ret	 4
??_GCTabVariables@@UAEPAXI@Z ENDP			; CTabVariables::`scalar deleting destructor'
_TEXT	ENDS
; Function compile flags: /Ogtp
; File D:\git\src\IBK\IBK_DRFN\ProjSrc\SrcDrfn\Chart\STCONFIGUREDLG\TabVariables.cpp
;	COMDAT ?GetMessageMap@CTabVariables@@MBEPBUAFX_MSGMAP@@XZ
_TEXT	SEGMENT
?GetMessageMap@CTabVariables@@MBEPBUAFX_MSGMAP@@XZ PROC	; CTabVariables::GetMessageMap, COMDAT
; _this$ = ecx

; 44   : BEGIN_MESSAGE_MAP(CTabVariables, CRscDlg)

  00000	b8 00 00 00 00	 mov	 eax, OFFSET ?messageMap@?1??GetThisMessageMap@CTabVariables@@KGPBUAFX_MSGMAP@@XZ@4U3@B
  00005	c3		 ret	 0
?GetMessageMap@CTabVariables@@MBEPBUAFX_MSGMAP@@XZ ENDP	; CTabVariables::GetMessageMap
_TEXT	ENDS
; Function compile flags: /Ogtp
; File D:\git\src\IBK\IBK_DRFN\ProjSrc\SrcDrfn\Chart\STCONFIGUREDLG\TabVariables.cpp
;	COMDAT ?GetThisMessageMap@CTabVariables@@KGPBUAFX_MSGMAP@@XZ
_TEXT	SEGMENT
?GetThisMessageMap@CTabVariables@@KGPBUAFX_MSGMAP@@XZ PROC ; CTabVariables::GetThisMessageMap, COMDAT

; 45   : 	//{{AFX_MSG_MAP(CTabVariables)
; 46   : 	ON_BN_CLICKED(IDC_BTN_ADD, OnBtnAdd)
; 47   : 	ON_BN_CLICKED(IDC_BTN_DELETE, OnBtnDelete)
; 48   : 	ON_WM_CTLCOLOR()
; 49   : 	//}}AFX_MSG_MAP
; 50   : END_MESSAGE_MAP()

  00000	b8 00 00 00 00	 mov	 eax, OFFSET ?messageMap@?1??GetThisMessageMap@CTabVariables@@KGPBUAFX_MSGMAP@@XZ@4U3@B
  00005	c3		 ret	 0
?GetThisMessageMap@CTabVariables@@KGPBUAFX_MSGMAP@@XZ ENDP ; CTabVariables::GetThisMessageMap
_TEXT	ENDS
; Function compile flags: /Ogtp
; File D:\git\src\IBK\IBK_DRFN\ProjSrc\SrcDrfn\Chart\STCONFIGUREDLG\TabVariables.cpp
; File C:\Program Files (x86)\Microsoft Visual Studio\2019\Community\VC\Tools\MSVC\14.29.30133\atlmfc\include\afxwin1.inl
; File D:\git\src\IBK\IBK_DRFN\ProjSrc\SrcDrfn\Chart\STCONFIGUREDLG\TabVariables.cpp
; File C:\Program Files (x86)\Microsoft Visual Studio\2019\Community\VC\Tools\MSVC\14.29.30133\atlmfc\include\afxwin1.inl
; File D:\git\src\IBK\IBK_DRFN\ProjSrc\SrcDrfn\Chart\STCONFIGUREDLG\TabVariables.cpp
;	COMDAT ?OnCtlColor@CTabVariables@@IAEPAUHBRUSH__@@PAVCDC@@PAVCWnd@@I@Z
_TEXT	SEGMENT
_pDC$ = 8						; size = 4
_pWnd$ = 12						; size = 4
_nCtlColor$ = 16					; size = 4
?OnCtlColor@CTabVariables@@IAEPAUHBRUSH__@@PAVCDC@@PAVCWnd@@I@Z PROC ; CTabVariables::OnCtlColor, COMDAT
; _this$ = ecx

; 333  : {

  00000	55		 push	 ebp
  00001	8b ec		 mov	 ebp, esp
  00003	53		 push	 ebx

; 334  : 	HBRUSH hbr = CRscDlg::OnCtlColor(pDC, pWnd, nCtlColor);

  00004	8b 5d 08	 mov	 ebx, DWORD PTR _pDC$[ebp]
  00007	56		 push	 esi
  00008	8b 75 10	 mov	 esi, DWORD PTR _nCtlColor$[ebp]
  0000b	57		 push	 edi
  0000c	56		 push	 esi
  0000d	ff 75 0c	 push	 DWORD PTR _pWnd$[ebp]
  00010	8b f9		 mov	 edi, ecx
  00012	53		 push	 ebx
  00013	e8 00 00 00 00	 call	 ?OnCtlColor@CWnd@@IAEPAUHBRUSH__@@PAVCDC@@PAV1@I@Z ; CWnd::OnCtlColor

; 335  : 	
; 336  : 	// TODO: Change any attributes of the DC here
; 337  : 	switch(nCtlColor) 

  00018	83 ee 01	 sub	 esi, 1
  0001b	74 26		 je	 SHORT $LN1@OnCtlColor
  0001d	83 ee 01	 sub	 esi, 1
  00020	74 21		 je	 SHORT $LN1@OnCtlColor

; 338  : 	{
; 339  : 	case CTLCOLOR_EDIT:
; 340  : 	case CTLCOLOR_LISTBOX:
; 341  : 		return hbr;
; 342  : 		break;
; 343  : 	default:
; 344  : 		pDC->SetBkColor(m_crBk);

  00022	8b 03		 mov	 eax, DWORD PTR [ebx]
  00024	8b cb		 mov	 ecx, ebx
  00026	ff b7 d8 03 00
	00		 push	 DWORD PTR [edi+984]
  0002c	ff 50 34	 call	 DWORD PTR [eax+52]

; 345  : 		return *m_pBrBkColor;		

  0002f	8b 87 dc 03 00
	00		 mov	 eax, DWORD PTR [edi+988]
; File C:\Program Files (x86)\Microsoft Visual Studio\2019\Community\VC\Tools\MSVC\14.29.30133\atlmfc\include\afxwin1.inl

; 124  : 	{ return (HBRUSH)(this == NULL ? NULL : m_hObject); }

  00035	85 c0		 test	 eax, eax
  00037	75 07		 jne	 SHORT $LN10@OnCtlColor
; File D:\git\src\IBK\IBK_DRFN\ProjSrc\SrcDrfn\Chart\STCONFIGUREDLG\TabVariables.cpp

; 351  : }

  00039	5f		 pop	 edi
  0003a	5e		 pop	 esi
  0003b	5b		 pop	 ebx
  0003c	5d		 pop	 ebp
  0003d	c2 0c 00	 ret	 12			; 0000000cH
$LN10@OnCtlColor:
; File C:\Program Files (x86)\Microsoft Visual Studio\2019\Community\VC\Tools\MSVC\14.29.30133\atlmfc\include\afxwin1.inl

; 124  : 	{ return (HBRUSH)(this == NULL ? NULL : m_hObject); }

  00040	8b 40 04	 mov	 eax, DWORD PTR [eax+4]
$LN1@OnCtlColor:
  00043	5f		 pop	 edi
; File D:\git\src\IBK\IBK_DRFN\ProjSrc\SrcDrfn\Chart\STCONFIGUREDLG\TabVariables.cpp

; 351  : }

  00044	5e		 pop	 esi
  00045	5b		 pop	 ebx
  00046	5d		 pop	 ebp
  00047	c2 0c 00	 ret	 12			; 0000000cH
?OnCtlColor@CTabVariables@@IAEPAUHBRUSH__@@PAVCDC@@PAVCWnd@@I@Z ENDP ; CTabVariables::OnCtlColor
_TEXT	ENDS
; Function compile flags: /Ogtp
; File D:\git\src\IBK\IBK_DRFN\ProjSrc\SrcDrfn\Chart\STCONFIGUREDLG\TabVariables.cpp
; File C:\Program Files (x86)\Microsoft Visual Studio\2019\Community\VC\Tools\MSVC\14.29.30133\atlmfc\include\afxcmn.inl
; File D:\git\src\IBK\IBK_DRFN\ProjSrc\SrcDrfn\Chart\STCONFIGUREDLG\TabVariables.cpp
; File C:\Program Files (x86)\Microsoft Visual Studio\2019\Community\VC\Tools\MSVC\14.29.30133\atlmfc\include\afxcmn.inl
; File D:\git\src\IBK\IBK_DRFN\ProjSrc\SrcDrfn\Chart\STCONFIGUREDLG\TabVariables.cpp
;	COMDAT ?OnBtnDelete@CTabVariables@@IAEXXZ
_TEXT	SEGMENT
?OnBtnDelete@CTabVariables@@IAEXXZ PROC			; CTabVariables::OnBtnDelete, COMDAT
; _this$ = ecx

; 298  : {

  00000	53		 push	 ebx
  00001	56		 push	 esi
  00002	57		 push	 edi
; File C:\Program Files (x86)\Microsoft Visual Studio\2019\Community\VC\Tools\MSVC\14.29.30133\atlmfc\include\afxcmn.inl

; 155  : 	{ ASSERT(::IsWindow(m_hWnd)); return (int) ::SendMessage(m_hWnd, LVM_GETITEMCOUNT, 0, 0L); }

  00003	6a 00		 push	 0
; File D:\git\src\IBK\IBK_DRFN\ProjSrc\SrcDrfn\Chart\STCONFIGUREDLG\TabVariables.cpp

; 298  : {

  00005	8b f1		 mov	 esi, ecx
; File C:\Program Files (x86)\Microsoft Visual Studio\2019\Community\VC\Tools\MSVC\14.29.30133\atlmfc\include\afxcmn.inl

; 155  : 	{ ASSERT(::IsWindow(m_hWnd)); return (int) ::SendMessage(m_hWnd, LVM_GETITEMCOUNT, 0, 0L); }

  00007	6a 00		 push	 0
  00009	68 04 10 00 00	 push	 4100			; 00001004H
  0000e	ff b6 50 02 00
	00		 push	 DWORD PTR [esi+592]
  00014	ff 15 00 00 00
	00		 call	 DWORD PTR __imp__SendMessageA@16
; File D:\git\src\IBK\IBK_DRFN\ProjSrc\SrcDrfn\Chart\STCONFIGUREDLG\TabVariables.cpp

; 301  : 	int nPos = m_listVariables.GetCurSel();

  0001a	81 c6 30 02 00
	00		 add	 esi, 560		; 00000230H
  00020	8b f8		 mov	 edi, eax
  00022	8b ce		 mov	 ecx, esi
  00024	e8 00 00 00 00	 call	 ?GetCurSel@CXListCtrl@@QAEHXZ ; CXListCtrl::GetCurSel
  00029	8b d8		 mov	 ebx, eax

; 302  : 	if(nPos==-1) return;

  0002b	83 fb ff	 cmp	 ebx, -1
  0002e	74 28		 je	 SHORT $LN5@OnBtnDelet

; 303  : 	m_listVariables.DeleteItem(nPos);

  00030	53		 push	 ebx
  00031	8b ce		 mov	 ecx, esi
  00033	e8 00 00 00 00	 call	 ?DeleteItem@CXListCtrl@@QAEHH@Z ; CXListCtrl::DeleteItem

; 304  : 	nCnt -= 1;

  00038	4f		 dec	 edi

; 305  : 	if(nCnt>nPos&&nCnt>0)

  00039	85 ff		 test	 edi, edi
  0003b	7e 1b		 jle	 SHORT $LN5@OnBtnDelet
  0003d	8b ce		 mov	 ecx, esi
  0003f	6a 01		 push	 1
  00041	3b fb		 cmp	 edi, ebx
  00043	7e 0a		 jle	 SHORT $LN3@OnBtnDelet

; 306  : 	{
; 307  : 		m_listVariables.SetCurSel(nPos);

  00045	53		 push	 ebx

; 312  : 	}
; 313  : 	
; 314  : }

  00046	e8 00 00 00 00	 call	 ?SetCurSel@CXListCtrl@@QAEHHH@Z ; CXListCtrl::SetCurSel
  0004b	5f		 pop	 edi
  0004c	5e		 pop	 esi
  0004d	5b		 pop	 ebx
  0004e	c3		 ret	 0
$LN3@OnBtnDelet:

; 308  : 	}
; 309  : 	else if(nCnt>0)
; 310  : 	{
; 311  : 		m_listVariables.SetCurSel(nCnt-1);

  0004f	8d 47 ff	 lea	 eax, DWORD PTR [edi-1]
  00052	50		 push	 eax

; 312  : 	}
; 313  : 	
; 314  : }

  00053	e8 00 00 00 00	 call	 ?SetCurSel@CXListCtrl@@QAEHHH@Z ; CXListCtrl::SetCurSel
$LN5@OnBtnDelet:
  00058	5f		 pop	 edi
  00059	5e		 pop	 esi
  0005a	5b		 pop	 ebx
  0005b	c3		 ret	 0
?OnBtnDelete@CTabVariables@@IAEXXZ ENDP			; CTabVariables::OnBtnDelete
_TEXT	ENDS
; Function compile flags: /Ogtp
; File D:\git\src\IBK\IBK_DRFN\ProjSrc\SrcDrfn\Chart\STCONFIGUREDLG\TabVariables.cpp
; File C:\Program Files (x86)\Microsoft Visual Studio\2019\Community\VC\Tools\MSVC\14.29.30133\atlmfc\include\afxcmn.inl
; File D:\git\src\IBK\IBK_DRFN\ProjSrc\SrcDrfn\Chart\STCONFIGUREDLG\TabVariables.cpp
; File C:\Program Files (x86)\Microsoft Visual Studio\2019\Community\VC\Tools\MSVC\14.29.30133\atlmfc\include\atlsimpstr.h
; File D:\git\src\IBK\IBK_DRFN\ProjSrc\SrcDrfn\Chart\STCONFIGUREDLG\TabVariables.cpp
; File C:\Program Files (x86)\Microsoft Visual Studio\2019\Community\VC\Tools\MSVC\14.29.30133\atlmfc\include\atlsimpstr.h
; File D:\git\src\IBK\IBK_DRFN\ProjSrc\SrcDrfn\Chart\STCONFIGUREDLG\TabVariables.cpp
; File C:\Program Files (x86)\Microsoft Visual Studio\2019\Community\VC\Tools\MSVC\14.29.30133\atlmfc\include\afxcmn.inl
; File D:\git\src\IBK\IBK_DRFN\ProjSrc\SrcDrfn\Chart\STCONFIGUREDLG\TabVariables.cpp
; File C:\Program Files (x86)\Microsoft Visual Studio\2019\Community\VC\Tools\MSVC\14.29.30133\atlmfc\include\afxcmn.inl
; File D:\git\src\IBK\IBK_DRFN\ProjSrc\SrcDrfn\Chart\STCONFIGUREDLG\TabVariables.cpp
; File C:\Program Files (x86)\Microsoft Visual Studio\2019\Community\VC\Tools\MSVC\14.29.30133\atlmfc\include\cstringt.h
; File D:\git\src\IBK\IBK_DRFN\ProjSrc\SrcDrfn\Chart\STCONFIGUREDLG\TabVariables.cpp
;	COMDAT ?OnBtnAdd@CTabVariables@@IAEXXZ
_TEXT	SEGMENT
$T2 = -36						; size = 4
$T3 = -32						; size = 4
_nPos$1$ = -28						; size = 4
_this$1$ = -24						; size = 4
_strName$ = -20						; size = 4
_strItemName$4 = -16					; size = 4
__$EHRec$ = -12						; size = 12
?OnBtnAdd@CTabVariables@@IAEXXZ PROC			; CTabVariables::OnBtnAdd, COMDAT
; _this$ = ecx

; 272  : {

  00000	55		 push	 ebp
  00001	8b ec		 mov	 ebp, esp
  00003	6a ff		 push	 -1
  00005	68 00 00 00 00	 push	 __ehhandler$?OnBtnAdd@CTabVariables@@IAEXXZ
  0000a	64 a1 00 00 00
	00		 mov	 eax, DWORD PTR fs:0
  00010	50		 push	 eax
  00011	83 ec 18	 sub	 esp, 24			; 00000018H
  00014	53		 push	 ebx
  00015	56		 push	 esi
  00016	57		 push	 edi
  00017	a1 00 00 00 00	 mov	 eax, DWORD PTR ___security_cookie
  0001c	33 c5		 xor	 eax, ebp
  0001e	50		 push	 eax
  0001f	8d 45 f4	 lea	 eax, DWORD PTR __$EHRec$[ebp]
  00022	64 a3 00 00 00
	00		 mov	 DWORD PTR fs:0, eax
  00028	8b f9		 mov	 edi, ecx
  0002a	89 7d e8	 mov	 DWORD PTR _this$1$[ebp], edi
; File C:\Program Files (x86)\Microsoft Visual Studio\2019\Community\VC\Tools\MSVC\14.29.30133\atlmfc\include\afxcmn.inl

; 155  : 	{ ASSERT(::IsWindow(m_hWnd)); return (int) ::SendMessage(m_hWnd, LVM_GETITEMCOUNT, 0, 0L); }

  0002d	6a 00		 push	 0
  0002f	6a 00		 push	 0
  00031	68 04 10 00 00	 push	 4100			; 00001004H
  00036	ff b7 50 02 00
	00		 push	 DWORD PTR [edi+592]
  0003c	ff 15 00 00 00
	00		 call	 DWORD PTR __imp__SendMessageA@16
; File D:\git\src\IBK\IBK_DRFN\ProjSrc\SrcDrfn\Chart\STCONFIGUREDLG\TabVariables.cpp

; 275  : 	int nPos = m_listVariables.GetCurSel() + 1;

  00042	8d 8f 30 02 00
	00		 lea	 ecx, DWORD PTR [edi+560]
  00048	8b f0		 mov	 esi, eax
  0004a	e8 00 00 00 00	 call	 ?GetCurSel@CXListCtrl@@QAEHXZ ; CXListCtrl::GetCurSel
  0004f	83 c0 01	 add	 eax, 1
  00052	89 45 e4	 mov	 DWORD PTR _nPos$1$[ebp], eax

; 276  : 	if(nPos==0&&nCnt>0)

  00055	75 08		 jne	 SHORT $LN5@OnBtnAdd
  00057	85 f6		 test	 esi, esi
  00059	0f 4f c6	 cmovg	 eax, esi
  0005c	89 45 e4	 mov	 DWORD PTR _nPos$1$[ebp], eax
$LN5@OnBtnAdd:

; 277  : 	{
; 278  : 		nPos = nCnt;
; 279  : 	}
; 280  : 	CString strName;

  0005f	8d 4d ec	 lea	 ecx, DWORD PTR _strName$[ebp]
  00062	ff 15 00 00 00
	00		 call	 DWORD PTR __imp_??0?$CStringT@DV?$StrTraitMFC_DLL@DV?$ChTraitsCRT@D@ATL@@@@@ATL@@QAE@XZ
  00068	c7 45 fc 00 00
	00 00		 mov	 DWORD PTR __$EHRec$[ebp+8], 0

; 281  : 	for(int nIndex=0;nIndex<100;nIndex++)

  0006f	33 db		 xor	 ebx, ebx
$LL4@OnBtnAdd:

; 282  : 	{
; 283  : 		strName.Format("NewVariable%d",nIndex);

  00071	53		 push	 ebx
  00072	8d 45 ec	 lea	 eax, DWORD PTR _strName$[ebp]
  00075	68 00 00 00 00	 push	 OFFSET ??_C@_0O@FPGHFDEA@NewVariable?$CFd@
  0007a	50		 push	 eax
  0007b	ff 15 00 00 00
	00		 call	 DWORD PTR __imp_?Format@?$CStringT@DV?$StrTraitMFC_DLL@DV?$ChTraitsCRT@D@ATL@@@@@ATL@@QAAXPBDZZ
; File C:\Program Files (x86)\Microsoft Visual Studio\2019\Community\VC\Tools\MSVC\14.29.30133\atlmfc\include\atlsimpstr.h

; 377  : 		return( m_pszData );

  00081	8b 45 ec	 mov	 eax, DWORD PTR _strName$[ebp]
; File D:\git\src\IBK\IBK_DRFN\ProjSrc\SrcDrfn\Chart\STCONFIGUREDLG\TabVariables.cpp

; 318  : 	CString strItemName;

  00084	8d 4d f0	 lea	 ecx, DWORD PTR _strItemName$4[ebp]

; 282  : 	{
; 283  : 		strName.Format("NewVariable%d",nIndex);

  00087	83 c4 0c	 add	 esp, 12			; 0000000cH
; File C:\Program Files (x86)\Microsoft Visual Studio\2019\Community\VC\Tools\MSVC\14.29.30133\atlmfc\include\atlsimpstr.h

; 377  : 		return( m_pszData );

  0008a	89 45 dc	 mov	 DWORD PTR $T2[ebp], eax
; File D:\git\src\IBK\IBK_DRFN\ProjSrc\SrcDrfn\Chart\STCONFIGUREDLG\TabVariables.cpp

; 318  : 	CString strItemName;

  0008d	ff 15 00 00 00
	00		 call	 DWORD PTR __imp_??0?$CStringT@DV?$StrTraitMFC_DLL@DV?$ChTraitsCRT@D@ATL@@@@@ATL@@QAE@XZ
; File C:\Program Files (x86)\Microsoft Visual Studio\2019\Community\VC\Tools\MSVC\14.29.30133\atlmfc\include\afxcmn.inl

; 155  : 	{ ASSERT(::IsWindow(m_hWnd)); return (int) ::SendMessage(m_hWnd, LVM_GETITEMCOUNT, 0, 0L); }

  00093	6a 00		 push	 0
  00095	6a 00		 push	 0
  00097	68 04 10 00 00	 push	 4100			; 00001004H
  0009c	ff b7 50 02 00
	00		 push	 DWORD PTR [edi+592]
; File D:\git\src\IBK\IBK_DRFN\ProjSrc\SrcDrfn\Chart\STCONFIGUREDLG\TabVariables.cpp

; 318  : 	CString strItemName;

  000a2	c6 45 fc 01	 mov	 BYTE PTR __$EHRec$[ebp+8], 1
; File C:\Program Files (x86)\Microsoft Visual Studio\2019\Community\VC\Tools\MSVC\14.29.30133\atlmfc\include\afxcmn.inl

; 155  : 	{ ASSERT(::IsWindow(m_hWnd)); return (int) ::SendMessage(m_hWnd, LVM_GETITEMCOUNT, 0, 0L); }

  000a6	ff 15 00 00 00
	00		 call	 DWORD PTR __imp__SendMessageA@16
; File D:\git\src\IBK\IBK_DRFN\ProjSrc\SrcDrfn\Chart\STCONFIGUREDLG\TabVariables.cpp

; 319  : 	int nCnt = m_listVariables.GetItemCount();

  000ac	8b f8		 mov	 edi, eax

; 320  : 	for(int nPos=0;nPos<nCnt;nPos++)

  000ae	33 f6		 xor	 esi, esi
  000b0	85 ff		 test	 edi, edi
  000b2	7e 49		 jle	 SHORT $LN39@OnBtnAdd
$LL17@OnBtnAdd:

; 321  : 	{
; 322  : 		strItemName = m_listVariables.GetItemText(nPos,0);

  000b4	8b 4d e8	 mov	 ecx, DWORD PTR _this$1$[ebp]
  000b7	8d 45 e0	 lea	 eax, DWORD PTR $T3[ebp]
  000ba	6a 00		 push	 0
  000bc	56		 push	 esi
  000bd	50		 push	 eax
  000be	8d 89 30 02 00
	00		 lea	 ecx, DWORD PTR [ecx+560]
  000c4	e8 00 00 00 00	 call	 ?GetItemText@CListCtrl@@QBE?AV?$CStringT@DV?$StrTraitMFC_DLL@DV?$ChTraitsCRT@D@ATL@@@@@ATL@@HH@Z ; CListCtrl::GetItemText
  000c9	50		 push	 eax
  000ca	8d 4d f0	 lea	 ecx, DWORD PTR _strItemName$4[ebp]
  000cd	c6 45 fc 02	 mov	 BYTE PTR __$EHRec$[ebp+8], 2
  000d1	ff 15 00 00 00
	00		 call	 DWORD PTR __imp_??4?$CStringT@DV?$StrTraitMFC_DLL@DV?$ChTraitsCRT@D@ATL@@@@@ATL@@QAEAAV01@ABV01@@Z
  000d7	8d 4d e0	 lea	 ecx, DWORD PTR $T3[ebp]
  000da	c6 45 fc 01	 mov	 BYTE PTR __$EHRec$[ebp+8], 1
  000de	ff 15 00 00 00
	00		 call	 DWORD PTR __imp_??1?$CStringT@DV?$StrTraitMFC_DLL@DV?$ChTraitsCRT@D@ATL@@@@@ATL@@QAE@XZ
; File C:\Program Files (x86)\Microsoft Visual Studio\2019\Community\VC\Tools\MSVC\14.29.30133\atlmfc\include\cstringt.h

; 2486 : 		return(str1.Compare(psz2) == 0);

  000e4	ff 75 dc	 push	 DWORD PTR $T2[ebp]
  000e7	8d 4d f0	 lea	 ecx, DWORD PTR _strItemName$4[ebp]
  000ea	ff 15 00 00 00
	00		 call	 DWORD PTR __imp_?Compare@?$CStringT@DV?$StrTraitMFC_DLL@DV?$ChTraitsCRT@D@ATL@@@@@ATL@@QBEHPBD@Z
  000f0	85 c0		 test	 eax, eax
; File D:\git\src\IBK\IBK_DRFN\ProjSrc\SrcDrfn\Chart\STCONFIGUREDLG\TabVariables.cpp

; 323  : 		if(strItemName==lpNewNameForInsertion)

  000f2	0f 84 84 00 00
	00		 je	 $LN30@OnBtnAdd

; 320  : 	for(int nPos=0;nPos<nCnt;nPos++)

  000f8	46		 inc	 esi
  000f9	3b f7		 cmp	 esi, edi
  000fb	7c b7		 jl	 SHORT $LL17@OnBtnAdd
$LN39@OnBtnAdd:

; 326  : 		}
; 327  : 	}
; 328  : 	return TRUE;

  000fd	8d 4d f0	 lea	 ecx, DWORD PTR _strItemName$4[ebp]
  00100	c6 45 fc 00	 mov	 BYTE PTR __$EHRec$[ebp+8], 0
  00104	ff 15 00 00 00
	00		 call	 DWORD PTR __imp_??1?$CStringT@DV?$StrTraitMFC_DLL@DV?$ChTraitsCRT@D@ATL@@@@@ATL@@QAE@XZ

; 284  : 		if(CheckWhetherHasSameName(strName))
; 285  : 		{
; 286  : 			m_listVariables.InsertItem(nPos,"");

  0010a	8b 5d e8	 mov	 ebx, DWORD PTR _this$1$[ebp]
  0010d	8b 75 e4	 mov	 esi, DWORD PTR _nPos$1$[ebp]
  00110	81 c3 30 02 00
	00		 add	 ebx, 560		; 00000230H
  00116	68 00 00 00 00	 push	 OFFSET ??_C@_00CNPNBAHC@@
  0011b	56		 push	 esi
  0011c	8b cb		 mov	 ecx, ebx
  0011e	e8 00 00 00 00	 call	 ?InsertItem@CXListCtrl@@QAEHHPBD@Z ; CXListCtrl::InsertItem

; 287  : 			m_listVariables.SetItemText(nPos,0,strName);

  00123	ff 75 ec	 push	 DWORD PTR _strName$[ebp]
  00126	8b cb		 mov	 ecx, ebx
  00128	6a 00		 push	 0
  0012a	56		 push	 esi
  0012b	e8 00 00 00 00	 call	 ?SetItemText@CXListCtrl@@QAEHHHPBD@Z ; CXListCtrl::SetItemText

; 288  : 			m_listVariables.SetEditBox(nPos,0);

  00130	6a 01		 push	 1
  00132	6a 00		 push	 0
  00134	56		 push	 esi
  00135	8b cb		 mov	 ecx, ebx
  00137	e8 00 00 00 00	 call	 ?SetEditBox@CXListCtrl@@QAEHHHH@Z ; CXListCtrl::SetEditBox

; 289  : 			m_listVariables.SetItemText(nPos,1,"0");

  0013c	68 00 00 00 00	 push	 OFFSET ??_C@_01GBGANLPD@0@
  00141	6a 01		 push	 1
  00143	56		 push	 esi
  00144	8b cb		 mov	 ecx, ebx
  00146	e8 00 00 00 00	 call	 ?SetItemText@CXListCtrl@@QAEHHHPBD@Z ; CXListCtrl::SetItemText

; 290  : 			m_listVariables.SetEditBox(nPos,1);

  0014b	6a 01		 push	 1
  0014d	6a 01		 push	 1
  0014f	56		 push	 esi
  00150	8b cb		 mov	 ecx, ebx
  00152	e8 00 00 00 00	 call	 ?SetEditBox@CXListCtrl@@QAEHHHH@Z ; CXListCtrl::SetEditBox

; 291  : 			m_listVariables.SetCurSel(nPos);

  00157	6a 01		 push	 1
  00159	56		 push	 esi
  0015a	8b cb		 mov	 ecx, ebx
  0015c	e8 00 00 00 00	 call	 ?SetCurSel@CXListCtrl@@QAEHHH@Z ; CXListCtrl::SetCurSel
$LN3@OnBtnAdd:

; 292  : 			return;
; 293  : 		}
; 294  : 	}	
; 295  : }

  00161	8d 4d ec	 lea	 ecx, DWORD PTR _strName$[ebp]
  00164	ff 15 00 00 00
	00		 call	 DWORD PTR __imp_??1?$CStringT@DV?$StrTraitMFC_DLL@DV?$ChTraitsCRT@D@ATL@@@@@ATL@@QAE@XZ
  0016a	8b 4d f4	 mov	 ecx, DWORD PTR __$EHRec$[ebp]
  0016d	64 89 0d 00 00
	00 00		 mov	 DWORD PTR fs:0, ecx
  00174	59		 pop	 ecx
  00175	5f		 pop	 edi
  00176	5e		 pop	 esi
  00177	5b		 pop	 ebx
  00178	8b e5		 mov	 esp, ebp
  0017a	5d		 pop	 ebp
  0017b	c3		 ret	 0
$LN30@OnBtnAdd:

; 325  : 			return FALSE;

  0017c	8d 4d f0	 lea	 ecx, DWORD PTR _strItemName$4[ebp]
  0017f	c6 45 fc 00	 mov	 BYTE PTR __$EHRec$[ebp+8], 0
  00183	ff 15 00 00 00
	00		 call	 DWORD PTR __imp_??1?$CStringT@DV?$StrTraitMFC_DLL@DV?$ChTraitsCRT@D@ATL@@@@@ATL@@QAE@XZ

; 281  : 	for(int nIndex=0;nIndex<100;nIndex++)

  00189	43		 inc	 ebx
  0018a	83 fb 64	 cmp	 ebx, 100		; 00000064H
  0018d	7d d2		 jge	 SHORT $LN3@OnBtnAdd
  0018f	8b 7d e8	 mov	 edi, DWORD PTR _this$1$[ebp]
  00192	e9 da fe ff ff	 jmp	 $LL4@OnBtnAdd
_TEXT	ENDS
;	COMDAT text$x
text$x	SEGMENT
__unwindfunclet$?OnBtnAdd@CTabVariables@@IAEXXZ$0:
  00000	8d 4d ec	 lea	 ecx, DWORD PTR _strName$[ebp]
  00003	ff 25 00 00 00
	00		 jmp	 DWORD PTR __imp_??1?$CStringT@DV?$StrTraitMFC_DLL@DV?$ChTraitsCRT@D@ATL@@@@@ATL@@QAE@XZ
__unwindfunclet$?OnBtnAdd@CTabVariables@@IAEXXZ$1:
  00009	8d 4d f0	 lea	 ecx, DWORD PTR _strItemName$4[ebp]
  0000c	ff 25 00 00 00
	00		 jmp	 DWORD PTR __imp_??1?$CStringT@DV?$StrTraitMFC_DLL@DV?$ChTraitsCRT@D@ATL@@@@@ATL@@QAE@XZ
__unwindfunclet$?OnBtnAdd@CTabVariables@@IAEXXZ$2:
  00012	8d 4d e0	 lea	 ecx, DWORD PTR $T3[ebp]
  00015	ff 25 00 00 00
	00		 jmp	 DWORD PTR __imp_??1?$CStringT@DV?$StrTraitMFC_DLL@DV?$ChTraitsCRT@D@ATL@@@@@ATL@@QAE@XZ
  0001b	cc		 int	 3
  0001c	cc		 int	 3
  0001d	cc		 int	 3
  0001e	cc		 int	 3
  0001f	cc		 int	 3
__ehhandler$?OnBtnAdd@CTabVariables@@IAEXXZ:
  00020	90		 npad	 1
  00021	90		 npad	 1
  00022	8b 54 24 08	 mov	 edx, DWORD PTR [esp+8]
  00026	8d 42 0c	 lea	 eax, DWORD PTR [edx+12]
  00029	8b 4a d8	 mov	 ecx, DWORD PTR [edx-40]
  0002c	33 c8		 xor	 ecx, eax
  0002e	e8 00 00 00 00	 call	 @__security_check_cookie@4
  00033	b8 00 00 00 00	 mov	 eax, OFFSET __ehfuncinfo$?OnBtnAdd@CTabVariables@@IAEXXZ
  00038	e9 00 00 00 00	 jmp	 ___CxxFrameHandler3
text$x	ENDS
?OnBtnAdd@CTabVariables@@IAEXXZ ENDP			; CTabVariables::OnBtnAdd
; Function compile flags: /Ogtp
; File D:\git\src\IBK\IBK_DRFN\ProjSrc\SrcDrfn\Chart\STCONFIGUREDLG\TabVariables.cpp
; File C:\Program Files (x86)\Microsoft Visual Studio\2019\Community\VC\Tools\MSVC\14.29.30133\atlmfc\include\afxcmn2.inl
; File D:\git\src\IBK\IBK_DRFN\ProjSrc\SrcDrfn\Chart\STCONFIGUREDLG\TabVariables.cpp
; File C:\Program Files (x86)\Microsoft Visual Studio\2019\Community\VC\Tools\MSVC\14.29.30133\atlmfc\include\afxcmn2.inl
; File D:\git\src\IBK\IBK_DRFN\ProjSrc\SrcDrfn\Chart\STCONFIGUREDLG\TabVariables.cpp
; File C:\Program Files (x86)\Microsoft Visual Studio\2019\Community\VC\Tools\MSVC\14.29.30133\atlmfc\include\afxcmn2.inl
; File D:\git\src\IBK\IBK_DRFN\ProjSrc\SrcDrfn\Chart\STCONFIGUREDLG\TabVariables.cpp
; File C:\Program Files (x86)\Microsoft Visual Studio\2019\Community\VC\Tools\MSVC\14.29.30133\atlmfc\include\afxcmn.inl
; File D:\git\src\IBK\IBK_DRFN\ProjSrc\SrcDrfn\Chart\STCONFIGUREDLG\TabVariables.cpp
; File C:\Program Files (x86)\Microsoft Visual Studio\2019\Community\VC\Tools\MSVC\14.29.30133\atlmfc\include\afxcmn.inl
; File D:\git\src\IBK\IBK_DRFN\ProjSrc\SrcDrfn\Chart\STCONFIGUREDLG\TabVariables.cpp
; File D:\git\src\IBK\IBK_DRFN\ProjSrc\SrcDrfn\Chart\STCONFIGUREDLG\Control\XListCtrl.h
; File D:\git\src\IBK\IBK_DRFN\ProjSrc\SrcDrfn\Chart\STCONFIGUREDLG\TabVariables.cpp
; File C:\Program Files (x86)\Microsoft Visual Studio\2019\Community\VC\Tools\MSVC\14.29.30133\atlmfc\include\afxwin2.inl
; File D:\git\src\IBK\IBK_DRFN\ProjSrc\SrcDrfn\Chart\STCONFIGUREDLG\TabVariables.cpp
; File C:\Program Files (x86)\Microsoft Visual Studio\2019\Community\VC\Tools\MSVC\14.29.30133\atlmfc\include\atlsimpstr.h
; File D:\git\src\IBK\IBK_DRFN\ProjSrc\SrcDrfn\Chart\STCONFIGUREDLG\TabVariables.cpp
; File C:\Program Files (x86)\Microsoft Visual Studio\2019\Community\VC\Tools\MSVC\14.29.30133\atlmfc\include\afxwin2.inl
; File D:\git\src\IBK\IBK_DRFN\ProjSrc\SrcDrfn\Chart\STCONFIGUREDLG\TabVariables.cpp
;	COMDAT ?OnInitDialog@CTabVariables@@MAEHXZ
_TEXT	SEGMENT
_lvcolumn$2 = -100					; size = 44
_pSTControllerCfg$1$ = -56				; size = 4
_strSTNamePath$3 = -56					; size = 4
_colwidthsType0$4 = -52					; size = 24
_lpszHeadersType0$5 = -28				; size = 12
__$ArrayPad$ = -16					; size = 4
__$EHRec$ = -12						; size = 12
?OnInitDialog@CTabVariables@@MAEHXZ PROC		; CTabVariables::OnInitDialog, COMDAT
; _this$ = ecx

; 56   : {

  00000	55		 push	 ebp
  00001	8b ec		 mov	 ebp, esp
  00003	6a ff		 push	 -1
  00005	68 00 00 00 00	 push	 __ehhandler$?OnInitDialog@CTabVariables@@MAEHXZ
  0000a	64 a1 00 00 00
	00		 mov	 eax, DWORD PTR fs:0
  00010	50		 push	 eax
  00011	83 ec 58	 sub	 esp, 88			; 00000058H
  00014	a1 00 00 00 00	 mov	 eax, DWORD PTR ___security_cookie
  00019	33 c5		 xor	 eax, ebp
  0001b	89 45 f0	 mov	 DWORD PTR __$ArrayPad$[ebp], eax
  0001e	56		 push	 esi
  0001f	57		 push	 edi
  00020	50		 push	 eax
  00021	8d 45 f4	 lea	 eax, DWORD PTR __$EHRec$[ebp]
  00024	64 a3 00 00 00
	00		 mov	 DWORD PTR fs:0, eax
  0002a	8b f9		 mov	 edi, ecx

; 57   : 	CRscDlg::OnInitDialog();

  0002c	e8 00 00 00 00	 call	 ?OnInitDialog@CDialog@@UAEHXZ ; CDialog::OnInitDialog

; 60   : 	CISTControllerD *pSTControllerCfg = ((CDlgSTOption*)m_pDlgSTOption)->GetISTControllerD();

  00031	8b 87 e0 03 00
	00		 mov	 eax, DWORD PTR [edi+992]
  00037	0f 57 c0	 xorps	 xmm0, xmm0
; File C:\Program Files (x86)\Microsoft Visual Studio\2019\Community\VC\Tools\MSVC\14.29.30133\atlmfc\include\afxcmn2.inl

; 117  : 	{ ASSERT(::IsWindow(m_hWnd)); return (DWORD) ::SendMessage(m_hWnd, LVM_SETEXTENDEDLISTVIEWSTYLE, 0, (LPARAM) dwNewStyle); }

  0003a	6a 20		 push	 32			; 00000020H
  0003c	6a 00		 push	 0
  0003e	68 36 10 00 00	 push	 4150			; 00001036H
; File D:\git\src\IBK\IBK_DRFN\ProjSrc\SrcDrfn\Chart\STCONFIGUREDLG\TabVariables.cpp

; 60   : 	CISTControllerD *pSTControllerCfg = ((CDlgSTOption*)m_pDlgSTOption)->GetISTControllerD();

  00043	8b 80 bc 04 00
	00		 mov	 eax, DWORD PTR [eax+1212]
; File C:\Program Files (x86)\Microsoft Visual Studio\2019\Community\VC\Tools\MSVC\14.29.30133\atlmfc\include\afxcmn2.inl

; 117  : 	{ ASSERT(::IsWindow(m_hWnd)); return (DWORD) ::SendMessage(m_hWnd, LVM_SETEXTENDEDLISTVIEWSTYLE, 0, (LPARAM) dwNewStyle); }

  00049	ff b7 50 02 00
	00		 push	 DWORD PTR [edi+592]
; File D:\git\src\IBK\IBK_DRFN\ProjSrc\SrcDrfn\Chart\STCONFIGUREDLG\TabVariables.cpp

; 60   : 	CISTControllerD *pSTControllerCfg = ((CDlgSTOption*)m_pDlgSTOption)->GetISTControllerD();

  0004f	89 45 c8	 mov	 DWORD PTR _pSTControllerCfg$1$[ebp], eax

; 97   : 	int colwidthsType0[6] = { 100, 200};	// sixty-fourths

  00052	c7 45 cc 64 00
	00 00		 mov	 DWORD PTR _colwidthsType0$4[ebp], 100 ; 00000064H
  00059	c7 45 d0 c8 00
	00 00		 mov	 DWORD PTR _colwidthsType0$4[ebp+4], 200 ; 000000c8H
  00060	0f 11 45 d4	 movups	 XMMWORD PTR _colwidthsType0$4[ebp+8], xmm0

; 98   : 
; 99   : 	TCHAR *	lpszHeadersType0[] = {
; 100  : 							  _T(""),

  00064	c7 45 e4 00 00
	00 00		 mov	 DWORD PTR _lpszHeadersType0$5[ebp], OFFSET ??_C@_06FIHLBNDD@?$LK?$KP?$LM?v?$LI?m@

; 101  : 							  _T(""),

  0006b	c7 45 e8 00 00
	00 00		 mov	 DWORD PTR _lpszHeadersType0$5[ebp+4], OFFSET ??_C@_06OJFAJFEJ@?$LK?$KP?$LM?v?$LA?$KK@

; 102  : 							  NULL };

  00072	c7 45 ec 00 00
	00 00		 mov	 DWORD PTR _lpszHeadersType0$5[ebp+8], 0
; File C:\Program Files (x86)\Microsoft Visual Studio\2019\Community\VC\Tools\MSVC\14.29.30133\atlmfc\include\afxcmn2.inl

; 117  : 	{ ASSERT(::IsWindow(m_hWnd)); return (DWORD) ::SendMessage(m_hWnd, LVM_SETEXTENDEDLISTVIEWSTYLE, 0, (LPARAM) dwNewStyle); }

  00079	ff 15 00 00 00
	00		 call	 DWORD PTR __imp__SendMessageA@16
  0007f	0f 57 c0	 xorps	 xmm0, xmm0
; File D:\git\src\IBK\IBK_DRFN\ProjSrc\SrcDrfn\Chart\STCONFIGUREDLG\TabVariables.cpp

; 108  : 	memset(&lvcolumn, 0, sizeof(lvcolumn));

  00082	c7 45 ac 00 00
	00 00		 mov	 DWORD PTR _lvcolumn$2[ebp+16], 0

; 110  : 	for (i = 0; ; i++)

  00089	33 f6		 xor	 esi, esi
  0008b	66 0f 13 45 b4	 movlpd	 QWORD PTR _lvcolumn$2[ebp+24], xmm0
  00090	66 0f 13 45 bc	 movlpd	 QWORD PTR _lvcolumn$2[ebp+32], xmm0
  00095	b9 00 00 00 00	 mov	 ecx, OFFSET ??_C@_06FIHLBNDD@?$LK?$KP?$LM?v?$LI?m@

; 108  : 	memset(&lvcolumn, 0, sizeof(lvcolumn));

  0009a	c7 45 c4 00 00
	00 00		 mov	 DWORD PTR _lvcolumn$2[ebp+40], 0
  000a1	33 d2		 xor	 edx, edx
$LL13@OnInitDial:

; 113  : 			break;
; 114  : 		lvcolumn.mask = LVCF_FMT | LVCF_SUBITEM | LVCF_TEXT | LVCF_WIDTH;
; 115  : 		lvcolumn.fmt = i>1 ? LVCFMT_RIGHT:LVCFMT_LEFT;

  000a3	33 c0		 xor	 eax, eax
  000a5	c7 45 9c 0f 00
	00 00		 mov	 DWORD PTR _lvcolumn$2[ebp], 15 ; 0000000fH
  000ac	83 fe 01	 cmp	 esi, 1

; 116  : 		lvcolumn.pszText = lpszHeadersType0[i];

  000af	89 4d a8	 mov	 DWORD PTR _lvcolumn$2[ebp+12], ecx

; 117  : 		lvcolumn.iSubItem = i;

  000b2	89 75 b0	 mov	 DWORD PTR _lvcolumn$2[ebp+20], esi
  000b5	0f 9f c0	 setg	 al
  000b8	89 45 a0	 mov	 DWORD PTR _lvcolumn$2[ebp+4], eax

; 118  : 		lvcolumn.cx = colwidthsType0[i];

  000bb	8b 44 15 cc	 mov	 eax, DWORD PTR _colwidthsType0$4[ebp+edx]
  000bf	89 45 a4	 mov	 DWORD PTR _lvcolumn$2[ebp+8], eax
; File C:\Program Files (x86)\Microsoft Visual Studio\2019\Community\VC\Tools\MSVC\14.29.30133\atlmfc\include\afxcmn.inl

; 209  : 	{ ASSERT(::IsWindow(m_hWnd)); return (int) ::SendMessage(m_hWnd, LVM_INSERTCOLUMN, nCol, (LPARAM)pColumn); }

  000c2	8d 45 9c	 lea	 eax, DWORD PTR _lvcolumn$2[ebp]
  000c5	50		 push	 eax
  000c6	56		 push	 esi
  000c7	68 1b 10 00 00	 push	 4123			; 0000101bH
  000cc	ff b7 50 02 00
	00		 push	 DWORD PTR [edi+592]
  000d2	ff 15 00 00 00
	00		 call	 DWORD PTR __imp__SendMessageA@16
; File D:\git\src\IBK\IBK_DRFN\ProjSrc\SrcDrfn\Chart\STCONFIGUREDLG\TabVariables.cpp

; 110  : 	for (i = 0; ; i++)

  000d8	46		 inc	 esi

; 111  : 	{
; 112  : 		if (lpszHeadersType0[i] == NULL)

  000d9	8d 14 b5 00 00
	00 00		 lea	 edx, DWORD PTR [esi*4]
  000e0	8b 4c 15 e4	 mov	 ecx, DWORD PTR _lpszHeadersType0$5[ebp+edx]
  000e4	85 c9		 test	 ecx, ecx
  000e6	75 bb		 jne	 SHORT $LL13@OnInitDial
  000e8	0f 57 c0	 xorps	 xmm0, xmm0

; 119  : 		total_cx += lvcolumn.cx;
; 120  : 		m_listVariables.InsertColumn(i, &lvcolumn);
; 121  : 	}
; 122  : 	// iterate through header items and attach the image list
; 123  : 	memset(&lvcolumn, 0, sizeof(lvcolumn));

  000eb	89 4d ac	 mov	 DWORD PTR _lvcolumn$2[ebp+16], ecx
  000ee	66 0f 13 45 a4	 movlpd	 QWORD PTR _lvcolumn$2[ebp+8], xmm0

; 125  : 	for (i = 0; ; i++)

  000f3	33 f6		 xor	 esi, esi
  000f5	66 0f 13 45 b4	 movlpd	 QWORD PTR _lvcolumn$2[ebp+24], xmm0
  000fa	66 0f 13 45 bc	 movlpd	 QWORD PTR _lvcolumn$2[ebp+32], xmm0
  000ff	89 4d c4	 mov	 DWORD PTR _lvcolumn$2[ebp+40], ecx
$LL16@OnInitDial:

; 128  : 			break;
; 129  : 		lvcolumn.mask = LVCF_FMT | LVCF_SUBITEM;
; 130  : 		lvcolumn.fmt = i>1 ? LVCFMT_RIGHT:LVCFMT_LEFT;

  00102	33 c0		 xor	 eax, eax
  00104	c7 45 9c 09 00
	00 00		 mov	 DWORD PTR _lvcolumn$2[ebp], 9
  0010b	83 fe 01	 cmp	 esi, 1

; 131  : 		lvcolumn.iSubItem = i;

  0010e	89 75 b0	 mov	 DWORD PTR _lvcolumn$2[ebp+20], esi
  00111	0f 9f c0	 setg	 al
  00114	89 45 a0	 mov	 DWORD PTR _lvcolumn$2[ebp+4], eax
; File C:\Program Files (x86)\Microsoft Visual Studio\2019\Community\VC\Tools\MSVC\14.29.30133\atlmfc\include\afxcmn.inl

; 207  : 	{ ASSERT(::IsWindow(m_hWnd)); return (BOOL) ::SendMessage(m_hWnd, LVM_SETCOLUMN, nCol, (LPARAM)pColumn); }

  00117	8d 45 9c	 lea	 eax, DWORD PTR _lvcolumn$2[ebp]
  0011a	50		 push	 eax
  0011b	56		 push	 esi
  0011c	68 1a 10 00 00	 push	 4122			; 0000101aH
  00121	ff b7 50 02 00
	00		 push	 DWORD PTR [edi+592]
  00127	ff 15 00 00 00
	00		 call	 DWORD PTR __imp__SendMessageA@16
; File D:\git\src\IBK\IBK_DRFN\ProjSrc\SrcDrfn\Chart\STCONFIGUREDLG\TabVariables.cpp

; 125  : 	for (i = 0; ; i++)

  0012d	46		 inc	 esi

; 126  : 	{
; 127  : 		if (lpszHeadersType0[i] == NULL)

  0012e	83 7c b5 e4 00	 cmp	 DWORD PTR _lpszHeadersType0$5[ebp+esi*4], 0
  00133	75 cd		 jne	 SHORT $LL16@OnInitDial
; File D:\git\src\IBK\IBK_DRFN\ProjSrc\SrcDrfn\Chart\STCONFIGUREDLG\Control\XListCtrl.h

; 176  : 		m_crHighLightText = m_crUsrHighLightText = crText;

  00135	c7 87 c0 03 00
	00 00 00 00 00	 mov	 DWORD PTR [edi+960], 0
  0013f	c7 87 b0 03 00
	00 00 00 00 00	 mov	 DWORD PTR [edi+944], 0

; 177  : 		m_crHighLight = m_crUsrHighLight = crBackground;

  00149	c7 87 bc 03 00
	00 d0 dd f0 00	 mov	 DWORD PTR [edi+956], 15785424 ; 00f0ddd0H
  00153	c7 87 ac 03 00
	00 d0 dd f0 00	 mov	 DWORD PTR [edi+940], 15785424 ; 00f0ddd0H
; File D:\git\src\IBK\IBK_DRFN\ProjSrc\SrcDrfn\Chart\STCONFIGUREDLG\TabVariables.cpp

; 63   : 	int nType = ((CDlgSTOption*)m_pDlgSTOption)->GetType();

  0015d	8b 87 e0 03 00
	00		 mov	 eax, DWORD PTR [edi+992]
  00163	8b 80 c8 04 00
	00		 mov	 eax, DWORD PTR [eax+1224]

; 64   : 	if(nType==1||nType==2)

  00169	83 f8 01	 cmp	 eax, 1
  0016c	74 09		 je	 SHORT $LN4@OnInitDial
  0016e	83 f8 02	 cmp	 eax, 2
  00171	74 04		 je	 SHORT $LN4@OnInitDial

; 68   : 	}
; 69   : 	else
; 70   : 	{
; 71   : 		m_btnAdd.EnableWindow(FALSE);
; 72   : 		m_btnDelete.EnableWindow(FALSE);

  00173	33 f6		 xor	 esi, esi
  00175	eb 05		 jmp	 SHORT $LN3@OnInitDial
$LN4@OnInitDial:

; 65   : 	{
; 66   : 		m_btnAdd.EnableWindow();
; 67   : 		m_btnDelete.EnableWindow();

  00177	be 01 00 00 00	 mov	 esi, 1
$LN3@OnInitDial:

; 73   : 	}
; 74   : 
; 75   : 	if(!pSTControllerCfg)

  0017c	56		 push	 esi
  0017d	8d 8f b0 01 00
	00		 lea	 ecx, DWORD PTR [edi+432]
  00183	e8 00 00 00 00	 call	 ?EnableWindow@CWnd@@QAEHH@Z ; CWnd::EnableWindow
  00188	56		 push	 esi
  00189	8d 8f 30 01 00
	00		 lea	 ecx, DWORD PTR [edi+304]
  0018f	e8 00 00 00 00	 call	 ?EnableWindow@CWnd@@QAEHH@Z ; CWnd::EnableWindow
  00194	8b 4d c8	 mov	 ecx, DWORD PTR _pSTControllerCfg$1$[ebp]
  00197	85 c9		 test	 ecx, ecx
  00199	75 23		 jne	 SHORT $LN5@OnInitDial
; File C:\Program Files (x86)\Microsoft Visual Studio\2019\Community\VC\Tools\MSVC\14.29.30133\atlmfc\include\afxwin2.inl

; 630  : 	{ ASSERT(::IsWindow(m_hWnd)); ::SendMessage(m_hWnd, BM_SETCHECK, nCheck, 0); }

  0019b	51		 push	 ecx
  0019c	6a 01		 push	 1
  0019e	68 f1 00 00 00	 push	 241			; 000000f1H
  001a3	ff b7 d0 00 00
	00		 push	 DWORD PTR [edi+208]
  001a9	ff 15 00 00 00
	00		 call	 DWORD PTR __imp__SendMessageA@16
; File D:\git\src\IBK\IBK_DRFN\ProjSrc\SrcDrfn\Chart\STCONFIGUREDLG\TabVariables.cpp

; 78   : 		m_chkSaveAsDefault.EnableWindow(FALSE);

  001af	6a 00		 push	 0
  001b1	8d 8f b0 00 00
	00		 lea	 ecx, DWORD PTR [edi+176]
  001b7	e8 00 00 00 00	 call	 ?EnableWindow@CWnd@@QAEHH@Z ; CWnd::EnableWindow

; 79   : 	}

  001bc	eb 4e		 jmp	 SHORT $LN6@OnInitDial
$LN5@OnInitDial:

; 82   : 		CString strSTNamePath = pSTControllerCfg->GetSTNamePath();

  001be	8b 01		 mov	 eax, DWORD PTR [ecx]
  001c0	8d 55 c8	 lea	 edx, DWORD PTR _strSTNamePath$3[ebp]
  001c3	52		 push	 edx
  001c4	ff 90 24 01 00
	00		 call	 DWORD PTR [eax+292]
; File C:\Program Files (x86)\Microsoft Visual Studio\2019\Community\VC\Tools\MSVC\14.29.30133\atlmfc\include\atlsimpstr.h

; 519  : 		return( GetData()->nDataLength );

  001ca	8b 45 c8	 mov	 eax, DWORD PTR _strSTNamePath$3[ebp]
; File D:\git\src\IBK\IBK_DRFN\ProjSrc\SrcDrfn\Chart\STCONFIGUREDLG\TabVariables.cpp

; 82   : 		CString strSTNamePath = pSTControllerCfg->GetSTNamePath();

  001cd	c7 45 fc 00 00
	00 00		 mov	 DWORD PTR __$EHRec$[ebp+8], 0

; 83   : 		if(!strSTNamePath.GetLength())

  001d4	83 78 f4 00	 cmp	 DWORD PTR [eax-12], 0
  001d8	75 22		 jne	 SHORT $LN7@OnInitDial
; File C:\Program Files (x86)\Microsoft Visual Studio\2019\Community\VC\Tools\MSVC\14.29.30133\atlmfc\include\afxwin2.inl

; 630  : 	{ ASSERT(::IsWindow(m_hWnd)); ::SendMessage(m_hWnd, BM_SETCHECK, nCheck, 0); }

  001da	6a 00		 push	 0
  001dc	6a 01		 push	 1
  001de	68 f1 00 00 00	 push	 241			; 000000f1H
  001e3	ff b7 d0 00 00
	00		 push	 DWORD PTR [edi+208]
  001e9	ff 15 00 00 00
	00		 call	 DWORD PTR __imp__SendMessageA@16
; File D:\git\src\IBK\IBK_DRFN\ProjSrc\SrcDrfn\Chart\STCONFIGUREDLG\TabVariables.cpp

; 86   : 			m_chkSaveAsDefault.EnableWindow(FALSE);

  001ef	6a 00		 push	 0
  001f1	8d 8f b0 00 00
	00		 lea	 ecx, DWORD PTR [edi+176]
  001f7	e8 00 00 00 00	 call	 ?EnableWindow@CWnd@@QAEHH@Z ; CWnd::EnableWindow
$LN7@OnInitDial:

; 87   : 		}
; 88   : 	}

  001fc	8d 4d c8	 lea	 ecx, DWORD PTR _strSTNamePath$3[ebp]
  001ff	c7 45 fc ff ff
	ff ff		 mov	 DWORD PTR __$EHRec$[ebp+8], -1
  00206	ff 15 00 00 00
	00		 call	 DWORD PTR __imp_??1?$CStringT@DV?$StrTraitMFC_DLL@DV?$ChTraitsCRT@D@ATL@@@@@ATL@@QAE@XZ
$LN6@OnInitDial:

; 89   : 	LoadInfo();

  0020c	8b 07		 mov	 eax, DWORD PTR [edi]
  0020e	8b cf		 mov	 ecx, edi
  00210	ff 90 94 01 00
	00		 call	 DWORD PTR [eax+404]

; 90   : 	
; 91   : 	return TRUE;  // return TRUE unless you set the focus to a control

  00216	b8 01 00 00 00	 mov	 eax, 1

; 92   : 	              // EXCEPTION: OCX Property Pages should return FALSE
; 93   : }

  0021b	8b 4d f4	 mov	 ecx, DWORD PTR __$EHRec$[ebp]
  0021e	64 89 0d 00 00
	00 00		 mov	 DWORD PTR fs:0, ecx
  00225	59		 pop	 ecx
  00226	5f		 pop	 edi
  00227	5e		 pop	 esi
  00228	8b 4d f0	 mov	 ecx, DWORD PTR __$ArrayPad$[ebp]
  0022b	33 cd		 xor	 ecx, ebp
  0022d	e8 00 00 00 00	 call	 @__security_check_cookie@4
  00232	8b e5		 mov	 esp, ebp
  00234	5d		 pop	 ebp
  00235	c3		 ret	 0
_TEXT	ENDS
;	COMDAT text$x
text$x	SEGMENT
__unwindfunclet$?OnInitDialog@CTabVariables@@MAEHXZ$0:
  00000	8d 4d c8	 lea	 ecx, DWORD PTR _strSTNamePath$3[ebp]
  00003	ff 25 00 00 00
	00		 jmp	 DWORD PTR __imp_??1?$CStringT@DV?$StrTraitMFC_DLL@DV?$ChTraitsCRT@D@ATL@@@@@ATL@@QAE@XZ
  00009	cc		 int	 3
  0000a	cc		 int	 3
  0000b	cc		 int	 3
  0000c	cc		 int	 3
  0000d	cc		 int	 3
__ehhandler$?OnInitDialog@CTabVariables@@MAEHXZ:
  0000e	90		 npad	 1
  0000f	90		 npad	 1
  00010	8b 54 24 08	 mov	 edx, DWORD PTR [esp+8]
  00014	8d 42 0c	 lea	 eax, DWORD PTR [edx+12]
  00017	8b 4a 9c	 mov	 ecx, DWORD PTR [edx-100]
  0001a	33 c8		 xor	 ecx, eax
  0001c	e8 00 00 00 00	 call	 @__security_check_cookie@4
  00021	8b 4a fc	 mov	 ecx, DWORD PTR [edx-4]
  00024	33 c8		 xor	 ecx, eax
  00026	e8 00 00 00 00	 call	 @__security_check_cookie@4
  0002b	b8 00 00 00 00	 mov	 eax, OFFSET __ehfuncinfo$?OnInitDialog@CTabVariables@@MAEHXZ
  00030	e9 00 00 00 00	 jmp	 ___CxxFrameHandler3
text$x	ENDS
?OnInitDialog@CTabVariables@@MAEHXZ ENDP		; CTabVariables::OnInitDialog
; Function compile flags: /Ogtp
; File D:\git\src\IBK\IBK_DRFN\ProjSrc\SrcDrfn\Chart\STCONFIGUREDLG\TabVariables.cpp
; File C:\Program Files (x86)\Microsoft Visual Studio\2019\Community\VC\Tools\MSVC\14.29.30133\atlmfc\include\afxcmn.inl
; File D:\git\src\IBK\IBK_DRFN\ProjSrc\SrcDrfn\Chart\STCONFIGUREDLG\TabVariables.cpp
; File C:\Program Files (x86)\Microsoft Visual Studio\2019\Community\VC\Tools\MSVC\14.29.30133\atlmfc\include\afxcmn.inl
; File D:\git\src\IBK\IBK_DRFN\ProjSrc\SrcDrfn\Chart\STCONFIGUREDLG\TabVariables.cpp
; File C:\Program Files (x86)\Microsoft Visual Studio\2019\Community\VC\Tools\MSVC\14.29.30133\atlmfc\include\cstringt.h
; File D:\git\src\IBK\IBK_DRFN\ProjSrc\SrcDrfn\Chart\STCONFIGUREDLG\TabVariables.cpp
;	COMDAT ?CheckWhetherHasSameName@CTabVariables@@IAEHPBD@Z
_TEXT	SEGMENT
$T2 = -20						; size = 4
_strItemName$ = -16					; size = 4
__$EHRec$ = -12						; size = 12
_lpNewNameForInsertion$ = 8				; size = 4
?CheckWhetherHasSameName@CTabVariables@@IAEHPBD@Z PROC	; CTabVariables::CheckWhetherHasSameName, COMDAT
; _this$ = ecx

; 317  : {

  00000	55		 push	 ebp
  00001	8b ec		 mov	 ebp, esp
  00003	6a ff		 push	 -1
  00005	68 00 00 00 00	 push	 __ehhandler$?CheckWhetherHasSameName@CTabVariables@@IAEHPBD@Z
  0000a	64 a1 00 00 00
	00		 mov	 eax, DWORD PTR fs:0
  00010	50		 push	 eax
  00011	83 ec 08	 sub	 esp, 8
  00014	53		 push	 ebx
  00015	56		 push	 esi
  00016	57		 push	 edi
  00017	a1 00 00 00 00	 mov	 eax, DWORD PTR ___security_cookie
  0001c	33 c5		 xor	 eax, ebp
  0001e	50		 push	 eax
  0001f	8d 45 f4	 lea	 eax, DWORD PTR __$EHRec$[ebp]
  00022	64 a3 00 00 00
	00		 mov	 DWORD PTR fs:0, eax
  00028	8b d9		 mov	 ebx, ecx

; 318  : 	CString strItemName;

  0002a	8d 4d f0	 lea	 ecx, DWORD PTR _strItemName$[ebp]
  0002d	ff 15 00 00 00
	00		 call	 DWORD PTR __imp_??0?$CStringT@DV?$StrTraitMFC_DLL@DV?$ChTraitsCRT@D@ATL@@@@@ATL@@QAE@XZ
; File C:\Program Files (x86)\Microsoft Visual Studio\2019\Community\VC\Tools\MSVC\14.29.30133\atlmfc\include\afxcmn.inl

; 155  : 	{ ASSERT(::IsWindow(m_hWnd)); return (int) ::SendMessage(m_hWnd, LVM_GETITEMCOUNT, 0, 0L); }

  00033	6a 00		 push	 0
  00035	6a 00		 push	 0
  00037	68 04 10 00 00	 push	 4100			; 00001004H
  0003c	ff b3 50 02 00
	00		 push	 DWORD PTR [ebx+592]
; File D:\git\src\IBK\IBK_DRFN\ProjSrc\SrcDrfn\Chart\STCONFIGUREDLG\TabVariables.cpp

; 318  : 	CString strItemName;

  00042	c7 45 fc 00 00
	00 00		 mov	 DWORD PTR __$EHRec$[ebp+8], 0
; File C:\Program Files (x86)\Microsoft Visual Studio\2019\Community\VC\Tools\MSVC\14.29.30133\atlmfc\include\afxcmn.inl

; 155  : 	{ ASSERT(::IsWindow(m_hWnd)); return (int) ::SendMessage(m_hWnd, LVM_GETITEMCOUNT, 0, 0L); }

  00049	ff 15 00 00 00
	00		 call	 DWORD PTR __imp__SendMessageA@16
; File D:\git\src\IBK\IBK_DRFN\ProjSrc\SrcDrfn\Chart\STCONFIGUREDLG\TabVariables.cpp

; 319  : 	int nCnt = m_listVariables.GetItemCount();

  0004f	8b f8		 mov	 edi, eax

; 320  : 	for(int nPos=0;nPos<nCnt;nPos++)

  00051	33 f6		 xor	 esi, esi
  00053	85 ff		 test	 edi, edi
  00055	7e 42		 jle	 SHORT $LN3@CheckWheth
$LL4@CheckWheth:

; 321  : 	{
; 322  : 		strItemName = m_listVariables.GetItemText(nPos,0);

  00057	6a 00		 push	 0
  00059	56		 push	 esi
  0005a	8d 45 ec	 lea	 eax, DWORD PTR $T2[ebp]
  0005d	50		 push	 eax
  0005e	8d 8b 30 02 00
	00		 lea	 ecx, DWORD PTR [ebx+560]
  00064	e8 00 00 00 00	 call	 ?GetItemText@CListCtrl@@QBE?AV?$CStringT@DV?$StrTraitMFC_DLL@DV?$ChTraitsCRT@D@ATL@@@@@ATL@@HH@Z ; CListCtrl::GetItemText
  00069	50		 push	 eax
  0006a	8d 4d f0	 lea	 ecx, DWORD PTR _strItemName$[ebp]
  0006d	c6 45 fc 01	 mov	 BYTE PTR __$EHRec$[ebp+8], 1
  00071	ff 15 00 00 00
	00		 call	 DWORD PTR __imp_??4?$CStringT@DV?$StrTraitMFC_DLL@DV?$ChTraitsCRT@D@ATL@@@@@ATL@@QAEAAV01@ABV01@@Z
  00077	8d 4d ec	 lea	 ecx, DWORD PTR $T2[ebp]
  0007a	c6 45 fc 00	 mov	 BYTE PTR __$EHRec$[ebp+8], 0
  0007e	ff 15 00 00 00
	00		 call	 DWORD PTR __imp_??1?$CStringT@DV?$StrTraitMFC_DLL@DV?$ChTraitsCRT@D@ATL@@@@@ATL@@QAE@XZ
; File C:\Program Files (x86)\Microsoft Visual Studio\2019\Community\VC\Tools\MSVC\14.29.30133\atlmfc\include\cstringt.h

; 2486 : 		return(str1.Compare(psz2) == 0);

  00084	ff 75 08	 push	 DWORD PTR _lpNewNameForInsertion$[ebp]
  00087	8d 4d f0	 lea	 ecx, DWORD PTR _strItemName$[ebp]
  0008a	ff 15 00 00 00
	00		 call	 DWORD PTR __imp_?Compare@?$CStringT@DV?$StrTraitMFC_DLL@DV?$ChTraitsCRT@D@ATL@@@@@ATL@@QBEHPBD@Z
  00090	85 c0		 test	 eax, eax
; File D:\git\src\IBK\IBK_DRFN\ProjSrc\SrcDrfn\Chart\STCONFIGUREDLG\TabVariables.cpp

; 323  : 		if(strItemName==lpNewNameForInsertion)

  00092	74 29		 je	 SHORT $LN15@CheckWheth

; 320  : 	for(int nPos=0;nPos<nCnt;nPos++)

  00094	46		 inc	 esi
  00095	3b f7		 cmp	 esi, edi
  00097	7c be		 jl	 SHORT $LL4@CheckWheth
$LN3@CheckWheth:

; 324  : 		{
; 325  : 			return FALSE;
; 326  : 		}
; 327  : 	}
; 328  : 	return TRUE;

  00099	be 01 00 00 00	 mov	 esi, 1
$LN9@CheckWheth:
  0009e	8d 4d f0	 lea	 ecx, DWORD PTR _strItemName$[ebp]
  000a1	ff 15 00 00 00
	00		 call	 DWORD PTR __imp_??1?$CStringT@DV?$StrTraitMFC_DLL@DV?$ChTraitsCRT@D@ATL@@@@@ATL@@QAE@XZ
  000a7	8b c6		 mov	 eax, esi

; 329  : }

  000a9	8b 4d f4	 mov	 ecx, DWORD PTR __$EHRec$[ebp]
  000ac	64 89 0d 00 00
	00 00		 mov	 DWORD PTR fs:0, ecx
  000b3	59		 pop	 ecx
  000b4	5f		 pop	 edi
  000b5	5e		 pop	 esi
  000b6	5b		 pop	 ebx
  000b7	8b e5		 mov	 esp, ebp
  000b9	5d		 pop	 ebp
  000ba	c2 04 00	 ret	 4
$LN15@CheckWheth:
  000bd	33 f6		 xor	 esi, esi
  000bf	eb dd		 jmp	 SHORT $LN9@CheckWheth
_TEXT	ENDS
;	COMDAT text$x
text$x	SEGMENT
__unwindfunclet$?CheckWhetherHasSameName@CTabVariables@@IAEHPBD@Z$0:
  00000	8d 4d f0	 lea	 ecx, DWORD PTR _strItemName$[ebp]
  00003	ff 25 00 00 00
	00		 jmp	 DWORD PTR __imp_??1?$CStringT@DV?$StrTraitMFC_DLL@DV?$ChTraitsCRT@D@ATL@@@@@ATL@@QAE@XZ
__unwindfunclet$?CheckWhetherHasSameName@CTabVariables@@IAEHPBD@Z$1:
  00009	8d 4d ec	 lea	 ecx, DWORD PTR $T2[ebp]
  0000c	ff 25 00 00 00
	00		 jmp	 DWORD PTR __imp_??1?$CStringT@DV?$StrTraitMFC_DLL@DV?$ChTraitsCRT@D@ATL@@@@@ATL@@QAE@XZ
  00012	cc		 int	 3
  00013	cc		 int	 3
  00014	cc		 int	 3
  00015	cc		 int	 3
  00016	cc		 int	 3
__ehhandler$?CheckWhetherHasSameName@CTabVariables@@IAEHPBD@Z:
  00017	90		 npad	 1
  00018	90		 npad	 1
  00019	8b 54 24 08	 mov	 edx, DWORD PTR [esp+8]
  0001d	8d 42 0c	 lea	 eax, DWORD PTR [edx+12]
  00020	8b 4a e8	 mov	 ecx, DWORD PTR [edx-24]
  00023	33 c8		 xor	 ecx, eax
  00025	e8 00 00 00 00	 call	 @__security_check_cookie@4
  0002a	b8 00 00 00 00	 mov	 eax, OFFSET __ehfuncinfo$?CheckWhetherHasSameName@CTabVariables@@IAEHPBD@Z
  0002f	e9 00 00 00 00	 jmp	 ___CxxFrameHandler3
text$x	ENDS
?CheckWhetherHasSameName@CTabVariables@@IAEHPBD@Z ENDP	; CTabVariables::CheckWhetherHasSameName
; Function compile flags: /Ogtp
; File D:\git\src\IBK\IBK_DRFN\ProjSrc\SrcDrfn\Chart\STCONFIGUREDLG\TabVariables.cpp
; File C:\Program Files (x86)\Microsoft Visual Studio\2019\Community\VC\Tools\MSVC\14.29.30133\atlmfc\include\afxcmn.inl
; File D:\git\src\IBK\IBK_DRFN\ProjSrc\SrcDrfn\Chart\STCONFIGUREDLG\TabVariables.cpp
; File C:\Program Files (x86)\Microsoft Visual Studio\2019\Community\VC\Tools\MSVC\14.29.30133\atlmfc\include\afxcmn.inl
; File D:\git\src\IBK\IBK_DRFN\ProjSrc\SrcDrfn\Chart\STCONFIGUREDLG\TabVariables.cpp
;	COMDAT ?RemoveInfo@CTabVariables@@MAEXXZ
_TEXT	SEGMENT
_nItemCount$1$ = -20					; size = 4
_strKeyName$ = -16					; size = 4
__$EHRec$ = -12						; size = 12
?RemoveInfo@CTabVariables@@MAEXXZ PROC			; CTabVariables::RemoveInfo, COMDAT
; _this$ = ecx

; 254  : {

  00000	55		 push	 ebp
  00001	8b ec		 mov	 ebp, esp
  00003	6a ff		 push	 -1
  00005	68 00 00 00 00	 push	 __ehhandler$?RemoveInfo@CTabVariables@@MAEXXZ
  0000a	64 a1 00 00 00
	00		 mov	 eax, DWORD PTR fs:0
  00010	50		 push	 eax
  00011	83 ec 08	 sub	 esp, 8
  00014	53		 push	 ebx
  00015	56		 push	 esi
  00016	57		 push	 edi
  00017	a1 00 00 00 00	 mov	 eax, DWORD PTR ___security_cookie
  0001c	33 c5		 xor	 eax, ebp
  0001e	50		 push	 eax
  0001f	8d 45 f4	 lea	 eax, DWORD PTR __$EHRec$[ebp]
  00022	64 a3 00 00 00
	00		 mov	 DWORD PTR fs:0, eax
  00028	8b f9		 mov	 edi, ecx
; File C:\Program Files (x86)\Microsoft Visual Studio\2019\Community\VC\Tools\MSVC\14.29.30133\atlmfc\include\afxcmn.inl

; 155  : 	{ ASSERT(::IsWindow(m_hWnd)); return (int) ::SendMessage(m_hWnd, LVM_GETITEMCOUNT, 0, 0L); }

  0002a	6a 00		 push	 0
  0002c	6a 00		 push	 0
  0002e	68 04 10 00 00	 push	 4100			; 00001004H
  00033	ff b7 50 02 00
	00		 push	 DWORD PTR [edi+592]
  00039	ff 15 00 00 00
	00		 call	 DWORD PTR __imp__SendMessageA@16
; File D:\git\src\IBK\IBK_DRFN\ProjSrc\SrcDrfn\Chart\STCONFIGUREDLG\TabVariables.cpp

; 255  : 	int nItemCount = m_listVariables.GetItemCount();	

  0003f	8b d8		 mov	 ebx, eax

; 256  : 	int nUseType = 2; // Remove In STFile
; 257  : 
; 258  : 	CString strKeyName;

  00041	8d 4d f0	 lea	 ecx, DWORD PTR _strKeyName$[ebp]
  00044	89 5d ec	 mov	 DWORD PTR _nItemCount$1$[ebp], ebx
  00047	ff 15 00 00 00
	00		 call	 DWORD PTR __imp_??0?$CStringT@DV?$StrTraitMFC_DLL@DV?$ChTraitsCRT@D@ATL@@@@@ATL@@QAE@XZ

; 259  : 	m_listVariables.UnpressEditBox();

  0004d	8d 8f 30 02 00
	00		 lea	 ecx, DWORD PTR [edi+560]
  00053	c7 45 fc 00 00
	00 00		 mov	 DWORD PTR __$EHRec$[ebp+8], 0
  0005a	e8 00 00 00 00	 call	 ?UnpressEditBox@CXListCtrl@@QAEXXZ ; CXListCtrl::UnpressEditBox

; 260  : 	((CDlgSTOption*)m_pDlgSTOption)->WritePrivateProfileStringInST(VARIABLES,INPUTCNT,"",nUseType);

  0005f	8b 8f e0 03 00
	00		 mov	 ecx, DWORD PTR [edi+992]
  00065	6a 02		 push	 2
  00067	68 00 00 00 00	 push	 OFFSET ??_C@_00CNPNBAHC@@
  0006c	68 00 00 00 00	 push	 OFFSET ??_C@_08JFMIELNJ@InputCnt@
  00071	68 00 00 00 00	 push	 OFFSET ??_C@_09IJIPICN@Variables@
  00076	e8 00 00 00 00	 call	 ?WritePrivateProfileStringInST@CDlgSTOption@@QAEHPBD00H@Z ; CDlgSTOption::WritePrivateProfileStringInST
; File C:\Program Files (x86)\Microsoft Visual Studio\2019\Community\VC\Tools\MSVC\14.29.30133\atlmfc\include\afxcmn.inl

; 155  : 	{ ASSERT(::IsWindow(m_hWnd)); return (int) ::SendMessage(m_hWnd, LVM_GETITEMCOUNT, 0, 0L); }

  0007b	33 f6		 xor	 esi, esi
; File D:\git\src\IBK\IBK_DRFN\ProjSrc\SrcDrfn\Chart\STCONFIGUREDLG\TabVariables.cpp

; 261  : 	for(int nPos=0;nPos<nItemCount;nPos++)

  0007d	85 db		 test	 ebx, ebx
  0007f	7e 68		 jle	 SHORT $LN3@RemoveInfo
  00081	8b 1d 00 00 00
	00		 mov	 ebx, DWORD PTR __imp_?Format@?$CStringT@DV?$StrTraitMFC_DLL@DV?$ChTraitsCRT@D@ATL@@@@@ATL@@QAAXPBDZZ
$LL4@RemoveInfo:

; 262  : 	{		
; 263  : 		strKeyName.Format("%s%d",INPUTVALUE,nPos);

  00087	56		 push	 esi
  00088	68 00 00 00 00	 push	 OFFSET ??_C@_05DCDOHKAB@Input@
  0008d	8d 45 f0	 lea	 eax, DWORD PTR _strKeyName$[ebp]
  00090	68 00 00 00 00	 push	 OFFSET ??_C@_04HGGBINEM@?$CFs?$CFd@
  00095	50		 push	 eax
  00096	ff d3		 call	 ebx

; 264  : 		((CDlgSTOption*)m_pDlgSTOption)->WritePrivateProfileStringInST(VARIABLES,strKeyName,"",nUseType);

  00098	8b 8f e0 03 00
	00		 mov	 ecx, DWORD PTR [edi+992]
  0009e	83 c4 10	 add	 esp, 16			; 00000010H
  000a1	6a 02		 push	 2
  000a3	68 00 00 00 00	 push	 OFFSET ??_C@_00CNPNBAHC@@
  000a8	ff 75 f0	 push	 DWORD PTR _strKeyName$[ebp]
  000ab	68 00 00 00 00	 push	 OFFSET ??_C@_09IJIPICN@Variables@
  000b0	e8 00 00 00 00	 call	 ?WritePrivateProfileStringInST@CDlgSTOption@@QAEHPBD00H@Z ; CDlgSTOption::WritePrivateProfileStringInST

; 265  : 		strKeyName.Format("%s%d",INPUTNAME,nPos);

  000b5	56		 push	 esi
  000b6	68 00 00 00 00	 push	 OFFSET ??_C@_09FEBEHBMB@InputName@
  000bb	8d 45 f0	 lea	 eax, DWORD PTR _strKeyName$[ebp]
  000be	68 00 00 00 00	 push	 OFFSET ??_C@_04HGGBINEM@?$CFs?$CFd@
  000c3	50		 push	 eax
  000c4	ff d3		 call	 ebx

; 266  : 		((CDlgSTOption*)m_pDlgSTOption)->WritePrivateProfileStringInST(VARIABLES,strKeyName,"",nUseType);

  000c6	8b 8f e0 03 00
	00		 mov	 ecx, DWORD PTR [edi+992]
  000cc	83 c4 10	 add	 esp, 16			; 00000010H
  000cf	6a 02		 push	 2
  000d1	68 00 00 00 00	 push	 OFFSET ??_C@_00CNPNBAHC@@
  000d6	ff 75 f0	 push	 DWORD PTR _strKeyName$[ebp]
  000d9	68 00 00 00 00	 push	 OFFSET ??_C@_09IJIPICN@Variables@
  000de	e8 00 00 00 00	 call	 ?WritePrivateProfileStringInST@CDlgSTOption@@QAEHPBD00H@Z ; CDlgSTOption::WritePrivateProfileStringInST
  000e3	46		 inc	 esi
  000e4	3b 75 ec	 cmp	 esi, DWORD PTR _nItemCount$1$[ebp]
  000e7	7c 9e		 jl	 SHORT $LL4@RemoveInfo
$LN3@RemoveInfo:

; 267  : 	}
; 268  : }

  000e9	8d 4d f0	 lea	 ecx, DWORD PTR _strKeyName$[ebp]
  000ec	ff 15 00 00 00
	00		 call	 DWORD PTR __imp_??1?$CStringT@DV?$StrTraitMFC_DLL@DV?$ChTraitsCRT@D@ATL@@@@@ATL@@QAE@XZ
  000f2	8b 4d f4	 mov	 ecx, DWORD PTR __$EHRec$[ebp]
  000f5	64 89 0d 00 00
	00 00		 mov	 DWORD PTR fs:0, ecx
  000fc	59		 pop	 ecx
  000fd	5f		 pop	 edi
  000fe	5e		 pop	 esi
  000ff	5b		 pop	 ebx
  00100	8b e5		 mov	 esp, ebp
  00102	5d		 pop	 ebp
  00103	c3		 ret	 0
_TEXT	ENDS
;	COMDAT text$x
text$x	SEGMENT
__unwindfunclet$?RemoveInfo@CTabVariables@@MAEXXZ$0:
  00000	8d 4d f0	 lea	 ecx, DWORD PTR _strKeyName$[ebp]
  00003	ff 25 00 00 00
	00		 jmp	 DWORD PTR __imp_??1?$CStringT@DV?$StrTraitMFC_DLL@DV?$ChTraitsCRT@D@ATL@@@@@ATL@@QAE@XZ
  00009	cc		 int	 3
  0000a	cc		 int	 3
  0000b	cc		 int	 3
  0000c	cc		 int	 3
  0000d	cc		 int	 3
__ehhandler$?RemoveInfo@CTabVariables@@MAEXXZ:
  0000e	90		 npad	 1
  0000f	90		 npad	 1
  00010	8b 54 24 08	 mov	 edx, DWORD PTR [esp+8]
  00014	8d 42 0c	 lea	 eax, DWORD PTR [edx+12]
  00017	8b 4a e8	 mov	 ecx, DWORD PTR [edx-24]
  0001a	33 c8		 xor	 ecx, eax
  0001c	e8 00 00 00 00	 call	 @__security_check_cookie@4
  00021	b8 00 00 00 00	 mov	 eax, OFFSET __ehfuncinfo$?RemoveInfo@CTabVariables@@MAEXXZ
  00026	e9 00 00 00 00	 jmp	 ___CxxFrameHandler3
text$x	ENDS
?RemoveInfo@CTabVariables@@MAEXXZ ENDP			; CTabVariables::RemoveInfo
; Function compile flags: /Ogtp
; File D:\git\src\IBK\IBK_DRFN\ProjSrc\SrcDrfn\Chart\STCONFIGUREDLG\TabVariables.cpp
; File C:\Program Files (x86)\Microsoft Visual Studio\2019\Community\VC\Tools\MSVC\14.29.30133\atlmfc\include\afxcmn.inl
; File C:\Program Files (x86)\Microsoft Visual Studio\2019\Community\VC\Tools\MSVC\14.29.30133\atlmfc\include\afxwin2.inl
; File D:\git\src\IBK\IBK_DRFN\ProjSrc\SrcDrfn\Chart\STCONFIGUREDLG\TabVariables.cpp
; File C:\Program Files (x86)\Microsoft Visual Studio\2019\Community\VC\Tools\MSVC\14.29.30133\atlmfc\include\afxwin2.inl
; File D:\git\src\IBK\IBK_DRFN\ProjSrc\SrcDrfn\Chart\STCONFIGUREDLG\TabVariables.cpp
;	COMDAT ?SaveInfo@CTabVariables@@MAEHXZ
_TEXT	SEGMENT
$T2 = -32						; size = 4
$T3 = -28						; size = 4
_nItemCount$1$ = -24					; size = 4
_strKeyName$ = -20					; size = 4
_strItemText$ = -16					; size = 4
__$EHRec$ = -12						; size = 12
?SaveInfo@CTabVariables@@MAEHXZ PROC			; CTabVariables::SaveInfo, COMDAT
; _this$ = ecx

; 231  : {

  00000	55		 push	 ebp
  00001	8b ec		 mov	 ebp, esp
  00003	6a ff		 push	 -1
  00005	68 00 00 00 00	 push	 __ehhandler$?SaveInfo@CTabVariables@@MAEHXZ
  0000a	64 a1 00 00 00
	00		 mov	 eax, DWORD PTR fs:0
  00010	50		 push	 eax
  00011	83 ec 14	 sub	 esp, 20			; 00000014H
  00014	53		 push	 ebx
  00015	56		 push	 esi
  00016	57		 push	 edi
  00017	a1 00 00 00 00	 mov	 eax, DWORD PTR ___security_cookie
  0001c	33 c5		 xor	 eax, ebp
  0001e	50		 push	 eax
  0001f	8d 45 f4	 lea	 eax, DWORD PTR __$EHRec$[ebp]
  00022	64 a3 00 00 00
	00		 mov	 DWORD PTR fs:0, eax
  00028	8b d9		 mov	 ebx, ecx
; File C:\Program Files (x86)\Microsoft Visual Studio\2019\Community\VC\Tools\MSVC\14.29.30133\atlmfc\include\afxcmn.inl

; 155  : 	{ ASSERT(::IsWindow(m_hWnd)); return (int) ::SendMessage(m_hWnd, LVM_GETITEMCOUNT, 0, 0L); }

  0002a	8b 35 00 00 00
	00		 mov	 esi, DWORD PTR __imp__SendMessageA@16
  00030	6a 00		 push	 0
  00032	6a 00		 push	 0
  00034	68 04 10 00 00	 push	 4100			; 00001004H
  00039	ff b3 50 02 00
	00		 push	 DWORD PTR [ebx+592]
  0003f	ff d6		 call	 esi
; File C:\Program Files (x86)\Microsoft Visual Studio\2019\Community\VC\Tools\MSVC\14.29.30133\atlmfc\include\afxwin2.inl

; 628  : 	{ ASSERT(::IsWindow(m_hWnd)); return (int)::SendMessage(m_hWnd, BM_GETCHECK, 0, 0); }

  00041	6a 00		 push	 0
  00043	6a 00		 push	 0
  00045	68 f0 00 00 00	 push	 240			; 000000f0H
  0004a	ff b3 d0 00 00
	00		 push	 DWORD PTR [ebx+208]
; File D:\git\src\IBK\IBK_DRFN\ProjSrc\SrcDrfn\Chart\STCONFIGUREDLG\TabVariables.cpp

; 232  : 	int nItemCount = m_listVariables.GetItemCount();	

  00050	8b f8		 mov	 edi, eax
  00052	89 7d e8	 mov	 DWORD PTR _nItemCount$1$[ebp], edi
; File C:\Program Files (x86)\Microsoft Visual Studio\2019\Community\VC\Tools\MSVC\14.29.30133\atlmfc\include\afxwin2.inl

; 628  : 	{ ASSERT(::IsWindow(m_hWnd)); return (int)::SendMessage(m_hWnd, BM_GETCHECK, 0, 0); }

  00055	ff d6		 call	 esi
; File D:\git\src\IBK\IBK_DRFN\ProjSrc\SrcDrfn\Chart\STCONFIGUREDLG\TabVariables.cpp

; 235  : 	CString strItemText;

  00057	8d 4d f0	 lea	 ecx, DWORD PTR _strItemText$[ebp]
  0005a	8d 70 ff	 lea	 esi, DWORD PTR [eax-1]
  0005d	f7 de		 neg	 esi
  0005f	1b f6		 sbb	 esi, esi
  00061	83 c6 03	 add	 esi, 3
  00064	ff 15 00 00 00
	00		 call	 DWORD PTR __imp_??0?$CStringT@DV?$StrTraitMFC_DLL@DV?$ChTraitsCRT@D@ATL@@@@@ATL@@QAE@XZ

; 236  : 	CString strKeyName;

  0006a	8d 4d ec	 lea	 ecx, DWORD PTR _strKeyName$[ebp]
  0006d	c7 45 fc 00 00
	00 00		 mov	 DWORD PTR __$EHRec$[ebp+8], 0
  00074	ff 15 00 00 00
	00		 call	 DWORD PTR __imp_??0?$CStringT@DV?$StrTraitMFC_DLL@DV?$ChTraitsCRT@D@ATL@@@@@ATL@@QAE@XZ

; 237  : 	strItemText.Format("%d",nItemCount);

  0007a	57		 push	 edi
  0007b	8d 45 f0	 lea	 eax, DWORD PTR _strItemText$[ebp]
  0007e	c6 45 fc 01	 mov	 BYTE PTR __$EHRec$[ebp+8], 1
  00082	68 00 00 00 00	 push	 OFFSET ??_C@_02DPKJAMEF@?$CFd@
  00087	50		 push	 eax
  00088	ff 15 00 00 00
	00		 call	 DWORD PTR __imp_?Format@?$CStringT@DV?$StrTraitMFC_DLL@DV?$ChTraitsCRT@D@ATL@@@@@ATL@@QAAXPBDZZ
  0008e	83 c4 0c	 add	 esp, 12			; 0000000cH

; 238  : 
; 239  : 	m_listVariables.UnpressEditBox();

  00091	8d 8b 30 02 00
	00		 lea	 ecx, DWORD PTR [ebx+560]
  00097	e8 00 00 00 00	 call	 ?UnpressEditBox@CXListCtrl@@QAEXXZ ; CXListCtrl::UnpressEditBox

; 240  : 	((CDlgSTOption*)m_pDlgSTOption)->WritePrivateProfileStringInST(VARIABLES,INPUTCNT,strItemText,nUseType);

  0009c	8b 8b e0 03 00
	00		 mov	 ecx, DWORD PTR [ebx+992]
  000a2	56		 push	 esi
  000a3	ff 75 f0	 push	 DWORD PTR _strItemText$[ebp]
  000a6	68 00 00 00 00	 push	 OFFSET ??_C@_08JFMIELNJ@InputCnt@
  000ab	68 00 00 00 00	 push	 OFFSET ??_C@_09IJIPICN@Variables@
  000b0	e8 00 00 00 00	 call	 ?WritePrivateProfileStringInST@CDlgSTOption@@QAEHPBD00H@Z ; CDlgSTOption::WritePrivateProfileStringInST

; 241  : 	for(int nPos=0;nPos<nItemCount;nPos++)

  000b5	33 ff		 xor	 edi, edi
  000b7	39 7d e8	 cmp	 DWORD PTR _nItemCount$1$[ebp], edi
  000ba	0f 8e c2 00 00
	00		 jle	 $LN3@SaveInfo
$LL4@SaveInfo:

; 242  : 	{		
; 243  : 		strItemText = m_listVariables.GetItemText(nPos,1);

  000c0	6a 01		 push	 1
  000c2	57		 push	 edi
  000c3	8d 45 e4	 lea	 eax, DWORD PTR $T3[ebp]
  000c6	50		 push	 eax
  000c7	8d 8b 30 02 00
	00		 lea	 ecx, DWORD PTR [ebx+560]
  000cd	e8 00 00 00 00	 call	 ?GetItemText@CListCtrl@@QBE?AV?$CStringT@DV?$StrTraitMFC_DLL@DV?$ChTraitsCRT@D@ATL@@@@@ATL@@HH@Z ; CListCtrl::GetItemText
  000d2	50		 push	 eax
  000d3	8d 4d f0	 lea	 ecx, DWORD PTR _strItemText$[ebp]
  000d6	c6 45 fc 02	 mov	 BYTE PTR __$EHRec$[ebp+8], 2
  000da	ff 15 00 00 00
	00		 call	 DWORD PTR __imp_??4?$CStringT@DV?$StrTraitMFC_DLL@DV?$ChTraitsCRT@D@ATL@@@@@ATL@@QAEAAV01@ABV01@@Z
  000e0	8d 4d e4	 lea	 ecx, DWORD PTR $T3[ebp]
  000e3	c6 45 fc 01	 mov	 BYTE PTR __$EHRec$[ebp+8], 1
  000e7	ff 15 00 00 00
	00		 call	 DWORD PTR __imp_??1?$CStringT@DV?$StrTraitMFC_DLL@DV?$ChTraitsCRT@D@ATL@@@@@ATL@@QAE@XZ

; 244  : 		strKeyName.Format("%s%d",INPUTVALUE,nPos);

  000ed	57		 push	 edi
  000ee	68 00 00 00 00	 push	 OFFSET ??_C@_05DCDOHKAB@Input@
  000f3	8d 45 ec	 lea	 eax, DWORD PTR _strKeyName$[ebp]
  000f6	68 00 00 00 00	 push	 OFFSET ??_C@_04HGGBINEM@?$CFs?$CFd@
  000fb	50		 push	 eax
  000fc	ff 15 00 00 00
	00		 call	 DWORD PTR __imp_?Format@?$CStringT@DV?$StrTraitMFC_DLL@DV?$ChTraitsCRT@D@ATL@@@@@ATL@@QAAXPBDZZ

; 245  : 		((CDlgSTOption*)m_pDlgSTOption)->WritePrivateProfileStringInST(VARIABLES,strKeyName,strItemText,nUseType);

  00102	8b 8b e0 03 00
	00		 mov	 ecx, DWORD PTR [ebx+992]
  00108	83 c4 10	 add	 esp, 16			; 00000010H
  0010b	56		 push	 esi
  0010c	ff 75 f0	 push	 DWORD PTR _strItemText$[ebp]
  0010f	ff 75 ec	 push	 DWORD PTR _strKeyName$[ebp]
  00112	68 00 00 00 00	 push	 OFFSET ??_C@_09IJIPICN@Variables@
  00117	e8 00 00 00 00	 call	 ?WritePrivateProfileStringInST@CDlgSTOption@@QAEHPBD00H@Z ; CDlgSTOption::WritePrivateProfileStringInST

; 246  : 		strItemText = m_listVariables.GetItemText(nPos,0);

  0011c	6a 00		 push	 0
  0011e	57		 push	 edi
  0011f	8d 45 e0	 lea	 eax, DWORD PTR $T2[ebp]
  00122	50		 push	 eax
  00123	8d 8b 30 02 00
	00		 lea	 ecx, DWORD PTR [ebx+560]
  00129	e8 00 00 00 00	 call	 ?GetItemText@CListCtrl@@QBE?AV?$CStringT@DV?$StrTraitMFC_DLL@DV?$ChTraitsCRT@D@ATL@@@@@ATL@@HH@Z ; CListCtrl::GetItemText
  0012e	50		 push	 eax
  0012f	8d 4d f0	 lea	 ecx, DWORD PTR _strItemText$[ebp]
  00132	c6 45 fc 03	 mov	 BYTE PTR __$EHRec$[ebp+8], 3
  00136	ff 15 00 00 00
	00		 call	 DWORD PTR __imp_??4?$CStringT@DV?$StrTraitMFC_DLL@DV?$ChTraitsCRT@D@ATL@@@@@ATL@@QAEAAV01@ABV01@@Z
  0013c	8d 4d e0	 lea	 ecx, DWORD PTR $T2[ebp]
  0013f	c6 45 fc 01	 mov	 BYTE PTR __$EHRec$[ebp+8], 1
  00143	ff 15 00 00 00
	00		 call	 DWORD PTR __imp_??1?$CStringT@DV?$StrTraitMFC_DLL@DV?$ChTraitsCRT@D@ATL@@@@@ATL@@QAE@XZ

; 247  : 		strKeyName.Format("%s%d",INPUTNAME,nPos);

  00149	57		 push	 edi
  0014a	68 00 00 00 00	 push	 OFFSET ??_C@_09FEBEHBMB@InputName@
  0014f	8d 45 ec	 lea	 eax, DWORD PTR _strKeyName$[ebp]
  00152	68 00 00 00 00	 push	 OFFSET ??_C@_04HGGBINEM@?$CFs?$CFd@
  00157	50		 push	 eax
  00158	ff 15 00 00 00
	00		 call	 DWORD PTR __imp_?Format@?$CStringT@DV?$StrTraitMFC_DLL@DV?$ChTraitsCRT@D@ATL@@@@@ATL@@QAAXPBDZZ

; 248  : 		((CDlgSTOption*)m_pDlgSTOption)->WritePrivateProfileStringInST(VARIABLES,strKeyName,strItemText,nUseType);

  0015e	8b 8b e0 03 00
	00		 mov	 ecx, DWORD PTR [ebx+992]
  00164	83 c4 10	 add	 esp, 16			; 00000010H
  00167	56		 push	 esi
  00168	ff 75 f0	 push	 DWORD PTR _strItemText$[ebp]
  0016b	ff 75 ec	 push	 DWORD PTR _strKeyName$[ebp]
  0016e	68 00 00 00 00	 push	 OFFSET ??_C@_09IJIPICN@Variables@
  00173	e8 00 00 00 00	 call	 ?WritePrivateProfileStringInST@CDlgSTOption@@QAEHPBD00H@Z ; CDlgSTOption::WritePrivateProfileStringInST
  00178	47		 inc	 edi
  00179	3b 7d e8	 cmp	 edi, DWORD PTR _nItemCount$1$[ebp]
  0017c	0f 8c 3e ff ff
	ff		 jl	 $LL4@SaveInfo
$LN3@SaveInfo:

; 249  : 	}
; 250  : 	return TRUE;

  00182	8d 4d ec	 lea	 ecx, DWORD PTR _strKeyName$[ebp]
  00185	ff 15 00 00 00
	00		 call	 DWORD PTR __imp_??1?$CStringT@DV?$StrTraitMFC_DLL@DV?$ChTraitsCRT@D@ATL@@@@@ATL@@QAE@XZ
  0018b	8d 4d f0	 lea	 ecx, DWORD PTR _strItemText$[ebp]
  0018e	ff 15 00 00 00
	00		 call	 DWORD PTR __imp_??1?$CStringT@DV?$StrTraitMFC_DLL@DV?$ChTraitsCRT@D@ATL@@@@@ATL@@QAE@XZ
  00194	b8 01 00 00 00	 mov	 eax, 1

; 251  : }

  00199	8b 4d f4	 mov	 ecx, DWORD PTR __$EHRec$[ebp]
  0019c	64 89 0d 00 00
	00 00		 mov	 DWORD PTR fs:0, ecx
  001a3	59		 pop	 ecx
  001a4	5f		 pop	 edi
  001a5	5e		 pop	 esi
  001a6	5b		 pop	 ebx
  001a7	8b e5		 mov	 esp, ebp
  001a9	5d		 pop	 ebp
  001aa	c3		 ret	 0
_TEXT	ENDS
;	COMDAT text$x
text$x	SEGMENT
__unwindfunclet$?SaveInfo@CTabVariables@@MAEHXZ$0:
  00000	8d 4d f0	 lea	 ecx, DWORD PTR _strItemText$[ebp]
  00003	ff 25 00 00 00
	00		 jmp	 DWORD PTR __imp_??1?$CStringT@DV?$StrTraitMFC_DLL@DV?$ChTraitsCRT@D@ATL@@@@@ATL@@QAE@XZ
__unwindfunclet$?SaveInfo@CTabVariables@@MAEHXZ$1:
  00009	8d 4d ec	 lea	 ecx, DWORD PTR _strKeyName$[ebp]
  0000c	ff 25 00 00 00
	00		 jmp	 DWORD PTR __imp_??1?$CStringT@DV?$StrTraitMFC_DLL@DV?$ChTraitsCRT@D@ATL@@@@@ATL@@QAE@XZ
__unwindfunclet$?SaveInfo@CTabVariables@@MAEHXZ$2:
  00012	8d 4d e4	 lea	 ecx, DWORD PTR $T3[ebp]
  00015	ff 25 00 00 00
	00		 jmp	 DWORD PTR __imp_??1?$CStringT@DV?$StrTraitMFC_DLL@DV?$ChTraitsCRT@D@ATL@@@@@ATL@@QAE@XZ
__unwindfunclet$?SaveInfo@CTabVariables@@MAEHXZ$3:
  0001b	8d 4d e0	 lea	 ecx, DWORD PTR $T2[ebp]
  0001e	ff 25 00 00 00
	00		 jmp	 DWORD PTR __imp_??1?$CStringT@DV?$StrTraitMFC_DLL@DV?$ChTraitsCRT@D@ATL@@@@@ATL@@QAE@XZ
  00024	cc		 int	 3
  00025	cc		 int	 3
  00026	cc		 int	 3
  00027	cc		 int	 3
  00028	cc		 int	 3
__ehhandler$?SaveInfo@CTabVariables@@MAEHXZ:
  00029	90		 npad	 1
  0002a	90		 npad	 1
  0002b	8b 54 24 08	 mov	 edx, DWORD PTR [esp+8]
  0002f	8d 42 0c	 lea	 eax, DWORD PTR [edx+12]
  00032	8b 4a dc	 mov	 ecx, DWORD PTR [edx-36]
  00035	33 c8		 xor	 ecx, eax
  00037	e8 00 00 00 00	 call	 @__security_check_cookie@4
  0003c	b8 00 00 00 00	 mov	 eax, OFFSET __ehfuncinfo$?SaveInfo@CTabVariables@@MAEHXZ
  00041	e9 00 00 00 00	 jmp	 ___CxxFrameHandler3
text$x	ENDS
?SaveInfo@CTabVariables@@MAEHXZ ENDP			; CTabVariables::SaveInfo
; Function compile flags: /Ogtp
; File D:\git\src\IBK\IBK_DRFN\ProjSrc\SrcDrfn\Chart\STCONFIGUREDLG\TabVariables.cpp
; File C:\Program Files (x86)\Microsoft Visual Studio\2019\Community\VC\Tools\MSVC\14.29.30133\atlmfc\include\atlsimpstr.h
; File D:\git\src\IBK\IBK_DRFN\ProjSrc\SrcDrfn\Chart\STCONFIGUREDLG\TabVariables.cpp
; File C:\Program Files (x86)\Microsoft Visual Studio\2019\Community\VC\Tools\MSVC\14.29.30133\atlmfc\include\atlsimpstr.h
; File D:\git\src\IBK\IBK_DRFN\ProjSrc\SrcDrfn\Chart\STCONFIGUREDLG\TabVariables.cpp
;	COMDAT ?LoadInfo@CTabVariables@@MAEXXZ
_TEXT	SEGMENT
$T2 = -308						; size = 4
_pDataItem$1$ = -304					; size = 4
$T3 = -300						; size = 4
_this$GSCopy$1$ = -296					; size = 4
_nCnt$1$ = -292						; size = 4
_strInitValue$ = -288					; size = 4
_strItemName$ = -284					; size = 4
_strKeyName$ = -280					; size = 4
_strText$ = -276					; size = 4
_szBuffer$ = -272					; size = 256
__$ArrayPad$ = -16					; size = 4
__$EHRec$ = -12						; size = 12
?LoadInfo@CTabVariables@@MAEXXZ PROC			; CTabVariables::LoadInfo, COMDAT
; _this$ = ecx

; 157  : {

  00000	55		 push	 ebp
  00001	8b ec		 mov	 ebp, esp
  00003	6a ff		 push	 -1
  00005	68 00 00 00 00	 push	 __ehhandler$?LoadInfo@CTabVariables@@MAEXXZ
  0000a	64 a1 00 00 00
	00		 mov	 eax, DWORD PTR fs:0
  00010	50		 push	 eax
  00011	81 ec 28 01 00
	00		 sub	 esp, 296		; 00000128H
  00017	a1 00 00 00 00	 mov	 eax, DWORD PTR ___security_cookie
  0001c	33 c5		 xor	 eax, ebp
  0001e	89 45 f0	 mov	 DWORD PTR __$ArrayPad$[ebp], eax
  00021	53		 push	 ebx
  00022	56		 push	 esi
  00023	57		 push	 edi
  00024	50		 push	 eax
  00025	8d 45 f4	 lea	 eax, DWORD PTR __$EHRec$[ebp]
  00028	64 a3 00 00 00
	00		 mov	 DWORD PTR fs:0, eax
  0002e	8b d9		 mov	 ebx, ecx
  00030	89 9d d8 fe ff
	ff		 mov	 DWORD PTR _this$GSCopy$1$[ebp], ebx

; 158  : 	CISTControllerD *pSTControllerCfg = ((CDlgSTOption*)m_pDlgSTOption)->GetISTControllerD();

  00036	8b 83 e0 03 00
	00		 mov	 eax, DWORD PTR [ebx+992]

; 159  : 	char szBuffer[256];
; 160  : 	CString strText;

  0003c	8d 8d ec fe ff
	ff		 lea	 ecx, DWORD PTR _strText$[ebp]
  00042	8b b8 bc 04 00
	00		 mov	 edi, DWORD PTR [eax+1212]
  00048	ff 15 00 00 00
	00		 call	 DWORD PTR __imp_??0?$CStringT@DV?$StrTraitMFC_DLL@DV?$ChTraitsCRT@D@ATL@@@@@ATL@@QAE@XZ

; 161  : 	CIDataItem *pDataItem = NULL;
; 162  : 	DWORD dwSizeRead = 0;
; 163  : 	CString strKeyName;

  0004e	8d 8d e8 fe ff
	ff		 lea	 ecx, DWORD PTR _strKeyName$[ebp]
  00054	c7 45 fc 00 00
	00 00		 mov	 DWORD PTR __$EHRec$[ebp+8], 0
  0005b	ff 15 00 00 00
	00		 call	 DWORD PTR __imp_??0?$CStringT@DV?$StrTraitMFC_DLL@DV?$ChTraitsCRT@D@ATL@@@@@ATL@@QAE@XZ

; 164  : 	CString strInitValue;

  00061	8d 8d e0 fe ff
	ff		 lea	 ecx, DWORD PTR _strInitValue$[ebp]
  00067	ff 15 00 00 00
	00		 call	 DWORD PTR __imp_??0?$CStringT@DV?$StrTraitMFC_DLL@DV?$ChTraitsCRT@D@ATL@@@@@ATL@@QAE@XZ

; 165  : 	CString strItemName;

  0006d	8d 8d e4 fe ff
	ff		 lea	 ecx, DWORD PTR _strItemName$[ebp]
  00073	ff 15 00 00 00
	00		 call	 DWORD PTR __imp_??0?$CStringT@DV?$StrTraitMFC_DLL@DV?$ChTraitsCRT@D@ATL@@@@@ATL@@QAE@XZ
  00079	c6 45 fc 03	 mov	 BYTE PTR __$EHRec$[ebp+8], 3

; 166  : 	int nCnt = 0;
; 167  : 
; 168  : 	if(pSTControllerCfg)

  0007d	85 ff		 test	 edi, edi
  0007f	74 0c		 je	 SHORT $LN5@LoadInfo

; 169  : 	{
; 170  : 		nCnt = MAXCNTOFINPUTHOLDER;

  00081	c7 85 dc fe ff
	ff 46 00 00 00	 mov	 DWORD PTR _nCnt$1$[ebp], 70 ; 00000046H

; 171  : 	}

  0008b	eb 46		 jmp	 SHORT $LN44@LoadInfo
$LN5@LoadInfo:

; 172  : 	else
; 173  : 	{		
; 174  : 		((CDlgSTOption*)m_pDlgSTOption)->GetPrivateProfileStringInST(VARIABLES,INPUTCNT,"0",szBuffer,sizeof(szBuffer),2);

  0008d	8b 8b e0 03 00
	00		 mov	 ecx, DWORD PTR [ebx+992]
  00093	8d 85 f0 fe ff
	ff		 lea	 eax, DWORD PTR _szBuffer$[ebp]
  00099	6a 02		 push	 2
  0009b	68 00 01 00 00	 push	 256			; 00000100H
  000a0	50		 push	 eax
  000a1	68 00 00 00 00	 push	 OFFSET ??_C@_01GBGANLPD@0@
  000a6	68 00 00 00 00	 push	 OFFSET ??_C@_08JFMIELNJ@InputCnt@
  000ab	68 00 00 00 00	 push	 OFFSET ??_C@_09IJIPICN@Variables@
  000b0	e8 00 00 00 00	 call	 ?GetPrivateProfileStringInST@CDlgSTOption@@QAEKPBD00PADKH@Z ; CDlgSTOption::GetPrivateProfileStringInST

; 175  : 		nCnt = atol(szBuffer);

  000b5	8d 85 f0 fe ff
	ff		 lea	 eax, DWORD PTR _szBuffer$[ebp]
  000bb	50		 push	 eax
  000bc	ff 15 00 00 00
	00		 call	 DWORD PTR __imp__atol
  000c2	83 c4 04	 add	 esp, 4
  000c5	89 85 dc fe ff
	ff		 mov	 DWORD PTR _nCnt$1$[ebp], eax

; 176  : 	}
; 177  : 	for(int nPos=0;nPos<nCnt;nPos++)

  000cb	85 c0		 test	 eax, eax
  000cd	0f 8e 2b 02 00
	00		 jle	 $LN39@LoadInfo
$LN44@LoadInfo:
  000d3	33 f6		 xor	 esi, esi
$LL4@LoadInfo:

; 178  : 	{
; 179  : 		if(pSTControllerCfg)

  000d5	56		 push	 esi
  000d6	85 ff		 test	 edi, edi
  000d8	0f 84 80 00 00
	00		 je	 $LN7@LoadInfo

; 180  : 		{
; 181  : 			pDataItem = pSTControllerCfg->GetInputHolderDataItem(nPos);

  000de	8b 07		 mov	 eax, DWORD PTR [edi]
  000e0	8b cf		 mov	 ecx, edi
  000e2	ff 90 ac 00 00
	00		 call	 DWORD PTR [eax+172]
  000e8	89 85 d0 fe ff
	ff		 mov	 DWORD PTR _pDataItem$1$[ebp], eax

; 182  : 			if(!pDataItem)	break;

  000ee	85 c0		 test	 eax, eax
  000f0	0f 84 08 02 00
	00		 je	 $LN39@LoadInfo

; 183  : 			strInitValue = pSTControllerCfg->GetInputs(nPos);

  000f6	8b 17		 mov	 edx, DWORD PTR [edi]
  000f8	8d 85 d4 fe ff
	ff		 lea	 eax, DWORD PTR $T3[ebp]
  000fe	56		 push	 esi
  000ff	50		 push	 eax
  00100	8b cf		 mov	 ecx, edi
  00102	ff 92 b0 00 00
	00		 call	 DWORD PTR [edx+176]
  00108	50		 push	 eax
  00109	8d 8d e0 fe ff
	ff		 lea	 ecx, DWORD PTR _strInitValue$[ebp]
  0010f	c6 45 fc 04	 mov	 BYTE PTR __$EHRec$[ebp+8], 4
  00113	ff 15 00 00 00
	00		 call	 DWORD PTR __imp_??4?$CStringT@DV?$StrTraitMFC_DLL@DV?$ChTraitsCRT@D@ATL@@@@@ATL@@QAEAAV01@ABV01@@Z
  00119	8d 8d d4 fe ff
	ff		 lea	 ecx, DWORD PTR $T3[ebp]
  0011f	c6 45 fc 03	 mov	 BYTE PTR __$EHRec$[ebp+8], 3
  00123	ff 15 00 00 00
	00		 call	 DWORD PTR __imp_??1?$CStringT@DV?$StrTraitMFC_DLL@DV?$ChTraitsCRT@D@ATL@@@@@ATL@@QAE@XZ

; 184  : 			strItemName = pDataItem->GetDataItemName();

  00129	8b 8d d0 fe ff
	ff		 mov	 ecx, DWORD PTR _pDataItem$1$[ebp]
  0012f	8d 95 cc fe ff
	ff		 lea	 edx, DWORD PTR $T2[ebp]
  00135	52		 push	 edx
  00136	8b 01		 mov	 eax, DWORD PTR [ecx]
  00138	ff 50 14	 call	 DWORD PTR [eax+20]
  0013b	50		 push	 eax
  0013c	8d 8d e4 fe ff
	ff		 lea	 ecx, DWORD PTR _strItemName$[ebp]
  00142	c6 45 fc 05	 mov	 BYTE PTR __$EHRec$[ebp+8], 5
  00146	ff 15 00 00 00
	00		 call	 DWORD PTR __imp_??4?$CStringT@DV?$StrTraitMFC_DLL@DV?$ChTraitsCRT@D@ATL@@@@@ATL@@QAEAAV01@ABV01@@Z
  0014c	8d 8d cc fe ff
	ff		 lea	 ecx, DWORD PTR $T2[ebp]
  00152	c6 45 fc 03	 mov	 BYTE PTR __$EHRec$[ebp+8], 3
  00156	ff 15 00 00 00
	00		 call	 DWORD PTR __imp_??1?$CStringT@DV?$StrTraitMFC_DLL@DV?$ChTraitsCRT@D@ATL@@@@@ATL@@QAE@XZ

; 185  : 		}

  0015c	eb 5e		 jmp	 SHORT $LN11@LoadInfo
$LN7@LoadInfo:

; 186  : 		else
; 187  : 		{
; 188  : 			strKeyName.Format("%s%d",INPUTNAME,nPos);

  0015e	68 00 00 00 00	 push	 OFFSET ??_C@_09FEBEHBMB@InputName@
  00163	8d 85 e8 fe ff
	ff		 lea	 eax, DWORD PTR _strKeyName$[ebp]
  00169	68 00 00 00 00	 push	 OFFSET ??_C@_04HGGBINEM@?$CFs?$CFd@
  0016e	50		 push	 eax
  0016f	ff 15 00 00 00
	00		 call	 DWORD PTR __imp_?Format@?$CStringT@DV?$StrTraitMFC_DLL@DV?$ChTraitsCRT@D@ATL@@@@@ATL@@QAAXPBDZZ

; 189  : 			dwSizeRead = ((CDlgSTOption*)m_pDlgSTOption)->GetPrivateProfileStringInST(VARIABLES,strKeyName,"",szBuffer,sizeof(szBuffer),2);

  00175	8b 8b e0 03 00
	00		 mov	 ecx, DWORD PTR [ebx+992]
  0017b	8d 85 f0 fe ff
	ff		 lea	 eax, DWORD PTR _szBuffer$[ebp]
  00181	83 c4 10	 add	 esp, 16			; 00000010H
  00184	6a 02		 push	 2
  00186	68 00 01 00 00	 push	 256			; 00000100H
  0018b	50		 push	 eax
  0018c	68 00 00 00 00	 push	 OFFSET ??_C@_00CNPNBAHC@@
  00191	ff b5 e8 fe ff
	ff		 push	 DWORD PTR _strKeyName$[ebp]
  00197	68 00 00 00 00	 push	 OFFSET ??_C@_09IJIPICN@Variables@
  0019c	e8 00 00 00 00	 call	 ?GetPrivateProfileStringInST@CDlgSTOption@@QAEKPBD00PADKH@Z ; CDlgSTOption::GetPrivateProfileStringInST

; 190  : 			if(dwSizeRead)

  001a1	85 c0		 test	 eax, eax
  001a3	0f 84 55 01 00
	00		 je	 $LN39@LoadInfo

; 191  : 			{
; 192  : 				strItemName = szBuffer;

  001a9	8d 85 f0 fe ff
	ff		 lea	 eax, DWORD PTR _szBuffer$[ebp]
  001af	50		 push	 eax
  001b0	8d 8d e4 fe ff
	ff		 lea	 ecx, DWORD PTR _strItemName$[ebp]
  001b6	ff 15 00 00 00
	00		 call	 DWORD PTR __imp_??4?$CStringT@DV?$StrTraitMFC_DLL@DV?$ChTraitsCRT@D@ATL@@@@@ATL@@QAEAAV01@PBD@Z
$LN11@LoadInfo:

; 193  : 			}
; 194  : 			else
; 195  : 			{
; 196  : 				break;
; 197  : 			}
; 198  : 		}
; 199  : 
; 200  : 		strKeyName.Format("%s%d",INPUTVALUE,nPos);

  001bc	56		 push	 esi
  001bd	68 00 00 00 00	 push	 OFFSET ??_C@_05DCDOHKAB@Input@
  001c2	8d 85 e8 fe ff
	ff		 lea	 eax, DWORD PTR _strKeyName$[ebp]
  001c8	68 00 00 00 00	 push	 OFFSET ??_C@_04HGGBINEM@?$CFs?$CFd@
  001cd	50		 push	 eax
  001ce	ff 15 00 00 00
	00		 call	 DWORD PTR __imp_?Format@?$CStringT@DV?$StrTraitMFC_DLL@DV?$ChTraitsCRT@D@ATL@@@@@ATL@@QAAXPBDZZ

; 201  : 		dwSizeRead = ((CDlgSTOption*)m_pDlgSTOption)->GetPrivateProfileStringInST(VARIABLES,strKeyName,"",szBuffer,sizeof(szBuffer),2);

  001d4	8b 8b e0 03 00
	00		 mov	 ecx, DWORD PTR [ebx+992]
  001da	8d 85 f0 fe ff
	ff		 lea	 eax, DWORD PTR _szBuffer$[ebp]
  001e0	83 c4 10	 add	 esp, 16			; 00000010H
  001e3	6a 02		 push	 2
  001e5	68 00 01 00 00	 push	 256			; 00000100H
  001ea	50		 push	 eax
  001eb	68 00 00 00 00	 push	 OFFSET ??_C@_00CNPNBAHC@@
  001f0	ff b5 e8 fe ff
	ff		 push	 DWORD PTR _strKeyName$[ebp]
  001f6	68 00 00 00 00	 push	 OFFSET ??_C@_09IJIPICN@Variables@
  001fb	e8 00 00 00 00	 call	 ?GetPrivateProfileStringInST@CDlgSTOption@@QAEKPBD00PADKH@Z ; CDlgSTOption::GetPrivateProfileStringInST

; 202  : 		if(!dwSizeRead)

  00200	85 c0		 test	 eax, eax
  00202	75 1d		 jne	 SHORT $LN12@LoadInfo

; 203  : 		{
; 204  : 			if(!pSTControllerCfg) break;

  00204	85 ff		 test	 edi, edi
  00206	0f 84 f2 00 00
	00		 je	 $LN39@LoadInfo

; 205  : 			strText = strInitValue;

  0020c	8d 85 e0 fe ff
	ff		 lea	 eax, DWORD PTR _strInitValue$[ebp]
  00212	50		 push	 eax
  00213	8d 8d ec fe ff
	ff		 lea	 ecx, DWORD PTR _strText$[ebp]
  00219	ff 15 00 00 00
	00		 call	 DWORD PTR __imp_??4?$CStringT@DV?$StrTraitMFC_DLL@DV?$ChTraitsCRT@D@ATL@@@@@ATL@@QAEAAV01@ABV01@@Z

; 206  : 		}

  0021f	eb 13		 jmp	 SHORT $LN13@LoadInfo
$LN12@LoadInfo:

; 207  : 		else
; 208  : 		{
; 209  : 			strText = szBuffer;

  00221	8d 85 f0 fe ff
	ff		 lea	 eax, DWORD PTR _szBuffer$[ebp]
  00227	50		 push	 eax
  00228	8d 8d ec fe ff
	ff		 lea	 ecx, DWORD PTR _strText$[ebp]
  0022e	ff 15 00 00 00
	00		 call	 DWORD PTR __imp_??4?$CStringT@DV?$StrTraitMFC_DLL@DV?$ChTraitsCRT@D@ATL@@@@@ATL@@QAEAAV01@PBD@Z
$LN13@LoadInfo:

; 210  : 		}		
; 211  : 		if(strText.Find('.')!=-1)

  00234	6a 00		 push	 0
  00236	6a 2e		 push	 46			; 0000002eH
  00238	8d 8d ec fe ff
	ff		 lea	 ecx, DWORD PTR _strText$[ebp]
  0023e	ff 15 00 00 00
	00		 call	 DWORD PTR __imp_?Find@?$CStringT@DV?$StrTraitMFC_DLL@DV?$ChTraitsCRT@D@ATL@@@@@ATL@@QBEHDH@Z
  00244	83 f8 ff	 cmp	 eax, -1
  00247	74 37		 je	 SHORT $LN16@LoadInfo

; 212  : 		{
; 213  : 			strText.TrimRight('0');

  00249	6a 30		 push	 48			; 00000030H
  0024b	8d 8d ec fe ff
	ff		 lea	 ecx, DWORD PTR _strText$[ebp]
  00251	ff 15 00 00 00
	00		 call	 DWORD PTR __imp_?TrimRight@?$CStringT@DV?$StrTraitMFC_DLL@DV?$ChTraitsCRT@D@ATL@@@@@ATL@@QAEAAV12@D@Z
; File C:\Program Files (x86)\Microsoft Visual Studio\2019\Community\VC\Tools\MSVC\14.29.30133\atlmfc\include\atlsimpstr.h

; 519  : 		return( GetData()->nDataLength );

  00257	8b 85 ec fe ff
	ff		 mov	 eax, DWORD PTR _strText$[ebp]
; File D:\git\src\IBK\IBK_DRFN\ProjSrc\SrcDrfn\Chart\STCONFIGUREDLG\TabVariables.cpp

; 214  : 			if(strText[strText.GetLength()-1]=='.') strText.TrimRight('.');

  0025d	8d 8d ec fe ff
	ff		 lea	 ecx, DWORD PTR _strText$[ebp]
; File C:\Program Files (x86)\Microsoft Visual Studio\2019\Community\VC\Tools\MSVC\14.29.30133\atlmfc\include\atlsimpstr.h

; 519  : 		return( GetData()->nDataLength );

  00263	8b 40 f4	 mov	 eax, DWORD PTR [eax-12]
; File D:\git\src\IBK\IBK_DRFN\ProjSrc\SrcDrfn\Chart\STCONFIGUREDLG\TabVariables.cpp

; 214  : 			if(strText[strText.GetLength()-1]=='.') strText.TrimRight('.');

  00266	48		 dec	 eax
  00267	50		 push	 eax
  00268	ff 15 00 00 00
	00		 call	 DWORD PTR __imp_??A?$CSimpleStringT@D$00@ATL@@QBEDH@Z
  0026e	3c 2e		 cmp	 al, 46			; 0000002eH
  00270	75 0e		 jne	 SHORT $LN16@LoadInfo
  00272	6a 2e		 push	 46			; 0000002eH
  00274	8d 8d ec fe ff
	ff		 lea	 ecx, DWORD PTR _strText$[ebp]
  0027a	ff 15 00 00 00
	00		 call	 DWORD PTR __imp_?TrimRight@?$CStringT@DV?$StrTraitMFC_DLL@DV?$ChTraitsCRT@D@ATL@@@@@ATL@@QAEAAV12@D@Z
$LN16@LoadInfo:

; 215  : 		}
; 216  : 		m_listVariables.InsertItem(nPos,"");

  00280	68 00 00 00 00	 push	 OFFSET ??_C@_00CNPNBAHC@@
  00285	81 c3 30 02 00
	00		 add	 ebx, 560		; 00000230H
  0028b	56		 push	 esi
  0028c	8b cb		 mov	 ecx, ebx
  0028e	e8 00 00 00 00	 call	 ?InsertItem@CXListCtrl@@QAEHHPBD@Z ; CXListCtrl::InsertItem

; 217  : 		m_listVariables.SetItemText(nPos,0,strItemName);

  00293	ff b5 e4 fe ff
	ff		 push	 DWORD PTR _strItemName$[ebp]
  00299	8b cb		 mov	 ecx, ebx
  0029b	6a 00		 push	 0
  0029d	56		 push	 esi
  0029e	e8 00 00 00 00	 call	 ?SetItemText@CXListCtrl@@QAEHHHPBD@Z ; CXListCtrl::SetItemText

; 218  : 		m_listVariables.SetItemText(nPos,1,strText);		

  002a3	ff b5 ec fe ff
	ff		 push	 DWORD PTR _strText$[ebp]
  002a9	8b cb		 mov	 ecx, ebx
  002ab	6a 01		 push	 1
  002ad	56		 push	 esi
  002ae	e8 00 00 00 00	 call	 ?SetItemText@CXListCtrl@@QAEHHHPBD@Z ; CXListCtrl::SetItemText

; 219  : 
; 220  : 
; 221  : 		int nType = ((CDlgSTOption*)m_pDlgSTOption)->GetType();

  002b3	8b 8d d8 fe ff
	ff		 mov	 ecx, DWORD PTR _this$GSCopy$1$[ebp]
  002b9	8b 81 e0 03 00
	00		 mov	 eax, DWORD PTR [ecx+992]
  002bf	8b 80 c8 04 00
	00		 mov	 eax, DWORD PTR [eax+1224]

; 222  : 		if(!pSTControllerCfg&&(nType==1||nType==2))

  002c5	85 ff		 test	 edi, edi
  002c7	75 16		 jne	 SHORT $LN17@LoadInfo
  002c9	83 f8 01	 cmp	 eax, 1
  002cc	74 05		 je	 SHORT $LN18@LoadInfo
  002ce	83 f8 02	 cmp	 eax, 2
  002d1	75 0c		 jne	 SHORT $LN17@LoadInfo
$LN18@LoadInfo:

; 223  : 		{
; 224  : 			m_listVariables.SetEditBox(nPos,0);

  002d3	6a 01		 push	 1
  002d5	6a 00		 push	 0
  002d7	56		 push	 esi
  002d8	8b cb		 mov	 ecx, ebx
  002da	e8 00 00 00 00	 call	 ?SetEditBox@CXListCtrl@@QAEHHHH@Z ; CXListCtrl::SetEditBox
$LN17@LoadInfo:

; 225  : 		}
; 226  : 		m_listVariables.SetEditBox(nPos,1);

  002df	6a 01		 push	 1
  002e1	6a 01		 push	 1
  002e3	56		 push	 esi
  002e4	8b cb		 mov	 ecx, ebx
  002e6	e8 00 00 00 00	 call	 ?SetEditBox@CXListCtrl@@QAEHHHH@Z ; CXListCtrl::SetEditBox
  002eb	8b 9d d8 fe ff
	ff		 mov	 ebx, DWORD PTR _this$GSCopy$1$[ebp]
  002f1	46		 inc	 esi
  002f2	3b b5 dc fe ff
	ff		 cmp	 esi, DWORD PTR _nCnt$1$[ebp]
  002f8	0f 8c d7 fd ff
	ff		 jl	 $LL4@LoadInfo
$LN39@LoadInfo:

; 227  : 	}
; 228  : }

  002fe	8d 8d e4 fe ff
	ff		 lea	 ecx, DWORD PTR _strItemName$[ebp]
  00304	ff 15 00 00 00
	00		 call	 DWORD PTR __imp_??1?$CStringT@DV?$StrTraitMFC_DLL@DV?$ChTraitsCRT@D@ATL@@@@@ATL@@QAE@XZ
  0030a	8d 8d e0 fe ff
	ff		 lea	 ecx, DWORD PTR _strInitValue$[ebp]
  00310	ff 15 00 00 00
	00		 call	 DWORD PTR __imp_??1?$CStringT@DV?$StrTraitMFC_DLL@DV?$ChTraitsCRT@D@ATL@@@@@ATL@@QAE@XZ
  00316	8d 8d e8 fe ff
	ff		 lea	 ecx, DWORD PTR _strKeyName$[ebp]
  0031c	ff 15 00 00 00
	00		 call	 DWORD PTR __imp_??1?$CStringT@DV?$StrTraitMFC_DLL@DV?$ChTraitsCRT@D@ATL@@@@@ATL@@QAE@XZ
  00322	8d 8d ec fe ff
	ff		 lea	 ecx, DWORD PTR _strText$[ebp]
  00328	ff 15 00 00 00
	00		 call	 DWORD PTR __imp_??1?$CStringT@DV?$StrTraitMFC_DLL@DV?$ChTraitsCRT@D@ATL@@@@@ATL@@QAE@XZ
  0032e	8b 4d f4	 mov	 ecx, DWORD PTR __$EHRec$[ebp]
  00331	64 89 0d 00 00
	00 00		 mov	 DWORD PTR fs:0, ecx
  00338	59		 pop	 ecx
  00339	5f		 pop	 edi
  0033a	5e		 pop	 esi
  0033b	5b		 pop	 ebx
  0033c	8b 4d f0	 mov	 ecx, DWORD PTR __$ArrayPad$[ebp]
  0033f	33 cd		 xor	 ecx, ebp
  00341	e8 00 00 00 00	 call	 @__security_check_cookie@4
  00346	8b e5		 mov	 esp, ebp
  00348	5d		 pop	 ebp
  00349	c3		 ret	 0
_TEXT	ENDS
;	COMDAT text$x
text$x	SEGMENT
__unwindfunclet$?LoadInfo@CTabVariables@@MAEXXZ$0:
  00000	8d 8d ec fe ff
	ff		 lea	 ecx, DWORD PTR _strText$[ebp]
  00006	ff 25 00 00 00
	00		 jmp	 DWORD PTR __imp_??1?$CStringT@DV?$StrTraitMFC_DLL@DV?$ChTraitsCRT@D@ATL@@@@@ATL@@QAE@XZ
__unwindfunclet$?LoadInfo@CTabVariables@@MAEXXZ$1:
  0000c	8d 8d e8 fe ff
	ff		 lea	 ecx, DWORD PTR _strKeyName$[ebp]
  00012	ff 25 00 00 00
	00		 jmp	 DWORD PTR __imp_??1?$CStringT@DV?$StrTraitMFC_DLL@DV?$ChTraitsCRT@D@ATL@@@@@ATL@@QAE@XZ
__unwindfunclet$?LoadInfo@CTabVariables@@MAEXXZ$2:
  00018	8d 8d e0 fe ff
	ff		 lea	 ecx, DWORD PTR _strInitValue$[ebp]
  0001e	ff 25 00 00 00
	00		 jmp	 DWORD PTR __imp_??1?$CStringT@DV?$StrTraitMFC_DLL@DV?$ChTraitsCRT@D@ATL@@@@@ATL@@QAE@XZ
__unwindfunclet$?LoadInfo@CTabVariables@@MAEXXZ$3:
  00024	8d 8d e4 fe ff
	ff		 lea	 ecx, DWORD PTR _strItemName$[ebp]
  0002a	ff 25 00 00 00
	00		 jmp	 DWORD PTR __imp_??1?$CStringT@DV?$StrTraitMFC_DLL@DV?$ChTraitsCRT@D@ATL@@@@@ATL@@QAE@XZ
__unwindfunclet$?LoadInfo@CTabVariables@@MAEXXZ$4:
  00030	8d 8d d4 fe ff
	ff		 lea	 ecx, DWORD PTR $T3[ebp]
  00036	ff 25 00 00 00
	00		 jmp	 DWORD PTR __imp_??1?$CStringT@DV?$StrTraitMFC_DLL@DV?$ChTraitsCRT@D@ATL@@@@@ATL@@QAE@XZ
__unwindfunclet$?LoadInfo@CTabVariables@@MAEXXZ$5:
  0003c	8d 8d cc fe ff
	ff		 lea	 ecx, DWORD PTR $T2[ebp]
  00042	ff 25 00 00 00
	00		 jmp	 DWORD PTR __imp_??1?$CStringT@DV?$StrTraitMFC_DLL@DV?$ChTraitsCRT@D@ATL@@@@@ATL@@QAE@XZ
  00048	cc		 int	 3
  00049	cc		 int	 3
  0004a	cc		 int	 3
  0004b	cc		 int	 3
  0004c	cc		 int	 3
__ehhandler$?LoadInfo@CTabVariables@@MAEXXZ:
  0004d	90		 npad	 1
  0004e	90		 npad	 1
  0004f	8b 54 24 08	 mov	 edx, DWORD PTR [esp+8]
  00053	8d 42 0c	 lea	 eax, DWORD PTR [edx+12]
  00056	8b 8a c8 fe ff
	ff		 mov	 ecx, DWORD PTR [edx-312]
  0005c	33 c8		 xor	 ecx, eax
  0005e	e8 00 00 00 00	 call	 @__security_check_cookie@4
  00063	8b 4a fc	 mov	 ecx, DWORD PTR [edx-4]
  00066	33 c8		 xor	 ecx, eax
  00068	e8 00 00 00 00	 call	 @__security_check_cookie@4
  0006d	b8 00 00 00 00	 mov	 eax, OFFSET __ehfuncinfo$?LoadInfo@CTabVariables@@MAEXXZ
  00072	e9 00 00 00 00	 jmp	 ___CxxFrameHandler3
text$x	ENDS
?LoadInfo@CTabVariables@@MAEXXZ ENDP			; CTabVariables::LoadInfo
; Function compile flags: /Ogtp
; File D:\git\src\IBK\IBK_DRFN\ProjSrc\SrcDrfn\Chart\STCONFIGUREDLG\TabVariables.cpp
; File C:\Program Files (x86)\Microsoft Visual Studio\2019\Community\VC\Tools\MSVC\14.29.30133\atlmfc\include\afxcmn2.inl
; File D:\git\src\IBK\IBK_DRFN\ProjSrc\SrcDrfn\Chart\STCONFIGUREDLG\TabVariables.cpp
; File C:\Program Files (x86)\Microsoft Visual Studio\2019\Community\VC\Tools\MSVC\14.29.30133\atlmfc\include\afxcmn2.inl
; File D:\git\src\IBK\IBK_DRFN\ProjSrc\SrcDrfn\Chart\STCONFIGUREDLG\TabVariables.cpp
; File C:\Program Files (x86)\Microsoft Visual Studio\2019\Community\VC\Tools\MSVC\14.29.30133\atlmfc\include\afxcmn2.inl
; File D:\git\src\IBK\IBK_DRFN\ProjSrc\SrcDrfn\Chart\STCONFIGUREDLG\TabVariables.cpp
; File C:\Program Files (x86)\Microsoft Visual Studio\2019\Community\VC\Tools\MSVC\14.29.30133\atlmfc\include\afxcmn2.inl
; File D:\git\src\IBK\IBK_DRFN\ProjSrc\SrcDrfn\Chart\STCONFIGUREDLG\TabVariables.cpp
; File C:\Program Files (x86)\Microsoft Visual Studio\2019\Community\VC\Tools\MSVC\14.29.30133\atlmfc\include\afxcmn2.inl
; File D:\git\src\IBK\IBK_DRFN\ProjSrc\SrcDrfn\Chart\STCONFIGUREDLG\TabVariables.cpp
; File C:\Program Files (x86)\Microsoft Visual Studio\2019\Community\VC\Tools\MSVC\14.29.30133\atlmfc\include\afxcmn.inl
; File D:\git\src\IBK\IBK_DRFN\ProjSrc\SrcDrfn\Chart\STCONFIGUREDLG\TabVariables.cpp
; File C:\Program Files (x86)\Microsoft Visual Studio\2019\Community\VC\Tools\MSVC\14.29.30133\atlmfc\include\afxcmn.inl
; File D:\git\src\IBK\IBK_DRFN\ProjSrc\SrcDrfn\Chart\STCONFIGUREDLG\TabVariables.cpp
; File D:\git\src\IBK\IBK_DRFN\ProjSrc\SrcDrfn\Chart\STCONFIGUREDLG\Control\XListCtrl.h
; File D:\git\src\IBK\IBK_DRFN\ProjSrc\SrcDrfn\Chart\STCONFIGUREDLG\TabVariables.cpp
; File D:\git\src\IBK\IBK_DRFN\ProjSrc\SrcDrfn\Chart\STCONFIGUREDLG\Control\XListCtrl.h
; File D:\git\src\IBK\IBK_DRFN\ProjSrc\SrcDrfn\Chart\STCONFIGUREDLG\TabVariables.cpp
;	COMDAT ?InitColumn@CTabVariables@@IAEXXZ
_TEXT	SEGMENT
_lvcolumn$ = -84					; size = 44
_colwidthsType0$ = -40					; size = 24
_lpszHeadersType0$ = -16				; size = 12
__$ArrayPad$ = -4					; size = 4
?InitColumn@CTabVariables@@IAEXXZ PROC			; CTabVariables::InitColumn, COMDAT
; _this$ = ecx

; 96   : {

  00000	55		 push	 ebp
  00001	8b ec		 mov	 ebp, esp
  00003	83 ec 54	 sub	 esp, 84			; 00000054H
  00006	a1 00 00 00 00	 mov	 eax, DWORD PTR ___security_cookie
  0000b	33 c5		 xor	 eax, ebp
  0000d	89 45 fc	 mov	 DWORD PTR __$ArrayPad$[ebp], eax
  00010	53		 push	 ebx
; File C:\Program Files (x86)\Microsoft Visual Studio\2019\Community\VC\Tools\MSVC\14.29.30133\atlmfc\include\afxcmn2.inl

; 117  : 	{ ASSERT(::IsWindow(m_hWnd)); return (DWORD) ::SendMessage(m_hWnd, LVM_SETEXTENDEDLISTVIEWSTYLE, 0, (LPARAM) dwNewStyle); }

  00011	8b 1d 00 00 00
	00		 mov	 ebx, DWORD PTR __imp__SendMessageA@16
  00017	0f 57 c0	 xorps	 xmm0, xmm0
; File D:\git\src\IBK\IBK_DRFN\ProjSrc\SrcDrfn\Chart\STCONFIGUREDLG\TabVariables.cpp

; 96   : {

  0001a	56		 push	 esi
  0001b	57		 push	 edi
; File C:\Program Files (x86)\Microsoft Visual Studio\2019\Community\VC\Tools\MSVC\14.29.30133\atlmfc\include\afxcmn2.inl

; 117  : 	{ ASSERT(::IsWindow(m_hWnd)); return (DWORD) ::SendMessage(m_hWnd, LVM_SETEXTENDEDLISTVIEWSTYLE, 0, (LPARAM) dwNewStyle); }

  0001c	6a 20		 push	 32			; 00000020H
; File D:\git\src\IBK\IBK_DRFN\ProjSrc\SrcDrfn\Chart\STCONFIGUREDLG\TabVariables.cpp

; 96   : {

  0001e	8b f9		 mov	 edi, ecx

; 97   : 	int colwidthsType0[6] = { 100, 200};	// sixty-fourths

  00020	c7 45 d8 64 00
	00 00		 mov	 DWORD PTR _colwidthsType0$[ebp], 100 ; 00000064H
; File C:\Program Files (x86)\Microsoft Visual Studio\2019\Community\VC\Tools\MSVC\14.29.30133\atlmfc\include\afxcmn2.inl

; 117  : 	{ ASSERT(::IsWindow(m_hWnd)); return (DWORD) ::SendMessage(m_hWnd, LVM_SETEXTENDEDLISTVIEWSTYLE, 0, (LPARAM) dwNewStyle); }

  00027	6a 00		 push	 0
  00029	68 36 10 00 00	 push	 4150			; 00001036H
; File D:\git\src\IBK\IBK_DRFN\ProjSrc\SrcDrfn\Chart\STCONFIGUREDLG\TabVariables.cpp

; 97   : 	int colwidthsType0[6] = { 100, 200};	// sixty-fourths

  0002e	c7 45 dc c8 00
	00 00		 mov	 DWORD PTR _colwidthsType0$[ebp+4], 200 ; 000000c8H
; File C:\Program Files (x86)\Microsoft Visual Studio\2019\Community\VC\Tools\MSVC\14.29.30133\atlmfc\include\afxcmn2.inl

; 117  : 	{ ASSERT(::IsWindow(m_hWnd)); return (DWORD) ::SendMessage(m_hWnd, LVM_SETEXTENDEDLISTVIEWSTYLE, 0, (LPARAM) dwNewStyle); }

  00035	ff b7 50 02 00
	00		 push	 DWORD PTR [edi+592]
; File D:\git\src\IBK\IBK_DRFN\ProjSrc\SrcDrfn\Chart\STCONFIGUREDLG\TabVariables.cpp

; 97   : 	int colwidthsType0[6] = { 100, 200};	// sixty-fourths

  0003b	0f 11 45 e0	 movups	 XMMWORD PTR _colwidthsType0$[ebp+8], xmm0

; 98   : 
; 99   : 	TCHAR *	lpszHeadersType0[] = {
; 100  : 							  _T(""),

  0003f	c7 45 f0 00 00
	00 00		 mov	 DWORD PTR _lpszHeadersType0$[ebp], OFFSET ??_C@_06FIHLBNDD@?$LK?$KP?$LM?v?$LI?m@

; 101  : 							  _T(""),

  00046	c7 45 f4 00 00
	00 00		 mov	 DWORD PTR _lpszHeadersType0$[ebp+4], OFFSET ??_C@_06OJFAJFEJ@?$LK?$KP?$LM?v?$LA?$KK@

; 102  : 							  NULL };

  0004d	c7 45 f8 00 00
	00 00		 mov	 DWORD PTR _lpszHeadersType0$[ebp+8], 0
; File C:\Program Files (x86)\Microsoft Visual Studio\2019\Community\VC\Tools\MSVC\14.29.30133\atlmfc\include\afxcmn2.inl

; 117  : 	{ ASSERT(::IsWindow(m_hWnd)); return (DWORD) ::SendMessage(m_hWnd, LVM_SETEXTENDEDLISTVIEWSTYLE, 0, (LPARAM) dwNewStyle); }

  00054	ff d3		 call	 ebx
  00056	0f 57 c0	 xorps	 xmm0, xmm0
; File D:\git\src\IBK\IBK_DRFN\ProjSrc\SrcDrfn\Chart\STCONFIGUREDLG\TabVariables.cpp

; 108  : 	memset(&lvcolumn, 0, sizeof(lvcolumn));

  00059	c7 45 bc 00 00
	00 00		 mov	 DWORD PTR _lvcolumn$[ebp+16], 0

; 110  : 	for (i = 0; ; i++)

  00060	33 f6		 xor	 esi, esi
  00062	66 0f 13 45 c4	 movlpd	 QWORD PTR _lvcolumn$[ebp+24], xmm0
  00067	66 0f 13 45 cc	 movlpd	 QWORD PTR _lvcolumn$[ebp+32], xmm0
  0006c	b9 00 00 00 00	 mov	 ecx, OFFSET ??_C@_06FIHLBNDD@?$LK?$KP?$LM?v?$LI?m@
  00071	c7 45 d4 00 00
	00 00		 mov	 DWORD PTR _lvcolumn$[ebp+40], 0
  00078	33 d2		 xor	 edx, edx
  0007a	66 0f 1f 44 00
	00		 npad	 6
$LL4@InitColumn:

; 113  : 			break;
; 114  : 		lvcolumn.mask = LVCF_FMT | LVCF_SUBITEM | LVCF_TEXT | LVCF_WIDTH;
; 115  : 		lvcolumn.fmt = i>1 ? LVCFMT_RIGHT:LVCFMT_LEFT;

  00080	33 c0		 xor	 eax, eax
  00082	c7 45 ac 0f 00
	00 00		 mov	 DWORD PTR _lvcolumn$[ebp], 15 ; 0000000fH
  00089	83 fe 01	 cmp	 esi, 1

; 116  : 		lvcolumn.pszText = lpszHeadersType0[i];

  0008c	89 4d b8	 mov	 DWORD PTR _lvcolumn$[ebp+12], ecx

; 117  : 		lvcolumn.iSubItem = i;

  0008f	89 75 c0	 mov	 DWORD PTR _lvcolumn$[ebp+20], esi
  00092	0f 9f c0	 setg	 al
  00095	89 45 b0	 mov	 DWORD PTR _lvcolumn$[ebp+4], eax

; 118  : 		lvcolumn.cx = colwidthsType0[i];

  00098	8b 44 15 d8	 mov	 eax, DWORD PTR _colwidthsType0$[ebp+edx]
  0009c	89 45 b4	 mov	 DWORD PTR _lvcolumn$[ebp+8], eax
; File C:\Program Files (x86)\Microsoft Visual Studio\2019\Community\VC\Tools\MSVC\14.29.30133\atlmfc\include\afxcmn.inl

; 209  : 	{ ASSERT(::IsWindow(m_hWnd)); return (int) ::SendMessage(m_hWnd, LVM_INSERTCOLUMN, nCol, (LPARAM)pColumn); }

  0009f	8d 45 ac	 lea	 eax, DWORD PTR _lvcolumn$[ebp]
  000a2	50		 push	 eax
  000a3	56		 push	 esi
  000a4	68 1b 10 00 00	 push	 4123			; 0000101bH
  000a9	ff b7 50 02 00
	00		 push	 DWORD PTR [edi+592]
  000af	ff d3		 call	 ebx
; File D:\git\src\IBK\IBK_DRFN\ProjSrc\SrcDrfn\Chart\STCONFIGUREDLG\TabVariables.cpp

; 110  : 	for (i = 0; ; i++)

  000b1	46		 inc	 esi

; 111  : 	{
; 112  : 		if (lpszHeadersType0[i] == NULL)

  000b2	8d 14 b5 00 00
	00 00		 lea	 edx, DWORD PTR [esi*4]
  000b9	8b 4c 15 f0	 mov	 ecx, DWORD PTR _lpszHeadersType0$[ebp+edx]
  000bd	85 c9		 test	 ecx, ecx
  000bf	75 bf		 jne	 SHORT $LL4@InitColumn

; 119  : 		total_cx += lvcolumn.cx;
; 120  : 		m_listVariables.InsertColumn(i, &lvcolumn);
; 121  : 	}
; 122  : 	// iterate through header items and attach the image list
; 123  : 	memset(&lvcolumn, 0, sizeof(lvcolumn));

  000c1	0f 57 c0	 xorps	 xmm0, xmm0
  000c4	89 4d bc	 mov	 DWORD PTR _lvcolumn$[ebp+16], ecx
  000c7	66 0f 13 45 b4	 movlpd	 QWORD PTR _lvcolumn$[ebp+8], xmm0

; 125  : 	for (i = 0; ; i++)

  000cc	33 f6		 xor	 esi, esi
  000ce	66 0f 13 45 c4	 movlpd	 QWORD PTR _lvcolumn$[ebp+24], xmm0
  000d3	66 0f 13 45 cc	 movlpd	 QWORD PTR _lvcolumn$[ebp+32], xmm0
  000d8	89 4d d4	 mov	 DWORD PTR _lvcolumn$[ebp+40], ecx
  000db	0f 1f 44 00 00	 npad	 5
$LL7@InitColumn:

; 128  : 			break;
; 129  : 		lvcolumn.mask = LVCF_FMT | LVCF_SUBITEM;
; 130  : 		lvcolumn.fmt = i>1 ? LVCFMT_RIGHT:LVCFMT_LEFT;

  000e0	33 c0		 xor	 eax, eax
  000e2	c7 45 ac 09 00
	00 00		 mov	 DWORD PTR _lvcolumn$[ebp], 9
  000e9	83 fe 01	 cmp	 esi, 1

; 131  : 		lvcolumn.iSubItem = i;

  000ec	89 75 c0	 mov	 DWORD PTR _lvcolumn$[ebp+20], esi
  000ef	0f 9f c0	 setg	 al
  000f2	89 45 b0	 mov	 DWORD PTR _lvcolumn$[ebp+4], eax
; File C:\Program Files (x86)\Microsoft Visual Studio\2019\Community\VC\Tools\MSVC\14.29.30133\atlmfc\include\afxcmn.inl

; 207  : 	{ ASSERT(::IsWindow(m_hWnd)); return (BOOL) ::SendMessage(m_hWnd, LVM_SETCOLUMN, nCol, (LPARAM)pColumn); }

  000f5	8d 45 ac	 lea	 eax, DWORD PTR _lvcolumn$[ebp]
  000f8	50		 push	 eax
  000f9	56		 push	 esi
  000fa	68 1a 10 00 00	 push	 4122			; 0000101aH
  000ff	ff b7 50 02 00
	00		 push	 DWORD PTR [edi+592]
  00105	ff d3		 call	 ebx
; File D:\git\src\IBK\IBK_DRFN\ProjSrc\SrcDrfn\Chart\STCONFIGUREDLG\TabVariables.cpp

; 125  : 	for (i = 0; ; i++)

  00107	46		 inc	 esi

; 126  : 	{
; 127  : 		if (lpszHeadersType0[i] == NULL)

  00108	83 7c b5 f0 00	 cmp	 DWORD PTR _lpszHeadersType0$[ebp+esi*4], 0
  0010d	75 d1		 jne	 SHORT $LL7@InitColumn

; 135  : }

  0010f	8b 4d fc	 mov	 ecx, DWORD PTR __$ArrayPad$[ebp]
; File D:\git\src\IBK\IBK_DRFN\ProjSrc\SrcDrfn\Chart\STCONFIGUREDLG\Control\XListCtrl.h

; 176  : 		m_crHighLightText = m_crUsrHighLightText = crText;

  00112	c7 87 c0 03 00
	00 00 00 00 00	 mov	 DWORD PTR [edi+960], 0
; File D:\git\src\IBK\IBK_DRFN\ProjSrc\SrcDrfn\Chart\STCONFIGUREDLG\TabVariables.cpp

; 135  : }

  0011c	33 cd		 xor	 ecx, ebp
; File D:\git\src\IBK\IBK_DRFN\ProjSrc\SrcDrfn\Chart\STCONFIGUREDLG\Control\XListCtrl.h

; 176  : 		m_crHighLightText = m_crUsrHighLightText = crText;

  0011e	c7 87 b0 03 00
	00 00 00 00 00	 mov	 DWORD PTR [edi+944], 0

; 177  : 		m_crHighLight = m_crUsrHighLight = crBackground;

  00128	c7 87 bc 03 00
	00 d0 dd f0 00	 mov	 DWORD PTR [edi+956], 15785424 ; 00f0ddd0H
  00132	c7 87 ac 03 00
	00 d0 dd f0 00	 mov	 DWORD PTR [edi+940], 15785424 ; 00f0ddd0H
  0013c	5f		 pop	 edi
  0013d	5e		 pop	 esi
  0013e	5b		 pop	 ebx
; File D:\git\src\IBK\IBK_DRFN\ProjSrc\SrcDrfn\Chart\STCONFIGUREDLG\TabVariables.cpp

; 135  : }

  0013f	e8 00 00 00 00	 call	 @__security_check_cookie@4
  00144	8b e5		 mov	 esp, ebp
  00146	5d		 pop	 ebp
  00147	c3		 ret	 0
?InitColumn@CTabVariables@@IAEXXZ ENDP			; CTabVariables::InitColumn
_TEXT	ENDS
; Function compile flags: /Ogtp
; File D:\git\src\IBK\IBK_DRFN\ProjSrc\SrcDrfn\Chart\STCONFIGUREDLG\TabVariables.cpp
;	COMDAT ?WindowProc@CTabVariables@@MAEJIIJ@Z
_TEXT	SEGMENT
_message$ = 8						; size = 4
_wParam$ = 12						; size = 4
_lParam$ = 16						; size = 4
?WindowProc@CTabVariables@@MAEJIIJ@Z PROC		; CTabVariables::WindowProc, COMDAT
; _this$ = ecx

; 138  : {

  00000	55		 push	 ebp
  00001	8b ec		 mov	 ebp, esp

; 139  : 	// TODO: Add your specialized code here and/or call the base class
; 140  : 	switch(message)

  00003	8b 45 08	 mov	 eax, DWORD PTR _message$[ebp]
  00006	56		 push	 esi
  00007	8b f1		 mov	 esi, ecx
  00009	2d 03 04 00 00	 sub	 eax, 1027		; 00000403H
  0000e	74 22		 je	 SHORT $LN4@WindowProc
  00010	83 e8 01	 sub	 eax, 1
  00013	75 08		 jne	 SHORT $LN2@WindowProc

; 145  : 		}		
; 146  : 		break;
; 147  : 	case UMSG_ST_REMOVE_ENV:
; 148  : 		{
; 149  : 			RemoveInfo();

  00015	8b 06		 mov	 eax, DWORD PTR [esi]
  00017	ff 90 9c 01 00
	00		 call	 DWORD PTR [eax+412]
$LN2@WindowProc:

; 150  : 		}
; 151  : 		break;
; 152  : 	}	
; 153  : 	return CRscDlg::WindowProc(message, wParam, lParam);

  0001d	ff 75 10	 push	 DWORD PTR _lParam$[ebp]
  00020	8b ce		 mov	 ecx, esi
  00022	ff 75 0c	 push	 DWORD PTR _wParam$[ebp]
  00025	ff 75 08	 push	 DWORD PTR _message$[ebp]
  00028	e8 00 00 00 00	 call	 ?WindowProc@CWnd@@MAEJIIJ@Z ; CWnd::WindowProc
  0002d	5e		 pop	 esi

; 154  : }

  0002e	5d		 pop	 ebp
  0002f	c2 0c 00	 ret	 12			; 0000000cH
$LN4@WindowProc:

; 141  : 	{
; 142  : 	case UMSG_ST_SAVE_ENV:
; 143  : 		{
; 144  : 			return SaveInfo();

  00032	8b 06		 mov	 eax, DWORD PTR [esi]
  00034	ff 90 98 01 00
	00		 call	 DWORD PTR [eax+408]
  0003a	5e		 pop	 esi

; 154  : }

  0003b	5d		 pop	 ebp
  0003c	c2 0c 00	 ret	 12			; 0000000cH
?WindowProc@CTabVariables@@MAEJIIJ@Z ENDP		; CTabVariables::WindowProc
_TEXT	ENDS
; Function compile flags: /Ogtp
; File D:\git\src\IBK\IBK_DRFN\ProjSrc\SrcDrfn\Chart\STCONFIGUREDLG\TabVariables.cpp
;	COMDAT ?DoDataExchange@CTabVariables@@MAEXPAVCDataExchange@@@Z
_TEXT	SEGMENT
_pDX$ = 8						; size = 4
?DoDataExchange@CTabVariables@@MAEXPAVCDataExchange@@@Z PROC ; CTabVariables::DoDataExchange, COMDAT
; _this$ = ecx

; 33   : {

  00000	55		 push	 ebp
  00001	8b ec		 mov	 ebp, esp
  00003	56		 push	 esi
  00004	57		 push	 edi

; 34   : 	CRscDlg::DoDataExchange(pDX);

  00005	8b 7d 08	 mov	 edi, DWORD PTR _pDX$[ebp]
  00008	8b f1		 mov	 esi, ecx
  0000a	57		 push	 edi
  0000b	e8 00 00 00 00	 call	 ?DoDataExchange@CRscDlg@@MAEXPAVCDataExchange@@@Z ; CRscDlg::DoDataExchange

; 35   : 	//{{AFX_DATA_MAP(CTabVariables)
; 36   : 	DDX_Control(pDX, IDC_CHK_SAVEASDEFAULT, m_chkSaveAsDefault);

  00010	8d 86 b0 00 00
	00		 lea	 eax, DWORD PTR [esi+176]
  00016	50		 push	 eax
  00017	68 27 52 00 00	 push	 21031			; 00005227H
  0001c	57		 push	 edi
  0001d	e8 00 00 00 00	 call	 ?DDX_Control@@YGXPAVCDataExchange@@HAAVCWnd@@@Z ; DDX_Control

; 37   : 	DDX_Control(pDX, IDC_BTN_DELETE, m_btnDelete);

  00022	8d 86 30 01 00
	00		 lea	 eax, DWORD PTR [esi+304]
  00028	50		 push	 eax
  00029	68 49 71 00 00	 push	 29001			; 00007149H
  0002e	57		 push	 edi
  0002f	e8 00 00 00 00	 call	 ?DDX_Control@@YGXPAVCDataExchange@@HAAVCWnd@@@Z ; DDX_Control

; 38   : 	DDX_Control(pDX, IDC_BTN_ADD, m_btnAdd);

  00034	8d 86 b0 01 00
	00		 lea	 eax, DWORD PTR [esi+432]
  0003a	50		 push	 eax
  0003b	68 48 71 00 00	 push	 29000			; 00007148H
  00040	57		 push	 edi
  00041	e8 00 00 00 00	 call	 ?DDX_Control@@YGXPAVCDataExchange@@HAAVCWnd@@@Z ; DDX_Control

; 39   : 	DDX_Control(pDX, IDC_LIST_VARIABLES, m_listVariables);

  00046	8d 86 30 02 00
	00		 lea	 eax, DWORD PTR [esi+560]
  0004c	50		 push	 eax
  0004d	68 0e 52 00 00	 push	 21006			; 0000520eH
  00052	57		 push	 edi
  00053	e8 00 00 00 00	 call	 ?DDX_Control@@YGXPAVCDataExchange@@HAAVCWnd@@@Z ; DDX_Control
  00058	5f		 pop	 edi
  00059	5e		 pop	 esi

; 40   : 	//}}AFX_DATA_MAP
; 41   : }

  0005a	5d		 pop	 ebp
  0005b	c2 04 00	 ret	 4
?DoDataExchange@CTabVariables@@MAEXPAVCDataExchange@@@Z ENDP ; CTabVariables::DoDataExchange
_TEXT	ENDS
; Function compile flags: /Ogtp
; File D:\git\src\IBK\IBK_DRFN\ProjSrc\SrcDrfn\Chart\STCONFIGUREDLG\TabVariables.cpp
; File C:\Program Files (x86)\Microsoft Visual Studio\2019\Community\VC\Tools\MSVC\14.29.30133\atlmfc\include\afxwin2.inl
; File D:\git\src\IBK\IBK_DRFN\ProjSrc\SrcDrfn\Chart\STCONFIGUREDLG\TabVariables.cpp
; File C:\Program Files (x86)\Microsoft Visual Studio\2019\Community\VC\Tools\MSVC\14.29.30133\atlmfc\include\afxwin2.inl
; File D:\git\src\IBK\IBK_DRFN\ProjSrc\SrcDrfn\Chart\STCONFIGUREDLG\TabVariables.cpp
; File C:\Program Files (x86)\Microsoft Visual Studio\2019\Community\VC\Tools\MSVC\14.29.30133\atlmfc\include\afxwin2.inl
; File D:\git\src\IBK\IBK_DRFN\ProjSrc\SrcDrfn\Chart\STCONFIGUREDLG\TabVariables.cpp
; File C:\Program Files (x86)\Microsoft Visual Studio\2019\Community\VC\Tools\MSVC\14.29.30133\atlmfc\include\afxwin2.inl
; File D:\git\src\IBK\IBK_DRFN\ProjSrc\SrcDrfn\Chart\STCONFIGUREDLG\TabVariables.cpp
; File C:\Program Files (x86)\Microsoft Visual Studio\2019\Community\VC\Tools\MSVC\14.29.30133\atlmfc\include\afxwin2.inl
; File D:\git\src\IBK\IBK_DRFN\ProjSrc\SrcDrfn\Chart\STCONFIGUREDLG\TabVariables.cpp
; File C:\Program Files (x86)\Microsoft Visual Studio\2019\Community\VC\Tools\MSVC\14.29.30133\atlmfc\include\afxwin2.inl
; File D:\git\src\IBK\IBK_DRFN\ProjSrc\SrcDrfn\Chart\STCONFIGUREDLG\TabVariables.cpp
;	COMDAT ??0CTabVariables@@QAE@PAVCWnd@@@Z
_TEXT	SEGMENT
_this$ = -16						; size = 4
__$EHRec$ = -12						; size = 12
_this$ = 8						; size = 4
_this$ = 8						; size = 4
_this$ = 8						; size = 4
_pParent$ = 8						; size = 4
??0CTabVariables@@QAE@PAVCWnd@@@Z PROC			; CTabVariables::CTabVariables, COMDAT
; _this$ = ecx

; 24   : {

  00000	55		 push	 ebp
  00001	8b ec		 mov	 ebp, esp
  00003	6a ff		 push	 -1
  00005	68 00 00 00 00	 push	 __ehhandler$??0CTabVariables@@QAE@PAVCWnd@@@Z
  0000a	64 a1 00 00 00
	00		 mov	 eax, DWORD PTR fs:0
  00010	50		 push	 eax
  00011	51		 push	 ecx
  00012	53		 push	 ebx
  00013	56		 push	 esi
  00014	57		 push	 edi
  00015	a1 00 00 00 00	 mov	 eax, DWORD PTR ___security_cookie
  0001a	33 c5		 xor	 eax, ebp
  0001c	50		 push	 eax
  0001d	8d 45 f4	 lea	 eax, DWORD PTR __$EHRec$[ebp]
  00020	64 a3 00 00 00
	00		 mov	 DWORD PTR fs:0, eax
  00026	8b d9		 mov	 ebx, ecx
  00028	89 5d f0	 mov	 DWORD PTR _this$[ebp], ebx

; 23   : 	: CRscDlg(CTabVariables::IDD, pParent)

  0002b	8b 7d 08	 mov	 edi, DWORD PTR _pParent$[ebp]
  0002e	57		 push	 edi
  0002f	68 0a 52 00 00	 push	 21002			; 0000520aH
  00034	e8 00 00 00 00	 call	 ??0CRscDlg@@QAE@IPAVCWnd@@@Z ; CRscDlg::CRscDlg

; 24   : {

  00039	8d b3 b0 00 00
	00		 lea	 esi, DWORD PTR [ebx+176]
  0003f	c7 45 fc 00 00
	00 00		 mov	 DWORD PTR __$EHRec$[ebp+8], 0
; File C:\Program Files (x86)\Microsoft Visual Studio\2019\Community\VC\Tools\MSVC\14.29.30133\atlmfc\include\afxwin2.inl

; 622  : 	{ }

  00046	8b ce		 mov	 ecx, esi
; File D:\git\src\IBK\IBK_DRFN\ProjSrc\SrcDrfn\Chart\STCONFIGUREDLG\TabVariables.cpp

; 24   : {

  00048	c7 03 00 00 00
	00		 mov	 DWORD PTR [ebx], OFFSET ??_7CTabVariables@@6B@
  0004e	89 75 08	 mov	 DWORD PTR _this$[ebp], esi
; File C:\Program Files (x86)\Microsoft Visual Studio\2019\Community\VC\Tools\MSVC\14.29.30133\atlmfc\include\afxwin2.inl

; 622  : 	{ }

  00051	e8 00 00 00 00	 call	 ??0CWnd@@QAE@XZ		; CWnd::CWnd
  00056	c7 06 00 00 00
	00		 mov	 DWORD PTR [esi], OFFSET ??_7CButton@@6B@
; File D:\git\src\IBK\IBK_DRFN\ProjSrc\SrcDrfn\Chart\STCONFIGUREDLG\TabVariables.cpp

; 24   : {

  0005c	8d b3 30 01 00
	00		 lea	 esi, DWORD PTR [ebx+304]
  00062	c6 45 fc 01	 mov	 BYTE PTR __$EHRec$[ebp+8], 1
; File C:\Program Files (x86)\Microsoft Visual Studio\2019\Community\VC\Tools\MSVC\14.29.30133\atlmfc\include\afxwin2.inl

; 622  : 	{ }

  00066	8b ce		 mov	 ecx, esi
; File D:\git\src\IBK\IBK_DRFN\ProjSrc\SrcDrfn\Chart\STCONFIGUREDLG\TabVariables.cpp

; 24   : {

  00068	89 75 08	 mov	 DWORD PTR _this$[ebp], esi
; File C:\Program Files (x86)\Microsoft Visual Studio\2019\Community\VC\Tools\MSVC\14.29.30133\atlmfc\include\afxwin2.inl

; 622  : 	{ }

  0006b	e8 00 00 00 00	 call	 ??0CWnd@@QAE@XZ		; CWnd::CWnd
  00070	c7 06 00 00 00
	00		 mov	 DWORD PTR [esi], OFFSET ??_7CButton@@6B@
; File D:\git\src\IBK\IBK_DRFN\ProjSrc\SrcDrfn\Chart\STCONFIGUREDLG\TabVariables.cpp

; 24   : {

  00076	8d b3 b0 01 00
	00		 lea	 esi, DWORD PTR [ebx+432]
  0007c	c6 45 fc 02	 mov	 BYTE PTR __$EHRec$[ebp+8], 2
; File C:\Program Files (x86)\Microsoft Visual Studio\2019\Community\VC\Tools\MSVC\14.29.30133\atlmfc\include\afxwin2.inl

; 622  : 	{ }

  00080	8b ce		 mov	 ecx, esi
; File D:\git\src\IBK\IBK_DRFN\ProjSrc\SrcDrfn\Chart\STCONFIGUREDLG\TabVariables.cpp

; 24   : {

  00082	89 75 08	 mov	 DWORD PTR _this$[ebp], esi
; File C:\Program Files (x86)\Microsoft Visual Studio\2019\Community\VC\Tools\MSVC\14.29.30133\atlmfc\include\afxwin2.inl

; 622  : 	{ }

  00085	e8 00 00 00 00	 call	 ??0CWnd@@QAE@XZ		; CWnd::CWnd
  0008a	c7 06 00 00 00
	00		 mov	 DWORD PTR [esi], OFFSET ??_7CButton@@6B@
; File D:\git\src\IBK\IBK_DRFN\ProjSrc\SrcDrfn\Chart\STCONFIGUREDLG\TabVariables.cpp

; 24   : {

  00090	8d 8b 30 02 00
	00		 lea	 ecx, DWORD PTR [ebx+560]
  00096	c6 45 fc 03	 mov	 BYTE PTR __$EHRec$[ebp+8], 3
  0009a	e8 00 00 00 00	 call	 ??0CXListCtrl@@QAE@XZ	; CXListCtrl::CXListCtrl

; 25   : 	//{{AFX_DATA_INIT(CTabVariables)
; 26   : 		// NOTE: the ClassWizard will add member initialization here
; 27   : 	//}}AFX_DATA_INIT
; 28   : 	m_pDlgSTOption = pParent;

  0009f	89 bb e0 03 00
	00		 mov	 DWORD PTR [ebx+992], edi

; 29   : }

  000a5	8b c3		 mov	 eax, ebx
  000a7	8b 4d f4	 mov	 ecx, DWORD PTR __$EHRec$[ebp]
  000aa	64 89 0d 00 00
	00 00		 mov	 DWORD PTR fs:0, ecx
  000b1	59		 pop	 ecx
  000b2	5f		 pop	 edi
  000b3	5e		 pop	 esi
  000b4	5b		 pop	 ebx
  000b5	8b e5		 mov	 esp, ebp
  000b7	5d		 pop	 ebp
  000b8	c2 04 00	 ret	 4
_TEXT	ENDS
;	COMDAT text$x
text$x	SEGMENT
__unwindfunclet$??0CTabVariables@@QAE@PAVCWnd@@@Z$0:
  00000	8b 4d f0	 mov	 ecx, DWORD PTR _this$[ebp]
  00003	e9 00 00 00 00	 jmp	 ??1CRscDlg@@UAE@XZ
__unwindfunclet$??0CTabVariables@@QAE@PAVCWnd@@@Z$1:
  00008	8b 4d f0	 mov	 ecx, DWORD PTR _this$[ebp]
  0000b	81 c1 b0 00 00
	00		 add	 ecx, 176		; 000000b0H
  00011	e9 00 00 00 00	 jmp	 ??1CButton@@UAE@XZ	; CButton::~CButton
__unwindfunclet$??0CTabVariables@@QAE@PAVCWnd@@@Z$2:
  00016	8b 4d f0	 mov	 ecx, DWORD PTR _this$[ebp]
  00019	81 c1 30 01 00
	00		 add	 ecx, 304		; 00000130H
  0001f	e9 00 00 00 00	 jmp	 ??1CButton@@UAE@XZ	; CButton::~CButton
__unwindfunclet$??0CTabVariables@@QAE@PAVCWnd@@@Z$3:
  00024	8b 4d f0	 mov	 ecx, DWORD PTR _this$[ebp]
  00027	81 c1 b0 01 00
	00		 add	 ecx, 432		; 000001b0H
  0002d	e9 00 00 00 00	 jmp	 ??1CButton@@UAE@XZ	; CButton::~CButton
  00032	cc		 int	 3
  00033	cc		 int	 3
  00034	cc		 int	 3
  00035	cc		 int	 3
  00036	cc		 int	 3
__ehhandler$??0CTabVariables@@QAE@PAVCWnd@@@Z:
  00037	90		 npad	 1
  00038	90		 npad	 1
  00039	8b 54 24 08	 mov	 edx, DWORD PTR [esp+8]
  0003d	8d 42 0c	 lea	 eax, DWORD PTR [edx+12]
  00040	8b 4a ec	 mov	 ecx, DWORD PTR [edx-20]
  00043	33 c8		 xor	 ecx, eax
  00045	e8 00 00 00 00	 call	 @__security_check_cookie@4
  0004a	b8 00 00 00 00	 mov	 eax, OFFSET __ehfuncinfo$??0CTabVariables@@QAE@PAVCWnd@@@Z
  0004f	e9 00 00 00 00	 jmp	 ___CxxFrameHandler3
text$x	ENDS
??0CTabVariables@@QAE@PAVCWnd@@@Z ENDP			; CTabVariables::CTabVariables
; Function compile flags: /Ogtp
;	COMDAT ??1CRscDlg@@UAE@XZ
_TEXT	SEGMENT
??1CRscDlg@@UAE@XZ PROC					; CRscDlg::~CRscDlg, COMDAT
; _this$ = ecx
  00000	56		 push	 esi
  00001	8b f1		 mov	 esi, ecx
  00003	8d 8e ac 00 00
	00		 lea	 ecx, DWORD PTR [esi+172]
  00009	ff 15 00 00 00
	00		 call	 DWORD PTR __imp_??1?$CStringT@DV?$StrTraitMFC_DLL@DV?$ChTraitsCRT@D@ATL@@@@@ATL@@QAE@XZ
  0000f	8d 8e a8 00 00
	00		 lea	 ecx, DWORD PTR [esi+168]
  00015	ff 15 00 00 00
	00		 call	 DWORD PTR __imp_??1?$CStringT@DV?$StrTraitMFC_DLL@DV?$ChTraitsCRT@D@ATL@@@@@ATL@@QAE@XZ
  0001b	8b ce		 mov	 ecx, esi
  0001d	5e		 pop	 esi
  0001e	e9 00 00 00 00	 jmp	 ??1CDialog@@UAE@XZ	; CDialog::~CDialog
??1CRscDlg@@UAE@XZ ENDP					; CRscDlg::~CRscDlg
_TEXT	ENDS
; Function compile flags: /Ogtp
; File D:\git\src\IBK\IBK_DRFN\ProjSrc\SrcDrfn\Chart\STCONFIGUREDLG\RscDlg.h
;	COMDAT ?SetDefault@CRscDlg@@UAEXXZ
_TEXT	SEGMENT
?SetDefault@CRscDlg@@UAEXXZ PROC			; CRscDlg::SetDefault, COMDAT
; _this$ = ecx

; 49   : 	virtual void SetDefault()	{}

  00000	c2 00 00	 ret	 0
?SetDefault@CRscDlg@@UAEXXZ ENDP			; CRscDlg::SetDefault
_TEXT	ENDS
; Function compile flags: /Ogtp
; File D:\git\src\IBK\IBK_DRFN\ProjSrc\SrcDrfn\Chart\STCONFIGUREDLG\RscDlg.h
;	COMDAT ?PreTranslateMessage@CRscDlg@@MAEHPAUtagMSG@@@Z
_TEXT	SEGMENT
_pMsg$ = 8						; size = 4
?PreTranslateMessage@CRscDlg@@MAEHPAUtagMSG@@@Z PROC	; CRscDlg::PreTranslateMessage, COMDAT
; _this$ = ecx

; 60   : {

  00000	55		 push	 ebp
  00001	8b ec		 mov	 ebp, esp
  00003	56		 push	 esi

; 61   : 	//     		by KHD
; 62   : 	
; 63   : 	if(pMsg->message == WM_KEYDOWN)   

  00004	8b 75 08	 mov	 esi, DWORD PTR _pMsg$[ebp]
  00007	57		 push	 edi
  00008	8b f9		 mov	 edi, ecx
  0000a	81 7e 04 00 01
	00 00		 cmp	 DWORD PTR [esi+4], 256	; 00000100H
  00011	75 49		 jne	 SHORT $LN5@PreTransla

; 64   : 	{
; 65   : 		if(pMsg->wParam == VK_F4 && (::GetKeyState(VK_CONTROL) & 0x8000))

  00013	83 7e 08 73	 cmp	 DWORD PTR [esi+8], 115	; 00000073H
  00017	75 36		 jne	 SHORT $LN14@PreTransla
  00019	6a 11		 push	 17			; 00000011H
  0001b	ff 15 00 00 00
	00		 call	 DWORD PTR __imp__GetKeyState@4
  00021	66 0f ba e0 0f	 bt	 ax, 15			; 0000000fH
  00026	73 27		 jae	 SHORT $LN14@PreTransla

; 66   : 		{
; 67   : 			
; 68   : 			pMsg->wParam = VK_ESCAPE;

  00028	c7 46 08 1b 00
	00 00		 mov	 DWORD PTR [esi+8], 27	; 0000001bH
$LN15@PreTransla:

; 81   : }

  0002f	ff 77 20	 push	 DWORD PTR [edi+32]
  00032	ff 15 00 00 00
	00		 call	 DWORD PTR __imp__GetParent@4
  00038	50		 push	 eax
  00039	e8 00 00 00 00	 call	 ?FromHandle@CWnd@@SGPAV1@PAUHWND__@@@Z ; CWnd::FromHandle
  0003e	56		 push	 esi
  0003f	8b c8		 mov	 ecx, eax
  00041	8b 10		 mov	 edx, DWORD PTR [eax]
  00043	ff 92 14 01 00
	00		 call	 DWORD PTR [edx+276]
  00049	5f		 pop	 edi
  0004a	5e		 pop	 esi
  0004b	5d		 pop	 ebp
  0004c	c2 04 00	 ret	 4
$LN14@PreTransla:

; 69   : 			return GetParent()->PreTranslateMessage(pMsg);
; 70   : 		}
; 71   : 		if(pMsg->wParam == VK_ESCAPE)

  0004f	8b 46 08	 mov	 eax, DWORD PTR [esi+8]
  00052	83 f8 1b	 cmp	 eax, 27			; 0000001bH
  00055	74 d8		 je	 SHORT $LN15@PreTransla

; 72   : 		{
; 73   : 			return GetParent()->PreTranslateMessage(pMsg);
; 74   : 		}
; 75   : 		if(pMsg->wParam == VK_RETURN)

  00057	83 f8 0d	 cmp	 eax, 13			; 0000000dH
  0005a	74 d3		 je	 SHORT $LN15@PreTransla
$LN5@PreTransla:

; 76   : 			return GetParent()->PreTranslateMessage(pMsg);
; 77   : 
; 78   : 	}
; 79   : 
; 80   : 	return CDialog::PreTranslateMessage(pMsg);

  0005c	56		 push	 esi
  0005d	8b cf		 mov	 ecx, edi
  0005f	e8 00 00 00 00	 call	 ?PreTranslateMessage@CDialog@@UAEHPAUtagMSG@@@Z ; CDialog::PreTranslateMessage
  00064	5f		 pop	 edi

; 81   : }

  00065	5e		 pop	 esi
  00066	5d		 pop	 ebp
  00067	c2 04 00	 ret	 4
?PreTranslateMessage@CRscDlg@@MAEHPAUtagMSG@@@Z ENDP	; CRscDlg::PreTranslateMessage
_TEXT	ENDS
; Function compile flags: /Ogtp
; File C:\Program Files (x86)\Microsoft Visual Studio\2019\Community\VC\Tools\MSVC\14.29.30133\atlmfc\include\afx.inl
;	COMDAT ??_GCButton@@UAEPAXI@Z
_TEXT	SEGMENT
___flags$ = 8						; size = 4
??_GCButton@@UAEPAXI@Z PROC				; CButton::`scalar deleting destructor', COMDAT
; _this$ = ecx
  00000	55		 push	 ebp
  00001	8b ec		 mov	 ebp, esp
  00003	56		 push	 esi
  00004	8b f1		 mov	 esi, ecx
  00006	e8 00 00 00 00	 call	 ??1CButton@@UAE@XZ	; CButton::~CButton
  0000b	8b 45 08	 mov	 eax, DWORD PTR ___flags$[ebp]
  0000e	a8 01		 test	 al, 1
  00010	74 22		 je	 SHORT $LN9@scalar
  00012	a8 04		 test	 al, 4
  00014	75 10		 jne	 SHORT $LN3@scalar

; 112  : 	{ ::operator delete(p); }

  00016	56		 push	 esi
  00017	e8 00 00 00 00	 call	 ??3@YAXPAX@Z		; operator delete
  0001c	83 c4 04	 add	 esp, 4
  0001f	8b c6		 mov	 eax, esi
  00021	5e		 pop	 esi
  00022	5d		 pop	 ebp
  00023	c2 04 00	 ret	 4
$LN3@scalar:
  00026	68 80 00 00 00	 push	 128			; 00000080H
  0002b	56		 push	 esi
  0002c	e8 00 00 00 00	 call	 ?__global_delete@@YAXPAXI@Z ; __global_delete
  00031	83 c4 08	 add	 esp, 8
$LN9@scalar:
  00034	8b c6		 mov	 eax, esi
  00036	5e		 pop	 esi
  00037	5d		 pop	 ebp
  00038	c2 04 00	 ret	 4
??_GCButton@@UAEPAXI@Z ENDP				; CButton::`scalar deleting destructor'
_TEXT	ENDS
; Function compile flags: /Ogtp
; File C:\Program Files (x86)\Microsoft Visual Studio\2019\Community\VC\Tools\MSVC\14.29.30133\atlmfc\include\afxwin2.inl
;	COMDAT ?EndModalState@CWnd@@UAEXXZ
_TEXT	SEGMENT
?EndModalState@CWnd@@UAEXXZ PROC			; CWnd::EndModalState, COMDAT
; _this$ = ecx

; 567  : 	{ ::EnableWindow(m_hWnd, TRUE); }

  00000	6a 01		 push	 1
  00002	ff 71 20	 push	 DWORD PTR [ecx+32]
  00005	ff 15 00 00 00
	00		 call	 DWORD PTR __imp__EnableWindow@8
  0000b	c3		 ret	 0
?EndModalState@CWnd@@UAEXXZ ENDP			; CWnd::EndModalState
_TEXT	ENDS
; Function compile flags: /Ogtp
; File C:\Program Files (x86)\Microsoft Visual Studio\2019\Community\VC\Tools\MSVC\14.29.30133\atlmfc\include\afxwin2.inl
;	COMDAT ?BeginModalState@CWnd@@UAEXXZ
_TEXT	SEGMENT
?BeginModalState@CWnd@@UAEXXZ PROC			; CWnd::BeginModalState, COMDAT
; _this$ = ecx

; 565  : 	{ ::EnableWindow(m_hWnd, FALSE); }

  00000	6a 00		 push	 0
  00002	ff 71 20	 push	 DWORD PTR [ecx+32]
  00005	ff 15 00 00 00
	00		 call	 DWORD PTR __imp__EnableWindow@8
  0000b	c3		 ret	 0
?BeginModalState@CWnd@@UAEXXZ ENDP			; CWnd::BeginModalState
_TEXT	ENDS
; Function compile flags: /Ogtp
; File C:\Program Files (x86)\Microsoft Visual Studio\2019\Community\VC\Tools\MSVC\14.29.30133\atlmfc\include\afxwin2.inl
;	COMDAT ?DoDataExchange@CWnd@@MAEXPAVCDataExchange@@@Z
_TEXT	SEGMENT
___formal$ = 8						; size = 4
?DoDataExchange@CWnd@@MAEXPAVCDataExchange@@@Z PROC	; CWnd::DoDataExchange, COMDAT
; _this$ = ecx

; 561  : 	{ } // default does nothing

  00000	c2 04 00	 ret	 4
?DoDataExchange@CWnd@@MAEXPAVCDataExchange@@@Z ENDP	; CWnd::DoDataExchange
_TEXT	ENDS
; Function compile flags: /Ogtp
; File C:\Program Files (x86)\Microsoft Visual Studio\2019\Community\VC\Tools\MSVC\14.29.30133\atlmfc\include\afx.inl
;	COMDAT ?Dump@CObject@@UBEXAAVCDumpContext@@@Z
_TEXT	SEGMENT
___formal$ = 8						; size = 4
?Dump@CObject@@UBEXAAVCDumpContext@@@Z PROC		; CObject::Dump, COMDAT
; _this$ = ecx

; 122  : 	{ /* no dumping in release builds */ }

  00000	c2 04 00	 ret	 4
?Dump@CObject@@UBEXAAVCDumpContext@@@Z ENDP		; CObject::Dump
_TEXT	ENDS
; Function compile flags: /Ogtp
; File C:\Program Files (x86)\Microsoft Visual Studio\2019\Community\VC\Tools\MSVC\14.29.30133\atlmfc\include\afx.inl
;	COMDAT ?AssertValid@CObject@@UBEXXZ
_TEXT	SEGMENT
?AssertValid@CObject@@UBEXXZ PROC			; CObject::AssertValid, COMDAT
; _this$ = ecx

; 120  : 	{ /* no asserts in release builds */ }

  00000	c2 00 00	 ret	 0
?AssertValid@CObject@@UBEXXZ ENDP			; CObject::AssertValid
_TEXT	ENDS
; Function compile flags: /Ogtp
; File C:\Program Files (x86)\Microsoft Visual Studio\2019\Community\VC\Tools\MSVC\14.29.30133\atlmfc\include\afx.inl
;	COMDAT ?Serialize@CObject@@UAEXAAVCArchive@@@Z
_TEXT	SEGMENT
___formal$ = 8						; size = 4
?Serialize@CObject@@UAEXAAVCArchive@@@Z PROC		; CObject::Serialize, COMDAT
; _this$ = ecx

; 106  : 	{ /* CObject does not serialize anything by default */ }

  00000	c2 04 00	 ret	 4
?Serialize@CObject@@UAEXAAVCArchive@@@Z ENDP		; CObject::Serialize
_TEXT	ENDS
; Function compile flags: /Ogtp
; File D:\git\src\IBK\IBK_DRFN\ProjSrc\SrcDrfn\Chart\STCONFIGUREDLG\TabVariables.cpp
;	COMDAT ?__empty_global_delete@@YAXPAXI@Z
_TEXT	SEGMENT
___formal$ = 8						; size = 4
___formal$ = 12						; size = 4
?__empty_global_delete@@YAXPAXI@Z PROC			; __empty_global_delete, COMDAT

  00000	c2 00 00	 ret	 0
?__empty_global_delete@@YAXPAXI@Z ENDP			; __empty_global_delete
_TEXT	ENDS
; Function compile flags: /Ogtp
; File D:\git\src\IBK\IBK_DRFN\ProjSrc\SrcDrfn\Chart\STCONFIGUREDLG\TabVariables.cpp
;	COMDAT ?__empty_global_delete@@YAXPAX@Z
_TEXT	SEGMENT
___formal$ = 8						; size = 4
?__empty_global_delete@@YAXPAX@Z PROC			; __empty_global_delete, COMDAT

  00000	c2 00 00	 ret	 0
?__empty_global_delete@@YAXPAX@Z ENDP			; __empty_global_delete
_TEXT	ENDS
END
