; Listing generated by Microsoft (R) Optimizing Compiler Version 19.29.30145.0 

	TITLE	D:\git\src\IBK\IBK_DRFN\#DRfn-CS\_Obj\ScaleDraw\BaseData.obj
	.686P
	.XMM
	include listing.inc
	.model	flat

INCLUDELIB MSVCRT
INCLUDELIB OLDNAMES

PUBLIC	?__empty_global_delete@@YAXPAX@Z		; __empty_global_delete
PUBLIC	?__empty_global_delete@@YAXPAXI@Z		; __empty_global_delete
PUBLIC	??1CScaleCompart@@QAE@XZ			; CScaleCompart::~CScaleCompart
PUBLIC	??0CScaleCompart@@QAE@ABV0@@Z			; CScaleCompart::CScaleCompart
PUBLIC	??1CScale@@QAE@XZ				; CScale::~CScale
PUBLIC	??0CScale@@QAE@ABV0@@Z				; CScale::CScale
PUBLIC	??1CHorizontalScale@@QAE@XZ			; CHorizontalScale::~CHorizontalScale
PUBLIC	??0CHorizontalScale@@QAE@ABV0@@Z		; CHorizontalScale::CHorizontalScale
PUBLIC	?IsVertScaleMinMaxLock@CVerticalScale@@QBEHXZ	; CVerticalScale::IsVertScaleMinMaxLock
PUBLIC	?SetVertScaleMinMaxLock@CVerticalScale@@QAEXH@Z	; CVerticalScale::SetVertScaleMinMaxLock
PUBLIC	?GetVertScaleMinMaxType@CVerticalScale@@QBE?AW4VERTMINMAXTYPE@CScaleBaseData@@XZ ; CVerticalScale::GetVertScaleMinMaxType
PUBLIC	?SetVertScaleMinMaxType@CVerticalScale@@QAEXW4VERTMINMAXTYPE@CScaleBaseData@@@Z ; CVerticalScale::SetVertScaleMinMaxType
PUBLIC	?GetVertScaleMin@CVerticalScale@@QBENXZ		; CVerticalScale::GetVertScaleMin
PUBLIC	?SetVertScaleMin@CVerticalScale@@QAEXN@Z	; CVerticalScale::SetVertScaleMin
PUBLIC	?GetVertScaleMax@CVerticalScale@@QBENXZ		; CVerticalScale::GetVertScaleMax
PUBLIC	?SetVertScaleMax@CVerticalScale@@QAEXN@Z	; CVerticalScale::SetVertScaleMax
PUBLIC	?SetVertScaleHoGaNumber@CVerticalScale@@QAEXN@Z	; CVerticalScale::SetVertScaleHoGaNumber
PUBLIC	?SetVertScaleUserNumber@CVerticalScale@@QAEXN@Z	; CVerticalScale::SetVertScaleUserNumber
PUBLIC	?SetVertUserHogaScaleType@CVerticalScale@@QAEXH@Z ; CVerticalScale::SetVertUserHogaScaleType
PUBLIC	?GetVertScaleHoGaNumber@CVerticalScale@@QBENXZ	; CVerticalScale::GetVertScaleHoGaNumber
PUBLIC	?GetVertScaleUserNumber@CVerticalScale@@QBENXZ	; CVerticalScale::GetVertScaleUserNumber
PUBLIC	?GetVertUserHogaScaleType@CVerticalScale@@QBEHXZ ; CVerticalScale::GetVertUserHogaScaleType
PUBLIC	?GetVertScaleInvertType@CVerticalScale@@QBE_NXZ	; CVerticalScale::GetVertScaleInvertType
PUBLIC	?SetVertScaleInvertType@CVerticalScale@@QAEX_N@Z ; CVerticalScale::SetVertScaleInvertType
PUBLIC	?SetSpace@CVerticalScale@@QAEXHH@Z		; CVerticalScale::SetSpace
PUBLIC	?GetSpace@CVerticalScale@@QBEXAAH0@Z		; CVerticalScale::GetSpace
PUBLIC	??1CVerticalScale@@QAE@XZ			; CVerticalScale::~CVerticalScale
PUBLIC	??0CVerticalScale@@QAE@ABV0@@Z			; CVerticalScale::CVerticalScale
PUBLIC	??4CHorzScaleRegionHeight@@QAEAAV0@ABV0@@Z	; CHorzScaleRegionHeight::operator=
PUBLIC	??4CHorzScaleRegionHeight@@QAEAAV0@$$QAV0@@Z	; CHorzScaleRegionHeight::operator=
PUBLIC	??4CVertScaleRegionWidth@@QAEAAV0@ABV0@@Z	; CVertScaleRegionWidth::operator=
PUBLIC	??4CVertScaleRegionWidth@@QAEAAV0@$$QAV0@@Z	; CVertScaleRegionWidth::operator=
PUBLIC	??4CHorzScaleRegion@@QAEAAV0@ABV0@@Z		; CHorzScaleRegion::operator=
PUBLIC	??4CHorzScaleRegion@@QAEAAV0@$$QAV0@@Z		; CHorzScaleRegion::operator=
PUBLIC	??4CVertScaleRegion@@QAEAAV0@ABV0@@Z		; CVertScaleRegion::operator=
PUBLIC	??4CVertScaleRegion@@QAEAAV0@$$QAV0@@Z		; CVertScaleRegion::operator=
PUBLIC	??4CDisplayAttributes@@QAEAAV0@ABV0@@Z		; CDisplayAttributes::operator=
PUBLIC	??8CDisplayAttributes@@QAE_NABV0@@Z		; CDisplayAttributes::operator==
PUBLIC	??0CDisplayAttributes@@QAE@XZ			; CDisplayAttributes::CDisplayAttributes
PUBLIC	??0CDisplayAttributes@@QAE@HH@Z			; CDisplayAttributes::CDisplayAttributes
PUBLIC	?SetDataStartInBlock@CDisplayAttributes@@QAEXH@Z ; CDisplayAttributes::SetDataStartInBlock
PUBLIC	?SetDataEndInBlock@CDisplayAttributes@@QAEXH@Z	; CDisplayAttributes::SetDataEndInBlock
PUBLIC	?GetDataStartInBlock@CDisplayAttributes@@QBEHXZ	; CDisplayAttributes::GetDataStartInBlock
PUBLIC	?GetDataEndInBlock@CDisplayAttributes@@QBEHXZ	; CDisplayAttributes::GetDataEndInBlock
PUBLIC	?GetDataCountInBlock@CDisplayAttributes@@QBEHXZ	; CDisplayAttributes::GetDataCountInBlock
PUBLIC	??0CScaleRegionAttributes@@QAE@XZ		; CScaleRegionAttributes::CScaleRegionAttributes
PUBLIC	?SetMinHorzScaleRegionHeight@CScaleRegionAttributes@@QAEXH@Z ; CScaleRegionAttributes::SetMinHorzScaleRegionHeight
PUBLIC	?SetMinVertScaleRegionWidth@CScaleRegionAttributes@@QAEXH@Z ; CScaleRegionAttributes::SetMinVertScaleRegionWidth
PUBLIC	?SetMaxVertScaleRegionWidth@CScaleRegionAttributes@@QAEXH@Z ; CScaleRegionAttributes::SetMaxVertScaleRegionWidth
PUBLIC	?GetMinHorzScaleRegionHeight@CScaleRegionAttributes@@QBEHXZ ; CScaleRegionAttributes::GetMinHorzScaleRegionHeight
PUBLIC	?GetMinVertScaleRegionWidth@CScaleRegionAttributes@@QBEHXZ ; CScaleRegionAttributes::GetMinVertScaleRegionWidth
PUBLIC	?GetMaxVertScaleRegionWidth@CScaleRegionAttributes@@QBEHXZ ; CScaleRegionAttributes::GetMaxVertScaleRegionWidth
PUBLIC	??0CGraphRegionsBase@@QAE@XZ			; CGraphRegionsBase::CGraphRegionsBase
PUBLIC	?SetFrameRegion@CGraphRegionsBase@@IAEXABVCRect@@HH@Z ; CGraphRegionsBase::SetFrameRegion
PUBLIC	??0CGraphRegions@@QAE@XZ			; CGraphRegions::CGraphRegions
PUBLIC	?IsTitle@CGraphRegions@@QBE_NXZ			; CGraphRegions::IsTitle
PUBLIC	?IsText@CGraphRegions@@QBE_NXZ			; CGraphRegions::IsText
PUBLIC	?SetText@CGraphRegions@@QAEX_N@Z		; CGraphRegions::SetText
PUBLIC	?SetTitle@CGraphRegions@@QAEX_N@Z		; CGraphRegions::SetTitle
PUBLIC	?SetFontSize@CGraphRegions@@QAEXH@Z		; CGraphRegions::SetFontSize
PUBLIC	?SetVertScale@CGraphRegions@@QAEX_N@Z		; CGraphRegions::SetVertScale
PUBLIC	?OffsetFontSize@CGraphRegions@@QAEXH@Z		; CGraphRegions::OffsetFontSize
PUBLIC	?SetTitleLine@CGraphRegions@@QAEXH@Z		; CGraphRegions::SetTitleLine
PUBLIC	?OffsetTitleLine@CGraphRegions@@QAEXH@Z		; CGraphRegions::OffsetTitleLine
PUBLIC	?GetTitleRegion@CGraphRegions@@QBE?AVCRect@@XZ	; CGraphRegions::GetTitleRegion
PUBLIC	?GetDrawingRegion@CGraphRegions@@QBE?AVCRect@@W4GRAPHTYPE@CGraphBaseData@@ABVCGraphStyle@@@Z ; CGraphRegions::GetDrawingRegion
PUBLIC	?GetTitleLineCount@CGraphRegions@@QBEHXZ	; CGraphRegions::GetTitleLineCount
PUBLIC	?SetGraphRegions@CDrawingRegion@@QAEXABVCGraphRegions@@@Z ; CDrawingRegion::SetGraphRegions
PUBLIC	?SetHorzScaleRegion@CDrawingRegion@@QAEXABVCRect@@0@Z ; CDrawingRegion::SetHorzScaleRegion
PUBLIC	?SetVertScaleRegion@CDrawingRegion@@QAEXABVCRect@@0@Z ; CDrawingRegion::SetVertScaleRegion
PUBLIC	?OffsetDrawingRegion@CDrawingRegion@@QAEXH@Z	; CDrawingRegion::OffsetDrawingRegion
PUBLIC	?GetGraphRegions@CDrawingRegion@@QAEAAVCGraphRegions@@XZ ; CDrawingRegion::GetGraphRegions
PUBLIC	?GetGraphRegions@CDrawingRegion@@QBE?AVCGraphRegions@@XZ ; CDrawingRegion::GetGraphRegions
PUBLIC	?GetGraphFrameRegion@CDrawingRegion@@QBE?AVCRect@@XZ ; CDrawingRegion::GetGraphFrameRegion
PUBLIC	?GetHorzScaleRegion@CDrawingRegion@@QBE?AVCHorzScaleRegion@@XZ ; CDrawingRegion::GetHorzScaleRegion
PUBLIC	?GetVertScaleRegion@CDrawingRegion@@QBE?AVCVertScaleRegion@@XZ ; CDrawingRegion::GetVertScaleRegion
PUBLIC	??0CDrawingGraphData@@QAE@PAVCIndicatorList@@W4DRAWINGORDER@CDrawingOption@@ABVCGraphRegions@@ABVCRect@@3ABVCDisplayDataMinMax@@ABV?$CStringT@DV?$StrTraitMFC_DLL@DV?$ChTraitsCRT@D@ATL@@@@@ATL@@ABVCEtcGraphColor@@ABVCDisplayAttributes@@_N888PAVCPacketList@@H8PAUHWND__@@HW4CHART_MODE@CChartInfo@@PAVCMainBlock@@@Z ; CDrawingGraphData::CDrawingGraphData
PUBLIC	?SetDisplayDataVertMinMax@CDrawingGraphData@@QAEXABVCDisplayDataMinMax@@@Z ; CDrawingGraphData::SetDisplayDataVertMinMax
PUBLIC	?SetGraphName@CDrawingGraphData@@QAEXABV?$CStringT@DV?$StrTraitMFC_DLL@DV?$ChTraitsCRT@D@ATL@@@@@ATL@@@Z ; CDrawingGraphData::SetGraphName
PUBLIC	?SetPacketNames@CDrawingGraphData@@QAEXABV?$CStringT@DV?$StrTraitMFC_DLL@DV?$ChTraitsCRT@D@ATL@@@@@ATL@@@Z ; CDrawingGraphData::SetPacketNames
PUBLIC	?SetTitleDraw@CDrawingGraphData@@QAEX_N0@Z	; CDrawingGraphData::SetTitleDraw
PUBLIC	?SetConditionTitleDraw@CDrawingGraphData@@QAEX_N@Z ; CDrawingGraphData::SetConditionTitleDraw
PUBLIC	?SetDataTitleDraw@CDrawingGraphData@@QAEX_N@Z	; CDrawingGraphData::SetDataTitleDraw
PUBLIC	?SetGraphDataDrawingData@CDrawingGraphData@@QAEXABVCGraphDataDrawingData@@@Z ; CDrawingGraphData::SetGraphDataDrawingData
PUBLIC	?SetPriceChartColor@CDrawingGraphData@@QAEXPAVCGraphColor@@@Z ; CDrawingGraphData::SetPriceChartColor
PUBLIC	?SetIndicatorInfo@CDrawingGraphData@@QAEXPAVCIndicatorInfo@@@Z ; CDrawingGraphData::SetIndicatorInfo
PUBLIC	?SetSubGraphPacketList@CDrawingGraphData@@QAEXPAVCSubGraphPacketList@@@Z ; CDrawingGraphData::SetSubGraphPacketList
PUBLIC	?GetDrawingOrderType@CDrawingGraphData@@QBE?AW4DRAWINGORDER@CDrawingOption@@XZ ; CDrawingGraphData::GetDrawingOrderType
PUBLIC	?DoesVertScaleLogType@CDrawingGraphData@@QBE_NXZ ; CDrawingGraphData::DoesVertScaleLogType
PUBLIC	?DoesVertScaleInvertType@CDrawingGraphData@@QBE_NXZ ; CDrawingGraphData::DoesVertScaleInvertType
PUBLIC	?GetGraphRegions@CDrawingGraphData@@QBEABVCGraphRegions@@XZ ; CDrawingGraphData::GetGraphRegions
PUBLIC	?GetScaleTextRegion@CDrawingGraphData@@QBE?AVCRect@@XZ ; CDrawingGraphData::GetScaleTextRegion
PUBLIC	?GetLeftScaleTextRegion@CDrawingGraphData@@QBE?AVCRect@@XZ ; CDrawingGraphData::GetLeftScaleTextRegion
PUBLIC	?GetRightScaleTextRegion@CDrawingGraphData@@QBE?AVCRect@@XZ ; CDrawingGraphData::GetRightScaleTextRegion
PUBLIC	?GetDisplayDataHorzMinMax@CDrawingGraphData@@QBE?AVCDisplayDataMinMax@@XZ ; CDrawingGraphData::GetDisplayDataHorzMinMax
PUBLIC	?GetDisplayDataVertMinMax@CDrawingGraphData@@QBE?AVCDisplayDataMinMax@@XZ ; CDrawingGraphData::GetDisplayDataVertMinMax
PUBLIC	?GetGraphName@CDrawingGraphData@@QBE?AV?$CStringT@DV?$StrTraitMFC_DLL@DV?$ChTraitsCRT@D@ATL@@@@@ATL@@XZ ; CDrawingGraphData::GetGraphName
PUBLIC	?GetPacketName@CDrawingGraphData@@QBE?AV?$CStringT@DV?$StrTraitMFC_DLL@DV?$ChTraitsCRT@D@ATL@@@@@ATL@@XZ ; CDrawingGraphData::GetPacketName
PUBLIC	?GetHorzScalePacketName@CDrawingGraphData@@QBE?AV?$CStringT@DV?$StrTraitMFC_DLL@DV?$ChTraitsCRT@D@ATL@@@@@ATL@@XZ ; CDrawingGraphData::GetHorzScalePacketName
PUBLIC	?DoesConditionTitleDraw@CDrawingGraphData@@QBE_NXZ ; CDrawingGraphData::DoesConditionTitleDraw
PUBLIC	?DoesDataTitleDraw@CDrawingGraphData@@QBE_NXZ	; CDrawingGraphData::DoesDataTitleDraw
PUBLIC	?GetGraphDataDrawingData@CDrawingGraphData@@QBE?AVCGraphDataDrawingData@@XZ ; CDrawingGraphData::GetGraphDataDrawingData
PUBLIC	?GetDisplayAttributes@CDrawingGraphData@@QBE?AVCDisplayAttributes@@XZ ; CDrawingGraphData::GetDisplayAttributes
PUBLIC	?GetEtcGraphColor@CDrawingGraphData@@QBE?AVCEtcGraphColor@@XZ ; CDrawingGraphData::GetEtcGraphColor
PUBLIC	?GetPriceChartColor@CDrawingGraphData@@QBEPAVCGraphColor@@XZ ; CDrawingGraphData::GetPriceChartColor
PUBLIC	?GetIndicatorList@CDrawingGraphData@@QBEPAVCIndicatorList@@XZ ; CDrawingGraphData::GetIndicatorList
PUBLIC	?GetIndicatorInfo@CDrawingGraphData@@QBEPAVCIndicatorInfo@@XZ ; CDrawingGraphData::GetIndicatorInfo
PUBLIC	?GetSubGraphPacketList@CDrawingGraphData@@QBEPAVCSubGraphPacketList@@XZ ; CDrawingGraphData::GetSubGraphPacketList
PUBLIC	?SetVertScaleInvertType@CDrawingGraphData@@QAEX_N@Z ; CDrawingGraphData::SetVertScaleInvertType
PUBLIC	?GetIndicatorName@CDrawingGraphData@@QBE?AV?$CStringT@DV?$StrTraitMFC_DLL@DV?$ChTraitsCRT@D@ATL@@@@@ATL@@XZ ; CDrawingGraphData::GetIndicatorName
PUBLIC	?SetVertScaleDisplayAttributes@CDrawingGraphData@@QAEXW4VERTSCALEPOSITION@CScaleBaseData@@H@Z ; CDrawingGraphData::SetVertScaleDisplayAttributes
PUBLIC	??0CDrawingHorzScaleData@@QAE@ABVCRect@@ABW4GRAPHTYPE@CGraphBaseData@@ABVCGraphStyle@@ABVCGraphRegionColor@@ABVCScaleColor@@ABVCDisplayAttributes@@ABVCDisplayDataMinMax@@PAVCPacket@@HH@Z ; CDrawingHorzScaleData::CDrawingHorzScaleData
PUBLIC	?GetDrawingGraphRegion@CDrawingHorzScaleData@@QBE?AVCRect@@XZ ; CDrawingHorzScaleData::GetDrawingGraphRegion
PUBLIC	?GetHeadGraphType@CDrawingHorzScaleData@@QBE?AW4GRAPHTYPE@CGraphBaseData@@XZ ; CDrawingHorzScaleData::GetHeadGraphType
PUBLIC	?GetHeadGraphStyle@CDrawingHorzScaleData@@QBE?AVCGraphStyle@@XZ ; CDrawingHorzScaleData::GetHeadGraphStyle
PUBLIC	?GetScaleDrawerType@CDrawingHorzScaleData@@QBE?AW4HORZSCALEDRAWERTYPE@CScaleBaseData@@XZ ; CDrawingHorzScaleData::GetScaleDrawerType
PUBLIC	?GetScaleColor@CDrawingHorzScaleData@@QBE?AVCScaleColor@@XZ ; CDrawingHorzScaleData::GetScaleColor
PUBLIC	?GetGraphRegionColor@CDrawingHorzScaleData@@QBE?AVCGraphRegionColor@@XZ ; CDrawingHorzScaleData::GetGraphRegionColor
PUBLIC	?GetCompartLineColor@CDrawingHorzScaleData@@QBEKXZ ; CDrawingHorzScaleData::GetCompartLineColor
PUBLIC	?GetDisplayAttributes@CDrawingHorzScaleData@@QBE?AVCDisplayAttributes@@XZ ; CDrawingHorzScaleData::GetDisplayAttributes
PUBLIC	?GetDisplayDataMinMax@CDrawingHorzScaleData@@QBE?AVCDisplayDataMinMax@@XZ ; CDrawingHorzScaleData::GetDisplayDataMinMax
PUBLIC	?GetPacket@CDrawingHorzScaleData@@QBEPAVCPacket@@XZ ; CDrawingHorzScaleData::GetPacket
PUBLIC	?GetDrawFutureScale@CDrawingHorzScaleData@@QBEHXZ ; CDrawingHorzScaleData::GetDrawFutureScale
PUBLIC	?SetDrawFutureScale@CDrawingHorzScaleData@@QAEXH@Z ; CDrawingHorzScaleData::SetDrawFutureScale
PUBLIC	?SetScaleDrawerType@CDrawingHorzScaleData@@QAEXABW4HORZSCALEDRAWERTYPE@CScaleBaseData@@@Z ; CDrawingHorzScaleData::SetScaleDrawerType
PUBLIC	??0CDrawingVertScaleData@@QAE@ABVCRect@@0ABVCGraphRegionColor@@ABVCScaleColor@@_N3ABVCDisplayAttributes@@PAVCPacketList@@@Z ; CDrawingVertScaleData::CDrawingVertScaleData
PUBLIC	?GetNoFrameGraphRegion@CDrawingVertScaleData@@QBE?AVCRect@@XZ ; CDrawingVertScaleData::GetNoFrameGraphRegion
PUBLIC	?GetDrawingGraphRegion@CDrawingVertScaleData@@QBE?AVCRect@@XZ ; CDrawingVertScaleData::GetDrawingGraphRegion
PUBLIC	?GetVertScaleInvertType@CDrawingVertScaleData@@QBE_NXZ ; CDrawingVertScaleData::GetVertScaleInvertType
PUBLIC	?GetVertScaleLogType@CDrawingVertScaleData@@QBE_NXZ ; CDrawingVertScaleData::GetVertScaleLogType
PUBLIC	?GetSubGraphNames@CDrawingVertScaleData@@QBE?AV?$CStringT@DV?$StrTraitMFC_DLL@DV?$ChTraitsCRT@D@ATL@@@@@ATL@@XZ ; CDrawingVertScaleData::GetSubGraphNames
PUBLIC	?GetPacketNames@CDrawingVertScaleData@@QBE?AV?$CStringT@DV?$StrTraitMFC_DLL@DV?$ChTraitsCRT@D@ATL@@@@@ATL@@XZ ; CDrawingVertScaleData::GetPacketNames
PUBLIC	?GetIndicatorName@CDrawingVertScaleData@@QBE?AV?$CStringT@DV?$StrTraitMFC_DLL@DV?$ChTraitsCRT@D@ATL@@@@@ATL@@XZ ; CDrawingVertScaleData::GetIndicatorName
PUBLIC	?GetScaleDrawerType@CDrawingVertScaleData@@QBE?AW4VERTSCALEDRAWERTYPE@CScaleBaseData@@XZ ; CDrawingVertScaleData::GetScaleDrawerType
PUBLIC	?GetScaleColor@CDrawingVertScaleData@@QBE?AVCScaleColor@@XZ ; CDrawingVertScaleData::GetScaleColor
PUBLIC	?GetGraphRegionColor@CDrawingVertScaleData@@QBE?AVCGraphRegionColor@@XZ ; CDrawingVertScaleData::GetGraphRegionColor
PUBLIC	?GetCompartLineColor@CDrawingVertScaleData@@QBEKXZ ; CDrawingVertScaleData::GetCompartLineColor
PUBLIC	?GetDisplayAttributes@CDrawingVertScaleData@@QBE?AVCDisplayAttributes@@XZ ; CDrawingVertScaleData::GetDisplayAttributes
PUBLIC	?GetDisplayDataMinMax@CDrawingVertScaleData@@QBE?AVCDisplayDataMinMax@@XZ ; CDrawingVertScaleData::GetDisplayDataMinMax
PUBLIC	?GetIndicatorInfo@CDrawingVertScaleData@@QBEPAVCIndicatorInfo@@XZ ; CDrawingVertScaleData::GetIndicatorInfo
PUBLIC	?GetPacket@CDrawingVertScaleData@@QBEPAVCPacket@@XZ ; CDrawingVertScaleData::GetPacket
PUBLIC	?GetHogaUnit@CDrawingVertScaleData@@QBENH@Z	; CDrawingVertScaleData::GetHogaUnit
PUBLIC	?GetStandardValue@CDrawingVertScaleData@@QBENXZ	; CDrawingVertScaleData::GetStandardValue
PUBLIC	?SetSubGraphNames@CDrawingVertScaleData@@QAEXABV?$CStringT@DV?$StrTraitMFC_DLL@DV?$ChTraitsCRT@D@ATL@@@@@ATL@@@Z ; CDrawingVertScaleData::SetSubGraphNames
PUBLIC	?SetPacketNames@CDrawingVertScaleData@@QAEXABV?$CStringT@DV?$StrTraitMFC_DLL@DV?$ChTraitsCRT@D@ATL@@@@@ATL@@@Z ; CDrawingVertScaleData::SetPacketNames
PUBLIC	?SetIndicatorName@CDrawingVertScaleData@@QAEXABV?$CStringT@DV?$StrTraitMFC_DLL@DV?$ChTraitsCRT@D@ATL@@@@@ATL@@@Z ; CDrawingVertScaleData::SetIndicatorName
PUBLIC	?SetScaleDrawerType@CDrawingVertScaleData@@QAEXABW4VERTSCALEDRAWERTYPE@CScaleBaseData@@@Z ; CDrawingVertScaleData::SetScaleDrawerType
PUBLIC	?SetDisplayDataMinMax@CDrawingVertScaleData@@QAEXABVCDisplayDataMinMax@@@Z ; CDrawingVertScaleData::SetDisplayDataMinMax
PUBLIC	?SetIndicatorInfo@CDrawingVertScaleData@@QAEXPAVCIndicatorInfo@@@Z ; CDrawingVertScaleData::SetIndicatorInfo
PUBLIC	?SetPacket@CDrawingVertScaleData@@QAEXPAVCPacket@@@Z ; CDrawingVertScaleData::SetPacket
PUBLIC	?SetVertScaleInvertType@CDrawingVertScaleData@@QAEX_N@Z ; CDrawingVertScaleData::SetVertScaleInvertType
PUBLIC	??0CTextInRightScaleRegionDrawer@@QAE@ABV?$CStringT@DV?$StrTraitMFC_DLL@DV?$ChTraitsCRT@D@ATL@@@@@ATL@@PAVCSubGraphPacketList@@ABVCRect@@HH@Z ; CTextInRightScaleRegionDrawer::CTextInRightScaleRegionDrawer
PUBLIC	?SetGraphName@CTextInRightScaleRegionDrawer@@QAEXABV?$CStringT@DV?$StrTraitMFC_DLL@DV?$ChTraitsCRT@D@ATL@@@@@ATL@@@Z ; CTextInRightScaleRegionDrawer::SetGraphName
PUBLIC	?SetSubGraphPacketList@CTextInRightScaleRegionDrawer@@QAEXPAVCSubGraphPacketList@@@Z ; CTextInRightScaleRegionDrawer::SetSubGraphPacketList
PUBLIC	?SetRegion@CTextInRightScaleRegionDrawer@@QAEXABVCRect@@@Z ; CTextInRightScaleRegionDrawer::SetRegion
PUBLIC	?SetCurDataType@CTextInRightScaleRegionDrawer@@QAEXH@Z ; CTextInRightScaleRegionDrawer::SetCurDataType
PUBLIC	?SetDataEnd@CTextInRightScaleRegionDrawer@@QAEXH@Z ; CTextInRightScaleRegionDrawer::SetDataEnd
PUBLIC	?GetGraphName@CTextInRightScaleRegionDrawer@@QBE?AV?$CStringT@DV?$StrTraitMFC_DLL@DV?$ChTraitsCRT@D@ATL@@@@@ATL@@XZ ; CTextInRightScaleRegionDrawer::GetGraphName
PUBLIC	?GetSubGraphPacketList@CTextInRightScaleRegionDrawer@@QBEPAVCSubGraphPacketList@@XZ ; CTextInRightScaleRegionDrawer::GetSubGraphPacketList
PUBLIC	?GetRegion@CTextInRightScaleRegionDrawer@@QBE?AVCRect@@XZ ; CTextInRightScaleRegionDrawer::GetRegion
PUBLIC	?GetCurDataType@CTextInRightScaleRegionDrawer@@QBEHXZ ; CTextInRightScaleRegionDrawer::GetCurDataType
PUBLIC	?GetDataEnd@CTextInRightScaleRegionDrawer@@QBEHXZ ; CTextInRightScaleRegionDrawer::GetDataEnd
PUBLIC	?IsTextDrawing@CTextInRightScaleRegionDrawer@@QBE_NXZ ; CTextInRightScaleRegionDrawer::IsTextDrawing
PUBLIC	??0CIndicatorList@@QAE@ABV0@@Z			; CIndicatorList::CIndicatorList
PUBLIC	??4CIndicatorList@@QAEAAV0@ABV0@@Z		; CIndicatorList::operator=
PUBLIC	??_GCIndicatorList@@UAEPAXI@Z			; CIndicatorList::`scalar deleting destructor'
PUBLIC	??_ECIndicatorList@@UAEPAXI@Z			; CIndicatorList::`vector deleting destructor'
PUBLIC	??0CIndicatorInfo@@QAE@ABV0@@Z			; CIndicatorInfo::CIndicatorInfo
PUBLIC	??4CIndicatorInfo@@QAEAAV0@ABV0@@Z		; CIndicatorInfo::operator=
PUBLIC	??_GCIndicatorInfo@@UAEPAXI@Z			; CIndicatorInfo::`scalar deleting destructor'
PUBLIC	??_ECIndicatorInfo@@UAEPAXI@Z			; CIndicatorInfo::`vector deleting destructor'
PUBLIC	??0CPacketList@@QAE@ABV0@@Z			; CPacketList::CPacketList
PUBLIC	??4CPacketList@@QAEAAV0@ABV0@@Z			; CPacketList::operator=
PUBLIC	??_GCPacketList@@UAEPAXI@Z			; CPacketList::`scalar deleting destructor'
PUBLIC	??_ECPacketList@@UAEPAXI@Z			; CPacketList::`vector deleting destructor'
PUBLIC	??_7CScale@@6B@					; CScale::`vftable'
PUBLIC	??_7CHorizontalScale@@6B@			; CHorizontalScale::`vftable'
PUBLIC	??_7CVerticalScale@@6B@				; CVerticalScale::`vftable'
PUBLIC	??_7CIndicatorList@@6B@				; CIndicatorList::`vftable'
PUBLIC	??_7CIndicatorInfo@@6B@				; CIndicatorInfo::`vftable'
PUBLIC	??_7CPacketList@@6B@				; CPacketList::`vftable'
PUBLIC	??_C@_07OEKCJGKM@HBPRICE@			; `string'
PUBLIC	??_C@_08ODANEJJL@HOGAUNIT@			; `string'
PUBLIC	??_R4CScale@@6B@				; CScale::`RTTI Complete Object Locator'
PUBLIC	??_R0?AVCScale@@@8				; CScale `RTTI Type Descriptor'
PUBLIC	??_R3CScale@@8					; CScale::`RTTI Class Hierarchy Descriptor'
PUBLIC	??_R2CScale@@8					; CScale::`RTTI Base Class Array'
PUBLIC	??_R1A@?0A@EA@CScale@@8				; CScale::`RTTI Base Class Descriptor at (0,-1,0,64)'
PUBLIC	??_R4CHorizontalScale@@6B@			; CHorizontalScale::`RTTI Complete Object Locator'
PUBLIC	??_R0?AVCHorizontalScale@@@8			; CHorizontalScale `RTTI Type Descriptor'
PUBLIC	??_R3CHorizontalScale@@8			; CHorizontalScale::`RTTI Class Hierarchy Descriptor'
PUBLIC	??_R2CHorizontalScale@@8			; CHorizontalScale::`RTTI Base Class Array'
PUBLIC	??_R1A@?0A@EA@CHorizontalScale@@8		; CHorizontalScale::`RTTI Base Class Descriptor at (0,-1,0,64)'
PUBLIC	??_R4CVerticalScale@@6B@			; CVerticalScale::`RTTI Complete Object Locator'
PUBLIC	??_R0?AVCVerticalScale@@@8			; CVerticalScale `RTTI Type Descriptor'
PUBLIC	??_R3CVerticalScale@@8				; CVerticalScale::`RTTI Class Hierarchy Descriptor'
PUBLIC	??_R2CVerticalScale@@8				; CVerticalScale::`RTTI Base Class Array'
PUBLIC	??_R1A@?0A@EA@CVerticalScale@@8			; CVerticalScale::`RTTI Base Class Descriptor at (0,-1,0,64)'
PUBLIC	??_R4CIndicatorList@@6B@			; CIndicatorList::`RTTI Complete Object Locator'
PUBLIC	??_R0?AVCIndicatorList@@@8			; CIndicatorList `RTTI Type Descriptor'
PUBLIC	??_R3CIndicatorList@@8				; CIndicatorList::`RTTI Class Hierarchy Descriptor'
PUBLIC	??_R2CIndicatorList@@8				; CIndicatorList::`RTTI Base Class Array'
PUBLIC	??_R1A@?0A@EA@CIndicatorList@@8			; CIndicatorList::`RTTI Base Class Descriptor at (0,-1,0,64)'
PUBLIC	??_R4CIndicatorInfo@@6B@			; CIndicatorInfo::`RTTI Complete Object Locator'
PUBLIC	??_R0?AVCIndicatorInfo@@@8			; CIndicatorInfo `RTTI Type Descriptor'
PUBLIC	??_R3CIndicatorInfo@@8				; CIndicatorInfo::`RTTI Class Hierarchy Descriptor'
PUBLIC	??_R2CIndicatorInfo@@8				; CIndicatorInfo::`RTTI Base Class Array'
PUBLIC	??_R1A@?0A@EA@CIndicatorInfo@@8			; CIndicatorInfo::`RTTI Base Class Descriptor at (0,-1,0,64)'
PUBLIC	??_R4CPacketList@@6B@				; CPacketList::`RTTI Complete Object Locator'
PUBLIC	??_R0?AVCPacketList@@@8				; CPacketList `RTTI Type Descriptor'
PUBLIC	??_R3CPacketList@@8				; CPacketList::`RTTI Class Hierarchy Descriptor'
PUBLIC	??_R2CPacketList@@8				; CPacketList::`RTTI Base Class Array'
PUBLIC	??_R1A@?0A@EA@CPacketList@@8			; CPacketList::`RTTI Base Class Descriptor at (0,-1,0,64)'
PUBLIC	__real@0000000000000000
EXTRN	??_M@YGXPAXIIP6EX0@Z@Z:PROC			; `eh vector destructor iterator'
EXTRN	??3@YAXPAXI@Z:PROC				; operator delete
EXTRN	??_V@YAXPAXI@Z:PROC				; operator delete[]
EXTRN	__imp__InflateRect@12:PROC
EXTRN	__imp__atof:PROC
EXTRN	__imp_??0?$CStringT@DV?$StrTraitMFC_DLL@DV?$ChTraitsCRT@D@ATL@@@@@ATL@@QAE@XZ:PROC
EXTRN	__imp_??0?$CStringT@DV?$StrTraitMFC_DLL@DV?$ChTraitsCRT@D@ATL@@@@@ATL@@QAE@ABV01@@Z:PROC
EXTRN	__imp_??0?$CStringT@DV?$StrTraitMFC_DLL@DV?$ChTraitsCRT@D@ATL@@@@@ATL@@QAE@PBD@Z:PROC
EXTRN	__imp_??1?$CStringT@DV?$StrTraitMFC_DLL@DV?$ChTraitsCRT@D@ATL@@@@@ATL@@QAE@XZ:PROC
EXTRN	__imp_??4?$CStringT@DV?$StrTraitMFC_DLL@DV?$ChTraitsCRT@D@ATL@@@@@ATL@@QAEAAV01@ABV01@@Z:PROC
EXTRN	__imp_??4?$CStringT@DV?$StrTraitMFC_DLL@DV?$ChTraitsCRT@D@ATL@@@@@ATL@@QAEAAV01@PBD@Z:PROC
EXTRN	?SetScaleData@CScale@@UAEXPADPAUHWND__@@@Z:PROC	; CScale::SetScaleData
EXTRN	?SetScaleData@CHorizontalScale@@UAEXPADPAUHWND__@@@Z:PROC ; CHorizontalScale::SetScaleData
EXTRN	?SetScaleData@CVerticalScale@@UAEXPADPAUHWND__@@@Z:PROC ; CVerticalScale::SetScaleData
EXTRN	?SetTopScaleRegion@CHorzScaleRegion@@QAEXABVCRect@@@Z:PROC ; CHorzScaleRegion::SetTopScaleRegion
EXTRN	?SetBottomScaleRegion@CHorzScaleRegion@@QAEXABVCRect@@@Z:PROC ; CHorzScaleRegion::SetBottomScaleRegion
EXTRN	?SetLeftScaleRegion@CVertScaleRegion@@QAEXABVCRect@@@Z:PROC ; CVertScaleRegion::SetLeftScaleRegion
EXTRN	?SetRightScaleRegion@CVertScaleRegion@@QAEXABVCRect@@@Z:PROC ; CVertScaleRegion::SetRightScaleRegion
EXTRN	?OffsetRegion@CVertScaleRegion@@QAEXHH@Z:PROC	; CVertScaleRegion::OffsetRegion
EXTRN	??4CDisplayDataMinMax@@QAEAAV0@ABV0@@Z:PROC	; CDisplayDataMinMax::operator=
EXTRN	??0CDisplayDataMinMax@@QAE@XZ:PROC		; CDisplayDataMinMax::CDisplayDataMinMax
EXTRN	__imp_?GetFrameColor@CGraphRegionColor@@QBEKXZ:PROC
EXTRN	__imp_??4CGraphDataDrawingData@@QAEAAV0@ABV0@@Z:PROC
EXTRN	__imp_??0CGraphDataDrawingData@@QAE@XZ:PROC
EXTRN	__imp_??0CGraphDataDrawingData@@QAE@ABV0@@Z:PROC
EXTRN	??1CIndicatorList@@UAE@XZ:PROC			; CIndicatorList::~CIndicatorList
EXTRN	??1CIndicatorInfo@@UAE@XZ:PROC			; CIndicatorInfo::~CIndicatorInfo
EXTRN	?GetIndicatorName@CIndicatorInfo@@QBE?AV?$CStringT@DV?$StrTraitMFC_DLL@DV?$ChTraitsCRT@D@ATL@@@@@ATL@@XZ:PROC ; CIndicatorInfo::GetIndicatorName
EXTRN	__imp_?GetStandardValue@CPacket@@QAENH@Z:PROC
EXTRN	??1CPacketList@@UAE@XZ:PROC			; CPacketList::~CPacketList
EXTRN	?GetBaseData@CPacketList@@QAEPAVCPacket@@V?$CStringT@DV?$StrTraitMFC_DLL@DV?$ChTraitsCRT@D@ATL@@@@@ATL@@_N@Z:PROC ; CPacketList::GetBaseData
EXTRN	?GetHelpMessageItem@CPacketList@@QAEHPBDAAV?$CStringT@DV?$StrTraitMFC_DLL@DV?$ChTraitsCRT@D@ATL@@@@@ATL@@@Z:PROC ; CPacketList::GetHelpMessageItem
EXTRN	@__security_check_cookie@4:PROC
EXTRN	___CxxFrameHandler3:PROC
EXTRN	??_7type_info@@6B@:QWORD			; type_info::`vftable'
EXTRN	?g_iMetaTable@@3VIMetaTable@@A:BYTE		; g_iMetaTable
EXTRN	___security_cookie:DWORD
EXTRN	__fltused:DWORD
;	COMDAT __real@0000000000000000
CONST	SEGMENT
__real@0000000000000000 DQ 00000000000000000r	; 0
CONST	ENDS
;	COMDAT ??_R1A@?0A@EA@CPacketList@@8
rdata$r	SEGMENT
??_R1A@?0A@EA@CPacketList@@8 DD FLAT:??_R0?AVCPacketList@@@8 ; CPacketList::`RTTI Base Class Descriptor at (0,-1,0,64)'
	DD	00H
	DD	00H
	DD	0ffffffffH
	DD	00H
	DD	040H
	DD	FLAT:??_R3CPacketList@@8
rdata$r	ENDS
;	COMDAT ??_R2CPacketList@@8
rdata$r	SEGMENT
??_R2CPacketList@@8 DD FLAT:??_R1A@?0A@EA@CPacketList@@8 ; CPacketList::`RTTI Base Class Array'
rdata$r	ENDS
;	COMDAT ??_R3CPacketList@@8
rdata$r	SEGMENT
??_R3CPacketList@@8 DD 00H				; CPacketList::`RTTI Class Hierarchy Descriptor'
	DD	00H
	DD	01H
	DD	FLAT:??_R2CPacketList@@8
rdata$r	ENDS
;	COMDAT ??_R0?AVCPacketList@@@8
data$rs	SEGMENT
??_R0?AVCPacketList@@@8 DD FLAT:??_7type_info@@6B@	; CPacketList `RTTI Type Descriptor'
	DD	00H
	DB	'.?AVCPacketList@@', 00H
data$rs	ENDS
;	COMDAT ??_R4CPacketList@@6B@
rdata$r	SEGMENT
??_R4CPacketList@@6B@ DD 00H				; CPacketList::`RTTI Complete Object Locator'
	DD	00H
	DD	00H
	DD	FLAT:??_R0?AVCPacketList@@@8
	DD	FLAT:??_R3CPacketList@@8
rdata$r	ENDS
;	COMDAT ??_R1A@?0A@EA@CIndicatorInfo@@8
rdata$r	SEGMENT
??_R1A@?0A@EA@CIndicatorInfo@@8 DD FLAT:??_R0?AVCIndicatorInfo@@@8 ; CIndicatorInfo::`RTTI Base Class Descriptor at (0,-1,0,64)'
	DD	00H
	DD	00H
	DD	0ffffffffH
	DD	00H
	DD	040H
	DD	FLAT:??_R3CIndicatorInfo@@8
rdata$r	ENDS
;	COMDAT ??_R2CIndicatorInfo@@8
rdata$r	SEGMENT
??_R2CIndicatorInfo@@8 DD FLAT:??_R1A@?0A@EA@CIndicatorInfo@@8 ; CIndicatorInfo::`RTTI Base Class Array'
rdata$r	ENDS
;	COMDAT ??_R3CIndicatorInfo@@8
rdata$r	SEGMENT
??_R3CIndicatorInfo@@8 DD 00H				; CIndicatorInfo::`RTTI Class Hierarchy Descriptor'
	DD	00H
	DD	01H
	DD	FLAT:??_R2CIndicatorInfo@@8
rdata$r	ENDS
;	COMDAT ??_R0?AVCIndicatorInfo@@@8
data$rs	SEGMENT
??_R0?AVCIndicatorInfo@@@8 DD FLAT:??_7type_info@@6B@	; CIndicatorInfo `RTTI Type Descriptor'
	DD	00H
	DB	'.?AVCIndicatorInfo@@', 00H
data$rs	ENDS
;	COMDAT ??_R4CIndicatorInfo@@6B@
rdata$r	SEGMENT
??_R4CIndicatorInfo@@6B@ DD 00H				; CIndicatorInfo::`RTTI Complete Object Locator'
	DD	00H
	DD	00H
	DD	FLAT:??_R0?AVCIndicatorInfo@@@8
	DD	FLAT:??_R3CIndicatorInfo@@8
rdata$r	ENDS
;	COMDAT ??_R1A@?0A@EA@CIndicatorList@@8
rdata$r	SEGMENT
??_R1A@?0A@EA@CIndicatorList@@8 DD FLAT:??_R0?AVCIndicatorList@@@8 ; CIndicatorList::`RTTI Base Class Descriptor at (0,-1,0,64)'
	DD	00H
	DD	00H
	DD	0ffffffffH
	DD	00H
	DD	040H
	DD	FLAT:??_R3CIndicatorList@@8
rdata$r	ENDS
;	COMDAT ??_R2CIndicatorList@@8
rdata$r	SEGMENT
??_R2CIndicatorList@@8 DD FLAT:??_R1A@?0A@EA@CIndicatorList@@8 ; CIndicatorList::`RTTI Base Class Array'
rdata$r	ENDS
;	COMDAT ??_R3CIndicatorList@@8
rdata$r	SEGMENT
??_R3CIndicatorList@@8 DD 00H				; CIndicatorList::`RTTI Class Hierarchy Descriptor'
	DD	00H
	DD	01H
	DD	FLAT:??_R2CIndicatorList@@8
rdata$r	ENDS
;	COMDAT ??_R0?AVCIndicatorList@@@8
data$rs	SEGMENT
??_R0?AVCIndicatorList@@@8 DD FLAT:??_7type_info@@6B@	; CIndicatorList `RTTI Type Descriptor'
	DD	00H
	DB	'.?AVCIndicatorList@@', 00H
data$rs	ENDS
;	COMDAT ??_R4CIndicatorList@@6B@
rdata$r	SEGMENT
??_R4CIndicatorList@@6B@ DD 00H				; CIndicatorList::`RTTI Complete Object Locator'
	DD	00H
	DD	00H
	DD	FLAT:??_R0?AVCIndicatorList@@@8
	DD	FLAT:??_R3CIndicatorList@@8
rdata$r	ENDS
;	COMDAT ??_R1A@?0A@EA@CVerticalScale@@8
rdata$r	SEGMENT
??_R1A@?0A@EA@CVerticalScale@@8 DD FLAT:??_R0?AVCVerticalScale@@@8 ; CVerticalScale::`RTTI Base Class Descriptor at (0,-1,0,64)'
	DD	01H
	DD	00H
	DD	0ffffffffH
	DD	00H
	DD	040H
	DD	FLAT:??_R3CVerticalScale@@8
rdata$r	ENDS
;	COMDAT ??_R2CVerticalScale@@8
rdata$r	SEGMENT
??_R2CVerticalScale@@8 DD FLAT:??_R1A@?0A@EA@CVerticalScale@@8 ; CVerticalScale::`RTTI Base Class Array'
	DD	FLAT:??_R1A@?0A@EA@CScale@@8
rdata$r	ENDS
;	COMDAT ??_R3CVerticalScale@@8
rdata$r	SEGMENT
??_R3CVerticalScale@@8 DD 00H				; CVerticalScale::`RTTI Class Hierarchy Descriptor'
	DD	00H
	DD	02H
	DD	FLAT:??_R2CVerticalScale@@8
rdata$r	ENDS
;	COMDAT ??_R0?AVCVerticalScale@@@8
data$rs	SEGMENT
??_R0?AVCVerticalScale@@@8 DD FLAT:??_7type_info@@6B@	; CVerticalScale `RTTI Type Descriptor'
	DD	00H
	DB	'.?AVCVerticalScale@@', 00H
data$rs	ENDS
;	COMDAT ??_R4CVerticalScale@@6B@
rdata$r	SEGMENT
??_R4CVerticalScale@@6B@ DD 00H				; CVerticalScale::`RTTI Complete Object Locator'
	DD	00H
	DD	00H
	DD	FLAT:??_R0?AVCVerticalScale@@@8
	DD	FLAT:??_R3CVerticalScale@@8
rdata$r	ENDS
;	COMDAT ??_R1A@?0A@EA@CHorizontalScale@@8
rdata$r	SEGMENT
??_R1A@?0A@EA@CHorizontalScale@@8 DD FLAT:??_R0?AVCHorizontalScale@@@8 ; CHorizontalScale::`RTTI Base Class Descriptor at (0,-1,0,64)'
	DD	01H
	DD	00H
	DD	0ffffffffH
	DD	00H
	DD	040H
	DD	FLAT:??_R3CHorizontalScale@@8
rdata$r	ENDS
;	COMDAT ??_R2CHorizontalScale@@8
rdata$r	SEGMENT
??_R2CHorizontalScale@@8 DD FLAT:??_R1A@?0A@EA@CHorizontalScale@@8 ; CHorizontalScale::`RTTI Base Class Array'
	DD	FLAT:??_R1A@?0A@EA@CScale@@8
rdata$r	ENDS
;	COMDAT ??_R3CHorizontalScale@@8
rdata$r	SEGMENT
??_R3CHorizontalScale@@8 DD 00H				; CHorizontalScale::`RTTI Class Hierarchy Descriptor'
	DD	00H
	DD	02H
	DD	FLAT:??_R2CHorizontalScale@@8
rdata$r	ENDS
;	COMDAT ??_R0?AVCHorizontalScale@@@8
data$rs	SEGMENT
??_R0?AVCHorizontalScale@@@8 DD FLAT:??_7type_info@@6B@	; CHorizontalScale `RTTI Type Descriptor'
	DD	00H
	DB	'.?AVCHorizontalScale@@', 00H
data$rs	ENDS
;	COMDAT ??_R4CHorizontalScale@@6B@
rdata$r	SEGMENT
??_R4CHorizontalScale@@6B@ DD 00H			; CHorizontalScale::`RTTI Complete Object Locator'
	DD	00H
	DD	00H
	DD	FLAT:??_R0?AVCHorizontalScale@@@8
	DD	FLAT:??_R3CHorizontalScale@@8
rdata$r	ENDS
;	COMDAT ??_R1A@?0A@EA@CScale@@8
rdata$r	SEGMENT
??_R1A@?0A@EA@CScale@@8 DD FLAT:??_R0?AVCScale@@@8	; CScale::`RTTI Base Class Descriptor at (0,-1,0,64)'
	DD	00H
	DD	00H
	DD	0ffffffffH
	DD	00H
	DD	040H
	DD	FLAT:??_R3CScale@@8
rdata$r	ENDS
;	COMDAT ??_R2CScale@@8
rdata$r	SEGMENT
??_R2CScale@@8 DD FLAT:??_R1A@?0A@EA@CScale@@8		; CScale::`RTTI Base Class Array'
rdata$r	ENDS
;	COMDAT ??_R3CScale@@8
rdata$r	SEGMENT
??_R3CScale@@8 DD 00H					; CScale::`RTTI Class Hierarchy Descriptor'
	DD	00H
	DD	01H
	DD	FLAT:??_R2CScale@@8
rdata$r	ENDS
;	COMDAT ??_R0?AVCScale@@@8
data$rs	SEGMENT
??_R0?AVCScale@@@8 DD FLAT:??_7type_info@@6B@		; CScale `RTTI Type Descriptor'
	DD	00H
	DB	'.?AVCScale@@', 00H
data$rs	ENDS
;	COMDAT ??_R4CScale@@6B@
rdata$r	SEGMENT
??_R4CScale@@6B@ DD 00H					; CScale::`RTTI Complete Object Locator'
	DD	00H
	DD	00H
	DD	FLAT:??_R0?AVCScale@@@8
	DD	FLAT:??_R3CScale@@8
rdata$r	ENDS
;	COMDAT ??_C@_08ODANEJJL@HOGAUNIT@
CONST	SEGMENT
??_C@_08ODANEJJL@HOGAUNIT@ DB 'HOGAUNIT', 00H		; `string'
CONST	ENDS
;	COMDAT ??_C@_07OEKCJGKM@HBPRICE@
CONST	SEGMENT
??_C@_07OEKCJGKM@HBPRICE@ DB 'HBPRICE', 00H		; `string'
CONST	ENDS
;	COMDAT ??_7CPacketList@@6B@
CONST	SEGMENT
??_7CPacketList@@6B@ DD FLAT:??_R4CPacketList@@6B@	; CPacketList::`vftable'
	DD	FLAT:??_ECPacketList@@UAEPAXI@Z
CONST	ENDS
;	COMDAT ??_7CIndicatorInfo@@6B@
CONST	SEGMENT
??_7CIndicatorInfo@@6B@ DD FLAT:??_R4CIndicatorInfo@@6B@ ; CIndicatorInfo::`vftable'
	DD	FLAT:??_ECIndicatorInfo@@UAEPAXI@Z
CONST	ENDS
;	COMDAT ??_7CIndicatorList@@6B@
CONST	SEGMENT
??_7CIndicatorList@@6B@ DD FLAT:??_R4CIndicatorList@@6B@ ; CIndicatorList::`vftable'
	DD	FLAT:??_ECIndicatorList@@UAEPAXI@Z
CONST	ENDS
;	COMDAT ??_7CVerticalScale@@6B@
CONST	SEGMENT
??_7CVerticalScale@@6B@ DD FLAT:??_R4CVerticalScale@@6B@ ; CVerticalScale::`vftable'
	DD	FLAT:?SetScaleData@CVerticalScale@@UAEXPADPAUHWND__@@@Z
CONST	ENDS
;	COMDAT ??_7CHorizontalScale@@6B@
CONST	SEGMENT
??_7CHorizontalScale@@6B@ DD FLAT:??_R4CHorizontalScale@@6B@ ; CHorizontalScale::`vftable'
	DD	FLAT:?SetScaleData@CHorizontalScale@@UAEXPADPAUHWND__@@@Z
CONST	ENDS
;	COMDAT ??_7CScale@@6B@
CONST	SEGMENT
??_7CScale@@6B@ DD FLAT:??_R4CScale@@6B@		; CScale::`vftable'
	DD	FLAT:?SetScaleData@CScale@@UAEXPADPAUHWND__@@@Z
CONST	ENDS
;	COMDAT xdata$x
xdata$x	SEGMENT
__ehfuncinfo$??_ECPacketList@@UAEPAXI@Z DD 019930522H
	DD	00H
	DD	00H
	DD	2 DUP(00H)
	DD	2 DUP(00H)
	DD	00H
	DD	05H
xdata$x	ENDS
;	COMDAT xdata$x
xdata$x	SEGMENT
__ehfuncinfo$??_ECIndicatorInfo@@UAEPAXI@Z DD 019930522H
	DD	00H
	DD	00H
	DD	2 DUP(00H)
	DD	2 DUP(00H)
	DD	00H
	DD	05H
xdata$x	ENDS
;	COMDAT xdata$x
xdata$x	SEGMENT
__ehfuncinfo$??_ECIndicatorList@@UAEPAXI@Z DD 019930522H
	DD	00H
	DD	00H
	DD	2 DUP(00H)
	DD	2 DUP(00H)
	DD	00H
	DD	05H
xdata$x	ENDS
;	COMDAT xdata$x
xdata$x	SEGMENT
__unwindtable$?GetHogaUnit@CDrawingVertScaleData@@QBENH@Z DD 0ffffffffH
	DD	FLAT:__unwindfunclet$?GetHogaUnit@CDrawingVertScaleData@@QBENH@Z$0
	DD	00H
	DD	FLAT:__unwindfunclet$?GetHogaUnit@CDrawingVertScaleData@@QBENH@Z$1
__ehfuncinfo$?GetHogaUnit@CDrawingVertScaleData@@QBENH@Z DD 019930522H
	DD	02H
	DD	FLAT:__unwindtable$?GetHogaUnit@CDrawingVertScaleData@@QBENH@Z
	DD	2 DUP(00H)
	DD	2 DUP(00H)
	DD	00H
	DD	01H
xdata$x	ENDS
;	COMDAT xdata$x
xdata$x	SEGMENT
__unwindtable$??0CDrawingVertScaleData@@QAE@ABVCRect@@0ABVCGraphRegionColor@@ABVCScaleColor@@_N3ABVCDisplayAttributes@@PAVCPacketList@@@Z DD 0ffffffffH
	DD	FLAT:__unwindfunclet$??0CDrawingVertScaleData@@QAE@ABVCRect@@0ABVCGraphRegionColor@@ABVCScaleColor@@_N3ABVCDisplayAttributes@@PAVCPacketList@@@Z$0
	DD	00H
	DD	FLAT:__unwindfunclet$??0CDrawingVertScaleData@@QAE@ABVCRect@@0ABVCGraphRegionColor@@ABVCScaleColor@@_N3ABVCDisplayAttributes@@PAVCPacketList@@@Z$1
	DD	01H
	DD	FLAT:__unwindfunclet$??0CDrawingVertScaleData@@QAE@ABVCRect@@0ABVCGraphRegionColor@@ABVCScaleColor@@_N3ABVCDisplayAttributes@@PAVCPacketList@@@Z$2
__ehfuncinfo$??0CDrawingVertScaleData@@QAE@ABVCRect@@0ABVCGraphRegionColor@@ABVCScaleColor@@_N3ABVCDisplayAttributes@@PAVCPacketList@@@Z DD 019930522H
	DD	03H
	DD	FLAT:__unwindtable$??0CDrawingVertScaleData@@QAE@ABVCRect@@0ABVCGraphRegionColor@@ABVCScaleColor@@_N3ABVCDisplayAttributes@@PAVCPacketList@@@Z
	DD	2 DUP(00H)
	DD	2 DUP(00H)
	DD	00H
	DD	01H
xdata$x	ENDS
;	COMDAT xdata$x
xdata$x	SEGMENT
__unwindtable$??0CDrawingGraphData@@QAE@PAVCIndicatorList@@W4DRAWINGORDER@CDrawingOption@@ABVCGraphRegions@@ABVCRect@@3ABVCDisplayDataMinMax@@ABV?$CStringT@DV?$StrTraitMFC_DLL@DV?$ChTraitsCRT@D@ATL@@@@@ATL@@ABVCEtcGraphColor@@ABVCDisplayAttributes@@_N888PAVCPacketList@@H8PAUHWND__@@HW4CHART_MODE@CChartInfo@@PAVCMainBlock@@@Z DD 0ffffffffH
	DD	FLAT:__unwindfunclet$??0CDrawingGraphData@@QAE@PAVCIndicatorList@@W4DRAWINGORDER@CDrawingOption@@ABVCGraphRegions@@ABVCRect@@3ABVCDisplayDataMinMax@@ABV?$CStringT@DV?$StrTraitMFC_DLL@DV?$ChTraitsCRT@D@ATL@@@@@ATL@@ABVCEtcGraphColor@@ABVCDisplayAttributes@@_N888PAVCPacketList@@H8PAUHWND__@@HW4CHART_MODE@CChartInfo@@PAVCMainBlock@@@Z$0
	DD	00H
	DD	FLAT:__unwindfunclet$??0CDrawingGraphData@@QAE@PAVCIndicatorList@@W4DRAWINGORDER@CDrawingOption@@ABVCGraphRegions@@ABVCRect@@3ABVCDisplayDataMinMax@@ABV?$CStringT@DV?$StrTraitMFC_DLL@DV?$ChTraitsCRT@D@ATL@@@@@ATL@@ABVCEtcGraphColor@@ABVCDisplayAttributes@@_N888PAVCPacketList@@H8PAUHWND__@@HW4CHART_MODE@CChartInfo@@PAVCMainBlock@@@Z$1
	DD	01H
	DD	FLAT:__unwindfunclet$??0CDrawingGraphData@@QAE@PAVCIndicatorList@@W4DRAWINGORDER@CDrawingOption@@ABVCGraphRegions@@ABVCRect@@3ABVCDisplayDataMinMax@@ABV?$CStringT@DV?$StrTraitMFC_DLL@DV?$ChTraitsCRT@D@ATL@@@@@ATL@@ABVCEtcGraphColor@@ABVCDisplayAttributes@@_N888PAVCPacketList@@H8PAUHWND__@@HW4CHART_MODE@CChartInfo@@PAVCMainBlock@@@Z$2
__ehfuncinfo$??0CDrawingGraphData@@QAE@PAVCIndicatorList@@W4DRAWINGORDER@CDrawingOption@@ABVCGraphRegions@@ABVCRect@@3ABVCDisplayDataMinMax@@ABV?$CStringT@DV?$StrTraitMFC_DLL@DV?$ChTraitsCRT@D@ATL@@@@@ATL@@ABVCEtcGraphColor@@ABVCDisplayAttributes@@_N888PAVCPacketList@@H8PAUHWND__@@HW4CHART_MODE@CChartInfo@@PAVCMainBlock@@@Z DD 019930522H
	DD	03H
	DD	FLAT:__unwindtable$??0CDrawingGraphData@@QAE@PAVCIndicatorList@@W4DRAWINGORDER@CDrawingOption@@ABVCGraphRegions@@ABVCRect@@3ABVCDisplayDataMinMax@@ABV?$CStringT@DV?$StrTraitMFC_DLL@DV?$ChTraitsCRT@D@ATL@@@@@ATL@@ABVCEtcGraphColor@@ABVCDisplayAttributes@@_N888PAVCPacketList@@H8PAUHWND__@@HW4CHART_MODE@CChartInfo@@PAVCMainBlock@@@Z
	DD	2 DUP(00H)
	DD	2 DUP(00H)
	DD	00H
	DD	01H
xdata$x	ENDS
;	COMDAT xdata$x
xdata$x	SEGMENT
__unwindtable$??0CHorizontalScale@@QAE@ABV0@@Z DD 0ffffffffH
	DD	FLAT:__unwindfunclet$??0CHorizontalScale@@QAE@ABV0@@Z$0
	DD	00H
	DD	FLAT:__unwindfunclet$??0CHorizontalScale@@QAE@ABV0@@Z$3
__ehfuncinfo$??0CHorizontalScale@@QAE@ABV0@@Z DD 019930522H
	DD	02H
	DD	FLAT:__unwindtable$??0CHorizontalScale@@QAE@ABV0@@Z
	DD	2 DUP(00H)
	DD	2 DUP(00H)
	DD	00H
	DD	01H
xdata$x	ENDS
;	COMDAT xdata$x
xdata$x	SEGMENT
__unwindtable$??0CScaleCompart@@QAE@ABV0@@Z DD 0ffffffffH
	DD	FLAT:__unwindfunclet$??0CScaleCompart@@QAE@ABV0@@Z$0
__ehfuncinfo$??0CScaleCompart@@QAE@ABV0@@Z DD 019930522H
	DD	01H
	DD	FLAT:__unwindtable$??0CScaleCompart@@QAE@ABV0@@Z
	DD	2 DUP(00H)
	DD	2 DUP(00H)
	DD	00H
	DD	01H
xdata$x	ENDS
; Function compile flags: /Ogtp
;	COMDAT ??_ECPacketList@@UAEPAXI@Z
_TEXT	SEGMENT
__$EHRec$ = -12						; size = 12
___flags$ = 8						; size = 4
??_ECPacketList@@UAEPAXI@Z PROC				; CPacketList::`vector deleting destructor', COMDAT
; _this$ = ecx
  00000	55		 push	 ebp
  00001	8b ec		 mov	 ebp, esp
  00003	6a ff		 push	 -1
  00005	68 00 00 00 00	 push	 __ehhandler$??_ECPacketList@@UAEPAXI@Z
  0000a	64 a1 00 00 00
	00		 mov	 eax, DWORD PTR fs:0
  00010	50		 push	 eax
  00011	53		 push	 ebx
  00012	56		 push	 esi
  00013	57		 push	 edi
  00014	a1 00 00 00 00	 mov	 eax, DWORD PTR ___security_cookie
  00019	33 c5		 xor	 eax, ebp
  0001b	50		 push	 eax
  0001c	8d 45 f4	 lea	 eax, DWORD PTR __$EHRec$[ebp]
  0001f	64 a3 00 00 00
	00		 mov	 DWORD PTR fs:0, eax
  00025	8b f1		 mov	 esi, ecx
  00027	8b 45 08	 mov	 eax, DWORD PTR ___flags$[ebp]
  0002a	8b d8		 mov	 ebx, eax
  0002c	83 e3 01	 and	 ebx, 1
  0002f	a8 02		 test	 al, 2
  00031	74 40		 je	 SHORT $LN2@vector
  00033	68 00 00 00 00	 push	 OFFSET ??1CPacketList@@UAE@XZ ; CPacketList::~CPacketList
  00038	ff 76 fc	 push	 DWORD PTR [esi-4]
  0003b	8d 7e fc	 lea	 edi, DWORD PTR [esi-4]
  0003e	6a 08		 push	 8
  00040	56		 push	 esi
  00041	e8 00 00 00 00	 call	 ??_M@YGXPAXIIP6EX0@Z@Z
  00046	85 db		 test	 ebx, ebx
  00048	74 13		 je	 SHORT $LN3@vector
  0004a	8b 0f		 mov	 ecx, DWORD PTR [edi]
  0004c	8d 0c cd 04 00
	00 00		 lea	 ecx, DWORD PTR [ecx*8+4]
  00053	51		 push	 ecx
  00054	57		 push	 edi
  00055	e8 00 00 00 00	 call	 ??_V@YAXPAXI@Z		; operator delete[]
  0005a	83 c4 08	 add	 esp, 8
$LN3@vector:
  0005d	8b c7		 mov	 eax, edi
  0005f	8b 4d f4	 mov	 ecx, DWORD PTR __$EHRec$[ebp]
  00062	64 89 0d 00 00
	00 00		 mov	 DWORD PTR fs:0, ecx
  00069	59		 pop	 ecx
  0006a	5f		 pop	 edi
  0006b	5e		 pop	 esi
  0006c	5b		 pop	 ebx
  0006d	8b e5		 mov	 esp, ebp
  0006f	5d		 pop	 ebp
  00070	c2 04 00	 ret	 4
$LN2@vector:
  00073	e8 00 00 00 00	 call	 ??1CPacketList@@UAE@XZ	; CPacketList::~CPacketList
  00078	85 db		 test	 ebx, ebx
  0007a	74 0b		 je	 SHORT $LN4@vector
  0007c	6a 08		 push	 8
  0007e	56		 push	 esi
  0007f	e8 00 00 00 00	 call	 ??3@YAXPAXI@Z		; operator delete
  00084	83 c4 08	 add	 esp, 8
$LN4@vector:
  00087	8b c6		 mov	 eax, esi
  00089	8b 4d f4	 mov	 ecx, DWORD PTR __$EHRec$[ebp]
  0008c	64 89 0d 00 00
	00 00		 mov	 DWORD PTR fs:0, ecx
  00093	59		 pop	 ecx
  00094	5f		 pop	 edi
  00095	5e		 pop	 esi
  00096	5b		 pop	 ebx
  00097	8b e5		 mov	 esp, ebp
  00099	5d		 pop	 ebp
  0009a	c2 04 00	 ret	 4
  0009d	cc		 int	 3
  0009e	cc		 int	 3
  0009f	cc		 int	 3
  000a0	cc		 int	 3
  000a1	cc		 int	 3
_TEXT	ENDS
;	COMDAT text$x
text$x	SEGMENT
__ehhandler$??_ECPacketList@@UAEPAXI@Z:
  00000	90		 npad	 1
  00001	90		 npad	 1
  00002	8b 54 24 08	 mov	 edx, DWORD PTR [esp+8]
  00006	8d 42 0c	 lea	 eax, DWORD PTR [edx+12]
  00009	8b 4a f0	 mov	 ecx, DWORD PTR [edx-16]
  0000c	33 c8		 xor	 ecx, eax
  0000e	e8 00 00 00 00	 call	 @__security_check_cookie@4
  00013	b8 00 00 00 00	 mov	 eax, OFFSET __ehfuncinfo$??_ECPacketList@@UAEPAXI@Z
  00018	e9 00 00 00 00	 jmp	 ___CxxFrameHandler3
text$x	ENDS
??_ECPacketList@@UAEPAXI@Z ENDP				; CPacketList::`vector deleting destructor'
; Function compile flags: /Ogtp
;	COMDAT ??_GCPacketList@@UAEPAXI@Z
_TEXT	SEGMENT
___flags$ = 8						; size = 4
??_GCPacketList@@UAEPAXI@Z PROC				; CPacketList::`scalar deleting destructor', COMDAT
; _this$ = ecx
  00000	55		 push	 ebp
  00001	8b ec		 mov	 ebp, esp
  00003	56		 push	 esi
  00004	8b f1		 mov	 esi, ecx
  00006	e8 00 00 00 00	 call	 ??1CPacketList@@UAE@XZ	; CPacketList::~CPacketList
  0000b	f6 45 08 01	 test	 BYTE PTR ___flags$[ebp], 1
  0000f	74 0b		 je	 SHORT $LN4@scalar
  00011	6a 08		 push	 8
  00013	56		 push	 esi
  00014	e8 00 00 00 00	 call	 ??3@YAXPAXI@Z		; operator delete
  00019	83 c4 08	 add	 esp, 8
$LN4@scalar:
  0001c	8b c6		 mov	 eax, esi
  0001e	5e		 pop	 esi
  0001f	5d		 pop	 ebp
  00020	c2 04 00	 ret	 4
??_GCPacketList@@UAEPAXI@Z ENDP				; CPacketList::`scalar deleting destructor'
_TEXT	ENDS
; Function compile flags: /Ogtp
;	COMDAT ??4CPacketList@@QAEAAV0@ABV0@@Z
_TEXT	SEGMENT
___that$ = 8						; size = 4
??4CPacketList@@QAEAAV0@ABV0@@Z PROC			; CPacketList::operator=, COMDAT
; _this$ = ecx
  00000	55		 push	 ebp
  00001	8b ec		 mov	 ebp, esp
  00003	8b 45 08	 mov	 eax, DWORD PTR ___that$[ebp]
  00006	8b 40 04	 mov	 eax, DWORD PTR [eax+4]
  00009	89 41 04	 mov	 DWORD PTR [ecx+4], eax
  0000c	8b c1		 mov	 eax, ecx
  0000e	5d		 pop	 ebp
  0000f	c2 04 00	 ret	 4
??4CPacketList@@QAEAAV0@ABV0@@Z ENDP			; CPacketList::operator=
_TEXT	ENDS
; Function compile flags: /Ogtp
;	COMDAT ??0CPacketList@@QAE@ABV0@@Z
_TEXT	SEGMENT
___that$ = 8						; size = 4
??0CPacketList@@QAE@ABV0@@Z PROC			; CPacketList::CPacketList, COMDAT
; _this$ = ecx
  00000	55		 push	 ebp
  00001	8b ec		 mov	 ebp, esp
  00003	8b 45 08	 mov	 eax, DWORD PTR ___that$[ebp]
  00006	c7 01 00 00 00
	00		 mov	 DWORD PTR [ecx], OFFSET ??_7CPacketList@@6B@
  0000c	8b 40 04	 mov	 eax, DWORD PTR [eax+4]
  0000f	89 41 04	 mov	 DWORD PTR [ecx+4], eax
  00012	8b c1		 mov	 eax, ecx
  00014	5d		 pop	 ebp
  00015	c2 04 00	 ret	 4
??0CPacketList@@QAE@ABV0@@Z ENDP			; CPacketList::CPacketList
_TEXT	ENDS
; Function compile flags: /Ogtp
;	COMDAT ??_ECIndicatorInfo@@UAEPAXI@Z
_TEXT	SEGMENT
__$EHRec$ = -12						; size = 12
___flags$ = 8						; size = 4
??_ECIndicatorInfo@@UAEPAXI@Z PROC			; CIndicatorInfo::`vector deleting destructor', COMDAT
; _this$ = ecx
  00000	55		 push	 ebp
  00001	8b ec		 mov	 ebp, esp
  00003	6a ff		 push	 -1
  00005	68 00 00 00 00	 push	 __ehhandler$??_ECIndicatorInfo@@UAEPAXI@Z
  0000a	64 a1 00 00 00
	00		 mov	 eax, DWORD PTR fs:0
  00010	50		 push	 eax
  00011	53		 push	 ebx
  00012	56		 push	 esi
  00013	57		 push	 edi
  00014	a1 00 00 00 00	 mov	 eax, DWORD PTR ___security_cookie
  00019	33 c5		 xor	 eax, ebp
  0001b	50		 push	 eax
  0001c	8d 45 f4	 lea	 eax, DWORD PTR __$EHRec$[ebp]
  0001f	64 a3 00 00 00
	00		 mov	 DWORD PTR fs:0, eax
  00025	8b f1		 mov	 esi, ecx
  00027	8b 45 08	 mov	 eax, DWORD PTR ___flags$[ebp]
  0002a	8b d8		 mov	 ebx, eax
  0002c	83 e3 01	 and	 ebx, 1
  0002f	a8 02		 test	 al, 2
  00031	74 40		 je	 SHORT $LN2@vector
  00033	68 00 00 00 00	 push	 OFFSET ??1CIndicatorInfo@@UAE@XZ ; CIndicatorInfo::~CIndicatorInfo
  00038	ff 76 fc	 push	 DWORD PTR [esi-4]
  0003b	8d 7e fc	 lea	 edi, DWORD PTR [esi-4]
  0003e	6a 08		 push	 8
  00040	56		 push	 esi
  00041	e8 00 00 00 00	 call	 ??_M@YGXPAXIIP6EX0@Z@Z
  00046	85 db		 test	 ebx, ebx
  00048	74 13		 je	 SHORT $LN3@vector
  0004a	8b 0f		 mov	 ecx, DWORD PTR [edi]
  0004c	8d 0c cd 04 00
	00 00		 lea	 ecx, DWORD PTR [ecx*8+4]
  00053	51		 push	 ecx
  00054	57		 push	 edi
  00055	e8 00 00 00 00	 call	 ??_V@YAXPAXI@Z		; operator delete[]
  0005a	83 c4 08	 add	 esp, 8
$LN3@vector:
  0005d	8b c7		 mov	 eax, edi
  0005f	8b 4d f4	 mov	 ecx, DWORD PTR __$EHRec$[ebp]
  00062	64 89 0d 00 00
	00 00		 mov	 DWORD PTR fs:0, ecx
  00069	59		 pop	 ecx
  0006a	5f		 pop	 edi
  0006b	5e		 pop	 esi
  0006c	5b		 pop	 ebx
  0006d	8b e5		 mov	 esp, ebp
  0006f	5d		 pop	 ebp
  00070	c2 04 00	 ret	 4
$LN2@vector:
  00073	e8 00 00 00 00	 call	 ??1CIndicatorInfo@@UAE@XZ ; CIndicatorInfo::~CIndicatorInfo
  00078	85 db		 test	 ebx, ebx
  0007a	74 0b		 je	 SHORT $LN4@vector
  0007c	6a 08		 push	 8
  0007e	56		 push	 esi
  0007f	e8 00 00 00 00	 call	 ??3@YAXPAXI@Z		; operator delete
  00084	83 c4 08	 add	 esp, 8
$LN4@vector:
  00087	8b c6		 mov	 eax, esi
  00089	8b 4d f4	 mov	 ecx, DWORD PTR __$EHRec$[ebp]
  0008c	64 89 0d 00 00
	00 00		 mov	 DWORD PTR fs:0, ecx
  00093	59		 pop	 ecx
  00094	5f		 pop	 edi
  00095	5e		 pop	 esi
  00096	5b		 pop	 ebx
  00097	8b e5		 mov	 esp, ebp
  00099	5d		 pop	 ebp
  0009a	c2 04 00	 ret	 4
  0009d	cc		 int	 3
  0009e	cc		 int	 3
  0009f	cc		 int	 3
  000a0	cc		 int	 3
  000a1	cc		 int	 3
_TEXT	ENDS
;	COMDAT text$x
text$x	SEGMENT
__ehhandler$??_ECIndicatorInfo@@UAEPAXI@Z:
  00000	90		 npad	 1
  00001	90		 npad	 1
  00002	8b 54 24 08	 mov	 edx, DWORD PTR [esp+8]
  00006	8d 42 0c	 lea	 eax, DWORD PTR [edx+12]
  00009	8b 4a f0	 mov	 ecx, DWORD PTR [edx-16]
  0000c	33 c8		 xor	 ecx, eax
  0000e	e8 00 00 00 00	 call	 @__security_check_cookie@4
  00013	b8 00 00 00 00	 mov	 eax, OFFSET __ehfuncinfo$??_ECIndicatorInfo@@UAEPAXI@Z
  00018	e9 00 00 00 00	 jmp	 ___CxxFrameHandler3
text$x	ENDS
??_ECIndicatorInfo@@UAEPAXI@Z ENDP			; CIndicatorInfo::`vector deleting destructor'
; Function compile flags: /Ogtp
;	COMDAT ??_GCIndicatorInfo@@UAEPAXI@Z
_TEXT	SEGMENT
___flags$ = 8						; size = 4
??_GCIndicatorInfo@@UAEPAXI@Z PROC			; CIndicatorInfo::`scalar deleting destructor', COMDAT
; _this$ = ecx
  00000	55		 push	 ebp
  00001	8b ec		 mov	 ebp, esp
  00003	56		 push	 esi
  00004	8b f1		 mov	 esi, ecx
  00006	e8 00 00 00 00	 call	 ??1CIndicatorInfo@@UAE@XZ ; CIndicatorInfo::~CIndicatorInfo
  0000b	f6 45 08 01	 test	 BYTE PTR ___flags$[ebp], 1
  0000f	74 0b		 je	 SHORT $LN4@scalar
  00011	6a 08		 push	 8
  00013	56		 push	 esi
  00014	e8 00 00 00 00	 call	 ??3@YAXPAXI@Z		; operator delete
  00019	83 c4 08	 add	 esp, 8
$LN4@scalar:
  0001c	8b c6		 mov	 eax, esi
  0001e	5e		 pop	 esi
  0001f	5d		 pop	 ebp
  00020	c2 04 00	 ret	 4
??_GCIndicatorInfo@@UAEPAXI@Z ENDP			; CIndicatorInfo::`scalar deleting destructor'
_TEXT	ENDS
; Function compile flags: /Ogtp
;	COMDAT ??4CIndicatorInfo@@QAEAAV0@ABV0@@Z
_TEXT	SEGMENT
___that$ = 8						; size = 4
??4CIndicatorInfo@@QAEAAV0@ABV0@@Z PROC			; CIndicatorInfo::operator=, COMDAT
; _this$ = ecx
  00000	55		 push	 ebp
  00001	8b ec		 mov	 ebp, esp
  00003	8b 45 08	 mov	 eax, DWORD PTR ___that$[ebp]
  00006	8b 40 04	 mov	 eax, DWORD PTR [eax+4]
  00009	89 41 04	 mov	 DWORD PTR [ecx+4], eax
  0000c	8b c1		 mov	 eax, ecx
  0000e	5d		 pop	 ebp
  0000f	c2 04 00	 ret	 4
??4CIndicatorInfo@@QAEAAV0@ABV0@@Z ENDP			; CIndicatorInfo::operator=
_TEXT	ENDS
; Function compile flags: /Ogtp
;	COMDAT ??0CIndicatorInfo@@QAE@ABV0@@Z
_TEXT	SEGMENT
___that$ = 8						; size = 4
??0CIndicatorInfo@@QAE@ABV0@@Z PROC			; CIndicatorInfo::CIndicatorInfo, COMDAT
; _this$ = ecx
  00000	55		 push	 ebp
  00001	8b ec		 mov	 ebp, esp
  00003	8b 45 08	 mov	 eax, DWORD PTR ___that$[ebp]
  00006	c7 01 00 00 00
	00		 mov	 DWORD PTR [ecx], OFFSET ??_7CIndicatorInfo@@6B@
  0000c	8b 40 04	 mov	 eax, DWORD PTR [eax+4]
  0000f	89 41 04	 mov	 DWORD PTR [ecx+4], eax
  00012	8b c1		 mov	 eax, ecx
  00014	5d		 pop	 ebp
  00015	c2 04 00	 ret	 4
??0CIndicatorInfo@@QAE@ABV0@@Z ENDP			; CIndicatorInfo::CIndicatorInfo
_TEXT	ENDS
; Function compile flags: /Ogtp
;	COMDAT ??_ECIndicatorList@@UAEPAXI@Z
_TEXT	SEGMENT
__$EHRec$ = -12						; size = 12
___flags$ = 8						; size = 4
??_ECIndicatorList@@UAEPAXI@Z PROC			; CIndicatorList::`vector deleting destructor', COMDAT
; _this$ = ecx
  00000	55		 push	 ebp
  00001	8b ec		 mov	 ebp, esp
  00003	6a ff		 push	 -1
  00005	68 00 00 00 00	 push	 __ehhandler$??_ECIndicatorList@@UAEPAXI@Z
  0000a	64 a1 00 00 00
	00		 mov	 eax, DWORD PTR fs:0
  00010	50		 push	 eax
  00011	53		 push	 ebx
  00012	56		 push	 esi
  00013	57		 push	 edi
  00014	a1 00 00 00 00	 mov	 eax, DWORD PTR ___security_cookie
  00019	33 c5		 xor	 eax, ebp
  0001b	50		 push	 eax
  0001c	8d 45 f4	 lea	 eax, DWORD PTR __$EHRec$[ebp]
  0001f	64 a3 00 00 00
	00		 mov	 DWORD PTR fs:0, eax
  00025	8b f1		 mov	 esi, ecx
  00027	8b 45 08	 mov	 eax, DWORD PTR ___flags$[ebp]
  0002a	8b d8		 mov	 ebx, eax
  0002c	83 e3 01	 and	 ebx, 1
  0002f	a8 02		 test	 al, 2
  00031	74 40		 je	 SHORT $LN2@vector
  00033	68 00 00 00 00	 push	 OFFSET ??1CIndicatorList@@UAE@XZ ; CIndicatorList::~CIndicatorList
  00038	ff 76 fc	 push	 DWORD PTR [esi-4]
  0003b	8d 7e fc	 lea	 edi, DWORD PTR [esi-4]
  0003e	6a 08		 push	 8
  00040	56		 push	 esi
  00041	e8 00 00 00 00	 call	 ??_M@YGXPAXIIP6EX0@Z@Z
  00046	85 db		 test	 ebx, ebx
  00048	74 13		 je	 SHORT $LN3@vector
  0004a	8b 0f		 mov	 ecx, DWORD PTR [edi]
  0004c	8d 0c cd 04 00
	00 00		 lea	 ecx, DWORD PTR [ecx*8+4]
  00053	51		 push	 ecx
  00054	57		 push	 edi
  00055	e8 00 00 00 00	 call	 ??_V@YAXPAXI@Z		; operator delete[]
  0005a	83 c4 08	 add	 esp, 8
$LN3@vector:
  0005d	8b c7		 mov	 eax, edi
  0005f	8b 4d f4	 mov	 ecx, DWORD PTR __$EHRec$[ebp]
  00062	64 89 0d 00 00
	00 00		 mov	 DWORD PTR fs:0, ecx
  00069	59		 pop	 ecx
  0006a	5f		 pop	 edi
  0006b	5e		 pop	 esi
  0006c	5b		 pop	 ebx
  0006d	8b e5		 mov	 esp, ebp
  0006f	5d		 pop	 ebp
  00070	c2 04 00	 ret	 4
$LN2@vector:
  00073	e8 00 00 00 00	 call	 ??1CIndicatorList@@UAE@XZ ; CIndicatorList::~CIndicatorList
  00078	85 db		 test	 ebx, ebx
  0007a	74 0b		 je	 SHORT $LN4@vector
  0007c	6a 08		 push	 8
  0007e	56		 push	 esi
  0007f	e8 00 00 00 00	 call	 ??3@YAXPAXI@Z		; operator delete
  00084	83 c4 08	 add	 esp, 8
$LN4@vector:
  00087	8b c6		 mov	 eax, esi
  00089	8b 4d f4	 mov	 ecx, DWORD PTR __$EHRec$[ebp]
  0008c	64 89 0d 00 00
	00 00		 mov	 DWORD PTR fs:0, ecx
  00093	59		 pop	 ecx
  00094	5f		 pop	 edi
  00095	5e		 pop	 esi
  00096	5b		 pop	 ebx
  00097	8b e5		 mov	 esp, ebp
  00099	5d		 pop	 ebp
  0009a	c2 04 00	 ret	 4
  0009d	cc		 int	 3
  0009e	cc		 int	 3
  0009f	cc		 int	 3
  000a0	cc		 int	 3
  000a1	cc		 int	 3
_TEXT	ENDS
;	COMDAT text$x
text$x	SEGMENT
__ehhandler$??_ECIndicatorList@@UAEPAXI@Z:
  00000	90		 npad	 1
  00001	90		 npad	 1
  00002	8b 54 24 08	 mov	 edx, DWORD PTR [esp+8]
  00006	8d 42 0c	 lea	 eax, DWORD PTR [edx+12]
  00009	8b 4a f0	 mov	 ecx, DWORD PTR [edx-16]
  0000c	33 c8		 xor	 ecx, eax
  0000e	e8 00 00 00 00	 call	 @__security_check_cookie@4
  00013	b8 00 00 00 00	 mov	 eax, OFFSET __ehfuncinfo$??_ECIndicatorList@@UAEPAXI@Z
  00018	e9 00 00 00 00	 jmp	 ___CxxFrameHandler3
text$x	ENDS
??_ECIndicatorList@@UAEPAXI@Z ENDP			; CIndicatorList::`vector deleting destructor'
; Function compile flags: /Ogtp
;	COMDAT ??_GCIndicatorList@@UAEPAXI@Z
_TEXT	SEGMENT
___flags$ = 8						; size = 4
??_GCIndicatorList@@UAEPAXI@Z PROC			; CIndicatorList::`scalar deleting destructor', COMDAT
; _this$ = ecx
  00000	55		 push	 ebp
  00001	8b ec		 mov	 ebp, esp
  00003	56		 push	 esi
  00004	8b f1		 mov	 esi, ecx
  00006	e8 00 00 00 00	 call	 ??1CIndicatorList@@UAE@XZ ; CIndicatorList::~CIndicatorList
  0000b	f6 45 08 01	 test	 BYTE PTR ___flags$[ebp], 1
  0000f	74 0b		 je	 SHORT $LN4@scalar
  00011	6a 08		 push	 8
  00013	56		 push	 esi
  00014	e8 00 00 00 00	 call	 ??3@YAXPAXI@Z		; operator delete
  00019	83 c4 08	 add	 esp, 8
$LN4@scalar:
  0001c	8b c6		 mov	 eax, esi
  0001e	5e		 pop	 esi
  0001f	5d		 pop	 ebp
  00020	c2 04 00	 ret	 4
??_GCIndicatorList@@UAEPAXI@Z ENDP			; CIndicatorList::`scalar deleting destructor'
_TEXT	ENDS
; Function compile flags: /Ogtp
;	COMDAT ??4CIndicatorList@@QAEAAV0@ABV0@@Z
_TEXT	SEGMENT
___that$ = 8						; size = 4
??4CIndicatorList@@QAEAAV0@ABV0@@Z PROC			; CIndicatorList::operator=, COMDAT
; _this$ = ecx
  00000	55		 push	 ebp
  00001	8b ec		 mov	 ebp, esp
  00003	8b 45 08	 mov	 eax, DWORD PTR ___that$[ebp]
  00006	8b 40 04	 mov	 eax, DWORD PTR [eax+4]
  00009	89 41 04	 mov	 DWORD PTR [ecx+4], eax
  0000c	8b c1		 mov	 eax, ecx
  0000e	5d		 pop	 ebp
  0000f	c2 04 00	 ret	 4
??4CIndicatorList@@QAEAAV0@ABV0@@Z ENDP			; CIndicatorList::operator=
_TEXT	ENDS
; Function compile flags: /Ogtp
;	COMDAT ??0CIndicatorList@@QAE@ABV0@@Z
_TEXT	SEGMENT
___that$ = 8						; size = 4
??0CIndicatorList@@QAE@ABV0@@Z PROC			; CIndicatorList::CIndicatorList, COMDAT
; _this$ = ecx
  00000	55		 push	 ebp
  00001	8b ec		 mov	 ebp, esp
  00003	8b 45 08	 mov	 eax, DWORD PTR ___that$[ebp]
  00006	c7 01 00 00 00
	00		 mov	 DWORD PTR [ecx], OFFSET ??_7CIndicatorList@@6B@
  0000c	8b 40 04	 mov	 eax, DWORD PTR [eax+4]
  0000f	89 41 04	 mov	 DWORD PTR [ecx+4], eax
  00012	8b c1		 mov	 eax, ecx
  00014	5d		 pop	 ebp
  00015	c2 04 00	 ret	 4
??0CIndicatorList@@QAE@ABV0@@Z ENDP			; CIndicatorList::CIndicatorList
_TEXT	ENDS
; Function compile flags: /Ogtp
; File D:\git\src\IBK\IBK_DRFN\ProjSrc\SrcChartEx\ChartOCX\Include_Chart\BaseData.cpp
;	COMDAT ?IsTextDrawing@CTextInRightScaleRegionDrawer@@QBE_NXZ
_TEXT	SEGMENT
?IsTextDrawing@CTextInRightScaleRegionDrawer@@QBE_NXZ PROC ; CTextInRightScaleRegionDrawer::IsTextDrawing, COMDAT
; _this$ = ecx

; 881  : 	if(m_pSubGraphPacketList == NULL)

  00000	83 79 04 00	 cmp	 DWORD PTR [ecx+4], 0
  00004	75 03		 jne	 SHORT $LN2@IsTextDraw

; 882  : 		return false;

  00006	32 c0		 xor	 al, al

; 885  : }

  00008	c3		 ret	 0
$LN2@IsTextDraw:

; 883  : 
; 884  : 	return (m_nCurDataType > 0);

  00009	83 79 18 00	 cmp	 DWORD PTR [ecx+24], 0
  0000d	0f 9f c0	 setg	 al

; 885  : }

  00010	c3		 ret	 0
?IsTextDrawing@CTextInRightScaleRegionDrawer@@QBE_NXZ ENDP ; CTextInRightScaleRegionDrawer::IsTextDrawing
_TEXT	ENDS
; Function compile flags: /Ogtp
; File D:\git\src\IBK\IBK_DRFN\ProjSrc\SrcChartEx\ChartOCX\Include_Chart\BaseData.cpp
;	COMDAT ?GetDataEnd@CTextInRightScaleRegionDrawer@@QBEHXZ
_TEXT	SEGMENT
?GetDataEnd@CTextInRightScaleRegionDrawer@@QBEHXZ PROC	; CTextInRightScaleRegionDrawer::GetDataEnd, COMDAT
; _this$ = ecx

; 876  : 	return m_nDataEnd;

  00000	8b 41 1c	 mov	 eax, DWORD PTR [ecx+28]

; 877  : }

  00003	c3		 ret	 0
?GetDataEnd@CTextInRightScaleRegionDrawer@@QBEHXZ ENDP	; CTextInRightScaleRegionDrawer::GetDataEnd
_TEXT	ENDS
; Function compile flags: /Ogtp
; File D:\git\src\IBK\IBK_DRFN\ProjSrc\SrcChartEx\ChartOCX\Include_Chart\BaseData.cpp
;	COMDAT ?GetCurDataType@CTextInRightScaleRegionDrawer@@QBEHXZ
_TEXT	SEGMENT
?GetCurDataType@CTextInRightScaleRegionDrawer@@QBEHXZ PROC ; CTextInRightScaleRegionDrawer::GetCurDataType, COMDAT
; _this$ = ecx

; 871  : 	return m_nCurDataType;

  00000	8b 41 18	 mov	 eax, DWORD PTR [ecx+24]

; 872  : }

  00003	c3		 ret	 0
?GetCurDataType@CTextInRightScaleRegionDrawer@@QBEHXZ ENDP ; CTextInRightScaleRegionDrawer::GetCurDataType
_TEXT	ENDS
; Function compile flags: /Ogtp
; File D:\git\src\IBK\IBK_DRFN\ProjSrc\SrcChartEx\ChartOCX\Include_Chart\BaseData.cpp
;	COMDAT ?GetRegion@CTextInRightScaleRegionDrawer@@QBE?AVCRect@@XZ
_TEXT	SEGMENT
___$ReturnUdt$ = 8					; size = 4
?GetRegion@CTextInRightScaleRegionDrawer@@QBE?AVCRect@@XZ PROC ; CTextInRightScaleRegionDrawer::GetRegion, COMDAT
; _this$ = ecx

; 865  : {

  00000	55		 push	 ebp
  00001	8b ec		 mov	 ebp, esp

; 866  : 	return m_region;

  00003	8b 45 08	 mov	 eax, DWORD PTR ___$ReturnUdt$[ebp]
  00006	0f 10 41 08	 movups	 xmm0, XMMWORD PTR [ecx+8]
  0000a	0f 11 00	 movups	 XMMWORD PTR [eax], xmm0

; 867  : }

  0000d	5d		 pop	 ebp
  0000e	c2 04 00	 ret	 4
?GetRegion@CTextInRightScaleRegionDrawer@@QBE?AVCRect@@XZ ENDP ; CTextInRightScaleRegionDrawer::GetRegion
_TEXT	ENDS
; Function compile flags: /Ogtp
; File D:\git\src\IBK\IBK_DRFN\ProjSrc\SrcChartEx\ChartOCX\Include_Chart\BaseData.cpp
;	COMDAT ?GetSubGraphPacketList@CTextInRightScaleRegionDrawer@@QBEPAVCSubGraphPacketList@@XZ
_TEXT	SEGMENT
?GetSubGraphPacketList@CTextInRightScaleRegionDrawer@@QBEPAVCSubGraphPacketList@@XZ PROC ; CTextInRightScaleRegionDrawer::GetSubGraphPacketList, COMDAT
; _this$ = ecx

; 861  : 	return m_pSubGraphPacketList;

  00000	8b 41 04	 mov	 eax, DWORD PTR [ecx+4]

; 862  : }

  00003	c3		 ret	 0
?GetSubGraphPacketList@CTextInRightScaleRegionDrawer@@QBEPAVCSubGraphPacketList@@XZ ENDP ; CTextInRightScaleRegionDrawer::GetSubGraphPacketList
_TEXT	ENDS
; Function compile flags: /Ogtp
; File D:\git\src\IBK\IBK_DRFN\ProjSrc\SrcChartEx\ChartOCX\Include_Chart\BaseData.cpp
;	COMDAT ?GetGraphName@CTextInRightScaleRegionDrawer@@QBE?AV?$CStringT@DV?$StrTraitMFC_DLL@DV?$ChTraitsCRT@D@ATL@@@@@ATL@@XZ
_TEXT	SEGMENT
___$ReturnUdt$ = 8					; size = 4
?GetGraphName@CTextInRightScaleRegionDrawer@@QBE?AV?$CStringT@DV?$StrTraitMFC_DLL@DV?$ChTraitsCRT@D@ATL@@@@@ATL@@XZ PROC ; CTextInRightScaleRegionDrawer::GetGraphName, COMDAT
; _this$ = ecx

; 855  : {

  00000	55		 push	 ebp
  00001	8b ec		 mov	 ebp, esp

; 856  : 	return m_strGraphName;

  00003	51		 push	 ecx
  00004	8b 4d 08	 mov	 ecx, DWORD PTR ___$ReturnUdt$[ebp]
  00007	ff 15 00 00 00
	00		 call	 DWORD PTR __imp_??0?$CStringT@DV?$StrTraitMFC_DLL@DV?$ChTraitsCRT@D@ATL@@@@@ATL@@QAE@ABV01@@Z
  0000d	8b 45 08	 mov	 eax, DWORD PTR ___$ReturnUdt$[ebp]

; 857  : }

  00010	5d		 pop	 ebp
  00011	c2 04 00	 ret	 4
?GetGraphName@CTextInRightScaleRegionDrawer@@QBE?AV?$CStringT@DV?$StrTraitMFC_DLL@DV?$ChTraitsCRT@D@ATL@@@@@ATL@@XZ ENDP ; CTextInRightScaleRegionDrawer::GetGraphName
_TEXT	ENDS
; Function compile flags: /Ogtp
; File D:\git\src\IBK\IBK_DRFN\ProjSrc\SrcChartEx\ChartOCX\Include_Chart\BaseData.cpp
;	COMDAT ?SetDataEnd@CTextInRightScaleRegionDrawer@@QAEXH@Z
_TEXT	SEGMENT
_nDataEnd$ = 8						; size = 4
?SetDataEnd@CTextInRightScaleRegionDrawer@@QAEXH@Z PROC	; CTextInRightScaleRegionDrawer::SetDataEnd, COMDAT
; _this$ = ecx

; 850  : {

  00000	55		 push	 ebp
  00001	8b ec		 mov	 ebp, esp

; 851  : 	m_nDataEnd = nDataEnd;

  00003	8b 45 08	 mov	 eax, DWORD PTR _nDataEnd$[ebp]
  00006	89 41 1c	 mov	 DWORD PTR [ecx+28], eax

; 852  : }

  00009	5d		 pop	 ebp
  0000a	c2 04 00	 ret	 4
?SetDataEnd@CTextInRightScaleRegionDrawer@@QAEXH@Z ENDP	; CTextInRightScaleRegionDrawer::SetDataEnd
_TEXT	ENDS
; Function compile flags: /Ogtp
; File D:\git\src\IBK\IBK_DRFN\ProjSrc\SrcChartEx\ChartOCX\Include_Chart\BaseData.cpp
;	COMDAT ?SetCurDataType@CTextInRightScaleRegionDrawer@@QAEXH@Z
_TEXT	SEGMENT
_nCurDataType$ = 8					; size = 4
?SetCurDataType@CTextInRightScaleRegionDrawer@@QAEXH@Z PROC ; CTextInRightScaleRegionDrawer::SetCurDataType, COMDAT
; _this$ = ecx

; 845  : {

  00000	55		 push	 ebp
  00001	8b ec		 mov	 ebp, esp

; 846  : 	m_nCurDataType = nCurDataType;

  00003	8b 45 08	 mov	 eax, DWORD PTR _nCurDataType$[ebp]
  00006	89 41 18	 mov	 DWORD PTR [ecx+24], eax

; 847  : }

  00009	5d		 pop	 ebp
  0000a	c2 04 00	 ret	 4
?SetCurDataType@CTextInRightScaleRegionDrawer@@QAEXH@Z ENDP ; CTextInRightScaleRegionDrawer::SetCurDataType
_TEXT	ENDS
; Function compile flags: /Ogtp
; File D:\git\src\IBK\IBK_DRFN\ProjSrc\SrcChartEx\ChartOCX\Include_Chart\BaseData.cpp
;	COMDAT ?SetRegion@CTextInRightScaleRegionDrawer@@QAEXABVCRect@@@Z
_TEXT	SEGMENT
_region$ = 8						; size = 4
?SetRegion@CTextInRightScaleRegionDrawer@@QAEXABVCRect@@@Z PROC ; CTextInRightScaleRegionDrawer::SetRegion, COMDAT
; _this$ = ecx

; 840  : {

  00000	55		 push	 ebp
  00001	8b ec		 mov	 ebp, esp

; 841  : 	m_region = region;

  00003	8b 45 08	 mov	 eax, DWORD PTR _region$[ebp]
  00006	0f 10 00	 movups	 xmm0, XMMWORD PTR [eax]
  00009	0f 11 41 08	 movups	 XMMWORD PTR [ecx+8], xmm0

; 842  : }

  0000d	5d		 pop	 ebp
  0000e	c2 04 00	 ret	 4
?SetRegion@CTextInRightScaleRegionDrawer@@QAEXABVCRect@@@Z ENDP ; CTextInRightScaleRegionDrawer::SetRegion
_TEXT	ENDS
; Function compile flags: /Ogtp
; File D:\git\src\IBK\IBK_DRFN\ProjSrc\SrcChartEx\ChartOCX\Include_Chart\BaseData.cpp
;	COMDAT ?SetSubGraphPacketList@CTextInRightScaleRegionDrawer@@QAEXPAVCSubGraphPacketList@@@Z
_TEXT	SEGMENT
_pSubGraphPacketList$ = 8				; size = 4
?SetSubGraphPacketList@CTextInRightScaleRegionDrawer@@QAEXPAVCSubGraphPacketList@@@Z PROC ; CTextInRightScaleRegionDrawer::SetSubGraphPacketList, COMDAT
; _this$ = ecx

; 835  : {

  00000	55		 push	 ebp
  00001	8b ec		 mov	 ebp, esp

; 836  : 	m_pSubGraphPacketList = pSubGraphPacketList;

  00003	8b 45 08	 mov	 eax, DWORD PTR _pSubGraphPacketList$[ebp]
  00006	89 41 04	 mov	 DWORD PTR [ecx+4], eax

; 837  : }

  00009	5d		 pop	 ebp
  0000a	c2 04 00	 ret	 4
?SetSubGraphPacketList@CTextInRightScaleRegionDrawer@@QAEXPAVCSubGraphPacketList@@@Z ENDP ; CTextInRightScaleRegionDrawer::SetSubGraphPacketList
_TEXT	ENDS
; Function compile flags: /Ogtp
; File D:\git\src\IBK\IBK_DRFN\ProjSrc\SrcChartEx\ChartOCX\Include_Chart\BaseData.cpp
;	COMDAT ?SetGraphName@CTextInRightScaleRegionDrawer@@QAEXABV?$CStringT@DV?$StrTraitMFC_DLL@DV?$ChTraitsCRT@D@ATL@@@@@ATL@@@Z
_TEXT	SEGMENT
_strGraphName$ = 8					; size = 4
?SetGraphName@CTextInRightScaleRegionDrawer@@QAEXABV?$CStringT@DV?$StrTraitMFC_DLL@DV?$ChTraitsCRT@D@ATL@@@@@ATL@@@Z PROC ; CTextInRightScaleRegionDrawer::SetGraphName, COMDAT
; _this$ = ecx

; 830  : {

  00000	55		 push	 ebp
  00001	8b ec		 mov	 ebp, esp

; 832  : }

  00003	5d		 pop	 ebp

; 831  : 	m_strGraphName = strGraphName;

  00004	ff 25 00 00 00
	00		 jmp	 DWORD PTR __imp_??4?$CStringT@DV?$StrTraitMFC_DLL@DV?$ChTraitsCRT@D@ATL@@@@@ATL@@QAEAAV01@ABV01@@Z
?SetGraphName@CTextInRightScaleRegionDrawer@@QAEXABV?$CStringT@DV?$StrTraitMFC_DLL@DV?$ChTraitsCRT@D@ATL@@@@@ATL@@@Z ENDP ; CTextInRightScaleRegionDrawer::SetGraphName
_TEXT	ENDS
; Function compile flags: /Ogtp
; File D:\git\src\IBK\IBK_DRFN\ProjSrc\SrcChartEx\ChartOCX\Include_Chart\BaseData.cpp
;	COMDAT ??0CTextInRightScaleRegionDrawer@@QAE@ABV?$CStringT@DV?$StrTraitMFC_DLL@DV?$ChTraitsCRT@D@ATL@@@@@ATL@@PAVCSubGraphPacketList@@ABVCRect@@HH@Z
_TEXT	SEGMENT
_this$ = -4						; size = 4
_strGraphName$ = 8					; size = 4
_pSubGraphPacketList$ = 12				; size = 4
_region$ = 16						; size = 4
_nCurDataType$ = 20					; size = 4
_nDataEnd$ = 24						; size = 4
??0CTextInRightScaleRegionDrawer@@QAE@ABV?$CStringT@DV?$StrTraitMFC_DLL@DV?$ChTraitsCRT@D@ATL@@@@@ATL@@PAVCSubGraphPacketList@@ABVCRect@@HH@Z PROC ; CTextInRightScaleRegionDrawer::CTextInRightScaleRegionDrawer, COMDAT
; _this$ = ecx

; 826  : {

  00000	55		 push	 ebp
  00001	8b ec		 mov	 ebp, esp
  00003	51		 push	 ecx
  00004	56		 push	 esi
  00005	ff 75 08	 push	 DWORD PTR _strGraphName$[ebp]
  00008	8b f1		 mov	 esi, ecx
  0000a	89 75 fc	 mov	 DWORD PTR _this$[ebp], esi
  0000d	ff 15 00 00 00
	00		 call	 DWORD PTR __imp_??0?$CStringT@DV?$StrTraitMFC_DLL@DV?$ChTraitsCRT@D@ATL@@@@@ATL@@QAE@ABV01@@Z

; 822  : 	m_pSubGraphPacketList(pSubGraphPacketList), 

  00013	8b 45 0c	 mov	 eax, DWORD PTR _pSubGraphPacketList$[ebp]
  00016	89 46 04	 mov	 DWORD PTR [esi+4], eax

; 823  : 	m_region(region), 

  00019	8b 45 10	 mov	 eax, DWORD PTR _region$[ebp]
  0001c	0f 10 00	 movups	 xmm0, XMMWORD PTR [eax]

; 824  : 	m_nCurDataType(nCurDataType), 

  0001f	8b 45 14	 mov	 eax, DWORD PTR _nCurDataType$[ebp]
  00022	89 46 18	 mov	 DWORD PTR [esi+24], eax

; 825  : 	m_nDataEnd(nDataEnd)

  00025	8b 45 18	 mov	 eax, DWORD PTR _nDataEnd$[ebp]
  00028	89 46 1c	 mov	 DWORD PTR [esi+28], eax

; 827  : }

  0002b	8b c6		 mov	 eax, esi
  0002d	0f 11 46 08	 movups	 XMMWORD PTR [esi+8], xmm0
  00031	5e		 pop	 esi
  00032	8b e5		 mov	 esp, ebp
  00034	5d		 pop	 ebp
  00035	c2 14 00	 ret	 20			; 00000014H
??0CTextInRightScaleRegionDrawer@@QAE@ABV?$CStringT@DV?$StrTraitMFC_DLL@DV?$ChTraitsCRT@D@ATL@@@@@ATL@@PAVCSubGraphPacketList@@ABVCRect@@HH@Z ENDP ; CTextInRightScaleRegionDrawer::CTextInRightScaleRegionDrawer
_TEXT	ENDS
; Function compile flags: /Ogtp
; File D:\git\src\IBK\IBK_DRFN\ProjSrc\SrcChartEx\ChartOCX\Include_Chart\BaseData.cpp
;	COMDAT ?SetVertScaleInvertType@CDrawingVertScaleData@@QAEX_N@Z
_TEXT	SEGMENT
_bIsVertScaleInvertType$ = 8				; size = 1
?SetVertScaleInvertType@CDrawingVertScaleData@@QAEX_N@Z PROC ; CDrawingVertScaleData::SetVertScaleInvertType, COMDAT
; _this$ = ecx

; 684  : {

  00000	55		 push	 ebp
  00001	8b ec		 mov	 ebp, esp

; 685  : 	m_bIsVertScaleInvertType = bIsVertScaleInvertType;

  00003	8a 45 08	 mov	 al, BYTE PTR _bIsVertScaleInvertType$[ebp]
  00006	88 41 20	 mov	 BYTE PTR [ecx+32], al

; 686  : }

  00009	5d		 pop	 ebp
  0000a	c2 04 00	 ret	 4
?SetVertScaleInvertType@CDrawingVertScaleData@@QAEX_N@Z ENDP ; CDrawingVertScaleData::SetVertScaleInvertType
_TEXT	ENDS
; Function compile flags: /Ogtp
; File D:\git\src\IBK\IBK_DRFN\ProjSrc\SrcChartEx\ChartOCX\Include_Chart\BaseData.cpp
;	COMDAT ?SetPacket@CDrawingVertScaleData@@QAEXPAVCPacket@@@Z
_TEXT	SEGMENT
_pPacket$ = 8						; size = 4
?SetPacket@CDrawingVertScaleData@@QAEXPAVCPacket@@@Z PROC ; CDrawingVertScaleData::SetPacket, COMDAT
; _this$ = ecx

; 812  : {

  00000	55		 push	 ebp
  00001	8b ec		 mov	 ebp, esp

; 813  : 	m_pPacket = pPacket;

  00003	8b 45 08	 mov	 eax, DWORD PTR _pPacket$[ebp]
  00006	89 41 6c	 mov	 DWORD PTR [ecx+108], eax

; 814  : }

  00009	5d		 pop	 ebp
  0000a	c2 04 00	 ret	 4
?SetPacket@CDrawingVertScaleData@@QAEXPAVCPacket@@@Z ENDP ; CDrawingVertScaleData::SetPacket
_TEXT	ENDS
; Function compile flags: /Ogtp
; File D:\git\src\IBK\IBK_DRFN\ProjSrc\SrcChartEx\ChartOCX\Include_Chart\BaseData.cpp
;	COMDAT ?SetIndicatorInfo@CDrawingVertScaleData@@QAEXPAVCIndicatorInfo@@@Z
_TEXT	SEGMENT
_pIndicatorInfo$ = 8					; size = 4
?SetIndicatorInfo@CDrawingVertScaleData@@QAEXPAVCIndicatorInfo@@@Z PROC ; CDrawingVertScaleData::SetIndicatorInfo, COMDAT
; _this$ = ecx

; 807  : {

  00000	55		 push	 ebp
  00001	8b ec		 mov	 ebp, esp

; 808  : 	m_pIndicatorInfo = pIndicatorInfo;

  00003	8b 45 08	 mov	 eax, DWORD PTR _pIndicatorInfo$[ebp]
  00006	89 41 68	 mov	 DWORD PTR [ecx+104], eax

; 809  : }

  00009	5d		 pop	 ebp
  0000a	c2 04 00	 ret	 4
?SetIndicatorInfo@CDrawingVertScaleData@@QAEXPAVCIndicatorInfo@@@Z ENDP ; CDrawingVertScaleData::SetIndicatorInfo
_TEXT	ENDS
; Function compile flags: /Ogtp
; File D:\git\src\IBK\IBK_DRFN\ProjSrc\SrcChartEx\ChartOCX\Include_Chart\BaseData.cpp
;	COMDAT ?SetDisplayDataMinMax@CDrawingVertScaleData@@QAEXABVCDisplayDataMinMax@@@Z
_TEXT	SEGMENT
_displayDataMinMax$ = 8					; size = 4
?SetDisplayDataMinMax@CDrawingVertScaleData@@QAEXABVCDisplayDataMinMax@@@Z PROC ; CDrawingVertScaleData::SetDisplayDataMinMax, COMDAT
; _this$ = ecx

; 802  : {

  00000	55		 push	 ebp
  00001	8b ec		 mov	 ebp, esp

; 803  : 	m_displayDataMinMax = displayDataMinMax;

  00003	83 c1 58	 add	 ecx, 88			; 00000058H

; 804  : }

  00006	5d		 pop	 ebp

; 803  : 	m_displayDataMinMax = displayDataMinMax;

  00007	e9 00 00 00 00	 jmp	 ??4CDisplayDataMinMax@@QAEAAV0@ABV0@@Z ; CDisplayDataMinMax::operator=
?SetDisplayDataMinMax@CDrawingVertScaleData@@QAEXABVCDisplayDataMinMax@@@Z ENDP ; CDrawingVertScaleData::SetDisplayDataMinMax
_TEXT	ENDS
; Function compile flags: /Ogtp
; File D:\git\src\IBK\IBK_DRFN\ProjSrc\SrcChartEx\ChartOCX\Include_Chart\BaseData.cpp
;	COMDAT ?SetScaleDrawerType@CDrawingVertScaleData@@QAEXABW4VERTSCALEDRAWERTYPE@CScaleBaseData@@@Z
_TEXT	SEGMENT
_drawType$ = 8						; size = 4
?SetScaleDrawerType@CDrawingVertScaleData@@QAEXABW4VERTSCALEDRAWERTYPE@CScaleBaseData@@@Z PROC ; CDrawingVertScaleData::SetScaleDrawerType, COMDAT
; _this$ = ecx

; 797  : {

  00000	55		 push	 ebp
  00001	8b ec		 mov	 ebp, esp

; 798  : 	m_TYPEScaleDrawer = drawType;

  00003	8b 45 08	 mov	 eax, DWORD PTR _drawType$[ebp]
  00006	8b 00		 mov	 eax, DWORD PTR [eax]
  00008	89 41 30	 mov	 DWORD PTR [ecx+48], eax

; 799  : }

  0000b	5d		 pop	 ebp
  0000c	c2 04 00	 ret	 4
?SetScaleDrawerType@CDrawingVertScaleData@@QAEXABW4VERTSCALEDRAWERTYPE@CScaleBaseData@@@Z ENDP ; CDrawingVertScaleData::SetScaleDrawerType
_TEXT	ENDS
; Function compile flags: /Ogtp
; File D:\git\src\IBK\IBK_DRFN\ProjSrc\SrcChartEx\ChartOCX\Include_Chart\BaseData.cpp
;	COMDAT ?SetIndicatorName@CDrawingVertScaleData@@QAEXABV?$CStringT@DV?$StrTraitMFC_DLL@DV?$ChTraitsCRT@D@ATL@@@@@ATL@@@Z
_TEXT	SEGMENT
_IndicatorName$ = 8					; size = 4
?SetIndicatorName@CDrawingVertScaleData@@QAEXABV?$CStringT@DV?$StrTraitMFC_DLL@DV?$ChTraitsCRT@D@ATL@@@@@ATL@@@Z PROC ; CDrawingVertScaleData::SetIndicatorName, COMDAT
; _this$ = ecx

; 792  : {

  00000	55		 push	 ebp
  00001	8b ec		 mov	 ebp, esp

; 793  : 	m_strIndicatorName = IndicatorName;

  00003	83 c1 2c	 add	 ecx, 44			; 0000002cH

; 794  : }

  00006	5d		 pop	 ebp

; 793  : 	m_strIndicatorName = IndicatorName;

  00007	ff 25 00 00 00
	00		 jmp	 DWORD PTR __imp_??4?$CStringT@DV?$StrTraitMFC_DLL@DV?$ChTraitsCRT@D@ATL@@@@@ATL@@QAEAAV01@ABV01@@Z
?SetIndicatorName@CDrawingVertScaleData@@QAEXABV?$CStringT@DV?$StrTraitMFC_DLL@DV?$ChTraitsCRT@D@ATL@@@@@ATL@@@Z ENDP ; CDrawingVertScaleData::SetIndicatorName
_TEXT	ENDS
; Function compile flags: /Ogtp
; File D:\git\src\IBK\IBK_DRFN\ProjSrc\SrcChartEx\ChartOCX\Include_Chart\BaseData.cpp
;	COMDAT ?SetPacketNames@CDrawingVertScaleData@@QAEXABV?$CStringT@DV?$StrTraitMFC_DLL@DV?$ChTraitsCRT@D@ATL@@@@@ATL@@@Z
_TEXT	SEGMENT
_packetNames$ = 8					; size = 4
?SetPacketNames@CDrawingVertScaleData@@QAEXABV?$CStringT@DV?$StrTraitMFC_DLL@DV?$ChTraitsCRT@D@ATL@@@@@ATL@@@Z PROC ; CDrawingVertScaleData::SetPacketNames, COMDAT
; _this$ = ecx

; 787  : {

  00000	55		 push	 ebp
  00001	8b ec		 mov	 ebp, esp

; 788  : 	m_strPacketNames = packetNames;

  00003	83 c1 28	 add	 ecx, 40			; 00000028H

; 789  : }

  00006	5d		 pop	 ebp

; 788  : 	m_strPacketNames = packetNames;

  00007	ff 25 00 00 00
	00		 jmp	 DWORD PTR __imp_??4?$CStringT@DV?$StrTraitMFC_DLL@DV?$ChTraitsCRT@D@ATL@@@@@ATL@@QAEAAV01@ABV01@@Z
?SetPacketNames@CDrawingVertScaleData@@QAEXABV?$CStringT@DV?$StrTraitMFC_DLL@DV?$ChTraitsCRT@D@ATL@@@@@ATL@@@Z ENDP ; CDrawingVertScaleData::SetPacketNames
_TEXT	ENDS
; Function compile flags: /Ogtp
; File D:\git\src\IBK\IBK_DRFN\ProjSrc\SrcChartEx\ChartOCX\Include_Chart\BaseData.cpp
;	COMDAT ?SetSubGraphNames@CDrawingVertScaleData@@QAEXABV?$CStringT@DV?$StrTraitMFC_DLL@DV?$ChTraitsCRT@D@ATL@@@@@ATL@@@Z
_TEXT	SEGMENT
_subGraphNames$ = 8					; size = 4
?SetSubGraphNames@CDrawingVertScaleData@@QAEXABV?$CStringT@DV?$StrTraitMFC_DLL@DV?$ChTraitsCRT@D@ATL@@@@@ATL@@@Z PROC ; CDrawingVertScaleData::SetSubGraphNames, COMDAT
; _this$ = ecx

; 782  : {

  00000	55		 push	 ebp
  00001	8b ec		 mov	 ebp, esp

; 783  : 	m_strSubGraphNames = subGraphNames;

  00003	83 c1 24	 add	 ecx, 36			; 00000024H

; 784  : }

  00006	5d		 pop	 ebp

; 783  : 	m_strSubGraphNames = subGraphNames;

  00007	ff 25 00 00 00
	00		 jmp	 DWORD PTR __imp_??4?$CStringT@DV?$StrTraitMFC_DLL@DV?$ChTraitsCRT@D@ATL@@@@@ATL@@QAEAAV01@ABV01@@Z
?SetSubGraphNames@CDrawingVertScaleData@@QAEXABV?$CStringT@DV?$StrTraitMFC_DLL@DV?$ChTraitsCRT@D@ATL@@@@@ATL@@@Z ENDP ; CDrawingVertScaleData::SetSubGraphNames
_TEXT	ENDS
; Function compile flags: /Ogtp
; File D:\git\src\IBK\IBK_DRFN\ProjSrc\SrcChartEx\ChartOCX\Include_Chart\BaseData.cpp
;	COMDAT ?GetStandardValue@CDrawingVertScaleData@@QBENXZ
_TEXT	SEGMENT
?GetStandardValue@CDrawingVertScaleData@@QBENXZ PROC	; CDrawingVertScaleData::GetStandardValue, COMDAT
; _this$ = ecx

; 768  : {

  00000	55		 push	 ebp
  00001	8b ec		 mov	 ebp, esp
  00003	51		 push	 ecx
  00004	56		 push	 esi
  00005	8b f1		 mov	 esi, ecx

; 769  : 	if(!m_pPacketList)

  00007	83 7e 70 00	 cmp	 DWORD PTR [esi+112], 0
  0000b	74 2e		 je	 SHORT $LN3@GetStandar

; 770  : 		return 0.;
; 771  : 
; 772  : 	CPacket* pPacket = m_pPacketList->GetBaseData( _MTEXT( C0_CLOSE));

  0000d	a1 54 00 00 00	 mov	 eax, DWORD PTR ?g_iMetaTable@@3VIMetaTable@@A+84
  00012	6a 01		 push	 1
  00014	51		 push	 ecx
  00015	8b cc		 mov	 ecx, esp
  00017	ff 70 14	 push	 DWORD PTR [eax+20]
  0001a	ff 15 00 00 00
	00		 call	 DWORD PTR __imp_??0?$CStringT@DV?$StrTraitMFC_DLL@DV?$ChTraitsCRT@D@ATL@@@@@ATL@@QAE@PBD@Z
  00020	8b 4e 70	 mov	 ecx, DWORD PTR [esi+112]
  00023	e8 00 00 00 00	 call	 ?GetBaseData@CPacketList@@QAEPAVCPacket@@V?$CStringT@DV?$StrTraitMFC_DLL@DV?$ChTraitsCRT@D@ATL@@@@@ATL@@_N@Z ; CPacketList::GetBaseData

; 773  : 
; 774  : 	if(pPacket)

  00028	85 c0		 test	 eax, eax
  0002a	74 0f		 je	 SHORT $LN3@GetStandar

; 775  : 		return pPacket->GetStandardValue();

  0002c	6a 00		 push	 0
  0002e	8b c8		 mov	 ecx, eax
  00030	ff 15 00 00 00
	00		 call	 DWORD PTR __imp_?GetStandardValue@CPacket@@QAENH@Z

; 778  : }

  00036	5e		 pop	 esi
  00037	8b e5		 mov	 esp, ebp
  00039	5d		 pop	 ebp
  0003a	c3		 ret	 0
$LN3@GetStandar:

; 776  : 	else
; 777  : 		return 0.;

  0003b	d9 ee		 fldz

; 778  : }

  0003d	5e		 pop	 esi
  0003e	8b e5		 mov	 esp, ebp
  00040	5d		 pop	 ebp
  00041	c3		 ret	 0
?GetStandardValue@CDrawingVertScaleData@@QBENXZ ENDP	; CDrawingVertScaleData::GetStandardValue
_TEXT	ENDS
; Function compile flags: /Ogtp
; File D:\git\src\IBK\IBK_DRFN\ProjSrc\SrcChartEx\ChartOCX\Include_Chart\BaseData.cpp
;	COMDAT ?GetHogaUnit@CDrawingVertScaleData@@QBENH@Z
_TEXT	SEGMENT
$T2 = -28						; size = 8
$T3 = -28						; size = 8
_strValue$ = -20					; size = 4
_strMsgKey$ = -16					; size = 4
__$EHRec$ = -12						; size = 12
_bVolumeForSale$ = 8					; size = 4
?GetHogaUnit@CDrawingVertScaleData@@QBENH@Z PROC	; CDrawingVertScaleData::GetHogaUnit, COMDAT
; _this$ = ecx

; 750  : {

  00000	55		 push	 ebp
  00001	8b ec		 mov	 ebp, esp
  00003	6a ff		 push	 -1
  00005	68 00 00 00 00	 push	 __ehhandler$?GetHogaUnit@CDrawingVertScaleData@@QBENH@Z
  0000a	64 a1 00 00 00
	00		 mov	 eax, DWORD PTR fs:0
  00010	50		 push	 eax
  00011	83 ec 10	 sub	 esp, 16			; 00000010H
  00014	56		 push	 esi
  00015	a1 00 00 00 00	 mov	 eax, DWORD PTR ___security_cookie
  0001a	33 c5		 xor	 eax, ebp
  0001c	50		 push	 eax
  0001d	8d 45 f4	 lea	 eax, DWORD PTR __$EHRec$[ebp]
  00020	64 a3 00 00 00
	00		 mov	 DWORD PTR fs:0, eax
  00026	8b f1		 mov	 esi, ecx

; 751  : 	if(!m_pPacketList)

  00028	83 7e 70 00	 cmp	 DWORD PTR [esi+112], 0
  0002c	75 14		 jne	 SHORT $LN2@GetHogaUni

; 752  : 		return 0.;

  0002e	d9 ee		 fldz

; 764  : }

  00030	8b 4d f4	 mov	 ecx, DWORD PTR __$EHRec$[ebp]
  00033	64 89 0d 00 00
	00 00		 mov	 DWORD PTR fs:0, ecx
  0003a	59		 pop	 ecx
  0003b	5e		 pop	 esi
  0003c	8b e5		 mov	 esp, ebp
  0003e	5d		 pop	 ebp
  0003f	c2 04 00	 ret	 4
$LN2@GetHogaUni:

; 753  : 
; 754  : 	// (2008/4/28 - Seung-Won, Bae) for VolumeForSafe
; 755  : 	CString strMsgKey;

  00042	8d 4d f0	 lea	 ecx, DWORD PTR _strMsgKey$[ebp]
  00045	ff 15 00 00 00
	00		 call	 DWORD PTR __imp_??0?$CStringT@DV?$StrTraitMFC_DLL@DV?$ChTraitsCRT@D@ATL@@@@@ATL@@QAE@XZ

; 756  : 	if( bVolumeForSale)	strMsgKey = "HBPRICE";

  0004b	83 7d 08 00	 cmp	 DWORD PTR _bVolumeForSale$[ebp], 0
  0004f	8d 4d f0	 lea	 ecx, DWORD PTR _strMsgKey$[ebp]
  00052	c7 45 fc 00 00
	00 00		 mov	 DWORD PTR __$EHRec$[ebp+8], 0
  00059	74 07		 je	 SHORT $LN3@GetHogaUni
  0005b	68 00 00 00 00	 push	 OFFSET ??_C@_07OEKCJGKM@HBPRICE@
  00060	eb 05		 jmp	 SHORT $LN16@GetHogaUni
$LN3@GetHogaUni:

; 757  : 	else				strMsgKey = "HOGAUNIT";

  00062	68 00 00 00 00	 push	 OFFSET ??_C@_08ODANEJJL@HOGAUNIT@
$LN16@GetHogaUni:

; 758  : 
; 759  : 	CString strValue;

  00067	ff 15 00 00 00
	00		 call	 DWORD PTR __imp_??4?$CStringT@DV?$StrTraitMFC_DLL@DV?$ChTraitsCRT@D@ATL@@@@@ATL@@QAEAAV01@PBD@Z
  0006d	8d 4d ec	 lea	 ecx, DWORD PTR _strValue$[ebp]
  00070	ff 15 00 00 00
	00		 call	 DWORD PTR __imp_??0?$CStringT@DV?$StrTraitMFC_DLL@DV?$ChTraitsCRT@D@ATL@@@@@ATL@@QAE@XZ

; 760  : 	if(m_pPacketList->GetHelpMessageItem( strMsgKey, strValue))

  00076	8b 4e 70	 mov	 ecx, DWORD PTR [esi+112]
  00079	8d 45 ec	 lea	 eax, DWORD PTR _strValue$[ebp]
  0007c	50		 push	 eax
  0007d	ff 75 f0	 push	 DWORD PTR _strMsgKey$[ebp]
  00080	c6 45 fc 01	 mov	 BYTE PTR __$EHRec$[ebp+8], 1
  00084	e8 00 00 00 00	 call	 ?GetHelpMessageItem@CPacketList@@QAEHPBDAAV?$CStringT@DV?$StrTraitMFC_DLL@DV?$ChTraitsCRT@D@ATL@@@@@ATL@@@Z ; CPacketList::GetHelpMessageItem
  00089	85 c0		 test	 eax, eax
  0008b	74 0e		 je	 SHORT $LN5@GetHogaUni

; 761  : 		return atof(strValue);

  0008d	ff 75 ec	 push	 DWORD PTR _strValue$[ebp]
  00090	ff 15 00 00 00
	00		 call	 DWORD PTR __imp__atof
  00096	83 c4 04	 add	 esp, 4
  00099	eb 0b		 jmp	 SHORT $LN17@GetHogaUni
$LN5@GetHogaUni:
  0009b	0f 57 c0	 xorps	 xmm0, xmm0

; 762  : 	else
; 763  : 		return 0.;

  0009e	f2 0f 11 45 e4	 movsd	 QWORD PTR $T3[ebp], xmm0
  000a3	dd 45 e4	 fld	 QWORD PTR $T3[ebp]
$LN17@GetHogaUni:
  000a6	8d 4d ec	 lea	 ecx, DWORD PTR _strValue$[ebp]
  000a9	dd 5d e4	 fstp	 QWORD PTR $T2[ebp]
  000ac	ff 15 00 00 00
	00		 call	 DWORD PTR __imp_??1?$CStringT@DV?$StrTraitMFC_DLL@DV?$ChTraitsCRT@D@ATL@@@@@ATL@@QAE@XZ
  000b2	8d 4d f0	 lea	 ecx, DWORD PTR _strMsgKey$[ebp]
  000b5	ff 15 00 00 00
	00		 call	 DWORD PTR __imp_??1?$CStringT@DV?$StrTraitMFC_DLL@DV?$ChTraitsCRT@D@ATL@@@@@ATL@@QAE@XZ
  000bb	dd 45 e4	 fld	 QWORD PTR $T2[ebp]

; 764  : }

  000be	8b 4d f4	 mov	 ecx, DWORD PTR __$EHRec$[ebp]
  000c1	64 89 0d 00 00
	00 00		 mov	 DWORD PTR fs:0, ecx
  000c8	59		 pop	 ecx
  000c9	5e		 pop	 esi
  000ca	8b e5		 mov	 esp, ebp
  000cc	5d		 pop	 ebp
  000cd	c2 04 00	 ret	 4
_TEXT	ENDS
;	COMDAT text$x
text$x	SEGMENT
__unwindfunclet$?GetHogaUnit@CDrawingVertScaleData@@QBENH@Z$0:
  00000	8d 4d f0	 lea	 ecx, DWORD PTR _strMsgKey$[ebp]
  00003	ff 25 00 00 00
	00		 jmp	 DWORD PTR __imp_??1?$CStringT@DV?$StrTraitMFC_DLL@DV?$ChTraitsCRT@D@ATL@@@@@ATL@@QAE@XZ
__unwindfunclet$?GetHogaUnit@CDrawingVertScaleData@@QBENH@Z$1:
  00009	8d 4d ec	 lea	 ecx, DWORD PTR _strValue$[ebp]
  0000c	ff 25 00 00 00
	00		 jmp	 DWORD PTR __imp_??1?$CStringT@DV?$StrTraitMFC_DLL@DV?$ChTraitsCRT@D@ATL@@@@@ATL@@QAE@XZ
  00012	cc		 int	 3
  00013	cc		 int	 3
  00014	cc		 int	 3
  00015	cc		 int	 3
  00016	cc		 int	 3
__ehhandler$?GetHogaUnit@CDrawingVertScaleData@@QBENH@Z:
  00017	90		 npad	 1
  00018	90		 npad	 1
  00019	8b 54 24 08	 mov	 edx, DWORD PTR [esp+8]
  0001d	8d 42 0c	 lea	 eax, DWORD PTR [edx+12]
  00020	8b 4a e8	 mov	 ecx, DWORD PTR [edx-24]
  00023	33 c8		 xor	 ecx, eax
  00025	e8 00 00 00 00	 call	 @__security_check_cookie@4
  0002a	b8 00 00 00 00	 mov	 eax, OFFSET __ehfuncinfo$?GetHogaUnit@CDrawingVertScaleData@@QBENH@Z
  0002f	e9 00 00 00 00	 jmp	 ___CxxFrameHandler3
text$x	ENDS
?GetHogaUnit@CDrawingVertScaleData@@QBENH@Z ENDP	; CDrawingVertScaleData::GetHogaUnit
; Function compile flags: /Ogtp
; File D:\git\src\IBK\IBK_DRFN\ProjSrc\SrcChartEx\ChartOCX\Include_Chart\BaseData.cpp
;	COMDAT ?GetPacket@CDrawingVertScaleData@@QBEPAVCPacket@@XZ
_TEXT	SEGMENT
?GetPacket@CDrawingVertScaleData@@QBEPAVCPacket@@XZ PROC ; CDrawingVertScaleData::GetPacket, COMDAT
; _this$ = ecx

; 745  : 	return m_pPacket;

  00000	8b 41 6c	 mov	 eax, DWORD PTR [ecx+108]

; 746  : }

  00003	c3		 ret	 0
?GetPacket@CDrawingVertScaleData@@QBEPAVCPacket@@XZ ENDP ; CDrawingVertScaleData::GetPacket
_TEXT	ENDS
; Function compile flags: /Ogtp
; File D:\git\src\IBK\IBK_DRFN\ProjSrc\SrcChartEx\ChartOCX\Include_Chart\BaseData.cpp
;	COMDAT ?GetIndicatorInfo@CDrawingVertScaleData@@QBEPAVCIndicatorInfo@@XZ
_TEXT	SEGMENT
?GetIndicatorInfo@CDrawingVertScaleData@@QBEPAVCIndicatorInfo@@XZ PROC ; CDrawingVertScaleData::GetIndicatorInfo, COMDAT
; _this$ = ecx

; 740  : 	return m_pIndicatorInfo;

  00000	8b 41 68	 mov	 eax, DWORD PTR [ecx+104]

; 741  : }

  00003	c3		 ret	 0
?GetIndicatorInfo@CDrawingVertScaleData@@QBEPAVCIndicatorInfo@@XZ ENDP ; CDrawingVertScaleData::GetIndicatorInfo
_TEXT	ENDS
; Function compile flags: /Ogtp
; File D:\git\src\IBK\IBK_DRFN\ProjSrc\SrcChartEx\ChartOCX\Include_Chart\BaseData.cpp
;	COMDAT ?GetDisplayDataMinMax@CDrawingVertScaleData@@QBE?AVCDisplayDataMinMax@@XZ
_TEXT	SEGMENT
___$ReturnUdt$ = 8					; size = 4
?GetDisplayDataMinMax@CDrawingVertScaleData@@QBE?AVCDisplayDataMinMax@@XZ PROC ; CDrawingVertScaleData::GetDisplayDataMinMax, COMDAT
; _this$ = ecx

; 734  : {

  00000	55		 push	 ebp
  00001	8b ec		 mov	 ebp, esp

; 735  : 	return m_displayDataMinMax;

  00003	8b 45 08	 mov	 eax, DWORD PTR ___$ReturnUdt$[ebp]
  00006	0f 10 41 58	 movups	 xmm0, XMMWORD PTR [ecx+88]
  0000a	0f 11 00	 movups	 XMMWORD PTR [eax], xmm0

; 736  : }

  0000d	5d		 pop	 ebp
  0000e	c2 04 00	 ret	 4
?GetDisplayDataMinMax@CDrawingVertScaleData@@QBE?AVCDisplayDataMinMax@@XZ ENDP ; CDrawingVertScaleData::GetDisplayDataMinMax
_TEXT	ENDS
; Function compile flags: /Ogtp
; File D:\git\src\IBK\IBK_DRFN\ProjSrc\SrcChartEx\ChartOCX\Include_Chart\BaseData.cpp
;	COMDAT ?GetDisplayAttributes@CDrawingVertScaleData@@QBE?AVCDisplayAttributes@@XZ
_TEXT	SEGMENT
___$ReturnUdt$ = 8					; size = 4
?GetDisplayAttributes@CDrawingVertScaleData@@QBE?AVCDisplayAttributes@@XZ PROC ; CDrawingVertScaleData::GetDisplayAttributes, COMDAT
; _this$ = ecx

; 729  : {

  00000	55		 push	 ebp
  00001	8b ec		 mov	 ebp, esp

; 730  : 	return m_displayAttributes;

  00003	8b 45 08	 mov	 eax, DWORD PTR ___$ReturnUdt$[ebp]
  00006	8b 51 4c	 mov	 edx, DWORD PTR [ecx+76]
  00009	8b 49 50	 mov	 ecx, DWORD PTR [ecx+80]
  0000c	89 10		 mov	 DWORD PTR [eax], edx
  0000e	89 48 04	 mov	 DWORD PTR [eax+4], ecx

; 731  : }

  00011	5d		 pop	 ebp
  00012	c2 04 00	 ret	 4
?GetDisplayAttributes@CDrawingVertScaleData@@QBE?AVCDisplayAttributes@@XZ ENDP ; CDrawingVertScaleData::GetDisplayAttributes
_TEXT	ENDS
; Function compile flags: /Ogtp
; File D:\git\src\IBK\IBK_DRFN\ProjSrc\SrcChartEx\ChartOCX\Include_Chart\BaseData.cpp
;	COMDAT ?GetCompartLineColor@CDrawingVertScaleData@@QBEKXZ
_TEXT	SEGMENT
?GetCompartLineColor@CDrawingVertScaleData@@QBEKXZ PROC	; CDrawingVertScaleData::GetCompartLineColor, COMDAT
; _this$ = ecx

; 725  : 	return m_graphRegionColor.GetFrameColor();

  00000	83 c1 40	 add	 ecx, 64			; 00000040H
  00003	ff 25 00 00 00
	00		 jmp	 DWORD PTR __imp_?GetFrameColor@CGraphRegionColor@@QBEKXZ
?GetCompartLineColor@CDrawingVertScaleData@@QBEKXZ ENDP	; CDrawingVertScaleData::GetCompartLineColor
_TEXT	ENDS
; Function compile flags: /Ogtp
; File D:\git\src\IBK\IBK_DRFN\ProjSrc\SrcChartEx\ChartOCX\Include_Chart\BaseData.cpp
;	COMDAT ?GetGraphRegionColor@CDrawingVertScaleData@@QBE?AVCGraphRegionColor@@XZ
_TEXT	SEGMENT
___$ReturnUdt$ = 8					; size = 4
?GetGraphRegionColor@CDrawingVertScaleData@@QBE?AVCGraphRegionColor@@XZ PROC ; CDrawingVertScaleData::GetGraphRegionColor, COMDAT
; _this$ = ecx

; 719  : {

  00000	55		 push	 ebp
  00001	8b ec		 mov	 ebp, esp

; 720  : 	return m_graphRegionColor;

  00003	8b 45 08	 mov	 eax, DWORD PTR ___$ReturnUdt$[ebp]
  00006	f3 0f 7e 41 40	 movq	 xmm0, QWORD PTR [ecx+64]
  0000b	8b 49 48	 mov	 ecx, DWORD PTR [ecx+72]
  0000e	66 0f d6 00	 movq	 QWORD PTR [eax], xmm0
  00012	89 48 08	 mov	 DWORD PTR [eax+8], ecx

; 721  : }

  00015	5d		 pop	 ebp
  00016	c2 04 00	 ret	 4
?GetGraphRegionColor@CDrawingVertScaleData@@QBE?AVCGraphRegionColor@@XZ ENDP ; CDrawingVertScaleData::GetGraphRegionColor
_TEXT	ENDS
; Function compile flags: /Ogtp
; File D:\git\src\IBK\IBK_DRFN\ProjSrc\SrcChartEx\ChartOCX\Include_Chart\BaseData.cpp
;	COMDAT ?GetScaleColor@CDrawingVertScaleData@@QBE?AVCScaleColor@@XZ
_TEXT	SEGMENT
___$ReturnUdt$ = 8					; size = 4
?GetScaleColor@CDrawingVertScaleData@@QBE?AVCScaleColor@@XZ PROC ; CDrawingVertScaleData::GetScaleColor, COMDAT
; _this$ = ecx

; 714  : {

  00000	55		 push	 ebp
  00001	8b ec		 mov	 ebp, esp

; 715  : 	return m_scaleColor;

  00003	8b 45 08	 mov	 eax, DWORD PTR ___$ReturnUdt$[ebp]
  00006	f3 0f 7e 41 34	 movq	 xmm0, QWORD PTR [ecx+52]
  0000b	8b 49 3c	 mov	 ecx, DWORD PTR [ecx+60]
  0000e	66 0f d6 00	 movq	 QWORD PTR [eax], xmm0
  00012	89 48 08	 mov	 DWORD PTR [eax+8], ecx

; 716  : }

  00015	5d		 pop	 ebp
  00016	c2 04 00	 ret	 4
?GetScaleColor@CDrawingVertScaleData@@QBE?AVCScaleColor@@XZ ENDP ; CDrawingVertScaleData::GetScaleColor
_TEXT	ENDS
; Function compile flags: /Ogtp
; File D:\git\src\IBK\IBK_DRFN\ProjSrc\SrcChartEx\ChartOCX\Include_Chart\BaseData.cpp
;	COMDAT ?GetScaleDrawerType@CDrawingVertScaleData@@QBE?AW4VERTSCALEDRAWERTYPE@CScaleBaseData@@XZ
_TEXT	SEGMENT
?GetScaleDrawerType@CDrawingVertScaleData@@QBE?AW4VERTSCALEDRAWERTYPE@CScaleBaseData@@XZ PROC ; CDrawingVertScaleData::GetScaleDrawerType, COMDAT
; _this$ = ecx

; 710  : 	return m_TYPEScaleDrawer;

  00000	8b 41 30	 mov	 eax, DWORD PTR [ecx+48]

; 711  : }

  00003	c3		 ret	 0
?GetScaleDrawerType@CDrawingVertScaleData@@QBE?AW4VERTSCALEDRAWERTYPE@CScaleBaseData@@XZ ENDP ; CDrawingVertScaleData::GetScaleDrawerType
_TEXT	ENDS
; Function compile flags: /Ogtp
; File D:\git\src\IBK\IBK_DRFN\ProjSrc\SrcChartEx\ChartOCX\Include_Chart\BaseData.cpp
;	COMDAT ?GetIndicatorName@CDrawingVertScaleData@@QBE?AV?$CStringT@DV?$StrTraitMFC_DLL@DV?$ChTraitsCRT@D@ATL@@@@@ATL@@XZ
_TEXT	SEGMENT
___$ReturnUdt$ = 8					; size = 4
?GetIndicatorName@CDrawingVertScaleData@@QBE?AV?$CStringT@DV?$StrTraitMFC_DLL@DV?$ChTraitsCRT@D@ATL@@@@@ATL@@XZ PROC ; CDrawingVertScaleData::GetIndicatorName, COMDAT
; _this$ = ecx

; 704  : {

  00000	55		 push	 ebp
  00001	8b ec		 mov	 ebp, esp

; 705  : 	return m_strIndicatorName;

  00003	8d 41 2c	 lea	 eax, DWORD PTR [ecx+44]
  00006	8b 4d 08	 mov	 ecx, DWORD PTR ___$ReturnUdt$[ebp]
  00009	50		 push	 eax
  0000a	ff 15 00 00 00
	00		 call	 DWORD PTR __imp_??0?$CStringT@DV?$StrTraitMFC_DLL@DV?$ChTraitsCRT@D@ATL@@@@@ATL@@QAE@ABV01@@Z
  00010	8b 45 08	 mov	 eax, DWORD PTR ___$ReturnUdt$[ebp]

; 706  : }

  00013	5d		 pop	 ebp
  00014	c2 04 00	 ret	 4
?GetIndicatorName@CDrawingVertScaleData@@QBE?AV?$CStringT@DV?$StrTraitMFC_DLL@DV?$ChTraitsCRT@D@ATL@@@@@ATL@@XZ ENDP ; CDrawingVertScaleData::GetIndicatorName
_TEXT	ENDS
; Function compile flags: /Ogtp
; File D:\git\src\IBK\IBK_DRFN\ProjSrc\SrcChartEx\ChartOCX\Include_Chart\BaseData.cpp
;	COMDAT ?GetPacketNames@CDrawingVertScaleData@@QBE?AV?$CStringT@DV?$StrTraitMFC_DLL@DV?$ChTraitsCRT@D@ATL@@@@@ATL@@XZ
_TEXT	SEGMENT
___$ReturnUdt$ = 8					; size = 4
?GetPacketNames@CDrawingVertScaleData@@QBE?AV?$CStringT@DV?$StrTraitMFC_DLL@DV?$ChTraitsCRT@D@ATL@@@@@ATL@@XZ PROC ; CDrawingVertScaleData::GetPacketNames, COMDAT
; _this$ = ecx

; 699  : {

  00000	55		 push	 ebp
  00001	8b ec		 mov	 ebp, esp

; 700  : 	return m_strPacketNames;

  00003	8d 41 28	 lea	 eax, DWORD PTR [ecx+40]
  00006	8b 4d 08	 mov	 ecx, DWORD PTR ___$ReturnUdt$[ebp]
  00009	50		 push	 eax
  0000a	ff 15 00 00 00
	00		 call	 DWORD PTR __imp_??0?$CStringT@DV?$StrTraitMFC_DLL@DV?$ChTraitsCRT@D@ATL@@@@@ATL@@QAE@ABV01@@Z
  00010	8b 45 08	 mov	 eax, DWORD PTR ___$ReturnUdt$[ebp]

; 701  : }

  00013	5d		 pop	 ebp
  00014	c2 04 00	 ret	 4
?GetPacketNames@CDrawingVertScaleData@@QBE?AV?$CStringT@DV?$StrTraitMFC_DLL@DV?$ChTraitsCRT@D@ATL@@@@@ATL@@XZ ENDP ; CDrawingVertScaleData::GetPacketNames
_TEXT	ENDS
; Function compile flags: /Ogtp
; File D:\git\src\IBK\IBK_DRFN\ProjSrc\SrcChartEx\ChartOCX\Include_Chart\BaseData.cpp
;	COMDAT ?GetSubGraphNames@CDrawingVertScaleData@@QBE?AV?$CStringT@DV?$StrTraitMFC_DLL@DV?$ChTraitsCRT@D@ATL@@@@@ATL@@XZ
_TEXT	SEGMENT
___$ReturnUdt$ = 8					; size = 4
?GetSubGraphNames@CDrawingVertScaleData@@QBE?AV?$CStringT@DV?$StrTraitMFC_DLL@DV?$ChTraitsCRT@D@ATL@@@@@ATL@@XZ PROC ; CDrawingVertScaleData::GetSubGraphNames, COMDAT
; _this$ = ecx

; 694  : {

  00000	55		 push	 ebp
  00001	8b ec		 mov	 ebp, esp

; 695  : 	return m_strSubGraphNames;

  00003	8d 41 24	 lea	 eax, DWORD PTR [ecx+36]
  00006	8b 4d 08	 mov	 ecx, DWORD PTR ___$ReturnUdt$[ebp]
  00009	50		 push	 eax
  0000a	ff 15 00 00 00
	00		 call	 DWORD PTR __imp_??0?$CStringT@DV?$StrTraitMFC_DLL@DV?$ChTraitsCRT@D@ATL@@@@@ATL@@QAE@ABV01@@Z
  00010	8b 45 08	 mov	 eax, DWORD PTR ___$ReturnUdt$[ebp]

; 696  : }

  00013	5d		 pop	 ebp
  00014	c2 04 00	 ret	 4
?GetSubGraphNames@CDrawingVertScaleData@@QBE?AV?$CStringT@DV?$StrTraitMFC_DLL@DV?$ChTraitsCRT@D@ATL@@@@@ATL@@XZ ENDP ; CDrawingVertScaleData::GetSubGraphNames
_TEXT	ENDS
; Function compile flags: /Ogtp
; File D:\git\src\IBK\IBK_DRFN\ProjSrc\SrcChartEx\ChartOCX\Include_Chart\BaseData.cpp
;	COMDAT ?GetVertScaleLogType@CDrawingVertScaleData@@QBE_NXZ
_TEXT	SEGMENT
?GetVertScaleLogType@CDrawingVertScaleData@@QBE_NXZ PROC ; CDrawingVertScaleData::GetVertScaleLogType, COMDAT
; _this$ = ecx

; 690  : 	return (m_TYPEScaleDrawer == CScaleBaseData::VERT_LOG ? true: false);

  00000	83 79 30 08	 cmp	 DWORD PTR [ecx+48], 8
  00004	0f 94 c0	 sete	 al

; 691  : }

  00007	c3		 ret	 0
?GetVertScaleLogType@CDrawingVertScaleData@@QBE_NXZ ENDP ; CDrawingVertScaleData::GetVertScaleLogType
_TEXT	ENDS
; Function compile flags: /Ogtp
; File D:\git\src\IBK\IBK_DRFN\ProjSrc\SrcChartEx\ChartOCX\Include_Chart\BaseData.cpp
;	COMDAT ?GetVertScaleInvertType@CDrawingVertScaleData@@QBE_NXZ
_TEXT	SEGMENT
?GetVertScaleInvertType@CDrawingVertScaleData@@QBE_NXZ PROC ; CDrawingVertScaleData::GetVertScaleInvertType, COMDAT
; _this$ = ecx

; 679  : 	return m_bIsVertScaleInvertType;

  00000	8a 41 20	 mov	 al, BYTE PTR [ecx+32]

; 680  : }

  00003	c3		 ret	 0
?GetVertScaleInvertType@CDrawingVertScaleData@@QBE_NXZ ENDP ; CDrawingVertScaleData::GetVertScaleInvertType
_TEXT	ENDS
; Function compile flags: /Ogtp
; File D:\git\src\IBK\IBK_DRFN\ProjSrc\SrcChartEx\ChartOCX\Include_Chart\BaseData.cpp
;	COMDAT ?GetDrawingGraphRegion@CDrawingVertScaleData@@QBE?AVCRect@@XZ
_TEXT	SEGMENT
___$ReturnUdt$ = 8					; size = 4
?GetDrawingGraphRegion@CDrawingVertScaleData@@QBE?AVCRect@@XZ PROC ; CDrawingVertScaleData::GetDrawingGraphRegion, COMDAT
; _this$ = ecx

; 673  : {

  00000	55		 push	 ebp
  00001	8b ec		 mov	 ebp, esp

; 674  : 	return m_drawingGraphRegion;

  00003	8b 45 08	 mov	 eax, DWORD PTR ___$ReturnUdt$[ebp]
  00006	0f 10 41 10	 movups	 xmm0, XMMWORD PTR [ecx+16]
  0000a	0f 11 00	 movups	 XMMWORD PTR [eax], xmm0

; 675  : }

  0000d	5d		 pop	 ebp
  0000e	c2 04 00	 ret	 4
?GetDrawingGraphRegion@CDrawingVertScaleData@@QBE?AVCRect@@XZ ENDP ; CDrawingVertScaleData::GetDrawingGraphRegion
_TEXT	ENDS
; Function compile flags: /Ogtp
; File D:\git\src\IBK\IBK_DRFN\ProjSrc\SrcChartEx\ChartOCX\Include_Chart\BaseData.cpp
;	COMDAT ?GetNoFrameGraphRegion@CDrawingVertScaleData@@QBE?AVCRect@@XZ
_TEXT	SEGMENT
___$ReturnUdt$ = 8					; size = 4
?GetNoFrameGraphRegion@CDrawingVertScaleData@@QBE?AVCRect@@XZ PROC ; CDrawingVertScaleData::GetNoFrameGraphRegion, COMDAT
; _this$ = ecx

; 668  : {

  00000	55		 push	 ebp
  00001	8b ec		 mov	 ebp, esp

; 669  : 	return m_noFrameGraphRegion;

  00003	8b 45 08	 mov	 eax, DWORD PTR ___$ReturnUdt$[ebp]
  00006	0f 10 01	 movups	 xmm0, XMMWORD PTR [ecx]
  00009	0f 11 00	 movups	 XMMWORD PTR [eax], xmm0

; 670  : }

  0000c	5d		 pop	 ebp
  0000d	c2 04 00	 ret	 4
?GetNoFrameGraphRegion@CDrawingVertScaleData@@QBE?AVCRect@@XZ ENDP ; CDrawingVertScaleData::GetNoFrameGraphRegion
_TEXT	ENDS
; Function compile flags: /Ogtp
; File D:\git\src\IBK\IBK_DRFN\ProjSrc\SrcChartEx\ChartOCX\Include_Chart\BaseData.cpp
;	COMDAT ??0CDrawingVertScaleData@@QAE@ABVCRect@@0ABVCGraphRegionColor@@ABVCScaleColor@@_N3ABVCDisplayAttributes@@PAVCPacketList@@@Z
_TEXT	SEGMENT
_this$ = -16						; size = 4
__$EHRec$ = -12						; size = 12
_noFrameGraphRegion$ = 8				; size = 4
_drawingGraphRegion$ = 12				; size = 4
_graphRegionColor$ = 16					; size = 4
_scalrColor$ = 20					; size = 4
_bIsVertScaleInvertType$ = 24				; size = 1
_bIsVertScaleLogType$ = 28				; size = 1
_displayAttributes$ = 32				; size = 4
_pPacketList$ = 36					; size = 4
??0CDrawingVertScaleData@@QAE@ABVCRect@@0ABVCGraphRegionColor@@ABVCScaleColor@@_N3ABVCDisplayAttributes@@PAVCPacketList@@@Z PROC ; CDrawingVertScaleData::CDrawingVertScaleData, COMDAT
; _this$ = ecx

; 662  : {

  00000	55		 push	 ebp
  00001	8b ec		 mov	 ebp, esp
  00003	6a ff		 push	 -1
  00005	68 00 00 00 00	 push	 __ehhandler$??0CDrawingVertScaleData@@QAE@ABVCRect@@0ABVCGraphRegionColor@@ABVCScaleColor@@_N3ABVCDisplayAttributes@@PAVCPacketList@@@Z
  0000a	64 a1 00 00 00
	00		 mov	 eax, DWORD PTR fs:0
  00010	50		 push	 eax
  00011	51		 push	 ecx
  00012	56		 push	 esi
  00013	a1 00 00 00 00	 mov	 eax, DWORD PTR ___security_cookie
  00018	33 c5		 xor	 eax, ebp
  0001a	50		 push	 eax
  0001b	8d 45 f4	 lea	 eax, DWORD PTR __$EHRec$[ebp]
  0001e	64 a3 00 00 00
	00		 mov	 DWORD PTR fs:0, eax
  00024	8b f1		 mov	 esi, ecx
  00026	89 75 f0	 mov	 DWORD PTR _this$[ebp], esi

; 652  : 	m_noFrameGraphRegion(noFrameGraphRegion),

  00029	8b 45 08	 mov	 eax, DWORD PTR _noFrameGraphRegion$[ebp]

; 662  : {

  0002c	8d 4e 24	 lea	 ecx, DWORD PTR [esi+36]
  0002f	0f 10 00	 movups	 xmm0, XMMWORD PTR [eax]
  00032	8b 45 0c	 mov	 eax, DWORD PTR _drawingGraphRegion$[ebp]
  00035	0f 11 06	 movups	 XMMWORD PTR [esi], xmm0
  00038	0f 10 00	 movups	 xmm0, XMMWORD PTR [eax]
  0003b	8a 45 18	 mov	 al, BYTE PTR _bIsVertScaleInvertType$[ebp]
  0003e	88 46 20	 mov	 BYTE PTR [esi+32], al
  00041	0f 11 46 10	 movups	 XMMWORD PTR [esi+16], xmm0
  00045	ff 15 00 00 00
	00		 call	 DWORD PTR __imp_??0?$CStringT@DV?$StrTraitMFC_DLL@DV?$ChTraitsCRT@D@ATL@@@@@ATL@@QAE@XZ
  0004b	8d 4e 28	 lea	 ecx, DWORD PTR [esi+40]
  0004e	c7 45 fc 00 00
	00 00		 mov	 DWORD PTR __$EHRec$[ebp+8], 0
  00055	ff 15 00 00 00
	00		 call	 DWORD PTR __imp_??0?$CStringT@DV?$StrTraitMFC_DLL@DV?$ChTraitsCRT@D@ATL@@@@@ATL@@QAE@XZ
  0005b	8d 4e 2c	 lea	 ecx, DWORD PTR [esi+44]
  0005e	ff 15 00 00 00
	00		 call	 DWORD PTR __imp_??0?$CStringT@DV?$StrTraitMFC_DLL@DV?$ChTraitsCRT@D@ATL@@@@@ATL@@QAE@XZ

; 653  : 	m_drawingGraphRegion(drawingGraphRegion),
; 654  : 	m_TYPEScaleDrawer(CScaleBaseData::VERT_NOTYPE),
; 655  : 	m_graphRegionColor(graphRegionColor),
; 656  : 	m_scaleColor(scalrColor),

  00064	8b 45 14	 mov	 eax, DWORD PTR _scalrColor$[ebp]
  00067	c7 46 30 00 00
	00 00		 mov	 DWORD PTR [esi+48], 0
  0006e	c6 45 fc 02	 mov	 BYTE PTR __$EHRec$[ebp+8], 2
  00072	f3 0f 7e 00	 movq	 xmm0, QWORD PTR [eax]
  00076	66 0f d6 46 34	 movq	 QWORD PTR [esi+52], xmm0
  0007b	8b 40 08	 mov	 eax, DWORD PTR [eax+8]
  0007e	89 46 3c	 mov	 DWORD PTR [esi+60], eax
  00081	8b 45 10	 mov	 eax, DWORD PTR _graphRegionColor$[ebp]
  00084	f3 0f 7e 00	 movq	 xmm0, QWORD PTR [eax]
  00088	66 0f d6 46 40	 movq	 QWORD PTR [esi+64], xmm0
  0008d	8b 40 08	 mov	 eax, DWORD PTR [eax+8]
  00090	89 46 48	 mov	 DWORD PTR [esi+72], eax

; 657  : 	m_bIsVertScaleInvertType(bIsVertScaleInvertType),
; 658  : 	m_displayAttributes(displayAttributes),

  00093	8b 45 20	 mov	 eax, DWORD PTR _displayAttributes$[ebp]
  00096	8b 08		 mov	 ecx, DWORD PTR [eax]
  00098	8b 40 04	 mov	 eax, DWORD PTR [eax+4]
  0009b	89 4e 4c	 mov	 DWORD PTR [esi+76], ecx

; 662  : {

  0009e	8d 4e 58	 lea	 ecx, DWORD PTR [esi+88]
  000a1	89 46 50	 mov	 DWORD PTR [esi+80], eax
  000a4	e8 00 00 00 00	 call	 ??0CDisplayDataMinMax@@QAE@XZ ; CDisplayDataMinMax::CDisplayDataMinMax

; 663  : 	if(bIsVertScaleLogType)

  000a9	80 7d 1c 00	 cmp	 BYTE PTR _bIsVertScaleLogType$[ebp], 0
  000ad	8b 45 24	 mov	 eax, DWORD PTR _pPacketList$[ebp]
  000b0	89 46 70	 mov	 DWORD PTR [esi+112], eax
  000b3	8b c6		 mov	 eax, esi
  000b5	c7 46 68 00 00
	00 00		 mov	 DWORD PTR [esi+104], 0
  000bc	c7 46 6c 00 00
	00 00		 mov	 DWORD PTR [esi+108], 0
  000c3	74 07		 je	 SHORT $LN2@CDrawingVe

; 664  : 		m_TYPEScaleDrawer = CScaleBaseData::VERT_LOG;

  000c5	c7 46 30 08 00
	00 00		 mov	 DWORD PTR [esi+48], 8
$LN2@CDrawingVe:

; 665  : }

  000cc	8b 4d f4	 mov	 ecx, DWORD PTR __$EHRec$[ebp]
  000cf	64 89 0d 00 00
	00 00		 mov	 DWORD PTR fs:0, ecx
  000d6	59		 pop	 ecx
  000d7	5e		 pop	 esi
  000d8	8b e5		 mov	 esp, ebp
  000da	5d		 pop	 ebp
  000db	c2 20 00	 ret	 32			; 00000020H
_TEXT	ENDS
;	COMDAT text$x
text$x	SEGMENT
__unwindfunclet$??0CDrawingVertScaleData@@QAE@ABVCRect@@0ABVCGraphRegionColor@@ABVCScaleColor@@_N3ABVCDisplayAttributes@@PAVCPacketList@@@Z$0:
  00000	8b 4d f0	 mov	 ecx, DWORD PTR _this$[ebp]
  00003	83 c1 24	 add	 ecx, 36			; 00000024H
  00006	ff 25 00 00 00
	00		 jmp	 DWORD PTR __imp_??1?$CStringT@DV?$StrTraitMFC_DLL@DV?$ChTraitsCRT@D@ATL@@@@@ATL@@QAE@XZ
__unwindfunclet$??0CDrawingVertScaleData@@QAE@ABVCRect@@0ABVCGraphRegionColor@@ABVCScaleColor@@_N3ABVCDisplayAttributes@@PAVCPacketList@@@Z$1:
  0000c	8b 4d f0	 mov	 ecx, DWORD PTR _this$[ebp]
  0000f	83 c1 28	 add	 ecx, 40			; 00000028H
  00012	ff 25 00 00 00
	00		 jmp	 DWORD PTR __imp_??1?$CStringT@DV?$StrTraitMFC_DLL@DV?$ChTraitsCRT@D@ATL@@@@@ATL@@QAE@XZ
__unwindfunclet$??0CDrawingVertScaleData@@QAE@ABVCRect@@0ABVCGraphRegionColor@@ABVCScaleColor@@_N3ABVCDisplayAttributes@@PAVCPacketList@@@Z$2:
  00018	8b 4d f0	 mov	 ecx, DWORD PTR _this$[ebp]
  0001b	83 c1 2c	 add	 ecx, 44			; 0000002cH
  0001e	ff 25 00 00 00
	00		 jmp	 DWORD PTR __imp_??1?$CStringT@DV?$StrTraitMFC_DLL@DV?$ChTraitsCRT@D@ATL@@@@@ATL@@QAE@XZ
  00024	cc		 int	 3
  00025	cc		 int	 3
  00026	cc		 int	 3
  00027	cc		 int	 3
  00028	cc		 int	 3
__ehhandler$??0CDrawingVertScaleData@@QAE@ABVCRect@@0ABVCGraphRegionColor@@ABVCScaleColor@@_N3ABVCDisplayAttributes@@PAVCPacketList@@@Z:
  00029	90		 npad	 1
  0002a	90		 npad	 1
  0002b	8b 54 24 08	 mov	 edx, DWORD PTR [esp+8]
  0002f	8d 42 0c	 lea	 eax, DWORD PTR [edx+12]
  00032	8b 4a f4	 mov	 ecx, DWORD PTR [edx-12]
  00035	33 c8		 xor	 ecx, eax
  00037	e8 00 00 00 00	 call	 @__security_check_cookie@4
  0003c	b8 00 00 00 00	 mov	 eax, OFFSET __ehfuncinfo$??0CDrawingVertScaleData@@QAE@ABVCRect@@0ABVCGraphRegionColor@@ABVCScaleColor@@_N3ABVCDisplayAttributes@@PAVCPacketList@@@Z
  00041	e9 00 00 00 00	 jmp	 ___CxxFrameHandler3
text$x	ENDS
??0CDrawingVertScaleData@@QAE@ABVCRect@@0ABVCGraphRegionColor@@ABVCScaleColor@@_N3ABVCDisplayAttributes@@PAVCPacketList@@@Z ENDP ; CDrawingVertScaleData::CDrawingVertScaleData
; Function compile flags: /Ogtp
; File D:\git\src\IBK\IBK_DRFN\ProjSrc\SrcChartEx\ChartOCX\Include_Chart\BaseData.cpp
;	COMDAT ?SetScaleDrawerType@CDrawingHorzScaleData@@QAEXABW4HORZSCALEDRAWERTYPE@CScaleBaseData@@@Z
_TEXT	SEGMENT
_drawType$ = 8						; size = 4
?SetScaleDrawerType@CDrawingHorzScaleData@@QAEXABW4HORZSCALEDRAWERTYPE@CScaleBaseData@@@Z PROC ; CDrawingHorzScaleData::SetScaleDrawerType, COMDAT
; _this$ = ecx

; 625  : {

  00000	55		 push	 ebp
  00001	8b ec		 mov	 ebp, esp

; 626  : 	m_TYPEScaleDrawer = drawType;

  00003	8b 45 08	 mov	 eax, DWORD PTR _drawType$[ebp]
  00006	8b 00		 mov	 eax, DWORD PTR [eax]
  00008	89 41 18	 mov	 DWORD PTR [ecx+24], eax

; 627  : }

  0000b	5d		 pop	 ebp
  0000c	c2 04 00	 ret	 4
?SetScaleDrawerType@CDrawingHorzScaleData@@QAEXABW4HORZSCALEDRAWERTYPE@CScaleBaseData@@@Z ENDP ; CDrawingHorzScaleData::SetScaleDrawerType
_TEXT	ENDS
; Function compile flags: /Ogtp
; File D:\git\src\IBK\IBK_DRFN\ProjSrc\SrcChartEx\ChartOCX\Include_Chart\BaseData.cpp
;	COMDAT ?SetDrawFutureScale@CDrawingHorzScaleData@@QAEXH@Z
_TEXT	SEGMENT
_bDrawFutureScale$ = 8					; size = 4
?SetDrawFutureScale@CDrawingHorzScaleData@@QAEXH@Z PROC	; CDrawingHorzScaleData::SetDrawFutureScale, COMDAT
; _this$ = ecx

; 637  : {

  00000	55		 push	 ebp
  00001	8b ec		 mov	 ebp, esp

; 638  : 	m_bDrawFutureScale = bDrawFutureScale;

  00003	8b 45 08	 mov	 eax, DWORD PTR _bDrawFutureScale$[ebp]
  00006	89 41 54	 mov	 DWORD PTR [ecx+84], eax

; 639  : }

  00009	5d		 pop	 ebp
  0000a	c2 04 00	 ret	 4
?SetDrawFutureScale@CDrawingHorzScaleData@@QAEXH@Z ENDP	; CDrawingHorzScaleData::SetDrawFutureScale
_TEXT	ENDS
; Function compile flags: /Ogtp
; File D:\git\src\IBK\IBK_DRFN\ProjSrc\SrcChartEx\ChartOCX\Include_Chart\BaseData.cpp
;	COMDAT ?GetDrawFutureScale@CDrawingHorzScaleData@@QBEHXZ
_TEXT	SEGMENT
?GetDrawFutureScale@CDrawingHorzScaleData@@QBEHXZ PROC	; CDrawingHorzScaleData::GetDrawFutureScale, COMDAT
; _this$ = ecx

; 632  : 	return m_bDrawFutureScale;

  00000	8b 41 54	 mov	 eax, DWORD PTR [ecx+84]

; 633  : }

  00003	c3		 ret	 0
?GetDrawFutureScale@CDrawingHorzScaleData@@QBEHXZ ENDP	; CDrawingHorzScaleData::GetDrawFutureScale
_TEXT	ENDS
; Function compile flags: /Ogtp
; File D:\git\src\IBK\IBK_DRFN\ProjSrc\SrcChartEx\ChartOCX\Include_Chart\BaseData.cpp
;	COMDAT ?GetPacket@CDrawingHorzScaleData@@QBEPAVCPacket@@XZ
_TEXT	SEGMENT
?GetPacket@CDrawingHorzScaleData@@QBEPAVCPacket@@XZ PROC ; CDrawingHorzScaleData::GetPacket, COMDAT
; _this$ = ecx

; 620  : 	return m_pPacket;

  00000	8b 41 50	 mov	 eax, DWORD PTR [ecx+80]

; 621  : }

  00003	c3		 ret	 0
?GetPacket@CDrawingHorzScaleData@@QBEPAVCPacket@@XZ ENDP ; CDrawingHorzScaleData::GetPacket
_TEXT	ENDS
; Function compile flags: /Ogtp
; File D:\git\src\IBK\IBK_DRFN\ProjSrc\SrcChartEx\ChartOCX\Include_Chart\BaseData.cpp
;	COMDAT ?GetDisplayDataMinMax@CDrawingHorzScaleData@@QBE?AVCDisplayDataMinMax@@XZ
_TEXT	SEGMENT
___$ReturnUdt$ = 8					; size = 4
?GetDisplayDataMinMax@CDrawingHorzScaleData@@QBE?AVCDisplayDataMinMax@@XZ PROC ; CDrawingHorzScaleData::GetDisplayDataMinMax, COMDAT
; _this$ = ecx

; 614  : {

  00000	55		 push	 ebp
  00001	8b ec		 mov	 ebp, esp

; 615  : 	return m_displayDataMinMax;

  00003	8b 45 08	 mov	 eax, DWORD PTR ___$ReturnUdt$[ebp]
  00006	0f 10 41 40	 movups	 xmm0, XMMWORD PTR [ecx+64]
  0000a	0f 11 00	 movups	 XMMWORD PTR [eax], xmm0

; 616  : }

  0000d	5d		 pop	 ebp
  0000e	c2 04 00	 ret	 4
?GetDisplayDataMinMax@CDrawingHorzScaleData@@QBE?AVCDisplayDataMinMax@@XZ ENDP ; CDrawingHorzScaleData::GetDisplayDataMinMax
_TEXT	ENDS
; Function compile flags: /Ogtp
; File D:\git\src\IBK\IBK_DRFN\ProjSrc\SrcChartEx\ChartOCX\Include_Chart\BaseData.cpp
;	COMDAT ?GetDisplayAttributes@CDrawingHorzScaleData@@QBE?AVCDisplayAttributes@@XZ
_TEXT	SEGMENT
___$ReturnUdt$ = 8					; size = 4
?GetDisplayAttributes@CDrawingHorzScaleData@@QBE?AVCDisplayAttributes@@XZ PROC ; CDrawingHorzScaleData::GetDisplayAttributes, COMDAT
; _this$ = ecx

; 609  : {

  00000	55		 push	 ebp
  00001	8b ec		 mov	 ebp, esp

; 610  : 	return m_displayAttributes;

  00003	8b 45 08	 mov	 eax, DWORD PTR ___$ReturnUdt$[ebp]
  00006	8b 51 34	 mov	 edx, DWORD PTR [ecx+52]
  00009	8b 49 38	 mov	 ecx, DWORD PTR [ecx+56]
  0000c	89 10		 mov	 DWORD PTR [eax], edx
  0000e	89 48 04	 mov	 DWORD PTR [eax+4], ecx

; 611  : }

  00011	5d		 pop	 ebp
  00012	c2 04 00	 ret	 4
?GetDisplayAttributes@CDrawingHorzScaleData@@QBE?AVCDisplayAttributes@@XZ ENDP ; CDrawingHorzScaleData::GetDisplayAttributes
_TEXT	ENDS
; Function compile flags: /Ogtp
; File D:\git\src\IBK\IBK_DRFN\ProjSrc\SrcChartEx\ChartOCX\Include_Chart\BaseData.cpp
;	COMDAT ?GetCompartLineColor@CDrawingHorzScaleData@@QBEKXZ
_TEXT	SEGMENT
?GetCompartLineColor@CDrawingHorzScaleData@@QBEKXZ PROC	; CDrawingHorzScaleData::GetCompartLineColor, COMDAT
; _this$ = ecx

; 605  : 	return m_graphRegionColor.GetFrameColor();

  00000	83 c1 28	 add	 ecx, 40			; 00000028H
  00003	ff 25 00 00 00
	00		 jmp	 DWORD PTR __imp_?GetFrameColor@CGraphRegionColor@@QBEKXZ
?GetCompartLineColor@CDrawingHorzScaleData@@QBEKXZ ENDP	; CDrawingHorzScaleData::GetCompartLineColor
_TEXT	ENDS
; Function compile flags: /Ogtp
; File D:\git\src\IBK\IBK_DRFN\ProjSrc\SrcChartEx\ChartOCX\Include_Chart\BaseData.cpp
;	COMDAT ?GetGraphRegionColor@CDrawingHorzScaleData@@QBE?AVCGraphRegionColor@@XZ
_TEXT	SEGMENT
___$ReturnUdt$ = 8					; size = 4
?GetGraphRegionColor@CDrawingHorzScaleData@@QBE?AVCGraphRegionColor@@XZ PROC ; CDrawingHorzScaleData::GetGraphRegionColor, COMDAT
; _this$ = ecx

; 599  : {

  00000	55		 push	 ebp
  00001	8b ec		 mov	 ebp, esp

; 600  : 	return m_graphRegionColor;

  00003	8b 45 08	 mov	 eax, DWORD PTR ___$ReturnUdt$[ebp]
  00006	f3 0f 7e 41 28	 movq	 xmm0, QWORD PTR [ecx+40]
  0000b	8b 49 30	 mov	 ecx, DWORD PTR [ecx+48]
  0000e	66 0f d6 00	 movq	 QWORD PTR [eax], xmm0
  00012	89 48 08	 mov	 DWORD PTR [eax+8], ecx

; 601  : }

  00015	5d		 pop	 ebp
  00016	c2 04 00	 ret	 4
?GetGraphRegionColor@CDrawingHorzScaleData@@QBE?AVCGraphRegionColor@@XZ ENDP ; CDrawingHorzScaleData::GetGraphRegionColor
_TEXT	ENDS
; Function compile flags: /Ogtp
; File D:\git\src\IBK\IBK_DRFN\ProjSrc\SrcChartEx\ChartOCX\Include_Chart\BaseData.cpp
;	COMDAT ?GetScaleColor@CDrawingHorzScaleData@@QBE?AVCScaleColor@@XZ
_TEXT	SEGMENT
___$ReturnUdt$ = 8					; size = 4
?GetScaleColor@CDrawingHorzScaleData@@QBE?AVCScaleColor@@XZ PROC ; CDrawingHorzScaleData::GetScaleColor, COMDAT
; _this$ = ecx

; 594  : {

  00000	55		 push	 ebp
  00001	8b ec		 mov	 ebp, esp

; 595  : 	return m_scaleColor;

  00003	8b 45 08	 mov	 eax, DWORD PTR ___$ReturnUdt$[ebp]
  00006	f3 0f 7e 41 1c	 movq	 xmm0, QWORD PTR [ecx+28]
  0000b	8b 49 24	 mov	 ecx, DWORD PTR [ecx+36]
  0000e	66 0f d6 00	 movq	 QWORD PTR [eax], xmm0
  00012	89 48 08	 mov	 DWORD PTR [eax+8], ecx

; 596  : }

  00015	5d		 pop	 ebp
  00016	c2 04 00	 ret	 4
?GetScaleColor@CDrawingHorzScaleData@@QBE?AVCScaleColor@@XZ ENDP ; CDrawingHorzScaleData::GetScaleColor
_TEXT	ENDS
; Function compile flags: /Ogtp
; File D:\git\src\IBK\IBK_DRFN\ProjSrc\SrcChartEx\ChartOCX\Include_Chart\BaseData.cpp
;	COMDAT ?GetScaleDrawerType@CDrawingHorzScaleData@@QBE?AW4HORZSCALEDRAWERTYPE@CScaleBaseData@@XZ
_TEXT	SEGMENT
?GetScaleDrawerType@CDrawingHorzScaleData@@QBE?AW4HORZSCALEDRAWERTYPE@CScaleBaseData@@XZ PROC ; CDrawingHorzScaleData::GetScaleDrawerType, COMDAT
; _this$ = ecx

; 590  : 	return m_TYPEScaleDrawer;

  00000	8b 41 18	 mov	 eax, DWORD PTR [ecx+24]

; 591  : }

  00003	c3		 ret	 0
?GetScaleDrawerType@CDrawingHorzScaleData@@QBE?AW4HORZSCALEDRAWERTYPE@CScaleBaseData@@XZ ENDP ; CDrawingHorzScaleData::GetScaleDrawerType
_TEXT	ENDS
; Function compile flags: /Ogtp
; File D:\git\src\IBK\IBK_DRFN\ProjSrc\SrcChartEx\ChartOCX\Include_Chart\BaseData.cpp
;	COMDAT ?GetHeadGraphStyle@CDrawingHorzScaleData@@QBE?AVCGraphStyle@@XZ
_TEXT	SEGMENT
___$ReturnUdt$ = 8					; size = 4
?GetHeadGraphStyle@CDrawingHorzScaleData@@QBE?AVCGraphStyle@@XZ PROC ; CDrawingHorzScaleData::GetHeadGraphStyle, COMDAT
; _this$ = ecx

; 584  : {

  00000	55		 push	 ebp
  00001	8b ec		 mov	 ebp, esp

; 585  : 	return m_headGraphStyle;

  00003	8b 45 08	 mov	 eax, DWORD PTR ___$ReturnUdt$[ebp]
  00006	8b 49 14	 mov	 ecx, DWORD PTR [ecx+20]
  00009	89 08		 mov	 DWORD PTR [eax], ecx

; 586  : }

  0000b	5d		 pop	 ebp
  0000c	c2 04 00	 ret	 4
?GetHeadGraphStyle@CDrawingHorzScaleData@@QBE?AVCGraphStyle@@XZ ENDP ; CDrawingHorzScaleData::GetHeadGraphStyle
_TEXT	ENDS
; Function compile flags: /Ogtp
; File D:\git\src\IBK\IBK_DRFN\ProjSrc\SrcChartEx\ChartOCX\Include_Chart\BaseData.cpp
;	COMDAT ?GetHeadGraphType@CDrawingHorzScaleData@@QBE?AW4GRAPHTYPE@CGraphBaseData@@XZ
_TEXT	SEGMENT
?GetHeadGraphType@CDrawingHorzScaleData@@QBE?AW4GRAPHTYPE@CGraphBaseData@@XZ PROC ; CDrawingHorzScaleData::GetHeadGraphType, COMDAT
; _this$ = ecx

; 580  : 	return m_eHeadGraphType;

  00000	8b 41 10	 mov	 eax, DWORD PTR [ecx+16]

; 581  : }

  00003	c3		 ret	 0
?GetHeadGraphType@CDrawingHorzScaleData@@QBE?AW4GRAPHTYPE@CGraphBaseData@@XZ ENDP ; CDrawingHorzScaleData::GetHeadGraphType
_TEXT	ENDS
; Function compile flags: /Ogtp
; File D:\git\src\IBK\IBK_DRFN\ProjSrc\SrcChartEx\ChartOCX\Include_Chart\BaseData.cpp
;	COMDAT ?GetDrawingGraphRegion@CDrawingHorzScaleData@@QBE?AVCRect@@XZ
_TEXT	SEGMENT
___$ReturnUdt$ = 8					; size = 4
?GetDrawingGraphRegion@CDrawingHorzScaleData@@QBE?AVCRect@@XZ PROC ; CDrawingHorzScaleData::GetDrawingGraphRegion, COMDAT
; _this$ = ecx

; 574  : {

  00000	55		 push	 ebp
  00001	8b ec		 mov	 ebp, esp

; 575  : 	return m_drawingGraphRegion;

  00003	8b 45 08	 mov	 eax, DWORD PTR ___$ReturnUdt$[ebp]
  00006	0f 10 01	 movups	 xmm0, XMMWORD PTR [ecx]
  00009	0f 11 00	 movups	 XMMWORD PTR [eax], xmm0

; 576  : }

  0000c	5d		 pop	 ebp
  0000d	c2 04 00	 ret	 4
?GetDrawingGraphRegion@CDrawingHorzScaleData@@QBE?AVCRect@@XZ ENDP ; CDrawingHorzScaleData::GetDrawingGraphRegion
_TEXT	ENDS
; Function compile flags: /Ogtp
; File D:\git\src\IBK\IBK_DRFN\ProjSrc\SrcChartEx\ChartOCX\Include_Chart\BaseData.cpp
;	COMDAT ??0CDrawingHorzScaleData@@QAE@ABVCRect@@ABW4GRAPHTYPE@CGraphBaseData@@ABVCGraphStyle@@ABVCGraphRegionColor@@ABVCScaleColor@@ABVCDisplayAttributes@@ABVCDisplayDataMinMax@@PAVCPacket@@HH@Z
_TEXT	SEGMENT
_drawingGraphRegion$ = 8				; size = 4
_eHeadGraphType$ = 12					; size = 4
_headGraphStyle$ = 16					; size = 4
_graphRegionColor$ = 20					; size = 4
_scaleColor$ = 24					; size = 4
_displayAttributes$ = 28				; size = 4
_displayDataMinMax$ = 32				; size = 4
_pPacket$ = 36						; size = 4
_bDrawFutureScale$ = 40					; size = 4
_p_nColumn$ = 44					; size = 4
??0CDrawingHorzScaleData@@QAE@ABVCRect@@ABW4GRAPHTYPE@CGraphBaseData@@ABVCGraphStyle@@ABVCGraphRegionColor@@ABVCScaleColor@@ABVCDisplayAttributes@@ABVCDisplayDataMinMax@@PAVCPacket@@HH@Z PROC ; CDrawingHorzScaleData::CDrawingHorzScaleData, COMDAT
; _this$ = ecx

; 567  : {

  00000	55		 push	 ebp
  00001	8b ec		 mov	 ebp, esp

; 557  : 	m_drawingGraphRegion(drawingGraphRegion),

  00003	8b 45 08	 mov	 eax, DWORD PTR _drawingGraphRegion$[ebp]

; 567  : {

  00006	8b d1		 mov	 edx, ecx
  00008	0f 10 00	 movups	 xmm0, XMMWORD PTR [eax]

; 558  : 	m_eHeadGraphType(eHeadGraphType),

  0000b	8b 45 0c	 mov	 eax, DWORD PTR _eHeadGraphType$[ebp]
  0000e	0f 11 02	 movups	 XMMWORD PTR [edx], xmm0
  00011	8b 00		 mov	 eax, DWORD PTR [eax]
  00013	89 42 10	 mov	 DWORD PTR [edx+16], eax

; 559  : 	m_headGraphStyle(headGraphStyle),

  00016	8b 45 10	 mov	 eax, DWORD PTR _headGraphStyle$[ebp]
  00019	8b 00		 mov	 eax, DWORD PTR [eax]
  0001b	89 42 14	 mov	 DWORD PTR [edx+20], eax

; 560  : 	m_TYPEScaleDrawer(CScaleBaseData::HORZ_NOTYPE),
; 561  : 	m_graphRegionColor(graphRegionColor),
; 562  : 	m_scaleColor(scaleColor),

  0001e	8b 45 18	 mov	 eax, DWORD PTR _scaleColor$[ebp]
  00021	c7 42 18 00 00
	00 00		 mov	 DWORD PTR [edx+24], 0
  00028	f3 0f 7e 00	 movq	 xmm0, QWORD PTR [eax]
  0002c	66 0f d6 42 1c	 movq	 QWORD PTR [edx+28], xmm0
  00031	8b 40 08	 mov	 eax, DWORD PTR [eax+8]
  00034	89 42 24	 mov	 DWORD PTR [edx+36], eax
  00037	8b 45 14	 mov	 eax, DWORD PTR _graphRegionColor$[ebp]
  0003a	f3 0f 7e 00	 movq	 xmm0, QWORD PTR [eax]
  0003e	66 0f d6 42 28	 movq	 QWORD PTR [edx+40], xmm0
  00043	8b 40 08	 mov	 eax, DWORD PTR [eax+8]
  00046	89 42 30	 mov	 DWORD PTR [edx+48], eax

; 563  : 	m_displayAttributes(displayAttributes),

  00049	8b 45 1c	 mov	 eax, DWORD PTR _displayAttributes$[ebp]
  0004c	8b 08		 mov	 ecx, DWORD PTR [eax]
  0004e	8b 40 04	 mov	 eax, DWORD PTR [eax+4]
  00051	89 42 38	 mov	 DWORD PTR [edx+56], eax

; 564  : 	m_displayDataMinMax(displayDataMinMax),

  00054	8b 45 20	 mov	 eax, DWORD PTR _displayDataMinMax$[ebp]
  00057	89 4a 34	 mov	 DWORD PTR [edx+52], ecx
  0005a	0f 10 00	 movups	 xmm0, XMMWORD PTR [eax]

; 565  : 	m_pPacket(pPacket),

  0005d	8b 45 24	 mov	 eax, DWORD PTR _pPacket$[ebp]
  00060	89 42 50	 mov	 DWORD PTR [edx+80], eax

; 566  : 	m_bDrawFutureScale(bDrawFutureScale)

  00063	8b 45 28	 mov	 eax, DWORD PTR _bDrawFutureScale$[ebp]
  00066	89 42 54	 mov	 DWORD PTR [edx+84], eax

; 568  : 
; 569  : 	// (2009/2/13 - Seung-Won, Bae) for Multi-Column.
; 570  : 	m_nColumnIndex = p_nColumn;

  00069	8b 45 2c	 mov	 eax, DWORD PTR _p_nColumn$[ebp]
  0006c	89 42 58	 mov	 DWORD PTR [edx+88], eax

; 571  : }

  0006f	8b c2		 mov	 eax, edx
  00071	0f 11 42 40	 movups	 XMMWORD PTR [edx+64], xmm0
  00075	5d		 pop	 ebp
  00076	c2 28 00	 ret	 40			; 00000028H
??0CDrawingHorzScaleData@@QAE@ABVCRect@@ABW4GRAPHTYPE@CGraphBaseData@@ABVCGraphStyle@@ABVCGraphRegionColor@@ABVCScaleColor@@ABVCDisplayAttributes@@ABVCDisplayDataMinMax@@PAVCPacket@@HH@Z ENDP ; CDrawingHorzScaleData::CDrawingHorzScaleData
_TEXT	ENDS
; Function compile flags: /Ogtp
; File D:\git\src\IBK\IBK_DRFN\ProjSrc\SrcChartEx\ChartOCX\Include_Chart\BaseData.cpp
;	COMDAT ?SetVertScaleDisplayAttributes@CDrawingGraphData@@QAEXW4VERTSCALEPOSITION@CScaleBaseData@@H@Z
_TEXT	SEGMENT
_eVertPos$ = 8						; size = 4
_bTextDrawing$ = 12					; size = 4
?SetVertScaleDisplayAttributes@CDrawingGraphData@@QAEXW4VERTSCALEPOSITION@CScaleBaseData@@H@Z PROC ; CDrawingGraphData::SetVertScaleDisplayAttributes, COMDAT
; _this$ = ecx

; 544  : {

  00000	55		 push	 ebp
  00001	8b ec		 mov	 ebp, esp

; 545  : 	m_eVertPos = eVertPos;

  00003	8b 45 08	 mov	 eax, DWORD PTR _eVertPos$[ebp]
  00006	89 81 e0 00 00
	00		 mov	 DWORD PTR [ecx+224], eax

; 546  : 	m_bTextDrawing = bTextDrawing;

  0000c	8b 45 0c	 mov	 eax, DWORD PTR _bTextDrawing$[ebp]
  0000f	89 81 e4 00 00
	00		 mov	 DWORD PTR [ecx+228], eax

; 547  : }

  00015	5d		 pop	 ebp
  00016	c2 08 00	 ret	 8
?SetVertScaleDisplayAttributes@CDrawingGraphData@@QAEXW4VERTSCALEPOSITION@CScaleBaseData@@H@Z ENDP ; CDrawingGraphData::SetVertScaleDisplayAttributes
_TEXT	ENDS
; Function compile flags: /Ogtp
; File D:\git\src\IBK\IBK_DRFN\ProjSrc\SrcChartEx\ChartOCX\Include_Chart\BaseData.cpp
;	COMDAT ?GetIndicatorName@CDrawingGraphData@@QBE?AV?$CStringT@DV?$StrTraitMFC_DLL@DV?$ChTraitsCRT@D@ATL@@@@@ATL@@XZ
_TEXT	SEGMENT
___$ReturnUdt$ = 8					; size = 4
?GetIndicatorName@CDrawingGraphData@@QBE?AV?$CStringT@DV?$StrTraitMFC_DLL@DV?$ChTraitsCRT@D@ATL@@@@@ATL@@XZ PROC ; CDrawingGraphData::GetIndicatorName, COMDAT
; _this$ = ecx

; 536  : {

  00000	55		 push	 ebp
  00001	8b ec		 mov	 ebp, esp
  00003	8b c1		 mov	 eax, ecx
  00005	56		 push	 esi

; 537  : 	if(m_pIndiInfo)

  00006	8b 88 cc 00 00
	00		 mov	 ecx, DWORD PTR [eax+204]
  0000c	85 c9		 test	 ecx, ecx
  0000e	74 10		 je	 SHORT $LN2@GetIndicat

; 538  : 		return m_pIndiInfo->GetIndicatorName();

  00010	8b 75 08	 mov	 esi, DWORD PTR ___$ReturnUdt$[ebp]
  00013	56		 push	 esi
  00014	e8 00 00 00 00	 call	 ?GetIndicatorName@CIndicatorInfo@@QBE?AV?$CStringT@DV?$StrTraitMFC_DLL@DV?$ChTraitsCRT@D@ATL@@@@@ATL@@XZ ; CIndicatorInfo::GetIndicatorName
  00019	8b c6		 mov	 eax, esi
  0001b	5e		 pop	 esi

; 540  : }

  0001c	5d		 pop	 ebp
  0001d	c2 04 00	 ret	 4
$LN2@GetIndicat:

; 539  : 	return m_strGraphName;

  00020	8b 4d 08	 mov	 ecx, DWORD PTR ___$ReturnUdt$[ebp]
  00023	05 8c 00 00 00	 add	 eax, 140		; 0000008cH
  00028	50		 push	 eax
  00029	ff 15 00 00 00
	00		 call	 DWORD PTR __imp_??0?$CStringT@DV?$StrTraitMFC_DLL@DV?$ChTraitsCRT@D@ATL@@@@@ATL@@QAE@ABV01@@Z
  0002f	8b 45 08	 mov	 eax, DWORD PTR ___$ReturnUdt$[ebp]
  00032	5e		 pop	 esi

; 540  : }

  00033	5d		 pop	 ebp
  00034	c2 04 00	 ret	 4
?GetIndicatorName@CDrawingGraphData@@QBE?AV?$CStringT@DV?$StrTraitMFC_DLL@DV?$ChTraitsCRT@D@ATL@@@@@ATL@@XZ ENDP ; CDrawingGraphData::GetIndicatorName
_TEXT	ENDS
; Function compile flags: /Ogtp
; File D:\git\src\IBK\IBK_DRFN\ProjSrc\SrcChartEx\ChartOCX\Include_Chart\BaseData.cpp
;	COMDAT ?SetVertScaleInvertType@CDrawingGraphData@@QAEX_N@Z
_TEXT	SEGMENT
_bIsVertScaleInvertType$ = 8				; size = 1
?SetVertScaleInvertType@CDrawingGraphData@@QAEX_N@Z PROC ; CDrawingGraphData::SetVertScaleInvertType, COMDAT
; _this$ = ecx

; 433  : {

  00000	55		 push	 ebp
  00001	8b ec		 mov	 ebp, esp

; 434  : 	m_bIsVertScaleInvertType = bIsVertScaleInvertType;

  00003	8a 45 08	 mov	 al, BYTE PTR _bIsVertScaleInvertType$[ebp]
  00006	88 81 89 00 00
	00		 mov	 BYTE PTR [ecx+137], al

; 435  : }

  0000c	5d		 pop	 ebp
  0000d	c2 04 00	 ret	 4
?SetVertScaleInvertType@CDrawingGraphData@@QAEX_N@Z ENDP ; CDrawingGraphData::SetVertScaleInvertType
_TEXT	ENDS
; Function compile flags: /Ogtp
; File D:\git\src\IBK\IBK_DRFN\ProjSrc\SrcChartEx\ChartOCX\Include_Chart\BaseData.cpp
;	COMDAT ?GetSubGraphPacketList@CDrawingGraphData@@QBEPAVCSubGraphPacketList@@XZ
_TEXT	SEGMENT
?GetSubGraphPacketList@CDrawingGraphData@@QBEPAVCSubGraphPacketList@@XZ PROC ; CDrawingGraphData::GetSubGraphPacketList, COMDAT
; _this$ = ecx

; 532  : 	return m_pSubGraphPacketList;

  00000	8b 81 d0 00 00
	00		 mov	 eax, DWORD PTR [ecx+208]

; 533  : }

  00006	c3		 ret	 0
?GetSubGraphPacketList@CDrawingGraphData@@QBEPAVCSubGraphPacketList@@XZ ENDP ; CDrawingGraphData::GetSubGraphPacketList
_TEXT	ENDS
; Function compile flags: /Ogtp
; File D:\git\src\IBK\IBK_DRFN\ProjSrc\SrcChartEx\ChartOCX\Include_Chart\BaseData.cpp
;	COMDAT ?GetIndicatorInfo@CDrawingGraphData@@QBEPAVCIndicatorInfo@@XZ
_TEXT	SEGMENT
?GetIndicatorInfo@CDrawingGraphData@@QBEPAVCIndicatorInfo@@XZ PROC ; CDrawingGraphData::GetIndicatorInfo, COMDAT
; _this$ = ecx

; 527  : 	return m_pIndiInfo;

  00000	8b 81 cc 00 00
	00		 mov	 eax, DWORD PTR [ecx+204]

; 528  : }

  00006	c3		 ret	 0
?GetIndicatorInfo@CDrawingGraphData@@QBEPAVCIndicatorInfo@@XZ ENDP ; CDrawingGraphData::GetIndicatorInfo
_TEXT	ENDS
; Function compile flags: /Ogtp
; File D:\git\src\IBK\IBK_DRFN\ProjSrc\SrcChartEx\ChartOCX\Include_Chart\BaseData.cpp
;	COMDAT ?GetIndicatorList@CDrawingGraphData@@QBEPAVCIndicatorList@@XZ
_TEXT	SEGMENT
?GetIndicatorList@CDrawingGraphData@@QBEPAVCIndicatorList@@XZ PROC ; CDrawingGraphData::GetIndicatorList, COMDAT
; _this$ = ecx

; 522  : 	return m_pIndicatorList;

  00000	8b 81 d4 00 00
	00		 mov	 eax, DWORD PTR [ecx+212]

; 523  : }

  00006	c3		 ret	 0
?GetIndicatorList@CDrawingGraphData@@QBEPAVCIndicatorList@@XZ ENDP ; CDrawingGraphData::GetIndicatorList
_TEXT	ENDS
; Function compile flags: /Ogtp
; File D:\git\src\IBK\IBK_DRFN\ProjSrc\SrcChartEx\ChartOCX\Include_Chart\BaseData.cpp
;	COMDAT ?GetPriceChartColor@CDrawingGraphData@@QBEPAVCGraphColor@@XZ
_TEXT	SEGMENT
?GetPriceChartColor@CDrawingGraphData@@QBEPAVCGraphColor@@XZ PROC ; CDrawingGraphData::GetPriceChartColor, COMDAT
; _this$ = ecx

; 517  : 	return m_pPriceChartColor;

  00000	8b 81 c8 00 00
	00		 mov	 eax, DWORD PTR [ecx+200]

; 518  : }

  00006	c3		 ret	 0
?GetPriceChartColor@CDrawingGraphData@@QBEPAVCGraphColor@@XZ ENDP ; CDrawingGraphData::GetPriceChartColor
_TEXT	ENDS
; Function compile flags: /Ogtp
; File D:\git\src\IBK\IBK_DRFN\ProjSrc\SrcChartEx\ChartOCX\Include_Chart\BaseData.cpp
;	COMDAT ?GetEtcGraphColor@CDrawingGraphData@@QBE?AVCEtcGraphColor@@XZ
_TEXT	SEGMENT
___$ReturnUdt$ = 8					; size = 4
?GetEtcGraphColor@CDrawingGraphData@@QBE?AVCEtcGraphColor@@XZ PROC ; CDrawingGraphData::GetEtcGraphColor, COMDAT
; _this$ = ecx

; 511  : {

  00000	55		 push	 ebp
  00001	8b ec		 mov	 ebp, esp

; 512  : 	return m_etcGraphColor;

  00003	8b 45 08	 mov	 eax, DWORD PTR ___$ReturnUdt$[ebp]
  00006	0f 10 81 b0 00
	00 00		 movups	 xmm0, XMMWORD PTR [ecx+176]
  0000d	0f 11 00	 movups	 XMMWORD PTR [eax], xmm0
  00010	f3 0f 7e 81 c0
	00 00 00	 movq	 xmm0, QWORD PTR [ecx+192]
  00018	66 0f d6 40 10	 movq	 QWORD PTR [eax+16], xmm0

; 513  : }

  0001d	5d		 pop	 ebp
  0001e	c2 04 00	 ret	 4
?GetEtcGraphColor@CDrawingGraphData@@QBE?AVCEtcGraphColor@@XZ ENDP ; CDrawingGraphData::GetEtcGraphColor
_TEXT	ENDS
; Function compile flags: /Ogtp
; File D:\git\src\IBK\IBK_DRFN\ProjSrc\SrcChartEx\ChartOCX\Include_Chart\BaseData.cpp
;	COMDAT ?GetDisplayAttributes@CDrawingGraphData@@QBE?AVCDisplayAttributes@@XZ
_TEXT	SEGMENT
___$ReturnUdt$ = 8					; size = 4
?GetDisplayAttributes@CDrawingGraphData@@QBE?AVCDisplayAttributes@@XZ PROC ; CDrawingGraphData::GetDisplayAttributes, COMDAT
; _this$ = ecx

; 506  : {

  00000	55		 push	 ebp
  00001	8b ec		 mov	 ebp, esp

; 507  : 	return m_displayAttributes;

  00003	8b 45 08	 mov	 eax, DWORD PTR ___$ReturnUdt$[ebp]
  00006	8b 91 a8 00 00
	00		 mov	 edx, DWORD PTR [ecx+168]
  0000c	8b 89 ac 00 00
	00		 mov	 ecx, DWORD PTR [ecx+172]
  00012	89 10		 mov	 DWORD PTR [eax], edx
  00014	89 48 04	 mov	 DWORD PTR [eax+4], ecx

; 508  : }

  00017	5d		 pop	 ebp
  00018	c2 04 00	 ret	 4
?GetDisplayAttributes@CDrawingGraphData@@QBE?AVCDisplayAttributes@@XZ ENDP ; CDrawingGraphData::GetDisplayAttributes
_TEXT	ENDS
; Function compile flags: /Ogtp
; File D:\git\src\IBK\IBK_DRFN\ProjSrc\SrcChartEx\ChartOCX\Include_Chart\BaseData.cpp
;	COMDAT ?GetGraphDataDrawingData@CDrawingGraphData@@QBE?AVCGraphDataDrawingData@@XZ
_TEXT	SEGMENT
___$ReturnUdt$ = 8					; size = 4
?GetGraphDataDrawingData@CDrawingGraphData@@QBE?AVCGraphDataDrawingData@@XZ PROC ; CDrawingGraphData::GetGraphDataDrawingData, COMDAT
; _this$ = ecx

; 501  : {

  00000	55		 push	 ebp
  00001	8b ec		 mov	 ebp, esp

; 502  : 	return m_drawingData;

  00003	8d 81 9c 00 00
	00		 lea	 eax, DWORD PTR [ecx+156]
  00009	8b 4d 08	 mov	 ecx, DWORD PTR ___$ReturnUdt$[ebp]
  0000c	50		 push	 eax
  0000d	ff 15 00 00 00
	00		 call	 DWORD PTR __imp_??0CGraphDataDrawingData@@QAE@ABV0@@Z
  00013	8b 45 08	 mov	 eax, DWORD PTR ___$ReturnUdt$[ebp]

; 503  : }

  00016	5d		 pop	 ebp
  00017	c2 04 00	 ret	 4
?GetGraphDataDrawingData@CDrawingGraphData@@QBE?AVCGraphDataDrawingData@@XZ ENDP ; CDrawingGraphData::GetGraphDataDrawingData
_TEXT	ENDS
; Function compile flags: /Ogtp
; File D:\git\src\IBK\IBK_DRFN\ProjSrc\SrcChartEx\ChartOCX\Include_Chart\BaseData.cpp
;	COMDAT ?DoesDataTitleDraw@CDrawingGraphData@@QBE_NXZ
_TEXT	SEGMENT
?DoesDataTitleDraw@CDrawingGraphData@@QBE_NXZ PROC	; CDrawingGraphData::DoesDataTitleDraw, COMDAT
; _this$ = ecx

; 497  : 	return m_bIsDataTitleDraw;

  00000	8a 81 99 00 00
	00		 mov	 al, BYTE PTR [ecx+153]

; 498  : }

  00006	c3		 ret	 0
?DoesDataTitleDraw@CDrawingGraphData@@QBE_NXZ ENDP	; CDrawingGraphData::DoesDataTitleDraw
_TEXT	ENDS
; Function compile flags: /Ogtp
; File D:\git\src\IBK\IBK_DRFN\ProjSrc\SrcChartEx\ChartOCX\Include_Chart\BaseData.cpp
;	COMDAT ?DoesConditionTitleDraw@CDrawingGraphData@@QBE_NXZ
_TEXT	SEGMENT
?DoesConditionTitleDraw@CDrawingGraphData@@QBE_NXZ PROC	; CDrawingGraphData::DoesConditionTitleDraw, COMDAT
; _this$ = ecx

; 492  : 	return m_bIsConditionTitleDraw;

  00000	8a 81 98 00 00
	00		 mov	 al, BYTE PTR [ecx+152]

; 493  : }

  00006	c3		 ret	 0
?DoesConditionTitleDraw@CDrawingGraphData@@QBE_NXZ ENDP	; CDrawingGraphData::DoesConditionTitleDraw
_TEXT	ENDS
; Function compile flags: /Ogtp
; File D:\git\src\IBK\IBK_DRFN\ProjSrc\SrcChartEx\ChartOCX\Include_Chart\BaseData.cpp
;	COMDAT ?GetHorzScalePacketName@CDrawingGraphData@@QBE?AV?$CStringT@DV?$StrTraitMFC_DLL@DV?$ChTraitsCRT@D@ATL@@@@@ATL@@XZ
_TEXT	SEGMENT
___$ReturnUdt$ = 8					; size = 4
?GetHorzScalePacketName@CDrawingGraphData@@QBE?AV?$CStringT@DV?$StrTraitMFC_DLL@DV?$ChTraitsCRT@D@ATL@@@@@ATL@@XZ PROC ; CDrawingGraphData::GetHorzScalePacketName, COMDAT
; _this$ = ecx

; 486  : {

  00000	55		 push	 ebp
  00001	8b ec		 mov	 ebp, esp

; 487  : 	return m_strHorzScalePacketName;

  00003	8d 81 94 00 00
	00		 lea	 eax, DWORD PTR [ecx+148]
  00009	8b 4d 08	 mov	 ecx, DWORD PTR ___$ReturnUdt$[ebp]
  0000c	50		 push	 eax
  0000d	ff 15 00 00 00
	00		 call	 DWORD PTR __imp_??0?$CStringT@DV?$StrTraitMFC_DLL@DV?$ChTraitsCRT@D@ATL@@@@@ATL@@QAE@ABV01@@Z
  00013	8b 45 08	 mov	 eax, DWORD PTR ___$ReturnUdt$[ebp]

; 488  : }

  00016	5d		 pop	 ebp
  00017	c2 04 00	 ret	 4
?GetHorzScalePacketName@CDrawingGraphData@@QBE?AV?$CStringT@DV?$StrTraitMFC_DLL@DV?$ChTraitsCRT@D@ATL@@@@@ATL@@XZ ENDP ; CDrawingGraphData::GetHorzScalePacketName
_TEXT	ENDS
; Function compile flags: /Ogtp
; File D:\git\src\IBK\IBK_DRFN\ProjSrc\SrcChartEx\ChartOCX\Include_Chart\BaseData.cpp
;	COMDAT ?GetPacketName@CDrawingGraphData@@QBE?AV?$CStringT@DV?$StrTraitMFC_DLL@DV?$ChTraitsCRT@D@ATL@@@@@ATL@@XZ
_TEXT	SEGMENT
___$ReturnUdt$ = 8					; size = 4
?GetPacketName@CDrawingGraphData@@QBE?AV?$CStringT@DV?$StrTraitMFC_DLL@DV?$ChTraitsCRT@D@ATL@@@@@ATL@@XZ PROC ; CDrawingGraphData::GetPacketName, COMDAT
; _this$ = ecx

; 481  : {

  00000	55		 push	 ebp
  00001	8b ec		 mov	 ebp, esp

; 482  : 	return m_strPacketNames;

  00003	8d 81 90 00 00
	00		 lea	 eax, DWORD PTR [ecx+144]
  00009	8b 4d 08	 mov	 ecx, DWORD PTR ___$ReturnUdt$[ebp]
  0000c	50		 push	 eax
  0000d	ff 15 00 00 00
	00		 call	 DWORD PTR __imp_??0?$CStringT@DV?$StrTraitMFC_DLL@DV?$ChTraitsCRT@D@ATL@@@@@ATL@@QAE@ABV01@@Z
  00013	8b 45 08	 mov	 eax, DWORD PTR ___$ReturnUdt$[ebp]

; 483  : }

  00016	5d		 pop	 ebp
  00017	c2 04 00	 ret	 4
?GetPacketName@CDrawingGraphData@@QBE?AV?$CStringT@DV?$StrTraitMFC_DLL@DV?$ChTraitsCRT@D@ATL@@@@@ATL@@XZ ENDP ; CDrawingGraphData::GetPacketName
_TEXT	ENDS
; Function compile flags: /Ogtp
; File D:\git\src\IBK\IBK_DRFN\ProjSrc\SrcChartEx\ChartOCX\Include_Chart\BaseData.cpp
;	COMDAT ?GetGraphName@CDrawingGraphData@@QBE?AV?$CStringT@DV?$StrTraitMFC_DLL@DV?$ChTraitsCRT@D@ATL@@@@@ATL@@XZ
_TEXT	SEGMENT
___$ReturnUdt$ = 8					; size = 4
?GetGraphName@CDrawingGraphData@@QBE?AV?$CStringT@DV?$StrTraitMFC_DLL@DV?$ChTraitsCRT@D@ATL@@@@@ATL@@XZ PROC ; CDrawingGraphData::GetGraphName, COMDAT
; _this$ = ecx

; 476  : {

  00000	55		 push	 ebp
  00001	8b ec		 mov	 ebp, esp

; 477  : 	return m_strGraphName;

  00003	8d 81 8c 00 00
	00		 lea	 eax, DWORD PTR [ecx+140]
  00009	8b 4d 08	 mov	 ecx, DWORD PTR ___$ReturnUdt$[ebp]
  0000c	50		 push	 eax
  0000d	ff 15 00 00 00
	00		 call	 DWORD PTR __imp_??0?$CStringT@DV?$StrTraitMFC_DLL@DV?$ChTraitsCRT@D@ATL@@@@@ATL@@QAE@ABV01@@Z
  00013	8b 45 08	 mov	 eax, DWORD PTR ___$ReturnUdt$[ebp]

; 478  : }

  00016	5d		 pop	 ebp
  00017	c2 04 00	 ret	 4
?GetGraphName@CDrawingGraphData@@QBE?AV?$CStringT@DV?$StrTraitMFC_DLL@DV?$ChTraitsCRT@D@ATL@@@@@ATL@@XZ ENDP ; CDrawingGraphData::GetGraphName
_TEXT	ENDS
; Function compile flags: /Ogtp
; File D:\git\src\IBK\IBK_DRFN\ProjSrc\SrcChartEx\ChartOCX\Include_Chart\BaseData.cpp
;	COMDAT ?GetDisplayDataVertMinMax@CDrawingGraphData@@QBE?AVCDisplayDataMinMax@@XZ
_TEXT	SEGMENT
___$ReturnUdt$ = 8					; size = 4
?GetDisplayDataVertMinMax@CDrawingGraphData@@QBE?AVCDisplayDataMinMax@@XZ PROC ; CDrawingGraphData::GetDisplayDataVertMinMax, COMDAT
; _this$ = ecx

; 471  : {

  00000	55		 push	 ebp
  00001	8b ec		 mov	 ebp, esp

; 472  : 	return m_displayDataVertMinMax;

  00003	8b 45 08	 mov	 eax, DWORD PTR ___$ReturnUdt$[ebp]
  00006	0f 10 41 78	 movups	 xmm0, XMMWORD PTR [ecx+120]
  0000a	0f 11 00	 movups	 XMMWORD PTR [eax], xmm0

; 473  : }

  0000d	5d		 pop	 ebp
  0000e	c2 04 00	 ret	 4
?GetDisplayDataVertMinMax@CDrawingGraphData@@QBE?AVCDisplayDataMinMax@@XZ ENDP ; CDrawingGraphData::GetDisplayDataVertMinMax
_TEXT	ENDS
; Function compile flags: /Ogtp
; File D:\git\src\IBK\IBK_DRFN\ProjSrc\SrcChartEx\ChartOCX\Include_Chart\BaseData.cpp
;	COMDAT ?GetDisplayDataHorzMinMax@CDrawingGraphData@@QBE?AVCDisplayDataMinMax@@XZ
_TEXT	SEGMENT
___$ReturnUdt$ = 8					; size = 4
?GetDisplayDataHorzMinMax@CDrawingGraphData@@QBE?AVCDisplayDataMinMax@@XZ PROC ; CDrawingGraphData::GetDisplayDataHorzMinMax, COMDAT
; _this$ = ecx

; 466  : {

  00000	55		 push	 ebp
  00001	8b ec		 mov	 ebp, esp

; 467  : 	return m_displayDataHorzMinMax;

  00003	8b 45 08	 mov	 eax, DWORD PTR ___$ReturnUdt$[ebp]
  00006	0f 10 41 68	 movups	 xmm0, XMMWORD PTR [ecx+104]
  0000a	0f 11 00	 movups	 XMMWORD PTR [eax], xmm0

; 468  : }

  0000d	5d		 pop	 ebp
  0000e	c2 04 00	 ret	 4
?GetDisplayDataHorzMinMax@CDrawingGraphData@@QBE?AVCDisplayDataMinMax@@XZ ENDP ; CDrawingGraphData::GetDisplayDataHorzMinMax
_TEXT	ENDS
; Function compile flags: /Ogtp
; File D:\git\src\IBK\IBK_DRFN\ProjSrc\SrcChartEx\ChartOCX\Include_Chart\BaseData.cpp
;	COMDAT ?GetRightScaleTextRegion@CDrawingGraphData@@QBE?AVCRect@@XZ
_TEXT	SEGMENT
___$ReturnUdt$ = 8					; size = 4
?GetRightScaleTextRegion@CDrawingGraphData@@QBE?AVCRect@@XZ PROC ; CDrawingGraphData::GetRightScaleTextRegion, COMDAT
; _this$ = ecx

; 461  : {

  00000	55		 push	 ebp
  00001	8b ec		 mov	 ebp, esp

; 462  : 	return m_scaleRightTextRegion;

  00003	8b 45 08	 mov	 eax, DWORD PTR ___$ReturnUdt$[ebp]
  00006	0f 10 41 58	 movups	 xmm0, XMMWORD PTR [ecx+88]
  0000a	0f 11 00	 movups	 XMMWORD PTR [eax], xmm0

; 463  : }

  0000d	5d		 pop	 ebp
  0000e	c2 04 00	 ret	 4
?GetRightScaleTextRegion@CDrawingGraphData@@QBE?AVCRect@@XZ ENDP ; CDrawingGraphData::GetRightScaleTextRegion
_TEXT	ENDS
; Function compile flags: /Ogtp
; File D:\git\src\IBK\IBK_DRFN\ProjSrc\SrcChartEx\ChartOCX\Include_Chart\BaseData.cpp
;	COMDAT ?GetLeftScaleTextRegion@CDrawingGraphData@@QBE?AVCRect@@XZ
_TEXT	SEGMENT
___$ReturnUdt$ = 8					; size = 4
?GetLeftScaleTextRegion@CDrawingGraphData@@QBE?AVCRect@@XZ PROC ; CDrawingGraphData::GetLeftScaleTextRegion, COMDAT
; _this$ = ecx

; 455  : {

  00000	55		 push	 ebp
  00001	8b ec		 mov	 ebp, esp

; 456  : 	return m_scaleLeftTextRegion;

  00003	8b 45 08	 mov	 eax, DWORD PTR ___$ReturnUdt$[ebp]
  00006	0f 10 41 48	 movups	 xmm0, XMMWORD PTR [ecx+72]
  0000a	0f 11 00	 movups	 XMMWORD PTR [eax], xmm0

; 457  : }

  0000d	5d		 pop	 ebp
  0000e	c2 04 00	 ret	 4
?GetLeftScaleTextRegion@CDrawingGraphData@@QBE?AVCRect@@XZ ENDP ; CDrawingGraphData::GetLeftScaleTextRegion
_TEXT	ENDS
; Function compile flags: /Ogtp
; File D:\git\src\IBK\IBK_DRFN\ProjSrc\SrcChartEx\ChartOCX\Include_Chart\BaseData.cpp
;	COMDAT ?GetScaleTextRegion@CDrawingGraphData@@QBE?AVCRect@@XZ
_TEXT	SEGMENT
___$ReturnUdt$ = 8					; size = 4
?GetScaleTextRegion@CDrawingGraphData@@QBE?AVCRect@@XZ PROC ; CDrawingGraphData::GetScaleTextRegion, COMDAT
; _this$ = ecx

; 443  : {

  00000	55		 push	 ebp
  00001	8b ec		 mov	 ebp, esp

; 444  : 	// Y Scale    - ojtaso (20070807)
; 445  : 	if(m_eVertPos == CScaleBaseData::VERTSCALEPOSITION::VERT_RIGHT)

  00003	8b 81 e0 00 00
	00		 mov	 eax, DWORD PTR [ecx+224]
  00009	83 f8 01	 cmp	 eax, 1
  0000c	74 12		 je	 SHORT $LN4@GetScaleTe

; 446  : 		return m_scaleRightTextRegion;
; 447  : 	else if(m_eVertPos == CScaleBaseData::VERTSCALEPOSITION::VERT_LEFT)

  0000e	85 c0		 test	 eax, eax
  00010	75 0e		 jne	 SHORT $LN4@GetScaleTe

; 448  : 		return m_scaleLeftTextRegion;
; 449  : 	else
; 450  : 		return m_scaleRightTextRegion;
; 451  : }

  00012	8b 45 08	 mov	 eax, DWORD PTR ___$ReturnUdt$[ebp]
  00015	0f 10 41 48	 movups	 xmm0, XMMWORD PTR [ecx+72]
  00019	0f 11 00	 movups	 XMMWORD PTR [eax], xmm0
  0001c	5d		 pop	 ebp
  0001d	c2 04 00	 ret	 4
$LN4@GetScaleTe:
  00020	8b 45 08	 mov	 eax, DWORD PTR ___$ReturnUdt$[ebp]
  00023	0f 10 41 58	 movups	 xmm0, XMMWORD PTR [ecx+88]
  00027	0f 11 00	 movups	 XMMWORD PTR [eax], xmm0
  0002a	5d		 pop	 ebp
  0002b	c2 04 00	 ret	 4
?GetScaleTextRegion@CDrawingGraphData@@QBE?AVCRect@@XZ ENDP ; CDrawingGraphData::GetScaleTextRegion
_TEXT	ENDS
; Function compile flags: /Ogtp
; File D:\git\src\IBK\IBK_DRFN\ProjSrc\SrcChartEx\ChartOCX\Include_Chart\BaseData.cpp
;	COMDAT ?GetGraphRegions@CDrawingGraphData@@QBEABVCGraphRegions@@XZ
_TEXT	SEGMENT
?GetGraphRegions@CDrawingGraphData@@QBEABVCGraphRegions@@XZ PROC ; CDrawingGraphData::GetGraphRegions, COMDAT
; _this$ = ecx

; 439  : 	return m_graphRegions;

  00000	8d 41 04	 lea	 eax, DWORD PTR [ecx+4]

; 440  : }

  00003	c3		 ret	 0
?GetGraphRegions@CDrawingGraphData@@QBEABVCGraphRegions@@XZ ENDP ; CDrawingGraphData::GetGraphRegions
_TEXT	ENDS
; Function compile flags: /Ogtp
; File D:\git\src\IBK\IBK_DRFN\ProjSrc\SrcChartEx\ChartOCX\Include_Chart\BaseData.cpp
;	COMDAT ?DoesVertScaleInvertType@CDrawingGraphData@@QBE_NXZ
_TEXT	SEGMENT
?DoesVertScaleInvertType@CDrawingGraphData@@QBE_NXZ PROC ; CDrawingGraphData::DoesVertScaleInvertType, COMDAT
; _this$ = ecx

; 428  : 	return m_bIsVertScaleInvertType;

  00000	8a 81 89 00 00
	00		 mov	 al, BYTE PTR [ecx+137]

; 429  : }

  00006	c3		 ret	 0
?DoesVertScaleInvertType@CDrawingGraphData@@QBE_NXZ ENDP ; CDrawingGraphData::DoesVertScaleInvertType
_TEXT	ENDS
; Function compile flags: /Ogtp
; File D:\git\src\IBK\IBK_DRFN\ProjSrc\SrcChartEx\ChartOCX\Include_Chart\BaseData.cpp
;	COMDAT ?DoesVertScaleLogType@CDrawingGraphData@@QBE_NXZ
_TEXT	SEGMENT
?DoesVertScaleLogType@CDrawingGraphData@@QBE_NXZ PROC	; CDrawingGraphData::DoesVertScaleLogType, COMDAT
; _this$ = ecx

; 423  : 	return m_bIsVertScaleLogType;

  00000	8a 81 88 00 00
	00		 mov	 al, BYTE PTR [ecx+136]

; 424  : }

  00006	c3		 ret	 0
?DoesVertScaleLogType@CDrawingGraphData@@QBE_NXZ ENDP	; CDrawingGraphData::DoesVertScaleLogType
_TEXT	ENDS
; Function compile flags: /Ogtp
; File D:\git\src\IBK\IBK_DRFN\ProjSrc\SrcChartEx\ChartOCX\Include_Chart\BaseData.cpp
;	COMDAT ?GetDrawingOrderType@CDrawingGraphData@@QBE?AW4DRAWINGORDER@CDrawingOption@@XZ
_TEXT	SEGMENT
?GetDrawingOrderType@CDrawingGraphData@@QBE?AW4DRAWINGORDER@CDrawingOption@@XZ PROC ; CDrawingGraphData::GetDrawingOrderType, COMDAT
; _this$ = ecx

; 418  : 	return m_eDrawingOrderType;

  00000	8b 01		 mov	 eax, DWORD PTR [ecx]

; 419  : }

  00002	c3		 ret	 0
?GetDrawingOrderType@CDrawingGraphData@@QBE?AW4DRAWINGORDER@CDrawingOption@@XZ ENDP ; CDrawingGraphData::GetDrawingOrderType
_TEXT	ENDS
; Function compile flags: /Ogtp
; File D:\git\src\IBK\IBK_DRFN\ProjSrc\SrcChartEx\ChartOCX\Include_Chart\BaseData.cpp
;	COMDAT ?SetSubGraphPacketList@CDrawingGraphData@@QAEXPAVCSubGraphPacketList@@@Z
_TEXT	SEGMENT
_pSubGraphPacketList$ = 8				; size = 4
?SetSubGraphPacketList@CDrawingGraphData@@QAEXPAVCSubGraphPacketList@@@Z PROC ; CDrawingGraphData::SetSubGraphPacketList, COMDAT
; _this$ = ecx

; 411  : {

  00000	55		 push	 ebp
  00001	8b ec		 mov	 ebp, esp

; 412  : 	m_pSubGraphPacketList = pSubGraphPacketList;

  00003	8b 45 08	 mov	 eax, DWORD PTR _pSubGraphPacketList$[ebp]
  00006	89 81 d0 00 00
	00		 mov	 DWORD PTR [ecx+208], eax

; 413  : }

  0000c	5d		 pop	 ebp
  0000d	c2 04 00	 ret	 4
?SetSubGraphPacketList@CDrawingGraphData@@QAEXPAVCSubGraphPacketList@@@Z ENDP ; CDrawingGraphData::SetSubGraphPacketList
_TEXT	ENDS
; Function compile flags: /Ogtp
; File D:\git\src\IBK\IBK_DRFN\ProjSrc\SrcChartEx\ChartOCX\Include_Chart\BaseData.cpp
;	COMDAT ?SetIndicatorInfo@CDrawingGraphData@@QAEXPAVCIndicatorInfo@@@Z
_TEXT	SEGMENT
_pIndiInfo$ = 8						; size = 4
?SetIndicatorInfo@CDrawingGraphData@@QAEXPAVCIndicatorInfo@@@Z PROC ; CDrawingGraphData::SetIndicatorInfo, COMDAT
; _this$ = ecx

; 406  : {

  00000	55		 push	 ebp
  00001	8b ec		 mov	 ebp, esp

; 407  : 	m_pIndiInfo = pIndiInfo;

  00003	8b 45 08	 mov	 eax, DWORD PTR _pIndiInfo$[ebp]
  00006	89 81 cc 00 00
	00		 mov	 DWORD PTR [ecx+204], eax

; 408  : }

  0000c	5d		 pop	 ebp
  0000d	c2 04 00	 ret	 4
?SetIndicatorInfo@CDrawingGraphData@@QAEXPAVCIndicatorInfo@@@Z ENDP ; CDrawingGraphData::SetIndicatorInfo
_TEXT	ENDS
; Function compile flags: /Ogtp
; File D:\git\src\IBK\IBK_DRFN\ProjSrc\SrcChartEx\ChartOCX\Include_Chart\BaseData.cpp
;	COMDAT ?SetPriceChartColor@CDrawingGraphData@@QAEXPAVCGraphColor@@@Z
_TEXT	SEGMENT
_pGraphColor$ = 8					; size = 4
?SetPriceChartColor@CDrawingGraphData@@QAEXPAVCGraphColor@@@Z PROC ; CDrawingGraphData::SetPriceChartColor, COMDAT
; _this$ = ecx

; 401  : {

  00000	55		 push	 ebp
  00001	8b ec		 mov	 ebp, esp

; 402  : 	m_pPriceChartColor = pGraphColor;

  00003	8b 45 08	 mov	 eax, DWORD PTR _pGraphColor$[ebp]
  00006	89 81 c8 00 00
	00		 mov	 DWORD PTR [ecx+200], eax

; 403  : }

  0000c	5d		 pop	 ebp
  0000d	c2 04 00	 ret	 4
?SetPriceChartColor@CDrawingGraphData@@QAEXPAVCGraphColor@@@Z ENDP ; CDrawingGraphData::SetPriceChartColor
_TEXT	ENDS
; Function compile flags: /Ogtp
; File D:\git\src\IBK\IBK_DRFN\ProjSrc\SrcChartEx\ChartOCX\Include_Chart\BaseData.cpp
;	COMDAT ?SetGraphDataDrawingData@CDrawingGraphData@@QAEXABVCGraphDataDrawingData@@@Z
_TEXT	SEGMENT
_graphDataDrawingData$ = 8				; size = 4
?SetGraphDataDrawingData@CDrawingGraphData@@QAEXABVCGraphDataDrawingData@@@Z PROC ; CDrawingGraphData::SetGraphDataDrawingData, COMDAT
; _this$ = ecx

; 396  : {

  00000	55		 push	 ebp
  00001	8b ec		 mov	 ebp, esp

; 397  : 	m_drawingData = graphDataDrawingData;

  00003	81 c1 9c 00 00
	00		 add	 ecx, 156		; 0000009cH

; 398  : }

  00009	5d		 pop	 ebp

; 397  : 	m_drawingData = graphDataDrawingData;

  0000a	ff 25 00 00 00
	00		 jmp	 DWORD PTR __imp_??4CGraphDataDrawingData@@QAEAAV0@ABV0@@Z
?SetGraphDataDrawingData@CDrawingGraphData@@QAEXABVCGraphDataDrawingData@@@Z ENDP ; CDrawingGraphData::SetGraphDataDrawingData
_TEXT	ENDS
; Function compile flags: /Ogtp
; File D:\git\src\IBK\IBK_DRFN\ProjSrc\SrcChartEx\ChartOCX\Include_Chart\BaseData.cpp
;	COMDAT ?SetDataTitleDraw@CDrawingGraphData@@QAEX_N@Z
_TEXT	SEGMENT
_bIsDataTitleDraw$ = 8					; size = 1
?SetDataTitleDraw@CDrawingGraphData@@QAEX_N@Z PROC	; CDrawingGraphData::SetDataTitleDraw, COMDAT
; _this$ = ecx

; 391  : {

  00000	55		 push	 ebp
  00001	8b ec		 mov	 ebp, esp

; 392  : 	m_bIsDataTitleDraw = bIsDataTitleDraw;

  00003	8a 45 08	 mov	 al, BYTE PTR _bIsDataTitleDraw$[ebp]
  00006	88 81 99 00 00
	00		 mov	 BYTE PTR [ecx+153], al

; 393  : }

  0000c	5d		 pop	 ebp
  0000d	c2 04 00	 ret	 4
?SetDataTitleDraw@CDrawingGraphData@@QAEX_N@Z ENDP	; CDrawingGraphData::SetDataTitleDraw
_TEXT	ENDS
; Function compile flags: /Ogtp
; File D:\git\src\IBK\IBK_DRFN\ProjSrc\SrcChartEx\ChartOCX\Include_Chart\BaseData.cpp
;	COMDAT ?SetConditionTitleDraw@CDrawingGraphData@@QAEX_N@Z
_TEXT	SEGMENT
_bIsConditionTitleDraw$ = 8				; size = 1
?SetConditionTitleDraw@CDrawingGraphData@@QAEX_N@Z PROC	; CDrawingGraphData::SetConditionTitleDraw, COMDAT
; _this$ = ecx

; 386  : {

  00000	55		 push	 ebp
  00001	8b ec		 mov	 ebp, esp

; 387  : 	m_bIsConditionTitleDraw = bIsConditionTitleDraw;

  00003	8a 45 08	 mov	 al, BYTE PTR _bIsConditionTitleDraw$[ebp]
  00006	88 81 98 00 00
	00		 mov	 BYTE PTR [ecx+152], al

; 388  : }

  0000c	5d		 pop	 ebp
  0000d	c2 04 00	 ret	 4
?SetConditionTitleDraw@CDrawingGraphData@@QAEX_N@Z ENDP	; CDrawingGraphData::SetConditionTitleDraw
_TEXT	ENDS
; Function compile flags: /Ogtp
; File D:\git\src\IBK\IBK_DRFN\ProjSrc\SrcChartEx\ChartOCX\Include_Chart\BaseData.cpp
;	COMDAT ?SetTitleDraw@CDrawingGraphData@@QAEX_N0@Z
_TEXT	SEGMENT
_bIsConditionTitleDraw$ = 8				; size = 1
_bIsDataTitleDraw$ = 12					; size = 1
?SetTitleDraw@CDrawingGraphData@@QAEX_N0@Z PROC		; CDrawingGraphData::SetTitleDraw, COMDAT
; _this$ = ecx

; 380  : {

  00000	55		 push	 ebp
  00001	8b ec		 mov	 ebp, esp

; 381  : 	m_bIsConditionTitleDraw = bIsConditionTitleDraw;

  00003	8a 45 08	 mov	 al, BYTE PTR _bIsConditionTitleDraw$[ebp]
  00006	88 81 98 00 00
	00		 mov	 BYTE PTR [ecx+152], al

; 382  : 	m_bIsDataTitleDraw = bIsDataTitleDraw;

  0000c	8a 45 0c	 mov	 al, BYTE PTR _bIsDataTitleDraw$[ebp]
  0000f	88 81 99 00 00
	00		 mov	 BYTE PTR [ecx+153], al

; 383  : }

  00015	5d		 pop	 ebp
  00016	c2 08 00	 ret	 8
?SetTitleDraw@CDrawingGraphData@@QAEX_N0@Z ENDP		; CDrawingGraphData::SetTitleDraw
_TEXT	ENDS
; Function compile flags: /Ogtp
; File D:\git\src\IBK\IBK_DRFN\ProjSrc\SrcChartEx\ChartOCX\Include_Chart\BaseData.cpp
;	COMDAT ?SetPacketNames@CDrawingGraphData@@QAEXABV?$CStringT@DV?$StrTraitMFC_DLL@DV?$ChTraitsCRT@D@ATL@@@@@ATL@@@Z
_TEXT	SEGMENT
_packetNames$ = 8					; size = 4
?SetPacketNames@CDrawingGraphData@@QAEXABV?$CStringT@DV?$StrTraitMFC_DLL@DV?$ChTraitsCRT@D@ATL@@@@@ATL@@@Z PROC ; CDrawingGraphData::SetPacketNames, COMDAT
; _this$ = ecx

; 375  : {

  00000	55		 push	 ebp
  00001	8b ec		 mov	 ebp, esp

; 376  : 	m_strPacketNames = packetNames;

  00003	81 c1 90 00 00
	00		 add	 ecx, 144		; 00000090H

; 377  : }

  00009	5d		 pop	 ebp

; 376  : 	m_strPacketNames = packetNames;

  0000a	ff 25 00 00 00
	00		 jmp	 DWORD PTR __imp_??4?$CStringT@DV?$StrTraitMFC_DLL@DV?$ChTraitsCRT@D@ATL@@@@@ATL@@QAEAAV01@ABV01@@Z
?SetPacketNames@CDrawingGraphData@@QAEXABV?$CStringT@DV?$StrTraitMFC_DLL@DV?$ChTraitsCRT@D@ATL@@@@@ATL@@@Z ENDP ; CDrawingGraphData::SetPacketNames
_TEXT	ENDS
; Function compile flags: /Ogtp
; File D:\git\src\IBK\IBK_DRFN\ProjSrc\SrcChartEx\ChartOCX\Include_Chart\BaseData.cpp
;	COMDAT ?SetGraphName@CDrawingGraphData@@QAEXABV?$CStringT@DV?$StrTraitMFC_DLL@DV?$ChTraitsCRT@D@ATL@@@@@ATL@@@Z
_TEXT	SEGMENT
_GraphName$ = 8						; size = 4
?SetGraphName@CDrawingGraphData@@QAEXABV?$CStringT@DV?$StrTraitMFC_DLL@DV?$ChTraitsCRT@D@ATL@@@@@ATL@@@Z PROC ; CDrawingGraphData::SetGraphName, COMDAT
; _this$ = ecx

; 370  : {

  00000	55		 push	 ebp
  00001	8b ec		 mov	 ebp, esp

; 371  : 	m_strGraphName = GraphName;

  00003	81 c1 8c 00 00
	00		 add	 ecx, 140		; 0000008cH

; 372  : }

  00009	5d		 pop	 ebp

; 371  : 	m_strGraphName = GraphName;

  0000a	ff 25 00 00 00
	00		 jmp	 DWORD PTR __imp_??4?$CStringT@DV?$StrTraitMFC_DLL@DV?$ChTraitsCRT@D@ATL@@@@@ATL@@QAEAAV01@ABV01@@Z
?SetGraphName@CDrawingGraphData@@QAEXABV?$CStringT@DV?$StrTraitMFC_DLL@DV?$ChTraitsCRT@D@ATL@@@@@ATL@@@Z ENDP ; CDrawingGraphData::SetGraphName
_TEXT	ENDS
; Function compile flags: /Ogtp
; File D:\git\src\IBK\IBK_DRFN\ProjSrc\SrcChartEx\ChartOCX\Include_Chart\BaseData.cpp
;	COMDAT ?SetDisplayDataVertMinMax@CDrawingGraphData@@QAEXABVCDisplayDataMinMax@@@Z
_TEXT	SEGMENT
_displayDataVertMinMax$ = 8				; size = 4
?SetDisplayDataVertMinMax@CDrawingGraphData@@QAEXABVCDisplayDataMinMax@@@Z PROC ; CDrawingGraphData::SetDisplayDataVertMinMax, COMDAT
; _this$ = ecx

; 365  : {

  00000	55		 push	 ebp
  00001	8b ec		 mov	 ebp, esp

; 366  : 	m_displayDataVertMinMax = displayDataVertMinMax;

  00003	83 c1 78	 add	 ecx, 120		; 00000078H

; 367  : }

  00006	5d		 pop	 ebp

; 366  : 	m_displayDataVertMinMax = displayDataVertMinMax;

  00007	e9 00 00 00 00	 jmp	 ??4CDisplayDataMinMax@@QAEAAV0@ABV0@@Z ; CDisplayDataMinMax::operator=
?SetDisplayDataVertMinMax@CDrawingGraphData@@QAEXABVCDisplayDataMinMax@@@Z ENDP ; CDrawingGraphData::SetDisplayDataVertMinMax
_TEXT	ENDS
; Function compile flags: /Ogtp
; File D:\git\src\IBK\IBK_DRFN\ProjSrc\SrcChartEx\ChartOCX\Include_Chart\BaseData.cpp
;	COMDAT ??0CDrawingGraphData@@QAE@PAVCIndicatorList@@W4DRAWINGORDER@CDrawingOption@@ABVCGraphRegions@@ABVCRect@@3ABVCDisplayDataMinMax@@ABV?$CStringT@DV?$StrTraitMFC_DLL@DV?$ChTraitsCRT@D@ATL@@@@@ATL@@ABVCEtcGraphColor@@ABVCDisplayAttributes@@_N888PAVCPacketList@@H8PAUHWND__@@HW4CHART_MODE@CChartInfo@@PAVCMainBlock@@@Z
_TEXT	SEGMENT
_this$ = -16						; size = 4
__$EHRec$ = -12						; size = 12
_pIndicatorList$ = 8					; size = 4
_eDrawingOrderType$ = 12				; size = 4
_graphRegions$ = 16					; size = 4
_scaleLeftTextRegion$ = 20				; size = 4
_scaleRightTextRegion$ = 24				; size = 4
_displayDataHorzMinMax$ = 28				; size = 4
_horzScalePacketName$ = 32				; size = 4
_etcGraphColor$ = 36					; size = 4
_displayAttributes$ = 40				; size = 4
_bIsVertScaleLogType$ = 44				; size = 1
_bIsVertScaleInvertType$ = 48				; size = 1
_bIsConditionTitleDraw$ = 52				; size = 1
_bIsDataTitleDraw$ = 56					; size = 1
_p_pPacketList$ = 60					; size = 4
_p_bWithBaseText$ = 64					; size = 4
_bDrawBaseLine$ = 68					; size = 1
_p_hOcxWnd$ = 72					; size = 4
_p_nColumn$ = 76					; size = 4
_p_eChartMode$ = 80					; size = 4
_pMainBlock$ = 84					; size = 4
??0CDrawingGraphData@@QAE@PAVCIndicatorList@@W4DRAWINGORDER@CDrawingOption@@ABVCGraphRegions@@ABVCRect@@3ABVCDisplayDataMinMax@@ABV?$CStringT@DV?$StrTraitMFC_DLL@DV?$ChTraitsCRT@D@ATL@@@@@ATL@@ABVCEtcGraphColor@@ABVCDisplayAttributes@@_N888PAVCPacketList@@H8PAUHWND__@@HW4CHART_MODE@CChartInfo@@PAVCMainBlock@@@Z PROC ; CDrawingGraphData::CDrawingGraphData, COMDAT
; _this$ = ecx

; 350  : {

  00000	55		 push	 ebp
  00001	8b ec		 mov	 ebp, esp
  00003	6a ff		 push	 -1
  00005	68 00 00 00 00	 push	 __ehhandler$??0CDrawingGraphData@@QAE@PAVCIndicatorList@@W4DRAWINGORDER@CDrawingOption@@ABVCGraphRegions@@ABVCRect@@3ABVCDisplayDataMinMax@@ABV?$CStringT@DV?$StrTraitMFC_DLL@DV?$ChTraitsCRT@D@ATL@@@@@ATL@@ABVCEtcGraphColor@@ABVCDisplayAttributes@@_N888PAVCPacketList@@H8PAUHWND__@@HW4CHART_MODE@CChartInfo@@PAVCMainBlock@@@Z
  0000a	64 a1 00 00 00
	00		 mov	 eax, DWORD PTR fs:0
  00010	50		 push	 eax
  00011	51		 push	 ecx
  00012	56		 push	 esi
  00013	a1 00 00 00 00	 mov	 eax, DWORD PTR ___security_cookie
  00018	33 c5		 xor	 eax, ebp
  0001a	50		 push	 eax
  0001b	8d 45 f4	 lea	 eax, DWORD PTR __$EHRec$[ebp]
  0001e	64 a3 00 00 00
	00		 mov	 DWORD PTR fs:0, eax
  00024	8b f1		 mov	 esi, ecx
  00026	89 75 f0	 mov	 DWORD PTR _this$[ebp], esi

; 330  : 	m_eDrawingOrderType(eDrawingOrderType),

  00029	8b 45 0c	 mov	 eax, DWORD PTR _eDrawingOrderType$[ebp]

; 350  : {

  0002c	8d 4e 78	 lea	 ecx, DWORD PTR [esi+120]
  0002f	89 06		 mov	 DWORD PTR [esi], eax
  00031	8b 45 10	 mov	 eax, DWORD PTR _graphRegions$[ebp]
  00034	0f 10 00	 movups	 xmm0, XMMWORD PTR [eax]
  00037	0f 11 46 04	 movups	 XMMWORD PTR [esi+4], xmm0
  0003b	0f 10 40 10	 movups	 xmm0, XMMWORD PTR [eax+16]
  0003f	0f 11 46 14	 movups	 XMMWORD PTR [esi+20], xmm0
  00043	0f 10 40 20	 movups	 xmm0, XMMWORD PTR [eax+32]
  00047	0f 11 46 24	 movups	 XMMWORD PTR [esi+36], xmm0
  0004b	0f 10 40 30	 movups	 xmm0, XMMWORD PTR [eax+48]
  0004f	0f 11 46 34	 movups	 XMMWORD PTR [esi+52], xmm0
  00053	8b 40 40	 mov	 eax, DWORD PTR [eax+64]
  00056	89 46 44	 mov	 DWORD PTR [esi+68], eax
  00059	8b 45 14	 mov	 eax, DWORD PTR _scaleLeftTextRegion$[ebp]
  0005c	0f 10 00	 movups	 xmm0, XMMWORD PTR [eax]
  0005f	8b 45 18	 mov	 eax, DWORD PTR _scaleRightTextRegion$[ebp]
  00062	0f 11 46 48	 movups	 XMMWORD PTR [esi+72], xmm0
  00066	0f 10 00	 movups	 xmm0, XMMWORD PTR [eax]
  00069	8b 45 1c	 mov	 eax, DWORD PTR _displayDataHorzMinMax$[ebp]
  0006c	0f 11 46 58	 movups	 XMMWORD PTR [esi+88], xmm0
  00070	0f 10 00	 movups	 xmm0, XMMWORD PTR [eax]
  00073	0f 11 46 68	 movups	 XMMWORD PTR [esi+104], xmm0
  00077	e8 00 00 00 00	 call	 ??0CDisplayDataMinMax@@QAE@XZ ; CDisplayDataMinMax::CDisplayDataMinMax

; 338  : 	m_bIsVertScaleLogType(bIsVertScaleLogType),

  0007c	8a 45 2c	 mov	 al, BYTE PTR _bIsVertScaleLogType$[ebp]

; 350  : {

  0007f	8d 8e 8c 00 00
	00		 lea	 ecx, DWORD PTR [esi+140]
  00085	88 86 88 00 00
	00		 mov	 BYTE PTR [esi+136], al
  0008b	8a 45 30	 mov	 al, BYTE PTR _bIsVertScaleInvertType$[ebp]
  0008e	88 86 89 00 00
	00		 mov	 BYTE PTR [esi+137], al
  00094	ff 15 00 00 00
	00		 call	 DWORD PTR __imp_??0?$CStringT@DV?$StrTraitMFC_DLL@DV?$ChTraitsCRT@D@ATL@@@@@ATL@@QAE@XZ
  0009a	8d 8e 90 00 00
	00		 lea	 ecx, DWORD PTR [esi+144]
  000a0	c7 45 fc 00 00
	00 00		 mov	 DWORD PTR __$EHRec$[ebp+8], 0
  000a7	ff 15 00 00 00
	00		 call	 DWORD PTR __imp_??0?$CStringT@DV?$StrTraitMFC_DLL@DV?$ChTraitsCRT@D@ATL@@@@@ATL@@QAE@XZ

; 331  : 	m_graphRegions(graphRegions),
; 332  : 	m_scaleLeftTextRegion(scaleLeftTextRegion),		// Y Scale    - ojtaso (20070807)
; 333  : 	m_scaleRightTextRegion(scaleRightTextRegion),	// Y Scale    - ojtaso (20070807)
; 334  : 	m_displayDataHorzMinMax(displayDataHorzMinMax),
; 335  : 	m_strHorzScalePacketName(horzScalePacketName),

  000ad	ff 75 20	 push	 DWORD PTR _horzScalePacketName$[ebp]
  000b0	8d 8e 94 00 00
	00		 lea	 ecx, DWORD PTR [esi+148]
  000b6	c6 45 fc 01	 mov	 BYTE PTR __$EHRec$[ebp+8], 1
  000ba	ff 15 00 00 00
	00		 call	 DWORD PTR __imp_??0?$CStringT@DV?$StrTraitMFC_DLL@DV?$ChTraitsCRT@D@ATL@@@@@ATL@@QAE@ABV01@@Z

; 339  : 	m_bIsVertScaleInvertType(bIsVertScaleInvertType),
; 340  : 	m_bIsConditionTitleDraw(bIsConditionTitleDraw),

  000c0	8a 45 34	 mov	 al, BYTE PTR _bIsConditionTitleDraw$[ebp]

; 350  : {

  000c3	8d 8e 9c 00 00
	00		 lea	 ecx, DWORD PTR [esi+156]
  000c9	88 86 98 00 00
	00		 mov	 BYTE PTR [esi+152], al
  000cf	8a 45 38	 mov	 al, BYTE PTR _bIsDataTitleDraw$[ebp]
  000d2	c6 45 fc 02	 mov	 BYTE PTR __$EHRec$[ebp+8], 2
  000d6	88 86 99 00 00
	00		 mov	 BYTE PTR [esi+153], al
  000dc	ff 15 00 00 00
	00		 call	 DWORD PTR __imp_??0CGraphDataDrawingData@@QAE@XZ

; 337  : 	m_displayAttributes(displayAttributes),

  000e2	8b 45 28	 mov	 eax, DWORD PTR _displayAttributes$[ebp]
  000e5	8b 08		 mov	 ecx, DWORD PTR [eax]
  000e7	8b 40 04	 mov	 eax, DWORD PTR [eax+4]
  000ea	89 86 ac 00 00
	00		 mov	 DWORD PTR [esi+172], eax

; 336  : 	m_etcGraphColor(etcGraphColor),

  000f0	8b 45 24	 mov	 eax, DWORD PTR _etcGraphColor$[ebp]
  000f3	89 8e a8 00 00
	00		 mov	 DWORD PTR [esi+168], ecx
  000f9	0f 10 00	 movups	 xmm0, XMMWORD PTR [eax]
  000fc	0f 11 86 b0 00
	00 00		 movups	 XMMWORD PTR [esi+176], xmm0
  00103	f3 0f 7e 40 10	 movq	 xmm0, QWORD PTR [eax+16]

; 329  : 	m_pIndicatorList(pIndicatorList), 

  00108	8b 45 08	 mov	 eax, DWORD PTR _pIndicatorList$[ebp]
  0010b	89 86 d4 00 00
	00		 mov	 DWORD PTR [esi+212], eax

; 341  : 	m_bIsDataTitleDraw(bIsDataTitleDraw),
; 342  : 	m_pPriceChartColor(NULL),
; 343  : 	m_pIndiInfo(NULL),
; 344  : 	m_pSubGraphPacketList(NULL),
; 345  : 	m_pPacketList( p_pPacketList),

  00111	8b 45 3c	 mov	 eax, DWORD PTR _p_pPacketList$[ebp]
  00114	89 86 d8 00 00
	00		 mov	 DWORD PTR [esi+216], eax

; 346  : 	m_eVertPos(CScaleBaseData::VERTSCALEPOSITION::VERT_RIGHT),	// Y Scale    - ojtaso (20070807)
; 347  : 	m_bTextDrawing(TRUE),
; 348  : 	m_bDrawBaseLine(bDrawBaseLine),	//    Scale   - ojtaso (20071101)

  0011a	8a 45 44	 mov	 al, BYTE PTR _bDrawBaseLine$[ebp]
  0011d	88 86 e8 00 00
	00		 mov	 BYTE PTR [esi+232], al

; 349  : 	m_pMainBlock( pMainBlock)

  00123	8b 45 54	 mov	 eax, DWORD PTR _pMainBlock$[ebp]
  00126	89 86 f8 00 00
	00		 mov	 DWORD PTR [esi+248], eax

; 351  : 	// (2009/9/2 - Seung-Won, Bae) Support Chart Mode. (for HTS/FX/WorldOn)
; 352  : 	m_eChartMode = p_eChartMode;

  0012c	8b 45 50	 mov	 eax, DWORD PTR _p_eChartMode$[ebp]
  0012f	89 86 f4 00 00
	00		 mov	 DWORD PTR [esi+244], eax

; 353  : 
; 354  : 	// (2007/2/22 - Seung-Won, Bae) Support Base Text Option
; 355  : 	m_bWithBaseText = p_bWithBaseText;

  00135	8b 45 40	 mov	 eax, DWORD PTR _p_bWithBaseText$[ebp]
  00138	89 86 dc 00 00
	00		 mov	 DWORD PTR [esi+220], eax

; 356  : 
; 357  : 	// (2008/1/16 - Seung-Won, Bae) for MultiLanguage
; 358  : 	m_hOcxWnd = p_hOcxWnd;

  0013e	8b 45 48	 mov	 eax, DWORD PTR _p_hOcxWnd$[ebp]
  00141	89 86 ec 00 00
	00		 mov	 DWORD PTR [esi+236], eax

; 359  : 
; 360  : 	// (2009/2/13 - Seung-Won, Bae) for Multi-Column.
; 361  : 	m_nColumnIndex = p_nColumn;

  00147	8b 45 4c	 mov	 eax, DWORD PTR _p_nColumn$[ebp]
  0014a	89 86 f0 00 00
	00		 mov	 DWORD PTR [esi+240], eax

; 362  : }

  00150	8b c6		 mov	 eax, esi
  00152	66 0f d6 86 c0
	00 00 00	 movq	 QWORD PTR [esi+192], xmm0
  0015a	c7 86 c8 00 00
	00 00 00 00 00	 mov	 DWORD PTR [esi+200], 0
  00164	c7 86 cc 00 00
	00 00 00 00 00	 mov	 DWORD PTR [esi+204], 0
  0016e	c7 86 d0 00 00
	00 00 00 00 00	 mov	 DWORD PTR [esi+208], 0
  00178	c7 86 e0 00 00
	00 01 00 00 00	 mov	 DWORD PTR [esi+224], 1
  00182	c7 86 e4 00 00
	00 01 00 00 00	 mov	 DWORD PTR [esi+228], 1
  0018c	8b 4d f4	 mov	 ecx, DWORD PTR __$EHRec$[ebp]
  0018f	64 89 0d 00 00
	00 00		 mov	 DWORD PTR fs:0, ecx
  00196	59		 pop	 ecx
  00197	5e		 pop	 esi
  00198	8b e5		 mov	 esp, ebp
  0019a	5d		 pop	 ebp
  0019b	c2 50 00	 ret	 80			; 00000050H
_TEXT	ENDS
;	COMDAT text$x
text$x	SEGMENT
__unwindfunclet$??0CDrawingGraphData@@QAE@PAVCIndicatorList@@W4DRAWINGORDER@CDrawingOption@@ABVCGraphRegions@@ABVCRect@@3ABVCDisplayDataMinMax@@ABV?$CStringT@DV?$StrTraitMFC_DLL@DV?$ChTraitsCRT@D@ATL@@@@@ATL@@ABVCEtcGraphColor@@ABVCDisplayAttributes@@_N888PAVCPacketList@@H8PAUHWND__@@HW4CHART_MODE@CChartInfo@@PAVCMainBlock@@@Z$0:
  00000	8b 4d f0	 mov	 ecx, DWORD PTR _this$[ebp]
  00003	81 c1 8c 00 00
	00		 add	 ecx, 140		; 0000008cH
  00009	ff 25 00 00 00
	00		 jmp	 DWORD PTR __imp_??1?$CStringT@DV?$StrTraitMFC_DLL@DV?$ChTraitsCRT@D@ATL@@@@@ATL@@QAE@XZ
__unwindfunclet$??0CDrawingGraphData@@QAE@PAVCIndicatorList@@W4DRAWINGORDER@CDrawingOption@@ABVCGraphRegions@@ABVCRect@@3ABVCDisplayDataMinMax@@ABV?$CStringT@DV?$StrTraitMFC_DLL@DV?$ChTraitsCRT@D@ATL@@@@@ATL@@ABVCEtcGraphColor@@ABVCDisplayAttributes@@_N888PAVCPacketList@@H8PAUHWND__@@HW4CHART_MODE@CChartInfo@@PAVCMainBlock@@@Z$1:
  0000f	8b 4d f0	 mov	 ecx, DWORD PTR _this$[ebp]
  00012	81 c1 90 00 00
	00		 add	 ecx, 144		; 00000090H
  00018	ff 25 00 00 00
	00		 jmp	 DWORD PTR __imp_??1?$CStringT@DV?$StrTraitMFC_DLL@DV?$ChTraitsCRT@D@ATL@@@@@ATL@@QAE@XZ
__unwindfunclet$??0CDrawingGraphData@@QAE@PAVCIndicatorList@@W4DRAWINGORDER@CDrawingOption@@ABVCGraphRegions@@ABVCRect@@3ABVCDisplayDataMinMax@@ABV?$CStringT@DV?$StrTraitMFC_DLL@DV?$ChTraitsCRT@D@ATL@@@@@ATL@@ABVCEtcGraphColor@@ABVCDisplayAttributes@@_N888PAVCPacketList@@H8PAUHWND__@@HW4CHART_MODE@CChartInfo@@PAVCMainBlock@@@Z$2:
  0001e	8b 4d f0	 mov	 ecx, DWORD PTR _this$[ebp]
  00021	81 c1 94 00 00
	00		 add	 ecx, 148		; 00000094H
  00027	ff 25 00 00 00
	00		 jmp	 DWORD PTR __imp_??1?$CStringT@DV?$StrTraitMFC_DLL@DV?$ChTraitsCRT@D@ATL@@@@@ATL@@QAE@XZ
  0002d	cc		 int	 3
  0002e	cc		 int	 3
  0002f	cc		 int	 3
  00030	cc		 int	 3
  00031	cc		 int	 3
__ehhandler$??0CDrawingGraphData@@QAE@PAVCIndicatorList@@W4DRAWINGORDER@CDrawingOption@@ABVCGraphRegions@@ABVCRect@@3ABVCDisplayDataMinMax@@ABV?$CStringT@DV?$StrTraitMFC_DLL@DV?$ChTraitsCRT@D@ATL@@@@@ATL@@ABVCEtcGraphColor@@ABVCDisplayAttributes@@_N888PAVCPacketList@@H8PAUHWND__@@HW4CHART_MODE@CChartInfo@@PAVCMainBlock@@@Z:
  00032	90		 npad	 1
  00033	90		 npad	 1
  00034	8b 54 24 08	 mov	 edx, DWORD PTR [esp+8]
  00038	8d 42 0c	 lea	 eax, DWORD PTR [edx+12]
  0003b	8b 4a f4	 mov	 ecx, DWORD PTR [edx-12]
  0003e	33 c8		 xor	 ecx, eax
  00040	e8 00 00 00 00	 call	 @__security_check_cookie@4
  00045	b8 00 00 00 00	 mov	 eax, OFFSET __ehfuncinfo$??0CDrawingGraphData@@QAE@PAVCIndicatorList@@W4DRAWINGORDER@CDrawingOption@@ABVCGraphRegions@@ABVCRect@@3ABVCDisplayDataMinMax@@ABV?$CStringT@DV?$StrTraitMFC_DLL@DV?$ChTraitsCRT@D@ATL@@@@@ATL@@ABVCEtcGraphColor@@ABVCDisplayAttributes@@_N888PAVCPacketList@@H8PAUHWND__@@HW4CHART_MODE@CChartInfo@@PAVCMainBlock@@@Z
  0004a	e9 00 00 00 00	 jmp	 ___CxxFrameHandler3
text$x	ENDS
??0CDrawingGraphData@@QAE@PAVCIndicatorList@@W4DRAWINGORDER@CDrawingOption@@ABVCGraphRegions@@ABVCRect@@3ABVCDisplayDataMinMax@@ABV?$CStringT@DV?$StrTraitMFC_DLL@DV?$ChTraitsCRT@D@ATL@@@@@ATL@@ABVCEtcGraphColor@@ABVCDisplayAttributes@@_N888PAVCPacketList@@H8PAUHWND__@@HW4CHART_MODE@CChartInfo@@PAVCMainBlock@@@Z ENDP ; CDrawingGraphData::CDrawingGraphData
; Function compile flags: /Ogtp
; File D:\git\src\IBK\IBK_DRFN\ProjSrc\SrcChartEx\ChartOCX\Include_Chart\BaseData.cpp
;	COMDAT ?GetVertScaleRegion@CDrawingRegion@@QBE?AVCVertScaleRegion@@XZ
_TEXT	SEGMENT
___$ReturnUdt$ = 8					; size = 4
?GetVertScaleRegion@CDrawingRegion@@QBE?AVCVertScaleRegion@@XZ PROC ; CDrawingRegion::GetVertScaleRegion, COMDAT
; _this$ = ecx

; 302  : {

  00000	55		 push	 ebp
  00001	8b ec		 mov	 ebp, esp

; 303  : 	return m_vertScaleRegion;

  00003	8b 45 08	 mov	 eax, DWORD PTR ___$ReturnUdt$[ebp]
  00006	0f 10 41 64	 movups	 xmm0, XMMWORD PTR [ecx+100]
  0000a	0f 11 00	 movups	 XMMWORD PTR [eax], xmm0
  0000d	0f 10 41 74	 movups	 xmm0, XMMWORD PTR [ecx+116]
  00011	0f 11 40 10	 movups	 XMMWORD PTR [eax+16], xmm0

; 304  : }

  00015	5d		 pop	 ebp
  00016	c2 04 00	 ret	 4
?GetVertScaleRegion@CDrawingRegion@@QBE?AVCVertScaleRegion@@XZ ENDP ; CDrawingRegion::GetVertScaleRegion
_TEXT	ENDS
; Function compile flags: /Ogtp
; File D:\git\src\IBK\IBK_DRFN\ProjSrc\SrcChartEx\ChartOCX\Include_Chart\BaseData.cpp
;	COMDAT ?GetHorzScaleRegion@CDrawingRegion@@QBE?AVCHorzScaleRegion@@XZ
_TEXT	SEGMENT
___$ReturnUdt$ = 8					; size = 4
?GetHorzScaleRegion@CDrawingRegion@@QBE?AVCHorzScaleRegion@@XZ PROC ; CDrawingRegion::GetHorzScaleRegion, COMDAT
; _this$ = ecx

; 297  : {

  00000	55		 push	 ebp
  00001	8b ec		 mov	 ebp, esp

; 298  : 	return m_horzScaleRegion;

  00003	8b 45 08	 mov	 eax, DWORD PTR ___$ReturnUdt$[ebp]
  00006	0f 10 41 44	 movups	 xmm0, XMMWORD PTR [ecx+68]
  0000a	0f 11 00	 movups	 XMMWORD PTR [eax], xmm0
  0000d	0f 10 41 54	 movups	 xmm0, XMMWORD PTR [ecx+84]
  00011	0f 11 40 10	 movups	 XMMWORD PTR [eax+16], xmm0

; 299  : }

  00015	5d		 pop	 ebp
  00016	c2 04 00	 ret	 4
?GetHorzScaleRegion@CDrawingRegion@@QBE?AVCHorzScaleRegion@@XZ ENDP ; CDrawingRegion::GetHorzScaleRegion
_TEXT	ENDS
; Function compile flags: /Ogtp
; File D:\git\src\IBK\IBK_DRFN\ProjSrc\SrcChartEx\ChartOCX\Include_Chart\BaseData.cpp
; File D:\git\src\IBK\IBK_DRFN\ProjSrc\SrcChartEx\ChartOCX\Include_Chart\BaseData.h
; File D:\git\src\IBK\IBK_DRFN\ProjSrc\SrcChartEx\ChartOCX\Include_Chart\BaseData.cpp
;	COMDAT ?GetGraphFrameRegion@CDrawingRegion@@QBE?AVCRect@@XZ
_TEXT	SEGMENT
___$ReturnUdt$ = 8					; size = 4
?GetGraphFrameRegion@CDrawingRegion@@QBE?AVCRect@@XZ PROC ; CDrawingRegion::GetGraphFrameRegion, COMDAT
; _this$ = ecx

; 292  : {

  00000	55		 push	 ebp
  00001	8b ec		 mov	 ebp, esp
; File D:\git\src\IBK\IBK_DRFN\ProjSrc\SrcChartEx\ChartOCX\Include_Chart\BaseData.h

; 92   : 	CRect	GetFrameRegion( void) const			{	return m_rctFrameRegion;	}

  00003	8b 45 08	 mov	 eax, DWORD PTR ___$ReturnUdt$[ebp]
  00006	0f 10 41 04	 movups	 xmm0, XMMWORD PTR [ecx+4]
  0000a	0f 11 00	 movups	 XMMWORD PTR [eax], xmm0
; File D:\git\src\IBK\IBK_DRFN\ProjSrc\SrcChartEx\ChartOCX\Include_Chart\BaseData.cpp

; 294  : }

  0000d	5d		 pop	 ebp
  0000e	c2 04 00	 ret	 4
?GetGraphFrameRegion@CDrawingRegion@@QBE?AVCRect@@XZ ENDP ; CDrawingRegion::GetGraphFrameRegion
_TEXT	ENDS
; Function compile flags: /Ogtp
; File D:\git\src\IBK\IBK_DRFN\ProjSrc\SrcChartEx\ChartOCX\Include_Chart\BaseData.cpp
;	COMDAT ?GetGraphRegions@CDrawingRegion@@QBE?AVCGraphRegions@@XZ
_TEXT	SEGMENT
___$ReturnUdt$ = 8					; size = 4
?GetGraphRegions@CDrawingRegion@@QBE?AVCGraphRegions@@XZ PROC ; CDrawingRegion::GetGraphRegions, COMDAT
; _this$ = ecx

; 287  : {

  00000	55		 push	 ebp
  00001	8b ec		 mov	 ebp, esp

; 288  : 	return m_graphRegions;

  00003	8b 45 08	 mov	 eax, DWORD PTR ___$ReturnUdt$[ebp]
  00006	0f 10 01	 movups	 xmm0, XMMWORD PTR [ecx]
  00009	0f 11 00	 movups	 XMMWORD PTR [eax], xmm0
  0000c	0f 10 41 10	 movups	 xmm0, XMMWORD PTR [ecx+16]
  00010	0f 11 40 10	 movups	 XMMWORD PTR [eax+16], xmm0
  00014	0f 10 41 20	 movups	 xmm0, XMMWORD PTR [ecx+32]
  00018	0f 11 40 20	 movups	 XMMWORD PTR [eax+32], xmm0
  0001c	0f 10 41 30	 movups	 xmm0, XMMWORD PTR [ecx+48]
  00020	8b 49 40	 mov	 ecx, DWORD PTR [ecx+64]
  00023	0f 11 40 30	 movups	 XMMWORD PTR [eax+48], xmm0
  00027	89 48 40	 mov	 DWORD PTR [eax+64], ecx

; 289  : }

  0002a	5d		 pop	 ebp
  0002b	c2 04 00	 ret	 4
?GetGraphRegions@CDrawingRegion@@QBE?AVCGraphRegions@@XZ ENDP ; CDrawingRegion::GetGraphRegions
_TEXT	ENDS
; Function compile flags: /Ogtp
; File D:\git\src\IBK\IBK_DRFN\ProjSrc\SrcChartEx\ChartOCX\Include_Chart\BaseData.cpp
;	COMDAT ?GetGraphRegions@CDrawingRegion@@QAEAAVCGraphRegions@@XZ
_TEXT	SEGMENT
?GetGraphRegions@CDrawingRegion@@QAEAAVCGraphRegions@@XZ PROC ; CDrawingRegion::GetGraphRegions, COMDAT
; _this$ = ecx

; 283  : 	return m_graphRegions;

  00000	8b c1		 mov	 eax, ecx

; 284  : }

  00002	c3		 ret	 0
?GetGraphRegions@CDrawingRegion@@QAEAAVCGraphRegions@@XZ ENDP ; CDrawingRegion::GetGraphRegions
_TEXT	ENDS
; Function compile flags: /Ogtp
; File D:\git\src\IBK\IBK_DRFN\ProjSrc\SrcChartEx\ChartOCX\Include_Chart\BaseData.cpp
;	COMDAT ?OffsetDrawingRegion@CDrawingRegion@@QAEXH@Z
_TEXT	SEGMENT
_nFontSize$ = 8						; size = 4
?OffsetDrawingRegion@CDrawingRegion@@QAEXH@Z PROC	; CDrawingRegion::OffsetDrawingRegion, COMDAT
; _this$ = ecx

; 275  : {

  00000	55		 push	 ebp
  00001	8b ec		 mov	 ebp, esp

; 211  : 	m_nFontSize += nSize;

  00003	8b 45 08	 mov	 eax, DWORD PTR _nFontSize$[ebp]
  00006	01 41 34	 add	 DWORD PTR [ecx+52], eax

; 276  : 	m_graphRegions.OffsetFontSize(nFontSize);
; 277  : 	m_vertScaleRegion.OffsetRegion(nFontSize, 0);

  00009	83 c1 64	 add	 ecx, 100		; 00000064H
  0000c	6a 00		 push	 0
  0000e	50		 push	 eax
  0000f	e8 00 00 00 00	 call	 ?OffsetRegion@CVertScaleRegion@@QAEXHH@Z ; CVertScaleRegion::OffsetRegion

; 278  : }

  00014	5d		 pop	 ebp
  00015	c2 04 00	 ret	 4
?OffsetDrawingRegion@CDrawingRegion@@QAEXH@Z ENDP	; CDrawingRegion::OffsetDrawingRegion
_TEXT	ENDS
; Function compile flags: /Ogtp
; File D:\git\src\IBK\IBK_DRFN\ProjSrc\SrcChartEx\ChartOCX\Include_Chart\BaseData.cpp
;	COMDAT ?SetVertScaleRegion@CDrawingRegion@@QAEXABVCRect@@0@Z
_TEXT	SEGMENT
_leftRegion$ = 8					; size = 4
_rightRegion$ = 12					; size = 4
?SetVertScaleRegion@CDrawingRegion@@QAEXABVCRect@@0@Z PROC ; CDrawingRegion::SetVertScaleRegion, COMDAT
; _this$ = ecx

; 269  : {

  00000	55		 push	 ebp
  00001	8b ec		 mov	 ebp, esp
  00003	56		 push	 esi

; 270  : 	m_vertScaleRegion.SetLeftScaleRegion(leftRegion);

  00004	ff 75 08	 push	 DWORD PTR _leftRegion$[ebp]
  00007	8d 71 64	 lea	 esi, DWORD PTR [ecx+100]
  0000a	8b ce		 mov	 ecx, esi
  0000c	e8 00 00 00 00	 call	 ?SetLeftScaleRegion@CVertScaleRegion@@QAEXABVCRect@@@Z ; CVertScaleRegion::SetLeftScaleRegion

; 271  : 	m_vertScaleRegion.SetRightScaleRegion(rightRegion);

  00011	ff 75 0c	 push	 DWORD PTR _rightRegion$[ebp]
  00014	8b ce		 mov	 ecx, esi
  00016	e8 00 00 00 00	 call	 ?SetRightScaleRegion@CVertScaleRegion@@QAEXABVCRect@@@Z ; CVertScaleRegion::SetRightScaleRegion
  0001b	5e		 pop	 esi

; 272  : }

  0001c	5d		 pop	 ebp
  0001d	c2 08 00	 ret	 8
?SetVertScaleRegion@CDrawingRegion@@QAEXABVCRect@@0@Z ENDP ; CDrawingRegion::SetVertScaleRegion
_TEXT	ENDS
; Function compile flags: /Ogtp
; File D:\git\src\IBK\IBK_DRFN\ProjSrc\SrcChartEx\ChartOCX\Include_Chart\BaseData.cpp
;	COMDAT ?SetHorzScaleRegion@CDrawingRegion@@QAEXABVCRect@@0@Z
_TEXT	SEGMENT
_topRegion$ = 8						; size = 4
_bottomRegion$ = 12					; size = 4
?SetHorzScaleRegion@CDrawingRegion@@QAEXABVCRect@@0@Z PROC ; CDrawingRegion::SetHorzScaleRegion, COMDAT
; _this$ = ecx

; 263  : {

  00000	55		 push	 ebp
  00001	8b ec		 mov	 ebp, esp
  00003	56		 push	 esi

; 264  : 	m_horzScaleRegion.SetTopScaleRegion(topRegion);

  00004	ff 75 08	 push	 DWORD PTR _topRegion$[ebp]
  00007	8d 71 44	 lea	 esi, DWORD PTR [ecx+68]
  0000a	8b ce		 mov	 ecx, esi
  0000c	e8 00 00 00 00	 call	 ?SetTopScaleRegion@CHorzScaleRegion@@QAEXABVCRect@@@Z ; CHorzScaleRegion::SetTopScaleRegion

; 265  : 	m_horzScaleRegion.SetBottomScaleRegion(bottomRegion);

  00011	ff 75 0c	 push	 DWORD PTR _bottomRegion$[ebp]
  00014	8b ce		 mov	 ecx, esi
  00016	e8 00 00 00 00	 call	 ?SetBottomScaleRegion@CHorzScaleRegion@@QAEXABVCRect@@@Z ; CHorzScaleRegion::SetBottomScaleRegion
  0001b	5e		 pop	 esi

; 266  : }

  0001c	5d		 pop	 ebp
  0001d	c2 08 00	 ret	 8
?SetHorzScaleRegion@CDrawingRegion@@QAEXABVCRect@@0@Z ENDP ; CDrawingRegion::SetHorzScaleRegion
_TEXT	ENDS
; Function compile flags: /Ogtp
; File D:\git\src\IBK\IBK_DRFN\ProjSrc\SrcChartEx\ChartOCX\Include_Chart\BaseData.cpp
;	COMDAT ?SetGraphRegions@CDrawingRegion@@QAEXABVCGraphRegions@@@Z
_TEXT	SEGMENT
_graphRegions$ = 8					; size = 4
?SetGraphRegions@CDrawingRegion@@QAEXABVCGraphRegions@@@Z PROC ; CDrawingRegion::SetGraphRegions, COMDAT
; _this$ = ecx

; 258  : {

  00000	55		 push	 ebp
  00001	8b ec		 mov	 ebp, esp

; 259  : 	m_graphRegions = graphRegions;

  00003	8b 45 08	 mov	 eax, DWORD PTR _graphRegions$[ebp]
  00006	0f 10 00	 movups	 xmm0, XMMWORD PTR [eax]
  00009	0f 11 01	 movups	 XMMWORD PTR [ecx], xmm0
  0000c	0f 10 40 10	 movups	 xmm0, XMMWORD PTR [eax+16]
  00010	0f 11 41 10	 movups	 XMMWORD PTR [ecx+16], xmm0
  00014	0f 10 40 20	 movups	 xmm0, XMMWORD PTR [eax+32]
  00018	0f 11 41 20	 movups	 XMMWORD PTR [ecx+32], xmm0
  0001c	0f 10 40 30	 movups	 xmm0, XMMWORD PTR [eax+48]
  00020	0f 11 41 30	 movups	 XMMWORD PTR [ecx+48], xmm0
  00024	8b 40 40	 mov	 eax, DWORD PTR [eax+64]
  00027	89 41 40	 mov	 DWORD PTR [ecx+64], eax

; 260  : }

  0002a	5d		 pop	 ebp
  0002b	c2 04 00	 ret	 4
?SetGraphRegions@CDrawingRegion@@QAEXABVCGraphRegions@@@Z ENDP ; CDrawingRegion::SetGraphRegions
_TEXT	ENDS
; Function compile flags: /Ogtp
; File D:\git\src\IBK\IBK_DRFN\ProjSrc\SrcChartEx\ChartOCX\Include_Chart\BaseData.cpp
;	COMDAT ?GetTitleLineCount@CGraphRegions@@QBEHXZ
_TEXT	SEGMENT
?GetTitleLineCount@CGraphRegions@@QBEHXZ PROC		; CGraphRegions::GetTitleLineCount, COMDAT
; _this$ = ecx

; 225  : 	return m_nLineCount;

  00000	8b 41 38	 mov	 eax, DWORD PTR [ecx+56]

; 226  : }

  00003	c3		 ret	 0
?GetTitleLineCount@CGraphRegions@@QBEHXZ ENDP		; CGraphRegions::GetTitleLineCount
_TEXT	ENDS
; Function compile flags: /Ogtp
; File D:\git\src\IBK\IBK_DRFN\ProjSrc\SrcChartEx\ChartOCX\Include_Chart\BaseData.cpp
; File D:\git\src\IBK\IBK_DRFN\ProjSrc\SrcChartEx\ChartOCX\Include_Chart\BaseData.h
; File D:\git\src\IBK\IBK_DRFN\ProjSrc\SrcChartEx\ChartOCX\Include_Chart\BaseData.cpp
; File D:\git\src\IBK\IBK_DRFN\ProjSrc\SrcChartEx\ChartOCX\Include_Chart\BaseData.h
; File D:\git\src\IBK\IBK_DRFN\ProjSrc\SrcChartEx\ChartOCX\Include_Chart\BaseData.cpp
; File C:\Program Files (x86)\Microsoft Visual Studio\2019\Community\VC\Tools\MSVC\14.29.30133\atlmfc\include\atltypes.h
; File D:\git\src\IBK\IBK_DRFN\ProjSrc\SrcChartEx\ChartOCX\Include_Chart\BaseData.cpp
;	COMDAT ?GetDrawingRegion@CGraphRegions@@QBE?AVCRect@@W4GRAPHTYPE@CGraphBaseData@@ABVCGraphStyle@@@Z
_TEXT	SEGMENT
___$ReturnUdt$ = 8					; size = 4
_eGraphType$ = 12					; size = 4
_graphStyle$ = 16					; size = 4
?GetDrawingRegion@CGraphRegions@@QBE?AVCRect@@W4GRAPHTYPE@CGraphBaseData@@ABVCGraphStyle@@@Z PROC ; CGraphRegions::GetDrawingRegion, COMDAT
; _this$ = ecx

; 229  : {

  00000	55		 push	 ebp
  00001	8b ec		 mov	 ebp, esp
  00003	8b d1		 mov	 edx, ecx

; 232  : 	if( m_bIsTitle && eGraphType != CGraphBaseData::Pie_Type) realRegion.top += m_nFontSize + 1;

  00005	8b 4d 0c	 mov	 ecx, DWORD PTR _eGraphType$[ebp]
  00008	56		 push	 esi
; File D:\git\src\IBK\IBK_DRFN\ProjSrc\SrcChartEx\ChartOCX\Include_Chart\BaseData.h

; 94   : 	CRect	GetNoFrameRegionAndMargin() const	{	return m_rctNoFrameAndMargin;	}

  00009	8b 75 08	 mov	 esi, DWORD PTR ___$ReturnUdt$[ebp]
  0000c	0f 10 42 24	 movups	 xmm0, XMMWORD PTR [edx+36]
  00010	0f 11 06	 movups	 XMMWORD PTR [esi], xmm0
; File D:\git\src\IBK\IBK_DRFN\ProjSrc\SrcChartEx\ChartOCX\Include_Chart\BaseData.cpp

; 232  : 	if( m_bIsTitle && eGraphType != CGraphBaseData::Pie_Type) realRegion.top += m_nFontSize + 1;

  00013	80 7a 3c 00	 cmp	 BYTE PTR [edx+60], 0
  00017	74 0e		 je	 SHORT $LN6@GetDrawing
  00019	83 f9 03	 cmp	 ecx, 3
  0001c	74 09		 je	 SHORT $LN6@GetDrawing
  0001e	8b 42 34	 mov	 eax, DWORD PTR [edx+52]
  00021	40		 inc	 eax
  00022	01 46 04	 add	 DWORD PTR [esi+4], eax
  00025	eb 0a		 jmp	 SHORT $LN8@GetDrawing
$LN6@GetDrawing:

; 233  : 	else if( m_bBlockMoveDelete)	realRegion.top += 11;

  00027	83 7a 40 00	 cmp	 DWORD PTR [edx+64], 0
  0002b	74 04		 je	 SHORT $LN8@GetDrawing
  0002d	83 46 04 0b	 add	 DWORD PTR [esi+4], 11	; 0000000bH
$LN8@GetDrawing:

; 234  : 
; 235  : 	switch( eGraphType)

  00031	83 e9 02	 sub	 ecx, 2
  00034	74 1a		 je	 SHORT $LN9@GetDrawing
  00036	83 e9 01	 sub	 ecx, 1
  00039	75 2b		 jne	 SHORT $LN4@GetDrawing
; File D:\git\src\IBK\IBK_DRFN\ProjSrc\SrcChartEx\ChartOCX\Include_Chart\BaseData.h

; 93   : 	CRect	GetNoFrameRegion() const			{	return m_rctNoFrameRegion;	}

  0003b	0f 10 42 14	 movups	 xmm0, XMMWORD PTR [edx+20]
; File D:\git\src\IBK\IBK_DRFN\ProjSrc\SrcChartEx\ChartOCX\Include_Chart\BaseData.cpp

; 245  : 		case CGraphBaseData::Pie_Type:	realRegion.right = GetNoFrameRegion().right - 2;

  0003f	66 0f 73 d8 08	 psrldq	 xmm0, 8
  00044	66 0f 7e c0	 movd	 eax, xmm0
  00048	83 c0 fe	 add	 eax, -2			; fffffffeH
  0004b	89 46 08	 mov	 DWORD PTR [esi+8], eax
  0004e	eb 16		 jmp	 SHORT $LN4@GetDrawing
$LN9@GetDrawing:

; 236  : 	{
; 237  : 		case CGraphBaseData::Bar_Type:	switch( graphStyle.GetGraphBarStyle())

  00050	8b 45 10	 mov	 eax, DWORD PTR _graphStyle$[ebp]
  00053	8b 00		 mov	 eax, DWORD PTR [eax]
  00055	85 c0		 test	 eax, eax
  00057	74 09		 je	 SHORT $LN11@GetDrawing
  00059	83 f8 0a	 cmp	 eax, 10			; 0000000aH
  0005c	75 08		 jne	 SHORT $LN4@GetDrawing

; 238  : 										{
; 239  : 											case CGraphBaseData::TextHorizontalBar:	realRegion.left--;

  0005e	ff 0e		 dec	 DWORD PTR [esi]

; 240  : 																					break;

  00060	eb 04		 jmp	 SHORT $LN4@GetDrawing
$LN11@GetDrawing:

; 241  : 											case CGraphBaseData::VerticalBar:	realRegion.bottom += 2;

  00062	83 46 0c 02	 add	 DWORD PTR [esi+12], 2
$LN4@GetDrawing:

; 246  : 										break;
; 247  : 	}
; 248  : 
; 249  : 	if( m_bIsText) realRegion.DeflateRect( 0, m_nFontSize - 1);

  00066	80 7a 3d 00	 cmp	 BYTE PTR [edx+61], 0
  0006a	74 12		 je	 SHORT $LN21@GetDrawing
  0006c	b9 01 00 00 00	 mov	 ecx, 1
  00071	2b 4a 34	 sub	 ecx, DWORD PTR [edx+52]
; File C:\Program Files (x86)\Microsoft Visual Studio\2019\Community\VC\Tools\MSVC\14.29.30133\atlmfc\include\atltypes.h

; 698  : 	::InflateRect(this, -x, -y);

  00074	51		 push	 ecx
  00075	6a 00		 push	 0
  00077	56		 push	 esi
  00078	ff 15 00 00 00
	00		 call	 DWORD PTR __imp__InflateRect@12
$LN21@GetDrawing:
; File D:\git\src\IBK\IBK_DRFN\ProjSrc\SrcChartEx\ChartOCX\Include_Chart\BaseData.cpp

; 252  : }

  0007e	8b c6		 mov	 eax, esi
  00080	5e		 pop	 esi
  00081	5d		 pop	 ebp
  00082	c2 0c 00	 ret	 12			; 0000000cH
?GetDrawingRegion@CGraphRegions@@QBE?AVCRect@@W4GRAPHTYPE@CGraphBaseData@@ABVCGraphStyle@@@Z ENDP ; CGraphRegions::GetDrawingRegion
_TEXT	ENDS
; Function compile flags: /Ogtp
; File D:\git\src\IBK\IBK_DRFN\ProjSrc\SrcChartEx\ChartOCX\Include_Chart\BaseData.cpp
; File D:\git\src\IBK\IBK_DRFN\ProjSrc\SrcChartEx\ChartOCX\Include_Chart\BaseData.h
; File D:\git\src\IBK\IBK_DRFN\ProjSrc\SrcChartEx\ChartOCX\Include_Chart\BaseData.cpp
;	COMDAT ?GetTitleRegion@CGraphRegions@@QBE?AVCRect@@XZ
_TEXT	SEGMENT
___$ReturnUdt$ = 8					; size = 4
?GetTitleRegion@CGraphRegions@@QBE?AVCRect@@XZ PROC	; CGraphRegions::GetTitleRegion, COMDAT
; _this$ = ecx

; 215  : {

  00000	55		 push	 ebp
  00001	8b ec		 mov	 ebp, esp

; 218  : 	if( m_bIsTitle) titleRegion.bottom += m_nFontSize;

  00003	80 79 3c 00	 cmp	 BYTE PTR [ecx+60], 0
; File D:\git\src\IBK\IBK_DRFN\ProjSrc\SrcChartEx\ChartOCX\Include_Chart\BaseData.h

; 94   : 	CRect	GetNoFrameRegionAndMargin() const	{	return m_rctNoFrameAndMargin;	}

  00007	8b 45 08	 mov	 eax, DWORD PTR ___$ReturnUdt$[ebp]
  0000a	0f 10 41 24	 movups	 xmm0, XMMWORD PTR [ecx+36]
  0000e	0f 11 00	 movups	 XMMWORD PTR [eax], xmm0
; File D:\git\src\IBK\IBK_DRFN\ProjSrc\SrcChartEx\ChartOCX\Include_Chart\BaseData.cpp

; 217  : 	titleRegion.bottom = titleRegion.top;

  00011	8b 50 04	 mov	 edx, DWORD PTR [eax+4]
  00014	89 50 0c	 mov	 DWORD PTR [eax+12], edx

; 218  : 	if( m_bIsTitle) titleRegion.bottom += m_nFontSize;

  00017	74 08		 je	 SHORT $LN2@GetTitleRe
  00019	8b 49 34	 mov	 ecx, DWORD PTR [ecx+52]
  0001c	03 ca		 add	 ecx, edx
  0001e	89 48 0c	 mov	 DWORD PTR [eax+12], ecx
$LN2@GetTitleRe:

; 219  : 	return titleRegion;
; 220  : }

  00021	5d		 pop	 ebp
  00022	c2 04 00	 ret	 4
?GetTitleRegion@CGraphRegions@@QBE?AVCRect@@XZ ENDP	; CGraphRegions::GetTitleRegion
_TEXT	ENDS
; Function compile flags: /Ogtp
; File D:\git\src\IBK\IBK_DRFN\ProjSrc\SrcChartEx\ChartOCX\Include_Chart\BaseData.cpp
;	COMDAT ?OffsetTitleLine@CGraphRegions@@QAEXH@Z
_TEXT	SEGMENT
_nLine$ = 8						; size = 4
?OffsetTitleLine@CGraphRegions@@QAEXH@Z PROC		; CGraphRegions::OffsetTitleLine, COMDAT
; _this$ = ecx

; 200  : {

  00000	55		 push	 ebp
  00001	8b ec		 mov	 ebp, esp

; 201  : 	m_nLineCount += nLine;

  00003	8b 45 08	 mov	 eax, DWORD PTR _nLine$[ebp]
  00006	01 41 38	 add	 DWORD PTR [ecx+56], eax

; 202  : }

  00009	5d		 pop	 ebp
  0000a	c2 04 00	 ret	 4
?OffsetTitleLine@CGraphRegions@@QAEXH@Z ENDP		; CGraphRegions::OffsetTitleLine
_TEXT	ENDS
; Function compile flags: /Ogtp
; File D:\git\src\IBK\IBK_DRFN\ProjSrc\SrcChartEx\ChartOCX\Include_Chart\BaseData.cpp
;	COMDAT ?SetTitleLine@CGraphRegions@@QAEXH@Z
_TEXT	SEGMENT
_nLine$ = 8						; size = 4
?SetTitleLine@CGraphRegions@@QAEXH@Z PROC		; CGraphRegions::SetTitleLine, COMDAT
; _this$ = ecx

; 194  : {

  00000	55		 push	 ebp
  00001	8b ec		 mov	 ebp, esp

; 195  : 	m_nLineCount = nLine;

  00003	8b 45 08	 mov	 eax, DWORD PTR _nLine$[ebp]
  00006	89 41 38	 mov	 DWORD PTR [ecx+56], eax

; 196  : }

  00009	5d		 pop	 ebp
  0000a	c2 04 00	 ret	 4
?SetTitleLine@CGraphRegions@@QAEXH@Z ENDP		; CGraphRegions::SetTitleLine
_TEXT	ENDS
; Function compile flags: /Ogtp
; File D:\git\src\IBK\IBK_DRFN\ProjSrc\SrcChartEx\ChartOCX\Include_Chart\BaseData.cpp
;	COMDAT ?OffsetFontSize@CGraphRegions@@QAEXH@Z
_TEXT	SEGMENT
_nSize$ = 8						; size = 4
?OffsetFontSize@CGraphRegions@@QAEXH@Z PROC		; CGraphRegions::OffsetFontSize, COMDAT
; _this$ = ecx

; 210  : {

  00000	55		 push	 ebp
  00001	8b ec		 mov	 ebp, esp

; 211  : 	m_nFontSize += nSize;

  00003	8b 45 08	 mov	 eax, DWORD PTR _nSize$[ebp]
  00006	01 41 34	 add	 DWORD PTR [ecx+52], eax

; 212  : }

  00009	5d		 pop	 ebp
  0000a	c2 04 00	 ret	 4
?OffsetFontSize@CGraphRegions@@QAEXH@Z ENDP		; CGraphRegions::OffsetFontSize
_TEXT	ENDS
; Function compile flags: /Ogtp
; File D:\git\src\IBK\IBK_DRFN\ProjSrc\SrcChartEx\ChartOCX\Include_Chart\BaseData.cpp
;	COMDAT ?SetVertScale@CGraphRegions@@QAEX_N@Z
_TEXT	SEGMENT
_bIsVertScale$ = 8					; size = 1
?SetVertScale@CGraphRegions@@QAEX_N@Z PROC		; CGraphRegions::SetVertScale, COMDAT
; _this$ = ecx

; 205  : {

  00000	55		 push	 ebp
  00001	8b ec		 mov	 ebp, esp

; 206  : 	m_bIsVertScale = bIsVertScale;

  00003	8a 45 08	 mov	 al, BYTE PTR _bIsVertScale$[ebp]
  00006	88 41 3e	 mov	 BYTE PTR [ecx+62], al

; 207  : }

  00009	5d		 pop	 ebp
  0000a	c2 04 00	 ret	 4
?SetVertScale@CGraphRegions@@QAEX_N@Z ENDP		; CGraphRegions::SetVertScale
_TEXT	ENDS
; Function compile flags: /Ogtp
; File D:\git\src\IBK\IBK_DRFN\ProjSrc\SrcChartEx\ChartOCX\Include_Chart\BaseData.cpp
;	COMDAT ?SetFontSize@CGraphRegions@@QAEXH@Z
_TEXT	SEGMENT
_nSize$ = 8						; size = 4
?SetFontSize@CGraphRegions@@QAEXH@Z PROC		; CGraphRegions::SetFontSize, COMDAT
; _this$ = ecx

; 188  : {

  00000	55		 push	 ebp
  00001	8b ec		 mov	 ebp, esp

; 189  : 	m_nFontSize = nSize;

  00003	8b 45 08	 mov	 eax, DWORD PTR _nSize$[ebp]
  00006	89 41 34	 mov	 DWORD PTR [ecx+52], eax

; 190  : }

  00009	5d		 pop	 ebp
  0000a	c2 04 00	 ret	 4
?SetFontSize@CGraphRegions@@QAEXH@Z ENDP		; CGraphRegions::SetFontSize
_TEXT	ENDS
; Function compile flags: /Ogtp
; File D:\git\src\IBK\IBK_DRFN\ProjSrc\SrcChartEx\ChartOCX\Include_Chart\BaseData.cpp
;	COMDAT ?SetTitle@CGraphRegions@@QAEX_N@Z
_TEXT	SEGMENT
_bIsTitle$ = 8						; size = 1
?SetTitle@CGraphRegions@@QAEX_N@Z PROC			; CGraphRegions::SetTitle, COMDAT
; _this$ = ecx

; 183  : {

  00000	55		 push	 ebp
  00001	8b ec		 mov	 ebp, esp

; 184  : 	m_bIsTitle = bIsTitle;

  00003	8a 45 08	 mov	 al, BYTE PTR _bIsTitle$[ebp]
  00006	88 41 3c	 mov	 BYTE PTR [ecx+60], al

; 185  : }

  00009	5d		 pop	 ebp
  0000a	c2 04 00	 ret	 4
?SetTitle@CGraphRegions@@QAEX_N@Z ENDP			; CGraphRegions::SetTitle
_TEXT	ENDS
; Function compile flags: /Ogtp
; File D:\git\src\IBK\IBK_DRFN\ProjSrc\SrcChartEx\ChartOCX\Include_Chart\BaseData.cpp
;	COMDAT ?SetText@CGraphRegions@@QAEX_N@Z
_TEXT	SEGMENT
_bIsText$ = 8						; size = 1
?SetText@CGraphRegions@@QAEX_N@Z PROC			; CGraphRegions::SetText, COMDAT
; _this$ = ecx

; 178  : {

  00000	55		 push	 ebp
  00001	8b ec		 mov	 ebp, esp

; 179  : 	m_bIsText = bIsText;

  00003	8a 45 08	 mov	 al, BYTE PTR _bIsText$[ebp]
  00006	88 41 3d	 mov	 BYTE PTR [ecx+61], al

; 180  : }

  00009	5d		 pop	 ebp
  0000a	c2 04 00	 ret	 4
?SetText@CGraphRegions@@QAEX_N@Z ENDP			; CGraphRegions::SetText
_TEXT	ENDS
; Function compile flags: /Ogtp
; File D:\git\src\IBK\IBK_DRFN\ProjSrc\SrcChartEx\ChartOCX\Include_Chart\BaseData.cpp
;	COMDAT ?IsText@CGraphRegions@@QBE_NXZ
_TEXT	SEGMENT
?IsText@CGraphRegions@@QBE_NXZ PROC			; CGraphRegions::IsText, COMDAT
; _this$ = ecx

; 174  : 	return m_bIsText;

  00000	8a 41 3d	 mov	 al, BYTE PTR [ecx+61]

; 175  : }

  00003	c3		 ret	 0
?IsText@CGraphRegions@@QBE_NXZ ENDP			; CGraphRegions::IsText
_TEXT	ENDS
; Function compile flags: /Ogtp
; File D:\git\src\IBK\IBK_DRFN\ProjSrc\SrcChartEx\ChartOCX\Include_Chart\BaseData.cpp
;	COMDAT ?IsTitle@CGraphRegions@@QBE_NXZ
_TEXT	SEGMENT
?IsTitle@CGraphRegions@@QBE_NXZ PROC			; CGraphRegions::IsTitle, COMDAT
; _this$ = ecx

; 169  : 	return m_bIsTitle;

  00000	8a 41 3c	 mov	 al, BYTE PTR [ecx+60]

; 170  : }

  00003	c3		 ret	 0
?IsTitle@CGraphRegions@@QBE_NXZ ENDP			; CGraphRegions::IsTitle
_TEXT	ENDS
; Function compile flags: /Ogtp
; File D:\git\src\IBK\IBK_DRFN\ProjSrc\SrcChartEx\ChartOCX\Include_Chart\BaseData.cpp
; File C:\Program Files (x86)\Microsoft Visual Studio\2019\Community\VC\Tools\MSVC\14.29.30133\atlmfc\include\atltypes.h
; File D:\git\src\IBK\IBK_DRFN\ProjSrc\SrcChartEx\ChartOCX\Include_Chart\BaseData.cpp
;	COMDAT ??0CGraphRegions@@QAE@XZ
_TEXT	SEGMENT
??0CGraphRegions@@QAE@XZ PROC				; CGraphRegions::CGraphRegions, COMDAT
; _this$ = ecx

; 131  : 	m_nFrameThickness(0)

  00000	c7 01 00 00 00
	00		 mov	 DWORD PTR [ecx], 0

; 165  : }

  00006	8b c1		 mov	 eax, ecx
; File C:\Program Files (x86)\Microsoft Visual Studio\2019\Community\VC\Tools\MSVC\14.29.30133\atlmfc\include\atltypes.h

; 540  : 	left = l;

  00008	c7 41 04 00 00
	00 00		 mov	 DWORD PTR [ecx+4], 0

; 541  : 	top = t;

  0000f	c7 41 08 00 00
	00 00		 mov	 DWORD PTR [ecx+8], 0

; 542  : 	right = r;

  00016	c7 41 0c 00 00
	00 00		 mov	 DWORD PTR [ecx+12], 0

; 543  : 	bottom = b;

  0001d	c7 41 10 00 00
	00 00		 mov	 DWORD PTR [ecx+16], 0

; 540  : 	left = l;

  00024	c7 41 14 00 00
	00 00		 mov	 DWORD PTR [ecx+20], 0

; 541  : 	top = t;

  0002b	c7 41 18 00 00
	00 00		 mov	 DWORD PTR [ecx+24], 0

; 542  : 	right = r;

  00032	c7 41 1c 00 00
	00 00		 mov	 DWORD PTR [ecx+28], 0

; 543  : 	bottom = b;

  00039	c7 41 20 00 00
	00 00		 mov	 DWORD PTR [ecx+32], 0

; 540  : 	left = l;

  00040	c7 41 24 00 00
	00 00		 mov	 DWORD PTR [ecx+36], 0

; 541  : 	top = t;

  00047	c7 41 28 00 00
	00 00		 mov	 DWORD PTR [ecx+40], 0

; 542  : 	right = r;

  0004e	c7 41 2c 00 00
	00 00		 mov	 DWORD PTR [ecx+44], 0

; 543  : 	bottom = b;

  00055	c7 41 30 00 00
	00 00		 mov	 DWORD PTR [ecx+48], 0
; File D:\git\src\IBK\IBK_DRFN\ProjSrc\SrcChartEx\ChartOCX\Include_Chart\BaseData.cpp

; 158  : 	m_nFontSize(0),

  0005c	c7 41 34 00 00
	00 00		 mov	 DWORD PTR [ecx+52], 0

; 159  : 	m_nLineCount(1),	//    :  - ojtaso (20070227)

  00063	c7 41 38 01 00
	00 00		 mov	 DWORD PTR [ecx+56], 1

; 160  : 	m_bIsTitle(false),

  0006a	66 c7 41 3c 00
	00		 mov	 WORD PTR [ecx+60], 0

; 161  : 	m_bIsText(false),
; 162  : 	m_bIsVertScale(true),

  00070	c6 41 3e 01	 mov	 BYTE PTR [ecx+62], 1

; 163  : 	m_bBlockMoveDelete( FALSE)

  00074	c7 41 40 00 00
	00 00		 mov	 DWORD PTR [ecx+64], 0

; 165  : }

  0007b	c3		 ret	 0
??0CGraphRegions@@QAE@XZ ENDP				; CGraphRegions::CGraphRegions
_TEXT	ENDS
; Function compile flags: /Ogtp
; File D:\git\src\IBK\IBK_DRFN\ProjSrc\SrcChartEx\ChartOCX\Include_Chart\BaseData.cpp
; File C:\Program Files (x86)\Microsoft Visual Studio\2019\Community\VC\Tools\MSVC\14.29.30133\atlmfc\include\atltypes.h
; File D:\git\src\IBK\IBK_DRFN\ProjSrc\SrcChartEx\ChartOCX\Include_Chart\BaseData.cpp
; File C:\Program Files (x86)\Microsoft Visual Studio\2019\Community\VC\Tools\MSVC\14.29.30133\atlmfc\include\atltypes.h
; File D:\git\src\IBK\IBK_DRFN\ProjSrc\SrcChartEx\ChartOCX\Include_Chart\BaseData.cpp
; File C:\Program Files (x86)\Microsoft Visual Studio\2019\Community\VC\Tools\MSVC\14.29.30133\atlmfc\include\atltypes.h
; File D:\git\src\IBK\IBK_DRFN\ProjSrc\SrcChartEx\ChartOCX\Include_Chart\BaseData.cpp
; File C:\Program Files (x86)\Microsoft Visual Studio\2019\Community\VC\Tools\MSVC\14.29.30133\atlmfc\include\atltypes.h
; File D:\git\src\IBK\IBK_DRFN\ProjSrc\SrcChartEx\ChartOCX\Include_Chart\BaseData.cpp
; File C:\Program Files (x86)\Microsoft Visual Studio\2019\Community\VC\Tools\MSVC\14.29.30133\atlmfc\include\atltypes.h
; File D:\git\src\IBK\IBK_DRFN\ProjSrc\SrcChartEx\ChartOCX\Include_Chart\BaseData.cpp
;	COMDAT ?SetFrameRegion@CGraphRegionsBase@@IAEXABVCRect@@HH@Z
_TEXT	SEGMENT
_region$ = 8						; size = 4
_p_nFrameThickness$ = 12				; size = 4
_p_bReverse$ = 16					; size = 4
?SetFrameRegion@CGraphRegionsBase@@IAEXABVCRect@@HH@Z PROC ; CGraphRegionsBase::SetFrameRegion, COMDAT
; _this$ = ecx

; 136  : {

  00000	55		 push	 ebp
  00001	8b ec		 mov	 ebp, esp

; 138  : 	m_rctFrameRegion		= region;

  00003	8b 45 08	 mov	 eax, DWORD PTR _region$[ebp]
  00006	8b 55 0c	 mov	 edx, DWORD PTR _p_nFrameThickness$[ebp]
  00009	56		 push	 esi
  0000a	57		 push	 edi
  0000b	8b f9		 mov	 edi, ecx

; 140  : 	m_rctNoFrameRegion		= m_rctFrameRegion;

  0000d	8d 77 14	 lea	 esi, DWORD PTR [edi+20]
  00010	89 17		 mov	 DWORD PTR [edi], edx
; File C:\Program Files (x86)\Microsoft Visual Studio\2019\Community\VC\Tools\MSVC\14.29.30133\atlmfc\include\atltypes.h

; 698  : 	::InflateRect(this, -x, -y);

  00012	f7 da		 neg	 edx
; File D:\git\src\IBK\IBK_DRFN\ProjSrc\SrcChartEx\ChartOCX\Include_Chart\BaseData.cpp

; 138  : 	m_rctFrameRegion		= region;

  00014	0f 10 00	 movups	 xmm0, XMMWORD PTR [eax]
; File C:\Program Files (x86)\Microsoft Visual Studio\2019\Community\VC\Tools\MSVC\14.29.30133\atlmfc\include\atltypes.h

; 698  : 	::InflateRect(this, -x, -y);

  00017	52		 push	 edx
  00018	52		 push	 edx
; File D:\git\src\IBK\IBK_DRFN\ProjSrc\SrcChartEx\ChartOCX\Include_Chart\BaseData.cpp

; 138  : 	m_rctFrameRegion		= region;

  00019	0f 11 47 04	 movups	 XMMWORD PTR [edi+4], xmm0
; File C:\Program Files (x86)\Microsoft Visual Studio\2019\Community\VC\Tools\MSVC\14.29.30133\atlmfc\include\atltypes.h

; 698  : 	::InflateRect(this, -x, -y);

  0001d	56		 push	 esi
; File D:\git\src\IBK\IBK_DRFN\ProjSrc\SrcChartEx\ChartOCX\Include_Chart\BaseData.cpp

; 140  : 	m_rctNoFrameRegion		= m_rctFrameRegion;

  0001e	0f 10 47 04	 movups	 xmm0, XMMWORD PTR [edi+4]
  00022	0f 11 06	 movups	 XMMWORD PTR [esi], xmm0
; File C:\Program Files (x86)\Microsoft Visual Studio\2019\Community\VC\Tools\MSVC\14.29.30133\atlmfc\include\atltypes.h

; 698  : 	::InflateRect(this, -x, -y);

  00025	ff 15 00 00 00
	00		 call	 DWORD PTR __imp__InflateRect@12
; File D:\git\src\IBK\IBK_DRFN\ProjSrc\SrcChartEx\ChartOCX\Include_Chart\BaseData.cpp

; 143  : 	m_rctNoFrameAndMargin	= m_rctNoFrameRegion;

  0002b	0f 10 06	 movups	 xmm0, XMMWORD PTR [esi]
  0002e	0f 11 47 24	 movups	 XMMWORD PTR [edi+36], xmm0
; File C:\Program Files (x86)\Microsoft Visual Studio\2019\Community\VC\Tools\MSVC\14.29.30133\atlmfc\include\atltypes.h

; 932  : 	left += l;

  00032	8b 4f 24	 mov	 ecx, DWORD PTR [edi+36]

; 933  : 	top += t;
; 934  : 	right -= r;

  00035	83 47 2c fe	 add	 DWORD PTR [edi+44], -2	; fffffffeH
  00039	41		 inc	 ecx
  0003a	8b 47 2c	 mov	 eax, DWORD PTR [edi+44]
  0003d	ff 47 28	 inc	 DWORD PTR [edi+40]

; 576  : 	return right - left;

  00040	2b c1		 sub	 eax, ecx

; 935  : 	bottom -= b;

  00042	83 47 30 fe	 add	 DWORD PTR [edi+48], -2	; fffffffeH
  00046	89 4f 24	 mov	 DWORD PTR [edi+36], ecx
; File D:\git\src\IBK\IBK_DRFN\ProjSrc\SrcChartEx\ChartOCX\Include_Chart\BaseData.cpp

; 147  : 	if( m_rctNoFrameAndMargin.Width() > MARGIN * 5)

  00049	83 f8 14	 cmp	 eax, 20			; 00000014H
  0004c	7e 16		 jle	 SHORT $LN4@SetFrameRe

; 148  : 	{
; 149  : 		if( p_bReverse)		m_rctNoFrameAndMargin.left += MARGIN * 2 + 2;

  0004e	83 7d 10 00	 cmp	 DWORD PTR _p_bReverse$[ebp], 0
  00052	74 0c		 je	 SHORT $LN3@SetFrameRe
  00054	8d 41 0a	 lea	 eax, DWORD PTR [ecx+10]
  00057	89 47 24	 mov	 DWORD PTR [edi+36], eax
  0005a	5f		 pop	 edi

; 151  : 	}
; 152  : }

  0005b	5e		 pop	 esi
  0005c	5d		 pop	 ebp
  0005d	c2 0c 00	 ret	 12			; 0000000cH
$LN3@SetFrameRe:

; 150  : 		else				m_rctNoFrameAndMargin.right -= MARGIN * 2 + 2;

  00060	83 47 2c f6	 add	 DWORD PTR [edi+44], -10	; fffffff6H
$LN4@SetFrameRe:
  00064	5f		 pop	 edi

; 151  : 	}
; 152  : }

  00065	5e		 pop	 esi
  00066	5d		 pop	 ebp
  00067	c2 0c 00	 ret	 12			; 0000000cH
?SetFrameRegion@CGraphRegionsBase@@IAEXABVCRect@@HH@Z ENDP ; CGraphRegionsBase::SetFrameRegion
_TEXT	ENDS
; Function compile flags: /Ogtp
; File D:\git\src\IBK\IBK_DRFN\ProjSrc\SrcChartEx\ChartOCX\Include_Chart\BaseData.cpp
; File C:\Program Files (x86)\Microsoft Visual Studio\2019\Community\VC\Tools\MSVC\14.29.30133\atlmfc\include\atltypes.h
; File D:\git\src\IBK\IBK_DRFN\ProjSrc\SrcChartEx\ChartOCX\Include_Chart\BaseData.cpp
;	COMDAT ??0CGraphRegionsBase@@QAE@XZ
_TEXT	SEGMENT
??0CGraphRegionsBase@@QAE@XZ PROC			; CGraphRegionsBase::CGraphRegionsBase, COMDAT
; _this$ = ecx

; 131  : 	m_nFrameThickness(0)

  00000	c7 01 00 00 00
	00		 mov	 DWORD PTR [ecx], 0

; 133  : }

  00006	8b c1		 mov	 eax, ecx
; File C:\Program Files (x86)\Microsoft Visual Studio\2019\Community\VC\Tools\MSVC\14.29.30133\atlmfc\include\atltypes.h

; 540  : 	left = l;

  00008	c7 41 04 00 00
	00 00		 mov	 DWORD PTR [ecx+4], 0

; 541  : 	top = t;

  0000f	c7 41 08 00 00
	00 00		 mov	 DWORD PTR [ecx+8], 0

; 542  : 	right = r;

  00016	c7 41 0c 00 00
	00 00		 mov	 DWORD PTR [ecx+12], 0

; 543  : 	bottom = b;

  0001d	c7 41 10 00 00
	00 00		 mov	 DWORD PTR [ecx+16], 0

; 540  : 	left = l;

  00024	c7 41 14 00 00
	00 00		 mov	 DWORD PTR [ecx+20], 0

; 541  : 	top = t;

  0002b	c7 41 18 00 00
	00 00		 mov	 DWORD PTR [ecx+24], 0

; 542  : 	right = r;

  00032	c7 41 1c 00 00
	00 00		 mov	 DWORD PTR [ecx+28], 0

; 543  : 	bottom = b;

  00039	c7 41 20 00 00
	00 00		 mov	 DWORD PTR [ecx+32], 0

; 540  : 	left = l;

  00040	c7 41 24 00 00
	00 00		 mov	 DWORD PTR [ecx+36], 0

; 541  : 	top = t;

  00047	c7 41 28 00 00
	00 00		 mov	 DWORD PTR [ecx+40], 0

; 542  : 	right = r;

  0004e	c7 41 2c 00 00
	00 00		 mov	 DWORD PTR [ecx+44], 0

; 543  : 	bottom = b;

  00055	c7 41 30 00 00
	00 00		 mov	 DWORD PTR [ecx+48], 0
; File D:\git\src\IBK\IBK_DRFN\ProjSrc\SrcChartEx\ChartOCX\Include_Chart\BaseData.cpp

; 133  : }

  0005c	c3		 ret	 0
??0CGraphRegionsBase@@QAE@XZ ENDP			; CGraphRegionsBase::CGraphRegionsBase
_TEXT	ENDS
; Function compile flags: /Ogtp
; File D:\git\src\IBK\IBK_DRFN\ProjSrc\SrcChartEx\ChartOCX\Include_Chart\BaseData.cpp
;	COMDAT ?GetMaxVertScaleRegionWidth@CScaleRegionAttributes@@QBEHXZ
_TEXT	SEGMENT
?GetMaxVertScaleRegionWidth@CScaleRegionAttributes@@QBEHXZ PROC ; CScaleRegionAttributes::GetMaxVertScaleRegionWidth, COMDAT
; _this$ = ecx

; 121  : 	return m_nMaxVertScaleRegionWidth;

  00000	8b 41 08	 mov	 eax, DWORD PTR [ecx+8]

; 122  : }

  00003	c3		 ret	 0
?GetMaxVertScaleRegionWidth@CScaleRegionAttributes@@QBEHXZ ENDP ; CScaleRegionAttributes::GetMaxVertScaleRegionWidth
_TEXT	ENDS
; Function compile flags: /Ogtp
; File D:\git\src\IBK\IBK_DRFN\ProjSrc\SrcChartEx\ChartOCX\Include_Chart\BaseData.cpp
;	COMDAT ?GetMinVertScaleRegionWidth@CScaleRegionAttributes@@QBEHXZ
_TEXT	SEGMENT
?GetMinVertScaleRegionWidth@CScaleRegionAttributes@@QBEHXZ PROC ; CScaleRegionAttributes::GetMinVertScaleRegionWidth, COMDAT
; _this$ = ecx

; 116  : 	return m_nMinVertScaleRegionWidth;

  00000	8b 41 04	 mov	 eax, DWORD PTR [ecx+4]

; 117  : }

  00003	c3		 ret	 0
?GetMinVertScaleRegionWidth@CScaleRegionAttributes@@QBEHXZ ENDP ; CScaleRegionAttributes::GetMinVertScaleRegionWidth
_TEXT	ENDS
; Function compile flags: /Ogtp
; File D:\git\src\IBK\IBK_DRFN\ProjSrc\SrcChartEx\ChartOCX\Include_Chart\BaseData.cpp
;	COMDAT ?GetMinHorzScaleRegionHeight@CScaleRegionAttributes@@QBEHXZ
_TEXT	SEGMENT
?GetMinHorzScaleRegionHeight@CScaleRegionAttributes@@QBEHXZ PROC ; CScaleRegionAttributes::GetMinHorzScaleRegionHeight, COMDAT
; _this$ = ecx

; 111  : 	return m_nMinHorzScaleRegionHeight;

  00000	8b 01		 mov	 eax, DWORD PTR [ecx]

; 112  : }

  00002	c3		 ret	 0
?GetMinHorzScaleRegionHeight@CScaleRegionAttributes@@QBEHXZ ENDP ; CScaleRegionAttributes::GetMinHorzScaleRegionHeight
_TEXT	ENDS
; Function compile flags: /Ogtp
; File D:\git\src\IBK\IBK_DRFN\ProjSrc\SrcChartEx\ChartOCX\Include_Chart\BaseData.cpp
;	COMDAT ?SetMaxVertScaleRegionWidth@CScaleRegionAttributes@@QAEXH@Z
_TEXT	SEGMENT
_maxVertScaleRegionWidth$ = 8				; size = 4
?SetMaxVertScaleRegionWidth@CScaleRegionAttributes@@QAEXH@Z PROC ; CScaleRegionAttributes::SetMaxVertScaleRegionWidth, COMDAT
; _this$ = ecx

; 104  : {

  00000	55		 push	 ebp
  00001	8b ec		 mov	 ebp, esp

; 105  : 	m_nMaxVertScaleRegionWidth = maxVertScaleRegionWidth;

  00003	8b 45 08	 mov	 eax, DWORD PTR _maxVertScaleRegionWidth$[ebp]
  00006	89 41 08	 mov	 DWORD PTR [ecx+8], eax

; 106  : }

  00009	5d		 pop	 ebp
  0000a	c2 04 00	 ret	 4
?SetMaxVertScaleRegionWidth@CScaleRegionAttributes@@QAEXH@Z ENDP ; CScaleRegionAttributes::SetMaxVertScaleRegionWidth
_TEXT	ENDS
; Function compile flags: /Ogtp
; File D:\git\src\IBK\IBK_DRFN\ProjSrc\SrcChartEx\ChartOCX\Include_Chart\BaseData.cpp
;	COMDAT ?SetMinVertScaleRegionWidth@CScaleRegionAttributes@@QAEXH@Z
_TEXT	SEGMENT
_minVertScaleRegionWidth$ = 8				; size = 4
?SetMinVertScaleRegionWidth@CScaleRegionAttributes@@QAEXH@Z PROC ; CScaleRegionAttributes::SetMinVertScaleRegionWidth, COMDAT
; _this$ = ecx

; 98   : {

  00000	55		 push	 ebp
  00001	8b ec		 mov	 ebp, esp

; 99   : 	m_nMinVertScaleRegionWidth = minVertScaleRegionWidth;

  00003	8b 45 08	 mov	 eax, DWORD PTR _minVertScaleRegionWidth$[ebp]
  00006	89 41 04	 mov	 DWORD PTR [ecx+4], eax

; 100  : }

  00009	5d		 pop	 ebp
  0000a	c2 04 00	 ret	 4
?SetMinVertScaleRegionWidth@CScaleRegionAttributes@@QAEXH@Z ENDP ; CScaleRegionAttributes::SetMinVertScaleRegionWidth
_TEXT	ENDS
; Function compile flags: /Ogtp
; File D:\git\src\IBK\IBK_DRFN\ProjSrc\SrcChartEx\ChartOCX\Include_Chart\BaseData.cpp
;	COMDAT ?SetMinHorzScaleRegionHeight@CScaleRegionAttributes@@QAEXH@Z
_TEXT	SEGMENT
_minHorzScaleRegionHeight$ = 8				; size = 4
?SetMinHorzScaleRegionHeight@CScaleRegionAttributes@@QAEXH@Z PROC ; CScaleRegionAttributes::SetMinHorzScaleRegionHeight, COMDAT
; _this$ = ecx

; 92   : {

  00000	55		 push	 ebp
  00001	8b ec		 mov	 ebp, esp

; 93   : 	m_nMinHorzScaleRegionHeight = minHorzScaleRegionHeight;

  00003	8b 45 08	 mov	 eax, DWORD PTR _minHorzScaleRegionHeight$[ebp]
  00006	89 01		 mov	 DWORD PTR [ecx], eax

; 94   : }

  00008	5d		 pop	 ebp
  00009	c2 04 00	 ret	 4
?SetMinHorzScaleRegionHeight@CScaleRegionAttributes@@QAEXH@Z ENDP ; CScaleRegionAttributes::SetMinHorzScaleRegionHeight
_TEXT	ENDS
; Function compile flags: /Ogtp
; File D:\git\src\IBK\IBK_DRFN\ProjSrc\SrcChartEx\ChartOCX\Include_Chart\BaseData.cpp
;	COMDAT ??0CScaleRegionAttributes@@QAE@XZ
_TEXT	SEGMENT
??0CScaleRegionAttributes@@QAE@XZ PROC			; CScaleRegionAttributes::CScaleRegionAttributes, COMDAT
; _this$ = ecx

; 84   : 	m_nMinHorzScaleRegionHeight(0),

  00000	c7 01 00 00 00
	00		 mov	 DWORD PTR [ecx], 0

; 88   : }

  00006	8b c1		 mov	 eax, ecx
  00008	c7 41 04 00 00
	00 00		 mov	 DWORD PTR [ecx+4], 0
  0000f	c7 41 08 00 00
	00 00		 mov	 DWORD PTR [ecx+8], 0
  00016	c3		 ret	 0
??0CScaleRegionAttributes@@QAE@XZ ENDP			; CScaleRegionAttributes::CScaleRegionAttributes
_TEXT	ENDS
; Function compile flags: /Ogtp
; File D:\git\src\IBK\IBK_DRFN\ProjSrc\SrcChartEx\ChartOCX\Include_Chart\BaseData.cpp
;	COMDAT ?GetDataCountInBlock@CDisplayAttributes@@QBEHXZ
_TEXT	SEGMENT
?GetDataCountInBlock@CDisplayAttributes@@QBEHXZ PROC	; CDisplayAttributes::GetDataCountInBlock, COMDAT
; _this$ = ecx

; 76   : 	return (m_nDataEndInBlock - m_nDataStartInBlock +1);

  00000	8b 41 04	 mov	 eax, DWORD PTR [ecx+4]
  00003	2b 01		 sub	 eax, DWORD PTR [ecx]
  00005	40		 inc	 eax

; 77   : }

  00006	c3		 ret	 0
?GetDataCountInBlock@CDisplayAttributes@@QBEHXZ ENDP	; CDisplayAttributes::GetDataCountInBlock
_TEXT	ENDS
; Function compile flags: /Ogtp
; File D:\git\src\IBK\IBK_DRFN\ProjSrc\SrcChartEx\ChartOCX\Include_Chart\BaseData.cpp
;	COMDAT ?GetDataEndInBlock@CDisplayAttributes@@QBEHXZ
_TEXT	SEGMENT
?GetDataEndInBlock@CDisplayAttributes@@QBEHXZ PROC	; CDisplayAttributes::GetDataEndInBlock, COMDAT
; _this$ = ecx

; 71   : 	return m_nDataEndInBlock;

  00000	8b 41 04	 mov	 eax, DWORD PTR [ecx+4]

; 72   : }

  00003	c3		 ret	 0
?GetDataEndInBlock@CDisplayAttributes@@QBEHXZ ENDP	; CDisplayAttributes::GetDataEndInBlock
_TEXT	ENDS
; Function compile flags: /Ogtp
; File D:\git\src\IBK\IBK_DRFN\ProjSrc\SrcChartEx\ChartOCX\Include_Chart\BaseData.cpp
;	COMDAT ?GetDataStartInBlock@CDisplayAttributes@@QBEHXZ
_TEXT	SEGMENT
?GetDataStartInBlock@CDisplayAttributes@@QBEHXZ PROC	; CDisplayAttributes::GetDataStartInBlock, COMDAT
; _this$ = ecx

; 66   : 	return m_nDataStartInBlock;

  00000	8b 01		 mov	 eax, DWORD PTR [ecx]

; 67   : }

  00002	c3		 ret	 0
?GetDataStartInBlock@CDisplayAttributes@@QBEHXZ ENDP	; CDisplayAttributes::GetDataStartInBlock
_TEXT	ENDS
; Function compile flags: /Ogtp
; File D:\git\src\IBK\IBK_DRFN\ProjSrc\SrcChartEx\ChartOCX\Include_Chart\BaseData.cpp
;	COMDAT ?SetDataEndInBlock@CDisplayAttributes@@QAEXH@Z
_TEXT	SEGMENT
_end$ = 8						; size = 4
?SetDataEndInBlock@CDisplayAttributes@@QAEXH@Z PROC	; CDisplayAttributes::SetDataEndInBlock, COMDAT
; _this$ = ecx

; 59   : {

  00000	55		 push	 ebp
  00001	8b ec		 mov	 ebp, esp

; 60   : 	m_nDataEndInBlock = end;

  00003	8b 45 08	 mov	 eax, DWORD PTR _end$[ebp]
  00006	89 41 04	 mov	 DWORD PTR [ecx+4], eax

; 61   : }

  00009	5d		 pop	 ebp
  0000a	c2 04 00	 ret	 4
?SetDataEndInBlock@CDisplayAttributes@@QAEXH@Z ENDP	; CDisplayAttributes::SetDataEndInBlock
_TEXT	ENDS
; Function compile flags: /Ogtp
; File D:\git\src\IBK\IBK_DRFN\ProjSrc\SrcChartEx\ChartOCX\Include_Chart\BaseData.cpp
;	COMDAT ?SetDataStartInBlock@CDisplayAttributes@@QAEXH@Z
_TEXT	SEGMENT
_start$ = 8						; size = 4
?SetDataStartInBlock@CDisplayAttributes@@QAEXH@Z PROC	; CDisplayAttributes::SetDataStartInBlock, COMDAT
; _this$ = ecx

; 54   : {

  00000	55		 push	 ebp
  00001	8b ec		 mov	 ebp, esp

; 55   : 	m_nDataStartInBlock = start;

  00003	8b 45 08	 mov	 eax, DWORD PTR _start$[ebp]
  00006	89 01		 mov	 DWORD PTR [ecx], eax

; 56   : }

  00008	5d		 pop	 ebp
  00009	c2 04 00	 ret	 4
?SetDataStartInBlock@CDisplayAttributes@@QAEXH@Z ENDP	; CDisplayAttributes::SetDataStartInBlock
_TEXT	ENDS
; Function compile flags: /Ogtp
; File D:\git\src\IBK\IBK_DRFN\ProjSrc\SrcChartEx\ChartOCX\Include_Chart\BaseData.cpp
;	COMDAT ??0CDisplayAttributes@@QAE@HH@Z
_TEXT	SEGMENT
_start$ = 8						; size = 4
_end$ = 12						; size = 4
??0CDisplayAttributes@@QAE@HH@Z PROC			; CDisplayAttributes::CDisplayAttributes, COMDAT
; _this$ = ecx

; 50   : {

  00000	55		 push	 ebp
  00001	8b ec		 mov	 ebp, esp

; 48   : 	m_nDataStartInBlock(start),

  00003	8b 45 08	 mov	 eax, DWORD PTR _start$[ebp]
  00006	89 01		 mov	 DWORD PTR [ecx], eax

; 49   : 	m_nDataEndInBlock(end)

  00008	8b 45 0c	 mov	 eax, DWORD PTR _end$[ebp]
  0000b	89 41 04	 mov	 DWORD PTR [ecx+4], eax

; 51   : }

  0000e	8b c1		 mov	 eax, ecx
  00010	5d		 pop	 ebp
  00011	c2 08 00	 ret	 8
??0CDisplayAttributes@@QAE@HH@Z ENDP			; CDisplayAttributes::CDisplayAttributes
_TEXT	ENDS
; Function compile flags: /Ogtp
; File D:\git\src\IBK\IBK_DRFN\ProjSrc\SrcChartEx\ChartOCX\Include_Chart\BaseData.cpp
;	COMDAT ??0CDisplayAttributes@@QAE@XZ
_TEXT	SEGMENT
??0CDisplayAttributes@@QAE@XZ PROC			; CDisplayAttributes::CDisplayAttributes, COMDAT
; _this$ = ecx

; 42   : 	m_nDataStartInBlock(-1),

  00000	c7 01 ff ff ff
	ff		 mov	 DWORD PTR [ecx], -1

; 45   : }

  00006	8b c1		 mov	 eax, ecx
  00008	c7 41 04 ff ff
	ff ff		 mov	 DWORD PTR [ecx+4], -1
  0000f	c3		 ret	 0
??0CDisplayAttributes@@QAE@XZ ENDP			; CDisplayAttributes::CDisplayAttributes
_TEXT	ENDS
; Function compile flags: /Ogtp
; File D:\git\src\IBK\IBK_DRFN\ProjSrc\SrcChartEx\ChartOCX\Include_Chart\BaseData.cpp
;	COMDAT ??8CDisplayAttributes@@QAE_NABV0@@Z
_TEXT	SEGMENT
_data$ = 8						; size = 4
??8CDisplayAttributes@@QAE_NABV0@@Z PROC		; CDisplayAttributes::operator==, COMDAT
; _this$ = ecx

; 35   : {

  00000	55		 push	 ebp
  00001	8b ec		 mov	 ebp, esp

; 36   : 	return (m_nDataStartInBlock == data.GetDataStartInBlock() && 

  00003	8b 55 08	 mov	 edx, DWORD PTR _data$[ebp]
  00006	8b 01		 mov	 eax, DWORD PTR [ecx]
  00008	3b 02		 cmp	 eax, DWORD PTR [edx]
  0000a	75 0e		 jne	 SHORT $LN3@operator
  0000c	8b 41 04	 mov	 eax, DWORD PTR [ecx+4]
  0000f	3b 42 04	 cmp	 eax, DWORD PTR [edx+4]
  00012	75 06		 jne	 SHORT $LN3@operator
  00014	b0 01		 mov	 al, 1

; 37   : 		m_nDataEndInBlock ==  data.GetDataEndInBlock());
; 38   : }

  00016	5d		 pop	 ebp
  00017	c2 04 00	 ret	 4
$LN3@operator:

; 36   : 	return (m_nDataStartInBlock == data.GetDataStartInBlock() && 

  0001a	32 c0		 xor	 al, al

; 37   : 		m_nDataEndInBlock ==  data.GetDataEndInBlock());
; 38   : }

  0001c	5d		 pop	 ebp
  0001d	c2 04 00	 ret	 4
??8CDisplayAttributes@@QAE_NABV0@@Z ENDP		; CDisplayAttributes::operator==
_TEXT	ENDS
; Function compile flags: /Ogtp
; File D:\git\src\IBK\IBK_DRFN\ProjSrc\SrcChartEx\ChartOCX\Include_Chart\BaseData.cpp
;	COMDAT ??4CDisplayAttributes@@QAEAAV0@ABV0@@Z
_TEXT	SEGMENT
_data$ = 8						; size = 4
??4CDisplayAttributes@@QAEAAV0@ABV0@@Z PROC		; CDisplayAttributes::operator=, COMDAT
; _this$ = ecx

; 25   : {

  00000	55		 push	 ebp
  00001	8b ec		 mov	 ebp, esp

; 26   : 	if(this == &data)

  00003	8b 55 08	 mov	 edx, DWORD PTR _data$[ebp]
  00006	3b ca		 cmp	 ecx, edx
  00008	74 0a		 je	 SHORT $LN4@operator

; 27   : 		return *this;
; 28   : 
; 29   : 	m_nDataStartInBlock = data.GetDataStartInBlock();

  0000a	8b 02		 mov	 eax, DWORD PTR [edx]
  0000c	89 01		 mov	 DWORD PTR [ecx], eax

; 30   : 	m_nDataEndInBlock = data.GetDataEndInBlock();

  0000e	8b 42 04	 mov	 eax, DWORD PTR [edx+4]
  00011	89 41 04	 mov	 DWORD PTR [ecx+4], eax
$LN4@operator:

; 31   : 	return *this;
; 32   : }

  00014	8b c1		 mov	 eax, ecx
  00016	5d		 pop	 ebp
  00017	c2 04 00	 ret	 4
??4CDisplayAttributes@@QAEAAV0@ABV0@@Z ENDP		; CDisplayAttributes::operator=
_TEXT	ENDS
; Function compile flags: /Ogtp
;	COMDAT ??4CVertScaleRegion@@QAEAAV0@$$QAV0@@Z
_TEXT	SEGMENT
___that$ = 8						; size = 4
??4CVertScaleRegion@@QAEAAV0@$$QAV0@@Z PROC		; CVertScaleRegion::operator=, COMDAT
; _this$ = ecx
  00000	55		 push	 ebp
  00001	8b ec		 mov	 ebp, esp
  00003	8b 45 08	 mov	 eax, DWORD PTR ___that$[ebp]
  00006	0f 10 00	 movups	 xmm0, XMMWORD PTR [eax]
  00009	0f 11 01	 movups	 XMMWORD PTR [ecx], xmm0
  0000c	0f 10 40 10	 movups	 xmm0, XMMWORD PTR [eax+16]
  00010	8b c1		 mov	 eax, ecx
  00012	0f 11 41 10	 movups	 XMMWORD PTR [ecx+16], xmm0
  00016	5d		 pop	 ebp
  00017	c2 04 00	 ret	 4
??4CVertScaleRegion@@QAEAAV0@$$QAV0@@Z ENDP		; CVertScaleRegion::operator=
_TEXT	ENDS
; Function compile flags: /Ogtp
;	COMDAT ??4CVertScaleRegion@@QAEAAV0@ABV0@@Z
_TEXT	SEGMENT
___that$ = 8						; size = 4
??4CVertScaleRegion@@QAEAAV0@ABV0@@Z PROC		; CVertScaleRegion::operator=, COMDAT
; _this$ = ecx
  00000	55		 push	 ebp
  00001	8b ec		 mov	 ebp, esp
  00003	8b 45 08	 mov	 eax, DWORD PTR ___that$[ebp]
  00006	0f 10 00	 movups	 xmm0, XMMWORD PTR [eax]
  00009	0f 11 01	 movups	 XMMWORD PTR [ecx], xmm0
  0000c	0f 10 40 10	 movups	 xmm0, XMMWORD PTR [eax+16]
  00010	8b c1		 mov	 eax, ecx
  00012	0f 11 41 10	 movups	 XMMWORD PTR [ecx+16], xmm0
  00016	5d		 pop	 ebp
  00017	c2 04 00	 ret	 4
??4CVertScaleRegion@@QAEAAV0@ABV0@@Z ENDP		; CVertScaleRegion::operator=
_TEXT	ENDS
; Function compile flags: /Ogtp
;	COMDAT ??4CHorzScaleRegion@@QAEAAV0@$$QAV0@@Z
_TEXT	SEGMENT
___that$ = 8						; size = 4
??4CHorzScaleRegion@@QAEAAV0@$$QAV0@@Z PROC		; CHorzScaleRegion::operator=, COMDAT
; _this$ = ecx
  00000	55		 push	 ebp
  00001	8b ec		 mov	 ebp, esp
  00003	8b 45 08	 mov	 eax, DWORD PTR ___that$[ebp]
  00006	0f 10 00	 movups	 xmm0, XMMWORD PTR [eax]
  00009	0f 11 01	 movups	 XMMWORD PTR [ecx], xmm0
  0000c	0f 10 40 10	 movups	 xmm0, XMMWORD PTR [eax+16]
  00010	8b c1		 mov	 eax, ecx
  00012	0f 11 41 10	 movups	 XMMWORD PTR [ecx+16], xmm0
  00016	5d		 pop	 ebp
  00017	c2 04 00	 ret	 4
??4CHorzScaleRegion@@QAEAAV0@$$QAV0@@Z ENDP		; CHorzScaleRegion::operator=
_TEXT	ENDS
; Function compile flags: /Ogtp
;	COMDAT ??4CHorzScaleRegion@@QAEAAV0@ABV0@@Z
_TEXT	SEGMENT
___that$ = 8						; size = 4
??4CHorzScaleRegion@@QAEAAV0@ABV0@@Z PROC		; CHorzScaleRegion::operator=, COMDAT
; _this$ = ecx
  00000	55		 push	 ebp
  00001	8b ec		 mov	 ebp, esp
  00003	8b 45 08	 mov	 eax, DWORD PTR ___that$[ebp]
  00006	0f 10 00	 movups	 xmm0, XMMWORD PTR [eax]
  00009	0f 11 01	 movups	 XMMWORD PTR [ecx], xmm0
  0000c	0f 10 40 10	 movups	 xmm0, XMMWORD PTR [eax+16]
  00010	8b c1		 mov	 eax, ecx
  00012	0f 11 41 10	 movups	 XMMWORD PTR [ecx+16], xmm0
  00016	5d		 pop	 ebp
  00017	c2 04 00	 ret	 4
??4CHorzScaleRegion@@QAEAAV0@ABV0@@Z ENDP		; CHorzScaleRegion::operator=
_TEXT	ENDS
; Function compile flags: /Ogtp
;	COMDAT ??4CVertScaleRegionWidth@@QAEAAV0@$$QAV0@@Z
_TEXT	SEGMENT
___that$ = 8						; size = 4
??4CVertScaleRegionWidth@@QAEAAV0@$$QAV0@@Z PROC	; CVertScaleRegionWidth::operator=, COMDAT
; _this$ = ecx
  00000	55		 push	 ebp
  00001	8b ec		 mov	 ebp, esp
  00003	8b 55 08	 mov	 edx, DWORD PTR ___that$[ebp]
  00006	8b 02		 mov	 eax, DWORD PTR [edx]
  00008	89 01		 mov	 DWORD PTR [ecx], eax
  0000a	8b 42 04	 mov	 eax, DWORD PTR [edx+4]
  0000d	89 41 04	 mov	 DWORD PTR [ecx+4], eax
  00010	8b c1		 mov	 eax, ecx
  00012	5d		 pop	 ebp
  00013	c2 04 00	 ret	 4
??4CVertScaleRegionWidth@@QAEAAV0@$$QAV0@@Z ENDP	; CVertScaleRegionWidth::operator=
_TEXT	ENDS
; Function compile flags: /Ogtp
;	COMDAT ??4CVertScaleRegionWidth@@QAEAAV0@ABV0@@Z
_TEXT	SEGMENT
___that$ = 8						; size = 4
??4CVertScaleRegionWidth@@QAEAAV0@ABV0@@Z PROC		; CVertScaleRegionWidth::operator=, COMDAT
; _this$ = ecx
  00000	55		 push	 ebp
  00001	8b ec		 mov	 ebp, esp
  00003	8b 45 08	 mov	 eax, DWORD PTR ___that$[ebp]
  00006	8b 10		 mov	 edx, DWORD PTR [eax]
  00008	8b 40 04	 mov	 eax, DWORD PTR [eax+4]
  0000b	89 41 04	 mov	 DWORD PTR [ecx+4], eax
  0000e	8b c1		 mov	 eax, ecx
  00010	89 11		 mov	 DWORD PTR [ecx], edx
  00012	5d		 pop	 ebp
  00013	c2 04 00	 ret	 4
??4CVertScaleRegionWidth@@QAEAAV0@ABV0@@Z ENDP		; CVertScaleRegionWidth::operator=
_TEXT	ENDS
; Function compile flags: /Ogtp
;	COMDAT ??4CHorzScaleRegionHeight@@QAEAAV0@$$QAV0@@Z
_TEXT	SEGMENT
___that$ = 8						; size = 4
??4CHorzScaleRegionHeight@@QAEAAV0@$$QAV0@@Z PROC	; CHorzScaleRegionHeight::operator=, COMDAT
; _this$ = ecx
  00000	55		 push	 ebp
  00001	8b ec		 mov	 ebp, esp
  00003	8b 55 08	 mov	 edx, DWORD PTR ___that$[ebp]
  00006	8b 02		 mov	 eax, DWORD PTR [edx]
  00008	89 01		 mov	 DWORD PTR [ecx], eax
  0000a	8b 42 04	 mov	 eax, DWORD PTR [edx+4]
  0000d	89 41 04	 mov	 DWORD PTR [ecx+4], eax
  00010	8b c1		 mov	 eax, ecx
  00012	5d		 pop	 ebp
  00013	c2 04 00	 ret	 4
??4CHorzScaleRegionHeight@@QAEAAV0@$$QAV0@@Z ENDP	; CHorzScaleRegionHeight::operator=
_TEXT	ENDS
; Function compile flags: /Ogtp
;	COMDAT ??4CHorzScaleRegionHeight@@QAEAAV0@ABV0@@Z
_TEXT	SEGMENT
___that$ = 8						; size = 4
??4CHorzScaleRegionHeight@@QAEAAV0@ABV0@@Z PROC		; CHorzScaleRegionHeight::operator=, COMDAT
; _this$ = ecx
  00000	55		 push	 ebp
  00001	8b ec		 mov	 ebp, esp
  00003	8b 45 08	 mov	 eax, DWORD PTR ___that$[ebp]
  00006	8b 10		 mov	 edx, DWORD PTR [eax]
  00008	8b 40 04	 mov	 eax, DWORD PTR [eax+4]
  0000b	89 41 04	 mov	 DWORD PTR [ecx+4], eax
  0000e	8b c1		 mov	 eax, ecx
  00010	89 11		 mov	 DWORD PTR [ecx], edx
  00012	5d		 pop	 ebp
  00013	c2 04 00	 ret	 4
??4CHorzScaleRegionHeight@@QAEAAV0@ABV0@@Z ENDP		; CHorzScaleRegionHeight::operator=
_TEXT	ENDS
; Function compile flags: /Ogtp
;	COMDAT ??0CVerticalScale@@QAE@ABV0@@Z
_TEXT	SEGMENT
_this$ = -4						; size = 4
___that$ = 8						; size = 4
??0CVerticalScale@@QAE@ABV0@@Z PROC			; CVerticalScale::CVerticalScale, COMDAT
; _this$ = ecx
  00000	55		 push	 ebp
  00001	8b ec		 mov	 ebp, esp
  00003	51		 push	 ecx
  00004	56		 push	 esi
  00005	8b 75 08	 mov	 esi, DWORD PTR ___that$[ebp]
  00008	57		 push	 edi
  00009	8b f9		 mov	 edi, ecx
  0000b	89 7d fc	 mov	 DWORD PTR _this$[ebp], edi
  0000e	8d 46 04	 lea	 eax, DWORD PTR [esi+4]
  00011	50		 push	 eax
  00012	8d 4f 04	 lea	 ecx, DWORD PTR [edi+4]
  00015	c7 07 00 00 00
	00		 mov	 DWORD PTR [edi], OFFSET ??_7CScale@@6B@
  0001b	ff 15 00 00 00
	00		 call	 DWORD PTR __imp_??0?$CStringT@DV?$StrTraitMFC_DLL@DV?$ChTraitsCRT@D@ATL@@@@@ATL@@QAE@ABV01@@Z
  00021	8b 46 08	 mov	 eax, DWORD PTR [esi+8]
  00024	89 47 08	 mov	 DWORD PTR [edi+8], eax
  00027	c7 07 00 00 00
	00		 mov	 DWORD PTR [edi], OFFSET ??_7CVerticalScale@@6B@
  0002d	8b 46 0c	 mov	 eax, DWORD PTR [esi+12]
  00030	89 47 0c	 mov	 DWORD PTR [edi+12], eax
  00033	8b 46 10	 mov	 eax, DWORD PTR [esi+16]
  00036	89 47 10	 mov	 DWORD PTR [edi+16], eax
  00039	8b 46 14	 mov	 eax, DWORD PTR [esi+20]
  0003c	89 47 14	 mov	 DWORD PTR [edi+20], eax
  0003f	8b 46 18	 mov	 eax, DWORD PTR [esi+24]
  00042	89 47 18	 mov	 DWORD PTR [edi+24], eax
  00045	f2 0f 10 46 20	 movsd	 xmm0, QWORD PTR [esi+32]
  0004a	f2 0f 11 47 20	 movsd	 QWORD PTR [edi+32], xmm0
  0004f	f2 0f 10 46 28	 movsd	 xmm0, QWORD PTR [esi+40]
  00054	f2 0f 11 47 28	 movsd	 QWORD PTR [edi+40], xmm0
  00059	8b 46 30	 mov	 eax, DWORD PTR [esi+48]
  0005c	89 47 30	 mov	 DWORD PTR [edi+48], eax
  0005f	8a 46 34	 mov	 al, BYTE PTR [esi+52]
  00062	88 47 34	 mov	 BYTE PTR [edi+52], al
  00065	f2 0f 10 46 38	 movsd	 xmm0, QWORD PTR [esi+56]
  0006a	f2 0f 11 47 38	 movsd	 QWORD PTR [edi+56], xmm0
  0006f	f2 0f 10 46 40	 movsd	 xmm0, QWORD PTR [esi+64]
  00074	f2 0f 11 47 40	 movsd	 QWORD PTR [edi+64], xmm0
  00079	8b 46 48	 mov	 eax, DWORD PTR [esi+72]
  0007c	89 47 48	 mov	 DWORD PTR [edi+72], eax
  0007f	8b 46 4c	 mov	 eax, DWORD PTR [esi+76]
  00082	89 47 4c	 mov	 DWORD PTR [edi+76], eax
  00085	8b 46 50	 mov	 eax, DWORD PTR [esi+80]
  00088	89 47 50	 mov	 DWORD PTR [edi+80], eax
  0008b	8b c7		 mov	 eax, edi
  0008d	5f		 pop	 edi
  0008e	5e		 pop	 esi
  0008f	8b e5		 mov	 esp, ebp
  00091	5d		 pop	 ebp
  00092	c2 04 00	 ret	 4
??0CVerticalScale@@QAE@ABV0@@Z ENDP			; CVerticalScale::CVerticalScale
_TEXT	ENDS
; Function compile flags: /Ogtp
;	COMDAT ??1CVerticalScale@@QAE@XZ
_TEXT	SEGMENT
??1CVerticalScale@@QAE@XZ PROC				; CVerticalScale::~CVerticalScale, COMDAT
; _this$ = ecx
  00000	83 c1 04	 add	 ecx, 4
  00003	ff 25 00 00 00
	00		 jmp	 DWORD PTR __imp_??1?$CStringT@DV?$StrTraitMFC_DLL@DV?$ChTraitsCRT@D@ATL@@@@@ATL@@QAE@XZ
??1CVerticalScale@@QAE@XZ ENDP				; CVerticalScale::~CVerticalScale
_TEXT	ENDS
; Function compile flags: /Ogtp
; File D:\git\src\IBK\IBK_DRFN\ProjSrc\SrcChartEx\ChartOCX\Include_Chart\ScaleBaseData.h
;	COMDAT ?GetSpace@CVerticalScale@@QBEXAAH0@Z
_TEXT	SEGMENT
_p_nUpSpace$ = 8					; size = 4
_p_nDownSpace$ = 12					; size = 4
?GetSpace@CVerticalScale@@QBEXAAH0@Z PROC		; CVerticalScale::GetSpace, COMDAT
; _this$ = ecx

; 240  : 	void	GetSpace( int &p_nUpSpace, int &p_nDownSpace) const		{	p_nUpSpace = m_nUpSpace;	p_nDownSpace = m_nDownSpace;	}

  00000	55		 push	 ebp
  00001	8b ec		 mov	 ebp, esp
  00003	8b 45 08	 mov	 eax, DWORD PTR _p_nUpSpace$[ebp]
  00006	8b 51 4c	 mov	 edx, DWORD PTR [ecx+76]
  00009	89 10		 mov	 DWORD PTR [eax], edx
  0000b	8b 45 0c	 mov	 eax, DWORD PTR _p_nDownSpace$[ebp]
  0000e	8b 49 50	 mov	 ecx, DWORD PTR [ecx+80]
  00011	89 08		 mov	 DWORD PTR [eax], ecx
  00013	5d		 pop	 ebp
  00014	c2 08 00	 ret	 8
?GetSpace@CVerticalScale@@QBEXAAH0@Z ENDP		; CVerticalScale::GetSpace
_TEXT	ENDS
; Function compile flags: /Ogtp
; File D:\git\src\IBK\IBK_DRFN\ProjSrc\SrcChartEx\ChartOCX\Include_Chart\ScaleBaseData.h
;	COMDAT ?SetSpace@CVerticalScale@@QAEXHH@Z
_TEXT	SEGMENT
_p_nUpSpace$ = 8					; size = 4
_p_nDownSpace$ = 12					; size = 4
?SetSpace@CVerticalScale@@QAEXHH@Z PROC			; CVerticalScale::SetSpace, COMDAT
; _this$ = ecx

; 239  : 	void	SetSpace( int p_nUpSpace, int p_nDownSpace)				{	m_nUpSpace = p_nUpSpace;	m_nDownSpace = p_nDownSpace;	}

  00000	55		 push	 ebp
  00001	8b ec		 mov	 ebp, esp
  00003	8b 45 08	 mov	 eax, DWORD PTR _p_nUpSpace$[ebp]
  00006	89 41 4c	 mov	 DWORD PTR [ecx+76], eax
  00009	8b 45 0c	 mov	 eax, DWORD PTR _p_nDownSpace$[ebp]
  0000c	89 41 50	 mov	 DWORD PTR [ecx+80], eax
  0000f	5d		 pop	 ebp
  00010	c2 08 00	 ret	 8
?SetSpace@CVerticalScale@@QAEXHH@Z ENDP			; CVerticalScale::SetSpace
_TEXT	ENDS
; Function compile flags: /Ogtp
; File D:\git\src\IBK\IBK_DRFN\ProjSrc\SrcChartEx\ChartOCX\Include_Chart\ScaleBaseData.h
;	COMDAT ?SetVertScaleInvertType@CVerticalScale@@QAEX_N@Z
_TEXT	SEGMENT
_bIsVertScaleInvertType$ = 8				; size = 1
?SetVertScaleInvertType@CVerticalScale@@QAEX_N@Z PROC	; CVerticalScale::SetVertScaleInvertType, COMDAT
; _this$ = ecx

; 232  : 	void	SetVertScaleInvertType(const bool bIsVertScaleInvertType)	{	m_bIsVertScaleInvertType = bIsVertScaleInvertType;	}

  00000	55		 push	 ebp
  00001	8b ec		 mov	 ebp, esp
  00003	8a 45 08	 mov	 al, BYTE PTR _bIsVertScaleInvertType$[ebp]
  00006	88 41 34	 mov	 BYTE PTR [ecx+52], al
  00009	5d		 pop	 ebp
  0000a	c2 04 00	 ret	 4
?SetVertScaleInvertType@CVerticalScale@@QAEX_N@Z ENDP	; CVerticalScale::SetVertScaleInvertType
_TEXT	ENDS
; Function compile flags: /Ogtp
; File D:\git\src\IBK\IBK_DRFN\ProjSrc\SrcChartEx\ChartOCX\Include_Chart\ScaleBaseData.h
;	COMDAT ?GetVertScaleInvertType@CVerticalScale@@QBE_NXZ
_TEXT	SEGMENT
?GetVertScaleInvertType@CVerticalScale@@QBE_NXZ PROC	; CVerticalScale::GetVertScaleInvertType, COMDAT
; _this$ = ecx

; 230  : 	bool	GetVertScaleInvertType() const								{	return m_bIsVertScaleInvertType;	}

  00000	8a 41 34	 mov	 al, BYTE PTR [ecx+52]
  00003	c3		 ret	 0
?GetVertScaleInvertType@CVerticalScale@@QBE_NXZ ENDP	; CVerticalScale::GetVertScaleInvertType
_TEXT	ENDS
; Function compile flags: /Ogtp
; File D:\git\src\IBK\IBK_DRFN\ProjSrc\SrcChartEx\ChartOCX\Include_Chart\ScaleBaseData.h
;	COMDAT ?GetVertUserHogaScaleType@CVerticalScale@@QBEHXZ
_TEXT	SEGMENT
?GetVertUserHogaScaleType@CVerticalScale@@QBEHXZ PROC	; CVerticalScale::GetVertUserHogaScaleType, COMDAT
; _this$ = ecx

; 226  : 	int			GetVertUserHogaScaleType( void) const						{	return m_nUserHogaType;		}			

  00000	8b 41 48	 mov	 eax, DWORD PTR [ecx+72]
  00003	c3		 ret	 0
?GetVertUserHogaScaleType@CVerticalScale@@QBEHXZ ENDP	; CVerticalScale::GetVertUserHogaScaleType
_TEXT	ENDS
; Function compile flags: /Ogtp
; File D:\git\src\IBK\IBK_DRFN\ProjSrc\SrcChartEx\ChartOCX\Include_Chart\ScaleBaseData.h
;	COMDAT ?GetVertScaleUserNumber@CVerticalScale@@QBENXZ
_TEXT	SEGMENT
?GetVertScaleUserNumber@CVerticalScale@@QBENXZ PROC	; CVerticalScale::GetVertScaleUserNumber, COMDAT
; _this$ = ecx

; 225  : 	double		GetVertScaleUserNumber( void) const						{	return m_dUserNumber;		}			

  00000	dd 41 38	 fld	 QWORD PTR [ecx+56]
  00003	c3		 ret	 0
?GetVertScaleUserNumber@CVerticalScale@@QBENXZ ENDP	; CVerticalScale::GetVertScaleUserNumber
_TEXT	ENDS
; Function compile flags: /Ogtp
; File D:\git\src\IBK\IBK_DRFN\ProjSrc\SrcChartEx\ChartOCX\Include_Chart\ScaleBaseData.h
;	COMDAT ?GetVertScaleHoGaNumber@CVerticalScale@@QBENXZ
_TEXT	SEGMENT
?GetVertScaleHoGaNumber@CVerticalScale@@QBENXZ PROC	; CVerticalScale::GetVertScaleHoGaNumber, COMDAT
; _this$ = ecx

; 224  : 	double		GetVertScaleHoGaNumber( void) const						{	return m_dHogaNumber;		}			

  00000	dd 41 40	 fld	 QWORD PTR [ecx+64]
  00003	c3		 ret	 0
?GetVertScaleHoGaNumber@CVerticalScale@@QBENXZ ENDP	; CVerticalScale::GetVertScaleHoGaNumber
_TEXT	ENDS
; Function compile flags: /Ogtp
; File D:\git\src\IBK\IBK_DRFN\ProjSrc\SrcChartEx\ChartOCX\Include_Chart\ScaleBaseData.h
;	COMDAT ?SetVertUserHogaScaleType@CVerticalScale@@QAEXH@Z
_TEXT	SEGMENT
_p_nUserHogaType$ = 8					; size = 4
?SetVertUserHogaScaleType@CVerticalScale@@QAEXH@Z PROC	; CVerticalScale::SetVertUserHogaScaleType, COMDAT
; _this$ = ecx

; 222  : 	void		SetVertUserHogaScaleType( int p_nUserHogaType)		{	m_nUserHogaType = p_nUserHogaType;	}

  00000	55		 push	 ebp
  00001	8b ec		 mov	 ebp, esp
  00003	8b 45 08	 mov	 eax, DWORD PTR _p_nUserHogaType$[ebp]
  00006	89 41 48	 mov	 DWORD PTR [ecx+72], eax
  00009	5d		 pop	 ebp
  0000a	c2 04 00	 ret	 4
?SetVertUserHogaScaleType@CVerticalScale@@QAEXH@Z ENDP	; CVerticalScale::SetVertUserHogaScaleType
_TEXT	ENDS
; Function compile flags: /Ogtp
; File D:\git\src\IBK\IBK_DRFN\ProjSrc\SrcChartEx\ChartOCX\Include_Chart\ScaleBaseData.h
;	COMDAT ?SetVertScaleUserNumber@CVerticalScale@@QAEXN@Z
_TEXT	SEGMENT
_p_dUserNumber$ = 8					; size = 8
?SetVertScaleUserNumber@CVerticalScale@@QAEXN@Z PROC	; CVerticalScale::SetVertScaleUserNumber, COMDAT
; _this$ = ecx

; 221  : 	void		SetVertScaleUserNumber( double p_dUserNumber)			{	m_dUserNumber = p_dUserNumber;	}

  00000	55		 push	 ebp
  00001	8b ec		 mov	 ebp, esp
  00003	f2 0f 10 45 08	 movsd	 xmm0, QWORD PTR _p_dUserNumber$[ebp]
  00008	f2 0f 11 41 38	 movsd	 QWORD PTR [ecx+56], xmm0
  0000d	5d		 pop	 ebp
  0000e	c2 08 00	 ret	 8
?SetVertScaleUserNumber@CVerticalScale@@QAEXN@Z ENDP	; CVerticalScale::SetVertScaleUserNumber
_TEXT	ENDS
; Function compile flags: /Ogtp
; File D:\git\src\IBK\IBK_DRFN\ProjSrc\SrcChartEx\ChartOCX\Include_Chart\ScaleBaseData.h
;	COMDAT ?SetVertScaleHoGaNumber@CVerticalScale@@QAEXN@Z
_TEXT	SEGMENT
_p_dHogaNumber$ = 8					; size = 8
?SetVertScaleHoGaNumber@CVerticalScale@@QAEXN@Z PROC	; CVerticalScale::SetVertScaleHoGaNumber, COMDAT
; _this$ = ecx

; 220  : 	void		SetVertScaleHoGaNumber( double p_dHogaNumber)			{	m_dHogaNumber = p_dHogaNumber;	}

  00000	55		 push	 ebp
  00001	8b ec		 mov	 ebp, esp
  00003	f2 0f 10 45 08	 movsd	 xmm0, QWORD PTR _p_dHogaNumber$[ebp]
  00008	f2 0f 11 41 40	 movsd	 QWORD PTR [ecx+64], xmm0
  0000d	5d		 pop	 ebp
  0000e	c2 08 00	 ret	 8
?SetVertScaleHoGaNumber@CVerticalScale@@QAEXN@Z ENDP	; CVerticalScale::SetVertScaleHoGaNumber
_TEXT	ENDS
; Function compile flags: /Ogtp
; File D:\git\src\IBK\IBK_DRFN\ProjSrc\SrcChartEx\ChartOCX\Include_Chart\ScaleBaseData.h
;	COMDAT ?SetVertScaleMax@CVerticalScale@@QAEXN@Z
_TEXT	SEGMENT
_p_dMax$ = 8						; size = 8
?SetVertScaleMax@CVerticalScale@@QAEXN@Z PROC		; CVerticalScale::SetVertScaleMax, COMDAT
; _this$ = ecx

; 211  : 	void							SetVertScaleMax( double p_dMax)											{	m_dMax = p_dMax;	}

  00000	55		 push	 ebp
  00001	8b ec		 mov	 ebp, esp
  00003	f2 0f 10 45 08	 movsd	 xmm0, QWORD PTR _p_dMax$[ebp]
  00008	f2 0f 11 41 28	 movsd	 QWORD PTR [ecx+40], xmm0
  0000d	5d		 pop	 ebp
  0000e	c2 08 00	 ret	 8
?SetVertScaleMax@CVerticalScale@@QAEXN@Z ENDP		; CVerticalScale::SetVertScaleMax
_TEXT	ENDS
; Function compile flags: /Ogtp
; File D:\git\src\IBK\IBK_DRFN\ProjSrc\SrcChartEx\ChartOCX\Include_Chart\ScaleBaseData.h
;	COMDAT ?GetVertScaleMax@CVerticalScale@@QBENXZ
_TEXT	SEGMENT
?GetVertScaleMax@CVerticalScale@@QBENXZ PROC		; CVerticalScale::GetVertScaleMax, COMDAT
; _this$ = ecx

; 210  : 	double							GetVertScaleMax( void) const											{	return m_dMax;		}

  00000	dd 41 28	 fld	 QWORD PTR [ecx+40]
  00003	c3		 ret	 0
?GetVertScaleMax@CVerticalScale@@QBENXZ ENDP		; CVerticalScale::GetVertScaleMax
_TEXT	ENDS
; Function compile flags: /Ogtp
; File D:\git\src\IBK\IBK_DRFN\ProjSrc\SrcChartEx\ChartOCX\Include_Chart\ScaleBaseData.h
;	COMDAT ?SetVertScaleMin@CVerticalScale@@QAEXN@Z
_TEXT	SEGMENT
_p_dMin$ = 8						; size = 8
?SetVertScaleMin@CVerticalScale@@QAEXN@Z PROC		; CVerticalScale::SetVertScaleMin, COMDAT
; _this$ = ecx

; 208  : 	void							SetVertScaleMin( double p_dMin)											{	m_dMin = p_dMin;	}

  00000	55		 push	 ebp
  00001	8b ec		 mov	 ebp, esp
  00003	f2 0f 10 45 08	 movsd	 xmm0, QWORD PTR _p_dMin$[ebp]
  00008	f2 0f 11 41 20	 movsd	 QWORD PTR [ecx+32], xmm0
  0000d	5d		 pop	 ebp
  0000e	c2 08 00	 ret	 8
?SetVertScaleMin@CVerticalScale@@QAEXN@Z ENDP		; CVerticalScale::SetVertScaleMin
_TEXT	ENDS
; Function compile flags: /Ogtp
; File D:\git\src\IBK\IBK_DRFN\ProjSrc\SrcChartEx\ChartOCX\Include_Chart\ScaleBaseData.h
;	COMDAT ?GetVertScaleMin@CVerticalScale@@QBENXZ
_TEXT	SEGMENT
?GetVertScaleMin@CVerticalScale@@QBENXZ PROC		; CVerticalScale::GetVertScaleMin, COMDAT
; _this$ = ecx

; 207  : 	double							GetVertScaleMin( void) const											{	return m_dMin;		}			

  00000	dd 41 20	 fld	 QWORD PTR [ecx+32]
  00003	c3		 ret	 0
?GetVertScaleMin@CVerticalScale@@QBENXZ ENDP		; CVerticalScale::GetVertScaleMin
_TEXT	ENDS
; Function compile flags: /Ogtp
; File D:\git\src\IBK\IBK_DRFN\ProjSrc\SrcChartEx\ChartOCX\Include_Chart\ScaleBaseData.h
;	COMDAT ?SetVertScaleMinMaxType@CVerticalScale@@QAEXW4VERTMINMAXTYPE@CScaleBaseData@@@Z
_TEXT	SEGMENT
_p_eMinMaxType$ = 8					; size = 4
?SetVertScaleMinMaxType@CVerticalScale@@QAEXW4VERTMINMAXTYPE@CScaleBaseData@@@Z PROC ; CVerticalScale::SetVertScaleMinMaxType, COMDAT
; _this$ = ecx

; 205  : 	void							SetVertScaleMinMaxType( CScaleBaseData::VERTMINMAXTYPE p_eMinMaxType) 	{	m_eMinMaxType = p_eMinMaxType;	}

  00000	55		 push	 ebp
  00001	8b ec		 mov	 ebp, esp
  00003	8b 45 08	 mov	 eax, DWORD PTR _p_eMinMaxType$[ebp]
  00006	89 41 18	 mov	 DWORD PTR [ecx+24], eax
  00009	5d		 pop	 ebp
  0000a	c2 04 00	 ret	 4
?SetVertScaleMinMaxType@CVerticalScale@@QAEXW4VERTMINMAXTYPE@CScaleBaseData@@@Z ENDP ; CVerticalScale::SetVertScaleMinMaxType
_TEXT	ENDS
; Function compile flags: /Ogtp
; File D:\git\src\IBK\IBK_DRFN\ProjSrc\SrcChartEx\ChartOCX\Include_Chart\ScaleBaseData.h
;	COMDAT ?GetVertScaleMinMaxType@CVerticalScale@@QBE?AW4VERTMINMAXTYPE@CScaleBaseData@@XZ
_TEXT	SEGMENT
?GetVertScaleMinMaxType@CVerticalScale@@QBE?AW4VERTMINMAXTYPE@CScaleBaseData@@XZ PROC ; CVerticalScale::GetVertScaleMinMaxType, COMDAT
; _this$ = ecx

; 204  : 	CScaleBaseData::VERTMINMAXTYPE	GetVertScaleMinMaxType( void) const										{	return m_eMinMaxType;			}

  00000	8b 41 18	 mov	 eax, DWORD PTR [ecx+24]
  00003	c3		 ret	 0
?GetVertScaleMinMaxType@CVerticalScale@@QBE?AW4VERTMINMAXTYPE@CScaleBaseData@@XZ ENDP ; CVerticalScale::GetVertScaleMinMaxType
_TEXT	ENDS
; Function compile flags: /Ogtp
; File D:\git\src\IBK\IBK_DRFN\ProjSrc\SrcChartEx\ChartOCX\Include_Chart\ScaleBaseData.h
;	COMDAT ?SetVertScaleMinMaxLock@CVerticalScale@@QAEXH@Z
_TEXT	SEGMENT
_p_bMinMaxLock$ = 8					; size = 4
?SetVertScaleMinMaxLock@CVerticalScale@@QAEXH@Z PROC	; CVerticalScale::SetVertScaleMinMaxLock, COMDAT
; _this$ = ecx

; 202  : 	void							SetVertScaleMinMaxLock( BOOL p_bMinMaxLock)								{	m_bMinMaxLock = p_bMinMaxLock;	}

  00000	55		 push	 ebp
  00001	8b ec		 mov	 ebp, esp
  00003	8b 45 08	 mov	 eax, DWORD PTR _p_bMinMaxLock$[ebp]
  00006	89 41 14	 mov	 DWORD PTR [ecx+20], eax
  00009	5d		 pop	 ebp
  0000a	c2 04 00	 ret	 4
?SetVertScaleMinMaxLock@CVerticalScale@@QAEXH@Z ENDP	; CVerticalScale::SetVertScaleMinMaxLock
_TEXT	ENDS
; Function compile flags: /Ogtp
; File D:\git\src\IBK\IBK_DRFN\ProjSrc\SrcChartEx\ChartOCX\Include_Chart\ScaleBaseData.h
;	COMDAT ?IsVertScaleMinMaxLock@CVerticalScale@@QBEHXZ
_TEXT	SEGMENT
?IsVertScaleMinMaxLock@CVerticalScale@@QBEHXZ PROC	; CVerticalScale::IsVertScaleMinMaxLock, COMDAT
; _this$ = ecx

; 201  : 	BOOL							IsVertScaleMinMaxLock( void) const										{	return m_bMinMaxLock;			}

  00000	8b 41 14	 mov	 eax, DWORD PTR [ecx+20]
  00003	c3		 ret	 0
?IsVertScaleMinMaxLock@CVerticalScale@@QBEHXZ ENDP	; CVerticalScale::IsVertScaleMinMaxLock
_TEXT	ENDS
; Function compile flags: /Ogtp
;	COMDAT ??0CHorizontalScale@@QAE@ABV0@@Z
_TEXT	SEGMENT
_this$ = -16						; size = 4
__$EHRec$ = -12						; size = 12
_this$ = 8						; size = 4
___that$ = 8						; size = 4
??0CHorizontalScale@@QAE@ABV0@@Z PROC			; CHorizontalScale::CHorizontalScale, COMDAT
; _this$ = ecx
  00000	55		 push	 ebp
  00001	8b ec		 mov	 ebp, esp
  00003	6a ff		 push	 -1
  00005	68 00 00 00 00	 push	 __ehhandler$??0CHorizontalScale@@QAE@ABV0@@Z
  0000a	64 a1 00 00 00
	00		 mov	 eax, DWORD PTR fs:0
  00010	50		 push	 eax
  00011	51		 push	 ecx
  00012	53		 push	 ebx
  00013	56		 push	 esi
  00014	57		 push	 edi
  00015	a1 00 00 00 00	 mov	 eax, DWORD PTR ___security_cookie
  0001a	33 c5		 xor	 eax, ebp
  0001c	50		 push	 eax
  0001d	8d 45 f4	 lea	 eax, DWORD PTR __$EHRec$[ebp]
  00020	64 a3 00 00 00
	00		 mov	 DWORD PTR fs:0, eax
  00026	8b f1		 mov	 esi, ecx
  00028	89 75 f0	 mov	 DWORD PTR _this$[ebp], esi
  0002b	8b 5d 08	 mov	 ebx, DWORD PTR ___that$[ebp]
  0002e	8d 4e 04	 lea	 ecx, DWORD PTR [esi+4]
  00031	c7 06 00 00 00
	00		 mov	 DWORD PTR [esi], OFFSET ??_7CScale@@6B@
  00037	8d 43 04	 lea	 eax, DWORD PTR [ebx+4]
  0003a	50		 push	 eax
  0003b	ff 15 00 00 00
	00		 call	 DWORD PTR __imp_??0?$CStringT@DV?$StrTraitMFC_DLL@DV?$ChTraitsCRT@D@ATL@@@@@ATL@@QAE@ABV01@@Z
  00041	8b 43 08	 mov	 eax, DWORD PTR [ebx+8]
  00044	89 46 08	 mov	 DWORD PTR [esi+8], eax
  00047	c7 06 00 00 00
	00		 mov	 DWORD PTR [esi], OFFSET ??_7CHorizontalScale@@6B@
  0004d	8d 7b 10	 lea	 edi, DWORD PTR [ebx+16]
  00050	8b 43 0c	 mov	 eax, DWORD PTR [ebx+12]
  00053	89 46 0c	 mov	 DWORD PTR [esi+12], eax
  00056	83 c6 10	 add	 esi, 16			; 00000010H
  00059	57		 push	 edi
  0005a	8b ce		 mov	 ecx, esi
  0005c	c7 45 fc 00 00
	00 00		 mov	 DWORD PTR __$EHRec$[ebp+8], 0
  00063	89 75 08	 mov	 DWORD PTR _this$[ebp], esi
  00066	ff 15 00 00 00
	00		 call	 DWORD PTR __imp_??0?$CStringT@DV?$StrTraitMFC_DLL@DV?$ChTraitsCRT@D@ATL@@@@@ATL@@QAE@ABV01@@Z
  0006c	8d 47 04	 lea	 eax, DWORD PTR [edi+4]
  0006f	c6 45 fc 01	 mov	 BYTE PTR __$EHRec$[ebp+8], 1
  00073	50		 push	 eax
  00074	8d 4e 04	 lea	 ecx, DWORD PTR [esi+4]
  00077	ff 15 00 00 00
	00		 call	 DWORD PTR __imp_??0?$CStringT@DV?$StrTraitMFC_DLL@DV?$ChTraitsCRT@D@ATL@@@@@ATL@@QAE@ABV01@@Z
  0007d	8b 4d f0	 mov	 ecx, DWORD PTR _this$[ebp]
  00080	8b 47 08	 mov	 eax, DWORD PTR [edi+8]
  00083	89 46 08	 mov	 DWORD PTR [esi+8], eax
  00086	8b 43 1c	 mov	 eax, DWORD PTR [ebx+28]
  00089	89 41 1c	 mov	 DWORD PTR [ecx+28], eax
  0008c	8b 43 20	 mov	 eax, DWORD PTR [ebx+32]
  0008f	89 41 20	 mov	 DWORD PTR [ecx+32], eax
  00092	8b 43 24	 mov	 eax, DWORD PTR [ebx+36]
  00095	89 41 24	 mov	 DWORD PTR [ecx+36], eax
  00098	8b 43 28	 mov	 eax, DWORD PTR [ebx+40]
  0009b	89 41 28	 mov	 DWORD PTR [ecx+40], eax
  0009e	8b 43 2c	 mov	 eax, DWORD PTR [ebx+44]
  000a1	89 41 2c	 mov	 DWORD PTR [ecx+44], eax
  000a4	8b 43 30	 mov	 eax, DWORD PTR [ebx+48]
  000a7	89 41 30	 mov	 DWORD PTR [ecx+48], eax
  000aa	8b 43 34	 mov	 eax, DWORD PTR [ebx+52]
  000ad	89 41 34	 mov	 DWORD PTR [ecx+52], eax
  000b0	8b 43 38	 mov	 eax, DWORD PTR [ebx+56]
  000b3	89 41 38	 mov	 DWORD PTR [ecx+56], eax
  000b6	8b 43 3c	 mov	 eax, DWORD PTR [ebx+60]
  000b9	89 41 3c	 mov	 DWORD PTR [ecx+60], eax
  000bc	8b 43 40	 mov	 eax, DWORD PTR [ebx+64]
  000bf	89 41 40	 mov	 DWORD PTR [ecx+64], eax
  000c2	8b 43 44	 mov	 eax, DWORD PTR [ebx+68]
  000c5	89 41 44	 mov	 DWORD PTR [ecx+68], eax
  000c8	8b 43 48	 mov	 eax, DWORD PTR [ebx+72]
  000cb	89 41 48	 mov	 DWORD PTR [ecx+72], eax
  000ce	0f b7 43 4c	 movzx	 eax, WORD PTR [ebx+76]
  000d2	66 89 41 4c	 mov	 WORD PTR [ecx+76], ax
  000d6	0f b7 43 4e	 movzx	 eax, WORD PTR [ebx+78]
  000da	66 89 41 4e	 mov	 WORD PTR [ecx+78], ax
  000de	0f b7 43 50	 movzx	 eax, WORD PTR [ebx+80]
  000e2	66 89 41 50	 mov	 WORD PTR [ecx+80], ax
  000e6	0f b7 43 52	 movzx	 eax, WORD PTR [ebx+82]
  000ea	66 89 41 52	 mov	 WORD PTR [ecx+82], ax
  000ee	8b 43 54	 mov	 eax, DWORD PTR [ebx+84]
  000f1	89 41 54	 mov	 DWORD PTR [ecx+84], eax
  000f4	8b 43 58	 mov	 eax, DWORD PTR [ebx+88]
  000f7	89 41 58	 mov	 DWORD PTR [ecx+88], eax
  000fa	8b 43 5c	 mov	 eax, DWORD PTR [ebx+92]
  000fd	89 41 5c	 mov	 DWORD PTR [ecx+92], eax
  00100	8b 43 60	 mov	 eax, DWORD PTR [ebx+96]
  00103	89 41 60	 mov	 DWORD PTR [ecx+96], eax
  00106	8b c1		 mov	 eax, ecx
  00108	8b 4d f4	 mov	 ecx, DWORD PTR __$EHRec$[ebp]
  0010b	64 89 0d 00 00
	00 00		 mov	 DWORD PTR fs:0, ecx
  00112	59		 pop	 ecx
  00113	5f		 pop	 edi
  00114	5e		 pop	 esi
  00115	5b		 pop	 ebx
  00116	8b e5		 mov	 esp, ebp
  00118	5d		 pop	 ebp
  00119	c2 04 00	 ret	 4
_TEXT	ENDS
;	COMDAT text$x
text$x	SEGMENT
__unwindfunclet$??0CHorizontalScale@@QAE@ABV0@@Z$0:
  00000	8b 4d f0	 mov	 ecx, DWORD PTR _this$[ebp]
  00003	e9 00 00 00 00	 jmp	 ??1CScale@@QAE@XZ
__unwindfunclet$??0CHorizontalScale@@QAE@ABV0@@Z$3:
  00008	8b 4d 08	 mov	 ecx, DWORD PTR _this$[ebp]
  0000b	ff 25 00 00 00
	00		 jmp	 DWORD PTR __imp_??1?$CStringT@DV?$StrTraitMFC_DLL@DV?$ChTraitsCRT@D@ATL@@@@@ATL@@QAE@XZ
  00011	cc		 int	 3
  00012	cc		 int	 3
  00013	cc		 int	 3
  00014	cc		 int	 3
  00015	cc		 int	 3
__ehhandler$??0CHorizontalScale@@QAE@ABV0@@Z:
  00016	90		 npad	 1
  00017	90		 npad	 1
  00018	8b 54 24 08	 mov	 edx, DWORD PTR [esp+8]
  0001c	8d 42 0c	 lea	 eax, DWORD PTR [edx+12]
  0001f	8b 4a ec	 mov	 ecx, DWORD PTR [edx-20]
  00022	33 c8		 xor	 ecx, eax
  00024	e8 00 00 00 00	 call	 @__security_check_cookie@4
  00029	b8 00 00 00 00	 mov	 eax, OFFSET __ehfuncinfo$??0CHorizontalScale@@QAE@ABV0@@Z
  0002e	e9 00 00 00 00	 jmp	 ___CxxFrameHandler3
text$x	ENDS
??0CHorizontalScale@@QAE@ABV0@@Z ENDP			; CHorizontalScale::CHorizontalScale
; Function compile flags: /Ogtp
;	COMDAT ??1CHorizontalScale@@QAE@XZ
_TEXT	SEGMENT
??1CHorizontalScale@@QAE@XZ PROC			; CHorizontalScale::~CHorizontalScale, COMDAT
; _this$ = ecx
  00000	56		 push	 esi
  00001	57		 push	 edi
  00002	8b f9		 mov	 edi, ecx
  00004	8d 4f 14	 lea	 ecx, DWORD PTR [edi+20]
  00007	ff 15 00 00 00
	00		 call	 DWORD PTR __imp_??1?$CStringT@DV?$StrTraitMFC_DLL@DV?$ChTraitsCRT@D@ATL@@@@@ATL@@QAE@XZ
  0000d	8d 4f 10	 lea	 ecx, DWORD PTR [edi+16]
  00010	ff 15 00 00 00
	00		 call	 DWORD PTR __imp_??1?$CStringT@DV?$StrTraitMFC_DLL@DV?$ChTraitsCRT@D@ATL@@@@@ATL@@QAE@XZ
  00016	8d 4f 04	 lea	 ecx, DWORD PTR [edi+4]
  00019	5f		 pop	 edi
  0001a	5e		 pop	 esi
  0001b	ff 25 00 00 00
	00		 jmp	 DWORD PTR __imp_??1?$CStringT@DV?$StrTraitMFC_DLL@DV?$ChTraitsCRT@D@ATL@@@@@ATL@@QAE@XZ
??1CHorizontalScale@@QAE@XZ ENDP			; CHorizontalScale::~CHorizontalScale
_TEXT	ENDS
; Function compile flags: /Ogtp
;	COMDAT ??0CScale@@QAE@ABV0@@Z
_TEXT	SEGMENT
_this$ = -4						; size = 4
___that$ = 8						; size = 4
??0CScale@@QAE@ABV0@@Z PROC				; CScale::CScale, COMDAT
; _this$ = ecx
  00000	55		 push	 ebp
  00001	8b ec		 mov	 ebp, esp
  00003	51		 push	 ecx
  00004	56		 push	 esi
  00005	8b 75 08	 mov	 esi, DWORD PTR ___that$[ebp]
  00008	57		 push	 edi
  00009	8b f9		 mov	 edi, ecx
  0000b	89 7d fc	 mov	 DWORD PTR _this$[ebp], edi
  0000e	8d 46 04	 lea	 eax, DWORD PTR [esi+4]
  00011	50		 push	 eax
  00012	8d 4f 04	 lea	 ecx, DWORD PTR [edi+4]
  00015	c7 07 00 00 00
	00		 mov	 DWORD PTR [edi], OFFSET ??_7CScale@@6B@
  0001b	ff 15 00 00 00
	00		 call	 DWORD PTR __imp_??0?$CStringT@DV?$StrTraitMFC_DLL@DV?$ChTraitsCRT@D@ATL@@@@@ATL@@QAE@ABV01@@Z
  00021	8b 46 08	 mov	 eax, DWORD PTR [esi+8]
  00024	89 47 08	 mov	 DWORD PTR [edi+8], eax
  00027	8b c7		 mov	 eax, edi
  00029	5f		 pop	 edi
  0002a	5e		 pop	 esi
  0002b	8b e5		 mov	 esp, ebp
  0002d	5d		 pop	 ebp
  0002e	c2 04 00	 ret	 4
??0CScale@@QAE@ABV0@@Z ENDP				; CScale::CScale
_TEXT	ENDS
; Function compile flags: /Ogtp
;	COMDAT ??1CScale@@QAE@XZ
_TEXT	SEGMENT
??1CScale@@QAE@XZ PROC					; CScale::~CScale, COMDAT
; _this$ = ecx
  00000	83 c1 04	 add	 ecx, 4
  00003	ff 25 00 00 00
	00		 jmp	 DWORD PTR __imp_??1?$CStringT@DV?$StrTraitMFC_DLL@DV?$ChTraitsCRT@D@ATL@@@@@ATL@@QAE@XZ
??1CScale@@QAE@XZ ENDP					; CScale::~CScale
_TEXT	ENDS
; Function compile flags: /Ogtp
;	COMDAT ??0CScaleCompart@@QAE@ABV0@@Z
_TEXT	SEGMENT
_this$ = -16						; size = 4
__$EHRec$ = -12						; size = 12
___that$ = 8						; size = 4
??0CScaleCompart@@QAE@ABV0@@Z PROC			; CScaleCompart::CScaleCompart, COMDAT
; _this$ = ecx
  00000	55		 push	 ebp
  00001	8b ec		 mov	 ebp, esp
  00003	6a ff		 push	 -1
  00005	68 00 00 00 00	 push	 __ehhandler$??0CScaleCompart@@QAE@ABV0@@Z
  0000a	64 a1 00 00 00
	00		 mov	 eax, DWORD PTR fs:0
  00010	50		 push	 eax
  00011	51		 push	 ecx
  00012	56		 push	 esi
  00013	57		 push	 edi
  00014	a1 00 00 00 00	 mov	 eax, DWORD PTR ___security_cookie
  00019	33 c5		 xor	 eax, ebp
  0001b	50		 push	 eax
  0001c	8d 45 f4	 lea	 eax, DWORD PTR __$EHRec$[ebp]
  0001f	64 a3 00 00 00
	00		 mov	 DWORD PTR fs:0, eax
  00025	8b f9		 mov	 edi, ecx
  00027	89 7d f0	 mov	 DWORD PTR _this$[ebp], edi
  0002a	8b 75 08	 mov	 esi, DWORD PTR ___that$[ebp]
  0002d	56		 push	 esi
  0002e	ff 15 00 00 00
	00		 call	 DWORD PTR __imp_??0?$CStringT@DV?$StrTraitMFC_DLL@DV?$ChTraitsCRT@D@ATL@@@@@ATL@@QAE@ABV01@@Z
  00034	8d 46 04	 lea	 eax, DWORD PTR [esi+4]
  00037	c7 45 fc 00 00
	00 00		 mov	 DWORD PTR __$EHRec$[ebp+8], 0
  0003e	50		 push	 eax
  0003f	8d 4f 04	 lea	 ecx, DWORD PTR [edi+4]
  00042	ff 15 00 00 00
	00		 call	 DWORD PTR __imp_??0?$CStringT@DV?$StrTraitMFC_DLL@DV?$ChTraitsCRT@D@ATL@@@@@ATL@@QAE@ABV01@@Z
  00048	8b 46 08	 mov	 eax, DWORD PTR [esi+8]
  0004b	89 47 08	 mov	 DWORD PTR [edi+8], eax
  0004e	8b c7		 mov	 eax, edi
  00050	8b 4d f4	 mov	 ecx, DWORD PTR __$EHRec$[ebp]
  00053	64 89 0d 00 00
	00 00		 mov	 DWORD PTR fs:0, ecx
  0005a	59		 pop	 ecx
  0005b	5f		 pop	 edi
  0005c	5e		 pop	 esi
  0005d	8b e5		 mov	 esp, ebp
  0005f	5d		 pop	 ebp
  00060	c2 04 00	 ret	 4
_TEXT	ENDS
;	COMDAT text$x
text$x	SEGMENT
__unwindfunclet$??0CScaleCompart@@QAE@ABV0@@Z$0:
  00000	8b 4d f0	 mov	 ecx, DWORD PTR _this$[ebp]
  00003	ff 25 00 00 00
	00		 jmp	 DWORD PTR __imp_??1?$CStringT@DV?$StrTraitMFC_DLL@DV?$ChTraitsCRT@D@ATL@@@@@ATL@@QAE@XZ
  00009	cc		 int	 3
  0000a	cc		 int	 3
  0000b	cc		 int	 3
  0000c	cc		 int	 3
  0000d	cc		 int	 3
__ehhandler$??0CScaleCompart@@QAE@ABV0@@Z:
  0000e	90		 npad	 1
  0000f	90		 npad	 1
  00010	8b 54 24 08	 mov	 edx, DWORD PTR [esp+8]
  00014	8d 42 0c	 lea	 eax, DWORD PTR [edx+12]
  00017	8b 4a f0	 mov	 ecx, DWORD PTR [edx-16]
  0001a	33 c8		 xor	 ecx, eax
  0001c	e8 00 00 00 00	 call	 @__security_check_cookie@4
  00021	b8 00 00 00 00	 mov	 eax, OFFSET __ehfuncinfo$??0CScaleCompart@@QAE@ABV0@@Z
  00026	e9 00 00 00 00	 jmp	 ___CxxFrameHandler3
text$x	ENDS
??0CScaleCompart@@QAE@ABV0@@Z ENDP			; CScaleCompart::CScaleCompart
; Function compile flags: /Ogtp
;	COMDAT ??1CScaleCompart@@QAE@XZ
_TEXT	SEGMENT
??1CScaleCompart@@QAE@XZ PROC				; CScaleCompart::~CScaleCompart, COMDAT
; _this$ = ecx
  00000	56		 push	 esi
  00001	8b f1		 mov	 esi, ecx
  00003	8d 4e 04	 lea	 ecx, DWORD PTR [esi+4]
  00006	ff 15 00 00 00
	00		 call	 DWORD PTR __imp_??1?$CStringT@DV?$StrTraitMFC_DLL@DV?$ChTraitsCRT@D@ATL@@@@@ATL@@QAE@XZ
  0000c	8b ce		 mov	 ecx, esi
  0000e	5e		 pop	 esi
  0000f	ff 25 00 00 00
	00		 jmp	 DWORD PTR __imp_??1?$CStringT@DV?$StrTraitMFC_DLL@DV?$ChTraitsCRT@D@ATL@@@@@ATL@@QAE@XZ
??1CScaleCompart@@QAE@XZ ENDP				; CScaleCompart::~CScaleCompart
_TEXT	ENDS
; Function compile flags: /Ogtp
; File D:\git\src\IBK\IBK_DRFN\ProjSrc\SrcChartEx\ChartOCX\Include_Chart\BaseData.cpp
;	COMDAT ?__empty_global_delete@@YAXPAXI@Z
_TEXT	SEGMENT
___formal$ = 8						; size = 4
___formal$ = 12						; size = 4
?__empty_global_delete@@YAXPAXI@Z PROC			; __empty_global_delete, COMDAT

  00000	c2 00 00	 ret	 0
?__empty_global_delete@@YAXPAXI@Z ENDP			; __empty_global_delete
_TEXT	ENDS
; Function compile flags: /Ogtp
; File D:\git\src\IBK\IBK_DRFN\ProjSrc\SrcChartEx\ChartOCX\Include_Chart\BaseData.cpp
;	COMDAT ?__empty_global_delete@@YAXPAX@Z
_TEXT	SEGMENT
___formal$ = 8						; size = 4
?__empty_global_delete@@YAXPAX@Z PROC			; __empty_global_delete, COMDAT

  00000	c2 00 00	 ret	 0
?__empty_global_delete@@YAXPAX@Z ENDP			; __empty_global_delete
_TEXT	ENDS
END
