; Listing generated by Microsoft (R) Optimizing Compiler Version 19.29.30145.0 

	TITLE	D:\git\src\IBK\IBK_DRFN\#DRfn-CS\_Obj\ScaleDraw\DataHorzScaleDrawer.obj
	.686P
	.XMM
	include listing.inc
	.model	flat

INCLUDELIB MSVCRT
INCLUDELIB OLDNAMES

PUBLIC	?__empty_global_delete@@YAXPAX@Z		; __empty_global_delete
PUBLIC	?__empty_global_delete@@YAXPAXI@Z		; __empty_global_delete
PUBLIC	??1CObject@@UAE@XZ				; CObject::~CObject
PUBLIC	?Serialize@CObject@@UAEXAAVCArchive@@@Z		; CObject::Serialize
PUBLIC	?AssertValid@CObject@@UBEXXZ			; CObject::AssertValid
PUBLIC	?Dump@CObject@@UBEXAAVCDumpContext@@@Z		; CObject::Dump
PUBLIC	??1CGdiObject@@UAE@XZ				; CGdiObject::~CGdiObject
PUBLIC	??_GCGdiObject@@UAEPAXI@Z			; CGdiObject::`scalar deleting destructor'
PUBLIC	??1CFont@@UAE@XZ				; CFont::~CFont
PUBLIC	??_GCFont@@UAEPAXI@Z				; CFont::`scalar deleting destructor'
PUBLIC	?GetTextExtent@CDC@@QBE?AVCSize@@ABV?$CStringT@DV?$StrTraitMFC_DLL@DV?$ChTraitsCRT@D@ATL@@@@@ATL@@@Z ; CDC::GetTextExtent
PUBLIC	?DrawTextOrGrid@CHorzScaleDrawer@@UAE_NPAVCDC@@ABVCDrawingHorzScaleData@@ABVCRect@@ABVCHorizontalScale@@PAVCXScaleManager@@PBD@Z ; CHorzScaleDrawer::DrawTextOrGrid
PUBLIC	?DrawTextOrGrid_Both@CHorzScaleDrawer@@UAE_NPAVCDC@@ABVCDrawingHorzScaleData@@ABVCHorzScaleRegion@@ABVCHorizontalScale@@PAVCXScaleManager@@PBD@Z ; CHorzScaleDrawer::DrawTextOrGrid_Both
PUBLIC	?DrawGrid@CHorzScaleDrawer@@UAE_NPAVCDC@@ABVCDrawingHorzScaleData@@ABVCHorzScaleRegion@@ABVCHorizontalScale@@PAVCXScaleManager@@PBD@Z ; CHorzScaleDrawer::DrawGrid
PUBLIC	??0CDataHorzScaleDrawer@@QAE@PAUHWND__@@W4CHART_MODE@CChartInfo@@@Z ; CDataHorzScaleDrawer::CDataHorzScaleDrawer
PUBLIC	?DrawTextAndCompartLine@CDataHorzScaleDrawer@@IAEXPAVCDC@@ABVCRect@@ABVCPoint@@ABN_NABV?$CStringT@DV?$StrTraitMFC_DLL@DV?$ChTraitsCRT@D@ATL@@@@@ATL@@ABVCSize@@KKAAH@Z ; CDataHorzScaleDrawer::DrawTextAndCompartLine
PUBLIC	?GetTextEndPosition_x@CDataHorzScaleDrawer@@IBEHABVCPoint@@ABVCSize@@@Z ; CDataHorzScaleDrawer::GetTextEndPosition_x
PUBLIC	?GetTextPosition_x@CDataHorzScaleDrawer@@IBEHHH_N@Z ; CDataHorzScaleDrawer::GetTextPosition_x
PUBLIC	?IsOverlap@CDataHorzScaleDrawer@@IBE_NHHH@Z	; CDataHorzScaleDrawer::IsOverlap
PUBLIC	??0CPriceZoneHorzScaleDrawer@@QAE@PAUHWND__@@W4CHART_MODE@CChartInfo@@@Z ; CPriceZoneHorzScaleDrawer::CPriceZoneHorzScaleDrawer
PUBLIC	?DrawTextOrGrid@CPriceZoneHorzScaleDrawer@@UAEXPAVCDC@@ABVCDrawingHorzScaleData@@ABVCRect@@ABVCHorizontalScale@@@Z ; CPriceZoneHorzScaleDrawer::DrawTextOrGrid
PUBLIC	?DrawTextOrGrid_Both@CPriceZoneHorzScaleDrawer@@UAEXPAVCDC@@ABVCDrawingHorzScaleData@@ABVCHorzScaleRegion@@ABVCHorizontalScale@@@Z ; CPriceZoneHorzScaleDrawer::DrawTextOrGrid_Both
PUBLIC	?DrawGrid@CPriceZoneHorzScaleDrawer@@UAEXPAVCDC@@ABVCDrawingHorzScaleData@@ABVCHorizontalScale@@@Z ; CPriceZoneHorzScaleDrawer::DrawGrid
PUBLIC	??0CEtcDataHorzScaleDrawer@@QAE@PAUHWND__@@W4CHART_MODE@CChartInfo@@@Z ; CEtcDataHorzScaleDrawer::CEtcDataHorzScaleDrawer
PUBLIC	?DrawTextOrGrid@CEtcDataHorzScaleDrawer@@UAEXPAVCDC@@ABVCDrawingHorzScaleData@@ABVCRect@@ABVCHorizontalScale@@@Z ; CEtcDataHorzScaleDrawer::DrawTextOrGrid
PUBLIC	?DrawTextOrGrid_Both@CEtcDataHorzScaleDrawer@@UAEXPAVCDC@@ABVCDrawingHorzScaleData@@ABVCHorzScaleRegion@@ABVCHorizontalScale@@@Z ; CEtcDataHorzScaleDrawer::DrawTextOrGrid_Both
PUBLIC	?DrawGrid@CEtcDataHorzScaleDrawer@@UAEXPAVCDC@@ABVCDrawingHorzScaleData@@ABVCHorizontalScale@@@Z ; CEtcDataHorzScaleDrawer::DrawGrid
PUBLIC	?DrawTextAndCompartLine_stand@CEtcDataHorzScaleDrawer@@AAEXPAVCDC@@ABVCRect@@ABVCPoint@@ABNABV?$CStringT@DV?$StrTraitMFC_DLL@DV?$ChTraitsCRT@D@ATL@@@@@ATL@@ABVCSize@@KKAAH@Z ; CEtcDataHorzScaleDrawer::DrawTextAndCompartLine_stand
PUBLIC	?GetFont@CEtcDataHorzScaleDrawer@@AAEXAAVCFont@@@Z ; CEtcDataHorzScaleDrawer::GetFont
PUBLIC	??0CLeftRightScaleDrawer@@QAE@PAUHWND__@@W4CHART_MODE@CChartInfo@@@Z ; CLeftRightScaleDrawer::CLeftRightScaleDrawer
PUBLIC	?DrawTextOrGrid@CLeftRightScaleDrawer@@UAEXPAVCDC@@ABVCDrawingHorzScaleData@@ABVCRect@@ABVCHorizontalScale@@@Z ; CLeftRightScaleDrawer::DrawTextOrGrid
PUBLIC	?DrawTextOrGrid_Both@CLeftRightScaleDrawer@@UAEXPAVCDC@@ABVCDrawingHorzScaleData@@ABVCHorzScaleRegion@@ABVCHorizontalScale@@@Z ; CLeftRightScaleDrawer::DrawTextOrGrid_Both
PUBLIC	?DrawGrid@CLeftRightScaleDrawer@@UAEXPAVCDC@@ABVCDrawingHorzScaleData@@ABVCHorizontalScale@@@Z ; CLeftRightScaleDrawer::DrawGrid
PUBLIC	?GetDrawingEnvironment@CLeftRightScaleDrawer@@ABE_NABVCDrawingHorzScaleData@@ABVCRect@@HAAV?$CList@NN@@AAN33AAH@Z ; CLeftRightScaleDrawer::GetDrawingEnvironment
PUBLIC	?GetDataListAndMinMax@CLeftRightScaleDrawer@@ABE_NABVCDrawingHorzScaleData@@AAV?$CList@NN@@AAN2@Z ; CLeftRightScaleDrawer::GetDataListAndMinMax
PUBLIC	?GetRealMinMax@CLeftRightScaleDrawer@@ABEXABVCDrawingHorzScaleData@@ABV?$CStringT@DV?$StrTraitMFC_DLL@DV?$ChTraitsCRT@D@ATL@@@@@ATL@@AAN222@Z ; CLeftRightScaleDrawer::GetRealMinMax
PUBLIC	?GetRealMinMax_FixedRate@CLeftRightScaleDrawer@@ABEXABVCDisplayDataMinMax@@AAN1@Z ; CLeftRightScaleDrawer::GetRealMinMax_FixedRate
PUBLIC	?GetData@CLeftRightScaleDrawer@@ABE?AV?$CStringT@DV?$StrTraitMFC_DLL@DV?$ChTraitsCRT@D@ATL@@@@@ATL@@ABNAAN@Z ; CLeftRightScaleDrawer::GetData
PUBLIC	??0CMarketProfileHorzScaleDrawer@@QAE@PAUHWND__@@W4CHART_MODE@CChartInfo@@@Z ; CMarketProfileHorzScaleDrawer::CMarketProfileHorzScaleDrawer
PUBLIC	?DrawTextOrGrid@CMarketProfileHorzScaleDrawer@@UAEXPAVCDC@@ABVCDrawingHorzScaleData@@ABVCRect@@ABVCHorizontalScale@@@Z ; CMarketProfileHorzScaleDrawer::DrawTextOrGrid
PUBLIC	?DrawTextOrGrid_Both@CMarketProfileHorzScaleDrawer@@UAEXPAVCDC@@ABVCDrawingHorzScaleData@@ABVCHorzScaleRegion@@ABVCHorizontalScale@@@Z ; CMarketProfileHorzScaleDrawer::DrawTextOrGrid_Both
PUBLIC	?DrawGrid@CMarketProfileHorzScaleDrawer@@UAEXPAVCDC@@ABVCDrawingHorzScaleData@@ABVCHorizontalScale@@@Z ; CMarketProfileHorzScaleDrawer::DrawGrid
PUBLIC	?DrawScale@CMarketProfileHorzScaleDrawer@@AAEXPAVCDC@@ABVCDrawingHorzScaleData@@ABVCRect@@2ABVCHorizontalScale@@@Z ; CMarketProfileHorzScaleDrawer::DrawScale
PUBLIC	?DrawTextAndCompartLine@CMarketProfileHorzScaleDrawer@@AAEXPAVCDC@@ABVCRect@@ABVCPoint@@_NABV?$CStringT@DV?$StrTraitMFC_DLL@DV?$ChTraitsCRT@D@ATL@@@@@ATL@@KKAAH@Z ; CMarketProfileHorzScaleDrawer::DrawTextAndCompartLine
PUBLIC	?GetEnvironmentData@CMarketProfileHorzScaleDrawer@@ABE_NPAVCMPPacket@@ABVCRect@@1HAAPAV?$CList@PAVCMProfile@@PAV1@@@AANAAH4@Z ; CMarketProfileHorzScaleDrawer::GetEnvironmentData
PUBLIC	?IsDrawText@CMarketProfileHorzScaleDrawer@@ABE_NW4HORZSCALEPOSITION@CScaleBaseData@@HH@Z ; CMarketProfileHorzScaleDrawer::IsDrawText
PUBLIC	?IsTopPostiont@CMarketProfileHorzScaleDrawer@@ABE_NW4HORZSCALEPOSITION@CScaleBaseData@@_N@Z ; CMarketProfileHorzScaleDrawer::IsTopPostiont
PUBLIC	??1CScaleCompart@@QAE@XZ			; CScaleCompart::~CScaleCompart
PUBLIC	??0CScaleCompart@@QAE@ABV0@@Z			; CScaleCompart::CScaleCompart
PUBLIC	??1CScale@@QAE@XZ				; CScale::~CScale
PUBLIC	??0CScale@@QAE@ABV0@@Z				; CScale::CScale
PUBLIC	??1CHorizontalScale@@QAE@XZ			; CHorizontalScale::~CHorizontalScale
PUBLIC	??0CHorizontalScale@@QAE@ABV0@@Z		; CHorizontalScale::CHorizontalScale
PUBLIC	?IsVertScaleMinMaxLock@CVerticalScale@@QBEHXZ	; CVerticalScale::IsVertScaleMinMaxLock
PUBLIC	?SetVertScaleMinMaxLock@CVerticalScale@@QAEXH@Z	; CVerticalScale::SetVertScaleMinMaxLock
PUBLIC	?GetVertScaleMinMaxType@CVerticalScale@@QBE?AW4VERTMINMAXTYPE@CScaleBaseData@@XZ ; CVerticalScale::GetVertScaleMinMaxType
PUBLIC	?SetVertScaleMinMaxType@CVerticalScale@@QAEXW4VERTMINMAXTYPE@CScaleBaseData@@@Z ; CVerticalScale::SetVertScaleMinMaxType
PUBLIC	?GetVertScaleMin@CVerticalScale@@QBENXZ		; CVerticalScale::GetVertScaleMin
PUBLIC	?SetVertScaleMin@CVerticalScale@@QAEXN@Z	; CVerticalScale::SetVertScaleMin
PUBLIC	?GetVertScaleMax@CVerticalScale@@QBENXZ		; CVerticalScale::GetVertScaleMax
PUBLIC	?SetVertScaleMax@CVerticalScale@@QAEXN@Z	; CVerticalScale::SetVertScaleMax
PUBLIC	?SetVertScaleHoGaNumber@CVerticalScale@@QAEXN@Z	; CVerticalScale::SetVertScaleHoGaNumber
PUBLIC	?SetVertScaleUserNumber@CVerticalScale@@QAEXN@Z	; CVerticalScale::SetVertScaleUserNumber
PUBLIC	?SetVertUserHogaScaleType@CVerticalScale@@QAEXH@Z ; CVerticalScale::SetVertUserHogaScaleType
PUBLIC	?GetVertScaleHoGaNumber@CVerticalScale@@QBENXZ	; CVerticalScale::GetVertScaleHoGaNumber
PUBLIC	?GetVertScaleUserNumber@CVerticalScale@@QBENXZ	; CVerticalScale::GetVertScaleUserNumber
PUBLIC	?GetVertUserHogaScaleType@CVerticalScale@@QBEHXZ ; CVerticalScale::GetVertUserHogaScaleType
PUBLIC	?GetVertScaleInvertType@CVerticalScale@@QBE_NXZ	; CVerticalScale::GetVertScaleInvertType
PUBLIC	?SetVertScaleInvertType@CVerticalScale@@QAEX_N@Z ; CVerticalScale::SetVertScaleInvertType
PUBLIC	?SetSpace@CVerticalScale@@QAEXHH@Z		; CVerticalScale::SetSpace
PUBLIC	?GetSpace@CVerticalScale@@QBEXAAH0@Z		; CVerticalScale::GetSpace
PUBLIC	??1CVerticalScale@@QAE@XZ			; CVerticalScale::~CVerticalScale
PUBLIC	??0CVerticalScale@@QAE@ABV0@@Z			; CVerticalScale::CVerticalScale
PUBLIC	??4CHorzScaleRegionHeight@@QAEAAV0@ABV0@@Z	; CHorzScaleRegionHeight::operator=
PUBLIC	??4CHorzScaleRegionHeight@@QAEAAV0@$$QAV0@@Z	; CHorzScaleRegionHeight::operator=
PUBLIC	??4CVertScaleRegionWidth@@QAEAAV0@ABV0@@Z	; CVertScaleRegionWidth::operator=
PUBLIC	??4CVertScaleRegionWidth@@QAEAAV0@$$QAV0@@Z	; CVertScaleRegionWidth::operator=
PUBLIC	??4CHorzScaleRegion@@QAEAAV0@ABV0@@Z		; CHorzScaleRegion::operator=
PUBLIC	??4CHorzScaleRegion@@QAEAAV0@$$QAV0@@Z		; CHorzScaleRegion::operator=
PUBLIC	??4CVertScaleRegion@@QAEAAV0@ABV0@@Z		; CVertScaleRegion::operator=
PUBLIC	??4CVertScaleRegion@@QAEAAV0@$$QAV0@@Z		; CVertScaleRegion::operator=
PUBLIC	??0?$CList@NN@@QAE@H@Z				; CList<double,double>::CList<double,double>
PUBLIC	?AddTail@?$CList@NN@@QAEPAU__POSITION@@N@Z	; CList<double,double>::AddTail
PUBLIC	?RemoveAll@?$CList@NN@@QAEXXZ			; CList<double,double>::RemoveAll
PUBLIC	?FindIndex@?$CList@NN@@QBEPAU__POSITION@@H@Z	; CList<double,double>::FindIndex
PUBLIC	?NewNode@?$CList@NN@@IAEPAUCNode@1@PAU21@0@Z	; CList<double,double>::NewNode
PUBLIC	??1?$CList@NN@@UAE@XZ				; CList<double,double>::~CList<double,double>
PUBLIC	?Serialize@?$CList@NN@@UAEXAAVCArchive@@@Z	; CList<double,double>::Serialize
PUBLIC	??_G?$CList@NN@@UAEPAXI@Z			; CList<double,double>::`scalar deleting destructor'
PUBLIC	??$SerializeElements@N@@YGXAAVCArchive@@PANH@Z	; SerializeElements<double>
PUBLIC	??_R0PAVCException@@@8				; CException * `RTTI Type Descriptor'
PUBLIC	??_C@_00CNPNBAHC@@				; `string'
PUBLIC	??_7CGdiObject@@6B@				; CGdiObject::`vftable'
PUBLIC	??_7CFont@@6B@					; CFont::`vftable'
PUBLIC	??_C@_0HD@JJCHHHNK@C?3?2Program?5Files?5?$CIx86?$CJ?2Microsof@ ; `string'
PUBLIC	??_C@_0BP@OIEOKIDM@Exception?5thrown?5in?5destructor@ ; `string'
PUBLIC	??_C@_0BB@HBOOMJBF@?$CFTs?5?$CI?$CFTs?3?$CFd?$CJ?6?$CFTs@ ; `string'
PUBLIC	??_C@_0N@OMEMOKLE@?$CFTs?5?$CI?$CFTs?3?$CFd?$CJ@ ; `string'
PUBLIC	??_R0?AVCObject@@@8				; CObject `RTTI Type Descriptor'
PUBLIC	??_R3CObject@@8					; CObject::`RTTI Class Hierarchy Descriptor'
PUBLIC	??_R2CObject@@8					; CObject::`RTTI Base Class Array'
PUBLIC	??_R1A@?0A@EA@CObject@@8			; CObject::`RTTI Base Class Descriptor at (0,-1,0,64)'
PUBLIC	??_R4CGdiObject@@6B@				; CGdiObject::`RTTI Complete Object Locator'
PUBLIC	??_R0?AVCGdiObject@@@8				; CGdiObject `RTTI Type Descriptor'
PUBLIC	??_R3CGdiObject@@8				; CGdiObject::`RTTI Class Hierarchy Descriptor'
PUBLIC	??_R2CGdiObject@@8				; CGdiObject::`RTTI Base Class Array'
PUBLIC	??_R1A@?0A@EA@CGdiObject@@8			; CGdiObject::`RTTI Base Class Descriptor at (0,-1,0,64)'
PUBLIC	??_R4CFont@@6B@					; CFont::`RTTI Complete Object Locator'
PUBLIC	??_R0?AVCFont@@@8				; CFont `RTTI Type Descriptor'
PUBLIC	??_R3CFont@@8					; CFont::`RTTI Class Hierarchy Descriptor'
PUBLIC	??_R2CFont@@8					; CFont::`RTTI Base Class Array'
PUBLIC	??_R1A@?0A@EA@CFont@@8				; CFont::`RTTI Base Class Descriptor at (0,-1,0,64)'
PUBLIC	??_7CDataHorzScaleDrawer@@6B@			; CDataHorzScaleDrawer::`vftable'
PUBLIC	??_7CPriceZoneHorzScaleDrawer@@6B@		; CPriceZoneHorzScaleDrawer::`vftable'
PUBLIC	??_7CEtcDataHorzScaleDrawer@@6B@		; CEtcDataHorzScaleDrawer::`vftable'
PUBLIC	??_7CLeftRightScaleDrawer@@6B@			; CLeftRightScaleDrawer::`vftable'
PUBLIC	??_7CMarketProfileHorzScaleDrawer@@6B@		; CMarketProfileHorzScaleDrawer::`vftable'
PUBLIC	??_7CScale@@6B@					; CScale::`vftable'
PUBLIC	??_7CHorizontalScale@@6B@			; CHorizontalScale::`vftable'
PUBLIC	??_7CVerticalScale@@6B@				; CVerticalScale::`vftable'
PUBLIC	??_7?$CList@NN@@6B@				; CList<double,double>::`vftable'
PUBLIC	??_C@_01GBGANLPD@0@				; `string'
PUBLIC	??_C@_09KKPNDFC@?$CF02d?1?$CF02d@		; `string'
PUBLIC	??_R4CHorizontalScale@@6B@			; CHorizontalScale::`RTTI Complete Object Locator'
PUBLIC	??_R0?AVCHorizontalScale@@@8			; CHorizontalScale `RTTI Type Descriptor'
PUBLIC	??_R3CHorizontalScale@@8			; CHorizontalScale::`RTTI Class Hierarchy Descriptor'
PUBLIC	??_R2CHorizontalScale@@8			; CHorizontalScale::`RTTI Base Class Array'
PUBLIC	??_R1A@?0A@EA@CHorizontalScale@@8		; CHorizontalScale::`RTTI Base Class Descriptor at (0,-1,0,64)'
PUBLIC	??_R1A@?0A@EA@CScale@@8				; CScale::`RTTI Base Class Descriptor at (0,-1,0,64)'
PUBLIC	??_R0?AVCScale@@@8				; CScale `RTTI Type Descriptor'
PUBLIC	??_R3CScale@@8					; CScale::`RTTI Class Hierarchy Descriptor'
PUBLIC	??_R2CScale@@8					; CScale::`RTTI Base Class Array'
PUBLIC	??_R4CDataHorzScaleDrawer@@6B@			; CDataHorzScaleDrawer::`RTTI Complete Object Locator'
PUBLIC	??_R0?AVCDataHorzScaleDrawer@@@8		; CDataHorzScaleDrawer `RTTI Type Descriptor'
PUBLIC	??_R3CDataHorzScaleDrawer@@8			; CDataHorzScaleDrawer::`RTTI Class Hierarchy Descriptor'
PUBLIC	??_R2CDataHorzScaleDrawer@@8			; CDataHorzScaleDrawer::`RTTI Base Class Array'
PUBLIC	??_R1A@?0A@EA@CDataHorzScaleDrawer@@8		; CDataHorzScaleDrawer::`RTTI Base Class Descriptor at (0,-1,0,64)'
PUBLIC	??_R1A@?0A@EA@CHorzScaleDrawer@@8		; CHorzScaleDrawer::`RTTI Base Class Descriptor at (0,-1,0,64)'
PUBLIC	??_R0?AVCHorzScaleDrawer@@@8			; CHorzScaleDrawer `RTTI Type Descriptor'
PUBLIC	??_R3CHorzScaleDrawer@@8			; CHorzScaleDrawer::`RTTI Class Hierarchy Descriptor'
PUBLIC	??_R2CHorzScaleDrawer@@8			; CHorzScaleDrawer::`RTTI Base Class Array'
PUBLIC	??_R13?0A@EA@CDrawer@@8				; CDrawer::`RTTI Base Class Descriptor at (4,-1,0,64)'
PUBLIC	??_R0?AVCDrawer@@@8				; CDrawer `RTTI Type Descriptor'
PUBLIC	??_R3CDrawer@@8					; CDrawer::`RTTI Class Hierarchy Descriptor'
PUBLIC	??_R2CDrawer@@8					; CDrawer::`RTTI Base Class Array'
PUBLIC	??_R1A@?0A@EA@CDrawer@@8			; CDrawer::`RTTI Base Class Descriptor at (0,-1,0,64)'
PUBLIC	??_R4CPriceZoneHorzScaleDrawer@@6B@		; CPriceZoneHorzScaleDrawer::`RTTI Complete Object Locator'
PUBLIC	??_R0?AVCPriceZoneHorzScaleDrawer@@@8		; CPriceZoneHorzScaleDrawer `RTTI Type Descriptor'
PUBLIC	??_R3CPriceZoneHorzScaleDrawer@@8		; CPriceZoneHorzScaleDrawer::`RTTI Class Hierarchy Descriptor'
PUBLIC	??_R2CPriceZoneHorzScaleDrawer@@8		; CPriceZoneHorzScaleDrawer::`RTTI Base Class Array'
PUBLIC	??_R1A@?0A@EA@CPriceZoneHorzScaleDrawer@@8	; CPriceZoneHorzScaleDrawer::`RTTI Base Class Descriptor at (0,-1,0,64)'
PUBLIC	??_R4CEtcDataHorzScaleDrawer@@6B@		; CEtcDataHorzScaleDrawer::`RTTI Complete Object Locator'
PUBLIC	??_R0?AVCEtcDataHorzScaleDrawer@@@8		; CEtcDataHorzScaleDrawer `RTTI Type Descriptor'
PUBLIC	??_R3CEtcDataHorzScaleDrawer@@8			; CEtcDataHorzScaleDrawer::`RTTI Class Hierarchy Descriptor'
PUBLIC	??_R2CEtcDataHorzScaleDrawer@@8			; CEtcDataHorzScaleDrawer::`RTTI Base Class Array'
PUBLIC	??_R1A@?0A@EA@CEtcDataHorzScaleDrawer@@8	; CEtcDataHorzScaleDrawer::`RTTI Base Class Descriptor at (0,-1,0,64)'
PUBLIC	??_R4CLeftRightScaleDrawer@@6B@			; CLeftRightScaleDrawer::`RTTI Complete Object Locator'
PUBLIC	??_R0?AVCLeftRightScaleDrawer@@@8		; CLeftRightScaleDrawer `RTTI Type Descriptor'
PUBLIC	??_R3CLeftRightScaleDrawer@@8			; CLeftRightScaleDrawer::`RTTI Class Hierarchy Descriptor'
PUBLIC	??_R2CLeftRightScaleDrawer@@8			; CLeftRightScaleDrawer::`RTTI Base Class Array'
PUBLIC	??_R1A@?0A@EA@CLeftRightScaleDrawer@@8		; CLeftRightScaleDrawer::`RTTI Base Class Descriptor at (0,-1,0,64)'
PUBLIC	??_R4?$CList@NN@@6B@				; CList<double,double>::`RTTI Complete Object Locator'
PUBLIC	??_R0?AV?$CList@NN@@@8				; CList<double,double> `RTTI Type Descriptor'
PUBLIC	??_R3?$CList@NN@@8				; CList<double,double>::`RTTI Class Hierarchy Descriptor'
PUBLIC	??_R2?$CList@NN@@8				; CList<double,double>::`RTTI Base Class Array'
PUBLIC	??_R1A@?0A@EA@?$CList@NN@@8			; CList<double,double>::`RTTI Base Class Descriptor at (0,-1,0,64)'
PUBLIC	??_R4CMarketProfileHorzScaleDrawer@@6B@		; CMarketProfileHorzScaleDrawer::`RTTI Complete Object Locator'
PUBLIC	??_R0?AVCMarketProfileHorzScaleDrawer@@@8	; CMarketProfileHorzScaleDrawer `RTTI Type Descriptor'
PUBLIC	??_R3CMarketProfileHorzScaleDrawer@@8		; CMarketProfileHorzScaleDrawer::`RTTI Class Hierarchy Descriptor'
PUBLIC	??_R2CMarketProfileHorzScaleDrawer@@8		; CMarketProfileHorzScaleDrawer::`RTTI Base Class Array'
PUBLIC	??_R1A@?0A@EA@CMarketProfileHorzScaleDrawer@@8	; CMarketProfileHorzScaleDrawer::`RTTI Base Class Descriptor at (0,-1,0,64)'
PUBLIC	??_R4CScale@@6B@				; CScale::`RTTI Complete Object Locator'
PUBLIC	??_R4CVerticalScale@@6B@			; CVerticalScale::`RTTI Complete Object Locator'
PUBLIC	??_R0?AVCVerticalScale@@@8			; CVerticalScale `RTTI Type Descriptor'
PUBLIC	??_R3CVerticalScale@@8				; CVerticalScale::`RTTI Class Hierarchy Descriptor'
PUBLIC	??_R2CVerticalScale@@8				; CVerticalScale::`RTTI Base Class Array'
PUBLIC	??_R1A@?0A@EA@CVerticalScale@@8			; CVerticalScale::`RTTI Base Class Descriptor at (0,-1,0,64)'
PUBLIC	__real@0000000000000000
PUBLIC	__real@3fe0000000000000
PUBLIC	__xmm@7fffffffffffffff7fffffffffffffff
PUBLIC	__xmm@80000000000000008000000000000000
EXTRN	__purecall:PROC
EXTRN	??3@YAXPAX@Z:PROC				; operator delete
EXTRN	?__global_delete@@YAXPAXI@Z:PROC		; __global_delete
EXTRN	___std_terminate:PROC
EXTRN	__imp__CreateFontIndirectA@4:PROC
EXTRN	__imp__GetCurrentObject@8:PROC
EXTRN	__imp__GetStockObject@4:PROC
EXTRN	__imp__GetTextExtentPoint32A@16:PROC
EXTRN	__imp__SelectObject@8:PROC
EXTRN	__imp__GetObjectA@12:PROC
EXTRN	__imp__InflateRect@12:PROC
EXTRN	__imp__IsRectEmpty@4:PROC
EXTRN	?AfxThrowInvalidArgException@@YGXXZ:PROC	; AfxThrowInvalidArgException
EXTRN	?AfxThrowArchiveException@@YGXHPBD@Z:PROC	; AfxThrowArchiveException
EXTRN	?GetRuntimeClass@CObject@@UBEPAUCRuntimeClass@@XZ:PROC ; CObject::GetRuntimeClass
EXTRN	__imp_??A?$CSimpleStringT@D$00@ATL@@QBEDH@Z:PROC
EXTRN	__imp_?Concatenate@?$CSimpleStringT@D$00@ATL@@KAXAAV12@PBDH1H@Z:PROC
EXTRN	__imp_??0?$CStringT@DV?$StrTraitMFC_DLL@DV?$ChTraitsCRT@D@ATL@@@@@ATL@@QAE@XZ:PROC
EXTRN	__imp_??0?$CStringT@DV?$StrTraitMFC_DLL@DV?$ChTraitsCRT@D@ATL@@@@@ATL@@QAE@PAUIAtlStringMgr@1@@Z:PROC
EXTRN	__imp_??0?$CStringT@DV?$StrTraitMFC_DLL@DV?$ChTraitsCRT@D@ATL@@@@@ATL@@QAE@ABV01@@Z:PROC
EXTRN	__imp_??0?$CStringT@DV?$StrTraitMFC_DLL@DV?$ChTraitsCRT@D@ATL@@@@@ATL@@QAE@PBD@Z:PROC
EXTRN	__imp_??1?$CStringT@DV?$StrTraitMFC_DLL@DV?$ChTraitsCRT@D@ATL@@@@@ATL@@QAE@XZ:PROC
EXTRN	__imp_??4?$CStringT@DV?$StrTraitMFC_DLL@DV?$ChTraitsCRT@D@ATL@@@@@ATL@@QAEAAV01@ABV01@@Z:PROC
EXTRN	__imp_?GetManager@?$CStringT@DV?$StrTraitMFC_DLL@DV?$ChTraitsCRT@D@ATL@@@@@ATL@@QBEPAUIAtlStringMgr@2@XZ:PROC
EXTRN	__imp_?Left@?$CStringT@DV?$StrTraitMFC_DLL@DV?$ChTraitsCRT@D@ATL@@@@@ATL@@QBE?AV12@H@Z:PROC
EXTRN	__imp_?Format@?$CStringT@DV?$StrTraitMFC_DLL@DV?$ChTraitsCRT@D@ATL@@@@@ATL@@QAAXPBDZZ:PROC
EXTRN	?Read@CArchive@@QAEIPAXI@Z:PROC			; CArchive::Read
EXTRN	?Write@CArchive@@QAEXPBXI@Z:PROC		; CArchive::Write
EXTRN	?ReadCount@CArchive@@QAEKXZ:PROC		; CArchive::ReadCount
EXTRN	?WriteCount@CArchive@@QAEXK@Z:PROC		; CArchive::WriteCount
EXTRN	?Create@CPlex@@SGPAU1@AAPAU1@II@Z:PROC		; CPlex::Create
EXTRN	?FreeDataChain@CPlex@@QAEXXZ:PROC		; CPlex::FreeDataChain
EXTRN	?GetRuntimeClass@CGdiObject@@UBEPAUCRuntimeClass@@XZ:PROC ; CGdiObject::GetRuntimeClass
EXTRN	?FromHandle@CGdiObject@@SGPAV1@PAX@Z:PROC	; CGdiObject::FromHandle
EXTRN	?Attach@CGdiObject@@QAEHPAX@Z:PROC		; CGdiObject::Attach
EXTRN	?DeleteObject@CGdiObject@@QAEHXZ:PROC		; CGdiObject::DeleteObject
EXTRN	??_ECGdiObject@@UAEPAXI@Z:PROC			; CGdiObject::`vector deleting destructor'
EXTRN	?GetRuntimeClass@CFont@@UBEPAUCRuntimeClass@@XZ:PROC ; CFont::GetRuntimeClass
EXTRN	??_ECFont@@UAEPAXI@Z:PROC			; CFont::`vector deleting destructor'
EXTRN	?SetBkMode@CDC@@QAEHH@Z:PROC			; CDC::SetBkMode
EXTRN	?AfxMessageBox@@YGHPBDII@Z:PROC			; AfxMessageBox
EXTRN	?GetPacketDataType@CDrawer@@IBE?AV?$CStringT@DV?$StrTraitMFC_DLL@DV?$ChTraitsCRT@D@ATL@@@@@ATL@@PAVCPacket@@@Z:PROC ; CDrawer::GetPacketDataType
EXTRN	?DrawTextOut@CDrawer@@IAEXPAVCDC@@ABVCPoint@@ABV?$CStringT@DV?$StrTraitMFC_DLL@DV?$ChTraitsCRT@D@ATL@@@@@ATL@@K@Z:PROC ; CDrawer::DrawTextOut
EXTRN	?DrawLine@CDrawer@@IAEXPAVCDC@@ABVCPoint@@1KHHH@Z:PROC ; CDrawer::DrawLine
EXTRN	??0CHorzScaleDrawer@@QAE@PAUHWND__@@W4CHART_MODE@CChartInfo@@@Z:PROC ; CHorzScaleDrawer::CHorzScaleDrawer
EXTRN	?GetDrawingEnvironment@CHorzScaleDrawer@@IBEXABVCRect@@ABVCDisplayAttributes@@HAANAAH@Z:PROC ; CHorzScaleDrawer::GetDrawingEnvironment
EXTRN	?GetDrawingEnvironment@CHorzScaleDrawer@@IBEXABVCRect@@0ABVCDisplayAttributes@@HAANAAH3@Z:PROC ; CHorzScaleDrawer::GetDrawingEnvironment
EXTRN	?GetDrawingEnvironment@CHorzScaleDrawer@@IBE_NPAVCDC@@PAVCPacket@@ABVCRect@@ABVCDisplayDataMinMax@@ABNAAH5AANAA_N_N@Z:PROC ; CHorzScaleDrawer::GetDrawingEnvironment
EXTRN	?GetHorzScalePosition_x@CHorzScaleDrawer@@IBEHHHABN@Z:PROC ; CHorzScaleDrawer::GetHorzScalePosition_x
EXTRN	?DrawGrid@CHorzScaleDrawer@@IAEXPAVCDC@@ABVCDrawingHorzScaleData@@W4SCALEGRIDTYPE@CScaleBaseData@@HH@Z:PROC ; CHorzScaleDrawer::DrawGrid
EXTRN	?DrawTextCompartLine@CHorzScaleDrawer@@IAEXPAVCDC@@ABVCRect@@ABVCPoint@@_NK@Z:PROC ; CHorzScaleDrawer::DrawTextCompartLine
EXTRN	?DoubleToString@CDataConversion@@SA?AV?$CStringT@DV?$StrTraitMFC_DLL@DV?$ChTraitsCRT@D@ATL@@@@@ATL@@ABN@Z:PROC ; CDataConversion::DoubleToString
EXTRN	?GetDecimalDownCount@CDataConversion@@SAHABV?$CStringT@DV?$StrTraitMFC_DLL@DV?$ChTraitsCRT@D@ATL@@@@@ATL@@_N@Z:PROC ; CDataConversion::GetDecimalDownCount
EXTRN	?GetStringFormatTrans@CDataConversion@@QAE?AV?$CStringT@DV?$StrTraitMFC_DLL@DV?$ChTraitsCRT@D@ATL@@@@@ATL@@ABV23@0@Z:PROC ; CDataConversion::GetStringFormatTrans
EXTRN	?GetStringThousandFormat@CDataConversion@@SA?AV?$CStringT@DV?$StrTraitMFC_DLL@DV?$ChTraitsCRT@D@ATL@@@@@ATL@@ABV23@@Z:PROC ; CDataConversion::GetStringThousandFormat
EXTRN	?GetHorizontalPoint@CDataConversion@@SA?AVCPoint@@ABVCRect@@HABN111@Z:PROC ; CDataConversion::GetHorizontalPoint
EXTRN	?GetHorizontalPoint_X@CDataConversion@@SAHABVCRect@@ABN11@Z:PROC ; CDataConversion::GetHorizontalPoint_X
EXTRN	?Round@CMath@@SAHN@Z:PROC			; CMath::Round
EXTRN	?Floor@CMath@@SANABNH@Z:PROC			; CMath::Floor
EXTRN	?GetScaleTextType@CScaleCompart@@QBE?AW4TEXTCOMPARTTYPE@CScaleBaseData@@XZ:PROC ; CScaleCompart::GetScaleTextType
EXTRN	?SetScaleData@CScale@@UAEXPADPAUHWND__@@@Z:PROC	; CScale::SetScaleData
EXTRN	?GetGridType@CScale@@QBE?AW4SCALEGRIDTYPE@CScaleBaseData@@XZ:PROC ; CScale::GetGridType
EXTRN	?SetScaleData@CHorizontalScale@@UAEXPADPAUHWND__@@@Z:PROC ; CHorizontalScale::SetScaleData
EXTRN	?GetHorzScalePosition@CHorizontalScale@@QBE?AW4HORZSCALEPOSITION@CScaleBaseData@@XZ:PROC ; CHorizontalScale::GetHorzScalePosition
EXTRN	?GetScaleCompart@CHorizontalScale@@QBE?AVCScaleCompart@@XZ:PROC ; CHorizontalScale::GetScaleCompart
EXTRN	?SetScaleData@CVerticalScale@@UAEXPADPAUHWND__@@@Z:PROC ; CVerticalScale::SetScaleData
EXTRN	?GetTopScaleRegion@CHorzScaleRegion@@QBE?AVCRect@@XZ:PROC ; CHorzScaleRegion::GetTopScaleRegion
EXTRN	?GetBottomScaleRegion@CHorzScaleRegion@@QBE?AVCRect@@XZ:PROC ; CHorzScaleRegion::GetBottomScaleRegion
EXTRN	??0CDisplayDataMinMax@@QAE@ABN0@Z:PROC		; CDisplayDataMinMax::CDisplayDataMinMax
EXTRN	?GetDisplayMin@CDisplayDataMinMax@@QBENXZ:PROC	; CDisplayDataMinMax::GetDisplayMin
EXTRN	?GetDisplayMax@CDisplayDataMinMax@@QBENXZ:PROC	; CDisplayDataMinMax::GetDisplayMax
EXTRN	?GetMarginDisplayMin@CDisplayDataMinMax@@QBENXZ:PROC ; CDisplayDataMinMax::GetMarginDisplayMin
EXTRN	?GetMarginDisplayMax@CDisplayDataMinMax@@QBENXZ:PROC ; CDisplayDataMinMax::GetMarginDisplayMax
EXTRN	__imp_?GetScaleTextColor@CScaleColor@@QAEAAKXZ:PROC
EXTRN	??0CDisplayAttributes@@QAE@HH@Z:PROC		; CDisplayAttributes::CDisplayAttributes
EXTRN	?GetDataStartInBlock@CDisplayAttributes@@QBEHXZ:PROC ; CDisplayAttributes::GetDataStartInBlock
EXTRN	?GetDrawingGraphRegion@CDrawingHorzScaleData@@QBE?AVCRect@@XZ:PROC ; CDrawingHorzScaleData::GetDrawingGraphRegion
EXTRN	?GetHeadGraphStyle@CDrawingHorzScaleData@@QBE?AVCGraphStyle@@XZ:PROC ; CDrawingHorzScaleData::GetHeadGraphStyle
EXTRN	?GetScaleColor@CDrawingHorzScaleData@@QBE?AVCScaleColor@@XZ:PROC ; CDrawingHorzScaleData::GetScaleColor
EXTRN	?GetCompartLineColor@CDrawingHorzScaleData@@QBEKXZ:PROC ; CDrawingHorzScaleData::GetCompartLineColor
EXTRN	?GetDisplayAttributes@CDrawingHorzScaleData@@QBE?AVCDisplayAttributes@@XZ:PROC ; CDrawingHorzScaleData::GetDisplayAttributes
EXTRN	?GetDisplayDataMinMax@CDrawingHorzScaleData@@QBE?AVCDisplayDataMinMax@@XZ:PROC ; CDrawingHorzScaleData::GetDisplayDataMinMax
EXTRN	?GetPacket@CDrawingHorzScaleData@@QBEPAVCPacket@@XZ:PROC ; CDrawingHorzScaleData::GetPacket
EXTRN	__imp_?GetStandardValue@CPacket@@QAENH@Z:PROC
EXTRN	__imp_?GetType@CPacket@@QAE?AV?$CStringT@DV?$StrTraitMFC_DLL@DV?$ChTraitsCRT@D@ATL@@@@@ATL@@_N@Z:PROC
EXTRN	__imp_?GetnumericDataList@CPacket@@QAEPAV?$CList@NN@@XZ:PROC
EXTRN	??_E?$CList@NN@@UAEPAXI@Z:PROC			; CList<double,double>::`vector deleting destructor'
EXTRN	@__security_check_cookie@4:PROC
EXTRN	___CxxFrameHandler3:PROC
EXTRN	_memset:PROC
EXTRN	??_7type_info@@6B@:QWORD			; type_info::`vftable'
EXTRN	___security_cookie:DWORD
EXTRN	__fltused:DWORD
;	COMDAT __xmm@80000000000000008000000000000000
CONST	SEGMENT
__xmm@80000000000000008000000000000000 DB 00H, 00H, 00H, 00H, 00H, 00H, 00H
	DB	080H, 00H, 00H, 00H, 00H, 00H, 00H, 00H, 080H
CONST	ENDS
;	COMDAT __xmm@7fffffffffffffff7fffffffffffffff
CONST	SEGMENT
__xmm@7fffffffffffffff7fffffffffffffff DB 0ffH, 0ffH, 0ffH, 0ffH, 0ffH, 0ffH
	DB	0ffH, 07fH, 0ffH, 0ffH, 0ffH, 0ffH, 0ffH, 0ffH, 0ffH, 07fH
CONST	ENDS
;	COMDAT __real@3fe0000000000000
CONST	SEGMENT
__real@3fe0000000000000 DQ 03fe0000000000000r	; 0.5
CONST	ENDS
;	COMDAT __real@0000000000000000
CONST	SEGMENT
__real@0000000000000000 DQ 00000000000000000r	; 0
CONST	ENDS
;	COMDAT ??_R1A@?0A@EA@CVerticalScale@@8
rdata$r	SEGMENT
??_R1A@?0A@EA@CVerticalScale@@8 DD FLAT:??_R0?AVCVerticalScale@@@8 ; CVerticalScale::`RTTI Base Class Descriptor at (0,-1,0,64)'
	DD	01H
	DD	00H
	DD	0ffffffffH
	DD	00H
	DD	040H
	DD	FLAT:??_R3CVerticalScale@@8
rdata$r	ENDS
;	COMDAT ??_R2CVerticalScale@@8
rdata$r	SEGMENT
??_R2CVerticalScale@@8 DD FLAT:??_R1A@?0A@EA@CVerticalScale@@8 ; CVerticalScale::`RTTI Base Class Array'
	DD	FLAT:??_R1A@?0A@EA@CScale@@8
rdata$r	ENDS
;	COMDAT ??_R3CVerticalScale@@8
rdata$r	SEGMENT
??_R3CVerticalScale@@8 DD 00H				; CVerticalScale::`RTTI Class Hierarchy Descriptor'
	DD	00H
	DD	02H
	DD	FLAT:??_R2CVerticalScale@@8
rdata$r	ENDS
;	COMDAT ??_R0?AVCVerticalScale@@@8
data$rs	SEGMENT
??_R0?AVCVerticalScale@@@8 DD FLAT:??_7type_info@@6B@	; CVerticalScale `RTTI Type Descriptor'
	DD	00H
	DB	'.?AVCVerticalScale@@', 00H
data$rs	ENDS
;	COMDAT ??_R4CVerticalScale@@6B@
rdata$r	SEGMENT
??_R4CVerticalScale@@6B@ DD 00H				; CVerticalScale::`RTTI Complete Object Locator'
	DD	00H
	DD	00H
	DD	FLAT:??_R0?AVCVerticalScale@@@8
	DD	FLAT:??_R3CVerticalScale@@8
rdata$r	ENDS
;	COMDAT ??_R4CScale@@6B@
rdata$r	SEGMENT
??_R4CScale@@6B@ DD 00H					; CScale::`RTTI Complete Object Locator'
	DD	00H
	DD	00H
	DD	FLAT:??_R0?AVCScale@@@8
	DD	FLAT:??_R3CScale@@8
rdata$r	ENDS
;	COMDAT ??_R1A@?0A@EA@CMarketProfileHorzScaleDrawer@@8
rdata$r	SEGMENT
??_R1A@?0A@EA@CMarketProfileHorzScaleDrawer@@8 DD FLAT:??_R0?AVCMarketProfileHorzScaleDrawer@@@8 ; CMarketProfileHorzScaleDrawer::`RTTI Base Class Descriptor at (0,-1,0,64)'
	DD	02H
	DD	00H
	DD	0ffffffffH
	DD	00H
	DD	040H
	DD	FLAT:??_R3CMarketProfileHorzScaleDrawer@@8
rdata$r	ENDS
;	COMDAT ??_R2CMarketProfileHorzScaleDrawer@@8
rdata$r	SEGMENT
??_R2CMarketProfileHorzScaleDrawer@@8 DD FLAT:??_R1A@?0A@EA@CMarketProfileHorzScaleDrawer@@8 ; CMarketProfileHorzScaleDrawer::`RTTI Base Class Array'
	DD	FLAT:??_R1A@?0A@EA@CHorzScaleDrawer@@8
	DD	FLAT:??_R13?0A@EA@CDrawer@@8
rdata$r	ENDS
;	COMDAT ??_R3CMarketProfileHorzScaleDrawer@@8
rdata$r	SEGMENT
??_R3CMarketProfileHorzScaleDrawer@@8 DD 00H		; CMarketProfileHorzScaleDrawer::`RTTI Class Hierarchy Descriptor'
	DD	00H
	DD	03H
	DD	FLAT:??_R2CMarketProfileHorzScaleDrawer@@8
rdata$r	ENDS
;	COMDAT ??_R0?AVCMarketProfileHorzScaleDrawer@@@8
data$rs	SEGMENT
??_R0?AVCMarketProfileHorzScaleDrawer@@@8 DD FLAT:??_7type_info@@6B@ ; CMarketProfileHorzScaleDrawer `RTTI Type Descriptor'
	DD	00H
	DB	'.?AVCMarketProfileHorzScaleDrawer@@', 00H
data$rs	ENDS
;	COMDAT ??_R4CMarketProfileHorzScaleDrawer@@6B@
rdata$r	SEGMENT
??_R4CMarketProfileHorzScaleDrawer@@6B@ DD 00H		; CMarketProfileHorzScaleDrawer::`RTTI Complete Object Locator'
	DD	00H
	DD	00H
	DD	FLAT:??_R0?AVCMarketProfileHorzScaleDrawer@@@8
	DD	FLAT:??_R3CMarketProfileHorzScaleDrawer@@8
rdata$r	ENDS
;	COMDAT ??_R1A@?0A@EA@?$CList@NN@@8
rdata$r	SEGMENT
??_R1A@?0A@EA@?$CList@NN@@8 DD FLAT:??_R0?AV?$CList@NN@@@8 ; CList<double,double>::`RTTI Base Class Descriptor at (0,-1,0,64)'
	DD	01H
	DD	00H
	DD	0ffffffffH
	DD	00H
	DD	040H
	DD	FLAT:??_R3?$CList@NN@@8
rdata$r	ENDS
;	COMDAT ??_R2?$CList@NN@@8
rdata$r	SEGMENT
??_R2?$CList@NN@@8 DD FLAT:??_R1A@?0A@EA@?$CList@NN@@8	; CList<double,double>::`RTTI Base Class Array'
	DD	FLAT:??_R1A@?0A@EA@CObject@@8
rdata$r	ENDS
;	COMDAT ??_R3?$CList@NN@@8
rdata$r	SEGMENT
??_R3?$CList@NN@@8 DD 00H				; CList<double,double>::`RTTI Class Hierarchy Descriptor'
	DD	00H
	DD	02H
	DD	FLAT:??_R2?$CList@NN@@8
rdata$r	ENDS
;	COMDAT ??_R0?AV?$CList@NN@@@8
data$rs	SEGMENT
??_R0?AV?$CList@NN@@@8 DD FLAT:??_7type_info@@6B@	; CList<double,double> `RTTI Type Descriptor'
	DD	00H
	DB	'.?AV?$CList@NN@@', 00H
data$rs	ENDS
;	COMDAT ??_R4?$CList@NN@@6B@
rdata$r	SEGMENT
??_R4?$CList@NN@@6B@ DD 00H				; CList<double,double>::`RTTI Complete Object Locator'
	DD	00H
	DD	00H
	DD	FLAT:??_R0?AV?$CList@NN@@@8
	DD	FLAT:??_R3?$CList@NN@@8
rdata$r	ENDS
;	COMDAT ??_R1A@?0A@EA@CLeftRightScaleDrawer@@8
rdata$r	SEGMENT
??_R1A@?0A@EA@CLeftRightScaleDrawer@@8 DD FLAT:??_R0?AVCLeftRightScaleDrawer@@@8 ; CLeftRightScaleDrawer::`RTTI Base Class Descriptor at (0,-1,0,64)'
	DD	03H
	DD	00H
	DD	0ffffffffH
	DD	00H
	DD	040H
	DD	FLAT:??_R3CLeftRightScaleDrawer@@8
rdata$r	ENDS
;	COMDAT ??_R2CLeftRightScaleDrawer@@8
rdata$r	SEGMENT
??_R2CLeftRightScaleDrawer@@8 DD FLAT:??_R1A@?0A@EA@CLeftRightScaleDrawer@@8 ; CLeftRightScaleDrawer::`RTTI Base Class Array'
	DD	FLAT:??_R1A@?0A@EA@CDataHorzScaleDrawer@@8
	DD	FLAT:??_R1A@?0A@EA@CHorzScaleDrawer@@8
	DD	FLAT:??_R13?0A@EA@CDrawer@@8
rdata$r	ENDS
;	COMDAT ??_R3CLeftRightScaleDrawer@@8
rdata$r	SEGMENT
??_R3CLeftRightScaleDrawer@@8 DD 00H			; CLeftRightScaleDrawer::`RTTI Class Hierarchy Descriptor'
	DD	00H
	DD	04H
	DD	FLAT:??_R2CLeftRightScaleDrawer@@8
rdata$r	ENDS
;	COMDAT ??_R0?AVCLeftRightScaleDrawer@@@8
data$rs	SEGMENT
??_R0?AVCLeftRightScaleDrawer@@@8 DD FLAT:??_7type_info@@6B@ ; CLeftRightScaleDrawer `RTTI Type Descriptor'
	DD	00H
	DB	'.?AVCLeftRightScaleDrawer@@', 00H
data$rs	ENDS
;	COMDAT ??_R4CLeftRightScaleDrawer@@6B@
rdata$r	SEGMENT
??_R4CLeftRightScaleDrawer@@6B@ DD 00H			; CLeftRightScaleDrawer::`RTTI Complete Object Locator'
	DD	00H
	DD	00H
	DD	FLAT:??_R0?AVCLeftRightScaleDrawer@@@8
	DD	FLAT:??_R3CLeftRightScaleDrawer@@8
rdata$r	ENDS
;	COMDAT ??_R1A@?0A@EA@CEtcDataHorzScaleDrawer@@8
rdata$r	SEGMENT
??_R1A@?0A@EA@CEtcDataHorzScaleDrawer@@8 DD FLAT:??_R0?AVCEtcDataHorzScaleDrawer@@@8 ; CEtcDataHorzScaleDrawer::`RTTI Base Class Descriptor at (0,-1,0,64)'
	DD	03H
	DD	00H
	DD	0ffffffffH
	DD	00H
	DD	040H
	DD	FLAT:??_R3CEtcDataHorzScaleDrawer@@8
rdata$r	ENDS
;	COMDAT ??_R2CEtcDataHorzScaleDrawer@@8
rdata$r	SEGMENT
??_R2CEtcDataHorzScaleDrawer@@8 DD FLAT:??_R1A@?0A@EA@CEtcDataHorzScaleDrawer@@8 ; CEtcDataHorzScaleDrawer::`RTTI Base Class Array'
	DD	FLAT:??_R1A@?0A@EA@CDataHorzScaleDrawer@@8
	DD	FLAT:??_R1A@?0A@EA@CHorzScaleDrawer@@8
	DD	FLAT:??_R13?0A@EA@CDrawer@@8
rdata$r	ENDS
;	COMDAT ??_R3CEtcDataHorzScaleDrawer@@8
rdata$r	SEGMENT
??_R3CEtcDataHorzScaleDrawer@@8 DD 00H			; CEtcDataHorzScaleDrawer::`RTTI Class Hierarchy Descriptor'
	DD	00H
	DD	04H
	DD	FLAT:??_R2CEtcDataHorzScaleDrawer@@8
rdata$r	ENDS
;	COMDAT ??_R0?AVCEtcDataHorzScaleDrawer@@@8
data$rs	SEGMENT
??_R0?AVCEtcDataHorzScaleDrawer@@@8 DD FLAT:??_7type_info@@6B@ ; CEtcDataHorzScaleDrawer `RTTI Type Descriptor'
	DD	00H
	DB	'.?AVCEtcDataHorzScaleDrawer@@', 00H
data$rs	ENDS
;	COMDAT ??_R4CEtcDataHorzScaleDrawer@@6B@
rdata$r	SEGMENT
??_R4CEtcDataHorzScaleDrawer@@6B@ DD 00H		; CEtcDataHorzScaleDrawer::`RTTI Complete Object Locator'
	DD	00H
	DD	00H
	DD	FLAT:??_R0?AVCEtcDataHorzScaleDrawer@@@8
	DD	FLAT:??_R3CEtcDataHorzScaleDrawer@@8
rdata$r	ENDS
;	COMDAT ??_R1A@?0A@EA@CPriceZoneHorzScaleDrawer@@8
rdata$r	SEGMENT
??_R1A@?0A@EA@CPriceZoneHorzScaleDrawer@@8 DD FLAT:??_R0?AVCPriceZoneHorzScaleDrawer@@@8 ; CPriceZoneHorzScaleDrawer::`RTTI Base Class Descriptor at (0,-1,0,64)'
	DD	03H
	DD	00H
	DD	0ffffffffH
	DD	00H
	DD	040H
	DD	FLAT:??_R3CPriceZoneHorzScaleDrawer@@8
rdata$r	ENDS
;	COMDAT ??_R2CPriceZoneHorzScaleDrawer@@8
rdata$r	SEGMENT
??_R2CPriceZoneHorzScaleDrawer@@8 DD FLAT:??_R1A@?0A@EA@CPriceZoneHorzScaleDrawer@@8 ; CPriceZoneHorzScaleDrawer::`RTTI Base Class Array'
	DD	FLAT:??_R1A@?0A@EA@CDataHorzScaleDrawer@@8
	DD	FLAT:??_R1A@?0A@EA@CHorzScaleDrawer@@8
	DD	FLAT:??_R13?0A@EA@CDrawer@@8
rdata$r	ENDS
;	COMDAT ??_R3CPriceZoneHorzScaleDrawer@@8
rdata$r	SEGMENT
??_R3CPriceZoneHorzScaleDrawer@@8 DD 00H		; CPriceZoneHorzScaleDrawer::`RTTI Class Hierarchy Descriptor'
	DD	00H
	DD	04H
	DD	FLAT:??_R2CPriceZoneHorzScaleDrawer@@8
rdata$r	ENDS
;	COMDAT ??_R0?AVCPriceZoneHorzScaleDrawer@@@8
data$rs	SEGMENT
??_R0?AVCPriceZoneHorzScaleDrawer@@@8 DD FLAT:??_7type_info@@6B@ ; CPriceZoneHorzScaleDrawer `RTTI Type Descriptor'
	DD	00H
	DB	'.?AVCPriceZoneHorzScaleDrawer@@', 00H
data$rs	ENDS
;	COMDAT ??_R4CPriceZoneHorzScaleDrawer@@6B@
rdata$r	SEGMENT
??_R4CPriceZoneHorzScaleDrawer@@6B@ DD 00H		; CPriceZoneHorzScaleDrawer::`RTTI Complete Object Locator'
	DD	00H
	DD	00H
	DD	FLAT:??_R0?AVCPriceZoneHorzScaleDrawer@@@8
	DD	FLAT:??_R3CPriceZoneHorzScaleDrawer@@8
rdata$r	ENDS
;	COMDAT ??_R1A@?0A@EA@CDrawer@@8
rdata$r	SEGMENT
??_R1A@?0A@EA@CDrawer@@8 DD FLAT:??_R0?AVCDrawer@@@8	; CDrawer::`RTTI Base Class Descriptor at (0,-1,0,64)'
	DD	00H
	DD	00H
	DD	0ffffffffH
	DD	00H
	DD	040H
	DD	FLAT:??_R3CDrawer@@8
rdata$r	ENDS
;	COMDAT ??_R2CDrawer@@8
rdata$r	SEGMENT
??_R2CDrawer@@8 DD FLAT:??_R1A@?0A@EA@CDrawer@@8	; CDrawer::`RTTI Base Class Array'
rdata$r	ENDS
;	COMDAT ??_R3CDrawer@@8
rdata$r	SEGMENT
??_R3CDrawer@@8 DD 00H					; CDrawer::`RTTI Class Hierarchy Descriptor'
	DD	00H
	DD	01H
	DD	FLAT:??_R2CDrawer@@8
rdata$r	ENDS
;	COMDAT ??_R0?AVCDrawer@@@8
data$rs	SEGMENT
??_R0?AVCDrawer@@@8 DD FLAT:??_7type_info@@6B@		; CDrawer `RTTI Type Descriptor'
	DD	00H
	DB	'.?AVCDrawer@@', 00H
data$rs	ENDS
;	COMDAT ??_R13?0A@EA@CDrawer@@8
rdata$r	SEGMENT
??_R13?0A@EA@CDrawer@@8 DD FLAT:??_R0?AVCDrawer@@@8	; CDrawer::`RTTI Base Class Descriptor at (4,-1,0,64)'
	DD	00H
	DD	04H
	DD	0ffffffffH
	DD	00H
	DD	040H
	DD	FLAT:??_R3CDrawer@@8
rdata$r	ENDS
;	COMDAT ??_R2CHorzScaleDrawer@@8
rdata$r	SEGMENT
??_R2CHorzScaleDrawer@@8 DD FLAT:??_R1A@?0A@EA@CHorzScaleDrawer@@8 ; CHorzScaleDrawer::`RTTI Base Class Array'
	DD	FLAT:??_R13?0A@EA@CDrawer@@8
rdata$r	ENDS
;	COMDAT ??_R3CHorzScaleDrawer@@8
rdata$r	SEGMENT
??_R3CHorzScaleDrawer@@8 DD 00H				; CHorzScaleDrawer::`RTTI Class Hierarchy Descriptor'
	DD	00H
	DD	02H
	DD	FLAT:??_R2CHorzScaleDrawer@@8
rdata$r	ENDS
;	COMDAT ??_R0?AVCHorzScaleDrawer@@@8
data$rs	SEGMENT
??_R0?AVCHorzScaleDrawer@@@8 DD FLAT:??_7type_info@@6B@	; CHorzScaleDrawer `RTTI Type Descriptor'
	DD	00H
	DB	'.?AVCHorzScaleDrawer@@', 00H
data$rs	ENDS
;	COMDAT ??_R1A@?0A@EA@CHorzScaleDrawer@@8
rdata$r	SEGMENT
??_R1A@?0A@EA@CHorzScaleDrawer@@8 DD FLAT:??_R0?AVCHorzScaleDrawer@@@8 ; CHorzScaleDrawer::`RTTI Base Class Descriptor at (0,-1,0,64)'
	DD	01H
	DD	00H
	DD	0ffffffffH
	DD	00H
	DD	040H
	DD	FLAT:??_R3CHorzScaleDrawer@@8
rdata$r	ENDS
;	COMDAT ??_R1A@?0A@EA@CDataHorzScaleDrawer@@8
rdata$r	SEGMENT
??_R1A@?0A@EA@CDataHorzScaleDrawer@@8 DD FLAT:??_R0?AVCDataHorzScaleDrawer@@@8 ; CDataHorzScaleDrawer::`RTTI Base Class Descriptor at (0,-1,0,64)'
	DD	02H
	DD	00H
	DD	0ffffffffH
	DD	00H
	DD	040H
	DD	FLAT:??_R3CDataHorzScaleDrawer@@8
rdata$r	ENDS
;	COMDAT ??_R2CDataHorzScaleDrawer@@8
rdata$r	SEGMENT
??_R2CDataHorzScaleDrawer@@8 DD FLAT:??_R1A@?0A@EA@CDataHorzScaleDrawer@@8 ; CDataHorzScaleDrawer::`RTTI Base Class Array'
	DD	FLAT:??_R1A@?0A@EA@CHorzScaleDrawer@@8
	DD	FLAT:??_R13?0A@EA@CDrawer@@8
rdata$r	ENDS
;	COMDAT ??_R3CDataHorzScaleDrawer@@8
rdata$r	SEGMENT
??_R3CDataHorzScaleDrawer@@8 DD 00H			; CDataHorzScaleDrawer::`RTTI Class Hierarchy Descriptor'
	DD	00H
	DD	03H
	DD	FLAT:??_R2CDataHorzScaleDrawer@@8
rdata$r	ENDS
;	COMDAT ??_R0?AVCDataHorzScaleDrawer@@@8
data$rs	SEGMENT
??_R0?AVCDataHorzScaleDrawer@@@8 DD FLAT:??_7type_info@@6B@ ; CDataHorzScaleDrawer `RTTI Type Descriptor'
	DD	00H
	DB	'.?AVCDataHorzScaleDrawer@@', 00H
data$rs	ENDS
;	COMDAT ??_R4CDataHorzScaleDrawer@@6B@
rdata$r	SEGMENT
??_R4CDataHorzScaleDrawer@@6B@ DD 00H			; CDataHorzScaleDrawer::`RTTI Complete Object Locator'
	DD	00H
	DD	00H
	DD	FLAT:??_R0?AVCDataHorzScaleDrawer@@@8
	DD	FLAT:??_R3CDataHorzScaleDrawer@@8
rdata$r	ENDS
;	COMDAT ??_R2CScale@@8
rdata$r	SEGMENT
??_R2CScale@@8 DD FLAT:??_R1A@?0A@EA@CScale@@8		; CScale::`RTTI Base Class Array'
rdata$r	ENDS
;	COMDAT ??_R3CScale@@8
rdata$r	SEGMENT
??_R3CScale@@8 DD 00H					; CScale::`RTTI Class Hierarchy Descriptor'
	DD	00H
	DD	01H
	DD	FLAT:??_R2CScale@@8
rdata$r	ENDS
;	COMDAT ??_R0?AVCScale@@@8
data$rs	SEGMENT
??_R0?AVCScale@@@8 DD FLAT:??_7type_info@@6B@		; CScale `RTTI Type Descriptor'
	DD	00H
	DB	'.?AVCScale@@', 00H
data$rs	ENDS
;	COMDAT ??_R1A@?0A@EA@CScale@@8
rdata$r	SEGMENT
??_R1A@?0A@EA@CScale@@8 DD FLAT:??_R0?AVCScale@@@8	; CScale::`RTTI Base Class Descriptor at (0,-1,0,64)'
	DD	00H
	DD	00H
	DD	0ffffffffH
	DD	00H
	DD	040H
	DD	FLAT:??_R3CScale@@8
rdata$r	ENDS
;	COMDAT ??_R1A@?0A@EA@CHorizontalScale@@8
rdata$r	SEGMENT
??_R1A@?0A@EA@CHorizontalScale@@8 DD FLAT:??_R0?AVCHorizontalScale@@@8 ; CHorizontalScale::`RTTI Base Class Descriptor at (0,-1,0,64)'
	DD	01H
	DD	00H
	DD	0ffffffffH
	DD	00H
	DD	040H
	DD	FLAT:??_R3CHorizontalScale@@8
rdata$r	ENDS
;	COMDAT ??_R2CHorizontalScale@@8
rdata$r	SEGMENT
??_R2CHorizontalScale@@8 DD FLAT:??_R1A@?0A@EA@CHorizontalScale@@8 ; CHorizontalScale::`RTTI Base Class Array'
	DD	FLAT:??_R1A@?0A@EA@CScale@@8
rdata$r	ENDS
;	COMDAT ??_R3CHorizontalScale@@8
rdata$r	SEGMENT
??_R3CHorizontalScale@@8 DD 00H				; CHorizontalScale::`RTTI Class Hierarchy Descriptor'
	DD	00H
	DD	02H
	DD	FLAT:??_R2CHorizontalScale@@8
rdata$r	ENDS
;	COMDAT ??_R0?AVCHorizontalScale@@@8
data$rs	SEGMENT
??_R0?AVCHorizontalScale@@@8 DD FLAT:??_7type_info@@6B@	; CHorizontalScale `RTTI Type Descriptor'
	DD	00H
	DB	'.?AVCHorizontalScale@@', 00H
data$rs	ENDS
;	COMDAT ??_R4CHorizontalScale@@6B@
rdata$r	SEGMENT
??_R4CHorizontalScale@@6B@ DD 00H			; CHorizontalScale::`RTTI Complete Object Locator'
	DD	00H
	DD	00H
	DD	FLAT:??_R0?AVCHorizontalScale@@@8
	DD	FLAT:??_R3CHorizontalScale@@8
rdata$r	ENDS
;	COMDAT ??_C@_09KKPNDFC@?$CF02d?1?$CF02d@
CONST	SEGMENT
??_C@_09KKPNDFC@?$CF02d?1?$CF02d@ DB '%02d/%02d', 00H	; `string'
CONST	ENDS
;	COMDAT ??_C@_01GBGANLPD@0@
CONST	SEGMENT
??_C@_01GBGANLPD@0@ DB '0', 00H				; `string'
CONST	ENDS
;	COMDAT ??_7?$CList@NN@@6B@
CONST	SEGMENT
??_7?$CList@NN@@6B@ DD FLAT:??_R4?$CList@NN@@6B@	; CList<double,double>::`vftable'
	DD	FLAT:?GetRuntimeClass@CObject@@UBEPAUCRuntimeClass@@XZ
	DD	FLAT:??_E?$CList@NN@@UAEPAXI@Z
	DD	FLAT:?Serialize@?$CList@NN@@UAEXAAVCArchive@@@Z
	DD	FLAT:?AssertValid@CObject@@UBEXXZ
	DD	FLAT:?Dump@CObject@@UBEXAAVCDumpContext@@@Z
CONST	ENDS
;	COMDAT ??_7CVerticalScale@@6B@
CONST	SEGMENT
??_7CVerticalScale@@6B@ DD FLAT:??_R4CVerticalScale@@6B@ ; CVerticalScale::`vftable'
	DD	FLAT:?SetScaleData@CVerticalScale@@UAEXPADPAUHWND__@@@Z
CONST	ENDS
;	COMDAT ??_7CHorizontalScale@@6B@
CONST	SEGMENT
??_7CHorizontalScale@@6B@ DD FLAT:??_R4CHorizontalScale@@6B@ ; CHorizontalScale::`vftable'
	DD	FLAT:?SetScaleData@CHorizontalScale@@UAEXPADPAUHWND__@@@Z
CONST	ENDS
;	COMDAT ??_7CScale@@6B@
CONST	SEGMENT
??_7CScale@@6B@ DD FLAT:??_R4CScale@@6B@		; CScale::`vftable'
	DD	FLAT:?SetScaleData@CScale@@UAEXPADPAUHWND__@@@Z
CONST	ENDS
;	COMDAT ??_7CMarketProfileHorzScaleDrawer@@6B@
CONST	SEGMENT
??_7CMarketProfileHorzScaleDrawer@@6B@ DD FLAT:??_R4CMarketProfileHorzScaleDrawer@@6B@ ; CMarketProfileHorzScaleDrawer::`vftable'
	DD	FLAT:?DrawTextOrGrid@CHorzScaleDrawer@@UAE_NPAVCDC@@ABVCDrawingHorzScaleData@@ABVCRect@@ABVCHorizontalScale@@PAVCXScaleManager@@PBD@Z
	DD	FLAT:?DrawTextOrGrid@CMarketProfileHorzScaleDrawer@@UAEXPAVCDC@@ABVCDrawingHorzScaleData@@ABVCRect@@ABVCHorizontalScale@@@Z
	DD	FLAT:?DrawTextOrGrid_Both@CHorzScaleDrawer@@UAE_NPAVCDC@@ABVCDrawingHorzScaleData@@ABVCHorzScaleRegion@@ABVCHorizontalScale@@PAVCXScaleManager@@PBD@Z
	DD	FLAT:?DrawTextOrGrid_Both@CMarketProfileHorzScaleDrawer@@UAEXPAVCDC@@ABVCDrawingHorzScaleData@@ABVCHorzScaleRegion@@ABVCHorizontalScale@@@Z
	DD	FLAT:?DrawGrid@CHorzScaleDrawer@@UAE_NPAVCDC@@ABVCDrawingHorzScaleData@@ABVCHorzScaleRegion@@ABVCHorizontalScale@@PAVCXScaleManager@@PBD@Z
	DD	FLAT:?DrawGrid@CMarketProfileHorzScaleDrawer@@UAEXPAVCDC@@ABVCDrawingHorzScaleData@@ABVCHorizontalScale@@@Z
CONST	ENDS
;	COMDAT ??_7CLeftRightScaleDrawer@@6B@
CONST	SEGMENT
??_7CLeftRightScaleDrawer@@6B@ DD FLAT:??_R4CLeftRightScaleDrawer@@6B@ ; CLeftRightScaleDrawer::`vftable'
	DD	FLAT:?DrawTextOrGrid@CHorzScaleDrawer@@UAE_NPAVCDC@@ABVCDrawingHorzScaleData@@ABVCRect@@ABVCHorizontalScale@@PAVCXScaleManager@@PBD@Z
	DD	FLAT:?DrawTextOrGrid@CLeftRightScaleDrawer@@UAEXPAVCDC@@ABVCDrawingHorzScaleData@@ABVCRect@@ABVCHorizontalScale@@@Z
	DD	FLAT:?DrawTextOrGrid_Both@CHorzScaleDrawer@@UAE_NPAVCDC@@ABVCDrawingHorzScaleData@@ABVCHorzScaleRegion@@ABVCHorizontalScale@@PAVCXScaleManager@@PBD@Z
	DD	FLAT:?DrawTextOrGrid_Both@CLeftRightScaleDrawer@@UAEXPAVCDC@@ABVCDrawingHorzScaleData@@ABVCHorzScaleRegion@@ABVCHorizontalScale@@@Z
	DD	FLAT:?DrawGrid@CHorzScaleDrawer@@UAE_NPAVCDC@@ABVCDrawingHorzScaleData@@ABVCHorzScaleRegion@@ABVCHorizontalScale@@PAVCXScaleManager@@PBD@Z
	DD	FLAT:?DrawGrid@CLeftRightScaleDrawer@@UAEXPAVCDC@@ABVCDrawingHorzScaleData@@ABVCHorizontalScale@@@Z
CONST	ENDS
;	COMDAT ??_7CEtcDataHorzScaleDrawer@@6B@
CONST	SEGMENT
??_7CEtcDataHorzScaleDrawer@@6B@ DD FLAT:??_R4CEtcDataHorzScaleDrawer@@6B@ ; CEtcDataHorzScaleDrawer::`vftable'
	DD	FLAT:?DrawTextOrGrid@CHorzScaleDrawer@@UAE_NPAVCDC@@ABVCDrawingHorzScaleData@@ABVCRect@@ABVCHorizontalScale@@PAVCXScaleManager@@PBD@Z
	DD	FLAT:?DrawTextOrGrid@CEtcDataHorzScaleDrawer@@UAEXPAVCDC@@ABVCDrawingHorzScaleData@@ABVCRect@@ABVCHorizontalScale@@@Z
	DD	FLAT:?DrawTextOrGrid_Both@CHorzScaleDrawer@@UAE_NPAVCDC@@ABVCDrawingHorzScaleData@@ABVCHorzScaleRegion@@ABVCHorizontalScale@@PAVCXScaleManager@@PBD@Z
	DD	FLAT:?DrawTextOrGrid_Both@CEtcDataHorzScaleDrawer@@UAEXPAVCDC@@ABVCDrawingHorzScaleData@@ABVCHorzScaleRegion@@ABVCHorizontalScale@@@Z
	DD	FLAT:?DrawGrid@CHorzScaleDrawer@@UAE_NPAVCDC@@ABVCDrawingHorzScaleData@@ABVCHorzScaleRegion@@ABVCHorizontalScale@@PAVCXScaleManager@@PBD@Z
	DD	FLAT:?DrawGrid@CEtcDataHorzScaleDrawer@@UAEXPAVCDC@@ABVCDrawingHorzScaleData@@ABVCHorizontalScale@@@Z
CONST	ENDS
;	COMDAT ??_7CPriceZoneHorzScaleDrawer@@6B@
CONST	SEGMENT
??_7CPriceZoneHorzScaleDrawer@@6B@ DD FLAT:??_R4CPriceZoneHorzScaleDrawer@@6B@ ; CPriceZoneHorzScaleDrawer::`vftable'
	DD	FLAT:?DrawTextOrGrid@CHorzScaleDrawer@@UAE_NPAVCDC@@ABVCDrawingHorzScaleData@@ABVCRect@@ABVCHorizontalScale@@PAVCXScaleManager@@PBD@Z
	DD	FLAT:?DrawTextOrGrid@CPriceZoneHorzScaleDrawer@@UAEXPAVCDC@@ABVCDrawingHorzScaleData@@ABVCRect@@ABVCHorizontalScale@@@Z
	DD	FLAT:?DrawTextOrGrid_Both@CHorzScaleDrawer@@UAE_NPAVCDC@@ABVCDrawingHorzScaleData@@ABVCHorzScaleRegion@@ABVCHorizontalScale@@PAVCXScaleManager@@PBD@Z
	DD	FLAT:?DrawTextOrGrid_Both@CPriceZoneHorzScaleDrawer@@UAEXPAVCDC@@ABVCDrawingHorzScaleData@@ABVCHorzScaleRegion@@ABVCHorizontalScale@@@Z
	DD	FLAT:?DrawGrid@CHorzScaleDrawer@@UAE_NPAVCDC@@ABVCDrawingHorzScaleData@@ABVCHorzScaleRegion@@ABVCHorizontalScale@@PAVCXScaleManager@@PBD@Z
	DD	FLAT:?DrawGrid@CPriceZoneHorzScaleDrawer@@UAEXPAVCDC@@ABVCDrawingHorzScaleData@@ABVCHorizontalScale@@@Z
CONST	ENDS
;	COMDAT ??_7CDataHorzScaleDrawer@@6B@
CONST	SEGMENT
??_7CDataHorzScaleDrawer@@6B@ DD FLAT:??_R4CDataHorzScaleDrawer@@6B@ ; CDataHorzScaleDrawer::`vftable'
	DD	FLAT:?DrawTextOrGrid@CHorzScaleDrawer@@UAE_NPAVCDC@@ABVCDrawingHorzScaleData@@ABVCRect@@ABVCHorizontalScale@@PAVCXScaleManager@@PBD@Z
	DD	FLAT:__purecall
	DD	FLAT:?DrawTextOrGrid_Both@CHorzScaleDrawer@@UAE_NPAVCDC@@ABVCDrawingHorzScaleData@@ABVCHorzScaleRegion@@ABVCHorizontalScale@@PAVCXScaleManager@@PBD@Z
	DD	FLAT:__purecall
	DD	FLAT:?DrawGrid@CHorzScaleDrawer@@UAE_NPAVCDC@@ABVCDrawingHorzScaleData@@ABVCHorzScaleRegion@@ABVCHorizontalScale@@PAVCXScaleManager@@PBD@Z
	DD	FLAT:__purecall
CONST	ENDS
;	COMDAT ??_R1A@?0A@EA@CFont@@8
rdata$r	SEGMENT
??_R1A@?0A@EA@CFont@@8 DD FLAT:??_R0?AVCFont@@@8	; CFont::`RTTI Base Class Descriptor at (0,-1,0,64)'
	DD	02H
	DD	00H
	DD	0ffffffffH
	DD	00H
	DD	040H
	DD	FLAT:??_R3CFont@@8
rdata$r	ENDS
;	COMDAT ??_R2CFont@@8
rdata$r	SEGMENT
??_R2CFont@@8 DD FLAT:??_R1A@?0A@EA@CFont@@8		; CFont::`RTTI Base Class Array'
	DD	FLAT:??_R1A@?0A@EA@CGdiObject@@8
	DD	FLAT:??_R1A@?0A@EA@CObject@@8
rdata$r	ENDS
;	COMDAT ??_R3CFont@@8
rdata$r	SEGMENT
??_R3CFont@@8 DD 00H					; CFont::`RTTI Class Hierarchy Descriptor'
	DD	00H
	DD	03H
	DD	FLAT:??_R2CFont@@8
rdata$r	ENDS
;	COMDAT ??_R0?AVCFont@@@8
data$rs	SEGMENT
??_R0?AVCFont@@@8 DD FLAT:??_7type_info@@6B@		; CFont `RTTI Type Descriptor'
	DD	00H
	DB	'.?AVCFont@@', 00H
data$rs	ENDS
;	COMDAT ??_R4CFont@@6B@
rdata$r	SEGMENT
??_R4CFont@@6B@ DD 00H					; CFont::`RTTI Complete Object Locator'
	DD	00H
	DD	00H
	DD	FLAT:??_R0?AVCFont@@@8
	DD	FLAT:??_R3CFont@@8
rdata$r	ENDS
;	COMDAT ??_R1A@?0A@EA@CGdiObject@@8
rdata$r	SEGMENT
??_R1A@?0A@EA@CGdiObject@@8 DD FLAT:??_R0?AVCGdiObject@@@8 ; CGdiObject::`RTTI Base Class Descriptor at (0,-1,0,64)'
	DD	01H
	DD	00H
	DD	0ffffffffH
	DD	00H
	DD	040H
	DD	FLAT:??_R3CGdiObject@@8
rdata$r	ENDS
;	COMDAT ??_R2CGdiObject@@8
rdata$r	SEGMENT
??_R2CGdiObject@@8 DD FLAT:??_R1A@?0A@EA@CGdiObject@@8	; CGdiObject::`RTTI Base Class Array'
	DD	FLAT:??_R1A@?0A@EA@CObject@@8
rdata$r	ENDS
;	COMDAT ??_R3CGdiObject@@8
rdata$r	SEGMENT
??_R3CGdiObject@@8 DD 00H				; CGdiObject::`RTTI Class Hierarchy Descriptor'
	DD	00H
	DD	02H
	DD	FLAT:??_R2CGdiObject@@8
rdata$r	ENDS
;	COMDAT ??_R0?AVCGdiObject@@@8
data$rs	SEGMENT
??_R0?AVCGdiObject@@@8 DD FLAT:??_7type_info@@6B@	; CGdiObject `RTTI Type Descriptor'
	DD	00H
	DB	'.?AVCGdiObject@@', 00H
data$rs	ENDS
;	COMDAT ??_R4CGdiObject@@6B@
rdata$r	SEGMENT
??_R4CGdiObject@@6B@ DD 00H				; CGdiObject::`RTTI Complete Object Locator'
	DD	00H
	DD	00H
	DD	FLAT:??_R0?AVCGdiObject@@@8
	DD	FLAT:??_R3CGdiObject@@8
rdata$r	ENDS
;	COMDAT ??_R1A@?0A@EA@CObject@@8
rdata$r	SEGMENT
??_R1A@?0A@EA@CObject@@8 DD FLAT:??_R0?AVCObject@@@8	; CObject::`RTTI Base Class Descriptor at (0,-1,0,64)'
	DD	00H
	DD	00H
	DD	0ffffffffH
	DD	00H
	DD	040H
	DD	FLAT:??_R3CObject@@8
rdata$r	ENDS
;	COMDAT ??_R2CObject@@8
rdata$r	SEGMENT
??_R2CObject@@8 DD FLAT:??_R1A@?0A@EA@CObject@@8	; CObject::`RTTI Base Class Array'
rdata$r	ENDS
;	COMDAT ??_R3CObject@@8
rdata$r	SEGMENT
??_R3CObject@@8 DD 00H					; CObject::`RTTI Class Hierarchy Descriptor'
	DD	00H
	DD	01H
	DD	FLAT:??_R2CObject@@8
rdata$r	ENDS
;	COMDAT ??_R0?AVCObject@@@8
data$rs	SEGMENT
??_R0?AVCObject@@@8 DD FLAT:??_7type_info@@6B@		; CObject `RTTI Type Descriptor'
	DD	00H
	DB	'.?AVCObject@@', 00H
data$rs	ENDS
;	COMDAT ??_C@_0N@OMEMOKLE@?$CFTs?5?$CI?$CFTs?3?$CFd?$CJ@
CONST	SEGMENT
??_C@_0N@OMEMOKLE@?$CFTs?5?$CI?$CFTs?3?$CFd?$CJ@ DB '%Ts (%Ts:%d)', 00H ; `string'
CONST	ENDS
;	COMDAT ??_C@_0BB@HBOOMJBF@?$CFTs?5?$CI?$CFTs?3?$CFd?$CJ?6?$CFTs@
CONST	SEGMENT
??_C@_0BB@HBOOMJBF@?$CFTs?5?$CI?$CFTs?3?$CFd?$CJ?6?$CFTs@ DB '%Ts (%Ts:%d'
	DB	')', 0aH, '%Ts', 00H				; `string'
CONST	ENDS
;	COMDAT ??_C@_0BP@OIEOKIDM@Exception?5thrown?5in?5destructor@
CONST	SEGMENT
??_C@_0BP@OIEOKIDM@Exception?5thrown?5in?5destructor@ DB 'Exception throw'
	DB	'n in destructor', 00H			; `string'
CONST	ENDS
;	COMDAT ??_C@_0HD@JJCHHHNK@C?3?2Program?5Files?5?$CIx86?$CJ?2Microsof@
CONST	SEGMENT
??_C@_0HD@JJCHHHNK@C?3?2Program?5Files?5?$CIx86?$CJ?2Microsof@ DB 'C:\Pro'
	DB	'gram Files (x86)\Microsoft Visual Studio\2019\Community\VC\To'
	DB	'ols\MSVC\14.29.30133\atlmfc\include\afxwin1.inl', 00H ; `string'
CONST	ENDS
;	COMDAT ??_7CFont@@6B@
CONST	SEGMENT
??_7CFont@@6B@ DD FLAT:??_R4CFont@@6B@			; CFont::`vftable'
	DD	FLAT:?GetRuntimeClass@CFont@@UBEPAUCRuntimeClass@@XZ
	DD	FLAT:??_ECFont@@UAEPAXI@Z
	DD	FLAT:?Serialize@CObject@@UAEXAAVCArchive@@@Z
	DD	FLAT:?AssertValid@CObject@@UBEXXZ
	DD	FLAT:?Dump@CObject@@UBEXAAVCDumpContext@@@Z
CONST	ENDS
;	COMDAT ??_7CGdiObject@@6B@
CONST	SEGMENT
??_7CGdiObject@@6B@ DD FLAT:??_R4CGdiObject@@6B@	; CGdiObject::`vftable'
	DD	FLAT:?GetRuntimeClass@CGdiObject@@UBEPAUCRuntimeClass@@XZ
	DD	FLAT:??_ECGdiObject@@UAEPAXI@Z
	DD	FLAT:?Serialize@CObject@@UAEXAAVCArchive@@@Z
	DD	FLAT:?AssertValid@CObject@@UBEXXZ
	DD	FLAT:?Dump@CObject@@UBEXAAVCDumpContext@@@Z
CONST	ENDS
;	COMDAT ??_C@_00CNPNBAHC@@
CONST	SEGMENT
??_C@_00CNPNBAHC@@ DB 00H				; `string'
CONST	ENDS
;	COMDAT ??_R0PAVCException@@@8
data$r	SEGMENT
??_R0PAVCException@@@8 DD FLAT:??_7type_info@@6B@	; CException * `RTTI Type Descriptor'
	DD	00H
	DB	'.PAVCException@@', 00H
data$r	ENDS
;	COMDAT xdata$x
xdata$x	SEGMENT
__unwindtable$??_G?$CList@NN@@UAEPAXI@Z DD 0ffffffffH
	DD	FLAT:___std_terminate
__ehfuncinfo$??_G?$CList@NN@@UAEPAXI@Z DD 019930522H
	DD	01H
	DD	FLAT:__unwindtable$??_G?$CList@NN@@UAEPAXI@Z
	DD	2 DUP(00H)
	DD	2 DUP(00H)
	DD	00H
	DD	05H
xdata$x	ENDS
;	COMDAT xdata$x
xdata$x	SEGMENT
__ehfuncinfo$??1?$CList@NN@@UAE@XZ DD 019930522H
	DD	00H
	DD	00H
	DD	2 DUP(00H)
	DD	2 DUP(00H)
	DD	00H
	DD	05H
xdata$x	ENDS
;	COMDAT xdata$x
xdata$x	SEGMENT
__unwindtable$??0CHorizontalScale@@QAE@ABV0@@Z DD 0ffffffffH
	DD	FLAT:__unwindfunclet$??0CHorizontalScale@@QAE@ABV0@@Z$0
	DD	00H
	DD	FLAT:__unwindfunclet$??0CHorizontalScale@@QAE@ABV0@@Z$3
__ehfuncinfo$??0CHorizontalScale@@QAE@ABV0@@Z DD 019930522H
	DD	02H
	DD	FLAT:__unwindtable$??0CHorizontalScale@@QAE@ABV0@@Z
	DD	2 DUP(00H)
	DD	2 DUP(00H)
	DD	00H
	DD	01H
xdata$x	ENDS
;	COMDAT xdata$x
xdata$x	SEGMENT
__unwindtable$??0CScaleCompart@@QAE@ABV0@@Z DD 0ffffffffH
	DD	FLAT:__unwindfunclet$??0CScaleCompart@@QAE@ABV0@@Z$0
__ehfuncinfo$??0CScaleCompart@@QAE@ABV0@@Z DD 019930522H
	DD	01H
	DD	FLAT:__unwindtable$??0CScaleCompart@@QAE@ABV0@@Z
	DD	2 DUP(00H)
	DD	2 DUP(00H)
	DD	00H
	DD	01H
xdata$x	ENDS
;	COMDAT xdata$x
xdata$x	SEGMENT
__unwindtable$?DrawScale@CMarketProfileHorzScaleDrawer@@AAEXPAVCDC@@ABVCDrawingHorzScaleData@@ABVCRect@@2ABVCHorizontalScale@@@Z DD 0ffffffffH
	DD	FLAT:__unwindfunclet$?DrawScale@CMarketProfileHorzScaleDrawer@@AAEXPAVCDC@@ABVCDrawingHorzScaleData@@ABVCRect@@2ABVCHorizontalScale@@@Z$0
	DD	0ffffffffH
	DD	FLAT:__unwindfunclet$?DrawScale@CMarketProfileHorzScaleDrawer@@AAEXPAVCDC@@ABVCDrawingHorzScaleData@@ABVCRect@@2ABVCHorizontalScale@@@Z$1
__ehfuncinfo$?DrawScale@CMarketProfileHorzScaleDrawer@@AAEXPAVCDC@@ABVCDrawingHorzScaleData@@ABVCRect@@2ABVCHorizontalScale@@@Z DD 019930522H
	DD	02H
	DD	FLAT:__unwindtable$?DrawScale@CMarketProfileHorzScaleDrawer@@AAEXPAVCDC@@ABVCDrawingHorzScaleData@@ABVCRect@@2ABVCHorizontalScale@@@Z
	DD	2 DUP(00H)
	DD	2 DUP(00H)
	DD	00H
	DD	01H
xdata$x	ENDS
;	COMDAT xdata$x
xdata$x	SEGMENT
__unwindtable$?GetData@CLeftRightScaleDrawer@@ABE?AV?$CStringT@DV?$StrTraitMFC_DLL@DV?$ChTraitsCRT@D@ATL@@@@@ATL@@ABNAAN@Z DD 0ffffffffH
	DD	FLAT:__unwindfunclet$?GetData@CLeftRightScaleDrawer@@ABE?AV?$CStringT@DV?$StrTraitMFC_DLL@DV?$ChTraitsCRT@D@ATL@@@@@ATL@@ABNAAN@Z$1
	DD	00H
	DD	FLAT:__unwindfunclet$?GetData@CLeftRightScaleDrawer@@ABE?AV?$CStringT@DV?$StrTraitMFC_DLL@DV?$ChTraitsCRT@D@ATL@@@@@ATL@@ABNAAN@Z$2
	DD	0ffffffffH
	DD	FLAT:__unwindfunclet$?GetData@CLeftRightScaleDrawer@@ABE?AV?$CStringT@DV?$StrTraitMFC_DLL@DV?$ChTraitsCRT@D@ATL@@@@@ATL@@ABNAAN@Z$2
	DD	02H
	DD	FLAT:__unwindfunclet$?GetData@CLeftRightScaleDrawer@@ABE?AV?$CStringT@DV?$StrTraitMFC_DLL@DV?$ChTraitsCRT@D@ATL@@@@@ATL@@ABNAAN@Z$5
__ehfuncinfo$?GetData@CLeftRightScaleDrawer@@ABE?AV?$CStringT@DV?$StrTraitMFC_DLL@DV?$ChTraitsCRT@D@ATL@@@@@ATL@@ABNAAN@Z DD 019930522H
	DD	04H
	DD	FLAT:__unwindtable$?GetData@CLeftRightScaleDrawer@@ABE?AV?$CStringT@DV?$StrTraitMFC_DLL@DV?$ChTraitsCRT@D@ATL@@@@@ATL@@ABNAAN@Z
	DD	2 DUP(00H)
	DD	2 DUP(00H)
	DD	00H
	DD	01H
xdata$x	ENDS
;	COMDAT xdata$x
xdata$x	SEGMENT
__unwindtable$?GetDataListAndMinMax@CLeftRightScaleDrawer@@ABE_NABVCDrawingHorzScaleData@@AAV?$CList@NN@@AAN2@Z DD 0ffffffffH
	DD	FLAT:__unwindfunclet$?GetDataListAndMinMax@CLeftRightScaleDrawer@@ABE_NABVCDrawingHorzScaleData@@AAV?$CList@NN@@AAN2@Z$0
__ehfuncinfo$?GetDataListAndMinMax@CLeftRightScaleDrawer@@ABE_NABVCDrawingHorzScaleData@@AAV?$CList@NN@@AAN2@Z DD 019930522H
	DD	01H
	DD	FLAT:__unwindtable$?GetDataListAndMinMax@CLeftRightScaleDrawer@@ABE_NABVCDrawingHorzScaleData@@AAV?$CList@NN@@AAN2@Z
	DD	2 DUP(00H)
	DD	2 DUP(00H)
	DD	00H
	DD	01H
xdata$x	ENDS
;	COMDAT xdata$x
xdata$x	SEGMENT
__unwindtable$?DrawGrid@CLeftRightScaleDrawer@@UAEXPAVCDC@@ABVCDrawingHorzScaleData@@ABVCHorizontalScale@@@Z DD 0ffffffffH
	DD	FLAT:__unwindfunclet$?DrawGrid@CLeftRightScaleDrawer@@UAEXPAVCDC@@ABVCDrawingHorzScaleData@@ABVCHorizontalScale@@@Z$0
	DD	00H
	DD	FLAT:__unwindfunclet$?DrawGrid@CLeftRightScaleDrawer@@UAEXPAVCDC@@ABVCDrawingHorzScaleData@@ABVCHorizontalScale@@@Z$1
	DD	00H
	DD	FLAT:__unwindfunclet$?DrawGrid@CLeftRightScaleDrawer@@UAEXPAVCDC@@ABVCDrawingHorzScaleData@@ABVCHorizontalScale@@@Z$2
	DD	0ffffffffH
	DD	FLAT:___std_terminate
__ehfuncinfo$?DrawGrid@CLeftRightScaleDrawer@@UAEXPAVCDC@@ABVCDrawingHorzScaleData@@ABVCHorizontalScale@@@Z DD 019930522H
	DD	04H
	DD	FLAT:__unwindtable$?DrawGrid@CLeftRightScaleDrawer@@UAEXPAVCDC@@ABVCDrawingHorzScaleData@@ABVCHorizontalScale@@@Z
	DD	2 DUP(00H)
	DD	2 DUP(00H)
	DD	00H
	DD	01H
xdata$x	ENDS
;	COMDAT xdata$x
xdata$x	SEGMENT
__unwindtable$?DrawTextOrGrid@CLeftRightScaleDrawer@@UAEXPAVCDC@@ABVCDrawingHorzScaleData@@ABVCRect@@ABVCHorizontalScale@@@Z DD 0ffffffffH
	DD	FLAT:__unwindfunclet$?DrawTextOrGrid@CLeftRightScaleDrawer@@UAEXPAVCDC@@ABVCDrawingHorzScaleData@@ABVCRect@@ABVCHorizontalScale@@@Z$0
	DD	00H
	DD	FLAT:__unwindfunclet$?DrawTextOrGrid@CLeftRightScaleDrawer@@UAEXPAVCDC@@ABVCDrawingHorzScaleData@@ABVCRect@@ABVCHorizontalScale@@@Z$1
	DD	00H
	DD	FLAT:__unwindfunclet$?DrawTextOrGrid@CLeftRightScaleDrawer@@UAEXPAVCDC@@ABVCDrawingHorzScaleData@@ABVCRect@@ABVCHorizontalScale@@@Z$2
	DD	0ffffffffH
	DD	FLAT:___std_terminate
__ehfuncinfo$?DrawTextOrGrid@CLeftRightScaleDrawer@@UAEXPAVCDC@@ABVCDrawingHorzScaleData@@ABVCRect@@ABVCHorizontalScale@@@Z DD 019930522H
	DD	04H
	DD	FLAT:__unwindtable$?DrawTextOrGrid@CLeftRightScaleDrawer@@UAEXPAVCDC@@ABVCDrawingHorzScaleData@@ABVCRect@@ABVCHorizontalScale@@@Z
	DD	2 DUP(00H)
	DD	2 DUP(00H)
	DD	00H
	DD	01H
xdata$x	ENDS
;	COMDAT xdata$x
xdata$x	SEGMENT
__unwindtable$?GetFont@CEtcDataHorzScaleDrawer@@AAEXAAVCFont@@@Z DD 0ffffffffH
	DD	FLAT:__unwindfunclet$?GetFont@CEtcDataHorzScaleDrawer@@AAEXAAVCFont@@@Z$0
__ehfuncinfo$?GetFont@CEtcDataHorzScaleDrawer@@AAEXAAVCFont@@@Z DD 019930522H
	DD	01H
	DD	FLAT:__unwindtable$?GetFont@CEtcDataHorzScaleDrawer@@AAEXAAVCFont@@@Z
	DD	2 DUP(00H)
	DD	2 DUP(00H)
	DD	00H
	DD	01H
xdata$x	ENDS
;	COMDAT xdata$x
xdata$x	SEGMENT
__unwindtable$?DrawTextAndCompartLine_stand@CEtcDataHorzScaleDrawer@@AAEXPAVCDC@@ABVCRect@@ABVCPoint@@ABNABV?$CStringT@DV?$StrTraitMFC_DLL@DV?$ChTraitsCRT@D@ATL@@@@@ATL@@ABVCSize@@KKAAH@Z DD 0ffffffffH
	DD	FLAT:__unwindfunclet$?DrawTextAndCompartLine_stand@CEtcDataHorzScaleDrawer@@AAEXPAVCDC@@ABVCRect@@ABVCPoint@@ABNABV?$CStringT@DV?$StrTraitMFC_DLL@DV?$ChTraitsCRT@D@ATL@@@@@ATL@@ABVCSize@@KKAAH@Z$0
	DD	00H
	DD	FLAT:__unwindfunclet$?DrawTextAndCompartLine_stand@CEtcDataHorzScaleDrawer@@AAEXPAVCDC@@ABVCRect@@ABVCPoint@@ABNABV?$CStringT@DV?$StrTraitMFC_DLL@DV?$ChTraitsCRT@D@ATL@@@@@ATL@@ABVCSize@@KKAAH@Z$1
__ehfuncinfo$?DrawTextAndCompartLine_stand@CEtcDataHorzScaleDrawer@@AAEXPAVCDC@@ABVCRect@@ABVCPoint@@ABNABV?$CStringT@DV?$StrTraitMFC_DLL@DV?$ChTraitsCRT@D@ATL@@@@@ATL@@ABVCSize@@KKAAH@Z DD 019930522H
	DD	02H
	DD	FLAT:__unwindtable$?DrawTextAndCompartLine_stand@CEtcDataHorzScaleDrawer@@AAEXPAVCDC@@ABVCRect@@ABVCPoint@@ABNABV?$CStringT@DV?$StrTraitMFC_DLL@DV?$ChTraitsCRT@D@ATL@@@@@ATL@@ABVCSize@@KKAAH@Z
	DD	2 DUP(00H)
	DD	2 DUP(00H)
	DD	00H
	DD	01H
xdata$x	ENDS
;	COMDAT xdata$x
xdata$x	SEGMENT
__ehfuncinfo$?DrawTextOrGrid@CEtcDataHorzScaleDrawer@@UAEXPAVCDC@@ABVCDrawingHorzScaleData@@ABVCRect@@ABVCHorizontalScale@@@Z DD 019930522H
	DD	09H
	DD	FLAT:__unwindtable$?DrawTextOrGrid@CEtcDataHorzScaleDrawer@@UAEXPAVCDC@@ABVCDrawingHorzScaleData@@ABVCRect@@ABVCHorizontalScale@@@Z
	DD	2 DUP(00H)
	DD	2 DUP(00H)
	DD	00H
	DD	01H
__unwindtable$?DrawTextOrGrid@CEtcDataHorzScaleDrawer@@UAEXPAVCDC@@ABVCDrawingHorzScaleData@@ABVCRect@@ABVCHorizontalScale@@@Z DD 0ffffffffH
	DD	FLAT:__unwindfunclet$?DrawTextOrGrid@CEtcDataHorzScaleDrawer@@UAEXPAVCDC@@ABVCDrawingHorzScaleData@@ABVCRect@@ABVCHorizontalScale@@@Z$0
	DD	00H
	DD	FLAT:__unwindfunclet$?DrawTextOrGrid@CEtcDataHorzScaleDrawer@@UAEXPAVCDC@@ABVCDrawingHorzScaleData@@ABVCRect@@ABVCHorizontalScale@@@Z$1
	DD	00H
	DD	FLAT:__unwindfunclet$?DrawTextOrGrid@CEtcDataHorzScaleDrawer@@UAEXPAVCDC@@ABVCDrawingHorzScaleData@@ABVCRect@@ABVCHorizontalScale@@@Z$2
	DD	02H
	DD	FLAT:__unwindfunclet$?DrawTextOrGrid@CEtcDataHorzScaleDrawer@@UAEXPAVCDC@@ABVCDrawingHorzScaleData@@ABVCRect@@ABVCHorizontalScale@@@Z$3
	DD	02H
	DD	FLAT:__unwindfunclet$?DrawTextOrGrid@CEtcDataHorzScaleDrawer@@UAEXPAVCDC@@ABVCDrawingHorzScaleData@@ABVCRect@@ABVCHorizontalScale@@@Z$9
	DD	02H
	DD	FLAT:__unwindfunclet$?DrawTextOrGrid@CEtcDataHorzScaleDrawer@@UAEXPAVCDC@@ABVCDrawingHorzScaleData@@ABVCRect@@ABVCHorizontalScale@@@Z$4
	DD	05H
	DD	FLAT:__unwindfunclet$?DrawTextOrGrid@CEtcDataHorzScaleDrawer@@UAEXPAVCDC@@ABVCDrawingHorzScaleData@@ABVCRect@@ABVCHorizontalScale@@@Z$5
	DD	02H
	DD	FLAT:__unwindfunclet$?DrawTextOrGrid@CEtcDataHorzScaleDrawer@@UAEXPAVCDC@@ABVCDrawingHorzScaleData@@ABVCRect@@ABVCHorizontalScale@@@Z$5
	DD	07H
	DD	FLAT:__unwindfunclet$?DrawTextOrGrid@CEtcDataHorzScaleDrawer@@UAEXPAVCDC@@ABVCDrawingHorzScaleData@@ABVCRect@@ABVCHorizontalScale@@@Z$6
xdata$x	ENDS
;	COMDAT xdata$x
xdata$x	SEGMENT
__ehfuncinfo$?DrawTextOrGrid@CPriceZoneHorzScaleDrawer@@UAEXPAVCDC@@ABVCDrawingHorzScaleData@@ABVCRect@@ABVCHorizontalScale@@@Z DD 019930522H
	DD	05H
	DD	FLAT:__unwindtable$?DrawTextOrGrid@CPriceZoneHorzScaleDrawer@@UAEXPAVCDC@@ABVCDrawingHorzScaleData@@ABVCRect@@ABVCHorizontalScale@@@Z
	DD	2 DUP(00H)
	DD	2 DUP(00H)
	DD	00H
	DD	01H
__unwindtable$?DrawTextOrGrid@CPriceZoneHorzScaleDrawer@@UAEXPAVCDC@@ABVCDrawingHorzScaleData@@ABVCRect@@ABVCHorizontalScale@@@Z DD 0ffffffffH
	DD	FLAT:__unwindfunclet$?DrawTextOrGrid@CPriceZoneHorzScaleDrawer@@UAEXPAVCDC@@ABVCDrawingHorzScaleData@@ABVCRect@@ABVCHorizontalScale@@@Z$0
	DD	00H
	DD	FLAT:__unwindfunclet$?DrawTextOrGrid@CPriceZoneHorzScaleDrawer@@UAEXPAVCDC@@ABVCDrawingHorzScaleData@@ABVCRect@@ABVCHorizontalScale@@@Z$1
	DD	00H
	DD	FLAT:__unwindfunclet$?DrawTextOrGrid@CPriceZoneHorzScaleDrawer@@UAEXPAVCDC@@ABVCDrawingHorzScaleData@@ABVCRect@@ABVCHorizontalScale@@@Z$2
	DD	02H
	DD	FLAT:__unwindfunclet$?DrawTextOrGrid@CPriceZoneHorzScaleDrawer@@UAEXPAVCDC@@ABVCDrawingHorzScaleData@@ABVCRect@@ABVCHorizontalScale@@@Z$3
	DD	00H
	DD	FLAT:__unwindfunclet$?DrawTextOrGrid@CPriceZoneHorzScaleDrawer@@UAEXPAVCDC@@ABVCDrawingHorzScaleData@@ABVCRect@@ABVCHorizontalScale@@@Z$3
xdata$x	ENDS
;	COMDAT xdata$x
xdata$x	SEGMENT
__catchsym$??1CGdiObject@@UAE@XZ$3 DD 00H
	DD	FLAT:??_R0PAVCException@@@8
	DD	0fffffde4H
	DD	FLAT:__catch$??1CGdiObject@@UAE@XZ$0
__tryblocktable$??1CGdiObject@@UAE@XZ DD 00H
	DD	00H
	DD	02H
	DD	01H
	DD	FLAT:__catchsym$??1CGdiObject@@UAE@XZ$3
__unwindtable$??1CGdiObject@@UAE@XZ DD 0ffffffffH
	DD	00H
	DD	0ffffffffH
	DD	00H
	DD	01H
	DD	FLAT:__unwindfunclet$??1CGdiObject@@UAE@XZ$2
__ehfuncinfo$??1CGdiObject@@UAE@XZ DD 019930522H
	DD	03H
	DD	FLAT:__unwindtable$??1CGdiObject@@UAE@XZ
	DD	01H
	DD	FLAT:__tryblocktable$??1CGdiObject@@UAE@XZ
	DD	2 DUP(00H)
	DD	00H
	DD	05H
xdata$x	ENDS
;	COMDAT xdata$x
xdata$x	SEGMENT
__unwindtable$??HATL@@YA?AV?$CStringT@DV?$StrTraitMFC_DLL@DV?$ChTraitsCRT@D@ATL@@@@@0@DABV10@@Z DD 0ffffffffH
	DD	FLAT:__unwindfunclet$??HATL@@YA?AV?$CStringT@DV?$StrTraitMFC_DLL@DV?$ChTraitsCRT@D@ATL@@@@@0@DABV10@@Z$0
__ehfuncinfo$??HATL@@YA?AV?$CStringT@DV?$StrTraitMFC_DLL@DV?$ChTraitsCRT@D@ATL@@@@@0@DABV10@@Z DD 019930522H
	DD	01H
	DD	FLAT:__unwindtable$??HATL@@YA?AV?$CStringT@DV?$StrTraitMFC_DLL@DV?$ChTraitsCRT@D@ATL@@@@@0@DABV10@@Z
	DD	2 DUP(00H)
	DD	2 DUP(00H)
	DD	00H
	DD	01H
xdata$x	ENDS
; Function compile flags: /Ogtp
; File C:\Program Files (x86)\Microsoft Visual Studio\2019\Community\VC\Tools\MSVC\14.29.30133\atlmfc\include\afxtempl.h
; File C:\Program Files (x86)\Microsoft Visual Studio\2019\Community\VC\Tools\MSVC\14.29.30133\atlmfc\include\afx.inl
; File C:\Program Files (x86)\Microsoft Visual Studio\2019\Community\VC\Tools\MSVC\14.29.30133\atlmfc\include\afxtempl.h
; File C:\Program Files (x86)\Microsoft Visual Studio\2019\Community\VC\Tools\MSVC\14.29.30133\atlmfc\include\afx.inl
; File C:\Program Files (x86)\Microsoft Visual Studio\2019\Community\VC\Tools\MSVC\14.29.30133\atlmfc\include\afxtempl.h
; File C:\Program Files (x86)\Microsoft Visual Studio\2019\Community\VC\Tools\MSVC\14.29.30133\atlmfc\include\afx.inl
; File C:\Program Files (x86)\Microsoft Visual Studio\2019\Community\VC\Tools\MSVC\14.29.30133\atlmfc\include\afxtempl.h
;	COMDAT ??$SerializeElements@N@@YGXAAVCArchive@@PANH@Z
_TEXT	SEGMENT
_ar$ = 8						; size = 4
_pElements$ = 12					; size = 4
_nCount$ = 16						; size = 4
??$SerializeElements@N@@YGXAAVCArchive@@PANH@Z PROC	; SerializeElements<double>, COMDAT

; 67   : {

  00000	55		 push	 ebp
  00001	8b ec		 mov	 ebp, esp

; 68   : 	ENSURE(nCount == 0 || pElements != NULL);

  00003	8b 4d 0c	 mov	 ecx, DWORD PTR _pElements$[ebp]
  00006	53		 push	 ebx
  00007	56		 push	 esi
  00008	8b 75 10	 mov	 esi, DWORD PTR _nCount$[ebp]
  0000b	57		 push	 edi
  0000c	85 f6		 test	 esi, esi
  0000e	74 08		 je	 SHORT $LN2@SerializeE
  00010	85 c9		 test	 ecx, ecx
  00012	0f 84 89 00 00
	00		 je	 $LN34@SerializeE
$LN2@SerializeE:
; File C:\Program Files (x86)\Microsoft Visual Studio\2019\Community\VC\Tools\MSVC\14.29.30133\atlmfc\include\afx.inl

; 212  : 	{ return (m_nMode & CArchive::load) == 0; }

  00018	8b 55 08	 mov	 edx, DWORD PTR _ar$[ebp]
  0001b	8b 42 18	 mov	 eax, DWORD PTR [edx+24]
  0001e	f7 d0		 not	 eax
  00020	a8 01		 test	 al, 1
; File C:\Program Files (x86)\Microsoft Visual Studio\2019\Community\VC\Tools\MSVC\14.29.30133\atlmfc\include\afxtempl.h

; 73   : 	if (ar.IsStoring())

  00022	74 3c		 je	 SHORT $LN10@SerializeE

; 74   : 	{
; 75   : 		TYPE* pData;
; 76   : 		UINT_PTR nElementsLeft;
; 77   : 
; 78   : 		nElementsLeft = nCount;
; 79   : 		pData = pElements;
; 80   : 		while( nElementsLeft > 0 )

  00024	85 f6		 test	 esi, esi
  00026	74 31		 je	 SHORT $LN8@SerializeE
  00028	0f 1f 84 00 00
	00 00 00	 npad	 8
$LL5@SerializeE:

; 81   : 		{
; 82   : 			UINT nElementsToWrite;
; 83   : 
; 84   : 			nElementsToWrite = UINT(__min(nElementsLeft, INT_MAX/sizeof(TYPE)));

  00030	bb ff ff ff 0f	 mov	 ebx, 268435455		; 0fffffffH
  00035	3b f3		 cmp	 esi, ebx
  00037	0f 42 de	 cmovb	 ebx, esi

; 85   : 			ar.Write(pData, nElementsToWrite*sizeof(TYPE));

  0003a	8d 3c dd 00 00
	00 00		 lea	 edi, DWORD PTR [ebx*8]
  00041	57		 push	 edi
  00042	51		 push	 ecx
  00043	8b ca		 mov	 ecx, edx
  00045	e8 00 00 00 00	 call	 ?Write@CArchive@@QAEXPBXI@Z ; CArchive::Write

; 86   : 			nElementsLeft -= nElementsToWrite;
; 87   : 			pData += nElementsToWrite;

  0004a	8b 4d 0c	 mov	 ecx, DWORD PTR _pElements$[ebp]
  0004d	8b 55 08	 mov	 edx, DWORD PTR _ar$[ebp]
  00050	03 cf		 add	 ecx, edi
  00052	89 4d 0c	 mov	 DWORD PTR _pElements$[ebp], ecx
  00055	2b f3		 sub	 esi, ebx
  00057	75 d7		 jne	 SHORT $LL5@SerializeE
$LN8@SerializeE:
  00059	5f		 pop	 edi

; 105  : 		}
; 106  : 	}
; 107  : }

  0005a	5e		 pop	 esi
  0005b	5b		 pop	 ebx
  0005c	5d		 pop	 ebp
  0005d	c2 0c 00	 ret	 12			; 0000000cH
$LN10@SerializeE:

; 97   : 		while( nElementsLeft > 0 )

  00060	85 f6		 test	 esi, esi
  00062	74 f5		 je	 SHORT $LN8@SerializeE
$LL7@SerializeE:

; 98   : 		{
; 99   : 			UINT nElementsToRead;
; 100  : 
; 101  : 			nElementsToRead = UINT(__min(nElementsLeft, INT_MAX/sizeof(TYPE)));

  00064	bf ff ff ff 0f	 mov	 edi, 268435455		; 0fffffffH
  00069	3b f7		 cmp	 esi, edi
  0006b	0f 42 fe	 cmovb	 edi, esi

; 102  : 			ar.EnsureRead(pData, nElementsToRead*sizeof(TYPE));

  0006e	8d 1c fd 00 00
	00 00		 lea	 ebx, DWORD PTR [edi*8]
; File C:\Program Files (x86)\Microsoft Visual Studio\2019\Community\VC\Tools\MSVC\14.29.30133\atlmfc\include\afx.inl

; 399  : 	UINT nRead=Read(lpBuf, nCount);

  00075	53		 push	 ebx
  00076	51		 push	 ecx
  00077	8b ca		 mov	 ecx, edx
  00079	e8 00 00 00 00	 call	 ?Read@CArchive@@QAEIPAXI@Z ; CArchive::Read

; 400  : 	if(nRead!=nCount)

  0007e	3b c3		 cmp	 eax, ebx
  00080	75 16		 jne	 SHORT $LN23@SerializeE
; File C:\Program Files (x86)\Microsoft Visual Studio\2019\Community\VC\Tools\MSVC\14.29.30133\atlmfc\include\afxtempl.h

; 97   : 		while( nElementsLeft > 0 )

  00082	8b 4d 0c	 mov	 ecx, DWORD PTR _pElements$[ebp]
  00085	8b 55 08	 mov	 edx, DWORD PTR _ar$[ebp]

; 103  : 			nElementsLeft -= nElementsToRead;
; 104  : 			pData += nElementsToRead;

  00088	03 cb		 add	 ecx, ebx
  0008a	89 4d 0c	 mov	 DWORD PTR _pElements$[ebp], ecx
  0008d	2b f7		 sub	 esi, edi
  0008f	75 d3		 jne	 SHORT $LL7@SerializeE

; 105  : 		}
; 106  : 	}
; 107  : }

  00091	5f		 pop	 edi
  00092	5e		 pop	 esi
  00093	5b		 pop	 ebx
  00094	5d		 pop	 ebp
  00095	c2 0c 00	 ret	 12			; 0000000cH
$LN23@SerializeE:
; File C:\Program Files (x86)\Microsoft Visual Studio\2019\Community\VC\Tools\MSVC\14.29.30133\atlmfc\include\afx.inl

; 402  : 		AfxThrowArchiveException(CArchiveException::endOfFile);

  00098	6a 00		 push	 0
  0009a	6a 03		 push	 3
  0009c	e8 00 00 00 00	 call	 ?AfxThrowArchiveException@@YGXHPBD@Z ; AfxThrowArchiveException
$LN34@SerializeE:
; File C:\Program Files (x86)\Microsoft Visual Studio\2019\Community\VC\Tools\MSVC\14.29.30133\atlmfc\include\afxtempl.h

; 68   : 	ENSURE(nCount == 0 || pElements != NULL);

  000a1	e8 00 00 00 00	 call	 ?AfxThrowInvalidArgException@@YGXXZ ; AfxThrowInvalidArgException
$LN32@SerializeE:
  000a6	cc		 int	 3
??$SerializeElements@N@@YGXAAVCArchive@@PANH@Z ENDP	; SerializeElements<double>
_TEXT	ENDS
; Function compile flags: /Ogtp
; File C:\Program Files (x86)\Microsoft Visual Studio\2019\Community\VC\Tools\MSVC\14.29.30133\atlmfc\include\afxtempl.h
; File C:\Program Files (x86)\Microsoft Visual Studio\2019\Community\VC\Tools\MSVC\14.29.30133\atlmfc\include\afx.inl
;	COMDAT ??_G?$CList@NN@@UAEPAXI@Z
_TEXT	SEGMENT
__$EHRec$ = -12						; size = 12
___flags$ = 8						; size = 4
??_G?$CList@NN@@UAEPAXI@Z PROC				; CList<double,double>::`scalar deleting destructor', COMDAT
; _this$ = ecx
  00000	55		 push	 ebp
  00001	8b ec		 mov	 ebp, esp
  00003	6a ff		 push	 -1
  00005	68 00 00 00 00	 push	 __ehhandler$??_G?$CList@NN@@UAEPAXI@Z
  0000a	64 a1 00 00 00
	00		 mov	 eax, DWORD PTR fs:0
  00010	50		 push	 eax
  00011	56		 push	 esi
  00012	a1 00 00 00 00	 mov	 eax, DWORD PTR ___security_cookie
  00017	33 c5		 xor	 eax, ebp
  00019	50		 push	 eax
  0001a	8d 45 f4	 lea	 eax, DWORD PTR __$EHRec$[ebp]
  0001d	64 a3 00 00 00
	00		 mov	 DWORD PTR fs:0, eax
  00023	8b f1		 mov	 esi, ecx
; File C:\Program Files (x86)\Microsoft Visual Studio\2019\Community\VC\Tools\MSVC\14.29.30133\atlmfc\include\afxtempl.h

; 872  : 	m_pBlocks->FreeDataChain();

  00025	8b 4e 14	 mov	 ecx, DWORD PTR [esi+20]

; 878  : {

  00028	c7 45 fc 00 00
	00 00		 mov	 DWORD PTR __$EHRec$[ebp+8], 0
  0002f	c7 06 00 00 00
	00		 mov	 DWORD PTR [esi], OFFSET ??_7?$CList@NN@@6B@

; 870  : 	m_nCount = 0;

  00035	c7 46 0c 00 00
	00 00		 mov	 DWORD PTR [esi+12], 0

; 871  : 	m_pNodeHead = m_pNodeTail = m_pNodeFree = NULL;

  0003c	c7 46 10 00 00
	00 00		 mov	 DWORD PTR [esi+16], 0
  00043	c7 46 08 00 00
	00 00		 mov	 DWORD PTR [esi+8], 0
  0004a	c7 46 04 00 00
	00 00		 mov	 DWORD PTR [esi+4], 0

; 872  : 	m_pBlocks->FreeDataChain();

  00051	e8 00 00 00 00	 call	 ?FreeDataChain@CPlex@@QAEXXZ ; CPlex::FreeDataChain

; 873  : 	m_pBlocks = NULL;

  00056	8b 45 08	 mov	 eax, DWORD PTR ___flags$[ebp]
  00059	c7 46 14 00 00
	00 00		 mov	 DWORD PTR [esi+20], 0
  00060	a8 01		 test	 al, 1
  00062	74 2c		 je	 SHORT $LN22@scalar
  00064	a8 04		 test	 al, 4
  00066	75 1d		 jne	 SHORT $LN3@scalar
; File C:\Program Files (x86)\Microsoft Visual Studio\2019\Community\VC\Tools\MSVC\14.29.30133\atlmfc\include\afx.inl

; 112  : 	{ ::operator delete(p); }

  00068	56		 push	 esi
  00069	e8 00 00 00 00	 call	 ??3@YAXPAX@Z		; operator delete
  0006e	83 c4 04	 add	 esp, 4
  00071	8b c6		 mov	 eax, esi
  00073	8b 4d f4	 mov	 ecx, DWORD PTR __$EHRec$[ebp]
  00076	64 89 0d 00 00
	00 00		 mov	 DWORD PTR fs:0, ecx
  0007d	59		 pop	 ecx
  0007e	5e		 pop	 esi
  0007f	8b e5		 mov	 esp, ebp
  00081	5d		 pop	 ebp
  00082	c2 04 00	 ret	 4
$LN3@scalar:
  00085	6a 1c		 push	 28			; 0000001cH
  00087	56		 push	 esi
  00088	e8 00 00 00 00	 call	 ?__global_delete@@YAXPAXI@Z ; __global_delete
  0008d	83 c4 08	 add	 esp, 8
$LN22@scalar:
  00090	8b c6		 mov	 eax, esi
  00092	8b 4d f4	 mov	 ecx, DWORD PTR __$EHRec$[ebp]
  00095	64 89 0d 00 00
	00 00		 mov	 DWORD PTR fs:0, ecx
  0009c	59		 pop	 ecx
  0009d	5e		 pop	 esi
  0009e	8b e5		 mov	 esp, ebp
  000a0	5d		 pop	 ebp
  000a1	c2 04 00	 ret	 4
  000a4	cc		 int	 3
  000a5	cc		 int	 3
  000a6	cc		 int	 3
  000a7	cc		 int	 3
  000a8	cc		 int	 3
_TEXT	ENDS
;	COMDAT text$x
text$x	SEGMENT
__ehhandler$??_G?$CList@NN@@UAEPAXI@Z:
  00000	90		 npad	 1
  00001	90		 npad	 1
  00002	8b 54 24 08	 mov	 edx, DWORD PTR [esp+8]
  00006	8d 42 0c	 lea	 eax, DWORD PTR [edx+12]
  00009	8b 4a f8	 mov	 ecx, DWORD PTR [edx-8]
  0000c	33 c8		 xor	 ecx, eax
  0000e	e8 00 00 00 00	 call	 @__security_check_cookie@4
  00013	b8 00 00 00 00	 mov	 eax, OFFSET __ehfuncinfo$??_G?$CList@NN@@UAEPAXI@Z
  00018	e9 00 00 00 00	 jmp	 ___CxxFrameHandler3
text$x	ENDS
??_G?$CList@NN@@UAEPAXI@Z ENDP				; CList<double,double>::`scalar deleting destructor'
; Function compile flags: /Ogtp
; File C:\Program Files (x86)\Microsoft Visual Studio\2019\Community\VC\Tools\MSVC\14.29.30133\atlmfc\include\afxtempl.h
; File C:\Program Files (x86)\Microsoft Visual Studio\2019\Community\VC\Tools\MSVC\14.29.30133\atlmfc\include\afx.inl
; File C:\Program Files (x86)\Microsoft Visual Studio\2019\Community\VC\Tools\MSVC\14.29.30133\atlmfc\include\afxtempl.h
; File C:\Program Files (x86)\Microsoft Visual Studio\2019\Community\VC\Tools\MSVC\14.29.30133\atlmfc\include\afx.inl
; File C:\Program Files (x86)\Microsoft Visual Studio\2019\Community\VC\Tools\MSVC\14.29.30133\atlmfc\include\afxtempl.h
; File C:\Program Files (x86)\Microsoft Visual Studio\2019\Community\VC\Tools\MSVC\14.29.30133\atlmfc\include\afx.inl
; File C:\Program Files (x86)\Microsoft Visual Studio\2019\Community\VC\Tools\MSVC\14.29.30133\atlmfc\include\afxtempl.h
; File C:\Program Files (x86)\Microsoft Visual Studio\2019\Community\VC\Tools\MSVC\14.29.30133\atlmfc\include\afx.inl
; File C:\Program Files (x86)\Microsoft Visual Studio\2019\Community\VC\Tools\MSVC\14.29.30133\atlmfc\include\afxtempl.h
; File C:\Program Files (x86)\Microsoft Visual Studio\2019\Community\VC\Tools\MSVC\14.29.30133\atlmfc\include\afx.inl
; File C:\Program Files (x86)\Microsoft Visual Studio\2019\Community\VC\Tools\MSVC\14.29.30133\atlmfc\include\afxtempl.h
; File C:\Program Files (x86)\Microsoft Visual Studio\2019\Community\VC\Tools\MSVC\14.29.30133\atlmfc\include\afx.inl
; File C:\Program Files (x86)\Microsoft Visual Studio\2019\Community\VC\Tools\MSVC\14.29.30133\atlmfc\include\afxtempl.h
;	COMDAT ?Serialize@?$CList@NN@@UAEXAAVCArchive@@@Z
_TEXT	SEGMENT
_newData$1 = -20					; size = 8
_nNewCount$1$ = -12					; size = 4
_pData$1$ = -8						; size = 4
_pNode$1$ = -8						; size = 4
_nElementsLeft$1$ = -4					; size = 4
_this$1$ = -4						; size = 4
_ar$ = 8						; size = 4
?Serialize@?$CList@NN@@UAEXAAVCArchive@@@Z PROC		; CList<double,double>::Serialize, COMDAT
; _this$ = ecx

; 1169 : {

  00000	55		 push	 ebp
  00001	8b ec		 mov	 ebp, esp
  00003	83 ec 14	 sub	 esp, 20			; 00000014H
  00006	53		 push	 ebx
  00007	8b d9		 mov	 ebx, ecx
; File C:\Program Files (x86)\Microsoft Visual Studio\2019\Community\VC\Tools\MSVC\14.29.30133\atlmfc\include\afx.inl

; 212  : 	{ return (m_nMode & CArchive::load) == 0; }

  00009	8b 4d 08	 mov	 ecx, DWORD PTR _ar$[ebp]
; File C:\Program Files (x86)\Microsoft Visual Studio\2019\Community\VC\Tools\MSVC\14.29.30133\atlmfc\include\afxtempl.h

; 1169 : {

  0000c	56		 push	 esi
  0000d	57		 push	 edi
  0000e	89 5d fc	 mov	 DWORD PTR _this$1$[ebp], ebx
; File C:\Program Files (x86)\Microsoft Visual Studio\2019\Community\VC\Tools\MSVC\14.29.30133\atlmfc\include\afx.inl

; 212  : 	{ return (m_nMode & CArchive::load) == 0; }

  00011	8b 41 18	 mov	 eax, DWORD PTR [ecx+24]
  00014	f7 d0		 not	 eax
  00016	a8 01		 test	 al, 1
; File C:\Program Files (x86)\Microsoft Visual Studio\2019\Community\VC\Tools\MSVC\14.29.30133\atlmfc\include\afxtempl.h

; 1174 : 	if (ar.IsStoring())

  00018	0f 84 ae 00 00
	00		 je	 $LN7@Serialize

; 1175 : 	{
; 1176 : 		ar.WriteCount(m_nCount);

  0001e	ff 73 0c	 push	 DWORD PTR [ebx+12]
  00021	e8 00 00 00 00	 call	 ?WriteCount@CArchive@@QAEXK@Z ; CArchive::WriteCount

; 1177 : 		for (CNode* pNode = m_pNodeHead; pNode != NULL; pNode = pNode->pNext)

  00026	8b 43 04	 mov	 eax, DWORD PTR [ebx+4]
  00029	89 45 f8	 mov	 DWORD PTR _pNode$1$[ebp], eax
  0002c	85 c0		 test	 eax, eax
  0002e	0f 84 4d 01 00
	00		 je	 $LN68@Serialize
$LL4@Serialize:

; 1178 : 		{
; 1179 : 			ASSERT(AfxIsValidAddress(pNode, sizeof(CNode)));
; 1180 : 			TYPE* pData;
; 1181 : 			/*
; 1182 : 			 * in some cases the & operator might be overloaded, and we cannot use it to obtain
; 1183 : 			 * the address of a given object.  We then use the following trick to get the address
; 1184 : 			 */
; 1185 : 			pData = reinterpret_cast< TYPE* >( &reinterpret_cast< int& >( static_cast< TYPE& >( pNode->data ) ) );

  00034	8d 58 08	 lea	 ebx, DWORD PTR [eax+8]

; 68   : 	ENSURE(nCount == 0 || pElements != NULL);

  00037	85 db		 test	 ebx, ebx
  00039	0f 84 54 01 00
	00		 je	 $LN60@Serialize
; File C:\Program Files (x86)\Microsoft Visual Studio\2019\Community\VC\Tools\MSVC\14.29.30133\atlmfc\include\afx.inl

; 212  : 	{ return (m_nMode & CArchive::load) == 0; }

  0003f	8b 4d 08	 mov	 ecx, DWORD PTR _ar$[ebp]
  00042	8b 41 18	 mov	 eax, DWORD PTR [ecx+24]
  00045	f7 d0		 not	 eax
  00047	a8 01		 test	 al, 1
; File C:\Program Files (x86)\Microsoft Visual Studio\2019\Community\VC\Tools\MSVC\14.29.30133\atlmfc\include\afxtempl.h

; 73   : 	if (ar.IsStoring())

  00049	74 33		 je	 SHORT $LN21@Serialize

; 74   : 	{
; 75   : 		TYPE* pData;
; 76   : 		UINT_PTR nElementsLeft;
; 77   : 
; 78   : 		nElementsLeft = nCount;

  0004b	b8 01 00 00 00	 mov	 eax, 1
  00050	89 45 fc	 mov	 DWORD PTR _nElementsLeft$1$[ebp], eax
$LL16@Serialize:

; 80   : 		while( nElementsLeft > 0 )
; 81   : 		{
; 82   : 			UINT nElementsToWrite;
; 83   : 
; 84   : 			nElementsToWrite = UINT(__min(nElementsLeft, INT_MAX/sizeof(TYPE)));

  00053	bf ff ff ff 0f	 mov	 edi, 268435455		; 0fffffffH
  00058	3b c7		 cmp	 eax, edi
  0005a	0f 42 f8	 cmovb	 edi, eax

; 85   : 			ar.Write(pData, nElementsToWrite*sizeof(TYPE));

  0005d	8d 34 fd 00 00
	00 00		 lea	 esi, DWORD PTR [edi*8]
  00064	56		 push	 esi
  00065	53		 push	 ebx
  00066	e8 00 00 00 00	 call	 ?Write@CArchive@@QAEXPBXI@Z ; CArchive::Write

; 86   : 			nElementsLeft -= nElementsToWrite;

  0006b	8b 45 fc	 mov	 eax, DWORD PTR _nElementsLeft$1$[ebp]

; 87   : 			pData += nElementsToWrite;

  0006e	03 de		 add	 ebx, esi
  00070	8b 4d 08	 mov	 ecx, DWORD PTR _ar$[ebp]
  00073	2b c7		 sub	 eax, edi
  00075	89 45 fc	 mov	 DWORD PTR _nElementsLeft$1$[ebp], eax
  00078	85 c0		 test	 eax, eax
  0007a	75 d7		 jne	 SHORT $LL16@Serialize

; 88   : 		}
; 89   : 	}

  0007c	eb 35		 jmp	 SHORT $LN2@Serialize
$LN21@Serialize:

; 90   : 	else
; 91   : 	{
; 92   : 		TYPE* pData;
; 93   : 		UINT_PTR nElementsLeft;
; 94   : 
; 95   : 		nElementsLeft = nCount;

  0007e	be 01 00 00 00	 mov	 esi, 1
$LL18@Serialize:

; 98   : 		{
; 99   : 			UINT nElementsToRead;
; 100  : 
; 101  : 			nElementsToRead = UINT(__min(nElementsLeft, INT_MAX/sizeof(TYPE)));

  00083	bf ff ff ff 0f	 mov	 edi, 268435455		; 0fffffffH
  00088	3b f7		 cmp	 esi, edi
  0008a	0f 42 fe	 cmovb	 edi, esi

; 102  : 			ar.EnsureRead(pData, nElementsToRead*sizeof(TYPE));

  0008d	8d 04 fd 00 00
	00 00		 lea	 eax, DWORD PTR [edi*8]
; File C:\Program Files (x86)\Microsoft Visual Studio\2019\Community\VC\Tools\MSVC\14.29.30133\atlmfc\include\afx.inl

; 399  : 	UINT nRead=Read(lpBuf, nCount);

  00094	50		 push	 eax
  00095	53		 push	 ebx
  00096	e8 00 00 00 00	 call	 ?Read@CArchive@@QAEIPAXI@Z ; CArchive::Read

; 400  : 	if(nRead!=nCount)

  0009b	8d 0c fd 00 00
	00 00		 lea	 ecx, DWORD PTR [edi*8]
  000a2	3b c1		 cmp	 eax, ecx
  000a4	0f 85 e0 00 00
	00		 jne	 $LN59@Serialize
; File C:\Program Files (x86)\Microsoft Visual Studio\2019\Community\VC\Tools\MSVC\14.29.30133\atlmfc\include\afxtempl.h

; 97   : 		while( nElementsLeft > 0 )

  000aa	03 d9		 add	 ebx, ecx
  000ac	8b 4d 08	 mov	 ecx, DWORD PTR _ar$[ebp]

; 103  : 			nElementsLeft -= nElementsToRead;

  000af	2b f7		 sub	 esi, edi
  000b1	75 d0		 jne	 SHORT $LL18@Serialize
$LN2@Serialize:

; 1177 : 		for (CNode* pNode = m_pNodeHead; pNode != NULL; pNode = pNode->pNext)

  000b3	8b 45 f8	 mov	 eax, DWORD PTR _pNode$1$[ebp]
  000b6	8b 00		 mov	 eax, DWORD PTR [eax]
  000b8	89 45 f8	 mov	 DWORD PTR _pNode$1$[ebp], eax
  000bb	85 c0		 test	 eax, eax
  000bd	0f 85 71 ff ff
	ff		 jne	 $LL4@Serialize

; 1197 : 		}
; 1198 : 	}
; 1199 : }

  000c3	5f		 pop	 edi
  000c4	5e		 pop	 esi
  000c5	5b		 pop	 ebx
  000c6	8b e5		 mov	 esp, ebp
  000c8	5d		 pop	 ebp
  000c9	c2 04 00	 ret	 4
$LN7@Serialize:

; 1186 : 			SerializeElements<TYPE>(ar, pData, 1);
; 1187 : 		}
; 1188 : 	}
; 1189 : 	else
; 1190 : 	{
; 1191 : 		DWORD_PTR nNewCount = ar.ReadCount();

  000cc	e8 00 00 00 00	 call	 ?ReadCount@CArchive@@QAEKXZ ; CArchive::ReadCount

; 1192 : 		while (nNewCount--)

  000d1	85 c0		 test	 eax, eax
  000d3	0f 84 a8 00 00
	00		 je	 $LN68@Serialize
  000d9	0f 1f 80 00 00
	00 00		 npad	 7
$LL5@Serialize:
  000e0	48		 dec	 eax
  000e1	89 45 f4	 mov	 DWORD PTR _nNewCount$1$[ebp], eax
; File C:\Program Files (x86)\Microsoft Visual Studio\2019\Community\VC\Tools\MSVC\14.29.30133\atlmfc\include\afx.inl

; 212  : 	{ return (m_nMode & CArchive::load) == 0; }

  000e4	8b 45 08	 mov	 eax, DWORD PTR _ar$[ebp]
  000e7	8b 48 18	 mov	 ecx, DWORD PTR [eax+24]
  000ea	f7 d1		 not	 ecx
  000ec	f6 c1 01	 test	 cl, 1
; File C:\Program Files (x86)\Microsoft Visual Studio\2019\Community\VC\Tools\MSVC\14.29.30133\atlmfc\include\afxtempl.h

; 73   : 	if (ar.IsStoring())

  000ef	74 3a		 je	 SHORT $LN42@Serialize

; 79   : 		pData = pElements;

  000f1	8d 4d ec	 lea	 ecx, DWORD PTR _newData$1[ebp]
  000f4	bb 01 00 00 00	 mov	 ebx, 1
  000f9	89 4d f8	 mov	 DWORD PTR _pData$1$[ebp], ecx
  000fc	0f 1f 40 00	 npad	 4
$LL37@Serialize:

; 80   : 		while( nElementsLeft > 0 )
; 81   : 		{
; 82   : 			UINT nElementsToWrite;
; 83   : 
; 84   : 			nElementsToWrite = UINT(__min(nElementsLeft, INT_MAX/sizeof(TYPE)));

  00100	bf ff ff ff 0f	 mov	 edi, 268435455		; 0fffffffH
  00105	3b df		 cmp	 ebx, edi
  00107	0f 42 fb	 cmovb	 edi, ebx

; 85   : 			ar.Write(pData, nElementsToWrite*sizeof(TYPE));

  0010a	8d 34 fd 00 00
	00 00		 lea	 esi, DWORD PTR [edi*8]
  00111	56		 push	 esi
  00112	51		 push	 ecx
  00113	8b c8		 mov	 ecx, eax
  00115	e8 00 00 00 00	 call	 ?Write@CArchive@@QAEXPBXI@Z ; CArchive::Write

; 87   : 			pData += nElementsToWrite;

  0011a	8b 4d f8	 mov	 ecx, DWORD PTR _pData$1$[ebp]
  0011d	8b 45 08	 mov	 eax, DWORD PTR _ar$[ebp]
  00120	03 ce		 add	 ecx, esi
  00122	89 4d f8	 mov	 DWORD PTR _pData$1$[ebp], ecx
  00125	2b df		 sub	 ebx, edi
  00127	75 d7		 jne	 SHORT $LL37@Serialize

; 88   : 		}
; 89   : 	}

  00129	eb 36		 jmp	 SHORT $LN40@Serialize
$LN42@Serialize:

; 90   : 	else
; 91   : 	{
; 92   : 		TYPE* pData;
; 93   : 		UINT_PTR nElementsLeft;
; 94   : 
; 95   : 		nElementsLeft = nCount;

  0012b	be 01 00 00 00	 mov	 esi, 1

; 96   : 		pData = pElements;

  00130	8d 5d ec	 lea	 ebx, DWORD PTR _newData$1[ebp]
$LL39@Serialize:

; 98   : 		{
; 99   : 			UINT nElementsToRead;
; 100  : 
; 101  : 			nElementsToRead = UINT(__min(nElementsLeft, INT_MAX/sizeof(TYPE)));

  00133	bf ff ff ff 0f	 mov	 edi, 268435455		; 0fffffffH
  00138	3b f7		 cmp	 esi, edi
  0013a	0f 42 fe	 cmovb	 edi, esi

; 102  : 			ar.EnsureRead(pData, nElementsToRead*sizeof(TYPE));

  0013d	8d 0c fd 00 00
	00 00		 lea	 ecx, DWORD PTR [edi*8]
; File C:\Program Files (x86)\Microsoft Visual Studio\2019\Community\VC\Tools\MSVC\14.29.30133\atlmfc\include\afx.inl

; 399  : 	UINT nRead=Read(lpBuf, nCount);

  00144	51		 push	 ecx
  00145	53		 push	 ebx
  00146	8b c8		 mov	 ecx, eax
  00148	e8 00 00 00 00	 call	 ?Read@CArchive@@QAEIPAXI@Z ; CArchive::Read

; 400  : 	if(nRead!=nCount)

  0014d	8d 0c fd 00 00
	00 00		 lea	 ecx, DWORD PTR [edi*8]
  00154	3b c1		 cmp	 eax, ecx
  00156	75 32		 jne	 SHORT $LN59@Serialize
; File C:\Program Files (x86)\Microsoft Visual Studio\2019\Community\VC\Tools\MSVC\14.29.30133\atlmfc\include\afxtempl.h

; 104  : 			pData += nElementsToRead;

  00158	8b 45 08	 mov	 eax, DWORD PTR _ar$[ebp]
  0015b	03 d9		 add	 ebx, ecx
  0015d	2b f7		 sub	 esi, edi
  0015f	75 d2		 jne	 SHORT $LL39@Serialize
$LN40@Serialize:

; 1193 : 		{
; 1194 : 			TYPE newData[1];
; 1195 : 			SerializeElements<TYPE>(ar, newData, 1);
; 1196 : 			AddTail(newData[0]);

  00161	f2 0f 10 45 ec	 movsd	 xmm0, QWORD PTR _newData$1[ebp]
  00166	83 ec 08	 sub	 esp, 8
  00169	8b 4d fc	 mov	 ecx, DWORD PTR _this$1$[ebp]
  0016c	f2 0f 11 04 24	 movsd	 QWORD PTR [esp], xmm0
  00171	e8 00 00 00 00	 call	 ?AddTail@?$CList@NN@@QAEPAU__POSITION@@N@Z ; CList<double,double>::AddTail
  00176	8b 45 f4	 mov	 eax, DWORD PTR _nNewCount$1$[ebp]
  00179	85 c0		 test	 eax, eax
  0017b	0f 85 5f ff ff
	ff		 jne	 $LL5@Serialize
$LN68@Serialize:
  00181	5f		 pop	 edi

; 1197 : 		}
; 1198 : 	}
; 1199 : }

  00182	5e		 pop	 esi
  00183	5b		 pop	 ebx
  00184	8b e5		 mov	 esp, ebp
  00186	5d		 pop	 ebp
  00187	c2 04 00	 ret	 4
$LN59@Serialize:
  0018a	6a 00		 push	 0
  0018c	6a 03		 push	 3
  0018e	e8 00 00 00 00	 call	 ?AfxThrowArchiveException@@YGXHPBD@Z ; AfxThrowArchiveException
$LN60@Serialize:

; 68   : 	ENSURE(nCount == 0 || pElements != NULL);

  00193	e8 00 00 00 00	 call	 ?AfxThrowInvalidArgException@@YGXXZ ; AfxThrowInvalidArgException
$LN85@Serialize:
  00198	cc		 int	 3
?Serialize@?$CList@NN@@UAEXAAVCArchive@@@Z ENDP		; CList<double,double>::Serialize
_TEXT	ENDS
; Function compile flags: /Ogtp
; File C:\Program Files (x86)\Microsoft Visual Studio\2019\Community\VC\Tools\MSVC\14.29.30133\atlmfc\include\afxtempl.h
;	COMDAT ??1?$CList@NN@@UAE@XZ
_TEXT	SEGMENT
__$EHRec$ = -12						; size = 12
??1?$CList@NN@@UAE@XZ PROC				; CList<double,double>::~CList<double,double>, COMDAT
; _this$ = ecx

; 878  : {

  00000	55		 push	 ebp
  00001	8b ec		 mov	 ebp, esp
  00003	6a ff		 push	 -1
  00005	68 00 00 00 00	 push	 __ehhandler$??1?$CList@NN@@UAE@XZ
  0000a	64 a1 00 00 00
	00		 mov	 eax, DWORD PTR fs:0
  00010	50		 push	 eax
  00011	56		 push	 esi
  00012	a1 00 00 00 00	 mov	 eax, DWORD PTR ___security_cookie
  00017	33 c5		 xor	 eax, ebp
  00019	50		 push	 eax
  0001a	8d 45 f4	 lea	 eax, DWORD PTR __$EHRec$[ebp]
  0001d	64 a3 00 00 00
	00		 mov	 DWORD PTR fs:0, eax
  00023	8b f1		 mov	 esi, ecx

; 872  : 	m_pBlocks->FreeDataChain();

  00025	8b 4e 14	 mov	 ecx, DWORD PTR [esi+20]

; 878  : {

  00028	c7 06 00 00 00
	00		 mov	 DWORD PTR [esi], OFFSET ??_7?$CList@NN@@6B@

; 870  : 	m_nCount = 0;

  0002e	c7 46 0c 00 00
	00 00		 mov	 DWORD PTR [esi+12], 0

; 871  : 	m_pNodeHead = m_pNodeTail = m_pNodeFree = NULL;

  00035	c7 46 10 00 00
	00 00		 mov	 DWORD PTR [esi+16], 0
  0003c	c7 46 08 00 00
	00 00		 mov	 DWORD PTR [esi+8], 0
  00043	c7 46 04 00 00
	00 00		 mov	 DWORD PTR [esi+4], 0

; 872  : 	m_pBlocks->FreeDataChain();

  0004a	e8 00 00 00 00	 call	 ?FreeDataChain@CPlex@@QAEXXZ ; CPlex::FreeDataChain

; 873  : 	m_pBlocks = NULL;

  0004f	c7 46 14 00 00
	00 00		 mov	 DWORD PTR [esi+20], 0

; 879  : 	RemoveAll();
; 880  : 	ASSERT(m_nCount == 0);
; 881  : }

  00056	8b 4d f4	 mov	 ecx, DWORD PTR __$EHRec$[ebp]
  00059	64 89 0d 00 00
	00 00		 mov	 DWORD PTR fs:0, ecx
  00060	59		 pop	 ecx
  00061	5e		 pop	 esi
  00062	8b e5		 mov	 esp, ebp
  00064	5d		 pop	 ebp
  00065	c3		 ret	 0
  00066	cc		 int	 3
  00067	cc		 int	 3
  00068	cc		 int	 3
  00069	cc		 int	 3
  0006a	cc		 int	 3
_TEXT	ENDS
;	COMDAT text$x
text$x	SEGMENT
__ehhandler$??1?$CList@NN@@UAE@XZ:
  00000	90		 npad	 1
  00001	90		 npad	 1
  00002	8b 54 24 08	 mov	 edx, DWORD PTR [esp+8]
  00006	8d 42 0c	 lea	 eax, DWORD PTR [edx+12]
  00009	8b 4a f8	 mov	 ecx, DWORD PTR [edx-8]
  0000c	33 c8		 xor	 ecx, eax
  0000e	e8 00 00 00 00	 call	 @__security_check_cookie@4
  00013	b8 00 00 00 00	 mov	 eax, OFFSET __ehfuncinfo$??1?$CList@NN@@UAE@XZ
  00018	e9 00 00 00 00	 jmp	 ___CxxFrameHandler3
text$x	ENDS
??1?$CList@NN@@UAE@XZ ENDP				; CList<double,double>::~CList<double,double>
; Function compile flags: /Ogtp
; File C:\Program Files (x86)\Microsoft Visual Studio\2019\Community\VC\Tools\MSVC\14.29.30133\atlmfc\include\afxtempl.h
;	COMDAT ?NewNode@?$CList@NN@@IAEPAUCNode@1@PAU21@0@Z
_TEXT	SEGMENT
_pPrev$ = 8						; size = 4
_pNext$ = 12						; size = 4
?NewNode@?$CList@NN@@IAEPAUCNode@1@PAU21@0@Z PROC	; CList<double,double>::NewNode, COMDAT
; _this$ = ecx

; 901  : {

  00000	55		 push	 ebp
  00001	8b ec		 mov	 ebp, esp
  00003	56		 push	 esi
  00004	8b f1		 mov	 esi, ecx

; 902  : 	if (m_pNodeFree == NULL)

  00006	83 7e 10 00	 cmp	 DWORD PTR [esi+16], 0
  0000a	75 34		 jne	 SHORT $LN7@NewNode

; 903  : 	{
; 904  : 		// add another block
; 905  : 		CPlex* pNewBlock = CPlex::Create(m_pBlocks, m_nBlockSize,

  0000c	6a 10		 push	 16			; 00000010H
  0000e	ff 76 18	 push	 DWORD PTR [esi+24]
  00011	8d 46 14	 lea	 eax, DWORD PTR [esi+20]
  00014	50		 push	 eax
  00015	e8 00 00 00 00	 call	 ?Create@CPlex@@SGPAU1@AAPAU1@II@Z ; CPlex::Create

; 906  : 				 sizeof(CNode));
; 907  : 
; 908  : 		// chain them into free list
; 909  : 		CNode* pNode = (CNode*) pNewBlock->data();
; 910  : 		// free in reverse order to make it easier to debug
; 911  : 		pNode += m_nBlockSize - 1;

  0001a	8b 56 18	 mov	 edx, DWORD PTR [esi+24]
  0001d	83 c0 08	 add	 eax, 8
  00020	8b ca		 mov	 ecx, edx
  00022	c1 e1 04	 shl	 ecx, 4
  00025	83 c1 f0	 add	 ecx, -16		; fffffff0H
  00028	03 c1		 add	 eax, ecx

; 912  : 		for (INT_PTR i = m_nBlockSize-1; i >= 0; i--, pNode--)

  0002a	83 c2 ff	 add	 edx, -1
  0002d	78 11		 js	 SHORT $LN7@NewNode
  0002f	90		 npad	 1
$LL4@NewNode:

; 913  : 		{
; 914  : 			pNode->pNext = m_pNodeFree;

  00030	8b 4e 10	 mov	 ecx, DWORD PTR [esi+16]
  00033	89 08		 mov	 DWORD PTR [eax], ecx

; 915  : 			m_pNodeFree = pNode;

  00035	89 46 10	 mov	 DWORD PTR [esi+16], eax
  00038	83 e8 10	 sub	 eax, 16			; 00000010H
  0003b	83 ea 01	 sub	 edx, 1
  0003e	79 f0		 jns	 SHORT $LL4@NewNode
$LN7@NewNode:

; 916  : 		}
; 917  : 	}
; 918  : 	ENSURE(m_pNodeFree != NULL);  // we must have something

  00040	8b 46 10	 mov	 eax, DWORD PTR [esi+16]
  00043	85 c0		 test	 eax, eax
  00045	74 18		 je	 SHORT $LN17@NewNode

; 919  : 
; 920  : 	CList::CNode* pNode = m_pNodeFree;
; 921  : 	m_pNodeFree = m_pNodeFree->pNext;

  00047	8b 08		 mov	 ecx, DWORD PTR [eax]
  00049	89 4e 10	 mov	 DWORD PTR [esi+16], ecx

; 922  : 	pNode->pPrev = pPrev;

  0004c	8b 4d 08	 mov	 ecx, DWORD PTR _pPrev$[ebp]
  0004f	89 48 04	 mov	 DWORD PTR [eax+4], ecx

; 923  : 	pNode->pNext = pNext;

  00052	8b 4d 0c	 mov	 ecx, DWORD PTR _pNext$[ebp]
  00055	89 08		 mov	 DWORD PTR [eax], ecx

; 924  : 	m_nCount++;

  00057	ff 46 0c	 inc	 DWORD PTR [esi+12]

; 925  : 	ASSERT(m_nCount > 0);  // make sure we don't overflow
; 926  : 
; 927  : #pragma push_macro("new")
; 928  : #undef new
; 929  : 	::new( (void*)( &pNode->data ) ) TYPE;
; 930  : #pragma pop_macro("new")
; 931  : 	return pNode;

  0005a	5e		 pop	 esi

; 932  : }

  0005b	5d		 pop	 ebp
  0005c	c2 08 00	 ret	 8
$LN17@NewNode:

; 916  : 		}
; 917  : 	}
; 918  : 	ENSURE(m_pNodeFree != NULL);  // we must have something

  0005f	e8 00 00 00 00	 call	 ?AfxThrowInvalidArgException@@YGXXZ ; AfxThrowInvalidArgException
$LN15@NewNode:
  00064	cc		 int	 3
?NewNode@?$CList@NN@@IAEPAUCNode@1@PAU21@0@Z ENDP	; CList<double,double>::NewNode
_TEXT	ENDS
; Function compile flags: /Ogtp
; File C:\Program Files (x86)\Microsoft Visual Studio\2019\Community\VC\Tools\MSVC\14.29.30133\atlmfc\include\afxtempl.h
;	COMDAT ?FindIndex@?$CList@NN@@QBEPAU__POSITION@@H@Z
_TEXT	SEGMENT
_nIndex$ = 8						; size = 4
?FindIndex@?$CList@NN@@QBEPAU__POSITION@@H@Z PROC	; CList<double,double>::FindIndex, COMDAT
; _this$ = ecx

; 1130 : {

  00000	55		 push	 ebp
  00001	8b ec		 mov	 ebp, esp

; 1131 : 	ASSERT_VALID(this);
; 1132 : 
; 1133 : 	if (nIndex >= m_nCount || nIndex < 0)

  00003	8b 55 08	 mov	 edx, DWORD PTR _nIndex$[ebp]
  00006	3b 51 0c	 cmp	 edx, DWORD PTR [ecx+12]
  00009	7d 14		 jge	 SHORT $LN5@FindIndex
  0000b	85 d2		 test	 edx, edx
  0000d	78 10		 js	 SHORT $LN5@FindIndex

; 1135 : 
; 1136 : 	CNode* pNode = m_pNodeHead;

  0000f	8b 41 04	 mov	 eax, DWORD PTR [ecx+4]

; 1137 : 	while (nIndex--)

  00012	74 0d		 je	 SHORT $LN1@FindIndex
$LL2@FindIndex:

; 1138 : 	{
; 1139 : 		ASSERT(AfxIsValidAddress(pNode, sizeof(CNode)));
; 1140 : 		pNode = pNode->pNext;

  00014	8b 00		 mov	 eax, DWORD PTR [eax]
  00016	83 ea 01	 sub	 edx, 1
  00019	75 f9		 jne	 SHORT $LL2@FindIndex

; 1141 : 	}
; 1142 : 	return (POSITION) pNode;
; 1143 : }

  0001b	5d		 pop	 ebp
  0001c	c2 04 00	 ret	 4
$LN5@FindIndex:

; 1134 : 		return NULL;  // went too far

  0001f	33 c0		 xor	 eax, eax
$LN1@FindIndex:

; 1141 : 	}
; 1142 : 	return (POSITION) pNode;
; 1143 : }

  00021	5d		 pop	 ebp
  00022	c2 04 00	 ret	 4
?FindIndex@?$CList@NN@@QBEPAU__POSITION@@H@Z ENDP	; CList<double,double>::FindIndex
_TEXT	ENDS
; Function compile flags: /Ogtp
; File C:\Program Files (x86)\Microsoft Visual Studio\2019\Community\VC\Tools\MSVC\14.29.30133\atlmfc\include\afxtempl.h
;	COMDAT ?RemoveAll@?$CList@NN@@QAEXXZ
_TEXT	SEGMENT
?RemoveAll@?$CList@NN@@QAEXXZ PROC			; CList<double,double>::RemoveAll, COMDAT
; _this$ = ecx

; 862  : {

  00000	56		 push	 esi
  00001	8b f1		 mov	 esi, ecx

; 863  : 	ASSERT_VALID(this);
; 864  : 
; 865  : 	// destroy elements
; 866  : 	CNode* pNode;
; 867  : 	for (pNode = m_pNodeHead; pNode != NULL; pNode = pNode->pNext)
; 868  : 		pNode->data.~TYPE();
; 869  : 
; 870  : 	m_nCount = 0;
; 871  : 	m_pNodeHead = m_pNodeTail = m_pNodeFree = NULL;
; 872  : 	m_pBlocks->FreeDataChain();

  00003	8b 4e 14	 mov	 ecx, DWORD PTR [esi+20]
  00006	c7 46 0c 00 00
	00 00		 mov	 DWORD PTR [esi+12], 0
  0000d	c7 46 10 00 00
	00 00		 mov	 DWORD PTR [esi+16], 0
  00014	c7 46 08 00 00
	00 00		 mov	 DWORD PTR [esi+8], 0
  0001b	c7 46 04 00 00
	00 00		 mov	 DWORD PTR [esi+4], 0
  00022	e8 00 00 00 00	 call	 ?FreeDataChain@CPlex@@QAEXXZ ; CPlex::FreeDataChain

; 873  : 	m_pBlocks = NULL;

  00027	c7 46 14 00 00
	00 00		 mov	 DWORD PTR [esi+20], 0
  0002e	5e		 pop	 esi

; 874  : }

  0002f	c3		 ret	 0
?RemoveAll@?$CList@NN@@QAEXXZ ENDP			; CList<double,double>::RemoveAll
_TEXT	ENDS
; Function compile flags: /Ogtp
; File C:\Program Files (x86)\Microsoft Visual Studio\2019\Community\VC\Tools\MSVC\14.29.30133\atlmfc\include\afxtempl.h
;	COMDAT ?AddTail@?$CList@NN@@QAEPAU__POSITION@@N@Z
_TEXT	SEGMENT
_newElement$ = 8					; size = 8
?AddTail@?$CList@NN@@QAEPAU__POSITION@@N@Z PROC		; CList<double,double>::AddTail, COMDAT
; _this$ = ecx

; 965  : {

  00000	55		 push	 ebp
  00001	8b ec		 mov	 ebp, esp
  00003	56		 push	 esi
  00004	8b f1		 mov	 esi, ecx
  00006	57		 push	 edi

; 902  : 	if (m_pNodeFree == NULL)

  00007	83 7e 10 00	 cmp	 DWORD PTR [esi+16], 0

; 966  : 	ASSERT_VALID(this);
; 967  : 
; 968  : 	CNode* pNewNode = NewNode(m_pNodeTail, NULL);

  0000b	8b 7e 08	 mov	 edi, DWORD PTR [esi+8]

; 902  : 	if (m_pNodeFree == NULL)

  0000e	75 33		 jne	 SHORT $LN11@AddTail

; 903  : 	{
; 904  : 		// add another block
; 905  : 		CPlex* pNewBlock = CPlex::Create(m_pBlocks, m_nBlockSize,

  00010	6a 10		 push	 16			; 00000010H
  00012	ff 76 18	 push	 DWORD PTR [esi+24]
  00015	8d 46 14	 lea	 eax, DWORD PTR [esi+20]
  00018	50		 push	 eax
  00019	e8 00 00 00 00	 call	 ?Create@CPlex@@SGPAU1@AAPAU1@II@Z ; CPlex::Create

; 906  : 				 sizeof(CNode));
; 907  : 
; 908  : 		// chain them into free list
; 909  : 		CNode* pNode = (CNode*) pNewBlock->data();
; 910  : 		// free in reverse order to make it easier to debug
; 911  : 		pNode += m_nBlockSize - 1;

  0001e	8b 56 18	 mov	 edx, DWORD PTR [esi+24]
  00021	83 c0 08	 add	 eax, 8
  00024	8b ca		 mov	 ecx, edx
  00026	c1 e1 04	 shl	 ecx, 4
  00029	83 c1 f0	 add	 ecx, -16		; fffffff0H
  0002c	03 c8		 add	 ecx, eax

; 912  : 		for (INT_PTR i = m_nBlockSize-1; i >= 0; i--, pNode--)

  0002e	83 c2 ff	 add	 edx, -1
  00031	78 10		 js	 SHORT $LN11@AddTail
$LL8@AddTail:

; 913  : 		{
; 914  : 			pNode->pNext = m_pNodeFree;

  00033	8b 46 10	 mov	 eax, DWORD PTR [esi+16]
  00036	89 01		 mov	 DWORD PTR [ecx], eax

; 915  : 			m_pNodeFree = pNode;

  00038	89 4e 10	 mov	 DWORD PTR [esi+16], ecx
  0003b	83 e9 10	 sub	 ecx, 16			; 00000010H
  0003e	83 ea 01	 sub	 edx, 1
  00041	79 f0		 jns	 SHORT $LL8@AddTail
$LN11@AddTail:

; 916  : 		}
; 917  : 	}
; 918  : 	ENSURE(m_pNodeFree != NULL);  // we must have something

  00043	8b 4e 10	 mov	 ecx, DWORD PTR [esi+16]
  00046	85 c9		 test	 ecx, ecx
  00048	74 3d		 je	 SHORT $LN22@AddTail

; 919  : 
; 920  : 	CList::CNode* pNode = m_pNodeFree;
; 921  : 	m_pNodeFree = m_pNodeFree->pNext;

  0004a	8b 01		 mov	 eax, DWORD PTR [ecx]

; 969  : 	pNewNode->data = newElement;

  0004c	f2 0f 10 45 08	 movsd	 xmm0, QWORD PTR _newElement$[ebp]

; 921  : 	m_pNodeFree = m_pNodeFree->pNext;

  00051	89 46 10	 mov	 DWORD PTR [esi+16], eax

; 922  : 	pNode->pPrev = pPrev;

  00054	89 79 04	 mov	 DWORD PTR [ecx+4], edi

; 923  : 	pNode->pNext = pNext;

  00057	c7 01 00 00 00
	00		 mov	 DWORD PTR [ecx], 0

; 924  : 	m_nCount++;

  0005d	ff 46 0c	 inc	 DWORD PTR [esi+12]

; 969  : 	pNewNode->data = newElement;

  00060	f2 0f 11 41 08	 movsd	 QWORD PTR [ecx+8], xmm0

; 970  : 	if (m_pNodeTail != NULL)

  00065	8b 46 08	 mov	 eax, DWORD PTR [esi+8]
  00068	85 c0		 test	 eax, eax
  0006a	74 0d		 je	 SHORT $LN2@AddTail

; 971  : 		m_pNodeTail->pNext = pNewNode;

  0006c	89 08		 mov	 DWORD PTR [eax], ecx

; 972  : 	else
; 973  : 		m_pNodeHead = pNewNode;
; 974  : 	m_pNodeTail = pNewNode;
; 975  : 	return (POSITION) pNewNode;

  0006e	8b c1		 mov	 eax, ecx
  00070	5f		 pop	 edi
  00071	89 4e 08	 mov	 DWORD PTR [esi+8], ecx
  00074	5e		 pop	 esi

; 976  : }

  00075	5d		 pop	 ebp
  00076	c2 08 00	 ret	 8
$LN2@AddTail:

; 972  : 	else
; 973  : 		m_pNodeHead = pNewNode;
; 974  : 	m_pNodeTail = pNewNode;
; 975  : 	return (POSITION) pNewNode;

  00079	5f		 pop	 edi
  0007a	89 4e 04	 mov	 DWORD PTR [esi+4], ecx
  0007d	8b c1		 mov	 eax, ecx
  0007f	89 4e 08	 mov	 DWORD PTR [esi+8], ecx
  00082	5e		 pop	 esi

; 976  : }

  00083	5d		 pop	 ebp
  00084	c2 08 00	 ret	 8
$LN22@AddTail:

; 918  : 	ENSURE(m_pNodeFree != NULL);  // we must have something

  00087	e8 00 00 00 00	 call	 ?AfxThrowInvalidArgException@@YGXXZ ; AfxThrowInvalidArgException
$LN20@AddTail:
  0008c	cc		 int	 3
?AddTail@?$CList@NN@@QAEPAU__POSITION@@N@Z ENDP		; CList<double,double>::AddTail
_TEXT	ENDS
; Function compile flags: /Ogtp
; File C:\Program Files (x86)\Microsoft Visual Studio\2019\Community\VC\Tools\MSVC\14.29.30133\atlmfc\include\afxtempl.h
;	COMDAT ??0?$CList@NN@@QAE@H@Z
_TEXT	SEGMENT
_nBlockSize$ = 8					; size = 4
??0?$CList@NN@@QAE@H@Z PROC				; CList<double,double>::CList<double,double>, COMDAT
; _this$ = ecx

; 851  : {

  00000	55		 push	 ebp
  00001	8b ec		 mov	 ebp, esp

; 852  : 	ASSERT(nBlockSize > 0);
; 853  : 
; 854  : 	m_nCount = 0;
; 855  : 	m_pNodeHead = m_pNodeTail = m_pNodeFree = NULL;
; 856  : 	m_pBlocks = NULL;
; 857  : 	m_nBlockSize = nBlockSize;

  00003	8b 45 08	 mov	 eax, DWORD PTR _nBlockSize$[ebp]
  00006	89 41 18	 mov	 DWORD PTR [ecx+24], eax

; 858  : }

  00009	8b c1		 mov	 eax, ecx
  0000b	c7 01 00 00 00
	00		 mov	 DWORD PTR [ecx], OFFSET ??_7?$CList@NN@@6B@
  00011	c7 41 0c 00 00
	00 00		 mov	 DWORD PTR [ecx+12], 0
  00018	c7 41 10 00 00
	00 00		 mov	 DWORD PTR [ecx+16], 0
  0001f	c7 41 08 00 00
	00 00		 mov	 DWORD PTR [ecx+8], 0
  00026	c7 41 04 00 00
	00 00		 mov	 DWORD PTR [ecx+4], 0
  0002d	c7 41 14 00 00
	00 00		 mov	 DWORD PTR [ecx+20], 0
  00034	5d		 pop	 ebp
  00035	c2 04 00	 ret	 4
??0?$CList@NN@@QAE@H@Z ENDP				; CList<double,double>::CList<double,double>
_TEXT	ENDS
; Function compile flags: /Ogtp
;	COMDAT ??4CVertScaleRegion@@QAEAAV0@$$QAV0@@Z
_TEXT	SEGMENT
___that$ = 8						; size = 4
??4CVertScaleRegion@@QAEAAV0@$$QAV0@@Z PROC		; CVertScaleRegion::operator=, COMDAT
; _this$ = ecx
  00000	55		 push	 ebp
  00001	8b ec		 mov	 ebp, esp
  00003	8b 45 08	 mov	 eax, DWORD PTR ___that$[ebp]
  00006	0f 10 00	 movups	 xmm0, XMMWORD PTR [eax]
  00009	0f 11 01	 movups	 XMMWORD PTR [ecx], xmm0
  0000c	0f 10 40 10	 movups	 xmm0, XMMWORD PTR [eax+16]
  00010	8b c1		 mov	 eax, ecx
  00012	0f 11 41 10	 movups	 XMMWORD PTR [ecx+16], xmm0
  00016	5d		 pop	 ebp
  00017	c2 04 00	 ret	 4
??4CVertScaleRegion@@QAEAAV0@$$QAV0@@Z ENDP		; CVertScaleRegion::operator=
_TEXT	ENDS
; Function compile flags: /Ogtp
;	COMDAT ??4CVertScaleRegion@@QAEAAV0@ABV0@@Z
_TEXT	SEGMENT
___that$ = 8						; size = 4
??4CVertScaleRegion@@QAEAAV0@ABV0@@Z PROC		; CVertScaleRegion::operator=, COMDAT
; _this$ = ecx
  00000	55		 push	 ebp
  00001	8b ec		 mov	 ebp, esp
  00003	8b 45 08	 mov	 eax, DWORD PTR ___that$[ebp]
  00006	0f 10 00	 movups	 xmm0, XMMWORD PTR [eax]
  00009	0f 11 01	 movups	 XMMWORD PTR [ecx], xmm0
  0000c	0f 10 40 10	 movups	 xmm0, XMMWORD PTR [eax+16]
  00010	8b c1		 mov	 eax, ecx
  00012	0f 11 41 10	 movups	 XMMWORD PTR [ecx+16], xmm0
  00016	5d		 pop	 ebp
  00017	c2 04 00	 ret	 4
??4CVertScaleRegion@@QAEAAV0@ABV0@@Z ENDP		; CVertScaleRegion::operator=
_TEXT	ENDS
; Function compile flags: /Ogtp
;	COMDAT ??4CHorzScaleRegion@@QAEAAV0@$$QAV0@@Z
_TEXT	SEGMENT
___that$ = 8						; size = 4
??4CHorzScaleRegion@@QAEAAV0@$$QAV0@@Z PROC		; CHorzScaleRegion::operator=, COMDAT
; _this$ = ecx
  00000	55		 push	 ebp
  00001	8b ec		 mov	 ebp, esp
  00003	8b 45 08	 mov	 eax, DWORD PTR ___that$[ebp]
  00006	0f 10 00	 movups	 xmm0, XMMWORD PTR [eax]
  00009	0f 11 01	 movups	 XMMWORD PTR [ecx], xmm0
  0000c	0f 10 40 10	 movups	 xmm0, XMMWORD PTR [eax+16]
  00010	8b c1		 mov	 eax, ecx
  00012	0f 11 41 10	 movups	 XMMWORD PTR [ecx+16], xmm0
  00016	5d		 pop	 ebp
  00017	c2 04 00	 ret	 4
??4CHorzScaleRegion@@QAEAAV0@$$QAV0@@Z ENDP		; CHorzScaleRegion::operator=
_TEXT	ENDS
; Function compile flags: /Ogtp
;	COMDAT ??4CHorzScaleRegion@@QAEAAV0@ABV0@@Z
_TEXT	SEGMENT
___that$ = 8						; size = 4
??4CHorzScaleRegion@@QAEAAV0@ABV0@@Z PROC		; CHorzScaleRegion::operator=, COMDAT
; _this$ = ecx
  00000	55		 push	 ebp
  00001	8b ec		 mov	 ebp, esp
  00003	8b 45 08	 mov	 eax, DWORD PTR ___that$[ebp]
  00006	0f 10 00	 movups	 xmm0, XMMWORD PTR [eax]
  00009	0f 11 01	 movups	 XMMWORD PTR [ecx], xmm0
  0000c	0f 10 40 10	 movups	 xmm0, XMMWORD PTR [eax+16]
  00010	8b c1		 mov	 eax, ecx
  00012	0f 11 41 10	 movups	 XMMWORD PTR [ecx+16], xmm0
  00016	5d		 pop	 ebp
  00017	c2 04 00	 ret	 4
??4CHorzScaleRegion@@QAEAAV0@ABV0@@Z ENDP		; CHorzScaleRegion::operator=
_TEXT	ENDS
; Function compile flags: /Ogtp
;	COMDAT ??4CVertScaleRegionWidth@@QAEAAV0@$$QAV0@@Z
_TEXT	SEGMENT
___that$ = 8						; size = 4
??4CVertScaleRegionWidth@@QAEAAV0@$$QAV0@@Z PROC	; CVertScaleRegionWidth::operator=, COMDAT
; _this$ = ecx
  00000	55		 push	 ebp
  00001	8b ec		 mov	 ebp, esp
  00003	8b 55 08	 mov	 edx, DWORD PTR ___that$[ebp]
  00006	8b 02		 mov	 eax, DWORD PTR [edx]
  00008	89 01		 mov	 DWORD PTR [ecx], eax
  0000a	8b 42 04	 mov	 eax, DWORD PTR [edx+4]
  0000d	89 41 04	 mov	 DWORD PTR [ecx+4], eax
  00010	8b c1		 mov	 eax, ecx
  00012	5d		 pop	 ebp
  00013	c2 04 00	 ret	 4
??4CVertScaleRegionWidth@@QAEAAV0@$$QAV0@@Z ENDP	; CVertScaleRegionWidth::operator=
_TEXT	ENDS
; Function compile flags: /Ogtp
;	COMDAT ??4CVertScaleRegionWidth@@QAEAAV0@ABV0@@Z
_TEXT	SEGMENT
___that$ = 8						; size = 4
??4CVertScaleRegionWidth@@QAEAAV0@ABV0@@Z PROC		; CVertScaleRegionWidth::operator=, COMDAT
; _this$ = ecx
  00000	55		 push	 ebp
  00001	8b ec		 mov	 ebp, esp
  00003	8b 45 08	 mov	 eax, DWORD PTR ___that$[ebp]
  00006	8b 10		 mov	 edx, DWORD PTR [eax]
  00008	8b 40 04	 mov	 eax, DWORD PTR [eax+4]
  0000b	89 41 04	 mov	 DWORD PTR [ecx+4], eax
  0000e	8b c1		 mov	 eax, ecx
  00010	89 11		 mov	 DWORD PTR [ecx], edx
  00012	5d		 pop	 ebp
  00013	c2 04 00	 ret	 4
??4CVertScaleRegionWidth@@QAEAAV0@ABV0@@Z ENDP		; CVertScaleRegionWidth::operator=
_TEXT	ENDS
; Function compile flags: /Ogtp
;	COMDAT ??4CHorzScaleRegionHeight@@QAEAAV0@$$QAV0@@Z
_TEXT	SEGMENT
___that$ = 8						; size = 4
??4CHorzScaleRegionHeight@@QAEAAV0@$$QAV0@@Z PROC	; CHorzScaleRegionHeight::operator=, COMDAT
; _this$ = ecx
  00000	55		 push	 ebp
  00001	8b ec		 mov	 ebp, esp
  00003	8b 55 08	 mov	 edx, DWORD PTR ___that$[ebp]
  00006	8b 02		 mov	 eax, DWORD PTR [edx]
  00008	89 01		 mov	 DWORD PTR [ecx], eax
  0000a	8b 42 04	 mov	 eax, DWORD PTR [edx+4]
  0000d	89 41 04	 mov	 DWORD PTR [ecx+4], eax
  00010	8b c1		 mov	 eax, ecx
  00012	5d		 pop	 ebp
  00013	c2 04 00	 ret	 4
??4CHorzScaleRegionHeight@@QAEAAV0@$$QAV0@@Z ENDP	; CHorzScaleRegionHeight::operator=
_TEXT	ENDS
; Function compile flags: /Ogtp
;	COMDAT ??4CHorzScaleRegionHeight@@QAEAAV0@ABV0@@Z
_TEXT	SEGMENT
___that$ = 8						; size = 4
??4CHorzScaleRegionHeight@@QAEAAV0@ABV0@@Z PROC		; CHorzScaleRegionHeight::operator=, COMDAT
; _this$ = ecx
  00000	55		 push	 ebp
  00001	8b ec		 mov	 ebp, esp
  00003	8b 45 08	 mov	 eax, DWORD PTR ___that$[ebp]
  00006	8b 10		 mov	 edx, DWORD PTR [eax]
  00008	8b 40 04	 mov	 eax, DWORD PTR [eax+4]
  0000b	89 41 04	 mov	 DWORD PTR [ecx+4], eax
  0000e	8b c1		 mov	 eax, ecx
  00010	89 11		 mov	 DWORD PTR [ecx], edx
  00012	5d		 pop	 ebp
  00013	c2 04 00	 ret	 4
??4CHorzScaleRegionHeight@@QAEAAV0@ABV0@@Z ENDP		; CHorzScaleRegionHeight::operator=
_TEXT	ENDS
; Function compile flags: /Ogtp
;	COMDAT ??0CVerticalScale@@QAE@ABV0@@Z
_TEXT	SEGMENT
_this$ = -4						; size = 4
___that$ = 8						; size = 4
??0CVerticalScale@@QAE@ABV0@@Z PROC			; CVerticalScale::CVerticalScale, COMDAT
; _this$ = ecx
  00000	55		 push	 ebp
  00001	8b ec		 mov	 ebp, esp
  00003	51		 push	 ecx
  00004	56		 push	 esi
  00005	8b 75 08	 mov	 esi, DWORD PTR ___that$[ebp]
  00008	57		 push	 edi
  00009	8b f9		 mov	 edi, ecx
  0000b	89 7d fc	 mov	 DWORD PTR _this$[ebp], edi
  0000e	8d 46 04	 lea	 eax, DWORD PTR [esi+4]
  00011	50		 push	 eax
  00012	8d 4f 04	 lea	 ecx, DWORD PTR [edi+4]
  00015	c7 07 00 00 00
	00		 mov	 DWORD PTR [edi], OFFSET ??_7CScale@@6B@
  0001b	ff 15 00 00 00
	00		 call	 DWORD PTR __imp_??0?$CStringT@DV?$StrTraitMFC_DLL@DV?$ChTraitsCRT@D@ATL@@@@@ATL@@QAE@ABV01@@Z
  00021	8b 46 08	 mov	 eax, DWORD PTR [esi+8]
  00024	89 47 08	 mov	 DWORD PTR [edi+8], eax
  00027	c7 07 00 00 00
	00		 mov	 DWORD PTR [edi], OFFSET ??_7CVerticalScale@@6B@
  0002d	8b 46 0c	 mov	 eax, DWORD PTR [esi+12]
  00030	89 47 0c	 mov	 DWORD PTR [edi+12], eax
  00033	8b 46 10	 mov	 eax, DWORD PTR [esi+16]
  00036	89 47 10	 mov	 DWORD PTR [edi+16], eax
  00039	8b 46 14	 mov	 eax, DWORD PTR [esi+20]
  0003c	89 47 14	 mov	 DWORD PTR [edi+20], eax
  0003f	8b 46 18	 mov	 eax, DWORD PTR [esi+24]
  00042	89 47 18	 mov	 DWORD PTR [edi+24], eax
  00045	f2 0f 10 46 20	 movsd	 xmm0, QWORD PTR [esi+32]
  0004a	f2 0f 11 47 20	 movsd	 QWORD PTR [edi+32], xmm0
  0004f	f2 0f 10 46 28	 movsd	 xmm0, QWORD PTR [esi+40]
  00054	f2 0f 11 47 28	 movsd	 QWORD PTR [edi+40], xmm0
  00059	8b 46 30	 mov	 eax, DWORD PTR [esi+48]
  0005c	89 47 30	 mov	 DWORD PTR [edi+48], eax
  0005f	8a 46 34	 mov	 al, BYTE PTR [esi+52]
  00062	88 47 34	 mov	 BYTE PTR [edi+52], al
  00065	f2 0f 10 46 38	 movsd	 xmm0, QWORD PTR [esi+56]
  0006a	f2 0f 11 47 38	 movsd	 QWORD PTR [edi+56], xmm0
  0006f	f2 0f 10 46 40	 movsd	 xmm0, QWORD PTR [esi+64]
  00074	f2 0f 11 47 40	 movsd	 QWORD PTR [edi+64], xmm0
  00079	8b 46 48	 mov	 eax, DWORD PTR [esi+72]
  0007c	89 47 48	 mov	 DWORD PTR [edi+72], eax
  0007f	8b 46 4c	 mov	 eax, DWORD PTR [esi+76]
  00082	89 47 4c	 mov	 DWORD PTR [edi+76], eax
  00085	8b 46 50	 mov	 eax, DWORD PTR [esi+80]
  00088	89 47 50	 mov	 DWORD PTR [edi+80], eax
  0008b	8b c7		 mov	 eax, edi
  0008d	5f		 pop	 edi
  0008e	5e		 pop	 esi
  0008f	8b e5		 mov	 esp, ebp
  00091	5d		 pop	 ebp
  00092	c2 04 00	 ret	 4
??0CVerticalScale@@QAE@ABV0@@Z ENDP			; CVerticalScale::CVerticalScale
_TEXT	ENDS
; Function compile flags: /Ogtp
;	COMDAT ??1CVerticalScale@@QAE@XZ
_TEXT	SEGMENT
??1CVerticalScale@@QAE@XZ PROC				; CVerticalScale::~CVerticalScale, COMDAT
; _this$ = ecx
  00000	83 c1 04	 add	 ecx, 4
  00003	ff 25 00 00 00
	00		 jmp	 DWORD PTR __imp_??1?$CStringT@DV?$StrTraitMFC_DLL@DV?$ChTraitsCRT@D@ATL@@@@@ATL@@QAE@XZ
??1CVerticalScale@@QAE@XZ ENDP				; CVerticalScale::~CVerticalScale
_TEXT	ENDS
; Function compile flags: /Ogtp
; File D:\git\src\IBK\IBK_DRFN\ProjSrc\SrcChartEx\ChartOCX\Include_Chart\ScaleBaseData.h
;	COMDAT ?GetSpace@CVerticalScale@@QBEXAAH0@Z
_TEXT	SEGMENT
_p_nUpSpace$ = 8					; size = 4
_p_nDownSpace$ = 12					; size = 4
?GetSpace@CVerticalScale@@QBEXAAH0@Z PROC		; CVerticalScale::GetSpace, COMDAT
; _this$ = ecx

; 240  : 	void	GetSpace( int &p_nUpSpace, int &p_nDownSpace) const		{	p_nUpSpace = m_nUpSpace;	p_nDownSpace = m_nDownSpace;	}

  00000	55		 push	 ebp
  00001	8b ec		 mov	 ebp, esp
  00003	8b 45 08	 mov	 eax, DWORD PTR _p_nUpSpace$[ebp]
  00006	8b 51 4c	 mov	 edx, DWORD PTR [ecx+76]
  00009	89 10		 mov	 DWORD PTR [eax], edx
  0000b	8b 45 0c	 mov	 eax, DWORD PTR _p_nDownSpace$[ebp]
  0000e	8b 49 50	 mov	 ecx, DWORD PTR [ecx+80]
  00011	89 08		 mov	 DWORD PTR [eax], ecx
  00013	5d		 pop	 ebp
  00014	c2 08 00	 ret	 8
?GetSpace@CVerticalScale@@QBEXAAH0@Z ENDP		; CVerticalScale::GetSpace
_TEXT	ENDS
; Function compile flags: /Ogtp
; File D:\git\src\IBK\IBK_DRFN\ProjSrc\SrcChartEx\ChartOCX\Include_Chart\ScaleBaseData.h
;	COMDAT ?SetSpace@CVerticalScale@@QAEXHH@Z
_TEXT	SEGMENT
_p_nUpSpace$ = 8					; size = 4
_p_nDownSpace$ = 12					; size = 4
?SetSpace@CVerticalScale@@QAEXHH@Z PROC			; CVerticalScale::SetSpace, COMDAT
; _this$ = ecx

; 239  : 	void	SetSpace( int p_nUpSpace, int p_nDownSpace)				{	m_nUpSpace = p_nUpSpace;	m_nDownSpace = p_nDownSpace;	}

  00000	55		 push	 ebp
  00001	8b ec		 mov	 ebp, esp
  00003	8b 45 08	 mov	 eax, DWORD PTR _p_nUpSpace$[ebp]
  00006	89 41 4c	 mov	 DWORD PTR [ecx+76], eax
  00009	8b 45 0c	 mov	 eax, DWORD PTR _p_nDownSpace$[ebp]
  0000c	89 41 50	 mov	 DWORD PTR [ecx+80], eax
  0000f	5d		 pop	 ebp
  00010	c2 08 00	 ret	 8
?SetSpace@CVerticalScale@@QAEXHH@Z ENDP			; CVerticalScale::SetSpace
_TEXT	ENDS
; Function compile flags: /Ogtp
; File D:\git\src\IBK\IBK_DRFN\ProjSrc\SrcChartEx\ChartOCX\Include_Chart\ScaleBaseData.h
;	COMDAT ?SetVertScaleInvertType@CVerticalScale@@QAEX_N@Z
_TEXT	SEGMENT
_bIsVertScaleInvertType$ = 8				; size = 1
?SetVertScaleInvertType@CVerticalScale@@QAEX_N@Z PROC	; CVerticalScale::SetVertScaleInvertType, COMDAT
; _this$ = ecx

; 232  : 	void	SetVertScaleInvertType(const bool bIsVertScaleInvertType)	{	m_bIsVertScaleInvertType = bIsVertScaleInvertType;	}

  00000	55		 push	 ebp
  00001	8b ec		 mov	 ebp, esp
  00003	8a 45 08	 mov	 al, BYTE PTR _bIsVertScaleInvertType$[ebp]
  00006	88 41 34	 mov	 BYTE PTR [ecx+52], al
  00009	5d		 pop	 ebp
  0000a	c2 04 00	 ret	 4
?SetVertScaleInvertType@CVerticalScale@@QAEX_N@Z ENDP	; CVerticalScale::SetVertScaleInvertType
_TEXT	ENDS
; Function compile flags: /Ogtp
; File D:\git\src\IBK\IBK_DRFN\ProjSrc\SrcChartEx\ChartOCX\Include_Chart\ScaleBaseData.h
;	COMDAT ?GetVertScaleInvertType@CVerticalScale@@QBE_NXZ
_TEXT	SEGMENT
?GetVertScaleInvertType@CVerticalScale@@QBE_NXZ PROC	; CVerticalScale::GetVertScaleInvertType, COMDAT
; _this$ = ecx

; 230  : 	bool	GetVertScaleInvertType() const								{	return m_bIsVertScaleInvertType;	}

  00000	8a 41 34	 mov	 al, BYTE PTR [ecx+52]
  00003	c3		 ret	 0
?GetVertScaleInvertType@CVerticalScale@@QBE_NXZ ENDP	; CVerticalScale::GetVertScaleInvertType
_TEXT	ENDS
; Function compile flags: /Ogtp
; File D:\git\src\IBK\IBK_DRFN\ProjSrc\SrcChartEx\ChartOCX\Include_Chart\ScaleBaseData.h
;	COMDAT ?GetVertUserHogaScaleType@CVerticalScale@@QBEHXZ
_TEXT	SEGMENT
?GetVertUserHogaScaleType@CVerticalScale@@QBEHXZ PROC	; CVerticalScale::GetVertUserHogaScaleType, COMDAT
; _this$ = ecx

; 226  : 	int			GetVertUserHogaScaleType( void) const						{	return m_nUserHogaType;		}			

  00000	8b 41 48	 mov	 eax, DWORD PTR [ecx+72]
  00003	c3		 ret	 0
?GetVertUserHogaScaleType@CVerticalScale@@QBEHXZ ENDP	; CVerticalScale::GetVertUserHogaScaleType
_TEXT	ENDS
; Function compile flags: /Ogtp
; File D:\git\src\IBK\IBK_DRFN\ProjSrc\SrcChartEx\ChartOCX\Include_Chart\ScaleBaseData.h
;	COMDAT ?GetVertScaleUserNumber@CVerticalScale@@QBENXZ
_TEXT	SEGMENT
?GetVertScaleUserNumber@CVerticalScale@@QBENXZ PROC	; CVerticalScale::GetVertScaleUserNumber, COMDAT
; _this$ = ecx

; 225  : 	double		GetVertScaleUserNumber( void) const						{	return m_dUserNumber;		}			

  00000	dd 41 38	 fld	 QWORD PTR [ecx+56]
  00003	c3		 ret	 0
?GetVertScaleUserNumber@CVerticalScale@@QBENXZ ENDP	; CVerticalScale::GetVertScaleUserNumber
_TEXT	ENDS
; Function compile flags: /Ogtp
; File D:\git\src\IBK\IBK_DRFN\ProjSrc\SrcChartEx\ChartOCX\Include_Chart\ScaleBaseData.h
;	COMDAT ?GetVertScaleHoGaNumber@CVerticalScale@@QBENXZ
_TEXT	SEGMENT
?GetVertScaleHoGaNumber@CVerticalScale@@QBENXZ PROC	; CVerticalScale::GetVertScaleHoGaNumber, COMDAT
; _this$ = ecx

; 224  : 	double		GetVertScaleHoGaNumber( void) const						{	return m_dHogaNumber;		}			

  00000	dd 41 40	 fld	 QWORD PTR [ecx+64]
  00003	c3		 ret	 0
?GetVertScaleHoGaNumber@CVerticalScale@@QBENXZ ENDP	; CVerticalScale::GetVertScaleHoGaNumber
_TEXT	ENDS
; Function compile flags: /Ogtp
; File D:\git\src\IBK\IBK_DRFN\ProjSrc\SrcChartEx\ChartOCX\Include_Chart\ScaleBaseData.h
;	COMDAT ?SetVertUserHogaScaleType@CVerticalScale@@QAEXH@Z
_TEXT	SEGMENT
_p_nUserHogaType$ = 8					; size = 4
?SetVertUserHogaScaleType@CVerticalScale@@QAEXH@Z PROC	; CVerticalScale::SetVertUserHogaScaleType, COMDAT
; _this$ = ecx

; 222  : 	void		SetVertUserHogaScaleType( int p_nUserHogaType)		{	m_nUserHogaType = p_nUserHogaType;	}

  00000	55		 push	 ebp
  00001	8b ec		 mov	 ebp, esp
  00003	8b 45 08	 mov	 eax, DWORD PTR _p_nUserHogaType$[ebp]
  00006	89 41 48	 mov	 DWORD PTR [ecx+72], eax
  00009	5d		 pop	 ebp
  0000a	c2 04 00	 ret	 4
?SetVertUserHogaScaleType@CVerticalScale@@QAEXH@Z ENDP	; CVerticalScale::SetVertUserHogaScaleType
_TEXT	ENDS
; Function compile flags: /Ogtp
; File D:\git\src\IBK\IBK_DRFN\ProjSrc\SrcChartEx\ChartOCX\Include_Chart\ScaleBaseData.h
;	COMDAT ?SetVertScaleUserNumber@CVerticalScale@@QAEXN@Z
_TEXT	SEGMENT
_p_dUserNumber$ = 8					; size = 8
?SetVertScaleUserNumber@CVerticalScale@@QAEXN@Z PROC	; CVerticalScale::SetVertScaleUserNumber, COMDAT
; _this$ = ecx

; 221  : 	void		SetVertScaleUserNumber( double p_dUserNumber)			{	m_dUserNumber = p_dUserNumber;	}

  00000	55		 push	 ebp
  00001	8b ec		 mov	 ebp, esp
  00003	f2 0f 10 45 08	 movsd	 xmm0, QWORD PTR _p_dUserNumber$[ebp]
  00008	f2 0f 11 41 38	 movsd	 QWORD PTR [ecx+56], xmm0
  0000d	5d		 pop	 ebp
  0000e	c2 08 00	 ret	 8
?SetVertScaleUserNumber@CVerticalScale@@QAEXN@Z ENDP	; CVerticalScale::SetVertScaleUserNumber
_TEXT	ENDS
; Function compile flags: /Ogtp
; File D:\git\src\IBK\IBK_DRFN\ProjSrc\SrcChartEx\ChartOCX\Include_Chart\ScaleBaseData.h
;	COMDAT ?SetVertScaleHoGaNumber@CVerticalScale@@QAEXN@Z
_TEXT	SEGMENT
_p_dHogaNumber$ = 8					; size = 8
?SetVertScaleHoGaNumber@CVerticalScale@@QAEXN@Z PROC	; CVerticalScale::SetVertScaleHoGaNumber, COMDAT
; _this$ = ecx

; 220  : 	void		SetVertScaleHoGaNumber( double p_dHogaNumber)			{	m_dHogaNumber = p_dHogaNumber;	}

  00000	55		 push	 ebp
  00001	8b ec		 mov	 ebp, esp
  00003	f2 0f 10 45 08	 movsd	 xmm0, QWORD PTR _p_dHogaNumber$[ebp]
  00008	f2 0f 11 41 40	 movsd	 QWORD PTR [ecx+64], xmm0
  0000d	5d		 pop	 ebp
  0000e	c2 08 00	 ret	 8
?SetVertScaleHoGaNumber@CVerticalScale@@QAEXN@Z ENDP	; CVerticalScale::SetVertScaleHoGaNumber
_TEXT	ENDS
; Function compile flags: /Ogtp
; File D:\git\src\IBK\IBK_DRFN\ProjSrc\SrcChartEx\ChartOCX\Include_Chart\ScaleBaseData.h
;	COMDAT ?SetVertScaleMax@CVerticalScale@@QAEXN@Z
_TEXT	SEGMENT
_p_dMax$ = 8						; size = 8
?SetVertScaleMax@CVerticalScale@@QAEXN@Z PROC		; CVerticalScale::SetVertScaleMax, COMDAT
; _this$ = ecx

; 211  : 	void							SetVertScaleMax( double p_dMax)											{	m_dMax = p_dMax;	}

  00000	55		 push	 ebp
  00001	8b ec		 mov	 ebp, esp
  00003	f2 0f 10 45 08	 movsd	 xmm0, QWORD PTR _p_dMax$[ebp]
  00008	f2 0f 11 41 28	 movsd	 QWORD PTR [ecx+40], xmm0
  0000d	5d		 pop	 ebp
  0000e	c2 08 00	 ret	 8
?SetVertScaleMax@CVerticalScale@@QAEXN@Z ENDP		; CVerticalScale::SetVertScaleMax
_TEXT	ENDS
; Function compile flags: /Ogtp
; File D:\git\src\IBK\IBK_DRFN\ProjSrc\SrcChartEx\ChartOCX\Include_Chart\ScaleBaseData.h
;	COMDAT ?GetVertScaleMax@CVerticalScale@@QBENXZ
_TEXT	SEGMENT
?GetVertScaleMax@CVerticalScale@@QBENXZ PROC		; CVerticalScale::GetVertScaleMax, COMDAT
; _this$ = ecx

; 210  : 	double							GetVertScaleMax( void) const											{	return m_dMax;		}

  00000	dd 41 28	 fld	 QWORD PTR [ecx+40]
  00003	c3		 ret	 0
?GetVertScaleMax@CVerticalScale@@QBENXZ ENDP		; CVerticalScale::GetVertScaleMax
_TEXT	ENDS
; Function compile flags: /Ogtp
; File D:\git\src\IBK\IBK_DRFN\ProjSrc\SrcChartEx\ChartOCX\Include_Chart\ScaleBaseData.h
;	COMDAT ?SetVertScaleMin@CVerticalScale@@QAEXN@Z
_TEXT	SEGMENT
_p_dMin$ = 8						; size = 8
?SetVertScaleMin@CVerticalScale@@QAEXN@Z PROC		; CVerticalScale::SetVertScaleMin, COMDAT
; _this$ = ecx

; 208  : 	void							SetVertScaleMin( double p_dMin)											{	m_dMin = p_dMin;	}

  00000	55		 push	 ebp
  00001	8b ec		 mov	 ebp, esp
  00003	f2 0f 10 45 08	 movsd	 xmm0, QWORD PTR _p_dMin$[ebp]
  00008	f2 0f 11 41 20	 movsd	 QWORD PTR [ecx+32], xmm0
  0000d	5d		 pop	 ebp
  0000e	c2 08 00	 ret	 8
?SetVertScaleMin@CVerticalScale@@QAEXN@Z ENDP		; CVerticalScale::SetVertScaleMin
_TEXT	ENDS
; Function compile flags: /Ogtp
; File D:\git\src\IBK\IBK_DRFN\ProjSrc\SrcChartEx\ChartOCX\Include_Chart\ScaleBaseData.h
;	COMDAT ?GetVertScaleMin@CVerticalScale@@QBENXZ
_TEXT	SEGMENT
?GetVertScaleMin@CVerticalScale@@QBENXZ PROC		; CVerticalScale::GetVertScaleMin, COMDAT
; _this$ = ecx

; 207  : 	double							GetVertScaleMin( void) const											{	return m_dMin;		}			

  00000	dd 41 20	 fld	 QWORD PTR [ecx+32]
  00003	c3		 ret	 0
?GetVertScaleMin@CVerticalScale@@QBENXZ ENDP		; CVerticalScale::GetVertScaleMin
_TEXT	ENDS
; Function compile flags: /Ogtp
; File D:\git\src\IBK\IBK_DRFN\ProjSrc\SrcChartEx\ChartOCX\Include_Chart\ScaleBaseData.h
;	COMDAT ?SetVertScaleMinMaxType@CVerticalScale@@QAEXW4VERTMINMAXTYPE@CScaleBaseData@@@Z
_TEXT	SEGMENT
_p_eMinMaxType$ = 8					; size = 4
?SetVertScaleMinMaxType@CVerticalScale@@QAEXW4VERTMINMAXTYPE@CScaleBaseData@@@Z PROC ; CVerticalScale::SetVertScaleMinMaxType, COMDAT
; _this$ = ecx

; 205  : 	void							SetVertScaleMinMaxType( CScaleBaseData::VERTMINMAXTYPE p_eMinMaxType) 	{	m_eMinMaxType = p_eMinMaxType;	}

  00000	55		 push	 ebp
  00001	8b ec		 mov	 ebp, esp
  00003	8b 45 08	 mov	 eax, DWORD PTR _p_eMinMaxType$[ebp]
  00006	89 41 18	 mov	 DWORD PTR [ecx+24], eax
  00009	5d		 pop	 ebp
  0000a	c2 04 00	 ret	 4
?SetVertScaleMinMaxType@CVerticalScale@@QAEXW4VERTMINMAXTYPE@CScaleBaseData@@@Z ENDP ; CVerticalScale::SetVertScaleMinMaxType
_TEXT	ENDS
; Function compile flags: /Ogtp
; File D:\git\src\IBK\IBK_DRFN\ProjSrc\SrcChartEx\ChartOCX\Include_Chart\ScaleBaseData.h
;	COMDAT ?GetVertScaleMinMaxType@CVerticalScale@@QBE?AW4VERTMINMAXTYPE@CScaleBaseData@@XZ
_TEXT	SEGMENT
?GetVertScaleMinMaxType@CVerticalScale@@QBE?AW4VERTMINMAXTYPE@CScaleBaseData@@XZ PROC ; CVerticalScale::GetVertScaleMinMaxType, COMDAT
; _this$ = ecx

; 204  : 	CScaleBaseData::VERTMINMAXTYPE	GetVertScaleMinMaxType( void) const										{	return m_eMinMaxType;			}

  00000	8b 41 18	 mov	 eax, DWORD PTR [ecx+24]
  00003	c3		 ret	 0
?GetVertScaleMinMaxType@CVerticalScale@@QBE?AW4VERTMINMAXTYPE@CScaleBaseData@@XZ ENDP ; CVerticalScale::GetVertScaleMinMaxType
_TEXT	ENDS
; Function compile flags: /Ogtp
; File D:\git\src\IBK\IBK_DRFN\ProjSrc\SrcChartEx\ChartOCX\Include_Chart\ScaleBaseData.h
;	COMDAT ?SetVertScaleMinMaxLock@CVerticalScale@@QAEXH@Z
_TEXT	SEGMENT
_p_bMinMaxLock$ = 8					; size = 4
?SetVertScaleMinMaxLock@CVerticalScale@@QAEXH@Z PROC	; CVerticalScale::SetVertScaleMinMaxLock, COMDAT
; _this$ = ecx

; 202  : 	void							SetVertScaleMinMaxLock( BOOL p_bMinMaxLock)								{	m_bMinMaxLock = p_bMinMaxLock;	}

  00000	55		 push	 ebp
  00001	8b ec		 mov	 ebp, esp
  00003	8b 45 08	 mov	 eax, DWORD PTR _p_bMinMaxLock$[ebp]
  00006	89 41 14	 mov	 DWORD PTR [ecx+20], eax
  00009	5d		 pop	 ebp
  0000a	c2 04 00	 ret	 4
?SetVertScaleMinMaxLock@CVerticalScale@@QAEXH@Z ENDP	; CVerticalScale::SetVertScaleMinMaxLock
_TEXT	ENDS
; Function compile flags: /Ogtp
; File D:\git\src\IBK\IBK_DRFN\ProjSrc\SrcChartEx\ChartOCX\Include_Chart\ScaleBaseData.h
;	COMDAT ?IsVertScaleMinMaxLock@CVerticalScale@@QBEHXZ
_TEXT	SEGMENT
?IsVertScaleMinMaxLock@CVerticalScale@@QBEHXZ PROC	; CVerticalScale::IsVertScaleMinMaxLock, COMDAT
; _this$ = ecx

; 201  : 	BOOL							IsVertScaleMinMaxLock( void) const										{	return m_bMinMaxLock;			}

  00000	8b 41 14	 mov	 eax, DWORD PTR [ecx+20]
  00003	c3		 ret	 0
?IsVertScaleMinMaxLock@CVerticalScale@@QBEHXZ ENDP	; CVerticalScale::IsVertScaleMinMaxLock
_TEXT	ENDS
; Function compile flags: /Ogtp
;	COMDAT ??0CHorizontalScale@@QAE@ABV0@@Z
_TEXT	SEGMENT
_this$ = -16						; size = 4
__$EHRec$ = -12						; size = 12
_this$ = 8						; size = 4
___that$ = 8						; size = 4
??0CHorizontalScale@@QAE@ABV0@@Z PROC			; CHorizontalScale::CHorizontalScale, COMDAT
; _this$ = ecx
  00000	55		 push	 ebp
  00001	8b ec		 mov	 ebp, esp
  00003	6a ff		 push	 -1
  00005	68 00 00 00 00	 push	 __ehhandler$??0CHorizontalScale@@QAE@ABV0@@Z
  0000a	64 a1 00 00 00
	00		 mov	 eax, DWORD PTR fs:0
  00010	50		 push	 eax
  00011	51		 push	 ecx
  00012	53		 push	 ebx
  00013	56		 push	 esi
  00014	57		 push	 edi
  00015	a1 00 00 00 00	 mov	 eax, DWORD PTR ___security_cookie
  0001a	33 c5		 xor	 eax, ebp
  0001c	50		 push	 eax
  0001d	8d 45 f4	 lea	 eax, DWORD PTR __$EHRec$[ebp]
  00020	64 a3 00 00 00
	00		 mov	 DWORD PTR fs:0, eax
  00026	8b f1		 mov	 esi, ecx
  00028	89 75 f0	 mov	 DWORD PTR _this$[ebp], esi
  0002b	8b 5d 08	 mov	 ebx, DWORD PTR ___that$[ebp]
  0002e	8d 4e 04	 lea	 ecx, DWORD PTR [esi+4]
  00031	c7 06 00 00 00
	00		 mov	 DWORD PTR [esi], OFFSET ??_7CScale@@6B@
  00037	8d 43 04	 lea	 eax, DWORD PTR [ebx+4]
  0003a	50		 push	 eax
  0003b	ff 15 00 00 00
	00		 call	 DWORD PTR __imp_??0?$CStringT@DV?$StrTraitMFC_DLL@DV?$ChTraitsCRT@D@ATL@@@@@ATL@@QAE@ABV01@@Z
  00041	8b 43 08	 mov	 eax, DWORD PTR [ebx+8]
  00044	89 46 08	 mov	 DWORD PTR [esi+8], eax
  00047	c7 06 00 00 00
	00		 mov	 DWORD PTR [esi], OFFSET ??_7CHorizontalScale@@6B@
  0004d	8d 7b 10	 lea	 edi, DWORD PTR [ebx+16]
  00050	8b 43 0c	 mov	 eax, DWORD PTR [ebx+12]
  00053	89 46 0c	 mov	 DWORD PTR [esi+12], eax
  00056	83 c6 10	 add	 esi, 16			; 00000010H
  00059	57		 push	 edi
  0005a	8b ce		 mov	 ecx, esi
  0005c	c7 45 fc 00 00
	00 00		 mov	 DWORD PTR __$EHRec$[ebp+8], 0
  00063	89 75 08	 mov	 DWORD PTR _this$[ebp], esi
  00066	ff 15 00 00 00
	00		 call	 DWORD PTR __imp_??0?$CStringT@DV?$StrTraitMFC_DLL@DV?$ChTraitsCRT@D@ATL@@@@@ATL@@QAE@ABV01@@Z
  0006c	8d 47 04	 lea	 eax, DWORD PTR [edi+4]
  0006f	c6 45 fc 01	 mov	 BYTE PTR __$EHRec$[ebp+8], 1
  00073	50		 push	 eax
  00074	8d 4e 04	 lea	 ecx, DWORD PTR [esi+4]
  00077	ff 15 00 00 00
	00		 call	 DWORD PTR __imp_??0?$CStringT@DV?$StrTraitMFC_DLL@DV?$ChTraitsCRT@D@ATL@@@@@ATL@@QAE@ABV01@@Z
  0007d	8b 4d f0	 mov	 ecx, DWORD PTR _this$[ebp]
  00080	8b 47 08	 mov	 eax, DWORD PTR [edi+8]
  00083	89 46 08	 mov	 DWORD PTR [esi+8], eax
  00086	8b 43 1c	 mov	 eax, DWORD PTR [ebx+28]
  00089	89 41 1c	 mov	 DWORD PTR [ecx+28], eax
  0008c	8b 43 20	 mov	 eax, DWORD PTR [ebx+32]
  0008f	89 41 20	 mov	 DWORD PTR [ecx+32], eax
  00092	8b 43 24	 mov	 eax, DWORD PTR [ebx+36]
  00095	89 41 24	 mov	 DWORD PTR [ecx+36], eax
  00098	8b 43 28	 mov	 eax, DWORD PTR [ebx+40]
  0009b	89 41 28	 mov	 DWORD PTR [ecx+40], eax
  0009e	8b 43 2c	 mov	 eax, DWORD PTR [ebx+44]
  000a1	89 41 2c	 mov	 DWORD PTR [ecx+44], eax
  000a4	8b 43 30	 mov	 eax, DWORD PTR [ebx+48]
  000a7	89 41 30	 mov	 DWORD PTR [ecx+48], eax
  000aa	8b 43 34	 mov	 eax, DWORD PTR [ebx+52]
  000ad	89 41 34	 mov	 DWORD PTR [ecx+52], eax
  000b0	8b 43 38	 mov	 eax, DWORD PTR [ebx+56]
  000b3	89 41 38	 mov	 DWORD PTR [ecx+56], eax
  000b6	8b 43 3c	 mov	 eax, DWORD PTR [ebx+60]
  000b9	89 41 3c	 mov	 DWORD PTR [ecx+60], eax
  000bc	8b 43 40	 mov	 eax, DWORD PTR [ebx+64]
  000bf	89 41 40	 mov	 DWORD PTR [ecx+64], eax
  000c2	8b 43 44	 mov	 eax, DWORD PTR [ebx+68]
  000c5	89 41 44	 mov	 DWORD PTR [ecx+68], eax
  000c8	8b 43 48	 mov	 eax, DWORD PTR [ebx+72]
  000cb	89 41 48	 mov	 DWORD PTR [ecx+72], eax
  000ce	0f b7 43 4c	 movzx	 eax, WORD PTR [ebx+76]
  000d2	66 89 41 4c	 mov	 WORD PTR [ecx+76], ax
  000d6	0f b7 43 4e	 movzx	 eax, WORD PTR [ebx+78]
  000da	66 89 41 4e	 mov	 WORD PTR [ecx+78], ax
  000de	0f b7 43 50	 movzx	 eax, WORD PTR [ebx+80]
  000e2	66 89 41 50	 mov	 WORD PTR [ecx+80], ax
  000e6	0f b7 43 52	 movzx	 eax, WORD PTR [ebx+82]
  000ea	66 89 41 52	 mov	 WORD PTR [ecx+82], ax
  000ee	8b 43 54	 mov	 eax, DWORD PTR [ebx+84]
  000f1	89 41 54	 mov	 DWORD PTR [ecx+84], eax
  000f4	8b 43 58	 mov	 eax, DWORD PTR [ebx+88]
  000f7	89 41 58	 mov	 DWORD PTR [ecx+88], eax
  000fa	8b 43 5c	 mov	 eax, DWORD PTR [ebx+92]
  000fd	89 41 5c	 mov	 DWORD PTR [ecx+92], eax
  00100	8b 43 60	 mov	 eax, DWORD PTR [ebx+96]
  00103	89 41 60	 mov	 DWORD PTR [ecx+96], eax
  00106	8b c1		 mov	 eax, ecx
  00108	8b 4d f4	 mov	 ecx, DWORD PTR __$EHRec$[ebp]
  0010b	64 89 0d 00 00
	00 00		 mov	 DWORD PTR fs:0, ecx
  00112	59		 pop	 ecx
  00113	5f		 pop	 edi
  00114	5e		 pop	 esi
  00115	5b		 pop	 ebx
  00116	8b e5		 mov	 esp, ebp
  00118	5d		 pop	 ebp
  00119	c2 04 00	 ret	 4
_TEXT	ENDS
;	COMDAT text$x
text$x	SEGMENT
__unwindfunclet$??0CHorizontalScale@@QAE@ABV0@@Z$0:
  00000	8b 4d f0	 mov	 ecx, DWORD PTR _this$[ebp]
  00003	e9 00 00 00 00	 jmp	 ??1CScale@@QAE@XZ
__unwindfunclet$??0CHorizontalScale@@QAE@ABV0@@Z$3:
  00008	8b 4d 08	 mov	 ecx, DWORD PTR _this$[ebp]
  0000b	ff 25 00 00 00
	00		 jmp	 DWORD PTR __imp_??1?$CStringT@DV?$StrTraitMFC_DLL@DV?$ChTraitsCRT@D@ATL@@@@@ATL@@QAE@XZ
  00011	cc		 int	 3
  00012	cc		 int	 3
  00013	cc		 int	 3
  00014	cc		 int	 3
  00015	cc		 int	 3
__ehhandler$??0CHorizontalScale@@QAE@ABV0@@Z:
  00016	90		 npad	 1
  00017	90		 npad	 1
  00018	8b 54 24 08	 mov	 edx, DWORD PTR [esp+8]
  0001c	8d 42 0c	 lea	 eax, DWORD PTR [edx+12]
  0001f	8b 4a ec	 mov	 ecx, DWORD PTR [edx-20]
  00022	33 c8		 xor	 ecx, eax
  00024	e8 00 00 00 00	 call	 @__security_check_cookie@4
  00029	b8 00 00 00 00	 mov	 eax, OFFSET __ehfuncinfo$??0CHorizontalScale@@QAE@ABV0@@Z
  0002e	e9 00 00 00 00	 jmp	 ___CxxFrameHandler3
text$x	ENDS
??0CHorizontalScale@@QAE@ABV0@@Z ENDP			; CHorizontalScale::CHorizontalScale
; Function compile flags: /Ogtp
;	COMDAT ??1CHorizontalScale@@QAE@XZ
_TEXT	SEGMENT
??1CHorizontalScale@@QAE@XZ PROC			; CHorizontalScale::~CHorizontalScale, COMDAT
; _this$ = ecx
  00000	56		 push	 esi
  00001	57		 push	 edi
  00002	8b f9		 mov	 edi, ecx
  00004	8d 4f 14	 lea	 ecx, DWORD PTR [edi+20]
  00007	ff 15 00 00 00
	00		 call	 DWORD PTR __imp_??1?$CStringT@DV?$StrTraitMFC_DLL@DV?$ChTraitsCRT@D@ATL@@@@@ATL@@QAE@XZ
  0000d	8d 4f 10	 lea	 ecx, DWORD PTR [edi+16]
  00010	ff 15 00 00 00
	00		 call	 DWORD PTR __imp_??1?$CStringT@DV?$StrTraitMFC_DLL@DV?$ChTraitsCRT@D@ATL@@@@@ATL@@QAE@XZ
  00016	8d 4f 04	 lea	 ecx, DWORD PTR [edi+4]
  00019	5f		 pop	 edi
  0001a	5e		 pop	 esi
  0001b	ff 25 00 00 00
	00		 jmp	 DWORD PTR __imp_??1?$CStringT@DV?$StrTraitMFC_DLL@DV?$ChTraitsCRT@D@ATL@@@@@ATL@@QAE@XZ
??1CHorizontalScale@@QAE@XZ ENDP			; CHorizontalScale::~CHorizontalScale
_TEXT	ENDS
; Function compile flags: /Ogtp
;	COMDAT ??0CScale@@QAE@ABV0@@Z
_TEXT	SEGMENT
_this$ = -4						; size = 4
___that$ = 8						; size = 4
??0CScale@@QAE@ABV0@@Z PROC				; CScale::CScale, COMDAT
; _this$ = ecx
  00000	55		 push	 ebp
  00001	8b ec		 mov	 ebp, esp
  00003	51		 push	 ecx
  00004	56		 push	 esi
  00005	8b 75 08	 mov	 esi, DWORD PTR ___that$[ebp]
  00008	57		 push	 edi
  00009	8b f9		 mov	 edi, ecx
  0000b	89 7d fc	 mov	 DWORD PTR _this$[ebp], edi
  0000e	8d 46 04	 lea	 eax, DWORD PTR [esi+4]
  00011	50		 push	 eax
  00012	8d 4f 04	 lea	 ecx, DWORD PTR [edi+4]
  00015	c7 07 00 00 00
	00		 mov	 DWORD PTR [edi], OFFSET ??_7CScale@@6B@
  0001b	ff 15 00 00 00
	00		 call	 DWORD PTR __imp_??0?$CStringT@DV?$StrTraitMFC_DLL@DV?$ChTraitsCRT@D@ATL@@@@@ATL@@QAE@ABV01@@Z
  00021	8b 46 08	 mov	 eax, DWORD PTR [esi+8]
  00024	89 47 08	 mov	 DWORD PTR [edi+8], eax
  00027	8b c7		 mov	 eax, edi
  00029	5f		 pop	 edi
  0002a	5e		 pop	 esi
  0002b	8b e5		 mov	 esp, ebp
  0002d	5d		 pop	 ebp
  0002e	c2 04 00	 ret	 4
??0CScale@@QAE@ABV0@@Z ENDP				; CScale::CScale
_TEXT	ENDS
; Function compile flags: /Ogtp
;	COMDAT ??1CScale@@QAE@XZ
_TEXT	SEGMENT
??1CScale@@QAE@XZ PROC					; CScale::~CScale, COMDAT
; _this$ = ecx
  00000	83 c1 04	 add	 ecx, 4
  00003	ff 25 00 00 00
	00		 jmp	 DWORD PTR __imp_??1?$CStringT@DV?$StrTraitMFC_DLL@DV?$ChTraitsCRT@D@ATL@@@@@ATL@@QAE@XZ
??1CScale@@QAE@XZ ENDP					; CScale::~CScale
_TEXT	ENDS
; Function compile flags: /Ogtp
;	COMDAT ??0CScaleCompart@@QAE@ABV0@@Z
_TEXT	SEGMENT
_this$ = -16						; size = 4
__$EHRec$ = -12						; size = 12
___that$ = 8						; size = 4
??0CScaleCompart@@QAE@ABV0@@Z PROC			; CScaleCompart::CScaleCompart, COMDAT
; _this$ = ecx
  00000	55		 push	 ebp
  00001	8b ec		 mov	 ebp, esp
  00003	6a ff		 push	 -1
  00005	68 00 00 00 00	 push	 __ehhandler$??0CScaleCompart@@QAE@ABV0@@Z
  0000a	64 a1 00 00 00
	00		 mov	 eax, DWORD PTR fs:0
  00010	50		 push	 eax
  00011	51		 push	 ecx
  00012	56		 push	 esi
  00013	57		 push	 edi
  00014	a1 00 00 00 00	 mov	 eax, DWORD PTR ___security_cookie
  00019	33 c5		 xor	 eax, ebp
  0001b	50		 push	 eax
  0001c	8d 45 f4	 lea	 eax, DWORD PTR __$EHRec$[ebp]
  0001f	64 a3 00 00 00
	00		 mov	 DWORD PTR fs:0, eax
  00025	8b f9		 mov	 edi, ecx
  00027	89 7d f0	 mov	 DWORD PTR _this$[ebp], edi
  0002a	8b 75 08	 mov	 esi, DWORD PTR ___that$[ebp]
  0002d	56		 push	 esi
  0002e	ff 15 00 00 00
	00		 call	 DWORD PTR __imp_??0?$CStringT@DV?$StrTraitMFC_DLL@DV?$ChTraitsCRT@D@ATL@@@@@ATL@@QAE@ABV01@@Z
  00034	8d 46 04	 lea	 eax, DWORD PTR [esi+4]
  00037	c7 45 fc 00 00
	00 00		 mov	 DWORD PTR __$EHRec$[ebp+8], 0
  0003e	50		 push	 eax
  0003f	8d 4f 04	 lea	 ecx, DWORD PTR [edi+4]
  00042	ff 15 00 00 00
	00		 call	 DWORD PTR __imp_??0?$CStringT@DV?$StrTraitMFC_DLL@DV?$ChTraitsCRT@D@ATL@@@@@ATL@@QAE@ABV01@@Z
  00048	8b 46 08	 mov	 eax, DWORD PTR [esi+8]
  0004b	89 47 08	 mov	 DWORD PTR [edi+8], eax
  0004e	8b c7		 mov	 eax, edi
  00050	8b 4d f4	 mov	 ecx, DWORD PTR __$EHRec$[ebp]
  00053	64 89 0d 00 00
	00 00		 mov	 DWORD PTR fs:0, ecx
  0005a	59		 pop	 ecx
  0005b	5f		 pop	 edi
  0005c	5e		 pop	 esi
  0005d	8b e5		 mov	 esp, ebp
  0005f	5d		 pop	 ebp
  00060	c2 04 00	 ret	 4
_TEXT	ENDS
;	COMDAT text$x
text$x	SEGMENT
__unwindfunclet$??0CScaleCompart@@QAE@ABV0@@Z$0:
  00000	8b 4d f0	 mov	 ecx, DWORD PTR _this$[ebp]
  00003	ff 25 00 00 00
	00		 jmp	 DWORD PTR __imp_??1?$CStringT@DV?$StrTraitMFC_DLL@DV?$ChTraitsCRT@D@ATL@@@@@ATL@@QAE@XZ
  00009	cc		 int	 3
  0000a	cc		 int	 3
  0000b	cc		 int	 3
  0000c	cc		 int	 3
  0000d	cc		 int	 3
__ehhandler$??0CScaleCompart@@QAE@ABV0@@Z:
  0000e	90		 npad	 1
  0000f	90		 npad	 1
  00010	8b 54 24 08	 mov	 edx, DWORD PTR [esp+8]
  00014	8d 42 0c	 lea	 eax, DWORD PTR [edx+12]
  00017	8b 4a f0	 mov	 ecx, DWORD PTR [edx-16]
  0001a	33 c8		 xor	 ecx, eax
  0001c	e8 00 00 00 00	 call	 @__security_check_cookie@4
  00021	b8 00 00 00 00	 mov	 eax, OFFSET __ehfuncinfo$??0CScaleCompart@@QAE@ABV0@@Z
  00026	e9 00 00 00 00	 jmp	 ___CxxFrameHandler3
text$x	ENDS
??0CScaleCompart@@QAE@ABV0@@Z ENDP			; CScaleCompart::CScaleCompart
; Function compile flags: /Ogtp
;	COMDAT ??1CScaleCompart@@QAE@XZ
_TEXT	SEGMENT
??1CScaleCompart@@QAE@XZ PROC				; CScaleCompart::~CScaleCompart, COMDAT
; _this$ = ecx
  00000	56		 push	 esi
  00001	8b f1		 mov	 esi, ecx
  00003	8d 4e 04	 lea	 ecx, DWORD PTR [esi+4]
  00006	ff 15 00 00 00
	00		 call	 DWORD PTR __imp_??1?$CStringT@DV?$StrTraitMFC_DLL@DV?$ChTraitsCRT@D@ATL@@@@@ATL@@QAE@XZ
  0000c	8b ce		 mov	 ecx, esi
  0000e	5e		 pop	 esi
  0000f	ff 25 00 00 00
	00		 jmp	 DWORD PTR __imp_??1?$CStringT@DV?$StrTraitMFC_DLL@DV?$ChTraitsCRT@D@ATL@@@@@ATL@@QAE@XZ
??1CScaleCompart@@QAE@XZ ENDP				; CScaleCompart::~CScaleCompart
_TEXT	ENDS
; Function compile flags: /Ogtp
; File D:\git\src\IBK\IBK_DRFN\ProjSrc\SrcChartEx\ChartOCX\ScaleDraw\DataHorzScaleDrawer.cpp
;	COMDAT ?IsTopPostiont@CMarketProfileHorzScaleDrawer@@ABE_NW4HORZSCALEPOSITION@CScaleBaseData@@_N@Z
_TEXT	SEGMENT
_eHorzScalePos$ = 8					; size = 4
_bIsScaleRegion1$ = 12					; size = 1
?IsTopPostiont@CMarketProfileHorzScaleDrawer@@ABE_NW4HORZSCALEPOSITION@CScaleBaseData@@_N@Z PROC ; CMarketProfileHorzScaleDrawer::IsTopPostiont, COMDAT
; _this$ = ecx

; 563  : {

  00000	55		 push	 ebp
  00001	8b ec		 mov	 ebp, esp

; 564  : 	if(eHorzScalePos == CScaleBaseData::HORZ_BOTTOM){

  00003	83 7d 08 01	 cmp	 DWORD PTR _eHorzScalePos$[ebp], 1
  00007	8a 45 0c	 mov	 al, BYTE PTR _bIsScaleRegion1$[ebp]
  0000a	75 02		 jne	 SHORT $LN1@IsTopPosti

; 565  : 		return !bIsScaleRegion1;

  0000c	34 01		 xor	 al, 1
$LN1@IsTopPosti:

; 566  : 	}
; 567  : 
; 568  : 	return bIsScaleRegion1;
; 569  : }

  0000e	5d		 pop	 ebp
  0000f	c2 08 00	 ret	 8
?IsTopPostiont@CMarketProfileHorzScaleDrawer@@ABE_NW4HORZSCALEPOSITION@CScaleBaseData@@_N@Z ENDP ; CMarketProfileHorzScaleDrawer::IsTopPostiont
_TEXT	ENDS
; Function compile flags: /Ogtp
; File D:\git\src\IBK\IBK_DRFN\ProjSrc\SrcChartEx\ChartOCX\ScaleDraw\DataHorzScaleDrawer.cpp
;	COMDAT ?IsDrawText@CMarketProfileHorzScaleDrawer@@ABE_NW4HORZSCALEPOSITION@CScaleBaseData@@HH@Z
_TEXT	SEGMENT
_eHorzScalePos$ = 8					; size = 4
_nPre_textEndPos$ = 12					; size = 4
_nPosPt_x$ = 16						; size = 4
?IsDrawText@CMarketProfileHorzScaleDrawer@@ABE_NW4HORZSCALEPOSITION@CScaleBaseData@@HH@Z PROC ; CMarketProfileHorzScaleDrawer::IsDrawText, COMDAT
; _this$ = ecx

; 555  : {

  00000	55		 push	 ebp
  00001	8b ec		 mov	 ebp, esp

; 556  : 	if(eHorzScalePos == CScaleBaseData::HORZ_HIDE)

  00003	83 7d 08 03	 cmp	 DWORD PTR _eHorzScalePos$[ebp], 3
  00007	75 06		 jne	 SHORT $LN2@IsDrawText

; 557  : 		return false;

  00009	32 c0		 xor	 al, al

; 560  : }

  0000b	5d		 pop	 ebp
  0000c	c2 0c 00	 ret	 12			; 0000000cH
$LN2@IsDrawText:

; 558  : 
; 559  : 	return (nPre_textEndPos < nPosPt_x);

  0000f	8b 45 0c	 mov	 eax, DWORD PTR _nPre_textEndPos$[ebp]
  00012	3b 45 10	 cmp	 eax, DWORD PTR _nPosPt_x$[ebp]
  00015	0f 9c c0	 setl	 al

; 560  : }

  00018	5d		 pop	 ebp
  00019	c2 0c 00	 ret	 12			; 0000000cH
?IsDrawText@CMarketProfileHorzScaleDrawer@@ABE_NW4HORZSCALEPOSITION@CScaleBaseData@@HH@Z ENDP ; CMarketProfileHorzScaleDrawer::IsDrawText
_TEXT	ENDS
; Function compile flags: /Ogtp
; File D:\git\src\IBK\IBK_DRFN\ProjSrc\SrcChartEx\ChartOCX\ScaleDraw\DataHorzScaleDrawer.cpp
; File D:\git\src\IBK\IBK_DRFN\ProjSrc\SrcChartEx\ChartOCX\Include_Chart\Dll_Load\PacketBase.h
; File D:\git\src\IBK\IBK_DRFN\ProjSrc\SrcChartEx\ChartOCX\ScaleDraw\DataHorzScaleDrawer.cpp
;	COMDAT ?GetEnvironmentData@CMarketProfileHorzScaleDrawer@@ABE_NPAVCMPPacket@@ABVCRect@@1HAAPAV?$CList@PAVCMProfile@@PAV1@@@AANAAH4@Z
_TEXT	SEGMENT
$T1 = -8						; size = 8
_pMPPacket$ = 8						; size = 4
_scaleRegion1$ = 12					; size = 4
_scaleRegion2$ = 16					; size = 4
_nSize_Y$ = 20						; size = 4
_pMProfileList$ = 24					; size = 4
_dOnePtWidth$ = 28					; size = 4
_nPosPt_y1$ = 32					; size = 4
_nPosPt_y2$ = 36					; size = 4
?GetEnvironmentData@CMarketProfileHorzScaleDrawer@@ABE_NPAVCMPPacket@@ABVCRect@@1HAAPAV?$CList@PAVCMProfile@@PAV1@@@AANAAH4@Z PROC ; CMarketProfileHorzScaleDrawer::GetEnvironmentData, COMDAT
; _this$ = ecx

; 539  : {

  00000	55		 push	 ebp
  00001	8b ec		 mov	 ebp, esp

; 540  : 	if(pMPPacket == NULL)

  00003	8b 55 08	 mov	 edx, DWORD PTR _pMPPacket$[ebp]
  00006	83 ec 08	 sub	 esp, 8
  00009	57		 push	 edi
  0000a	8b f9		 mov	 edi, ecx
  0000c	85 d2		 test	 edx, edx
  0000e	74 50		 je	 SHORT $LN4@GetEnviron

; 543  : 	pMProfileList = pMPPacket->GetMarketProfileList();

  00010	8b 45 18	 mov	 eax, DWORD PTR _pMProfileList$[ebp]
; File D:\git\src\IBK\IBK_DRFN\ProjSrc\SrcChartEx\ChartOCX\Include_Chart\Dll_Load\PacketBase.h

; 349  : 	CList< CMProfile*, CMProfile*>* GetMarketProfileList() { return &m_listMarketProfile; }

  00013	83 c2 08	 add	 edx, 8
; File D:\git\src\IBK\IBK_DRFN\ProjSrc\SrcChartEx\ChartOCX\ScaleDraw\DataHorzScaleDrawer.cpp

; 543  : 	pMProfileList = pMPPacket->GetMarketProfileList();

  00016	89 10		 mov	 DWORD PTR [eax], edx

; 544  : 	if(pMProfileList == NULL || pMProfileList->GetCount() <= 0)

  00018	74 46		 je	 SHORT $LN4@GetEnviron
  0001a	8b 42 0c	 mov	 eax, DWORD PTR [edx+12]
  0001d	85 c0		 test	 eax, eax
  0001f	7e 3f		 jle	 SHORT $LN4@GetEnviron

; 546  : 
; 547  : 	CHorzScaleDrawer::GetDrawingEnvironment(scaleRegion1, scaleRegion2, 

  00021	56		 push	 esi
  00022	ff 75 24	 push	 DWORD PTR _nPosPt_y2$[ebp]
  00025	8b 75 1c	 mov	 esi, DWORD PTR _dOnePtWidth$[ebp]
  00028	8d 4d f8	 lea	 ecx, DWORD PTR $T1[ebp]
  0002b	ff 75 20	 push	 DWORD PTR _nPosPt_y1$[ebp]
  0002e	48		 dec	 eax
  0002f	56		 push	 esi
  00030	ff 75 14	 push	 DWORD PTR _nSize_Y$[ebp]
  00033	50		 push	 eax
  00034	6a 00		 push	 0
  00036	e8 00 00 00 00	 call	 ??0CDisplayAttributes@@QAE@HH@Z ; CDisplayAttributes::CDisplayAttributes
  0003b	50		 push	 eax
  0003c	ff 75 10	 push	 DWORD PTR _scaleRegion2$[ebp]
  0003f	8b cf		 mov	 ecx, edi
  00041	ff 75 0c	 push	 DWORD PTR _scaleRegion1$[ebp]
  00044	e8 00 00 00 00	 call	 ?GetDrawingEnvironment@CHorzScaleDrawer@@IBEXABVCRect@@0ABVCDisplayAttributes@@HAANAAH3@Z ; CHorzScaleDrawer::GetDrawingEnvironment

; 548  : 		CDisplayAttributes(0, pMProfileList->GetCount() -1), 
; 549  : 		nSize_Y, dOnePtWidth, nPosPt_y1, nPosPt_y2);
; 550  : 
; 551  : 	return (dOnePtWidth > 0 ? true: false);

  00049	f2 0f 10 06	 movsd	 xmm0, QWORD PTR [esi]
  0004d	66 0f 2f 05 00
	00 00 00	 comisd	 xmm0, QWORD PTR __real@0000000000000000
  00055	5e		 pop	 esi
  00056	5f		 pop	 edi
  00057	0f 97 c0	 seta	 al

; 552  : }

  0005a	8b e5		 mov	 esp, ebp
  0005c	5d		 pop	 ebp
  0005d	c2 20 00	 ret	 32			; 00000020H
$LN4@GetEnviron:

; 545  : 		return false;

  00060	32 c0		 xor	 al, al
  00062	5f		 pop	 edi

; 552  : }

  00063	8b e5		 mov	 esp, ebp
  00065	5d		 pop	 ebp
  00066	c2 20 00	 ret	 32			; 00000020H
?GetEnvironmentData@CMarketProfileHorzScaleDrawer@@ABE_NPAVCMPPacket@@ABVCRect@@1HAAPAV?$CList@PAVCMProfile@@PAV1@@@AANAAH4@Z ENDP ; CMarketProfileHorzScaleDrawer::GetEnvironmentData
_TEXT	ENDS
; Function compile flags: /Ogtp
; File D:\git\src\IBK\IBK_DRFN\ProjSrc\SrcChartEx\ChartOCX\ScaleDraw\DataHorzScaleDrawer.cpp
; File C:\Program Files (x86)\Microsoft Visual Studio\2019\Community\VC\Tools\MSVC\14.29.30133\atlmfc\include\atltypes.h
; File D:\git\src\IBK\IBK_DRFN\ProjSrc\SrcChartEx\ChartOCX\ScaleDraw\DataHorzScaleDrawer.cpp
; File C:\Program Files (x86)\Microsoft Visual Studio\2019\Community\VC\Tools\MSVC\14.29.30133\atlmfc\include\atltypes.h
; File D:\git\src\IBK\IBK_DRFN\ProjSrc\SrcChartEx\ChartOCX\ScaleDraw\DataHorzScaleDrawer.cpp
; File C:\Program Files (x86)\Microsoft Visual Studio\2019\Community\VC\Tools\MSVC\14.29.30133\atlmfc\include\afxwin1.inl
; File D:\git\src\IBK\IBK_DRFN\ProjSrc\SrcChartEx\ChartOCX\ScaleDraw\DataHorzScaleDrawer.cpp
; File C:\Program Files (x86)\Microsoft Visual Studio\2019\Community\VC\Tools\MSVC\14.29.30133\atlmfc\include\atltypes.h
; File C:\Program Files (x86)\Microsoft Visual Studio\2019\Community\VC\Tools\MSVC\14.29.30133\atlmfc\include\afxwin1.inl
; File C:\Program Files (x86)\Microsoft Visual Studio\2019\Community\VC\Tools\MSVC\14.29.30133\atlmfc\include\atltypes.h
; File C:\Program Files (x86)\Microsoft Visual Studio\2019\Community\VC\Tools\MSVC\14.29.30133\atlmfc\include\atlsimpstr.h
; File C:\Program Files (x86)\Microsoft Visual Studio\2019\Community\VC\Tools\MSVC\14.29.30133\atlmfc\include\afxwin1.inl
; File C:\Program Files (x86)\Microsoft Visual Studio\2019\Community\VC\Tools\MSVC\14.29.30133\atlmfc\include\atlsimpstr.h
; File C:\Program Files (x86)\Microsoft Visual Studio\2019\Community\VC\Tools\MSVC\14.29.30133\atlmfc\include\afxwin1.inl
; File C:\Program Files (x86)\Microsoft Visual Studio\2019\Community\VC\Tools\MSVC\14.29.30133\atlmfc\include\atltypes.h
; File D:\git\src\IBK\IBK_DRFN\ProjSrc\SrcChartEx\ChartOCX\ScaleDraw\DataHorzScaleDrawer.cpp
;	COMDAT ?DrawTextAndCompartLine@CMarketProfileHorzScaleDrawer@@AAEXPAVCDC@@ABVCRect@@ABVCPoint@@_NABV?$CStringT@DV?$StrTraitMFC_DLL@DV?$ChTraitsCRT@D@ATL@@@@@ATL@@KKAAH@Z
_TEXT	SEGMENT
_size$1 = -16						; size = 8
_textPosPt$ = -8					; size = 8
_pDC$ = 8						; size = 4
_scaleRegion$ = 12					; size = 4
_nowPos$ = 16						; size = 4
_bIsTopPos$ = 20					; size = 1
_data$ = 24						; size = 4
_textColor$ = 28					; size = 4
_gridColor$ = 32					; size = 4
_textEndPos$ = 36					; size = 4
?DrawTextAndCompartLine@CMarketProfileHorzScaleDrawer@@AAEXPAVCDC@@ABVCRect@@ABVCPoint@@_NABV?$CStringT@DV?$StrTraitMFC_DLL@DV?$ChTraitsCRT@D@ATL@@@@@ATL@@KKAAH@Z PROC ; CMarketProfileHorzScaleDrawer::DrawTextAndCompartLine, COMDAT
; _this$ = ecx

; 521  : {

  00000	55		 push	 ebp
  00001	8b ec		 mov	 ebp, esp
  00003	83 ec 10	 sub	 esp, 16			; 00000010H
  00006	53		 push	 ebx
  00007	57		 push	 edi
; File C:\Program Files (x86)\Microsoft Visual Studio\2019\Community\VC\Tools\MSVC\14.29.30133\atlmfc\include\atltypes.h

; 638  : 	return ::IsRectEmpty(this);

  00008	8b 7d 0c	 mov	 edi, DWORD PTR _scaleRegion$[ebp]
; File D:\git\src\IBK\IBK_DRFN\ProjSrc\SrcChartEx\ChartOCX\ScaleDraw\DataHorzScaleDrawer.cpp

; 521  : {

  0000b	8b d9		 mov	 ebx, ecx
; File C:\Program Files (x86)\Microsoft Visual Studio\2019\Community\VC\Tools\MSVC\14.29.30133\atlmfc\include\atltypes.h

; 638  : 	return ::IsRectEmpty(this);

  0000d	57		 push	 edi
  0000e	ff 15 00 00 00
	00		 call	 DWORD PTR __imp__IsRectEmpty@4
; File D:\git\src\IBK\IBK_DRFN\ProjSrc\SrcChartEx\ChartOCX\ScaleDraw\DataHorzScaleDrawer.cpp

; 522  : 	if(scaleRegion.IsRectEmpty())

  00014	85 c0		 test	 eax, eax
  00016	75 6c		 jne	 SHORT $LN1@DrawTextAn

; 523  : 		return;
; 524  : 
; 525  : 	// text 
; 526  : 	CHorzScaleDrawer::DrawTextCompartLine(pDC, scaleRegion, nowPos, bIsTopPos, gridColor);

  00018	56		 push	 esi
  00019	ff 75 20	 push	 DWORD PTR _gridColor$[ebp]
  0001c	8b 75 10	 mov	 esi, DWORD PTR _nowPos$[ebp]
  0001f	8b cb		 mov	 ecx, ebx
  00021	ff 75 14	 push	 DWORD PTR _bIsTopPos$[ebp]
  00024	56		 push	 esi
  00025	57		 push	 edi
  00026	ff 75 08	 push	 DWORD PTR _pDC$[ebp]
  00029	e8 00 00 00 00	 call	 ?DrawTextCompartLine@CHorzScaleDrawer@@IAEXPAVCDC@@ABVCRect@@ABVCPoint@@_NK@Z ; CHorzScaleDrawer::DrawTextCompartLine

; 529  : 	CPoint textPosPt(nowPos.x +MARGIN, nowPos.y);

  0002e	8b 06		 mov	 eax, DWORD PTR [esi]
; File C:\Program Files (x86)\Microsoft Visual Studio\2019\Community\VC\Tools\MSVC\14.29.30133\atlmfc\include\afxwin1.inl

; 639  : 		VERIFY(::GetTextExtentPoint32(m_hAttribDC, str, (int)str.GetLength(), &size));

  00030	8d 4d f0	 lea	 ecx, DWORD PTR _size$1[ebp]
; File D:\git\src\IBK\IBK_DRFN\ProjSrc\SrcChartEx\ChartOCX\ScaleDraw\DataHorzScaleDrawer.cpp

; 529  : 	CPoint textPosPt(nowPos.x +MARGIN, nowPos.y);

  00033	83 c0 04	 add	 eax, 4
; File C:\Program Files (x86)\Microsoft Visual Studio\2019\Community\VC\Tools\MSVC\14.29.30133\atlmfc\include\atltypes.h

; 408  : 	x = initX;

  00036	89 45 f8	 mov	 DWORD PTR _textPosPt$[ebp], eax

; 409  : 	y = initY;

  00039	8b 46 04	 mov	 eax, DWORD PTR [esi+4]
; File C:\Program Files (x86)\Microsoft Visual Studio\2019\Community\VC\Tools\MSVC\14.29.30133\atlmfc\include\afxwin1.inl

; 639  : 		VERIFY(::GetTextExtentPoint32(m_hAttribDC, str, (int)str.GetLength(), &size));

  0003c	8b 75 08	 mov	 esi, DWORD PTR _pDC$[ebp]
; File C:\Program Files (x86)\Microsoft Visual Studio\2019\Community\VC\Tools\MSVC\14.29.30133\atlmfc\include\atltypes.h

; 409  : 	y = initY;

  0003f	89 45 fc	 mov	 DWORD PTR _textPosPt$[ebp+4], eax
; File C:\Program Files (x86)\Microsoft Visual Studio\2019\Community\VC\Tools\MSVC\14.29.30133\atlmfc\include\atlsimpstr.h

; 519  : 		return( GetData()->nDataLength );

  00042	8b 45 18	 mov	 eax, DWORD PTR _data$[ebp]
; File C:\Program Files (x86)\Microsoft Visual Studio\2019\Community\VC\Tools\MSVC\14.29.30133\atlmfc\include\afxwin1.inl

; 639  : 		VERIFY(::GetTextExtentPoint32(m_hAttribDC, str, (int)str.GetLength(), &size));

  00045	51		 push	 ecx
; File C:\Program Files (x86)\Microsoft Visual Studio\2019\Community\VC\Tools\MSVC\14.29.30133\atlmfc\include\atlsimpstr.h

; 519  : 		return( GetData()->nDataLength );

  00046	8b 00		 mov	 eax, DWORD PTR [eax]
; File C:\Program Files (x86)\Microsoft Visual Studio\2019\Community\VC\Tools\MSVC\14.29.30133\atlmfc\include\afxwin1.inl

; 639  : 		VERIFY(::GetTextExtentPoint32(m_hAttribDC, str, (int)str.GetLength(), &size));

  00048	ff 70 f4	 push	 DWORD PTR [eax-12]
  0004b	50		 push	 eax
  0004c	ff 76 08	 push	 DWORD PTR [esi+8]
  0004f	ff 15 00 00 00
	00		 call	 DWORD PTR __imp__GetTextExtentPoint32A@16
; File C:\Program Files (x86)\Microsoft Visual Studio\2019\Community\VC\Tools\MSVC\14.29.30133\atlmfc\include\atltypes.h

; 581  : 	return bottom - top;

  00055	8b 47 0c	 mov	 eax, DWORD PTR [edi+12]
  00058	2b 47 04	 sub	 eax, DWORD PTR [edi+4]
; File D:\git\src\IBK\IBK_DRFN\ProjSrc\SrcChartEx\ChartOCX\ScaleDraw\DataHorzScaleDrawer.cpp

; 532  : 	if(scaleRegion.Height() > textSize.cy)

  0005b	3b 45 f4	 cmp	 eax, DWORD PTR _size$1[ebp+4]
  0005e	7e 13		 jle	 SHORT $LN3@DrawTextAn

; 533  : 		CDrawer::DrawTextOut(pDC, textPosPt, data, textColor);

  00060	ff 75 1c	 push	 DWORD PTR _textColor$[ebp]
  00063	8d 45 f8	 lea	 eax, DWORD PTR _textPosPt$[ebp]
  00066	ff 75 18	 push	 DWORD PTR _data$[ebp]
  00069	8d 4b 04	 lea	 ecx, DWORD PTR [ebx+4]
  0006c	50		 push	 eax
  0006d	56		 push	 esi
  0006e	e8 00 00 00 00	 call	 ?DrawTextOut@CDrawer@@IAEXPAVCDC@@ABVCPoint@@ABV?$CStringT@DV?$StrTraitMFC_DLL@DV?$ChTraitsCRT@D@ATL@@@@@ATL@@K@Z ; CDrawer::DrawTextOut
$LN3@DrawTextAn:

; 534  : 	textEndPos = textPosPt.x + textSize.cx + MARGIN;

  00073	8b 45 f0	 mov	 eax, DWORD PTR _size$1[ebp]
  00076	8b 4d f8	 mov	 ecx, DWORD PTR _textPosPt$[ebp]
  00079	83 c0 04	 add	 eax, 4
  0007c	03 c8		 add	 ecx, eax
  0007e	8b 45 24	 mov	 eax, DWORD PTR _textEndPos$[ebp]
  00081	5e		 pop	 esi
  00082	89 08		 mov	 DWORD PTR [eax], ecx
$LN1@DrawTextAn:

; 535  : }

  00084	5f		 pop	 edi
  00085	5b		 pop	 ebx
  00086	8b e5		 mov	 esp, ebp
  00088	5d		 pop	 ebp
  00089	c2 20 00	 ret	 32			; 00000020H
?DrawTextAndCompartLine@CMarketProfileHorzScaleDrawer@@AAEXPAVCDC@@ABVCRect@@ABVCPoint@@_NABV?$CStringT@DV?$StrTraitMFC_DLL@DV?$ChTraitsCRT@D@ATL@@@@@ATL@@KKAAH@Z ENDP ; CMarketProfileHorzScaleDrawer::DrawTextAndCompartLine
_TEXT	ENDS
; Function compile flags: /Ogtp
; File D:\git\src\IBK\IBK_DRFN\ProjSrc\SrcChartEx\ChartOCX\ScaleDraw\DataHorzScaleDrawer.cpp
; File C:\Program Files (x86)\Microsoft Visual Studio\2019\Community\VC\Tools\MSVC\14.29.30133\atlmfc\include\atltypes.h
; File D:\git\src\IBK\IBK_DRFN\ProjSrc\SrcChartEx\ChartOCX\ScaleDraw\DataHorzScaleDrawer.cpp
; File C:\Program Files (x86)\Microsoft Visual Studio\2019\Community\VC\Tools\MSVC\14.29.30133\atlmfc\include\atlsimpstr.h
; File C:\Program Files (x86)\Microsoft Visual Studio\2019\Community\VC\Tools\MSVC\14.29.30133\atlmfc\include\afxwin1.inl
; File D:\git\src\IBK\IBK_DRFN\ProjSrc\SrcChartEx\ChartOCX\ScaleDraw\DataHorzScaleDrawer.cpp
; File C:\Program Files (x86)\Microsoft Visual Studio\2019\Community\VC\Tools\MSVC\14.29.30133\atlmfc\include\afxwin1.inl
; File D:\git\src\IBK\IBK_DRFN\ProjSrc\SrcChartEx\ChartOCX\ScaleDraw\DataHorzScaleDrawer.cpp
; File D:\git\src\IBK\IBK_DRFN\ProjSrc\SrcChartEx\ChartOCX\Include_Chart\Dll_Load\PacketBase.h
; File D:\git\src\IBK\IBK_DRFN\ProjSrc\SrcChartEx\ChartOCX\ScaleDraw\DataHorzScaleDrawer.cpp
; File C:\Program Files (x86)\Microsoft Visual Studio\2019\Community\VC\Tools\MSVC\14.29.30133\atlmfc\include\afxtempl.h
; File D:\git\src\IBK\IBK_DRFN\ProjSrc\SrcChartEx\ChartOCX\ScaleDraw\DataHorzScaleDrawer.cpp
; File D:\git\src\IBK\IBK_DRFN\ProjSrc\SrcChartEx\ChartOCX\Include_Chart\Dll_Load\PacketBase.h
; File D:\git\src\IBK\IBK_DRFN\ProjSrc\SrcChartEx\ChartOCX\ScaleDraw\DataHorzScaleDrawer.cpp
; File D:\git\src\IBK\IBK_DRFN\ProjSrc\SrcChartEx\ChartOCX\Include_Chart\Dll_Load\PacketBase.h
; File D:\git\src\IBK\IBK_DRFN\ProjSrc\SrcChartEx\ChartOCX\ScaleDraw\DataHorzScaleDrawer.cpp
; File C:\Program Files (x86)\Microsoft Visual Studio\2019\Community\VC\Tools\MSVC\14.29.30133\atlmfc\include\atltypes.h
; File D:\git\src\IBK\IBK_DRFN\ProjSrc\SrcChartEx\ChartOCX\ScaleDraw\DataHorzScaleDrawer.cpp
; File C:\Program Files (x86)\Microsoft Visual Studio\2019\Community\VC\Tools\MSVC\14.29.30133\atlmfc\include\atltypes.h
; File D:\git\src\IBK\IBK_DRFN\ProjSrc\SrcChartEx\ChartOCX\ScaleDraw\DataHorzScaleDrawer.cpp
; File C:\Program Files (x86)\Microsoft Visual Studio\2019\Community\VC\Tools\MSVC\14.29.30133\atlmfc\include\atltypes.h
; File D:\git\src\IBK\IBK_DRFN\ProjSrc\SrcChartEx\ChartOCX\ScaleDraw\DataHorzScaleDrawer.cpp
; File C:\Program Files (x86)\Microsoft Visual Studio\2019\Community\VC\Tools\MSVC\14.29.30133\atlmfc\include\atltypes.h
; File D:\git\src\IBK\IBK_DRFN\ProjSrc\SrcChartEx\ChartOCX\ScaleDraw\DataHorzScaleDrawer.cpp
;	COMDAT ?DrawScale@CMarketProfileHorzScaleDrawer@@AAEXPAVCDC@@ABVCDrawingHorzScaleData@@ABVCRect@@2ABVCHorizontalScale@@@Z
_TEXT	SEGMENT
$T2 = -96						; size = 12
$T3 = -84						; size = 12
_size$4 = -72						; size = 8
$T5 = -72						; size = 8
$T6 = -64						; size = 8
$T7 = -64						; size = 8
_dOnePtWidth$ = -56					; size = 8
$T8 = -48						; size = 1
$T9 = -44						; size = 1
_nPosPt_y2$ = -40					; size = 4
_nPosPt_y1$ = -36					; size = 4
_pMProfile$1$ = -32					; size = 4
_pMProfileList$1$ = -32					; size = 4
_nPosPt_x$1$ = -28					; size = 4
$T10 = -28						; size = 4
_nSize_Y$1$ = -24					; size = 4
_nPre_textEndPos$ = -24					; size = 4
_this$1$ = -20						; size = 4
_strDate$11 = -16					; size = 4
__$EHRec$ = -12						; size = 12
_pDC$ = 8						; size = 4
_drawingHorzScaleData$ = 12				; size = 4
_scaleRegion1$ = 16					; size = 4
_scaleRegion2$ = 20					; size = 4
_horzScale$ = 24					; size = 4
?DrawScale@CMarketProfileHorzScaleDrawer@@AAEXPAVCDC@@ABVCDrawingHorzScaleData@@ABVCRect@@2ABVCHorizontalScale@@@Z PROC ; CMarketProfileHorzScaleDrawer::DrawScale, COMDAT
; _this$ = ecx

; 473  : {

  00000	55		 push	 ebp
  00001	8b ec		 mov	 ebp, esp
  00003	6a ff		 push	 -1
  00005	68 00 00 00 00	 push	 __ehhandler$?DrawScale@CMarketProfileHorzScaleDrawer@@AAEXPAVCDC@@ABVCDrawingHorzScaleData@@ABVCRect@@2ABVCHorizontalScale@@@Z
  0000a	64 a1 00 00 00
	00		 mov	 eax, DWORD PTR fs:0
  00010	50		 push	 eax
  00011	83 ec 54	 sub	 esp, 84			; 00000054H
  00014	53		 push	 ebx
  00015	56		 push	 esi
  00016	57		 push	 edi
  00017	a1 00 00 00 00	 mov	 eax, DWORD PTR ___security_cookie
  0001c	33 c5		 xor	 eax, ebp
  0001e	50		 push	 eax
  0001f	8d 45 f4	 lea	 eax, DWORD PTR __$EHRec$[ebp]
  00022	64 a3 00 00 00
	00		 mov	 DWORD PTR fs:0, eax
  00028	8b f1		 mov	 esi, ecx
  0002a	89 75 ec	 mov	 DWORD PTR _this$1$[ebp], esi

; 474  : 	if(drawingHorzScaleData.GetPacket() == NULL || scaleRegion1.IsRectEmpty())

  0002d	8b 5d 0c	 mov	 ebx, DWORD PTR _drawingHorzScaleData$[ebp]
  00030	8b cb		 mov	 ecx, ebx
  00032	e8 00 00 00 00	 call	 ?GetPacket@CDrawingHorzScaleData@@QBEPAVCPacket@@XZ ; CDrawingHorzScaleData::GetPacket
  00037	85 c0		 test	 eax, eax
  00039	0f 84 5f 02 00
	00		 je	 $LN54@DrawScale
; File C:\Program Files (x86)\Microsoft Visual Studio\2019\Community\VC\Tools\MSVC\14.29.30133\atlmfc\include\atltypes.h

; 638  : 	return ::IsRectEmpty(this);

  0003f	8b 7d 10	 mov	 edi, DWORD PTR _scaleRegion1$[ebp]
  00042	57		 push	 edi
  00043	ff 15 00 00 00
	00		 call	 DWORD PTR __imp__IsRectEmpty@4
; File D:\git\src\IBK\IBK_DRFN\ProjSrc\SrcChartEx\ChartOCX\ScaleDraw\DataHorzScaleDrawer.cpp

; 474  : 	if(drawingHorzScaleData.GetPacket() == NULL || scaleRegion1.IsRectEmpty())

  00049	85 c0		 test	 eax, eax
  0004b	0f 85 4d 02 00
	00		 jne	 $LN54@DrawScale

; 475  : 		return;
; 476  : 
; 477  : 	CList<CMProfile*, CMProfile*>* pMProfileList = NULL;

  00051	0f 57 c0	 xorps	 xmm0, xmm0
  00054	89 45 e0	 mov	 DWORD PTR _pMProfileList$1$[ebp], eax

; 480  : 	if(!GetEnvironmentData((CMPPacket*) drawingHorzScaleData.GetPacket(), 

  00057	68 00 00 00 00	 push	 OFFSET ??_C@_01GBGANLPD@0@
  0005c	8d 4d e4	 lea	 ecx, DWORD PTR $T10[ebp]
  0005f	f2 0f 11 45 c8	 movsd	 QWORD PTR _dOnePtWidth$[ebp], xmm0
  00064	89 45 dc	 mov	 DWORD PTR _nPosPt_y1$[ebp], eax
  00067	89 45 d8	 mov	 DWORD PTR _nPosPt_y2$[ebp], eax
  0006a	ff 15 00 00 00
	00		 call	 DWORD PTR __imp_??0?$CStringT@DV?$StrTraitMFC_DLL@DV?$ChTraitsCRT@D@ATL@@@@@ATL@@QAE@PBD@Z
; File C:\Program Files (x86)\Microsoft Visual Studio\2019\Community\VC\Tools\MSVC\14.29.30133\atlmfc\include\atlsimpstr.h

; 519  : 		return( GetData()->nDataLength );

  00070	8b 45 e4	 mov	 eax, DWORD PTR $T10[ebp]
; File C:\Program Files (x86)\Microsoft Visual Studio\2019\Community\VC\Tools\MSVC\14.29.30133\atlmfc\include\afxwin1.inl

; 639  : 		VERIFY(::GetTextExtentPoint32(m_hAttribDC, str, (int)str.GetLength(), &size));

  00073	8d 4d b8	 lea	 ecx, DWORD PTR _size$4[ebp]
  00076	51		 push	 ecx
; File D:\git\src\IBK\IBK_DRFN\ProjSrc\SrcChartEx\ChartOCX\ScaleDraw\DataHorzScaleDrawer.cpp

; 480  : 	if(!GetEnvironmentData((CMPPacket*) drawingHorzScaleData.GetPacket(), 

  00077	c7 45 fc 00 00
	00 00		 mov	 DWORD PTR __$EHRec$[ebp+8], 0
; File C:\Program Files (x86)\Microsoft Visual Studio\2019\Community\VC\Tools\MSVC\14.29.30133\atlmfc\include\afxwin1.inl

; 639  : 		VERIFY(::GetTextExtentPoint32(m_hAttribDC, str, (int)str.GetLength(), &size));

  0007e	ff 70 f4	 push	 DWORD PTR [eax-12]
  00081	50		 push	 eax
  00082	8b 45 08	 mov	 eax, DWORD PTR _pDC$[ebp]
  00085	ff 70 08	 push	 DWORD PTR [eax+8]
  00088	ff 15 00 00 00
	00		 call	 DWORD PTR __imp__GetTextExtentPoint32A@16
; File D:\git\src\IBK\IBK_DRFN\ProjSrc\SrcChartEx\ChartOCX\ScaleDraw\DataHorzScaleDrawer.cpp

; 480  : 	if(!GetEnvironmentData((CMPPacket*) drawingHorzScaleData.GetPacket(), 

  0008e	8b 45 bc	 mov	 eax, DWORD PTR _size$4[ebp+4]
  00091	8b cb		 mov	 ecx, ebx
  00093	89 45 e8	 mov	 DWORD PTR _nSize_Y$1$[ebp], eax
  00096	e8 00 00 00 00	 call	 ?GetPacket@CDrawingHorzScaleData@@QBEPAVCPacket@@XZ ; CDrawingHorzScaleData::GetPacket

; 540  : 	if(pMPPacket == NULL)

  0009b	85 c0		 test	 eax, eax
  0009d	74 48		 je	 SHORT $LN28@DrawScale
; File D:\git\src\IBK\IBK_DRFN\ProjSrc\SrcChartEx\ChartOCX\Include_Chart\Dll_Load\PacketBase.h

; 349  : 	CList< CMProfile*, CMProfile*>* GetMarketProfileList() { return &m_listMarketProfile; }

  0009f	83 c0 08	 add	 eax, 8
  000a2	89 45 e0	 mov	 DWORD PTR _pMProfileList$1$[ebp], eax
; File D:\git\src\IBK\IBK_DRFN\ProjSrc\SrcChartEx\ChartOCX\ScaleDraw\DataHorzScaleDrawer.cpp

; 544  : 	if(pMProfileList == NULL || pMProfileList->GetCount() <= 0)

  000a5	74 40		 je	 SHORT $LN28@DrawScale
  000a7	8b 40 0c	 mov	 eax, DWORD PTR [eax+12]
  000aa	85 c0		 test	 eax, eax
  000ac	7e 39		 jle	 SHORT $LN28@DrawScale

; 545  : 		return false;
; 546  : 
; 547  : 	CHorzScaleDrawer::GetDrawingEnvironment(scaleRegion1, scaleRegion2, 

  000ae	8d 4d d8	 lea	 ecx, DWORD PTR _nPosPt_y2$[ebp]
  000b1	48		 dec	 eax
  000b2	51		 push	 ecx
  000b3	8d 4d dc	 lea	 ecx, DWORD PTR _nPosPt_y1$[ebp]
  000b6	51		 push	 ecx
  000b7	8d 4d c8	 lea	 ecx, DWORD PTR _dOnePtWidth$[ebp]
  000ba	51		 push	 ecx
  000bb	ff 75 e8	 push	 DWORD PTR _nSize_Y$1$[ebp]
  000be	8d 4d c0	 lea	 ecx, DWORD PTR $T6[ebp]
  000c1	50		 push	 eax
  000c2	6a 00		 push	 0
  000c4	e8 00 00 00 00	 call	 ??0CDisplayAttributes@@QAE@HH@Z ; CDisplayAttributes::CDisplayAttributes
  000c9	50		 push	 eax
  000ca	ff 75 14	 push	 DWORD PTR _scaleRegion2$[ebp]
  000cd	8b ce		 mov	 ecx, esi
  000cf	57		 push	 edi
  000d0	e8 00 00 00 00	 call	 ?GetDrawingEnvironment@CHorzScaleDrawer@@IBEXABVCRect@@0ABVCDisplayAttributes@@HAANAAH3@Z ; CHorzScaleDrawer::GetDrawingEnvironment

; 548  : 		CDisplayAttributes(0, pMProfileList->GetCount() -1), 
; 549  : 		nSize_Y, dOnePtWidth, nPosPt_y1, nPosPt_y2);
; 550  : 
; 551  : 	return (dOnePtWidth > 0 ? true: false);

  000d5	f2 0f 10 45 c8	 movsd	 xmm0, QWORD PTR _dOnePtWidth$[ebp]
  000da	66 0f 2f 05 00
	00 00 00	 comisd	 xmm0, QWORD PTR __real@0000000000000000
  000e2	0f 97 c3	 seta	 bl
  000e5	eb 02		 jmp	 SHORT $LN25@DrawScale
$LN28@DrawScale:

; 480  : 	if(!GetEnvironmentData((CMPPacket*) drawingHorzScaleData.GetPacket(), 

  000e7	32 db		 xor	 bl, bl
$LN25@DrawScale:
  000e9	8d 4d e4	 lea	 ecx, DWORD PTR $T10[ebp]
  000ec	c7 45 fc ff ff
	ff ff		 mov	 DWORD PTR __$EHRec$[ebp+8], -1
  000f3	ff 15 00 00 00
	00		 call	 DWORD PTR __imp_??1?$CStringT@DV?$StrTraitMFC_DLL@DV?$ChTraitsCRT@D@ATL@@@@@ATL@@QAE@XZ
  000f9	84 db		 test	 bl, bl
  000fb	0f 84 9d 01 00
	00		 je	 $LN54@DrawScale

; 481  : 		scaleRegion1, scaleRegion2, pDC->GetTextExtent("0").cy, pMProfileList, 
; 482  : 		dOnePtWidth, nPosPt_y1, nPosPt_y2))
; 483  : 		return;
; 484  : 
; 485  : 	int nIndex = 0, nPre_textEndPos = 0;
; 486  : 	POSITION pos = pMProfileList->GetHeadPosition();

  00101	8b 7d e0	 mov	 edi, DWORD PTR _pMProfileList$1$[ebp]
  00104	33 db		 xor	 ebx, ebx
  00106	89 5d e8	 mov	 DWORD PTR _nPre_textEndPos$[ebp], ebx
  00109	8b 7f 04	 mov	 edi, DWORD PTR [edi+4]

; 487  : 	while(pos != NULL){

  0010c	85 ff		 test	 edi, edi
  0010e	0f 84 8a 01 00
	00		 je	 $LN54@DrawScale
$LL2@DrawScale:

; 488  : 		CMProfile* pMProfile = pMProfileList->GetNext(pos);

  00114	8b 47 08	 mov	 eax, DWORD PTR [edi+8]
; File C:\Program Files (x86)\Microsoft Visual Studio\2019\Community\VC\Tools\MSVC\14.29.30133\atlmfc\include\afxtempl.h

; 813  : 		rPosition = (POSITION) pNode->pNext;

  00117	8b 3f		 mov	 edi, DWORD PTR [edi]
; File D:\git\src\IBK\IBK_DRFN\ProjSrc\SrcChartEx\ChartOCX\ScaleDraw\DataHorzScaleDrawer.cpp

; 488  : 		CMProfile* pMProfile = pMProfileList->GetNext(pos);

  00119	89 45 e0	 mov	 DWORD PTR _pMProfile$1$[ebp], eax

; 489  : 		if(pMProfile == NULL)

  0011c	85 c0		 test	 eax, eax
  0011e	0f 84 7a 01 00
	00		 je	 $LN54@DrawScale

; 490  : 			break;
; 491  : 
; 492  : 		int nPosPt_x = CHorzScaleDrawer::GetHorzScalePosition_x(nIndex, scaleRegion1.left, dOnePtWidth);

  00124	8d 45 c8	 lea	 eax, DWORD PTR _dOnePtWidth$[ebp]
  00127	8b ce		 mov	 ecx, esi
  00129	50		 push	 eax
  0012a	8b 45 10	 mov	 eax, DWORD PTR _scaleRegion1$[ebp]
  0012d	ff 30		 push	 DWORD PTR [eax]
  0012f	53		 push	 ebx
  00130	e8 00 00 00 00	 call	 ?GetHorzScalePosition_x@CHorzScaleDrawer@@IBEHHHABN@Z ; CHorzScaleDrawer::GetHorzScalePosition_x

; 493  : 		// pre text    .
; 494  : 		if(IsDrawText(horzScale.GetHorzScalePosition(), nPre_textEndPos, nPosPt_x)){

  00135	8b 4d 18	 mov	 ecx, DWORD PTR _horzScale$[ebp]
  00138	8b f0		 mov	 esi, eax
  0013a	89 75 e4	 mov	 DWORD PTR _nPosPt_x$1$[ebp], esi
  0013d	e8 00 00 00 00	 call	 ?GetHorzScalePosition@CHorizontalScale@@QBE?AW4HORZSCALEPOSITION@CScaleBaseData@@XZ ; CHorizontalScale::GetHorzScalePosition

; 556  : 	if(eHorzScalePos == CScaleBaseData::HORZ_HIDE)

  00142	83 f8 03	 cmp	 eax, 3
  00145	0f 84 25 01 00
	00		 je	 $LN8@DrawScale

; 493  : 		// pre text    .
; 494  : 		if(IsDrawText(horzScale.GetHorzScalePosition(), nPre_textEndPos, nPosPt_x)){

  0014b	39 75 e8	 cmp	 DWORD PTR _nPre_textEndPos$[ebp], esi
  0014e	0f 8d 1c 01 00
	00		 jge	 $LN8@DrawScale
; File D:\git\src\IBK\IBK_DRFN\ProjSrc\SrcChartEx\ChartOCX\Include_Chart\Dll_Load\PacketBase.h

; 288  : 	int			GetDate() const					{	return m_nDate;	}

  00154	8b 75 e0	 mov	 esi, DWORD PTR _pMProfile$1$[ebp]
; File D:\git\src\IBK\IBK_DRFN\ProjSrc\SrcChartEx\ChartOCX\ScaleDraw\DataHorzScaleDrawer.cpp

; 500  : 			CString strDate;

  00157	8d 4d f0	 lea	 ecx, DWORD PTR _strDate$11[ebp]
; File D:\git\src\IBK\IBK_DRFN\ProjSrc\SrcChartEx\ChartOCX\Include_Chart\Dll_Load\PacketBase.h

; 288  : 	int			GetDate() const					{	return m_nDate;	}

  0015a	8b 76 04	 mov	 esi, DWORD PTR [esi+4]
; File D:\git\src\IBK\IBK_DRFN\ProjSrc\SrcChartEx\ChartOCX\ScaleDraw\DataHorzScaleDrawer.cpp

; 500  : 			CString strDate;

  0015d	ff 15 00 00 00
	00		 call	 DWORD PTR __imp_??0?$CStringT@DV?$StrTraitMFC_DLL@DV?$ChTraitsCRT@D@ATL@@@@@ATL@@QAE@XZ

; 501  : 			strDate.Format( "%02d/%02d", ( nDate / 1000000) % 100, ( nDate / 10000) % 100);

  00163	b8 ad 8b db 68	 mov	 eax, 1759218605		; 68db8badH
  00168	c7 45 fc 01 00
	00 00		 mov	 DWORD PTR __$EHRec$[ebp+8], 1
  0016f	f7 ee		 imul	 esi
  00171	b9 64 00 00 00	 mov	 ecx, 100		; 00000064H
  00176	c1 fa 0c	 sar	 edx, 12			; 0000000cH
  00179	8b c2		 mov	 eax, edx
  0017b	c1 e8 1f	 shr	 eax, 31			; 0000001fH
  0017e	03 c2		 add	 eax, edx
  00180	99		 cdq
  00181	f7 f9		 idiv	 ecx
  00183	b8 83 de 1b 43	 mov	 eax, 1125899907		; 431bde83H
  00188	52		 push	 edx
  00189	f7 ee		 imul	 esi
  0018b	c1 fa 12	 sar	 edx, 18			; 00000012H
  0018e	8b c2		 mov	 eax, edx
  00190	c1 e8 1f	 shr	 eax, 31			; 0000001fH
  00193	03 c2		 add	 eax, edx
  00195	99		 cdq
  00196	f7 f9		 idiv	 ecx
  00198	8d 45 f0	 lea	 eax, DWORD PTR _strDate$11[ebp]
  0019b	52		 push	 edx
  0019c	68 00 00 00 00	 push	 OFFSET ??_C@_09KKPNDFC@?$CF02d?1?$CF02d@
  001a1	50		 push	 eax
  001a2	ff 15 00 00 00
	00		 call	 DWORD PTR __imp_?Format@?$CStringT@DV?$StrTraitMFC_DLL@DV?$ChTraitsCRT@D@ATL@@@@@ATL@@QAAXPBDZZ

; 502  : 			DrawTextAndCompartLine(pDC, scaleRegion1, CPoint(nPosPt_x, nPosPt_y1), 

  001a8	8b 4d 18	 mov	 ecx, DWORD PTR _horzScale$[ebp]
  001ab	83 c4 10	 add	 esp, 16			; 00000010H
  001ae	e8 00 00 00 00	 call	 ?GetHorzScalePosition@CHorizontalScale@@QBE?AW4HORZSCALEPOSITION@CScaleBaseData@@XZ ; CHorizontalScale::GetHorzScalePosition
  001b3	8b 4d 0c	 mov	 ecx, DWORD PTR _drawingHorzScaleData$[ebp]

; 564  : 	if(eHorzScalePos == CScaleBaseData::HORZ_BOTTOM){

  001b6	83 f8 01	 cmp	 eax, 1
; File C:\Program Files (x86)\Microsoft Visual Studio\2019\Community\VC\Tools\MSVC\14.29.30133\atlmfc\include\atltypes.h

; 408  : 	x = initX;

  001b9	8b 45 e4	 mov	 eax, DWORD PTR _nPosPt_x$1$[ebp]
  001bc	89 45 c0	 mov	 DWORD PTR $T7[ebp], eax
; File D:\git\src\IBK\IBK_DRFN\ProjSrc\SrcChartEx\ChartOCX\ScaleDraw\DataHorzScaleDrawer.cpp

; 564  : 	if(eHorzScalePos == CScaleBaseData::HORZ_BOTTOM){

  001bf	0f 95 45 d4	 setne	 BYTE PTR $T9[ebp]
; File C:\Program Files (x86)\Microsoft Visual Studio\2019\Community\VC\Tools\MSVC\14.29.30133\atlmfc\include\atltypes.h

; 409  : 	y = initY;

  001c3	8b 45 dc	 mov	 eax, DWORD PTR _nPosPt_y1$[ebp]
  001c6	89 45 c4	 mov	 DWORD PTR $T7[ebp+4], eax
; File D:\git\src\IBK\IBK_DRFN\ProjSrc\SrcChartEx\ChartOCX\ScaleDraw\DataHorzScaleDrawer.cpp

; 502  : 			DrawTextAndCompartLine(pDC, scaleRegion1, CPoint(nPosPt_x, nPosPt_y1), 

  001c9	8d 45 ac	 lea	 eax, DWORD PTR $T3[ebp]
  001cc	50		 push	 eax
  001cd	e8 00 00 00 00	 call	 ?GetScaleColor@CDrawingHorzScaleData@@QBE?AVCScaleColor@@XZ ; CDrawingHorzScaleData::GetScaleColor
  001d2	8b c8		 mov	 ecx, eax
  001d4	ff 15 00 00 00
	00		 call	 DWORD PTR __imp_?GetScaleTextColor@CScaleColor@@QAEAAKXZ
  001da	8b 4d 0c	 mov	 ecx, DWORD PTR _drawingHorzScaleData$[ebp]
  001dd	8b f0		 mov	 esi, eax
  001df	8d 45 e8	 lea	 eax, DWORD PTR _nPre_textEndPos$[ebp]
  001e2	50		 push	 eax
  001e3	e8 00 00 00 00	 call	 ?GetCompartLineColor@CDrawingHorzScaleData@@QBEKXZ ; CDrawingHorzScaleData::GetCompartLineColor
  001e8	8b 4d ec	 mov	 ecx, DWORD PTR _this$1$[ebp]
  001eb	50		 push	 eax
  001ec	ff 36		 push	 DWORD PTR [esi]
  001ee	8d 45 f0	 lea	 eax, DWORD PTR _strDate$11[ebp]
  001f1	50		 push	 eax
  001f2	ff 75 d4	 push	 DWORD PTR $T9[ebp]
  001f5	8d 45 c0	 lea	 eax, DWORD PTR $T7[ebp]
  001f8	50		 push	 eax
  001f9	ff 75 10	 push	 DWORD PTR _scaleRegion1$[ebp]
  001fc	ff 75 08	 push	 DWORD PTR _pDC$[ebp]
  001ff	e8 00 00 00 00	 call	 ?DrawTextAndCompartLine@CMarketProfileHorzScaleDrawer@@AAEXPAVCDC@@ABVCRect@@ABVCPoint@@_NABV?$CStringT@DV?$StrTraitMFC_DLL@DV?$ChTraitsCRT@D@ATL@@@@@ATL@@KKAAH@Z ; CMarketProfileHorzScaleDrawer::DrawTextAndCompartLine

; 506  : 			DrawTextAndCompartLine(pDC, scaleRegion2, CPoint(nPosPt_x, nPosPt_y2), 

  00204	8b 4d 18	 mov	 ecx, DWORD PTR _horzScale$[ebp]
  00207	e8 00 00 00 00	 call	 ?GetHorzScalePosition@CHorizontalScale@@QBE?AW4HORZSCALEPOSITION@CScaleBaseData@@XZ ; CHorizontalScale::GetHorzScalePosition
  0020c	8b 4d 0c	 mov	 ecx, DWORD PTR _drawingHorzScaleData$[ebp]

; 564  : 	if(eHorzScalePos == CScaleBaseData::HORZ_BOTTOM){

  0020f	83 f8 01	 cmp	 eax, 1
; File C:\Program Files (x86)\Microsoft Visual Studio\2019\Community\VC\Tools\MSVC\14.29.30133\atlmfc\include\atltypes.h

; 408  : 	x = initX;

  00212	8b 45 e4	 mov	 eax, DWORD PTR _nPosPt_x$1$[ebp]
  00215	89 45 b8	 mov	 DWORD PTR $T5[ebp], eax
; File D:\git\src\IBK\IBK_DRFN\ProjSrc\SrcChartEx\ChartOCX\ScaleDraw\DataHorzScaleDrawer.cpp

; 564  : 	if(eHorzScalePos == CScaleBaseData::HORZ_BOTTOM){

  00218	0f 94 45 d0	 sete	 BYTE PTR $T8[ebp]
; File C:\Program Files (x86)\Microsoft Visual Studio\2019\Community\VC\Tools\MSVC\14.29.30133\atlmfc\include\atltypes.h

; 409  : 	y = initY;

  0021c	8b 45 d8	 mov	 eax, DWORD PTR _nPosPt_y2$[ebp]
  0021f	89 45 bc	 mov	 DWORD PTR $T5[ebp+4], eax
; File D:\git\src\IBK\IBK_DRFN\ProjSrc\SrcChartEx\ChartOCX\ScaleDraw\DataHorzScaleDrawer.cpp

; 506  : 			DrawTextAndCompartLine(pDC, scaleRegion2, CPoint(nPosPt_x, nPosPt_y2), 

  00222	8d 45 a0	 lea	 eax, DWORD PTR $T2[ebp]
  00225	50		 push	 eax
  00226	e8 00 00 00 00	 call	 ?GetScaleColor@CDrawingHorzScaleData@@QBE?AVCScaleColor@@XZ ; CDrawingHorzScaleData::GetScaleColor
  0022b	8b c8		 mov	 ecx, eax
  0022d	ff 15 00 00 00
	00		 call	 DWORD PTR __imp_?GetScaleTextColor@CScaleColor@@QAEAAKXZ
  00233	8b 4d 0c	 mov	 ecx, DWORD PTR _drawingHorzScaleData$[ebp]
  00236	8b f0		 mov	 esi, eax
  00238	8d 45 e8	 lea	 eax, DWORD PTR _nPre_textEndPos$[ebp]
  0023b	50		 push	 eax
  0023c	e8 00 00 00 00	 call	 ?GetCompartLineColor@CDrawingHorzScaleData@@QBEKXZ ; CDrawingHorzScaleData::GetCompartLineColor
  00241	50		 push	 eax
  00242	ff 36		 push	 DWORD PTR [esi]
  00244	8b 4d ec	 mov	 ecx, DWORD PTR _this$1$[ebp]
  00247	8d 45 f0	 lea	 eax, DWORD PTR _strDate$11[ebp]
  0024a	50		 push	 eax
  0024b	ff 75 d0	 push	 DWORD PTR $T8[ebp]
  0024e	8d 45 b8	 lea	 eax, DWORD PTR $T5[ebp]
  00251	50		 push	 eax
  00252	ff 75 14	 push	 DWORD PTR _scaleRegion2$[ebp]
  00255	ff 75 08	 push	 DWORD PTR _pDC$[ebp]
  00258	e8 00 00 00 00	 call	 ?DrawTextAndCompartLine@CMarketProfileHorzScaleDrawer@@AAEXPAVCDC@@ABVCRect@@ABVCPoint@@_NABV?$CStringT@DV?$StrTraitMFC_DLL@DV?$ChTraitsCRT@D@ATL@@@@@ATL@@KKAAH@Z ; CMarketProfileHorzScaleDrawer::DrawTextAndCompartLine

; 507  : 				IsTopPostiont(horzScale.GetHorzScalePosition(), false), 
; 508  : 				strDate, drawingHorzScaleData.GetScaleColor().GetScaleTextColor(), 
; 509  : 				drawingHorzScaleData.GetCompartLineColor(), nPre_textEndPos);
; 510  : 		}

  0025d	8d 4d f0	 lea	 ecx, DWORD PTR _strDate$11[ebp]
  00260	c7 45 fc ff ff
	ff ff		 mov	 DWORD PTR __$EHRec$[ebp+8], -1
  00267	ff 15 00 00 00
	00		 call	 DWORD PTR __imp_??1?$CStringT@DV?$StrTraitMFC_DLL@DV?$ChTraitsCRT@D@ATL@@@@@ATL@@QAE@XZ
  0026d	8b 75 e4	 mov	 esi, DWORD PTR _nPosPt_x$1$[ebp]
$LN8@DrawScale:

; 511  : 		if(nIndex != 0)

  00270	85 db		 test	 ebx, ebx
  00272	74 1e		 je	 SHORT $LN55@DrawScale

; 512  : 			CHorzScaleDrawer::DrawGrid(pDC, drawingHorzScaleData, horzScale.GetGridType(), nPosPt_x);

  00274	8b 4d 18	 mov	 ecx, DWORD PTR _horzScale$[ebp]
  00277	6a 01		 push	 1
  00279	56		 push	 esi
  0027a	e8 00 00 00 00	 call	 ?GetGridType@CScale@@QBE?AW4SCALEGRIDTYPE@CScaleBaseData@@XZ ; CScale::GetGridType
  0027f	8b 75 ec	 mov	 esi, DWORD PTR _this$1$[ebp]
  00282	8b ce		 mov	 ecx, esi
  00284	50		 push	 eax
  00285	ff 75 0c	 push	 DWORD PTR _drawingHorzScaleData$[ebp]
  00288	ff 75 08	 push	 DWORD PTR _pDC$[ebp]
  0028b	e8 00 00 00 00	 call	 ?DrawGrid@CHorzScaleDrawer@@IAEXPAVCDC@@ABVCDrawingHorzScaleData@@W4SCALEGRIDTYPE@CScaleBaseData@@HH@Z ; CHorzScaleDrawer::DrawGrid
  00290	eb 03		 jmp	 SHORT $LN9@DrawScale
$LN55@DrawScale:

; 511  : 		if(nIndex != 0)

  00292	8b 75 ec	 mov	 esi, DWORD PTR _this$1$[ebp]
$LN9@DrawScale:

; 513  : 
; 514  : 		nIndex++;

  00295	43		 inc	 ebx
  00296	85 ff		 test	 edi, edi
  00298	0f 85 76 fe ff
	ff		 jne	 $LL2@DrawScale
$LN54@DrawScale:

; 515  : 	}
; 516  : }

  0029e	8b 4d f4	 mov	 ecx, DWORD PTR __$EHRec$[ebp]
  002a1	64 89 0d 00 00
	00 00		 mov	 DWORD PTR fs:0, ecx
  002a8	59		 pop	 ecx
  002a9	5f		 pop	 edi
  002aa	5e		 pop	 esi
  002ab	5b		 pop	 ebx
  002ac	8b e5		 mov	 esp, ebp
  002ae	5d		 pop	 ebp
  002af	c2 14 00	 ret	 20			; 00000014H
_TEXT	ENDS
;	COMDAT text$x
text$x	SEGMENT
__unwindfunclet$?DrawScale@CMarketProfileHorzScaleDrawer@@AAEXPAVCDC@@ABVCDrawingHorzScaleData@@ABVCRect@@2ABVCHorizontalScale@@@Z$0:
  00000	8d 4d e4	 lea	 ecx, DWORD PTR $T10[ebp]
  00003	ff 25 00 00 00
	00		 jmp	 DWORD PTR __imp_??1?$CStringT@DV?$StrTraitMFC_DLL@DV?$ChTraitsCRT@D@ATL@@@@@ATL@@QAE@XZ
__unwindfunclet$?DrawScale@CMarketProfileHorzScaleDrawer@@AAEXPAVCDC@@ABVCDrawingHorzScaleData@@ABVCRect@@2ABVCHorizontalScale@@@Z$1:
  00009	8d 4d f0	 lea	 ecx, DWORD PTR _strDate$11[ebp]
  0000c	ff 25 00 00 00
	00		 jmp	 DWORD PTR __imp_??1?$CStringT@DV?$StrTraitMFC_DLL@DV?$ChTraitsCRT@D@ATL@@@@@ATL@@QAE@XZ
  00012	cc		 int	 3
  00013	cc		 int	 3
  00014	cc		 int	 3
  00015	cc		 int	 3
  00016	cc		 int	 3
__ehhandler$?DrawScale@CMarketProfileHorzScaleDrawer@@AAEXPAVCDC@@ABVCDrawingHorzScaleData@@ABVCRect@@2ABVCHorizontalScale@@@Z:
  00017	90		 npad	 1
  00018	90		 npad	 1
  00019	8b 54 24 08	 mov	 edx, DWORD PTR [esp+8]
  0001d	8d 42 0c	 lea	 eax, DWORD PTR [edx+12]
  00020	8b 4a 9c	 mov	 ecx, DWORD PTR [edx-100]
  00023	33 c8		 xor	 ecx, eax
  00025	e8 00 00 00 00	 call	 @__security_check_cookie@4
  0002a	b8 00 00 00 00	 mov	 eax, OFFSET __ehfuncinfo$?DrawScale@CMarketProfileHorzScaleDrawer@@AAEXPAVCDC@@ABVCDrawingHorzScaleData@@ABVCRect@@2ABVCHorizontalScale@@@Z
  0002f	e9 00 00 00 00	 jmp	 ___CxxFrameHandler3
text$x	ENDS
?DrawScale@CMarketProfileHorzScaleDrawer@@AAEXPAVCDC@@ABVCDrawingHorzScaleData@@ABVCRect@@2ABVCHorizontalScale@@@Z ENDP ; CMarketProfileHorzScaleDrawer::DrawScale
; Function compile flags: /Ogtp
; File D:\git\src\IBK\IBK_DRFN\ProjSrc\SrcChartEx\ChartOCX\ScaleDraw\DataHorzScaleDrawer.cpp
; File C:\Program Files (x86)\Microsoft Visual Studio\2019\Community\VC\Tools\MSVC\14.29.30133\atlmfc\include\atltypes.h
; File D:\git\src\IBK\IBK_DRFN\ProjSrc\SrcChartEx\ChartOCX\ScaleDraw\DataHorzScaleDrawer.cpp
;	COMDAT ?DrawGrid@CMarketProfileHorzScaleDrawer@@UAEXPAVCDC@@ABVCDrawingHorzScaleData@@ABVCHorizontalScale@@@Z
_TEXT	SEGMENT
$T1 = -36						; size = 16
$T2 = -20						; size = 16
__$ArrayPad$ = -4					; size = 4
_pDC$ = 8						; size = 4
_drawingHorzScaleData$ = 12				; size = 4
_horzScale$ = 16					; size = 4
?DrawGrid@CMarketProfileHorzScaleDrawer@@UAEXPAVCDC@@ABVCDrawingHorzScaleData@@ABVCHorizontalScale@@@Z PROC ; CMarketProfileHorzScaleDrawer::DrawGrid, COMDAT
; _this$ = ecx

; 465  : {

  00000	55		 push	 ebp
  00001	8b ec		 mov	 ebp, esp
  00003	83 ec 24	 sub	 esp, 36			; 00000024H
  00006	a1 00 00 00 00	 mov	 eax, DWORD PTR ___security_cookie
  0000b	33 c5		 xor	 eax, ebp
  0000d	89 45 fc	 mov	 DWORD PTR __$ArrayPad$[ebp], eax
  00010	8b 45 10	 mov	 eax, DWORD PTR _horzScale$[ebp]
  00013	0f 57 c0	 xorps	 xmm0, xmm0
  00016	53		 push	 ebx
  00017	56		 push	 esi
  00018	8b 75 0c	 mov	 esi, DWORD PTR _drawingHorzScaleData$[ebp]
  0001b	8b d9		 mov	 ebx, ecx
  0001d	57		 push	 edi
  0001e	8b 7d 08	 mov	 edi, DWORD PTR _pDC$[ebp]

; 466  : 	DrawScale(pDC, drawingHorzScaleData, drawingHorzScaleData.GetDrawingGraphRegion(), CRect(0, 0, 0, 0), horzScale);

  00021	8b ce		 mov	 ecx, esi
  00023	50		 push	 eax
  00024	8d 45 ec	 lea	 eax, DWORD PTR $T2[ebp]
  00027	50		 push	 eax
  00028	8d 45 dc	 lea	 eax, DWORD PTR $T1[ebp]
  0002b	50		 push	 eax
; File C:\Program Files (x86)\Microsoft Visual Studio\2019\Community\VC\Tools\MSVC\14.29.30133\atlmfc\include\atltypes.h

; 540  : 	left = l;

  0002c	0f 11 45 ec	 movups	 XMMWORD PTR $T2[ebp], xmm0
; File D:\git\src\IBK\IBK_DRFN\ProjSrc\SrcChartEx\ChartOCX\ScaleDraw\DataHorzScaleDrawer.cpp

; 466  : 	DrawScale(pDC, drawingHorzScaleData, drawingHorzScaleData.GetDrawingGraphRegion(), CRect(0, 0, 0, 0), horzScale);

  00030	e8 00 00 00 00	 call	 ?GetDrawingGraphRegion@CDrawingHorzScaleData@@QBE?AVCRect@@XZ ; CDrawingHorzScaleData::GetDrawingGraphRegion
  00035	50		 push	 eax
  00036	56		 push	 esi
  00037	57		 push	 edi
  00038	8b cb		 mov	 ecx, ebx
  0003a	e8 00 00 00 00	 call	 ?DrawScale@CMarketProfileHorzScaleDrawer@@AAEXPAVCDC@@ABVCDrawingHorzScaleData@@ABVCRect@@2ABVCHorizontalScale@@@Z ; CMarketProfileHorzScaleDrawer::DrawScale

; 467  : }

  0003f	8b 4d fc	 mov	 ecx, DWORD PTR __$ArrayPad$[ebp]
  00042	5f		 pop	 edi
  00043	5e		 pop	 esi
  00044	33 cd		 xor	 ecx, ebp
  00046	5b		 pop	 ebx
  00047	e8 00 00 00 00	 call	 @__security_check_cookie@4
  0004c	8b e5		 mov	 esp, ebp
  0004e	5d		 pop	 ebp
  0004f	c2 0c 00	 ret	 12			; 0000000cH
?DrawGrid@CMarketProfileHorzScaleDrawer@@UAEXPAVCDC@@ABVCDrawingHorzScaleData@@ABVCHorizontalScale@@@Z ENDP ; CMarketProfileHorzScaleDrawer::DrawGrid
_TEXT	ENDS
; Function compile flags: /Ogtp
; File D:\git\src\IBK\IBK_DRFN\ProjSrc\SrcChartEx\ChartOCX\ScaleDraw\DataHorzScaleDrawer.cpp
;	COMDAT ?DrawTextOrGrid_Both@CMarketProfileHorzScaleDrawer@@UAEXPAVCDC@@ABVCDrawingHorzScaleData@@ABVCHorzScaleRegion@@ABVCHorizontalScale@@@Z
_TEXT	SEGMENT
_this$GSCopy$1$ = -40					; size = 4
$T1 = -36						; size = 16
$T2 = -20						; size = 16
__$ArrayPad$ = -4					; size = 4
_pDC$ = 8						; size = 4
_drawingHorzScaleData$ = 12				; size = 4
_horzScaleRegion$ = 16					; size = 4
_horzScale$ = 20					; size = 4
?DrawTextOrGrid_Both@CMarketProfileHorzScaleDrawer@@UAEXPAVCDC@@ABVCDrawingHorzScaleData@@ABVCHorzScaleRegion@@ABVCHorizontalScale@@@Z PROC ; CMarketProfileHorzScaleDrawer::DrawTextOrGrid_Both, COMDAT
; _this$ = ecx

; 460  : {

  00000	55		 push	 ebp
  00001	8b ec		 mov	 ebp, esp
  00003	83 ec 28	 sub	 esp, 40			; 00000028H
  00006	a1 00 00 00 00	 mov	 eax, DWORD PTR ___security_cookie
  0000b	33 c5		 xor	 eax, ebp
  0000d	89 45 fc	 mov	 DWORD PTR __$ArrayPad$[ebp], eax
  00010	8b 45 14	 mov	 eax, DWORD PTR _horzScale$[ebp]
  00013	53		 push	 ebx
  00014	8b 5d 08	 mov	 ebx, DWORD PTR _pDC$[ebp]
  00017	56		 push	 esi
  00018	8b 75 10	 mov	 esi, DWORD PTR _horzScaleRegion$[ebp]
  0001b	57		 push	 edi
  0001c	8b 7d 0c	 mov	 edi, DWORD PTR _drawingHorzScaleData$[ebp]

; 461  : 	DrawScale(pDC, drawingHorzScaleData, horzScaleRegion.GetTopScaleRegion(), horzScaleRegion.GetBottomScaleRegion(), horzScale);

  0001f	50		 push	 eax
  00020	8d 45 ec	 lea	 eax, DWORD PTR $T2[ebp]
  00023	89 4d d8	 mov	 DWORD PTR _this$GSCopy$1$[ebp], ecx
  00026	50		 push	 eax
  00027	8b ce		 mov	 ecx, esi
  00029	e8 00 00 00 00	 call	 ?GetBottomScaleRegion@CHorzScaleRegion@@QBE?AVCRect@@XZ ; CHorzScaleRegion::GetBottomScaleRegion
  0002e	50		 push	 eax
  0002f	8d 45 dc	 lea	 eax, DWORD PTR $T1[ebp]
  00032	8b ce		 mov	 ecx, esi
  00034	50		 push	 eax
  00035	e8 00 00 00 00	 call	 ?GetTopScaleRegion@CHorzScaleRegion@@QBE?AVCRect@@XZ ; CHorzScaleRegion::GetTopScaleRegion
  0003a	8b 4d d8	 mov	 ecx, DWORD PTR _this$GSCopy$1$[ebp]
  0003d	50		 push	 eax
  0003e	57		 push	 edi
  0003f	53		 push	 ebx
  00040	e8 00 00 00 00	 call	 ?DrawScale@CMarketProfileHorzScaleDrawer@@AAEXPAVCDC@@ABVCDrawingHorzScaleData@@ABVCRect@@2ABVCHorizontalScale@@@Z ; CMarketProfileHorzScaleDrawer::DrawScale

; 462  : }

  00045	8b 4d fc	 mov	 ecx, DWORD PTR __$ArrayPad$[ebp]
  00048	5f		 pop	 edi
  00049	5e		 pop	 esi
  0004a	33 cd		 xor	 ecx, ebp
  0004c	5b		 pop	 ebx
  0004d	e8 00 00 00 00	 call	 @__security_check_cookie@4
  00052	8b e5		 mov	 esp, ebp
  00054	5d		 pop	 ebp
  00055	c2 10 00	 ret	 16			; 00000010H
?DrawTextOrGrid_Both@CMarketProfileHorzScaleDrawer@@UAEXPAVCDC@@ABVCDrawingHorzScaleData@@ABVCHorzScaleRegion@@ABVCHorizontalScale@@@Z ENDP ; CMarketProfileHorzScaleDrawer::DrawTextOrGrid_Both
_TEXT	ENDS
; Function compile flags: /Ogtp
; File D:\git\src\IBK\IBK_DRFN\ProjSrc\SrcChartEx\ChartOCX\ScaleDraw\DataHorzScaleDrawer.cpp
; File C:\Program Files (x86)\Microsoft Visual Studio\2019\Community\VC\Tools\MSVC\14.29.30133\atlmfc\include\atltypes.h
; File D:\git\src\IBK\IBK_DRFN\ProjSrc\SrcChartEx\ChartOCX\ScaleDraw\DataHorzScaleDrawer.cpp
;	COMDAT ?DrawTextOrGrid@CMarketProfileHorzScaleDrawer@@UAEXPAVCDC@@ABVCDrawingHorzScaleData@@ABVCRect@@ABVCHorizontalScale@@@Z
_TEXT	SEGMENT
$T1 = -20						; size = 16
__$ArrayPad$ = -4					; size = 4
_pDC$ = 8						; size = 4
_drawingHorzScaleData$ = 12				; size = 4
_scaleRegion$ = 16					; size = 4
_horzScale$ = 20					; size = 4
?DrawTextOrGrid@CMarketProfileHorzScaleDrawer@@UAEXPAVCDC@@ABVCDrawingHorzScaleData@@ABVCRect@@ABVCHorizontalScale@@@Z PROC ; CMarketProfileHorzScaleDrawer::DrawTextOrGrid, COMDAT
; _this$ = ecx

; 454  : {

  00000	55		 push	 ebp
  00001	8b ec		 mov	 ebp, esp
  00003	83 ec 14	 sub	 esp, 20			; 00000014H
  00006	a1 00 00 00 00	 mov	 eax, DWORD PTR ___security_cookie
  0000b	33 c5		 xor	 eax, ebp
  0000d	89 45 fc	 mov	 DWORD PTR __$ArrayPad$[ebp], eax
  00010	8b 45 14	 mov	 eax, DWORD PTR _horzScale$[ebp]
  00013	0f 57 c0	 xorps	 xmm0, xmm0
  00016	8b 55 10	 mov	 edx, DWORD PTR _scaleRegion$[ebp]
  00019	56		 push	 esi
  0001a	8b 75 0c	 mov	 esi, DWORD PTR _drawingHorzScaleData$[ebp]
  0001d	57		 push	 edi
  0001e	8b 7d 08	 mov	 edi, DWORD PTR _pDC$[ebp]

; 455  : 	DrawScale(pDC, drawingHorzScaleData, scaleRegion, CRect(0, 0, 0, 0), horzScale);

  00021	50		 push	 eax
  00022	8d 45 ec	 lea	 eax, DWORD PTR $T1[ebp]
  00025	50		 push	 eax
  00026	52		 push	 edx
  00027	56		 push	 esi
  00028	57		 push	 edi
; File C:\Program Files (x86)\Microsoft Visual Studio\2019\Community\VC\Tools\MSVC\14.29.30133\atlmfc\include\atltypes.h

; 540  : 	left = l;

  00029	0f 11 45 ec	 movups	 XMMWORD PTR $T1[ebp], xmm0
; File D:\git\src\IBK\IBK_DRFN\ProjSrc\SrcChartEx\ChartOCX\ScaleDraw\DataHorzScaleDrawer.cpp

; 455  : 	DrawScale(pDC, drawingHorzScaleData, scaleRegion, CRect(0, 0, 0, 0), horzScale);

  0002d	e8 00 00 00 00	 call	 ?DrawScale@CMarketProfileHorzScaleDrawer@@AAEXPAVCDC@@ABVCDrawingHorzScaleData@@ABVCRect@@2ABVCHorizontalScale@@@Z ; CMarketProfileHorzScaleDrawer::DrawScale

; 456  : }

  00032	8b 4d fc	 mov	 ecx, DWORD PTR __$ArrayPad$[ebp]
  00035	5f		 pop	 edi
  00036	33 cd		 xor	 ecx, ebp
  00038	5e		 pop	 esi
  00039	e8 00 00 00 00	 call	 @__security_check_cookie@4
  0003e	8b e5		 mov	 esp, ebp
  00040	5d		 pop	 ebp
  00041	c2 10 00	 ret	 16			; 00000010H
?DrawTextOrGrid@CMarketProfileHorzScaleDrawer@@UAEXPAVCDC@@ABVCDrawingHorzScaleData@@ABVCRect@@ABVCHorizontalScale@@@Z ENDP ; CMarketProfileHorzScaleDrawer::DrawTextOrGrid
_TEXT	ENDS
; Function compile flags: /Ogtp
; File D:\git\src\IBK\IBK_DRFN\ProjSrc\SrcChartEx\ChartOCX\ScaleDraw\DataHorzScaleDrawer.cpp
;	COMDAT ??0CMarketProfileHorzScaleDrawer@@QAE@PAUHWND__@@W4CHART_MODE@CChartInfo@@@Z
_TEXT	SEGMENT
_p_hOcxWnd$ = 8						; size = 4
_p_eChartMode$ = 12					; size = 4
??0CMarketProfileHorzScaleDrawer@@QAE@PAUHWND__@@W4CHART_MODE@CChartInfo@@@Z PROC ; CMarketProfileHorzScaleDrawer::CMarketProfileHorzScaleDrawer, COMDAT
; _this$ = ecx

; 448  : {

  00000	55		 push	 ebp
  00001	8b ec		 mov	 ebp, esp
  00003	56		 push	 esi
  00004	ff 75 0c	 push	 DWORD PTR _p_eChartMode$[ebp]
  00007	8b f1		 mov	 esi, ecx
  00009	ff 75 08	 push	 DWORD PTR _p_hOcxWnd$[ebp]
  0000c	e8 00 00 00 00	 call	 ??0CHorzScaleDrawer@@QAE@PAUHWND__@@W4CHART_MODE@CChartInfo@@@Z ; CHorzScaleDrawer::CHorzScaleDrawer
  00011	c7 06 00 00 00
	00		 mov	 DWORD PTR [esi], OFFSET ??_7CMarketProfileHorzScaleDrawer@@6B@

; 449  : }

  00017	8b c6		 mov	 eax, esi
  00019	5e		 pop	 esi
  0001a	5d		 pop	 ebp
  0001b	c2 08 00	 ret	 8
??0CMarketProfileHorzScaleDrawer@@QAE@PAUHWND__@@W4CHART_MODE@CChartInfo@@@Z ENDP ; CMarketProfileHorzScaleDrawer::CMarketProfileHorzScaleDrawer
_TEXT	ENDS
; Function compile flags: /Ogtp
; File D:\git\src\IBK\IBK_DRFN\ProjSrc\SrcChartEx\ChartOCX\ScaleDraw\DataHorzScaleDrawer.cpp
; File C:\Program Files (x86)\Microsoft Visual Studio\2019\Community\VC\Tools\MSVC\14.29.30133\atlmfc\include\atlsimpstr.h
; File D:\git\src\IBK\IBK_DRFN\ProjSrc\SrcChartEx\ChartOCX\ScaleDraw\DataHorzScaleDrawer.cpp
; File C:\Program Files (x86)\Microsoft Visual Studio\2019\Community\VC\Tools\MSVC\14.29.30133\atlmfc\include\atlsimpstr.h
; File C:\Program Files (x86)\Microsoft Visual Studio\2019\Community\VC\Tools\MSVC\14.29.30133\atlmfc\include\cstringt.h
; File D:\git\src\IBK\IBK_DRFN\ProjSrc\SrcChartEx\ChartOCX\ScaleDraw\DataHorzScaleDrawer.cpp
; File C:\Program Files (x86)\Microsoft Visual Studio\2019\Community\VC\Tools\MSVC\14.29.30133\atlmfc\include\cstringt.h
; File D:\git\src\IBK\IBK_DRFN\ProjSrc\SrcChartEx\ChartOCX\ScaleDraw\DataHorzScaleDrawer.cpp
; File C:\Program Files (x86)\Microsoft Visual Studio\2019\Community\VC\Tools\MSVC\14.29.30133\atlmfc\include\cstringt.h
; File C:\Program Files (x86)\Microsoft Visual Studio\2019\Community\VC\Tools\MSVC\14.29.30133\atlmfc\include\atlsimpstr.h
; File C:\Program Files (x86)\Microsoft Visual Studio\2019\Community\VC\Tools\MSVC\14.29.30133\atlmfc\include\cstringt.h
; File D:\git\src\IBK\IBK_DRFN\ProjSrc\SrcChartEx\ChartOCX\ScaleDraw\DataHorzScaleDrawer.cpp
;	COMDAT ?GetData@CLeftRightScaleDrawer@@ABE?AV?$CStringT@DV?$StrTraitMFC_DLL@DV?$ChTraitsCRT@D@ATL@@@@@ATL@@ABNAAN@Z
_TEXT	SEGMENT
$T2 = -24						; size = 4
$T3 = -20						; size = 4
$T4 = -16						; size = 4
$T5 = -16						; size = 4
__$EHRec$ = -12						; size = 12
___$ReturnUdt$ = 8					; size = 4
_dData$ = 12						; size = 4
$T6 = 15						; size = 1
_chTemp$7 = 15						; size = 1
_strData$ = 16						; size = 4
_dPreData$ = 16						; size = 4
?GetData@CLeftRightScaleDrawer@@ABE?AV?$CStringT@DV?$StrTraitMFC_DLL@DV?$ChTraitsCRT@D@ATL@@@@@ATL@@ABNAAN@Z PROC ; CLeftRightScaleDrawer::GetData, COMDAT
; _this$ = ecx

; 426  : {

  00000	55		 push	 ebp
  00001	8b ec		 mov	 ebp, esp
  00003	6a ff		 push	 -1
  00005	68 00 00 00 00	 push	 __ehhandler$?GetData@CLeftRightScaleDrawer@@ABE?AV?$CStringT@DV?$StrTraitMFC_DLL@DV?$ChTraitsCRT@D@ATL@@@@@ATL@@ABNAAN@Z
  0000a	64 a1 00 00 00
	00		 mov	 eax, DWORD PTR fs:0
  00010	50		 push	 eax
  00011	83 ec 0c	 sub	 esp, 12			; 0000000cH
  00014	53		 push	 ebx
  00015	56		 push	 esi
  00016	a1 00 00 00 00	 mov	 eax, DWORD PTR ___security_cookie
  0001b	33 c5		 xor	 eax, ebp
  0001d	50		 push	 eax
  0001e	8d 45 f4	 lea	 eax, DWORD PTR __$EHRec$[ebp]
  00021	64 a3 00 00 00
	00		 mov	 DWORD PTR fs:0, eax
  00027	33 db		 xor	 ebx, ebx
  00029	89 5d e8	 mov	 DWORD PTR $T2[ebp], ebx

; 427  : 	if(dPreData == dData)

  0002c	8b 4d 0c	 mov	 ecx, DWORD PTR _dData$[ebp]
  0002f	8b 55 10	 mov	 edx, DWORD PTR _dPreData$[ebp]
  00032	f2 0f 10 09	 movsd	 xmm1, QWORD PTR [ecx]
  00036	f2 0f 10 02	 movsd	 xmm0, QWORD PTR [edx]
  0003a	66 0f 2e c1	 ucomisd xmm0, xmm1
  0003e	9f		 lahf
  0003f	f6 c4 44	 test	 ah, 68			; 00000044H
  00042	7a 13		 jp	 SHORT $LN2@GetData

; 428  : 		return "";

  00044	8b 4d 08	 mov	 ecx, DWORD PTR ___$ReturnUdt$[ebp]
  00047	68 00 00 00 00	 push	 OFFSET ??_C@_00CNPNBAHC@@
  0004c	ff 15 00 00 00
	00		 call	 DWORD PTR __imp_??0?$CStringT@DV?$StrTraitMFC_DLL@DV?$ChTraitsCRT@D@ATL@@@@@ATL@@QAE@PBD@Z
  00052	e9 13 01 00 00	 jmp	 $LN42@GetData
$LN2@GetData:

; 429  : 
; 430  : 	dPreData = dData;

  00057	f2 0f 11 0a	 movsd	 QWORD PTR [edx], xmm1

; 431  : 	
; 432  : 	if(dData == 0.0)

  0005b	f2 0f 10 01	 movsd	 xmm0, QWORD PTR [ecx]
  0005f	66 0f 2e 05 00
	00 00 00	 ucomisd xmm0, QWORD PTR __real@0000000000000000
  00067	9f		 lahf
  00068	f6 c4 44	 test	 ah, 68			; 00000044H
  0006b	7a 13		 jp	 SHORT $LN3@GetData

; 433  : 		return "0";

  0006d	8b 4d 08	 mov	 ecx, DWORD PTR ___$ReturnUdt$[ebp]
  00070	68 00 00 00 00	 push	 OFFSET ??_C@_01GBGANLPD@0@
  00075	ff 15 00 00 00
	00		 call	 DWORD PTR __imp_??0?$CStringT@DV?$StrTraitMFC_DLL@DV?$ChTraitsCRT@D@ATL@@@@@ATL@@QAE@PBD@Z
  0007b	e9 ea 00 00 00	 jmp	 $LN42@GetData
$LN3@GetData:

; 434  : 
; 435  : 	CString strData = CDataConversion::GetStringThousandFormat(CDataConversion::DoubleToString(dData));

  00080	51		 push	 ecx
  00081	8d 45 ec	 lea	 eax, DWORD PTR $T3[ebp]
  00084	50		 push	 eax
  00085	e8 00 00 00 00	 call	 ?DoubleToString@CDataConversion@@SA?AV?$CStringT@DV?$StrTraitMFC_DLL@DV?$ChTraitsCRT@D@ATL@@@@@ATL@@ABN@Z ; CDataConversion::DoubleToString
  0008a	50		 push	 eax
  0008b	8d 45 10	 lea	 eax, DWORD PTR _strData$[ebp]
  0008e	c7 45 fc 00 00
	00 00		 mov	 DWORD PTR __$EHRec$[ebp+8], 0
  00095	50		 push	 eax
  00096	e8 00 00 00 00	 call	 ?GetStringThousandFormat@CDataConversion@@SA?AV?$CStringT@DV?$StrTraitMFC_DLL@DV?$ChTraitsCRT@D@ATL@@@@@ATL@@ABV23@@Z ; CDataConversion::GetStringThousandFormat
  0009b	83 c4 10	 add	 esp, 16			; 00000010H
  0009e	8d 4d ec	 lea	 ecx, DWORD PTR $T3[ebp]
  000a1	c6 45 fc 02	 mov	 BYTE PTR __$EHRec$[ebp+8], 2
  000a5	ff 15 00 00 00
	00		 call	 DWORD PTR __imp_??1?$CStringT@DV?$StrTraitMFC_DLL@DV?$ChTraitsCRT@D@ATL@@@@@ATL@@QAE@XZ
; File C:\Program Files (x86)\Microsoft Visual Studio\2019\Community\VC\Tools\MSVC\14.29.30133\atlmfc\include\atlsimpstr.h

; 519  : 		return( GetData()->nDataLength );

  000ab	8b 45 10	 mov	 eax, DWORD PTR _strData$[ebp]

; 533  : 		return( GetLength() == 0 );

  000ae	83 78 f4 00	 cmp	 DWORD PTR [eax-12], 0
; File D:\git\src\IBK\IBK_DRFN\ProjSrc\SrcChartEx\ChartOCX\ScaleDraw\DataHorzScaleDrawer.cpp

; 436  : 	if(!strData.IsEmpty() && strData.Left(1) != '-')

  000b2	74 30		 je	 SHORT $LN6@GetData
  000b4	6a 01		 push	 1
  000b6	8d 45 f0	 lea	 eax, DWORD PTR $T5[ebp]
  000b9	50		 push	 eax
  000ba	8d 4d 10	 lea	 ecx, DWORD PTR _strData$[ebp]
  000bd	ff 15 00 00 00
	00		 call	 DWORD PTR __imp_?Left@?$CStringT@DV?$StrTraitMFC_DLL@DV?$ChTraitsCRT@D@ATL@@@@@ATL@@QBE?AV12@H@Z
  000c3	bb 02 00 00 00	 mov	 ebx, 2
; File C:\Program Files (x86)\Microsoft Visual Studio\2019\Community\VC\Tools\MSVC\14.29.30133\atlmfc\include\atlsimpstr.h

; 519  : 		return( GetData()->nDataLength );

  000c8	8b 08		 mov	 ecx, DWORD PTR [eax]
; File C:\Program Files (x86)\Microsoft Visual Studio\2019\Community\VC\Tools\MSVC\14.29.30133\atlmfc\include\cstringt.h

; 2699 : 		return((str1.GetLength() != 1) || (str1[0] != ch2));

  000ca	83 79 f4 01	 cmp	 DWORD PTR [ecx-12], 1
  000ce	75 0e		 jne	 SHORT $LN24@GetData
  000d0	6a 00		 push	 0
  000d2	8b c8		 mov	 ecx, eax
  000d4	ff 15 00 00 00
	00		 call	 DWORD PTR __imp_??A?$CSimpleStringT@D$00@ATL@@QBEDH@Z
  000da	3c 2d		 cmp	 al, 45			; 0000002dH
  000dc	74 06		 je	 SHORT $LN6@GetData
$LN24@GetData:
; File D:\git\src\IBK\IBK_DRFN\ProjSrc\SrcChartEx\ChartOCX\ScaleDraw\DataHorzScaleDrawer.cpp

; 436  : 	if(!strData.IsEmpty() && strData.Left(1) != '-')

  000de	c6 45 0f 01	 mov	 BYTE PTR $T6[ebp], 1
  000e2	eb 04		 jmp	 SHORT $LN7@GetData
$LN6@GetData:
  000e4	c6 45 0f 00	 mov	 BYTE PTR $T6[ebp], 0
$LN7@GetData:
  000e8	f6 c3 02	 test	 bl, 2
  000eb	74 0c		 je	 SHORT $LN14@GetData
  000ed	8d 4d f0	 lea	 ecx, DWORD PTR $T5[ebp]
  000f0	83 e3 fd	 and	 ebx, -3			; fffffffdH
  000f3	ff 15 00 00 00
	00		 call	 DWORD PTR __imp_??1?$CStringT@DV?$StrTraitMFC_DLL@DV?$ChTraitsCRT@D@ATL@@@@@ATL@@QAE@XZ
$LN14@GetData:
  000f9	80 7d 0f 00	 cmp	 BYTE PTR $T6[ebp], 0
  000fd	74 55		 je	 SHORT $LN4@GetData
; File C:\Program Files (x86)\Microsoft Visual Studio\2019\Community\VC\Tools\MSVC\14.29.30133\atlmfc\include\cstringt.h

; 2441 : 		CStringT strResult( str2.GetManager() );

  000ff	8d 4d 10	 lea	 ecx, DWORD PTR _strData$[ebp]
; File D:\git\src\IBK\IBK_DRFN\ProjSrc\SrcChartEx\ChartOCX\ScaleDraw\DataHorzScaleDrawer.cpp

; 437  : 		strData = '+' + strData;

  00102	c6 45 fc 03	 mov	 BYTE PTR __$EHRec$[ebp+8], 3
; File C:\Program Files (x86)\Microsoft Visual Studio\2019\Community\VC\Tools\MSVC\14.29.30133\atlmfc\include\cstringt.h

; 2441 : 		CStringT strResult( str2.GetManager() );

  00106	ff 15 00 00 00
	00		 call	 DWORD PTR __imp_?GetManager@?$CStringT@DV?$StrTraitMFC_DLL@DV?$ChTraitsCRT@D@ATL@@@@@ATL@@QBEPAUIAtlStringMgr@2@XZ
  0010c	50		 push	 eax
  0010d	8d 4d f0	 lea	 ecx, DWORD PTR $T4[ebp]
  00110	ff 15 00 00 00
	00		 call	 DWORD PTR __imp_??0?$CStringT@DV?$StrTraitMFC_DLL@DV?$ChTraitsCRT@D@ATL@@@@@ATL@@QAE@PAUIAtlStringMgr@1@@Z
; File C:\Program Files (x86)\Microsoft Visual Studio\2019\Community\VC\Tools\MSVC\14.29.30133\atlmfc\include\atlsimpstr.h

; 519  : 		return( GetData()->nDataLength );

  00116	8b 45 10	 mov	 eax, DWORD PTR _strData$[ebp]
; File C:\Program Files (x86)\Microsoft Visual Studio\2019\Community\VC\Tools\MSVC\14.29.30133\atlmfc\include\cstringt.h

; 2446 : 		return( strResult );

  00119	83 cb 04	 or	 ebx, 4
  0011c	c6 45 0f 2b	 mov	 BYTE PTR _chTemp$7[ebp], 43 ; 0000002bH
  00120	89 5d e8	 mov	 DWORD PTR $T2[ebp], ebx
  00123	ff 70 f4	 push	 DWORD PTR [eax-12]
  00126	50		 push	 eax
  00127	6a 01		 push	 1
  00129	8d 45 0f	 lea	 eax, DWORD PTR _chTemp$7[ebp]
  0012c	50		 push	 eax
  0012d	8d 45 f0	 lea	 eax, DWORD PTR $T4[ebp]
  00130	50		 push	 eax
  00131	ff 15 00 00 00
	00		 call	 DWORD PTR __imp_?Concatenate@?$CSimpleStringT@D$00@ATL@@KAXAAV12@PBDH1H@Z
  00137	83 c4 14	 add	 esp, 20			; 00000014H
; File D:\git\src\IBK\IBK_DRFN\ProjSrc\SrcChartEx\ChartOCX\ScaleDraw\DataHorzScaleDrawer.cpp

; 437  : 		strData = '+' + strData;

  0013a	8d 45 f0	 lea	 eax, DWORD PTR $T4[ebp]
  0013d	8d 4d 10	 lea	 ecx, DWORD PTR _strData$[ebp]
  00140	50		 push	 eax
  00141	ff 15 00 00 00
	00		 call	 DWORD PTR __imp_??4?$CStringT@DV?$StrTraitMFC_DLL@DV?$ChTraitsCRT@D@ATL@@@@@ATL@@QAEAAV01@ABV01@@Z
  00147	8d 4d f0	 lea	 ecx, DWORD PTR $T4[ebp]
  0014a	c6 45 fc 02	 mov	 BYTE PTR __$EHRec$[ebp+8], 2
  0014e	ff 15 00 00 00
	00		 call	 DWORD PTR __imp_??1?$CStringT@DV?$StrTraitMFC_DLL@DV?$ChTraitsCRT@D@ATL@@@@@ATL@@QAE@XZ
$LN4@GetData:

; 438  : 
; 439  : 	return strData;

  00154	8b 4d 08	 mov	 ecx, DWORD PTR ___$ReturnUdt$[ebp]
  00157	8d 45 10	 lea	 eax, DWORD PTR _strData$[ebp]
  0015a	50		 push	 eax
  0015b	ff 15 00 00 00
	00		 call	 DWORD PTR __imp_??0?$CStringT@DV?$StrTraitMFC_DLL@DV?$ChTraitsCRT@D@ATL@@@@@ATL@@QAE@ABV01@@Z
  00161	8d 4d 10	 lea	 ecx, DWORD PTR _strData$[ebp]
  00164	ff 15 00 00 00
	00		 call	 DWORD PTR __imp_??1?$CStringT@DV?$StrTraitMFC_DLL@DV?$ChTraitsCRT@D@ATL@@@@@ATL@@QAE@XZ
$LN42@GetData:

; 440  : }

  0016a	8b 45 08	 mov	 eax, DWORD PTR ___$ReturnUdt$[ebp]
  0016d	8b 4d f4	 mov	 ecx, DWORD PTR __$EHRec$[ebp]
  00170	64 89 0d 00 00
	00 00		 mov	 DWORD PTR fs:0, ecx
  00177	59		 pop	 ecx
  00178	5e		 pop	 esi
  00179	5b		 pop	 ebx
  0017a	8b e5		 mov	 esp, ebp
  0017c	5d		 pop	 ebp
  0017d	c2 0c 00	 ret	 12			; 0000000cH
_TEXT	ENDS
;	COMDAT text$x
text$x	SEGMENT
__unwindfunclet$?GetData@CLeftRightScaleDrawer@@ABE?AV?$CStringT@DV?$StrTraitMFC_DLL@DV?$ChTraitsCRT@D@ATL@@@@@ATL@@ABNAAN@Z$1:
  00000	8d 4d ec	 lea	 ecx, DWORD PTR $T3[ebp]
  00003	ff 25 00 00 00
	00		 jmp	 DWORD PTR __imp_??1?$CStringT@DV?$StrTraitMFC_DLL@DV?$ChTraitsCRT@D@ATL@@@@@ATL@@QAE@XZ
__unwindfunclet$?GetData@CLeftRightScaleDrawer@@ABE?AV?$CStringT@DV?$StrTraitMFC_DLL@DV?$ChTraitsCRT@D@ATL@@@@@ATL@@ABNAAN@Z$2:
  00009	8d 4d 10	 lea	 ecx, DWORD PTR _strData$[ebp]
  0000c	ff 25 00 00 00
	00		 jmp	 DWORD PTR __imp_??1?$CStringT@DV?$StrTraitMFC_DLL@DV?$ChTraitsCRT@D@ATL@@@@@ATL@@QAE@XZ
__unwindfunclet$?GetData@CLeftRightScaleDrawer@@ABE?AV?$CStringT@DV?$StrTraitMFC_DLL@DV?$ChTraitsCRT@D@ATL@@@@@ATL@@ABNAAN@Z$5:
  00012	8b 45 e8	 mov	 eax, DWORD PTR $T2[ebp]
  00015	83 e0 04	 and	 eax, 4
  00018	0f 84 0d 00 00
	00		 je	 $LN33@GetData
  0001e	83 65 e8 fb	 and	 DWORD PTR $T2[ebp], -5	; fffffffbH
  00022	8d 4d f0	 lea	 ecx, DWORD PTR $T4[ebp]
  00025	ff 25 00 00 00
	00		 jmp	 DWORD PTR __imp_??1?$CStringT@DV?$StrTraitMFC_DLL@DV?$ChTraitsCRT@D@ATL@@@@@ATL@@QAE@XZ
$LN33@GetData:
  0002b	c3		 ret	 0
  0002c	cc		 int	 3
  0002d	cc		 int	 3
  0002e	cc		 int	 3
  0002f	cc		 int	 3
  00030	cc		 int	 3
__ehhandler$?GetData@CLeftRightScaleDrawer@@ABE?AV?$CStringT@DV?$StrTraitMFC_DLL@DV?$ChTraitsCRT@D@ATL@@@@@ATL@@ABNAAN@Z:
  00031	90		 npad	 1
  00032	90		 npad	 1
  00033	8b 54 24 08	 mov	 edx, DWORD PTR [esp+8]
  00037	8d 42 0c	 lea	 eax, DWORD PTR [edx+12]
  0003a	8b 4a e8	 mov	 ecx, DWORD PTR [edx-24]
  0003d	33 c8		 xor	 ecx, eax
  0003f	e8 00 00 00 00	 call	 @__security_check_cookie@4
  00044	b8 00 00 00 00	 mov	 eax, OFFSET __ehfuncinfo$?GetData@CLeftRightScaleDrawer@@ABE?AV?$CStringT@DV?$StrTraitMFC_DLL@DV?$ChTraitsCRT@D@ATL@@@@@ATL@@ABNAAN@Z
  00049	e9 00 00 00 00	 jmp	 ___CxxFrameHandler3
text$x	ENDS
?GetData@CLeftRightScaleDrawer@@ABE?AV?$CStringT@DV?$StrTraitMFC_DLL@DV?$ChTraitsCRT@D@ATL@@@@@ATL@@ABNAAN@Z ENDP ; CLeftRightScaleDrawer::GetData
; Function compile flags: /Ogtp
; File D:\git\src\IBK\IBK_DRFN\ProjSrc\SrcChartEx\ChartOCX\ScaleDraw\DataHorzScaleDrawer.cpp
;	COMDAT ?GetRealMinMax_FixedRate@CLeftRightScaleDrawer@@ABEXABVCDisplayDataMinMax@@AAN1@Z
_TEXT	SEGMENT
_absMin$1$ = -16					; size = 8
tv139 = -8						; size = 8
tv134 = -8						; size = 8
_displayDataMinMax$ = 8					; size = 4
_dMin$ = 12						; size = 4
_dMax$ = 16						; size = 4
?GetRealMinMax_FixedRate@CLeftRightScaleDrawer@@ABEXABVCDisplayDataMinMax@@AAN1@Z PROC ; CLeftRightScaleDrawer::GetRealMinMax_FixedRate, COMDAT
; _this$ = ecx

; 410  : {

  00000	55		 push	 ebp
  00001	8b ec		 mov	 ebp, esp
  00003	83 ec 10	 sub	 esp, 16			; 00000010H

; 411  : 	// 
; 412  : 	double absMin = fabs(displayDataMinMax.GetDisplayMin());

  00006	8b 4d 08	 mov	 ecx, DWORD PTR _displayDataMinMax$[ebp]
  00009	e8 00 00 00 00	 call	 ?GetDisplayMin@CDisplayDataMinMax@@QBENXZ ; CDisplayDataMinMax::GetDisplayMin

; 413  : 	double absMax = fabs(displayDataMinMax.GetDisplayMax());

  0000e	8b 4d 08	 mov	 ecx, DWORD PTR _displayDataMinMax$[ebp]
  00011	dd 5d f8	 fstp	 QWORD PTR tv139[ebp]
  00014	f2 0f 10 45 f8	 movsd	 xmm0, QWORD PTR tv139[ebp]
  00019	0f 54 05 00 00
	00 00		 andps	 xmm0, QWORD PTR __xmm@7fffffffffffffff7fffffffffffffff
  00020	f2 0f 11 45 f0	 movsd	 QWORD PTR _absMin$1$[ebp], xmm0
  00025	e8 00 00 00 00	 call	 ?GetDisplayMax@CDisplayDataMinMax@@QBENXZ ; CDisplayDataMinMax::GetDisplayMax

; 414  : 
; 415  : 	if(absMin > absMax){

  0002a	f2 0f 10 4d f0	 movsd	 xmm1, QWORD PTR _absMin$1$[ebp]
  0002f	8b 45 0c	 mov	 eax, DWORD PTR _dMin$[ebp]
  00032	dd 5d f8	 fstp	 QWORD PTR tv134[ebp]
  00035	f2 0f 10 55 f8	 movsd	 xmm2, QWORD PTR tv134[ebp]
  0003a	0f 54 15 00 00
	00 00		 andps	 xmm2, QWORD PTR __xmm@7fffffffffffffff7fffffffffffffff
  00041	66 0f 2f ca	 comisd	 xmm1, xmm2
  00045	76 1b		 jbe	 SHORT $LN2@GetRealMin

; 416  : 		dMin = -absMin;

  00047	0f 28 c1	 movaps	 xmm0, xmm1
  0004a	0f 57 05 00 00
	00 00		 xorps	 xmm0, QWORD PTR __xmm@80000000000000008000000000000000
  00051	f2 0f 11 00	 movsd	 QWORD PTR [eax], xmm0

; 417  : 		dMax = absMin;

  00055	8b 45 10	 mov	 eax, DWORD PTR _dMax$[ebp]
  00058	f2 0f 11 08	 movsd	 QWORD PTR [eax], xmm1

; 422  : 	}
; 423  : }

  0005c	8b e5		 mov	 esp, ebp
  0005e	5d		 pop	 ebp
  0005f	c2 0c 00	 ret	 12			; 0000000cH
$LN2@GetRealMin:

; 418  : 	}
; 419  : 	else{
; 420  : 		dMin = -absMax;

  00062	0f 28 c2	 movaps	 xmm0, xmm2
  00065	0f 57 05 00 00
	00 00		 xorps	 xmm0, QWORD PTR __xmm@80000000000000008000000000000000
  0006c	f2 0f 11 00	 movsd	 QWORD PTR [eax], xmm0

; 421  : 		dMax = absMax;

  00070	8b 45 10	 mov	 eax, DWORD PTR _dMax$[ebp]
  00073	f2 0f 11 10	 movsd	 QWORD PTR [eax], xmm2

; 422  : 	}
; 423  : }

  00077	8b e5		 mov	 esp, ebp
  00079	5d		 pop	 ebp
  0007a	c2 0c 00	 ret	 12			; 0000000cH
?GetRealMinMax_FixedRate@CLeftRightScaleDrawer@@ABEXABVCDisplayDataMinMax@@AAN1@Z ENDP ; CLeftRightScaleDrawer::GetRealMinMax_FixedRate
_TEXT	ENDS
; Function compile flags: /Ogtp
; File D:\git\src\IBK\IBK_DRFN\ProjSrc\SrcChartEx\ChartOCX\ScaleDraw\DataHorzScaleDrawer.cpp
;	COMDAT ?GetRealMinMax@CLeftRightScaleDrawer@@ABEXABVCDrawingHorzScaleData@@ABV?$CStringT@DV?$StrTraitMFC_DLL@DV?$ChTraitsCRT@D@ATL@@@@@ATL@@AAN222@Z
_TEXT	SEGMENT
$T1 = -32						; size = 16
$T2 = -32						; size = 16
tv95 = -16						; size = 8
tv81 = -16						; size = 8
$T3 = -16						; size = 8
$T4 = -16						; size = 8
$T5 = -16						; size = 8
$T6 = -16						; size = 8
$T7 = -16						; size = 8
tv263 = -8						; size = 8
tv257 = -8						; size = 8
_drawingHorzScaleData$ = 8				; size = 4
$T8 = 12						; size = 4
_strPacketType$ = 12					; size = 4
_dMiddle_Min$ = 16					; size = 4
_dMiddle_Max$ = 20					; size = 4
_dMin$ = 24						; size = 4
_dMax$ = 28						; size = 4
?GetRealMinMax@CLeftRightScaleDrawer@@ABEXABVCDrawingHorzScaleData@@ABV?$CStringT@DV?$StrTraitMFC_DLL@DV?$ChTraitsCRT@D@ATL@@@@@ATL@@AAN222@Z PROC ; CLeftRightScaleDrawer::GetRealMinMax, COMDAT
; _this$ = ecx

; 392  : {

  00000	55		 push	 ebp
  00001	8b ec		 mov	 ebp, esp
  00003	83 ec 20	 sub	 esp, 32			; 00000020H
  00006	56		 push	 esi
  00007	57		 push	 edi

; 393  : 	int nRoundPosition = CDataConversion::GetDecimalDownCount(strPacketType) +1;

  00008	6a 01		 push	 1
  0000a	ff 75 0c	 push	 DWORD PTR _strPacketType$[ebp]
  0000d	e8 00 00 00 00	 call	 ?GetDecimalDownCount@CDataConversion@@SAHABV?$CStringT@DV?$StrTraitMFC_DLL@DV?$ChTraitsCRT@D@ATL@@@@@ATL@@_N@Z ; CDataConversion::GetDecimalDownCount

; 394  : 
; 395  : 	// 
; 396  : 	if(drawingHorzScaleData.GetHeadGraphStyle().GetGraphBarStyle() == CGraphBaseData::FixedRateLeftRightBar){

  00012	8b 75 08	 mov	 esi, DWORD PTR _drawingHorzScaleData$[ebp]
  00015	83 c4 08	 add	 esp, 8
  00018	8b ce		 mov	 ecx, esi
  0001a	8d 78 01	 lea	 edi, DWORD PTR [eax+1]
  0001d	8d 45 0c	 lea	 eax, DWORD PTR $T8[ebp]
  00020	50		 push	 eax
  00021	e8 00 00 00 00	 call	 ?GetHeadGraphStyle@CDrawingHorzScaleData@@QBE?AVCGraphStyle@@XZ ; CDrawingHorzScaleData::GetHeadGraphStyle
  00026	8b ce		 mov	 ecx, esi
  00028	83 38 0d	 cmp	 DWORD PTR [eax], 13	; 0000000dH
  0002b	8d 45 e0	 lea	 eax, DWORD PTR $T2[ebp]
  0002e	50		 push	 eax
  0002f	0f 85 b4 00 00
	00		 jne	 $LN2@GetRealMin

; 397  : 		GetRealMinMax_FixedRate(drawingHorzScaleData.GetDisplayDataMinMax(), dMin, dMax);

  00035	e8 00 00 00 00	 call	 ?GetDisplayDataMinMax@CDrawingHorzScaleData@@QBE?AVCDisplayDataMinMax@@XZ ; CDrawingHorzScaleData::GetDisplayDataMinMax
  0003a	8b f0		 mov	 esi, eax

; 412  : 	double absMin = fabs(displayDataMinMax.GetDisplayMin());

  0003c	8b ce		 mov	 ecx, esi
  0003e	e8 00 00 00 00	 call	 ?GetDisplayMin@CDisplayDataMinMax@@QBENXZ ; CDisplayDataMinMax::GetDisplayMin
  00043	dd 5d f8	 fstp	 QWORD PTR tv263[ebp]
  00046	f2 0f 10 45 f8	 movsd	 xmm0, QWORD PTR tv263[ebp]

; 413  : 	double absMax = fabs(displayDataMinMax.GetDisplayMax());

  0004b	8b ce		 mov	 ecx, esi
  0004d	0f 54 05 00 00
	00 00		 andps	 xmm0, QWORD PTR __xmm@7fffffffffffffff7fffffffffffffff
  00054	f2 0f 11 45 f0	 movsd	 QWORD PTR $T4[ebp], xmm0
  00059	e8 00 00 00 00	 call	 ?GetDisplayMax@CDisplayDataMinMax@@QBENXZ ; CDisplayDataMinMax::GetDisplayMax

; 414  : 
; 415  : 	if(absMin > absMax){

  0005e	f2 0f 10 4d f0	 movsd	 xmm1, QWORD PTR $T4[ebp]
  00063	8b 45 18	 mov	 eax, DWORD PTR _dMin$[ebp]
  00066	dd 5d f8	 fstp	 QWORD PTR tv257[ebp]
  00069	f2 0f 10 55 f8	 movsd	 xmm2, QWORD PTR tv257[ebp]
  0006e	0f 54 15 00 00
	00 00		 andps	 xmm2, QWORD PTR __xmm@7fffffffffffffff7fffffffffffffff
  00075	66 0f 2f ca	 comisd	 xmm1, xmm2
  00079	76 17		 jbe	 SHORT $LN6@GetRealMin

; 416  : 		dMin = -absMin;

  0007b	0f 28 c1	 movaps	 xmm0, xmm1
  0007e	0f 57 05 00 00
	00 00		 xorps	 xmm0, QWORD PTR __xmm@80000000000000008000000000000000
  00085	f2 0f 11 00	 movsd	 QWORD PTR [eax], xmm0

; 417  : 		dMax = absMin;

  00089	8b 45 1c	 mov	 eax, DWORD PTR _dMax$[ebp]
  0008c	f2 0f 11 08	 movsd	 QWORD PTR [eax], xmm1

; 418  : 	}

  00090	eb 18		 jmp	 SHORT $LN7@GetRealMin
$LN6@GetRealMin:

; 419  : 	else{
; 420  : 		dMin = -absMax;

  00092	0f 28 c2	 movaps	 xmm0, xmm2

; 421  : 		dMax = absMax;

  00095	0f 28 ca	 movaps	 xmm1, xmm2
  00098	0f 57 05 00 00
	00 00		 xorps	 xmm0, QWORD PTR __xmm@80000000000000008000000000000000
  0009f	f2 0f 11 00	 movsd	 QWORD PTR [eax], xmm0
  000a3	8b 45 1c	 mov	 eax, DWORD PTR _dMax$[ebp]
  000a6	f2 0f 11 10	 movsd	 QWORD PTR [eax], xmm2
$LN7@GetRealMin:

; 398  : 		dMiddle_Max = CMath::Floor(dMax/2.0, nRoundPosition);

  000aa	f2 0f 59 0d 00
	00 00 00	 mulsd	 xmm1, QWORD PTR __real@3fe0000000000000
  000b2	8d 45 f0	 lea	 eax, DWORD PTR $T7[ebp]
  000b5	57		 push	 edi
  000b6	50		 push	 eax
  000b7	f2 0f 11 4d f0	 movsd	 QWORD PTR $T7[ebp], xmm1
  000bc	e8 00 00 00 00	 call	 ?Floor@CMath@@SANABNH@Z	; CMath::Floor
  000c1	8b 45 14	 mov	 eax, DWORD PTR _dMiddle_Max$[ebp]
  000c4	83 c4 08	 add	 esp, 8
  000c7	dd 5d f0	 fstp	 QWORD PTR tv81[ebp]
  000ca	f2 0f 10 45 f0	 movsd	 xmm0, QWORD PTR tv81[ebp]
  000cf	f2 0f 11 00	 movsd	 QWORD PTR [eax], xmm0

; 406  : 	}
; 407  : }

  000d3	8b 45 10	 mov	 eax, DWORD PTR _dMiddle_Min$[ebp]
  000d6	0f 57 05 00 00
	00 00		 xorps	 xmm0, QWORD PTR __xmm@80000000000000008000000000000000
  000dd	5f		 pop	 edi
  000de	5e		 pop	 esi
  000df	f2 0f 11 00	 movsd	 QWORD PTR [eax], xmm0
  000e3	8b e5		 mov	 esp, ebp
  000e5	5d		 pop	 ebp
  000e6	c2 18 00	 ret	 24			; 00000018H
$LN2@GetRealMin:

; 399  : 		dMiddle_Min = -dMiddle_Max;
; 400  : 	}
; 401  : 	else{
; 402  : 		dMin = drawingHorzScaleData.GetDisplayDataMinMax().GetDisplayMin();

  000e9	e8 00 00 00 00	 call	 ?GetDisplayDataMinMax@CDrawingHorzScaleData@@QBE?AVCDisplayDataMinMax@@XZ ; CDrawingHorzScaleData::GetDisplayDataMinMax
  000ee	8b c8		 mov	 ecx, eax
  000f0	e8 00 00 00 00	 call	 ?GetDisplayMin@CDisplayDataMinMax@@QBENXZ ; CDisplayDataMinMax::GetDisplayMin
  000f5	8b 75 18	 mov	 esi, DWORD PTR _dMin$[ebp]

; 403  : 		dMax = drawingHorzScaleData.GetDisplayDataMinMax().GetDisplayMax();

  000f8	8d 45 e0	 lea	 eax, DWORD PTR $T1[ebp]
  000fb	8b 4d 08	 mov	 ecx, DWORD PTR _drawingHorzScaleData$[ebp]
  000fe	50		 push	 eax
  000ff	dd 1e		 fstp	 QWORD PTR [esi]
  00101	e8 00 00 00 00	 call	 ?GetDisplayDataMinMax@CDrawingHorzScaleData@@QBE?AVCDisplayDataMinMax@@XZ ; CDrawingHorzScaleData::GetDisplayDataMinMax
  00106	8b c8		 mov	 ecx, eax
  00108	e8 00 00 00 00	 call	 ?GetDisplayMax@CDisplayDataMinMax@@QBENXZ ; CDisplayDataMinMax::GetDisplayMax
  0010d	8b 45 1c	 mov	 eax, DWORD PTR _dMax$[ebp]
  00110	dd 5d f0	 fstp	 QWORD PTR tv95[ebp]
  00113	f2 0f 10 45 f0	 movsd	 xmm0, QWORD PTR tv95[ebp]

; 404  : 		dMiddle_Max = CMath::Floor(dMax/2.0, nRoundPosition);

  00118	57		 push	 edi
  00119	f2 0f 11 00	 movsd	 QWORD PTR [eax], xmm0
  0011d	8d 45 f0	 lea	 eax, DWORD PTR $T6[ebp]
  00120	f2 0f 59 05 00
	00 00 00	 mulsd	 xmm0, QWORD PTR __real@3fe0000000000000
  00128	50		 push	 eax
  00129	f2 0f 11 45 f0	 movsd	 QWORD PTR $T6[ebp], xmm0
  0012e	e8 00 00 00 00	 call	 ?Floor@CMath@@SANABNH@Z	; CMath::Floor
  00133	8b 45 14	 mov	 eax, DWORD PTR _dMiddle_Max$[ebp]

; 405  : 		dMiddle_Min = CMath::Floor(dMin/2.0, nRoundPosition);

  00136	57		 push	 edi
  00137	dd 18		 fstp	 QWORD PTR [eax]
  00139	f2 0f 10 06	 movsd	 xmm0, QWORD PTR [esi]
  0013d	8d 45 f0	 lea	 eax, DWORD PTR $T5[ebp]
  00140	f2 0f 59 05 00
	00 00 00	 mulsd	 xmm0, QWORD PTR __real@3fe0000000000000
  00148	50		 push	 eax
  00149	f2 0f 11 45 f0	 movsd	 QWORD PTR $T5[ebp], xmm0
  0014e	e8 00 00 00 00	 call	 ?Floor@CMath@@SANABNH@Z	; CMath::Floor

; 406  : 	}
; 407  : }

  00153	8b 45 10	 mov	 eax, DWORD PTR _dMiddle_Min$[ebp]
  00156	83 c4 10	 add	 esp, 16			; 00000010H
  00159	dd 5d f0	 fstp	 QWORD PTR $T3[ebp]
  0015c	f2 0f 10 45 f0	 movsd	 xmm0, QWORD PTR $T3[ebp]
  00161	5f		 pop	 edi
  00162	f2 0f 11 00	 movsd	 QWORD PTR [eax], xmm0
  00166	5e		 pop	 esi
  00167	8b e5		 mov	 esp, ebp
  00169	5d		 pop	 ebp
  0016a	c2 18 00	 ret	 24			; 00000018H
?GetRealMinMax@CLeftRightScaleDrawer@@ABEXABVCDrawingHorzScaleData@@ABV?$CStringT@DV?$StrTraitMFC_DLL@DV?$ChTraitsCRT@D@ATL@@@@@ATL@@AAN222@Z ENDP ; CLeftRightScaleDrawer::GetRealMinMax
_TEXT	ENDS
; Function compile flags: /Ogtp
; File D:\git\src\IBK\IBK_DRFN\ProjSrc\SrcChartEx\ChartOCX\ScaleDraw\DataHorzScaleDrawer.cpp
;	COMDAT ?GetDataListAndMinMax@CLeftRightScaleDrawer@@ABE_NABVCDrawingHorzScaleData@@AAV?$CList@NN@@AAN2@Z
_TEXT	SEGMENT
_displayDataMinMax$ = -88				; size = 16
_dStandardData$1$ = -72					; size = 8
$T2 = -64						; size = 16
$T3 = -64						; size = 16
$T4 = -56						; size = 8
tv334 = -48						; size = 8
tv321 = -48						; size = 8
tv316 = -48						; size = 8
_dMiddle_Min$1$ = -48					; size = 8
$T5 = -48						; size = 8
$T6 = -48						; size = 8
_dMiddle_Min$ = -48					; size = 8
_dRealMin$ = -40					; size = 8
_dRealMax$ = -32					; size = 8
$T7 = -24						; size = 8
_dMiddle_Max$ = -24					; size = 8
$T8 = -20						; size = 4
$T9 = -16						; size = 4
__$EHRec$ = -12						; size = 12
_nRoundPosition$1$ = 8					; size = 4
_drawingHorzScaleData$ = 8				; size = 4
_dataList$ = 12						; size = 4
_dMin$ = 16						; size = 4
_dMax$ = 20						; size = 4
?GetDataListAndMinMax@CLeftRightScaleDrawer@@ABE_NABVCDrawingHorzScaleData@@AAV?$CList@NN@@AAN2@Z PROC ; CLeftRightScaleDrawer::GetDataListAndMinMax, COMDAT
; _this$ = ecx

; 366  : {

  00000	55		 push	 ebp
  00001	8b ec		 mov	 ebp, esp
  00003	6a ff		 push	 -1
  00005	68 00 00 00 00	 push	 __ehhandler$?GetDataListAndMinMax@CLeftRightScaleDrawer@@ABE_NABVCDrawingHorzScaleData@@AAV?$CList@NN@@AAN2@Z
  0000a	64 a1 00 00 00
	00		 mov	 eax, DWORD PTR fs:0
  00010	50		 push	 eax
  00011	83 ec 4c	 sub	 esp, 76			; 0000004cH
  00014	56		 push	 esi
  00015	57		 push	 edi
  00016	a1 00 00 00 00	 mov	 eax, DWORD PTR ___security_cookie
  0001b	33 c5		 xor	 eax, ebp
  0001d	50		 push	 eax
  0001e	8d 45 f4	 lea	 eax, DWORD PTR __$EHRec$[ebp]
  00021	64 a3 00 00 00
	00		 mov	 DWORD PTR fs:0, eax

; 367  : 	CPacket* pPacket = drawingHorzScaleData.GetPacket();

  00027	8b 7d 08	 mov	 edi, DWORD PTR _drawingHorzScaleData$[ebp]
  0002a	8b cf		 mov	 ecx, edi
  0002c	e8 00 00 00 00	 call	 ?GetPacket@CDrawingHorzScaleData@@QBEPAVCPacket@@XZ ; CDrawingHorzScaleData::GetPacket
  00031	8b f0		 mov	 esi, eax

; 368  : 	if(pPacket == NULL || pPacket->GetCount() <= 0)

  00033	85 f6		 test	 esi, esi
  00035	0f 84 1e 02 00
	00		 je	 $LN3@GetDataLis
  0003b	8b 16		 mov	 edx, DWORD PTR [esi]
  0003d	8b ce		 mov	 ecx, esi
  0003f	8b 52 14	 mov	 edx, DWORD PTR [edx+20]
  00042	ff d2		 call	 edx
  00044	85 c0		 test	 eax, eax
  00046	0f 8e 0d 02 00
	00		 jle	 $LN3@GetDataLis

; 370  : 
; 371  : 	double dStandardData = pPacket->GetStandardValue();

  0004c	6a 00		 push	 0
  0004e	8b ce		 mov	 ecx, esi
  00050	ff 15 00 00 00
	00		 call	 DWORD PTR __imp_?GetStandardValue@CPacket@@QAENH@Z
  00056	0f 57 c0	 xorps	 xmm0, xmm0

; 372  : 	if(dStandardData < 0)
; 373  : 		dStandardData = 0;
; 374  : 
; 375  : 	double dMiddle_Min(0.0), dMiddle_Max(0.0), dRealMin(0.0), dRealMax(0.0);
; 376  : 	GetRealMinMax(drawingHorzScaleData, pPacket->GetType(), dMiddle_Min, dMiddle_Max, dRealMin, dRealMax);

  00059	8d 45 f0	 lea	 eax, DWORD PTR $T9[ebp]
  0005c	dd 5d d0	 fstp	 QWORD PTR tv334[ebp]
  0005f	f2 0f 5f 45 d0	 maxsd	 xmm0, QWORD PTR tv334[ebp]
  00064	6a 01		 push	 1
  00066	50		 push	 eax
  00067	8b ce		 mov	 ecx, esi
  00069	f2 0f 11 45 b8	 movsd	 QWORD PTR _dStandardData$1$[ebp], xmm0
  0006e	ff 15 00 00 00
	00		 call	 DWORD PTR __imp_?GetType@CPacket@@QAE?AV?$CStringT@DV?$StrTraitMFC_DLL@DV?$ChTraitsCRT@D@ATL@@@@@ATL@@_N@Z

; 393  : 	int nRoundPosition = CDataConversion::GetDecimalDownCount(strPacketType) +1;

  00074	6a 01		 push	 1
  00076	50		 push	 eax

; 372  : 	if(dStandardData < 0)
; 373  : 		dStandardData = 0;
; 374  : 
; 375  : 	double dMiddle_Min(0.0), dMiddle_Max(0.0), dRealMin(0.0), dRealMax(0.0);
; 376  : 	GetRealMinMax(drawingHorzScaleData, pPacket->GetType(), dMiddle_Min, dMiddle_Max, dRealMin, dRealMax);

  00077	c7 45 fc 00 00
	00 00		 mov	 DWORD PTR __$EHRec$[ebp+8], 0

; 393  : 	int nRoundPosition = CDataConversion::GetDecimalDownCount(strPacketType) +1;

  0007e	e8 00 00 00 00	 call	 ?GetDecimalDownCount@CDataConversion@@SAHABV?$CStringT@DV?$StrTraitMFC_DLL@DV?$ChTraitsCRT@D@ATL@@@@@ATL@@_N@Z ; CDataConversion::GetDecimalDownCount
  00083	83 c4 08	 add	 esp, 8

; 394  : 
; 395  : 	// 
; 396  : 	if(drawingHorzScaleData.GetHeadGraphStyle().GetGraphBarStyle() == CGraphBaseData::FixedRateLeftRightBar){

  00086	8b cf		 mov	 ecx, edi
  00088	8d 70 01	 lea	 esi, DWORD PTR [eax+1]
  0008b	8d 45 ec	 lea	 eax, DWORD PTR $T8[ebp]
  0008e	89 75 08	 mov	 DWORD PTR _nRoundPosition$1$[ebp], esi
  00091	50		 push	 eax
  00092	e8 00 00 00 00	 call	 ?GetHeadGraphStyle@CDrawingHorzScaleData@@QBE?AVCGraphStyle@@XZ ; CDrawingHorzScaleData::GetHeadGraphStyle
  00097	8b cf		 mov	 ecx, edi
  00099	83 38 0d	 cmp	 DWORD PTR [eax], 13	; 0000000dH
  0009c	8d 45 c0	 lea	 eax, DWORD PTR $T3[ebp]
  0009f	50		 push	 eax
  000a0	0f 85 8e 00 00
	00		 jne	 $LN8@GetDataLis

; 397  : 		GetRealMinMax_FixedRate(drawingHorzScaleData.GetDisplayDataMinMax(), dMin, dMax);

  000a6	e8 00 00 00 00	 call	 ?GetDisplayDataMinMax@CDrawingHorzScaleData@@QBE?AVCDisplayDataMinMax@@XZ ; CDrawingHorzScaleData::GetDisplayDataMinMax
  000ab	8b f0		 mov	 esi, eax

; 412  : 	double absMin = fabs(displayDataMinMax.GetDisplayMin());

  000ad	8b ce		 mov	 ecx, esi
  000af	e8 00 00 00 00	 call	 ?GetDisplayMin@CDisplayDataMinMax@@QBENXZ ; CDisplayDataMinMax::GetDisplayMin
  000b4	dd 5d d0	 fstp	 QWORD PTR tv321[ebp]
  000b7	f2 0f 10 45 d0	 movsd	 xmm0, QWORD PTR tv321[ebp]

; 413  : 	double absMax = fabs(displayDataMinMax.GetDisplayMax());

  000bc	8b ce		 mov	 ecx, esi
  000be	0f 54 05 00 00
	00 00		 andps	 xmm0, QWORD PTR __xmm@7fffffffffffffff7fffffffffffffff
  000c5	f2 0f 11 45 e8	 movsd	 QWORD PTR $T7[ebp], xmm0
  000ca	e8 00 00 00 00	 call	 ?GetDisplayMax@CDisplayDataMinMax@@QBENXZ ; CDisplayDataMinMax::GetDisplayMax

; 414  : 
; 415  : 	if(absMin > absMax){

  000cf	f2 0f 10 4d e8	 movsd	 xmm1, QWORD PTR $T7[ebp]
  000d4	dd 5d d0	 fstp	 QWORD PTR tv316[ebp]
  000d7	f2 0f 10 45 d0	 movsd	 xmm0, QWORD PTR tv316[ebp]
  000dc	0f 54 05 00 00
	00 00		 andps	 xmm0, QWORD PTR __xmm@7fffffffffffffff7fffffffffffffff
  000e3	66 0f 2f c8	 comisd	 xmm1, xmm0
  000e7	76 07		 jbe	 SHORT $LN12@GetDataLis

; 416  : 		dMin = -absMin;
; 417  : 		dMax = absMin;

  000e9	f2 0f 11 4d e0	 movsd	 QWORD PTR _dRealMax$[ebp], xmm1

; 418  : 	}

  000ee	eb 08		 jmp	 SHORT $LN13@GetDataLis
$LN12@GetDataLis:

; 419  : 	else{
; 420  : 		dMin = -absMax;
; 421  : 		dMax = absMax;

  000f0	f2 0f 11 45 e0	 movsd	 QWORD PTR _dRealMax$[ebp], xmm0
  000f5	0f 28 c8	 movaps	 xmm1, xmm0
$LN13@GetDataLis:

; 398  : 		dMiddle_Max = CMath::Floor(dMax/2.0, nRoundPosition);

  000f8	ff 75 08	 push	 DWORD PTR _nRoundPosition$1$[ebp]
  000fb	0f 28 c1	 movaps	 xmm0, xmm1
  000fe	8d 45 d0	 lea	 eax, DWORD PTR $T6[ebp]
  00101	f2 0f 59 0d 00
	00 00 00	 mulsd	 xmm1, QWORD PTR __real@3fe0000000000000
  00109	50		 push	 eax
  0010a	0f 57 05 00 00
	00 00		 xorps	 xmm0, QWORD PTR __xmm@80000000000000008000000000000000
  00111	f2 0f 11 45 d8	 movsd	 QWORD PTR _dRealMin$[ebp], xmm0
  00116	f2 0f 11 4d d0	 movsd	 QWORD PTR $T6[ebp], xmm1
  0011b	e8 00 00 00 00	 call	 ?Floor@CMath@@SANABNH@Z	; CMath::Floor
  00120	dd 5d e8	 fstp	 QWORD PTR _dMiddle_Max$[ebp]

; 399  : 		dMiddle_Min = -dMiddle_Max;

  00123	f2 0f 10 45 e8	 movsd	 xmm0, QWORD PTR _dMiddle_Max$[ebp]
  00128	83 c4 08	 add	 esp, 8
  0012b	0f 57 05 00 00
	00 00		 xorps	 xmm0, QWORD PTR __xmm@80000000000000008000000000000000

; 400  : 	}

  00132	eb 6a		 jmp	 SHORT $LN16@GetDataLis
$LN8@GetDataLis:

; 401  : 	else{
; 402  : 		dMin = drawingHorzScaleData.GetDisplayDataMinMax().GetDisplayMin();

  00134	e8 00 00 00 00	 call	 ?GetDisplayDataMinMax@CDrawingHorzScaleData@@QBE?AVCDisplayDataMinMax@@XZ ; CDrawingHorzScaleData::GetDisplayDataMinMax
  00139	8b c8		 mov	 ecx, eax
  0013b	e8 00 00 00 00	 call	 ?GetDisplayMin@CDisplayDataMinMax@@QBENXZ ; CDisplayDataMinMax::GetDisplayMin

; 403  : 		dMax = drawingHorzScaleData.GetDisplayDataMinMax().GetDisplayMax();

  00140	8d 45 c0	 lea	 eax, DWORD PTR $T2[ebp]
  00143	8b cf		 mov	 ecx, edi
  00145	50		 push	 eax
  00146	dd 5d d8	 fstp	 QWORD PTR _dRealMin$[ebp]
  00149	e8 00 00 00 00	 call	 ?GetDisplayDataMinMax@CDrawingHorzScaleData@@QBE?AVCDisplayDataMinMax@@XZ ; CDrawingHorzScaleData::GetDisplayDataMinMax
  0014e	8b c8		 mov	 ecx, eax
  00150	e8 00 00 00 00	 call	 ?GetDisplayMax@CDisplayDataMinMax@@QBENXZ ; CDisplayDataMinMax::GetDisplayMax
  00155	dd 5d e0	 fstp	 QWORD PTR _dRealMax$[ebp]

; 404  : 		dMiddle_Max = CMath::Floor(dMax/2.0, nRoundPosition);

  00158	f2 0f 10 45 e0	 movsd	 xmm0, QWORD PTR _dRealMax$[ebp]
  0015d	8d 45 d0	 lea	 eax, DWORD PTR $T5[ebp]
  00160	f2 0f 59 05 00
	00 00 00	 mulsd	 xmm0, QWORD PTR __real@3fe0000000000000
  00168	56		 push	 esi
  00169	50		 push	 eax
  0016a	f2 0f 11 45 d0	 movsd	 QWORD PTR $T5[ebp], xmm0
  0016f	e8 00 00 00 00	 call	 ?Floor@CMath@@SANABNH@Z	; CMath::Floor

; 405  : 		dMiddle_Min = CMath::Floor(dMin/2.0, nRoundPosition);

  00174	f2 0f 10 45 d8	 movsd	 xmm0, QWORD PTR _dRealMin$[ebp]
  00179	8d 45 c8	 lea	 eax, DWORD PTR $T4[ebp]
  0017c	f2 0f 59 05 00
	00 00 00	 mulsd	 xmm0, QWORD PTR __real@3fe0000000000000
  00184	56		 push	 esi
  00185	dd 5d e8	 fstp	 QWORD PTR _dMiddle_Max$[ebp]
  00188	50		 push	 eax
  00189	f2 0f 11 45 c8	 movsd	 QWORD PTR $T4[ebp], xmm0
  0018e	e8 00 00 00 00	 call	 ?Floor@CMath@@SANABNH@Z	; CMath::Floor
  00193	dd 5d d0	 fstp	 QWORD PTR _dMiddle_Min$[ebp]
  00196	f2 0f 10 45 d0	 movsd	 xmm0, QWORD PTR _dMiddle_Min$[ebp]
  0019b	83 c4 10	 add	 esp, 16			; 00000010H
$LN16@GetDataLis:

; 372  : 	if(dStandardData < 0)
; 373  : 		dStandardData = 0;
; 374  : 
; 375  : 	double dMiddle_Min(0.0), dMiddle_Max(0.0), dRealMin(0.0), dRealMax(0.0);
; 376  : 	GetRealMinMax(drawingHorzScaleData, pPacket->GetType(), dMiddle_Min, dMiddle_Max, dRealMin, dRealMax);

  0019e	8d 4d f0	 lea	 ecx, DWORD PTR $T9[ebp]
  001a1	f2 0f 11 45 d0	 movsd	 QWORD PTR _dMiddle_Min$1$[ebp], xmm0
  001a6	c7 45 fc ff ff
	ff ff		 mov	 DWORD PTR __$EHRec$[ebp+8], -1
  001ad	ff 15 00 00 00
	00		 call	 DWORD PTR __imp_??1?$CStringT@DV?$StrTraitMFC_DLL@DV?$ChTraitsCRT@D@ATL@@@@@ATL@@QAE@XZ

; 377  : 
; 378  : 	dataList.AddTail(dRealMin);

  001b3	f2 0f 10 45 d8	 movsd	 xmm0, QWORD PTR _dRealMin$[ebp]
  001b8	83 ec 08	 sub	 esp, 8
  001bb	8b 75 0c	 mov	 esi, DWORD PTR _dataList$[ebp]
  001be	8b ce		 mov	 ecx, esi
  001c0	f2 0f 11 04 24	 movsd	 QWORD PTR [esp], xmm0
  001c5	e8 00 00 00 00	 call	 ?AddTail@?$CList@NN@@QAEPAU__POSITION@@N@Z ; CList<double,double>::AddTail

; 379  : 	dataList.AddTail(dMiddle_Min);

  001ca	f2 0f 10 45 d0	 movsd	 xmm0, QWORD PTR _dMiddle_Min$1$[ebp]
  001cf	83 ec 08	 sub	 esp, 8
  001d2	8b ce		 mov	 ecx, esi
  001d4	f2 0f 11 04 24	 movsd	 QWORD PTR [esp], xmm0
  001d9	e8 00 00 00 00	 call	 ?AddTail@?$CList@NN@@QAEPAU__POSITION@@N@Z ; CList<double,double>::AddTail

; 380  : 	dataList.AddTail(dStandardData);

  001de	f2 0f 10 45 b8	 movsd	 xmm0, QWORD PTR _dStandardData$1$[ebp]
  001e3	83 ec 08	 sub	 esp, 8
  001e6	8b ce		 mov	 ecx, esi
  001e8	f2 0f 11 04 24	 movsd	 QWORD PTR [esp], xmm0
  001ed	e8 00 00 00 00	 call	 ?AddTail@?$CList@NN@@QAEPAU__POSITION@@N@Z ; CList<double,double>::AddTail

; 381  : 	dataList.AddTail(dMiddle_Max);

  001f2	f2 0f 10 45 e8	 movsd	 xmm0, QWORD PTR _dMiddle_Max$[ebp]
  001f7	83 ec 08	 sub	 esp, 8
  001fa	8b ce		 mov	 ecx, esi
  001fc	f2 0f 11 04 24	 movsd	 QWORD PTR [esp], xmm0
  00201	e8 00 00 00 00	 call	 ?AddTail@?$CList@NN@@QAEPAU__POSITION@@N@Z ; CList<double,double>::AddTail

; 382  : 	dataList.AddTail(dRealMax);

  00206	f2 0f 10 45 e0	 movsd	 xmm0, QWORD PTR _dRealMax$[ebp]
  0020b	83 ec 08	 sub	 esp, 8
  0020e	8b ce		 mov	 ecx, esi
  00210	f2 0f 11 04 24	 movsd	 QWORD PTR [esp], xmm0
  00215	e8 00 00 00 00	 call	 ?AddTail@?$CList@NN@@QAEPAU__POSITION@@N@Z ; CList<double,double>::AddTail

; 383  : 
; 384  : 	//   . (6%)
; 385  : 	CDisplayDataMinMax displayDataMinMax(dRealMin, dRealMax);

  0021a	8d 45 e0	 lea	 eax, DWORD PTR _dRealMax$[ebp]
  0021d	50		 push	 eax
  0021e	8d 45 d8	 lea	 eax, DWORD PTR _dRealMin$[ebp]
  00221	50		 push	 eax
  00222	8d 4d a8	 lea	 ecx, DWORD PTR _displayDataMinMax$[ebp]
  00225	e8 00 00 00 00	 call	 ??0CDisplayDataMinMax@@QAE@ABN0@Z ; CDisplayDataMinMax::CDisplayDataMinMax

; 386  : 	dMin = displayDataMinMax.GetMarginDisplayMin();

  0022a	8d 4d a8	 lea	 ecx, DWORD PTR _displayDataMinMax$[ebp]
  0022d	e8 00 00 00 00	 call	 ?GetMarginDisplayMin@CDisplayDataMinMax@@QBENXZ ; CDisplayDataMinMax::GetMarginDisplayMin
  00232	8b 45 10	 mov	 eax, DWORD PTR _dMin$[ebp]

; 387  : 	dMax = displayDataMinMax.GetMarginDisplayMax();

  00235	8d 4d a8	 lea	 ecx, DWORD PTR _displayDataMinMax$[ebp]
  00238	dd 18		 fstp	 QWORD PTR [eax]
  0023a	e8 00 00 00 00	 call	 ?GetMarginDisplayMax@CDisplayDataMinMax@@QBENXZ ; CDisplayDataMinMax::GetMarginDisplayMax
  0023f	8b 45 14	 mov	 eax, DWORD PTR _dMax$[ebp]
  00242	dd 18		 fstp	 QWORD PTR [eax]

; 388  : 	return true;

  00244	b0 01		 mov	 al, 1

; 389  : }

  00246	8b 4d f4	 mov	 ecx, DWORD PTR __$EHRec$[ebp]
  00249	64 89 0d 00 00
	00 00		 mov	 DWORD PTR fs:0, ecx
  00250	59		 pop	 ecx
  00251	5f		 pop	 edi
  00252	5e		 pop	 esi
  00253	8b e5		 mov	 esp, ebp
  00255	5d		 pop	 ebp
  00256	c2 10 00	 ret	 16			; 00000010H
$LN3@GetDataLis:

; 369  : 		return false;

  00259	32 c0		 xor	 al, al

; 389  : }

  0025b	8b 4d f4	 mov	 ecx, DWORD PTR __$EHRec$[ebp]
  0025e	64 89 0d 00 00
	00 00		 mov	 DWORD PTR fs:0, ecx
  00265	59		 pop	 ecx
  00266	5f		 pop	 edi
  00267	5e		 pop	 esi
  00268	8b e5		 mov	 esp, ebp
  0026a	5d		 pop	 ebp
  0026b	c2 10 00	 ret	 16			; 00000010H
_TEXT	ENDS
;	COMDAT text$x
text$x	SEGMENT
__unwindfunclet$?GetDataListAndMinMax@CLeftRightScaleDrawer@@ABE_NABVCDrawingHorzScaleData@@AAV?$CList@NN@@AAN2@Z$0:
  00000	8d 4d f0	 lea	 ecx, DWORD PTR $T9[ebp]
  00003	ff 25 00 00 00
	00		 jmp	 DWORD PTR __imp_??1?$CStringT@DV?$StrTraitMFC_DLL@DV?$ChTraitsCRT@D@ATL@@@@@ATL@@QAE@XZ
  00009	cc		 int	 3
  0000a	cc		 int	 3
  0000b	cc		 int	 3
  0000c	cc		 int	 3
  0000d	cc		 int	 3
__ehhandler$?GetDataListAndMinMax@CLeftRightScaleDrawer@@ABE_NABVCDrawingHorzScaleData@@AAV?$CList@NN@@AAN2@Z:
  0000e	90		 npad	 1
  0000f	90		 npad	 1
  00010	8b 54 24 08	 mov	 edx, DWORD PTR [esp+8]
  00014	8d 42 0c	 lea	 eax, DWORD PTR [edx+12]
  00017	8b 4a a8	 mov	 ecx, DWORD PTR [edx-88]
  0001a	33 c8		 xor	 ecx, eax
  0001c	e8 00 00 00 00	 call	 @__security_check_cookie@4
  00021	b8 00 00 00 00	 mov	 eax, OFFSET __ehfuncinfo$?GetDataListAndMinMax@CLeftRightScaleDrawer@@ABE_NABVCDrawingHorzScaleData@@AAV?$CList@NN@@AAN2@Z
  00026	e9 00 00 00 00	 jmp	 ___CxxFrameHandler3
text$x	ENDS
?GetDataListAndMinMax@CLeftRightScaleDrawer@@ABE_NABVCDrawingHorzScaleData@@AAV?$CList@NN@@AAN2@Z ENDP ; CLeftRightScaleDrawer::GetDataListAndMinMax
; Function compile flags: /Ogtp
; File D:\git\src\IBK\IBK_DRFN\ProjSrc\SrcChartEx\ChartOCX\ScaleDraw\DataHorzScaleDrawer.cpp
;	COMDAT ?GetDrawingEnvironment@CLeftRightScaleDrawer@@ABE_NABVCDrawingHorzScaleData@@ABVCRect@@HAAV?$CList@NN@@AAN33AAH@Z
_TEXT	SEGMENT
$T1 = -8						; size = 8
_drawingHorzScaleData$ = 8				; size = 4
_scaleRegion$ = 12					; size = 4
_nTextHeight$ = 16					; size = 4
_dataList$ = 20						; size = 4
_dMin$ = 24						; size = 4
_dMax$ = 28						; size = 4
_dOnePtWidth$ = 32					; size = 4
_nPosPt_y$ = 36						; size = 4
?GetDrawingEnvironment@CLeftRightScaleDrawer@@ABE_NABVCDrawingHorzScaleData@@ABVCRect@@HAAV?$CList@NN@@AAN33AAH@Z PROC ; CLeftRightScaleDrawer::GetDrawingEnvironment, COMDAT
; _this$ = ecx

; 356  : {

  00000	55		 push	 ebp
  00001	8b ec		 mov	 ebp, esp
  00003	83 ec 08	 sub	 esp, 8
  00006	56		 push	 esi

; 357  : 	if(!GetDataListAndMinMax(drawingHorzScaleData, dataList, dMin, dMax))

  00007	ff 75 1c	 push	 DWORD PTR _dMax$[ebp]
  0000a	8b f1		 mov	 esi, ecx
  0000c	ff 75 18	 push	 DWORD PTR _dMin$[ebp]
  0000f	ff 75 14	 push	 DWORD PTR _dataList$[ebp]
  00012	ff 75 08	 push	 DWORD PTR _drawingHorzScaleData$[ebp]
  00015	e8 00 00 00 00	 call	 ?GetDataListAndMinMax@CLeftRightScaleDrawer@@ABE_NABVCDrawingHorzScaleData@@AAV?$CList@NN@@AAN2@Z ; CLeftRightScaleDrawer::GetDataListAndMinMax
  0001a	84 c0		 test	 al, al
  0001c	75 07		 jne	 SHORT $LN2@GetDrawing
  0001e	5e		 pop	 esi

; 363  : }

  0001f	8b e5		 mov	 esp, ebp
  00021	5d		 pop	 ebp
  00022	c2 20 00	 ret	 32			; 00000020H
$LN2@GetDrawing:

; 358  : 		return false;
; 359  : 
; 360  : 	CHorzScaleDrawer::GetDrawingEnvironment(scaleRegion, drawingHorzScaleData.GetDisplayAttributes(), 

  00025	ff 75 24	 push	 DWORD PTR _nPosPt_y$[ebp]
  00028	8b 4d 08	 mov	 ecx, DWORD PTR _drawingHorzScaleData$[ebp]
  0002b	8d 45 f8	 lea	 eax, DWORD PTR $T1[ebp]
  0002e	ff 75 20	 push	 DWORD PTR _dOnePtWidth$[ebp]
  00031	ff 75 10	 push	 DWORD PTR _nTextHeight$[ebp]
  00034	50		 push	 eax
  00035	e8 00 00 00 00	 call	 ?GetDisplayAttributes@CDrawingHorzScaleData@@QBE?AVCDisplayAttributes@@XZ ; CDrawingHorzScaleData::GetDisplayAttributes
  0003a	50		 push	 eax
  0003b	ff 75 0c	 push	 DWORD PTR _scaleRegion$[ebp]
  0003e	8b ce		 mov	 ecx, esi
  00040	e8 00 00 00 00	 call	 ?GetDrawingEnvironment@CHorzScaleDrawer@@IBEXABVCRect@@ABVCDisplayAttributes@@HAANAAH@Z ; CHorzScaleDrawer::GetDrawingEnvironment

; 361  : 		nTextHeight, dOnePtWidth, nPosPt_y);
; 362  : 	return true;

  00045	b0 01		 mov	 al, 1
  00047	5e		 pop	 esi

; 363  : }

  00048	8b e5		 mov	 esp, ebp
  0004a	5d		 pop	 ebp
  0004b	c2 20 00	 ret	 32			; 00000020H
?GetDrawingEnvironment@CLeftRightScaleDrawer@@ABE_NABVCDrawingHorzScaleData@@ABVCRect@@HAAV?$CList@NN@@AAN33AAH@Z ENDP ; CLeftRightScaleDrawer::GetDrawingEnvironment
_TEXT	ENDS
; Function compile flags: /Ogtp
; File D:\git\src\IBK\IBK_DRFN\ProjSrc\SrcChartEx\ChartOCX\ScaleDraw\DataHorzScaleDrawer.cpp
; File C:\Program Files (x86)\Microsoft Visual Studio\2019\Community\VC\Tools\MSVC\14.29.30133\atlmfc\include\afxtempl.h
; File D:\git\src\IBK\IBK_DRFN\ProjSrc\SrcChartEx\ChartOCX\ScaleDraw\DataHorzScaleDrawer.cpp
; File C:\Program Files (x86)\Microsoft Visual Studio\2019\Community\VC\Tools\MSVC\14.29.30133\atlmfc\include\atlsimpstr.h
; File C:\Program Files (x86)\Microsoft Visual Studio\2019\Community\VC\Tools\MSVC\14.29.30133\atlmfc\include\afxwin1.inl
; File D:\git\src\IBK\IBK_DRFN\ProjSrc\SrcChartEx\ChartOCX\ScaleDraw\DataHorzScaleDrawer.cpp
; File C:\Program Files (x86)\Microsoft Visual Studio\2019\Community\VC\Tools\MSVC\14.29.30133\atlmfc\include\afxwin1.inl
; File D:\git\src\IBK\IBK_DRFN\ProjSrc\SrcChartEx\ChartOCX\ScaleDraw\DataHorzScaleDrawer.cpp
; File C:\Program Files (x86)\Microsoft Visual Studio\2019\Community\VC\Tools\MSVC\14.29.30133\atlmfc\include\afxtempl.h
; File D:\git\src\IBK\IBK_DRFN\ProjSrc\SrcChartEx\ChartOCX\ScaleDraw\DataHorzScaleDrawer.cpp
; File C:\Program Files (x86)\Microsoft Visual Studio\2019\Community\VC\Tools\MSVC\14.29.30133\atlmfc\include\atlsimpstr.h
; File D:\git\src\IBK\IBK_DRFN\ProjSrc\SrcChartEx\ChartOCX\ScaleDraw\DataHorzScaleDrawer.cpp
; File C:\Program Files (x86)\Microsoft Visual Studio\2019\Community\VC\Tools\MSVC\14.29.30133\atlmfc\include\atlsimpstr.h
; File D:\git\src\IBK\IBK_DRFN\ProjSrc\SrcChartEx\ChartOCX\ScaleDraw\DataHorzScaleDrawer.cpp
; File C:\Program Files (x86)\Microsoft Visual Studio\2019\Community\VC\Tools\MSVC\14.29.30133\atlmfc\include\afxtempl.h
; File D:\git\src\IBK\IBK_DRFN\ProjSrc\SrcChartEx\ChartOCX\ScaleDraw\DataHorzScaleDrawer.cpp
;	COMDAT ?DrawGrid@CLeftRightScaleDrawer@@UAEXPAVCDC@@ABVCDrawingHorzScaleData@@ABVCHorizontalScale@@@Z
_TEXT	SEGMENT
$T2 = -120						; size = 8
_dPreData$ = -120					; size = 8
_dOnePtWidth$ = -112					; size = 8
_dMin$ = -104						; size = 8
_dMax$ = -96						; size = 8
_pDC$GSCopy$1$ = -88					; size = 4
_horzScale$GSCopy$1$ = -84				; size = 4
_nPosPt_y$ = -80					; size = 4
_dataList$ = -76					; size = 28
_size$3 = -48						; size = 8
_dData$4 = -48						; size = 8
_strData$5 = -40					; size = 4
$T6 = -40						; size = 4
$T7 = -33						; size = 1
_realScaleRegion$ = -32					; size = 16
__$ArrayPad$ = -16					; size = 4
__$EHRec$ = -12						; size = 12
_pDC$ = 8						; size = 4
_drawingHorzScaleData$ = 12				; size = 4
_horzScale$ = 16					; size = 4
?DrawGrid@CLeftRightScaleDrawer@@UAEXPAVCDC@@ABVCDrawingHorzScaleData@@ABVCHorizontalScale@@@Z PROC ; CLeftRightScaleDrawer::DrawGrid, COMDAT
; _this$ = ecx

; 327  : {

  00000	55		 push	 ebp
  00001	8b ec		 mov	 ebp, esp
  00003	6a ff		 push	 -1
  00005	68 00 00 00 00	 push	 __ehhandler$?DrawGrid@CLeftRightScaleDrawer@@UAEXPAVCDC@@ABVCDrawingHorzScaleData@@ABVCHorizontalScale@@@Z
  0000a	64 a1 00 00 00
	00		 mov	 eax, DWORD PTR fs:0
  00010	50		 push	 eax
  00011	83 ec 6c	 sub	 esp, 108		; 0000006cH
  00014	a1 00 00 00 00	 mov	 eax, DWORD PTR ___security_cookie
  00019	33 c5		 xor	 eax, ebp
  0001b	89 45 f0	 mov	 DWORD PTR __$ArrayPad$[ebp], eax
  0001e	53		 push	 ebx
  0001f	56		 push	 esi
  00020	57		 push	 edi
  00021	50		 push	 eax
  00022	8d 45 f4	 lea	 eax, DWORD PTR __$EHRec$[ebp]
  00025	64 a3 00 00 00
	00		 mov	 DWORD PTR fs:0, eax
  0002b	8b f9		 mov	 edi, ecx
  0002d	8b 45 10	 mov	 eax, DWORD PTR _horzScale$[ebp]
  00030	8b 5d 0c	 mov	 ebx, DWORD PTR _drawingHorzScaleData$[ebp]

; 328  : 	CRect realScaleRegion = drawingHorzScaleData.GetDrawingGraphRegion();

  00033	8b cb		 mov	 ecx, ebx
  00035	8b 75 08	 mov	 esi, DWORD PTR _pDC$[ebp]
  00038	89 45 ac	 mov	 DWORD PTR _horzScale$GSCopy$1$[ebp], eax
  0003b	8d 45 e0	 lea	 eax, DWORD PTR _realScaleRegion$[ebp]
  0003e	50		 push	 eax
  0003f	89 75 a8	 mov	 DWORD PTR _pDC$GSCopy$1$[ebp], esi
  00042	e8 00 00 00 00	 call	 ?GetDrawingGraphRegion@CDrawingHorzScaleData@@QBE?AVCRect@@XZ ; CDrawingHorzScaleData::GetDrawingGraphRegion
; File C:\Program Files (x86)\Microsoft Visual Studio\2019\Community\VC\Tools\MSVC\14.29.30133\atlmfc\include\afxtempl.h

; 851  : {

  00047	c7 45 b4 00 00
	00 00		 mov	 DWORD PTR _dataList$[ebp], OFFSET ??_7?$CList@NN@@6B@

; 852  : 	ASSERT(nBlockSize > 0);
; 853  : 
; 854  : 	m_nCount = 0;

  0004e	c7 45 c0 00 00
	00 00		 mov	 DWORD PTR _dataList$[ebp+12], 0

; 855  : 	m_pNodeHead = m_pNodeTail = m_pNodeFree = NULL;

  00055	c7 45 c4 00 00
	00 00		 mov	 DWORD PTR _dataList$[ebp+16], 0
  0005c	c7 45 bc 00 00
	00 00		 mov	 DWORD PTR _dataList$[ebp+8], 0
  00063	c7 45 b8 00 00
	00 00		 mov	 DWORD PTR _dataList$[ebp+4], 0

; 856  : 	m_pBlocks = NULL;

  0006a	c7 45 c8 00 00
	00 00		 mov	 DWORD PTR _dataList$[ebp+20], 0

; 857  : 	m_nBlockSize = nBlockSize;

  00071	c7 45 cc 0a 00
	00 00		 mov	 DWORD PTR _dataList$[ebp+24], 10 ; 0000000aH
; File D:\git\src\IBK\IBK_DRFN\ProjSrc\SrcChartEx\ChartOCX\ScaleDraw\DataHorzScaleDrawer.cpp

; 331  : 	CList<double, double> dataList;

  00078	0f 57 c0	 xorps	 xmm0, xmm0
  0007b	c7 45 fc 00 00
	00 00		 mov	 DWORD PTR __$EHRec$[ebp+8], 0

; 334  : 	if(!GetDrawingEnvironment(drawingHorzScaleData, realScaleRegion, pDC->GetTextExtent("0").cy, 

  00082	68 00 00 00 00	 push	 OFFSET ??_C@_01GBGANLPD@0@
  00087	8d 4d d8	 lea	 ecx, DWORD PTR $T6[ebp]
  0008a	f2 0f 11 45 98	 movsd	 QWORD PTR _dMin$[ebp], xmm0
  0008f	f2 0f 11 45 a0	 movsd	 QWORD PTR _dMax$[ebp], xmm0
  00094	f2 0f 11 45 90	 movsd	 QWORD PTR _dOnePtWidth$[ebp], xmm0
  00099	c7 45 b0 00 00
	00 00		 mov	 DWORD PTR _nPosPt_y$[ebp], 0
  000a0	ff 15 00 00 00
	00		 call	 DWORD PTR __imp_??0?$CStringT@DV?$StrTraitMFC_DLL@DV?$ChTraitsCRT@D@ATL@@@@@ATL@@QAE@PBD@Z
; File C:\Program Files (x86)\Microsoft Visual Studio\2019\Community\VC\Tools\MSVC\14.29.30133\atlmfc\include\atlsimpstr.h

; 519  : 		return( GetData()->nDataLength );

  000a6	8b 45 d8	 mov	 eax, DWORD PTR $T6[ebp]
; File C:\Program Files (x86)\Microsoft Visual Studio\2019\Community\VC\Tools\MSVC\14.29.30133\atlmfc\include\afxwin1.inl

; 639  : 		VERIFY(::GetTextExtentPoint32(m_hAttribDC, str, (int)str.GetLength(), &size));

  000a9	8d 4d d0	 lea	 ecx, DWORD PTR _size$3[ebp]
  000ac	51		 push	 ecx
; File D:\git\src\IBK\IBK_DRFN\ProjSrc\SrcChartEx\ChartOCX\ScaleDraw\DataHorzScaleDrawer.cpp

; 334  : 	if(!GetDrawingEnvironment(drawingHorzScaleData, realScaleRegion, pDC->GetTextExtent("0").cy, 

  000ad	c6 45 fc 01	 mov	 BYTE PTR __$EHRec$[ebp+8], 1
; File C:\Program Files (x86)\Microsoft Visual Studio\2019\Community\VC\Tools\MSVC\14.29.30133\atlmfc\include\afxwin1.inl

; 639  : 		VERIFY(::GetTextExtentPoint32(m_hAttribDC, str, (int)str.GetLength(), &size));

  000b1	ff 70 f4	 push	 DWORD PTR [eax-12]
  000b4	50		 push	 eax
  000b5	ff 76 08	 push	 DWORD PTR [esi+8]
  000b8	ff 15 00 00 00
	00		 call	 DWORD PTR __imp__GetTextExtentPoint32A@16
; File D:\git\src\IBK\IBK_DRFN\ProjSrc\SrcChartEx\ChartOCX\ScaleDraw\DataHorzScaleDrawer.cpp

; 334  : 	if(!GetDrawingEnvironment(drawingHorzScaleData, realScaleRegion, pDC->GetTextExtent("0").cy, 

  000be	8b 75 d4	 mov	 esi, DWORD PTR _size$3[ebp+4]

; 357  : 	if(!GetDataListAndMinMax(drawingHorzScaleData, dataList, dMin, dMax))

  000c1	8d 45 a0	 lea	 eax, DWORD PTR _dMax$[ebp]
  000c4	50		 push	 eax
  000c5	8d 45 98	 lea	 eax, DWORD PTR _dMin$[ebp]
  000c8	8b cf		 mov	 ecx, edi
  000ca	50		 push	 eax
  000cb	8d 45 b4	 lea	 eax, DWORD PTR _dataList$[ebp]
  000ce	50		 push	 eax
  000cf	53		 push	 ebx
  000d0	e8 00 00 00 00	 call	 ?GetDataListAndMinMax@CLeftRightScaleDrawer@@ABE_NABVCDrawingHorzScaleData@@AAV?$CList@NN@@AAN2@Z ; CLeftRightScaleDrawer::GetDataListAndMinMax
  000d5	84 c0		 test	 al, al
  000d7	75 06		 jne	 SHORT $LN24@DrawGrid

; 358  : 		return false;

  000d9	c6 45 df 01	 mov	 BYTE PTR $T7[ebp], 1
  000dd	eb 24		 jmp	 SHORT $LN23@DrawGrid
$LN24@DrawGrid:

; 359  : 
; 360  : 	CHorzScaleDrawer::GetDrawingEnvironment(scaleRegion, drawingHorzScaleData.GetDisplayAttributes(), 

  000df	8d 45 b0	 lea	 eax, DWORD PTR _nPosPt_y$[ebp]
  000e2	8b cb		 mov	 ecx, ebx
  000e4	50		 push	 eax
  000e5	8d 45 90	 lea	 eax, DWORD PTR _dOnePtWidth$[ebp]
  000e8	50		 push	 eax
  000e9	56		 push	 esi
  000ea	8d 45 88	 lea	 eax, DWORD PTR $T2[ebp]
  000ed	50		 push	 eax
  000ee	e8 00 00 00 00	 call	 ?GetDisplayAttributes@CDrawingHorzScaleData@@QBE?AVCDisplayAttributes@@XZ ; CDrawingHorzScaleData::GetDisplayAttributes
  000f3	50		 push	 eax
  000f4	8d 45 e0	 lea	 eax, DWORD PTR _realScaleRegion$[ebp]
  000f7	8b cf		 mov	 ecx, edi
  000f9	50		 push	 eax
  000fa	e8 00 00 00 00	 call	 ?GetDrawingEnvironment@CHorzScaleDrawer@@IBEXABVCRect@@ABVCDisplayAttributes@@HAANAAH@Z ; CHorzScaleDrawer::GetDrawingEnvironment

; 361  : 		nTextHeight, dOnePtWidth, nPosPt_y);
; 362  : 	return true;

  000ff	c6 45 df 00	 mov	 BYTE PTR $T7[ebp], 0
$LN23@DrawGrid:

; 334  : 	if(!GetDrawingEnvironment(drawingHorzScaleData, realScaleRegion, pDC->GetTextExtent("0").cy, 

  00103	8d 4d d8	 lea	 ecx, DWORD PTR $T6[ebp]
  00106	c6 45 fc 00	 mov	 BYTE PTR __$EHRec$[ebp+8], 0
  0010a	ff 15 00 00 00
	00		 call	 DWORD PTR __imp_??1?$CStringT@DV?$StrTraitMFC_DLL@DV?$ChTraitsCRT@D@ATL@@@@@ATL@@QAE@XZ
  00110	80 7d df 00	 cmp	 BYTE PTR $T7[ebp], 0
  00114	75 78		 jne	 SHORT $LN3@DrawGrid

; 335  : 		dataList, dMin, dMax, dOnePtWidth, nPosPt_y))
; 336  : 		return;
; 337  : 
; 338  : 	double dPreData;
; 339  : 	int nPre_textEndPos(0);
; 340  : 	POSITION pos = dataList.GetHeadPosition();

  00116	8b 75 b8	 mov	 esi, DWORD PTR _dataList$[ebp+4]
  00119	85 f6		 test	 esi, esi

; 341  : 	while(pos != NULL){

  0011b	74 71		 je	 SHORT $LN3@DrawGrid
  0011d	0f 1f 00	 npad	 3
$LL2@DrawGrid:

; 342  : 		double dData = dataList.GetNext(pos);

  00120	f2 0f 10 46 08	 movsd	 xmm0, QWORD PTR [esi+8]
; File C:\Program Files (x86)\Microsoft Visual Studio\2019\Community\VC\Tools\MSVC\14.29.30133\atlmfc\include\afxtempl.h

; 811  : 	{ CNode* pNode = (CNode*) rPosition;

  00125	8d 06		 lea	 eax, DWORD PTR [esi]

; 812  : 		ASSERT(AfxIsValidAddress(pNode, sizeof(CNode)));
; 813  : 		rPosition = (POSITION) pNode->pNext;

  00127	8b 36		 mov	 esi, DWORD PTR [esi]
; File D:\git\src\IBK\IBK_DRFN\ProjSrc\SrcChartEx\ChartOCX\ScaleDraw\DataHorzScaleDrawer.cpp

; 343  : 		CString strData = GetData(dData, dPreData);

  00129	8d 45 88	 lea	 eax, DWORD PTR _dPreData$[ebp]
  0012c	50		 push	 eax
  0012d	8d 45 d0	 lea	 eax, DWORD PTR _dData$4[ebp]
  00130	f2 0f 11 45 d0	 movsd	 QWORD PTR _dData$4[ebp], xmm0
  00135	50		 push	 eax
  00136	8d 45 d8	 lea	 eax, DWORD PTR _strData$5[ebp]
  00139	8b cf		 mov	 ecx, edi
  0013b	50		 push	 eax
  0013c	e8 00 00 00 00	 call	 ?GetData@CLeftRightScaleDrawer@@ABE?AV?$CStringT@DV?$StrTraitMFC_DLL@DV?$ChTraitsCRT@D@ATL@@@@@ATL@@ABNAAN@Z ; CLeftRightScaleDrawer::GetData
; File C:\Program Files (x86)\Microsoft Visual Studio\2019\Community\VC\Tools\MSVC\14.29.30133\atlmfc\include\atlsimpstr.h

; 519  : 		return( GetData()->nDataLength );

  00141	8b 45 d8	 mov	 eax, DWORD PTR _strData$5[ebp]
; File D:\git\src\IBK\IBK_DRFN\ProjSrc\SrcChartEx\ChartOCX\ScaleDraw\DataHorzScaleDrawer.cpp

; 343  : 		CString strData = GetData(dData, dPreData);

  00144	c6 45 fc 02	 mov	 BYTE PTR __$EHRec$[ebp+8], 2
; File C:\Program Files (x86)\Microsoft Visual Studio\2019\Community\VC\Tools\MSVC\14.29.30133\atlmfc\include\atlsimpstr.h

; 533  : 		return( GetLength() == 0 );

  00148	83 78 f4 00	 cmp	 DWORD PTR [eax-12], 0
; File D:\git\src\IBK\IBK_DRFN\ProjSrc\SrcChartEx\ChartOCX\ScaleDraw\DataHorzScaleDrawer.cpp

; 344  : 		if(strData.IsEmpty())

  0014c	74 2f		 je	 SHORT $LN53@DrawGrid

; 345  : 			continue;
; 346  : 
; 347  : 		int nPosPt_x = CDataConversion::GetHorizontalPoint_X(realScaleRegion, dMin, dMax, dData);

  0014e	8d 45 d0	 lea	 eax, DWORD PTR _dData$4[ebp]
  00151	50		 push	 eax
  00152	8d 45 a0	 lea	 eax, DWORD PTR _dMax$[ebp]
  00155	50		 push	 eax
  00156	8d 45 98	 lea	 eax, DWORD PTR _dMin$[ebp]
  00159	50		 push	 eax
  0015a	8d 45 e0	 lea	 eax, DWORD PTR _realScaleRegion$[ebp]
  0015d	50		 push	 eax
  0015e	e8 00 00 00 00	 call	 ?GetHorizontalPoint_X@CDataConversion@@SAHABVCRect@@ABN11@Z ; CDataConversion::GetHorizontalPoint_X

; 348  : 		CHorzScaleDrawer::DrawGrid(pDC, drawingHorzScaleData, horzScale.GetGridType(), nPosPt_x);

  00163	8b 4d ac	 mov	 ecx, DWORD PTR _horzScale$GSCopy$1$[ebp]
  00166	83 c4 10	 add	 esp, 16			; 00000010H
  00169	6a 01		 push	 1
  0016b	50		 push	 eax
  0016c	e8 00 00 00 00	 call	 ?GetGridType@CScale@@QBE?AW4SCALEGRIDTYPE@CScaleBaseData@@XZ ; CScale::GetGridType
  00171	50		 push	 eax
  00172	53		 push	 ebx
  00173	ff 75 a8	 push	 DWORD PTR _pDC$GSCopy$1$[ebp]
  00176	8b cf		 mov	 ecx, edi
  00178	e8 00 00 00 00	 call	 ?DrawGrid@CHorzScaleDrawer@@IAEXPAVCDC@@ABVCDrawingHorzScaleData@@W4SCALEGRIDTYPE@CScaleBaseData@@HH@Z ; CHorzScaleDrawer::DrawGrid
$LN53@DrawGrid:

; 341  : 	while(pos != NULL){

  0017d	8d 4d d8	 lea	 ecx, DWORD PTR _strData$5[ebp]
  00180	c6 45 fc 00	 mov	 BYTE PTR __$EHRec$[ebp+8], 0
  00184	ff 15 00 00 00
	00		 call	 DWORD PTR __imp_??1?$CStringT@DV?$StrTraitMFC_DLL@DV?$ChTraitsCRT@D@ATL@@@@@ATL@@QAE@XZ
  0018a	85 f6		 test	 esi, esi
  0018c	75 92		 jne	 SHORT $LL2@DrawGrid
$LN3@DrawGrid:
; File C:\Program Files (x86)\Microsoft Visual Studio\2019\Community\VC\Tools\MSVC\14.29.30133\atlmfc\include\afxtempl.h

; 872  : 	m_pBlocks->FreeDataChain();

  0018e	8b 4d c8	 mov	 ecx, DWORD PTR _dataList$[ebp+20]

; 878  : {

  00191	c7 45 fc 03 00
	00 00		 mov	 DWORD PTR __$EHRec$[ebp+8], 3
  00198	c7 45 b4 00 00
	00 00		 mov	 DWORD PTR _dataList$[ebp], OFFSET ??_7?$CList@NN@@6B@

; 870  : 	m_nCount = 0;

  0019f	c7 45 c0 00 00
	00 00		 mov	 DWORD PTR _dataList$[ebp+12], 0

; 871  : 	m_pNodeHead = m_pNodeTail = m_pNodeFree = NULL;

  001a6	c7 45 c4 00 00
	00 00		 mov	 DWORD PTR _dataList$[ebp+16], 0
  001ad	c7 45 bc 00 00
	00 00		 mov	 DWORD PTR _dataList$[ebp+8], 0
  001b4	c7 45 b8 00 00
	00 00		 mov	 DWORD PTR _dataList$[ebp+4], 0

; 872  : 	m_pBlocks->FreeDataChain();

  001bb	e8 00 00 00 00	 call	 ?FreeDataChain@CPlex@@QAEXXZ ; CPlex::FreeDataChain
; File D:\git\src\IBK\IBK_DRFN\ProjSrc\SrcChartEx\ChartOCX\ScaleDraw\DataHorzScaleDrawer.cpp

; 350  : }

  001c0	8b 4d f4	 mov	 ecx, DWORD PTR __$EHRec$[ebp]
  001c3	64 89 0d 00 00
	00 00		 mov	 DWORD PTR fs:0, ecx
  001ca	59		 pop	 ecx
  001cb	5f		 pop	 edi
  001cc	5e		 pop	 esi
  001cd	5b		 pop	 ebx
  001ce	8b 4d f0	 mov	 ecx, DWORD PTR __$ArrayPad$[ebp]
  001d1	33 cd		 xor	 ecx, ebp
  001d3	e8 00 00 00 00	 call	 @__security_check_cookie@4
  001d8	8b e5		 mov	 esp, ebp
  001da	5d		 pop	 ebp
  001db	c2 0c 00	 ret	 12			; 0000000cH
_TEXT	ENDS
;	COMDAT text$x
text$x	SEGMENT
__unwindfunclet$?DrawGrid@CLeftRightScaleDrawer@@UAEXPAVCDC@@ABVCDrawingHorzScaleData@@ABVCHorizontalScale@@@Z$0:
  00000	8d 4d b4	 lea	 ecx, DWORD PTR _dataList$[ebp]
  00003	e9 00 00 00 00	 jmp	 ??1?$CList@NN@@UAE@XZ	; CList<double,double>::~CList<double,double>
__unwindfunclet$?DrawGrid@CLeftRightScaleDrawer@@UAEXPAVCDC@@ABVCDrawingHorzScaleData@@ABVCHorizontalScale@@@Z$1:
  00008	8d 4d d8	 lea	 ecx, DWORD PTR $T6[ebp]
  0000b	ff 25 00 00 00
	00		 jmp	 DWORD PTR __imp_??1?$CStringT@DV?$StrTraitMFC_DLL@DV?$ChTraitsCRT@D@ATL@@@@@ATL@@QAE@XZ
__unwindfunclet$?DrawGrid@CLeftRightScaleDrawer@@UAEXPAVCDC@@ABVCDrawingHorzScaleData@@ABVCHorizontalScale@@@Z$2:
  00011	8d 4d d8	 lea	 ecx, DWORD PTR _strData$5[ebp]
  00014	ff 25 00 00 00
	00		 jmp	 DWORD PTR __imp_??1?$CStringT@DV?$StrTraitMFC_DLL@DV?$ChTraitsCRT@D@ATL@@@@@ATL@@QAE@XZ
  0001a	cc		 int	 3
  0001b	cc		 int	 3
  0001c	cc		 int	 3
  0001d	cc		 int	 3
  0001e	cc		 int	 3
__ehhandler$?DrawGrid@CLeftRightScaleDrawer@@UAEXPAVCDC@@ABVCDrawingHorzScaleData@@ABVCHorizontalScale@@@Z:
  0001f	90		 npad	 1
  00020	90		 npad	 1
  00021	8b 54 24 08	 mov	 edx, DWORD PTR [esp+8]
  00025	8d 42 0c	 lea	 eax, DWORD PTR [edx+12]
  00028	8b 4a 84	 mov	 ecx, DWORD PTR [edx-124]
  0002b	33 c8		 xor	 ecx, eax
  0002d	e8 00 00 00 00	 call	 @__security_check_cookie@4
  00032	8b 4a fc	 mov	 ecx, DWORD PTR [edx-4]
  00035	33 c8		 xor	 ecx, eax
  00037	e8 00 00 00 00	 call	 @__security_check_cookie@4
  0003c	b8 00 00 00 00	 mov	 eax, OFFSET __ehfuncinfo$?DrawGrid@CLeftRightScaleDrawer@@UAEXPAVCDC@@ABVCDrawingHorzScaleData@@ABVCHorizontalScale@@@Z
  00041	e9 00 00 00 00	 jmp	 ___CxxFrameHandler3
text$x	ENDS
?DrawGrid@CLeftRightScaleDrawer@@UAEXPAVCDC@@ABVCDrawingHorzScaleData@@ABVCHorizontalScale@@@Z ENDP ; CLeftRightScaleDrawer::DrawGrid
; Function compile flags: /Ogtp
; File D:\git\src\IBK\IBK_DRFN\ProjSrc\SrcChartEx\ChartOCX\ScaleDraw\DataHorzScaleDrawer.cpp
;	COMDAT ?DrawTextOrGrid_Both@CLeftRightScaleDrawer@@UAEXPAVCDC@@ABVCDrawingHorzScaleData@@ABVCHorzScaleRegion@@ABVCHorizontalScale@@@Z
_TEXT	SEGMENT
_pDC$ = 8						; size = 4
_drawingHorzScaleData$ = 12				; size = 4
_horzScaleRegion$ = 16					; size = 4
_horzScale$ = 20					; size = 4
?DrawTextOrGrid_Both@CLeftRightScaleDrawer@@UAEXPAVCDC@@ABVCDrawingHorzScaleData@@ABVCHorzScaleRegion@@ABVCHorizontalScale@@@Z PROC ; CLeftRightScaleDrawer::DrawTextOrGrid_Both, COMDAT
; _this$ = ecx

; 324  : }

  00000	c2 10 00	 ret	 16			; 00000010H
?DrawTextOrGrid_Both@CLeftRightScaleDrawer@@UAEXPAVCDC@@ABVCDrawingHorzScaleData@@ABVCHorzScaleRegion@@ABVCHorizontalScale@@@Z ENDP ; CLeftRightScaleDrawer::DrawTextOrGrid_Both
_TEXT	ENDS
; Function compile flags: /Ogtp
; File D:\git\src\IBK\IBK_DRFN\ProjSrc\SrcChartEx\ChartOCX\ScaleDraw\DataHorzScaleDrawer.cpp
; File C:\Program Files (x86)\Microsoft Visual Studio\2019\Community\VC\Tools\MSVC\14.29.30133\atlmfc\include\afxtempl.h
; File D:\git\src\IBK\IBK_DRFN\ProjSrc\SrcChartEx\ChartOCX\ScaleDraw\DataHorzScaleDrawer.cpp
; File C:\Program Files (x86)\Microsoft Visual Studio\2019\Community\VC\Tools\MSVC\14.29.30133\atlmfc\include\atlsimpstr.h
; File C:\Program Files (x86)\Microsoft Visual Studio\2019\Community\VC\Tools\MSVC\14.29.30133\atlmfc\include\afxwin1.inl
; File D:\git\src\IBK\IBK_DRFN\ProjSrc\SrcChartEx\ChartOCX\ScaleDraw\DataHorzScaleDrawer.cpp
; File C:\Program Files (x86)\Microsoft Visual Studio\2019\Community\VC\Tools\MSVC\14.29.30133\atlmfc\include\afxwin1.inl
; File D:\git\src\IBK\IBK_DRFN\ProjSrc\SrcChartEx\ChartOCX\ScaleDraw\DataHorzScaleDrawer.cpp
; File C:\Program Files (x86)\Microsoft Visual Studio\2019\Community\VC\Tools\MSVC\14.29.30133\atlmfc\include\afxtempl.h
; File D:\git\src\IBK\IBK_DRFN\ProjSrc\SrcChartEx\ChartOCX\ScaleDraw\DataHorzScaleDrawer.cpp
; File C:\Program Files (x86)\Microsoft Visual Studio\2019\Community\VC\Tools\MSVC\14.29.30133\atlmfc\include\afxtempl.h
; File D:\git\src\IBK\IBK_DRFN\ProjSrc\SrcChartEx\ChartOCX\ScaleDraw\DataHorzScaleDrawer.cpp
; File C:\Program Files (x86)\Microsoft Visual Studio\2019\Community\VC\Tools\MSVC\14.29.30133\atlmfc\include\atlsimpstr.h
; File D:\git\src\IBK\IBK_DRFN\ProjSrc\SrcChartEx\ChartOCX\ScaleDraw\DataHorzScaleDrawer.cpp
; File C:\Program Files (x86)\Microsoft Visual Studio\2019\Community\VC\Tools\MSVC\14.29.30133\atlmfc\include\atlsimpstr.h
; File D:\git\src\IBK\IBK_DRFN\ProjSrc\SrcChartEx\ChartOCX\ScaleDraw\DataHorzScaleDrawer.cpp
; File C:\Program Files (x86)\Microsoft Visual Studio\2019\Community\VC\Tools\MSVC\14.29.30133\atlmfc\include\atlsimpstr.h
; File D:\git\src\IBK\IBK_DRFN\ProjSrc\SrcChartEx\ChartOCX\ScaleDraw\DataHorzScaleDrawer.cpp
; File C:\Program Files (x86)\Microsoft Visual Studio\2019\Community\VC\Tools\MSVC\14.29.30133\atlmfc\include\afxwin1.inl
; File C:\Program Files (x86)\Microsoft Visual Studio\2019\Community\VC\Tools\MSVC\14.29.30133\atlmfc\include\atltypes.h
; File D:\git\src\IBK\IBK_DRFN\ProjSrc\SrcChartEx\ChartOCX\ScaleDraw\DataHorzScaleDrawer.cpp
; File C:\Program Files (x86)\Microsoft Visual Studio\2019\Community\VC\Tools\MSVC\14.29.30133\atlmfc\include\atltypes.h
; File D:\git\src\IBK\IBK_DRFN\ProjSrc\SrcChartEx\ChartOCX\ScaleDraw\DataHorzScaleDrawer.cpp
; File C:\Program Files (x86)\Microsoft Visual Studio\2019\Community\VC\Tools\MSVC\14.29.30133\atlmfc\include\atltypes.h
; File D:\git\src\IBK\IBK_DRFN\ProjSrc\SrcChartEx\ChartOCX\ScaleDraw\DataHorzScaleDrawer.cpp
; File C:\Program Files (x86)\Microsoft Visual Studio\2019\Community\VC\Tools\MSVC\14.29.30133\atlmfc\include\atltypes.h
; File D:\git\src\IBK\IBK_DRFN\ProjSrc\SrcChartEx\ChartOCX\ScaleDraw\DataHorzScaleDrawer.cpp
; File C:\Program Files (x86)\Microsoft Visual Studio\2019\Community\VC\Tools\MSVC\14.29.30133\atlmfc\include\atltypes.h
; File D:\git\src\IBK\IBK_DRFN\ProjSrc\SrcChartEx\ChartOCX\ScaleDraw\DataHorzScaleDrawer.cpp
; File C:\Program Files (x86)\Microsoft Visual Studio\2019\Community\VC\Tools\MSVC\14.29.30133\atlmfc\include\afxtempl.h
; File D:\git\src\IBK\IBK_DRFN\ProjSrc\SrcChartEx\ChartOCX\ScaleDraw\DataHorzScaleDrawer.cpp
;	COMDAT ?DrawTextOrGrid@CLeftRightScaleDrawer@@UAEXPAVCDC@@ABVCDrawingHorzScaleData@@ABVCRect@@ABVCHorizontalScale@@@Z
_TEXT	SEGMENT
$T2 = -148						; size = 12
_dPreData$ = -136					; size = 8
_dOnePtWidth$ = -128					; size = 8
_dMin$ = -120						; size = 8
_dMax$ = -112						; size = 8
_dData$3 = -104						; size = 8
$T4 = -96						; size = 8
_size$5 = -96						; size = 8
_pos$1$ = -88						; size = 4
_textColor$1$ = -84					; size = 4
_bIsTopPos$ = -80					; size = 1
_dataList$ = -76					; size = 28
_textPosPt$6 = -48					; size = 8
_size$7 = -48						; size = 8
$T8 = -40						; size = 8
_nPosPt_y$ = -32					; size = 4
_this$1$ = -28						; size = 4
_nTextHeight$1$ = -24					; size = 4
_nPosPt_x$1$ = -24					; size = 4
_strData$9 = -20					; size = 4
$T10 = -20						; size = 4
$T11 = -13						; size = 1
__$EHRec$ = -12						; size = 12
_pDC$ = 8						; size = 4
_drawingHorzScaleData$ = 12				; size = 4
_scaleRegion$ = 16					; size = 4
_horzScale$ = 20					; size = 4
?DrawTextOrGrid@CLeftRightScaleDrawer@@UAEXPAVCDC@@ABVCDrawingHorzScaleData@@ABVCRect@@ABVCHorizontalScale@@@Z PROC ; CLeftRightScaleDrawer::DrawTextOrGrid, COMDAT
; _this$ = ecx

; 294  : {

  00000	55		 push	 ebp
  00001	8b ec		 mov	 ebp, esp
  00003	6a ff		 push	 -1
  00005	68 00 00 00 00	 push	 __ehhandler$?DrawTextOrGrid@CLeftRightScaleDrawer@@UAEXPAVCDC@@ABVCDrawingHorzScaleData@@ABVCRect@@ABVCHorizontalScale@@@Z
  0000a	64 a1 00 00 00
	00		 mov	 eax, DWORD PTR fs:0
  00010	50		 push	 eax
  00011	81 ec 88 00 00
	00		 sub	 esp, 136		; 00000088H
  00017	53		 push	 ebx
  00018	56		 push	 esi
  00019	57		 push	 edi
  0001a	a1 00 00 00 00	 mov	 eax, DWORD PTR ___security_cookie
  0001f	33 c5		 xor	 eax, ebp
  00021	50		 push	 eax
  00022	8d 45 f4	 lea	 eax, DWORD PTR __$EHRec$[ebp]
  00025	64 a3 00 00 00
	00		 mov	 DWORD PTR fs:0, eax
  0002b	8b d9		 mov	 ebx, ecx
  0002d	89 5d e4	 mov	 DWORD PTR _this$1$[ebp], ebx
; File C:\Program Files (x86)\Microsoft Visual Studio\2019\Community\VC\Tools\MSVC\14.29.30133\atlmfc\include\afxtempl.h

; 851  : {

  00030	c7 45 b4 00 00
	00 00		 mov	 DWORD PTR _dataList$[ebp], OFFSET ??_7?$CList@NN@@6B@

; 852  : 	ASSERT(nBlockSize > 0);
; 853  : 
; 854  : 	m_nCount = 0;

  00037	c7 45 c0 00 00
	00 00		 mov	 DWORD PTR _dataList$[ebp+12], 0

; 855  : 	m_pNodeHead = m_pNodeTail = m_pNodeFree = NULL;

  0003e	c7 45 c4 00 00
	00 00		 mov	 DWORD PTR _dataList$[ebp+16], 0
  00045	c7 45 bc 00 00
	00 00		 mov	 DWORD PTR _dataList$[ebp+8], 0
  0004c	c7 45 b8 00 00
	00 00		 mov	 DWORD PTR _dataList$[ebp+4], 0

; 856  : 	m_pBlocks = NULL;

  00053	c7 45 c8 00 00
	00 00		 mov	 DWORD PTR _dataList$[ebp+20], 0

; 857  : 	m_nBlockSize = nBlockSize;

  0005a	c7 45 cc 0a 00
	00 00		 mov	 DWORD PTR _dataList$[ebp+24], 10 ; 0000000aH
; File D:\git\src\IBK\IBK_DRFN\ProjSrc\SrcChartEx\ChartOCX\ScaleDraw\DataHorzScaleDrawer.cpp

; 296  : 	CList<double, double> dataList;

  00061	0f 57 c0	 xorps	 xmm0, xmm0
  00064	c7 45 fc 00 00
	00 00		 mov	 DWORD PTR __$EHRec$[ebp+8], 0

; 299  : 	if(!GetDrawingEnvironment(drawingHorzScaleData, scaleRegion, pDC->GetTextExtent("0").cy, 

  0006b	68 00 00 00 00	 push	 OFFSET ??_C@_01GBGANLPD@0@
  00070	8d 4d ec	 lea	 ecx, DWORD PTR $T10[ebp]
  00073	f2 0f 11 45 88	 movsd	 QWORD PTR _dMin$[ebp], xmm0
  00078	f2 0f 11 45 90	 movsd	 QWORD PTR _dMax$[ebp], xmm0
  0007d	f2 0f 11 45 80	 movsd	 QWORD PTR _dOnePtWidth$[ebp], xmm0
  00082	c7 45 e0 00 00
	00 00		 mov	 DWORD PTR _nPosPt_y$[ebp], 0
  00089	ff 15 00 00 00
	00		 call	 DWORD PTR __imp_??0?$CStringT@DV?$StrTraitMFC_DLL@DV?$ChTraitsCRT@D@ATL@@@@@ATL@@QAE@PBD@Z
; File C:\Program Files (x86)\Microsoft Visual Studio\2019\Community\VC\Tools\MSVC\14.29.30133\atlmfc\include\atlsimpstr.h

; 519  : 		return( GetData()->nDataLength );

  0008f	8b 45 ec	 mov	 eax, DWORD PTR $T10[ebp]
; File C:\Program Files (x86)\Microsoft Visual Studio\2019\Community\VC\Tools\MSVC\14.29.30133\atlmfc\include\afxwin1.inl

; 639  : 		VERIFY(::GetTextExtentPoint32(m_hAttribDC, str, (int)str.GetLength(), &size));

  00092	8d 4d d0	 lea	 ecx, DWORD PTR _size$7[ebp]
  00095	8b 75 08	 mov	 esi, DWORD PTR _pDC$[ebp]
  00098	51		 push	 ecx
; File D:\git\src\IBK\IBK_DRFN\ProjSrc\SrcChartEx\ChartOCX\ScaleDraw\DataHorzScaleDrawer.cpp

; 299  : 	if(!GetDrawingEnvironment(drawingHorzScaleData, scaleRegion, pDC->GetTextExtent("0").cy, 

  00099	c6 45 fc 01	 mov	 BYTE PTR __$EHRec$[ebp+8], 1
; File C:\Program Files (x86)\Microsoft Visual Studio\2019\Community\VC\Tools\MSVC\14.29.30133\atlmfc\include\afxwin1.inl

; 639  : 		VERIFY(::GetTextExtentPoint32(m_hAttribDC, str, (int)str.GetLength(), &size));

  0009d	ff 70 f4	 push	 DWORD PTR [eax-12]
  000a0	50		 push	 eax
  000a1	ff 76 08	 push	 DWORD PTR [esi+8]
  000a4	ff 15 00 00 00
	00		 call	 DWORD PTR __imp__GetTextExtentPoint32A@16
; File D:\git\src\IBK\IBK_DRFN\ProjSrc\SrcChartEx\ChartOCX\ScaleDraw\DataHorzScaleDrawer.cpp

; 299  : 	if(!GetDrawingEnvironment(drawingHorzScaleData, scaleRegion, pDC->GetTextExtent("0").cy, 

  000aa	8b 45 d4	 mov	 eax, DWORD PTR _size$7[ebp+4]

; 357  : 	if(!GetDataListAndMinMax(drawingHorzScaleData, dataList, dMin, dMax))

  000ad	8b cb		 mov	 ecx, ebx
  000af	8b 7d 0c	 mov	 edi, DWORD PTR _drawingHorzScaleData$[ebp]

; 299  : 	if(!GetDrawingEnvironment(drawingHorzScaleData, scaleRegion, pDC->GetTextExtent("0").cy, 

  000b2	89 45 e8	 mov	 DWORD PTR _nTextHeight$1$[ebp], eax

; 357  : 	if(!GetDataListAndMinMax(drawingHorzScaleData, dataList, dMin, dMax))

  000b5	8d 45 90	 lea	 eax, DWORD PTR _dMax$[ebp]
  000b8	50		 push	 eax
  000b9	8d 45 88	 lea	 eax, DWORD PTR _dMin$[ebp]
  000bc	50		 push	 eax
  000bd	8d 45 b4	 lea	 eax, DWORD PTR _dataList$[ebp]
  000c0	50		 push	 eax
  000c1	57		 push	 edi
  000c2	e8 00 00 00 00	 call	 ?GetDataListAndMinMax@CLeftRightScaleDrawer@@ABE_NABVCDrawingHorzScaleData@@AAV?$CList@NN@@AAN2@Z ; CLeftRightScaleDrawer::GetDataListAndMinMax
  000c7	84 c0		 test	 al, al
  000c9	75 09		 jne	 SHORT $LN24@DrawTextOr

; 358  : 		return false;

  000cb	8b 7d 10	 mov	 edi, DWORD PTR _scaleRegion$[ebp]
  000ce	c6 45 f3 01	 mov	 BYTE PTR $T11[ebp], 1
  000d2	eb 26		 jmp	 SHORT $LN23@DrawTextOr
$LN24@DrawTextOr:

; 359  : 
; 360  : 	CHorzScaleDrawer::GetDrawingEnvironment(scaleRegion, drawingHorzScaleData.GetDisplayAttributes(), 

  000d4	8d 45 e0	 lea	 eax, DWORD PTR _nPosPt_y$[ebp]
  000d7	8b cf		 mov	 ecx, edi
  000d9	50		 push	 eax
  000da	8d 45 80	 lea	 eax, DWORD PTR _dOnePtWidth$[ebp]
  000dd	50		 push	 eax
  000de	ff 75 e8	 push	 DWORD PTR _nTextHeight$1$[ebp]
  000e1	8d 45 a0	 lea	 eax, DWORD PTR $T4[ebp]
  000e4	50		 push	 eax
  000e5	e8 00 00 00 00	 call	 ?GetDisplayAttributes@CDrawingHorzScaleData@@QBE?AVCDisplayAttributes@@XZ ; CDrawingHorzScaleData::GetDisplayAttributes
  000ea	8b 7d 10	 mov	 edi, DWORD PTR _scaleRegion$[ebp]
  000ed	8b cb		 mov	 ecx, ebx
  000ef	50		 push	 eax
  000f0	57		 push	 edi
  000f1	e8 00 00 00 00	 call	 ?GetDrawingEnvironment@CHorzScaleDrawer@@IBEXABVCRect@@ABVCDisplayAttributes@@HAANAAH@Z ; CHorzScaleDrawer::GetDrawingEnvironment

; 361  : 		nTextHeight, dOnePtWidth, nPosPt_y);
; 362  : 	return true;

  000f6	c6 45 f3 00	 mov	 BYTE PTR $T11[ebp], 0
$LN23@DrawTextOr:

; 299  : 	if(!GetDrawingEnvironment(drawingHorzScaleData, scaleRegion, pDC->GetTextExtent("0").cy, 

  000fa	8d 4d ec	 lea	 ecx, DWORD PTR $T10[ebp]
  000fd	c6 45 fc 00	 mov	 BYTE PTR __$EHRec$[ebp+8], 0
  00101	ff 15 00 00 00
	00		 call	 DWORD PTR __imp_??1?$CStringT@DV?$StrTraitMFC_DLL@DV?$ChTraitsCRT@D@ATL@@@@@ATL@@QAE@XZ
  00107	80 7d f3 00	 cmp	 BYTE PTR $T11[ebp], 0
  0010b	0f 85 55 01 00
	00		 jne	 $LN3@DrawTextOr

; 300  : 		dataList, dMin, dMax, dOnePtWidth, nPosPt_y))
; 301  : 		return;
; 302  : 
; 303  : 	double dPreData;
; 304  : 	int nPre_textEndPos(0);
; 305  : 	POSITION pos = dataList.GetHeadPosition();

  00111	8b 4d b8	 mov	 ecx, DWORD PTR _dataList$[ebp+4]
  00114	85 c9		 test	 ecx, ecx

; 306  : 	while(pos != NULL){

  00116	0f 84 4a 01 00
	00		 je	 $LN3@DrawTextOr
  0011c	0f 1f 40 00	 npad	 4
$LL2@DrawTextOr:

; 307  : 		double dData = dataList.GetNext(pos);

  00120	f2 0f 10 41 08	 movsd	 xmm0, QWORD PTR [ecx+8]
; File C:\Program Files (x86)\Microsoft Visual Studio\2019\Community\VC\Tools\MSVC\14.29.30133\atlmfc\include\afxtempl.h

; 811  : 	{ CNode* pNode = (CNode*) rPosition;

  00125	8d 01		 lea	 eax, DWORD PTR [ecx]

; 813  : 		rPosition = (POSITION) pNode->pNext;

  00127	8b 09		 mov	 ecx, DWORD PTR [ecx]
; File D:\git\src\IBK\IBK_DRFN\ProjSrc\SrcChartEx\ChartOCX\ScaleDraw\DataHorzScaleDrawer.cpp

; 308  : 		CString strData = GetData(dData, dPreData);

  00129	8d 85 78 ff ff
	ff		 lea	 eax, DWORD PTR _dPreData$[ebp]
  0012f	50		 push	 eax
  00130	8d 45 98	 lea	 eax, DWORD PTR _dData$3[ebp]
; File C:\Program Files (x86)\Microsoft Visual Studio\2019\Community\VC\Tools\MSVC\14.29.30133\atlmfc\include\afxtempl.h

; 813  : 		rPosition = (POSITION) pNode->pNext;

  00133	89 4d a8	 mov	 DWORD PTR _pos$1$[ebp], ecx
; File D:\git\src\IBK\IBK_DRFN\ProjSrc\SrcChartEx\ChartOCX\ScaleDraw\DataHorzScaleDrawer.cpp

; 308  : 		CString strData = GetData(dData, dPreData);

  00136	50		 push	 eax
  00137	8d 45 ec	 lea	 eax, DWORD PTR _strData$9[ebp]
  0013a	f2 0f 11 45 98	 movsd	 QWORD PTR _dData$3[ebp], xmm0
  0013f	50		 push	 eax
  00140	8b cb		 mov	 ecx, ebx
  00142	e8 00 00 00 00	 call	 ?GetData@CLeftRightScaleDrawer@@ABE?AV?$CStringT@DV?$StrTraitMFC_DLL@DV?$ChTraitsCRT@D@ATL@@@@@ATL@@ABNAAN@Z ; CLeftRightScaleDrawer::GetData
; File C:\Program Files (x86)\Microsoft Visual Studio\2019\Community\VC\Tools\MSVC\14.29.30133\atlmfc\include\atlsimpstr.h

; 519  : 		return( GetData()->nDataLength );

  00147	8b 45 ec	 mov	 eax, DWORD PTR _strData$9[ebp]
; File D:\git\src\IBK\IBK_DRFN\ProjSrc\SrcChartEx\ChartOCX\ScaleDraw\DataHorzScaleDrawer.cpp

; 308  : 		CString strData = GetData(dData, dPreData);

  0014a	c6 45 fc 02	 mov	 BYTE PTR __$EHRec$[ebp+8], 2
; File C:\Program Files (x86)\Microsoft Visual Studio\2019\Community\VC\Tools\MSVC\14.29.30133\atlmfc\include\atlsimpstr.h

; 533  : 		return( GetLength() == 0 );

  0014e	83 78 f4 00	 cmp	 DWORD PTR [eax-12], 0
; File D:\git\src\IBK\IBK_DRFN\ProjSrc\SrcChartEx\ChartOCX\ScaleDraw\DataHorzScaleDrawer.cpp

; 309  : 		if(strData.IsEmpty())

  00152	0f 84 f6 00 00
	00		 je	 $LN76@DrawTextOr

; 312  : 		int nPosPt_x = CDataConversion::GetHorizontalPoint_X(scaleRegion, dMin, dMax, dData);

  00158	8d 45 98	 lea	 eax, DWORD PTR _dData$3[ebp]
  0015b	50		 push	 eax
  0015c	8d 45 90	 lea	 eax, DWORD PTR _dMax$[ebp]
  0015f	50		 push	 eax
  00160	8d 45 88	 lea	 eax, DWORD PTR _dMin$[ebp]
  00163	50		 push	 eax
  00164	57		 push	 edi
