; Listing generated by Microsoft (R) Optimizing Compiler Version 19.29.30145.0 

	TITLE	D:\git\src\IBK\IBK_DRFN\#DRfn-CS\_Obj\ScaleDraw\DataHorzScaleDrawer.obj
	.686P
	.XMM
	include listing.inc
	.model	flat

INCLUDELIB MSVCRT
INCLUDELIB OLDNAMES

PUBLIC	?__empty_global_delete@@YAXPAX@Z		; __empty_global_delete
PUBLIC	?__empty_global_delete@@YAXPAXI@Z		; __empty_global_delete
PUBLIC	??1CObject@@UAE@XZ				; CObject::~CObject
PUBLIC	?Serialize@CObject@@UAEXAAVCArchive@@@Z		; CObject::Serialize
PUBLIC	?AssertValid@CObject@@UBEXXZ			; CObject::AssertValid
PUBLIC	?Dump@CObject@@UBEXAAVCDumpContext@@@Z		; CObject::Dump
PUBLIC	??1CGdiObject@@UAE@XZ				; CGdiObject::~CGdiObject
PUBLIC	??_GCGdiObject@@UAEPAXI@Z			; CGdiObject::`scalar deleting destructor'
PUBLIC	??1CFont@@UAE@XZ				; CFont::~CFont
PUBLIC	??_GCFont@@UAEPAXI@Z				; CFont::`scalar deleting destructor'
PUBLIC	?GetTextExtent@CDC@@QBE?AVCSize@@ABV?$CStringT@DV?$StrTraitMFC_DLL@DV?$ChTraitsCRT@D@ATL@@@@@ATL@@@Z ; CDC::GetTextExtent
PUBLIC	?DrawTextOrGrid@CHorzScaleDrawer@@UAE_NPAVCDC@@ABVCDrawingHorzScaleData@@ABVCRect@@ABVCHorizontalScale@@PAVCXScaleManager@@PBD@Z ; CHorzScaleDrawer::DrawTextOrGrid
PUBLIC	?DrawTextOrGrid_Both@CHorzScaleDrawer@@UAE_NPAVCDC@@ABVCDrawingHorzScaleData@@ABVCHorzScaleRegion@@ABVCHorizontalScale@@PAVCXScaleManager@@PBD@Z ; CHorzScaleDrawer::DrawTextOrGrid_Both
PUBLIC	?DrawGrid@CHorzScaleDrawer@@UAE_NPAVCDC@@ABVCDrawingHorzScaleData@@ABVCHorzScaleRegion@@ABVCHorizontalScale@@PAVCXScaleManager@@PBD@Z ; CHorzScaleDrawer::DrawGrid
PUBLIC	??0CDataHorzScaleDrawer@@QAE@PAUHWND__@@W4CHART_MODE@CChartInfo@@@Z ; CDataHorzScaleDrawer::CDataHorzScaleDrawer
PUBLIC	?DrawTextAndCompartLine@CDataHorzScaleDrawer@@IAEXPAVCDC@@ABVCRect@@ABVCPoint@@ABN_NABV?$CStringT@DV?$StrTraitMFC_DLL@DV?$ChTraitsCRT@D@ATL@@@@@ATL@@ABVCSize@@KKAAH@Z ; CDataHorzScaleDrawer::DrawTextAndCompartLine
PUBLIC	?GetTextEndPosition_x@CDataHorzScaleDrawer@@IBEHABVCPoint@@ABVCSize@@@Z ; CDataHorzScaleDrawer::GetTextEndPosition_x
PUBLIC	?GetTextPosition_x@CDataHorzScaleDrawer@@IBEHHH_N@Z ; CDataHorzScaleDrawer::GetTextPosition_x
PUBLIC	?IsOverlap@CDataHorzScaleDrawer@@IBE_NHHH@Z	; CDataHorzScaleDrawer::IsOverlap
PUBLIC	??0CPriceZoneHorzScaleDrawer@@QAE@PAUHWND__@@W4CHART_MODE@CChartInfo@@@Z ; CPriceZoneHorzScaleDrawer::CPriceZoneHorzScaleDrawer
PUBLIC	?DrawTextOrGrid@CPriceZoneHorzScaleDrawer@@UAEXPAVCDC@@ABVCDrawingHorzScaleData@@ABVCRect@@ABVCHorizontalScale@@@Z ; CPriceZoneHorzScaleDrawer::DrawTextOrGrid
PUBLIC	?DrawTextOrGrid_Both@CPriceZoneHorzScaleDrawer@@UAEXPAVCDC@@ABVCDrawingHorzScaleData@@ABVCHorzScaleRegion@@ABVCHorizontalScale@@@Z ; CPriceZoneHorzScaleDrawer::DrawTextOrGrid_Both
PUBLIC	?DrawGrid@CPriceZoneHorzScaleDrawer@@UAEXPAVCDC@@ABVCDrawingHorzScaleData@@ABVCHorizontalScale@@@Z ; CPriceZoneHorzScaleDrawer::DrawGrid
PUBLIC	??0CEtcDataHorzScaleDrawer@@QAE@PAUHWND__@@W4CHART_MODE@CChartInfo@@@Z ; CEtcDataHorzScaleDrawer::CEtcDataHorzScaleDrawer
PUBLIC	?DrawTextOrGrid@CEtcDataHorzScaleDrawer@@UAEXPAVCDC@@ABVCDrawingHorzScaleData@@ABVCRect@@ABVCHorizontalScale@@@Z ; CEtcDataHorzScaleDrawer::DrawTextOrGrid
PUBLIC	?DrawTextOrGrid_Both@CEtcDataHorzScaleDrawer@@UAEXPAVCDC@@ABVCDrawingHorzScaleData@@ABVCHorzScaleRegion@@ABVCHorizontalScale@@@Z ; CEtcDataHorzScaleDrawer::DrawTextOrGrid_Both
PUBLIC	?DrawGrid@CEtcDataHorzScaleDrawer@@UAEXPAVCDC@@ABVCDrawingHorzScaleData@@ABVCHorizontalScale@@@Z ; CEtcDataHorzScaleDrawer::DrawGrid
PUBLIC	?DrawTextAndCompartLine_stand@CEtcDataHorzScaleDrawer@@AAEXPAVCDC@@ABVCRect@@ABVCPoint@@ABNABV?$CStringT@DV?$StrTraitMFC_DLL@DV?$ChTraitsCRT@D@ATL@@@@@ATL@@ABVCSize@@KKAAH@Z ; CEtcDataHorzScaleDrawer::DrawTextAndCompartLine_stand
PUBLIC	?GetFont@CEtcDataHorzScaleDrawer@@AAEXAAVCFont@@@Z ; CEtcDataHorzScaleDrawer::GetFont
PUBLIC	??0CLeftRightScaleDrawer@@QAE@PAUHWND__@@W4CHART_MODE@CChartInfo@@@Z ; CLeftRightScaleDrawer::CLeftRightScaleDrawer
PUBLIC	?DrawTextOrGrid@CLeftRightScaleDrawer@@UAEXPAVCDC@@ABVCDrawingHorzScaleData@@ABVCRect@@ABVCHorizontalScale@@@Z ; CLeftRightScaleDrawer::DrawTextOrGrid
PUBLIC	?DrawTextOrGrid_Both@CLeftRightScaleDrawer@@UAEXPAVCDC@@ABVCDrawingHorzScaleData@@ABVCHorzScaleRegion@@ABVCHorizontalScale@@@Z ; CLeftRightScaleDrawer::DrawTextOrGrid_Both
PUBLIC	?DrawGrid@CLeftRightScaleDrawer@@UAEXPAVCDC@@ABVCDrawingHorzScaleData@@ABVCHorizontalScale@@@Z ; CLeftRightScaleDrawer::DrawGrid
PUBLIC	?GetDrawingEnvironment@CLeftRightScaleDrawer@@ABE_NABVCDrawingHorzScaleData@@ABVCRect@@HAAV?$CList@NN@@AAN33AAH@Z ; CLeftRightScaleDrawer::GetDrawingEnvironment
PUBLIC	?GetDataListAndMinMax@CLeftRightScaleDrawer@@ABE_NABVCDrawingHorzScaleData@@AAV?$CList@NN@@AAN2@Z ; CLeftRightScaleDrawer::GetDataListAndMinMax
PUBLIC	?GetRealMinMax@CLeftRightScaleDrawer@@ABEXABVCDrawingHorzScaleData@@ABV?$CStringT@DV?$StrTraitMFC_DLL@DV?$ChTraitsCRT@D@ATL@@@@@ATL@@AAN222@Z ; CLeftRightScaleDrawer::GetRealMinMax
PUBLIC	?GetRealMinMax_FixedRate@CLeftRightScaleDrawer@@ABEXABVCDisplayDataMinMax@@AAN1@Z ; CLeftRightScaleDrawer::GetRealMinMax_FixedRate
PUBLIC	?GetData@CLeftRightScaleDrawer@@ABE?AV?$CStringT@DV?$StrTraitMFC_DLL@DV?$ChTraitsCRT@D@ATL@@@@@ATL@@ABNAAN@Z ; CLeftRightScaleDrawer::GetData
PUBLIC	??0CMarketProfileHorzScaleDrawer@@QAE@PAUHWND__@@W4CHART_MODE@CChartInfo@@@Z ; CMarketProfileHorzScaleDrawer::CMarketProfileHorzScaleDrawer
PUBLIC	?DrawTextOrGrid@CMarketProfileHorzScaleDrawer@@UAEXPAVCDC@@ABVCDrawingHorzScaleData@@ABVCRect@@ABVCHorizontalScale@@@Z ; CMarketProfileHorzScaleDrawer::DrawTextOrGrid
PUBLIC	?DrawTextOrGrid_Both@CMarketProfileHorzScaleDrawer@@UAEXPAVCDC@@ABVCDrawingHorzScaleData@@ABVCHorzScaleRegion@@ABVCHorizontalScale@@@Z ; CMarketProfileHorzScaleDrawer::DrawTextOrGrid_Both
PUBLIC	?DrawGrid@CMarketProfileHorzScaleDrawer@@UAEXPAVCDC@@ABVCDrawingHorzScaleData@@ABVCHorizontalScale@@@Z ; CMarketProfileHorzScaleDrawer::DrawGrid
PUBLIC	?DrawScale@CMarketProfileHorzScaleDrawer@@AAEXPAVCDC@@ABVCDrawingHorzScaleData@@ABVCRect@@2ABVCHorizontalScale@@@Z ; CMarketProfileHorzScaleDrawer::DrawScale
PUBLIC	?DrawTextAndCompartLine@CMarketProfileHorzScaleDrawer@@AAEXPAVCDC@@ABVCRect@@ABVCPoint@@_NABV?$CStringT@DV?$StrTraitMFC_DLL@DV?$ChTraitsCRT@D@ATL@@@@@ATL@@KKAAH@Z ; CMarketProfileHorzScaleDrawer::DrawTextAndCompartLine
PUBLIC	?GetEnvironmentData@CMarketProfileHorzScaleDrawer@@ABE_NPAVCMPPacket@@ABVCRect@@1HAAPAV?$CList@PAVCMProfile@@PAV1@@@AANAAH4@Z ; CMarketProfileHorzScaleDrawer::GetEnvironmentData
PUBLIC	?IsDrawText@CMarketProfileHorzScaleDrawer@@ABE_NW4HORZSCALEPOSITION@CScaleBaseData@@HH@Z ; CMarketProfileHorzScaleDrawer::IsDrawText
PUBLIC	?IsTopPostiont@CMarketProfileHorzScaleDrawer@@ABE_NW4HORZSCALEPOSITION@CScaleBaseData@@_N@Z ; CMarketProfileHorzScaleDrawer::IsTopPostiont
PUBLIC	??1CScaleCompart@@QAE@XZ			; CScaleCompart::~CScaleCompart
PUBLIC	??0CScaleCompart@@QAE@ABV0@@Z			; CScaleCompart::CScaleCompart
PUBLIC	??1CScale@@QAE@XZ				; CScale::~CScale
PUBLIC	??0CScale@@QAE@ABV0@@Z				; CScale::CScale
PUBLIC	??1CHorizontalScale@@QAE@XZ			; CHorizontalScale::~CHorizontalScale
PUBLIC	??0CHorizontalScale@@QAE@ABV0@@Z		; CHorizontalScale::CHorizontalScale
PUBLIC	?IsVertScaleMinMaxLock@CVerticalScale@@QBEHXZ	; CVerticalScale::IsVertScaleMinMaxLock
PUBLIC	?SetVertScaleMinMaxLock@CVerticalScale@@QAEXH@Z	; CVerticalScale::SetVertScaleMinMaxLock
PUBLIC	?GetVertScaleMinMaxType@CVerticalScale@@QBE?AW4VERTMINMAXTYPE@CScaleBaseData@@XZ ; CVerticalScale::GetVertScaleMinMaxType
PUBLIC	?SetVertScaleMinMaxType@CVerticalScale@@QAEXW4VERTMINMAXTYPE@CScaleBaseData@@@Z ; CVerticalScale::SetVertScaleMinMaxType
PUBLIC	?GetVertScaleMin@CVerticalScale@@QBENXZ		; CVerticalScale::GetVertScaleMin
PUBLIC	?SetVertScaleMin@CVerticalScale@@QAEXN@Z	; CVerticalScale::SetVertScaleMin
PUBLIC	?GetVertScaleMax@CVerticalScale@@QBENXZ		; CVerticalScale::GetVertScaleMax
PUBLIC	?SetVertScaleMax@CVerticalScale@@QAEXN@Z	; CVerticalScale::SetVertScaleMax
PUBLIC	?SetVertScaleHoGaNumber@CVerticalScale@@QAEXN@Z	; CVerticalScale::SetVertScaleHoGaNumber
PUBLIC	?SetVertScaleUserNumber@CVerticalScale@@QAEXN@Z	; CVerticalScale::SetVertScaleUserNumber
PUBLIC	?SetVertUserHogaScaleType@CVerticalScale@@QAEXH@Z ; CVerticalScale::SetVertUserHogaScaleType
PUBLIC	?GetVertScaleHoGaNumber@CVerticalScale@@QBENXZ	; CVerticalScale::GetVertScaleHoGaNumber
PUBLIC	?GetVertScaleUserNumber@CVerticalScale@@QBENXZ	; CVerticalScale::GetVertScaleUserNumber
PUBLIC	?GetVertUserHogaScaleType@CVerticalScale@@QBEHXZ ; CVerticalScale::GetVertUserHogaScaleType
PUBLIC	?GetVertScaleInvertType@CVerticalScale@@QBE_NXZ	; CVerticalScale::GetVertScaleInvertType
PUBLIC	?SetVertScaleInvertType@CVerticalScale@@QAEX_N@Z ; CVerticalScale::SetVertScaleInvertType
PUBLIC	?SetSpace@CVerticalScale@@QAEXHH@Z		; CVerticalScale::SetSpace
PUBLIC	?GetSpace@CVerticalScale@@QBEXAAH0@Z		; CVerticalScale::GetSpace
PUBLIC	??1CVerticalScale@@QAE@XZ			; CVerticalScale::~CVerticalScale
PUBLIC	??0CVerticalScale@@QAE@ABV0@@Z			; CVerticalScale::CVerticalScale
PUBLIC	??4CHorzScaleRegionHeight@@QAEAAV0@ABV0@@Z	; CHorzScaleRegionHeight::operator=
PUBLIC	??4CHorzScaleRegionHeight@@QAEAAV0@$$QAV0@@Z	; CHorzScaleRegionHeight::operator=
PUBLIC	??4CVertScaleRegionWidth@@QAEAAV0@ABV0@@Z	; CVertScaleRegionWidth::operator=
PUBLIC	??4CVertScaleRegionWidth@@QAEAAV0@$$QAV0@@Z	; CVertScaleRegionWidth::operator=
PUBLIC	??4CHorzScaleRegion@@QAEAAV0@ABV0@@Z		; CHorzScaleRegion::operator=
PUBLIC	??4CHorzScaleRegion@@QAEAAV0@$$QAV0@@Z		; CHorzScaleRegion::operator=
PUBLIC	??4CVertScaleRegion@@QAEAAV0@ABV0@@Z		; CVertScaleRegion::operator=
PUBLIC	??4CVertScaleRegion@@QAEAAV0@$$QAV0@@Z		; CVertScaleRegion::operator=
PUBLIC	??0?$CList@NN@@QAE@H@Z				; CList<double,double>::CList<double,double>
PUBLIC	?AddTail@?$CList@NN@@QAEPAU__POSITION@@N@Z	; CList<double,double>::AddTail
PUBLIC	?RemoveAll@?$CList@NN@@QAEXXZ			; CList<double,double>::RemoveAll
PUBLIC	?FindIndex@?$CList@NN@@QBEPAU__POSITION@@H@Z	; CList<double,double>::FindIndex
PUBLIC	?NewNode@?$CList@NN@@IAEPAUCNode@1@PAU21@0@Z	; CList<double,double>::NewNode
PUBLIC	??1?$CList@NN@@UAE@XZ				; CList<double,double>::~CList<double,double>
PUBLIC	?Serialize@?$CList@NN@@UAEXAAVCArchive@@@Z	; CList<double,double>::Serialize
PUBLIC	??_G?$CList@NN@@UAEPAXI@Z			; CList<double,double>::`scalar deleting destructor'
PUBLIC	??$SerializeElements@N@@YGXAAVCArchive@@PANH@Z	; SerializeElements<double>
PUBLIC	??_R0PAVCException@@@8				; CException * `RTTI Type Descriptor'
PUBLIC	??_C@_00CNPNBAHC@@				; `string'
PUBLIC	??_7CGdiObject@@6B@				; CGdiObject::`vftable'
PUBLIC	??_7CFont@@6B@					; CFont::`vftable'
PUBLIC	??_C@_0HD@JJCHHHNK@C?3?2Program?5Files?5?$CIx86?$CJ?2Microsof@ ; `string'
PUBLIC	??_C@_0BP@OIEOKIDM@Exception?5thrown?5in?5destructor@ ; `string'
PUBLIC	??_C@_0BB@HBOOMJBF@?$CFTs?5?$CI?$CFTs?3?$CFd?$CJ?6?$CFTs@ ; `string'
PUBLIC	??_C@_0N@OMEMOKLE@?$CFTs?5?$CI?$CFTs?3?$CFd?$CJ@ ; `string'
PUBLIC	??_R0?AVCObject@@@8				; CObject `RTTI Type Descriptor'
PUBLIC	??_R3CObject@@8					; CObject::`RTTI Class Hierarchy Descriptor'
PUBLIC	??_R2CObject@@8					; CObject::`RTTI Base Class Array'
PUBLIC	??_R1A@?0A@EA@CObject@@8			; CObject::`RTTI Base Class Descriptor at (0,-1,0,64)'
PUBLIC	??_R4CGdiObject@@6B@				; CGdiObject::`RTTI Complete Object Locator'
PUBLIC	??_R0?AVCGdiObject@@@8				; CGdiObject `RTTI Type Descriptor'
PUBLIC	??_R3CGdiObject@@8				; CGdiObject::`RTTI Class Hierarchy Descriptor'
PUBLIC	??_R2CGdiObject@@8				; CGdiObject::`RTTI Base Class Array'
PUBLIC	??_R1A@?0A@EA@CGdiObject@@8			; CGdiObject::`RTTI Base Class Descriptor at (0,-1,0,64)'
PUBLIC	??_R4CFont@@6B@					; CFont::`RTTI Complete Object Locator'
PUBLIC	??_R0?AVCFont@@@8				; CFont `RTTI Type Descriptor'
PUBLIC	??_R3CFont@@8					; CFont::`RTTI Class Hierarchy Descriptor'
PUBLIC	??_R2CFont@@8					; CFont::`RTTI Base Class Array'
PUBLIC	??_R1A@?0A@EA@CFont@@8				; CFont::`RTTI Base Class Descriptor at (0,-1,0,64)'
PUBLIC	??_7CDataHorzScaleDrawer@@6B@			; CDataHorzScaleDrawer::`vftable'
PUBLIC	??_7CPriceZoneHorzScaleDrawer@@6B@		; CPriceZoneHorzScaleDrawer::`vftable'
PUBLIC	??_7CEtcDataHorzScaleDrawer@@6B@		; CEtcDataHorzScaleDrawer::`vftable'
PUBLIC	??_7CLeftRightScaleDrawer@@6B@			; CLeftRightScaleDrawer::`vftable'
PUBLIC	??_7CMarketProfileHorzScaleDrawer@@6B@		; CMarketProfileHorzScaleDrawer::`vftable'
PUBLIC	??_7CScale@@6B@					; CScale::`vftable'
PUBLIC	??_7CHorizontalScale@@6B@			; CHorizontalScale::`vftable'
PUBLIC	??_7CVerticalScale@@6B@				; CVerticalScale::`vftable'
PUBLIC	??_7?$CList@NN@@6B@				; CList<double,double>::`vftable'
PUBLIC	??_C@_01GBGANLPD@0@				; `string'
PUBLIC	??_C@_09KKPNDFC@?$CF02d?1?$CF02d@		; `string'
PUBLIC	??_R4CHorizontalScale@@6B@			; CHorizontalScale::`RTTI Complete Object Locator'
PUBLIC	??_R0?AVCHorizontalScale@@@8			; CHorizontalScale `RTTI Type Descriptor'
PUBLIC	??_R3CHorizontalScale@@8			; CHorizontalScale::`RTTI Class Hierarchy Descriptor'
PUBLIC	??_R2CHorizontalScale@@8			; CHorizontalScale::`RTTI Base Class Array'
PUBLIC	??_R1A@?0A@EA@CHorizontalScale@@8		; CHorizontalScale::`RTTI Base Class Descriptor at (0,-1,0,64)'
PUBLIC	??_R1A@?0A@EA@CScale@@8				; CScale::`RTTI Base Class Descriptor at (0,-1,0,64)'
PUBLIC	??_R0?AVCScale@@@8				; CScale `RTTI Type Descriptor'
PUBLIC	??_R3CScale@@8					; CScale::`RTTI Class Hierarchy Descriptor'
PUBLIC	??_R2CScale@@8					; CScale::`RTTI Base Class Array'
PUBLIC	??_R4CDataHorzScaleDrawer@@6B@			; CDataHorzScaleDrawer::`RTTI Complete Object Locator'
PUBLIC	??_R0?AVCDataHorzScaleDrawer@@@8		; CDataHorzScaleDrawer `RTTI Type Descriptor'
PUBLIC	??_R3CDataHorzScaleDrawer@@8			; CDataHorzScaleDrawer::`RTTI Class Hierarchy Descriptor'
PUBLIC	??_R2CDataHorzScaleDrawer@@8			; CDataHorzScaleDrawer::`RTTI Base Class Array'
PUBLIC	??_R1A@?0A@EA@CDataHorzScaleDrawer@@8		; CDataHorzScaleDrawer::`RTTI Base Class Descriptor at (0,-1,0,64)'
PUBLIC	??_R1A@?0A@EA@CHorzScaleDrawer@@8		; CHorzScaleDrawer::`RTTI Base Class Descriptor at (0,-1,0,64)'
PUBLIC	??_R0?AVCHorzScaleDrawer@@@8			; CHorzScaleDrawer `RTTI Type Descriptor'
PUBLIC	??_R3CHorzScaleDrawer@@8			; CHorzScaleDrawer::`RTTI Class Hierarchy Descriptor'
PUBLIC	??_R2CHorzScaleDrawer@@8			; CHorzScaleDrawer::`RTTI Base Class Array'
PUBLIC	??_R13?0A@EA@CDrawer@@8				; CDrawer::`RTTI Base Class Descriptor at (4,-1,0,64)'
PUBLIC	??_R0?AVCDrawer@@@8				; CDrawer `RTTI Type Descriptor'
PUBLIC	??_R3CDrawer@@8					; CDrawer::`RTTI Class Hierarchy Descriptor'
PUBLIC	??_R2CDrawer@@8					; CDrawer::`RTTI Base Class Array'
PUBLIC	??_R1A@?0A@EA@CDrawer@@8			; CDrawer::`RTTI Base Class Descriptor at (0,-1,0,64)'
PUBLIC	??_R4CPriceZoneHorzScaleDrawer@@6B@		; CPriceZoneHorzScaleDrawer::`RTTI Complete Object Locator'
PUBLIC	??_R0?AVCPriceZoneHorzScaleDrawer@@@8		; CPriceZoneHorzScaleDrawer `RTTI Type Descriptor'
PUBLIC	??_R3CPriceZoneHorzScaleDrawer@@8		; CPriceZoneHorzScaleDrawer::`RTTI Class Hierarchy Descriptor'
PUBLIC	??_R2CPriceZoneHorzScaleDrawer@@8		; CPriceZoneHorzScaleDrawer::`RTTI Base Class Array'
PUBLIC	??_R1A@?0A@EA@CPriceZoneHorzScaleDrawer@@8	; CPriceZoneHorzScaleDrawer::`RTTI Base Class Descriptor at (0,-1,0,64)'
PUBLIC	??_R4CEtcDataHorzScaleDrawer@@6B@		; CEtcDataHorzScaleDrawer::`RTTI Complete Object Locator'
PUBLIC	??_R0?AVCEtcDataHorzScaleDrawer@@@8		; CEtcDataHorzScaleDrawer `RTTI Type Descriptor'
PUBLIC	??_R3CEtcDataHorzScaleDrawer@@8			; CEtcDataHorzScaleDrawer::`RTTI Class Hierarchy Descriptor'
PUBLIC	??_R2CEtcDataHorzScaleDrawer@@8			; CEtcDataHorzScaleDrawer::`RTTI Base Class Array'
PUBLIC	??_R1A@?0A@EA@CEtcDataHorzScaleDrawer@@8	; CEtcDataHorzScaleDrawer::`RTTI Base Class Descriptor at (0,-1,0,64)'
PUBLIC	??_R4CLeftRightScaleDrawer@@6B@			; CLeftRightScaleDrawer::`RTTI Complete Object Locator'
PUBLIC	??_R0?AVCLeftRightScaleDrawer@@@8		; CLeftRightScaleDrawer `RTTI Type Descriptor'
PUBLIC	??_R3CLeftRightScaleDrawer@@8			; CLeftRightScaleDrawer::`RTTI Class Hierarchy Descriptor'
PUBLIC	??_R2CLeftRightScaleDrawer@@8			; CLeftRightScaleDrawer::`RTTI Base Class Array'
PUBLIC	??_R1A@?0A@EA@CLeftRightScaleDrawer@@8		; CLeftRightScaleDrawer::`RTTI Base Class Descriptor at (0,-1,0,64)'
PUBLIC	??_R4?$CList@NN@@6B@				; CList<double,double>::`RTTI Complete Object Locator'
PUBLIC	??_R0?AV?$CList@NN@@@8				; CList<double,double> `RTTI Type Descriptor'
PUBLIC	??_R3?$CList@NN@@8				; CList<double,double>::`RTTI Class Hierarchy Descriptor'
PUBLIC	??_R2?$CList@NN@@8				; CList<double,double>::`RTTI Base Class Array'
PUBLIC	??_R1A@?0A@EA@?$CList@NN@@8			; CList<double,double>::`RTTI Base Class Descriptor at (0,-1,0,64)'
PUBLIC	??_R4CMarketProfileHorzScaleDrawer@@6B@		; CMarketProfileHorzScaleDrawer::`RTTI Complete Object Locator'
PUBLIC	??_R0?AVCMarketProfileHorzScaleDrawer@@@8	; CMarketProfileHorzScaleDrawer `RTTI Type Descriptor'
PUBLIC	??_R3CMarketProfileHorzScaleDrawer@@8		; CMarketProfileHorzScaleDrawer::`RTTI Class Hierarchy Descriptor'
PUBLIC	??_R2CMarketProfileHorzScaleDrawer@@8		; CMarketProfileHorzScaleDrawer::`RTTI Base Class Array'
PUBLIC	??_R1A@?0A@EA@CMarketProfileHorzScaleDrawer@@8	; CMarketProfileHorzScaleDrawer::`RTTI Base Class Descriptor at (0,-1,0,64)'
PUBLIC	??_R4CScale@@6B@				; CScale::`RTTI Complete Object Locator'
PUBLIC	??_R4CVerticalScale@@6B@			; CVerticalScale::`RTTI Complete Object Locator'
PUBLIC	??_R0?AVCVerticalScale@@@8			; CVerticalScale `RTTI Type Descriptor'
PUBLIC	??_R3CVerticalScale@@8				; CVerticalScale::`RTTI Class Hierarchy Descriptor'
PUBLIC	??_R2CVerticalScale@@8				; CVerticalScale::`RTTI Base Class Array'
PUBLIC	??_R1A@?0A@EA@CVerticalScale@@8			; CVerticalScale::`RTTI Base Class Descriptor at (0,-1,0,64)'
PUBLIC	__real@0000000000000000
PUBLIC	__real@3fe0000000000000
PUBLIC	__xmm@7fffffffffffffff7fffffffffffffff
PUBLIC	__xmm@80000000000000008000000000000000
EXTRN	__purecall:PROC
EXTRN	??3@YAXPAX@Z:PROC				; operator delete
EXTRN	?__global_delete@@YAXPAXI@Z:PROC		; __global_delete
EXTRN	___std_terminate:PROC
EXTRN	__imp__CreateFontIndirectA@4:PROC
EXTRN	__imp__GetCurrentObject@8:PROC
EXTRN	__imp__GetStockObject@4:PROC
EXTRN	__imp__GetTextExtentPoint32A@16:PROC
EXTRN	__imp__SelectObject@8:PROC
EXTRN	__imp__GetObjectA@12:PROC
EXTRN	__imp__InflateRect@12:PROC
EXTRN	__imp__IsRectEmpty@4:PROC
EXTRN	?AfxThrowInvalidArgException@@YGXXZ:PROC	; AfxThrowInvalidArgException
EXTRN	?AfxThrowArchiveException@@YGXHPBD@Z:PROC	; AfxThrowArchiveException
EXTRN	?GetRuntimeClass@CObject@@UBEPAUCRuntimeClass@@XZ:PROC ; CObject::GetRuntimeClass
EXTRN	__imp_??A?$CSimpleStringT@D$00@ATL@@QBEDH@Z:PROC
EXTRN	__imp_?Concatenate@?$CSimpleStringT@D$00@ATL@@KAXAAV12@PBDH1H@Z:PROC
EXTRN	__imp_??0?$CStringT@DV?$StrTraitMFC_DLL@DV?$ChTraitsCRT@D@ATL@@@@@ATL@@QAE@XZ:PROC
EXTRN	__imp_??0?$CStringT@DV?$StrTraitMFC_DLL@DV?$ChTraitsCRT@D@ATL@@@@@ATL@@QAE@PAUIAtlStringMgr@1@@Z:PROC
EXTRN	__imp_??0?$CStringT@DV?$StrTraitMFC_DLL@DV?$ChTraitsCRT@D@ATL@@@@@ATL@@QAE@ABV01@@Z:PROC
EXTRN	__imp_??0?$CStringT@DV?$StrTraitMFC_DLL@DV?$ChTraitsCRT@D@ATL@@@@@ATL@@QAE@PBD@Z:PROC
EXTRN	__imp_??1?$CStringT@DV?$StrTraitMFC_DLL@DV?$ChTraitsCRT@D@ATL@@@@@ATL@@QAE@XZ:PROC
EXTRN	__imp_??4?$CStringT@DV?$StrTraitMFC_DLL@DV?$ChTraitsCRT@D@ATL@@@@@ATL@@QAEAAV01@ABV01@@Z:PROC
EXTRN	__imp_?GetManager@?$CStringT@DV?$StrTraitMFC_DLL@DV?$ChTraitsCRT@D@ATL@@@@@ATL@@QBEPAUIAtlStringMgr@2@XZ:PROC
EXTRN	__imp_?Left@?$CStringT@DV?$StrTraitMFC_DLL@DV?$ChTraitsCRT@D@ATL@@@@@ATL@@QBE?AV12@H@Z:PROC
EXTRN	__imp_?Format@?$CStringT@DV?$StrTraitMFC_DLL@DV?$ChTraitsCRT@D@ATL@@@@@ATL@@QAAXPBDZZ:PROC
EXTRN	?Read@CArchive@@QAEIPAXI@Z:PROC			; CArchive::Read
EXTRN	?Write@CArchive@@QAEXPBXI@Z:PROC		; CArchive::Write
EXTRN	?ReadCount@CArchive@@QAEKXZ:PROC		; CArchive::ReadCount
EXTRN	?WriteCount@CArchive@@QAEXK@Z:PROC		; CArchive::WriteCount
EXTRN	?Create@CPlex@@SGPAU1@AAPAU1@II@Z:PROC		; CPlex::Create
EXTRN	?FreeDataChain@CPlex@@QAEXXZ:PROC		; CPlex::FreeDataChain
EXTRN	?GetRuntimeClass@CGdiObject@@UBEPAUCRuntimeClass@@XZ:PROC ; CGdiObject::GetRuntimeClass
EXTRN	?FromHandle@CGdiObject@@SGPAV1@PAX@Z:PROC	; CGdiObject::FromHandle
EXTRN	?Attach@CGdiObject@@QAEHPAX@Z:PROC		; CGdiObject::Attach
EXTRN	?DeleteObject@CGdiObject@@QAEHXZ:PROC		; CGdiObject::DeleteObject
EXTRN	??_ECGdiObject@@UAEPAXI@Z:PROC			; CGdiObject::`vector deleting destructor'
EXTRN	?GetRuntimeClass@CFont@@UBEPAUCRuntimeClass@@XZ:PROC ; CFont::GetRuntimeClass
EXTRN	??_ECFont@@UAEPAXI@Z:PROC			; CFont::`vector deleting destructor'
EXTRN	?SetBkMode@CDC@@QAEHH@Z:PROC			; CDC::SetBkMode
EXTRN	?AfxMessageBox@@YGHPBDII@Z:PROC			; AfxMessageBox
EXTRN	?GetPacketDataType@CDrawer@@IBE?AV?$CStringT@DV?$StrTraitMFC_DLL@DV?$ChTraitsCRT@D@ATL@@@@@ATL@@PAVCPacket@@@Z:PROC ; CDrawer::GetPacketDataType
EXTRN	?DrawTextOut@CDrawer@@IAEXPAVCDC@@ABVCPoint@@ABV?$CStringT@DV?$StrTraitMFC_DLL@DV?$ChTraitsCRT@D@ATL@@@@@ATL@@K@Z:PROC ; CDrawer::DrawTextOut
EXTRN	?DrawLine@CDrawer@@IAEXPAVCDC@@ABVCPoint@@1KHHH@Z:PROC ; CDrawer::DrawLine
EXTRN	??0CHorzScaleDrawer@@QAE@PAUHWND__@@W4CHART_MODE@CChartInfo@@@Z:PROC ; CHorzScaleDrawer::CHorzScaleDrawer
EXTRN	?GetDrawingEnvironment@CHorzScaleDrawer@@IBEXABVCRect@@ABVCDisplayAttributes@@HAANAAH@Z:PROC ; CHorzScaleDrawer::GetDrawingEnvironment
EXTRN	?GetDrawingEnvironment@CHorzScaleDrawer@@IBEXABVCRect@@0ABVCDisplayAttributes@@HAANAAH3@Z:PROC ; CHorzScaleDrawer::GetDrawingEnvironment
EXTRN	?GetDrawingEnvironment@CHorzScaleDrawer@@IBE_NPAVCDC@@PAVCPacket@@ABVCRect@@ABVCDisplayDataMinMax@@ABNAAH5AANAA_N_N@Z:PROC ; CHorzScaleDrawer::GetDrawingEnvironment
EXTRN	?GetHorzScalePosition_x@CHorzScaleDrawer@@IBEHHHABN@Z:PROC ; CHorzScaleDrawer::GetHorzScalePosition_x
EXTRN	?DrawGrid@CHorzScaleDrawer@@IAEXPAVCDC@@ABVCDrawingHorzScaleData@@W4SCALEGRIDTYPE@CScaleBaseData@@HH@Z:PROC ; CHorzScaleDrawer::DrawGrid
EXTRN	?DrawTextCompartLine@CHorzScaleDrawer@@IAEXPAVCDC@@ABVCRect@@ABVCPoint@@_NK@Z:PROC ; CHorzScaleDrawer::DrawTextCompartLine
EXTRN	?DoubleToString@CDataConversion@@SA?AV?$CStringT@DV?$StrTraitMFC_DLL@DV?$ChTraitsCRT@D@ATL@@@@@ATL@@ABN@Z:PROC ; CDataConversion::DoubleToString
EXTRN	?GetDecimalDownCount@CDataConversion@@SAHABV?$CStringT@DV?$StrTraitMFC_DLL@DV?$ChTraitsCRT@D@ATL@@@@@ATL@@_N@Z:PROC ; CDataConversion::GetDecimalDownCount
EXTRN	?GetStringFormatTrans@CDataConversion@@QAE?AV?$CStringT@DV?$StrTraitMFC_DLL@DV?$ChTraitsCRT@D@ATL@@@@@ATL@@ABV23@0@Z:PROC ; CDataConversion::GetStringFormatTrans
EXTRN	?GetStringThousandFormat@CDataConversion@@SA?AV?$CStringT@DV?$StrTraitMFC_DLL@DV?$ChTraitsCRT@D@ATL@@@@@ATL@@ABV23@@Z:PROC ; CDataConversion::GetStringThousandFormat
EXTRN	?GetHorizontalPoint@CDataConversion@@SA?AVCPoint@@ABVCRect@@HABN111@Z:PROC ; CDataConversion::GetHorizontalPoint
EXTRN	?GetHorizontalPoint_X@CDataConversion@@SAHABVCRect@@ABN11@Z:PROC ; CDataConversion::GetHorizontalPoint_X
EXTRN	?Round@CMath@@SAHN@Z:PROC			; CMath::Round
EXTRN	?Floor@CMath@@SANABNH@Z:PROC			; CMath::Floor
EXTRN	?GetScaleTextType@CScaleCompart@@QBE?AW4TEXTCOMPARTTYPE@CScaleBaseData@@XZ:PROC ; CScaleCompart::GetScaleTextType
EXTRN	?SetScaleData@CScale@@UAEXPADPAUHWND__@@@Z:PROC	; CScale::SetScaleData
EXTRN	?GetGridType@CScale@@QBE?AW4SCALEGRIDTYPE@CScaleBaseData@@XZ:PROC ; CScale::GetGridType
EXTRN	?SetScaleData@CHorizontalScale@@UAEXPADPAUHWND__@@@Z:PROC ; CHorizontalScale::SetScaleData
EXTRN	?GetHorzScalePosition@CHorizontalScale@@QBE?AW4HORZSCALEPOSITION@CScaleBaseData@@XZ:PROC ; CHorizontalScale::GetHorzScalePosition
EXTRN	?GetScaleCompart@CHorizontalScale@@QBE?AVCScaleCompart@@XZ:PROC ; CHorizontalScale::GetScaleCompart
EXTRN	?SetScaleData@CVerticalScale@@UAEXPADPAUHWND__@@@Z:PROC ; CVerticalScale::SetScaleData
EXTRN	?GetTopScaleRegion@CHorzScaleRegion@@QBE?AVCRect@@XZ:PROC ; CHorzScaleRegion::GetTopScaleRegion
EXTRN	?GetBottomScaleRegion@CHorzScaleRegion@@QBE?AVCRect@@XZ:PROC ; CHorzScaleRegion::GetBottomScaleRegion
EXTRN	??0CDisplayDataMinMax@@QAE@ABN0@Z:PROC		; CDisplayDataMinMax::CDisplayDataMinMax
EXTRN	?GetDisplayMin@CDisplayDataMinMax@@QBENXZ:PROC	; CDisplayDataMinMax::GetDisplayMin
EXTRN	?GetDisplayMax@CDisplayDataMinMax@@QBENXZ:PROC	; CDisplayDataMinMax::GetDisplayMax
EXTRN	?GetMarginDisplayMin@CDisplayDataMinMax@@QBENXZ:PROC ; CDisplayDataMinMax::GetMarginDisplayMin
EXTRN	?GetMarginDisplayMax@CDisplayDataMinMax@@QBENXZ:PROC ; CDisplayDataMinMax::GetMarginDisplayMax
EXTRN	__imp_?GetScaleTextColor@CScaleColor@@QAEAAKXZ:PROC
EXTRN	??0CDisplayAttributes@@QAE@HH@Z:PROC		; CDisplayAttributes::CDisplayAttributes
EXTRN	?GetDataStartInBlock@CDisplayAttributes@@QBEHXZ:PROC ; CDisplayAttributes::GetDataStartInBlock
EXTRN	?GetDrawingGraphRegion@CDrawingHorzScaleData@@QBE?AVCRect@@XZ:PROC ; CDrawingHorzScaleData::GetDrawingGraphRegion
EXTRN	?GetHeadGraphStyle@CDrawingHorzScaleData@@QBE?AVCGraphStyle@@XZ:PROC ; CDrawingHorzScaleData::GetHeadGraphStyle
EXTRN	?GetScaleColor@CDrawingHorzScaleData@@QBE?AVCScaleColor@@XZ:PROC ; CDrawingHorzScaleData::GetScaleColor
EXTRN	?GetCompartLineColor@CDrawingHorzScaleData@@QBEKXZ:PROC ; CDrawingHorzScaleData::GetCompartLineColor
EXTRN	?GetDisplayAttributes@CDrawingHorzScaleData@@QBE?AVCDisplayAttributes@@XZ:PROC ; CDrawingHorzScaleData::GetDisplayAttributes
EXTRN	?GetDisplayDataMinMax@CDrawingHorzScaleData@@QBE?AVCDisplayDataMinMax@@XZ:PROC ; CDrawingHorzScaleData::GetDisplayDataMinMax
EXTRN	?GetPacket@CDrawingHorzScaleData@@QBEPAVCPacket@@XZ:PROC ; CDrawingHorzScaleData::GetPacket
EXTRN	__imp_?GetStandardValue@CPacket@@QAENH@Z:PROC
EXTRN	__imp_?GetType@CPacket@@QAE?AV?$CStringT@DV?$StrTraitMFC_DLL@DV?$ChTraitsCRT@D@ATL@@@@@ATL@@_N@Z:PROC
EXTRN	__imp_?GetnumericDataList@CPacket@@QAEPAV?$CList@NN@@XZ:PROC
EXTRN	??_E?$CList@NN@@UAEPAXI@Z:PROC			; CList<double,double>::`vector deleting destructor'
EXTRN	@__security_check_cookie@4:PROC
EXTRN	___CxxFrameHandler3:PROC
EXTRN	_memset:PROC
EXTRN	??_7type_info@@6B@:QWORD			; type_info::`vftable'
EXTRN	___security_cookie:DWORD
EXTRN	__fltused:DWORD
;	COMDAT __xmm@80000000000000008000000000000000
CONST	SEGMENT
__xmm@80000000000000008000000000000000 DB 00H, 00H, 00H, 00H, 00H, 00H, 00H
	DB	080H, 00H, 00H, 00H, 00H, 00H, 00H, 00H, 080H
CONST	ENDS
;	COMDAT __xmm@7fffffffffffffff7fffffffffffffff
CONST	SEGMENT
__xmm@7fffffffffffffff7fffffffffffffff DB 0ffH, 0ffH, 0ffH, 0ffH, 0ffH, 0ffH
	DB	0ffH, 07fH, 0ffH, 0ffH, 0ffH, 0ffH, 0ffH, 0ffH, 0ffH, 07fH
CONST	ENDS
;	COMDAT __real@3fe0000000000000
CONST	SEGMENT
__real@3fe0000000000000 DQ 03fe0000000000000r	; 0.5
CONST	ENDS
;	COMDAT __real@0000000000000000
CONST	SEGMENT
__real@0000000000000000 DQ 00000000000000000r	; 0
CONST	ENDS
;	COMDAT ??_R1A@?0A@EA@CVerticalScale@@8
rdata$r	SEGMENT
??_R1A@?0A@EA@CVerticalScale@@8 DD FLAT:??_R0?AVCVerticalScale@@@8 ; CVerticalScale::`RTTI Base Class Descriptor at (0,-1,0,64)'
	DD	01H
	DD	00H
	DD	0ffffffffH
	DD	00H
	DD	040H
	DD	FLAT:??_R3CVerticalScale@@8
rdata$r	ENDS
;	COMDAT ??_R2CVerticalScale@@8
rdata$r	SEGMENT
??_R2CVerticalScale@@8 DD FLAT:??_R1A@?0A@EA@CVerticalScale@@8 ; CVerticalScale::`RTTI Base Class Array'
	DD	FLAT:??_R1A@?0A@EA@CScale@@8
rdata$r	ENDS
;	COMDAT ??_R3CVerticalScale@@8
rdata$r	SEGMENT
??_R3CVerticalScale@@8 DD 00H				; CVerticalScale::`RTTI Class Hierarchy Descriptor'
	DD	00H
	DD	02H
	DD	FLAT:??_R2CVerticalScale@@8
rdata$r	ENDS
;	COMDAT ??_R0?AVCVerticalScale@@@8
data$rs	SEGMENT
??_R0?AVCVerticalScale@@@8 DD FLAT:??_7type_info@@6B@	; CVerticalScale `RTTI Type Descriptor'
	DD	00H
	DB	'.?AVCVerticalScale@@', 00H
data$rs	ENDS
;	COMDAT ??_R4CVerticalScale@@6B@
rdata$r	SEGMENT
??_R4CVerticalScale@@6B@ DD 00H				; CVerticalScale::`RTTI Complete Object Locator'
	DD	00H
	DD	00H
	DD	FLAT:??_R0?AVCVerticalScale@@@8
	DD	FLAT:??_R3CVerticalScale@@8
rdata$r	ENDS
;	COMDAT ??_R4CScale@@6B@
rdata$r	SEGMENT
??_R4CScale@@6B@ DD 00H					; CScale::`RTTI Complete Object Locator'
	DD	00H
	DD	00H
	DD	FLAT:??_R0?AVCScale@@@8
	DD	FLAT:??_R3CScale@@8
rdata$r	ENDS
;	COMDAT ??_R1A@?0A@EA@CMarketProfileHorzScaleDrawer@@8
rdata$r	SEGMENT
??_R1A@?0A@EA@CMarketProfileHorzScaleDrawer@@8 DD FLAT:??_R0?AVCMarketProfileHorzScaleDrawer@@@8 ; CMarketProfileHorzScaleDrawer::`RTTI Base Class Descriptor at (0,-1,0,64)'
	DD	02H
	DD	00H
	DD	0ffffffffH
	DD	00H
	DD	040H
	DD	FLAT:??_R3CMarketProfileHorzScaleDrawer@@8
rdata$r	ENDS
;	COMDAT ??_R2CMarketProfileHorzScaleDrawer@@8
rdata$r	SEGMENT
??_R2CMarketProfileHorzScaleDrawer@@8 DD FLAT:??_R1A@?0A@EA@CMarketProfileHorzScaleDrawer@@8 ; CMarketProfileHorzScaleDrawer::`RTTI Base Class Array'
	DD	FLAT:??_R1A@?0A@EA@CHorzScaleDrawer@@8
	DD	FLAT:??_R13?0A@EA@CDrawer@@8
rdata$r	ENDS
;	COMDAT ??_R3CMarketProfileHorzScaleDrawer@@8
rdata$r	SEGMENT
??_R3CMarketProfileHorzScaleDrawer@@8 DD 00H		; CMarketProfileHorzScaleDrawer::`RTTI Class Hierarchy Descriptor'
	DD	00H
	DD	03H
	DD	FLAT:??_R2CMarketProfileHorzScaleDrawer@@8
rdata$r	ENDS
;	COMDAT ??_R0?AVCMarketProfileHorzScaleDrawer@@@8
data$rs	SEGMENT
??_R0?AVCMarketProfileHorzScaleDrawer@@@8 DD FLAT:??_7type_info@@6B@ ; CMarketProfileHorzScaleDrawer `RTTI Type Descriptor'
	DD	00H
	DB	'.?AVCMarketProfileHorzScaleDrawer@@', 00H
data$rs	ENDS
;	COMDAT ??_R4CMarketProfileHorzScaleDrawer@@6B@
rdata$r	SEGMENT
??_R4CMarketProfileHorzScaleDrawer@@6B@ DD 00H		; CMarketProfileHorzScaleDrawer::`RTTI Complete Object Locator'
	DD	00H
	DD	00H
	DD	FLAT:??_R0?AVCMarketProfileHorzScaleDrawer@@@8
	DD	FLAT:??_R3CMarketProfileHorzScaleDrawer@@8
rdata$r	ENDS
;	COMDAT ??_R1A@?0A@EA@?$CList@NN@@8
rdata$r	SEGMENT
??_R1A@?0A@EA@?$CList@NN@@8 DD FLAT:??_R0?AV?$CList@NN@@@8 ; CList<double,double>::`RTTI Base Class Descriptor at (0,-1,0,64)'
	DD	01H
	DD	00H
	DD	0ffffffffH
	DD	00H
	DD	040H
	DD	FLAT:??_R3?$CList@NN@@8
rdata$r	ENDS
;	COMDAT ??_R2?$CList@NN@@8
rdata$r	SEGMENT
??_R2?$CList@NN@@8 DD FLAT:??_R1A@?0A@EA@?$CList@NN@@8	; CList<double,double>::`RTTI Base Class Array'
	DD	FLAT:??_R1A@?0A@EA@CObject@@8
rdata$r	ENDS
;	COMDAT ??_R3?$CList@NN@@8
rdata$r	SEGMENT
??_R3?$CList@NN@@8 DD 00H				; CList<double,double>::`RTTI Class Hierarchy Descriptor'
	DD	00H
	DD	02H
	DD	FLAT:??_R2?$CList@NN@@8
rdata$r	ENDS
;	COMDAT ??_R0?AV?$CList@NN@@@8
data$rs	SEGMENT
??_R0?AV?$CList@NN@@@8 DD FLAT:??_7type_info@@6B@	; CList<double,double> `RTTI Type Descriptor'
	DD	00H
	DB	'.?AV?$CList@NN@@', 00H
data$rs	ENDS
;	COMDAT ??_R4?$CList@NN@@6B@
rdata$r	SEGMENT
??_R4?$CList@NN@@6B@ DD 00H				; CList<double,double>::`RTTI Complete Object Locator'
	DD	00H
	DD	00H
	DD	FLAT:??_R0?AV?$CList@NN@@@8
	DD	FLAT:??_R3?$CList@NN@@8
rdata$r	ENDS
;	COMDAT ??_R1A@?0A@EA@CLeftRightScaleDrawer@@8
rdata$r	SEGMENT
??_R1A@?0A@EA@CLeftRightScaleDrawer@@8 DD FLAT:??_R0?AVCLeftRightScaleDrawer@@@8 ; CLeftRightScaleDrawer::`RTTI Base Class Descriptor at (0,-1,0,64)'
	DD	03H
	DD	00H
	DD	0ffffffffH
	DD	00H
	DD	040H
	DD	FLAT:??_R3CLeftRightScaleDrawer@@8
rdata$r	ENDS
;	COMDAT ??_R2CLeftRightScaleDrawer@@8
rdata$r	SEGMENT
??_R2CLeftRightScaleDrawer@@8 DD FLAT:??_R1A@?0A@EA@CLeftRightScaleDrawer@@8 ; CLeftRightScaleDrawer::`RTTI Base Class Array'
	DD	FLAT:??_R1A@?0A@EA@CDataHorzScaleDrawer@@8
	DD	FLAT:??_R1A@?0A@EA@CHorzScaleDrawer@@8
	DD	FLAT:??_R13?0A@EA@CDrawer@@8
rdata$r	ENDS
;	COMDAT ??_R3CLeftRightScaleDrawer@@8
rdata$r	SEGMENT
??_R3CLeftRightScaleDrawer@@8 DD 00H			; CLeftRightScaleDrawer::`RTTI Class Hierarchy Descriptor'
	DD	00H
	DD	04H
	DD	FLAT:??_R2CLeftRightScaleDrawer@@8
rdata$r	ENDS
;	COMDAT ??_R0?AVCLeftRightScaleDrawer@@@8
data$rs	SEGMENT
??_R0?AVCLeftRightScaleDrawer@@@8 DD FLAT:??_7type_info@@6B@ ; CLeftRightScaleDrawer `RTTI Type Descriptor'
	DD	00H
	DB	'.?AVCLeftRightScaleDrawer@@', 00H
data$rs	ENDS
;	COMDAT ??_R4CLeftRightScaleDrawer@@6B@
rdata$r	SEGMENT
??_R4CLeftRightScaleDrawer@@6B@ DD 00H			; CLeftRightScaleDrawer::`RTTI Complete Object Locator'
	DD	00H
	DD	00H
	DD	FLAT:??_R0?AVCLeftRightScaleDrawer@@@8
	DD	FLAT:??_R3CLeftRightScaleDrawer@@8
rdata$r	ENDS
;	COMDAT ??_R1A@?0A@EA@CEtcDataHorzScaleDrawer@@8
rdata$r	SEGMENT
??_R1A@?0A@EA@CEtcDataHorzScaleDrawer@@8 DD FLAT:??_R0?AVCEtcDataHorzScaleDrawer@@@8 ; CEtcDataHorzScaleDrawer::`RTTI Base Class Descriptor at (0,-1,0,64)'
	DD	03H
	DD	00H
	DD	0ffffffffH
	DD	00H
	DD	040H
	DD	FLAT:??_R3CEtcDataHorzScaleDrawer@@8
rdata$r	ENDS
;	COMDAT ??_R2CEtcDataHorzScaleDrawer@@8
rdata$r	SEGMENT
??_R2CEtcDataHorzScaleDrawer@@8 DD FLAT:??_R1A@?0A@EA@CEtcDataHorzScaleDrawer@@8 ; CEtcDataHorzScaleDrawer::`RTTI Base Class Array'
	DD	FLAT:??_R1A@?0A@EA@CDataHorzScaleDrawer@@8
	DD	FLAT:??_R1A@?0A@EA@CHorzScaleDrawer@@8
	DD	FLAT:??_R13?0A@EA@CDrawer@@8
rdata$r	ENDS
;	COMDAT ??_R3CEtcDataHorzScaleDrawer@@8
rdata$r	SEGMENT
??_R3CEtcDataHorzScaleDrawer@@8 DD 00H			; CEtcDataHorzScaleDrawer::`RTTI Class Hierarchy Descriptor'
	DD	00H
	DD	04H
	DD	FLAT:??_R2CEtcDataHorzScaleDrawer@@8
rdata$r	ENDS
;	COMDAT ??_R0?AVCEtcDataHorzScaleDrawer@@@8
data$rs	SEGMENT
??_R0?AVCEtcDataHorzScaleDrawer@@@8 DD FLAT:??_7type_info@@6B@ ; CEtcDataHorzScaleDrawer `RTTI Type Descriptor'
	DD	00H
	DB	'.?AVCEtcDataHorzScaleDrawer@@', 00H
data$rs	ENDS
;	COMDAT ??_R4CEtcDataHorzScaleDrawer@@6B@
rdata$r	SEGMENT
??_R4CEtcDataHorzScaleDrawer@@6B@ DD 00H		; CEtcDataHorzScaleDrawer::`RTTI Complete Object Locator'
	DD	00H
	DD	00H
	DD	FLAT:??_R0?AVCEtcDataHorzScaleDrawer@@@8
	DD	FLAT:??_R3CEtcDataHorzScaleDrawer@@8
rdata$r	ENDS
;	COMDAT ??_R1A@?0A@EA@CPriceZoneHorzScaleDrawer@@8
rdata$r	SEGMENT
??_R1A@?0A@EA@CPriceZoneHorzScaleDrawer@@8 DD FLAT:??_R0?AVCPriceZoneHorzScaleDrawer@@@8 ; CPriceZoneHorzScaleDrawer::`RTTI Base Class Descriptor at (0,-1,0,64)'
	DD	03H
	DD	00H
	DD	0ffffffffH
	DD	00H
	DD	040H
	DD	FLAT:??_R3CPriceZoneHorzScaleDrawer@@8
rdata$r	ENDS
;	COMDAT ??_R2CPriceZoneHorzScaleDrawer@@8
rdata$r	SEGMENT
??_R2CPriceZoneHorzScaleDrawer@@8 DD FLAT:??_R1A@?0A@EA@CPriceZoneHorzScaleDrawer@@8 ; CPriceZoneHorzScaleDrawer::`RTTI Base Class Array'
	DD	FLAT:??_R1A@?0A@EA@CDataHorzScaleDrawer@@8
	DD	FLAT:??_R1A@?0A@EA@CHorzScaleDrawer@@8
	DD	FLAT:??_R13?0A@EA@CDrawer@@8
rdata$r	ENDS
;	COMDAT ??_R3CPriceZoneHorzScaleDrawer@@8
rdata$r	SEGMENT
??_R3CPriceZoneHorzScaleDrawer@@8 DD 00H		; CPriceZoneHorzScaleDrawer::`RTTI Class Hierarchy Descriptor'
	DD	00H
	DD	04H
	DD	FLAT:??_R2CPriceZoneHorzScaleDrawer@@8
rdata$r	ENDS
;	COMDAT ??_R0?AVCPriceZoneHorzScaleDrawer@@@8
data$rs	SEGMENT
??_R0?AVCPriceZoneHorzScaleDrawer@@@8 DD FLAT:??_7type_info@@6B@ ; CPriceZoneHorzScaleDrawer `RTTI Type Descriptor'
	DD	00H
	DB	'.?AVCPriceZoneHorzScaleDrawer@@', 00H
data$rs	ENDS
;	COMDAT ??_R4CPriceZoneHorzScaleDrawer@@6B@
rdata$r	SEGMENT
??_R4CPriceZoneHorzScaleDrawer@@6B@ DD 00H		; CPriceZoneHorzScaleDrawer::`RTTI Complete Object Locator'
	DD	00H
	DD	00H
	DD	FLAT:??_R0?AVCPriceZoneHorzScaleDrawer@@@8
	DD	FLAT:??_R3CPriceZoneHorzScaleDrawer@@8
rdata$r	ENDS
;	COMDAT ??_R1A@?0A@EA@CDrawer@@8
rdata$r	SEGMENT
??_R1A@?0A@EA@CDrawer@@8 DD FLAT:??_R0?AVCDrawer@@@8	; CDrawer::`RTTI Base Class Descriptor at (0,-1,0,64)'
	DD	00H
	DD	00H
	DD	0ffffffffH
	DD	00H
	DD	040H
	DD	FLAT:??_R3CDrawer@@8
rdata$r	ENDS
;	COMDAT ??_R2CDrawer@@8
rdata$r	SEGMENT
??_R2CDrawer@@8 DD FLAT:??_R1A@?0A@EA@CDrawer@@8	; CDrawer::`RTTI Base Class Array'
rdata$r	ENDS
;	COMDAT ??_R3CDrawer@@8
rdata$r	SEGMENT
??_R3CDrawer@@8 DD 00H					; CDrawer::`RTTI Class Hierarchy Descriptor'
	DD	00H
	DD	01H
	DD	FLAT:??_R2CDrawer@@8
rdata$r	ENDS
;	COMDAT ??_R0?AVCDrawer@@@8
data$rs	SEGMENT
??_R0?AVCDrawer@@@8 DD FLAT:??_7type_info@@6B@		; CDrawer `RTTI Type Descriptor'
	DD	00H
	DB	'.?AVCDrawer@@', 00H
data$rs	ENDS
;	COMDAT ??_R13?0A@EA@CDrawer@@8
rdata$r	SEGMENT
??_R13?0A@EA@CDrawer@@8 DD FLAT:??_R0?AVCDrawer@@@8	; CDrawer::`RTTI Base Class Descriptor at (4,-1,0,64)'
	DD	00H
	DD	04H
	DD	0ffffffffH
	DD	00H
	DD	040H
	DD	FLAT:??_R3CDrawer@@8
rdata$r	ENDS
;	COMDAT ??_R2CHorzScaleDrawer@@8
rdata$r	SEGMENT
??_R2CHorzScaleDrawer@@8 DD FLAT:??_R1A@?0A@EA@CHorzScaleDrawer@@8 ; CHorzScaleDrawer::`RTTI Base Class Array'
	DD	FLAT:??_R13?0A@EA@CDrawer@@8
rdata$r	ENDS
;	COMDAT ??_R3CHorzScaleDrawer@@8
rdata$r	SEGMENT
??_R3CHorzScaleDrawer@@8 DD 00H				; CHorzScaleDrawer::`RTTI Class Hierarchy Descriptor'
	DD	00H
	DD	02H
	DD	FLAT:??_R2CHorzScaleDrawer@@8
rdata$r	ENDS
;	COMDAT ??_R0?AVCHorzScaleDrawer@@@8
data$rs	SEGMENT
??_R0?AVCHorzScaleDrawer@@@8 DD FLAT:??_7type_info@@6B@	; CHorzScaleDrawer `RTTI Type Descriptor'
	DD	00H
	DB	'.?AVCHorzScaleDrawer@@', 00H
data$rs	ENDS
;	COMDAT ??_R1A@?0A@EA@CHorzScaleDrawer@@8
rdata$r	SEGMENT
??_R1A@?0A@EA@CHorzScaleDrawer@@8 DD FLAT:??_R0?AVCHorzScaleDrawer@@@8 ; CHorzScaleDrawer::`RTTI Base Class Descriptor at (0,-1,0,64)'
	DD	01H
	DD	00H
	DD	0ffffffffH
	DD	00H
	DD	040H
	DD	FLAT:??_R3CHorzScaleDrawer@@8
rdata$r	ENDS
;	COMDAT ??_R1A@?0A@EA@CDataHorzScaleDrawer@@8
rdata$r	SEGMENT
??_R1A@?0A@EA@CDataHorzScaleDrawer@@8 DD FLAT:??_R0?AVCDataHorzScaleDrawer@@@8 ; CDataHorzScaleDrawer::`RTTI Base Class Descriptor at (0,-1,0,64)'
	DD	02H
	DD	00H
	DD	0ffffffffH
	DD	00H
	DD	040H
	DD	FLAT:??_R3CDataHorzScaleDrawer@@8
rdata$r	ENDS
;	COMDAT ??_R2CDataHorzScaleDrawer@@8
rdata$r	SEGMENT
??_R2CDataHorzScaleDrawer@@8 DD FLAT:??_R1A@?0A@EA@CDataHorzScaleDrawer@@8 ; CDataHorzScaleDrawer::`RTTI Base Class Array'
	DD	FLAT:??_R1A@?0A@EA@CHorzScaleDrawer@@8
	DD	FLAT:??_R13?0A@EA@CDrawer@@8
rdata$r	ENDS
;	COMDAT ??_R3CDataHorzScaleDrawer@@8
rdata$r	SEGMENT
??_R3CDataHorzScaleDrawer@@8 DD 00H			; CDataHorzScaleDrawer::`RTTI Class Hierarchy Descriptor'
	DD	00H
	DD	03H
	DD	FLAT:??_R2CDataHorzScaleDrawer@@8
rdata$r	ENDS
;	COMDAT ??_R0?AVCDataHorzScaleDrawer@@@8
data$rs	SEGMENT
??_R0?AVCDataHorzScaleDrawer@@@8 DD FLAT:??_7type_info@@6B@ ; CDataHorzScaleDrawer `RTTI Type Descriptor'
	DD	00H
	DB	'.?AVCDataHorzScaleDrawer@@', 00H
data$rs	ENDS
;	COMDAT ??_R4CDataHorzScaleDrawer@@6B@
rdata$r	SEGMENT
??_R4CDataHorzScaleDrawer@@6B@ DD 00H			; CDataHorzScaleDrawer::`RTTI Complete Object Locator'
	DD	00H
	DD	00H
	DD	FLAT:??_R0?AVCDataHorzScaleDrawer@@@8
	DD	FLAT:??_R3CDataHorzScaleDrawer@@8
rdata$r	ENDS
;	COMDAT ??_R2CScale@@8
rdata$r	SEGMENT
??_R2CScale@@8 DD FLAT:??_R1A@?0A@EA@CScale@@8		; CScale::`RTTI Base Class Array'
rdata$r	ENDS
;	COMDAT ??_R3CScale@@8
rdata$r	SEGMENT
??_R3CScale@@8 DD 00H					; CScale::`RTTI Class Hierarchy Descriptor'
	DD	00H
	DD	01H
	DD	FLAT:??_R2CScale@@8
rdata$r	ENDS
;	COMDAT ??_R0?AVCScale@@@8
data$rs	SEGMENT
??_R0?AVCScale@@@8 DD FLAT:??_7type_info@@6B@		; CScale `RTTI Type Descriptor'
	DD	00H
	DB	'.?AVCScale@@', 00H
data$rs	ENDS
;	COMDAT ??_R1A@?0A@EA@CScale@@8
rdata$r	SEGMENT
??_R1A@?0A@EA@CScale@@8 DD FLAT:??_R0?AVCScale@@@8	; CScale::`RTTI Base Class Descriptor at (0,-1,0,64)'
	DD	00H
	DD	00H
	DD	0ffffffffH
	DD	00H
	DD	040H
	DD	FLAT:??_R3CScale@@8
rdata$r	ENDS
;	COMDAT ??_R1A@?0A@EA@CHorizontalScale@@8
rdata$r	SEGMENT
??_R1A@?0A@EA@CHorizontalScale@@8 DD FLAT:??_R0?AVCHorizontalScale@@@8 ; CHorizontalScale::`RTTI Base Class Descriptor at (0,-1,0,64)'
	DD	01H
	DD	00H
	DD	0ffffffffH
	DD	00H
	DD	040H
	DD	FLAT:??_R3CHorizontalScale@@8
rdata$r	ENDS
;	COMDAT ??_R2CHorizontalScale@@8
rdata$r	SEGMENT
??_R2CHorizontalScale@@8 DD FLAT:??_R1A@?0A@EA@CHorizontalScale@@8 ; CHorizontalScale::`RTTI Base Class Array'
	DD	FLAT:??_R1A@?0A@EA@CScale@@8
rdata$r	ENDS
;	COMDAT ??_R3CHorizontalScale@@8
rdata$r	SEGMENT
??_R3CHorizontalScale@@8 DD 00H				; CHorizontalScale::`RTTI Class Hierarchy Descriptor'
	DD	00H
	DD	02H
	DD	FLAT:??_R2CHorizontalScale@@8
rdata$r	ENDS
;	COMDAT ??_R0?AVCHorizontalScale@@@8
data$rs	SEGMENT
??_R0?AVCHorizontalScale@@@8 DD FLAT:??_7type_info@@6B@	; CHorizontalScale `RTTI Type Descriptor'
	DD	00H
	DB	'.?AVCHorizontalScale@@', 00H
data$rs	ENDS
;	COMDAT ??_R4CHorizontalScale@@6B@
rdata$r	SEGMENT
??_R4CHorizontalScale@@6B@ DD 00H			; CHorizontalScale::`RTTI Complete Object Locator'
	DD	00H
	DD	00H
	DD	FLAT:??_R0?AVCHorizontalScale@@@8
	DD	FLAT:??_R3CHorizontalScale@@8
rdata$r	ENDS
;	COMDAT ??_C@_09KKPNDFC@?$CF02d?1?$CF02d@
CONST	SEGMENT
??_C@_09KKPNDFC@?$CF02d?1?$CF02d@ DB '%02d/%02d', 00H	; `string'
CONST	ENDS
;	COMDAT ??_C@_01GBGANLPD@0@
CONST	SEGMENT
??_C@_01GBGANLPD@0@ DB '0', 00H				; `string'
CONST	ENDS
;	COMDAT ??_7?$CList@NN@@6B@
CONST	SEGMENT
??_7?$CList@NN@@6B@ DD FLAT:??_R4?$CList@NN@@6B@	; CList<double,double>::`vftable'
	DD	FLAT:?GetRuntimeClass@CObject@@UBEPAUCRuntimeClass@@XZ
	DD	FLAT:??_E?$CList@NN@@UAEPAXI@Z
	DD	FLAT:?Serialize@?$CList@NN@@UAEXAAVCArchive@@@Z
	DD	FLAT:?AssertValid@CObject@@UBEXXZ
	DD	FLAT:?Dump@CObject@@UBEXAAVCDumpContext@@@Z
CONST	ENDS
;	COMDAT ??_7CVerticalScale@@6B@
CONST	SEGMENT
??_7CVerticalScale@@6B@ DD FLAT:??_R4CVerticalScale@@6B@ ; CVerticalScale::`vftable'
	DD	FLAT:?SetScaleData@CVerticalScale@@UAEXPADPAUHWND__@@@Z
CONST	ENDS
;	COMDAT ??_7CHorizontalScale@@6B@
CONST	SEGMENT
??_7CHorizontalScale@@6B@ DD FLAT:??_R4CHorizontalScale@@6B@ ; CHorizontalScale::`vftable'
	DD	FLAT:?SetScaleData@CHorizontalScale@@UAEXPADPAUHWND__@@@Z
CONST	ENDS
;	COMDAT ??_7CScale@@6B@
CONST	SEGMENT
??_7CScale@@6B@ DD FLAT:??_R4CScale@@6B@		; CScale::`vftable'
	DD	FLAT:?SetScaleData@CScale@@UAEXPADPAUHWND__@@@Z
CONST	ENDS
;	COMDAT ??_7CMarketProfileHorzScaleDrawer@@6B@
CONST	SEGMENT
??_7CMarketProfileHorzScaleDrawer@@6B@ DD FLAT:??_R4CMarketProfileHorzScaleDrawer@@6B@ ; CMarketProfileHorzScaleDrawer::`vftable'
	DD	FLAT:?DrawTextOrGrid@CHorzScaleDrawer@@UAE_NPAVCDC@@ABVCDrawingHorzScaleData@@ABVCRect@@ABVCHorizontalScale@@PAVCXScaleManager@@PBD@Z
	DD	FLAT:?DrawTextOrGrid@CMarketProfileHorzScaleDrawer@@UAEXPAVCDC@@ABVCDrawingHorzScaleData@@ABVCRect@@ABVCHorizontalScale@@@Z
	DD	FLAT:?DrawTextOrGrid_Both@CHorzScaleDrawer@@UAE_NPAVCDC@@ABVCDrawingHorzScaleData@@ABVCHorzScaleRegion@@ABVCHorizontalScale@@PAVCXScaleManager@@PBD@Z
	DD	FLAT:?DrawTextOrGrid_Both@CMarketProfileHorzScaleDrawer@@UAEXPAVCDC@@ABVCDrawingHorzScaleData@@ABVCHorzScaleRegion@@ABVCHorizontalScale@@@Z
	DD	FLAT:?DrawGrid@CHorzScaleDrawer@@UAE_NPAVCDC@@ABVCDrawingHorzScaleData@@ABVCHorzScaleRegion@@ABVCHorizontalScale@@PAVCXScaleManager@@PBD@Z
	DD	FLAT:?DrawGrid@CMarketProfileHorzScaleDrawer@@UAEXPAVCDC@@ABVCDrawingHorzScaleData@@ABVCHorizontalScale@@@Z
CONST	ENDS
;	COMDAT ??_7CLeftRightScaleDrawer@@6B@
CONST	SEGMENT
??_7CLeftRightScaleDrawer@@6B@ DD FLAT:??_R4CLeftRightScaleDrawer@@6B@ ; CLeftRightScaleDrawer::`vftable'
	DD	FLAT:?DrawTextOrGrid@CHorzScaleDrawer@@UAE_NPAVCDC@@ABVCDrawingHorzScaleData@@ABVCRect@@ABVCHorizontalScale@@PAVCXScaleManager@@PBD@Z
	DD	FLAT:?DrawTextOrGrid@CLeftRightScaleDrawer@@UAEXPAVCDC@@ABVCDrawingHorzScaleData@@ABVCRect@@ABVCHorizontalScale@@@Z
	DD	FLAT:?DrawTextOrGrid_Both@CHorzScaleDrawer@@UAE_NPAVCDC@@ABVCDrawingHorzScaleData@@ABVCHorzScaleRegion@@ABVCHorizontalScale@@PAVCXScaleManager@@PBD@Z
	DD	FLAT:?DrawTextOrGrid_Both@CLeftRightScaleDrawer@@UAEXPAVCDC@@ABVCDrawingHorzScaleData@@ABVCHorzScaleRegion@@ABVCHorizontalScale@@@Z
	DD	FLAT:?DrawGrid@CHorzScaleDrawer@@UAE_NPAVCDC@@ABVCDrawingHorzScaleData@@ABVCHorzScaleRegion@@ABVCHorizontalScale@@PAVCXScaleManager@@PBD@Z
	DD	FLAT:?DrawGrid@CLeftRightScaleDrawer@@UAEXPAVCDC@@ABVCDrawingHorzScaleData@@ABVCHorizontalScale@@@Z
CONST	ENDS
;	COMDAT ??_7CEtcDataHorzScaleDrawer@@6B@
CONST	SEGMENT
??_7CEtcDataHorzScaleDrawer@@6B@ DD FLAT:??_R4CEtcDataHorzScaleDrawer@@6B@ ; CEtcDataHorzScaleDrawer::`vftable'
	DD	FLAT:?DrawTextOrGrid@CHorzScaleDrawer@@UAE_NPAVCDC@@ABVCDrawingHorzScaleData@@ABVCRect@@ABVCHorizontalScale@@PAVCXScaleManager@@PBD@Z
	DD	FLAT:?DrawTextOrGrid@CEtcDataHorzScaleDrawer@@UAEXPAVCDC@@ABVCDrawingHorzScaleData@@ABVCRect@@ABVCHorizontalScale@@@Z
	DD	FLAT:?DrawTextOrGrid_Both@CHorzScaleDrawer@@UAE_NPAVCDC@@ABVCDrawingHorzScaleData@@ABVCHorzScaleRegion@@ABVCHorizontalScale@@PAVCXScaleManager@@PBD@Z
	DD	FLAT:?DrawTextOrGrid_Both@CEtcDataHorzScaleDrawer@@UAEXPAVCDC@@ABVCDrawingHorzScaleData@@ABVCHorzScaleRegion@@ABVCHorizontalScale@@@Z
	DD	FLAT:?DrawGrid@CHorzScaleDrawer@@UAE_NPAVCDC@@ABVCDrawingHorzScaleData@@ABVCHorzScaleRegion@@ABVCHorizontalScale@@PAVCXScaleManager@@PBD@Z
	DD	FLAT:?DrawGrid@CEtcDataHorzScaleDrawer@@UAEXPAVCDC@@ABVCDrawingHorzScaleData@@ABVCHorizontalScale@@@Z
CONST	ENDS
;	COMDAT ??_7CPriceZoneHorzScaleDrawer@@6B@
CONST	SEGMENT
??_7CPriceZoneHorzScaleDrawer@@6B@ DD FLAT:??_R4CPriceZoneHorzScaleDrawer@@6B@ ; CPriceZoneHorzScaleDrawer::`vftable'
	DD	FLAT:?DrawTextOrGrid@CHorzScaleDrawer@@UAE_NPAVCDC@@ABVCDrawingHorzScaleData@@ABVCRect@@ABVCHorizontalScale@@PAVCXScaleManager@@PBD@Z
	DD	FLAT:?DrawTextOrGrid@CPriceZoneHorzScaleDrawer@@UAEXPAVCDC@@ABVCDrawingHorzScaleData@@ABVCRect@@ABVCHorizontalScale@@@Z
	DD	FLAT:?DrawTextOrGrid_Both@CHorzScaleDrawer@@UAE_NPAVCDC@@ABVCDrawingHorzScaleData@@ABVCHorzScaleRegion@@ABVCHorizontalScale@@PAVCXScaleManager@@PBD@Z
	DD	FLAT:?DrawTextOrGrid_Both@CPriceZoneHorzScaleDrawer@@UAEXPAVCDC@@ABVCDrawingHorzScaleData@@ABVCHorzScaleRegion@@ABVCHorizontalScale@@@Z
	DD	FLAT:?DrawGrid@CHorzScaleDrawer@@UAE_NPAVCDC@@ABVCDrawingHorzScaleData@@ABVCHorzScaleRegion@@ABVCHorizontalScale@@PAVCXScaleManager@@PBD@Z
	DD	FLAT:?DrawGrid@CPriceZoneHorzScaleDrawer@@UAEXPAVCDC@@ABVCDrawingHorzScaleData@@ABVCHorizontalScale@@@Z
CONST	ENDS
;	COMDAT ??_7CDataHorzScaleDrawer@@6B@
CONST	SEGMENT
??_7CDataHorzScaleDrawer@@6B@ DD FLAT:??_R4CDataHorzScaleDrawer@@6B@ ; CDataHorzScaleDrawer::`vftable'
	DD	FLAT:?DrawTextOrGrid@CHorzScaleDrawer@@UAE_NPAVCDC@@ABVCDrawingHorzScaleData@@ABVCRect@@ABVCHorizontalScale@@PAVCXScaleManager@@PBD@Z
	DD	FLAT:__purecall
	DD	FLAT:?DrawTextOrGrid_Both@CHorzScaleDrawer@@UAE_NPAVCDC@@ABVCDrawingHorzScaleData@@ABVCHorzScaleRegion@@ABVCHorizontalScale@@PAVCXScaleManager@@PBD@Z
	DD	FLAT:__purecall
	DD	FLAT:?DrawGrid@CHorzScaleDrawer@@UAE_NPAVCDC@@ABVCDrawingHorzScaleData@@ABVCHorzScaleRegion@@ABVCHorizontalScale@@PAVCXScaleManager@@PBD@Z
	DD	FLAT:__purecall
CONST	ENDS
;	COMDAT ??_R1A@?0A@EA@CFont@@8
rdata$r	SEGMENT
??_R1A@?0A@EA@CFont@@8 DD FLAT:??_R0?AVCFont@@@8	; CFont::`RTTI Base Class Descriptor at (0,-1,0,64)'
	DD	02H
	DD	00H
	DD	0ffffffffH
	DD	00H
	DD	040H
	DD	FLAT:??_R3CFont@@8
rdata$r	ENDS
;	COMDAT ??_R2CFont@@8
rdata$r	SEGMENT
??_R2CFont@@8 DD FLAT:??_R1A@?0A@EA@CFont@@8		; CFont::`RTTI Base Class Array'
	DD	FLAT:??_R1A@?0A@EA@CGdiObject@@8
	DD	FLAT:??_R1A@?0A@EA@CObject@@8
rdata$r	ENDS
;	COMDAT ??_R3CFont@@8
rdata$r	SEGMENT
??_R3CFont@@8 DD 00H					; CFont::`RTTI Class Hierarchy Descriptor'
	DD	00H
	DD	03H
	DD	FLAT:??_R2CFont@@8
rdata$r	ENDS
;	COMDAT ??_R0?AVCFont@@@8
data$rs	SEGMENT
??_R0?AVCFont@@@8 DD FLAT:??_7type_info@@6B@		; CFont `RTTI Type Descriptor'
	DD	00H
	DB	'.?AVCFont@@', 00H
data$rs	ENDS
;	COMDAT ??_R4CFont@@6B@
rdata$r	SEGMENT
??_R4CFont@@6B@ DD 00H					; CFont::`RTTI Complete Object Locator'
	DD	00H
	DD	00H
	DD	FLAT:??_R0?AVCFont@@@8
	DD	FLAT:??_R3CFont@@8
rdata$r	ENDS
;	COMDAT ??_R1A@?0A@EA@CGdiObject@@8
rdata$r	SEGMENT
??_R1A@?0A@EA@CGdiObject@@8 DD FLAT:??_R0?AVCGdiObject@@@8 ; CGdiObject::`RTTI Base Class Descriptor at (0,-1,0,64)'
	DD	01H
	DD	00H
	DD	0ffffffffH
	DD	00H
	DD	040H
	DD	FLAT:??_R3CGdiObject@@8
rdata$r	ENDS
;	COMDAT ??_R2CGdiObject@@8
rdata$r	SEGMENT
??_R2CGdiObject@@8 DD FLAT:??_R1A@?0A@EA@CGdiObject@@8	; CGdiObject::`RTTI Base Class Array'
	DD	FLAT:??_R1A@?0A@EA@CObject@@8
rdata$r	ENDS
;	COMDAT ??_R3CGdiObject@@8
rdata$r	SEGMENT
??_R3CGdiObject@@8 DD 00H				; CGdiObject::`RTTI Class Hierarchy Descriptor'
	DD	00H
	DD	02H
	DD	FLAT:??_R2CGdiObject@@8
rdata$r	ENDS
;	COMDAT ??_R0?AVCGdiObject@@@8
data$rs	SEGMENT
??_R0?AVCGdiObject@@@8 DD FLAT:??_7type_info@@6B@	; CGdiObject `RTTI Type Descriptor'
	DD	00H
	DB	'.?AVCGdiObject@@', 00H
data$rs	ENDS
;	COMDAT ??_R4CGdiObject@@6B@
rdata$r	SEGMENT
??_R4CGdiObject@@6B@ DD 00H				; CGdiObject::`RTTI Complete Object Locator'
	DD	00H
	DD	00H
	DD	FLAT:??_R0?AVCGdiObject@@@8
	DD	FLAT:??_R3CGdiObject@@8
rdata$r	ENDS
;	COMDAT ??_R1A@?0A@EA@CObject@@8
rdata$r	SEGMENT
??_R1A@?0A@EA@CObject@@8 DD FLAT:??_R0?AVCObject@@@8	; CObject::`RTTI Base Class Descriptor at (0,-1,0,64)'
	DD	00H
	DD	00H
	DD	0ffffffffH
	DD	00H
	DD	040H
	DD	FLAT:??_R3CObject@@8
rdata$r	ENDS
;	COMDAT ??_R2CObject@@8
rdata$r	SEGMENT
??_R2CObject@@8 DD FLAT:??_R1A@?0A@EA@CObject@@8	; CObject::`RTTI Base Class Array'
rdata$r	ENDS
;	COMDAT ??_R3CObject@@8
rdata$r	SEGMENT
??_R3CObject@@8 DD 00H					; CObject::`RTTI Class Hierarchy Descriptor'
	DD	00H
	DD	01H
	DD	FLAT:??_R2CObject@@8
rdata$r	ENDS
;	COMDAT ??_R0?AVCObject@@@8
data$rs	SEGMENT
??_R0?AVCObject@@@8 DD FLAT:??_7type_info@@6B@		; CObject `RTTI Type Descriptor'
	DD	00H
	DB	'.?AVCObject@@', 00H
data$rs	ENDS
;	COMDAT ??_C@_0N@OMEMOKLE@?$CFTs?5?$CI?$CFTs?3?$CFd?$CJ@
CONST	SEGMENT
??_C@_0N@OMEMOKLE@?$CFTs?5?$CI?$CFTs?3?$CFd?$CJ@ DB '%Ts (%Ts:%d)', 00H ; `string'
CONST	ENDS
;	COMDAT ??_C@_0BB@HBOOMJBF@?$CFTs?5?$CI?$CFTs?3?$CFd?$CJ?6?$CFTs@
CONST	SEGMENT
??_C@_0BB@HBOOMJBF@?$CFTs?5?$CI?$CFTs?3?$CFd?$CJ?6?$CFTs@ DB '%Ts (%Ts:%d'
	DB	')', 0aH, '%Ts', 00H				; `string'
CONST	ENDS
;	COMDAT ??_C@_0BP@OIEOKIDM@Exception?5thrown?5in?5destructor@
CONST	SEGMENT
??_C@_0BP@OIEOKIDM@Exception?5thrown?5in?5destructor@ DB 'Exception throw'
	DB	'n in destructor', 00H			; `string'
CONST	ENDS
;	COMDAT ??_C@_0HD@JJCHHHNK@C?3?2Program?5Files?5?$CIx86?$CJ?2Microsof@
CONST	SEGMENT
??_C@_0HD@JJCHHHNK@C?3?2Program?5Files?5?$CIx86?$CJ?2Microsof@ DB 'C:\Pro'
	DB	'gram Files (x86)\Microsoft Visual Studio\2019\Community\VC\To'
	DB	'ols\MSVC\14.29.30133\atlmfc\include\afxwin1.inl', 00H ; `string'
CONST	ENDS
;	COMDAT ??_7CFont@@6B@
CONST	SEGMENT
??_7CFont@@6B@ DD FLAT:??_R4CFont@@6B@			; CFont::`vftable'
	DD	FLAT:?GetRuntimeClass@CFont@@UBEPAUCRuntimeClass@@XZ
	DD	FLAT:??_ECFont@@UAEPAXI@Z
	DD	FLAT:?Serialize@CObject@@UAEXAAVCArchive@@@Z
	DD	FLAT:?AssertValid@CObject@@UBEXXZ
	DD	FLAT:?Dump@CObject@@UBEXAAVCDumpContext@@@Z
CONST	ENDS
;	COMDAT ??_7CGdiObject@@6B@
CONST	SEGMENT
??_7CGdiObject@@6B@ DD FLAT:??_R4CGdiObject@@6B@	; CGdiObject::`vftable'
	DD	FLAT:?GetRuntimeClass@CGdiObject@@UBEPAUCRuntimeClass@@XZ
	DD	FLAT:??_ECGdiObject@@UAEPAXI@Z
	DD	FLAT:?Serialize@CObject@@UAEXAAVCArchive@@@Z
	DD	FLAT:?AssertValid@CObject@@UBEXXZ
	DD	FLAT:?Dump@CObject@@UBEXAAVCDumpContext@@@Z
CONST	ENDS
;	COMDAT ??_C@_00CNPNBAHC@@
CONST	SEGMENT
??_C@_00CNPNBAHC@@ DB 00H				; `string'
CONST	ENDS
;	COMDAT ??_R0PAVCException@@@8
data$r	SEGMENT
??_R0PAVCException@@@8 DD FLAT:??_7type_info@@6B@	; CException * `RTTI Type Descriptor'
	DD	00H
	DB	'.PAVCException@@', 00H
data$r	ENDS
;	COMDAT xdata$x
xdata$x	SEGMENT
__unwindtable$??_G?$CList@NN@@UAEPAXI@Z DD 0ffffffffH
	DD	FLAT:___std_terminate
__ehfuncinfo$??_G?$CList@NN@@UAEPAXI@Z DD 019930522H
	DD	01H
	DD	FLAT:__unwindtable$??_G?$CList@NN@@UAEPAXI@Z
	DD	2 DUP(00H)
	DD	2 DUP(00H)
	DD	00H
	DD	05H
xdata$x	ENDS
;	COMDAT xdata$x
xdata$x	SEGMENT
__ehfuncinfo$??1?$CList@NN@@UAE@XZ DD 019930522H
	DD	00H
	DD	00H
	DD	2 DUP(00H)
	DD	2 DUP(00H)
	DD	00H
	DD	05H
xdata$x	ENDS
;	COMDAT xdata$x
xdata$x	SEGMENT
__unwindtable$??0CHorizontalScale@@QAE@ABV0@@Z DD 0ffffffffH
	DD	FLAT:__unwindfunclet$??0CHorizontalScale@@QAE@ABV0@@Z$0
	DD	00H
	DD	FLAT:__unwindfunclet$??0CHorizontalScale@@QAE@ABV0@@Z$3
__ehfuncinfo$??0CHorizontalScale@@QAE@ABV0@@Z DD 019930522H
	DD	02H
	DD	FLAT:__unwindtable$??0CHorizontalScale@@QAE@ABV0@@Z
	DD	2 DUP(00H)
	DD	2 DUP(00H)
	DD	00H
	DD	01H
xdata$x	ENDS
;	COMDAT xdata$x
xdata$x	SEGMENT
__unwindtable$??0CScaleCompart@@QAE@ABV0@@Z DD 0ffffffffH
	DD	FLAT:__unwindfunclet$??0CScaleCompart@@QAE@ABV0@@Z$0
__ehfuncinfo$??0CScaleCompart@@QAE@ABV0@@Z DD 019930522H
	DD	01H
	DD	FLAT:__unwindtable$??0CScaleCompart@@QAE@ABV0@@Z
	DD	2 DUP(00H)
	DD	2 DUP(00H)
	DD	00H
	DD	01H
xdata$x	ENDS
;	COMDAT xdata$x
xdata$x	SEGMENT
__unwindtable$?DrawScale@CMarketProfileHorzScaleDrawer@@AAEXPAVCDC@@ABVCDrawingHorzScaleData@@ABVCRect@@2ABVCHorizontalScale@@@Z DD 0ffffffffH
	DD	FLAT:__unwindfunclet$?DrawScale@CMarketProfileHorzScaleDrawer@@AAEXPAVCDC@@ABVCDrawingHorzScaleData@@ABVCRect@@2ABVCHorizontalScale@@@Z$0
	DD	0ffffffffH
	DD	FLAT:__unwindfunclet$?DrawScale@CMarketProfileHorzScaleDrawer@@AAEXPAVCDC@@ABVCDrawingHorzScaleData@@ABVCRect@@2ABVCHorizontalScale@@@Z$1
__ehfuncinfo$?DrawScale@CMarketProfileHorzScaleDrawer@@AAEXPAVCDC@@ABVCDrawingHorzScaleData@@ABVCRect@@2ABVCHorizontalScale@@@Z DD 019930522H
	DD	02H
	DD	FLAT:__unwindtable$?DrawScale@CMarketProfileHorzScaleDrawer@@AAEXPAVCDC@@ABVCDrawingHorzScaleData@@ABVCRect@@2ABVCHorizontalScale@@@Z
	DD	2 DUP(00H)
	DD	2 DUP(00H)
	DD	00H
	DD	01H
xdata$x	ENDS
;	COMDAT xdata$x
xdata$x	SEGMENT
__unwindtable$?GetData@CLeftRightScaleDrawer@@ABE?AV?$CStringT@DV?$StrTraitMFC_DLL@DV?$ChTraitsCRT@D@ATL@@@@@ATL@@ABNAAN@Z DD 0ffffffffH
	DD	FLAT:__unwindfunclet$?GetData@CLeftRightScaleDrawer@@ABE?AV?$CStringT@DV?$StrTraitMFC_DLL@DV?$ChTraitsCRT@D@ATL@@@@@ATL@@ABNAAN@Z$1
	DD	00H
	DD	FLAT:__unwindfunclet$?GetData@CLeftRightScaleDrawer@@ABE?AV?$CStringT@DV?$StrTraitMFC_DLL@DV?$ChTraitsCRT@D@ATL@@@@@ATL@@ABNAAN@Z$2
	DD	0ffffffffH
	DD	FLAT:__unwindfunclet$?GetData@CLeftRightScaleDrawer@@ABE?AV?$CStringT@DV?$StrTraitMFC_DLL@DV?$ChTraitsCRT@D@ATL@@@@@ATL@@ABNAAN@Z$2
	DD	02H
	DD	FLAT:__unwindfunclet$?GetData@CLeftRightScaleDrawer@@ABE?AV?$CStringT@DV?$StrTraitMFC_DLL@DV?$ChTraitsCRT@D@ATL@@@@@ATL@@ABNAAN@Z$5
__ehfuncinfo$?GetData@CLeftRightScaleDrawer@@ABE?AV?$CStringT@DV?$StrTraitMFC_DLL@DV?$ChTraitsCRT@D@ATL@@@@@ATL@@ABNAAN@Z DD 019930522H
	DD	04H
	DD	FLAT:__unwindtable$?GetData@CLeftRightScaleDrawer@@ABE?AV?$CStringT@DV?$StrTraitMFC_DLL@DV?$ChTraitsCRT@D@ATL@@@@@ATL@@ABNAAN@Z
	DD	2 DUP(00H)
	DD	2 DUP(00H)
	DD	00H
	DD	01H
xdata$x	ENDS
;	COMDAT xdata$x
xdata$x	SEGMENT
__unwindtable$?GetDataListAndMinMax@CLeftRightScaleDrawer@@ABE_NABVCDrawingHorzScaleData@@AAV?$CList@NN@@AAN2@Z DD 0ffffffffH
	DD	FLAT:__unwindfunclet$?GetDataListAndMinMax@CLeftRightScaleDrawer@@ABE_NABVCDrawingHorzScaleData@@AAV?$CList@NN@@AAN2@Z$0
__ehfuncinfo$?GetDataListAndMinMax@CLeftRightScaleDrawer@@ABE_NABVCDrawingHorzScaleData@@AAV?$CList@NN@@AAN2@Z DD 019930522H
	DD	01H
	DD	FLAT:__unwindtable$?GetDataListAndMinMax@CLeftRightScaleDrawer@@ABE_NABVCDrawingHorzScaleData@@AAV?$CList@NN@@AAN2@Z
	DD	2 DUP(00H)
	DD	2 DUP(00H)
	DD	00H
	DD	01H
xdata$x	ENDS
;	COMDAT xdata$x
xdata$x	SEGMENT
__unwindtable$?DrawGrid@CLeftRightScaleDrawer@@UAEXPAVCDC@@ABVCDrawingHorzScaleData@@ABVCHorizontalScale@@@Z DD 0ffffffffH
	DD	FLAT:__unwindfunclet$?DrawGrid@CLeftRightScaleDrawer@@UAEXPAVCDC@@ABVCDrawingHorzScaleData@@ABVCHorizontalScale@@@Z$0
	DD	00H
	DD	FLAT:__unwindfunclet$?DrawGrid@CLeftRightScaleDrawer@@UAEXPAVCDC@@ABVCDrawingHorzScaleData@@ABVCHorizontalScale@@@Z$1
	DD	00H
	DD	FLAT:__unwindfunclet$?DrawGrid@CLeftRightScaleDrawer@@UAEXPAVCDC@@ABVCDrawingHorzScaleData@@ABVCHorizontalScale@@@Z$2
	DD	0ffffffffH
	DD	FLAT:___std_terminate
__ehfuncinfo$?DrawGrid@CLeftRightScaleDrawer@@UAEXPAVCDC@@ABVCDrawingHorzScaleData@@ABVCHorizontalScale@@@Z DD 019930522H
	DD	04H
	DD	FLAT:__unwindtable$?DrawGrid@CLeftRightScaleDrawer@@UAEXPAVCDC@@ABVCDrawingHorzScaleData@@ABVCHorizontalScale@@@Z
	DD	2 DUP(00H)
	DD	2 DUP(00H)
	DD	00H
	DD	01H
xdata$x	ENDS
;	COMDAT xdata$x
xdata$x	SEGMENT
__unwindtable$?DrawTextOrGrid@CLeftRightScaleDrawer@@UAEXPAVCDC@@ABVCDrawingHorzScaleData@@ABVCRect@@ABVCHorizontalScale@@@Z DD 0ffffffffH
	DD	FLAT:__unwindfunclet$?DrawTextOrGrid@CLeftRightScaleDrawer@@UAEXPAVCDC@@ABVCDrawingHorzScaleData@@ABVCRect@@ABVCHorizontalScale@@@Z$0
	DD	00H
	DD	FLAT:__unwindfunclet$?DrawTextOrGrid@CLeftRightScaleDrawer@@UAEXPAVCDC@@ABVCDrawingHorzScaleData@@ABVCRect@@ABVCHorizontalScale@@@Z$1
	DD	00H
	DD	FLAT:__unwindfunclet$?DrawTextOrGrid@CLeftRightScaleDrawer@@UAEXPAVCDC@@ABVCDrawingHorzScaleData@@ABVCRect@@ABVCHorizontalScale@@@Z$2
	DD	0ffffffffH
	DD	FLAT:___std_terminate
__ehfuncinfo$?DrawTextOrGrid@CLeftRightScaleDrawer@@UAEXPAVCDC@@ABVCDrawingHorzScaleData@@ABVCRect@@ABVCHorizontalScale@@@Z DD 019930522H
	DD	04H
	DD	FLAT:__unwindtable$?DrawTextOrGrid@CLeftRightScaleDrawer@@UAEXPAVCDC@@ABVCDrawingHorzScaleData@@ABVCRect@@ABVCHorizontalScale@@@Z
	DD	2 DUP(00H)
	DD	2 DUP(00H)
	DD	00H
	DD	01H
xdata$x	ENDS
;	COMDAT xdata$x
xdata$x	SEGMENT
__unwindtable$?GetFont@CEtcDataHorzScaleDrawer@@AAEXAAVCFont@@@Z DD 0ffffffffH
	DD	FLAT:__unwindfunclet$?GetFont@CEtcDataHorzScaleDrawer@@AAEXAAVCFont@@@Z$0
__ehfuncinfo$?GetFont@CEtcDataHorzScaleDrawer@@AAEXAAVCFont@@@Z DD 019930522H
	DD	01H
	DD	FLAT:__unwindtable$?GetFont@CEtcDataHorzScaleDrawer@@AAEXAAVCFont@@@Z
	DD	2 DUP(00H)
	DD	2 DUP(00H)
	DD	00H
	DD	01H
xdata$x	ENDS
;	COMDAT xdata$x
xdata$x	SEGMENT
__unwindtable$?DrawTextAndCompartLine_stand@CEtcDataHorzScaleDrawer@@AAEXPAVCDC@@ABVCRect@@ABVCPoint@@ABNABV?$CStringT@DV?$StrTraitMFC_DLL@DV?$ChTraitsCRT@D@ATL@@@@@ATL@@ABVCSize@@KKAAH@Z DD 0ffffffffH
	DD	FLAT:__unwindfunclet$?DrawTextAndCompartLine_stand@CEtcDataHorzScaleDrawer@@AAEXPAVCDC@@ABVCRect@@ABVCPoint@@ABNABV?$CStringT@DV?$StrTraitMFC_DLL@DV?$ChTraitsCRT@D@ATL@@@@@ATL@@ABVCSize@@KKAAH@Z$0
	DD	00H
	DD	FLAT:__unwindfunclet$?DrawTextAndCompartLine_stand@CEtcDataHorzScaleDrawer@@AAEXPAVCDC@@ABVCRect@@ABVCPoint@@ABNABV?$CStringT@DV?$StrTraitMFC_DLL@DV?$ChTraitsCRT@D@ATL@@@@@ATL@@ABVCSize@@KKAAH@Z$1
__ehfuncinfo$?DrawTextAndCompartLine_stand@CEtcDataHorzScaleDrawer@@AAEXPAVCDC@@ABVCRect@@ABVCPoint@@ABNABV?$CStringT@DV?$StrTraitMFC_DLL@DV?$ChTraitsCRT@D@ATL@@@@@ATL@@ABVCSize@@KKAAH@Z DD 019930522H
	DD	02H
	DD	FLAT:__unwindtable$?DrawTextAndCompartLine_stand@CEtcDataHorzScaleDrawer@@AAEXPAVCDC@@ABVCRect@@ABVCPoint@@ABNABV?$CStringT@DV?$StrTraitMFC_DLL@DV?$ChTraitsCRT@D@ATL@@@@@ATL@@ABVCSize@@KKAAH@Z
	DD	2 DUP(00H)
	DD	2 DUP(00H)
	DD	00H
	DD	01H
xdata$x	ENDS
;	COMDAT xdata$x
xdata$x	SEGMENT
__ehfuncinfo$?DrawTextOrGrid@CEtcDataHorzScaleDrawer@@UAEXPAVCDC@@ABVCDrawingHorzScaleData@@ABVCRect@@ABVCHorizontalScale@@@Z DD 019930522H
	DD	09H
	DD	FLAT:__unwindtable$?DrawTextOrGrid@CEtcDataHorzScaleDrawer@@UAEXPAVCDC@@ABVCDrawingHorzScaleData@@ABVCRect@@ABVCHorizontalScale@@@Z
	DD	2 DUP(00H)
	DD	2 DUP(00H)
	DD	00H
	DD	01H
__unwindtable$?DrawTextOrGrid@CEtcDataHorzScaleDrawer@@UAEXPAVCDC@@ABVCDrawingHorzScaleData@@ABVCRect@@ABVCHorizontalScale@@@Z DD 0ffffffffH
	DD	FLAT:__unwindfunclet$?DrawTextOrGrid@CEtcDataHorzScaleDrawer@@UAEXPAVCDC@@ABVCDrawingHorzScaleData@@ABVCRect@@ABVCHorizontalScale@@@Z$0
	DD	00H
	DD	FLAT:__unwindfunclet$?DrawTextOrGrid@CEtcDataHorzScaleDrawer@@UAEXPAVCDC@@ABVCDrawingHorzScaleData@@ABVCRect@@ABVCHorizontalScale@@@Z$1
	DD	00H
	DD	FLAT:__unwindfunclet$?DrawTextOrGrid@CEtcDataHorzScaleDrawer@@UAEXPAVCDC@@ABVCDrawingHorzScaleData@@ABVCRect@@ABVCHorizontalScale@@@Z$2
	DD	02H
	DD	FLAT:__unwindfunclet$?DrawTextOrGrid@CEtcDataHorzScaleDrawer@@UAEXPAVCDC@@ABVCDrawingHorzScaleData@@ABVCRect@@ABVCHorizontalScale@@@Z$3
	DD	02H
	DD	FLAT:__unwindfunclet$?DrawTextOrGrid@CEtcDataHorzScaleDrawer@@UAEXPAVCDC@@ABVCDrawingHorzScaleData@@ABVCRect@@ABVCHorizontalScale@@@Z$9
	DD	02H
	DD	FLAT:__unwindfunclet$?DrawTextOrGrid@CEtcDataHorzScaleDrawer@@UAEXPAVCDC@@ABVCDrawingHorzScaleData@@ABVCRect@@ABVCHorizontalScale@@@Z$4
	DD	05H
	DD	FLAT:__unwindfunclet$?DrawTextOrGrid@CEtcDataHorzScaleDrawer@@UAEXPAVCDC@@ABVCDrawingHorzScaleData@@ABVCRect@@ABVCHorizontalScale@@@Z$5
	DD	02H
	DD	FLAT:__unwindfunclet$?DrawTextOrGrid@CEtcDataHorzScaleDrawer@@UAEXPAVCDC@@ABVCDrawingHorzScaleData@@ABVCRect@@ABVCHorizontalScale@@@Z$5
	DD	07H
	DD	FLAT:__unwindfunclet$?DrawTextOrGrid@CEtcDataHorzScaleDrawer@@UAEXPAVCDC@@ABVCDrawingHorzScaleData@@ABVCRect@@ABVCHorizontalScale@@@Z$6
xdata$x	ENDS
;	COMDAT xdata$x
xdata$x	SEGMENT
__ehfuncinfo$?DrawTextOrGrid@CPriceZoneHorzScaleDrawer@@UAEXPAVCDC@@ABVCDrawingHorzScaleData@@ABVCRect@@ABVCHorizontalScale@@@Z DD 019930522H
	DD	05H
	DD	FLAT:__unwindtable$?DrawTextOrGrid@CPriceZoneHorzScaleDrawer@@UAEXPAVCDC@@ABVCDrawingHorzScaleData@@ABVCRect@@ABVCHorizontalScale@@@Z
	DD	2 DUP(00H)
	DD	2 DUP(00H)
	DD	00H
	DD	01H
__unwindtable$?DrawTextOrGrid@CPriceZoneHorzScaleDrawer@@UAEXPAVCDC@@ABVCDrawingHorzScaleData@@ABVCRect@@ABVCHorizontalScale@@@Z DD 0ffffffffH
	DD	FLAT:__unwindfunclet$?DrawTextOrGrid@CPriceZoneHorzScaleDrawer@@UAEXPAVCDC@@ABVCDrawingHorzScaleData@@ABVCRect@@ABVCHorizontalScale@@@Z$0
	DD	00H
	DD	FLAT:__unwindfunclet$?DrawTextOrGrid@CPriceZoneHorzScaleDrawer@@UAEXPAVCDC@@ABVCDrawingHorzScaleData@@ABVCRect@@ABVCHorizontalScale@@@Z$1
	DD	00H
	DD	FLAT:__unwindfunclet$?DrawTextOrGrid@CPriceZoneHorzScaleDrawer@@UAEXPAVCDC@@ABVCDrawingHorzScaleData@@ABVCRect@@ABVCHorizontalScale@@@Z$2
	DD	02H
	DD	FLAT:__unwindfunclet$?DrawTextOrGrid@CPriceZoneHorzScaleDrawer@@UAEXPAVCDC@@ABVCDrawingHorzScaleData@@ABVCRect@@ABVCHorizontalScale@@@Z$3
	DD	00H
	DD	FLAT:__unwindfunclet$?DrawTextOrGrid@CPriceZoneHorzScaleDrawer@@UAEXPAVCDC@@ABVCDrawingHorzScaleData@@ABVCRect@@ABVCHorizontalScale@@@Z$3
xdata$x	ENDS
;	COMDAT xdata$x
xdata$x	SEGMENT
__catchsym$??1CGdiObject@@UAE@XZ$3 DD 00H
	DD	FLAT:??_R0PAVCException@@@8
	DD	0fffffde4H
	DD	FLAT:__catch$??1CGdiObject@@UAE@XZ$0
__tryblocktable$??1CGdiObject@@UAE@XZ DD 00H
	DD	00H
	DD	02H
	DD	01H
	DD	FLAT:__catchsym$??1CGdiObject@@UAE@XZ$3
__unwindtable$??1CGdiObject@@UAE@XZ DD 0ffffffffH
	DD	00H
	DD	0ffffffffH
	DD	00H
	DD	01H
	DD	FLAT:__unwindfunclet$??1CGdiObject@@UAE@XZ$2
__ehfuncinfo$??1CGdiObject@@UAE@XZ DD 019930522H
	DD	03H
	DD	FLAT:__unwindtable$??1CGdiObject@@UAE@XZ
	DD	01H
	DD	FLAT:__tryblocktable$??1CGdiObject@@UAE@XZ
	DD	2 DUP(00H)
	DD	00H
	DD	05H
xdata$x	ENDS
;	COMDAT xdata$x
xdata$x	SEGMENT
__unwindtable$??HATL@@YA?AV?$CStringT@DV?$StrTraitMFC_DLL@DV?$ChTraitsCRT@D@ATL@@@@@0@DABV10@@Z DD 0ffffffffH
	DD	FLAT:__unwindfunclet$??HATL@@YA?AV?$CStringT@DV?$StrTraitMFC_DLL@DV?$ChTraitsCRT@D@ATL@@@@@0@DABV10@@Z$0
__ehfuncinfo$??HATL@@YA?AV?$CStringT@DV?$StrTraitMFC_DLL@DV?$ChTraitsCRT@D@ATL@@@@@0@DABV10@@Z DD 019930522H
	DD	01H
	DD	FLAT:__unwindtable$??HATL@@YA?AV?$CStringT@DV?$StrTraitMFC_DLL@DV?$ChTraitsCRT@D@ATL@@@@@0@DABV10@@Z
	DD	2 DUP(00H)
	DD	2 DUP(00H)
	DD	00H
	DD	01H
xdata$x	ENDS
; Function compile flags: /Ogtp
; File C:\Program Files (x86)\Microsoft Visual Studio\2019\Community\VC\Tools\MSVC\14.29.30133\atlmfc\include\afxtempl.h
; File C:\Program Files (x86)\Microsoft Visual Studio\2019\Community\VC\Tools\MSVC\14.29.30133\atlmfc\include\afx.inl
; File C:\Program Files (x86)\Microsoft Visual Studio\2019\Community\VC\Tools\MSVC\14.29.30133\atlmfc\include\afxtempl.h
; File C:\Program Files (x86)\Microsoft Visual Studio\2019\Community\VC\Tools\MSVC\14.29.30133\atlmfc\include\afx.inl
; File C:\Program Files (x86)\Microsoft Visual Studio\2019\Community\VC\Tools\MSVC\14.29.30133\atlmfc\include\afxtempl.h
; File C:\Program Files (x86)\Microsoft Visual Studio\2019\Community\VC\Tools\MSVC\14.29.30133\atlmfc\include\afx.inl
; File C:\Program Files (x86)\Microsoft Visual Studio\2019\Community\VC\Tools\MSVC\14.29.30133\atlmfc\include\afxtempl.h
;	COMDAT ??$SerializeElements@N@@YGXAAVCArchive@@PANH@Z
_TEXT	SEGMENT
_ar$ = 8						; size = 4
_pElements$ = 12					; size = 4
_nCount$ = 16						; size = 4
??$SerializeElements@N@@YGXAAVCArchive@@PANH@Z PROC	; SerializeElements<double>, COMDAT

; 67   : {

  00000	55		 push	 ebp
  00001	8b ec		 mov	 ebp, esp

; 68   : 	ENSURE(nCount == 0 || pElements != NULL);

  00003	8b 4d 0c	 mov	 ecx, DWORD PTR _pElements$[ebp]
  00006	53		 push	 ebx
  00007	56		 push	 esi
  00008	8b 75 10	 mov	 esi, DWORD PTR _nCount$[ebp]
  0000b	57		 push	 edi
  0000c	85 f6		 test	 esi, esi
  0000e	74 08		 je	 SHORT $LN2@SerializeE
  00010	85 c9		 test	 ecx, ecx
  00012	0f 84 89 00 00
	00		 je	 $LN34@SerializeE
$LN2@SerializeE:
; File C:\Program Files (x86)\Microsoft Visual Studio\2019\Community\VC\Tools\MSVC\14.29.30133\atlmfc\include\afx.inl

; 212  : 	{ return (m_nMode & CArchive::load) == 0; }

  00018	8b 55 08	 mov	 edx, DWORD PTR _ar$[ebp]
  0001b	8b 42 18	 mov	 eax, DWORD PTR [edx+24]
  0001e	f7 d0		 not	 eax
  00020	a8 01		 test	 al, 1
; File C:\Program Files (x86)\Microsoft Visual Studio\2019\Community\VC\Tools\MSVC\14.29.30133\atlmfc\include\afxtempl.h

; 73   : 	if (ar.IsStoring())

  00022	74 3c		 je	 SHORT $LN10@SerializeE

; 74   : 	{
; 75   : 		TYPE* pData;
; 76   : 		UINT_PTR nElementsLeft;
; 77   : 
; 78   : 		nElementsLeft = nCount;
; 79   : 		pData = pElements;
; 80   : 		while( nElementsLeft > 0 )

  00024	85 f6		 test	 esi, esi
  00026	74 31		 je	 SHORT $LN8@SerializeE
  00028	0f 1f 84 00 00
	00 00 00	 npad	 8
$LL5@SerializeE:

; 81   : 		{
; 82   : 			UINT nElementsToWrite;
; 83   : 
; 84   : 			nElementsToWrite = UINT(__min(nElementsLeft, INT_MAX/sizeof(TYPE)));

  00030	bb ff ff ff 0f	 mov	 ebx, 268435455		; 0fffffffH
  00035	3b f3		 cmp	 esi, ebx
  00037	0f 42 de	 cmovb	 ebx, esi

; 85   : 			ar.Write(pData, nElementsToWrite*sizeof(TYPE));

  0003a	8d 3c dd 00 00
	00 00		 lea	 edi, DWORD PTR [ebx*8]
  00041	57		 push	 edi
  00042	51		 push	 ecx
  00043	8b ca		 mov	 ecx, edx
  00045	e8 00 00 00 00	 call	 ?Write@CArchive@@QAEXPBXI@Z ; CArchive::Write

; 86   : 			nElementsLeft -= nElementsToWrite;
; 87   : 			pData += nElementsToWrite;

  0004a	8b 4d 0c	 mov	 ecx, DWORD PTR _pElements$[ebp]
  0004d	8b 55 08	 mov	 edx, DWORD PTR _ar$[ebp]
  00050	03 cf		 add	 ecx, edi
  00052	89 4d 0c	 mov	 DWORD PTR _pElements$[ebp], ecx
  00055	2b f3		 sub	 esi, ebx
  00057	75 d7		 jne	 SHORT $LL5@SerializeE
$LN8@SerializeE:
  00059	5f		 pop	 edi

; 105  : 		}
; 106  : 	}
; 107  : }

  0005a	5e		 pop	 esi
  0005b	5b		 pop	 ebx
  0005c	5d		 pop	 ebp
  0005d	c2 0c 00	 ret	 12			; 0000000cH
$LN10@SerializeE:

; 97   : 		while( nElementsLeft > 0 )

  00060	85 f6		 test	 esi, esi
  00062	74 f5		 je	 SHORT $LN8@SerializeE
$LL7@SerializeE:

; 98   : 		{
; 99   : 			UINT nElementsToRead;
; 100  : 
; 101  : 			nElementsToRead = UINT(__min(nElementsLeft, INT_MAX/sizeof(TYPE)));

  00064	bf ff ff ff 0f	 mov	 edi, 268435455		; 0fffffffH
  00069	3b f7		 cmp	 esi, edi
  0006b	0f 42 fe	 cmovb	 edi, esi

; 102  : 			ar.EnsureRead(pData, nElementsToRead*sizeof(TYPE));

  0006e	8d 1c fd 00 00
	00 00		 lea	 ebx, DWORD PTR [edi*8]
; File C:\Program Files (x86)\Microsoft Visual Studio\2019\Community\VC\Tools\MSVC\14.29.30133\atlmfc\include\afx.inl

; 399  : 	UINT nRead=Read(lpBuf, nCount);

  00075	53		 push	 ebx
  00076	51		 push	 ecx
  00077	8b ca		 mov	 ecx, edx
  00079	e8 00 00 00 00	 call	 ?Read@CArchive@@QAEIPAXI@Z ; CArchive::Read

; 400  : 	if(nRead!=nCount)

  0007e	3b c3		 cmp	 eax, ebx
  00080	75 16		 jne	 SHORT $LN23@SerializeE
; File C:\Program Files (x86)\Microsoft Visual Studio\2019\Community\VC\Tools\MSVC\14.29.30133\atlmfc\include\afxtempl.h

; 97   : 		while( nElementsLeft > 0 )

  00082	8b 4d 0c	 mov	 ecx, DWORD PTR _pElements$[ebp]
  00085	8b 55 08	 mov	 edx, DWORD PTR _ar$[ebp]

; 103  : 			nElementsLeft -= nElementsToRead;
; 104  : 			pData += nElementsToRead;

  00088	03 cb		 add	 ecx, ebx
  0008a	89 4d 0c	 mov	 DWORD PTR _pElements$[ebp], ecx
  0008d	2b f7		 sub	 esi, edi
  0008f	75 d3		 jne	 SHORT $LL7@SerializeE

; 105  : 		}
; 106  : 	}
; 107  : }

  00091	5f		 pop	 edi
  00092	5e		 pop	 esi
  00093	5b		 pop	 ebx
  00094	5d		 pop	 ebp
  00095	c2 0c 00	 ret	 12			; 0000000cH
$LN23@SerializeE:
; File C:\Program Files (x86)\Microsoft Visual Studio\2019\Community\VC\Tools\MSVC\14.29.30133\atlmfc\include\afx.inl

; 402  : 		AfxThrowArchiveException(CArchiveException::endOfFile);

  00098	6a 00		 push	 0
  0009a	6a 03		 push	 3
  0009c	e8 00 00 00 00	 call	 ?AfxThrowArchiveException@@YGXHPBD@Z ; AfxThrowArchiveException
$LN34@SerializeE:
; File C:\Program Files (x86)\Microsoft Visual Studio\2019\Community\VC\Tools\MSVC\14.29.30133\atlmfc\include\afxtempl.h

; 68   : 	ENSURE(nCount == 0 || pElements != NULL);

  000a1	e8 00 00 00 00	 call	 ?AfxThrowInvalidArgException@@YGXXZ ; AfxThrowInvalidArgException
$LN32@SerializeE:
  000a6	cc		 int	 3
??$SerializeElements@N@@YGXAAVCArchive@@PANH@Z ENDP	; SerializeElements<double>
_TEXT	ENDS
; Function compile flags: /Ogtp
; File C:\Program Files (x86)\Microsoft Visual Studio\2019\Community\VC\Tools\MSVC\14.29.30133\atlmfc\include\afxtempl.h
; File C:\Program Files (x86)\Microsoft Visual Studio\2019\Community\VC\Tools\MSVC\14.29.30133\atlmfc\include\afx.inl
;	COMDAT ??_G?$CList@NN@@UAEPAXI@Z
_TEXT	SEGMENT
__$EHRec$ = -12						; size = 12
___flags$ = 8						; size = 4
??_G?$CList@NN@@UAEPAXI@Z PROC				; CList<double,double>::`scalar deleting destructor', COMDAT
; _this$ = ecx
  00000	55		 push	 ebp
  00001	8b ec		 mov	 ebp, esp
  00003	6a ff		 push	 -1
  00005	68 00 00 00 00	 push	 __ehhandler$??_G?$CList@NN@@UAEPAXI@Z
  0000a	64 a1 00 00 00
	00		 mov	 eax, DWORD PTR fs:0
  00010	50		 push	 eax
  00011	56		 push	 esi
  00012	a1 00 00 00 00	 mov	 eax, DWORD PTR ___security_cookie
  00017	33 c5		 xor	 eax, ebp
  00019	50		 push	 eax
  0001a	8d 45 f4	 lea	 eax, DWORD PTR __$EHRec$[ebp]
  0001d	64 a3 00 00 00
	00		 mov	 DWORD PTR fs:0, eax
  00023	8b f1		 mov	 esi, ecx
; File C:\Program Files (x86)\Microsoft Visual Studio\2019\Community\VC\Tools\MSVC\14.29.30133\atlmfc\include\afxtempl.h

; 872  : 	m_pBlocks->FreeDataChain();

  00025	8b 4e 14	 mov	 ecx, DWORD PTR [esi+20]

; 878  : {

  00028	c7 45 fc 00 00
	00 00		 mov	 DWORD PTR __$EHRec$[ebp+8], 0
  0002f	c7 06 00 00 00
	00		 mov	 DWORD PTR [esi], OFFSET ??_7?$CList@NN@@6B@

; 870  : 	m_nCount = 0;

  00035	c7 46 0c 00 00
	00 00		 mov	 DWORD PTR [esi+12], 0

; 871  : 	m_pNodeHead = m_pNodeTail = m_pNodeFree = NULL;

  0003c	c7 46 10 00 00
	00 00		 mov	 DWORD PTR [esi+16], 0
  00043	c7 46 08 00 00
	00 00		 mov	 DWORD PTR [esi+8], 0
  0004a	c7 46 04 00 00
	00 00		 mov	 DWORD PTR [esi+4], 0

; 872  : 	m_pBlocks->FreeDataChain();

  00051	e8 00 00 00 00	 call	 ?FreeDataChain@CPlex@@QAEXXZ ; CPlex::FreeDataChain

; 873  : 	m_pBlocks = NULL;

  00056	8b 45 08	 mov	 eax, DWORD PTR ___flags$[ebp]
  00059	c7 46 14 00 00
	00 00		 mov	 DWORD PTR [esi+20], 0
  00060	a8 01		 test	 al, 1
  00062	74 2c		 je	 SHORT $LN22@scalar
  00064	a8 04		 test	 al, 4
  00066	75 1d		 jne	 SHORT $LN3@scalar
; File C:\Program Files (x86)\Microsoft Visual Studio\2019\Community\VC\Tools\MSVC\14.29.30133\atlmfc\include\afx.inl

; 112  : 	{ ::operator delete(p); }

  00068	56		 push	 esi
  00069	e8 00 00 00 00	 call	 ??3@YAXPAX@Z		; operator delete
  0006e	83 c4 04	 add	 esp, 4
  00071	8b c6		 mov	 eax, esi
  00073	8b 4d f4	 mov	 ecx, DWORD PTR __$EHRec$[ebp]
  00076	64 89 0d 00 00
	00 00		 mov	 DWORD PTR fs:0, ecx
  0007d	59		 pop	 ecx
  0007e	5e		 pop	 esi
  0007f	8b e5		 mov	 esp, ebp
  00081	5d		 pop	 ebp
  00082	c2 04 00	 ret	 4
$LN3@scalar:
  00085	6a 1c		 push	 28			; 0000001cH
  00087	56		 push	 esi
  00088	e8 00 00 00 00	 call	 ?__global_delete@@YAXPAXI@Z ; __global_delete
  0008d	83 c4 08	 add	 esp, 8
$LN22@scalar:
  00090	8b c6		 mov	 eax, esi
  00092	8b 4d f4	 mov	 ecx, DWORD PTR __$EHRec$[ebp]
  00095	64 89 0d 00 00
	00 00		 mov	 DWORD PTR fs:0, ecx
  0009c	59		 pop	 ecx
  0009d	5e		 pop	 esi
  0009e	8b e5		 mov	 esp, ebp
  000a0	5d		 pop	 ebp
  000a1	c2 04 00	 ret	 4
  000a4	cc		 int	 3
  000a5	cc		 int	 3
  000a6	cc		 int	 3
  000a7	cc		 int	 3
  000a8	cc		 int	 3
_TEXT	ENDS
;	COMDAT text$x
text$x	SEGMENT
__ehhandler$??_G?$CList@NN@@UAEPAXI@Z:
  00000	90		 npad	 1
  00001	90		 npad	 1
  00002	8b 54 24 08	 mov	 edx, DWORD PTR [esp+8]
  00006	8d 42 0c	 lea	 eax, DWORD PTR [edx+12]
  00009	8b 4a f8	 mov	 ecx, DWORD PTR [edx-8]
  0000c	33 c8		 xor	 ecx, eax
  0000e	e8 00 00 00 00	 call	 @__security_check_cookie@4
  00013	b8 00 00 00 00	 mov	 eax, OFFSET __ehfuncinfo$??_G?$CList@NN@@UAEPAXI@Z
  00018	e9 00 00 00 00	 jmp	 ___CxxFrameHandler3
text$x	ENDS
??_G?$CList@NN@@UAEPAXI@Z ENDP				; CList<double,double>::`scalar deleting destructor'
; Function compile flags: /Ogtp
; File C:\Program Files (x86)\Microsoft Visual Studio\2019\Community\VC\Tools\MSVC\14.29.30133\atlmfc\include\afxtempl.h
; File C:\Program Files (x86)\Microsoft Visual Studio\2019\Community\VC\Tools\MSVC\14.29.30133\atlmfc\include\afx.inl
; File C:\Program Files (x86)\Microsoft Visual Studio\2019\Community\VC\Tools\MSVC\14.29.30133\atlmfc\include\afxtempl.h
; File C:\Program Files (x86)\Microsoft Visual Studio\2019\Community\VC\Tools\MSVC\14.29.30133\atlmfc\include\afx.inl
; File C:\Program Files (x86)\Microsoft Visual Studio\2019\Community\VC\Tools\MSVC\14.29.30133\atlmfc\include\afxtempl.h
; File C:\Program Files (x86)\Microsoft Visual Studio\2019\Community\VC\Tools\MSVC\14.29.30133\atlmfc\include\afx.inl
; File C:\Program Files (x86)\Microsoft Visual Studio\2019\Community\VC\Tools\MSVC\14.29.30133\atlmfc\include\afxtempl.h
; File C:\Program Files (x86)\Microsoft Visual Studio\2019\Community\VC\Tools\MSVC\14.29.30133\atlmfc\include\afx.inl
; File C:\Program Files (x86)\Microsoft Visual Studio\2019\Community\VC\Tools\MSVC\14.29.30133\atlmfc\include\afxtempl.h
; File C:\Program Files (x86)\Microsoft Visual Studio\2019\Community\VC\Tools\MSVC\14.29.30133\atlmfc\include\afx.inl
; File C:\Program Files (x86)\Microsoft Visual Studio\2019\Community\VC\Tools\MSVC\14.29.30133\atlmfc\include\afxtempl.h
; File C:\Program Files (x86)\Microsoft Visual Studio\2019\Community\VC\Tools\MSVC\14.29.30133\atlmfc\include\afx.inl
; File C:\Program Files (x86)\Microsoft Visual Studio\2019\Community\VC\Tools\MSVC\14.29.30133\atlmfc\include\afxtempl.h
;	COMDAT ?Serialize@?$CList@NN@@UAEXAAVCArchive@@@Z
_TEXT	SEGMENT
_newData$1 = -20					; size = 8
_nNewCount$1$ = -12					; size = 4
_pData$1$ = -8						; size = 4
_pNode$1$ = -8						; size = 4
_nElementsLeft$1$ = -4					; size = 4
_this$1$ = -4						; size = 4
_ar$ = 8						; size = 4
?Serialize@?$CList@NN@@UAEXAAVCArchive@@@Z PROC		; CList<double,double>::Serialize, COMDAT
; _this$ = ecx

; 1169 : {

  00000	55		 push	 ebp
  00001	8b ec		 mov	 ebp, esp
  00003	83 ec 14	 sub	 esp, 20			; 00000014H
  00006	53		 push	 ebx
  00007	8b d9		 mov	 ebx, ecx
; File C:\Program Files (x86)\Microsoft Visual Studio\2019\Community\VC\Tools\MSVC\14.29.30133\atlmfc\include\afx.inl

; 212  : 	{ return (m_nMode & CArchive::load) == 0; }

  00009	8b 4d 08	 mov	 ecx, DWORD PTR _ar$[ebp]
; File C:\Program Files (x86)\Microsoft Visual Studio\2019\Community\VC\Tools\MSVC\14.29.30133\atlmfc\include\afxtempl.h

; 1169 : {

  0000c	56		 push	 esi
  0000d	57		 push	 edi
  0000e	89 5d fc	 mov	 DWORD PTR _this$1$[ebp], ebx
; File C:\Program Files (x86)\Microsoft Visual Studio\2019\Community\VC\Tools\MSVC\14.29.30133\atlmfc\include\afx.inl

; 212  : 	{ return (m_nMode & CArchive::load) == 0; }

  00011	8b 41 18	 mov	 eax, DWORD PTR [ecx+24]
  00014	f7 d0		 not	 eax
  00016	a8 01		 test	 al, 1
; File C:\Program Files (x86)\Microsoft Visual Studio\2019\Community\VC\Tools\MSVC\14.29.30133\atlmfc\include\afxtempl.h

; 1174 : 	if (ar.IsStoring())

  00018	0f 84 ae 00 00
	00		 je	 $LN7@Serialize

; 1175 : 	{
; 1176 : 		ar.WriteCount(m_nCount);

  0001e	ff 73 0c	 push	 DWORD PTR [ebx+12]
  00021	e8 00 00 00 00	 call	 ?WriteCount@CArchive@@QAEXK@Z ; CArchive::WriteCount

; 1177 : 		for (CNode* pNode = m_pNodeHead; pNode != NULL; pNode = pNode->pNext)

  00026	8b 43 04	 mov	 eax, DWORD PTR [ebx+4]
  00029	89 45 f8	 mov	 DWORD PTR _pNode$1$[ebp], eax
  0002c	85 c0		 test	 eax, eax
  0002e	0f 84 4d 01 00
	00		 je	 $LN68@Serialize
$LL4@Serialize:

; 1178 : 		{
; 1179 : 			ASSERT(AfxIsValidAddress(pNode, sizeof(CNode)));
; 1180 : 			TYPE* pData;
; 1181 : 			/*
; 1182 : 			 * in some cases the & operator might be overloaded, and we cannot use it to obtain
; 1183 : 			 * the address of a given object.  We then use the following trick to get the address
; 1184 : 			 */
; 1185 : 			pData = reinterpret_cast< TYPE* >( &reinterpret_cast< int& >( static_cast< TYPE& >( pNode->data ) ) );

  00034	8d 58 08	 lea	 ebx, DWORD PTR [eax+8]

; 68   : 	ENSURE(nCount == 0 || pElements != NULL);

  00037	85 db		 test	 ebx, ebx
  00039	0f 84 54 01 00
	00		 je	 $LN60@Serialize
; File C:\Program Files (x86)\Microsoft Visual Studio\2019\Community\VC\Tools\MSVC\14.29.30133\atlmfc\include\afx.inl

; 212  : 	{ return (m_nMode & CArchive::load) == 0; }

  0003f	8b 4d 08	 mov	 ecx, DWORD PTR _ar$[ebp]
  00042	8b 41 18	 mov	 eax, DWORD PTR [ecx+24]
  00045	f7 d0		 not	 eax
  00047	a8 01		 test	 al, 1
; File C:\Program Files (x86)\Microsoft Visual Studio\2019\Community\VC\Tools\MSVC\14.29.30133\atlmfc\include\afxtempl.h

; 73   : 	if (ar.IsStoring())

  00049	74 33		 je	 SHORT $LN21@Serialize

; 74   : 	{
; 75   : 		TYPE* pData;
; 76   : 		UINT_PTR nElementsLeft;
; 77   : 
; 78   : 		nElementsLeft = nCount;

  0004b	b8 01 00 00 00	 mov	 eax, 1
  00050	89 45 fc	 mov	 DWORD PTR _nElementsLeft$1$[ebp], eax
$LL16@Serialize:

; 80   : 		while( nElementsLeft > 0 )
; 81   : 		{
; 82   : 			UINT nElementsToWrite;
; 83   : 
; 84   : 			nElementsToWrite = UINT(__min(nElementsLeft, INT_MAX/sizeof(TYPE)));

  00053	bf ff ff ff 0f	 mov	 edi, 268435455		; 0fffffffH
  00058	3b c7		 cmp	 eax, edi
  0005a	0f 42 f8	 cmovb	 edi, eax

; 85   : 			ar.Write(pData, nElementsToWrite*sizeof(TYPE));

  0005d	8d 34 fd 00 00
	00 00		 lea	 esi, DWORD PTR [edi*8]
  00064	56		 push	 esi
  00065	53		 push	 ebx
  00066	e8 00 00 00 00	 call	 ?Write@CArchive@@QAEXPBXI@Z ; CArchive::Write

; 86   : 			nElementsLeft -= nElementsToWrite;

  0006b	8b 45 fc	 mov	 eax, DWORD PTR _nElementsLeft$1$[ebp]

; 87   : 			pData += nElementsToWrite;

  0006e	03 de		 add	 ebx, esi
  00070	8b 4d 08	 mov	 ecx, DWORD PTR _ar$[ebp]
  00073	2b c7		 sub	 eax, edi
  00075	89 45 fc	 mov	 DWORD PTR _nElementsLeft$1$[ebp], eax
  00078	85 c0		 test	 eax, eax
  0007a	75 d7		 jne	 SHORT $LL16@Serialize

; 88   : 		}
; 89   : 	}

  0007c	eb 35		 jmp	 SHORT $LN2@Serialize
$LN21@Serialize:

; 90   : 	else
; 91   : 	{
; 92   : 		TYPE* pData;
; 93   : 		UINT_PTR nElementsLeft;
; 94   : 
; 95   : 		nElementsLeft = nCount;

  0007e	be 01 00 00 00	 mov	 esi, 1
$LL18@Serialize:

; 98   : 		{
; 99   : 			UINT nElementsToRead;
; 100  : 
; 101  : 			nElementsToRead = UINT(__min(nElementsLeft, INT_MAX/sizeof(TYPE)));

  00083	bf ff ff ff 0f	 mov	 edi, 268435455		; 0fffffffH
  00088	3b f7		 cmp	 esi, edi
  0008a	0f 42 fe	 cmovb	 edi, esi

; 102  : 			ar.EnsureRead(pData, nElementsToRead*sizeof(TYPE));

  0008d	8d 04 fd 00 00
	00 00		 lea	 eax, DWORD PTR [edi*8]
; File C:\Program Files (x86)\Microsoft Visual Studio\2019\Community\VC\Tools\MSVC\14.29.30133\atlmfc\include\afx.inl

; 399  : 	UINT nRead=Read(lpBuf, nCount);

  00094	50		 push	 eax
  00095	53		 push	 ebx
  00096	e8 00 00 00 00	 call	 ?Read@CArchive@@QAEIPAXI@Z ; CArchive::Read

; 400  : 	if(nRead!=nCount)

  0009b	8d 0c fd 00 00
	00 00		 lea	 ecx, DWORD PTR [edi*8]
  000a2	3b c1		 cmp	 eax, ecx
  000a4	0f 85 e0 00 00
	00		 jne	 $LN59@Serialize
; File C:\Program Files (x86)\Microsoft Visual Studio\2019\Community\VC\Tools\MSVC\14.29.30133\atlmfc\include\afxtempl.h

; 97   : 		while( nElementsLeft > 0 )

  000aa	03 d9		 add	 ebx, ecx
  000ac	8b 4d 08	 mov	 ecx, DWORD PTR _ar$[ebp]

; 103  : 			nElementsLeft -= nElementsToRead;

  000af	2b f7		 sub	 esi, edi
  000b1	75 d0		 jne	 SHORT $LL18@Serialize
$LN2@Serialize:

; 1177 : 		for (CNode* pNode = m_pNodeHead; pNode != NULL; pNode = pNode->pNext)

  000b3	8b 45 f8	 mov	 eax, DWORD PTR _pNode$1$[ebp]
  000b6	8b 00		 mov	 eax, DWORD PTR [eax]
  000b8	89 45 f8	 mov	 DWORD PTR _pNode$1$[ebp], eax
  000bb	85 c0		 test	 eax, eax
  000bd	0f 85 71 ff ff
	ff		 jne	 $LL4@Serialize

; 1197 : 		}
; 1198 : 	}
; 1199 : }

  000c3	5f		 pop	 edi
  000c4	5e		 pop	 esi
  000c5	5b		 pop	 ebx
  000c6	8b e5		 mov	 esp, ebp
  000c8	5d		 pop	 ebp
  000c9	c2 04 00	 ret	 4
$LN7@Serialize:

; 1186 : 			SerializeElements<TYPE>(ar, pData, 1);
; 1187 : 		}
; 1188 : 	}
; 1189 : 	else
; 1190 : 	{
; 1191 : 		DWORD_PTR nNewCount = ar.ReadCount();

  000cc	e8 00 00 00 00	 call	 ?ReadCount@CArchive@@QAEKXZ ; CArchive::ReadCount

; 1192 : 		while (nNewCount--)

  000d1	85 c0		 test	 eax, eax
  000d3	0f 84 a8 00 00
	00		 je	 $LN68@Serialize
  000d9	0f 1f 80 00 00
	00 00		 npad	 7
$LL5@Serialize:
  000e0	48		 dec	 eax
  000e1	89 45 f4	 mov	 DWORD PTR _nNewCount$1$[ebp], eax
; File C:\Program Files (x86)\Microsoft Visual Studio\2019\Community\VC\Tools\MSVC\14.29.30133\atlmfc\include\afx.inl

; 212  : 	{ return (m_nMode & CArchive::load) == 0; }

  000e4	8b 45 08	 mov	 eax, DWORD PTR _ar$[ebp]
  000e7	8b 48 18	 mov	 ecx, DWORD PTR [eax+24]
  000ea	f7 d1		 not	 ecx
  000ec	f6 c1 01	 test	 cl, 1
; File C:\Program Files (x86)\Microsoft Visual Studio\2019\Community\VC\Tools\MSVC\14.29.30133\atlmfc\include\afxtempl.h

; 73   : 	if (ar.IsStoring())

  000ef	74 3a		 je	 SHORT $LN42@Serialize

; 79   : 		pData = pElements;

  000f1	8d 4d ec	 lea	 ecx, DWORD PTR _newData$1[ebp]
  000f4	bb 01 00 00 00	 mov	 ebx, 1
  000f9	89 4d f8	 mov	 DWORD PTR _pData$1$[ebp], ecx
  000fc	0f 1f 40 00	 npad	 4
$LL37@Serialize:

; 80   : 		while( nElementsLeft > 0 )
; 81   : 		{
; 82   : 			UINT nElementsToWrite;
; 83   : 
; 84   : 			nElementsToWrite = UINT(__min(nElementsLeft, INT_MAX/sizeof(TYPE)));

  00100	bf ff ff ff 0f	 mov	 edi, 268435455		; 0fffffffH
  00105	3b df		 cmp	 ebx, edi
  00107	0f 42 fb	 cmovb	 edi, ebx

; 85   : 			ar.Write(pData, nElementsToWrite*sizeof(TYPE));

  0010a	8d 34 fd 00 00
	00 00		 lea	 esi, DWORD PTR [edi*8]
  00111	56		 push	 esi
  00112	51		 push	 ecx
  00113	8b c8		 mov	 ecx, eax
  00115	e8 00 00 00 00	 call	 ?Write@CArchive@@QAEXPBXI@Z ; CArchive::Write

; 87   : 			pData += nElementsToWrite;

  0011a	8b 4d f8	 mov	 ecx, DWORD PTR _pData$1$[ebp]
  0011d	8b 45 08	 mov	 eax, DWORD PTR _ar$[ebp]
  00120	03 ce		 add	 ecx, esi
  00122	89 4d f8	 mov	 DWORD PTR _pData$1$[ebp], ecx
  00125	2b df		 sub	 ebx, edi
  00127	75 d7		 jne	 SHORT $LL37@Serialize

; 88   : 		}
; 89   : 	}

  00129	eb 36		 jmp	 SHORT $LN40@Serialize
$LN42@Serialize:

; 90   : 	else
; 91   : 	{
; 92   : 		TYPE* pData;
; 93   : 		UINT_PTR nElementsLeft;
; 94   : 
; 95   : 		nElementsLeft = nCount;

  0012b	be 01 00 00 00	 mov	 esi, 1

; 96   : 		pData = pElements;

  00130	8d 5d ec	 lea	 ebx, DWORD PTR _newData$1[ebp]
$LL39@Serialize:

; 98   : 		{
; 99   : 			UINT nElementsToRead;
; 100  : 
; 101  : 			nElementsToRead = UINT(__min(nElementsLeft, INT_MAX/sizeof(TYPE)));

  00133	bf ff ff ff 0f	 mov	 edi, 268435455		; 0fffffffH
  00138	3b f7		 cmp	 esi, edi
  0013a	0f 42 fe	 cmovb	 edi, esi

; 102  : 			ar.EnsureRead(pData, nElementsToRead*sizeof(TYPE));

  0013d	8d 0c fd 00 00
	00 00		 lea	 ecx, DWORD PTR [edi*8]
; File C:\Program Files (x86)\Microsoft Visual Studio\2019\Community\VC\Tools\MSVC\14.29.30133\atlmfc\include\afx.inl

; 399  : 	UINT nRead=Read(lpBuf, nCount);

  00144	51		 push	 ecx
  00145	53		 push	 ebx
  00146	8b c8		 mov	 ecx, eax
  00148	e8 00 00 00 00	 call	 ?Read@CArchive@@QAEIPAXI@Z ; CArchive::Read

; 400  : 	if(nRead!=nCount)

  0014d	8d 0c fd 00 00
	00 00		 lea	 ecx, DWORD PTR [edi*8]
  00154	3b c1		 cmp	 eax, ecx
  00156	75 32		 jne	 SHORT $LN59@Serialize
; File C:\Program Files (x86)\Microsoft Visual Studio\2019\Community\VC\Tools\MSVC\14.29.30133\atlmfc\include\afxtempl.h

; 104  : 			pData += nElementsToRead;

  00158	8b 45 08	 mov	 eax, DWORD PTR _ar$[ebp]
  0015b	03 d9		 add	 ebx, ecx
  0015d	2b f7		 sub	 esi, edi
  0015f	75 d2		 jne	 SHORT $LL39@Serialize
$LN40@Serialize:

; 1193 : 		{
; 1194 : 			TYPE newData[1];
; 1195 : 			SerializeElements<TYPE>(ar, newData, 1);
; 1196 : 			AddTail(newData[0]);

  00161	f2 0f 10 45 ec	 movsd	 xmm0, QWORD PTR _newData$1[ebp]
  00166	83 ec 08	 sub	 esp, 8
  00169	8b 4d fc	 mov	 ecx, DWORD PTR _this$1$[ebp]
  0016c	f2 0f 11 04 24	 movsd	 QWORD PTR [esp], xmm0
  00171	e8 00 00 00 00	 call	 ?AddTail@?$CList@NN@@QAEPAU__POSITION@@N@Z ; CList<double,double>::AddTail
  00176	8b 45 f4	 mov	 eax, DWORD PTR _nNewCount$1$[ebp]
  00179	85 c0		 test	 eax, eax
  0017b	0f 85 5f ff ff
	ff		 jne	 $LL5@Serialize
$LN68@Serialize:
  00181	5f		 pop	 edi

; 1197 : 		}
; 1198 : 	}
; 1199 : }

  00182	5e		 pop	 esi
  00183	5b		 pop	 ebx
  00184	8b e5		 mov	 esp, ebp
  00186	5d		 pop	 ebp
  00187	c2 04 00	 ret	 4
$LN59@Serialize:
  0018a	6a 00		 push	 0
  0018c	6a 03		 push	 3
  0018e	e8 00 00 00 00	 call	 ?AfxThrowArchiveException@@YGXHPBD@Z ; AfxThrowArchiveException
$LN60@Serialize:

; 68   : 	ENSURE(nCount == 0 || pElements != NULL);

  00193	e8 00 00 00 00	 call	 ?AfxThrowInvalidArgException@@YGXXZ ; AfxThrowInvalidArgException
$LN85@Serialize:
  00198	cc		 int	 3
?Serialize@?$CList@NN@@UAEXAAVCArchive@@@Z ENDP		; CList<double,double>::Serialize
_TEXT	ENDS
; Function compile flags: /Ogtp
; File C:\Program Files (x86)\Microsoft Visual Studio\2019\Community\VC\Tools\MSVC\14.29.30133\atlmfc\include\afxtempl.h
;	COMDAT ??1?$CList@NN@@UAE@XZ
_TEXT	SEGMENT
__$EHRec$ = -12						; size = 12
??1?$CList@NN@@UAE@XZ PROC				; CList<double,double>::~CList<double,double>, COMDAT
; _this$ = ecx

; 878  : {

  00000	55		 push	 ebp
  00001	8b ec		 mov	 ebp, esp
  00003	6a ff		 push	 -1
  00005	68 00 00 00 00	 push	 __ehhandler$??1?$CList@NN@@UAE@XZ
  0000a	64 a1 00 00 00
	00		 mov	 eax, DWORD PTR fs:0
  00010	50		 push	 eax
  00011	56		 push	 esi
  00012	a1 00 00 00 00	 mov	 eax, DWORD PTR ___security_cookie
  00017	33 c5		 xor	 eax, ebp
  00019	50		 push	 eax
  0001a	8d 45 f4	 lea	 eax, DWORD PTR __$EHRec$[ebp]
  0001d	64 a3 00 00 00
	00		 mov	 DWORD PTR fs:0, eax
  00023	8b f1		 mov	 esi, ecx

; 872  : 	m_pBlocks->FreeDataChain();

  00025	8b 4e 14	 mov	 ecx, DWORD PTR [esi+20]

; 878  : {

  00028	c7 06 00 00 00
	00		 mov	 DWORD PTR [esi], OFFSET ??_7?$CList@NN@@6B@

; 870  : 	m_nCount = 0;

  0002e	c7 46 0c 00 00
	00 00		 mov	 DWORD PTR [esi+12], 0

; 871  : 	m_pNodeHead = m_pNodeTail = m_pNodeFree = NULL;

  00035	c7 46 10 00 00
	00 00		 mov	 DWORD PTR [esi+16], 0
  0003c	c7 46 08 00 00
	00 00		 mov	 DWORD PTR [esi+8], 0
  00043	c7 46 04 00 00
	00 00		 mov	 DWORD PTR [esi+4], 0

; 872  : 	m_pBlocks->FreeDataChain();

  0004a	e8 00 00 00 00	 call	 ?FreeDataChain@CPlex@@QAEXXZ ; CPlex::FreeDataChain

; 873  : 	m_pBlocks = NULL;

  0004f	c7 46 14 00 00
	00 00		 mov	 DWORD PTR [esi+20], 0

; 879  : 	RemoveAll();
; 880  : 	ASSERT(m_nCount == 0);
; 881  : }

  00056	8b 4d f4	 mov	 ecx, DWORD PTR __$EHRec$[ebp]
  00059	64 89 0d 00 00
	00 00		 mov	 DWORD PTR fs:0, ecx
  00060	59		 pop	 ecx
  00061	5e		 pop	 esi
  00062	8b e5		 mov	 esp, ebp
  00064	5d		 pop	 ebp
  00065	c3		 ret	 0
  00066	cc		 int	 3
  00067	cc		 int	 3
  00068	cc		 int	 3
  00069	cc		 int	 3
  0006a	cc		 int	 3
_TEXT	ENDS
;	COMDAT text$x
text$x	SEGMENT
__ehhandler$??1?$CList@NN@@UAE@XZ:
  00000	90		 npad	 1
  00001	90		 npad	 1
  00002	8b 54 24 08	 mov	 edx, DWORD PTR [esp+8]
  00006	8d 42 0c	 lea	 eax, DWORD PTR [edx+12]
  00009	8b 4a f8	 mov	 ecx, DWORD PTR [edx-8]
  0000c	33 c8		 xor	 ecx, eax
  0000e	e8 00 00 00 00	 call	 @__security_check_cookie@4
  00013	b8 00 00 00 00	 mov	 eax, OFFSET __ehfuncinfo$??1?$CList@NN@@UAE@XZ
  00018	e9 00 00 00 00	 jmp	 ___CxxFrameHandler3
text$x	ENDS
??1?$CList@NN@@UAE@XZ ENDP				; CList<double,double>::~CList<double,double>
; Function compile flags: /Ogtp
; File C:\Program Files (x86)\Microsoft Visual Studio\2019\Community\VC\Tools\MSVC\14.29.30133\atlmfc\include\afxtempl.h
;	COMDAT ?NewNode@?$CList@NN@@IAEPAUCNode@1@PAU21@0@Z
_TEXT	SEGMENT
_pPrev$ = 8						; size = 4
_pNext$ = 12						; size = 4
?NewNode@?$CList@NN@@IAEPAUCNode@1@PAU21@0@Z PROC	; CList<double,double>::NewNode, COMDAT
; _this$ = ecx

; 901  : {

  00000	55		 push	 ebp
  00001	8b ec		 mov	 ebp, esp
  00003	56		 push	 esi
  00004	8b f1		 mov	 esi, ecx

; 902  : 	if (m_pNodeFree == NULL)

  00006	83 7e 10 00	 cmp	 DWORD PTR [esi+16], 0
  0000a	75 34		 jne	 SHORT $LN7@NewNode

; 903  : 	{
; 904  : 		// add another block
; 905  : 		CPlex* pNewBlock = CPlex::Create(m_pBlocks, m_nBlockSize,

  0000c	6a 10		 push	 16			; 00000010H
  0000e	ff 76 18	 push	 DWORD PTR [esi+24]
  00011	8d 46 14	 lea	 eax, DWORD PTR [esi+20]
  00014	50		 push	 eax
  00015	e8 00 00 00 00	 call	 ?Create@CPlex@@SGPAU1@AAPAU1@II@Z ; CPlex::Create

; 906  : 				 sizeof(CNode));
; 907  : 
; 908  : 		// chain them into free list
; 909  : 		CNode* pNode = (CNode*) pNewBlock->data();
; 910  : 		// free in reverse order to make it easier to debug
; 911  : 		pNode += m_nBlockSize - 1;

  0001a	8b 56 18	 mov	 edx, DWORD PTR [esi+24]
  0001d	83 c0 08	 add	 eax, 8
  00020	8b ca		 mov	 ecx, edx
  00022	c1 e1 04	 shl	 ecx, 4
  00025	83 c1 f0	 add	 ecx, -16		; fffffff0H
  00028	03 c1		 add	 eax, ecx

; 912  : 		for (INT_PTR i = m_nBlockSize-1; i >= 0; i--, pNode--)

  0002a	83 c2 ff	 add	 edx, -1
  0002d	78 11		 js	 SHORT $LN7@NewNode
  0002f	90		 npad	 1
$LL4@NewNode:

; 913  : 		{
; 914  : 			pNode->pNext = m_pNodeFree;

  00030	8b 4e 10	 mov	 ecx, DWORD PTR [esi+16]
  00033	89 08		 mov	 DWORD PTR [eax], ecx

; 915  : 			m_pNodeFree = pNode;

  00035	89 46 10	 mov	 DWORD PTR [esi+16], eax
  00038	83 e8 10	 sub	 eax, 16			; 00000010H
  0003b	83 ea 01	 sub	 edx, 1
  0003e	79 f0		 jns	 SHORT $LL4@NewNode
$LN7@NewNode:

; 916  : 		}
; 917  : 	}
; 918  : 	ENSURE(m_pNodeFree != NULL);  // we must have something

  00040	8b 46 10	 mov	 eax, DWORD PTR [esi+16]
  00043	85 c0		 test	 eax, eax
  00045	74 18		 je	 SHORT $LN17@NewNode

; 919  : 
; 920  : 	CList::CNode* pNode = m_pNodeFree;
; 921  : 	m_pNodeFree = m_pNodeFree->pNext;

  00047	8b 08		 mov	 ecx, DWORD PTR [eax]
  00049	89 4e 10	 mov	 DWORD PTR [esi+16], ecx

; 922  : 	pNode->pPrev = pPrev;

  0004c	8b 4d 08	 mov	 ecx, DWORD PTR _pPrev$[ebp]
  0004f	89 48 04	 mov	 DWORD PTR [eax+4], ecx

; 923  : 	pNode->pNext = pNext;

  00052	8b 4d 0c	 mov	 ecx, DWORD PTR _pNext$[ebp]
  00055	89 08		 mov	 DWORD PTR [eax], ecx

; 924  : 	m_nCount++;

  00057	ff 46 0c	 inc	 DWORD PTR [esi+12]

; 925  : 	ASSERT(m_nCount > 0);  // make sure we don't overflow
; 926  : 
; 927  : #pragma push_macro("new")
; 928  : #undef new
; 929  : 	::new( (void*)( &pNode->data ) ) TYPE;
; 930  : #pragma pop_macro("new")
; 931  : 	return pNode;

  0005a	5e		 pop	 esi

; 932  : }

  0005b	5d		 pop	 ebp
  0005c	c2 08 00	 ret	 8
$LN17@NewNode:

; 916  : 		}
; 917  : 	}
; 918  : 	ENSURE(m_pNodeFree != NULL);  // we must have something

  0005f	e8 00 00 00 00	 call	 ?AfxThrowInvalidArgException@@YGXXZ ; AfxThrowInvalidArgException
$LN15@NewNode:
  00064	cc		 int	 3
?NewNode@?$CList@NN@@IAEPAUCNode@1@PAU21@0@Z ENDP	; CList<double,double>::NewNode
_TEXT	ENDS
; Function compile flags: /Ogtp
; File C:\Program Files (x86)\Microsoft Visual Studio\2019\Community\VC\Tools\MSVC\14.29.30133\atlmfc\include\afxtempl.h
;	COMDAT ?FindIndex@?$CList@NN@@QBEPAU__POSITION@@H@Z
_TEXT	SEGMENT
_nIndex$ = 8						; size = 4
?FindIndex@?$CList@NN@@QBEPAU__POSITION@@H@Z PROC	; CList<double,double>::FindIndex, COMDAT
; _this$ = ecx

; 1130 : {

  00000	55		 push	 ebp
  00001	8b ec		 mov	 ebp, esp

; 1131 : 	ASSERT_VALID(this);
; 1132 : 
; 1133 : 	if (nIndex >= m_nCount || nIndex < 0)

  00003	8b 55 08	 mov	 edx, DWORD PTR _nIndex$[ebp]
  00006	3b 51 0c	 cmp	 edx, DWORD PTR [ecx+12]
  00009	7d 14		 jge	 SHORT $LN5@FindIndex
  0000b	85 d2		 test	 edx, edx
  0000d	78 10		 js	 SHORT $LN5@FindIndex

; 1135 : 
; 1136 : 	CNode* pNode = m_pNodeHead;

  0000f	8b 41 04	 mov	 eax, DWORD PTR [ecx+4]

; 1137 : 	while (nIndex--)

  00012	74 0d		 je	 SHORT $LN1@FindIndex
$LL2@FindIndex:

; 1138 : 	{
; 1139 : 		ASSERT(AfxIsValidAddress(pNode, sizeof(CNode)));
; 1140 : 		pNode = pNode->pNext;

  00014	8b 00		 mov	 eax, DWORD PTR [eax]
  00016	83 ea 01	 sub	 edx, 1
  00019	75 f9		 jne	 SHORT $LL2@FindIndex

; 1141 : 	}
; 1142 : 	return (POSITION) pNode;
; 1143 : }

  0001b	5d		 pop	 ebp
  0001c	c2 04 00	 ret	 4
$LN5@FindIndex:

; 1134 : 		return NULL;  // went too far

  0001f	33 c0		 xor	 eax, eax
$LN1@FindIndex:

; 1141 : 	}
; 1142 : 	return (POSITION) pNode;
; 1143 : }

  00021	5d		 pop	 ebp
  00022	c2 04 00	 ret	 4
?FindIndex@?$CList@NN@@QBEPAU__POSITION@@H@Z ENDP	; CList<double,double>::FindIndex
_TEXT	ENDS
; Function compile flags: /Ogtp
; File C:\Program Files (x86)\Microsoft Visual Studio\2019\Community\VC\Tools\MSVC\14.29.30133\atlmfc\include\afxtempl.h
;	COMDAT ?RemoveAll@?$CList@NN@@QAEXXZ
_TEXT	SEGMENT
?RemoveAll@?$CList@NN@@QAEXXZ PROC			; CList<double,double>::RemoveAll, COMDAT
; _this$ = ecx

; 862  : {

  00000	56		 push	 esi
  00001	8b f1		 mov	 esi, ecx

; 863  : 	ASSERT_VALID(this);
; 864  : 
; 865  : 	// destroy elements
; 866  : 	CNode* pNode;
; 867  : 	for (pNode = m_pNodeHead; pNode != NULL; pNode = pNode->pNext)
; 868  : 		pNode->data.~TYPE();
; 869  : 
; 870  : 	m_nCount = 0;
; 871  : 	m_pNodeHead = m_pNodeTail = m_pNodeFree = NULL;
; 872  : 	m_pBlocks->FreeDataChain();

  00003	8b 4e 14	 mov	 ecx, DWORD PTR [esi+20]
  00006	c7 46 0c 00 00
	00 00		 mov	 DWORD PTR [esi+12], 0
  0000d	c7 46 10 00 00
	00 00		 mov	 DWORD PTR [esi+16], 0
  00014	c7 46 08 00 00
	00 00		 mov	 DWORD PTR [esi+8], 0
  0001b	c7 46 04 00 00
	00 00		 mov	 DWORD PTR [esi+4], 0
  00022	e8 00 00 00 00	 call	 ?FreeDataChain@CPlex@@QAEXXZ ; CPlex::FreeDataChain

; 873  : 	m_pBlocks = NULL;

  00027	c7 46 14 00 00
	00 00		 mov	 DWORD PTR [esi+20], 0
  0002e	5e		 pop	 esi

; 874  : }

  0002f	c3		 ret	 0
?RemoveAll@?$CList@NN@@QAEXXZ ENDP			; CList<double,double>::RemoveAll
_TEXT	ENDS
; Function compile flags: /Ogtp
; File C:\Program Files (x86)\Microsoft Visual Studio\2019\Community\VC\Tools\MSVC\14.29.30133\atlmfc\include\afxtempl.h
;	COMDAT ?AddTail@?$CList@NN@@QAEPAU__POSITION@@N@Z
_TEXT	SEGMENT
_newElement$ = 8					; size = 8
?AddTail@?$CList@NN@@QAEPAU__POSITION@@N@Z PROC		; CList<double,double>::AddTail, COMDAT
; _this$ = ecx

; 965  : {

  00000	55		 push	 ebp
  00001	8b ec		 mov	 ebp, esp
  00003	56		 push	 esi
  00004	8b f1		 mov	 esi, ecx
  00006	57		 push	 edi

; 902  : 	if (m_pNodeFree == NULL)

  00007	83 7e 10 00	 cmp	 DWORD PTR [esi+16], 0

; 966  : 	ASSERT_VALID(this);
; 967  : 
; 968  : 	CNode* pNewNode = NewNode(m_pNodeTail, NULL);

  0000b	8b 7e 08	 mov	 edi, DWORD PTR [esi+8]

; 902  : 	if (m_pNodeFree == NULL)

  0000e	75 33		 jne	 SHORT $LN11@AddTail

; 903  : 	{
; 904  : 		// add another block
; 905  : 		CPlex* pNewBlock = CPlex::Create(m_pBlocks, m_nBlockSize,

  00010	6a 10		 push	 16			; 00000010H
  00012	ff 76 18	 push	 DWORD PTR [esi+24]
  00015	8d 46 14	 lea	 eax, DWORD PTR [esi+20]
  00018	50		 push	 eax
  00019	e8 00 00 00 00	 call	 ?Create@CPlex@@SGPAU1@AAPAU1@II@Z ; CPlex::Create

; 906  : 				 sizeof(CNode));
; 907  : 
; 908  : 		// chain them into free list
; 909  : 		CNode* pNode = (CNode*) pNewBlock->data();
; 910  : 		// free in reverse order to make it easier to debug
; 911  : 		pNode += m_nBlockSize - 1;

  0001e	8b 56 18	 mov	 edx, DWORD PTR [esi+24]
  00021	83 c0 08	 add	 eax, 8
  00024	8b ca		 mov	 ecx, edx
  00026	c1 e1 04	 shl	 ecx, 4
  00029	83 c1 f0	 add	 ecx, -16		; fffffff0H
  0002c	03 c8		 add	 ecx, eax

; 912  : 		for (INT_PTR i = m_nBlockSize-1; i >= 0; i--, pNode--)

  0002e	83 c2 ff	 add	 edx, -1
  00031	78 10		 js	 SHORT $LN11@AddTail
$LL8@AddTail:

; 913  : 		{
; 914  : 			pNode->pNext = m_pNodeFree;

  00033	8b 46 10	 mov	 eax, DWORD PTR [esi+16]
  00036	89 01		 mov	 DWORD PTR [ecx], eax

; 915  : 			m_pNodeFree = pNode;

  00038	89 4e 10	 mov	 DWORD PTR [esi+16], ecx
  0003b	83 e9 10	 sub	 ecx, 16			; 00000010H
  0003e	83 ea 01	 sub	 edx, 1
  00041	79 f0		 jns	 SHORT $LL8@AddTail
$LN11@AddTail:

; 916  : 		}
; 917  : 	}
; 918  : 	ENSURE(m_pNodeFree != NULL);  // we must have something

  00043	8b 4e 10	 mov	 ecx, DWORD PTR [esi+16]
  00046	85 c9		 test	 ecx, ecx
  00048	74 3d		 je	 SHORT $LN22@AddTail

; 919  : 
; 920  : 	CList::CNode* pNode = m_pNodeFree;
; 921  : 	m_pNodeFree = m_pNodeFree->pNext;

  0004a	8b 01		 mov	 eax, DWORD PTR [ecx]

; 969  : 	pNewNode->data = newElement;

  0004c	f2 0f 10 45 08	 movsd	 xmm0, QWORD PTR _newElement$[ebp]

; 921  : 	m_pNodeFree = m_pNodeFree->pNext;

  00051	89 46 10	 mov	 DWORD PTR [esi+16], eax

; 922  : 	pNode->pPrev = pPrev;

  00054	89 79 04	 mov	 DWORD PTR [ecx+4], edi

; 923  : 	pNode->pNext = pNext;

  00057	c7 01 00 00 00
	00		 mov	 DWORD PTR [ecx], 0

; 924  : 	m_nCount++;

  0005d	ff 46 0c	 inc	 DWORD PTR [esi+12]

; 969  : 	pNewNode->data = newElement;

  00060	f2 0f 11 41 08	 movsd	 QWORD PTR [ecx+8], xmm0

; 970  : 	if (m_pNodeTail != NULL)

  00065	8b 46 08	 mov	 eax, DWORD PTR [esi+8]
  00068	85 c0		 test	 eax, eax
  0006a	74 0d		 je	 SHORT $LN2@AddTail

; 971  : 		m_pNodeTail->pNext = pNewNode;

  0006c	89 08		 mov	 DWORD PTR [eax], ecx

; 972  : 	else
; 973  : 		m_pNodeHead = pNewNode;
; 974  : 	m_pNodeTail = pNewNode;
; 975  : 	return (POSITION) pNewNode;

  0006e	8b c1		 mov	 eax, ecx
  00070	5f		 pop	 edi
  00071	89 4e 08	 mov	 DWORD PTR [esi+8], ecx
  00074	5e		 pop	 esi

; 976  : }

  00075	5d		 pop	 ebp
  00076	c2 08 00	 ret	 8
$LN2@AddTail:

; 972  : 	else
; 973  : 		m_pNodeHead = pNewNode;
; 974  : 	m_pNodeTail = pNewNode;
; 975  : 	return (POSITION) pNewNode;

  00079	5f		 pop	 edi
  0007a	89 4e 04	 mov	 DWORD PTR [esi+4], ecx
  0007d	8b c1		 mov	 eax, ecx
  0007f	89 4e 08	 mov	 DWORD PTR [esi+8], ecx
  00082	5e		 pop	 esi

; 976  : }

  00083	5d		 pop	 ebp
  00084	c2 08 00	 ret	 8
$LN22@AddTail:

; 918  : 	ENSURE(m_pNodeFree != NULL);  // we must have something

  00087	e8 00 00 00 00	 call	 ?AfxThrowInvalidArgException@@YGXXZ ; AfxThrowInvalidArgException
$LN20@AddTail:
  0008c	cc		 int	 3
?AddTail@?$CList@NN@@QAEPAU__POSITION@@N@Z ENDP		; CList<double,double>::AddTail
_TEXT	ENDS
; Function compile flags: /Ogtp
; File C:\Program Files (x86)\Microsoft Visual Studio\2019\Community\VC\Tools\MSVC\14.29.30133\atlmfc\include\afxtempl.h
;	COMDAT ??0?$CList@NN@@QAE@H@Z
_TEXT	SEGMENT
_nBlockSize$ = 8					; size = 4
??0?$CList@NN@@QAE@H@Z PROC				; CList<double,double>::CList<double,double>, COMDAT
; _this$ = ecx

; 851  : {

  00000	55		 push	 ebp
  00001	8b ec		 mov	 ebp, esp

; 852  : 	ASSERT(nBlockSize > 0);
; 853  : 
; 854  : 	m_nCount = 0;
; 855  : 	m_pNodeHead = m_pNodeTail = m_pNodeFree = NULL;
; 856  : 	m_pBlocks = NULL;
; 857  : 	m_nBlockSize = nBlockSize;

  00003	8b 45 08	 mov	 eax, DWORD PTR _nBlockSize$[ebp]
  00006	89 41 18	 mov	 DWORD PTR [ecx+24], eax

; 858  : }

  00009	8b c1		 mov	 eax, ecx
  0000b	c7 01 00 00 00
	00		 mov	 DWORD PTR [ecx], OFFSET ??_7?$CList@NN@@6B@
  00011	c7 41 0c 00 00
	00 00		 mov	 DWORD PTR [ecx+12], 0
  00018	c7 41 10 00 00
	00 00		 mov	 DWORD PTR [ecx+16], 0
  0001f	c7 41 08 00 00
	00 00		 mov	 DWORD PTR [ecx+8], 0
  00026	c7 41 04 00 00
	00 00		 mov	 DWORD PTR [ecx+4], 0
  0002d	c7 41 14 00 00
	00 00		 mov	 DWORD PTR [ecx+20], 0
  00034	5d		 pop	 ebp
  00035	c2 04 00	 ret	 4
??0?$CList@NN@@QAE@H@Z ENDP				; CList<double,double>::CList<double,double>
_TEXT	ENDS
; Function compile flags: /Ogtp
;	COMDAT ??4CVertScaleRegion@@QAEAAV0@$$QAV0@@Z
_TEXT	SEGMENT
___that$ = 8						; size = 4
??4CVertScaleRegion@@QAEAAV0@$$QAV0@@Z PROC		; CVertScaleRegion::operator=, COMDAT
; _this$ = ecx
  00000	55		 push	 ebp
  00001	8b ec		 mov	 ebp, esp
  00003	8b 45 08	 mov	 eax, DWORD PTR ___that$[ebp]
  00006	0f 10 00	 movups	 xmm0, XMMWORD PTR [eax]
  00009	0f 11 01	 movups	 XMMWORD PTR [ecx], xmm0
  0000c	0f 10 40 10	 movups	 xmm0, XMMWORD PTR [eax+16]
  00010	8b c1		 mov	 eax, ecx
  00012	0f 11 41 10	 movups	 XMMWORD PTR [ecx+16], xmm0
  00016	5d		 pop	 ebp
  00017	c2 04 00	 ret	 4
??4CVertScaleRegion@@QAEAAV0@$$QAV0@@Z ENDP		; CVertScaleRegion::operator=
_TEXT	ENDS
; Function compile flags: /Ogtp
;	COMDAT ??4CVertScaleRegion@@QAEAAV0@ABV0@@Z
_TEXT	SEGMENT
___that$ = 8						; size = 4
??4CVertScaleRegion@@QAEAAV0@ABV0@@Z PROC		; CVertScaleRegion::operator=, COMDAT
; _this$ = ecx
  00000	55		 push	 ebp
  00001	8b ec		 mov	 ebp, esp
  00003	8b 45 08	 mov	 eax, DWORD PTR ___that$[ebp]
  00006	0f 10 00	 movups	 xmm0, XMMWORD PTR [eax]
  00009	0f 11 01	 movups	 XMMWORD PTR [ecx], xmm0
  0000c	0f 10 40 10	 movups	 xmm0, XMMWORD PTR [eax+16]
  00010	8b c1		 mov	 eax, ecx
  00012	0f 11 41 10	 movups	 XMMWORD PTR [ecx+16], xmm0
  00016	5d		 pop	 ebp
  00017	c2 04 00	 ret	 4
??4CVertScaleRegion@@QAEAAV0@ABV0@@Z ENDP		; CVertScaleRegion::operator=
_TEXT	ENDS
; Function compile flags: /Ogtp
;	COMDAT ??4CHorzScaleRegion@@QAEAAV0@$$QAV0@@Z
_TEXT	SEGMENT
___that$ = 8						; size = 4
??4CHorzScaleRegion@@QAEAAV0@$$QAV0@@Z PROC		; CHorzScaleRegion::operator=, COMDAT
; _this$ = ecx
  00000	55		 push	 ebp
  00001	8b ec		 mov	 ebp, esp
  00003	8b 45 08	 mov	 eax, DWORD PTR ___that$[ebp]
  00006	0f 10 00	 movups	 xmm0, XMMWORD PTR [eax]
  00009	0f 11 01	 movups	 XMMWORD PTR [ecx], xmm0
  0000c	0f 10 40 10	 movups	 xmm0, XMMWORD PTR [eax+16]
  00010	8b c1		 mov	 eax, ecx
  00012	0f 11 41 10	 movups	 XMMWORD PTR [ecx+16], xmm0
  00016	5d		 pop	 ebp
  00017	c2 04 00	 ret	 4
??4CHorzScaleRegion@@QAEAAV0@$$QAV0@@Z ENDP		; CHorzScaleRegion::operator=
_TEXT	ENDS
; Function compile flags: /Ogtp
;	COMDAT ??4CHorzScaleRegion@@QAEAAV0@ABV0@@Z
_TEXT	SEGMENT
___that$ = 8						; size = 4
??4CHorzScaleRegion@@QAEAAV0@ABV0@@Z PROC		; CHorzScaleRegion::operator=, COMDAT
; _this$ = ecx
  00000	55		 push	 ebp
  00001	8b ec		 mov	 ebp, esp
  00003	8b 45 08	 mov	 eax, DWORD PTR ___that$[ebp]
  00006	0f 10 00	 movups	 xmm0, XMMWORD PTR [eax]
  00009	0f 11 01	 movups	 XMMWORD PTR [ecx], xmm0
  0000c	0f 10 40 10	 movups	 xmm0, XMMWORD PTR [eax+16]
  00010	8b c1		 mov	 eax, ecx
  00012	0f 11 41 10	 movups	 XMMWORD PTR [ecx+16], xmm0
  00016	5d		 pop	 ebp
  00017	c2 04 00	 ret	 4
??4CHorzScaleRegion@@QAEAAV0@ABV0@@Z ENDP		; CHorzScaleRegion::operator=
_TEXT	ENDS
; Function compile flags: /Ogtp
;	COMDAT ??4CVertScaleRegionWidth@@QAEAAV0@$$QAV0@@Z
_TEXT	SEGMENT
___that$ = 8						; size = 4
??4CVertScaleRegionWidth@@QAEAAV0@$$QAV0@@Z PROC	; CVertScaleRegionWidth::operator=, COMDAT
; _this$ = ecx
  00000	55		 push	 ebp
  00001	8b ec		 mov	 ebp, esp
  00003	8b 55 08	 mov	 edx, DWORD PTR ___that$[ebp]
  00006	8b 02		 mov	 eax, DWORD PTR [edx]
  00008	89 01		 mov	 DWORD PTR [ecx], eax
  0000a	8b 42 04	 mov	 eax, DWORD PTR [edx+4]
  0000d	89 41 04	 mov	 DWORD PTR [ecx+4], eax
  00010	8b c1		 mov	 eax, ecx
  00012	5d		 pop	 ebp
  00013	c2 04 00	 ret	 4
??4CVertScaleRegionWidth@@QAEAAV0@$$QAV0@@Z ENDP	; CVertScaleRegionWidth::operator=
_TEXT	ENDS
; Function compile flags: /Ogtp
;	COMDAT ??4CVertScaleRegionWidth@@QAEAAV0@ABV0@@Z
_TEXT	SEGMENT
___that$ = 8						; size = 4
??4CVertScaleRegionWidth@@QAEAAV0@ABV0@@Z PROC		; CVertScaleRegionWidth::operator=, COMDAT
; _this$ = ecx
  00000	55		 push	 ebp
  00001	8b ec		 mov	 ebp, esp
  00003	8b 45 08	 mov	 eax, DWORD PTR ___that$[ebp]
  00006	8b 10		 mov	 edx, DWORD PTR [eax]
  00008	8b 40 04	 mov	 eax, DWORD PTR [eax+4]
  0000b	89 41 04	 mov	 DWORD PTR [ecx+4], eax
  0000e	8b c1		 mov	 eax, ecx
  00010	89 11		 mov	 DWORD PTR [ecx], edx
  00012	5d		 pop	 ebp
  00013	c2 04 00	 ret	 4
??4CVertScaleRegionWidth@@QAEAAV0@ABV0@@Z ENDP		; CVertScaleRegionWidth::operator=
_TEXT	ENDS
; Function compile flags: /Ogtp
;	COMDAT ??4CHorzScaleRegionHeight@@QAEAAV0@$$QAV0@@Z
_TEXT	SEGMENT
___that$ = 8						; size = 4
??4CHorzScaleRegionHeight@@QAEAAV0@$$QAV0@@Z PROC	; CHorzScaleRegionHeight::operator=, COMDAT
; _this$ = ecx
  00000	55		 push	 ebp
  00001	8b ec		 mov	 ebp, esp
  00003	8b 55 08	 mov	 edx, DWORD PTR ___that$[ebp]
  00006	8b 02		 mov	 eax, DWORD PTR [edx]
  00008	89 01		 mov	 DWORD PTR [ecx], eax
  0000a	8b 42 04	 mov	 eax, DWORD PTR [edx+4]
  0000d	89 41 04	 mov	 DWORD PTR [ecx+4], eax
  00010	8b c1		 mov	 eax, ecx
  00012	5d		 pop	 ebp
  00013	c2 04 00	 ret	 4
??4CHorzScaleRegionHeight@@QAEAAV0@$$QAV0@@Z ENDP	; CHorzScaleRegionHeight::operator=
_TEXT	ENDS
; Function compile flags: /Ogtp
;	COMDAT ??4CHorzScaleRegionHeight@@QAEAAV0@ABV0@@Z
_TEXT	SEGMENT
___that$ = 8						; size = 4
??4CHorzScaleRegionHeight@@QAEAAV0@ABV0@@Z PROC		; CHorzScaleRegionHeight::operator=, COMDAT
; _this$ = ecx
  00000	55		 push	 ebp
  00001	8b ec		 mov	 ebp, esp
  00003	8b 45 08	 mov	 eax, DWORD PTR ___that$[ebp]
  00006	8b 10		 mov	 edx, DWORD PTR [eax]
  00008	8b 40 04	 mov	 eax, DWORD PTR [eax+4]
  0000b	89 41 04	 mov	 DWORD PTR [ecx+4], eax
  0000e	8b c1		 mov	 eax, ecx
  00010	89 11		 mov	 DWORD PTR [ecx], edx
  00012	5d		 pop	 ebp
  00013	c2 04 00	 ret	 4
??4CHorzScaleRegionHeight@@QAEAAV0@ABV0@@Z ENDP		; CHorzScaleRegionHeight::operator=
_TEXT	ENDS
; Function compile flags: /Ogtp
;	COMDAT ??0CVerticalScale@@QAE@ABV0@@Z
_TEXT	SEGMENT
_this$ = -4						; size = 4
___that$ = 8						; size = 4
??0CVerticalScale@@QAE@ABV0@@Z PROC			; CVerticalScale::CVerticalScale, COMDAT
; _this$ = ecx
  00000	55		 push	 ebp
  00001	8b ec		 mov	 ebp, esp
  00003	51		 push	 ecx
  00004	56		 push	 esi
  00005	8b 75 08	 mov	 esi, DWORD PTR ___that$[ebp]
  00008	57		 push	 edi
  00009	8b f9		 mov	 edi, ecx
  0000b	89 7d fc	 mov	 DWORD PTR _this$[ebp], edi
  0000e	8d 46 04	 lea	 eax, DWORD PTR [esi+4]
  00011	50		 push	 eax
  00012	8d 4f 04	 lea	 ecx, DWORD PTR [edi+4]
  00015	c7 07 00 00 00
	00		 mov	 DWORD PTR [edi], OFFSET ??_7CScale@@6B@
  0001b	ff 15 00 00 00
	00		 call	 DWORD PTR __imp_??0?$CStringT@DV?$StrTraitMFC_DLL@DV?$ChTraitsCRT@D@ATL@@@@@ATL@@QAE@ABV01@@Z
  00021	8b 46 08	 mov	 eax, DWORD PTR [esi+8]
  00024	89 47 08	 mov	 DWORD PTR [edi+8], eax
  00027	c7 07 00 00 00
	00		 mov	 DWORD PTR [edi], OFFSET ??_7CVerticalScale@@6B@
  0002d	8b 46 0c	 mov	 eax, DWORD PTR [esi+12]
  00030	89 47 0c	 mov	 DWORD PTR [edi+12], eax
  00033	8b 46 10	 mov	 eax, DWORD PTR [esi+16]
  00036	89 47 10	 mov	 DWORD PTR [edi+16], eax
  00039	8b 46 14	 mov	 eax, DWORD PTR [esi+20]
  0003c	89 47 14	 mov	 DWORD PTR [edi+20], eax
  0003f	8b 46 18	 mov	 eax, DWORD PTR [esi+24]
  00042	89 47 18	 mov	 DWORD PTR [edi+24], eax
  00045	f2 0f 10 46 20	 movsd	 xmm0, QWORD PTR [esi+32]
  0004a	f2 0f 11 47 20	 movsd	 QWORD PTR [edi+32], xmm0
  0004f	f2 0f 10 46 28	 movsd	 xmm0, QWORD PTR [esi+40]
  00054	f2 0f 11 47 28	 movsd	 QWORD PTR [edi+40], xmm0
  00059	8b 46 30	 mov	 eax, DWORD PTR [esi+48]
  0005c	89 47 30	 mov	 DWORD PTR [edi+48], eax
  0005f	8a 46 34	 mov	 al, BYTE PTR [esi+52]
  00062	88 47 34	 mov	 BYTE PTR [edi+52], al
  00065	f2 0f 10 46 38	 movsd	 xmm0, QWORD PTR [esi+56]
  0006a	f2 0f 11 47 38	 movsd	 QWORD PTR [edi+56], xmm0
  0006f	f2 0f 10 46 40	 movsd	 xmm0, QWORD PTR [esi+64]
  00074	f2 0f 11 47 40	 movsd	 QWORD PTR [edi+64], xmm0
  00079	8b 46 48	 mov	 eax, DWORD PTR [esi+72]
  0007c	89 47 48	 mov	 DWORD PTR [edi+72], eax
  0007f	8b 46 4c	 mov	 eax, DWORD PTR [esi+76]
  00082	89 47 4c	 mov	 DWORD PTR [edi+76], eax
  00085	8b 46 50	 mov	 eax, DWORD PTR [esi+80]
  00088	89 47 50	 mov	 DWORD PTR [edi+80], eax
  0008b	8b c7		 mov	 eax, edi
  0008d	5f		 pop	 edi
  0008e	5e		 pop	 esi
  0008f	8b e5		 mov	 esp, ebp
  00091	5d		 pop	 ebp
  00092	c2 04 00	 ret	 4
??0CVerticalScale@@QAE@ABV0@@Z ENDP			; CVerticalScale::CVerticalScale
_TEXT	ENDS
; Function compile flags: /Ogtp
;	COMDAT ??1CVerticalScale@@QAE@XZ
_TEXT	SEGMENT
??1CVerticalScale@@QAE@XZ PROC				; CVerticalScale::~CVerticalScale, COMDAT
; _this$ = ecx
  00000	83 c1 04	 add	 ecx, 4
  00003	ff 25 00 00 00
	00		 jmp	 DWORD PTR __imp_??1?$CStringT@DV?$StrTraitMFC_DLL@DV?$ChTraitsCRT@D@ATL@@@@@ATL@@QAE@XZ
??1CVerticalScale@@QAE@XZ ENDP				; CVerticalScale::~CVerticalScale
_TEXT	ENDS
; Function compile flags: /Ogtp
; File D:\git\src\IBK\IBK_DRFN\ProjSrc\SrcChartEx\ChartOCX\Include_Chart\ScaleBaseData.h
;	COMDAT ?GetSpace@CVerticalScale@@QBEXAAH0@Z
_TEXT	SEGMENT
_p_nUpSpace$ = 8					; size = 4
_p_nDownSpace$ = 12					; size = 4
?GetSpace@CVerticalScale@@QBEXAAH0@Z PROC		; CVerticalScale::GetSpace, COMDAT
; _this$ = ecx

; 240  : 	void	GetSpace( int &p_nUpSpace, int &p_nDownSpace) const		{	p_nUpSpace = m_nUpSpace;	p_nDownSpace = m_nDownSpace;	}

  00000	55		 push	 ebp
  00001	8b ec		 mov	 ebp, esp
  00003	8b 45 08	 mov	 eax, DWORD PTR _p_nUpSpace$[ebp]
  00006	8b 51 4c	 mov	 edx, DWORD PTR [ecx+76]
  00009	89 10		 mov	 DWORD PTR [eax], edx
  0000b	8b 45 0c	 mov	 eax, DWORD PTR _p_nDownSpace$[ebp]
  0000e	8b 49 50	 mov	 ecx, DWORD PTR [ecx+80]
  00011	89 08		 mov	 DWORD PTR [eax], ecx
  00013	5d		 pop	 ebp
  00014	c2 08 00	 ret	 8
?GetSpace@CVerticalScale@@QBEXAAH0@Z ENDP		; CVerticalScale::GetSpace
_TEXT	ENDS
; Function compile flags: /Ogtp
; File D:\git\src\IBK\IBK_DRFN\ProjSrc\SrcChartEx\ChartOCX\Include_Chart\ScaleBaseData.h
;	COMDAT ?SetSpace@CVerticalScale@@QAEXHH@Z
_TEXT	SEGMENT
_p_nUpSpace$ = 8					; size = 4
_p_nDownSpace$ = 12					; size = 4
?SetSpace@CVerticalScale@@QAEXHH@Z PROC			; CVerticalScale::SetSpace, COMDAT
; _this$ = ecx

; 239  : 	void	SetSpace( int p_nUpSpace, int p_nDownSpace)				{	m_nUpSpace = p_nUpSpace;	m_nDownSpace = p_nDownSpace;	}

  00000	55		 push	 ebp
  00001	8b ec		 mov	 ebp, esp
  00003	8b 45 08	 mov	 eax, DWORD PTR _p_nUpSpace$[ebp]
  00006	89 41 4c	 mov	 DWORD PTR [ecx+76], eax
  00009	8b 45 0c	 mov	 eax, DWORD PTR _p_nDownSpace$[ebp]
  0000c	89 41 50	 mov	 DWORD PTR [ecx+80], eax
  0000f	5d		 pop	 ebp
  00010	c2 08 00	 ret	 8
?SetSpace@CVerticalScale@@QAEXHH@Z ENDP			; CVerticalScale::SetSpace
_TEXT	ENDS
; Function compile flags: /Ogtp
; File D:\git\src\IBK\IBK_DRFN\ProjSrc\SrcChartEx\ChartOCX\Include_Chart\ScaleBaseData.h
;	COMDAT ?SetVertScaleInvertType@CVerticalScale@@QAEX_N@Z
_TEXT	SEGMENT
_bIsVertScaleInvertType$ = 8				; size = 1
?SetVertScaleInvertType@CVerticalScale@@QAEX_N@Z PROC	; CVerticalScale::SetVertScaleInvertType, COMDAT
; _this$ = ecx

; 232  : 	void	SetVertScaleInvertType(const bool bIsVertScaleInvertType)	{	m_bIsVertScaleInvertType = bIsVertScaleInvertType;	}

  00000	55		 push	 ebp
  00001	8b ec		 mov	 ebp, esp
  00003	8a 45 08	 mov	 al, BYTE PTR _bIsVertScaleInvertType$[ebp]
  00006	88 41 34	 mov	 BYTE PTR [ecx+52], al
  00009	5d		 pop	 ebp
  0000a	c2 04 00	 ret	 4
?SetVertScaleInvertType@CVerticalScale@@QAEX_N@Z ENDP	; CVerticalScale::SetVertScaleInvertType
_TEXT	ENDS
; Function compile flags: /Ogtp
; File D:\git\src\IBK\IBK_DRFN\ProjSrc\SrcChartEx\ChartOCX\Include_Chart\ScaleBaseData.h
;	COMDAT ?GetVertScaleInvertType@CVerticalScale@@QBE_NXZ
_TEXT	SEGMENT
?GetVertScaleInvertType@CVerticalScale@@QBE_NXZ PROC	; CVerticalScale::GetVertScaleInvertType, COMDAT
; _this$ = ecx

; 230  : 	bool	GetVertScaleInvertType() const								{	return m_bIsVertScaleInvertType;	}

  00000	8a 41 34	 mov	 al, BYTE PTR [ecx+52]
  00003	c3		 ret	 0
?GetVertScaleInvertType@CVerticalScale@@QBE_NXZ ENDP	; CVerticalScale::GetVertScaleInvertType
_TEXT	ENDS
; Function compile flags: /Ogtp
; File D:\git\src\IBK\IBK_DRFN\ProjSrc\SrcChartEx\ChartOCX\Include_Chart\ScaleBaseData.h
;	COMDAT ?GetVertUserHogaScaleType@CVerticalScale@@QBEHXZ
_TEXT	SEGMENT
?GetVertUserHogaScaleType@CVerticalScale@@QBEHXZ PROC	; CVerticalScale::GetVertUserHogaScaleType, COMDAT
; _this$ = ecx

; 226  : 	int			GetVertUserHogaScaleType( void) const						{	return m_nUserHogaType;		}			

  00000	8b 41 48	 mov	 eax, DWORD PTR [ecx+72]
  00003	c3		 ret	 0
?GetVertUserHogaScaleType@CVerticalScale@@QBEHXZ ENDP	; CVerticalScale::GetVertUserHogaScaleType
_TEXT	ENDS
; Function compile flags: /Ogtp
; File D:\git\src\IBK\IBK_DRFN\ProjSrc\SrcChartEx\ChartOCX\Include_Chart\ScaleBaseData.h
;	COMDAT ?GetVertScaleUserNumber@CVerticalScale@@QBENXZ
_TEXT	SEGMENT
?GetVertScaleUserNumber@CVerticalScale@@QBENXZ PROC	; CVerticalScale::GetVertScaleUserNumber, COMDAT
; _this$ = ecx

; 225  : 	double		GetVertScaleUserNumber( void) const						{	return m_dUserNumber;		}			

  00000	dd 41 38	 fld	 QWORD PTR [ecx+56]
  00003	c3		 ret	 0
?GetVertScaleUserNumber@CVerticalScale@@QBENXZ ENDP	; CVerticalScale::GetVertScaleUserNumber
_TEXT	ENDS
; Function compile flags: /Ogtp
; File D:\git\src\IBK\IBK_DRFN\ProjSrc\SrcChartEx\ChartOCX\Include_Chart\ScaleBaseData.h
;	COMDAT ?GetVertScaleHoGaNumber@CVerticalScale@@QBENXZ
_TEXT	SEGMENT
?GetVertScaleHoGaNumber@CVerticalScale@@QBENXZ PROC	; CVerticalScale::GetVertScaleHoGaNumber, COMDAT
; _this$ = ecx

; 224  : 	double		GetVertScaleHoGaNumber( void) const						{	return m_dHogaNumber;		}			

  00000	dd 41 40	 fld	 QWORD PTR [ecx+64]
  00003	c3		 ret	 0
?GetVertScaleHoGaNumber@CVerticalScale@@QBENXZ ENDP	; CVerticalScale::GetVertScaleHoGaNumber
_TEXT	ENDS
; Function compile flags: /Ogtp
; File D:\git\src\IBK\IBK_DRFN\ProjSrc\SrcChartEx\ChartOCX\Include_Chart\ScaleBaseData.h
;	COMDAT ?SetVertUserHogaScaleType@CVerticalScale@@QAEXH@Z
_TEXT	SEGMENT
_p_nUserHogaType$ = 8					; size = 4
?SetVertUserHogaScaleType@CVerticalScale@@QAEXH@Z PROC	; CVerticalScale::SetVertUserHogaScaleType, COMDAT
; _this$ = ecx

; 222  : 	void		SetVertUserHogaScaleType( int p_nUserHogaType)		{	m_nUserHogaType = p_nUserHogaType;	}

  00000	55		 push	 ebp
  00001	8b ec		 mov	 ebp, esp
  00003	8b 45 08	 mov	 eax, DWORD PTR _p_nUserHogaType$[ebp]
  00006	89 41 48	 mov	 DWORD PTR [ecx+72], eax
  00009	5d		 pop	 ebp
  0000a	c2 04 00	 ret	 4
?SetVertUserHogaScaleType@CVerticalScale@@QAEXH@Z ENDP	; CVerticalScale::SetVertUserHogaScaleType
_TEXT	ENDS
; Function compile flags: /Ogtp
; File D:\git\src\IBK\IBK_DRFN\ProjSrc\SrcChartEx\ChartOCX\Include_Chart\ScaleBaseData.h
;	COMDAT ?SetVertScaleUserNumber@CVerticalScale@@QAEXN@Z
_TEXT	SEGMENT
_p_dUserNumber$ = 8					; size = 8
?SetVertScaleUserNumber@CVerticalScale@@QAEXN@Z PROC	; CVerticalScale::SetVertScaleUserNumber, COMDAT
; _this$ = ecx

; 221  : 	void		SetVertScaleUserNumber( double p_dUserNumber)			{	m_dUserNumber = p_dUserNumber;	}

  00000	55		 push	 ebp
  00001	8b ec		 mov	 ebp, esp
  00003	f2 0f 10 45 08	 movsd	 xmm0, QWORD PTR _p_dUserNumber$[ebp]
  00008	f2 0f 11 41 38	 movsd	 QWORD PTR [ecx+56], xmm0
  0000d	5d		 pop	 ebp
  0000e	c2 08 00	 ret	 8
?SetVertScaleUserNumber@CVerticalScale@@QAEXN@Z ENDP	; CVerticalScale::SetVertScaleUserNumber
_TEXT	ENDS
; Function compile flags: /Ogtp
; File D:\git\src\IBK\IBK_DRFN\ProjSrc\SrcChartEx\ChartOCX\Include_Chart\ScaleBaseData.h
;	COMDAT ?SetVertScaleHoGaNumber@CVerticalScale@@QAEXN@Z
_TEXT	SEGMENT
_p_dHogaNumber$ = 8					; size = 8
?SetVertScaleHoGaNumber@CVerticalScale@@QAEXN@Z PROC	; CVerticalScale::SetVertScaleHoGaNumber, COMDAT
; _this$ = ecx

; 220  : 	void		SetVertScaleHoGaNumber( double p_dHogaNumber)			{	m_dHogaNumber = p_dHogaNumber;	}

  00000	55		 push	 ebp
  00001	8b ec		 mov	 ebp, esp
  00003	f2 0f 10 45 08	 movsd	 xmm0, QWORD PTR _p_dHogaNumber$[ebp]
  00008	f2 0f 11 41 40	 movsd	 QWORD PTR [ecx+64], xmm0
  0000d	5d		 pop	 ebp
  0000e	c2 08 00	 ret	 8
?SetVertScaleHoGaNumber@CVerticalScale@@QAEXN@Z ENDP	; CVerticalScale::SetVertScaleHoGaNumber
_TEXT	ENDS
; Function compile flags: /Ogtp
; File D:\git\src\IBK\IBK_DRFN\ProjSrc\SrcChartEx\ChartOCX\Include_Chart\ScaleBaseData.h
;	COMDAT ?SetVertScaleMax@CVerticalScale@@QAEXN@Z
_TEXT	SEGMENT
_p_dMax$ = 8						; size = 8
?SetVertScaleMax@CVerticalScale@@QAEXN@Z PROC		; CVerticalScale::SetVertScaleMax, COMDAT
; _this$ = ecx

; 211  : 	void							SetVertScaleMax( double p_dMax)											{	m_dMax = p_dMax;	}

  00000	55		 push	 ebp
  00001	8b ec		 mov	 ebp, esp
  00003	f2 0f 10 45 08	 movsd	 xmm0, QWORD PTR _p_dMax$[ebp]
  00008	f2 0f 11 41 28	 movsd	 QWORD PTR [ecx+40], xmm0
  0000d	5d		 pop	 ebp
  0000e	c2 08 00	 ret	 8
?SetVertScaleMax@CVerticalScale@@QAEXN@Z ENDP		; CVerticalScale::SetVertScaleMax
_TEXT	ENDS
; Function compile flags: /Ogtp
; File D:\git\src\IBK\IBK_DRFN\ProjSrc\SrcChartEx\ChartOCX\Include_Chart\ScaleBaseData.h
;	COMDAT ?GetVertScaleMax@CVerticalScale@@QBENXZ
_TEXT	SEGMENT
?GetVertScaleMax@CVerticalScale@@QBENXZ PROC		; CVerticalScale::GetVertScaleMax, COMDAT
; _this$ = ecx

; 210  : 	double							GetVertScaleMax( void) const											{	return m_dMax;		}

  00000	dd 41 28	 fld	 QWORD PTR [ecx+40]
  00003	c3		 ret	 0
?GetVertScaleMax@CVerticalScale@@QBENXZ ENDP		; CVerticalScale::GetVertScaleMax
_TEXT	ENDS
; Function compile flags: /Ogtp
; File D:\git\src\IBK\IBK_DRFN\ProjSrc\SrcChartEx\ChartOCX\Include_Chart\ScaleBaseData.h
;	COMDAT ?SetVertScaleMin@CVerticalScale@@QAEXN@Z
_TEXT	SEGMENT
_p_dMin$ = 8						; size = 8
?SetVertScaleMin@CVerticalScale@@QAEXN@Z PROC		; CVerticalScale::SetVertScaleMin, COMDAT
; _this$ = ecx

; 208  : 	void							SetVertScaleMin( double p_dMin)											{	m_dMin = p_dMin;	}

  00000	55		 push	 ebp
  00001	8b ec		 mov	 ebp, esp
  00003	f2 0f 10 45 08	 movsd	 xmm0, QWORD PTR _p_dMin$[ebp]
  00008	f2 0f 11 41 20	 movsd	 QWORD PTR [ecx+32], xmm0
  0000d	5d		 pop	 ebp
  0000e	c2 08 00	 ret	 8
?SetVertScaleMin@CVerticalScale@@QAEXN@Z ENDP		; CVerticalScale::SetVertScaleMin
_TEXT	ENDS
; Function compile flags: /Ogtp
; File D:\git\src\IBK\IBK_DRFN\ProjSrc\SrcChartEx\ChartOCX\Include_Chart\ScaleBaseData.h
;	COMDAT ?GetVertScaleMin@CVerticalScale@@QBENXZ
_TEXT	SEGMENT
?GetVertScaleMin@CVerticalScale@@QBENXZ PROC		; CVerticalScale::GetVertScaleMin, COMDAT
; _this$ = ecx

; 207  : 	double							GetVertScaleMin( void) const											{	return m_dMin;		}			

  00000	dd 41 20	 fld	 QWORD PTR [ecx+32]
  00003	c3		 ret	 0
?GetVertScaleMin@CVerticalScale@@QBENXZ ENDP		; CVerticalScale::GetVertScaleMin
_TEXT	ENDS
; Function compile flags: /Ogtp
; File D:\git\src\IBK\IBK_DRFN\ProjSrc\SrcChartEx\ChartOCX\Include_Chart\ScaleBaseData.h
;	COMDAT ?SetVertScaleMinMaxType@CVerticalScale@@QAEXW4VERTMINMAXTYPE@CScaleBaseData@@@Z
_TEXT	SEGMENT
_p_eMinMaxType$ = 8					; size = 4
?SetVertScaleMinMaxType@CVerticalScale@@QAEXW4VERTMINMAXTYPE@CScaleBaseData@@@Z PROC ; CVerticalScale::SetVertScaleMinMaxType, COMDAT
; _this$ = ecx

; 205  : 	void							SetVertScaleMinMaxType( CScaleBaseData::VERTMINMAXTYPE p_eMinMaxType) 	{	m_eMinMaxType = p_eMinMaxType;	}

  00000	55		 push	 ebp
  00001	8b ec		 mov	 ebp, esp
  00003	8b 45 08	 mov	 eax, DWORD PTR _p_eMinMaxType$[ebp]
  00006	89 41 18	 mov	 DWORD PTR [ecx+24], eax
  00009	5d		 pop	 ebp
  0000a	c2 04 00	 ret	 4
?SetVertScaleMinMaxType@CVerticalScale@@QAEXW4VERTMINMAXTYPE@CScaleBaseData@@@Z ENDP ; CVerticalScale::SetVertScaleMinMaxType
_TEXT	ENDS
; Function compile flags: /Ogtp
; File D:\git\src\IBK\IBK_DRFN\ProjSrc\SrcChartEx\ChartOCX\Include_Chart\ScaleBaseData.h
;	COMDAT ?GetVertScaleMinMaxType@CVerticalScale@@QBE?AW4VERTMINMAXTYPE@CScaleBaseData@@XZ
_TEXT	SEGMENT
?GetVertScaleMinMaxType@CVerticalScale@@QBE?AW4VERTMINMAXTYPE@CScaleBaseData@@XZ PROC ; CVerticalScale::GetVertScaleMinMaxType, COMDAT
; _this$ = ecx

; 204  : 	CScaleBaseData::VERTMINMAXTYPE	GetVertScaleMinMaxType( void) const										{	return m_eMinMaxType;			}

  00000	8b 41 18	 mov	 eax, DWORD PTR [ecx+24]
  00003	c3		 ret	 0
?GetVertScaleMinMaxType@CVerticalScale@@QBE?AW4VERTMINMAXTYPE@CScaleBaseData@@XZ ENDP ; CVerticalScale::GetVertScaleMinMaxType
_TEXT	ENDS
; Function compile flags: /Ogtp
; File D:\git\src\IBK\IBK_DRFN\ProjSrc\SrcChartEx\ChartOCX\Include_Chart\ScaleBaseData.h
;	COMDAT ?SetVertScaleMinMaxLock@CVerticalScale@@QAEXH@Z
_TEXT	SEGMENT
_p_bMinMaxLock$ = 8					; size = 4
?SetVertScaleMinMaxLock@CVerticalScale@@QAEXH@Z PROC	; CVerticalScale::SetVertScaleMinMaxLock, COMDAT
; _this$ = ecx

; 202  : 	void							SetVertScaleMinMaxLock( BOOL p_bMinMaxLock)								{	m_bMinMaxLock = p_bMinMaxLock;	}

  00000	55		 push	 ebp
  00001	8b ec		 mov	 ebp, esp
  00003	8b 45 08	 mov	 eax, DWORD PTR _p_bMinMaxLock$[ebp]
  00006	89 41 14	 mov	 DWORD PTR [ecx+20], eax
  00009	5d		 pop	 ebp
  0000a	c2 04 00	 ret	 4
?SetVertScaleMinMaxLock@CVerticalScale@@QAEXH@Z ENDP	; CVerticalScale::SetVertScaleMinMaxLock
_TEXT	ENDS
; Function compile flags: /Ogtp
; File D:\git\src\IBK\IBK_DRFN\ProjSrc\SrcChartEx\ChartOCX\Include_Chart\ScaleBaseData.h
;	COMDAT ?IsVertScaleMinMaxLock@CVerticalScale@@QBEHXZ
_TEXT	SEGMENT
?IsVertScaleMinMaxLock@CVerticalScale@@QBEHXZ PROC	; CVerticalScale::IsVertScaleMinMaxLock, COMDAT
; _this$ = ecx

; 201  : 	BOOL							IsVertScaleMinMaxLock( void) const										{	return m_bMinMaxLock;			}

  00000	8b 41 14	 mov	 eax, DWORD PTR [ecx+20]
  00003	c3		 ret	 0
?IsVertScaleMinMaxLock@CVerticalScale@@QBEHXZ ENDP	; CVerticalScale::IsVertScaleMinMaxLock
_TEXT	ENDS
; Function compile flags: /Ogtp
;	COMDAT ??0CHorizontalScale@@QAE@ABV0@@Z
_TEXT	SEGMENT
_this$ = -16						; size = 4
__$EHRec$ = -12						; size = 12
_this$ = 8						; size = 4
___that$ = 8						; size = 4
??0CHorizontalScale@@QAE@ABV0@@Z PROC			; CHorizontalScale::CHorizontalScale, COMDAT
; _this$ = ecx
  00000	55		 push	 ebp
  00001	8b ec		 mov	 ebp, esp
  00003	6a ff		 push	 -1
  00005	68 00 00 00 00	 push	 __ehhandler$??0CHorizontalScale@@QAE@ABV0@@Z
  0000a	64 a1 00 00 00
	00		 mov	 eax, DWORD PTR fs:0
  00010	50		 push	 eax
  00011	51		 push	 ecx
  00012	53		 push	 ebx
  00013	56		 push	 esi
  00014	57		 push	 edi
  00015	a1 00 00 00 00	 mov	 eax, DWORD PTR ___security_cookie
  0001a	33 c5		 xor	 eax, ebp
  0001c	50		 push	 eax
  0001d	8d 45 f4	 lea	 eax, DWORD PTR __$EHRec$[ebp]
  00020	64 a3 00 00 00
	00		 mov	 DWORD PTR fs:0, eax
  00026	8b f1		 mov	 esi, ecx
  00028	89 75 f0	 mov	 DWORD PTR _this$[ebp], esi
  0002b	8b 5d 08	 mov	 ebx, DWORD PTR ___that$[ebp]
  0002e	8d 4e 04	 lea	 ecx, DWORD PTR [esi+4]
  00031	c7 06 00 00 00
	00		 mov	 DWORD PTR [esi], OFFSET ??_7CScale@@6B@
  00037	8d 43 04	 lea	 eax, DWORD PTR [ebx+4]
  0003a	50		 push	 eax
  0003b	ff 15 00 00 00
	00		 call	 DWORD PTR __imp_??0?$CStringT@DV?$StrTraitMFC_DLL@DV?$ChTraitsCRT@D@ATL@@@@@ATL@@QAE@ABV01@@Z
  00041	8b 43 08	 mov	 eax, DWORD PTR [ebx+8]
  00044	89 46 08	 mov	 DWORD PTR [esi+8], eax
  00047	c7 06 00 00 00
	00		 mov	 DWORD PTR [esi], OFFSET ??_7CHorizontalScale@@6B@
  0004d	8d 7b 10	 lea	 edi, DWORD PTR [ebx+16]
  00050	8b 43 0c	 mov	 eax, DWORD PTR [ebx+12]
  00053	89 46 0c	 mov	 DWORD PTR [esi+12], eax
  00056	83 c6 10	 add	 esi, 16			; 00000010H
  00059	57		 push	 edi
  0005a	8b ce		 mov	 ecx, esi
  0005c	c7 45 fc 00 00
	00 00		 mov	 DWORD PTR __$EHRec$[ebp+8], 0
  00063	89 75 08	 mov	 DWORD PTR _this$[ebp], esi
  00066	ff 15 00 00 00
	00		 call	 DWORD PTR __imp_??0?$CStringT@DV?$StrTraitMFC_DLL@DV?$ChTraitsCRT@D@ATL@@@@@ATL@@QAE@ABV01@@Z
  0006c	8d 47 04	 lea	 eax, DWORD PTR [edi+4]
  0006f	c6 45 fc 01	 mov	 BYTE PTR __$EHRec$[ebp+8], 1
  00073	50		 push	 eax
  00074	8d 4e 04	 lea	 ecx, DWORD PTR [esi+4]
  00077	ff 15 00 00 00
	00		 call	 DWORD PTR __imp_??0?$CStringT@DV?$StrTraitMFC_DLL@DV?$ChTraitsCRT@D@ATL@@@@@ATL@@QAE@ABV01@@Z
  0007d	8b 4d f0	 mov	 ecx, DWORD PTR _this$[ebp]
  00080	8b 47 08	 mov	 eax, DWORD PTR [edi+8]
  00083	89 46 08	 mov	 DWORD PTR [esi+8], eax
  00086	8b 43 1c	 mov	 eax, DWORD PTR [ebx+28]
  00089	89 41 1c	 mov	 DWORD PTR [ecx+28], eax
  0008c	8b 43 20	 mov	 eax, DWORD PTR [ebx+32]
  0008f	89 41 20	 mov	 DWORD PTR [ecx+32], eax
  00092	8b 43 24	 mov	 eax, DWORD PTR [ebx+36]
  00095	89 41 24	 mov	 DWORD PTR [ecx+36], eax
  00098	8b 43 28	 mov	 eax, DWORD PTR [ebx+40]
  0009b	89 41 28	 mov	 DWORD PTR [ecx+40], eax
  0009e	8b 43 2c	 mov	 eax, DWORD PTR [ebx+44]
  000a1	89 41 2c	 mov	 DWORD PTR [ecx+44], eax
  000a4	8b 43 30	 mov	 eax, DWORD PTR [ebx+48]
  000a7	89 41 30	 mov	 DWORD PTR [ecx+48], eax
  000aa	8b 43 34	 mov	 eax, DWORD PTR [ebx+52]
  000ad	89 41 34	 mov	 DWORD PTR [ecx+52], eax
  000b0	8b 43 38	 mov	 eax, DWORD PTR [ebx+56]
  000b3	89 41 38	 mov	 DWORD PTR [ecx+56], eax
  000b6	8b 43 3c	 mov	 eax, DWORD PTR [ebx+60]
  000b9	89 41 3c	 mov	 DWORD PTR [ecx+60], eax
  000bc	8b 43 40	 mov	 eax, DWORD PTR [ebx+64]
  000bf	89 41 40	 mov	 DWORD PTR [ecx+64], eax
  000c2	8b 43 44	 mov	 eax, DWORD PTR [ebx+68]
  000c5	89 41 44	 mov	 DWORD PTR [ecx+68], eax
  000c8	8b 43 48	 mov	 eax, DWORD PTR [ebx+72]
  000cb	89 41 48	 mov	 DWORD PTR [ecx+72], eax
  000ce	0f b7 43 4c	 movzx	 eax, WORD PTR [ebx+76]
  000d2	66 89 41 4c	 mov	 WORD PTR [ecx+76], ax
  000d6	0f b7 43 4e	 movzx	 eax, WORD PTR [ebx+78]
  000da	66 89 41 4e	 mov	 WORD PTR [ecx+78], ax
  000de	0f b7 43 50	 movzx	 eax, WORD PTR [ebx+80]
  000e2	66 89 41 50	 mov	 WORD PTR [ecx+80], ax
  000e6	0f b7 43 52	 movzx	 eax, WORD PTR [ebx+82]
  000ea	66 89 41 52	 mov	 WORD PTR [ecx+82], ax
  000ee	8b 43 54	 mov	 eax, DWORD PTR [ebx+84]
  000f1	89 41 54	 mov	 DWORD PTR [ecx+84], eax
  000f4	8b 43 58	 mov	 eax, DWORD PTR [ebx+88]
  000f7	89 41 58	 mov	 DWORD PTR [ecx+88], eax
  000fa	8b 43 5c	 mov	 eax, DWORD PTR [ebx+92]
  000fd	89 41 5c	 mov	 DWORD PTR [ecx+92], eax
  00100	8b 43 60	 mov	 eax, DWORD PTR [ebx+96]
  00103	89 41 60	 mov	 DWORD PTR [ecx+96], eax
  00106	8b c1		 mov	 eax, ecx
  00108	8b 4d f4	 mov	 ecx, DWORD PTR __$EHRec$[ebp]
  0010b	64 89 0d 00 00
	00 00		 mov	 DWORD PTR fs:0, ecx
  00112	59		 pop	 ecx
  00113	5f		 pop	 edi
  00114	5e		 pop	 esi
  00115	5b		 pop	 ebx
  00116	8b e5		 mov	 esp, ebp
  00118	5d		 pop	 ebp
  00119	c2 04 00	 ret	 4
_TEXT	ENDS
;	COMDAT text$x
text$x	SEGMENT
__unwindfunclet$??0CHorizontalScale@@QAE@ABV0@@Z$0:
  00000	8b 4d f0	 mov	 ecx, DWORD PTR _this$[ebp]
  00003	e9 00 00 00 00	 jmp	 ??1CScale@@QAE@XZ
__unwindfunclet$??0CHorizontalScale@@QAE@ABV0@@Z$3:
  00008	8b 4d 08	 mov	 ecx, DWORD PTR _this$[ebp]
  0000b	ff 25 00 00 00
	00		 jmp	 DWORD PTR __imp_??1?$CStringT@DV?$StrTraitMFC_DLL@DV?$ChTraitsCRT@D@ATL@@@@@ATL@@QAE@XZ
  00011	cc		 int	 3
  00012	cc		 int	 3
  00013	cc		 int	 3
  00014	cc		 int	 3
  00015	cc		 int	 3
__ehhandler$??0CHorizontalScale@@QAE@ABV0@@Z:
  00016	90		 npad	 1
  00017	90		 npad	 1
  00018	8b 54 24 08	 mov	 edx, DWORD PTR [esp+8]
  0001c	8d 42 0c	 lea	 eax, DWORD PTR [edx+12]
  0001f	8b 4a ec	 mov	 ecx, DWORD PTR [edx-20]
  00022	33 c8		 xor	 ecx, eax
  00024	e8 00 00 00 00	 call	 @__security_check_cookie@4
  00029	b8 00 00 00 00	 mov	 eax, OFFSET __ehfuncinfo$??0CHorizontalScale@@QAE@ABV0@@Z
  0002e	e9 00 00 00 00	 jmp	 ___CxxFrameHandler3
text$x	ENDS
??0CHorizontalScale@@QAE@ABV0@@Z ENDP			; CHorizontalScale::CHorizontalScale
; Function compile flags: /Ogtp
;	COMDAT ??1CHorizontalScale@@QAE@XZ
_TEXT	SEGMENT
??1CHorizontalScale@@QAE@XZ PROC			; CHorizontalScale::~CHorizontalScale, COMDAT
; _this$ = ecx
  00000	56		 push	 esi
  00001	57		 push	 edi
  00002	8b f9		 mov	 edi, ecx
  00004	8d 4f 14	 lea	 ecx, DWORD PTR [edi+20]
  00007	ff 15 00 00 00
	00		 call	 DWORD PTR __imp_??1?$CStringT@DV?$StrTraitMFC_DLL@DV?$ChTraitsCRT@D@ATL@@@@@ATL@@QAE@XZ
  0000d	8d 4f 10	 lea	 ecx, DWORD PTR [edi+16]
  00010	ff 15 00 00 00
	00		 call	 DWORD PTR __imp_??1?$CStringT@DV?$StrTraitMFC_DLL@DV?$ChTraitsCRT@D@ATL@@@@@ATL@@QAE@XZ
  00016	8d 4f 04	 lea	 ecx, DWORD PTR [edi+4]
  00019	5f		 pop	 edi
  0001a	5e		 pop	 esi
  0001b	ff 25 00 00 00
	00		 jmp	 DWORD PTR __imp_??1?$CStringT@DV?$StrTraitMFC_DLL@DV?$ChTraitsCRT@D@ATL@@@@@ATL@@QAE@XZ
??1CHorizontalScale@@QAE@XZ ENDP			; CHorizontalScale::~CHorizontalScale
_TEXT	ENDS
; Function compile flags: /Ogtp
;	COMDAT ??0CScale@@QAE@ABV0@@Z
_TEXT	SEGMENT
_this$ = -4						; size = 4
___that$ = 8						; size = 4
??0CScale@@QAE@ABV0@@Z PROC				; CScale::CScale, COMDAT
; _this$ = ecx
  00000	55		 push	 ebp
  00001	8b ec		 mov	 ebp, esp
  00003	51		 push	 ecx
  00004	56		 push	 esi
  00005	8b 75 08	 mov	 esi, DWORD PTR ___that$[ebp]
  00008	57		 push	 edi
  00009	8b f9		 mov	 edi, ecx
  0000b	89 7d fc	 mov	 DWORD PTR _this$[ebp], edi
  0000e	8d 46 04	 lea	 eax, DWORD PTR [esi+4]
  00011	50		 push	 eax
  00012	8d 4f 04	 lea	 ecx, DWORD PTR [edi+4]
  00015	c7 07 00 00 00
	00		 mov	 DWORD PTR [edi], OFFSET ??_7CScale@@6B@
  0001b	ff 15 00 00 00
	00		 call	 DWORD PTR __imp_??0?$CStringT@DV?$StrTraitMFC_DLL@DV?$ChTraitsCRT@D@ATL@@@@@ATL@@QAE@ABV01@@Z
  00021	8b 46 08	 mov	 eax, DWORD PTR [esi+8]
  00024	89 47 08	 mov	 DWORD PTR [edi+8], eax
  00027	8b c7		 mov	 eax, edi
  00029	5f		 pop	 edi
  0002a	5e		 pop	 esi
  0002b	8b e5		 mov	 esp, ebp
  0002d	5d		 pop	 ebp
  0002e	c2 04 00	 ret	 4
??0CScale@@QAE@ABV0@@Z ENDP				; CScale::CScale
_TEXT	ENDS
; Function compile flags: /Ogtp
;	COMDAT ??1CScale@@QAE@XZ
_TEXT	SEGMENT
??1CScale@@QAE@XZ PROC					; CScale::~CScale, COMDAT
; _this$ = ecx
  00000	83 c1 04	 add	 ecx, 4
  00003	ff 25 00 00 00
	00		 jmp	 DWORD PTR __imp_??1?$CStringT@DV?$StrTraitMFC_DLL@DV?$ChTraitsCRT@D@ATL@@@@@ATL@@QAE@XZ
??1CScale@@QAE@XZ ENDP					; CScale::~CScale
_TEXT	ENDS
; Function compile flags: /Ogtp
;	COMDAT ??0CScaleCompart@@QAE@ABV0@@Z
_TEXT	SEGMENT
_this$ = -16						; size = 4
__$EHRec$ = -12						; size = 12
___that$ = 8						; size = 4
??0CScaleCompart@@QAE@ABV0@@Z PROC			; CScaleCompart::CScaleCompart, COMDAT
; _this$ = ecx
  00000	55		 push	 ebp
  00001	8b ec		 mov	 ebp, esp
  00003	6a ff		 push	 -1
  00005	68 00 00 00 00	 push	 __ehhandler$??0CScaleCompart@@QAE@ABV0@@Z
  0000a	64 a1 00 00 00
	00		 mov	 eax, DWORD PTR fs:0
  00010	50		 push	 eax
  00011	51		 push	 ecx
  00012	56		 push	 esi
  00013	57		 push	 edi
  00014	a1 00 00 00 00	 mov	 eax, DWORD PTR ___security_cookie
  00019	33 c5		 xor	 eax, ebp
  0001b	50		 push	 eax
  0001c	8d 45 f4	 lea	 eax, DWORD PTR __$EHRec$[ebp]
  0001f	64 a3 00 00 00
	00		 mov	 DWORD PTR fs:0, eax
  00025	8b f9		 mov	 edi, ecx
  00027	89 7d f0	 mov	 DWORD PTR _this$[ebp], edi
  0002a	8b 75 08	 mov	 esi, DWORD PTR ___that$[ebp]
  0002d	56		 push	 esi
  0002e	ff 15 00 00 00
	00		 call	 DWORD PTR __imp_??0?$CStringT@DV?$StrTraitMFC_DLL@DV?$ChTraitsCRT@D@ATL@@@@@ATL@@QAE@ABV01@@Z
  00034	8d 46 04	 lea	 eax, DWORD PTR [esi+4]
  00037	c7 45 fc 00 00
	00 00		 mov	 DWORD PTR __$EHRec$[ebp+8], 0
  0003e	50		 push	 eax
  0003f	8d 4f 04	 lea	 ecx, DWORD PTR [edi+4]
  00042	ff 15 00 00 00
	00		 call	 DWORD PTR __imp_??0?$CStringT@DV?$StrTraitMFC_DLL@DV?$ChTraitsCRT@D@ATL@@@@@ATL@@QAE@ABV01@@Z
  00048	8b 46 08	 mov	 eax, DWORD PTR [esi+8]
  0004b	89 47 08	 mov	 DWORD PTR [edi+8], eax
  0004e	8b c7		 mov	 eax, edi
  00050	8b 4d f4	 mov	 ecx, DWORD PTR __$EHRec$[ebp]
  00053	64 89 0d 00 00
	00 00		 mov	 DWORD PTR fs:0, ecx
  0005a	59		 pop	 ecx
  0005b	5f		 pop	 edi
  0005c	5e		 pop	 esi
  0005d	8b e5		 mov	 esp, ebp
  0005f	5d		 pop	 ebp
  00060	c2 04 00	 ret	 4
_TEXT	ENDS
;	COMDAT text$x
text$x	SEGMENT
__unwindfunclet$??0CScaleCompart@@QAE@ABV0@@Z$0:
  00000	8b 4d f0	 mov	 ecx, DWORD PTR _this$[ebp]
  00003	ff 25 00 00 00
	00		 jmp	 DWORD PTR __imp_??1?$CStringT@DV?$StrTraitMFC_DLL@DV?$ChTraitsCRT@D@ATL@@@@@ATL@@QAE@XZ
  00009	cc		 int	 3
  0000a	cc		 int	 3
  0000b	cc		 int	 3
  0000c	cc		 int	 3
  0000d	cc		 int	 3
__ehhandler$??0CScaleCompart@@QAE@ABV0@@Z:
  0000e	90		 npad	 1
  0000f	90		 npad	 1
  00010	8b 54 24 08	 mov	 edx, DWORD PTR [esp+8]
  00014	8d 42 0c	 lea	 eax, DWORD PTR [edx+12]
  00017	8b 4a f0	 mov	 ecx, DWORD PTR [edx-16]
  0001a	33 c8		 xor	 ecx, eax
  0001c	e8 00 00 00 00	 call	 @__security_check_cookie@4
  00021	b8 00 00 00 00	 mov	 eax, OFFSET __ehfuncinfo$??0CScaleCompart@@QAE@ABV0@@Z
  00026	e9 00 00 00 00	 jmp	 ___CxxFrameHandler3
text$x	ENDS
??0CScaleCompart@@QAE@ABV0@@Z ENDP			; CScaleCompart::CScaleCompart
; Function compile flags: /Ogtp
;	COMDAT ??1CScaleCompart@@QAE@XZ
_TEXT	SEGMENT
??1CScaleCompart@@QAE@XZ PROC				; CScaleCompart::~CScaleCompart, COMDAT
; _this$ = ecx
  00000	56		 push	 esi
  00001	8b f1		 mov	 esi, ecx
  00003	8d 4e 04	 lea	 ecx, DWORD PTR [esi+4]
  00006	ff 15 00 00 00
	00		 call	 DWORD PTR __imp_??1?$CStringT@DV?$StrTraitMFC_DLL@DV?$ChTraitsCRT@D@ATL@@@@@ATL@@QAE@XZ
  0000c	8b ce		 mov	 ecx, esi
  0000e	5e		 pop	 esi
  0000f	ff 25 00 00 00
	00		 jmp	 DWORD PTR __imp_??1?$CStringT@DV?$StrTraitMFC_DLL@DV?$ChTraitsCRT@D@ATL@@@@@ATL@@QAE@XZ
??1CScaleCompart@@QAE@XZ ENDP				; CScaleCompart::~CScaleCompart
_TEXT	ENDS
; Function compile flags: /Ogtp
; File D:\git\src\IBK\IBK_DRFN\ProjSrc\SrcChartEx\ChartOCX\ScaleDraw\DataHorzScaleDrawer.cpp
;	COMDAT ?IsTopPostiont@CMarketProfileHorzScaleDrawer@@ABE_NW4HORZSCALEPOSITION@CScaleBaseData@@_N@Z
_TEXT	SEGMENT
_eHorzScalePos$ = 8					; size = 4
_bIsScaleRegion1$ = 12					; size = 1
?IsTopPostiont@CMarketProfileHorzScaleDrawer@@ABE_NW4HORZSCALEPOSITION@CScaleBaseData@@_N@Z PROC ; CMarketProfileHorzScaleDrawer::IsTopPostiont, COMDAT
; _this$ = ecx

; 563  : {

  00000	55		 push	 ebp
  00001	8b ec		 mov	 ebp, esp

; 564  : 	if(eHorzScalePos == CScaleBaseData::HORZ_BOTTOM){

  00003	83 7d 08 01	 cmp	 DWORD PTR _eHorzScalePos$[ebp], 1
  00007	8a 45 0c	 mov	 al, BYTE PTR _bIsScaleRegion1$[ebp]
  0000a	75 02		 jne	 SHORT $LN1@IsTopPosti

; 565  : 		return !bIsScaleRegion1;

  0000c	34 01		 xor	 al, 1
$LN1@IsTopPosti:

; 566  : 	}
; 567  : 
; 568  : 	return bIsScaleRegion1;
; 569  : }

  0000e	5d		 pop	 ebp
  0000f	c2 08 00	 ret	 8
?IsTopPostiont@CMarketProfileHorzScaleDrawer@@ABE_NW4HORZSCALEPOSITION@CScaleBaseData@@_N@Z ENDP ; CMarketProfileHorzScaleDrawer::IsTopPostiont
_TEXT	ENDS
; Function compile flags: /Ogtp
; File D:\git\src\IBK\IBK_DRFN\ProjSrc\SrcChartEx\ChartOCX\ScaleDraw\DataHorzScaleDrawer.cpp
;	COMDAT ?IsDrawText@CMarketProfileHorzScaleDrawer@@ABE_NW4HORZSCALEPOSITION@CScaleBaseData@@HH@Z
_TEXT	SEGMENT
_eHorzScalePos$ = 8					; size = 4
_nPre_textEndPos$ = 12					; size = 4
_nPosPt_x$ = 16						; size = 4
?IsDrawText@CMarketProfileHorzScaleDrawer@@ABE_NW4HORZSCALEPOSITION@CScaleBaseData@@HH@Z PROC ; CMarketProfileHorzScaleDrawer::IsDrawText, COMDAT
; _this$ = ecx

; 555  : {

  00000	55		 push	 ebp
  00001	8b ec		 mov	 ebp, esp

; 556  : 	if(eHorzScalePos == CScaleBaseData::HORZ_HIDE)

  00003	83 7d 08 03	 cmp	 DWORD PTR _eHorzScalePos$[ebp], 3
  00007	75 06		 jne	 SHORT $LN2@IsDrawText

; 557  : 		return false;

  00009	32 c0		 xor	 al, al

; 560  : }

  0000b	5d		 pop	 ebp
  0000c	c2 0c 00	 ret	 12			; 0000000cH
$LN2@IsDrawText:

; 558  : 
; 559  : 	return (nPre_textEndPos < nPosPt_x);

  0000f	8b 45 0c	 mov	 eax, DWORD PTR _nPre_textEndPos$[ebp]
  00012	3b 45 10	 cmp	 eax, DWORD PTR _nPosPt_x$[ebp]
  00015	0f 9c c0	 setl	 al

; 560  : }

  00018	5d		 pop	 ebp
  00019	c2 0c 00	 ret	 12			; 0000000cH
?IsDrawText@CMarketProfileHorzScaleDrawer@@ABE_NW4HORZSCALEPOSITION@CScaleBaseData@@HH@Z ENDP ; CMarketProfileHorzScaleDrawer::IsDrawText
_TEXT	ENDS
; Function compile flags: /Ogtp
; File D:\git\src\IBK\IBK_DRFN\ProjSrc\SrcChartEx\ChartOCX\ScaleDraw\DataHorzScaleDrawer.cpp
; File D:\git\src\IBK\IBK_DRFN\ProjSrc\SrcChartEx\ChartOCX\Include_Chart\Dll_Load\PacketBase.h
; File D:\git\src\IBK\IBK_DRFN\ProjSrc\SrcChartEx\ChartOCX\ScaleDraw\DataHorzScaleDrawer.cpp
;	COMDAT ?GetEnvironmentData@CMarketProfileHorzScaleDrawer@@ABE_NPAVCMPPacket@@ABVCRect@@1HAAPAV?$CList@PAVCMProfile@@PAV1@@@AANAAH4@Z
_TEXT	SEGMENT
$T1 = -8						; size = 8
_pMPPacket$ = 8						; size = 4
_scaleRegion1$ = 12					; size = 4
_scaleRegion2$ = 16					; size = 4
_nSize_Y$ = 20						; size = 4
_pMProfileList$ = 24					; size = 4
_dOnePtWidth$ = 28					; size = 4
_nPosPt_y1$ = 32					; size = 4
_nPosPt_y2$ = 36					; size = 4
?GetEnvironmentData@CMarketProfileHorzScaleDrawer@@ABE_NPAVCMPPacket@@ABVCRect@@1HAAPAV?$CList@PAVCMProfile@@PAV1@@@AANAAH4@Z PROC ; CMarketProfileHorzScaleDrawer::GetEnvironmentData, COMDAT
; _this$ = ecx

; 539  : {

  00000	55		 push	 ebp
  00001	8b ec		 mov	 ebp, esp

; 540  : 	if(pMPPacket == NULL)

  00003	8b 55 08	 mov	 edx, DWORD PTR _pMPPacket$[ebp]
  00006	83 ec 08	 sub	 esp, 8
  00009	57		 push	 edi
  0000a	8b f9		 mov	 edi, ecx
  0000c	85 d2		 test	 edx, edx
  0000e	74 50		 je	 SHORT $LN4@GetEnviron

; 543  : 	pMProfileList = pMPPacket->GetMarketProfileList();

  00010	8b 45 18	 mov	 eax, DWORD PTR _pMProfileList$[ebp]
; File D:\git\src\IBK\IBK_DRFN\ProjSrc\SrcChartEx\ChartOCX\Include_Chart\Dll_Load\PacketBase.h

; 349  : 	CList< CMProfile*, CMProfile*>* GetMarketProfileList() { return &m_listMarketProfile; }

  00013	83 c2 08	 add	 edx, 8
; File D:\git\src\IBK\IBK_DRFN\ProjSrc\SrcChartEx\ChartOCX\ScaleDraw\DataHorzScaleDrawer.cpp

; 543  : 	pMProfileList = pMPPacket->GetMarketProfileList();

  00016	89 10		 mov	 DWORD PTR [eax], edx

; 544  : 	if(pMProfileList == NULL || pMProfileList->GetCount() <= 0)

  00018	74 46		 je	 SHORT $LN4@GetEnviron
  0001a	8b 42 0c	 mov	 eax, DWORD PTR [edx+12]
  0001d	85 c0		 test	 eax, eax
  0001f	7e 3f		 jle	 SHORT $LN4@GetEnviron

; 546  : 
; 547  : 	CHorzScaleDrawer::GetDrawingEnvironment(scaleRegion1, scaleRegion2, 

  00021	56		 push	 esi
  00022	ff 75 24	 push	 DWORD PTR _nPosPt_y2$[ebp]
  00025	8b 75 1c	 mov	 esi, DWORD PTR _dOnePtWidth$[ebp]
  00028	8d 4d f8	 lea	 ecx, DWORD PTR $T1[ebp]
  0002b	ff 75 20	 push	 DWORD PTR _nPosPt_y1$[ebp]
  0002e	48		 dec	 eax
  0002f	56		 push	 esi
  00030	ff 75 14	 push	 DWORD PTR _nSize_Y$[ebp]
  00033	50		 push	 eax
  00034	6a 00		 push	 0
  00036	e8 00 00 00 00	 call	 ??0CDisplayAttributes@@QAE@HH@Z ; CDisplayAttributes::CDisplayAttributes
  0003b	50		 push	 eax
  0003c	ff 75 10	 push	 DWORD PTR _scaleRegion2$[ebp]
  0003f	8b cf		 mov	 ecx, edi
  00041	ff 75 0c	 push	 DWORD PTR _scaleRegion1$[ebp]
  00044	e8 00 00 00 00	 call	 ?GetDrawingEnvironment@CHorzScaleDrawer@@IBEXABVCRect@@0ABVCDisplayAttributes@@HAANAAH3@Z ; CHorzScaleDrawer::GetDrawingEnvironment

; 548  : 		CDisplayAttributes(0, pMProfileList->GetCount() -1), 
; 549  : 		nSize_Y, dOnePtWidth, nPosPt_y1, nPosPt_y2);
; 550  : 
; 551  : 	return (dOnePtWidth > 0 ? true: false);

  00049	f2 0f 10 06	 movsd	 xmm0, QWORD PTR [esi]
  0004d	66 0f 2f 05 00
	00 00 00	 comisd	 xmm0, QWORD PTR __real@0000000000000000
  00055	5e		 pop	 esi
  00056	5f		 pop	 edi
  00057	0f 97 c0	 seta	 al

; 552  : }

  0005a	8b e5		 mov	 esp, ebp
  0005c	5d		 pop	 ebp
  0005d	c2 20 00	 ret	 32			; 00000020H
$LN4@GetEnviron:

; 545  : 		return false;

  00060	32 c0		 xor	 al, al
  00062	5f		 pop	 edi

; 552  : }

  00063	8b e5		 mov	 esp, ebp
  00065	5d		 pop	 ebp
  00066	c2 20 00	 ret	 32			; 00000020H
?GetEnvironmentData@CMarketProfileHorzScaleDrawer@@ABE_NPAVCMPPacket@@ABVCRect@@1HAAPAV?$CList@PAVCMProfile@@PAV1@@@AANAAH4@Z ENDP ; CMarketProfileHorzScaleDrawer::GetEnvironmentData
_TEXT	ENDS
; Function compile flags: /Ogtp
; File D:\git\src\IBK\IBK_DRFN\ProjSrc\SrcChartEx\ChartOCX\ScaleDraw\DataHorzScaleDrawer.cpp
; File C:\Program Files (x86)\Microsoft Visual Studio\2019\Community\VC\Tools\MSVC\14.29.30133\atlmfc\include\atltypes.h
; File D:\git\src\IBK\IBK_DRFN\ProjSrc\SrcChartEx\ChartOCX\ScaleDraw\DataHorzScaleDrawer.cpp
; File C:\Program Files (x86)\Microsoft Visual Studio\2019\Community\VC\Tools\MSVC\14.29.30133\atlmfc\include\atltypes.h
; File D:\git\src\IBK\IBK_DRFN\ProjSrc\SrcChartEx\ChartOCX\ScaleDraw\DataHorzScaleDrawer.cpp
; File C:\Program Files (x86)\Microsoft Visual Studio\2019\Community\VC\Tools\MSVC\14.29.30133\atlmfc\include\afxwin1.inl
; File D:\git\src\IBK\IBK_DRFN\ProjSrc\SrcChartEx\ChartOCX\ScaleDraw\DataHorzScaleDrawer.cpp
; File C:\Program Files (x86)\Microsoft Visual Studio\2019\Community\VC\Tools\MSVC\14.29.30133\atlmfc\include\atltypes.h
; File C:\Program Files (x86)\Microsoft Visual Studio\2019\Community\VC\Tools\MSVC\14.29.30133\atlmfc\include\afxwin1.inl
; File C:\Program Files (x86)\Microsoft Visual Studio\2019\Community\VC\Tools\MSVC\14.29.30133\atlmfc\include\atltypes.h
; File C:\Program Files (x86)\Microsoft Visual Studio\2019\Community\VC\Tools\MSVC\14.29.30133\atlmfc\include\atlsimpstr.h
; File C:\Program Files (x86)\Microsoft Visual Studio\2019\Community\VC\Tools\MSVC\14.29.30133\atlmfc\include\afxwin1.inl
; File C:\Program Files (x86)\Microsoft Visual Studio\2019\Community\VC\Tools\MSVC\14.29.30133\atlmfc\include\atlsimpstr.h
; File C:\Program Files (x86)\Microsoft Visual Studio\2019\Community\VC\Tools\MSVC\14.29.30133\atlmfc\include\afxwin1.inl
; File C:\Program Files (x86)\Microsoft Visual Studio\2019\Community\VC\Tools\MSVC\14.29.30133\atlmfc\include\atltypes.h
; File D:\git\src\IBK\IBK_DRFN\ProjSrc\SrcChartEx\ChartOCX\ScaleDraw\DataHorzScaleDrawer.cpp
;	COMDAT ?DrawTextAndCompartLine@CMarketProfileHorzScaleDrawer@@AAEXPAVCDC@@ABVCRect@@ABVCPoint@@_NABV?$CStringT@DV?$StrTraitMFC_DLL@DV?$ChTraitsCRT@D@ATL@@@@@ATL@@KKAAH@Z
_TEXT	SEGMENT
_size$1 = -16						; size = 8
_textPosPt$ = -8					; size = 8
_pDC$ = 8						; size = 4
_scaleRegion$ = 12					; size = 4
_nowPos$ = 16						; size = 4
_bIsTopPos$ = 20					; size = 1
_data$ = 24						; size = 4
_textColor$ = 28					; size = 4
_gridColor$ = 32					; size = 4
_textEndPos$ = 36					; size = 4
?DrawTextAndCompartLine@CMarketProfileHorzScaleDrawer@@AAEXPAVCDC@@ABVCRect@@ABVCPoint@@_NABV?$CStringT@DV?$StrTraitMFC_DLL@DV?$ChTraitsCRT@D@ATL@@@@@ATL@@KKAAH@Z PROC ; CMarketProfileHorzScaleDrawer::DrawTextAndCompartLine, COMDAT
; _this$ = ecx

; 521  : {

  00000	55		 push	 ebp
  00001	8b ec		 mov	 ebp, esp
  00003	83 ec 10	 sub	 esp, 16			; 00000010H
  00006	53		 push	 ebx
  00007	57		 push	 edi
; File C:\Program Files (x86)\Microsoft Visual Studio\2019\Community\VC\Tools\MSVC\14.29.30133\atlmfc\include\atltypes.h

; 638  : 	return ::IsRectEmpty(this);

  00008	8b 7d 0c	 mov	 edi, DWORD PTR _scaleRegion$[ebp]
; File D:\git\src\IBK\IBK_DRFN\ProjSrc\SrcChartEx\ChartOCX\ScaleDraw\DataHorzScaleDrawer.cpp

; 521  : {

  0000b	8b d9		 mov	 ebx, ecx
; File C:\Program Files (x86)\Microsoft Visual Studio\2019\Community\VC\Tools\MSVC\14.29.30133\atlmfc\include\atltypes.h

; 638  : 	return ::IsRectEmpty(this);

  0000d	57		 push	 edi
  0000e	ff 15 00 00 00
	00		 call	 DWORD PTR __imp__IsRectEmpty@4
; File D:\git\src\IBK\IBK_DRFN\ProjSrc\SrcChartEx\ChartOCX\ScaleDraw\DataHorzScaleDrawer.cpp

; 522  : 	if(scaleRegion.IsRectEmpty())

  00014	85 c0		 test	 eax, eax
  00016	75 6c		 jne	 SHORT $LN1@DrawTextAn

; 523  : 		return;
; 524  : 
; 525  : 	// text 
; 526  : 	CHorzScaleDrawer::DrawTextCompartLine(pDC, scaleRegion, nowPos, bIsTopPos, gridColor);

  00018	56		 push	 esi
  00019	ff 75 20	 push	 DWORD PTR _gridColor$[ebp]
  0001c	8b 75 10	 mov	 esi, DWORD PTR _nowPos$[ebp]
  0001f	8b cb		 mov	 ecx, ebx
  00021	ff 75 14	 push	 DWORD PTR _bIsTopPos$[ebp]
  00024	56		 push	 esi
  00025	57		 push	 edi
  00026	ff 75 08	 push	 DWORD PTR _pDC$[ebp]
  00029	e8 00 00 00 00	 call	 ?DrawTextCompartLine@CHorzScaleDrawer@@IAEXPAVCDC@@ABVCRect@@ABVCPoint@@_NK@Z ; CHorzScaleDrawer::DrawTextCompartLine

; 529  : 	CPoint textPosPt(nowPos.x +MARGIN, nowPos.y);

  0002e	8b 06		 mov	 eax, DWORD PTR [esi]
; File C:\Program Files (x86)\Microsoft Visual Studio\2019\Community\VC\Tools\MSVC\14.29.30133\atlmfc\include\afxwin1.inl

; 639  : 		VERIFY(::GetTextExtentPoint32(m_hAttribDC, str, (int)str.GetLength(), &size));

  00030	8d 4d f0	 lea	 ecx, DWORD PTR _size$1[ebp]
; File D:\git\src\IBK\IBK_DRFN\ProjSrc\SrcChartEx\ChartOCX\ScaleDraw\DataHorzScaleDrawer.cpp

; 529  : 	CPoint textPosPt(nowPos.x +MARGIN, nowPos.y);

  00033	83 c0 04	 add	 eax, 4
; File C:\Program Files (x86)\Microsoft Visual Studio\2019\Community\VC\Tools\MSVC\14.29.30133\atlmfc\include\atltypes.h

; 408  : 	x = initX;

  00036	89 45 f8	 mov	 DWORD PTR _textPosPt$[ebp], eax

; 409  : 	y = initY;

  00039	8b 46 04	 mov	 eax, DWORD PTR [esi+4]
; File C:\Program Files (x86)\Microsoft Visual Studio\2019\Community\VC\Tools\MSVC\14.29.30133\atlmfc\include\afxwin1.inl

; 639  : 		VERIFY(::GetTextExtentPoint32(m_hAttribDC, str, (int)str.GetLength(), &size));

  0003c	8b 75 08	 mov	 esi, DWORD PTR _pDC$[ebp]
; File C:\Program Files (x86)\Microsoft Visual Studio\2019\Community\VC\Tools\MSVC\14.29.30133\atlmfc\include\atltypes.h

; 409  : 	y = initY;

  0003f	89 45 fc	 mov	 DWORD PTR _textPosPt$[ebp+4], eax
; File C:\Program Files (x86)\Microsoft Visual Studio\2019\Community\VC\Tools\MSVC\14.29.30133\atlmfc\include\atlsimpstr.h

; 519  : 		return( GetData()->nDataLength );

  00042	8b 45 18	 mov	 eax, DWORD PTR _data$[ebp]
; File C:\Program Files (x86)\Microsoft Visual Studio\2019\Community\VC\Tools\MSVC\14.29.30133\atlmfc\include\afxwin1.inl

; 639  : 		VERIFY(::GetTextExtentPoint32(m_hAttribDC, str, (int)str.GetLength(), &size));

  00045	51		 push	 ecx
; File C:\Program Files (x86)\Microsoft Visual Studio\2019\Community\VC\Tools\MSVC\14.29.30133\atlmfc\include\atlsimpstr.h

; 519  : 		return( GetData()->nDataLength );

  00046	8b 00		 mov	 eax, DWORD PTR [eax]
; File C:\Program Files (x86)\Microsoft Visual Studio\2019\Community\VC\Tools\MSVC\14.29.30133\atlmfc\include\afxwin1.inl

; 639  : 		VERIFY(::GetTextExtentPoint32(m_hAttribDC, str, (int)str.GetLength(), &size));

  00048	ff 70 f4	 push	 DWORD PTR [eax-12]
  0004b	50		 push	 eax
  0004c	ff 76 08	 push	 DWORD PTR [esi+8]
  0004f	ff 15 00 00 00
	00		 call	 DWORD PTR __imp__GetTextExtentPoint32A@16
; File C:\Program Files (x86)\Microsoft Visual Studio\2019\Community\VC\Tools\MSVC\14.29.30133\atlmfc\include\atltypes.h

; 581  : 	return bottom - top;

  00055	8b 47 0c	 mov	 eax, DWORD PTR [edi+12]
  00058	2b 47 04	 sub	 eax, DWORD PTR [edi+4]
; File D:\git\src\IBK\IBK_DRFN\ProjSrc\SrcChartEx\ChartOCX\ScaleDraw\DataHorzScaleDrawer.cpp

; 532  : 	if(scaleRegion.Height() > textSize.cy)

  0005b	3b 45 f4	 cmp	 eax, DWORD PTR _size$1[ebp+4]
  0005e	7e 13		 jle	 SHORT $LN3@DrawTextAn

; 533  : 		CDrawer::DrawTextOut(pDC, textPosPt, data, textColor);

  00060	ff 75 1c	 push	 DWORD PTR _textColor$[ebp]
  00063	8d 45 f8	 lea	 eax, DWORD PTR _textPosPt$[ebp]
  00066	ff 75 18	 push	 DWORD PTR _data$[ebp]
  00069	8d 4b 04	 lea	 ecx, DWORD PTR [ebx+4]
  0006c	50		 push	 eax
  0006d	56		 push	 esi
  0006e	e8 00 00 00 00	 call	 ?DrawTextOut@CDrawer@@IAEXPAVCDC@@ABVCPoint@@ABV?$CStringT@DV?$StrTraitMFC_DLL@DV?$ChTraitsCRT@D@ATL@@@@@ATL@@K@Z ; CDrawer::DrawTextOut
$LN3@DrawTextAn:

; 534  : 	textEndPos = textPosPt.x + textSize.cx + MARGIN;

  00073	8b 45 f0	 mov	 eax, DWORD PTR _size$1[ebp]
  00076	8b 4d f8	 mov	 ecx, DWORD PTR _textPosPt$[ebp]
  00079	83 c0 04	 add	 eax, 4
  0007c	03 c8		 add	 ecx, eax
  0007e	8b 45 24	 mov	 eax, DWORD PTR _textEndPos$[ebp]
  00081	5e		 pop	 esi
  00082	89 08		 mov	 DWORD PTR [eax], ecx
$LN1@DrawTextAn:

; 535  : }

  00084	5f		 pop	 edi
  00085	5b		 pop	 ebx
  00086	8b e5		 mov	 esp, ebp
  00088	5d		 pop	 ebp
  00089	c2 20 00	 ret	 32			; 00000020H
?DrawTextAndCompartLine@CMarketProfileHorzScaleDrawer@@AAEXPAVCDC@@ABVCRect@@ABVCPoint@@_NABV?$CStringT@DV?$StrTraitMFC_DLL@DV?$ChTraitsCRT@D@ATL@@@@@ATL@@KKAAH@Z ENDP ; CMarketProfileHorzScaleDrawer::DrawTextAndCompartLine
_TEXT	ENDS
; Function compile flags: /Ogtp
; File D:\git\src\IBK\IBK_DRFN\ProjSrc\SrcChartEx\ChartOCX\ScaleDraw\DataHorzScaleDrawer.cpp
; File C:\Program Files (x86)\Microsoft Visual Studio\2019\Community\VC\Tools\MSVC\14.29.30133\atlmfc\include\atltypes.h
; File D:\git\src\IBK\IBK_DRFN\ProjSrc\SrcChartEx\ChartOCX\ScaleDraw\DataHorzScaleDrawer.cpp
; File C:\Program Files (x86)\Microsoft Visual Studio\2019\Community\VC\Tools\MSVC\14.29.30133\atlmfc\include\atlsimpstr.h
; File C:\Program Files (x86)\Microsoft Visual Studio\2019\Community\VC\Tools\MSVC\14.29.30133\atlmfc\include\afxwin1.inl
; File D:\git\src\IBK\IBK_DRFN\ProjSrc\SrcChartEx\ChartOCX\ScaleDraw\DataHorzScaleDrawer.cpp
; File C:\Program Files (x86)\Microsoft Visual Studio\2019\Community\VC\Tools\MSVC\14.29.30133\atlmfc\include\afxwin1.inl
; File D:\git\src\IBK\IBK_DRFN\ProjSrc\SrcChartEx\ChartOCX\ScaleDraw\DataHorzScaleDrawer.cpp
; File D:\git\src\IBK\IBK_DRFN\ProjSrc\SrcChartEx\ChartOCX\Include_Chart\Dll_Load\PacketBase.h
; File D:\git\src\IBK\IBK_DRFN\ProjSrc\SrcChartEx\ChartOCX\ScaleDraw\DataHorzScaleDrawer.cpp
; File C:\Program Files (x86)\Microsoft Visual Studio\2019\Community\VC\Tools\MSVC\14.29.30133\atlmfc\include\afxtempl.h
; File D:\git\src\IBK\IBK_DRFN\ProjSrc\SrcChartEx\ChartOCX\ScaleDraw\DataHorzScaleDrawer.cpp
; File D:\git\src\IBK\IBK_DRFN\ProjSrc\SrcChartEx\ChartOCX\Include_Chart\Dll_Load\PacketBase.h
; File D:\git\src\IBK\IBK_DRFN\ProjSrc\SrcChartEx\ChartOCX\ScaleDraw\DataHorzScaleDrawer.cpp
; File D:\git\src\IBK\IBK_DRFN\ProjSrc\SrcChartEx\ChartOCX\Include_Chart\Dll_Load\PacketBase.h
; File D:\git\src\IBK\IBK_DRFN\ProjSrc\SrcChartEx\ChartOCX\ScaleDraw\DataHorzScaleDrawer.cpp
; File C:\Program Files (x86)\Microsoft Visual Studio\2019\Community\VC\Tools\MSVC\14.29.30133\atlmfc\include\atltypes.h
; File D:\git\src\IBK\IBK_DRFN\ProjSrc\SrcChartEx\ChartOCX\ScaleDraw\DataHorzScaleDrawer.cpp
; File C:\Program Files (x86)\Microsoft Visual Studio\2019\Community\VC\Tools\MSVC\14.29.30133\atlmfc\include\atltypes.h
; File D:\git\src\IBK\IBK_DRFN\ProjSrc\SrcChartEx\ChartOCX\ScaleDraw\DataHorzScaleDrawer.cpp
; File C:\Program Files (x86)\Microsoft Visual Studio\2019\Community\VC\Tools\MSVC\14.29.30133\atlmfc\include\atltypes.h
; File D:\git\src\IBK\IBK_DRFN\ProjSrc\SrcChartEx\ChartOCX\ScaleDraw\DataHorzScaleDrawer.cpp
; File C:\Program Files (x86)\Microsoft Visual Studio\2019\Community\VC\Tools\MSVC\14.29.30133\atlmfc\include\atltypes.h
; File D:\git\src\IBK\IBK_DRFN\ProjSrc\SrcChartEx\ChartOCX\ScaleDraw\DataHorzScaleDrawer.cpp
;	COMDAT ?DrawScale@CMarketProfileHorzScaleDrawer@@AAEXPAVCDC@@ABVCDrawingHorzScaleData@@ABVCRect@@2ABVCHorizontalScale@@@Z
_TEXT	SEGMENT
$T2 = -96						; size = 12
$T3 = -84						; size = 12
_size$4 = -72						; size = 8
$T5 = -72						; size = 8
$T6 = -64						; size = 8
$T7 = -64						; size = 8
_dOnePtWidth$ = -56					; size = 8
$T8 = -48						; size = 1
$T9 = -44						; size = 1
_nPosPt_y2$ = -40					; size = 4
_nPosPt_y1$ = -36					; size = 4
_pMProfile$1$ = -32					; size = 4
_pMProfileList$1$ = -32					; size = 4
_nPosPt_x$1$ = -28					; size = 4
$T10 = -28						; size = 4
_nSize_Y$1$ = -24					; size = 4
_nPre_textEndPos$ = -24					; size = 4
_this$1$ = -20						; size = 4
_strDate$11 = -16					; size = 4
__$EHRec$ = -12						; size = 12
_pDC$ = 8						; size = 4
_drawingHorzScaleData$ = 12				; size = 4
_scaleRegion1$ = 16					; size = 4
_scaleRegion2$ = 20					; size = 4
_horzScale$ = 24					; size = 4
?DrawScale@CMarketProfileHorzScaleDrawer@@AAEXPAVCDC@@ABVCDrawingHorzScaleData@@ABVCRect@@2ABVCHorizontalScale@@@Z PROC ; CMarketProfileHorzScaleDrawer::DrawScale, COMDAT
; _this$ = ecx

; 473  : {

  00000	55		 push	 ebp
  00001	8b ec		 mov	 ebp, esp
  00003	6a ff		 push	 -1
  00005	68 00 00 00 00	 push	 __ehhandler$?DrawScale@CMarketProfileHorzScaleDrawer@@AAEXPAVCDC@@ABVCDrawingHorzScaleData@@ABVCRect@@2ABVCHorizontalScale@@@Z
  0000a	64 a1 00 00 00
	00		 mov	 eax, DWORD PTR fs:0
  00010	50		 push	 eax
  00011	83 ec 54	 sub	 esp, 84			; 00000054H
  00014	53		 push	 ebx
  00015	56		 push	 esi
  00016	57		 push	 edi
  00017	a1 00 00 00 00	 mov	 eax, DWORD PTR ___security_cookie
  0001c	33 c5		 xor	 eax, ebp
  0001e	50		 push	 eax
  0001f	8d 45 f4	 lea	 eax, DWORD PTR __$EHRec$[ebp]
  00022	64 a3 00 00 00
	00		 mov	 DWORD PTR fs:0, eax
  00028	8b f1		 mov	 esi, ecx
  0002a	89 75 ec	 mov	 DWORD PTR _this$1$[ebp], esi

; 474  : 	if(drawingHorzScaleData.GetPacket() == NULL || scaleRegion1.IsRectEmpty())

  0002d	8b 5d 0c	 mov	 ebx, DWORD PTR _drawingHorzScaleData$[ebp]
  00030	8b cb		 mov	 ecx, ebx
  00032	e8 00 00 00 00	 call	 ?GetPacket@CDrawingHorzScaleData@@QBEPAVCPacket@@XZ ; CDrawingHorzScaleData::GetPacket
  00037	85 c0		 test	 eax, eax
  00039	0f 84 5f 02 00
	00		 je	 $LN54@DrawScale
; File C:\Program Files (x86)\Microsoft Visual Studio\2019\Community\VC\Tools\MSVC\14.29.30133\atlmfc\include\atltypes.h

; 638  : 	return ::IsRectEmpty(this);

  0003f	8b 7d 10	 mov	 edi, DWORD PTR _scaleRegion1$[ebp]
  00042	57		 push	 edi
  00043	ff 15 00 00 00
	00		 call	 DWORD PTR __imp__IsRectEmpty@4
; File D:\git\src\IBK\IBK_DRFN\ProjSrc\SrcChartEx\ChartOCX\ScaleDraw\DataHorzScaleDrawer.cpp

; 474  : 	if(drawingHorzScaleData.GetPacket() == NULL || scaleRegion1.IsRectEmpty())

  00049	85 c0		 test	 eax, eax
  0004b	0f 85 4d 02 00
	00		 jne	 $LN54@DrawScale

; 475  : 		return;
; 476  : 
; 477  : 	CList<CMProfile*, CMProfile*>* pMProfileList = NULL;

  00051	0f 57 c0	 xorps	 xmm0, xmm0
  00054	89 45 e0	 mov	 DWORD PTR _pMProfileList$1$[ebp], eax

; 480  : 	if(!GetEnvironmentData((CMPPacket*) drawingHorzScaleData.GetPacket(), 

  00057	68 00 00 00 00	 push	 OFFSET ??_C@_01GBGANLPD@0@
  0005c	8d 4d e4	 lea	 ecx, DWORD PTR $T10[ebp]
  0005f	f2 0f 11 45 c8	 movsd	 QWORD PTR _dOnePtWidth$[ebp], xmm0
  00064	89 45 dc	 mov	 DWORD PTR _nPosPt_y1$[ebp], eax
  00067	89 45 d8	 mov	 DWORD PTR _nPosPt_y2$[ebp], eax
  0006a	ff 15 00 00 00
	00		 call	 DWORD PTR __imp_??0?$CStringT@DV?$StrTraitMFC_DLL@DV?$ChTraitsCRT@D@ATL@@@@@ATL@@QAE@PBD@Z
; File C:\Program Files (x86)\Microsoft Visual Studio\2019\Community\VC\Tools\MSVC\14.29.30133\atlmfc\include\atlsimpstr.h

; 519  : 		return( GetData()->nDataLength );

  00070	8b 45 e4	 mov	 eax, DWORD PTR $T10[ebp]
; File C:\Program Files (x86)\Microsoft Visual Studio\2019\Community\VC\Tools\MSVC\14.29.30133\atlmfc\include\afxwin1.inl

; 639  : 		VERIFY(::GetTextExtentPoint32(m_hAttribDC, str, (int)str.GetLength(), &size));

  00073	8d 4d b8	 lea	 ecx, DWORD PTR _size$4[ebp]
  00076	51		 push	 ecx
; File D:\git\src\IBK\IBK_DRFN\ProjSrc\SrcChartEx\ChartOCX\ScaleDraw\DataHorzScaleDrawer.cpp

; 480  : 	if(!GetEnvironmentData((CMPPacket*) drawingHorzScaleData.GetPacket(), 

  00077	c7 45 fc 00 00
	00 00		 mov	 DWORD PTR __$EHRec$[ebp+8], 0
; File C:\Program Files (x86)\Microsoft Visual Studio\2019\Community\VC\Tools\MSVC\14.29.30133\atlmfc\include\afxwin1.inl

; 639  : 		VERIFY(::GetTextExtentPoint32(m_hAttribDC, str, (int)str.GetLength(), &size));

  0007e	ff 70 f4	 push	 DWORD PTR [eax-12]
  00081	50		 push	 eax
  00082	8b 45 08	 mov	 eax, DWORD PTR _pDC$[ebp]
  00085	ff 70 08	 push	 DWORD PTR [eax+8]
  00088	ff 15 00 00 00
	00		 call	 DWORD PTR __imp__GetTextExtentPoint32A@16
; File D:\git\src\IBK\IBK_DRFN\ProjSrc\SrcChartEx\ChartOCX\ScaleDraw\DataHorzScaleDrawer.cpp

; 480  : 	if(!GetEnvironmentData((CMPPacket*) drawingHorzScaleData.GetPacket(), 

  0008e	8b 45 bc	 mov	 eax, DWORD PTR _size$4[ebp+4]
  00091	8b cb		 mov	 ecx, ebx
  00093	89 45 e8	 mov	 DWORD PTR _nSize_Y$1$[ebp], eax
  00096	e8 00 00 00 00	 call	 ?GetPacket@CDrawingHorzScaleData@@QBEPAVCPacket@@XZ ; CDrawingHorzScaleData::GetPacket

; 540  : 	if(pMPPacket == NULL)

  0009b	85 c0		 test	 eax, eax
  0009d	74 48		 je	 SHORT $LN28@DrawScale
; File D:\git\src\IBK\IBK_DRFN\ProjSrc\SrcChartEx\ChartOCX\Include_Chart\Dll_Load\PacketBase.h

; 349  : 	CList< CMProfile*, CMProfile*>* GetMarketProfileList() { return &m_listMarketProfile; }

  0009f	83 c0 08	 add	 eax, 8
  000a2	89 45 e0	 mov	 DWORD PTR _pMProfileList$1$[ebp], eax
; File D:\git\src\IBK\IBK_DRFN\ProjSrc\SrcChartEx\ChartOCX\ScaleDraw\DataHorzScaleDrawer.cpp

; 544  : 	if(pMProfileList == NULL || pMProfileList->GetCount() <= 0)

  000a5	74 40		 je	 SHORT $LN28@DrawScale
  000a7	8b 40 0c	 mov	 eax, DWORD PTR [eax+12]
  000aa	85 c0		 test	 eax, eax
  000ac	7e 39		 jle	 SHORT $LN28@DrawScale

; 545  : 		return false;
; 546  : 
; 547  : 	CHorzScaleDrawer::GetDrawingEnvironment(scaleRegion1, scaleRegion2, 

  000ae	8d 4d d8	 lea	 ecx, DWORD PTR _nPosPt_y2$[ebp]
  000b1	48		 dec	 eax
  000b2	51		 push	 ecx
  000b3	8d 4d dc	 lea	 ecx, DWORD PTR _nPosPt_y1$[ebp]
  000b6	51		 push	 ecx
  000b7	8d 4d c8	 lea	 ecx, DWORD PTR _dOnePtWidth$[ebp]
  000ba	51		 push	 ecx
  000bb	ff 75 e8	 push	 DWORD PTR _nSize_Y$1$[ebp]
  000be	8d 4d c0	 lea	 ecx, DWORD PTR $T6[ebp]
  000c1	50		 push	 eax
  000c2	6a 00		 push	 0
  000c4	e8 00 00 00 00	 call	 ??0CDisplayAttributes@@QAE@HH@Z ; CDisplayAttributes::CDisplayAttributes
  000c9	50		 push	 eax
  000ca	ff 75 14	 push	 DWORD PTR _scaleRegion2$[ebp]
  000cd	8b ce		 mov	 ecx, esi
  000cf	57		 push	 edi
  000d0	e8 00 00 00 00	 call	 ?GetDrawingEnvironment@CHorzScaleDrawer@@IBEXABVCRect@@0ABVCDisplayAttributes@@HAANAAH3@Z ; CHorzScaleDrawer::GetDrawingEnvironment

; 548  : 		CDisplayAttributes(0, pMProfileList->GetCount() -1), 
; 549  : 		nSize_Y, dOnePtWidth, nPosPt_y1, nPosPt_y2);
; 550  : 
; 551  : 	return (dOnePtWidth > 0 ? true: false);

  000d5	f2 0f 10 45 c8	 movsd	 xmm0, QWORD PTR _dOnePtWidth$[ebp]
  000da	66 0f 2f 05 00
	00 00 00	 comisd	 xmm0, QWORD PTR __real@0000000000000000
  000e2	0f 97 c3	 seta	 bl
  000e5	eb 02		 jmp	 SHORT $LN25@DrawScale
$LN28@DrawScale:

; 480  : 	if(!GetEnvironmentData((CMPPacket*) drawingHorzScaleData.GetPacket(), 

  000e7	32 db		 xor	 bl, bl
$LN25@DrawScale:
  000e9	8d 4d e4	 lea	 ecx, DWORD PTR $T10[ebp]
  000ec	c7 45 fc ff ff
	ff ff		 mov	 DWORD PTR __$EHRec$[ebp+8], -1
  000f3	ff 15 00 00 00
	00		 call	 DWORD PTR __imp_??1?$CStringT@DV?$StrTraitMFC_DLL@DV?$ChTraitsCRT@D@ATL@@@@@ATL@@QAE@XZ
  000f9	84 db		 test	 bl, bl
  000fb	0f 84 9d 01 00
	00		 je	 $LN54@DrawScale

; 481  : 		scaleRegion1, scaleRegion2, pDC->GetTextExtent("0").cy, pMProfileList, 
; 482  : 		dOnePtWidth, nPosPt_y1, nPosPt_y2))
; 483  : 		return;
; 484  : 
; 485  : 	int nIndex = 0, nPre_textEndPos = 0;
; 486  : 	POSITION pos = pMProfileList->GetHeadPosition();

  00101	8b 7d e0	 mov	 edi, DWORD PTR _pMProfileList$1$[ebp]
  00104	33 db		 xor	 ebx, ebx
  00106	89 5d e8	 mov	 DWORD PTR _nPre_textEndPos$[ebp], ebx
  00109	8b 7f 04	 mov	 edi, DWORD PTR [edi+4]

; 487  : 	while(pos != NULL){

  0010c	85 ff		 test	 edi, edi
  0010e	0f 84 8a 01 00
	00		 je	 $LN54@DrawScale
$LL2@DrawScale:

; 488  : 		CMProfile* pMProfile = pMProfileList->GetNext(pos);

  00114	8b 47 08	 mov	 eax, DWORD PTR [edi+8]
; File C:\Program Files (x86)\Microsoft Visual Studio\2019\Community\VC\Tools\MSVC\14.29.30133\atlmfc\include\afxtempl.h

; 813  : 		rPosition = (POSITION) pNode->pNext;

  00117	8b 3f		 mov	 edi, DWORD PTR [edi]
; File D:\git\src\IBK\IBK_DRFN\ProjSrc\SrcChartEx\ChartOCX\ScaleDraw\DataHorzScaleDrawer.cpp

; 488  : 		CMProfile* pMProfile = pMProfileList->GetNext(pos);

  00119	89 45 e0	 mov	 DWORD PTR _pMProfile$1$[ebp], eax

; 489  : 		if(pMProfile == NULL)

  0011c	85 c0		 test	 eax, eax
  0011e	0f 84 7a 01 00
	00		 je	 $LN54@DrawScale

; 490  : 			break;
; 491  : 
; 492  : 		int nPosPt_x = CHorzScaleDrawer::GetHorzScalePosition_x(nIndex, scaleRegion1.left, dOnePtWidth);

  00124	8d 45 c8	 lea	 eax, DWORD PTR _dOnePtWidth$[ebp]
  00127	8b ce		 mov	 ecx, esi
  00129	50		 push	 eax
  0012a	8b 45 10	 mov	 eax, DWORD PTR _scaleRegion1$[ebp]
  0012d	ff 30		 push	 DWORD PTR [eax]
  0012f	53		 push	 ebx
  00130	e8 00 00 00 00	 call	 ?GetHorzScalePosition_x@CHorzScaleDrawer@@IBEHHHABN@Z ; CHorzScaleDrawer::GetHorzScalePosition_x

; 493  : 		// pre text    .
; 494  : 		if(IsDrawText(horzScale.GetHorzScalePosition(), nPre_textEndPos, nPosPt_x)){

  00135	8b 4d 18	 mov	 ecx, DWORD PTR _horzScale$[ebp]
  00138	8b f0		 mov	 esi, eax
  0013a	89 75 e4	 mov	 DWORD PTR _nPosPt_x$1$[ebp], esi
  0013d	e8 00 00 00 00	 call	 ?GetHorzScalePosition@CHorizontalScale@@QBE?AW4HORZSCALEPOSITION@CScaleBaseData@@XZ ; CHorizontalScale::GetHorzScalePosition

; 556  : 	if(eHorzScalePos == CScaleBaseData::HORZ_HIDE)

  00142	83 f8 03	 cmp	 eax, 3
  00145	0f 84 25 01 00
	00		 je	 $LN8@DrawScale

; 493  : 		// pre text    .
; 494  : 		if(IsDrawText(horzScale.GetHorzScalePosition(), nPre_textEndPos, nPosPt_x)){

  0014b	39 75 e8	 cmp	 DWORD PTR _nPre_textEndPos$[ebp], esi
  0014e	0f 8d 1c 01 00
	00		 jge	 $LN8@DrawScale
; File D:\git\src\IBK\IBK_DRFN\ProjSrc\SrcChartEx\ChartOCX\Include_Chart\Dll_Load\PacketBase.h

; 288  : 	int			GetDate() const					{	return m_nDate;	}

  00154	8b 75 e0	 mov	 esi, DWORD PTR _pMProfile$1$[ebp]
; File D:\git\src\IBK\IBK_DRFN\ProjSrc\SrcChartEx\ChartOCX\ScaleDraw\DataHorzScaleDrawer.cpp

; 500  : 			CString strDate;

  00157	8d 4d f0	 lea	 ecx, DWORD PTR _strDate$11[ebp]
; File D:\git\src\IBK\IBK_DRFN\ProjSrc\SrcChartEx\ChartOCX\Include_Chart\Dll_Load\PacketBase.h

; 288  : 	int			GetDate() const					{	return m_nDate;	}

  0015a	8b 76 04	 mov	 esi, DWORD PTR [esi+4]
; File D:\git\src\IBK\IBK_DRFN\ProjSrc\SrcChartEx\ChartOCX\ScaleDraw\DataHorzScaleDrawer.cpp

; 500  : 			CString strDate;

  0015d	ff 15 00 00 00
	00		 call	 DWORD PTR __imp_??0?$CStringT@DV?$StrTraitMFC_DLL@DV?$ChTraitsCRT@D@ATL@@@@@ATL@@QAE@XZ

; 501  : 			strDate.Format( "%02d/%02d", ( nDate / 1000000) % 100, ( nDate / 10000) % 100);

  00163	b8 ad 8b db 68	 mov	 eax, 1759218605		; 68db8badH
  00168	c7 45 fc 01 00
	00 00		 mov	 DWORD PTR __$EHRec$[ebp+8], 1
  0016f	f7 ee		 imul	 esi
  00171	b9 64 00 00 00	 mov	 ecx, 100		; 00000064H
  00176	c1 fa 0c	 sar	 edx, 12			; 0000000cH
  00179	8b c2		 mov	 eax, edx
  0017b	c1 e8 1f	 shr	 eax, 31			; 0000001fH
  0017e	03 c2		 add	 eax, edx
  00180	99		 cdq
  00181	f7 f9		 idiv	 ecx
  00183	b8 83 de 1b 43	 mov	 eax, 1125899907		; 431bde83H
  00188	52		 push	 edx
  00189	f7 ee		 imul	 esi
  0018b	c1 fa 12	 sar	 edx, 18			; 00000012H
  0018e	8b c2		 mov	 eax, edx
  00190	c1 e8 1f	 shr	 eax, 31			; 0000001fH
  00193	03 c2		 add	 eax, edx
  00195	99		 cdq
  00196	f7 f9		 idiv	 ecx
  00198	8d 45 f0	 lea	 eax, DWORD PTR _strDate$11[ebp]
  0019b	52		 push	 edx
  0019c	68 00 00 00 00	 push	 OFFSET ??_C@_09KKPNDFC@?$CF02d?1?$CF02d@
  001a1	50		 push	 eax
  001a2	ff 15 00 00 00
	00		 call	 DWORD PTR __imp_?Format@?$CStringT@DV?$StrTraitMFC_DLL@DV?$ChTraitsCRT@D@ATL@@@@@ATL@@QAAXPBDZZ

; 502  : 			DrawTextAndCompartLine(pDC, scaleRegion1, CPoint(nPosPt_x, nPosPt_y1), 

  001a8	8b 4d 18	 mov	 ecx, DWORD PTR _horzScale$[ebp]
  001ab	83 c4 10	 add	 esp, 16			; 00000010H
  001ae	e8 00 00 00 00	 call	 ?GetHorzScalePosition@CHorizontalScale@@QBE?AW4HORZSCALEPOSITION@CScaleBaseData@@XZ ; CHorizontalScale::GetHorzScalePosition
  001b3	8b 4d 0c	 mov	 ecx, DWORD PTR _drawingHorzScaleData$[ebp]

; 564  : 	if(eHorzScalePos == CScaleBaseData::HORZ_BOTTOM){

  001b6	83 f8 01	 cmp	 eax, 1
; File C:\Program Files (x86)\Microsoft Visual Studio\2019\Community\VC\Tools\MSVC\14.29.30133\atlmfc\include\atltypes.h

; 408  : 	x = initX;

  001b9	8b 45 e4	 mov	 eax, DWORD PTR _nPosPt_x$1$[ebp]
  001bc	89 45 c0	 mov	 DWORD PTR $T7[ebp], eax
; File D:\git\src\IBK\IBK_DRFN\ProjSrc\SrcChartEx\ChartOCX\ScaleDraw\DataHorzScaleDrawer.cpp

; 564  : 	if(eHorzScalePos == CScaleBaseData::HORZ_BOTTOM){

  001bf	0f 95 45 d4	 setne	 BYTE PTR $T9[ebp]
; File C:\Program Files (x86)\Microsoft Visual Studio\2019\Community\VC\Tools\MSVC\14.29.30133\atlmfc\include\atltypes.h

; 409  : 	y = initY;

  001c3	8b 45 dc	 mov	 eax, DWORD PTR _nPosPt_y1$[ebp]
  001c6	89 45 c4	 mov	 DWORD PTR $T7[ebp+4], eax
; File D:\git\src\IBK\IBK_DRFN\ProjSrc\SrcChartEx\ChartOCX\ScaleDraw\DataHorzScaleDrawer.cpp

; 502  : 			DrawTextAndCompartLine(pDC, scaleRegion1, CPoint(nPosPt_x, nPosPt_y1), 

  001c9	8d 45 ac	 lea	 eax, DWORD PTR $T3[ebp]
  001cc	50		 push	 eax
  001cd	e8 00 00 00 00	 call	 ?GetScaleColor@CDrawingHorzScaleData@@QBE?AVCScaleColor@@XZ ; CDrawingHorzScaleData::GetScaleColor
  001d2	8b c8		 mov	 ecx, eax
  001d4	ff 15 00 00 00
	00		 call	 DWORD PTR __imp_?GetScaleTextColor@CScaleColor@@QAEAAKXZ
  001da	8b 4d 0c	 mov	 ecx, DWORD PTR _drawingHorzScaleData$[ebp]
  001dd	8b f0		 mov	 esi, eax
  001df	8d 45 e8	 lea	 eax, DWORD PTR _nPre_textEndPos$[ebp]
  001e2	50		 push	 eax
  001e3	e8 00 00 00 00	 call	 ?GetCompartLineColor@CDrawingHorzScaleData@@QBEKXZ ; CDrawingHorzScaleData::GetCompartLineColor
  001e8	8b 4d ec	 mov	 ecx, DWORD PTR _this$1$[ebp]
  001eb	50		 push	 eax
  001ec	ff 36		 push	 DWORD PTR [esi]
  001ee	8d 45 f0	 lea	 eax, DWORD PTR _strDate$11[ebp]
  001f1	50		 push	 eax
  001f2	ff 75 d4	 push	 DWORD PTR $T9[ebp]
  001f5	8d 45 c0	 lea	 eax, DWORD PTR $T7[ebp]
  001f8	50		 push	 eax
  001f9	ff 75 10	 push	 DWORD PTR _scaleRegion1$[ebp]
  001fc	ff 75 08	 push	 DWORD PTR _pDC$[ebp]
  001ff	e8 00 00 00 00	 call	 ?DrawTextAndCompartLine@CMarketProfileHorzScaleDrawer@@AAEXPAVCDC@@ABVCRect@@ABVCPoint@@_NABV?$CStringT@DV?$StrTraitMFC_DLL@DV?$ChTraitsCRT@D@ATL@@@@@ATL@@KKAAH@Z ; CMarketProfileHorzScaleDrawer::DrawTextAndCompartLine

; 506  : 			DrawTextAndCompartLine(pDC, scaleRegion2, CPoint(nPosPt_x, nPosPt_y2), 

  00204	8b 4d 18	 mov	 ecx, DWORD PTR _horzScale$[ebp]
  00207	e8 00 00 00 00	 call	 ?GetHorzScalePosition@CHorizontalScale@@QBE?AW4HORZSCALEPOSITION@CScaleBaseData@@XZ ; CHorizontalScale::GetHorzScalePosition
  0020c	8b 4d 0c	 mov	 ecx, DWORD PTR _drawingHorzScaleData$[ebp]

; 564  : 	if(eHorzScalePos == CScaleBaseData::HORZ_BOTTOM){

  0020f	83 f8 01	 cmp	 eax, 1
; File C:\Program Files (x86)\Microsoft Visual Studio\2019\Community\VC\Tools\MSVC\14.29.30133\atlmfc\include\atltypes.h

; 408  : 	x = initX;

  00212	8b 45 e4	 mov	 eax, DWORD PTR _nPosPt_x$1$[ebp]
  00215	89 45 b8	 mov	 DWORD PTR $T5[ebp], eax
; File D:\git\src\IBK\IBK_DRFN\ProjSrc\SrcChartEx\ChartOCX\ScaleDraw\DataHorzScaleDrawer.cpp

; 564  : 	if(eHorzScalePos == CScaleBaseData::HORZ_BOTTOM){

  00218	0f 94 45 d0	 sete	 BYTE PTR $T8[ebp]
; File C:\Program Files (x86)\Microsoft Visual Studio\2019\Community\VC\Tools\MSVC\14.29.30133\atlmfc\include\atltypes.h

; 409  : 	y = initY;

  0021c	8b 45 d8	 mov	 eax, DWORD PTR _nPosPt_y2$[ebp]
  0021f	89 45 bc	 mov	 DWORD PTR $T5[ebp+4], eax
; File D:\git\src\IBK\IBK_DRFN\ProjSrc\SrcChartEx\ChartOCX\ScaleDraw\DataHorzScaleDrawer.cpp

; 506  : 			DrawTextAndCompartLine(pDC, scaleRegion2, CPoint(nPosPt_x, nPosPt_y2), 

  00222	8d 45 a0	 lea	 eax, DWORD PTR $T2[ebp]
  00225	50		 push	 eax
  00226	e8 00 00 00 00	 call	 ?GetScaleColor@CDrawingHorzScaleData@@QBE?AVCScaleColor@@XZ ; CDrawingHorzScaleData::GetScaleColor
  0022b	8b c8		 mov	 ecx, eax
  0022d	ff 15 00 00 00
	00		 call	 DWORD PTR __imp_?GetScaleTextColor@CScaleColor@@QAEAAKXZ
  00233	8b 4d 0c	 mov	 ecx, DWORD PTR _drawingHorzScaleData$[ebp]
  00236	8b f0		 mov	 esi, eax
  00238	8d 45 e8	 lea	 eax, DWORD PTR _nPre_textEndPos$[ebp]
  0023b	50		 push	 eax
  0023c	e8 00 00 00 00	 call	 ?GetCompartLineColor@CDrawingHorzScaleData@@QBEKXZ ; CDrawingHorzScaleData::GetCompartLineColor
  00241	50		 push	 eax
  00242	ff 36		 push	 DWORD PTR [esi]
  00244	8b 4d ec	 mov	 ecx, DWORD PTR _this$1$[ebp]
  00247	8d 45 f0	 lea	 eax, DWORD PTR _strDate$11[ebp]
  0024a	50		 push	 eax
  0024b	ff 75 d0	 push	 DWORD PTR $T8[ebp]
  0024e	8d 45 b8	 lea	 eax, DWORD PTR $T5[ebp]
  00251	50		 push	 eax
  00252	ff 75 14	 push	 DWORD PTR _scaleRegion2$[ebp]
  00255	ff 75 08	 push	 DWORD PTR _pDC$[ebp]
  00258	e8 00 00 00 00	 call	 ?DrawTextAndCompartLine@CMarketProfileHorzScaleDrawer@@AAEXPAVCDC@@ABVCRect@@ABVCPoint@@_NABV?$CStringT@DV?$StrTraitMFC_DLL@DV?$ChTraitsCRT@D@ATL@@@@@ATL@@KKAAH@Z ; CMarketProfileHorzScaleDrawer::DrawTextAndCompartLine

; 507  : 				IsTopPostiont(horzScale.GetHorzScalePosition(), false), 
; 508  : 				strDate, drawingHorzScaleData.GetScaleColor().GetScaleTextColor(), 
; 509  : 				drawingHorzScaleData.GetCompartLineColor(), nPre_textEndPos);
; 510  : 		}

  0025d	8d 4d f0	 lea	 ecx, DWORD PTR _strDate$11[ebp]
  00260	c7 45 fc ff ff
	ff ff		 mov	 DWORD PTR __$EHRec$[ebp+8], -1
  00267	ff 15 00 00 00
	00		 call	 DWORD PTR __imp_??1?$CStringT@DV?$StrTraitMFC_DLL@DV?$ChTraitsCRT@D@ATL@@@@@ATL@@QAE@XZ
  0026d	8b 75 e4	 mov	 esi, DWORD PTR _nPosPt_x$1$[ebp]
$LN8@DrawScale:

; 511  : 		if(nIndex != 0)

  00270	85 db		 test	 ebx, ebx
  00272	74 1e		 je	 SHORT $LN55@DrawScale

; 512  : 			CHorzScaleDrawer::DrawGrid(pDC, drawingHorzScaleData, horzScale.GetGridType(), nPosPt_x);

  00274	8b 4d 18	 mov	 ecx, DWORD PTR _horzScale$[ebp]
  00277	6a 01		 push	 1
  00279	56		 push	 esi
  0027a	e8 00 00 00 00	 call	 ?GetGridType@CScale@@QBE?AW4SCALEGRIDTYPE@CScaleBaseData@@XZ ; CScale::GetGridType
  0027f	8b 75 ec	 mov	 esi, DWORD PTR _this$1$[ebp]
  00282	8b ce		 mov	 ecx, esi
  00284	50		 push	 eax
  00285	ff 75 0c	 push	 DWORD PTR _drawingHorzScaleData$[ebp]
  00288	ff 75 08	 push	 DWORD PTR _pDC$[ebp]
  0028b	e8 00 00 00 00	 call	 ?DrawGrid@CHorzScaleDrawer@@IAEXPAVCDC@@ABVCDrawingHorzScaleData@@W4SCALEGRIDTYPE@CScaleBaseData@@HH@Z ; CHorzScaleDrawer::DrawGrid
  00290	eb 03		 jmp	 SHORT $LN9@DrawScale
$LN55@DrawScale:

; 511  : 		if(nIndex != 0)

  00292	8b 75 ec	 mov	 esi, DWORD PTR _this$1$[ebp]
$LN9@DrawScale:

; 513  : 
; 514  : 		nIndex++;

  00295	43		 inc	 ebx
  00296	85 ff		 test	 edi, edi
  00298	0f 85 76 fe ff
	ff		 jne	 $LL2@DrawScale
$LN54@DrawScale:

; 515  : 	}
; 516  : }

  0029e	8b 4d f4	 mov	 ecx, DWORD PTR __$EHRec$[ebp]
  002a1	64 89 0d 00 00
	00 00		 mov	 DWORD PTR fs:0, ecx
  002a8	59		 pop	 ecx
  002a9	5f		 pop	 edi
  002aa	5e		 pop	 esi
  002ab	5b		 pop	 ebx
  002ac	8b e5		 mov	 esp, ebp
  002ae	5d		 pop	 ebp
  002af	c2 14 00	 ret	 20			; 00000014H
_TEXT	ENDS
;	COMDAT text$x
text$x	SEGMENT
__unwindfunclet$?DrawScale@CMarketProfileHorzScaleDrawer@@AAEXPAVCDC@@ABVCDrawingHorzScaleData@@ABVCRect@@2ABVCHorizontalScale@@@Z$0:
  00000	8d 4d e4	 lea	 ecx, DWORD PTR $T10[ebp]
  00003	ff 25 00 00 00
	00		 jmp	 DWORD PTR __imp_??1?$CStringT@DV?$StrTraitMFC_DLL@DV?$ChTraitsCRT@D@ATL@@@@@ATL@@QAE@XZ
__unwindfunclet$?DrawScale@CMarketProfileHorzScaleDrawer@@AAEXPAVCDC@@ABVCDrawingHorzScaleData@@ABVCRect@@2ABVCHorizontalScale@@@Z$1:
  00009	8d 4d f0	 lea	 ecx, DWORD PTR _strDate$11[ebp]
  0000c	ff 25 00 00 00
	00		 jmp	 DWORD PTR __imp_??1?$CStringT@DV?$StrTraitMFC_DLL@DV?$ChTraitsCRT@D@ATL@@@@@ATL@@QAE@XZ
  00012	cc		 int	 3
  00013	cc		 int	 3
  00014	cc		 int	 3
  00015	cc		 int	 3
  00016	cc		 int	 3
__ehhandler$?DrawScale@CMarketProfileHorzScaleDrawer@@AAEXPAVCDC@@ABVCDrawingHorzScaleData@@ABVCRect@@2ABVCHorizontalScale@@@Z:
  00017	90		 npad	 1
  00018	90		 npad	 1
  00019	8b 54 24 08	 mov	 edx, DWORD PTR [esp+8]
  0001d	8d 42 0c	 lea	 eax, DWORD PTR [edx+12]
  00020	8b 4a 9c	 mov	 ecx, DWORD PTR [edx-100]
  00023	33 c8		 xor	 ecx, eax
  00025	e8 00 00 00 00	 call	 @__security_check_cookie@4
  0002a	b8 00 00 00 00	 mov	 eax, OFFSET __ehfuncinfo$?DrawScale@CMarketProfileHorzScaleDrawer@@AAEXPAVCDC@@ABVCDrawingHorzScaleData@@ABVCRect@@2ABVCHorizontalScale@@@Z
  0002f	e9 00 00 00 00	 jmp	 ___CxxFrameHandler3
text$x	ENDS
?DrawScale@CMarketProfileHorzScaleDrawer@@AAEXPAVCDC@@ABVCDrawingHorzScaleData@@ABVCRect@@2ABVCHorizontalScale@@@Z ENDP ; CMarketProfileHorzScaleDrawer::DrawScale
; Function compile flags: /Ogtp
; File D:\git\src\IBK\IBK_DRFN\ProjSrc\SrcChartEx\ChartOCX\ScaleDraw\DataHorzScaleDrawer.cpp
; File C:\Program Files (x86)\Microsoft Visual Studio\2019\Community\VC\Tools\MSVC\14.29.30133\atlmfc\include\atltypes.h
; File D:\git\src\IBK\IBK_DRFN\ProjSrc\SrcChartEx\ChartOCX\ScaleDraw\DataHorzScaleDrawer.cpp
;	COMDAT ?DrawGrid@CMarketProfileHorzScaleDrawer@@UAEXPAVCDC@@ABVCDrawingHorzScaleData@@ABVCHorizontalScale@@@Z
_TEXT	SEGMENT
$T1 = -36						; size = 16
$T2 = -20						; size = 16
__$ArrayPad$ = -4					; size = 4
_pDC$ = 8						; size = 4
_drawingHorzScaleData$ = 12				; size = 4
_horzScale$ = 16					; size = 4
?DrawGrid@CMarketProfileHorzScaleDrawer@@UAEXPAVCDC@@ABVCDrawingHorzScaleData@@ABVCHorizontalScale@@@Z PROC ; CMarketProfileHorzScaleDrawer::DrawGrid, COMDAT
; _this$ = ecx

; 465  : {

  00000	55		 push	 ebp
  00001	8b ec		 mov	 ebp, esp
  00003	83 ec 24	 sub	 esp, 36			; 00000024H
  00006	a1 00 00 00 00	 mov	 eax, DWORD PTR ___security_cookie
  0000b	33 c5		 xor	 eax, ebp
  0000d	89 45 fc	 mov	 DWORD PTR __$ArrayPad$[ebp], eax
  00010	8b 45 10	 mov	 eax, DWORD PTR _horzScale$[ebp]
  00013	0f 57 c0	 xorps	 xmm0, xmm0
  00016	53		 push	 ebx
  00017	56		 push	 esi
  00018	8b 75 0c	 mov	 esi, DWORD PTR _drawingHorzScaleData$[ebp]
  0001b	8b d9		 mov	 ebx, ecx
  0001d	57		 push	 edi
  0001e	8b 7d 08	 mov	 edi, DWORD PTR _pDC$[ebp]

; 466  : 	DrawScale(pDC, drawingHorzScaleData, drawingHorzScaleData.GetDrawingGraphRegion(), CRect(0, 0, 0, 0), horzScale);

  00021	8b ce		 mov	 ecx, esi
  00023	50		 push	 eax
  00024	8d 45 ec	 lea	 eax, DWORD PTR $T2[ebp]
  00027	50		 push	 eax
  00028	8d 45 dc	 lea	 eax, DWORD PTR $T1[ebp]
  0002b	50		 push	 eax
; File C:\Program Files (x86)\Microsoft Visual Studio\2019\Community\VC\Tools\MSVC\14.29.30133\atlmfc\include\atltypes.h

; 540  : 	left = l;

  0002c	0f 11 45 ec	 movups	 XMMWORD PTR $T2[ebp], xmm0
; File D:\git\src\IBK\IBK_DRFN\ProjSrc\SrcChartEx\ChartOCX\ScaleDraw\DataHorzScaleDrawer.cpp

; 466  : 	DrawScale(pDC, drawingHorzScaleData, drawingHorzScaleData.GetDrawingGraphRegion(), CRect(0, 0, 0, 0), horzScale);

  00030	e8 00 00 00 00	 call	 ?GetDrawingGraphRegion@CDrawingHorzScaleData@@QBE?AVCRect@@XZ ; CDrawingHorzScaleData::GetDrawingGraphRegion
  00035	50		 push	 eax
  00036	56		 push	 esi
  00037	57		 push	 edi
  00038	8b cb		 mov	 ecx, ebx
  0003a	e8 00 00 00 00	 call	 ?DrawScale@CMarketProfileHorzScaleDrawer@@AAEXPAVCDC@@ABVCDrawingHorzScaleData@@ABVCRect@@2ABVCHorizontalScale@@@Z ; CMarketProfileHorzScaleDrawer::DrawScale

; 467  : }

  0003f	8b 4d fc	 mov	 ecx, DWORD PTR __$ArrayPad$[ebp]
  00042	5f		 pop	 edi
  00043	5e		 pop	 esi
  00044	33 cd		 xor	 ecx, ebp
  00046	5b		 pop	 ebx
  00047	e8 00 00 00 00	 call	 @__security_check_cookie@4
  0004c	8b e5		 mov	 esp, ebp
  0004e	5d		 pop	 ebp
  0004f	c2 0c 00	 ret	 12			; 0000000cH
?DrawGrid@CMarketProfileHorzScaleDrawer@@UAEXPAVCDC@@ABVCDrawingHorzScaleData@@ABVCHorizontalScale@@@Z ENDP ; CMarketProfileHorzScaleDrawer::DrawGrid
_TEXT	ENDS
; Function compile flags: /Ogtp
; File D:\git\src\IBK\IBK_DRFN\ProjSrc\SrcChartEx\ChartOCX\ScaleDraw\DataHorzScaleDrawer.cpp
;	COMDAT ?DrawTextOrGrid_Both@CMarketProfileHorzScaleDrawer@@UAEXPAVCDC@@ABVCDrawingHorzScaleData@@ABVCHorzScaleRegion@@ABVCHorizontalScale@@@Z
_TEXT	SEGMENT
_this$GSCopy$1$ = -40					; size = 4
$T1 = -36						; size = 16
$T2 = -20						; size = 16
__$ArrayPad$ = -4					; size = 4
_pDC$ = 8						; size = 4
_drawingHorzScaleData$ = 12				; size = 4
_horzScaleRegion$ = 16					; size = 4
_horzScale$ = 20					; size = 4
?DrawTextOrGrid_Both@CMarketProfileHorzScaleDrawer@@UAEXPAVCDC@@ABVCDrawingHorzScaleData@@ABVCHorzScaleRegion@@ABVCHorizontalScale@@@Z PROC ; CMarketProfileHorzScaleDrawer::DrawTextOrGrid_Both, COMDAT
; _this$ = ecx

; 460  : {

  00000	55		 push	 ebp
  00001	8b ec		 mov	 ebp, esp
  00003	83 ec 28	 sub	 esp, 40			; 00000028H
  00006	a1 00 00 00 00	 mov	 eax, DWORD PTR ___security_cookie
  0000b	33 c5		 xor	 eax, ebp
  0000d	89 45 fc	 mov	 DWORD PTR __$ArrayPad$[ebp], eax
  00010	8b 45 14	 mov	 eax, DWORD PTR _horzScale$[ebp]
  00013	53		 push	 ebx
  00014	8b 5d 08	 mov	 ebx, DWORD PTR _pDC$[ebp]
  00017	56		 push	 esi
  00018	8b 75 10	 mov	 esi, DWORD PTR _horzScaleRegion$[ebp]
  0001b	57		 push	 edi
  0001c	8b 7d 0c	 mov	 edi, DWORD PTR _drawingHorzScaleData$[ebp]

; 461  : 	DrawScale(pDC, drawingHorzScaleData, horzScaleRegion.GetTopScaleRegion(), horzScaleRegion.GetBottomScaleRegion(), horzScale);

  0001f	50		 push	 eax
  00020	8d 45 ec	 lea	 eax, DWORD PTR $T2[ebp]
  00023	89 4d d8	 mov	 DWORD PTR _this$GSCopy$1$[ebp], ecx
  00026	50		 push	 eax
  00027	8b ce		 mov	 ecx, esi
  00029	e8 00 00 00 00	 call	 ?GetBottomScaleRegion@CHorzScaleRegion@@QBE?AVCRect@@XZ ; CHorzScaleRegion::GetBottomScaleRegion
  0002e	50		 push	 eax
  0002f	8d 45 dc	 lea	 eax, DWORD PTR $T1[ebp]
  00032	8b ce		 mov	 ecx, esi
  00034	50		 push	 eax
  00035	e8 00 00 00 00	 call	 ?GetTopScaleRegion@CHorzScaleRegion@@QBE?AVCRect@@XZ ; CHorzScaleRegion::GetTopScaleRegion
  0003a	8b 4d d8	 mov	 ecx, DWORD PTR _this$GSCopy$1$[ebp]
  0003d	50		 push	 eax
  0003e	57		 push	 edi
  0003f	53		 push	 ebx
  00040	e8 00 00 00 00	 call	 ?DrawScale@CMarketProfileHorzScaleDrawer@@AAEXPAVCDC@@ABVCDrawingHorzScaleData@@ABVCRect@@2ABVCHorizontalScale@@@Z ; CMarketProfileHorzScaleDrawer::DrawScale

; 462  : }

  00045	8b 4d fc	 mov	 ecx, DWORD PTR __$ArrayPad$[ebp]
  00048	5f		 pop	 edi
  00049	5e		 pop	 esi
  0004a	33 cd		 xor	 ecx, ebp
  0004c	5b		 pop	 ebx
  0004d	e8 00 00 00 00	 call	 @__security_check_cookie@4
  00052	8b e5		 mov	 esp, ebp
  00054	5d		 pop	 ebp
  00055	c2 10 00	 ret	 16			; 00000010H
?DrawTextOrGrid_Both@CMarketProfileHorzScaleDrawer@@UAEXPAVCDC@@ABVCDrawingHorzScaleData@@ABVCHorzScaleRegion@@ABVCHorizontalScale@@@Z ENDP ; CMarketProfileHorzScaleDrawer::DrawTextOrGrid_Both
_TEXT	ENDS
; Function compile flags: /Ogtp
; File D:\git\src\IBK\IBK_DRFN\ProjSrc\SrcChartEx\ChartOCX\ScaleDraw\DataHorzScaleDrawer.cpp
; File C:\Program Files (x86)\Microsoft Visual Studio\2019\Community\VC\Tools\MSVC\14.29.30133\atlmfc\include\atltypes.h
; File D:\git\src\IBK\IBK_DRFN\ProjSrc\SrcChartEx\ChartOCX\ScaleDraw\DataHorzScaleDrawer.cpp
;	COMDAT ?DrawTextOrGrid@CMarketProfileHorzScaleDrawer@@UAEXPAVCDC@@ABVCDrawingHorzScaleData@@ABVCRect@@ABVCHorizontalScale@@@Z
_TEXT	SEGMENT
$T1 = -20						; size = 16
__$ArrayPad$ = -4					; size = 4
_pDC$ = 8						; size = 4
_drawingHorzScaleData$ = 12				; size = 4
_scaleRegion$ = 16					; size = 4
_horzScale$ = 20					; size = 4
?DrawTextOrGrid@CMarketProfileHorzScaleDrawer@@UAEXPAVCDC@@ABVCDrawingHorzScaleData@@ABVCRect@@ABVCHorizontalScale@@@Z PROC ; CMarketProfileHorzScaleDrawer::DrawTextOrGrid, COMDAT
; _this$ = ecx

; 454  : {

  00000	55		 push	 ebp
  00001	8b ec		 mov	 ebp, esp
  00003	83 ec 14	 sub	 esp, 20			; 00000014H
  00006	a1 00 00 00 00	 mov	 eax, DWORD PTR ___security_cookie
  0000b	33 c5		 xor	 eax, ebp
  0000d	89 45 fc	 mov	 DWORD PTR __$ArrayPad$[ebp], eax
  00010	8b 45 14	 mov	 eax, DWORD PTR _horzScale$[ebp]
  00013	0f 57 c0	 xorps	 xmm0, xmm0
  00016	8b 55 10	 mov	 edx, DWORD PTR _scaleRegion$[ebp]
  00019	56		 push	 esi
  0001a	8b 75 0c	 mov	 esi, DWORD PTR _drawingHorzScaleData$[ebp]
  0001d	57		 push	 edi
  0001e	8b 7d 08	 mov	 edi, DWORD PTR _pDC$[ebp]

; 455  : 	DrawScale(pDC, drawingHorzScaleData, scaleRegion, CRect(0, 0, 0, 0), horzScale);

  00021	50		 push	 eax
  00022	8d 45 ec	 lea	 eax, DWORD PTR $T1[ebp]
  00025	50		 push	 eax
  00026	52		 push	 edx
  00027	56		 push	 esi
  00028	57		 push	 edi
; File C:\Program Files (x86)\Microsoft Visual Studio\2019\Community\VC\Tools\MSVC\14.29.30133\atlmfc\include\atltypes.h

; 540  : 	left = l;

  00029	0f 11 45 ec	 movups	 XMMWORD PTR $T1[ebp], xmm0
; File D:\git\src\IBK\IBK_DRFN\ProjSrc\SrcChartEx\ChartOCX\ScaleDraw\DataHorzScaleDrawer.cpp

; 455  : 	DrawScale(pDC, drawingHorzScaleData, scaleRegion, CRect(0, 0, 0, 0), horzScale);

  0002d	e8 00 00 00 00	 call	 ?DrawScale@CMarketProfileHorzScaleDrawer@@AAEXPAVCDC@@ABVCDrawingHorzScaleData@@ABVCRect@@2ABVCHorizontalScale@@@Z ; CMarketProfileHorzScaleDrawer::DrawScale

; 456  : }

  00032	8b 4d fc	 mov	 ecx, DWORD PTR __$ArrayPad$[ebp]
  00035	5f		 pop	 edi
  00036	33 cd		 xor	 ecx, ebp
  00038	5e		 pop	 esi
  00039	e8 00 00 00 00	 call	 @__security_check_cookie@4
  0003e	8b e5		 mov	 esp, ebp
  00040	5d		 pop	 ebp
  00041	c2 10 00	 ret	 16			; 00000010H
?DrawTextOrGrid@CMarketProfileHorzScaleDrawer@@UAEXPAVCDC@@ABVCDrawingHorzScaleData@@ABVCRect@@ABVCHorizontalScale@@@Z ENDP ; CMarketProfileHorzScaleDrawer::DrawTextOrGrid
_TEXT	ENDS
; Function compile flags: /Ogtp
; File D:\git\src\IBK\IBK_DRFN\ProjSrc\SrcChartEx\ChartOCX\ScaleDraw\DataHorzScaleDrawer.cpp
;	COMDAT ??0CMarketProfileHorzScaleDrawer@@QAE@PAUHWND__@@W4CHART_MODE@CChartInfo@@@Z
_TEXT	SEGMENT
_p_hOcxWnd$ = 8						; size = 4
_p_eChartMode$ = 12					; size = 4
??0CMarketProfileHorzScaleDrawer@@QAE@PAUHWND__@@W4CHART_MODE@CChartInfo@@@Z PROC ; CMarketProfileHorzScaleDrawer::CMarketProfileHorzScaleDrawer, COMDAT
; _this$ = ecx

; 448  : {

  00000	55		 push	 ebp
  00001	8b ec		 mov	 ebp, esp
  00003	56		 push	 esi
  00004	ff 75 0c	 push	 DWORD PTR _p_eChartMode$[ebp]
  00007	8b f1		 mov	 esi, ecx
  00009	ff 75 08	 push	 DWORD PTR _p_hOcxWnd$[ebp]
  0000c	e8 00 00 00 00	 call	 ??0CHorzScaleDrawer@@QAE@PAUHWND__@@W4CHART_MODE@CChartInfo@@@Z ; CHorzScaleDrawer::CHorzScaleDrawer
  00011	c7 06 00 00 00
	00		 mov	 DWORD PTR [esi], OFFSET ??_7CMarketProfileHorzScaleDrawer@@6B@

; 449  : }

  00017	8b c6		 mov	 eax, esi
  00019	5e		 pop	 esi
  0001a	5d		 pop	 ebp
  0001b	c2 08 00	 ret	 8
??0CMarketProfileHorzScaleDrawer@@QAE@PAUHWND__@@W4CHART_MODE@CChartInfo@@@Z ENDP ; CMarketProfileHorzScaleDrawer::CMarketProfileHorzScaleDrawer
_TEXT	ENDS
; Function compile flags: /Ogtp
; File D:\git\src\IBK\IBK_DRFN\ProjSrc\SrcChartEx\ChartOCX\ScaleDraw\DataHorzScaleDrawer.cpp
; File C:\Program Files (x86)\Microsoft Visual Studio\2019\Community\VC\Tools\MSVC\14.29.30133\atlmfc\include\atlsimpstr.h
; File D:\git\src\IBK\IBK_DRFN\ProjSrc\SrcChartEx\ChartOCX\ScaleDraw\DataHorzScaleDrawer.cpp
; File C:\Program Files (x86)\Microsoft Visual Studio\2019\Community\VC\Tools\MSVC\14.29.30133\atlmfc\include\atlsimpstr.h
; File C:\Program Files (x86)\Microsoft Visual Studio\2019\Community\VC\Tools\MSVC\14.29.30133\atlmfc\include\cstringt.h
; File D:\git\src\IBK\IBK_DRFN\ProjSrc\SrcChartEx\ChartOCX\ScaleDraw\DataHorzScaleDrawer.cpp
; File C:\Program Files (x86)\Microsoft Visual Studio\2019\Community\VC\Tools\MSVC\14.29.30133\atlmfc\include\cstringt.h
; File D:\git\src\IBK\IBK_DRFN\ProjSrc\SrcChartEx\ChartOCX\ScaleDraw\DataHorzScaleDrawer.cpp
; File C:\Program Files (x86)\Microsoft Visual Studio\2019\Community\VC\Tools\MSVC\14.29.30133\atlmfc\include\cstringt.h
; File C:\Program Files (x86)\Microsoft Visual Studio\2019\Community\VC\Tools\MSVC\14.29.30133\atlmfc\include\atlsimpstr.h
; File C:\Program Files (x86)\Microsoft Visual Studio\2019\Community\VC\Tools\MSVC\14.29.30133\atlmfc\include\cstringt.h
; File D:\git\src\IBK\IBK_DRFN\ProjSrc\SrcChartEx\ChartOCX\ScaleDraw\DataHorzScaleDrawer.cpp
;	COMDAT ?GetData@CLeftRightScaleDrawer@@ABE?AV?$CStringT@DV?$StrTraitMFC_DLL@DV?$ChTraitsCRT@D@ATL@@@@@ATL@@ABNAAN@Z
_TEXT	SEGMENT
$T2 = -24						; size = 4
$T3 = -20						; size = 4
$T4 = -16						; size = 4
$T5 = -16						; size = 4
__$EHRec$ = -12						; size = 12
___$ReturnUdt$ = 8					; size = 4
_dData$ = 12						; size = 4
$T6 = 15						; size = 1
_chTemp$7 = 15						; size = 1
_strData$ = 16						; size = 4
_dPreData$ = 16						; size = 4
?GetData@CLeftRightScaleDrawer@@ABE?AV?$CStringT@DV?$StrTraitMFC_DLL@DV?$ChTraitsCRT@D@ATL@@@@@ATL@@ABNAAN@Z PROC ; CLeftRightScaleDrawer::GetData, COMDAT
; _this$ = ecx

; 426  : {

  00000	55		 push	 ebp
  00001	8b ec		 mov	 ebp, esp
  00003	6a ff		 push	 -1
  00005	68 00 00 00 00	 push	 __ehhandler$?GetData@CLeftRightScaleDrawer@@ABE?AV?$CStringT@DV?$StrTraitMFC_DLL@DV?$ChTraitsCRT@D@ATL@@@@@ATL@@ABNAAN@Z
  0000a	64 a1 00 00 00
	00		 mov	 eax, DWORD PTR fs:0
  00010	50		 push	 eax
  00011	83 ec 0c	 sub	 esp, 12			; 0000000cH
  00014	53		 push	 ebx
  00015	56		 push	 esi
  00016	a1 00 00 00 00	 mov	 eax, DWORD PTR ___security_cookie
  0001b	33 c5		 xor	 eax, ebp
  0001d	50		 push	 eax
  0001e	8d 45 f4	 lea	 eax, DWORD PTR __$EHRec$[ebp]
  00021	64 a3 00 00 00
	00		 mov	 DWORD PTR fs:0, eax
  00027	33 db		 xor	 ebx, ebx
  00029	89 5d e8	 mov	 DWORD PTR $T2[ebp], ebx

; 427  : 	if(dPreData == dData)

  0002c	8b 4d 0c	 mov	 ecx, DWORD PTR _dData$[ebp]
  0002f	8b 55 10	 mov	 edx, DWORD PTR _dPreData$[ebp]
  00032	f2 0f 10 09	 movsd	 xmm1, QWORD PTR [ecx]
  00036	f2 0f 10 02	 movsd	 xmm0, QWORD PTR [edx]
  0003a	66 0f 2e c1	 ucomisd xmm0, xmm1
  0003e	9f		 lahf
  0003f	f6 c4 44	 test	 ah, 68			; 00000044H
  00042	7a 13		 jp	 SHORT $LN2@GetData

; 428  : 		return "";

  00044	8b 4d 08	 mov	 ecx, DWORD PTR ___$ReturnUdt$[ebp]
  00047	68 00 00 00 00	 push	 OFFSET ??_C@_00CNPNBAHC@@
  0004c	ff 15 00 00 00
	00		 call	 DWORD PTR __imp_??0?$CStringT@DV?$StrTraitMFC_DLL@DV?$ChTraitsCRT@D@ATL@@@@@ATL@@QAE@PBD@Z
  00052	e9 13 01 00 00	 jmp	 $LN42@GetData
$LN2@GetData:

; 429  : 
; 430  : 	dPreData = dData;

  00057	f2 0f 11 0a	 movsd	 QWORD PTR [edx], xmm1

; 431  : 	
; 432  : 	if(dData == 0.0)

  0005b	f2 0f 10 01	 movsd	 xmm0, QWORD PTR [ecx]
  0005f	66 0f 2e 05 00
	00 00 00	 ucomisd xmm0, QWORD PTR __real@0000000000000000
  00067	9f		 lahf
  00068	f6 c4 44	 test	 ah, 68			; 00000044H
  0006b	7a 13		 jp	 SHORT $LN3@GetData

; 433  : 		return "0";

  0006d	8b 4d 08	 mov	 ecx, DWORD PTR ___$ReturnUdt$[ebp]
  00070	68 00 00 00 00	 push	 OFFSET ??_C@_01GBGANLPD@0@
  00075	ff 15 00 00 00
	00		 call	 DWORD PTR __imp_??0?$CStringT@DV?$StrTraitMFC_DLL@DV?$ChTraitsCRT@D@ATL@@@@@ATL@@QAE@PBD@Z
  0007b	e9 ea 00 00 00	 jmp	 $LN42@GetData
$LN3@GetData:

; 434  : 
; 435  : 	CString strData = CDataConversion::GetStringThousandFormat(CDataConversion::DoubleToString(dData));

  00080	51		 push	 ecx
  00081	8d 45 ec	 lea	 eax, DWORD PTR $T3[ebp]
  00084	50		 push	 eax
  00085	e8 00 00 00 00	 call	 ?DoubleToString@CDataConversion@@SA?AV?$CStringT@DV?$StrTraitMFC_DLL@DV?$ChTraitsCRT@D@ATL@@@@@ATL@@ABN@Z ; CDataConversion::DoubleToString
  0008a	50		 push	 eax
  0008b	8d 45 10	 lea	 eax, DWORD PTR _strData$[ebp]
  0008e	c7 45 fc 00 00
	00 00		 mov	 DWORD PTR __$EHRec$[ebp+8], 0
  00095	50		 push	 eax
  00096	e8 00 00 00 00	 call	 ?GetStringThousandFormat@CDataConversion@@SA?AV?$CStringT@DV?$StrTraitMFC_DLL@DV?$ChTraitsCRT@D@ATL@@@@@ATL@@ABV23@@Z ; CDataConversion::GetStringThousandFormat
  0009b	83 c4 10	 add	 esp, 16			; 00000010H
  0009e	8d 4d ec	 lea	 ecx, DWORD PTR $T3[ebp]
  000a1	c6 45 fc 02	 mov	 BYTE PTR __$EHRec$[ebp+8], 2
  000a5	ff 15 00 00 00
	00		 call	 DWORD PTR __imp_??1?$CStringT@DV?$StrTraitMFC_DLL@DV?$ChTraitsCRT@D@ATL@@@@@ATL@@QAE@XZ
; File C:\Program Files (x86)\Microsoft Visual Studio\2019\Community\VC\Tools\MSVC\14.29.30133\atlmfc\include\atlsimpstr.h

; 519  : 		return( GetData()->nDataLength );

  000ab	8b 45 10	 mov	 eax, DWORD PTR _strData$[ebp]

; 533  : 		return( GetLength() == 0 );

  000ae	83 78 f4 00	 cmp	 DWORD PTR [eax-12], 0
; File D:\git\src\IBK\IBK_DRFN\ProjSrc\SrcChartEx\ChartOCX\ScaleDraw\DataHorzScaleDrawer.cpp

; 436  : 	if(!strData.IsEmpty() && strData.Left(1) != '-')

  000b2	74 30		 je	 SHORT $LN6@GetData
  000b4	6a 01		 push	 1
  000b6	8d 45 f0	 lea	 eax, DWORD PTR $T5[ebp]
  000b9	50		 push	 eax
  000ba	8d 4d 10	 lea	 ecx, DWORD PTR _strData$[ebp]
  000bd	ff 15 00 00 00
	00		 call	 DWORD PTR __imp_?Left@?$CStringT@DV?$StrTraitMFC_DLL@DV?$ChTraitsCRT@D@ATL@@@@@ATL@@QBE?AV12@H@Z
  000c3	bb 02 00 00 00	 mov	 ebx, 2
; File C:\Program Files (x86)\Microsoft Visual Studio\2019\Community\VC\Tools\MSVC\14.29.30133\atlmfc\include\atlsimpstr.h

; 519  : 		return( GetData()->nDataLength );

  000c8	8b 08		 mov	 ecx, DWORD PTR [eax]
; File C:\Program Files (x86)\Microsoft Visual Studio\2019\Community\VC\Tools\MSVC\14.29.30133\atlmfc\include\cstringt.h

; 2699 : 		return((str1.GetLength() != 1) || (str1[0] != ch2));

  000ca	83 79 f4 01	 cmp	 DWORD PTR [ecx-12], 1
  000ce	75 0e		 jne	 SHORT $LN24@GetData
  000d0	6a 00		 push	 0
  000d2	8b c8		 mov	 ecx, eax
  000d4	ff 15 00 00 00
	00		 call	 DWORD PTR __imp_??A?$CSimpleStringT@D$00@ATL@@QBEDH@Z
  000da	3c 2d		 cmp	 al, 45			; 0000002dH
  000dc	74 06		 je	 SHORT $LN6@GetData
$LN24@GetData:
; File D:\git\src\IBK\IBK_DRFN\ProjSrc\SrcChartEx\ChartOCX\ScaleDraw\DataHorzScaleDrawer.cpp

; 436  : 	if(!strData.IsEmpty() && strData.Left(1) != '-')

  000de	c6 45 0f 01	 mov	 BYTE PTR $T6[ebp], 1
  000e2	eb 04		 jmp	 SHORT $LN7@GetData
$LN6@GetData:
  000e4	c6 45 0f 00	 mov	 BYTE PTR $T6[ebp], 0
$LN7@GetData:
  000e8	f6 c3 02	 test	 bl, 2
  000eb	74 0c		 je	 SHORT $LN14@GetData
  000ed	8d 4d f0	 lea	 ecx, DWORD PTR $T5[ebp]
  000f0	83 e3 fd	 and	 ebx, -3			; fffffffdH
  000f3	ff 15 00 00 00
	00		 call	 DWORD PTR __imp_??1?$CStringT@DV?$StrTraitMFC_DLL@DV?$ChTraitsCRT@D@ATL@@@@@ATL@@QAE@XZ
$LN14@GetData:
  000f9	80 7d 0f 00	 cmp	 BYTE PTR $T6[ebp], 0
  000fd	74 55		 je	 SHORT $LN4@GetData
; File C:\Program Files (x86)\Microsoft Visual Studio\2019\Community\VC\Tools\MSVC\14.29.30133\atlmfc\include\cstringt.h

; 2441 : 		CStringT strResult( str2.GetManager() );

  000ff	8d 4d 10	 lea	 ecx, DWORD PTR _strData$[ebp]
; File D:\git\src\IBK\IBK_DRFN\ProjSrc\SrcChartEx\ChartOCX\ScaleDraw\DataHorzScaleDrawer.cpp

; 437  : 		strData = '+' + strData;

  00102	c6 45 fc 03	 mov	 BYTE PTR __$EHRec$[ebp+8], 3
; File C:\Program Files (x86)\Microsoft Visual Studio\2019\Community\VC\Tools\MSVC\14.29.30133\atlmfc\include\cstringt.h

; 2441 : 		CStringT strResult( str2.GetManager() );

  00106	ff 15 00 00 00
	00		 call	 DWORD PTR __imp_?GetManager@?$CStringT@DV?$StrTraitMFC_DLL@DV?$ChTraitsCRT@D@ATL@@@@@ATL@@QBEPAUIAtlStringMgr@2@XZ
  0010c	50		 push	 eax
  0010d	8d 4d f0	 lea	 ecx, DWORD PTR $T4[ebp]
  00110	ff 15 00 00 00
	00		 call	 DWORD PTR __imp_??0?$CStringT@DV?$StrTraitMFC_DLL@DV?$ChTraitsCRT@D@ATL@@@@@ATL@@QAE@PAUIAtlStringMgr@1@@Z
; File C:\Program Files (x86)\Microsoft Visual Studio\2019\Community\VC\Tools\MSVC\14.29.30133\atlmfc\include\atlsimpstr.h

; 519  : 		return( GetData()->nDataLength );

  00116	8b 45 10	 mov	 eax, DWORD PTR _strData$[ebp]
; File C:\Program Files (x86)\Microsoft Visual Studio\2019\Community\VC\Tools\MSVC\14.29.30133\atlmfc\include\cstringt.h

; 2446 : 		return( strResult );

  00119	83 cb 04	 or	 ebx, 4
  0011c	c6 45 0f 2b	 mov	 BYTE PTR _chTemp$7[ebp], 43 ; 0000002bH
  00120	89 5d e8	 mov	 DWORD PTR $T2[ebp], ebx
  00123	ff 70 f4	 push	 DWORD PTR [eax-12]
  00126	50		 push	 eax
  00127	6a 01		 push	 1
  00129	8d 45 0f	 lea	 eax, DWORD PTR _chTemp$7[ebp]
  0012c	50		 push	 eax
  0012d	8d 45 f0	 lea	 eax, DWORD PTR $T4[ebp]
  00130	50		 push	 eax
  00131	ff 15 00 00 00
	00		 call	 DWORD PTR __imp_?Concatenate@?$CSimpleStringT@D$00@ATL@@KAXAAV12@PBDH1H@Z
  00137	83 c4 14	 add	 esp, 20			; 00000014H
; File D:\git\src\IBK\IBK_DRFN\ProjSrc\SrcChartEx\ChartOCX\ScaleDraw\DataHorzScaleDrawer.cpp

; 437  : 		strData = '+' + strData;

  0013a	8d 45 f0	 lea	 eax, DWORD PTR $T4[ebp]
  0013d	8d 4d 10	 lea	 ecx, DWORD PTR _strData$[ebp]
  00140	50		 push	 eax
  00141	ff 15 00 00 00
	00		 call	 DWORD PTR __imp_??4?$CStringT@DV?$StrTraitMFC_DLL@DV?$ChTraitsCRT@D@ATL@@@@@ATL@@QAEAAV01@ABV01@@Z
  00147	8d 4d f0	 lea	 ecx, DWORD PTR $T4[ebp]
  0014a	c6 45 fc 02	 mov	 BYTE PTR __$EHRec$[ebp+8], 2
  0014e	ff 15 00 00 00
	00		 call	 DWORD PTR __imp_??1?$CStringT@DV?$StrTraitMFC_DLL@DV?$ChTraitsCRT@D@ATL@@@@@ATL@@QAE@XZ
$LN4@GetData:

; 438  : 
; 439  : 	return strData;

  00154	8b 4d 08	 mov	 ecx, DWORD PTR ___$ReturnUdt$[ebp]
  00157	8d 45 10	 lea	 eax, DWORD PTR _strData$[ebp]
  0015a	50		 push	 eax
  0015b	ff 15 00 00 00
	00		 call	 DWORD PTR __imp_??0?$CStringT@DV?$StrTraitMFC_DLL@DV?$ChTraitsCRT@D@ATL@@@@@ATL@@QAE@ABV01@@Z
  00161	8d 4d 10	 lea	 ecx, DWORD PTR _strData$[ebp]
  00164	ff 15 00 00 00
	00		 call	 DWORD PTR __imp_??1?$CStringT@DV?$StrTraitMFC_DLL@DV?$ChTraitsCRT@D@ATL@@@@@ATL@@QAE@XZ
$LN42@GetData:

; 440  : }

  0016a	8b 45 08	 mov	 eax, DWORD PTR ___$ReturnUdt$[ebp]
  0016d	8b 4d f4	 mov	 ecx, DWORD PTR __$EHRec$[ebp]
  00170	64 89 0d 00 00
	00 00		 mov	 DWORD PTR fs:0, ecx
  00177	59		 pop	 ecx
  00178	5e		 pop	 esi
  00179	5b		 pop	 ebx
  0017a	8b e5		 mov	 esp, ebp
  0017c	5d		 pop	 ebp
  0017d	c2 0c 00	 ret	 12			; 0000000cH
_TEXT	ENDS
;	COMDAT text$x
text$x	SEGMENT
__unwindfunclet$?GetData@CLeftRightScaleDrawer@@ABE?AV?$CStringT@DV?$StrTraitMFC_DLL@DV?$ChTraitsCRT@D@ATL@@@@@ATL@@ABNAAN@Z$1:
  00000	8d 4d ec	 lea	 ecx, DWORD PTR $T3[ebp]
  00003	ff 25 00 00 00
	00		 jmp	 DWORD PTR __imp_??1?$CStringT@DV?$StrTraitMFC_DLL@DV?$ChTraitsCRT@D@ATL@@@@@ATL@@QAE@XZ
__unwindfunclet$?GetData@CLeftRightScaleDrawer@@ABE?AV?$CStringT@DV?$StrTraitMFC_DLL@DV?$ChTraitsCRT@D@ATL@@@@@ATL@@ABNAAN@Z$2:
  00009	8d 4d 10	 lea	 ecx, DWORD PTR _strData$[ebp]
  0000c	ff 25 00 00 00
	00		 jmp	 DWORD PTR __imp_??1?$CStringT@DV?$StrTraitMFC_DLL@DV?$ChTraitsCRT@D@ATL@@@@@ATL@@QAE@XZ
__unwindfunclet$?GetData@CLeftRightScaleDrawer@@ABE?AV?$CStringT@DV?$StrTraitMFC_DLL@DV?$ChTraitsCRT@D@ATL@@@@@ATL@@ABNAAN@Z$5:
  00012	8b 45 e8	 mov	 eax, DWORD PTR $T2[ebp]
  00015	83 e0 04	 and	 eax, 4
  00018	0f 84 0d 00 00
	00		 je	 $LN33@GetData
  0001e	83 65 e8 fb	 and	 DWORD PTR $T2[ebp], -5	; fffffffbH
  00022	8d 4d f0	 lea	 ecx, DWORD PTR $T4[ebp]
  00025	ff 25 00 00 00
	00		 jmp	 DWORD PTR __imp_??1?$CStringT@DV?$StrTraitMFC_DLL@DV?$ChTraitsCRT@D@ATL@@@@@ATL@@QAE@XZ
$LN33@GetData:
  0002b	c3		 ret	 0
  0002c	cc		 int	 3
  0002d	cc		 int	 3
  0002e	cc		 int	 3
  0002f	cc		 int	 3
  00030	cc		 int	 3
__ehhandler$?GetData@CLeftRightScaleDrawer@@ABE?AV?$CStringT@DV?$StrTraitMFC_DLL@DV?$ChTraitsCRT@D@ATL@@@@@ATL@@ABNAAN@Z:
  00031	90		 npad	 1
  00032	90		 npad	 1
  00033	8b 54 24 08	 mov	 edx, DWORD PTR [esp+8]
  00037	8d 42 0c	 lea	 eax, DWORD PTR [edx+12]
  0003a	8b 4a e8	 mov	 ecx, DWORD PTR [edx-24]
  0003d	33 c8		 xor	 ecx, eax
  0003f	e8 00 00 00 00	 call	 @__security_check_cookie@4
  00044	b8 00 00 00 00	 mov	 eax, OFFSET __ehfuncinfo$?GetData@CLeftRightScaleDrawer@@ABE?AV?$CStringT@DV?$StrTraitMFC_DLL@DV?$ChTraitsCRT@D@ATL@@@@@ATL@@ABNAAN@Z
  00049	e9 00 00 00 00	 jmp	 ___CxxFrameHandler3
text$x	ENDS
?GetData@CLeftRightScaleDrawer@@ABE?AV?$CStringT@DV?$StrTraitMFC_DLL@DV?$ChTraitsCRT@D@ATL@@@@@ATL@@ABNAAN@Z ENDP ; CLeftRightScaleDrawer::GetData
; Function compile flags: /Ogtp
; File D:\git\src\IBK\IBK_DRFN\ProjSrc\SrcChartEx\ChartOCX\ScaleDraw\DataHorzScaleDrawer.cpp
;	COMDAT ?GetRealMinMax_FixedRate@CLeftRightScaleDrawer@@ABEXABVCDisplayDataMinMax@@AAN1@Z
_TEXT	SEGMENT
_absMin$1$ = -16					; size = 8
tv139 = -8						; size = 8
tv134 = -8						; size = 8
_displayDataMinMax$ = 8					; size = 4
_dMin$ = 12						; size = 4
_dMax$ = 16						; size = 4
?GetRealMinMax_FixedRate@CLeftRightScaleDrawer@@ABEXABVCDisplayDataMinMax@@AAN1@Z PROC ; CLeftRightScaleDrawer::GetRealMinMax_FixedRate, COMDAT
; _this$ = ecx

; 410  : {

  00000	55		 push	 ebp
  00001	8b ec		 mov	 ebp, esp
  00003	83 ec 10	 sub	 esp, 16			; 00000010H

; 411  : 	// 
; 412  : 	double absMin = fabs(displayDataMinMax.GetDisplayMin());

  00006	8b 4d 08	 mov	 ecx, DWORD PTR _displayDataMinMax$[ebp]
  00009	e8 00 00 00 00	 call	 ?GetDisplayMin@CDisplayDataMinMax@@QBENXZ ; CDisplayDataMinMax::GetDisplayMin

; 413  : 	double absMax = fabs(displayDataMinMax.GetDisplayMax());

  0000e	8b 4d 08	 mov	 ecx, DWORD PTR _displayDataMinMax$[ebp]
  00011	dd 5d f8	 fstp	 QWORD PTR tv139[ebp]
  00014	f2 0f 10 45 f8	 movsd	 xmm0, QWORD PTR tv139[ebp]
  00019	0f 54 05 00 00
	00 00		 andps	 xmm0, QWORD PTR __xmm@7fffffffffffffff7fffffffffffffff
  00020	f2 0f 11 45 f0	 movsd	 QWORD PTR _absMin$1$[ebp], xmm0
  00025	e8 00 00 00 00	 call	 ?GetDisplayMax@CDisplayDataMinMax@@QBENXZ ; CDisplayDataMinMax::GetDisplayMax

; 414  : 
; 415  : 	if(absMin > absMax){

  0002a	f2 0f 10 4d f0	 movsd	 xmm1, QWORD PTR _absMin$1$[ebp]
  0002f	8b 45 0c	 mov	 eax, DWORD PTR _dMin$[ebp]
  00032	dd 5d f8	 fstp	 QWORD PTR tv134[ebp]
  00035	f2 0f 10 55 f8	 movsd	 xmm2, QWORD PTR tv134[ebp]
  0003a	0f 54 15 00 00
	00 00		 andps	 xmm2, QWORD PTR __xmm@7fffffffffffffff7fffffffffffffff
  00041	66 0f 2f ca	 comisd	 xmm1, xmm2
  00045	76 1b		 jbe	 SHORT $LN2@GetRealMin

; 416  : 		dMin = -absMin;

  00047	0f 28 c1	 movaps	 xmm0, xmm1
  0004a	0f 57 05 00 00
	00 00		 xorps	 xmm0, QWORD PTR __xmm@80000000000000008000000000000000
  00051	f2 0f 11 00	 movsd	 QWORD PTR [eax], xmm0

; 417  : 		dMax = absMin;

  00055	8b 45 10	 mov	 eax, DWORD PTR _dMax$[ebp]
  00058	f2 0f 11 08	 movsd	 QWORD PTR [eax], xmm1

; 422  : 	}
; 423  : }

  0005c	8b e5		 mov	 esp, ebp
  0005e	5d		 pop	 ebp
  0005f	c2 0c 00	 ret	 12			; 0000000cH
$LN2@GetRealMin:

; 418  : 	}
; 419  : 	else{
; 420  : 		dMin = -absMax;

  00062	0f 28 c2	 movaps	 xmm0, xmm2
  00065	0f 57 05 00 00
	00 00		 xorps	 xmm0, QWORD PTR __xmm@80000000000000008000000000000000
  0006c	f2 0f 11 00	 movsd	 QWORD PTR [eax], xmm0

; 421  : 		dMax = absMax;

  00070	8b 45 10	 mov	 eax, DWORD PTR _dMax$[ebp]
  00073	f2 0f 11 10	 movsd	 QWORD PTR [eax], xmm2

; 422  : 	}
; 423  : }

  00077	8b e5		 mov	 esp, ebp
  00079	5d		 pop	 ebp
  0007a	c2 0c 00	 ret	 12			; 0000000cH
?GetRealMinMax_FixedRate@CLeftRightScaleDrawer@@ABEXABVCDisplayDataMinMax@@AAN1@Z ENDP ; CLeftRightScaleDrawer::GetRealMinMax_FixedRate
_TEXT	ENDS
; Function compile flags: /Ogtp
; File D:\git\src\IBK\IBK_DRFN\ProjSrc\SrcChartEx\ChartOCX\ScaleDraw\DataHorzScaleDrawer.cpp
;	COMDAT ?GetRealMinMax@CLeftRightScaleDrawer@@ABEXABVCDrawingHorzScaleData@@ABV?$CStringT@DV?$StrTraitMFC_DLL@DV?$ChTraitsCRT@D@ATL@@@@@ATL@@AAN222@Z
_TEXT	SEGMENT
$T1 = -32						; size = 16
$T2 = -32						; size = 16
tv95 = -16						; size = 8
tv81 = -16						; size = 8
$T3 = -16						; size = 8
$T4 = -16						; size = 8
$T5 = -16						; size = 8
$T6 = -16						; size = 8
$T7 = -16						; size = 8
tv263 = -8						; size = 8
tv257 = -8						; size = 8
_drawingHorzScaleData$ = 8				; size = 4
$T8 = 12						; size = 4
_strPacketType$ = 12					; size = 4
_dMiddle_Min$ = 16					; size = 4
_dMiddle_Max$ = 20					; size = 4
_dMin$ = 24						; size = 4
_dMax$ = 28						; size = 4
?GetRealMinMax@CLeftRightScaleDrawer@@ABEXABVCDrawingHorzScaleData@@ABV?$CStringT@DV?$StrTraitMFC_DLL@DV?$ChTraitsCRT@D@ATL@@@@@ATL@@AAN222@Z PROC ; CLeftRightScaleDrawer::GetRealMinMax, COMDAT
; _this$ = ecx

; 392  : {

  00000	55		 push	 ebp
  00001	8b ec		 mov	 ebp, esp
  00003	83 ec 20	 sub	 esp, 32			; 00000020H
  00006	56		 push	 esi
  00007	57		 push	 edi

; 393  : 	int nRoundPosition = CDataConversion::GetDecimalDownCount(strPacketType) +1;

  00008	6a 01		 push	 1
  0000a	ff 75 0c	 push	 DWORD PTR _strPacketType$[ebp]
  0000d	e8 00 00 00 00	 call	 ?GetDecimalDownCount@CDataConversion@@SAHABV?$CStringT@DV?$StrTraitMFC_DLL@DV?$ChTraitsCRT@D@ATL@@@@@ATL@@_N@Z ; CDataConversion::GetDecimalDownCount

; 394  : 
; 395  : 	// 
; 396  : 	if(drawingHorzScaleData.GetHeadGraphStyle().GetGraphBarStyle() == CGraphBaseData::FixedRateLeftRightBar){

  00012	8b 75 08	 mov	 esi, DWORD PTR _drawingHorzScaleData$[ebp]
  00015	83 c4 08	 add	 esp, 8
  00018	8b ce		 mov	 ecx, esi
  0001a	8d 78 01	 lea	 edi, DWORD PTR [eax+1]
  0001d	8d 45 0c	 lea	 eax, DWORD PTR $T8[ebp]
  00020	50		 push	 eax
  00021	e8 00 00 00 00	 call	 ?GetHeadGraphStyle@CDrawingHorzScaleData@@QBE?AVCGraphStyle@@XZ ; CDrawingHorzScaleData::GetHeadGraphStyle
  00026	8b ce		 mov	 ecx, esi
  00028	83 38 0d	 cmp	 DWORD PTR [eax], 13	; 0000000dH
  0002b	8d 45 e0	 lea	 eax, DWORD PTR $T2[ebp]
  0002e	50		 push	 eax
  0002f	0f 85 b4 00 00
	00		 jne	 $LN2@GetRealMin

; 397  : 		GetRealMinMax_FixedRate(drawingHorzScaleData.GetDisplayDataMinMax(), dMin, dMax);

  00035	e8 00 00 00 00	 call	 ?GetDisplayDataMinMax@CDrawingHorzScaleData@@QBE?AVCDisplayDataMinMax@@XZ ; CDrawingHorzScaleData::GetDisplayDataMinMax
  0003a	8b f0		 mov	 esi, eax

; 412  : 	double absMin = fabs(displayDataMinMax.GetDisplayMin());

  0003c	8b ce		 mov	 ecx, esi
  0003e	e8 00 00 00 00	 call	 ?GetDisplayMin@CDisplayDataMinMax@@QBENXZ ; CDisplayDataMinMax::GetDisplayMin
  00043	dd 5d f8	 fstp	 QWORD PTR tv263[ebp]
  00046	f2 0f 10 45 f8	 movsd	 xmm0, QWORD PTR tv263[ebp]

; 413  : 	double absMax = fabs(displayDataMinMax.GetDisplayMax());

  0004b	8b ce		 mov	 ecx, esi
  0004d	0f 54 05 00 00
	00 00		 andps	 xmm0, QWORD PTR __xmm@7fffffffffffffff7fffffffffffffff
  00054	f2 0f 11 45 f0	 movsd	 QWORD PTR $T4[ebp], xmm0
  00059	e8 00 00 00 00	 call	 ?GetDisplayMax@CDisplayDataMinMax@@QBENXZ ; CDisplayDataMinMax::GetDisplayMax

; 414  : 
; 415  : 	if(absMin > absMax){

  0005e	f2 0f 10 4d f0	 movsd	 xmm1, QWORD PTR $T4[ebp]
  00063	8b 45 18	 mov	 eax, DWORD PTR _dMin$[ebp]
  00066	dd 5d f8	 fstp	 QWORD PTR tv257[ebp]
  00069	f2 0f 10 55 f8	 movsd	 xmm2, QWORD PTR tv257[ebp]
  0006e	0f 54 15 00 00
	00 00		 andps	 xmm2, QWORD PTR __xmm@7fffffffffffffff7fffffffffffffff
  00075	66 0f 2f ca	 comisd	 xmm1, xmm2
  00079	76 17		 jbe	 SHORT $LN6@GetRealMin

; 416  : 		dMin = -absMin;

  0007b	0f 28 c1	 movaps	 xmm0, xmm1
  0007e	0f 57 05 00 00
	00 00		 xorps	 xmm0, QWORD PTR __xmm@80000000000000008000000000000000
  00085	f2 0f 11 00	 movsd	 QWORD PTR [eax], xmm0

; 417  : 		dMax = absMin;

  00089	8b 45 1c	 mov	 eax, DWORD PTR _dMax$[ebp]
  0008c	f2 0f 11 08	 movsd	 QWORD PTR [eax], xmm1

; 418  : 	}

  00090	eb 18		 jmp	 SHORT $LN7@GetRealMin
$LN6@GetRealMin:

; 419  : 	else{
; 420  : 		dMin = -absMax;

  00092	0f 28 c2	 movaps	 xmm0, xmm2

; 421  : 		dMax = absMax;

  00095	0f 28 ca	 movaps	 xmm1, xmm2
  00098	0f 57 05 00 00
	00 00		 xorps	 xmm0, QWORD PTR __xmm@80000000000000008000000000000000
  0009f	f2 0f 11 00	 movsd	 QWORD PTR [eax], xmm0
  000a3	8b 45 1c	 mov	 eax, DWORD PTR _dMax$[ebp]
  000a6	f2 0f 11 10	 movsd	 QWORD PTR [eax], xmm2
$LN7@GetRealMin:

; 398  : 		dMiddle_Max = CMath::Floor(dMax/2.0, nRoundPosition);

  000aa	f2 0f 59 0d 00
	00 00 00	 mulsd	 xmm1, QWORD PTR __real@3fe0000000000000
  000b2	8d 45 f0	 lea	 eax, DWORD PTR $T7[ebp]
  000b5	57		 push	 edi
  000b6	50		 push	 eax
  000b7	f2 0f 11 4d f0	 movsd	 QWORD PTR $T7[ebp], xmm1
  000bc	e8 00 00 00 00	 call	 ?Floor@CMath@@SANABNH@Z	; CMath::Floor
  000c1	8b 45 14	 mov	 eax, DWORD PTR _dMiddle_Max$[ebp]
  000c4	83 c4 08	 add	 esp, 8
  000c7	dd 5d f0	 fstp	 QWORD PTR tv81[ebp]
  000ca	f2 0f 10 45 f0	 movsd	 xmm0, QWORD PTR tv81[ebp]
  000cf	f2 0f 11 00	 movsd	 QWORD PTR [eax], xmm0

; 406  : 	}
; 407  : }

  000d3	8b 45 10	 mov	 eax, DWORD PTR _dMiddle_Min$[ebp]
  000d6	0f 57 05 00 00
	00 00		 xorps	 xmm0, QWORD PTR __xmm@80000000000000008000000000000000
  000dd	5f		 pop	 edi
  000de	5e		 pop	 esi
  000df	f2 0f 11 00	 movsd	 QWORD PTR [eax], xmm0
  000e3	8b e5		 mov	 esp, ebp
  000e5	5d		 pop	 ebp
  000e6	c2 18 00	 ret	 24			; 00000018H
$LN2@GetRealMin:

; 399  : 		dMiddle_Min = -dMiddle_Max;
; 400  : 	}
; 401  : 	else{
; 402  : 		dMin = drawingHorzScaleData.GetDisplayDataMinMax().GetDisplayMin();

  000e9	e8 00 00 00 00	 call	 ?GetDisplayDataMinMax@CDrawingHorzScaleData@@QBE?AVCDisplayDataMinMax@@XZ ; CDrawingHorzScaleData::GetDisplayDataMinMax
  000ee	8b c8		 mov	 ecx, eax
  000f0	e8 00 00 00 00	 call	 ?GetDisplayMin@CDisplayDataMinMax@@QBENXZ ; CDisplayDataMinMax::GetDisplayMin
  000f5	8b 75 18	 mov	 esi, DWORD PTR _dMin$[ebp]

; 403  : 		dMax = drawingHorzScaleData.GetDisplayDataMinMax().GetDisplayMax();

  000f8	8d 45 e0	 lea	 eax, DWORD PTR $T1[ebp]
  000fb	8b 4d 08	 mov	 ecx, DWORD PTR _drawingHorzScaleData$[ebp]
  000fe	50		 push	 eax
  000ff	dd 1e		 fstp	 QWORD PTR [esi]
  00101	e8 00 00 00 00	 call	 ?GetDisplayDataMinMax@CDrawingHorzScaleData@@QBE?AVCDisplayDataMinMax@@XZ ; CDrawingHorzScaleData::GetDisplayDataMinMax
  00106	8b c8		 mov	 ecx, eax
  00108	e8 00 00 00 00	 call	 ?GetDisplayMax@CDisplayDataMinMax@@QBENXZ ; CDisplayDataMinMax::GetDisplayMax
  0010d	8b 45 1c	 mov	 eax, DWORD PTR _dMax$[ebp]
  00110	dd 5d f0	 fstp	 QWORD PTR tv95[ebp]
  00113	f2 0f 10 45 f0	 movsd	 xmm0, QWORD PTR tv95[ebp]

; 404  : 		dMiddle_Max = CMath::Floor(dMax/2.0, nRoundPosition);

  00118	57		 push	 edi
  00119	f2 0f 11 00	 movsd	 QWORD PTR [eax], xmm0
  0011d	8d 45 f0	 lea	 eax, DWORD PTR $T6[ebp]
  00120	f2 0f 59 05 00
	00 00 00	 mulsd	 xmm0, QWORD PTR __real@3fe0000000000000
  00128	50		 push	 eax
  00129	f2 0f 11 45 f0	 movsd	 QWORD PTR $T6[ebp], xmm0
  0012e	e8 00 00 00 00	 call	 ?Floor@CMath@@SANABNH@Z	; CMath::Floor
  00133	8b 45 14	 mov	 eax, DWORD PTR _dMiddle_Max$[ebp]

; 405  : 		dMiddle_Min = CMath::Floor(dMin/2.0, nRoundPosition);

  00136	57		 push	 edi
  00137	dd 18		 fstp	 QWORD PTR [eax]
  00139	f2 0f 10 06	 movsd	 xmm0, QWORD PTR [esi]
  0013d	8d 45 f0	 lea	 eax, DWORD PTR $T5[ebp]
  00140	f2 0f 59 05 00
	00 00 00	 mulsd	 xmm0, QWORD PTR __real@3fe0000000000000
  00148	50		 push	 eax
  00149	f2 0f 11 45 f0	 movsd	 QWORD PTR $T5[ebp], xmm0
  0014e	e8 00 00 00 00	 call	 ?Floor@CMath@@SANABNH@Z	; CMath::Floor

; 406  : 	}
; 407  : }

  00153	8b 45 10	 mov	 eax, DWORD PTR _dMiddle_Min$[ebp]
  00156	83 c4 10	 add	 esp, 16			; 00000010H
  00159	dd 5d f0	 fstp	 QWORD PTR $T3[ebp]
  0015c	f2 0f 10 45 f0	 movsd	 xmm0, QWORD PTR $T3[ebp]
  00161	5f		 pop	 edi
  00162	f2 0f 11 00	 movsd	 QWORD PTR [eax], xmm0
  00166	5e		 pop	 esi
  00167	8b e5		 mov	 esp, ebp
  00169	5d		 pop	 ebp
  0016a	c2 18 00	 ret	 24			; 00000018H
?GetRealMinMax@CLeftRightScaleDrawer@@ABEXABVCDrawingHorzScaleData@@ABV?$CStringT@DV?$StrTraitMFC_DLL@DV?$ChTraitsCRT@D@ATL@@@@@ATL@@AAN222@Z ENDP ; CLeftRightScaleDrawer::GetRealMinMax
_TEXT	ENDS
; Function compile flags: /Ogtp
; File D:\git\src\IBK\IBK_DRFN\ProjSrc\SrcChartEx\ChartOCX\ScaleDraw\DataHorzScaleDrawer.cpp
;	COMDAT ?GetDataListAndMinMax@CLeftRightScaleDrawer@@ABE_NABVCDrawingHorzScaleData@@AAV?$CList@NN@@AAN2@Z
_TEXT	SEGMENT
_displayDataMinMax$ = -88				; size = 16
_dStandardData$1$ = -72					; size = 8
$T2 = -64						; size = 16
$T3 = -64						; size = 16
$T4 = -56						; size = 8
tv334 = -48						; size = 8
tv321 = -48						; size = 8
tv316 = -48						; size = 8
_dMiddle_Min$1$ = -48					; size = 8
$T5 = -48						; size = 8
$T6 = -48						; size = 8
_dMiddle_Min$ = -48					; size = 8
_dRealMin$ = -40					; size = 8
_dRealMax$ = -32					; size = 8
$T7 = -24						; size = 8
_dMiddle_Max$ = -24					; size = 8
$T8 = -20						; size = 4
$T9 = -16						; size = 4
__$EHRec$ = -12						; size = 12
_nRoundPosition$1$ = 8					; size = 4
_drawingHorzScaleData$ = 8				; size = 4
_dataList$ = 12						; size = 4
_dMin$ = 16						; size = 4
_dMax$ = 20						; size = 4
?GetDataListAndMinMax@CLeftRightScaleDrawer@@ABE_NABVCDrawingHorzScaleData@@AAV?$CList@NN@@AAN2@Z PROC ; CLeftRightScaleDrawer::GetDataListAndMinMax, COMDAT
; _this$ = ecx

; 366  : {

  00000	55		 push	 ebp
  00001	8b ec		 mov	 ebp, esp
  00003	6a ff		 push	 -1
  00005	68 00 00 00 00	 push	 __ehhandler$?GetDataListAndMinMax@CLeftRightScaleDrawer@@ABE_NABVCDrawingHorzScaleData@@AAV?$CList@NN@@AAN2@Z
  0000a	64 a1 00 00 00
	00		 mov	 eax, DWORD PTR fs:0
  00010	50		 push	 eax
  00011	83 ec 4c	 sub	 esp, 76			; 0000004cH
  00014	56		 push	 esi
  00015	57		 push	 edi
  00016	a1 00 00 00 00	 mov	 eax, DWORD PTR ___security_cookie
  0001b	33 c5		 xor	 eax, ebp
  0001d	50		 push	 eax
  0001e	8d 45 f4	 lea	 eax, DWORD PTR __$EHRec$[ebp]
  00021	64 a3 00 00 00
	00		 mov	 DWORD PTR fs:0, eax

; 367  : 	CPacket* pPacket = drawingHorzScaleData.GetPacket();

  00027	8b 7d 08	 mov	 edi, DWORD PTR _drawingHorzScaleData$[ebp]
  0002a	8b cf		 mov	 ecx, edi
  0002c	e8 00 00 00 00	 call	 ?GetPacket@CDrawingHorzScaleData@@QBEPAVCPacket@@XZ ; CDrawingHorzScaleData::GetPacket
  00031	8b f0		 mov	 esi, eax

; 368  : 	if(pPacket == NULL || pPacket->GetCount() <= 0)

  00033	85 f6		 test	 esi, esi
  00035	0f 84 1e 02 00
	00		 je	 $LN3@GetDataLis
  0003b	8b 16		 mov	 edx, DWORD PTR [esi]
  0003d	8b ce		 mov	 ecx, esi
  0003f	8b 52 14	 mov	 edx, DWORD PTR [edx+20]
  00042	ff d2		 call	 edx
  00044	85 c0		 test	 eax, eax
  00046	0f 8e 0d 02 00
	00		 jle	 $LN3@GetDataLis

; 370  : 
; 371  : 	double dStandardData = pPacket->GetStandardValue();

  0004c	6a 00		 push	 0
  0004e	8b ce		 mov	 ecx, esi
  00050	ff 15 00 00 00
	00		 call	 DWORD PTR __imp_?GetStandardValue@CPacket@@QAENH@Z
  00056	0f 57 c0	 xorps	 xmm0, xmm0

; 372  : 	if(dStandardData < 0)
; 373  : 		dStandardData = 0;
; 374  : 
; 375  : 	double dMiddle_Min(0.0), dMiddle_Max(0.0), dRealMin(0.0), dRealMax(0.0);
; 376  : 	GetRealMinMax(drawingHorzScaleData, pPacket->GetType(), dMiddle_Min, dMiddle_Max, dRealMin, dRealMax);

  00059	8d 45 f0	 lea	 eax, DWORD PTR $T9[ebp]
  0005c	dd 5d d0	 fstp	 QWORD PTR tv334[ebp]
  0005f	f2 0f 5f 45 d0	 maxsd	 xmm0, QWORD PTR tv334[ebp]
  00064	6a 01		 push	 1
  00066	50		 push	 eax
  00067	8b ce		 mov	 ecx, esi
  00069	f2 0f 11 45 b8	 movsd	 QWORD PTR _dStandardData$1$[ebp], xmm0
  0006e	ff 15 00 00 00
	00		 call	 DWORD PTR __imp_?GetType@CPacket@@QAE?AV?$CStringT@DV?$StrTraitMFC_DLL@DV?$ChTraitsCRT@D@ATL@@@@@ATL@@_N@Z

; 393  : 	int nRoundPosition = CDataConversion::GetDecimalDownCount(strPacketType) +1;

  00074	6a 01		 push	 1
  00076	50		 push	 eax

; 372  : 	if(dStandardData < 0)
; 373  : 		dStandardData = 0;
; 374  : 
; 375  : 	double dMiddle_Min(0.0), dMiddle_Max(0.0), dRealMin(0.0), dRealMax(0.0);
; 376  : 	GetRealMinMax(drawingHorzScaleData, pPacket->GetType(), dMiddle_Min, dMiddle_Max, dRealMin, dRealMax);

  00077	c7 45 fc 00 00
	00 00		 mov	 DWORD PTR __$EHRec$[ebp+8], 0

; 393  : 	int nRoundPosition = CDataConversion::GetDecimalDownCount(strPacketType) +1;

  0007e	e8 00 00 00 00	 call	 ?GetDecimalDownCount@CDataConversion@@SAHABV?$CStringT@DV?$StrTraitMFC_DLL@DV?$ChTraitsCRT@D@ATL@@@@@ATL@@_N@Z ; CDataConversion::GetDecimalDownCount
  00083	83 c4 08	 add	 esp, 8

; 394  : 
; 395  : 	// 
; 396  : 	if(drawingHorzScaleData.GetHeadGraphStyle().GetGraphBarStyle() == CGraphBaseData::FixedRateLeftRightBar){

  00086	8b cf		 mov	 ecx, edi
  00088	8d 70 01	 lea	 esi, DWORD PTR [eax+1]
  0008b	8d 45 ec	 lea	 eax, DWORD PTR $T8[ebp]
  0008e	89 75 08	 mov	 DWORD PTR _nRoundPosition$1$[ebp], esi
  00091	50		 push	 eax
  00092	e8 00 00 00 00	 call	 ?GetHeadGraphStyle@CDrawingHorzScaleData@@QBE?AVCGraphStyle@@XZ ; CDrawingHorzScaleData::GetHeadGraphStyle
  00097	8b cf		 mov	 ecx, edi
  00099	83 38 0d	 cmp	 DWORD PTR [eax], 13	; 0000000dH
  0009c	8d 45 c0	 lea	 eax, DWORD PTR $T3[ebp]
  0009f	50		 push	 eax
  000a0	0f 85 8e 00 00
	00		 jne	 $LN8@GetDataLis

; 397  : 		GetRealMinMax_FixedRate(drawingHorzScaleData.GetDisplayDataMinMax(), dMin, dMax);

  000a6	e8 00 00 00 00	 call	 ?GetDisplayDataMinMax@CDrawingHorzScaleData@@QBE?AVCDisplayDataMinMax@@XZ ; CDrawingHorzScaleData::GetDisplayDataMinMax
  000ab	8b f0		 mov	 esi, eax

; 412  : 	double absMin = fabs(displayDataMinMax.GetDisplayMin());

  000ad	8b ce		 mov	 ecx, esi
  000af	e8 00 00 00 00	 call	 ?GetDisplayMin@CDisplayDataMinMax@@QBENXZ ; CDisplayDataMinMax::GetDisplayMin
  000b4	dd 5d d0	 fstp	 QWORD PTR tv321[ebp]
  000b7	f2 0f 10 45 d0	 movsd	 xmm0, QWORD PTR tv321[ebp]

; 413  : 	double absMax = fabs(displayDataMinMax.GetDisplayMax());

  000bc	8b ce		 mov	 ecx, esi
  000be	0f 54 05 00 00
	00 00		 andps	 xmm0, QWORD PTR __xmm@7fffffffffffffff7fffffffffffffff
  000c5	f2 0f 11 45 e8	 movsd	 QWORD PTR $T7[ebp], xmm0
  000ca	e8 00 00 00 00	 call	 ?GetDisplayMax@CDisplayDataMinMax@@QBENXZ ; CDisplayDataMinMax::GetDisplayMax

; 414  : 
; 415  : 	if(absMin > absMax){

  000cf	f2 0f 10 4d e8	 movsd	 xmm1, QWORD PTR $T7[ebp]
  000d4	dd 5d d0	 fstp	 QWORD PTR tv316[ebp]
  000d7	f2 0f 10 45 d0	 movsd	 xmm0, QWORD PTR tv316[ebp]
  000dc	0f 54 05 00 00
	00 00		 andps	 xmm0, QWORD PTR __xmm@7fffffffffffffff7fffffffffffffff
  000e3	66 0f 2f c8	 comisd	 xmm1, xmm0
  000e7	76 07		 jbe	 SHORT $LN12@GetDataLis

; 416  : 		dMin = -absMin;
; 417  : 		dMax = absMin;

  000e9	f2 0f 11 4d e0	 movsd	 QWORD PTR _dRealMax$[ebp], xmm1

; 418  : 	}

  000ee	eb 08		 jmp	 SHORT $LN13@GetDataLis
$LN12@GetDataLis:

; 419  : 	else{
; 420  : 		dMin = -absMax;
; 421  : 		dMax = absMax;

  000f0	f2 0f 11 45 e0	 movsd	 QWORD PTR _dRealMax$[ebp], xmm0
  000f5	0f 28 c8	 movaps	 xmm1, xmm0
$LN13@GetDataLis:

; 398  : 		dMiddle_Max = CMath::Floor(dMax/2.0, nRoundPosition);

  000f8	ff 75 08	 push	 DWORD PTR _nRoundPosition$1$[ebp]
  000fb	0f 28 c1	 movaps	 xmm0, xmm1
  000fe	8d 45 d0	 lea	 eax, DWORD PTR $T6[ebp]
  00101	f2 0f 59 0d 00
	00 00 00	 mulsd	 xmm1, QWORD PTR __real@3fe0000000000000
  00109	50		 push	 eax
  0010a	0f 57 05 00 00
	00 00		 xorps	 xmm0, QWORD PTR __xmm@80000000000000008000000000000000
  00111	f2 0f 11 45 d8	 movsd	 QWORD PTR _dRealMin$[ebp], xmm0
  00116	f2 0f 11 4d d0	 movsd	 QWORD PTR $T6[ebp], xmm1
  0011b	e8 00 00 00 00	 call	 ?Floor@CMath@@SANABNH@Z	; CMath::Floor
  00120	dd 5d e8	 fstp	 QWORD PTR _dMiddle_Max$[ebp]

; 399  : 		dMiddle_Min = -dMiddle_Max;

  00123	f2 0f 10 45 e8	 movsd	 xmm0, QWORD PTR _dMiddle_Max$[ebp]
  00128	83 c4 08	 add	 esp, 8
  0012b	0f 57 05 00 00
	00 00		 xorps	 xmm0, QWORD PTR __xmm@80000000000000008000000000000000

; 400  : 	}

  00132	eb 6a		 jmp	 SHORT $LN16@GetDataLis
$LN8@GetDataLis:

; 401  : 	else{
; 402  : 		dMin = drawingHorzScaleData.GetDisplayDataMinMax().GetDisplayMin();

  00134	e8 00 00 00 00	 call	 ?GetDisplayDataMinMax@CDrawingHorzScaleData@@QBE?AVCDisplayDataMinMax@@XZ ; CDrawingHorzScaleData::GetDisplayDataMinMax
  00139	8b c8		 mov	 ecx, eax
  0013b	e8 00 00 00 00	 call	 ?GetDisplayMin@CDisplayDataMinMax@@QBENXZ ; CDisplayDataMinMax::GetDisplayMin

; 403  : 		dMax = drawingHorzScaleData.GetDisplayDataMinMax().GetDisplayMax();

  00140	8d 45 c0	 lea	 eax, DWORD PTR $T2[ebp]
  00143	8b cf		 mov	 ecx, edi
  00145	50		 push	 eax
  00146	dd 5d d8	 fstp	 QWORD PTR _dRealMin$[ebp]
  00149	e8 00 00 00 00	 call	 ?GetDisplayDataMinMax@CDrawingHorzScaleData@@QBE?AVCDisplayDataMinMax@@XZ ; CDrawingHorzScaleData::GetDisplayDataMinMax
  0014e	8b c8		 mov	 ecx, eax
  00150	e8 00 00 00 00	 call	 ?GetDisplayMax@CDisplayDataMinMax@@QBENXZ ; CDisplayDataMinMax::GetDisplayMax
  00155	dd 5d e0	 fstp	 QWORD PTR _dRealMax$[ebp]

; 404  : 		dMiddle_Max = CMath::Floor(dMax/2.0, nRoundPosition);

  00158	f2 0f 10 45 e0	 movsd	 xmm0, QWORD PTR _dRealMax$[ebp]
  0015d	8d 45 d0	 lea	 eax, DWORD PTR $T5[ebp]
  00160	f2 0f 59 05 00
	00 00 00	 mulsd	 xmm0, QWORD PTR __real@3fe0000000000000
  00168	56		 push	 esi
  00169	50		 push	 eax
  0016a	f2 0f 11 45 d0	 movsd	 QWORD PTR $T5[ebp], xmm0
  0016f	e8 00 00 00 00	 call	 ?Floor@CMath@@SANABNH@Z	; CMath::Floor

; 405  : 		dMiddle_Min = CMath::Floor(dMin/2.0, nRoundPosition);

  00174	f2 0f 10 45 d8	 movsd	 xmm0, QWORD PTR _dRealMin$[ebp]
  00179	8d 45 c8	 lea	 eax, DWORD PTR $T4[ebp]
  0017c	f2 0f 59 05 00
	00 00 00	 mulsd	 xmm0, QWORD PTR __real@3fe0000000000000
  00184	56		 push	 esi
  00185	dd 5d e8	 fstp	 QWORD PTR _dMiddle_Max$[ebp]
  00188	50		 push	 eax
  00189	f2 0f 11 45 c8	 movsd	 QWORD PTR $T4[ebp], xmm0
  0018e	e8 00 00 00 00	 call	 ?Floor@CMath@@SANABNH@Z	; CMath::Floor
  00193	dd 5d d0	 fstp	 QWORD PTR _dMiddle_Min$[ebp]
  00196	f2 0f 10 45 d0	 movsd	 xmm0, QWORD PTR _dMiddle_Min$[ebp]
  0019b	83 c4 10	 add	 esp, 16			; 00000010H
$LN16@GetDataLis:

; 372  : 	if(dStandardData < 0)
; 373  : 		dStandardData = 0;
; 374  : 
; 375  : 	double dMiddle_Min(0.0), dMiddle_Max(0.0), dRealMin(0.0), dRealMax(0.0);
; 376  : 	GetRealMinMax(drawingHorzScaleData, pPacket->GetType(), dMiddle_Min, dMiddle_Max, dRealMin, dRealMax);

  0019e	8d 4d f0	 lea	 ecx, DWORD PTR $T9[ebp]
  001a1	f2 0f 11 45 d0	 movsd	 QWORD PTR _dMiddle_Min$1$[ebp], xmm0
  001a6	c7 45 fc ff ff
	ff ff		 mov	 DWORD PTR __$EHRec$[ebp+8], -1
  001ad	ff 15 00 00 00
	00		 call	 DWORD PTR __imp_??1?$CStringT@DV?$StrTraitMFC_DLL@DV?$ChTraitsCRT@D@ATL@@@@@ATL@@QAE@XZ

; 377  : 
; 378  : 	dataList.AddTail(dRealMin);

  001b3	f2 0f 10 45 d8	 movsd	 xmm0, QWORD PTR _dRealMin$[ebp]
  001b8	83 ec 08	 sub	 esp, 8
  001bb	8b 75 0c	 mov	 esi, DWORD PTR _dataList$[ebp]
  001be	8b ce		 mov	 ecx, esi
  001c0	f2 0f 11 04 24	 movsd	 QWORD PTR [esp], xmm0
  001c5	e8 00 00 00 00	 call	 ?AddTail@?$CList@NN@@QAEPAU__POSITION@@N@Z ; CList<double,double>::AddTail

; 379  : 	dataList.AddTail(dMiddle_Min);

  001ca	f2 0f 10 45 d0	 movsd	 xmm0, QWORD PTR _dMiddle_Min$1$[ebp]
  001cf	83 ec 08	 sub	 esp, 8
  001d2	8b ce		 mov	 ecx, esi
  001d4	f2 0f 11 04 24	 movsd	 QWORD PTR [esp], xmm0
  001d9	e8 00 00 00 00	 call	 ?AddTail@?$CList@NN@@QAEPAU__POSITION@@N@Z ; CList<double,double>::AddTail

; 380  : 	dataList.AddTail(dStandardData);

  001de	f2 0f 10 45 b8	 movsd	 xmm0, QWORD PTR _dStandardData$1$[ebp]
  001e3	83 ec 08	 sub	 esp, 8
  001e6	8b ce		 mov	 ecx, esi
  001e8	f2 0f 11 04 24	 movsd	 QWORD PTR [esp], xmm0
  001ed	e8 00 00 00 00	 call	 ?AddTail@?$CList@NN@@QAEPAU__POSITION@@N@Z ; CList<double,double>::AddTail

; 381  : 	dataList.AddTail(dMiddle_Max);

  001f2	f2 0f 10 45 e8	 movsd	 xmm0, QWORD PTR _dMiddle_Max$[ebp]
  001f7	83 ec 08	 sub	 esp, 8
  001fa	8b ce		 mov	 ecx, esi
  001fc	f2 0f 11 04 24	 movsd	 QWORD PTR [esp], xmm0
  00201	e8 00 00 00 00	 call	 ?AddTail@?$CList@NN@@QAEPAU__POSITION@@N@Z ; CList<double,double>::AddTail

; 382  : 	dataList.AddTail(dRealMax);

  00206	f2 0f 10 45 e0	 movsd	 xmm0, QWORD PTR _dRealMax$[ebp]
  0020b	83 ec 08	 sub	 esp, 8
  0020e	8b ce		 mov	 ecx, esi
  00210	f2 0f 11 04 24	 movsd	 QWORD PTR [esp], xmm0
  00215	e8 00 00 00 00	 call	 ?AddTail@?$CList@NN@@QAEPAU__POSITION@@N@Z ; CList<double,double>::AddTail

; 383  : 
; 384  : 	//   . (6%)
; 385  : 	CDisplayDataMinMax displayDataMinMax(dRealMin, dRealMax);

  0021a	8d 45 e0	 lea	 eax, DWORD PTR _dRealMax$[ebp]
  0021d	50		 push	 eax
  0021e	8d 45 d8	 lea	 eax, DWORD PTR _dRealMin$[ebp]
  00221	50		 push	 eax
  00222	8d 4d a8	 lea	 ecx, DWORD PTR _displayDataMinMax$[ebp]
  00225	e8 00 00 00 00	 call	 ??0CDisplayDataMinMax@@QAE@ABN0@Z ; CDisplayDataMinMax::CDisplayDataMinMax

; 386  : 	dMin = displayDataMinMax.GetMarginDisplayMin();

  0022a	8d 4d a8	 lea	 ecx, DWORD PTR _displayDataMinMax$[ebp]
  0022d	e8 00 00 00 00	 call	 ?GetMarginDisplayMin@CDisplayDataMinMax@@QBENXZ ; CDisplayDataMinMax::GetMarginDisplayMin
  00232	8b 45 10	 mov	 eax, DWORD PTR _dMin$[ebp]

; 387  : 	dMax = displayDataMinMax.GetMarginDisplayMax();

  00235	8d 4d a8	 lea	 ecx, DWORD PTR _displayDataMinMax$[ebp]
  00238	dd 18		 fstp	 QWORD PTR [eax]
  0023a	e8 00 00 00 00	 call	 ?GetMarginDisplayMax@CDisplayDataMinMax@@QBENXZ ; CDisplayDataMinMax::GetMarginDisplayMax
  0023f	8b 45 14	 mov	 eax, DWORD PTR _dMax$[ebp]
  00242	dd 18		 fstp	 QWORD PTR [eax]

; 388  : 	return true;

  00244	b0 01		 mov	 al, 1

; 389  : }

  00246	8b 4d f4	 mov	 ecx, DWORD PTR __$EHRec$[ebp]
  00249	64 89 0d 00 00
	00 00		 mov	 DWORD PTR fs:0, ecx
  00250	59		 pop	 ecx
  00251	5f		 pop	 edi
  00252	5e		 pop	 esi
  00253	8b e5		 mov	 esp, ebp
  00255	5d		 pop	 ebp
  00256	c2 10 00	 ret	 16			; 00000010H
$LN3@GetDataLis:

; 369  : 		return false;

  00259	32 c0		 xor	 al, al

; 389  : }

  0025b	8b 4d f4	 mov	 ecx, DWORD PTR __$EHRec$[ebp]
  0025e	64 89 0d 00 00
	00 00		 mov	 DWORD PTR fs:0, ecx
  00265	59		 pop	 ecx
  00266	5f		 pop	 edi
  00267	5e		 pop	 esi
  00268	8b e5		 mov	 esp, ebp
  0026a	5d		 pop	 ebp
  0026b	c2 10 00	 ret	 16			; 00000010H
_TEXT	ENDS
;	COMDAT text$x
text$x	SEGMENT
__unwindfunclet$?GetDataListAndMinMax@CLeftRightScaleDrawer@@ABE_NABVCDrawingHorzScaleData@@AAV?$CList@NN@@AAN2@Z$0:
  00000	8d 4d f0	 lea	 ecx, DWORD PTR $T9[ebp]
  00003	ff 25 00 00 00
	00		 jmp	 DWORD PTR __imp_??1?$CStringT@DV?$StrTraitMFC_DLL@DV?$ChTraitsCRT@D@ATL@@@@@ATL@@QAE@XZ
  00009	cc		 int	 3
  0000a	cc		 int	 3
  0000b	cc		 int	 3
  0000c	cc		 int	 3
  0000d	cc		 int	 3
__ehhandler$?GetDataListAndMinMax@CLeftRightScaleDrawer@@ABE_NABVCDrawingHorzScaleData@@AAV?$CList@NN@@AAN2@Z:
  0000e	90		 npad	 1
  0000f	90		 npad	 1
  00010	8b 54 24 08	 mov	 edx, DWORD PTR [esp+8]
  00014	8d 42 0c	 lea	 eax, DWORD PTR [edx+12]
  00017	8b 4a a8	 mov	 ecx, DWORD PTR [edx-88]
  0001a	33 c8		 xor	 ecx, eax
  0001c	e8 00 00 00 00	 call	 @__security_check_cookie@4
  00021	b8 00 00 00 00	 mov	 eax, OFFSET __ehfuncinfo$?GetDataListAndMinMax@CLeftRightScaleDrawer@@ABE_NABVCDrawingHorzScaleData@@AAV?$CList@NN@@AAN2@Z
  00026	e9 00 00 00 00	 jmp	 ___CxxFrameHandler3
text$x	ENDS
?GetDataListAndMinMax@CLeftRightScaleDrawer@@ABE_NABVCDrawingHorzScaleData@@AAV?$CList@NN@@AAN2@Z ENDP ; CLeftRightScaleDrawer::GetDataListAndMinMax
; Function compile flags: /Ogtp
; File D:\git\src\IBK\IBK_DRFN\ProjSrc\SrcChartEx\ChartOCX\ScaleDraw\DataHorzScaleDrawer.cpp
;	COMDAT ?GetDrawingEnvironment@CLeftRightScaleDrawer@@ABE_NABVCDrawingHorzScaleData@@ABVCRect@@HAAV?$CList@NN@@AAN33AAH@Z
_TEXT	SEGMENT
$T1 = -8						; size = 8
_drawingHorzScaleData$ = 8				; size = 4
_scaleRegion$ = 12					; size = 4
_nTextHeight$ = 16					; size = 4
_dataList$ = 20						; size = 4
_dMin$ = 24						; size = 4
_dMax$ = 28						; size = 4
_dOnePtWidth$ = 32					; size = 4
_nPosPt_y$ = 36						; size = 4
?GetDrawingEnvironment@CLeftRightScaleDrawer@@ABE_NABVCDrawingHorzScaleData@@ABVCRect@@HAAV?$CList@NN@@AAN33AAH@Z PROC ; CLeftRightScaleDrawer::GetDrawingEnvironment, COMDAT
; _this$ = ecx

; 356  : {

  00000	55		 push	 ebp
  00001	8b ec		 mov	 ebp, esp
  00003	83 ec 08	 sub	 esp, 8
  00006	56		 push	 esi

; 357  : 	if(!GetDataListAndMinMax(drawingHorzScaleData, dataList, dMin, dMax))

  00007	ff 75 1c	 push	 DWORD PTR _dMax$[ebp]
  0000a	8b f1		 mov	 esi, ecx
  0000c	ff 75 18	 push	 DWORD PTR _dMin$[ebp]
  0000f	ff 75 14	 push	 DWORD PTR _dataList$[ebp]
  00012	ff 75 08	 push	 DWORD PTR _drawingHorzScaleData$[ebp]
  00015	e8 00 00 00 00	 call	 ?GetDataListAndMinMax@CLeftRightScaleDrawer@@ABE_NABVCDrawingHorzScaleData@@AAV?$CList@NN@@AAN2@Z ; CLeftRightScaleDrawer::GetDataListAndMinMax
  0001a	84 c0		 test	 al, al
  0001c	75 07		 jne	 SHORT $LN2@GetDrawing
  0001e	5e		 pop	 esi

; 363  : }

  0001f	8b e5		 mov	 esp, ebp
  00021	5d		 pop	 ebp
  00022	c2 20 00	 ret	 32			; 00000020H
$LN2@GetDrawing:

; 358  : 		return false;
; 359  : 
; 360  : 	CHorzScaleDrawer::GetDrawingEnvironment(scaleRegion, drawingHorzScaleData.GetDisplayAttributes(), 

  00025	ff 75 24	 push	 DWORD PTR _nPosPt_y$[ebp]
  00028	8b 4d 08	 mov	 ecx, DWORD PTR _drawingHorzScaleData$[ebp]
  0002b	8d 45 f8	 lea	 eax, DWORD PTR $T1[ebp]
  0002e	ff 75 20	 push	 DWORD PTR _dOnePtWidth$[ebp]
  00031	ff 75 10	 push	 DWORD PTR _nTextHeight$[ebp]
  00034	50		 push	 eax
  00035	e8 00 00 00 00	 call	 ?GetDisplayAttributes@CDrawingHorzScaleData@@QBE?AVCDisplayAttributes@@XZ ; CDrawingHorzScaleData::GetDisplayAttributes
  0003a	50		 push	 eax
  0003b	ff 75 0c	 push	 DWORD PTR _scaleRegion$[ebp]
  0003e	8b ce		 mov	 ecx, esi
  00040	e8 00 00 00 00	 call	 ?GetDrawingEnvironment@CHorzScaleDrawer@@IBEXABVCRect@@ABVCDisplayAttributes@@HAANAAH@Z ; CHorzScaleDrawer::GetDrawingEnvironment

; 361  : 		nTextHeight, dOnePtWidth, nPosPt_y);
; 362  : 	return true;

  00045	b0 01		 mov	 al, 1
  00047	5e		 pop	 esi

; 363  : }

  00048	8b e5		 mov	 esp, ebp
  0004a	5d		 pop	 ebp
  0004b	c2 20 00	 ret	 32			; 00000020H
?GetDrawingEnvironment@CLeftRightScaleDrawer@@ABE_NABVCDrawingHorzScaleData@@ABVCRect@@HAAV?$CList@NN@@AAN33AAH@Z ENDP ; CLeftRightScaleDrawer::GetDrawingEnvironment
_TEXT	ENDS
; Function compile flags: /Ogtp
; File D:\git\src\IBK\IBK_DRFN\ProjSrc\SrcChartEx\ChartOCX\ScaleDraw\DataHorzScaleDrawer.cpp
; File C:\Program Files (x86)\Microsoft Visual Studio\2019\Community\VC\Tools\MSVC\14.29.30133\atlmfc\include\afxtempl.h
; File D:\git\src\IBK\IBK_DRFN\ProjSrc\SrcChartEx\ChartOCX\ScaleDraw\DataHorzScaleDrawer.cpp
; File C:\Program Files (x86)\Microsoft Visual Studio\2019\Community\VC\Tools\MSVC\14.29.30133\atlmfc\include\atlsimpstr.h
; File C:\Program Files (x86)\Microsoft Visual Studio\2019\Community\VC\Tools\MSVC\14.29.30133\atlmfc\include\afxwin1.inl
; File D:\git\src\IBK\IBK_DRFN\ProjSrc\SrcChartEx\ChartOCX\ScaleDraw\DataHorzScaleDrawer.cpp
; File C:\Program Files (x86)\Microsoft Visual Studio\2019\Community\VC\Tools\MSVC\14.29.30133\atlmfc\include\afxwin1.inl
; File D:\git\src\IBK\IBK_DRFN\ProjSrc\SrcChartEx\ChartOCX\ScaleDraw\DataHorzScaleDrawer.cpp
; File C:\Program Files (x86)\Microsoft Visual Studio\2019\Community\VC\Tools\MSVC\14.29.30133\atlmfc\include\afxtempl.h
; File D:\git\src\IBK\IBK_DRFN\ProjSrc\SrcChartEx\ChartOCX\ScaleDraw\DataHorzScaleDrawer.cpp
; File C:\Program Files (x86)\Microsoft Visual Studio\2019\Community\VC\Tools\MSVC\14.29.30133\atlmfc\include\atlsimpstr.h
; File D:\git\src\IBK\IBK_DRFN\ProjSrc\SrcChartEx\ChartOCX\ScaleDraw\DataHorzScaleDrawer.cpp
; File C:\Program Files (x86)\Microsoft Visual Studio\2019\Community\VC\Tools\MSVC\14.29.30133\atlmfc\include\atlsimpstr.h
; File D:\git\src\IBK\IBK_DRFN\ProjSrc\SrcChartEx\ChartOCX\ScaleDraw\DataHorzScaleDrawer.cpp
; File C:\Program Files (x86)\Microsoft Visual Studio\2019\Community\VC\Tools\MSVC\14.29.30133\atlmfc\include\afxtempl.h
; File D:\git\src\IBK\IBK_DRFN\ProjSrc\SrcChartEx\ChartOCX\ScaleDraw\DataHorzScaleDrawer.cpp
;	COMDAT ?DrawGrid@CLeftRightScaleDrawer@@UAEXPAVCDC@@ABVCDrawingHorzScaleData@@ABVCHorizontalScale@@@Z
_TEXT	SEGMENT
$T2 = -120						; size = 8
_dPreData$ = -120					; size = 8
_dOnePtWidth$ = -112					; size = 8
_dMin$ = -104						; size = 8
_dMax$ = -96						; size = 8
_pDC$GSCopy$1$ = -88					; size = 4
_horzScale$GSCopy$1$ = -84				; size = 4
_nPosPt_y$ = -80					; size = 4
_dataList$ = -76					; size = 28
_size$3 = -48						; size = 8
_dData$4 = -48						; size = 8
_strData$5 = -40					; size = 4
$T6 = -40						; size = 4
$T7 = -33						; size = 1
_realScaleRegion$ = -32					; size = 16
__$ArrayPad$ = -16					; size = 4
__$EHRec$ = -12						; size = 12
_pDC$ = 8						; size = 4
_drawingHorzScaleData$ = 12				; size = 4
_horzScale$ = 16					; size = 4
?DrawGrid@CLeftRightScaleDrawer@@UAEXPAVCDC@@ABVCDrawingHorzScaleData@@ABVCHorizontalScale@@@Z PROC ; CLeftRightScaleDrawer::DrawGrid, COMDAT
; _this$ = ecx

; 327  : {

  00000	55		 push	 ebp
  00001	8b ec		 mov	 ebp, esp
  00003	6a ff		 push	 -1
  00005	68 00 00 00 00	 push	 __ehhandler$?DrawGrid@CLeftRightScaleDrawer@@UAEXPAVCDC@@ABVCDrawingHorzScaleData@@ABVCHorizontalScale@@@Z
  0000a	64 a1 00 00 00
	00		 mov	 eax, DWORD PTR fs:0
  00010	50		 push	 eax
  00011	83 ec 6c	 sub	 esp, 108		; 0000006cH
  00014	a1 00 00 00 00	 mov	 eax, DWORD PTR ___security_cookie
  00019	33 c5		 xor	 eax, ebp
  0001b	89 45 f0	 mov	 DWORD PTR __$ArrayPad$[ebp], eax
  0001e	53		 push	 ebx
  0001f	56		 push	 esi
  00020	57		 push	 edi
  00021	50		 push	 eax
  00022	8d 45 f4	 lea	 eax, DWORD PTR __$EHRec$[ebp]
  00025	64 a3 00 00 00
	00		 mov	 DWORD PTR fs:0, eax
  0002b	8b f9		 mov	 edi, ecx
  0002d	8b 45 10	 mov	 eax, DWORD PTR _horzScale$[ebp]
  00030	8b 5d 0c	 mov	 ebx, DWORD PTR _drawingHorzScaleData$[ebp]

; 328  : 	CRect realScaleRegion = drawingHorzScaleData.GetDrawingGraphRegion();

  00033	8b cb		 mov	 ecx, ebx
  00035	8b 75 08	 mov	 esi, DWORD PTR _pDC$[ebp]
  00038	89 45 ac	 mov	 DWORD PTR _horzScale$GSCopy$1$[ebp], eax
  0003b	8d 45 e0	 lea	 eax, DWORD PTR _realScaleRegion$[ebp]
  0003e	50		 push	 eax
  0003f	89 75 a8	 mov	 DWORD PTR _pDC$GSCopy$1$[ebp], esi
  00042	e8 00 00 00 00	 call	 ?GetDrawingGraphRegion@CDrawingHorzScaleData@@QBE?AVCRect@@XZ ; CDrawingHorzScaleData::GetDrawingGraphRegion
; File C:\Program Files (x86)\Microsoft Visual Studio\2019\Community\VC\Tools\MSVC\14.29.30133\atlmfc\include\afxtempl.h

; 851  : {

  00047	c7 45 b4 00 00
	00 00		 mov	 DWORD PTR _dataList$[ebp], OFFSET ??_7?$CList@NN@@6B@

; 852  : 	ASSERT(nBlockSize > 0);
; 853  : 
; 854  : 	m_nCount = 0;

  0004e	c7 45 c0 00 00
	00 00		 mov	 DWORD PTR _dataList$[ebp+12], 0

; 855  : 	m_pNodeHead = m_pNodeTail = m_pNodeFree = NULL;

  00055	c7 45 c4 00 00
	00 00		 mov	 DWORD PTR _dataList$[ebp+16], 0
  0005c	c7 45 bc 00 00
	00 00		 mov	 DWORD PTR _dataList$[ebp+8], 0
  00063	c7 45 b8 00 00
	00 00		 mov	 DWORD PTR _dataList$[ebp+4], 0

; 856  : 	m_pBlocks = NULL;

  0006a	c7 45 c8 00 00
	00 00		 mov	 DWORD PTR _dataList$[ebp+20], 0

; 857  : 	m_nBlockSize = nBlockSize;

  00071	c7 45 cc 0a 00
	00 00		 mov	 DWORD PTR _dataList$[ebp+24], 10 ; 0000000aH
; File D:\git\src\IBK\IBK_DRFN\ProjSrc\SrcChartEx\ChartOCX\ScaleDraw\DataHorzScaleDrawer.cpp

; 331  : 	CList<double, double> dataList;

  00078	0f 57 c0	 xorps	 xmm0, xmm0
  0007b	c7 45 fc 00 00
	00 00		 mov	 DWORD PTR __$EHRec$[ebp+8], 0

; 334  : 	if(!GetDrawingEnvironment(drawingHorzScaleData, realScaleRegion, pDC->GetTextExtent("0").cy, 

  00082	68 00 00 00 00	 push	 OFFSET ??_C@_01GBGANLPD@0@
  00087	8d 4d d8	 lea	 ecx, DWORD PTR $T6[ebp]
  0008a	f2 0f 11 45 98	 movsd	 QWORD PTR _dMin$[ebp], xmm0
  0008f	f2 0f 11 45 a0	 movsd	 QWORD PTR _dMax$[ebp], xmm0
  00094	f2 0f 11 45 90	 movsd	 QWORD PTR _dOnePtWidth$[ebp], xmm0
  00099	c7 45 b0 00 00
	00 00		 mov	 DWORD PTR _nPosPt_y$[ebp], 0
  000a0	ff 15 00 00 00
	00		 call	 DWORD PTR __imp_??0?$CStringT@DV?$StrTraitMFC_DLL@DV?$ChTraitsCRT@D@ATL@@@@@ATL@@QAE@PBD@Z
; File C:\Program Files (x86)\Microsoft Visual Studio\2019\Community\VC\Tools\MSVC\14.29.30133\atlmfc\include\atlsimpstr.h

; 519  : 		return( GetData()->nDataLength );

  000a6	8b 45 d8	 mov	 eax, DWORD PTR $T6[ebp]
; File C:\Program Files (x86)\Microsoft Visual Studio\2019\Community\VC\Tools\MSVC\14.29.30133\atlmfc\include\afxwin1.inl

; 639  : 		VERIFY(::GetTextExtentPoint32(m_hAttribDC, str, (int)str.GetLength(), &size));

  000a9	8d 4d d0	 lea	 ecx, DWORD PTR _size$3[ebp]
  000ac	51		 push	 ecx
; File D:\git\src\IBK\IBK_DRFN\ProjSrc\SrcChartEx\ChartOCX\ScaleDraw\DataHorzScaleDrawer.cpp

; 334  : 	if(!GetDrawingEnvironment(drawingHorzScaleData, realScaleRegion, pDC->GetTextExtent("0").cy, 

  000ad	c6 45 fc 01	 mov	 BYTE PTR __$EHRec$[ebp+8], 1
; File C:\Program Files (x86)\Microsoft Visual Studio\2019\Community\VC\Tools\MSVC\14.29.30133\atlmfc\include\afxwin1.inl

; 639  : 		VERIFY(::GetTextExtentPoint32(m_hAttribDC, str, (int)str.GetLength(), &size));

  000b1	ff 70 f4	 push	 DWORD PTR [eax-12]
  000b4	50		 push	 eax
  000b5	ff 76 08	 push	 DWORD PTR [esi+8]
  000b8	ff 15 00 00 00
	00		 call	 DWORD PTR __imp__GetTextExtentPoint32A@16
; File D:\git\src\IBK\IBK_DRFN\ProjSrc\SrcChartEx\ChartOCX\ScaleDraw\DataHorzScaleDrawer.cpp

; 334  : 	if(!GetDrawingEnvironment(drawingHorzScaleData, realScaleRegion, pDC->GetTextExtent("0").cy, 

  000be	8b 75 d4	 mov	 esi, DWORD PTR _size$3[ebp+4]

; 357  : 	if(!GetDataListAndMinMax(drawingHorzScaleData, dataList, dMin, dMax))

  000c1	8d 45 a0	 lea	 eax, DWORD PTR _dMax$[ebp]
  000c4	50		 push	 eax
  000c5	8d 45 98	 lea	 eax, DWORD PTR _dMin$[ebp]
  000c8	8b cf		 mov	 ecx, edi
  000ca	50		 push	 eax
  000cb	8d 45 b4	 lea	 eax, DWORD PTR _dataList$[ebp]
  000ce	50		 push	 eax
  000cf	53		 push	 ebx
  000d0	e8 00 00 00 00	 call	 ?GetDataListAndMinMax@CLeftRightScaleDrawer@@ABE_NABVCDrawingHorzScaleData@@AAV?$CList@NN@@AAN2@Z ; CLeftRightScaleDrawer::GetDataListAndMinMax
  000d5	84 c0		 test	 al, al
  000d7	75 06		 jne	 SHORT $LN24@DrawGrid

; 358  : 		return false;

  000d9	c6 45 df 01	 mov	 BYTE PTR $T7[ebp], 1
  000dd	eb 24		 jmp	 SHORT $LN23@DrawGrid
$LN24@DrawGrid:

; 359  : 
; 360  : 	CHorzScaleDrawer::GetDrawingEnvironment(scaleRegion, drawingHorzScaleData.GetDisplayAttributes(), 

  000df	8d 45 b0	 lea	 eax, DWORD PTR _nPosPt_y$[ebp]
  000e2	8b cb		 mov	 ecx, ebx
  000e4	50		 push	 eax
  000e5	8d 45 90	 lea	 eax, DWORD PTR _dOnePtWidth$[ebp]
  000e8	50		 push	 eax
  000e9	56		 push	 esi
  000ea	8d 45 88	 lea	 eax, DWORD PTR $T2[ebp]
  000ed	50		 push	 eax
  000ee	e8 00 00 00 00	 call	 ?GetDisplayAttributes@CDrawingHorzScaleData@@QBE?AVCDisplayAttributes@@XZ ; CDrawingHorzScaleData::GetDisplayAttributes
  000f3	50		 push	 eax
  000f4	8d 45 e0	 lea	 eax, DWORD PTR _realScaleRegion$[ebp]
  000f7	8b cf		 mov	 ecx, edi
  000f9	50		 push	 eax
  000fa	e8 00 00 00 00	 call	 ?GetDrawingEnvironment@CHorzScaleDrawer@@IBEXABVCRect@@ABVCDisplayAttributes@@HAANAAH@Z ; CHorzScaleDrawer::GetDrawingEnvironment

; 361  : 		nTextHeight, dOnePtWidth, nPosPt_y);
; 362  : 	return true;

  000ff	c6 45 df 00	 mov	 BYTE PTR $T7[ebp], 0
$LN23@DrawGrid:

; 334  : 	if(!GetDrawingEnvironment(drawingHorzScaleData, realScaleRegion, pDC->GetTextExtent("0").cy, 

  00103	8d 4d d8	 lea	 ecx, DWORD PTR $T6[ebp]
  00106	c6 45 fc 00	 mov	 BYTE PTR __$EHRec$[ebp+8], 0
  0010a	ff 15 00 00 00
	00		 call	 DWORD PTR __imp_??1?$CStringT@DV?$StrTraitMFC_DLL@DV?$ChTraitsCRT@D@ATL@@@@@ATL@@QAE@XZ
  00110	80 7d df 00	 cmp	 BYTE PTR $T7[ebp], 0
  00114	75 78		 jne	 SHORT $LN3@DrawGrid

; 335  : 		dataList, dMin, dMax, dOnePtWidth, nPosPt_y))
; 336  : 		return;
; 337  : 
; 338  : 	double dPreData;
; 339  : 	int nPre_textEndPos(0);
; 340  : 	POSITION pos = dataList.GetHeadPosition();

  00116	8b 75 b8	 mov	 esi, DWORD PTR _dataList$[ebp+4]
  00119	85 f6		 test	 esi, esi

; 341  : 	while(pos != NULL){

  0011b	74 71		 je	 SHORT $LN3@DrawGrid
  0011d	0f 1f 00	 npad	 3
$LL2@DrawGrid:

; 342  : 		double dData = dataList.GetNext(pos);

  00120	f2 0f 10 46 08	 movsd	 xmm0, QWORD PTR [esi+8]
; File C:\Program Files (x86)\Microsoft Visual Studio\2019\Community\VC\Tools\MSVC\14.29.30133\atlmfc\include\afxtempl.h

; 811  : 	{ CNode* pNode = (CNode*) rPosition;

  00125	8d 06		 lea	 eax, DWORD PTR [esi]

; 812  : 		ASSERT(AfxIsValidAddress(pNode, sizeof(CNode)));
; 813  : 		rPosition = (POSITION) pNode->pNext;

  00127	8b 36		 mov	 esi, DWORD PTR [esi]
; File D:\git\src\IBK\IBK_DRFN\ProjSrc\SrcChartEx\ChartOCX\ScaleDraw\DataHorzScaleDrawer.cpp

; 343  : 		CString strData = GetData(dData, dPreData);

  00129	8d 45 88	 lea	 eax, DWORD PTR _dPreData$[ebp]
  0012c	50		 push	 eax
  0012d	8d 45 d0	 lea	 eax, DWORD PTR _dData$4[ebp]
  00130	f2 0f 11 45 d0	 movsd	 QWORD PTR _dData$4[ebp], xmm0
  00135	50		 push	 eax
  00136	8d 45 d8	 lea	 eax, DWORD PTR _strData$5[ebp]
  00139	8b cf		 mov	 ecx, edi
  0013b	50		 push	 eax
  0013c	e8 00 00 00 00	 call	 ?GetData@CLeftRightScaleDrawer@@ABE?AV?$CStringT@DV?$StrTraitMFC_DLL@DV?$ChTraitsCRT@D@ATL@@@@@ATL@@ABNAAN@Z ; CLeftRightScaleDrawer::GetData
; File C:\Program Files (x86)\Microsoft Visual Studio\2019\Community\VC\Tools\MSVC\14.29.30133\atlmfc\include\atlsimpstr.h

; 519  : 		return( GetData()->nDataLength );

  00141	8b 45 d8	 mov	 eax, DWORD PTR _strData$5[ebp]
; File D:\git\src\IBK\IBK_DRFN\ProjSrc\SrcChartEx\ChartOCX\ScaleDraw\DataHorzScaleDrawer.cpp

; 343  : 		CString strData = GetData(dData, dPreData);

  00144	c6 45 fc 02	 mov	 BYTE PTR __$EHRec$[ebp+8], 2
; File C:\Program Files (x86)\Microsoft Visual Studio\2019\Community\VC\Tools\MSVC\14.29.30133\atlmfc\include\atlsimpstr.h

; 533  : 		return( GetLength() == 0 );

  00148	83 78 f4 00	 cmp	 DWORD PTR [eax-12], 0
; File D:\git\src\IBK\IBK_DRFN\ProjSrc\SrcChartEx\ChartOCX\ScaleDraw\DataHorzScaleDrawer.cpp

; 344  : 		if(strData.IsEmpty())

  0014c	74 2f		 je	 SHORT $LN53@DrawGrid

; 345  : 			continue;
; 346  : 
; 347  : 		int nPosPt_x = CDataConversion::GetHorizontalPoint_X(realScaleRegion, dMin, dMax, dData);

  0014e	8d 45 d0	 lea	 eax, DWORD PTR _dData$4[ebp]
  00151	50		 push	 eax
  00152	8d 45 a0	 lea	 eax, DWORD PTR _dMax$[ebp]
  00155	50		 push	 eax
  00156	8d 45 98	 lea	 eax, DWORD PTR _dMin$[ebp]
  00159	50		 push	 eax
  0015a	8d 45 e0	 lea	 eax, DWORD PTR _realScaleRegion$[ebp]
  0015d	50		 push	 eax
  0015e	e8 00 00 00 00	 call	 ?GetHorizontalPoint_X@CDataConversion@@SAHABVCRect@@ABN11@Z ; CDataConversion::GetHorizontalPoint_X

; 348  : 		CHorzScaleDrawer::DrawGrid(pDC, drawingHorzScaleData, horzScale.GetGridType(), nPosPt_x);

  00163	8b 4d ac	 mov	 ecx, DWORD PTR _horzScale$GSCopy$1$[ebp]
  00166	83 c4 10	 add	 esp, 16			; 00000010H
  00169	6a 01		 push	 1
  0016b	50		 push	 eax
  0016c	e8 00 00 00 00	 call	 ?GetGridType@CScale@@QBE?AW4SCALEGRIDTYPE@CScaleBaseData@@XZ ; CScale::GetGridType
  00171	50		 push	 eax
  00172	53		 push	 ebx
  00173	ff 75 a8	 push	 DWORD PTR _pDC$GSCopy$1$[ebp]
  00176	8b cf		 mov	 ecx, edi
  00178	e8 00 00 00 00	 call	 ?DrawGrid@CHorzScaleDrawer@@IAEXPAVCDC@@ABVCDrawingHorzScaleData@@W4SCALEGRIDTYPE@CScaleBaseData@@HH@Z ; CHorzScaleDrawer::DrawGrid
$LN53@DrawGrid:

; 341  : 	while(pos != NULL){

  0017d	8d 4d d8	 lea	 ecx, DWORD PTR _strData$5[ebp]
  00180	c6 45 fc 00	 mov	 BYTE PTR __$EHRec$[ebp+8], 0
  00184	ff 15 00 00 00
	00		 call	 DWORD PTR __imp_??1?$CStringT@DV?$StrTraitMFC_DLL@DV?$ChTraitsCRT@D@ATL@@@@@ATL@@QAE@XZ
  0018a	85 f6		 test	 esi, esi
  0018c	75 92		 jne	 SHORT $LL2@DrawGrid
$LN3@DrawGrid:
; File C:\Program Files (x86)\Microsoft Visual Studio\2019\Community\VC\Tools\MSVC\14.29.30133\atlmfc\include\afxtempl.h

; 872  : 	m_pBlocks->FreeDataChain();

  0018e	8b 4d c8	 mov	 ecx, DWORD PTR _dataList$[ebp+20]

; 878  : {

  00191	c7 45 fc 03 00
	00 00		 mov	 DWORD PTR __$EHRec$[ebp+8], 3
  00198	c7 45 b4 00 00
	00 00		 mov	 DWORD PTR _dataList$[ebp], OFFSET ??_7?$CList@NN@@6B@

; 870  : 	m_nCount = 0;

  0019f	c7 45 c0 00 00
	00 00		 mov	 DWORD PTR _dataList$[ebp+12], 0

; 871  : 	m_pNodeHead = m_pNodeTail = m_pNodeFree = NULL;

  001a6	c7 45 c4 00 00
	00 00		 mov	 DWORD PTR _dataList$[ebp+16], 0
  001ad	c7 45 bc 00 00
	00 00		 mov	 DWORD PTR _dataList$[ebp+8], 0
  001b4	c7 45 b8 00 00
	00 00		 mov	 DWORD PTR _dataList$[ebp+4], 0

; 872  : 	m_pBlocks->FreeDataChain();

  001bb	e8 00 00 00 00	 call	 ?FreeDataChain@CPlex@@QAEXXZ ; CPlex::FreeDataChain
; File D:\git\src\IBK\IBK_DRFN\ProjSrc\SrcChartEx\ChartOCX\ScaleDraw\DataHorzScaleDrawer.cpp

; 350  : }

  001c0	8b 4d f4	 mov	 ecx, DWORD PTR __$EHRec$[ebp]
  001c3	64 89 0d 00 00
	00 00		 mov	 DWORD PTR fs:0, ecx
  001ca	59		 pop	 ecx
  001cb	5f		 pop	 edi
  001cc	5e		 pop	 esi
  001cd	5b		 pop	 ebx
  001ce	8b 4d f0	 mov	 ecx, DWORD PTR __$ArrayPad$[ebp]
  001d1	33 cd		 xor	 ecx, ebp
  001d3	e8 00 00 00 00	 call	 @__security_check_cookie@4
  001d8	8b e5		 mov	 esp, ebp
  001da	5d		 pop	 ebp
  001db	c2 0c 00	 ret	 12			; 0000000cH
_TEXT	ENDS
;	COMDAT text$x
text$x	SEGMENT
__unwindfunclet$?DrawGrid@CLeftRightScaleDrawer@@UAEXPAVCDC@@ABVCDrawingHorzScaleData@@ABVCHorizontalScale@@@Z$0:
  00000	8d 4d b4	 lea	 ecx, DWORD PTR _dataList$[ebp]
  00003	e9 00 00 00 00	 jmp	 ??1?$CList@NN@@UAE@XZ	; CList<double,double>::~CList<double,double>
__unwindfunclet$?DrawGrid@CLeftRightScaleDrawer@@UAEXPAVCDC@@ABVCDrawingHorzScaleData@@ABVCHorizontalScale@@@Z$1:
  00008	8d 4d d8	 lea	 ecx, DWORD PTR $T6[ebp]
  0000b	ff 25 00 00 00
	00		 jmp	 DWORD PTR __imp_??1?$CStringT@DV?$StrTraitMFC_DLL@DV?$ChTraitsCRT@D@ATL@@@@@ATL@@QAE@XZ
__unwindfunclet$?DrawGrid@CLeftRightScaleDrawer@@UAEXPAVCDC@@ABVCDrawingHorzScaleData@@ABVCHorizontalScale@@@Z$2:
  00011	8d 4d d8	 lea	 ecx, DWORD PTR _strData$5[ebp]
  00014	ff 25 00 00 00
	00		 jmp	 DWORD PTR __imp_??1?$CStringT@DV?$StrTraitMFC_DLL@DV?$ChTraitsCRT@D@ATL@@@@@ATL@@QAE@XZ
  0001a	cc		 int	 3
  0001b	cc		 int	 3
  0001c	cc		 int	 3
  0001d	cc		 int	 3
  0001e	cc		 int	 3
__ehhandler$?DrawGrid@CLeftRightScaleDrawer@@UAEXPAVCDC@@ABVCDrawingHorzScaleData@@ABVCHorizontalScale@@@Z:
  0001f	90		 npad	 1
  00020	90		 npad	 1
  00021	8b 54 24 08	 mov	 edx, DWORD PTR [esp+8]
  00025	8d 42 0c	 lea	 eax, DWORD PTR [edx+12]
  00028	8b 4a 84	 mov	 ecx, DWORD PTR [edx-124]
  0002b	33 c8		 xor	 ecx, eax
  0002d	e8 00 00 00 00	 call	 @__security_check_cookie@4
  00032	8b 4a fc	 mov	 ecx, DWORD PTR [edx-4]
  00035	33 c8		 xor	 ecx, eax
  00037	e8 00 00 00 00	 call	 @__security_check_cookie@4
  0003c	b8 00 00 00 00	 mov	 eax, OFFSET __ehfuncinfo$?DrawGrid@CLeftRightScaleDrawer@@UAEXPAVCDC@@ABVCDrawingHorzScaleData@@ABVCHorizontalScale@@@Z
  00041	e9 00 00 00 00	 jmp	 ___CxxFrameHandler3
text$x	ENDS
?DrawGrid@CLeftRightScaleDrawer@@UAEXPAVCDC@@ABVCDrawingHorzScaleData@@ABVCHorizontalScale@@@Z ENDP ; CLeftRightScaleDrawer::DrawGrid
; Function compile flags: /Ogtp
; File D:\git\src\IBK\IBK_DRFN\ProjSrc\SrcChartEx\ChartOCX\ScaleDraw\DataHorzScaleDrawer.cpp
;	COMDAT ?DrawTextOrGrid_Both@CLeftRightScaleDrawer@@UAEXPAVCDC@@ABVCDrawingHorzScaleData@@ABVCHorzScaleRegion@@ABVCHorizontalScale@@@Z
_TEXT	SEGMENT
_pDC$ = 8						; size = 4
_drawingHorzScaleData$ = 12				; size = 4
_horzScaleRegion$ = 16					; size = 4
_horzScale$ = 20					; size = 4
?DrawTextOrGrid_Both@CLeftRightScaleDrawer@@UAEXPAVCDC@@ABVCDrawingHorzScaleData@@ABVCHorzScaleRegion@@ABVCHorizontalScale@@@Z PROC ; CLeftRightScaleDrawer::DrawTextOrGrid_Both, COMDAT
; _this$ = ecx

; 324  : }

  00000	c2 10 00	 ret	 16			; 00000010H
?DrawTextOrGrid_Both@CLeftRightScaleDrawer@@UAEXPAVCDC@@ABVCDrawingHorzScaleData@@ABVCHorzScaleRegion@@ABVCHorizontalScale@@@Z ENDP ; CLeftRightScaleDrawer::DrawTextOrGrid_Both
_TEXT	ENDS
; Function compile flags: /Ogtp
; File D:\git\src\IBK\IBK_DRFN\ProjSrc\SrcChartEx\ChartOCX\ScaleDraw\DataHorzScaleDrawer.cpp
; File C:\Program Files (x86)\Microsoft Visual Studio\2019\Community\VC\Tools\MSVC\14.29.30133\atlmfc\include\afxtempl.h
; File D:\git\src\IBK\IBK_DRFN\ProjSrc\SrcChartEx\ChartOCX\ScaleDraw\DataHorzScaleDrawer.cpp
; File C:\Program Files (x86)\Microsoft Visual Studio\2019\Community\VC\Tools\MSVC\14.29.30133\atlmfc\include\atlsimpstr.h
; File C:\Program Files (x86)\Microsoft Visual Studio\2019\Community\VC\Tools\MSVC\14.29.30133\atlmfc\include\afxwin1.inl
; File D:\git\src\IBK\IBK_DRFN\ProjSrc\SrcChartEx\ChartOCX\ScaleDraw\DataHorzScaleDrawer.cpp
; File C:\Program Files (x86)\Microsoft Visual Studio\2019\Community\VC\Tools\MSVC\14.29.30133\atlmfc\include\afxwin1.inl
; File D:\git\src\IBK\IBK_DRFN\ProjSrc\SrcChartEx\ChartOCX\ScaleDraw\DataHorzScaleDrawer.cpp
; File C:\Program Files (x86)\Microsoft Visual Studio\2019\Community\VC\Tools\MSVC\14.29.30133\atlmfc\include\afxtempl.h
; File D:\git\src\IBK\IBK_DRFN\ProjSrc\SrcChartEx\ChartOCX\ScaleDraw\DataHorzScaleDrawer.cpp
; File C:\Program Files (x86)\Microsoft Visual Studio\2019\Community\VC\Tools\MSVC\14.29.30133\atlmfc\include\afxtempl.h
; File D:\git\src\IBK\IBK_DRFN\ProjSrc\SrcChartEx\ChartOCX\ScaleDraw\DataHorzScaleDrawer.cpp
; File C:\Program Files (x86)\Microsoft Visual Studio\2019\Community\VC\Tools\MSVC\14.29.30133\atlmfc\include\atlsimpstr.h
; File D:\git\src\IBK\IBK_DRFN\ProjSrc\SrcChartEx\ChartOCX\ScaleDraw\DataHorzScaleDrawer.cpp
; File C:\Program Files (x86)\Microsoft Visual Studio\2019\Community\VC\Tools\MSVC\14.29.30133\atlmfc\include\atlsimpstr.h
; File D:\git\src\IBK\IBK_DRFN\ProjSrc\SrcChartEx\ChartOCX\ScaleDraw\DataHorzScaleDrawer.cpp
; File C:\Program Files (x86)\Microsoft Visual Studio\2019\Community\VC\Tools\MSVC\14.29.30133\atlmfc\include\atlsimpstr.h
; File D:\git\src\IBK\IBK_DRFN\ProjSrc\SrcChartEx\ChartOCX\ScaleDraw\DataHorzScaleDrawer.cpp
; File C:\Program Files (x86)\Microsoft Visual Studio\2019\Community\VC\Tools\MSVC\14.29.30133\atlmfc\include\afxwin1.inl
; File C:\Program Files (x86)\Microsoft Visual Studio\2019\Community\VC\Tools\MSVC\14.29.30133\atlmfc\include\atltypes.h
; File D:\git\src\IBK\IBK_DRFN\ProjSrc\SrcChartEx\ChartOCX\ScaleDraw\DataHorzScaleDrawer.cpp
; File C:\Program Files (x86)\Microsoft Visual Studio\2019\Community\VC\Tools\MSVC\14.29.30133\atlmfc\include\atltypes.h
; File D:\git\src\IBK\IBK_DRFN\ProjSrc\SrcChartEx\ChartOCX\ScaleDraw\DataHorzScaleDrawer.cpp
; File C:\Program Files (x86)\Microsoft Visual Studio\2019\Community\VC\Tools\MSVC\14.29.30133\atlmfc\include\atltypes.h
; File D:\git\src\IBK\IBK_DRFN\ProjSrc\SrcChartEx\ChartOCX\ScaleDraw\DataHorzScaleDrawer.cpp
; File C:\Program Files (x86)\Microsoft Visual Studio\2019\Community\VC\Tools\MSVC\14.29.30133\atlmfc\include\atltypes.h
; File D:\git\src\IBK\IBK_DRFN\ProjSrc\SrcChartEx\ChartOCX\ScaleDraw\DataHorzScaleDrawer.cpp
; File C:\Program Files (x86)\Microsoft Visual Studio\2019\Community\VC\Tools\MSVC\14.29.30133\atlmfc\include\atltypes.h
; File D:\git\src\IBK\IBK_DRFN\ProjSrc\SrcChartEx\ChartOCX\ScaleDraw\DataHorzScaleDrawer.cpp
; File C:\Program Files (x86)\Microsoft Visual Studio\2019\Community\VC\Tools\MSVC\14.29.30133\atlmfc\include\afxtempl.h
; File D:\git\src\IBK\IBK_DRFN\ProjSrc\SrcChartEx\ChartOCX\ScaleDraw\DataHorzScaleDrawer.cpp
;	COMDAT ?DrawTextOrGrid@CLeftRightScaleDrawer@@UAEXPAVCDC@@ABVCDrawingHorzScaleData@@ABVCRect@@ABVCHorizontalScale@@@Z
_TEXT	SEGMENT
$T2 = -148						; size = 12
_dPreData$ = -136					; size = 8
_dOnePtWidth$ = -128					; size = 8
_dMin$ = -120						; size = 8
_dMax$ = -112						; size = 8
_dData$3 = -104						; size = 8
$T4 = -96						; size = 8
_size$5 = -96						; size = 8
_pos$1$ = -88						; size = 4
_textColor$1$ = -84					; size = 4
_bIsTopPos$ = -80					; size = 1
_dataList$ = -76					; size = 28
_textPosPt$6 = -48					; size = 8
_size$7 = -48						; size = 8
$T8 = -40						; size = 8
_nPosPt_y$ = -32					; size = 4
_this$1$ = -28						; size = 4
_nTextHeight$1$ = -24					; size = 4
_nPosPt_x$1$ = -24					; size = 4
_strData$9 = -20					; size = 4
$T10 = -20						; size = 4
$T11 = -13						; size = 1
__$EHRec$ = -12						; size = 12
_pDC$ = 8						; size = 4
_drawingHorzScaleData$ = 12				; size = 4
_scaleRegion$ = 16					; size = 4
_horzScale$ = 20					; size = 4
?DrawTextOrGrid@CLeftRightScaleDrawer@@UAEXPAVCDC@@ABVCDrawingHorzScaleData@@ABVCRect@@ABVCHorizontalScale@@@Z PROC ; CLeftRightScaleDrawer::DrawTextOrGrid, COMDAT
; _this$ = ecx

; 294  : {

  00000	55		 push	 ebp
  00001	8b ec		 mov	 ebp, esp
  00003	6a ff		 push	 -1
  00005	68 00 00 00 00	 push	 __ehhandler$?DrawTextOrGrid@CLeftRightScaleDrawer@@UAEXPAVCDC@@ABVCDrawingHorzScaleData@@ABVCRect@@ABVCHorizontalScale@@@Z
  0000a	64 a1 00 00 00
	00		 mov	 eax, DWORD PTR fs:0
  00010	50		 push	 eax
  00011	81 ec 88 00 00
	00		 sub	 esp, 136		; 00000088H
  00017	53		 push	 ebx
  00018	56		 push	 esi
  00019	57		 push	 edi
  0001a	a1 00 00 00 00	 mov	 eax, DWORD PTR ___security_cookie
  0001f	33 c5		 xor	 eax, ebp
  00021	50		 push	 eax
  00022	8d 45 f4	 lea	 eax, DWORD PTR __$EHRec$[ebp]
  00025	64 a3 00 00 00
	00		 mov	 DWORD PTR fs:0, eax
  0002b	8b d9		 mov	 ebx, ecx
  0002d	89 5d e4	 mov	 DWORD PTR _this$1$[ebp], ebx
; File C:\Program Files (x86)\Microsoft Visual Studio\2019\Community\VC\Tools\MSVC\14.29.30133\atlmfc\include\afxtempl.h

; 851  : {

  00030	c7 45 b4 00 00
	00 00		 mov	 DWORD PTR _dataList$[ebp], OFFSET ??_7?$CList@NN@@6B@

; 852  : 	ASSERT(nBlockSize > 0);
; 853  : 
; 854  : 	m_nCount = 0;

  00037	c7 45 c0 00 00
	00 00		 mov	 DWORD PTR _dataList$[ebp+12], 0

; 855  : 	m_pNodeHead = m_pNodeTail = m_pNodeFree = NULL;

  0003e	c7 45 c4 00 00
	00 00		 mov	 DWORD PTR _dataList$[ebp+16], 0
  00045	c7 45 bc 00 00
	00 00		 mov	 DWORD PTR _dataList$[ebp+8], 0
  0004c	c7 45 b8 00 00
	00 00		 mov	 DWORD PTR _dataList$[ebp+4], 0

; 856  : 	m_pBlocks = NULL;

  00053	c7 45 c8 00 00
	00 00		 mov	 DWORD PTR _dataList$[ebp+20], 0

; 857  : 	m_nBlockSize = nBlockSize;

  0005a	c7 45 cc 0a 00
	00 00		 mov	 DWORD PTR _dataList$[ebp+24], 10 ; 0000000aH
; File D:\git\src\IBK\IBK_DRFN\ProjSrc\SrcChartEx\ChartOCX\ScaleDraw\DataHorzScaleDrawer.cpp

; 296  : 	CList<double, double> dataList;

  00061	0f 57 c0	 xorps	 xmm0, xmm0
  00064	c7 45 fc 00 00
	00 00		 mov	 DWORD PTR __$EHRec$[ebp+8], 0

; 299  : 	if(!GetDrawingEnvironment(drawingHorzScaleData, scaleRegion, pDC->GetTextExtent("0").cy, 

  0006b	68 00 00 00 00	 push	 OFFSET ??_C@_01GBGANLPD@0@
  00070	8d 4d ec	 lea	 ecx, DWORD PTR $T10[ebp]
  00073	f2 0f 11 45 88	 movsd	 QWORD PTR _dMin$[ebp], xmm0
  00078	f2 0f 11 45 90	 movsd	 QWORD PTR _dMax$[ebp], xmm0
  0007d	f2 0f 11 45 80	 movsd	 QWORD PTR _dOnePtWidth$[ebp], xmm0
  00082	c7 45 e0 00 00
	00 00		 mov	 DWORD PTR _nPosPt_y$[ebp], 0
  00089	ff 15 00 00 00
	00		 call	 DWORD PTR __imp_??0?$CStringT@DV?$StrTraitMFC_DLL@DV?$ChTraitsCRT@D@ATL@@@@@ATL@@QAE@PBD@Z
; File C:\Program Files (x86)\Microsoft Visual Studio\2019\Community\VC\Tools\MSVC\14.29.30133\atlmfc\include\atlsimpstr.h

; 519  : 		return( GetData()->nDataLength );

  0008f	8b 45 ec	 mov	 eax, DWORD PTR $T10[ebp]
; File C:\Program Files (x86)\Microsoft Visual Studio\2019\Community\VC\Tools\MSVC\14.29.30133\atlmfc\include\afxwin1.inl

; 639  : 		VERIFY(::GetTextExtentPoint32(m_hAttribDC, str, (int)str.GetLength(), &size));

  00092	8d 4d d0	 lea	 ecx, DWORD PTR _size$7[ebp]
  00095	8b 75 08	 mov	 esi, DWORD PTR _pDC$[ebp]
  00098	51		 push	 ecx
; File D:\git\src\IBK\IBK_DRFN\ProjSrc\SrcChartEx\ChartOCX\ScaleDraw\DataHorzScaleDrawer.cpp

; 299  : 	if(!GetDrawingEnvironment(drawingHorzScaleData, scaleRegion, pDC->GetTextExtent("0").cy, 

  00099	c6 45 fc 01	 mov	 BYTE PTR __$EHRec$[ebp+8], 1
; File C:\Program Files (x86)\Microsoft Visual Studio\2019\Community\VC\Tools\MSVC\14.29.30133\atlmfc\include\afxwin1.inl

; 639  : 		VERIFY(::GetTextExtentPoint32(m_hAttribDC, str, (int)str.GetLength(), &size));

  0009d	ff 70 f4	 push	 DWORD PTR [eax-12]
  000a0	50		 push	 eax
  000a1	ff 76 08	 push	 DWORD PTR [esi+8]
  000a4	ff 15 00 00 00
	00		 call	 DWORD PTR __imp__GetTextExtentPoint32A@16
; File D:\git\src\IBK\IBK_DRFN\ProjSrc\SrcChartEx\ChartOCX\ScaleDraw\DataHorzScaleDrawer.cpp

; 299  : 	if(!GetDrawingEnvironment(drawingHorzScaleData, scaleRegion, pDC->GetTextExtent("0").cy, 

  000aa	8b 45 d4	 mov	 eax, DWORD PTR _size$7[ebp+4]

; 357  : 	if(!GetDataListAndMinMax(drawingHorzScaleData, dataList, dMin, dMax))

  000ad	8b cb		 mov	 ecx, ebx
  000af	8b 7d 0c	 mov	 edi, DWORD PTR _drawingHorzScaleData$[ebp]

; 299  : 	if(!GetDrawingEnvironment(drawingHorzScaleData, scaleRegion, pDC->GetTextExtent("0").cy, 

  000b2	89 45 e8	 mov	 DWORD PTR _nTextHeight$1$[ebp], eax

; 357  : 	if(!GetDataListAndMinMax(drawingHorzScaleData, dataList, dMin, dMax))

  000b5	8d 45 90	 lea	 eax, DWORD PTR _dMax$[ebp]
  000b8	50		 push	 eax
  000b9	8d 45 88	 lea	 eax, DWORD PTR _dMin$[ebp]
  000bc	50		 push	 eax
  000bd	8d 45 b4	 lea	 eax, DWORD PTR _dataList$[ebp]
  000c0	50		 push	 eax
  000c1	57		 push	 edi
  000c2	e8 00 00 00 00	 call	 ?GetDataListAndMinMax@CLeftRightScaleDrawer@@ABE_NABVCDrawingHorzScaleData@@AAV?$CList@NN@@AAN2@Z ; CLeftRightScaleDrawer::GetDataListAndMinMax
  000c7	84 c0		 test	 al, al
  000c9	75 09		 jne	 SHORT $LN24@DrawTextOr

; 358  : 		return false;

  000cb	8b 7d 10	 mov	 edi, DWORD PTR _scaleRegion$[ebp]
  000ce	c6 45 f3 01	 mov	 BYTE PTR $T11[ebp], 1
  000d2	eb 26		 jmp	 SHORT $LN23@DrawTextOr
$LN24@DrawTextOr:

; 359  : 
; 360  : 	CHorzScaleDrawer::GetDrawingEnvironment(scaleRegion, drawingHorzScaleData.GetDisplayAttributes(), 

  000d4	8d 45 e0	 lea	 eax, DWORD PTR _nPosPt_y$[ebp]
  000d7	8b cf		 mov	 ecx, edi
  000d9	50		 push	 eax
  000da	8d 45 80	 lea	 eax, DWORD PTR _dOnePtWidth$[ebp]
  000dd	50		 push	 eax
  000de	ff 75 e8	 push	 DWORD PTR _nTextHeight$1$[ebp]
  000e1	8d 45 a0	 lea	 eax, DWORD PTR $T4[ebp]
  000e4	50		 push	 eax
  000e5	e8 00 00 00 00	 call	 ?GetDisplayAttributes@CDrawingHorzScaleData@@QBE?AVCDisplayAttributes@@XZ ; CDrawingHorzScaleData::GetDisplayAttributes
  000ea	8b 7d 10	 mov	 edi, DWORD PTR _scaleRegion$[ebp]
  000ed	8b cb		 mov	 ecx, ebx
  000ef	50		 push	 eax
  000f0	57		 push	 edi
  000f1	e8 00 00 00 00	 call	 ?GetDrawingEnvironment@CHorzScaleDrawer@@IBEXABVCRect@@ABVCDisplayAttributes@@HAANAAH@Z ; CHorzScaleDrawer::GetDrawingEnvironment

; 361  : 		nTextHeight, dOnePtWidth, nPosPt_y);
; 362  : 	return true;

  000f6	c6 45 f3 00	 mov	 BYTE PTR $T11[ebp], 0
$LN23@DrawTextOr:

; 299  : 	if(!GetDrawingEnvironment(drawingHorzScaleData, scaleRegion, pDC->GetTextExtent("0").cy, 

  000fa	8d 4d ec	 lea	 ecx, DWORD PTR $T10[ebp]
  000fd	c6 45 fc 00	 mov	 BYTE PTR __$EHRec$[ebp+8], 0
  00101	ff 15 00 00 00
	00		 call	 DWORD PTR __imp_??1?$CStringT@DV?$StrTraitMFC_DLL@DV?$ChTraitsCRT@D@ATL@@@@@ATL@@QAE@XZ
  00107	80 7d f3 00	 cmp	 BYTE PTR $T11[ebp], 0
  0010b	0f 85 55 01 00
	00		 jne	 $LN3@DrawTextOr

; 300  : 		dataList, dMin, dMax, dOnePtWidth, nPosPt_y))
; 301  : 		return;
; 302  : 
; 303  : 	double dPreData;
; 304  : 	int nPre_textEndPos(0);
; 305  : 	POSITION pos = dataList.GetHeadPosition();

  00111	8b 4d b8	 mov	 ecx, DWORD PTR _dataList$[ebp+4]
  00114	85 c9		 test	 ecx, ecx

; 306  : 	while(pos != NULL){

  00116	0f 84 4a 01 00
	00		 je	 $LN3@DrawTextOr
  0011c	0f 1f 40 00	 npad	 4
$LL2@DrawTextOr:

; 307  : 		double dData = dataList.GetNext(pos);

  00120	f2 0f 10 41 08	 movsd	 xmm0, QWORD PTR [ecx+8]
; File C:\Program Files (x86)\Microsoft Visual Studio\2019\Community\VC\Tools\MSVC\14.29.30133\atlmfc\include\afxtempl.h

; 811  : 	{ CNode* pNode = (CNode*) rPosition;

  00125	8d 01		 lea	 eax, DWORD PTR [ecx]

; 813  : 		rPosition = (POSITION) pNode->pNext;

  00127	8b 09		 mov	 ecx, DWORD PTR [ecx]
; File D:\git\src\IBK\IBK_DRFN\ProjSrc\SrcChartEx\ChartOCX\ScaleDraw\DataHorzScaleDrawer.cpp

; 308  : 		CString strData = GetData(dData, dPreData);

  00129	8d 85 78 ff ff
	ff		 lea	 eax, DWORD PTR _dPreData$[ebp]
  0012f	50		 push	 eax
  00130	8d 45 98	 lea	 eax, DWORD PTR _dData$3[ebp]
; File C:\Program Files (x86)\Microsoft Visual Studio\2019\Community\VC\Tools\MSVC\14.29.30133\atlmfc\include\afxtempl.h

; 813  : 		rPosition = (POSITION) pNode->pNext;

  00133	89 4d a8	 mov	 DWORD PTR _pos$1$[ebp], ecx
; File D:\git\src\IBK\IBK_DRFN\ProjSrc\SrcChartEx\ChartOCX\ScaleDraw\DataHorzScaleDrawer.cpp

; 308  : 		CString strData = GetData(dData, dPreData);

  00136	50		 push	 eax
  00137	8d 45 ec	 lea	 eax, DWORD PTR _strData$9[ebp]
  0013a	f2 0f 11 45 98	 movsd	 QWORD PTR _dData$3[ebp], xmm0
  0013f	50		 push	 eax
  00140	8b cb		 mov	 ecx, ebx
  00142	e8 00 00 00 00	 call	 ?GetData@CLeftRightScaleDrawer@@ABE?AV?$CStringT@DV?$StrTraitMFC_DLL@DV?$ChTraitsCRT@D@ATL@@@@@ATL@@ABNAAN@Z ; CLeftRightScaleDrawer::GetData
; File C:\Program Files (x86)\Microsoft Visual Studio\2019\Community\VC\Tools\MSVC\14.29.30133\atlmfc\include\atlsimpstr.h

; 519  : 		return( GetData()->nDataLength );

  00147	8b 45 ec	 mov	 eax, DWORD PTR _strData$9[ebp]
; File D:\git\src\IBK\IBK_DRFN\ProjSrc\SrcChartEx\ChartOCX\ScaleDraw\DataHorzScaleDrawer.cpp

; 308  : 		CString strData = GetData(dData, dPreData);

  0014a	c6 45 fc 02	 mov	 BYTE PTR __$EHRec$[ebp+8], 2
; File C:\Program Files (x86)\Microsoft Visual Studio\2019\Community\VC\Tools\MSVC\14.29.30133\atlmfc\include\atlsimpstr.h

; 533  : 		return( GetLength() == 0 );

  0014e	83 78 f4 00	 cmp	 DWORD PTR [eax-12], 0
; File D:\git\src\IBK\IBK_DRFN\ProjSrc\SrcChartEx\ChartOCX\ScaleDraw\DataHorzScaleDrawer.cpp

; 309  : 		if(strData.IsEmpty())

  00152	0f 84 f6 00 00
	00		 je	 $LN76@DrawTextOr

; 312  : 		int nPosPt_x = CDataConversion::GetHorizontalPoint_X(scaleRegion, dMin, dMax, dData);

  00158	8d 45 98	 lea	 eax, DWORD PTR _dData$3[ebp]
  0015b	50		 push	 eax
  0015c	8d 45 90	 lea	 eax, DWORD PTR _dMax$[ebp]
  0015f	50		 push	 eax
  00160	8d 45 88	 lea	 eax, DWORD PTR _dMin$[ebp]
  00163	50		 push	 eax
  00164	57		 push	 edi
  00165	e8 00 00 00 00	 call	 ?GetHorizontalPoint_X@CDataConversion@@SAHABVCRect@@ABN11@Z ; CDataConversion::GetHorizontalPoint_X
; File C:\Program Files (x86)\Microsoft Visual Studio\2019\Community\VC\Tools\MSVC\14.29.30133\atlmfc\include\atlsimpstr.h

; 519  : 		return( GetData()->nDataLength );

  0016a	8b 4d ec	 mov	 ecx, DWORD PTR _strData$9[ebp]
; File D:\git\src\IBK\IBK_DRFN\ProjSrc\SrcChartEx\ChartOCX\ScaleDraw\DataHorzScaleDrawer.cpp

; 312  : 		int nPosPt_x = CDataConversion::GetHorizontalPoint_X(scaleRegion, dMin, dMax, dData);

  0016d	83 c4 10	 add	 esp, 16			; 00000010H
  00170	89 45 e8	 mov	 DWORD PTR _nPosPt_x$1$[ebp], eax
; File C:\Program Files (x86)\Microsoft Visual Studio\2019\Community\VC\Tools\MSVC\14.29.30133\atlmfc\include\afxwin1.inl

; 639  : 		VERIFY(::GetTextExtentPoint32(m_hAttribDC, str, (int)str.GetLength(), &size));

  00173	8d 45 a0	 lea	 eax, DWORD PTR _size$5[ebp]
  00176	50		 push	 eax
  00177	ff 71 f4	 push	 DWORD PTR [ecx-12]
  0017a	51		 push	 ecx
  0017b	ff 76 08	 push	 DWORD PTR [esi+8]
  0017e	ff 15 00 00 00
	00		 call	 DWORD PTR __imp__GetTextExtentPoint32A@16
; File C:\Program Files (x86)\Microsoft Visual Studio\2019\Community\VC\Tools\MSVC\14.29.30133\atlmfc\include\atltypes.h

; 408  : 	x = initX;

  00184	8b 45 e8	 mov	 eax, DWORD PTR _nPosPt_x$1$[ebp]
; File D:\git\src\IBK\IBK_DRFN\ProjSrc\SrcChartEx\ChartOCX\ScaleDraw\DataHorzScaleDrawer.cpp

; 313  : 		CDataHorzScaleDrawer::DrawTextAndCompartLine(pDC, scaleRegion, CPoint(nPosPt_x, nPosPt_y), dOnePtWidth,

  00187	8b 4d 0c	 mov	 ecx, DWORD PTR _drawingHorzScaleData$[ebp]
; File C:\Program Files (x86)\Microsoft Visual Studio\2019\Community\VC\Tools\MSVC\14.29.30133\atlmfc\include\atltypes.h

; 318  : 	*(SIZE*)this = initSize;

  0018a	8b 7d a0	 mov	 edi, DWORD PTR _size$5[ebp]
  0018d	8b 5d a4	 mov	 ebx, DWORD PTR _size$5[ebp+4]

; 408  : 	x = initX;

  00190	89 45 d8	 mov	 DWORD PTR $T8[ebp], eax

; 409  : 	y = initY;

  00193	8b 45 e0	 mov	 eax, DWORD PTR _nPosPt_y$[ebp]
  00196	89 45 dc	 mov	 DWORD PTR $T8[ebp+4], eax
; File D:\git\src\IBK\IBK_DRFN\ProjSrc\SrcChartEx\ChartOCX\ScaleDraw\DataHorzScaleDrawer.cpp

; 313  : 		CDataHorzScaleDrawer::DrawTextAndCompartLine(pDC, scaleRegion, CPoint(nPosPt_x, nPosPt_y), dOnePtWidth,

  00199	e8 00 00 00 00	 call	 ?GetCompartLineColor@CDrawingHorzScaleData@@QBEKXZ ; CDrawingHorzScaleData::GetCompartLineColor
  0019e	8b 4d 0c	 mov	 ecx, DWORD PTR _drawingHorzScaleData$[ebp]
  001a1	8b f0		 mov	 esi, eax
  001a3	8d 85 6c ff ff
	ff		 lea	 eax, DWORD PTR $T2[ebp]
  001a9	50		 push	 eax
  001aa	e8 00 00 00 00	 call	 ?GetScaleColor@CDrawingHorzScaleData@@QBE?AVCScaleColor@@XZ ; CDrawingHorzScaleData::GetScaleColor
  001af	8b c8		 mov	 ecx, eax
  001b1	ff 15 00 00 00
	00		 call	 DWORD PTR __imp_?GetScaleTextColor@CScaleColor@@QAEAAKXZ
  001b7	8b 4d 14	 mov	 ecx, DWORD PTR _horzScale$[ebp]
  001ba	8b 00		 mov	 eax, DWORD PTR [eax]
  001bc	89 45 ac	 mov	 DWORD PTR _textColor$1$[ebp], eax
  001bf	e8 00 00 00 00	 call	 ?GetHorzScalePosition@CHorizontalScale@@QBE?AW4HORZSCALEPOSITION@CScaleBaseData@@XZ ; CHorizontalScale::GetHorzScalePosition

; 28   : 	CHorzScaleDrawer::DrawTextCompartLine(pDC, scaleRegion, nowPos, bIsTopPos, gridColor);

  001c4	8b 4d e4	 mov	 ecx, DWORD PTR _this$1$[ebp]

; 313  : 		CDataHorzScaleDrawer::DrawTextAndCompartLine(pDC, scaleRegion, CPoint(nPosPt_x, nPosPt_y), dOnePtWidth,

  001c7	85 c0		 test	 eax, eax

; 28   : 	CHorzScaleDrawer::DrawTextCompartLine(pDC, scaleRegion, nowPos, bIsTopPos, gridColor);

  001c9	56		 push	 esi

; 313  : 		CDataHorzScaleDrawer::DrawTextAndCompartLine(pDC, scaleRegion, CPoint(nPosPt_x, nPosPt_y), dOnePtWidth,

  001ca	0f 94 45 b0	 sete	 BYTE PTR _bIsTopPos$[ebp]

; 28   : 	CHorzScaleDrawer::DrawTextCompartLine(pDC, scaleRegion, nowPos, bIsTopPos, gridColor);

  001ce	8d 45 d8	 lea	 eax, DWORD PTR $T8[ebp]
  001d1	ff 75 b0	 push	 DWORD PTR _bIsTopPos$[ebp]
  001d4	50		 push	 eax
  001d5	ff 75 10	 push	 DWORD PTR _scaleRegion$[ebp]
  001d8	ff 75 08	 push	 DWORD PTR _pDC$[ebp]
  001db	e8 00 00 00 00	 call	 ?DrawTextCompartLine@CHorzScaleDrawer@@IAEXPAVCDC@@ABVCRect@@ABVCPoint@@_NK@Z ; CHorzScaleDrawer::DrawTextCompartLine

; 29   : 
; 30   : 	// text 
; 31   : 	CPoint textPosPt(GetTextPosition_x(nowPos.x, textSize.cx, true), nowPos.y);

  001e0	8b 75 d8	 mov	 esi, DWORD PTR $T8[ebp]

; 48   : 		return(org_x - CMath::Round(textWidth / 2.0));

  001e3	83 ec 08	 sub	 esp, 8
  001e6	66 0f 6e c7	 movd	 xmm0, edi
  001ea	f3 0f e6 c0	 cvtdq2pd xmm0, xmm0
  001ee	f2 0f 59 05 00
	00 00 00	 mulsd	 xmm0, QWORD PTR __real@3fe0000000000000
  001f6	f2 0f 11 04 24	 movsd	 QWORD PTR [esp], xmm0
  001fb	e8 00 00 00 00	 call	 ?Round@CMath@@SAHN@Z	; CMath::Round
; File C:\Program Files (x86)\Microsoft Visual Studio\2019\Community\VC\Tools\MSVC\14.29.30133\atlmfc\include\atltypes.h

; 581  : 	return bottom - top;

  00200	8b 7d 10	 mov	 edi, DWORD PTR _scaleRegion$[ebp]
; File D:\git\src\IBK\IBK_DRFN\ProjSrc\SrcChartEx\ChartOCX\ScaleDraw\DataHorzScaleDrawer.cpp

; 48   : 		return(org_x - CMath::Round(textWidth / 2.0));

  00203	2b f0		 sub	 esi, eax
; File C:\Program Files (x86)\Microsoft Visual Studio\2019\Community\VC\Tools\MSVC\14.29.30133\atlmfc\include\atltypes.h

; 409  : 	y = initY;

  00205	8b 45 dc	 mov	 eax, DWORD PTR $T8[ebp+4]
; File D:\git\src\IBK\IBK_DRFN\ProjSrc\SrcChartEx\ChartOCX\ScaleDraw\DataHorzScaleDrawer.cpp

; 48   : 		return(org_x - CMath::Round(textWidth / 2.0));

  00208	83 c4 08	 add	 esp, 8
; File C:\Program Files (x86)\Microsoft Visual Studio\2019\Community\VC\Tools\MSVC\14.29.30133\atlmfc\include\atltypes.h

; 409  : 	y = initY;

  0020b	89 45 d4	 mov	 DWORD PTR _textPosPt$6[ebp+4], eax
  0020e	89 75 d0	 mov	 DWORD PTR _textPosPt$6[ebp], esi

; 581  : 	return bottom - top;

  00211	8b 47 0c	 mov	 eax, DWORD PTR [edi+12]
  00214	2b 47 04	 sub	 eax, DWORD PTR [edi+4]
; File D:\git\src\IBK\IBK_DRFN\ProjSrc\SrcChartEx\ChartOCX\ScaleDraw\DataHorzScaleDrawer.cpp

; 32   : 	if(scaleRegion.Height() > textSize.cy)

  00217	8b 75 08	 mov	 esi, DWORD PTR _pDC$[ebp]
  0021a	3b c3		 cmp	 eax, ebx
  0021c	8b 5d e4	 mov	 ebx, DWORD PTR _this$1$[ebp]
  0021f	7e 14		 jle	 SHORT $LN47@DrawTextOr

; 33   : 		CDrawer::DrawTextOut(pDC, textPosPt, data, textColor);

  00221	ff 75 ac	 push	 DWORD PTR _textColor$1$[ebp]
  00224	8d 45 ec	 lea	 eax, DWORD PTR _strData$9[ebp]
  00227	50		 push	 eax
  00228	8d 45 d0	 lea	 eax, DWORD PTR _textPosPt$6[ebp]
  0022b	50		 push	 eax
  0022c	56		 push	 esi
  0022d	8d 4b 04	 lea	 ecx, DWORD PTR [ebx+4]
  00230	e8 00 00 00 00	 call	 ?DrawTextOut@CDrawer@@IAEXPAVCDC@@ABVCPoint@@ABV?$CStringT@DV?$StrTraitMFC_DLL@DV?$ChTraitsCRT@D@ATL@@@@@ATL@@K@Z ; CDrawer::DrawTextOut
$LN47@DrawTextOr:

; 314  : 			(horzScale.GetHorzScalePosition() == CScaleBaseData::HORZ_TOP ? true: false), 
; 315  : 			strData, pDC->GetTextExtent(strData), drawingHorzScaleData.GetScaleColor().GetScaleTextColor(), 
; 316  : 			drawingHorzScaleData.GetCompartLineColor(), nPre_textEndPos);
; 317  : 
; 318  : 		CHorzScaleDrawer::DrawGrid(pDC, drawingHorzScaleData, horzScale.GetGridType(), nPosPt_x);

  00235	8b 4d 14	 mov	 ecx, DWORD PTR _horzScale$[ebp]
  00238	6a 01		 push	 1
  0023a	ff 75 e8	 push	 DWORD PTR _nPosPt_x$1$[ebp]
  0023d	e8 00 00 00 00	 call	 ?GetGridType@CScale@@QBE?AW4SCALEGRIDTYPE@CScaleBaseData@@XZ ; CScale::GetGridType
  00242	50		 push	 eax
  00243	ff 75 0c	 push	 DWORD PTR _drawingHorzScaleData$[ebp]
  00246	8b cb		 mov	 ecx, ebx
  00248	56		 push	 esi
  00249	e8 00 00 00 00	 call	 ?DrawGrid@CHorzScaleDrawer@@IAEXPAVCDC@@ABVCDrawingHorzScaleData@@W4SCALEGRIDTYPE@CScaleBaseData@@HH@Z ; CHorzScaleDrawer::DrawGrid
$LN76@DrawTextOr:

; 306  : 	while(pos != NULL){

  0024e	8d 4d ec	 lea	 ecx, DWORD PTR _strData$9[ebp]
  00251	c6 45 fc 00	 mov	 BYTE PTR __$EHRec$[ebp+8], 0
  00255	ff 15 00 00 00
	00		 call	 DWORD PTR __imp_??1?$CStringT@DV?$StrTraitMFC_DLL@DV?$ChTraitsCRT@D@ATL@@@@@ATL@@QAE@XZ
  0025b	8b 4d a8	 mov	 ecx, DWORD PTR _pos$1$[ebp]
  0025e	85 c9		 test	 ecx, ecx
  00260	0f 85 ba fe ff
	ff		 jne	 $LL2@DrawTextOr
$LN3@DrawTextOr:
; File C:\Program Files (x86)\Microsoft Visual Studio\2019\Community\VC\Tools\MSVC\14.29.30133\atlmfc\include\afxtempl.h

; 872  : 	m_pBlocks->FreeDataChain();

  00266	8b 4d c8	 mov	 ecx, DWORD PTR _dataList$[ebp+20]

; 878  : {

  00269	c7 45 fc 03 00
	00 00		 mov	 DWORD PTR __$EHRec$[ebp+8], 3
  00270	c7 45 b4 00 00
	00 00		 mov	 DWORD PTR _dataList$[ebp], OFFSET ??_7?$CList@NN@@6B@

; 870  : 	m_nCount = 0;

  00277	c7 45 c0 00 00
	00 00		 mov	 DWORD PTR _dataList$[ebp+12], 0

; 871  : 	m_pNodeHead = m_pNodeTail = m_pNodeFree = NULL;

  0027e	c7 45 c4 00 00
	00 00		 mov	 DWORD PTR _dataList$[ebp+16], 0
  00285	c7 45 bc 00 00
	00 00		 mov	 DWORD PTR _dataList$[ebp+8], 0
  0028c	c7 45 b8 00 00
	00 00		 mov	 DWORD PTR _dataList$[ebp+4], 0

; 872  : 	m_pBlocks->FreeDataChain();

  00293	e8 00 00 00 00	 call	 ?FreeDataChain@CPlex@@QAEXXZ ; CPlex::FreeDataChain
; File D:\git\src\IBK\IBK_DRFN\ProjSrc\SrcChartEx\ChartOCX\ScaleDraw\DataHorzScaleDrawer.cpp

; 320  : }

  00298	8b 4d f4	 mov	 ecx, DWORD PTR __$EHRec$[ebp]
  0029b	64 89 0d 00 00
	00 00		 mov	 DWORD PTR fs:0, ecx
  002a2	59		 pop	 ecx
  002a3	5f		 pop	 edi
  002a4	5e		 pop	 esi
  002a5	5b		 pop	 ebx
  002a6	8b e5		 mov	 esp, ebp
  002a8	5d		 pop	 ebp
  002a9	c2 10 00	 ret	 16			; 00000010H
_TEXT	ENDS
;	COMDAT text$x
text$x	SEGMENT
__unwindfunclet$?DrawTextOrGrid@CLeftRightScaleDrawer@@UAEXPAVCDC@@ABVCDrawingHorzScaleData@@ABVCRect@@ABVCHorizontalScale@@@Z$0:
  00000	8d 4d b4	 lea	 ecx, DWORD PTR _dataList$[ebp]
  00003	e9 00 00 00 00	 jmp	 ??1?$CList@NN@@UAE@XZ	; CList<double,double>::~CList<double,double>
__unwindfunclet$?DrawTextOrGrid@CLeftRightScaleDrawer@@UAEXPAVCDC@@ABVCDrawingHorzScaleData@@ABVCRect@@ABVCHorizontalScale@@@Z$1:
  00008	8d 4d ec	 lea	 ecx, DWORD PTR $T10[ebp]
  0000b	ff 25 00 00 00
	00		 jmp	 DWORD PTR __imp_??1?$CStringT@DV?$StrTraitMFC_DLL@DV?$ChTraitsCRT@D@ATL@@@@@ATL@@QAE@XZ
__unwindfunclet$?DrawTextOrGrid@CLeftRightScaleDrawer@@UAEXPAVCDC@@ABVCDrawingHorzScaleData@@ABVCRect@@ABVCHorizontalScale@@@Z$2:
  00011	8d 4d ec	 lea	 ecx, DWORD PTR _strData$9[ebp]
  00014	ff 25 00 00 00
	00		 jmp	 DWORD PTR __imp_??1?$CStringT@DV?$StrTraitMFC_DLL@DV?$ChTraitsCRT@D@ATL@@@@@ATL@@QAE@XZ
  0001a	cc		 int	 3
  0001b	cc		 int	 3
  0001c	cc		 int	 3
  0001d	cc		 int	 3
  0001e	cc		 int	 3
__ehhandler$?DrawTextOrGrid@CLeftRightScaleDrawer@@UAEXPAVCDC@@ABVCDrawingHorzScaleData@@ABVCRect@@ABVCHorizontalScale@@@Z:
  0001f	90		 npad	 1
  00020	90		 npad	 1
  00021	8b 54 24 08	 mov	 edx, DWORD PTR [esp+8]
  00025	8d 42 0c	 lea	 eax, DWORD PTR [edx+12]
  00028	8b 8a 68 ff ff
	ff		 mov	 ecx, DWORD PTR [edx-152]
  0002e	33 c8		 xor	 ecx, eax
  00030	e8 00 00 00 00	 call	 @__security_check_cookie@4
  00035	b8 00 00 00 00	 mov	 eax, OFFSET __ehfuncinfo$?DrawTextOrGrid@CLeftRightScaleDrawer@@UAEXPAVCDC@@ABVCDrawingHorzScaleData@@ABVCRect@@ABVCHorizontalScale@@@Z
  0003a	e9 00 00 00 00	 jmp	 ___CxxFrameHandler3
text$x	ENDS
?DrawTextOrGrid@CLeftRightScaleDrawer@@UAEXPAVCDC@@ABVCDrawingHorzScaleData@@ABVCRect@@ABVCHorizontalScale@@@Z ENDP ; CLeftRightScaleDrawer::DrawTextOrGrid
; Function compile flags: /Ogtp
; File D:\git\src\IBK\IBK_DRFN\ProjSrc\SrcChartEx\ChartOCX\ScaleDraw\DataHorzScaleDrawer.cpp
;	COMDAT ??0CLeftRightScaleDrawer@@QAE@PAUHWND__@@W4CHART_MODE@CChartInfo@@@Z
_TEXT	SEGMENT
_p_hOcxWnd$ = 8						; size = 4
_p_eChartMode$ = 12					; size = 4
??0CLeftRightScaleDrawer@@QAE@PAUHWND__@@W4CHART_MODE@CChartInfo@@@Z PROC ; CLeftRightScaleDrawer::CLeftRightScaleDrawer, COMDAT
; _this$ = ecx

; 290  : {

  00000	55		 push	 ebp
  00001	8b ec		 mov	 ebp, esp
  00003	56		 push	 esi

; 19   : 	: CHorzScaleDrawer( p_hOcxWnd, p_eChartMode)

  00004	ff 75 0c	 push	 DWORD PTR _p_eChartMode$[ebp]

; 290  : {

  00007	8b f1		 mov	 esi, ecx

; 19   : 	: CHorzScaleDrawer( p_hOcxWnd, p_eChartMode)

  00009	ff 75 08	 push	 DWORD PTR _p_hOcxWnd$[ebp]
  0000c	e8 00 00 00 00	 call	 ??0CHorzScaleDrawer@@QAE@PAUHWND__@@W4CHART_MODE@CChartInfo@@@Z ; CHorzScaleDrawer::CHorzScaleDrawer

; 290  : {

  00011	c7 06 00 00 00
	00		 mov	 DWORD PTR [esi], OFFSET ??_7CLeftRightScaleDrawer@@6B@

; 291  : }

  00017	8b c6		 mov	 eax, esi
  00019	5e		 pop	 esi
  0001a	5d		 pop	 ebp
  0001b	c2 08 00	 ret	 8
??0CLeftRightScaleDrawer@@QAE@PAUHWND__@@W4CHART_MODE@CChartInfo@@@Z ENDP ; CLeftRightScaleDrawer::CLeftRightScaleDrawer
_TEXT	ENDS
; Function compile flags: /Ogtp
; File D:\git\src\IBK\IBK_DRFN\ProjSrc\SrcChartEx\ChartOCX\ScaleDraw\DataHorzScaleDrawer.cpp
; File C:\Program Files (x86)\Microsoft Visual Studio\2019\Community\VC\Tools\MSVC\14.29.30133\atlmfc\include\afxwin1.inl
; File D:\git\src\IBK\IBK_DRFN\ProjSrc\SrcChartEx\ChartOCX\ScaleDraw\DataHorzScaleDrawer.cpp
; File C:\Program Files (x86)\Microsoft Visual Studio\2019\Community\VC\Tools\MSVC\14.29.30133\atlmfc\include\afxwin1.inl
; File D:\git\src\IBK\IBK_DRFN\ProjSrc\SrcChartEx\ChartOCX\ScaleDraw\DataHorzScaleDrawer.cpp
; File C:\Program Files (x86)\Microsoft Visual Studio\2019\Community\VC\Tools\MSVC\14.29.30133\atlmfc\include\afxwin1.inl
; File D:\git\src\IBK\IBK_DRFN\ProjSrc\SrcChartEx\ChartOCX\ScaleDraw\DataHorzScaleDrawer.cpp
; File C:\Program Files (x86)\Microsoft Visual Studio\2019\Community\VC\Tools\MSVC\14.29.30133\atlmfc\include\afxwin1.inl
; File D:\git\src\IBK\IBK_DRFN\ProjSrc\SrcChartEx\ChartOCX\ScaleDraw\DataHorzScaleDrawer.cpp
; File C:\Program Files (x86)\Microsoft Visual Studio\2019\Community\VC\Tools\MSVC\14.29.30133\atlmfc\include\afxwin1.inl
; File D:\git\src\IBK\IBK_DRFN\ProjSrc\SrcChartEx\ChartOCX\ScaleDraw\DataHorzScaleDrawer.cpp
; File C:\Program Files (x86)\Microsoft Visual Studio\2019\Community\VC\Tools\MSVC\14.29.30133\atlmfc\include\afxwin1.inl
; File D:\git\src\IBK\IBK_DRFN\ProjSrc\SrcChartEx\ChartOCX\ScaleDraw\DataHorzScaleDrawer.cpp
; File C:\Program Files (x86)\Microsoft Visual Studio\2019\Community\VC\Tools\MSVC\14.29.30133\atlmfc\include\afxwin1.inl
; File D:\git\src\IBK\IBK_DRFN\ProjSrc\SrcChartEx\ChartOCX\ScaleDraw\DataHorzScaleDrawer.cpp
;	COMDAT ?GetFont@CEtcDataHorzScaleDrawer@@AAEXAAVCFont@@@Z
_TEXT	SEGMENT
_font$ = -84						; size = 8
_lf$2 = -76						; size = 60
__$ArrayPad$ = -16					; size = 4
__$EHRec$ = -12						; size = 12
_fontVertCaption$ = 8					; size = 4
?GetFont@CEtcDataHorzScaleDrawer@@AAEXAAVCFont@@@Z PROC	; CEtcDataHorzScaleDrawer::GetFont, COMDAT
; _this$ = ecx

; 263  : {

  00000	55		 push	 ebp
  00001	8b ec		 mov	 ebp, esp
  00003	6a ff		 push	 -1
  00005	68 00 00 00 00	 push	 __ehhandler$?GetFont@CEtcDataHorzScaleDrawer@@AAEXAAVCFont@@@Z
  0000a	64 a1 00 00 00
	00		 mov	 eax, DWORD PTR fs:0
  00010	50		 push	 eax
  00011	83 ec 48	 sub	 esp, 72			; 00000048H
  00014	a1 00 00 00 00	 mov	 eax, DWORD PTR ___security_cookie
  00019	33 c5		 xor	 eax, ebp
  0001b	89 45 f0	 mov	 DWORD PTR __$ArrayPad$[ebp], eax
  0001e	56		 push	 esi
  0001f	57		 push	 edi
  00020	50		 push	 eax
  00021	8d 45 f4	 lea	 eax, DWORD PTR __$EHRec$[ebp]
  00024	64 a3 00 00 00
	00		 mov	 DWORD PTR fs:0, eax
  0002a	8b 7d 08	 mov	 edi, DWORD PTR _fontVertCaption$[ebp]
; File C:\Program Files (x86)\Microsoft Visual Studio\2019\Community\VC\Tools\MSVC\14.29.30133\atlmfc\include\afxwin1.inl

; 70   : 	{ m_hObject = NULL; }

  0002d	c7 45 b0 00 00
	00 00		 mov	 DWORD PTR _font$[ebp+4], 0

; 153  : 	{ }

  00034	c7 45 ac 00 00
	00 00		 mov	 DWORD PTR _font$[ebp], OFFSET ??_7CFont@@6B@

; 88   : 	{ return (m_hObject = ::GetStockObject(nIndex)) != NULL; }

  0003b	6a 11		 push	 17			; 00000011H
; File D:\git\src\IBK\IBK_DRFN\ProjSrc\SrcChartEx\ChartOCX\ScaleDraw\DataHorzScaleDrawer.cpp

; 264  : 	CFont font;

  0003d	c7 45 fc 00 00
	00 00		 mov	 DWORD PTR __$EHRec$[ebp+8], 0
; File C:\Program Files (x86)\Microsoft Visual Studio\2019\Community\VC\Tools\MSVC\14.29.30133\atlmfc\include\afxwin1.inl

; 88   : 	{ return (m_hObject = ::GetStockObject(nIndex)) != NULL; }

  00044	ff 15 00 00 00
	00		 call	 DWORD PTR __imp__GetStockObject@4
  0004a	8b f0		 mov	 esi, eax
  0004c	89 75 b0	 mov	 DWORD PTR _font$[ebp+4], esi
  0004f	85 f6		 test	 esi, esi
; File D:\git\src\IBK\IBK_DRFN\ProjSrc\SrcChartEx\ChartOCX\ScaleDraw\DataHorzScaleDrawer.cpp

; 265  : 	if(font.CreateStockObject (DEFAULT_GUI_FONT))

  00051	74 56		 je	 SHORT $LN3@GetFont

; 266  : 	{
; 267  :      	LOGFONT lf;
; 268  :        	memset (&lf, 0, sizeof (LOGFONT));

  00053	6a 3c		 push	 60			; 0000003cH
  00055	8d 45 b4	 lea	 eax, DWORD PTR _lf$2[ebp]
  00058	6a 00		 push	 0
  0005a	50		 push	 eax
  0005b	e8 00 00 00 00	 call	 _memset
  00060	83 c4 0c	 add	 esp, 12			; 0000000cH
; File C:\Program Files (x86)\Microsoft Visual Studio\2019\Community\VC\Tools\MSVC\14.29.30133\atlmfc\include\afxwin1.inl

; 169  : 		return ::GetObject(m_hObject, sizeof(LOGFONT), pLogFont); }

  00063	8d 45 b4	 lea	 eax, DWORD PTR _lf$2[ebp]
  00066	50		 push	 eax
  00067	6a 3c		 push	 60			; 0000003cH
  00069	56		 push	 esi
  0006a	ff 15 00 00 00
	00		 call	 DWORD PTR __imp__GetObjectA@12
; File D:\git\src\IBK\IBK_DRFN\ProjSrc\SrcChartEx\ChartOCX\ScaleDraw\DataHorzScaleDrawer.cpp

; 269  :        	if (font.GetLogFont (&lf) != 0)

  00070	85 c0		 test	 eax, eax
  00072	74 35		 je	 SHORT $LN3@GetFont
; File C:\Program Files (x86)\Microsoft Visual Studio\2019\Community\VC\Tools\MSVC\14.29.30133\atlmfc\include\afxwin1.inl

; 157  : 	{ return Attach(::CreateFontIndirect(lpLogFont)); }

  00074	8d 45 b4	 lea	 eax, DWORD PTR _lf$2[ebp]
; File D:\git\src\IBK\IBK_DRFN\ProjSrc\SrcChartEx\ChartOCX\ScaleDraw\DataHorzScaleDrawer.cpp

; 271  :        		lf.lfOrientation = 900;

  00077	c7 45 c0 84 03
	00 00		 mov	 DWORD PTR _lf$2[ebp+12], 900 ; 00000384H
; File C:\Program Files (x86)\Microsoft Visual Studio\2019\Community\VC\Tools\MSVC\14.29.30133\atlmfc\include\afxwin1.inl

; 157  : 	{ return Attach(::CreateFontIndirect(lpLogFont)); }

  0007e	50		 push	 eax
; File D:\git\src\IBK\IBK_DRFN\ProjSrc\SrcChartEx\ChartOCX\ScaleDraw\DataHorzScaleDrawer.cpp

; 272  :        		lf.lfEscapement = 900;

  0007f	c7 45 bc 84 03
	00 00		 mov	 DWORD PTR _lf$2[ebp+8], 900 ; 00000384H

; 273  :        		lf.lfHeight = 12;

  00086	c7 45 b4 0c 00
	00 00		 mov	 DWORD PTR _lf$2[ebp], 12 ; 0000000cH

; 274  :        		lf.lfWidth = 0;

  0008d	c7 45 b8 00 00
	00 00		 mov	 DWORD PTR _lf$2[ebp+4], 0

; 275  :        		lf.lfWeight = 400;

  00094	c7 45 c4 90 01
	00 00		 mov	 DWORD PTR _lf$2[ebp+16], 400 ; 00000190H
; File C:\Program Files (x86)\Microsoft Visual Studio\2019\Community\VC\Tools\MSVC\14.29.30133\atlmfc\include\afxwin1.inl

; 157  : 	{ return Attach(::CreateFontIndirect(lpLogFont)); }

  0009b	ff 15 00 00 00
	00		 call	 DWORD PTR __imp__CreateFontIndirectA@4
  000a1	50		 push	 eax
  000a2	8b cf		 mov	 ecx, edi
  000a4	e8 00 00 00 00	 call	 ?Attach@CGdiObject@@QAEHPAX@Z ; CGdiObject::Attach
$LN3@GetFont:
; File D:\git\src\IBK\IBK_DRFN\ProjSrc\SrcChartEx\ChartOCX\ScaleDraw\DataHorzScaleDrawer.cpp

; 281  : 	font.DeleteObject();

  000a9	8d 4d ac	 lea	 ecx, DWORD PTR _font$[ebp]
  000ac	e8 00 00 00 00	 call	 ?DeleteObject@CGdiObject@@QAEHXZ ; CGdiObject::DeleteObject
; File C:\Program Files (x86)\Microsoft Visual Studio\2019\Community\VC\Tools\MSVC\14.29.30133\atlmfc\include\afxwin1.inl

; 155  : 	{ }

  000b1	8d 4d ac	 lea	 ecx, DWORD PTR _font$[ebp]
  000b4	c7 45 ac 00 00
	00 00		 mov	 DWORD PTR _font$[ebp], OFFSET ??_7CFont@@6B@
  000bb	e8 00 00 00 00	 call	 ??1CGdiObject@@UAE@XZ	; CGdiObject::~CGdiObject
; File D:\git\src\IBK\IBK_DRFN\ProjSrc\SrcChartEx\ChartOCX\ScaleDraw\DataHorzScaleDrawer.cpp

; 282  : }

  000c0	8b 4d f4	 mov	 ecx, DWORD PTR __$EHRec$[ebp]
  000c3	64 89 0d 00 00
	00 00		 mov	 DWORD PTR fs:0, ecx
  000ca	59		 pop	 ecx
  000cb	5f		 pop	 edi
  000cc	5e		 pop	 esi
  000cd	8b 4d f0	 mov	 ecx, DWORD PTR __$ArrayPad$[ebp]
  000d0	33 cd		 xor	 ecx, ebp
  000d2	e8 00 00 00 00	 call	 @__security_check_cookie@4
  000d7	8b e5		 mov	 esp, ebp
  000d9	5d		 pop	 ebp
  000da	c2 04 00	 ret	 4
_TEXT	ENDS
;	COMDAT text$x
text$x	SEGMENT
__unwindfunclet$?GetFont@CEtcDataHorzScaleDrawer@@AAEXAAVCFont@@@Z$0:
  00000	8d 4d ac	 lea	 ecx, DWORD PTR _font$[ebp]
  00003	e9 00 00 00 00	 jmp	 ??1CFont@@UAE@XZ	; CFont::~CFont
  00008	cc		 int	 3
  00009	cc		 int	 3
  0000a	cc		 int	 3
  0000b	cc		 int	 3
  0000c	cc		 int	 3
__ehhandler$?GetFont@CEtcDataHorzScaleDrawer@@AAEXAAVCFont@@@Z:
  0000d	90		 npad	 1
  0000e	90		 npad	 1
  0000f	8b 54 24 08	 mov	 edx, DWORD PTR [esp+8]
  00013	8d 42 0c	 lea	 eax, DWORD PTR [edx+12]
  00016	8b 4a ac	 mov	 ecx, DWORD PTR [edx-84]
  00019	33 c8		 xor	 ecx, eax
  0001b	e8 00 00 00 00	 call	 @__security_check_cookie@4
  00020	8b 4a fc	 mov	 ecx, DWORD PTR [edx-4]
  00023	33 c8		 xor	 ecx, eax
  00025	e8 00 00 00 00	 call	 @__security_check_cookie@4
  0002a	b8 00 00 00 00	 mov	 eax, OFFSET __ehfuncinfo$?GetFont@CEtcDataHorzScaleDrawer@@AAEXAAVCFont@@@Z
  0002f	e9 00 00 00 00	 jmp	 ___CxxFrameHandler3
text$x	ENDS
?GetFont@CEtcDataHorzScaleDrawer@@AAEXAAVCFont@@@Z ENDP	; CEtcDataHorzScaleDrawer::GetFont
; Function compile flags: /Ogtp
; File D:\git\src\IBK\IBK_DRFN\ProjSrc\SrcChartEx\ChartOCX\ScaleDraw\DataHorzScaleDrawer.cpp
; File C:\Program Files (x86)\Microsoft Visual Studio\2019\Community\VC\Tools\MSVC\14.29.30133\atlmfc\include\atltypes.h
; File D:\git\src\IBK\IBK_DRFN\ProjSrc\SrcChartEx\ChartOCX\ScaleDraw\DataHorzScaleDrawer.cpp
; File C:\Program Files (x86)\Microsoft Visual Studio\2019\Community\VC\Tools\MSVC\14.29.30133\atlmfc\include\atltypes.h
; File D:\git\src\IBK\IBK_DRFN\ProjSrc\SrcChartEx\ChartOCX\ScaleDraw\DataHorzScaleDrawer.cpp
; File C:\Program Files (x86)\Microsoft Visual Studio\2019\Community\VC\Tools\MSVC\14.29.30133\atlmfc\include\atltypes.h
; File D:\git\src\IBK\IBK_DRFN\ProjSrc\SrcChartEx\ChartOCX\ScaleDraw\DataHorzScaleDrawer.cpp
; File C:\Program Files (x86)\Microsoft Visual Studio\2019\Community\VC\Tools\MSVC\14.29.30133\atlmfc\include\atltypes.h
; File D:\git\src\IBK\IBK_DRFN\ProjSrc\SrcChartEx\ChartOCX\ScaleDraw\DataHorzScaleDrawer.cpp
; File C:\Program Files (x86)\Microsoft Visual Studio\2019\Community\VC\Tools\MSVC\14.29.30133\atlmfc\include\atltypes.h
; File D:\git\src\IBK\IBK_DRFN\ProjSrc\SrcChartEx\ChartOCX\ScaleDraw\DataHorzScaleDrawer.cpp
; File C:\Program Files (x86)\Microsoft Visual Studio\2019\Community\VC\Tools\MSVC\14.29.30133\atlmfc\include\atltypes.h
; File D:\git\src\IBK\IBK_DRFN\ProjSrc\SrcChartEx\ChartOCX\ScaleDraw\DataHorzScaleDrawer.cpp
; File C:\Program Files (x86)\Microsoft Visual Studio\2019\Community\VC\Tools\MSVC\14.29.30133\atlmfc\include\atltypes.h
; File D:\git\src\IBK\IBK_DRFN\ProjSrc\SrcChartEx\ChartOCX\ScaleDraw\DataHorzScaleDrawer.cpp
; File C:\Program Files (x86)\Microsoft Visual Studio\2019\Community\VC\Tools\MSVC\14.29.30133\atlmfc\include\afxwin1.inl
; File D:\git\src\IBK\IBK_DRFN\ProjSrc\SrcChartEx\ChartOCX\ScaleDraw\DataHorzScaleDrawer.cpp
; File C:\Program Files (x86)\Microsoft Visual Studio\2019\Community\VC\Tools\MSVC\14.29.30133\atlmfc\include\afxwin1.inl
; File D:\git\src\IBK\IBK_DRFN\ProjSrc\SrcChartEx\ChartOCX\ScaleDraw\DataHorzScaleDrawer.cpp
; File C:\Program Files (x86)\Microsoft Visual Studio\2019\Community\VC\Tools\MSVC\14.29.30133\atlmfc\include\afxwin1.inl
; File D:\git\src\IBK\IBK_DRFN\ProjSrc\SrcChartEx\ChartOCX\ScaleDraw\DataHorzScaleDrawer.cpp
; File C:\Program Files (x86)\Microsoft Visual Studio\2019\Community\VC\Tools\MSVC\14.29.30133\atlmfc\include\afxwin1.inl
; File D:\git\src\IBK\IBK_DRFN\ProjSrc\SrcChartEx\ChartOCX\ScaleDraw\DataHorzScaleDrawer.cpp
; File C:\Program Files (x86)\Microsoft Visual Studio\2019\Community\VC\Tools\MSVC\14.29.30133\atlmfc\include\afxwin1.inl
; File D:\git\src\IBK\IBK_DRFN\ProjSrc\SrcChartEx\ChartOCX\ScaleDraw\DataHorzScaleDrawer.cpp
; File C:\Program Files (x86)\Microsoft Visual Studio\2019\Community\VC\Tools\MSVC\14.29.30133\atlmfc\include\afxwin1.inl
; File D:\git\src\IBK\IBK_DRFN\ProjSrc\SrcChartEx\ChartOCX\ScaleDraw\DataHorzScaleDrawer.cpp
; File C:\Program Files (x86)\Microsoft Visual Studio\2019\Community\VC\Tools\MSVC\14.29.30133\atlmfc\include\afxwin1.inl
; File D:\git\src\IBK\IBK_DRFN\ProjSrc\SrcChartEx\ChartOCX\ScaleDraw\DataHorzScaleDrawer.cpp
; File C:\Program Files (x86)\Microsoft Visual Studio\2019\Community\VC\Tools\MSVC\14.29.30133\atlmfc\include\afxwin1.inl
; File D:\git\src\IBK\IBK_DRFN\ProjSrc\SrcChartEx\ChartOCX\ScaleDraw\DataHorzScaleDrawer.cpp
; File C:\Program Files (x86)\Microsoft Visual Studio\2019\Community\VC\Tools\MSVC\14.29.30133\atlmfc\include\afxwin1.inl
; File D:\git\src\IBK\IBK_DRFN\ProjSrc\SrcChartEx\ChartOCX\ScaleDraw\DataHorzScaleDrawer.cpp
; File C:\Program Files (x86)\Microsoft Visual Studio\2019\Community\VC\Tools\MSVC\14.29.30133\atlmfc\include\afxwin1.inl
; File D:\git\src\IBK\IBK_DRFN\ProjSrc\SrcChartEx\ChartOCX\ScaleDraw\DataHorzScaleDrawer.cpp
;	COMDAT ?DrawTextAndCompartLine_stand@CEtcDataHorzScaleDrawer@@AAEXPAVCDC@@ABVCRect@@ABVCPoint@@ABNABV?$CStringT@DV?$StrTraitMFC_DLL@DV?$ChTraitsCRT@D@ATL@@@@@ATL@@ABVCSize@@KKAAH@Z
_TEXT	SEGMENT
$T2 = -132						; size = 8
$T3 = -124						; size = 8
_textEndPos$GSCopy$1$ = -116				; size = 4
tv532 = -112						; size = 4
_data$GSCopy$1$ = -108					; size = 4
_font$4 = -104						; size = 8
_textPosPt$ = -96					; size = 8
_pDC$GSCopy$1$ = -92					; size = 4
_nowPos$GSCopy$1$ = -88					; size = 4
_m_fontVertCaption$5 = -84				; size = 8
_lf$6 = -76						; size = 60
__$ArrayPad$ = -16					; size = 4
__$EHRec$ = -12						; size = 12
_pDC$ = 8						; size = 4
_scaleRegion$ = 12					; size = 4
_nowPos$ = 16						; size = 4
_textRegionWidth$ = 20					; size = 4
_data$ = 24						; size = 4
_textSize$ = 28						; size = 4
_textColor$ = 32					; size = 4
_gridColor$ = 36					; size = 4
_textEndPos$ = 40					; size = 4
?DrawTextAndCompartLine_stand@CEtcDataHorzScaleDrawer@@AAEXPAVCDC@@ABVCRect@@ABVCPoint@@ABNABV?$CStringT@DV?$StrTraitMFC_DLL@DV?$ChTraitsCRT@D@ATL@@@@@ATL@@ABVCSize@@KKAAH@Z PROC ; CEtcDataHorzScaleDrawer::DrawTextAndCompartLine_stand, COMDAT
; _this$ = ecx

; 227  : {

  00000	55		 push	 ebp
  00001	8b ec		 mov	 ebp, esp
  00003	6a ff		 push	 -1
  00005	68 00 00 00 00	 push	 __ehhandler$?DrawTextAndCompartLine_stand@CEtcDataHorzScaleDrawer@@AAEXPAVCDC@@ABVCRect@@ABVCPoint@@ABNABV?$CStringT@DV?$StrTraitMFC_DLL@DV?$ChTraitsCRT@D@ATL@@@@@ATL@@ABVCSize@@KKAAH@Z
  0000a	64 a1 00 00 00
	00		 mov	 eax, DWORD PTR fs:0
  00010	50		 push	 eax
  00011	83 ec 78	 sub	 esp, 120		; 00000078H
  00014	a1 00 00 00 00	 mov	 eax, DWORD PTR ___security_cookie
  00019	33 c5		 xor	 eax, ebp
  0001b	89 45 f0	 mov	 DWORD PTR __$ArrayPad$[ebp], eax
  0001e	53		 push	 ebx
  0001f	56		 push	 esi
  00020	57		 push	 edi
  00021	50		 push	 eax
  00022	8d 45 f4	 lea	 eax, DWORD PTR __$EHRec$[ebp]
  00025	64 a3 00 00 00
	00		 mov	 DWORD PTR fs:0, eax
  0002b	8b f9		 mov	 edi, ecx
  0002d	8b 45 08	 mov	 eax, DWORD PTR _pDC$[ebp]
  00030	89 45 a4	 mov	 DWORD PTR _pDC$GSCopy$1$[ebp], eax
  00033	8b 45 10	 mov	 eax, DWORD PTR _nowPos$[ebp]
  00036	89 45 a8	 mov	 DWORD PTR _nowPos$GSCopy$1$[ebp], eax
  00039	8b 45 18	 mov	 eax, DWORD PTR _data$[ebp]
  0003c	89 45 94	 mov	 DWORD PTR _data$GSCopy$1$[ebp], eax
  0003f	8b 45 28	 mov	 eax, DWORD PTR _textEndPos$[ebp]
  00042	89 45 8c	 mov	 DWORD PTR _textEndPos$GSCopy$1$[ebp], eax

; 230  : 	CDrawer::DrawLine(pDC, CPoint(nowPos.x, scaleRegion.top), 

  00045	8b 45 0c	 mov	 eax, DWORD PTR _scaleRegion$[ebp]
  00048	8b 5d 14	 mov	 ebx, DWORD PTR _textRegionWidth$[ebp]
  0004b	6a 0d		 push	 13			; 0000000dH
  0004d	6a 00		 push	 0
  0004f	8b 70 04	 mov	 esi, DWORD PTR [eax+4]
  00052	8b 48 0c	 mov	 ecx, DWORD PTR [eax+12]
  00055	b8 56 55 55 55	 mov	 eax, 1431655766		; 55555556H
  0005a	2b ce		 sub	 ecx, esi
; File C:\Program Files (x86)\Microsoft Visual Studio\2019\Community\VC\Tools\MSVC\14.29.30133\atlmfc\include\atltypes.h

; 409  : 	y = initY;

  0005c	89 75 80	 mov	 DWORD PTR $T2[ebp+4], esi
; File D:\git\src\IBK\IBK_DRFN\ProjSrc\SrcChartEx\ChartOCX\ScaleDraw\DataHorzScaleDrawer.cpp

; 230  : 	CDrawer::DrawLine(pDC, CPoint(nowPos.x, scaleRegion.top), 

  0005f	f7 e9		 imul	 ecx
; File C:\Program Files (x86)\Microsoft Visual Studio\2019\Community\VC\Tools\MSVC\14.29.30133\atlmfc\include\atltypes.h

; 408  : 	x = initX;

  00061	8b 45 a8	 mov	 eax, DWORD PTR _nowPos$GSCopy$1$[ebp]
; File D:\git\src\IBK\IBK_DRFN\ProjSrc\SrcChartEx\ChartOCX\ScaleDraw\DataHorzScaleDrawer.cpp

; 230  : 	CDrawer::DrawLine(pDC, CPoint(nowPos.x, scaleRegion.top), 

  00064	8b ca		 mov	 ecx, edx
  00066	c1 e9 1f	 shr	 ecx, 31			; 0000001fH
  00069	03 ca		 add	 ecx, edx
; File C:\Program Files (x86)\Microsoft Visual Studio\2019\Community\VC\Tools\MSVC\14.29.30133\atlmfc\include\atltypes.h

; 408  : 	x = initX;

  0006b	8b 00		 mov	 eax, DWORD PTR [eax]
; File D:\git\src\IBK\IBK_DRFN\ProjSrc\SrcChartEx\ChartOCX\ScaleDraw\DataHorzScaleDrawer.cpp

; 230  : 	CDrawer::DrawLine(pDC, CPoint(nowPos.x, scaleRegion.top), 

  0006d	03 ce		 add	 ecx, esi
  0006f	8b 75 a4	 mov	 esi, DWORD PTR _pDC$GSCopy$1$[ebp]
  00072	6a 01		 push	 1
  00074	ff 75 24	 push	 DWORD PTR _gridColor$[ebp]
; File C:\Program Files (x86)\Microsoft Visual Studio\2019\Community\VC\Tools\MSVC\14.29.30133\atlmfc\include\atltypes.h

; 409  : 	y = initY;

  00077	89 4d 88	 mov	 DWORD PTR $T3[ebp+4], ecx
; File D:\git\src\IBK\IBK_DRFN\ProjSrc\SrcChartEx\ChartOCX\ScaleDraw\DataHorzScaleDrawer.cpp

; 230  : 	CDrawer::DrawLine(pDC, CPoint(nowPos.x, scaleRegion.top), 

  0007a	8d 4d 84	 lea	 ecx, DWORD PTR $T3[ebp]
  0007d	51		 push	 ecx
  0007e	8d 8d 7c ff ff
	ff		 lea	 ecx, DWORD PTR $T2[ebp]
; File C:\Program Files (x86)\Microsoft Visual Studio\2019\Community\VC\Tools\MSVC\14.29.30133\atlmfc\include\atltypes.h

; 408  : 	x = initX;

  00084	89 45 84	 mov	 DWORD PTR $T3[ebp], eax
  00087	89 85 7c ff ff
	ff		 mov	 DWORD PTR $T2[ebp], eax
; File D:\git\src\IBK\IBK_DRFN\ProjSrc\SrcChartEx\ChartOCX\ScaleDraw\DataHorzScaleDrawer.cpp

; 230  : 	CDrawer::DrawLine(pDC, CPoint(nowPos.x, scaleRegion.top), 

  0008d	8d 47 04	 lea	 eax, DWORD PTR [edi+4]
  00090	51		 push	 ecx
  00091	56		 push	 esi
  00092	8b c8		 mov	 ecx, eax
  00094	89 45 90	 mov	 DWORD PTR tv532[ebp], eax
  00097	e8 00 00 00 00	 call	 ?DrawLine@CDrawer@@IAEXPAVCDC@@ABVCPoint@@1KHHH@Z ; CDrawer::DrawLine

; 232  : 	CPoint textPosPt(CDataHorzScaleDrawer::GetTextPosition_x(nowPos.x, (int)textRegionWidth), scaleRegion.bottom);//nowPos.y);

  0009c	f2 0f 2c 03	 cvttsd2si eax, QWORD PTR [ebx]
  000a0	8b 4d a8	 mov	 ecx, DWORD PTR _nowPos$GSCopy$1$[ebp]

; 48   : 		return(org_x - CMath::Round(textWidth / 2.0));

  000a3	83 ec 08	 sub	 esp, 8

; 232  : 	CPoint textPosPt(CDataHorzScaleDrawer::GetTextPosition_x(nowPos.x, (int)textRegionWidth), scaleRegion.bottom);//nowPos.y);

  000a6	8b 39		 mov	 edi, DWORD PTR [ecx]
  000a8	66 0f 6e c0	 movd	 xmm0, eax

; 48   : 		return(org_x - CMath::Round(textWidth / 2.0));

  000ac	f3 0f e6 c0	 cvtdq2pd xmm0, xmm0
  000b0	f2 0f 59 05 00
	00 00 00	 mulsd	 xmm0, QWORD PTR __real@3fe0000000000000
  000b8	f2 0f 11 04 24	 movsd	 QWORD PTR [esp], xmm0
  000bd	e8 00 00 00 00	 call	 ?Round@CMath@@SAHN@Z	; CMath::Round

; 232  : 	CPoint textPosPt(CDataHorzScaleDrawer::GetTextPosition_x(nowPos.x, (int)textRegionWidth), scaleRegion.bottom);//nowPos.y);

  000c2	8b 4d 0c	 mov	 ecx, DWORD PTR _scaleRegion$[ebp]

; 48   : 		return(org_x - CMath::Round(textWidth / 2.0));

  000c5	2b f8		 sub	 edi, eax

; 233  : 	if(scaleRegion.Height() > textSize.cy)	{

  000c7	8b 5d 1c	 mov	 ebx, DWORD PTR _textSize$[ebp]

; 48   : 		return(org_x - CMath::Round(textWidth / 2.0));

  000ca	83 c4 08	 add	 esp, 8
; File C:\Program Files (x86)\Microsoft Visual Studio\2019\Community\VC\Tools\MSVC\14.29.30133\atlmfc\include\atltypes.h

; 408  : 	x = initX;

  000cd	89 7d a0	 mov	 DWORD PTR _textPosPt$[ebp], edi
; File D:\git\src\IBK\IBK_DRFN\ProjSrc\SrcChartEx\ChartOCX\ScaleDraw\DataHorzScaleDrawer.cpp

; 232  : 	CPoint textPosPt(CDataHorzScaleDrawer::GetTextPosition_x(nowPos.x, (int)textRegionWidth), scaleRegion.bottom);//nowPos.y);

  000d0	8b 41 0c	 mov	 eax, DWORD PTR [ecx+12]
; File C:\Program Files (x86)\Microsoft Visual Studio\2019\Community\VC\Tools\MSVC\14.29.30133\atlmfc\include\atltypes.h

; 409  : 	y = initY;

  000d3	89 45 a4	 mov	 DWORD PTR _textPosPt$[ebp+4], eax

; 581  : 	return bottom - top;

  000d6	2b 41 04	 sub	 eax, DWORD PTR [ecx+4]
; File D:\git\src\IBK\IBK_DRFN\ProjSrc\SrcChartEx\ChartOCX\ScaleDraw\DataHorzScaleDrawer.cpp

; 233  : 	if(scaleRegion.Height() > textSize.cy)	{

  000d9	3b 43 04	 cmp	 eax, DWORD PTR [ebx+4]
  000dc	0f 8e 08 01 00
	00		 jle	 $LN49@DrawTextAn
; File C:\Program Files (x86)\Microsoft Visual Studio\2019\Community\VC\Tools\MSVC\14.29.30133\atlmfc\include\afxwin1.inl

; 70   : 	{ m_hObject = NULL; }

  000e2	c7 45 b0 00 00
	00 00		 mov	 DWORD PTR _m_fontVertCaption$5[ebp+4], 0

; 153  : 	{ }

  000e9	c7 45 ac 00 00
	00 00		 mov	 DWORD PTR _m_fontVertCaption$5[ebp], OFFSET ??_7CFont@@6B@
; File D:\git\src\IBK\IBK_DRFN\ProjSrc\SrcChartEx\ChartOCX\ScaleDraw\DataHorzScaleDrawer.cpp

; 234  : 		CFont            m_fontVertCaption;

  000f0	c7 45 fc 00 00
	00 00		 mov	 DWORD PTR __$EHRec$[ebp+8], 0
; File C:\Program Files (x86)\Microsoft Visual Studio\2019\Community\VC\Tools\MSVC\14.29.30133\atlmfc\include\afxwin1.inl

; 70   : 	{ m_hObject = NULL; }

  000f7	c7 45 9c 00 00
	00 00		 mov	 DWORD PTR _font$4[ebp+4], 0

; 153  : 	{ }

  000fe	c7 45 98 00 00
	00 00		 mov	 DWORD PTR _font$4[ebp], OFFSET ??_7CFont@@6B@

; 88   : 	{ return (m_hObject = ::GetStockObject(nIndex)) != NULL; }

  00105	6a 11		 push	 17			; 00000011H
; File D:\git\src\IBK\IBK_DRFN\ProjSrc\SrcChartEx\ChartOCX\ScaleDraw\DataHorzScaleDrawer.cpp

; 235  : 		CFont			 font;

  00107	c6 45 fc 01	 mov	 BYTE PTR __$EHRec$[ebp+8], 1
; File C:\Program Files (x86)\Microsoft Visual Studio\2019\Community\VC\Tools\MSVC\14.29.30133\atlmfc\include\afxwin1.inl

; 88   : 	{ return (m_hObject = ::GetStockObject(nIndex)) != NULL; }

  0010b	ff 15 00 00 00
	00		 call	 DWORD PTR __imp__GetStockObject@4
  00111	8b f8		 mov	 edi, eax
  00113	89 7d 9c	 mov	 DWORD PTR _font$4[ebp+4], edi
  00116	85 ff		 test	 edi, edi
; File D:\git\src\IBK\IBK_DRFN\ProjSrc\SrcChartEx\ChartOCX\ScaleDraw\DataHorzScaleDrawer.cpp

; 236  : 		if (font.CreateStockObject (DEFAULT_GUI_FONT))

  00118	74 57		 je	 SHORT $LN4@DrawTextAn

; 237  : 		{
; 238  :      			LOGFONT lf;
; 239  :        			memset (&lf, 0, sizeof (LOGFONT));

  0011a	6a 3c		 push	 60			; 0000003cH
  0011c	8d 45 b4	 lea	 eax, DWORD PTR _lf$6[ebp]
  0011f	6a 00		 push	 0
  00121	50		 push	 eax
  00122	e8 00 00 00 00	 call	 _memset
  00127	83 c4 0c	 add	 esp, 12			; 0000000cH
; File C:\Program Files (x86)\Microsoft Visual Studio\2019\Community\VC\Tools\MSVC\14.29.30133\atlmfc\include\afxwin1.inl

; 169  : 		return ::GetObject(m_hObject, sizeof(LOGFONT), pLogFont); }

  0012a	8d 45 b4	 lea	 eax, DWORD PTR _lf$6[ebp]
  0012d	50		 push	 eax
  0012e	6a 3c		 push	 60			; 0000003cH
  00130	57		 push	 edi
  00131	ff 15 00 00 00
	00		 call	 DWORD PTR __imp__GetObjectA@12
; File D:\git\src\IBK\IBK_DRFN\ProjSrc\SrcChartEx\ChartOCX\ScaleDraw\DataHorzScaleDrawer.cpp

; 240  :        			if (font.GetLogFont (&lf) != 0)

  00137	85 c0		 test	 eax, eax
  00139	74 36		 je	 SHORT $LN4@DrawTextAn
; File C:\Program Files (x86)\Microsoft Visual Studio\2019\Community\VC\Tools\MSVC\14.29.30133\atlmfc\include\afxwin1.inl

; 157  : 	{ return Attach(::CreateFontIndirect(lpLogFont)); }

  0013b	8d 45 b4	 lea	 eax, DWORD PTR _lf$6[ebp]
; File D:\git\src\IBK\IBK_DRFN\ProjSrc\SrcChartEx\ChartOCX\ScaleDraw\DataHorzScaleDrawer.cpp

; 242  :        				lf.lfOrientation = 900;

  0013e	c7 45 c0 84 03
	00 00		 mov	 DWORD PTR _lf$6[ebp+12], 900 ; 00000384H
; File C:\Program Files (x86)\Microsoft Visual Studio\2019\Community\VC\Tools\MSVC\14.29.30133\atlmfc\include\afxwin1.inl

; 157  : 	{ return Attach(::CreateFontIndirect(lpLogFont)); }

  00145	50		 push	 eax
; File D:\git\src\IBK\IBK_DRFN\ProjSrc\SrcChartEx\ChartOCX\ScaleDraw\DataHorzScaleDrawer.cpp

; 243  :        				lf.lfEscapement = 900;

  00146	c7 45 bc 84 03
	00 00		 mov	 DWORD PTR _lf$6[ebp+8], 900 ; 00000384H

; 244  :        				lf.lfHeight = 12;

  0014d	c7 45 b4 0c 00
	00 00		 mov	 DWORD PTR _lf$6[ebp], 12 ; 0000000cH

; 245  :        				lf.lfWidth = 0;

  00154	c7 45 b8 00 00
	00 00		 mov	 DWORD PTR _lf$6[ebp+4], 0

; 246  :        				lf.lfWeight = 400;

  0015b	c7 45 c4 90 01
	00 00		 mov	 DWORD PTR _lf$6[ebp+16], 400 ; 00000190H
; File C:\Program Files (x86)\Microsoft Visual Studio\2019\Community\VC\Tools\MSVC\14.29.30133\atlmfc\include\afxwin1.inl

; 157  : 	{ return Attach(::CreateFontIndirect(lpLogFont)); }

  00162	ff 15 00 00 00
	00		 call	 DWORD PTR __imp__CreateFontIndirectA@4
  00168	50		 push	 eax
  00169	8d 4d ac	 lea	 ecx, DWORD PTR _m_fontVertCaption$5[ebp]
  0016c	e8 00 00 00 00	 call	 ?Attach@CGdiObject@@QAEHPAX@Z ; CGdiObject::Attach
$LN4@DrawTextAn:

; 796  : 	{ ASSERT(m_hAttribDC != NULL); return CFont::FromHandle((HFONT)::GetCurrentObject(m_hAttribDC, OBJ_FONT)); }

  00171	6a 06		 push	 6
  00173	ff 76 08	 push	 DWORD PTR [esi+8]
  00176	ff 15 00 00 00
	00		 call	 DWORD PTR __imp__GetCurrentObject@8

; 151  : 	{ return (CFont*) CGdiObject::FromHandle(hFont); }

  0017c	50		 push	 eax
  0017d	e8 00 00 00 00	 call	 ?FromHandle@CGdiObject@@SGPAV1@PAX@Z ; CGdiObject::FromHandle
; File D:\git\src\IBK\IBK_DRFN\ProjSrc\SrcChartEx\ChartOCX\ScaleDraw\DataHorzScaleDrawer.cpp

; 252  : 		CFont* pOldFont = pDC->SelectObject (pDC->GetCurrentFont());

  00182	8b 16		 mov	 edx, DWORD PTR [esi]
  00184	8b ce		 mov	 ecx, esi
  00186	50		 push	 eax
  00187	ff 52 30	 call	 DWORD PTR [edx+48]
; File C:\Program Files (x86)\Microsoft Visual Studio\2019\Community\VC\Tools\MSVC\14.29.30133\atlmfc\include\afxwin1.inl

; 366  : 		return (hObject != NULL) ? ::SelectObject(m_hDC, hObject) : NULL; }

  0018a	8b 4d b0	 mov	 ecx, DWORD PTR _m_fontVertCaption$5[ebp+4]
; File D:\git\src\IBK\IBK_DRFN\ProjSrc\SrcChartEx\ChartOCX\ScaleDraw\DataHorzScaleDrawer.cpp

; 252  : 		CFont* pOldFont = pDC->SelectObject (pDC->GetCurrentFont());

  0018d	8b f8		 mov	 edi, eax
; File C:\Program Files (x86)\Microsoft Visual Studio\2019\Community\VC\Tools\MSVC\14.29.30133\atlmfc\include\afxwin1.inl

; 366  : 		return (hObject != NULL) ? ::SelectObject(m_hDC, hObject) : NULL; }

  0018f	85 c9		 test	 ecx, ecx
  00191	74 0a		 je	 SHORT $LN43@DrawTextAn
  00193	51		 push	 ecx
  00194	ff 76 04	 push	 DWORD PTR [esi+4]
  00197	ff 15 00 00 00
	00		 call	 DWORD PTR __imp__SelectObject@8
$LN43@DrawTextAn:
; File D:\git\src\IBK\IBK_DRFN\ProjSrc\SrcChartEx\ChartOCX\ScaleDraw\DataHorzScaleDrawer.cpp

; 254  : 		int MODE = pDC->SetBkMode(TRANSPARENT);

  0019d	6a 01		 push	 1
  0019f	8b ce		 mov	 ecx, esi
  001a1	e8 00 00 00 00	 call	 ?SetBkMode@CDC@@QAEHH@Z	; CDC::SetBkMode

; 255  : 		CDrawer::DrawTextOut(pDC, textPosPt, data, textColor);

  001a6	ff 75 20	 push	 DWORD PTR _textColor$[ebp]
  001a9	8b 4d 90	 mov	 ecx, DWORD PTR tv532[ebp]
  001ac	8d 45 a0	 lea	 eax, DWORD PTR _textPosPt$[ebp]
  001af	ff 75 94	 push	 DWORD PTR _data$GSCopy$1$[ebp]
  001b2	50		 push	 eax
  001b3	56		 push	 esi
  001b4	e8 00 00 00 00	 call	 ?DrawTextOut@CDrawer@@IAEXPAVCDC@@ABVCPoint@@ABV?$CStringT@DV?$StrTraitMFC_DLL@DV?$ChTraitsCRT@D@ATL@@@@@ATL@@K@Z ; CDrawer::DrawTextOut

; 256  : 		pDC->SelectObject(pOldFont);

  001b9	8b 06		 mov	 eax, DWORD PTR [esi]
  001bb	8b ce		 mov	 ecx, esi
  001bd	57		 push	 edi
  001be	ff 50 30	 call	 DWORD PTR [eax+48]

; 257  : 		m_fontVertCaption.DeleteObject();

  001c1	8d 4d ac	 lea	 ecx, DWORD PTR _m_fontVertCaption$5[ebp]
  001c4	e8 00 00 00 00	 call	 ?DeleteObject@CGdiObject@@QAEHXZ ; CGdiObject::DeleteObject
; File C:\Program Files (x86)\Microsoft Visual Studio\2019\Community\VC\Tools\MSVC\14.29.30133\atlmfc\include\afxwin1.inl

; 155  : 	{ }

  001c9	8d 4d 98	 lea	 ecx, DWORD PTR _font$4[ebp]
  001cc	c7 45 98 00 00
	00 00		 mov	 DWORD PTR _font$4[ebp], OFFSET ??_7CFont@@6B@
  001d3	e8 00 00 00 00	 call	 ??1CGdiObject@@UAE@XZ	; CGdiObject::~CGdiObject
  001d8	8d 4d ac	 lea	 ecx, DWORD PTR _m_fontVertCaption$5[ebp]
  001db	c7 45 ac 00 00
	00 00		 mov	 DWORD PTR _m_fontVertCaption$5[ebp], OFFSET ??_7CFont@@6B@
  001e2	e8 00 00 00 00	 call	 ??1CGdiObject@@UAE@XZ	; CGdiObject::~CGdiObject
  001e7	8b 7d a0	 mov	 edi, DWORD PTR _textPosPt$[ebp]
$LN49@DrawTextAn:
; File D:\git\src\IBK\IBK_DRFN\ProjSrc\SrcChartEx\ChartOCX\ScaleDraw\DataHorzScaleDrawer.cpp

; 259  : 	textEndPos = textPosPt.x + textSize.cx;

  001ea	8b 03		 mov	 eax, DWORD PTR [ebx]
  001ec	8b 4d 8c	 mov	 ecx, DWORD PTR _textEndPos$GSCopy$1$[ebp]
  001ef	03 c7		 add	 eax, edi
  001f1	89 01		 mov	 DWORD PTR [ecx], eax

; 260  : }

  001f3	8b 4d f4	 mov	 ecx, DWORD PTR __$EHRec$[ebp]
  001f6	64 89 0d 00 00
	00 00		 mov	 DWORD PTR fs:0, ecx
  001fd	59		 pop	 ecx
  001fe	5f		 pop	 edi
  001ff	5e		 pop	 esi
  00200	5b		 pop	 ebx
  00201	8b 4d f0	 mov	 ecx, DWORD PTR __$ArrayPad$[ebp]
  00204	33 cd		 xor	 ecx, ebp
  00206	e8 00 00 00 00	 call	 @__security_check_cookie@4
  0020b	8b e5		 mov	 esp, ebp
  0020d	5d		 pop	 ebp
  0020e	c2 24 00	 ret	 36			; 00000024H
_TEXT	ENDS
;	COMDAT text$x
text$x	SEGMENT
__unwindfunclet$?DrawTextAndCompartLine_stand@CEtcDataHorzScaleDrawer@@AAEXPAVCDC@@ABVCRect@@ABVCPoint@@ABNABV?$CStringT@DV?$StrTraitMFC_DLL@DV?$ChTraitsCRT@D@ATL@@@@@ATL@@ABVCSize@@KKAAH@Z$0:
  00000	8d 4d ac	 lea	 ecx, DWORD PTR _m_fontVertCaption$5[ebp]
  00003	e9 00 00 00 00	 jmp	 ??1CFont@@UAE@XZ	; CFont::~CFont
__unwindfunclet$?DrawTextAndCompartLine_stand@CEtcDataHorzScaleDrawer@@AAEXPAVCDC@@ABVCRect@@ABVCPoint@@ABNABV?$CStringT@DV?$StrTraitMFC_DLL@DV?$ChTraitsCRT@D@ATL@@@@@ATL@@ABVCSize@@KKAAH@Z$1:
  00008	8d 4d 98	 lea	 ecx, DWORD PTR _font$4[ebp]
  0000b	e9 00 00 00 00	 jmp	 ??1CFont@@UAE@XZ	; CFont::~CFont
  00010	cc		 int	 3
  00011	cc		 int	 3
  00012	cc		 int	 3
  00013	cc		 int	 3
  00014	cc		 int	 3
__ehhandler$?DrawTextAndCompartLine_stand@CEtcDataHorzScaleDrawer@@AAEXPAVCDC@@ABVCRect@@ABVCPoint@@ABNABV?$CStringT@DV?$StrTraitMFC_DLL@DV?$ChTraitsCRT@D@ATL@@@@@ATL@@ABVCSize@@KKAAH@Z:
  00015	90		 npad	 1
  00016	90		 npad	 1
  00017	8b 54 24 08	 mov	 edx, DWORD PTR [esp+8]
  0001b	8d 42 0c	 lea	 eax, DWORD PTR [edx+12]
  0001e	8b 8a 78 ff ff
	ff		 mov	 ecx, DWORD PTR [edx-136]
  00024	33 c8		 xor	 ecx, eax
  00026	e8 00 00 00 00	 call	 @__security_check_cookie@4
  0002b	8b 4a fc	 mov	 ecx, DWORD PTR [edx-4]
  0002e	33 c8		 xor	 ecx, eax
  00030	e8 00 00 00 00	 call	 @__security_check_cookie@4
  00035	b8 00 00 00 00	 mov	 eax, OFFSET __ehfuncinfo$?DrawTextAndCompartLine_stand@CEtcDataHorzScaleDrawer@@AAEXPAVCDC@@ABVCRect@@ABVCPoint@@ABNABV?$CStringT@DV?$StrTraitMFC_DLL@DV?$ChTraitsCRT@D@ATL@@@@@ATL@@ABVCSize@@KKAAH@Z
  0003a	e9 00 00 00 00	 jmp	 ___CxxFrameHandler3
text$x	ENDS
?DrawTextAndCompartLine_stand@CEtcDataHorzScaleDrawer@@AAEXPAVCDC@@ABVCRect@@ABVCPoint@@ABNABV?$CStringT@DV?$StrTraitMFC_DLL@DV?$ChTraitsCRT@D@ATL@@@@@ATL@@ABVCSize@@KKAAH@Z ENDP ; CEtcDataHorzScaleDrawer::DrawTextAndCompartLine_stand
; Function compile flags: /Ogtp
; File D:\git\src\IBK\IBK_DRFN\ProjSrc\SrcChartEx\ChartOCX\ScaleDraw\DataHorzScaleDrawer.cpp
;	COMDAT ?DrawGrid@CEtcDataHorzScaleDrawer@@UAEXPAVCDC@@ABVCDrawingHorzScaleData@@ABVCHorizontalScale@@@Z
_TEXT	SEGMENT
_pDC$ = 8						; size = 4
_drawingHorzScaleData$ = 12				; size = 4
_horzScale$ = 16					; size = 4
?DrawGrid@CEtcDataHorzScaleDrawer@@UAEXPAVCDC@@ABVCDrawingHorzScaleData@@ABVCHorizontalScale@@@Z PROC ; CEtcDataHorzScaleDrawer::DrawGrid, COMDAT
; _this$ = ecx

; 221  : }

  00000	c2 0c 00	 ret	 12			; 0000000cH
?DrawGrid@CEtcDataHorzScaleDrawer@@UAEXPAVCDC@@ABVCDrawingHorzScaleData@@ABVCHorizontalScale@@@Z ENDP ; CEtcDataHorzScaleDrawer::DrawGrid
_TEXT	ENDS
; Function compile flags: /Ogtp
; File D:\git\src\IBK\IBK_DRFN\ProjSrc\SrcChartEx\ChartOCX\ScaleDraw\DataHorzScaleDrawer.cpp
;	COMDAT ?DrawTextOrGrid_Both@CEtcDataHorzScaleDrawer@@UAEXPAVCDC@@ABVCDrawingHorzScaleData@@ABVCHorzScaleRegion@@ABVCHorizontalScale@@@Z
_TEXT	SEGMENT
_pDC$ = 8						; size = 4
_drawingHorzScaleData$ = 12				; size = 4
_horzScaleRegion$ = 16					; size = 4
_horzScale$ = 20					; size = 4
?DrawTextOrGrid_Both@CEtcDataHorzScaleDrawer@@UAEXPAVCDC@@ABVCDrawingHorzScaleData@@ABVCHorzScaleRegion@@ABVCHorizontalScale@@@Z PROC ; CEtcDataHorzScaleDrawer::DrawTextOrGrid_Both, COMDAT
; _this$ = ecx

; 217  : }

  00000	c2 10 00	 ret	 16			; 00000010H
?DrawTextOrGrid_Both@CEtcDataHorzScaleDrawer@@UAEXPAVCDC@@ABVCDrawingHorzScaleData@@ABVCHorzScaleRegion@@ABVCHorizontalScale@@@Z ENDP ; CEtcDataHorzScaleDrawer::DrawTextOrGrid_Both
_TEXT	ENDS
; Function compile flags: /Ogtp
; File D:\git\src\IBK\IBK_DRFN\ProjSrc\SrcChartEx\ChartOCX\ScaleDraw\DataHorzScaleDrawer.cpp
; File C:\Program Files (x86)\Microsoft Visual Studio\2019\Community\VC\Tools\MSVC\14.29.30133\atlmfc\include\atlsimpstr.h
; File C:\Program Files (x86)\Microsoft Visual Studio\2019\Community\VC\Tools\MSVC\14.29.30133\atlmfc\include\afxwin1.inl
; File D:\git\src\IBK\IBK_DRFN\ProjSrc\SrcChartEx\ChartOCX\ScaleDraw\DataHorzScaleDrawer.cpp
; File C:\Program Files (x86)\Microsoft Visual Studio\2019\Community\VC\Tools\MSVC\14.29.30133\atlmfc\include\afxwin1.inl
; File C:\Program Files (x86)\Microsoft Visual Studio\2019\Community\VC\Tools\MSVC\14.29.30133\atlmfc\include\atltypes.h
; File D:\git\src\IBK\IBK_DRFN\ProjSrc\SrcChartEx\ChartOCX\ScaleDraw\DataHorzScaleDrawer.cpp
; File C:\Program Files (x86)\Microsoft Visual Studio\2019\Community\VC\Tools\MSVC\14.29.30133\atlmfc\include\atltypes.h
; File D:\git\src\IBK\IBK_DRFN\ProjSrc\SrcChartEx\ChartOCX\ScaleDraw\DataHorzScaleDrawer.cpp
; File C:\Program Files (x86)\Microsoft Visual Studio\2019\Community\VC\Tools\MSVC\14.29.30133\atlmfc\include\atltypes.h
; File D:\git\src\IBK\IBK_DRFN\ProjSrc\SrcChartEx\ChartOCX\ScaleDraw\DataHorzScaleDrawer.cpp
; File C:\Program Files (x86)\Microsoft Visual Studio\2019\Community\VC\Tools\MSVC\14.29.30133\atlmfc\include\afxwin1.inl
; File D:\git\src\IBK\IBK_DRFN\ProjSrc\SrcChartEx\ChartOCX\ScaleDraw\DataHorzScaleDrawer.cpp
; File C:\Program Files (x86)\Microsoft Visual Studio\2019\Community\VC\Tools\MSVC\14.29.30133\atlmfc\include\afxwin1.inl
; File D:\git\src\IBK\IBK_DRFN\ProjSrc\SrcChartEx\ChartOCX\ScaleDraw\DataHorzScaleDrawer.cpp
; File C:\Program Files (x86)\Microsoft Visual Studio\2019\Community\VC\Tools\MSVC\14.29.30133\atlmfc\include\afxwin1.inl
; File D:\git\src\IBK\IBK_DRFN\ProjSrc\SrcChartEx\ChartOCX\ScaleDraw\DataHorzScaleDrawer.cpp
; File C:\Program Files (x86)\Microsoft Visual Studio\2019\Community\VC\Tools\MSVC\14.29.30133\atlmfc\include\afxwin1.inl
; File D:\git\src\IBK\IBK_DRFN\ProjSrc\SrcChartEx\ChartOCX\ScaleDraw\DataHorzScaleDrawer.cpp
; File C:\Program Files (x86)\Microsoft Visual Studio\2019\Community\VC\Tools\MSVC\14.29.30133\atlmfc\include\afxwin1.inl
; File D:\git\src\IBK\IBK_DRFN\ProjSrc\SrcChartEx\ChartOCX\ScaleDraw\DataHorzScaleDrawer.cpp
; File C:\Program Files (x86)\Microsoft Visual Studio\2019\Community\VC\Tools\MSVC\14.29.30133\atlmfc\include\afxwin1.inl
; File D:\git\src\IBK\IBK_DRFN\ProjSrc\SrcChartEx\ChartOCX\ScaleDraw\DataHorzScaleDrawer.cpp
; File C:\Program Files (x86)\Microsoft Visual Studio\2019\Community\VC\Tools\MSVC\14.29.30133\atlmfc\include\afxwin1.inl
; File D:\git\src\IBK\IBK_DRFN\ProjSrc\SrcChartEx\ChartOCX\ScaleDraw\DataHorzScaleDrawer.cpp
; File C:\Program Files (x86)\Microsoft Visual Studio\2019\Community\VC\Tools\MSVC\14.29.30133\atlmfc\include\afxwin1.inl
; File D:\git\src\IBK\IBK_DRFN\ProjSrc\SrcChartEx\ChartOCX\ScaleDraw\DataHorzScaleDrawer.cpp
; File C:\Program Files (x86)\Microsoft Visual Studio\2019\Community\VC\Tools\MSVC\14.29.30133\atlmfc\include\afxwin1.inl
; File D:\git\src\IBK\IBK_DRFN\ProjSrc\SrcChartEx\ChartOCX\ScaleDraw\DataHorzScaleDrawer.cpp
; File D:\git\src\IBK\IBK_DRFN\ProjSrc\SrcChartEx\ChartOCX\Include_Chart\Conversion.h
; File D:\git\src\IBK\IBK_DRFN\ProjSrc\SrcChartEx\ChartOCX\ScaleDraw\DataHorzScaleDrawer.cpp
; File D:\git\src\IBK\IBK_DRFN\ProjSrc\SrcChartEx\ChartOCX\Include_Chart\Conversion.h
; File D:\git\src\IBK\IBK_DRFN\ProjSrc\SrcChartEx\ChartOCX\ScaleDraw\DataHorzScaleDrawer.cpp
; File D:\git\src\IBK\IBK_DRFN\ProjSrc\SrcChartEx\ChartOCX\Include_Chart\Conversion.h
; File D:\git\src\IBK\IBK_DRFN\ProjSrc\SrcChartEx\ChartOCX\ScaleDraw\DataHorzScaleDrawer.cpp
; File D:\git\src\IBK\IBK_DRFN\ProjSrc\SrcChartEx\ChartOCX\Include_Chart\Conversion.h
; File D:\git\src\IBK\IBK_DRFN\ProjSrc\SrcChartEx\ChartOCX\ScaleDraw\DataHorzScaleDrawer.cpp
; File C:\Program Files (x86)\Microsoft Visual Studio\2019\Community\VC\Tools\MSVC\14.29.30133\atlmfc\include\atltypes.h
; File D:\git\src\IBK\IBK_DRFN\ProjSrc\SrcChartEx\ChartOCX\ScaleDraw\DataHorzScaleDrawer.cpp
; File C:\Program Files (x86)\Microsoft Visual Studio\2019\Community\VC\Tools\MSVC\14.29.30133\atlmfc\include\atltypes.h
; File D:\git\src\IBK\IBK_DRFN\ProjSrc\SrcChartEx\ChartOCX\ScaleDraw\DataHorzScaleDrawer.cpp
; File C:\Program Files (x86)\Microsoft Visual Studio\2019\Community\VC\Tools\MSVC\14.29.30133\atlmfc\include\afxwin1.inl
; File C:\Program Files (x86)\Microsoft Visual Studio\2019\Community\VC\Tools\MSVC\14.29.30133\atlmfc\include\atltypes.h
; File D:\git\src\IBK\IBK_DRFN\ProjSrc\SrcChartEx\ChartOCX\ScaleDraw\DataHorzScaleDrawer.cpp
; File C:\Program Files (x86)\Microsoft Visual Studio\2019\Community\VC\Tools\MSVC\14.29.30133\atlmfc\include\atltypes.h
; File D:\git\src\IBK\IBK_DRFN\ProjSrc\SrcChartEx\ChartOCX\ScaleDraw\DataHorzScaleDrawer.cpp
; File C:\Program Files (x86)\Microsoft Visual Studio\2019\Community\VC\Tools\MSVC\14.29.30133\atlmfc\include\afxwin1.inl
; File C:\Program Files (x86)\Microsoft Visual Studio\2019\Community\VC\Tools\MSVC\14.29.30133\atlmfc\include\atltypes.h
; File D:\git\src\IBK\IBK_DRFN\ProjSrc\SrcChartEx\ChartOCX\ScaleDraw\DataHorzScaleDrawer.cpp
; File C:\Program Files (x86)\Microsoft Visual Studio\2019\Community\VC\Tools\MSVC\14.29.30133\atlmfc\include\atltypes.h
; File D:\git\src\IBK\IBK_DRFN\ProjSrc\SrcChartEx\ChartOCX\ScaleDraw\DataHorzScaleDrawer.cpp
; File C:\Program Files (x86)\Microsoft Visual Studio\2019\Community\VC\Tools\MSVC\14.29.30133\atlmfc\include\atltypes.h
; File D:\git\src\IBK\IBK_DRFN\ProjSrc\SrcChartEx\ChartOCX\ScaleDraw\DataHorzScaleDrawer.cpp
; File C:\Program Files (x86)\Microsoft Visual Studio\2019\Community\VC\Tools\MSVC\14.29.30133\atlmfc\include\afxwin1.inl
; File D:\git\src\IBK\IBK_DRFN\ProjSrc\SrcChartEx\ChartOCX\ScaleDraw\DataHorzScaleDrawer.cpp
;	COMDAT ?DrawTextOrGrid@CEtcDataHorzScaleDrawer@@UAEXPAVCDC@@ABVCDrawingHorzScaleData@@ABVCRect@@ABVCHorizontalScale@@@Z
_TEXT	SEGMENT
$T2 = -396						; size = 16
$T3 = -380						; size = 16
$T4 = -364						; size = 16
$T5 = -348						; size = 12
$T6 = -336						; size = 12
$T7 = -324						; size = 8
_dMin$ = -316						; size = 8
$T8 = -308						; size = 16
$T9 = -308						; size = 16
$T10 = -308						; size = 16
$T11 = -308						; size = 16
$T12 = -304						; size = 12
$T13 = -292						; size = 12
$T14 = -288						; size = 8
$T15 = -280						; size = 8
$T16 = -272						; size = 8
$T17 = -272						; size = 8
$T18 = -264						; size = 8
$T19 = -264						; size = 8
_size$20 = -256						; size = 8
$T21 = -248						; size = 8
$T22 = -240						; size = 8
_dGap$ = -232						; size = 8
_bIsTopPos$ = -224					; size = 1
_textPosPt$1$ = -220					; size = 4
$T23 = -216						; size = 4
_value$24 = -212					; size = 8
_size$25 = -204						; size = 8
$T26 = -204						; size = 8
$T27 = -196						; size = 8
_onePtWidth$ = -188					; size = 8
_dataType$ = -180					; size = 4
_scaleRegion$GSCopy$1$ = -176				; size = 4
_start$ = -172						; size = 4
_end$ = -168						; size = 4
_textPosPt$28 = -164					; size = 8
_size$29 = -164						; size = 8
_scaleFont$ = -156					; size = 8
_drawingHorzScaleData$GSCopy$1$ = -148			; size = 4
tv907 = -144						; size = 4
_posPt_y$ = -140					; size = 4
_posPt$1$ = -136					; size = 4
_nCount$1$ = -132					; size = 4
_horzScale$GSCopy$1$ = -128				; size = 4
tv997 = -124						; size = 8
_font$30 = -124						; size = 8
_posPt$ = -124						; size = 8
_textColor$1$ = -120					; size = 4
$T31 = -116						; size = 4
_pre_textEndPos$ = -116					; size = 4
_pOldFont$1$ = -112					; size = 4
$T32 = -112						; size = 4
_strData$33 = -108					; size = 4
_pDC$GSCopy$1$ = -104					; size = 4
_this$GSCopy$1$ = -100					; size = 4
_bround$ = -93						; size = 1
_lf$34 = -92						; size = 60
_realScaleRegion$ = -32					; size = 16
__$ArrayPad$ = -16					; size = 4
__$EHRec$ = -12						; size = 12
_pDC$ = 8						; size = 4
_drawingHorzScaleData$ = 12				; size = 4
_scaleRegion$ = 16					; size = 4
_horzScale$ = 20					; size = 4
?DrawTextOrGrid@CEtcDataHorzScaleDrawer@@UAEXPAVCDC@@ABVCDrawingHorzScaleData@@ABVCRect@@ABVCHorizontalScale@@@Z PROC ; CEtcDataHorzScaleDrawer::DrawTextOrGrid, COMDAT
; _this$ = ecx

; 142  : {

  00000	55		 push	 ebp
  00001	8b ec		 mov	 ebp, esp
  00003	6a ff		 push	 -1
  00005	68 00 00 00 00	 push	 __ehhandler$?DrawTextOrGrid@CEtcDataHorzScaleDrawer@@UAEXPAVCDC@@ABVCDrawingHorzScaleData@@ABVCRect@@ABVCHorizontalScale@@@Z
  0000a	64 a1 00 00 00
	00		 mov	 eax, DWORD PTR fs:0
  00010	50		 push	 eax
  00011	81 ec 80 01 00
	00		 sub	 esp, 384		; 00000180H
  00017	a1 00 00 00 00	 mov	 eax, DWORD PTR ___security_cookie
  0001c	33 c5		 xor	 eax, ebp
  0001e	89 45 f0	 mov	 DWORD PTR __$ArrayPad$[ebp], eax
  00021	56		 push	 esi
  00022	57		 push	 edi
  00023	50		 push	 eax
  00024	8d 45 f4	 lea	 eax, DWORD PTR __$EHRec$[ebp]
  00027	64 a3 00 00 00
	00		 mov	 DWORD PTR fs:0, eax
  0002d	8b c1		 mov	 eax, ecx
  0002f	89 45 9c	 mov	 DWORD PTR _this$GSCopy$1$[ebp], eax
  00032	8b 4d 10	 mov	 ecx, DWORD PTR _scaleRegion$[ebp]

; 143  : 	//    data .	
; 144  : 	CString dataType = CDrawer::GetPacketDataType(drawingHorzScaleData.GetPacket());

  00035	83 c0 04	 add	 eax, 4
  00038	8b 7d 0c	 mov	 edi, DWORD PTR _drawingHorzScaleData$[ebp]
  0003b	8b 75 08	 mov	 esi, DWORD PTR _pDC$[ebp]
  0003e	89 8d 50 ff ff
	ff		 mov	 DWORD PTR _scaleRegion$GSCopy$1$[ebp], ecx
  00044	8b 4d 14	 mov	 ecx, DWORD PTR _horzScale$[ebp]
  00047	89 4d 80	 mov	 DWORD PTR _horzScale$GSCopy$1$[ebp], ecx
  0004a	8b cf		 mov	 ecx, edi
  0004c	89 75 98	 mov	 DWORD PTR _pDC$GSCopy$1$[ebp], esi
  0004f	89 bd 6c ff ff
	ff		 mov	 DWORD PTR _drawingHorzScaleData$GSCopy$1$[ebp], edi
  00055	89 85 70 ff ff
	ff		 mov	 DWORD PTR tv907[ebp], eax
  0005b	e8 00 00 00 00	 call	 ?GetPacket@CDrawingHorzScaleData@@QBEPAVCPacket@@XZ ; CDrawingHorzScaleData::GetPacket
  00060	8b 8d 70 ff ff
	ff		 mov	 ecx, DWORD PTR tv907[ebp]
  00066	50		 push	 eax
  00067	8d 85 4c ff ff
	ff		 lea	 eax, DWORD PTR _dataType$[ebp]
  0006d	50		 push	 eax
  0006e	e8 00 00 00 00	 call	 ?GetPacketDataType@CDrawer@@IBE?AV?$CStringT@DV?$StrTraitMFC_DLL@DV?$ChTraitsCRT@D@ATL@@@@@ATL@@PAVCPacket@@@Z ; CDrawer::GetPacketDataType

; 148  : 	CHorzScaleDrawer::GetDrawingEnvironment(scaleRegion, drawingHorzScaleData.GetDisplayAttributes(), 

  00073	8d 85 cc fe ff
	ff		 lea	 eax, DWORD PTR $T11[ebp]
  00079	c7 45 fc 00 00
	00 00		 mov	 DWORD PTR __$EHRec$[ebp+8], 0
  00080	0f 57 c0	 xorps	 xmm0, xmm0
  00083	c7 85 74 ff ff
	ff 00 00 00 00	 mov	 DWORD PTR _posPt_y$[ebp], 0
  0008d	50		 push	 eax
  0008e	8b cf		 mov	 ecx, edi
  00090	f2 0f 11 85 44
	ff ff ff	 movsd	 QWORD PTR _onePtWidth$[ebp], xmm0
  00098	c7 45 8c 00 00
	00 00		 mov	 DWORD PTR _pre_textEndPos$[ebp], 0
  0009f	e8 00 00 00 00	 call	 ?GetDisplayDataMinMax@CDrawingHorzScaleData@@QBE?AVCDisplayDataMinMax@@XZ ; CDrawingHorzScaleData::GetDisplayDataMinMax
  000a4	8b c8		 mov	 ecx, eax
  000a6	e8 00 00 00 00	 call	 ?GetDisplayMax@CDisplayDataMinMax@@QBENXZ ; CDisplayDataMinMax::GetDisplayMax
  000ab	8d 85 34 ff ff
	ff		 lea	 eax, DWORD PTR $T26[ebp]
  000b1	50		 push	 eax
  000b2	8d 45 90	 lea	 eax, DWORD PTR $T32[ebp]
  000b5	50		 push	 eax
  000b6	dd 9d 34 ff ff
	ff		 fstp	 QWORD PTR $T26[ebp]
  000bc	e8 00 00 00 00	 call	 ?DoubleToString@CDataConversion@@SA?AV?$CStringT@DV?$StrTraitMFC_DLL@DV?$ChTraitsCRT@D@ATL@@@@@ATL@@ABN@Z ; CDataConversion::DoubleToString
  000c1	83 c4 08	 add	 esp, 8
; File C:\Program Files (x86)\Microsoft Visual Studio\2019\Community\VC\Tools\MSVC\14.29.30133\atlmfc\include\atlsimpstr.h

; 519  : 		return( GetData()->nDataLength );

  000c4	8b 00		 mov	 eax, DWORD PTR [eax]
; File C:\Program Files (x86)\Microsoft Visual Studio\2019\Community\VC\Tools\MSVC\14.29.30133\atlmfc\include\afxwin1.inl

; 639  : 		VERIFY(::GetTextExtentPoint32(m_hAttribDC, str, (int)str.GetLength(), &size));

  000c6	8d 8d 5c ff ff
	ff		 lea	 ecx, DWORD PTR _size$29[ebp]
  000cc	51		 push	 ecx
; File D:\git\src\IBK\IBK_DRFN\ProjSrc\SrcChartEx\ChartOCX\ScaleDraw\DataHorzScaleDrawer.cpp

; 148  : 	CHorzScaleDrawer::GetDrawingEnvironment(scaleRegion, drawingHorzScaleData.GetDisplayAttributes(), 

  000cd	c6 45 fc 01	 mov	 BYTE PTR __$EHRec$[ebp+8], 1
; File C:\Program Files (x86)\Microsoft Visual Studio\2019\Community\VC\Tools\MSVC\14.29.30133\atlmfc\include\afxwin1.inl

; 639  : 		VERIFY(::GetTextExtentPoint32(m_hAttribDC, str, (int)str.GetLength(), &size));

  000d1	ff 70 f4	 push	 DWORD PTR [eax-12]
  000d4	50		 push	 eax
  000d5	ff 76 08	 push	 DWORD PTR [esi+8]
  000d8	ff 15 00 00 00
	00		 call	 DWORD PTR __imp__GetTextExtentPoint32A@16
; File C:\Program Files (x86)\Microsoft Visual Studio\2019\Community\VC\Tools\MSVC\14.29.30133\atlmfc\include\atltypes.h

; 318  : 	*(SIZE*)this = initSize;

  000de	8b 85 5c ff ff
	ff		 mov	 eax, DWORD PTR _size$29[ebp]
; File D:\git\src\IBK\IBK_DRFN\ProjSrc\SrcChartEx\ChartOCX\ScaleDraw\DataHorzScaleDrawer.cpp

; 148  : 	CHorzScaleDrawer::GetDrawingEnvironment(scaleRegion, drawingHorzScaleData.GetDisplayAttributes(), 

  000e4	8b cf		 mov	 ecx, edi
; File C:\Program Files (x86)\Microsoft Visual Studio\2019\Community\VC\Tools\MSVC\14.29.30133\atlmfc\include\atltypes.h

; 318  : 	*(SIZE*)this = initSize;

  000e6	89 85 f8 fe ff
	ff		 mov	 DWORD PTR $T19[ebp], eax
; File D:\git\src\IBK\IBK_DRFN\ProjSrc\SrcChartEx\ChartOCX\ScaleDraw\DataHorzScaleDrawer.cpp

; 148  : 	CHorzScaleDrawer::GetDrawingEnvironment(scaleRegion, drawingHorzScaleData.GetDisplayAttributes(), 

  000ec	8d 85 74 ff ff
	ff		 lea	 eax, DWORD PTR _posPt_y$[ebp]
  000f2	50		 push	 eax
  000f3	8d 85 44 ff ff
	ff		 lea	 eax, DWORD PTR _onePtWidth$[ebp]
  000f9	50		 push	 eax
  000fa	ff b5 60 ff ff
	ff		 push	 DWORD PTR _size$29[ebp+4]
  00100	8d 85 f0 fe ff
	ff		 lea	 eax, DWORD PTR $T17[ebp]
  00106	50		 push	 eax
  00107	e8 00 00 00 00	 call	 ?GetDisplayAttributes@CDrawingHorzScaleData@@QBE?AVCDisplayAttributes@@XZ ; CDrawingHorzScaleData::GetDisplayAttributes
  0010c	8b b5 50 ff ff
	ff		 mov	 esi, DWORD PTR _scaleRegion$GSCopy$1$[ebp]
  00112	8b 4d 9c	 mov	 ecx, DWORD PTR _this$GSCopy$1$[ebp]
  00115	50		 push	 eax
  00116	56		 push	 esi
  00117	e8 00 00 00 00	 call	 ?GetDrawingEnvironment@CHorzScaleDrawer@@IBEXABVCRect@@ABVCDisplayAttributes@@HAANAAH@Z ; CHorzScaleDrawer::GetDrawingEnvironment
  0011c	8d 4d 90	 lea	 ecx, DWORD PTR $T32[ebp]
  0011f	c6 45 fc 00	 mov	 BYTE PTR __$EHRec$[ebp+8], 0
  00123	ff 15 00 00 00
	00		 call	 DWORD PTR __imp_??1?$CStringT@DV?$StrTraitMFC_DLL@DV?$ChTraitsCRT@D@ATL@@@@@ATL@@QAE@XZ

; 149  : 		pDC->GetTextExtent(CDataConversion::DoubleToString( drawingHorzScaleData.GetDisplayDataMinMax().GetDisplayMax())).cy, onePtWidth, posPt_y);
; 150  : 
; 151  : 	// data    graph  draw   .
; 152  : 	//   Width/2.0   .!!
; 153  : 	CRect realScaleRegion = scaleRegion;

  00129	0f 10 06	 movups	 xmm0, XMMWORD PTR [esi]

; 154  : 	realScaleRegion.DeflateRect(CMath::Round(onePtWidth/2.0), 0);

  0012c	83 ec 08	 sub	 esp, 8
  0012f	0f 11 45 e0	 movups	 XMMWORD PTR _realScaleRegion$[ebp], xmm0
  00133	f2 0f 10 85 44
	ff ff ff	 movsd	 xmm0, QWORD PTR _onePtWidth$[ebp]
  0013b	f2 0f 59 05 00
	00 00 00	 mulsd	 xmm0, QWORD PTR __real@3fe0000000000000
  00143	f2 0f 11 04 24	 movsd	 QWORD PTR [esp], xmm0
  00148	e8 00 00 00 00	 call	 ?Round@CMath@@SAHN@Z	; CMath::Round
  0014d	83 c4 08	 add	 esp, 8
; File C:\Program Files (x86)\Microsoft Visual Studio\2019\Community\VC\Tools\MSVC\14.29.30133\atlmfc\include\atltypes.h

; 698  : 	::InflateRect(this, -x, -y);

  00150	f7 d8		 neg	 eax
  00152	6a 00		 push	 0
  00154	50		 push	 eax
  00155	8d 45 e0	 lea	 eax, DWORD PTR _realScaleRegion$[ebp]
  00158	50		 push	 eax
  00159	ff 15 00 00 00
	00		 call	 DWORD PTR __imp__InflateRect@12
; File D:\git\src\IBK\IBK_DRFN\ProjSrc\SrcChartEx\ChartOCX\ScaleDraw\DataHorzScaleDrawer.cpp

; 156  : 	int start = 0, end = 0;

  0015f	c7 85 54 ff ff
	ff 00 00 00 00	 mov	 DWORD PTR _start$[ebp], 0
  00169	0f 57 c0	 xorps	 xmm0, xmm0
  0016c	c7 85 58 ff ff
	ff 00 00 00 00	 mov	 DWORD PTR _end$[ebp], 0

; 157  : 	double dGap = 0.0;

  00176	f2 0f 11 85 18
	ff ff ff	 movsd	 QWORD PTR _dGap$[ebp], xmm0

; 158  : 	bool bround = false;

  0017e	c6 45 a3 00	 mov	 BYTE PTR _bround$[ebp], 0
; File C:\Program Files (x86)\Microsoft Visual Studio\2019\Community\VC\Tools\MSVC\14.29.30133\atlmfc\include\afxwin1.inl

; 70   : 	{ m_hObject = NULL; }

  00182	c7 85 68 ff ff
	ff 00 00 00 00	 mov	 DWORD PTR _scaleFont$[ebp+4], 0

; 153  : 	{ }

  0018c	c7 85 64 ff ff
	ff 00 00 00 00	 mov	 DWORD PTR _scaleFont$[ebp], OFFSET ??_7CFont@@6B@
; File D:\git\src\IBK\IBK_DRFN\ProjSrc\SrcChartEx\ChartOCX\ScaleDraw\DataHorzScaleDrawer.cpp

; 162  : 	if(horzScale.GetScaleCompart().GetScaleTextType() == CScaleBaseData::VERT_TEXT_COMPART)	{

  00196	8b 4d 80	 mov	 ecx, DWORD PTR _horzScale$GSCopy$1$[ebp]
  00199	8d 85 dc fe ff
	ff		 lea	 eax, DWORD PTR $T13[ebp]
  0019f	50		 push	 eax
  001a0	c6 45 fc 02	 mov	 BYTE PTR __$EHRec$[ebp+8], 2
  001a4	c7 45 90 00 00
	00 00		 mov	 DWORD PTR _pOldFont$1$[ebp], 0
  001ab	e8 00 00 00 00	 call	 ?GetScaleCompart@CHorizontalScale@@QBE?AVCScaleCompart@@XZ ; CHorizontalScale::GetScaleCompart
  001b0	8b c8		 mov	 ecx, eax
  001b2	c6 45 fc 03	 mov	 BYTE PTR __$EHRec$[ebp+8], 3
  001b6	e8 00 00 00 00	 call	 ?GetScaleTextType@CScaleCompart@@QBE?AW4TEXTCOMPARTTYPE@CScaleBaseData@@XZ ; CScaleCompart::GetScaleTextType
  001bb	8d 8d e0 fe ff
	ff		 lea	 ecx, DWORD PTR $T13[ebp+4]
  001c1	c6 45 fc 02	 mov	 BYTE PTR __$EHRec$[ebp+8], 2
  001c5	8b f0		 mov	 esi, eax
  001c7	ff 15 00 00 00
	00		 call	 DWORD PTR __imp_??1?$CStringT@DV?$StrTraitMFC_DLL@DV?$ChTraitsCRT@D@ATL@@@@@ATL@@QAE@XZ
  001cd	8d 8d dc fe ff
	ff		 lea	 ecx, DWORD PTR $T13[ebp]
  001d3	ff 15 00 00 00
	00		 call	 DWORD PTR __imp_??1?$CStringT@DV?$StrTraitMFC_DLL@DV?$ChTraitsCRT@D@ATL@@@@@ATL@@QAE@XZ
  001d9	8d 45 a3	 lea	 eax, DWORD PTR _bround$[ebp]
  001dc	8b cf		 mov	 ecx, edi
  001de	83 fe 01	 cmp	 esi, 1
  001e1	0f 85 05 01 00
	00		 jne	 $LN4@DrawTextOr

; 163  : 		if(!CHorzScaleDrawer::GetDrawingEnvironment(pDC, drawingHorzScaleData.GetPacket(), realScaleRegion, 

  001e7	56		 push	 esi
  001e8	50		 push	 eax
  001e9	8d 85 18 ff ff
	ff		 lea	 eax, DWORD PTR _dGap$[ebp]
  001ef	50		 push	 eax
  001f0	8d 85 58 ff ff
	ff		 lea	 eax, DWORD PTR _end$[ebp]
  001f6	50		 push	 eax
  001f7	8d 85 54 ff ff
	ff		 lea	 eax, DWORD PTR _start$[ebp]
  001fd	50		 push	 eax
  001fe	8d 85 44 ff ff
	ff		 lea	 eax, DWORD PTR _onePtWidth$[ebp]
  00204	50		 push	 eax
  00205	8d 85 cc fe ff
	ff		 lea	 eax, DWORD PTR $T10[ebp]
  0020b	50		 push	 eax
  0020c	e8 00 00 00 00	 call	 ?GetDisplayDataMinMax@CDrawingHorzScaleData@@QBE?AVCDisplayDataMinMax@@XZ ; CDrawingHorzScaleData::GetDisplayDataMinMax
  00211	50		 push	 eax
  00212	8d 45 e0	 lea	 eax, DWORD PTR _realScaleRegion$[ebp]
  00215	8b cf		 mov	 ecx, edi
  00217	50		 push	 eax
  00218	e8 00 00 00 00	 call	 ?GetPacket@CDrawingHorzScaleData@@QBEPAVCPacket@@XZ ; CDrawingHorzScaleData::GetPacket
  0021d	8b 75 98	 mov	 esi, DWORD PTR _pDC$GSCopy$1$[ebp]
  00220	8b 4d 9c	 mov	 ecx, DWORD PTR _this$GSCopy$1$[ebp]
  00223	50		 push	 eax
  00224	56		 push	 esi
  00225	e8 00 00 00 00	 call	 ?GetDrawingEnvironment@CHorzScaleDrawer@@IBE_NPAVCDC@@PAVCPacket@@ABVCRect@@ABVCDisplayDataMinMax@@ABNAAH5AANAA_N_N@Z ; CHorzScaleDrawer::GetDrawingEnvironment
  0022a	84 c0		 test	 al, al
  0022c	0f 84 c0 04 00
	00		 je	 $LN11@DrawTextOr
; File C:\Program Files (x86)\Microsoft Visual Studio\2019\Community\VC\Tools\MSVC\14.29.30133\atlmfc\include\afxwin1.inl

; 70   : 	{ m_hObject = NULL; }

  00232	c7 45 88 00 00
	00 00		 mov	 DWORD PTR _font$30[ebp+4], 0

; 153  : 	{ }

  00239	c7 45 84 00 00
	00 00		 mov	 DWORD PTR _font$30[ebp], OFFSET ??_7CFont@@6B@

; 88   : 	{ return (m_hObject = ::GetStockObject(nIndex)) != NULL; }

  00240	6a 11		 push	 17			; 00000011H
; File D:\git\src\IBK\IBK_DRFN\ProjSrc\SrcChartEx\ChartOCX\ScaleDraw\DataHorzScaleDrawer.cpp

; 264  : 	CFont font;

  00242	c6 45 fc 04	 mov	 BYTE PTR __$EHRec$[ebp+8], 4
; File C:\Program Files (x86)\Microsoft Visual Studio\2019\Community\VC\Tools\MSVC\14.29.30133\atlmfc\include\afxwin1.inl

; 88   : 	{ return (m_hObject = ::GetStockObject(nIndex)) != NULL; }

  00246	ff 15 00 00 00
	00		 call	 DWORD PTR __imp__GetStockObject@4
  0024c	89 45 88	 mov	 DWORD PTR _font$30[ebp+4], eax
  0024f	85 c0		 test	 eax, eax
; File D:\git\src\IBK\IBK_DRFN\ProjSrc\SrcChartEx\ChartOCX\ScaleDraw\DataHorzScaleDrawer.cpp

; 265  : 	if(font.CreateStockObject (DEFAULT_GUI_FONT))

  00251	74 5c		 je	 SHORT $LN46@DrawTextOr

; 266  : 	{
; 267  :      	LOGFONT lf;
; 268  :        	memset (&lf, 0, sizeof (LOGFONT));

  00253	6a 3c		 push	 60			; 0000003cH
  00255	8d 45 a4	 lea	 eax, DWORD PTR _lf$34[ebp]
  00258	6a 00		 push	 0
  0025a	50		 push	 eax
  0025b	e8 00 00 00 00	 call	 _memset
  00260	83 c4 0c	 add	 esp, 12			; 0000000cH
; File C:\Program Files (x86)\Microsoft Visual Studio\2019\Community\VC\Tools\MSVC\14.29.30133\atlmfc\include\afxwin1.inl

; 169  : 		return ::GetObject(m_hObject, sizeof(LOGFONT), pLogFont); }

  00263	8d 45 a4	 lea	 eax, DWORD PTR _lf$34[ebp]
  00266	50		 push	 eax
  00267	6a 3c		 push	 60			; 0000003cH
  00269	ff 75 88	 push	 DWORD PTR _font$30[ebp+4]
  0026c	ff 15 00 00 00
	00		 call	 DWORD PTR __imp__GetObjectA@12
; File D:\git\src\IBK\IBK_DRFN\ProjSrc\SrcChartEx\ChartOCX\ScaleDraw\DataHorzScaleDrawer.cpp

; 269  :        	if (font.GetLogFont (&lf) != 0)

  00272	85 c0		 test	 eax, eax
  00274	74 39		 je	 SHORT $LN46@DrawTextOr
; File C:\Program Files (x86)\Microsoft Visual Studio\2019\Community\VC\Tools\MSVC\14.29.30133\atlmfc\include\afxwin1.inl

; 157  : 	{ return Attach(::CreateFontIndirect(lpLogFont)); }

  00276	8d 45 a4	 lea	 eax, DWORD PTR _lf$34[ebp]
; File D:\git\src\IBK\IBK_DRFN\ProjSrc\SrcChartEx\ChartOCX\ScaleDraw\DataHorzScaleDrawer.cpp

; 271  :        		lf.lfOrientation = 900;

  00279	c7 45 b0 84 03
	00 00		 mov	 DWORD PTR _lf$34[ebp+12], 900 ; 00000384H
; File C:\Program Files (x86)\Microsoft Visual Studio\2019\Community\VC\Tools\MSVC\14.29.30133\atlmfc\include\afxwin1.inl

; 157  : 	{ return Attach(::CreateFontIndirect(lpLogFont)); }

  00280	50		 push	 eax
; File D:\git\src\IBK\IBK_DRFN\ProjSrc\SrcChartEx\ChartOCX\ScaleDraw\DataHorzScaleDrawer.cpp

; 272  :        		lf.lfEscapement = 900;

  00281	c7 45 ac 84 03
	00 00		 mov	 DWORD PTR _lf$34[ebp+8], 900 ; 00000384H

; 273  :        		lf.lfHeight = 12;

  00288	c7 45 a4 0c 00
	00 00		 mov	 DWORD PTR _lf$34[ebp], 12 ; 0000000cH

; 274  :        		lf.lfWidth = 0;

  0028f	c7 45 a8 00 00
	00 00		 mov	 DWORD PTR _lf$34[ebp+4], 0

; 275  :        		lf.lfWeight = 400;

  00296	c7 45 b4 90 01
	00 00		 mov	 DWORD PTR _lf$34[ebp+16], 400 ; 00000190H
; File C:\Program Files (x86)\Microsoft Visual Studio\2019\Community\VC\Tools\MSVC\14.29.30133\atlmfc\include\afxwin1.inl

; 157  : 	{ return Attach(::CreateFontIndirect(lpLogFont)); }

  0029d	ff 15 00 00 00
	00		 call	 DWORD PTR __imp__CreateFontIndirectA@4
  002a3	50		 push	 eax
  002a4	8d 8d 64 ff ff
	ff		 lea	 ecx, DWORD PTR _scaleFont$[ebp]
  002aa	e8 00 00 00 00	 call	 ?Attach@CGdiObject@@QAEHPAX@Z ; CGdiObject::Attach
$LN46@DrawTextOr:
; File D:\git\src\IBK\IBK_DRFN\ProjSrc\SrcChartEx\ChartOCX\ScaleDraw\DataHorzScaleDrawer.cpp

; 281  : 	font.DeleteObject();

  002af	8d 4d 84	 lea	 ecx, DWORD PTR _font$30[ebp]
  002b2	e8 00 00 00 00	 call	 ?DeleteObject@CGdiObject@@QAEHXZ ; CGdiObject::DeleteObject
; File C:\Program Files (x86)\Microsoft Visual Studio\2019\Community\VC\Tools\MSVC\14.29.30133\atlmfc\include\afxwin1.inl

; 155  : 	{ }

  002b7	8d 4d 84	 lea	 ecx, DWORD PTR _font$30[ebp]
; File D:\git\src\IBK\IBK_DRFN\ProjSrc\SrcChartEx\ChartOCX\ScaleDraw\DataHorzScaleDrawer.cpp

; 282  : }

  002ba	c6 45 fc 02	 mov	 BYTE PTR __$EHRec$[ebp+8], 2
; File C:\Program Files (x86)\Microsoft Visual Studio\2019\Community\VC\Tools\MSVC\14.29.30133\atlmfc\include\afxwin1.inl

; 155  : 	{ }

  002be	c7 45 84 00 00
	00 00		 mov	 DWORD PTR _font$30[ebp], OFFSET ??_7CFont@@6B@
  002c5	e8 00 00 00 00	 call	 ??1CGdiObject@@UAE@XZ	; CGdiObject::~CGdiObject

; 366  : 		return (hObject != NULL) ? ::SelectObject(m_hDC, hObject) : NULL; }

  002ca	8b 85 68 ff ff
	ff		 mov	 eax, DWORD PTR _scaleFont$[ebp+4]
  002d0	85 c0		 test	 eax, eax
  002d2	74 0f		 je	 SHORT $LN68@DrawTextOr
  002d4	50		 push	 eax
  002d5	ff 76 04	 push	 DWORD PTR [esi+4]
  002d8	ff 15 00 00 00
	00		 call	 DWORD PTR __imp__SelectObject@8
  002de	89 45 90	 mov	 DWORD PTR _pOldFont$1$[ebp], eax
  002e1	eb 55		 jmp	 SHORT $LN7@DrawTextOr
$LN68@DrawTextOr:
  002e3	c7 45 90 00 00
	00 00		 mov	 DWORD PTR _pOldFont$1$[ebp], 0
; File D:\git\src\IBK\IBK_DRFN\ProjSrc\SrcChartEx\ChartOCX\ScaleDraw\DataHorzScaleDrawer.cpp

; 168  : 	}

  002ea	eb 4c		 jmp	 SHORT $LN7@DrawTextOr
$LN4@DrawTextOr:

; 169  : 	else{
; 170  : 		if(!CHorzScaleDrawer::GetDrawingEnvironment(pDC, drawingHorzScaleData.GetPacket(), realScaleRegion, 

  002ec	6a 00		 push	 0
  002ee	50		 push	 eax
  002ef	8d 85 18 ff ff
	ff		 lea	 eax, DWORD PTR _dGap$[ebp]
  002f5	50		 push	 eax
  002f6	8d 85 58 ff ff
	ff		 lea	 eax, DWORD PTR _end$[ebp]
  002fc	50		 push	 eax
  002fd	8d 85 54 ff ff
	ff		 lea	 eax, DWORD PTR _start$[ebp]
  00303	50		 push	 eax
  00304	8d 85 44 ff ff
	ff		 lea	 eax, DWORD PTR _onePtWidth$[ebp]
  0030a	50		 push	 eax
  0030b	8d 85 cc fe ff
	ff		 lea	 eax, DWORD PTR $T9[ebp]
  00311	50		 push	 eax
  00312	e8 00 00 00 00	 call	 ?GetDisplayDataMinMax@CDrawingHorzScaleData@@QBE?AVCDisplayDataMinMax@@XZ ; CDrawingHorzScaleData::GetDisplayDataMinMax
  00317	50		 push	 eax
  00318	8d 45 e0	 lea	 eax, DWORD PTR _realScaleRegion$[ebp]
  0031b	8b cf		 mov	 ecx, edi
  0031d	50		 push	 eax
  0031e	e8 00 00 00 00	 call	 ?GetPacket@CDrawingHorzScaleData@@QBEPAVCPacket@@XZ ; CDrawingHorzScaleData::GetPacket
  00323	8b 75 98	 mov	 esi, DWORD PTR _pDC$GSCopy$1$[ebp]
  00326	8b 4d 9c	 mov	 ecx, DWORD PTR _this$GSCopy$1$[ebp]
  00329	50		 push	 eax
  0032a	56		 push	 esi
  0032b	e8 00 00 00 00	 call	 ?GetDrawingEnvironment@CHorzScaleDrawer@@IBE_NPAVCDC@@PAVCPacket@@ABVCRect@@ABVCDisplayDataMinMax@@ABNAAH5AANAA_N_N@Z ; CHorzScaleDrawer::GetDrawingEnvironment
  00330	84 c0		 test	 al, al
  00332	0f 84 ba 03 00
	00		 je	 $LN11@DrawTextOr
$LN7@DrawTextOr:

; 171  : 			drawingHorzScaleData.GetDisplayDataMinMax(), onePtWidth, start, end, dGap, bround))
; 172  : 			return;
; 173  : 	}
; 174  : 
; 175  : 	double dMin = drawingHorzScaleData.GetDisplayDataMinMax().GetDisplayMin();

  00338	8d 85 cc fe ff
	ff		 lea	 eax, DWORD PTR $T8[ebp]
  0033e	8b cf		 mov	 ecx, edi
  00340	50		 push	 eax
  00341	e8 00 00 00 00	 call	 ?GetDisplayDataMinMax@CDrawingHorzScaleData@@QBE?AVCDisplayDataMinMax@@XZ ; CDrawingHorzScaleData::GetDisplayDataMinMax
  00346	8b c8		 mov	 ecx, eax
  00348	e8 00 00 00 00	 call	 ?GetDisplayMin@CDisplayDataMinMax@@QBENXZ ; CDisplayDataMinMax::GetDisplayMin

; 176  : 	// rounding
; 177  : 	/*double dModulus = CMath::Modulus(dMin, dGap);
; 178  : 	if(dModulus > 0){
; 179  : 		dMin += dGap - dModulus;
; 180  : 	}*/
; 181  : 
; 182  : 	CPoint posPt = CPoint(0,0);
; 183  : 	int nCount = 0;

  0034d	33 c0		 xor	 eax, eax
  0034f	dd 9d c4 fe ff
	ff		 fstp	 QWORD PTR _dMin$[ebp]
  00355	89 85 7c ff ff
	ff		 mov	 DWORD PTR _nCount$1$[ebp], eax

; 184  : 	while(posPt.x < realScaleRegion.right){

  0035b	39 45 e8	 cmp	 DWORD PTR _realScaleRegion$[ebp+8], eax
  0035e	0f 8e 74 03 00
	00		 jle	 $LN124@DrawTextOr
$LL2@DrawTextOr:
  00364	66 0f 6e c0	 movd	 xmm0, eax

; 185  : 		double value = dMin + dGap * nCount;
; 186  : 		if(value > drawingHorzScaleData.GetDisplayDataMinMax().GetDisplayMax())

  00368	8b cf		 mov	 ecx, edi
  0036a	f3 0f e6 c0	 cvtdq2pd xmm0, xmm0
  0036e	8d 85 94 fe ff
	ff		 lea	 eax, DWORD PTR $T4[ebp]
  00374	50		 push	 eax
  00375	f2 0f 59 85 18
	ff ff ff	 mulsd	 xmm0, QWORD PTR _dGap$[ebp]
  0037d	f2 0f 58 85 c4
	fe ff ff	 addsd	 xmm0, QWORD PTR _dMin$[ebp]
  00385	f2 0f 11 85 2c
	ff ff ff	 movsd	 QWORD PTR _value$24[ebp], xmm0
  0038d	e8 00 00 00 00	 call	 ?GetDisplayDataMinMax@CDrawingHorzScaleData@@QBE?AVCDisplayDataMinMax@@XZ ; CDrawingHorzScaleData::GetDisplayDataMinMax
  00392	8b c8		 mov	 ecx, eax
  00394	e8 00 00 00 00	 call	 ?GetDisplayMax@CDisplayDataMinMax@@QBENXZ ; CDisplayDataMinMax::GetDisplayMax
  00399	f2 0f 10 85 2c
	ff ff ff	 movsd	 xmm0, QWORD PTR _value$24[ebp]
  003a1	dd 5d 84	 fstp	 QWORD PTR tv997[ebp]
  003a4	66 0f 2f 45 84	 comisd	 xmm0, QWORD PTR tv997[ebp]
  003a9	0f 87 29 03 00
	00		 ja	 $LN124@DrawTextOr

; 188  : 		CString strData = CDataConversion( m_hOcxWnd, m_eChartMode).GetStringFormatTrans(CDataConversion::DoubleToString(value), dataType);

  003af	8d 85 2c ff ff
	ff		 lea	 eax, DWORD PTR _value$24[ebp]
  003b5	50		 push	 eax
  003b6	8d 85 28 ff ff
	ff		 lea	 eax, DWORD PTR $T23[ebp]
  003bc	50		 push	 eax
  003bd	e8 00 00 00 00	 call	 ?DoubleToString@CDataConversion@@SA?AV?$CStringT@DV?$StrTraitMFC_DLL@DV?$ChTraitsCRT@D@ATL@@@@@ATL@@ABN@Z ; CDataConversion::DoubleToString
  003c2	83 c4 08	 add	 esp, 8
; File D:\git\src\IBK\IBK_DRFN\ProjSrc\SrcChartEx\ChartOCX\Include_Chart\Conversion.h

; 27   : 		{	m_hOcxWnd = p_hOcxWnd;	m_eChartMode = p_eChartMode;	}

  003c5	8b 8d 70 ff ff
	ff		 mov	 ecx, DWORD PTR tv907[ebp]
; File D:\git\src\IBK\IBK_DRFN\ProjSrc\SrcChartEx\ChartOCX\ScaleDraw\DataHorzScaleDrawer.cpp

; 188  : 		CString strData = CDataConversion( m_hOcxWnd, m_eChartMode).GetStringFormatTrans(CDataConversion::DoubleToString(value), dataType);

  003cb	8b 55 9c	 mov	 edx, DWORD PTR _this$GSCopy$1$[ebp]
  003ce	c6 45 fc 05	 mov	 BYTE PTR __$EHRec$[ebp+8], 5
; File D:\git\src\IBK\IBK_DRFN\ProjSrc\SrcChartEx\ChartOCX\Include_Chart\Conversion.h

; 27   : 		{	m_hOcxWnd = p_hOcxWnd;	m_eChartMode = p_eChartMode;	}

  003d2	8b 09		 mov	 ecx, DWORD PTR [ecx]
; File D:\git\src\IBK\IBK_DRFN\ProjSrc\SrcChartEx\ChartOCX\ScaleDraw\DataHorzScaleDrawer.cpp

; 188  : 		CString strData = CDataConversion( m_hOcxWnd, m_eChartMode).GetStringFormatTrans(CDataConversion::DoubleToString(value), dataType);

  003d4	8b 52 08	 mov	 edx, DWORD PTR [edx+8]
; File D:\git\src\IBK\IBK_DRFN\ProjSrc\SrcChartEx\ChartOCX\Include_Chart\Conversion.h

; 27   : 		{	m_hOcxWnd = p_hOcxWnd;	m_eChartMode = p_eChartMode;	}

  003d7	89 8d 08 ff ff
	ff		 mov	 DWORD PTR $T21[ebp], ecx
; File D:\git\src\IBK\IBK_DRFN\ProjSrc\SrcChartEx\ChartOCX\ScaleDraw\DataHorzScaleDrawer.cpp

; 188  : 		CString strData = CDataConversion( m_hOcxWnd, m_eChartMode).GetStringFormatTrans(CDataConversion::DoubleToString(value), dataType);

  003dd	8d 8d 4c ff ff
	ff		 lea	 ecx, DWORD PTR _dataType$[ebp]
  003e3	51		 push	 ecx
  003e4	50		 push	 eax
  003e5	8d 45 94	 lea	 eax, DWORD PTR _strData$33[ebp]
; File D:\git\src\IBK\IBK_DRFN\ProjSrc\SrcChartEx\ChartOCX\Include_Chart\Conversion.h

; 27   : 		{	m_hOcxWnd = p_hOcxWnd;	m_eChartMode = p_eChartMode;	}

  003e8	89 95 0c ff ff
	ff		 mov	 DWORD PTR $T21[ebp+4], edx
; File D:\git\src\IBK\IBK_DRFN\ProjSrc\SrcChartEx\ChartOCX\ScaleDraw\DataHorzScaleDrawer.cpp

; 188  : 		CString strData = CDataConversion( m_hOcxWnd, m_eChartMode).GetStringFormatTrans(CDataConversion::DoubleToString(value), dataType);

  003ee	50		 push	 eax
  003ef	8d 8d 08 ff ff
	ff		 lea	 ecx, DWORD PTR $T21[ebp]
  003f5	e8 00 00 00 00	 call	 ?GetStringFormatTrans@CDataConversion@@QAE?AV?$CStringT@DV?$StrTraitMFC_DLL@DV?$ChTraitsCRT@D@ATL@@@@@ATL@@ABV23@0@Z ; CDataConversion::GetStringFormatTrans
  003fa	8d 8d 28 ff ff
	ff		 lea	 ecx, DWORD PTR $T23[ebp]
  00400	c6 45 fc 07	 mov	 BYTE PTR __$EHRec$[ebp+8], 7
  00404	ff 15 00 00 00
	00		 call	 DWORD PTR __imp_??1?$CStringT@DV?$StrTraitMFC_DLL@DV?$ChTraitsCRT@D@ATL@@@@@ATL@@QAE@XZ

; 190  : 		posPt = CDataConversion::GetHorizontalPoint(realScaleRegion, nCount, scaleRegion.Width(), drawingHorzScaleData.GetDisplayDataMinMax().GetDisplayMin(),

  0040a	8d 85 84 fe ff
	ff		 lea	 eax, DWORD PTR $T3[ebp]
  00410	8b cf		 mov	 ecx, edi
  00412	50		 push	 eax
  00413	e8 00 00 00 00	 call	 ?GetDisplayDataMinMax@CDrawingHorzScaleData@@QBE?AVCDisplayDataMinMax@@XZ ; CDrawingHorzScaleData::GetDisplayDataMinMax
  00418	8b c8		 mov	 ecx, eax
  0041a	e8 00 00 00 00	 call	 ?GetDisplayMax@CDisplayDataMinMax@@QBENXZ ; CDisplayDataMinMax::GetDisplayMax
  0041f	8d 85 74 fe ff
	ff		 lea	 eax, DWORD PTR $T2[ebp]
  00425	8b cf		 mov	 ecx, edi
  00427	50		 push	 eax
  00428	dd 9d bc fe ff
	ff		 fstp	 QWORD PTR $T7[ebp]
  0042e	e8 00 00 00 00	 call	 ?GetDisplayDataMinMax@CDrawingHorzScaleData@@QBE?AVCDisplayDataMinMax@@XZ ; CDrawingHorzScaleData::GetDisplayDataMinMax
  00433	8b c8		 mov	 ecx, eax
  00435	e8 00 00 00 00	 call	 ?GetDisplayMin@CDisplayDataMinMax@@QBENXZ ; CDisplayDataMinMax::GetDisplayMin
; File C:\Program Files (x86)\Microsoft Visual Studio\2019\Community\VC\Tools\MSVC\14.29.30133\atlmfc\include\atltypes.h

; 576  : 	return right - left;

  0043a	8b 8d 50 ff ff
	ff		 mov	 ecx, DWORD PTR _scaleRegion$GSCopy$1$[ebp]
; File D:\git\src\IBK\IBK_DRFN\ProjSrc\SrcChartEx\ChartOCX\ScaleDraw\DataHorzScaleDrawer.cpp

; 190  : 		posPt = CDataConversion::GetHorizontalPoint(realScaleRegion, nCount, scaleRegion.Width(), drawingHorzScaleData.GetDisplayDataMinMax().GetDisplayMin(),

  00440	dd 9d f0 fe ff
	ff		 fstp	 QWORD PTR $T16[ebp]
; File C:\Program Files (x86)\Microsoft Visual Studio\2019\Community\VC\Tools\MSVC\14.29.30133\atlmfc\include\atltypes.h

; 576  : 	return right - left;

  00446	8b 41 08	 mov	 eax, DWORD PTR [ecx+8]
  00449	2b 01		 sub	 eax, DWORD PTR [ecx]
  0044b	66 0f 6e c0	 movd	 xmm0, eax
; File D:\git\src\IBK\IBK_DRFN\ProjSrc\SrcChartEx\ChartOCX\ScaleDraw\DataHorzScaleDrawer.cpp

; 190  : 		posPt = CDataConversion::GetHorizontalPoint(realScaleRegion, nCount, scaleRegion.Width(), drawingHorzScaleData.GetDisplayDataMinMax().GetDisplayMin(),

  0044f	8d 85 2c ff ff
	ff		 lea	 eax, DWORD PTR _value$24[ebp]
  00455	50		 push	 eax
  00456	8d 85 bc fe ff
	ff		 lea	 eax, DWORD PTR $T7[ebp]
  0045c	50		 push	 eax
  0045d	8d 85 f0 fe ff
	ff		 lea	 eax, DWORD PTR $T16[ebp]
  00463	50		 push	 eax
  00464	8d 85 f8 fe ff
	ff		 lea	 eax, DWORD PTR $T18[ebp]
  0046a	50		 push	 eax
  0046b	ff b5 7c ff ff
	ff		 push	 DWORD PTR _nCount$1$[ebp]
  00471	f3 0f e6 c0	 cvtdq2pd xmm0, xmm0
  00475	8d 45 e0	 lea	 eax, DWORD PTR _realScaleRegion$[ebp]
  00478	50		 push	 eax
  00479	8d 85 e0 fe ff
	ff		 lea	 eax, DWORD PTR $T14[ebp]
  0047f	50		 push	 eax
  00480	f2 0f 11 85 f8
	fe ff ff	 movsd	 QWORD PTR $T18[ebp], xmm0
  00488	e8 00 00 00 00	 call	 ?GetHorizontalPoint@CDataConversion@@SA?AVCPoint@@ABVCRect@@HABN111@Z ; CDataConversion::GetHorizontalPoint
  0048d	83 c4 1c	 add	 esp, 28			; 0000001cH
  00490	8b 08		 mov	 ecx, DWORD PTR [eax]
  00492	8b 40 04	 mov	 eax, DWORD PTR [eax+4]
  00495	89 45 88	 mov	 DWORD PTR _posPt$[ebp+4], eax

; 191  : 					drawingHorzScaleData.GetDisplayDataMinMax().GetDisplayMax(), value);
; 192  : 
; 193  : 		// 
; 194  : 		if(horzScale.GetScaleCompart().GetScaleTextType() == CScaleBaseData::VERT_TEXT_COMPART){

  00498	8d 85 b0 fe ff
	ff		 lea	 eax, DWORD PTR $T6[ebp]
  0049e	89 8d 78 ff ff
	ff		 mov	 DWORD PTR _posPt$1$[ebp], ecx
  004a4	8b 4d 80	 mov	 ecx, DWORD PTR _horzScale$GSCopy$1$[ebp]
  004a7	50		 push	 eax
  004a8	e8 00 00 00 00	 call	 ?GetScaleCompart@CHorizontalScale@@QBE?AVCScaleCompart@@XZ ; CHorizontalScale::GetScaleCompart
  004ad	8b c8		 mov	 ecx, eax
  004af	c6 45 fc 08	 mov	 BYTE PTR __$EHRec$[ebp+8], 8
  004b3	e8 00 00 00 00	 call	 ?GetScaleTextType@CScaleCompart@@QBE?AW4TEXTCOMPARTTYPE@CScaleBaseData@@XZ ; CScaleCompart::GetScaleTextType
  004b8	8d 8d b4 fe ff
	ff		 lea	 ecx, DWORD PTR $T6[ebp+4]
  004be	c6 45 fc 07	 mov	 BYTE PTR __$EHRec$[ebp+8], 7
  004c2	8b f0		 mov	 esi, eax
  004c4	ff 15 00 00 00
	00		 call	 DWORD PTR __imp_??1?$CStringT@DV?$StrTraitMFC_DLL@DV?$ChTraitsCRT@D@ATL@@@@@ATL@@QAE@XZ
  004ca	8d 8d b0 fe ff
	ff		 lea	 ecx, DWORD PTR $T6[ebp]
  004d0	ff 15 00 00 00
	00		 call	 DWORD PTR __imp_??1?$CStringT@DV?$StrTraitMFC_DLL@DV?$ChTraitsCRT@D@ATL@@@@@ATL@@QAE@XZ
  004d6	8b 45 94	 mov	 eax, DWORD PTR _strData$33[ebp]
  004d9	83 fe 01	 cmp	 esi, 1
  004dc	8b 75 98	 mov	 esi, DWORD PTR _pDC$GSCopy$1$[ebp]
  004df	0f 85 98 00 00
	00		 jne	 $LN9@DrawTextOr
; File C:\Program Files (x86)\Microsoft Visual Studio\2019\Community\VC\Tools\MSVC\14.29.30133\atlmfc\include\afxwin1.inl

; 639  : 		VERIFY(::GetTextExtentPoint32(m_hAttribDC, str, (int)str.GetLength(), &size));

  004e5	8d 8d 00 ff ff
	ff		 lea	 ecx, DWORD PTR _size$20[ebp]
  004eb	51		 push	 ecx
  004ec	ff 70 f4	 push	 DWORD PTR [eax-12]
  004ef	50		 push	 eax
  004f0	ff 76 08	 push	 DWORD PTR [esi+8]
  004f3	ff 15 00 00 00
	00		 call	 DWORD PTR __imp__GetTextExtentPoint32A@16
; File C:\Program Files (x86)\Microsoft Visual Studio\2019\Community\VC\Tools\MSVC\14.29.30133\atlmfc\include\atltypes.h

; 318  : 	*(SIZE*)this = initSize;

  004f9	8b 85 00 ff ff
	ff		 mov	 eax, DWORD PTR _size$20[ebp]
  004ff	8b 8d 04 ff ff
	ff		 mov	 ecx, DWORD PTR _size$20[ebp+4]
  00505	89 85 e8 fe ff
	ff		 mov	 DWORD PTR $T15[ebp], eax

; 408  : 	x = initX;

  0050b	8b 85 78 ff ff
	ff		 mov	 eax, DWORD PTR _posPt$1$[ebp]
  00511	89 85 10 ff ff
	ff		 mov	 DWORD PTR $T22[ebp], eax

; 409  : 	y = initY;

  00517	8b 85 74 ff ff
	ff		 mov	 eax, DWORD PTR _posPt_y$[ebp]
  0051d	89 85 14 ff ff
	ff		 mov	 DWORD PTR $T22[ebp+4], eax
; File D:\git\src\IBK\IBK_DRFN\ProjSrc\SrcChartEx\ChartOCX\ScaleDraw\DataHorzScaleDrawer.cpp

; 195  : 			DrawTextAndCompartLine_stand(pDC, realScaleRegion, CPoint(posPt.x, posPt_y), onePtWidth,

  00523	8d 85 a4 fe ff
	ff		 lea	 eax, DWORD PTR $T5[ebp]
; File C:\Program Files (x86)\Microsoft Visual Studio\2019\Community\VC\Tools\MSVC\14.29.30133\atlmfc\include\atltypes.h

; 318  : 	*(SIZE*)this = initSize;

  00529	89 8d ec fe ff
	ff		 mov	 DWORD PTR $T15[ebp+4], ecx
; File D:\git\src\IBK\IBK_DRFN\ProjSrc\SrcChartEx\ChartOCX\ScaleDraw\DataHorzScaleDrawer.cpp

; 195  : 			DrawTextAndCompartLine_stand(pDC, realScaleRegion, CPoint(posPt.x, posPt_y), onePtWidth,

  0052f	8b cf		 mov	 ecx, edi
  00531	50		 push	 eax
  00532	e8 00 00 00 00	 call	 ?GetScaleColor@CDrawingHorzScaleData@@QBE?AVCScaleColor@@XZ ; CDrawingHorzScaleData::GetScaleColor
  00537	8b c8		 mov	 ecx, eax
  00539	ff 15 00 00 00
	00		 call	 DWORD PTR __imp_?GetScaleTextColor@CScaleColor@@QAEAAKXZ
  0053f	8b f0		 mov	 esi, eax
  00541	8b cf		 mov	 ecx, edi
  00543	8d 45 8c	 lea	 eax, DWORD PTR _pre_textEndPos$[ebp]
  00546	50		 push	 eax
  00547	e8 00 00 00 00	 call	 ?GetCompartLineColor@CDrawingHorzScaleData@@QBEKXZ ; CDrawingHorzScaleData::GetCompartLineColor
  0054c	8b 4d 9c	 mov	 ecx, DWORD PTR _this$GSCopy$1$[ebp]
  0054f	50		 push	 eax
  00550	ff 36		 push	 DWORD PTR [esi]
  00552	8b 75 98	 mov	 esi, DWORD PTR _pDC$GSCopy$1$[ebp]
  00555	8d 85 e8 fe ff
	ff		 lea	 eax, DWORD PTR $T15[ebp]
  0055b	50		 push	 eax
  0055c	8d 45 94	 lea	 eax, DWORD PTR _strData$33[ebp]
  0055f	50		 push	 eax
  00560	8d 85 44 ff ff
	ff		 lea	 eax, DWORD PTR _onePtWidth$[ebp]
  00566	50		 push	 eax
  00567	8d 85 10 ff ff
	ff		 lea	 eax, DWORD PTR $T22[ebp]
  0056d	50		 push	 eax
  0056e	8d 45 e0	 lea	 eax, DWORD PTR _realScaleRegion$[ebp]
  00571	50		 push	 eax
  00572	56		 push	 esi
  00573	e8 00 00 00 00	 call	 ?DrawTextAndCompartLine_stand@CEtcDataHorzScaleDrawer@@AAEXPAVCDC@@ABVCRect@@ABVCPoint@@ABNABV?$CStringT@DV?$StrTraitMFC_DLL@DV?$ChTraitsCRT@D@ATL@@@@@ATL@@ABVCSize@@KKAAH@Z ; CEtcDataHorzScaleDrawer::DrawTextAndCompartLine_stand

; 196  : 					strData, pDC->GetTextExtent(strData), drawingHorzScaleData.GetScaleColor().GetScaleTextColor(), 
; 197  : 					drawingHorzScaleData.GetCompartLineColor(), pre_textEndPos);
; 198  : 		}

  00578	e9 18 01 00 00	 jmp	 $LN10@DrawTextOr
$LN9@DrawTextOr:
; File C:\Program Files (x86)\Microsoft Visual Studio\2019\Community\VC\Tools\MSVC\14.29.30133\atlmfc\include\afxwin1.inl

; 639  : 		VERIFY(::GetTextExtentPoint32(m_hAttribDC, str, (int)str.GetLength(), &size));

  0057d	8d 8d 34 ff ff
	ff		 lea	 ecx, DWORD PTR _size$25[ebp]
  00583	51		 push	 ecx
  00584	ff 70 f4	 push	 DWORD PTR [eax-12]
  00587	50		 push	 eax
  00588	ff 76 08	 push	 DWORD PTR [esi+8]
  0058b	ff 15 00 00 00
	00		 call	 DWORD PTR __imp__GetTextExtentPoint32A@16
; File C:\Program Files (x86)\Microsoft Visual Studio\2019\Community\VC\Tools\MSVC\14.29.30133\atlmfc\include\atltypes.h

; 318  : 	*(SIZE*)this = initSize;

  00591	8b 85 34 ff ff
	ff		 mov	 eax, DWORD PTR _size$25[ebp]
; File D:\git\src\IBK\IBK_DRFN\ProjSrc\SrcChartEx\ChartOCX\ScaleDraw\DataHorzScaleDrawer.cpp

; 200  : 			CDataHorzScaleDrawer::DrawTextAndCompartLine(pDC, realScaleRegion, CPoint(posPt.x, posPt_y), onePtWidth,

  00597	8b 8d 6c ff ff
	ff		 mov	 ecx, DWORD PTR _drawingHorzScaleData$GSCopy$1$[ebp]
; File C:\Program Files (x86)\Microsoft Visual Studio\2019\Community\VC\Tools\MSVC\14.29.30133\atlmfc\include\atltypes.h

; 318  : 	*(SIZE*)this = initSize;

  0059d	8b bd 38 ff ff
	ff		 mov	 edi, DWORD PTR _size$25[ebp+4]
  005a3	89 45 8c	 mov	 DWORD PTR $T31[ebp], eax

; 408  : 	x = initX;

  005a6	8b 85 78 ff ff
	ff		 mov	 eax, DWORD PTR _posPt$1$[ebp]
  005ac	89 85 3c ff ff
	ff		 mov	 DWORD PTR $T27[ebp], eax

; 409  : 	y = initY;

  005b2	8b 85 74 ff ff
	ff		 mov	 eax, DWORD PTR _posPt_y$[ebp]
  005b8	89 85 40 ff ff
	ff		 mov	 DWORD PTR $T27[ebp+4], eax
; File D:\git\src\IBK\IBK_DRFN\ProjSrc\SrcChartEx\ChartOCX\ScaleDraw\DataHorzScaleDrawer.cpp

; 200  : 			CDataHorzScaleDrawer::DrawTextAndCompartLine(pDC, realScaleRegion, CPoint(posPt.x, posPt_y), onePtWidth,

  005be	e8 00 00 00 00	 call	 ?GetCompartLineColor@CDrawingHorzScaleData@@QBEKXZ ; CDrawingHorzScaleData::GetCompartLineColor
  005c3	8b 8d 6c ff ff
	ff		 mov	 ecx, DWORD PTR _drawingHorzScaleData$GSCopy$1$[ebp]
  005c9	8b f0		 mov	 esi, eax
  005cb	8d 85 d0 fe ff
	ff		 lea	 eax, DWORD PTR $T12[ebp]
  005d1	50		 push	 eax
  005d2	e8 00 00 00 00	 call	 ?GetScaleColor@CDrawingHorzScaleData@@QBE?AVCScaleColor@@XZ ; CDrawingHorzScaleData::GetScaleColor
  005d7	8b c8		 mov	 ecx, eax
  005d9	ff 15 00 00 00
	00		 call	 DWORD PTR __imp_?GetScaleTextColor@CScaleColor@@QAEAAKXZ
  005df	8b 4d 80	 mov	 ecx, DWORD PTR _horzScale$GSCopy$1$[ebp]
  005e2	8b 00		 mov	 eax, DWORD PTR [eax]
  005e4	89 45 88	 mov	 DWORD PTR _textColor$1$[ebp], eax
  005e7	e8 00 00 00 00	 call	 ?GetHorzScalePosition@CHorizontalScale@@QBE?AW4HORZSCALEPOSITION@CScaleBaseData@@XZ ; CHorizontalScale::GetHorzScalePosition

; 28   : 	CHorzScaleDrawer::DrawTextCompartLine(pDC, scaleRegion, nowPos, bIsTopPos, gridColor);

  005ec	8b 4d 9c	 mov	 ecx, DWORD PTR _this$GSCopy$1$[ebp]

; 200  : 			CDataHorzScaleDrawer::DrawTextAndCompartLine(pDC, realScaleRegion, CPoint(posPt.x, posPt_y), onePtWidth,

  005ef	85 c0		 test	 eax, eax

; 28   : 	CHorzScaleDrawer::DrawTextCompartLine(pDC, scaleRegion, nowPos, bIsTopPos, gridColor);

  005f1	56		 push	 esi
  005f2	8b 75 98	 mov	 esi, DWORD PTR _pDC$GSCopy$1$[ebp]
  005f5	8d 85 3c ff ff
	ff		 lea	 eax, DWORD PTR $T27[ebp]

; 200  : 			CDataHorzScaleDrawer::DrawTextAndCompartLine(pDC, realScaleRegion, CPoint(posPt.x, posPt_y), onePtWidth,

  005fb	0f 94 85 20 ff
	ff ff		 sete	 BYTE PTR _bIsTopPos$[ebp]

; 28   : 	CHorzScaleDrawer::DrawTextCompartLine(pDC, scaleRegion, nowPos, bIsTopPos, gridColor);

  00602	ff b5 20 ff ff
	ff		 push	 DWORD PTR _bIsTopPos$[ebp]
  00608	50		 push	 eax
  00609	8d 45 e0	 lea	 eax, DWORD PTR _realScaleRegion$[ebp]
  0060c	50		 push	 eax
  0060d	56		 push	 esi
  0060e	e8 00 00 00 00	 call	 ?DrawTextCompartLine@CHorzScaleDrawer@@IAEXPAVCDC@@ABVCRect@@ABVCPoint@@_NK@Z ; CHorzScaleDrawer::DrawTextCompartLine
  00613	66 0f 6e 45 8c	 movd	 xmm0, DWORD PTR $T31[ebp]

; 48   : 		return(org_x - CMath::Round(textWidth / 2.0));

  00618	83 ec 08	 sub	 esp, 8

; 31   : 	CPoint textPosPt(GetTextPosition_x(nowPos.x, textSize.cx, true), nowPos.y);

  0061b	8b 85 3c ff ff
	ff		 mov	 eax, DWORD PTR $T27[ebp]

; 48   : 		return(org_x - CMath::Round(textWidth / 2.0));

  00621	f3 0f e6 c0	 cvtdq2pd xmm0, xmm0

; 31   : 	CPoint textPosPt(GetTextPosition_x(nowPos.x, textSize.cx, true), nowPos.y);

  00625	89 85 24 ff ff
	ff		 mov	 DWORD PTR _textPosPt$1$[ebp], eax

; 48   : 		return(org_x - CMath::Round(textWidth / 2.0));

  0062b	f2 0f 59 05 00
	00 00 00	 mulsd	 xmm0, QWORD PTR __real@3fe0000000000000
  00633	f2 0f 11 04 24	 movsd	 QWORD PTR [esp], xmm0
  00638	e8 00 00 00 00	 call	 ?Round@CMath@@SAHN@Z	; CMath::Round
  0063d	8b 8d 24 ff ff
	ff		 mov	 ecx, DWORD PTR _textPosPt$1$[ebp]
  00643	83 c4 08	 add	 esp, 8
  00646	2b c8		 sub	 ecx, eax
; File C:\Program Files (x86)\Microsoft Visual Studio\2019\Community\VC\Tools\MSVC\14.29.30133\atlmfc\include\atltypes.h

; 409  : 	y = initY;

  00648	8b 85 40 ff ff
	ff		 mov	 eax, DWORD PTR $T27[ebp+4]
  0064e	89 85 60 ff ff
	ff		 mov	 DWORD PTR _textPosPt$28[ebp+4], eax

; 581  : 	return bottom - top;

  00654	8b 45 ec	 mov	 eax, DWORD PTR _realScaleRegion$[ebp+12]
  00657	2b 45 e4	 sub	 eax, DWORD PTR _realScaleRegion$[ebp+4]

; 408  : 	x = initX;

  0065a	89 8d 5c ff ff
	ff		 mov	 DWORD PTR _textPosPt$28[ebp], ecx
; File D:\git\src\IBK\IBK_DRFN\ProjSrc\SrcChartEx\ChartOCX\ScaleDraw\DataHorzScaleDrawer.cpp

; 32   : 	if(scaleRegion.Height() > textSize.cy)

  00660	3b c7		 cmp	 eax, edi
  00662	7e 20		 jle	 SHORT $LN107@DrawTextOr

; 33   : 		CDrawer::DrawTextOut(pDC, textPosPt, data, textColor);

  00664	ff 75 88	 push	 DWORD PTR _textColor$1$[ebp]
  00667	8b 8d 70 ff ff
	ff		 mov	 ecx, DWORD PTR tv907[ebp]
  0066d	8d 45 94	 lea	 eax, DWORD PTR _strData$33[ebp]
  00670	50		 push	 eax
  00671	8d 85 5c ff ff
	ff		 lea	 eax, DWORD PTR _textPosPt$28[ebp]
  00677	50		 push	 eax
  00678	56		 push	 esi
  00679	e8 00 00 00 00	 call	 ?DrawTextOut@CDrawer@@IAEXPAVCDC@@ABVCPoint@@ABV?$CStringT@DV?$StrTraitMFC_DLL@DV?$ChTraitsCRT@D@ATL@@@@@ATL@@K@Z ; CDrawer::DrawTextOut
  0067e	8b 8d 5c ff ff
	ff		 mov	 ecx, DWORD PTR _textPosPt$28[ebp]
$LN107@DrawTextOr:

; 34   : 	textEndPos = textPosPt.x + textSize.cx + MARGIN;

  00684	8b 45 8c	 mov	 eax, DWORD PTR $T31[ebp]
  00687	8b bd 6c ff ff
	ff		 mov	 edi, DWORD PTR _drawingHorzScaleData$GSCopy$1$[ebp]
  0068d	83 c0 04	 add	 eax, 4
  00690	03 c1		 add	 eax, ecx
  00692	89 45 8c	 mov	 DWORD PTR _pre_textEndPos$[ebp], eax
$LN10@DrawTextOr:

; 201  : 					(horzScale.GetHorzScalePosition() == CScaleBaseData::HORZ_TOP ? true: false), 
; 202  : 					strData, pDC->GetTextExtent(strData), drawingHorzScaleData.GetScaleColor().GetScaleTextColor(), 
; 203  : 					drawingHorzScaleData.GetCompartLineColor(), pre_textEndPos);
; 204  : 		}
; 205  : 		CHorzScaleDrawer::DrawGrid(pDC, drawingHorzScaleData, horzScale.GetGridType(), posPt.x);

  00695	8b 4d 80	 mov	 ecx, DWORD PTR _horzScale$GSCopy$1$[ebp]
  00698	6a 01		 push	 1
  0069a	ff b5 78 ff ff
	ff		 push	 DWORD PTR _posPt$1$[ebp]
  006a0	e8 00 00 00 00	 call	 ?GetGridType@CScale@@QBE?AW4SCALEGRIDTYPE@CScaleBaseData@@XZ ; CScale::GetGridType
  006a5	8b 4d 9c	 mov	 ecx, DWORD PTR _this$GSCopy$1$[ebp]
  006a8	50		 push	 eax
  006a9	57		 push	 edi
  006aa	56		 push	 esi
  006ab	e8 00 00 00 00	 call	 ?DrawGrid@CHorzScaleDrawer@@IAEXPAVCDC@@ABVCDrawingHorzScaleData@@W4SCALEGRIDTYPE@CScaleBaseData@@HH@Z ; CHorzScaleDrawer::DrawGrid

; 206  : 		nCount++;		

  006b0	ff 85 7c ff ff
	ff		 inc	 DWORD PTR _nCount$1$[ebp]

; 207  : 	}

  006b6	8d 4d 94	 lea	 ecx, DWORD PTR _strData$33[ebp]
  006b9	c6 45 fc 02	 mov	 BYTE PTR __$EHRec$[ebp+8], 2
  006bd	ff 15 00 00 00
	00		 call	 DWORD PTR __imp_??1?$CStringT@DV?$StrTraitMFC_DLL@DV?$ChTraitsCRT@D@ATL@@@@@ATL@@QAE@XZ
  006c3	8b 85 78 ff ff
	ff		 mov	 eax, DWORD PTR _posPt$1$[ebp]
  006c9	3b 45 e8	 cmp	 eax, DWORD PTR _realScaleRegion$[ebp+8]
  006cc	8b 85 7c ff ff
	ff		 mov	 eax, DWORD PTR _nCount$1$[ebp]
  006d2	0f 8c 8c fc ff
	ff		 jl	 $LL2@DrawTextOr
$LN124@DrawTextOr:

; 208  : 
; 209  : 	if(pOldFont != NULL){

  006d8	8b 4d 90	 mov	 ecx, DWORD PTR _pOldFont$1$[ebp]
  006db	85 c9		 test	 ecx, ecx
  006dd	74 13		 je	 SHORT $LN11@DrawTextOr

; 210  : 		pDC->SelectObject(pOldFont);

  006df	8b 06		 mov	 eax, DWORD PTR [esi]
  006e1	51		 push	 ecx
  006e2	8b ce		 mov	 ecx, esi
  006e4	ff 50 30	 call	 DWORD PTR [eax+48]

; 211  : 		scaleFont.DeleteObject();

  006e7	8d 8d 64 ff ff
	ff		 lea	 ecx, DWORD PTR _scaleFont$[ebp]
  006ed	e8 00 00 00 00	 call	 ?DeleteObject@CGdiObject@@QAEHXZ ; CGdiObject::DeleteObject
$LN11@DrawTextOr:
; File C:\Program Files (x86)\Microsoft Visual Studio\2019\Community\VC\Tools\MSVC\14.29.30133\atlmfc\include\afxwin1.inl

; 155  : 	{ }

  006f2	8d 8d 64 ff ff
	ff		 lea	 ecx, DWORD PTR _scaleFont$[ebp]
  006f8	c7 85 64 ff ff
	ff 00 00 00 00	 mov	 DWORD PTR _scaleFont$[ebp], OFFSET ??_7CFont@@6B@
  00702	e8 00 00 00 00	 call	 ??1CGdiObject@@UAE@XZ	; CGdiObject::~CGdiObject
; File D:\git\src\IBK\IBK_DRFN\ProjSrc\SrcChartEx\ChartOCX\ScaleDraw\DataHorzScaleDrawer.cpp

; 213  : }

  00707	8d 8d 4c ff ff
	ff		 lea	 ecx, DWORD PTR _dataType$[ebp]
  0070d	ff 15 00 00 00
	00		 call	 DWORD PTR __imp_??1?$CStringT@DV?$StrTraitMFC_DLL@DV?$ChTraitsCRT@D@ATL@@@@@ATL@@QAE@XZ
  00713	8b 4d f4	 mov	 ecx, DWORD PTR __$EHRec$[ebp]
  00716	64 89 0d 00 00
	00 00		 mov	 DWORD PTR fs:0, ecx
  0071d	59		 pop	 ecx
  0071e	5f		 pop	 edi
  0071f	5e		 pop	 esi
  00720	8b 4d f0	 mov	 ecx, DWORD PTR __$ArrayPad$[ebp]
  00723	33 cd		 xor	 ecx, ebp
  00725	e8 00 00 00 00	 call	 @__security_check_cookie@4
  0072a	8b e5		 mov	 esp, ebp
  0072c	5d		 pop	 ebp
  0072d	c2 10 00	 ret	 16			; 00000010H
_TEXT	ENDS
;	COMDAT text$x
text$x	SEGMENT
__unwindfunclet$?DrawTextOrGrid@CEtcDataHorzScaleDrawer@@UAEXPAVCDC@@ABVCDrawingHorzScaleData@@ABVCRect@@ABVCHorizontalScale@@@Z$0:
  00000	8d 8d 4c ff ff
	ff		 lea	 ecx, DWORD PTR _dataType$[ebp]
  00006	ff 25 00 00 00
	00		 jmp	 DWORD PTR __imp_??1?$CStringT@DV?$StrTraitMFC_DLL@DV?$ChTraitsCRT@D@ATL@@@@@ATL@@QAE@XZ
__unwindfunclet$?DrawTextOrGrid@CEtcDataHorzScaleDrawer@@UAEXPAVCDC@@ABVCDrawingHorzScaleData@@ABVCRect@@ABVCHorizontalScale@@@Z$1:
  0000c	8d 4d 90	 lea	 ecx, DWORD PTR $T32[ebp]
  0000f	ff 25 00 00 00
	00		 jmp	 DWORD PTR __imp_??1?$CStringT@DV?$StrTraitMFC_DLL@DV?$ChTraitsCRT@D@ATL@@@@@ATL@@QAE@XZ
__unwindfunclet$?DrawTextOrGrid@CEtcDataHorzScaleDrawer@@UAEXPAVCDC@@ABVCDrawingHorzScaleData@@ABVCRect@@ABVCHorizontalScale@@@Z$2:
  00015	8d 8d 64 ff ff
	ff		 lea	 ecx, DWORD PTR _scaleFont$[ebp]
  0001b	e9 00 00 00 00	 jmp	 ??1CFont@@UAE@XZ	; CFont::~CFont
__unwindfunclet$?DrawTextOrGrid@CEtcDataHorzScaleDrawer@@UAEXPAVCDC@@ABVCDrawingHorzScaleData@@ABVCRect@@ABVCHorizontalScale@@@Z$3:
  00020	8d 8d dc fe ff
	ff		 lea	 ecx, DWORD PTR $T13[ebp]
  00026	e9 00 00 00 00	 jmp	 ??1CScaleCompart@@QAE@XZ
__unwindfunclet$?DrawTextOrGrid@CEtcDataHorzScaleDrawer@@UAEXPAVCDC@@ABVCDrawingHorzScaleData@@ABVCRect@@ABVCHorizontalScale@@@Z$9:
  0002b	8d 4d 84	 lea	 ecx, DWORD PTR _font$30[ebp]
  0002e	e9 00 00 00 00	 jmp	 ??1CFont@@UAE@XZ	; CFont::~CFont
__unwindfunclet$?DrawTextOrGrid@CEtcDataHorzScaleDrawer@@UAEXPAVCDC@@ABVCDrawingHorzScaleData@@ABVCRect@@ABVCHorizontalScale@@@Z$4:
  00033	8d 8d 28 ff ff
	ff		 lea	 ecx, DWORD PTR $T23[ebp]
  00039	ff 25 00 00 00
	00		 jmp	 DWORD PTR __imp_??1?$CStringT@DV?$StrTraitMFC_DLL@DV?$ChTraitsCRT@D@ATL@@@@@ATL@@QAE@XZ
__unwindfunclet$?DrawTextOrGrid@CEtcDataHorzScaleDrawer@@UAEXPAVCDC@@ABVCDrawingHorzScaleData@@ABVCRect@@ABVCHorizontalScale@@@Z$5:
  0003f	8d 4d 94	 lea	 ecx, DWORD PTR _strData$33[ebp]
  00042	ff 25 00 00 00
	00		 jmp	 DWORD PTR __imp_??1?$CStringT@DV?$StrTraitMFC_DLL@DV?$ChTraitsCRT@D@ATL@@@@@ATL@@QAE@XZ
__unwindfunclet$?DrawTextOrGrid@CEtcDataHorzScaleDrawer@@UAEXPAVCDC@@ABVCDrawingHorzScaleData@@ABVCRect@@ABVCHorizontalScale@@@Z$6:
  00048	8d 8d b0 fe ff
	ff		 lea	 ecx, DWORD PTR $T6[ebp]
  0004e	e9 00 00 00 00	 jmp	 ??1CScaleCompart@@QAE@XZ
  00053	cc		 int	 3
  00054	cc		 int	 3
  00055	cc		 int	 3
  00056	cc		 int	 3
  00057	cc		 int	 3
__ehhandler$?DrawTextOrGrid@CEtcDataHorzScaleDrawer@@UAEXPAVCDC@@ABVCDrawingHorzScaleData@@ABVCRect@@ABVCHorizontalScale@@@Z:
  00058	90		 npad	 1
  00059	90		 npad	 1
  0005a	8b 54 24 08	 mov	 edx, DWORD PTR [esp+8]
  0005e	8d 42 0c	 lea	 eax, DWORD PTR [edx+12]
  00061	8b 8a 74 fe ff
	ff		 mov	 ecx, DWORD PTR [edx-396]
  00067	33 c8		 xor	 ecx, eax
  00069	e8 00 00 00 00	 call	 @__security_check_cookie@4
  0006e	8b 4a fc	 mov	 ecx, DWORD PTR [edx-4]
  00071	33 c8		 xor	 ecx, eax
  00073	e8 00 00 00 00	 call	 @__security_check_cookie@4
  00078	b8 00 00 00 00	 mov	 eax, OFFSET __ehfuncinfo$?DrawTextOrGrid@CEtcDataHorzScaleDrawer@@UAEXPAVCDC@@ABVCDrawingHorzScaleData@@ABVCRect@@ABVCHorizontalScale@@@Z
  0007d	e9 00 00 00 00	 jmp	 ___CxxFrameHandler3
text$x	ENDS
?DrawTextOrGrid@CEtcDataHorzScaleDrawer@@UAEXPAVCDC@@ABVCDrawingHorzScaleData@@ABVCRect@@ABVCHorizontalScale@@@Z ENDP ; CEtcDataHorzScaleDrawer::DrawTextOrGrid
; Function compile flags: /Ogtp
; File D:\git\src\IBK\IBK_DRFN\ProjSrc\SrcChartEx\ChartOCX\ScaleDraw\DataHorzScaleDrawer.cpp
;	COMDAT ??0CEtcDataHorzScaleDrawer@@QAE@PAUHWND__@@W4CHART_MODE@CChartInfo@@@Z
_TEXT	SEGMENT
_p_hOcxWnd$ = 8						; size = 4
_p_eChartMode$ = 12					; size = 4
??0CEtcDataHorzScaleDrawer@@QAE@PAUHWND__@@W4CHART_MODE@CChartInfo@@@Z PROC ; CEtcDataHorzScaleDrawer::CEtcDataHorzScaleDrawer, COMDAT
; _this$ = ecx

; 138  : {

  00000	55		 push	 ebp
  00001	8b ec		 mov	 ebp, esp
  00003	56		 push	 esi

; 19   : 	: CHorzScaleDrawer( p_hOcxWnd, p_eChartMode)

  00004	ff 75 0c	 push	 DWORD PTR _p_eChartMode$[ebp]

; 138  : {

  00007	8b f1		 mov	 esi, ecx

; 19   : 	: CHorzScaleDrawer( p_hOcxWnd, p_eChartMode)

  00009	ff 75 08	 push	 DWORD PTR _p_hOcxWnd$[ebp]
  0000c	e8 00 00 00 00	 call	 ??0CHorzScaleDrawer@@QAE@PAUHWND__@@W4CHART_MODE@CChartInfo@@@Z ; CHorzScaleDrawer::CHorzScaleDrawer

; 138  : {

  00011	c7 06 00 00 00
	00		 mov	 DWORD PTR [esi], OFFSET ??_7CEtcDataHorzScaleDrawer@@6B@

; 139  : }

  00017	8b c6		 mov	 eax, esi
  00019	5e		 pop	 esi
  0001a	5d		 pop	 ebp
  0001b	c2 08 00	 ret	 8
??0CEtcDataHorzScaleDrawer@@QAE@PAUHWND__@@W4CHART_MODE@CChartInfo@@@Z ENDP ; CEtcDataHorzScaleDrawer::CEtcDataHorzScaleDrawer
_TEXT	ENDS
; Function compile flags: /Ogtp
; File D:\git\src\IBK\IBK_DRFN\ProjSrc\SrcChartEx\ChartOCX\ScaleDraw\DataHorzScaleDrawer.cpp
;	COMDAT ?DrawGrid@CPriceZoneHorzScaleDrawer@@UAEXPAVCDC@@ABVCDrawingHorzScaleData@@ABVCHorizontalScale@@@Z
_TEXT	SEGMENT
_pDC$ = 8						; size = 4
_drawingHorzScaleData$ = 12				; size = 4
_horzScale$ = 16					; size = 4
?DrawGrid@CPriceZoneHorzScaleDrawer@@UAEXPAVCDC@@ABVCDrawingHorzScaleData@@ABVCHorizontalScale@@@Z PROC ; CPriceZoneHorzScaleDrawer::DrawGrid, COMDAT
; _this$ = ecx

; 127  : 
; 128  : }

  00000	c2 0c 00	 ret	 12			; 0000000cH
?DrawGrid@CPriceZoneHorzScaleDrawer@@UAEXPAVCDC@@ABVCDrawingHorzScaleData@@ABVCHorizontalScale@@@Z ENDP ; CPriceZoneHorzScaleDrawer::DrawGrid
_TEXT	ENDS
; Function compile flags: /Ogtp
; File D:\git\src\IBK\IBK_DRFN\ProjSrc\SrcChartEx\ChartOCX\ScaleDraw\DataHorzScaleDrawer.cpp
;	COMDAT ?DrawTextOrGrid_Both@CPriceZoneHorzScaleDrawer@@UAEXPAVCDC@@ABVCDrawingHorzScaleData@@ABVCHorzScaleRegion@@ABVCHorizontalScale@@@Z
_TEXT	SEGMENT
_pDC$ = 8						; size = 4
_drawingHorzScaleData$ = 12				; size = 4
_horzScaleRegion$ = 16					; size = 4
_horzScale$ = 20					; size = 4
?DrawTextOrGrid_Both@CPriceZoneHorzScaleDrawer@@UAEXPAVCDC@@ABVCDrawingHorzScaleData@@ABVCHorzScaleRegion@@ABVCHorizontalScale@@@Z PROC ; CPriceZoneHorzScaleDrawer::DrawTextOrGrid_Both, COMDAT
; _this$ = ecx

; 123  : }

  00000	c2 10 00	 ret	 16			; 00000010H
?DrawTextOrGrid_Both@CPriceZoneHorzScaleDrawer@@UAEXPAVCDC@@ABVCDrawingHorzScaleData@@ABVCHorzScaleRegion@@ABVCHorizontalScale@@@Z ENDP ; CPriceZoneHorzScaleDrawer::DrawTextOrGrid_Both
_TEXT	ENDS
; Function compile flags: /Ogtp
; File D:\git\src\IBK\IBK_DRFN\ProjSrc\SrcChartEx\ChartOCX\ScaleDraw\DataHorzScaleDrawer.cpp
; File C:\Program Files (x86)\Microsoft Visual Studio\2019\Community\VC\Tools\MSVC\14.29.30133\atlmfc\include\atltypes.h
; File D:\git\src\IBK\IBK_DRFN\ProjSrc\SrcChartEx\ChartOCX\ScaleDraw\DataHorzScaleDrawer.cpp
; File C:\Program Files (x86)\Microsoft Visual Studio\2019\Community\VC\Tools\MSVC\14.29.30133\atlmfc\include\afxtempl.h
; File D:\git\src\IBK\IBK_DRFN\ProjSrc\SrcChartEx\ChartOCX\ScaleDraw\DataHorzScaleDrawer.cpp
; File C:\Program Files (x86)\Microsoft Visual Studio\2019\Community\VC\Tools\MSVC\14.29.30133\atlmfc\include\afxtempl.h
; File D:\git\src\IBK\IBK_DRFN\ProjSrc\SrcChartEx\ChartOCX\ScaleDraw\DataHorzScaleDrawer.cpp
; File C:\Program Files (x86)\Microsoft Visual Studio\2019\Community\VC\Tools\MSVC\14.29.30133\atlmfc\include\afxtempl.h
; File D:\git\src\IBK\IBK_DRFN\ProjSrc\SrcChartEx\ChartOCX\ScaleDraw\DataHorzScaleDrawer.cpp
; File D:\git\src\IBK\IBK_DRFN\ProjSrc\SrcChartEx\ChartOCX\Include_Chart\Conversion.h
; File D:\git\src\IBK\IBK_DRFN\ProjSrc\SrcChartEx\ChartOCX\ScaleDraw\DataHorzScaleDrawer.cpp
; File C:\Program Files (x86)\Microsoft Visual Studio\2019\Community\VC\Tools\MSVC\14.29.30133\atlmfc\include\atltypes.h
; File D:\git\src\IBK\IBK_DRFN\ProjSrc\SrcChartEx\ChartOCX\ScaleDraw\DataHorzScaleDrawer.cpp
; File C:\Program Files (x86)\Microsoft Visual Studio\2019\Community\VC\Tools\MSVC\14.29.30133\atlmfc\include\atltypes.h
; File D:\git\src\IBK\IBK_DRFN\ProjSrc\SrcChartEx\ChartOCX\ScaleDraw\DataHorzScaleDrawer.cpp
; File C:\Program Files (x86)\Microsoft Visual Studio\2019\Community\VC\Tools\MSVC\14.29.30133\atlmfc\include\atlsimpstr.h
; File C:\Program Files (x86)\Microsoft Visual Studio\2019\Community\VC\Tools\MSVC\14.29.30133\atlmfc\include\afxwin1.inl
; File D:\git\src\IBK\IBK_DRFN\ProjSrc\SrcChartEx\ChartOCX\ScaleDraw\DataHorzScaleDrawer.cpp
; File C:\Program Files (x86)\Microsoft Visual Studio\2019\Community\VC\Tools\MSVC\14.29.30133\atlmfc\include\atlsimpstr.h
; File C:\Program Files (x86)\Microsoft Visual Studio\2019\Community\VC\Tools\MSVC\14.29.30133\atlmfc\include\afxwin1.inl
; File C:\Program Files (x86)\Microsoft Visual Studio\2019\Community\VC\Tools\MSVC\14.29.30133\atlmfc\include\atltypes.h
; File D:\git\src\IBK\IBK_DRFN\ProjSrc\SrcChartEx\ChartOCX\ScaleDraw\DataHorzScaleDrawer.cpp
; File C:\Program Files (x86)\Microsoft Visual Studio\2019\Community\VC\Tools\MSVC\14.29.30133\atlmfc\include\atltypes.h
; File D:\git\src\IBK\IBK_DRFN\ProjSrc\SrcChartEx\ChartOCX\ScaleDraw\DataHorzScaleDrawer.cpp
; File C:\Program Files (x86)\Microsoft Visual Studio\2019\Community\VC\Tools\MSVC\14.29.30133\atlmfc\include\atltypes.h
; File D:\git\src\IBK\IBK_DRFN\ProjSrc\SrcChartEx\ChartOCX\ScaleDraw\DataHorzScaleDrawer.cpp
;	COMDAT ?DrawTextOrGrid@CPriceZoneHorzScaleDrawer@@UAEXPAVCDC@@ABVCDrawingHorzScaleData@@ABVCRect@@ABVCHorizontalScale@@@Z
_TEXT	SEGMENT
$T2 = -240						; size = 16
$T3 = -224						; size = 16
$T4 = -208						; size = 16
$T5 = -204						; size = 12
$T6 = -192						; size = 8
$T7 = -184						; size = 8
$T8 = -176						; size = 8
_size$9 = -168						; size = 8
$T10 = -168						; size = 8
$T11 = -160						; size = 8
$T12 = -160						; size = 8
_dData$13 = -152					; size = 8
$T14 = -144						; size = 8
_dOnePtWidth$ = -136					; size = 8
_textPosPt$15 = -128					; size = 8
_pos$1$ = -120						; size = 4
_textColor$1$ = -116					; size = 4
_textPosPt$1$ = -112					; size = 4
_bIsTopPos$ = -108					; size = 1
$T16 = -104						; size = 4
_size$17 = -100						; size = 8
$T18 = -100						; size = 8
_posPt$19 = -92						; size = 8
$T20 = -84						; size = 8
_strDataType$ = -76					; size = 4
_horzScale$GSCopy$1$ = -72				; size = 4
tv648 = -68						; size = 4
_nPosPt_y$ = -64					; size = 4
_scaleRegion$GSCopy$1$ = -60				; size = 4
_pDC$GSCopy$1$ = -56					; size = 4
_drawingHorzScaleData$GSCopy$1$ = -52			; size = 4
_this$GSCopy$1$ = -48					; size = 4
_nCount$1$ = -44					; size = 4
_pPacket$1$ = -44					; size = 4
$T21 = -40						; size = 4
_nPre_textEndPos$1$ = -40				; size = 4
$T22 = -40						; size = 4
_pDataList$1$ = -36					; size = 4
_strData$23 = -36					; size = 4
_realScaleRegion$ = -32					; size = 16
__$ArrayPad$ = -16					; size = 4
__$EHRec$ = -12						; size = 12
_pDC$ = 8						; size = 4
_drawingHorzScaleData$ = 12				; size = 4
_scaleRegion$ = 16					; size = 4
_horzScale$ = 20					; size = 4
?DrawTextOrGrid@CPriceZoneHorzScaleDrawer@@UAEXPAVCDC@@ABVCDrawingHorzScaleData@@ABVCRect@@ABVCHorizontalScale@@@Z PROC ; CPriceZoneHorzScaleDrawer::DrawTextOrGrid, COMDAT
; _this$ = ecx

; 75   : {

  00000	55		 push	 ebp
  00001	8b ec		 mov	 ebp, esp
  00003	6a ff		 push	 -1
  00005	68 00 00 00 00	 push	 __ehhandler$?DrawTextOrGrid@CPriceZoneHorzScaleDrawer@@UAEXPAVCDC@@ABVCDrawingHorzScaleData@@ABVCRect@@ABVCHorizontalScale@@@Z
  0000a	64 a1 00 00 00
	00		 mov	 eax, DWORD PTR fs:0
  00010	50		 push	 eax
  00011	81 ec e4 00 00
	00		 sub	 esp, 228		; 000000e4H
  00017	a1 00 00 00 00	 mov	 eax, DWORD PTR ___security_cookie
  0001c	33 c5		 xor	 eax, ebp
  0001e	89 45 f0	 mov	 DWORD PTR __$ArrayPad$[ebp], eax
  00021	56		 push	 esi
  00022	57		 push	 edi
  00023	50		 push	 eax
  00024	8d 45 f4	 lea	 eax, DWORD PTR __$EHRec$[ebp]
  00027	64 a3 00 00 00
	00		 mov	 DWORD PTR fs:0, eax
  0002d	89 4d d0	 mov	 DWORD PTR _this$GSCopy$1$[ebp], ecx
  00030	8b 45 10	 mov	 eax, DWORD PTR _scaleRegion$[ebp]
  00033	8b 7d 0c	 mov	 edi, DWORD PTR _drawingHorzScaleData$[ebp]

; 76   : 	CPacket* pPacket = drawingHorzScaleData.GetPacket();

  00036	8b cf		 mov	 ecx, edi
  00038	8b 75 08	 mov	 esi, DWORD PTR _pDC$[ebp]
  0003b	89 45 c4	 mov	 DWORD PTR _scaleRegion$GSCopy$1$[ebp], eax
  0003e	8b 45 14	 mov	 eax, DWORD PTR _horzScale$[ebp]
  00041	89 75 c8	 mov	 DWORD PTR _pDC$GSCopy$1$[ebp], esi
  00044	89 7d cc	 mov	 DWORD PTR _drawingHorzScaleData$GSCopy$1$[ebp], edi
  00047	89 45 b8	 mov	 DWORD PTR _horzScale$GSCopy$1$[ebp], eax
  0004a	e8 00 00 00 00	 call	 ?GetPacket@CDrawingHorzScaleData@@QBEPAVCPacket@@XZ ; CDrawingHorzScaleData::GetPacket
  0004f	89 45 d4	 mov	 DWORD PTR _pPacket$1$[ebp], eax

; 77   : 	if(pPacket == NULL || pPacket->GetCount() <= 0)

  00052	85 c0		 test	 eax, eax
  00054	0f 84 c3 03 00
	00		 je	 $LN7@DrawTextOr
  0005a	8b 10		 mov	 edx, DWORD PTR [eax]
  0005c	8b c8		 mov	 ecx, eax
  0005e	8b 52 14	 mov	 edx, DWORD PTR [edx+20]
  00061	ff d2		 call	 edx
  00063	85 c0		 test	 eax, eax
  00065	0f 8e b2 03 00
	00		 jle	 $LN7@DrawTextOr

; 78   : 		return;
; 79   : 
; 80   : 	CList<double, double>* pDataList = pPacket->GetnumericDataList();

  0006b	8b 4d d4	 mov	 ecx, DWORD PTR _pPacket$1$[ebp]
  0006e	ff 15 00 00 00
	00		 call	 DWORD PTR __imp_?GetnumericDataList@CPacket@@QAEPAV?$CList@NN@@XZ
  00074	89 45 dc	 mov	 DWORD PTR _pDataList$1$[ebp], eax

; 81   : 	if(pDataList == NULL || pDataList->GetCount() <= 0)

  00077	85 c0		 test	 eax, eax
  00079	0f 84 9e 03 00
	00		 je	 $LN7@DrawTextOr
  0007f	83 78 0c 00	 cmp	 DWORD PTR [eax+12], 0
  00083	0f 8e 94 03 00
	00		 jle	 $LN7@DrawTextOr

; 82   : 		return;
; 83   : 
; 84   : 	//    data .	
; 85   : 	CString strDataType = CDrawer::GetPacketDataType(pPacket);

  00089	ff 75 d4	 push	 DWORD PTR _pPacket$1$[ebp]
  0008c	8b 45 d0	 mov	 eax, DWORD PTR _this$GSCopy$1$[ebp]
  0008f	8d 4d b4	 lea	 ecx, DWORD PTR _strDataType$[ebp]
  00092	83 c0 04	 add	 eax, 4
  00095	51		 push	 ecx
  00096	8b c8		 mov	 ecx, eax
  00098	89 45 bc	 mov	 DWORD PTR tv648[ebp], eax
  0009b	e8 00 00 00 00	 call	 ?GetPacketDataType@CDrawer@@IBE?AV?$CStringT@DV?$StrTraitMFC_DLL@DV?$ChTraitsCRT@D@ATL@@@@@ATL@@PAVCPacket@@@Z ; CDrawer::GetPacketDataType

; 86   : 	double dOnePtWidth = 0.0;
; 87   : 	int nPosPt_y = 0;	
; 88   : 	// (2007/10/10 - Seung-Won, Bae) Check Floating Overflow.
; 89   : 	CHorzScaleDrawer::GetDrawingEnvironment(scaleRegion, drawingHorzScaleData.GetDisplayAttributes(), 

  000a0	8d 85 30 ff ff
	ff		 lea	 eax, DWORD PTR $T4[ebp]
  000a6	c7 45 fc 00 00
	00 00		 mov	 DWORD PTR __$EHRec$[ebp+8], 0
  000ad	0f 57 c0	 xorps	 xmm0, xmm0
  000b0	c7 45 c0 00 00
	00 00		 mov	 DWORD PTR _nPosPt_y$[ebp], 0
  000b7	50		 push	 eax
  000b8	8b cf		 mov	 ecx, edi
  000ba	f2 0f 11 85 78
	ff ff ff	 movsd	 QWORD PTR _dOnePtWidth$[ebp], xmm0
  000c2	e8 00 00 00 00	 call	 ?GetDisplayDataMinMax@CDrawingHorzScaleData@@QBE?AVCDisplayDataMinMax@@XZ ; CDrawingHorzScaleData::GetDisplayDataMinMax
  000c7	8b c8		 mov	 ecx, eax
  000c9	e8 00 00 00 00	 call	 ?GetDisplayMax@CDisplayDataMinMax@@QBENXZ ; CDisplayDataMinMax::GetDisplayMax
  000ce	8d 45 9c	 lea	 eax, DWORD PTR $T18[ebp]
  000d1	50		 push	 eax
  000d2	8d 45 d8	 lea	 eax, DWORD PTR $T22[ebp]
  000d5	50		 push	 eax
  000d6	dd 5d 9c	 fstp	 QWORD PTR $T18[ebp]
  000d9	e8 00 00 00 00	 call	 ?DoubleToString@CDataConversion@@SA?AV?$CStringT@DV?$StrTraitMFC_DLL@DV?$ChTraitsCRT@D@ATL@@@@@ATL@@ABN@Z ; CDataConversion::DoubleToString
  000de	83 c4 08	 add	 esp, 8
  000e1	8d 4d c0	 lea	 ecx, DWORD PTR _nPosPt_y$[ebp]
  000e4	c6 45 fc 01	 mov	 BYTE PTR __$EHRec$[ebp+8], 1
  000e8	51		 push	 ecx
  000e9	8d 8d 78 ff ff
	ff		 lea	 ecx, DWORD PTR _dOnePtWidth$[ebp]
  000ef	51		 push	 ecx
  000f0	50		 push	 eax
  000f1	8d 85 58 ff ff
	ff		 lea	 eax, DWORD PTR $T10[ebp]
  000f7	8b ce		 mov	 ecx, esi
  000f9	50		 push	 eax
  000fa	e8 00 00 00 00	 call	 ?GetTextExtent@CDC@@QBE?AVCSize@@ABV?$CStringT@DV?$StrTraitMFC_DLL@DV?$ChTraitsCRT@D@ATL@@@@@ATL@@@Z ; CDC::GetTextExtent
  000ff	8b cf		 mov	 ecx, edi
  00101	8b 40 04	 mov	 eax, DWORD PTR [eax+4]
  00104	50		 push	 eax
  00105	8d 85 60 ff ff
	ff		 lea	 eax, DWORD PTR $T12[ebp]
  0010b	50		 push	 eax
  0010c	e8 00 00 00 00	 call	 ?GetDisplayAttributes@CDrawingHorzScaleData@@QBE?AVCDisplayAttributes@@XZ ; CDrawingHorzScaleData::GetDisplayAttributes
  00111	8b 4d d0	 mov	 ecx, DWORD PTR _this$GSCopy$1$[ebp]
  00114	50		 push	 eax
  00115	ff 75 c4	 push	 DWORD PTR _scaleRegion$GSCopy$1$[ebp]
  00118	e8 00 00 00 00	 call	 ?GetDrawingEnvironment@CHorzScaleDrawer@@IBEXABVCRect@@ABVCDisplayAttributes@@HAANAAH@Z ; CHorzScaleDrawer::GetDrawingEnvironment
  0011d	8d 4d d8	 lea	 ecx, DWORD PTR $T22[ebp]
  00120	c6 45 fc 00	 mov	 BYTE PTR __$EHRec$[ebp+8], 0
  00124	ff 15 00 00 00
	00		 call	 DWORD PTR __imp_??1?$CStringT@DV?$StrTraitMFC_DLL@DV?$ChTraitsCRT@D@ATL@@@@@ATL@@QAE@XZ

; 90   : 		pDC->GetTextExtent(CDataConversion::DoubleToString( drawingHorzScaleData.GetDisplayDataMinMax().GetDisplayMax())).cy, dOnePtWidth, nPosPt_y);
; 91   : 
; 92   : 	CRect realScaleRegion = scaleRegion;

  0012a	8b 45 c4	 mov	 eax, DWORD PTR _scaleRegion$GSCopy$1$[ebp]

; 93   : 	realScaleRegion.DeflateRect(CMath::Round(dOnePtWidth/2.0), 0);

  0012d	83 ec 08	 sub	 esp, 8
  00130	0f 10 00	 movups	 xmm0, XMMWORD PTR [eax]
  00133	0f 11 45 e0	 movups	 XMMWORD PTR _realScaleRegion$[ebp], xmm0
  00137	f2 0f 10 85 78
	ff ff ff	 movsd	 xmm0, QWORD PTR _dOnePtWidth$[ebp]
  0013f	f2 0f 59 05 00
	00 00 00	 mulsd	 xmm0, QWORD PTR __real@3fe0000000000000
  00147	f2 0f 11 04 24	 movsd	 QWORD PTR [esp], xmm0
  0014c	e8 00 00 00 00	 call	 ?Round@CMath@@SAHN@Z	; CMath::Round
  00151	83 c4 08	 add	 esp, 8
; File C:\Program Files (x86)\Microsoft Visual Studio\2019\Community\VC\Tools\MSVC\14.29.30133\atlmfc\include\atltypes.h

; 698  : 	::InflateRect(this, -x, -y);

  00154	f7 d8		 neg	 eax
  00156	6a 00		 push	 0
  00158	50		 push	 eax
  00159	8d 45 e0	 lea	 eax, DWORD PTR _realScaleRegion$[ebp]
  0015c	50		 push	 eax
  0015d	ff 15 00 00 00
	00		 call	 DWORD PTR __imp__InflateRect@12
; File D:\git\src\IBK\IBK_DRFN\ProjSrc\SrcChartEx\ChartOCX\ScaleDraw\DataHorzScaleDrawer.cpp

; 96   : 	POSITION pos = pDataList->FindIndex(drawingHorzScaleData.GetDisplayAttributes().GetDataStartInBlock());

  00163	8d 85 40 ff ff
	ff		 lea	 eax, DWORD PTR $T6[ebp]
  00169	c7 45 d4 00 00
	00 00		 mov	 DWORD PTR _nCount$1$[ebp], 0
  00170	50		 push	 eax
  00171	8b cf		 mov	 ecx, edi
  00173	c7 45 d8 00 00
	00 00		 mov	 DWORD PTR _nPre_textEndPos$1$[ebp], 0
  0017a	e8 00 00 00 00	 call	 ?GetDisplayAttributes@CDrawingHorzScaleData@@QBE?AVCDisplayAttributes@@XZ ; CDrawingHorzScaleData::GetDisplayAttributes
  0017f	8b c8		 mov	 ecx, eax
  00181	e8 00 00 00 00	 call	 ?GetDataStartInBlock@CDisplayAttributes@@QBEHXZ ; CDisplayAttributes::GetDataStartInBlock
; File C:\Program Files (x86)\Microsoft Visual Studio\2019\Community\VC\Tools\MSVC\14.29.30133\atlmfc\include\afxtempl.h

; 1133 : 	if (nIndex >= m_nCount || nIndex < 0)

  00186	8b 4d dc	 mov	 ecx, DWORD PTR _pDataList$1$[ebp]
  00189	3b 41 0c	 cmp	 eax, DWORD PTR [ecx+12]
  0018c	0f 8d 82 02 00
	00		 jge	 $LN3@DrawTextOr
  00192	85 c0		 test	 eax, eax
  00194	0f 88 7a 02 00
	00		 js	 $LN3@DrawTextOr

; 1134 : 		return NULL;  // went too far
; 1135 : 
; 1136 : 	CNode* pNode = m_pNodeHead;

  0019a	8b 49 04	 mov	 ecx, DWORD PTR [ecx+4]

; 1137 : 	while (nIndex--)

  0019d	74 08		 je	 SHORT $LN70@DrawTextOr
  0019f	90		 npad	 1
$LL18@DrawTextOr:

; 1138 : 	{
; 1139 : 		ASSERT(AfxIsValidAddress(pNode, sizeof(CNode)));
; 1140 : 		pNode = pNode->pNext;

  001a0	8b 09		 mov	 ecx, DWORD PTR [ecx]
  001a2	83 e8 01	 sub	 eax, 1
  001a5	75 f9		 jne	 SHORT $LL18@DrawTextOr
$LN70@DrawTextOr:
; File D:\git\src\IBK\IBK_DRFN\ProjSrc\SrcChartEx\ChartOCX\ScaleDraw\DataHorzScaleDrawer.cpp

; 97   : 	while(pos != NULL){

  001a7	85 c9		 test	 ecx, ecx
  001a9	0f 84 65 02 00
	00		 je	 $LN3@DrawTextOr
  001af	90		 npad	 1
$LL2@DrawTextOr:

; 98   : 		double dData = pDataList->GetNext(pos);

  001b0	f2 0f 10 41 08	 movsd	 xmm0, QWORD PTR [ecx+8]
; File C:\Program Files (x86)\Microsoft Visual Studio\2019\Community\VC\Tools\MSVC\14.29.30133\atlmfc\include\afxtempl.h

; 811  : 	{ CNode* pNode = (CNode*) rPosition;

  001b5	8d 01		 lea	 eax, DWORD PTR [ecx]

; 813  : 		rPosition = (POSITION) pNode->pNext;

  001b7	8b 09		 mov	 ecx, DWORD PTR [ecx]
; File D:\git\src\IBK\IBK_DRFN\ProjSrc\SrcChartEx\ChartOCX\ScaleDraw\DataHorzScaleDrawer.cpp

; 99   : 		CString strData = CDataConversion( m_hOcxWnd, m_eChartMode).GetStringFormatTrans(CDataConversion::DoubleToString(dData), strDataType);

  001b9	8d 85 68 ff ff
	ff		 lea	 eax, DWORD PTR _dData$13[ebp]
  001bf	50		 push	 eax
  001c0	8d 45 98	 lea	 eax, DWORD PTR $T16[ebp]
; File C:\Program Files (x86)\Microsoft Visual Studio\2019\Community\VC\Tools\MSVC\14.29.30133\atlmfc\include\afxtempl.h

; 813  : 		rPosition = (POSITION) pNode->pNext;

  001c3	89 4d 88	 mov	 DWORD PTR _pos$1$[ebp], ecx
; File D:\git\src\IBK\IBK_DRFN\ProjSrc\SrcChartEx\ChartOCX\ScaleDraw\DataHorzScaleDrawer.cpp

; 99   : 		CString strData = CDataConversion( m_hOcxWnd, m_eChartMode).GetStringFormatTrans(CDataConversion::DoubleToString(dData), strDataType);

  001c6	50		 push	 eax
  001c7	f2 0f 11 85 68
	ff ff ff	 movsd	 QWORD PTR _dData$13[ebp], xmm0
  001cf	e8 00 00 00 00	 call	 ?DoubleToString@CDataConversion@@SA?AV?$CStringT@DV?$StrTraitMFC_DLL@DV?$ChTraitsCRT@D@ATL@@@@@ATL@@ABN@Z ; CDataConversion::DoubleToString
  001d4	83 c4 08	 add	 esp, 8
  001d7	8b 4d d0	 mov	 ecx, DWORD PTR _this$GSCopy$1$[ebp]
  001da	c6 45 fc 02	 mov	 BYTE PTR __$EHRec$[ebp+8], 2
  001de	8b 51 08	 mov	 edx, DWORD PTR [ecx+8]
; File D:\git\src\IBK\IBK_DRFN\ProjSrc\SrcChartEx\ChartOCX\Include_Chart\Conversion.h

; 27   : 		{	m_hOcxWnd = p_hOcxWnd;	m_eChartMode = p_eChartMode;	}

  001e1	8b 4d bc	 mov	 ecx, DWORD PTR tv648[ebp]
  001e4	89 95 74 ff ff
	ff		 mov	 DWORD PTR $T14[ebp+4], edx
  001ea	8b 09		 mov	 ecx, DWORD PTR [ecx]
  001ec	89 8d 70 ff ff
	ff		 mov	 DWORD PTR $T14[ebp], ecx
; File D:\git\src\IBK\IBK_DRFN\ProjSrc\SrcChartEx\ChartOCX\ScaleDraw\DataHorzScaleDrawer.cpp

; 99   : 		CString strData = CDataConversion( m_hOcxWnd, m_eChartMode).GetStringFormatTrans(CDataConversion::DoubleToString(dData), strDataType);

  001f2	8d 4d b4	 lea	 ecx, DWORD PTR _strDataType$[ebp]
  001f5	51		 push	 ecx
  001f6	50		 push	 eax
  001f7	8d 45 dc	 lea	 eax, DWORD PTR _strData$23[ebp]
  001fa	50		 push	 eax
  001fb	8d 8d 70 ff ff
	ff		 lea	 ecx, DWORD PTR $T14[ebp]
  00201	e8 00 00 00 00	 call	 ?GetStringFormatTrans@CDataConversion@@QAE?AV?$CStringT@DV?$StrTraitMFC_DLL@DV?$ChTraitsCRT@D@ATL@@@@@ATL@@ABV23@0@Z ; CDataConversion::GetStringFormatTrans
  00206	8d 4d 98	 lea	 ecx, DWORD PTR $T16[ebp]
  00209	c6 45 fc 04	 mov	 BYTE PTR __$EHRec$[ebp+8], 4
  0020d	ff 15 00 00 00
	00		 call	 DWORD PTR __imp_??1?$CStringT@DV?$StrTraitMFC_DLL@DV?$ChTraitsCRT@D@ATL@@@@@ATL@@QAE@XZ

; 100  : 		CPoint posPt = CDataConversion::GetHorizontalPoint(realScaleRegion, nCount, scaleRegion.Width(), 

  00213	8d 85 20 ff ff
	ff		 lea	 eax, DWORD PTR $T3[ebp]
  00219	8b cf		 mov	 ecx, edi
  0021b	50		 push	 eax
  0021c	e8 00 00 00 00	 call	 ?GetDisplayDataMinMax@CDrawingHorzScaleData@@QBE?AVCDisplayDataMinMax@@XZ ; CDrawingHorzScaleData::GetDisplayDataMinMax
  00221	8b c8		 mov	 ecx, eax
  00223	e8 00 00 00 00	 call	 ?GetDisplayMax@CDisplayDataMinMax@@QBENXZ ; CDisplayDataMinMax::GetDisplayMax
  00228	8d 85 10 ff ff
	ff		 lea	 eax, DWORD PTR $T2[ebp]
  0022e	8b cf		 mov	 ecx, edi
  00230	50		 push	 eax
  00231	dd 9d 50 ff ff
	ff		 fstp	 QWORD PTR $T8[ebp]
  00237	e8 00 00 00 00	 call	 ?GetDisplayDataMinMax@CDrawingHorzScaleData@@QBE?AVCDisplayDataMinMax@@XZ ; CDrawingHorzScaleData::GetDisplayDataMinMax
  0023c	8b c8		 mov	 ecx, eax
  0023e	e8 00 00 00 00	 call	 ?GetDisplayMin@CDisplayDataMinMax@@QBENXZ ; CDisplayDataMinMax::GetDisplayMin
; File C:\Program Files (x86)\Microsoft Visual Studio\2019\Community\VC\Tools\MSVC\14.29.30133\atlmfc\include\atltypes.h

; 576  : 	return right - left;

  00243	8b 7d c4	 mov	 edi, DWORD PTR _scaleRegion$GSCopy$1$[ebp]
; File D:\git\src\IBK\IBK_DRFN\ProjSrc\SrcChartEx\ChartOCX\ScaleDraw\DataHorzScaleDrawer.cpp

; 100  : 		CPoint posPt = CDataConversion::GetHorizontalPoint(realScaleRegion, nCount, scaleRegion.Width(), 

  00246	dd 9d 48 ff ff
	ff		 fstp	 QWORD PTR $T7[ebp]
; File C:\Program Files (x86)\Microsoft Visual Studio\2019\Community\VC\Tools\MSVC\14.29.30133\atlmfc\include\atltypes.h

; 576  : 	return right - left;

  0024c	8b 47 08	 mov	 eax, DWORD PTR [edi+8]
  0024f	2b 07		 sub	 eax, DWORD PTR [edi]
  00251	66 0f 6e c0	 movd	 xmm0, eax
; File D:\git\src\IBK\IBK_DRFN\ProjSrc\SrcChartEx\ChartOCX\ScaleDraw\DataHorzScaleDrawer.cpp

; 100  : 		CPoint posPt = CDataConversion::GetHorizontalPoint(realScaleRegion, nCount, scaleRegion.Width(), 

  00255	8d 85 68 ff ff
	ff		 lea	 eax, DWORD PTR _dData$13[ebp]
  0025b	50		 push	 eax
  0025c	8d 85 50 ff ff
	ff		 lea	 eax, DWORD PTR $T8[ebp]
  00262	50		 push	 eax
  00263	8d 85 48 ff ff
	ff		 lea	 eax, DWORD PTR $T7[ebp]
  00269	50		 push	 eax
  0026a	8d 85 60 ff ff
	ff		 lea	 eax, DWORD PTR $T11[ebp]
  00270	50		 push	 eax
  00271	ff 75 d4	 push	 DWORD PTR _nCount$1$[ebp]
  00274	f3 0f e6 c0	 cvtdq2pd xmm0, xmm0
  00278	8d 45 e0	 lea	 eax, DWORD PTR _realScaleRegion$[ebp]
  0027b	50		 push	 eax
  0027c	8d 45 a4	 lea	 eax, DWORD PTR _posPt$19[ebp]
  0027f	50		 push	 eax
  00280	f2 0f 11 85 60
	ff ff ff	 movsd	 QWORD PTR $T11[ebp], xmm0
  00288	e8 00 00 00 00	 call	 ?GetHorizontalPoint@CDataConversion@@SA?AVCPoint@@ABVCRect@@HABN111@Z ; CDataConversion::GetHorizontalPoint

; 101  : 			drawingHorzScaleData.GetDisplayDataMinMax().GetDisplayMin(),
; 102  : 			drawingHorzScaleData.GetDisplayDataMinMax().GetDisplayMax(), dData);
; 103  : 
; 104  : 		if(posPt.x >= scaleRegion.right)

  0028d	8b 45 a4	 mov	 eax, DWORD PTR _posPt$19[ebp]
  00290	83 c4 1c	 add	 esp, 28			; 0000001cH
  00293	3b 47 08	 cmp	 eax, DWORD PTR [edi+8]
  00296	0f 8d 6f 01 00
	00		 jge	 $LN69@DrawTextOr
; File C:\Program Files (x86)\Microsoft Visual Studio\2019\Community\VC\Tools\MSVC\14.29.30133\atlmfc\include\atlsimpstr.h

; 519  : 		return( GetData()->nDataLength );

  0029c	8b 45 dc	 mov	 eax, DWORD PTR _strData$23[ebp]
; File C:\Program Files (x86)\Microsoft Visual Studio\2019\Community\VC\Tools\MSVC\14.29.30133\atlmfc\include\afxwin1.inl

; 639  : 		VERIFY(::GetTextExtentPoint32(m_hAttribDC, str, (int)str.GetLength(), &size));

  0029f	8d 8d 58 ff ff
	ff		 lea	 ecx, DWORD PTR _size$9[ebp]
  002a5	51		 push	 ecx
  002a6	ff 70 f4	 push	 DWORD PTR [eax-12]
  002a9	50		 push	 eax
  002aa	ff 76 08	 push	 DWORD PTR [esi+8]
  002ad	ff 15 00 00 00
	00		 call	 DWORD PTR __imp__GetTextExtentPoint32A@16
; File D:\git\src\IBK\IBK_DRFN\ProjSrc\SrcChartEx\ChartOCX\ScaleDraw\DataHorzScaleDrawer.cpp

; 57   : 	int nMinNowPos_x = nPrevPos_x + MARGIN * 2;

  002b3	8b 7d d8	 mov	 edi, DWORD PTR _nPre_textEndPos$1$[ebp]

; 106  : 
; 107  : 		CSize textSize = pDC->GetTextExtent(strData);
; 108  : 		if(!CDataHorzScaleDrawer::IsOverlap(textSize.cx, posPt.x, nPre_textEndPos)){

  002b6	8b 75 a4	 mov	 esi, DWORD PTR _posPt$19[ebp]

; 57   : 	int nMinNowPos_x = nPrevPos_x + MARGIN * 2;

  002b9	83 c7 08	 add	 edi, 8
  002bc	3b fe		 cmp	 edi, esi

; 58   : 	if(nMinNowPos_x > nNowPos_x)

  002be	0f 8f 24 01 00
	00		 jg	 $LN78@DrawTextOr
  002c4	66 0f 6e 85 58
	ff ff ff	 movd	 xmm0, DWORD PTR _size$9[ebp]

; 48   : 		return(org_x - CMath::Round(textWidth / 2.0));

  002cc	83 ec 08	 sub	 esp, 8
  002cf	f3 0f e6 c0	 cvtdq2pd xmm0, xmm0
  002d3	f2 0f 59 05 00
	00 00 00	 mulsd	 xmm0, QWORD PTR __real@3fe0000000000000
  002db	f2 0f 11 04 24	 movsd	 QWORD PTR [esp], xmm0
  002e0	e8 00 00 00 00	 call	 ?Round@CMath@@SAHN@Z	; CMath::Round
  002e5	2b f0		 sub	 esi, eax
  002e7	83 c4 08	 add	 esp, 8

; 106  : 
; 107  : 		CSize textSize = pDC->GetTextExtent(strData);
; 108  : 		if(!CDataHorzScaleDrawer::IsOverlap(textSize.cx, posPt.x, nPre_textEndPos)){

  002ea	3b fe		 cmp	 edi, esi
  002ec	0f 8f f6 00 00
	00		 jg	 $LN78@DrawTextOr
; File C:\Program Files (x86)\Microsoft Visual Studio\2019\Community\VC\Tools\MSVC\14.29.30133\atlmfc\include\atlsimpstr.h

; 519  : 		return( GetData()->nDataLength );

  002f2	8b 45 dc	 mov	 eax, DWORD PTR _strData$23[ebp]
; File C:\Program Files (x86)\Microsoft Visual Studio\2019\Community\VC\Tools\MSVC\14.29.30133\atlmfc\include\afxwin1.inl

; 639  : 		VERIFY(::GetTextExtentPoint32(m_hAttribDC, str, (int)str.GetLength(), &size));

  002f5	8d 4d 9c	 lea	 ecx, DWORD PTR _size$17[ebp]
  002f8	51		 push	 ecx
  002f9	ff 70 f4	 push	 DWORD PTR [eax-12]
  002fc	50		 push	 eax
  002fd	8b 45 c8	 mov	 eax, DWORD PTR _pDC$GSCopy$1$[ebp]
  00300	ff 70 08	 push	 DWORD PTR [eax+8]
  00303	ff 15 00 00 00
	00		 call	 DWORD PTR __imp__GetTextExtentPoint32A@16
; File C:\Program Files (x86)\Microsoft Visual Studio\2019\Community\VC\Tools\MSVC\14.29.30133\atlmfc\include\atltypes.h

; 318  : 	*(SIZE*)this = initSize;

  00309	8b 45 9c	 mov	 eax, DWORD PTR _size$17[ebp]
; File D:\git\src\IBK\IBK_DRFN\ProjSrc\SrcChartEx\ChartOCX\ScaleDraw\DataHorzScaleDrawer.cpp

; 109  : 			CDataHorzScaleDrawer::DrawTextAndCompartLine(pDC, realScaleRegion, CPoint(posPt.x, nPosPt_y), dOnePtWidth,

  0030c	8b 4d cc	 mov	 ecx, DWORD PTR _drawingHorzScaleData$GSCopy$1$[ebp]
; File C:\Program Files (x86)\Microsoft Visual Studio\2019\Community\VC\Tools\MSVC\14.29.30133\atlmfc\include\atltypes.h

; 318  : 	*(SIZE*)this = initSize;

  0030f	8b 7d a0	 mov	 edi, DWORD PTR _size$17[ebp+4]
  00312	89 45 d8	 mov	 DWORD PTR $T21[ebp], eax

; 408  : 	x = initX;

  00315	8b 45 a4	 mov	 eax, DWORD PTR _posPt$19[ebp]
  00318	89 45 ac	 mov	 DWORD PTR $T20[ebp], eax

; 409  : 	y = initY;

  0031b	8b 45 c0	 mov	 eax, DWORD PTR _nPosPt_y$[ebp]
  0031e	89 45 b0	 mov	 DWORD PTR $T20[ebp+4], eax
; File D:\git\src\IBK\IBK_DRFN\ProjSrc\SrcChartEx\ChartOCX\ScaleDraw\DataHorzScaleDrawer.cpp

; 109  : 			CDataHorzScaleDrawer::DrawTextAndCompartLine(pDC, realScaleRegion, CPoint(posPt.x, nPosPt_y), dOnePtWidth,

  00321	e8 00 00 00 00	 call	 ?GetCompartLineColor@CDrawingHorzScaleData@@QBEKXZ ; CDrawingHorzScaleData::GetCompartLineColor
  00326	8b 4d cc	 mov	 ecx, DWORD PTR _drawingHorzScaleData$GSCopy$1$[ebp]
  00329	8b f0		 mov	 esi, eax
  0032b	8d 85 34 ff ff
	ff		 lea	 eax, DWORD PTR $T5[ebp]
  00331	50		 push	 eax
  00332	e8 00 00 00 00	 call	 ?GetScaleColor@CDrawingHorzScaleData@@QBE?AVCScaleColor@@XZ ; CDrawingHorzScaleData::GetScaleColor
  00337	8b c8		 mov	 ecx, eax
  00339	ff 15 00 00 00
	00		 call	 DWORD PTR __imp_?GetScaleTextColor@CScaleColor@@QAEAAKXZ
  0033f	8b 4d b8	 mov	 ecx, DWORD PTR _horzScale$GSCopy$1$[ebp]
  00342	8b 00		 mov	 eax, DWORD PTR [eax]
  00344	89 45 8c	 mov	 DWORD PTR _textColor$1$[ebp], eax
  00347	e8 00 00 00 00	 call	 ?GetHorzScalePosition@CHorizontalScale@@QBE?AW4HORZSCALEPOSITION@CScaleBaseData@@XZ ; CHorizontalScale::GetHorzScalePosition

; 28   : 	CHorzScaleDrawer::DrawTextCompartLine(pDC, scaleRegion, nowPos, bIsTopPos, gridColor);

  0034c	8b 4d d0	 mov	 ecx, DWORD PTR _this$GSCopy$1$[ebp]

; 109  : 			CDataHorzScaleDrawer::DrawTextAndCompartLine(pDC, realScaleRegion, CPoint(posPt.x, nPosPt_y), dOnePtWidth,

  0034f	85 c0		 test	 eax, eax

; 28   : 	CHorzScaleDrawer::DrawTextCompartLine(pDC, scaleRegion, nowPos, bIsTopPos, gridColor);

  00351	56		 push	 esi
  00352	8b 75 c8	 mov	 esi, DWORD PTR _pDC$GSCopy$1$[ebp]
  00355	8d 45 ac	 lea	 eax, DWORD PTR $T20[ebp]

; 109  : 			CDataHorzScaleDrawer::DrawTextAndCompartLine(pDC, realScaleRegion, CPoint(posPt.x, nPosPt_y), dOnePtWidth,

  00358	0f 94 45 94	 sete	 BYTE PTR _bIsTopPos$[ebp]

; 28   : 	CHorzScaleDrawer::DrawTextCompartLine(pDC, scaleRegion, nowPos, bIsTopPos, gridColor);

  0035c	ff 75 94	 push	 DWORD PTR _bIsTopPos$[ebp]
  0035f	50		 push	 eax
  00360	8d 45 e0	 lea	 eax, DWORD PTR _realScaleRegion$[ebp]
  00363	50		 push	 eax
  00364	56		 push	 esi
  00365	e8 00 00 00 00	 call	 ?DrawTextCompartLine@CHorzScaleDrawer@@IAEXPAVCDC@@ABVCRect@@ABVCPoint@@_NK@Z ; CHorzScaleDrawer::DrawTextCompartLine
  0036a	66 0f 6e 45 d8	 movd	 xmm0, DWORD PTR $T21[ebp]

; 48   : 		return(org_x - CMath::Round(textWidth / 2.0));

  0036f	83 ec 08	 sub	 esp, 8

; 31   : 	CPoint textPosPt(GetTextPosition_x(nowPos.x, textSize.cx, true), nowPos.y);

  00372	8b 45 ac	 mov	 eax, DWORD PTR $T20[ebp]

; 48   : 		return(org_x - CMath::Round(textWidth / 2.0));

  00375	f3 0f e6 c0	 cvtdq2pd xmm0, xmm0

; 31   : 	CPoint textPosPt(GetTextPosition_x(nowPos.x, textSize.cx, true), nowPos.y);

  00379	89 45 90	 mov	 DWORD PTR _textPosPt$1$[ebp], eax

; 48   : 		return(org_x - CMath::Round(textWidth / 2.0));

  0037c	f2 0f 59 05 00
	00 00 00	 mulsd	 xmm0, QWORD PTR __real@3fe0000000000000
  00384	f2 0f 11 04 24	 movsd	 QWORD PTR [esp], xmm0
  00389	e8 00 00 00 00	 call	 ?Round@CMath@@SAHN@Z	; CMath::Round
  0038e	8b 4d 90	 mov	 ecx, DWORD PTR _textPosPt$1$[ebp]
  00391	83 c4 08	 add	 esp, 8
  00394	2b c8		 sub	 ecx, eax
; File C:\Program Files (x86)\Microsoft Visual Studio\2019\Community\VC\Tools\MSVC\14.29.30133\atlmfc\include\atltypes.h

; 409  : 	y = initY;

  00396	8b 45 b0	 mov	 eax, DWORD PTR $T20[ebp+4]
  00399	89 45 84	 mov	 DWORD PTR _textPosPt$15[ebp+4], eax

; 581  : 	return bottom - top;

  0039c	8b 45 ec	 mov	 eax, DWORD PTR _realScaleRegion$[ebp+12]
  0039f	2b 45 e4	 sub	 eax, DWORD PTR _realScaleRegion$[ebp+4]

; 408  : 	x = initX;

  003a2	89 4d 80	 mov	 DWORD PTR _textPosPt$15[ebp], ecx
; File D:\git\src\IBK\IBK_DRFN\ProjSrc\SrcChartEx\ChartOCX\ScaleDraw\DataHorzScaleDrawer.cpp

; 32   : 	if(scaleRegion.Height() > textSize.cy)

  003a5	3b c7		 cmp	 eax, edi
  003a7	7e 17		 jle	 SHORT $LN58@DrawTextOr

; 33   : 		CDrawer::DrawTextOut(pDC, textPosPt, data, textColor);

  003a9	ff 75 8c	 push	 DWORD PTR _textColor$1$[ebp]
  003ac	8b 4d bc	 mov	 ecx, DWORD PTR tv648[ebp]
  003af	8d 45 dc	 lea	 eax, DWORD PTR _strData$23[ebp]
  003b2	50		 push	 eax
  003b3	8d 45 80	 lea	 eax, DWORD PTR _textPosPt$15[ebp]
  003b6	50		 push	 eax
  003b7	56		 push	 esi
  003b8	e8 00 00 00 00	 call	 ?DrawTextOut@CDrawer@@IAEXPAVCDC@@ABVCPoint@@ABV?$CStringT@DV?$StrTraitMFC_DLL@DV?$ChTraitsCRT@D@ATL@@@@@ATL@@K@Z ; CDrawer::DrawTextOut
  003bd	8b 4d 80	 mov	 ecx, DWORD PTR _textPosPt$15[ebp]
$LN58@DrawTextOr:

; 34   : 	textEndPos = textPosPt.x + textSize.cx + MARGIN;

  003c0	8b 45 d8	 mov	 eax, DWORD PTR $T21[ebp]
  003c3	83 c0 04	 add	 eax, 4

; 110  : 				(horzScale.GetHorzScalePosition() == CScaleBaseData::HORZ_TOP ? true: false), 
; 111  : 				strData, pDC->GetTextExtent(strData), drawingHorzScaleData.GetScaleColor().GetScaleTextColor(), 
; 112  : 				drawingHorzScaleData.GetCompartLineColor(), nPre_textEndPos);
; 113  : 
; 114  : 			CHorzScaleDrawer::DrawGrid(pDC, drawingHorzScaleData, horzScale.GetGridType(), posPt.x);

  003c6	6a 01		 push	 1
  003c8	ff 75 a4	 push	 DWORD PTR _posPt$19[ebp]

; 34   : 	textEndPos = textPosPt.x + textSize.cx + MARGIN;

  003cb	03 c1		 add	 eax, ecx

; 110  : 				(horzScale.GetHorzScalePosition() == CScaleBaseData::HORZ_TOP ? true: false), 
; 111  : 				strData, pDC->GetTextExtent(strData), drawingHorzScaleData.GetScaleColor().GetScaleTextColor(), 
; 112  : 				drawingHorzScaleData.GetCompartLineColor(), nPre_textEndPos);
; 113  : 
; 114  : 			CHorzScaleDrawer::DrawGrid(pDC, drawingHorzScaleData, horzScale.GetGridType(), posPt.x);

  003cd	8b 4d b8	 mov	 ecx, DWORD PTR _horzScale$GSCopy$1$[ebp]

; 34   : 	textEndPos = textPosPt.x + textSize.cx + MARGIN;

  003d0	89 45 d8	 mov	 DWORD PTR _nPre_textEndPos$1$[ebp], eax

; 110  : 				(horzScale.GetHorzScalePosition() == CScaleBaseData::HORZ_TOP ? true: false), 
; 111  : 				strData, pDC->GetTextExtent(strData), drawingHorzScaleData.GetScaleColor().GetScaleTextColor(), 
; 112  : 				drawingHorzScaleData.GetCompartLineColor(), nPre_textEndPos);
; 113  : 
; 114  : 			CHorzScaleDrawer::DrawGrid(pDC, drawingHorzScaleData, horzScale.GetGridType(), posPt.x);

  003d3	e8 00 00 00 00	 call	 ?GetGridType@CScale@@QBE?AW4SCALEGRIDTYPE@CScaleBaseData@@XZ ; CScale::GetGridType
  003d8	8b 7d cc	 mov	 edi, DWORD PTR _drawingHorzScaleData$GSCopy$1$[ebp]
  003db	8b 4d d0	 mov	 ecx, DWORD PTR _this$GSCopy$1$[ebp]
  003de	50		 push	 eax
  003df	57		 push	 edi
  003e0	56		 push	 esi
  003e1	e8 00 00 00 00	 call	 ?DrawGrid@CHorzScaleDrawer@@IAEXPAVCDC@@ABVCDrawingHorzScaleData@@W4SCALEGRIDTYPE@CScaleBaseData@@HH@Z ; CHorzScaleDrawer::DrawGrid

; 58   : 	if(nMinNowPos_x > nNowPos_x)

  003e6	eb 06		 jmp	 SHORT $LN9@DrawTextOr
$LN78@DrawTextOr:

; 115  : 		}
; 116  : 
; 117  : 		nCount++;

  003e8	8b 7d cc	 mov	 edi, DWORD PTR _drawingHorzScaleData$GSCopy$1$[ebp]
  003eb	8b 75 c8	 mov	 esi, DWORD PTR _pDC$GSCopy$1$[ebp]
$LN9@DrawTextOr:
  003ee	ff 45 d4	 inc	 DWORD PTR _nCount$1$[ebp]

; 118  : 	}

  003f1	8d 4d dc	 lea	 ecx, DWORD PTR _strData$23[ebp]
  003f4	c6 45 fc 00	 mov	 BYTE PTR __$EHRec$[ebp+8], 0
  003f8	ff 15 00 00 00
	00		 call	 DWORD PTR __imp_??1?$CStringT@DV?$StrTraitMFC_DLL@DV?$ChTraitsCRT@D@ATL@@@@@ATL@@QAE@XZ
  003fe	8b 4d 88	 mov	 ecx, DWORD PTR _pos$1$[ebp]
  00401	85 c9		 test	 ecx, ecx
  00403	0f 85 a7 fd ff
	ff		 jne	 $LL2@DrawTextOr

; 101  : 			drawingHorzScaleData.GetDisplayDataMinMax().GetDisplayMin(),
; 102  : 			drawingHorzScaleData.GetDisplayDataMinMax().GetDisplayMax(), dData);
; 103  : 
; 104  : 		if(posPt.x >= scaleRegion.right)

  00409	eb 09		 jmp	 SHORT $LN3@DrawTextOr
$LN69@DrawTextOr:

; 105  : 			break;

  0040b	8d 4d dc	 lea	 ecx, DWORD PTR _strData$23[ebp]
  0040e	ff 15 00 00 00
	00		 call	 DWORD PTR __imp_??1?$CStringT@DV?$StrTraitMFC_DLL@DV?$ChTraitsCRT@D@ATL@@@@@ATL@@QAE@XZ
$LN3@DrawTextOr:

; 119  : }

  00414	8d 4d b4	 lea	 ecx, DWORD PTR _strDataType$[ebp]
  00417	ff 15 00 00 00
	00		 call	 DWORD PTR __imp_??1?$CStringT@DV?$StrTraitMFC_DLL@DV?$ChTraitsCRT@D@ATL@@@@@ATL@@QAE@XZ
$LN7@DrawTextOr:
  0041d	8b 4d f4	 mov	 ecx, DWORD PTR __$EHRec$[ebp]
  00420	64 89 0d 00 00
	00 00		 mov	 DWORD PTR fs:0, ecx
  00427	59		 pop	 ecx
  00428	5f		 pop	 edi
  00429	5e		 pop	 esi
  0042a	8b 4d f0	 mov	 ecx, DWORD PTR __$ArrayPad$[ebp]
  0042d	33 cd		 xor	 ecx, ebp
  0042f	e8 00 00 00 00	 call	 @__security_check_cookie@4
  00434	8b e5		 mov	 esp, ebp
  00436	5d		 pop	 ebp
  00437	c2 10 00	 ret	 16			; 00000010H
_TEXT	ENDS
;	COMDAT text$x
text$x	SEGMENT
__unwindfunclet$?DrawTextOrGrid@CPriceZoneHorzScaleDrawer@@UAEXPAVCDC@@ABVCDrawingHorzScaleData@@ABVCRect@@ABVCHorizontalScale@@@Z$0:
  00000	8d 4d b4	 lea	 ecx, DWORD PTR _strDataType$[ebp]
  00003	ff 25 00 00 00
	00		 jmp	 DWORD PTR __imp_??1?$CStringT@DV?$StrTraitMFC_DLL@DV?$ChTraitsCRT@D@ATL@@@@@ATL@@QAE@XZ
__unwindfunclet$?DrawTextOrGrid@CPriceZoneHorzScaleDrawer@@UAEXPAVCDC@@ABVCDrawingHorzScaleData@@ABVCRect@@ABVCHorizontalScale@@@Z$1:
  00009	8d 4d d8	 lea	 ecx, DWORD PTR $T22[ebp]
  0000c	ff 25 00 00 00
	00		 jmp	 DWORD PTR __imp_??1?$CStringT@DV?$StrTraitMFC_DLL@DV?$ChTraitsCRT@D@ATL@@@@@ATL@@QAE@XZ
__unwindfunclet$?DrawTextOrGrid@CPriceZoneHorzScaleDrawer@@UAEXPAVCDC@@ABVCDrawingHorzScaleData@@ABVCRect@@ABVCHorizontalScale@@@Z$2:
  00012	8d 4d 98	 lea	 ecx, DWORD PTR $T16[ebp]
  00015	ff 25 00 00 00
	00		 jmp	 DWORD PTR __imp_??1?$CStringT@DV?$StrTraitMFC_DLL@DV?$ChTraitsCRT@D@ATL@@@@@ATL@@QAE@XZ
__unwindfunclet$?DrawTextOrGrid@CPriceZoneHorzScaleDrawer@@UAEXPAVCDC@@ABVCDrawingHorzScaleData@@ABVCRect@@ABVCHorizontalScale@@@Z$3:
  0001b	8d 4d dc	 lea	 ecx, DWORD PTR _strData$23[ebp]
  0001e	ff 25 00 00 00
	00		 jmp	 DWORD PTR __imp_??1?$CStringT@DV?$StrTraitMFC_DLL@DV?$ChTraitsCRT@D@ATL@@@@@ATL@@QAE@XZ
  00024	cc		 int	 3
  00025	cc		 int	 3
  00026	cc		 int	 3
  00027	cc		 int	 3
  00028	cc		 int	 3
__ehhandler$?DrawTextOrGrid@CPriceZoneHorzScaleDrawer@@UAEXPAVCDC@@ABVCDrawingHorzScaleData@@ABVCRect@@ABVCHorizontalScale@@@Z:
  00029	90		 npad	 1
  0002a	90		 npad	 1
  0002b	8b 54 24 08	 mov	 edx, DWORD PTR [esp+8]
  0002f	8d 42 0c	 lea	 eax, DWORD PTR [edx+12]
  00032	8b 8a 10 ff ff
	ff		 mov	 ecx, DWORD PTR [edx-240]
  00038	33 c8		 xor	 ecx, eax
  0003a	e8 00 00 00 00	 call	 @__security_check_cookie@4
  0003f	8b 4a fc	 mov	 ecx, DWORD PTR [edx-4]
  00042	33 c8		 xor	 ecx, eax
  00044	e8 00 00 00 00	 call	 @__security_check_cookie@4
  00049	b8 00 00 00 00	 mov	 eax, OFFSET __ehfuncinfo$?DrawTextOrGrid@CPriceZoneHorzScaleDrawer@@UAEXPAVCDC@@ABVCDrawingHorzScaleData@@ABVCRect@@ABVCHorizontalScale@@@Z
  0004e	e9 00 00 00 00	 jmp	 ___CxxFrameHandler3
text$x	ENDS
?DrawTextOrGrid@CPriceZoneHorzScaleDrawer@@UAEXPAVCDC@@ABVCDrawingHorzScaleData@@ABVCRect@@ABVCHorizontalScale@@@Z ENDP ; CPriceZoneHorzScaleDrawer::DrawTextOrGrid
; Function compile flags: /Ogtp
; File D:\git\src\IBK\IBK_DRFN\ProjSrc\SrcChartEx\ChartOCX\ScaleDraw\DataHorzScaleDrawer.cpp
;	COMDAT ??0CPriceZoneHorzScaleDrawer@@QAE@PAUHWND__@@W4CHART_MODE@CChartInfo@@@Z
_TEXT	SEGMENT
_p_hOcxWnd$ = 8						; size = 4
_p_eChartMode$ = 12					; size = 4
??0CPriceZoneHorzScaleDrawer@@QAE@PAUHWND__@@W4CHART_MODE@CChartInfo@@@Z PROC ; CPriceZoneHorzScaleDrawer::CPriceZoneHorzScaleDrawer, COMDAT
; _this$ = ecx

; 71   : {

  00000	55		 push	 ebp
  00001	8b ec		 mov	 ebp, esp
  00003	56		 push	 esi

; 19   : 	: CHorzScaleDrawer( p_hOcxWnd, p_eChartMode)

  00004	ff 75 0c	 push	 DWORD PTR _p_eChartMode$[ebp]

; 71   : {

  00007	8b f1		 mov	 esi, ecx

; 19   : 	: CHorzScaleDrawer( p_hOcxWnd, p_eChartMode)

  00009	ff 75 08	 push	 DWORD PTR _p_hOcxWnd$[ebp]
  0000c	e8 00 00 00 00	 call	 ??0CHorzScaleDrawer@@QAE@PAUHWND__@@W4CHART_MODE@CChartInfo@@@Z ; CHorzScaleDrawer::CHorzScaleDrawer

; 71   : {

  00011	c7 06 00 00 00
	00		 mov	 DWORD PTR [esi], OFFSET ??_7CPriceZoneHorzScaleDrawer@@6B@

; 72   : }

  00017	8b c6		 mov	 eax, esi
  00019	5e		 pop	 esi
  0001a	5d		 pop	 ebp
  0001b	c2 08 00	 ret	 8
??0CPriceZoneHorzScaleDrawer@@QAE@PAUHWND__@@W4CHART_MODE@CChartInfo@@@Z ENDP ; CPriceZoneHorzScaleDrawer::CPriceZoneHorzScaleDrawer
_TEXT	ENDS
; Function compile flags: /Ogtp
; File D:\git\src\IBK\IBK_DRFN\ProjSrc\SrcChartEx\ChartOCX\ScaleDraw\DataHorzScaleDrawer.cpp
;	COMDAT ?IsOverlap@CDataHorzScaleDrawer@@IBE_NHHH@Z
_TEXT	SEGMENT
_nTextWidth$ = 8					; size = 4
_nNowPos_x$ = 12					; size = 4
_nPrevPos_x$ = 16					; size = 4
?IsOverlap@CDataHorzScaleDrawer@@IBE_NHHH@Z PROC	; CDataHorzScaleDrawer::IsOverlap, COMDAT
; _this$ = ecx

; 56   : {

  00000	55		 push	 ebp
  00001	8b ec		 mov	 ebp, esp
  00003	56		 push	 esi

; 57   : 	int nMinNowPos_x = nPrevPos_x + MARGIN * 2;
; 58   : 	if(nMinNowPos_x > nNowPos_x)

  00004	8b 75 0c	 mov	 esi, DWORD PTR _nNowPos_x$[ebp]
  00007	57		 push	 edi
  00008	8b 7d 10	 mov	 edi, DWORD PTR _nPrevPos_x$[ebp]
  0000b	83 c7 08	 add	 edi, 8
  0000e	3b fe		 cmp	 edi, esi
  00010	7e 08		 jle	 SHORT $LN2@IsOverlap

; 59   : 		return true;

  00012	5f		 pop	 edi
  00013	b0 01		 mov	 al, 1

; 63   : }

  00015	5e		 pop	 esi
  00016	5d		 pop	 ebp
  00017	c2 0c 00	 ret	 12			; 0000000cH
$LN2@IsOverlap:
  0001a	66 0f 6e 45 08	 movd	 xmm0, DWORD PTR _nTextWidth$[ebp]

; 48   : 		return(org_x - CMath::Round(textWidth / 2.0));

  0001f	83 ec 08	 sub	 esp, 8
  00022	f3 0f e6 c0	 cvtdq2pd xmm0, xmm0
  00026	f2 0f 59 05 00
	00 00 00	 mulsd	 xmm0, QWORD PTR __real@3fe0000000000000
  0002e	f2 0f 11 04 24	 movsd	 QWORD PTR [esp], xmm0
  00033	e8 00 00 00 00	 call	 ?Round@CMath@@SAHN@Z	; CMath::Round
  00038	83 c4 08	 add	 esp, 8
  0003b	2b f0		 sub	 esi, eax

; 60   : 	
; 61   : 	int nRealNowPos_x = GetTextPosition_x(nNowPos_x, nTextWidth);
; 62   : 	return (nMinNowPos_x > nRealNowPos_x);

  0003d	3b fe		 cmp	 edi, esi
  0003f	0f 9f c0	 setg	 al
  00042	5f		 pop	 edi

; 63   : }

  00043	5e		 pop	 esi
  00044	5d		 pop	 ebp
  00045	c2 0c 00	 ret	 12			; 0000000cH
?IsOverlap@CDataHorzScaleDrawer@@IBE_NHHH@Z ENDP	; CDataHorzScaleDrawer::IsOverlap
_TEXT	ENDS
; Function compile flags: /Ogtp
; File D:\git\src\IBK\IBK_DRFN\ProjSrc\SrcChartEx\ChartOCX\ScaleDraw\DataHorzScaleDrawer.cpp
;	COMDAT ?GetTextPosition_x@CDataHorzScaleDrawer@@IBEHHH_N@Z
_TEXT	SEGMENT
_org_x$ = 8						; size = 4
_textWidth$ = 12					; size = 4
_isCenter$ = 16						; size = 1
?GetTextPosition_x@CDataHorzScaleDrawer@@IBEHHH_N@Z PROC ; CDataHorzScaleDrawer::GetTextPosition_x, COMDAT
; _this$ = ecx

; 46   : {

  00000	55		 push	 ebp
  00001	8b ec		 mov	 ebp, esp

; 47   : 	if(isCenter){

  00003	80 7d 10 00	 cmp	 BYTE PTR _isCenter$[ebp], 0
  00007	74 2c		 je	 SHORT $LN2@GetTextPos

; 48   : 		return(org_x - CMath::Round(textWidth / 2.0));

  00009	66 0f 6e 45 0c	 movd	 xmm0, DWORD PTR _textWidth$[ebp]
  0000e	83 ec 08	 sub	 esp, 8
  00011	f3 0f e6 c0	 cvtdq2pd xmm0, xmm0
  00015	f2 0f 59 05 00
	00 00 00	 mulsd	 xmm0, QWORD PTR __real@3fe0000000000000
  0001d	f2 0f 11 04 24	 movsd	 QWORD PTR [esp], xmm0
  00022	e8 00 00 00 00	 call	 ?Round@CMath@@SAHN@Z	; CMath::Round
  00027	8b 4d 08	 mov	 ecx, DWORD PTR _org_x$[ebp]
  0002a	83 c4 08	 add	 esp, 8
  0002d	2b c8		 sub	 ecx, eax
  0002f	8b c1		 mov	 eax, ecx

; 51   : }

  00031	5d		 pop	 ebp
  00032	c2 0c 00	 ret	 12			; 0000000cH
$LN2@GetTextPos:

; 49   : 	}
; 50   : 	return org_x +MARGIN;

  00035	8b 45 08	 mov	 eax, DWORD PTR _org_x$[ebp]
  00038	83 c0 04	 add	 eax, 4

; 51   : }

  0003b	5d		 pop	 ebp
  0003c	c2 0c 00	 ret	 12			; 0000000cH
?GetTextPosition_x@CDataHorzScaleDrawer@@IBEHHH_N@Z ENDP ; CDataHorzScaleDrawer::GetTextPosition_x
_TEXT	ENDS
; Function compile flags: /Ogtp
; File D:\git\src\IBK\IBK_DRFN\ProjSrc\SrcChartEx\ChartOCX\ScaleDraw\DataHorzScaleDrawer.cpp
;	COMDAT ?GetTextEndPosition_x@CDataHorzScaleDrawer@@IBEHABVCPoint@@ABVCSize@@@Z
_TEXT	SEGMENT
_nowPos$ = 8						; size = 4
_textSize$ = 12						; size = 4
?GetTextEndPosition_x@CDataHorzScaleDrawer@@IBEHABVCPoint@@ABVCSize@@@Z PROC ; CDataHorzScaleDrawer::GetTextEndPosition_x, COMDAT
; _this$ = ecx

; 39   : {

  00000	55		 push	 ebp
  00001	8b ec		 mov	 ebp, esp

; 40   : 	CPoint textPosPt(GetTextPosition_x(nowPos.x, textSize.cx, true), nowPos.y);

  00003	8b 45 08	 mov	 eax, DWORD PTR _nowPos$[ebp]
  00006	56		 push	 esi

; 48   : 		return(org_x - CMath::Round(textWidth / 2.0));

  00007	8b 75 0c	 mov	 esi, DWORD PTR _textSize$[ebp]

; 39   : {

  0000a	57		 push	 edi

; 40   : 	CPoint textPosPt(GetTextPosition_x(nowPos.x, textSize.cx, true), nowPos.y);

  0000b	8b 38		 mov	 edi, DWORD PTR [eax]

; 48   : 		return(org_x - CMath::Round(textWidth / 2.0));

  0000d	83 ec 08	 sub	 esp, 8
  00010	66 0f 6e 06	 movd	 xmm0, DWORD PTR [esi]
  00014	f3 0f e6 c0	 cvtdq2pd xmm0, xmm0
  00018	f2 0f 59 05 00
	00 00 00	 mulsd	 xmm0, QWORD PTR __real@3fe0000000000000
  00020	f2 0f 11 04 24	 movsd	 QWORD PTR [esp], xmm0
  00025	e8 00 00 00 00	 call	 ?Round@CMath@@SAHN@Z	; CMath::Round
  0002a	2b f8		 sub	 edi, eax
  0002c	83 c4 08	 add	 esp, 8
  0002f	8b 06		 mov	 eax, DWORD PTR [esi]

; 41   : 	return (textPosPt.x + textSize.cx + MARGIN);

  00031	83 c0 04	 add	 eax, 4
  00034	03 c7		 add	 eax, edi
  00036	5f		 pop	 edi
  00037	5e		 pop	 esi

; 42   : }

  00038	5d		 pop	 ebp
  00039	c2 08 00	 ret	 8
?GetTextEndPosition_x@CDataHorzScaleDrawer@@IBEHABVCPoint@@ABVCSize@@@Z ENDP ; CDataHorzScaleDrawer::GetTextEndPosition_x
_TEXT	ENDS
; Function compile flags: /Ogtp
; File D:\git\src\IBK\IBK_DRFN\ProjSrc\SrcChartEx\ChartOCX\ScaleDraw\DataHorzScaleDrawer.cpp
; File C:\Program Files (x86)\Microsoft Visual Studio\2019\Community\VC\Tools\MSVC\14.29.30133\atlmfc\include\atltypes.h
; File D:\git\src\IBK\IBK_DRFN\ProjSrc\SrcChartEx\ChartOCX\ScaleDraw\DataHorzScaleDrawer.cpp
; File C:\Program Files (x86)\Microsoft Visual Studio\2019\Community\VC\Tools\MSVC\14.29.30133\atlmfc\include\atltypes.h
; File D:\git\src\IBK\IBK_DRFN\ProjSrc\SrcChartEx\ChartOCX\ScaleDraw\DataHorzScaleDrawer.cpp
;	COMDAT ?DrawTextAndCompartLine@CDataHorzScaleDrawer@@IAEXPAVCDC@@ABVCRect@@ABVCPoint@@ABN_NABV?$CStringT@DV?$StrTraitMFC_DLL@DV?$ChTraitsCRT@D@ATL@@@@@ATL@@ABVCSize@@KKAAH@Z
_TEXT	SEGMENT
_textPosPt$ = -12					; size = 8
_this$1$ = -4						; size = 4
_pDC$ = 8						; size = 4
_scaleRegion$ = 12					; size = 4
_nowPos$ = 16						; size = 4
_textRegionWidth$ = 20					; size = 4
_bIsTopPos$ = 24					; size = 1
_data$ = 28						; size = 4
_textSize$ = 32						; size = 4
_textColor$ = 36					; size = 4
_gridColor$ = 40					; size = 4
_textEndPos$ = 44					; size = 4
?DrawTextAndCompartLine@CDataHorzScaleDrawer@@IAEXPAVCDC@@ABVCRect@@ABVCPoint@@ABN_NABV?$CStringT@DV?$StrTraitMFC_DLL@DV?$ChTraitsCRT@D@ATL@@@@@ATL@@ABVCSize@@KKAAH@Z PROC ; CDataHorzScaleDrawer::DrawTextAndCompartLine, COMDAT
; _this$ = ecx

; 26   : {

  00000	55		 push	 ebp
  00001	8b ec		 mov	 ebp, esp
  00003	83 ec 0c	 sub	 esp, 12			; 0000000cH
  00006	53		 push	 ebx
  00007	56		 push	 esi

; 27   : 	// text 
; 28   : 	CHorzScaleDrawer::DrawTextCompartLine(pDC, scaleRegion, nowPos, bIsTopPos, gridColor);

  00008	8b 75 10	 mov	 esi, DWORD PTR _nowPos$[ebp]
  0000b	8b c1		 mov	 eax, ecx
  0000d	57		 push	 edi
  0000e	ff 75 28	 push	 DWORD PTR _gridColor$[ebp]
  00011	8b 7d 0c	 mov	 edi, DWORD PTR _scaleRegion$[ebp]
  00014	ff 75 18	 push	 DWORD PTR _bIsTopPos$[ebp]
  00017	89 45 fc	 mov	 DWORD PTR _this$1$[ebp], eax
  0001a	56		 push	 esi
  0001b	57		 push	 edi
  0001c	ff 75 08	 push	 DWORD PTR _pDC$[ebp]
  0001f	e8 00 00 00 00	 call	 ?DrawTextCompartLine@CHorzScaleDrawer@@IAEXPAVCDC@@ABVCRect@@ABVCPoint@@_NK@Z ; CHorzScaleDrawer::DrawTextCompartLine

; 48   : 		return(org_x - CMath::Round(textWidth / 2.0));

  00024	8b 45 20	 mov	 eax, DWORD PTR _textSize$[ebp]
  00027	83 ec 08	 sub	 esp, 8

; 29   : 
; 30   : 	// text 
; 31   : 	CPoint textPosPt(GetTextPosition_x(nowPos.x, textSize.cx, true), nowPos.y);

  0002a	8b 1e		 mov	 ebx, DWORD PTR [esi]
  0002c	66 0f 6e 00	 movd	 xmm0, DWORD PTR [eax]

; 48   : 		return(org_x - CMath::Round(textWidth / 2.0));

  00030	f3 0f e6 c0	 cvtdq2pd xmm0, xmm0
  00034	f2 0f 59 05 00
	00 00 00	 mulsd	 xmm0, QWORD PTR __real@3fe0000000000000
  0003c	f2 0f 11 04 24	 movsd	 QWORD PTR [esp], xmm0
  00041	e8 00 00 00 00	 call	 ?Round@CMath@@SAHN@Z	; CMath::Round
  00046	2b d8		 sub	 ebx, eax
  00048	83 c4 08	 add	 esp, 8
; File C:\Program Files (x86)\Microsoft Visual Studio\2019\Community\VC\Tools\MSVC\14.29.30133\atlmfc\include\atltypes.h

; 409  : 	y = initY;

  0004b	8b 46 04	 mov	 eax, DWORD PTR [esi+4]
; File D:\git\src\IBK\IBK_DRFN\ProjSrc\SrcChartEx\ChartOCX\ScaleDraw\DataHorzScaleDrawer.cpp

; 32   : 	if(scaleRegion.Height() > textSize.cy)

  0004e	8b 75 20	 mov	 esi, DWORD PTR _textSize$[ebp]
; File C:\Program Files (x86)\Microsoft Visual Studio\2019\Community\VC\Tools\MSVC\14.29.30133\atlmfc\include\atltypes.h

; 409  : 	y = initY;

  00051	89 45 f8	 mov	 DWORD PTR _textPosPt$[ebp+4], eax

; 581  : 	return bottom - top;

  00054	8b 47 0c	 mov	 eax, DWORD PTR [edi+12]
  00057	2b 47 04	 sub	 eax, DWORD PTR [edi+4]

; 408  : 	x = initX;

  0005a	89 5d f4	 mov	 DWORD PTR _textPosPt$[ebp], ebx
; File D:\git\src\IBK\IBK_DRFN\ProjSrc\SrcChartEx\ChartOCX\ScaleDraw\DataHorzScaleDrawer.cpp

; 32   : 	if(scaleRegion.Height() > textSize.cy)

  0005d	3b 46 04	 cmp	 eax, DWORD PTR [esi+4]
  00060	7e 1b		 jle	 SHORT $LN2@DrawTextAn

; 33   : 		CDrawer::DrawTextOut(pDC, textPosPt, data, textColor);

  00062	ff 75 24	 push	 DWORD PTR _textColor$[ebp]
  00065	8b 4d fc	 mov	 ecx, DWORD PTR _this$1$[ebp]
  00068	8d 45 f4	 lea	 eax, DWORD PTR _textPosPt$[ebp]
  0006b	ff 75 1c	 push	 DWORD PTR _data$[ebp]
  0006e	83 c1 04	 add	 ecx, 4
  00071	50		 push	 eax
  00072	ff 75 08	 push	 DWORD PTR _pDC$[ebp]
  00075	e8 00 00 00 00	 call	 ?DrawTextOut@CDrawer@@IAEXPAVCDC@@ABVCPoint@@ABV?$CStringT@DV?$StrTraitMFC_DLL@DV?$ChTraitsCRT@D@ATL@@@@@ATL@@K@Z ; CDrawer::DrawTextOut
  0007a	8b 5d f4	 mov	 ebx, DWORD PTR _textPosPt$[ebp]
$LN2@DrawTextAn:

; 34   : 	textEndPos = textPosPt.x + textSize.cx + MARGIN;

  0007d	8b 0e		 mov	 ecx, DWORD PTR [esi]
  0007f	8b 45 2c	 mov	 eax, DWORD PTR _textEndPos$[ebp]
  00082	83 c1 04	 add	 ecx, 4
  00085	5f		 pop	 edi
  00086	03 cb		 add	 ecx, ebx
  00088	5e		 pop	 esi
  00089	89 08		 mov	 DWORD PTR [eax], ecx
  0008b	5b		 pop	 ebx

; 35   : }

  0008c	8b e5		 mov	 esp, ebp
  0008e	5d		 pop	 ebp
  0008f	c2 28 00	 ret	 40			; 00000028H
?DrawTextAndCompartLine@CDataHorzScaleDrawer@@IAEXPAVCDC@@ABVCRect@@ABVCPoint@@ABN_NABV?$CStringT@DV?$StrTraitMFC_DLL@DV?$ChTraitsCRT@D@ATL@@@@@ATL@@ABVCSize@@KKAAH@Z ENDP ; CDataHorzScaleDrawer::DrawTextAndCompartLine
_TEXT	ENDS
; Function compile flags: /Ogtp
; File D:\git\src\IBK\IBK_DRFN\ProjSrc\SrcChartEx\ChartOCX\ScaleDraw\DataHorzScaleDrawer.cpp
;	COMDAT ??0CDataHorzScaleDrawer@@QAE@PAUHWND__@@W4CHART_MODE@CChartInfo@@@Z
_TEXT	SEGMENT
_p_hOcxWnd$ = 8						; size = 4
_p_eChartMode$ = 12					; size = 4
??0CDataHorzScaleDrawer@@QAE@PAUHWND__@@W4CHART_MODE@CChartInfo@@@Z PROC ; CDataHorzScaleDrawer::CDataHorzScaleDrawer, COMDAT
; _this$ = ecx

; 20   : {

  00000	55		 push	 ebp
  00001	8b ec		 mov	 ebp, esp
  00003	56		 push	 esi
  00004	ff 75 0c	 push	 DWORD PTR _p_eChartMode$[ebp]
  00007	8b f1		 mov	 esi, ecx
  00009	ff 75 08	 push	 DWORD PTR _p_hOcxWnd$[ebp]
  0000c	e8 00 00 00 00	 call	 ??0CHorzScaleDrawer@@QAE@PAUHWND__@@W4CHART_MODE@CChartInfo@@@Z ; CHorzScaleDrawer::CHorzScaleDrawer
  00011	c7 06 00 00 00
	00		 mov	 DWORD PTR [esi], OFFSET ??_7CDataHorzScaleDrawer@@6B@

; 21   : }

  00017	8b c6		 mov	 eax, esi
  00019	5e		 pop	 esi
  0001a	5d		 pop	 ebp
  0001b	c2 08 00	 ret	 8
??0CDataHorzScaleDrawer@@QAE@PAUHWND__@@W4CHART_MODE@CChartInfo@@@Z ENDP ; CDataHorzScaleDrawer::CDataHorzScaleDrawer
_TEXT	ENDS
; Function compile flags: /Ogtp
; File D:\git\src\IBK\IBK_DRFN\ProjSrc\SrcChartEx\ChartOCX\ScaleDraw\HorzScaleDrawer.h
;	COMDAT ?DrawGrid@CHorzScaleDrawer@@UAE_NPAVCDC@@ABVCDrawingHorzScaleData@@ABVCHorzScaleRegion@@ABVCHorizontalScale@@PAVCXScaleManager@@PBD@Z
_TEXT	SEGMENT
_pDC$ = 8						; size = 4
_drawingHorzScaleData$ = 12				; size = 4
_horzScaleRegion$ = 16					; size = 4
_horzScale$ = 20					; size = 4
_pxScaleManager$ = 24					; size = 4
_p_szRQ$ = 28						; size = 4
?DrawGrid@CHorzScaleDrawer@@UAE_NPAVCDC@@ABVCDrawingHorzScaleData@@ABVCHorzScaleRegion@@ABVCHorizontalScale@@PAVCXScaleManager@@PBD@Z PROC ; CHorzScaleDrawer::DrawGrid, COMDAT
; _this$ = ecx

; 44   : 		return false;

  00000	32 c0		 xor	 al, al

; 45   : 	}

  00002	c2 18 00	 ret	 24			; 00000018H
?DrawGrid@CHorzScaleDrawer@@UAE_NPAVCDC@@ABVCDrawingHorzScaleData@@ABVCHorzScaleRegion@@ABVCHorizontalScale@@PAVCXScaleManager@@PBD@Z ENDP ; CHorzScaleDrawer::DrawGrid
_TEXT	ENDS
; Function compile flags: /Ogtp
; File D:\git\src\IBK\IBK_DRFN\ProjSrc\SrcChartEx\ChartOCX\ScaleDraw\HorzScaleDrawer.h
;	COMDAT ?DrawTextOrGrid_Both@CHorzScaleDrawer@@UAE_NPAVCDC@@ABVCDrawingHorzScaleData@@ABVCHorzScaleRegion@@ABVCHorizontalScale@@PAVCXScaleManager@@PBD@Z
_TEXT	SEGMENT
_pDC$ = 8						; size = 4
_drawingHorzScaleData$ = 12				; size = 4
_horzScaleRegion$ = 16					; size = 4
_horzScale$ = 20					; size = 4
_pxScaleManager$ = 24					; size = 4
_p_szRQ$ = 28						; size = 4
?DrawTextOrGrid_Both@CHorzScaleDrawer@@UAE_NPAVCDC@@ABVCDrawingHorzScaleData@@ABVCHorzScaleRegion@@ABVCHorizontalScale@@PAVCXScaleManager@@PBD@Z PROC ; CHorzScaleDrawer::DrawTextOrGrid_Both, COMDAT
; _this$ = ecx

; 37   : 		return false;

  00000	32 c0		 xor	 al, al

; 38   : 	}

  00002	c2 18 00	 ret	 24			; 00000018H
?DrawTextOrGrid_Both@CHorzScaleDrawer@@UAE_NPAVCDC@@ABVCDrawingHorzScaleData@@ABVCHorzScaleRegion@@ABVCHorizontalScale@@PAVCXScaleManager@@PBD@Z ENDP ; CHorzScaleDrawer::DrawTextOrGrid_Both
_TEXT	ENDS
; Function compile flags: /Ogtp
; File D:\git\src\IBK\IBK_DRFN\ProjSrc\SrcChartEx\ChartOCX\ScaleDraw\HorzScaleDrawer.h
;	COMDAT ?DrawTextOrGrid@CHorzScaleDrawer@@UAE_NPAVCDC@@ABVCDrawingHorzScaleData@@ABVCRect@@ABVCHorizontalScale@@PAVCXScaleManager@@PBD@Z
_TEXT	SEGMENT
_pDC$ = 8						; size = 4
_drawingHorzScaleData$ = 12				; size = 4
_scaleRegion$ = 16					; size = 4
_horzScale$ = 20					; size = 4
_pxScaleManager$ = 24					; size = 4
_p_szRQ$ = 28						; size = 4
?DrawTextOrGrid@CHorzScaleDrawer@@UAE_NPAVCDC@@ABVCDrawingHorzScaleData@@ABVCRect@@ABVCHorizontalScale@@PAVCXScaleManager@@PBD@Z PROC ; CHorzScaleDrawer::DrawTextOrGrid, COMDAT
; _this$ = ecx

; 31   : 		return false;

  00000	32 c0		 xor	 al, al

; 32   : 	}

  00002	c2 18 00	 ret	 24			; 00000018H
?DrawTextOrGrid@CHorzScaleDrawer@@UAE_NPAVCDC@@ABVCDrawingHorzScaleData@@ABVCRect@@ABVCHorizontalScale@@PAVCXScaleManager@@PBD@Z ENDP ; CHorzScaleDrawer::DrawTextOrGrid
_TEXT	ENDS
; Function compile flags: /Ogtp
; File C:\Program Files (x86)\Microsoft Visual Studio\2019\Community\VC\Tools\MSVC\14.29.30133\atlmfc\include\afxwin1.inl
; File C:\Program Files (x86)\Microsoft Visual Studio\2019\Community\VC\Tools\MSVC\14.29.30133\atlmfc\include\atlsimpstr.h
; File C:\Program Files (x86)\Microsoft Visual Studio\2019\Community\VC\Tools\MSVC\14.29.30133\atlmfc\include\afxwin1.inl
; File C:\Program Files (x86)\Microsoft Visual Studio\2019\Community\VC\Tools\MSVC\14.29.30133\atlmfc\include\atlsimpstr.h
; File C:\Program Files (x86)\Microsoft Visual Studio\2019\Community\VC\Tools\MSVC\14.29.30133\atlmfc\include\afxwin1.inl
; File C:\Program Files (x86)\Microsoft Visual Studio\2019\Community\VC\Tools\MSVC\14.29.30133\atlmfc\include\atltypes.h
; File C:\Program Files (x86)\Microsoft Visual Studio\2019\Community\VC\Tools\MSVC\14.29.30133\atlmfc\include\afxwin1.inl
;	COMDAT ?GetTextExtent@CDC@@QBE?AVCSize@@ABV?$CStringT@DV?$StrTraitMFC_DLL@DV?$ChTraitsCRT@D@ATL@@@@@ATL@@@Z
_TEXT	SEGMENT
_size$ = -8						; size = 8
___$ReturnUdt$ = 8					; size = 4
_str$ = 12						; size = 4
?GetTextExtent@CDC@@QBE?AVCSize@@ABV?$CStringT@DV?$StrTraitMFC_DLL@DV?$ChTraitsCRT@D@ATL@@@@@ATL@@@Z PROC ; CDC::GetTextExtent, COMDAT
; _this$ = ecx

; 636  : 	{

  00000	55		 push	 ebp
  00001	8b ec		 mov	 ebp, esp
  00003	83 ec 08	 sub	 esp, 8
; File C:\Program Files (x86)\Microsoft Visual Studio\2019\Community\VC\Tools\MSVC\14.29.30133\atlmfc\include\atlsimpstr.h

; 519  : 		return( GetData()->nDataLength );

  00006	8b 45 0c	 mov	 eax, DWORD PTR _str$[ebp]
; File C:\Program Files (x86)\Microsoft Visual Studio\2019\Community\VC\Tools\MSVC\14.29.30133\atlmfc\include\afxwin1.inl

; 639  : 		VERIFY(::GetTextExtentPoint32(m_hAttribDC, str, (int)str.GetLength(), &size));

  00009	8d 55 f8	 lea	 edx, DWORD PTR _size$[ebp]
  0000c	52		 push	 edx
; File C:\Program Files (x86)\Microsoft Visual Studio\2019\Community\VC\Tools\MSVC\14.29.30133\atlmfc\include\atlsimpstr.h

; 519  : 		return( GetData()->nDataLength );

  0000d	8b 00		 mov	 eax, DWORD PTR [eax]
; File C:\Program Files (x86)\Microsoft Visual Studio\2019\Community\VC\Tools\MSVC\14.29.30133\atlmfc\include\afxwin1.inl

; 639  : 		VERIFY(::GetTextExtentPoint32(m_hAttribDC, str, (int)str.GetLength(), &size));

  0000f	ff 70 f4	 push	 DWORD PTR [eax-12]
  00012	50		 push	 eax
  00013	ff 71 08	 push	 DWORD PTR [ecx+8]
  00016	ff 15 00 00 00
	00		 call	 DWORD PTR __imp__GetTextExtentPoint32A@16
; File C:\Program Files (x86)\Microsoft Visual Studio\2019\Community\VC\Tools\MSVC\14.29.30133\atlmfc\include\atltypes.h

; 318  : 	*(SIZE*)this = initSize;

  0001c	8b 45 08	 mov	 eax, DWORD PTR ___$ReturnUdt$[ebp]
  0001f	8b 4d f8	 mov	 ecx, DWORD PTR _size$[ebp]
  00022	8b 55 fc	 mov	 edx, DWORD PTR _size$[ebp+4]
  00025	89 08		 mov	 DWORD PTR [eax], ecx
  00027	89 50 04	 mov	 DWORD PTR [eax+4], edx
; File C:\Program Files (x86)\Microsoft Visual Studio\2019\Community\VC\Tools\MSVC\14.29.30133\atlmfc\include\afxwin1.inl

; 641  : 	}

  0002a	8b e5		 mov	 esp, ebp
  0002c	5d		 pop	 ebp
  0002d	c2 08 00	 ret	 8
?GetTextExtent@CDC@@QBE?AVCSize@@ABV?$CStringT@DV?$StrTraitMFC_DLL@DV?$ChTraitsCRT@D@ATL@@@@@ATL@@@Z ENDP ; CDC::GetTextExtent
_TEXT	ENDS
; Function compile flags: /Ogtp
; File C:\Program Files (x86)\Microsoft Visual Studio\2019\Community\VC\Tools\MSVC\14.29.30133\atlmfc\include\afxwin1.inl
; File C:\Program Files (x86)\Microsoft Visual Studio\2019\Community\VC\Tools\MSVC\14.29.30133\atlmfc\include\afx.inl
;	COMDAT ??_GCFont@@UAEPAXI@Z
_TEXT	SEGMENT
___flags$ = 8						; size = 4
??_GCFont@@UAEPAXI@Z PROC				; CFont::`scalar deleting destructor', COMDAT
; _this$ = ecx
  00000	55		 push	 ebp
  00001	8b ec		 mov	 ebp, esp
; File C:\Program Files (x86)\Microsoft Visual Studio\2019\Community\VC\Tools\MSVC\14.29.30133\atlmfc\include\afxwin1.inl

; 155  : 	{ }

  00003	56		 push	 esi
  00004	8b f1		 mov	 esi, ecx
  00006	c7 06 00 00 00
	00		 mov	 DWORD PTR [esi], OFFSET ??_7CFont@@6B@
  0000c	e8 00 00 00 00	 call	 ??1CGdiObject@@UAE@XZ	; CGdiObject::~CGdiObject
  00011	8b 45 08	 mov	 eax, DWORD PTR ___flags$[ebp]
  00014	a8 01		 test	 al, 1
  00016	74 1f		 je	 SHORT $LN12@scalar
  00018	a8 04		 test	 al, 4
  0001a	75 10		 jne	 SHORT $LN3@scalar
; File C:\Program Files (x86)\Microsoft Visual Studio\2019\Community\VC\Tools\MSVC\14.29.30133\atlmfc\include\afx.inl

; 112  : 	{ ::operator delete(p); }

  0001c	56		 push	 esi
  0001d	e8 00 00 00 00	 call	 ??3@YAXPAX@Z		; operator delete
  00022	83 c4 04	 add	 esp, 4
  00025	8b c6		 mov	 eax, esi
  00027	5e		 pop	 esi
  00028	5d		 pop	 ebp
  00029	c2 04 00	 ret	 4
$LN3@scalar:
  0002c	6a 08		 push	 8
  0002e	56		 push	 esi
  0002f	e8 00 00 00 00	 call	 ?__global_delete@@YAXPAXI@Z ; __global_delete
  00034	83 c4 08	 add	 esp, 8
$LN12@scalar:
  00037	8b c6		 mov	 eax, esi
  00039	5e		 pop	 esi
  0003a	5d		 pop	 ebp
  0003b	c2 04 00	 ret	 4
??_GCFont@@UAEPAXI@Z ENDP				; CFont::`scalar deleting destructor'
_TEXT	ENDS
; Function compile flags: /Ogtp
; File C:\Program Files (x86)\Microsoft Visual Studio\2019\Community\VC\Tools\MSVC\14.29.30133\atlmfc\include\afxwin1.inl
;	COMDAT ??1CFont@@UAE@XZ
_TEXT	SEGMENT
??1CFont@@UAE@XZ PROC					; CFont::~CFont, COMDAT
; _this$ = ecx

; 155  : 	{ }

  00000	c7 01 00 00 00
	00		 mov	 DWORD PTR [ecx], OFFSET ??_7CFont@@6B@
  00006	e9 00 00 00 00	 jmp	 ??1CGdiObject@@UAE@XZ	; CGdiObject::~CGdiObject
??1CFont@@UAE@XZ ENDP					; CFont::~CFont
_TEXT	ENDS
; Function compile flags: /Ogtp
; File C:\Program Files (x86)\Microsoft Visual Studio\2019\Community\VC\Tools\MSVC\14.29.30133\atlmfc\include\afx.inl
;	COMDAT ??_GCGdiObject@@UAEPAXI@Z
_TEXT	SEGMENT
___flags$ = 8						; size = 4
??_GCGdiObject@@UAEPAXI@Z PROC				; CGdiObject::`scalar deleting destructor', COMDAT
; _this$ = ecx
  00000	55		 push	 ebp
  00001	8b ec		 mov	 ebp, esp
  00003	56		 push	 esi
  00004	8b f1		 mov	 esi, ecx
  00006	e8 00 00 00 00	 call	 ??1CGdiObject@@UAE@XZ	; CGdiObject::~CGdiObject
  0000b	8b 45 08	 mov	 eax, DWORD PTR ___flags$[ebp]
  0000e	a8 01		 test	 al, 1
  00010	74 1f		 je	 SHORT $LN9@scalar
  00012	a8 04		 test	 al, 4
  00014	75 10		 jne	 SHORT $LN3@scalar

; 112  : 	{ ::operator delete(p); }

  00016	56		 push	 esi
  00017	e8 00 00 00 00	 call	 ??3@YAXPAX@Z		; operator delete
  0001c	83 c4 04	 add	 esp, 4
  0001f	8b c6		 mov	 eax, esi
  00021	5e		 pop	 esi
  00022	5d		 pop	 ebp
  00023	c2 04 00	 ret	 4
$LN3@scalar:
  00026	6a 08		 push	 8
  00028	56		 push	 esi
  00029	e8 00 00 00 00	 call	 ?__global_delete@@YAXPAXI@Z ; __global_delete
  0002e	83 c4 08	 add	 esp, 8
$LN9@scalar:
  00031	8b c6		 mov	 eax, esi
  00033	5e		 pop	 esi
  00034	5d		 pop	 ebp
  00035	c2 04 00	 ret	 4
??_GCGdiObject@@UAEPAXI@Z ENDP				; CGdiObject::`scalar deleting destructor'
_TEXT	ENDS
; Function compile flags: /Ogtp
; File C:\Program Files (x86)\Microsoft Visual Studio\2019\Community\VC\Tools\MSVC\14.29.30133\atlmfc\include\afxwin1.inl
;	COMDAT ??1CGdiObject@@UAE@XZ
_TEXT	SEGMENT
_pException$2 = -540					; size = 4
_strMsg$3 = -536					; size = 4
_szErrorMessage$4 = -532				; size = 512
__$ArrayPad$ = -20					; size = 4
__$EHRec$ = -16						; size = 16
??1CGdiObject@@UAE@XZ PROC				; CGdiObject::~CGdiObject, COMDAT
; _this$ = ecx

; 74   : {

  00000	55		 push	 ebp
  00001	8b ec		 mov	 ebp, esp
  00003	6a ff		 push	 -1
  00005	68 00 00 00 00	 push	 __ehhandler$??1CGdiObject@@UAE@XZ
  0000a	64 a1 00 00 00
	00		 mov	 eax, DWORD PTR fs:0
  00010	50		 push	 eax
  00011	81 ec 10 02 00
	00		 sub	 esp, 528		; 00000210H
  00017	a1 00 00 00 00	 mov	 eax, DWORD PTR ___security_cookie
  0001c	33 c5		 xor	 eax, ebp
  0001e	89 45 ec	 mov	 DWORD PTR __$ArrayPad$[ebp], eax
  00021	53		 push	 ebx
  00022	56		 push	 esi
  00023	57		 push	 edi
  00024	50		 push	 eax
  00025	8d 45 f4	 lea	 eax, DWORD PTR __$EHRec$[ebp+4]
  00028	64 a3 00 00 00
	00		 mov	 DWORD PTR fs:0, eax
  0002e	89 65 f0	 mov	 DWORD PTR __$EHRec$[ebp], esp
  00031	c7 01 00 00 00
	00		 mov	 DWORD PTR [ecx], OFFSET ??_7CGdiObject@@6B@

; 75   : 	AFX_BEGIN_DESTRUCTOR

  00037	c7 45 fc 00 00
	00 00		 mov	 DWORD PTR __$EHRec$[ebp+12], 0

; 76   : 	DeleteObject();

  0003e	e8 00 00 00 00	 call	 ?DeleteObject@CGdiObject@@QAEHXZ ; CGdiObject::DeleteObject
$LN18@CGdiObject:

; 78   : }

  00043	8b 4d f4	 mov	 ecx, DWORD PTR __$EHRec$[ebp+4]
  00046	64 89 0d 00 00
	00 00		 mov	 DWORD PTR fs:0, ecx
  0004d	59		 pop	 ecx
  0004e	5f		 pop	 edi
  0004f	5e		 pop	 esi
  00050	5b		 pop	 ebx
  00051	8b 4d ec	 mov	 ecx, DWORD PTR __$ArrayPad$[ebp]
  00054	33 cd		 xor	 ecx, ebp
  00056	e8 00 00 00 00	 call	 @__security_check_cookie@4
  0005b	8b e5		 mov	 esp, ebp
  0005d	5d		 pop	 ebp
  0005e	c3		 ret	 0
__catch$??1CGdiObject@@UAE@XZ$0:

; 77   : 	AFX_END_DESTRUCTOR

  0005f	8d 8d e8 fd ff
	ff		 lea	 ecx, DWORD PTR _strMsg$3[ebp]
  00065	ff 15 00 00 00
	00		 call	 DWORD PTR __imp_??0?$CStringT@DV?$StrTraitMFC_DLL@DV?$ChTraitsCRT@D@ATL@@@@@ATL@@QAE@XZ
  0006b	8b b5 e4 fd ff
	ff		 mov	 esi, DWORD PTR _pException$2[ebp]
  00071	8d 8d ec fd ff
	ff		 lea	 ecx, DWORD PTR _szErrorMessage$4[ebp]
  00077	6a 00		 push	 0
  00079	68 00 02 00 00	 push	 512			; 00000200H
  0007e	51		 push	 ecx
  0007f	8b 06		 mov	 eax, DWORD PTR [esi]
  00081	8b ce		 mov	 ecx, esi
  00083	c6 45 fc 02	 mov	 BYTE PTR __$EHRec$[ebp+12], 2
  00087	ff 50 14	 call	 DWORD PTR [eax+20]
  0008a	85 c0		 test	 eax, eax
  0008c	74 2a		 je	 SHORT $LN9@CGdiObject
  0008e	8d 85 ec fd ff
	ff		 lea	 eax, DWORD PTR _szErrorMessage$4[ebp]
  00094	50		 push	 eax
  00095	6a 4d		 push	 77			; 0000004dH
  00097	68 00 00 00 00	 push	 OFFSET ??_C@_0HD@JJCHHHNK@C?3?2Program?5Files?5?$CIx86?$CJ?2Microsof@
  0009c	68 00 00 00 00	 push	 OFFSET ??_C@_0BP@OIEOKIDM@Exception?5thrown?5in?5destructor@
  000a1	8d 85 e8 fd ff
	ff		 lea	 eax, DWORD PTR _strMsg$3[ebp]
  000a7	68 00 00 00 00	 push	 OFFSET ??_C@_0BB@HBOOMJBF@?$CFTs?5?$CI?$CFTs?3?$CFd?$CJ?6?$CFTs@
  000ac	50		 push	 eax
  000ad	ff 15 00 00 00
	00		 call	 DWORD PTR __imp_?Format@?$CStringT@DV?$StrTraitMFC_DLL@DV?$ChTraitsCRT@D@ATL@@@@@ATL@@QAAXPBDZZ
  000b3	83 c4 18	 add	 esp, 24			; 00000018H
  000b6	eb 21		 jmp	 SHORT $LN10@CGdiObject
$LN9@CGdiObject:
  000b8	6a 4d		 push	 77			; 0000004dH
  000ba	68 00 00 00 00	 push	 OFFSET ??_C@_0HD@JJCHHHNK@C?3?2Program?5Files?5?$CIx86?$CJ?2Microsof@
  000bf	68 00 00 00 00	 push	 OFFSET ??_C@_0BP@OIEOKIDM@Exception?5thrown?5in?5destructor@
  000c4	8d 85 e8 fd ff
	ff		 lea	 eax, DWORD PTR _strMsg$3[ebp]
  000ca	68 00 00 00 00	 push	 OFFSET ??_C@_0N@OMEMOKLE@?$CFTs?5?$CI?$CFTs?3?$CFd?$CJ@
  000cf	50		 push	 eax
  000d0	ff 15 00 00 00
	00		 call	 DWORD PTR __imp_?Format@?$CStringT@DV?$StrTraitMFC_DLL@DV?$ChTraitsCRT@D@ATL@@@@@ATL@@QAAXPBDZZ
  000d6	83 c4 14	 add	 esp, 20			; 00000014H
$LN10@CGdiObject:
  000d9	6a 00		 push	 0
  000db	6a 00		 push	 0
  000dd	ff b5 e8 fd ff
	ff		 push	 DWORD PTR _strMsg$3[ebp]
  000e3	e8 00 00 00 00	 call	 ?AfxMessageBox@@YGHPBDII@Z ; AfxMessageBox
  000e8	8d 8d e8 fd ff
	ff		 lea	 ecx, DWORD PTR _strMsg$3[ebp]
  000ee	ff 15 00 00 00
	00		 call	 DWORD PTR __imp_??1?$CStringT@DV?$StrTraitMFC_DLL@DV?$ChTraitsCRT@D@ATL@@@@@ATL@@QAE@XZ
  000f4	8b 06		 mov	 eax, DWORD PTR [esi]
  000f6	8b ce		 mov	 ecx, esi
  000f8	6a 01		 push	 1
  000fa	ff 50 04	 call	 DWORD PTR [eax+4]
  000fd	b8 00 00 00 00	 mov	 eax, $LN18@CGdiObject
  00102	c3		 ret	 0
_TEXT	ENDS
;	COMDAT text$x
text$x	SEGMENT
__unwindfunclet$??1CGdiObject@@UAE@XZ$2:
  00000	8d 8d e8 fd ff
	ff		 lea	 ecx, DWORD PTR _strMsg$3[ebp]
  00006	ff 25 00 00 00
	00		 jmp	 DWORD PTR __imp_??1?$CStringT@DV?$StrTraitMFC_DLL@DV?$ChTraitsCRT@D@ATL@@@@@ATL@@QAE@XZ
  0000c	cc		 int	 3
  0000d	cc		 int	 3
  0000e	cc		 int	 3
  0000f	cc		 int	 3
  00010	cc		 int	 3
__ehhandler$??1CGdiObject@@UAE@XZ:
  00011	90		 npad	 1
  00012	90		 npad	 1
  00013	8b 54 24 08	 mov	 edx, DWORD PTR [esp+8]
  00017	8d 42 0c	 lea	 eax, DWORD PTR [edx+12]
  0001a	8b 8a e0 fd ff
	ff		 mov	 ecx, DWORD PTR [edx-544]
  00020	33 c8		 xor	 ecx, eax
  00022	e8 00 00 00 00	 call	 @__security_check_cookie@4
  00027	8b 4a f8	 mov	 ecx, DWORD PTR [edx-8]
  0002a	33 c8		 xor	 ecx, eax
  0002c	e8 00 00 00 00	 call	 @__security_check_cookie@4
  00031	b8 00 00 00 00	 mov	 eax, OFFSET __ehfuncinfo$??1CGdiObject@@UAE@XZ
  00036	e9 00 00 00 00	 jmp	 ___CxxFrameHandler3
text$x	ENDS
??1CGdiObject@@UAE@XZ ENDP				; CGdiObject::~CGdiObject
; Function compile flags: /Ogtp
; File C:\Program Files (x86)\Microsoft Visual Studio\2019\Community\VC\Tools\MSVC\14.29.30133\atlmfc\include\afx.inl
;	COMDAT ?Dump@CObject@@UBEXAAVCDumpContext@@@Z
_TEXT	SEGMENT
___formal$ = 8						; size = 4
?Dump@CObject@@UBEXAAVCDumpContext@@@Z PROC		; CObject::Dump, COMDAT
; _this$ = ecx

; 122  : 	{ /* no dumping in release builds */ }

  00000	c2 04 00	 ret	 4
?Dump@CObject@@UBEXAAVCDumpContext@@@Z ENDP		; CObject::Dump
_TEXT	ENDS
; Function compile flags: /Ogtp
; File C:\Program Files (x86)\Microsoft Visual Studio\2019\Community\VC\Tools\MSVC\14.29.30133\atlmfc\include\afx.inl
;	COMDAT ?AssertValid@CObject@@UBEXXZ
_TEXT	SEGMENT
?AssertValid@CObject@@UBEXXZ PROC			; CObject::AssertValid, COMDAT
; _this$ = ecx

; 120  : 	{ /* no asserts in release builds */ }

  00000	c2 00 00	 ret	 0
?AssertValid@CObject@@UBEXXZ ENDP			; CObject::AssertValid
_TEXT	ENDS
; Function compile flags: /Ogtp
; File C:\Program Files (x86)\Microsoft Visual Studio\2019\Community\VC\Tools\MSVC\14.29.30133\atlmfc\include\afx.inl
;	COMDAT ?Serialize@CObject@@UAEXAAVCArchive@@@Z
_TEXT	SEGMENT
___formal$ = 8						; size = 4
?Serialize@CObject@@UAEXAAVCArchive@@@Z PROC		; CObject::Serialize, COMDAT
; _this$ = ecx

; 106  : 	{ /* CObject does not serialize anything by default */ }

  00000	c2 04 00	 ret	 4
?Serialize@CObject@@UAEXAAVCArchive@@@Z ENDP		; CObject::Serialize
_TEXT	ENDS
; Function compile flags: /Ogtp
; File C:\Program Files (x86)\Microsoft Visual Studio\2019\Community\VC\Tools\MSVC\14.29.30133\atlmfc\include\afx.inl
;	COMDAT ??1CObject@@UAE@XZ
_TEXT	SEGMENT
??1CObject@@UAE@XZ PROC					; CObject::~CObject, COMDAT
; _this$ = ecx

; 104  : 	{ }

  00000	c2 00 00	 ret	 0
??1CObject@@UAE@XZ ENDP					; CObject::~CObject
_TEXT	ENDS
; Function compile flags: /Ogtp
; File D:\git\src\IBK\IBK_DRFN\ProjSrc\SrcChartEx\ChartOCX\ScaleDraw\DataHorzScaleDrawer.cpp
;	COMDAT ?__empty_global_delete@@YAXPAXI@Z
_TEXT	SEGMENT
___formal$ = 8						; size = 4
___formal$ = 12						; size = 4
?__empty_global_delete@@YAXPAXI@Z PROC			; __empty_global_delete, COMDAT

  00000	c2 00 00	 ret	 0
?__empty_global_delete@@YAXPAXI@Z ENDP			; __empty_global_delete
_TEXT	ENDS
; Function compile flags: /Ogtp
; File D:\git\src\IBK\IBK_DRFN\ProjSrc\SrcChartEx\ChartOCX\ScaleDraw\DataHorzScaleDrawer.cpp
;	COMDAT ?__empty_global_delete@@YAXPAX@Z
_TEXT	SEGMENT
___formal$ = 8						; size = 4
?__empty_global_delete@@YAXPAX@Z PROC			; __empty_global_delete, COMDAT

  00000	c2 00 00	 ret	 0
?__empty_global_delete@@YAXPAX@Z ENDP			; __empty_global_delete
_TEXT	ENDS
END
