; Listing generated by Microsoft (R) Optimizing Compiler Version 19.29.30145.0 

	TITLE	D:\git\src\IBK\IBK_DRFN\#DRfn-CS\_Obj\ScaleDraw\HorzScaleDrawer.obj
	.686P
	.XMM
	include listing.inc
	.model	flat

INCLUDELIB MSVCRT
INCLUDELIB OLDNAMES

PUBLIC	?__empty_global_delete@@YAXPAX@Z		; __empty_global_delete
PUBLIC	?__empty_global_delete@@YAXPAXI@Z		; __empty_global_delete
PUBLIC	??0CHorzScaleDrawer@@QAE@PAUHWND__@@W4CHART_MODE@CChartInfo@@@Z ; CHorzScaleDrawer::CHorzScaleDrawer
PUBLIC	?DrawTextOrGrid@CHorzScaleDrawer@@UAE_NPAVCDC@@ABVCDrawingHorzScaleData@@ABVCRect@@ABVCHorizontalScale@@PAVCXScaleManager@@PBD@Z ; CHorzScaleDrawer::DrawTextOrGrid
PUBLIC	?DrawTextOrGrid_Both@CHorzScaleDrawer@@UAE_NPAVCDC@@ABVCDrawingHorzScaleData@@ABVCHorzScaleRegion@@ABVCHorizontalScale@@PAVCXScaleManager@@PBD@Z ; CHorzScaleDrawer::DrawTextOrGrid_Both
PUBLIC	?DrawGrid@CHorzScaleDrawer@@UAE_NPAVCDC@@ABVCDrawingHorzScaleData@@ABVCHorzScaleRegion@@ABVCHorizontalScale@@PAVCXScaleManager@@PBD@Z ; CHorzScaleDrawer::DrawGrid
PUBLIC	?IsKoreanStyle@CHorzScaleDrawer@@IBE_NABV?$CStringT@DV?$StrTraitMFC_DLL@DV?$ChTraitsCRT@D@ATL@@@@@ATL@@@Z ; CHorzScaleDrawer::IsKoreanStyle
PUBLIC	?IsTextPosion@CHorzScaleDrawer@@IBE_NHHHH@Z	; CHorzScaleDrawer::IsTextPosion
PUBLIC	?GetDrawingEnvironment@CHorzScaleDrawer@@IBEXABVCRect@@ABVCDisplayAttributes@@HAANAAH@Z ; CHorzScaleDrawer::GetDrawingEnvironment
PUBLIC	?GetDrawingEnvironment@CHorzScaleDrawer@@IBEXABVCRect@@0ABVCDisplayAttributes@@HAANAAH3@Z ; CHorzScaleDrawer::GetDrawingEnvironment
PUBLIC	?GetDrawingEnvironment@CHorzScaleDrawer@@IBE_NPAVCDC@@PAVCPacket@@ABVCRect@@ABVCDisplayDataMinMax@@ABNAAH5AANAA_N_N@Z ; CHorzScaleDrawer::GetDrawingEnvironment
PUBLIC	?GetStartAndEnd@CHorzScaleDrawer@@IBEXABVCDisplayDataMinMax@@HHAAH1@Z ; CHorzScaleDrawer::GetStartAndEnd
PUBLIC	?GetHorzScalePosition_x@CHorzScaleDrawer@@IBEHHHABN@Z ; CHorzScaleDrawer::GetHorzScalePosition_x
PUBLIC	?GetChangeNumbericData@CHorzScaleDrawer@@IBEHPAVCPacket@@HABV?$CStringT@DV?$StrTraitMFC_DLL@DV?$ChTraitsCRT@D@ATL@@@@@ATL@@1@Z ; CHorzScaleDrawer::GetChangeNumbericData
PUBLIC	?GetChangeNumbericData2@CHorzScaleDrawer@@IBEHHABV?$CStringT@DV?$StrTraitMFC_DLL@DV?$ChTraitsCRT@D@ATL@@@@@ATL@@0@Z ; CHorzScaleDrawer::GetChangeNumbericData2
PUBLIC	?GetChangeStringData@CHorzScaleDrawer@@IBE?AV?$CStringT@DV?$StrTraitMFC_DLL@DV?$ChTraitsCRT@D@ATL@@@@@ATL@@W4HORZSCALEDRAWERTYPE@CScaleBaseData@@HABV23@11@Z ; CHorzScaleDrawer::GetChangeStringData
PUBLIC	?GetChangeStringData@CHorzScaleDrawer@@IBE?AV?$CStringT@DV?$StrTraitMFC_DLL@DV?$ChTraitsCRT@D@ATL@@@@@ATL@@W4HORZSCALEDRAWERTYPE@CScaleBaseData@@HABV23@1ABVCScaleCompart@@@Z ; CHorzScaleDrawer::GetChangeStringData
PUBLIC	?DrawMultiLineTextOut@CHorzScaleDrawer@@IAEXPAVCDC@@ABVCPoint@@HABV?$CStringT@DV?$StrTraitMFC_DLL@DV?$ChTraitsCRT@D@ATL@@@@@ATL@@2K@Z ; CHorzScaleDrawer::DrawMultiLineTextOut
PUBLIC	?DrawMultiLineTextOut@CHorzScaleDrawer@@IAEXPAVCDC@@ABVCPoint@@HABV?$CStringT@DV?$StrTraitMFC_DLL@DV?$ChTraitsCRT@D@ATL@@@@@ATL@@K@Z ; CHorzScaleDrawer::DrawMultiLineTextOut
PUBLIC	?DrawGrid@CHorzScaleDrawer@@IAEXPAVCDC@@ABVCDrawingHorzScaleData@@W4SCALEGRIDTYPE@CScaleBaseData@@HH@Z ; CHorzScaleDrawer::DrawGrid
PUBLIC	?DrawTextCompartLine@CHorzScaleDrawer@@IAEXPAVCDC@@ABVCRect@@ABVCPoint@@_NK@Z ; CHorzScaleDrawer::DrawTextCompartLine
PUBLIC	?GetFindEndIndex@CHorzScaleDrawer@@IBEHABV?$CStringT@DV?$StrTraitMFC_DLL@DV?$ChTraitsCRT@D@ATL@@@@@ATL@@0@Z ; CHorzScaleDrawer::GetFindEndIndex
PUBLIC	?GetHorzScalePosition_y@CHorzScaleDrawer@@ABEHHHH@Z ; CHorzScaleDrawer::GetHorzScalePosition_y
PUBLIC	?GetGap@CHorzScaleDrawer@@ABENPAVCDC@@PAVCPacket@@ABVCRect@@ABVCDisplayDataMinMax@@ABN4@Z ; CHorzScaleDrawer::GetGap
PUBLIC	?DrawGrid@CHorzScaleDrawer@@IAEXPAVCDC@@ABVCDrawingHorzScaleData@@W4SCALEGRIDTYPE@CScaleBaseData@@KHH@Z ; CHorzScaleDrawer::DrawGrid
PUBLIC	??1CScaleCompart@@QAE@XZ			; CScaleCompart::~CScaleCompart
PUBLIC	??0CScaleCompart@@QAE@ABV0@@Z			; CScaleCompart::CScaleCompart
PUBLIC	??1CScale@@QAE@XZ				; CScale::~CScale
PUBLIC	??0CScale@@QAE@ABV0@@Z				; CScale::CScale
PUBLIC	??1CHorizontalScale@@QAE@XZ			; CHorizontalScale::~CHorizontalScale
PUBLIC	??0CHorizontalScale@@QAE@ABV0@@Z		; CHorizontalScale::CHorizontalScale
PUBLIC	?IsVertScaleMinMaxLock@CVerticalScale@@QBEHXZ	; CVerticalScale::IsVertScaleMinMaxLock
PUBLIC	?SetVertScaleMinMaxLock@CVerticalScale@@QAEXH@Z	; CVerticalScale::SetVertScaleMinMaxLock
PUBLIC	?GetVertScaleMinMaxType@CVerticalScale@@QBE?AW4VERTMINMAXTYPE@CScaleBaseData@@XZ ; CVerticalScale::GetVertScaleMinMaxType
PUBLIC	?SetVertScaleMinMaxType@CVerticalScale@@QAEXW4VERTMINMAXTYPE@CScaleBaseData@@@Z ; CVerticalScale::SetVertScaleMinMaxType
PUBLIC	?GetVertScaleMin@CVerticalScale@@QBENXZ		; CVerticalScale::GetVertScaleMin
PUBLIC	?SetVertScaleMin@CVerticalScale@@QAEXN@Z	; CVerticalScale::SetVertScaleMin
PUBLIC	?GetVertScaleMax@CVerticalScale@@QBENXZ		; CVerticalScale::GetVertScaleMax
PUBLIC	?SetVertScaleMax@CVerticalScale@@QAEXN@Z	; CVerticalScale::SetVertScaleMax
PUBLIC	?SetVertScaleHoGaNumber@CVerticalScale@@QAEXN@Z	; CVerticalScale::SetVertScaleHoGaNumber
PUBLIC	?SetVertScaleUserNumber@CVerticalScale@@QAEXN@Z	; CVerticalScale::SetVertScaleUserNumber
PUBLIC	?SetVertUserHogaScaleType@CVerticalScale@@QAEXH@Z ; CVerticalScale::SetVertUserHogaScaleType
PUBLIC	?GetVertScaleHoGaNumber@CVerticalScale@@QBENXZ	; CVerticalScale::GetVertScaleHoGaNumber
PUBLIC	?GetVertScaleUserNumber@CVerticalScale@@QBENXZ	; CVerticalScale::GetVertScaleUserNumber
PUBLIC	?GetVertUserHogaScaleType@CVerticalScale@@QBEHXZ ; CVerticalScale::GetVertUserHogaScaleType
PUBLIC	?GetVertScaleInvertType@CVerticalScale@@QBE_NXZ	; CVerticalScale::GetVertScaleInvertType
PUBLIC	?SetVertScaleInvertType@CVerticalScale@@QAEX_N@Z ; CVerticalScale::SetVertScaleInvertType
PUBLIC	?SetSpace@CVerticalScale@@QAEXHH@Z		; CVerticalScale::SetSpace
PUBLIC	?GetSpace@CVerticalScale@@QBEXAAH0@Z		; CVerticalScale::GetSpace
PUBLIC	??1CVerticalScale@@QAE@XZ			; CVerticalScale::~CVerticalScale
PUBLIC	??0CVerticalScale@@QAE@ABV0@@Z			; CVerticalScale::CVerticalScale
PUBLIC	??4CHorzScaleRegionHeight@@QAEAAV0@ABV0@@Z	; CHorzScaleRegionHeight::operator=
PUBLIC	??4CHorzScaleRegionHeight@@QAEAAV0@$$QAV0@@Z	; CHorzScaleRegionHeight::operator=
PUBLIC	??4CVertScaleRegionWidth@@QAEAAV0@ABV0@@Z	; CVertScaleRegionWidth::operator=
PUBLIC	??4CVertScaleRegionWidth@@QAEAAV0@$$QAV0@@Z	; CVertScaleRegionWidth::operator=
PUBLIC	??4CHorzScaleRegion@@QAEAAV0@ABV0@@Z		; CHorzScaleRegion::operator=
PUBLIC	??4CHorzScaleRegion@@QAEAAV0@$$QAV0@@Z		; CHorzScaleRegion::operator=
PUBLIC	??4CVertScaleRegion@@QAEAAV0@ABV0@@Z		; CVertScaleRegion::operator=
PUBLIC	??4CVertScaleRegion@@QAEAAV0@$$QAV0@@Z		; CVertScaleRegion::operator=
PUBLIC	??_7CHorzScaleDrawer@@6B@			; CHorzScaleDrawer::`vftable'
PUBLIC	??_7CScale@@6B@					; CScale::`vftable'
PUBLIC	??_7CHorizontalScale@@6B@			; CHorizontalScale::`vftable'
PUBLIC	??_7CVerticalScale@@6B@				; CVerticalScale::`vftable'
PUBLIC	??_C@_04GLAGOKOO@6666@				; `string'
PUBLIC	??_C@_04PGADPPEN@7777@				; `string'
PUBLIC	??_C@_04DNPBDGJL@9999@				; `string'
PUBLIC	??_C@_04KAPECDDI@8888@				; `string'
PUBLIC	??_C@_04ENOJBLGA@0099@				; `string'
PUBLIC	??_C@_04GMOGIGBD@3100@				; `string'
PUBLIC	??_C@_04NOMGFKAD@4100@				; `string'
PUBLIC	??_C@_04JJGGCAND@7100@				; `string'
PUBLIC	??_C@_04BLDGLHAC@8100@				; `string'
PUBLIC	??_C@_02PCIJFNDE@?$AN?6@			; `string'
PUBLIC	??_R4CHorizontalScale@@6B@			; CHorizontalScale::`RTTI Complete Object Locator'
PUBLIC	??_R0?AVCHorizontalScale@@@8			; CHorizontalScale `RTTI Type Descriptor'
PUBLIC	??_R3CHorizontalScale@@8			; CHorizontalScale::`RTTI Class Hierarchy Descriptor'
PUBLIC	??_R2CHorizontalScale@@8			; CHorizontalScale::`RTTI Base Class Array'
PUBLIC	??_R1A@?0A@EA@CHorizontalScale@@8		; CHorizontalScale::`RTTI Base Class Descriptor at (0,-1,0,64)'
PUBLIC	??_R1A@?0A@EA@CScale@@8				; CScale::`RTTI Base Class Descriptor at (0,-1,0,64)'
PUBLIC	??_R0?AVCScale@@@8				; CScale `RTTI Type Descriptor'
PUBLIC	??_R3CScale@@8					; CScale::`RTTI Class Hierarchy Descriptor'
PUBLIC	??_R2CScale@@8					; CScale::`RTTI Base Class Array'
PUBLIC	??_R4CHorzScaleDrawer@@6B@			; CHorzScaleDrawer::`RTTI Complete Object Locator'
PUBLIC	??_R0?AVCHorzScaleDrawer@@@8			; CHorzScaleDrawer `RTTI Type Descriptor'
PUBLIC	??_R3CHorzScaleDrawer@@8			; CHorzScaleDrawer::`RTTI Class Hierarchy Descriptor'
PUBLIC	??_R2CHorzScaleDrawer@@8			; CHorzScaleDrawer::`RTTI Base Class Array'
PUBLIC	??_R1A@?0A@EA@CHorzScaleDrawer@@8		; CHorzScaleDrawer::`RTTI Base Class Descriptor at (0,-1,0,64)'
PUBLIC	??_R13?0A@EA@CDrawer@@8				; CDrawer::`RTTI Base Class Descriptor at (4,-1,0,64)'
PUBLIC	??_R0?AVCDrawer@@@8				; CDrawer `RTTI Type Descriptor'
PUBLIC	??_R3CDrawer@@8					; CDrawer::`RTTI Class Hierarchy Descriptor'
PUBLIC	??_R2CDrawer@@8					; CDrawer::`RTTI Base Class Array'
PUBLIC	??_R1A@?0A@EA@CDrawer@@8			; CDrawer::`RTTI Base Class Descriptor at (0,-1,0,64)'
PUBLIC	??_R4CScale@@6B@				; CScale::`RTTI Complete Object Locator'
PUBLIC	??_R4CVerticalScale@@6B@			; CVerticalScale::`RTTI Complete Object Locator'
PUBLIC	??_R0?AVCVerticalScale@@@8			; CVerticalScale `RTTI Type Descriptor'
PUBLIC	??_R3CVerticalScale@@8				; CVerticalScale::`RTTI Class Hierarchy Descriptor'
PUBLIC	??_R2CVerticalScale@@8				; CVerticalScale::`RTTI Base Class Array'
PUBLIC	??_R1A@?0A@EA@CVerticalScale@@8			; CVerticalScale::`RTTI Base Class Descriptor at (0,-1,0,64)'
PUBLIC	__real@0000000000000000
EXTRN	__purecall:PROC
EXTRN	__imp__GetTextExtentPoint32A@16:PROC
EXTRN	__imp_??0?$CStringT@DV?$StrTraitMFC_DLL@DV?$ChTraitsCRT@D@ATL@@@@@ATL@@QAE@XZ:PROC
EXTRN	__imp_??0?$CStringT@DV?$StrTraitMFC_DLL@DV?$ChTraitsCRT@D@ATL@@@@@ATL@@QAE@ABV01@@Z:PROC
EXTRN	__imp_??0?$CStringT@DV?$StrTraitMFC_DLL@DV?$ChTraitsCRT@D@ATL@@@@@ATL@@QAE@PBD@Z:PROC
EXTRN	__imp_??1?$CStringT@DV?$StrTraitMFC_DLL@DV?$ChTraitsCRT@D@ATL@@@@@ATL@@QAE@XZ:PROC
EXTRN	__imp_??4?$CStringT@DV?$StrTraitMFC_DLL@DV?$ChTraitsCRT@D@ATL@@@@@ATL@@QAEAAV01@ABV01@@Z:PROC
EXTRN	__imp_??Y?$CStringT@DV?$StrTraitMFC_DLL@DV?$ChTraitsCRT@D@ATL@@@@@ATL@@QAEAAV01@PBD@Z:PROC
EXTRN	__imp_?Compare@?$CStringT@DV?$StrTraitMFC_DLL@DV?$ChTraitsCRT@D@ATL@@@@@ATL@@QBEHPBD@Z:PROC
EXTRN	__imp_?Find@?$CStringT@DV?$StrTraitMFC_DLL@DV?$ChTraitsCRT@D@ATL@@@@@ATL@@QBEHDH@Z:PROC
EXTRN	__imp_?Find@?$CStringT@DV?$StrTraitMFC_DLL@DV?$ChTraitsCRT@D@ATL@@@@@ATL@@QBEHPBDH@Z:PROC
EXTRN	__imp_?TrimRight@?$CStringT@DV?$StrTraitMFC_DLL@DV?$ChTraitsCRT@D@ATL@@@@@ATL@@QAEAAV12@PBD@Z:PROC
EXTRN	__imp_?TrimLeft@?$CStringT@DV?$StrTraitMFC_DLL@DV?$ChTraitsCRT@D@ATL@@@@@ATL@@QAEAAV12@PBD@Z:PROC
EXTRN	__imp_?Right@?$CStringT@DV?$StrTraitMFC_DLL@DV?$ChTraitsCRT@D@ATL@@@@@ATL@@QBE?AV12@H@Z:PROC
EXTRN	__imp_?Left@?$CStringT@DV?$StrTraitMFC_DLL@DV?$ChTraitsCRT@D@ATL@@@@@ATL@@QBE?AV12@H@Z:PROC
EXTRN	?GetPacketDataType@CDrawer@@IBE?AV?$CStringT@DV?$StrTraitMFC_DLL@DV?$ChTraitsCRT@D@ATL@@@@@ATL@@PAVCPacket@@@Z:PROC ; CDrawer::GetPacketDataType
EXTRN	?GetDateData@CDrawer@@IBE_NPAVCPacket@@HAAH@Z:PROC ; CDrawer::GetDateData
EXTRN	?GetOnePointWidth@CDrawer@@IBENHH@Z:PROC	; CDrawer::GetOnePointWidth
EXTRN	?DrawTextOut@CDrawer@@IAEXPAVCDC@@ABVCPoint@@ABV?$CStringT@DV?$StrTraitMFC_DLL@DV?$ChTraitsCRT@D@ATL@@@@@ATL@@K@Z:PROC ; CDrawer::DrawTextOut
EXTRN	?DrawGrid@CDrawer@@IAEXPAVCDC@@W4SCALEGRIDTYPE@CScaleBaseData@@ABVCPoint@@2KH@Z:PROC ; CDrawer::DrawGrid
EXTRN	?DrawLine@CDrawer@@IAEXPAVCDC@@ABVCPoint@@1KHHH@Z:PROC ; CDrawer::DrawLine
EXTRN	?GetLanguageText@IMetaTable@@QAEPBDPAUHWND__@@W4E_CODEPAGE@1@PBDH@Z:PROC ; IMetaTable::GetLanguageText
EXTRN	?SetScaleData@CScale@@UAEXPADPAUHWND__@@@Z:PROC	; CScale::SetScaleData
EXTRN	?SetScaleData@CHorizontalScale@@UAEXPADPAUHWND__@@@Z:PROC ; CHorizontalScale::SetScaleData
EXTRN	?SetScaleData@CVerticalScale@@UAEXPADPAUHWND__@@@Z:PROC ; CVerticalScale::SetScaleData
EXTRN	?GetDisplayMin@CDisplayDataMinMax@@QBENXZ:PROC	; CDisplayDataMinMax::GetDisplayMin
EXTRN	?GetDisplayMax@CDisplayDataMinMax@@QBENXZ:PROC	; CDisplayDataMinMax::GetDisplayMax
EXTRN	?GetCount@CDisplayDataMinMax@@QBENXZ:PROC	; CDisplayDataMinMax::GetCount
EXTRN	__imp_?GetHorzScaleColor@CScaleColor@@QAEAAKXZ:PROC
EXTRN	?GetDataCountInBlock@CDisplayAttributes@@QBEHXZ:PROC ; CDisplayAttributes::GetDataCountInBlock
EXTRN	?GetDrawingGraphRegion@CDrawingHorzScaleData@@QBE?AVCRect@@XZ:PROC ; CDrawingHorzScaleData::GetDrawingGraphRegion
EXTRN	?GetScaleColor@CDrawingHorzScaleData@@QBE?AVCScaleColor@@XZ:PROC ; CDrawingHorzScaleData::GetScaleColor
EXTRN	?IntToString@CDataConversion@@SA?AV?$CStringT@DV?$StrTraitMFC_DLL@DV?$ChTraitsCRT@D@ATL@@@@@ATL@@H@Z:PROC ; CDataConversion::IntToString
EXTRN	?IntToString@CDataConversion@@SA?AV?$CStringT@DV?$StrTraitMFC_DLL@DV?$ChTraitsCRT@D@ATL@@@@@ATL@@_JH@Z:PROC ; CDataConversion::IntToString
EXTRN	?DoubleToString@CDataConversion@@SA?AV?$CStringT@DV?$StrTraitMFC_DLL@DV?$ChTraitsCRT@D@ATL@@@@@ATL@@ABN@Z:PROC ; CDataConversion::DoubleToString
EXTRN	?GetStringData@CDataConversion@@SA?AV?$CStringT@DV?$StrTraitMFC_DLL@DV?$ChTraitsCRT@D@ATL@@@@@ATL@@AAV23@ABV23@_N@Z:PROC ; CDataConversion::GetStringData
EXTRN	?GetStringDataCount@CDataConversion@@SAHABV?$CStringT@DV?$StrTraitMFC_DLL@DV?$ChTraitsCRT@D@ATL@@@@@ATL@@0@Z:PROC ; CDataConversion::GetStringDataCount
EXTRN	?GetStringFormatTrans@CDataConversion@@QAE?AV?$CStringT@DV?$StrTraitMFC_DLL@DV?$ChTraitsCRT@D@ATL@@@@@ATL@@ABV23@0@Z:PROC ; CDataConversion::GetStringFormatTrans
EXTRN	?Round@CMath@@SAHN@Z:PROC			; CMath::Round
EXTRN	?Power@CMath@@SAHHH@Z:PROC			; CMath::Power
EXTRN	?GetCompartScaleData@CScaleCalculator@@QAE?AV?$CStringT@DV?$StrTraitMFC_DLL@DV?$ChTraitsCRT@D@ATL@@@@@ATL@@W4HORZSCALEDRAWERTYPE@CScaleBaseData@@ABV23@1ABVCScaleCompart@@@Z:PROC ; CScaleCalculator::GetCompartScaleData
EXTRN	?GetCompartScaleData_Date@CScaleCalculator@@QAE?AV?$CStringT@DV?$StrTraitMFC_DLL@DV?$ChTraitsCRT@D@ATL@@@@@ATL@@ABV23@00@Z:PROC ; CScaleCalculator::GetCompartScaleData_Date
EXTRN	??0CVertScaleDrawer@@QAE@PAUHWND__@@W4CHART_MODE@CChartInfo@@@Z:PROC ; CVertScaleDrawer::CVertScaleDrawer
EXTRN	?GetDrawingEnvironment@CVertScaleDrawer@@QBE_NABVCDisplayDataMinMax@@ABV?$CStringT@DV?$StrTraitMFC_DLL@DV?$ChTraitsCRT@D@ATL@@@@@ATL@@HAANAAH3AA_N@Z:PROC ; CVertScaleDrawer::GetDrawingEnvironment
EXTRN	@__security_check_cookie@4:PROC
EXTRN	___CxxFrameHandler3:PROC
EXTRN	??_7type_info@@6B@:QWORD			; type_info::`vftable'
EXTRN	?g_iMetaTable@@3VIMetaTable@@A:BYTE		; g_iMetaTable
EXTRN	___security_cookie:DWORD
EXTRN	__fltused:DWORD
;	COMDAT __real@0000000000000000
CONST	SEGMENT
__real@0000000000000000 DQ 00000000000000000r	; 0
CONST	ENDS
;	COMDAT ??_R1A@?0A@EA@CVerticalScale@@8
rdata$r	SEGMENT
??_R1A@?0A@EA@CVerticalScale@@8 DD FLAT:??_R0?AVCVerticalScale@@@8 ; CVerticalScale::`RTTI Base Class Descriptor at (0,-1,0,64)'
	DD	01H
	DD	00H
	DD	0ffffffffH
	DD	00H
	DD	040H
	DD	FLAT:??_R3CVerticalScale@@8
rdata$r	ENDS
;	COMDAT ??_R2CVerticalScale@@8
rdata$r	SEGMENT
??_R2CVerticalScale@@8 DD FLAT:??_R1A@?0A@EA@CVerticalScale@@8 ; CVerticalScale::`RTTI Base Class Array'
	DD	FLAT:??_R1A@?0A@EA@CScale@@8
rdata$r	ENDS
;	COMDAT ??_R3CVerticalScale@@8
rdata$r	SEGMENT
??_R3CVerticalScale@@8 DD 00H				; CVerticalScale::`RTTI Class Hierarchy Descriptor'
	DD	00H
	DD	02H
	DD	FLAT:??_R2CVerticalScale@@8
rdata$r	ENDS
;	COMDAT ??_R0?AVCVerticalScale@@@8
data$rs	SEGMENT
??_R0?AVCVerticalScale@@@8 DD FLAT:??_7type_info@@6B@	; CVerticalScale `RTTI Type Descriptor'
	DD	00H
	DB	'.?AVCVerticalScale@@', 00H
data$rs	ENDS
;	COMDAT ??_R4CVerticalScale@@6B@
rdata$r	SEGMENT
??_R4CVerticalScale@@6B@ DD 00H				; CVerticalScale::`RTTI Complete Object Locator'
	DD	00H
	DD	00H
	DD	FLAT:??_R0?AVCVerticalScale@@@8
	DD	FLAT:??_R3CVerticalScale@@8
rdata$r	ENDS
;	COMDAT ??_R4CScale@@6B@
rdata$r	SEGMENT
??_R4CScale@@6B@ DD 00H					; CScale::`RTTI Complete Object Locator'
	DD	00H
	DD	00H
	DD	FLAT:??_R0?AVCScale@@@8
	DD	FLAT:??_R3CScale@@8
rdata$r	ENDS
;	COMDAT ??_R1A@?0A@EA@CDrawer@@8
rdata$r	SEGMENT
??_R1A@?0A@EA@CDrawer@@8 DD FLAT:??_R0?AVCDrawer@@@8	; CDrawer::`RTTI Base Class Descriptor at (0,-1,0,64)'
	DD	00H
	DD	00H
	DD	0ffffffffH
	DD	00H
	DD	040H
	DD	FLAT:??_R3CDrawer@@8
rdata$r	ENDS
;	COMDAT ??_R2CDrawer@@8
rdata$r	SEGMENT
??_R2CDrawer@@8 DD FLAT:??_R1A@?0A@EA@CDrawer@@8	; CDrawer::`RTTI Base Class Array'
rdata$r	ENDS
;	COMDAT ??_R3CDrawer@@8
rdata$r	SEGMENT
??_R3CDrawer@@8 DD 00H					; CDrawer::`RTTI Class Hierarchy Descriptor'
	DD	00H
	DD	01H
	DD	FLAT:??_R2CDrawer@@8
rdata$r	ENDS
;	COMDAT ??_R0?AVCDrawer@@@8
data$rs	SEGMENT
??_R0?AVCDrawer@@@8 DD FLAT:??_7type_info@@6B@		; CDrawer `RTTI Type Descriptor'
	DD	00H
	DB	'.?AVCDrawer@@', 00H
data$rs	ENDS
;	COMDAT ??_R13?0A@EA@CDrawer@@8
rdata$r	SEGMENT
??_R13?0A@EA@CDrawer@@8 DD FLAT:??_R0?AVCDrawer@@@8	; CDrawer::`RTTI Base Class Descriptor at (4,-1,0,64)'
	DD	00H
	DD	04H
	DD	0ffffffffH
	DD	00H
	DD	040H
	DD	FLAT:??_R3CDrawer@@8
rdata$r	ENDS
;	COMDAT ??_R1A@?0A@EA@CHorzScaleDrawer@@8
rdata$r	SEGMENT
??_R1A@?0A@EA@CHorzScaleDrawer@@8 DD FLAT:??_R0?AVCHorzScaleDrawer@@@8 ; CHorzScaleDrawer::`RTTI Base Class Descriptor at (0,-1,0,64)'
	DD	01H
	DD	00H
	DD	0ffffffffH
	DD	00H
	DD	040H
	DD	FLAT:??_R3CHorzScaleDrawer@@8
rdata$r	ENDS
;	COMDAT ??_R2CHorzScaleDrawer@@8
rdata$r	SEGMENT
??_R2CHorzScaleDrawer@@8 DD FLAT:??_R1A@?0A@EA@CHorzScaleDrawer@@8 ; CHorzScaleDrawer::`RTTI Base Class Array'
	DD	FLAT:??_R13?0A@EA@CDrawer@@8
rdata$r	ENDS
;	COMDAT ??_R3CHorzScaleDrawer@@8
rdata$r	SEGMENT
??_R3CHorzScaleDrawer@@8 DD 00H				; CHorzScaleDrawer::`RTTI Class Hierarchy Descriptor'
	DD	00H
	DD	02H
	DD	FLAT:??_R2CHorzScaleDrawer@@8
rdata$r	ENDS
;	COMDAT ??_R0?AVCHorzScaleDrawer@@@8
data$rs	SEGMENT
??_R0?AVCHorzScaleDrawer@@@8 DD FLAT:??_7type_info@@6B@	; CHorzScaleDrawer `RTTI Type Descriptor'
	DD	00H
	DB	'.?AVCHorzScaleDrawer@@', 00H
data$rs	ENDS
;	COMDAT ??_R4CHorzScaleDrawer@@6B@
rdata$r	SEGMENT
??_R4CHorzScaleDrawer@@6B@ DD 00H			; CHorzScaleDrawer::`RTTI Complete Object Locator'
	DD	00H
	DD	00H
	DD	FLAT:??_R0?AVCHorzScaleDrawer@@@8
	DD	FLAT:??_R3CHorzScaleDrawer@@8
rdata$r	ENDS
;	COMDAT ??_R2CScale@@8
rdata$r	SEGMENT
??_R2CScale@@8 DD FLAT:??_R1A@?0A@EA@CScale@@8		; CScale::`RTTI Base Class Array'
rdata$r	ENDS
;	COMDAT ??_R3CScale@@8
rdata$r	SEGMENT
??_R3CScale@@8 DD 00H					; CScale::`RTTI Class Hierarchy Descriptor'
	DD	00H
	DD	01H
	DD	FLAT:??_R2CScale@@8
rdata$r	ENDS
;	COMDAT ??_R0?AVCScale@@@8
data$rs	SEGMENT
??_R0?AVCScale@@@8 DD FLAT:??_7type_info@@6B@		; CScale `RTTI Type Descriptor'
	DD	00H
	DB	'.?AVCScale@@', 00H
data$rs	ENDS
;	COMDAT ??_R1A@?0A@EA@CScale@@8
rdata$r	SEGMENT
??_R1A@?0A@EA@CScale@@8 DD FLAT:??_R0?AVCScale@@@8	; CScale::`RTTI Base Class Descriptor at (0,-1,0,64)'
	DD	00H
	DD	00H
	DD	0ffffffffH
	DD	00H
	DD	040H
	DD	FLAT:??_R3CScale@@8
rdata$r	ENDS
;	COMDAT ??_R1A@?0A@EA@CHorizontalScale@@8
rdata$r	SEGMENT
??_R1A@?0A@EA@CHorizontalScale@@8 DD FLAT:??_R0?AVCHorizontalScale@@@8 ; CHorizontalScale::`RTTI Base Class Descriptor at (0,-1,0,64)'
	DD	01H
	DD	00H
	DD	0ffffffffH
	DD	00H
	DD	040H
	DD	FLAT:??_R3CHorizontalScale@@8
rdata$r	ENDS
;	COMDAT ??_R2CHorizontalScale@@8
rdata$r	SEGMENT
??_R2CHorizontalScale@@8 DD FLAT:??_R1A@?0A@EA@CHorizontalScale@@8 ; CHorizontalScale::`RTTI Base Class Array'
	DD	FLAT:??_R1A@?0A@EA@CScale@@8
rdata$r	ENDS
;	COMDAT ??_R3CHorizontalScale@@8
rdata$r	SEGMENT
??_R3CHorizontalScale@@8 DD 00H				; CHorizontalScale::`RTTI Class Hierarchy Descriptor'
	DD	00H
	DD	02H
	DD	FLAT:??_R2CHorizontalScale@@8
rdata$r	ENDS
;	COMDAT ??_R0?AVCHorizontalScale@@@8
data$rs	SEGMENT
??_R0?AVCHorizontalScale@@@8 DD FLAT:??_7type_info@@6B@	; CHorizontalScale `RTTI Type Descriptor'
	DD	00H
	DB	'.?AVCHorizontalScale@@', 00H
data$rs	ENDS
;	COMDAT ??_R4CHorizontalScale@@6B@
rdata$r	SEGMENT
??_R4CHorizontalScale@@6B@ DD 00H			; CHorizontalScale::`RTTI Complete Object Locator'
	DD	00H
	DD	00H
	DD	FLAT:??_R0?AVCHorizontalScale@@@8
	DD	FLAT:??_R3CHorizontalScale@@8
rdata$r	ENDS
;	COMDAT ??_C@_02PCIJFNDE@?$AN?6@
CONST	SEGMENT
??_C@_02PCIJFNDE@?$AN?6@ DB 0dH, 0aH, 00H		; `string'
CONST	ENDS
;	COMDAT ??_C@_04BLDGLHAC@8100@
CONST	SEGMENT
??_C@_04BLDGLHAC@8100@ DB '8100', 00H			; `string'
CONST	ENDS
;	COMDAT ??_C@_04JJGGCAND@7100@
CONST	SEGMENT
??_C@_04JJGGCAND@7100@ DB '7100', 00H			; `string'
CONST	ENDS
;	COMDAT ??_C@_04NOMGFKAD@4100@
CONST	SEGMENT
??_C@_04NOMGFKAD@4100@ DB '4100', 00H			; `string'
CONST	ENDS
;	COMDAT ??_C@_04GMOGIGBD@3100@
CONST	SEGMENT
??_C@_04GMOGIGBD@3100@ DB '3100', 00H			; `string'
CONST	ENDS
;	COMDAT ??_C@_04ENOJBLGA@0099@
CONST	SEGMENT
??_C@_04ENOJBLGA@0099@ DB '0099', 00H			; `string'
CONST	ENDS
;	COMDAT ??_C@_04KAPECDDI@8888@
CONST	SEGMENT
??_C@_04KAPECDDI@8888@ DB '8888', 00H			; `string'
CONST	ENDS
;	COMDAT ??_C@_04DNPBDGJL@9999@
CONST	SEGMENT
??_C@_04DNPBDGJL@9999@ DB '9999', 00H			; `string'
CONST	ENDS
;	COMDAT ??_C@_04PGADPPEN@7777@
CONST	SEGMENT
??_C@_04PGADPPEN@7777@ DB '7777', 00H			; `string'
CONST	ENDS
;	COMDAT ??_C@_04GLAGOKOO@6666@
CONST	SEGMENT
??_C@_04GLAGOKOO@6666@ DB '6666', 00H			; `string'
CONST	ENDS
;	COMDAT ??_7CVerticalScale@@6B@
CONST	SEGMENT
??_7CVerticalScale@@6B@ DD FLAT:??_R4CVerticalScale@@6B@ ; CVerticalScale::`vftable'
	DD	FLAT:?SetScaleData@CVerticalScale@@UAEXPADPAUHWND__@@@Z
CONST	ENDS
;	COMDAT ??_7CHorizontalScale@@6B@
CONST	SEGMENT
??_7CHorizontalScale@@6B@ DD FLAT:??_R4CHorizontalScale@@6B@ ; CHorizontalScale::`vftable'
	DD	FLAT:?SetScaleData@CHorizontalScale@@UAEXPADPAUHWND__@@@Z
CONST	ENDS
;	COMDAT ??_7CScale@@6B@
CONST	SEGMENT
??_7CScale@@6B@ DD FLAT:??_R4CScale@@6B@		; CScale::`vftable'
	DD	FLAT:?SetScaleData@CScale@@UAEXPADPAUHWND__@@@Z
CONST	ENDS
;	COMDAT ??_7CHorzScaleDrawer@@6B@
CONST	SEGMENT
??_7CHorzScaleDrawer@@6B@ DD FLAT:??_R4CHorzScaleDrawer@@6B@ ; CHorzScaleDrawer::`vftable'
	DD	FLAT:?DrawTextOrGrid@CHorzScaleDrawer@@UAE_NPAVCDC@@ABVCDrawingHorzScaleData@@ABVCRect@@ABVCHorizontalScale@@PAVCXScaleManager@@PBD@Z
	DD	FLAT:__purecall
	DD	FLAT:?DrawTextOrGrid_Both@CHorzScaleDrawer@@UAE_NPAVCDC@@ABVCDrawingHorzScaleData@@ABVCHorzScaleRegion@@ABVCHorizontalScale@@PAVCXScaleManager@@PBD@Z
	DD	FLAT:__purecall
	DD	FLAT:?DrawGrid@CHorzScaleDrawer@@UAE_NPAVCDC@@ABVCDrawingHorzScaleData@@ABVCHorzScaleRegion@@ABVCHorizontalScale@@PAVCXScaleManager@@PBD@Z
	DD	FLAT:__purecall
CONST	ENDS
;	COMDAT xdata$x
xdata$x	SEGMENT
__unwindtable$??0CHorizontalScale@@QAE@ABV0@@Z DD 0ffffffffH
	DD	FLAT:__unwindfunclet$??0CHorizontalScale@@QAE@ABV0@@Z$0
	DD	00H
	DD	FLAT:__unwindfunclet$??0CHorizontalScale@@QAE@ABV0@@Z$3
__ehfuncinfo$??0CHorizontalScale@@QAE@ABV0@@Z DD 019930522H
	DD	02H
	DD	FLAT:__unwindtable$??0CHorizontalScale@@QAE@ABV0@@Z
	DD	2 DUP(00H)
	DD	2 DUP(00H)
	DD	00H
	DD	01H
xdata$x	ENDS
;	COMDAT xdata$x
xdata$x	SEGMENT
__unwindtable$??0CScaleCompart@@QAE@ABV0@@Z DD 0ffffffffH
	DD	FLAT:__unwindfunclet$??0CScaleCompart@@QAE@ABV0@@Z$0
__ehfuncinfo$??0CScaleCompart@@QAE@ABV0@@Z DD 019930522H
	DD	01H
	DD	FLAT:__unwindtable$??0CScaleCompart@@QAE@ABV0@@Z
	DD	2 DUP(00H)
	DD	2 DUP(00H)
	DD	00H
	DD	01H
xdata$x	ENDS
;	COMDAT xdata$x
xdata$x	SEGMENT
__unwindtable$?GetFindEndIndex@CHorzScaleDrawer@@IBEHABV?$CStringT@DV?$StrTraitMFC_DLL@DV?$ChTraitsCRT@D@ATL@@@@@ATL@@0@Z DD 0ffffffffH
	DD	FLAT:__unwindfunclet$?GetFindEndIndex@CHorzScaleDrawer@@IBEHABV?$CStringT@DV?$StrTraitMFC_DLL@DV?$ChTraitsCRT@D@ATL@@@@@ATL@@0@Z$0
__ehfuncinfo$?GetFindEndIndex@CHorzScaleDrawer@@IBEHABV?$CStringT@DV?$StrTraitMFC_DLL@DV?$ChTraitsCRT@D@ATL@@@@@ATL@@0@Z DD 019930522H
	DD	01H
	DD	FLAT:__unwindtable$?GetFindEndIndex@CHorzScaleDrawer@@IBEHABV?$CStringT@DV?$StrTraitMFC_DLL@DV?$ChTraitsCRT@D@ATL@@@@@ATL@@0@Z
	DD	2 DUP(00H)
	DD	2 DUP(00H)
	DD	00H
	DD	01H
xdata$x	ENDS
;	COMDAT xdata$x
xdata$x	SEGMENT
__ehfuncinfo$?DrawMultiLineTextOut@CHorzScaleDrawer@@IAEXPAVCDC@@ABVCPoint@@HABV?$CStringT@DV?$StrTraitMFC_DLL@DV?$ChTraitsCRT@D@ATL@@@@@ATL@@K@Z DD 019930522H
	DD	05H
	DD	FLAT:__unwindtable$?DrawMultiLineTextOut@CHorzScaleDrawer@@IAEXPAVCDC@@ABVCPoint@@HABV?$CStringT@DV?$StrTraitMFC_DLL@DV?$ChTraitsCRT@D@ATL@@@@@ATL@@K@Z
	DD	2 DUP(00H)
	DD	2 DUP(00H)
	DD	00H
	DD	01H
__unwindtable$?DrawMultiLineTextOut@CHorzScaleDrawer@@IAEXPAVCDC@@ABVCPoint@@HABV?$CStringT@DV?$StrTraitMFC_DLL@DV?$ChTraitsCRT@D@ATL@@@@@ATL@@K@Z DD 0ffffffffH
	DD	FLAT:__unwindfunclet$?DrawMultiLineTextOut@CHorzScaleDrawer@@IAEXPAVCDC@@ABVCPoint@@HABV?$CStringT@DV?$StrTraitMFC_DLL@DV?$ChTraitsCRT@D@ATL@@@@@ATL@@K@Z$0
	DD	00H
	DD	FLAT:__unwindfunclet$?DrawMultiLineTextOut@CHorzScaleDrawer@@IAEXPAVCDC@@ABVCPoint@@HABV?$CStringT@DV?$StrTraitMFC_DLL@DV?$ChTraitsCRT@D@ATL@@@@@ATL@@K@Z$1
	DD	00H
	DD	FLAT:__unwindfunclet$?DrawMultiLineTextOut@CHorzScaleDrawer@@IAEXPAVCDC@@ABVCPoint@@HABV?$CStringT@DV?$StrTraitMFC_DLL@DV?$ChTraitsCRT@D@ATL@@@@@ATL@@K@Z$2
	DD	02H
	DD	FLAT:__unwindfunclet$?DrawMultiLineTextOut@CHorzScaleDrawer@@IAEXPAVCDC@@ABVCPoint@@HABV?$CStringT@DV?$StrTraitMFC_DLL@DV?$ChTraitsCRT@D@ATL@@@@@ATL@@K@Z$3
	DD	00H
	DD	FLAT:__unwindfunclet$?DrawMultiLineTextOut@CHorzScaleDrawer@@IAEXPAVCDC@@ABVCPoint@@HABV?$CStringT@DV?$StrTraitMFC_DLL@DV?$ChTraitsCRT@D@ATL@@@@@ATL@@K@Z$3
xdata$x	ENDS
;	COMDAT xdata$x
xdata$x	SEGMENT
__ehfuncinfo$?DrawMultiLineTextOut@CHorzScaleDrawer@@IAEXPAVCDC@@ABVCPoint@@HABV?$CStringT@DV?$StrTraitMFC_DLL@DV?$ChTraitsCRT@D@ATL@@@@@ATL@@2K@Z DD 019930522H
	DD	09H
	DD	FLAT:__unwindtable$?DrawMultiLineTextOut@CHorzScaleDrawer@@IAEXPAVCDC@@ABVCPoint@@HABV?$CStringT@DV?$StrTraitMFC_DLL@DV?$ChTraitsCRT@D@ATL@@@@@ATL@@2K@Z
	DD	2 DUP(00H)
	DD	2 DUP(00H)
	DD	00H
	DD	01H
__unwindtable$?DrawMultiLineTextOut@CHorzScaleDrawer@@IAEXPAVCDC@@ABVCPoint@@HABV?$CStringT@DV?$StrTraitMFC_DLL@DV?$ChTraitsCRT@D@ATL@@@@@ATL@@2K@Z DD 0ffffffffH
	DD	FLAT:__unwindfunclet$?DrawMultiLineTextOut@CHorzScaleDrawer@@IAEXPAVCDC@@ABVCPoint@@HABV?$CStringT@DV?$StrTraitMFC_DLL@DV?$ChTraitsCRT@D@ATL@@@@@ATL@@2K@Z$0
	DD	00H
	DD	FLAT:__unwindfunclet$?DrawMultiLineTextOut@CHorzScaleDrawer@@IAEXPAVCDC@@ABVCPoint@@HABV?$CStringT@DV?$StrTraitMFC_DLL@DV?$ChTraitsCRT@D@ATL@@@@@ATL@@2K@Z$1
	DD	01H
	DD	FLAT:__unwindfunclet$?DrawMultiLineTextOut@CHorzScaleDrawer@@IAEXPAVCDC@@ABVCPoint@@HABV?$CStringT@DV?$StrTraitMFC_DLL@DV?$ChTraitsCRT@D@ATL@@@@@ATL@@2K@Z$2
	DD	01H
	DD	FLAT:__unwindfunclet$?DrawMultiLineTextOut@CHorzScaleDrawer@@IAEXPAVCDC@@ABVCPoint@@HABV?$CStringT@DV?$StrTraitMFC_DLL@DV?$ChTraitsCRT@D@ATL@@@@@ATL@@2K@Z$3
	DD	03H
	DD	FLAT:__unwindfunclet$?DrawMultiLineTextOut@CHorzScaleDrawer@@IAEXPAVCDC@@ABVCPoint@@HABV?$CStringT@DV?$StrTraitMFC_DLL@DV?$ChTraitsCRT@D@ATL@@@@@ATL@@2K@Z$4
	DD	01H
	DD	FLAT:__unwindfunclet$?DrawMultiLineTextOut@CHorzScaleDrawer@@IAEXPAVCDC@@ABVCPoint@@HABV?$CStringT@DV?$StrTraitMFC_DLL@DV?$ChTraitsCRT@D@ATL@@@@@ATL@@2K@Z$4
	DD	05H
	DD	FLAT:__unwindfunclet$?DrawMultiLineTextOut@CHorzScaleDrawer@@IAEXPAVCDC@@ABVCPoint@@HABV?$CStringT@DV?$StrTraitMFC_DLL@DV?$ChTraitsCRT@D@ATL@@@@@ATL@@2K@Z$5
	DD	06H
	DD	FLAT:__unwindfunclet$?DrawMultiLineTextOut@CHorzScaleDrawer@@IAEXPAVCDC@@ABVCPoint@@HABV?$CStringT@DV?$StrTraitMFC_DLL@DV?$ChTraitsCRT@D@ATL@@@@@ATL@@2K@Z$6
	DD	05H
	DD	FLAT:__unwindfunclet$?DrawMultiLineTextOut@CHorzScaleDrawer@@IAEXPAVCDC@@ABVCPoint@@HABV?$CStringT@DV?$StrTraitMFC_DLL@DV?$ChTraitsCRT@D@ATL@@@@@ATL@@2K@Z$6
xdata$x	ENDS
;	COMDAT xdata$x
xdata$x	SEGMENT
__ehfuncinfo$?GetChangeStringData@CHorzScaleDrawer@@IBE?AV?$CStringT@DV?$StrTraitMFC_DLL@DV?$ChTraitsCRT@D@ATL@@@@@ATL@@W4HORZSCALEDRAWERTYPE@CScaleBaseData@@HABV23@1ABVCScaleCompart@@@Z DD 019930522H
	DD	05H
	DD	FLAT:__unwindtable$?GetChangeStringData@CHorzScaleDrawer@@IBE?AV?$CStringT@DV?$StrTraitMFC_DLL@DV?$ChTraitsCRT@D@ATL@@@@@ATL@@W4HORZSCALEDRAWERTYPE@CScaleBaseData@@HABV23@1ABVCScaleCompart@@@Z
	DD	2 DUP(00H)
	DD	2 DUP(00H)
	DD	00H
	DD	01H
__unwindtable$?GetChangeStringData@CHorzScaleDrawer@@IBE?AV?$CStringT@DV?$StrTraitMFC_DLL@DV?$ChTraitsCRT@D@ATL@@@@@ATL@@W4HORZSCALEDRAWERTYPE@CScaleBaseData@@HABV23@1ABVCScaleCompart@@@Z DD 0ffffffffH
	DD	FLAT:__unwindfunclet$?GetChangeStringData@CHorzScaleDrawer@@IBE?AV?$CStringT@DV?$StrTraitMFC_DLL@DV?$ChTraitsCRT@D@ATL@@@@@ATL@@W4HORZSCALEDRAWERTYPE@CScaleBaseData@@HABV23@1ABVCScaleCompart@@@Z$0
	DD	00H
	DD	FLAT:__unwindfunclet$?GetChangeStringData@CHorzScaleDrawer@@IBE?AV?$CStringT@DV?$StrTraitMFC_DLL@DV?$ChTraitsCRT@D@ATL@@@@@ATL@@W4HORZSCALEDRAWERTYPE@CScaleBaseData@@HABV23@1ABVCScaleCompart@@@Z$1
	DD	00H
	DD	FLAT:__unwindfunclet$?GetChangeStringData@CHorzScaleDrawer@@IBE?AV?$CStringT@DV?$StrTraitMFC_DLL@DV?$ChTraitsCRT@D@ATL@@@@@ATL@@W4HORZSCALEDRAWERTYPE@CScaleBaseData@@HABV23@1ABVCScaleCompart@@@Z$2
	DD	00H
	DD	FLAT:__unwindfunclet$?GetChangeStringData@CHorzScaleDrawer@@IBE?AV?$CStringT@DV?$StrTraitMFC_DLL@DV?$ChTraitsCRT@D@ATL@@@@@ATL@@W4HORZSCALEDRAWERTYPE@CScaleBaseData@@HABV23@1ABVCScaleCompart@@@Z$3
	DD	03H
	DD	FLAT:__unwindfunclet$?GetChangeStringData@CHorzScaleDrawer@@IBE?AV?$CStringT@DV?$StrTraitMFC_DLL@DV?$ChTraitsCRT@D@ATL@@@@@ATL@@W4HORZSCALEDRAWERTYPE@CScaleBaseData@@HABV23@1ABVCScaleCompart@@@Z$5
xdata$x	ENDS
;	COMDAT xdata$x
xdata$x	SEGMENT
__ehfuncinfo$?GetChangeStringData@CHorzScaleDrawer@@IBE?AV?$CStringT@DV?$StrTraitMFC_DLL@DV?$ChTraitsCRT@D@ATL@@@@@ATL@@W4HORZSCALEDRAWERTYPE@CScaleBaseData@@HABV23@11@Z DD 019930522H
	DD	07H
	DD	FLAT:__unwindtable$?GetChangeStringData@CHorzScaleDrawer@@IBE?AV?$CStringT@DV?$StrTraitMFC_DLL@DV?$ChTraitsCRT@D@ATL@@@@@ATL@@W4HORZSCALEDRAWERTYPE@CScaleBaseData@@HABV23@11@Z
	DD	2 DUP(00H)
	DD	2 DUP(00H)
	DD	00H
	DD	01H
__unwindtable$?GetChangeStringData@CHorzScaleDrawer@@IBE?AV?$CStringT@DV?$StrTraitMFC_DLL@DV?$ChTraitsCRT@D@ATL@@@@@ATL@@W4HORZSCALEDRAWERTYPE@CScaleBaseData@@HABV23@11@Z DD 0ffffffffH
	DD	FLAT:__unwindfunclet$?GetChangeStringData@CHorzScaleDrawer@@IBE?AV?$CStringT@DV?$StrTraitMFC_DLL@DV?$ChTraitsCRT@D@ATL@@@@@ATL@@W4HORZSCALEDRAWERTYPE@CScaleBaseData@@HABV23@11@Z$1
	DD	00H
	DD	FLAT:__unwindfunclet$?GetChangeStringData@CHorzScaleDrawer@@IBE?AV?$CStringT@DV?$StrTraitMFC_DLL@DV?$ChTraitsCRT@D@ATL@@@@@ATL@@W4HORZSCALEDRAWERTYPE@CScaleBaseData@@HABV23@11@Z$2
	DD	01H
	DD	FLAT:__unwindfunclet$?GetChangeStringData@CHorzScaleDrawer@@IBE?AV?$CStringT@DV?$StrTraitMFC_DLL@DV?$ChTraitsCRT@D@ATL@@@@@ATL@@W4HORZSCALEDRAWERTYPE@CScaleBaseData@@HABV23@11@Z$3
	DD	01H
	DD	FLAT:__unwindfunclet$?GetChangeStringData@CHorzScaleDrawer@@IBE?AV?$CStringT@DV?$StrTraitMFC_DLL@DV?$ChTraitsCRT@D@ATL@@@@@ATL@@W4HORZSCALEDRAWERTYPE@CScaleBaseData@@HABV23@11@Z$4
	DD	01H
	DD	FLAT:__unwindfunclet$?GetChangeStringData@CHorzScaleDrawer@@IBE?AV?$CStringT@DV?$StrTraitMFC_DLL@DV?$ChTraitsCRT@D@ATL@@@@@ATL@@W4HORZSCALEDRAWERTYPE@CScaleBaseData@@HABV23@11@Z$5
	DD	04H
	DD	FLAT:__unwindfunclet$?GetChangeStringData@CHorzScaleDrawer@@IBE?AV?$CStringT@DV?$StrTraitMFC_DLL@DV?$ChTraitsCRT@D@ATL@@@@@ATL@@W4HORZSCALEDRAWERTYPE@CScaleBaseData@@HABV23@11@Z$6
	DD	01H
	DD	FLAT:__unwindfunclet$?GetChangeStringData@CHorzScaleDrawer@@IBE?AV?$CStringT@DV?$StrTraitMFC_DLL@DV?$ChTraitsCRT@D@ATL@@@@@ATL@@W4HORZSCALEDRAWERTYPE@CScaleBaseData@@HABV23@11@Z$7
xdata$x	ENDS
;	COMDAT xdata$x
xdata$x	SEGMENT
__unwindtable$?GetDrawingEnvironment@CHorzScaleDrawer@@IBE_NPAVCDC@@PAVCPacket@@ABVCRect@@ABVCDisplayDataMinMax@@ABNAAH5AANAA_N_N@Z DD 0ffffffffH
	DD	FLAT:__unwindfunclet$?GetDrawingEnvironment@CHorzScaleDrawer@@IBE_NPAVCDC@@PAVCPacket@@ABVCRect@@ABVCDisplayDataMinMax@@ABNAAH5AANAA_N_N@Z$0
	DD	00H
	DD	FLAT:__unwindfunclet$?GetDrawingEnvironment@CHorzScaleDrawer@@IBE_NPAVCDC@@PAVCPacket@@ABVCRect@@ABVCDisplayDataMinMax@@ABNAAH5AANAA_N_N@Z$1
	DD	01H
	DD	FLAT:__unwindfunclet$?GetDrawingEnvironment@CHorzScaleDrawer@@IBE_NPAVCDC@@PAVCPacket@@ABVCRect@@ABVCDisplayDataMinMax@@ABNAAH5AANAA_N_N@Z$2
__ehfuncinfo$?GetDrawingEnvironment@CHorzScaleDrawer@@IBE_NPAVCDC@@PAVCPacket@@ABVCRect@@ABVCDisplayDataMinMax@@ABNAAH5AANAA_N_N@Z DD 019930522H
	DD	03H
	DD	FLAT:__unwindtable$?GetDrawingEnvironment@CHorzScaleDrawer@@IBE_NPAVCDC@@PAVCPacket@@ABVCRect@@ABVCDisplayDataMinMax@@ABNAAH5AANAA_N_N@Z
	DD	2 DUP(00H)
	DD	2 DUP(00H)
	DD	00H
	DD	01H
xdata$x	ENDS
; Function compile flags: /Ogtp
;	COMDAT ??4CVertScaleRegion@@QAEAAV0@$$QAV0@@Z
_TEXT	SEGMENT
___that$ = 8						; size = 4
??4CVertScaleRegion@@QAEAAV0@$$QAV0@@Z PROC		; CVertScaleRegion::operator=, COMDAT
; _this$ = ecx
  00000	55		 push	 ebp
  00001	8b ec		 mov	 ebp, esp
  00003	8b 45 08	 mov	 eax, DWORD PTR ___that$[ebp]
  00006	0f 10 00	 movups	 xmm0, XMMWORD PTR [eax]
  00009	0f 11 01	 movups	 XMMWORD PTR [ecx], xmm0
  0000c	0f 10 40 10	 movups	 xmm0, XMMWORD PTR [eax+16]
  00010	8b c1		 mov	 eax, ecx
  00012	0f 11 41 10	 movups	 XMMWORD PTR [ecx+16], xmm0
  00016	5d		 pop	 ebp
  00017	c2 04 00	 ret	 4
??4CVertScaleRegion@@QAEAAV0@$$QAV0@@Z ENDP		; CVertScaleRegion::operator=
_TEXT	ENDS
; Function compile flags: /Ogtp
;	COMDAT ??4CVertScaleRegion@@QAEAAV0@ABV0@@Z
_TEXT	SEGMENT
___that$ = 8						; size = 4
??4CVertScaleRegion@@QAEAAV0@ABV0@@Z PROC		; CVertScaleRegion::operator=, COMDAT
; _this$ = ecx
  00000	55		 push	 ebp
  00001	8b ec		 mov	 ebp, esp
  00003	8b 45 08	 mov	 eax, DWORD PTR ___that$[ebp]
  00006	0f 10 00	 movups	 xmm0, XMMWORD PTR [eax]
  00009	0f 11 01	 movups	 XMMWORD PTR [ecx], xmm0
  0000c	0f 10 40 10	 movups	 xmm0, XMMWORD PTR [eax+16]
  00010	8b c1		 mov	 eax, ecx
  00012	0f 11 41 10	 movups	 XMMWORD PTR [ecx+16], xmm0
  00016	5d		 pop	 ebp
  00017	c2 04 00	 ret	 4
??4CVertScaleRegion@@QAEAAV0@ABV0@@Z ENDP		; CVertScaleRegion::operator=
_TEXT	ENDS
; Function compile flags: /Ogtp
;	COMDAT ??4CHorzScaleRegion@@QAEAAV0@$$QAV0@@Z
_TEXT	SEGMENT
___that$ = 8						; size = 4
??4CHorzScaleRegion@@QAEAAV0@$$QAV0@@Z PROC		; CHorzScaleRegion::operator=, COMDAT
; _this$ = ecx
  00000	55		 push	 ebp
  00001	8b ec		 mov	 ebp, esp
  00003	8b 45 08	 mov	 eax, DWORD PTR ___that$[ebp]
  00006	0f 10 00	 movups	 xmm0, XMMWORD PTR [eax]
  00009	0f 11 01	 movups	 XMMWORD PTR [ecx], xmm0
  0000c	0f 10 40 10	 movups	 xmm0, XMMWORD PTR [eax+16]
  00010	8b c1		 mov	 eax, ecx
  00012	0f 11 41 10	 movups	 XMMWORD PTR [ecx+16], xmm0
  00016	5d		 pop	 ebp
  00017	c2 04 00	 ret	 4
??4CHorzScaleRegion@@QAEAAV0@$$QAV0@@Z ENDP		; CHorzScaleRegion::operator=
_TEXT	ENDS
; Function compile flags: /Ogtp
;	COMDAT ??4CHorzScaleRegion@@QAEAAV0@ABV0@@Z
_TEXT	SEGMENT
___that$ = 8						; size = 4
??4CHorzScaleRegion@@QAEAAV0@ABV0@@Z PROC		; CHorzScaleRegion::operator=, COMDAT
; _this$ = ecx
  00000	55		 push	 ebp
  00001	8b ec		 mov	 ebp, esp
  00003	8b 45 08	 mov	 eax, DWORD PTR ___that$[ebp]
  00006	0f 10 00	 movups	 xmm0, XMMWORD PTR [eax]
  00009	0f 11 01	 movups	 XMMWORD PTR [ecx], xmm0
  0000c	0f 10 40 10	 movups	 xmm0, XMMWORD PTR [eax+16]
  00010	8b c1		 mov	 eax, ecx
  00012	0f 11 41 10	 movups	 XMMWORD PTR [ecx+16], xmm0
  00016	5d		 pop	 ebp
  00017	c2 04 00	 ret	 4
??4CHorzScaleRegion@@QAEAAV0@ABV0@@Z ENDP		; CHorzScaleRegion::operator=
_TEXT	ENDS
; Function compile flags: /Ogtp
;	COMDAT ??4CVertScaleRegionWidth@@QAEAAV0@$$QAV0@@Z
_TEXT	SEGMENT
___that$ = 8						; size = 4
??4CVertScaleRegionWidth@@QAEAAV0@$$QAV0@@Z PROC	; CVertScaleRegionWidth::operator=, COMDAT
; _this$ = ecx
  00000	55		 push	 ebp
  00001	8b ec		 mov	 ebp, esp
  00003	8b 55 08	 mov	 edx, DWORD PTR ___that$[ebp]
  00006	8b 02		 mov	 eax, DWORD PTR [edx]
  00008	89 01		 mov	 DWORD PTR [ecx], eax
  0000a	8b 42 04	 mov	 eax, DWORD PTR [edx+4]
  0000d	89 41 04	 mov	 DWORD PTR [ecx+4], eax
  00010	8b c1		 mov	 eax, ecx
  00012	5d		 pop	 ebp
  00013	c2 04 00	 ret	 4
??4CVertScaleRegionWidth@@QAEAAV0@$$QAV0@@Z ENDP	; CVertScaleRegionWidth::operator=
_TEXT	ENDS
; Function compile flags: /Ogtp
;	COMDAT ??4CVertScaleRegionWidth@@QAEAAV0@ABV0@@Z
_TEXT	SEGMENT
___that$ = 8						; size = 4
??4CVertScaleRegionWidth@@QAEAAV0@ABV0@@Z PROC		; CVertScaleRegionWidth::operator=, COMDAT
; _this$ = ecx
  00000	55		 push	 ebp
  00001	8b ec		 mov	 ebp, esp
  00003	8b 45 08	 mov	 eax, DWORD PTR ___that$[ebp]
  00006	8b 10		 mov	 edx, DWORD PTR [eax]
  00008	8b 40 04	 mov	 eax, DWORD PTR [eax+4]
  0000b	89 41 04	 mov	 DWORD PTR [ecx+4], eax
  0000e	8b c1		 mov	 eax, ecx
  00010	89 11		 mov	 DWORD PTR [ecx], edx
  00012	5d		 pop	 ebp
  00013	c2 04 00	 ret	 4
??4CVertScaleRegionWidth@@QAEAAV0@ABV0@@Z ENDP		; CVertScaleRegionWidth::operator=
_TEXT	ENDS
; Function compile flags: /Ogtp
;	COMDAT ??4CHorzScaleRegionHeight@@QAEAAV0@$$QAV0@@Z
_TEXT	SEGMENT
___that$ = 8						; size = 4
??4CHorzScaleRegionHeight@@QAEAAV0@$$QAV0@@Z PROC	; CHorzScaleRegionHeight::operator=, COMDAT
; _this$ = ecx
  00000	55		 push	 ebp
  00001	8b ec		 mov	 ebp, esp
  00003	8b 55 08	 mov	 edx, DWORD PTR ___that$[ebp]
  00006	8b 02		 mov	 eax, DWORD PTR [edx]
  00008	89 01		 mov	 DWORD PTR [ecx], eax
  0000a	8b 42 04	 mov	 eax, DWORD PTR [edx+4]
  0000d	89 41 04	 mov	 DWORD PTR [ecx+4], eax
  00010	8b c1		 mov	 eax, ecx
  00012	5d		 pop	 ebp
  00013	c2 04 00	 ret	 4
??4CHorzScaleRegionHeight@@QAEAAV0@$$QAV0@@Z ENDP	; CHorzScaleRegionHeight::operator=
_TEXT	ENDS
; Function compile flags: /Ogtp
;	COMDAT ??4CHorzScaleRegionHeight@@QAEAAV0@ABV0@@Z
_TEXT	SEGMENT
___that$ = 8						; size = 4
??4CHorzScaleRegionHeight@@QAEAAV0@ABV0@@Z PROC		; CHorzScaleRegionHeight::operator=, COMDAT
; _this$ = ecx
  00000	55		 push	 ebp
  00001	8b ec		 mov	 ebp, esp
  00003	8b 45 08	 mov	 eax, DWORD PTR ___that$[ebp]
  00006	8b 10		 mov	 edx, DWORD PTR [eax]
  00008	8b 40 04	 mov	 eax, DWORD PTR [eax+4]
  0000b	89 41 04	 mov	 DWORD PTR [ecx+4], eax
  0000e	8b c1		 mov	 eax, ecx
  00010	89 11		 mov	 DWORD PTR [ecx], edx
  00012	5d		 pop	 ebp
  00013	c2 04 00	 ret	 4
??4CHorzScaleRegionHeight@@QAEAAV0@ABV0@@Z ENDP		; CHorzScaleRegionHeight::operator=
_TEXT	ENDS
; Function compile flags: /Ogtp
;	COMDAT ??0CVerticalScale@@QAE@ABV0@@Z
_TEXT	SEGMENT
_this$ = -4						; size = 4
___that$ = 8						; size = 4
??0CVerticalScale@@QAE@ABV0@@Z PROC			; CVerticalScale::CVerticalScale, COMDAT
; _this$ = ecx
  00000	55		 push	 ebp
  00001	8b ec		 mov	 ebp, esp
  00003	51		 push	 ecx
  00004	56		 push	 esi
  00005	8b 75 08	 mov	 esi, DWORD PTR ___that$[ebp]
  00008	57		 push	 edi
  00009	8b f9		 mov	 edi, ecx
  0000b	89 7d fc	 mov	 DWORD PTR _this$[ebp], edi
  0000e	8d 46 04	 lea	 eax, DWORD PTR [esi+4]
  00011	50		 push	 eax
  00012	8d 4f 04	 lea	 ecx, DWORD PTR [edi+4]
  00015	c7 07 00 00 00
	00		 mov	 DWORD PTR [edi], OFFSET ??_7CScale@@6B@
  0001b	ff 15 00 00 00
	00		 call	 DWORD PTR __imp_??0?$CStringT@DV?$StrTraitMFC_DLL@DV?$ChTraitsCRT@D@ATL@@@@@ATL@@QAE@ABV01@@Z
  00021	8b 46 08	 mov	 eax, DWORD PTR [esi+8]
  00024	89 47 08	 mov	 DWORD PTR [edi+8], eax
  00027	c7 07 00 00 00
	00		 mov	 DWORD PTR [edi], OFFSET ??_7CVerticalScale@@6B@
  0002d	8b 46 0c	 mov	 eax, DWORD PTR [esi+12]
  00030	89 47 0c	 mov	 DWORD PTR [edi+12], eax
  00033	8b 46 10	 mov	 eax, DWORD PTR [esi+16]
  00036	89 47 10	 mov	 DWORD PTR [edi+16], eax
  00039	8b 46 14	 mov	 eax, DWORD PTR [esi+20]
  0003c	89 47 14	 mov	 DWORD PTR [edi+20], eax
  0003f	8b 46 18	 mov	 eax, DWORD PTR [esi+24]
  00042	89 47 18	 mov	 DWORD PTR [edi+24], eax
  00045	f2 0f 10 46 20	 movsd	 xmm0, QWORD PTR [esi+32]
  0004a	f2 0f 11 47 20	 movsd	 QWORD PTR [edi+32], xmm0
  0004f	f2 0f 10 46 28	 movsd	 xmm0, QWORD PTR [esi+40]
  00054	f2 0f 11 47 28	 movsd	 QWORD PTR [edi+40], xmm0
  00059	8b 46 30	 mov	 eax, DWORD PTR [esi+48]
  0005c	89 47 30	 mov	 DWORD PTR [edi+48], eax
  0005f	8a 46 34	 mov	 al, BYTE PTR [esi+52]
  00062	88 47 34	 mov	 BYTE PTR [edi+52], al
  00065	f2 0f 10 46 38	 movsd	 xmm0, QWORD PTR [esi+56]
  0006a	f2 0f 11 47 38	 movsd	 QWORD PTR [edi+56], xmm0
  0006f	f2 0f 10 46 40	 movsd	 xmm0, QWORD PTR [esi+64]
  00074	f2 0f 11 47 40	 movsd	 QWORD PTR [edi+64], xmm0
  00079	8b 46 48	 mov	 eax, DWORD PTR [esi+72]
  0007c	89 47 48	 mov	 DWORD PTR [edi+72], eax
  0007f	8b 46 4c	 mov	 eax, DWORD PTR [esi+76]
  00082	89 47 4c	 mov	 DWORD PTR [edi+76], eax
  00085	8b 46 50	 mov	 eax, DWORD PTR [esi+80]
  00088	89 47 50	 mov	 DWORD PTR [edi+80], eax
  0008b	8b c7		 mov	 eax, edi
  0008d	5f		 pop	 edi
  0008e	5e		 pop	 esi
  0008f	8b e5		 mov	 esp, ebp
  00091	5d		 pop	 ebp
  00092	c2 04 00	 ret	 4
??0CVerticalScale@@QAE@ABV0@@Z ENDP			; CVerticalScale::CVerticalScale
_TEXT	ENDS
; Function compile flags: /Ogtp
;	COMDAT ??1CVerticalScale@@QAE@XZ
_TEXT	SEGMENT
??1CVerticalScale@@QAE@XZ PROC				; CVerticalScale::~CVerticalScale, COMDAT
; _this$ = ecx
  00000	83 c1 04	 add	 ecx, 4
  00003	ff 25 00 00 00
	00		 jmp	 DWORD PTR __imp_??1?$CStringT@DV?$StrTraitMFC_DLL@DV?$ChTraitsCRT@D@ATL@@@@@ATL@@QAE@XZ
??1CVerticalScale@@QAE@XZ ENDP				; CVerticalScale::~CVerticalScale
_TEXT	ENDS
; Function compile flags: /Ogtp
; File D:\git\src\IBK\IBK_DRFN\ProjSrc\SrcChartEx\ChartOCX\Include_Chart\ScaleBaseData.h
;	COMDAT ?GetSpace@CVerticalScale@@QBEXAAH0@Z
_TEXT	SEGMENT
_p_nUpSpace$ = 8					; size = 4
_p_nDownSpace$ = 12					; size = 4
?GetSpace@CVerticalScale@@QBEXAAH0@Z PROC		; CVerticalScale::GetSpace, COMDAT
; _this$ = ecx

; 240  : 	void	GetSpace( int &p_nUpSpace, int &p_nDownSpace) const		{	p_nUpSpace = m_nUpSpace;	p_nDownSpace = m_nDownSpace;	}

  00000	55		 push	 ebp
  00001	8b ec		 mov	 ebp, esp
  00003	8b 45 08	 mov	 eax, DWORD PTR _p_nUpSpace$[ebp]
  00006	8b 51 4c	 mov	 edx, DWORD PTR [ecx+76]
  00009	89 10		 mov	 DWORD PTR [eax], edx
  0000b	8b 45 0c	 mov	 eax, DWORD PTR _p_nDownSpace$[ebp]
  0000e	8b 49 50	 mov	 ecx, DWORD PTR [ecx+80]
  00011	89 08		 mov	 DWORD PTR [eax], ecx
  00013	5d		 pop	 ebp
  00014	c2 08 00	 ret	 8
?GetSpace@CVerticalScale@@QBEXAAH0@Z ENDP		; CVerticalScale::GetSpace
_TEXT	ENDS
; Function compile flags: /Ogtp
; File D:\git\src\IBK\IBK_DRFN\ProjSrc\SrcChartEx\ChartOCX\Include_Chart\ScaleBaseData.h
;	COMDAT ?SetSpace@CVerticalScale@@QAEXHH@Z
_TEXT	SEGMENT
_p_nUpSpace$ = 8					; size = 4
_p_nDownSpace$ = 12					; size = 4
?SetSpace@CVerticalScale@@QAEXHH@Z PROC			; CVerticalScale::SetSpace, COMDAT
; _this$ = ecx

; 239  : 	void	SetSpace( int p_nUpSpace, int p_nDownSpace)				{	m_nUpSpace = p_nUpSpace;	m_nDownSpace = p_nDownSpace;	}

  00000	55		 push	 ebp
  00001	8b ec		 mov	 ebp, esp
  00003	8b 45 08	 mov	 eax, DWORD PTR _p_nUpSpace$[ebp]
  00006	89 41 4c	 mov	 DWORD PTR [ecx+76], eax
  00009	8b 45 0c	 mov	 eax, DWORD PTR _p_nDownSpace$[ebp]
  0000c	89 41 50	 mov	 DWORD PTR [ecx+80], eax
  0000f	5d		 pop	 ebp
  00010	c2 08 00	 ret	 8
?SetSpace@CVerticalScale@@QAEXHH@Z ENDP			; CVerticalScale::SetSpace
_TEXT	ENDS
; Function compile flags: /Ogtp
; File D:\git\src\IBK\IBK_DRFN\ProjSrc\SrcChartEx\ChartOCX\Include_Chart\ScaleBaseData.h
;	COMDAT ?SetVertScaleInvertType@CVerticalScale@@QAEX_N@Z
_TEXT	SEGMENT
_bIsVertScaleInvertType$ = 8				; size = 1
?SetVertScaleInvertType@CVerticalScale@@QAEX_N@Z PROC	; CVerticalScale::SetVertScaleInvertType, COMDAT
; _this$ = ecx

; 232  : 	void	SetVertScaleInvertType(const bool bIsVertScaleInvertType)	{	m_bIsVertScaleInvertType = bIsVertScaleInvertType;	}

  00000	55		 push	 ebp
  00001	8b ec		 mov	 ebp, esp
  00003	8a 45 08	 mov	 al, BYTE PTR _bIsVertScaleInvertType$[ebp]
  00006	88 41 34	 mov	 BYTE PTR [ecx+52], al
  00009	5d		 pop	 ebp
  0000a	c2 04 00	 ret	 4
?SetVertScaleInvertType@CVerticalScale@@QAEX_N@Z ENDP	; CVerticalScale::SetVertScaleInvertType
_TEXT	ENDS
; Function compile flags: /Ogtp
; File D:\git\src\IBK\IBK_DRFN\ProjSrc\SrcChartEx\ChartOCX\Include_Chart\ScaleBaseData.h
;	COMDAT ?GetVertScaleInvertType@CVerticalScale@@QBE_NXZ
_TEXT	SEGMENT
?GetVertScaleInvertType@CVerticalScale@@QBE_NXZ PROC	; CVerticalScale::GetVertScaleInvertType, COMDAT
; _this$ = ecx

; 230  : 	bool	GetVertScaleInvertType() const								{	return m_bIsVertScaleInvertType;	}

  00000	8a 41 34	 mov	 al, BYTE PTR [ecx+52]
  00003	c3		 ret	 0
?GetVertScaleInvertType@CVerticalScale@@QBE_NXZ ENDP	; CVerticalScale::GetVertScaleInvertType
_TEXT	ENDS
; Function compile flags: /Ogtp
; File D:\git\src\IBK\IBK_DRFN\ProjSrc\SrcChartEx\ChartOCX\Include_Chart\ScaleBaseData.h
;	COMDAT ?GetVertUserHogaScaleType@CVerticalScale@@QBEHXZ
_TEXT	SEGMENT
?GetVertUserHogaScaleType@CVerticalScale@@QBEHXZ PROC	; CVerticalScale::GetVertUserHogaScaleType, COMDAT
; _this$ = ecx

; 226  : 	int			GetVertUserHogaScaleType( void) const						{	return m_nUserHogaType;		}			

  00000	8b 41 48	 mov	 eax, DWORD PTR [ecx+72]
  00003	c3		 ret	 0
?GetVertUserHogaScaleType@CVerticalScale@@QBEHXZ ENDP	; CVerticalScale::GetVertUserHogaScaleType
_TEXT	ENDS
; Function compile flags: /Ogtp
; File D:\git\src\IBK\IBK_DRFN\ProjSrc\SrcChartEx\ChartOCX\Include_Chart\ScaleBaseData.h
;	COMDAT ?GetVertScaleUserNumber@CVerticalScale@@QBENXZ
_TEXT	SEGMENT
?GetVertScaleUserNumber@CVerticalScale@@QBENXZ PROC	; CVerticalScale::GetVertScaleUserNumber, COMDAT
; _this$ = ecx

; 225  : 	double		GetVertScaleUserNumber( void) const						{	return m_dUserNumber;		}			

  00000	dd 41 38	 fld	 QWORD PTR [ecx+56]
  00003	c3		 ret	 0
?GetVertScaleUserNumber@CVerticalScale@@QBENXZ ENDP	; CVerticalScale::GetVertScaleUserNumber
_TEXT	ENDS
; Function compile flags: /Ogtp
; File D:\git\src\IBK\IBK_DRFN\ProjSrc\SrcChartEx\ChartOCX\Include_Chart\ScaleBaseData.h
;	COMDAT ?GetVertScaleHoGaNumber@CVerticalScale@@QBENXZ
_TEXT	SEGMENT
?GetVertScaleHoGaNumber@CVerticalScale@@QBENXZ PROC	; CVerticalScale::GetVertScaleHoGaNumber, COMDAT
; _this$ = ecx

; 224  : 	double		GetVertScaleHoGaNumber( void) const						{	return m_dHogaNumber;		}			

  00000	dd 41 40	 fld	 QWORD PTR [ecx+64]
  00003	c3		 ret	 0
?GetVertScaleHoGaNumber@CVerticalScale@@QBENXZ ENDP	; CVerticalScale::GetVertScaleHoGaNumber
_TEXT	ENDS
; Function compile flags: /Ogtp
; File D:\git\src\IBK\IBK_DRFN\ProjSrc\SrcChartEx\ChartOCX\Include_Chart\ScaleBaseData.h
;	COMDAT ?SetVertUserHogaScaleType@CVerticalScale@@QAEXH@Z
_TEXT	SEGMENT
_p_nUserHogaType$ = 8					; size = 4
?SetVertUserHogaScaleType@CVerticalScale@@QAEXH@Z PROC	; CVerticalScale::SetVertUserHogaScaleType, COMDAT
; _this$ = ecx

; 222  : 	void		SetVertUserHogaScaleType( int p_nUserHogaType)		{	m_nUserHogaType = p_nUserHogaType;	}

  00000	55		 push	 ebp
  00001	8b ec		 mov	 ebp, esp
  00003	8b 45 08	 mov	 eax, DWORD PTR _p_nUserHogaType$[ebp]
  00006	89 41 48	 mov	 DWORD PTR [ecx+72], eax
  00009	5d		 pop	 ebp
  0000a	c2 04 00	 ret	 4
?SetVertUserHogaScaleType@CVerticalScale@@QAEXH@Z ENDP	; CVerticalScale::SetVertUserHogaScaleType
_TEXT	ENDS
; Function compile flags: /Ogtp
; File D:\git\src\IBK\IBK_DRFN\ProjSrc\SrcChartEx\ChartOCX\Include_Chart\ScaleBaseData.h
;	COMDAT ?SetVertScaleUserNumber@CVerticalScale@@QAEXN@Z
_TEXT	SEGMENT
_p_dUserNumber$ = 8					; size = 8
?SetVertScaleUserNumber@CVerticalScale@@QAEXN@Z PROC	; CVerticalScale::SetVertScaleUserNumber, COMDAT
; _this$ = ecx

; 221  : 	void		SetVertScaleUserNumber( double p_dUserNumber)			{	m_dUserNumber = p_dUserNumber;	}

  00000	55		 push	 ebp
  00001	8b ec		 mov	 ebp, esp
  00003	f2 0f 10 45 08	 movsd	 xmm0, QWORD PTR _p_dUserNumber$[ebp]
  00008	f2 0f 11 41 38	 movsd	 QWORD PTR [ecx+56], xmm0
  0000d	5d		 pop	 ebp
  0000e	c2 08 00	 ret	 8
?SetVertScaleUserNumber@CVerticalScale@@QAEXN@Z ENDP	; CVerticalScale::SetVertScaleUserNumber
_TEXT	ENDS
; Function compile flags: /Ogtp
; File D:\git\src\IBK\IBK_DRFN\ProjSrc\SrcChartEx\ChartOCX\Include_Chart\ScaleBaseData.h
;	COMDAT ?SetVertScaleHoGaNumber@CVerticalScale@@QAEXN@Z
_TEXT	SEGMENT
_p_dHogaNumber$ = 8					; size = 8
?SetVertScaleHoGaNumber@CVerticalScale@@QAEXN@Z PROC	; CVerticalScale::SetVertScaleHoGaNumber, COMDAT
; _this$ = ecx

; 220  : 	void		SetVertScaleHoGaNumber( double p_dHogaNumber)			{	m_dHogaNumber = p_dHogaNumber;	}

  00000	55		 push	 ebp
  00001	8b ec		 mov	 ebp, esp
  00003	f2 0f 10 45 08	 movsd	 xmm0, QWORD PTR _p_dHogaNumber$[ebp]
  00008	f2 0f 11 41 40	 movsd	 QWORD PTR [ecx+64], xmm0
  0000d	5d		 pop	 ebp
  0000e	c2 08 00	 ret	 8
?SetVertScaleHoGaNumber@CVerticalScale@@QAEXN@Z ENDP	; CVerticalScale::SetVertScaleHoGaNumber
_TEXT	ENDS
; Function compile flags: /Ogtp
; File D:\git\src\IBK\IBK_DRFN\ProjSrc\SrcChartEx\ChartOCX\Include_Chart\ScaleBaseData.h
;	COMDAT ?SetVertScaleMax@CVerticalScale@@QAEXN@Z
_TEXT	SEGMENT
_p_dMax$ = 8						; size = 8
?SetVertScaleMax@CVerticalScale@@QAEXN@Z PROC		; CVerticalScale::SetVertScaleMax, COMDAT
; _this$ = ecx

; 211  : 	void							SetVertScaleMax( double p_dMax)											{	m_dMax = p_dMax;	}

  00000	55		 push	 ebp
  00001	8b ec		 mov	 ebp, esp
  00003	f2 0f 10 45 08	 movsd	 xmm0, QWORD PTR _p_dMax$[ebp]
  00008	f2 0f 11 41 28	 movsd	 QWORD PTR [ecx+40], xmm0
  0000d	5d		 pop	 ebp
  0000e	c2 08 00	 ret	 8
?SetVertScaleMax@CVerticalScale@@QAEXN@Z ENDP		; CVerticalScale::SetVertScaleMax
_TEXT	ENDS
; Function compile flags: /Ogtp
; File D:\git\src\IBK\IBK_DRFN\ProjSrc\SrcChartEx\ChartOCX\Include_Chart\ScaleBaseData.h
;	COMDAT ?GetVertScaleMax@CVerticalScale@@QBENXZ
_TEXT	SEGMENT
?GetVertScaleMax@CVerticalScale@@QBENXZ PROC		; CVerticalScale::GetVertScaleMax, COMDAT
; _this$ = ecx

; 210  : 	double							GetVertScaleMax( void) const											{	return m_dMax;		}

  00000	dd 41 28	 fld	 QWORD PTR [ecx+40]
  00003	c3		 ret	 0
?GetVertScaleMax@CVerticalScale@@QBENXZ ENDP		; CVerticalScale::GetVertScaleMax
_TEXT	ENDS
; Function compile flags: /Ogtp
; File D:\git\src\IBK\IBK_DRFN\ProjSrc\SrcChartEx\ChartOCX\Include_Chart\ScaleBaseData.h
;	COMDAT ?SetVertScaleMin@CVerticalScale@@QAEXN@Z
_TEXT	SEGMENT
_p_dMin$ = 8						; size = 8
?SetVertScaleMin@CVerticalScale@@QAEXN@Z PROC		; CVerticalScale::SetVertScaleMin, COMDAT
; _this$ = ecx

; 208  : 	void							SetVertScaleMin( double p_dMin)											{	m_dMin = p_dMin;	}

  00000	55		 push	 ebp
  00001	8b ec		 mov	 ebp, esp
  00003	f2 0f 10 45 08	 movsd	 xmm0, QWORD PTR _p_dMin$[ebp]
  00008	f2 0f 11 41 20	 movsd	 QWORD PTR [ecx+32], xmm0
  0000d	5d		 pop	 ebp
  0000e	c2 08 00	 ret	 8
?SetVertScaleMin@CVerticalScale@@QAEXN@Z ENDP		; CVerticalScale::SetVertScaleMin
_TEXT	ENDS
; Function compile flags: /Ogtp
; File D:\git\src\IBK\IBK_DRFN\ProjSrc\SrcChartEx\ChartOCX\Include_Chart\ScaleBaseData.h
;	COMDAT ?GetVertScaleMin@CVerticalScale@@QBENXZ
_TEXT	SEGMENT
?GetVertScaleMin@CVerticalScale@@QBENXZ PROC		; CVerticalScale::GetVertScaleMin, COMDAT
; _this$ = ecx

; 207  : 	double							GetVertScaleMin( void) const											{	return m_dMin;		}			

  00000	dd 41 20	 fld	 QWORD PTR [ecx+32]
  00003	c3		 ret	 0
?GetVertScaleMin@CVerticalScale@@QBENXZ ENDP		; CVerticalScale::GetVertScaleMin
_TEXT	ENDS
; Function compile flags: /Ogtp
; File D:\git\src\IBK\IBK_DRFN\ProjSrc\SrcChartEx\ChartOCX\Include_Chart\ScaleBaseData.h
;	COMDAT ?SetVertScaleMinMaxType@CVerticalScale@@QAEXW4VERTMINMAXTYPE@CScaleBaseData@@@Z
_TEXT	SEGMENT
_p_eMinMaxType$ = 8					; size = 4
?SetVertScaleMinMaxType@CVerticalScale@@QAEXW4VERTMINMAXTYPE@CScaleBaseData@@@Z PROC ; CVerticalScale::SetVertScaleMinMaxType, COMDAT
; _this$ = ecx

; 205  : 	void							SetVertScaleMinMaxType( CScaleBaseData::VERTMINMAXTYPE p_eMinMaxType) 	{	m_eMinMaxType = p_eMinMaxType;	}

  00000	55		 push	 ebp
  00001	8b ec		 mov	 ebp, esp
  00003	8b 45 08	 mov	 eax, DWORD PTR _p_eMinMaxType$[ebp]
  00006	89 41 18	 mov	 DWORD PTR [ecx+24], eax
  00009	5d		 pop	 ebp
  0000a	c2 04 00	 ret	 4
?SetVertScaleMinMaxType@CVerticalScale@@QAEXW4VERTMINMAXTYPE@CScaleBaseData@@@Z ENDP ; CVerticalScale::SetVertScaleMinMaxType
_TEXT	ENDS
; Function compile flags: /Ogtp
; File D:\git\src\IBK\IBK_DRFN\ProjSrc\SrcChartEx\ChartOCX\Include_Chart\ScaleBaseData.h
;	COMDAT ?GetVertScaleMinMaxType@CVerticalScale@@QBE?AW4VERTMINMAXTYPE@CScaleBaseData@@XZ
_TEXT	SEGMENT
?GetVertScaleMinMaxType@CVerticalScale@@QBE?AW4VERTMINMAXTYPE@CScaleBaseData@@XZ PROC ; CVerticalScale::GetVertScaleMinMaxType, COMDAT
; _this$ = ecx

; 204  : 	CScaleBaseData::VERTMINMAXTYPE	GetVertScaleMinMaxType( void) const										{	return m_eMinMaxType;			}

  00000	8b 41 18	 mov	 eax, DWORD PTR [ecx+24]
  00003	c3		 ret	 0
?GetVertScaleMinMaxType@CVerticalScale@@QBE?AW4VERTMINMAXTYPE@CScaleBaseData@@XZ ENDP ; CVerticalScale::GetVertScaleMinMaxType
_TEXT	ENDS
; Function compile flags: /Ogtp
; File D:\git\src\IBK\IBK_DRFN\ProjSrc\SrcChartEx\ChartOCX\Include_Chart\ScaleBaseData.h
;	COMDAT ?SetVertScaleMinMaxLock@CVerticalScale@@QAEXH@Z
_TEXT	SEGMENT
_p_bMinMaxLock$ = 8					; size = 4
?SetVertScaleMinMaxLock@CVerticalScale@@QAEXH@Z PROC	; CVerticalScale::SetVertScaleMinMaxLock, COMDAT
; _this$ = ecx

; 202  : 	void							SetVertScaleMinMaxLock( BOOL p_bMinMaxLock)								{	m_bMinMaxLock = p_bMinMaxLock;	}

  00000	55		 push	 ebp
  00001	8b ec		 mov	 ebp, esp
  00003	8b 45 08	 mov	 eax, DWORD PTR _p_bMinMaxLock$[ebp]
  00006	89 41 14	 mov	 DWORD PTR [ecx+20], eax
  00009	5d		 pop	 ebp
  0000a	c2 04 00	 ret	 4
?SetVertScaleMinMaxLock@CVerticalScale@@QAEXH@Z ENDP	; CVerticalScale::SetVertScaleMinMaxLock
_TEXT	ENDS
; Function compile flags: /Ogtp
; File D:\git\src\IBK\IBK_DRFN\ProjSrc\SrcChartEx\ChartOCX\Include_Chart\ScaleBaseData.h
;	COMDAT ?IsVertScaleMinMaxLock@CVerticalScale@@QBEHXZ
_TEXT	SEGMENT
?IsVertScaleMinMaxLock@CVerticalScale@@QBEHXZ PROC	; CVerticalScale::IsVertScaleMinMaxLock, COMDAT
; _this$ = ecx

; 201  : 	BOOL							IsVertScaleMinMaxLock( void) const										{	return m_bMinMaxLock;			}

  00000	8b 41 14	 mov	 eax, DWORD PTR [ecx+20]
  00003	c3		 ret	 0
?IsVertScaleMinMaxLock@CVerticalScale@@QBEHXZ ENDP	; CVerticalScale::IsVertScaleMinMaxLock
_TEXT	ENDS
; Function compile flags: /Ogtp
;	COMDAT ??0CHorizontalScale@@QAE@ABV0@@Z
_TEXT	SEGMENT
_this$ = -16						; size = 4
__$EHRec$ = -12						; size = 12
_this$ = 8						; size = 4
___that$ = 8						; size = 4
??0CHorizontalScale@@QAE@ABV0@@Z PROC			; CHorizontalScale::CHorizontalScale, COMDAT
; _this$ = ecx
  00000	55		 push	 ebp
  00001	8b ec		 mov	 ebp, esp
  00003	6a ff		 push	 -1
  00005	68 00 00 00 00	 push	 __ehhandler$??0CHorizontalScale@@QAE@ABV0@@Z
  0000a	64 a1 00 00 00
	00		 mov	 eax, DWORD PTR fs:0
  00010	50		 push	 eax
  00011	51		 push	 ecx
  00012	53		 push	 ebx
  00013	56		 push	 esi
  00014	57		 push	 edi
  00015	a1 00 00 00 00	 mov	 eax, DWORD PTR ___security_cookie
  0001a	33 c5		 xor	 eax, ebp
  0001c	50		 push	 eax
  0001d	8d 45 f4	 lea	 eax, DWORD PTR __$EHRec$[ebp]
  00020	64 a3 00 00 00
	00		 mov	 DWORD PTR fs:0, eax
  00026	8b f1		 mov	 esi, ecx
  00028	89 75 f0	 mov	 DWORD PTR _this$[ebp], esi
  0002b	8b 5d 08	 mov	 ebx, DWORD PTR ___that$[ebp]
  0002e	8d 4e 04	 lea	 ecx, DWORD PTR [esi+4]
  00031	c7 06 00 00 00
	00		 mov	 DWORD PTR [esi], OFFSET ??_7CScale@@6B@
  00037	8d 43 04	 lea	 eax, DWORD PTR [ebx+4]
  0003a	50		 push	 eax
  0003b	ff 15 00 00 00
	00		 call	 DWORD PTR __imp_??0?$CStringT@DV?$StrTraitMFC_DLL@DV?$ChTraitsCRT@D@ATL@@@@@ATL@@QAE@ABV01@@Z
  00041	8b 43 08	 mov	 eax, DWORD PTR [ebx+8]
  00044	89 46 08	 mov	 DWORD PTR [esi+8], eax
  00047	c7 06 00 00 00
	00		 mov	 DWORD PTR [esi], OFFSET ??_7CHorizontalScale@@6B@
  0004d	8d 7b 10	 lea	 edi, DWORD PTR [ebx+16]
  00050	8b 43 0c	 mov	 eax, DWORD PTR [ebx+12]
  00053	89 46 0c	 mov	 DWORD PTR [esi+12], eax
  00056	83 c6 10	 add	 esi, 16			; 00000010H
  00059	57		 push	 edi
  0005a	8b ce		 mov	 ecx, esi
  0005c	c7 45 fc 00 00
	00 00		 mov	 DWORD PTR __$EHRec$[ebp+8], 0
  00063	89 75 08	 mov	 DWORD PTR _this$[ebp], esi
  00066	ff 15 00 00 00
	00		 call	 DWORD PTR __imp_??0?$CStringT@DV?$StrTraitMFC_DLL@DV?$ChTraitsCRT@D@ATL@@@@@ATL@@QAE@ABV01@@Z
  0006c	8d 47 04	 lea	 eax, DWORD PTR [edi+4]
  0006f	c6 45 fc 01	 mov	 BYTE PTR __$EHRec$[ebp+8], 1
  00073	50		 push	 eax
  00074	8d 4e 04	 lea	 ecx, DWORD PTR [esi+4]
  00077	ff 15 00 00 00
	00		 call	 DWORD PTR __imp_??0?$CStringT@DV?$StrTraitMFC_DLL@DV?$ChTraitsCRT@D@ATL@@@@@ATL@@QAE@ABV01@@Z
  0007d	8b 4d f0	 mov	 ecx, DWORD PTR _this$[ebp]
  00080	8b 47 08	 mov	 eax, DWORD PTR [edi+8]
  00083	89 46 08	 mov	 DWORD PTR [esi+8], eax
  00086	8b 43 1c	 mov	 eax, DWORD PTR [ebx+28]
  00089	89 41 1c	 mov	 DWORD PTR [ecx+28], eax
  0008c	8b 43 20	 mov	 eax, DWORD PTR [ebx+32]
  0008f	89 41 20	 mov	 DWORD PTR [ecx+32], eax
  00092	8b 43 24	 mov	 eax, DWORD PTR [ebx+36]
  00095	89 41 24	 mov	 DWORD PTR [ecx+36], eax
  00098	8b 43 28	 mov	 eax, DWORD PTR [ebx+40]
  0009b	89 41 28	 mov	 DWORD PTR [ecx+40], eax
  0009e	8b 43 2c	 mov	 eax, DWORD PTR [ebx+44]
  000a1	89 41 2c	 mov	 DWORD PTR [ecx+44], eax
  000a4	8b 43 30	 mov	 eax, DWORD PTR [ebx+48]
  000a7	89 41 30	 mov	 DWORD PTR [ecx+48], eax
  000aa	8b 43 34	 mov	 eax, DWORD PTR [ebx+52]
  000ad	89 41 34	 mov	 DWORD PTR [ecx+52], eax
  000b0	8b 43 38	 mov	 eax, DWORD PTR [ebx+56]
  000b3	89 41 38	 mov	 DWORD PTR [ecx+56], eax
  000b6	8b 43 3c	 mov	 eax, DWORD PTR [ebx+60]
  000b9	89 41 3c	 mov	 DWORD PTR [ecx+60], eax
  000bc	8b 43 40	 mov	 eax, DWORD PTR [ebx+64]
  000bf	89 41 40	 mov	 DWORD PTR [ecx+64], eax
  000c2	8b 43 44	 mov	 eax, DWORD PTR [ebx+68]
  000c5	89 41 44	 mov	 DWORD PTR [ecx+68], eax
  000c8	8b 43 48	 mov	 eax, DWORD PTR [ebx+72]
  000cb	89 41 48	 mov	 DWORD PTR [ecx+72], eax
  000ce	0f b7 43 4c	 movzx	 eax, WORD PTR [ebx+76]
  000d2	66 89 41 4c	 mov	 WORD PTR [ecx+76], ax
  000d6	0f b7 43 4e	 movzx	 eax, WORD PTR [ebx+78]
  000da	66 89 41 4e	 mov	 WORD PTR [ecx+78], ax
  000de	0f b7 43 50	 movzx	 eax, WORD PTR [ebx+80]
  000e2	66 89 41 50	 mov	 WORD PTR [ecx+80], ax
  000e6	0f b7 43 52	 movzx	 eax, WORD PTR [ebx+82]
  000ea	66 89 41 52	 mov	 WORD PTR [ecx+82], ax
  000ee	8b 43 54	 mov	 eax, DWORD PTR [ebx+84]
  000f1	89 41 54	 mov	 DWORD PTR [ecx+84], eax
  000f4	8b 43 58	 mov	 eax, DWORD PTR [ebx+88]
  000f7	89 41 58	 mov	 DWORD PTR [ecx+88], eax
  000fa	8b 43 5c	 mov	 eax, DWORD PTR [ebx+92]
  000fd	89 41 5c	 mov	 DWORD PTR [ecx+92], eax
  00100	8b 43 60	 mov	 eax, DWORD PTR [ebx+96]
  00103	89 41 60	 mov	 DWORD PTR [ecx+96], eax
  00106	8b c1		 mov	 eax, ecx
  00108	8b 4d f4	 mov	 ecx, DWORD PTR __$EHRec$[ebp]
  0010b	64 89 0d 00 00
	00 00		 mov	 DWORD PTR fs:0, ecx
  00112	59		 pop	 ecx
  00113	5f		 pop	 edi
  00114	5e		 pop	 esi
  00115	5b		 pop	 ebx
  00116	8b e5		 mov	 esp, ebp
  00118	5d		 pop	 ebp
  00119	c2 04 00	 ret	 4
_TEXT	ENDS
;	COMDAT text$x
text$x	SEGMENT
__unwindfunclet$??0CHorizontalScale@@QAE@ABV0@@Z$0:
  00000	8b 4d f0	 mov	 ecx, DWORD PTR _this$[ebp]
  00003	e9 00 00 00 00	 jmp	 ??1CScale@@QAE@XZ
__unwindfunclet$??0CHorizontalScale@@QAE@ABV0@@Z$3:
  00008	8b 4d 08	 mov	 ecx, DWORD PTR _this$[ebp]
  0000b	ff 25 00 00 00
	00		 jmp	 DWORD PTR __imp_??1?$CStringT@DV?$StrTraitMFC_DLL@DV?$ChTraitsCRT@D@ATL@@@@@ATL@@QAE@XZ
  00011	cc		 int	 3
  00012	cc		 int	 3
  00013	cc		 int	 3
  00014	cc		 int	 3
  00015	cc		 int	 3
__ehhandler$??0CHorizontalScale@@QAE@ABV0@@Z:
  00016	90		 npad	 1
  00017	90		 npad	 1
  00018	8b 54 24 08	 mov	 edx, DWORD PTR [esp+8]
  0001c	8d 42 0c	 lea	 eax, DWORD PTR [edx+12]
  0001f	8b 4a ec	 mov	 ecx, DWORD PTR [edx-20]
  00022	33 c8		 xor	 ecx, eax
  00024	e8 00 00 00 00	 call	 @__security_check_cookie@4
  00029	b8 00 00 00 00	 mov	 eax, OFFSET __ehfuncinfo$??0CHorizontalScale@@QAE@ABV0@@Z
  0002e	e9 00 00 00 00	 jmp	 ___CxxFrameHandler3
text$x	ENDS
??0CHorizontalScale@@QAE@ABV0@@Z ENDP			; CHorizontalScale::CHorizontalScale
; Function compile flags: /Ogtp
;	COMDAT ??1CHorizontalScale@@QAE@XZ
_TEXT	SEGMENT
??1CHorizontalScale@@QAE@XZ PROC			; CHorizontalScale::~CHorizontalScale, COMDAT
; _this$ = ecx
  00000	56		 push	 esi
  00001	57		 push	 edi
  00002	8b f9		 mov	 edi, ecx
  00004	8d 4f 14	 lea	 ecx, DWORD PTR [edi+20]
  00007	ff 15 00 00 00
	00		 call	 DWORD PTR __imp_??1?$CStringT@DV?$StrTraitMFC_DLL@DV?$ChTraitsCRT@D@ATL@@@@@ATL@@QAE@XZ
  0000d	8d 4f 10	 lea	 ecx, DWORD PTR [edi+16]
  00010	ff 15 00 00 00
	00		 call	 DWORD PTR __imp_??1?$CStringT@DV?$StrTraitMFC_DLL@DV?$ChTraitsCRT@D@ATL@@@@@ATL@@QAE@XZ
  00016	8d 4f 04	 lea	 ecx, DWORD PTR [edi+4]
  00019	5f		 pop	 edi
  0001a	5e		 pop	 esi
  0001b	ff 25 00 00 00
	00		 jmp	 DWORD PTR __imp_??1?$CStringT@DV?$StrTraitMFC_DLL@DV?$ChTraitsCRT@D@ATL@@@@@ATL@@QAE@XZ
??1CHorizontalScale@@QAE@XZ ENDP			; CHorizontalScale::~CHorizontalScale
_TEXT	ENDS
; Function compile flags: /Ogtp
;	COMDAT ??0CScale@@QAE@ABV0@@Z
_TEXT	SEGMENT
_this$ = -4						; size = 4
___that$ = 8						; size = 4
??0CScale@@QAE@ABV0@@Z PROC				; CScale::CScale, COMDAT
; _this$ = ecx
  00000	55		 push	 ebp
  00001	8b ec		 mov	 ebp, esp
  00003	51		 push	 ecx
  00004	56		 push	 esi
  00005	8b 75 08	 mov	 esi, DWORD PTR ___that$[ebp]
  00008	57		 push	 edi
  00009	8b f9		 mov	 edi, ecx
  0000b	89 7d fc	 mov	 DWORD PTR _this$[ebp], edi
  0000e	8d 46 04	 lea	 eax, DWORD PTR [esi+4]
  00011	50		 push	 eax
  00012	8d 4f 04	 lea	 ecx, DWORD PTR [edi+4]
  00015	c7 07 00 00 00
	00		 mov	 DWORD PTR [edi], OFFSET ??_7CScale@@6B@
  0001b	ff 15 00 00 00
	00		 call	 DWORD PTR __imp_??0?$CStringT@DV?$StrTraitMFC_DLL@DV?$ChTraitsCRT@D@ATL@@@@@ATL@@QAE@ABV01@@Z
  00021	8b 46 08	 mov	 eax, DWORD PTR [esi+8]
  00024	89 47 08	 mov	 DWORD PTR [edi+8], eax
  00027	8b c7		 mov	 eax, edi
  00029	5f		 pop	 edi
  0002a	5e		 pop	 esi
  0002b	8b e5		 mov	 esp, ebp
  0002d	5d		 pop	 ebp
  0002e	c2 04 00	 ret	 4
??0CScale@@QAE@ABV0@@Z ENDP				; CScale::CScale
_TEXT	ENDS
; Function compile flags: /Ogtp
;	COMDAT ??1CScale@@QAE@XZ
_TEXT	SEGMENT
??1CScale@@QAE@XZ PROC					; CScale::~CScale, COMDAT
; _this$ = ecx
  00000	83 c1 04	 add	 ecx, 4
  00003	ff 25 00 00 00
	00		 jmp	 DWORD PTR __imp_??1?$CStringT@DV?$StrTraitMFC_DLL@DV?$ChTraitsCRT@D@ATL@@@@@ATL@@QAE@XZ
??1CScale@@QAE@XZ ENDP					; CScale::~CScale
_TEXT	ENDS
; Function compile flags: /Ogtp
;	COMDAT ??0CScaleCompart@@QAE@ABV0@@Z
_TEXT	SEGMENT
_this$ = -16						; size = 4
__$EHRec$ = -12						; size = 12
___that$ = 8						; size = 4
??0CScaleCompart@@QAE@ABV0@@Z PROC			; CScaleCompart::CScaleCompart, COMDAT
; _this$ = ecx
  00000	55		 push	 ebp
  00001	8b ec		 mov	 ebp, esp
  00003	6a ff		 push	 -1
  00005	68 00 00 00 00	 push	 __ehhandler$??0CScaleCompart@@QAE@ABV0@@Z
  0000a	64 a1 00 00 00
	00		 mov	 eax, DWORD PTR fs:0
  00010	50		 push	 eax
  00011	51		 push	 ecx
  00012	56		 push	 esi
  00013	57		 push	 edi
  00014	a1 00 00 00 00	 mov	 eax, DWORD PTR ___security_cookie
  00019	33 c5		 xor	 eax, ebp
  0001b	50		 push	 eax
  0001c	8d 45 f4	 lea	 eax, DWORD PTR __$EHRec$[ebp]
  0001f	64 a3 00 00 00
	00		 mov	 DWORD PTR fs:0, eax
  00025	8b f9		 mov	 edi, ecx
  00027	89 7d f0	 mov	 DWORD PTR _this$[ebp], edi
  0002a	8b 75 08	 mov	 esi, DWORD PTR ___that$[ebp]
  0002d	56		 push	 esi
  0002e	ff 15 00 00 00
	00		 call	 DWORD PTR __imp_??0?$CStringT@DV?$StrTraitMFC_DLL@DV?$ChTraitsCRT@D@ATL@@@@@ATL@@QAE@ABV01@@Z
  00034	8d 46 04	 lea	 eax, DWORD PTR [esi+4]
  00037	c7 45 fc 00 00
	00 00		 mov	 DWORD PTR __$EHRec$[ebp+8], 0
  0003e	50		 push	 eax
  0003f	8d 4f 04	 lea	 ecx, DWORD PTR [edi+4]
  00042	ff 15 00 00 00
	00		 call	 DWORD PTR __imp_??0?$CStringT@DV?$StrTraitMFC_DLL@DV?$ChTraitsCRT@D@ATL@@@@@ATL@@QAE@ABV01@@Z
  00048	8b 46 08	 mov	 eax, DWORD PTR [esi+8]
  0004b	89 47 08	 mov	 DWORD PTR [edi+8], eax
  0004e	8b c7		 mov	 eax, edi
  00050	8b 4d f4	 mov	 ecx, DWORD PTR __$EHRec$[ebp]
  00053	64 89 0d 00 00
	00 00		 mov	 DWORD PTR fs:0, ecx
  0005a	59		 pop	 ecx
  0005b	5f		 pop	 edi
  0005c	5e		 pop	 esi
  0005d	8b e5		 mov	 esp, ebp
  0005f	5d		 pop	 ebp
  00060	c2 04 00	 ret	 4
_TEXT	ENDS
;	COMDAT text$x
text$x	SEGMENT
__unwindfunclet$??0CScaleCompart@@QAE@ABV0@@Z$0:
  00000	8b 4d f0	 mov	 ecx, DWORD PTR _this$[ebp]
  00003	ff 25 00 00 00
	00		 jmp	 DWORD PTR __imp_??1?$CStringT@DV?$StrTraitMFC_DLL@DV?$ChTraitsCRT@D@ATL@@@@@ATL@@QAE@XZ
  00009	cc		 int	 3
  0000a	cc		 int	 3
  0000b	cc		 int	 3
  0000c	cc		 int	 3
  0000d	cc		 int	 3
__ehhandler$??0CScaleCompart@@QAE@ABV0@@Z:
  0000e	90		 npad	 1
  0000f	90		 npad	 1
  00010	8b 54 24 08	 mov	 edx, DWORD PTR [esp+8]
  00014	8d 42 0c	 lea	 eax, DWORD PTR [edx+12]
  00017	8b 4a f0	 mov	 ecx, DWORD PTR [edx-16]
  0001a	33 c8		 xor	 ecx, eax
  0001c	e8 00 00 00 00	 call	 @__security_check_cookie@4
  00021	b8 00 00 00 00	 mov	 eax, OFFSET __ehfuncinfo$??0CScaleCompart@@QAE@ABV0@@Z
  00026	e9 00 00 00 00	 jmp	 ___CxxFrameHandler3
text$x	ENDS
??0CScaleCompart@@QAE@ABV0@@Z ENDP			; CScaleCompart::CScaleCompart
; Function compile flags: /Ogtp
;	COMDAT ??1CScaleCompart@@QAE@XZ
_TEXT	SEGMENT
??1CScaleCompart@@QAE@XZ PROC				; CScaleCompart::~CScaleCompart, COMDAT
; _this$ = ecx
  00000	56		 push	 esi
  00001	8b f1		 mov	 esi, ecx
  00003	8d 4e 04	 lea	 ecx, DWORD PTR [esi+4]
  00006	ff 15 00 00 00
	00		 call	 DWORD PTR __imp_??1?$CStringT@DV?$StrTraitMFC_DLL@DV?$ChTraitsCRT@D@ATL@@@@@ATL@@QAE@XZ
  0000c	8b ce		 mov	 ecx, esi
  0000e	5e		 pop	 esi
  0000f	ff 25 00 00 00
	00		 jmp	 DWORD PTR __imp_??1?$CStringT@DV?$StrTraitMFC_DLL@DV?$ChTraitsCRT@D@ATL@@@@@ATL@@QAE@XZ
??1CScaleCompart@@QAE@XZ ENDP				; CScaleCompart::~CScaleCompart
_TEXT	ENDS
; Function compile flags: /Ogtp
; File D:\git\src\IBK\IBK_DRFN\ProjSrc\SrcChartEx\ChartOCX\ScaleDraw\HorzScaleDrawer.cpp
; File C:\Program Files (x86)\Microsoft Visual Studio\2019\Community\VC\Tools\MSVC\14.29.30133\atlmfc\include\atltypes.h
; File D:\git\src\IBK\IBK_DRFN\ProjSrc\SrcChartEx\ChartOCX\ScaleDraw\HorzScaleDrawer.cpp
; File C:\Program Files (x86)\Microsoft Visual Studio\2019\Community\VC\Tools\MSVC\14.29.30133\atlmfc\include\atltypes.h
; File D:\git\src\IBK\IBK_DRFN\ProjSrc\SrcChartEx\ChartOCX\ScaleDraw\HorzScaleDrawer.cpp
; File C:\Program Files (x86)\Microsoft Visual Studio\2019\Community\VC\Tools\MSVC\14.29.30133\atlmfc\include\atltypes.h
; File D:\git\src\IBK\IBK_DRFN\ProjSrc\SrcChartEx\ChartOCX\ScaleDraw\HorzScaleDrawer.cpp
; File C:\Program Files (x86)\Microsoft Visual Studio\2019\Community\VC\Tools\MSVC\14.29.30133\atlmfc\include\atltypes.h
; File D:\git\src\IBK\IBK_DRFN\ProjSrc\SrcChartEx\ChartOCX\ScaleDraw\HorzScaleDrawer.cpp
;	COMDAT ?DrawGrid@CHorzScaleDrawer@@IAEXPAVCDC@@ABVCDrawingHorzScaleData@@W4SCALEGRIDTYPE@CScaleBaseData@@KHH@Z
_TEXT	SEGMENT
$T1 = -56						; size = 8
$T2 = -48						; size = 8
_this$GSCopy$1$ = -40					; size = 4
$T3 = -36						; size = 16
$T4 = -20						; size = 16
__$ArrayPad$ = -4					; size = 4
_pDC$ = 8						; size = 4
_drawingHorzScaleData$ = 12				; size = 4
_gridType$ = 16						; size = 4
_clrGridColor$ = 20					; size = 4
_pt_x$ = 24						; size = 4
_nWidth$ = 28						; size = 4
?DrawGrid@CHorzScaleDrawer@@IAEXPAVCDC@@ABVCDrawingHorzScaleData@@W4SCALEGRIDTYPE@CScaleBaseData@@KHH@Z PROC ; CHorzScaleDrawer::DrawGrid, COMDAT
; _this$ = ecx

; 308  : {

  00000	55		 push	 ebp
  00001	8b ec		 mov	 ebp, esp
  00003	83 ec 38	 sub	 esp, 56			; 00000038H
  00006	a1 00 00 00 00	 mov	 eax, DWORD PTR ___security_cookie
  0000b	33 c5		 xor	 eax, ebp
  0000d	89 45 fc	 mov	 DWORD PTR __$ArrayPad$[ebp], eax
  00010	53		 push	 ebx
  00011	8b 5d 08	 mov	 ebx, DWORD PTR _pDC$[ebp]

; 311  : 	CDrawer::DrawGrid(pDC, gridType,

  00014	8d 45 ec	 lea	 eax, DWORD PTR $T4[ebp]
  00017	56		 push	 esi
  00018	8b 75 0c	 mov	 esi, DWORD PTR _drawingHorzScaleData$[ebp]
  0001b	57		 push	 edi
  0001c	8b 7d 18	 mov	 edi, DWORD PTR _pt_x$[ebp]
  0001f	89 4d d8	 mov	 DWORD PTR _this$GSCopy$1$[ebp], ecx
  00022	8b ce		 mov	 ecx, esi
  00024	50		 push	 eax
  00025	e8 00 00 00 00	 call	 ?GetDrawingGraphRegion@CDrawingHorzScaleData@@QBE?AVCRect@@XZ ; CDrawingHorzScaleData::GetDrawingGraphRegion
  0002a	8b ce		 mov	 ecx, esi
  0002c	8b 40 0c	 mov	 eax, DWORD PTR [eax+12]
; File C:\Program Files (x86)\Microsoft Visual Studio\2019\Community\VC\Tools\MSVC\14.29.30133\atlmfc\include\atltypes.h

; 409  : 	y = initY;

  0002f	89 45 d4	 mov	 DWORD PTR $T2[ebp+4], eax
; File D:\git\src\IBK\IBK_DRFN\ProjSrc\SrcChartEx\ChartOCX\ScaleDraw\HorzScaleDrawer.cpp

; 311  : 	CDrawer::DrawGrid(pDC, gridType,

  00032	8d 45 dc	 lea	 eax, DWORD PTR $T3[ebp]
  00035	50		 push	 eax
; File C:\Program Files (x86)\Microsoft Visual Studio\2019\Community\VC\Tools\MSVC\14.29.30133\atlmfc\include\atltypes.h

; 408  : 	x = initX;

  00036	89 7d d0	 mov	 DWORD PTR $T2[ebp], edi
; File D:\git\src\IBK\IBK_DRFN\ProjSrc\SrcChartEx\ChartOCX\ScaleDraw\HorzScaleDrawer.cpp

; 311  : 	CDrawer::DrawGrid(pDC, gridType,

  00039	e8 00 00 00 00	 call	 ?GetDrawingGraphRegion@CDrawingHorzScaleData@@QBE?AVCRect@@XZ ; CDrawingHorzScaleData::GetDrawingGraphRegion
  0003e	ff 75 1c	 push	 DWORD PTR _nWidth$[ebp]
  00041	8b 4d d8	 mov	 ecx, DWORD PTR _this$GSCopy$1$[ebp]
  00044	ff 75 14	 push	 DWORD PTR _clrGridColor$[ebp]
  00047	8b 40 04	 mov	 eax, DWORD PTR [eax+4]
  0004a	83 c1 04	 add	 ecx, 4
; File C:\Program Files (x86)\Microsoft Visual Studio\2019\Community\VC\Tools\MSVC\14.29.30133\atlmfc\include\atltypes.h

; 409  : 	y = initY;

  0004d	89 45 cc	 mov	 DWORD PTR $T1[ebp+4], eax
; File D:\git\src\IBK\IBK_DRFN\ProjSrc\SrcChartEx\ChartOCX\ScaleDraw\HorzScaleDrawer.cpp

; 311  : 	CDrawer::DrawGrid(pDC, gridType,

  00050	8d 45 d0	 lea	 eax, DWORD PTR $T2[ebp]
  00053	50		 push	 eax
  00054	8d 45 c8	 lea	 eax, DWORD PTR $T1[ebp]
; File C:\Program Files (x86)\Microsoft Visual Studio\2019\Community\VC\Tools\MSVC\14.29.30133\atlmfc\include\atltypes.h

; 408  : 	x = initX;

  00057	89 7d c8	 mov	 DWORD PTR $T1[ebp], edi
; File D:\git\src\IBK\IBK_DRFN\ProjSrc\SrcChartEx\ChartOCX\ScaleDraw\HorzScaleDrawer.cpp

; 311  : 	CDrawer::DrawGrid(pDC, gridType,

  0005a	50		 push	 eax
  0005b	ff 75 10	 push	 DWORD PTR _gridType$[ebp]
  0005e	53		 push	 ebx
  0005f	e8 00 00 00 00	 call	 ?DrawGrid@CDrawer@@IAEXPAVCDC@@W4SCALEGRIDTYPE@CScaleBaseData@@ABVCPoint@@2KH@Z ; CDrawer::DrawGrid

; 312  : 		CPoint(pt_x, drawingHorzScaleData.GetDrawingGraphRegion().top),
; 313  : 		CPoint(pt_x, drawingHorzScaleData.GetDrawingGraphRegion().bottom),
; 314  : 		clrGridColor, nWidth);
; 315  : }

  00064	8b 4d fc	 mov	 ecx, DWORD PTR __$ArrayPad$[ebp]
  00067	5f		 pop	 edi
  00068	5e		 pop	 esi
  00069	33 cd		 xor	 ecx, ebp
  0006b	5b		 pop	 ebx
  0006c	e8 00 00 00 00	 call	 @__security_check_cookie@4
  00071	8b e5		 mov	 esp, ebp
  00073	5d		 pop	 ebp
  00074	c2 18 00	 ret	 24			; 00000018H
?DrawGrid@CHorzScaleDrawer@@IAEXPAVCDC@@ABVCDrawingHorzScaleData@@W4SCALEGRIDTYPE@CScaleBaseData@@KHH@Z ENDP ; CHorzScaleDrawer::DrawGrid
_TEXT	ENDS
; Function compile flags: /Ogtp
; File D:\git\src\IBK\IBK_DRFN\ProjSrc\SrcChartEx\ChartOCX\ScaleDraw\HorzScaleDrawer.cpp
;	COMDAT ?GetGap@CHorzScaleDrawer@@ABENPAVCDC@@PAVCPacket@@ABVCRect@@ABVCDisplayDataMinMax@@ABN4@Z
_TEXT	SEGMENT
_pDC$ = 8						; size = 4
_pPacket$ = 12						; size = 4
_scaleTextRegion$ = 16					; size = 4
_displayDataMinMax$ = 20				; size = 4
_dOnPtWidth$ = 24					; size = 4
_dOrgGap$ = 28						; size = 4
?GetGap@CHorzScaleDrawer@@ABENPAVCDC@@PAVCPacket@@ABVCRect@@ABVCDisplayDataMinMax@@ABN4@Z PROC ; CHorzScaleDrawer::GetGap, COMDAT
; _this$ = ecx

; 372  : {

  00000	55		 push	 ebp
  00001	8b ec		 mov	 ebp, esp

; 373  : 	return dOrgGap;

  00003	8b 45 1c	 mov	 eax, DWORD PTR _dOrgGap$[ebp]
  00006	dd 00		 fld	 QWORD PTR [eax]

; 374  : }

  00008	5d		 pop	 ebp
  00009	c2 18 00	 ret	 24			; 00000018H
?GetGap@CHorzScaleDrawer@@ABENPAVCDC@@PAVCPacket@@ABVCRect@@ABVCDisplayDataMinMax@@ABN4@Z ENDP ; CHorzScaleDrawer::GetGap
_TEXT	ENDS
; Function compile flags: /Ogtp
; File D:\git\src\IBK\IBK_DRFN\ProjSrc\SrcChartEx\ChartOCX\ScaleDraw\HorzScaleDrawer.cpp
;	COMDAT ?GetHorzScalePosition_y@CHorzScaleDrawer@@ABEHHHH@Z
_TEXT	SEGMENT
_org_y$ = 8						; size = 4
_orgHight$ = 12						; size = 4
_textHeight$ = 16					; size = 4
?GetHorzScalePosition_y@CHorzScaleDrawer@@ABEHHHH@Z PROC ; CHorzScaleDrawer::GetHorzScalePosition_y, COMDAT
; _this$ = ecx

; 357  : {

  00000	55		 push	 ebp
  00001	8b ec		 mov	 ebp, esp
  00003	56		 push	 esi

; 358  : 	if(orgHight > (textHeight +3)){

  00004	8b 75 10	 mov	 esi, DWORD PTR _textHeight$[ebp]
  00007	57		 push	 edi
  00008	8b 7d 0c	 mov	 edi, DWORD PTR _orgHight$[ebp]
  0000b	8d 46 03	 lea	 eax, DWORD PTR [esi+3]
  0000e	3b f8		 cmp	 edi, eax
  00010	7e 2a		 jle	 SHORT $LN2@GetHorzSca

; 359  : 		if(orgHight/2 >= textHeight){

  00012	8b 4d 08	 mov	 ecx, DWORD PTR _org_y$[ebp]
  00015	8b c7		 mov	 eax, edi
  00017	2b c6		 sub	 eax, esi
  00019	99		 cdq
  0001a	2b c2		 sub	 eax, edx
  0001c	d1 f8		 sar	 eax, 1
  0001e	03 c8		 add	 ecx, eax
  00020	8b c7		 mov	 eax, edi
  00022	99		 cdq
  00023	2b c2		 sub	 eax, edx
  00025	d1 f8		 sar	 eax, 1
  00027	3b c6		 cmp	 eax, esi
  00029	7c 08		 jl	 SHORT $LN3@GetHorzSca

; 360  : 			//return (org_y + (orgHight/2 - textHeight)/2);
; 361  : 			return (org_y + (orgHight - textHeight)/2);

  0002b	5f		 pop	 edi
  0002c	8b c1		 mov	 eax, ecx

; 366  : }

  0002e	5e		 pop	 esi
  0002f	5d		 pop	 ebp
  00030	c2 0c 00	 ret	 12			; 0000000cH
$LN3@GetHorzSca:
  00033	5f		 pop	 edi

; 362  : 		}
; 363  : 		return (org_y + (orgHight - textHeight)/2 +3);

  00034	8d 41 03	 lea	 eax, DWORD PTR [ecx+3]

; 366  : }

  00037	5e		 pop	 esi
  00038	5d		 pop	 ebp
  00039	c2 0c 00	 ret	 12			; 0000000cH
$LN2@GetHorzSca:

; 364  : 	}
; 365  : 	return org_y;

  0003c	8b 45 08	 mov	 eax, DWORD PTR _org_y$[ebp]
  0003f	5f		 pop	 edi

; 366  : }

  00040	5e		 pop	 esi
  00041	5d		 pop	 ebp
  00042	c2 0c 00	 ret	 12			; 0000000cH
?GetHorzScalePosition_y@CHorzScaleDrawer@@ABEHHHH@Z ENDP ; CHorzScaleDrawer::GetHorzScalePosition_y
_TEXT	ENDS
; Function compile flags: /Ogtp
; File D:\git\src\IBK\IBK_DRFN\ProjSrc\SrcChartEx\ChartOCX\ScaleDraw\HorzScaleDrawer.cpp
; File C:\Program Files (x86)\Microsoft Visual Studio\2019\Community\VC\Tools\MSVC\14.29.30133\atlmfc\include\atlsimpstr.h
; File D:\git\src\IBK\IBK_DRFN\ProjSrc\SrcChartEx\ChartOCX\ScaleDraw\HorzScaleDrawer.cpp
; File C:\Program Files (x86)\Microsoft Visual Studio\2019\Community\VC\Tools\MSVC\14.29.30133\atlmfc\include\atlsimpstr.h
; File D:\git\src\IBK\IBK_DRFN\ProjSrc\SrcChartEx\ChartOCX\ScaleDraw\HorzScaleDrawer.cpp
;	COMDAT ?GetFindEndIndex@CHorzScaleDrawer@@IBEHABV?$CStringT@DV?$StrTraitMFC_DLL@DV?$ChTraitsCRT@D@ATL@@@@@ATL@@0@Z
_TEXT	SEGMENT
__$EHRec$ = -12						; size = 12
_data$ = 8						; size = 4
_tempData$ = 12						; size = 4
_findData$ = 12						; size = 4
?GetFindEndIndex@CHorzScaleDrawer@@IBEHABV?$CStringT@DV?$StrTraitMFC_DLL@DV?$ChTraitsCRT@D@ATL@@@@@ATL@@0@Z PROC ; CHorzScaleDrawer::GetFindEndIndex, COMDAT
; _this$ = ecx

; 339  : {

  00000	55		 push	 ebp
  00001	8b ec		 mov	 ebp, esp
  00003	6a ff		 push	 -1
  00005	68 00 00 00 00	 push	 __ehhandler$?GetFindEndIndex@CHorzScaleDrawer@@IBEHABV?$CStringT@DV?$StrTraitMFC_DLL@DV?$ChTraitsCRT@D@ATL@@@@@ATL@@0@Z
  0000a	64 a1 00 00 00
	00		 mov	 eax, DWORD PTR fs:0
  00010	50		 push	 eax
  00011	53		 push	 ebx
  00012	56		 push	 esi
  00013	57		 push	 edi
  00014	a1 00 00 00 00	 mov	 eax, DWORD PTR ___security_cookie
  00019	33 c5		 xor	 eax, ebp
  0001b	50		 push	 eax
  0001c	8d 45 f4	 lea	 eax, DWORD PTR __$EHRec$[ebp]
  0001f	64 a3 00 00 00
	00		 mov	 DWORD PTR fs:0, eax
; File C:\Program Files (x86)\Microsoft Visual Studio\2019\Community\VC\Tools\MSVC\14.29.30133\atlmfc\include\atlsimpstr.h

; 377  : 		return( m_pszData );

  00025	8b 7d 0c	 mov	 edi, DWORD PTR _findData$[ebp]
; File D:\git\src\IBK\IBK_DRFN\ProjSrc\SrcChartEx\ChartOCX\ScaleDraw\HorzScaleDrawer.cpp

; 340  : 	int nFindIndex = data.Find(findData);

  00028	8b 5d 08	 mov	 ebx, DWORD PTR _data$[ebp]
  0002b	8b cb		 mov	 ecx, ebx
  0002d	6a 00		 push	 0
  0002f	ff 37		 push	 DWORD PTR [edi]
  00031	ff 15 00 00 00
	00		 call	 DWORD PTR __imp_?Find@?$CStringT@DV?$StrTraitMFC_DLL@DV?$ChTraitsCRT@D@ATL@@@@@ATL@@QBEHPBDH@Z
  00037	8b f0		 mov	 esi, eax

; 341  : 	if(nFindIndex < 0)

  00039	85 f6		 test	 esi, esi
  0003b	79 17		 jns	 SHORT $LN4@GetFindEnd

; 342  : 		return -1;

  0003d	83 c8 ff	 or	 eax, -1

; 353  : }

  00040	8b 4d f4	 mov	 ecx, DWORD PTR __$EHRec$[ebp]
  00043	64 89 0d 00 00
	00 00		 mov	 DWORD PTR fs:0, ecx
  0004a	59		 pop	 ecx
  0004b	5f		 pop	 edi
  0004c	5e		 pop	 esi
  0004d	5b		 pop	 ebx
  0004e	8b e5		 mov	 esp, ebp
  00050	5d		 pop	 ebp
  00051	c2 08 00	 ret	 8
$LN4@GetFindEnd:
; File C:\Program Files (x86)\Microsoft Visual Studio\2019\Community\VC\Tools\MSVC\14.29.30133\atlmfc\include\atlsimpstr.h

; 519  : 		return( GetData()->nDataLength );

  00054	8b 03		 mov	 eax, DWORD PTR [ebx]
  00056	8b 48 f4	 mov	 ecx, DWORD PTR [eax-12]
  00059	8b 07		 mov	 eax, DWORD PTR [edi]
; File D:\git\src\IBK\IBK_DRFN\ProjSrc\SrcChartEx\ChartOCX\ScaleDraw\HorzScaleDrawer.cpp

; 344  : 	CString tempData = data.Right(data.GetLength() - (nFindIndex + findData.GetLength()));

  0005b	2b 48 f4	 sub	 ecx, DWORD PTR [eax-12]
  0005e	8d 45 0c	 lea	 eax, DWORD PTR _tempData$[ebp]
  00061	2b ce		 sub	 ecx, esi
  00063	51		 push	 ecx
  00064	50		 push	 eax
  00065	8b cb		 mov	 ecx, ebx
  00067	ff 15 00 00 00
	00		 call	 DWORD PTR __imp_?Right@?$CStringT@DV?$StrTraitMFC_DLL@DV?$ChTraitsCRT@D@ATL@@@@@ATL@@QBE?AV12@H@Z

; 345  : 	while(data.GetLength() > nFindIndex){

  0006d	8b 03		 mov	 eax, DWORD PTR [ebx]
  0006f	c7 45 fc 00 00
	00 00		 mov	 DWORD PTR __$EHRec$[ebp+8], 0
  00076	39 70 f4	 cmp	 DWORD PTR [eax-12], esi
  00079	7e 29		 jle	 SHORT $LN27@GetFindEnd
  0007b	0f 1f 44 00 00	 npad	 5
$LL2@GetFindEnd:

; 346  : 		if(tempData.Find(findData) != 0)

  00080	6a 00		 push	 0
  00082	ff 37		 push	 DWORD PTR [edi]
  00084	8d 4d 0c	 lea	 ecx, DWORD PTR _tempData$[ebp]
  00087	ff 15 00 00 00
	00		 call	 DWORD PTR __imp_?Find@?$CStringT@DV?$StrTraitMFC_DLL@DV?$ChTraitsCRT@D@ATL@@@@@ATL@@QBEHPBDH@Z
  0008d	85 c0		 test	 eax, eax
  0008f	75 13		 jne	 SHORT $LN27@GetFindEnd

; 347  : 			break;
; 348  : 		nFindIndex++;
; 349  : 		tempData.TrimLeft(findData);

  00091	ff 37		 push	 DWORD PTR [edi]
  00093	8d 4d 0c	 lea	 ecx, DWORD PTR _tempData$[ebp]
  00096	46		 inc	 esi
  00097	ff 15 00 00 00
	00		 call	 DWORD PTR __imp_?TrimLeft@?$CStringT@DV?$StrTraitMFC_DLL@DV?$ChTraitsCRT@D@ATL@@@@@ATL@@QAEAAV12@PBD@Z
  0009d	8b 03		 mov	 eax, DWORD PTR [ebx]
  0009f	39 70 f4	 cmp	 DWORD PTR [eax-12], esi
  000a2	7f dc		 jg	 SHORT $LL2@GetFindEnd
$LN27@GetFindEnd:

; 350  : 	}
; 351  : 
; 352  : 	return nFindIndex;

  000a4	8d 4d 0c	 lea	 ecx, DWORD PTR _tempData$[ebp]
  000a7	ff 15 00 00 00
	00		 call	 DWORD PTR __imp_??1?$CStringT@DV?$StrTraitMFC_DLL@DV?$ChTraitsCRT@D@ATL@@@@@ATL@@QAE@XZ
  000ad	8b c6		 mov	 eax, esi

; 353  : }

  000af	8b 4d f4	 mov	 ecx, DWORD PTR __$EHRec$[ebp]
  000b2	64 89 0d 00 00
	00 00		 mov	 DWORD PTR fs:0, ecx
  000b9	59		 pop	 ecx
  000ba	5f		 pop	 edi
  000bb	5e		 pop	 esi
  000bc	5b		 pop	 ebx
  000bd	8b e5		 mov	 esp, ebp
  000bf	5d		 pop	 ebp
  000c0	c2 08 00	 ret	 8
_TEXT	ENDS
;	COMDAT text$x
text$x	SEGMENT
__unwindfunclet$?GetFindEndIndex@CHorzScaleDrawer@@IBEHABV?$CStringT@DV?$StrTraitMFC_DLL@DV?$ChTraitsCRT@D@ATL@@@@@ATL@@0@Z$0:
  00000	8d 4d 0c	 lea	 ecx, DWORD PTR _tempData$[ebp]
  00003	ff 25 00 00 00
	00		 jmp	 DWORD PTR __imp_??1?$CStringT@DV?$StrTraitMFC_DLL@DV?$ChTraitsCRT@D@ATL@@@@@ATL@@QAE@XZ
  00009	cc		 int	 3
  0000a	cc		 int	 3
  0000b	cc		 int	 3
  0000c	cc		 int	 3
  0000d	cc		 int	 3
__ehhandler$?GetFindEndIndex@CHorzScaleDrawer@@IBEHABV?$CStringT@DV?$StrTraitMFC_DLL@DV?$ChTraitsCRT@D@ATL@@@@@ATL@@0@Z:
  0000e	90		 npad	 1
  0000f	90		 npad	 1
  00010	8b 54 24 08	 mov	 edx, DWORD PTR [esp+8]
  00014	8d 42 0c	 lea	 eax, DWORD PTR [edx+12]
  00017	8b 4a f0	 mov	 ecx, DWORD PTR [edx-16]
  0001a	33 c8		 xor	 ecx, eax
  0001c	e8 00 00 00 00	 call	 @__security_check_cookie@4
  00021	b8 00 00 00 00	 mov	 eax, OFFSET __ehfuncinfo$?GetFindEndIndex@CHorzScaleDrawer@@IBEHABV?$CStringT@DV?$StrTraitMFC_DLL@DV?$ChTraitsCRT@D@ATL@@@@@ATL@@0@Z
  00026	e9 00 00 00 00	 jmp	 ___CxxFrameHandler3
text$x	ENDS
?GetFindEndIndex@CHorzScaleDrawer@@IBEHABV?$CStringT@DV?$StrTraitMFC_DLL@DV?$ChTraitsCRT@D@ATL@@@@@ATL@@0@Z ENDP ; CHorzScaleDrawer::GetFindEndIndex
; Function compile flags: /Ogtp
; File D:\git\src\IBK\IBK_DRFN\ProjSrc\SrcChartEx\ChartOCX\ScaleDraw\HorzScaleDrawer.cpp
; File C:\Program Files (x86)\Microsoft Visual Studio\2019\Community\VC\Tools\MSVC\14.29.30133\atlmfc\include\atltypes.h
; File D:\git\src\IBK\IBK_DRFN\ProjSrc\SrcChartEx\ChartOCX\ScaleDraw\HorzScaleDrawer.cpp
; File C:\Program Files (x86)\Microsoft Visual Studio\2019\Community\VC\Tools\MSVC\14.29.30133\atlmfc\include\atltypes.h
; File D:\git\src\IBK\IBK_DRFN\ProjSrc\SrcChartEx\ChartOCX\ScaleDraw\HorzScaleDrawer.cpp
; File C:\Program Files (x86)\Microsoft Visual Studio\2019\Community\VC\Tools\MSVC\14.29.30133\atlmfc\include\atltypes.h
; File D:\git\src\IBK\IBK_DRFN\ProjSrc\SrcChartEx\ChartOCX\ScaleDraw\HorzScaleDrawer.cpp
; File C:\Program Files (x86)\Microsoft Visual Studio\2019\Community\VC\Tools\MSVC\14.29.30133\atlmfc\include\atltypes.h
; File D:\git\src\IBK\IBK_DRFN\ProjSrc\SrcChartEx\ChartOCX\ScaleDraw\HorzScaleDrawer.cpp
; File C:\Program Files (x86)\Microsoft Visual Studio\2019\Community\VC\Tools\MSVC\14.29.30133\atlmfc\include\atltypes.h
; File D:\git\src\IBK\IBK_DRFN\ProjSrc\SrcChartEx\ChartOCX\ScaleDraw\HorzScaleDrawer.cpp
;	COMDAT ?DrawTextCompartLine@CHorzScaleDrawer@@IAEXPAVCDC@@ABVCRect@@ABVCPoint@@_NK@Z
_TEXT	SEGMENT
$T1 = -16						; size = 8
$T2 = -16						; size = 8
$T3 = -8						; size = 8
$T4 = -8						; size = 8
_this$1$ = -4						; size = 4
_pDC$ = 8						; size = 4
_scaleRegion$ = 12					; size = 4
_nowPos$ = 16						; size = 4
_bIsTopPos$ = 20					; size = 1
_gridColor$ = 24					; size = 4
?DrawTextCompartLine@CHorzScaleDrawer@@IAEXPAVCDC@@ABVCRect@@ABVCPoint@@_NK@Z PROC ; CHorzScaleDrawer::DrawTextCompartLine, COMDAT
; _this$ = ecx

; 319  : {

  00000	55		 push	 ebp
  00001	8b ec		 mov	 ebp, esp
  00003	83 ec 10	 sub	 esp, 16			; 00000010H
; File C:\Program Files (x86)\Microsoft Visual Studio\2019\Community\VC\Tools\MSVC\14.29.30133\atlmfc\include\atltypes.h

; 581  : 	return bottom - top;

  00006	8b 45 0c	 mov	 eax, DWORD PTR _scaleRegion$[ebp]
; File D:\git\src\IBK\IBK_DRFN\ProjSrc\SrcChartEx\ChartOCX\ScaleDraw\HorzScaleDrawer.cpp

; 319  : {

  00009	53		 push	 ebx
  0000a	56		 push	 esi
  0000b	57		 push	 edi
; File C:\Program Files (x86)\Microsoft Visual Studio\2019\Community\VC\Tools\MSVC\14.29.30133\atlmfc\include\atltypes.h

; 581  : 	return bottom - top;

  0000c	8b 78 0c	 mov	 edi, DWORD PTR [eax+12]
  0000f	8b f7		 mov	 esi, edi
  00011	8b 58 04	 mov	 ebx, DWORD PTR [eax+4]
  00014	2b f3		 sub	 esi, ebx
; File D:\git\src\IBK\IBK_DRFN\ProjSrc\SrcChartEx\ChartOCX\ScaleDraw\HorzScaleDrawer.cpp

; 320  : 	int nHight = scaleRegion.Height() / 3;

  00016	b8 56 55 55 55	 mov	 eax, 1431655766		; 55555556H
  0001b	89 4d fc	 mov	 DWORD PTR _this$1$[ebp], ecx
  0001e	f7 ee		 imul	 esi
  00020	8b ca		 mov	 ecx, edx
  00022	c1 e9 1f	 shr	 ecx, 31			; 0000001fH
  00025	03 ca		 add	 ecx, edx

; 321  : 	if(nHight > 6)

  00027	83 f9 06	 cmp	 ecx, 6
  0002a	7e 07		 jle	 SHORT $LN2@DrawTextCo

; 322  : 		nHight = 6;

  0002c	b9 06 00 00 00	 mov	 ecx, 6
  00031	eb 10		 jmp	 SHORT $LN4@DrawTextCo
$LN2@DrawTextCo:

; 323  : 	else if(nHight < 2 && scaleRegion.Height() > 6)

  00033	83 f9 02	 cmp	 ecx, 2
  00036	7d 0b		 jge	 SHORT $LN4@DrawTextCo
  00038	83 fe 06	 cmp	 esi, 6
  0003b	b8 03 00 00 00	 mov	 eax, 3
  00040	0f 4f c8	 cmovg	 ecx, eax
$LN4@DrawTextCo:

; 324  : 		nHight = 3;
; 325  : 
; 326  : 	if(bIsTopPos){ //

  00043	80 7d 14 00	 cmp	 BYTE PTR _bIsTopPos$[ebp], 0
  00047	8b 45 10	 mov	 eax, DWORD PTR _nowPos$[ebp]
  0004a	8b 75 fc	 mov	 esi, DWORD PTR _this$1$[ebp]
  0004d	6a 0d		 push	 13			; 0000000dH
  0004f	6a 00		 push	 0
  00051	8b 10		 mov	 edx, DWORD PTR [eax]
  00053	6a 01		 push	 1
  00055	ff 75 18	 push	 DWORD PTR _gridColor$[ebp]
  00058	89 55 f8	 mov	 DWORD PTR $T4[ebp], edx
  0005b	89 55 f0	 mov	 DWORD PTR $T2[ebp], edx
  0005e	74 13		 je	 SHORT $LN5@DrawTextCo

; 327  : 		CDrawer::DrawLine(pDC, CPoint(nowPos.x, scaleRegion.bottom), 

  00060	8b c7		 mov	 eax, edi
; File C:\Program Files (x86)\Microsoft Visual Studio\2019\Community\VC\Tools\MSVC\14.29.30133\atlmfc\include\atltypes.h

; 409  : 	y = initY;

  00062	89 7d f4	 mov	 DWORD PTR $T2[ebp+4], edi
; File D:\git\src\IBK\IBK_DRFN\ProjSrc\SrcChartEx\ChartOCX\ScaleDraw\HorzScaleDrawer.cpp

; 327  : 		CDrawer::DrawLine(pDC, CPoint(nowPos.x, scaleRegion.bottom), 

  00065	2b c1		 sub	 eax, ecx
; File C:\Program Files (x86)\Microsoft Visual Studio\2019\Community\VC\Tools\MSVC\14.29.30133\atlmfc\include\atltypes.h

; 409  : 	y = initY;

  00067	89 45 fc	 mov	 DWORD PTR $T4[ebp+4], eax
; File D:\git\src\IBK\IBK_DRFN\ProjSrc\SrcChartEx\ChartOCX\ScaleDraw\HorzScaleDrawer.cpp

; 327  : 		CDrawer::DrawLine(pDC, CPoint(nowPos.x, scaleRegion.bottom), 

  0006a	8d 45 f8	 lea	 eax, DWORD PTR $T4[ebp]
  0006d	50		 push	 eax
  0006e	8d 45 f0	 lea	 eax, DWORD PTR $T2[ebp]

; 328  : 			CPoint(nowPos.x, (scaleRegion.bottom - nHight)), gridColor);
; 329  : 	}

  00071	eb 10		 jmp	 SHORT $LN20@DrawTextCo
$LN5@DrawTextCo:

; 331  : 		CDrawer::DrawLine(pDC, CPoint(nowPos.x, scaleRegion.top), 

  00073	8d 04 0b	 lea	 eax, DWORD PTR [ebx+ecx]
; File C:\Program Files (x86)\Microsoft Visual Studio\2019\Community\VC\Tools\MSVC\14.29.30133\atlmfc\include\atltypes.h

; 409  : 	y = initY;

  00076	89 5d fc	 mov	 DWORD PTR $T3[ebp+4], ebx
  00079	89 45 f4	 mov	 DWORD PTR $T1[ebp+4], eax
; File D:\git\src\IBK\IBK_DRFN\ProjSrc\SrcChartEx\ChartOCX\ScaleDraw\HorzScaleDrawer.cpp

; 331  : 		CDrawer::DrawLine(pDC, CPoint(nowPos.x, scaleRegion.top), 

  0007c	8d 45 f0	 lea	 eax, DWORD PTR $T1[ebp]
  0007f	50		 push	 eax
  00080	8d 45 f8	 lea	 eax, DWORD PTR $T3[ebp]
$LN20@DrawTextCo:

; 332  : 			CPoint(nowPos.x, (scaleRegion.top + nHight)), gridColor);
; 333  : 	}
; 334  : }

  00083	50		 push	 eax
  00084	ff 75 08	 push	 DWORD PTR _pDC$[ebp]
  00087	8d 4e 04	 lea	 ecx, DWORD PTR [esi+4]
  0008a	e8 00 00 00 00	 call	 ?DrawLine@CDrawer@@IAEXPAVCDC@@ABVCPoint@@1KHHH@Z ; CDrawer::DrawLine
  0008f	5f		 pop	 edi
  00090	5e		 pop	 esi
  00091	5b		 pop	 ebx
  00092	8b e5		 mov	 esp, ebp
  00094	5d		 pop	 ebp
  00095	c2 14 00	 ret	 20			; 00000014H
?DrawTextCompartLine@CHorzScaleDrawer@@IAEXPAVCDC@@ABVCRect@@ABVCPoint@@_NK@Z ENDP ; CHorzScaleDrawer::DrawTextCompartLine
_TEXT	ENDS
; Function compile flags: /Ogtp
; File D:\git\src\IBK\IBK_DRFN\ProjSrc\SrcChartEx\ChartOCX\ScaleDraw\HorzScaleDrawer.cpp
; File C:\Program Files (x86)\Microsoft Visual Studio\2019\Community\VC\Tools\MSVC\14.29.30133\atlmfc\include\atltypes.h
; File D:\git\src\IBK\IBK_DRFN\ProjSrc\SrcChartEx\ChartOCX\ScaleDraw\HorzScaleDrawer.cpp
; File C:\Program Files (x86)\Microsoft Visual Studio\2019\Community\VC\Tools\MSVC\14.29.30133\atlmfc\include\atltypes.h
; File D:\git\src\IBK\IBK_DRFN\ProjSrc\SrcChartEx\ChartOCX\ScaleDraw\HorzScaleDrawer.cpp
; File C:\Program Files (x86)\Microsoft Visual Studio\2019\Community\VC\Tools\MSVC\14.29.30133\atlmfc\include\atltypes.h
; File D:\git\src\IBK\IBK_DRFN\ProjSrc\SrcChartEx\ChartOCX\ScaleDraw\HorzScaleDrawer.cpp
; File C:\Program Files (x86)\Microsoft Visual Studio\2019\Community\VC\Tools\MSVC\14.29.30133\atlmfc\include\atltypes.h
; File D:\git\src\IBK\IBK_DRFN\ProjSrc\SrcChartEx\ChartOCX\ScaleDraw\HorzScaleDrawer.cpp
;	COMDAT ?DrawGrid@CHorzScaleDrawer@@IAEXPAVCDC@@ABVCDrawingHorzScaleData@@W4SCALEGRIDTYPE@CScaleBaseData@@HH@Z
_TEXT	SEGMENT
$T1 = -68						; size = 12
$T2 = -56						; size = 8
$T3 = -48						; size = 8
_this$GSCopy$1$ = -40					; size = 4
$T4 = -36						; size = 16
$T5 = -20						; size = 16
__$ArrayPad$ = -4					; size = 4
_pDC$ = 8						; size = 4
_drawingHorzScaleData$ = 12				; size = 4
_gridType$ = 16						; size = 4
_pt_x$ = 20						; size = 4
_nWidth$ = 24						; size = 4
?DrawGrid@CHorzScaleDrawer@@IAEXPAVCDC@@ABVCDrawingHorzScaleData@@W4SCALEGRIDTYPE@CScaleBaseData@@HH@Z PROC ; CHorzScaleDrawer::DrawGrid, COMDAT
; _this$ = ecx

; 296  : {

  00000	55		 push	 ebp
  00001	8b ec		 mov	 ebp, esp
  00003	83 ec 44	 sub	 esp, 68			; 00000044H
  00006	a1 00 00 00 00	 mov	 eax, DWORD PTR ___security_cookie
  0000b	33 c5		 xor	 eax, ebp
  0000d	89 45 fc	 mov	 DWORD PTR __$ArrayPad$[ebp], eax
  00010	53		 push	 ebx
  00011	8b 5d 08	 mov	 ebx, DWORD PTR _pDC$[ebp]

; 299  : 	CDrawer::DrawGrid(pDC, gridType,

  00014	8d 45 ec	 lea	 eax, DWORD PTR $T5[ebp]
  00017	56		 push	 esi
  00018	8b 75 14	 mov	 esi, DWORD PTR _pt_x$[ebp]
  0001b	57		 push	 edi
  0001c	8b 7d 0c	 mov	 edi, DWORD PTR _drawingHorzScaleData$[ebp]
  0001f	89 4d d8	 mov	 DWORD PTR _this$GSCopy$1$[ebp], ecx
  00022	8b cf		 mov	 ecx, edi
  00024	50		 push	 eax
  00025	e8 00 00 00 00	 call	 ?GetDrawingGraphRegion@CDrawingHorzScaleData@@QBE?AVCRect@@XZ ; CDrawingHorzScaleData::GetDrawingGraphRegion
  0002a	8b cf		 mov	 ecx, edi
  0002c	8b 40 0c	 mov	 eax, DWORD PTR [eax+12]
; File C:\Program Files (x86)\Microsoft Visual Studio\2019\Community\VC\Tools\MSVC\14.29.30133\atlmfc\include\atltypes.h

; 409  : 	y = initY;

  0002f	89 45 d4	 mov	 DWORD PTR $T3[ebp+4], eax
; File D:\git\src\IBK\IBK_DRFN\ProjSrc\SrcChartEx\ChartOCX\ScaleDraw\HorzScaleDrawer.cpp

; 299  : 	CDrawer::DrawGrid(pDC, gridType,

  00032	8d 45 dc	 lea	 eax, DWORD PTR $T4[ebp]
  00035	50		 push	 eax
; File C:\Program Files (x86)\Microsoft Visual Studio\2019\Community\VC\Tools\MSVC\14.29.30133\atlmfc\include\atltypes.h

; 408  : 	x = initX;

  00036	89 75 d0	 mov	 DWORD PTR $T3[ebp], esi
; File D:\git\src\IBK\IBK_DRFN\ProjSrc\SrcChartEx\ChartOCX\ScaleDraw\HorzScaleDrawer.cpp

; 299  : 	CDrawer::DrawGrid(pDC, gridType,

  00039	e8 00 00 00 00	 call	 ?GetDrawingGraphRegion@CDrawingHorzScaleData@@QBE?AVCRect@@XZ ; CDrawingHorzScaleData::GetDrawingGraphRegion
  0003e	8b cf		 mov	 ecx, edi
  00040	8b 40 04	 mov	 eax, DWORD PTR [eax+4]
; File C:\Program Files (x86)\Microsoft Visual Studio\2019\Community\VC\Tools\MSVC\14.29.30133\atlmfc\include\atltypes.h

; 409  : 	y = initY;

  00043	89 45 cc	 mov	 DWORD PTR $T2[ebp+4], eax
; File D:\git\src\IBK\IBK_DRFN\ProjSrc\SrcChartEx\ChartOCX\ScaleDraw\HorzScaleDrawer.cpp

; 299  : 	CDrawer::DrawGrid(pDC, gridType,

  00046	8d 45 bc	 lea	 eax, DWORD PTR $T1[ebp]
  00049	50		 push	 eax
; File C:\Program Files (x86)\Microsoft Visual Studio\2019\Community\VC\Tools\MSVC\14.29.30133\atlmfc\include\atltypes.h

; 408  : 	x = initX;

  0004a	89 75 c8	 mov	 DWORD PTR $T2[ebp], esi
; File D:\git\src\IBK\IBK_DRFN\ProjSrc\SrcChartEx\ChartOCX\ScaleDraw\HorzScaleDrawer.cpp

; 299  : 	CDrawer::DrawGrid(pDC, gridType,

  0004d	e8 00 00 00 00	 call	 ?GetScaleColor@CDrawingHorzScaleData@@QBE?AVCScaleColor@@XZ ; CDrawingHorzScaleData::GetScaleColor
  00052	8b c8		 mov	 ecx, eax
  00054	ff 15 00 00 00
	00		 call	 DWORD PTR __imp_?GetHorzScaleColor@CScaleColor@@QAEAAKXZ
  0005a	ff 75 18	 push	 DWORD PTR _nWidth$[ebp]
  0005d	8b 4d d8	 mov	 ecx, DWORD PTR _this$GSCopy$1$[ebp]
  00060	83 c1 04	 add	 ecx, 4
  00063	ff 30		 push	 DWORD PTR [eax]
  00065	8d 45 d0	 lea	 eax, DWORD PTR $T3[ebp]
  00068	50		 push	 eax
  00069	8d 45 c8	 lea	 eax, DWORD PTR $T2[ebp]
  0006c	50		 push	 eax
  0006d	ff 75 10	 push	 DWORD PTR _gridType$[ebp]
  00070	53		 push	 ebx
  00071	e8 00 00 00 00	 call	 ?DrawGrid@CDrawer@@IAEXPAVCDC@@W4SCALEGRIDTYPE@CScaleBaseData@@ABVCPoint@@2KH@Z ; CDrawer::DrawGrid

; 300  : 		CPoint(pt_x, drawingHorzScaleData.GetDrawingGraphRegion().top), 
; 301  : 		CPoint(pt_x, drawingHorzScaleData.GetDrawingGraphRegion().bottom), 
; 302  : 		drawingHorzScaleData.GetScaleColor().GetHorzScaleColor(), nWidth);
; 303  : }

  00076	8b 4d fc	 mov	 ecx, DWORD PTR __$ArrayPad$[ebp]
  00079	5f		 pop	 edi
  0007a	5e		 pop	 esi
  0007b	33 cd		 xor	 ecx, ebp
  0007d	5b		 pop	 ebx
  0007e	e8 00 00 00 00	 call	 @__security_check_cookie@4
  00083	8b e5		 mov	 esp, ebp
  00085	5d		 pop	 ebp
  00086	c2 14 00	 ret	 20			; 00000014H
?DrawGrid@CHorzScaleDrawer@@IAEXPAVCDC@@ABVCDrawingHorzScaleData@@W4SCALEGRIDTYPE@CScaleBaseData@@HH@Z ENDP ; CHorzScaleDrawer::DrawGrid
_TEXT	ENDS
; Function compile flags: /Ogtp
; File D:\git\src\IBK\IBK_DRFN\ProjSrc\SrcChartEx\ChartOCX\ScaleDraw\HorzScaleDrawer.cpp
; File C:\Program Files (x86)\Microsoft Visual Studio\2019\Community\VC\Tools\MSVC\14.29.30133\atlmfc\include\atlsimpstr.h
; File D:\git\src\IBK\IBK_DRFN\ProjSrc\SrcChartEx\ChartOCX\ScaleDraw\HorzScaleDrawer.cpp
; File C:\Program Files (x86)\Microsoft Visual Studio\2019\Community\VC\Tools\MSVC\14.29.30133\atlmfc\include\atlsimpstr.h
; File D:\git\src\IBK\IBK_DRFN\ProjSrc\SrcChartEx\ChartOCX\ScaleDraw\HorzScaleDrawer.cpp
; File C:\Program Files (x86)\Microsoft Visual Studio\2019\Community\VC\Tools\MSVC\14.29.30133\atlmfc\include\atltypes.h
; File D:\git\src\IBK\IBK_DRFN\ProjSrc\SrcChartEx\ChartOCX\ScaleDraw\HorzScaleDrawer.cpp
; File C:\Program Files (x86)\Microsoft Visual Studio\2019\Community\VC\Tools\MSVC\14.29.30133\atlmfc\include\atltypes.h
; File D:\git\src\IBK\IBK_DRFN\ProjSrc\SrcChartEx\ChartOCX\ScaleDraw\HorzScaleDrawer.cpp
; File C:\Program Files (x86)\Microsoft Visual Studio\2019\Community\VC\Tools\MSVC\14.29.30133\atlmfc\include\atltypes.h
; File D:\git\src\IBK\IBK_DRFN\ProjSrc\SrcChartEx\ChartOCX\ScaleDraw\HorzScaleDrawer.cpp
;	COMDAT ?DrawMultiLineTextOut@CHorzScaleDrawer@@IAEXPAVCDC@@ABVCPoint@@HABV?$CStringT@DV?$StrTraitMFC_DLL@DV?$ChTraitsCRT@D@ATL@@@@@ATL@@K@Z
_TEXT	SEGMENT
$T2 = -28						; size = 8
_this$1$ = -20						; size = 4
_nGap$1$ = -16						; size = 4
$T3 = -16						; size = 4
__$EHRec$ = -12						; size = 12
_pDC$ = 8						; size = 4
$T4 = 12						; size = 4
_point$ = 12						; size = 4
_strDrawingText$5 = 16					; size = 4
_textHeight$ = 16					; size = 4
_strData$ = 20						; size = 4
_data$ = 20						; size = 4
_color$ = 24						; size = 4
?DrawMultiLineTextOut@CHorzScaleDrawer@@IAEXPAVCDC@@ABVCPoint@@HABV?$CStringT@DV?$StrTraitMFC_DLL@DV?$ChTraitsCRT@D@ATL@@@@@ATL@@K@Z PROC ; CHorzScaleDrawer::DrawMultiLineTextOut, COMDAT
; _this$ = ecx

; 277  : {

  00000	55		 push	 ebp
  00001	8b ec		 mov	 ebp, esp
  00003	6a ff		 push	 -1
  00005	68 00 00 00 00	 push	 __ehhandler$?DrawMultiLineTextOut@CHorzScaleDrawer@@IAEXPAVCDC@@ABVCPoint@@HABV?$CStringT@DV?$StrTraitMFC_DLL@DV?$ChTraitsCRT@D@ATL@@@@@ATL@@K@Z
  0000a	64 a1 00 00 00
	00		 mov	 eax, DWORD PTR fs:0
  00010	50		 push	 eax
  00011	83 ec 10	 sub	 esp, 16			; 00000010H
  00014	53		 push	 ebx
  00015	56		 push	 esi
  00016	57		 push	 edi
  00017	a1 00 00 00 00	 mov	 eax, DWORD PTR ___security_cookie
  0001c	33 c5		 xor	 eax, ebp
  0001e	50		 push	 eax
  0001f	8d 45 f4	 lea	 eax, DWORD PTR __$EHRec$[ebp]
  00022	64 a3 00 00 00
	00		 mov	 DWORD PTR fs:0, eax
  00028	89 4d ec	 mov	 DWORD PTR _this$1$[ebp], ecx

; 278  : 	CString strData = data;

  0002b	ff 75 14	 push	 DWORD PTR _data$[ebp]
  0002e	8d 4d 14	 lea	 ecx, DWORD PTR _strData$[ebp]
  00031	ff 15 00 00 00
	00		 call	 DWORD PTR __imp_??0?$CStringT@DV?$StrTraitMFC_DLL@DV?$ChTraitsCRT@D@ATL@@@@@ATL@@QAE@ABV01@@Z

; 279  : 	strData.TrimRight("\r\n");

  00037	68 00 00 00 00	 push	 OFFSET ??_C@_02PCIJFNDE@?$AN?6@
  0003c	8d 4d 14	 lea	 ecx, DWORD PTR _strData$[ebp]
  0003f	c7 45 fc 00 00
	00 00		 mov	 DWORD PTR __$EHRec$[ebp+8], 0
  00046	ff 15 00 00 00
	00		 call	 DWORD PTR __imp_?TrimRight@?$CStringT@DV?$StrTraitMFC_DLL@DV?$ChTraitsCRT@D@ATL@@@@@ATL@@QAEAAV12@PBD@Z
; File C:\Program Files (x86)\Microsoft Visual Studio\2019\Community\VC\Tools\MSVC\14.29.30133\atlmfc\include\atlsimpstr.h

; 519  : 		return( GetData()->nDataLength );

  0004c	8b 45 14	 mov	 eax, DWORD PTR _strData$[ebp]

; 533  : 		return( GetLength() == 0 );

  0004f	83 78 f4 00	 cmp	 DWORD PTR [eax-12], 0
; File D:\git\src\IBK\IBK_DRFN\ProjSrc\SrcChartEx\ChartOCX\ScaleDraw\HorzScaleDrawer.cpp

; 280  : 	if(strData.IsEmpty())

  00053	0f 84 d0 00 00
	00		 je	 $LN3@DrawMultiL

; 281  : 		return;
; 282  : 
; 283  : 	strData += "\r\n";

  00059	68 00 00 00 00	 push	 OFFSET ??_C@_02PCIJFNDE@?$AN?6@
  0005e	8d 4d 14	 lea	 ecx, DWORD PTR _strData$[ebp]
  00061	ff 15 00 00 00
	00		 call	 DWORD PTR __imp_??Y?$CStringT@DV?$StrTraitMFC_DLL@DV?$ChTraitsCRT@D@ATL@@@@@ATL@@QAEAAV01@PBD@Z

; 284  : 	int lineCount = CDataConversion::GetStringDataCount(strData, "\r\n");

  00067	68 00 00 00 00	 push	 OFFSET ??_C@_02PCIJFNDE@?$AN?6@
  0006c	8d 4d f0	 lea	 ecx, DWORD PTR $T3[ebp]
  0006f	ff 15 00 00 00
	00		 call	 DWORD PTR __imp_??0?$CStringT@DV?$StrTraitMFC_DLL@DV?$ChTraitsCRT@D@ATL@@@@@ATL@@QAE@PBD@Z
  00075	8d 45 f0	 lea	 eax, DWORD PTR $T3[ebp]
  00078	c6 45 fc 01	 mov	 BYTE PTR __$EHRec$[ebp+8], 1
  0007c	50		 push	 eax
  0007d	8d 45 14	 lea	 eax, DWORD PTR _strData$[ebp]
  00080	50		 push	 eax
  00081	e8 00 00 00 00	 call	 ?GetStringDataCount@CDataConversion@@SAHABV?$CStringT@DV?$StrTraitMFC_DLL@DV?$ChTraitsCRT@D@ATL@@@@@ATL@@0@Z ; CDataConversion::GetStringDataCount
  00086	83 c4 08	 add	 esp, 8
  00089	c6 45 fc 00	 mov	 BYTE PTR __$EHRec$[ebp+8], 0
  0008d	8d 4d f0	 lea	 ecx, DWORD PTR $T3[ebp]
  00090	8b f8		 mov	 edi, eax
  00092	ff 15 00 00 00
	00		 call	 DWORD PTR __imp_??1?$CStringT@DV?$StrTraitMFC_DLL@DV?$ChTraitsCRT@D@ATL@@@@@ATL@@QAE@XZ

; 285  : 	int nGap = textHeight/lineCount;

  00098	8b 45 10	 mov	 eax, DWORD PTR _textHeight$[ebp]
  0009b	99		 cdq
  0009c	f7 ff		 idiv	 edi
  0009e	89 45 f0	 mov	 DWORD PTR _nGap$1$[ebp], eax

; 286  : 	for(int i = 0; i < lineCount; i++){

  000a1	85 ff		 test	 edi, edi
  000a3	0f 8e 80 00 00
	00		 jle	 $LN3@DrawMultiL

; 281  : 		return;
; 282  : 
; 283  : 	strData += "\r\n";

  000a9	8b 5d 0c	 mov	 ebx, DWORD PTR _point$[ebp]
  000ac	33 f6		 xor	 esi, esi
  000ae	66 90		 npad	 2
$LL4@DrawMultiL:

; 287  : 		CString strDrawingText = CDataConversion::GetStringData(strData, "\r\n");

  000b0	68 00 00 00 00	 push	 OFFSET ??_C@_02PCIJFNDE@?$AN?6@
  000b5	8d 4d 0c	 lea	 ecx, DWORD PTR $T4[ebp]
  000b8	ff 15 00 00 00
	00		 call	 DWORD PTR __imp_??0?$CStringT@DV?$StrTraitMFC_DLL@DV?$ChTraitsCRT@D@ATL@@@@@ATL@@QAE@PBD@Z
  000be	6a 01		 push	 1
  000c0	8d 45 0c	 lea	 eax, DWORD PTR $T4[ebp]
  000c3	c6 45 fc 02	 mov	 BYTE PTR __$EHRec$[ebp+8], 2
  000c7	50		 push	 eax
  000c8	8d 45 14	 lea	 eax, DWORD PTR _strData$[ebp]
  000cb	50		 push	 eax
  000cc	8d 45 10	 lea	 eax, DWORD PTR _strDrawingText$5[ebp]
  000cf	50		 push	 eax
  000d0	e8 00 00 00 00	 call	 ?GetStringData@CDataConversion@@SA?AV?$CStringT@DV?$StrTraitMFC_DLL@DV?$ChTraitsCRT@D@ATL@@@@@ATL@@AAV23@ABV23@_N@Z ; CDataConversion::GetStringData
  000d5	83 c4 10	 add	 esp, 16			; 00000010H
  000d8	8d 4d 0c	 lea	 ecx, DWORD PTR $T4[ebp]
  000db	c6 45 fc 04	 mov	 BYTE PTR __$EHRec$[ebp+8], 4
  000df	ff 15 00 00 00
	00		 call	 DWORD PTR __imp_??1?$CStringT@DV?$StrTraitMFC_DLL@DV?$ChTraitsCRT@D@ATL@@@@@ATL@@QAE@XZ
; File C:\Program Files (x86)\Microsoft Visual Studio\2019\Community\VC\Tools\MSVC\14.29.30133\atlmfc\include\atlsimpstr.h

; 519  : 		return( GetData()->nDataLength );

  000e5	8b 45 10	 mov	 eax, DWORD PTR _strDrawingText$5[ebp]

; 533  : 		return( GetLength() == 0 );

  000e8	83 78 f4 00	 cmp	 DWORD PTR [eax-12], 0
; File D:\git\src\IBK\IBK_DRFN\ProjSrc\SrcChartEx\ChartOCX\ScaleDraw\HorzScaleDrawer.cpp

; 288  : 		if(!strDrawingText.IsEmpty())

  000ec	74 26		 je	 SHORT $LN6@DrawMultiL
; File C:\Program Files (x86)\Microsoft Visual Studio\2019\Community\VC\Tools\MSVC\14.29.30133\atlmfc\include\atltypes.h

; 408  : 	x = initX;

  000ee	8b 03		 mov	 eax, DWORD PTR [ebx]
; File D:\git\src\IBK\IBK_DRFN\ProjSrc\SrcChartEx\ChartOCX\ScaleDraw\HorzScaleDrawer.cpp

; 289  : 			CDrawer::DrawTextOut(pDC, CPoint(point.x, point.y + nGap*i), strDrawingText, color);

  000f0	ff 75 18	 push	 DWORD PTR _color$[ebp]
  000f3	8b 4b 04	 mov	 ecx, DWORD PTR [ebx+4]
  000f6	03 ce		 add	 ecx, esi
; File C:\Program Files (x86)\Microsoft Visual Studio\2019\Community\VC\Tools\MSVC\14.29.30133\atlmfc\include\atltypes.h

; 408  : 	x = initX;

  000f8	89 45 e4	 mov	 DWORD PTR $T2[ebp], eax
; File D:\git\src\IBK\IBK_DRFN\ProjSrc\SrcChartEx\ChartOCX\ScaleDraw\HorzScaleDrawer.cpp

; 289  : 			CDrawer::DrawTextOut(pDC, CPoint(point.x, point.y + nGap*i), strDrawingText, color);

  000fb	8d 45 10	 lea	 eax, DWORD PTR _strDrawingText$5[ebp]
; File C:\Program Files (x86)\Microsoft Visual Studio\2019\Community\VC\Tools\MSVC\14.29.30133\atlmfc\include\atltypes.h

; 409  : 	y = initY;

  000fe	89 4d e8	 mov	 DWORD PTR $T2[ebp+4], ecx
; File D:\git\src\IBK\IBK_DRFN\ProjSrc\SrcChartEx\ChartOCX\ScaleDraw\HorzScaleDrawer.cpp

; 289  : 			CDrawer::DrawTextOut(pDC, CPoint(point.x, point.y + nGap*i), strDrawingText, color);

  00101	8b 4d ec	 mov	 ecx, DWORD PTR _this$1$[ebp]
  00104	50		 push	 eax
  00105	8d 45 e4	 lea	 eax, DWORD PTR $T2[ebp]
  00108	50		 push	 eax
  00109	ff 75 08	 push	 DWORD PTR _pDC$[ebp]
  0010c	8d 49 04	 lea	 ecx, DWORD PTR [ecx+4]
  0010f	e8 00 00 00 00	 call	 ?DrawTextOut@CDrawer@@IAEXPAVCDC@@ABVCPoint@@ABV?$CStringT@DV?$StrTraitMFC_DLL@DV?$ChTraitsCRT@D@ATL@@@@@ATL@@K@Z ; CDrawer::DrawTextOut
$LN6@DrawMultiL:

; 290  : 	}

  00114	8d 4d 10	 lea	 ecx, DWORD PTR _strDrawingText$5[ebp]
  00117	c6 45 fc 00	 mov	 BYTE PTR __$EHRec$[ebp+8], 0
  0011b	ff 15 00 00 00
	00		 call	 DWORD PTR __imp_??1?$CStringT@DV?$StrTraitMFC_DLL@DV?$ChTraitsCRT@D@ATL@@@@@ATL@@QAE@XZ
  00121	03 75 f0	 add	 esi, DWORD PTR _nGap$1$[ebp]
  00124	83 ef 01	 sub	 edi, 1
  00127	75 87		 jne	 SHORT $LL4@DrawMultiL
$LN3@DrawMultiL:

; 291  : }

  00129	8d 4d 14	 lea	 ecx, DWORD PTR _strData$[ebp]
  0012c	ff 15 00 00 00
	00		 call	 DWORD PTR __imp_??1?$CStringT@DV?$StrTraitMFC_DLL@DV?$ChTraitsCRT@D@ATL@@@@@ATL@@QAE@XZ
  00132	8b 4d f4	 mov	 ecx, DWORD PTR __$EHRec$[ebp]
  00135	64 89 0d 00 00
	00 00		 mov	 DWORD PTR fs:0, ecx
  0013c	59		 pop	 ecx
  0013d	5f		 pop	 edi
  0013e	5e		 pop	 esi
  0013f	5b		 pop	 ebx
  00140	8b e5		 mov	 esp, ebp
  00142	5d		 pop	 ebp
  00143	c2 14 00	 ret	 20			; 00000014H
_TEXT	ENDS
;	COMDAT text$x
text$x	SEGMENT
__unwindfunclet$?DrawMultiLineTextOut@CHorzScaleDrawer@@IAEXPAVCDC@@ABVCPoint@@HABV?$CStringT@DV?$StrTraitMFC_DLL@DV?$ChTraitsCRT@D@ATL@@@@@ATL@@K@Z$0:
  00000	8d 4d 14	 lea	 ecx, DWORD PTR _strData$[ebp]
  00003	ff 25 00 00 00
	00		 jmp	 DWORD PTR __imp_??1?$CStringT@DV?$StrTraitMFC_DLL@DV?$ChTraitsCRT@D@ATL@@@@@ATL@@QAE@XZ
__unwindfunclet$?DrawMultiLineTextOut@CHorzScaleDrawer@@IAEXPAVCDC@@ABVCPoint@@HABV?$CStringT@DV?$StrTraitMFC_DLL@DV?$ChTraitsCRT@D@ATL@@@@@ATL@@K@Z$1:
  00009	8d 4d f0	 lea	 ecx, DWORD PTR $T3[ebp]
  0000c	ff 25 00 00 00
	00		 jmp	 DWORD PTR __imp_??1?$CStringT@DV?$StrTraitMFC_DLL@DV?$ChTraitsCRT@D@ATL@@@@@ATL@@QAE@XZ
__unwindfunclet$?DrawMultiLineTextOut@CHorzScaleDrawer@@IAEXPAVCDC@@ABVCPoint@@HABV?$CStringT@DV?$StrTraitMFC_DLL@DV?$ChTraitsCRT@D@ATL@@@@@ATL@@K@Z$2:
  00012	8d 4d 0c	 lea	 ecx, DWORD PTR $T4[ebp]
  00015	ff 25 00 00 00
	00		 jmp	 DWORD PTR __imp_??1?$CStringT@DV?$StrTraitMFC_DLL@DV?$ChTraitsCRT@D@ATL@@@@@ATL@@QAE@XZ
__unwindfunclet$?DrawMultiLineTextOut@CHorzScaleDrawer@@IAEXPAVCDC@@ABVCPoint@@HABV?$CStringT@DV?$StrTraitMFC_DLL@DV?$ChTraitsCRT@D@ATL@@@@@ATL@@K@Z$3:
  0001b	8d 4d 10	 lea	 ecx, DWORD PTR _strDrawingText$5[ebp]
  0001e	ff 25 00 00 00
	00		 jmp	 DWORD PTR __imp_??1?$CStringT@DV?$StrTraitMFC_DLL@DV?$ChTraitsCRT@D@ATL@@@@@ATL@@QAE@XZ
  00024	cc		 int	 3
  00025	cc		 int	 3
  00026	cc		 int	 3
  00027	cc		 int	 3
  00028	cc		 int	 3
__ehhandler$?DrawMultiLineTextOut@CHorzScaleDrawer@@IAEXPAVCDC@@ABVCPoint@@HABV?$CStringT@DV?$StrTraitMFC_DLL@DV?$ChTraitsCRT@D@ATL@@@@@ATL@@K@Z:
  00029	90		 npad	 1
  0002a	90		 npad	 1
  0002b	8b 54 24 08	 mov	 edx, DWORD PTR [esp+8]
  0002f	8d 42 0c	 lea	 eax, DWORD PTR [edx+12]
  00032	8b 4a e0	 mov	 ecx, DWORD PTR [edx-32]
  00035	33 c8		 xor	 ecx, eax
  00037	e8 00 00 00 00	 call	 @__security_check_cookie@4
  0003c	b8 00 00 00 00	 mov	 eax, OFFSET __ehfuncinfo$?DrawMultiLineTextOut@CHorzScaleDrawer@@IAEXPAVCDC@@ABVCPoint@@HABV?$CStringT@DV?$StrTraitMFC_DLL@DV?$ChTraitsCRT@D@ATL@@@@@ATL@@K@Z
  00041	e9 00 00 00 00	 jmp	 ___CxxFrameHandler3
text$x	ENDS
?DrawMultiLineTextOut@CHorzScaleDrawer@@IAEXPAVCDC@@ABVCPoint@@HABV?$CStringT@DV?$StrTraitMFC_DLL@DV?$ChTraitsCRT@D@ATL@@@@@ATL@@K@Z ENDP ; CHorzScaleDrawer::DrawMultiLineTextOut
; Function compile flags: /Ogtp
; File D:\git\src\IBK\IBK_DRFN\ProjSrc\SrcChartEx\ChartOCX\ScaleDraw\HorzScaleDrawer.cpp
; File C:\Program Files (x86)\Microsoft Visual Studio\2019\Community\VC\Tools\MSVC\14.29.30133\atlmfc\include\atlsimpstr.h
; File D:\git\src\IBK\IBK_DRFN\ProjSrc\SrcChartEx\ChartOCX\ScaleDraw\HorzScaleDrawer.cpp
; File C:\Program Files (x86)\Microsoft Visual Studio\2019\Community\VC\Tools\MSVC\14.29.30133\atlmfc\include\cstringt.h
; File D:\git\src\IBK\IBK_DRFN\ProjSrc\SrcChartEx\ChartOCX\ScaleDraw\HorzScaleDrawer.cpp
; File C:\Program Files (x86)\Microsoft Visual Studio\2019\Community\VC\Tools\MSVC\14.29.30133\atlmfc\include\cstringt.h
; File D:\git\src\IBK\IBK_DRFN\ProjSrc\SrcChartEx\ChartOCX\ScaleDraw\HorzScaleDrawer.cpp
; File C:\Program Files (x86)\Microsoft Visual Studio\2019\Community\VC\Tools\MSVC\14.29.30133\atlmfc\include\atltypes.h
; File D:\git\src\IBK\IBK_DRFN\ProjSrc\SrcChartEx\ChartOCX\ScaleDraw\HorzScaleDrawer.cpp
; File C:\Program Files (x86)\Microsoft Visual Studio\2019\Community\VC\Tools\MSVC\14.29.30133\atlmfc\include\atltypes.h
; File D:\git\src\IBK\IBK_DRFN\ProjSrc\SrcChartEx\ChartOCX\ScaleDraw\HorzScaleDrawer.cpp
; File C:\Program Files (x86)\Microsoft Visual Studio\2019\Community\VC\Tools\MSVC\14.29.30133\atlmfc\include\atltypes.h
; File D:\git\src\IBK\IBK_DRFN\ProjSrc\SrcChartEx\ChartOCX\ScaleDraw\HorzScaleDrawer.cpp
;	COMDAT ?DrawMultiLineTextOut@CHorzScaleDrawer@@IAEXPAVCDC@@ABVCPoint@@HABV?$CStringT@DV?$StrTraitMFC_DLL@DV?$ChTraitsCRT@D@ATL@@@@@ATL@@2K@Z
_TEXT	SEGMENT
$T2 = -36						; size = 8
_nGap$1$ = -28						; size = 4
_this$1$ = -24						; size = 4
_preTemp$3 = -20					; size = 4
_preStrData$ = -16					; size = 4
__$EHRec$ = -12						; size = 12
_pDC$ = 8						; size = 4
$T4 = 12						; size = 4
_point$ = 12						; size = 4
$T5 = 16						; size = 4
_textHeight$ = 16					; size = 4
_strData$ = 20						; size = 4
_data$ = 20						; size = 4
_temp$6 = 24						; size = 4
$T7 = 24						; size = 4
_preData$ = 24						; size = 4
_color$ = 28						; size = 4
?DrawMultiLineTextOut@CHorzScaleDrawer@@IAEXPAVCDC@@ABVCPoint@@HABV?$CStringT@DV?$StrTraitMFC_DLL@DV?$ChTraitsCRT@D@ATL@@@@@ATL@@2K@Z PROC ; CHorzScaleDrawer::DrawMultiLineTextOut, COMDAT
; _this$ = ecx

; 257  : {

  00000	55		 push	 ebp
  00001	8b ec		 mov	 ebp, esp
  00003	6a ff		 push	 -1
  00005	68 00 00 00 00	 push	 __ehhandler$?DrawMultiLineTextOut@CHorzScaleDrawer@@IAEXPAVCDC@@ABVCPoint@@HABV?$CStringT@DV?$StrTraitMFC_DLL@DV?$ChTraitsCRT@D@ATL@@@@@ATL@@2K@Z
  0000a	64 a1 00 00 00
	00		 mov	 eax, DWORD PTR fs:0
  00010	50		 push	 eax
  00011	83 ec 18	 sub	 esp, 24			; 00000018H
  00014	53		 push	 ebx
  00015	56		 push	 esi
  00016	57		 push	 edi
  00017	a1 00 00 00 00	 mov	 eax, DWORD PTR ___security_cookie
  0001c	33 c5		 xor	 eax, ebp
  0001e	50		 push	 eax
  0001f	8d 45 f4	 lea	 eax, DWORD PTR __$EHRec$[ebp]
  00022	64 a3 00 00 00
	00		 mov	 DWORD PTR fs:0, eax
  00028	89 4d e8	 mov	 DWORD PTR _this$1$[ebp], ecx

; 258  : 	CString strData = data, preStrData = preData;

  0002b	ff 75 14	 push	 DWORD PTR _data$[ebp]
  0002e	8d 4d 14	 lea	 ecx, DWORD PTR _strData$[ebp]
  00031	ff 15 00 00 00
	00		 call	 DWORD PTR __imp_??0?$CStringT@DV?$StrTraitMFC_DLL@DV?$ChTraitsCRT@D@ATL@@@@@ATL@@QAE@ABV01@@Z
  00037	ff 75 18	 push	 DWORD PTR _preData$[ebp]
  0003a	8d 4d f0	 lea	 ecx, DWORD PTR _preStrData$[ebp]
  0003d	c7 45 fc 00 00
	00 00		 mov	 DWORD PTR __$EHRec$[ebp+8], 0
  00044	ff 15 00 00 00
	00		 call	 DWORD PTR __imp_??0?$CStringT@DV?$StrTraitMFC_DLL@DV?$ChTraitsCRT@D@ATL@@@@@ATL@@QAE@ABV01@@Z

; 259  : 	strData.TrimRight("\r\n");

  0004a	68 00 00 00 00	 push	 OFFSET ??_C@_02PCIJFNDE@?$AN?6@
  0004f	8d 4d 14	 lea	 ecx, DWORD PTR _strData$[ebp]
  00052	c6 45 fc 01	 mov	 BYTE PTR __$EHRec$[ebp+8], 1
  00056	ff 15 00 00 00
	00		 call	 DWORD PTR __imp_?TrimRight@?$CStringT@DV?$StrTraitMFC_DLL@DV?$ChTraitsCRT@D@ATL@@@@@ATL@@QAEAAV12@PBD@Z

; 260  : 	preStrData.TrimRight("\r\n");

  0005c	68 00 00 00 00	 push	 OFFSET ??_C@_02PCIJFNDE@?$AN?6@
  00061	8d 4d f0	 lea	 ecx, DWORD PTR _preStrData$[ebp]
  00064	ff 15 00 00 00
	00		 call	 DWORD PTR __imp_?TrimRight@?$CStringT@DV?$StrTraitMFC_DLL@DV?$ChTraitsCRT@D@ATL@@@@@ATL@@QAEAAV12@PBD@Z

; 261  : 	strData += "\r\n";

  0006a	68 00 00 00 00	 push	 OFFSET ??_C@_02PCIJFNDE@?$AN?6@
  0006f	8d 4d 14	 lea	 ecx, DWORD PTR _strData$[ebp]
  00072	ff 15 00 00 00
	00		 call	 DWORD PTR __imp_??Y?$CStringT@DV?$StrTraitMFC_DLL@DV?$ChTraitsCRT@D@ATL@@@@@ATL@@QAEAAV01@PBD@Z

; 262  : 	preStrData += "\r\n";

  00078	68 00 00 00 00	 push	 OFFSET ??_C@_02PCIJFNDE@?$AN?6@
  0007d	8d 4d f0	 lea	 ecx, DWORD PTR _preStrData$[ebp]
  00080	ff 15 00 00 00
	00		 call	 DWORD PTR __imp_??Y?$CStringT@DV?$StrTraitMFC_DLL@DV?$ChTraitsCRT@D@ATL@@@@@ATL@@QAEAAV01@PBD@Z
; File C:\Program Files (x86)\Microsoft Visual Studio\2019\Community\VC\Tools\MSVC\14.29.30133\atlmfc\include\atlsimpstr.h

; 519  : 		return( GetData()->nDataLength );

  00086	8b 45 14	 mov	 eax, DWORD PTR _strData$[ebp]

; 533  : 		return( GetLength() == 0 );

  00089	83 78 f4 00	 cmp	 DWORD PTR [eax-12], 0
; File D:\git\src\IBK\IBK_DRFN\ProjSrc\SrcChartEx\ChartOCX\ScaleDraw\HorzScaleDrawer.cpp

; 263  : 	if(strData.IsEmpty() == TRUE)

  0008d	0f 84 1f 01 00
	00		 je	 $LN3@DrawMultiL

; 264  : 		return;
; 265  : 
; 266  : 	int lineCount = CDataConversion::GetStringDataCount(strData, "\r\n");

  00093	68 00 00 00 00	 push	 OFFSET ??_C@_02PCIJFNDE@?$AN?6@
  00098	8d 4d 18	 lea	 ecx, DWORD PTR $T7[ebp]
  0009b	ff 15 00 00 00
	00		 call	 DWORD PTR __imp_??0?$CStringT@DV?$StrTraitMFC_DLL@DV?$ChTraitsCRT@D@ATL@@@@@ATL@@QAE@PBD@Z
  000a1	8d 45 18	 lea	 eax, DWORD PTR $T7[ebp]
  000a4	c6 45 fc 02	 mov	 BYTE PTR __$EHRec$[ebp+8], 2
  000a8	50		 push	 eax
  000a9	8d 45 14	 lea	 eax, DWORD PTR _strData$[ebp]
  000ac	50		 push	 eax
  000ad	e8 00 00 00 00	 call	 ?GetStringDataCount@CDataConversion@@SAHABV?$CStringT@DV?$StrTraitMFC_DLL@DV?$ChTraitsCRT@D@ATL@@@@@ATL@@0@Z ; CDataConversion::GetStringDataCount
  000b2	83 c4 08	 add	 esp, 8
  000b5	c6 45 fc 01	 mov	 BYTE PTR __$EHRec$[ebp+8], 1
  000b9	8d 4d 18	 lea	 ecx, DWORD PTR $T7[ebp]
  000bc	8b f8		 mov	 edi, eax
  000be	ff 15 00 00 00
	00		 call	 DWORD PTR __imp_??1?$CStringT@DV?$StrTraitMFC_DLL@DV?$ChTraitsCRT@D@ATL@@@@@ATL@@QAE@XZ

; 267  : 	int nGap = textHeight/lineCount;

  000c4	8b 45 10	 mov	 eax, DWORD PTR _textHeight$[ebp]
  000c7	99		 cdq
  000c8	f7 ff		 idiv	 edi
  000ca	89 45 e4	 mov	 DWORD PTR _nGap$1$[ebp], eax

; 268  : 	for(int i = 0; i < lineCount; i++){

  000cd	85 ff		 test	 edi, edi
  000cf	0f 8e dd 00 00
	00		 jle	 $LN3@DrawMultiL

; 264  : 		return;
; 265  : 
; 266  : 	int lineCount = CDataConversion::GetStringDataCount(strData, "\r\n");

  000d5	8b 5d 0c	 mov	 ebx, DWORD PTR _point$[ebp]
  000d8	33 f6		 xor	 esi, esi
  000da	66 0f 1f 44 00
	00		 npad	 6
$LL4@DrawMultiL:

; 269  : 		CString temp = CDataConversion::GetStringData(strData, "\r\n");

  000e0	68 00 00 00 00	 push	 OFFSET ??_C@_02PCIJFNDE@?$AN?6@
  000e5	8d 4d 10	 lea	 ecx, DWORD PTR $T5[ebp]
  000e8	ff 15 00 00 00
	00		 call	 DWORD PTR __imp_??0?$CStringT@DV?$StrTraitMFC_DLL@DV?$ChTraitsCRT@D@ATL@@@@@ATL@@QAE@PBD@Z
  000ee	6a 01		 push	 1
  000f0	8d 45 10	 lea	 eax, DWORD PTR $T5[ebp]
  000f3	c6 45 fc 03	 mov	 BYTE PTR __$EHRec$[ebp+8], 3
  000f7	50		 push	 eax
  000f8	8d 45 14	 lea	 eax, DWORD PTR _strData$[ebp]
  000fb	50		 push	 eax
  000fc	8d 45 18	 lea	 eax, DWORD PTR _temp$6[ebp]
  000ff	50		 push	 eax
  00100	e8 00 00 00 00	 call	 ?GetStringData@CDataConversion@@SA?AV?$CStringT@DV?$StrTraitMFC_DLL@DV?$ChTraitsCRT@D@ATL@@@@@ATL@@AAV23@ABV23@_N@Z ; CDataConversion::GetStringData
  00105	83 c4 10	 add	 esp, 16			; 00000010H
  00108	8d 4d 10	 lea	 ecx, DWORD PTR $T5[ebp]
  0010b	c6 45 fc 05	 mov	 BYTE PTR __$EHRec$[ebp+8], 5
  0010f	ff 15 00 00 00
	00		 call	 DWORD PTR __imp_??1?$CStringT@DV?$StrTraitMFC_DLL@DV?$ChTraitsCRT@D@ATL@@@@@ATL@@QAE@XZ

; 270  : 		CString preTemp = CDataConversion::GetStringData(preStrData, "\r\n");

  00115	68 00 00 00 00	 push	 OFFSET ??_C@_02PCIJFNDE@?$AN?6@
  0011a	8d 4d 0c	 lea	 ecx, DWORD PTR $T4[ebp]
  0011d	ff 15 00 00 00
	00		 call	 DWORD PTR __imp_??0?$CStringT@DV?$StrTraitMFC_DLL@DV?$ChTraitsCRT@D@ATL@@@@@ATL@@QAE@PBD@Z
  00123	6a 01		 push	 1
  00125	8d 45 0c	 lea	 eax, DWORD PTR $T4[ebp]
  00128	c6 45 fc 06	 mov	 BYTE PTR __$EHRec$[ebp+8], 6
  0012c	50		 push	 eax
  0012d	8d 45 f0	 lea	 eax, DWORD PTR _preStrData$[ebp]
  00130	50		 push	 eax
  00131	8d 45 ec	 lea	 eax, DWORD PTR _preTemp$3[ebp]
  00134	50		 push	 eax
  00135	e8 00 00 00 00	 call	 ?GetStringData@CDataConversion@@SA?AV?$CStringT@DV?$StrTraitMFC_DLL@DV?$ChTraitsCRT@D@ATL@@@@@ATL@@AAV23@ABV23@_N@Z ; CDataConversion::GetStringData
  0013a	83 c4 10	 add	 esp, 16			; 00000010H
  0013d	8d 4d 0c	 lea	 ecx, DWORD PTR $T4[ebp]
  00140	c6 45 fc 08	 mov	 BYTE PTR __$EHRec$[ebp+8], 8
  00144	ff 15 00 00 00
	00		 call	 DWORD PTR __imp_??1?$CStringT@DV?$StrTraitMFC_DLL@DV?$ChTraitsCRT@D@ATL@@@@@ATL@@QAE@XZ
; File C:\Program Files (x86)\Microsoft Visual Studio\2019\Community\VC\Tools\MSVC\14.29.30133\atlmfc\include\cstringt.h

; 2560 : 		return( str1.Compare( str2 ) != 0 );

  0014a	ff 75 ec	 push	 DWORD PTR _preTemp$3[ebp]
  0014d	8d 4d 18	 lea	 ecx, DWORD PTR _temp$6[ebp]
  00150	ff 15 00 00 00
	00		 call	 DWORD PTR __imp_?Compare@?$CStringT@DV?$StrTraitMFC_DLL@DV?$ChTraitsCRT@D@ATL@@@@@ATL@@QBEHPBD@Z
  00156	85 c0		 test	 eax, eax
; File D:\git\src\IBK\IBK_DRFN\ProjSrc\SrcChartEx\ChartOCX\ScaleDraw\HorzScaleDrawer.cpp

; 271  : 		if(temp != preTemp || strData != preStrData)

  00158	75 10		 jne	 SHORT $LN7@DrawMultiL
; File C:\Program Files (x86)\Microsoft Visual Studio\2019\Community\VC\Tools\MSVC\14.29.30133\atlmfc\include\cstringt.h

; 2560 : 		return( str1.Compare( str2 ) != 0 );

  0015a	ff 75 f0	 push	 DWORD PTR _preStrData$[ebp]
  0015d	8d 4d 14	 lea	 ecx, DWORD PTR _strData$[ebp]
  00160	ff 15 00 00 00
	00		 call	 DWORD PTR __imp_?Compare@?$CStringT@DV?$StrTraitMFC_DLL@DV?$ChTraitsCRT@D@ATL@@@@@ATL@@QBEHPBD@Z
  00166	85 c0		 test	 eax, eax
; File D:\git\src\IBK\IBK_DRFN\ProjSrc\SrcChartEx\ChartOCX\ScaleDraw\HorzScaleDrawer.cpp

; 271  : 		if(temp != preTemp || strData != preStrData)

  00168	74 26		 je	 SHORT $LN6@DrawMultiL
$LN7@DrawMultiL:
; File C:\Program Files (x86)\Microsoft Visual Studio\2019\Community\VC\Tools\MSVC\14.29.30133\atlmfc\include\atltypes.h

; 408  : 	x = initX;

  0016a	8b 03		 mov	 eax, DWORD PTR [ebx]
; File D:\git\src\IBK\IBK_DRFN\ProjSrc\SrcChartEx\ChartOCX\ScaleDraw\HorzScaleDrawer.cpp

; 272  : 			CDrawer::DrawTextOut(pDC, CPoint(point.x, point.y + nGap*i), temp, color);

  0016c	ff 75 1c	 push	 DWORD PTR _color$[ebp]
  0016f	8b 4b 04	 mov	 ecx, DWORD PTR [ebx+4]
  00172	03 ce		 add	 ecx, esi
; File C:\Program Files (x86)\Microsoft Visual Studio\2019\Community\VC\Tools\MSVC\14.29.30133\atlmfc\include\atltypes.h

; 408  : 	x = initX;

  00174	89 45 dc	 mov	 DWORD PTR $T2[ebp], eax
; File D:\git\src\IBK\IBK_DRFN\ProjSrc\SrcChartEx\ChartOCX\ScaleDraw\HorzScaleDrawer.cpp

; 272  : 			CDrawer::DrawTextOut(pDC, CPoint(point.x, point.y + nGap*i), temp, color);

  00177	8d 45 18	 lea	 eax, DWORD PTR _temp$6[ebp]
; File C:\Program Files (x86)\Microsoft Visual Studio\2019\Community\VC\Tools\MSVC\14.29.30133\atlmfc\include\atltypes.h

; 409  : 	y = initY;

  0017a	89 4d e0	 mov	 DWORD PTR $T2[ebp+4], ecx
; File D:\git\src\IBK\IBK_DRFN\ProjSrc\SrcChartEx\ChartOCX\ScaleDraw\HorzScaleDrawer.cpp

; 272  : 			CDrawer::DrawTextOut(pDC, CPoint(point.x, point.y + nGap*i), temp, color);

  0017d	8b 4d e8	 mov	 ecx, DWORD PTR _this$1$[ebp]
  00180	50		 push	 eax
  00181	8d 45 dc	 lea	 eax, DWORD PTR $T2[ebp]
  00184	50		 push	 eax
  00185	ff 75 08	 push	 DWORD PTR _pDC$[ebp]
  00188	8d 49 04	 lea	 ecx, DWORD PTR [ecx+4]
  0018b	e8 00 00 00 00	 call	 ?DrawTextOut@CDrawer@@IAEXPAVCDC@@ABVCPoint@@ABV?$CStringT@DV?$StrTraitMFC_DLL@DV?$ChTraitsCRT@D@ATL@@@@@ATL@@K@Z ; CDrawer::DrawTextOut
$LN6@DrawMultiL:

; 273  : 	}

  00190	8d 4d ec	 lea	 ecx, DWORD PTR _preTemp$3[ebp]
  00193	ff 15 00 00 00
	00		 call	 DWORD PTR __imp_??1?$CStringT@DV?$StrTraitMFC_DLL@DV?$ChTraitsCRT@D@ATL@@@@@ATL@@QAE@XZ
  00199	8d 4d 18	 lea	 ecx, DWORD PTR _temp$6[ebp]
  0019c	c6 45 fc 01	 mov	 BYTE PTR __$EHRec$[ebp+8], 1
  001a0	ff 15 00 00 00
	00		 call	 DWORD PTR __imp_??1?$CStringT@DV?$StrTraitMFC_DLL@DV?$ChTraitsCRT@D@ATL@@@@@ATL@@QAE@XZ
  001a6	03 75 e4	 add	 esi, DWORD PTR _nGap$1$[ebp]
  001a9	83 ef 01	 sub	 edi, 1
  001ac	0f 85 2e ff ff
	ff		 jne	 $LL4@DrawMultiL
$LN3@DrawMultiL:

; 274  : }

  001b2	8d 4d f0	 lea	 ecx, DWORD PTR _preStrData$[ebp]
  001b5	ff 15 00 00 00
	00		 call	 DWORD PTR __imp_??1?$CStringT@DV?$StrTraitMFC_DLL@DV?$ChTraitsCRT@D@ATL@@@@@ATL@@QAE@XZ
  001bb	8d 4d 14	 lea	 ecx, DWORD PTR _strData$[ebp]
  001be	ff 15 00 00 00
	00		 call	 DWORD PTR __imp_??1?$CStringT@DV?$StrTraitMFC_DLL@DV?$ChTraitsCRT@D@ATL@@@@@ATL@@QAE@XZ
  001c4	8b 4d f4	 mov	 ecx, DWORD PTR __$EHRec$[ebp]
  001c7	64 89 0d 00 00
	00 00		 mov	 DWORD PTR fs:0, ecx
  001ce	59		 pop	 ecx
  001cf	5f		 pop	 edi
  001d0	5e		 pop	 esi
  001d1	5b		 pop	 ebx
  001d2	8b e5		 mov	 esp, ebp
  001d4	5d		 pop	 ebp
  001d5	c2 18 00	 ret	 24			; 00000018H
_TEXT	ENDS
;	COMDAT text$x
text$x	SEGMENT
__unwindfunclet$?DrawMultiLineTextOut@CHorzScaleDrawer@@IAEXPAVCDC@@ABVCPoint@@HABV?$CStringT@DV?$StrTraitMFC_DLL@DV?$ChTraitsCRT@D@ATL@@@@@ATL@@2K@Z$0:
  00000	8d 4d 14	 lea	 ecx, DWORD PTR _strData$[ebp]
  00003	ff 25 00 00 00
	00		 jmp	 DWORD PTR __imp_??1?$CStringT@DV?$StrTraitMFC_DLL@DV?$ChTraitsCRT@D@ATL@@@@@ATL@@QAE@XZ
__unwindfunclet$?DrawMultiLineTextOut@CHorzScaleDrawer@@IAEXPAVCDC@@ABVCPoint@@HABV?$CStringT@DV?$StrTraitMFC_DLL@DV?$ChTraitsCRT@D@ATL@@@@@ATL@@2K@Z$1:
  00009	8d 4d f0	 lea	 ecx, DWORD PTR _preStrData$[ebp]
  0000c	ff 25 00 00 00
	00		 jmp	 DWORD PTR __imp_??1?$CStringT@DV?$StrTraitMFC_DLL@DV?$ChTraitsCRT@D@ATL@@@@@ATL@@QAE@XZ
__unwindfunclet$?DrawMultiLineTextOut@CHorzScaleDrawer@@IAEXPAVCDC@@ABVCPoint@@HABV?$CStringT@DV?$StrTraitMFC_DLL@DV?$ChTraitsCRT@D@ATL@@@@@ATL@@2K@Z$2:
  00012	8d 4d 18	 lea	 ecx, DWORD PTR $T7[ebp]
  00015	ff 25 00 00 00
	00		 jmp	 DWORD PTR __imp_??1?$CStringT@DV?$StrTraitMFC_DLL@DV?$ChTraitsCRT@D@ATL@@@@@ATL@@QAE@XZ
__unwindfunclet$?DrawMultiLineTextOut@CHorzScaleDrawer@@IAEXPAVCDC@@ABVCPoint@@HABV?$CStringT@DV?$StrTraitMFC_DLL@DV?$ChTraitsCRT@D@ATL@@@@@ATL@@2K@Z$3:
  0001b	8d 4d 10	 lea	 ecx, DWORD PTR $T5[ebp]
  0001e	ff 25 00 00 00
	00		 jmp	 DWORD PTR __imp_??1?$CStringT@DV?$StrTraitMFC_DLL@DV?$ChTraitsCRT@D@ATL@@@@@ATL@@QAE@XZ
__unwindfunclet$?DrawMultiLineTextOut@CHorzScaleDrawer@@IAEXPAVCDC@@ABVCPoint@@HABV?$CStringT@DV?$StrTraitMFC_DLL@DV?$ChTraitsCRT@D@ATL@@@@@ATL@@2K@Z$4:
  00024	8d 4d 18	 lea	 ecx, DWORD PTR _temp$6[ebp]
  00027	ff 25 00 00 00
	00		 jmp	 DWORD PTR __imp_??1?$CStringT@DV?$StrTraitMFC_DLL@DV?$ChTraitsCRT@D@ATL@@@@@ATL@@QAE@XZ
__unwindfunclet$?DrawMultiLineTextOut@CHorzScaleDrawer@@IAEXPAVCDC@@ABVCPoint@@HABV?$CStringT@DV?$StrTraitMFC_DLL@DV?$ChTraitsCRT@D@ATL@@@@@ATL@@2K@Z$5:
  0002d	8d 4d 0c	 lea	 ecx, DWORD PTR $T4[ebp]
  00030	ff 25 00 00 00
	00		 jmp	 DWORD PTR __imp_??1?$CStringT@DV?$StrTraitMFC_DLL@DV?$ChTraitsCRT@D@ATL@@@@@ATL@@QAE@XZ
__unwindfunclet$?DrawMultiLineTextOut@CHorzScaleDrawer@@IAEXPAVCDC@@ABVCPoint@@HABV?$CStringT@DV?$StrTraitMFC_DLL@DV?$ChTraitsCRT@D@ATL@@@@@ATL@@2K@Z$6:
  00036	8d 4d ec	 lea	 ecx, DWORD PTR _preTemp$3[ebp]
  00039	ff 25 00 00 00
	00		 jmp	 DWORD PTR __imp_??1?$CStringT@DV?$StrTraitMFC_DLL@DV?$ChTraitsCRT@D@ATL@@@@@ATL@@QAE@XZ
  0003f	cc		 int	 3
  00040	cc		 int	 3
  00041	cc		 int	 3
  00042	cc		 int	 3
  00043	cc		 int	 3
__ehhandler$?DrawMultiLineTextOut@CHorzScaleDrawer@@IAEXPAVCDC@@ABVCPoint@@HABV?$CStringT@DV?$StrTraitMFC_DLL@DV?$ChTraitsCRT@D@ATL@@@@@ATL@@2K@Z:
  00044	90		 npad	 1
  00045	90		 npad	 1
  00046	8b 54 24 08	 mov	 edx, DWORD PTR [esp+8]
  0004a	8d 42 0c	 lea	 eax, DWORD PTR [edx+12]
  0004d	8b 4a d8	 mov	 ecx, DWORD PTR [edx-40]
  00050	33 c8		 xor	 ecx, eax
  00052	e8 00 00 00 00	 call	 @__security_check_cookie@4
  00057	b8 00 00 00 00	 mov	 eax, OFFSET __ehfuncinfo$?DrawMultiLineTextOut@CHorzScaleDrawer@@IAEXPAVCDC@@ABVCPoint@@HABV?$CStringT@DV?$StrTraitMFC_DLL@DV?$ChTraitsCRT@D@ATL@@@@@ATL@@2K@Z
  0005c	e9 00 00 00 00	 jmp	 ___CxxFrameHandler3
text$x	ENDS
?DrawMultiLineTextOut@CHorzScaleDrawer@@IAEXPAVCDC@@ABVCPoint@@HABV?$CStringT@DV?$StrTraitMFC_DLL@DV?$ChTraitsCRT@D@ATL@@@@@ATL@@2K@Z ENDP ; CHorzScaleDrawer::DrawMultiLineTextOut
; Function compile flags: /Ogtp
; File D:\git\src\IBK\IBK_DRFN\ProjSrc\SrcChartEx\ChartOCX\ScaleDraw\HorzScaleDrawer.cpp
; File C:\Program Files (x86)\Microsoft Visual Studio\2019\Community\VC\Tools\MSVC\14.29.30133\atlmfc\include\atlsimpstr.h
; File D:\git\src\IBK\IBK_DRFN\ProjSrc\SrcChartEx\ChartOCX\ScaleDraw\HorzScaleDrawer.cpp
; File C:\Program Files (x86)\Microsoft Visual Studio\2019\Community\VC\Tools\MSVC\14.29.30133\atlmfc\include\atlsimpstr.h
; File D:\git\src\IBK\IBK_DRFN\ProjSrc\SrcChartEx\ChartOCX\ScaleDraw\HorzScaleDrawer.cpp
; File C:\Program Files (x86)\Microsoft Visual Studio\2019\Community\VC\Tools\MSVC\14.29.30133\atlmfc\include\cstringt.h
; File D:\git\src\IBK\IBK_DRFN\ProjSrc\SrcChartEx\ChartOCX\ScaleDraw\HorzScaleDrawer.cpp
; File C:\Program Files (x86)\Microsoft Visual Studio\2019\Community\VC\Tools\MSVC\14.29.30133\atlmfc\include\cstringt.h
; File D:\git\src\IBK\IBK_DRFN\ProjSrc\SrcChartEx\ChartOCX\ScaleDraw\HorzScaleDrawer.cpp
; File C:\Program Files (x86)\Microsoft Visual Studio\2019\Community\VC\Tools\MSVC\14.29.30133\atlmfc\include\cstringt.h
; File D:\git\src\IBK\IBK_DRFN\ProjSrc\SrcChartEx\ChartOCX\ScaleDraw\HorzScaleDrawer.cpp
; File C:\Program Files (x86)\Microsoft Visual Studio\2019\Community\VC\Tools\MSVC\14.29.30133\atlmfc\include\cstringt.h
; File D:\git\src\IBK\IBK_DRFN\ProjSrc\SrcChartEx\ChartOCX\ScaleDraw\HorzScaleDrawer.cpp
; File C:\Program Files (x86)\Microsoft Visual Studio\2019\Community\VC\Tools\MSVC\14.29.30133\atlmfc\include\cstringt.h
; File D:\git\src\IBK\IBK_DRFN\ProjSrc\SrcChartEx\ChartOCX\ScaleDraw\HorzScaleDrawer.cpp
; File C:\Program Files (x86)\Microsoft Visual Studio\2019\Community\VC\Tools\MSVC\14.29.30133\atlmfc\include\cstringt.h
; File D:\git\src\IBK\IBK_DRFN\ProjSrc\SrcChartEx\ChartOCX\ScaleDraw\HorzScaleDrawer.cpp
; File C:\Program Files (x86)\Microsoft Visual Studio\2019\Community\VC\Tools\MSVC\14.29.30133\atlmfc\include\cstringt.h
; File D:\git\src\IBK\IBK_DRFN\ProjSrc\SrcChartEx\ChartOCX\ScaleDraw\HorzScaleDrawer.cpp
; File C:\Program Files (x86)\Microsoft Visual Studio\2019\Community\VC\Tools\MSVC\14.29.30133\atlmfc\include\cstringt.h
; File D:\git\src\IBK\IBK_DRFN\ProjSrc\SrcChartEx\ChartOCX\ScaleDraw\HorzScaleDrawer.cpp
; File C:\Program Files (x86)\Microsoft Visual Studio\2019\Community\VC\Tools\MSVC\14.29.30133\atlmfc\include\cstringt.h
; File D:\git\src\IBK\IBK_DRFN\ProjSrc\SrcChartEx\ChartOCX\ScaleDraw\HorzScaleDrawer.cpp
; File C:\Program Files (x86)\Microsoft Visual Studio\2019\Community\VC\Tools\MSVC\14.29.30133\atlmfc\include\cstringt.h
; File D:\git\src\IBK\IBK_DRFN\ProjSrc\SrcChartEx\ChartOCX\ScaleDraw\HorzScaleDrawer.cpp
; File C:\Program Files (x86)\Microsoft Visual Studio\2019\Community\VC\Tools\MSVC\14.29.30133\atlmfc\include\atlsimpstr.h
; File D:\git\src\IBK\IBK_DRFN\ProjSrc\SrcChartEx\ChartOCX\ScaleDraw\HorzScaleDrawer.cpp
; File D:\git\src\IBK\IBK_DRFN\ProjSrc\SrcChartEx\ChartOCX\Include_Chart\ScaleCalculator.h
; File D:\git\src\IBK\IBK_DRFN\ProjSrc\SrcChartEx\ChartOCX\ScaleDraw\HorzScaleDrawer.cpp
; File D:\git\src\IBK\IBK_DRFN\ProjSrc\SrcChartEx\ChartOCX\Include_Chart\ScaleCalculator.h
; File D:\git\src\IBK\IBK_DRFN\ProjSrc\SrcChartEx\ChartOCX\ScaleDraw\HorzScaleDrawer.cpp
;	COMDAT ?GetChangeStringData@CHorzScaleDrawer@@IBE?AV?$CStringT@DV?$StrTraitMFC_DLL@DV?$ChTraitsCRT@D@ATL@@@@@ATL@@W4HORZSCALEDRAWERTYPE@CScaleBaseData@@HABV23@1ABVCScaleCompart@@@Z
_TEXT	SEGMENT
$T2 = -24						; size = 8
_changePacketType$ = -16				; size = 4
__$EHRec$ = -12						; size = 12
___$ReturnUdt$ = 8					; size = 4
_scaleDrawerType$ = 12					; size = 4
$T3 = 16						; size = 4
$T4 = 16						; size = 4
_nData$ = 16						; size = 4
_strOrgData$ = 20					; size = 4
_packetType$ = 20					; size = 4
_strTimeCode$ = 24					; size = 4
_trim$ = 24						; size = 4
_scaleCompart$ = 28					; size = 4
?GetChangeStringData@CHorzScaleDrawer@@IBE?AV?$CStringT@DV?$StrTraitMFC_DLL@DV?$ChTraitsCRT@D@ATL@@@@@ATL@@W4HORZSCALEDRAWERTYPE@CScaleBaseData@@HABV23@1ABVCScaleCompart@@@Z PROC ; CHorzScaleDrawer::GetChangeStringData, COMDAT
; _this$ = ecx

; 226  : {

  00000	55		 push	 ebp
  00001	8b ec		 mov	 ebp, esp
  00003	6a ff		 push	 -1
  00005	68 00 00 00 00	 push	 __ehhandler$?GetChangeStringData@CHorzScaleDrawer@@IBE?AV?$CStringT@DV?$StrTraitMFC_DLL@DV?$ChTraitsCRT@D@ATL@@@@@ATL@@W4HORZSCALEDRAWERTYPE@CScaleBaseData@@HABV23@1ABVCScaleCompart@@@Z
  0000a	64 a1 00 00 00
	00		 mov	 eax, DWORD PTR fs:0
  00010	50		 push	 eax
  00011	83 ec 0c	 sub	 esp, 12			; 0000000cH
  00014	53		 push	 ebx
  00015	56		 push	 esi
  00016	57		 push	 edi
  00017	a1 00 00 00 00	 mov	 eax, DWORD PTR ___security_cookie
  0001c	33 c5		 xor	 eax, ebp
  0001e	50		 push	 eax
  0001f	8d 45 f4	 lea	 eax, DWORD PTR __$EHRec$[ebp]
  00022	64 a3 00 00 00
	00		 mov	 DWORD PTR fs:0, eax
  00028	8b d9		 mov	 ebx, ecx
; File C:\Program Files (x86)\Microsoft Visual Studio\2019\Community\VC\Tools\MSVC\14.29.30133\atlmfc\include\atlsimpstr.h

; 377  : 		return( m_pszData );

  0002a	8b 45 18	 mov	 eax, DWORD PTR _trim$[ebp]
; File D:\git\src\IBK\IBK_DRFN\ProjSrc\SrcChartEx\ChartOCX\ScaleDraw\HorzScaleDrawer.cpp

; 227  : 	int index = packetType.Find(trim);

  0002d	8b 7d 14	 mov	 edi, DWORD PTR _packetType$[ebp]
  00030	8b cf		 mov	 ecx, edi
  00032	6a 00		 push	 0
  00034	ff 30		 push	 DWORD PTR [eax]
  00036	ff 15 00 00 00
	00		 call	 DWORD PTR __imp_?Find@?$CStringT@DV?$StrTraitMFC_DLL@DV?$ChTraitsCRT@D@ATL@@@@@ATL@@QBEHPBDH@Z
  0003c	8b f0		 mov	 esi, eax

; 228  : 	if(index < 0) index = packetType.GetLength();

  0003e	85 f6		 test	 esi, esi
  00040	79 05		 jns	 SHORT $LN2@GetChangeS
; File C:\Program Files (x86)\Microsoft Visual Studio\2019\Community\VC\Tools\MSVC\14.29.30133\atlmfc\include\atlsimpstr.h

; 519  : 		return( GetData()->nDataLength );

  00042	8b 07		 mov	 eax, DWORD PTR [edi]
  00044	8b 70 f4	 mov	 esi, DWORD PTR [eax-12]
$LN2@GetChangeS:
; File D:\git\src\IBK\IBK_DRFN\ProjSrc\SrcChartEx\ChartOCX\ScaleDraw\HorzScaleDrawer.cpp

; 229  : 	CString strOrgData;

  00047	8d 4d 14	 lea	 ecx, DWORD PTR _strOrgData$[ebp]
  0004a	ff 15 00 00 00
	00		 call	 DWORD PTR __imp_??0?$CStringT@DV?$StrTraitMFC_DLL@DV?$ChTraitsCRT@D@ATL@@@@@ATL@@QAE@XZ
  00050	c7 45 fc 00 00
	00 00		 mov	 DWORD PTR __$EHRec$[ebp+8], 0

; 230  : 	if(index > 0)	strOrgData = CDataConversion::IntToString( nData, index);

  00057	85 f6		 test	 esi, esi
  00059	7e 19		 jle	 SHORT $LN3@GetChangeS
  0005b	8b 45 10	 mov	 eax, DWORD PTR _nData$[ebp]
  0005e	99		 cdq
  0005f	56		 push	 esi
  00060	52		 push	 edx
  00061	50		 push	 eax
  00062	8d 45 10	 lea	 eax, DWORD PTR $T4[ebp]
  00065	50		 push	 eax
  00066	e8 00 00 00 00	 call	 ?IntToString@CDataConversion@@SA?AV?$CStringT@DV?$StrTraitMFC_DLL@DV?$ChTraitsCRT@D@ATL@@@@@ATL@@_JH@Z ; CDataConversion::IntToString
  0006b	83 c4 10	 add	 esp, 16			; 00000010H
  0006e	c6 45 fc 01	 mov	 BYTE PTR __$EHRec$[ebp+8], 1
  00072	eb 13		 jmp	 SHORT $LN52@GetChangeS
$LN3@GetChangeS:

; 231  : 	else			strOrgData = CDataConversion::IntToString( nData);

  00074	ff 75 10	 push	 DWORD PTR _nData$[ebp]
  00077	8d 45 10	 lea	 eax, DWORD PTR $T3[ebp]
  0007a	50		 push	 eax
  0007b	e8 00 00 00 00	 call	 ?IntToString@CDataConversion@@SA?AV?$CStringT@DV?$StrTraitMFC_DLL@DV?$ChTraitsCRT@D@ATL@@@@@ATL@@H@Z ; CDataConversion::IntToString
  00080	83 c4 08	 add	 esp, 8
  00083	c6 45 fc 02	 mov	 BYTE PTR __$EHRec$[ebp+8], 2
$LN52@GetChangeS:

; 233  : 	CString strTimeCode = strOrgData.Right( 4);

  00087	50		 push	 eax
  00088	8d 4d 14	 lea	 ecx, DWORD PTR _strOrgData$[ebp]
  0008b	ff 15 00 00 00
	00		 call	 DWORD PTR __imp_??4?$CStringT@DV?$StrTraitMFC_DLL@DV?$ChTraitsCRT@D@ATL@@@@@ATL@@QAEAAV01@ABV01@@Z
  00091	8d 4d 10	 lea	 ecx, DWORD PTR $T3[ebp]
  00094	c6 45 fc 00	 mov	 BYTE PTR __$EHRec$[ebp+8], 0
  00098	ff 15 00 00 00
	00		 call	 DWORD PTR __imp_??1?$CStringT@DV?$StrTraitMFC_DLL@DV?$ChTraitsCRT@D@ATL@@@@@ATL@@QAE@XZ
  0009e	6a 04		 push	 4
  000a0	8d 45 18	 lea	 eax, DWORD PTR _strTimeCode$[ebp]
  000a3	50		 push	 eax
  000a4	8d 4d 14	 lea	 ecx, DWORD PTR _strOrgData$[ebp]
  000a7	ff 15 00 00 00
	00		 call	 DWORD PTR __imp_?Right@?$CStringT@DV?$StrTraitMFC_DLL@DV?$ChTraitsCRT@D@ATL@@@@@ATL@@QBE?AV12@H@Z
; File C:\Program Files (x86)\Microsoft Visual Studio\2019\Community\VC\Tools\MSVC\14.29.30133\atlmfc\include\cstringt.h

; 2486 : 		return(str1.Compare(psz2) == 0);

  000ad	68 00 00 00 00	 push	 OFFSET ??_C@_04GLAGOKOO@6666@
  000b2	8d 4d 18	 lea	 ecx, DWORD PTR _strTimeCode$[ebp]
; File D:\git\src\IBK\IBK_DRFN\ProjSrc\SrcChartEx\ChartOCX\ScaleDraw\HorzScaleDrawer.cpp

; 233  : 	CString strTimeCode = strOrgData.Right( 4);

  000b5	c6 45 fc 03	 mov	 BYTE PTR __$EHRec$[ebp+8], 3
; File C:\Program Files (x86)\Microsoft Visual Studio\2019\Community\VC\Tools\MSVC\14.29.30133\atlmfc\include\cstringt.h

; 2486 : 		return(str1.Compare(psz2) == 0);

  000b9	ff 15 00 00 00
	00		 call	 DWORD PTR __imp_?Compare@?$CStringT@DV?$StrTraitMFC_DLL@DV?$ChTraitsCRT@D@ATL@@@@@ATL@@QBEHPBD@Z
  000bf	85 c0		 test	 eax, eax
; File D:\git\src\IBK\IBK_DRFN\ProjSrc\SrcChartEx\ChartOCX\ScaleDraw\HorzScaleDrawer.cpp

; 234  : 	if( strTimeCode == "6666") return _MTEXT( C6_END_OF_OPENING_TRADE);

  000c1	75 10		 jne	 SHORT $LN5@GetChangeS
  000c3	a1 54 00 00 00	 mov	 eax, DWORD PTR ?g_iMetaTable@@3VIMetaTable@@A+84
  000c8	ff b0 d0 09 00
	00		 push	 DWORD PTR [eax+2512]
  000ce	e9 73 01 00 00	 jmp	 $LN53@GetChangeS
$LN5@GetChangeS:
; File C:\Program Files (x86)\Microsoft Visual Studio\2019\Community\VC\Tools\MSVC\14.29.30133\atlmfc\include\cstringt.h

; 2486 : 		return(str1.Compare(psz2) == 0);

  000d3	68 00 00 00 00	 push	 OFFSET ??_C@_04PGADPPEN@7777@
  000d8	8d 4d 18	 lea	 ecx, DWORD PTR _strTimeCode$[ebp]
  000db	ff 15 00 00 00
	00		 call	 DWORD PTR __imp_?Compare@?$CStringT@DV?$StrTraitMFC_DLL@DV?$ChTraitsCRT@D@ATL@@@@@ATL@@QBEHPBD@Z
  000e1	85 c0		 test	 eax, eax
; File D:\git\src\IBK\IBK_DRFN\ProjSrc\SrcChartEx\ChartOCX\ScaleDraw\HorzScaleDrawer.cpp

; 235  : 	if( strTimeCode == "7777") return _MTEXT( C6_END_OF_CLOSING_TRADE);

  000e3	75 10		 jne	 SHORT $LN6@GetChangeS
  000e5	a1 54 00 00 00	 mov	 eax, DWORD PTR ?g_iMetaTable@@3VIMetaTable@@A+84
  000ea	ff b0 d4 09 00
	00		 push	 DWORD PTR [eax+2516]
  000f0	e9 51 01 00 00	 jmp	 $LN53@GetChangeS
$LN6@GetChangeS:
; File C:\Program Files (x86)\Microsoft Visual Studio\2019\Community\VC\Tools\MSVC\14.29.30133\atlmfc\include\cstringt.h

; 2486 : 		return(str1.Compare(psz2) == 0);

  000f5	68 00 00 00 00	 push	 OFFSET ??_C@_04DNPBDGJL@9999@
  000fa	8d 4d 18	 lea	 ecx, DWORD PTR _strTimeCode$[ebp]
  000fd	ff 15 00 00 00
	00		 call	 DWORD PTR __imp_?Compare@?$CStringT@DV?$StrTraitMFC_DLL@DV?$ChTraitsCRT@D@ATL@@@@@ATL@@QBEHPBD@Z
  00103	85 c0		 test	 eax, eax
; File D:\git\src\IBK\IBK_DRFN\ProjSrc\SrcChartEx\ChartOCX\ScaleDraw\HorzScaleDrawer.cpp

; 238  : 	if( strTimeCode == "9999") return _MTEXT( C6_OVERTIME_TRADE);

  00105	75 10		 jne	 SHORT $LN7@GetChangeS
  00107	a1 54 00 00 00	 mov	 eax, DWORD PTR ?g_iMetaTable@@3VIMetaTable@@A+84
  0010c	ff b0 d8 09 00
	00		 push	 DWORD PTR [eax+2520]
  00112	e9 2f 01 00 00	 jmp	 $LN53@GetChangeS
$LN7@GetChangeS:
; File C:\Program Files (x86)\Microsoft Visual Studio\2019\Community\VC\Tools\MSVC\14.29.30133\atlmfc\include\cstringt.h

; 2486 : 		return(str1.Compare(psz2) == 0);

  00117	68 00 00 00 00	 push	 OFFSET ??_C@_04KAPECDDI@8888@
  0011c	8d 4d 18	 lea	 ecx, DWORD PTR _strTimeCode$[ebp]
  0011f	ff 15 00 00 00
	00		 call	 DWORD PTR __imp_?Compare@?$CStringT@DV?$StrTraitMFC_DLL@DV?$ChTraitsCRT@D@ATL@@@@@ATL@@QBEHPBD@Z
  00125	85 c0		 test	 eax, eax
; File D:\git\src\IBK\IBK_DRFN\ProjSrc\SrcChartEx\ChartOCX\ScaleDraw\HorzScaleDrawer.cpp

; 241  : 	if( strTimeCode == "8888" || strTimeCode == "0099" || strTimeCode == "3100") return _MTEXT( C6_END_OF_TRADING);

  00127	0f 84 0e 01 00
	00		 je	 $LN9@GetChangeS
; File C:\Program Files (x86)\Microsoft Visual Studio\2019\Community\VC\Tools\MSVC\14.29.30133\atlmfc\include\cstringt.h

; 2486 : 		return(str1.Compare(psz2) == 0);

  0012d	68 00 00 00 00	 push	 OFFSET ??_C@_04ENOJBLGA@0099@
  00132	8d 4d 18	 lea	 ecx, DWORD PTR _strTimeCode$[ebp]
  00135	ff 15 00 00 00
	00		 call	 DWORD PTR __imp_?Compare@?$CStringT@DV?$StrTraitMFC_DLL@DV?$ChTraitsCRT@D@ATL@@@@@ATL@@QBEHPBD@Z
  0013b	85 c0		 test	 eax, eax
; File D:\git\src\IBK\IBK_DRFN\ProjSrc\SrcChartEx\ChartOCX\ScaleDraw\HorzScaleDrawer.cpp

; 241  : 	if( strTimeCode == "8888" || strTimeCode == "0099" || strTimeCode == "3100") return _MTEXT( C6_END_OF_TRADING);

  0013d	0f 84 f8 00 00
	00		 je	 $LN9@GetChangeS
; File C:\Program Files (x86)\Microsoft Visual Studio\2019\Community\VC\Tools\MSVC\14.29.30133\atlmfc\include\cstringt.h

; 2486 : 		return(str1.Compare(psz2) == 0);

  00143	68 00 00 00 00	 push	 OFFSET ??_C@_04GMOGIGBD@3100@
  00148	8d 4d 18	 lea	 ecx, DWORD PTR _strTimeCode$[ebp]
  0014b	ff 15 00 00 00
	00		 call	 DWORD PTR __imp_?Compare@?$CStringT@DV?$StrTraitMFC_DLL@DV?$ChTraitsCRT@D@ATL@@@@@ATL@@QBEHPBD@Z
  00151	85 c0		 test	 eax, eax
; File D:\git\src\IBK\IBK_DRFN\ProjSrc\SrcChartEx\ChartOCX\ScaleDraw\HorzScaleDrawer.cpp

; 241  : 	if( strTimeCode == "8888" || strTimeCode == "0099" || strTimeCode == "3100") return _MTEXT( C6_END_OF_TRADING);

  00153	0f 84 e2 00 00
	00		 je	 $LN9@GetChangeS
; File C:\Program Files (x86)\Microsoft Visual Studio\2019\Community\VC\Tools\MSVC\14.29.30133\atlmfc\include\cstringt.h

; 2486 : 		return(str1.Compare(psz2) == 0);

  00159	68 00 00 00 00	 push	 OFFSET ??_C@_04NOMGFKAD@4100@
  0015e	8d 4d 18	 lea	 ecx, DWORD PTR _strTimeCode$[ebp]
  00161	ff 15 00 00 00
	00		 call	 DWORD PTR __imp_?Compare@?$CStringT@DV?$StrTraitMFC_DLL@DV?$ChTraitsCRT@D@ATL@@@@@ATL@@QBEHPBD@Z
  00167	85 c0		 test	 eax, eax
; File D:\git\src\IBK\IBK_DRFN\ProjSrc\SrcChartEx\ChartOCX\ScaleDraw\HorzScaleDrawer.cpp

; 244  : 	if( strTimeCode == "4100") return _MTEXT( C6_END_OF_OVERTIME_TRADE);

  00169	75 10		 jne	 SHORT $LN10@GetChangeS
  0016b	a1 54 00 00 00	 mov	 eax, DWORD PTR ?g_iMetaTable@@3VIMetaTable@@A+84
  00170	ff b0 e0 09 00
	00		 push	 DWORD PTR [eax+2528]
  00176	e9 cb 00 00 00	 jmp	 $LN53@GetChangeS
$LN10@GetChangeS:
; File C:\Program Files (x86)\Microsoft Visual Studio\2019\Community\VC\Tools\MSVC\14.29.30133\atlmfc\include\cstringt.h

; 2486 : 		return(str1.Compare(psz2) == 0);

  0017b	68 00 00 00 00	 push	 OFFSET ??_C@_04JJGGCAND@7100@
  00180	8d 4d 18	 lea	 ecx, DWORD PTR _strTimeCode$[ebp]
  00183	ff 15 00 00 00
	00		 call	 DWORD PTR __imp_?Compare@?$CStringT@DV?$StrTraitMFC_DLL@DV?$ChTraitsCRT@D@ATL@@@@@ATL@@QBEHPBD@Z
  00189	85 c0		 test	 eax, eax
; File D:\git\src\IBK\IBK_DRFN\ProjSrc\SrcChartEx\ChartOCX\ScaleDraw\HorzScaleDrawer.cpp

; 247  : 	if( strTimeCode == "7100") return _LTEXT6( C6_AFTER_CLOSING);

  0018b	75 21		 jne	 SHORT $LN11@GetChangeS
  0018d	50		 push	 eax
  0018e	a1 54 00 00 00	 mov	 eax, DWORD PTR ?g_iMetaTable@@3VIMetaTable@@A+84
  00193	ff b0 28 0a 00
	00		 push	 DWORD PTR [eax+2600]
$LN54@GetChangeS:

; 252  : }

  00199	6a 06		 push	 6
  0019b	ff 73 04	 push	 DWORD PTR [ebx+4]
  0019e	b9 00 00 00 00	 mov	 ecx, OFFSET ?g_iMetaTable@@3VIMetaTable@@A ; g_iMetaTable
  001a3	e8 00 00 00 00	 call	 ?GetLanguageText@IMetaTable@@QAEPBDPAUHWND__@@W4E_CODEPAGE@1@PBDH@Z ; IMetaTable::GetLanguageText
  001a8	50		 push	 eax
  001a9	e9 98 00 00 00	 jmp	 $LN53@GetChangeS
$LN11@GetChangeS:
; File C:\Program Files (x86)\Microsoft Visual Studio\2019\Community\VC\Tools\MSVC\14.29.30133\atlmfc\include\cstringt.h

; 2486 : 		return(str1.Compare(psz2) == 0);

  001ae	68 00 00 00 00	 push	 OFFSET ??_C@_04BLDGLHAC@8100@
  001b3	8d 4d 18	 lea	 ecx, DWORD PTR _strTimeCode$[ebp]
  001b6	ff 15 00 00 00
	00		 call	 DWORD PTR __imp_?Compare@?$CStringT@DV?$StrTraitMFC_DLL@DV?$ChTraitsCRT@D@ATL@@@@@ATL@@QBEHPBD@Z
  001bc	85 c0		 test	 eax, eax
; File D:\git\src\IBK\IBK_DRFN\ProjSrc\SrcChartEx\ChartOCX\ScaleDraw\HorzScaleDrawer.cpp

; 248  : 	if( strTimeCode == "8100") return _LTEXT6( C6_END_OF_SINGLE_PRICE);

  001be	75 0e		 jne	 SHORT $LN12@GetChangeS
  001c0	50		 push	 eax
  001c1	a1 54 00 00 00	 mov	 eax, DWORD PTR ?g_iMetaTable@@3VIMetaTable@@A+84
  001c6	ff b0 24 0a 00
	00		 push	 DWORD PTR [eax+2596]
  001cc	eb cb		 jmp	 SHORT $LN54@GetChangeS
$LN12@GetChangeS:
; File C:\Program Files (x86)\Microsoft Visual Studio\2019\Community\VC\Tools\MSVC\14.29.30133\atlmfc\include\atlsimpstr.h

; 519  : 		return( GetData()->nDataLength );

  001ce	8b 45 14	 mov	 eax, DWORD PTR _strOrgData$[ebp]
; File D:\git\src\IBK\IBK_DRFN\ProjSrc\SrcChartEx\ChartOCX\ScaleDraw\HorzScaleDrawer.cpp

; 250  : 	CString changePacketType = packetType.Left(strOrgData.GetLength());

  001d1	8b cf		 mov	 ecx, edi
  001d3	ff 70 f4	 push	 DWORD PTR [eax-12]
  001d6	8d 45 f0	 lea	 eax, DWORD PTR _changePacketType$[ebp]
  001d9	50		 push	 eax
  001da	ff 15 00 00 00
	00		 call	 DWORD PTR __imp_?Left@?$CStringT@DV?$StrTraitMFC_DLL@DV?$ChTraitsCRT@D@ATL@@@@@ATL@@QBE?AV12@H@Z
; File D:\git\src\IBK\IBK_DRFN\ProjSrc\SrcChartEx\ChartOCX\Include_Chart\ScaleCalculator.h

; 29   : 		{	m_hOcxWnd = p_hOcxWnd;	m_eChartMode = p_eChartMode;	}

  001e0	8b 43 04	 mov	 eax, DWORD PTR [ebx+4]
; File D:\git\src\IBK\IBK_DRFN\ProjSrc\SrcChartEx\ChartOCX\ScaleDraw\HorzScaleDrawer.cpp

; 251  : 	return CScaleCalculator( m_hOcxWnd, m_eChartMode).GetCompartScaleData(scaleDrawerType, strOrgData, changePacketType, scaleCompart);

  001e3	8d 4d e8	 lea	 ecx, DWORD PTR $T2[ebp]
  001e6	ff 75 1c	 push	 DWORD PTR _scaleCompart$[ebp]
  001e9	8b 75 08	 mov	 esi, DWORD PTR ___$ReturnUdt$[ebp]
; File D:\git\src\IBK\IBK_DRFN\ProjSrc\SrcChartEx\ChartOCX\Include_Chart\ScaleCalculator.h

; 29   : 		{	m_hOcxWnd = p_hOcxWnd;	m_eChartMode = p_eChartMode;	}

  001ec	89 45 e8	 mov	 DWORD PTR $T2[ebp], eax
  001ef	8b 43 08	 mov	 eax, DWORD PTR [ebx+8]
  001f2	89 45 ec	 mov	 DWORD PTR $T2[ebp+4], eax
; File D:\git\src\IBK\IBK_DRFN\ProjSrc\SrcChartEx\ChartOCX\ScaleDraw\HorzScaleDrawer.cpp

; 251  : 	return CScaleCalculator( m_hOcxWnd, m_eChartMode).GetCompartScaleData(scaleDrawerType, strOrgData, changePacketType, scaleCompart);

  001f5	8d 45 f0	 lea	 eax, DWORD PTR _changePacketType$[ebp]
  001f8	50		 push	 eax
  001f9	8d 45 14	 lea	 eax, DWORD PTR _strOrgData$[ebp]
  001fc	c6 45 fc 04	 mov	 BYTE PTR __$EHRec$[ebp+8], 4
  00200	50		 push	 eax
  00201	ff 75 0c	 push	 DWORD PTR _scaleDrawerType$[ebp]
  00204	56		 push	 esi
  00205	e8 00 00 00 00	 call	 ?GetCompartScaleData@CScaleCalculator@@QAE?AV?$CStringT@DV?$StrTraitMFC_DLL@DV?$ChTraitsCRT@D@ATL@@@@@ATL@@W4HORZSCALEDRAWERTYPE@CScaleBaseData@@ABV23@1ABVCScaleCompart@@@Z ; CScaleCalculator::GetCompartScaleData
  0020a	8d 4d f0	 lea	 ecx, DWORD PTR _changePacketType$[ebp]
  0020d	ff 15 00 00 00
	00		 call	 DWORD PTR __imp_??1?$CStringT@DV?$StrTraitMFC_DLL@DV?$ChTraitsCRT@D@ATL@@@@@ATL@@QAE@XZ
  00213	8d 4d 18	 lea	 ecx, DWORD PTR _strTimeCode$[ebp]
  00216	ff 15 00 00 00
	00		 call	 DWORD PTR __imp_??1?$CStringT@DV?$StrTraitMFC_DLL@DV?$ChTraitsCRT@D@ATL@@@@@ATL@@QAE@XZ
  0021c	8d 4d 14	 lea	 ecx, DWORD PTR _strOrgData$[ebp]
  0021f	ff 15 00 00 00
	00		 call	 DWORD PTR __imp_??1?$CStringT@DV?$StrTraitMFC_DLL@DV?$ChTraitsCRT@D@ATL@@@@@ATL@@QAE@XZ
  00225	8b c6		 mov	 eax, esi

; 252  : }

  00227	8b 4d f4	 mov	 ecx, DWORD PTR __$EHRec$[ebp]
  0022a	64 89 0d 00 00
	00 00		 mov	 DWORD PTR fs:0, ecx
  00231	59		 pop	 ecx
  00232	5f		 pop	 edi
  00233	5e		 pop	 esi
  00234	5b		 pop	 ebx
  00235	8b e5		 mov	 esp, ebp
  00237	5d		 pop	 ebp
  00238	c2 18 00	 ret	 24			; 00000018H
$LN9@GetChangeS:

; 241  : 	if( strTimeCode == "8888" || strTimeCode == "0099" || strTimeCode == "3100") return _MTEXT( C6_END_OF_TRADING);

  0023b	a1 54 00 00 00	 mov	 eax, DWORD PTR ?g_iMetaTable@@3VIMetaTable@@A+84
  00240	ff b0 dc 09 00
	00		 push	 DWORD PTR [eax+2524]
$LN53@GetChangeS:

; 252  : }

  00246	8b 4d 08	 mov	 ecx, DWORD PTR ___$ReturnUdt$[ebp]
  00249	ff 15 00 00 00
	00		 call	 DWORD PTR __imp_??0?$CStringT@DV?$StrTraitMFC_DLL@DV?$ChTraitsCRT@D@ATL@@@@@ATL@@QAE@PBD@Z
  0024f	8d 4d 18	 lea	 ecx, DWORD PTR _strTimeCode$[ebp]
  00252	ff 15 00 00 00
	00		 call	 DWORD PTR __imp_??1?$CStringT@DV?$StrTraitMFC_DLL@DV?$ChTraitsCRT@D@ATL@@@@@ATL@@QAE@XZ
  00258	8d 4d 14	 lea	 ecx, DWORD PTR _strOrgData$[ebp]
  0025b	ff 15 00 00 00
	00		 call	 DWORD PTR __imp_??1?$CStringT@DV?$StrTraitMFC_DLL@DV?$ChTraitsCRT@D@ATL@@@@@ATL@@QAE@XZ
  00261	8b 45 08	 mov	 eax, DWORD PTR ___$ReturnUdt$[ebp]
  00264	8b 4d f4	 mov	 ecx, DWORD PTR __$EHRec$[ebp]
  00267	64 89 0d 00 00
	00 00		 mov	 DWORD PTR fs:0, ecx
  0026e	59		 pop	 ecx
  0026f	5f		 pop	 edi
  00270	5e		 pop	 esi
  00271	5b		 pop	 ebx
  00272	8b e5		 mov	 esp, ebp
  00274	5d		 pop	 ebp
  00275	c2 18 00	 ret	 24			; 00000018H
_TEXT	ENDS
;	COMDAT text$x
text$x	SEGMENT
__unwindfunclet$?GetChangeStringData@CHorzScaleDrawer@@IBE?AV?$CStringT@DV?$StrTraitMFC_DLL@DV?$ChTraitsCRT@D@ATL@@@@@ATL@@W4HORZSCALEDRAWERTYPE@CScaleBaseData@@HABV23@1ABVCScaleCompart@@@Z$0:
  00000	8d 4d 14	 lea	 ecx, DWORD PTR _strOrgData$[ebp]
  00003	ff 25 00 00 00
	00		 jmp	 DWORD PTR __imp_??1?$CStringT@DV?$StrTraitMFC_DLL@DV?$ChTraitsCRT@D@ATL@@@@@ATL@@QAE@XZ
__unwindfunclet$?GetChangeStringData@CHorzScaleDrawer@@IBE?AV?$CStringT@DV?$StrTraitMFC_DLL@DV?$ChTraitsCRT@D@ATL@@@@@ATL@@W4HORZSCALEDRAWERTYPE@CScaleBaseData@@HABV23@1ABVCScaleCompart@@@Z$1:
  00009	8d 4d 10	 lea	 ecx, DWORD PTR $T4[ebp]
  0000c	ff 25 00 00 00
	00		 jmp	 DWORD PTR __imp_??1?$CStringT@DV?$StrTraitMFC_DLL@DV?$ChTraitsCRT@D@ATL@@@@@ATL@@QAE@XZ
__unwindfunclet$?GetChangeStringData@CHorzScaleDrawer@@IBE?AV?$CStringT@DV?$StrTraitMFC_DLL@DV?$ChTraitsCRT@D@ATL@@@@@ATL@@W4HORZSCALEDRAWERTYPE@CScaleBaseData@@HABV23@1ABVCScaleCompart@@@Z$2:
  00012	8d 4d 10	 lea	 ecx, DWORD PTR $T3[ebp]
  00015	ff 25 00 00 00
	00		 jmp	 DWORD PTR __imp_??1?$CStringT@DV?$StrTraitMFC_DLL@DV?$ChTraitsCRT@D@ATL@@@@@ATL@@QAE@XZ
__unwindfunclet$?GetChangeStringData@CHorzScaleDrawer@@IBE?AV?$CStringT@DV?$StrTraitMFC_DLL@DV?$ChTraitsCRT@D@ATL@@@@@ATL@@W4HORZSCALEDRAWERTYPE@CScaleBaseData@@HABV23@1ABVCScaleCompart@@@Z$3:
  0001b	8d 4d 18	 lea	 ecx, DWORD PTR _strTimeCode$[ebp]
  0001e	ff 25 00 00 00
	00		 jmp	 DWORD PTR __imp_??1?$CStringT@DV?$StrTraitMFC_DLL@DV?$ChTraitsCRT@D@ATL@@@@@ATL@@QAE@XZ
__unwindfunclet$?GetChangeStringData@CHorzScaleDrawer@@IBE?AV?$CStringT@DV?$StrTraitMFC_DLL@DV?$ChTraitsCRT@D@ATL@@@@@ATL@@W4HORZSCALEDRAWERTYPE@CScaleBaseData@@HABV23@1ABVCScaleCompart@@@Z$5:
  00024	8d 4d f0	 lea	 ecx, DWORD PTR _changePacketType$[ebp]
  00027	ff 25 00 00 00
	00		 jmp	 DWORD PTR __imp_??1?$CStringT@DV?$StrTraitMFC_DLL@DV?$ChTraitsCRT@D@ATL@@@@@ATL@@QAE@XZ
  0002d	cc		 int	 3
  0002e	cc		 int	 3
  0002f	cc		 int	 3
  00030	cc		 int	 3
  00031	cc		 int	 3
__ehhandler$?GetChangeStringData@CHorzScaleDrawer@@IBE?AV?$CStringT@DV?$StrTraitMFC_DLL@DV?$ChTraitsCRT@D@ATL@@@@@ATL@@W4HORZSCALEDRAWERTYPE@CScaleBaseData@@HABV23@1ABVCScaleCompart@@@Z:
  00032	90		 npad	 1
  00033	90		 npad	 1
  00034	8b 54 24 08	 mov	 edx, DWORD PTR [esp+8]
  00038	8d 42 0c	 lea	 eax, DWORD PTR [edx+12]
  0003b	8b 4a e4	 mov	 ecx, DWORD PTR [edx-28]
  0003e	33 c8		 xor	 ecx, eax
  00040	e8 00 00 00 00	 call	 @__security_check_cookie@4
  00045	b8 00 00 00 00	 mov	 eax, OFFSET __ehfuncinfo$?GetChangeStringData@CHorzScaleDrawer@@IBE?AV?$CStringT@DV?$StrTraitMFC_DLL@DV?$ChTraitsCRT@D@ATL@@@@@ATL@@W4HORZSCALEDRAWERTYPE@CScaleBaseData@@HABV23@1ABVCScaleCompart@@@Z
  0004a	e9 00 00 00 00	 jmp	 ___CxxFrameHandler3
text$x	ENDS
?GetChangeStringData@CHorzScaleDrawer@@IBE?AV?$CStringT@DV?$StrTraitMFC_DLL@DV?$ChTraitsCRT@D@ATL@@@@@ATL@@W4HORZSCALEDRAWERTYPE@CScaleBaseData@@HABV23@1ABVCScaleCompart@@@Z ENDP ; CHorzScaleDrawer::GetChangeStringData
; Function compile flags: /Ogtp
; File D:\git\src\IBK\IBK_DRFN\ProjSrc\SrcChartEx\ChartOCX\ScaleDraw\HorzScaleDrawer.cpp
; File C:\Program Files (x86)\Microsoft Visual Studio\2019\Community\VC\Tools\MSVC\14.29.30133\atlmfc\include\atlsimpstr.h
; File D:\git\src\IBK\IBK_DRFN\ProjSrc\SrcChartEx\ChartOCX\ScaleDraw\HorzScaleDrawer.cpp
; File C:\Program Files (x86)\Microsoft Visual Studio\2019\Community\VC\Tools\MSVC\14.29.30133\atlmfc\include\atlsimpstr.h
; File D:\git\src\IBK\IBK_DRFN\ProjSrc\SrcChartEx\ChartOCX\ScaleDraw\HorzScaleDrawer.cpp
; File C:\Program Files (x86)\Microsoft Visual Studio\2019\Community\VC\Tools\MSVC\14.29.30133\atlmfc\include\atlsimpstr.h
; File D:\git\src\IBK\IBK_DRFN\ProjSrc\SrcChartEx\ChartOCX\ScaleDraw\HorzScaleDrawer.cpp
; File C:\Program Files (x86)\Microsoft Visual Studio\2019\Community\VC\Tools\MSVC\14.29.30133\atlmfc\include\atlsimpstr.h
; File D:\git\src\IBK\IBK_DRFN\ProjSrc\SrcChartEx\ChartOCX\ScaleDraw\HorzScaleDrawer.cpp
; File C:\Program Files (x86)\Microsoft Visual Studio\2019\Community\VC\Tools\MSVC\14.29.30133\atlmfc\include\atlsimpstr.h
; File D:\git\src\IBK\IBK_DRFN\ProjSrc\SrcChartEx\ChartOCX\ScaleDraw\HorzScaleDrawer.cpp
; File C:\Program Files (x86)\Microsoft Visual Studio\2019\Community\VC\Tools\MSVC\14.29.30133\atlmfc\include\atlsimpstr.h
; File D:\git\src\IBK\IBK_DRFN\ProjSrc\SrcChartEx\ChartOCX\ScaleDraw\HorzScaleDrawer.cpp
; File C:\Program Files (x86)\Microsoft Visual Studio\2019\Community\VC\Tools\MSVC\14.29.30133\atlmfc\include\atlsimpstr.h
; File D:\git\src\IBK\IBK_DRFN\ProjSrc\SrcChartEx\ChartOCX\ScaleDraw\HorzScaleDrawer.cpp
; File D:\git\src\IBK\IBK_DRFN\ProjSrc\SrcChartEx\ChartOCX\Include_Chart\ScaleCalculator.h
; File D:\git\src\IBK\IBK_DRFN\ProjSrc\SrcChartEx\ChartOCX\ScaleDraw\HorzScaleDrawer.cpp
; File D:\git\src\IBK\IBK_DRFN\ProjSrc\SrcChartEx\ChartOCX\Include_Chart\ScaleCalculator.h
; File D:\git\src\IBK\IBK_DRFN\ProjSrc\SrcChartEx\ChartOCX\ScaleDraw\HorzScaleDrawer.cpp
;	COMDAT ?GetChangeStringData@CHorzScaleDrawer@@IBE?AV?$CStringT@DV?$StrTraitMFC_DLL@DV?$ChTraitsCRT@D@ATL@@@@@ATL@@W4HORZSCALEDRAWERTYPE@CScaleBaseData@@HABV23@11@Z
_TEXT	SEGMENT
$T2 = -20						; size = 8
tv259 = -16						; size = 4
$T3 = -16						; size = 4
__$EHRec$ = -12						; size = 12
___$ReturnUdt$ = 8					; size = 4
_scaleDrawerType$ = 12					; size = 4
tv257 = 16						; size = 4
$T4 = 16						; size = 4
$T5 = 16						; size = 4
$T6 = 16						; size = 4
$T7 = 16						; size = 4
_nData$ = 16						; size = 4
_changePacketType$ = 20					; size = 4
_packetType$ = 20					; size = 4
_compartType$ = 24					; size = 4
_strOrgData$ = 28					; size = 4
_trim$ = 28						; size = 4
?GetChangeStringData@CHorzScaleDrawer@@IBE?AV?$CStringT@DV?$StrTraitMFC_DLL@DV?$ChTraitsCRT@D@ATL@@@@@ATL@@W4HORZSCALEDRAWERTYPE@CScaleBaseData@@HABV23@11@Z PROC ; CHorzScaleDrawer::GetChangeStringData, COMDAT
; _this$ = ecx

; 202  : {

  00000	55		 push	 ebp
  00001	8b ec		 mov	 ebp, esp
  00003	6a ff		 push	 -1
  00005	68 00 00 00 00	 push	 __ehhandler$?GetChangeStringData@CHorzScaleDrawer@@IBE?AV?$CStringT@DV?$StrTraitMFC_DLL@DV?$ChTraitsCRT@D@ATL@@@@@ATL@@W4HORZSCALEDRAWERTYPE@CScaleBaseData@@HABV23@11@Z
  0000a	64 a1 00 00 00
	00		 mov	 eax, DWORD PTR fs:0
  00010	50		 push	 eax
  00011	83 ec 08	 sub	 esp, 8
  00014	53		 push	 ebx
  00015	56		 push	 esi
  00016	57		 push	 edi
  00017	a1 00 00 00 00	 mov	 eax, DWORD PTR ___security_cookie
  0001c	33 c5		 xor	 eax, ebp
  0001e	50		 push	 eax
  0001f	8d 45 f4	 lea	 eax, DWORD PTR __$EHRec$[ebp]
  00022	64 a3 00 00 00
	00		 mov	 DWORD PTR fs:0, eax
  00028	8b d9		 mov	 ebx, ecx
; File C:\Program Files (x86)\Microsoft Visual Studio\2019\Community\VC\Tools\MSVC\14.29.30133\atlmfc\include\atlsimpstr.h

; 377  : 		return( m_pszData );

  0002a	8b 75 1c	 mov	 esi, DWORD PTR _trim$[ebp]
; File D:\git\src\IBK\IBK_DRFN\ProjSrc\SrcChartEx\ChartOCX\ScaleDraw\HorzScaleDrawer.cpp

; 204  : 	if(packetType.Find(trim) == -1 || trim.IsEmpty())

  0002d	8b 7d 14	 mov	 edi, DWORD PTR _packetType$[ebp]
  00030	8b cf		 mov	 ecx, edi
  00032	6a 00		 push	 0
  00034	ff 36		 push	 DWORD PTR [esi]
  00036	ff 15 00 00 00
	00		 call	 DWORD PTR __imp_?Find@?$CStringT@DV?$StrTraitMFC_DLL@DV?$ChTraitsCRT@D@ATL@@@@@ATL@@QBEHPBDH@Z
  0003c	83 f8 ff	 cmp	 eax, -1
  0003f	0f 84 59 01 00
	00		 je	 $LN3@GetChangeS
; File C:\Program Files (x86)\Microsoft Visual Studio\2019\Community\VC\Tools\MSVC\14.29.30133\atlmfc\include\atlsimpstr.h

; 519  : 		return( GetData()->nDataLength );

  00045	8b 06		 mov	 eax, DWORD PTR [esi]

; 533  : 		return( GetLength() == 0 );

  00047	83 78 f4 00	 cmp	 DWORD PTR [eax-12], 0
; File D:\git\src\IBK\IBK_DRFN\ProjSrc\SrcChartEx\ChartOCX\ScaleDraw\HorzScaleDrawer.cpp

; 204  : 	if(packetType.Find(trim) == -1 || trim.IsEmpty())

  0004b	0f 84 4d 01 00
	00		 je	 $LN3@GetChangeS

; 206  : 
; 207  : 	CString changePacketType = packetType;

  00051	57		 push	 edi
  00052	8d 4d 14	 lea	 ecx, DWORD PTR _changePacketType$[ebp]
  00055	ff 15 00 00 00
	00		 call	 DWORD PTR __imp_??0?$CStringT@DV?$StrTraitMFC_DLL@DV?$ChTraitsCRT@D@ATL@@@@@ATL@@QAE@ABV01@@Z

; 208  : 	CString strOrgData;

  0005b	8d 4d 1c	 lea	 ecx, DWORD PTR _strOrgData$[ebp]
  0005e	c7 45 fc 00 00
	00 00		 mov	 DWORD PTR __$EHRec$[ebp+8], 0
  00065	ff 15 00 00 00
	00		 call	 DWORD PTR __imp_??0?$CStringT@DV?$StrTraitMFC_DLL@DV?$ChTraitsCRT@D@ATL@@@@@ATL@@QAE@XZ

; 31   : 	return (packetType.Find('Y') <= 0);

  0006b	8b 45 10	 mov	 eax, DWORD PTR _nData$[ebp]
  0006e	8b cf		 mov	 ecx, edi
  00070	99		 cdq
  00071	6a 00		 push	 0
  00073	6a 59		 push	 89			; 00000059H

; 208  : 	CString strOrgData;

  00075	c6 45 fc 01	 mov	 BYTE PTR __$EHRec$[ebp+8], 1

; 31   : 	return (packetType.Find('Y') <= 0);

  00079	89 45 f0	 mov	 DWORD PTR tv259[ebp], eax
  0007c	89 55 10	 mov	 DWORD PTR tv257[ebp], edx
  0007f	ff 15 00 00 00
	00		 call	 DWORD PTR __imp_?Find@?$CStringT@DV?$StrTraitMFC_DLL@DV?$ChTraitsCRT@D@ATL@@@@@ATL@@QBEHDH@Z
  00085	85 c0		 test	 eax, eax

; 209  : 	if(IsKoreanStyle(packetType)){

  00087	7f 52		 jg	 SHORT $LN4@GetChangeS

; 210  : 		int index = packetType.Find(trim);

  00089	6a 00		 push	 0
  0008b	ff 36		 push	 DWORD PTR [esi]
  0008d	8b cf		 mov	 ecx, edi
  0008f	ff 15 00 00 00
	00		 call	 DWORD PTR __imp_?Find@?$CStringT@DV?$StrTraitMFC_DLL@DV?$ChTraitsCRT@D@ATL@@@@@ATL@@QBEHPBDH@Z

; 211  : 		strOrgData = CDataConversion::IntToString(nData, index);

  00095	50		 push	 eax
  00096	ff 75 10	 push	 DWORD PTR tv257[ebp]
  00099	8d 45 10	 lea	 eax, DWORD PTR $T7[ebp]
  0009c	ff 75 f0	 push	 DWORD PTR tv259[ebp]
  0009f	50		 push	 eax
  000a0	e8 00 00 00 00	 call	 ?IntToString@CDataConversion@@SA?AV?$CStringT@DV?$StrTraitMFC_DLL@DV?$ChTraitsCRT@D@ATL@@@@@ATL@@_JH@Z ; CDataConversion::IntToString
  000a5	83 c4 10	 add	 esp, 16			; 00000010H
  000a8	50		 push	 eax
  000a9	8d 4d 1c	 lea	 ecx, DWORD PTR _strOrgData$[ebp]
  000ac	c6 45 fc 02	 mov	 BYTE PTR __$EHRec$[ebp+8], 2
  000b0	ff 15 00 00 00
	00		 call	 DWORD PTR __imp_??4?$CStringT@DV?$StrTraitMFC_DLL@DV?$ChTraitsCRT@D@ATL@@@@@ATL@@QAEAAV01@ABV01@@Z
  000b6	8d 4d 10	 lea	 ecx, DWORD PTR $T7[ebp]
  000b9	c6 45 fc 01	 mov	 BYTE PTR __$EHRec$[ebp+8], 1
  000bd	ff 15 00 00 00
	00		 call	 DWORD PTR __imp_??1?$CStringT@DV?$StrTraitMFC_DLL@DV?$ChTraitsCRT@D@ATL@@@@@ATL@@QAE@XZ
; File C:\Program Files (x86)\Microsoft Visual Studio\2019\Community\VC\Tools\MSVC\14.29.30133\atlmfc\include\atlsimpstr.h

; 519  : 		return( GetData()->nDataLength );

  000c3	8b 45 1c	 mov	 eax, DWORD PTR _strOrgData$[ebp]
; File D:\git\src\IBK\IBK_DRFN\ProjSrc\SrcChartEx\ChartOCX\ScaleDraw\HorzScaleDrawer.cpp

; 212  : 		changePacketType = packetType.Left(strOrgData.GetLength());

  000c6	8b cf		 mov	 ecx, edi
  000c8	ff 70 f4	 push	 DWORD PTR [eax-12]
  000cb	8d 45 10	 lea	 eax, DWORD PTR $T6[ebp]
  000ce	50		 push	 eax
  000cf	ff 15 00 00 00
	00		 call	 DWORD PTR __imp_?Left@?$CStringT@DV?$StrTraitMFC_DLL@DV?$ChTraitsCRT@D@ATL@@@@@ATL@@QBE?AV12@H@Z
  000d5	c6 45 fc 03	 mov	 BYTE PTR __$EHRec$[ebp+8], 3

; 213  : 	}

  000d9	eb 75		 jmp	 SHORT $LN47@GetChangeS
$LN4@GetChangeS:

; 215  : 		int index = GetFindEndIndex(packetType, trim) +1;

  000db	56		 push	 esi
  000dc	57		 push	 edi
  000dd	8b cb		 mov	 ecx, ebx
  000df	e8 00 00 00 00	 call	 ?GetFindEndIndex@CHorzScaleDrawer@@IBEHABV?$CStringT@DV?$StrTraitMFC_DLL@DV?$ChTraitsCRT@D@ATL@@@@@ATL@@0@Z ; CHorzScaleDrawer::GetFindEndIndex
; File C:\Program Files (x86)\Microsoft Visual Studio\2019\Community\VC\Tools\MSVC\14.29.30133\atlmfc\include\atlsimpstr.h

; 519  : 		return( GetData()->nDataLength );

  000e4	8b 0f		 mov	 ecx, DWORD PTR [edi]
; File D:\git\src\IBK\IBK_DRFN\ProjSrc\SrcChartEx\ChartOCX\ScaleDraw\HorzScaleDrawer.cpp

; 215  : 		int index = GetFindEndIndex(packetType, trim) +1;

  000e6	8d 70 01	 lea	 esi, DWORD PTR [eax+1]

; 216  : 		strOrgData = CDataConversion::IntToString(nData, packetType.GetLength()).Right(packetType.GetLength() - index);

  000e9	ff 71 f4	 push	 DWORD PTR [ecx-12]
  000ec	8d 45 f0	 lea	 eax, DWORD PTR $T3[ebp]
  000ef	ff 75 10	 push	 DWORD PTR tv257[ebp]
  000f2	ff 75 f0	 push	 DWORD PTR tv259[ebp]
  000f5	50		 push	 eax
  000f6	e8 00 00 00 00	 call	 ?IntToString@CDataConversion@@SA?AV?$CStringT@DV?$StrTraitMFC_DLL@DV?$ChTraitsCRT@D@ATL@@@@@ATL@@_JH@Z ; CDataConversion::IntToString
  000fb	83 c4 10	 add	 esp, 16			; 00000010H
; File C:\Program Files (x86)\Microsoft Visual Studio\2019\Community\VC\Tools\MSVC\14.29.30133\atlmfc\include\atlsimpstr.h

; 519  : 		return( GetData()->nDataLength );

  000fe	8b 0f		 mov	 ecx, DWORD PTR [edi]
; File D:\git\src\IBK\IBK_DRFN\ProjSrc\SrcChartEx\ChartOCX\ScaleDraw\HorzScaleDrawer.cpp

; 216  : 		strOrgData = CDataConversion::IntToString(nData, packetType.GetLength()).Right(packetType.GetLength() - index);

  00100	c6 45 fc 04	 mov	 BYTE PTR __$EHRec$[ebp+8], 4
; File C:\Program Files (x86)\Microsoft Visual Studio\2019\Community\VC\Tools\MSVC\14.29.30133\atlmfc\include\atlsimpstr.h

; 519  : 		return( GetData()->nDataLength );

  00104	8b 49 f4	 mov	 ecx, DWORD PTR [ecx-12]
; File D:\git\src\IBK\IBK_DRFN\ProjSrc\SrcChartEx\ChartOCX\ScaleDraw\HorzScaleDrawer.cpp

; 216  : 		strOrgData = CDataConversion::IntToString(nData, packetType.GetLength()).Right(packetType.GetLength() - index);

  00107	2b ce		 sub	 ecx, esi
  00109	51		 push	 ecx
  0010a	8d 4d 10	 lea	 ecx, DWORD PTR $T5[ebp]
  0010d	51		 push	 ecx
  0010e	8b c8		 mov	 ecx, eax
  00110	ff 15 00 00 00
	00		 call	 DWORD PTR __imp_?Right@?$CStringT@DV?$StrTraitMFC_DLL@DV?$ChTraitsCRT@D@ATL@@@@@ATL@@QBE?AV12@H@Z
  00116	50		 push	 eax
  00117	8d 4d 1c	 lea	 ecx, DWORD PTR _strOrgData$[ebp]
  0011a	c6 45 fc 05	 mov	 BYTE PTR __$EHRec$[ebp+8], 5
  0011e	ff 15 00 00 00
	00		 call	 DWORD PTR __imp_??4?$CStringT@DV?$StrTraitMFC_DLL@DV?$ChTraitsCRT@D@ATL@@@@@ATL@@QAEAAV01@ABV01@@Z
  00124	8d 4d 10	 lea	 ecx, DWORD PTR $T5[ebp]
  00127	ff 15 00 00 00
	00		 call	 DWORD PTR __imp_??1?$CStringT@DV?$StrTraitMFC_DLL@DV?$ChTraitsCRT@D@ATL@@@@@ATL@@QAE@XZ
  0012d	8d 4d f0	 lea	 ecx, DWORD PTR $T3[ebp]
  00130	c6 45 fc 01	 mov	 BYTE PTR __$EHRec$[ebp+8], 1
  00134	ff 15 00 00 00
	00		 call	 DWORD PTR __imp_??1?$CStringT@DV?$StrTraitMFC_DLL@DV?$ChTraitsCRT@D@ATL@@@@@ATL@@QAE@XZ
; File C:\Program Files (x86)\Microsoft Visual Studio\2019\Community\VC\Tools\MSVC\14.29.30133\atlmfc\include\atlsimpstr.h

; 519  : 		return( GetData()->nDataLength );

  0013a	8b 45 1c	 mov	 eax, DWORD PTR _strOrgData$[ebp]
; File D:\git\src\IBK\IBK_DRFN\ProjSrc\SrcChartEx\ChartOCX\ScaleDraw\HorzScaleDrawer.cpp

; 217  : 		changePacketType = packetType.Right(strOrgData.GetLength());

  0013d	8b cf		 mov	 ecx, edi
  0013f	ff 70 f4	 push	 DWORD PTR [eax-12]
  00142	8d 45 10	 lea	 eax, DWORD PTR $T4[ebp]
  00145	50		 push	 eax
  00146	ff 15 00 00 00
	00		 call	 DWORD PTR __imp_?Right@?$CStringT@DV?$StrTraitMFC_DLL@DV?$ChTraitsCRT@D@ATL@@@@@ATL@@QBE?AV12@H@Z
  0014c	c6 45 fc 06	 mov	 BYTE PTR __$EHRec$[ebp+8], 6
$LN47@GetChangeS:
; File D:\git\src\IBK\IBK_DRFN\ProjSrc\SrcChartEx\ChartOCX\Include_Chart\ScaleCalculator.h

; 29   : 		{	m_hOcxWnd = p_hOcxWnd;	m_eChartMode = p_eChartMode;	}

  00150	50		 push	 eax
  00151	8d 4d 14	 lea	 ecx, DWORD PTR _changePacketType$[ebp]
  00154	ff 15 00 00 00
	00		 call	 DWORD PTR __imp_??4?$CStringT@DV?$StrTraitMFC_DLL@DV?$ChTraitsCRT@D@ATL@@@@@ATL@@QAEAAV01@ABV01@@Z
  0015a	8d 4d 10	 lea	 ecx, DWORD PTR $T4[ebp]
  0015d	c6 45 fc 01	 mov	 BYTE PTR __$EHRec$[ebp+8], 1
  00161	ff 15 00 00 00
	00		 call	 DWORD PTR __imp_??1?$CStringT@DV?$StrTraitMFC_DLL@DV?$ChTraitsCRT@D@ATL@@@@@ATL@@QAE@XZ
  00167	8b 43 04	 mov	 eax, DWORD PTR [ebx+4]
; File D:\git\src\IBK\IBK_DRFN\ProjSrc\SrcChartEx\ChartOCX\ScaleDraw\HorzScaleDrawer.cpp

; 220  : 	return CScaleCalculator( m_hOcxWnd, m_eChartMode).GetCompartScaleData_Date(strOrgData, changePacketType, compartType);

  0016a	8d 4d ec	 lea	 ecx, DWORD PTR $T2[ebp]
  0016d	ff 75 18	 push	 DWORD PTR _compartType$[ebp]
  00170	8b 75 08	 mov	 esi, DWORD PTR ___$ReturnUdt$[ebp]
; File D:\git\src\IBK\IBK_DRFN\ProjSrc\SrcChartEx\ChartOCX\Include_Chart\ScaleCalculator.h

; 29   : 		{	m_hOcxWnd = p_hOcxWnd;	m_eChartMode = p_eChartMode;	}

  00173	89 45 ec	 mov	 DWORD PTR $T2[ebp], eax
  00176	8b 43 08	 mov	 eax, DWORD PTR [ebx+8]
  00179	89 45 f0	 mov	 DWORD PTR $T2[ebp+4], eax
; File D:\git\src\IBK\IBK_DRFN\ProjSrc\SrcChartEx\ChartOCX\ScaleDraw\HorzScaleDrawer.cpp

; 220  : 	return CScaleCalculator( m_hOcxWnd, m_eChartMode).GetCompartScaleData_Date(strOrgData, changePacketType, compartType);

  0017c	8d 45 14	 lea	 eax, DWORD PTR _changePacketType$[ebp]
  0017f	50		 push	 eax
  00180	8d 45 1c	 lea	 eax, DWORD PTR _strOrgData$[ebp]
  00183	50		 push	 eax
  00184	56		 push	 esi
  00185	e8 00 00 00 00	 call	 ?GetCompartScaleData_Date@CScaleCalculator@@QAE?AV?$CStringT@DV?$StrTraitMFC_DLL@DV?$ChTraitsCRT@D@ATL@@@@@ATL@@ABV23@00@Z ; CScaleCalculator::GetCompartScaleData_Date
  0018a	8d 4d 1c	 lea	 ecx, DWORD PTR _strOrgData$[ebp]
  0018d	ff 15 00 00 00
	00		 call	 DWORD PTR __imp_??1?$CStringT@DV?$StrTraitMFC_DLL@DV?$ChTraitsCRT@D@ATL@@@@@ATL@@QAE@XZ
  00193	8d 4d 14	 lea	 ecx, DWORD PTR _changePacketType$[ebp]
  00196	ff 15 00 00 00
	00		 call	 DWORD PTR __imp_??1?$CStringT@DV?$StrTraitMFC_DLL@DV?$ChTraitsCRT@D@ATL@@@@@ATL@@QAE@XZ
  0019c	eb 0f		 jmp	 SHORT $LN48@GetChangeS
$LN3@GetChangeS:

; 205  : 		return CDataConversion::IntToString(nData);

  0019e	ff 75 10	 push	 DWORD PTR _nData$[ebp]
  001a1	8b 75 08	 mov	 esi, DWORD PTR ___$ReturnUdt$[ebp]
  001a4	56		 push	 esi
  001a5	e8 00 00 00 00	 call	 ?IntToString@CDataConversion@@SA?AV?$CStringT@DV?$StrTraitMFC_DLL@DV?$ChTraitsCRT@D@ATL@@@@@ATL@@H@Z ; CDataConversion::IntToString
  001aa	83 c4 08	 add	 esp, 8
$LN48@GetChangeS:

; 221  : }

  001ad	8b c6		 mov	 eax, esi
  001af	8b 4d f4	 mov	 ecx, DWORD PTR __$EHRec$[ebp]
  001b2	64 89 0d 00 00
	00 00		 mov	 DWORD PTR fs:0, ecx
  001b9	59		 pop	 ecx
  001ba	5f		 pop	 edi
  001bb	5e		 pop	 esi
  001bc	5b		 pop	 ebx
  001bd	8b e5		 mov	 esp, ebp
  001bf	5d		 pop	 ebp
  001c0	c2 18 00	 ret	 24			; 00000018H
_TEXT	ENDS
;	COMDAT text$x
text$x	SEGMENT
__unwindfunclet$?GetChangeStringData@CHorzScaleDrawer@@IBE?AV?$CStringT@DV?$StrTraitMFC_DLL@DV?$ChTraitsCRT@D@ATL@@@@@ATL@@W4HORZSCALEDRAWERTYPE@CScaleBaseData@@HABV23@11@Z$1:
  00000	8d 4d 14	 lea	 ecx, DWORD PTR _changePacketType$[ebp]
  00003	ff 25 00 00 00
	00		 jmp	 DWORD PTR __imp_??1?$CStringT@DV?$StrTraitMFC_DLL@DV?$ChTraitsCRT@D@ATL@@@@@ATL@@QAE@XZ
__unwindfunclet$?GetChangeStringData@CHorzScaleDrawer@@IBE?AV?$CStringT@DV?$StrTraitMFC_DLL@DV?$ChTraitsCRT@D@ATL@@@@@ATL@@W4HORZSCALEDRAWERTYPE@CScaleBaseData@@HABV23@11@Z$2:
  00009	8d 4d 1c	 lea	 ecx, DWORD PTR _strOrgData$[ebp]
  0000c	ff 25 00 00 00
	00		 jmp	 DWORD PTR __imp_??1?$CStringT@DV?$StrTraitMFC_DLL@DV?$ChTraitsCRT@D@ATL@@@@@ATL@@QAE@XZ
__unwindfunclet$?GetChangeStringData@CHorzScaleDrawer@@IBE?AV?$CStringT@DV?$StrTraitMFC_DLL@DV?$ChTraitsCRT@D@ATL@@@@@ATL@@W4HORZSCALEDRAWERTYPE@CScaleBaseData@@HABV23@11@Z$3:
  00012	8d 4d 10	 lea	 ecx, DWORD PTR $T7[ebp]
  00015	ff 25 00 00 00
	00		 jmp	 DWORD PTR __imp_??1?$CStringT@DV?$StrTraitMFC_DLL@DV?$ChTraitsCRT@D@ATL@@@@@ATL@@QAE@XZ
__unwindfunclet$?GetChangeStringData@CHorzScaleDrawer@@IBE?AV?$CStringT@DV?$StrTraitMFC_DLL@DV?$ChTraitsCRT@D@ATL@@@@@ATL@@W4HORZSCALEDRAWERTYPE@CScaleBaseData@@HABV23@11@Z$4:
  0001b	8d 4d 10	 lea	 ecx, DWORD PTR $T6[ebp]
  0001e	ff 25 00 00 00
	00		 jmp	 DWORD PTR __imp_??1?$CStringT@DV?$StrTraitMFC_DLL@DV?$ChTraitsCRT@D@ATL@@@@@ATL@@QAE@XZ
__unwindfunclet$?GetChangeStringData@CHorzScaleDrawer@@IBE?AV?$CStringT@DV?$StrTraitMFC_DLL@DV?$ChTraitsCRT@D@ATL@@@@@ATL@@W4HORZSCALEDRAWERTYPE@CScaleBaseData@@HABV23@11@Z$5:
  00024	8d 4d f0	 lea	 ecx, DWORD PTR $T3[ebp]
  00027	ff 25 00 00 00
	00		 jmp	 DWORD PTR __imp_??1?$CStringT@DV?$StrTraitMFC_DLL@DV?$ChTraitsCRT@D@ATL@@@@@ATL@@QAE@XZ
__unwindfunclet$?GetChangeStringData@CHorzScaleDrawer@@IBE?AV?$CStringT@DV?$StrTraitMFC_DLL@DV?$ChTraitsCRT@D@ATL@@@@@ATL@@W4HORZSCALEDRAWERTYPE@CScaleBaseData@@HABV23@11@Z$6:
  0002d	8d 4d 10	 lea	 ecx, DWORD PTR $T5[ebp]
  00030	ff 25 00 00 00
	00		 jmp	 DWORD PTR __imp_??1?$CStringT@DV?$StrTraitMFC_DLL@DV?$ChTraitsCRT@D@ATL@@@@@ATL@@QAE@XZ
__unwindfunclet$?GetChangeStringData@CHorzScaleDrawer@@IBE?AV?$CStringT@DV?$StrTraitMFC_DLL@DV?$ChTraitsCRT@D@ATL@@@@@ATL@@W4HORZSCALEDRAWERTYPE@CScaleBaseData@@HABV23@11@Z$7:
  00036	8d 4d 10	 lea	 ecx, DWORD PTR $T4[ebp]
  00039	ff 25 00 00 00
	00		 jmp	 DWORD PTR __imp_??1?$CStringT@DV?$StrTraitMFC_DLL@DV?$ChTraitsCRT@D@ATL@@@@@ATL@@QAE@XZ
  0003f	cc		 int	 3
  00040	cc		 int	 3
  00041	cc		 int	 3
  00042	cc		 int	 3
  00043	cc		 int	 3
__ehhandler$?GetChangeStringData@CHorzScaleDrawer@@IBE?AV?$CStringT@DV?$StrTraitMFC_DLL@DV?$ChTraitsCRT@D@ATL@@@@@ATL@@W4HORZSCALEDRAWERTYPE@CScaleBaseData@@HABV23@11@Z:
  00044	90		 npad	 1
  00045	90		 npad	 1
  00046	8b 54 24 08	 mov	 edx, DWORD PTR [esp+8]
  0004a	8d 42 0c	 lea	 eax, DWORD PTR [edx+12]
  0004d	8b 4a e8	 mov	 ecx, DWORD PTR [edx-24]
  00050	33 c8		 xor	 ecx, eax
  00052	e8 00 00 00 00	 call	 @__security_check_cookie@4
  00057	b8 00 00 00 00	 mov	 eax, OFFSET __ehfuncinfo$?GetChangeStringData@CHorzScaleDrawer@@IBE?AV?$CStringT@DV?$StrTraitMFC_DLL@DV?$ChTraitsCRT@D@ATL@@@@@ATL@@W4HORZSCALEDRAWERTYPE@CScaleBaseData@@HABV23@11@Z
  0005c	e9 00 00 00 00	 jmp	 ___CxxFrameHandler3
text$x	ENDS
?GetChangeStringData@CHorzScaleDrawer@@IBE?AV?$CStringT@DV?$StrTraitMFC_DLL@DV?$ChTraitsCRT@D@ATL@@@@@ATL@@W4HORZSCALEDRAWERTYPE@CScaleBaseData@@HABV23@11@Z ENDP ; CHorzScaleDrawer::GetChangeStringData
; Function compile flags: /Ogtp
; File D:\git\src\IBK\IBK_DRFN\ProjSrc\SrcChartEx\ChartOCX\ScaleDraw\HorzScaleDrawer.cpp
; File C:\Program Files (x86)\Microsoft Visual Studio\2019\Community\VC\Tools\MSVC\14.29.30133\atlmfc\include\atlsimpstr.h
; File D:\git\src\IBK\IBK_DRFN\ProjSrc\SrcChartEx\ChartOCX\ScaleDraw\HorzScaleDrawer.cpp
; File C:\Program Files (x86)\Microsoft Visual Studio\2019\Community\VC\Tools\MSVC\14.29.30133\atlmfc\include\atlsimpstr.h
; File D:\git\src\IBK\IBK_DRFN\ProjSrc\SrcChartEx\ChartOCX\ScaleDraw\HorzScaleDrawer.cpp
; File C:\Program Files (x86)\Microsoft Visual Studio\2019\Community\VC\Tools\MSVC\14.29.30133\atlmfc\include\atlsimpstr.h
; File D:\git\src\IBK\IBK_DRFN\ProjSrc\SrcChartEx\ChartOCX\ScaleDraw\HorzScaleDrawer.cpp
;	COMDAT ?GetChangeNumbericData2@CHorzScaleDrawer@@IBEHHABV?$CStringT@DV?$StrTraitMFC_DLL@DV?$ChTraitsCRT@D@ATL@@@@@ATL@@0@Z
_TEXT	SEGMENT
_this$1$ = -4						; size = 4
_orgData$ = 8						; size = 4
_packetType$ = 12					; size = 4
_trimStr$ = 16						; size = 4
?GetChangeNumbericData2@CHorzScaleDrawer@@IBEHHABV?$CStringT@DV?$StrTraitMFC_DLL@DV?$ChTraitsCRT@D@ATL@@@@@ATL@@0@Z PROC ; CHorzScaleDrawer::GetChangeNumbericData2, COMDAT
; _this$ = ecx

; 177  : {

  00000	55		 push	 ebp
  00001	8b ec		 mov	 ebp, esp
  00003	51		 push	 ecx
; File C:\Program Files (x86)\Microsoft Visual Studio\2019\Community\VC\Tools\MSVC\14.29.30133\atlmfc\include\atlsimpstr.h

; 519  : 		return( GetData()->nDataLength );

  00004	8b 45 10	 mov	 eax, DWORD PTR _trimStr$[ebp]
; File D:\git\src\IBK\IBK_DRFN\ProjSrc\SrcChartEx\ChartOCX\ScaleDraw\HorzScaleDrawer.cpp

; 177  : {

  00007	53		 push	 ebx

; 179  : 	if(trimStr.IsEmpty() || packetType.Find(trimStr) == -1)

  00008	8b 5d 08	 mov	 ebx, DWORD PTR _orgData$[ebp]
  0000b	56		 push	 esi
; File C:\Program Files (x86)\Microsoft Visual Studio\2019\Community\VC\Tools\MSVC\14.29.30133\atlmfc\include\atlsimpstr.h

; 519  : 		return( GetData()->nDataLength );

  0000c	8b 00		 mov	 eax, DWORD PTR [eax]
; File D:\git\src\IBK\IBK_DRFN\ProjSrc\SrcChartEx\ChartOCX\ScaleDraw\HorzScaleDrawer.cpp

; 177  : {

  0000e	57		 push	 edi
  0000f	89 4d fc	 mov	 DWORD PTR _this$1$[ebp], ecx
; File C:\Program Files (x86)\Microsoft Visual Studio\2019\Community\VC\Tools\MSVC\14.29.30133\atlmfc\include\atlsimpstr.h

; 533  : 		return( GetLength() == 0 );

  00012	83 78 f4 00	 cmp	 DWORD PTR [eax-12], 0
; File D:\git\src\IBK\IBK_DRFN\ProjSrc\SrcChartEx\ChartOCX\ScaleDraw\HorzScaleDrawer.cpp

; 179  : 	if(trimStr.IsEmpty() || packetType.Find(trimStr) == -1)

  00016	0f 84 91 00 00
	00		 je	 $LN3@GetChangeN
  0001c	8b 7d 0c	 mov	 edi, DWORD PTR _packetType$[ebp]
  0001f	8b cf		 mov	 ecx, edi
  00021	6a 00		 push	 0
  00023	50		 push	 eax
  00024	ff 15 00 00 00
	00		 call	 DWORD PTR __imp_?Find@?$CStringT@DV?$StrTraitMFC_DLL@DV?$ChTraitsCRT@D@ATL@@@@@ATL@@QBEHPBDH@Z
  0002a	83 f8 ff	 cmp	 eax, -1
  0002d	74 7e		 je	 SHORT $LN3@GetChangeN

; 31   : 	return (packetType.Find('Y') <= 0);

  0002f	6a 00		 push	 0
  00031	6a 59		 push	 89			; 00000059H
  00033	8b cf		 mov	 ecx, edi
  00035	ff 15 00 00 00
	00		 call	 DWORD PTR __imp_?Find@?$CStringT@DV?$StrTraitMFC_DLL@DV?$ChTraitsCRT@D@ATL@@@@@ATL@@QBEHDH@Z
  0003b	8b 37		 mov	 esi, DWORD PTR [edi]

; 180  : 		return orgData;
; 181  : 
; 182  : 	if(IsKoreanStyle(packetType)){

  0003d	8b 76 f4	 mov	 esi, DWORD PTR [esi-12]

; 31   : 	return (packetType.Find('Y') <= 0);

  00040	85 c0		 test	 eax, eax

; 180  : 		return orgData;
; 181  : 
; 182  : 	if(IsKoreanStyle(packetType)){

  00042	7f 30		 jg	 SHORT $LN4@GetChangeN

; 183  : 		int count = packetType.GetLength() - packetType.Find(trimStr);

  00044	8b 45 10	 mov	 eax, DWORD PTR _trimStr$[ebp]
  00047	8b cf		 mov	 ecx, edi
  00049	6a 00		 push	 0
  0004b	ff 30		 push	 DWORD PTR [eax]
  0004d	ff 15 00 00 00
	00		 call	 DWORD PTR __imp_?Find@?$CStringT@DV?$StrTraitMFC_DLL@DV?$ChTraitsCRT@D@ATL@@@@@ATL@@QBEHPBDH@Z
  00053	2b f0		 sub	 esi, eax

; 184  : 		int nData = CMath::Power(10, count);

  00055	56		 push	 esi
  00056	6a 0a		 push	 10			; 0000000aH
  00058	e8 00 00 00 00	 call	 ?Power@CMath@@SAHHH@Z	; CMath::Power
  0005d	8b c8		 mov	 ecx, eax
  0005f	83 c4 08	 add	 esp, 8

; 185  : 		if(nData > 0)

  00062	85 c9		 test	 ecx, ecx
  00064	7e 47		 jle	 SHORT $LN3@GetChangeN

; 186  : 			return orgData/nData;

  00066	8b c3		 mov	 eax, ebx
  00068	5f		 pop	 edi
  00069	99		 cdq

; 194  : 	}
; 195  : 
; 196  : 	return orgData;
; 197  : }

  0006a	5e		 pop	 esi
  0006b	f7 f9		 idiv	 ecx
  0006d	5b		 pop	 ebx
  0006e	8b e5		 mov	 esp, ebp
  00070	5d		 pop	 ebp
  00071	c2 0c 00	 ret	 12			; 0000000cH
$LN4@GetChangeN:

; 187  : 	}
; 188  : 	else{
; 189  : 		int count = packetType.GetLength() - (GetFindEndIndex(packetType, trimStr) +1);

  00074	ff 75 10	 push	 DWORD PTR _trimStr$[ebp]
  00077	8b 4d fc	 mov	 ecx, DWORD PTR _this$1$[ebp]
  0007a	57		 push	 edi
  0007b	e8 00 00 00 00	 call	 ?GetFindEndIndex@CHorzScaleDrawer@@IBEHABV?$CStringT@DV?$StrTraitMFC_DLL@DV?$ChTraitsCRT@D@ATL@@@@@ATL@@0@Z ; CHorzScaleDrawer::GetFindEndIndex
  00080	2b f0		 sub	 esi, eax
  00082	4e		 dec	 esi

; 190  : 		int nPower = CMath::Power(10, count);

  00083	56		 push	 esi
  00084	6a 0a		 push	 10			; 0000000aH
  00086	e8 00 00 00 00	 call	 ?Power@CMath@@SAHHH@Z	; CMath::Power
  0008b	8b c8		 mov	 ecx, eax
  0008d	83 c4 08	 add	 esp, 8

; 191  : 		int nData = orgData/nPower*nPower;

  00090	8b c3		 mov	 eax, ebx
  00092	99		 cdq
  00093	f7 f9		 idiv	 ecx
  00095	8b cb		 mov	 ecx, ebx
  00097	2b ca		 sub	 ecx, edx

; 192  : 		if(nData > 0)

  00099	85 c9		 test	 ecx, ecx
  0009b	7e 10		 jle	 SHORT $LN3@GetChangeN

; 193  : 			return orgData%nData;

  0009d	8b c3		 mov	 eax, ebx
  0009f	99		 cdq
  000a0	f7 f9		 idiv	 ecx
  000a2	5f		 pop	 edi

; 194  : 	}
; 195  : 
; 196  : 	return orgData;
; 197  : }

  000a3	5e		 pop	 esi
  000a4	8b c2		 mov	 eax, edx
  000a6	5b		 pop	 ebx
  000a7	8b e5		 mov	 esp, ebp
  000a9	5d		 pop	 ebp
  000aa	c2 0c 00	 ret	 12			; 0000000cH
$LN3@GetChangeN:
  000ad	5f		 pop	 edi
  000ae	5e		 pop	 esi
  000af	8b c3		 mov	 eax, ebx
  000b1	5b		 pop	 ebx
  000b2	8b e5		 mov	 esp, ebp
  000b4	5d		 pop	 ebp
  000b5	c2 0c 00	 ret	 12			; 0000000cH
?GetChangeNumbericData2@CHorzScaleDrawer@@IBEHHABV?$CStringT@DV?$StrTraitMFC_DLL@DV?$ChTraitsCRT@D@ATL@@@@@ATL@@0@Z ENDP ; CHorzScaleDrawer::GetChangeNumbericData2
_TEXT	ENDS
; Function compile flags: /Ogtp
; File D:\git\src\IBK\IBK_DRFN\ProjSrc\SrcChartEx\ChartOCX\ScaleDraw\HorzScaleDrawer.cpp
; File C:\Program Files (x86)\Microsoft Visual Studio\2019\Community\VC\Tools\MSVC\14.29.30133\atlmfc\include\atlsimpstr.h
; File D:\git\src\IBK\IBK_DRFN\ProjSrc\SrcChartEx\ChartOCX\ScaleDraw\HorzScaleDrawer.cpp
; File C:\Program Files (x86)\Microsoft Visual Studio\2019\Community\VC\Tools\MSVC\14.29.30133\atlmfc\include\atlsimpstr.h
; File D:\git\src\IBK\IBK_DRFN\ProjSrc\SrcChartEx\ChartOCX\ScaleDraw\HorzScaleDrawer.cpp
; File C:\Program Files (x86)\Microsoft Visual Studio\2019\Community\VC\Tools\MSVC\14.29.30133\atlmfc\include\atlsimpstr.h
; File D:\git\src\IBK\IBK_DRFN\ProjSrc\SrcChartEx\ChartOCX\ScaleDraw\HorzScaleDrawer.cpp
;	COMDAT ?GetChangeNumbericData@CHorzScaleDrawer@@IBEHPAVCPacket@@HABV?$CStringT@DV?$StrTraitMFC_DLL@DV?$ChTraitsCRT@D@ATL@@@@@ATL@@1@Z
_TEXT	SEGMENT
_this$1$ = -8						; size = 4
_nData$ = -4						; size = 4
_pPacket$ = 8						; size = 4
_findIndex$ = 12					; size = 4
_packetType$ = 16					; size = 4
_trimStr$ = 20						; size = 4
?GetChangeNumbericData@CHorzScaleDrawer@@IBEHPAVCPacket@@HABV?$CStringT@DV?$StrTraitMFC_DLL@DV?$ChTraitsCRT@D@ATL@@@@@ATL@@1@Z PROC ; CHorzScaleDrawer::GetChangeNumbericData, COMDAT
; _this$ = ecx

; 169  : {

  00000	55		 push	 ebp
  00001	8b ec		 mov	 ebp, esp
  00003	83 ec 08	 sub	 esp, 8
  00006	8b c1		 mov	 eax, ecx

; 170  : 	int nData = 0;

  00008	c7 45 fc 00 00
	00 00		 mov	 DWORD PTR _nData$[ebp], 0

; 171  : 	if(CDrawer::GetDateData(pPacket, findIndex, nData))

  0000f	8d 4d fc	 lea	 ecx, DWORD PTR _nData$[ebp]
  00012	89 45 f8	 mov	 DWORD PTR _this$1$[ebp], eax
  00015	51		 push	 ecx
  00016	ff 75 0c	 push	 DWORD PTR _findIndex$[ebp]
  00019	8d 48 04	 lea	 ecx, DWORD PTR [eax+4]
  0001c	ff 75 08	 push	 DWORD PTR _pPacket$[ebp]
  0001f	e8 00 00 00 00	 call	 ?GetDateData@CDrawer@@IBE_NPAVCPacket@@HAAH@Z ; CDrawer::GetDateData
  00024	84 c0		 test	 al, al
  00026	0f 84 aa 00 00
	00		 je	 $LN2@GetChangeN
; File C:\Program Files (x86)\Microsoft Visual Studio\2019\Community\VC\Tools\MSVC\14.29.30133\atlmfc\include\atlsimpstr.h

; 519  : 		return( GetData()->nDataLength );

  0002c	8b 45 14	 mov	 eax, DWORD PTR _trimStr$[ebp]
; File D:\git\src\IBK\IBK_DRFN\ProjSrc\SrcChartEx\ChartOCX\ScaleDraw\HorzScaleDrawer.cpp

; 172  : 		return GetChangeNumbericData2(nData, packetType, trimStr);

  0002f	53		 push	 ebx
  00030	56		 push	 esi
  00031	57		 push	 edi
; File C:\Program Files (x86)\Microsoft Visual Studio\2019\Community\VC\Tools\MSVC\14.29.30133\atlmfc\include\atlsimpstr.h

; 519  : 		return( GetData()->nDataLength );

  00032	8b 00		 mov	 eax, DWORD PTR [eax]
; File D:\git\src\IBK\IBK_DRFN\ProjSrc\SrcChartEx\ChartOCX\ScaleDraw\HorzScaleDrawer.cpp

; 172  : 		return GetChangeNumbericData2(nData, packetType, trimStr);

  00034	8b 7d fc	 mov	 edi, DWORD PTR _nData$[ebp]
; File C:\Program Files (x86)\Microsoft Visual Studio\2019\Community\VC\Tools\MSVC\14.29.30133\atlmfc\include\atlsimpstr.h

; 533  : 		return( GetLength() == 0 );

  00037	83 78 f4 00	 cmp	 DWORD PTR [eax-12], 0
; File D:\git\src\IBK\IBK_DRFN\ProjSrc\SrcChartEx\ChartOCX\ScaleDraw\HorzScaleDrawer.cpp

; 179  : 	if(trimStr.IsEmpty() || packetType.Find(trimStr) == -1)

  0003b	0f 84 8a 00 00
	00		 je	 $LN6@GetChangeN
  00041	8b 5d 10	 mov	 ebx, DWORD PTR _packetType$[ebp]
  00044	8b cb		 mov	 ecx, ebx
  00046	6a 00		 push	 0
  00048	50		 push	 eax
  00049	ff 15 00 00 00
	00		 call	 DWORD PTR __imp_?Find@?$CStringT@DV?$StrTraitMFC_DLL@DV?$ChTraitsCRT@D@ATL@@@@@ATL@@QBEHPBDH@Z
  0004f	83 f8 ff	 cmp	 eax, -1
  00052	74 77		 je	 SHORT $LN6@GetChangeN

; 31   : 	return (packetType.Find('Y') <= 0);

  00054	6a 00		 push	 0
  00056	6a 59		 push	 89			; 00000059H
  00058	8b cb		 mov	 ecx, ebx
  0005a	ff 15 00 00 00
	00		 call	 DWORD PTR __imp_?Find@?$CStringT@DV?$StrTraitMFC_DLL@DV?$ChTraitsCRT@D@ATL@@@@@ATL@@QBEHDH@Z
  00060	8b 33		 mov	 esi, DWORD PTR [ebx]

; 182  : 	if(IsKoreanStyle(packetType)){

  00062	8b 76 f4	 mov	 esi, DWORD PTR [esi-12]

; 31   : 	return (packetType.Find('Y') <= 0);

  00065	85 c0		 test	 eax, eax

; 182  : 	if(IsKoreanStyle(packetType)){

  00067	7f 32		 jg	 SHORT $LN7@GetChangeN

; 183  : 		int count = packetType.GetLength() - packetType.Find(trimStr);

  00069	8b 45 14	 mov	 eax, DWORD PTR _trimStr$[ebp]
  0006c	8b cb		 mov	 ecx, ebx
  0006e	6a 00		 push	 0
  00070	ff 30		 push	 DWORD PTR [eax]
  00072	ff 15 00 00 00
	00		 call	 DWORD PTR __imp_?Find@?$CStringT@DV?$StrTraitMFC_DLL@DV?$ChTraitsCRT@D@ATL@@@@@ATL@@QBEHPBDH@Z
  00078	2b f0		 sub	 esi, eax

; 184  : 		int nData = CMath::Power(10, count);

  0007a	56		 push	 esi
  0007b	6a 0a		 push	 10			; 0000000aH
  0007d	e8 00 00 00 00	 call	 ?Power@CMath@@SAHHH@Z	; CMath::Power
  00082	8b c8		 mov	 ecx, eax
  00084	83 c4 08	 add	 esp, 8

; 185  : 		if(nData > 0)

  00087	85 c9		 test	 ecx, ecx
  00089	7e 40		 jle	 SHORT $LN6@GetChangeN

; 186  : 			return orgData/nData;

  0008b	8b c7		 mov	 eax, edi
  0008d	99		 cdq
  0008e	f7 f9		 idiv	 ecx
  00090	8b f8		 mov	 edi, eax

; 172  : 		return GetChangeNumbericData2(nData, packetType, trimStr);

  00092	5f		 pop	 edi
  00093	5e		 pop	 esi
  00094	5b		 pop	 ebx

; 174  : }

  00095	8b e5		 mov	 esp, ebp
  00097	5d		 pop	 ebp
  00098	c2 10 00	 ret	 16			; 00000010H
$LN7@GetChangeN:

; 189  : 		int count = packetType.GetLength() - (GetFindEndIndex(packetType, trimStr) +1);

  0009b	ff 75 14	 push	 DWORD PTR _trimStr$[ebp]
  0009e	8b 4d f8	 mov	 ecx, DWORD PTR _this$1$[ebp]
  000a1	53		 push	 ebx
  000a2	e8 00 00 00 00	 call	 ?GetFindEndIndex@CHorzScaleDrawer@@IBEHABV?$CStringT@DV?$StrTraitMFC_DLL@DV?$ChTraitsCRT@D@ATL@@@@@ATL@@0@Z ; CHorzScaleDrawer::GetFindEndIndex
  000a7	2b f0		 sub	 esi, eax
  000a9	4e		 dec	 esi

; 190  : 		int nPower = CMath::Power(10, count);

  000aa	56		 push	 esi
  000ab	6a 0a		 push	 10			; 0000000aH
  000ad	e8 00 00 00 00	 call	 ?Power@CMath@@SAHHH@Z	; CMath::Power
  000b2	8b c8		 mov	 ecx, eax
  000b4	83 c4 08	 add	 esp, 8

; 191  : 		int nData = orgData/nPower*nPower;

  000b7	8b c7		 mov	 eax, edi
  000b9	99		 cdq
  000ba	f7 f9		 idiv	 ecx
  000bc	8b cf		 mov	 ecx, edi
  000be	2b ca		 sub	 ecx, edx

; 192  : 		if(nData > 0)

  000c0	85 c9		 test	 ecx, ecx
  000c2	7e 07		 jle	 SHORT $LN6@GetChangeN

; 193  : 			return orgData%nData;

  000c4	8b c7		 mov	 eax, edi
  000c6	99		 cdq
  000c7	f7 f9		 idiv	 ecx
  000c9	8b fa		 mov	 edi, edx
$LN6@GetChangeN:

; 172  : 		return GetChangeNumbericData2(nData, packetType, trimStr);

  000cb	8b c7		 mov	 eax, edi
  000cd	5f		 pop	 edi
  000ce	5e		 pop	 esi
  000cf	5b		 pop	 ebx

; 174  : }

  000d0	8b e5		 mov	 esp, ebp
  000d2	5d		 pop	 ebp
  000d3	c2 10 00	 ret	 16			; 00000010H
$LN2@GetChangeN:

; 173  : 	return 0;

  000d6	33 c0		 xor	 eax, eax

; 174  : }

  000d8	8b e5		 mov	 esp, ebp
  000da	5d		 pop	 ebp
  000db	c2 10 00	 ret	 16			; 00000010H
?GetChangeNumbericData@CHorzScaleDrawer@@IBEHPAVCPacket@@HABV?$CStringT@DV?$StrTraitMFC_DLL@DV?$ChTraitsCRT@D@ATL@@@@@ATL@@1@Z ENDP ; CHorzScaleDrawer::GetChangeNumbericData
_TEXT	ENDS
; Function compile flags: /Ogtp
; File D:\git\src\IBK\IBK_DRFN\ProjSrc\SrcChartEx\ChartOCX\ScaleDraw\HorzScaleDrawer.cpp
;	COMDAT ?GetHorzScalePosition_x@CHorzScaleDrawer@@IBEHHHABN@Z
_TEXT	SEGMENT
_count$ = 8						; size = 4
_orgPt_x$ = 12						; size = 4
_onePtWidth$ = 16					; size = 4
?GetHorzScalePosition_x@CHorzScaleDrawer@@IBEHHHABN@Z PROC ; CHorzScaleDrawer::GetHorzScalePosition_x, COMDAT
; _this$ = ecx

; 162  : {

  00000	55		 push	 ebp
  00001	8b ec		 mov	 ebp, esp
  00003	66 0f 6e 45 08	 movd	 xmm0, DWORD PTR _count$[ebp]

; 163  : 	return (orgPt_x + CMath::Round(onePtWidth * (double)(count)));

  00008	83 ec 08	 sub	 esp, 8
  0000b	8b 45 10	 mov	 eax, DWORD PTR _onePtWidth$[ebp]
  0000e	f3 0f e6 c0	 cvtdq2pd xmm0, xmm0
  00012	f2 0f 59 00	 mulsd	 xmm0, QWORD PTR [eax]
  00016	f2 0f 11 04 24	 movsd	 QWORD PTR [esp], xmm0
  0001b	e8 00 00 00 00	 call	 ?Round@CMath@@SAHN@Z	; CMath::Round
  00020	83 c4 08	 add	 esp, 8
  00023	03 45 0c	 add	 eax, DWORD PTR _orgPt_x$[ebp]

; 164  : }

  00026	5d		 pop	 ebp
  00027	c2 0c 00	 ret	 12			; 0000000cH
?GetHorzScalePosition_x@CHorzScaleDrawer@@IBEHHHABN@Z ENDP ; CHorzScaleDrawer::GetHorzScalePosition_x
_TEXT	ENDS
; Function compile flags: /Ogtp
; File D:\git\src\IBK\IBK_DRFN\ProjSrc\SrcChartEx\ChartOCX\ScaleDraw\HorzScaleDrawer.cpp
;	COMDAT ?GetStartAndEnd@CHorzScaleDrawer@@IBEXABVCDisplayDataMinMax@@HHAAH1@Z
_TEXT	SEGMENT
tv156 = -8						; size = 8
tv151 = -8						; size = 8
tv143 = -8						; size = 8
_displayDataMinMax$ = 8					; size = 4
_totalCount$ = 12					; size = 4
_nGap$ = 16						; size = 4
_start$ = 20						; size = 4
_end$ = 24						; size = 4
?GetStartAndEnd@CHorzScaleDrawer@@IBEXABVCDisplayDataMinMax@@HHAAH1@Z PROC ; CHorzScaleDrawer::GetStartAndEnd, COMDAT
; _this$ = ecx

; 145  : {

  00000	55		 push	 ebp
  00001	8b ec		 mov	 ebp, esp
  00003	83 ec 08	 sub	 esp, 8

; 146  : 	if(displayDataMinMax.GetDisplayMin() < 0){

  00006	8b 4d 08	 mov	 ecx, DWORD PTR _displayDataMinMax$[ebp]
  00009	56		 push	 esi
  0000a	8b 75 0c	 mov	 esi, DWORD PTR _totalCount$[ebp]
  0000d	57		 push	 edi
  0000e	8b 7d 18	 mov	 edi, DWORD PTR _end$[ebp]
  00011	e8 00 00 00 00	 call	 ?GetDisplayMin@CDisplayDataMinMax@@QBENXZ ; CDisplayDataMinMax::GetDisplayMin
  00016	dd 5d f8	 fstp	 QWORD PTR tv156[ebp]
  00019	0f 57 c0	 xorps	 xmm0, xmm0
  0001c	66 0f 2f 45 f8	 comisd	 xmm0, QWORD PTR tv156[ebp]
  00021	76 52		 jbe	 SHORT $LN2@GetStartAn

; 147  : 		if(nGap > 0){

  00023	53		 push	 ebx
  00024	8b 5d 10	 mov	 ebx, DWORD PTR _nGap$[ebp]
  00027	85 db		 test	 ebx, ebx
  00029	7e 38		 jle	 SHORT $LN4@GetStartAn

; 148  : 			start = (int) displayDataMinMax.GetDisplayMin() / nGap -1;

  0002b	8b 4d 08	 mov	 ecx, DWORD PTR _displayDataMinMax$[ebp]
  0002e	e8 00 00 00 00	 call	 ?GetDisplayMin@CDisplayDataMinMax@@QBENXZ ; CDisplayDataMinMax::GetDisplayMin
  00033	dd 5d f8	 fstp	 QWORD PTR tv151[ebp]
  00036	f2 0f 2c 45 f8	 cvttsd2si eax, QWORD PTR tv151[ebp]

; 149  : 			end = (int) displayDataMinMax.GetDisplayMax() / nGap +1;

  0003b	8b 4d 08	 mov	 ecx, DWORD PTR _displayDataMinMax$[ebp]
  0003e	99		 cdq
  0003f	f7 fb		 idiv	 ebx
  00041	8b 55 14	 mov	 edx, DWORD PTR _start$[ebp]
  00044	48		 dec	 eax
  00045	89 02		 mov	 DWORD PTR [edx], eax
  00047	e8 00 00 00 00	 call	 ?GetDisplayMax@CDisplayDataMinMax@@QBENXZ ; CDisplayDataMinMax::GetDisplayMax
  0004c	dd 5d f8	 fstp	 QWORD PTR tv143[ebp]
  0004f	f2 0f 2c 45 f8	 cvttsd2si eax, QWORD PTR tv143[ebp]
  00054	99		 cdq
  00055	f7 fb		 idiv	 ebx

; 153  : 			end = 0;
; 154  : 		}
; 155  : 	}
; 156  : 	else
; 157  : 		end = totalCount;
; 158  : }

  00057	5b		 pop	 ebx
  00058	40		 inc	 eax
  00059	89 07		 mov	 DWORD PTR [edi], eax
  0005b	5f		 pop	 edi
  0005c	5e		 pop	 esi
  0005d	8b e5		 mov	 esp, ebp
  0005f	5d		 pop	 ebp
  00060	c2 14 00	 ret	 20			; 00000014H
$LN4@GetStartAn:

; 150  : 		}
; 151  : 		else{
; 152  : 			start = totalCount;

  00063	8b 45 14	 mov	 eax, DWORD PTR _start$[ebp]

; 153  : 			end = 0;
; 154  : 		}
; 155  : 	}
; 156  : 	else
; 157  : 		end = totalCount;
; 158  : }

  00066	5b		 pop	 ebx
  00067	89 30		 mov	 DWORD PTR [eax], esi
  00069	33 c0		 xor	 eax, eax
  0006b	89 07		 mov	 DWORD PTR [edi], eax
  0006d	5f		 pop	 edi
  0006e	5e		 pop	 esi
  0006f	8b e5		 mov	 esp, ebp
  00071	5d		 pop	 ebp
  00072	c2 14 00	 ret	 20			; 00000014H
$LN2@GetStartAn:
  00075	89 37		 mov	 DWORD PTR [edi], esi
  00077	5f		 pop	 edi
  00078	5e		 pop	 esi
  00079	8b e5		 mov	 esp, ebp
  0007b	5d		 pop	 ebp
  0007c	c2 14 00	 ret	 20			; 00000014H
?GetStartAndEnd@CHorzScaleDrawer@@IBEXABVCDisplayDataMinMax@@HHAAH1@Z ENDP ; CHorzScaleDrawer::GetStartAndEnd
_TEXT	ENDS
; Function compile flags: /Ogtp
; File D:\git\src\IBK\IBK_DRFN\ProjSrc\SrcChartEx\ChartOCX\ScaleDraw\HorzScaleDrawer.cpp
; File D:\git\src\IBK\IBK_DRFN\ProjSrc\SrcChartEx\ChartOCX\Include_Chart\Conversion.h
; File D:\git\src\IBK\IBK_DRFN\ProjSrc\SrcChartEx\ChartOCX\ScaleDraw\HorzScaleDrawer.cpp
; File D:\git\src\IBK\IBK_DRFN\ProjSrc\SrcChartEx\ChartOCX\Include_Chart\Conversion.h
; File D:\git\src\IBK\IBK_DRFN\ProjSrc\SrcChartEx\ChartOCX\ScaleDraw\HorzScaleDrawer.cpp
; File D:\git\src\IBK\IBK_DRFN\ProjSrc\SrcChartEx\ChartOCX\Include_Chart\Conversion.h
; File D:\git\src\IBK\IBK_DRFN\ProjSrc\SrcChartEx\ChartOCX\ScaleDraw\HorzScaleDrawer.cpp
; File C:\Program Files (x86)\Microsoft Visual Studio\2019\Community\VC\Tools\MSVC\14.29.30133\atlmfc\include\afxwin1.inl
; File C:\Program Files (x86)\Microsoft Visual Studio\2019\Community\VC\Tools\MSVC\14.29.30133\atlmfc\include\atltypes.h
; File D:\git\src\IBK\IBK_DRFN\ProjSrc\SrcChartEx\ChartOCX\ScaleDraw\HorzScaleDrawer.cpp
;	COMDAT ?GetDrawingEnvironment@CHorzScaleDrawer@@IBE_NPAVCDC@@PAVCPacket@@ABVCRect@@ABVCDisplayDataMinMax@@ABNAAH5AANAA_N_N@Z
_TEXT	SEGMENT
$T2 = -36						; size = 8
$T3 = -28						; size = 12
tv337 = -24						; size = 8
_size$4 = -24						; size = 8
$T5 = -24						; size = 8
$T6 = -16						; size = 4
__$EHRec$ = -12						; size = 12
_pDC$ = 8						; size = 4
_strData$ = 12						; size = 4
_pPacket$ = 12						; size = 4
_scaleTextRegion$ = 16					; size = 4
_strPacketType$ = 20					; size = 4
_displayDataMinMax$ = 20				; size = 4
_dOnPtWidth$ = 24					; size = 4
_start$ = 28						; size = 4
_end$ = 32						; size = 4
_dGap$ = 36						; size = 4
_bround$ = 40						; size = 4
_bstand$ = 44						; size = 1
?GetDrawingEnvironment@CHorzScaleDrawer@@IBE_NPAVCDC@@PAVCPacket@@ABVCRect@@ABVCDisplayDataMinMax@@ABNAAH5AANAA_N_N@Z PROC ; CHorzScaleDrawer::GetDrawingEnvironment, COMDAT
; _this$ = ecx

; 121  : {

  00000	55		 push	 ebp
  00001	8b ec		 mov	 ebp, esp
  00003	6a ff		 push	 -1
  00005	68 00 00 00 00	 push	 __ehhandler$?GetDrawingEnvironment@CHorzScaleDrawer@@IBE_NPAVCDC@@PAVCPacket@@ABVCRect@@ABVCDisplayDataMinMax@@ABNAAH5AANAA_N_N@Z
  0000a	64 a1 00 00 00
	00		 mov	 eax, DWORD PTR fs:0
  00010	50		 push	 eax
  00011	83 ec 18	 sub	 esp, 24			; 00000018H
  00014	53		 push	 ebx
  00015	56		 push	 esi
  00016	57		 push	 edi
  00017	a1 00 00 00 00	 mov	 eax, DWORD PTR ___security_cookie
  0001c	33 c5		 xor	 eax, ebp
  0001e	50		 push	 eax
  0001f	8d 45 f4	 lea	 eax, DWORD PTR __$EHRec$[ebp]
  00022	64 a3 00 00 00
	00		 mov	 DWORD PTR fs:0, eax
  00028	8b d9		 mov	 ebx, ecx

; 122  : 	if(pPacket == NULL || displayDataMinMax.GetCount() == 0)

  0002a	8b 7d 0c	 mov	 edi, DWORD PTR _pPacket$[ebp]
  0002d	85 ff		 test	 edi, edi
  0002f	0f 84 28 01 00
	00		 je	 $LN3@GetDrawing
  00035	8b 75 14	 mov	 esi, DWORD PTR _displayDataMinMax$[ebp]
  00038	8b ce		 mov	 ecx, esi
  0003a	e8 00 00 00 00	 call	 ?GetCount@CDisplayDataMinMax@@QBENXZ ; CDisplayDataMinMax::GetCount
  0003f	dd 5d e8	 fstp	 QWORD PTR tv337[ebp]
  00042	f2 0f 10 45 e8	 movsd	 xmm0, QWORD PTR tv337[ebp]
  00047	66 0f 2e 05 00
	00 00 00	 ucomisd xmm0, QWORD PTR __real@0000000000000000
  0004f	9f		 lahf
  00050	f6 c4 44	 test	 ah, 68			; 00000044H
  00053	0f 8b 04 01 00
	00		 jnp	 $LN3@GetDrawing

; 124  : 
; 125  : 	CString strPacketType = CDrawer::GetPacketDataType(pPacket);

  00059	57		 push	 edi
  0005a	8d 4d 14	 lea	 ecx, DWORD PTR _strPacketType$[ebp]
  0005d	51		 push	 ecx
  0005e	8d 4b 04	 lea	 ecx, DWORD PTR [ebx+4]
  00061	e8 00 00 00 00	 call	 ?GetPacketDataType@CDrawer@@IBE?AV?$CStringT@DV?$StrTraitMFC_DLL@DV?$ChTraitsCRT@D@ATL@@@@@ATL@@PAVCPacket@@@Z ; CDrawer::GetPacketDataType

; 126  : 	CString strData = CDataConversion::DoubleToString(displayDataMinMax.GetDisplayMax());

  00066	8b ce		 mov	 ecx, esi
  00068	c7 45 fc 00 00
	00 00		 mov	 DWORD PTR __$EHRec$[ebp+8], 0
  0006f	e8 00 00 00 00	 call	 ?GetDisplayMax@CDisplayDataMinMax@@QBENXZ ; CDisplayDataMinMax::GetDisplayMax
  00074	8d 45 dc	 lea	 eax, DWORD PTR $T2[ebp]
  00077	50		 push	 eax
  00078	8d 45 0c	 lea	 eax, DWORD PTR _strData$[ebp]
  0007b	50		 push	 eax
  0007c	dd 5d dc	 fstp	 QWORD PTR $T2[ebp]
  0007f	e8 00 00 00 00	 call	 ?DoubleToString@CDataConversion@@SA?AV?$CStringT@DV?$StrTraitMFC_DLL@DV?$ChTraitsCRT@D@ATL@@@@@ATL@@ABN@Z ; CDataConversion::DoubleToString
  00084	83 c4 08	 add	 esp, 8
; File D:\git\src\IBK\IBK_DRFN\ProjSrc\SrcChartEx\ChartOCX\Include_Chart\Conversion.h

; 27   : 		{	m_hOcxWnd = p_hOcxWnd;	m_eChartMode = p_eChartMode;	}

  00087	8b 43 04	 mov	 eax, DWORD PTR [ebx+4]
; File D:\git\src\IBK\IBK_DRFN\ProjSrc\SrcChartEx\ChartOCX\ScaleDraw\HorzScaleDrawer.cpp

; 127  : 	strData = CDataConversion( m_hOcxWnd, m_eChartMode).GetStringFormatTrans(strData, strPacketType);

  0008a	8b 4b 08	 mov	 ecx, DWORD PTR [ebx+8]
; File D:\git\src\IBK\IBK_DRFN\ProjSrc\SrcChartEx\ChartOCX\Include_Chart\Conversion.h

; 27   : 		{	m_hOcxWnd = p_hOcxWnd;	m_eChartMode = p_eChartMode;	}

  0008d	89 45 e8	 mov	 DWORD PTR $T5[ebp], eax
; File D:\git\src\IBK\IBK_DRFN\ProjSrc\SrcChartEx\ChartOCX\ScaleDraw\HorzScaleDrawer.cpp

; 127  : 	strData = CDataConversion( m_hOcxWnd, m_eChartMode).GetStringFormatTrans(strData, strPacketType);

  00090	8d 45 14	 lea	 eax, DWORD PTR _strPacketType$[ebp]
  00093	50		 push	 eax
  00094	8d 45 0c	 lea	 eax, DWORD PTR _strData$[ebp]
; File D:\git\src\IBK\IBK_DRFN\ProjSrc\SrcChartEx\ChartOCX\Include_Chart\Conversion.h

; 27   : 		{	m_hOcxWnd = p_hOcxWnd;	m_eChartMode = p_eChartMode;	}

  00097	89 4d ec	 mov	 DWORD PTR $T5[ebp+4], ecx
; File D:\git\src\IBK\IBK_DRFN\ProjSrc\SrcChartEx\ChartOCX\ScaleDraw\HorzScaleDrawer.cpp

; 127  : 	strData = CDataConversion( m_hOcxWnd, m_eChartMode).GetStringFormatTrans(strData, strPacketType);

  0009a	50		 push	 eax
  0009b	8d 45 f0	 lea	 eax, DWORD PTR $T6[ebp]
  0009e	c6 45 fc 01	 mov	 BYTE PTR __$EHRec$[ebp+8], 1
  000a2	50		 push	 eax
  000a3	8d 4d e8	 lea	 ecx, DWORD PTR $T5[ebp]
  000a6	e8 00 00 00 00	 call	 ?GetStringFormatTrans@CDataConversion@@QAE?AV?$CStringT@DV?$StrTraitMFC_DLL@DV?$ChTraitsCRT@D@ATL@@@@@ATL@@ABV23@0@Z ; CDataConversion::GetStringFormatTrans
  000ab	50		 push	 eax
  000ac	8d 4d 0c	 lea	 ecx, DWORD PTR _strData$[ebp]
  000af	c6 45 fc 02	 mov	 BYTE PTR __$EHRec$[ebp+8], 2
  000b3	ff 15 00 00 00
	00		 call	 DWORD PTR __imp_??4?$CStringT@DV?$StrTraitMFC_DLL@DV?$ChTraitsCRT@D@ATL@@@@@ATL@@QAEAAV01@ABV01@@Z
  000b9	8d 4d f0	 lea	 ecx, DWORD PTR $T6[ebp]
  000bc	c6 45 fc 01	 mov	 BYTE PTR __$EHRec$[ebp+8], 1
  000c0	ff 15 00 00 00
	00		 call	 DWORD PTR __imp_??1?$CStringT@DV?$StrTraitMFC_DLL@DV?$ChTraitsCRT@D@ATL@@@@@ATL@@QAE@XZ
; File C:\Program Files (x86)\Microsoft Visual Studio\2019\Community\VC\Tools\MSVC\14.29.30133\atlmfc\include\afxwin1.inl

; 639  : 		VERIFY(::GetTextExtentPoint32(m_hAttribDC, str, (int)str.GetLength(), &size));

  000c6	8d 45 e8	 lea	 eax, DWORD PTR _size$4[ebp]
  000c9	50		 push	 eax
  000ca	8b 45 0c	 mov	 eax, DWORD PTR _strData$[ebp]
  000cd	ff 70 f4	 push	 DWORD PTR [eax-12]
  000d0	50		 push	 eax
  000d1	8b 45 08	 mov	 eax, DWORD PTR _pDC$[ebp]
  000d4	ff 70 08	 push	 DWORD PTR [eax+8]
  000d7	ff 15 00 00 00
	00		 call	 DWORD PTR __imp__GetTextExtentPoint32A@16
; File C:\Program Files (x86)\Microsoft Visual Studio\2019\Community\VC\Tools\MSVC\14.29.30133\atlmfc\include\atltypes.h

; 576  : 	return right - left;

  000dd	8b 45 10	 mov	 eax, DWORD PTR _scaleTextRegion$[ebp]
  000e0	8b 78 08	 mov	 edi, DWORD PTR [eax+8]
  000e3	2b 38		 sub	 edi, DWORD PTR [eax]
; File D:\git\src\IBK\IBK_DRFN\ProjSrc\SrcChartEx\ChartOCX\ScaleDraw\HorzScaleDrawer.cpp

; 130  : 	int totalCount = scaleTextRegion.Width() / (size.cx * 2);

  000e5	8b 45 e8	 mov	 eax, DWORD PTR _size$4[ebp]
  000e8	8d 0c 00	 lea	 ecx, DWORD PTR [eax+eax]
  000eb	8b c7		 mov	 eax, edi
  000ed	99		 cdq
  000ee	f7 f9		 idiv	 ecx

; 131  : 	if(bstand)

  000f0	80 7d 2c 00	 cmp	 BYTE PTR _bstand$[ebp], 0
  000f4	74 0a		 je	 SHORT $LN4@GetDrawing

; 132  : 		totalCount = scaleTextRegion.Width() / (size.cy * 2);

  000f6	8b 4d ec	 mov	 ecx, DWORD PTR _size$4[ebp+4]
  000f9	8b c7		 mov	 eax, edi
  000fb	03 c9		 add	 ecx, ecx
  000fd	99		 cdq
  000fe	f7 f9		 idiv	 ecx
$LN4@GetDrawing:

; 133  : 	if(totalCount <= 0)

  00100	85 c0		 test	 eax, eax
  00102	7e 2f		 jle	 SHORT $LN11@GetDrawing

; 134  : 		return false;
; 135  : 
; 136  : 	if( !CVertScaleDrawer( m_hOcxWnd, m_eChartMode).GetDrawingEnvironment(displayDataMinMax, strPacketType, 

  00104	ff 75 28	 push	 DWORD PTR _bround$[ebp]
  00107	8d 4d e4	 lea	 ecx, DWORD PTR $T3[ebp]
  0010a	ff 75 20	 push	 DWORD PTR _end$[ebp]
  0010d	ff 75 1c	 push	 DWORD PTR _start$[ebp]
  00110	ff 75 24	 push	 DWORD PTR _dGap$[ebp]
  00113	50		 push	 eax
  00114	8d 45 14	 lea	 eax, DWORD PTR _strPacketType$[ebp]
  00117	50		 push	 eax
  00118	56		 push	 esi
  00119	ff 73 08	 push	 DWORD PTR [ebx+8]
  0011c	ff 73 04	 push	 DWORD PTR [ebx+4]
  0011f	e8 00 00 00 00	 call	 ??0CVertScaleDrawer@@QAE@PAUHWND__@@W4CHART_MODE@CChartInfo@@@Z ; CVertScaleDrawer::CVertScaleDrawer
  00124	8b c8		 mov	 ecx, eax
  00126	e8 00 00 00 00	 call	 ?GetDrawingEnvironment@CVertScaleDrawer@@QBE_NABVCDisplayDataMinMax@@ABV?$CStringT@DV?$StrTraitMFC_DLL@DV?$ChTraitsCRT@D@ATL@@@@@ATL@@HAANAAH3AA_N@Z ; CVertScaleDrawer::GetDrawingEnvironment
  0012b	84 c0		 test	 al, al
  0012d	74 04		 je	 SHORT $LN11@GetDrawing

; 137  : 		totalCount, dGap, start, end, bround))
; 138  : 		return false;
; 139  : 
; 140  : 	dGap = GetGap(pDC, pPacket, scaleTextRegion, displayDataMinMax, dOnPtWidth, dGap);
; 141  : 	return true;

  0012f	b3 01		 mov	 bl, 1
  00131	eb 02		 jmp	 SHORT $LN12@GetDrawing
$LN11@GetDrawing:
  00133	32 db		 xor	 bl, bl
$LN12@GetDrawing:
  00135	8d 4d 0c	 lea	 ecx, DWORD PTR _strData$[ebp]
  00138	ff 15 00 00 00
	00		 call	 DWORD PTR __imp_??1?$CStringT@DV?$StrTraitMFC_DLL@DV?$ChTraitsCRT@D@ATL@@@@@ATL@@QAE@XZ
  0013e	8d 4d 14	 lea	 ecx, DWORD PTR _strPacketType$[ebp]
  00141	ff 15 00 00 00
	00		 call	 DWORD PTR __imp_??1?$CStringT@DV?$StrTraitMFC_DLL@DV?$ChTraitsCRT@D@ATL@@@@@ATL@@QAE@XZ
  00147	8a c3		 mov	 al, bl

; 142  : }

  00149	8b 4d f4	 mov	 ecx, DWORD PTR __$EHRec$[ebp]
  0014c	64 89 0d 00 00
	00 00		 mov	 DWORD PTR fs:0, ecx
  00153	59		 pop	 ecx
  00154	5f		 pop	 edi
  00155	5e		 pop	 esi
  00156	5b		 pop	 ebx
  00157	8b e5		 mov	 esp, ebp
  00159	5d		 pop	 ebp
  0015a	c2 28 00	 ret	 40			; 00000028H
$LN3@GetDrawing:

; 123  : 		return false;

  0015d	32 c0		 xor	 al, al

; 142  : }

  0015f	8b 4d f4	 mov	 ecx, DWORD PTR __$EHRec$[ebp]
  00162	64 89 0d 00 00
	00 00		 mov	 DWORD PTR fs:0, ecx
  00169	59		 pop	 ecx
  0016a	5f		 pop	 edi
  0016b	5e		 pop	 esi
  0016c	5b		 pop	 ebx
  0016d	8b e5		 mov	 esp, ebp
  0016f	5d		 pop	 ebp
  00170	c2 28 00	 ret	 40			; 00000028H
_TEXT	ENDS
;	COMDAT text$x
text$x	SEGMENT
__unwindfunclet$?GetDrawingEnvironment@CHorzScaleDrawer@@IBE_NPAVCDC@@PAVCPacket@@ABVCRect@@ABVCDisplayDataMinMax@@ABNAAH5AANAA_N_N@Z$0:
  00000	8d 4d 14	 lea	 ecx, DWORD PTR _strPacketType$[ebp]
  00003	ff 25 00 00 00
	00		 jmp	 DWORD PTR __imp_??1?$CStringT@DV?$StrTraitMFC_DLL@DV?$ChTraitsCRT@D@ATL@@@@@ATL@@QAE@XZ
__unwindfunclet$?GetDrawingEnvironment@CHorzScaleDrawer@@IBE_NPAVCDC@@PAVCPacket@@ABVCRect@@ABVCDisplayDataMinMax@@ABNAAH5AANAA_N_N@Z$1:
  00009	8d 4d 0c	 lea	 ecx, DWORD PTR _strData$[ebp]
  0000c	ff 25 00 00 00
	00		 jmp	 DWORD PTR __imp_??1?$CStringT@DV?$StrTraitMFC_DLL@DV?$ChTraitsCRT@D@ATL@@@@@ATL@@QAE@XZ
__unwindfunclet$?GetDrawingEnvironment@CHorzScaleDrawer@@IBE_NPAVCDC@@PAVCPacket@@ABVCRect@@ABVCDisplayDataMinMax@@ABNAAH5AANAA_N_N@Z$2:
  00012	8d 4d f0	 lea	 ecx, DWORD PTR $T6[ebp]
  00015	ff 25 00 00 00
	00		 jmp	 DWORD PTR __imp_??1?$CStringT@DV?$StrTraitMFC_DLL@DV?$ChTraitsCRT@D@ATL@@@@@ATL@@QAE@XZ
  0001b	cc		 int	 3
  0001c	cc		 int	 3
  0001d	cc		 int	 3
  0001e	cc		 int	 3
  0001f	cc		 int	 3
__ehhandler$?GetDrawingEnvironment@CHorzScaleDrawer@@IBE_NPAVCDC@@PAVCPacket@@ABVCRect@@ABVCDisplayDataMinMax@@ABNAAH5AANAA_N_N@Z:
  00020	90		 npad	 1
  00021	90		 npad	 1
  00022	8b 54 24 08	 mov	 edx, DWORD PTR [esp+8]
  00026	8d 42 0c	 lea	 eax, DWORD PTR [edx+12]
  00029	8b 4a d8	 mov	 ecx, DWORD PTR [edx-40]
  0002c	33 c8		 xor	 ecx, eax
  0002e	e8 00 00 00 00	 call	 @__security_check_cookie@4
  00033	b8 00 00 00 00	 mov	 eax, OFFSET __ehfuncinfo$?GetDrawingEnvironment@CHorzScaleDrawer@@IBE_NPAVCDC@@PAVCPacket@@ABVCRect@@ABVCDisplayDataMinMax@@ABNAAH5AANAA_N_N@Z
  00038	e9 00 00 00 00	 jmp	 ___CxxFrameHandler3
text$x	ENDS
?GetDrawingEnvironment@CHorzScaleDrawer@@IBE_NPAVCDC@@PAVCPacket@@ABVCRect@@ABVCDisplayDataMinMax@@ABNAAH5AANAA_N_N@Z ENDP ; CHorzScaleDrawer::GetDrawingEnvironment
; Function compile flags: /Ogtp
; File D:\git\src\IBK\IBK_DRFN\ProjSrc\SrcChartEx\ChartOCX\ScaleDraw\HorzScaleDrawer.cpp
; File C:\Program Files (x86)\Microsoft Visual Studio\2019\Community\VC\Tools\MSVC\14.29.30133\atlmfc\include\atltypes.h
; File D:\git\src\IBK\IBK_DRFN\ProjSrc\SrcChartEx\ChartOCX\ScaleDraw\HorzScaleDrawer.cpp
; File C:\Program Files (x86)\Microsoft Visual Studio\2019\Community\VC\Tools\MSVC\14.29.30133\atlmfc\include\atltypes.h
; File D:\git\src\IBK\IBK_DRFN\ProjSrc\SrcChartEx\ChartOCX\ScaleDraw\HorzScaleDrawer.cpp
; File C:\Program Files (x86)\Microsoft Visual Studio\2019\Community\VC\Tools\MSVC\14.29.30133\atlmfc\include\atltypes.h
; File D:\git\src\IBK\IBK_DRFN\ProjSrc\SrcChartEx\ChartOCX\ScaleDraw\HorzScaleDrawer.cpp
; File C:\Program Files (x86)\Microsoft Visual Studio\2019\Community\VC\Tools\MSVC\14.29.30133\atlmfc\include\atltypes.h
; File D:\git\src\IBK\IBK_DRFN\ProjSrc\SrcChartEx\ChartOCX\ScaleDraw\HorzScaleDrawer.cpp
;	COMDAT ?GetDrawingEnvironment@CHorzScaleDrawer@@IBEXABVCRect@@0ABVCDisplayAttributes@@HAANAAH3@Z
_TEXT	SEGMENT
_region1$ = 8						; size = 4
_region2$ = 12						; size = 4
_displayAttributes$ = 16				; size = 4
_textHeight$ = 20					; size = 4
_onePtWidth$ = 24					; size = 4
_posPt_y1$ = 28						; size = 4
_posPt_y2$ = 32						; size = 4
?GetDrawingEnvironment@CHorzScaleDrawer@@IBEXABVCRect@@0ABVCDisplayAttributes@@HAANAAH3@Z PROC ; CHorzScaleDrawer::GetDrawingEnvironment, COMDAT
; _this$ = ecx

; 62   : {

  00000	55		 push	 ebp
  00001	8b ec		 mov	 ebp, esp
  00003	53		 push	 ebx
; File C:\Program Files (x86)\Microsoft Visual Studio\2019\Community\VC\Tools\MSVC\14.29.30133\atlmfc\include\atltypes.h

; 576  : 	return right - left;

  00004	8b 5d 08	 mov	 ebx, DWORD PTR _region1$[ebp]
; File D:\git\src\IBK\IBK_DRFN\ProjSrc\SrcChartEx\ChartOCX\ScaleDraw\HorzScaleDrawer.cpp

; 62   : {

  00007	56		 push	 esi
  00008	57		 push	 edi
  00009	8b f9		 mov	 edi, ecx

; 63   : 	onePtWidth = CDrawer::GetOnePointWidth(region1.Width(), displayAttributes.GetDataCountInBlock());

  0000b	8b 4d 10	 mov	 ecx, DWORD PTR _displayAttributes$[ebp]
; File C:\Program Files (x86)\Microsoft Visual Studio\2019\Community\VC\Tools\MSVC\14.29.30133\atlmfc\include\atltypes.h

; 576  : 	return right - left;

  0000e	8b 73 08	 mov	 esi, DWORD PTR [ebx+8]
  00011	2b 33		 sub	 esi, DWORD PTR [ebx]
; File D:\git\src\IBK\IBK_DRFN\ProjSrc\SrcChartEx\ChartOCX\ScaleDraw\HorzScaleDrawer.cpp

; 63   : 	onePtWidth = CDrawer::GetOnePointWidth(region1.Width(), displayAttributes.GetDataCountInBlock());

  00013	e8 00 00 00 00	 call	 ?GetDataCountInBlock@CDisplayAttributes@@QBEHXZ ; CDisplayAttributes::GetDataCountInBlock
  00018	50		 push	 eax
  00019	56		 push	 esi
  0001a	8d 4f 04	 lea	 ecx, DWORD PTR [edi+4]
  0001d	e8 00 00 00 00	 call	 ?GetOnePointWidth@CDrawer@@IBENHH@Z ; CDrawer::GetOnePointWidth
  00022	8b 45 18	 mov	 eax, DWORD PTR _onePtWidth$[ebp]

; 358  : 	if(orgHight > (textHeight +3)){

  00025	8b 7d 14	 mov	 edi, DWORD PTR _textHeight$[ebp]

; 63   : 	onePtWidth = CDrawer::GetOnePointWidth(region1.Width(), displayAttributes.GetDataCountInBlock());

  00028	dd 18		 fstp	 QWORD PTR [eax]
; File C:\Program Files (x86)\Microsoft Visual Studio\2019\Community\VC\Tools\MSVC\14.29.30133\atlmfc\include\atltypes.h

; 581  : 	return bottom - top;

  0002a	8b 73 0c	 mov	 esi, DWORD PTR [ebx+12]
  0002d	8b 4b 04	 mov	 ecx, DWORD PTR [ebx+4]
  00030	2b f1		 sub	 esi, ecx
; File D:\git\src\IBK\IBK_DRFN\ProjSrc\SrcChartEx\ChartOCX\ScaleDraw\HorzScaleDrawer.cpp

; 358  : 	if(orgHight > (textHeight +3)){

  00032	8d 5f 03	 lea	 ebx, DWORD PTR [edi+3]
  00035	3b f3		 cmp	 esi, ebx
  00037	7e 19		 jle	 SHORT $LN8@GetDrawing

; 359  : 		if(orgHight/2 >= textHeight){

  00039	8b c6		 mov	 eax, esi
  0003b	2b c7		 sub	 eax, edi
  0003d	99		 cdq
  0003e	2b c2		 sub	 eax, edx
  00040	d1 f8		 sar	 eax, 1
  00042	03 c8		 add	 ecx, eax
  00044	8b c6		 mov	 eax, esi
  00046	99		 cdq
  00047	2b c2		 sub	 eax, edx
  00049	d1 f8		 sar	 eax, 1
  0004b	3b c7		 cmp	 eax, edi
  0004d	7d 03		 jge	 SHORT $LN8@GetDrawing

; 360  : 			//return (org_y + (orgHight/2 - textHeight)/2);
; 361  : 			return (org_y + (orgHight - textHeight)/2);
; 362  : 		}
; 363  : 		return (org_y + (orgHight - textHeight)/2 +3);

  0004f	83 c1 03	 add	 ecx, 3
$LN8@GetDrawing:

; 64   : 	posPt_y1 = GetHorzScalePosition_y(region1.top, region1.Height(), textHeight);

  00052	8b 45 1c	 mov	 eax, DWORD PTR _posPt_y1$[ebp]
  00055	89 08		 mov	 DWORD PTR [eax], ecx
; File C:\Program Files (x86)\Microsoft Visual Studio\2019\Community\VC\Tools\MSVC\14.29.30133\atlmfc\include\atltypes.h

; 581  : 	return bottom - top;

  00057	8b 45 0c	 mov	 eax, DWORD PTR _region2$[ebp]
  0005a	8b 48 0c	 mov	 ecx, DWORD PTR [eax+12]
  0005d	8b 70 04	 mov	 esi, DWORD PTR [eax+4]
  00060	2b ce		 sub	 ecx, esi
; File D:\git\src\IBK\IBK_DRFN\ProjSrc\SrcChartEx\ChartOCX\ScaleDraw\HorzScaleDrawer.cpp

; 358  : 	if(orgHight > (textHeight +3)){

  00062	3b cb		 cmp	 ecx, ebx
  00064	7e 25		 jle	 SHORT $LN14@GetDrawing

; 359  : 		if(orgHight/2 >= textHeight){

  00066	8b c1		 mov	 eax, ecx
  00068	2b c7		 sub	 eax, edi
  0006a	99		 cdq
  0006b	2b c2		 sub	 eax, edx
  0006d	d1 f8		 sar	 eax, 1
  0006f	03 f0		 add	 esi, eax
  00071	8b c1		 mov	 eax, ecx
  00073	99		 cdq
  00074	2b c2		 sub	 eax, edx
  00076	d1 f8		 sar	 eax, 1
  00078	3b c7		 cmp	 eax, edi
  0007a	8b 45 20	 mov	 eax, DWORD PTR _posPt_y2$[ebp]
  0007d	7d 0f		 jge	 SHORT $LN17@GetDrawing
  0007f	5f		 pop	 edi

; 360  : 			//return (org_y + (orgHight/2 - textHeight)/2);
; 361  : 			return (org_y + (orgHight - textHeight)/2);
; 362  : 		}
; 363  : 		return (org_y + (orgHight - textHeight)/2 +3);

  00080	8d 4e 03	 lea	 ecx, DWORD PTR [esi+3]

; 66   : }

  00083	5e		 pop	 esi
  00084	89 08		 mov	 DWORD PTR [eax], ecx
  00086	5b		 pop	 ebx
  00087	5d		 pop	 ebp
  00088	c2 1c 00	 ret	 28			; 0000001cH
$LN14@GetDrawing:

; 65   : 	posPt_y2 = GetHorzScalePosition_y(region2.top, region2.Height(), textHeight);

  0008b	8b 45 20	 mov	 eax, DWORD PTR _posPt_y2$[ebp]
$LN17@GetDrawing:
  0008e	5f		 pop	 edi

; 66   : }

  0008f	89 30		 mov	 DWORD PTR [eax], esi
  00091	5e		 pop	 esi
  00092	5b		 pop	 ebx
  00093	5d		 pop	 ebp
  00094	c2 1c 00	 ret	 28			; 0000001cH
?GetDrawingEnvironment@CHorzScaleDrawer@@IBEXABVCRect@@0ABVCDisplayAttributes@@HAANAAH3@Z ENDP ; CHorzScaleDrawer::GetDrawingEnvironment
_TEXT	ENDS
; Function compile flags: /Ogtp
; File D:\git\src\IBK\IBK_DRFN\ProjSrc\SrcChartEx\ChartOCX\ScaleDraw\HorzScaleDrawer.cpp
; File C:\Program Files (x86)\Microsoft Visual Studio\2019\Community\VC\Tools\MSVC\14.29.30133\atlmfc\include\atltypes.h
; File D:\git\src\IBK\IBK_DRFN\ProjSrc\SrcChartEx\ChartOCX\ScaleDraw\HorzScaleDrawer.cpp
; File C:\Program Files (x86)\Microsoft Visual Studio\2019\Community\VC\Tools\MSVC\14.29.30133\atlmfc\include\atltypes.h
; File D:\git\src\IBK\IBK_DRFN\ProjSrc\SrcChartEx\ChartOCX\ScaleDraw\HorzScaleDrawer.cpp
; File C:\Program Files (x86)\Microsoft Visual Studio\2019\Community\VC\Tools\MSVC\14.29.30133\atlmfc\include\atltypes.h
; File D:\git\src\IBK\IBK_DRFN\ProjSrc\SrcChartEx\ChartOCX\ScaleDraw\HorzScaleDrawer.cpp
; File C:\Program Files (x86)\Microsoft Visual Studio\2019\Community\VC\Tools\MSVC\14.29.30133\atlmfc\include\atltypes.h
; File D:\git\src\IBK\IBK_DRFN\ProjSrc\SrcChartEx\ChartOCX\ScaleDraw\HorzScaleDrawer.cpp
;	COMDAT ?GetDrawingEnvironment@CHorzScaleDrawer@@IBEXABVCRect@@ABVCDisplayAttributes@@HAANAAH@Z
_TEXT	SEGMENT
_region$ = 8						; size = 4
_displayAttributes$ = 12				; size = 4
_textHeight$ = 16					; size = 4
_onePtWidth$ = 20					; size = 4
_posPt_y$ = 24						; size = 4
?GetDrawingEnvironment@CHorzScaleDrawer@@IBEXABVCRect@@ABVCDisplayAttributes@@HAANAAH@Z PROC ; CHorzScaleDrawer::GetDrawingEnvironment, COMDAT
; _this$ = ecx

; 55   : {

  00000	55		 push	 ebp
  00001	8b ec		 mov	 ebp, esp
  00003	53		 push	 ebx
; File C:\Program Files (x86)\Microsoft Visual Studio\2019\Community\VC\Tools\MSVC\14.29.30133\atlmfc\include\atltypes.h

; 576  : 	return right - left;

  00004	8b 5d 08	 mov	 ebx, DWORD PTR _region$[ebp]
; File D:\git\src\IBK\IBK_DRFN\ProjSrc\SrcChartEx\ChartOCX\ScaleDraw\HorzScaleDrawer.cpp

; 55   : {

  00007	56		 push	 esi
  00008	57		 push	 edi
  00009	8b f9		 mov	 edi, ecx

; 56   : 	onePtWidth = CDrawer::GetOnePointWidth(region.Width(), displayAttributes.GetDataCountInBlock());

  0000b	8b 4d 0c	 mov	 ecx, DWORD PTR _displayAttributes$[ebp]
; File C:\Program Files (x86)\Microsoft Visual Studio\2019\Community\VC\Tools\MSVC\14.29.30133\atlmfc\include\atltypes.h

; 576  : 	return right - left;

  0000e	8b 73 08	 mov	 esi, DWORD PTR [ebx+8]
  00011	2b 33		 sub	 esi, DWORD PTR [ebx]
; File D:\git\src\IBK\IBK_DRFN\ProjSrc\SrcChartEx\ChartOCX\ScaleDraw\HorzScaleDrawer.cpp

; 56   : 	onePtWidth = CDrawer::GetOnePointWidth(region.Width(), displayAttributes.GetDataCountInBlock());

  00013	e8 00 00 00 00	 call	 ?GetDataCountInBlock@CDisplayAttributes@@QBEHXZ ; CDisplayAttributes::GetDataCountInBlock
  00018	50		 push	 eax
  00019	56		 push	 esi
  0001a	8d 4f 04	 lea	 ecx, DWORD PTR [edi+4]
  0001d	e8 00 00 00 00	 call	 ?GetOnePointWidth@CDrawer@@IBENHH@Z ; CDrawer::GetOnePointWidth
  00022	8b 45 14	 mov	 eax, DWORD PTR _onePtWidth$[ebp]

; 358  : 	if(orgHight > (textHeight +3)){

  00025	8b 7d 10	 mov	 edi, DWORD PTR _textHeight$[ebp]

; 56   : 	onePtWidth = CDrawer::GetOnePointWidth(region.Width(), displayAttributes.GetDataCountInBlock());

  00028	dd 18		 fstp	 QWORD PTR [eax]
; File C:\Program Files (x86)\Microsoft Visual Studio\2019\Community\VC\Tools\MSVC\14.29.30133\atlmfc\include\atltypes.h

; 581  : 	return bottom - top;

  0002a	8b 73 0c	 mov	 esi, DWORD PTR [ebx+12]
; File D:\git\src\IBK\IBK_DRFN\ProjSrc\SrcChartEx\ChartOCX\ScaleDraw\HorzScaleDrawer.cpp

; 358  : 	if(orgHight > (textHeight +3)){

  0002d	8d 47 03	 lea	 eax, DWORD PTR [edi+3]
; File C:\Program Files (x86)\Microsoft Visual Studio\2019\Community\VC\Tools\MSVC\14.29.30133\atlmfc\include\atltypes.h

; 581  : 	return bottom - top;

  00030	8b 4b 04	 mov	 ecx, DWORD PTR [ebx+4]
  00033	2b f1		 sub	 esi, ecx
; File D:\git\src\IBK\IBK_DRFN\ProjSrc\SrcChartEx\ChartOCX\ScaleDraw\HorzScaleDrawer.cpp

; 358  : 	if(orgHight > (textHeight +3)){

  00035	3b f0		 cmp	 esi, eax
  00037	7e 25		 jle	 SHORT $LN8@GetDrawing

; 359  : 		if(orgHight/2 >= textHeight){

  00039	8b c6		 mov	 eax, esi
  0003b	2b c7		 sub	 eax, edi
  0003d	99		 cdq
  0003e	2b c2		 sub	 eax, edx
  00040	d1 f8		 sar	 eax, 1
  00042	03 c8		 add	 ecx, eax
  00044	8b c6		 mov	 eax, esi
  00046	99		 cdq
  00047	2b c2		 sub	 eax, edx
  00049	d1 f8		 sar	 eax, 1
  0004b	3b c7		 cmp	 eax, edi
  0004d	8b 45 18	 mov	 eax, DWORD PTR _posPt_y$[ebp]
  00050	7d 0f		 jge	 SHORT $LN11@GetDrawing
  00052	5f		 pop	 edi

; 360  : 			//return (org_y + (orgHight/2 - textHeight)/2);
; 361  : 			return (org_y + (orgHight - textHeight)/2);
; 362  : 		}
; 363  : 		return (org_y + (orgHight - textHeight)/2 +3);

  00053	83 c1 03	 add	 ecx, 3

; 58   : }

  00056	5e		 pop	 esi
  00057	89 08		 mov	 DWORD PTR [eax], ecx
  00059	5b		 pop	 ebx
  0005a	5d		 pop	 ebp
  0005b	c2 14 00	 ret	 20			; 00000014H
$LN8@GetDrawing:

; 57   : 	posPt_y = GetHorzScalePosition_y(region.top, region.Height(), textHeight);

  0005e	8b 45 18	 mov	 eax, DWORD PTR _posPt_y$[ebp]
$LN11@GetDrawing:
  00061	5f		 pop	 edi

; 58   : }

  00062	5e		 pop	 esi
  00063	89 08		 mov	 DWORD PTR [eax], ecx
  00065	5b		 pop	 ebx
  00066	5d		 pop	 ebp
  00067	c2 14 00	 ret	 20			; 00000014H
?GetDrawingEnvironment@CHorzScaleDrawer@@IBEXABVCRect@@ABVCDisplayAttributes@@HAANAAH@Z ENDP ; CHorzScaleDrawer::GetDrawingEnvironment
_TEXT	ENDS
; Function compile flags: /Ogtp
; File D:\git\src\IBK\IBK_DRFN\ProjSrc\SrcChartEx\ChartOCX\ScaleDraw\HorzScaleDrawer.cpp
;	COMDAT ?IsTextPosion@CHorzScaleDrawer@@IBE_NHHHH@Z
_TEXT	SEGMENT
_nPrevPos$ = 8						; size = 4
_nCurPos$ = 12						; size = 4
_nIndex$ = 16						; size = 4
_bReverse$ = 20						; size = 4
?IsTextPosion@CHorzScaleDrawer@@IBE_NHHHH@Z PROC	; CHorzScaleDrawer::IsTextPosion, COMDAT
; _this$ = ecx

; 35   : {

  00000	55		 push	 ebp
  00001	8b ec		 mov	 ebp, esp

; 36   : 	if(nIndex < 0) return false;

  00003	8b 55 10	 mov	 edx, DWORD PTR _nIndex$[ebp]
  00006	85 d2		 test	 edx, edx
  00008	78 25		 js	 SHORT $LN7@IsTextPosi

; 37   : 
; 38   : 	if(bReverse == FALSE)

  0000a	83 7d 14 00	 cmp	 DWORD PTR _bReverse$[ebp], 0
  0000e	8b 45 08	 mov	 eax, DWORD PTR _nPrevPos$[ebp]
  00011	8b 4d 0c	 mov	 ecx, DWORD PTR _nCurPos$[ebp]
  00014	75 0f		 jne	 SHORT $LN3@IsTextPosi

; 39   : 	{
; 40   : 		if(nPrevPos < nCurPos) return true;

  00016	3b c1		 cmp	 eax, ecx
  00018	7c 0f		 jl	 SHORT $LN9@IsTextPosi
$LN10@IsTextPosi:

; 45   : 	}
; 46   : 
; 47   : 	if(nPrevPos == nCurPos) return (nIndex == 0);

  0001a	75 13		 jne	 SHORT $LN7@IsTextPosi
  0001c	85 d2		 test	 edx, edx
  0001e	0f 94 c0	 sete	 al

; 50   : }

  00021	5d		 pop	 ebp
  00022	c2 10 00	 ret	 16			; 00000010H
$LN3@IsTextPosi:

; 41   : 	}
; 42   : 	else
; 43   : 	{
; 44   : 		if(nPrevPos > nCurPos) return true;

  00025	3b c1		 cmp	 eax, ecx
  00027	7e f1		 jle	 SHORT $LN10@IsTextPosi
$LN9@IsTextPosi:
  00029	b0 01		 mov	 al, 1

; 50   : }

  0002b	5d		 pop	 ebp
  0002c	c2 10 00	 ret	 16			; 00000010H
$LN7@IsTextPosi:

; 48   : 	
; 49   : 	return false;

  0002f	32 c0		 xor	 al, al

; 50   : }

  00031	5d		 pop	 ebp
  00032	c2 10 00	 ret	 16			; 00000010H
?IsTextPosion@CHorzScaleDrawer@@IBE_NHHHH@Z ENDP	; CHorzScaleDrawer::IsTextPosion
_TEXT	ENDS
; Function compile flags: /Ogtp
; File D:\git\src\IBK\IBK_DRFN\ProjSrc\SrcChartEx\ChartOCX\ScaleDraw\HorzScaleDrawer.cpp
;	COMDAT ?IsKoreanStyle@CHorzScaleDrawer@@IBE_NABV?$CStringT@DV?$StrTraitMFC_DLL@DV?$ChTraitsCRT@D@ATL@@@@@ATL@@@Z
_TEXT	SEGMENT
_packetType$ = 8					; size = 4
?IsKoreanStyle@CHorzScaleDrawer@@IBE_NABV?$CStringT@DV?$StrTraitMFC_DLL@DV?$ChTraitsCRT@D@ATL@@@@@ATL@@@Z PROC ; CHorzScaleDrawer::IsKoreanStyle, COMDAT
; _this$ = ecx

; 30   : {

  00000	55		 push	 ebp
  00001	8b ec		 mov	 ebp, esp

; 31   : 	return (packetType.Find('Y') <= 0);

  00003	8b 4d 08	 mov	 ecx, DWORD PTR _packetType$[ebp]
  00006	6a 00		 push	 0
  00008	6a 59		 push	 89			; 00000059H
  0000a	ff 15 00 00 00
	00		 call	 DWORD PTR __imp_?Find@?$CStringT@DV?$StrTraitMFC_DLL@DV?$ChTraitsCRT@D@ATL@@@@@ATL@@QBEHDH@Z
  00010	85 c0		 test	 eax, eax
  00012	0f 9e c0	 setle	 al

; 32   : }

  00015	5d		 pop	 ebp
  00016	c2 04 00	 ret	 4
?IsKoreanStyle@CHorzScaleDrawer@@IBE_NABV?$CStringT@DV?$StrTraitMFC_DLL@DV?$ChTraitsCRT@D@ATL@@@@@ATL@@@Z ENDP ; CHorzScaleDrawer::IsKoreanStyle
_TEXT	ENDS
; Function compile flags: /Ogtp
; File D:\git\src\IBK\IBK_DRFN\ProjSrc\SrcChartEx\ChartOCX\ScaleDraw\HorzScaleDrawer.h
;	COMDAT ?DrawGrid@CHorzScaleDrawer@@UAE_NPAVCDC@@ABVCDrawingHorzScaleData@@ABVCHorzScaleRegion@@ABVCHorizontalScale@@PAVCXScaleManager@@PBD@Z
_TEXT	SEGMENT
_pDC$ = 8						; size = 4
_drawingHorzScaleData$ = 12				; size = 4
_horzScaleRegion$ = 16					; size = 4
_horzScale$ = 20					; size = 4
_pxScaleManager$ = 24					; size = 4
_p_szRQ$ = 28						; size = 4
?DrawGrid@CHorzScaleDrawer@@UAE_NPAVCDC@@ABVCDrawingHorzScaleData@@ABVCHorzScaleRegion@@ABVCHorizontalScale@@PAVCXScaleManager@@PBD@Z PROC ; CHorzScaleDrawer::DrawGrid, COMDAT
; _this$ = ecx

; 44   : 		return false;

  00000	32 c0		 xor	 al, al

; 45   : 	}

  00002	c2 18 00	 ret	 24			; 00000018H
?DrawGrid@CHorzScaleDrawer@@UAE_NPAVCDC@@ABVCDrawingHorzScaleData@@ABVCHorzScaleRegion@@ABVCHorizontalScale@@PAVCXScaleManager@@PBD@Z ENDP ; CHorzScaleDrawer::DrawGrid
_TEXT	ENDS
; Function compile flags: /Ogtp
; File D:\git\src\IBK\IBK_DRFN\ProjSrc\SrcChartEx\ChartOCX\ScaleDraw\HorzScaleDrawer.h
;	COMDAT ?DrawTextOrGrid_Both@CHorzScaleDrawer@@UAE_NPAVCDC@@ABVCDrawingHorzScaleData@@ABVCHorzScaleRegion@@ABVCHorizontalScale@@PAVCXScaleManager@@PBD@Z
_TEXT	SEGMENT
_pDC$ = 8						; size = 4
_drawingHorzScaleData$ = 12				; size = 4
_horzScaleRegion$ = 16					; size = 4
_horzScale$ = 20					; size = 4
_pxScaleManager$ = 24					; size = 4
_p_szRQ$ = 28						; size = 4
?DrawTextOrGrid_Both@CHorzScaleDrawer@@UAE_NPAVCDC@@ABVCDrawingHorzScaleData@@ABVCHorzScaleRegion@@ABVCHorizontalScale@@PAVCXScaleManager@@PBD@Z PROC ; CHorzScaleDrawer::DrawTextOrGrid_Both, COMDAT
; _this$ = ecx

; 37   : 		return false;

  00000	32 c0		 xor	 al, al

; 38   : 	}

  00002	c2 18 00	 ret	 24			; 00000018H
?DrawTextOrGrid_Both@CHorzScaleDrawer@@UAE_NPAVCDC@@ABVCDrawingHorzScaleData@@ABVCHorzScaleRegion@@ABVCHorizontalScale@@PAVCXScaleManager@@PBD@Z ENDP ; CHorzScaleDrawer::DrawTextOrGrid_Both
_TEXT	ENDS
; Function compile flags: /Ogtp
; File D:\git\src\IBK\IBK_DRFN\ProjSrc\SrcChartEx\ChartOCX\ScaleDraw\HorzScaleDrawer.h
;	COMDAT ?DrawTextOrGrid@CHorzScaleDrawer@@UAE_NPAVCDC@@ABVCDrawingHorzScaleData@@ABVCRect@@ABVCHorizontalScale@@PAVCXScaleManager@@PBD@Z
_TEXT	SEGMENT
_pDC$ = 8						; size = 4
_drawingHorzScaleData$ = 12				; size = 4
_scaleRegion$ = 16					; size = 4
_horzScale$ = 20					; size = 4
_pxScaleManager$ = 24					; size = 4
_p_szRQ$ = 28						; size = 4
?DrawTextOrGrid@CHorzScaleDrawer@@UAE_NPAVCDC@@ABVCDrawingHorzScaleData@@ABVCRect@@ABVCHorizontalScale@@PAVCXScaleManager@@PBD@Z PROC ; CHorzScaleDrawer::DrawTextOrGrid, COMDAT
; _this$ = ecx

; 31   : 		return false;

  00000	32 c0		 xor	 al, al

; 32   : 	}

  00002	c2 18 00	 ret	 24			; 00000018H
?DrawTextOrGrid@CHorzScaleDrawer@@UAE_NPAVCDC@@ABVCDrawingHorzScaleData@@ABVCRect@@ABVCHorizontalScale@@PAVCXScaleManager@@PBD@Z ENDP ; CHorzScaleDrawer::DrawTextOrGrid
_TEXT	ENDS
; Function compile flags: /Ogtp
; File D:\git\src\IBK\IBK_DRFN\ProjSrc\SrcChartEx\ChartOCX\ScaleDraw\HorzScaleDrawer.cpp
; File D:\git\src\IBK\IBK_DRFN\ProjSrc\SrcChartEx\ChartOCX\ScaleDraw\Drawer.h
; File D:\git\src\IBK\IBK_DRFN\ProjSrc\SrcChartEx\ChartOCX\ScaleDraw\HorzScaleDrawer.cpp
;	COMDAT ??0CHorzScaleDrawer@@QAE@PAUHWND__@@W4CHART_MODE@CChartInfo@@@Z
_TEXT	SEGMENT
_p_hOcxWnd$ = 8						; size = 4
_p_eChartMode$ = 12					; size = 4
??0CHorzScaleDrawer@@QAE@PAUHWND__@@W4CHART_MODE@CChartInfo@@@Z PROC ; CHorzScaleDrawer::CHorzScaleDrawer, COMDAT
; _this$ = ecx

; 25   : {

  00000	55		 push	 ebp
  00001	8b ec		 mov	 ebp, esp
; File D:\git\src\IBK\IBK_DRFN\ProjSrc\SrcChartEx\ChartOCX\ScaleDraw\Drawer.h

; 30   : 		{	m_hOcxWnd = p_hOcxWnd;	m_eChartMode = p_eChartMode;	}

  00003	8b 45 08	 mov	 eax, DWORD PTR _p_hOcxWnd$[ebp]
  00006	89 41 04	 mov	 DWORD PTR [ecx+4], eax
  00009	8b 45 0c	 mov	 eax, DWORD PTR _p_eChartMode$[ebp]
  0000c	89 41 08	 mov	 DWORD PTR [ecx+8], eax
; File D:\git\src\IBK\IBK_DRFN\ProjSrc\SrcChartEx\ChartOCX\ScaleDraw\HorzScaleDrawer.cpp

; 26   : }

  0000f	8b c1		 mov	 eax, ecx
  00011	c7 01 00 00 00
	00		 mov	 DWORD PTR [ecx], OFFSET ??_7CHorzScaleDrawer@@6B@
  00017	5d		 pop	 ebp
  00018	c2 08 00	 ret	 8
??0CHorzScaleDrawer@@QAE@PAUHWND__@@W4CHART_MODE@CChartInfo@@@Z ENDP ; CHorzScaleDrawer::CHorzScaleDrawer
_TEXT	ENDS
; Function compile flags: /Ogtp
; File D:\git\src\IBK\IBK_DRFN\ProjSrc\SrcChartEx\ChartOCX\ScaleDraw\HorzScaleDrawer.cpp
;	COMDAT ?__empty_global_delete@@YAXPAXI@Z
_TEXT	SEGMENT
___formal$ = 8						; size = 4
___formal$ = 12						; size = 4
?__empty_global_delete@@YAXPAXI@Z PROC			; __empty_global_delete, COMDAT

  00000	c2 00 00	 ret	 0
?__empty_global_delete@@YAXPAXI@Z ENDP			; __empty_global_delete
_TEXT	ENDS
; Function compile flags: /Ogtp
; File D:\git\src\IBK\IBK_DRFN\ProjSrc\SrcChartEx\ChartOCX\ScaleDraw\HorzScaleDrawer.cpp
;	COMDAT ?__empty_global_delete@@YAXPAX@Z
_TEXT	SEGMENT
___formal$ = 8						; size = 4
?__empty_global_delete@@YAXPAX@Z PROC			; __empty_global_delete, COMDAT

  00000	c2 00 00	 ret	 0
?__empty_global_delete@@YAXPAX@Z ENDP			; __empty_global_delete
_TEXT	ENDS
END
