; Listing generated by Microsoft (R) Optimizing Compiler Version 19.29.30145.0 

	TITLE	D:\git\src\IBK\IBK_DRFN\#DRfn-CS\_Obj\ScaleDraw\LogScaleDrawer.obj
	.686P
	.XMM
	include listing.inc
	.model	flat

INCLUDELIB MSVCRT
INCLUDELIB OLDNAMES

PUBLIC	?__empty_global_delete@@YAXPAX@Z		; __empty_global_delete
PUBLIC	?__empty_global_delete@@YAXPAXI@Z		; __empty_global_delete
PUBLIC	??0CLogScaleDrawer@@QAE@PAUHWND__@@W4CHART_MODE@CChartInfo@@@Z ; CLogScaleDrawer::CLogScaleDrawer
PUBLIC	?DrawTextOrGrid@CLogScaleDrawer@@UAEXPAVCDC@@ABVCDrawingVertScaleData@@ABVCScaleDrawingRegion@@ABVCVerticalScale@@@Z ; CLogScaleDrawer::DrawTextOrGrid
PUBLIC	?DrawTextOrGrid_Both@CLogScaleDrawer@@UAEXPAVCDC@@ABVCDrawingVertScaleData@@ABVCVertScaleRegion@@ABVCVerticalScale@@@Z ; CLogScaleDrawer::DrawTextOrGrid_Both
PUBLIC	?DrawTextOrGrid@CLogScaleDrawer@@AAEXPAVCDC@@ABVCDrawingVertScaleData@@ABVCRect@@2ABVCVerticalScale@@@Z ; CLogScaleDrawer::DrawTextOrGrid
PUBLIC	??1CScaleCompart@@QAE@XZ			; CScaleCompart::~CScaleCompart
PUBLIC	??0CScaleCompart@@QAE@ABV0@@Z			; CScaleCompart::CScaleCompart
PUBLIC	??1CScale@@QAE@XZ				; CScale::~CScale
PUBLIC	??0CScale@@QAE@ABV0@@Z				; CScale::CScale
PUBLIC	??1CHorizontalScale@@QAE@XZ			; CHorizontalScale::~CHorizontalScale
PUBLIC	??0CHorizontalScale@@QAE@ABV0@@Z		; CHorizontalScale::CHorizontalScale
PUBLIC	?IsVertScaleMinMaxLock@CVerticalScale@@QBEHXZ	; CVerticalScale::IsVertScaleMinMaxLock
PUBLIC	?SetVertScaleMinMaxLock@CVerticalScale@@QAEXH@Z	; CVerticalScale::SetVertScaleMinMaxLock
PUBLIC	?GetVertScaleMinMaxType@CVerticalScale@@QBE?AW4VERTMINMAXTYPE@CScaleBaseData@@XZ ; CVerticalScale::GetVertScaleMinMaxType
PUBLIC	?SetVertScaleMinMaxType@CVerticalScale@@QAEXW4VERTMINMAXTYPE@CScaleBaseData@@@Z ; CVerticalScale::SetVertScaleMinMaxType
PUBLIC	?GetVertScaleMin@CVerticalScale@@QBENXZ		; CVerticalScale::GetVertScaleMin
PUBLIC	?SetVertScaleMin@CVerticalScale@@QAEXN@Z	; CVerticalScale::SetVertScaleMin
PUBLIC	?GetVertScaleMax@CVerticalScale@@QBENXZ		; CVerticalScale::GetVertScaleMax
PUBLIC	?SetVertScaleMax@CVerticalScale@@QAEXN@Z	; CVerticalScale::SetVertScaleMax
PUBLIC	?SetVertScaleHoGaNumber@CVerticalScale@@QAEXN@Z	; CVerticalScale::SetVertScaleHoGaNumber
PUBLIC	?SetVertScaleUserNumber@CVerticalScale@@QAEXN@Z	; CVerticalScale::SetVertScaleUserNumber
PUBLIC	?SetVertUserHogaScaleType@CVerticalScale@@QAEXH@Z ; CVerticalScale::SetVertUserHogaScaleType
PUBLIC	?GetVertScaleHoGaNumber@CVerticalScale@@QBENXZ	; CVerticalScale::GetVertScaleHoGaNumber
PUBLIC	?GetVertScaleUserNumber@CVerticalScale@@QBENXZ	; CVerticalScale::GetVertScaleUserNumber
PUBLIC	?GetVertUserHogaScaleType@CVerticalScale@@QBEHXZ ; CVerticalScale::GetVertUserHogaScaleType
PUBLIC	?GetVertScaleInvertType@CVerticalScale@@QBE_NXZ	; CVerticalScale::GetVertScaleInvertType
PUBLIC	?SetVertScaleInvertType@CVerticalScale@@QAEX_N@Z ; CVerticalScale::SetVertScaleInvertType
PUBLIC	?SetSpace@CVerticalScale@@QAEXHH@Z		; CVerticalScale::SetSpace
PUBLIC	?GetSpace@CVerticalScale@@QBEXAAH0@Z		; CVerticalScale::GetSpace
PUBLIC	??1CVerticalScale@@QAE@XZ			; CVerticalScale::~CVerticalScale
PUBLIC	??0CVerticalScale@@QAE@ABV0@@Z			; CVerticalScale::CVerticalScale
PUBLIC	??4CHorzScaleRegionHeight@@QAEAAV0@ABV0@@Z	; CHorzScaleRegionHeight::operator=
PUBLIC	??4CHorzScaleRegionHeight@@QAEAAV0@$$QAV0@@Z	; CHorzScaleRegionHeight::operator=
PUBLIC	??4CVertScaleRegionWidth@@QAEAAV0@ABV0@@Z	; CVertScaleRegionWidth::operator=
PUBLIC	??4CVertScaleRegionWidth@@QAEAAV0@$$QAV0@@Z	; CVertScaleRegionWidth::operator=
PUBLIC	??4CHorzScaleRegion@@QAEAAV0@ABV0@@Z		; CHorzScaleRegion::operator=
PUBLIC	??4CHorzScaleRegion@@QAEAAV0@$$QAV0@@Z		; CHorzScaleRegion::operator=
PUBLIC	??4CVertScaleRegion@@QAEAAV0@ABV0@@Z		; CVertScaleRegion::operator=
PUBLIC	??4CVertScaleRegion@@QAEAAV0@$$QAV0@@Z		; CVertScaleRegion::operator=
PUBLIC	??_7CLogScaleDrawer@@6B@			; CLogScaleDrawer::`vftable'
PUBLIC	??_7CScale@@6B@					; CScale::`vftable'
PUBLIC	??_7CHorizontalScale@@6B@			; CHorizontalScale::`vftable'
PUBLIC	??_7CVerticalScale@@6B@				; CVerticalScale::`vftable'
PUBLIC	??_C@_01LFCBOECM@?4@				; `string'
PUBLIC	??_C@_01GBGANLPD@0@				; `string'
PUBLIC	??_R4CVerticalScale@@6B@			; CVerticalScale::`RTTI Complete Object Locator'
PUBLIC	??_R0?AVCVerticalScale@@@8			; CVerticalScale `RTTI Type Descriptor'
PUBLIC	??_R3CVerticalScale@@8				; CVerticalScale::`RTTI Class Hierarchy Descriptor'
PUBLIC	??_R2CVerticalScale@@8				; CVerticalScale::`RTTI Base Class Array'
PUBLIC	??_R1A@?0A@EA@CVerticalScale@@8			; CVerticalScale::`RTTI Base Class Descriptor at (0,-1,0,64)'
PUBLIC	??_R1A@?0A@EA@CScale@@8				; CScale::`RTTI Base Class Descriptor at (0,-1,0,64)'
PUBLIC	??_R0?AVCScale@@@8				; CScale `RTTI Type Descriptor'
PUBLIC	??_R3CScale@@8					; CScale::`RTTI Class Hierarchy Descriptor'
PUBLIC	??_R2CScale@@8					; CScale::`RTTI Base Class Array'
PUBLIC	??_R4CLogScaleDrawer@@6B@			; CLogScaleDrawer::`RTTI Complete Object Locator'
PUBLIC	??_R0?AVCLogScaleDrawer@@@8			; CLogScaleDrawer `RTTI Type Descriptor'
PUBLIC	??_R3CLogScaleDrawer@@8				; CLogScaleDrawer::`RTTI Class Hierarchy Descriptor'
PUBLIC	??_R2CLogScaleDrawer@@8				; CLogScaleDrawer::`RTTI Base Class Array'
PUBLIC	??_R1A@?0A@EA@CLogScaleDrawer@@8		; CLogScaleDrawer::`RTTI Base Class Descriptor at (0,-1,0,64)'
PUBLIC	??_R1A@?0A@EA@CVertScaleDrawer@@8		; CVertScaleDrawer::`RTTI Base Class Descriptor at (0,-1,0,64)'
PUBLIC	??_R0?AVCVertScaleDrawer@@@8			; CVertScaleDrawer `RTTI Type Descriptor'
PUBLIC	??_R3CVertScaleDrawer@@8			; CVertScaleDrawer::`RTTI Class Hierarchy Descriptor'
PUBLIC	??_R2CVertScaleDrawer@@8			; CVertScaleDrawer::`RTTI Base Class Array'
PUBLIC	??_R13?0A@EA@CDrawer@@8				; CDrawer::`RTTI Base Class Descriptor at (4,-1,0,64)'
PUBLIC	??_R0?AVCDrawer@@@8				; CDrawer `RTTI Type Descriptor'
PUBLIC	??_R3CDrawer@@8					; CDrawer::`RTTI Class Hierarchy Descriptor'
PUBLIC	??_R2CDrawer@@8					; CDrawer::`RTTI Base Class Array'
PUBLIC	??_R1A@?0A@EA@CDrawer@@8			; CDrawer::`RTTI Base Class Descriptor at (0,-1,0,64)'
PUBLIC	??_R4CScale@@6B@				; CScale::`RTTI Complete Object Locator'
PUBLIC	??_R4CHorizontalScale@@6B@			; CHorizontalScale::`RTTI Complete Object Locator'
PUBLIC	??_R0?AVCHorizontalScale@@@8			; CHorizontalScale `RTTI Type Descriptor'
PUBLIC	??_R3CHorizontalScale@@8			; CHorizontalScale::`RTTI Class Hierarchy Descriptor'
PUBLIC	??_R2CHorizontalScale@@8			; CHorizontalScale::`RTTI Base Class Array'
PUBLIC	??_R1A@?0A@EA@CHorizontalScale@@8		; CHorizontalScale::`RTTI Base Class Descriptor at (0,-1,0,64)'
EXTRN	__imp__GetTextExtentPoint32A@16:PROC
EXTRN	__imp__IsRectEmpty@4:PROC
EXTRN	__imp_??0?$CStringT@DV?$StrTraitMFC_DLL@DV?$ChTraitsCRT@D@ATL@@@@@ATL@@QAE@XZ:PROC
EXTRN	__imp_??0?$CStringT@DV?$StrTraitMFC_DLL@DV?$ChTraitsCRT@D@ATL@@@@@ATL@@QAE@ABV01@@Z:PROC
EXTRN	__imp_??0?$CStringT@DV?$StrTraitMFC_DLL@DV?$ChTraitsCRT@D@ATL@@@@@ATL@@QAE@PBD@Z:PROC
EXTRN	__imp_??1?$CStringT@DV?$StrTraitMFC_DLL@DV?$ChTraitsCRT@D@ATL@@@@@ATL@@QAE@XZ:PROC
EXTRN	__imp_??4?$CStringT@DV?$StrTraitMFC_DLL@DV?$ChTraitsCRT@D@ATL@@@@@ATL@@QAEAAV01@ABV01@@Z:PROC
EXTRN	__imp_?Compare@?$CStringT@DV?$StrTraitMFC_DLL@DV?$ChTraitsCRT@D@ATL@@@@@ATL@@QBEHPBD@Z:PROC
EXTRN	__imp_?Find@?$CStringT@DV?$StrTraitMFC_DLL@DV?$ChTraitsCRT@D@ATL@@@@@ATL@@QBEHPBDH@Z:PROC
EXTRN	__imp_?Left@?$CStringT@DV?$StrTraitMFC_DLL@DV?$ChTraitsCRT@D@ATL@@@@@ATL@@QBE?AV12@H@Z:PROC
EXTRN	?GetPacketDataCount@CDrawer@@IBEHPAVCPacket@@@Z:PROC ; CDrawer::GetPacketDataCount
EXTRN	?GetPacketDataType@CDrawer@@IBE?AV?$CStringT@DV?$StrTraitMFC_DLL@DV?$ChTraitsCRT@D@ATL@@@@@ATL@@PAVCPacket@@@Z:PROC ; CDrawer::GetPacketDataType
EXTRN	?DrawTextOut@CDrawer@@IAEXPAVCDC@@ABVCPoint@@ABV?$CStringT@DV?$StrTraitMFC_DLL@DV?$ChTraitsCRT@D@ATL@@@@@ATL@@K@Z:PROC ; CDrawer::DrawTextOut
EXTRN	??0CVertScaleDrawer@@QAE@PAUHWND__@@W4CHART_MODE@CChartInfo@@@Z:PROC ; CVertScaleDrawer::CVertScaleDrawer
EXTRN	?GetDrawingEnvironment@CVertScaleDrawer@@IAE_NPAVCDC@@ABVCRect@@ABVCDisplayDataMinMax@@ABV?$CStringT@DV?$StrTraitMFC_DLL@DV?$ChTraitsCRT@D@ATL@@@@@ATL@@AAH4AANAA_N@Z:PROC ; CVertScaleDrawer::GetDrawingEnvironment
EXTRN	?GetTextPosition@CVertScaleDrawer@@IBE?AVCPoint@@HHABVCSize@@H@Z:PROC ; CVertScaleDrawer::GetTextPosition
EXTRN	?GetVertScaleAbsolutePosition_y@CVertScaleDrawer@@IAE_NABVCRect@@NABVCDisplayDataMinMax@@_NAAH@Z:PROC ; CVertScaleDrawer::GetVertScaleAbsolutePosition_y
EXTRN	?GetRoundIndexDecimalDown@CVertScaleDrawer@@IBEHABV?$CStringT@DV?$StrTraitMFC_DLL@DV?$ChTraitsCRT@D@ATL@@@@@ATL@@@Z:PROC ; CVertScaleDrawer::GetRoundIndexDecimalDown
EXTRN	?GetStrData@CVertScaleDrawer@@IBE?AV?$CStringT@DV?$StrTraitMFC_DLL@DV?$ChTraitsCRT@D@ATL@@@@@ATL@@ABNABV23@_NH@Z:PROC ; CVertScaleDrawer::GetStrData
EXTRN	?DrawType@CVertScaleDrawer@@IAEHPAVCDC@@ABVCRect@@ABV?$CStringT@DV?$StrTraitMFC_DLL@DV?$ChTraitsCRT@D@ATL@@@@@ATL@@_NW4VERTSCALEUNITTYPE@CScaleBaseData@@K@Z:PROC ; CVertScaleDrawer::DrawType
EXTRN	?DrawGrid@CVertScaleDrawer@@IAEXPAVCDC@@ABVCDrawingVertScaleData@@W4SCALEGRIDTYPE@CScaleBaseData@@HH@Z:PROC ; CVertScaleDrawer::DrawGrid
EXTRN	?DrawScale@CVertScaleDrawer@@IAEXPAVCDC@@ABVCRect@@NNHHABVCDrawingVertScaleData@@@Z:PROC ; CVertScaleDrawer::DrawScale
EXTRN	?SetScaleData@CScale@@UAEXPADPAUHWND__@@@Z:PROC	; CScale::SetScaleData
EXTRN	?GetGridType@CScale@@QBE?AW4SCALEGRIDTYPE@CScaleBaseData@@XZ:PROC ; CScale::GetGridType
EXTRN	?SetScaleData@CHorizontalScale@@UAEXPADPAUHWND__@@@Z:PROC ; CHorizontalScale::SetScaleData
EXTRN	?SetScaleData@CVerticalScale@@UAEXPADPAUHWND__@@@Z:PROC ; CVerticalScale::SetScaleData
EXTRN	?GetVertScaleUnitType@CVerticalScale@@QBE?AW4VERTSCALEUNITTYPE@CScaleBaseData@@XZ:PROC ; CVerticalScale::GetVertScaleUnitType
EXTRN	?GetActiveFlag@CVerticalScale@@QBEHXZ:PROC	; CVerticalScale::GetActiveFlag
EXTRN	?GetLeftScaleTextRegion@CVertScaleRegion@@QBE?AVCRect@@XZ:PROC ; CVertScaleRegion::GetLeftScaleTextRegion
EXTRN	?GetRightScaleTextRegion@CVertScaleRegion@@QBE?AVCRect@@XZ:PROC ; CVertScaleRegion::GetRightScaleTextRegion
EXTRN	?GetDisplayMin@CDisplayDataMinMax@@QBENXZ:PROC	; CDisplayDataMinMax::GetDisplayMin
EXTRN	__imp_?GetScaleTextColor@CScaleColor@@QAEAAKXZ:PROC
EXTRN	?GetVertScaleInvertType@CDrawingVertScaleData@@QBE_NXZ:PROC ; CDrawingVertScaleData::GetVertScaleInvertType
EXTRN	?GetScaleColor@CDrawingVertScaleData@@QBE?AVCScaleColor@@XZ:PROC ; CDrawingVertScaleData::GetScaleColor
EXTRN	?GetDisplayDataMinMax@CDrawingVertScaleData@@QBE?AVCDisplayDataMinMax@@XZ:PROC ; CDrawingVertScaleData::GetDisplayDataMinMax
EXTRN	?GetPacket@CDrawingVertScaleData@@QBEPAVCPacket@@XZ:PROC ; CDrawingVertScaleData::GetPacket
EXTRN	?GetScaleTextRegion@CScaleDrawingRegion@@QBE?AVCRect@@XZ:PROC ; CScaleDrawingRegion::GetScaleTextRegion
EXTRN	?GetStringDataCount@CDataConversion@@SAHABV?$CStringT@DV?$StrTraitMFC_DLL@DV?$ChTraitsCRT@D@ATL@@@@@ATL@@0@Z:PROC ; CDataConversion::GetStringDataCount
EXTRN	?InvertGraphDataPt@CDataConversion@@SAHABVCRect@@H@Z:PROC ; CDataConversion::InvertGraphDataPt
EXTRN	?Round@CMath@@SANABNH@Z:PROC			; CMath::Round
EXTRN	@__security_check_cookie@4:PROC
EXTRN	___CxxFrameHandler3:PROC
EXTRN	??_7type_info@@6B@:QWORD			; type_info::`vftable'
EXTRN	___security_cookie:DWORD
EXTRN	__fltused:DWORD
;	COMDAT ??_R1A@?0A@EA@CHorizontalScale@@8
rdata$r	SEGMENT
??_R1A@?0A@EA@CHorizontalScale@@8 DD FLAT:??_R0?AVCHorizontalScale@@@8 ; CHorizontalScale::`RTTI Base Class Descriptor at (0,-1,0,64)'
	DD	01H
	DD	00H
	DD	0ffffffffH
	DD	00H
	DD	040H
	DD	FLAT:??_R3CHorizontalScale@@8
rdata$r	ENDS
;	COMDAT ??_R2CHorizontalScale@@8
rdata$r	SEGMENT
??_R2CHorizontalScale@@8 DD FLAT:??_R1A@?0A@EA@CHorizontalScale@@8 ; CHorizontalScale::`RTTI Base Class Array'
	DD	FLAT:??_R1A@?0A@EA@CScale@@8
rdata$r	ENDS
;	COMDAT ??_R3CHorizontalScale@@8
rdata$r	SEGMENT
??_R3CHorizontalScale@@8 DD 00H				; CHorizontalScale::`RTTI Class Hierarchy Descriptor'
	DD	00H
	DD	02H
	DD	FLAT:??_R2CHorizontalScale@@8
rdata$r	ENDS
;	COMDAT ??_R0?AVCHorizontalScale@@@8
data$rs	SEGMENT
??_R0?AVCHorizontalScale@@@8 DD FLAT:??_7type_info@@6B@	; CHorizontalScale `RTTI Type Descriptor'
	DD	00H
	DB	'.?AVCHorizontalScale@@', 00H
data$rs	ENDS
;	COMDAT ??_R4CHorizontalScale@@6B@
rdata$r	SEGMENT
??_R4CHorizontalScale@@6B@ DD 00H			; CHorizontalScale::`RTTI Complete Object Locator'
	DD	00H
	DD	00H
	DD	FLAT:??_R0?AVCHorizontalScale@@@8
	DD	FLAT:??_R3CHorizontalScale@@8
rdata$r	ENDS
;	COMDAT ??_R4CScale@@6B@
rdata$r	SEGMENT
??_R4CScale@@6B@ DD 00H					; CScale::`RTTI Complete Object Locator'
	DD	00H
	DD	00H
	DD	FLAT:??_R0?AVCScale@@@8
	DD	FLAT:??_R3CScale@@8
rdata$r	ENDS
;	COMDAT ??_R1A@?0A@EA@CDrawer@@8
rdata$r	SEGMENT
??_R1A@?0A@EA@CDrawer@@8 DD FLAT:??_R0?AVCDrawer@@@8	; CDrawer::`RTTI Base Class Descriptor at (0,-1,0,64)'
	DD	00H
	DD	00H
	DD	0ffffffffH
	DD	00H
	DD	040H
	DD	FLAT:??_R3CDrawer@@8
rdata$r	ENDS
;	COMDAT ??_R2CDrawer@@8
rdata$r	SEGMENT
??_R2CDrawer@@8 DD FLAT:??_R1A@?0A@EA@CDrawer@@8	; CDrawer::`RTTI Base Class Array'
rdata$r	ENDS
;	COMDAT ??_R3CDrawer@@8
rdata$r	SEGMENT
??_R3CDrawer@@8 DD 00H					; CDrawer::`RTTI Class Hierarchy Descriptor'
	DD	00H
	DD	01H
	DD	FLAT:??_R2CDrawer@@8
rdata$r	ENDS
;	COMDAT ??_R0?AVCDrawer@@@8
data$rs	SEGMENT
??_R0?AVCDrawer@@@8 DD FLAT:??_7type_info@@6B@		; CDrawer `RTTI Type Descriptor'
	DD	00H
	DB	'.?AVCDrawer@@', 00H
data$rs	ENDS
;	COMDAT ??_R13?0A@EA@CDrawer@@8
rdata$r	SEGMENT
??_R13?0A@EA@CDrawer@@8 DD FLAT:??_R0?AVCDrawer@@@8	; CDrawer::`RTTI Base Class Descriptor at (4,-1,0,64)'
	DD	00H
	DD	04H
	DD	0ffffffffH
	DD	00H
	DD	040H
	DD	FLAT:??_R3CDrawer@@8
rdata$r	ENDS
;	COMDAT ??_R2CVertScaleDrawer@@8
rdata$r	SEGMENT
??_R2CVertScaleDrawer@@8 DD FLAT:??_R1A@?0A@EA@CVertScaleDrawer@@8 ; CVertScaleDrawer::`RTTI Base Class Array'
	DD	FLAT:??_R13?0A@EA@CDrawer@@8
rdata$r	ENDS
;	COMDAT ??_R3CVertScaleDrawer@@8
rdata$r	SEGMENT
??_R3CVertScaleDrawer@@8 DD 00H				; CVertScaleDrawer::`RTTI Class Hierarchy Descriptor'
	DD	00H
	DD	02H
	DD	FLAT:??_R2CVertScaleDrawer@@8
rdata$r	ENDS
;	COMDAT ??_R0?AVCVertScaleDrawer@@@8
data$rs	SEGMENT
??_R0?AVCVertScaleDrawer@@@8 DD FLAT:??_7type_info@@6B@	; CVertScaleDrawer `RTTI Type Descriptor'
	DD	00H
	DB	'.?AVCVertScaleDrawer@@', 00H
data$rs	ENDS
;	COMDAT ??_R1A@?0A@EA@CVertScaleDrawer@@8
rdata$r	SEGMENT
??_R1A@?0A@EA@CVertScaleDrawer@@8 DD FLAT:??_R0?AVCVertScaleDrawer@@@8 ; CVertScaleDrawer::`RTTI Base Class Descriptor at (0,-1,0,64)'
	DD	01H
	DD	00H
	DD	0ffffffffH
	DD	00H
	DD	040H
	DD	FLAT:??_R3CVertScaleDrawer@@8
rdata$r	ENDS
;	COMDAT ??_R1A@?0A@EA@CLogScaleDrawer@@8
rdata$r	SEGMENT
??_R1A@?0A@EA@CLogScaleDrawer@@8 DD FLAT:??_R0?AVCLogScaleDrawer@@@8 ; CLogScaleDrawer::`RTTI Base Class Descriptor at (0,-1,0,64)'
	DD	02H
	DD	00H
	DD	0ffffffffH
	DD	00H
	DD	040H
	DD	FLAT:??_R3CLogScaleDrawer@@8
rdata$r	ENDS
;	COMDAT ??_R2CLogScaleDrawer@@8
rdata$r	SEGMENT
??_R2CLogScaleDrawer@@8 DD FLAT:??_R1A@?0A@EA@CLogScaleDrawer@@8 ; CLogScaleDrawer::`RTTI Base Class Array'
	DD	FLAT:??_R1A@?0A@EA@CVertScaleDrawer@@8
	DD	FLAT:??_R13?0A@EA@CDrawer@@8
rdata$r	ENDS
;	COMDAT ??_R3CLogScaleDrawer@@8
rdata$r	SEGMENT
??_R3CLogScaleDrawer@@8 DD 00H				; CLogScaleDrawer::`RTTI Class Hierarchy Descriptor'
	DD	00H
	DD	03H
	DD	FLAT:??_R2CLogScaleDrawer@@8
rdata$r	ENDS
;	COMDAT ??_R0?AVCLogScaleDrawer@@@8
data$rs	SEGMENT
??_R0?AVCLogScaleDrawer@@@8 DD FLAT:??_7type_info@@6B@	; CLogScaleDrawer `RTTI Type Descriptor'
	DD	00H
	DB	'.?AVCLogScaleDrawer@@', 00H
data$rs	ENDS
;	COMDAT ??_R4CLogScaleDrawer@@6B@
rdata$r	SEGMENT
??_R4CLogScaleDrawer@@6B@ DD 00H			; CLogScaleDrawer::`RTTI Complete Object Locator'
	DD	00H
	DD	00H
	DD	FLAT:??_R0?AVCLogScaleDrawer@@@8
	DD	FLAT:??_R3CLogScaleDrawer@@8
rdata$r	ENDS
;	COMDAT ??_R2CScale@@8
rdata$r	SEGMENT
??_R2CScale@@8 DD FLAT:??_R1A@?0A@EA@CScale@@8		; CScale::`RTTI Base Class Array'
rdata$r	ENDS
;	COMDAT ??_R3CScale@@8
rdata$r	SEGMENT
??_R3CScale@@8 DD 00H					; CScale::`RTTI Class Hierarchy Descriptor'
	DD	00H
	DD	01H
	DD	FLAT:??_R2CScale@@8
rdata$r	ENDS
;	COMDAT ??_R0?AVCScale@@@8
data$rs	SEGMENT
??_R0?AVCScale@@@8 DD FLAT:??_7type_info@@6B@		; CScale `RTTI Type Descriptor'
	DD	00H
	DB	'.?AVCScale@@', 00H
data$rs	ENDS
;	COMDAT ??_R1A@?0A@EA@CScale@@8
rdata$r	SEGMENT
??_R1A@?0A@EA@CScale@@8 DD FLAT:??_R0?AVCScale@@@8	; CScale::`RTTI Base Class Descriptor at (0,-1,0,64)'
	DD	00H
	DD	00H
	DD	0ffffffffH
	DD	00H
	DD	040H
	DD	FLAT:??_R3CScale@@8
rdata$r	ENDS
;	COMDAT ??_R1A@?0A@EA@CVerticalScale@@8
rdata$r	SEGMENT
??_R1A@?0A@EA@CVerticalScale@@8 DD FLAT:??_R0?AVCVerticalScale@@@8 ; CVerticalScale::`RTTI Base Class Descriptor at (0,-1,0,64)'
	DD	01H
	DD	00H
	DD	0ffffffffH
	DD	00H
	DD	040H
	DD	FLAT:??_R3CVerticalScale@@8
rdata$r	ENDS
;	COMDAT ??_R2CVerticalScale@@8
rdata$r	SEGMENT
??_R2CVerticalScale@@8 DD FLAT:??_R1A@?0A@EA@CVerticalScale@@8 ; CVerticalScale::`RTTI Base Class Array'
	DD	FLAT:??_R1A@?0A@EA@CScale@@8
rdata$r	ENDS
;	COMDAT ??_R3CVerticalScale@@8
rdata$r	SEGMENT
??_R3CVerticalScale@@8 DD 00H				; CVerticalScale::`RTTI Class Hierarchy Descriptor'
	DD	00H
	DD	02H
	DD	FLAT:??_R2CVerticalScale@@8
rdata$r	ENDS
;	COMDAT ??_R0?AVCVerticalScale@@@8
data$rs	SEGMENT
??_R0?AVCVerticalScale@@@8 DD FLAT:??_7type_info@@6B@	; CVerticalScale `RTTI Type Descriptor'
	DD	00H
	DB	'.?AVCVerticalScale@@', 00H
data$rs	ENDS
;	COMDAT ??_R4CVerticalScale@@6B@
rdata$r	SEGMENT
??_R4CVerticalScale@@6B@ DD 00H				; CVerticalScale::`RTTI Complete Object Locator'
	DD	00H
	DD	00H
	DD	FLAT:??_R0?AVCVerticalScale@@@8
	DD	FLAT:??_R3CVerticalScale@@8
rdata$r	ENDS
;	COMDAT ??_C@_01GBGANLPD@0@
CONST	SEGMENT
??_C@_01GBGANLPD@0@ DB '0', 00H				; `string'
CONST	ENDS
;	COMDAT ??_C@_01LFCBOECM@?4@
CONST	SEGMENT
??_C@_01LFCBOECM@?4@ DB '.', 00H			; `string'
CONST	ENDS
;	COMDAT ??_7CVerticalScale@@6B@
CONST	SEGMENT
??_7CVerticalScale@@6B@ DD FLAT:??_R4CVerticalScale@@6B@ ; CVerticalScale::`vftable'
	DD	FLAT:?SetScaleData@CVerticalScale@@UAEXPADPAUHWND__@@@Z
CONST	ENDS
;	COMDAT ??_7CHorizontalScale@@6B@
CONST	SEGMENT
??_7CHorizontalScale@@6B@ DD FLAT:??_R4CHorizontalScale@@6B@ ; CHorizontalScale::`vftable'
	DD	FLAT:?SetScaleData@CHorizontalScale@@UAEXPADPAUHWND__@@@Z
CONST	ENDS
;	COMDAT ??_7CScale@@6B@
CONST	SEGMENT
??_7CScale@@6B@ DD FLAT:??_R4CScale@@6B@		; CScale::`vftable'
	DD	FLAT:?SetScaleData@CScale@@UAEXPADPAUHWND__@@@Z
CONST	ENDS
;	COMDAT ??_7CLogScaleDrawer@@6B@
CONST	SEGMENT
??_7CLogScaleDrawer@@6B@ DD FLAT:??_R4CLogScaleDrawer@@6B@ ; CLogScaleDrawer::`vftable'
	DD	FLAT:?DrawTextOrGrid@CLogScaleDrawer@@UAEXPAVCDC@@ABVCDrawingVertScaleData@@ABVCScaleDrawingRegion@@ABVCVerticalScale@@@Z
	DD	FLAT:?DrawTextOrGrid_Both@CLogScaleDrawer@@UAEXPAVCDC@@ABVCDrawingVertScaleData@@ABVCVertScaleRegion@@ABVCVerticalScale@@@Z
CONST	ENDS
;	COMDAT xdata$x
xdata$x	SEGMENT
__unwindtable$??0CHorizontalScale@@QAE@ABV0@@Z DD 0ffffffffH
	DD	FLAT:__unwindfunclet$??0CHorizontalScale@@QAE@ABV0@@Z$0
	DD	00H
	DD	FLAT:__unwindfunclet$??0CHorizontalScale@@QAE@ABV0@@Z$3
__ehfuncinfo$??0CHorizontalScale@@QAE@ABV0@@Z DD 019930522H
	DD	02H
	DD	FLAT:__unwindtable$??0CHorizontalScale@@QAE@ABV0@@Z
	DD	2 DUP(00H)
	DD	2 DUP(00H)
	DD	00H
	DD	01H
xdata$x	ENDS
;	COMDAT xdata$x
xdata$x	SEGMENT
__unwindtable$??0CScaleCompart@@QAE@ABV0@@Z DD 0ffffffffH
	DD	FLAT:__unwindfunclet$??0CScaleCompart@@QAE@ABV0@@Z$0
__ehfuncinfo$??0CScaleCompart@@QAE@ABV0@@Z DD 019930522H
	DD	01H
	DD	FLAT:__unwindtable$??0CScaleCompart@@QAE@ABV0@@Z
	DD	2 DUP(00H)
	DD	2 DUP(00H)
	DD	00H
	DD	01H
xdata$x	ENDS
;	COMDAT xdata$x
xdata$x	SEGMENT
__ehfuncinfo$?DrawTextOrGrid@CLogScaleDrawer@@AAEXPAVCDC@@ABVCDrawingVertScaleData@@ABVCRect@@2ABVCVerticalScale@@@Z DD 019930522H
	DD	05H
	DD	FLAT:__unwindtable$?DrawTextOrGrid@CLogScaleDrawer@@AAEXPAVCDC@@ABVCDrawingVertScaleData@@ABVCRect@@2ABVCVerticalScale@@@Z
	DD	2 DUP(00H)
	DD	2 DUP(00H)
	DD	00H
	DD	01H
__unwindtable$?DrawTextOrGrid@CLogScaleDrawer@@AAEXPAVCDC@@ABVCDrawingVertScaleData@@ABVCRect@@2ABVCVerticalScale@@@Z DD 0ffffffffH
	DD	FLAT:__unwindfunclet$?DrawTextOrGrid@CLogScaleDrawer@@AAEXPAVCDC@@ABVCDrawingVertScaleData@@ABVCRect@@2ABVCVerticalScale@@@Z$0
	DD	00H
	DD	FLAT:__unwindfunclet$?DrawTextOrGrid@CLogScaleDrawer@@AAEXPAVCDC@@ABVCDrawingVertScaleData@@ABVCRect@@2ABVCVerticalScale@@@Z$1
	DD	00H
	DD	FLAT:__unwindfunclet$?DrawTextOrGrid@CLogScaleDrawer@@AAEXPAVCDC@@ABVCDrawingVertScaleData@@ABVCRect@@2ABVCVerticalScale@@@Z$2
	DD	02H
	DD	FLAT:__unwindfunclet$?DrawTextOrGrid@CLogScaleDrawer@@AAEXPAVCDC@@ABVCDrawingVertScaleData@@ABVCRect@@2ABVCVerticalScale@@@Z$3
	DD	03H
	DD	FLAT:__unwindfunclet$?DrawTextOrGrid@CLogScaleDrawer@@AAEXPAVCDC@@ABVCDrawingVertScaleData@@ABVCRect@@2ABVCVerticalScale@@@Z$4
xdata$x	ENDS
; Function compile flags: /Ogtp
;	COMDAT ??4CVertScaleRegion@@QAEAAV0@$$QAV0@@Z
_TEXT	SEGMENT
___that$ = 8						; size = 4
??4CVertScaleRegion@@QAEAAV0@$$QAV0@@Z PROC		; CVertScaleRegion::operator=, COMDAT
; _this$ = ecx
  00000	55		 push	 ebp
  00001	8b ec		 mov	 ebp, esp
  00003	8b 45 08	 mov	 eax, DWORD PTR ___that$[ebp]
  00006	0f 10 00	 movups	 xmm0, XMMWORD PTR [eax]
  00009	0f 11 01	 movups	 XMMWORD PTR [ecx], xmm0
  0000c	0f 10 40 10	 movups	 xmm0, XMMWORD PTR [eax+16]
  00010	8b c1		 mov	 eax, ecx
  00012	0f 11 41 10	 movups	 XMMWORD PTR [ecx+16], xmm0
  00016	5d		 pop	 ebp
  00017	c2 04 00	 ret	 4
??4CVertScaleRegion@@QAEAAV0@$$QAV0@@Z ENDP		; CVertScaleRegion::operator=
_TEXT	ENDS
; Function compile flags: /Ogtp
;	COMDAT ??4CVertScaleRegion@@QAEAAV0@ABV0@@Z
_TEXT	SEGMENT
___that$ = 8						; size = 4
??4CVertScaleRegion@@QAEAAV0@ABV0@@Z PROC		; CVertScaleRegion::operator=, COMDAT
; _this$ = ecx
  00000	55		 push	 ebp
  00001	8b ec		 mov	 ebp, esp
  00003	8b 45 08	 mov	 eax, DWORD PTR ___that$[ebp]
  00006	0f 10 00	 movups	 xmm0, XMMWORD PTR [eax]
  00009	0f 11 01	 movups	 XMMWORD PTR [ecx], xmm0
  0000c	0f 10 40 10	 movups	 xmm0, XMMWORD PTR [eax+16]
  00010	8b c1		 mov	 eax, ecx
  00012	0f 11 41 10	 movups	 XMMWORD PTR [ecx+16], xmm0
  00016	5d		 pop	 ebp
  00017	c2 04 00	 ret	 4
??4CVertScaleRegion@@QAEAAV0@ABV0@@Z ENDP		; CVertScaleRegion::operator=
_TEXT	ENDS
; Function compile flags: /Ogtp
;	COMDAT ??4CHorzScaleRegion@@QAEAAV0@$$QAV0@@Z
_TEXT	SEGMENT
___that$ = 8						; size = 4
??4CHorzScaleRegion@@QAEAAV0@$$QAV0@@Z PROC		; CHorzScaleRegion::operator=, COMDAT
; _this$ = ecx
  00000	55		 push	 ebp
  00001	8b ec		 mov	 ebp, esp
  00003	8b 45 08	 mov	 eax, DWORD PTR ___that$[ebp]
  00006	0f 10 00	 movups	 xmm0, XMMWORD PTR [eax]
  00009	0f 11 01	 movups	 XMMWORD PTR [ecx], xmm0
  0000c	0f 10 40 10	 movups	 xmm0, XMMWORD PTR [eax+16]
  00010	8b c1		 mov	 eax, ecx
  00012	0f 11 41 10	 movups	 XMMWORD PTR [ecx+16], xmm0
  00016	5d		 pop	 ebp
  00017	c2 04 00	 ret	 4
??4CHorzScaleRegion@@QAEAAV0@$$QAV0@@Z ENDP		; CHorzScaleRegion::operator=
_TEXT	ENDS
; Function compile flags: /Ogtp
;	COMDAT ??4CHorzScaleRegion@@QAEAAV0@ABV0@@Z
_TEXT	SEGMENT
___that$ = 8						; size = 4
??4CHorzScaleRegion@@QAEAAV0@ABV0@@Z PROC		; CHorzScaleRegion::operator=, COMDAT
; _this$ = ecx
  00000	55		 push	 ebp
  00001	8b ec		 mov	 ebp, esp
  00003	8b 45 08	 mov	 eax, DWORD PTR ___that$[ebp]
  00006	0f 10 00	 movups	 xmm0, XMMWORD PTR [eax]
  00009	0f 11 01	 movups	 XMMWORD PTR [ecx], xmm0
  0000c	0f 10 40 10	 movups	 xmm0, XMMWORD PTR [eax+16]
  00010	8b c1		 mov	 eax, ecx
  00012	0f 11 41 10	 movups	 XMMWORD PTR [ecx+16], xmm0
  00016	5d		 pop	 ebp
  00017	c2 04 00	 ret	 4
??4CHorzScaleRegion@@QAEAAV0@ABV0@@Z ENDP		; CHorzScaleRegion::operator=
_TEXT	ENDS
; Function compile flags: /Ogtp
;	COMDAT ??4CVertScaleRegionWidth@@QAEAAV0@$$QAV0@@Z
_TEXT	SEGMENT
___that$ = 8						; size = 4
??4CVertScaleRegionWidth@@QAEAAV0@$$QAV0@@Z PROC	; CVertScaleRegionWidth::operator=, COMDAT
; _this$ = ecx
  00000	55		 push	 ebp
  00001	8b ec		 mov	 ebp, esp
  00003	8b 55 08	 mov	 edx, DWORD PTR ___that$[ebp]
  00006	8b 02		 mov	 eax, DWORD PTR [edx]
  00008	89 01		 mov	 DWORD PTR [ecx], eax
  0000a	8b 42 04	 mov	 eax, DWORD PTR [edx+4]
  0000d	89 41 04	 mov	 DWORD PTR [ecx+4], eax
  00010	8b c1		 mov	 eax, ecx
  00012	5d		 pop	 ebp
  00013	c2 04 00	 ret	 4
??4CVertScaleRegionWidth@@QAEAAV0@$$QAV0@@Z ENDP	; CVertScaleRegionWidth::operator=
_TEXT	ENDS
; Function compile flags: /Ogtp
;	COMDAT ??4CVertScaleRegionWidth@@QAEAAV0@ABV0@@Z
_TEXT	SEGMENT
___that$ = 8						; size = 4
??4CVertScaleRegionWidth@@QAEAAV0@ABV0@@Z PROC		; CVertScaleRegionWidth::operator=, COMDAT
; _this$ = ecx
  00000	55		 push	 ebp
  00001	8b ec		 mov	 ebp, esp
  00003	8b 45 08	 mov	 eax, DWORD PTR ___that$[ebp]
  00006	8b 10		 mov	 edx, DWORD PTR [eax]
  00008	8b 40 04	 mov	 eax, DWORD PTR [eax+4]
  0000b	89 41 04	 mov	 DWORD PTR [ecx+4], eax
  0000e	8b c1		 mov	 eax, ecx
  00010	89 11		 mov	 DWORD PTR [ecx], edx
  00012	5d		 pop	 ebp
  00013	c2 04 00	 ret	 4
??4CVertScaleRegionWidth@@QAEAAV0@ABV0@@Z ENDP		; CVertScaleRegionWidth::operator=
_TEXT	ENDS
; Function compile flags: /Ogtp
;	COMDAT ??4CHorzScaleRegionHeight@@QAEAAV0@$$QAV0@@Z
_TEXT	SEGMENT
___that$ = 8						; size = 4
??4CHorzScaleRegionHeight@@QAEAAV0@$$QAV0@@Z PROC	; CHorzScaleRegionHeight::operator=, COMDAT
; _this$ = ecx
  00000	55		 push	 ebp
  00001	8b ec		 mov	 ebp, esp
  00003	8b 55 08	 mov	 edx, DWORD PTR ___that$[ebp]
  00006	8b 02		 mov	 eax, DWORD PTR [edx]
  00008	89 01		 mov	 DWORD PTR [ecx], eax
  0000a	8b 42 04	 mov	 eax, DWORD PTR [edx+4]
  0000d	89 41 04	 mov	 DWORD PTR [ecx+4], eax
  00010	8b c1		 mov	 eax, ecx
  00012	5d		 pop	 ebp
  00013	c2 04 00	 ret	 4
??4CHorzScaleRegionHeight@@QAEAAV0@$$QAV0@@Z ENDP	; CHorzScaleRegionHeight::operator=
_TEXT	ENDS
; Function compile flags: /Ogtp
;	COMDAT ??4CHorzScaleRegionHeight@@QAEAAV0@ABV0@@Z
_TEXT	SEGMENT
___that$ = 8						; size = 4
??4CHorzScaleRegionHeight@@QAEAAV0@ABV0@@Z PROC		; CHorzScaleRegionHeight::operator=, COMDAT
; _this$ = ecx
  00000	55		 push	 ebp
  00001	8b ec		 mov	 ebp, esp
  00003	8b 45 08	 mov	 eax, DWORD PTR ___that$[ebp]
  00006	8b 10		 mov	 edx, DWORD PTR [eax]
  00008	8b 40 04	 mov	 eax, DWORD PTR [eax+4]
  0000b	89 41 04	 mov	 DWORD PTR [ecx+4], eax
  0000e	8b c1		 mov	 eax, ecx
  00010	89 11		 mov	 DWORD PTR [ecx], edx
  00012	5d		 pop	 ebp
  00013	c2 04 00	 ret	 4
??4CHorzScaleRegionHeight@@QAEAAV0@ABV0@@Z ENDP		; CHorzScaleRegionHeight::operator=
_TEXT	ENDS
; Function compile flags: /Ogtp
;	COMDAT ??0CVerticalScale@@QAE@ABV0@@Z
_TEXT	SEGMENT
_this$ = -4						; size = 4
___that$ = 8						; size = 4
??0CVerticalScale@@QAE@ABV0@@Z PROC			; CVerticalScale::CVerticalScale, COMDAT
; _this$ = ecx
  00000	55		 push	 ebp
  00001	8b ec		 mov	 ebp, esp
  00003	51		 push	 ecx
  00004	56		 push	 esi
  00005	8b 75 08	 mov	 esi, DWORD PTR ___that$[ebp]
  00008	57		 push	 edi
  00009	8b f9		 mov	 edi, ecx
  0000b	89 7d fc	 mov	 DWORD PTR _this$[ebp], edi
  0000e	8d 46 04	 lea	 eax, DWORD PTR [esi+4]
  00011	50		 push	 eax
  00012	8d 4f 04	 lea	 ecx, DWORD PTR [edi+4]
  00015	c7 07 00 00 00
	00		 mov	 DWORD PTR [edi], OFFSET ??_7CScale@@6B@
  0001b	ff 15 00 00 00
	00		 call	 DWORD PTR __imp_??0?$CStringT@DV?$StrTraitMFC_DLL@DV?$ChTraitsCRT@D@ATL@@@@@ATL@@QAE@ABV01@@Z
  00021	8b 46 08	 mov	 eax, DWORD PTR [esi+8]
  00024	89 47 08	 mov	 DWORD PTR [edi+8], eax
  00027	c7 07 00 00 00
	00		 mov	 DWORD PTR [edi], OFFSET ??_7CVerticalScale@@6B@
  0002d	8b 46 0c	 mov	 eax, DWORD PTR [esi+12]
  00030	89 47 0c	 mov	 DWORD PTR [edi+12], eax
  00033	8b 46 10	 mov	 eax, DWORD PTR [esi+16]
  00036	89 47 10	 mov	 DWORD PTR [edi+16], eax
  00039	8b 46 14	 mov	 eax, DWORD PTR [esi+20]
  0003c	89 47 14	 mov	 DWORD PTR [edi+20], eax
  0003f	8b 46 18	 mov	 eax, DWORD PTR [esi+24]
  00042	89 47 18	 mov	 DWORD PTR [edi+24], eax
  00045	f2 0f 10 46 20	 movsd	 xmm0, QWORD PTR [esi+32]
  0004a	f2 0f 11 47 20	 movsd	 QWORD PTR [edi+32], xmm0
  0004f	f2 0f 10 46 28	 movsd	 xmm0, QWORD PTR [esi+40]
  00054	f2 0f 11 47 28	 movsd	 QWORD PTR [edi+40], xmm0
  00059	8b 46 30	 mov	 eax, DWORD PTR [esi+48]
  0005c	89 47 30	 mov	 DWORD PTR [edi+48], eax
  0005f	8a 46 34	 mov	 al, BYTE PTR [esi+52]
  00062	88 47 34	 mov	 BYTE PTR [edi+52], al
  00065	f2 0f 10 46 38	 movsd	 xmm0, QWORD PTR [esi+56]
  0006a	f2 0f 11 47 38	 movsd	 QWORD PTR [edi+56], xmm0
  0006f	f2 0f 10 46 40	 movsd	 xmm0, QWORD PTR [esi+64]
  00074	f2 0f 11 47 40	 movsd	 QWORD PTR [edi+64], xmm0
  00079	8b 46 48	 mov	 eax, DWORD PTR [esi+72]
  0007c	89 47 48	 mov	 DWORD PTR [edi+72], eax
  0007f	8b 46 4c	 mov	 eax, DWORD PTR [esi+76]
  00082	89 47 4c	 mov	 DWORD PTR [edi+76], eax
  00085	8b 46 50	 mov	 eax, DWORD PTR [esi+80]
  00088	89 47 50	 mov	 DWORD PTR [edi+80], eax
  0008b	8b c7		 mov	 eax, edi
  0008d	5f		 pop	 edi
  0008e	5e		 pop	 esi
  0008f	8b e5		 mov	 esp, ebp
  00091	5d		 pop	 ebp
  00092	c2 04 00	 ret	 4
??0CVerticalScale@@QAE@ABV0@@Z ENDP			; CVerticalScale::CVerticalScale
_TEXT	ENDS
; Function compile flags: /Ogtp
;	COMDAT ??1CVerticalScale@@QAE@XZ
_TEXT	SEGMENT
??1CVerticalScale@@QAE@XZ PROC				; CVerticalScale::~CVerticalScale, COMDAT
; _this$ = ecx
  00000	83 c1 04	 add	 ecx, 4
  00003	ff 25 00 00 00
	00		 jmp	 DWORD PTR __imp_??1?$CStringT@DV?$StrTraitMFC_DLL@DV?$ChTraitsCRT@D@ATL@@@@@ATL@@QAE@XZ
??1CVerticalScale@@QAE@XZ ENDP				; CVerticalScale::~CVerticalScale
_TEXT	ENDS
; Function compile flags: /Ogtp
; File D:\git\src\IBK\IBK_DRFN\ProjSrc\SrcChartEx\ChartOCX\Include_Chart\ScaleBaseData.h
;	COMDAT ?GetSpace@CVerticalScale@@QBEXAAH0@Z
_TEXT	SEGMENT
_p_nUpSpace$ = 8					; size = 4
_p_nDownSpace$ = 12					; size = 4
?GetSpace@CVerticalScale@@QBEXAAH0@Z PROC		; CVerticalScale::GetSpace, COMDAT
; _this$ = ecx

; 240  : 	void	GetSpace( int &p_nUpSpace, int &p_nDownSpace) const		{	p_nUpSpace = m_nUpSpace;	p_nDownSpace = m_nDownSpace;	}

  00000	55		 push	 ebp
  00001	8b ec		 mov	 ebp, esp
  00003	8b 45 08	 mov	 eax, DWORD PTR _p_nUpSpace$[ebp]
  00006	8b 51 4c	 mov	 edx, DWORD PTR [ecx+76]
  00009	89 10		 mov	 DWORD PTR [eax], edx
  0000b	8b 45 0c	 mov	 eax, DWORD PTR _p_nDownSpace$[ebp]
  0000e	8b 49 50	 mov	 ecx, DWORD PTR [ecx+80]
  00011	89 08		 mov	 DWORD PTR [eax], ecx
  00013	5d		 pop	 ebp
  00014	c2 08 00	 ret	 8
?GetSpace@CVerticalScale@@QBEXAAH0@Z ENDP		; CVerticalScale::GetSpace
_TEXT	ENDS
; Function compile flags: /Ogtp
; File D:\git\src\IBK\IBK_DRFN\ProjSrc\SrcChartEx\ChartOCX\Include_Chart\ScaleBaseData.h
;	COMDAT ?SetSpace@CVerticalScale@@QAEXHH@Z
_TEXT	SEGMENT
_p_nUpSpace$ = 8					; size = 4
_p_nDownSpace$ = 12					; size = 4
?SetSpace@CVerticalScale@@QAEXHH@Z PROC			; CVerticalScale::SetSpace, COMDAT
; _this$ = ecx

; 239  : 	void	SetSpace( int p_nUpSpace, int p_nDownSpace)				{	m_nUpSpace = p_nUpSpace;	m_nDownSpace = p_nDownSpace;	}

  00000	55		 push	 ebp
  00001	8b ec		 mov	 ebp, esp
  00003	8b 45 08	 mov	 eax, DWORD PTR _p_nUpSpace$[ebp]
  00006	89 41 4c	 mov	 DWORD PTR [ecx+76], eax
  00009	8b 45 0c	 mov	 eax, DWORD PTR _p_nDownSpace$[ebp]
  0000c	89 41 50	 mov	 DWORD PTR [ecx+80], eax
  0000f	5d		 pop	 ebp
  00010	c2 08 00	 ret	 8
?SetSpace@CVerticalScale@@QAEXHH@Z ENDP			; CVerticalScale::SetSpace
_TEXT	ENDS
; Function compile flags: /Ogtp
; File D:\git\src\IBK\IBK_DRFN\ProjSrc\SrcChartEx\ChartOCX\Include_Chart\ScaleBaseData.h
;	COMDAT ?SetVertScaleInvertType@CVerticalScale@@QAEX_N@Z
_TEXT	SEGMENT
_bIsVertScaleInvertType$ = 8				; size = 1
?SetVertScaleInvertType@CVerticalScale@@QAEX_N@Z PROC	; CVerticalScale::SetVertScaleInvertType, COMDAT
; _this$ = ecx

; 232  : 	void	SetVertScaleInvertType(const bool bIsVertScaleInvertType)	{	m_bIsVertScaleInvertType = bIsVertScaleInvertType;	}

  00000	55		 push	 ebp
  00001	8b ec		 mov	 ebp, esp
  00003	8a 45 08	 mov	 al, BYTE PTR _bIsVertScaleInvertType$[ebp]
  00006	88 41 34	 mov	 BYTE PTR [ecx+52], al
  00009	5d		 pop	 ebp
  0000a	c2 04 00	 ret	 4
?SetVertScaleInvertType@CVerticalScale@@QAEX_N@Z ENDP	; CVerticalScale::SetVertScaleInvertType
_TEXT	ENDS
; Function compile flags: /Ogtp
; File D:\git\src\IBK\IBK_DRFN\ProjSrc\SrcChartEx\ChartOCX\Include_Chart\ScaleBaseData.h
;	COMDAT ?GetVertScaleInvertType@CVerticalScale@@QBE_NXZ
_TEXT	SEGMENT
?GetVertScaleInvertType@CVerticalScale@@QBE_NXZ PROC	; CVerticalScale::GetVertScaleInvertType, COMDAT
; _this$ = ecx

; 230  : 	bool	GetVertScaleInvertType() const								{	return m_bIsVertScaleInvertType;	}

  00000	8a 41 34	 mov	 al, BYTE PTR [ecx+52]
  00003	c3		 ret	 0
?GetVertScaleInvertType@CVerticalScale@@QBE_NXZ ENDP	; CVerticalScale::GetVertScaleInvertType
_TEXT	ENDS
; Function compile flags: /Ogtp
; File D:\git\src\IBK\IBK_DRFN\ProjSrc\SrcChartEx\ChartOCX\Include_Chart\ScaleBaseData.h
;	COMDAT ?GetVertUserHogaScaleType@CVerticalScale@@QBEHXZ
_TEXT	SEGMENT
?GetVertUserHogaScaleType@CVerticalScale@@QBEHXZ PROC	; CVerticalScale::GetVertUserHogaScaleType, COMDAT
; _this$ = ecx

; 226  : 	int			GetVertUserHogaScaleType( void) const						{	return m_nUserHogaType;		}			

  00000	8b 41 48	 mov	 eax, DWORD PTR [ecx+72]
  00003	c3		 ret	 0
?GetVertUserHogaScaleType@CVerticalScale@@QBEHXZ ENDP	; CVerticalScale::GetVertUserHogaScaleType
_TEXT	ENDS
; Function compile flags: /Ogtp
; File D:\git\src\IBK\IBK_DRFN\ProjSrc\SrcChartEx\ChartOCX\Include_Chart\ScaleBaseData.h
;	COMDAT ?GetVertScaleUserNumber@CVerticalScale@@QBENXZ
_TEXT	SEGMENT
?GetVertScaleUserNumber@CVerticalScale@@QBENXZ PROC	; CVerticalScale::GetVertScaleUserNumber, COMDAT
; _this$ = ecx

; 225  : 	double		GetVertScaleUserNumber( void) const						{	return m_dUserNumber;		}			

  00000	dd 41 38	 fld	 QWORD PTR [ecx+56]
  00003	c3		 ret	 0
?GetVertScaleUserNumber@CVerticalScale@@QBENXZ ENDP	; CVerticalScale::GetVertScaleUserNumber
_TEXT	ENDS
; Function compile flags: /Ogtp
; File D:\git\src\IBK\IBK_DRFN\ProjSrc\SrcChartEx\ChartOCX\Include_Chart\ScaleBaseData.h
;	COMDAT ?GetVertScaleHoGaNumber@CVerticalScale@@QBENXZ
_TEXT	SEGMENT
?GetVertScaleHoGaNumber@CVerticalScale@@QBENXZ PROC	; CVerticalScale::GetVertScaleHoGaNumber, COMDAT
; _this$ = ecx

; 224  : 	double		GetVertScaleHoGaNumber( void) const						{	return m_dHogaNumber;		}			

  00000	dd 41 40	 fld	 QWORD PTR [ecx+64]
  00003	c3		 ret	 0
?GetVertScaleHoGaNumber@CVerticalScale@@QBENXZ ENDP	; CVerticalScale::GetVertScaleHoGaNumber
_TEXT	ENDS
; Function compile flags: /Ogtp
; File D:\git\src\IBK\IBK_DRFN\ProjSrc\SrcChartEx\ChartOCX\Include_Chart\ScaleBaseData.h
;	COMDAT ?SetVertUserHogaScaleType@CVerticalScale@@QAEXH@Z
_TEXT	SEGMENT
_p_nUserHogaType$ = 8					; size = 4
?SetVertUserHogaScaleType@CVerticalScale@@QAEXH@Z PROC	; CVerticalScale::SetVertUserHogaScaleType, COMDAT
; _this$ = ecx

; 222  : 	void		SetVertUserHogaScaleType( int p_nUserHogaType)		{	m_nUserHogaType = p_nUserHogaType;	}

  00000	55		 push	 ebp
  00001	8b ec		 mov	 ebp, esp
  00003	8b 45 08	 mov	 eax, DWORD PTR _p_nUserHogaType$[ebp]
  00006	89 41 48	 mov	 DWORD PTR [ecx+72], eax
  00009	5d		 pop	 ebp
  0000a	c2 04 00	 ret	 4
?SetVertUserHogaScaleType@CVerticalScale@@QAEXH@Z ENDP	; CVerticalScale::SetVertUserHogaScaleType
_TEXT	ENDS
; Function compile flags: /Ogtp
; File D:\git\src\IBK\IBK_DRFN\ProjSrc\SrcChartEx\ChartOCX\Include_Chart\ScaleBaseData.h
;	COMDAT ?SetVertScaleUserNumber@CVerticalScale@@QAEXN@Z
_TEXT	SEGMENT
_p_dUserNumber$ = 8					; size = 8
?SetVertScaleUserNumber@CVerticalScale@@QAEXN@Z PROC	; CVerticalScale::SetVertScaleUserNumber, COMDAT
; _this$ = ecx

; 221  : 	void		SetVertScaleUserNumber( double p_dUserNumber)			{	m_dUserNumber = p_dUserNumber;	}

  00000	55		 push	 ebp
  00001	8b ec		 mov	 ebp, esp
  00003	f2 0f 10 45 08	 movsd	 xmm0, QWORD PTR _p_dUserNumber$[ebp]
  00008	f2 0f 11 41 38	 movsd	 QWORD PTR [ecx+56], xmm0
  0000d	5d		 pop	 ebp
  0000e	c2 08 00	 ret	 8
?SetVertScaleUserNumber@CVerticalScale@@QAEXN@Z ENDP	; CVerticalScale::SetVertScaleUserNumber
_TEXT	ENDS
; Function compile flags: /Ogtp
; File D:\git\src\IBK\IBK_DRFN\ProjSrc\SrcChartEx\ChartOCX\Include_Chart\ScaleBaseData.h
;	COMDAT ?SetVertScaleHoGaNumber@CVerticalScale@@QAEXN@Z
_TEXT	SEGMENT
_p_dHogaNumber$ = 8					; size = 8
?SetVertScaleHoGaNumber@CVerticalScale@@QAEXN@Z PROC	; CVerticalScale::SetVertScaleHoGaNumber, COMDAT
; _this$ = ecx

; 220  : 	void		SetVertScaleHoGaNumber( double p_dHogaNumber)			{	m_dHogaNumber = p_dHogaNumber;	}

  00000	55		 push	 ebp
  00001	8b ec		 mov	 ebp, esp
  00003	f2 0f 10 45 08	 movsd	 xmm0, QWORD PTR _p_dHogaNumber$[ebp]
  00008	f2 0f 11 41 40	 movsd	 QWORD PTR [ecx+64], xmm0
  0000d	5d		 pop	 ebp
  0000e	c2 08 00	 ret	 8
?SetVertScaleHoGaNumber@CVerticalScale@@QAEXN@Z ENDP	; CVerticalScale::SetVertScaleHoGaNumber
_TEXT	ENDS
; Function compile flags: /Ogtp
; File D:\git\src\IBK\IBK_DRFN\ProjSrc\SrcChartEx\ChartOCX\Include_Chart\ScaleBaseData.h
;	COMDAT ?SetVertScaleMax@CVerticalScale@@QAEXN@Z
_TEXT	SEGMENT
_p_dMax$ = 8						; size = 8
?SetVertScaleMax@CVerticalScale@@QAEXN@Z PROC		; CVerticalScale::SetVertScaleMax, COMDAT
; _this$ = ecx

; 211  : 	void							SetVertScaleMax( double p_dMax)											{	m_dMax = p_dMax;	}

  00000	55		 push	 ebp
  00001	8b ec		 mov	 ebp, esp
  00003	f2 0f 10 45 08	 movsd	 xmm0, QWORD PTR _p_dMax$[ebp]
  00008	f2 0f 11 41 28	 movsd	 QWORD PTR [ecx+40], xmm0
  0000d	5d		 pop	 ebp
  0000e	c2 08 00	 ret	 8
?SetVertScaleMax@CVerticalScale@@QAEXN@Z ENDP		; CVerticalScale::SetVertScaleMax
_TEXT	ENDS
; Function compile flags: /Ogtp
; File D:\git\src\IBK\IBK_DRFN\ProjSrc\SrcChartEx\ChartOCX\Include_Chart\ScaleBaseData.h
;	COMDAT ?GetVertScaleMax@CVerticalScale@@QBENXZ
_TEXT	SEGMENT
?GetVertScaleMax@CVerticalScale@@QBENXZ PROC		; CVerticalScale::GetVertScaleMax, COMDAT
; _this$ = ecx

; 210  : 	double							GetVertScaleMax( void) const											{	return m_dMax;		}

  00000	dd 41 28	 fld	 QWORD PTR [ecx+40]
  00003	c3		 ret	 0
?GetVertScaleMax@CVerticalScale@@QBENXZ ENDP		; CVerticalScale::GetVertScaleMax
_TEXT	ENDS
; Function compile flags: /Ogtp
; File D:\git\src\IBK\IBK_DRFN\ProjSrc\SrcChartEx\ChartOCX\Include_Chart\ScaleBaseData.h
;	COMDAT ?SetVertScaleMin@CVerticalScale@@QAEXN@Z
_TEXT	SEGMENT
_p_dMin$ = 8						; size = 8
?SetVertScaleMin@CVerticalScale@@QAEXN@Z PROC		; CVerticalScale::SetVertScaleMin, COMDAT
; _this$ = ecx

; 208  : 	void							SetVertScaleMin( double p_dMin)											{	m_dMin = p_dMin;	}

  00000	55		 push	 ebp
  00001	8b ec		 mov	 ebp, esp
  00003	f2 0f 10 45 08	 movsd	 xmm0, QWORD PTR _p_dMin$[ebp]
  00008	f2 0f 11 41 20	 movsd	 QWORD PTR [ecx+32], xmm0
  0000d	5d		 pop	 ebp
  0000e	c2 08 00	 ret	 8
?SetVertScaleMin@CVerticalScale@@QAEXN@Z ENDP		; CVerticalScale::SetVertScaleMin
_TEXT	ENDS
; Function compile flags: /Ogtp
; File D:\git\src\IBK\IBK_DRFN\ProjSrc\SrcChartEx\ChartOCX\Include_Chart\ScaleBaseData.h
;	COMDAT ?GetVertScaleMin@CVerticalScale@@QBENXZ
_TEXT	SEGMENT
?GetVertScaleMin@CVerticalScale@@QBENXZ PROC		; CVerticalScale::GetVertScaleMin, COMDAT
; _this$ = ecx

; 207  : 	double							GetVertScaleMin( void) const											{	return m_dMin;		}			

  00000	dd 41 20	 fld	 QWORD PTR [ecx+32]
  00003	c3		 ret	 0
?GetVertScaleMin@CVerticalScale@@QBENXZ ENDP		; CVerticalScale::GetVertScaleMin
_TEXT	ENDS
; Function compile flags: /Ogtp
; File D:\git\src\IBK\IBK_DRFN\ProjSrc\SrcChartEx\ChartOCX\Include_Chart\ScaleBaseData.h
;	COMDAT ?SetVertScaleMinMaxType@CVerticalScale@@QAEXW4VERTMINMAXTYPE@CScaleBaseData@@@Z
_TEXT	SEGMENT
_p_eMinMaxType$ = 8					; size = 4
?SetVertScaleMinMaxType@CVerticalScale@@QAEXW4VERTMINMAXTYPE@CScaleBaseData@@@Z PROC ; CVerticalScale::SetVertScaleMinMaxType, COMDAT
; _this$ = ecx

; 205  : 	void							SetVertScaleMinMaxType( CScaleBaseData::VERTMINMAXTYPE p_eMinMaxType) 	{	m_eMinMaxType = p_eMinMaxType;	}

  00000	55		 push	 ebp
  00001	8b ec		 mov	 ebp, esp
  00003	8b 45 08	 mov	 eax, DWORD PTR _p_eMinMaxType$[ebp]
  00006	89 41 18	 mov	 DWORD PTR [ecx+24], eax
  00009	5d		 pop	 ebp
  0000a	c2 04 00	 ret	 4
?SetVertScaleMinMaxType@CVerticalScale@@QAEXW4VERTMINMAXTYPE@CScaleBaseData@@@Z ENDP ; CVerticalScale::SetVertScaleMinMaxType
_TEXT	ENDS
; Function compile flags: /Ogtp
; File D:\git\src\IBK\IBK_DRFN\ProjSrc\SrcChartEx\ChartOCX\Include_Chart\ScaleBaseData.h
;	COMDAT ?GetVertScaleMinMaxType@CVerticalScale@@QBE?AW4VERTMINMAXTYPE@CScaleBaseData@@XZ
_TEXT	SEGMENT
?GetVertScaleMinMaxType@CVerticalScale@@QBE?AW4VERTMINMAXTYPE@CScaleBaseData@@XZ PROC ; CVerticalScale::GetVertScaleMinMaxType, COMDAT
; _this$ = ecx

; 204  : 	CScaleBaseData::VERTMINMAXTYPE	GetVertScaleMinMaxType( void) const										{	return m_eMinMaxType;			}

  00000	8b 41 18	 mov	 eax, DWORD PTR [ecx+24]
  00003	c3		 ret	 0
?GetVertScaleMinMaxType@CVerticalScale@@QBE?AW4VERTMINMAXTYPE@CScaleBaseData@@XZ ENDP ; CVerticalScale::GetVertScaleMinMaxType
_TEXT	ENDS
; Function compile flags: /Ogtp
; File D:\git\src\IBK\IBK_DRFN\ProjSrc\SrcChartEx\ChartOCX\Include_Chart\ScaleBaseData.h
;	COMDAT ?SetVertScaleMinMaxLock@CVerticalScale@@QAEXH@Z
_TEXT	SEGMENT
_p_bMinMaxLock$ = 8					; size = 4
?SetVertScaleMinMaxLock@CVerticalScale@@QAEXH@Z PROC	; CVerticalScale::SetVertScaleMinMaxLock, COMDAT
; _this$ = ecx

; 202  : 	void							SetVertScaleMinMaxLock( BOOL p_bMinMaxLock)								{	m_bMinMaxLock = p_bMinMaxLock;	}

  00000	55		 push	 ebp
  00001	8b ec		 mov	 ebp, esp
  00003	8b 45 08	 mov	 eax, DWORD PTR _p_bMinMaxLock$[ebp]
  00006	89 41 14	 mov	 DWORD PTR [ecx+20], eax
  00009	5d		 pop	 ebp
  0000a	c2 04 00	 ret	 4
?SetVertScaleMinMaxLock@CVerticalScale@@QAEXH@Z ENDP	; CVerticalScale::SetVertScaleMinMaxLock
_TEXT	ENDS
; Function compile flags: /Ogtp
; File D:\git\src\IBK\IBK_DRFN\ProjSrc\SrcChartEx\ChartOCX\Include_Chart\ScaleBaseData.h
;	COMDAT ?IsVertScaleMinMaxLock@CVerticalScale@@QBEHXZ
_TEXT	SEGMENT
?IsVertScaleMinMaxLock@CVerticalScale@@QBEHXZ PROC	; CVerticalScale::IsVertScaleMinMaxLock, COMDAT
; _this$ = ecx

; 201  : 	BOOL							IsVertScaleMinMaxLock( void) const										{	return m_bMinMaxLock;			}

  00000	8b 41 14	 mov	 eax, DWORD PTR [ecx+20]
  00003	c3		 ret	 0
?IsVertScaleMinMaxLock@CVerticalScale@@QBEHXZ ENDP	; CVerticalScale::IsVertScaleMinMaxLock
_TEXT	ENDS
; Function compile flags: /Ogtp
;	COMDAT ??0CHorizontalScale@@QAE@ABV0@@Z
_TEXT	SEGMENT
_this$ = -16						; size = 4
__$EHRec$ = -12						; size = 12
_this$ = 8						; size = 4
___that$ = 8						; size = 4
??0CHorizontalScale@@QAE@ABV0@@Z PROC			; CHorizontalScale::CHorizontalScale, COMDAT
; _this$ = ecx
  00000	55		 push	 ebp
  00001	8b ec		 mov	 ebp, esp
  00003	6a ff		 push	 -1
  00005	68 00 00 00 00	 push	 __ehhandler$??0CHorizontalScale@@QAE@ABV0@@Z
  0000a	64 a1 00 00 00
	00		 mov	 eax, DWORD PTR fs:0
  00010	50		 push	 eax
  00011	51		 push	 ecx
  00012	53		 push	 ebx
  00013	56		 push	 esi
  00014	57		 push	 edi
  00015	a1 00 00 00 00	 mov	 eax, DWORD PTR ___security_cookie
  0001a	33 c5		 xor	 eax, ebp
  0001c	50		 push	 eax
  0001d	8d 45 f4	 lea	 eax, DWORD PTR __$EHRec$[ebp]
  00020	64 a3 00 00 00
	00		 mov	 DWORD PTR fs:0, eax
  00026	8b f1		 mov	 esi, ecx
  00028	89 75 f0	 mov	 DWORD PTR _this$[ebp], esi
  0002b	8b 5d 08	 mov	 ebx, DWORD PTR ___that$[ebp]
  0002e	8d 4e 04	 lea	 ecx, DWORD PTR [esi+4]
  00031	c7 06 00 00 00
	00		 mov	 DWORD PTR [esi], OFFSET ??_7CScale@@6B@
  00037	8d 43 04	 lea	 eax, DWORD PTR [ebx+4]
  0003a	50		 push	 eax
  0003b	ff 15 00 00 00
	00		 call	 DWORD PTR __imp_??0?$CStringT@DV?$StrTraitMFC_DLL@DV?$ChTraitsCRT@D@ATL@@@@@ATL@@QAE@ABV01@@Z
  00041	8b 43 08	 mov	 eax, DWORD PTR [ebx+8]
  00044	89 46 08	 mov	 DWORD PTR [esi+8], eax
  00047	c7 06 00 00 00
	00		 mov	 DWORD PTR [esi], OFFSET ??_7CHorizontalScale@@6B@
  0004d	8d 7b 10	 lea	 edi, DWORD PTR [ebx+16]
  00050	8b 43 0c	 mov	 eax, DWORD PTR [ebx+12]
  00053	89 46 0c	 mov	 DWORD PTR [esi+12], eax
  00056	83 c6 10	 add	 esi, 16			; 00000010H
  00059	57		 push	 edi
  0005a	8b ce		 mov	 ecx, esi
  0005c	c7 45 fc 00 00
	00 00		 mov	 DWORD PTR __$EHRec$[ebp+8], 0
  00063	89 75 08	 mov	 DWORD PTR _this$[ebp], esi
  00066	ff 15 00 00 00
	00		 call	 DWORD PTR __imp_??0?$CStringT@DV?$StrTraitMFC_DLL@DV?$ChTraitsCRT@D@ATL@@@@@ATL@@QAE@ABV01@@Z
  0006c	8d 47 04	 lea	 eax, DWORD PTR [edi+4]
  0006f	c6 45 fc 01	 mov	 BYTE PTR __$EHRec$[ebp+8], 1
  00073	50		 push	 eax
  00074	8d 4e 04	 lea	 ecx, DWORD PTR [esi+4]
  00077	ff 15 00 00 00
	00		 call	 DWORD PTR __imp_??0?$CStringT@DV?$StrTraitMFC_DLL@DV?$ChTraitsCRT@D@ATL@@@@@ATL@@QAE@ABV01@@Z
  0007d	8b 4d f0	 mov	 ecx, DWORD PTR _this$[ebp]
  00080	8b 47 08	 mov	 eax, DWORD PTR [edi+8]
  00083	89 46 08	 mov	 DWORD PTR [esi+8], eax
  00086	8b 43 1c	 mov	 eax, DWORD PTR [ebx+28]
  00089	89 41 1c	 mov	 DWORD PTR [ecx+28], eax
  0008c	8b 43 20	 mov	 eax, DWORD PTR [ebx+32]
  0008f	89 41 20	 mov	 DWORD PTR [ecx+32], eax
  00092	8b 43 24	 mov	 eax, DWORD PTR [ebx+36]
  00095	89 41 24	 mov	 DWORD PTR [ecx+36], eax
  00098	8b 43 28	 mov	 eax, DWORD PTR [ebx+40]
  0009b	89 41 28	 mov	 DWORD PTR [ecx+40], eax
  0009e	8b 43 2c	 mov	 eax, DWORD PTR [ebx+44]
  000a1	89 41 2c	 mov	 DWORD PTR [ecx+44], eax
  000a4	8b 43 30	 mov	 eax, DWORD PTR [ebx+48]
  000a7	89 41 30	 mov	 DWORD PTR [ecx+48], eax
  000aa	8b 43 34	 mov	 eax, DWORD PTR [ebx+52]
  000ad	89 41 34	 mov	 DWORD PTR [ecx+52], eax
  000b0	8b 43 38	 mov	 eax, DWORD PTR [ebx+56]
  000b3	89 41 38	 mov	 DWORD PTR [ecx+56], eax
  000b6	8b 43 3c	 mov	 eax, DWORD PTR [ebx+60]
  000b9	89 41 3c	 mov	 DWORD PTR [ecx+60], eax
  000bc	8b 43 40	 mov	 eax, DWORD PTR [ebx+64]
  000bf	89 41 40	 mov	 DWORD PTR [ecx+64], eax
  000c2	8b 43 44	 mov	 eax, DWORD PTR [ebx+68]
  000c5	89 41 44	 mov	 DWORD PTR [ecx+68], eax
  000c8	8b 43 48	 mov	 eax, DWORD PTR [ebx+72]
  000cb	89 41 48	 mov	 DWORD PTR [ecx+72], eax
  000ce	0f b7 43 4c	 movzx	 eax, WORD PTR [ebx+76]
  000d2	66 89 41 4c	 mov	 WORD PTR [ecx+76], ax
  000d6	0f b7 43 4e	 movzx	 eax, WORD PTR [ebx+78]
  000da	66 89 41 4e	 mov	 WORD PTR [ecx+78], ax
  000de	0f b7 43 50	 movzx	 eax, WORD PTR [ebx+80]
  000e2	66 89 41 50	 mov	 WORD PTR [ecx+80], ax
  000e6	0f b7 43 52	 movzx	 eax, WORD PTR [ebx+82]
  000ea	66 89 41 52	 mov	 WORD PTR [ecx+82], ax
  000ee	8b 43 54	 mov	 eax, DWORD PTR [ebx+84]
  000f1	89 41 54	 mov	 DWORD PTR [ecx+84], eax
  000f4	8b 43 58	 mov	 eax, DWORD PTR [ebx+88]
  000f7	89 41 58	 mov	 DWORD PTR [ecx+88], eax
  000fa	8b 43 5c	 mov	 eax, DWORD PTR [ebx+92]
  000fd	89 41 5c	 mov	 DWORD PTR [ecx+92], eax
  00100	8b 43 60	 mov	 eax, DWORD PTR [ebx+96]
  00103	89 41 60	 mov	 DWORD PTR [ecx+96], eax
  00106	8b c1		 mov	 eax, ecx
  00108	8b 4d f4	 mov	 ecx, DWORD PTR __$EHRec$[ebp]
  0010b	64 89 0d 00 00
	00 00		 mov	 DWORD PTR fs:0, ecx
  00112	59		 pop	 ecx
  00113	5f		 pop	 edi
  00114	5e		 pop	 esi
  00115	5b		 pop	 ebx
  00116	8b e5		 mov	 esp, ebp
  00118	5d		 pop	 ebp
  00119	c2 04 00	 ret	 4
_TEXT	ENDS
;	COMDAT text$x
text$x	SEGMENT
__unwindfunclet$??0CHorizontalScale@@QAE@ABV0@@Z$0:
  00000	8b 4d f0	 mov	 ecx, DWORD PTR _this$[ebp]
  00003	e9 00 00 00 00	 jmp	 ??1CScale@@QAE@XZ
__unwindfunclet$??0CHorizontalScale@@QAE@ABV0@@Z$3:
  00008	8b 4d 08	 mov	 ecx, DWORD PTR _this$[ebp]
  0000b	ff 25 00 00 00
	00		 jmp	 DWORD PTR __imp_??1?$CStringT@DV?$StrTraitMFC_DLL@DV?$ChTraitsCRT@D@ATL@@@@@ATL@@QAE@XZ
  00011	cc		 int	 3
  00012	cc		 int	 3
  00013	cc		 int	 3
  00014	cc		 int	 3
  00015	cc		 int	 3
__ehhandler$??0CHorizontalScale@@QAE@ABV0@@Z:
  00016	90		 npad	 1
  00017	90		 npad	 1
  00018	8b 54 24 08	 mov	 edx, DWORD PTR [esp+8]
  0001c	8d 42 0c	 lea	 eax, DWORD PTR [edx+12]
  0001f	8b 4a ec	 mov	 ecx, DWORD PTR [edx-20]
  00022	33 c8		 xor	 ecx, eax
  00024	e8 00 00 00 00	 call	 @__security_check_cookie@4
  00029	b8 00 00 00 00	 mov	 eax, OFFSET __ehfuncinfo$??0CHorizontalScale@@QAE@ABV0@@Z
  0002e	e9 00 00 00 00	 jmp	 ___CxxFrameHandler3
text$x	ENDS
??0CHorizontalScale@@QAE@ABV0@@Z ENDP			; CHorizontalScale::CHorizontalScale
; Function compile flags: /Ogtp
;	COMDAT ??1CHorizontalScale@@QAE@XZ
_TEXT	SEGMENT
??1CHorizontalScale@@QAE@XZ PROC			; CHorizontalScale::~CHorizontalScale, COMDAT
; _this$ = ecx
  00000	56		 push	 esi
  00001	57		 push	 edi
  00002	8b f9		 mov	 edi, ecx
  00004	8d 4f 14	 lea	 ecx, DWORD PTR [edi+20]
  00007	ff 15 00 00 00
	00		 call	 DWORD PTR __imp_??1?$CStringT@DV?$StrTraitMFC_DLL@DV?$ChTraitsCRT@D@ATL@@@@@ATL@@QAE@XZ
  0000d	8d 4f 10	 lea	 ecx, DWORD PTR [edi+16]
  00010	ff 15 00 00 00
	00		 call	 DWORD PTR __imp_??1?$CStringT@DV?$StrTraitMFC_DLL@DV?$ChTraitsCRT@D@ATL@@@@@ATL@@QAE@XZ
  00016	8d 4f 04	 lea	 ecx, DWORD PTR [edi+4]
  00019	5f		 pop	 edi
  0001a	5e		 pop	 esi
  0001b	ff 25 00 00 00
	00		 jmp	 DWORD PTR __imp_??1?$CStringT@DV?$StrTraitMFC_DLL@DV?$ChTraitsCRT@D@ATL@@@@@ATL@@QAE@XZ
??1CHorizontalScale@@QAE@XZ ENDP			; CHorizontalScale::~CHorizontalScale
_TEXT	ENDS
; Function compile flags: /Ogtp
;	COMDAT ??0CScale@@QAE@ABV0@@Z
_TEXT	SEGMENT
_this$ = -4						; size = 4
___that$ = 8						; size = 4
??0CScale@@QAE@ABV0@@Z PROC				; CScale::CScale, COMDAT
; _this$ = ecx
  00000	55		 push	 ebp
  00001	8b ec		 mov	 ebp, esp
  00003	51		 push	 ecx
  00004	56		 push	 esi
  00005	8b 75 08	 mov	 esi, DWORD PTR ___that$[ebp]
  00008	57		 push	 edi
  00009	8b f9		 mov	 edi, ecx
  0000b	89 7d fc	 mov	 DWORD PTR _this$[ebp], edi
  0000e	8d 46 04	 lea	 eax, DWORD PTR [esi+4]
  00011	50		 push	 eax
  00012	8d 4f 04	 lea	 ecx, DWORD PTR [edi+4]
  00015	c7 07 00 00 00
	00		 mov	 DWORD PTR [edi], OFFSET ??_7CScale@@6B@
  0001b	ff 15 00 00 00
	00		 call	 DWORD PTR __imp_??0?$CStringT@DV?$StrTraitMFC_DLL@DV?$ChTraitsCRT@D@ATL@@@@@ATL@@QAE@ABV01@@Z
  00021	8b 46 08	 mov	 eax, DWORD PTR [esi+8]
  00024	89 47 08	 mov	 DWORD PTR [edi+8], eax
  00027	8b c7		 mov	 eax, edi
  00029	5f		 pop	 edi
  0002a	5e		 pop	 esi
  0002b	8b e5		 mov	 esp, ebp
  0002d	5d		 pop	 ebp
  0002e	c2 04 00	 ret	 4
??0CScale@@QAE@ABV0@@Z ENDP				; CScale::CScale
_TEXT	ENDS
; Function compile flags: /Ogtp
;	COMDAT ??1CScale@@QAE@XZ
_TEXT	SEGMENT
??1CScale@@QAE@XZ PROC					; CScale::~CScale, COMDAT
; _this$ = ecx
  00000	83 c1 04	 add	 ecx, 4
  00003	ff 25 00 00 00
	00		 jmp	 DWORD PTR __imp_??1?$CStringT@DV?$StrTraitMFC_DLL@DV?$ChTraitsCRT@D@ATL@@@@@ATL@@QAE@XZ
??1CScale@@QAE@XZ ENDP					; CScale::~CScale
_TEXT	ENDS
; Function compile flags: /Ogtp
;	COMDAT ??0CScaleCompart@@QAE@ABV0@@Z
_TEXT	SEGMENT
_this$ = -16						; size = 4
__$EHRec$ = -12						; size = 12
___that$ = 8						; size = 4
??0CScaleCompart@@QAE@ABV0@@Z PROC			; CScaleCompart::CScaleCompart, COMDAT
; _this$ = ecx
  00000	55		 push	 ebp
  00001	8b ec		 mov	 ebp, esp
  00003	6a ff		 push	 -1
  00005	68 00 00 00 00	 push	 __ehhandler$??0CScaleCompart@@QAE@ABV0@@Z
  0000a	64 a1 00 00 00
	00		 mov	 eax, DWORD PTR fs:0
  00010	50		 push	 eax
  00011	51		 push	 ecx
  00012	56		 push	 esi
  00013	57		 push	 edi
  00014	a1 00 00 00 00	 mov	 eax, DWORD PTR ___security_cookie
  00019	33 c5		 xor	 eax, ebp
  0001b	50		 push	 eax
  0001c	8d 45 f4	 lea	 eax, DWORD PTR __$EHRec$[ebp]
  0001f	64 a3 00 00 00
	00		 mov	 DWORD PTR fs:0, eax
  00025	8b f9		 mov	 edi, ecx
  00027	89 7d f0	 mov	 DWORD PTR _this$[ebp], edi
  0002a	8b 75 08	 mov	 esi, DWORD PTR ___that$[ebp]
  0002d	56		 push	 esi
  0002e	ff 15 00 00 00
	00		 call	 DWORD PTR __imp_??0?$CStringT@DV?$StrTraitMFC_DLL@DV?$ChTraitsCRT@D@ATL@@@@@ATL@@QAE@ABV01@@Z
  00034	8d 46 04	 lea	 eax, DWORD PTR [esi+4]
  00037	c7 45 fc 00 00
	00 00		 mov	 DWORD PTR __$EHRec$[ebp+8], 0
  0003e	50		 push	 eax
  0003f	8d 4f 04	 lea	 ecx, DWORD PTR [edi+4]
  00042	ff 15 00 00 00
	00		 call	 DWORD PTR __imp_??0?$CStringT@DV?$StrTraitMFC_DLL@DV?$ChTraitsCRT@D@ATL@@@@@ATL@@QAE@ABV01@@Z
  00048	8b 46 08	 mov	 eax, DWORD PTR [esi+8]
  0004b	89 47 08	 mov	 DWORD PTR [edi+8], eax
  0004e	8b c7		 mov	 eax, edi
  00050	8b 4d f4	 mov	 ecx, DWORD PTR __$EHRec$[ebp]
  00053	64 89 0d 00 00
	00 00		 mov	 DWORD PTR fs:0, ecx
  0005a	59		 pop	 ecx
  0005b	5f		 pop	 edi
  0005c	5e		 pop	 esi
  0005d	8b e5		 mov	 esp, ebp
  0005f	5d		 pop	 ebp
  00060	c2 04 00	 ret	 4
_TEXT	ENDS
;	COMDAT text$x
text$x	SEGMENT
__unwindfunclet$??0CScaleCompart@@QAE@ABV0@@Z$0:
  00000	8b 4d f0	 mov	 ecx, DWORD PTR _this$[ebp]
  00003	ff 25 00 00 00
	00		 jmp	 DWORD PTR __imp_??1?$CStringT@DV?$StrTraitMFC_DLL@DV?$ChTraitsCRT@D@ATL@@@@@ATL@@QAE@XZ
  00009	cc		 int	 3
  0000a	cc		 int	 3
  0000b	cc		 int	 3
  0000c	cc		 int	 3
  0000d	cc		 int	 3
__ehhandler$??0CScaleCompart@@QAE@ABV0@@Z:
  0000e	90		 npad	 1
  0000f	90		 npad	 1
  00010	8b 54 24 08	 mov	 edx, DWORD PTR [esp+8]
  00014	8d 42 0c	 lea	 eax, DWORD PTR [edx+12]
  00017	8b 4a f0	 mov	 ecx, DWORD PTR [edx-16]
  0001a	33 c8		 xor	 ecx, eax
  0001c	e8 00 00 00 00	 call	 @__security_check_cookie@4
  00021	b8 00 00 00 00	 mov	 eax, OFFSET __ehfuncinfo$??0CScaleCompart@@QAE@ABV0@@Z
  00026	e9 00 00 00 00	 jmp	 ___CxxFrameHandler3
text$x	ENDS
??0CScaleCompart@@QAE@ABV0@@Z ENDP			; CScaleCompart::CScaleCompart
; Function compile flags: /Ogtp
;	COMDAT ??1CScaleCompart@@QAE@XZ
_TEXT	SEGMENT
??1CScaleCompart@@QAE@XZ PROC				; CScaleCompart::~CScaleCompart, COMDAT
; _this$ = ecx
  00000	56		 push	 esi
  00001	8b f1		 mov	 esi, ecx
  00003	8d 4e 04	 lea	 ecx, DWORD PTR [esi+4]
  00006	ff 15 00 00 00
	00		 call	 DWORD PTR __imp_??1?$CStringT@DV?$StrTraitMFC_DLL@DV?$ChTraitsCRT@D@ATL@@@@@ATL@@QAE@XZ
  0000c	8b ce		 mov	 ecx, esi
  0000e	5e		 pop	 esi
  0000f	ff 25 00 00 00
	00		 jmp	 DWORD PTR __imp_??1?$CStringT@DV?$StrTraitMFC_DLL@DV?$ChTraitsCRT@D@ATL@@@@@ATL@@QAE@XZ
??1CScaleCompart@@QAE@XZ ENDP				; CScaleCompart::~CScaleCompart
_TEXT	ENDS
; Function compile flags: /Ogtp
; File D:\git\src\IBK\IBK_DRFN\ProjSrc\SrcChartEx\ChartOCX\ScaleDraw\LogScaleDrawer.cpp
; File C:\Program Files (x86)\Microsoft Visual Studio\2019\Community\VC\Tools\MSVC\14.29.30133\atlmfc\include\atlsimpstr.h
; File D:\git\src\IBK\IBK_DRFN\ProjSrc\SrcChartEx\ChartOCX\ScaleDraw\LogScaleDrawer.cpp
; File C:\Program Files (x86)\Microsoft Visual Studio\2019\Community\VC\Tools\MSVC\14.29.30133\atlmfc\include\atlsimpstr.h
; File D:\git\src\IBK\IBK_DRFN\ProjSrc\SrcChartEx\ChartOCX\ScaleDraw\LogScaleDrawer.cpp
; File C:\Program Files (x86)\Microsoft Visual Studio\2019\Community\VC\Tools\MSVC\14.29.30133\atlmfc\include\atlsimpstr.h
; File D:\git\src\IBK\IBK_DRFN\ProjSrc\SrcChartEx\ChartOCX\ScaleDraw\LogScaleDrawer.cpp
; File C:\Program Files (x86)\Microsoft Visual Studio\2019\Community\VC\Tools\MSVC\14.29.30133\atlmfc\include\cstringt.h
; File D:\git\src\IBK\IBK_DRFN\ProjSrc\SrcChartEx\ChartOCX\ScaleDraw\LogScaleDrawer.cpp
; File C:\Program Files (x86)\Microsoft Visual Studio\2019\Community\VC\Tools\MSVC\14.29.30133\atlmfc\include\atlsimpstr.h
; File C:\Program Files (x86)\Microsoft Visual Studio\2019\Community\VC\Tools\MSVC\14.29.30133\atlmfc\include\afxwin1.inl
; File D:\git\src\IBK\IBK_DRFN\ProjSrc\SrcChartEx\ChartOCX\ScaleDraw\LogScaleDrawer.cpp
; File C:\Program Files (x86)\Microsoft Visual Studio\2019\Community\VC\Tools\MSVC\14.29.30133\atlmfc\include\atltypes.h
; File D:\git\src\IBK\IBK_DRFN\ProjSrc\SrcChartEx\ChartOCX\ScaleDraw\LogScaleDrawer.cpp
; File C:\Program Files (x86)\Microsoft Visual Studio\2019\Community\VC\Tools\MSVC\14.29.30133\atlmfc\include\atltypes.h
; File D:\git\src\IBK\IBK_DRFN\ProjSrc\SrcChartEx\ChartOCX\ScaleDraw\LogScaleDrawer.cpp
; File C:\Program Files (x86)\Microsoft Visual Studio\2019\Community\VC\Tools\MSVC\14.29.30133\atlmfc\include\atltypes.h
; File D:\git\src\IBK\IBK_DRFN\ProjSrc\SrcChartEx\ChartOCX\ScaleDraw\LogScaleDrawer.cpp
;	COMDAT ?DrawTextOrGrid@CLogScaleDrawer@@AAEXPAVCDC@@ABVCDrawingVertScaleData@@ABVCRect@@2ABVCVerticalScale@@@Z
_TEXT	SEGMENT
$T2 = -176						; size = 16
$T3 = -160						; size = 12
$T4 = -148						; size = 8
$T5 = -140						; size = 12
$T6 = -140						; size = 12
$T7 = -136						; size = 8
$T8 = -128						; size = 8
_y$ = -120						; size = 8
$T9 = -112						; size = 16
$T10 = -112						; size = 16
$T11 = -112						; size = 16
$T12 = -112						; size = 16
$T13 = -108						; size = 12
_size$14 = -96						; size = 8
_value$15 = -88						; size = 8
_textSize$16 = -80					; size = 8
$T17 = -72						; size = 4
_bIsLog$ = -68						; size = 1
_nRoundIndex$1$ = -64					; size = 4
_dGap$ = -60						; size = 8
_nowPt_y$18 = -52					; size = 4
_nroundlength$1$ = -48					; size = 4
_end$ = -44						; size = 4
_start$ = -40						; size = 4
_strOrgData$ = -36					; size = 4
_nRealEnd$1$ = -32					; size = 4
_bround$ = -26						; size = 1
_bInvert$1$ = -22					; size = 1
_bIsLog$1$ = -21					; size = 1
_dataType$ = -20					; size = 4
_strData$19 = -16					; size = 4
$T20 = -16						; size = 4
__$EHRec$ = -12						; size = 12
_pDC$ = 8						; size = 4
_drawingVertScaleData$ = 12				; size = 4
_textRegion1$ = 16					; size = 4
_textRegion2$ = 20					; size = 4
_vertScale$ = 24					; size = 4
?DrawTextOrGrid@CLogScaleDrawer@@AAEXPAVCDC@@ABVCDrawingVertScaleData@@ABVCRect@@2ABVCVerticalScale@@@Z PROC ; CLogScaleDrawer::DrawTextOrGrid, COMDAT
; _this$ = ecx

; 37   : {

  00000	55		 push	 ebp
  00001	8b ec		 mov	 ebp, esp
  00003	6a ff		 push	 -1
  00005	68 00 00 00 00	 push	 __ehhandler$?DrawTextOrGrid@CLogScaleDrawer@@AAEXPAVCDC@@ABVCDrawingVertScaleData@@ABVCRect@@2ABVCVerticalScale@@@Z
  0000a	64 a1 00 00 00
	00		 mov	 eax, DWORD PTR fs:0
  00010	50		 push	 eax
  00011	81 ec a4 00 00
	00		 sub	 esp, 164		; 000000a4H
  00017	53		 push	 ebx
  00018	56		 push	 esi
  00019	57		 push	 edi
  0001a	a1 00 00 00 00	 mov	 eax, DWORD PTR ___security_cookie
  0001f	33 c5		 xor	 eax, ebp
  00021	50		 push	 eax
  00022	8d 45 f4	 lea	 eax, DWORD PTR __$EHRec$[ebp]
  00025	64 a3 00 00 00
	00		 mov	 DWORD PTR fs:0, eax
  0002b	8b f9		 mov	 edi, ecx

; 38   : 	double dGap = 0.0;
; 39   : 	int start = 0, end = 0;
; 40   : 	bool bround = false;
; 41   : 	CString dataType = CDrawer::GetPacketDataType(drawingVertScaleData.GetPacket());

  0002d	8b 75 0c	 mov	 esi, DWORD PTR _drawingVertScaleData$[ebp]
  00030	0f 57 c0	 xorps	 xmm0, xmm0
  00033	8b ce		 mov	 ecx, esi
  00035	f2 0f 11 45 c4	 movsd	 QWORD PTR _dGap$[ebp], xmm0
  0003a	c7 45 d8 00 00
	00 00		 mov	 DWORD PTR _start$[ebp], 0
  00041	c7 45 d4 00 00
	00 00		 mov	 DWORD PTR _end$[ebp], 0
  00048	c6 45 e6 00	 mov	 BYTE PTR _bround$[ebp], 0
  0004c	e8 00 00 00 00	 call	 ?GetPacket@CDrawingVertScaleData@@QBEPAVCPacket@@XZ ; CDrawingVertScaleData::GetPacket
  00051	50		 push	 eax
  00052	8d 45 ec	 lea	 eax, DWORD PTR _dataType$[ebp]
  00055	50		 push	 eax
  00056	8d 4f 04	 lea	 ecx, DWORD PTR [edi+4]
  00059	e8 00 00 00 00	 call	 ?GetPacketDataType@CDrawer@@IBE?AV?$CStringT@DV?$StrTraitMFC_DLL@DV?$ChTraitsCRT@D@ATL@@@@@ATL@@PAVCPacket@@@Z ; CDrawer::GetPacketDataType

; 42   : 	if(!CVertScaleDrawer::GetDrawingEnvironment(pDC, textRegion1, drawingVertScaleData.GetDisplayDataMinMax(), 

  0005e	8d 45 e6	 lea	 eax, DWORD PTR _bround$[ebp]
  00061	c7 45 fc 00 00
	00 00		 mov	 DWORD PTR __$EHRec$[ebp+8], 0
  00068	50		 push	 eax
  00069	8d 45 c4	 lea	 eax, DWORD PTR _dGap$[ebp]
  0006c	8b ce		 mov	 ecx, esi
  0006e	50		 push	 eax
  0006f	8d 45 d4	 lea	 eax, DWORD PTR _end$[ebp]
  00072	50		 push	 eax
  00073	8d 45 d8	 lea	 eax, DWORD PTR _start$[ebp]
  00076	50		 push	 eax
  00077	8d 45 ec	 lea	 eax, DWORD PTR _dataType$[ebp]
  0007a	50		 push	 eax
  0007b	8d 45 90	 lea	 eax, DWORD PTR $T12[ebp]
  0007e	50		 push	 eax
  0007f	e8 00 00 00 00	 call	 ?GetDisplayDataMinMax@CDrawingVertScaleData@@QBE?AVCDisplayDataMinMax@@XZ ; CDrawingVertScaleData::GetDisplayDataMinMax
  00084	50		 push	 eax
  00085	ff 75 10	 push	 DWORD PTR _textRegion1$[ebp]
  00088	8b cf		 mov	 ecx, edi
  0008a	ff 75 08	 push	 DWORD PTR _pDC$[ebp]
  0008d	e8 00 00 00 00	 call	 ?GetDrawingEnvironment@CVertScaleDrawer@@IAE_NPAVCDC@@ABVCRect@@ABVCDisplayDataMinMax@@ABV?$CStringT@DV?$StrTraitMFC_DLL@DV?$ChTraitsCRT@D@ATL@@@@@ATL@@AAH4AANAA_N@Z ; CVertScaleDrawer::GetDrawingEnvironment
  00092	84 c0		 test	 al, al
  00094	0f 84 c6 03 00
	00		 je	 $LN21@DrawTextOr

; 43   : 		dataType, start, end, dGap, bround))
; 44   : 		return;
; 45   : 
; 46   : 	int nRealStart = start, nRealEnd = end;

  0009a	8b 4d d4	 mov	 ecx, DWORD PTR _end$[ebp]
  0009d	8b c1		 mov	 eax, ecx
  0009f	8b 5d d8	 mov	 ebx, DWORD PTR _start$[ebp]
  000a2	8b d3		 mov	 edx, ebx
  000a4	0f af c2	 imul	 eax, edx
  000a7	89 4d e0	 mov	 DWORD PTR _nRealEnd$1$[ebp], ecx

; 47   : 	if(start * end < 0)	{

  000aa	85 c0		 test	 eax, eax
  000ac	79 0e		 jns	 SHORT $LN6@DrawTextOr

; 48   : 		nRealStart = 0;

  000ae	2b d1		 sub	 edx, ecx
  000b0	33 db		 xor	 ebx, ebx

; 49   : 		nRealEnd = abs(start - end);

  000b2	8b c2		 mov	 eax, edx
  000b4	99		 cdq
  000b5	33 c2		 xor	 eax, edx
  000b7	2b c2		 sub	 eax, edx
  000b9	89 45 e0	 mov	 DWORD PTR _nRealEnd$1$[ebp], eax
$LN6@DrawTextOr:

; 50   : 	}
; 51   : 
; 52   : 	// type 
; 53   : 	int typeRegionY = CVertScaleDrawer::DrawType(pDC, textRegion1, dataType, 

  000bc	8d 85 74 ff ff
	ff		 lea	 eax, DWORD PTR $T6[ebp]
  000c2	8b ce		 mov	 ecx, esi
  000c4	50		 push	 eax
  000c5	e8 00 00 00 00	 call	 ?GetScaleColor@CDrawingVertScaleData@@QBE?AVCScaleColor@@XZ ; CDrawingVertScaleData::GetScaleColor
  000ca	8b c8		 mov	 ecx, eax
  000cc	ff 15 00 00 00
	00		 call	 DWORD PTR __imp_?GetScaleTextColor@CScaleColor@@QAEAAKXZ
  000d2	8b 4d 18	 mov	 ecx, DWORD PTR _vertScale$[ebp]
  000d5	ff 30		 push	 DWORD PTR [eax]
  000d7	e8 00 00 00 00	 call	 ?GetVertScaleUnitType@CVerticalScale@@QBE?AW4VERTSCALEUNITTYPE@CScaleBaseData@@XZ ; CVerticalScale::GetVertScaleUnitType
  000dc	50		 push	 eax
  000dd	ff 75 e6	 push	 DWORD PTR _bround$[ebp]
  000e0	8d 45 ec	 lea	 eax, DWORD PTR _dataType$[ebp]
  000e3	8b cf		 mov	 ecx, edi
  000e5	50		 push	 eax
  000e6	ff 75 10	 push	 DWORD PTR _textRegion1$[ebp]
  000e9	ff 75 08	 push	 DWORD PTR _pDC$[ebp]
  000ec	e8 00 00 00 00	 call	 ?DrawType@CVertScaleDrawer@@IAEHPAVCDC@@ABVCRect@@ABV?$CStringT@DV?$StrTraitMFC_DLL@DV?$ChTraitsCRT@D@ATL@@@@@ATL@@_NW4VERTSCALEUNITTYPE@CScaleBaseData@@K@Z ; CVertScaleDrawer::DrawType

; 54   : 		bround, vertScale.GetVertScaleUnitType(), drawingVertScaleData.GetScaleColor().GetScaleTextColor());
; 55   : 	typeRegionY = CVertScaleDrawer::DrawType(pDC, textRegion2, dataType, 

  000f1	8d 85 74 ff ff
	ff		 lea	 eax, DWORD PTR $T5[ebp]
  000f7	8b ce		 mov	 ecx, esi
  000f9	50		 push	 eax
  000fa	e8 00 00 00 00	 call	 ?GetScaleColor@CDrawingVertScaleData@@QBE?AVCScaleColor@@XZ ; CDrawingVertScaleData::GetScaleColor
  000ff	8b c8		 mov	 ecx, eax
  00101	ff 15 00 00 00
	00		 call	 DWORD PTR __imp_?GetScaleTextColor@CScaleColor@@QAEAAKXZ
  00107	8b 4d 18	 mov	 ecx, DWORD PTR _vertScale$[ebp]
  0010a	ff 30		 push	 DWORD PTR [eax]
  0010c	e8 00 00 00 00	 call	 ?GetVertScaleUnitType@CVerticalScale@@QBE?AW4VERTSCALEUNITTYPE@CScaleBaseData@@XZ ; CVerticalScale::GetVertScaleUnitType
  00111	50		 push	 eax
  00112	ff 75 e6	 push	 DWORD PTR _bround$[ebp]
  00115	8d 45 ec	 lea	 eax, DWORD PTR _dataType$[ebp]
  00118	8b cf		 mov	 ecx, edi
  0011a	50		 push	 eax
  0011b	ff 75 14	 push	 DWORD PTR _textRegion2$[ebp]
  0011e	ff 75 08	 push	 DWORD PTR _pDC$[ebp]
  00121	e8 00 00 00 00	 call	 ?DrawType@CVertScaleDrawer@@IAEHPAVCDC@@ABVCRect@@ABV?$CStringT@DV?$StrTraitMFC_DLL@DV?$ChTraitsCRT@D@ATL@@@@@ATL@@_NW4VERTSCALEUNITTYPE@CScaleBaseData@@K@Z ; CVertScaleDrawer::DrawType

; 59   : 	bool bInvert = drawingVertScaleData.GetVertScaleInvertType();

  00126	8b ce		 mov	 ecx, esi
  00128	e8 00 00 00 00	 call	 ?GetVertScaleInvertType@CDrawingVertScaleData@@QBE_NXZ ; CDrawingVertScaleData::GetVertScaleInvertType
; File C:\Program Files (x86)\Microsoft Visual Studio\2019\Community\VC\Tools\MSVC\14.29.30133\atlmfc\include\atlsimpstr.h

; 519  : 		return( GetData()->nDataLength );

  0012d	8b 4d ec	 mov	 ecx, DWORD PTR _dataType$[ebp]
; File D:\git\src\IBK\IBK_DRFN\ProjSrc\SrcChartEx\ChartOCX\ScaleDraw\LogScaleDrawer.cpp

; 59   : 	bool bInvert = drawingVertScaleData.GetVertScaleInvertType();

  00130	88 45 ea	 mov	 BYTE PTR _bInvert$1$[ebp], al

; 60   : 
; 61   : 	//    
; 62   : 	int nroundlength = 0;

  00133	c7 45 d0 00 00
	00 00		 mov	 DWORD PTR _nroundlength$1$[ebp], 0
; File C:\Program Files (x86)\Microsoft Visual Studio\2019\Community\VC\Tools\MSVC\14.29.30133\atlmfc\include\atlsimpstr.h

; 533  : 		return( GetLength() == 0 );

  0013a	83 79 f4 00	 cmp	 DWORD PTR [ecx-12], 0
; File D:\git\src\IBK\IBK_DRFN\ProjSrc\SrcChartEx\ChartOCX\ScaleDraw\LogScaleDrawer.cpp

; 63   : 	if(!dataType.IsEmpty() && dataType.Find(".") == -1){

  0013e	74 47		 je	 SHORT $LN7@DrawTextOr
  00140	6a 00		 push	 0
  00142	68 00 00 00 00	 push	 OFFSET ??_C@_01LFCBOECM@?4@
  00147	8d 4d ec	 lea	 ecx, DWORD PTR _dataType$[ebp]
  0014a	ff 15 00 00 00
	00		 call	 DWORD PTR __imp_?Find@?$CStringT@DV?$StrTraitMFC_DLL@DV?$ChTraitsCRT@D@ATL@@@@@ATL@@QBEHPBDH@Z
  00150	83 f8 ff	 cmp	 eax, -1
  00153	75 32		 jne	 SHORT $LN7@DrawTextOr

; 64   : 		nroundlength = CDataConversion::GetStringDataCount(dataType, "0");

  00155	68 00 00 00 00	 push	 OFFSET ??_C@_01GBGANLPD@0@
  0015a	8d 4d f0	 lea	 ecx, DWORD PTR $T20[ebp]
  0015d	ff 15 00 00 00
	00		 call	 DWORD PTR __imp_??0?$CStringT@DV?$StrTraitMFC_DLL@DV?$ChTraitsCRT@D@ATL@@@@@ATL@@QAE@PBD@Z
  00163	8d 45 f0	 lea	 eax, DWORD PTR $T20[ebp]
  00166	c6 45 fc 01	 mov	 BYTE PTR __$EHRec$[ebp+8], 1
  0016a	50		 push	 eax
  0016b	8d 45 ec	 lea	 eax, DWORD PTR _dataType$[ebp]
  0016e	50		 push	 eax
  0016f	e8 00 00 00 00	 call	 ?GetStringDataCount@CDataConversion@@SAHABV?$CStringT@DV?$StrTraitMFC_DLL@DV?$ChTraitsCRT@D@ATL@@@@@ATL@@0@Z ; CDataConversion::GetStringDataCount
  00174	83 c4 08	 add	 esp, 8
  00177	89 45 d0	 mov	 DWORD PTR _nroundlength$1$[ebp], eax
  0017a	8d 4d f0	 lea	 ecx, DWORD PTR $T20[ebp]
  0017d	c6 45 fc 00	 mov	 BYTE PTR __$EHRec$[ebp+8], 0
  00181	ff 15 00 00 00
	00		 call	 DWORD PTR __imp_??1?$CStringT@DV?$StrTraitMFC_DLL@DV?$ChTraitsCRT@D@ATL@@@@@ATL@@QAE@XZ
$LN7@DrawTextOr:

; 65   : 	}
; 66   : 	int nRoundIndex = CVertScaleDrawer::GetRoundIndexDecimalDown(dataType);

  00187	8d 45 ec	 lea	 eax, DWORD PTR _dataType$[ebp]
  0018a	8b cf		 mov	 ecx, edi
  0018c	50		 push	 eax
  0018d	e8 00 00 00 00	 call	 ?GetRoundIndexDecimalDown@CVertScaleDrawer@@IBEHABV?$CStringT@DV?$StrTraitMFC_DLL@DV?$ChTraitsCRT@D@ATL@@@@@ATL@@@Z ; CVertScaleDrawer::GetRoundIndexDecimalDown

; 67   : 
; 68   : 	CVertScaleDrawer::DrawScale(pDC, textRegion1, dGap, 

  00192	56		 push	 esi
  00193	ff 75 e0	 push	 DWORD PTR _nRealEnd$1$[ebp]
  00196	89 45 c0	 mov	 DWORD PTR _nRoundIndex$1$[ebp], eax
  00199	8b ce		 mov	 ecx, esi
  0019b	53		 push	 ebx
  0019c	8d 45 90	 lea	 eax, DWORD PTR $T11[ebp]
  0019f	50		 push	 eax
  001a0	e8 00 00 00 00	 call	 ?GetDisplayDataMinMax@CDrawingVertScaleData@@QBE?AVCDisplayDataMinMax@@XZ ; CDrawingVertScaleData::GetDisplayDataMinMax
  001a5	8b c8		 mov	 ecx, eax
  001a7	e8 00 00 00 00	 call	 ?GetDisplayMin@CDisplayDataMinMax@@QBENXZ ; CDisplayDataMinMax::GetDisplayMin
  001ac	f2 0f 10 45 c4	 movsd	 xmm0, QWORD PTR _dGap$[ebp]
  001b1	83 ec 10	 sub	 esp, 16			; 00000010H
  001b4	8b cf		 mov	 ecx, edi
  001b6	dd 5c 24 08	 fstp	 QWORD PTR [esp+8]
  001ba	f2 0f 11 04 24	 movsd	 QWORD PTR [esp], xmm0
  001bf	ff 75 10	 push	 DWORD PTR _textRegion1$[ebp]
  001c2	ff 75 08	 push	 DWORD PTR _pDC$[ebp]
  001c5	e8 00 00 00 00	 call	 ?DrawScale@CVertScaleDrawer@@IAEXPAVCDC@@ABVCRect@@NNHHABVCDrawingVertScaleData@@@Z ; CVertScaleDrawer::DrawScale

; 69   : 		drawingVertScaleData.GetDisplayDataMinMax().GetDisplayMin(), 
; 70   : 		nRealStart, nRealEnd, drawingVertScaleData);
; 71   : 	CVertScaleDrawer::DrawScale(pDC, textRegion2, dGap, 

  001ca	56		 push	 esi
  001cb	ff 75 e0	 push	 DWORD PTR _nRealEnd$1$[ebp]
  001ce	8d 45 90	 lea	 eax, DWORD PTR $T10[ebp]
  001d1	8b ce		 mov	 ecx, esi
  001d3	53		 push	 ebx
  001d4	50		 push	 eax
  001d5	e8 00 00 00 00	 call	 ?GetDisplayDataMinMax@CDrawingVertScaleData@@QBE?AVCDisplayDataMinMax@@XZ ; CDrawingVertScaleData::GetDisplayDataMinMax
  001da	8b c8		 mov	 ecx, eax
  001dc	e8 00 00 00 00	 call	 ?GetDisplayMin@CDisplayDataMinMax@@QBENXZ ; CDisplayDataMinMax::GetDisplayMin
  001e1	f2 0f 10 45 c4	 movsd	 xmm0, QWORD PTR _dGap$[ebp]
  001e6	83 ec 10	 sub	 esp, 16			; 00000010H
  001e9	8b cf		 mov	 ecx, edi
  001eb	dd 5c 24 08	 fstp	 QWORD PTR [esp+8]
  001ef	f2 0f 11 04 24	 movsd	 QWORD PTR [esp], xmm0
  001f4	ff 75 14	 push	 DWORD PTR _textRegion2$[ebp]
  001f7	ff 75 08	 push	 DWORD PTR _pDC$[ebp]
  001fa	e8 00 00 00 00	 call	 ?DrawScale@CVertScaleDrawer@@IAEXPAVCDC@@ABVCRect@@NNHHABVCDrawingVertScaleData@@@Z ; CVertScaleDrawer::DrawScale

; 72   : 		drawingVertScaleData.GetDisplayDataMinMax().GetDisplayMin(), 
; 73   : 		nRealStart, nRealEnd, drawingVertScaleData);
; 74   : 
; 75   : 	// scale 
; 76   : 	double y = drawingVertScaleData.GetDisplayDataMinMax().GetDisplayMin();

  001ff	8d 45 90	 lea	 eax, DWORD PTR $T9[ebp]
  00202	8b ce		 mov	 ecx, esi
  00204	50		 push	 eax
  00205	e8 00 00 00 00	 call	 ?GetDisplayDataMinMax@CDrawingVertScaleData@@QBE?AVCDisplayDataMinMax@@XZ ; CDrawingVertScaleData::GetDisplayDataMinMax
  0020a	8b c8		 mov	 ecx, eax
  0020c	e8 00 00 00 00	 call	 ?GetDisplayMin@CDisplayDataMinMax@@QBENXZ ; CDisplayDataMinMax::GetDisplayMin

; 77   : 	bool bIsLog = true;
; 78   : 	if(CDrawer::GetPacketDataCount(drawingVertScaleData.GetPacket()) <= 0)

  00211	8b ce		 mov	 ecx, esi
  00213	c6 45 eb 01	 mov	 BYTE PTR _bIsLog$1$[ebp], 1
  00217	dd 5d 88	 fstp	 QWORD PTR _y$[ebp]
  0021a	e8 00 00 00 00	 call	 ?GetPacket@CDrawingVertScaleData@@QBEPAVCPacket@@XZ ; CDrawingVertScaleData::GetPacket
  0021f	50		 push	 eax
  00220	8d 4f 04	 lea	 ecx, DWORD PTR [edi+4]
  00223	e8 00 00 00 00	 call	 ?GetPacketDataCount@CDrawer@@IBEHPAVCPacket@@@Z ; CDrawer::GetPacketDataCount
  00228	0f b6 4d eb	 movzx	 ecx, BYTE PTR _bIsLog$1$[ebp]
  0022c	33 d2		 xor	 edx, edx
  0022e	85 c0		 test	 eax, eax
  00230	0f 4e ca	 cmovle	 ecx, edx
  00233	88 4d bc	 mov	 BYTE PTR _bIsLog$[ebp], cl

; 79   : 		bIsLog = false;
; 80   : 
; 81   : 	CString strOrgData;

  00236	8d 4d dc	 lea	 ecx, DWORD PTR _strOrgData$[ebp]
  00239	ff 15 00 00 00
	00		 call	 DWORD PTR __imp_??0?$CStringT@DV?$StrTraitMFC_DLL@DV?$ChTraitsCRT@D@ATL@@@@@ATL@@QAE@XZ
  0023f	c6 45 fc 02	 mov	 BYTE PTR __$EHRec$[ebp+8], 2

; 82   : 	for(int i = nRealStart ; i < nRealEnd; i++){

  00243	3b 5d e0	 cmp	 ebx, DWORD PTR _nRealEnd$1$[ebp]
  00246	0f 8d 0b 02 00
	00		 jge	 $LN3@DrawTextOr
  0024c	0f 1f 40 00	 npad	 4
$LL4@DrawTextOr:

; 83   : 		double value = CMath::Round((y + dGap * (double)i), nRoundIndex);

  00250	ff 75 c0	 push	 DWORD PTR _nRoundIndex$1$[ebp]
  00253	66 0f 6e c3	 movd	 xmm0, ebx
  00257	8d 45 80	 lea	 eax, DWORD PTR $T8[ebp]
  0025a	f3 0f e6 c0	 cvtdq2pd xmm0, xmm0
  0025e	50		 push	 eax
  0025f	f2 0f 59 45 c4	 mulsd	 xmm0, QWORD PTR _dGap$[ebp]
  00264	f2 0f 58 45 88	 addsd	 xmm0, QWORD PTR _y$[ebp]
  00269	f2 0f 11 45 80	 movsd	 QWORD PTR $T8[ebp], xmm0
  0026e	e8 00 00 00 00	 call	 ?Round@CMath@@SANABNH@Z	; CMath::Round
  00273	83 c4 08	 add	 esp, 8

; 84   : 		int nowPt_y = 0;

  00276	c7 45 cc 00 00
	00 00		 mov	 DWORD PTR _nowPt_y$18[ebp], 0

; 85   : 		if(!CVertScaleDrawer::GetVertScaleAbsolutePosition_y(textRegion1, value, 

  0027d	8d 45 cc	 lea	 eax, DWORD PTR _nowPt_y$18[ebp]
  00280	8b ce		 mov	 ecx, esi
  00282	dd 5d a8	 fstp	 QWORD PTR _value$15[ebp]
  00285	50		 push	 eax
  00286	ff 75 bc	 push	 DWORD PTR _bIsLog$[ebp]
  00289	8d 85 50 ff ff
	ff		 lea	 eax, DWORD PTR $T2[ebp]
  0028f	50		 push	 eax
  00290	e8 00 00 00 00	 call	 ?GetDisplayDataMinMax@CDrawingVertScaleData@@QBE?AVCDisplayDataMinMax@@XZ ; CDrawingVertScaleData::GetDisplayDataMinMax
  00295	f2 0f 10 45 a8	 movsd	 xmm0, QWORD PTR _value$15[ebp]
  0029a	8b cf		 mov	 ecx, edi
  0029c	50		 push	 eax
  0029d	83 ec 08	 sub	 esp, 8
  002a0	f2 0f 11 04 24	 movsd	 QWORD PTR [esp], xmm0
  002a5	ff 75 10	 push	 DWORD PTR _textRegion1$[ebp]
  002a8	e8 00 00 00 00	 call	 ?GetVertScaleAbsolutePosition_y@CVertScaleDrawer@@IAE_NABVCRect@@NABVCDisplayDataMinMax@@_NAAH@Z ; CVertScaleDrawer::GetVertScaleAbsolutePosition_y
  002ad	84 c0		 test	 al, al
  002af	0f 84 98 01 00
	00		 je	 $LN2@DrawTextOr

; 86   : 			drawingVertScaleData.GetDisplayDataMinMax(), bIsLog, nowPt_y))
; 87   : 			continue;
; 88   : 
; 89   : 		CString strData = CVertScaleDrawer::GetStrData(value, dataType, bround, nroundlength);

  002b5	ff 75 d0	 push	 DWORD PTR _nroundlength$1$[ebp]
  002b8	8d 45 ec	 lea	 eax, DWORD PTR _dataType$[ebp]
  002bb	8b cf		 mov	 ecx, edi
  002bd	ff 75 e6	 push	 DWORD PTR _bround$[ebp]
  002c0	50		 push	 eax
  002c1	8d 45 a8	 lea	 eax, DWORD PTR _value$15[ebp]
  002c4	50		 push	 eax
  002c5	8d 45 f0	 lea	 eax, DWORD PTR _strData$19[ebp]
  002c8	50		 push	 eax
  002c9	e8 00 00 00 00	 call	 ?GetStrData@CVertScaleDrawer@@IBE?AV?$CStringT@DV?$StrTraitMFC_DLL@DV?$ChTraitsCRT@D@ATL@@@@@ATL@@ABNABV23@_NH@Z ; CVertScaleDrawer::GetStrData

; 90   : 		if(bround && strData.Find(".") > 0)

  002ce	80 7d e6 00	 cmp	 BYTE PTR _bround$[ebp], 0
  002d2	c6 45 fc 03	 mov	 BYTE PTR __$EHRec$[ebp+8], 3
  002d6	74 4d		 je	 SHORT $LN10@DrawTextOr
  002d8	6a 00		 push	 0
  002da	68 00 00 00 00	 push	 OFFSET ??_C@_01LFCBOECM@?4@
  002df	8d 4d f0	 lea	 ecx, DWORD PTR _strData$19[ebp]
  002e2	ff 15 00 00 00
	00		 call	 DWORD PTR __imp_?Find@?$CStringT@DV?$StrTraitMFC_DLL@DV?$ChTraitsCRT@D@ATL@@@@@ATL@@QBEHPBDH@Z
  002e8	85 c0		 test	 eax, eax
  002ea	7e 39		 jle	 SHORT $LN10@DrawTextOr

; 91   : 			strData = strData.Left(strData.Find("."));

  002ec	6a 00		 push	 0
  002ee	68 00 00 00 00	 push	 OFFSET ??_C@_01LFCBOECM@?4@
  002f3	8d 4d f0	 lea	 ecx, DWORD PTR _strData$19[ebp]
  002f6	ff 15 00 00 00
	00		 call	 DWORD PTR __imp_?Find@?$CStringT@DV?$StrTraitMFC_DLL@DV?$ChTraitsCRT@D@ATL@@@@@ATL@@QBEHPBDH@Z
  002fc	50		 push	 eax
  002fd	8d 45 b8	 lea	 eax, DWORD PTR $T17[ebp]
  00300	50		 push	 eax
  00301	8d 4d f0	 lea	 ecx, DWORD PTR _strData$19[ebp]
  00304	ff 15 00 00 00
	00		 call	 DWORD PTR __imp_?Left@?$CStringT@DV?$StrTraitMFC_DLL@DV?$ChTraitsCRT@D@ATL@@@@@ATL@@QBE?AV12@H@Z
  0030a	50		 push	 eax
  0030b	8d 4d f0	 lea	 ecx, DWORD PTR _strData$19[ebp]
  0030e	c6 45 fc 04	 mov	 BYTE PTR __$EHRec$[ebp+8], 4
  00312	ff 15 00 00 00
	00		 call	 DWORD PTR __imp_??4?$CStringT@DV?$StrTraitMFC_DLL@DV?$ChTraitsCRT@D@ATL@@@@@ATL@@QAEAAV01@ABV01@@Z
  00318	8d 4d b8	 lea	 ecx, DWORD PTR $T17[ebp]
  0031b	c6 45 fc 03	 mov	 BYTE PTR __$EHRec$[ebp+8], 3
  0031f	ff 15 00 00 00
	00		 call	 DWORD PTR __imp_??1?$CStringT@DV?$StrTraitMFC_DLL@DV?$ChTraitsCRT@D@ATL@@@@@ATL@@QAE@XZ
$LN10@DrawTextOr:
; File C:\Program Files (x86)\Microsoft Visual Studio\2019\Community\VC\Tools\MSVC\14.29.30133\atlmfc\include\atlsimpstr.h

; 519  : 		return( GetData()->nDataLength );

  00325	8b 45 f0	 mov	 eax, DWORD PTR _strData$19[ebp]

; 533  : 		return( GetLength() == 0 );

  00328	83 78 f4 00	 cmp	 DWORD PTR [eax-12], 0
; File D:\git\src\IBK\IBK_DRFN\ProjSrc\SrcChartEx\ChartOCX\ScaleDraw\LogScaleDrawer.cpp

; 94   : 		if(strData.IsEmpty() || strData == strOrgData)

  0032c	0f 84 0e 01 00
	00		 je	 $LN12@DrawTextOr
; File C:\Program Files (x86)\Microsoft Visual Studio\2019\Community\VC\Tools\MSVC\14.29.30133\atlmfc\include\cstringt.h

; 2479 : 		return(str1.Compare(str2) == 0);

  00332	ff 75 dc	 push	 DWORD PTR _strOrgData$[ebp]
  00335	8d 4d f0	 lea	 ecx, DWORD PTR _strData$19[ebp]
  00338	ff 15 00 00 00
	00		 call	 DWORD PTR __imp_?Compare@?$CStringT@DV?$StrTraitMFC_DLL@DV?$ChTraitsCRT@D@ATL@@@@@ATL@@QBEHPBD@Z
  0033e	85 c0		 test	 eax, eax
; File D:\git\src\IBK\IBK_DRFN\ProjSrc\SrcChartEx\ChartOCX\ScaleDraw\LogScaleDrawer.cpp

; 94   : 		if(strData.IsEmpty() || strData == strOrgData)

  00340	0f 84 fa 00 00
	00		 je	 $LN12@DrawTextOr

; 95   : 			continue;
; 96   : 
; 97   : 		strOrgData = strData;

  00346	8d 45 f0	 lea	 eax, DWORD PTR _strData$19[ebp]
  00349	50		 push	 eax
  0034a	8d 4d dc	 lea	 ecx, DWORD PTR _strOrgData$[ebp]
  0034d	ff 15 00 00 00
	00		 call	 DWORD PTR __imp_??4?$CStringT@DV?$StrTraitMFC_DLL@DV?$ChTraitsCRT@D@ATL@@@@@ATL@@QAEAAV01@ABV01@@Z
; File C:\Program Files (x86)\Microsoft Visual Studio\2019\Community\VC\Tools\MSVC\14.29.30133\atlmfc\include\atlsimpstr.h

; 519  : 		return( GetData()->nDataLength );

  00353	8b 45 f0	 mov	 eax, DWORD PTR _strData$19[ebp]
; File C:\Program Files (x86)\Microsoft Visual Studio\2019\Community\VC\Tools\MSVC\14.29.30133\atlmfc\include\afxwin1.inl

; 639  : 		VERIFY(::GetTextExtentPoint32(m_hAttribDC, str, (int)str.GetLength(), &size));

  00356	8d 4d a0	 lea	 ecx, DWORD PTR _size$14[ebp]
  00359	51		 push	 ecx
  0035a	ff 70 f4	 push	 DWORD PTR [eax-12]
  0035d	50		 push	 eax
  0035e	8b 45 08	 mov	 eax, DWORD PTR _pDC$[ebp]
  00361	ff 70 08	 push	 DWORD PTR [eax+8]
  00364	ff 15 00 00 00
	00		 call	 DWORD PTR __imp__GetTextExtentPoint32A@16
; File D:\git\src\IBK\IBK_DRFN\ProjSrc\SrcChartEx\ChartOCX\ScaleDraw\LogScaleDrawer.cpp

; 101  : 		if(bInvert)

  0036a	80 7d ea 00	 cmp	 BYTE PTR _bInvert$1$[ebp], 0
; File C:\Program Files (x86)\Microsoft Visual Studio\2019\Community\VC\Tools\MSVC\14.29.30133\atlmfc\include\atltypes.h

; 318  : 	*(SIZE*)this = initSize;

  0036e	8b 45 a0	 mov	 eax, DWORD PTR _size$14[ebp]
  00371	8b 4d a4	 mov	 ecx, DWORD PTR _size$14[ebp+4]
; File D:\git\src\IBK\IBK_DRFN\ProjSrc\SrcChartEx\ChartOCX\ScaleDraw\LogScaleDrawer.cpp

; 99   : 		int pt_y = nowPt_y;

  00374	8b 75 cc	 mov	 esi, DWORD PTR _nowPt_y$18[ebp]
; File C:\Program Files (x86)\Microsoft Visual Studio\2019\Community\VC\Tools\MSVC\14.29.30133\atlmfc\include\atltypes.h

; 318  : 	*(SIZE*)this = initSize;

  00377	89 45 b0	 mov	 DWORD PTR _textSize$16[ebp], eax
  0037a	89 4d b4	 mov	 DWORD PTR _textSize$16[ebp+4], ecx
; File D:\git\src\IBK\IBK_DRFN\ProjSrc\SrcChartEx\ChartOCX\ScaleDraw\LogScaleDrawer.cpp

; 101  : 		if(bInvert)

  0037d	74 0e		 je	 SHORT $LN13@DrawTextOr

; 102  : 			pt_y = CDataConversion::InvertGraphDataPt(textRegion1, nowPt_y);

  0037f	56		 push	 esi
  00380	ff 75 10	 push	 DWORD PTR _textRegion1$[ebp]
  00383	e8 00 00 00 00	 call	 ?InvertGraphDataPt@CDataConversion@@SAHABVCRect@@H@Z ; CDataConversion::InvertGraphDataPt
  00388	83 c4 08	 add	 esp, 8
  0038b	8b f0		 mov	 esi, eax
$LN13@DrawTextOr:

; 103  : 
; 104  : 		CVertScaleDrawer::DrawTextOut(pDC, 

  0038d	8b 4d 0c	 mov	 ecx, DWORD PTR _drawingVertScaleData$[ebp]
  00390	8d 85 60 ff ff
	ff		 lea	 eax, DWORD PTR $T3[ebp]
  00396	50		 push	 eax
  00397	e8 00 00 00 00	 call	 ?GetScaleColor@CDrawingVertScaleData@@QBE?AVCScaleColor@@XZ ; CDrawingVertScaleData::GetScaleColor
  0039c	8b c8		 mov	 ecx, eax
  0039e	ff 15 00 00 00
	00		 call	 DWORD PTR __imp_?GetScaleTextColor@CScaleColor@@QAEAAKXZ
  003a4	8b cf		 mov	 ecx, edi
  003a6	ff 30		 push	 DWORD PTR [eax]
  003a8	8d 45 f0	 lea	 eax, DWORD PTR _strData$19[ebp]
  003ab	50		 push	 eax
  003ac	6a 01		 push	 1
  003ae	8d 45 b0	 lea	 eax, DWORD PTR _textSize$16[ebp]
  003b1	50		 push	 eax
  003b2	8b 45 10	 mov	 eax, DWORD PTR _textRegion1$[ebp]
  003b5	56		 push	 esi
  003b6	ff 70 08	 push	 DWORD PTR [eax+8]
  003b9	8d 85 6c ff ff
	ff		 lea	 eax, DWORD PTR $T4[ebp]
  003bf	50		 push	 eax
  003c0	e8 00 00 00 00	 call	 ?GetTextPosition@CVertScaleDrawer@@IBE?AVCPoint@@HHABVCSize@@H@Z ; CVertScaleDrawer::GetTextPosition
  003c5	50		 push	 eax
  003c6	ff 75 08	 push	 DWORD PTR _pDC$[ebp]
  003c9	8d 4f 04	 lea	 ecx, DWORD PTR [edi+4]
  003cc	e8 00 00 00 00	 call	 ?DrawTextOut@CDrawer@@IAEXPAVCDC@@ABVCPoint@@ABV?$CStringT@DV?$StrTraitMFC_DLL@DV?$ChTraitsCRT@D@ATL@@@@@ATL@@K@Z ; CDrawer::DrawTextOut
; File C:\Program Files (x86)\Microsoft Visual Studio\2019\Community\VC\Tools\MSVC\14.29.30133\atlmfc\include\atltypes.h

; 638  : 	return ::IsRectEmpty(this);

  003d1	ff 75 14	 push	 DWORD PTR _textRegion2$[ebp]
  003d4	ff 15 00 00 00
	00		 call	 DWORD PTR __imp__IsRectEmpty@4
; File D:\git\src\IBK\IBK_DRFN\ProjSrc\SrcChartEx\ChartOCX\ScaleDraw\LogScaleDrawer.cpp

; 107  : 		if(textRegion2.IsRectEmpty() == FALSE){

  003da	85 c0		 test	 eax, eax
  003dc	75 41		 jne	 SHORT $LN14@DrawTextOr

; 108  : 			CVertScaleDrawer::DrawTextOut(pDC, 

  003de	8b 4d 0c	 mov	 ecx, DWORD PTR _drawingVertScaleData$[ebp]
  003e1	8d 45 94	 lea	 eax, DWORD PTR $T13[ebp]
  003e4	50		 push	 eax
  003e5	e8 00 00 00 00	 call	 ?GetScaleColor@CDrawingVertScaleData@@QBE?AVCScaleColor@@XZ ; CDrawingVertScaleData::GetScaleColor
  003ea	8b c8		 mov	 ecx, eax
  003ec	ff 15 00 00 00
	00		 call	 DWORD PTR __imp_?GetScaleTextColor@CScaleColor@@QAEAAKXZ
  003f2	8b cf		 mov	 ecx, edi
  003f4	ff 30		 push	 DWORD PTR [eax]
  003f6	8d 45 f0	 lea	 eax, DWORD PTR _strData$19[ebp]
  003f9	50		 push	 eax
  003fa	6a 01		 push	 1
  003fc	8d 45 b0	 lea	 eax, DWORD PTR _textSize$16[ebp]
  003ff	50		 push	 eax
  00400	8b 45 14	 mov	 eax, DWORD PTR _textRegion2$[ebp]
  00403	56		 push	 esi
  00404	ff 70 08	 push	 DWORD PTR [eax+8]
  00407	8d 85 78 ff ff
	ff		 lea	 eax, DWORD PTR $T7[ebp]
  0040d	50		 push	 eax
  0040e	e8 00 00 00 00	 call	 ?GetTextPosition@CVertScaleDrawer@@IBE?AVCPoint@@HHABVCSize@@H@Z ; CVertScaleDrawer::GetTextPosition
  00413	50		 push	 eax
  00414	ff 75 08	 push	 DWORD PTR _pDC$[ebp]
  00417	8d 4f 04	 lea	 ecx, DWORD PTR [edi+4]
  0041a	e8 00 00 00 00	 call	 ?DrawTextOut@CDrawer@@IAEXPAVCDC@@ABVCPoint@@ABV?$CStringT@DV?$StrTraitMFC_DLL@DV?$ChTraitsCRT@D@ATL@@@@@ATL@@K@Z ; CDrawer::DrawTextOut
$LN14@DrawTextOr:

; 109  : 								CVertScaleDrawer::GetTextPosition(textRegion2.right, pt_y, textSize), 
; 110  : 								strData, drawingVertScaleData.GetScaleColor().GetScaleTextColor());
; 111  : 		}
; 112  : 		CVertScaleDrawer::DrawGrid(pDC, drawingVertScaleData, vertScale.GetGridType(), pt_y, vertScale.GetActiveFlag());

  0041f	8b 4d 18	 mov	 ecx, DWORD PTR _vertScale$[ebp]
  00422	e8 00 00 00 00	 call	 ?GetActiveFlag@CVerticalScale@@QBEHXZ ; CVerticalScale::GetActiveFlag
  00427	8b 4d 18	 mov	 ecx, DWORD PTR _vertScale$[ebp]
  0042a	50		 push	 eax
  0042b	56		 push	 esi
  0042c	e8 00 00 00 00	 call	 ?GetGridType@CScale@@QBE?AW4SCALEGRIDTYPE@CScaleBaseData@@XZ ; CScale::GetGridType
  00431	8b 75 0c	 mov	 esi, DWORD PTR _drawingVertScaleData$[ebp]
  00434	8b cf		 mov	 ecx, edi
  00436	50		 push	 eax
  00437	56		 push	 esi
  00438	ff 75 08	 push	 DWORD PTR _pDC$[ebp]
  0043b	e8 00 00 00 00	 call	 ?DrawGrid@CVertScaleDrawer@@IAEXPAVCDC@@ABVCDrawingVertScaleData@@W4SCALEGRIDTYPE@CScaleBaseData@@HH@Z ; CVertScaleDrawer::DrawGrid
$LN12@DrawTextOr:

; 82   : 	for(int i = nRealStart ; i < nRealEnd; i++){

  00440	8d 4d f0	 lea	 ecx, DWORD PTR _strData$19[ebp]
  00443	c6 45 fc 02	 mov	 BYTE PTR __$EHRec$[ebp+8], 2
  00447	ff 15 00 00 00
	00		 call	 DWORD PTR __imp_??1?$CStringT@DV?$StrTraitMFC_DLL@DV?$ChTraitsCRT@D@ATL@@@@@ATL@@QAE@XZ
$LN2@DrawTextOr:
  0044d	43		 inc	 ebx
  0044e	3b 5d e0	 cmp	 ebx, DWORD PTR _nRealEnd$1$[ebp]
  00451	0f 8c f9 fd ff
	ff		 jl	 $LL4@DrawTextOr
$LN3@DrawTextOr:

; 113  : 	}
; 114  : }

  00457	8d 4d dc	 lea	 ecx, DWORD PTR _strOrgData$[ebp]
  0045a	ff 15 00 00 00
	00		 call	 DWORD PTR __imp_??1?$CStringT@DV?$StrTraitMFC_DLL@DV?$ChTraitsCRT@D@ATL@@@@@ATL@@QAE@XZ
$LN21@DrawTextOr:
  00460	8d 4d ec	 lea	 ecx, DWORD PTR _dataType$[ebp]
  00463	ff 15 00 00 00
	00		 call	 DWORD PTR __imp_??1?$CStringT@DV?$StrTraitMFC_DLL@DV?$ChTraitsCRT@D@ATL@@@@@ATL@@QAE@XZ
  00469	8b 4d f4	 mov	 ecx, DWORD PTR __$EHRec$[ebp]
  0046c	64 89 0d 00 00
	00 00		 mov	 DWORD PTR fs:0, ecx
  00473	59		 pop	 ecx
  00474	5f		 pop	 edi
  00475	5e		 pop	 esi
  00476	5b		 pop	 ebx
  00477	8b e5		 mov	 esp, ebp
  00479	5d		 pop	 ebp
  0047a	c2 14 00	 ret	 20			; 00000014H
_TEXT	ENDS
;	COMDAT text$x
text$x	SEGMENT
__unwindfunclet$?DrawTextOrGrid@CLogScaleDrawer@@AAEXPAVCDC@@ABVCDrawingVertScaleData@@ABVCRect@@2ABVCVerticalScale@@@Z$0:
  00000	8d 4d ec	 lea	 ecx, DWORD PTR _dataType$[ebp]
  00003	ff 25 00 00 00
	00		 jmp	 DWORD PTR __imp_??1?$CStringT@DV?$StrTraitMFC_DLL@DV?$ChTraitsCRT@D@ATL@@@@@ATL@@QAE@XZ
__unwindfunclet$?DrawTextOrGrid@CLogScaleDrawer@@AAEXPAVCDC@@ABVCDrawingVertScaleData@@ABVCRect@@2ABVCVerticalScale@@@Z$1:
  00009	8d 4d f0	 lea	 ecx, DWORD PTR $T20[ebp]
  0000c	ff 25 00 00 00
	00		 jmp	 DWORD PTR __imp_??1?$CStringT@DV?$StrTraitMFC_DLL@DV?$ChTraitsCRT@D@ATL@@@@@ATL@@QAE@XZ
__unwindfunclet$?DrawTextOrGrid@CLogScaleDrawer@@AAEXPAVCDC@@ABVCDrawingVertScaleData@@ABVCRect@@2ABVCVerticalScale@@@Z$2:
  00012	8d 4d dc	 lea	 ecx, DWORD PTR _strOrgData$[ebp]
  00015	ff 25 00 00 00
	00		 jmp	 DWORD PTR __imp_??1?$CStringT@DV?$StrTraitMFC_DLL@DV?$ChTraitsCRT@D@ATL@@@@@ATL@@QAE@XZ
__unwindfunclet$?DrawTextOrGrid@CLogScaleDrawer@@AAEXPAVCDC@@ABVCDrawingVertScaleData@@ABVCRect@@2ABVCVerticalScale@@@Z$3:
  0001b	8d 4d f0	 lea	 ecx, DWORD PTR _strData$19[ebp]
  0001e	ff 25 00 00 00
	00		 jmp	 DWORD PTR __imp_??1?$CStringT@DV?$StrTraitMFC_DLL@DV?$ChTraitsCRT@D@ATL@@@@@ATL@@QAE@XZ
__unwindfunclet$?DrawTextOrGrid@CLogScaleDrawer@@AAEXPAVCDC@@ABVCDrawingVertScaleData@@ABVCRect@@2ABVCVerticalScale@@@Z$4:
  00024	8d 4d b8	 lea	 ecx, DWORD PTR $T17[ebp]
  00027	ff 25 00 00 00
	00		 jmp	 DWORD PTR __imp_??1?$CStringT@DV?$StrTraitMFC_DLL@DV?$ChTraitsCRT@D@ATL@@@@@ATL@@QAE@XZ
  0002d	cc		 int	 3
  0002e	cc		 int	 3
  0002f	cc		 int	 3
  00030	cc		 int	 3
  00031	cc		 int	 3
__ehhandler$?DrawTextOrGrid@CLogScaleDrawer@@AAEXPAVCDC@@ABVCDrawingVertScaleData@@ABVCRect@@2ABVCVerticalScale@@@Z:
  00032	90		 npad	 1
  00033	90		 npad	 1
  00034	8b 54 24 08	 mov	 edx, DWORD PTR [esp+8]
  00038	8d 42 0c	 lea	 eax, DWORD PTR [edx+12]
  0003b	8b 8a 4c ff ff
	ff		 mov	 ecx, DWORD PTR [edx-180]
  00041	33 c8		 xor	 ecx, eax
  00043	e8 00 00 00 00	 call	 @__security_check_cookie@4
  00048	b8 00 00 00 00	 mov	 eax, OFFSET __ehfuncinfo$?DrawTextOrGrid@CLogScaleDrawer@@AAEXPAVCDC@@ABVCDrawingVertScaleData@@ABVCRect@@2ABVCVerticalScale@@@Z
  0004d	e9 00 00 00 00	 jmp	 ___CxxFrameHandler3
text$x	ENDS
?DrawTextOrGrid@CLogScaleDrawer@@AAEXPAVCDC@@ABVCDrawingVertScaleData@@ABVCRect@@2ABVCVerticalScale@@@Z ENDP ; CLogScaleDrawer::DrawTextOrGrid
; Function compile flags: /Ogtp
; File D:\git\src\IBK\IBK_DRFN\ProjSrc\SrcChartEx\ChartOCX\ScaleDraw\LogScaleDrawer.cpp
;	COMDAT ?DrawTextOrGrid_Both@CLogScaleDrawer@@UAEXPAVCDC@@ABVCDrawingVertScaleData@@ABVCVertScaleRegion@@ABVCVerticalScale@@@Z
_TEXT	SEGMENT
_this$GSCopy$1$ = -40					; size = 4
$T1 = -36						; size = 16
$T2 = -20						; size = 16
__$ArrayPad$ = -4					; size = 4
_pDC$ = 8						; size = 4
_drawingVertScaleData$ = 12				; size = 4
_vertScaleRegion$ = 16					; size = 4
_vertScale$ = 20					; size = 4
?DrawTextOrGrid_Both@CLogScaleDrawer@@UAEXPAVCDC@@ABVCDrawingVertScaleData@@ABVCVertScaleRegion@@ABVCVerticalScale@@@Z PROC ; CLogScaleDrawer::DrawTextOrGrid_Both, COMDAT
; _this$ = ecx

; 31   : {

  00000	55		 push	 ebp
  00001	8b ec		 mov	 ebp, esp
  00003	83 ec 28	 sub	 esp, 40			; 00000028H
  00006	a1 00 00 00 00	 mov	 eax, DWORD PTR ___security_cookie
  0000b	33 c5		 xor	 eax, ebp
  0000d	89 45 fc	 mov	 DWORD PTR __$ArrayPad$[ebp], eax
  00010	8b 45 14	 mov	 eax, DWORD PTR _vertScale$[ebp]
  00013	53		 push	 ebx
  00014	8b 5d 08	 mov	 ebx, DWORD PTR _pDC$[ebp]
  00017	56		 push	 esi
  00018	8b 75 10	 mov	 esi, DWORD PTR _vertScaleRegion$[ebp]
  0001b	57		 push	 edi
  0001c	8b 7d 0c	 mov	 edi, DWORD PTR _drawingVertScaleData$[ebp]

; 32   : 	DrawTextOrGrid(pDC, drawingVertScaleData, vertScaleRegion.GetLeftScaleTextRegion(), vertScaleRegion.GetRightScaleTextRegion(), vertScale);

  0001f	50		 push	 eax
  00020	8d 45 ec	 lea	 eax, DWORD PTR $T2[ebp]
  00023	89 4d d8	 mov	 DWORD PTR _this$GSCopy$1$[ebp], ecx
  00026	50		 push	 eax
  00027	8b ce		 mov	 ecx, esi
  00029	e8 00 00 00 00	 call	 ?GetRightScaleTextRegion@CVertScaleRegion@@QBE?AVCRect@@XZ ; CVertScaleRegion::GetRightScaleTextRegion
  0002e	50		 push	 eax
  0002f	8d 45 dc	 lea	 eax, DWORD PTR $T1[ebp]
  00032	8b ce		 mov	 ecx, esi
  00034	50		 push	 eax
  00035	e8 00 00 00 00	 call	 ?GetLeftScaleTextRegion@CVertScaleRegion@@QBE?AVCRect@@XZ ; CVertScaleRegion::GetLeftScaleTextRegion
  0003a	8b 4d d8	 mov	 ecx, DWORD PTR _this$GSCopy$1$[ebp]
  0003d	50		 push	 eax
  0003e	57		 push	 edi
  0003f	53		 push	 ebx
  00040	e8 00 00 00 00	 call	 ?DrawTextOrGrid@CLogScaleDrawer@@AAEXPAVCDC@@ABVCDrawingVertScaleData@@ABVCRect@@2ABVCVerticalScale@@@Z ; CLogScaleDrawer::DrawTextOrGrid

; 33   : }

  00045	8b 4d fc	 mov	 ecx, DWORD PTR __$ArrayPad$[ebp]
  00048	5f		 pop	 edi
  00049	5e		 pop	 esi
  0004a	33 cd		 xor	 ecx, ebp
  0004c	5b		 pop	 ebx
  0004d	e8 00 00 00 00	 call	 @__security_check_cookie@4
  00052	8b e5		 mov	 esp, ebp
  00054	5d		 pop	 ebp
  00055	c2 10 00	 ret	 16			; 00000010H
?DrawTextOrGrid_Both@CLogScaleDrawer@@UAEXPAVCDC@@ABVCDrawingVertScaleData@@ABVCVertScaleRegion@@ABVCVerticalScale@@@Z ENDP ; CLogScaleDrawer::DrawTextOrGrid_Both
_TEXT	ENDS
; Function compile flags: /Ogtp
; File D:\git\src\IBK\IBK_DRFN\ProjSrc\SrcChartEx\ChartOCX\ScaleDraw\LogScaleDrawer.cpp
; File C:\Program Files (x86)\Microsoft Visual Studio\2019\Community\VC\Tools\MSVC\14.29.30133\atlmfc\include\atltypes.h
; File D:\git\src\IBK\IBK_DRFN\ProjSrc\SrcChartEx\ChartOCX\ScaleDraw\LogScaleDrawer.cpp
;	COMDAT ?DrawTextOrGrid@CLogScaleDrawer@@UAEXPAVCDC@@ABVCDrawingVertScaleData@@ABVCScaleDrawingRegion@@ABVCVerticalScale@@@Z
_TEXT	SEGMENT
$T1 = -36						; size = 16
$T2 = -20						; size = 16
__$ArrayPad$ = -4					; size = 4
_pDC$ = 8						; size = 4
_drawingVertScaleData$ = 12				; size = 4
_scaleRegion$ = 16					; size = 4
_vertScale$ = 20					; size = 4
?DrawTextOrGrid@CLogScaleDrawer@@UAEXPAVCDC@@ABVCDrawingVertScaleData@@ABVCScaleDrawingRegion@@ABVCVerticalScale@@@Z PROC ; CLogScaleDrawer::DrawTextOrGrid, COMDAT
; _this$ = ecx

; 25   : {

  00000	55		 push	 ebp
  00001	8b ec		 mov	 ebp, esp
  00003	83 ec 24	 sub	 esp, 36			; 00000024H
  00006	a1 00 00 00 00	 mov	 eax, DWORD PTR ___security_cookie
  0000b	33 c5		 xor	 eax, ebp
  0000d	89 45 fc	 mov	 DWORD PTR __$ArrayPad$[ebp], eax
  00010	8b 45 14	 mov	 eax, DWORD PTR _vertScale$[ebp]
  00013	0f 57 c0	 xorps	 xmm0, xmm0
  00016	53		 push	 ebx
  00017	56		 push	 esi
  00018	8b 75 0c	 mov	 esi, DWORD PTR _drawingVertScaleData$[ebp]
  0001b	8b d9		 mov	 ebx, ecx
  0001d	8b 4d 10	 mov	 ecx, DWORD PTR _scaleRegion$[ebp]
  00020	57		 push	 edi
  00021	8b 7d 08	 mov	 edi, DWORD PTR _pDC$[ebp]

; 26   : 	DrawTextOrGrid(pDC, drawingVertScaleData, scaleRegion.GetScaleTextRegion(), CRect(0, 0, 0, 0), vertScale);

  00024	50		 push	 eax
  00025	8d 45 ec	 lea	 eax, DWORD PTR $T2[ebp]
  00028	50		 push	 eax
  00029	8d 45 dc	 lea	 eax, DWORD PTR $T1[ebp]
  0002c	50		 push	 eax
; File C:\Program Files (x86)\Microsoft Visual Studio\2019\Community\VC\Tools\MSVC\14.29.30133\atlmfc\include\atltypes.h

; 540  : 	left = l;

  0002d	0f 11 45 ec	 movups	 XMMWORD PTR $T2[ebp], xmm0
; File D:\git\src\IBK\IBK_DRFN\ProjSrc\SrcChartEx\ChartOCX\ScaleDraw\LogScaleDrawer.cpp

; 26   : 	DrawTextOrGrid(pDC, drawingVertScaleData, scaleRegion.GetScaleTextRegion(), CRect(0, 0, 0, 0), vertScale);

  00031	e8 00 00 00 00	 call	 ?GetScaleTextRegion@CScaleDrawingRegion@@QBE?AVCRect@@XZ ; CScaleDrawingRegion::GetScaleTextRegion
  00036	50		 push	 eax
  00037	56		 push	 esi
  00038	57		 push	 edi
  00039	8b cb		 mov	 ecx, ebx
  0003b	e8 00 00 00 00	 call	 ?DrawTextOrGrid@CLogScaleDrawer@@AAEXPAVCDC@@ABVCDrawingVertScaleData@@ABVCRect@@2ABVCVerticalScale@@@Z ; CLogScaleDrawer::DrawTextOrGrid

; 27   : }

  00040	8b 4d fc	 mov	 ecx, DWORD PTR __$ArrayPad$[ebp]
  00043	5f		 pop	 edi
  00044	5e		 pop	 esi
  00045	33 cd		 xor	 ecx, ebp
  00047	5b		 pop	 ebx
  00048	e8 00 00 00 00	 call	 @__security_check_cookie@4
  0004d	8b e5		 mov	 esp, ebp
  0004f	5d		 pop	 ebp
  00050	c2 10 00	 ret	 16			; 00000010H
?DrawTextOrGrid@CLogScaleDrawer@@UAEXPAVCDC@@ABVCDrawingVertScaleData@@ABVCScaleDrawingRegion@@ABVCVerticalScale@@@Z ENDP ; CLogScaleDrawer::DrawTextOrGrid
_TEXT	ENDS
; Function compile flags: /Ogtp
; File D:\git\src\IBK\IBK_DRFN\ProjSrc\SrcChartEx\ChartOCX\ScaleDraw\LogScaleDrawer.cpp
;	COMDAT ??0CLogScaleDrawer@@QAE@PAUHWND__@@W4CHART_MODE@CChartInfo@@@Z
_TEXT	SEGMENT
_p_hOcxWnd$ = 8						; size = 4
_p_eChartMode$ = 12					; size = 4
??0CLogScaleDrawer@@QAE@PAUHWND__@@W4CHART_MODE@CChartInfo@@@Z PROC ; CLogScaleDrawer::CLogScaleDrawer, COMDAT
; _this$ = ecx

; 20   : {

  00000	55		 push	 ebp
  00001	8b ec		 mov	 ebp, esp
  00003	56		 push	 esi
  00004	ff 75 0c	 push	 DWORD PTR _p_eChartMode$[ebp]
  00007	8b f1		 mov	 esi, ecx
  00009	ff 75 08	 push	 DWORD PTR _p_hOcxWnd$[ebp]
  0000c	e8 00 00 00 00	 call	 ??0CVertScaleDrawer@@QAE@PAUHWND__@@W4CHART_MODE@CChartInfo@@@Z ; CVertScaleDrawer::CVertScaleDrawer
  00011	c7 06 00 00 00
	00		 mov	 DWORD PTR [esi], OFFSET ??_7CLogScaleDrawer@@6B@

; 21   : }

  00017	8b c6		 mov	 eax, esi
  00019	5e		 pop	 esi
  0001a	5d		 pop	 ebp
  0001b	c2 08 00	 ret	 8
??0CLogScaleDrawer@@QAE@PAUHWND__@@W4CHART_MODE@CChartInfo@@@Z ENDP ; CLogScaleDrawer::CLogScaleDrawer
_TEXT	ENDS
; Function compile flags: /Ogtp
; File D:\git\src\IBK\IBK_DRFN\ProjSrc\SrcChartEx\ChartOCX\ScaleDraw\LogScaleDrawer.cpp
;	COMDAT ?__empty_global_delete@@YAXPAXI@Z
_TEXT	SEGMENT
___formal$ = 8						; size = 4
___formal$ = 12						; size = 4
?__empty_global_delete@@YAXPAXI@Z PROC			; __empty_global_delete, COMDAT

  00000	c2 00 00	 ret	 0
?__empty_global_delete@@YAXPAXI@Z ENDP			; __empty_global_delete
_TEXT	ENDS
; Function compile flags: /Ogtp
; File D:\git\src\IBK\IBK_DRFN\ProjSrc\SrcChartEx\ChartOCX\ScaleDraw\LogScaleDrawer.cpp
;	COMDAT ?__empty_global_delete@@YAXPAX@Z
_TEXT	SEGMENT
___formal$ = 8						; size = 4
?__empty_global_delete@@YAXPAX@Z PROC			; __empty_global_delete, COMDAT

  00000	c2 00 00	 ret	 0
?__empty_global_delete@@YAXPAX@Z ENDP			; __empty_global_delete
_TEXT	ENDS
END
