; Listing generated by Microsoft (R) Optimizing Compiler Version 19.29.30145.0 

	TITLE	D:\git\src\IBK\IBK_DRFN\#DRfn-CS\_Obj\ScaleDraw\PriceScaleDrawer.obj
	.686P
	.XMM
	include listing.inc
	.model	flat

INCLUDELIB MSVCRT
INCLUDELIB OLDNAMES

PUBLIC	?__empty_global_delete@@YAXPAX@Z		; __empty_global_delete
PUBLIC	?__empty_global_delete@@YAXPAXI@Z		; __empty_global_delete
PUBLIC	??0CPriceScaleDrawer@@QAE@PAUHWND__@@W4CHART_MODE@CChartInfo@@@Z ; CPriceScaleDrawer::CPriceScaleDrawer
PUBLIC	?DrawTextOrGrid@CPriceScaleDrawer@@UAEXPAVCDC@@ABVCDrawingVertScaleData@@ABVCScaleDrawingRegion@@ABVCVerticalScale@@@Z ; CPriceScaleDrawer::DrawTextOrGrid
PUBLIC	?DrawTextOrGrid_Both@CPriceScaleDrawer@@UAEXPAVCDC@@ABVCDrawingVertScaleData@@ABVCVertScaleRegion@@ABVCVerticalScale@@@Z ; CPriceScaleDrawer::DrawTextOrGrid_Both
PUBLIC	?DrawTextOrGrid@CPriceScaleDrawer@@IAEXPAVCDC@@ABVCDrawingVertScaleData@@ABVCScaleDrawingRegion@@ABVCVerticalScale@@ABV?$CStringT@DV?$StrTraitMFC_DLL@DV?$ChTraitsCRT@D@ATL@@@@@ATL@@@Z ; CPriceScaleDrawer::DrawTextOrGrid
PUBLIC	?DrawTextOrGrid_Both@CPriceScaleDrawer@@IAEXPAVCDC@@ABVCDrawingVertScaleData@@ABVCVertScaleRegion@@ABVCVerticalScale@@ABV?$CStringT@DV?$StrTraitMFC_DLL@DV?$ChTraitsCRT@D@ATL@@@@@ATL@@@Z ; CPriceScaleDrawer::DrawTextOrGrid_Both
PUBLIC	?GetPriceDrawingEnvironment@CPriceScaleDrawer@@IAE_NABVCDisplayDataMinMax@@ABV?$CStringT@DV?$StrTraitMFC_DLL@DV?$ChTraitsCRT@D@ATL@@@@@ATL@@HAANAAH3AA_NABVCVerticalScale@@N@Z ; CPriceScaleDrawer::GetPriceDrawingEnvironment
PUBLIC	??1CScaleCompart@@QAE@XZ			; CScaleCompart::~CScaleCompart
PUBLIC	??0CScaleCompart@@QAE@ABV0@@Z			; CScaleCompart::CScaleCompart
PUBLIC	??1CScale@@QAE@XZ				; CScale::~CScale
PUBLIC	??0CScale@@QAE@ABV0@@Z				; CScale::CScale
PUBLIC	??1CHorizontalScale@@QAE@XZ			; CHorizontalScale::~CHorizontalScale
PUBLIC	??0CHorizontalScale@@QAE@ABV0@@Z		; CHorizontalScale::CHorizontalScale
PUBLIC	?IsVertScaleMinMaxLock@CVerticalScale@@QBEHXZ	; CVerticalScale::IsVertScaleMinMaxLock
PUBLIC	?SetVertScaleMinMaxLock@CVerticalScale@@QAEXH@Z	; CVerticalScale::SetVertScaleMinMaxLock
PUBLIC	?GetVertScaleMinMaxType@CVerticalScale@@QBE?AW4VERTMINMAXTYPE@CScaleBaseData@@XZ ; CVerticalScale::GetVertScaleMinMaxType
PUBLIC	?SetVertScaleMinMaxType@CVerticalScale@@QAEXW4VERTMINMAXTYPE@CScaleBaseData@@@Z ; CVerticalScale::SetVertScaleMinMaxType
PUBLIC	?GetVertScaleMin@CVerticalScale@@QBENXZ		; CVerticalScale::GetVertScaleMin
PUBLIC	?SetVertScaleMin@CVerticalScale@@QAEXN@Z	; CVerticalScale::SetVertScaleMin
PUBLIC	?GetVertScaleMax@CVerticalScale@@QBENXZ		; CVerticalScale::GetVertScaleMax
PUBLIC	?SetVertScaleMax@CVerticalScale@@QAEXN@Z	; CVerticalScale::SetVertScaleMax
PUBLIC	?SetVertScaleHoGaNumber@CVerticalScale@@QAEXN@Z	; CVerticalScale::SetVertScaleHoGaNumber
PUBLIC	?SetVertScaleUserNumber@CVerticalScale@@QAEXN@Z	; CVerticalScale::SetVertScaleUserNumber
PUBLIC	?SetVertUserHogaScaleType@CVerticalScale@@QAEXH@Z ; CVerticalScale::SetVertUserHogaScaleType
PUBLIC	?GetVertScaleHoGaNumber@CVerticalScale@@QBENXZ	; CVerticalScale::GetVertScaleHoGaNumber
PUBLIC	?GetVertScaleUserNumber@CVerticalScale@@QBENXZ	; CVerticalScale::GetVertScaleUserNumber
PUBLIC	?GetVertUserHogaScaleType@CVerticalScale@@QBEHXZ ; CVerticalScale::GetVertUserHogaScaleType
PUBLIC	?GetVertScaleInvertType@CVerticalScale@@QBE_NXZ	; CVerticalScale::GetVertScaleInvertType
PUBLIC	?SetVertScaleInvertType@CVerticalScale@@QAEX_N@Z ; CVerticalScale::SetVertScaleInvertType
PUBLIC	?SetSpace@CVerticalScale@@QAEXHH@Z		; CVerticalScale::SetSpace
PUBLIC	?GetSpace@CVerticalScale@@QBEXAAH0@Z		; CVerticalScale::GetSpace
PUBLIC	??1CVerticalScale@@QAE@XZ			; CVerticalScale::~CVerticalScale
PUBLIC	??0CVerticalScale@@QAE@ABV0@@Z			; CVerticalScale::CVerticalScale
PUBLIC	??4CHorzScaleRegionHeight@@QAEAAV0@ABV0@@Z	; CHorzScaleRegionHeight::operator=
PUBLIC	??4CHorzScaleRegionHeight@@QAEAAV0@$$QAV0@@Z	; CHorzScaleRegionHeight::operator=
PUBLIC	??4CVertScaleRegionWidth@@QAEAAV0@ABV0@@Z	; CVertScaleRegionWidth::operator=
PUBLIC	??4CVertScaleRegionWidth@@QAEAAV0@$$QAV0@@Z	; CVertScaleRegionWidth::operator=
PUBLIC	??4CHorzScaleRegion@@QAEAAV0@ABV0@@Z		; CHorzScaleRegion::operator=
PUBLIC	??4CHorzScaleRegion@@QAEAAV0@$$QAV0@@Z		; CHorzScaleRegion::operator=
PUBLIC	??4CVertScaleRegion@@QAEAAV0@ABV0@@Z		; CVertScaleRegion::operator=
PUBLIC	??4CVertScaleRegion@@QAEAAV0@$$QAV0@@Z		; CVertScaleRegion::operator=
PUBLIC	??_7CPriceScaleDrawer@@6B@			; CPriceScaleDrawer::`vftable'
PUBLIC	??_7CScale@@6B@					; CScale::`vftable'
PUBLIC	??_7CHorizontalScale@@6B@			; CHorizontalScale::`vftable'
PUBLIC	??_7CVerticalScale@@6B@				; CVerticalScale::`vftable'
PUBLIC	??_R4CVerticalScale@@6B@			; CVerticalScale::`RTTI Complete Object Locator'
PUBLIC	??_R0?AVCVerticalScale@@@8			; CVerticalScale `RTTI Type Descriptor'
PUBLIC	??_R3CVerticalScale@@8				; CVerticalScale::`RTTI Class Hierarchy Descriptor'
PUBLIC	??_R2CVerticalScale@@8				; CVerticalScale::`RTTI Base Class Array'
PUBLIC	??_R1A@?0A@EA@CVerticalScale@@8			; CVerticalScale::`RTTI Base Class Descriptor at (0,-1,0,64)'
PUBLIC	??_R1A@?0A@EA@CScale@@8				; CScale::`RTTI Base Class Descriptor at (0,-1,0,64)'
PUBLIC	??_R0?AVCScale@@@8				; CScale `RTTI Type Descriptor'
PUBLIC	??_R3CScale@@8					; CScale::`RTTI Class Hierarchy Descriptor'
PUBLIC	??_R2CScale@@8					; CScale::`RTTI Base Class Array'
PUBLIC	??_R4CPriceScaleDrawer@@6B@			; CPriceScaleDrawer::`RTTI Complete Object Locator'
PUBLIC	??_R0?AVCPriceScaleDrawer@@@8			; CPriceScaleDrawer `RTTI Type Descriptor'
PUBLIC	??_R3CPriceScaleDrawer@@8			; CPriceScaleDrawer::`RTTI Class Hierarchy Descriptor'
PUBLIC	??_R2CPriceScaleDrawer@@8			; CPriceScaleDrawer::`RTTI Base Class Array'
PUBLIC	??_R1A@?0A@EA@CPriceScaleDrawer@@8		; CPriceScaleDrawer::`RTTI Base Class Descriptor at (0,-1,0,64)'
PUBLIC	??_R1A@?0A@EA@CVertScaleDrawer@@8		; CVertScaleDrawer::`RTTI Base Class Descriptor at (0,-1,0,64)'
PUBLIC	??_R0?AVCVertScaleDrawer@@@8			; CVertScaleDrawer `RTTI Type Descriptor'
PUBLIC	??_R3CVertScaleDrawer@@8			; CVertScaleDrawer::`RTTI Class Hierarchy Descriptor'
PUBLIC	??_R2CVertScaleDrawer@@8			; CVertScaleDrawer::`RTTI Base Class Array'
PUBLIC	??_R13?0A@EA@CDrawer@@8				; CDrawer::`RTTI Base Class Descriptor at (4,-1,0,64)'
PUBLIC	??_R0?AVCDrawer@@@8				; CDrawer `RTTI Type Descriptor'
PUBLIC	??_R3CDrawer@@8					; CDrawer::`RTTI Class Hierarchy Descriptor'
PUBLIC	??_R2CDrawer@@8					; CDrawer::`RTTI Base Class Array'
PUBLIC	??_R1A@?0A@EA@CDrawer@@8			; CDrawer::`RTTI Base Class Descriptor at (0,-1,0,64)'
PUBLIC	??_R4CScale@@6B@				; CScale::`RTTI Complete Object Locator'
PUBLIC	??_R4CHorizontalScale@@6B@			; CHorizontalScale::`RTTI Complete Object Locator'
PUBLIC	??_R0?AVCHorizontalScale@@@8			; CHorizontalScale `RTTI Type Descriptor'
PUBLIC	??_R3CHorizontalScale@@8			; CHorizontalScale::`RTTI Class Hierarchy Descriptor'
PUBLIC	??_R2CHorizontalScale@@8			; CHorizontalScale::`RTTI Base Class Array'
PUBLIC	??_R1A@?0A@EA@CHorizontalScale@@8		; CHorizontalScale::`RTTI Base Class Descriptor at (0,-1,0,64)'
PUBLIC	__real@3ff0000000000000
PUBLIC	__real@4024000000000000
EXTRN	__imp__atof:PROC
EXTRN	__imp_??0?$CStringT@DV?$StrTraitMFC_DLL@DV?$ChTraitsCRT@D@ATL@@@@@ATL@@QAE@ABV01@@Z:PROC
EXTRN	__imp_??1?$CStringT@DV?$StrTraitMFC_DLL@DV?$ChTraitsCRT@D@ATL@@@@@ATL@@QAE@XZ:PROC
EXTRN	__imp_?Find@?$CStringT@DV?$StrTraitMFC_DLL@DV?$ChTraitsCRT@D@ATL@@@@@ATL@@QBEHDH@Z:PROC
EXTRN	__imp_?Mid@?$CStringT@DV?$StrTraitMFC_DLL@DV?$ChTraitsCRT@D@ATL@@@@@ATL@@QBE?AV12@H@Z:PROC
EXTRN	?GetPacketDataType@CDrawer@@IBE?AV?$CStringT@DV?$StrTraitMFC_DLL@DV?$ChTraitsCRT@D@ATL@@@@@ATL@@PAVCPacket@@@Z:PROC ; CDrawer::GetPacketDataType
EXTRN	??0CVertScaleDrawer@@QAE@PAUHWND__@@W4CHART_MODE@CChartInfo@@@Z:PROC ; CVertScaleDrawer::CVertScaleDrawer
EXTRN	?GetDrawingEnvironment@CVertScaleDrawer@@IAE_NPAVCDC@@ABVCRect@@ABVCDisplayDataMinMax@@ABV?$CStringT@DV?$StrTraitMFC_DLL@DV?$ChTraitsCRT@D@ATL@@@@@ATL@@AAH4AANAA_N@Z:PROC ; CVertScaleDrawer::GetDrawingEnvironment
EXTRN	?GetFormatTrans@CVertScaleDrawer@@IAE?AV?$CStringT@DV?$StrTraitMFC_DLL@DV?$ChTraitsCRT@D@ATL@@@@@ATL@@ABVCDisplayDataMinMax@@ABV23@H@Z:PROC ; CVertScaleDrawer::GetFormatTrans
EXTRN	?DrawTextOrGrid@CVertScaleDrawer@@IAEXPAVCDC@@NHHHABN_NABVCDrawingVertScaleData@@ABVCVerticalScale@@ABVCRect@@5ABV?$CStringT@DV?$StrTraitMFC_DLL@DV?$ChTraitsCRT@D@ATL@@@@@ATL@@62N@Z:PROC ; CVertScaleDrawer::DrawTextOrGrid
EXTRN	?DrawType@CVertScaleDrawer@@IAEHPAVCDC@@ABVCRect@@ABV?$CStringT@DV?$StrTraitMFC_DLL@DV?$ChTraitsCRT@D@ATL@@@@@ATL@@_NW4VERTSCALEUNITTYPE@CScaleBaseData@@K@Z:PROC ; CVertScaleDrawer::DrawType
EXTRN	?GetStartAndEnd@CVertScaleDrawer@@IBEXABVCDisplayDataMinMax@@HABNAAH2@Z:PROC ; CVertScaleDrawer::GetStartAndEnd
EXTRN	?GetBround@CVertScaleDrawer@@IBE_NABVCDisplayDataMinMax@@@Z:PROC ; CVertScaleDrawer::GetBround
EXTRN	?GetCount@CVertScaleDrawer@@IBEHPAVCDC@@H@Z:PROC ; CVertScaleDrawer::GetCount
EXTRN	__imp_?GetType@CPacket@@QAE?AV?$CStringT@DV?$StrTraitMFC_DLL@DV?$ChTraitsCRT@D@ATL@@@@@ATL@@_N@Z:PROC
EXTRN	__imp_?IsAutoScaleType@CPacket@@QAEHXZ:PROC
EXTRN	__imp_?SetScaleType@CPacket@@QAEXABV?$CStringT@DV?$StrTraitMFC_DLL@DV?$ChTraitsCRT@D@ATL@@@@@ATL@@@Z:PROC
EXTRN	?SetScaleData@CScale@@UAEXPADPAUHWND__@@@Z:PROC	; CScale::SetScaleData
EXTRN	?SetScaleData@CHorizontalScale@@UAEXPADPAUHWND__@@@Z:PROC ; CHorizontalScale::SetScaleData
EXTRN	?SetScaleData@CVerticalScale@@UAEXPADPAUHWND__@@@Z:PROC ; CVerticalScale::SetScaleData
EXTRN	?GetVertScaleUnitType@CVerticalScale@@QBE?AW4VERTSCALEUNITTYPE@CScaleBaseData@@XZ:PROC ; CVerticalScale::GetVertScaleUnitType
EXTRN	?GetLeftScaleTextRegion@CVertScaleRegion@@QBE?AVCRect@@XZ:PROC ; CVertScaleRegion::GetLeftScaleTextRegion
EXTRN	?GetRightScaleTextRegion@CVertScaleRegion@@QBE?AVCRect@@XZ:PROC ; CVertScaleRegion::GetRightScaleTextRegion
EXTRN	?GetDisplayMin@CDisplayDataMinMax@@QBENXZ:PROC	; CDisplayDataMinMax::GetDisplayMin
EXTRN	?GetCount@CDisplayDataMinMax@@QBENXZ:PROC	; CDisplayDataMinMax::GetCount
EXTRN	__imp_?GetScaleTextColor@CScaleColor@@QAEAAKXZ:PROC
EXTRN	?GetScaleColor@CDrawingVertScaleData@@QBE?AVCScaleColor@@XZ:PROC ; CDrawingVertScaleData::GetScaleColor
EXTRN	?GetDisplayDataMinMax@CDrawingVertScaleData@@QBE?AVCDisplayDataMinMax@@XZ:PROC ; CDrawingVertScaleData::GetDisplayDataMinMax
EXTRN	?GetPacket@CDrawingVertScaleData@@QBEPAVCPacket@@XZ:PROC ; CDrawingVertScaleData::GetPacket
EXTRN	?GetHogaUnit@CDrawingVertScaleData@@QBENH@Z:PROC ; CDrawingVertScaleData::GetHogaUnit
EXTRN	?GetStandardValue@CDrawingVertScaleData@@QBENXZ:PROC ; CDrawingVertScaleData::GetStandardValue
EXTRN	?GetScaleTextRegion@CScaleDrawingRegion@@QBE?AVCRect@@XZ:PROC ; CScaleDrawingRegion::GetScaleTextRegion
EXTRN	?GetBaseFormatInfo@CDataConversion@@SA_NABV?$CStringT@DV?$StrTraitMFC_DLL@DV?$ChTraitsCRT@D@ATL@@@@@ATL@@AAH11@Z:PROC ; CDataConversion::GetBaseFormatInfo
EXTRN	@__security_check_cookie@4:PROC
EXTRN	___CxxFrameHandler3:PROC
EXTRN	__libm_sse2_log10_precise:PROC
EXTRN	__libm_sse2_pow_precise:PROC
EXTRN	??_7type_info@@6B@:QWORD			; type_info::`vftable'
EXTRN	___security_cookie:DWORD
EXTRN	__fltused:DWORD
;	COMDAT __real@4024000000000000
CONST	SEGMENT
__real@4024000000000000 DQ 04024000000000000r	; 10
CONST	ENDS
;	COMDAT __real@3ff0000000000000
CONST	SEGMENT
__real@3ff0000000000000 DQ 03ff0000000000000r	; 1
CONST	ENDS
;	COMDAT ??_R1A@?0A@EA@CHorizontalScale@@8
rdata$r	SEGMENT
??_R1A@?0A@EA@CHorizontalScale@@8 DD FLAT:??_R0?AVCHorizontalScale@@@8 ; CHorizontalScale::`RTTI Base Class Descriptor at (0,-1,0,64)'
	DD	01H
	DD	00H
	DD	0ffffffffH
	DD	00H
	DD	040H
	DD	FLAT:??_R3CHorizontalScale@@8
rdata$r	ENDS
;	COMDAT ??_R2CHorizontalScale@@8
rdata$r	SEGMENT
??_R2CHorizontalScale@@8 DD FLAT:??_R1A@?0A@EA@CHorizontalScale@@8 ; CHorizontalScale::`RTTI Base Class Array'
	DD	FLAT:??_R1A@?0A@EA@CScale@@8
rdata$r	ENDS
;	COMDAT ??_R3CHorizontalScale@@8
rdata$r	SEGMENT
??_R3CHorizontalScale@@8 DD 00H				; CHorizontalScale::`RTTI Class Hierarchy Descriptor'
	DD	00H
	DD	02H
	DD	FLAT:??_R2CHorizontalScale@@8
rdata$r	ENDS
;	COMDAT ??_R0?AVCHorizontalScale@@@8
data$rs	SEGMENT
??_R0?AVCHorizontalScale@@@8 DD FLAT:??_7type_info@@6B@	; CHorizontalScale `RTTI Type Descriptor'
	DD	00H
	DB	'.?AVCHorizontalScale@@', 00H
data$rs	ENDS
;	COMDAT ??_R4CHorizontalScale@@6B@
rdata$r	SEGMENT
??_R4CHorizontalScale@@6B@ DD 00H			; CHorizontalScale::`RTTI Complete Object Locator'
	DD	00H
	DD	00H
	DD	FLAT:??_R0?AVCHorizontalScale@@@8
	DD	FLAT:??_R3CHorizontalScale@@8
rdata$r	ENDS
;	COMDAT ??_R4CScale@@6B@
rdata$r	SEGMENT
??_R4CScale@@6B@ DD 00H					; CScale::`RTTI Complete Object Locator'
	DD	00H
	DD	00H
	DD	FLAT:??_R0?AVCScale@@@8
	DD	FLAT:??_R3CScale@@8
rdata$r	ENDS
;	COMDAT ??_R1A@?0A@EA@CDrawer@@8
rdata$r	SEGMENT
??_R1A@?0A@EA@CDrawer@@8 DD FLAT:??_R0?AVCDrawer@@@8	; CDrawer::`RTTI Base Class Descriptor at (0,-1,0,64)'
	DD	00H
	DD	00H
	DD	0ffffffffH
	DD	00H
	DD	040H
	DD	FLAT:??_R3CDrawer@@8
rdata$r	ENDS
;	COMDAT ??_R2CDrawer@@8
rdata$r	SEGMENT
??_R2CDrawer@@8 DD FLAT:??_R1A@?0A@EA@CDrawer@@8	; CDrawer::`RTTI Base Class Array'
rdata$r	ENDS
;	COMDAT ??_R3CDrawer@@8
rdata$r	SEGMENT
??_R3CDrawer@@8 DD 00H					; CDrawer::`RTTI Class Hierarchy Descriptor'
	DD	00H
	DD	01H
	DD	FLAT:??_R2CDrawer@@8
rdata$r	ENDS
;	COMDAT ??_R0?AVCDrawer@@@8
data$rs	SEGMENT
??_R0?AVCDrawer@@@8 DD FLAT:??_7type_info@@6B@		; CDrawer `RTTI Type Descriptor'
	DD	00H
	DB	'.?AVCDrawer@@', 00H
data$rs	ENDS
;	COMDAT ??_R13?0A@EA@CDrawer@@8
rdata$r	SEGMENT
??_R13?0A@EA@CDrawer@@8 DD FLAT:??_R0?AVCDrawer@@@8	; CDrawer::`RTTI Base Class Descriptor at (4,-1,0,64)'
	DD	00H
	DD	04H
	DD	0ffffffffH
	DD	00H
	DD	040H
	DD	FLAT:??_R3CDrawer@@8
rdata$r	ENDS
;	COMDAT ??_R2CVertScaleDrawer@@8
rdata$r	SEGMENT
??_R2CVertScaleDrawer@@8 DD FLAT:??_R1A@?0A@EA@CVertScaleDrawer@@8 ; CVertScaleDrawer::`RTTI Base Class Array'
	DD	FLAT:??_R13?0A@EA@CDrawer@@8
rdata$r	ENDS
;	COMDAT ??_R3CVertScaleDrawer@@8
rdata$r	SEGMENT
??_R3CVertScaleDrawer@@8 DD 00H				; CVertScaleDrawer::`RTTI Class Hierarchy Descriptor'
	DD	00H
	DD	02H
	DD	FLAT:??_R2CVertScaleDrawer@@8
rdata$r	ENDS
;	COMDAT ??_R0?AVCVertScaleDrawer@@@8
data$rs	SEGMENT
??_R0?AVCVertScaleDrawer@@@8 DD FLAT:??_7type_info@@6B@	; CVertScaleDrawer `RTTI Type Descriptor'
	DD	00H
	DB	'.?AVCVertScaleDrawer@@', 00H
data$rs	ENDS
;	COMDAT ??_R1A@?0A@EA@CVertScaleDrawer@@8
rdata$r	SEGMENT
??_R1A@?0A@EA@CVertScaleDrawer@@8 DD FLAT:??_R0?AVCVertScaleDrawer@@@8 ; CVertScaleDrawer::`RTTI Base Class Descriptor at (0,-1,0,64)'
	DD	01H
	DD	00H
	DD	0ffffffffH
	DD	00H
	DD	040H
	DD	FLAT:??_R3CVertScaleDrawer@@8
rdata$r	ENDS
;	COMDAT ??_R1A@?0A@EA@CPriceScaleDrawer@@8
rdata$r	SEGMENT
??_R1A@?0A@EA@CPriceScaleDrawer@@8 DD FLAT:??_R0?AVCPriceScaleDrawer@@@8 ; CPriceScaleDrawer::`RTTI Base Class Descriptor at (0,-1,0,64)'
	DD	02H
	DD	00H
	DD	0ffffffffH
	DD	00H
	DD	040H
	DD	FLAT:??_R3CPriceScaleDrawer@@8
rdata$r	ENDS
;	COMDAT ??_R2CPriceScaleDrawer@@8
rdata$r	SEGMENT
??_R2CPriceScaleDrawer@@8 DD FLAT:??_R1A@?0A@EA@CPriceScaleDrawer@@8 ; CPriceScaleDrawer::`RTTI Base Class Array'
	DD	FLAT:??_R1A@?0A@EA@CVertScaleDrawer@@8
	DD	FLAT:??_R13?0A@EA@CDrawer@@8
rdata$r	ENDS
;	COMDAT ??_R3CPriceScaleDrawer@@8
rdata$r	SEGMENT
??_R3CPriceScaleDrawer@@8 DD 00H			; CPriceScaleDrawer::`RTTI Class Hierarchy Descriptor'
	DD	00H
	DD	03H
	DD	FLAT:??_R2CPriceScaleDrawer@@8
rdata$r	ENDS
;	COMDAT ??_R0?AVCPriceScaleDrawer@@@8
data$rs	SEGMENT
??_R0?AVCPriceScaleDrawer@@@8 DD FLAT:??_7type_info@@6B@ ; CPriceScaleDrawer `RTTI Type Descriptor'
	DD	00H
	DB	'.?AVCPriceScaleDrawer@@', 00H
data$rs	ENDS
;	COMDAT ??_R4CPriceScaleDrawer@@6B@
rdata$r	SEGMENT
??_R4CPriceScaleDrawer@@6B@ DD 00H			; CPriceScaleDrawer::`RTTI Complete Object Locator'
	DD	00H
	DD	00H
	DD	FLAT:??_R0?AVCPriceScaleDrawer@@@8
	DD	FLAT:??_R3CPriceScaleDrawer@@8
rdata$r	ENDS
;	COMDAT ??_R2CScale@@8
rdata$r	SEGMENT
??_R2CScale@@8 DD FLAT:??_R1A@?0A@EA@CScale@@8		; CScale::`RTTI Base Class Array'
rdata$r	ENDS
;	COMDAT ??_R3CScale@@8
rdata$r	SEGMENT
??_R3CScale@@8 DD 00H					; CScale::`RTTI Class Hierarchy Descriptor'
	DD	00H
	DD	01H
	DD	FLAT:??_R2CScale@@8
rdata$r	ENDS
;	COMDAT ??_R0?AVCScale@@@8
data$rs	SEGMENT
??_R0?AVCScale@@@8 DD FLAT:??_7type_info@@6B@		; CScale `RTTI Type Descriptor'
	DD	00H
	DB	'.?AVCScale@@', 00H
data$rs	ENDS
;	COMDAT ??_R1A@?0A@EA@CScale@@8
rdata$r	SEGMENT
??_R1A@?0A@EA@CScale@@8 DD FLAT:??_R0?AVCScale@@@8	; CScale::`RTTI Base Class Descriptor at (0,-1,0,64)'
	DD	00H
	DD	00H
	DD	0ffffffffH
	DD	00H
	DD	040H
	DD	FLAT:??_R3CScale@@8
rdata$r	ENDS
;	COMDAT ??_R1A@?0A@EA@CVerticalScale@@8
rdata$r	SEGMENT
??_R1A@?0A@EA@CVerticalScale@@8 DD FLAT:??_R0?AVCVerticalScale@@@8 ; CVerticalScale::`RTTI Base Class Descriptor at (0,-1,0,64)'
	DD	01H
	DD	00H
	DD	0ffffffffH
	DD	00H
	DD	040H
	DD	FLAT:??_R3CVerticalScale@@8
rdata$r	ENDS
;	COMDAT ??_R2CVerticalScale@@8
rdata$r	SEGMENT
??_R2CVerticalScale@@8 DD FLAT:??_R1A@?0A@EA@CVerticalScale@@8 ; CVerticalScale::`RTTI Base Class Array'
	DD	FLAT:??_R1A@?0A@EA@CScale@@8
rdata$r	ENDS
;	COMDAT ??_R3CVerticalScale@@8
rdata$r	SEGMENT
??_R3CVerticalScale@@8 DD 00H				; CVerticalScale::`RTTI Class Hierarchy Descriptor'
	DD	00H
	DD	02H
	DD	FLAT:??_R2CVerticalScale@@8
rdata$r	ENDS
;	COMDAT ??_R0?AVCVerticalScale@@@8
data$rs	SEGMENT
??_R0?AVCVerticalScale@@@8 DD FLAT:??_7type_info@@6B@	; CVerticalScale `RTTI Type Descriptor'
	DD	00H
	DB	'.?AVCVerticalScale@@', 00H
data$rs	ENDS
;	COMDAT ??_R4CVerticalScale@@6B@
rdata$r	SEGMENT
??_R4CVerticalScale@@6B@ DD 00H				; CVerticalScale::`RTTI Complete Object Locator'
	DD	00H
	DD	00H
	DD	FLAT:??_R0?AVCVerticalScale@@@8
	DD	FLAT:??_R3CVerticalScale@@8
rdata$r	ENDS
;	COMDAT ??_7CVerticalScale@@6B@
CONST	SEGMENT
??_7CVerticalScale@@6B@ DD FLAT:??_R4CVerticalScale@@6B@ ; CVerticalScale::`vftable'
	DD	FLAT:?SetScaleData@CVerticalScale@@UAEXPADPAUHWND__@@@Z
CONST	ENDS
;	COMDAT ??_7CHorizontalScale@@6B@
CONST	SEGMENT
??_7CHorizontalScale@@6B@ DD FLAT:??_R4CHorizontalScale@@6B@ ; CHorizontalScale::`vftable'
	DD	FLAT:?SetScaleData@CHorizontalScale@@UAEXPADPAUHWND__@@@Z
CONST	ENDS
;	COMDAT ??_7CScale@@6B@
CONST	SEGMENT
??_7CScale@@6B@ DD FLAT:??_R4CScale@@6B@		; CScale::`vftable'
	DD	FLAT:?SetScaleData@CScale@@UAEXPADPAUHWND__@@@Z
CONST	ENDS
;	COMDAT ??_7CPriceScaleDrawer@@6B@
CONST	SEGMENT
??_7CPriceScaleDrawer@@6B@ DD FLAT:??_R4CPriceScaleDrawer@@6B@ ; CPriceScaleDrawer::`vftable'
	DD	FLAT:?DrawTextOrGrid@CPriceScaleDrawer@@UAEXPAVCDC@@ABVCDrawingVertScaleData@@ABVCScaleDrawingRegion@@ABVCVerticalScale@@@Z
	DD	FLAT:?DrawTextOrGrid_Both@CPriceScaleDrawer@@UAEXPAVCDC@@ABVCDrawingVertScaleData@@ABVCVertScaleRegion@@ABVCVerticalScale@@@Z
CONST	ENDS
;	COMDAT xdata$x
xdata$x	SEGMENT
__unwindtable$??0CHorizontalScale@@QAE@ABV0@@Z DD 0ffffffffH
	DD	FLAT:__unwindfunclet$??0CHorizontalScale@@QAE@ABV0@@Z$0
	DD	00H
	DD	FLAT:__unwindfunclet$??0CHorizontalScale@@QAE@ABV0@@Z$3
__ehfuncinfo$??0CHorizontalScale@@QAE@ABV0@@Z DD 019930522H
	DD	02H
	DD	FLAT:__unwindtable$??0CHorizontalScale@@QAE@ABV0@@Z
	DD	2 DUP(00H)
	DD	2 DUP(00H)
	DD	00H
	DD	01H
xdata$x	ENDS
;	COMDAT xdata$x
xdata$x	SEGMENT
__unwindtable$??0CScaleCompart@@QAE@ABV0@@Z DD 0ffffffffH
	DD	FLAT:__unwindfunclet$??0CScaleCompart@@QAE@ABV0@@Z$0
__ehfuncinfo$??0CScaleCompart@@QAE@ABV0@@Z DD 019930522H
	DD	01H
	DD	FLAT:__unwindtable$??0CScaleCompart@@QAE@ABV0@@Z
	DD	2 DUP(00H)
	DD	2 DUP(00H)
	DD	00H
	DD	01H
xdata$x	ENDS
;	COMDAT xdata$x
xdata$x	SEGMENT
__unwindtable$?DrawTextOrGrid_Both@CPriceScaleDrawer@@IAEXPAVCDC@@ABVCDrawingVertScaleData@@ABVCVertScaleRegion@@ABVCVerticalScale@@ABV?$CStringT@DV?$StrTraitMFC_DLL@DV?$ChTraitsCRT@D@ATL@@@@@ATL@@@Z DD 0ffffffffH
	DD	FLAT:__unwindfunclet$?DrawTextOrGrid_Both@CPriceScaleDrawer@@IAEXPAVCDC@@ABVCDrawingVertScaleData@@ABVCVertScaleRegion@@ABVCVerticalScale@@ABV?$CStringT@DV?$StrTraitMFC_DLL@DV?$ChTraitsCRT@D@ATL@@@@@ATL@@@Z$0
	DD	00H
	DD	FLAT:__unwindfunclet$?DrawTextOrGrid_Both@CPriceScaleDrawer@@IAEXPAVCDC@@ABVCDrawingVertScaleData@@ABVCVertScaleRegion@@ABVCVerticalScale@@ABV?$CStringT@DV?$StrTraitMFC_DLL@DV?$ChTraitsCRT@D@ATL@@@@@ATL@@@Z$1
	DD	01H
	DD	FLAT:__unwindfunclet$?DrawTextOrGrid_Both@CPriceScaleDrawer@@IAEXPAVCDC@@ABVCDrawingVertScaleData@@ABVCVertScaleRegion@@ABVCVerticalScale@@ABV?$CStringT@DV?$StrTraitMFC_DLL@DV?$ChTraitsCRT@D@ATL@@@@@ATL@@@Z$2
	DD	02H
	DD	FLAT:__unwindfunclet$?DrawTextOrGrid_Both@CPriceScaleDrawer@@IAEXPAVCDC@@ABVCDrawingVertScaleData@@ABVCVertScaleRegion@@ABVCVerticalScale@@ABV?$CStringT@DV?$StrTraitMFC_DLL@DV?$ChTraitsCRT@D@ATL@@@@@ATL@@@Z$3
__ehfuncinfo$?DrawTextOrGrid_Both@CPriceScaleDrawer@@IAEXPAVCDC@@ABVCDrawingVertScaleData@@ABVCVertScaleRegion@@ABVCVerticalScale@@ABV?$CStringT@DV?$StrTraitMFC_DLL@DV?$ChTraitsCRT@D@ATL@@@@@ATL@@@Z DD 019930522H
	DD	04H
	DD	FLAT:__unwindtable$?DrawTextOrGrid_Both@CPriceScaleDrawer@@IAEXPAVCDC@@ABVCDrawingVertScaleData@@ABVCVertScaleRegion@@ABVCVerticalScale@@ABV?$CStringT@DV?$StrTraitMFC_DLL@DV?$ChTraitsCRT@D@ATL@@@@@ATL@@@Z
	DD	2 DUP(00H)
	DD	2 DUP(00H)
	DD	00H
	DD	01H
xdata$x	ENDS
;	COMDAT xdata$x
xdata$x	SEGMENT
__unwindtable$?DrawTextOrGrid@CPriceScaleDrawer@@IAEXPAVCDC@@ABVCDrawingVertScaleData@@ABVCScaleDrawingRegion@@ABVCVerticalScale@@ABV?$CStringT@DV?$StrTraitMFC_DLL@DV?$ChTraitsCRT@D@ATL@@@@@ATL@@@Z DD 0ffffffffH
	DD	FLAT:__unwindfunclet$?DrawTextOrGrid@CPriceScaleDrawer@@IAEXPAVCDC@@ABVCDrawingVertScaleData@@ABVCScaleDrawingRegion@@ABVCVerticalScale@@ABV?$CStringT@DV?$StrTraitMFC_DLL@DV?$ChTraitsCRT@D@ATL@@@@@ATL@@@Z$0
	DD	00H
	DD	FLAT:__unwindfunclet$?DrawTextOrGrid@CPriceScaleDrawer@@IAEXPAVCDC@@ABVCDrawingVertScaleData@@ABVCScaleDrawingRegion@@ABVCVerticalScale@@ABV?$CStringT@DV?$StrTraitMFC_DLL@DV?$ChTraitsCRT@D@ATL@@@@@ATL@@@Z$1
	DD	01H
	DD	FLAT:__unwindfunclet$?DrawTextOrGrid@CPriceScaleDrawer@@IAEXPAVCDC@@ABVCDrawingVertScaleData@@ABVCScaleDrawingRegion@@ABVCVerticalScale@@ABV?$CStringT@DV?$StrTraitMFC_DLL@DV?$ChTraitsCRT@D@ATL@@@@@ATL@@@Z$2
__ehfuncinfo$?DrawTextOrGrid@CPriceScaleDrawer@@IAEXPAVCDC@@ABVCDrawingVertScaleData@@ABVCScaleDrawingRegion@@ABVCVerticalScale@@ABV?$CStringT@DV?$StrTraitMFC_DLL@DV?$ChTraitsCRT@D@ATL@@@@@ATL@@@Z DD 019930522H
	DD	03H
	DD	FLAT:__unwindtable$?DrawTextOrGrid@CPriceScaleDrawer@@IAEXPAVCDC@@ABVCDrawingVertScaleData@@ABVCScaleDrawingRegion@@ABVCVerticalScale@@ABV?$CStringT@DV?$StrTraitMFC_DLL@DV?$ChTraitsCRT@D@ATL@@@@@ATL@@@Z
	DD	2 DUP(00H)
	DD	2 DUP(00H)
	DD	00H
	DD	01H
xdata$x	ENDS
;	COMDAT xdata$x
xdata$x	SEGMENT
__unwindtable$?DrawTextOrGrid_Both@CPriceScaleDrawer@@UAEXPAVCDC@@ABVCDrawingVertScaleData@@ABVCVertScaleRegion@@ABVCVerticalScale@@@Z DD 0ffffffffH
	DD	FLAT:__unwindfunclet$?DrawTextOrGrid_Both@CPriceScaleDrawer@@UAEXPAVCDC@@ABVCDrawingVertScaleData@@ABVCVertScaleRegion@@ABVCVerticalScale@@@Z$0
__ehfuncinfo$?DrawTextOrGrid_Both@CPriceScaleDrawer@@UAEXPAVCDC@@ABVCDrawingVertScaleData@@ABVCVertScaleRegion@@ABVCVerticalScale@@@Z DD 019930522H
	DD	01H
	DD	FLAT:__unwindtable$?DrawTextOrGrid_Both@CPriceScaleDrawer@@UAEXPAVCDC@@ABVCDrawingVertScaleData@@ABVCVertScaleRegion@@ABVCVerticalScale@@@Z
	DD	2 DUP(00H)
	DD	2 DUP(00H)
	DD	00H
	DD	01H
xdata$x	ENDS
;	COMDAT xdata$x
xdata$x	SEGMENT
__unwindtable$?DrawTextOrGrid@CPriceScaleDrawer@@UAEXPAVCDC@@ABVCDrawingVertScaleData@@ABVCScaleDrawingRegion@@ABVCVerticalScale@@@Z DD 0ffffffffH
	DD	FLAT:__unwindfunclet$?DrawTextOrGrid@CPriceScaleDrawer@@UAEXPAVCDC@@ABVCDrawingVertScaleData@@ABVCScaleDrawingRegion@@ABVCVerticalScale@@@Z$0
__ehfuncinfo$?DrawTextOrGrid@CPriceScaleDrawer@@UAEXPAVCDC@@ABVCDrawingVertScaleData@@ABVCScaleDrawingRegion@@ABVCVerticalScale@@@Z DD 019930522H
	DD	01H
	DD	FLAT:__unwindtable$?DrawTextOrGrid@CPriceScaleDrawer@@UAEXPAVCDC@@ABVCDrawingVertScaleData@@ABVCScaleDrawingRegion@@ABVCVerticalScale@@@Z
	DD	2 DUP(00H)
	DD	2 DUP(00H)
	DD	00H
	DD	01H
xdata$x	ENDS
; Function compile flags: /Ogtp
;	COMDAT ??4CVertScaleRegion@@QAEAAV0@$$QAV0@@Z
_TEXT	SEGMENT
___that$ = 8						; size = 4
??4CVertScaleRegion@@QAEAAV0@$$QAV0@@Z PROC		; CVertScaleRegion::operator=, COMDAT
; _this$ = ecx
  00000	55		 push	 ebp
  00001	8b ec		 mov	 ebp, esp
  00003	8b 45 08	 mov	 eax, DWORD PTR ___that$[ebp]
  00006	0f 10 00	 movups	 xmm0, XMMWORD PTR [eax]
  00009	0f 11 01	 movups	 XMMWORD PTR [ecx], xmm0
  0000c	0f 10 40 10	 movups	 xmm0, XMMWORD PTR [eax+16]
  00010	8b c1		 mov	 eax, ecx
  00012	0f 11 41 10	 movups	 XMMWORD PTR [ecx+16], xmm0
  00016	5d		 pop	 ebp
  00017	c2 04 00	 ret	 4
??4CVertScaleRegion@@QAEAAV0@$$QAV0@@Z ENDP		; CVertScaleRegion::operator=
_TEXT	ENDS
; Function compile flags: /Ogtp
;	COMDAT ??4CVertScaleRegion@@QAEAAV0@ABV0@@Z
_TEXT	SEGMENT
___that$ = 8						; size = 4
??4CVertScaleRegion@@QAEAAV0@ABV0@@Z PROC		; CVertScaleRegion::operator=, COMDAT
; _this$ = ecx
  00000	55		 push	 ebp
  00001	8b ec		 mov	 ebp, esp
  00003	8b 45 08	 mov	 eax, DWORD PTR ___that$[ebp]
  00006	0f 10 00	 movups	 xmm0, XMMWORD PTR [eax]
  00009	0f 11 01	 movups	 XMMWORD PTR [ecx], xmm0
  0000c	0f 10 40 10	 movups	 xmm0, XMMWORD PTR [eax+16]
  00010	8b c1		 mov	 eax, ecx
  00012	0f 11 41 10	 movups	 XMMWORD PTR [ecx+16], xmm0
  00016	5d		 pop	 ebp
  00017	c2 04 00	 ret	 4
??4CVertScaleRegion@@QAEAAV0@ABV0@@Z ENDP		; CVertScaleRegion::operator=
_TEXT	ENDS
; Function compile flags: /Ogtp
;	COMDAT ??4CHorzScaleRegion@@QAEAAV0@$$QAV0@@Z
_TEXT	SEGMENT
___that$ = 8						; size = 4
??4CHorzScaleRegion@@QAEAAV0@$$QAV0@@Z PROC		; CHorzScaleRegion::operator=, COMDAT
; _this$ = ecx
  00000	55		 push	 ebp
  00001	8b ec		 mov	 ebp, esp
  00003	8b 45 08	 mov	 eax, DWORD PTR ___that$[ebp]
  00006	0f 10 00	 movups	 xmm0, XMMWORD PTR [eax]
  00009	0f 11 01	 movups	 XMMWORD PTR [ecx], xmm0
  0000c	0f 10 40 10	 movups	 xmm0, XMMWORD PTR [eax+16]
  00010	8b c1		 mov	 eax, ecx
  00012	0f 11 41 10	 movups	 XMMWORD PTR [ecx+16], xmm0
  00016	5d		 pop	 ebp
  00017	c2 04 00	 ret	 4
??4CHorzScaleRegion@@QAEAAV0@$$QAV0@@Z ENDP		; CHorzScaleRegion::operator=
_TEXT	ENDS
; Function compile flags: /Ogtp
;	COMDAT ??4CHorzScaleRegion@@QAEAAV0@ABV0@@Z
_TEXT	SEGMENT
___that$ = 8						; size = 4
??4CHorzScaleRegion@@QAEAAV0@ABV0@@Z PROC		; CHorzScaleRegion::operator=, COMDAT
; _this$ = ecx
  00000	55		 push	 ebp
  00001	8b ec		 mov	 ebp, esp
  00003	8b 45 08	 mov	 eax, DWORD PTR ___that$[ebp]
  00006	0f 10 00	 movups	 xmm0, XMMWORD PTR [eax]
  00009	0f 11 01	 movups	 XMMWORD PTR [ecx], xmm0
  0000c	0f 10 40 10	 movups	 xmm0, XMMWORD PTR [eax+16]
  00010	8b c1		 mov	 eax, ecx
  00012	0f 11 41 10	 movups	 XMMWORD PTR [ecx+16], xmm0
  00016	5d		 pop	 ebp
  00017	c2 04 00	 ret	 4
??4CHorzScaleRegion@@QAEAAV0@ABV0@@Z ENDP		; CHorzScaleRegion::operator=
_TEXT	ENDS
; Function compile flags: /Ogtp
;	COMDAT ??4CVertScaleRegionWidth@@QAEAAV0@$$QAV0@@Z
_TEXT	SEGMENT
___that$ = 8						; size = 4
??4CVertScaleRegionWidth@@QAEAAV0@$$QAV0@@Z PROC	; CVertScaleRegionWidth::operator=, COMDAT
; _this$ = ecx
  00000	55		 push	 ebp
  00001	8b ec		 mov	 ebp, esp
  00003	8b 55 08	 mov	 edx, DWORD PTR ___that$[ebp]
  00006	8b 02		 mov	 eax, DWORD PTR [edx]
  00008	89 01		 mov	 DWORD PTR [ecx], eax
  0000a	8b 42 04	 mov	 eax, DWORD PTR [edx+4]
  0000d	89 41 04	 mov	 DWORD PTR [ecx+4], eax
  00010	8b c1		 mov	 eax, ecx
  00012	5d		 pop	 ebp
  00013	c2 04 00	 ret	 4
??4CVertScaleRegionWidth@@QAEAAV0@$$QAV0@@Z ENDP	; CVertScaleRegionWidth::operator=
_TEXT	ENDS
; Function compile flags: /Ogtp
;	COMDAT ??4CVertScaleRegionWidth@@QAEAAV0@ABV0@@Z
_TEXT	SEGMENT
___that$ = 8						; size = 4
??4CVertScaleRegionWidth@@QAEAAV0@ABV0@@Z PROC		; CVertScaleRegionWidth::operator=, COMDAT
; _this$ = ecx
  00000	55		 push	 ebp
  00001	8b ec		 mov	 ebp, esp
  00003	8b 45 08	 mov	 eax, DWORD PTR ___that$[ebp]
  00006	8b 10		 mov	 edx, DWORD PTR [eax]
  00008	8b 40 04	 mov	 eax, DWORD PTR [eax+4]
  0000b	89 41 04	 mov	 DWORD PTR [ecx+4], eax
  0000e	8b c1		 mov	 eax, ecx
  00010	89 11		 mov	 DWORD PTR [ecx], edx
  00012	5d		 pop	 ebp
  00013	c2 04 00	 ret	 4
??4CVertScaleRegionWidth@@QAEAAV0@ABV0@@Z ENDP		; CVertScaleRegionWidth::operator=
_TEXT	ENDS
; Function compile flags: /Ogtp
;	COMDAT ??4CHorzScaleRegionHeight@@QAEAAV0@$$QAV0@@Z
_TEXT	SEGMENT
___that$ = 8						; size = 4
??4CHorzScaleRegionHeight@@QAEAAV0@$$QAV0@@Z PROC	; CHorzScaleRegionHeight::operator=, COMDAT
; _this$ = ecx
  00000	55		 push	 ebp
  00001	8b ec		 mov	 ebp, esp
  00003	8b 55 08	 mov	 edx, DWORD PTR ___that$[ebp]
  00006	8b 02		 mov	 eax, DWORD PTR [edx]
  00008	89 01		 mov	 DWORD PTR [ecx], eax
  0000a	8b 42 04	 mov	 eax, DWORD PTR [edx+4]
  0000d	89 41 04	 mov	 DWORD PTR [ecx+4], eax
  00010	8b c1		 mov	 eax, ecx
  00012	5d		 pop	 ebp
  00013	c2 04 00	 ret	 4
??4CHorzScaleRegionHeight@@QAEAAV0@$$QAV0@@Z ENDP	; CHorzScaleRegionHeight::operator=
_TEXT	ENDS
; Function compile flags: /Ogtp
;	COMDAT ??4CHorzScaleRegionHeight@@QAEAAV0@ABV0@@Z
_TEXT	SEGMENT
___that$ = 8						; size = 4
??4CHorzScaleRegionHeight@@QAEAAV0@ABV0@@Z PROC		; CHorzScaleRegionHeight::operator=, COMDAT
; _this$ = ecx
  00000	55		 push	 ebp
  00001	8b ec		 mov	 ebp, esp
  00003	8b 45 08	 mov	 eax, DWORD PTR ___that$[ebp]
  00006	8b 10		 mov	 edx, DWORD PTR [eax]
  00008	8b 40 04	 mov	 eax, DWORD PTR [eax+4]
  0000b	89 41 04	 mov	 DWORD PTR [ecx+4], eax
  0000e	8b c1		 mov	 eax, ecx
  00010	89 11		 mov	 DWORD PTR [ecx], edx
  00012	5d		 pop	 ebp
  00013	c2 04 00	 ret	 4
??4CHorzScaleRegionHeight@@QAEAAV0@ABV0@@Z ENDP		; CHorzScaleRegionHeight::operator=
_TEXT	ENDS
; Function compile flags: /Ogtp
;	COMDAT ??0CVerticalScale@@QAE@ABV0@@Z
_TEXT	SEGMENT
_this$ = -4						; size = 4
___that$ = 8						; size = 4
??0CVerticalScale@@QAE@ABV0@@Z PROC			; CVerticalScale::CVerticalScale, COMDAT
; _this$ = ecx
  00000	55		 push	 ebp
  00001	8b ec		 mov	 ebp, esp
  00003	51		 push	 ecx
  00004	56		 push	 esi
  00005	8b 75 08	 mov	 esi, DWORD PTR ___that$[ebp]
  00008	57		 push	 edi
  00009	8b f9		 mov	 edi, ecx
  0000b	89 7d fc	 mov	 DWORD PTR _this$[ebp], edi
  0000e	8d 46 04	 lea	 eax, DWORD PTR [esi+4]
  00011	50		 push	 eax
  00012	8d 4f 04	 lea	 ecx, DWORD PTR [edi+4]
  00015	c7 07 00 00 00
	00		 mov	 DWORD PTR [edi], OFFSET ??_7CScale@@6B@
  0001b	ff 15 00 00 00
	00		 call	 DWORD PTR __imp_??0?$CStringT@DV?$StrTraitMFC_DLL@DV?$ChTraitsCRT@D@ATL@@@@@ATL@@QAE@ABV01@@Z
  00021	8b 46 08	 mov	 eax, DWORD PTR [esi+8]
  00024	89 47 08	 mov	 DWORD PTR [edi+8], eax
  00027	c7 07 00 00 00
	00		 mov	 DWORD PTR [edi], OFFSET ??_7CVerticalScale@@6B@
  0002d	8b 46 0c	 mov	 eax, DWORD PTR [esi+12]
  00030	89 47 0c	 mov	 DWORD PTR [edi+12], eax
  00033	8b 46 10	 mov	 eax, DWORD PTR [esi+16]
  00036	89 47 10	 mov	 DWORD PTR [edi+16], eax
  00039	8b 46 14	 mov	 eax, DWORD PTR [esi+20]
  0003c	89 47 14	 mov	 DWORD PTR [edi+20], eax
  0003f	8b 46 18	 mov	 eax, DWORD PTR [esi+24]
  00042	89 47 18	 mov	 DWORD PTR [edi+24], eax
  00045	f2 0f 10 46 20	 movsd	 xmm0, QWORD PTR [esi+32]
  0004a	f2 0f 11 47 20	 movsd	 QWORD PTR [edi+32], xmm0
  0004f	f2 0f 10 46 28	 movsd	 xmm0, QWORD PTR [esi+40]
  00054	f2 0f 11 47 28	 movsd	 QWORD PTR [edi+40], xmm0
  00059	8b 46 30	 mov	 eax, DWORD PTR [esi+48]
  0005c	89 47 30	 mov	 DWORD PTR [edi+48], eax
  0005f	8a 46 34	 mov	 al, BYTE PTR [esi+52]
  00062	88 47 34	 mov	 BYTE PTR [edi+52], al
  00065	f2 0f 10 46 38	 movsd	 xmm0, QWORD PTR [esi+56]
  0006a	f2 0f 11 47 38	 movsd	 QWORD PTR [edi+56], xmm0
  0006f	f2 0f 10 46 40	 movsd	 xmm0, QWORD PTR [esi+64]
  00074	f2 0f 11 47 40	 movsd	 QWORD PTR [edi+64], xmm0
  00079	8b 46 48	 mov	 eax, DWORD PTR [esi+72]
  0007c	89 47 48	 mov	 DWORD PTR [edi+72], eax
  0007f	8b 46 4c	 mov	 eax, DWORD PTR [esi+76]
  00082	89 47 4c	 mov	 DWORD PTR [edi+76], eax
  00085	8b 46 50	 mov	 eax, DWORD PTR [esi+80]
  00088	89 47 50	 mov	 DWORD PTR [edi+80], eax
  0008b	8b c7		 mov	 eax, edi
  0008d	5f		 pop	 edi
  0008e	5e		 pop	 esi
  0008f	8b e5		 mov	 esp, ebp
  00091	5d		 pop	 ebp
  00092	c2 04 00	 ret	 4
??0CVerticalScale@@QAE@ABV0@@Z ENDP			; CVerticalScale::CVerticalScale
_TEXT	ENDS
; Function compile flags: /Ogtp
;	COMDAT ??1CVerticalScale@@QAE@XZ
_TEXT	SEGMENT
??1CVerticalScale@@QAE@XZ PROC				; CVerticalScale::~CVerticalScale, COMDAT
; _this$ = ecx
  00000	83 c1 04	 add	 ecx, 4
  00003	ff 25 00 00 00
	00		 jmp	 DWORD PTR __imp_??1?$CStringT@DV?$StrTraitMFC_DLL@DV?$ChTraitsCRT@D@ATL@@@@@ATL@@QAE@XZ
??1CVerticalScale@@QAE@XZ ENDP				; CVerticalScale::~CVerticalScale
_TEXT	ENDS
; Function compile flags: /Ogtp
; File D:\git\src\IBK\IBK_DRFN\ProjSrc\SrcChartEx\ChartOCX\Include_Chart\ScaleBaseData.h
;	COMDAT ?GetSpace@CVerticalScale@@QBEXAAH0@Z
_TEXT	SEGMENT
_p_nUpSpace$ = 8					; size = 4
_p_nDownSpace$ = 12					; size = 4
?GetSpace@CVerticalScale@@QBEXAAH0@Z PROC		; CVerticalScale::GetSpace, COMDAT
; _this$ = ecx

; 240  : 	void	GetSpace( int &p_nUpSpace, int &p_nDownSpace) const		{	p_nUpSpace = m_nUpSpace;	p_nDownSpace = m_nDownSpace;	}

  00000	55		 push	 ebp
  00001	8b ec		 mov	 ebp, esp
  00003	8b 45 08	 mov	 eax, DWORD PTR _p_nUpSpace$[ebp]
  00006	8b 51 4c	 mov	 edx, DWORD PTR [ecx+76]
  00009	89 10		 mov	 DWORD PTR [eax], edx
  0000b	8b 45 0c	 mov	 eax, DWORD PTR _p_nDownSpace$[ebp]
  0000e	8b 49 50	 mov	 ecx, DWORD PTR [ecx+80]
  00011	89 08		 mov	 DWORD PTR [eax], ecx
  00013	5d		 pop	 ebp
  00014	c2 08 00	 ret	 8
?GetSpace@CVerticalScale@@QBEXAAH0@Z ENDP		; CVerticalScale::GetSpace
_TEXT	ENDS
; Function compile flags: /Ogtp
; File D:\git\src\IBK\IBK_DRFN\ProjSrc\SrcChartEx\ChartOCX\Include_Chart\ScaleBaseData.h
;	COMDAT ?SetSpace@CVerticalScale@@QAEXHH@Z
_TEXT	SEGMENT
_p_nUpSpace$ = 8					; size = 4
_p_nDownSpace$ = 12					; size = 4
?SetSpace@CVerticalScale@@QAEXHH@Z PROC			; CVerticalScale::SetSpace, COMDAT
; _this$ = ecx

; 239  : 	void	SetSpace( int p_nUpSpace, int p_nDownSpace)				{	m_nUpSpace = p_nUpSpace;	m_nDownSpace = p_nDownSpace;	}

  00000	55		 push	 ebp
  00001	8b ec		 mov	 ebp, esp
  00003	8b 45 08	 mov	 eax, DWORD PTR _p_nUpSpace$[ebp]
  00006	89 41 4c	 mov	 DWORD PTR [ecx+76], eax
  00009	8b 45 0c	 mov	 eax, DWORD PTR _p_nDownSpace$[ebp]
  0000c	89 41 50	 mov	 DWORD PTR [ecx+80], eax
  0000f	5d		 pop	 ebp
  00010	c2 08 00	 ret	 8
?SetSpace@CVerticalScale@@QAEXHH@Z ENDP			; CVerticalScale::SetSpace
_TEXT	ENDS
; Function compile flags: /Ogtp
; File D:\git\src\IBK\IBK_DRFN\ProjSrc\SrcChartEx\ChartOCX\Include_Chart\ScaleBaseData.h
;	COMDAT ?SetVertScaleInvertType@CVerticalScale@@QAEX_N@Z
_TEXT	SEGMENT
_bIsVertScaleInvertType$ = 8				; size = 1
?SetVertScaleInvertType@CVerticalScale@@QAEX_N@Z PROC	; CVerticalScale::SetVertScaleInvertType, COMDAT
; _this$ = ecx

; 232  : 	void	SetVertScaleInvertType(const bool bIsVertScaleInvertType)	{	m_bIsVertScaleInvertType = bIsVertScaleInvertType;	}

  00000	55		 push	 ebp
  00001	8b ec		 mov	 ebp, esp
  00003	8a 45 08	 mov	 al, BYTE PTR _bIsVertScaleInvertType$[ebp]
  00006	88 41 34	 mov	 BYTE PTR [ecx+52], al
  00009	5d		 pop	 ebp
  0000a	c2 04 00	 ret	 4
?SetVertScaleInvertType@CVerticalScale@@QAEX_N@Z ENDP	; CVerticalScale::SetVertScaleInvertType
_TEXT	ENDS
; Function compile flags: /Ogtp
; File D:\git\src\IBK\IBK_DRFN\ProjSrc\SrcChartEx\ChartOCX\Include_Chart\ScaleBaseData.h
;	COMDAT ?GetVertScaleInvertType@CVerticalScale@@QBE_NXZ
_TEXT	SEGMENT
?GetVertScaleInvertType@CVerticalScale@@QBE_NXZ PROC	; CVerticalScale::GetVertScaleInvertType, COMDAT
; _this$ = ecx

; 230  : 	bool	GetVertScaleInvertType() const								{	return m_bIsVertScaleInvertType;	}

  00000	8a 41 34	 mov	 al, BYTE PTR [ecx+52]
  00003	c3		 ret	 0
?GetVertScaleInvertType@CVerticalScale@@QBE_NXZ ENDP	; CVerticalScale::GetVertScaleInvertType
_TEXT	ENDS
; Function compile flags: /Ogtp
; File D:\git\src\IBK\IBK_DRFN\ProjSrc\SrcChartEx\ChartOCX\Include_Chart\ScaleBaseData.h
;	COMDAT ?GetVertUserHogaScaleType@CVerticalScale@@QBEHXZ
_TEXT	SEGMENT
?GetVertUserHogaScaleType@CVerticalScale@@QBEHXZ PROC	; CVerticalScale::GetVertUserHogaScaleType, COMDAT
; _this$ = ecx

; 226  : 	int			GetVertUserHogaScaleType( void) const						{	return m_nUserHogaType;		}			

  00000	8b 41 48	 mov	 eax, DWORD PTR [ecx+72]
  00003	c3		 ret	 0
?GetVertUserHogaScaleType@CVerticalScale@@QBEHXZ ENDP	; CVerticalScale::GetVertUserHogaScaleType
_TEXT	ENDS
; Function compile flags: /Ogtp
; File D:\git\src\IBK\IBK_DRFN\ProjSrc\SrcChartEx\ChartOCX\Include_Chart\ScaleBaseData.h
;	COMDAT ?GetVertScaleUserNumber@CVerticalScale@@QBENXZ
_TEXT	SEGMENT
?GetVertScaleUserNumber@CVerticalScale@@QBENXZ PROC	; CVerticalScale::GetVertScaleUserNumber, COMDAT
; _this$ = ecx

; 225  : 	double		GetVertScaleUserNumber( void) const						{	return m_dUserNumber;		}			

  00000	dd 41 38	 fld	 QWORD PTR [ecx+56]
  00003	c3		 ret	 0
?GetVertScaleUserNumber@CVerticalScale@@QBENXZ ENDP	; CVerticalScale::GetVertScaleUserNumber
_TEXT	ENDS
; Function compile flags: /Ogtp
; File D:\git\src\IBK\IBK_DRFN\ProjSrc\SrcChartEx\ChartOCX\Include_Chart\ScaleBaseData.h
;	COMDAT ?GetVertScaleHoGaNumber@CVerticalScale@@QBENXZ
_TEXT	SEGMENT
?GetVertScaleHoGaNumber@CVerticalScale@@QBENXZ PROC	; CVerticalScale::GetVertScaleHoGaNumber, COMDAT
; _this$ = ecx

; 224  : 	double		GetVertScaleHoGaNumber( void) const						{	return m_dHogaNumber;		}			

  00000	dd 41 40	 fld	 QWORD PTR [ecx+64]
  00003	c3		 ret	 0
?GetVertScaleHoGaNumber@CVerticalScale@@QBENXZ ENDP	; CVerticalScale::GetVertScaleHoGaNumber
_TEXT	ENDS
; Function compile flags: /Ogtp
; File D:\git\src\IBK\IBK_DRFN\ProjSrc\SrcChartEx\ChartOCX\Include_Chart\ScaleBaseData.h
;	COMDAT ?SetVertUserHogaScaleType@CVerticalScale@@QAEXH@Z
_TEXT	SEGMENT
_p_nUserHogaType$ = 8					; size = 4
?SetVertUserHogaScaleType@CVerticalScale@@QAEXH@Z PROC	; CVerticalScale::SetVertUserHogaScaleType, COMDAT
; _this$ = ecx

; 222  : 	void		SetVertUserHogaScaleType( int p_nUserHogaType)		{	m_nUserHogaType = p_nUserHogaType;	}

  00000	55		 push	 ebp
  00001	8b ec		 mov	 ebp, esp
  00003	8b 45 08	 mov	 eax, DWORD PTR _p_nUserHogaType$[ebp]
  00006	89 41 48	 mov	 DWORD PTR [ecx+72], eax
  00009	5d		 pop	 ebp
  0000a	c2 04 00	 ret	 4
?SetVertUserHogaScaleType@CVerticalScale@@QAEXH@Z ENDP	; CVerticalScale::SetVertUserHogaScaleType
_TEXT	ENDS
; Function compile flags: /Ogtp
; File D:\git\src\IBK\IBK_DRFN\ProjSrc\SrcChartEx\ChartOCX\Include_Chart\ScaleBaseData.h
;	COMDAT ?SetVertScaleUserNumber@CVerticalScale@@QAEXN@Z
_TEXT	SEGMENT
_p_dUserNumber$ = 8					; size = 8
?SetVertScaleUserNumber@CVerticalScale@@QAEXN@Z PROC	; CVerticalScale::SetVertScaleUserNumber, COMDAT
; _this$ = ecx

; 221  : 	void		SetVertScaleUserNumber( double p_dUserNumber)			{	m_dUserNumber = p_dUserNumber;	}

  00000	55		 push	 ebp
  00001	8b ec		 mov	 ebp, esp
  00003	f2 0f 10 45 08	 movsd	 xmm0, QWORD PTR _p_dUserNumber$[ebp]
  00008	f2 0f 11 41 38	 movsd	 QWORD PTR [ecx+56], xmm0
  0000d	5d		 pop	 ebp
  0000e	c2 08 00	 ret	 8
?SetVertScaleUserNumber@CVerticalScale@@QAEXN@Z ENDP	; CVerticalScale::SetVertScaleUserNumber
_TEXT	ENDS
; Function compile flags: /Ogtp
; File D:\git\src\IBK\IBK_DRFN\ProjSrc\SrcChartEx\ChartOCX\Include_Chart\ScaleBaseData.h
;	COMDAT ?SetVertScaleHoGaNumber@CVerticalScale@@QAEXN@Z
_TEXT	SEGMENT
_p_dHogaNumber$ = 8					; size = 8
?SetVertScaleHoGaNumber@CVerticalScale@@QAEXN@Z PROC	; CVerticalScale::SetVertScaleHoGaNumber, COMDAT
; _this$ = ecx

; 220  : 	void		SetVertScaleHoGaNumber( double p_dHogaNumber)			{	m_dHogaNumber = p_dHogaNumber;	}

  00000	55		 push	 ebp
  00001	8b ec		 mov	 ebp, esp
  00003	f2 0f 10 45 08	 movsd	 xmm0, QWORD PTR _p_dHogaNumber$[ebp]
  00008	f2 0f 11 41 40	 movsd	 QWORD PTR [ecx+64], xmm0
  0000d	5d		 pop	 ebp
  0000e	c2 08 00	 ret	 8
?SetVertScaleHoGaNumber@CVerticalScale@@QAEXN@Z ENDP	; CVerticalScale::SetVertScaleHoGaNumber
_TEXT	ENDS
; Function compile flags: /Ogtp
; File D:\git\src\IBK\IBK_DRFN\ProjSrc\SrcChartEx\ChartOCX\Include_Chart\ScaleBaseData.h
;	COMDAT ?SetVertScaleMax@CVerticalScale@@QAEXN@Z
_TEXT	SEGMENT
_p_dMax$ = 8						; size = 8
?SetVertScaleMax@CVerticalScale@@QAEXN@Z PROC		; CVerticalScale::SetVertScaleMax, COMDAT
; _this$ = ecx

; 211  : 	void							SetVertScaleMax( double p_dMax)											{	m_dMax = p_dMax;	}

  00000	55		 push	 ebp
  00001	8b ec		 mov	 ebp, esp
  00003	f2 0f 10 45 08	 movsd	 xmm0, QWORD PTR _p_dMax$[ebp]
  00008	f2 0f 11 41 28	 movsd	 QWORD PTR [ecx+40], xmm0
  0000d	5d		 pop	 ebp
  0000e	c2 08 00	 ret	 8
?SetVertScaleMax@CVerticalScale@@QAEXN@Z ENDP		; CVerticalScale::SetVertScaleMax
_TEXT	ENDS
; Function compile flags: /Ogtp
; File D:\git\src\IBK\IBK_DRFN\ProjSrc\SrcChartEx\ChartOCX\Include_Chart\ScaleBaseData.h
;	COMDAT ?GetVertScaleMax@CVerticalScale@@QBENXZ
_TEXT	SEGMENT
?GetVertScaleMax@CVerticalScale@@QBENXZ PROC		; CVerticalScale::GetVertScaleMax, COMDAT
; _this$ = ecx

; 210  : 	double							GetVertScaleMax( void) const											{	return m_dMax;		}

  00000	dd 41 28	 fld	 QWORD PTR [ecx+40]
  00003	c3		 ret	 0
?GetVertScaleMax@CVerticalScale@@QBENXZ ENDP		; CVerticalScale::GetVertScaleMax
_TEXT	ENDS
; Function compile flags: /Ogtp
; File D:\git\src\IBK\IBK_DRFN\ProjSrc\SrcChartEx\ChartOCX\Include_Chart\ScaleBaseData.h
;	COMDAT ?SetVertScaleMin@CVerticalScale@@QAEXN@Z
_TEXT	SEGMENT
_p_dMin$ = 8						; size = 8
?SetVertScaleMin@CVerticalScale@@QAEXN@Z PROC		; CVerticalScale::SetVertScaleMin, COMDAT
; _this$ = ecx

; 208  : 	void							SetVertScaleMin( double p_dMin)											{	m_dMin = p_dMin;	}

  00000	55		 push	 ebp
  00001	8b ec		 mov	 ebp, esp
  00003	f2 0f 10 45 08	 movsd	 xmm0, QWORD PTR _p_dMin$[ebp]
  00008	f2 0f 11 41 20	 movsd	 QWORD PTR [ecx+32], xmm0
  0000d	5d		 pop	 ebp
  0000e	c2 08 00	 ret	 8
?SetVertScaleMin@CVerticalScale@@QAEXN@Z ENDP		; CVerticalScale::SetVertScaleMin
_TEXT	ENDS
; Function compile flags: /Ogtp
; File D:\git\src\IBK\IBK_DRFN\ProjSrc\SrcChartEx\ChartOCX\Include_Chart\ScaleBaseData.h
;	COMDAT ?GetVertScaleMin@CVerticalScale@@QBENXZ
_TEXT	SEGMENT
?GetVertScaleMin@CVerticalScale@@QBENXZ PROC		; CVerticalScale::GetVertScaleMin, COMDAT
; _this$ = ecx

; 207  : 	double							GetVertScaleMin( void) const											{	return m_dMin;		}			

  00000	dd 41 20	 fld	 QWORD PTR [ecx+32]
  00003	c3		 ret	 0
?GetVertScaleMin@CVerticalScale@@QBENXZ ENDP		; CVerticalScale::GetVertScaleMin
_TEXT	ENDS
; Function compile flags: /Ogtp
; File D:\git\src\IBK\IBK_DRFN\ProjSrc\SrcChartEx\ChartOCX\Include_Chart\ScaleBaseData.h
;	COMDAT ?SetVertScaleMinMaxType@CVerticalScale@@QAEXW4VERTMINMAXTYPE@CScaleBaseData@@@Z
_TEXT	SEGMENT
_p_eMinMaxType$ = 8					; size = 4
?SetVertScaleMinMaxType@CVerticalScale@@QAEXW4VERTMINMAXTYPE@CScaleBaseData@@@Z PROC ; CVerticalScale::SetVertScaleMinMaxType, COMDAT
; _this$ = ecx

; 205  : 	void							SetVertScaleMinMaxType( CScaleBaseData::VERTMINMAXTYPE p_eMinMaxType) 	{	m_eMinMaxType = p_eMinMaxType;	}

  00000	55		 push	 ebp
  00001	8b ec		 mov	 ebp, esp
  00003	8b 45 08	 mov	 eax, DWORD PTR _p_eMinMaxType$[ebp]
  00006	89 41 18	 mov	 DWORD PTR [ecx+24], eax
  00009	5d		 pop	 ebp
  0000a	c2 04 00	 ret	 4
?SetVertScaleMinMaxType@CVerticalScale@@QAEXW4VERTMINMAXTYPE@CScaleBaseData@@@Z ENDP ; CVerticalScale::SetVertScaleMinMaxType
_TEXT	ENDS
; Function compile flags: /Ogtp
; File D:\git\src\IBK\IBK_DRFN\ProjSrc\SrcChartEx\ChartOCX\Include_Chart\ScaleBaseData.h
;	COMDAT ?GetVertScaleMinMaxType@CVerticalScale@@QBE?AW4VERTMINMAXTYPE@CScaleBaseData@@XZ
_TEXT	SEGMENT
?GetVertScaleMinMaxType@CVerticalScale@@QBE?AW4VERTMINMAXTYPE@CScaleBaseData@@XZ PROC ; CVerticalScale::GetVertScaleMinMaxType, COMDAT
; _this$ = ecx

; 204  : 	CScaleBaseData::VERTMINMAXTYPE	GetVertScaleMinMaxType( void) const										{	return m_eMinMaxType;			}

  00000	8b 41 18	 mov	 eax, DWORD PTR [ecx+24]
  00003	c3		 ret	 0
?GetVertScaleMinMaxType@CVerticalScale@@QBE?AW4VERTMINMAXTYPE@CScaleBaseData@@XZ ENDP ; CVerticalScale::GetVertScaleMinMaxType
_TEXT	ENDS
; Function compile flags: /Ogtp
; File D:\git\src\IBK\IBK_DRFN\ProjSrc\SrcChartEx\ChartOCX\Include_Chart\ScaleBaseData.h
;	COMDAT ?SetVertScaleMinMaxLock@CVerticalScale@@QAEXH@Z
_TEXT	SEGMENT
_p_bMinMaxLock$ = 8					; size = 4
?SetVertScaleMinMaxLock@CVerticalScale@@QAEXH@Z PROC	; CVerticalScale::SetVertScaleMinMaxLock, COMDAT
; _this$ = ecx

; 202  : 	void							SetVertScaleMinMaxLock( BOOL p_bMinMaxLock)								{	m_bMinMaxLock = p_bMinMaxLock;	}

  00000	55		 push	 ebp
  00001	8b ec		 mov	 ebp, esp
  00003	8b 45 08	 mov	 eax, DWORD PTR _p_bMinMaxLock$[ebp]
  00006	89 41 14	 mov	 DWORD PTR [ecx+20], eax
  00009	5d		 pop	 ebp
  0000a	c2 04 00	 ret	 4
?SetVertScaleMinMaxLock@CVerticalScale@@QAEXH@Z ENDP	; CVerticalScale::SetVertScaleMinMaxLock
_TEXT	ENDS
; Function compile flags: /Ogtp
; File D:\git\src\IBK\IBK_DRFN\ProjSrc\SrcChartEx\ChartOCX\Include_Chart\ScaleBaseData.h
;	COMDAT ?IsVertScaleMinMaxLock@CVerticalScale@@QBEHXZ
_TEXT	SEGMENT
?IsVertScaleMinMaxLock@CVerticalScale@@QBEHXZ PROC	; CVerticalScale::IsVertScaleMinMaxLock, COMDAT
; _this$ = ecx

; 201  : 	BOOL							IsVertScaleMinMaxLock( void) const										{	return m_bMinMaxLock;			}

  00000	8b 41 14	 mov	 eax, DWORD PTR [ecx+20]
  00003	c3		 ret	 0
?IsVertScaleMinMaxLock@CVerticalScale@@QBEHXZ ENDP	; CVerticalScale::IsVertScaleMinMaxLock
_TEXT	ENDS
; Function compile flags: /Ogtp
;	COMDAT ??0CHorizontalScale@@QAE@ABV0@@Z
_TEXT	SEGMENT
_this$ = -16						; size = 4
__$EHRec$ = -12						; size = 12
_this$ = 8						; size = 4
___that$ = 8						; size = 4
??0CHorizontalScale@@QAE@ABV0@@Z PROC			; CHorizontalScale::CHorizontalScale, COMDAT
; _this$ = ecx
  00000	55		 push	 ebp
  00001	8b ec		 mov	 ebp, esp
  00003	6a ff		 push	 -1
  00005	68 00 00 00 00	 push	 __ehhandler$??0CHorizontalScale@@QAE@ABV0@@Z
  0000a	64 a1 00 00 00
	00		 mov	 eax, DWORD PTR fs:0
  00010	50		 push	 eax
  00011	51		 push	 ecx
  00012	53		 push	 ebx
  00013	56		 push	 esi
  00014	57		 push	 edi
  00015	a1 00 00 00 00	 mov	 eax, DWORD PTR ___security_cookie
  0001a	33 c5		 xor	 eax, ebp
  0001c	50		 push	 eax
  0001d	8d 45 f4	 lea	 eax, DWORD PTR __$EHRec$[ebp]
  00020	64 a3 00 00 00
	00		 mov	 DWORD PTR fs:0, eax
  00026	8b f1		 mov	 esi, ecx
  00028	89 75 f0	 mov	 DWORD PTR _this$[ebp], esi
  0002b	8b 5d 08	 mov	 ebx, DWORD PTR ___that$[ebp]
  0002e	8d 4e 04	 lea	 ecx, DWORD PTR [esi+4]
  00031	c7 06 00 00 00
	00		 mov	 DWORD PTR [esi], OFFSET ??_7CScale@@6B@
  00037	8d 43 04	 lea	 eax, DWORD PTR [ebx+4]
  0003a	50		 push	 eax
  0003b	ff 15 00 00 00
	00		 call	 DWORD PTR __imp_??0?$CStringT@DV?$StrTraitMFC_DLL@DV?$ChTraitsCRT@D@ATL@@@@@ATL@@QAE@ABV01@@Z
  00041	8b 43 08	 mov	 eax, DWORD PTR [ebx+8]
  00044	89 46 08	 mov	 DWORD PTR [esi+8], eax
  00047	c7 06 00 00 00
	00		 mov	 DWORD PTR [esi], OFFSET ??_7CHorizontalScale@@6B@
  0004d	8d 7b 10	 lea	 edi, DWORD PTR [ebx+16]
  00050	8b 43 0c	 mov	 eax, DWORD PTR [ebx+12]
  00053	89 46 0c	 mov	 DWORD PTR [esi+12], eax
  00056	83 c6 10	 add	 esi, 16			; 00000010H
  00059	57		 push	 edi
  0005a	8b ce		 mov	 ecx, esi
  0005c	c7 45 fc 00 00
	00 00		 mov	 DWORD PTR __$EHRec$[ebp+8], 0
  00063	89 75 08	 mov	 DWORD PTR _this$[ebp], esi
  00066	ff 15 00 00 00
	00		 call	 DWORD PTR __imp_??0?$CStringT@DV?$StrTraitMFC_DLL@DV?$ChTraitsCRT@D@ATL@@@@@ATL@@QAE@ABV01@@Z
  0006c	8d 47 04	 lea	 eax, DWORD PTR [edi+4]
  0006f	c6 45 fc 01	 mov	 BYTE PTR __$EHRec$[ebp+8], 1
  00073	50		 push	 eax
  00074	8d 4e 04	 lea	 ecx, DWORD PTR [esi+4]
  00077	ff 15 00 00 00
	00		 call	 DWORD PTR __imp_??0?$CStringT@DV?$StrTraitMFC_DLL@DV?$ChTraitsCRT@D@ATL@@@@@ATL@@QAE@ABV01@@Z
  0007d	8b 4d f0	 mov	 ecx, DWORD PTR _this$[ebp]
  00080	8b 47 08	 mov	 eax, DWORD PTR [edi+8]
  00083	89 46 08	 mov	 DWORD PTR [esi+8], eax
  00086	8b 43 1c	 mov	 eax, DWORD PTR [ebx+28]
  00089	89 41 1c	 mov	 DWORD PTR [ecx+28], eax
  0008c	8b 43 20	 mov	 eax, DWORD PTR [ebx+32]
  0008f	89 41 20	 mov	 DWORD PTR [ecx+32], eax
  00092	8b 43 24	 mov	 eax, DWORD PTR [ebx+36]
  00095	89 41 24	 mov	 DWORD PTR [ecx+36], eax
  00098	8b 43 28	 mov	 eax, DWORD PTR [ebx+40]
  0009b	89 41 28	 mov	 DWORD PTR [ecx+40], eax
  0009e	8b 43 2c	 mov	 eax, DWORD PTR [ebx+44]
  000a1	89 41 2c	 mov	 DWORD PTR [ecx+44], eax
  000a4	8b 43 30	 mov	 eax, DWORD PTR [ebx+48]
  000a7	89 41 30	 mov	 DWORD PTR [ecx+48], eax
  000aa	8b 43 34	 mov	 eax, DWORD PTR [ebx+52]
  000ad	89 41 34	 mov	 DWORD PTR [ecx+52], eax
  000b0	8b 43 38	 mov	 eax, DWORD PTR [ebx+56]
  000b3	89 41 38	 mov	 DWORD PTR [ecx+56], eax
  000b6	8b 43 3c	 mov	 eax, DWORD PTR [ebx+60]
  000b9	89 41 3c	 mov	 DWORD PTR [ecx+60], eax
  000bc	8b 43 40	 mov	 eax, DWORD PTR [ebx+64]
  000bf	89 41 40	 mov	 DWORD PTR [ecx+64], eax
  000c2	8b 43 44	 mov	 eax, DWORD PTR [ebx+68]
  000c5	89 41 44	 mov	 DWORD PTR [ecx+68], eax
  000c8	8b 43 48	 mov	 eax, DWORD PTR [ebx+72]
  000cb	89 41 48	 mov	 DWORD PTR [ecx+72], eax
  000ce	0f b7 43 4c	 movzx	 eax, WORD PTR [ebx+76]
  000d2	66 89 41 4c	 mov	 WORD PTR [ecx+76], ax
  000d6	0f b7 43 4e	 movzx	 eax, WORD PTR [ebx+78]
  000da	66 89 41 4e	 mov	 WORD PTR [ecx+78], ax
  000de	0f b7 43 50	 movzx	 eax, WORD PTR [ebx+80]
  000e2	66 89 41 50	 mov	 WORD PTR [ecx+80], ax
  000e6	0f b7 43 52	 movzx	 eax, WORD PTR [ebx+82]
  000ea	66 89 41 52	 mov	 WORD PTR [ecx+82], ax
  000ee	8b 43 54	 mov	 eax, DWORD PTR [ebx+84]
  000f1	89 41 54	 mov	 DWORD PTR [ecx+84], eax
  000f4	8b 43 58	 mov	 eax, DWORD PTR [ebx+88]
  000f7	89 41 58	 mov	 DWORD PTR [ecx+88], eax
  000fa	8b 43 5c	 mov	 eax, DWORD PTR [ebx+92]
  000fd	89 41 5c	 mov	 DWORD PTR [ecx+92], eax
  00100	8b 43 60	 mov	 eax, DWORD PTR [ebx+96]
  00103	89 41 60	 mov	 DWORD PTR [ecx+96], eax
  00106	8b c1		 mov	 eax, ecx
  00108	8b 4d f4	 mov	 ecx, DWORD PTR __$EHRec$[ebp]
  0010b	64 89 0d 00 00
	00 00		 mov	 DWORD PTR fs:0, ecx
  00112	59		 pop	 ecx
  00113	5f		 pop	 edi
  00114	5e		 pop	 esi
  00115	5b		 pop	 ebx
  00116	8b e5		 mov	 esp, ebp
  00118	5d		 pop	 ebp
  00119	c2 04 00	 ret	 4
_TEXT	ENDS
;	COMDAT text$x
text$x	SEGMENT
__unwindfunclet$??0CHorizontalScale@@QAE@ABV0@@Z$0:
  00000	8b 4d f0	 mov	 ecx, DWORD PTR _this$[ebp]
  00003	e9 00 00 00 00	 jmp	 ??1CScale@@QAE@XZ
__unwindfunclet$??0CHorizontalScale@@QAE@ABV0@@Z$3:
  00008	8b 4d 08	 mov	 ecx, DWORD PTR _this$[ebp]
  0000b	ff 25 00 00 00
	00		 jmp	 DWORD PTR __imp_??1?$CStringT@DV?$StrTraitMFC_DLL@DV?$ChTraitsCRT@D@ATL@@@@@ATL@@QAE@XZ
  00011	cc		 int	 3
  00012	cc		 int	 3
  00013	cc		 int	 3
  00014	cc		 int	 3
  00015	cc		 int	 3
__ehhandler$??0CHorizontalScale@@QAE@ABV0@@Z:
  00016	90		 npad	 1
  00017	90		 npad	 1
  00018	8b 54 24 08	 mov	 edx, DWORD PTR [esp+8]
  0001c	8d 42 0c	 lea	 eax, DWORD PTR [edx+12]
  0001f	8b 4a ec	 mov	 ecx, DWORD PTR [edx-20]
  00022	33 c8		 xor	 ecx, eax
  00024	e8 00 00 00 00	 call	 @__security_check_cookie@4
  00029	b8 00 00 00 00	 mov	 eax, OFFSET __ehfuncinfo$??0CHorizontalScale@@QAE@ABV0@@Z
  0002e	e9 00 00 00 00	 jmp	 ___CxxFrameHandler3
text$x	ENDS
??0CHorizontalScale@@QAE@ABV0@@Z ENDP			; CHorizontalScale::CHorizontalScale
; Function compile flags: /Ogtp
;	COMDAT ??1CHorizontalScale@@QAE@XZ
_TEXT	SEGMENT
??1CHorizontalScale@@QAE@XZ PROC			; CHorizontalScale::~CHorizontalScale, COMDAT
; _this$ = ecx
  00000	56		 push	 esi
  00001	57		 push	 edi
  00002	8b f9		 mov	 edi, ecx
  00004	8d 4f 14	 lea	 ecx, DWORD PTR [edi+20]
  00007	ff 15 00 00 00
	00		 call	 DWORD PTR __imp_??1?$CStringT@DV?$StrTraitMFC_DLL@DV?$ChTraitsCRT@D@ATL@@@@@ATL@@QAE@XZ
  0000d	8d 4f 10	 lea	 ecx, DWORD PTR [edi+16]
  00010	ff 15 00 00 00
	00		 call	 DWORD PTR __imp_??1?$CStringT@DV?$StrTraitMFC_DLL@DV?$ChTraitsCRT@D@ATL@@@@@ATL@@QAE@XZ
  00016	8d 4f 04	 lea	 ecx, DWORD PTR [edi+4]
  00019	5f		 pop	 edi
  0001a	5e		 pop	 esi
  0001b	ff 25 00 00 00
	00		 jmp	 DWORD PTR __imp_??1?$CStringT@DV?$StrTraitMFC_DLL@DV?$ChTraitsCRT@D@ATL@@@@@ATL@@QAE@XZ
??1CHorizontalScale@@QAE@XZ ENDP			; CHorizontalScale::~CHorizontalScale
_TEXT	ENDS
; Function compile flags: /Ogtp
;	COMDAT ??0CScale@@QAE@ABV0@@Z
_TEXT	SEGMENT
_this$ = -4						; size = 4
___that$ = 8						; size = 4
??0CScale@@QAE@ABV0@@Z PROC				; CScale::CScale, COMDAT
; _this$ = ecx
  00000	55		 push	 ebp
  00001	8b ec		 mov	 ebp, esp
  00003	51		 push	 ecx
  00004	56		 push	 esi
  00005	8b 75 08	 mov	 esi, DWORD PTR ___that$[ebp]
  00008	57		 push	 edi
  00009	8b f9		 mov	 edi, ecx
  0000b	89 7d fc	 mov	 DWORD PTR _this$[ebp], edi
  0000e	8d 46 04	 lea	 eax, DWORD PTR [esi+4]
  00011	50		 push	 eax
  00012	8d 4f 04	 lea	 ecx, DWORD PTR [edi+4]
  00015	c7 07 00 00 00
	00		 mov	 DWORD PTR [edi], OFFSET ??_7CScale@@6B@
  0001b	ff 15 00 00 00
	00		 call	 DWORD PTR __imp_??0?$CStringT@DV?$StrTraitMFC_DLL@DV?$ChTraitsCRT@D@ATL@@@@@ATL@@QAE@ABV01@@Z
  00021	8b 46 08	 mov	 eax, DWORD PTR [esi+8]
  00024	89 47 08	 mov	 DWORD PTR [edi+8], eax
  00027	8b c7		 mov	 eax, edi
  00029	5f		 pop	 edi
  0002a	5e		 pop	 esi
  0002b	8b e5		 mov	 esp, ebp
  0002d	5d		 pop	 ebp
  0002e	c2 04 00	 ret	 4
??0CScale@@QAE@ABV0@@Z ENDP				; CScale::CScale
_TEXT	ENDS
; Function compile flags: /Ogtp
;	COMDAT ??1CScale@@QAE@XZ
_TEXT	SEGMENT
??1CScale@@QAE@XZ PROC					; CScale::~CScale, COMDAT
; _this$ = ecx
  00000	83 c1 04	 add	 ecx, 4
  00003	ff 25 00 00 00
	00		 jmp	 DWORD PTR __imp_??1?$CStringT@DV?$StrTraitMFC_DLL@DV?$ChTraitsCRT@D@ATL@@@@@ATL@@QAE@XZ
??1CScale@@QAE@XZ ENDP					; CScale::~CScale
_TEXT	ENDS
; Function compile flags: /Ogtp
;	COMDAT ??0CScaleCompart@@QAE@ABV0@@Z
_TEXT	SEGMENT
_this$ = -16						; size = 4
__$EHRec$ = -12						; size = 12
___that$ = 8						; size = 4
??0CScaleCompart@@QAE@ABV0@@Z PROC			; CScaleCompart::CScaleCompart, COMDAT
; _this$ = ecx
  00000	55		 push	 ebp
  00001	8b ec		 mov	 ebp, esp
  00003	6a ff		 push	 -1
  00005	68 00 00 00 00	 push	 __ehhandler$??0CScaleCompart@@QAE@ABV0@@Z
  0000a	64 a1 00 00 00
	00		 mov	 eax, DWORD PTR fs:0
  00010	50		 push	 eax
  00011	51		 push	 ecx
  00012	56		 push	 esi
  00013	57		 push	 edi
  00014	a1 00 00 00 00	 mov	 eax, DWORD PTR ___security_cookie
  00019	33 c5		 xor	 eax, ebp
  0001b	50		 push	 eax
  0001c	8d 45 f4	 lea	 eax, DWORD PTR __$EHRec$[ebp]
  0001f	64 a3 00 00 00
	00		 mov	 DWORD PTR fs:0, eax
  00025	8b f9		 mov	 edi, ecx
  00027	89 7d f0	 mov	 DWORD PTR _this$[ebp], edi
  0002a	8b 75 08	 mov	 esi, DWORD PTR ___that$[ebp]
  0002d	56		 push	 esi
  0002e	ff 15 00 00 00
	00		 call	 DWORD PTR __imp_??0?$CStringT@DV?$StrTraitMFC_DLL@DV?$ChTraitsCRT@D@ATL@@@@@ATL@@QAE@ABV01@@Z
  00034	8d 46 04	 lea	 eax, DWORD PTR [esi+4]
  00037	c7 45 fc 00 00
	00 00		 mov	 DWORD PTR __$EHRec$[ebp+8], 0
  0003e	50		 push	 eax
  0003f	8d 4f 04	 lea	 ecx, DWORD PTR [edi+4]
  00042	ff 15 00 00 00
	00		 call	 DWORD PTR __imp_??0?$CStringT@DV?$StrTraitMFC_DLL@DV?$ChTraitsCRT@D@ATL@@@@@ATL@@QAE@ABV01@@Z
  00048	8b 46 08	 mov	 eax, DWORD PTR [esi+8]
  0004b	89 47 08	 mov	 DWORD PTR [edi+8], eax
  0004e	8b c7		 mov	 eax, edi
  00050	8b 4d f4	 mov	 ecx, DWORD PTR __$EHRec$[ebp]
  00053	64 89 0d 00 00
	00 00		 mov	 DWORD PTR fs:0, ecx
  0005a	59		 pop	 ecx
  0005b	5f		 pop	 edi
  0005c	5e		 pop	 esi
  0005d	8b e5		 mov	 esp, ebp
  0005f	5d		 pop	 ebp
  00060	c2 04 00	 ret	 4
_TEXT	ENDS
;	COMDAT text$x
text$x	SEGMENT
__unwindfunclet$??0CScaleCompart@@QAE@ABV0@@Z$0:
  00000	8b 4d f0	 mov	 ecx, DWORD PTR _this$[ebp]
  00003	ff 25 00 00 00
	00		 jmp	 DWORD PTR __imp_??1?$CStringT@DV?$StrTraitMFC_DLL@DV?$ChTraitsCRT@D@ATL@@@@@ATL@@QAE@XZ
  00009	cc		 int	 3
  0000a	cc		 int	 3
  0000b	cc		 int	 3
  0000c	cc		 int	 3
  0000d	cc		 int	 3
__ehhandler$??0CScaleCompart@@QAE@ABV0@@Z:
  0000e	90		 npad	 1
  0000f	90		 npad	 1
  00010	8b 54 24 08	 mov	 edx, DWORD PTR [esp+8]
  00014	8d 42 0c	 lea	 eax, DWORD PTR [edx+12]
  00017	8b 4a f0	 mov	 ecx, DWORD PTR [edx-16]
  0001a	33 c8		 xor	 ecx, eax
  0001c	e8 00 00 00 00	 call	 @__security_check_cookie@4
  00021	b8 00 00 00 00	 mov	 eax, OFFSET __ehfuncinfo$??0CScaleCompart@@QAE@ABV0@@Z
  00026	e9 00 00 00 00	 jmp	 ___CxxFrameHandler3
text$x	ENDS
??0CScaleCompart@@QAE@ABV0@@Z ENDP			; CScaleCompart::CScaleCompart
; Function compile flags: /Ogtp
;	COMDAT ??1CScaleCompart@@QAE@XZ
_TEXT	SEGMENT
??1CScaleCompart@@QAE@XZ PROC				; CScaleCompart::~CScaleCompart, COMDAT
; _this$ = ecx
  00000	56		 push	 esi
  00001	8b f1		 mov	 esi, ecx
  00003	8d 4e 04	 lea	 ecx, DWORD PTR [esi+4]
  00006	ff 15 00 00 00
	00		 call	 DWORD PTR __imp_??1?$CStringT@DV?$StrTraitMFC_DLL@DV?$ChTraitsCRT@D@ATL@@@@@ATL@@QAE@XZ
  0000c	8b ce		 mov	 ecx, esi
  0000e	5e		 pop	 esi
  0000f	ff 25 00 00 00
	00		 jmp	 DWORD PTR __imp_??1?$CStringT@DV?$StrTraitMFC_DLL@DV?$ChTraitsCRT@D@ATL@@@@@ATL@@QAE@XZ
??1CScaleCompart@@QAE@XZ ENDP				; CScaleCompart::~CScaleCompart
_TEXT	ENDS
; Function compile flags: /Ogtp
; File D:\git\src\IBK\IBK_DRFN\ProjSrc\SrcChartEx\ChartOCX\ScaleDraw\PriceScaleDrawer.cpp
;	COMDAT ?GetPriceDrawingEnvironment@CPriceScaleDrawer@@IAE_NABVCDisplayDataMinMax@@ABV?$CStringT@DV?$StrTraitMFC_DLL@DV?$ChTraitsCRT@D@ATL@@@@@ATL@@HAANAAH3AA_NABVCVerticalScale@@N@Z
_TEXT	SEGMENT
_dHoGaNumber$1$ = -28					; size = 8
_dScaleMaxGap$ = -20					; size = 8
__real@0000000000000000$1$ = -12			; size = 8
_this$1$ = -4						; size = 4
_displayDataMinMax$ = 8					; size = 4
_strPacketType$ = 12					; size = 4
_nDecLen1$1 = 16					; size = 4
_totalCount$ = 16					; size = 4
_nBase$2 = 20						; size = 4
$T3 = 20						; size = 4
_dGap$ = 20						; size = 4
_start$ = 24						; size = 4
_end$ = 28						; size = 4
_bround$ = 32						; size = 4
_nDecLen2$4 = 36					; size = 4
_vertScale$ = 36					; size = 4
$T5 = 40						; size = 8
_dHogaUnit$1$ = 40					; size = 8
_dMinScaleUnit$6 = 40					; size = 8
_dHogaUnit$ = 40					; size = 8
?GetPriceDrawingEnvironment@CPriceScaleDrawer@@IAE_NABVCDisplayDataMinMax@@ABV?$CStringT@DV?$StrTraitMFC_DLL@DV?$ChTraitsCRT@D@ATL@@@@@ATL@@HAANAAH3AA_NABVCVerticalScale@@N@Z PROC ; CPriceScaleDrawer::GetPriceDrawingEnvironment, COMDAT
; _this$ = ecx

; 135  : {

  00000	55		 push	 ebp
  00001	8b ec		 mov	 ebp, esp
  00003	83 ec 1c	 sub	 esp, 28			; 0000001cH

; 136  : 	ASSERT( 0 < totalCount);
; 137  : 
; 138  : 	// 0. Get Default Gap Unit.
; 139  : 	if( dHogaUnit <= 0)	dGap = 0;

  00006	f2 0f 10 55 28	 movsd	 xmm2, QWORD PTR _dHogaUnit$[ebp]
  0000b	0f 57 c9	 xorps	 xmm1, xmm1

; 140  : 	else				dGap = dHogaUnit;
; 141  : 
; 142  : 	int nHoGaNumber = ( int)vertScale.GetVertScaleHoGaNumber();

  0000e	8b 45 24	 mov	 eax, DWORD PTR _vertScale$[ebp]
  00011	f2 0f 5f ca	 maxsd	 xmm1, xmm2
  00015	53		 push	 ebx
  00016	56		 push	 esi
  00017	8b 75 14	 mov	 esi, DWORD PTR _dGap$[ebp]
  0001a	0f 57 c0	 xorps	 xmm0, xmm0
  0001d	89 4d fc	 mov	 DWORD PTR _this$1$[ebp], ecx
  00020	57		 push	 edi
  00021	f2 0f 11 45 f4	 movsd	 QWORD PTR __real@0000000000000000$1$[ebp], xmm0
  00026	f2 0f 11 0e	 movsd	 QWORD PTR [esi], xmm1
  0002a	f2 0f 2c 48 40	 cvttsd2si ecx, QWORD PTR [eax+64]
  0002f	f2 0f 11 55 28	 movsd	 QWORD PTR _dHogaUnit$1$[ebp], xmm2

; 143  : 	if( 0 < nHoGaNumber)	dGap = dGap * nHoGaNumber;

  00034	85 c9		 test	 ecx, ecx
  00036	7e 0c		 jle	 SHORT $LN4@GetPriceDr
  00038	66 0f 6e c1	 movd	 xmm0, ecx
  0003c	f3 0f e6 c0	 cvtdq2pd xmm0, xmm0
  00040	f2 0f 59 c1	 mulsd	 xmm0, xmm1
$LN4@GetPriceDr:

; 144  : 	else					dGap = 0;
; 145  : 
; 146  : 	//     0()       .
; 147  : 	int nHogaScaleType = vertScale.GetVertUserHogaScaleType();
; 148  : 	int nUserCount = ( int)vertScale.GetVertScaleUserNumber();
; 149  : 	double dScaleMaxGap = displayDataMinMax.GetCount();

  00044	8b 4d 08	 mov	 ecx, DWORD PTR _displayDataMinMax$[ebp]
  00047	f2 0f 11 06	 movsd	 QWORD PTR [esi], xmm0
  0004b	8b 58 48	 mov	 ebx, DWORD PTR [eax+72]
  0004e	f2 0f 2c 78 38	 cvttsd2si edi, QWORD PTR [eax+56]
  00053	e8 00 00 00 00	 call	 ?GetCount@CDisplayDataMinMax@@QBENXZ ; CDisplayDataMinMax::GetCount
  00058	dd 5d ec	 fstp	 QWORD PTR _dScaleMaxGap$[ebp]

; 150  : 	if( 1 != nHogaScaleType || dGap <= 0)

  0005b	83 fb 01	 cmp	 ebx, 1
  0005e	75 15		 jne	 SHORT $LN7@GetPriceDr
  00060	f2 0f 10 0e	 movsd	 xmm1, QWORD PTR [esi]
  00064	f2 0f 10 55 f4	 movsd	 xmm2, QWORD PTR __real@0000000000000000$1$[ebp]
  00069	66 0f 2f d1	 comisd	 xmm2, xmm1
  0006d	0f 82 af 01 00
	00		 jb	 $LN20@GetPriceDr

; 151  : 	{
; 152  : 		// vntsorl:[0000268]     pip  y pip      
; 153  : 		if( nHogaScaleType == 0 && nUserCount == 0)

  00073	eb 11		 jmp	 SHORT $LN8@GetPriceDr
$LN7@GetPriceDr:
  00075	85 db		 test	 ebx, ebx
  00077	75 08		 jne	 SHORT $LN27@GetPriceDr
  00079	85 ff		 test	 edi, edi
  0007b	0f 84 e7 01 00
	00		 je	 $LN26@GetPriceDr
$LN27@GetPriceDr:

; 154  : 			return false;
; 155  : 
; 156  : 		int nCount = nUserCount;
; 157  : 		if( nCount <= 0) nCount = totalCount - 1;
; 158  : 		if( nCount <= 0) return false;

  00081	f2 0f 10 55 f4	 movsd	 xmm2, QWORD PTR __real@0000000000000000$1$[ebp]
$LN8@GetPriceDr:
  00086	8b 45 10	 mov	 eax, DWORD PTR _totalCount$[ebp]
  00089	48		 dec	 eax
  0008a	85 ff		 test	 edi, edi
  0008c	0f 4f c7	 cmovg	 eax, edi
  0008f	85 c0		 test	 eax, eax
  00091	0f 8e d1 01 00
	00		 jle	 $LN26@GetPriceDr

; 159  : 
; 160  : 		dGap = dScaleMaxGap / nCount;

  00097	f2 0f 10 4d ec	 movsd	 xmm1, QWORD PTR _dScaleMaxGap$[ebp]
  0009c	66 0f 6e c0	 movd	 xmm0, eax
  000a0	f3 0f e6 c0	 cvtdq2pd xmm0, xmm0
  000a4	f2 0f 5e c8	 divsd	 xmm1, xmm0

; 161  : 
; 162  : 		//       .
; 163  : 		double dMinScaleUnit = dHogaUnit;

  000a8	f2 0f 10 45 28	 movsd	 xmm0, QWORD PTR _dHogaUnit$1$[ebp]

; 164  : 		//     Packet Type  .
; 165  : 		if( dMinScaleUnit <= 0)

  000ad	66 0f 2f d0	 comisd	 xmm2, xmm0
  000b1	f2 0f 11 0e	 movsd	 QWORD PTR [esi], xmm1
  000b5	0f 28 c8	 movaps	 xmm1, xmm0
  000b8	f2 0f 11 4d 28	 movsd	 QWORD PTR $T5[ebp], xmm1
  000bd	0f 82 0c 01 00
	00		 jb	 $LN16@GetPriceDr

; 166  : 		{
; 167  : 			if( strPacketType.Find( '.') < 0)

  000c3	8b 7d 0c	 mov	 edi, DWORD PTR _strPacketType$[ebp]
  000c6	8b cf		 mov	 ecx, edi
  000c8	6a 00		 push	 0
  000ca	6a 2e		 push	 46			; 0000002eH
  000cc	ff 15 00 00 00
	00		 call	 DWORD PTR __imp_?Find@?$CStringT@DV?$StrTraitMFC_DLL@DV?$ChTraitsCRT@D@ATL@@@@@ATL@@QBEHDH@Z
  000d2	85 c0		 test	 eax, eax
  000d4	79 3a		 jns	 SHORT $LN12@GetPriceDr

; 168  : 			{
; 169  : 				double dDigits = log10( dGap);

  000d6	f2 0f 10 06	 movsd	 xmm0, QWORD PTR [esi]
  000da	e8 00 00 00 00	 call	 __libm_sse2_log10_precise

; 170  : 				if( dDigits != int( dDigits)) dDigits = int( dDigits);

  000df	f2 0f 2c c0	 cvttsd2si eax, xmm0
  000e3	0f 28 c8	 movaps	 xmm1, xmm0
  000e6	66 0f 6e c0	 movd	 xmm0, eax
  000ea	f3 0f e6 c0	 cvtdq2pd xmm0, xmm0
  000ee	66 0f 2e c8	 ucomisd xmm1, xmm0
  000f2	9f		 lahf
  000f3	f6 c4 44	 test	 ah, 68			; 00000044H
  000f6	7b 03		 jnp	 SHORT $LN14@GetPriceDr
  000f8	0f 28 c8	 movaps	 xmm1, xmm0
$LN14@GetPriceDr:

; 171  : 				dMinScaleUnit = pow( 10, dDigits);

  000fb	f2 0f 10 05 00
	00 00 00	 movsd	 xmm0, QWORD PTR __real@4024000000000000
  00103	e8 00 00 00 00	 call	 __libm_sse2_pow_precise
  00108	0f 28 c8	 movaps	 xmm1, xmm0

; 172  : 			}

  0010b	e9 ba 00 00 00	 jmp	 $LN28@GetPriceDr
$LN12@GetPriceDr:

; 173  : 			else if( strPacketType.Find( '/') < 0)

  00110	6a 00		 push	 0
  00112	6a 2f		 push	 47			; 0000002fH
  00114	8b cf		 mov	 ecx, edi
  00116	ff 15 00 00 00
	00		 call	 DWORD PTR __imp_?Find@?$CStringT@DV?$StrTraitMFC_DLL@DV?$ChTraitsCRT@D@ATL@@@@@ATL@@QBEHDH@Z
  0011c	85 c0		 test	 eax, eax
  0011e	79 3f		 jns	 SHORT $LN15@GetPriceDr

; 174  : 			{
; 175  : 				int nStart = strPacketType.Find( '0');

  00120	6a 00		 push	 0
  00122	6a 30		 push	 48			; 00000030H
  00124	8b cf		 mov	 ecx, edi
  00126	ff 15 00 00 00
	00		 call	 DWORD PTR __imp_?Find@?$CStringT@DV?$StrTraitMFC_DLL@DV?$ChTraitsCRT@D@ATL@@@@@ATL@@QBEHDH@Z

; 176  : 				if( nStart < 0) return false;

  0012c	85 c0		 test	 eax, eax
  0012e	0f 88 34 01 00
	00		 js	 $LN26@GetPriceDr

; 177  : 				dMinScaleUnit = atof( strPacketType.Mid( nStart));

  00134	50		 push	 eax
  00135	8d 45 14	 lea	 eax, DWORD PTR $T3[ebp]
  00138	8b cf		 mov	 ecx, edi
  0013a	50		 push	 eax
  0013b	ff 15 00 00 00
	00		 call	 DWORD PTR __imp_?Mid@?$CStringT@DV?$StrTraitMFC_DLL@DV?$ChTraitsCRT@D@ATL@@@@@ATL@@QBE?AV12@H@Z
  00141	ff 30		 push	 DWORD PTR [eax]
  00143	ff 15 00 00 00
	00		 call	 DWORD PTR __imp__atof
  00149	83 c4 04	 add	 esp, 4
  0014c	8d 4d 14	 lea	 ecx, DWORD PTR $T3[ebp]
  0014f	dd 5d 28	 fstp	 QWORD PTR _dMinScaleUnit$6[ebp]
  00152	ff 15 00 00 00
	00		 call	 DWORD PTR __imp_??1?$CStringT@DV?$StrTraitMFC_DLL@DV?$ChTraitsCRT@D@ATL@@@@@ATL@@QAE@XZ

; 178  : 			}

  00158	f2 0f 10 4d 28	 movsd	 xmm1, QWORD PTR _dMinScaleUnit$6[ebp]
  0015d	eb 6b		 jmp	 SHORT $LN28@GetPriceDr
$LN15@GetPriceDr:

; 179  : 			else
; 180  : 			{
; 181  : 				int nBase = 0, nDecLen1 = 0, nDecLen2 = 0;
; 182  : 				if( !CDataConversion::GetBaseFormatInfo( strPacketType, nBase, nDecLen1, nDecLen2))

  0015f	8d 45 24	 lea	 eax, DWORD PTR _nDecLen2$4[ebp]
  00162	c7 45 14 00 00
	00 00		 mov	 DWORD PTR _nBase$2[ebp], 0
  00169	50		 push	 eax
  0016a	8d 45 10	 lea	 eax, DWORD PTR _nDecLen1$1[ebp]
  0016d	c7 45 10 00 00
	00 00		 mov	 DWORD PTR _nDecLen1$1[ebp], 0
  00174	50		 push	 eax
  00175	8d 45 14	 lea	 eax, DWORD PTR _nBase$2[ebp]
  00178	c7 45 24 00 00
	00 00		 mov	 DWORD PTR _nDecLen2$4[ebp], 0
  0017f	50		 push	 eax
  00180	57		 push	 edi
  00181	e8 00 00 00 00	 call	 ?GetBaseFormatInfo@CDataConversion@@SA_NABV?$CStringT@DV?$StrTraitMFC_DLL@DV?$ChTraitsCRT@D@ATL@@@@@ATL@@AAH11@Z ; CDataConversion::GetBaseFormatInfo
  00186	83 c4 10	 add	 esp, 16			; 00000010H
  00189	84 c0		 test	 al, al
  0018b	0f 84 d7 00 00
	00		 je	 $LN26@GetPriceDr

; 183  : 					return false;
; 184  : 				dMinScaleUnit = ( 1.0 / nBase) / pow( 10, nDecLen2);

  00191	66 0f 6e 45 14	 movd	 xmm0, DWORD PTR _nBase$2[ebp]
  00196	f2 0f 10 15 00
	00 00 00	 movsd	 xmm2, QWORD PTR __real@3ff0000000000000
  0019e	f3 0f e6 c0	 cvtdq2pd xmm0, xmm0
  001a2	66 0f 6e 4d 24	 movd	 xmm1, DWORD PTR _nDecLen2$4[ebp]
  001a7	f2 0f 5e d0	 divsd	 xmm2, xmm0
  001ab	f2 0f 10 05 00
	00 00 00	 movsd	 xmm0, QWORD PTR __real@4024000000000000
  001b3	f3 0f e6 c9	 cvtdq2pd xmm1, xmm1
  001b7	f2 0f 11 55 28	 movsd	 QWORD PTR $T5[ebp], xmm2
  001bc	e8 00 00 00 00	 call	 __libm_sse2_pow_precise
  001c1	f2 0f 10 4d 28	 movsd	 xmm1, QWORD PTR $T5[ebp]
  001c6	f2 0f 5e c8	 divsd	 xmm1, xmm0
$LN28@GetPriceDr:

; 185  : 			}
; 186  : 		}
; 187  : 
; 188  : 		if( dGap <= dMinScaleUnit) dGap = dMinScaleUnit;

  001ca	f2 0f 11 4d 28	 movsd	 QWORD PTR $T5[ebp], xmm1
$LN16@GetPriceDr:
  001cf	f2 0f 10 06	 movsd	 xmm0, QWORD PTR [esi]
  001d3	66 0f 2f c8	 comisd	 xmm1, xmm0
  001d7	73 45		 jae	 SHORT $LN29@GetPriceDr

; 189  : 		else
; 190  : 		{
; 191  : 			double dHoGaNumber = dGap / dMinScaleUnit;

  001d9	f2 0f 5e c1	 divsd	 xmm0, xmm1
  001dd	f2 0f 11 45 e4	 movsd	 QWORD PTR _dHoGaNumber$1$[ebp], xmm0

; 192  : 			//       .
; 193  : 			int nHoGaDigits = int( log10( dHoGaNumber));

  001e2	e8 00 00 00 00	 call	 __libm_sse2_log10_precise
  001e7	f2 0f 2c c0	 cvttsd2si eax, xmm0

; 194  : 			dHoGaNumber = int( dHoGaNumber / pow( 10, nHoGaDigits)) * pow( 10, nHoGaDigits);

  001eb	f2 0f 10 05 00
	00 00 00	 movsd	 xmm0, QWORD PTR __real@4024000000000000
  001f3	66 0f 6e c8	 movd	 xmm1, eax
  001f7	f3 0f e6 c9	 cvtdq2pd xmm1, xmm1
  001fb	e8 00 00 00 00	 call	 __libm_sse2_pow_precise
  00200	f2 0f 10 4d e4	 movsd	 xmm1, QWORD PTR _dHoGaNumber$1$[ebp]
  00205	f2 0f 5e c8	 divsd	 xmm1, xmm0
  00209	f2 0f 2c c1	 cvttsd2si eax, xmm1
  0020d	66 0f 6e c8	 movd	 xmm1, eax
  00211	f3 0f e6 c9	 cvtdq2pd xmm1, xmm1
  00215	f2 0f 59 c8	 mulsd	 xmm1, xmm0

; 195  : 			dGap = dMinScaleUnit * dHoGaNumber;

  00219	f2 0f 59 4d 28	 mulsd	 xmm1, QWORD PTR $T5[ebp]
$LN29@GetPriceDr:

; 196  : 		}
; 197  : 	}
; 198  : 
; 199  : 	//   Gap     (   )
; 200  : 	if( dGap <= 0) return false;

  0021e	f2 0f 11 0e	 movsd	 QWORD PTR [esi], xmm1
$LN20@GetPriceDr:
  00222	f2 0f 10 45 f4	 movsd	 xmm0, QWORD PTR __real@0000000000000000$1$[ebp]
  00227	66 0f 2f c1	 comisd	 xmm0, xmm1
  0022b	73 3b		 jae	 SHORT $LN26@GetPriceDr

; 201  : 	CVertScaleDrawer::GetStartAndEnd( displayDataMinMax, int( dScaleMaxGap / dGap) + 1, dGap, start, end);

  0022d	f2 0f 10 45 ec	 movsd	 xmm0, QWORD PTR _dScaleMaxGap$[ebp]
  00232	f2 0f 5e c1	 divsd	 xmm0, xmm1
  00236	8b 4d fc	 mov	 ecx, DWORD PTR _this$1$[ebp]
  00239	ff 75 1c	 push	 DWORD PTR _end$[ebp]
  0023c	f2 0f 2c c0	 cvttsd2si eax, xmm0
  00240	ff 75 18	 push	 DWORD PTR _start$[ebp]
  00243	40		 inc	 eax
  00244	56		 push	 esi
  00245	8b 75 08	 mov	 esi, DWORD PTR _displayDataMinMax$[ebp]
  00248	50		 push	 eax
  00249	56		 push	 esi
  0024a	e8 00 00 00 00	 call	 ?GetStartAndEnd@CVertScaleDrawer@@IBEXABVCDisplayDataMinMax@@HABNAAH2@Z ; CVertScaleDrawer::GetStartAndEnd

; 202  : 	bround = CVertScaleDrawer::GetBround(displayDataMinMax);

  0024f	8b 4d fc	 mov	 ecx, DWORD PTR _this$1$[ebp]
  00252	56		 push	 esi
  00253	e8 00 00 00 00	 call	 ?GetBround@CVertScaleDrawer@@IBE_NABVCDisplayDataMinMax@@@Z ; CVertScaleDrawer::GetBround
  00258	8b 4d 20	 mov	 ecx, DWORD PTR _bround$[ebp]
  0025b	5f		 pop	 edi

; 203  : 	return true;
; 204  : }

  0025c	5e		 pop	 esi
  0025d	5b		 pop	 ebx
  0025e	88 01		 mov	 BYTE PTR [ecx], al
  00260	b0 01		 mov	 al, 1
  00262	8b e5		 mov	 esp, ebp
  00264	5d		 pop	 ebp
  00265	c2 28 00	 ret	 40			; 00000028H
$LN26@GetPriceDr:
  00268	5f		 pop	 edi
  00269	5e		 pop	 esi
  0026a	32 c0		 xor	 al, al
  0026c	5b		 pop	 ebx
  0026d	8b e5		 mov	 esp, ebp
  0026f	5d		 pop	 ebp
  00270	c2 28 00	 ret	 40			; 00000028H
?GetPriceDrawingEnvironment@CPriceScaleDrawer@@IAE_NABVCDisplayDataMinMax@@ABV?$CStringT@DV?$StrTraitMFC_DLL@DV?$ChTraitsCRT@D@ATL@@@@@ATL@@HAANAAH3AA_NABVCVerticalScale@@N@Z ENDP ; CPriceScaleDrawer::GetPriceDrawingEnvironment
_TEXT	ENDS
; Function compile flags: /Ogtp
; File D:\git\src\IBK\IBK_DRFN\ProjSrc\SrcChartEx\ChartOCX\ScaleDraw\PriceScaleDrawer.cpp
; File C:\Program Files (x86)\Microsoft Visual Studio\2019\Community\VC\Tools\MSVC\14.29.30133\atlmfc\include\atltypes.h
; File D:\git\src\IBK\IBK_DRFN\ProjSrc\SrcChartEx\ChartOCX\ScaleDraw\PriceScaleDrawer.cpp
;	COMDAT ?DrawTextOrGrid_Both@CPriceScaleDrawer@@IAEXPAVCDC@@ABVCDrawingVertScaleData@@ABVCVertScaleRegion@@ABVCVerticalScale@@ABV?$CStringT@DV?$StrTraitMFC_DLL@DV?$ChTraitsCRT@D@ATL@@@@@ATL@@@Z
_TEXT	SEGMENT
$T2 = -140						; size = 16
$T3 = -124						; size = 16
$T4 = -124						; size = 16
$T5 = -124						; size = 16
$T6 = -120						; size = 12
$T7 = -120						; size = 12
_dGap$ = -108						; size = 8
$T8 = -100						; size = 4
_pPacket$1$ = -96					; size = 4
_changeDataType$ = -92					; size = 4
_this$GSCopy$1$ = -88					; size = 4
$T9 = -84						; size = 4
_start$ = -80						; size = 4
_end$ = -76						; size = 4
_vertScale$GSCopy$1$ = -72				; size = 4
_dataType$GSCopy$1$ = -68				; size = 4
_strFormatTrans$ = -64					; size = 4
_pDC$GSCopy$1$ = -60					; size = 4
_bround$ = -56						; size = 1
_vertScaleRegion$GSCopy$1$ = -52			; size = 4
_totalCount$1$ = -52					; size = 4
$T10 = -52						; size = 4
_scaleTextRegion_right$ = -48				; size = 16
_scaleTextRegion_left$ = -32				; size = 16
__$ArrayPad$ = -16					; size = 4
__$EHRec$ = -12						; size = 12
_pDC$ = 8						; size = 4
_drawingVertScaleData$ = 12				; size = 4
_vertScaleRegion$ = 16					; size = 4
_vertScale$ = 20					; size = 4
_dataType$ = 24						; size = 4
?DrawTextOrGrid_Both@CPriceScaleDrawer@@IAEXPAVCDC@@ABVCDrawingVertScaleData@@ABVCVertScaleRegion@@ABVCVerticalScale@@ABV?$CStringT@DV?$StrTraitMFC_DLL@DV?$ChTraitsCRT@D@ATL@@@@@ATL@@@Z PROC ; CPriceScaleDrawer::DrawTextOrGrid_Both, COMDAT
; _this$ = ecx

; 76   : {

  00000	55		 push	 ebp
  00001	8b ec		 mov	 ebp, esp
  00003	6a ff		 push	 -1
  00005	68 00 00 00 00	 push	 __ehhandler$?DrawTextOrGrid_Both@CPriceScaleDrawer@@IAEXPAVCDC@@ABVCDrawingVertScaleData@@ABVCVertScaleRegion@@ABVCVerticalScale@@ABV?$CStringT@DV?$StrTraitMFC_DLL@DV?$ChTraitsCRT@D@ATL@@@@@ATL@@@Z
  0000a	64 a1 00 00 00
	00		 mov	 eax, DWORD PTR fs:0
  00010	50		 push	 eax
  00011	81 ec 80 00 00
	00		 sub	 esp, 128		; 00000080H
  00017	a1 00 00 00 00	 mov	 eax, DWORD PTR ___security_cookie
  0001c	33 c5		 xor	 eax, ebp
  0001e	89 45 f0	 mov	 DWORD PTR __$ArrayPad$[ebp], eax
  00021	53		 push	 ebx
  00022	56		 push	 esi
  00023	57		 push	 edi
  00024	50		 push	 eax
  00025	8d 45 f4	 lea	 eax, DWORD PTR __$EHRec$[ebp]
  00028	64 a3 00 00 00
	00		 mov	 DWORD PTR fs:0, eax
  0002e	8b f1		 mov	 esi, ecx
  00030	89 75 a8	 mov	 DWORD PTR _this$GSCopy$1$[ebp], esi
  00033	8b 45 08	 mov	 eax, DWORD PTR _pDC$[ebp]
  00036	8b 7d 0c	 mov	 edi, DWORD PTR _drawingVertScaleData$[ebp]

; 77   : 	CPacket *pPacket = drawingVertScaleData.GetPacket();

  00039	8b cf		 mov	 ecx, edi
  0003b	89 45 c4	 mov	 DWORD PTR _pDC$GSCopy$1$[ebp], eax
  0003e	8b 45 10	 mov	 eax, DWORD PTR _vertScaleRegion$[ebp]
  00041	89 45 cc	 mov	 DWORD PTR _vertScaleRegion$GSCopy$1$[ebp], eax
  00044	8b 45 14	 mov	 eax, DWORD PTR _vertScale$[ebp]
  00047	89 45 b8	 mov	 DWORD PTR _vertScale$GSCopy$1$[ebp], eax
  0004a	8b 45 18	 mov	 eax, DWORD PTR _dataType$[ebp]
  0004d	89 45 bc	 mov	 DWORD PTR _dataType$GSCopy$1$[ebp], eax
  00050	c7 45 ac 00 00
	00 00		 mov	 DWORD PTR $T9[ebp], 0
  00057	e8 00 00 00 00	 call	 ?GetPacket@CDrawingVertScaleData@@QBEPAVCPacket@@XZ ; CDrawingVertScaleData::GetPacket
  0005c	8b d8		 mov	 ebx, eax
  0005e	89 5d a0	 mov	 DWORD PTR _pPacket$1$[ebp], ebx

; 78   : 	if( !pPacket) return;

  00061	85 db		 test	 ebx, ebx
  00063	0f 84 3a 02 00
	00		 je	 $LN1@DrawTextOr

; 79   : 
; 80   : 	CRect scaleTextRegion_left = vertScaleRegion.GetLeftScaleTextRegion();

  00069	8b 4d cc	 mov	 ecx, DWORD PTR _vertScaleRegion$GSCopy$1$[ebp]
  0006c	8d 45 e0	 lea	 eax, DWORD PTR _scaleTextRegion_left$[ebp]
  0006f	50		 push	 eax
  00070	e8 00 00 00 00	 call	 ?GetLeftScaleTextRegion@CVertScaleRegion@@QBE?AVCRect@@XZ ; CVertScaleRegion::GetLeftScaleTextRegion

; 81   : 	CRect scaleTextRegion_right = vertScaleRegion.GetRightScaleTextRegion();

  00075	8b 4d cc	 mov	 ecx, DWORD PTR _vertScaleRegion$GSCopy$1$[ebp]
  00078	8d 45 d0	 lea	 eax, DWORD PTR _scaleTextRegion_right$[ebp]
  0007b	50		 push	 eax
  0007c	e8 00 00 00 00	 call	 ?GetRightScaleTextRegion@CVertScaleRegion@@QBE?AVCRect@@XZ ; CVertScaleRegion::GetRightScaleTextRegion

; 82   : 
; 83   : 	//sy 2002.8.28. --> gap  packetDataType ( )
; 84   : 	CString changeDataType = dataType;

  00081	ff 75 bc	 push	 DWORD PTR _dataType$GSCopy$1$[ebp]
  00084	8d 4d a4	 lea	 ecx, DWORD PTR _changeDataType$[ebp]
  00087	ff 15 00 00 00
	00		 call	 DWORD PTR __imp_??0?$CStringT@DV?$StrTraitMFC_DLL@DV?$ChTraitsCRT@D@ATL@@@@@ATL@@QAE@ABV01@@Z
; File C:\Program Files (x86)\Microsoft Visual Studio\2019\Community\VC\Tools\MSVC\14.29.30133\atlmfc\include\atltypes.h

; 581  : 	return bottom - top;

  0008d	8b 45 ec	 mov	 eax, DWORD PTR _scaleTextRegion_left$[ebp+12]
  00090	0f 57 c0	 xorps	 xmm0, xmm0
  00093	2b 45 e4	 sub	 eax, DWORD PTR _scaleTextRegion_left$[ebp+4]
; File D:\git\src\IBK\IBK_DRFN\ProjSrc\SrcChartEx\ChartOCX\ScaleDraw\PriceScaleDrawer.cpp

; 93   : 	int totalCount = CVertScaleDrawer::GetCount(pDC, (scaleTextRegion_left.Height())) +1;

  00096	8b ce		 mov	 ecx, esi
  00098	50		 push	 eax
  00099	ff 75 c4	 push	 DWORD PTR _pDC$GSCopy$1$[ebp]
  0009c	c7 45 fc 00 00
	00 00		 mov	 DWORD PTR __$EHRec$[ebp+8], 0
  000a3	c7 45 b0 00 00
	00 00		 mov	 DWORD PTR _start$[ebp], 0
  000aa	c7 45 b4 00 00
	00 00		 mov	 DWORD PTR _end$[ebp], 0
  000b1	f2 0f 11 45 94	 movsd	 QWORD PTR _dGap$[ebp], xmm0
  000b6	c6 45 c8 00	 mov	 BYTE PTR _bround$[ebp], 0
  000ba	e8 00 00 00 00	 call	 ?GetCount@CVertScaleDrawer@@IBEHPAVCDC@@H@Z ; CVertScaleDrawer::GetCount
  000bf	40		 inc	 eax
  000c0	89 45 cc	 mov	 DWORD PTR _totalCount$1$[ebp], eax

; 94   : 	if(totalCount <= 0)

  000c3	85 c0		 test	 eax, eax
  000c5	0f 8e cf 01 00
	00		 jle	 $LN18@DrawTextOr

; 95   : 		return;
; 96   : 
; 97   : //	if(!CVertScaleDrawer::GetDrawingEnvironment(pDC, scaleTextRegion_left, 
; 98   : //		drawingVertScaleData.GetDisplayDataMinMax(), dataType, start, end, dGap, bround))
; 99   : //		return;
; 100  : 
; 101  : 	//{{2007.07.09 by LYH       Gap  
; 102  : 	// ,   - ojtaso (20070917)
; 103  : 	if(!GetPriceDrawingEnvironment(drawingVertScaleData.GetDisplayDataMinMax(), dataType, totalCount,

  000cb	6a 00		 push	 0
  000cd	8b cf		 mov	 ecx, edi
  000cf	e8 00 00 00 00	 call	 ?GetHogaUnit@CDrawingVertScaleData@@QBENH@Z ; CDrawingVertScaleData::GetHogaUnit
  000d4	83 ec 08	 sub	 esp, 8
  000d7	8d 45 c8	 lea	 eax, DWORD PTR _bround$[ebp]
  000da	8b cf		 mov	 ecx, edi
  000dc	dd 1c 24	 fstp	 QWORD PTR [esp]
  000df	ff 75 b8	 push	 DWORD PTR _vertScale$GSCopy$1$[ebp]
  000e2	50		 push	 eax
  000e3	8d 45 b4	 lea	 eax, DWORD PTR _end$[ebp]
  000e6	50		 push	 eax
  000e7	8d 45 b0	 lea	 eax, DWORD PTR _start$[ebp]
  000ea	50		 push	 eax
  000eb	8d 45 94	 lea	 eax, DWORD PTR _dGap$[ebp]
  000ee	50		 push	 eax
  000ef	ff 75 cc	 push	 DWORD PTR _totalCount$1$[ebp]
  000f2	8d 45 84	 lea	 eax, DWORD PTR $T5[ebp]
  000f5	ff 75 bc	 push	 DWORD PTR _dataType$GSCopy$1$[ebp]
  000f8	50		 push	 eax
  000f9	e8 00 00 00 00	 call	 ?GetDisplayDataMinMax@CDrawingVertScaleData@@QBE?AVCDisplayDataMinMax@@XZ ; CDrawingVertScaleData::GetDisplayDataMinMax
  000fe	50		 push	 eax
  000ff	8b ce		 mov	 ecx, esi
  00101	e8 00 00 00 00	 call	 ?GetPriceDrawingEnvironment@CPriceScaleDrawer@@IAE_NABVCDisplayDataMinMax@@ABV?$CStringT@DV?$StrTraitMFC_DLL@DV?$ChTraitsCRT@D@ATL@@@@@ATL@@HAANAAH3AA_NABVCVerticalScale@@N@Z ; CPriceScaleDrawer::GetPriceDrawingEnvironment
  00106	84 c0		 test	 al, al
  00108	75 35		 jne	 SHORT $LN5@DrawTextOr

; 104  : 								dGap,start, end,  bround,vertScale, drawingVertScaleData.GetHogaUnit()))
; 105  : 	{
; 106  : 		if(!CVertScaleDrawer::GetDrawingEnvironment(pDC, scaleTextRegion_left, 

  0010a	8d 45 c8	 lea	 eax, DWORD PTR _bround$[ebp]
  0010d	8b cf		 mov	 ecx, edi
  0010f	50		 push	 eax
  00110	8d 45 94	 lea	 eax, DWORD PTR _dGap$[ebp]
  00113	50		 push	 eax
  00114	8d 45 b4	 lea	 eax, DWORD PTR _end$[ebp]
  00117	50		 push	 eax
  00118	8d 45 b0	 lea	 eax, DWORD PTR _start$[ebp]
  0011b	50		 push	 eax
  0011c	ff 75 bc	 push	 DWORD PTR _dataType$GSCopy$1$[ebp]
  0011f	8d 45 84	 lea	 eax, DWORD PTR $T4[ebp]
  00122	50		 push	 eax
  00123	e8 00 00 00 00	 call	 ?GetDisplayDataMinMax@CDrawingVertScaleData@@QBE?AVCDisplayDataMinMax@@XZ ; CDrawingVertScaleData::GetDisplayDataMinMax
  00128	50		 push	 eax
  00129	8d 45 e0	 lea	 eax, DWORD PTR _scaleTextRegion_left$[ebp]
  0012c	8b ce		 mov	 ecx, esi
  0012e	50		 push	 eax
  0012f	ff 75 c4	 push	 DWORD PTR _pDC$GSCopy$1$[ebp]
  00132	e8 00 00 00 00	 call	 ?GetDrawingEnvironment@CVertScaleDrawer@@IAE_NPAVCDC@@ABVCRect@@ABVCDisplayDataMinMax@@ABV?$CStringT@DV?$StrTraitMFC_DLL@DV?$ChTraitsCRT@D@ATL@@@@@ATL@@AAH4AANAA_N@Z ; CVertScaleDrawer::GetDrawingEnvironment
  00137	84 c0		 test	 al, al
  00139	0f 84 5b 01 00
	00		 je	 $LN18@DrawTextOr
$LN5@DrawTextOr:

; 107  : 		drawingVertScaleData.GetDisplayDataMinMax(), dataType, start, end, dGap, bround))
; 108  : 		return;
; 109  : 	}
; 110  : 	//}}
; 111  : 
; 112  : 	//     -     12.24.2001
; 113  : 	BOOL bAutoScaleType = pPacket->IsAutoScaleType();

  0013f	8b cb		 mov	 ecx, ebx
  00141	ff 15 00 00 00
	00		 call	 DWORD PTR __imp_?IsAutoScaleType@CPacket@@QAEHXZ
  00147	8b f0		 mov	 esi, eax

; 114  : 	CString strFormatTrans = CVertScaleDrawer::GetFormatTrans(drawingVertScaleData.GetDisplayDataMinMax(), changeDataType, bAutoScaleType);

  00149	8b cf		 mov	 ecx, edi
  0014b	56		 push	 esi
  0014c	8d 45 a4	 lea	 eax, DWORD PTR _changeDataType$[ebp]
  0014f	50		 push	 eax
  00150	8d 85 74 ff ff
	ff		 lea	 eax, DWORD PTR $T2[ebp]
  00156	50		 push	 eax
  00157	e8 00 00 00 00	 call	 ?GetDisplayDataMinMax@CDrawingVertScaleData@@QBE?AVCDisplayDataMinMax@@XZ ; CDrawingVertScaleData::GetDisplayDataMinMax
  0015c	8b 4d a8	 mov	 ecx, DWORD PTR _this$GSCopy$1$[ebp]
  0015f	50		 push	 eax
  00160	8d 45 c0	 lea	 eax, DWORD PTR _strFormatTrans$[ebp]
  00163	50		 push	 eax
  00164	e8 00 00 00 00	 call	 ?GetFormatTrans@CVertScaleDrawer@@IAE?AV?$CStringT@DV?$StrTraitMFC_DLL@DV?$ChTraitsCRT@D@ATL@@@@@ATL@@ABVCDisplayDataMinMax@@ABV23@H@Z ; CVertScaleDrawer::GetFormatTrans
  00169	c6 45 fc 01	 mov	 BYTE PTR __$EHRec$[ebp+8], 1

; 115  : 	pPacket->SetScaleType( bAutoScaleType ? strFormatTrans : pPacket->GetType());

  0016d	85 f6		 test	 esi, esi
  0016f	74 18		 je	 SHORT $LN7@DrawTextOr
  00171	8d 45 c0	 lea	 eax, DWORD PTR _strFormatTrans$[ebp]
  00174	50		 push	 eax
  00175	8d 4d 9c	 lea	 ecx, DWORD PTR $T8[ebp]
  00178	ff 15 00 00 00
	00		 call	 DWORD PTR __imp_??0?$CStringT@DV?$StrTraitMFC_DLL@DV?$ChTraitsCRT@D@ATL@@@@@ATL@@QAE@ABV01@@Z
  0017e	c6 45 fc 02	 mov	 BYTE PTR __$EHRec$[ebp+8], 2
  00182	bb 01 00 00 00	 mov	 ebx, 1
  00187	eb 1a		 jmp	 SHORT $LN22@DrawTextOr
$LN7@DrawTextOr:
  00189	6a 01		 push	 1
  0018b	8d 45 cc	 lea	 eax, DWORD PTR $T10[ebp]
  0018e	8b cb		 mov	 ecx, ebx
  00190	50		 push	 eax
  00191	ff 15 00 00 00
	00		 call	 DWORD PTR __imp_?GetType@CPacket@@QAE?AV?$CStringT@DV?$StrTraitMFC_DLL@DV?$ChTraitsCRT@D@ATL@@@@@ATL@@_N@Z
  00197	c7 45 fc 03 00
	00 00		 mov	 DWORD PTR __$EHRec$[ebp+8], 3
  0019e	bb 02 00 00 00	 mov	 ebx, 2
$LN22@DrawTextOr:
  001a3	8b 4d a0	 mov	 ecx, DWORD PTR _pPacket$1$[ebp]
  001a6	50		 push	 eax
  001a7	89 5d ac	 mov	 DWORD PTR $T9[ebp], ebx
  001aa	ff 15 00 00 00
	00		 call	 DWORD PTR __imp_?SetScaleType@CPacket@@QAEXABV?$CStringT@DV?$StrTraitMFC_DLL@DV?$ChTraitsCRT@D@ATL@@@@@ATL@@@Z
  001b0	f6 c3 02	 test	 bl, 2
  001b3	74 0c		 je	 SHORT $LN15@DrawTextOr
  001b5	8d 4d cc	 lea	 ecx, DWORD PTR $T10[ebp]
  001b8	83 e3 fd	 and	 ebx, -3			; fffffffdH
  001bb	ff 15 00 00 00
	00		 call	 DWORD PTR __imp_??1?$CStringT@DV?$StrTraitMFC_DLL@DV?$ChTraitsCRT@D@ATL@@@@@ATL@@QAE@XZ
$LN15@DrawTextOr:
  001c1	c7 45 fc 01 00
	00 00		 mov	 DWORD PTR __$EHRec$[ebp+8], 1
  001c8	f6 c3 01	 test	 bl, 1
  001cb	74 09		 je	 SHORT $LN16@DrawTextOr
  001cd	8d 4d 9c	 lea	 ecx, DWORD PTR $T8[ebp]
  001d0	ff 15 00 00 00
	00		 call	 DWORD PTR __imp_??1?$CStringT@DV?$StrTraitMFC_DLL@DV?$ChTraitsCRT@D@ATL@@@@@ATL@@QAE@XZ
$LN16@DrawTextOr:

; 116  : 
; 117  : 	// type 
; 118  : 	int typeRegionY = CVertScaleDrawer::DrawType(pDC, scaleTextRegion_left, strFormatTrans, 

  001d6	8d 45 88	 lea	 eax, DWORD PTR $T7[ebp]
  001d9	8b cf		 mov	 ecx, edi
  001db	50		 push	 eax
  001dc	e8 00 00 00 00	 call	 ?GetScaleColor@CDrawingVertScaleData@@QBE?AVCScaleColor@@XZ ; CDrawingVertScaleData::GetScaleColor
  001e1	8b 35 00 00 00
	00		 mov	 esi, DWORD PTR __imp_?GetScaleTextColor@CScaleColor@@QAEAAKXZ
  001e7	8b c8		 mov	 ecx, eax
  001e9	ff d6		 call	 esi
  001eb	8b 4d b8	 mov	 ecx, DWORD PTR _vertScale$GSCopy$1$[ebp]
  001ee	ff 30		 push	 DWORD PTR [eax]
  001f0	e8 00 00 00 00	 call	 ?GetVertScaleUnitType@CVerticalScale@@QBE?AW4VERTSCALEUNITTYPE@CScaleBaseData@@XZ ; CVerticalScale::GetVertScaleUnitType
  001f5	8b 5d a8	 mov	 ebx, DWORD PTR _this$GSCopy$1$[ebp]
  001f8	8b cb		 mov	 ecx, ebx
  001fa	50		 push	 eax
  001fb	ff 75 c8	 push	 DWORD PTR _bround$[ebp]
  001fe	8d 45 c0	 lea	 eax, DWORD PTR _strFormatTrans$[ebp]
  00201	50		 push	 eax
  00202	8d 45 e0	 lea	 eax, DWORD PTR _scaleTextRegion_left$[ebp]
  00205	50		 push	 eax
  00206	ff 75 c4	 push	 DWORD PTR _pDC$GSCopy$1$[ebp]
  00209	e8 00 00 00 00	 call	 ?DrawType@CVertScaleDrawer@@IAEHPAVCDC@@ABVCRect@@ABV?$CStringT@DV?$StrTraitMFC_DLL@DV?$ChTraitsCRT@D@ATL@@@@@ATL@@_NW4VERTSCALEUNITTYPE@CScaleBaseData@@K@Z ; CVertScaleDrawer::DrawType

; 119  : 		bround, vertScale.GetVertScaleUnitType(), drawingVertScaleData.GetScaleColor().GetScaleTextColor());
; 120  : 	typeRegionY = CVertScaleDrawer::DrawType(pDC, scaleTextRegion_right, strFormatTrans, 

  0020e	8d 45 88	 lea	 eax, DWORD PTR $T6[ebp]
  00211	8b cf		 mov	 ecx, edi
  00213	50		 push	 eax
  00214	e8 00 00 00 00	 call	 ?GetScaleColor@CDrawingVertScaleData@@QBE?AVCScaleColor@@XZ ; CDrawingVertScaleData::GetScaleColor
  00219	8b c8		 mov	 ecx, eax
  0021b	ff d6		 call	 esi
  0021d	8b 4d b8	 mov	 ecx, DWORD PTR _vertScale$GSCopy$1$[ebp]
  00220	ff 30		 push	 DWORD PTR [eax]
  00222	e8 00 00 00 00	 call	 ?GetVertScaleUnitType@CVerticalScale@@QBE?AW4VERTSCALEUNITTYPE@CScaleBaseData@@XZ ; CVerticalScale::GetVertScaleUnitType
  00227	50		 push	 eax
  00228	ff 75 c8	 push	 DWORD PTR _bround$[ebp]
  0022b	8d 45 c0	 lea	 eax, DWORD PTR _strFormatTrans$[ebp]
  0022e	8b cb		 mov	 ecx, ebx
  00230	50		 push	 eax
  00231	8d 45 d0	 lea	 eax, DWORD PTR _scaleTextRegion_right$[ebp]
  00234	50		 push	 eax
  00235	ff 75 c4	 push	 DWORD PTR _pDC$GSCopy$1$[ebp]
  00238	e8 00 00 00 00	 call	 ?DrawType@CVertScaleDrawer@@IAEHPAVCDC@@ABVCRect@@ABV?$CStringT@DV?$StrTraitMFC_DLL@DV?$ChTraitsCRT@D@ATL@@@@@ATL@@_NW4VERTSCALEUNITTYPE@CScaleBaseData@@K@Z ; CVertScaleDrawer::DrawType

; 121  : 		bround, vertScale.GetVertScaleUnitType(), drawingVertScaleData.GetScaleColor().GetScaleTextColor());
; 122  : 
; 123  : 	// scale 	
; 124  : 	// ,   - ojtaso (20070917)
; 125  : 	CVertScaleDrawer::DrawTextOrGrid(pDC, drawingVertScaleData.GetDisplayDataMinMax().GetDisplayMin(), 

  0023d	8b cf		 mov	 ecx, edi
  0023f	8b f0		 mov	 esi, eax
  00241	e8 00 00 00 00	 call	 ?GetStandardValue@CDrawingVertScaleData@@QBENXZ ; CDrawingVertScaleData::GetStandardValue
  00246	83 ec 08	 sub	 esp, 8
  00249	8d 45 c0	 lea	 eax, DWORD PTR _strFormatTrans$[ebp]
  0024c	8b cf		 mov	 ecx, edi
  0024e	dd 1c 24	 fstp	 QWORD PTR [esp]
  00251	6a 01		 push	 1
  00253	50		 push	 eax
  00254	ff 75 bc	 push	 DWORD PTR _dataType$GSCopy$1$[ebp]
  00257	8d 45 d0	 lea	 eax, DWORD PTR _scaleTextRegion_right$[ebp]
  0025a	50		 push	 eax
  0025b	8d 45 e0	 lea	 eax, DWORD PTR _scaleTextRegion_left$[ebp]
  0025e	50		 push	 eax
  0025f	ff 75 b8	 push	 DWORD PTR _vertScale$GSCopy$1$[ebp]
  00262	8d 45 94	 lea	 eax, DWORD PTR _dGap$[ebp]
  00265	57		 push	 edi
  00266	ff 75 c8	 push	 DWORD PTR _bround$[ebp]
  00269	50		 push	 eax
  0026a	ff 75 b4	 push	 DWORD PTR _end$[ebp]
  0026d	8d 45 84	 lea	 eax, DWORD PTR $T3[ebp]
  00270	ff 75 b0	 push	 DWORD PTR _start$[ebp]
  00273	56		 push	 esi
  00274	50		 push	 eax
  00275	e8 00 00 00 00	 call	 ?GetDisplayDataMinMax@CDrawingVertScaleData@@QBE?AVCDisplayDataMinMax@@XZ ; CDrawingVertScaleData::GetDisplayDataMinMax
  0027a	8b c8		 mov	 ecx, eax
  0027c	e8 00 00 00 00	 call	 ?GetDisplayMin@CDisplayDataMinMax@@QBENXZ ; CDisplayDataMinMax::GetDisplayMin
  00281	83 ec 08	 sub	 esp, 8
  00284	8b cb		 mov	 ecx, ebx
  00286	dd 1c 24	 fstp	 QWORD PTR [esp]
  00289	ff 75 c4	 push	 DWORD PTR _pDC$GSCopy$1$[ebp]
  0028c	e8 00 00 00 00	 call	 ?DrawTextOrGrid@CVertScaleDrawer@@IAEXPAVCDC@@NHHHABN_NABVCDrawingVertScaleData@@ABVCVerticalScale@@ABVCRect@@5ABV?$CStringT@DV?$StrTraitMFC_DLL@DV?$ChTraitsCRT@D@ATL@@@@@ATL@@62N@Z ; CVertScaleDrawer::DrawTextOrGrid

; 126  : 		typeRegionY, start, end, dGap, bround, drawingVertScaleData, vertScale, 
; 127  : 		scaleTextRegion_left, scaleTextRegion_right, dataType, strFormatTrans, true, drawingVertScaleData.GetStandardValue());
; 128  : }

  00291	8d 4d c0	 lea	 ecx, DWORD PTR _strFormatTrans$[ebp]
  00294	ff 15 00 00 00
	00		 call	 DWORD PTR __imp_??1?$CStringT@DV?$StrTraitMFC_DLL@DV?$ChTraitsCRT@D@ATL@@@@@ATL@@QAE@XZ
$LN18@DrawTextOr:
  0029a	8d 4d a4	 lea	 ecx, DWORD PTR _changeDataType$[ebp]
  0029d	ff 15 00 00 00
	00		 call	 DWORD PTR __imp_??1?$CStringT@DV?$StrTraitMFC_DLL@DV?$ChTraitsCRT@D@ATL@@@@@ATL@@QAE@XZ
$LN1@DrawTextOr:
  002a3	8b 4d f4	 mov	 ecx, DWORD PTR __$EHRec$[ebp]
  002a6	64 89 0d 00 00
	00 00		 mov	 DWORD PTR fs:0, ecx
  002ad	59		 pop	 ecx
  002ae	5f		 pop	 edi
  002af	5e		 pop	 esi
  002b0	5b		 pop	 ebx
  002b1	8b 4d f0	 mov	 ecx, DWORD PTR __$ArrayPad$[ebp]
  002b4	33 cd		 xor	 ecx, ebp
  002b6	e8 00 00 00 00	 call	 @__security_check_cookie@4
  002bb	8b e5		 mov	 esp, ebp
  002bd	5d		 pop	 ebp
  002be	c2 14 00	 ret	 20			; 00000014H
_TEXT	ENDS
;	COMDAT text$x
text$x	SEGMENT
__unwindfunclet$?DrawTextOrGrid_Both@CPriceScaleDrawer@@IAEXPAVCDC@@ABVCDrawingVertScaleData@@ABVCVertScaleRegion@@ABVCVerticalScale@@ABV?$CStringT@DV?$StrTraitMFC_DLL@DV?$ChTraitsCRT@D@ATL@@@@@ATL@@@Z$0:
  00000	8d 4d a4	 lea	 ecx, DWORD PTR _changeDataType$[ebp]
  00003	ff 25 00 00 00
	00		 jmp	 DWORD PTR __imp_??1?$CStringT@DV?$StrTraitMFC_DLL@DV?$ChTraitsCRT@D@ATL@@@@@ATL@@QAE@XZ
__unwindfunclet$?DrawTextOrGrid_Both@CPriceScaleDrawer@@IAEXPAVCDC@@ABVCDrawingVertScaleData@@ABVCVertScaleRegion@@ABVCVerticalScale@@ABV?$CStringT@DV?$StrTraitMFC_DLL@DV?$ChTraitsCRT@D@ATL@@@@@ATL@@@Z$1:
  00009	8d 4d c0	 lea	 ecx, DWORD PTR _strFormatTrans$[ebp]
  0000c	ff 25 00 00 00
	00		 jmp	 DWORD PTR __imp_??1?$CStringT@DV?$StrTraitMFC_DLL@DV?$ChTraitsCRT@D@ATL@@@@@ATL@@QAE@XZ
__unwindfunclet$?DrawTextOrGrid_Both@CPriceScaleDrawer@@IAEXPAVCDC@@ABVCDrawingVertScaleData@@ABVCVertScaleRegion@@ABVCVerticalScale@@ABV?$CStringT@DV?$StrTraitMFC_DLL@DV?$ChTraitsCRT@D@ATL@@@@@ATL@@@Z$2:
  00012	8b 45 ac	 mov	 eax, DWORD PTR $T9[ebp]
  00015	83 e0 01	 and	 eax, 1
  00018	0f 84 0d 00 00
	00		 je	 $LN12@DrawTextOr
  0001e	83 65 ac fe	 and	 DWORD PTR $T9[ebp], -2	; fffffffeH
  00022	8d 4d 9c	 lea	 ecx, DWORD PTR $T8[ebp]
  00025	ff 25 00 00 00
	00		 jmp	 DWORD PTR __imp_??1?$CStringT@DV?$StrTraitMFC_DLL@DV?$ChTraitsCRT@D@ATL@@@@@ATL@@QAE@XZ
$LN12@DrawTextOr:
  0002b	c3		 ret	 0
__unwindfunclet$?DrawTextOrGrid_Both@CPriceScaleDrawer@@IAEXPAVCDC@@ABVCDrawingVertScaleData@@ABVCVertScaleRegion@@ABVCVerticalScale@@ABV?$CStringT@DV?$StrTraitMFC_DLL@DV?$ChTraitsCRT@D@ATL@@@@@ATL@@@Z$3:
  0002c	8b 45 ac	 mov	 eax, DWORD PTR $T9[ebp]
  0002f	83 e0 02	 and	 eax, 2
  00032	0f 84 0d 00 00
	00		 je	 $LN14@DrawTextOr
  00038	83 65 ac fd	 and	 DWORD PTR $T9[ebp], -3	; fffffffdH
  0003c	8d 4d cc	 lea	 ecx, DWORD PTR $T10[ebp]
  0003f	ff 25 00 00 00
	00		 jmp	 DWORD PTR __imp_??1?$CStringT@DV?$StrTraitMFC_DLL@DV?$ChTraitsCRT@D@ATL@@@@@ATL@@QAE@XZ
$LN14@DrawTextOr:
  00045	c3		 ret	 0
  00046	cc		 int	 3
  00047	cc		 int	 3
  00048	cc		 int	 3
  00049	cc		 int	 3
  0004a	cc		 int	 3
__ehhandler$?DrawTextOrGrid_Both@CPriceScaleDrawer@@IAEXPAVCDC@@ABVCDrawingVertScaleData@@ABVCVertScaleRegion@@ABVCVerticalScale@@ABV?$CStringT@DV?$StrTraitMFC_DLL@DV?$ChTraitsCRT@D@ATL@@@@@ATL@@@Z:
  0004b	90		 npad	 1
  0004c	90		 npad	 1
  0004d	8b 54 24 08	 mov	 edx, DWORD PTR [esp+8]
  00051	8d 42 0c	 lea	 eax, DWORD PTR [edx+12]
  00054	8b 8a 70 ff ff
	ff		 mov	 ecx, DWORD PTR [edx-144]
  0005a	33 c8		 xor	 ecx, eax
  0005c	e8 00 00 00 00	 call	 @__security_check_cookie@4
  00061	8b 4a fc	 mov	 ecx, DWORD PTR [edx-4]
  00064	33 c8		 xor	 ecx, eax
  00066	e8 00 00 00 00	 call	 @__security_check_cookie@4
  0006b	b8 00 00 00 00	 mov	 eax, OFFSET __ehfuncinfo$?DrawTextOrGrid_Both@CPriceScaleDrawer@@IAEXPAVCDC@@ABVCDrawingVertScaleData@@ABVCVertScaleRegion@@ABVCVerticalScale@@ABV?$CStringT@DV?$StrTraitMFC_DLL@DV?$ChTraitsCRT@D@ATL@@@@@ATL@@@Z
  00070	e9 00 00 00 00	 jmp	 ___CxxFrameHandler3
text$x	ENDS
?DrawTextOrGrid_Both@CPriceScaleDrawer@@IAEXPAVCDC@@ABVCDrawingVertScaleData@@ABVCVertScaleRegion@@ABVCVerticalScale@@ABV?$CStringT@DV?$StrTraitMFC_DLL@DV?$ChTraitsCRT@D@ATL@@@@@ATL@@@Z ENDP ; CPriceScaleDrawer::DrawTextOrGrid_Both
; Function compile flags: /Ogtp
; File D:\git\src\IBK\IBK_DRFN\ProjSrc\SrcChartEx\ChartOCX\ScaleDraw\PriceScaleDrawer.cpp
; File C:\Program Files (x86)\Microsoft Visual Studio\2019\Community\VC\Tools\MSVC\14.29.30133\atlmfc\include\atltypes.h
; File D:\git\src\IBK\IBK_DRFN\ProjSrc\SrcChartEx\ChartOCX\ScaleDraw\PriceScaleDrawer.cpp
; File C:\Program Files (x86)\Microsoft Visual Studio\2019\Community\VC\Tools\MSVC\14.29.30133\atlmfc\include\atltypes.h
; File D:\git\src\IBK\IBK_DRFN\ProjSrc\SrcChartEx\ChartOCX\ScaleDraw\PriceScaleDrawer.cpp
;	COMDAT ?DrawTextOrGrid@CPriceScaleDrawer@@IAEXPAVCDC@@ABVCDrawingVertScaleData@@ABVCScaleDrawingRegion@@ABVCVerticalScale@@ABV?$CStringT@DV?$StrTraitMFC_DLL@DV?$ChTraitsCRT@D@ATL@@@@@ATL@@@Z
_TEXT	SEGMENT
$T2 = -156						; size = 16
_dGap$ = -140						; size = 8
$T3 = -132						; size = 4
_pPacket$1$ = -128					; size = 4
_this$GSCopy$1$ = -124					; size = 4
$T4 = -120						; size = 4
_totalCount$1$ = -116					; size = 4
$T5 = -116						; size = 4
_start$ = -112						; size = 4
_end$ = -108						; size = 4
_vertScale$GSCopy$1$ = -104				; size = 4
_strFormatTrans$ = -100					; size = 4
_pDC$GSCopy$1$ = -96					; size = 4
_bround$ = -92						; size = 1
_scaleRegion$GSCopy$1$ = -88				; size = 4
_dataType$GSCopy$1$ = -84				; size = 4
$T6 = -80						; size = 16
$T7 = -64						; size = 16
$T8 = -64						; size = 16
$T9 = -48						; size = 16
$T10 = -44						; size = 12
$T11 = -32						; size = 16
$T12 = -32						; size = 16
$T13 = -32						; size = 16
$T14 = -32						; size = 16
__$ArrayPad$ = -16					; size = 4
__$EHRec$ = -12						; size = 12
_pDC$ = 8						; size = 4
_drawingVertScaleData$ = 12				; size = 4
_scaleRegion$ = 16					; size = 4
_vertScale$ = 20					; size = 4
_dataType$ = 24						; size = 4
?DrawTextOrGrid@CPriceScaleDrawer@@IAEXPAVCDC@@ABVCDrawingVertScaleData@@ABVCScaleDrawingRegion@@ABVCVerticalScale@@ABV?$CStringT@DV?$StrTraitMFC_DLL@DV?$ChTraitsCRT@D@ATL@@@@@ATL@@@Z PROC ; CPriceScaleDrawer::DrawTextOrGrid, COMDAT
; _this$ = ecx

; 38   : {

  00000	55		 push	 ebp
  00001	8b ec		 mov	 ebp, esp
  00003	6a ff		 push	 -1
  00005	68 00 00 00 00	 push	 __ehhandler$?DrawTextOrGrid@CPriceScaleDrawer@@IAEXPAVCDC@@ABVCDrawingVertScaleData@@ABVCScaleDrawingRegion@@ABVCVerticalScale@@ABV?$CStringT@DV?$StrTraitMFC_DLL@DV?$ChTraitsCRT@D@ATL@@@@@ATL@@@Z
  0000a	64 a1 00 00 00
	00		 mov	 eax, DWORD PTR fs:0
  00010	50		 push	 eax
  00011	81 ec 90 00 00
	00		 sub	 esp, 144		; 00000090H
  00017	a1 00 00 00 00	 mov	 eax, DWORD PTR ___security_cookie
  0001c	33 c5		 xor	 eax, ebp
  0001e	89 45 f0	 mov	 DWORD PTR __$ArrayPad$[ebp], eax
  00021	53		 push	 ebx
  00022	56		 push	 esi
  00023	57		 push	 edi
  00024	50		 push	 eax
  00025	8d 45 f4	 lea	 eax, DWORD PTR __$EHRec$[ebp]
  00028	64 a3 00 00 00
	00		 mov	 DWORD PTR fs:0, eax
  0002e	8b f1		 mov	 esi, ecx
  00030	89 75 84	 mov	 DWORD PTR _this$GSCopy$1$[ebp], esi
  00033	8b 45 08	 mov	 eax, DWORD PTR _pDC$[ebp]
  00036	8b 7d 0c	 mov	 edi, DWORD PTR _drawingVertScaleData$[ebp]

; 39   : 	// 0.  Data Packet .
; 40   : 	CPacket *pPacket = drawingVertScaleData.GetPacket();

  00039	8b cf		 mov	 ecx, edi
  0003b	89 45 a0	 mov	 DWORD PTR _pDC$GSCopy$1$[ebp], eax
  0003e	8b 45 10	 mov	 eax, DWORD PTR _scaleRegion$[ebp]
  00041	89 45 a8	 mov	 DWORD PTR _scaleRegion$GSCopy$1$[ebp], eax
  00044	8b 45 14	 mov	 eax, DWORD PTR _vertScale$[ebp]
  00047	89 45 98	 mov	 DWORD PTR _vertScale$GSCopy$1$[ebp], eax
  0004a	8b 45 18	 mov	 eax, DWORD PTR _dataType$[ebp]
  0004d	89 45 ac	 mov	 DWORD PTR _dataType$GSCopy$1$[ebp], eax
  00050	c7 45 88 00 00
	00 00		 mov	 DWORD PTR $T4[ebp], 0
  00057	e8 00 00 00 00	 call	 ?GetPacket@CDrawingVertScaleData@@QBEPAVCPacket@@XZ ; CDrawingVertScaleData::GetPacket
  0005c	8b d8		 mov	 ebx, eax
  0005e	89 5d 80	 mov	 DWORD PTR _pPacket$1$[ebp], ebx

; 41   : 	if( !pPacket) return;

  00061	85 db		 test	 ebx, ebx
  00063	0f 84 16 02 00
	00		 je	 $LN1@DrawTextOr

; 44   : 	int totalCount = CVertScaleDrawer::GetCount( pDC, ( scaleRegion.GetScaleTextRegion()).Height()) +1;

  00069	8b 4d a8	 mov	 ecx, DWORD PTR _scaleRegion$GSCopy$1$[ebp]
  0006c	8d 45 e0	 lea	 eax, DWORD PTR $T14[ebp]
  0006f	50		 push	 eax
  00070	e8 00 00 00 00	 call	 ?GetScaleTextRegion@CScaleDrawingRegion@@QBE?AVCRect@@XZ ; CScaleDrawingRegion::GetScaleTextRegion
; File C:\Program Files (x86)\Microsoft Visual Studio\2019\Community\VC\Tools\MSVC\14.29.30133\atlmfc\include\atltypes.h

; 581  : 	return bottom - top;

  00075	8b 48 0c	 mov	 ecx, DWORD PTR [eax+12]
  00078	2b 48 04	 sub	 ecx, DWORD PTR [eax+4]
; File D:\git\src\IBK\IBK_DRFN\ProjSrc\SrcChartEx\ChartOCX\ScaleDraw\PriceScaleDrawer.cpp

; 44   : 	int totalCount = CVertScaleDrawer::GetCount( pDC, ( scaleRegion.GetScaleTextRegion()).Height()) +1;

  0007b	51		 push	 ecx
  0007c	ff 75 a0	 push	 DWORD PTR _pDC$GSCopy$1$[ebp]
  0007f	8b ce		 mov	 ecx, esi
  00081	e8 00 00 00 00	 call	 ?GetCount@CVertScaleDrawer@@IBEHPAVCDC@@H@Z ; CVertScaleDrawer::GetCount
  00086	40		 inc	 eax
  00087	89 45 8c	 mov	 DWORD PTR _totalCount$1$[ebp], eax

; 45   : 	if( totalCount <= 0) return;

  0008a	85 c0		 test	 eax, eax
  0008c	0f 8e ed 01 00
	00		 jle	 $LN1@DrawTextOr

; 46   : 
; 47   : 	int start = 0, end = 0;	// Scale   

  00092	0f 57 c0	 xorps	 xmm0, xmm0
  00095	c7 45 90 00 00
	00 00		 mov	 DWORD PTR _start$[ebp], 0

; 48   : 	double dGap = 0.0;		// Scale  
; 49   : 	bool bround = false;	//  Scale     (?)
; 50   : 	if( !GetPriceDrawingEnvironment( drawingVertScaleData.GetDisplayDataMinMax(), dataType, totalCount,

  0009c	6a 00		 push	 0
  0009e	8b cf		 mov	 ecx, edi
  000a0	c7 45 94 00 00
	00 00		 mov	 DWORD PTR _end$[ebp], 0
  000a7	f2 0f 11 85 74
	ff ff ff	 movsd	 QWORD PTR _dGap$[ebp], xmm0
  000af	c6 45 a4 00	 mov	 BYTE PTR _bround$[ebp], 0
  000b3	e8 00 00 00 00	 call	 ?GetHogaUnit@CDrawingVertScaleData@@QBENH@Z ; CDrawingVertScaleData::GetHogaUnit
  000b8	83 ec 08	 sub	 esp, 8
  000bb	8d 45 a4	 lea	 eax, DWORD PTR _bround$[ebp]
  000be	8b cf		 mov	 ecx, edi
  000c0	dd 1c 24	 fstp	 QWORD PTR [esp]
  000c3	ff 75 98	 push	 DWORD PTR _vertScale$GSCopy$1$[ebp]
  000c6	50		 push	 eax
  000c7	8d 45 94	 lea	 eax, DWORD PTR _end$[ebp]
  000ca	50		 push	 eax
  000cb	8d 45 90	 lea	 eax, DWORD PTR _start$[ebp]
  000ce	50		 push	 eax
  000cf	8d 85 74 ff ff
	ff		 lea	 eax, DWORD PTR _dGap$[ebp]
  000d5	50		 push	 eax
  000d6	ff 75 8c	 push	 DWORD PTR _totalCount$1$[ebp]
  000d9	8d 45 e0	 lea	 eax, DWORD PTR $T13[ebp]
  000dc	ff 75 ac	 push	 DWORD PTR _dataType$GSCopy$1$[ebp]
  000df	50		 push	 eax
  000e0	e8 00 00 00 00	 call	 ?GetDisplayDataMinMax@CDrawingVertScaleData@@QBE?AVCDisplayDataMinMax@@XZ ; CDrawingVertScaleData::GetDisplayDataMinMax
  000e5	50		 push	 eax
  000e6	8b ce		 mov	 ecx, esi
  000e8	e8 00 00 00 00	 call	 ?GetPriceDrawingEnvironment@CPriceScaleDrawer@@IAE_NABVCDisplayDataMinMax@@ABV?$CStringT@DV?$StrTraitMFC_DLL@DV?$ChTraitsCRT@D@ATL@@@@@ATL@@HAANAAH3AA_NABVCVerticalScale@@N@Z ; CPriceScaleDrawer::GetPriceDrawingEnvironment
  000ed	84 c0		 test	 al, al
  000ef	75 41		 jne	 SHORT $LN5@DrawTextOr

; 51   : 			dGap, start, end, bround, vertScale, drawingVertScaleData.GetHogaUnit()))
; 52   : 	{
; 53   : 		if(!CVertScaleDrawer::GetDrawingEnvironment( pDC, scaleRegion.GetScaleTextRegion(), 

  000f1	8d 45 a4	 lea	 eax, DWORD PTR _bround$[ebp]
  000f4	8b cf		 mov	 ecx, edi
  000f6	50		 push	 eax
  000f7	8d 85 74 ff ff
	ff		 lea	 eax, DWORD PTR _dGap$[ebp]
  000fd	50		 push	 eax
  000fe	8d 45 94	 lea	 eax, DWORD PTR _end$[ebp]
  00101	50		 push	 eax
  00102	8d 45 90	 lea	 eax, DWORD PTR _start$[ebp]
  00105	50		 push	 eax
  00106	ff 75 ac	 push	 DWORD PTR _dataType$GSCopy$1$[ebp]
  00109	8d 45 e0	 lea	 eax, DWORD PTR $T12[ebp]
  0010c	50		 push	 eax
  0010d	e8 00 00 00 00	 call	 ?GetDisplayDataMinMax@CDrawingVertScaleData@@QBE?AVCDisplayDataMinMax@@XZ ; CDrawingVertScaleData::GetDisplayDataMinMax
  00112	8b 4d a8	 mov	 ecx, DWORD PTR _scaleRegion$GSCopy$1$[ebp]
  00115	50		 push	 eax
  00116	8d 45 c0	 lea	 eax, DWORD PTR $T8[ebp]
  00119	50		 push	 eax
  0011a	e8 00 00 00 00	 call	 ?GetScaleTextRegion@CScaleDrawingRegion@@QBE?AVCRect@@XZ ; CScaleDrawingRegion::GetScaleTextRegion
  0011f	50		 push	 eax
  00120	ff 75 a0	 push	 DWORD PTR _pDC$GSCopy$1$[ebp]
  00123	8b ce		 mov	 ecx, esi
  00125	e8 00 00 00 00	 call	 ?GetDrawingEnvironment@CVertScaleDrawer@@IAE_NPAVCDC@@ABVCRect@@ABVCDisplayDataMinMax@@ABV?$CStringT@DV?$StrTraitMFC_DLL@DV?$ChTraitsCRT@D@ATL@@@@@ATL@@AAH4AANAA_N@Z ; CVertScaleDrawer::GetDrawingEnvironment
  0012a	84 c0		 test	 al, al
  0012c	0f 84 4d 01 00
	00		 je	 $LN1@DrawTextOr
$LN5@DrawTextOr:

; 54   : 			drawingVertScaleData.GetDisplayDataMinMax(), dataType, start, end, dGap, bround))
; 55   : 		return;
; 56   : 	}
; 57   : 	//}}
; 58   : 
; 59   : 	//     -     12.24.2001
; 60   : 	BOOL bAutoScaleType = pPacket->IsAutoScaleType();

  00132	8b cb		 mov	 ecx, ebx
  00134	ff 15 00 00 00
	00		 call	 DWORD PTR __imp_?IsAutoScaleType@CPacket@@QAEHXZ
  0013a	8b f0		 mov	 esi, eax

; 61   : 	CString strFormatTrans = CVertScaleDrawer::GetFormatTrans(drawingVertScaleData.GetDisplayDataMinMax(), dataType, bAutoScaleType);

  0013c	8b cf		 mov	 ecx, edi
  0013e	56		 push	 esi
  0013f	ff 75 ac	 push	 DWORD PTR _dataType$GSCopy$1$[ebp]
  00142	8d 45 c0	 lea	 eax, DWORD PTR $T7[ebp]
  00145	50		 push	 eax
  00146	e8 00 00 00 00	 call	 ?GetDisplayDataMinMax@CDrawingVertScaleData@@QBE?AVCDisplayDataMinMax@@XZ ; CDrawingVertScaleData::GetDisplayDataMinMax
  0014b	8b 4d 84	 mov	 ecx, DWORD PTR _this$GSCopy$1$[ebp]
  0014e	50		 push	 eax
  0014f	8d 45 9c	 lea	 eax, DWORD PTR _strFormatTrans$[ebp]
  00152	50		 push	 eax
  00153	e8 00 00 00 00	 call	 ?GetFormatTrans@CVertScaleDrawer@@IAE?AV?$CStringT@DV?$StrTraitMFC_DLL@DV?$ChTraitsCRT@D@ATL@@@@@ATL@@ABVCDisplayDataMinMax@@ABV23@H@Z ; CVertScaleDrawer::GetFormatTrans
  00158	c7 45 fc 00 00
	00 00		 mov	 DWORD PTR __$EHRec$[ebp+8], 0

; 62   : 	pPacket->SetScaleType( bAutoScaleType ? strFormatTrans : pPacket->GetType());

  0015f	85 f6		 test	 esi, esi
  00161	74 1b		 je	 SHORT $LN7@DrawTextOr
  00163	8d 45 9c	 lea	 eax, DWORD PTR _strFormatTrans$[ebp]
  00166	50		 push	 eax
  00167	8d 8d 7c ff ff
	ff		 lea	 ecx, DWORD PTR $T3[ebp]
  0016d	ff 15 00 00 00
	00		 call	 DWORD PTR __imp_??0?$CStringT@DV?$StrTraitMFC_DLL@DV?$ChTraitsCRT@D@ATL@@@@@ATL@@QAE@ABV01@@Z
  00173	c6 45 fc 01	 mov	 BYTE PTR __$EHRec$[ebp+8], 1
  00177	bb 01 00 00 00	 mov	 ebx, 1
  0017c	eb 1a		 jmp	 SHORT $LN32@DrawTextOr
$LN7@DrawTextOr:
  0017e	6a 01		 push	 1
  00180	8d 45 8c	 lea	 eax, DWORD PTR $T5[ebp]
  00183	8b cb		 mov	 ecx, ebx
  00185	50		 push	 eax
  00186	ff 15 00 00 00
	00		 call	 DWORD PTR __imp_?GetType@CPacket@@QAE?AV?$CStringT@DV?$StrTraitMFC_DLL@DV?$ChTraitsCRT@D@ATL@@@@@ATL@@_N@Z
  0018c	c7 45 fc 02 00
	00 00		 mov	 DWORD PTR __$EHRec$[ebp+8], 2
  00193	bb 02 00 00 00	 mov	 ebx, 2
$LN32@DrawTextOr:
  00198	8b 4d 80	 mov	 ecx, DWORD PTR _pPacket$1$[ebp]
  0019b	50		 push	 eax
  0019c	89 5d 88	 mov	 DWORD PTR $T4[ebp], ebx
  0019f	ff 15 00 00 00
	00		 call	 DWORD PTR __imp_?SetScaleType@CPacket@@QAEXABV?$CStringT@DV?$StrTraitMFC_DLL@DV?$ChTraitsCRT@D@ATL@@@@@ATL@@@Z
  001a5	f6 c3 02	 test	 bl, 2
  001a8	74 0c		 je	 SHORT $LN14@DrawTextOr
  001aa	8d 4d 8c	 lea	 ecx, DWORD PTR $T5[ebp]
  001ad	83 e3 fd	 and	 ebx, -3			; fffffffdH
  001b0	ff 15 00 00 00
	00		 call	 DWORD PTR __imp_??1?$CStringT@DV?$StrTraitMFC_DLL@DV?$ChTraitsCRT@D@ATL@@@@@ATL@@QAE@XZ
$LN14@DrawTextOr:
  001b6	c7 45 fc 00 00
	00 00		 mov	 DWORD PTR __$EHRec$[ebp+8], 0
  001bd	f6 c3 01	 test	 bl, 1
  001c0	74 0c		 je	 SHORT $LN15@DrawTextOr
  001c2	8d 8d 7c ff ff
	ff		 lea	 ecx, DWORD PTR $T3[ebp]
  001c8	ff 15 00 00 00
	00		 call	 DWORD PTR __imp_??1?$CStringT@DV?$StrTraitMFC_DLL@DV?$ChTraitsCRT@D@ATL@@@@@ATL@@QAE@XZ
$LN15@DrawTextOr:

; 63   : 
; 64   : 	// type 
; 65   : 	int typeRegionY = CVertScaleDrawer::DrawType(pDC, scaleRegion.GetScaleTextRegion(),	strFormatTrans, 

  001ce	8d 45 d4	 lea	 eax, DWORD PTR $T10[ebp]
  001d1	8b cf		 mov	 ecx, edi
  001d3	50		 push	 eax
  001d4	e8 00 00 00 00	 call	 ?GetScaleColor@CDrawingVertScaleData@@QBE?AVCScaleColor@@XZ ; CDrawingVertScaleData::GetScaleColor
  001d9	8b c8		 mov	 ecx, eax
  001db	ff 15 00 00 00
	00		 call	 DWORD PTR __imp_?GetScaleTextColor@CScaleColor@@QAEAAKXZ
  001e1	8b 4d 98	 mov	 ecx, DWORD PTR _vertScale$GSCopy$1$[ebp]
  001e4	ff 30		 push	 DWORD PTR [eax]
  001e6	e8 00 00 00 00	 call	 ?GetVertScaleUnitType@CVerticalScale@@QBE?AW4VERTSCALEUNITTYPE@CScaleBaseData@@XZ ; CVerticalScale::GetVertScaleUnitType
  001eb	8b 4d a8	 mov	 ecx, DWORD PTR _scaleRegion$GSCopy$1$[ebp]
  001ee	50		 push	 eax
  001ef	ff 75 a4	 push	 DWORD PTR _bround$[ebp]
  001f2	8d 45 9c	 lea	 eax, DWORD PTR _strFormatTrans$[ebp]
  001f5	50		 push	 eax
  001f6	8d 45 e0	 lea	 eax, DWORD PTR $T11[ebp]
  001f9	50		 push	 eax
  001fa	e8 00 00 00 00	 call	 ?GetScaleTextRegion@CScaleDrawingRegion@@QBE?AVCRect@@XZ ; CScaleDrawingRegion::GetScaleTextRegion
  001ff	8b 4d 84	 mov	 ecx, DWORD PTR _this$GSCopy$1$[ebp]
  00202	50		 push	 eax
  00203	ff 75 a0	 push	 DWORD PTR _pDC$GSCopy$1$[ebp]
  00206	e8 00 00 00 00	 call	 ?DrawType@CVertScaleDrawer@@IAEHPAVCDC@@ABVCRect@@ABV?$CStringT@DV?$StrTraitMFC_DLL@DV?$ChTraitsCRT@D@ATL@@@@@ATL@@_NW4VERTSCALEUNITTYPE@CScaleBaseData@@K@Z ; CVertScaleDrawer::DrawType
  0020b	0f 57 c0	 xorps	 xmm0, xmm0

; 70   : 	CVertScaleDrawer::DrawTextOrGrid(pDC, drawingVertScaleData.GetDisplayDataMinMax().GetDisplayMin(), 

  0020e	8b cf		 mov	 ecx, edi
  00210	8b f0		 mov	 esi, eax
; File C:\Program Files (x86)\Microsoft Visual Studio\2019\Community\VC\Tools\MSVC\14.29.30133\atlmfc\include\atltypes.h

; 540  : 	left = l;

  00212	0f 11 45 d0	 movups	 XMMWORD PTR $T9[ebp], xmm0
; File D:\git\src\IBK\IBK_DRFN\ProjSrc\SrcChartEx\ChartOCX\ScaleDraw\PriceScaleDrawer.cpp

; 70   : 	CVertScaleDrawer::DrawTextOrGrid(pDC, drawingVertScaleData.GetDisplayDataMinMax().GetDisplayMin(), 

  00216	e8 00 00 00 00	 call	 ?GetStandardValue@CDrawingVertScaleData@@QBENXZ ; CDrawingVertScaleData::GetStandardValue
  0021b	8b 4d a8	 mov	 ecx, DWORD PTR _scaleRegion$GSCopy$1$[ebp]
  0021e	8d 45 9c	 lea	 eax, DWORD PTR _strFormatTrans$[ebp]
  00221	83 ec 08	 sub	 esp, 8
  00224	dd 1c 24	 fstp	 QWORD PTR [esp]
  00227	6a 01		 push	 1
  00229	50		 push	 eax
  0022a	ff 75 ac	 push	 DWORD PTR _dataType$GSCopy$1$[ebp]
  0022d	8d 45 d0	 lea	 eax, DWORD PTR $T9[ebp]
  00230	50		 push	 eax
  00231	8d 45 b0	 lea	 eax, DWORD PTR $T6[ebp]
  00234	50		 push	 eax
  00235	e8 00 00 00 00	 call	 ?GetScaleTextRegion@CScaleDrawingRegion@@QBE?AVCRect@@XZ ; CScaleDrawingRegion::GetScaleTextRegion
  0023a	50		 push	 eax
  0023b	ff 75 98	 push	 DWORD PTR _vertScale$GSCopy$1$[ebp]
  0023e	8d 85 74 ff ff
	ff		 lea	 eax, DWORD PTR _dGap$[ebp]
  00244	8b cf		 mov	 ecx, edi
  00246	57		 push	 edi
  00247	ff 75 a4	 push	 DWORD PTR _bround$[ebp]
  0024a	50		 push	 eax
  0024b	ff 75 94	 push	 DWORD PTR _end$[ebp]
  0024e	8d 85 64 ff ff
	ff		 lea	 eax, DWORD PTR $T2[ebp]
  00254	ff 75 90	 push	 DWORD PTR _start$[ebp]
  00257	56		 push	 esi
  00258	50		 push	 eax
  00259	e8 00 00 00 00	 call	 ?GetDisplayDataMinMax@CDrawingVertScaleData@@QBE?AVCDisplayDataMinMax@@XZ ; CDrawingVertScaleData::GetDisplayDataMinMax
  0025e	8b c8		 mov	 ecx, eax
  00260	e8 00 00 00 00	 call	 ?GetDisplayMin@CDisplayDataMinMax@@QBENXZ ; CDisplayDataMinMax::GetDisplayMin
  00265	8b 4d 84	 mov	 ecx, DWORD PTR _this$GSCopy$1$[ebp]
  00268	83 ec 08	 sub	 esp, 8
  0026b	dd 1c 24	 fstp	 QWORD PTR [esp]
  0026e	ff 75 a0	 push	 DWORD PTR _pDC$GSCopy$1$[ebp]
  00271	e8 00 00 00 00	 call	 ?DrawTextOrGrid@CVertScaleDrawer@@IAEXPAVCDC@@NHHHABN_NABVCDrawingVertScaleData@@ABVCVerticalScale@@ABVCRect@@5ABV?$CStringT@DV?$StrTraitMFC_DLL@DV?$ChTraitsCRT@D@ATL@@@@@ATL@@62N@Z ; CVertScaleDrawer::DrawTextOrGrid

; 71   : 		typeRegionY, start, end, dGap, bround, drawingVertScaleData, vertScale,
; 72   : 		scaleRegion.GetScaleTextRegion(), CRect(0, 0, 0, 0), dataType, strFormatTrans, true, drawingVertScaleData.GetStandardValue());
; 73   : }

  00276	8d 4d 9c	 lea	 ecx, DWORD PTR _strFormatTrans$[ebp]
  00279	ff 15 00 00 00
	00		 call	 DWORD PTR __imp_??1?$CStringT@DV?$StrTraitMFC_DLL@DV?$ChTraitsCRT@D@ATL@@@@@ATL@@QAE@XZ
$LN1@DrawTextOr:
  0027f	8b 4d f4	 mov	 ecx, DWORD PTR __$EHRec$[ebp]
  00282	64 89 0d 00 00
	00 00		 mov	 DWORD PTR fs:0, ecx
  00289	59		 pop	 ecx
  0028a	5f		 pop	 edi
  0028b	5e		 pop	 esi
  0028c	5b		 pop	 ebx
  0028d	8b 4d f0	 mov	 ecx, DWORD PTR __$ArrayPad$[ebp]
  00290	33 cd		 xor	 ecx, ebp
  00292	e8 00 00 00 00	 call	 @__security_check_cookie@4
  00297	8b e5		 mov	 esp, ebp
  00299	5d		 pop	 ebp
  0029a	c2 14 00	 ret	 20			; 00000014H
_TEXT	ENDS
;	COMDAT text$x
text$x	SEGMENT
__unwindfunclet$?DrawTextOrGrid@CPriceScaleDrawer@@IAEXPAVCDC@@ABVCDrawingVertScaleData@@ABVCScaleDrawingRegion@@ABVCVerticalScale@@ABV?$CStringT@DV?$StrTraitMFC_DLL@DV?$ChTraitsCRT@D@ATL@@@@@ATL@@@Z$0:
  00000	8d 4d 9c	 lea	 ecx, DWORD PTR _strFormatTrans$[ebp]
  00003	ff 25 00 00 00
	00		 jmp	 DWORD PTR __imp_??1?$CStringT@DV?$StrTraitMFC_DLL@DV?$ChTraitsCRT@D@ATL@@@@@ATL@@QAE@XZ
__unwindfunclet$?DrawTextOrGrid@CPriceScaleDrawer@@IAEXPAVCDC@@ABVCDrawingVertScaleData@@ABVCScaleDrawingRegion@@ABVCVerticalScale@@ABV?$CStringT@DV?$StrTraitMFC_DLL@DV?$ChTraitsCRT@D@ATL@@@@@ATL@@@Z$1:
  00009	8b 45 88	 mov	 eax, DWORD PTR $T4[ebp]
  0000c	83 e0 01	 and	 eax, 1
  0000f	0f 84 10 00 00
	00		 je	 $LN11@DrawTextOr
  00015	83 65 88 fe	 and	 DWORD PTR $T4[ebp], -2	; fffffffeH
  00019	8d 8d 7c ff ff
	ff		 lea	 ecx, DWORD PTR $T3[ebp]
  0001f	ff 25 00 00 00
	00		 jmp	 DWORD PTR __imp_??1?$CStringT@DV?$StrTraitMFC_DLL@DV?$ChTraitsCRT@D@ATL@@@@@ATL@@QAE@XZ
$LN11@DrawTextOr:
  00025	c3		 ret	 0
__unwindfunclet$?DrawTextOrGrid@CPriceScaleDrawer@@IAEXPAVCDC@@ABVCDrawingVertScaleData@@ABVCScaleDrawingRegion@@ABVCVerticalScale@@ABV?$CStringT@DV?$StrTraitMFC_DLL@DV?$ChTraitsCRT@D@ATL@@@@@ATL@@@Z$2:
  00026	8b 45 88	 mov	 eax, DWORD PTR $T4[ebp]
  00029	83 e0 02	 and	 eax, 2
  0002c	0f 84 0d 00 00
	00		 je	 $LN13@DrawTextOr
  00032	83 65 88 fd	 and	 DWORD PTR $T4[ebp], -3	; fffffffdH
  00036	8d 4d 8c	 lea	 ecx, DWORD PTR $T5[ebp]
  00039	ff 25 00 00 00
	00		 jmp	 DWORD PTR __imp_??1?$CStringT@DV?$StrTraitMFC_DLL@DV?$ChTraitsCRT@D@ATL@@@@@ATL@@QAE@XZ
$LN13@DrawTextOr:
  0003f	c3		 ret	 0
  00040	cc		 int	 3
  00041	cc		 int	 3
  00042	cc		 int	 3
  00043	cc		 int	 3
  00044	cc		 int	 3
__ehhandler$?DrawTextOrGrid@CPriceScaleDrawer@@IAEXPAVCDC@@ABVCDrawingVertScaleData@@ABVCScaleDrawingRegion@@ABVCVerticalScale@@ABV?$CStringT@DV?$StrTraitMFC_DLL@DV?$ChTraitsCRT@D@ATL@@@@@ATL@@@Z:
  00045	90		 npad	 1
  00046	90		 npad	 1
  00047	8b 54 24 08	 mov	 edx, DWORD PTR [esp+8]
  0004b	8d 42 0c	 lea	 eax, DWORD PTR [edx+12]
  0004e	8b 8a 60 ff ff
	ff		 mov	 ecx, DWORD PTR [edx-160]
  00054	33 c8		 xor	 ecx, eax
  00056	e8 00 00 00 00	 call	 @__security_check_cookie@4
  0005b	8b 4a fc	 mov	 ecx, DWORD PTR [edx-4]
  0005e	33 c8		 xor	 ecx, eax
  00060	e8 00 00 00 00	 call	 @__security_check_cookie@4
  00065	b8 00 00 00 00	 mov	 eax, OFFSET __ehfuncinfo$?DrawTextOrGrid@CPriceScaleDrawer@@IAEXPAVCDC@@ABVCDrawingVertScaleData@@ABVCScaleDrawingRegion@@ABVCVerticalScale@@ABV?$CStringT@DV?$StrTraitMFC_DLL@DV?$ChTraitsCRT@D@ATL@@@@@ATL@@@Z
  0006a	e9 00 00 00 00	 jmp	 ___CxxFrameHandler3
text$x	ENDS
?DrawTextOrGrid@CPriceScaleDrawer@@IAEXPAVCDC@@ABVCDrawingVertScaleData@@ABVCScaleDrawingRegion@@ABVCVerticalScale@@ABV?$CStringT@DV?$StrTraitMFC_DLL@DV?$ChTraitsCRT@D@ATL@@@@@ATL@@@Z ENDP ; CPriceScaleDrawer::DrawTextOrGrid
; Function compile flags: /Ogtp
; File D:\git\src\IBK\IBK_DRFN\ProjSrc\SrcChartEx\ChartOCX\ScaleDraw\PriceScaleDrawer.cpp
;	COMDAT ?DrawTextOrGrid_Both@CPriceScaleDrawer@@UAEXPAVCDC@@ABVCDrawingVertScaleData@@ABVCVertScaleRegion@@ABVCVerticalScale@@@Z
_TEXT	SEGMENT
$T2 = -16						; size = 4
__$EHRec$ = -12						; size = 12
_pDC$ = 8						; size = 4
_drawingVertScaleData$ = 12				; size = 4
_vertScaleRegion$ = 16					; size = 4
_vertScale$ = 20					; size = 4
?DrawTextOrGrid_Both@CPriceScaleDrawer@@UAEXPAVCDC@@ABVCDrawingVertScaleData@@ABVCVertScaleRegion@@ABVCVerticalScale@@@Z PROC ; CPriceScaleDrawer::DrawTextOrGrid_Both, COMDAT
; _this$ = ecx

; 31   : {

  00000	55		 push	 ebp
  00001	8b ec		 mov	 ebp, esp
  00003	6a ff		 push	 -1
  00005	68 00 00 00 00	 push	 __ehhandler$?DrawTextOrGrid_Both@CPriceScaleDrawer@@UAEXPAVCDC@@ABVCDrawingVertScaleData@@ABVCVertScaleRegion@@ABVCVerticalScale@@@Z
  0000a	64 a1 00 00 00
	00		 mov	 eax, DWORD PTR fs:0
  00010	50		 push	 eax
  00011	51		 push	 ecx
  00012	57		 push	 edi
  00013	a1 00 00 00 00	 mov	 eax, DWORD PTR ___security_cookie
  00018	33 c5		 xor	 eax, ebp
  0001a	50		 push	 eax
  0001b	8d 45 f4	 lea	 eax, DWORD PTR __$EHRec$[ebp]
  0001e	64 a3 00 00 00
	00		 mov	 DWORD PTR fs:0, eax
  00024	8b f9		 mov	 edi, ecx

; 32   : 	DrawTextOrGrid_Both(pDC, drawingVertScaleData, vertScaleRegion, vertScale, CDrawer::GetPacketDataType(drawingVertScaleData.GetPacket()));

  00026	8b 4d 0c	 mov	 ecx, DWORD PTR _drawingVertScaleData$[ebp]
  00029	e8 00 00 00 00	 call	 ?GetPacket@CDrawingVertScaleData@@QBEPAVCPacket@@XZ ; CDrawingVertScaleData::GetPacket
  0002e	50		 push	 eax
  0002f	8d 45 f0	 lea	 eax, DWORD PTR $T2[ebp]
  00032	50		 push	 eax
  00033	8d 4f 04	 lea	 ecx, DWORD PTR [edi+4]
  00036	e8 00 00 00 00	 call	 ?GetPacketDataType@CDrawer@@IBE?AV?$CStringT@DV?$StrTraitMFC_DLL@DV?$ChTraitsCRT@D@ATL@@@@@ATL@@PAVCPacket@@@Z ; CDrawer::GetPacketDataType
  0003b	50		 push	 eax
  0003c	ff 75 14	 push	 DWORD PTR _vertScale$[ebp]
  0003f	8b cf		 mov	 ecx, edi
  00041	c7 45 fc 00 00
	00 00		 mov	 DWORD PTR __$EHRec$[ebp+8], 0
  00048	ff 75 10	 push	 DWORD PTR _vertScaleRegion$[ebp]
  0004b	ff 75 0c	 push	 DWORD PTR _drawingVertScaleData$[ebp]
  0004e	ff 75 08	 push	 DWORD PTR _pDC$[ebp]
  00051	e8 00 00 00 00	 call	 ?DrawTextOrGrid_Both@CPriceScaleDrawer@@IAEXPAVCDC@@ABVCDrawingVertScaleData@@ABVCVertScaleRegion@@ABVCVerticalScale@@ABV?$CStringT@DV?$StrTraitMFC_DLL@DV?$ChTraitsCRT@D@ATL@@@@@ATL@@@Z ; CPriceScaleDrawer::DrawTextOrGrid_Both
  00056	8d 4d f0	 lea	 ecx, DWORD PTR $T2[ebp]
  00059	ff 15 00 00 00
	00		 call	 DWORD PTR __imp_??1?$CStringT@DV?$StrTraitMFC_DLL@DV?$ChTraitsCRT@D@ATL@@@@@ATL@@QAE@XZ

; 33   : }

  0005f	8b 4d f4	 mov	 ecx, DWORD PTR __$EHRec$[ebp]
  00062	64 89 0d 00 00
	00 00		 mov	 DWORD PTR fs:0, ecx
  00069	59		 pop	 ecx
  0006a	5f		 pop	 edi
  0006b	8b e5		 mov	 esp, ebp
  0006d	5d		 pop	 ebp
  0006e	c2 10 00	 ret	 16			; 00000010H
_TEXT	ENDS
;	COMDAT text$x
text$x	SEGMENT
__unwindfunclet$?DrawTextOrGrid_Both@CPriceScaleDrawer@@UAEXPAVCDC@@ABVCDrawingVertScaleData@@ABVCVertScaleRegion@@ABVCVerticalScale@@@Z$0:
  00000	8d 4d f0	 lea	 ecx, DWORD PTR $T2[ebp]
  00003	ff 25 00 00 00
	00		 jmp	 DWORD PTR __imp_??1?$CStringT@DV?$StrTraitMFC_DLL@DV?$ChTraitsCRT@D@ATL@@@@@ATL@@QAE@XZ
  00009	cc		 int	 3
  0000a	cc		 int	 3
  0000b	cc		 int	 3
  0000c	cc		 int	 3
  0000d	cc		 int	 3
__ehhandler$?DrawTextOrGrid_Both@CPriceScaleDrawer@@UAEXPAVCDC@@ABVCDrawingVertScaleData@@ABVCVertScaleRegion@@ABVCVerticalScale@@@Z:
  0000e	90		 npad	 1
  0000f	90		 npad	 1
  00010	8b 54 24 08	 mov	 edx, DWORD PTR [esp+8]
  00014	8d 42 0c	 lea	 eax, DWORD PTR [edx+12]
  00017	8b 4a f4	 mov	 ecx, DWORD PTR [edx-12]
  0001a	33 c8		 xor	 ecx, eax
  0001c	e8 00 00 00 00	 call	 @__security_check_cookie@4
  00021	b8 00 00 00 00	 mov	 eax, OFFSET __ehfuncinfo$?DrawTextOrGrid_Both@CPriceScaleDrawer@@UAEXPAVCDC@@ABVCDrawingVertScaleData@@ABVCVertScaleRegion@@ABVCVerticalScale@@@Z
  00026	e9 00 00 00 00	 jmp	 ___CxxFrameHandler3
text$x	ENDS
?DrawTextOrGrid_Both@CPriceScaleDrawer@@UAEXPAVCDC@@ABVCDrawingVertScaleData@@ABVCVertScaleRegion@@ABVCVerticalScale@@@Z ENDP ; CPriceScaleDrawer::DrawTextOrGrid_Both
; Function compile flags: /Ogtp
; File D:\git\src\IBK\IBK_DRFN\ProjSrc\SrcChartEx\ChartOCX\ScaleDraw\PriceScaleDrawer.cpp
;	COMDAT ?DrawTextOrGrid@CPriceScaleDrawer@@UAEXPAVCDC@@ABVCDrawingVertScaleData@@ABVCScaleDrawingRegion@@ABVCVerticalScale@@@Z
_TEXT	SEGMENT
$T2 = -16						; size = 4
__$EHRec$ = -12						; size = 12
_pDC$ = 8						; size = 4
_drawingVertScaleData$ = 12				; size = 4
_scaleRegion$ = 16					; size = 4
_vertScale$ = 20					; size = 4
?DrawTextOrGrid@CPriceScaleDrawer@@UAEXPAVCDC@@ABVCDrawingVertScaleData@@ABVCScaleDrawingRegion@@ABVCVerticalScale@@@Z PROC ; CPriceScaleDrawer::DrawTextOrGrid, COMDAT
; _this$ = ecx

; 25   : {

  00000	55		 push	 ebp
  00001	8b ec		 mov	 ebp, esp
  00003	6a ff		 push	 -1
  00005	68 00 00 00 00	 push	 __ehhandler$?DrawTextOrGrid@CPriceScaleDrawer@@UAEXPAVCDC@@ABVCDrawingVertScaleData@@ABVCScaleDrawingRegion@@ABVCVerticalScale@@@Z
  0000a	64 a1 00 00 00
	00		 mov	 eax, DWORD PTR fs:0
  00010	50		 push	 eax
  00011	51		 push	 ecx
  00012	57		 push	 edi
  00013	a1 00 00 00 00	 mov	 eax, DWORD PTR ___security_cookie
  00018	33 c5		 xor	 eax, ebp
  0001a	50		 push	 eax
  0001b	8d 45 f4	 lea	 eax, DWORD PTR __$EHRec$[ebp]
  0001e	64 a3 00 00 00
	00		 mov	 DWORD PTR fs:0, eax
  00024	8b f9		 mov	 edi, ecx

; 26   : 	DrawTextOrGrid(pDC, drawingVertScaleData, scaleRegion, vertScale, CDrawer::GetPacketDataType(drawingVertScaleData.GetPacket()));

  00026	8b 4d 0c	 mov	 ecx, DWORD PTR _drawingVertScaleData$[ebp]
  00029	e8 00 00 00 00	 call	 ?GetPacket@CDrawingVertScaleData@@QBEPAVCPacket@@XZ ; CDrawingVertScaleData::GetPacket
  0002e	50		 push	 eax
  0002f	8d 45 f0	 lea	 eax, DWORD PTR $T2[ebp]
  00032	50		 push	 eax
  00033	8d 4f 04	 lea	 ecx, DWORD PTR [edi+4]
  00036	e8 00 00 00 00	 call	 ?GetPacketDataType@CDrawer@@IBE?AV?$CStringT@DV?$StrTraitMFC_DLL@DV?$ChTraitsCRT@D@ATL@@@@@ATL@@PAVCPacket@@@Z ; CDrawer::GetPacketDataType
  0003b	50		 push	 eax
  0003c	ff 75 14	 push	 DWORD PTR _vertScale$[ebp]
  0003f	8b cf		 mov	 ecx, edi
  00041	c7 45 fc 00 00
	00 00		 mov	 DWORD PTR __$EHRec$[ebp+8], 0
  00048	ff 75 10	 push	 DWORD PTR _scaleRegion$[ebp]
  0004b	ff 75 0c	 push	 DWORD PTR _drawingVertScaleData$[ebp]
  0004e	ff 75 08	 push	 DWORD PTR _pDC$[ebp]
  00051	e8 00 00 00 00	 call	 ?DrawTextOrGrid@CPriceScaleDrawer@@IAEXPAVCDC@@ABVCDrawingVertScaleData@@ABVCScaleDrawingRegion@@ABVCVerticalScale@@ABV?$CStringT@DV?$StrTraitMFC_DLL@DV?$ChTraitsCRT@D@ATL@@@@@ATL@@@Z ; CPriceScaleDrawer::DrawTextOrGrid
  00056	8d 4d f0	 lea	 ecx, DWORD PTR $T2[ebp]
  00059	ff 15 00 00 00
	00		 call	 DWORD PTR __imp_??1?$CStringT@DV?$StrTraitMFC_DLL@DV?$ChTraitsCRT@D@ATL@@@@@ATL@@QAE@XZ

; 27   : }

  0005f	8b 4d f4	 mov	 ecx, DWORD PTR __$EHRec$[ebp]
  00062	64 89 0d 00 00
	00 00		 mov	 DWORD PTR fs:0, ecx
  00069	59		 pop	 ecx
  0006a	5f		 pop	 edi
  0006b	8b e5		 mov	 esp, ebp
  0006d	5d		 pop	 ebp
  0006e	c2 10 00	 ret	 16			; 00000010H
_TEXT	ENDS
;	COMDAT text$x
text$x	SEGMENT
__unwindfunclet$?DrawTextOrGrid@CPriceScaleDrawer@@UAEXPAVCDC@@ABVCDrawingVertScaleData@@ABVCScaleDrawingRegion@@ABVCVerticalScale@@@Z$0:
  00000	8d 4d f0	 lea	 ecx, DWORD PTR $T2[ebp]
  00003	ff 25 00 00 00
	00		 jmp	 DWORD PTR __imp_??1?$CStringT@DV?$StrTraitMFC_DLL@DV?$ChTraitsCRT@D@ATL@@@@@ATL@@QAE@XZ
  00009	cc		 int	 3
  0000a	cc		 int	 3
  0000b	cc		 int	 3
  0000c	cc		 int	 3
  0000d	cc		 int	 3
__ehhandler$?DrawTextOrGrid@CPriceScaleDrawer@@UAEXPAVCDC@@ABVCDrawingVertScaleData@@ABVCScaleDrawingRegion@@ABVCVerticalScale@@@Z:
  0000e	90		 npad	 1
  0000f	90		 npad	 1
  00010	8b 54 24 08	 mov	 edx, DWORD PTR [esp+8]
  00014	8d 42 0c	 lea	 eax, DWORD PTR [edx+12]
  00017	8b 4a f4	 mov	 ecx, DWORD PTR [edx-12]
  0001a	33 c8		 xor	 ecx, eax
  0001c	e8 00 00 00 00	 call	 @__security_check_cookie@4
  00021	b8 00 00 00 00	 mov	 eax, OFFSET __ehfuncinfo$?DrawTextOrGrid@CPriceScaleDrawer@@UAEXPAVCDC@@ABVCDrawingVertScaleData@@ABVCScaleDrawingRegion@@ABVCVerticalScale@@@Z
  00026	e9 00 00 00 00	 jmp	 ___CxxFrameHandler3
text$x	ENDS
?DrawTextOrGrid@CPriceScaleDrawer@@UAEXPAVCDC@@ABVCDrawingVertScaleData@@ABVCScaleDrawingRegion@@ABVCVerticalScale@@@Z ENDP ; CPriceScaleDrawer::DrawTextOrGrid
; Function compile flags: /Ogtp
; File D:\git\src\IBK\IBK_DRFN\ProjSrc\SrcChartEx\ChartOCX\ScaleDraw\PriceScaleDrawer.cpp
;	COMDAT ??0CPriceScaleDrawer@@QAE@PAUHWND__@@W4CHART_MODE@CChartInfo@@@Z
_TEXT	SEGMENT
_p_hOcxWnd$ = 8						; size = 4
_p_eChartMode$ = 12					; size = 4
??0CPriceScaleDrawer@@QAE@PAUHWND__@@W4CHART_MODE@CChartInfo@@@Z PROC ; CPriceScaleDrawer::CPriceScaleDrawer, COMDAT
; _this$ = ecx

; 20   : {

  00000	55		 push	 ebp
  00001	8b ec		 mov	 ebp, esp
  00003	56		 push	 esi
  00004	ff 75 0c	 push	 DWORD PTR _p_eChartMode$[ebp]
  00007	8b f1		 mov	 esi, ecx
  00009	ff 75 08	 push	 DWORD PTR _p_hOcxWnd$[ebp]
  0000c	e8 00 00 00 00	 call	 ??0CVertScaleDrawer@@QAE@PAUHWND__@@W4CHART_MODE@CChartInfo@@@Z ; CVertScaleDrawer::CVertScaleDrawer
  00011	c7 06 00 00 00
	00		 mov	 DWORD PTR [esi], OFFSET ??_7CPriceScaleDrawer@@6B@

; 21   : }

  00017	8b c6		 mov	 eax, esi
  00019	5e		 pop	 esi
  0001a	5d		 pop	 ebp
  0001b	c2 08 00	 ret	 8
??0CPriceScaleDrawer@@QAE@PAUHWND__@@W4CHART_MODE@CChartInfo@@@Z ENDP ; CPriceScaleDrawer::CPriceScaleDrawer
_TEXT	ENDS
; Function compile flags: /Ogtp
; File D:\git\src\IBK\IBK_DRFN\ProjSrc\SrcChartEx\ChartOCX\ScaleDraw\PriceScaleDrawer.cpp
;	COMDAT ?__empty_global_delete@@YAXPAXI@Z
_TEXT	SEGMENT
___formal$ = 8						; size = 4
___formal$ = 12						; size = 4
?__empty_global_delete@@YAXPAXI@Z PROC			; __empty_global_delete, COMDAT

  00000	c2 00 00	 ret	 0
?__empty_global_delete@@YAXPAXI@Z ENDP			; __empty_global_delete
_TEXT	ENDS
; Function compile flags: /Ogtp
; File D:\git\src\IBK\IBK_DRFN\ProjSrc\SrcChartEx\ChartOCX\ScaleDraw\PriceScaleDrawer.cpp
;	COMDAT ?__empty_global_delete@@YAXPAX@Z
_TEXT	SEGMENT
___formal$ = 8						; size = 4
?__empty_global_delete@@YAXPAX@Z PROC			; __empty_global_delete, COMDAT

  00000	c2 00 00	 ret	 0
?__empty_global_delete@@YAXPAX@Z ENDP			; __empty_global_delete
_TEXT	ENDS
END
