; Listing generated by Microsoft (R) Optimizing Compiler Version 19.29.30145.0 

	TITLE	D:\git\src\IBK\IBK_DRFN\#DRfn-CS\_Obj\ScaleDraw\ScaleBaseData.obj
	.686P
	.XMM
	include listing.inc
	.model	flat

INCLUDELIB MSVCRT
INCLUDELIB OLDNAMES

PUBLIC	?__empty_global_delete@@YAXPAX@Z		; __empty_global_delete
PUBLIC	?__empty_global_delete@@YAXPAXI@Z		; __empty_global_delete
PUBLIC	___local_stdio_printf_options
PUBLIC	_sprintf
PUBLIC	??4CScaleCompart@@QAEAAV0@ABV0@@Z		; CScaleCompart::operator=
PUBLIC	??0CScaleCompart@@QAE@XZ			; CScaleCompart::CScaleCompart
PUBLIC	??0CScaleCompart@@QAE@ABV?$CStringT@DV?$StrTraitMFC_DLL@DV?$ChTraitsCRT@D@ATL@@@@@ATL@@0W4TEXTCOMPARTTYPE@CScaleBaseData@@@Z ; CScaleCompart::CScaleCompart
PUBLIC	?GetDateCompart@CScaleCompart@@QBE?AV?$CStringT@DV?$StrTraitMFC_DLL@DV?$ChTraitsCRT@D@ATL@@@@@ATL@@XZ ; CScaleCompart::GetDateCompart
PUBLIC	?GetTimeCompart@CScaleCompart@@QBE?AV?$CStringT@DV?$StrTraitMFC_DLL@DV?$ChTraitsCRT@D@ATL@@@@@ATL@@XZ ; CScaleCompart::GetTimeCompart
PUBLIC	?GetScaleTextType@CScaleCompart@@QBE?AW4TEXTCOMPARTTYPE@CScaleBaseData@@XZ ; CScaleCompart::GetScaleTextType
PUBLIC	?SetCompart@CScaleCompart@@QAEXPAD@Z		; CScaleCompart::SetCompart
PUBLIC	?SetDateCompart@CScaleCompart@@QAEXABV?$CStringT@DV?$StrTraitMFC_DLL@DV?$ChTraitsCRT@D@ATL@@@@@ATL@@@Z ; CScaleCompart::SetDateCompart
PUBLIC	?SetTimeCompart@CScaleCompart@@QAEXABV?$CStringT@DV?$StrTraitMFC_DLL@DV?$ChTraitsCRT@D@ATL@@@@@ATL@@@Z ; CScaleCompart::SetTimeCompart
PUBLIC	?SetScaleTextType@CScaleCompart@@QAEXW4TEXTCOMPARTTYPE@CScaleBaseData@@@Z ; CScaleCompart::SetScaleTextType
PUBLIC	??1CScaleCompart@@QAE@XZ			; CScaleCompart::~CScaleCompart
PUBLIC	??0CScaleCompart@@QAE@ABV0@@Z			; CScaleCompart::CScaleCompart
PUBLIC	??4CScale@@QAEAAV0@ABV0@@Z			; CScale::operator=
PUBLIC	??0CScale@@QAE@XZ				; CScale::CScale
PUBLIC	?SetData@CScale@@QAEXABV?$CStringT@DV?$StrTraitMFC_DLL@DV?$ChTraitsCRT@D@ATL@@@@@ATL@@@Z ; CScale::SetData
PUBLIC	?SetScaleData@CScale@@UAEXPADPAUHWND__@@@Z	; CScale::SetScaleData
PUBLIC	?SetGridType@CScale@@QAEXW4SCALEGRIDTYPE@CScaleBaseData@@@Z ; CScale::SetGridType
PUBLIC	?GetScaleData@CScale@@QBE?AV?$CStringT@DV?$StrTraitMFC_DLL@DV?$ChTraitsCRT@D@ATL@@@@@ATL@@XZ ; CScale::GetScaleData
PUBLIC	?GetGridType@CScale@@QBE?AW4SCALEGRIDTYPE@CScaleBaseData@@XZ ; CScale::GetGridType
PUBLIC	?SetGridType@CScale@@IAEXPAD@Z			; CScale::SetGridType
PUBLIC	??1CScale@@QAE@XZ				; CScale::~CScale
PUBLIC	??0CScale@@QAE@ABV0@@Z				; CScale::CScale
PUBLIC	??4CHorizontalScale@@QAEAAV0@ABV0@@Z		; CHorizontalScale::operator=
PUBLIC	??0CHorizontalScale@@QAE@XZ			; CHorizontalScale::CHorizontalScale
PUBLIC	?SetScaleData@CHorizontalScale@@UAEXPADPAUHWND__@@@Z ; CHorizontalScale::SetScaleData
PUBLIC	?SetHorzScalePosition@CHorizontalScale@@QAEXPAD@Z ; CHorizontalScale::SetHorzScalePosition
PUBLIC	?SetScaleCompart@CHorizontalScale@@QAEXABVCScaleCompart@@@Z ; CHorizontalScale::SetScaleCompart
PUBLIC	?SetScaleHeight@CHorizontalScale@@QAEXH@Z	; CHorizontalScale::SetScaleHeight
PUBLIC	?GetHorzScalePosition@CHorizontalScale@@QBE?AW4HORZSCALEPOSITION@CScaleBaseData@@XZ ; CHorizontalScale::GetHorzScalePosition
PUBLIC	?GetScaleCompart@CHorizontalScale@@QBE?AVCScaleCompart@@XZ ; CHorizontalScale::GetScaleCompart
PUBLIC	?GetScaleCompart@CHorizontalScale@@QAEAAVCScaleCompart@@XZ ; CHorizontalScale::GetScaleCompart
PUBLIC	?GetScaleHeight@CHorizontalScale@@QBEHXZ	; CHorizontalScale::GetScaleHeight
PUBLIC	?GetScaleAllData@CHorizontalScale@@QBEXAAV?$CStringT@DV?$StrTraitMFC_DLL@DV?$ChTraitsCRT@D@ATL@@@@@ATL@@@Z ; CHorizontalScale::GetScaleAllData
PUBLIC	?GetPeriodGridType@CHorizontalScale@@QBE?AW4SCALEGRIDTYPE@CScaleBaseData@@W4SCALEGRIDTIMEGUBUN@3@@Z ; CHorizontalScale::GetPeriodGridType
PUBLIC	?SetPeriodGridType@CHorizontalScale@@QAEXHPAD@Z	; CHorizontalScale::SetPeriodGridType
PUBLIC	?SetPeriodGridType@CHorizontalScale@@QAEXW4SCALEGRIDTIMEGUBUN@CScaleBaseData@@W4SCALEGRIDTYPE@3@H@Z ; CHorizontalScale::SetPeriodGridType
PUBLIC	?GetCheckTime@CHorizontalScale@@QBEHW4SCALEGRIDTIMEGUBUN@CScaleBaseData@@@Z ; CHorizontalScale::GetCheckTime
PUBLIC	?SetCheckTime@CHorizontalScale@@QAEXW4SCALEGRIDTIMEGUBUN@CScaleBaseData@@H@Z ; CHorizontalScale::SetCheckTime
PUBLIC	?GetGridWidth_Time@CHorizontalScale@@QBEGW4SCALEGRIDTIMEGUBUN@CScaleBaseData@@H@Z ; CHorizontalScale::GetGridWidth_Time
PUBLIC	?SetGridWidth_Time@CHorizontalScale@@QAEXW4SCALEGRIDTIMEGUBUN@CScaleBaseData@@G@Z ; CHorizontalScale::SetGridWidth_Time
PUBLIC	?GetGridColor_Time@CHorizontalScale@@QBEKW4SCALEGRIDTIMEGUBUN@CScaleBaseData@@@Z ; CHorizontalScale::GetGridColor_Time
PUBLIC	?SetGridColor_Time@CHorizontalScale@@QAEXW4SCALEGRIDTIMEGUBUN@CScaleBaseData@@K@Z ; CHorizontalScale::SetGridColor_Time
PUBLIC	?TokenizeEx@CHorizontalScale@@QAE?AV?$CStringT@DV?$StrTraitMFC_DLL@DV?$ChTraitsCRT@D@ATL@@@@@ATL@@V23@PBDAAH@Z ; CHorizontalScale::TokenizeEx
PUBLIC	?SetHorzScalePosition@CHorizontalScale@@IAEXW4HORZSCALEPOSITION@CScaleBaseData@@@Z ; CHorizontalScale::SetHorzScalePosition
PUBLIC	??1CHorizontalScale@@QAE@XZ			; CHorizontalScale::~CHorizontalScale
PUBLIC	??0CHorizontalScale@@QAE@ABV0@@Z		; CHorizontalScale::CHorizontalScale
PUBLIC	??0CVerticalScale@@QAE@XZ			; CVerticalScale::CVerticalScale
PUBLIC	??4CVerticalScale@@QAEAAV0@ABV0@@Z		; CVerticalScale::operator=
PUBLIC	?SetScaleData@CVerticalScale@@UAEXPADPAUHWND__@@@Z ; CVerticalScale::SetScaleData
PUBLIC	?SetVertScalePosition@CVerticalScale@@QAEXPAD@Z	; CVerticalScale::SetVertScalePosition
PUBLIC	?SetVertScalePosition@CVerticalScale@@QAEXW4VERTSCALEPOSITION@CScaleBaseData@@@Z ; CVerticalScale::SetVertScalePosition
PUBLIC	?SetVertScaleUnitType@CVerticalScale@@QAEXPAD@Z	; CVerticalScale::SetVertScaleUnitType
PUBLIC	?SetVertScaleUnitType@CVerticalScale@@QAEXW4VERTSCALEUNITTYPE@CScaleBaseData@@@Z ; CVerticalScale::SetVertScaleUnitType
PUBLIC	?GetVertScalePosition@CVerticalScale@@QBE?AW4VERTSCALEPOSITION@CScaleBaseData@@XZ ; CVerticalScale::GetVertScalePosition
PUBLIC	?GetVertScaleUnitType@CVerticalScale@@QBE?AW4VERTSCALEUNITTYPE@CScaleBaseData@@XZ ; CVerticalScale::GetVertScaleUnitType
PUBLIC	?GetScaleAllData@CVerticalScale@@QBEXAAV?$CStringT@DV?$StrTraitMFC_DLL@DV?$ChTraitsCRT@D@ATL@@@@@ATL@@PBD@Z ; CVerticalScale::GetScaleAllData
PUBLIC	?IsVertScaleMinMaxLock@CVerticalScale@@QBEHXZ	; CVerticalScale::IsVertScaleMinMaxLock
PUBLIC	?SetVertScaleMinMaxLock@CVerticalScale@@QAEXH@Z	; CVerticalScale::SetVertScaleMinMaxLock
PUBLIC	?GetVertScaleMinMaxType@CVerticalScale@@QBE?AW4VERTMINMAXTYPE@CScaleBaseData@@XZ ; CVerticalScale::GetVertScaleMinMaxType
PUBLIC	?SetVertScaleMinMaxType@CVerticalScale@@QAEXW4VERTMINMAXTYPE@CScaleBaseData@@@Z ; CVerticalScale::SetVertScaleMinMaxType
PUBLIC	?GetVertScaleMin@CVerticalScale@@QBENXZ		; CVerticalScale::GetVertScaleMin
PUBLIC	?SetVertScaleMin@CVerticalScale@@QAEXN@Z	; CVerticalScale::SetVertScaleMin
PUBLIC	?GetVertScaleMax@CVerticalScale@@QBENXZ		; CVerticalScale::GetVertScaleMax
PUBLIC	?SetVertScaleMax@CVerticalScale@@QAEXN@Z	; CVerticalScale::SetVertScaleMax
PUBLIC	?GetActiveFlag@CVerticalScale@@QBEHXZ		; CVerticalScale::GetActiveFlag
PUBLIC	?AddActiveFlag@CVerticalScale@@QAEXH@Z		; CVerticalScale::AddActiveFlag
PUBLIC	?RemoveActiveFlag@CVerticalScale@@QAEXH@Z	; CVerticalScale::RemoveActiveFlag
PUBLIC	?ResetActiveFlag@CVerticalScale@@QAEXH@Z	; CVerticalScale::ResetActiveFlag
PUBLIC	?SetVertScaleHoGaNumber@CVerticalScale@@QAEXN@Z	; CVerticalScale::SetVertScaleHoGaNumber
PUBLIC	?SetVertScaleUserNumber@CVerticalScale@@QAEXN@Z	; CVerticalScale::SetVertScaleUserNumber
PUBLIC	?SetVertUserHogaScaleType@CVerticalScale@@QAEXH@Z ; CVerticalScale::SetVertUserHogaScaleType
PUBLIC	?GetVertScaleHoGaNumber@CVerticalScale@@QBENXZ	; CVerticalScale::GetVertScaleHoGaNumber
PUBLIC	?GetVertScaleUserNumber@CVerticalScale@@QBENXZ	; CVerticalScale::GetVertScaleUserNumber
PUBLIC	?GetVertUserHogaScaleType@CVerticalScale@@QBEHXZ ; CVerticalScale::GetVertUserHogaScaleType
PUBLIC	?GetVertScaleInvertType@CVerticalScale@@QBE_NXZ	; CVerticalScale::GetVertScaleInvertType
PUBLIC	?SetVertScaleInvertType@CVerticalScale@@QAEX_N@Z ; CVerticalScale::SetVertScaleInvertType
PUBLIC	?SetSpace@CVerticalScale@@QAEXHH@Z		; CVerticalScale::SetSpace
PUBLIC	?GetSpace@CVerticalScale@@QBEXAAH0@Z		; CVerticalScale::GetSpace
PUBLIC	??1CVerticalScale@@QAE@XZ			; CVerticalScale::~CVerticalScale
PUBLIC	??0CVerticalScale@@QAE@ABV0@@Z			; CVerticalScale::CVerticalScale
PUBLIC	??0CHorzScaleRegionHeight@@QAE@XZ		; CHorzScaleRegionHeight::CHorzScaleRegionHeight
PUBLIC	??0CHorzScaleRegionHeight@@QAE@HH@Z		; CHorzScaleRegionHeight::CHorzScaleRegionHeight
PUBLIC	?SetTopHorzScaleRegionHeight@CHorzScaleRegionHeight@@QAEXH@Z ; CHorzScaleRegionHeight::SetTopHorzScaleRegionHeight
PUBLIC	?SetBottomHorzScaleRegionHeight@CHorzScaleRegionHeight@@QAEXH@Z ; CHorzScaleRegionHeight::SetBottomHorzScaleRegionHeight
PUBLIC	?GetTopHorzScaleRegionHeight@CHorzScaleRegionHeight@@QBEHXZ ; CHorzScaleRegionHeight::GetTopHorzScaleRegionHeight
PUBLIC	?GetBottomHorzScaleRegionHeight@CHorzScaleRegionHeight@@QBEHXZ ; CHorzScaleRegionHeight::GetBottomHorzScaleRegionHeight
PUBLIC	??4CHorzScaleRegionHeight@@QAEAAV0@ABV0@@Z	; CHorzScaleRegionHeight::operator=
PUBLIC	??4CHorzScaleRegionHeight@@QAEAAV0@$$QAV0@@Z	; CHorzScaleRegionHeight::operator=
PUBLIC	??0CVertScaleRegionWidth@@QAE@XZ		; CVertScaleRegionWidth::CVertScaleRegionWidth
PUBLIC	??0CVertScaleRegionWidth@@QAE@HH@Z		; CVertScaleRegionWidth::CVertScaleRegionWidth
PUBLIC	?SetLeftVertScaleRegionWidth@CVertScaleRegionWidth@@QAEXH@Z ; CVertScaleRegionWidth::SetLeftVertScaleRegionWidth
PUBLIC	?SetRightVertScaleRegionWidth@CVertScaleRegionWidth@@QAEXH@Z ; CVertScaleRegionWidth::SetRightVertScaleRegionWidth
PUBLIC	?GetLeftVertScaleRegionWidth@CVertScaleRegionWidth@@QBEHXZ ; CVertScaleRegionWidth::GetLeftVertScaleRegionWidth
PUBLIC	?GetRightVertScaleRegionWidth@CVertScaleRegionWidth@@QBEHXZ ; CVertScaleRegionWidth::GetRightVertScaleRegionWidth
PUBLIC	??4CVertScaleRegionWidth@@QAEAAV0@ABV0@@Z	; CVertScaleRegionWidth::operator=
PUBLIC	??4CVertScaleRegionWidth@@QAEAAV0@$$QAV0@@Z	; CVertScaleRegionWidth::operator=
PUBLIC	??0CHorzScaleRegion@@QAE@XZ			; CHorzScaleRegion::CHorzScaleRegion
PUBLIC	?SetTopScaleRegion@CHorzScaleRegion@@QAEXABVCRect@@@Z ; CHorzScaleRegion::SetTopScaleRegion
PUBLIC	?SetBottomScaleRegion@CHorzScaleRegion@@QAEXABVCRect@@@Z ; CHorzScaleRegion::SetBottomScaleRegion
PUBLIC	?GetTopScaleRegion@CHorzScaleRegion@@QBE?AVCRect@@XZ ; CHorzScaleRegion::GetTopScaleRegion
PUBLIC	?GetBottomScaleRegion@CHorzScaleRegion@@QBE?AVCRect@@XZ ; CHorzScaleRegion::GetBottomScaleRegion
PUBLIC	?PointInRegion@CHorzScaleRegion@@QBE_NABVCPoint@@@Z ; CHorzScaleRegion::PointInRegion
PUBLIC	??4CHorzScaleRegion@@QAEAAV0@ABV0@@Z		; CHorzScaleRegion::operator=
PUBLIC	??4CHorzScaleRegion@@QAEAAV0@$$QAV0@@Z		; CHorzScaleRegion::operator=
PUBLIC	??0CVertScaleRegion@@QAE@XZ			; CVertScaleRegion::CVertScaleRegion
PUBLIC	?SetLeftScaleRegion@CVertScaleRegion@@QAEXABVCRect@@@Z ; CVertScaleRegion::SetLeftScaleRegion
PUBLIC	?SetRightScaleRegion@CVertScaleRegion@@QAEXABVCRect@@@Z ; CVertScaleRegion::SetRightScaleRegion
PUBLIC	?OffsetRegion@CVertScaleRegion@@QAEXHH@Z	; CVertScaleRegion::OffsetRegion
PUBLIC	?GetLeftScaleRegion@CVertScaleRegion@@QBE?AVCRect@@XZ ; CVertScaleRegion::GetLeftScaleRegion
PUBLIC	?GetRightScaleRegion@CVertScaleRegion@@QBE?AVCRect@@XZ ; CVertScaleRegion::GetRightScaleRegion
PUBLIC	?GetLeftScaleTextRegion@CVertScaleRegion@@QBE?AVCRect@@XZ ; CVertScaleRegion::GetLeftScaleTextRegion
PUBLIC	?GetLeftScaleGridRegion@CVertScaleRegion@@QBE?AVCRect@@XZ ; CVertScaleRegion::GetLeftScaleGridRegion
PUBLIC	?GetRightScaleTextRegion@CVertScaleRegion@@QBE?AVCRect@@XZ ; CVertScaleRegion::GetRightScaleTextRegion
PUBLIC	?GetRightScaleGridRegion@CVertScaleRegion@@QBE?AVCRect@@XZ ; CVertScaleRegion::GetRightScaleGridRegion
PUBLIC	?PointInRegion@CVertScaleRegion@@QBE_NABVCPoint@@@Z ; CVertScaleRegion::PointInRegion
PUBLIC	??4CVertScaleRegion@@QAEAAV0@ABV0@@Z		; CVertScaleRegion::operator=
PUBLIC	??4CVertScaleRegion@@QAEAAV0@$$QAV0@@Z		; CVertScaleRegion::operator=
PUBLIC	??4CDisplayDataMinMax@@QAEAAV0@ABV0@@Z		; CDisplayDataMinMax::operator=
PUBLIC	??0CDisplayDataMinMax@@QAE@XZ			; CDisplayDataMinMax::CDisplayDataMinMax
PUBLIC	??0CDisplayDataMinMax@@QAE@ABN0@Z		; CDisplayDataMinMax::CDisplayDataMinMax
PUBLIC	?SetDisplayData@CDisplayDataMinMax@@QAEXABN0@Z	; CDisplayDataMinMax::SetDisplayData
PUBLIC	?Inflate@CDisplayDataMinMax@@QAEXABV1@@Z	; CDisplayDataMinMax::Inflate
PUBLIC	?Inflate@CDisplayDataMinMax@@QAEXABN0@Z		; CDisplayDataMinMax::Inflate
PUBLIC	?GetDisplayMin@CDisplayDataMinMax@@QBENXZ	; CDisplayDataMinMax::GetDisplayMin
PUBLIC	?GetDisplayMax@CDisplayDataMinMax@@QBENXZ	; CDisplayDataMinMax::GetDisplayMax
PUBLIC	?GetCount@CDisplayDataMinMax@@QBENXZ		; CDisplayDataMinMax::GetCount
PUBLIC	?GetMarginDisplayMin@CDisplayDataMinMax@@QBENXZ	; CDisplayDataMinMax::GetMarginDisplayMin
PUBLIC	?GetMarginDisplayMax@CDisplayDataMinMax@@QBENXZ	; CDisplayDataMinMax::GetMarginDisplayMax
PUBLIC	?IsCloseToMaxValue@CDisplayDataMinMax@@QBE_NABN_N@Z ; CDisplayDataMinMax::IsCloseToMaxValue
PUBLIC	?IsInitialized@CDisplayDataMinMax@@QBEHXZ	; CDisplayDataMinMax::IsInitialized
PUBLIC	?_OptionsStorage@?1??__local_stdio_printf_options@@9@4_KA ; `__local_stdio_printf_options'::`2'::_OptionsStorage
PUBLIC	??_C@_02DPKJAMEF@?$CFd@				; `string'
PUBLIC	??_C@_00CNPNBAHC@@				; `string'
PUBLIC	??_7CScale@@6B@					; CScale::`vftable'
PUBLIC	??_7CHorizontalScale@@6B@			; CHorizontalScale::`vftable'
PUBLIC	??_7CVerticalScale@@6B@				; CVerticalScale::`vftable'
PUBLIC	??_C@_01LFCBOECM@?4@				; `string'
PUBLIC	??_C@_01JLIPDDHJ@?3@				; `string'
PUBLIC	??_C@_02DKCKIIND@?$CFs@				; `string'
PUBLIC	??_C@_01IHBHIGKO@?0@				; `string'
PUBLIC	??_C@_03JALODAI@?$CFld@				; `string'
PUBLIC	??_C@_03OEIAHPBN@INF@				; `string'
PUBLIC	??_C@_02NJPGOMH@?$CFf@				; `string'
PUBLIC	??_R4CScale@@6B@				; CScale::`RTTI Complete Object Locator'
PUBLIC	??_R0?AVCScale@@@8				; CScale `RTTI Type Descriptor'
PUBLIC	??_R3CScale@@8					; CScale::`RTTI Class Hierarchy Descriptor'
PUBLIC	??_R2CScale@@8					; CScale::`RTTI Base Class Array'
PUBLIC	??_R1A@?0A@EA@CScale@@8				; CScale::`RTTI Base Class Descriptor at (0,-1,0,64)'
PUBLIC	??_R4CHorizontalScale@@6B@			; CHorizontalScale::`RTTI Complete Object Locator'
PUBLIC	??_R0?AVCHorizontalScale@@@8			; CHorizontalScale `RTTI Type Descriptor'
PUBLIC	??_R3CHorizontalScale@@8			; CHorizontalScale::`RTTI Class Hierarchy Descriptor'
PUBLIC	??_R2CHorizontalScale@@8			; CHorizontalScale::`RTTI Base Class Array'
PUBLIC	??_R1A@?0A@EA@CHorizontalScale@@8		; CHorizontalScale::`RTTI Base Class Descriptor at (0,-1,0,64)'
PUBLIC	??_R4CVerticalScale@@6B@			; CVerticalScale::`RTTI Complete Object Locator'
PUBLIC	??_R0?AVCVerticalScale@@@8			; CVerticalScale `RTTI Type Descriptor'
PUBLIC	??_R3CVerticalScale@@8				; CVerticalScale::`RTTI Class Hierarchy Descriptor'
PUBLIC	??_R2CVerticalScale@@8				; CVerticalScale::`RTTI Base Class Array'
PUBLIC	??_R1A@?0A@EA@CVerticalScale@@8			; CVerticalScale::`RTTI Base Class Descriptor at (0,-1,0,64)'
PUBLIC	__real@0000000000000000
PUBLIC	__real@3faeb851eb851eb8
PUBLIC	__real@3ff0000000000000
PUBLIC	__real@7ff0000000000000
PUBLIC	__real@fff0000000000000
PUBLIC	__xmm@7fffffffffffffff7fffffffffffffff
PUBLIC	__xmm@fff0000000000000fff0000000000000
EXTRN	_strchr:PROC
EXTRN	_strstr:PROC
EXTRN	__imp__lstrlenA@4:PROC
EXTRN	__imp__PtInRect@12:PROC
EXTRN	__imp____stdio_common_vsprintf:PROC
EXTRN	__imp__atof:PROC
EXTRN	__imp__atoi:PROC
EXTRN	__imp__atol:PROC
EXTRN	__imp__itoa:PROC
EXTRN	__imp_?GetBufferSetLength@?$CSimpleStringT@D$00@ATL@@QAEPADH@Z:PROC
EXTRN	__imp_??0?$CStringT@DV?$StrTraitMFC_DLL@DV?$ChTraitsCRT@D@ATL@@@@@ATL@@QAE@XZ:PROC
EXTRN	__imp_??0?$CStringT@DV?$StrTraitMFC_DLL@DV?$ChTraitsCRT@D@ATL@@@@@ATL@@QAE@ABV01@@Z:PROC
EXTRN	__imp_??0?$CStringT@DV?$StrTraitMFC_DLL@DV?$ChTraitsCRT@D@ATL@@@@@ATL@@QAE@PBD@Z:PROC
EXTRN	__imp_??1?$CStringT@DV?$StrTraitMFC_DLL@DV?$ChTraitsCRT@D@ATL@@@@@ATL@@QAE@XZ:PROC
EXTRN	__imp_??4?$CStringT@DV?$StrTraitMFC_DLL@DV?$ChTraitsCRT@D@ATL@@@@@ATL@@QAEAAV01@ABV01@@Z:PROC
EXTRN	__imp_??4?$CStringT@DV?$StrTraitMFC_DLL@DV?$ChTraitsCRT@D@ATL@@@@@ATL@@QAEAAV01@PBD@Z:PROC
EXTRN	__imp_?Find@?$CStringT@DV?$StrTraitMFC_DLL@DV?$ChTraitsCRT@D@ATL@@@@@ATL@@QBEHPBDH@Z:PROC
EXTRN	__imp_?Mid@?$CStringT@DV?$StrTraitMFC_DLL@DV?$ChTraitsCRT@D@ATL@@@@@ATL@@QBE?AV12@HH@Z:PROC
EXTRN	__imp_?Format@?$CStringT@DV?$StrTraitMFC_DLL@DV?$ChTraitsCRT@D@ATL@@@@@ATL@@QAAXPBDZZ:PROC
EXTRN	?GetMetaTextFromOther@IMetaTable@@QAEPBDPAUHWND__@@W4E_CODEPAGE@1@PBDH@Z:PROC ; IMetaTable::GetMetaTextFromOther
EXTRN	?GetMetaTextForScript@IMetaTable@@QAEPBDPAUHWND__@@W4E_CODEPAGE@1@PBDH@Z:PROC ; IMetaTable::GetMetaTextForScript
EXTRN	?Round@CMath@@SANABNH@Z:PROC			; CMath::Round
EXTRN	@__security_check_cookie@4:PROC
EXTRN	___CxxFrameHandler3:PROC
EXTRN	??_7type_info@@6B@:QWORD			; type_info::`vftable'
EXTRN	?g_iMetaTable@@3VIMetaTable@@A:BYTE		; g_iMetaTable
EXTRN	___security_cookie:DWORD
EXTRN	__fltused:DWORD
;	COMDAT ?_OptionsStorage@?1??__local_stdio_printf_options@@9@4_KA
_BSS	SEGMENT
?_OptionsStorage@?1??__local_stdio_printf_options@@9@4_KA DQ 01H DUP (?) ; `__local_stdio_printf_options'::`2'::_OptionsStorage
_BSS	ENDS
;	COMDAT __xmm@fff0000000000000fff0000000000000
CONST	SEGMENT
__xmm@fff0000000000000fff0000000000000 DB 00H, 00H, 00H, 00H, 00H, 00H, 0f0H
	DB	0ffH, 00H, 00H, 00H, 00H, 00H, 00H, 0f0H, 0ffH
CONST	ENDS
;	COMDAT __xmm@7fffffffffffffff7fffffffffffffff
CONST	SEGMENT
__xmm@7fffffffffffffff7fffffffffffffff DB 0ffH, 0ffH, 0ffH, 0ffH, 0ffH, 0ffH
	DB	0ffH, 07fH, 0ffH, 0ffH, 0ffH, 0ffH, 0ffH, 0ffH, 0ffH, 07fH
CONST	ENDS
;	COMDAT __real@fff0000000000000
CONST	SEGMENT
__real@fff0000000000000 DQ 0fff0000000000000r	; -inf
CONST	ENDS
;	COMDAT __real@7ff0000000000000
CONST	SEGMENT
__real@7ff0000000000000 DQ 07ff0000000000000r	; inf
CONST	ENDS
;	COMDAT __real@3ff0000000000000
CONST	SEGMENT
__real@3ff0000000000000 DQ 03ff0000000000000r	; 1
CONST	ENDS
;	COMDAT __real@3faeb851eb851eb8
CONST	SEGMENT
__real@3faeb851eb851eb8 DQ 03faeb851eb851eb8r	; 0.06
CONST	ENDS
;	COMDAT __real@0000000000000000
CONST	SEGMENT
__real@0000000000000000 DQ 00000000000000000r	; 0
CONST	ENDS
;	COMDAT ??_R1A@?0A@EA@CVerticalScale@@8
rdata$r	SEGMENT
??_R1A@?0A@EA@CVerticalScale@@8 DD FLAT:??_R0?AVCVerticalScale@@@8 ; CVerticalScale::`RTTI Base Class Descriptor at (0,-1,0,64)'
	DD	01H
	DD	00H
	DD	0ffffffffH
	DD	00H
	DD	040H
	DD	FLAT:??_R3CVerticalScale@@8
rdata$r	ENDS
;	COMDAT ??_R2CVerticalScale@@8
rdata$r	SEGMENT
??_R2CVerticalScale@@8 DD FLAT:??_R1A@?0A@EA@CVerticalScale@@8 ; CVerticalScale::`RTTI Base Class Array'
	DD	FLAT:??_R1A@?0A@EA@CScale@@8
rdata$r	ENDS
;	COMDAT ??_R3CVerticalScale@@8
rdata$r	SEGMENT
??_R3CVerticalScale@@8 DD 00H				; CVerticalScale::`RTTI Class Hierarchy Descriptor'
	DD	00H
	DD	02H
	DD	FLAT:??_R2CVerticalScale@@8
rdata$r	ENDS
;	COMDAT ??_R0?AVCVerticalScale@@@8
data$rs	SEGMENT
??_R0?AVCVerticalScale@@@8 DD FLAT:??_7type_info@@6B@	; CVerticalScale `RTTI Type Descriptor'
	DD	00H
	DB	'.?AVCVerticalScale@@', 00H
data$rs	ENDS
;	COMDAT ??_R4CVerticalScale@@6B@
rdata$r	SEGMENT
??_R4CVerticalScale@@6B@ DD 00H				; CVerticalScale::`RTTI Complete Object Locator'
	DD	00H
	DD	00H
	DD	FLAT:??_R0?AVCVerticalScale@@@8
	DD	FLAT:??_R3CVerticalScale@@8
rdata$r	ENDS
;	COMDAT ??_R1A@?0A@EA@CHorizontalScale@@8
rdata$r	SEGMENT
??_R1A@?0A@EA@CHorizontalScale@@8 DD FLAT:??_R0?AVCHorizontalScale@@@8 ; CHorizontalScale::`RTTI Base Class Descriptor at (0,-1,0,64)'
	DD	01H
	DD	00H
	DD	0ffffffffH
	DD	00H
	DD	040H
	DD	FLAT:??_R3CHorizontalScale@@8
rdata$r	ENDS
;	COMDAT ??_R2CHorizontalScale@@8
rdata$r	SEGMENT
??_R2CHorizontalScale@@8 DD FLAT:??_R1A@?0A@EA@CHorizontalScale@@8 ; CHorizontalScale::`RTTI Base Class Array'
	DD	FLAT:??_R1A@?0A@EA@CScale@@8
rdata$r	ENDS
;	COMDAT ??_R3CHorizontalScale@@8
rdata$r	SEGMENT
??_R3CHorizontalScale@@8 DD 00H				; CHorizontalScale::`RTTI Class Hierarchy Descriptor'
	DD	00H
	DD	02H
	DD	FLAT:??_R2CHorizontalScale@@8
rdata$r	ENDS
;	COMDAT ??_R0?AVCHorizontalScale@@@8
data$rs	SEGMENT
??_R0?AVCHorizontalScale@@@8 DD FLAT:??_7type_info@@6B@	; CHorizontalScale `RTTI Type Descriptor'
	DD	00H
	DB	'.?AVCHorizontalScale@@', 00H
data$rs	ENDS
;	COMDAT ??_R4CHorizontalScale@@6B@
rdata$r	SEGMENT
??_R4CHorizontalScale@@6B@ DD 00H			; CHorizontalScale::`RTTI Complete Object Locator'
	DD	00H
	DD	00H
	DD	FLAT:??_R0?AVCHorizontalScale@@@8
	DD	FLAT:??_R3CHorizontalScale@@8
rdata$r	ENDS
;	COMDAT ??_R1A@?0A@EA@CScale@@8
rdata$r	SEGMENT
??_R1A@?0A@EA@CScale@@8 DD FLAT:??_R0?AVCScale@@@8	; CScale::`RTTI Base Class Descriptor at (0,-1,0,64)'
	DD	00H
	DD	00H
	DD	0ffffffffH
	DD	00H
	DD	040H
	DD	FLAT:??_R3CScale@@8
rdata$r	ENDS
;	COMDAT ??_R2CScale@@8
rdata$r	SEGMENT
??_R2CScale@@8 DD FLAT:??_R1A@?0A@EA@CScale@@8		; CScale::`RTTI Base Class Array'
rdata$r	ENDS
;	COMDAT ??_R3CScale@@8
rdata$r	SEGMENT
??_R3CScale@@8 DD 00H					; CScale::`RTTI Class Hierarchy Descriptor'
	DD	00H
	DD	01H
	DD	FLAT:??_R2CScale@@8
rdata$r	ENDS
;	COMDAT ??_R0?AVCScale@@@8
data$rs	SEGMENT
??_R0?AVCScale@@@8 DD FLAT:??_7type_info@@6B@		; CScale `RTTI Type Descriptor'
	DD	00H
	DB	'.?AVCScale@@', 00H
data$rs	ENDS
;	COMDAT ??_R4CScale@@6B@
rdata$r	SEGMENT
??_R4CScale@@6B@ DD 00H					; CScale::`RTTI Complete Object Locator'
	DD	00H
	DD	00H
	DD	FLAT:??_R0?AVCScale@@@8
	DD	FLAT:??_R3CScale@@8
rdata$r	ENDS
;	COMDAT ??_C@_02NJPGOMH@?$CFf@
CONST	SEGMENT
??_C@_02NJPGOMH@?$CFf@ DB '%f', 00H			; `string'
CONST	ENDS
;	COMDAT ??_C@_03OEIAHPBN@INF@
CONST	SEGMENT
??_C@_03OEIAHPBN@INF@ DB 'INF', 00H			; `string'
CONST	ENDS
;	COMDAT ??_C@_03JALODAI@?$CFld@
CONST	SEGMENT
??_C@_03JALODAI@?$CFld@ DB '%ld', 00H			; `string'
CONST	ENDS
;	COMDAT ??_C@_01IHBHIGKO@?0@
CONST	SEGMENT
??_C@_01IHBHIGKO@?0@ DB ',', 00H			; `string'
CONST	ENDS
;	COMDAT ??_C@_02DKCKIIND@?$CFs@
CONST	SEGMENT
??_C@_02DKCKIIND@?$CFs@ DB '%s', 00H			; `string'
CONST	ENDS
;	COMDAT ??_C@_01JLIPDDHJ@?3@
CONST	SEGMENT
??_C@_01JLIPDDHJ@?3@ DB ':', 00H			; `string'
CONST	ENDS
;	COMDAT ??_C@_01LFCBOECM@?4@
CONST	SEGMENT
??_C@_01LFCBOECM@?4@ DB '.', 00H			; `string'
CONST	ENDS
;	COMDAT ??_7CVerticalScale@@6B@
CONST	SEGMENT
??_7CVerticalScale@@6B@ DD FLAT:??_R4CVerticalScale@@6B@ ; CVerticalScale::`vftable'
	DD	FLAT:?SetScaleData@CVerticalScale@@UAEXPADPAUHWND__@@@Z
CONST	ENDS
;	COMDAT ??_7CHorizontalScale@@6B@
CONST	SEGMENT
??_7CHorizontalScale@@6B@ DD FLAT:??_R4CHorizontalScale@@6B@ ; CHorizontalScale::`vftable'
	DD	FLAT:?SetScaleData@CHorizontalScale@@UAEXPADPAUHWND__@@@Z
CONST	ENDS
;	COMDAT ??_7CScale@@6B@
CONST	SEGMENT
??_7CScale@@6B@ DD FLAT:??_R4CScale@@6B@		; CScale::`vftable'
	DD	FLAT:?SetScaleData@CScale@@UAEXPADPAUHWND__@@@Z
CONST	ENDS
;	COMDAT ??_C@_00CNPNBAHC@@
CONST	SEGMENT
??_C@_00CNPNBAHC@@ DB 00H				; `string'
CONST	ENDS
;	COMDAT ??_C@_02DPKJAMEF@?$CFd@
CONST	SEGMENT
??_C@_02DPKJAMEF@?$CFd@ DB '%d', 00H			; `string'
CONST	ENDS
;	COMDAT xdata$x
xdata$x	SEGMENT
__unwindtable$?GetScaleAllData@CVerticalScale@@QBEXAAV?$CStringT@DV?$StrTraitMFC_DLL@DV?$ChTraitsCRT@D@ATL@@@@@ATL@@PBD@Z DD 0ffffffffH
	DD	FLAT:__unwindfunclet$?GetScaleAllData@CVerticalScale@@QBEXAAV?$CStringT@DV?$StrTraitMFC_DLL@DV?$ChTraitsCRT@D@ATL@@@@@ATL@@PBD@Z$0
	DD	00H
	DD	FLAT:__unwindfunclet$?GetScaleAllData@CVerticalScale@@QBEXAAV?$CStringT@DV?$StrTraitMFC_DLL@DV?$ChTraitsCRT@D@ATL@@@@@ATL@@PBD@Z$1
	DD	0ffffffffH
	DD	FLAT:__unwindfunclet$?GetScaleAllData@CVerticalScale@@QBEXAAV?$CStringT@DV?$StrTraitMFC_DLL@DV?$ChTraitsCRT@D@ATL@@@@@ATL@@PBD@Z$1
__ehfuncinfo$?GetScaleAllData@CVerticalScale@@QBEXAAV?$CStringT@DV?$StrTraitMFC_DLL@DV?$ChTraitsCRT@D@ATL@@@@@ATL@@PBD@Z DD 019930522H
	DD	03H
	DD	FLAT:__unwindtable$?GetScaleAllData@CVerticalScale@@QBEXAAV?$CStringT@DV?$StrTraitMFC_DLL@DV?$ChTraitsCRT@D@ATL@@@@@ATL@@PBD@Z
	DD	2 DUP(00H)
	DD	2 DUP(00H)
	DD	00H
	DD	01H
xdata$x	ENDS
;	COMDAT xdata$x
xdata$x	SEGMENT
__unwindtable$?SetScaleData@CVerticalScale@@UAEXPADPAUHWND__@@@Z DD 0ffffffffH
	DD	FLAT:__unwindfunclet$?SetScaleData@CVerticalScale@@UAEXPADPAUHWND__@@@Z$0
__ehfuncinfo$?SetScaleData@CVerticalScale@@UAEXPADPAUHWND__@@@Z DD 019930522H
	DD	01H
	DD	FLAT:__unwindtable$?SetScaleData@CVerticalScale@@UAEXPADPAUHWND__@@@Z
	DD	2 DUP(00H)
	DD	2 DUP(00H)
	DD	00H
	DD	01H
xdata$x	ENDS
;	COMDAT xdata$x
xdata$x	SEGMENT
__unwindtable$??4CVerticalScale@@QAEAAV0@ABV0@@Z DD 0ffffffffH
	DD	FLAT:__unwindfunclet$??4CVerticalScale@@QAEAAV0@ABV0@@Z$0
	DD	00H
	DD	FLAT:__unwindfunclet$??4CVerticalScale@@QAEAAV0@ABV0@@Z$2
__ehfuncinfo$??4CVerticalScale@@QAEAAV0@ABV0@@Z DD 019930522H
	DD	02H
	DD	FLAT:__unwindtable$??4CVerticalScale@@QAEAAV0@ABV0@@Z
	DD	2 DUP(00H)
	DD	2 DUP(00H)
	DD	00H
	DD	01H
xdata$x	ENDS
;	COMDAT xdata$x
xdata$x	SEGMENT
__unwindtable$??0CHorizontalScale@@QAE@ABV0@@Z DD 0ffffffffH
	DD	FLAT:__unwindfunclet$??0CHorizontalScale@@QAE@ABV0@@Z$0
	DD	00H
	DD	FLAT:__unwindfunclet$??0CHorizontalScale@@QAE@ABV0@@Z$3
__ehfuncinfo$??0CHorizontalScale@@QAE@ABV0@@Z DD 019930522H
	DD	02H
	DD	FLAT:__unwindtable$??0CHorizontalScale@@QAE@ABV0@@Z
	DD	2 DUP(00H)
	DD	2 DUP(00H)
	DD	00H
	DD	01H
xdata$x	ENDS
;	COMDAT xdata$x
xdata$x	SEGMENT
__unwindtable$?TokenizeEx@CHorizontalScale@@QAE?AV?$CStringT@DV?$StrTraitMFC_DLL@DV?$ChTraitsCRT@D@ATL@@@@@ATL@@V23@PBDAAH@Z DD 0ffffffffH
	DD	FLAT:__unwindfunclet$?TokenizeEx@CHorizontalScale@@QAE?AV?$CStringT@DV?$StrTraitMFC_DLL@DV?$ChTraitsCRT@D@ATL@@@@@ATL@@V23@PBDAAH@Z$0
__ehfuncinfo$?TokenizeEx@CHorizontalScale@@QAE?AV?$CStringT@DV?$StrTraitMFC_DLL@DV?$ChTraitsCRT@D@ATL@@@@@ATL@@V23@PBDAAH@Z DD 019930522H
	DD	01H
	DD	FLAT:__unwindtable$?TokenizeEx@CHorizontalScale@@QAE?AV?$CStringT@DV?$StrTraitMFC_DLL@DV?$ChTraitsCRT@D@ATL@@@@@ATL@@V23@PBDAAH@Z
	DD	2 DUP(00H)
	DD	2 DUP(00H)
	DD	00H
	DD	01H
xdata$x	ENDS
;	COMDAT xdata$x
xdata$x	SEGMENT
__ehfuncinfo$?GetScaleAllData@CHorizontalScale@@QBEXAAV?$CStringT@DV?$StrTraitMFC_DLL@DV?$ChTraitsCRT@D@ATL@@@@@ATL@@@Z DD 019930522H
	DD	07H
	DD	FLAT:__unwindtable$?GetScaleAllData@CHorizontalScale@@QBEXAAV?$CStringT@DV?$StrTraitMFC_DLL@DV?$ChTraitsCRT@D@ATL@@@@@ATL@@@Z
	DD	2 DUP(00H)
	DD	2 DUP(00H)
	DD	00H
	DD	01H
__unwindtable$?GetScaleAllData@CHorizontalScale@@QBEXAAV?$CStringT@DV?$StrTraitMFC_DLL@DV?$ChTraitsCRT@D@ATL@@@@@ATL@@@Z DD 0ffffffffH
	DD	FLAT:__unwindfunclet$?GetScaleAllData@CHorizontalScale@@QBEXAAV?$CStringT@DV?$StrTraitMFC_DLL@DV?$ChTraitsCRT@D@ATL@@@@@ATL@@@Z$0
	DD	00H
	DD	FLAT:__unwindfunclet$?GetScaleAllData@CHorizontalScale@@QBEXAAV?$CStringT@DV?$StrTraitMFC_DLL@DV?$ChTraitsCRT@D@ATL@@@@@ATL@@@Z$1
	DD	01H
	DD	FLAT:__unwindfunclet$?GetScaleAllData@CHorizontalScale@@QBEXAAV?$CStringT@DV?$StrTraitMFC_DLL@DV?$ChTraitsCRT@D@ATL@@@@@ATL@@@Z$2
	DD	02H
	DD	FLAT:__unwindfunclet$?GetScaleAllData@CHorizontalScale@@QBEXAAV?$CStringT@DV?$StrTraitMFC_DLL@DV?$ChTraitsCRT@D@ATL@@@@@ATL@@@Z$3
	DD	03H
	DD	FLAT:__unwindfunclet$?GetScaleAllData@CHorizontalScale@@QBEXAAV?$CStringT@DV?$StrTraitMFC_DLL@DV?$ChTraitsCRT@D@ATL@@@@@ATL@@@Z$4
	DD	04H
	DD	FLAT:__unwindfunclet$?GetScaleAllData@CHorizontalScale@@QBEXAAV?$CStringT@DV?$StrTraitMFC_DLL@DV?$ChTraitsCRT@D@ATL@@@@@ATL@@@Z$5
	DD	05H
	DD	FLAT:__unwindfunclet$?GetScaleAllData@CHorizontalScale@@QBEXAAV?$CStringT@DV?$StrTraitMFC_DLL@DV?$ChTraitsCRT@D@ATL@@@@@ATL@@@Z$6
xdata$x	ENDS
;	COMDAT xdata$x
xdata$x	SEGMENT
__unwindtable$?GetScaleCompart@CHorizontalScale@@QBE?AVCScaleCompart@@XZ DD 0ffffffffH
	DD	FLAT:__unwindfunclet$?GetScaleCompart@CHorizontalScale@@QBE?AVCScaleCompart@@XZ$1
__ehfuncinfo$?GetScaleCompart@CHorizontalScale@@QBE?AVCScaleCompart@@XZ DD 019930522H
	DD	01H
	DD	FLAT:__unwindtable$?GetScaleCompart@CHorizontalScale@@QBE?AVCScaleCompart@@XZ
	DD	2 DUP(00H)
	DD	2 DUP(00H)
	DD	00H
	DD	01H
xdata$x	ENDS
;	COMDAT xdata$x
xdata$x	SEGMENT
__unwindtable$?SetScaleData@CHorizontalScale@@UAEXPADPAUHWND__@@@Z DD 0ffffffffH
	DD	FLAT:__unwindfunclet$?SetScaleData@CHorizontalScale@@UAEXPADPAUHWND__@@@Z$0
__ehfuncinfo$?SetScaleData@CHorizontalScale@@UAEXPADPAUHWND__@@@Z DD 019930522H
	DD	01H
	DD	FLAT:__unwindtable$?SetScaleData@CHorizontalScale@@UAEXPADPAUHWND__@@@Z
	DD	2 DUP(00H)
	DD	2 DUP(00H)
	DD	00H
	DD	01H
xdata$x	ENDS
;	COMDAT xdata$x
xdata$x	SEGMENT
__unwindtable$??0CHorizontalScale@@QAE@XZ DD 0ffffffffH
	DD	FLAT:__unwindfunclet$??0CHorizontalScale@@QAE@XZ$0
	DD	00H
	DD	FLAT:__unwindfunclet$??0CHorizontalScale@@QAE@XZ$2
__ehfuncinfo$??0CHorizontalScale@@QAE@XZ DD 019930522H
	DD	02H
	DD	FLAT:__unwindtable$??0CHorizontalScale@@QAE@XZ
	DD	2 DUP(00H)
	DD	2 DUP(00H)
	DD	00H
	DD	01H
xdata$x	ENDS
;	COMDAT xdata$x
xdata$x	SEGMENT
__unwindtable$??4CHorizontalScale@@QAEAAV0@ABV0@@Z DD 0ffffffffH
	DD	FLAT:__unwindfunclet$??4CHorizontalScale@@QAEAAV0@ABV0@@Z$0
	DD	00H
	DD	FLAT:__unwindfunclet$??4CHorizontalScale@@QAEAAV0@ABV0@@Z$3
	DD	0ffffffffH
	DD	FLAT:__unwindfunclet$??4CHorizontalScale@@QAEAAV0@ABV0@@Z$7
	DD	0ffffffffH
	DD	FLAT:__unwindfunclet$??4CHorizontalScale@@QAEAAV0@ABV0@@Z$1
__ehfuncinfo$??4CHorizontalScale@@QAEAAV0@ABV0@@Z DD 019930522H
	DD	04H
	DD	FLAT:__unwindtable$??4CHorizontalScale@@QAEAAV0@ABV0@@Z
	DD	2 DUP(00H)
	DD	2 DUP(00H)
	DD	00H
	DD	01H
xdata$x	ENDS
;	COMDAT xdata$x
xdata$x	SEGMENT
__unwindtable$??4CScale@@QAEAAV0@ABV0@@Z DD 0ffffffffH
	DD	FLAT:__unwindfunclet$??4CScale@@QAEAAV0@ABV0@@Z$0
__ehfuncinfo$??4CScale@@QAEAAV0@ABV0@@Z DD 019930522H
	DD	01H
	DD	FLAT:__unwindtable$??4CScale@@QAEAAV0@ABV0@@Z
	DD	2 DUP(00H)
	DD	2 DUP(00H)
	DD	00H
	DD	01H
xdata$x	ENDS
;	COMDAT xdata$x
xdata$x	SEGMENT
__unwindtable$??0CScaleCompart@@QAE@ABV0@@Z DD 0ffffffffH
	DD	FLAT:__unwindfunclet$??0CScaleCompart@@QAE@ABV0@@Z$0
__ehfuncinfo$??0CScaleCompart@@QAE@ABV0@@Z DD 019930522H
	DD	01H
	DD	FLAT:__unwindtable$??0CScaleCompart@@QAE@ABV0@@Z
	DD	2 DUP(00H)
	DD	2 DUP(00H)
	DD	00H
	DD	01H
xdata$x	ENDS
;	COMDAT xdata$x
xdata$x	SEGMENT
__unwindtable$??0CScaleCompart@@QAE@ABV?$CStringT@DV?$StrTraitMFC_DLL@DV?$ChTraitsCRT@D@ATL@@@@@ATL@@0W4TEXTCOMPARTTYPE@CScaleBaseData@@@Z DD 0ffffffffH
	DD	FLAT:__unwindfunclet$??0CScaleCompart@@QAE@ABV?$CStringT@DV?$StrTraitMFC_DLL@DV?$ChTraitsCRT@D@ATL@@@@@ATL@@0W4TEXTCOMPARTTYPE@CScaleBaseData@@@Z$0
__ehfuncinfo$??0CScaleCompart@@QAE@ABV?$CStringT@DV?$StrTraitMFC_DLL@DV?$ChTraitsCRT@D@ATL@@@@@ATL@@0W4TEXTCOMPARTTYPE@CScaleBaseData@@@Z DD 019930522H
	DD	01H
	DD	FLAT:__unwindtable$??0CScaleCompart@@QAE@ABV?$CStringT@DV?$StrTraitMFC_DLL@DV?$ChTraitsCRT@D@ATL@@@@@ATL@@0W4TEXTCOMPARTTYPE@CScaleBaseData@@@Z
	DD	2 DUP(00H)
	DD	2 DUP(00H)
	DD	00H
	DD	01H
xdata$x	ENDS
;	COMDAT xdata$x
xdata$x	SEGMENT
__unwindtable$??0CScaleCompart@@QAE@XZ DD 0ffffffffH
	DD	FLAT:__unwindfunclet$??0CScaleCompart@@QAE@XZ$0
__ehfuncinfo$??0CScaleCompart@@QAE@XZ DD 019930522H
	DD	01H
	DD	FLAT:__unwindtable$??0CScaleCompart@@QAE@XZ
	DD	2 DUP(00H)
	DD	2 DUP(00H)
	DD	00H
	DD	01H
xdata$x	ENDS
;	COMDAT xdata$x
xdata$x	SEGMENT
__unwindtable$??4CScaleCompart@@QAEAAV0@ABV0@@Z DD 0ffffffffH
	DD	FLAT:__unwindfunclet$??4CScaleCompart@@QAEAAV0@ABV0@@Z$0
	DD	0ffffffffH
	DD	FLAT:__unwindfunclet$??4CScaleCompart@@QAEAAV0@ABV0@@Z$1
__ehfuncinfo$??4CScaleCompart@@QAEAAV0@ABV0@@Z DD 019930522H
	DD	02H
	DD	FLAT:__unwindtable$??4CScaleCompart@@QAEAAV0@ABV0@@Z
	DD	2 DUP(00H)
	DD	2 DUP(00H)
	DD	00H
	DD	01H
xdata$x	ENDS
; Function compile flags: /Ogtp
; File D:\git\src\IBK\IBK_DRFN\ProjSrc\SrcChartEx\ChartOCX\ScaleDraw\ScaleBaseData.cpp
;	COMDAT ?IsInitialized@CDisplayDataMinMax@@QBEHXZ
_TEXT	SEGMENT
?IsInitialized@CDisplayDataMinMax@@QBEHXZ PROC		; CDisplayDataMinMax::IsInitialized, COMDAT
; _this$ = ecx

; 1354 : 	return m_dMax != -HUGE_VAL && m_dMin != HUGE_VAL;

  00000	f2 0f 10 41 08	 movsd	 xmm0, QWORD PTR [ecx+8]
  00005	66 0f 2e 05 00
	00 00 00	 ucomisd xmm0, QWORD PTR __real@fff0000000000000
  0000d	9f		 lahf
  0000e	f6 c4 44	 test	 ah, 68			; 00000044H
  00011	7b 18		 jnp	 SHORT $LN3@IsInitiali
  00013	f2 0f 10 01	 movsd	 xmm0, QWORD PTR [ecx]
  00017	66 0f 2e 05 00
	00 00 00	 ucomisd xmm0, QWORD PTR __real@7ff0000000000000
  0001f	9f		 lahf
  00020	f6 c4 44	 test	 ah, 68			; 00000044H
  00023	7b 06		 jnp	 SHORT $LN3@IsInitiali
  00025	b8 01 00 00 00	 mov	 eax, 1

; 1355 : }

  0002a	c3		 ret	 0
$LN3@IsInitiali:

; 1354 : 	return m_dMax != -HUGE_VAL && m_dMin != HUGE_VAL;

  0002b	33 c0		 xor	 eax, eax

; 1355 : }

  0002d	c3		 ret	 0
?IsInitialized@CDisplayDataMinMax@@QBEHXZ ENDP		; CDisplayDataMinMax::IsInitialized
_TEXT	ENDS
; Function compile flags: /Ogtp
; File D:\git\src\IBK\IBK_DRFN\ProjSrc\SrcChartEx\ChartOCX\ScaleDraw\ScaleBaseData.cpp
;	COMDAT ?IsCloseToMaxValue@CDisplayDataMinMax@@QBE_NABN_N@Z
_TEXT	SEGMENT
_dCur$ = 8						; size = 4
_bIsInvert$ = 12					; size = 1
?IsCloseToMaxValue@CDisplayDataMinMax@@QBE_NABN_N@Z PROC ; CDisplayDataMinMax::IsCloseToMaxValue, COMDAT
; _this$ = ecx

; 1343 : {

  00000	55		 push	 ebp
  00001	8b ec		 mov	 ebp, esp

; 1344 : 	// "뒤집기"인 경우 
; 1345 : 	if(bIsInvert)

  00003	80 7d 0c 00	 cmp	 BYTE PTR _bIsInvert$[ebp], 0
  00007	8b 45 08	 mov	 eax, DWORD PTR _dCur$[ebp]
  0000a	f2 0f 10 59 08	 movsd	 xmm3, QWORD PTR [ecx+8]
  0000f	f2 0f 10 11	 movsd	 xmm2, QWORD PTR [ecx]
  00013	f2 0f 5c 18	 subsd	 xmm3, QWORD PTR [eax]
  00017	f2 0f 5c 10	 subsd	 xmm2, QWORD PTR [eax]
  0001b	0f 54 1d 00 00
	00 00		 andps	 xmm3, QWORD PTR __xmm@7fffffffffffffff7fffffffffffffff
  00022	0f 54 15 00 00
	00 00		 andps	 xmm2, QWORD PTR __xmm@7fffffffffffffff7fffffffffffffff
  00029	74 0b		 je	 SHORT $LN2@IsCloseToM

; 1346 : 		return (fabs(m_dMax - dCur) <= fabs(m_dMin - dCur));

  0002b	66 0f 2f d3	 comisd	 xmm2, xmm3

; 1349 : }

  0002f	0f 93 c0	 setae	 al
  00032	5d		 pop	 ebp
  00033	c2 08 00	 ret	 8
$LN2@IsCloseToM:

; 1347 : 	
; 1348 : 	return (fabs(m_dMax - dCur) >= fabs(m_dMin - dCur));

  00036	66 0f 2f da	 comisd	 xmm3, xmm2

; 1349 : }

  0003a	0f 93 c0	 setae	 al
  0003d	5d		 pop	 ebp
  0003e	c2 08 00	 ret	 8
?IsCloseToMaxValue@CDisplayDataMinMax@@QBE_NABN_N@Z ENDP ; CDisplayDataMinMax::IsCloseToMaxValue
_TEXT	ENDS
; Function compile flags: /Ogtp
; File D:\git\src\IBK\IBK_DRFN\ProjSrc\SrcChartEx\ChartOCX\ScaleDraw\ScaleBaseData.cpp
;	COMDAT ?GetMarginDisplayMax@CDisplayDataMinMax@@QBENXZ
_TEXT	SEGMENT
$T1 = -16						; size = 8
_dDifference$2 = -8					; size = 8
$T3 = -8						; size = 8
?GetMarginDisplayMax@CDisplayDataMinMax@@QBENXZ PROC	; CDisplayDataMinMax::GetMarginDisplayMax, COMDAT
; _this$ = ecx

; 1337 : {

  00000	55		 push	 ebp
  00001	8b ec		 mov	 ebp, esp

; 1319 : 	if( m_dMax == -HUGE_VAL || m_dMin == -HUGE_VAL) return 0;

  00003	f2 0f 10 05 00
	00 00 00	 movsd	 xmm0, QWORD PTR __real@fff0000000000000

; 1337 : {

  0000b	83 ec 10	 sub	 esp, 16			; 00000010H
  0000e	56		 push	 esi
  0000f	8b f1		 mov	 esi, ecx

; 1319 : 	if( m_dMax == -HUGE_VAL || m_dMin == -HUGE_VAL) return 0;

  00011	f2 0f 10 4e 08	 movsd	 xmm1, QWORD PTR [esi+8]
  00016	66 0f 2e c8	 ucomisd xmm1, xmm0
  0001a	9f		 lahf
  0001b	f6 c4 44	 test	 ah, 68			; 00000044H
  0001e	7b 54		 jnp	 SHORT $LN5@GetMarginD
  00020	f2 0f 10 1e	 movsd	 xmm3, QWORD PTR [esi]
  00024	66 0f 2e d8	 ucomisd xmm3, xmm0
  00028	9f		 lahf
  00029	f6 c4 44	 test	 ah, 68			; 00000044H
  0002c	7b 46		 jnp	 SHORT $LN5@GetMarginD

; 1320 : 
; 1321 : 	// 두 차가 0.xxx 일 경우에 그 차가 정확하지 않다.
; 1322 : 	// -> 소숫점 부분의 제일 마지막 자릿수(10으로 함)에서 반올림한다.
; 1323 : 	double dDifference = m_dMax - m_dMin;

  0002e	0f 28 d1	 movaps	 xmm2, xmm1
  00031	f2 0f 5c d3	 subsd	 xmm2, xmm3
  00035	66 0f 2f 15 00
	00 00 00	 comisd	 xmm2, QWORD PTR __real@0000000000000000
  0003d	f2 0f 11 55 f8	 movsd	 QWORD PTR _dDifference$2[ebp], xmm2

; 1324 : 	if( dDifference > 0 && dDifference < 1)

  00042	76 29		 jbe	 SHORT $LN6@GetMarginD
  00044	f2 0f 10 05 00
	00 00 00	 movsd	 xmm0, QWORD PTR __real@3ff0000000000000
  0004c	66 0f 2f c2	 comisd	 xmm0, xmm2
  00050	76 1b		 jbe	 SHORT $LN6@GetMarginD

; 1325 : 	{
; 1326 : 		dDifference = CMath::Round(dDifference, 10);

  00052	8d 45 f8	 lea	 eax, DWORD PTR _dDifference$2[ebp]
  00055	6a 0a		 push	 10			; 0000000aH
  00057	50		 push	 eax
  00058	e8 00 00 00 00	 call	 ?Round@CMath@@SANABNH@Z	; CMath::Round
  0005d	f2 0f 10 4e 08	 movsd	 xmm1, QWORD PTR [esi+8]
  00062	83 c4 08	 add	 esp, 8
  00065	dd 5d f8	 fstp	 QWORD PTR _dDifference$2[ebp]
  00068	f2 0f 10 55 f8	 movsd	 xmm2, QWORD PTR _dDifference$2[ebp]
$LN6@GetMarginD:

; 1327 : 	}
; 1328 : 	return dDifference;

  0006d	f2 0f 11 55 f8	 movsd	 QWORD PTR $T3[ebp], xmm2
  00072	eb 08		 jmp	 SHORT $LN8@GetMarginD
$LN5@GetMarginD:
  00074	0f 57 c0	 xorps	 xmm0, xmm0

; 1319 : 	if( m_dMax == -HUGE_VAL || m_dMin == -HUGE_VAL) return 0;

  00077	f2 0f 11 45 f8	 movsd	 QWORD PTR $T3[ebp], xmm0
$LN8@GetMarginD:

; 1338 : 	return (m_dMax + (GetCount() * 0.06));

  0007c	dd 45 f8	 fld	 QWORD PTR $T3[ebp]
  0007f	dc 0d 00 00 00
	00		 fmul	 QWORD PTR __real@3faeb851eb851eb8
  00085	f2 0f 11 4d f0	 movsd	 QWORD PTR $T1[ebp], xmm1
  0008a	5e		 pop	 esi
  0008b	dc 45 f0	 fadd	 QWORD PTR $T1[ebp]

; 1339 : }

  0008e	8b e5		 mov	 esp, ebp
  00090	5d		 pop	 ebp
  00091	c3		 ret	 0
?GetMarginDisplayMax@CDisplayDataMinMax@@QBENXZ ENDP	; CDisplayDataMinMax::GetMarginDisplayMax
_TEXT	ENDS
; Function compile flags: /Ogtp
; File D:\git\src\IBK\IBK_DRFN\ProjSrc\SrcChartEx\ChartOCX\ScaleDraw\ScaleBaseData.cpp
;	COMDAT ?GetMarginDisplayMin@CDisplayDataMinMax@@QBENXZ
_TEXT	SEGMENT
_dDifference$1 = -8					; size = 8
$T2 = -8						; size = 8
?GetMarginDisplayMin@CDisplayDataMinMax@@QBENXZ PROC	; CDisplayDataMinMax::GetMarginDisplayMin, COMDAT
; _this$ = ecx

; 1332 : {

  00000	55		 push	 ebp
  00001	8b ec		 mov	 ebp, esp

; 1319 : 	if( m_dMax == -HUGE_VAL || m_dMin == -HUGE_VAL) return 0;

  00003	f2 0f 10 05 00
	00 00 00	 movsd	 xmm0, QWORD PTR __real@fff0000000000000

; 1332 : {

  0000b	83 ec 08	 sub	 esp, 8
  0000e	56		 push	 esi
  0000f	8b f1		 mov	 esi, ecx

; 1319 : 	if( m_dMax == -HUGE_VAL || m_dMin == -HUGE_VAL) return 0;

  00011	f2 0f 10 4e 08	 movsd	 xmm1, QWORD PTR [esi+8]
  00016	66 0f 2e c8	 ucomisd xmm1, xmm0
  0001a	9f		 lahf
  0001b	f6 c4 44	 test	 ah, 68			; 00000044H
  0001e	7b 5a		 jnp	 SHORT $LN5@GetMarginD
  00020	f2 0f 10 16	 movsd	 xmm2, QWORD PTR [esi]
  00024	66 0f 2e d0	 ucomisd xmm2, xmm0
  00028	9f		 lahf
  00029	f6 c4 44	 test	 ah, 68			; 00000044H
  0002c	7b 4c		 jnp	 SHORT $LN5@GetMarginD

; 1320 : 
; 1321 : 	// 두 차가 0.xxx 일 경우에 그 차가 정확하지 않다.
; 1322 : 	// -> 소숫점 부분의 제일 마지막 자릿수(10으로 함)에서 반올림한다.
; 1323 : 	double dDifference = m_dMax - m_dMin;

  0002e	f2 0f 5c ca	 subsd	 xmm1, xmm2
  00032	66 0f 2f 0d 00
	00 00 00	 comisd	 xmm1, QWORD PTR __real@0000000000000000
  0003a	f2 0f 11 4d f8	 movsd	 QWORD PTR _dDifference$1[ebp], xmm1

; 1324 : 	if( dDifference > 0 && dDifference < 1)

  0003f	76 24		 jbe	 SHORT $LN6@GetMarginD
  00041	f2 0f 10 05 00
	00 00 00	 movsd	 xmm0, QWORD PTR __real@3ff0000000000000
  00049	66 0f 2f c1	 comisd	 xmm0, xmm1
  0004d	76 16		 jbe	 SHORT $LN6@GetMarginD

; 1325 : 	{
; 1326 : 		dDifference = CMath::Round(dDifference, 10);

  0004f	8d 45 f8	 lea	 eax, DWORD PTR _dDifference$1[ebp]
  00052	6a 0a		 push	 10			; 0000000aH
  00054	50		 push	 eax
  00055	e8 00 00 00 00	 call	 ?Round@CMath@@SANABNH@Z	; CMath::Round
  0005a	dd 5d f8	 fstp	 QWORD PTR _dDifference$1[ebp]
  0005d	f2 0f 10 4d f8	 movsd	 xmm1, QWORD PTR _dDifference$1[ebp]
  00062	83 c4 08	 add	 esp, 8
$LN6@GetMarginD:

; 1327 : 	}
; 1328 : 	return dDifference;

  00065	f2 0f 11 4d f8	 movsd	 QWORD PTR $T2[ebp], xmm1

; 1333 : 	return (m_dMin - (GetCount() * 0.06));

  0006a	dd 45 f8	 fld	 QWORD PTR $T2[ebp]
  0006d	dc 0d 00 00 00
	00		 fmul	 QWORD PTR __real@3faeb851eb851eb8
  00073	dc 2e		 fsubr	 QWORD PTR [esi]
  00075	5e		 pop	 esi

; 1334 : }

  00076	8b e5		 mov	 esp, ebp
  00078	5d		 pop	 ebp
  00079	c3		 ret	 0
$LN5@GetMarginD:
  0007a	0f 57 c0	 xorps	 xmm0, xmm0

; 1319 : 	if( m_dMax == -HUGE_VAL || m_dMin == -HUGE_VAL) return 0;

  0007d	f2 0f 11 45 f8	 movsd	 QWORD PTR $T2[ebp], xmm0

; 1333 : 	return (m_dMin - (GetCount() * 0.06));

  00082	dd 45 f8	 fld	 QWORD PTR $T2[ebp]
  00085	dc 0d 00 00 00
	00		 fmul	 QWORD PTR __real@3faeb851eb851eb8
  0008b	dc 2e		 fsubr	 QWORD PTR [esi]
  0008d	5e		 pop	 esi

; 1334 : }

  0008e	8b e5		 mov	 esp, ebp
  00090	5d		 pop	 ebp
  00091	c3		 ret	 0
?GetMarginDisplayMin@CDisplayDataMinMax@@QBENXZ ENDP	; CDisplayDataMinMax::GetMarginDisplayMin
_TEXT	ENDS
; Function compile flags: /Ogtp
; File D:\git\src\IBK\IBK_DRFN\ProjSrc\SrcChartEx\ChartOCX\ScaleDraw\ScaleBaseData.cpp
;	COMDAT ?GetCount@CDisplayDataMinMax@@QBENXZ
_TEXT	SEGMENT
_dDifference$ = -8					; size = 8
?GetCount@CDisplayDataMinMax@@QBENXZ PROC		; CDisplayDataMinMax::GetCount, COMDAT
; _this$ = ecx

; 1317 : {

  00000	55		 push	 ebp
  00001	8b ec		 mov	 ebp, esp

; 1318 : 	// (2007/10/9 - Seung-Won, Bae) Check Not Initialized Scale.
; 1319 : 	if( m_dMax == -HUGE_VAL || m_dMin == -HUGE_VAL) return 0;

  00003	f2 0f 10 49 08	 movsd	 xmm1, QWORD PTR [ecx+8]
  00008	83 ec 08	 sub	 esp, 8
  0000b	f2 0f 10 15 00
	00 00 00	 movsd	 xmm2, QWORD PTR __real@fff0000000000000
  00013	66 0f 2e ca	 ucomisd xmm1, xmm2
  00017	9f		 lahf
  00018	f6 c4 44	 test	 ah, 68			; 00000044H
  0001b	7b 48		 jnp	 SHORT $LN3@GetCount
  0001d	f2 0f 10 01	 movsd	 xmm0, QWORD PTR [ecx]
  00021	66 0f 2e c2	 ucomisd xmm0, xmm2
  00025	9f		 lahf
  00026	f6 c4 44	 test	 ah, 68			; 00000044H
  00029	7b 3a		 jnp	 SHORT $LN3@GetCount

; 1320 : 
; 1321 : 	// 두 차가 0.xxx 일 경우에 그 차가 정확하지 않다.
; 1322 : 	// -> 소숫점 부분의 제일 마지막 자릿수(10으로 함)에서 반올림한다.
; 1323 : 	double dDifference = m_dMax - m_dMin;

  0002b	f2 0f 5c c8	 subsd	 xmm1, xmm0
  0002f	66 0f 2f 0d 00
	00 00 00	 comisd	 xmm1, QWORD PTR __real@0000000000000000
  00037	f2 0f 11 4d f8	 movsd	 QWORD PTR _dDifference$[ebp], xmm1

; 1324 : 	if( dDifference > 0 && dDifference < 1)

  0003c	76 20		 jbe	 SHORT $LN6@GetCount
  0003e	f2 0f 10 05 00
	00 00 00	 movsd	 xmm0, QWORD PTR __real@3ff0000000000000
  00046	66 0f 2f c1	 comisd	 xmm0, xmm1
  0004a	76 12		 jbe	 SHORT $LN6@GetCount

; 1325 : 	{
; 1326 : 		dDifference = CMath::Round(dDifference, 10);

  0004c	8d 45 f8	 lea	 eax, DWORD PTR _dDifference$[ebp]
  0004f	6a 0a		 push	 10			; 0000000aH
  00051	50		 push	 eax
  00052	e8 00 00 00 00	 call	 ?Round@CMath@@SANABNH@Z	; CMath::Round
  00057	83 c4 08	 add	 esp, 8

; 1327 : 	}
; 1328 : 	return dDifference;
; 1329 : }

  0005a	8b e5		 mov	 esp, ebp
  0005c	5d		 pop	 ebp
  0005d	c3		 ret	 0
$LN6@GetCount:

; 1324 : 	if( dDifference > 0 && dDifference < 1)

  0005e	dd 45 f8	 fld	 QWORD PTR _dDifference$[ebp]

; 1327 : 	}
; 1328 : 	return dDifference;
; 1329 : }

  00061	8b e5		 mov	 esp, ebp
  00063	5d		 pop	 ebp
  00064	c3		 ret	 0
$LN3@GetCount:

; 1318 : 	// (2007/10/9 - Seung-Won, Bae) Check Not Initialized Scale.
; 1319 : 	if( m_dMax == -HUGE_VAL || m_dMin == -HUGE_VAL) return 0;

  00065	d9 ee		 fldz

; 1327 : 	}
; 1328 : 	return dDifference;
; 1329 : }

  00067	8b e5		 mov	 esp, ebp
  00069	5d		 pop	 ebp
  0006a	c3		 ret	 0
?GetCount@CDisplayDataMinMax@@QBENXZ ENDP		; CDisplayDataMinMax::GetCount
_TEXT	ENDS
; Function compile flags: /Ogtp
; File D:\git\src\IBK\IBK_DRFN\ProjSrc\SrcChartEx\ChartOCX\ScaleDraw\ScaleBaseData.cpp
;	COMDAT ?GetDisplayMax@CDisplayDataMinMax@@QBENXZ
_TEXT	SEGMENT
?GetDisplayMax@CDisplayDataMinMax@@QBENXZ PROC		; CDisplayDataMinMax::GetDisplayMax, COMDAT
; _this$ = ecx

; 1313 : 	return m_dMax;

  00000	dd 41 08	 fld	 QWORD PTR [ecx+8]

; 1314 : }

  00003	c3		 ret	 0
?GetDisplayMax@CDisplayDataMinMax@@QBENXZ ENDP		; CDisplayDataMinMax::GetDisplayMax
_TEXT	ENDS
; Function compile flags: /Ogtp
; File D:\git\src\IBK\IBK_DRFN\ProjSrc\SrcChartEx\ChartOCX\ScaleDraw\ScaleBaseData.cpp
;	COMDAT ?GetDisplayMin@CDisplayDataMinMax@@QBENXZ
_TEXT	SEGMENT
?GetDisplayMin@CDisplayDataMinMax@@QBENXZ PROC		; CDisplayDataMinMax::GetDisplayMin, COMDAT
; _this$ = ecx

; 1308 : 	return m_dMin;

  00000	dd 01		 fld	 QWORD PTR [ecx]

; 1309 : }

  00002	c3		 ret	 0
?GetDisplayMin@CDisplayDataMinMax@@QBENXZ ENDP		; CDisplayDataMinMax::GetDisplayMin
_TEXT	ENDS
; Function compile flags: /Ogtp
; File D:\git\src\IBK\IBK_DRFN\ProjSrc\SrcChartEx\ChartOCX\ScaleDraw\ScaleBaseData.cpp
;	COMDAT ?Inflate@CDisplayDataMinMax@@QAEXABN0@Z
_TEXT	SEGMENT
_dMinGap$ = 8						; size = 4
_dMaxGap$ = 12						; size = 4
?Inflate@CDisplayDataMinMax@@QAEXABN0@Z PROC		; CDisplayDataMinMax::Inflate, COMDAT
; _this$ = ecx

; 1300 : {

  00000	55		 push	 ebp
  00001	8b ec		 mov	 ebp, esp

; 1301 : 	m_dMin -= dMinGap;

  00003	8b 45 08	 mov	 eax, DWORD PTR _dMinGap$[ebp]
  00006	f2 0f 10 01	 movsd	 xmm0, QWORD PTR [ecx]
  0000a	f2 0f 5c 00	 subsd	 xmm0, QWORD PTR [eax]

; 1302 : 	m_dMax += dMaxGap;

  0000e	8b 45 0c	 mov	 eax, DWORD PTR _dMaxGap$[ebp]
  00011	f2 0f 11 01	 movsd	 QWORD PTR [ecx], xmm0
  00015	f2 0f 10 41 08	 movsd	 xmm0, QWORD PTR [ecx+8]
  0001a	f2 0f 58 00	 addsd	 xmm0, QWORD PTR [eax]
  0001e	f2 0f 11 41 08	 movsd	 QWORD PTR [ecx+8], xmm0

; 1303 : }

  00023	5d		 pop	 ebp
  00024	c2 08 00	 ret	 8
?Inflate@CDisplayDataMinMax@@QAEXABN0@Z ENDP		; CDisplayDataMinMax::Inflate
_TEXT	ENDS
; Function compile flags: /Ogtp
; File D:\git\src\IBK\IBK_DRFN\ProjSrc\SrcChartEx\ChartOCX\ScaleDraw\ScaleBaseData.cpp
;	COMDAT ?Inflate@CDisplayDataMinMax@@QAEXABV1@@Z
_TEXT	SEGMENT
_displayDataMinMax$ = 8					; size = 4
?Inflate@CDisplayDataMinMax@@QAEXABV1@@Z PROC		; CDisplayDataMinMax::Inflate, COMDAT
; _this$ = ecx

; 1294 : {

  00000	55		 push	 ebp
  00001	8b ec		 mov	 ebp, esp

; 1295 : 	if(displayDataMinMax.GetDisplayMin() < m_dMin) m_dMin = displayDataMinMax.GetDisplayMin();

  00003	8b 45 08	 mov	 eax, DWORD PTR _displayDataMinMax$[ebp]
  00006	f2 0f 10 01	 movsd	 xmm0, QWORD PTR [ecx]
  0000a	f2 0f 10 08	 movsd	 xmm1, QWORD PTR [eax]
  0000e	66 0f 2f c1	 comisd	 xmm0, xmm1
  00012	76 04		 jbe	 SHORT $LN2@Inflate
  00014	f2 0f 11 09	 movsd	 QWORD PTR [ecx], xmm1
$LN2@Inflate:

; 1296 : 	if(displayDataMinMax.GetDisplayMax() > m_dMax) m_dMax = displayDataMinMax.GetDisplayMax();

  00018	f2 0f 10 40 08	 movsd	 xmm0, QWORD PTR [eax+8]
  0001d	66 0f 2f 41 08	 comisd	 xmm0, QWORD PTR [ecx+8]
  00022	76 05		 jbe	 SHORT $LN3@Inflate
  00024	f2 0f 11 41 08	 movsd	 QWORD PTR [ecx+8], xmm0
$LN3@Inflate:

; 1297 : }

  00029	5d		 pop	 ebp
  0002a	c2 04 00	 ret	 4
?Inflate@CDisplayDataMinMax@@QAEXABV1@@Z ENDP		; CDisplayDataMinMax::Inflate
_TEXT	ENDS
; Function compile flags: /Ogtp
; File D:\git\src\IBK\IBK_DRFN\ProjSrc\SrcChartEx\ChartOCX\ScaleDraw\ScaleBaseData.cpp
;	COMDAT ?SetDisplayData@CDisplayDataMinMax@@QAEXABN0@Z
_TEXT	SEGMENT
_dMin$ = 8						; size = 4
_dMax$ = 12						; size = 4
?SetDisplayData@CDisplayDataMinMax@@QAEXABN0@Z PROC	; CDisplayDataMinMax::SetDisplayData, COMDAT
; _this$ = ecx

; 1288 : {

  00000	55		 push	 ebp
  00001	8b ec		 mov	 ebp, esp

; 1289 : 	m_dMin = dMin;

  00003	8b 45 08	 mov	 eax, DWORD PTR _dMin$[ebp]
  00006	f2 0f 10 00	 movsd	 xmm0, QWORD PTR [eax]

; 1290 : 	m_dMax = dMax;

  0000a	8b 45 0c	 mov	 eax, DWORD PTR _dMax$[ebp]
  0000d	f2 0f 11 01	 movsd	 QWORD PTR [ecx], xmm0
  00011	f2 0f 10 00	 movsd	 xmm0, QWORD PTR [eax]
  00015	f2 0f 11 41 08	 movsd	 QWORD PTR [ecx+8], xmm0

; 1291 : }

  0001a	5d		 pop	 ebp
  0001b	c2 08 00	 ret	 8
?SetDisplayData@CDisplayDataMinMax@@QAEXABN0@Z ENDP	; CDisplayDataMinMax::SetDisplayData
_TEXT	ENDS
; Function compile flags: /Ogtp
; File D:\git\src\IBK\IBK_DRFN\ProjSrc\SrcChartEx\ChartOCX\ScaleDraw\ScaleBaseData.cpp
;	COMDAT ??0CDisplayDataMinMax@@QAE@ABN0@Z
_TEXT	SEGMENT
_dMin$ = 8						; size = 4
_dMax$ = 12						; size = 4
??0CDisplayDataMinMax@@QAE@ABN0@Z PROC			; CDisplayDataMinMax::CDisplayDataMinMax, COMDAT
; _this$ = ecx

; 1284 : {

  00000	55		 push	 ebp
  00001	8b ec		 mov	 ebp, esp

; 1282 : 	m_dMin(dMin),

  00003	8b 45 08	 mov	 eax, DWORD PTR _dMin$[ebp]
  00006	f2 0f 10 00	 movsd	 xmm0, QWORD PTR [eax]

; 1283 : 	m_dMax(dMax)

  0000a	8b 45 0c	 mov	 eax, DWORD PTR _dMax$[ebp]
  0000d	f2 0f 11 01	 movsd	 QWORD PTR [ecx], xmm0
  00011	f2 0f 10 00	 movsd	 xmm0, QWORD PTR [eax]

; 1285 : }

  00015	8b c1		 mov	 eax, ecx
  00017	f2 0f 11 41 08	 movsd	 QWORD PTR [ecx+8], xmm0
  0001c	5d		 pop	 ebp
  0001d	c2 08 00	 ret	 8
??0CDisplayDataMinMax@@QAE@ABN0@Z ENDP			; CDisplayDataMinMax::CDisplayDataMinMax
_TEXT	ENDS
; Function compile flags: /Ogtp
; File D:\git\src\IBK\IBK_DRFN\ProjSrc\SrcChartEx\ChartOCX\ScaleDraw\ScaleBaseData.cpp
;	COMDAT ??0CDisplayDataMinMax@@QAE@XZ
_TEXT	SEGMENT
??0CDisplayDataMinMax@@QAE@XZ PROC			; CDisplayDataMinMax::CDisplayDataMinMax, COMDAT
; _this$ = ecx

; 1276 : 	m_dMin( -HUGE_VAL),

  00000	0f 28 05 00 00
	00 00		 movaps	 xmm0, XMMWORD PTR __xmm@fff0000000000000fff0000000000000

; 1279 : }

  00007	8b c1		 mov	 eax, ecx
  00009	0f 11 01	 movups	 XMMWORD PTR [ecx], xmm0
  0000c	c3		 ret	 0
??0CDisplayDataMinMax@@QAE@XZ ENDP			; CDisplayDataMinMax::CDisplayDataMinMax
_TEXT	ENDS
; Function compile flags: /Ogtp
; File D:\git\src\IBK\IBK_DRFN\ProjSrc\SrcChartEx\ChartOCX\ScaleDraw\ScaleBaseData.cpp
;	COMDAT ??4CDisplayDataMinMax@@QAEAAV0@ABV0@@Z
_TEXT	SEGMENT
_displayDataMinMax$ = 8					; size = 4
??4CDisplayDataMinMax@@QAEAAV0@ABV0@@Z PROC		; CDisplayDataMinMax::operator=, COMDAT
; _this$ = ecx

; 1266 : {

  00000	55		 push	 ebp
  00001	8b ec		 mov	 ebp, esp

; 1267 : 	if(this == &displayDataMinMax)

  00003	8b 45 08	 mov	 eax, DWORD PTR _displayDataMinMax$[ebp]
  00006	3b c8		 cmp	 ecx, eax
  00008	74 12		 je	 SHORT $LN6@operator

; 1268 : 		return *this;
; 1269 : 
; 1270 : 	m_dMin = displayDataMinMax.GetDisplayMin();

  0000a	f2 0f 10 00	 movsd	 xmm0, QWORD PTR [eax]
  0000e	f2 0f 11 01	 movsd	 QWORD PTR [ecx], xmm0

; 1271 : 	m_dMax = displayDataMinMax.GetDisplayMax();

  00012	f2 0f 10 40 08	 movsd	 xmm0, QWORD PTR [eax+8]
  00017	f2 0f 11 41 08	 movsd	 QWORD PTR [ecx+8], xmm0
$LN6@operator:

; 1272 : 	return *this;
; 1273 : }

  0001c	8b c1		 mov	 eax, ecx
  0001e	5d		 pop	 ebp
  0001f	c2 04 00	 ret	 4
??4CDisplayDataMinMax@@QAEAAV0@ABV0@@Z ENDP		; CDisplayDataMinMax::operator=
_TEXT	ENDS
; Function compile flags: /Ogtp
;	COMDAT ??4CVertScaleRegion@@QAEAAV0@$$QAV0@@Z
_TEXT	SEGMENT
___that$ = 8						; size = 4
??4CVertScaleRegion@@QAEAAV0@$$QAV0@@Z PROC		; CVertScaleRegion::operator=, COMDAT
; _this$ = ecx
  00000	55		 push	 ebp
  00001	8b ec		 mov	 ebp, esp
  00003	8b 45 08	 mov	 eax, DWORD PTR ___that$[ebp]
  00006	0f 10 00	 movups	 xmm0, XMMWORD PTR [eax]
  00009	0f 11 01	 movups	 XMMWORD PTR [ecx], xmm0
  0000c	0f 10 40 10	 movups	 xmm0, XMMWORD PTR [eax+16]
  00010	8b c1		 mov	 eax, ecx
  00012	0f 11 41 10	 movups	 XMMWORD PTR [ecx+16], xmm0
  00016	5d		 pop	 ebp
  00017	c2 04 00	 ret	 4
??4CVertScaleRegion@@QAEAAV0@$$QAV0@@Z ENDP		; CVertScaleRegion::operator=
_TEXT	ENDS
; Function compile flags: /Ogtp
;	COMDAT ??4CVertScaleRegion@@QAEAAV0@ABV0@@Z
_TEXT	SEGMENT
___that$ = 8						; size = 4
??4CVertScaleRegion@@QAEAAV0@ABV0@@Z PROC		; CVertScaleRegion::operator=, COMDAT
; _this$ = ecx
  00000	55		 push	 ebp
  00001	8b ec		 mov	 ebp, esp
  00003	8b 45 08	 mov	 eax, DWORD PTR ___that$[ebp]
  00006	0f 10 00	 movups	 xmm0, XMMWORD PTR [eax]
  00009	0f 11 01	 movups	 XMMWORD PTR [ecx], xmm0
  0000c	0f 10 40 10	 movups	 xmm0, XMMWORD PTR [eax+16]
  00010	8b c1		 mov	 eax, ecx
  00012	0f 11 41 10	 movups	 XMMWORD PTR [ecx+16], xmm0
  00016	5d		 pop	 ebp
  00017	c2 04 00	 ret	 4
??4CVertScaleRegion@@QAEAAV0@ABV0@@Z ENDP		; CVertScaleRegion::operator=
_TEXT	ENDS
; Function compile flags: /Ogtp
; File D:\git\src\IBK\IBK_DRFN\ProjSrc\SrcChartEx\ChartOCX\ScaleDraw\ScaleBaseData.cpp
; File C:\Program Files (x86)\Microsoft Visual Studio\2019\Community\VC\Tools\MSVC\14.29.30133\atlmfc\include\atltypes.h
; File D:\git\src\IBK\IBK_DRFN\ProjSrc\SrcChartEx\ChartOCX\ScaleDraw\ScaleBaseData.cpp
; File C:\Program Files (x86)\Microsoft Visual Studio\2019\Community\VC\Tools\MSVC\14.29.30133\atlmfc\include\atltypes.h
; File D:\git\src\IBK\IBK_DRFN\ProjSrc\SrcChartEx\ChartOCX\ScaleDraw\ScaleBaseData.cpp
; File C:\Program Files (x86)\Microsoft Visual Studio\2019\Community\VC\Tools\MSVC\14.29.30133\atlmfc\include\atltypes.h
; File D:\git\src\IBK\IBK_DRFN\ProjSrc\SrcChartEx\ChartOCX\ScaleDraw\ScaleBaseData.cpp
;	COMDAT ?PointInRegion@CVertScaleRegion@@QBE_NABVCPoint@@@Z
_TEXT	SEGMENT
_point$ = 8						; size = 4
?PointInRegion@CVertScaleRegion@@QBE_NABVCPoint@@@Z PROC ; CVertScaleRegion::PointInRegion, COMDAT
; _this$ = ecx

; 1258 : {

  00000	55		 push	 ebp
  00001	8b ec		 mov	 ebp, esp
  00003	56		 push	 esi

; 1259 : 	return (m_rightScaleRegion.PtInRect(point) || m_leftScaleRegion.PtInRect(point));

  00004	8b 75 08	 mov	 esi, DWORD PTR _point$[ebp]
  00007	57		 push	 edi
  00008	8b f9		 mov	 edi, ecx
; File C:\Program Files (x86)\Microsoft Visual Studio\2019\Community\VC\Tools\MSVC\14.29.30133\atlmfc\include\atltypes.h

; 648  : 	return ::PtInRect(this, point);

  0000a	ff 76 04	 push	 DWORD PTR [esi+4]
  0000d	ff 36		 push	 DWORD PTR [esi]
; File D:\git\src\IBK\IBK_DRFN\ProjSrc\SrcChartEx\ChartOCX\ScaleDraw\ScaleBaseData.cpp

; 1259 : 	return (m_rightScaleRegion.PtInRect(point) || m_leftScaleRegion.PtInRect(point));

  0000f	8d 47 10	 lea	 eax, DWORD PTR [edi+16]
; File C:\Program Files (x86)\Microsoft Visual Studio\2019\Community\VC\Tools\MSVC\14.29.30133\atlmfc\include\atltypes.h

; 648  : 	return ::PtInRect(this, point);

  00012	50		 push	 eax
  00013	ff 15 00 00 00
	00		 call	 DWORD PTR __imp__PtInRect@12
; File D:\git\src\IBK\IBK_DRFN\ProjSrc\SrcChartEx\ChartOCX\ScaleDraw\ScaleBaseData.cpp

; 1259 : 	return (m_rightScaleRegion.PtInRect(point) || m_leftScaleRegion.PtInRect(point));

  00019	85 c0		 test	 eax, eax
  0001b	75 18		 jne	 SHORT $LN3@PointInReg
; File C:\Program Files (x86)\Microsoft Visual Studio\2019\Community\VC\Tools\MSVC\14.29.30133\atlmfc\include\atltypes.h

; 648  : 	return ::PtInRect(this, point);

  0001d	ff 76 04	 push	 DWORD PTR [esi+4]
  00020	ff 36		 push	 DWORD PTR [esi]
  00022	57		 push	 edi
  00023	ff 15 00 00 00
	00		 call	 DWORD PTR __imp__PtInRect@12
; File D:\git\src\IBK\IBK_DRFN\ProjSrc\SrcChartEx\ChartOCX\ScaleDraw\ScaleBaseData.cpp

; 1259 : 	return (m_rightScaleRegion.PtInRect(point) || m_leftScaleRegion.PtInRect(point));

  00029	85 c0		 test	 eax, eax
  0002b	75 08		 jne	 SHORT $LN3@PointInReg
  0002d	5f		 pop	 edi
  0002e	32 c0		 xor	 al, al

; 1260 : }

  00030	5e		 pop	 esi
  00031	5d		 pop	 ebp
  00032	c2 04 00	 ret	 4
$LN3@PointInReg:
  00035	5f		 pop	 edi

; 1259 : 	return (m_rightScaleRegion.PtInRect(point) || m_leftScaleRegion.PtInRect(point));

  00036	b0 01		 mov	 al, 1

; 1260 : }

  00038	5e		 pop	 esi
  00039	5d		 pop	 ebp
  0003a	c2 04 00	 ret	 4
?PointInRegion@CVertScaleRegion@@QBE_NABVCPoint@@@Z ENDP ; CVertScaleRegion::PointInRegion
_TEXT	ENDS
; Function compile flags: /Ogtp
; File D:\git\src\IBK\IBK_DRFN\ProjSrc\SrcChartEx\ChartOCX\ScaleDraw\ScaleBaseData.cpp
; File C:\Program Files (x86)\Microsoft Visual Studio\2019\Community\VC\Tools\MSVC\14.29.30133\atlmfc\include\atltypes.h
; File D:\git\src\IBK\IBK_DRFN\ProjSrc\SrcChartEx\ChartOCX\ScaleDraw\ScaleBaseData.cpp
;	COMDAT ?GetRightScaleGridRegion@CVertScaleRegion@@QBE?AVCRect@@XZ
_TEXT	SEGMENT
___$ReturnUdt$ = 8					; size = 4
?GetRightScaleGridRegion@CVertScaleRegion@@QBE?AVCRect@@XZ PROC ; CVertScaleRegion::GetRightScaleGridRegion, COMDAT
; _this$ = ecx

; 1248 : {

  00000	55		 push	 ebp
  00001	8b ec		 mov	 ebp, esp
  00003	56		 push	 esi
  00004	8b f1		 mov	 esi, ecx
  00006	57		 push	 edi
; File C:\Program Files (x86)\Microsoft Visual Studio\2019\Community\VC\Tools\MSVC\14.29.30133\atlmfc\include\atltypes.h

; 576  : 	return right - left;

  00007	8b 7d 08	 mov	 edi, DWORD PTR ___$ReturnUdt$[ebp]
  0000a	8b 56 18	 mov	 edx, DWORD PTR [esi+24]
  0000d	2b 56 10	 sub	 edx, DWORD PTR [esi+16]
  00010	8b 46 14	 mov	 eax, DWORD PTR [esi+20]
  00013	89 47 04	 mov	 DWORD PTR [edi+4], eax
  00016	8b 4e 10	 mov	 ecx, DWORD PTR [esi+16]
  00019	89 0f		 mov	 DWORD PTR [edi], ecx
  0001b	8b 46 10	 mov	 eax, DWORD PTR [esi+16]
  0001e	8b 4e 1c	 mov	 ecx, DWORD PTR [esi+28]
  00021	89 4f 0c	 mov	 DWORD PTR [edi+12], ecx
; File D:\git\src\IBK\IBK_DRFN\ProjSrc\SrcChartEx\ChartOCX\ScaleDraw\ScaleBaseData.cpp

; 1249 : 	if(m_rightScaleRegion.Width() <= 0)

  00024	85 d2		 test	 edx, edx
  00026	7e 03		 jle	 SHORT $LN10@GetRightSc

; 1250 : 		return CRect(m_rightScaleRegion.left, m_rightScaleRegion.top,
; 1251 : 			m_rightScaleRegion.left, m_rightScaleRegion.bottom);
; 1252 : 
; 1253 : 	return CRect(m_rightScaleRegion.left, m_rightScaleRegion.top,

  00028	83 c0 04	 add	 eax, 4
$LN10@GetRightSc:

; 1254 : 		m_rightScaleRegion.left +MARGIN, m_rightScaleRegion.bottom);
; 1255 : }

  0002b	89 47 08	 mov	 DWORD PTR [edi+8], eax
  0002e	8b c7		 mov	 eax, edi
  00030	5f		 pop	 edi
  00031	5e		 pop	 esi
  00032	5d		 pop	 ebp
  00033	c2 04 00	 ret	 4
?GetRightScaleGridRegion@CVertScaleRegion@@QBE?AVCRect@@XZ ENDP ; CVertScaleRegion::GetRightScaleGridRegion
_TEXT	ENDS
; Function compile flags: /Ogtp
; File D:\git\src\IBK\IBK_DRFN\ProjSrc\SrcChartEx\ChartOCX\ScaleDraw\ScaleBaseData.cpp
; File C:\Program Files (x86)\Microsoft Visual Studio\2019\Community\VC\Tools\MSVC\14.29.30133\atlmfc\include\atltypes.h
; File D:\git\src\IBK\IBK_DRFN\ProjSrc\SrcChartEx\ChartOCX\ScaleDraw\ScaleBaseData.cpp
; File C:\Program Files (x86)\Microsoft Visual Studio\2019\Community\VC\Tools\MSVC\14.29.30133\atlmfc\include\atltypes.h
; File D:\git\src\IBK\IBK_DRFN\ProjSrc\SrcChartEx\ChartOCX\ScaleDraw\ScaleBaseData.cpp
; File C:\Program Files (x86)\Microsoft Visual Studio\2019\Community\VC\Tools\MSVC\14.29.30133\atlmfc\include\atltypes.h
; File D:\git\src\IBK\IBK_DRFN\ProjSrc\SrcChartEx\ChartOCX\ScaleDraw\ScaleBaseData.cpp
; File C:\Program Files (x86)\Microsoft Visual Studio\2019\Community\VC\Tools\MSVC\14.29.30133\atlmfc\include\atltypes.h
; File D:\git\src\IBK\IBK_DRFN\ProjSrc\SrcChartEx\ChartOCX\ScaleDraw\ScaleBaseData.cpp
; File C:\Program Files (x86)\Microsoft Visual Studio\2019\Community\VC\Tools\MSVC\14.29.30133\atlmfc\include\atltypes.h
; File D:\git\src\IBK\IBK_DRFN\ProjSrc\SrcChartEx\ChartOCX\ScaleDraw\ScaleBaseData.cpp
;	COMDAT ?GetRightScaleTextRegion@CVertScaleRegion@@QBE?AVCRect@@XZ
_TEXT	SEGMENT
___$ReturnUdt$ = 8					; size = 4
?GetRightScaleTextRegion@CVertScaleRegion@@QBE?AVCRect@@XZ PROC ; CVertScaleRegion::GetRightScaleTextRegion, COMDAT
; _this$ = ecx

; 1238 : {

  00000	55		 push	 ebp
  00001	8b ec		 mov	 ebp, esp
  00003	53		 push	 ebx
  00004	56		 push	 esi
  00005	8b f1		 mov	 esi, ecx
  00007	57		 push	 edi
; File C:\Program Files (x86)\Microsoft Visual Studio\2019\Community\VC\Tools\MSVC\14.29.30133\atlmfc\include\atltypes.h

; 576  : 	return right - left;

  00008	8b 7d 08	 mov	 edi, DWORD PTR ___$ReturnUdt$[ebp]
  0000b	8b 56 18	 mov	 edx, DWORD PTR [esi+24]
  0000e	8b 46 10	 mov	 eax, DWORD PTR [esi+16]
  00011	2b d0		 sub	 edx, eax
  00013	8b 4e 14	 mov	 ecx, DWORD PTR [esi+20]
  00016	89 4f 04	 mov	 DWORD PTR [edi+4], ecx
  00019	8b 5e 18	 mov	 ebx, DWORD PTR [esi+24]
  0001c	8b 4e 1c	 mov	 ecx, DWORD PTR [esi+28]
  0001f	89 4f 0c	 mov	 DWORD PTR [edi+12], ecx
; File D:\git\src\IBK\IBK_DRFN\ProjSrc\SrcChartEx\ChartOCX\ScaleDraw\ScaleBaseData.cpp

; 1239 : 	if(m_rightScaleRegion.Width() <= 0)

  00022	85 d2		 test	 edx, edx
  00024	7f 0e		 jg	 SHORT $LN2@GetRightSc
; File C:\Program Files (x86)\Microsoft Visual Studio\2019\Community\VC\Tools\MSVC\14.29.30133\atlmfc\include\atltypes.h

; 540  : 	left = l;

  00026	89 07		 mov	 DWORD PTR [edi], eax
; File D:\git\src\IBK\IBK_DRFN\ProjSrc\SrcChartEx\ChartOCX\ScaleDraw\ScaleBaseData.cpp

; 1245 : }

  00028	8b c7		 mov	 eax, edi
; File C:\Program Files (x86)\Microsoft Visual Studio\2019\Community\VC\Tools\MSVC\14.29.30133\atlmfc\include\atltypes.h

; 542  : 	right = r;

  0002a	89 5f 08	 mov	 DWORD PTR [edi+8], ebx
  0002d	5f		 pop	 edi
; File D:\git\src\IBK\IBK_DRFN\ProjSrc\SrcChartEx\ChartOCX\ScaleDraw\ScaleBaseData.cpp

; 1245 : }

  0002e	5e		 pop	 esi
  0002f	5b		 pop	 ebx
  00030	5d		 pop	 ebp
  00031	c2 04 00	 ret	 4
$LN2@GetRightSc:

; 1243 : 	return CRect(m_rightScaleRegion.left +MARGIN*2, m_rightScaleRegion.top,

  00034	83 c0 08	 add	 eax, 8
; File C:\Program Files (x86)\Microsoft Visual Studio\2019\Community\VC\Tools\MSVC\14.29.30133\atlmfc\include\atltypes.h

; 540  : 	left = l;

  00037	89 07		 mov	 DWORD PTR [edi], eax
; File D:\git\src\IBK\IBK_DRFN\ProjSrc\SrcChartEx\ChartOCX\ScaleDraw\ScaleBaseData.cpp

; 1243 : 	return CRect(m_rightScaleRegion.left +MARGIN*2, m_rightScaleRegion.top,

  00039	8d 43 fc	 lea	 eax, DWORD PTR [ebx-4]
; File C:\Program Files (x86)\Microsoft Visual Studio\2019\Community\VC\Tools\MSVC\14.29.30133\atlmfc\include\atltypes.h

; 542  : 	right = r;

  0003c	89 47 08	 mov	 DWORD PTR [edi+8], eax
; File D:\git\src\IBK\IBK_DRFN\ProjSrc\SrcChartEx\ChartOCX\ScaleDraw\ScaleBaseData.cpp

; 1245 : }

  0003f	8b c7		 mov	 eax, edi
  00041	5f		 pop	 edi
  00042	5e		 pop	 esi
  00043	5b		 pop	 ebx
  00044	5d		 pop	 ebp
  00045	c2 04 00	 ret	 4
?GetRightScaleTextRegion@CVertScaleRegion@@QBE?AVCRect@@XZ ENDP ; CVertScaleRegion::GetRightScaleTextRegion
_TEXT	ENDS
; Function compile flags: /Ogtp
; File D:\git\src\IBK\IBK_DRFN\ProjSrc\SrcChartEx\ChartOCX\ScaleDraw\ScaleBaseData.cpp
; File C:\Program Files (x86)\Microsoft Visual Studio\2019\Community\VC\Tools\MSVC\14.29.30133\atlmfc\include\atltypes.h
; File D:\git\src\IBK\IBK_DRFN\ProjSrc\SrcChartEx\ChartOCX\ScaleDraw\ScaleBaseData.cpp
;	COMDAT ?GetLeftScaleGridRegion@CVertScaleRegion@@QBE?AVCRect@@XZ
_TEXT	SEGMENT
___$ReturnUdt$ = 8					; size = 4
?GetLeftScaleGridRegion@CVertScaleRegion@@QBE?AVCRect@@XZ PROC ; CVertScaleRegion::GetLeftScaleGridRegion, COMDAT
; _this$ = ecx

; 1228 : {

  00000	55		 push	 ebp
  00001	8b ec		 mov	 ebp, esp
  00003	56		 push	 esi
  00004	8b f1		 mov	 esi, ecx
  00006	57		 push	 edi
; File C:\Program Files (x86)\Microsoft Visual Studio\2019\Community\VC\Tools\MSVC\14.29.30133\atlmfc\include\atltypes.h

; 576  : 	return right - left;

  00007	8b 7d 08	 mov	 edi, DWORD PTR ___$ReturnUdt$[ebp]
  0000a	8b 46 08	 mov	 eax, DWORD PTR [esi+8]
  0000d	8b d0		 mov	 edx, eax
  0000f	2b 16		 sub	 edx, DWORD PTR [esi]
  00011	8b 4e 04	 mov	 ecx, DWORD PTR [esi+4]
  00014	89 4f 04	 mov	 DWORD PTR [edi+4], ecx
  00017	8b 4e 08	 mov	 ecx, DWORD PTR [esi+8]
  0001a	89 4f 08	 mov	 DWORD PTR [edi+8], ecx
  0001d	8b 4e 0c	 mov	 ecx, DWORD PTR [esi+12]
  00020	89 4f 0c	 mov	 DWORD PTR [edi+12], ecx
; File D:\git\src\IBK\IBK_DRFN\ProjSrc\SrcChartEx\ChartOCX\ScaleDraw\ScaleBaseData.cpp

; 1229 : 	if(m_leftScaleRegion.Width() <= 0)

  00023	85 d2		 test	 edx, edx
  00025	7e 03		 jle	 SHORT $LN10@GetLeftSca

; 1230 : 		return CRect(m_leftScaleRegion.right, m_leftScaleRegion.top,
; 1231 : 			m_leftScaleRegion.right, m_leftScaleRegion.bottom);
; 1232 : 
; 1233 : 	return CRect(m_leftScaleRegion.right -MARGIN, m_leftScaleRegion.top,

  00027	83 c0 fc	 add	 eax, -4			; fffffffcH
$LN10@GetLeftSca:

; 1234 : 		m_leftScaleRegion.right, m_leftScaleRegion.bottom);
; 1235 : }

  0002a	89 07		 mov	 DWORD PTR [edi], eax
  0002c	8b c7		 mov	 eax, edi
  0002e	5f		 pop	 edi
  0002f	5e		 pop	 esi
  00030	5d		 pop	 ebp
  00031	c2 04 00	 ret	 4
?GetLeftScaleGridRegion@CVertScaleRegion@@QBE?AVCRect@@XZ ENDP ; CVertScaleRegion::GetLeftScaleGridRegion
_TEXT	ENDS
; Function compile flags: /Ogtp
; File D:\git\src\IBK\IBK_DRFN\ProjSrc\SrcChartEx\ChartOCX\ScaleDraw\ScaleBaseData.cpp
; File C:\Program Files (x86)\Microsoft Visual Studio\2019\Community\VC\Tools\MSVC\14.29.30133\atlmfc\include\atltypes.h
; File D:\git\src\IBK\IBK_DRFN\ProjSrc\SrcChartEx\ChartOCX\ScaleDraw\ScaleBaseData.cpp
; File C:\Program Files (x86)\Microsoft Visual Studio\2019\Community\VC\Tools\MSVC\14.29.30133\atlmfc\include\atltypes.h
; File D:\git\src\IBK\IBK_DRFN\ProjSrc\SrcChartEx\ChartOCX\ScaleDraw\ScaleBaseData.cpp
; File C:\Program Files (x86)\Microsoft Visual Studio\2019\Community\VC\Tools\MSVC\14.29.30133\atlmfc\include\atltypes.h
; File D:\git\src\IBK\IBK_DRFN\ProjSrc\SrcChartEx\ChartOCX\ScaleDraw\ScaleBaseData.cpp
; File C:\Program Files (x86)\Microsoft Visual Studio\2019\Community\VC\Tools\MSVC\14.29.30133\atlmfc\include\atltypes.h
; File D:\git\src\IBK\IBK_DRFN\ProjSrc\SrcChartEx\ChartOCX\ScaleDraw\ScaleBaseData.cpp
; File C:\Program Files (x86)\Microsoft Visual Studio\2019\Community\VC\Tools\MSVC\14.29.30133\atlmfc\include\atltypes.h
; File D:\git\src\IBK\IBK_DRFN\ProjSrc\SrcChartEx\ChartOCX\ScaleDraw\ScaleBaseData.cpp
; File C:\Program Files (x86)\Microsoft Visual Studio\2019\Community\VC\Tools\MSVC\14.29.30133\atlmfc\include\atltypes.h
; File D:\git\src\IBK\IBK_DRFN\ProjSrc\SrcChartEx\ChartOCX\ScaleDraw\ScaleBaseData.cpp
; File C:\Program Files (x86)\Microsoft Visual Studio\2019\Community\VC\Tools\MSVC\14.29.30133\atlmfc\include\atltypes.h
; File D:\git\src\IBK\IBK_DRFN\ProjSrc\SrcChartEx\ChartOCX\ScaleDraw\ScaleBaseData.cpp
;	COMDAT ?GetLeftScaleTextRegion@CVertScaleRegion@@QBE?AVCRect@@XZ
_TEXT	SEGMENT
___$ReturnUdt$ = 8					; size = 4
?GetLeftScaleTextRegion@CVertScaleRegion@@QBE?AVCRect@@XZ PROC ; CVertScaleRegion::GetLeftScaleTextRegion, COMDAT
; _this$ = ecx

; 1218 : {

  00000	55		 push	 ebp
  00001	8b ec		 mov	 ebp, esp
; File C:\Program Files (x86)\Microsoft Visual Studio\2019\Community\VC\Tools\MSVC\14.29.30133\atlmfc\include\atltypes.h

; 576  : 	return right - left;

  00003	8b 51 08	 mov	 edx, DWORD PTR [ecx+8]
  00006	8b 41 04	 mov	 eax, DWORD PTR [ecx+4]
; File D:\git\src\IBK\IBK_DRFN\ProjSrc\SrcChartEx\ChartOCX\ScaleDraw\ScaleBaseData.cpp

; 1218 : {

  00009	53		 push	 ebx
  0000a	56		 push	 esi
; File C:\Program Files (x86)\Microsoft Visual Studio\2019\Community\VC\Tools\MSVC\14.29.30133\atlmfc\include\atltypes.h

; 576  : 	return right - left;

  0000b	8b 75 08	 mov	 esi, DWORD PTR ___$ReturnUdt$[ebp]
; File D:\git\src\IBK\IBK_DRFN\ProjSrc\SrcChartEx\ChartOCX\ScaleDraw\ScaleBaseData.cpp

; 1218 : {

  0000e	57		 push	 edi
; File C:\Program Files (x86)\Microsoft Visual Studio\2019\Community\VC\Tools\MSVC\14.29.30133\atlmfc\include\atltypes.h

; 576  : 	return right - left;

  0000f	8b 39		 mov	 edi, DWORD PTR [ecx]
  00011	2b d7		 sub	 edx, edi
  00013	89 46 04	 mov	 DWORD PTR [esi+4], eax
  00016	8b 59 08	 mov	 ebx, DWORD PTR [ecx+8]
  00019	8b 49 0c	 mov	 ecx, DWORD PTR [ecx+12]
  0001c	89 4e 0c	 mov	 DWORD PTR [esi+12], ecx
; File D:\git\src\IBK\IBK_DRFN\ProjSrc\SrcChartEx\ChartOCX\ScaleDraw\ScaleBaseData.cpp

; 1219 : 	if(m_leftScaleRegion.Width() <= 0)

  0001f	85 d2		 test	 edx, edx
  00021	7f 0e		 jg	 SHORT $LN2@GetLeftSca
; File C:\Program Files (x86)\Microsoft Visual Studio\2019\Community\VC\Tools\MSVC\14.29.30133\atlmfc\include\atltypes.h

; 540  : 	left = l;

  00023	89 3e		 mov	 DWORD PTR [esi], edi
; File D:\git\src\IBK\IBK_DRFN\ProjSrc\SrcChartEx\ChartOCX\ScaleDraw\ScaleBaseData.cpp

; 1225 : }

  00025	8b c6		 mov	 eax, esi
  00027	5f		 pop	 edi
; File C:\Program Files (x86)\Microsoft Visual Studio\2019\Community\VC\Tools\MSVC\14.29.30133\atlmfc\include\atltypes.h

; 542  : 	right = r;

  00028	89 5e 08	 mov	 DWORD PTR [esi+8], ebx
; File D:\git\src\IBK\IBK_DRFN\ProjSrc\SrcChartEx\ChartOCX\ScaleDraw\ScaleBaseData.cpp

; 1225 : }

  0002b	5e		 pop	 esi
  0002c	5b		 pop	 ebx
  0002d	5d		 pop	 ebp
  0002e	c2 04 00	 ret	 4
$LN2@GetLeftSca:

; 1223 : 	return CRect(m_leftScaleRegion.left +MARGIN, m_leftScaleRegion.top,

  00031	8d 47 04	 lea	 eax, DWORD PTR [edi+4]
; File C:\Program Files (x86)\Microsoft Visual Studio\2019\Community\VC\Tools\MSVC\14.29.30133\atlmfc\include\atltypes.h

; 540  : 	left = l;

  00034	89 06		 mov	 DWORD PTR [esi], eax
; File D:\git\src\IBK\IBK_DRFN\ProjSrc\SrcChartEx\ChartOCX\ScaleDraw\ScaleBaseData.cpp

; 1223 : 	return CRect(m_leftScaleRegion.left +MARGIN, m_leftScaleRegion.top,

  00036	8d 43 f8	 lea	 eax, DWORD PTR [ebx-8]
; File C:\Program Files (x86)\Microsoft Visual Studio\2019\Community\VC\Tools\MSVC\14.29.30133\atlmfc\include\atltypes.h

; 542  : 	right = r;

  00039	89 46 08	 mov	 DWORD PTR [esi+8], eax
; File D:\git\src\IBK\IBK_DRFN\ProjSrc\SrcChartEx\ChartOCX\ScaleDraw\ScaleBaseData.cpp

; 1225 : }

  0003c	8b c6		 mov	 eax, esi
  0003e	5f		 pop	 edi
  0003f	5e		 pop	 esi
  00040	5b		 pop	 ebx
  00041	5d		 pop	 ebp
  00042	c2 04 00	 ret	 4
?GetLeftScaleTextRegion@CVertScaleRegion@@QBE?AVCRect@@XZ ENDP ; CVertScaleRegion::GetLeftScaleTextRegion
_TEXT	ENDS
; Function compile flags: /Ogtp
; File D:\git\src\IBK\IBK_DRFN\ProjSrc\SrcChartEx\ChartOCX\ScaleDraw\ScaleBaseData.cpp
;	COMDAT ?GetRightScaleRegion@CVertScaleRegion@@QBE?AVCRect@@XZ
_TEXT	SEGMENT
___$ReturnUdt$ = 8					; size = 4
?GetRightScaleRegion@CVertScaleRegion@@QBE?AVCRect@@XZ PROC ; CVertScaleRegion::GetRightScaleRegion, COMDAT
; _this$ = ecx

; 1213 : {

  00000	55		 push	 ebp
  00001	8b ec		 mov	 ebp, esp

; 1214 : 	return m_rightScaleRegion;

  00003	8b 45 08	 mov	 eax, DWORD PTR ___$ReturnUdt$[ebp]
  00006	0f 10 41 10	 movups	 xmm0, XMMWORD PTR [ecx+16]
  0000a	0f 11 00	 movups	 XMMWORD PTR [eax], xmm0

; 1215 : }

  0000d	5d		 pop	 ebp
  0000e	c2 04 00	 ret	 4
?GetRightScaleRegion@CVertScaleRegion@@QBE?AVCRect@@XZ ENDP ; CVertScaleRegion::GetRightScaleRegion
_TEXT	ENDS
; Function compile flags: /Ogtp
; File D:\git\src\IBK\IBK_DRFN\ProjSrc\SrcChartEx\ChartOCX\ScaleDraw\ScaleBaseData.cpp
;	COMDAT ?GetLeftScaleRegion@CVertScaleRegion@@QBE?AVCRect@@XZ
_TEXT	SEGMENT
___$ReturnUdt$ = 8					; size = 4
?GetLeftScaleRegion@CVertScaleRegion@@QBE?AVCRect@@XZ PROC ; CVertScaleRegion::GetLeftScaleRegion, COMDAT
; _this$ = ecx

; 1208 : {

  00000	55		 push	 ebp
  00001	8b ec		 mov	 ebp, esp

; 1209 : 	return m_leftScaleRegion;

  00003	8b 45 08	 mov	 eax, DWORD PTR ___$ReturnUdt$[ebp]
  00006	0f 10 01	 movups	 xmm0, XMMWORD PTR [ecx]
  00009	0f 11 00	 movups	 XMMWORD PTR [eax], xmm0

; 1210 : }

  0000c	5d		 pop	 ebp
  0000d	c2 04 00	 ret	 4
?GetLeftScaleRegion@CVertScaleRegion@@QBE?AVCRect@@XZ ENDP ; CVertScaleRegion::GetLeftScaleRegion
_TEXT	ENDS
; Function compile flags: /Ogtp
; File D:\git\src\IBK\IBK_DRFN\ProjSrc\SrcChartEx\ChartOCX\ScaleDraw\ScaleBaseData.cpp
;	COMDAT ?OffsetRegion@CVertScaleRegion@@QAEXHH@Z
_TEXT	SEGMENT
_nTop$ = 8						; size = 4
_nBottom$ = 12						; size = 4
?OffsetRegion@CVertScaleRegion@@QAEXHH@Z PROC		; CVertScaleRegion::OffsetRegion, COMDAT
; _this$ = ecx

; 1199 : {

  00000	55		 push	 ebp
  00001	8b ec		 mov	 ebp, esp

; 1200 : 	m_leftScaleRegion.top += nTop;

  00003	8b 55 08	 mov	 edx, DWORD PTR _nTop$[ebp]

; 1201 : 	m_leftScaleRegion.bottom += nBottom;

  00006	8b 45 0c	 mov	 eax, DWORD PTR _nBottom$[ebp]
  00009	01 51 04	 add	 DWORD PTR [ecx+4], edx
  0000c	01 41 0c	 add	 DWORD PTR [ecx+12], eax

; 1202 : 	m_rightScaleRegion.top += nTop;

  0000f	01 51 14	 add	 DWORD PTR [ecx+20], edx

; 1203 : 	m_rightScaleRegion.bottom += nBottom;

  00012	01 41 1c	 add	 DWORD PTR [ecx+28], eax

; 1204 : }

  00015	5d		 pop	 ebp
  00016	c2 08 00	 ret	 8
?OffsetRegion@CVertScaleRegion@@QAEXHH@Z ENDP		; CVertScaleRegion::OffsetRegion
_TEXT	ENDS
; Function compile flags: /Ogtp
; File D:\git\src\IBK\IBK_DRFN\ProjSrc\SrcChartEx\ChartOCX\ScaleDraw\ScaleBaseData.cpp
;	COMDAT ?SetRightScaleRegion@CVertScaleRegion@@QAEXABVCRect@@@Z
_TEXT	SEGMENT
_region$ = 8						; size = 4
?SetRightScaleRegion@CVertScaleRegion@@QAEXABVCRect@@@Z PROC ; CVertScaleRegion::SetRightScaleRegion, COMDAT
; _this$ = ecx

; 1194 : {

  00000	55		 push	 ebp
  00001	8b ec		 mov	 ebp, esp

; 1195 : 	m_rightScaleRegion = region;

  00003	8b 45 08	 mov	 eax, DWORD PTR _region$[ebp]
  00006	0f 10 00	 movups	 xmm0, XMMWORD PTR [eax]
  00009	0f 11 41 10	 movups	 XMMWORD PTR [ecx+16], xmm0

; 1196 : }

  0000d	5d		 pop	 ebp
  0000e	c2 04 00	 ret	 4
?SetRightScaleRegion@CVertScaleRegion@@QAEXABVCRect@@@Z ENDP ; CVertScaleRegion::SetRightScaleRegion
_TEXT	ENDS
; Function compile flags: /Ogtp
; File D:\git\src\IBK\IBK_DRFN\ProjSrc\SrcChartEx\ChartOCX\ScaleDraw\ScaleBaseData.cpp
;	COMDAT ?SetLeftScaleRegion@CVertScaleRegion@@QAEXABVCRect@@@Z
_TEXT	SEGMENT
_region$ = 8						; size = 4
?SetLeftScaleRegion@CVertScaleRegion@@QAEXABVCRect@@@Z PROC ; CVertScaleRegion::SetLeftScaleRegion, COMDAT
; _this$ = ecx

; 1189 : {

  00000	55		 push	 ebp
  00001	8b ec		 mov	 ebp, esp

; 1190 : 	m_leftScaleRegion = region;

  00003	8b 45 08	 mov	 eax, DWORD PTR _region$[ebp]
  00006	0f 10 00	 movups	 xmm0, XMMWORD PTR [eax]
  00009	0f 11 01	 movups	 XMMWORD PTR [ecx], xmm0

; 1191 : }

  0000c	5d		 pop	 ebp
  0000d	c2 04 00	 ret	 4
?SetLeftScaleRegion@CVertScaleRegion@@QAEXABVCRect@@@Z ENDP ; CVertScaleRegion::SetLeftScaleRegion
_TEXT	ENDS
; Function compile flags: /Ogtp
; File D:\git\src\IBK\IBK_DRFN\ProjSrc\SrcChartEx\ChartOCX\ScaleDraw\ScaleBaseData.cpp
; File C:\Program Files (x86)\Microsoft Visual Studio\2019\Community\VC\Tools\MSVC\14.29.30133\atlmfc\include\atltypes.h
; File D:\git\src\IBK\IBK_DRFN\ProjSrc\SrcChartEx\ChartOCX\ScaleDraw\ScaleBaseData.cpp
; File C:\Program Files (x86)\Microsoft Visual Studio\2019\Community\VC\Tools\MSVC\14.29.30133\atlmfc\include\atltypes.h
; File D:\git\src\IBK\IBK_DRFN\ProjSrc\SrcChartEx\ChartOCX\ScaleDraw\ScaleBaseData.cpp
;	COMDAT ??0CVertScaleRegion@@QAE@XZ
_TEXT	SEGMENT
??0CVertScaleRegion@@QAE@XZ PROC			; CVertScaleRegion::CVertScaleRegion, COMDAT
; _this$ = ecx
; File C:\Program Files (x86)\Microsoft Visual Studio\2019\Community\VC\Tools\MSVC\14.29.30133\atlmfc\include\atltypes.h

; 540  : 	left = l;

  00000	c7 01 00 00 00
	00		 mov	 DWORD PTR [ecx], 0
; File D:\git\src\IBK\IBK_DRFN\ProjSrc\SrcChartEx\ChartOCX\ScaleDraw\ScaleBaseData.cpp

; 1185 : }

  00006	8b c1		 mov	 eax, ecx
; File C:\Program Files (x86)\Microsoft Visual Studio\2019\Community\VC\Tools\MSVC\14.29.30133\atlmfc\include\atltypes.h

; 541  : 	top = t;

  00008	c7 41 04 00 00
	00 00		 mov	 DWORD PTR [ecx+4], 0

; 542  : 	right = r;

  0000f	c7 41 08 00 00
	00 00		 mov	 DWORD PTR [ecx+8], 0

; 543  : 	bottom = b;

  00016	c7 41 0c 00 00
	00 00		 mov	 DWORD PTR [ecx+12], 0

; 540  : 	left = l;

  0001d	c7 41 10 00 00
	00 00		 mov	 DWORD PTR [ecx+16], 0

; 541  : 	top = t;

  00024	c7 41 14 00 00
	00 00		 mov	 DWORD PTR [ecx+20], 0

; 542  : 	right = r;

  0002b	c7 41 18 00 00
	00 00		 mov	 DWORD PTR [ecx+24], 0

; 543  : 	bottom = b;

  00032	c7 41 1c 00 00
	00 00		 mov	 DWORD PTR [ecx+28], 0
; File D:\git\src\IBK\IBK_DRFN\ProjSrc\SrcChartEx\ChartOCX\ScaleDraw\ScaleBaseData.cpp

; 1185 : }

  00039	c3		 ret	 0
??0CVertScaleRegion@@QAE@XZ ENDP			; CVertScaleRegion::CVertScaleRegion
_TEXT	ENDS
; Function compile flags: /Ogtp
;	COMDAT ??4CHorzScaleRegion@@QAEAAV0@$$QAV0@@Z
_TEXT	SEGMENT
___that$ = 8						; size = 4
??4CHorzScaleRegion@@QAEAAV0@$$QAV0@@Z PROC		; CHorzScaleRegion::operator=, COMDAT
; _this$ = ecx
  00000	55		 push	 ebp
  00001	8b ec		 mov	 ebp, esp
  00003	8b 45 08	 mov	 eax, DWORD PTR ___that$[ebp]
  00006	0f 10 00	 movups	 xmm0, XMMWORD PTR [eax]
  00009	0f 11 01	 movups	 XMMWORD PTR [ecx], xmm0
  0000c	0f 10 40 10	 movups	 xmm0, XMMWORD PTR [eax+16]
  00010	8b c1		 mov	 eax, ecx
  00012	0f 11 41 10	 movups	 XMMWORD PTR [ecx+16], xmm0
  00016	5d		 pop	 ebp
  00017	c2 04 00	 ret	 4
??4CHorzScaleRegion@@QAEAAV0@$$QAV0@@Z ENDP		; CHorzScaleRegion::operator=
_TEXT	ENDS
; Function compile flags: /Ogtp
;	COMDAT ??4CHorzScaleRegion@@QAEAAV0@ABV0@@Z
_TEXT	SEGMENT
___that$ = 8						; size = 4
??4CHorzScaleRegion@@QAEAAV0@ABV0@@Z PROC		; CHorzScaleRegion::operator=, COMDAT
; _this$ = ecx
  00000	55		 push	 ebp
  00001	8b ec		 mov	 ebp, esp
  00003	8b 45 08	 mov	 eax, DWORD PTR ___that$[ebp]
  00006	0f 10 00	 movups	 xmm0, XMMWORD PTR [eax]
  00009	0f 11 01	 movups	 XMMWORD PTR [ecx], xmm0
  0000c	0f 10 40 10	 movups	 xmm0, XMMWORD PTR [eax+16]
  00010	8b c1		 mov	 eax, ecx
  00012	0f 11 41 10	 movups	 XMMWORD PTR [ecx+16], xmm0
  00016	5d		 pop	 ebp
  00017	c2 04 00	 ret	 4
??4CHorzScaleRegion@@QAEAAV0@ABV0@@Z ENDP		; CHorzScaleRegion::operator=
_TEXT	ENDS
; Function compile flags: /Ogtp
; File D:\git\src\IBK\IBK_DRFN\ProjSrc\SrcChartEx\ChartOCX\ScaleDraw\ScaleBaseData.cpp
; File C:\Program Files (x86)\Microsoft Visual Studio\2019\Community\VC\Tools\MSVC\14.29.30133\atlmfc\include\atltypes.h
; File D:\git\src\IBK\IBK_DRFN\ProjSrc\SrcChartEx\ChartOCX\ScaleDraw\ScaleBaseData.cpp
; File C:\Program Files (x86)\Microsoft Visual Studio\2019\Community\VC\Tools\MSVC\14.29.30133\atlmfc\include\atltypes.h
; File D:\git\src\IBK\IBK_DRFN\ProjSrc\SrcChartEx\ChartOCX\ScaleDraw\ScaleBaseData.cpp
; File C:\Program Files (x86)\Microsoft Visual Studio\2019\Community\VC\Tools\MSVC\14.29.30133\atlmfc\include\atltypes.h
; File D:\git\src\IBK\IBK_DRFN\ProjSrc\SrcChartEx\ChartOCX\ScaleDraw\ScaleBaseData.cpp
;	COMDAT ?PointInRegion@CHorzScaleRegion@@QBE_NABVCPoint@@@Z
_TEXT	SEGMENT
_point$ = 8						; size = 4
?PointInRegion@CHorzScaleRegion@@QBE_NABVCPoint@@@Z PROC ; CHorzScaleRegion::PointInRegion, COMDAT
; _this$ = ecx

; 1173 : {

  00000	55		 push	 ebp
  00001	8b ec		 mov	 ebp, esp
  00003	56		 push	 esi

; 1174 : 	return (m_topScaleRegion.PtInRect(point) || m_bottomScaleRegion.PtInRect(point));

  00004	8b 75 08	 mov	 esi, DWORD PTR _point$[ebp]
  00007	57		 push	 edi
  00008	8b f9		 mov	 edi, ecx
; File C:\Program Files (x86)\Microsoft Visual Studio\2019\Community\VC\Tools\MSVC\14.29.30133\atlmfc\include\atltypes.h

; 648  : 	return ::PtInRect(this, point);

  0000a	ff 76 04	 push	 DWORD PTR [esi+4]
  0000d	ff 36		 push	 DWORD PTR [esi]
  0000f	57		 push	 edi
  00010	ff 15 00 00 00
	00		 call	 DWORD PTR __imp__PtInRect@12
; File D:\git\src\IBK\IBK_DRFN\ProjSrc\SrcChartEx\ChartOCX\ScaleDraw\ScaleBaseData.cpp

; 1174 : 	return (m_topScaleRegion.PtInRect(point) || m_bottomScaleRegion.PtInRect(point));

  00016	85 c0		 test	 eax, eax
  00018	75 1b		 jne	 SHORT $LN3@PointInReg
; File C:\Program Files (x86)\Microsoft Visual Studio\2019\Community\VC\Tools\MSVC\14.29.30133\atlmfc\include\atltypes.h

; 648  : 	return ::PtInRect(this, point);

  0001a	ff 76 04	 push	 DWORD PTR [esi+4]
; File D:\git\src\IBK\IBK_DRFN\ProjSrc\SrcChartEx\ChartOCX\ScaleDraw\ScaleBaseData.cpp

; 1174 : 	return (m_topScaleRegion.PtInRect(point) || m_bottomScaleRegion.PtInRect(point));

  0001d	8d 47 10	 lea	 eax, DWORD PTR [edi+16]
; File C:\Program Files (x86)\Microsoft Visual Studio\2019\Community\VC\Tools\MSVC\14.29.30133\atlmfc\include\atltypes.h

; 648  : 	return ::PtInRect(this, point);

  00020	ff 36		 push	 DWORD PTR [esi]
  00022	50		 push	 eax
  00023	ff 15 00 00 00
	00		 call	 DWORD PTR __imp__PtInRect@12
; File D:\git\src\IBK\IBK_DRFN\ProjSrc\SrcChartEx\ChartOCX\ScaleDraw\ScaleBaseData.cpp

; 1174 : 	return (m_topScaleRegion.PtInRect(point) || m_bottomScaleRegion.PtInRect(point));

  00029	85 c0		 test	 eax, eax
  0002b	75 08		 jne	 SHORT $LN3@PointInReg
  0002d	5f		 pop	 edi
  0002e	32 c0		 xor	 al, al

; 1175 : }

  00030	5e		 pop	 esi
  00031	5d		 pop	 ebp
  00032	c2 04 00	 ret	 4
$LN3@PointInReg:
  00035	5f		 pop	 edi

; 1174 : 	return (m_topScaleRegion.PtInRect(point) || m_bottomScaleRegion.PtInRect(point));

  00036	b0 01		 mov	 al, 1

; 1175 : }

  00038	5e		 pop	 esi
  00039	5d		 pop	 ebp
  0003a	c2 04 00	 ret	 4
?PointInRegion@CHorzScaleRegion@@QBE_NABVCPoint@@@Z ENDP ; CHorzScaleRegion::PointInRegion
_TEXT	ENDS
; Function compile flags: /Ogtp
; File D:\git\src\IBK\IBK_DRFN\ProjSrc\SrcChartEx\ChartOCX\ScaleDraw\ScaleBaseData.cpp
;	COMDAT ?GetBottomScaleRegion@CHorzScaleRegion@@QBE?AVCRect@@XZ
_TEXT	SEGMENT
___$ReturnUdt$ = 8					; size = 4
?GetBottomScaleRegion@CHorzScaleRegion@@QBE?AVCRect@@XZ PROC ; CHorzScaleRegion::GetBottomScaleRegion, COMDAT
; _this$ = ecx

; 1168 : {

  00000	55		 push	 ebp
  00001	8b ec		 mov	 ebp, esp

; 1169 : 	return m_bottomScaleRegion;

  00003	8b 45 08	 mov	 eax, DWORD PTR ___$ReturnUdt$[ebp]
  00006	0f 10 41 10	 movups	 xmm0, XMMWORD PTR [ecx+16]
  0000a	0f 11 00	 movups	 XMMWORD PTR [eax], xmm0

; 1170 : }

  0000d	5d		 pop	 ebp
  0000e	c2 04 00	 ret	 4
?GetBottomScaleRegion@CHorzScaleRegion@@QBE?AVCRect@@XZ ENDP ; CHorzScaleRegion::GetBottomScaleRegion
_TEXT	ENDS
; Function compile flags: /Ogtp
; File D:\git\src\IBK\IBK_DRFN\ProjSrc\SrcChartEx\ChartOCX\ScaleDraw\ScaleBaseData.cpp
;	COMDAT ?GetTopScaleRegion@CHorzScaleRegion@@QBE?AVCRect@@XZ
_TEXT	SEGMENT
___$ReturnUdt$ = 8					; size = 4
?GetTopScaleRegion@CHorzScaleRegion@@QBE?AVCRect@@XZ PROC ; CHorzScaleRegion::GetTopScaleRegion, COMDAT
; _this$ = ecx

; 1163 : {

  00000	55		 push	 ebp
  00001	8b ec		 mov	 ebp, esp

; 1164 : 	return m_topScaleRegion;

  00003	8b 45 08	 mov	 eax, DWORD PTR ___$ReturnUdt$[ebp]
  00006	0f 10 01	 movups	 xmm0, XMMWORD PTR [ecx]
  00009	0f 11 00	 movups	 XMMWORD PTR [eax], xmm0

; 1165 : }

  0000c	5d		 pop	 ebp
  0000d	c2 04 00	 ret	 4
?GetTopScaleRegion@CHorzScaleRegion@@QBE?AVCRect@@XZ ENDP ; CHorzScaleRegion::GetTopScaleRegion
_TEXT	ENDS
; Function compile flags: /Ogtp
; File D:\git\src\IBK\IBK_DRFN\ProjSrc\SrcChartEx\ChartOCX\ScaleDraw\ScaleBaseData.cpp
;	COMDAT ?SetBottomScaleRegion@CHorzScaleRegion@@QAEXABVCRect@@@Z
_TEXT	SEGMENT
_region$ = 8						; size = 4
?SetBottomScaleRegion@CHorzScaleRegion@@QAEXABVCRect@@@Z PROC ; CHorzScaleRegion::SetBottomScaleRegion, COMDAT
; _this$ = ecx

; 1158 : {

  00000	55		 push	 ebp
  00001	8b ec		 mov	 ebp, esp

; 1159 : 	m_bottomScaleRegion = region;

  00003	8b 45 08	 mov	 eax, DWORD PTR _region$[ebp]
  00006	0f 10 00	 movups	 xmm0, XMMWORD PTR [eax]
  00009	0f 11 41 10	 movups	 XMMWORD PTR [ecx+16], xmm0

; 1160 : }

  0000d	5d		 pop	 ebp
  0000e	c2 04 00	 ret	 4
?SetBottomScaleRegion@CHorzScaleRegion@@QAEXABVCRect@@@Z ENDP ; CHorzScaleRegion::SetBottomScaleRegion
_TEXT	ENDS
; Function compile flags: /Ogtp
; File D:\git\src\IBK\IBK_DRFN\ProjSrc\SrcChartEx\ChartOCX\ScaleDraw\ScaleBaseData.cpp
;	COMDAT ?SetTopScaleRegion@CHorzScaleRegion@@QAEXABVCRect@@@Z
_TEXT	SEGMENT
_region$ = 8						; size = 4
?SetTopScaleRegion@CHorzScaleRegion@@QAEXABVCRect@@@Z PROC ; CHorzScaleRegion::SetTopScaleRegion, COMDAT
; _this$ = ecx

; 1153 : {

  00000	55		 push	 ebp
  00001	8b ec		 mov	 ebp, esp

; 1154 : 	m_topScaleRegion = region;

  00003	8b 45 08	 mov	 eax, DWORD PTR _region$[ebp]
  00006	0f 10 00	 movups	 xmm0, XMMWORD PTR [eax]
  00009	0f 11 01	 movups	 XMMWORD PTR [ecx], xmm0

; 1155 : }

  0000c	5d		 pop	 ebp
  0000d	c2 04 00	 ret	 4
?SetTopScaleRegion@CHorzScaleRegion@@QAEXABVCRect@@@Z ENDP ; CHorzScaleRegion::SetTopScaleRegion
_TEXT	ENDS
; Function compile flags: /Ogtp
; File D:\git\src\IBK\IBK_DRFN\ProjSrc\SrcChartEx\ChartOCX\ScaleDraw\ScaleBaseData.cpp
; File C:\Program Files (x86)\Microsoft Visual Studio\2019\Community\VC\Tools\MSVC\14.29.30133\atlmfc\include\atltypes.h
; File D:\git\src\IBK\IBK_DRFN\ProjSrc\SrcChartEx\ChartOCX\ScaleDraw\ScaleBaseData.cpp
; File C:\Program Files (x86)\Microsoft Visual Studio\2019\Community\VC\Tools\MSVC\14.29.30133\atlmfc\include\atltypes.h
; File D:\git\src\IBK\IBK_DRFN\ProjSrc\SrcChartEx\ChartOCX\ScaleDraw\ScaleBaseData.cpp
;	COMDAT ??0CHorzScaleRegion@@QAE@XZ
_TEXT	SEGMENT
??0CHorzScaleRegion@@QAE@XZ PROC			; CHorzScaleRegion::CHorzScaleRegion, COMDAT
; _this$ = ecx
; File C:\Program Files (x86)\Microsoft Visual Studio\2019\Community\VC\Tools\MSVC\14.29.30133\atlmfc\include\atltypes.h

; 540  : 	left = l;

  00000	c7 01 00 00 00
	00		 mov	 DWORD PTR [ecx], 0
; File D:\git\src\IBK\IBK_DRFN\ProjSrc\SrcChartEx\ChartOCX\ScaleDraw\ScaleBaseData.cpp

; 1149 : }

  00006	8b c1		 mov	 eax, ecx
; File C:\Program Files (x86)\Microsoft Visual Studio\2019\Community\VC\Tools\MSVC\14.29.30133\atlmfc\include\atltypes.h

; 541  : 	top = t;

  00008	c7 41 04 00 00
	00 00		 mov	 DWORD PTR [ecx+4], 0

; 542  : 	right = r;

  0000f	c7 41 08 00 00
	00 00		 mov	 DWORD PTR [ecx+8], 0

; 543  : 	bottom = b;

  00016	c7 41 0c 00 00
	00 00		 mov	 DWORD PTR [ecx+12], 0

; 540  : 	left = l;

  0001d	c7 41 10 00 00
	00 00		 mov	 DWORD PTR [ecx+16], 0

; 541  : 	top = t;

  00024	c7 41 14 00 00
	00 00		 mov	 DWORD PTR [ecx+20], 0

; 542  : 	right = r;

  0002b	c7 41 18 00 00
	00 00		 mov	 DWORD PTR [ecx+24], 0

; 543  : 	bottom = b;

  00032	c7 41 1c 00 00
	00 00		 mov	 DWORD PTR [ecx+28], 0
; File D:\git\src\IBK\IBK_DRFN\ProjSrc\SrcChartEx\ChartOCX\ScaleDraw\ScaleBaseData.cpp

; 1149 : }

  00039	c3		 ret	 0
??0CHorzScaleRegion@@QAE@XZ ENDP			; CHorzScaleRegion::CHorzScaleRegion
_TEXT	ENDS
; Function compile flags: /Ogtp
;	COMDAT ??4CVertScaleRegionWidth@@QAEAAV0@$$QAV0@@Z
_TEXT	SEGMENT
___that$ = 8						; size = 4
??4CVertScaleRegionWidth@@QAEAAV0@$$QAV0@@Z PROC	; CVertScaleRegionWidth::operator=, COMDAT
; _this$ = ecx
  00000	55		 push	 ebp
  00001	8b ec		 mov	 ebp, esp
  00003	8b 55 08	 mov	 edx, DWORD PTR ___that$[ebp]
  00006	8b 02		 mov	 eax, DWORD PTR [edx]
  00008	89 01		 mov	 DWORD PTR [ecx], eax
  0000a	8b 42 04	 mov	 eax, DWORD PTR [edx+4]
  0000d	89 41 04	 mov	 DWORD PTR [ecx+4], eax
  00010	8b c1		 mov	 eax, ecx
  00012	5d		 pop	 ebp
  00013	c2 04 00	 ret	 4
??4CVertScaleRegionWidth@@QAEAAV0@$$QAV0@@Z ENDP	; CVertScaleRegionWidth::operator=
_TEXT	ENDS
; Function compile flags: /Ogtp
;	COMDAT ??4CVertScaleRegionWidth@@QAEAAV0@ABV0@@Z
_TEXT	SEGMENT
___that$ = 8						; size = 4
??4CVertScaleRegionWidth@@QAEAAV0@ABV0@@Z PROC		; CVertScaleRegionWidth::operator=, COMDAT
; _this$ = ecx
  00000	55		 push	 ebp
  00001	8b ec		 mov	 ebp, esp
  00003	8b 45 08	 mov	 eax, DWORD PTR ___that$[ebp]
  00006	8b 10		 mov	 edx, DWORD PTR [eax]
  00008	8b 40 04	 mov	 eax, DWORD PTR [eax+4]
  0000b	89 41 04	 mov	 DWORD PTR [ecx+4], eax
  0000e	8b c1		 mov	 eax, ecx
  00010	89 11		 mov	 DWORD PTR [ecx], edx
  00012	5d		 pop	 ebp
  00013	c2 04 00	 ret	 4
??4CVertScaleRegionWidth@@QAEAAV0@ABV0@@Z ENDP		; CVertScaleRegionWidth::operator=
_TEXT	ENDS
; Function compile flags: /Ogtp
; File D:\git\src\IBK\IBK_DRFN\ProjSrc\SrcChartEx\ChartOCX\ScaleDraw\ScaleBaseData.cpp
;	COMDAT ?GetRightVertScaleRegionWidth@CVertScaleRegionWidth@@QBEHXZ
_TEXT	SEGMENT
?GetRightVertScaleRegionWidth@CVertScaleRegionWidth@@QBEHXZ PROC ; CVertScaleRegionWidth::GetRightVertScaleRegionWidth, COMDAT
; _this$ = ecx

; 1138 : 	return m_nRightWidth;

  00000	8b 41 04	 mov	 eax, DWORD PTR [ecx+4]

; 1139 : }

  00003	c3		 ret	 0
?GetRightVertScaleRegionWidth@CVertScaleRegionWidth@@QBEHXZ ENDP ; CVertScaleRegionWidth::GetRightVertScaleRegionWidth
_TEXT	ENDS
; Function compile flags: /Ogtp
; File D:\git\src\IBK\IBK_DRFN\ProjSrc\SrcChartEx\ChartOCX\ScaleDraw\ScaleBaseData.cpp
;	COMDAT ?GetLeftVertScaleRegionWidth@CVertScaleRegionWidth@@QBEHXZ
_TEXT	SEGMENT
?GetLeftVertScaleRegionWidth@CVertScaleRegionWidth@@QBEHXZ PROC ; CVertScaleRegionWidth::GetLeftVertScaleRegionWidth, COMDAT
; _this$ = ecx

; 1133 : 	return m_nLeftWidth;

  00000	8b 01		 mov	 eax, DWORD PTR [ecx]

; 1134 : }

  00002	c3		 ret	 0
?GetLeftVertScaleRegionWidth@CVertScaleRegionWidth@@QBEHXZ ENDP ; CVertScaleRegionWidth::GetLeftVertScaleRegionWidth
_TEXT	ENDS
; Function compile flags: /Ogtp
; File D:\git\src\IBK\IBK_DRFN\ProjSrc\SrcChartEx\ChartOCX\ScaleDraw\ScaleBaseData.cpp
;	COMDAT ?SetRightVertScaleRegionWidth@CVertScaleRegionWidth@@QAEXH@Z
_TEXT	SEGMENT
_rightWidth$ = 8					; size = 4
?SetRightVertScaleRegionWidth@CVertScaleRegionWidth@@QAEXH@Z PROC ; CVertScaleRegionWidth::SetRightVertScaleRegionWidth, COMDAT
; _this$ = ecx

; 1127 : {

  00000	55		 push	 ebp
  00001	8b ec		 mov	 ebp, esp

; 1128 : 	m_nRightWidth = rightWidth;

  00003	8b 45 08	 mov	 eax, DWORD PTR _rightWidth$[ebp]
  00006	89 41 04	 mov	 DWORD PTR [ecx+4], eax

; 1129 : }

  00009	5d		 pop	 ebp
  0000a	c2 04 00	 ret	 4
?SetRightVertScaleRegionWidth@CVertScaleRegionWidth@@QAEXH@Z ENDP ; CVertScaleRegionWidth::SetRightVertScaleRegionWidth
_TEXT	ENDS
; Function compile flags: /Ogtp
; File D:\git\src\IBK\IBK_DRFN\ProjSrc\SrcChartEx\ChartOCX\ScaleDraw\ScaleBaseData.cpp
;	COMDAT ?SetLeftVertScaleRegionWidth@CVertScaleRegionWidth@@QAEXH@Z
_TEXT	SEGMENT
_leftWidth$ = 8						; size = 4
?SetLeftVertScaleRegionWidth@CVertScaleRegionWidth@@QAEXH@Z PROC ; CVertScaleRegionWidth::SetLeftVertScaleRegionWidth, COMDAT
; _this$ = ecx

; 1122 : {

  00000	55		 push	 ebp
  00001	8b ec		 mov	 ebp, esp

; 1123 : 	m_nLeftWidth = leftWidth;

  00003	8b 45 08	 mov	 eax, DWORD PTR _leftWidth$[ebp]
  00006	89 01		 mov	 DWORD PTR [ecx], eax

; 1124 : }

  00008	5d		 pop	 ebp
  00009	c2 04 00	 ret	 4
?SetLeftVertScaleRegionWidth@CVertScaleRegionWidth@@QAEXH@Z ENDP ; CVertScaleRegionWidth::SetLeftVertScaleRegionWidth
_TEXT	ENDS
; Function compile flags: /Ogtp
; File D:\git\src\IBK\IBK_DRFN\ProjSrc\SrcChartEx\ChartOCX\ScaleDraw\ScaleBaseData.cpp
;	COMDAT ??0CVertScaleRegionWidth@@QAE@HH@Z
_TEXT	SEGMENT
_leftWidth$ = 8						; size = 4
_rightWidth$ = 12					; size = 4
??0CVertScaleRegionWidth@@QAE@HH@Z PROC			; CVertScaleRegionWidth::CVertScaleRegionWidth, COMDAT
; _this$ = ecx

; 1117 : {

  00000	55		 push	 ebp
  00001	8b ec		 mov	 ebp, esp

; 1115 : 	m_nLeftWidth(leftWidth),

  00003	8b 45 08	 mov	 eax, DWORD PTR _leftWidth$[ebp]
  00006	89 01		 mov	 DWORD PTR [ecx], eax

; 1116 : 	m_nRightWidth(rightWidth)

  00008	8b 45 0c	 mov	 eax, DWORD PTR _rightWidth$[ebp]
  0000b	89 41 04	 mov	 DWORD PTR [ecx+4], eax

; 1118 : }

  0000e	8b c1		 mov	 eax, ecx
  00010	5d		 pop	 ebp
  00011	c2 08 00	 ret	 8
??0CVertScaleRegionWidth@@QAE@HH@Z ENDP			; CVertScaleRegionWidth::CVertScaleRegionWidth
_TEXT	ENDS
; Function compile flags: /Ogtp
; File D:\git\src\IBK\IBK_DRFN\ProjSrc\SrcChartEx\ChartOCX\ScaleDraw\ScaleBaseData.cpp
;	COMDAT ??0CVertScaleRegionWidth@@QAE@XZ
_TEXT	SEGMENT
??0CVertScaleRegionWidth@@QAE@XZ PROC			; CVertScaleRegionWidth::CVertScaleRegionWidth, COMDAT
; _this$ = ecx

; 1109 : 	m_nLeftWidth(0),

  00000	c7 01 00 00 00
	00		 mov	 DWORD PTR [ecx], 0

; 1112 : }

  00006	8b c1		 mov	 eax, ecx
  00008	c7 41 04 00 00
	00 00		 mov	 DWORD PTR [ecx+4], 0
  0000f	c3		 ret	 0
??0CVertScaleRegionWidth@@QAE@XZ ENDP			; CVertScaleRegionWidth::CVertScaleRegionWidth
_TEXT	ENDS
; Function compile flags: /Ogtp
;	COMDAT ??4CHorzScaleRegionHeight@@QAEAAV0@$$QAV0@@Z
_TEXT	SEGMENT
___that$ = 8						; size = 4
??4CHorzScaleRegionHeight@@QAEAAV0@$$QAV0@@Z PROC	; CHorzScaleRegionHeight::operator=, COMDAT
; _this$ = ecx
  00000	55		 push	 ebp
  00001	8b ec		 mov	 ebp, esp
  00003	8b 55 08	 mov	 edx, DWORD PTR ___that$[ebp]
  00006	8b 02		 mov	 eax, DWORD PTR [edx]
  00008	89 01		 mov	 DWORD PTR [ecx], eax
  0000a	8b 42 04	 mov	 eax, DWORD PTR [edx+4]
  0000d	89 41 04	 mov	 DWORD PTR [ecx+4], eax
  00010	8b c1		 mov	 eax, ecx
  00012	5d		 pop	 ebp
  00013	c2 04 00	 ret	 4
??4CHorzScaleRegionHeight@@QAEAAV0@$$QAV0@@Z ENDP	; CHorzScaleRegionHeight::operator=
_TEXT	ENDS
; Function compile flags: /Ogtp
;	COMDAT ??4CHorzScaleRegionHeight@@QAEAAV0@ABV0@@Z
_TEXT	SEGMENT
___that$ = 8						; size = 4
??4CHorzScaleRegionHeight@@QAEAAV0@ABV0@@Z PROC		; CHorzScaleRegionHeight::operator=, COMDAT
; _this$ = ecx
  00000	55		 push	 ebp
  00001	8b ec		 mov	 ebp, esp
  00003	8b 45 08	 mov	 eax, DWORD PTR ___that$[ebp]
  00006	8b 10		 mov	 edx, DWORD PTR [eax]
  00008	8b 40 04	 mov	 eax, DWORD PTR [eax+4]
  0000b	89 41 04	 mov	 DWORD PTR [ecx+4], eax
  0000e	8b c1		 mov	 eax, ecx
  00010	89 11		 mov	 DWORD PTR [ecx], edx
  00012	5d		 pop	 ebp
  00013	c2 04 00	 ret	 4
??4CHorzScaleRegionHeight@@QAEAAV0@ABV0@@Z ENDP		; CHorzScaleRegionHeight::operator=
_TEXT	ENDS
; Function compile flags: /Ogtp
; File D:\git\src\IBK\IBK_DRFN\ProjSrc\SrcChartEx\ChartOCX\ScaleDraw\ScaleBaseData.cpp
;	COMDAT ?GetBottomHorzScaleRegionHeight@CHorzScaleRegionHeight@@QBEHXZ
_TEXT	SEGMENT
?GetBottomHorzScaleRegionHeight@CHorzScaleRegionHeight@@QBEHXZ PROC ; CHorzScaleRegionHeight::GetBottomHorzScaleRegionHeight, COMDAT
; _this$ = ecx

; 1101 : 	return m_nBottomHeight;

  00000	8b 41 04	 mov	 eax, DWORD PTR [ecx+4]

; 1102 : }

  00003	c3		 ret	 0
?GetBottomHorzScaleRegionHeight@CHorzScaleRegionHeight@@QBEHXZ ENDP ; CHorzScaleRegionHeight::GetBottomHorzScaleRegionHeight
_TEXT	ENDS
; Function compile flags: /Ogtp
; File D:\git\src\IBK\IBK_DRFN\ProjSrc\SrcChartEx\ChartOCX\ScaleDraw\ScaleBaseData.cpp
;	COMDAT ?GetTopHorzScaleRegionHeight@CHorzScaleRegionHeight@@QBEHXZ
_TEXT	SEGMENT
?GetTopHorzScaleRegionHeight@CHorzScaleRegionHeight@@QBEHXZ PROC ; CHorzScaleRegionHeight::GetTopHorzScaleRegionHeight, COMDAT
; _this$ = ecx

; 1096 : 	return m_nTopHeight;

  00000	8b 01		 mov	 eax, DWORD PTR [ecx]

; 1097 : }

  00002	c3		 ret	 0
?GetTopHorzScaleRegionHeight@CHorzScaleRegionHeight@@QBEHXZ ENDP ; CHorzScaleRegionHeight::GetTopHorzScaleRegionHeight
_TEXT	ENDS
; Function compile flags: /Ogtp
; File D:\git\src\IBK\IBK_DRFN\ProjSrc\SrcChartEx\ChartOCX\ScaleDraw\ScaleBaseData.cpp
;	COMDAT ?SetBottomHorzScaleRegionHeight@CHorzScaleRegionHeight@@QAEXH@Z
_TEXT	SEGMENT
_bottomHeight$ = 8					; size = 4
?SetBottomHorzScaleRegionHeight@CHorzScaleRegionHeight@@QAEXH@Z PROC ; CHorzScaleRegionHeight::SetBottomHorzScaleRegionHeight, COMDAT
; _this$ = ecx

; 1090 : {

  00000	55		 push	 ebp
  00001	8b ec		 mov	 ebp, esp

; 1091 : 	m_nBottomHeight = bottomHeight;

  00003	8b 45 08	 mov	 eax, DWORD PTR _bottomHeight$[ebp]
  00006	89 41 04	 mov	 DWORD PTR [ecx+4], eax

; 1092 : }

  00009	5d		 pop	 ebp
  0000a	c2 04 00	 ret	 4
?SetBottomHorzScaleRegionHeight@CHorzScaleRegionHeight@@QAEXH@Z ENDP ; CHorzScaleRegionHeight::SetBottomHorzScaleRegionHeight
_TEXT	ENDS
; Function compile flags: /Ogtp
; File D:\git\src\IBK\IBK_DRFN\ProjSrc\SrcChartEx\ChartOCX\ScaleDraw\ScaleBaseData.cpp
;	COMDAT ?SetTopHorzScaleRegionHeight@CHorzScaleRegionHeight@@QAEXH@Z
_TEXT	SEGMENT
_topHeight$ = 8						; size = 4
?SetTopHorzScaleRegionHeight@CHorzScaleRegionHeight@@QAEXH@Z PROC ; CHorzScaleRegionHeight::SetTopHorzScaleRegionHeight, COMDAT
; _this$ = ecx

; 1085 : {

  00000	55		 push	 ebp
  00001	8b ec		 mov	 ebp, esp

; 1086 : 	m_nTopHeight = topHeight;

  00003	8b 45 08	 mov	 eax, DWORD PTR _topHeight$[ebp]
  00006	89 01		 mov	 DWORD PTR [ecx], eax

; 1087 : }

  00008	5d		 pop	 ebp
  00009	c2 04 00	 ret	 4
?SetTopHorzScaleRegionHeight@CHorzScaleRegionHeight@@QAEXH@Z ENDP ; CHorzScaleRegionHeight::SetTopHorzScaleRegionHeight
_TEXT	ENDS
; Function compile flags: /Ogtp
; File D:\git\src\IBK\IBK_DRFN\ProjSrc\SrcChartEx\ChartOCX\ScaleDraw\ScaleBaseData.cpp
;	COMDAT ??0CHorzScaleRegionHeight@@QAE@HH@Z
_TEXT	SEGMENT
_topHeight$ = 8						; size = 4
_bottomHeight$ = 12					; size = 4
??0CHorzScaleRegionHeight@@QAE@HH@Z PROC		; CHorzScaleRegionHeight::CHorzScaleRegionHeight, COMDAT
; _this$ = ecx

; 1080 : {

  00000	55		 push	 ebp
  00001	8b ec		 mov	 ebp, esp

; 1078 : 	m_nTopHeight(topHeight),

  00003	8b 45 08	 mov	 eax, DWORD PTR _topHeight$[ebp]
  00006	89 01		 mov	 DWORD PTR [ecx], eax

; 1079 : 	m_nBottomHeight(bottomHeight)

  00008	8b 45 0c	 mov	 eax, DWORD PTR _bottomHeight$[ebp]
  0000b	89 41 04	 mov	 DWORD PTR [ecx+4], eax

; 1081 : }

  0000e	8b c1		 mov	 eax, ecx
  00010	5d		 pop	 ebp
  00011	c2 08 00	 ret	 8
??0CHorzScaleRegionHeight@@QAE@HH@Z ENDP		; CHorzScaleRegionHeight::CHorzScaleRegionHeight
_TEXT	ENDS
; Function compile flags: /Ogtp
; File D:\git\src\IBK\IBK_DRFN\ProjSrc\SrcChartEx\ChartOCX\ScaleDraw\ScaleBaseData.cpp
;	COMDAT ??0CHorzScaleRegionHeight@@QAE@XZ
_TEXT	SEGMENT
??0CHorzScaleRegionHeight@@QAE@XZ PROC			; CHorzScaleRegionHeight::CHorzScaleRegionHeight, COMDAT
; _this$ = ecx

; 1072 : 	m_nTopHeight(0),

  00000	c7 01 00 00 00
	00		 mov	 DWORD PTR [ecx], 0

; 1075 : }

  00006	8b c1		 mov	 eax, ecx
  00008	c7 41 04 00 00
	00 00		 mov	 DWORD PTR [ecx+4], 0
  0000f	c3		 ret	 0
??0CHorzScaleRegionHeight@@QAE@XZ ENDP			; CHorzScaleRegionHeight::CHorzScaleRegionHeight
_TEXT	ENDS
; Function compile flags: /Ogtp
;	COMDAT ??0CVerticalScale@@QAE@ABV0@@Z
_TEXT	SEGMENT
_this$ = -4						; size = 4
___that$ = 8						; size = 4
??0CVerticalScale@@QAE@ABV0@@Z PROC			; CVerticalScale::CVerticalScale, COMDAT
; _this$ = ecx
  00000	55		 push	 ebp
  00001	8b ec		 mov	 ebp, esp
  00003	51		 push	 ecx
  00004	56		 push	 esi
  00005	8b 75 08	 mov	 esi, DWORD PTR ___that$[ebp]
  00008	57		 push	 edi
  00009	8b f9		 mov	 edi, ecx
  0000b	89 7d fc	 mov	 DWORD PTR _this$[ebp], edi
  0000e	8d 46 04	 lea	 eax, DWORD PTR [esi+4]
  00011	50		 push	 eax
  00012	8d 4f 04	 lea	 ecx, DWORD PTR [edi+4]
  00015	c7 07 00 00 00
	00		 mov	 DWORD PTR [edi], OFFSET ??_7CScale@@6B@
  0001b	ff 15 00 00 00
	00		 call	 DWORD PTR __imp_??0?$CStringT@DV?$StrTraitMFC_DLL@DV?$ChTraitsCRT@D@ATL@@@@@ATL@@QAE@ABV01@@Z
  00021	8b 46 08	 mov	 eax, DWORD PTR [esi+8]
  00024	89 47 08	 mov	 DWORD PTR [edi+8], eax
  00027	c7 07 00 00 00
	00		 mov	 DWORD PTR [edi], OFFSET ??_7CVerticalScale@@6B@
  0002d	8b 46 0c	 mov	 eax, DWORD PTR [esi+12]
  00030	89 47 0c	 mov	 DWORD PTR [edi+12], eax
  00033	8b 46 10	 mov	 eax, DWORD PTR [esi+16]
  00036	89 47 10	 mov	 DWORD PTR [edi+16], eax
  00039	8b 46 14	 mov	 eax, DWORD PTR [esi+20]
  0003c	89 47 14	 mov	 DWORD PTR [edi+20], eax
  0003f	8b 46 18	 mov	 eax, DWORD PTR [esi+24]
  00042	89 47 18	 mov	 DWORD PTR [edi+24], eax
  00045	f2 0f 10 46 20	 movsd	 xmm0, QWORD PTR [esi+32]
  0004a	f2 0f 11 47 20	 movsd	 QWORD PTR [edi+32], xmm0
  0004f	f2 0f 10 46 28	 movsd	 xmm0, QWORD PTR [esi+40]
  00054	f2 0f 11 47 28	 movsd	 QWORD PTR [edi+40], xmm0
  00059	8b 46 30	 mov	 eax, DWORD PTR [esi+48]
  0005c	89 47 30	 mov	 DWORD PTR [edi+48], eax
  0005f	8a 46 34	 mov	 al, BYTE PTR [esi+52]
  00062	88 47 34	 mov	 BYTE PTR [edi+52], al
  00065	f2 0f 10 46 38	 movsd	 xmm0, QWORD PTR [esi+56]
  0006a	f2 0f 11 47 38	 movsd	 QWORD PTR [edi+56], xmm0
  0006f	f2 0f 10 46 40	 movsd	 xmm0, QWORD PTR [esi+64]
  00074	f2 0f 11 47 40	 movsd	 QWORD PTR [edi+64], xmm0
  00079	8b 46 48	 mov	 eax, DWORD PTR [esi+72]
  0007c	89 47 48	 mov	 DWORD PTR [edi+72], eax
  0007f	8b 46 4c	 mov	 eax, DWORD PTR [esi+76]
  00082	89 47 4c	 mov	 DWORD PTR [edi+76], eax
  00085	8b 46 50	 mov	 eax, DWORD PTR [esi+80]
  00088	89 47 50	 mov	 DWORD PTR [edi+80], eax
  0008b	8b c7		 mov	 eax, edi
  0008d	5f		 pop	 edi
  0008e	5e		 pop	 esi
  0008f	8b e5		 mov	 esp, ebp
  00091	5d		 pop	 ebp
  00092	c2 04 00	 ret	 4
??0CVerticalScale@@QAE@ABV0@@Z ENDP			; CVerticalScale::CVerticalScale
_TEXT	ENDS
; Function compile flags: /Ogtp
;	COMDAT ??1CVerticalScale@@QAE@XZ
_TEXT	SEGMENT
??1CVerticalScale@@QAE@XZ PROC				; CVerticalScale::~CVerticalScale, COMDAT
; _this$ = ecx
  00000	83 c1 04	 add	 ecx, 4
  00003	ff 25 00 00 00
	00		 jmp	 DWORD PTR __imp_??1?$CStringT@DV?$StrTraitMFC_DLL@DV?$ChTraitsCRT@D@ATL@@@@@ATL@@QAE@XZ
??1CVerticalScale@@QAE@XZ ENDP				; CVerticalScale::~CVerticalScale
_TEXT	ENDS
; Function compile flags: /Ogtp
; File D:\git\src\IBK\IBK_DRFN\ProjSrc\SrcChartEx\ChartOCX\Include_Chart\ScaleBaseData.h
;	COMDAT ?GetSpace@CVerticalScale@@QBEXAAH0@Z
_TEXT	SEGMENT
_p_nUpSpace$ = 8					; size = 4
_p_nDownSpace$ = 12					; size = 4
?GetSpace@CVerticalScale@@QBEXAAH0@Z PROC		; CVerticalScale::GetSpace, COMDAT
; _this$ = ecx

; 240  : 	void	GetSpace( int &p_nUpSpace, int &p_nDownSpace) const		{	p_nUpSpace = m_nUpSpace;	p_nDownSpace = m_nDownSpace;	}

  00000	55		 push	 ebp
  00001	8b ec		 mov	 ebp, esp
  00003	8b 45 08	 mov	 eax, DWORD PTR _p_nUpSpace$[ebp]
  00006	8b 51 4c	 mov	 edx, DWORD PTR [ecx+76]
  00009	89 10		 mov	 DWORD PTR [eax], edx
  0000b	8b 45 0c	 mov	 eax, DWORD PTR _p_nDownSpace$[ebp]
  0000e	8b 49 50	 mov	 ecx, DWORD PTR [ecx+80]
  00011	89 08		 mov	 DWORD PTR [eax], ecx
  00013	5d		 pop	 ebp
  00014	c2 08 00	 ret	 8
?GetSpace@CVerticalScale@@QBEXAAH0@Z ENDP		; CVerticalScale::GetSpace
_TEXT	ENDS
; Function compile flags: /Ogtp
; File D:\git\src\IBK\IBK_DRFN\ProjSrc\SrcChartEx\ChartOCX\Include_Chart\ScaleBaseData.h
;	COMDAT ?SetSpace@CVerticalScale@@QAEXHH@Z
_TEXT	SEGMENT
_p_nUpSpace$ = 8					; size = 4
_p_nDownSpace$ = 12					; size = 4
?SetSpace@CVerticalScale@@QAEXHH@Z PROC			; CVerticalScale::SetSpace, COMDAT
; _this$ = ecx

; 239  : 	void	SetSpace( int p_nUpSpace, int p_nDownSpace)				{	m_nUpSpace = p_nUpSpace;	m_nDownSpace = p_nDownSpace;	}

  00000	55		 push	 ebp
  00001	8b ec		 mov	 ebp, esp
  00003	8b 45 08	 mov	 eax, DWORD PTR _p_nUpSpace$[ebp]
  00006	89 41 4c	 mov	 DWORD PTR [ecx+76], eax
  00009	8b 45 0c	 mov	 eax, DWORD PTR _p_nDownSpace$[ebp]
  0000c	89 41 50	 mov	 DWORD PTR [ecx+80], eax
  0000f	5d		 pop	 ebp
  00010	c2 08 00	 ret	 8
?SetSpace@CVerticalScale@@QAEXHH@Z ENDP			; CVerticalScale::SetSpace
_TEXT	ENDS
; Function compile flags: /Ogtp
; File D:\git\src\IBK\IBK_DRFN\ProjSrc\SrcChartEx\ChartOCX\Include_Chart\ScaleBaseData.h
;	COMDAT ?SetVertScaleInvertType@CVerticalScale@@QAEX_N@Z
_TEXT	SEGMENT
_bIsVertScaleInvertType$ = 8				; size = 1
?SetVertScaleInvertType@CVerticalScale@@QAEX_N@Z PROC	; CVerticalScale::SetVertScaleInvertType, COMDAT
; _this$ = ecx

; 232  : 	void	SetVertScaleInvertType(const bool bIsVertScaleInvertType)	{	m_bIsVertScaleInvertType = bIsVertScaleInvertType;	}

  00000	55		 push	 ebp
  00001	8b ec		 mov	 ebp, esp
  00003	8a 45 08	 mov	 al, BYTE PTR _bIsVertScaleInvertType$[ebp]
  00006	88 41 34	 mov	 BYTE PTR [ecx+52], al
  00009	5d		 pop	 ebp
  0000a	c2 04 00	 ret	 4
?SetVertScaleInvertType@CVerticalScale@@QAEX_N@Z ENDP	; CVerticalScale::SetVertScaleInvertType
_TEXT	ENDS
; Function compile flags: /Ogtp
; File D:\git\src\IBK\IBK_DRFN\ProjSrc\SrcChartEx\ChartOCX\Include_Chart\ScaleBaseData.h
;	COMDAT ?GetVertScaleInvertType@CVerticalScale@@QBE_NXZ
_TEXT	SEGMENT
?GetVertScaleInvertType@CVerticalScale@@QBE_NXZ PROC	; CVerticalScale::GetVertScaleInvertType, COMDAT
; _this$ = ecx

; 230  : 	bool	GetVertScaleInvertType() const								{	return m_bIsVertScaleInvertType;	}

  00000	8a 41 34	 mov	 al, BYTE PTR [ecx+52]
  00003	c3		 ret	 0
?GetVertScaleInvertType@CVerticalScale@@QBE_NXZ ENDP	; CVerticalScale::GetVertScaleInvertType
_TEXT	ENDS
; Function compile flags: /Ogtp
; File D:\git\src\IBK\IBK_DRFN\ProjSrc\SrcChartEx\ChartOCX\Include_Chart\ScaleBaseData.h
;	COMDAT ?GetVertUserHogaScaleType@CVerticalScale@@QBEHXZ
_TEXT	SEGMENT
?GetVertUserHogaScaleType@CVerticalScale@@QBEHXZ PROC	; CVerticalScale::GetVertUserHogaScaleType, COMDAT
; _this$ = ecx

; 226  : 	int			GetVertUserHogaScaleType( void) const						{	return m_nUserHogaType;		}			

  00000	8b 41 48	 mov	 eax, DWORD PTR [ecx+72]
  00003	c3		 ret	 0
?GetVertUserHogaScaleType@CVerticalScale@@QBEHXZ ENDP	; CVerticalScale::GetVertUserHogaScaleType
_TEXT	ENDS
; Function compile flags: /Ogtp
; File D:\git\src\IBK\IBK_DRFN\ProjSrc\SrcChartEx\ChartOCX\Include_Chart\ScaleBaseData.h
;	COMDAT ?GetVertScaleUserNumber@CVerticalScale@@QBENXZ
_TEXT	SEGMENT
?GetVertScaleUserNumber@CVerticalScale@@QBENXZ PROC	; CVerticalScale::GetVertScaleUserNumber, COMDAT
; _this$ = ecx

; 225  : 	double		GetVertScaleUserNumber( void) const						{	return m_dUserNumber;		}			

  00000	dd 41 38	 fld	 QWORD PTR [ecx+56]
  00003	c3		 ret	 0
?GetVertScaleUserNumber@CVerticalScale@@QBENXZ ENDP	; CVerticalScale::GetVertScaleUserNumber
_TEXT	ENDS
; Function compile flags: /Ogtp
; File D:\git\src\IBK\IBK_DRFN\ProjSrc\SrcChartEx\ChartOCX\Include_Chart\ScaleBaseData.h
;	COMDAT ?GetVertScaleHoGaNumber@CVerticalScale@@QBENXZ
_TEXT	SEGMENT
?GetVertScaleHoGaNumber@CVerticalScale@@QBENXZ PROC	; CVerticalScale::GetVertScaleHoGaNumber, COMDAT
; _this$ = ecx

; 224  : 	double		GetVertScaleHoGaNumber( void) const						{	return m_dHogaNumber;		}			

  00000	dd 41 40	 fld	 QWORD PTR [ecx+64]
  00003	c3		 ret	 0
?GetVertScaleHoGaNumber@CVerticalScale@@QBENXZ ENDP	; CVerticalScale::GetVertScaleHoGaNumber
_TEXT	ENDS
; Function compile flags: /Ogtp
; File D:\git\src\IBK\IBK_DRFN\ProjSrc\SrcChartEx\ChartOCX\Include_Chart\ScaleBaseData.h
;	COMDAT ?SetVertUserHogaScaleType@CVerticalScale@@QAEXH@Z
_TEXT	SEGMENT
_p_nUserHogaType$ = 8					; size = 4
?SetVertUserHogaScaleType@CVerticalScale@@QAEXH@Z PROC	; CVerticalScale::SetVertUserHogaScaleType, COMDAT
; _this$ = ecx

; 222  : 	void		SetVertUserHogaScaleType( int p_nUserHogaType)		{	m_nUserHogaType = p_nUserHogaType;	}

  00000	55		 push	 ebp
  00001	8b ec		 mov	 ebp, esp
  00003	8b 45 08	 mov	 eax, DWORD PTR _p_nUserHogaType$[ebp]
  00006	89 41 48	 mov	 DWORD PTR [ecx+72], eax
  00009	5d		 pop	 ebp
  0000a	c2 04 00	 ret	 4
?SetVertUserHogaScaleType@CVerticalScale@@QAEXH@Z ENDP	; CVerticalScale::SetVertUserHogaScaleType
_TEXT	ENDS
; Function compile flags: /Ogtp
; File D:\git\src\IBK\IBK_DRFN\ProjSrc\SrcChartEx\ChartOCX\Include_Chart\ScaleBaseData.h
;	COMDAT ?SetVertScaleUserNumber@CVerticalScale@@QAEXN@Z
_TEXT	SEGMENT
_p_dUserNumber$ = 8					; size = 8
?SetVertScaleUserNumber@CVerticalScale@@QAEXN@Z PROC	; CVerticalScale::SetVertScaleUserNumber, COMDAT
; _this$ = ecx

; 221  : 	void		SetVertScaleUserNumber( double p_dUserNumber)			{	m_dUserNumber = p_dUserNumber;	}

  00000	55		 push	 ebp
  00001	8b ec		 mov	 ebp, esp
  00003	f2 0f 10 45 08	 movsd	 xmm0, QWORD PTR _p_dUserNumber$[ebp]
  00008	f2 0f 11 41 38	 movsd	 QWORD PTR [ecx+56], xmm0
  0000d	5d		 pop	 ebp
  0000e	c2 08 00	 ret	 8
?SetVertScaleUserNumber@CVerticalScale@@QAEXN@Z ENDP	; CVerticalScale::SetVertScaleUserNumber
_TEXT	ENDS
; Function compile flags: /Ogtp
; File D:\git\src\IBK\IBK_DRFN\ProjSrc\SrcChartEx\ChartOCX\Include_Chart\ScaleBaseData.h
;	COMDAT ?SetVertScaleHoGaNumber@CVerticalScale@@QAEXN@Z
_TEXT	SEGMENT
_p_dHogaNumber$ = 8					; size = 8
?SetVertScaleHoGaNumber@CVerticalScale@@QAEXN@Z PROC	; CVerticalScale::SetVertScaleHoGaNumber, COMDAT
; _this$ = ecx

; 220  : 	void		SetVertScaleHoGaNumber( double p_dHogaNumber)			{	m_dHogaNumber = p_dHogaNumber;	}

  00000	55		 push	 ebp
  00001	8b ec		 mov	 ebp, esp
  00003	f2 0f 10 45 08	 movsd	 xmm0, QWORD PTR _p_dHogaNumber$[ebp]
  00008	f2 0f 11 41 40	 movsd	 QWORD PTR [ecx+64], xmm0
  0000d	5d		 pop	 ebp
  0000e	c2 08 00	 ret	 8
?SetVertScaleHoGaNumber@CVerticalScale@@QAEXN@Z ENDP	; CVerticalScale::SetVertScaleHoGaNumber
_TEXT	ENDS
; Function compile flags: /Ogtp
; File D:\git\src\IBK\IBK_DRFN\ProjSrc\SrcChartEx\ChartOCX\ScaleDraw\ScaleBaseData.cpp
;	COMDAT ?ResetActiveFlag@CVerticalScale@@QAEXH@Z
_TEXT	SEGMENT
_p_nActiveFlag$ = 8					; size = 4
?ResetActiveFlag@CVerticalScale@@QAEXH@Z PROC		; CVerticalScale::ResetActiveFlag, COMDAT
; _this$ = ecx

; 1064 : {

  00000	55		 push	 ebp
  00001	8b ec		 mov	 ebp, esp

; 1065 : 	m_nVScaleActiveFlag = p_nActiveFlag;

  00003	8b 45 08	 mov	 eax, DWORD PTR _p_nActiveFlag$[ebp]
  00006	89 41 30	 mov	 DWORD PTR [ecx+48], eax

; 1066 : }

  00009	5d		 pop	 ebp
  0000a	c2 04 00	 ret	 4
?ResetActiveFlag@CVerticalScale@@QAEXH@Z ENDP		; CVerticalScale::ResetActiveFlag
_TEXT	ENDS
; Function compile flags: /Ogtp
; File D:\git\src\IBK\IBK_DRFN\ProjSrc\SrcChartEx\ChartOCX\ScaleDraw\ScaleBaseData.cpp
;	COMDAT ?RemoveActiveFlag@CVerticalScale@@QAEXH@Z
_TEXT	SEGMENT
_p_nActiveFlag$ = 8					; size = 4
?RemoveActiveFlag@CVerticalScale@@QAEXH@Z PROC		; CVerticalScale::RemoveActiveFlag, COMDAT
; _this$ = ecx

; 1059 : {

  00000	55		 push	 ebp
  00001	8b ec		 mov	 ebp, esp

; 1060 : 	m_nVScaleActiveFlag &= ~p_nActiveFlag;

  00003	8b 45 08	 mov	 eax, DWORD PTR _p_nActiveFlag$[ebp]

; 1061 : 	if( m_nVScaleActiveFlag == VSGA_GRIDLINE) m_nVScaleActiveFlag = 0;

  00006	33 d2		 xor	 edx, edx
  00008	f7 d0		 not	 eax
  0000a	21 41 30	 and	 DWORD PTR [ecx+48], eax
  0000d	8b 41 30	 mov	 eax, DWORD PTR [ecx+48]
  00010	83 f8 01	 cmp	 eax, 1
  00013	0f 44 c2	 cmove	 eax, edx
  00016	89 41 30	 mov	 DWORD PTR [ecx+48], eax

; 1062 : }

  00019	5d		 pop	 ebp
  0001a	c2 04 00	 ret	 4
?RemoveActiveFlag@CVerticalScale@@QAEXH@Z ENDP		; CVerticalScale::RemoveActiveFlag
_TEXT	ENDS
; Function compile flags: /Ogtp
; File D:\git\src\IBK\IBK_DRFN\ProjSrc\SrcChartEx\ChartOCX\ScaleDraw\ScaleBaseData.cpp
;	COMDAT ?AddActiveFlag@CVerticalScale@@QAEXH@Z
_TEXT	SEGMENT
_p_nActiveFlag$ = 8					; size = 4
?AddActiveFlag@CVerticalScale@@QAEXH@Z PROC		; CVerticalScale::AddActiveFlag, COMDAT
; _this$ = ecx

; 1055 : {

  00000	55		 push	 ebp
  00001	8b ec		 mov	 ebp, esp

; 1056 : 	m_nVScaleActiveFlag |= p_nActiveFlag;

  00003	8b 45 08	 mov	 eax, DWORD PTR _p_nActiveFlag$[ebp]
  00006	09 41 30	 or	 DWORD PTR [ecx+48], eax

; 1057 : }

  00009	5d		 pop	 ebp
  0000a	c2 04 00	 ret	 4
?AddActiveFlag@CVerticalScale@@QAEXH@Z ENDP		; CVerticalScale::AddActiveFlag
_TEXT	ENDS
; Function compile flags: /Ogtp
; File D:\git\src\IBK\IBK_DRFN\ProjSrc\SrcChartEx\ChartOCX\ScaleDraw\ScaleBaseData.cpp
;	COMDAT ?GetActiveFlag@CVerticalScale@@QBEHXZ
_TEXT	SEGMENT
?GetActiveFlag@CVerticalScale@@QBEHXZ PROC		; CVerticalScale::GetActiveFlag, COMDAT
; _this$ = ecx

; 1052 : 	return m_nVScaleActiveFlag;

  00000	8b 41 30	 mov	 eax, DWORD PTR [ecx+48]

; 1053 : }

  00003	c3		 ret	 0
?GetActiveFlag@CVerticalScale@@QBEHXZ ENDP		; CVerticalScale::GetActiveFlag
_TEXT	ENDS
; Function compile flags: /Ogtp
; File D:\git\src\IBK\IBK_DRFN\ProjSrc\SrcChartEx\ChartOCX\Include_Chart\ScaleBaseData.h
;	COMDAT ?SetVertScaleMax@CVerticalScale@@QAEXN@Z
_TEXT	SEGMENT
_p_dMax$ = 8						; size = 8
?SetVertScaleMax@CVerticalScale@@QAEXN@Z PROC		; CVerticalScale::SetVertScaleMax, COMDAT
; _this$ = ecx

; 211  : 	void							SetVertScaleMax( double p_dMax)											{	m_dMax = p_dMax;	}

  00000	55		 push	 ebp
  00001	8b ec		 mov	 ebp, esp
  00003	f2 0f 10 45 08	 movsd	 xmm0, QWORD PTR _p_dMax$[ebp]
  00008	f2 0f 11 41 28	 movsd	 QWORD PTR [ecx+40], xmm0
  0000d	5d		 pop	 ebp
  0000e	c2 08 00	 ret	 8
?SetVertScaleMax@CVerticalScale@@QAEXN@Z ENDP		; CVerticalScale::SetVertScaleMax
_TEXT	ENDS
; Function compile flags: /Ogtp
; File D:\git\src\IBK\IBK_DRFN\ProjSrc\SrcChartEx\ChartOCX\Include_Chart\ScaleBaseData.h
;	COMDAT ?GetVertScaleMax@CVerticalScale@@QBENXZ
_TEXT	SEGMENT
?GetVertScaleMax@CVerticalScale@@QBENXZ PROC		; CVerticalScale::GetVertScaleMax, COMDAT
; _this$ = ecx

; 210  : 	double							GetVertScaleMax( void) const											{	return m_dMax;		}

  00000	dd 41 28	 fld	 QWORD PTR [ecx+40]
  00003	c3		 ret	 0
?GetVertScaleMax@CVerticalScale@@QBENXZ ENDP		; CVerticalScale::GetVertScaleMax
_TEXT	ENDS
; Function compile flags: /Ogtp
; File D:\git\src\IBK\IBK_DRFN\ProjSrc\SrcChartEx\ChartOCX\Include_Chart\ScaleBaseData.h
;	COMDAT ?SetVertScaleMin@CVerticalScale@@QAEXN@Z
_TEXT	SEGMENT
_p_dMin$ = 8						; size = 8
?SetVertScaleMin@CVerticalScale@@QAEXN@Z PROC		; CVerticalScale::SetVertScaleMin, COMDAT
; _this$ = ecx

; 208  : 	void							SetVertScaleMin( double p_dMin)											{	m_dMin = p_dMin;	}

  00000	55		 push	 ebp
  00001	8b ec		 mov	 ebp, esp
  00003	f2 0f 10 45 08	 movsd	 xmm0, QWORD PTR _p_dMin$[ebp]
  00008	f2 0f 11 41 20	 movsd	 QWORD PTR [ecx+32], xmm0
  0000d	5d		 pop	 ebp
  0000e	c2 08 00	 ret	 8
?SetVertScaleMin@CVerticalScale@@QAEXN@Z ENDP		; CVerticalScale::SetVertScaleMin
_TEXT	ENDS
; Function compile flags: /Ogtp
; File D:\git\src\IBK\IBK_DRFN\ProjSrc\SrcChartEx\ChartOCX\Include_Chart\ScaleBaseData.h
;	COMDAT ?GetVertScaleMin@CVerticalScale@@QBENXZ
_TEXT	SEGMENT
?GetVertScaleMin@CVerticalScale@@QBENXZ PROC		; CVerticalScale::GetVertScaleMin, COMDAT
; _this$ = ecx

; 207  : 	double							GetVertScaleMin( void) const											{	return m_dMin;		}			

  00000	dd 41 20	 fld	 QWORD PTR [ecx+32]
  00003	c3		 ret	 0
?GetVertScaleMin@CVerticalScale@@QBENXZ ENDP		; CVerticalScale::GetVertScaleMin
_TEXT	ENDS
; Function compile flags: /Ogtp
; File D:\git\src\IBK\IBK_DRFN\ProjSrc\SrcChartEx\ChartOCX\Include_Chart\ScaleBaseData.h
;	COMDAT ?SetVertScaleMinMaxType@CVerticalScale@@QAEXW4VERTMINMAXTYPE@CScaleBaseData@@@Z
_TEXT	SEGMENT
_p_eMinMaxType$ = 8					; size = 4
?SetVertScaleMinMaxType@CVerticalScale@@QAEXW4VERTMINMAXTYPE@CScaleBaseData@@@Z PROC ; CVerticalScale::SetVertScaleMinMaxType, COMDAT
; _this$ = ecx

; 205  : 	void							SetVertScaleMinMaxType( CScaleBaseData::VERTMINMAXTYPE p_eMinMaxType) 	{	m_eMinMaxType = p_eMinMaxType;	}

  00000	55		 push	 ebp
  00001	8b ec		 mov	 ebp, esp
  00003	8b 45 08	 mov	 eax, DWORD PTR _p_eMinMaxType$[ebp]
  00006	89 41 18	 mov	 DWORD PTR [ecx+24], eax
  00009	5d		 pop	 ebp
  0000a	c2 04 00	 ret	 4
?SetVertScaleMinMaxType@CVerticalScale@@QAEXW4VERTMINMAXTYPE@CScaleBaseData@@@Z ENDP ; CVerticalScale::SetVertScaleMinMaxType
_TEXT	ENDS
; Function compile flags: /Ogtp
; File D:\git\src\IBK\IBK_DRFN\ProjSrc\SrcChartEx\ChartOCX\Include_Chart\ScaleBaseData.h
;	COMDAT ?GetVertScaleMinMaxType@CVerticalScale@@QBE?AW4VERTMINMAXTYPE@CScaleBaseData@@XZ
_TEXT	SEGMENT
?GetVertScaleMinMaxType@CVerticalScale@@QBE?AW4VERTMINMAXTYPE@CScaleBaseData@@XZ PROC ; CVerticalScale::GetVertScaleMinMaxType, COMDAT
; _this$ = ecx

; 204  : 	CScaleBaseData::VERTMINMAXTYPE	GetVertScaleMinMaxType( void) const										{	return m_eMinMaxType;			}

  00000	8b 41 18	 mov	 eax, DWORD PTR [ecx+24]
  00003	c3		 ret	 0
?GetVertScaleMinMaxType@CVerticalScale@@QBE?AW4VERTMINMAXTYPE@CScaleBaseData@@XZ ENDP ; CVerticalScale::GetVertScaleMinMaxType
_TEXT	ENDS
; Function compile flags: /Ogtp
; File D:\git\src\IBK\IBK_DRFN\ProjSrc\SrcChartEx\ChartOCX\Include_Chart\ScaleBaseData.h
;	COMDAT ?SetVertScaleMinMaxLock@CVerticalScale@@QAEXH@Z
_TEXT	SEGMENT
_p_bMinMaxLock$ = 8					; size = 4
?SetVertScaleMinMaxLock@CVerticalScale@@QAEXH@Z PROC	; CVerticalScale::SetVertScaleMinMaxLock, COMDAT
; _this$ = ecx

; 202  : 	void							SetVertScaleMinMaxLock( BOOL p_bMinMaxLock)								{	m_bMinMaxLock = p_bMinMaxLock;	}

  00000	55		 push	 ebp
  00001	8b ec		 mov	 ebp, esp
  00003	8b 45 08	 mov	 eax, DWORD PTR _p_bMinMaxLock$[ebp]
  00006	89 41 14	 mov	 DWORD PTR [ecx+20], eax
  00009	5d		 pop	 ebp
  0000a	c2 04 00	 ret	 4
?SetVertScaleMinMaxLock@CVerticalScale@@QAEXH@Z ENDP	; CVerticalScale::SetVertScaleMinMaxLock
_TEXT	ENDS
; Function compile flags: /Ogtp
; File D:\git\src\IBK\IBK_DRFN\ProjSrc\SrcChartEx\ChartOCX\Include_Chart\ScaleBaseData.h
;	COMDAT ?IsVertScaleMinMaxLock@CVerticalScale@@QBEHXZ
_TEXT	SEGMENT
?IsVertScaleMinMaxLock@CVerticalScale@@QBEHXZ PROC	; CVerticalScale::IsVertScaleMinMaxLock, COMDAT
; _this$ = ecx

; 201  : 	BOOL							IsVertScaleMinMaxLock( void) const										{	return m_bMinMaxLock;			}

  00000	8b 41 14	 mov	 eax, DWORD PTR [ecx+20]
  00003	c3		 ret	 0
?IsVertScaleMinMaxLock@CVerticalScale@@QBEHXZ ENDP	; CVerticalScale::IsVertScaleMinMaxLock
_TEXT	ENDS
; Function compile flags: /Ogtp
; File D:\git\src\IBK\IBK_DRFN\ProjSrc\SrcChartEx\ChartOCX\ScaleDraw\ScaleBaseData.cpp
; File C:\Program Files (x86)\Microsoft Visual Studio\2019\Community\VC\Tools\MSVC\14.29.30133\atlmfc\include\atlsimpstr.h
; File D:\git\src\IBK\IBK_DRFN\ProjSrc\SrcChartEx\ChartOCX\ScaleDraw\ScaleBaseData.cpp
; File C:\Program Files (x86)\Microsoft Visual Studio\2019\Community\VC\Tools\MSVC\14.29.30133\atlmfc\include\atlsimpstr.h
; File D:\git\src\IBK\IBK_DRFN\ProjSrc\SrcChartEx\ChartOCX\ScaleDraw\ScaleBaseData.cpp
; File C:\Program Files (x86)\Microsoft Visual Studio\2019\Community\VC\Tools\MSVC\14.29.30133\atlmfc\include\atlsimpstr.h
; File D:\git\src\IBK\IBK_DRFN\ProjSrc\SrcChartEx\ChartOCX\ScaleDraw\ScaleBaseData.cpp
; File C:\Program Files (x86)\Microsoft Visual Studio\2019\Community\VC\Tools\MSVC\14.29.30133\atlmfc\include\atlsimpstr.h
; File D:\git\src\IBK\IBK_DRFN\ProjSrc\SrcChartEx\ChartOCX\ScaleDraw\ScaleBaseData.cpp
;	COMDAT ?GetScaleAllData@CVerticalScale@@QBEXAAV?$CStringT@DV?$StrTraitMFC_DLL@DV?$ChTraitsCRT@D@ATL@@@@@ATL@@PBD@Z
_TEXT	SEGMENT
_nInverType$1$ = -524					; size = 4
_nGridType$1$ = -520					; size = 4
_nUnitType$1$ = -516					; size = 4
_nUserNumber$1$ = -512					; size = 4
_nUserHogaType$1$ = -508				; size = 4
_nDownSpace$1$ = -504					; size = 4
_nUpSpace$1$ = -500					; size = 4
_nMax$1$ = -496						; size = 4
_nMin$1$ = -492						; size = 4
_nMinMaxType$1$ = -488					; size = 4
$T2 = -484						; size = 4
_p_strVertScaleData$GSCopy$1$ = -480			; size = 4
tv880 = -480						; size = 4
_nHogaNumber$1$ = -476					; size = 4
$T3 = -476						; size = 4
_strScaleData$ = -472					; size = 4
_this$GSCopy$1$ = -468					; size = 4
_szMax$ = -464						; size = 100
_szMin$ = -364						; size = 100
_szMinMaxType$ = -264					; size = 100
_szInvertType$ = -164					; size = 20
_szHogaNumber$ = -144					; size = 20
_szUserNumber$ = -124					; size = 20
_szDownSpace$ = -104					; size = 20
_szUpSpace$ = -84					; size = 20
_szUserHogaType$ = -64					; size = 10
_szUnitType$ = -52					; size = 10
_szGridType$ = -40					; size = 10
_szPosition$ = -28					; size = 10
__$ArrayPad$ = -16					; size = 4
__$EHRec$ = -12						; size = 12
_p_strVertScaleData$ = 8				; size = 4
_p_szScaleData$ = 12					; size = 4
?GetScaleAllData@CVerticalScale@@QBEXAAV?$CStringT@DV?$StrTraitMFC_DLL@DV?$ChTraitsCRT@D@ATL@@@@@ATL@@PBD@Z PROC ; CVerticalScale::GetScaleAllData, COMDAT
; _this$ = ecx

; 904  : {

  00000	55		 push	 ebp
  00001	8b ec		 mov	 ebp, esp
  00003	6a ff		 push	 -1
  00005	68 00 00 00 00	 push	 __ehhandler$?GetScaleAllData@CVerticalScale@@QBEXAAV?$CStringT@DV?$StrTraitMFC_DLL@DV?$ChTraitsCRT@D@ATL@@@@@ATL@@PBD@Z
  0000a	64 a1 00 00 00
	00		 mov	 eax, DWORD PTR fs:0
  00010	50		 push	 eax
  00011	81 ec 00 02 00
	00		 sub	 esp, 512		; 00000200H
  00017	a1 00 00 00 00	 mov	 eax, DWORD PTR ___security_cookie
  0001c	33 c5		 xor	 eax, ebp
  0001e	89 45 f0	 mov	 DWORD PTR __$ArrayPad$[ebp], eax
  00021	53		 push	 ebx
  00022	56		 push	 esi
  00023	57		 push	 edi
  00024	50		 push	 eax
  00025	8d 45 f4	 lea	 eax, DWORD PTR __$EHRec$[ebp]
  00028	64 a3 00 00 00
	00		 mov	 DWORD PTR fs:0, eax
  0002e	8b f9		 mov	 edi, ecx
  00030	89 bd 2c fe ff
	ff		 mov	 DWORD PTR _this$GSCopy$1$[ebp], edi
  00036	8b 45 08	 mov	 eax, DWORD PTR _p_strVertScaleData$[ebp]
  00039	33 db		 xor	 ebx, ebx
  0003b	89 85 20 fe ff
	ff		 mov	 DWORD PTR _p_strVertScaleData$GSCopy$1$[ebp], eax
  00041	8b 45 0c	 mov	 eax, DWORD PTR _p_szScaleData$[ebp]
  00044	89 9d 24 fe ff
	ff		 mov	 DWORD PTR $T3[ebp], ebx

; 905  : 	CString strScaleData = p_szScaleData ? p_szScaleData : CScale::GetScaleData();

  0004a	85 c0		 test	 eax, eax
  0004c	75 24		 jne	 SHORT $LN4@GetScaleAl

; 140  : 	return m_strScaleData;

  0004e	8d 47 04	 lea	 eax, DWORD PTR [edi+4]
  00051	50		 push	 eax
  00052	8d 8d 1c fe ff
	ff		 lea	 ecx, DWORD PTR $T2[ebp]
  00058	ff 15 00 00 00
	00		 call	 DWORD PTR __imp_??0?$CStringT@DV?$StrTraitMFC_DLL@DV?$ChTraitsCRT@D@ATL@@@@@ATL@@QAE@ABV01@@Z
; File C:\Program Files (x86)\Microsoft Visual Studio\2019\Community\VC\Tools\MSVC\14.29.30133\atlmfc\include\atlsimpstr.h

; 377  : 		return( m_pszData );

  0005e	8b 85 1c fe ff
	ff		 mov	 eax, DWORD PTR $T2[ebp]
; File D:\git\src\IBK\IBK_DRFN\ProjSrc\SrcChartEx\ChartOCX\ScaleDraw\ScaleBaseData.cpp

; 905  : 	CString strScaleData = p_szScaleData ? p_szScaleData : CScale::GetScaleData();

  00064	89 5d fc	 mov	 DWORD PTR __$EHRec$[ebp+8], ebx
  00067	bb 03 00 00 00	 mov	 ebx, 3
  0006c	89 9d 24 fe ff
	ff		 mov	 DWORD PTR $T3[ebp], ebx
$LN4@GetScaleAl:
  00072	50		 push	 eax
  00073	8d 8d 28 fe ff
	ff		 lea	 ecx, DWORD PTR _strScaleData$[ebp]
  00079	ff 15 00 00 00
	00		 call	 DWORD PTR __imp_??0?$CStringT@DV?$StrTraitMFC_DLL@DV?$ChTraitsCRT@D@ATL@@@@@ATL@@QAE@PBD@Z
  0007f	c7 45 fc 02 00
	00 00		 mov	 DWORD PTR __$EHRec$[ebp+8], 2
  00086	f6 c3 01	 test	 bl, 1
  00089	74 0c		 je	 SHORT $LN21@GetScaleAl
  0008b	8d 8d 1c fe ff
	ff		 lea	 ecx, DWORD PTR $T2[ebp]
  00091	ff 15 00 00 00
	00		 call	 DWORD PTR __imp_??1?$CStringT@DV?$StrTraitMFC_DLL@DV?$ChTraitsCRT@D@ATL@@@@@ATL@@QAE@XZ
$LN21@GetScaleAl:

; 906  : 
; 907  : 	char szPosition[ 10];
; 908  : 	itoa( m_ePosition, szPosition, 10);

  00097	8b 1d 00 00 00
	00		 mov	 ebx, DWORD PTR __imp__itoa
  0009d	8d 45 e4	 lea	 eax, DWORD PTR _szPosition$[ebp]
  000a0	6a 0a		 push	 10			; 0000000aH
  000a2	50		 push	 eax
  000a3	ff 77 0c	 push	 DWORD PTR [edi+12]
  000a6	ff d3		 call	 ebx

; 909  : 	int nPosition = strlen( szPosition);

  000a8	8d 75 e4	 lea	 esi, DWORD PTR _szPosition$[ebp]
  000ab	83 c4 0c	 add	 esp, 12			; 0000000cH
  000ae	8d 4e 01	 lea	 ecx, DWORD PTR [esi+1]
$LL77@GetScaleAl:
  000b1	8a 06		 mov	 al, BYTE PTR [esi]
  000b3	46		 inc	 esi
  000b4	84 c0		 test	 al, al
  000b6	75 f9		 jne	 SHORT $LL77@GetScaleAl

; 910  : 
; 911  : 	char szGridType[ 10];
; 912  : 	itoa( CScale::GetGridType(), szGridType, 10);

  000b8	6a 0a		 push	 10			; 0000000aH
  000ba	8d 45 d8	 lea	 eax, DWORD PTR _szGridType$[ebp]
  000bd	2b f1		 sub	 esi, ecx
  000bf	50		 push	 eax
  000c0	ff 77 08	 push	 DWORD PTR [edi+8]
  000c3	ff d3		 call	 ebx

; 913  : 	int nGridType = strlen( szGridType);

  000c5	8d 7d d8	 lea	 edi, DWORD PTR _szGridType$[ebp]
  000c8	83 c4 0c	 add	 esp, 12			; 0000000cH
  000cb	8d 4f 01	 lea	 ecx, DWORD PTR [edi+1]
  000ce	66 90		 npad	 2
$LL78@GetScaleAl:
  000d0	8a 07		 mov	 al, BYTE PTR [edi]
  000d2	47		 inc	 edi
  000d3	84 c0		 test	 al, al
  000d5	75 f9		 jne	 SHORT $LL78@GetScaleAl

; 914  : 
; 915  : 	char szUnitType[ 10];
; 916  : 	itoa( m_eUnitType, szUnitType, 10);

  000d7	6a 0a		 push	 10			; 0000000aH
  000d9	8d 45 cc	 lea	 eax, DWORD PTR _szUnitType$[ebp]
  000dc	2b f9		 sub	 edi, ecx
  000de	50		 push	 eax
  000df	8b 85 2c fe ff
	ff		 mov	 eax, DWORD PTR _this$GSCopy$1$[ebp]
  000e5	89 bd f8 fd ff
	ff		 mov	 DWORD PTR _nGridType$1$[ebp], edi
  000eb	ff 70 10	 push	 DWORD PTR [eax+16]
  000ee	ff d3		 call	 ebx

; 917  : 	int nUnitType = strlen( szUnitType);

  000f0	8d 5d cc	 lea	 ebx, DWORD PTR _szUnitType$[ebp]
  000f3	83 c4 0c	 add	 esp, 12			; 0000000cH
  000f6	8d 4b 01	 lea	 ecx, DWORD PTR [ebx+1]
  000f9	0f 1f 80 00 00
	00 00		 npad	 7
$LL79@GetScaleAl:
  00100	8a 03		 mov	 al, BYTE PTR [ebx]
  00102	43		 inc	 ebx
  00103	84 c0		 test	 al, al
  00105	75 f9		 jne	 SHORT $LL79@GetScaleAl

; 918  : 
; 919  : 	char szMinMaxType[ 100];
; 920  : 	itoa( m_eMinMaxType, szMinMaxType, 10);

  00107	6a 0a		 push	 10			; 0000000aH
  00109	8d 85 f8 fe ff
	ff		 lea	 eax, DWORD PTR _szMinMaxType$[ebp]
  0010f	2b d9		 sub	 ebx, ecx
  00111	50		 push	 eax
  00112	8b 85 2c fe ff
	ff		 mov	 eax, DWORD PTR _this$GSCopy$1$[ebp]
  00118	89 9d fc fd ff
	ff		 mov	 DWORD PTR _nUnitType$1$[ebp], ebx
  0011e	ff 70 18	 push	 DWORD PTR [eax+24]
  00121	ff 15 00 00 00
	00		 call	 DWORD PTR __imp__itoa

; 921  : 	int nMinMaxType = strlen( szMinMaxType);

  00127	8d 8d f8 fe ff
	ff		 lea	 ecx, DWORD PTR _szMinMaxType$[ebp]
  0012d	83 c4 0c	 add	 esp, 12			; 0000000cH
  00130	8d 51 01	 lea	 edx, DWORD PTR [ecx+1]
$LL80@GetScaleAl:
  00133	8a 01		 mov	 al, BYTE PTR [ecx]
  00135	41		 inc	 ecx
  00136	84 c0		 test	 al, al
  00138	75 f9		 jne	 SHORT $LL80@GetScaleAl

; 922  : 
; 923  : 	char szMin[ 100];
; 924  : 	int nMin = sprintf( szMin, "%f", m_dMin);

  0013a	8b 85 2c fe ff
	ff		 mov	 eax, DWORD PTR _this$GSCopy$1$[ebp]
  00140	83 ec 08	 sub	 esp, 8
  00143	2b ca		 sub	 ecx, edx
  00145	89 8d 18 fe ff
	ff		 mov	 DWORD PTR _nMinMaxType$1$[ebp], ecx
  0014b	f2 0f 10 40 20	 movsd	 xmm0, QWORD PTR [eax+32]
  00150	8d 85 94 fe ff
	ff		 lea	 eax, DWORD PTR _szMin$[ebp]
  00156	f2 0f 11 04 24	 movsd	 QWORD PTR [esp], xmm0
  0015b	68 00 00 00 00	 push	 OFFSET ??_C@_02NJPGOMH@?$CFf@
  00160	50		 push	 eax
  00161	e8 00 00 00 00	 call	 _sprintf
  00166	89 85 14 fe ff
	ff		 mov	 DWORD PTR _nMin$1$[ebp], eax

; 925  : 
; 926  : 	char szMax[ 100];
; 927  : 	int nMax = sprintf( szMax, "%f", m_dMax);

  0016c	83 c4 08	 add	 esp, 8
  0016f	8b 85 2c fe ff
	ff		 mov	 eax, DWORD PTR _this$GSCopy$1$[ebp]
  00175	f2 0f 10 40 28	 movsd	 xmm0, QWORD PTR [eax+40]
  0017a	8d 85 30 fe ff
	ff		 lea	 eax, DWORD PTR _szMax$[ebp]
  00180	f2 0f 11 04 24	 movsd	 QWORD PTR [esp], xmm0
  00185	68 00 00 00 00	 push	 OFFSET ??_C@_02NJPGOMH@?$CFf@
  0018a	50		 push	 eax
  0018b	e8 00 00 00 00	 call	 _sprintf
  00190	89 85 10 fe ff
	ff		 mov	 DWORD PTR _nMax$1$[ebp], eax

; 928  : 
; 929  : 	// (2007/7/16 - Seung-Won, Bae) Up/Down Space
; 930  : 	char szUpSpace[ 20];
; 931  : 	int nUpSpace = sprintf( szUpSpace, "%d", m_nUpSpace);

  00196	8b 85 2c fe ff
	ff		 mov	 eax, DWORD PTR _this$GSCopy$1$[ebp]
  0019c	ff 70 4c	 push	 DWORD PTR [eax+76]
  0019f	8d 45 ac	 lea	 eax, DWORD PTR _szUpSpace$[ebp]
  001a2	68 00 00 00 00	 push	 OFFSET ??_C@_02DPKJAMEF@?$CFd@
  001a7	50		 push	 eax
  001a8	e8 00 00 00 00	 call	 _sprintf
  001ad	89 85 0c fe ff
	ff		 mov	 DWORD PTR _nUpSpace$1$[ebp], eax

; 932  : 	char szDownSpace[ 20];
; 933  : 	int nDownSpace = sprintf( szDownSpace, "%d", m_nDownSpace);

  001b3	8b 85 2c fe ff
	ff		 mov	 eax, DWORD PTR _this$GSCopy$1$[ebp]
  001b9	ff 70 50	 push	 DWORD PTR [eax+80]
  001bc	8d 45 98	 lea	 eax, DWORD PTR _szDownSpace$[ebp]
  001bf	68 00 00 00 00	 push	 OFFSET ??_C@_02DPKJAMEF@?$CFd@
  001c4	50		 push	 eax
  001c5	e8 00 00 00 00	 call	 _sprintf
  001ca	89 85 08 fe ff
	ff		 mov	 DWORD PTR _nDownSpace$1$[ebp], eax

; 934  : 
; 935  : //2007.01.22 Scale사용자 설정,호가단위별
; 936  : 	char szUserHogaType[ 10];
; 937  : 	itoa( m_nUserHogaType, szUserHogaType, 10);

  001d0	8d 45 c0	 lea	 eax, DWORD PTR _szUserHogaType$[ebp]
  001d3	6a 0a		 push	 10			; 0000000aH
  001d5	50		 push	 eax
  001d6	8b 85 2c fe ff
	ff		 mov	 eax, DWORD PTR _this$GSCopy$1$[ebp]
  001dc	ff 70 48	 push	 DWORD PTR [eax+72]
  001df	ff 15 00 00 00
	00		 call	 DWORD PTR __imp__itoa

; 938  : 	int nUserHogaType = strlen( szUserHogaType);

  001e5	8d 4d c0	 lea	 ecx, DWORD PTR _szUserHogaType$[ebp]
  001e8	83 c4 34	 add	 esp, 52			; 00000034H
  001eb	8d 51 01	 lea	 edx, DWORD PTR [ecx+1]
  001ee	66 90		 npad	 2
$LL81@GetScaleAl:
  001f0	8a 01		 mov	 al, BYTE PTR [ecx]
  001f2	41		 inc	 ecx
  001f3	84 c0		 test	 al, al
  001f5	75 f9		 jne	 SHORT $LL81@GetScaleAl

; 939  : 
; 940  : 	char szUserNumber[ 20];
; 941  : 	int nUserNumber = sprintf( szUserNumber, "%f", m_dUserNumber);

  001f7	8b 85 2c fe ff
	ff		 mov	 eax, DWORD PTR _this$GSCopy$1$[ebp]
  001fd	83 ec 08	 sub	 esp, 8
  00200	2b ca		 sub	 ecx, edx
  00202	89 8d 04 fe ff
	ff		 mov	 DWORD PTR _nUserHogaType$1$[ebp], ecx
  00208	f2 0f 10 40 38	 movsd	 xmm0, QWORD PTR [eax+56]
  0020d	8d 45 84	 lea	 eax, DWORD PTR _szUserNumber$[ebp]
  00210	f2 0f 11 04 24	 movsd	 QWORD PTR [esp], xmm0
  00215	68 00 00 00 00	 push	 OFFSET ??_C@_02NJPGOMH@?$CFf@
  0021a	50		 push	 eax
  0021b	e8 00 00 00 00	 call	 _sprintf
  00220	89 85 00 fe ff
	ff		 mov	 DWORD PTR _nUserNumber$1$[ebp], eax

; 942  : 
; 943  : 	char szHogaNumber[ 20];
; 944  : 	int nHogaNumber = sprintf( szHogaNumber, "%f", m_dHogaNumber);

  00226	83 c4 08	 add	 esp, 8
  00229	8b 85 2c fe ff
	ff		 mov	 eax, DWORD PTR _this$GSCopy$1$[ebp]
  0022f	f2 0f 10 40 40	 movsd	 xmm0, QWORD PTR [eax+64]
  00234	8d 85 70 ff ff
	ff		 lea	 eax, DWORD PTR _szHogaNumber$[ebp]
  0023a	f2 0f 11 04 24	 movsd	 QWORD PTR [esp], xmm0
  0023f	68 00 00 00 00	 push	 OFFSET ??_C@_02NJPGOMH@?$CFf@
  00244	50		 push	 eax
  00245	e8 00 00 00 00	 call	 _sprintf
  0024a	89 85 24 fe ff
	ff		 mov	 DWORD PTR _nHogaNumber$1$[ebp], eax

; 948  : 	int nInverType = sprintf( szInvertType, "%d", m_bIsVertScaleInvertType ? TRUE : FALSE);

  00250	33 c9		 xor	 ecx, ecx
  00252	8b 85 2c fe ff
	ff		 mov	 eax, DWORD PTR _this$GSCopy$1$[ebp]
  00258	38 48 34	 cmp	 BYTE PTR [eax+52], cl
  0025b	8d 85 5c ff ff
	ff		 lea	 eax, DWORD PTR _szInvertType$[ebp]
  00261	0f 95 c1	 setne	 cl
  00264	51		 push	 ecx
  00265	68 00 00 00 00	 push	 OFFSET ??_C@_02DPKJAMEF@?$CFd@
  0026a	50		 push	 eax
  0026b	e8 00 00 00 00	 call	 _sprintf
; File C:\Program Files (x86)\Microsoft Visual Studio\2019\Community\VC\Tools\MSVC\14.29.30133\atlmfc\include\atlsimpstr.h

; 519  : 		return( GetData()->nDataLength );

  00270	8b 8d 28 fe ff
	ff		 mov	 ecx, DWORD PTR _strScaleData$[ebp]
; File D:\git\src\IBK\IBK_DRFN\ProjSrc\SrcChartEx\ChartOCX\ScaleDraw\ScaleBaseData.cpp

; 948  : 	int nInverType = sprintf( szInvertType, "%d", m_bIsVertScaleInvertType ? TRUE : FALSE);

  00276	83 c4 1c	 add	 esp, 28			; 0000001cH
  00279	89 85 f4 fd ff
	ff		 mov	 DWORD PTR _nInverType$1$[ebp], eax
; File C:\Program Files (x86)\Microsoft Visual Studio\2019\Community\VC\Tools\MSVC\14.29.30133\atlmfc\include\atlsimpstr.h

; 519  : 		return( GetData()->nDataLength );

  0027f	8b 49 f4	 mov	 ecx, DWORD PTR [ecx-12]
; File D:\git\src\IBK\IBK_DRFN\ProjSrc\SrcChartEx\ChartOCX\ScaleDraw\ScaleBaseData.cpp

; 983  : 	nVertScaleData += 2;							// "\r\n"

  00282	83 c1 11	 add	 ecx, 17			; 00000011H
  00285	03 c1		 add	 eax, ecx

; 984  : 
; 985  : 	char *szVertScaleData = p_strVertScaleData.GetBufferSetLength( nVertScaleData);

  00287	8b 8d 20 fe ff
	ff		 mov	 ecx, DWORD PTR _p_strVertScaleData$GSCopy$1$[ebp]
  0028d	03 85 24 fe ff
	ff		 add	 eax, DWORD PTR _nHogaNumber$1$[ebp]
  00293	03 85 00 fe ff
	ff		 add	 eax, DWORD PTR _nUserNumber$1$[ebp]
  00299	03 85 04 fe ff
	ff		 add	 eax, DWORD PTR _nUserHogaType$1$[ebp]
  0029f	03 85 08 fe ff
	ff		 add	 eax, DWORD PTR _nDownSpace$1$[ebp]
  002a5	03 85 0c fe ff
	ff		 add	 eax, DWORD PTR _nUpSpace$1$[ebp]
  002ab	03 85 10 fe ff
	ff		 add	 eax, DWORD PTR _nMax$1$[ebp]
  002b1	03 85 14 fe ff
	ff		 add	 eax, DWORD PTR _nMin$1$[ebp]
  002b7	03 85 18 fe ff
	ff		 add	 eax, DWORD PTR _nMinMaxType$1$[ebp]
  002bd	03 c3		 add	 eax, ebx
  002bf	03 c7		 add	 eax, edi
  002c1	03 c6		 add	 eax, esi
  002c3	50		 push	 eax
  002c4	ff 15 00 00 00
	00		 call	 DWORD PTR __imp_?GetBufferSetLength@?$CSimpleStringT@D$00@ATL@@QAEPADH@Z
  002ca	8b d0		 mov	 edx, eax
; File C:\Program Files (x86)\Microsoft Visual Studio\2019\Community\VC\Tools\MSVC\14.29.30133\atlmfc\include\atlsimpstr.h

; 377  : 		return( m_pszData );

  002cc	8b 85 28 fe ff
	ff		 mov	 eax, DWORD PTR _strScaleData$[ebp]
; File D:\git\src\IBK\IBK_DRFN\ProjSrc\SrcChartEx\ChartOCX\ScaleDraw\ScaleBaseData.cpp

; 987  : 	strcpy( szVertScaleData, strScaleData);

  002d2	8b da		 mov	 ebx, edx
$LL5@GetScaleAl:
  002d4	8a 08		 mov	 cl, BYTE PTR [eax]
  002d6	8d 40 01	 lea	 eax, DWORD PTR [eax+1]
  002d9	88 0b		 mov	 BYTE PTR [ebx], cl
  002db	8d 5b 01	 lea	 ebx, DWORD PTR [ebx+1]
  002de	84 c9		 test	 cl, cl
  002e0	75 f2		 jne	 SHORT $LL5@GetScaleAl

; 988  : 	szVertScaleData += strScaleData.GetLength();

  002e2	8b 85 28 fe ff
	ff		 mov	 eax, DWORD PTR _strScaleData$[ebp]

; 989  : 	*szVertScaleData++ = ';';
; 990  : 	
; 991  : 	strcpy( szVertScaleData, szPosition);

  002e8	8d 4d e4	 lea	 ecx, DWORD PTR _szPosition$[ebp]
  002eb	8b 9d fc fd ff
	ff		 mov	 ebx, DWORD PTR _nUnitType$1$[ebp]
  002f1	8b f9		 mov	 edi, ecx
  002f3	03 50 f4	 add	 edx, DWORD PTR [eax-12]
  002f6	c6 02 3b	 mov	 BYTE PTR [edx], 59	; 0000003bH
  002f9	42		 inc	 edx
  002fa	8b c2		 mov	 eax, edx
  002fc	2b c7		 sub	 eax, edi
  002fe	89 85 20 fe ff
	ff		 mov	 DWORD PTR tv880[ebp], eax
  00304	8b f8		 mov	 edi, eax
$LL6@GetScaleAl:
  00306	8a 01		 mov	 al, BYTE PTR [ecx]
  00308	8d 49 01	 lea	 ecx, DWORD PTR [ecx+1]
  0030b	88 44 0f ff	 mov	 BYTE PTR [edi+ecx-1], al
  0030f	84 c0		 test	 al, al
  00311	75 f3		 jne	 SHORT $LL6@GetScaleAl

; 992  : 	szVertScaleData += nPosition;
; 993  : 	*szVertScaleData++ = ';';
; 994  : 	
; 995  : 	strcpy( szVertScaleData, szGridType);

  00313	8b bd f8 fd ff
	ff		 mov	 edi, DWORD PTR _nGridType$1$[ebp]
  00319	8d 4d d8	 lea	 ecx, DWORD PTR _szGridType$[ebp]
  0031c	03 d6		 add	 edx, esi
  0031e	8b c1		 mov	 eax, ecx
  00320	c6 02 3b	 mov	 BYTE PTR [edx], 59	; 0000003bH
  00323	42		 inc	 edx
  00324	8b f2		 mov	 esi, edx
  00326	2b f0		 sub	 esi, eax
  00328	0f 1f 84 00 00
	00 00 00	 npad	 8
$LL7@GetScaleAl:
  00330	8a 01		 mov	 al, BYTE PTR [ecx]
  00332	8d 49 01	 lea	 ecx, DWORD PTR [ecx+1]
  00335	88 44 0e ff	 mov	 BYTE PTR [esi+ecx-1], al
  00339	84 c0		 test	 al, al
  0033b	75 f3		 jne	 SHORT $LL7@GetScaleAl

; 996  : 	szVertScaleData += nGridType;

  0033d	03 d7		 add	 edx, edi

; 997  : 	*szVertScaleData++ = ';';
; 998  : 	
; 999  : 	strcpy( szVertScaleData, szUnitType);

  0033f	8d 4d cc	 lea	 ecx, DWORD PTR _szUnitType$[ebp]
  00342	8b c1		 mov	 eax, ecx
  00344	c6 02 3b	 mov	 BYTE PTR [edx], 59	; 0000003bH
  00347	42		 inc	 edx
  00348	8b f2		 mov	 esi, edx
  0034a	2b f0		 sub	 esi, eax
  0034c	0f 1f 40 00	 npad	 4
$LL8@GetScaleAl:
  00350	8a 01		 mov	 al, BYTE PTR [ecx]
  00352	8d 49 01	 lea	 ecx, DWORD PTR [ecx+1]
  00355	88 44 0e ff	 mov	 BYTE PTR [esi+ecx-1], al
  00359	84 c0		 test	 al, al
  0035b	75 f3		 jne	 SHORT $LL8@GetScaleAl

; 1000 : 	szVertScaleData += nUnitType;
; 1001 : 	*szVertScaleData++ = ';';
; 1002 : 	
; 1003 : 	*szVertScaleData++ = ( m_bMinMaxLock ? '1' : '0');

  0035d	8b 85 2c fe ff
	ff		 mov	 eax, DWORD PTR _this$GSCopy$1$[ebp]

; 1004 : 	*szVertScaleData++ = ';';
; 1005 : 	
; 1006 : 	strcpy( szVertScaleData, szMinMaxType);

  00363	8d 8d f8 fe ff
	ff		 lea	 ecx, DWORD PTR _szMinMaxType$[ebp]
  00369	03 d3		 add	 edx, ebx
  0036b	c6 02 3b	 mov	 BYTE PTR [edx], 59	; 0000003bH
  0036e	83 78 14 00	 cmp	 DWORD PTR [eax+20], 0
  00372	0f 95 c0	 setne	 al
  00375	04 30		 add	 al, 48			; 00000030H
  00377	88 42 01	 mov	 BYTE PTR [edx+1], al
  0037a	8b c1		 mov	 eax, ecx
  0037c	c6 42 02 3b	 mov	 BYTE PTR [edx+2], 59	; 0000003bH
  00380	83 c2 03	 add	 edx, 3
  00383	8b f2		 mov	 esi, edx
  00385	2b f0		 sub	 esi, eax
$LL9@GetScaleAl:
  00387	8a 01		 mov	 al, BYTE PTR [ecx]
  00389	8d 49 01	 lea	 ecx, DWORD PTR [ecx+1]
  0038c	88 44 0e ff	 mov	 BYTE PTR [esi+ecx-1], al
  00390	84 c0		 test	 al, al
  00392	75 f3		 jne	 SHORT $LL9@GetScaleAl

; 1007 : 	szVertScaleData += nMinMaxType;

  00394	03 95 18 fe ff
	ff		 add	 edx, DWORD PTR _nMinMaxType$1$[ebp]

; 1008 : 	*szVertScaleData++ = ';';
; 1009 : 	
; 1010 : 	strcpy( szVertScaleData, szMin);

  0039a	8d 8d 94 fe ff
	ff		 lea	 ecx, DWORD PTR _szMin$[ebp]
  003a0	8b c1		 mov	 eax, ecx
  003a2	c6 02 3b	 mov	 BYTE PTR [edx], 59	; 0000003bH
  003a5	42		 inc	 edx
  003a6	8b f2		 mov	 esi, edx
  003a8	2b f0		 sub	 esi, eax
  003aa	66 0f 1f 44 00
	00		 npad	 6
$LL10@GetScaleAl:
  003b0	8a 01		 mov	 al, BYTE PTR [ecx]
  003b2	8d 49 01	 lea	 ecx, DWORD PTR [ecx+1]
  003b5	88 44 0e ff	 mov	 BYTE PTR [esi+ecx-1], al
  003b9	84 c0		 test	 al, al
  003bb	75 f3		 jne	 SHORT $LL10@GetScaleAl

; 1011 : 	szVertScaleData += nMin;

  003bd	03 95 14 fe ff
	ff		 add	 edx, DWORD PTR _nMin$1$[ebp]

; 1012 : 	*szVertScaleData++ = ';';
; 1013 : 	
; 1014 : 	strcpy( szVertScaleData, szMax);

  003c3	8d 8d 30 fe ff
	ff		 lea	 ecx, DWORD PTR _szMax$[ebp]
  003c9	8b c1		 mov	 eax, ecx
  003cb	c6 02 3b	 mov	 BYTE PTR [edx], 59	; 0000003bH
  003ce	42		 inc	 edx
  003cf	8b f2		 mov	 esi, edx
  003d1	2b f0		 sub	 esi, eax
$LL11@GetScaleAl:
  003d3	8a 01		 mov	 al, BYTE PTR [ecx]
  003d5	8d 49 01	 lea	 ecx, DWORD PTR [ecx+1]
  003d8	88 44 0e ff	 mov	 BYTE PTR [esi+ecx-1], al
  003dc	84 c0		 test	 al, al
  003de	75 f3		 jne	 SHORT $LL11@GetScaleAl

; 1015 : 	szVertScaleData += nMax;

  003e0	03 95 10 fe ff
	ff		 add	 edx, DWORD PTR _nMax$1$[ebp]

; 1016 : 	*szVertScaleData++ = ';';
; 1017 : 	
; 1018 : 	// (2007/7/16 - Seung-Won, Bae) Up/Down Space
; 1019 : 	strcpy( szVertScaleData, szUpSpace);

  003e6	8d 4d ac	 lea	 ecx, DWORD PTR _szUpSpace$[ebp]
  003e9	8b c1		 mov	 eax, ecx
  003eb	c6 02 3b	 mov	 BYTE PTR [edx], 59	; 0000003bH
  003ee	42		 inc	 edx
  003ef	8b f2		 mov	 esi, edx
  003f1	2b f0		 sub	 esi, eax
$LL12@GetScaleAl:
  003f3	8a 01		 mov	 al, BYTE PTR [ecx]
  003f5	8d 49 01	 lea	 ecx, DWORD PTR [ecx+1]
  003f8	88 44 0e ff	 mov	 BYTE PTR [esi+ecx-1], al
  003fc	84 c0		 test	 al, al
  003fe	75 f3		 jne	 SHORT $LL12@GetScaleAl

; 1020 : 	szVertScaleData += nUpSpace;

  00400	03 95 0c fe ff
	ff		 add	 edx, DWORD PTR _nUpSpace$1$[ebp]

; 1021 : 	*szVertScaleData++ = ';';
; 1022 : 	strcpy( szVertScaleData, szDownSpace);

  00406	8d 4d 98	 lea	 ecx, DWORD PTR _szDownSpace$[ebp]
  00409	8b c1		 mov	 eax, ecx
  0040b	c6 02 3b	 mov	 BYTE PTR [edx], 59	; 0000003bH
  0040e	42		 inc	 edx
  0040f	8b f2		 mov	 esi, edx
  00411	2b f0		 sub	 esi, eax
$LL13@GetScaleAl:
  00413	8a 01		 mov	 al, BYTE PTR [ecx]
  00415	8d 49 01	 lea	 ecx, DWORD PTR [ecx+1]
  00418	88 44 0e ff	 mov	 BYTE PTR [esi+ecx-1], al
  0041c	84 c0		 test	 al, al
  0041e	75 f3		 jne	 SHORT $LL13@GetScaleAl

; 1023 : 	szVertScaleData += nDownSpace;

  00420	03 95 08 fe ff
	ff		 add	 edx, DWORD PTR _nDownSpace$1$[ebp]

; 1024 : 	*szVertScaleData++ = ';';
; 1025 : 
; 1026 : //2007.01.22 Scale사용자 설정,호가단위별
; 1027 : 	strcpy( szVertScaleData, szUserHogaType);

  00426	8d 4d c0	 lea	 ecx, DWORD PTR _szUserHogaType$[ebp]
  00429	8b c1		 mov	 eax, ecx
  0042b	c6 02 3b	 mov	 BYTE PTR [edx], 59	; 0000003bH
  0042e	42		 inc	 edx
  0042f	8b f2		 mov	 esi, edx
  00431	2b f0		 sub	 esi, eax
$LL14@GetScaleAl:
  00433	8a 01		 mov	 al, BYTE PTR [ecx]
  00435	8d 49 01	 lea	 ecx, DWORD PTR [ecx+1]
  00438	88 44 0e ff	 mov	 BYTE PTR [esi+ecx-1], al
  0043c	84 c0		 test	 al, al
  0043e	75 f3		 jne	 SHORT $LL14@GetScaleAl

; 1028 : 	szVertScaleData += nUserHogaType;

  00440	03 95 04 fe ff
	ff		 add	 edx, DWORD PTR _nUserHogaType$1$[ebp]

; 1029 : 	*szVertScaleData++ = ';';
; 1030 : 	
; 1031 : 	strcpy( szVertScaleData, szUserNumber);

  00446	8d 4d 84	 lea	 ecx, DWORD PTR _szUserNumber$[ebp]
  00449	8b c1		 mov	 eax, ecx
  0044b	c6 02 3b	 mov	 BYTE PTR [edx], 59	; 0000003bH
  0044e	42		 inc	 edx
  0044f	8b f2		 mov	 esi, edx
  00451	2b f0		 sub	 esi, eax
$LL15@GetScaleAl:
  00453	8a 01		 mov	 al, BYTE PTR [ecx]
  00455	8d 49 01	 lea	 ecx, DWORD PTR [ecx+1]
  00458	88 44 0e ff	 mov	 BYTE PTR [esi+ecx-1], al
  0045c	84 c0		 test	 al, al
  0045e	75 f3		 jne	 SHORT $LL15@GetScaleAl

; 1032 : 	szVertScaleData += nUserNumber;

  00460	03 95 00 fe ff
	ff		 add	 edx, DWORD PTR _nUserNumber$1$[ebp]

; 1033 : 	*szVertScaleData++ = ';';
; 1034 : 
; 1035 : 	strcpy( szVertScaleData, szHogaNumber);

  00466	8d 8d 70 ff ff
	ff		 lea	 ecx, DWORD PTR _szHogaNumber$[ebp]
  0046c	8b c1		 mov	 eax, ecx
  0046e	c6 02 3b	 mov	 BYTE PTR [edx], 59	; 0000003bH
  00471	42		 inc	 edx
  00472	8b f2		 mov	 esi, edx
  00474	2b f0		 sub	 esi, eax
$LL16@GetScaleAl:
  00476	8a 01		 mov	 al, BYTE PTR [ecx]
  00478	8d 49 01	 lea	 ecx, DWORD PTR [ecx+1]
  0047b	88 44 0e ff	 mov	 BYTE PTR [esi+ecx-1], al
  0047f	84 c0		 test	 al, al
  00481	75 f3		 jne	 SHORT $LL16@GetScaleAl

; 1036 : 	szVertScaleData += nHogaNumber;

  00483	03 95 24 fe ff
	ff		 add	 edx, DWORD PTR _nHogaNumber$1$[ebp]

; 1037 : 	*szVertScaleData++ = ';';
; 1038 : //2007.01.22 Scale사용자 설정,호가단위별
; 1039 : 
; 1040 : 	// 지표 뒤집기 - ojtaso (20071023)
; 1041 : 	strcpy( szVertScaleData, szInvertType);

  00489	8d 8d 5c ff ff
	ff		 lea	 ecx, DWORD PTR _szInvertType$[ebp]
  0048f	8b c1		 mov	 eax, ecx
  00491	c6 02 3b	 mov	 BYTE PTR [edx], 59	; 0000003bH
  00494	42		 inc	 edx
  00495	8b f2		 mov	 esi, edx
  00497	2b f0		 sub	 esi, eax
  00499	0f 1f 80 00 00
	00 00		 npad	 7
$LL17@GetScaleAl:
  004a0	8a 01		 mov	 al, BYTE PTR [ecx]
  004a2	8d 49 01	 lea	 ecx, DWORD PTR [ecx+1]
  004a5	88 44 31 ff	 mov	 BYTE PTR [ecx+esi-1], al
  004a9	84 c0		 test	 al, al
  004ab	75 f3		 jne	 SHORT $LL17@GetScaleAl

; 1042 : 	szVertScaleData += nInverType;

  004ad	03 95 f4 fd ff
	ff		 add	 edx, DWORD PTR _nInverType$1$[ebp]

; 1043 : 	*szVertScaleData++ = ';';
; 1044 : 
; 1045 : 	*szVertScaleData++ = '\r';
; 1046 : 	*szVertScaleData++ = '\n';
; 1047 : }

  004b3	8d 8d 28 fe ff
	ff		 lea	 ecx, DWORD PTR _strScaleData$[ebp]
  004b9	66 c7 02 3b 0d	 mov	 WORD PTR [edx], 3387	; 00000d3bH
  004be	c6 42 02 0a	 mov	 BYTE PTR [edx+2], 10	; 0000000aH
  004c2	ff 15 00 00 00
	00		 call	 DWORD PTR __imp_??1?$CStringT@DV?$StrTraitMFC_DLL@DV?$ChTraitsCRT@D@ATL@@@@@ATL@@QAE@XZ
  004c8	8b 4d f4	 mov	 ecx, DWORD PTR __$EHRec$[ebp]
  004cb	64 89 0d 00 00
	00 00		 mov	 DWORD PTR fs:0, ecx
  004d2	59		 pop	 ecx
  004d3	5f		 pop	 edi
  004d4	5e		 pop	 esi
  004d5	5b		 pop	 ebx
  004d6	8b 4d f0	 mov	 ecx, DWORD PTR __$ArrayPad$[ebp]
  004d9	33 cd		 xor	 ecx, ebp
  004db	e8 00 00 00 00	 call	 @__security_check_cookie@4
  004e0	8b e5		 mov	 esp, ebp
  004e2	5d		 pop	 ebp
  004e3	c2 08 00	 ret	 8
_TEXT	ENDS
;	COMDAT text$x
text$x	SEGMENT
__unwindfunclet$?GetScaleAllData@CVerticalScale@@QBEXAAV?$CStringT@DV?$StrTraitMFC_DLL@DV?$ChTraitsCRT@D@ATL@@@@@ATL@@PBD@Z$0:
  00000	8b 85 24 fe ff
	ff		 mov	 eax, DWORD PTR $T3[ebp]
  00006	83 e0 01	 and	 eax, 1
  00009	0f 84 13 00 00
	00		 je	 $LN19@GetScaleAl
  0000f	83 a5 24 fe ff
	ff fe		 and	 DWORD PTR $T3[ebp], -2	; fffffffeH
  00016	8d 8d 1c fe ff
	ff		 lea	 ecx, DWORD PTR $T2[ebp]
  0001c	ff 25 00 00 00
	00		 jmp	 DWORD PTR __imp_??1?$CStringT@DV?$StrTraitMFC_DLL@DV?$ChTraitsCRT@D@ATL@@@@@ATL@@QAE@XZ
$LN19@GetScaleAl:
  00022	c3		 ret	 0
__unwindfunclet$?GetScaleAllData@CVerticalScale@@QBEXAAV?$CStringT@DV?$StrTraitMFC_DLL@DV?$ChTraitsCRT@D@ATL@@@@@ATL@@PBD@Z$1:
  00023	8d 8d 28 fe ff
	ff		 lea	 ecx, DWORD PTR _strScaleData$[ebp]
  00029	ff 25 00 00 00
	00		 jmp	 DWORD PTR __imp_??1?$CStringT@DV?$StrTraitMFC_DLL@DV?$ChTraitsCRT@D@ATL@@@@@ATL@@QAE@XZ
  0002f	cc		 int	 3
  00030	cc		 int	 3
  00031	cc		 int	 3
  00032	cc		 int	 3
  00033	cc		 int	 3
__ehhandler$?GetScaleAllData@CVerticalScale@@QBEXAAV?$CStringT@DV?$StrTraitMFC_DLL@DV?$ChTraitsCRT@D@ATL@@@@@ATL@@PBD@Z:
  00034	90		 npad	 1
  00035	90		 npad	 1
  00036	8b 54 24 08	 mov	 edx, DWORD PTR [esp+8]
  0003a	8d 42 0c	 lea	 eax, DWORD PTR [edx+12]
  0003d	8b 8a f0 fd ff
	ff		 mov	 ecx, DWORD PTR [edx-528]
  00043	33 c8		 xor	 ecx, eax
  00045	e8 00 00 00 00	 call	 @__security_check_cookie@4
  0004a	8b 4a fc	 mov	 ecx, DWORD PTR [edx-4]
  0004d	33 c8		 xor	 ecx, eax
  0004f	e8 00 00 00 00	 call	 @__security_check_cookie@4
  00054	b8 00 00 00 00	 mov	 eax, OFFSET __ehfuncinfo$?GetScaleAllData@CVerticalScale@@QBEXAAV?$CStringT@DV?$StrTraitMFC_DLL@DV?$ChTraitsCRT@D@ATL@@@@@ATL@@PBD@Z
  00059	e9 00 00 00 00	 jmp	 ___CxxFrameHandler3
text$x	ENDS
?GetScaleAllData@CVerticalScale@@QBEXAAV?$CStringT@DV?$StrTraitMFC_DLL@DV?$ChTraitsCRT@D@ATL@@@@@ATL@@PBD@Z ENDP ; CVerticalScale::GetScaleAllData
; Function compile flags: /Ogtp
; File D:\git\src\IBK\IBK_DRFN\ProjSrc\SrcChartEx\ChartOCX\ScaleDraw\ScaleBaseData.cpp
;	COMDAT ?GetVertScaleUnitType@CVerticalScale@@QBE?AW4VERTSCALEUNITTYPE@CScaleBaseData@@XZ
_TEXT	SEGMENT
?GetVertScaleUnitType@CVerticalScale@@QBE?AW4VERTSCALEUNITTYPE@CScaleBaseData@@XZ PROC ; CVerticalScale::GetVertScaleUnitType, COMDAT
; _this$ = ecx

; 899  : 	return m_eUnitType;

  00000	8b 41 10	 mov	 eax, DWORD PTR [ecx+16]

; 900  : }

  00003	c3		 ret	 0
?GetVertScaleUnitType@CVerticalScale@@QBE?AW4VERTSCALEUNITTYPE@CScaleBaseData@@XZ ENDP ; CVerticalScale::GetVertScaleUnitType
_TEXT	ENDS
; Function compile flags: /Ogtp
; File D:\git\src\IBK\IBK_DRFN\ProjSrc\SrcChartEx\ChartOCX\ScaleDraw\ScaleBaseData.cpp
;	COMDAT ?GetVertScalePosition@CVerticalScale@@QBE?AW4VERTSCALEPOSITION@CScaleBaseData@@XZ
_TEXT	SEGMENT
?GetVertScalePosition@CVerticalScale@@QBE?AW4VERTSCALEPOSITION@CScaleBaseData@@XZ PROC ; CVerticalScale::GetVertScalePosition, COMDAT
; _this$ = ecx

; 894  : 	return m_ePosition;

  00000	8b 41 0c	 mov	 eax, DWORD PTR [ecx+12]

; 895  : }

  00003	c3		 ret	 0
?GetVertScalePosition@CVerticalScale@@QBE?AW4VERTSCALEPOSITION@CScaleBaseData@@XZ ENDP ; CVerticalScale::GetVertScalePosition
_TEXT	ENDS
; Function compile flags: /Ogtp
; File D:\git\src\IBK\IBK_DRFN\ProjSrc\SrcChartEx\ChartOCX\ScaleDraw\ScaleBaseData.cpp
;	COMDAT ?SetVertScaleUnitType@CVerticalScale@@QAEXW4VERTSCALEUNITTYPE@CScaleBaseData@@@Z
_TEXT	SEGMENT
_eUnitType$ = 8						; size = 4
?SetVertScaleUnitType@CVerticalScale@@QAEXW4VERTSCALEUNITTYPE@CScaleBaseData@@@Z PROC ; CVerticalScale::SetVertScaleUnitType, COMDAT
; _this$ = ecx

; 887  : {

  00000	55		 push	 ebp
  00001	8b ec		 mov	 ebp, esp

; 888  : 	m_eUnitType = eUnitType;

  00003	8b 45 08	 mov	 eax, DWORD PTR _eUnitType$[ebp]
  00006	89 41 10	 mov	 DWORD PTR [ecx+16], eax

; 889  : }

  00009	5d		 pop	 ebp
  0000a	c2 04 00	 ret	 4
?SetVertScaleUnitType@CVerticalScale@@QAEXW4VERTSCALEUNITTYPE@CScaleBaseData@@@Z ENDP ; CVerticalScale::SetVertScaleUnitType
_TEXT	ENDS
; Function compile flags: /Ogtp
; File D:\git\src\IBK\IBK_DRFN\ProjSrc\SrcChartEx\ChartOCX\ScaleDraw\ScaleBaseData.cpp
;	COMDAT ?SetVertScaleUnitType@CVerticalScale@@QAEXPAD@Z
_TEXT	SEGMENT
_p_szScaleUnitType$ = 8					; size = 4
?SetVertScaleUnitType@CVerticalScale@@QAEXPAD@Z PROC	; CVerticalScale::SetVertScaleUnitType, COMDAT
; _this$ = ecx

; 879  : {

  00000	55		 push	 ebp
  00001	8b ec		 mov	 ebp, esp

; 880  : 	if( !p_szScaleUnitType) return;

  00003	8b 45 08	 mov	 eax, DWORD PTR _p_szScaleUnitType$[ebp]
  00006	56		 push	 esi
  00007	8b f1		 mov	 esi, ecx
  00009	85 c0		 test	 eax, eax
  0000b	74 12		 je	 SHORT $LN1@SetVertSca

; 881  : 	if( !*p_szScaleUnitType) return;

  0000d	80 38 00	 cmp	 BYTE PTR [eax], 0
  00010	74 0d		 je	 SHORT $LN1@SetVertSca

; 882  : 
; 883  : 	m_eUnitType = ( CScaleBaseData::VERTSCALEUNITTYPE)atoi( p_szScaleUnitType);

  00012	50		 push	 eax
  00013	ff 15 00 00 00
	00		 call	 DWORD PTR __imp__atoi
  00019	83 c4 04	 add	 esp, 4
  0001c	89 46 10	 mov	 DWORD PTR [esi+16], eax
$LN1@SetVertSca:
  0001f	5e		 pop	 esi

; 884  : }

  00020	5d		 pop	 ebp
  00021	c2 04 00	 ret	 4
?SetVertScaleUnitType@CVerticalScale@@QAEXPAD@Z ENDP	; CVerticalScale::SetVertScaleUnitType
_TEXT	ENDS
; Function compile flags: /Ogtp
; File D:\git\src\IBK\IBK_DRFN\ProjSrc\SrcChartEx\ChartOCX\ScaleDraw\ScaleBaseData.cpp
;	COMDAT ?SetVertScalePosition@CVerticalScale@@QAEXW4VERTSCALEPOSITION@CScaleBaseData@@@Z
_TEXT	SEGMENT
_ePosition$ = 8						; size = 4
?SetVertScalePosition@CVerticalScale@@QAEXW4VERTSCALEPOSITION@CScaleBaseData@@@Z PROC ; CVerticalScale::SetVertScalePosition, COMDAT
; _this$ = ecx

; 874  : {

  00000	55		 push	 ebp
  00001	8b ec		 mov	 ebp, esp

; 875  : 	m_ePosition = ePosition;

  00003	8b 45 08	 mov	 eax, DWORD PTR _ePosition$[ebp]
  00006	89 41 0c	 mov	 DWORD PTR [ecx+12], eax

; 876  : }

  00009	5d		 pop	 ebp
  0000a	c2 04 00	 ret	 4
?SetVertScalePosition@CVerticalScale@@QAEXW4VERTSCALEPOSITION@CScaleBaseData@@@Z ENDP ; CVerticalScale::SetVertScalePosition
_TEXT	ENDS
; Function compile flags: /Ogtp
; File D:\git\src\IBK\IBK_DRFN\ProjSrc\SrcChartEx\ChartOCX\ScaleDraw\ScaleBaseData.cpp
;	COMDAT ?SetVertScalePosition@CVerticalScale@@QAEXPAD@Z
_TEXT	SEGMENT
_p_szScalePosition$ = 8					; size = 4
?SetVertScalePosition@CVerticalScale@@QAEXPAD@Z PROC	; CVerticalScale::SetVertScalePosition, COMDAT
; _this$ = ecx

; 867  : {

  00000	55		 push	 ebp
  00001	8b ec		 mov	 ebp, esp

; 868  : 	if( !p_szScalePosition) return;

  00003	8b 45 08	 mov	 eax, DWORD PTR _p_szScalePosition$[ebp]
  00006	56		 push	 esi
  00007	8b f1		 mov	 esi, ecx
  00009	85 c0		 test	 eax, eax
  0000b	74 12		 je	 SHORT $LN1@SetVertSca

; 869  : 	if( !*p_szScalePosition) return;

  0000d	80 38 00	 cmp	 BYTE PTR [eax], 0
  00010	74 0d		 je	 SHORT $LN1@SetVertSca

; 870  : 	m_ePosition = ( CScaleBaseData::VERTSCALEPOSITION)atoi( p_szScalePosition);

  00012	50		 push	 eax
  00013	ff 15 00 00 00
	00		 call	 DWORD PTR __imp__atoi
  00019	83 c4 04	 add	 esp, 4
  0001c	89 46 0c	 mov	 DWORD PTR [esi+12], eax
$LN1@SetVertSca:
  0001f	5e		 pop	 esi

; 871  : }

  00020	5d		 pop	 ebp
  00021	c2 04 00	 ret	 4
?SetVertScalePosition@CVerticalScale@@QAEXPAD@Z ENDP	; CVerticalScale::SetVertScalePosition
_TEXT	ENDS
; Function compile flags: /Ogtp
; File D:\git\src\IBK\IBK_DRFN\ProjSrc\SrcChartEx\ChartOCX\ScaleDraw\ScaleBaseData.cpp
; File C:\Program Files (x86)\Windows Kits\10\Include\10.0.22000.0\ucrt\string.h
; File D:\git\src\IBK\IBK_DRFN\ProjSrc\SrcChartEx\ChartOCX\ScaleDraw\ScaleBaseData.cpp
; File C:\Program Files (x86)\Windows Kits\10\Include\10.0.22000.0\ucrt\string.h
; File D:\git\src\IBK\IBK_DRFN\ProjSrc\SrcChartEx\ChartOCX\ScaleDraw\ScaleBaseData.cpp
; File C:\Program Files (x86)\Microsoft Visual Studio\2019\Community\VC\Tools\MSVC\14.29.30133\atlmfc\include\atlsimpstr.h
; File D:\git\src\IBK\IBK_DRFN\ProjSrc\SrcChartEx\ChartOCX\ScaleDraw\ScaleBaseData.cpp
; File C:\Program Files (x86)\Microsoft Visual Studio\2019\Community\VC\Tools\MSVC\14.29.30133\atlmfc\include\atlsimpstr.h
; File D:\git\src\IBK\IBK_DRFN\ProjSrc\SrcChartEx\ChartOCX\ScaleDraw\ScaleBaseData.cpp
; File C:\Program Files (x86)\Windows Kits\10\Include\10.0.22000.0\ucrt\string.h
; File D:\git\src\IBK\IBK_DRFN\ProjSrc\SrcChartEx\ChartOCX\ScaleDraw\ScaleBaseData.cpp
; File C:\Program Files (x86)\Windows Kits\10\Include\10.0.22000.0\ucrt\string.h
; File D:\git\src\IBK\IBK_DRFN\ProjSrc\SrcChartEx\ChartOCX\ScaleDraw\ScaleBaseData.cpp
; File C:\Program Files (x86)\Windows Kits\10\Include\10.0.22000.0\ucrt\string.h
; File D:\git\src\IBK\IBK_DRFN\ProjSrc\SrcChartEx\ChartOCX\ScaleDraw\ScaleBaseData.cpp
; File C:\Program Files (x86)\Windows Kits\10\Include\10.0.22000.0\ucrt\string.h
; File D:\git\src\IBK\IBK_DRFN\ProjSrc\SrcChartEx\ChartOCX\ScaleDraw\ScaleBaseData.cpp
; File C:\Program Files (x86)\Windows Kits\10\Include\10.0.22000.0\ucrt\string.h
; File D:\git\src\IBK\IBK_DRFN\ProjSrc\SrcChartEx\ChartOCX\ScaleDraw\ScaleBaseData.cpp
; File C:\Program Files (x86)\Windows Kits\10\Include\10.0.22000.0\ucrt\string.h
; File D:\git\src\IBK\IBK_DRFN\ProjSrc\SrcChartEx\ChartOCX\ScaleDraw\ScaleBaseData.cpp
; File C:\Program Files (x86)\Windows Kits\10\Include\10.0.22000.0\ucrt\string.h
; File D:\git\src\IBK\IBK_DRFN\ProjSrc\SrcChartEx\ChartOCX\ScaleDraw\ScaleBaseData.cpp
; File C:\Program Files (x86)\Windows Kits\10\Include\10.0.22000.0\ucrt\string.h
; File D:\git\src\IBK\IBK_DRFN\ProjSrc\SrcChartEx\ChartOCX\ScaleDraw\ScaleBaseData.cpp
; File C:\Program Files (x86)\Windows Kits\10\Include\10.0.22000.0\ucrt\string.h
; File D:\git\src\IBK\IBK_DRFN\ProjSrc\SrcChartEx\ChartOCX\ScaleDraw\ScaleBaseData.cpp
; File C:\Program Files (x86)\Windows Kits\10\Include\10.0.22000.0\ucrt\string.h
; File D:\git\src\IBK\IBK_DRFN\ProjSrc\SrcChartEx\ChartOCX\ScaleDraw\ScaleBaseData.cpp
; File C:\Program Files (x86)\Windows Kits\10\Include\10.0.22000.0\ucrt\string.h
; File D:\git\src\IBK\IBK_DRFN\ProjSrc\SrcChartEx\ChartOCX\ScaleDraw\ScaleBaseData.cpp
; File C:\Program Files (x86)\Windows Kits\10\Include\10.0.22000.0\ucrt\string.h
; File D:\git\src\IBK\IBK_DRFN\ProjSrc\SrcChartEx\ChartOCX\ScaleDraw\ScaleBaseData.cpp
; File C:\Program Files (x86)\Windows Kits\10\Include\10.0.22000.0\ucrt\string.h
; File D:\git\src\IBK\IBK_DRFN\ProjSrc\SrcChartEx\ChartOCX\ScaleDraw\ScaleBaseData.cpp
; File C:\Program Files (x86)\Windows Kits\10\Include\10.0.22000.0\ucrt\string.h
; File D:\git\src\IBK\IBK_DRFN\ProjSrc\SrcChartEx\ChartOCX\ScaleDraw\ScaleBaseData.cpp
; File C:\Program Files (x86)\Windows Kits\10\Include\10.0.22000.0\ucrt\string.h
; File D:\git\src\IBK\IBK_DRFN\ProjSrc\SrcChartEx\ChartOCX\ScaleDraw\ScaleBaseData.cpp
; File C:\Program Files (x86)\Windows Kits\10\Include\10.0.22000.0\ucrt\string.h
; File D:\git\src\IBK\IBK_DRFN\ProjSrc\SrcChartEx\ChartOCX\ScaleDraw\ScaleBaseData.cpp
; File C:\Program Files (x86)\Windows Kits\10\Include\10.0.22000.0\ucrt\string.h
; File D:\git\src\IBK\IBK_DRFN\ProjSrc\SrcChartEx\ChartOCX\ScaleDraw\ScaleBaseData.cpp
; File C:\Program Files (x86)\Windows Kits\10\Include\10.0.22000.0\ucrt\string.h
; File D:\git\src\IBK\IBK_DRFN\ProjSrc\SrcChartEx\ChartOCX\ScaleDraw\ScaleBaseData.cpp
; File C:\Program Files (x86)\Windows Kits\10\Include\10.0.22000.0\ucrt\string.h
; File D:\git\src\IBK\IBK_DRFN\ProjSrc\SrcChartEx\ChartOCX\ScaleDraw\ScaleBaseData.cpp
; File C:\Program Files (x86)\Windows Kits\10\Include\10.0.22000.0\ucrt\string.h
; File D:\git\src\IBK\IBK_DRFN\ProjSrc\SrcChartEx\ChartOCX\ScaleDraw\ScaleBaseData.cpp
; File C:\Program Files (x86)\Windows Kits\10\Include\10.0.22000.0\ucrt\string.h
; File D:\git\src\IBK\IBK_DRFN\ProjSrc\SrcChartEx\ChartOCX\ScaleDraw\ScaleBaseData.cpp
; File C:\Program Files (x86)\Windows Kits\10\Include\10.0.22000.0\ucrt\string.h
; File D:\git\src\IBK\IBK_DRFN\ProjSrc\SrcChartEx\ChartOCX\ScaleDraw\ScaleBaseData.cpp
; File C:\Program Files (x86)\Windows Kits\10\Include\10.0.22000.0\ucrt\string.h
; File D:\git\src\IBK\IBK_DRFN\ProjSrc\SrcChartEx\ChartOCX\ScaleDraw\ScaleBaseData.cpp
; File C:\Program Files (x86)\Windows Kits\10\Include\10.0.22000.0\ucrt\string.h
; File D:\git\src\IBK\IBK_DRFN\ProjSrc\SrcChartEx\ChartOCX\ScaleDraw\ScaleBaseData.cpp
; File C:\Program Files (x86)\Windows Kits\10\Include\10.0.22000.0\ucrt\string.h
; File D:\git\src\IBK\IBK_DRFN\ProjSrc\SrcChartEx\ChartOCX\ScaleDraw\ScaleBaseData.cpp
; File C:\Program Files (x86)\Windows Kits\10\Include\10.0.22000.0\ucrt\string.h
; File D:\git\src\IBK\IBK_DRFN\ProjSrc\SrcChartEx\ChartOCX\ScaleDraw\ScaleBaseData.cpp
; File C:\Program Files (x86)\Windows Kits\10\Include\10.0.22000.0\ucrt\string.h
; File D:\git\src\IBK\IBK_DRFN\ProjSrc\SrcChartEx\ChartOCX\ScaleDraw\ScaleBaseData.cpp
; File C:\Program Files (x86)\Windows Kits\10\Include\10.0.22000.0\ucrt\string.h
; File D:\git\src\IBK\IBK_DRFN\ProjSrc\SrcChartEx\ChartOCX\ScaleDraw\ScaleBaseData.cpp
; File C:\Program Files (x86)\Windows Kits\10\Include\10.0.22000.0\ucrt\string.h
; File D:\git\src\IBK\IBK_DRFN\ProjSrc\SrcChartEx\ChartOCX\ScaleDraw\ScaleBaseData.cpp
;	COMDAT ?SetScaleData@CVerticalScale@@UAEXPADPAUHWND__@@@Z
_TEXT	SEGMENT
$T2 = -32						; size = 8
$T3 = -32						; size = 8
$T4 = -24						; size = 8
_strScaleData$ = -16					; size = 4
__$EHRec$ = -12						; size = 12
_szEnd$1$ = 8						; size = 4
_szHogaNumber$1$ = 8					; size = 4
_szUserNumber$1$ = 8					; size = 4
_szDownSpace$1$ = 8					; size = 4
_szMax$1$ = 8						; size = 4
_szMin$1$ = 8						; size = 4
_szMinMaxLock$1$ = 8					; size = 4
_szGridType$1$ = 8					; size = 4
_p_szScaleData$ = 8					; size = 4
_p_hOcxWnd$ = 12					; size = 4
?SetScaleData@CVerticalScale@@UAEXPADPAUHWND__@@@Z PROC	; CVerticalScale::SetScaleData, COMDAT
; _this$ = ecx

; 758  : {

  00000	55		 push	 ebp
  00001	8b ec		 mov	 ebp, esp
  00003	6a ff		 push	 -1
  00005	68 00 00 00 00	 push	 __ehhandler$?SetScaleData@CVerticalScale@@UAEXPADPAUHWND__@@@Z
  0000a	64 a1 00 00 00
	00		 mov	 eax, DWORD PTR fs:0
  00010	50		 push	 eax
  00011	83 ec 14	 sub	 esp, 20			; 00000014H
  00014	53		 push	 ebx
  00015	56		 push	 esi
  00016	57		 push	 edi
  00017	a1 00 00 00 00	 mov	 eax, DWORD PTR ___security_cookie
  0001c	33 c5		 xor	 eax, ebp
  0001e	50		 push	 eax
  0001f	8d 45 f4	 lea	 eax, DWORD PTR __$EHRec$[ebp]
  00022	64 a3 00 00 00
	00		 mov	 DWORD PTR fs:0, eax
  00028	8b f1		 mov	 esi, ecx

; 759  : 	// 사용할 Data;위치;grid타입;unit타입;
; 760  : 	if( !p_szScaleData) return;

  0002a	8b 7d 08	 mov	 edi, DWORD PTR _p_szScaleData$[ebp]
  0002d	85 ff		 test	 edi, edi
  0002f	0f 84 bb 03 00
	00		 je	 $LN1@SetScaleDa

; 761  : 	if( !*p_szScaleData) return;

  00035	80 3f 00	 cmp	 BYTE PTR [edi], 0
  00038	0f 84 b2 03 00
	00		 je	 $LN1@SetScaleDa
; File C:\Program Files (x86)\Windows Kits\10\Include\10.0.22000.0\ucrt\string.h

; 502  :         return const_cast<char*>(strchr(static_cast<char const*>(_String), _Ch));

  0003e	6a 3b		 push	 59			; 0000003bH
  00040	57		 push	 edi
  00041	e8 00 00 00 00	 call	 _strchr
; File D:\git\src\IBK\IBK_DRFN\ProjSrc\SrcChartEx\ChartOCX\ScaleDraw\ScaleBaseData.cpp

; 763  : 	char *szPosition = strchr( p_szScaleData, ';');

  00046	8b d8		 mov	 ebx, eax
; File C:\Program Files (x86)\Windows Kits\10\Include\10.0.22000.0\ucrt\string.h

; 502  :         return const_cast<char*>(strchr(static_cast<char const*>(_String), _Ch));

  00048	83 c4 08	 add	 esp, 8
; File D:\git\src\IBK\IBK_DRFN\ProjSrc\SrcChartEx\ChartOCX\ScaleDraw\ScaleBaseData.cpp

; 764  : 	if( szPosition) *szPosition = '\0';

  0004b	85 db		 test	 ebx, ebx
  0004d	74 03		 je	 SHORT $LN4@SetScaleDa
  0004f	c6 03 00	 mov	 BYTE PTR [ebx], 0
$LN4@SetScaleDa:

; 766  : 	CString strScaleData = _MTOM6_N( p_szScaleData);

  00052	6a 01		 push	 1
  00054	57		 push	 edi
  00055	6a 06		 push	 6
  00057	6a 00		 push	 0
  00059	b9 00 00 00 00	 mov	 ecx, OFFSET ?g_iMetaTable@@3VIMetaTable@@A ; g_iMetaTable
  0005e	e8 00 00 00 00	 call	 ?GetMetaTextFromOther@IMetaTable@@QAEPBDPAUHWND__@@W4E_CODEPAGE@1@PBDH@Z ; IMetaTable::GetMetaTextFromOther
  00063	50		 push	 eax
  00064	8d 4d f0	 lea	 ecx, DWORD PTR _strScaleData$[ebp]
  00067	ff 15 00 00 00
	00		 call	 DWORD PTR __imp_??0?$CStringT@DV?$StrTraitMFC_DLL@DV?$ChTraitsCRT@D@ATL@@@@@ATL@@QAE@PBD@Z
; File C:\Program Files (x86)\Microsoft Visual Studio\2019\Community\VC\Tools\MSVC\14.29.30133\atlmfc\include\atlsimpstr.h

; 533  : 		return( GetLength() == 0 );

  0006d	8b 45 f0	 mov	 eax, DWORD PTR _strScaleData$[ebp]
; File D:\git\src\IBK\IBK_DRFN\ProjSrc\SrcChartEx\ChartOCX\ScaleDraw\ScaleBaseData.cpp

; 766  : 	CString strScaleData = _MTOM6_N( p_szScaleData);

  00070	c7 45 fc 00 00
	00 00		 mov	 DWORD PTR __$EHRec$[ebp+8], 0
; File C:\Program Files (x86)\Microsoft Visual Studio\2019\Community\VC\Tools\MSVC\14.29.30133\atlmfc\include\atlsimpstr.h

; 533  : 		return( GetLength() == 0 );

  00077	83 78 f4 00	 cmp	 DWORD PTR [eax-12], 0
; File D:\git\src\IBK\IBK_DRFN\ProjSrc\SrcChartEx\ChartOCX\ScaleDraw\ScaleBaseData.cpp

; 767  : 	if( strScaleData.IsEmpty()) strScaleData = _STOM0( p_szScaleData);

  0007b	75 1f		 jne	 SHORT $LN5@SetScaleDa
  0007d	6a 00		 push	 0
  0007f	57		 push	 edi
  00080	6a 00		 push	 0
  00082	ff 75 0c	 push	 DWORD PTR _p_hOcxWnd$[ebp]
  00085	b9 00 00 00 00	 mov	 ecx, OFFSET ?g_iMetaTable@@3VIMetaTable@@A ; g_iMetaTable
  0008a	e8 00 00 00 00	 call	 ?GetMetaTextForScript@IMetaTable@@QAEPBDPAUHWND__@@W4E_CODEPAGE@1@PBDH@Z ; IMetaTable::GetMetaTextForScript
  0008f	50		 push	 eax
  00090	8d 4d f0	 lea	 ecx, DWORD PTR _strScaleData$[ebp]
  00093	ff 15 00 00 00
	00		 call	 DWORD PTR __imp_??4?$CStringT@DV?$StrTraitMFC_DLL@DV?$ChTraitsCRT@D@ATL@@@@@ATL@@QAEAAV01@PBD@Z
  00099	8b 45 f0	 mov	 eax, DWORD PTR _strScaleData$[ebp]
$LN5@SetScaleDa:

; 130  : 	m_strScaleData = p_szScaleData;

  0009c	50		 push	 eax
  0009d	8d 4e 04	 lea	 ecx, DWORD PTR [esi+4]
  000a0	ff 15 00 00 00
	00		 call	 DWORD PTR __imp_??4?$CStringT@DV?$StrTraitMFC_DLL@DV?$ChTraitsCRT@D@ATL@@@@@ATL@@QAEAAV01@PBD@Z

; 768  : 	CScale::SetScaleData( ( char *)( const char *)strScaleData, p_hOcxWnd);
; 769  : 	if( szPosition) *szPosition++ = ';';

  000a6	85 db		 test	 ebx, ebx
  000a8	0f 84 39 03 00
	00		 je	 $LN6@SetScaleDa
  000ae	c6 03 3b	 mov	 BYTE PTR [ebx], 59	; 0000003bH
  000b1	43		 inc	 ebx
; File C:\Program Files (x86)\Windows Kits\10\Include\10.0.22000.0\ucrt\string.h

; 502  :         return const_cast<char*>(strchr(static_cast<char const*>(_String), _Ch));

  000b2	6a 3b		 push	 59			; 0000003bH
  000b4	53		 push	 ebx
  000b5	e8 00 00 00 00	 call	 _strchr
  000ba	83 c4 08	 add	 esp, 8
; File D:\git\src\IBK\IBK_DRFN\ProjSrc\SrcChartEx\ChartOCX\ScaleDraw\ScaleBaseData.cpp

; 772  : 	char *szGridType = strchr( szPosition, ';');

  000bd	89 45 08	 mov	 DWORD PTR _szGridType$1$[ebp], eax

; 773  : 	if( szGridType) *szGridType = '\0';

  000c0	85 c0		 test	 eax, eax
  000c2	74 03		 je	 SHORT $LN8@SetScaleDa
  000c4	c6 00 00	 mov	 BYTE PTR [eax], 0
$LN8@SetScaleDa:

; 868  : 	if( !p_szScalePosition) return;

  000c7	8b 3d 00 00 00
	00		 mov	 edi, DWORD PTR __imp__atoi
  000cd	85 db		 test	 ebx, ebx
  000cf	74 11		 je	 SHORT $LN85@SetScaleDa

; 869  : 	if( !*p_szScalePosition) return;

  000d1	80 3b 00	 cmp	 BYTE PTR [ebx], 0
  000d4	74 0c		 je	 SHORT $LN85@SetScaleDa

; 870  : 	m_ePosition = ( CScaleBaseData::VERTSCALEPOSITION)atoi( p_szScalePosition);

  000d6	53		 push	 ebx
  000d7	ff d7		 call	 edi
  000d9	89 46 0c	 mov	 DWORD PTR [esi+12], eax
  000dc	83 c4 04	 add	 esp, 4
  000df	8b 45 08	 mov	 eax, DWORD PTR _szGridType$1$[ebp]
$LN85@SetScaleDa:

; 775  : 	if( szGridType) *szGridType++ = ';';

  000e2	85 c0		 test	 eax, eax
  000e4	0f 84 fd 02 00
	00		 je	 $LN6@SetScaleDa
  000ea	c6 00 3b	 mov	 BYTE PTR [eax], 59	; 0000003bH
  000ed	40		 inc	 eax
; File C:\Program Files (x86)\Windows Kits\10\Include\10.0.22000.0\ucrt\string.h

; 502  :         return const_cast<char*>(strchr(static_cast<char const*>(_String), _Ch));

  000ee	6a 3b		 push	 59			; 0000003bH
  000f0	50		 push	 eax
; File D:\git\src\IBK\IBK_DRFN\ProjSrc\SrcChartEx\ChartOCX\ScaleDraw\ScaleBaseData.cpp

; 775  : 	if( szGridType) *szGridType++ = ';';

  000f1	89 45 08	 mov	 DWORD PTR _szGridType$1$[ebp], eax
; File C:\Program Files (x86)\Windows Kits\10\Include\10.0.22000.0\ucrt\string.h

; 502  :         return const_cast<char*>(strchr(static_cast<char const*>(_String), _Ch));

  000f4	e8 00 00 00 00	 call	 _strchr
; File D:\git\src\IBK\IBK_DRFN\ProjSrc\SrcChartEx\ChartOCX\ScaleDraw\ScaleBaseData.cpp

; 778  : 	char *szUnitType = strchr( szGridType, ';');

  000f9	8b d8		 mov	 ebx, eax
; File C:\Program Files (x86)\Windows Kits\10\Include\10.0.22000.0\ucrt\string.h

; 502  :         return const_cast<char*>(strchr(static_cast<char const*>(_String), _Ch));

  000fb	83 c4 08	 add	 esp, 8
; File D:\git\src\IBK\IBK_DRFN\ProjSrc\SrcChartEx\ChartOCX\ScaleDraw\ScaleBaseData.cpp

; 779  : 	if( szUnitType) *szUnitType = '\0';

  000fe	85 db		 test	 ebx, ebx
  00100	74 03		 je	 SHORT $LN11@SetScaleDa
  00102	c6 03 00	 mov	 BYTE PTR [ebx], 0
$LN11@SetScaleDa:

; 151  : 	if( !p_szGridType) return;

  00105	8b 45 08	 mov	 eax, DWORD PTR _szGridType$1$[ebp]
  00108	85 c0		 test	 eax, eax
  0010a	74 0e		 je	 SHORT $LN91@SetScaleDa

; 152  : 	if( !*p_szGridType) return;

  0010c	80 38 00	 cmp	 BYTE PTR [eax], 0
  0010f	74 09		 je	 SHORT $LN91@SetScaleDa

; 153  : 
; 154  : 	m_eScaleGrid = ( CScaleBaseData::SCALEGRIDTYPE)atoi( p_szGridType);

  00111	50		 push	 eax
  00112	ff d7		 call	 edi
  00114	83 c4 04	 add	 esp, 4
  00117	89 46 08	 mov	 DWORD PTR [esi+8], eax
$LN91@SetScaleDa:

; 780  : 	CScale::SetGridType( szGridType);
; 781  : 	if( szUnitType) *szUnitType++ = ';';

  0011a	85 db		 test	 ebx, ebx
  0011c	0f 84 c5 02 00
	00		 je	 $LN6@SetScaleDa
  00122	c6 03 3b	 mov	 BYTE PTR [ebx], 59	; 0000003bH
  00125	43		 inc	 ebx
; File C:\Program Files (x86)\Windows Kits\10\Include\10.0.22000.0\ucrt\string.h

; 502  :         return const_cast<char*>(strchr(static_cast<char const*>(_String), _Ch));

  00126	6a 3b		 push	 59			; 0000003bH
  00128	53		 push	 ebx
  00129	e8 00 00 00 00	 call	 _strchr
  0012e	83 c4 08	 add	 esp, 8
; File D:\git\src\IBK\IBK_DRFN\ProjSrc\SrcChartEx\ChartOCX\ScaleDraw\ScaleBaseData.cpp

; 784  : 	char *szMinMaxLock = strchr( szUnitType, ';');

  00131	89 45 08	 mov	 DWORD PTR _szMinMaxLock$1$[ebp], eax

; 785  : 	if( szMinMaxLock) *szMinMaxLock = '\0';

  00134	85 c0		 test	 eax, eax
  00136	74 03		 je	 SHORT $LN14@SetScaleDa
  00138	c6 00 00	 mov	 BYTE PTR [eax], 0
$LN14@SetScaleDa:

; 880  : 	if( !p_szScaleUnitType) return;

  0013b	85 db		 test	 ebx, ebx
  0013d	74 11		 je	 SHORT $LN97@SetScaleDa

; 881  : 	if( !*p_szScaleUnitType) return;

  0013f	80 3b 00	 cmp	 BYTE PTR [ebx], 0
  00142	74 0c		 je	 SHORT $LN97@SetScaleDa

; 882  : 
; 883  : 	m_eUnitType = ( CScaleBaseData::VERTSCALEUNITTYPE)atoi( p_szScaleUnitType);

  00144	53		 push	 ebx
  00145	ff d7		 call	 edi
  00147	89 46 10	 mov	 DWORD PTR [esi+16], eax
  0014a	83 c4 04	 add	 esp, 4
  0014d	8b 45 08	 mov	 eax, DWORD PTR _szMinMaxLock$1$[ebp]
$LN97@SetScaleDa:

; 786  : 	SetVertScaleUnitType(szUnitType);
; 787  : 	if( szMinMaxLock) *szMinMaxLock++ = ';';

  00150	85 c0		 test	 eax, eax
  00152	0f 84 8f 02 00
	00		 je	 $LN6@SetScaleDa
  00158	c6 00 3b	 mov	 BYTE PTR [eax], 59	; 0000003bH
  0015b	40		 inc	 eax
  0015c	89 45 08	 mov	 DWORD PTR _szMinMaxLock$1$[ebp], eax

; 788  : 	else return;
; 789  : 
; 790  : 	// (2006/11/11 - Seung-Won, Bae) Min/Max Setting
; 791  : 	if( !*szMinMaxLock) return;

  0015f	80 38 00	 cmp	 BYTE PTR [eax], 0
  00162	0f 84 7f 02 00
	00		 je	 $LN6@SetScaleDa
; File C:\Program Files (x86)\Windows Kits\10\Include\10.0.22000.0\ucrt\string.h

; 502  :         return const_cast<char*>(strchr(static_cast<char const*>(_String), _Ch));

  00168	6a 3b		 push	 59			; 0000003bH
  0016a	50		 push	 eax
  0016b	e8 00 00 00 00	 call	 _strchr
  00170	83 c4 08	 add	 esp, 8
; File D:\git\src\IBK\IBK_DRFN\ProjSrc\SrcChartEx\ChartOCX\ScaleDraw\ScaleBaseData.cpp

; 793  : 	char *szMinMaxType = strchr( szMinMaxLock, ';');

  00173	8b d8		 mov	 ebx, eax

; 794  : 	if( szMinMaxType) *szMinMaxType = '\0';

  00175	ff 75 08	 push	 DWORD PTR _szMinMaxLock$1$[ebp]
  00178	85 db		 test	 ebx, ebx
  0017a	0f 84 59 02 00
	00		 je	 $LN18@SetScaleDa
  00180	c6 03 00	 mov	 BYTE PTR [ebx], 0
  00183	ff d7		 call	 edi
  00185	f7 d8		 neg	 eax
; File C:\Program Files (x86)\Windows Kits\10\Include\10.0.22000.0\ucrt\string.h

; 502  :         return const_cast<char*>(strchr(static_cast<char const*>(_String), _Ch));

  00187	6a 3b		 push	 59			; 0000003bH
; File D:\git\src\IBK\IBK_DRFN\ProjSrc\SrcChartEx\ChartOCX\ScaleDraw\ScaleBaseData.cpp

; 794  : 	if( szMinMaxType) *szMinMaxType = '\0';

  00189	1b c0		 sbb	 eax, eax
  0018b	f7 d8		 neg	 eax
  0018d	89 46 14	 mov	 DWORD PTR [esi+20], eax

; 796  : 	if( szMinMaxType) *szMinMaxType++ = ';';

  00190	c6 03 3b	 mov	 BYTE PTR [ebx], 59	; 0000003bH
  00193	43		 inc	 ebx
; File C:\Program Files (x86)\Windows Kits\10\Include\10.0.22000.0\ucrt\string.h

; 502  :         return const_cast<char*>(strchr(static_cast<char const*>(_String), _Ch));

  00194	53		 push	 ebx
  00195	e8 00 00 00 00	 call	 _strchr
  0019a	83 c4 0c	 add	 esp, 12			; 0000000cH
; File D:\git\src\IBK\IBK_DRFN\ProjSrc\SrcChartEx\ChartOCX\ScaleDraw\ScaleBaseData.cpp

; 799  : 	char *szMin = strchr( szMinMaxType, ';');

  0019d	89 45 08	 mov	 DWORD PTR _szMin$1$[ebp], eax

; 800  : 	if( szMin) *szMin = '\0';

  001a0	53		 push	 ebx
  001a1	85 c0		 test	 eax, eax
  001a3	0f 84 26 02 00
	00		 je	 $LN21@SetScaleDa
  001a9	c6 00 00	 mov	 BYTE PTR [eax], 0
  001ac	ff d7		 call	 edi
  001ae	89 46 18	 mov	 DWORD PTR [esi+24], eax

; 802  : 	if( szMin) *szMin++ = ';';

  001b1	8b 45 08	 mov	 eax, DWORD PTR _szMin$1$[ebp]
; File C:\Program Files (x86)\Windows Kits\10\Include\10.0.22000.0\ucrt\string.h

; 502  :         return const_cast<char*>(strchr(static_cast<char const*>(_String), _Ch));

  001b4	6a 3b		 push	 59			; 0000003bH
; File D:\git\src\IBK\IBK_DRFN\ProjSrc\SrcChartEx\ChartOCX\ScaleDraw\ScaleBaseData.cpp

; 802  : 	if( szMin) *szMin++ = ';';

  001b6	c6 00 3b	 mov	 BYTE PTR [eax], 59	; 0000003bH
  001b9	40		 inc	 eax
; File C:\Program Files (x86)\Windows Kits\10\Include\10.0.22000.0\ucrt\string.h

; 502  :         return const_cast<char*>(strchr(static_cast<char const*>(_String), _Ch));

  001ba	50		 push	 eax
; File D:\git\src\IBK\IBK_DRFN\ProjSrc\SrcChartEx\ChartOCX\ScaleDraw\ScaleBaseData.cpp

; 802  : 	if( szMin) *szMin++ = ';';

  001bb	89 45 08	 mov	 DWORD PTR _szMin$1$[ebp], eax
; File C:\Program Files (x86)\Windows Kits\10\Include\10.0.22000.0\ucrt\string.h

; 502  :         return const_cast<char*>(strchr(static_cast<char const*>(_String), _Ch));

  001be	e8 00 00 00 00	 call	 _strchr
; File D:\git\src\IBK\IBK_DRFN\ProjSrc\SrcChartEx\ChartOCX\ScaleDraw\ScaleBaseData.cpp

; 805  : 	char *szMax = strchr( szMin, ';');

  001c3	8b d8		 mov	 ebx, eax
; File C:\Program Files (x86)\Windows Kits\10\Include\10.0.22000.0\ucrt\string.h

; 502  :         return const_cast<char*>(strchr(static_cast<char const*>(_String), _Ch));

  001c5	83 c4 0c	 add	 esp, 12			; 0000000cH
; File D:\git\src\IBK\IBK_DRFN\ProjSrc\SrcChartEx\ChartOCX\ScaleDraw\ScaleBaseData.cpp

; 806  : 	if( szMax) *szMax = '\0';

  001c8	85 db		 test	 ebx, ebx
  001ca	74 03		 je	 SHORT $LN24@SetScaleDa
  001cc	c6 03 00	 mov	 BYTE PTR [ebx], 0
$LN24@SetScaleDa:
; File C:\Program Files (x86)\Windows Kits\10\Include\10.0.22000.0\ucrt\string.h

; 520  :         return const_cast<char*>(strstr(static_cast<char const*>(_String), _SubString));

  001cf	68 00 00 00 00	 push	 OFFSET ??_C@_03OEIAHPBN@INF@
  001d4	ff 75 08	 push	 DWORD PTR _szMin$1$[ebp]
  001d7	e8 00 00 00 00	 call	 _strstr
; File D:\git\src\IBK\IBK_DRFN\ProjSrc\SrcChartEx\ChartOCX\ScaleDraw\ScaleBaseData.cpp

; 807  : 	if( strstr( szMin, "INF"))	m_dMin = -HUGE_VAL;									// Min

  001dc	f2 0f 10 05 00
	00 00 00	 movsd	 xmm0, QWORD PTR __real@fff0000000000000
; File C:\Program Files (x86)\Windows Kits\10\Include\10.0.22000.0\ucrt\string.h

; 520  :         return const_cast<char*>(strstr(static_cast<char const*>(_String), _SubString));

  001e4	83 c4 08	 add	 esp, 8
; File D:\git\src\IBK\IBK_DRFN\ProjSrc\SrcChartEx\ChartOCX\ScaleDraw\ScaleBaseData.cpp

; 807  : 	if( strstr( szMin, "INF"))	m_dMin = -HUGE_VAL;									// Min

  001e7	f2 0f 11 45 e0	 movsd	 QWORD PTR $T2[ebp], xmm0
  001ec	85 c0		 test	 eax, eax
  001ee	75 14		 jne	 SHORT $LN26@SetScaleDa

; 808  : 	else						m_dMin = atof( szMin);

  001f0	ff 75 08	 push	 DWORD PTR _szMin$1$[ebp]
  001f3	ff 15 00 00 00
	00		 call	 DWORD PTR __imp__atof
  001f9	dd 5d e8	 fstp	 QWORD PTR $T4[ebp]
  001fc	f2 0f 10 45 e8	 movsd	 xmm0, QWORD PTR $T4[ebp]
  00201	83 c4 04	 add	 esp, 4
$LN26@SetScaleDa:

; 809  : 	if( szMax) *szMax++ = ';';

  00204	f2 0f 11 46 20	 movsd	 QWORD PTR [esi+32], xmm0
  00209	85 db		 test	 ebx, ebx
  0020b	0f 84 d6 01 00
	00		 je	 $LN6@SetScaleDa
  00211	c6 03 3b	 mov	 BYTE PTR [ebx], 59	; 0000003bH
  00214	43		 inc	 ebx
; File C:\Program Files (x86)\Windows Kits\10\Include\10.0.22000.0\ucrt\string.h

; 502  :         return const_cast<char*>(strchr(static_cast<char const*>(_String), _Ch));

  00215	6a 3b		 push	 59			; 0000003bH
  00217	53		 push	 ebx
; File D:\git\src\IBK\IBK_DRFN\ProjSrc\SrcChartEx\ChartOCX\ScaleDraw\ScaleBaseData.cpp

; 809  : 	if( szMax) *szMax++ = ';';

  00218	89 5d 08	 mov	 DWORD PTR _szMax$1$[ebp], ebx
; File C:\Program Files (x86)\Windows Kits\10\Include\10.0.22000.0\ucrt\string.h

; 502  :         return const_cast<char*>(strchr(static_cast<char const*>(_String), _Ch));

  0021b	e8 00 00 00 00	 call	 _strchr
; File D:\git\src\IBK\IBK_DRFN\ProjSrc\SrcChartEx\ChartOCX\ScaleDraw\ScaleBaseData.cpp

; 812  : 	char *szUpSpace = strchr( szMax, ';');

  00220	8b d8		 mov	 ebx, eax
; File C:\Program Files (x86)\Windows Kits\10\Include\10.0.22000.0\ucrt\string.h

; 502  :         return const_cast<char*>(strchr(static_cast<char const*>(_String), _Ch));

  00222	83 c4 08	 add	 esp, 8
; File D:\git\src\IBK\IBK_DRFN\ProjSrc\SrcChartEx\ChartOCX\ScaleDraw\ScaleBaseData.cpp

; 813  : 	if( szUpSpace) *szUpSpace = '\0';

  00225	85 db		 test	 ebx, ebx
  00227	74 03		 je	 SHORT $LN29@SetScaleDa
  00229	c6 03 00	 mov	 BYTE PTR [ebx], 0
$LN29@SetScaleDa:
; File C:\Program Files (x86)\Windows Kits\10\Include\10.0.22000.0\ucrt\string.h

; 520  :         return const_cast<char*>(strstr(static_cast<char const*>(_String), _SubString));

  0022c	68 00 00 00 00	 push	 OFFSET ??_C@_03OEIAHPBN@INF@
  00231	ff 75 08	 push	 DWORD PTR _szMax$1$[ebp]
  00234	e8 00 00 00 00	 call	 _strstr
  00239	83 c4 08	 add	 esp, 8
; File D:\git\src\IBK\IBK_DRFN\ProjSrc\SrcChartEx\ChartOCX\ScaleDraw\ScaleBaseData.cpp

; 815  : 	if( strstr( szMax, "INF"))	m_dMax	= -HUGE_VAL;								// Max

  0023c	85 c0		 test	 eax, eax
  0023e	75 0f		 jne	 SHORT $LN134@SetScaleDa

; 816  : 	else						m_dMax	= atof( szMax);

  00240	ff 75 08	 push	 DWORD PTR _szMax$1$[ebp]
  00243	ff 15 00 00 00
	00		 call	 DWORD PTR __imp__atof
  00249	dd 5d e0	 fstp	 QWORD PTR $T3[ebp]
  0024c	83 c4 04	 add	 esp, 4
$LN134@SetScaleDa:

; 817  : 	if( szUpSpace) *szUpSpace++ = ';';

  0024f	f2 0f 10 45 e0	 movsd	 xmm0, QWORD PTR $T3[ebp]
  00254	f2 0f 11 46 28	 movsd	 QWORD PTR [esi+40], xmm0
  00259	85 db		 test	 ebx, ebx
  0025b	0f 84 86 01 00
	00		 je	 $LN6@SetScaleDa
  00261	c6 03 3b	 mov	 BYTE PTR [ebx], 59	; 0000003bH
  00264	43		 inc	 ebx

; 818  : 	else return;
; 819  : 
; 820  : 	// (2007/7/16 - Seung-Won, Bae) Up/Down Space
; 821  : 	if( !*szUpSpace) return;

  00265	80 3b 00	 cmp	 BYTE PTR [ebx], 0
  00268	0f 84 79 01 00
	00		 je	 $LN6@SetScaleDa
; File C:\Program Files (x86)\Windows Kits\10\Include\10.0.22000.0\ucrt\string.h

; 502  :         return const_cast<char*>(strchr(static_cast<char const*>(_String), _Ch));

  0026e	6a 3b		 push	 59			; 0000003bH
  00270	53		 push	 ebx
  00271	e8 00 00 00 00	 call	 _strchr
  00276	83 c4 08	 add	 esp, 8
; File D:\git\src\IBK\IBK_DRFN\ProjSrc\SrcChartEx\ChartOCX\ScaleDraw\ScaleBaseData.cpp

; 823  : 	char *szDownSpace = strchr( szUpSpace, ';');

  00279	89 45 08	 mov	 DWORD PTR _szDownSpace$1$[ebp], eax

; 824  : 	if( szDownSpace) *szDownSpace = '\0';

  0027c	53		 push	 ebx
  0027d	85 c0		 test	 eax, eax
  0027f	0f 84 40 01 00
	00		 je	 $LN35@SetScaleDa
  00285	c6 00 00	 mov	 BYTE PTR [eax], 0
  00288	ff d7		 call	 edi
  0028a	89 46 4c	 mov	 DWORD PTR [esi+76], eax

; 826  : 	if( szDownSpace) *szDownSpace++ = ';';

  0028d	8b 45 08	 mov	 eax, DWORD PTR _szDownSpace$1$[ebp]
; File C:\Program Files (x86)\Windows Kits\10\Include\10.0.22000.0\ucrt\string.h

; 502  :         return const_cast<char*>(strchr(static_cast<char const*>(_String), _Ch));

  00290	6a 3b		 push	 59			; 0000003bH
; File D:\git\src\IBK\IBK_DRFN\ProjSrc\SrcChartEx\ChartOCX\ScaleDraw\ScaleBaseData.cpp

; 826  : 	if( szDownSpace) *szDownSpace++ = ';';

  00292	c6 00 3b	 mov	 BYTE PTR [eax], 59	; 0000003bH
  00295	40		 inc	 eax
; File C:\Program Files (x86)\Windows Kits\10\Include\10.0.22000.0\ucrt\string.h

; 502  :         return const_cast<char*>(strchr(static_cast<char const*>(_String), _Ch));

  00296	50		 push	 eax
; File D:\git\src\IBK\IBK_DRFN\ProjSrc\SrcChartEx\ChartOCX\ScaleDraw\ScaleBaseData.cpp

; 826  : 	if( szDownSpace) *szDownSpace++ = ';';

  00297	89 45 08	 mov	 DWORD PTR _szDownSpace$1$[ebp], eax
; File C:\Program Files (x86)\Windows Kits\10\Include\10.0.22000.0\ucrt\string.h

; 502  :         return const_cast<char*>(strchr(static_cast<char const*>(_String), _Ch));

  0029a	e8 00 00 00 00	 call	 _strchr
  0029f	83 c4 0c	 add	 esp, 12			; 0000000cH
; File D:\git\src\IBK\IBK_DRFN\ProjSrc\SrcChartEx\ChartOCX\ScaleDraw\ScaleBaseData.cpp

; 829  : 	char *szUserHogaType = strchr( szDownSpace, ';');

  002a2	8b d8		 mov	 ebx, eax

; 830  : 	if( szUserHogaType) *szUserHogaType = '\0';

  002a4	8b 45 08	 mov	 eax, DWORD PTR _szDownSpace$1$[ebp]
  002a7	50		 push	 eax
  002a8	85 db		 test	 ebx, ebx
  002aa	0f 84 0b 01 00
	00		 je	 $LN38@SetScaleDa
  002b0	c6 03 00	 mov	 BYTE PTR [ebx], 0
  002b3	ff d7		 call	 edi
  002b5	89 46 50	 mov	 DWORD PTR [esi+80], eax
  002b8	83 c4 04	 add	 esp, 4

; 832  : 	if( szUserHogaType) *szUserHogaType++ = ';';

  002bb	c6 03 3b	 mov	 BYTE PTR [ebx], 59	; 0000003bH
  002be	43		 inc	 ebx

; 833  : 	else return;
; 834  : 
; 835  : //2007.01.22 Scale사용자 설정,호가단위별
; 836  : 	if( !*szUserHogaType) return;

  002bf	80 3b 00	 cmp	 BYTE PTR [ebx], 0
  002c2	0f 84 1f 01 00
	00		 je	 $LN6@SetScaleDa
; File C:\Program Files (x86)\Windows Kits\10\Include\10.0.22000.0\ucrt\string.h

; 502  :         return const_cast<char*>(strchr(static_cast<char const*>(_String), _Ch));

  002c8	6a 3b		 push	 59			; 0000003bH
  002ca	53		 push	 ebx
  002cb	e8 00 00 00 00	 call	 _strchr
  002d0	83 c4 08	 add	 esp, 8
; File D:\git\src\IBK\IBK_DRFN\ProjSrc\SrcChartEx\ChartOCX\ScaleDraw\ScaleBaseData.cpp

; 838  : 	char *szUserNumber = strchr( szUserHogaType, ';');

  002d3	89 45 08	 mov	 DWORD PTR _szUserNumber$1$[ebp], eax

; 839  : 	if( szUserNumber) *szUserNumber = '\0';

  002d6	53		 push	 ebx
  002d7	85 c0		 test	 eax, eax
  002d9	0f 84 d2 00 00
	00		 je	 $LN42@SetScaleDa
  002df	c6 00 00	 mov	 BYTE PTR [eax], 0
  002e2	ff d7		 call	 edi

; 841  : 	if( szUserNumber) *szUserNumber++ = ';';

  002e4	8b 5d 08	 mov	 ebx, DWORD PTR _szUserNumber$1$[ebp]
  002e7	89 46 48	 mov	 DWORD PTR [esi+72], eax
; File C:\Program Files (x86)\Windows Kits\10\Include\10.0.22000.0\ucrt\string.h

; 502  :         return const_cast<char*>(strchr(static_cast<char const*>(_String), _Ch));

  002ea	6a 3b		 push	 59			; 0000003bH
; File D:\git\src\IBK\IBK_DRFN\ProjSrc\SrcChartEx\ChartOCX\ScaleDraw\ScaleBaseData.cpp

; 841  : 	if( szUserNumber) *szUserNumber++ = ';';

  002ec	c6 03 3b	 mov	 BYTE PTR [ebx], 59	; 0000003bH
  002ef	43		 inc	 ebx
; File C:\Program Files (x86)\Windows Kits\10\Include\10.0.22000.0\ucrt\string.h

; 502  :         return const_cast<char*>(strchr(static_cast<char const*>(_String), _Ch));

  002f0	53		 push	 ebx
  002f1	e8 00 00 00 00	 call	 _strchr
  002f6	83 c4 0c	 add	 esp, 12			; 0000000cH
; File D:\git\src\IBK\IBK_DRFN\ProjSrc\SrcChartEx\ChartOCX\ScaleDraw\ScaleBaseData.cpp

; 844  : 	char *szHogaNumber = strchr( szUserNumber, ';');

  002f9	89 45 08	 mov	 DWORD PTR _szHogaNumber$1$[ebp], eax

; 845  : 	if( szHogaNumber) *szHogaNumber = '\0';

  002fc	53		 push	 ebx
  002fd	85 c0		 test	 eax, eax
  002ff	0f 84 98 00 00
	00		 je	 $LN45@SetScaleDa
  00305	c6 00 00	 mov	 BYTE PTR [eax], 0
  00308	ff d7		 call	 edi
; File C:\Program Files (x86)\Windows Kits\10\Include\10.0.22000.0\ucrt\string.h

; 502  :         return const_cast<char*>(strchr(static_cast<char const*>(_String), _Ch));

  0030a	6a 3b		 push	 59			; 0000003bH
  0030c	66 0f 6e c0	 movd	 xmm0, eax
; File D:\git\src\IBK\IBK_DRFN\ProjSrc\SrcChartEx\ChartOCX\ScaleDraw\ScaleBaseData.cpp

; 847  : 	if( szHogaNumber) *szHogaNumber++ = ';';

  00310	8b 45 08	 mov	 eax, DWORD PTR _szHogaNumber$1$[ebp]
  00313	f3 0f e6 c0	 cvtdq2pd xmm0, xmm0
  00317	f2 0f 11 46 38	 movsd	 QWORD PTR [esi+56], xmm0
  0031c	c6 00 3b	 mov	 BYTE PTR [eax], 59	; 0000003bH
  0031f	40		 inc	 eax
; File C:\Program Files (x86)\Windows Kits\10\Include\10.0.22000.0\ucrt\string.h

; 502  :         return const_cast<char*>(strchr(static_cast<char const*>(_String), _Ch));

  00320	50		 push	 eax
; File D:\git\src\IBK\IBK_DRFN\ProjSrc\SrcChartEx\ChartOCX\ScaleDraw\ScaleBaseData.cpp

; 847  : 	if( szHogaNumber) *szHogaNumber++ = ';';

  00321	89 45 08	 mov	 DWORD PTR _szHogaNumber$1$[ebp], eax
; File C:\Program Files (x86)\Windows Kits\10\Include\10.0.22000.0\ucrt\string.h

; 502  :         return const_cast<char*>(strchr(static_cast<char const*>(_String), _Ch));

  00324	e8 00 00 00 00	 call	 _strchr
  00329	83 c4 0c	 add	 esp, 12			; 0000000cH
; File D:\git\src\IBK\IBK_DRFN\ProjSrc\SrcChartEx\ChartOCX\ScaleDraw\ScaleBaseData.cpp

; 851  : 	char *szInvertType = strchr( szHogaNumber, ';');

  0032c	8b d8		 mov	 ebx, eax

; 852  : 	if( szInvertType) *szInvertType = '\0';

  0032e	8b 45 08	 mov	 eax, DWORD PTR _szHogaNumber$1$[ebp]
  00331	50		 push	 eax
  00332	85 db		 test	 ebx, ebx
  00334	74 1b		 je	 SHORT $LN48@SetScaleDa
  00336	c6 03 00	 mov	 BYTE PTR [ebx], 0
  00339	ff d7		 call	 edi
  0033b	83 c4 04	 add	 esp, 4
  0033e	66 0f 6e c0	 movd	 xmm0, eax
  00342	f3 0f e6 c0	 cvtdq2pd xmm0, xmm0
  00346	f2 0f 11 46 40	 movsd	 QWORD PTR [esi+64], xmm0

; 854  : 	if( szInvertType) *szInvertType++ = ';';

  0034b	c6 03 3b	 mov	 BYTE PTR [ebx], 59	; 0000003bH
  0034e	43		 inc	 ebx
  0034f	eb 12		 jmp	 SHORT $LN49@SetScaleDa
$LN48@SetScaleDa:

; 853  : 	m_dHogaNumber	= atoi( szHogaNumber);											// Hoga

  00351	ff d7		 call	 edi
  00353	83 c4 04	 add	 esp, 4
  00356	66 0f 6e c0	 movd	 xmm0, eax
  0035a	f3 0f e6 c0	 cvtdq2pd xmm0, xmm0
  0035e	f2 0f 11 46 40	 movsd	 QWORD PTR [esi+64], xmm0
$LN49@SetScaleDa:
; File C:\Program Files (x86)\Windows Kits\10\Include\10.0.22000.0\ucrt\string.h

; 502  :         return const_cast<char*>(strchr(static_cast<char const*>(_String), _Ch));

  00363	6a 3b		 push	 59			; 0000003bH
  00365	53		 push	 ebx
  00366	e8 00 00 00 00	 call	 _strchr
  0036b	83 c4 08	 add	 esp, 8
; File D:\git\src\IBK\IBK_DRFN\ProjSrc\SrcChartEx\ChartOCX\ScaleDraw\ScaleBaseData.cpp

; 857  : 	char *szEnd = strchr( szInvertType, ';');

  0036e	89 45 08	 mov	 DWORD PTR _szEnd$1$[ebp], eax

; 858  : 	if( szEnd) *szEnd = '\0';

  00371	53		 push	 ebx
  00372	85 c0		 test	 eax, eax
  00374	74 18		 je	 SHORT $LN50@SetScaleDa
  00376	c6 00 00	 mov	 BYTE PTR [eax], 0
  00379	ff d7		 call	 edi
  0037b	83 c4 04	 add	 esp, 4
  0037e	85 c0		 test	 eax, eax

; 860  : 	if( szEnd) *szEnd++ = ';';

  00380	8b 45 08	 mov	 eax, DWORD PTR _szEnd$1$[ebp]
  00383	0f 95 c1	 setne	 cl
  00386	88 4e 34	 mov	 BYTE PTR [esi+52], cl
  00389	c6 00 3b	 mov	 BYTE PTR [eax], 59	; 0000003bH
  0038c	eb 59		 jmp	 SHORT $LN6@SetScaleDa
$LN50@SetScaleDa:

; 859  : 	m_bIsVertScaleInvertType = atoi( szInvertType) ? true : false;					// Invert

  0038e	ff d7		 call	 edi
  00390	83 c4 04	 add	 esp, 4
  00393	85 c0		 test	 eax, eax
  00395	0f 95 c0	 setne	 al
  00398	88 46 34	 mov	 BYTE PTR [esi+52], al
  0039b	eb 4a		 jmp	 SHORT $LN6@SetScaleDa
$LN45@SetScaleDa:

; 846  : 	m_dUserNumber	= atoi( szUserNumber);											// User

  0039d	ff d7		 call	 edi
  0039f	83 c4 04	 add	 esp, 4
  003a2	66 0f 6e c0	 movd	 xmm0, eax
  003a6	f3 0f e6 c0	 cvtdq2pd xmm0, xmm0
  003aa	f2 0f 11 46 38	 movsd	 QWORD PTR [esi+56], xmm0
  003af	eb 36		 jmp	 SHORT $LN6@SetScaleDa
$LN42@SetScaleDa:

; 840  : 	m_nUserHogaType	= atoi( szUserHogaType);										// Type

  003b1	ff d7		 call	 edi
  003b3	83 c4 04	 add	 esp, 4
  003b6	89 46 48	 mov	 DWORD PTR [esi+72], eax
  003b9	eb 2c		 jmp	 SHORT $LN6@SetScaleDa
$LN38@SetScaleDa:

; 831  : 	m_nDownSpace = atoi( szDownSpace);												// Down Space

  003bb	ff d7		 call	 edi
  003bd	83 c4 04	 add	 esp, 4
  003c0	89 46 50	 mov	 DWORD PTR [esi+80], eax
  003c3	eb 22		 jmp	 SHORT $LN6@SetScaleDa
$LN35@SetScaleDa:

; 825  : 	m_nUpSpace = atoi( szUpSpace);													// Up Space

  003c5	ff d7		 call	 edi
  003c7	83 c4 04	 add	 esp, 4
  003ca	89 46 4c	 mov	 DWORD PTR [esi+76], eax
  003cd	eb 18		 jmp	 SHORT $LN6@SetScaleDa
$LN21@SetScaleDa:

; 801  : 	m_eMinMaxType	= ( CScaleBaseData::VERTMINMAXTYPE)atoi( szMinMaxType);			// Type

  003cf	ff d7		 call	 edi
  003d1	83 c4 04	 add	 esp, 4
  003d4	89 46 18	 mov	 DWORD PTR [esi+24], eax
  003d7	eb 0e		 jmp	 SHORT $LN6@SetScaleDa
$LN18@SetScaleDa:

; 795  : 	m_bMinMaxLock	= ( atoi( szMinMaxLock) != 0);									// Lock

  003d9	ff d7		 call	 edi
  003db	83 c4 04	 add	 esp, 4
  003de	f7 d8		 neg	 eax
  003e0	1b c0		 sbb	 eax, eax
  003e2	f7 d8		 neg	 eax
  003e4	89 46 14	 mov	 DWORD PTR [esi+20], eax
$LN6@SetScaleDa:

; 861  : 
; 862  : 	else return;
; 863  : }

  003e7	8d 4d f0	 lea	 ecx, DWORD PTR _strScaleData$[ebp]
  003ea	ff 15 00 00 00
	00		 call	 DWORD PTR __imp_??1?$CStringT@DV?$StrTraitMFC_DLL@DV?$ChTraitsCRT@D@ATL@@@@@ATL@@QAE@XZ
$LN1@SetScaleDa:
  003f0	8b 4d f4	 mov	 ecx, DWORD PTR __$EHRec$[ebp]
  003f3	64 89 0d 00 00
	00 00		 mov	 DWORD PTR fs:0, ecx
  003fa	59		 pop	 ecx
  003fb	5f		 pop	 edi
  003fc	5e		 pop	 esi
  003fd	5b		 pop	 ebx
  003fe	8b e5		 mov	 esp, ebp
  00400	5d		 pop	 ebp
  00401	c2 08 00	 ret	 8
_TEXT	ENDS
;	COMDAT text$x
text$x	SEGMENT
__unwindfunclet$?SetScaleData@CVerticalScale@@UAEXPADPAUHWND__@@@Z$0:
  00000	8d 4d f0	 lea	 ecx, DWORD PTR _strScaleData$[ebp]
  00003	ff 25 00 00 00
	00		 jmp	 DWORD PTR __imp_??1?$CStringT@DV?$StrTraitMFC_DLL@DV?$ChTraitsCRT@D@ATL@@@@@ATL@@QAE@XZ
  00009	cc		 int	 3
  0000a	cc		 int	 3
  0000b	cc		 int	 3
  0000c	cc		 int	 3
  0000d	cc		 int	 3
__ehhandler$?SetScaleData@CVerticalScale@@UAEXPADPAUHWND__@@@Z:
  0000e	90		 npad	 1
  0000f	90		 npad	 1
  00010	8b 54 24 08	 mov	 edx, DWORD PTR [esp+8]
  00014	8d 42 0c	 lea	 eax, DWORD PTR [edx+12]
  00017	8b 4a dc	 mov	 ecx, DWORD PTR [edx-36]
  0001a	33 c8		 xor	 ecx, eax
  0001c	e8 00 00 00 00	 call	 @__security_check_cookie@4
  00021	b8 00 00 00 00	 mov	 eax, OFFSET __ehfuncinfo$?SetScaleData@CVerticalScale@@UAEXPADPAUHWND__@@@Z
  00026	e9 00 00 00 00	 jmp	 ___CxxFrameHandler3
text$x	ENDS
?SetScaleData@CVerticalScale@@UAEXPADPAUHWND__@@@Z ENDP	; CVerticalScale::SetScaleData
; Function compile flags: /Ogtp
; File D:\git\src\IBK\IBK_DRFN\ProjSrc\SrcChartEx\ChartOCX\ScaleDraw\ScaleBaseData.cpp
; File D:\git\src\IBK\IBK_DRFN\ProjSrc\SrcChartEx\ChartOCX\Include_Chart\ScaleBaseData.h
; File D:\git\src\IBK\IBK_DRFN\ProjSrc\SrcChartEx\ChartOCX\ScaleDraw\ScaleBaseData.cpp
;	COMDAT ??4CVerticalScale@@QAEAAV0@ABV0@@Z
_TEXT	SEGMENT
$T2 = -24						; size = 12
__$EHRec$ = -12						; size = 12
$T3 = 8							; size = 4
_data$ = 8						; size = 4
??4CVerticalScale@@QAEAAV0@ABV0@@Z PROC			; CVerticalScale::operator=, COMDAT
; _this$ = ecx

; 699  : {

  00000	55		 push	 ebp
  00001	8b ec		 mov	 ebp, esp
  00003	6a ff		 push	 -1
  00005	68 00 00 00 00	 push	 __ehhandler$??4CVerticalScale@@QAEAAV0@ABV0@@Z
  0000a	64 a1 00 00 00
	00		 mov	 eax, DWORD PTR fs:0
  00010	50		 push	 eax
  00011	83 ec 0c	 sub	 esp, 12			; 0000000cH
  00014	56		 push	 esi
  00015	57		 push	 edi
  00016	a1 00 00 00 00	 mov	 eax, DWORD PTR ___security_cookie
  0001b	33 c5		 xor	 eax, ebp
  0001d	50		 push	 eax
  0001e	8d 45 f4	 lea	 eax, DWORD PTR __$EHRec$[ebp]
  00021	64 a3 00 00 00
	00		 mov	 DWORD PTR fs:0, eax
  00027	8b f1		 mov	 esi, ecx

; 700  : 	if(this == &data)

  00029	8b 7d 08	 mov	 edi, DWORD PTR _data$[ebp]
  0002c	3b f7		 cmp	 esi, edi
  0002e	0f 84 bc 00 00
	00		 je	 $LN22@operator

; 701  : 		return *this;
; 702  : 
; 703  : 	CScale::operator = ((CScale) data);

  00034	8d 47 04	 lea	 eax, DWORD PTR [edi+4]
  00037	c7 45 e8 00 00
	00 00		 mov	 DWORD PTR $T2[ebp], OFFSET ??_7CScale@@6B@
  0003e	50		 push	 eax
  0003f	8d 4d ec	 lea	 ecx, DWORD PTR $T2[ebp+4]
  00042	ff 15 00 00 00
	00		 call	 DWORD PTR __imp_??0?$CStringT@DV?$StrTraitMFC_DLL@DV?$ChTraitsCRT@D@ATL@@@@@ATL@@QAE@ABV01@@Z
  00048	8b 47 08	 mov	 eax, DWORD PTR [edi+8]
  0004b	89 45 f0	 mov	 DWORD PTR $T2[ebp+8], eax

; 110  : 	if(this == &data)

  0004e	8d 45 e8	 lea	 eax, DWORD PTR $T2[ebp]

; 701  : 		return *this;
; 702  : 
; 703  : 	CScale::operator = ((CScale) data);

  00051	c7 45 fc 00 00
	00 00		 mov	 DWORD PTR __$EHRec$[ebp+8], 0

; 110  : 	if(this == &data)

  00058	3b f0		 cmp	 esi, eax
  0005a	74 2d		 je	 SHORT $LN8@operator

; 140  : 	return m_strScaleData;

  0005c	8d 45 ec	 lea	 eax, DWORD PTR $T2[ebp+4]
  0005f	50		 push	 eax
  00060	8d 4d 08	 lea	 ecx, DWORD PTR $T3[ebp]
  00063	ff 15 00 00 00
	00		 call	 DWORD PTR __imp_??0?$CStringT@DV?$StrTraitMFC_DLL@DV?$ChTraitsCRT@D@ATL@@@@@ATL@@QAE@ABV01@@Z

; 113  : 	m_strScaleData = data.GetScaleData();

  00069	8d 45 08	 lea	 eax, DWORD PTR $T3[ebp]
  0006c	c6 45 fc 01	 mov	 BYTE PTR __$EHRec$[ebp+8], 1
  00070	50		 push	 eax
  00071	8d 4e 04	 lea	 ecx, DWORD PTR [esi+4]
  00074	ff 15 00 00 00
	00		 call	 DWORD PTR __imp_??4?$CStringT@DV?$StrTraitMFC_DLL@DV?$ChTraitsCRT@D@ATL@@@@@ATL@@QAEAAV01@ABV01@@Z
  0007a	8d 4d 08	 lea	 ecx, DWORD PTR $T3[ebp]
  0007d	ff 15 00 00 00
	00		 call	 DWORD PTR __imp_??1?$CStringT@DV?$StrTraitMFC_DLL@DV?$ChTraitsCRT@D@ATL@@@@@ATL@@QAE@XZ

; 114  : 	m_eScaleGrid = data.GetGridType();

  00083	8b 45 f0	 mov	 eax, DWORD PTR $T2[ebp+8]
  00086	89 46 08	 mov	 DWORD PTR [esi+8], eax
$LN8@operator:
  00089	8d 4d ec	 lea	 ecx, DWORD PTR $T2[ebp+4]
  0008c	ff 15 00 00 00
	00		 call	 DWORD PTR __imp_??1?$CStringT@DV?$StrTraitMFC_DLL@DV?$ChTraitsCRT@D@ATL@@@@@ATL@@QAE@XZ

; 704  : 	m_ePosition = data.GetVertScalePosition();

  00092	8b 47 0c	 mov	 eax, DWORD PTR [edi+12]
  00095	89 46 0c	 mov	 DWORD PTR [esi+12], eax

; 705  : 	m_eUnitType = data.GetVertScaleUnitType();

  00098	8b 47 10	 mov	 eax, DWORD PTR [edi+16]
  0009b	89 46 10	 mov	 DWORD PTR [esi+16], eax

; 706  : 
; 707  : 	// (2006/11/11 - Seung-Won, Bae) Min/Max Setting
; 708  : 	m_bMinMaxLock	= data.IsVertScaleMinMaxLock();		// Lock

  0009e	8b 47 14	 mov	 eax, DWORD PTR [edi+20]
  000a1	89 46 14	 mov	 DWORD PTR [esi+20], eax

; 709  : 	m_eMinMaxType	= data.GetVertScaleMinMaxType();	// Type

  000a4	8b 47 18	 mov	 eax, DWORD PTR [edi+24]
  000a7	89 46 18	 mov	 DWORD PTR [esi+24], eax

; 710  : 	m_dMin			= data.GetVertScaleMin();			// Min

  000aa	f2 0f 10 47 20	 movsd	 xmm0, QWORD PTR [edi+32]
  000af	f2 0f 11 46 20	 movsd	 QWORD PTR [esi+32], xmm0

; 711  : 	m_dMax			= data.GetVertScaleMax();			// Max

  000b4	f2 0f 10 47 28	 movsd	 xmm0, QWORD PTR [edi+40]
  000b9	f2 0f 11 46 28	 movsd	 QWORD PTR [esi+40], xmm0

; 712  : 
; 713  : 	// (2007/1/1 - Seung-Won, Bae) Manage Left/Right Vertical Scale and Grid Line Activate Flag
; 714  : 	m_nVScaleActiveFlag = data.GetActiveFlag();

  000be	8b 47 30	 mov	 eax, DWORD PTR [edi+48]
  000c1	89 46 30	 mov	 DWORD PTR [esi+48], eax

; 715  : 
; 716  : 	//2007.01.22 Scale사용자 설정,호가단위별
; 717  : 	m_nUserHogaType	= data.GetVertUserHogaScaleType();	// Type

  000c4	8b 47 48	 mov	 eax, DWORD PTR [edi+72]
  000c7	89 46 48	 mov	 DWORD PTR [esi+72], eax

; 718  : 	m_dUserNumber	= data.GetVertScaleUserNumber();			// Min

  000ca	f2 0f 10 47 38	 movsd	 xmm0, QWORD PTR [edi+56]
  000cf	f2 0f 11 46 38	 movsd	 QWORD PTR [esi+56], xmm0

; 719  : 	m_dHogaNumber	= data.GetVertScaleHoGaNumber();			// Max

  000d4	f2 0f 10 47 40	 movsd	 xmm0, QWORD PTR [edi+64]
  000d9	f2 0f 11 46 40	 movsd	 QWORD PTR [esi+64], xmm0
; File D:\git\src\IBK\IBK_DRFN\ProjSrc\SrcChartEx\ChartOCX\Include_Chart\ScaleBaseData.h

; 240  : 	void	GetSpace( int &p_nUpSpace, int &p_nDownSpace) const		{	p_nUpSpace = m_nUpSpace;	p_nDownSpace = m_nDownSpace;	}

  000de	8b 47 4c	 mov	 eax, DWORD PTR [edi+76]
  000e1	89 46 4c	 mov	 DWORD PTR [esi+76], eax
  000e4	8b 47 50	 mov	 eax, DWORD PTR [edi+80]
  000e7	89 46 50	 mov	 DWORD PTR [esi+80], eax
; File D:\git\src\IBK\IBK_DRFN\ProjSrc\SrcChartEx\ChartOCX\ScaleDraw\ScaleBaseData.cpp

; 725  : 	m_bIsVertScaleInvertType = data.m_bIsVertScaleInvertType;

  000ea	8a 47 34	 mov	 al, BYTE PTR [edi+52]
  000ed	88 46 34	 mov	 BYTE PTR [esi+52], al
$LN22@operator:

; 726  : 
; 727  : 	return *this;
; 728  : }

  000f0	8b c6		 mov	 eax, esi
  000f2	8b 4d f4	 mov	 ecx, DWORD PTR __$EHRec$[ebp]
  000f5	64 89 0d 00 00
	00 00		 mov	 DWORD PTR fs:0, ecx
  000fc	59		 pop	 ecx
  000fd	5f		 pop	 edi
  000fe	5e		 pop	 esi
  000ff	8b e5		 mov	 esp, ebp
  00101	5d		 pop	 ebp
  00102	c2 04 00	 ret	 4
_TEXT	ENDS
;	COMDAT text$x
text$x	SEGMENT
__unwindfunclet$??4CVerticalScale@@QAEAAV0@ABV0@@Z$0:
  00000	8d 4d e8	 lea	 ecx, DWORD PTR $T2[ebp]
  00003	e9 00 00 00 00	 jmp	 ??1CScale@@QAE@XZ
__unwindfunclet$??4CVerticalScale@@QAEAAV0@ABV0@@Z$2:
  00008	8d 4d 08	 lea	 ecx, DWORD PTR $T3[ebp]
  0000b	ff 25 00 00 00
	00		 jmp	 DWORD PTR __imp_??1?$CStringT@DV?$StrTraitMFC_DLL@DV?$ChTraitsCRT@D@ATL@@@@@ATL@@QAE@XZ
  00011	cc		 int	 3
  00012	cc		 int	 3
  00013	cc		 int	 3
  00014	cc		 int	 3
  00015	cc		 int	 3
__ehhandler$??4CVerticalScale@@QAEAAV0@ABV0@@Z:
  00016	90		 npad	 1
  00017	90		 npad	 1
  00018	8b 54 24 08	 mov	 edx, DWORD PTR [esp+8]
  0001c	8d 42 0c	 lea	 eax, DWORD PTR [edx+12]
  0001f	8b 4a e8	 mov	 ecx, DWORD PTR [edx-24]
  00022	33 c8		 xor	 ecx, eax
  00024	e8 00 00 00 00	 call	 @__security_check_cookie@4
  00029	b8 00 00 00 00	 mov	 eax, OFFSET __ehfuncinfo$??4CVerticalScale@@QAEAAV0@ABV0@@Z
  0002e	e9 00 00 00 00	 jmp	 ___CxxFrameHandler3
text$x	ENDS
??4CVerticalScale@@QAEAAV0@ABV0@@Z ENDP			; CVerticalScale::operator=
; Function compile flags: /Ogtp
; File D:\git\src\IBK\IBK_DRFN\ProjSrc\SrcChartEx\ChartOCX\ScaleDraw\ScaleBaseData.cpp
;	COMDAT ??0CVerticalScale@@QAE@XZ
_TEXT	SEGMENT
_this$ = -4						; size = 4
??0CVerticalScale@@QAE@XZ PROC				; CVerticalScale::CVerticalScale, COMDAT
; _this$ = ecx

; 734  : {

  00000	55		 push	 ebp
  00001	8b ec		 mov	 ebp, esp
  00003	51		 push	 ecx
  00004	56		 push	 esi
  00005	8b f1		 mov	 esi, ecx
  00007	89 75 fc	 mov	 DWORD PTR _this$[ebp], esi

; 120  : {

  0000a	8d 4e 04	 lea	 ecx, DWORD PTR [esi+4]
  0000d	c7 06 00 00 00
	00		 mov	 DWORD PTR [esi], OFFSET ??_7CScale@@6B@
  00013	ff 15 00 00 00
	00		 call	 DWORD PTR __imp_??0?$CStringT@DV?$StrTraitMFC_DLL@DV?$ChTraitsCRT@D@ATL@@@@@ATL@@QAE@XZ
  00019	0f 57 c0	 xorps	 xmm0, xmm0

; 119  : 	m_eScaleGrid(CScaleBaseData::SLNONE)

  0001c	c7 46 08 03 00
	00 00		 mov	 DWORD PTR [esi+8], 3

; 734  : {

  00023	c7 06 00 00 00
	00		 mov	 DWORD PTR [esi], OFFSET ??_7CVerticalScale@@6B@

; 735  : 	// (2006/11/11 - Seung-Won, Bae) Min/Max Setting
; 736  : 	m_bMinMaxLock	= FALSE;								// Lock
; 737  : 	m_eMinMaxType	= CScaleBaseData::VERT_MINMAX_OF_VIEW;	// Type
; 738  : 	m_dMin			= 0.0;									// Min
; 739  : 	m_dMax			= 0.0;									// Max
; 740  : 
; 741  : 	// (2007/1/1 - Seung-Won, Bae) Manage Left/Right Vertical Scale and Grid Line Activate Flag
; 742  : 	m_nVScaleActiveFlag = 0;
; 743  : 
; 744  : 	//2007.01.22 Scale사용자 설정,호가단위별
; 745  : 	m_nUserHogaType	= 0;	// Type
; 746  : 	m_dUserNumber	= 0.0;			// Min
; 747  : 	m_dHogaNumber	= 0.0;			// Max
; 748  : 
; 749  : 	// (2007/7/16 - Seung-Won, Bae) Up/Down Space
; 750  : 	m_nUpSpace		= 0;
; 751  : 	m_nDownSpace	= 0;
; 752  : 
; 753  : 	m_bIsVertScaleInvertType = false;		// 지표 뒤집기 - ojtaso (20071023)
; 754  : }

  00029	8b c6		 mov	 eax, esi
  0002b	c7 46 0c 03 00
	00 00		 mov	 DWORD PTR [esi+12], 3
  00032	c7 46 10 00 00
	00 00		 mov	 DWORD PTR [esi+16], 0
  00039	c7 46 14 00 00
	00 00		 mov	 DWORD PTR [esi+20], 0
  00040	c7 46 18 00 00
	00 00		 mov	 DWORD PTR [esi+24], 0
  00047	0f 11 46 20	 movups	 XMMWORD PTR [esi+32], xmm0
  0004b	c7 46 30 00 00
	00 00		 mov	 DWORD PTR [esi+48], 0
  00052	c7 46 48 00 00
	00 00		 mov	 DWORD PTR [esi+72], 0
  00059	0f 11 46 38	 movups	 XMMWORD PTR [esi+56], xmm0
  0005d	c7 46 4c 00 00
	00 00		 mov	 DWORD PTR [esi+76], 0
  00064	c7 46 50 00 00
	00 00		 mov	 DWORD PTR [esi+80], 0
  0006b	c6 46 34 00	 mov	 BYTE PTR [esi+52], 0
  0006f	5e		 pop	 esi
  00070	8b e5		 mov	 esp, ebp
  00072	5d		 pop	 ebp
  00073	c3		 ret	 0
??0CVerticalScale@@QAE@XZ ENDP				; CVerticalScale::CVerticalScale
_TEXT	ENDS
; Function compile flags: /Ogtp
;	COMDAT ??0CHorizontalScale@@QAE@ABV0@@Z
_TEXT	SEGMENT
_this$ = -16						; size = 4
__$EHRec$ = -12						; size = 12
_this$ = 8						; size = 4
___that$ = 8						; size = 4
??0CHorizontalScale@@QAE@ABV0@@Z PROC			; CHorizontalScale::CHorizontalScale, COMDAT
; _this$ = ecx
  00000	55		 push	 ebp
  00001	8b ec		 mov	 ebp, esp
  00003	6a ff		 push	 -1
  00005	68 00 00 00 00	 push	 __ehhandler$??0CHorizontalScale@@QAE@ABV0@@Z
  0000a	64 a1 00 00 00
	00		 mov	 eax, DWORD PTR fs:0
  00010	50		 push	 eax
  00011	51		 push	 ecx
  00012	53		 push	 ebx
  00013	56		 push	 esi
  00014	57		 push	 edi
  00015	a1 00 00 00 00	 mov	 eax, DWORD PTR ___security_cookie
  0001a	33 c5		 xor	 eax, ebp
  0001c	50		 push	 eax
  0001d	8d 45 f4	 lea	 eax, DWORD PTR __$EHRec$[ebp]
  00020	64 a3 00 00 00
	00		 mov	 DWORD PTR fs:0, eax
  00026	8b f1		 mov	 esi, ecx
  00028	89 75 f0	 mov	 DWORD PTR _this$[ebp], esi
  0002b	8b 5d 08	 mov	 ebx, DWORD PTR ___that$[ebp]
  0002e	8d 4e 04	 lea	 ecx, DWORD PTR [esi+4]
  00031	c7 06 00 00 00
	00		 mov	 DWORD PTR [esi], OFFSET ??_7CScale@@6B@
  00037	8d 43 04	 lea	 eax, DWORD PTR [ebx+4]
  0003a	50		 push	 eax
  0003b	ff 15 00 00 00
	00		 call	 DWORD PTR __imp_??0?$CStringT@DV?$StrTraitMFC_DLL@DV?$ChTraitsCRT@D@ATL@@@@@ATL@@QAE@ABV01@@Z
  00041	8b 43 08	 mov	 eax, DWORD PTR [ebx+8]
  00044	89 46 08	 mov	 DWORD PTR [esi+8], eax
  00047	c7 06 00 00 00
	00		 mov	 DWORD PTR [esi], OFFSET ??_7CHorizontalScale@@6B@
  0004d	8d 7b 10	 lea	 edi, DWORD PTR [ebx+16]
  00050	8b 43 0c	 mov	 eax, DWORD PTR [ebx+12]
  00053	89 46 0c	 mov	 DWORD PTR [esi+12], eax
  00056	83 c6 10	 add	 esi, 16			; 00000010H
  00059	57		 push	 edi
  0005a	8b ce		 mov	 ecx, esi
  0005c	c7 45 fc 00 00
	00 00		 mov	 DWORD PTR __$EHRec$[ebp+8], 0
  00063	89 75 08	 mov	 DWORD PTR _this$[ebp], esi
  00066	ff 15 00 00 00
	00		 call	 DWORD PTR __imp_??0?$CStringT@DV?$StrTraitMFC_DLL@DV?$ChTraitsCRT@D@ATL@@@@@ATL@@QAE@ABV01@@Z
  0006c	8d 47 04	 lea	 eax, DWORD PTR [edi+4]
  0006f	c6 45 fc 01	 mov	 BYTE PTR __$EHRec$[ebp+8], 1
  00073	50		 push	 eax
  00074	8d 4e 04	 lea	 ecx, DWORD PTR [esi+4]
  00077	ff 15 00 00 00
	00		 call	 DWORD PTR __imp_??0?$CStringT@DV?$StrTraitMFC_DLL@DV?$ChTraitsCRT@D@ATL@@@@@ATL@@QAE@ABV01@@Z
  0007d	8b 4d f0	 mov	 ecx, DWORD PTR _this$[ebp]
  00080	8b 47 08	 mov	 eax, DWORD PTR [edi+8]
  00083	89 46 08	 mov	 DWORD PTR [esi+8], eax
  00086	8b 43 1c	 mov	 eax, DWORD PTR [ebx+28]
  00089	89 41 1c	 mov	 DWORD PTR [ecx+28], eax
  0008c	8b 43 20	 mov	 eax, DWORD PTR [ebx+32]
  0008f	89 41 20	 mov	 DWORD PTR [ecx+32], eax
  00092	8b 43 24	 mov	 eax, DWORD PTR [ebx+36]
  00095	89 41 24	 mov	 DWORD PTR [ecx+36], eax
  00098	8b 43 28	 mov	 eax, DWORD PTR [ebx+40]
  0009b	89 41 28	 mov	 DWORD PTR [ecx+40], eax
  0009e	8b 43 2c	 mov	 eax, DWORD PTR [ebx+44]
  000a1	89 41 2c	 mov	 DWORD PTR [ecx+44], eax
  000a4	8b 43 30	 mov	 eax, DWORD PTR [ebx+48]
  000a7	89 41 30	 mov	 DWORD PTR [ecx+48], eax
  000aa	8b 43 34	 mov	 eax, DWORD PTR [ebx+52]
  000ad	89 41 34	 mov	 DWORD PTR [ecx+52], eax
  000b0	8b 43 38	 mov	 eax, DWORD PTR [ebx+56]
  000b3	89 41 38	 mov	 DWORD PTR [ecx+56], eax
  000b6	8b 43 3c	 mov	 eax, DWORD PTR [ebx+60]
  000b9	89 41 3c	 mov	 DWORD PTR [ecx+60], eax
  000bc	8b 43 40	 mov	 eax, DWORD PTR [ebx+64]
  000bf	89 41 40	 mov	 DWORD PTR [ecx+64], eax
  000c2	8b 43 44	 mov	 eax, DWORD PTR [ebx+68]
  000c5	89 41 44	 mov	 DWORD PTR [ecx+68], eax
  000c8	8b 43 48	 mov	 eax, DWORD PTR [ebx+72]
  000cb	89 41 48	 mov	 DWORD PTR [ecx+72], eax
  000ce	0f b7 43 4c	 movzx	 eax, WORD PTR [ebx+76]
  000d2	66 89 41 4c	 mov	 WORD PTR [ecx+76], ax
  000d6	0f b7 43 4e	 movzx	 eax, WORD PTR [ebx+78]
  000da	66 89 41 4e	 mov	 WORD PTR [ecx+78], ax
  000de	0f b7 43 50	 movzx	 eax, WORD PTR [ebx+80]
  000e2	66 89 41 50	 mov	 WORD PTR [ecx+80], ax
  000e6	0f b7 43 52	 movzx	 eax, WORD PTR [ebx+82]
  000ea	66 89 41 52	 mov	 WORD PTR [ecx+82], ax
  000ee	8b 43 54	 mov	 eax, DWORD PTR [ebx+84]
  000f1	89 41 54	 mov	 DWORD PTR [ecx+84], eax
  000f4	8b 43 58	 mov	 eax, DWORD PTR [ebx+88]
  000f7	89 41 58	 mov	 DWORD PTR [ecx+88], eax
  000fa	8b 43 5c	 mov	 eax, DWORD PTR [ebx+92]
  000fd	89 41 5c	 mov	 DWORD PTR [ecx+92], eax
  00100	8b 43 60	 mov	 eax, DWORD PTR [ebx+96]
  00103	89 41 60	 mov	 DWORD PTR [ecx+96], eax
  00106	8b c1		 mov	 eax, ecx
  00108	8b 4d f4	 mov	 ecx, DWORD PTR __$EHRec$[ebp]
  0010b	64 89 0d 00 00
	00 00		 mov	 DWORD PTR fs:0, ecx
  00112	59		 pop	 ecx
  00113	5f		 pop	 edi
  00114	5e		 pop	 esi
  00115	5b		 pop	 ebx
  00116	8b e5		 mov	 esp, ebp
  00118	5d		 pop	 ebp
  00119	c2 04 00	 ret	 4
_TEXT	ENDS
;	COMDAT text$x
text$x	SEGMENT
__unwindfunclet$??0CHorizontalScale@@QAE@ABV0@@Z$0:
  00000	8b 4d f0	 mov	 ecx, DWORD PTR _this$[ebp]
  00003	e9 00 00 00 00	 jmp	 ??1CScale@@QAE@XZ
__unwindfunclet$??0CHorizontalScale@@QAE@ABV0@@Z$3:
  00008	8b 4d 08	 mov	 ecx, DWORD PTR _this$[ebp]
  0000b	ff 25 00 00 00
	00		 jmp	 DWORD PTR __imp_??1?$CStringT@DV?$StrTraitMFC_DLL@DV?$ChTraitsCRT@D@ATL@@@@@ATL@@QAE@XZ
  00011	cc		 int	 3
  00012	cc		 int	 3
  00013	cc		 int	 3
  00014	cc		 int	 3
  00015	cc		 int	 3
__ehhandler$??0CHorizontalScale@@QAE@ABV0@@Z:
  00016	90		 npad	 1
  00017	90		 npad	 1
  00018	8b 54 24 08	 mov	 edx, DWORD PTR [esp+8]
  0001c	8d 42 0c	 lea	 eax, DWORD PTR [edx+12]
  0001f	8b 4a ec	 mov	 ecx, DWORD PTR [edx-20]
  00022	33 c8		 xor	 ecx, eax
  00024	e8 00 00 00 00	 call	 @__security_check_cookie@4
  00029	b8 00 00 00 00	 mov	 eax, OFFSET __ehfuncinfo$??0CHorizontalScale@@QAE@ABV0@@Z
  0002e	e9 00 00 00 00	 jmp	 ___CxxFrameHandler3
text$x	ENDS
??0CHorizontalScale@@QAE@ABV0@@Z ENDP			; CHorizontalScale::CHorizontalScale
; Function compile flags: /Ogtp
;	COMDAT ??1CHorizontalScale@@QAE@XZ
_TEXT	SEGMENT
??1CHorizontalScale@@QAE@XZ PROC			; CHorizontalScale::~CHorizontalScale, COMDAT
; _this$ = ecx
  00000	56		 push	 esi
  00001	57		 push	 edi
  00002	8b f9		 mov	 edi, ecx
  00004	8d 4f 14	 lea	 ecx, DWORD PTR [edi+20]
  00007	ff 15 00 00 00
	00		 call	 DWORD PTR __imp_??1?$CStringT@DV?$StrTraitMFC_DLL@DV?$ChTraitsCRT@D@ATL@@@@@ATL@@QAE@XZ
  0000d	8d 4f 10	 lea	 ecx, DWORD PTR [edi+16]
  00010	ff 15 00 00 00
	00		 call	 DWORD PTR __imp_??1?$CStringT@DV?$StrTraitMFC_DLL@DV?$ChTraitsCRT@D@ATL@@@@@ATL@@QAE@XZ
  00016	8d 4f 04	 lea	 ecx, DWORD PTR [edi+4]
  00019	5f		 pop	 edi
  0001a	5e		 pop	 esi
  0001b	ff 25 00 00 00
	00		 jmp	 DWORD PTR __imp_??1?$CStringT@DV?$StrTraitMFC_DLL@DV?$ChTraitsCRT@D@ATL@@@@@ATL@@QAE@XZ
??1CHorizontalScale@@QAE@XZ ENDP			; CHorizontalScale::~CHorizontalScale
_TEXT	ENDS
; Function compile flags: /Ogtp
; File D:\git\src\IBK\IBK_DRFN\ProjSrc\SrcChartEx\ChartOCX\ScaleDraw\ScaleBaseData.cpp
;	COMDAT ?SetHorzScalePosition@CHorizontalScale@@IAEXW4HORZSCALEPOSITION@CScaleBaseData@@@Z
_TEXT	SEGMENT
_ePosition$ = 8						; size = 4
?SetHorzScalePosition@CHorizontalScale@@IAEXW4HORZSCALEPOSITION@CScaleBaseData@@@Z PROC ; CHorizontalScale::SetHorzScalePosition, COMDAT
; _this$ = ecx

; 354  : {

  00000	55		 push	 ebp
  00001	8b ec		 mov	 ebp, esp

; 355  : 	m_ePosition = ePosition;

  00003	8b 45 08	 mov	 eax, DWORD PTR _ePosition$[ebp]
  00006	89 41 0c	 mov	 DWORD PTR [ecx+12], eax

; 356  : }

  00009	5d		 pop	 ebp
  0000a	c2 04 00	 ret	 4
?SetHorzScalePosition@CHorizontalScale@@IAEXW4HORZSCALEPOSITION@CScaleBaseData@@@Z ENDP ; CHorizontalScale::SetHorzScalePosition
_TEXT	ENDS
; Function compile flags: /Ogtp
; File D:\git\src\IBK\IBK_DRFN\ProjSrc\SrcChartEx\ChartOCX\ScaleDraw\ScaleBaseData.cpp
;	COMDAT ?TokenizeEx@CHorizontalScale@@QAE?AV?$CStringT@DV?$StrTraitMFC_DLL@DV?$ChTraitsCRT@D@ATL@@@@@ATL@@V23@PBDAAH@Z
_TEXT	SEGMENT
__$EHRec$ = -12						; size = 12
___$ReturnUdt$ = 8					; size = 4
_strSrc$ = 12						; size = 4
_pszTokens$ = 16					; size = 4
_iStart$ = 20						; size = 4
?TokenizeEx@CHorizontalScale@@QAE?AV?$CStringT@DV?$StrTraitMFC_DLL@DV?$ChTraitsCRT@D@ATL@@@@@ATL@@V23@PBDAAH@Z PROC ; CHorizontalScale::TokenizeEx, COMDAT
; _this$ = ecx

; 334  : {

  00000	55		 push	 ebp
  00001	8b ec		 mov	 ebp, esp
  00003	6a ff		 push	 -1
  00005	68 00 00 00 00	 push	 __ehhandler$?TokenizeEx@CHorizontalScale@@QAE?AV?$CStringT@DV?$StrTraitMFC_DLL@DV?$ChTraitsCRT@D@ATL@@@@@ATL@@V23@PBDAAH@Z
  0000a	64 a1 00 00 00
	00		 mov	 eax, DWORD PTR fs:0
  00010	50		 push	 eax
  00011	56		 push	 esi
  00012	57		 push	 edi
  00013	a1 00 00 00 00	 mov	 eax, DWORD PTR ___security_cookie
  00018	33 c5		 xor	 eax, ebp
  0001a	50		 push	 eax
  0001b	8d 45 f4	 lea	 eax, DWORD PTR __$EHRec$[ebp]
  0001e	64 a3 00 00 00
	00		 mov	 DWORD PTR fs:0, eax

; 335  : 	if( iStart < 0) return "";

  00024	8b 7d 14	 mov	 edi, DWORD PTR _iStart$[ebp]
  00027	c7 45 fc 00 00
	00 00		 mov	 DWORD PTR __$EHRec$[ebp+8], 0
  0002e	8b 37		 mov	 esi, DWORD PTR [edi]
  00030	85 f6		 test	 esi, esi
  00032	78 47		 js	 SHORT $LN8@TokenizeEx

; 336  : 
; 337  : 	int iCur = iStart;
; 338  : 	iStart = strSrc.Find(pszTokens, iCur);

  00034	56		 push	 esi
  00035	ff 75 10	 push	 DWORD PTR _pszTokens$[ebp]
  00038	8d 4d 0c	 lea	 ecx, DWORD PTR _strSrc$[ebp]
  0003b	ff 15 00 00 00
	00		 call	 DWORD PTR __imp_?Find@?$CStringT@DV?$StrTraitMFC_DLL@DV?$ChTraitsCRT@D@ATL@@@@@ATL@@QBEHPBDH@Z
  00041	89 07		 mov	 DWORD PTR [edi], eax

; 339  : 	if( iStart == -1) return "";

  00043	83 f8 ff	 cmp	 eax, -1
  00046	74 33		 je	 SHORT $LN8@TokenizeEx

; 340  : 
; 341  : 	iStart++;

  00048	40		 inc	 eax

; 342  : 	return strSrc.Mid(iCur, iStart - iCur - 1);

  00049	8d 4d 0c	 lea	 ecx, DWORD PTR _strSrc$[ebp]
  0004c	89 07		 mov	 DWORD PTR [edi], eax
  0004e	2b c6		 sub	 eax, esi
  00050	48		 dec	 eax
  00051	50		 push	 eax
  00052	56		 push	 esi
  00053	8b 75 08	 mov	 esi, DWORD PTR ___$ReturnUdt$[ebp]
  00056	56		 push	 esi
  00057	ff 15 00 00 00
	00		 call	 DWORD PTR __imp_?Mid@?$CStringT@DV?$StrTraitMFC_DLL@DV?$ChTraitsCRT@D@ATL@@@@@ATL@@QBE?AV12@HH@Z
  0005d	8d 4d 0c	 lea	 ecx, DWORD PTR _strSrc$[ebp]
  00060	ff 15 00 00 00
	00		 call	 DWORD PTR __imp_??1?$CStringT@DV?$StrTraitMFC_DLL@DV?$ChTraitsCRT@D@ATL@@@@@ATL@@QAE@XZ
  00066	8b c6		 mov	 eax, esi

; 343  : }

  00068	8b 4d f4	 mov	 ecx, DWORD PTR __$EHRec$[ebp]
  0006b	64 89 0d 00 00
	00 00		 mov	 DWORD PTR fs:0, ecx
  00072	59		 pop	 ecx
  00073	5f		 pop	 edi
  00074	5e		 pop	 esi
  00075	8b e5		 mov	 esp, ebp
  00077	5d		 pop	 ebp
  00078	c2 10 00	 ret	 16			; 00000010H
$LN8@TokenizeEx:

; 339  : 	if( iStart == -1) return "";

  0007b	8b 4d 08	 mov	 ecx, DWORD PTR ___$ReturnUdt$[ebp]
  0007e	68 00 00 00 00	 push	 OFFSET ??_C@_00CNPNBAHC@@
  00083	ff 15 00 00 00
	00		 call	 DWORD PTR __imp_??0?$CStringT@DV?$StrTraitMFC_DLL@DV?$ChTraitsCRT@D@ATL@@@@@ATL@@QAE@PBD@Z
  00089	8d 4d 0c	 lea	 ecx, DWORD PTR _strSrc$[ebp]
  0008c	ff 15 00 00 00
	00		 call	 DWORD PTR __imp_??1?$CStringT@DV?$StrTraitMFC_DLL@DV?$ChTraitsCRT@D@ATL@@@@@ATL@@QAE@XZ
  00092	8b 45 08	 mov	 eax, DWORD PTR ___$ReturnUdt$[ebp]

; 343  : }

  00095	8b 4d f4	 mov	 ecx, DWORD PTR __$EHRec$[ebp]
  00098	64 89 0d 00 00
	00 00		 mov	 DWORD PTR fs:0, ecx
  0009f	59		 pop	 ecx
  000a0	5f		 pop	 edi
  000a1	5e		 pop	 esi
  000a2	8b e5		 mov	 esp, ebp
  000a4	5d		 pop	 ebp
  000a5	c2 10 00	 ret	 16			; 00000010H
_TEXT	ENDS
;	COMDAT text$x
text$x	SEGMENT
__unwindfunclet$?TokenizeEx@CHorizontalScale@@QAE?AV?$CStringT@DV?$StrTraitMFC_DLL@DV?$ChTraitsCRT@D@ATL@@@@@ATL@@V23@PBDAAH@Z$0:
  00000	8d 4d 0c	 lea	 ecx, DWORD PTR _strSrc$[ebp]
  00003	ff 25 00 00 00
	00		 jmp	 DWORD PTR __imp_??1?$CStringT@DV?$StrTraitMFC_DLL@DV?$ChTraitsCRT@D@ATL@@@@@ATL@@QAE@XZ
  00009	cc		 int	 3
  0000a	cc		 int	 3
  0000b	cc		 int	 3
  0000c	cc		 int	 3
  0000d	cc		 int	 3
__ehhandler$?TokenizeEx@CHorizontalScale@@QAE?AV?$CStringT@DV?$StrTraitMFC_DLL@DV?$ChTraitsCRT@D@ATL@@@@@ATL@@V23@PBDAAH@Z:
  0000e	90		 npad	 1
  0000f	90		 npad	 1
  00010	8b 54 24 08	 mov	 edx, DWORD PTR [esp+8]
  00014	8d 42 0c	 lea	 eax, DWORD PTR [edx+12]
  00017	8b 4a f4	 mov	 ecx, DWORD PTR [edx-12]
  0001a	33 c8		 xor	 ecx, eax
  0001c	e8 00 00 00 00	 call	 @__security_check_cookie@4
  00021	b8 00 00 00 00	 mov	 eax, OFFSET __ehfuncinfo$?TokenizeEx@CHorizontalScale@@QAE?AV?$CStringT@DV?$StrTraitMFC_DLL@DV?$ChTraitsCRT@D@ATL@@@@@ATL@@V23@PBDAAH@Z
  00026	e9 00 00 00 00	 jmp	 ___CxxFrameHandler3
text$x	ENDS
?TokenizeEx@CHorizontalScale@@QAE?AV?$CStringT@DV?$StrTraitMFC_DLL@DV?$ChTraitsCRT@D@ATL@@@@@ATL@@V23@PBDAAH@Z ENDP ; CHorizontalScale::TokenizeEx
; Function compile flags: /Ogtp
; File D:\git\src\IBK\IBK_DRFN\ProjSrc\SrcChartEx\ChartOCX\ScaleDraw\ScaleBaseData.cpp
;	COMDAT ?SetGridColor_Time@CHorizontalScale@@QAEXW4SCALEGRIDTIMEGUBUN@CScaleBaseData@@K@Z
_TEXT	SEGMENT
_nType$ = 8						; size = 4
_nGridColor$ = 12					; size = 4
?SetGridColor_Time@CHorizontalScale@@QAEXW4SCALEGRIDTIMEGUBUN@CScaleBaseData@@K@Z PROC ; CHorizontalScale::SetGridColor_Time, COMDAT
; _this$ = ecx

; 685  : {

  00000	55		 push	 ebp
  00001	8b ec		 mov	 ebp, esp

; 686  : 	switch (nType)

  00003	8b 45 08	 mov	 eax, DWORD PTR _nType$[ebp]
  00006	83 f8 03	 cmp	 eax, 3
  00009	77 2b		 ja	 SHORT $LN2@SetGridCol
  0000b	ff 24 85 00 00
	00 00		 jmp	 DWORD PTR $LN9@SetGridCol[eax*4]
$LN4@SetGridCol:

; 687  : 	{
; 688  : 		case CScaleBaseData::MINTICK_DAY_GUBUN:		m_clrDailyDivGridColor = nGridColor;	break;

  00012	8b 45 0c	 mov	 eax, DWORD PTR _nGridColor$[ebp]
  00015	89 41 54	 mov	 DWORD PTR [ecx+84], eax

; 692  : 	}
; 693  : }

  00018	5d		 pop	 ebp
  00019	c2 08 00	 ret	 8
$LN5@SetGridCol:

; 689  : 		case CScaleBaseData::DAYCHART_WEEK_GUBUN:	m_clrWeekDivGridColor = nGridColor;		break;

  0001c	8b 45 0c	 mov	 eax, DWORD PTR _nGridColor$[ebp]
  0001f	89 41 58	 mov	 DWORD PTR [ecx+88], eax

; 692  : 	}
; 693  : }

  00022	5d		 pop	 ebp
  00023	c2 08 00	 ret	 8
$LN6@SetGridCol:

; 690  : 		case CScaleBaseData::DAYCHART_MON_GUBUN:	m_clrMonDivGridColor = nGridColor;		break;

  00026	8b 45 0c	 mov	 eax, DWORD PTR _nGridColor$[ebp]
  00029	89 41 5c	 mov	 DWORD PTR [ecx+92], eax

; 692  : 	}
; 693  : }

  0002c	5d		 pop	 ebp
  0002d	c2 08 00	 ret	 8
$LN7@SetGridCol:

; 691  : 		case CScaleBaseData::DAYCHART_YEAR_GUBUN:	m_clrYearDivGridColor = nGridColor;		break;

  00030	8b 45 0c	 mov	 eax, DWORD PTR _nGridColor$[ebp]
  00033	89 41 60	 mov	 DWORD PTR [ecx+96], eax
$LN2@SetGridCol:

; 692  : 	}
; 693  : }

  00036	5d		 pop	 ebp
  00037	c2 08 00	 ret	 8
  0003a	66 90		 npad	 2
$LN9@SetGridCol:
  0003c	00 00 00 00	 DD	 $LN4@SetGridCol
  00040	00 00 00 00	 DD	 $LN5@SetGridCol
  00044	00 00 00 00	 DD	 $LN6@SetGridCol
  00048	00 00 00 00	 DD	 $LN7@SetGridCol
?SetGridColor_Time@CHorizontalScale@@QAEXW4SCALEGRIDTIMEGUBUN@CScaleBaseData@@K@Z ENDP ; CHorizontalScale::SetGridColor_Time
_TEXT	ENDS
; Function compile flags: /Ogtp
; File D:\git\src\IBK\IBK_DRFN\ProjSrc\SrcChartEx\ChartOCX\ScaleDraw\ScaleBaseData.cpp
;	COMDAT ?GetGridColor_Time@CHorizontalScale@@QBEKW4SCALEGRIDTIMEGUBUN@CScaleBaseData@@@Z
_TEXT	SEGMENT
_nType$ = 8						; size = 4
?GetGridColor_Time@CHorizontalScale@@QBEKW4SCALEGRIDTIMEGUBUN@CScaleBaseData@@@Z PROC ; CHorizontalScale::GetGridColor_Time, COMDAT
; _this$ = ecx

; 667  : {

  00000	55		 push	 ebp
  00001	8b ec		 mov	 ebp, esp

; 668  : 	unsigned long nGridColor = 1;
; 669  : 
; 670  : 	switch (nType)

  00003	8b 55 08	 mov	 edx, DWORD PTR _nType$[ebp]
  00006	b8 01 00 00 00	 mov	 eax, 1
  0000b	83 fa 06	 cmp	 edx, 6
  0000e	77 1f		 ja	 SHORT $LN2@GetGridCol
  00010	ff 24 95 00 00
	00 00		 jmp	 DWORD PTR $LN12@GetGridCol[edx*4]
$LN4@GetGridCol:

; 671  : 	{
; 672  : 		case CScaleBaseData::MINTICK_DAY_GUBUN:		nGridColor = m_clrDailyDivGridColor;	break;

  00017	8b 41 54	 mov	 eax, DWORD PTR [ecx+84]

; 674  : 		case CScaleBaseData::DAYCHART_MON_GUBUN:	nGridColor = m_clrMonDivGridColor;		break;
; 675  : 		case CScaleBaseData::DAYCHART_YEAR_GUBUN:	nGridColor = m_clrYearDivGridColor;		break;
; 676  : 		case CScaleBaseData::WEEKCHART_MON_GUBUN:	nGridColor = m_clrMonDivGridColor;		break;
; 677  : 		case CScaleBaseData::WEEKCHART_YEAR_GUBUN:	nGridColor = m_clrYearDivGridColor;		break;
; 678  : 		case CScaleBaseData::MONCHART_YEAR_GUBUN:	nGridColor = m_clrYearDivGridColor;		break;
; 679  : 	}
; 680  : 
; 681  : 	return nGridColor;
; 682  : }

  0001a	5d		 pop	 ebp
  0001b	c2 04 00	 ret	 4
$LN5@GetGridCol:

; 673  : 		case CScaleBaseData::DAYCHART_WEEK_GUBUN:	nGridColor = m_clrWeekDivGridColor;		break;

  0001e	8b 41 58	 mov	 eax, DWORD PTR [ecx+88]

; 674  : 		case CScaleBaseData::DAYCHART_MON_GUBUN:	nGridColor = m_clrMonDivGridColor;		break;
; 675  : 		case CScaleBaseData::DAYCHART_YEAR_GUBUN:	nGridColor = m_clrYearDivGridColor;		break;
; 676  : 		case CScaleBaseData::WEEKCHART_MON_GUBUN:	nGridColor = m_clrMonDivGridColor;		break;
; 677  : 		case CScaleBaseData::WEEKCHART_YEAR_GUBUN:	nGridColor = m_clrYearDivGridColor;		break;
; 678  : 		case CScaleBaseData::MONCHART_YEAR_GUBUN:	nGridColor = m_clrYearDivGridColor;		break;
; 679  : 	}
; 680  : 
; 681  : 	return nGridColor;
; 682  : }

  00021	5d		 pop	 ebp
  00022	c2 04 00	 ret	 4
$LN8@GetGridCol:
  00025	8b 41 5c	 mov	 eax, DWORD PTR [ecx+92]
  00028	5d		 pop	 ebp
  00029	c2 04 00	 ret	 4
$LN10@GetGridCol:
  0002c	8b 41 60	 mov	 eax, DWORD PTR [ecx+96]
$LN2@GetGridCol:
  0002f	5d		 pop	 ebp
  00030	c2 04 00	 ret	 4
  00033	90		 npad	 1
$LN12@GetGridCol:
  00034	00 00 00 00	 DD	 $LN4@GetGridCol
  00038	00 00 00 00	 DD	 $LN5@GetGridCol
  0003c	00 00 00 00	 DD	 $LN8@GetGridCol
  00040	00 00 00 00	 DD	 $LN10@GetGridCol
  00044	00 00 00 00	 DD	 $LN8@GetGridCol
  00048	00 00 00 00	 DD	 $LN10@GetGridCol
  0004c	00 00 00 00	 DD	 $LN10@GetGridCol
?GetGridColor_Time@CHorizontalScale@@QBEKW4SCALEGRIDTIMEGUBUN@CScaleBaseData@@@Z ENDP ; CHorizontalScale::GetGridColor_Time
_TEXT	ENDS
; Function compile flags: /Ogtp
; File D:\git\src\IBK\IBK_DRFN\ProjSrc\SrcChartEx\ChartOCX\ScaleDraw\ScaleBaseData.cpp
;	COMDAT ?SetGridWidth_Time@CHorizontalScale@@QAEXW4SCALEGRIDTIMEGUBUN@CScaleBaseData@@G@Z
_TEXT	SEGMENT
_nType$ = 8						; size = 4
_nGridWidth$ = 12					; size = 2
?SetGridWidth_Time@CHorizontalScale@@QAEXW4SCALEGRIDTIMEGUBUN@CScaleBaseData@@G@Z PROC ; CHorizontalScale::SetGridWidth_Time, COMDAT
; _this$ = ecx

; 653  : {

  00000	55		 push	 ebp
  00001	8b ec		 mov	 ebp, esp

; 654  : 	switch (nType)

  00003	8b 45 08	 mov	 eax, DWORD PTR _nType$[ebp]
  00006	83 f8 06	 cmp	 eax, 6
  00009	77 33		 ja	 SHORT $LN2@SetGridWid
  0000b	ff 24 85 00 00
	00 00		 jmp	 DWORD PTR $LN12@SetGridWid[eax*4]
$LN4@SetGridWid:

; 655  : 	{
; 656  : 		case CScaleBaseData::MINTICK_DAY_GUBUN:		m_nGridWidth_Day = nGridWidth;	break;

  00012	66 8b 45 0c	 mov	 ax, WORD PTR _nGridWidth$[ebp]
  00016	66 89 41 4c	 mov	 WORD PTR [ecx+76], ax

; 663  : 	}
; 664  : }

  0001a	5d		 pop	 ebp
  0001b	c2 08 00	 ret	 8
$LN5@SetGridWid:

; 657  : 		case CScaleBaseData::DAYCHART_WEEK_GUBUN:	m_nGridWidth_Week = nGridWidth;	break;

  0001e	66 8b 45 0c	 mov	 ax, WORD PTR _nGridWidth$[ebp]
  00022	66 89 41 4e	 mov	 WORD PTR [ecx+78], ax

; 663  : 	}
; 664  : }

  00026	5d		 pop	 ebp
  00027	c2 08 00	 ret	 8
$LN8@SetGridWid:

; 658  : 		case CScaleBaseData::DAYCHART_MON_GUBUN:	m_nGridWidth_Mon = nGridWidth;	break;
; 659  : 		case CScaleBaseData::DAYCHART_YEAR_GUBUN:	m_nGridWidth_Year = nGridWidth;	break;
; 660  : 		case CScaleBaseData::WEEKCHART_MON_GUBUN:	m_nGridWidth_Mon = nGridWidth;	break;

  0002a	66 8b 45 0c	 mov	 ax, WORD PTR _nGridWidth$[ebp]
  0002e	66 89 41 50	 mov	 WORD PTR [ecx+80], ax

; 663  : 	}
; 664  : }

  00032	5d		 pop	 ebp
  00033	c2 08 00	 ret	 8
$LN10@SetGridWid:

; 661  : 		case CScaleBaseData::WEEKCHART_YEAR_GUBUN:	m_nGridWidth_Year = nGridWidth;	break;
; 662  : 		case CScaleBaseData::MONCHART_YEAR_GUBUN:	m_nGridWidth_Year = nGridWidth;	break;

  00036	66 8b 45 0c	 mov	 ax, WORD PTR _nGridWidth$[ebp]
  0003a	66 89 41 52	 mov	 WORD PTR [ecx+82], ax
$LN2@SetGridWid:

; 663  : 	}
; 664  : }

  0003e	5d		 pop	 ebp
  0003f	c2 08 00	 ret	 8
  00042	66 90		 npad	 2
$LN12@SetGridWid:
  00044	00 00 00 00	 DD	 $LN4@SetGridWid
  00048	00 00 00 00	 DD	 $LN5@SetGridWid
  0004c	00 00 00 00	 DD	 $LN8@SetGridWid
  00050	00 00 00 00	 DD	 $LN10@SetGridWid
  00054	00 00 00 00	 DD	 $LN8@SetGridWid
  00058	00 00 00 00	 DD	 $LN10@SetGridWid
  0005c	00 00 00 00	 DD	 $LN10@SetGridWid
?SetGridWidth_Time@CHorizontalScale@@QAEXW4SCALEGRIDTIMEGUBUN@CScaleBaseData@@G@Z ENDP ; CHorizontalScale::SetGridWidth_Time
_TEXT	ENDS
; Function compile flags: /Ogtp
; File D:\git\src\IBK\IBK_DRFN\ProjSrc\SrcChartEx\ChartOCX\ScaleDraw\ScaleBaseData.cpp
;	COMDAT ?GetGridWidth_Time@CHorizontalScale@@QBEGW4SCALEGRIDTIMEGUBUN@CScaleBaseData@@H@Z
_TEXT	SEGMENT
_nType$ = 8						; size = 4
_bBold$ = 12						; size = 4
?GetGridWidth_Time@CHorizontalScale@@QBEGW4SCALEGRIDTIMEGUBUN@CScaleBaseData@@H@Z PROC ; CHorizontalScale::GetGridWidth_Time, COMDAT
; _this$ = ecx

; 635  : {

  00000	55		 push	 ebp
  00001	8b ec		 mov	 ebp, esp

; 636  : 	unsigned short nGridWidth = 1;
; 637  : 
; 638  : 	switch (nType)

  00003	8b 55 08	 mov	 edx, DWORD PTR _nType$[ebp]
  00006	b8 01 00 00 00	 mov	 eax, 1
  0000b	83 fa 06	 cmp	 edx, 6
  0000e	77 23		 ja	 SHORT $LN2@GetGridWid
  00010	ff 24 95 00 00
	00 00		 jmp	 DWORD PTR $LN12@GetGridWid[edx*4]
$LN4@GetGridWid:

; 639  : 	{
; 640  : 		case CScaleBaseData::MINTICK_DAY_GUBUN:		nGridWidth = m_nGridWidth_Day;		break;

  00017	0f b7 41 4c	 movzx	 eax, WORD PTR [ecx+76]

; 642  : 		case CScaleBaseData::DAYCHART_MON_GUBUN:	nGridWidth = m_nGridWidth_Mon;		break;
; 643  : 		case CScaleBaseData::DAYCHART_YEAR_GUBUN:	nGridWidth = m_nGridWidth_Year;		break;
; 644  : 		case CScaleBaseData::WEEKCHART_MON_GUBUN:	nGridWidth = m_nGridWidth_Mon;		break;
; 645  : 		case CScaleBaseData::WEEKCHART_YEAR_GUBUN:	nGridWidth = m_nGridWidth_Year;		break;
; 646  : 		case CScaleBaseData::MONCHART_YEAR_GUBUN:	nGridWidth = m_nGridWidth_Year;		break;
; 647  : 	}
; 648  : 
; 649  : 	return nGridWidth;
; 650  : }

  0001b	5d		 pop	 ebp
  0001c	c2 08 00	 ret	 8
$LN5@GetGridWid:

; 641  : 		case CScaleBaseData::DAYCHART_WEEK_GUBUN:	nGridWidth = m_nGridWidth_Week;		break;

  0001f	0f b7 41 4e	 movzx	 eax, WORD PTR [ecx+78]

; 642  : 		case CScaleBaseData::DAYCHART_MON_GUBUN:	nGridWidth = m_nGridWidth_Mon;		break;
; 643  : 		case CScaleBaseData::DAYCHART_YEAR_GUBUN:	nGridWidth = m_nGridWidth_Year;		break;
; 644  : 		case CScaleBaseData::WEEKCHART_MON_GUBUN:	nGridWidth = m_nGridWidth_Mon;		break;
; 645  : 		case CScaleBaseData::WEEKCHART_YEAR_GUBUN:	nGridWidth = m_nGridWidth_Year;		break;
; 646  : 		case CScaleBaseData::MONCHART_YEAR_GUBUN:	nGridWidth = m_nGridWidth_Year;		break;
; 647  : 	}
; 648  : 
; 649  : 	return nGridWidth;
; 650  : }

  00023	5d		 pop	 ebp
  00024	c2 08 00	 ret	 8
$LN8@GetGridWid:
  00027	0f b7 41 50	 movzx	 eax, WORD PTR [ecx+80]
  0002b	5d		 pop	 ebp
  0002c	c2 08 00	 ret	 8
$LN10@GetGridWid:
  0002f	0f b7 41 52	 movzx	 eax, WORD PTR [ecx+82]
$LN2@GetGridWid:
  00033	5d		 pop	 ebp
  00034	c2 08 00	 ret	 8
  00037	90		 npad	 1
$LN12@GetGridWid:
  00038	00 00 00 00	 DD	 $LN4@GetGridWid
  0003c	00 00 00 00	 DD	 $LN5@GetGridWid
  00040	00 00 00 00	 DD	 $LN8@GetGridWid
  00044	00 00 00 00	 DD	 $LN10@GetGridWid
  00048	00 00 00 00	 DD	 $LN8@GetGridWid
  0004c	00 00 00 00	 DD	 $LN10@GetGridWid
  00050	00 00 00 00	 DD	 $LN10@GetGridWid
?GetGridWidth_Time@CHorizontalScale@@QBEGW4SCALEGRIDTIMEGUBUN@CScaleBaseData@@H@Z ENDP ; CHorizontalScale::GetGridWidth_Time
_TEXT	ENDS
; Function compile flags: /Ogtp
; File D:\git\src\IBK\IBK_DRFN\ProjSrc\SrcChartEx\ChartOCX\ScaleDraw\ScaleBaseData.cpp
;	COMDAT ?SetCheckTime@CHorizontalScale@@QAEXW4SCALEGRIDTIMEGUBUN@CScaleBaseData@@H@Z
_TEXT	SEGMENT
_nType$ = 8						; size = 4
_bCheck$ = 12						; size = 4
?SetCheckTime@CHorizontalScale@@QAEXW4SCALEGRIDTIMEGUBUN@CScaleBaseData@@H@Z PROC ; CHorizontalScale::SetCheckTime, COMDAT
; _this$ = ecx

; 621  : {

  00000	55		 push	 ebp
  00001	8b ec		 mov	 ebp, esp

; 622  : 	switch (nType)

  00003	8b 45 08	 mov	 eax, DWORD PTR _nType$[ebp]
  00006	83 f8 06	 cmp	 eax, 6
  00009	77 49		 ja	 SHORT $LN2@SetCheckTi
  0000b	ff 24 85 00 00
	00 00		 jmp	 DWORD PTR $LN12@SetCheckTi[eax*4]
$LN4@SetCheckTi:

; 623  : 	{
; 624  : 		case CScaleBaseData::MINTICK_DAY_GUBUN:		m_bOn_MINTICK_DAY  = bCheck;	break;

  00012	8b 45 0c	 mov	 eax, DWORD PTR _bCheck$[ebp]
  00015	89 41 30	 mov	 DWORD PTR [ecx+48], eax

; 631  : 	}
; 632  : }

  00018	5d		 pop	 ebp
  00019	c2 08 00	 ret	 8
$LN5@SetCheckTi:

; 625  : 		case CScaleBaseData::DAYCHART_WEEK_GUBUN:	m_bOn_DAYCHART_WEEK  = bCheck;	break;

  0001c	8b 45 0c	 mov	 eax, DWORD PTR _bCheck$[ebp]
  0001f	89 41 34	 mov	 DWORD PTR [ecx+52], eax

; 631  : 	}
; 632  : }

  00022	5d		 pop	 ebp
  00023	c2 08 00	 ret	 8
$LN6@SetCheckTi:

; 626  : 		case CScaleBaseData::DAYCHART_MON_GUBUN:	m_bOn_DAYCHART_MON  = bCheck;	break;

  00026	8b 45 0c	 mov	 eax, DWORD PTR _bCheck$[ebp]
  00029	89 41 38	 mov	 DWORD PTR [ecx+56], eax

; 631  : 	}
; 632  : }

  0002c	5d		 pop	 ebp
  0002d	c2 08 00	 ret	 8
$LN7@SetCheckTi:

; 627  : 		case CScaleBaseData::DAYCHART_YEAR_GUBUN:	m_bOn_DAYCHART_YEAR  = bCheck;	break;

  00030	8b 45 0c	 mov	 eax, DWORD PTR _bCheck$[ebp]
  00033	89 41 3c	 mov	 DWORD PTR [ecx+60], eax

; 631  : 	}
; 632  : }

  00036	5d		 pop	 ebp
  00037	c2 08 00	 ret	 8
$LN8@SetCheckTi:

; 628  : 		case CScaleBaseData::WEEKCHART_MON_GUBUN:	m_bOn_WEEKCHART_MON  = bCheck;	break;

  0003a	8b 45 0c	 mov	 eax, DWORD PTR _bCheck$[ebp]
  0003d	89 41 40	 mov	 DWORD PTR [ecx+64], eax

; 631  : 	}
; 632  : }

  00040	5d		 pop	 ebp
  00041	c2 08 00	 ret	 8
$LN9@SetCheckTi:

; 629  : 		case CScaleBaseData::WEEKCHART_YEAR_GUBUN:	m_bOn_WEEKCHART_YEAR  = bCheck;	break;

  00044	8b 45 0c	 mov	 eax, DWORD PTR _bCheck$[ebp]
  00047	89 41 44	 mov	 DWORD PTR [ecx+68], eax

; 631  : 	}
; 632  : }

  0004a	5d		 pop	 ebp
  0004b	c2 08 00	 ret	 8
$LN10@SetCheckTi:

; 630  : 		case CScaleBaseData::MONCHART_YEAR_GUBUN:	m_bOn_MONCHART_YEAR  = bCheck;	break;

  0004e	8b 45 0c	 mov	 eax, DWORD PTR _bCheck$[ebp]
  00051	89 41 48	 mov	 DWORD PTR [ecx+72], eax
$LN2@SetCheckTi:

; 631  : 	}
; 632  : }

  00054	5d		 pop	 ebp
  00055	c2 08 00	 ret	 8
$LN12@SetCheckTi:
  00058	00 00 00 00	 DD	 $LN4@SetCheckTi
  0005c	00 00 00 00	 DD	 $LN5@SetCheckTi
  00060	00 00 00 00	 DD	 $LN6@SetCheckTi
  00064	00 00 00 00	 DD	 $LN7@SetCheckTi
  00068	00 00 00 00	 DD	 $LN8@SetCheckTi
  0006c	00 00 00 00	 DD	 $LN9@SetCheckTi
  00070	00 00 00 00	 DD	 $LN10@SetCheckTi
?SetCheckTime@CHorizontalScale@@QAEXW4SCALEGRIDTIMEGUBUN@CScaleBaseData@@H@Z ENDP ; CHorizontalScale::SetCheckTime
_TEXT	ENDS
; Function compile flags: /Ogtp
; File D:\git\src\IBK\IBK_DRFN\ProjSrc\SrcChartEx\ChartOCX\ScaleDraw\ScaleBaseData.cpp
;	COMDAT ?GetCheckTime@CHorizontalScale@@QBEHW4SCALEGRIDTIMEGUBUN@CScaleBaseData@@@Z
_TEXT	SEGMENT
_bType$ = 8						; size = 4
_nType$ = 8						; size = 4
?GetCheckTime@CHorizontalScale@@QBEHW4SCALEGRIDTIMEGUBUN@CScaleBaseData@@@Z PROC ; CHorizontalScale::GetCheckTime, COMDAT
; _this$ = ecx

; 603  : {

  00000	55		 push	 ebp
  00001	8b ec		 mov	 ebp, esp

; 604  : 	BOOL bType;
; 605  : 
; 606  : 	switch (nType)

  00003	8b 45 08	 mov	 eax, DWORD PTR _nType$[ebp]
  00006	83 f8 06	 cmp	 eax, 6
  00009	77 38		 ja	 SHORT $LN13@GetCheckTi
  0000b	ff 24 85 00 00
	00 00		 jmp	 DWORD PTR $LN12@GetCheckTi[eax*4]
$LN4@GetCheckTi:

; 607  : 	{
; 608  : 		case CScaleBaseData::MINTICK_DAY_GUBUN:		bType = m_bOn_MINTICK_DAY;		break;

  00012	8b 41 30	 mov	 eax, DWORD PTR [ecx+48]

; 615  : 	}
; 616  : 
; 617  : 	return bType;
; 618  : }

  00015	5d		 pop	 ebp
  00016	c2 04 00	 ret	 4
$LN5@GetCheckTi:

; 609  : 		case CScaleBaseData::DAYCHART_WEEK_GUBUN:	bType = m_bOn_DAYCHART_WEEK;	break;

  00019	8b 41 34	 mov	 eax, DWORD PTR [ecx+52]

; 615  : 	}
; 616  : 
; 617  : 	return bType;
; 618  : }

  0001c	5d		 pop	 ebp
  0001d	c2 04 00	 ret	 4
$LN6@GetCheckTi:

; 610  : 		case CScaleBaseData::DAYCHART_MON_GUBUN:	bType = m_bOn_DAYCHART_MON;		break;

  00020	8b 41 38	 mov	 eax, DWORD PTR [ecx+56]

; 615  : 	}
; 616  : 
; 617  : 	return bType;
; 618  : }

  00023	5d		 pop	 ebp
  00024	c2 04 00	 ret	 4
$LN7@GetCheckTi:

; 611  : 		case CScaleBaseData::DAYCHART_YEAR_GUBUN:	bType = m_bOn_DAYCHART_YEAR;	break;

  00027	8b 41 3c	 mov	 eax, DWORD PTR [ecx+60]

; 615  : 	}
; 616  : 
; 617  : 	return bType;
; 618  : }

  0002a	5d		 pop	 ebp
  0002b	c2 04 00	 ret	 4
$LN8@GetCheckTi:

; 612  : 		case CScaleBaseData::WEEKCHART_MON_GUBUN:	bType = m_bOn_WEEKCHART_MON;	break;

  0002e	8b 41 40	 mov	 eax, DWORD PTR [ecx+64]

; 615  : 	}
; 616  : 
; 617  : 	return bType;
; 618  : }

  00031	5d		 pop	 ebp
  00032	c2 04 00	 ret	 4
$LN9@GetCheckTi:

; 613  : 		case CScaleBaseData::WEEKCHART_YEAR_GUBUN:	bType = m_bOn_WEEKCHART_YEAR;	break;

  00035	8b 41 44	 mov	 eax, DWORD PTR [ecx+68]

; 615  : 	}
; 616  : 
; 617  : 	return bType;
; 618  : }

  00038	5d		 pop	 ebp
  00039	c2 04 00	 ret	 4
$LN10@GetCheckTi:

; 614  : 		case CScaleBaseData::MONCHART_YEAR_GUBUN:	bType = m_bOn_MONCHART_YEAR;	break;

  0003c	8b 41 48	 mov	 eax, DWORD PTR [ecx+72]

; 615  : 	}
; 616  : 
; 617  : 	return bType;
; 618  : }

  0003f	5d		 pop	 ebp
  00040	c2 04 00	 ret	 4
$LN13@GetCheckTi:

; 604  : 	BOOL bType;
; 605  : 
; 606  : 	switch (nType)

  00043	8b 45 08	 mov	 eax, DWORD PTR _bType$[ebp]

; 615  : 	}
; 616  : 
; 617  : 	return bType;
; 618  : }

  00046	5d		 pop	 ebp
  00047	c2 04 00	 ret	 4
  0004a	66 90		 npad	 2
$LN12@GetCheckTi:
  0004c	00 00 00 00	 DD	 $LN4@GetCheckTi
  00050	00 00 00 00	 DD	 $LN5@GetCheckTi
  00054	00 00 00 00	 DD	 $LN6@GetCheckTi
  00058	00 00 00 00	 DD	 $LN7@GetCheckTi
  0005c	00 00 00 00	 DD	 $LN8@GetCheckTi
  00060	00 00 00 00	 DD	 $LN9@GetCheckTi
  00064	00 00 00 00	 DD	 $LN10@GetCheckTi
?GetCheckTime@CHorizontalScale@@QBEHW4SCALEGRIDTIMEGUBUN@CScaleBaseData@@@Z ENDP ; CHorizontalScale::GetCheckTime
_TEXT	ENDS
; Function compile flags: /Ogtp
; File D:\git\src\IBK\IBK_DRFN\ProjSrc\SrcChartEx\ChartOCX\ScaleDraw\ScaleBaseData.cpp
;	COMDAT ?SetPeriodGridType@CHorizontalScale@@QAEXW4SCALEGRIDTIMEGUBUN@CScaleBaseData@@W4SCALEGRIDTYPE@3@H@Z
_TEXT	SEGMENT
_nType$ = 8						; size = 4
_eGridType$ = 12					; size = 4
_bCheck$ = 16						; size = 4
?SetPeriodGridType@CHorizontalScale@@QAEXW4SCALEGRIDTIMEGUBUN@CScaleBaseData@@W4SCALEGRIDTYPE@3@H@Z PROC ; CHorizontalScale::SetPeriodGridType, COMDAT
; _this$ = ecx

; 589  : {

  00000	55		 push	 ebp
  00001	8b ec		 mov	 ebp, esp

; 590  : 	switch (nType)

  00003	8b 45 08	 mov	 eax, DWORD PTR _nType$[ebp]
  00006	83 f8 06	 cmp	 eax, 6
  00009	77 73		 ja	 SHORT $LN2@SetPeriodG
  0000b	ff 24 85 00 00
	00 00		 jmp	 DWORD PTR $LN12@SetPeriodG[eax*4]
$LN4@SetPeriodG:

; 591  : 	{
; 592  : 		case CScaleBaseData::MINTICK_DAY_GUBUN:		m_nGridTypeDay = eGridType;		m_bOn_MINTICK_DAY = bCheck;		break;

  00012	8b 45 0c	 mov	 eax, DWORD PTR _eGridType$[ebp]
  00015	89 41 20	 mov	 DWORD PTR [ecx+32], eax
  00018	8b 45 10	 mov	 eax, DWORD PTR _bCheck$[ebp]
  0001b	89 41 30	 mov	 DWORD PTR [ecx+48], eax

; 599  : 	}
; 600  : }

  0001e	5d		 pop	 ebp
  0001f	c2 0c 00	 ret	 12			; 0000000cH
$LN5@SetPeriodG:

; 593  : 		case CScaleBaseData::DAYCHART_WEEK_GUBUN:	m_nGridTypeWeek = eGridType;	m_bOn_DAYCHART_WEEK = bCheck;	break;

  00022	8b 45 0c	 mov	 eax, DWORD PTR _eGridType$[ebp]
  00025	89 41 24	 mov	 DWORD PTR [ecx+36], eax
  00028	8b 45 10	 mov	 eax, DWORD PTR _bCheck$[ebp]
  0002b	89 41 34	 mov	 DWORD PTR [ecx+52], eax

; 599  : 	}
; 600  : }

  0002e	5d		 pop	 ebp
  0002f	c2 0c 00	 ret	 12			; 0000000cH
$LN6@SetPeriodG:

; 594  : 		case CScaleBaseData::DAYCHART_MON_GUBUN:	m_nGridTypeMon = eGridType;		m_bOn_DAYCHART_MON = bCheck;	break;

  00032	8b 45 0c	 mov	 eax, DWORD PTR _eGridType$[ebp]
  00035	89 41 28	 mov	 DWORD PTR [ecx+40], eax
  00038	8b 45 10	 mov	 eax, DWORD PTR _bCheck$[ebp]
  0003b	89 41 38	 mov	 DWORD PTR [ecx+56], eax

; 599  : 	}
; 600  : }

  0003e	5d		 pop	 ebp
  0003f	c2 0c 00	 ret	 12			; 0000000cH
$LN7@SetPeriodG:

; 595  : 		case CScaleBaseData::DAYCHART_YEAR_GUBUN:	m_nGridTypeYear = eGridType;	m_bOn_DAYCHART_YEAR = bCheck;	break;

  00042	8b 45 0c	 mov	 eax, DWORD PTR _eGridType$[ebp]
  00045	89 41 2c	 mov	 DWORD PTR [ecx+44], eax
  00048	8b 45 10	 mov	 eax, DWORD PTR _bCheck$[ebp]
  0004b	89 41 3c	 mov	 DWORD PTR [ecx+60], eax

; 599  : 	}
; 600  : }

  0004e	5d		 pop	 ebp
  0004f	c2 0c 00	 ret	 12			; 0000000cH
$LN8@SetPeriodG:

; 596  : 		case CScaleBaseData::WEEKCHART_MON_GUBUN:	m_nGridTypeMon = eGridType;		m_bOn_WEEKCHART_MON = bCheck;	break;

  00052	8b 45 0c	 mov	 eax, DWORD PTR _eGridType$[ebp]
  00055	89 41 28	 mov	 DWORD PTR [ecx+40], eax
  00058	8b 45 10	 mov	 eax, DWORD PTR _bCheck$[ebp]
  0005b	89 41 40	 mov	 DWORD PTR [ecx+64], eax

; 599  : 	}
; 600  : }

  0005e	5d		 pop	 ebp
  0005f	c2 0c 00	 ret	 12			; 0000000cH
$LN9@SetPeriodG:

; 597  : 		case CScaleBaseData::WEEKCHART_YEAR_GUBUN:	m_nGridTypeYear = eGridType;	m_bOn_WEEKCHART_YEAR = bCheck;	break;

  00062	8b 45 0c	 mov	 eax, DWORD PTR _eGridType$[ebp]
  00065	89 41 2c	 mov	 DWORD PTR [ecx+44], eax
  00068	8b 45 10	 mov	 eax, DWORD PTR _bCheck$[ebp]
  0006b	89 41 44	 mov	 DWORD PTR [ecx+68], eax

; 599  : 	}
; 600  : }

  0006e	5d		 pop	 ebp
  0006f	c2 0c 00	 ret	 12			; 0000000cH
$LN10@SetPeriodG:

; 598  : 		case CScaleBaseData::MONCHART_YEAR_GUBUN:	m_nGridTypeYear = eGridType;	m_bOn_MONCHART_YEAR = bCheck;	break;

  00072	8b 45 0c	 mov	 eax, DWORD PTR _eGridType$[ebp]
  00075	89 41 2c	 mov	 DWORD PTR [ecx+44], eax
  00078	8b 45 10	 mov	 eax, DWORD PTR _bCheck$[ebp]
  0007b	89 41 48	 mov	 DWORD PTR [ecx+72], eax
$LN2@SetPeriodG:

; 599  : 	}
; 600  : }

  0007e	5d		 pop	 ebp
  0007f	c2 0c 00	 ret	 12			; 0000000cH
  00082	66 90		 npad	 2
$LN12@SetPeriodG:
  00084	00 00 00 00	 DD	 $LN4@SetPeriodG
  00088	00 00 00 00	 DD	 $LN5@SetPeriodG
  0008c	00 00 00 00	 DD	 $LN6@SetPeriodG
  00090	00 00 00 00	 DD	 $LN7@SetPeriodG
  00094	00 00 00 00	 DD	 $LN8@SetPeriodG
  00098	00 00 00 00	 DD	 $LN9@SetPeriodG
  0009c	00 00 00 00	 DD	 $LN10@SetPeriodG
?SetPeriodGridType@CHorizontalScale@@QAEXW4SCALEGRIDTIMEGUBUN@CScaleBaseData@@W4SCALEGRIDTYPE@3@H@Z ENDP ; CHorizontalScale::SetPeriodGridType
_TEXT	ENDS
; Function compile flags: /Ogtp
; File D:\git\src\IBK\IBK_DRFN\ProjSrc\SrcChartEx\ChartOCX\ScaleDraw\ScaleBaseData.cpp
;	COMDAT ?SetPeriodGridType@CHorizontalScale@@QAEXHPAD@Z
_TEXT	SEGMENT
_nType$ = 8						; size = 4
_p_szGridType$ = 12					; size = 4
?SetPeriodGridType@CHorizontalScale@@QAEXHPAD@Z PROC	; CHorizontalScale::SetPeriodGridType, COMDAT
; _this$ = ecx

; 570  : {

  00000	55		 push	 ebp
  00001	8b ec		 mov	 ebp, esp

; 571  : 	if( !p_szGridType) return;

  00003	8b 45 0c	 mov	 eax, DWORD PTR _p_szGridType$[ebp]
  00006	56		 push	 esi
  00007	8b f1		 mov	 esi, ecx
  00009	85 c0		 test	 eax, eax
  0000b	74 39		 je	 SHORT $LN2@SetPeriodG

; 572  : 	if( !*p_szGridType) return;

  0000d	80 38 00	 cmp	 BYTE PTR [eax], 0
  00010	74 34		 je	 SHORT $LN2@SetPeriodG

; 573  : 
; 574  : 	CScaleBaseData::SCALEGRIDTYPE eGridType = ( CScaleBaseData::SCALEGRIDTYPE)atoi( p_szGridType);

  00012	50		 push	 eax
  00013	ff 15 00 00 00
	00		 call	 DWORD PTR __imp__atoi

; 575  : 
; 576  : 	switch (nType)

  00019	8b 4d 08	 mov	 ecx, DWORD PTR _nType$[ebp]
  0001c	83 c4 04	 add	 esp, 4
  0001f	83 f9 06	 cmp	 ecx, 6
  00022	77 22		 ja	 SHORT $LN2@SetPeriodG
  00024	ff 24 8d 00 00
	00 00		 jmp	 DWORD PTR $LN14@SetPeriodG[ecx*4]
$LN6@SetPeriodG:

; 577  : 	{
; 578  : 		case CScaleBaseData::MINTICK_DAY_GUBUN:		m_nGridTypeDay = eGridType;			break;

  0002b	89 46 20	 mov	 DWORD PTR [esi+32], eax
  0002e	5e		 pop	 esi

; 585  : 	}
; 586  : }

  0002f	5d		 pop	 ebp
  00030	c2 08 00	 ret	 8
$LN7@SetPeriodG:

; 579  : 		case CScaleBaseData::DAYCHART_WEEK_GUBUN:	m_nGridTypeWeek = eGridType;		break;

  00033	89 46 24	 mov	 DWORD PTR [esi+36], eax
  00036	5e		 pop	 esi

; 585  : 	}
; 586  : }

  00037	5d		 pop	 ebp
  00038	c2 08 00	 ret	 8
$LN10@SetPeriodG:

; 580  : 		case CScaleBaseData::DAYCHART_MON_GUBUN:	m_nGridTypeMon = eGridType;			break;
; 581  : 		case CScaleBaseData::DAYCHART_YEAR_GUBUN:	m_nGridTypeYear = eGridType;		break;
; 582  : 		case CScaleBaseData::WEEKCHART_MON_GUBUN:	m_nGridTypeMon = eGridType;			break;

  0003b	89 46 28	 mov	 DWORD PTR [esi+40], eax
  0003e	5e		 pop	 esi

; 585  : 	}
; 586  : }

  0003f	5d		 pop	 ebp
  00040	c2 08 00	 ret	 8
$LN12@SetPeriodG:

; 583  : 		case CScaleBaseData::WEEKCHART_YEAR_GUBUN:	m_nGridTypeYear = eGridType;		break;
; 584  : 		case CScaleBaseData::MONCHART_YEAR_GUBUN:	m_nGridTypeYear = eGridType;		break;

  00043	89 46 2c	 mov	 DWORD PTR [esi+44], eax
$LN2@SetPeriodG:
  00046	5e		 pop	 esi

; 585  : 	}
; 586  : }

  00047	5d		 pop	 ebp
  00048	c2 08 00	 ret	 8
  0004b	90		 npad	 1
$LN14@SetPeriodG:
  0004c	00 00 00 00	 DD	 $LN6@SetPeriodG
  00050	00 00 00 00	 DD	 $LN7@SetPeriodG
  00054	00 00 00 00	 DD	 $LN10@SetPeriodG
  00058	00 00 00 00	 DD	 $LN12@SetPeriodG
  0005c	00 00 00 00	 DD	 $LN10@SetPeriodG
  00060	00 00 00 00	 DD	 $LN12@SetPeriodG
  00064	00 00 00 00	 DD	 $LN12@SetPeriodG
?SetPeriodGridType@CHorizontalScale@@QAEXHPAD@Z ENDP	; CHorizontalScale::SetPeriodGridType
_TEXT	ENDS
; Function compile flags: /Ogtp
; File D:\git\src\IBK\IBK_DRFN\ProjSrc\SrcChartEx\ChartOCX\ScaleDraw\ScaleBaseData.cpp
;	COMDAT ?GetPeriodGridType@CHorizontalScale@@QBE?AW4SCALEGRIDTYPE@CScaleBaseData@@W4SCALEGRIDTIMEGUBUN@3@@Z
_TEXT	SEGMENT
_eType$ = 8						; size = 4
_nType$ = 8						; size = 4
?GetPeriodGridType@CHorizontalScale@@QBE?AW4SCALEGRIDTYPE@CScaleBaseData@@W4SCALEGRIDTIMEGUBUN@3@@Z PROC ; CHorizontalScale::GetPeriodGridType, COMDAT
; _this$ = ecx

; 553  : {

  00000	55		 push	 ebp
  00001	8b ec		 mov	 ebp, esp

; 554  : 	CScaleBaseData::SCALEGRIDTYPE eType;
; 555  : 	switch (nType)

  00003	8b 45 08	 mov	 eax, DWORD PTR _nType$[ebp]
  00006	83 f8 06	 cmp	 eax, 6
  00009	77 23		 ja	 SHORT $LN13@GetPeriodG
  0000b	ff 24 85 00 00
	00 00		 jmp	 DWORD PTR $LN12@GetPeriodG[eax*4]
$LN4@GetPeriodG:

; 556  : 	{
; 557  : 		case CScaleBaseData::MINTICK_DAY_GUBUN:		eType = m_nGridTypeDay;		break;

  00012	8b 41 20	 mov	 eax, DWORD PTR [ecx+32]

; 559  : 		case CScaleBaseData::DAYCHART_MON_GUBUN:	eType = m_nGridTypeMon;		break;
; 560  : 		case CScaleBaseData::DAYCHART_YEAR_GUBUN:	eType = m_nGridTypeYear;	break;
; 561  : 		case CScaleBaseData::WEEKCHART_MON_GUBUN:	eType = m_nGridTypeMon;		break;
; 562  : 		case CScaleBaseData::WEEKCHART_YEAR_GUBUN:	eType = m_nGridTypeYear;	break;
; 563  : 		case CScaleBaseData::MONCHART_YEAR_GUBUN:	eType = m_nGridTypeYear;	break;
; 564  : 	}
; 565  : 
; 566  : 	return eType;
; 567  : }

  00015	5d		 pop	 ebp
  00016	c2 04 00	 ret	 4
$LN5@GetPeriodG:

; 558  : 		case CScaleBaseData::DAYCHART_WEEK_GUBUN:	eType = m_nGridTypeWeek;	break;

  00019	8b 41 24	 mov	 eax, DWORD PTR [ecx+36]

; 559  : 		case CScaleBaseData::DAYCHART_MON_GUBUN:	eType = m_nGridTypeMon;		break;
; 560  : 		case CScaleBaseData::DAYCHART_YEAR_GUBUN:	eType = m_nGridTypeYear;	break;
; 561  : 		case CScaleBaseData::WEEKCHART_MON_GUBUN:	eType = m_nGridTypeMon;		break;
; 562  : 		case CScaleBaseData::WEEKCHART_YEAR_GUBUN:	eType = m_nGridTypeYear;	break;
; 563  : 		case CScaleBaseData::MONCHART_YEAR_GUBUN:	eType = m_nGridTypeYear;	break;
; 564  : 	}
; 565  : 
; 566  : 	return eType;
; 567  : }

  0001c	5d		 pop	 ebp
  0001d	c2 04 00	 ret	 4
$LN6@GetPeriodG:
  00020	8b 41 28	 mov	 eax, DWORD PTR [ecx+40]
  00023	5d		 pop	 ebp
  00024	c2 04 00	 ret	 4
$LN7@GetPeriodG:
  00027	8b 41 2c	 mov	 eax, DWORD PTR [ecx+44]
  0002a	5d		 pop	 ebp
  0002b	c2 04 00	 ret	 4
$LN13@GetPeriodG:

; 554  : 	CScaleBaseData::SCALEGRIDTYPE eType;
; 555  : 	switch (nType)

  0002e	8b 45 08	 mov	 eax, DWORD PTR _eType$[ebp]

; 559  : 		case CScaleBaseData::DAYCHART_MON_GUBUN:	eType = m_nGridTypeMon;		break;
; 560  : 		case CScaleBaseData::DAYCHART_YEAR_GUBUN:	eType = m_nGridTypeYear;	break;
; 561  : 		case CScaleBaseData::WEEKCHART_MON_GUBUN:	eType = m_nGridTypeMon;		break;
; 562  : 		case CScaleBaseData::WEEKCHART_YEAR_GUBUN:	eType = m_nGridTypeYear;	break;
; 563  : 		case CScaleBaseData::MONCHART_YEAR_GUBUN:	eType = m_nGridTypeYear;	break;
; 564  : 	}
; 565  : 
; 566  : 	return eType;
; 567  : }

  00031	5d		 pop	 ebp
  00032	c2 04 00	 ret	 4
  00035	0f 1f 00	 npad	 3
$LN12@GetPeriodG:
  00038	00 00 00 00	 DD	 $LN4@GetPeriodG
  0003c	00 00 00 00	 DD	 $LN5@GetPeriodG
  00040	00 00 00 00	 DD	 $LN6@GetPeriodG
  00044	00 00 00 00	 DD	 $LN7@GetPeriodG
  00048	00 00 00 00	 DD	 $LN6@GetPeriodG
  0004c	00 00 00 00	 DD	 $LN7@GetPeriodG
  00050	00 00 00 00	 DD	 $LN7@GetPeriodG
?GetPeriodGridType@CHorizontalScale@@QBE?AW4SCALEGRIDTYPE@CScaleBaseData@@W4SCALEGRIDTIMEGUBUN@3@@Z ENDP ; CHorizontalScale::GetPeriodGridType
_TEXT	ENDS
; Function compile flags: /Ogtp
; File D:\git\src\IBK\IBK_DRFN\ProjSrc\SrcChartEx\ChartOCX\ScaleDraw\ScaleBaseData.cpp
; File C:\Program Files (x86)\Microsoft Visual Studio\2019\Community\VC\Tools\MSVC\14.29.30133\atlmfc\include\atlsimpstr.h
; File D:\git\src\IBK\IBK_DRFN\ProjSrc\SrcChartEx\ChartOCX\ScaleDraw\ScaleBaseData.cpp
; File C:\Program Files (x86)\Microsoft Visual Studio\2019\Community\VC\Tools\MSVC\14.29.30133\atlmfc\include\atlsimpstr.h
; File D:\git\src\IBK\IBK_DRFN\ProjSrc\SrcChartEx\ChartOCX\ScaleDraw\ScaleBaseData.cpp
; File C:\Program Files (x86)\Microsoft Visual Studio\2019\Community\VC\Tools\MSVC\14.29.30133\atlmfc\include\atlsimpstr.h
; File D:\git\src\IBK\IBK_DRFN\ProjSrc\SrcChartEx\ChartOCX\ScaleDraw\ScaleBaseData.cpp
; File C:\Program Files (x86)\Microsoft Visual Studio\2019\Community\VC\Tools\MSVC\14.29.30133\atlmfc\include\atlsimpstr.h
; File D:\git\src\IBK\IBK_DRFN\ProjSrc\SrcChartEx\ChartOCX\ScaleDraw\ScaleBaseData.cpp
; File C:\Program Files (x86)\Microsoft Visual Studio\2019\Community\VC\Tools\MSVC\14.29.30133\atlmfc\include\atlsimpstr.h
; File D:\git\src\IBK\IBK_DRFN\ProjSrc\SrcChartEx\ChartOCX\ScaleDraw\ScaleBaseData.cpp
; File C:\Program Files (x86)\Microsoft Visual Studio\2019\Community\VC\Tools\MSVC\14.29.30133\atlmfc\include\atlsimpstr.h
; File D:\git\src\IBK\IBK_DRFN\ProjSrc\SrcChartEx\ChartOCX\ScaleDraw\ScaleBaseData.cpp
; File C:\Program Files (x86)\Microsoft Visual Studio\2019\Community\VC\Tools\MSVC\14.29.30133\atlmfc\include\atlsimpstr.h
; File D:\git\src\IBK\IBK_DRFN\ProjSrc\SrcChartEx\ChartOCX\ScaleDraw\ScaleBaseData.cpp
; File C:\Program Files (x86)\Microsoft Visual Studio\2019\Community\VC\Tools\MSVC\14.29.30133\atlmfc\include\atlsimpstr.h
; File D:\git\src\IBK\IBK_DRFN\ProjSrc\SrcChartEx\ChartOCX\ScaleDraw\ScaleBaseData.cpp
; File C:\Program Files (x86)\Microsoft Visual Studio\2019\Community\VC\Tools\MSVC\14.29.30133\atlmfc\include\atlsimpstr.h
; File D:\git\src\IBK\IBK_DRFN\ProjSrc\SrcChartEx\ChartOCX\ScaleDraw\ScaleBaseData.cpp
; File C:\Program Files (x86)\Microsoft Visual Studio\2019\Community\VC\Tools\MSVC\14.29.30133\atlmfc\include\atlsimpstr.h
; File D:\git\src\IBK\IBK_DRFN\ProjSrc\SrcChartEx\ChartOCX\ScaleDraw\ScaleBaseData.cpp
; File C:\Program Files (x86)\Microsoft Visual Studio\2019\Community\VC\Tools\MSVC\14.29.30133\atlmfc\include\atlsimpstr.h
; File D:\git\src\IBK\IBK_DRFN\ProjSrc\SrcChartEx\ChartOCX\ScaleDraw\ScaleBaseData.cpp
; File C:\Program Files (x86)\Microsoft Visual Studio\2019\Community\VC\Tools\MSVC\14.29.30133\atlmfc\include\atlsimpstr.h
; File D:\git\src\IBK\IBK_DRFN\ProjSrc\SrcChartEx\ChartOCX\ScaleDraw\ScaleBaseData.cpp
;	COMDAT ?GetScaleAllData@CHorizontalScale@@QBEXAAV?$CStringT@DV?$StrTraitMFC_DLL@DV?$ChTraitsCRT@D@ATL@@@@@ATL@@@Z
_TEXT	SEGMENT
_nGridType$1$ = -340					; size = 4
$T2 = -336						; size = 4
tv1498 = -332						; size = 4
tv1502 = -328						; size = 4
tv1518 = -324						; size = 4
tv1504 = -320						; size = 4
tv1506 = -316						; size = 4
tv1508 = -312						; size = 4
tv1510 = -308						; size = 4
tv1512 = -304						; size = 4
tv1514 = -300						; size = 4
tv1516 = -296						; size = 4
tv1520 = -292						; size = 4
tv1522 = -288						; size = 4
tv1524 = -284						; size = 4
tv1526 = -280						; size = 4
$T3 = -276						; size = 4
_p_strHorzScaleData$GSCopy$1$ = -272			; size = 4
_nPosition$1$ = -268					; size = 4
_nScaleTextType$1$ = -264				; size = 4
_strScaleData$ = -260					; size = 4
_strTimeCompart$ = -256					; size = 4
_strDateCompart$ = -252					; size = 4
_strDayColor$ = -248					; size = 4
_strWeekColor$ = -244					; size = 4
_strMonColor$ = -240					; size = 4
_strYearColor$ = -236					; size = 4
_szScaleTextType$ = -232				; size = 10
_szGridType$ = -220					; size = 10
_szPosition$ = -208					; size = 10
_szYEAR_GUBUN$ = -196					; size = 10
_szDayCheck$ = -184					; size = 10
_szDAY_GUBUN$ = -172					; size = 10
_szDayWeekCheck$ = -160					; size = 10
_szDayMonCheck$ = -148					; size = 10
_szDayYearCheck$ = -136					; size = 10
_szWeekMonCheck$ = -124					; size = 10
_szWeekYearCheck$ = -112				; size = 10
_szMonYearCheck$ = -100					; size = 10
_szDayWidth$ = -88					; size = 10
_szMonWidth$ = -76					; size = 10
_szYearWidth$ = -64					; size = 10
_szWEEK_GUBUN$ = -52					; size = 10
_szWeekWidth$ = -40					; size = 10
_szMON_GUBUN$ = -28					; size = 10
__$ArrayPad$ = -16					; size = 4
__$EHRec$ = -12						; size = 12
_p_strHorzScaleData$ = 8				; size = 4
?GetScaleAllData@CHorizontalScale@@QBEXAAV?$CStringT@DV?$StrTraitMFC_DLL@DV?$ChTraitsCRT@D@ATL@@@@@ATL@@@Z PROC ; CHorizontalScale::GetScaleAllData, COMDAT
; _this$ = ecx

; 393  : {

  00000	55		 push	 ebp
  00001	8b ec		 mov	 ebp, esp
  00003	6a ff		 push	 -1
  00005	68 00 00 00 00	 push	 __ehhandler$?GetScaleAllData@CHorizontalScale@@QBEXAAV?$CStringT@DV?$StrTraitMFC_DLL@DV?$ChTraitsCRT@D@ATL@@@@@ATL@@@Z
  0000a	64 a1 00 00 00
	00		 mov	 eax, DWORD PTR fs:0
  00010	50		 push	 eax
  00011	81 ec 48 01 00
	00		 sub	 esp, 328		; 00000148H
  00017	a1 00 00 00 00	 mov	 eax, DWORD PTR ___security_cookie
  0001c	33 c5		 xor	 eax, ebp
  0001e	89 45 f0	 mov	 DWORD PTR __$ArrayPad$[ebp], eax
  00021	53		 push	 ebx
  00022	56		 push	 esi
  00023	57		 push	 edi
  00024	50		 push	 eax
  00025	8d 45 f4	 lea	 eax, DWORD PTR __$EHRec$[ebp]
  00028	64 a3 00 00 00
	00		 mov	 DWORD PTR fs:0, eax
  0002e	8b f9		 mov	 edi, ecx
  00030	8b 45 08	 mov	 eax, DWORD PTR _p_strHorzScaleData$[ebp]

; 140  : 	return m_strScaleData;

  00033	8d 8d fc fe ff
	ff		 lea	 ecx, DWORD PTR _strScaleData$[ebp]

; 393  : {

  00039	89 85 f0 fe ff
	ff		 mov	 DWORD PTR _p_strHorzScaleData$GSCopy$1$[ebp], eax

; 140  : 	return m_strScaleData;

  0003f	8d 47 04	 lea	 eax, DWORD PTR [edi+4]
  00042	50		 push	 eax
  00043	ff 15 00 00 00
	00		 call	 DWORD PTR __imp_??0?$CStringT@DV?$StrTraitMFC_DLL@DV?$ChTraitsCRT@D@ATL@@@@@ATL@@QAE@ABV01@@Z

; 394  : 	// 사용할 Data;위치;grid타입;일자타입;시간타입;text타입;log;차트뒤집기;
; 395  : 
; 396  : 	CString strScaleData = CScale::GetScaleData();
; 397  : 
; 398  : 	char szPosition[ 10];
; 399  : 	itoa( m_ePosition, szPosition, 10);

  00049	8b 1d 00 00 00
	00		 mov	 ebx, DWORD PTR __imp__itoa
  0004f	8d 85 30 ff ff
	ff		 lea	 eax, DWORD PTR _szPosition$[ebp]
  00055	6a 0a		 push	 10			; 0000000aH
  00057	50		 push	 eax
  00058	ff 77 0c	 push	 DWORD PTR [edi+12]
  0005b	c7 45 fc 00 00
	00 00		 mov	 DWORD PTR __$EHRec$[ebp+8], 0
  00062	ff d3		 call	 ebx

; 400  : 	int nPosition = strlen( szPosition);

  00064	8d 8d 30 ff ff
	ff		 lea	 ecx, DWORD PTR _szPosition$[ebp]
  0006a	83 c4 0c	 add	 esp, 12			; 0000000cH
  0006d	8d 51 01	 lea	 edx, DWORD PTR [ecx+1]
$LL192@GetScaleAl:
  00070	8a 01		 mov	 al, BYTE PTR [ecx]
  00072	41		 inc	 ecx
  00073	84 c0		 test	 al, al
  00075	75 f9		 jne	 SHORT $LL192@GetScaleAl

; 401  : 
; 402  : 	char szGridType[ 10];
; 403  : 	itoa( CScale::GetGridType(), szGridType, 10);

  00077	6a 0a		 push	 10			; 0000000aH
  00079	8d 85 24 ff ff
	ff		 lea	 eax, DWORD PTR _szGridType$[ebp]
  0007f	2b ca		 sub	 ecx, edx
  00081	50		 push	 eax
  00082	ff 77 08	 push	 DWORD PTR [edi+8]
  00085	89 8d f4 fe ff
	ff		 mov	 DWORD PTR _nPosition$1$[ebp], ecx
  0008b	ff d3		 call	 ebx

; 404  : 	int nGridType = strlen( szGridType);

  0008d	8d 8d 24 ff ff
	ff		 lea	 ecx, DWORD PTR _szGridType$[ebp]
  00093	83 c4 0c	 add	 esp, 12			; 0000000cH
  00096	8d 51 01	 lea	 edx, DWORD PTR [ecx+1]
  00099	0f 1f 80 00 00
	00 00		 npad	 7
$LL193@GetScaleAl:
  000a0	8a 01		 mov	 al, BYTE PTR [ecx]
  000a2	41		 inc	 ecx
  000a3	84 c0		 test	 al, al
  000a5	75 f9		 jne	 SHORT $LL193@GetScaleAl
  000a7	2b ca		 sub	 ecx, edx
  000a9	89 8d ac fe ff
	ff		 mov	 DWORD PTR _nGridType$1$[ebp], ecx

; 405  : 
; 406  : 	// 분/틱차트에서의 일자구분선 개별옵션 - onlyojt
; 407  : 	char szDAY_GUBUN[ 10], szWEEK_GUBUN[ 10],szMON_GUBUN[ 10],szYEAR_GUBUN[ 10];
; 408  : 	char szDayCheck[10],  szDayWeekCheck[10], szDayMonCheck[10], szDayYearCheck[10];
; 409  : 	char szWeekMonCheck[10],  szWeekYearCheck[10],  szMonYearCheck[10];
; 410  : 	char szDayWidth[10],szWeekWidth[10],szMonWidth[10],szYearWidth[10];
; 411  : 	CString strDayColor, strWeekColor, strMonColor, strYearColor;

  000af	8d 8d 08 ff ff
	ff		 lea	 ecx, DWORD PTR _strDayColor$[ebp]
  000b5	ff 15 00 00 00
	00		 call	 DWORD PTR __imp_??0?$CStringT@DV?$StrTraitMFC_DLL@DV?$ChTraitsCRT@D@ATL@@@@@ATL@@QAE@XZ
  000bb	8d 8d 0c ff ff
	ff		 lea	 ecx, DWORD PTR _strWeekColor$[ebp]
  000c1	ff 15 00 00 00
	00		 call	 DWORD PTR __imp_??0?$CStringT@DV?$StrTraitMFC_DLL@DV?$ChTraitsCRT@D@ATL@@@@@ATL@@QAE@XZ
  000c7	8d 8d 10 ff ff
	ff		 lea	 ecx, DWORD PTR _strMonColor$[ebp]
  000cd	ff 15 00 00 00
	00		 call	 DWORD PTR __imp_??0?$CStringT@DV?$StrTraitMFC_DLL@DV?$ChTraitsCRT@D@ATL@@@@@ATL@@QAE@XZ
  000d3	8d 8d 14 ff ff
	ff		 lea	 ecx, DWORD PTR _strYearColor$[ebp]
  000d9	ff 15 00 00 00
	00		 call	 DWORD PTR __imp_??0?$CStringT@DV?$StrTraitMFC_DLL@DV?$ChTraitsCRT@D@ATL@@@@@ATL@@QAE@XZ

; 412  : 	//KHD : 스케일 가로/ 스케일 가로 저장 
; 413  : //	char szGaro_Width[10], szSero_Width[10];
; 414  : 
; 415  : 	// 시간구분선 종류 저장
; 416  : 	itoa(m_nGridTypeDay , szDAY_GUBUN, 10);

  000df	6a 0a		 push	 10			; 0000000aH
  000e1	8d 85 54 ff ff
	ff		 lea	 eax, DWORD PTR _szDAY_GUBUN$[ebp]
  000e7	c6 45 fc 04	 mov	 BYTE PTR __$EHRec$[ebp+8], 4
  000eb	50		 push	 eax
  000ec	ff 77 20	 push	 DWORD PTR [edi+32]
  000ef	ff d3		 call	 ebx

; 417  : 	itoa(m_nGridTypeWeek , szWEEK_GUBUN, 10);

  000f1	6a 0a		 push	 10			; 0000000aH
  000f3	8d 45 cc	 lea	 eax, DWORD PTR _szWEEK_GUBUN$[ebp]
  000f6	50		 push	 eax
  000f7	ff 77 24	 push	 DWORD PTR [edi+36]
  000fa	ff d3		 call	 ebx

; 418  : 	itoa(m_nGridTypeMon, szMON_GUBUN, 10);

  000fc	6a 0a		 push	 10			; 0000000aH
  000fe	8d 45 e4	 lea	 eax, DWORD PTR _szMON_GUBUN$[ebp]
  00101	50		 push	 eax
  00102	ff 77 28	 push	 DWORD PTR [edi+40]
  00105	ff d3		 call	 ebx

; 419  : 	itoa(m_nGridTypeYear, szYEAR_GUBUN, 10);

  00107	6a 0a		 push	 10			; 0000000aH
  00109	8d 85 3c ff ff
	ff		 lea	 eax, DWORD PTR _szYEAR_GUBUN$[ebp]
  0010f	50		 push	 eax
  00110	ff 77 2c	 push	 DWORD PTR [edi+44]
  00113	ff d3		 call	 ebx

; 420  : 
; 421  : 	// 시간구분선 사용여부 저장 
; 422  : 	itoa(m_bOn_MINTICK_DAY , szDayCheck, 10);

  00115	6a 0a		 push	 10			; 0000000aH
  00117	8d 85 48 ff ff
	ff		 lea	 eax, DWORD PTR _szDayCheck$[ebp]
  0011d	50		 push	 eax
  0011e	ff 77 30	 push	 DWORD PTR [edi+48]
  00121	ff d3		 call	 ebx

; 423  : 	itoa(m_bOn_DAYCHART_WEEK , szDayWeekCheck, 10);

  00123	6a 0a		 push	 10			; 0000000aH
  00125	8d 85 60 ff ff
	ff		 lea	 eax, DWORD PTR _szDayWeekCheck$[ebp]
  0012b	50		 push	 eax
  0012c	ff 77 34	 push	 DWORD PTR [edi+52]
  0012f	ff d3		 call	 ebx
  00131	83 c4 48	 add	 esp, 72			; 00000048H

; 424  : 	itoa(m_bOn_DAYCHART_MON , szDayMonCheck, 10);

  00134	8d 85 6c ff ff
	ff		 lea	 eax, DWORD PTR _szDayMonCheck$[ebp]
  0013a	6a 0a		 push	 10			; 0000000aH
  0013c	50		 push	 eax
  0013d	ff 77 38	 push	 DWORD PTR [edi+56]
  00140	ff d3		 call	 ebx

; 425  : 	itoa(m_bOn_DAYCHART_YEAR , szDayYearCheck, 10);

  00142	6a 0a		 push	 10			; 0000000aH
  00144	8d 85 78 ff ff
	ff		 lea	 eax, DWORD PTR _szDayYearCheck$[ebp]
  0014a	50		 push	 eax
  0014b	ff 77 3c	 push	 DWORD PTR [edi+60]
  0014e	ff d3		 call	 ebx

; 426  : 	itoa(m_bOn_WEEKCHART_MON , szWeekMonCheck, 10);

  00150	6a 0a		 push	 10			; 0000000aH
  00152	8d 45 84	 lea	 eax, DWORD PTR _szWeekMonCheck$[ebp]
  00155	50		 push	 eax
  00156	ff 77 40	 push	 DWORD PTR [edi+64]
  00159	ff d3		 call	 ebx

; 427  : 	itoa(m_bOn_WEEKCHART_YEAR , szWeekYearCheck, 10);

  0015b	6a 0a		 push	 10			; 0000000aH
  0015d	8d 45 90	 lea	 eax, DWORD PTR _szWeekYearCheck$[ebp]
  00160	50		 push	 eax
  00161	ff 77 44	 push	 DWORD PTR [edi+68]
  00164	ff d3		 call	 ebx

; 428  : 	itoa(m_bOn_MONCHART_YEAR , szMonYearCheck, 10);

  00166	6a 0a		 push	 10			; 0000000aH
  00168	8d 45 9c	 lea	 eax, DWORD PTR _szMonYearCheck$[ebp]
  0016b	50		 push	 eax
  0016c	ff 77 48	 push	 DWORD PTR [edi+72]
  0016f	ff d3		 call	 ebx

; 429  : 
; 430  : 	// 시간구분선 굵기 저장 
; 431  : 	itoa(m_nGridWidth_Day , szDayWidth, 10);

  00171	6a 0a		 push	 10			; 0000000aH
  00173	8d 45 a8	 lea	 eax, DWORD PTR _szDayWidth$[ebp]
  00176	50		 push	 eax
  00177	0f b7 47 4c	 movzx	 eax, WORD PTR [edi+76]
  0017b	50		 push	 eax
  0017c	ff d3		 call	 ebx
  0017e	83 c4 48	 add	 esp, 72			; 00000048H

; 432  : 	itoa(m_nGridWidth_Week , szWeekWidth, 10);

  00181	8d 45 d8	 lea	 eax, DWORD PTR _szWeekWidth$[ebp]
  00184	6a 0a		 push	 10			; 0000000aH
  00186	50		 push	 eax
  00187	0f b7 47 4e	 movzx	 eax, WORD PTR [edi+78]
  0018b	50		 push	 eax
  0018c	ff d3		 call	 ebx

; 433  : 	itoa(m_nGridWidth_Mon , szMonWidth, 10);

  0018e	6a 0a		 push	 10			; 0000000aH
  00190	8d 45 b4	 lea	 eax, DWORD PTR _szMonWidth$[ebp]
  00193	50		 push	 eax
  00194	0f b7 47 50	 movzx	 eax, WORD PTR [edi+80]
  00198	50		 push	 eax
  00199	ff d3		 call	 ebx

; 434  : 	itoa(m_nGridWidth_Year , szYearWidth, 10);

  0019b	6a 0a		 push	 10			; 0000000aH
  0019d	8d 45 c0	 lea	 eax, DWORD PTR _szYearWidth$[ebp]
  001a0	50		 push	 eax
  001a1	0f b7 47 52	 movzx	 eax, WORD PTR [edi+82]
  001a5	50		 push	 eax
  001a6	ff d3		 call	 ebx

; 435  : 
; 436  : 	strDayColor.Format(_T("%ld"), m_clrDailyDivGridColor);

  001a8	ff 77 54	 push	 DWORD PTR [edi+84]
  001ab	8b 35 00 00 00
	00		 mov	 esi, DWORD PTR __imp_?Format@?$CStringT@DV?$StrTraitMFC_DLL@DV?$ChTraitsCRT@D@ATL@@@@@ATL@@QAAXPBDZZ
  001b1	8d 85 08 ff ff
	ff		 lea	 eax, DWORD PTR _strDayColor$[ebp]
  001b7	68 00 00 00 00	 push	 OFFSET ??_C@_03JALODAI@?$CFld@
  001bc	50		 push	 eax
  001bd	ff d6		 call	 esi

; 437  : 	strWeekColor.Format(_T("%ld"), m_clrWeekDivGridColor);

  001bf	ff 77 58	 push	 DWORD PTR [edi+88]
  001c2	8d 85 0c ff ff
	ff		 lea	 eax, DWORD PTR _strWeekColor$[ebp]
  001c8	68 00 00 00 00	 push	 OFFSET ??_C@_03JALODAI@?$CFld@
  001cd	50		 push	 eax
  001ce	ff d6		 call	 esi

; 438  : 	strMonColor.Format(_T("%ld"), m_clrMonDivGridColor);

  001d0	ff 77 5c	 push	 DWORD PTR [edi+92]
  001d3	8d 85 10 ff ff
	ff		 lea	 eax, DWORD PTR _strMonColor$[ebp]
  001d9	68 00 00 00 00	 push	 OFFSET ??_C@_03JALODAI@?$CFld@
  001de	50		 push	 eax
  001df	ff d6		 call	 esi
  001e1	83 c4 48	 add	 esp, 72			; 00000048H

; 439  : 	strYearColor.Format(_T("%ld"), m_clrYearDivGridColor);

  001e4	8d 85 14 ff ff
	ff		 lea	 eax, DWORD PTR _strYearColor$[ebp]
  001ea	ff 77 60	 push	 DWORD PTR [edi+96]
  001ed	68 00 00 00 00	 push	 OFFSET ??_C@_03JALODAI@?$CFld@
  001f2	50		 push	 eax
  001f3	ff d6		 call	 esi
  001f5	83 c4 0c	 add	 esp, 12			; 0000000cH

; 50   : 	return m_strDateCompart;

  001f8	8d 47 10	 lea	 eax, DWORD PTR [edi+16]
  001fb	8d 8d 04 ff ff
	ff		 lea	 ecx, DWORD PTR _strDateCompart$[ebp]
  00201	50		 push	 eax
  00202	ff 15 00 00 00
	00		 call	 DWORD PTR __imp_??0?$CStringT@DV?$StrTraitMFC_DLL@DV?$ChTraitsCRT@D@ATL@@@@@ATL@@QAE@ABV01@@Z

; 55   : 	return m_strTimeCompart;

  00208	8d 47 14	 lea	 eax, DWORD PTR [edi+20]

; 440  : 
; 441  : 	//Scale 가로/세로
; 442  : //	itoa(m_nGrid_Horz_Width , szGaro_Width, 10);//가로 
; 443  : //	itoa(m_nGrid_Vert_Width , szSero_Width, 10);//세로
; 444  : 	//END
; 445  : 
; 446  : 	CString strDateCompart = m_scaleCompart.GetDateCompart();

  0020b	c6 45 fc 05	 mov	 BYTE PTR __$EHRec$[ebp+8], 5

; 55   : 	return m_strTimeCompart;

  0020f	50		 push	 eax
  00210	8d 8d 00 ff ff
	ff		 lea	 ecx, DWORD PTR _strTimeCompart$[ebp]
  00216	ff 15 00 00 00
	00		 call	 DWORD PTR __imp_??0?$CStringT@DV?$StrTraitMFC_DLL@DV?$ChTraitsCRT@D@ATL@@@@@ATL@@QAE@ABV01@@Z

; 447  : 	CString strTimeCompart = m_scaleCompart.GetTimeCompart();
; 448  : 
; 449  : 	char szScaleTextType[ 10];
; 450  : 	itoa( m_scaleCompart.GetScaleTextType(), szScaleTextType, 10);

  0021c	6a 0a		 push	 10			; 0000000aH
  0021e	8d 85 18 ff ff
	ff		 lea	 eax, DWORD PTR _szScaleTextType$[ebp]
  00224	c6 45 fc 06	 mov	 BYTE PTR __$EHRec$[ebp+8], 6
  00228	50		 push	 eax
  00229	ff 77 18	 push	 DWORD PTR [edi+24]
  0022c	ff d3		 call	 ebx

; 451  : 	int nScaleTextType = strlen( szScaleTextType);

  0022e	8d 8d 18 ff ff
	ff		 lea	 ecx, DWORD PTR _szScaleTextType$[ebp]
  00234	83 c4 0c	 add	 esp, 12			; 0000000cH
  00237	8d 51 01	 lea	 edx, DWORD PTR [ecx+1]
  0023a	66 0f 1f 44 00
	00		 npad	 6
$LL194@GetScaleAl:
  00240	8a 01		 mov	 al, BYTE PTR [ecx]
  00242	41		 inc	 ecx
  00243	84 c0		 test	 al, al
  00245	75 f9		 jne	 SHORT $LL194@GetScaleAl
; File C:\Program Files (x86)\Microsoft Visual Studio\2019\Community\VC\Tools\MSVC\14.29.30133\atlmfc\include\atlsimpstr.h

; 519  : 		return( GetData()->nDataLength );

  00247	8b 85 fc fe ff
	ff		 mov	 eax, DWORD PTR _strScaleData$[ebp]
; File D:\git\src\IBK\IBK_DRFN\ProjSrc\SrcChartEx\ChartOCX\ScaleDraw\ScaleBaseData.cpp

; 451  : 	int nScaleTextType = strlen( szScaleTextType);

  0024d	2b ca		 sub	 ecx, edx
  0024f	89 8d f8 fe ff
	ff		 mov	 DWORD PTR _nScaleTextType$1$[ebp], ecx

; 461  : 		nHorzScaleDataLen += strlen( szDAY_GUBUN);			// 시간구분선 종류 저장

  00255	8d 8d 54 ff ff
	ff		 lea	 ecx, DWORD PTR _szDAY_GUBUN$[ebp]
  0025b	8d 51 01	 lea	 edx, DWORD PTR [ecx+1]
; File C:\Program Files (x86)\Microsoft Visual Studio\2019\Community\VC\Tools\MSVC\14.29.30133\atlmfc\include\atlsimpstr.h

; 519  : 		return( GetData()->nDataLength );

  0025e	8b 40 f4	 mov	 eax, DWORD PTR [eax-12]
  00261	89 85 ec fe ff
	ff		 mov	 DWORD PTR $T3[ebp], eax
$LL195@GetScaleAl:
; File D:\git\src\IBK\IBK_DRFN\ProjSrc\SrcChartEx\ChartOCX\ScaleDraw\ScaleBaseData.cpp

; 461  : 		nHorzScaleDataLen += strlen( szDAY_GUBUN);			// 시간구분선 종류 저장

  00267	8a 01		 mov	 al, BYTE PTR [ecx]
  00269	41		 inc	 ecx
  0026a	84 c0		 test	 al, al
  0026c	75 f9		 jne	 SHORT $LL195@GetScaleAl
  0026e	2b ca		 sub	 ecx, edx
  00270	89 8d e8 fe ff
	ff		 mov	 DWORD PTR tv1526[ebp], ecx

; 462  : 		nHorzScaleDataLen += strlen( szWEEK_GUBUN);

  00276	8d 4d cc	 lea	 ecx, DWORD PTR _szWEEK_GUBUN$[ebp]
  00279	8d 51 01	 lea	 edx, DWORD PTR [ecx+1]
  0027c	0f 1f 40 00	 npad	 4
$LL196@GetScaleAl:
  00280	8a 01		 mov	 al, BYTE PTR [ecx]
  00282	41		 inc	 ecx
  00283	84 c0		 test	 al, al
  00285	75 f9		 jne	 SHORT $LL196@GetScaleAl
  00287	2b ca		 sub	 ecx, edx
  00289	89 8d e4 fe ff
	ff		 mov	 DWORD PTR tv1524[ebp], ecx

; 463  : 		nHorzScaleDataLen += strlen( szMON_GUBUN);

  0028f	8d 4d e4	 lea	 ecx, DWORD PTR _szMON_GUBUN$[ebp]
  00292	8d 51 01	 lea	 edx, DWORD PTR [ecx+1]
$LL197@GetScaleAl:
  00295	8a 01		 mov	 al, BYTE PTR [ecx]
  00297	41		 inc	 ecx
  00298	84 c0		 test	 al, al
  0029a	75 f9		 jne	 SHORT $LL197@GetScaleAl
  0029c	2b ca		 sub	 ecx, edx
  0029e	89 8d e0 fe ff
	ff		 mov	 DWORD PTR tv1522[ebp], ecx

; 464  : 		nHorzScaleDataLen += strlen( szYEAR_GUBUN);

  002a4	8d 8d 3c ff ff
	ff		 lea	 ecx, DWORD PTR _szYEAR_GUBUN$[ebp]
  002aa	8d 51 01	 lea	 edx, DWORD PTR [ecx+1]
  002ad	0f 1f 00	 npad	 3
$LL198@GetScaleAl:
  002b0	8a 01		 mov	 al, BYTE PTR [ecx]
  002b2	41		 inc	 ecx
  002b3	84 c0		 test	 al, al
  002b5	75 f9		 jne	 SHORT $LL198@GetScaleAl
  002b7	2b ca		 sub	 ecx, edx
  002b9	89 8d dc fe ff
	ff		 mov	 DWORD PTR tv1520[ebp], ecx

; 465  : 		nHorzScaleDataLen += strlen( szDayCheck);			// 시간구분선 사용여부 저장

  002bf	8d 8d 48 ff ff
	ff		 lea	 ecx, DWORD PTR _szDayCheck$[ebp]
  002c5	8d 51 01	 lea	 edx, DWORD PTR [ecx+1]
$LL199@GetScaleAl:
  002c8	8a 01		 mov	 al, BYTE PTR [ecx]
  002ca	41		 inc	 ecx
  002cb	84 c0		 test	 al, al
  002cd	75 f9		 jne	 SHORT $LL199@GetScaleAl
  002cf	2b ca		 sub	 ecx, edx
  002d1	89 8d bc fe ff
	ff		 mov	 DWORD PTR tv1518[ebp], ecx

; 466  : 		nHorzScaleDataLen += strlen( szDayWeekCheck);

  002d7	8d 8d 60 ff ff
	ff		 lea	 ecx, DWORD PTR _szDayWeekCheck$[ebp]
  002dd	8d 51 01	 lea	 edx, DWORD PTR [ecx+1]
$LL200@GetScaleAl:
  002e0	8a 01		 mov	 al, BYTE PTR [ecx]
  002e2	41		 inc	 ecx
  002e3	84 c0		 test	 al, al
  002e5	75 f9		 jne	 SHORT $LL200@GetScaleAl
  002e7	2b ca		 sub	 ecx, edx
  002e9	89 8d d8 fe ff
	ff		 mov	 DWORD PTR tv1516[ebp], ecx

; 467  : 		nHorzScaleDataLen += strlen( szDayMonCheck);

  002ef	8d 8d 6c ff ff
	ff		 lea	 ecx, DWORD PTR _szDayMonCheck$[ebp]
  002f5	8d 51 01	 lea	 edx, DWORD PTR [ecx+1]
$LL201@GetScaleAl:
  002f8	8a 01		 mov	 al, BYTE PTR [ecx]
  002fa	41		 inc	 ecx
  002fb	84 c0		 test	 al, al
  002fd	75 f9		 jne	 SHORT $LL201@GetScaleAl
  002ff	2b ca		 sub	 ecx, edx
  00301	89 8d d4 fe ff
	ff		 mov	 DWORD PTR tv1514[ebp], ecx

; 468  : 		nHorzScaleDataLen += strlen( szDayYearCheck);

  00307	8d 8d 78 ff ff
	ff		 lea	 ecx, DWORD PTR _szDayYearCheck$[ebp]
  0030d	8d 51 01	 lea	 edx, DWORD PTR [ecx+1]
$LL202@GetScaleAl:
  00310	8a 01		 mov	 al, BYTE PTR [ecx]
  00312	41		 inc	 ecx
  00313	84 c0		 test	 al, al
  00315	75 f9		 jne	 SHORT $LL202@GetScaleAl
  00317	2b ca		 sub	 ecx, edx
  00319	89 8d d0 fe ff
	ff		 mov	 DWORD PTR tv1512[ebp], ecx

; 469  : 		nHorzScaleDataLen += strlen( szWeekMonCheck);

  0031f	8d 4d 84	 lea	 ecx, DWORD PTR _szWeekMonCheck$[ebp]
  00322	8d 51 01	 lea	 edx, DWORD PTR [ecx+1]
$LL203@GetScaleAl:
  00325	8a 01		 mov	 al, BYTE PTR [ecx]
  00327	41		 inc	 ecx
  00328	84 c0		 test	 al, al
  0032a	75 f9		 jne	 SHORT $LL203@GetScaleAl
  0032c	2b ca		 sub	 ecx, edx
  0032e	89 8d cc fe ff
	ff		 mov	 DWORD PTR tv1510[ebp], ecx

; 470  : 		nHorzScaleDataLen += strlen( szWeekYearCheck);

  00334	8d 4d 90	 lea	 ecx, DWORD PTR _szWeekYearCheck$[ebp]
  00337	8d 51 01	 lea	 edx, DWORD PTR [ecx+1]
  0033a	66 0f 1f 44 00
	00		 npad	 6
$LL204@GetScaleAl:
  00340	8a 01		 mov	 al, BYTE PTR [ecx]
  00342	41		 inc	 ecx
  00343	84 c0		 test	 al, al
  00345	75 f9		 jne	 SHORT $LL204@GetScaleAl
  00347	2b ca		 sub	 ecx, edx
  00349	89 8d c8 fe ff
	ff		 mov	 DWORD PTR tv1508[ebp], ecx

; 471  : 		nHorzScaleDataLen += strlen( szMonYearCheck);

  0034f	8d 4d 9c	 lea	 ecx, DWORD PTR _szMonYearCheck$[ebp]
  00352	8d 51 01	 lea	 edx, DWORD PTR [ecx+1]
$LL205@GetScaleAl:
  00355	8a 01		 mov	 al, BYTE PTR [ecx]
  00357	41		 inc	 ecx
  00358	84 c0		 test	 al, al
  0035a	75 f9		 jne	 SHORT $LL205@GetScaleAl
  0035c	2b ca		 sub	 ecx, edx
  0035e	89 8d c4 fe ff
	ff		 mov	 DWORD PTR tv1506[ebp], ecx

; 472  : 		nHorzScaleDataLen += strlen( szDayWidth);			// 시간구분선 굵기 저장

  00364	8d 4d a8	 lea	 ecx, DWORD PTR _szDayWidth$[ebp]
  00367	8d 51 01	 lea	 edx, DWORD PTR [ecx+1]
  0036a	66 0f 1f 44 00
	00		 npad	 6
$LL206@GetScaleAl:
  00370	8a 01		 mov	 al, BYTE PTR [ecx]
  00372	41		 inc	 ecx
  00373	84 c0		 test	 al, al
  00375	75 f9		 jne	 SHORT $LL206@GetScaleAl
  00377	2b ca		 sub	 ecx, edx
  00379	89 8d c0 fe ff
	ff		 mov	 DWORD PTR tv1504[ebp], ecx

; 473  : 		nHorzScaleDataLen += strlen( szWeekWidth);

  0037f	8d 4d d8	 lea	 ecx, DWORD PTR _szWeekWidth$[ebp]
  00382	8d 51 01	 lea	 edx, DWORD PTR [ecx+1]
$LL207@GetScaleAl:
  00385	8a 01		 mov	 al, BYTE PTR [ecx]
  00387	41		 inc	 ecx
  00388	84 c0		 test	 al, al
  0038a	75 f9		 jne	 SHORT $LL207@GetScaleAl
  0038c	2b ca		 sub	 ecx, edx

; 474  : 		nHorzScaleDataLen += strlen( szMonWidth);

  0038e	8d 75 b4	 lea	 esi, DWORD PTR _szMonWidth$[ebp]
  00391	89 8d b8 fe ff
	ff		 mov	 DWORD PTR tv1502[ebp], ecx
  00397	8d 4e 01	 lea	 ecx, DWORD PTR [esi+1]
  0039a	66 0f 1f 44 00
	00		 npad	 6
$LL208@GetScaleAl:
  003a0	8a 06		 mov	 al, BYTE PTR [esi]
  003a2	46		 inc	 esi
  003a3	84 c0		 test	 al, al
  003a5	75 f9		 jne	 SHORT $LL208@GetScaleAl
  003a7	2b f1		 sub	 esi, ecx

; 475  : 		nHorzScaleDataLen += strlen( szYearWidth);

  003a9	8d 4d c0	 lea	 ecx, DWORD PTR _szYearWidth$[ebp]
  003ac	8d 51 01	 lea	 edx, DWORD PTR [ecx+1]
  003af	90		 npad	 1
$LL209@GetScaleAl:
  003b0	8a 01		 mov	 al, BYTE PTR [ecx]
  003b2	41		 inc	 ecx
  003b3	84 c0		 test	 al, al
  003b5	75 f9		 jne	 SHORT $LL209@GetScaleAl
; File C:\Program Files (x86)\Microsoft Visual Studio\2019\Community\VC\Tools\MSVC\14.29.30133\atlmfc\include\atlsimpstr.h

; 519  : 		return( GetData()->nDataLength );

  003b7	8b 85 08 ff ff
	ff		 mov	 eax, DWORD PTR _strDayColor$[ebp]
; File D:\git\src\IBK\IBK_DRFN\ProjSrc\SrcChartEx\ChartOCX\ScaleDraw\ScaleBaseData.cpp

; 475  : 		nHorzScaleDataLen += strlen( szYearWidth);

  003bd	2b ca		 sub	 ecx, edx
  003bf	89 8d b4 fe ff
	ff		 mov	 DWORD PTR tv1498[ebp], ecx

; 490  : 	nHorzScaleDataLen++;								// ';'

  003c5	03 b5 b4 fe ff
	ff		 add	 esi, DWORD PTR tv1498[ebp]
  003cb	03 b5 b8 fe ff
	ff		 add	 esi, DWORD PTR tv1502[ebp]
  003d1	03 b5 c0 fe ff
	ff		 add	 esi, DWORD PTR tv1504[ebp]
  003d7	03 b5 c4 fe ff
	ff		 add	 esi, DWORD PTR tv1506[ebp]
; File C:\Program Files (x86)\Microsoft Visual Studio\2019\Community\VC\Tools\MSVC\14.29.30133\atlmfc\include\atlsimpstr.h

; 519  : 		return( GetData()->nDataLength );

  003dd	8b 40 f4	 mov	 eax, DWORD PTR [eax-12]
; File D:\git\src\IBK\IBK_DRFN\ProjSrc\SrcChartEx\ChartOCX\ScaleDraw\ScaleBaseData.cpp

; 490  : 	nHorzScaleDataLen++;								// ';'

  003e0	03 b5 c8 fe ff
	ff		 add	 esi, DWORD PTR tv1508[ebp]
  003e6	03 b5 cc fe ff
	ff		 add	 esi, DWORD PTR tv1510[ebp]
  003ec	03 b5 d0 fe ff
	ff		 add	 esi, DWORD PTR tv1512[ebp]
  003f2	03 b5 d4 fe ff
	ff		 add	 esi, DWORD PTR tv1514[ebp]
  003f8	03 b5 d8 fe ff
	ff		 add	 esi, DWORD PTR tv1516[ebp]
  003fe	03 b5 bc fe ff
	ff		 add	 esi, DWORD PTR tv1518[ebp]
  00404	03 b5 dc fe ff
	ff		 add	 esi, DWORD PTR tv1520[ebp]
  0040a	03 b5 e0 fe ff
	ff		 add	 esi, DWORD PTR tv1522[ebp]
  00410	03 b5 e4 fe ff
	ff		 add	 esi, DWORD PTR tv1524[ebp]
  00416	03 b5 e8 fe ff
	ff		 add	 esi, DWORD PTR tv1526[ebp]
; File C:\Program Files (x86)\Microsoft Visual Studio\2019\Community\VC\Tools\MSVC\14.29.30133\atlmfc\include\atlsimpstr.h

; 519  : 		return( GetData()->nDataLength );

  0041c	89 85 b0 fe ff
	ff		 mov	 DWORD PTR $T2[ebp], eax
  00422	8b 85 0c ff ff
	ff		 mov	 eax, DWORD PTR _strWeekColor$[ebp]
  00428	8b 58 f4	 mov	 ebx, DWORD PTR [eax-12]
  0042b	8b 85 10 ff ff
	ff		 mov	 eax, DWORD PTR _strMonColor$[ebp]
  00431	8b 78 f4	 mov	 edi, DWORD PTR [eax-12]
  00434	8b 85 14 ff ff
	ff		 mov	 eax, DWORD PTR _strYearColor$[ebp]
  0043a	8b 50 f4	 mov	 edx, DWORD PTR [eax-12]
  0043d	8b 85 04 ff ff
	ff		 mov	 eax, DWORD PTR _strDateCompart$[ebp]
  00443	8b 48 f4	 mov	 ecx, DWORD PTR [eax-12]
; File D:\git\src\IBK\IBK_DRFN\ProjSrc\SrcChartEx\ChartOCX\ScaleDraw\ScaleBaseData.cpp

; 490  : 	nHorzScaleDataLen++;								// ';'

  00446	8b 85 00 ff ff
	ff		 mov	 eax, DWORD PTR _strTimeCompart$[ebp]
  0044c	03 70 f4	 add	 esi, DWORD PTR [eax-12]
  0044f	03 f1		 add	 esi, ecx

; 491  : 
; 492  : 	char *szHorzScaleData = p_strHorzScaleData.GetBufferSetLength( nHorzScaleDataLen);

  00451	8b 8d f0 fe ff
	ff		 mov	 ecx, DWORD PTR _p_strHorzScaleData$GSCopy$1$[ebp]
  00457	03 f2		 add	 esi, edx
  00459	03 f7		 add	 esi, edi
  0045b	8b bd f4 fe ff
	ff		 mov	 edi, DWORD PTR _nPosition$1$[ebp]
  00461	03 f3		 add	 esi, ebx
  00463	8b 9d ac fe ff
	ff		 mov	 ebx, DWORD PTR _nGridType$1$[ebp]
  00469	03 b5 ec fe ff
	ff		 add	 esi, DWORD PTR $T3[ebp]
  0046f	03 b5 b0 fe ff
	ff		 add	 esi, DWORD PTR $T2[ebp]
  00475	03 b5 f8 fe ff
	ff		 add	 esi, DWORD PTR _nScaleTextType$1$[ebp]
  0047b	8d 47 0a	 lea	 eax, DWORD PTR [edi+10]
  0047e	03 f3		 add	 esi, ebx
  00480	03 c6		 add	 eax, esi
  00482	50		 push	 eax
  00483	ff 15 00 00 00
	00		 call	 DWORD PTR __imp_?GetBufferSetLength@?$CSimpleStringT@D$00@ATL@@QAEPADH@Z
; File C:\Program Files (x86)\Microsoft Visual Studio\2019\Community\VC\Tools\MSVC\14.29.30133\atlmfc\include\atlsimpstr.h

; 377  : 		return( m_pszData );

  00489	8b 95 fc fe ff
	ff		 mov	 edx, DWORD PTR _strScaleData$[ebp]
; File D:\git\src\IBK\IBK_DRFN\ProjSrc\SrcChartEx\ChartOCX\ScaleDraw\ScaleBaseData.cpp

; 494  : 	strcpy( szHorzScaleData, strScaleData);

  0048f	8b f0		 mov	 esi, eax
$LL3@GetScaleAl:
  00491	8a 0a		 mov	 cl, BYTE PTR [edx]
  00493	8d 52 01	 lea	 edx, DWORD PTR [edx+1]
  00496	88 0e		 mov	 BYTE PTR [esi], cl
  00498	8d 76 01	 lea	 esi, DWORD PTR [esi+1]
  0049b	84 c9		 test	 cl, cl
  0049d	75 f2		 jne	 SHORT $LL3@GetScaleAl

; 495  : 	szHorzScaleData += strScaleData.GetLength();

  0049f	8b 8d fc fe ff
	ff		 mov	 ecx, DWORD PTR _strScaleData$[ebp]

; 496  : 	*szHorzScaleData++ = ';';
; 497  : 
; 498  : 	strcpy( szHorzScaleData, szPosition);

  004a5	8d 95 30 ff ff
	ff		 lea	 edx, DWORD PTR _szPosition$[ebp]
  004ab	03 41 f4	 add	 eax, DWORD PTR [ecx-12]
  004ae	8b ca		 mov	 ecx, edx
  004b0	c6 00 3b	 mov	 BYTE PTR [eax], 59	; 0000003bH
  004b3	40		 inc	 eax
  004b4	8b f0		 mov	 esi, eax
  004b6	2b f1		 sub	 esi, ecx
  004b8	0f 1f 84 00 00
	00 00 00	 npad	 8
$LL4@GetScaleAl:
  004c0	8a 0a		 mov	 cl, BYTE PTR [edx]
  004c2	8d 52 01	 lea	 edx, DWORD PTR [edx+1]
  004c5	88 4c 16 ff	 mov	 BYTE PTR [esi+edx-1], cl
  004c9	84 c9		 test	 cl, cl
  004cb	75 f3		 jne	 SHORT $LL4@GetScaleAl

; 499  : 	szHorzScaleData += nPosition;

  004cd	03 c7		 add	 eax, edi

; 500  : 	*szHorzScaleData++ = ';';
; 501  : 
; 502  : 	strcpy( szHorzScaleData, szGridType);

  004cf	8d 95 24 ff ff
	ff		 lea	 edx, DWORD PTR _szGridType$[ebp]
  004d5	8b ca		 mov	 ecx, edx
  004d7	c6 00 3b	 mov	 BYTE PTR [eax], 59	; 0000003bH
  004da	40		 inc	 eax
  004db	8b f0		 mov	 esi, eax
  004dd	2b f1		 sub	 esi, ecx
  004df	90		 npad	 1
$LL5@GetScaleAl:
  004e0	8a 0a		 mov	 cl, BYTE PTR [edx]
  004e2	8d 52 01	 lea	 edx, DWORD PTR [edx+1]
  004e5	88 4c 16 ff	 mov	 BYTE PTR [esi+edx-1], cl
  004e9	84 c9		 test	 cl, cl
  004eb	75 f3		 jne	 SHORT $LL5@GetScaleAl

; 503  : 	szHorzScaleData += nGridType;

  004ed	03 c3		 add	 eax, ebx

; 504  : 	{
; 505  : 		//KHD : 분/틱차트에서의 일자구분선 개별옵션 -: 그리드타입4자리 
; 506  : 		strcpy( szHorzScaleData, szDAY_GUBUN);			szHorzScaleData += strlen( szDAY_GUBUN);

  004ef	8d 95 54 ff ff
	ff		 lea	 edx, DWORD PTR _szDAY_GUBUN$[ebp]
  004f5	8b f0		 mov	 esi, eax
  004f7	8b ca		 mov	 ecx, edx
  004f9	2b f1		 sub	 esi, ecx
  004fb	0f 1f 44 00 00	 npad	 5
$LL6@GetScaleAl:
  00500	8a 0a		 mov	 cl, BYTE PTR [edx]
  00502	8d 52 01	 lea	 edx, DWORD PTR [edx+1]
  00505	88 4c 16 ff	 mov	 BYTE PTR [esi+edx-1], cl
  00509	84 c9		 test	 cl, cl
  0050b	75 f3		 jne	 SHORT $LL6@GetScaleAl
  0050d	8d 95 54 ff ff
	ff		 lea	 edx, DWORD PTR _szDAY_GUBUN$[ebp]
  00513	8d 72 01	 lea	 esi, DWORD PTR [edx+1]
$LL210@GetScaleAl:
  00516	8a 0a		 mov	 cl, BYTE PTR [edx]
  00518	42		 inc	 edx
  00519	84 c9		 test	 cl, cl
  0051b	75 f9		 jne	 SHORT $LL210@GetScaleAl
  0051d	2b d6		 sub	 edx, esi
  0051f	03 c2		 add	 eax, edx

; 507  : 		strcpy( szHorzScaleData, szWEEK_GUBUN);			szHorzScaleData += strlen( szWEEK_GUBUN);

  00521	8d 55 cc	 lea	 edx, DWORD PTR _szWEEK_GUBUN$[ebp]
  00524	8b f0		 mov	 esi, eax
  00526	8b ca		 mov	 ecx, edx
  00528	2b f1		 sub	 esi, ecx
  0052a	66 0f 1f 44 00
	00		 npad	 6
$LL7@GetScaleAl:
  00530	8a 0a		 mov	 cl, BYTE PTR [edx]
  00532	8d 52 01	 lea	 edx, DWORD PTR [edx+1]
  00535	88 4c 16 ff	 mov	 BYTE PTR [esi+edx-1], cl
  00539	84 c9		 test	 cl, cl
  0053b	75 f3		 jne	 SHORT $LL7@GetScaleAl
  0053d	8d 55 cc	 lea	 edx, DWORD PTR _szWEEK_GUBUN$[ebp]
  00540	8d 72 01	 lea	 esi, DWORD PTR [edx+1]
$LL211@GetScaleAl:
  00543	8a 0a		 mov	 cl, BYTE PTR [edx]
  00545	42		 inc	 edx
  00546	84 c9		 test	 cl, cl
  00548	75 f9		 jne	 SHORT $LL211@GetScaleAl
  0054a	2b d6		 sub	 edx, esi
  0054c	03 c2		 add	 eax, edx

; 508  : 		strcpy( szHorzScaleData, szMON_GUBUN);			szHorzScaleData += strlen( szMON_GUBUN);

  0054e	8d 55 e4	 lea	 edx, DWORD PTR _szMON_GUBUN$[ebp]
  00551	8b f0		 mov	 esi, eax
  00553	8b ca		 mov	 ecx, edx
  00555	2b f1		 sub	 esi, ecx
$LL8@GetScaleAl:
  00557	8a 0a		 mov	 cl, BYTE PTR [edx]
  00559	8d 52 01	 lea	 edx, DWORD PTR [edx+1]
  0055c	88 4c 16 ff	 mov	 BYTE PTR [esi+edx-1], cl
  00560	84 c9		 test	 cl, cl
  00562	75 f3		 jne	 SHORT $LL8@GetScaleAl
  00564	8d 55 e4	 lea	 edx, DWORD PTR _szMON_GUBUN$[ebp]
  00567	8d 72 01	 lea	 esi, DWORD PTR [edx+1]
  0056a	66 0f 1f 44 00
	00		 npad	 6
$LL212@GetScaleAl:
  00570	8a 0a		 mov	 cl, BYTE PTR [edx]
  00572	42		 inc	 edx
  00573	84 c9		 test	 cl, cl
  00575	75 f9		 jne	 SHORT $LL212@GetScaleAl
  00577	2b d6		 sub	 edx, esi
  00579	03 c2		 add	 eax, edx

; 509  : 		strcpy( szHorzScaleData, szYEAR_GUBUN);			szHorzScaleData += strlen( szYEAR_GUBUN);

  0057b	8d 95 3c ff ff
	ff		 lea	 edx, DWORD PTR _szYEAR_GUBUN$[ebp]
  00581	8b f0		 mov	 esi, eax
  00583	8b ca		 mov	 ecx, edx
  00585	2b f1		 sub	 esi, ecx
$LL9@GetScaleAl:
  00587	8a 0a		 mov	 cl, BYTE PTR [edx]
  00589	8d 52 01	 lea	 edx, DWORD PTR [edx+1]
  0058c	88 4c 16 ff	 mov	 BYTE PTR [esi+edx-1], cl
  00590	84 c9		 test	 cl, cl
  00592	75 f3		 jne	 SHORT $LL9@GetScaleAl
  00594	8d 95 3c ff ff
	ff		 lea	 edx, DWORD PTR _szYEAR_GUBUN$[ebp]
  0059a	8d 72 01	 lea	 esi, DWORD PTR [edx+1]
  0059d	0f 1f 00	 npad	 3
$LL213@GetScaleAl:
  005a0	8a 0a		 mov	 cl, BYTE PTR [edx]
  005a2	42		 inc	 edx
  005a3	84 c9		 test	 cl, cl
  005a5	75 f9		 jne	 SHORT $LL213@GetScaleAl
  005a7	2b d6		 sub	 edx, esi
  005a9	03 c2		 add	 eax, edx

; 510  : 
; 511  : 		//시간체크  :7자리
; 512  : 		strcpy( szHorzScaleData, szDayCheck);			szHorzScaleData += strlen( szDayCheck) ;

  005ab	8d 95 48 ff ff
	ff		 lea	 edx, DWORD PTR _szDayCheck$[ebp]
  005b1	8b f0		 mov	 esi, eax
  005b3	8b ca		 mov	 ecx, edx
  005b5	2b f1		 sub	 esi, ecx
$LL10@GetScaleAl:
  005b7	8a 0a		 mov	 cl, BYTE PTR [edx]
  005b9	8d 52 01	 lea	 edx, DWORD PTR [edx+1]
  005bc	88 4c 16 ff	 mov	 BYTE PTR [esi+edx-1], cl
  005c0	84 c9		 test	 cl, cl
  005c2	75 f3		 jne	 SHORT $LL10@GetScaleAl
  005c4	8d 95 48 ff ff
	ff		 lea	 edx, DWORD PTR _szDayCheck$[ebp]
  005ca	8d 72 01	 lea	 esi, DWORD PTR [edx+1]
  005cd	0f 1f 00	 npad	 3
$LL214@GetScaleAl:
  005d0	8a 0a		 mov	 cl, BYTE PTR [edx]
  005d2	42		 inc	 edx
  005d3	84 c9		 test	 cl, cl
  005d5	75 f9		 jne	 SHORT $LL214@GetScaleAl
  005d7	2b d6		 sub	 edx, esi
  005d9	03 c2		 add	 eax, edx

; 513  : 		strcpy( szHorzScaleData, szDayWeekCheck);		szHorzScaleData += strlen( szDayWeekCheck);

  005db	8d 95 60 ff ff
	ff		 lea	 edx, DWORD PTR _szDayWeekCheck$[ebp]
  005e1	8b f0		 mov	 esi, eax
  005e3	8b ca		 mov	 ecx, edx
  005e5	2b f1		 sub	 esi, ecx
$LL11@GetScaleAl:
  005e7	8a 0a		 mov	 cl, BYTE PTR [edx]
  005e9	8d 52 01	 lea	 edx, DWORD PTR [edx+1]
  005ec	88 4c 16 ff	 mov	 BYTE PTR [esi+edx-1], cl
  005f0	84 c9		 test	 cl, cl
  005f2	75 f3		 jne	 SHORT $LL11@GetScaleAl
  005f4	8d 95 60 ff ff
	ff		 lea	 edx, DWORD PTR _szDayWeekCheck$[ebp]
  005fa	8d 72 01	 lea	 esi, DWORD PTR [edx+1]
  005fd	0f 1f 00	 npad	 3
$LL215@GetScaleAl:
  00600	8a 0a		 mov	 cl, BYTE PTR [edx]
  00602	42		 inc	 edx
  00603	84 c9		 test	 cl, cl
  00605	75 f9		 jne	 SHORT $LL215@GetScaleAl
  00607	2b d6		 sub	 edx, esi
  00609	03 c2		 add	 eax, edx

; 514  : 		strcpy( szHorzScaleData, szDayMonCheck);		szHorzScaleData += strlen( szDayMonCheck);

  0060b	8d 95 6c ff ff
	ff		 lea	 edx, DWORD PTR _szDayMonCheck$[ebp]
  00611	8b f0		 mov	 esi, eax
  00613	8b ca		 mov	 ecx, edx
  00615	2b f1		 sub	 esi, ecx
$LL12@GetScaleAl:
  00617	8a 0a		 mov	 cl, BYTE PTR [edx]
  00619	8d 52 01	 lea	 edx, DWORD PTR [edx+1]
  0061c	88 4c 16 ff	 mov	 BYTE PTR [esi+edx-1], cl
  00620	84 c9		 test	 cl, cl
  00622	75 f3		 jne	 SHORT $LL12@GetScaleAl
  00624	8d 95 6c ff ff
	ff		 lea	 edx, DWORD PTR _szDayMonCheck$[ebp]
  0062a	8d 72 01	 lea	 esi, DWORD PTR [edx+1]
  0062d	0f 1f 00	 npad	 3
$LL216@GetScaleAl:
  00630	8a 0a		 mov	 cl, BYTE PTR [edx]
  00632	42		 inc	 edx
  00633	84 c9		 test	 cl, cl
  00635	75 f9		 jne	 SHORT $LL216@GetScaleAl
  00637	2b d6		 sub	 edx, esi
  00639	03 c2		 add	 eax, edx

; 515  : 		strcpy( szHorzScaleData, szDayYearCheck);		szHorzScaleData += strlen( szDayYearCheck);

  0063b	8d 95 78 ff ff
	ff		 lea	 edx, DWORD PTR _szDayYearCheck$[ebp]
  00641	8b f0		 mov	 esi, eax
  00643	8b ca		 mov	 ecx, edx
  00645	2b f1		 sub	 esi, ecx
$LL13@GetScaleAl:
  00647	8a 0a		 mov	 cl, BYTE PTR [edx]
  00649	8d 52 01	 lea	 edx, DWORD PTR [edx+1]
  0064c	88 4c 16 ff	 mov	 BYTE PTR [esi+edx-1], cl
  00650	84 c9		 test	 cl, cl
  00652	75 f3		 jne	 SHORT $LL13@GetScaleAl
  00654	8d 95 78 ff ff
	ff		 lea	 edx, DWORD PTR _szDayYearCheck$[ebp]
  0065a	8d 72 01	 lea	 esi, DWORD PTR [edx+1]
  0065d	0f 1f 00	 npad	 3
$LL217@GetScaleAl:
  00660	8a 0a		 mov	 cl, BYTE PTR [edx]
  00662	42		 inc	 edx
  00663	84 c9		 test	 cl, cl
  00665	75 f9		 jne	 SHORT $LL217@GetScaleAl
  00667	2b d6		 sub	 edx, esi
  00669	03 c2		 add	 eax, edx

; 516  : 		strcpy( szHorzScaleData, szWeekMonCheck);		szHorzScaleData += strlen( szWeekMonCheck);

  0066b	8d 55 84	 lea	 edx, DWORD PTR _szWeekMonCheck$[ebp]
  0066e	8b f0		 mov	 esi, eax
  00670	8b ca		 mov	 ecx, edx
  00672	2b f1		 sub	 esi, ecx
$LL14@GetScaleAl:
  00674	8a 0a		 mov	 cl, BYTE PTR [edx]
  00676	8d 52 01	 lea	 edx, DWORD PTR [edx+1]
  00679	88 4c 16 ff	 mov	 BYTE PTR [esi+edx-1], cl
  0067d	84 c9		 test	 cl, cl
  0067f	75 f3		 jne	 SHORT $LL14@GetScaleAl
  00681	8d 55 84	 lea	 edx, DWORD PTR _szWeekMonCheck$[ebp]
  00684	8d 72 01	 lea	 esi, DWORD PTR [edx+1]
$LL218@GetScaleAl:
  00687	8a 0a		 mov	 cl, BYTE PTR [edx]
  00689	42		 inc	 edx
  0068a	84 c9		 test	 cl, cl
  0068c	75 f9		 jne	 SHORT $LL218@GetScaleAl
  0068e	2b d6		 sub	 edx, esi
  00690	03 c2		 add	 eax, edx

; 517  : 		strcpy( szHorzScaleData, szWeekYearCheck);		szHorzScaleData += strlen( szWeekYearCheck);

  00692	8d 55 90	 lea	 edx, DWORD PTR _szWeekYearCheck$[ebp]
  00695	8b f0		 mov	 esi, eax
  00697	8b ca		 mov	 ecx, edx
  00699	2b f1		 sub	 esi, ecx
  0069b	0f 1f 44 00 00	 npad	 5
$LL15@GetScaleAl:
  006a0	8a 0a		 mov	 cl, BYTE PTR [edx]
  006a2	8d 52 01	 lea	 edx, DWORD PTR [edx+1]
  006a5	88 4c 16 ff	 mov	 BYTE PTR [esi+edx-1], cl
  006a9	84 c9		 test	 cl, cl
  006ab	75 f3		 jne	 SHORT $LL15@GetScaleAl
  006ad	8d 55 90	 lea	 edx, DWORD PTR _szWeekYearCheck$[ebp]
  006b0	8d 72 01	 lea	 esi, DWORD PTR [edx+1]
$LL219@GetScaleAl:
  006b3	8a 0a		 mov	 cl, BYTE PTR [edx]
  006b5	42		 inc	 edx
  006b6	84 c9		 test	 cl, cl
  006b8	75 f9		 jne	 SHORT $LL219@GetScaleAl
  006ba	2b d6		 sub	 edx, esi
  006bc	03 c2		 add	 eax, edx

; 518  : 		strcpy( szHorzScaleData, szMonYearCheck);		szHorzScaleData += strlen( szMonYearCheck);

  006be	8d 55 9c	 lea	 edx, DWORD PTR _szMonYearCheck$[ebp]
  006c1	8b f0		 mov	 esi, eax
  006c3	8b ca		 mov	 ecx, edx
  006c5	2b f1		 sub	 esi, ecx
$LL16@GetScaleAl:
  006c7	8a 0a		 mov	 cl, BYTE PTR [edx]
  006c9	8d 52 01	 lea	 edx, DWORD PTR [edx+1]
  006cc	88 4c 16 ff	 mov	 BYTE PTR [esi+edx-1], cl
  006d0	84 c9		 test	 cl, cl
  006d2	75 f3		 jne	 SHORT $LL16@GetScaleAl
  006d4	8d 55 9c	 lea	 edx, DWORD PTR _szMonYearCheck$[ebp]
  006d7	8d 72 01	 lea	 esi, DWORD PTR [edx+1]
  006da	66 0f 1f 44 00
	00		 npad	 6
$LL220@GetScaleAl:
  006e0	8a 0a		 mov	 cl, BYTE PTR [edx]
  006e2	42		 inc	 edx
  006e3	84 c9		 test	 cl, cl
  006e5	75 f9		 jne	 SHORT $LL220@GetScaleAl
  006e7	2b d6		 sub	 edx, esi
  006e9	03 c2		 add	 eax, edx

; 519  : 
; 520  : 		//그리드 Width : 4자리 
; 521  : 		strcpy( szHorzScaleData, szDayWidth);			szHorzScaleData += strlen( szDayWidth);

  006eb	8d 55 a8	 lea	 edx, DWORD PTR _szDayWidth$[ebp]
  006ee	8b f0		 mov	 esi, eax
  006f0	8b ca		 mov	 ecx, edx
  006f2	2b f1		 sub	 esi, ecx
$LL17@GetScaleAl:
  006f4	8a 0a		 mov	 cl, BYTE PTR [edx]
  006f6	8d 52 01	 lea	 edx, DWORD PTR [edx+1]
  006f9	88 4c 16 ff	 mov	 BYTE PTR [esi+edx-1], cl
  006fd	84 c9		 test	 cl, cl
  006ff	75 f3		 jne	 SHORT $LL17@GetScaleAl
  00701	8d 55 a8	 lea	 edx, DWORD PTR _szDayWidth$[ebp]
  00704	8d 72 01	 lea	 esi, DWORD PTR [edx+1]
$LL221@GetScaleAl:
  00707	8a 0a		 mov	 cl, BYTE PTR [edx]
  00709	42		 inc	 edx
  0070a	84 c9		 test	 cl, cl
  0070c	75 f9		 jne	 SHORT $LL221@GetScaleAl
  0070e	2b d6		 sub	 edx, esi
  00710	03 c2		 add	 eax, edx

; 522  : 		strcpy( szHorzScaleData, szWeekWidth);			szHorzScaleData += strlen( szWeekWidth);

  00712	8d 55 d8	 lea	 edx, DWORD PTR _szWeekWidth$[ebp]
  00715	8b f0		 mov	 esi, eax
  00717	8b ca		 mov	 ecx, edx
  00719	2b f1		 sub	 esi, ecx
  0071b	0f 1f 44 00 00	 npad	 5
$LL18@GetScaleAl:
  00720	8a 0a		 mov	 cl, BYTE PTR [edx]
  00722	8d 52 01	 lea	 edx, DWORD PTR [edx+1]
  00725	88 4c 16 ff	 mov	 BYTE PTR [esi+edx-1], cl
  00729	84 c9		 test	 cl, cl
  0072b	75 f3		 jne	 SHORT $LL18@GetScaleAl
  0072d	8d 55 d8	 lea	 edx, DWORD PTR _szWeekWidth$[ebp]
  00730	8d 72 01	 lea	 esi, DWORD PTR [edx+1]
$LL222@GetScaleAl:
  00733	8a 0a		 mov	 cl, BYTE PTR [edx]
  00735	42		 inc	 edx
  00736	84 c9		 test	 cl, cl
  00738	75 f9		 jne	 SHORT $LL222@GetScaleAl
  0073a	2b d6		 sub	 edx, esi
  0073c	03 c2		 add	 eax, edx

; 523  : 		strcpy( szHorzScaleData, szMonWidth);			szHorzScaleData += strlen( szMonWidth);

  0073e	8d 55 b4	 lea	 edx, DWORD PTR _szMonWidth$[ebp]
  00741	8b f0		 mov	 esi, eax
  00743	8b ca		 mov	 ecx, edx
  00745	2b f1		 sub	 esi, ecx
$LL19@GetScaleAl:
  00747	8a 0a		 mov	 cl, BYTE PTR [edx]
  00749	8d 52 01	 lea	 edx, DWORD PTR [edx+1]
  0074c	88 4c 16 ff	 mov	 BYTE PTR [esi+edx-1], cl
  00750	84 c9		 test	 cl, cl
  00752	75 f3		 jne	 SHORT $LL19@GetScaleAl
  00754	8d 55 b4	 lea	 edx, DWORD PTR _szMonWidth$[ebp]
  00757	8d 72 01	 lea	 esi, DWORD PTR [edx+1]
  0075a	66 0f 1f 44 00
	00		 npad	 6
$LL223@GetScaleAl:
  00760	8a 0a		 mov	 cl, BYTE PTR [edx]
  00762	42		 inc	 edx
  00763	84 c9		 test	 cl, cl
  00765	75 f9		 jne	 SHORT $LL223@GetScaleAl
  00767	2b d6		 sub	 edx, esi
  00769	03 c2		 add	 eax, edx

; 524  : 		strcpy( szHorzScaleData, szYearWidth);			szHorzScaleData += strlen( szYearWidth);

  0076b	8d 55 c0	 lea	 edx, DWORD PTR _szYearWidth$[ebp]
  0076e	8b f0		 mov	 esi, eax
  00770	8b ca		 mov	 ecx, edx
  00772	2b f1		 sub	 esi, ecx
$LL20@GetScaleAl:
  00774	8a 0a		 mov	 cl, BYTE PTR [edx]
  00776	8d 52 01	 lea	 edx, DWORD PTR [edx+1]
  00779	88 4c 16 ff	 mov	 BYTE PTR [esi+edx-1], cl
  0077d	84 c9		 test	 cl, cl
  0077f	75 f3		 jne	 SHORT $LL20@GetScaleAl
  00781	8d 55 c0	 lea	 edx, DWORD PTR _szYearWidth$[ebp]
  00784	8d 72 01	 lea	 esi, DWORD PTR [edx+1]
$LL224@GetScaleAl:
  00787	8a 0a		 mov	 cl, BYTE PTR [edx]
  00789	42		 inc	 edx
  0078a	84 c9		 test	 cl, cl
  0078c	75 f9		 jne	 SHORT $LL224@GetScaleAl
  0078e	2b d6		 sub	 edx, esi
  00790	03 c2		 add	 eax, edx
; File C:\Program Files (x86)\Microsoft Visual Studio\2019\Community\VC\Tools\MSVC\14.29.30133\atlmfc\include\atlsimpstr.h

; 377  : 		return( m_pszData );

  00792	8b 95 08 ff ff
	ff		 mov	 edx, DWORD PTR _strDayColor$[ebp]
; File D:\git\src\IBK\IBK_DRFN\ProjSrc\SrcChartEx\ChartOCX\ScaleDraw\ScaleBaseData.cpp

; 527  : 		strcpy( szHorzScaleData, strDayColor);			szHorzScaleData += strDayColor.GetLength();		*szHorzScaleData++ = ',';

  00798	8b f0		 mov	 esi, eax
  0079a	66 0f 1f 44 00
	00		 npad	 6
$LL21@GetScaleAl:
  007a0	8a 0a		 mov	 cl, BYTE PTR [edx]
  007a2	8d 52 01	 lea	 edx, DWORD PTR [edx+1]
  007a5	88 0e		 mov	 BYTE PTR [esi], cl
  007a7	8d 76 01	 lea	 esi, DWORD PTR [esi+1]
  007aa	84 c9		 test	 cl, cl
  007ac	75 f2		 jne	 SHORT $LL21@GetScaleAl
  007ae	8b 8d 08 ff ff
	ff		 mov	 ecx, DWORD PTR _strDayColor$[ebp]
  007b4	03 41 f4	 add	 eax, DWORD PTR [ecx-12]
  007b7	c6 00 2c	 mov	 BYTE PTR [eax], 44	; 0000002cH
  007ba	40		 inc	 eax
; File C:\Program Files (x86)\Microsoft Visual Studio\2019\Community\VC\Tools\MSVC\14.29.30133\atlmfc\include\atlsimpstr.h

; 377  : 		return( m_pszData );

  007bb	8b 95 0c ff ff
	ff		 mov	 edx, DWORD PTR _strWeekColor$[ebp]
; File D:\git\src\IBK\IBK_DRFN\ProjSrc\SrcChartEx\ChartOCX\ScaleDraw\ScaleBaseData.cpp

; 528  : 		strcpy( szHorzScaleData, strWeekColor);			szHorzScaleData += strWeekColor.GetLength();	*szHorzScaleData++ = ',';

  007c1	8b f0		 mov	 esi, eax
$LL22@GetScaleAl:
  007c3	8a 0a		 mov	 cl, BYTE PTR [edx]
  007c5	8d 52 01	 lea	 edx, DWORD PTR [edx+1]
  007c8	88 0e		 mov	 BYTE PTR [esi], cl
  007ca	8d 76 01	 lea	 esi, DWORD PTR [esi+1]
  007cd	84 c9		 test	 cl, cl
  007cf	75 f2		 jne	 SHORT $LL22@GetScaleAl
  007d1	8b 8d 0c ff ff
	ff		 mov	 ecx, DWORD PTR _strWeekColor$[ebp]
  007d7	03 41 f4	 add	 eax, DWORD PTR [ecx-12]
  007da	c6 00 2c	 mov	 BYTE PTR [eax], 44	; 0000002cH
  007dd	40		 inc	 eax
; File C:\Program Files (x86)\Microsoft Visual Studio\2019\Community\VC\Tools\MSVC\14.29.30133\atlmfc\include\atlsimpstr.h

; 377  : 		return( m_pszData );

  007de	8b 95 10 ff ff
	ff		 mov	 edx, DWORD PTR _strMonColor$[ebp]
; File D:\git\src\IBK\IBK_DRFN\ProjSrc\SrcChartEx\ChartOCX\ScaleDraw\ScaleBaseData.cpp

; 529  : 		strcpy( szHorzScaleData, strMonColor);			szHorzScaleData += strMonColor.GetLength();		*szHorzScaleData++ = ',';

  007e4	8b f0		 mov	 esi, eax
$LL23@GetScaleAl:
  007e6	8a 0a		 mov	 cl, BYTE PTR [edx]
  007e8	8d 52 01	 lea	 edx, DWORD PTR [edx+1]
  007eb	88 0e		 mov	 BYTE PTR [esi], cl
  007ed	8d 76 01	 lea	 esi, DWORD PTR [esi+1]
  007f0	84 c9		 test	 cl, cl
  007f2	75 f2		 jne	 SHORT $LL23@GetScaleAl
  007f4	8b 8d 10 ff ff
	ff		 mov	 ecx, DWORD PTR _strMonColor$[ebp]
  007fa	03 41 f4	 add	 eax, DWORD PTR [ecx-12]
  007fd	c6 00 2c	 mov	 BYTE PTR [eax], 44	; 0000002cH
  00800	40		 inc	 eax
; File C:\Program Files (x86)\Microsoft Visual Studio\2019\Community\VC\Tools\MSVC\14.29.30133\atlmfc\include\atlsimpstr.h

; 377  : 		return( m_pszData );

  00801	8b 95 14 ff ff
	ff		 mov	 edx, DWORD PTR _strYearColor$[ebp]
; File D:\git\src\IBK\IBK_DRFN\ProjSrc\SrcChartEx\ChartOCX\ScaleDraw\ScaleBaseData.cpp

; 530  : 		strcpy( szHorzScaleData, strYearColor);			szHorzScaleData += strYearColor.GetLength();	*szHorzScaleData++ = ',';

  00807	8b f0		 mov	 esi, eax
  00809	0f 1f 80 00 00
	00 00		 npad	 7
$LL24@GetScaleAl:
  00810	8a 0a		 mov	 cl, BYTE PTR [edx]
  00812	8d 52 01	 lea	 edx, DWORD PTR [edx+1]
  00815	88 0e		 mov	 BYTE PTR [esi], cl
  00817	8d 76 01	 lea	 esi, DWORD PTR [esi+1]
  0081a	84 c9		 test	 cl, cl
  0081c	75 f2		 jne	 SHORT $LL24@GetScaleAl
  0081e	8b 8d 14 ff ff
	ff		 mov	 ecx, DWORD PTR _strYearColor$[ebp]
  00824	03 41 f4	 add	 eax, DWORD PTR [ecx-12]
  00827	66 c7 00 2c 3b	 mov	 WORD PTR [eax], 15148	; 00003b2cH

; 531  : 
; 532  : 		//Scale Widht : 2자리 
; 533  : //		strcpy( szHorzScaleData, szGaro_Width);			szHorzScaleData += nGrid_Horz_Width ;//가로 
; 534  : //		strcpy( szHorzScaleData, szSero_Width);			szHorzScaleData += nGrid_Vert_Width ;//세로
; 535  : 	}
; 536  : 	*szHorzScaleData++ = ';';

  0082c	83 c0 02	 add	 eax, 2
; File C:\Program Files (x86)\Microsoft Visual Studio\2019\Community\VC\Tools\MSVC\14.29.30133\atlmfc\include\atlsimpstr.h

; 377  : 		return( m_pszData );

  0082f	8b 95 04 ff ff
	ff		 mov	 edx, DWORD PTR _strDateCompart$[ebp]
; File D:\git\src\IBK\IBK_DRFN\ProjSrc\SrcChartEx\ChartOCX\ScaleDraw\ScaleBaseData.cpp

; 538  : 	strcpy( szHorzScaleData, strDateCompart);

  00835	8b f0		 mov	 esi, eax
$LL25@GetScaleAl:
  00837	8a 0a		 mov	 cl, BYTE PTR [edx]
  00839	8d 52 01	 lea	 edx, DWORD PTR [edx+1]
  0083c	88 0e		 mov	 BYTE PTR [esi], cl
  0083e	8d 76 01	 lea	 esi, DWORD PTR [esi+1]
  00841	84 c9		 test	 cl, cl
  00843	75 f2		 jne	 SHORT $LL25@GetScaleAl

; 539  : 	szHorzScaleData += strDateCompart.GetLength();

  00845	8b 8d 04 ff ff
	ff		 mov	 ecx, DWORD PTR _strDateCompart$[ebp]
  0084b	03 41 f4	 add	 eax, DWORD PTR [ecx-12]

; 540  : 	*szHorzScaleData++ = ';';

  0084e	c6 00 3b	 mov	 BYTE PTR [eax], 59	; 0000003bH
  00851	40		 inc	 eax
; File C:\Program Files (x86)\Microsoft Visual Studio\2019\Community\VC\Tools\MSVC\14.29.30133\atlmfc\include\atlsimpstr.h

; 377  : 		return( m_pszData );

  00852	8b 95 00 ff ff
	ff		 mov	 edx, DWORD PTR _strTimeCompart$[ebp]
; File D:\git\src\IBK\IBK_DRFN\ProjSrc\SrcChartEx\ChartOCX\ScaleDraw\ScaleBaseData.cpp

; 542  : 	strcpy( szHorzScaleData, strTimeCompart);

  00858	8b f0		 mov	 esi, eax
  0085a	66 0f 1f 44 00
	00		 npad	 6
$LL26@GetScaleAl:
  00860	8a 0a		 mov	 cl, BYTE PTR [edx]
  00862	8d 52 01	 lea	 edx, DWORD PTR [edx+1]
  00865	88 0e		 mov	 BYTE PTR [esi], cl
  00867	8d 76 01	 lea	 esi, DWORD PTR [esi+1]
  0086a	84 c9		 test	 cl, cl
  0086c	75 f2		 jne	 SHORT $LL26@GetScaleAl

; 543  : 	szHorzScaleData += strTimeCompart.GetLength();

  0086e	8b 8d 00 ff ff
	ff		 mov	 ecx, DWORD PTR _strTimeCompart$[ebp]

; 544  : 	*szHorzScaleData++ = ';';
; 545  : 
; 546  : 	strcpy( szHorzScaleData, szScaleTextType);

  00874	8d 95 18 ff ff
	ff		 lea	 edx, DWORD PTR _szScaleTextType$[ebp]
  0087a	03 41 f4	 add	 eax, DWORD PTR [ecx-12]
  0087d	8b ca		 mov	 ecx, edx
  0087f	8d 70 01	 lea	 esi, DWORD PTR [eax+1]
  00882	c6 00 3b	 mov	 BYTE PTR [eax], 59	; 0000003bH
  00885	2b f1		 sub	 esi, ecx
$LL27@GetScaleAl:
  00887	8a 0a		 mov	 cl, BYTE PTR [edx]
  00889	8d 52 01	 lea	 edx, DWORD PTR [edx+1]
  0088c	88 4c 16 ff	 mov	 BYTE PTR [esi+edx-1], cl
  00890	84 c9		 test	 cl, cl
  00892	75 f3		 jne	 SHORT $LL27@GetScaleAl

; 547  : 	szHorzScaleData += nScaleTextType;
; 548  : 	*szHorzScaleData++ = ';';

  00894	8b 8d f8 fe ff
	ff		 mov	 ecx, DWORD PTR _nScaleTextType$1$[ebp]
  0089a	c6 44 08 01 3b	 mov	 BYTE PTR [eax+ecx+1], 59 ; 0000003bH

; 549  : }

  0089f	8d 8d 00 ff ff
	ff		 lea	 ecx, DWORD PTR _strTimeCompart$[ebp]
  008a5	ff 15 00 00 00
	00		 call	 DWORD PTR __imp_??1?$CStringT@DV?$StrTraitMFC_DLL@DV?$ChTraitsCRT@D@ATL@@@@@ATL@@QAE@XZ
  008ab	8d 8d 04 ff ff
	ff		 lea	 ecx, DWORD PTR _strDateCompart$[ebp]
  008b1	ff 15 00 00 00
	00		 call	 DWORD PTR __imp_??1?$CStringT@DV?$StrTraitMFC_DLL@DV?$ChTraitsCRT@D@ATL@@@@@ATL@@QAE@XZ
  008b7	8d 8d 14 ff ff
	ff		 lea	 ecx, DWORD PTR _strYearColor$[ebp]
  008bd	ff 15 00 00 00
	00		 call	 DWORD PTR __imp_??1?$CStringT@DV?$StrTraitMFC_DLL@DV?$ChTraitsCRT@D@ATL@@@@@ATL@@QAE@XZ
  008c3	8d 8d 10 ff ff
	ff		 lea	 ecx, DWORD PTR _strMonColor$[ebp]
  008c9	ff 15 00 00 00
	00		 call	 DWORD PTR __imp_??1?$CStringT@DV?$StrTraitMFC_DLL@DV?$ChTraitsCRT@D@ATL@@@@@ATL@@QAE@XZ
  008cf	8d 8d 0c ff ff
	ff		 lea	 ecx, DWORD PTR _strWeekColor$[ebp]
  008d5	ff 15 00 00 00
	00		 call	 DWORD PTR __imp_??1?$CStringT@DV?$StrTraitMFC_DLL@DV?$ChTraitsCRT@D@ATL@@@@@ATL@@QAE@XZ
  008db	8d 8d 08 ff ff
	ff		 lea	 ecx, DWORD PTR _strDayColor$[ebp]
  008e1	ff 15 00 00 00
	00		 call	 DWORD PTR __imp_??1?$CStringT@DV?$StrTraitMFC_DLL@DV?$ChTraitsCRT@D@ATL@@@@@ATL@@QAE@XZ
  008e7	8d 8d fc fe ff
	ff		 lea	 ecx, DWORD PTR _strScaleData$[ebp]
  008ed	ff 15 00 00 00
	00		 call	 DWORD PTR __imp_??1?$CStringT@DV?$StrTraitMFC_DLL@DV?$ChTraitsCRT@D@ATL@@@@@ATL@@QAE@XZ
  008f3	8b 4d f4	 mov	 ecx, DWORD PTR __$EHRec$[ebp]
  008f6	64 89 0d 00 00
	00 00		 mov	 DWORD PTR fs:0, ecx
  008fd	59		 pop	 ecx
  008fe	5f		 pop	 edi
  008ff	5e		 pop	 esi
  00900	5b		 pop	 ebx
  00901	8b 4d f0	 mov	 ecx, DWORD PTR __$ArrayPad$[ebp]
  00904	33 cd		 xor	 ecx, ebp
  00906	e8 00 00 00 00	 call	 @__security_check_cookie@4
  0090b	8b e5		 mov	 esp, ebp
  0090d	5d		 pop	 ebp
  0090e	c2 04 00	 ret	 4
_TEXT	ENDS
;	COMDAT text$x
text$x	SEGMENT
__unwindfunclet$?GetScaleAllData@CHorizontalScale@@QBEXAAV?$CStringT@DV?$StrTraitMFC_DLL@DV?$ChTraitsCRT@D@ATL@@@@@ATL@@@Z$0:
  00000	8d 8d fc fe ff
	ff		 lea	 ecx, DWORD PTR _strScaleData$[ebp]
  00006	ff 25 00 00 00
	00		 jmp	 DWORD PTR __imp_??1?$CStringT@DV?$StrTraitMFC_DLL@DV?$ChTraitsCRT@D@ATL@@@@@ATL@@QAE@XZ
__unwindfunclet$?GetScaleAllData@CHorizontalScale@@QBEXAAV?$CStringT@DV?$StrTraitMFC_DLL@DV?$ChTraitsCRT@D@ATL@@@@@ATL@@@Z$1:
  0000c	8d 8d 08 ff ff
	ff		 lea	 ecx, DWORD PTR _strDayColor$[ebp]
  00012	ff 25 00 00 00
	00		 jmp	 DWORD PTR __imp_??1?$CStringT@DV?$StrTraitMFC_DLL@DV?$ChTraitsCRT@D@ATL@@@@@ATL@@QAE@XZ
__unwindfunclet$?GetScaleAllData@CHorizontalScale@@QBEXAAV?$CStringT@DV?$StrTraitMFC_DLL@DV?$ChTraitsCRT@D@ATL@@@@@ATL@@@Z$2:
  00018	8d 8d 0c ff ff
	ff		 lea	 ecx, DWORD PTR _strWeekColor$[ebp]
  0001e	ff 25 00 00 00
	00		 jmp	 DWORD PTR __imp_??1?$CStringT@DV?$StrTraitMFC_DLL@DV?$ChTraitsCRT@D@ATL@@@@@ATL@@QAE@XZ
__unwindfunclet$?GetScaleAllData@CHorizontalScale@@QBEXAAV?$CStringT@DV?$StrTraitMFC_DLL@DV?$ChTraitsCRT@D@ATL@@@@@ATL@@@Z$3:
  00024	8d 8d 10 ff ff
	ff		 lea	 ecx, DWORD PTR _strMonColor$[ebp]
  0002a	ff 25 00 00 00
	00		 jmp	 DWORD PTR __imp_??1?$CStringT@DV?$StrTraitMFC_DLL@DV?$ChTraitsCRT@D@ATL@@@@@ATL@@QAE@XZ
__unwindfunclet$?GetScaleAllData@CHorizontalScale@@QBEXAAV?$CStringT@DV?$StrTraitMFC_DLL@DV?$ChTraitsCRT@D@ATL@@@@@ATL@@@Z$4:
  00030	8d 8d 14 ff ff
	ff		 lea	 ecx, DWORD PTR _strYearColor$[ebp]
  00036	ff 25 00 00 00
	00		 jmp	 DWORD PTR __imp_??1?$CStringT@DV?$StrTraitMFC_DLL@DV?$ChTraitsCRT@D@ATL@@@@@ATL@@QAE@XZ
__unwindfunclet$?GetScaleAllData@CHorizontalScale@@QBEXAAV?$CStringT@DV?$StrTraitMFC_DLL@DV?$ChTraitsCRT@D@ATL@@@@@ATL@@@Z$5:
  0003c	8d 8d 04 ff ff
	ff		 lea	 ecx, DWORD PTR _strDateCompart$[ebp]
  00042	ff 25 00 00 00
	00		 jmp	 DWORD PTR __imp_??1?$CStringT@DV?$StrTraitMFC_DLL@DV?$ChTraitsCRT@D@ATL@@@@@ATL@@QAE@XZ
__unwindfunclet$?GetScaleAllData@CHorizontalScale@@QBEXAAV?$CStringT@DV?$StrTraitMFC_DLL@DV?$ChTraitsCRT@D@ATL@@@@@ATL@@@Z$6:
  00048	8d 8d 00 ff ff
	ff		 lea	 ecx, DWORD PTR _strTimeCompart$[ebp]
  0004e	ff 25 00 00 00
	00		 jmp	 DWORD PTR __imp_??1?$CStringT@DV?$StrTraitMFC_DLL@DV?$ChTraitsCRT@D@ATL@@@@@ATL@@QAE@XZ
  00054	cc		 int	 3
  00055	cc		 int	 3
  00056	cc		 int	 3
  00057	cc		 int	 3
  00058	cc		 int	 3
__ehhandler$?GetScaleAllData@CHorizontalScale@@QBEXAAV?$CStringT@DV?$StrTraitMFC_DLL@DV?$ChTraitsCRT@D@ATL@@@@@ATL@@@Z:
  00059	90		 npad	 1
  0005a	90		 npad	 1
  0005b	8b 54 24 08	 mov	 edx, DWORD PTR [esp+8]
  0005f	8d 42 0c	 lea	 eax, DWORD PTR [edx+12]
  00062	8b 8a a8 fe ff
	ff		 mov	 ecx, DWORD PTR [edx-344]
  00068	33 c8		 xor	 ecx, eax
  0006a	e8 00 00 00 00	 call	 @__security_check_cookie@4
  0006f	8b 4a fc	 mov	 ecx, DWORD PTR [edx-4]
  00072	33 c8		 xor	 ecx, eax
  00074	e8 00 00 00 00	 call	 @__security_check_cookie@4
  00079	b8 00 00 00 00	 mov	 eax, OFFSET __ehfuncinfo$?GetScaleAllData@CHorizontalScale@@QBEXAAV?$CStringT@DV?$StrTraitMFC_DLL@DV?$ChTraitsCRT@D@ATL@@@@@ATL@@@Z
  0007e	e9 00 00 00 00	 jmp	 ___CxxFrameHandler3
text$x	ENDS
?GetScaleAllData@CHorizontalScale@@QBEXAAV?$CStringT@DV?$StrTraitMFC_DLL@DV?$ChTraitsCRT@D@ATL@@@@@ATL@@@Z ENDP ; CHorizontalScale::GetScaleAllData
; Function compile flags: /Ogtp
; File D:\git\src\IBK\IBK_DRFN\ProjSrc\SrcChartEx\ChartOCX\ScaleDraw\ScaleBaseData.cpp
;	COMDAT ?GetScaleHeight@CHorizontalScale@@QBEHXZ
_TEXT	SEGMENT
?GetScaleHeight@CHorizontalScale@@QBEHXZ PROC		; CHorizontalScale::GetScaleHeight, COMDAT
; _this$ = ecx

; 388  : 	return m_nScaleHeight;

  00000	8b 41 1c	 mov	 eax, DWORD PTR [ecx+28]

; 389  : }

  00003	c3		 ret	 0
?GetScaleHeight@CHorizontalScale@@QBEHXZ ENDP		; CHorizontalScale::GetScaleHeight
_TEXT	ENDS
; Function compile flags: /Ogtp
; File D:\git\src\IBK\IBK_DRFN\ProjSrc\SrcChartEx\ChartOCX\ScaleDraw\ScaleBaseData.cpp
;	COMDAT ?GetScaleCompart@CHorizontalScale@@QAEAAVCScaleCompart@@XZ
_TEXT	SEGMENT
?GetScaleCompart@CHorizontalScale@@QAEAAVCScaleCompart@@XZ PROC ; CHorizontalScale::GetScaleCompart, COMDAT
; _this$ = ecx

; 377  : 	return m_scaleCompart;

  00000	8d 41 10	 lea	 eax, DWORD PTR [ecx+16]

; 378  : }

  00003	c3		 ret	 0
?GetScaleCompart@CHorizontalScale@@QAEAAVCScaleCompart@@XZ ENDP ; CHorizontalScale::GetScaleCompart
_TEXT	ENDS
; Function compile flags: /Ogtp
; File D:\git\src\IBK\IBK_DRFN\ProjSrc\SrcChartEx\ChartOCX\ScaleDraw\ScaleBaseData.cpp
;	COMDAT ?GetScaleCompart@CHorizontalScale@@QBE?AVCScaleCompart@@XZ
_TEXT	SEGMENT
__$EHRec$ = -12						; size = 12
___$ReturnUdt$ = 8					; size = 4
?GetScaleCompart@CHorizontalScale@@QBE?AVCScaleCompart@@XZ PROC ; CHorizontalScale::GetScaleCompart, COMDAT
; _this$ = ecx

; 371  : {

  00000	55		 push	 ebp
  00001	8b ec		 mov	 ebp, esp
  00003	6a ff		 push	 -1
  00005	68 00 00 00 00	 push	 __ehhandler$?GetScaleCompart@CHorizontalScale@@QBE?AVCScaleCompart@@XZ
  0000a	64 a1 00 00 00
	00		 mov	 eax, DWORD PTR fs:0
  00010	50		 push	 eax
  00011	56		 push	 esi
  00012	57		 push	 edi
  00013	a1 00 00 00 00	 mov	 eax, DWORD PTR ___security_cookie
  00018	33 c5		 xor	 eax, ebp
  0001a	50		 push	 eax
  0001b	8d 45 f4	 lea	 eax, DWORD PTR __$EHRec$[ebp]
  0001e	64 a3 00 00 00
	00		 mov	 DWORD PTR fs:0, eax

; 372  : 	return m_scaleCompart;

  00024	8b 75 08	 mov	 esi, DWORD PTR ___$ReturnUdt$[ebp]
  00027	8d 79 10	 lea	 edi, DWORD PTR [ecx+16]
  0002a	57		 push	 edi
  0002b	8b ce		 mov	 ecx, esi
  0002d	ff 15 00 00 00
	00		 call	 DWORD PTR __imp_??0?$CStringT@DV?$StrTraitMFC_DLL@DV?$ChTraitsCRT@D@ATL@@@@@ATL@@QAE@ABV01@@Z
  00033	8d 4f 04	 lea	 ecx, DWORD PTR [edi+4]
  00036	c7 45 fc 00 00
	00 00		 mov	 DWORD PTR __$EHRec$[ebp+8], 0
  0003d	51		 push	 ecx
  0003e	8d 4e 04	 lea	 ecx, DWORD PTR [esi+4]
  00041	ff 15 00 00 00
	00		 call	 DWORD PTR __imp_??0?$CStringT@DV?$StrTraitMFC_DLL@DV?$ChTraitsCRT@D@ATL@@@@@ATL@@QAE@ABV01@@Z
  00047	8b 4f 08	 mov	 ecx, DWORD PTR [edi+8]
  0004a	8b c6		 mov	 eax, esi
  0004c	89 4e 08	 mov	 DWORD PTR [esi+8], ecx

; 373  : }

  0004f	8b 4d f4	 mov	 ecx, DWORD PTR __$EHRec$[ebp]
  00052	64 89 0d 00 00
	00 00		 mov	 DWORD PTR fs:0, ecx
  00059	59		 pop	 ecx
  0005a	5f		 pop	 edi
  0005b	5e		 pop	 esi
  0005c	8b e5		 mov	 esp, ebp
  0005e	5d		 pop	 ebp
  0005f	c2 04 00	 ret	 4
_TEXT	ENDS
;	COMDAT text$x
text$x	SEGMENT
__unwindfunclet$?GetScaleCompart@CHorizontalScale@@QBE?AVCScaleCompart@@XZ$1:
  00000	8b 4d 08	 mov	 ecx, DWORD PTR ___$ReturnUdt$[ebp]
  00003	ff 25 00 00 00
	00		 jmp	 DWORD PTR __imp_??1?$CStringT@DV?$StrTraitMFC_DLL@DV?$ChTraitsCRT@D@ATL@@@@@ATL@@QAE@XZ
  00009	cc		 int	 3
  0000a	cc		 int	 3
  0000b	cc		 int	 3
  0000c	cc		 int	 3
  0000d	cc		 int	 3
__ehhandler$?GetScaleCompart@CHorizontalScale@@QBE?AVCScaleCompart@@XZ:
  0000e	90		 npad	 1
  0000f	90		 npad	 1
  00010	8b 54 24 08	 mov	 edx, DWORD PTR [esp+8]
  00014	8d 42 0c	 lea	 eax, DWORD PTR [edx+12]
  00017	8b 4a f4	 mov	 ecx, DWORD PTR [edx-12]
  0001a	33 c8		 xor	 ecx, eax
  0001c	e8 00 00 00 00	 call	 @__security_check_cookie@4
  00021	b8 00 00 00 00	 mov	 eax, OFFSET __ehfuncinfo$?GetScaleCompart@CHorizontalScale@@QBE?AVCScaleCompart@@XZ
  00026	e9 00 00 00 00	 jmp	 ___CxxFrameHandler3
text$x	ENDS
?GetScaleCompart@CHorizontalScale@@QBE?AVCScaleCompart@@XZ ENDP ; CHorizontalScale::GetScaleCompart
; Function compile flags: /Ogtp
; File D:\git\src\IBK\IBK_DRFN\ProjSrc\SrcChartEx\ChartOCX\ScaleDraw\ScaleBaseData.cpp
;	COMDAT ?GetHorzScalePosition@CHorizontalScale@@QBE?AW4HORZSCALEPOSITION@CScaleBaseData@@XZ
_TEXT	SEGMENT
?GetHorzScalePosition@CHorizontalScale@@QBE?AW4HORZSCALEPOSITION@CScaleBaseData@@XZ PROC ; CHorizontalScale::GetHorzScalePosition, COMDAT
; _this$ = ecx

; 382  : 	return m_ePosition;

  00000	8b 41 0c	 mov	 eax, DWORD PTR [ecx+12]

; 383  : }

  00003	c3		 ret	 0
?GetHorzScalePosition@CHorizontalScale@@QBE?AW4HORZSCALEPOSITION@CScaleBaseData@@XZ ENDP ; CHorizontalScale::GetHorzScalePosition
_TEXT	ENDS
; Function compile flags: /Ogtp
; File D:\git\src\IBK\IBK_DRFN\ProjSrc\SrcChartEx\ChartOCX\ScaleDraw\ScaleBaseData.cpp
;	COMDAT ?SetScaleHeight@CHorizontalScale@@QAEXH@Z
_TEXT	SEGMENT
_nHeight$ = 8						; size = 4
?SetScaleHeight@CHorizontalScale@@QAEXH@Z PROC		; CHorizontalScale::SetScaleHeight, COMDAT
; _this$ = ecx

; 365  : {

  00000	55		 push	 ebp
  00001	8b ec		 mov	 ebp, esp

; 366  : 	m_nScaleHeight = nHeight;

  00003	8b 45 08	 mov	 eax, DWORD PTR _nHeight$[ebp]
  00006	89 41 1c	 mov	 DWORD PTR [ecx+28], eax

; 367  : }

  00009	5d		 pop	 ebp
  0000a	c2 04 00	 ret	 4
?SetScaleHeight@CHorizontalScale@@QAEXH@Z ENDP		; CHorizontalScale::SetScaleHeight
_TEXT	ENDS
; Function compile flags: /Ogtp
; File D:\git\src\IBK\IBK_DRFN\ProjSrc\SrcChartEx\ChartOCX\ScaleDraw\ScaleBaseData.cpp
;	COMDAT ?SetScaleCompart@CHorizontalScale@@QAEXABVCScaleCompart@@@Z
_TEXT	SEGMENT
_scaleCompart$ = 8					; size = 4
?SetScaleCompart@CHorizontalScale@@QAEXABVCScaleCompart@@@Z PROC ; CHorizontalScale::SetScaleCompart, COMDAT
; _this$ = ecx

; 359  : {

  00000	55		 push	 ebp
  00001	8b ec		 mov	 ebp, esp

; 360  : 	m_scaleCompart = scaleCompart;

  00003	83 c1 10	 add	 ecx, 16			; 00000010H

; 361  : }

  00006	5d		 pop	 ebp

; 360  : 	m_scaleCompart = scaleCompart;

  00007	e9 00 00 00 00	 jmp	 ??4CScaleCompart@@QAEAAV0@ABV0@@Z ; CScaleCompart::operator=
?SetScaleCompart@CHorizontalScale@@QAEXABVCScaleCompart@@@Z ENDP ; CHorizontalScale::SetScaleCompart
_TEXT	ENDS
; Function compile flags: /Ogtp
; File D:\git\src\IBK\IBK_DRFN\ProjSrc\SrcChartEx\ChartOCX\ScaleDraw\ScaleBaseData.cpp
;	COMDAT ?SetHorzScalePosition@CHorizontalScale@@QAEXPAD@Z
_TEXT	SEGMENT
_p_szScalePosition$ = 8					; size = 4
?SetHorzScalePosition@CHorizontalScale@@QAEXPAD@Z PROC	; CHorizontalScale::SetHorzScalePosition, COMDAT
; _this$ = ecx

; 346  : {

  00000	55		 push	 ebp
  00001	8b ec		 mov	 ebp, esp

; 347  : 	if( !p_szScalePosition) return;

  00003	8b 45 08	 mov	 eax, DWORD PTR _p_szScalePosition$[ebp]
  00006	56		 push	 esi
  00007	8b f1		 mov	 esi, ecx
  00009	85 c0		 test	 eax, eax
  0000b	74 12		 je	 SHORT $LN1@SetHorzSca

; 348  : 	if( !*p_szScalePosition) return;

  0000d	80 38 00	 cmp	 BYTE PTR [eax], 0
  00010	74 0d		 je	 SHORT $LN1@SetHorzSca

; 349  : 
; 350  : 	m_ePosition = ( CScaleBaseData::HORZSCALEPOSITION)atoi( p_szScalePosition);

  00012	50		 push	 eax
  00013	ff 15 00 00 00
	00		 call	 DWORD PTR __imp__atoi
  00019	83 c4 04	 add	 esp, 4
  0001c	89 46 0c	 mov	 DWORD PTR [esi+12], eax
$LN1@SetHorzSca:
  0001f	5e		 pop	 esi

; 351  : }

  00020	5d		 pop	 ebp
  00021	c2 04 00	 ret	 4
?SetHorzScalePosition@CHorizontalScale@@QAEXPAD@Z ENDP	; CHorizontalScale::SetHorzScalePosition
_TEXT	ENDS
; Function compile flags: /Ogtp
; File D:\git\src\IBK\IBK_DRFN\ProjSrc\SrcChartEx\ChartOCX\ScaleDraw\ScaleBaseData.cpp
; File C:\Program Files (x86)\Windows Kits\10\Include\10.0.22000.0\ucrt\string.h
; File D:\git\src\IBK\IBK_DRFN\ProjSrc\SrcChartEx\ChartOCX\ScaleDraw\ScaleBaseData.cpp
; File C:\Program Files (x86)\Windows Kits\10\Include\10.0.22000.0\ucrt\string.h
; File D:\git\src\IBK\IBK_DRFN\ProjSrc\SrcChartEx\ChartOCX\ScaleDraw\ScaleBaseData.cpp
; File C:\Program Files (x86)\Windows Kits\10\Include\10.0.22000.0\ucrt\string.h
; File D:\git\src\IBK\IBK_DRFN\ProjSrc\SrcChartEx\ChartOCX\ScaleDraw\ScaleBaseData.cpp
; File C:\Program Files (x86)\Windows Kits\10\Include\10.0.22000.0\ucrt\string.h
; File D:\git\src\IBK\IBK_DRFN\ProjSrc\SrcChartEx\ChartOCX\ScaleDraw\ScaleBaseData.cpp
; File C:\Program Files (x86)\Windows Kits\10\Include\10.0.22000.0\ucrt\string.h
; File D:\git\src\IBK\IBK_DRFN\ProjSrc\SrcChartEx\ChartOCX\ScaleDraw\ScaleBaseData.cpp
; File C:\Program Files (x86)\Windows Kits\10\Include\10.0.22000.0\ucrt\string.h
; File D:\git\src\IBK\IBK_DRFN\ProjSrc\SrcChartEx\ChartOCX\ScaleDraw\ScaleBaseData.cpp
;	COMDAT ?SetScaleData@CHorizontalScale@@UAEXPADPAUHWND__@@@Z
_TEXT	SEGMENT
_szCompart$1$ = -24					; size = 4
$T2 = -20						; size = 4
$T3 = -20						; size = 4
$T4 = -20						; size = 4
$T5 = -20						; size = 4
_szType$6 = -16						; size = 2
__$EHRec$ = -12						; size = 12
_szPosition$1$ = 8					; size = 4
_strColorInfo$7 = 8					; size = 4
_p_szScaleData$ = 8					; size = 4
_iStart2$8 = 12						; size = 4
_p_hOcxWnd$ = 12					; size = 4
?SetScaleData@CHorizontalScale@@UAEXPADPAUHWND__@@@Z PROC ; CHorizontalScale::SetScaleData, COMDAT
; _this$ = ecx

; 229  : {

  00000	55		 push	 ebp
  00001	8b ec		 mov	 ebp, esp
  00003	6a ff		 push	 -1
  00005	68 00 00 00 00	 push	 __ehhandler$?SetScaleData@CHorizontalScale@@UAEXPADPAUHWND__@@@Z
  0000a	64 a1 00 00 00
	00		 mov	 eax, DWORD PTR fs:0
  00010	50		 push	 eax
  00011	83 ec 0c	 sub	 esp, 12			; 0000000cH
  00014	53		 push	 ebx
  00015	56		 push	 esi
  00016	57		 push	 edi
  00017	a1 00 00 00 00	 mov	 eax, DWORD PTR ___security_cookie
  0001c	33 c5		 xor	 eax, ebp
  0001e	50		 push	 eax
  0001f	8d 45 f4	 lea	 eax, DWORD PTR __$EHRec$[ebp]
  00022	64 a3 00 00 00
	00		 mov	 DWORD PTR fs:0, eax
  00028	8b f9		 mov	 edi, ecx

; 230  : 	if( !p_szScaleData) return;

  0002a	8b 75 08	 mov	 esi, DWORD PTR _p_szScaleData$[ebp]
  0002d	85 f6		 test	 esi, esi
  0002f	0f 84 15 03 00
	00		 je	 $LN22@SetScaleDa

; 231  : 	if( !*p_szScaleData) return;

  00035	80 3e 00	 cmp	 BYTE PTR [esi], 0
  00038	0f 84 0c 03 00
	00		 je	 $LN22@SetScaleDa
; File C:\Program Files (x86)\Windows Kits\10\Include\10.0.22000.0\ucrt\string.h

; 502  :         return const_cast<char*>(strchr(static_cast<char const*>(_String), _Ch));

  0003e	6a 3b		 push	 59			; 0000003bH
  00040	56		 push	 esi
  00041	e8 00 00 00 00	 call	 _strchr
; File D:\git\src\IBK\IBK_DRFN\ProjSrc\SrcChartEx\ChartOCX\ScaleDraw\ScaleBaseData.cpp

; 234  : 	char *szPosition = strchr( p_szScaleData, ';');

  00046	8b d8		 mov	 ebx, eax
; File C:\Program Files (x86)\Windows Kits\10\Include\10.0.22000.0\ucrt\string.h

; 502  :         return const_cast<char*>(strchr(static_cast<char const*>(_String), _Ch));

  00048	83 c4 08	 add	 esp, 8
; File D:\git\src\IBK\IBK_DRFN\ProjSrc\SrcChartEx\ChartOCX\ScaleDraw\ScaleBaseData.cpp

; 235  : 	if( szPosition) *szPosition = '\0';

  0004b	85 db		 test	 ebx, ebx
  0004d	74 03		 je	 SHORT $LN7@SetScaleDa
  0004f	c6 03 00	 mov	 BYTE PTR [ebx], 0
$LN7@SetScaleDa:

; 236  : 	_MHWND( p_hOcxWnd);
; 237  : 	CScale::SetScaleData( ( char *)_STOM0( p_szScaleData), p_hOcxWnd);

  00052	6a 00		 push	 0
  00054	56		 push	 esi
  00055	6a 00		 push	 0
  00057	ff 75 0c	 push	 DWORD PTR _p_hOcxWnd$[ebp]
  0005a	b9 00 00 00 00	 mov	 ecx, OFFSET ?g_iMetaTable@@3VIMetaTable@@A ; g_iMetaTable
  0005f	e8 00 00 00 00	 call	 ?GetMetaTextForScript@IMetaTable@@QAEPBDPAUHWND__@@W4E_CODEPAGE@1@PBDH@Z ; IMetaTable::GetMetaTextForScript

; 130  : 	m_strScaleData = p_szScaleData;

  00064	50		 push	 eax
  00065	8d 4f 04	 lea	 ecx, DWORD PTR [edi+4]
  00068	ff 15 00 00 00
	00		 call	 DWORD PTR __imp_??4?$CStringT@DV?$StrTraitMFC_DLL@DV?$ChTraitsCRT@D@ATL@@@@@ATL@@QAEAAV01@PBD@Z

; 238  : 	if( szPosition) *szPosition++ = ';';

  0006e	85 db		 test	 ebx, ebx
  00070	0f 84 d4 02 00
	00		 je	 $LN22@SetScaleDa
  00076	c6 03 3b	 mov	 BYTE PTR [ebx], 59	; 0000003bH
  00079	43		 inc	 ebx
; File C:\Program Files (x86)\Windows Kits\10\Include\10.0.22000.0\ucrt\string.h

; 502  :         return const_cast<char*>(strchr(static_cast<char const*>(_String), _Ch));

  0007a	6a 3b		 push	 59			; 0000003bH
  0007c	53		 push	 ebx
; File D:\git\src\IBK\IBK_DRFN\ProjSrc\SrcChartEx\ChartOCX\ScaleDraw\ScaleBaseData.cpp

; 238  : 	if( szPosition) *szPosition++ = ';';

  0007d	89 5d 08	 mov	 DWORD PTR _szPosition$1$[ebp], ebx
; File C:\Program Files (x86)\Windows Kits\10\Include\10.0.22000.0\ucrt\string.h

; 502  :         return const_cast<char*>(strchr(static_cast<char const*>(_String), _Ch));

  00080	e8 00 00 00 00	 call	 _strchr
; File D:\git\src\IBK\IBK_DRFN\ProjSrc\SrcChartEx\ChartOCX\ScaleDraw\ScaleBaseData.cpp

; 241  : 	char *szGridType = strchr( szPosition, ';');

  00085	8b f0		 mov	 esi, eax
; File C:\Program Files (x86)\Windows Kits\10\Include\10.0.22000.0\ucrt\string.h

; 502  :         return const_cast<char*>(strchr(static_cast<char const*>(_String), _Ch));

  00087	83 c4 08	 add	 esp, 8
; File D:\git\src\IBK\IBK_DRFN\ProjSrc\SrcChartEx\ChartOCX\ScaleDraw\ScaleBaseData.cpp

; 242  : 	if( szGridType) *szGridType = '\0';

  0008a	85 f6		 test	 esi, esi
  0008c	74 03		 je	 SHORT $LN10@SetScaleDa
  0008e	c6 06 00	 mov	 BYTE PTR [esi], 0
$LN10@SetScaleDa:

; 347  : 	if( !p_szScalePosition) return;

  00091	85 db		 test	 ebx, ebx
  00093	8b 1d 00 00 00
	00		 mov	 ebx, DWORD PTR __imp__atoi
  00099	74 11		 je	 SHORT $LN40@SetScaleDa

; 348  : 	if( !*p_szScalePosition) return;

  0009b	8b 45 08	 mov	 eax, DWORD PTR _szPosition$1$[ebp]
  0009e	80 38 00	 cmp	 BYTE PTR [eax], 0
  000a1	74 09		 je	 SHORT $LN40@SetScaleDa

; 349  : 
; 350  : 	m_ePosition = ( CScaleBaseData::HORZSCALEPOSITION)atoi( p_szScalePosition);

  000a3	50		 push	 eax
  000a4	ff d3		 call	 ebx
  000a6	83 c4 04	 add	 esp, 4
  000a9	89 47 0c	 mov	 DWORD PTR [edi+12], eax
$LN40@SetScaleDa:

; 243  : 	SetHorzScalePosition( szPosition);
; 244  : 	if( szGridType) *szGridType++ = ';';

  000ac	85 f6		 test	 esi, esi
  000ae	0f 84 96 02 00
	00		 je	 $LN22@SetScaleDa
  000b4	c6 06 3b	 mov	 BYTE PTR [esi], 59	; 0000003bH
  000b7	46		 inc	 esi
; File C:\Program Files (x86)\Windows Kits\10\Include\10.0.22000.0\ucrt\string.h

; 502  :         return const_cast<char*>(strchr(static_cast<char const*>(_String), _Ch));

  000b8	6a 3b		 push	 59			; 0000003bH
  000ba	56		 push	 esi
  000bb	e8 00 00 00 00	 call	 _strchr
  000c0	83 c4 08	 add	 esp, 8
; File D:\git\src\IBK\IBK_DRFN\ProjSrc\SrcChartEx\ChartOCX\ScaleDraw\ScaleBaseData.cpp

; 247  : 	char *szCompart = strchr( szGridType, ';');

  000c3	89 45 e8	 mov	 DWORD PTR _szCompart$1$[ebp], eax

; 248  : 	if( szCompart) *szCompart = '\0';

  000c6	85 c0		 test	 eax, eax
  000c8	74 03		 je	 SHORT $LN13@SetScaleDa
  000ca	c6 00 00	 mov	 BYTE PTR [eax], 0
$LN13@SetScaleDa:

; 249  : 
; 250  : 	{
; 251  : 		char szType[2] = {NULL, };
; 252  : 		::memcpy(szType, szGridType, 1);

  000cd	8a 0e		 mov	 cl, BYTE PTR [esi]
  000cf	33 c0		 xor	 eax, eax
  000d1	66 89 45 f0	 mov	 WORD PTR _szType$6[ebp], ax
  000d5	88 4d f0	 mov	 BYTE PTR _szType$6[ebp], cl

; 152  : 	if( !*p_szGridType) return;

  000d8	84 c9		 test	 cl, cl
  000da	74 0c		 je	 SHORT $LN46@SetScaleDa

; 153  : 
; 154  : 	m_eScaleGrid = ( CScaleBaseData::SCALEGRIDTYPE)atoi( p_szGridType);

  000dc	8d 45 f0	 lea	 eax, DWORD PTR _szType$6[ebp]
  000df	50		 push	 eax
  000e0	ff d3		 call	 ebx
  000e2	83 c4 04	 add	 esp, 4
  000e5	89 47 08	 mov	 DWORD PTR [edi+8], eax
$LN46@SetScaleDa:

; 253  : 		CScale::SetGridType( szType);
; 254  : 		//KHD:  그리드 속성 세팅 :4자리  분/틱차트에서의 일자구분선 개별옵션 - onlyojt
; 255  : 		int nlen = ::lstrlen(szGridType);

  000e8	56		 push	 esi
  000e9	ff 15 00 00 00
	00		 call	 DWORD PTR __imp__lstrlenA@4

; 256  : 		if(nlen <=4)//초기화 

  000ef	83 f8 04	 cmp	 eax, 4
  000f2	7f 21		 jg	 SHORT $LN14@SetScaleDa

; 257  : 		{
; 258  : 			m_nGridTypeDay = CScaleBaseData::SHORTDOTTEDLINE;

  000f4	c7 47 20 02 00
	00 00		 mov	 DWORD PTR [edi+32], 2

; 259  : 			m_nGridTypeWeek = CScaleBaseData::SHORTDOTTEDLINE;

  000fb	c7 47 24 02 00
	00 00		 mov	 DWORD PTR [edi+36], 2

; 260  : 			m_nGridTypeMon = CScaleBaseData::SHORTDOTTEDLINE;

  00102	c7 47 28 02 00
	00 00		 mov	 DWORD PTR [edi+40], 2

; 261  : 			m_nGridTypeYear = CScaleBaseData::SHORTDOTTEDLINE;

  00109	c7 47 2c 02 00
	00 00		 mov	 DWORD PTR [edi+44], 2

; 262  : 		}

  00110	e9 21 02 00 00	 jmp	 $LN15@SetScaleDa
$LN14@SetScaleDa:

; 263  : 		else
; 264  : 		{
; 265  : 			::memcpy( szType, ++szGridType, 1 );

  00115	8a 46 01	 mov	 al, BYTE PTR [esi+1]
  00118	88 45 f0	 mov	 BYTE PTR _szType$6[ebp], al

; 572  : 	if( !*p_szGridType) return;

  0011b	84 c0		 test	 al, al
  0011d	74 0c		 je	 SHORT $LN56@SetScaleDa

; 573  : 
; 574  : 	CScaleBaseData::SCALEGRIDTYPE eGridType = ( CScaleBaseData::SCALEGRIDTYPE)atoi( p_szGridType);

  0011f	8d 45 f0	 lea	 eax, DWORD PTR _szType$6[ebp]
  00122	50		 push	 eax
  00123	ff d3		 call	 ebx
  00125	83 c4 04	 add	 esp, 4

; 575  : 
; 576  : 	switch (nType)
; 577  : 	{
; 578  : 		case CScaleBaseData::MINTICK_DAY_GUBUN:		m_nGridTypeDay = eGridType;			break;

  00128	89 47 20	 mov	 DWORD PTR [edi+32], eax
$LN56@SetScaleDa:

; 266  : 			SetPeriodGridType( CScaleBaseData::MINTICK_DAY_GUBUN, szType );
; 267  : 
; 268  : 			::memcpy( szType, ++szGridType, 1 );

  0012b	8a 46 02	 mov	 al, BYTE PTR [esi+2]
  0012e	88 45 f0	 mov	 BYTE PTR _szType$6[ebp], al

; 572  : 	if( !*p_szGridType) return;

  00131	84 c0		 test	 al, al
  00133	74 0c		 je	 SHORT $LN70@SetScaleDa

; 573  : 
; 574  : 	CScaleBaseData::SCALEGRIDTYPE eGridType = ( CScaleBaseData::SCALEGRIDTYPE)atoi( p_szGridType);

  00135	8d 45 f0	 lea	 eax, DWORD PTR _szType$6[ebp]
  00138	50		 push	 eax
  00139	ff d3		 call	 ebx
  0013b	83 c4 04	 add	 esp, 4

; 579  : 		case CScaleBaseData::DAYCHART_WEEK_GUBUN:	m_nGridTypeWeek = eGridType;		break;

  0013e	89 47 24	 mov	 DWORD PTR [edi+36], eax
$LN70@SetScaleDa:

; 269  : 			SetPeriodGridType( CScaleBaseData::DAYCHART_WEEK_GUBUN, szType );
; 270  : 
; 271  : 			::memcpy( szType, ++szGridType, 1 );

  00141	8a 46 03	 mov	 al, BYTE PTR [esi+3]
  00144	88 45 f0	 mov	 BYTE PTR _szType$6[ebp], al

; 572  : 	if( !*p_szGridType) return;

  00147	84 c0		 test	 al, al
  00149	74 0c		 je	 SHORT $LN84@SetScaleDa

; 573  : 
; 574  : 	CScaleBaseData::SCALEGRIDTYPE eGridType = ( CScaleBaseData::SCALEGRIDTYPE)atoi( p_szGridType);

  0014b	8d 45 f0	 lea	 eax, DWORD PTR _szType$6[ebp]
  0014e	50		 push	 eax
  0014f	ff d3		 call	 ebx
  00151	83 c4 04	 add	 esp, 4

; 580  : 		case CScaleBaseData::DAYCHART_MON_GUBUN:	m_nGridTypeMon = eGridType;			break;

  00154	89 47 28	 mov	 DWORD PTR [edi+40], eax
$LN84@SetScaleDa:

; 272  : 			SetPeriodGridType( CScaleBaseData::DAYCHART_MON_GUBUN, szType );
; 273  : 
; 274  : 			::memcpy( szType, ++szGridType, 1 );

  00157	8a 46 04	 mov	 al, BYTE PTR [esi+4]
  0015a	83 c6 04	 add	 esi, 4
  0015d	88 45 f0	 mov	 BYTE PTR _szType$6[ebp], al

; 572  : 	if( !*p_szGridType) return;

  00160	84 c0		 test	 al, al
  00162	74 0c		 je	 SHORT $LN98@SetScaleDa

; 573  : 
; 574  : 	CScaleBaseData::SCALEGRIDTYPE eGridType = ( CScaleBaseData::SCALEGRIDTYPE)atoi( p_szGridType);

  00164	8d 45 f0	 lea	 eax, DWORD PTR _szType$6[ebp]
  00167	50		 push	 eax
  00168	ff d3		 call	 ebx
  0016a	83 c4 04	 add	 esp, 4

; 581  : 		case CScaleBaseData::DAYCHART_YEAR_GUBUN:	m_nGridTypeYear = eGridType;		break;

  0016d	89 47 2c	 mov	 DWORD PTR [edi+44], eax
$LN98@SetScaleDa:

; 275  : 			SetPeriodGridType( CScaleBaseData::DAYCHART_YEAR_GUBUN, szType );
; 276  : 			//Che유무 세팅 : 7자리
; 277  : 
; 278  : 			if( ::lstrlen( szGridType ) >= 7 )

  00170	56		 push	 esi
  00171	ff 15 00 00 00
	00		 call	 DWORD PTR __imp__lstrlenA@4
  00177	83 f8 07	 cmp	 eax, 7
  0017a	7c 2d		 jl	 SHORT $LN3@SetScaleDa

; 279  : 			{
; 280  : 				for( int i = 0; i < 7; i++ )

  0017c	33 db		 xor	 ebx, ebx
  0017e	66 90		 npad	 2
$LL4@SetScaleDa:

; 281  : 				{
; 282  : 					::memcpy( szType, ++szGridType, 1 );

  00180	8a 46 01	 mov	 al, BYTE PTR [esi+1]
  00183	46		 inc	 esi
  00184	88 45 f0	 mov	 BYTE PTR _szType$6[ebp], al

; 283  : 					SetCheckTime( (CScaleBaseData::SCALEGRIDTIMEGUBUN)i, atoi( szType ) );

  00187	8d 45 f0	 lea	 eax, DWORD PTR _szType$6[ebp]
  0018a	50		 push	 eax
  0018b	ff 15 00 00 00
	00		 call	 DWORD PTR __imp__atoi
  00191	83 c4 04	 add	 esp, 4
  00194	8b cf		 mov	 ecx, edi
  00196	50		 push	 eax
  00197	53		 push	 ebx
  00198	e8 00 00 00 00	 call	 ?SetCheckTime@CHorizontalScale@@QAEXW4SCALEGRIDTIMEGUBUN@CScaleBaseData@@H@Z ; CHorizontalScale::SetCheckTime
  0019d	43		 inc	 ebx
  0019e	83 fb 07	 cmp	 ebx, 7
  001a1	7c dd		 jl	 SHORT $LL4@SetScaleDa
  001a3	8b 1d 00 00 00
	00		 mov	 ebx, DWORD PTR __imp__atoi
$LN3@SetScaleDa:

; 284  : 				}
; 285  : 			}
; 286  : 			//시간별 Width : 4자리 
; 287  : 			int Width = 1;
; 288  : 			if( ::lstrlen( szGridType ) >= 4 )

  001a9	56		 push	 esi
  001aa	ff 15 00 00 00
	00		 call	 DWORD PTR __imp__lstrlenA@4
  001b0	83 f8 04	 cmp	 eax, 4
  001b3	7c 71		 jl	 SHORT $LN142@SetScaleDa

; 289  : 			{
; 290  : 				::memcpy( szType, ++szGridType, 1 );	Width = atoi( szType );

  001b5	0f b6 46 01	 movzx	 eax, BYTE PTR [esi+1]
  001b9	88 45 f0	 mov	 BYTE PTR _szType$6[ebp], al
  001bc	8d 45 f0	 lea	 eax, DWORD PTR _szType$6[ebp]
  001bf	50		 push	 eax
  001c0	ff d3		 call	 ebx

; 291  : 				if( Width == 0 )						Width = 1;

  001c2	85 c0		 test	 eax, eax
  001c4	b9 01 00 00 00	 mov	 ecx, 1
  001c9	0f 44 c1	 cmove	 eax, ecx

; 656  : 		case CScaleBaseData::MINTICK_DAY_GUBUN:		m_nGridWidth_Day = nGridWidth;	break;

  001cc	66 89 47 4c	 mov	 WORD PTR [edi+76], ax

; 292  : 				SetGridWidth_Time( CScaleBaseData::MINTICK_DAY_GUBUN, Width );
; 293  : 
; 294  : 				::memcpy( szType, ++szGridType, 1 );	Width = atoi( szType );

  001d0	0f b6 46 02	 movzx	 eax, BYTE PTR [esi+2]
  001d4	88 45 f0	 mov	 BYTE PTR _szType$6[ebp], al
  001d7	8d 45 f0	 lea	 eax, DWORD PTR _szType$6[ebp]
  001da	50		 push	 eax
  001db	ff d3		 call	 ebx

; 295  : 				if( Width == 0 )						Width = 1;

  001dd	85 c0		 test	 eax, eax
  001df	b9 01 00 00 00	 mov	 ecx, 1
  001e4	0f 44 c1	 cmove	 eax, ecx

; 657  : 		case CScaleBaseData::DAYCHART_WEEK_GUBUN:	m_nGridWidth_Week = nGridWidth;	break;

  001e7	66 89 47 4e	 mov	 WORD PTR [edi+78], ax

; 296  : 				SetGridWidth_Time( CScaleBaseData::DAYCHART_WEEK_GUBUN, Width );
; 297  : 
; 298  : 				::memcpy( szType, ++szGridType, 1 );	Width = atoi( szType );

  001eb	0f b6 46 03	 movzx	 eax, BYTE PTR [esi+3]
  001ef	88 45 f0	 mov	 BYTE PTR _szType$6[ebp], al
  001f2	8d 45 f0	 lea	 eax, DWORD PTR _szType$6[ebp]
  001f5	50		 push	 eax
  001f6	ff d3		 call	 ebx

; 299  : 				if( Width == 0 )						Width = 1;

  001f8	85 c0		 test	 eax, eax
  001fa	b9 01 00 00 00	 mov	 ecx, 1
  001ff	0f 44 c1	 cmove	 eax, ecx

; 300  : 				SetGridWidth_Time( CScaleBaseData::DAYCHART_MON_GUBUN, Width );
; 301  : 
; 302  : 				::memcpy( szType, ++szGridType, 1 );	Width = atoi( szType );

  00202	83 c6 04	 add	 esi, 4

; 658  : 		case CScaleBaseData::DAYCHART_MON_GUBUN:	m_nGridWidth_Mon = nGridWidth;	break;

  00205	66 89 47 50	 mov	 WORD PTR [edi+80], ax

; 300  : 				SetGridWidth_Time( CScaleBaseData::DAYCHART_MON_GUBUN, Width );
; 301  : 
; 302  : 				::memcpy( szType, ++szGridType, 1 );	Width = atoi( szType );

  00209	0f b6 06	 movzx	 eax, BYTE PTR [esi]
  0020c	88 45 f0	 mov	 BYTE PTR _szType$6[ebp], al
  0020f	8d 45 f0	 lea	 eax, DWORD PTR _szType$6[ebp]
  00212	50		 push	 eax
  00213	ff d3		 call	 ebx
  00215	83 c4 10	 add	 esp, 16			; 00000010H

; 303  : 				if( Width == 0 )						Width = 1;

  00218	b9 01 00 00 00	 mov	 ecx, 1
  0021d	85 c0		 test	 eax, eax
  0021f	0f 44 c1	 cmove	 eax, ecx

; 659  : 		case CScaleBaseData::DAYCHART_YEAR_GUBUN:	m_nGridWidth_Year = nGridWidth;	break;

  00222	66 89 47 52	 mov	 WORD PTR [edi+82], ax
$LN142@SetScaleDa:

; 304  : 				SetGridWidth_Time( CScaleBaseData::DAYCHART_YEAR_GUBUN, Width );
; 305  : 			}
; 306  : 			int iStart2 = 0;
; 307  : 			CString strColorInfo;

  00226	8d 4d 08	 lea	 ecx, DWORD PTR _strColorInfo$7[ebp]
  00229	c7 45 0c 00 00
	00 00		 mov	 DWORD PTR _iStart2$8[ebp], 0
  00230	ff 15 00 00 00
	00		 call	 DWORD PTR __imp_??0?$CStringT@DV?$StrTraitMFC_DLL@DV?$ChTraitsCRT@D@ATL@@@@@ATL@@QAE@XZ

; 308  : 			strColorInfo.Format(_T("%s"), szGridType);

  00236	56		 push	 esi
  00237	8d 45 08	 lea	 eax, DWORD PTR _strColorInfo$7[ebp]
  0023a	c7 45 fc 00 00
	00 00		 mov	 DWORD PTR __$EHRec$[ebp+8], 0
  00241	68 00 00 00 00	 push	 OFFSET ??_C@_02DKCKIIND@?$CFs@
  00246	50		 push	 eax
  00247	ff 15 00 00 00
	00		 call	 DWORD PTR __imp_?Format@?$CStringT@DV?$StrTraitMFC_DLL@DV?$ChTraitsCRT@D@ATL@@@@@ATL@@QAAXPBDZZ
  0024d	83 c4 0c	 add	 esp, 12			; 0000000cH

; 309  : 			SetGridColor_Time( CScaleBaseData::MINTICK_DAY_GUBUN, (COLORREF)(COLORREF) atol(TokenizeEx(strColorInfo, ",", iStart2)) );

  00250	8d 45 0c	 lea	 eax, DWORD PTR _iStart2$8[ebp]
  00253	50		 push	 eax
  00254	68 00 00 00 00	 push	 OFFSET ??_C@_01IHBHIGKO@?0@
  00259	51		 push	 ecx
  0025a	8d 45 08	 lea	 eax, DWORD PTR _strColorInfo$7[ebp]
  0025d	8b cc		 mov	 ecx, esp
  0025f	50		 push	 eax
  00260	ff 15 00 00 00
	00		 call	 DWORD PTR __imp_??0?$CStringT@DV?$StrTraitMFC_DLL@DV?$ChTraitsCRT@D@ATL@@@@@ATL@@QAE@ABV01@@Z
  00266	8d 45 ec	 lea	 eax, DWORD PTR $T5[ebp]
  00269	8b cf		 mov	 ecx, edi
  0026b	50		 push	 eax
  0026c	e8 00 00 00 00	 call	 ?TokenizeEx@CHorizontalScale@@QAE?AV?$CStringT@DV?$StrTraitMFC_DLL@DV?$ChTraitsCRT@D@ATL@@@@@ATL@@V23@PBDAAH@Z ; CHorizontalScale::TokenizeEx
  00271	8b 35 00 00 00
	00		 mov	 esi, DWORD PTR __imp__atol
  00277	ff 30		 push	 DWORD PTR [eax]
  00279	ff d6		 call	 esi
  0027b	83 c4 04	 add	 esp, 4

; 688  : 		case CScaleBaseData::MINTICK_DAY_GUBUN:		m_clrDailyDivGridColor = nGridColor;	break;

  0027e	89 47 54	 mov	 DWORD PTR [edi+84], eax

; 309  : 			SetGridColor_Time( CScaleBaseData::MINTICK_DAY_GUBUN, (COLORREF)(COLORREF) atol(TokenizeEx(strColorInfo, ",", iStart2)) );

  00281	8d 4d ec	 lea	 ecx, DWORD PTR $T5[ebp]
  00284	ff 15 00 00 00
	00		 call	 DWORD PTR __imp_??1?$CStringT@DV?$StrTraitMFC_DLL@DV?$ChTraitsCRT@D@ATL@@@@@ATL@@QAE@XZ

; 310  : 			SetGridColor_Time( CScaleBaseData::DAYCHART_WEEK_GUBUN, (COLORREF)(COLORREF) atol(TokenizeEx(strColorInfo, ",", iStart2)) );

  0028a	8d 45 0c	 lea	 eax, DWORD PTR _iStart2$8[ebp]
  0028d	50		 push	 eax
  0028e	68 00 00 00 00	 push	 OFFSET ??_C@_01IHBHIGKO@?0@
  00293	51		 push	 ecx
  00294	8d 45 08	 lea	 eax, DWORD PTR _strColorInfo$7[ebp]
  00297	8b cc		 mov	 ecx, esp
  00299	50		 push	 eax
  0029a	ff 15 00 00 00
	00		 call	 DWORD PTR __imp_??0?$CStringT@DV?$StrTraitMFC_DLL@DV?$ChTraitsCRT@D@ATL@@@@@ATL@@QAE@ABV01@@Z
  002a0	8d 45 ec	 lea	 eax, DWORD PTR $T4[ebp]
  002a3	8b cf		 mov	 ecx, edi
  002a5	50		 push	 eax
  002a6	e8 00 00 00 00	 call	 ?TokenizeEx@CHorizontalScale@@QAE?AV?$CStringT@DV?$StrTraitMFC_DLL@DV?$ChTraitsCRT@D@ATL@@@@@ATL@@V23@PBDAAH@Z ; CHorizontalScale::TokenizeEx
  002ab	ff 30		 push	 DWORD PTR [eax]
  002ad	ff d6		 call	 esi
  002af	83 c4 04	 add	 esp, 4

; 689  : 		case CScaleBaseData::DAYCHART_WEEK_GUBUN:	m_clrWeekDivGridColor = nGridColor;		break;

  002b2	89 47 58	 mov	 DWORD PTR [edi+88], eax

; 310  : 			SetGridColor_Time( CScaleBaseData::DAYCHART_WEEK_GUBUN, (COLORREF)(COLORREF) atol(TokenizeEx(strColorInfo, ",", iStart2)) );

  002b5	8d 4d ec	 lea	 ecx, DWORD PTR $T4[ebp]
  002b8	ff 15 00 00 00
	00		 call	 DWORD PTR __imp_??1?$CStringT@DV?$StrTraitMFC_DLL@DV?$ChTraitsCRT@D@ATL@@@@@ATL@@QAE@XZ

; 311  : 			SetGridColor_Time( CScaleBaseData::DAYCHART_MON_GUBUN, (COLORREF)(COLORREF) atol(TokenizeEx(strColorInfo, ",", iStart2)) );

  002be	8d 45 0c	 lea	 eax, DWORD PTR _iStart2$8[ebp]
  002c1	50		 push	 eax
  002c2	68 00 00 00 00	 push	 OFFSET ??_C@_01IHBHIGKO@?0@
  002c7	51		 push	 ecx
  002c8	8d 45 08	 lea	 eax, DWORD PTR _strColorInfo$7[ebp]
  002cb	8b cc		 mov	 ecx, esp
  002cd	50		 push	 eax
  002ce	ff 15 00 00 00
	00		 call	 DWORD PTR __imp_??0?$CStringT@DV?$StrTraitMFC_DLL@DV?$ChTraitsCRT@D@ATL@@@@@ATL@@QAE@ABV01@@Z
  002d4	8d 45 ec	 lea	 eax, DWORD PTR $T3[ebp]
  002d7	8b cf		 mov	 ecx, edi
  002d9	50		 push	 eax
  002da	e8 00 00 00 00	 call	 ?TokenizeEx@CHorizontalScale@@QAE?AV?$CStringT@DV?$StrTraitMFC_DLL@DV?$ChTraitsCRT@D@ATL@@@@@ATL@@V23@PBDAAH@Z ; CHorizontalScale::TokenizeEx
  002df	ff 30		 push	 DWORD PTR [eax]
  002e1	ff d6		 call	 esi
  002e3	83 c4 04	 add	 esp, 4

; 690  : 		case CScaleBaseData::DAYCHART_MON_GUBUN:	m_clrMonDivGridColor = nGridColor;		break;

  002e6	89 47 5c	 mov	 DWORD PTR [edi+92], eax

; 311  : 			SetGridColor_Time( CScaleBaseData::DAYCHART_MON_GUBUN, (COLORREF)(COLORREF) atol(TokenizeEx(strColorInfo, ",", iStart2)) );

  002e9	8d 4d ec	 lea	 ecx, DWORD PTR $T3[ebp]
  002ec	ff 15 00 00 00
	00		 call	 DWORD PTR __imp_??1?$CStringT@DV?$StrTraitMFC_DLL@DV?$ChTraitsCRT@D@ATL@@@@@ATL@@QAE@XZ

; 312  : 			SetGridColor_Time( CScaleBaseData::DAYCHART_YEAR_GUBUN, (COLORREF)(COLORREF) atol(TokenizeEx(strColorInfo, ",", iStart2)) );

  002f2	8d 45 0c	 lea	 eax, DWORD PTR _iStart2$8[ebp]
  002f5	50		 push	 eax
  002f6	68 00 00 00 00	 push	 OFFSET ??_C@_01IHBHIGKO@?0@
  002fb	51		 push	 ecx
  002fc	8d 45 08	 lea	 eax, DWORD PTR _strColorInfo$7[ebp]
  002ff	8b cc		 mov	 ecx, esp
  00301	50		 push	 eax
  00302	ff 15 00 00 00
	00		 call	 DWORD PTR __imp_??0?$CStringT@DV?$StrTraitMFC_DLL@DV?$ChTraitsCRT@D@ATL@@@@@ATL@@QAE@ABV01@@Z
  00308	8d 45 ec	 lea	 eax, DWORD PTR $T2[ebp]
  0030b	8b cf		 mov	 ecx, edi
  0030d	50		 push	 eax
  0030e	e8 00 00 00 00	 call	 ?TokenizeEx@CHorizontalScale@@QAE?AV?$CStringT@DV?$StrTraitMFC_DLL@DV?$ChTraitsCRT@D@ATL@@@@@ATL@@V23@PBDAAH@Z ; CHorizontalScale::TokenizeEx
  00313	ff 30		 push	 DWORD PTR [eax]
  00315	ff d6		 call	 esi
  00317	83 c4 04	 add	 esp, 4
  0031a	8d 4d ec	 lea	 ecx, DWORD PTR $T2[ebp]

; 691  : 		case CScaleBaseData::DAYCHART_YEAR_GUBUN:	m_clrYearDivGridColor = nGridColor;		break;

  0031d	89 47 60	 mov	 DWORD PTR [edi+96], eax

; 312  : 			SetGridColor_Time( CScaleBaseData::DAYCHART_YEAR_GUBUN, (COLORREF)(COLORREF) atol(TokenizeEx(strColorInfo, ",", iStart2)) );

  00320	ff 15 00 00 00
	00		 call	 DWORD PTR __imp_??1?$CStringT@DV?$StrTraitMFC_DLL@DV?$ChTraitsCRT@D@ATL@@@@@ATL@@QAE@XZ

; 313  : 
; 314  : 			//Scale Width 
; 315  : /*			if( ::lstrlen( szGridType ) >= 2 )// KHD 
; 316  : 			{
; 317  : 				::memcpy( szType, ++szGridType, 1 );
; 318  : 				SetGridWidth( atoi( szType ) );//가로 
; 319  : 				::memcpy( szType, ++szGridType, 1 );
; 320  : 				SetGridVert_Width( atoi( szType ) );//세로
; 321  : 			}
; 322  : */
; 323  : 			//END
; 324  : 		}

  00326	8d 4d 08	 lea	 ecx, DWORD PTR _strColorInfo$7[ebp]
  00329	c7 45 fc ff ff
	ff ff		 mov	 DWORD PTR __$EHRec$[ebp+8], -1
  00330	ff 15 00 00 00
	00		 call	 DWORD PTR __imp_??1?$CStringT@DV?$StrTraitMFC_DLL@DV?$ChTraitsCRT@D@ATL@@@@@ATL@@QAE@XZ
$LN15@SetScaleDa:

; 325  : 	}
; 326  : 
; 327  : 	if( szCompart) *szCompart++ = ';';

  00336	8b 45 e8	 mov	 eax, DWORD PTR _szCompart$1$[ebp]
  00339	85 c0		 test	 eax, eax
  0033b	74 0d		 je	 SHORT $LN22@SetScaleDa
  0033d	c6 00 3b	 mov	 BYTE PTR [eax], 59	; 0000003bH

; 328  : 	else return;
; 329  : 
; 330  : 	m_scaleCompart.SetCompart( szCompart);

  00340	8d 4f 10	 lea	 ecx, DWORD PTR [edi+16]
  00343	40		 inc	 eax
  00344	50		 push	 eax
  00345	e8 00 00 00 00	 call	 ?SetCompart@CScaleCompart@@QAEXPAD@Z ; CScaleCompart::SetCompart
$LN22@SetScaleDa:

; 331  : }

  0034a	8b 4d f4	 mov	 ecx, DWORD PTR __$EHRec$[ebp]
  0034d	64 89 0d 00 00
	00 00		 mov	 DWORD PTR fs:0, ecx
  00354	59		 pop	 ecx
  00355	5f		 pop	 edi
  00356	5e		 pop	 esi
  00357	5b		 pop	 ebx
  00358	8b e5		 mov	 esp, ebp
  0035a	5d		 pop	 ebp
  0035b	c2 08 00	 ret	 8
_TEXT	ENDS
;	COMDAT text$x
text$x	SEGMENT
__unwindfunclet$?SetScaleData@CHorizontalScale@@UAEXPADPAUHWND__@@@Z$0:
  00000	8d 4d 08	 lea	 ecx, DWORD PTR _strColorInfo$7[ebp]
  00003	ff 25 00 00 00
	00		 jmp	 DWORD PTR __imp_??1?$CStringT@DV?$StrTraitMFC_DLL@DV?$ChTraitsCRT@D@ATL@@@@@ATL@@QAE@XZ
  00009	cc		 int	 3
  0000a	cc		 int	 3
  0000b	cc		 int	 3
  0000c	cc		 int	 3
  0000d	cc		 int	 3
__ehhandler$?SetScaleData@CHorizontalScale@@UAEXPADPAUHWND__@@@Z:
  0000e	90		 npad	 1
  0000f	90		 npad	 1
  00010	8b 54 24 08	 mov	 edx, DWORD PTR [esp+8]
  00014	8d 42 0c	 lea	 eax, DWORD PTR [edx+12]
  00017	8b 4a e4	 mov	 ecx, DWORD PTR [edx-28]
  0001a	33 c8		 xor	 ecx, eax
  0001c	e8 00 00 00 00	 call	 @__security_check_cookie@4
  00021	b8 00 00 00 00	 mov	 eax, OFFSET __ehfuncinfo$?SetScaleData@CHorizontalScale@@UAEXPADPAUHWND__@@@Z
  00026	e9 00 00 00 00	 jmp	 ___CxxFrameHandler3
text$x	ENDS
?SetScaleData@CHorizontalScale@@UAEXPADPAUHWND__@@@Z ENDP ; CHorizontalScale::SetScaleData
; Function compile flags: /Ogtp
; File D:\git\src\IBK\IBK_DRFN\ProjSrc\SrcChartEx\ChartOCX\ScaleDraw\ScaleBaseData.cpp
;	COMDAT ??0CHorizontalScale@@QAE@XZ
_TEXT	SEGMENT
_this$ = -20						; size = 4
_this$ = -16						; size = 4
__$EHRec$ = -12						; size = 12
??0CHorizontalScale@@QAE@XZ PROC			; CHorizontalScale::CHorizontalScale, COMDAT
; _this$ = ecx

; 224  : {

  00000	55		 push	 ebp
  00001	8b ec		 mov	 ebp, esp
  00003	6a ff		 push	 -1
  00005	68 00 00 00 00	 push	 __ehhandler$??0CHorizontalScale@@QAE@XZ
  0000a	64 a1 00 00 00
	00		 mov	 eax, DWORD PTR fs:0
  00010	50		 push	 eax
  00011	83 ec 08	 sub	 esp, 8
  00014	56		 push	 esi
  00015	57		 push	 edi
  00016	a1 00 00 00 00	 mov	 eax, DWORD PTR ___security_cookie
  0001b	33 c5		 xor	 eax, ebp
  0001d	50		 push	 eax
  0001e	8d 45 f4	 lea	 eax, DWORD PTR __$EHRec$[ebp]
  00021	64 a3 00 00 00
	00		 mov	 DWORD PTR fs:0, eax
  00027	8b f9		 mov	 edi, ecx
  00029	89 7d f0	 mov	 DWORD PTR _this$[ebp], edi

; 120  : {

  0002c	8d 4f 04	 lea	 ecx, DWORD PTR [edi+4]
  0002f	c7 07 00 00 00
	00		 mov	 DWORD PTR [edi], OFFSET ??_7CScale@@6B@
  00035	ff 15 00 00 00
	00		 call	 DWORD PTR __imp_??0?$CStringT@DV?$StrTraitMFC_DLL@DV?$ChTraitsCRT@D@ATL@@@@@ATL@@QAE@XZ

; 38   : {
; 39   : }
; 40   : 
; 41   : CScaleCompart::CScaleCompart(const CString& dateCompart, const CString& timeCompart, const CScaleBaseData::TEXTCOMPARTTYPE eTextType):
; 42   : 	m_strDateCompart(dateCompart),
; 43   : 	m_strTimeCompart(timeCompart),
; 44   : 	m_eTextType(eTextType)
; 45   : {
; 46   : }
; 47   : 
; 48   : CString CScaleCompart::GetDateCompart() const
; 49   : {
; 50   : 	return m_strDateCompart;
; 51   : }
; 52   : 
; 53   : CString CScaleCompart::GetTimeCompart() const
; 54   : {
; 55   : 	return m_strTimeCompart;
; 56   : }
; 57   : 
; 58   : CScaleBaseData::TEXTCOMPARTTYPE CScaleCompart::GetScaleTextType() const
; 59   : {
; 60   : 	return m_eTextType;
; 61   : }
; 62   : 
; 63   : void CScaleCompart::SetCompart( char *p_szCompart)
; 64   : {
; 65   : 	if( !p_szCompart) return;
; 66   : 	if( !*p_szCompart) return;
; 67   : 
; 68   : 	char *szTimeCompart = strchr( p_szCompart, ';');
; 69   : 	if( szTimeCompart) *szTimeCompart = '\0';
; 70   : 	m_strDateCompart = p_szCompart;
; 71   : 	if( szTimeCompart) *szTimeCompart++ = ';';
; 72   : 	else return;
; 73   : 
; 74   : 	char *szTextType = strchr( szTimeCompart, ';');
; 75   : 	if( szTextType) *szTextType = '\0';
; 76   : 	m_strTimeCompart = szTimeCompart;
; 77   : 	if( szTextType) *szTextType++ = ';';
; 78   : 	else return;
; 79   : 
; 80   : 	if( !*szTextType) return;
; 81   : 
; 82   : 	char *szEnd = strchr( szTextType, ';');
; 83   : 	if( szEnd) *szEnd = '\0';
; 84   : 	m_eTextType = ( CScaleBaseData::TEXTCOMPARTTYPE)atoi( szTextType);;
; 85   : 	if( szEnd) *szEnd++ = ';';
; 86   : 	else return;
; 87   : }
; 88   : 
; 89   : void CScaleCompart::SetDateCompart(const CString& dateCompart)
; 90   : {
; 91   : 	m_strDateCompart = dateCompart;
; 92   : }
; 93   : 
; 94   : void CScaleCompart::SetTimeCompart(const CString& timeCompart)
; 95   : {
; 96   : 	m_strTimeCompart = timeCompart;
; 97   : }
; 98   : 
; 99   : void CScaleCompart::SetScaleTextType(const CScaleBaseData::TEXTCOMPARTTYPE eTextType)
; 100  : {
; 101  : 	m_eTextType = eTextType;
; 102  : }
; 103  : 
; 104  : 
; 105  : //////////////////////////////////////////////////////////////////////
; 106  : // class CScale
; 107  : 
; 108  : CScale& CScale::operator=(const CScale& data)
; 109  : {
; 110  : 	if(this == &data)
; 111  : 		return *this;
; 112  : 
; 113  : 	m_strScaleData = data.GetScaleData();
; 114  : 	m_eScaleGrid = data.GetGridType();
; 115  : 	return *this;
; 116  : }
; 117  : 
; 118  : CScale::CScale():
; 119  : 	m_eScaleGrid(CScaleBaseData::SLNONE)

  0003b	c7 47 08 03 00
	00 00		 mov	 DWORD PTR [edi+8], 3

; 224  : {

  00042	8d 77 10	 lea	 esi, DWORD PTR [edi+16]
  00045	c7 45 fc 00 00
	00 00		 mov	 DWORD PTR __$EHRec$[ebp+8], 0

; 35   : 	m_strDateCompart("."),

  0004c	68 00 00 00 00	 push	 OFFSET ??_C@_01LFCBOECM@?4@
  00051	8b ce		 mov	 ecx, esi

; 224  : {

  00053	c7 07 00 00 00
	00		 mov	 DWORD PTR [edi], OFFSET ??_7CHorizontalScale@@6B@

; 121  : }
; 122  : 
; 123  : void CScale::SetData(const CString& scaleData)
; 124  : {
; 125  : 	m_strScaleData = scaleData;
; 126  : }
; 127  : 
; 128  : void CScale::SetScaleData( char *p_szScaleData, HWND p_hOcxWnd)
; 129  : {
; 130  : 	m_strScaleData = p_szScaleData;
; 131  : }
; 132  : 
; 133  : void CScale::SetGridType(const CScaleBaseData::SCALEGRIDTYPE eGridType)
; 134  : {
; 135  : 	m_eScaleGrid = eGridType;
; 136  : }
; 137  : 
; 138  : CString CScale::GetScaleData() const
; 139  : {
; 140  : 	return m_strScaleData;
; 141  : }
; 142  : 
; 143  : CScaleBaseData::SCALEGRIDTYPE CScale::GetGridType() const
; 144  : {
; 145  : 	return m_eScaleGrid;
; 146  : }
; 147  : 
; 148  : // protected ===============================================================================
; 149  : void CScale::SetGridType( char *p_szGridType)
; 150  : {
; 151  : 	if( !p_szGridType) return;
; 152  : 	if( !*p_szGridType) return;
; 153  : 
; 154  : 	m_eScaleGrid = ( CScaleBaseData::SCALEGRIDTYPE)atoi( p_szGridType);
; 155  : }
; 156  : 
; 157  : 
; 158  : ////////////////////////////////////////////////////////////////////////////////////////////
; 159  : // class CHorizontalScale
; 160  : 
; 161  : CHorizontalScale& CHorizontalScale::operator=(const CHorizontalScale& data)
; 162  : {
; 163  : 	if(this == &data)
; 164  : 		return *this;
; 165  : 
; 166  : 	CScale::operator = ((CScale) data);
; 167  : 	m_scaleCompart = data.GetScaleCompart();
; 168  : 	m_ePosition = data.GetHorzScalePosition();
; 169  : 	// XScale 높이 지정 - ojtaso (20080429)
; 170  : 	m_nScaleHeight = data.GetScaleHeight();
; 171  : 
; 172  : 	// 분/틱차트에서의 일자구분선 개별옵션 - onlyojt
; 173  : 	m_nGridTypeDay		= data.GetPeriodGridType(CScaleBaseData::MINTICK_DAY_GUBUN);
; 174  : 	m_nGridTypeWeek		= data.GetPeriodGridType(CScaleBaseData::DAYCHART_WEEK_GUBUN);
; 175  : 	m_nGridTypeMon		= data.GetPeriodGridType(CScaleBaseData::DAYCHART_MON_GUBUN);
; 176  : 	m_nGridTypeYear		= data.GetPeriodGridType(CScaleBaseData::DAYCHART_YEAR_GUBUN);
; 177  : 
; 178  : 	//차트 시간구분 
; 179  : 	m_bOn_MINTICK_DAY   = data.GetCheckTime(CScaleBaseData::MINTICK_DAY_GUBUN);
; 180  : 	m_bOn_DAYCHART_WEEK = data.GetCheckTime(CScaleBaseData::DAYCHART_WEEK_GUBUN);
; 181  : 	m_bOn_DAYCHART_MON  = data.GetCheckTime(CScaleBaseData::DAYCHART_MON_GUBUN);
; 182  : 	m_bOn_DAYCHART_YEAR = data.GetCheckTime(CScaleBaseData::DAYCHART_YEAR_GUBUN);
; 183  : 	m_bOn_WEEKCHART_MON = data.GetCheckTime(CScaleBaseData::DAYCHART_WEEK_GUBUN);;
; 184  : 	m_bOn_WEEKCHART_YEAR = data.GetCheckTime(CScaleBaseData::DAYCHART_WEEK_GUBUN);;
; 185  : 	m_bOn_MONCHART_YEAR = data.GetCheckTime(CScaleBaseData::DAYCHART_WEEK_GUBUN);;
; 186  : 
; 187  : 	m_nGridWidth_Day	= data.GetGridWidth_Time(CScaleBaseData::MINTICK_DAY_GUBUN);
; 188  : 	m_nGridWidth_Week	= data.GetGridWidth_Time(CScaleBaseData::DAYCHART_WEEK_GUBUN);
; 189  : 	m_nGridWidth_Mon	= data.GetGridWidth_Time(CScaleBaseData::DAYCHART_MON_GUBUN);
; 190  : 	m_nGridWidth_Year	= data.GetGridWidth_Time(CScaleBaseData::DAYCHART_YEAR_GUBUN);
; 191  : 
; 192  : 	m_clrDailyDivGridColor	= data.GetGridWidth_Time(CScaleBaseData::MINTICK_DAY_GUBUN);
; 193  : 	m_clrWeekDivGridColor	= data.GetGridWidth_Time(CScaleBaseData::DAYCHART_WEEK_GUBUN);
; 194  : 	m_clrMonDivGridColor	= data.GetGridWidth_Time(CScaleBaseData::DAYCHART_MON_GUBUN);
; 195  : 	m_clrYearDivGridColor	= data.GetGridWidth_Time(CScaleBaseData::DAYCHART_YEAR_GUBUN);
; 196  : 
; 197  : 	return *this;
; 198  : }
; 199  : 
; 200  : CHorizontalScale::CHorizontalScale():
; 201  : 	CScale(),
; 202  : 	m_nScaleHeight(-1),	// XScale 높이 지정 - ojtaso (20080429)
; 203  : 	m_ePosition(CScaleBaseData::HORZ_NONE),

  00059	c7 47 0c 04 00
	00 00		 mov	 DWORD PTR [edi+12], 4

; 224  : {

  00060	89 75 ec	 mov	 DWORD PTR _this$[ebp], esi

; 35   : 	m_strDateCompart("."),

  00063	ff 15 00 00 00
	00		 call	 DWORD PTR __imp_??0?$CStringT@DV?$StrTraitMFC_DLL@DV?$ChTraitsCRT@D@ATL@@@@@ATL@@QAE@PBD@Z

; 36   : 	m_strTimeCompart(":"),

  00069	68 00 00 00 00	 push	 OFFSET ??_C@_01JLIPDDHJ@?3@
  0006e	8d 4e 04	 lea	 ecx, DWORD PTR [esi+4]
  00071	c6 45 fc 01	 mov	 BYTE PTR __$EHRec$[ebp+8], 1
  00075	ff 15 00 00 00
	00		 call	 DWORD PTR __imp_??0?$CStringT@DV?$StrTraitMFC_DLL@DV?$ChTraitsCRT@D@ATL@@@@@ATL@@QAE@PBD@Z

; 37   : 	m_eTextType(CScaleBaseData::HORZ_TEXT_COMPART)

  0007b	c7 46 08 00 00
	00 00		 mov	 DWORD PTR [esi+8], 0

; 225  : }

  00082	8b c7		 mov	 eax, edi
  00084	c7 47 1c ff ff
	ff ff		 mov	 DWORD PTR [edi+28], -1
  0008b	c7 47 20 03 00
	00 00		 mov	 DWORD PTR [edi+32], 3
  00092	c7 47 24 03 00
	00 00		 mov	 DWORD PTR [edi+36], 3
  00099	c7 47 28 03 00
	00 00		 mov	 DWORD PTR [edi+40], 3
  000a0	c7 47 2c 03 00
	00 00		 mov	 DWORD PTR [edi+44], 3
  000a7	c7 47 30 01 00
	00 00		 mov	 DWORD PTR [edi+48], 1
  000ae	c7 47 34 00 00
	00 00		 mov	 DWORD PTR [edi+52], 0
  000b5	c7 47 38 00 00
	00 00		 mov	 DWORD PTR [edi+56], 0
  000bc	c7 47 3c 00 00
	00 00		 mov	 DWORD PTR [edi+60], 0
  000c3	c7 47 40 00 00
	00 00		 mov	 DWORD PTR [edi+64], 0
  000ca	c7 47 44 00 00
	00 00		 mov	 DWORD PTR [edi+68], 0
  000d1	c7 47 48 00 00
	00 00		 mov	 DWORD PTR [edi+72], 0
  000d8	c7 47 4c 01 00
	01 00		 mov	 DWORD PTR [edi+76], 65537 ; 00010001H
  000df	c7 47 50 01 00
	01 00		 mov	 DWORD PTR [edi+80], 65537 ; 00010001H
  000e6	c7 47 54 ff 00
	00 00		 mov	 DWORD PTR [edi+84], 255	; 000000ffH
  000ed	c7 47 58 d2 b4
	8c 00		 mov	 DWORD PTR [edi+88], 9221330 ; 008cb4d2H
  000f4	c7 47 5c 7b 84
	c0 00		 mov	 DWORD PTR [edi+92], 12616827 ; 00c0847bH
  000fb	c7 47 60 00 00
	00 00		 mov	 DWORD PTR [edi+96], 0
  00102	8b 4d f4	 mov	 ecx, DWORD PTR __$EHRec$[ebp]
  00105	64 89 0d 00 00
	00 00		 mov	 DWORD PTR fs:0, ecx
  0010c	59		 pop	 ecx
  0010d	5f		 pop	 edi
  0010e	5e		 pop	 esi
  0010f	8b e5		 mov	 esp, ebp
  00111	5d		 pop	 ebp
  00112	c3		 ret	 0
_TEXT	ENDS
;	COMDAT text$x
text$x	SEGMENT
__unwindfunclet$??0CHorizontalScale@@QAE@XZ$0:
  00000	8b 4d f0	 mov	 ecx, DWORD PTR _this$[ebp]
  00003	e9 00 00 00 00	 jmp	 ??1CScale@@QAE@XZ
__unwindfunclet$??0CHorizontalScale@@QAE@XZ$2:
  00008	8b 4d ec	 mov	 ecx, DWORD PTR _this$[ebp]
  0000b	ff 25 00 00 00
	00		 jmp	 DWORD PTR __imp_??1?$CStringT@DV?$StrTraitMFC_DLL@DV?$ChTraitsCRT@D@ATL@@@@@ATL@@QAE@XZ
  00011	cc		 int	 3
  00012	cc		 int	 3
  00013	cc		 int	 3
  00014	cc		 int	 3
  00015	cc		 int	 3
__ehhandler$??0CHorizontalScale@@QAE@XZ:
  00016	90		 npad	 1
  00017	90		 npad	 1
  00018	8b 54 24 08	 mov	 edx, DWORD PTR [esp+8]
  0001c	8d 42 0c	 lea	 eax, DWORD PTR [edx+12]
  0001f	8b 4a ec	 mov	 ecx, DWORD PTR [edx-20]
  00022	33 c8		 xor	 ecx, eax
  00024	e8 00 00 00 00	 call	 @__security_check_cookie@4
  00029	b8 00 00 00 00	 mov	 eax, OFFSET __ehfuncinfo$??0CHorizontalScale@@QAE@XZ
  0002e	e9 00 00 00 00	 jmp	 ___CxxFrameHandler3
text$x	ENDS
??0CHorizontalScale@@QAE@XZ ENDP			; CHorizontalScale::CHorizontalScale
; Function compile flags: /Ogtp
; File D:\git\src\IBK\IBK_DRFN\ProjSrc\SrcChartEx\ChartOCX\ScaleDraw\ScaleBaseData.cpp
;	COMDAT ??4CHorizontalScale@@QAEAAV0@ABV0@@Z
_TEXT	SEGMENT
$T2 = -36						; size = 12
$T3 = -24						; size = 12
__$EHRec$ = -12						; size = 12
$T4 = 8							; size = 4
_data$ = 8						; size = 4
??4CHorizontalScale@@QAEAAV0@ABV0@@Z PROC		; CHorizontalScale::operator=, COMDAT
; _this$ = ecx

; 162  : {

  00000	55		 push	 ebp
  00001	8b ec		 mov	 ebp, esp
  00003	6a ff		 push	 -1
  00005	68 00 00 00 00	 push	 __ehhandler$??4CHorizontalScale@@QAEAAV0@ABV0@@Z
  0000a	64 a1 00 00 00
	00		 mov	 eax, DWORD PTR fs:0
  00010	50		 push	 eax
  00011	83 ec 18	 sub	 esp, 24			; 00000018H
  00014	53		 push	 ebx
  00015	56		 push	 esi
  00016	57		 push	 edi
  00017	a1 00 00 00 00	 mov	 eax, DWORD PTR ___security_cookie
  0001c	33 c5		 xor	 eax, ebp
  0001e	50		 push	 eax
  0001f	8d 45 f4	 lea	 eax, DWORD PTR __$EHRec$[ebp]
  00022	64 a3 00 00 00
	00		 mov	 DWORD PTR fs:0, eax
  00028	8b f9		 mov	 edi, ecx

; 163  : 	if(this == &data)

  0002a	8b 5d 08	 mov	 ebx, DWORD PTR _data$[ebp]
  0002d	3b fb		 cmp	 edi, ebx
  0002f	0f 84 3b 01 00
	00		 je	 $LN241@operator

; 164  : 		return *this;
; 165  : 
; 166  : 	CScale::operator = ((CScale) data);

  00035	8d 43 04	 lea	 eax, DWORD PTR [ebx+4]
  00038	c7 45 e8 00 00
	00 00		 mov	 DWORD PTR $T3[ebp], OFFSET ??_7CScale@@6B@
  0003f	50		 push	 eax
  00040	8d 4d ec	 lea	 ecx, DWORD PTR $T3[ebp+4]
  00043	ff 15 00 00 00
	00		 call	 DWORD PTR __imp_??0?$CStringT@DV?$StrTraitMFC_DLL@DV?$ChTraitsCRT@D@ATL@@@@@ATL@@QAE@ABV01@@Z
  00049	8b 43 08	 mov	 eax, DWORD PTR [ebx+8]
  0004c	89 45 f0	 mov	 DWORD PTR $T3[ebp+8], eax

; 110  : 	if(this == &data)

  0004f	8d 45 e8	 lea	 eax, DWORD PTR $T3[ebp]

; 164  : 		return *this;
; 165  : 
; 166  : 	CScale::operator = ((CScale) data);

  00052	c7 45 fc 00 00
	00 00		 mov	 DWORD PTR __$EHRec$[ebp+8], 0

; 110  : 	if(this == &data)

  00059	3b f8		 cmp	 edi, eax
  0005b	74 2d		 je	 SHORT $LN9@operator

; 140  : 	return m_strScaleData;

  0005d	8d 45 ec	 lea	 eax, DWORD PTR $T3[ebp+4]
  00060	50		 push	 eax
  00061	8d 4d 08	 lea	 ecx, DWORD PTR $T4[ebp]
  00064	ff 15 00 00 00
	00		 call	 DWORD PTR __imp_??0?$CStringT@DV?$StrTraitMFC_DLL@DV?$ChTraitsCRT@D@ATL@@@@@ATL@@QAE@ABV01@@Z

; 113  : 	m_strScaleData = data.GetScaleData();

  0006a	8d 45 08	 lea	 eax, DWORD PTR $T4[ebp]
  0006d	c6 45 fc 01	 mov	 BYTE PTR __$EHRec$[ebp+8], 1
  00071	50		 push	 eax
  00072	8d 4f 04	 lea	 ecx, DWORD PTR [edi+4]
  00075	ff 15 00 00 00
	00		 call	 DWORD PTR __imp_??4?$CStringT@DV?$StrTraitMFC_DLL@DV?$ChTraitsCRT@D@ATL@@@@@ATL@@QAEAAV01@ABV01@@Z
  0007b	8d 4d 08	 lea	 ecx, DWORD PTR $T4[ebp]
  0007e	ff 15 00 00 00
	00		 call	 DWORD PTR __imp_??1?$CStringT@DV?$StrTraitMFC_DLL@DV?$ChTraitsCRT@D@ATL@@@@@ATL@@QAE@XZ

; 114  : 	m_eScaleGrid = data.GetGridType();

  00084	8b 45 f0	 mov	 eax, DWORD PTR $T3[ebp+8]
  00087	89 47 08	 mov	 DWORD PTR [edi+8], eax
$LN9@operator:
  0008a	8d 4d ec	 lea	 ecx, DWORD PTR $T3[ebp+4]

; 164  : 		return *this;
; 165  : 
; 166  : 	CScale::operator = ((CScale) data);

  0008d	c7 45 fc ff ff
	ff ff		 mov	 DWORD PTR __$EHRec$[ebp+8], -1
  00094	ff 15 00 00 00
	00		 call	 DWORD PTR __imp_??1?$CStringT@DV?$StrTraitMFC_DLL@DV?$ChTraitsCRT@D@ATL@@@@@ATL@@QAE@XZ

; 372  : 	return m_scaleCompart;

  0009a	8d 73 10	 lea	 esi, DWORD PTR [ebx+16]
  0009d	56		 push	 esi
  0009e	8d 4d dc	 lea	 ecx, DWORD PTR $T2[ebp]
  000a1	ff 15 00 00 00
	00		 call	 DWORD PTR __imp_??0?$CStringT@DV?$StrTraitMFC_DLL@DV?$ChTraitsCRT@D@ATL@@@@@ATL@@QAE@ABV01@@Z
  000a7	8d 46 04	 lea	 eax, DWORD PTR [esi+4]
  000aa	c7 45 fc 02 00
	00 00		 mov	 DWORD PTR __$EHRec$[ebp+8], 2
  000b1	50		 push	 eax
  000b2	8d 4d e0	 lea	 ecx, DWORD PTR $T2[ebp+4]
  000b5	ff 15 00 00 00
	00		 call	 DWORD PTR __imp_??0?$CStringT@DV?$StrTraitMFC_DLL@DV?$ChTraitsCRT@D@ATL@@@@@ATL@@QAE@ABV01@@Z
  000bb	8b 46 08	 mov	 eax, DWORD PTR [esi+8]
  000be	89 45 e4	 mov	 DWORD PTR $T2[ebp+8], eax

; 167  : 	m_scaleCompart = data.GetScaleCompart();

  000c1	8d 45 dc	 lea	 eax, DWORD PTR $T2[ebp]
  000c4	c7 45 fc 03 00
	00 00		 mov	 DWORD PTR __$EHRec$[ebp+8], 3
  000cb	50		 push	 eax
  000cc	8d 4f 10	 lea	 ecx, DWORD PTR [edi+16]
  000cf	e8 00 00 00 00	 call	 ??4CScaleCompart@@QAEAAV0@ABV0@@Z ; CScaleCompart::operator=
  000d4	8d 4d e0	 lea	 ecx, DWORD PTR $T2[ebp+4]
  000d7	ff 15 00 00 00
	00		 call	 DWORD PTR __imp_??1?$CStringT@DV?$StrTraitMFC_DLL@DV?$ChTraitsCRT@D@ATL@@@@@ATL@@QAE@XZ
  000dd	8d 4d dc	 lea	 ecx, DWORD PTR $T2[ebp]
  000e0	ff 15 00 00 00
	00		 call	 DWORD PTR __imp_??1?$CStringT@DV?$StrTraitMFC_DLL@DV?$ChTraitsCRT@D@ATL@@@@@ATL@@QAE@XZ

; 168  : 	m_ePosition = data.GetHorzScalePosition();

  000e6	8b 43 0c	 mov	 eax, DWORD PTR [ebx+12]
  000e9	89 47 0c	 mov	 DWORD PTR [edi+12], eax

; 169  : 	// XScale 높이 지정 - ojtaso (20080429)
; 170  : 	m_nScaleHeight = data.GetScaleHeight();

  000ec	8b 43 1c	 mov	 eax, DWORD PTR [ebx+28]
  000ef	89 47 1c	 mov	 DWORD PTR [edi+28], eax

; 557  : 		case CScaleBaseData::MINTICK_DAY_GUBUN:		eType = m_nGridTypeDay;		break;

  000f2	8b 43 20	 mov	 eax, DWORD PTR [ebx+32]

; 171  : 
; 172  : 	// 분/틱차트에서의 일자구분선 개별옵션 - onlyojt
; 173  : 	m_nGridTypeDay		= data.GetPeriodGridType(CScaleBaseData::MINTICK_DAY_GUBUN);

  000f5	89 47 20	 mov	 DWORD PTR [edi+32], eax

; 558  : 		case CScaleBaseData::DAYCHART_WEEK_GUBUN:	eType = m_nGridTypeWeek;	break;

  000f8	8b 43 24	 mov	 eax, DWORD PTR [ebx+36]

; 174  : 	m_nGridTypeWeek		= data.GetPeriodGridType(CScaleBaseData::DAYCHART_WEEK_GUBUN);

  000fb	89 47 24	 mov	 DWORD PTR [edi+36], eax

; 559  : 		case CScaleBaseData::DAYCHART_MON_GUBUN:	eType = m_nGridTypeMon;		break;

  000fe	8b 43 28	 mov	 eax, DWORD PTR [ebx+40]

; 175  : 	m_nGridTypeMon		= data.GetPeriodGridType(CScaleBaseData::DAYCHART_MON_GUBUN);

  00101	89 47 28	 mov	 DWORD PTR [edi+40], eax

; 560  : 		case CScaleBaseData::DAYCHART_YEAR_GUBUN:	eType = m_nGridTypeYear;	break;

  00104	8b 43 2c	 mov	 eax, DWORD PTR [ebx+44]

; 176  : 	m_nGridTypeYear		= data.GetPeriodGridType(CScaleBaseData::DAYCHART_YEAR_GUBUN);

  00107	89 47 2c	 mov	 DWORD PTR [edi+44], eax

; 608  : 		case CScaleBaseData::MINTICK_DAY_GUBUN:		bType = m_bOn_MINTICK_DAY;		break;

  0010a	8b 43 30	 mov	 eax, DWORD PTR [ebx+48]

; 177  : 
; 178  : 	//차트 시간구분 
; 179  : 	m_bOn_MINTICK_DAY   = data.GetCheckTime(CScaleBaseData::MINTICK_DAY_GUBUN);

  0010d	89 47 30	 mov	 DWORD PTR [edi+48], eax

; 609  : 		case CScaleBaseData::DAYCHART_WEEK_GUBUN:	bType = m_bOn_DAYCHART_WEEK;	break;

  00110	8b 43 34	 mov	 eax, DWORD PTR [ebx+52]

; 180  : 	m_bOn_DAYCHART_WEEK = data.GetCheckTime(CScaleBaseData::DAYCHART_WEEK_GUBUN);

  00113	89 47 34	 mov	 DWORD PTR [edi+52], eax

; 610  : 		case CScaleBaseData::DAYCHART_MON_GUBUN:	bType = m_bOn_DAYCHART_MON;		break;

  00116	8b 43 38	 mov	 eax, DWORD PTR [ebx+56]

; 181  : 	m_bOn_DAYCHART_MON  = data.GetCheckTime(CScaleBaseData::DAYCHART_MON_GUBUN);

  00119	89 47 38	 mov	 DWORD PTR [edi+56], eax

; 611  : 		case CScaleBaseData::DAYCHART_YEAR_GUBUN:	bType = m_bOn_DAYCHART_YEAR;	break;

  0011c	8b 43 3c	 mov	 eax, DWORD PTR [ebx+60]

; 182  : 	m_bOn_DAYCHART_YEAR = data.GetCheckTime(CScaleBaseData::DAYCHART_YEAR_GUBUN);

  0011f	89 47 3c	 mov	 DWORD PTR [edi+60], eax

; 609  : 		case CScaleBaseData::DAYCHART_WEEK_GUBUN:	bType = m_bOn_DAYCHART_WEEK;	break;

  00122	8b 43 34	 mov	 eax, DWORD PTR [ebx+52]

; 183  : 	m_bOn_WEEKCHART_MON = data.GetCheckTime(CScaleBaseData::DAYCHART_WEEK_GUBUN);;

  00125	89 47 40	 mov	 DWORD PTR [edi+64], eax

; 609  : 		case CScaleBaseData::DAYCHART_WEEK_GUBUN:	bType = m_bOn_DAYCHART_WEEK;	break;

  00128	8b 43 34	 mov	 eax, DWORD PTR [ebx+52]

; 184  : 	m_bOn_WEEKCHART_YEAR = data.GetCheckTime(CScaleBaseData::DAYCHART_WEEK_GUBUN);;

  0012b	89 47 44	 mov	 DWORD PTR [edi+68], eax

; 609  : 		case CScaleBaseData::DAYCHART_WEEK_GUBUN:	bType = m_bOn_DAYCHART_WEEK;	break;

  0012e	8b 43 34	 mov	 eax, DWORD PTR [ebx+52]

; 185  : 	m_bOn_MONCHART_YEAR = data.GetCheckTime(CScaleBaseData::DAYCHART_WEEK_GUBUN);;

  00131	89 47 48	 mov	 DWORD PTR [edi+72], eax

; 640  : 		case CScaleBaseData::MINTICK_DAY_GUBUN:		nGridWidth = m_nGridWidth_Day;		break;

  00134	0f b7 43 4c	 movzx	 eax, WORD PTR [ebx+76]

; 186  : 
; 187  : 	m_nGridWidth_Day	= data.GetGridWidth_Time(CScaleBaseData::MINTICK_DAY_GUBUN);

  00138	66 89 47 4c	 mov	 WORD PTR [edi+76], ax

; 641  : 		case CScaleBaseData::DAYCHART_WEEK_GUBUN:	nGridWidth = m_nGridWidth_Week;		break;

  0013c	0f b7 43 4e	 movzx	 eax, WORD PTR [ebx+78]

; 188  : 	m_nGridWidth_Week	= data.GetGridWidth_Time(CScaleBaseData::DAYCHART_WEEK_GUBUN);

  00140	66 89 47 4e	 mov	 WORD PTR [edi+78], ax

; 642  : 		case CScaleBaseData::DAYCHART_MON_GUBUN:	nGridWidth = m_nGridWidth_Mon;		break;

  00144	0f b7 43 50	 movzx	 eax, WORD PTR [ebx+80]

; 189  : 	m_nGridWidth_Mon	= data.GetGridWidth_Time(CScaleBaseData::DAYCHART_MON_GUBUN);

  00148	66 89 47 50	 mov	 WORD PTR [edi+80], ax

; 643  : 		case CScaleBaseData::DAYCHART_YEAR_GUBUN:	nGridWidth = m_nGridWidth_Year;		break;

  0014c	0f b7 43 52	 movzx	 eax, WORD PTR [ebx+82]

; 190  : 	m_nGridWidth_Year	= data.GetGridWidth_Time(CScaleBaseData::DAYCHART_YEAR_GUBUN);

  00150	66 89 47 52	 mov	 WORD PTR [edi+82], ax

; 640  : 		case CScaleBaseData::MINTICK_DAY_GUBUN:		nGridWidth = m_nGridWidth_Day;		break;

  00154	0f b7 43 4c	 movzx	 eax, WORD PTR [ebx+76]

; 191  : 
; 192  : 	m_clrDailyDivGridColor	= data.GetGridWidth_Time(CScaleBaseData::MINTICK_DAY_GUBUN);

  00158	89 47 54	 mov	 DWORD PTR [edi+84], eax

; 641  : 		case CScaleBaseData::DAYCHART_WEEK_GUBUN:	nGridWidth = m_nGridWidth_Week;		break;

  0015b	0f b7 43 4e	 movzx	 eax, WORD PTR [ebx+78]

; 193  : 	m_clrWeekDivGridColor	= data.GetGridWidth_Time(CScaleBaseData::DAYCHART_WEEK_GUBUN);

  0015f	89 47 58	 mov	 DWORD PTR [edi+88], eax

; 642  : 		case CScaleBaseData::DAYCHART_MON_GUBUN:	nGridWidth = m_nGridWidth_Mon;		break;

  00162	0f b7 43 50	 movzx	 eax, WORD PTR [ebx+80]

; 194  : 	m_clrMonDivGridColor	= data.GetGridWidth_Time(CScaleBaseData::DAYCHART_MON_GUBUN);

  00166	89 47 5c	 mov	 DWORD PTR [edi+92], eax

; 643  : 		case CScaleBaseData::DAYCHART_YEAR_GUBUN:	nGridWidth = m_nGridWidth_Year;		break;

  00169	0f b7 43 52	 movzx	 eax, WORD PTR [ebx+82]

; 195  : 	m_clrYearDivGridColor	= data.GetGridWidth_Time(CScaleBaseData::DAYCHART_YEAR_GUBUN);

  0016d	89 47 60	 mov	 DWORD PTR [edi+96], eax
$LN241@operator:

; 196  : 
; 197  : 	return *this;
; 198  : }

  00170	8b c7		 mov	 eax, edi
  00172	8b 4d f4	 mov	 ecx, DWORD PTR __$EHRec$[ebp]
  00175	64 89 0d 00 00
	00 00		 mov	 DWORD PTR fs:0, ecx
  0017c	59		 pop	 ecx
  0017d	5f		 pop	 edi
  0017e	5e		 pop	 esi
  0017f	5b		 pop	 ebx
  00180	8b e5		 mov	 esp, ebp
  00182	5d		 pop	 ebp
  00183	c2 04 00	 ret	 4
_TEXT	ENDS
;	COMDAT text$x
text$x	SEGMENT
__unwindfunclet$??4CHorizontalScale@@QAEAAV0@ABV0@@Z$0:
  00000	8d 4d e8	 lea	 ecx, DWORD PTR $T3[ebp]
  00003	e9 00 00 00 00	 jmp	 ??1CScale@@QAE@XZ
__unwindfunclet$??4CHorizontalScale@@QAEAAV0@ABV0@@Z$3:
  00008	8d 4d 08	 lea	 ecx, DWORD PTR $T4[ebp]
  0000b	ff 25 00 00 00
	00		 jmp	 DWORD PTR __imp_??1?$CStringT@DV?$StrTraitMFC_DLL@DV?$ChTraitsCRT@D@ATL@@@@@ATL@@QAE@XZ
__unwindfunclet$??4CHorizontalScale@@QAEAAV0@ABV0@@Z$7:
  00011	8d 4d dc	 lea	 ecx, DWORD PTR $T2[ebp]
  00014	ff 25 00 00 00
	00		 jmp	 DWORD PTR __imp_??1?$CStringT@DV?$StrTraitMFC_DLL@DV?$ChTraitsCRT@D@ATL@@@@@ATL@@QAE@XZ
__unwindfunclet$??4CHorizontalScale@@QAEAAV0@ABV0@@Z$1:
  0001a	8d 4d dc	 lea	 ecx, DWORD PTR $T2[ebp]
  0001d	e9 00 00 00 00	 jmp	 ??1CScaleCompart@@QAE@XZ
  00022	cc		 int	 3
  00023	cc		 int	 3
  00024	cc		 int	 3
  00025	cc		 int	 3
  00026	cc		 int	 3
__ehhandler$??4CHorizontalScale@@QAEAAV0@ABV0@@Z:
  00027	90		 npad	 1
  00028	90		 npad	 1
  00029	8b 54 24 08	 mov	 edx, DWORD PTR [esp+8]
  0002d	8d 42 0c	 lea	 eax, DWORD PTR [edx+12]
  00030	8b 4a d8	 mov	 ecx, DWORD PTR [edx-40]
  00033	33 c8		 xor	 ecx, eax
  00035	e8 00 00 00 00	 call	 @__security_check_cookie@4
  0003a	b8 00 00 00 00	 mov	 eax, OFFSET __ehfuncinfo$??4CHorizontalScale@@QAEAAV0@ABV0@@Z
  0003f	e9 00 00 00 00	 jmp	 ___CxxFrameHandler3
text$x	ENDS
??4CHorizontalScale@@QAEAAV0@ABV0@@Z ENDP		; CHorizontalScale::operator=
; Function compile flags: /Ogtp
;	COMDAT ??0CScale@@QAE@ABV0@@Z
_TEXT	SEGMENT
_this$ = -4						; size = 4
___that$ = 8						; size = 4
??0CScale@@QAE@ABV0@@Z PROC				; CScale::CScale, COMDAT
; _this$ = ecx
  00000	55		 push	 ebp
  00001	8b ec		 mov	 ebp, esp
  00003	51		 push	 ecx
  00004	56		 push	 esi
  00005	8b 75 08	 mov	 esi, DWORD PTR ___that$[ebp]
  00008	57		 push	 edi
  00009	8b f9		 mov	 edi, ecx
  0000b	89 7d fc	 mov	 DWORD PTR _this$[ebp], edi
  0000e	8d 46 04	 lea	 eax, DWORD PTR [esi+4]
  00011	50		 push	 eax
  00012	8d 4f 04	 lea	 ecx, DWORD PTR [edi+4]
  00015	c7 07 00 00 00
	00		 mov	 DWORD PTR [edi], OFFSET ??_7CScale@@6B@
  0001b	ff 15 00 00 00
	00		 call	 DWORD PTR __imp_??0?$CStringT@DV?$StrTraitMFC_DLL@DV?$ChTraitsCRT@D@ATL@@@@@ATL@@QAE@ABV01@@Z
  00021	8b 46 08	 mov	 eax, DWORD PTR [esi+8]
  00024	89 47 08	 mov	 DWORD PTR [edi+8], eax
  00027	8b c7		 mov	 eax, edi
  00029	5f		 pop	 edi
  0002a	5e		 pop	 esi
  0002b	8b e5		 mov	 esp, ebp
  0002d	5d		 pop	 ebp
  0002e	c2 04 00	 ret	 4
??0CScale@@QAE@ABV0@@Z ENDP				; CScale::CScale
_TEXT	ENDS
; Function compile flags: /Ogtp
;	COMDAT ??1CScale@@QAE@XZ
_TEXT	SEGMENT
??1CScale@@QAE@XZ PROC					; CScale::~CScale, COMDAT
; _this$ = ecx
  00000	83 c1 04	 add	 ecx, 4
  00003	ff 25 00 00 00
	00		 jmp	 DWORD PTR __imp_??1?$CStringT@DV?$StrTraitMFC_DLL@DV?$ChTraitsCRT@D@ATL@@@@@ATL@@QAE@XZ
??1CScale@@QAE@XZ ENDP					; CScale::~CScale
_TEXT	ENDS
; Function compile flags: /Ogtp
; File D:\git\src\IBK\IBK_DRFN\ProjSrc\SrcChartEx\ChartOCX\ScaleDraw\ScaleBaseData.cpp
;	COMDAT ?SetGridType@CScale@@IAEXPAD@Z
_TEXT	SEGMENT
_p_szGridType$ = 8					; size = 4
?SetGridType@CScale@@IAEXPAD@Z PROC			; CScale::SetGridType, COMDAT
; _this$ = ecx

; 150  : {

  00000	55		 push	 ebp
  00001	8b ec		 mov	 ebp, esp

; 151  : 	if( !p_szGridType) return;

  00003	8b 45 08	 mov	 eax, DWORD PTR _p_szGridType$[ebp]
  00006	56		 push	 esi
  00007	8b f1		 mov	 esi, ecx
  00009	85 c0		 test	 eax, eax
  0000b	74 12		 je	 SHORT $LN1@SetGridTyp

; 152  : 	if( !*p_szGridType) return;

  0000d	80 38 00	 cmp	 BYTE PTR [eax], 0
  00010	74 0d		 je	 SHORT $LN1@SetGridTyp

; 153  : 
; 154  : 	m_eScaleGrid = ( CScaleBaseData::SCALEGRIDTYPE)atoi( p_szGridType);

  00012	50		 push	 eax
  00013	ff 15 00 00 00
	00		 call	 DWORD PTR __imp__atoi
  00019	83 c4 04	 add	 esp, 4
  0001c	89 46 08	 mov	 DWORD PTR [esi+8], eax
$LN1@SetGridTyp:
  0001f	5e		 pop	 esi

; 155  : }

  00020	5d		 pop	 ebp
  00021	c2 04 00	 ret	 4
?SetGridType@CScale@@IAEXPAD@Z ENDP			; CScale::SetGridType
_TEXT	ENDS
; Function compile flags: /Ogtp
; File D:\git\src\IBK\IBK_DRFN\ProjSrc\SrcChartEx\ChartOCX\ScaleDraw\ScaleBaseData.cpp
;	COMDAT ?GetGridType@CScale@@QBE?AW4SCALEGRIDTYPE@CScaleBaseData@@XZ
_TEXT	SEGMENT
?GetGridType@CScale@@QBE?AW4SCALEGRIDTYPE@CScaleBaseData@@XZ PROC ; CScale::GetGridType, COMDAT
; _this$ = ecx

; 145  : 	return m_eScaleGrid;

  00000	8b 41 08	 mov	 eax, DWORD PTR [ecx+8]

; 146  : }

  00003	c3		 ret	 0
?GetGridType@CScale@@QBE?AW4SCALEGRIDTYPE@CScaleBaseData@@XZ ENDP ; CScale::GetGridType
_TEXT	ENDS
; Function compile flags: /Ogtp
; File D:\git\src\IBK\IBK_DRFN\ProjSrc\SrcChartEx\ChartOCX\ScaleDraw\ScaleBaseData.cpp
;	COMDAT ?GetScaleData@CScale@@QBE?AV?$CStringT@DV?$StrTraitMFC_DLL@DV?$ChTraitsCRT@D@ATL@@@@@ATL@@XZ
_TEXT	SEGMENT
___$ReturnUdt$ = 8					; size = 4
?GetScaleData@CScale@@QBE?AV?$CStringT@DV?$StrTraitMFC_DLL@DV?$ChTraitsCRT@D@ATL@@@@@ATL@@XZ PROC ; CScale::GetScaleData, COMDAT
; _this$ = ecx

; 139  : {

  00000	55		 push	 ebp
  00001	8b ec		 mov	 ebp, esp

; 140  : 	return m_strScaleData;

  00003	8d 41 04	 lea	 eax, DWORD PTR [ecx+4]
  00006	8b 4d 08	 mov	 ecx, DWORD PTR ___$ReturnUdt$[ebp]
  00009	50		 push	 eax
  0000a	ff 15 00 00 00
	00		 call	 DWORD PTR __imp_??0?$CStringT@DV?$StrTraitMFC_DLL@DV?$ChTraitsCRT@D@ATL@@@@@ATL@@QAE@ABV01@@Z
  00010	8b 45 08	 mov	 eax, DWORD PTR ___$ReturnUdt$[ebp]

; 141  : }

  00013	5d		 pop	 ebp
  00014	c2 04 00	 ret	 4
?GetScaleData@CScale@@QBE?AV?$CStringT@DV?$StrTraitMFC_DLL@DV?$ChTraitsCRT@D@ATL@@@@@ATL@@XZ ENDP ; CScale::GetScaleData
_TEXT	ENDS
; Function compile flags: /Ogtp
; File D:\git\src\IBK\IBK_DRFN\ProjSrc\SrcChartEx\ChartOCX\ScaleDraw\ScaleBaseData.cpp
;	COMDAT ?SetGridType@CScale@@QAEXW4SCALEGRIDTYPE@CScaleBaseData@@@Z
_TEXT	SEGMENT
_eGridType$ = 8						; size = 4
?SetGridType@CScale@@QAEXW4SCALEGRIDTYPE@CScaleBaseData@@@Z PROC ; CScale::SetGridType, COMDAT
; _this$ = ecx

; 134  : {

  00000	55		 push	 ebp
  00001	8b ec		 mov	 ebp, esp

; 135  : 	m_eScaleGrid = eGridType;

  00003	8b 45 08	 mov	 eax, DWORD PTR _eGridType$[ebp]
  00006	89 41 08	 mov	 DWORD PTR [ecx+8], eax

; 136  : }

  00009	5d		 pop	 ebp
  0000a	c2 04 00	 ret	 4
?SetGridType@CScale@@QAEXW4SCALEGRIDTYPE@CScaleBaseData@@@Z ENDP ; CScale::SetGridType
_TEXT	ENDS
; Function compile flags: /Ogtp
; File D:\git\src\IBK\IBK_DRFN\ProjSrc\SrcChartEx\ChartOCX\ScaleDraw\ScaleBaseData.cpp
;	COMDAT ?SetScaleData@CScale@@UAEXPADPAUHWND__@@@Z
_TEXT	SEGMENT
_p_szScaleData$ = 8					; size = 4
_p_hOcxWnd$ = 12					; size = 4
?SetScaleData@CScale@@UAEXPADPAUHWND__@@@Z PROC		; CScale::SetScaleData, COMDAT
; _this$ = ecx

; 129  : {

  00000	55		 push	 ebp
  00001	8b ec		 mov	 ebp, esp

; 130  : 	m_strScaleData = p_szScaleData;

  00003	ff 75 08	 push	 DWORD PTR _p_szScaleData$[ebp]
  00006	83 c1 04	 add	 ecx, 4
  00009	ff 15 00 00 00
	00		 call	 DWORD PTR __imp_??4?$CStringT@DV?$StrTraitMFC_DLL@DV?$ChTraitsCRT@D@ATL@@@@@ATL@@QAEAAV01@PBD@Z

; 131  : }

  0000f	5d		 pop	 ebp
  00010	c2 08 00	 ret	 8
?SetScaleData@CScale@@UAEXPADPAUHWND__@@@Z ENDP		; CScale::SetScaleData
_TEXT	ENDS
; Function compile flags: /Ogtp
; File D:\git\src\IBK\IBK_DRFN\ProjSrc\SrcChartEx\ChartOCX\ScaleDraw\ScaleBaseData.cpp
;	COMDAT ?SetData@CScale@@QAEXABV?$CStringT@DV?$StrTraitMFC_DLL@DV?$ChTraitsCRT@D@ATL@@@@@ATL@@@Z
_TEXT	SEGMENT
_scaleData$ = 8						; size = 4
?SetData@CScale@@QAEXABV?$CStringT@DV?$StrTraitMFC_DLL@DV?$ChTraitsCRT@D@ATL@@@@@ATL@@@Z PROC ; CScale::SetData, COMDAT
; _this$ = ecx

; 124  : {

  00000	55		 push	 ebp
  00001	8b ec		 mov	 ebp, esp

; 125  : 	m_strScaleData = scaleData;

  00003	83 c1 04	 add	 ecx, 4

; 126  : }

  00006	5d		 pop	 ebp

; 125  : 	m_strScaleData = scaleData;

  00007	ff 25 00 00 00
	00		 jmp	 DWORD PTR __imp_??4?$CStringT@DV?$StrTraitMFC_DLL@DV?$ChTraitsCRT@D@ATL@@@@@ATL@@QAEAAV01@ABV01@@Z
?SetData@CScale@@QAEXABV?$CStringT@DV?$StrTraitMFC_DLL@DV?$ChTraitsCRT@D@ATL@@@@@ATL@@@Z ENDP ; CScale::SetData
_TEXT	ENDS
; Function compile flags: /Ogtp
; File D:\git\src\IBK\IBK_DRFN\ProjSrc\SrcChartEx\ChartOCX\ScaleDraw\ScaleBaseData.cpp
;	COMDAT ??0CScale@@QAE@XZ
_TEXT	SEGMENT
_this$ = -4						; size = 4
??0CScale@@QAE@XZ PROC					; CScale::CScale, COMDAT
; _this$ = ecx

; 120  : {

  00000	55		 push	 ebp
  00001	8b ec		 mov	 ebp, esp
  00003	51		 push	 ecx
  00004	56		 push	 esi
  00005	8b f1		 mov	 esi, ecx
  00007	89 75 fc	 mov	 DWORD PTR _this$[ebp], esi
  0000a	8d 4e 04	 lea	 ecx, DWORD PTR [esi+4]
  0000d	c7 06 00 00 00
	00		 mov	 DWORD PTR [esi], OFFSET ??_7CScale@@6B@
  00013	ff 15 00 00 00
	00		 call	 DWORD PTR __imp_??0?$CStringT@DV?$StrTraitMFC_DLL@DV?$ChTraitsCRT@D@ATL@@@@@ATL@@QAE@XZ

; 119  : 	m_eScaleGrid(CScaleBaseData::SLNONE)

  00019	c7 46 08 03 00
	00 00		 mov	 DWORD PTR [esi+8], 3

; 121  : }

  00020	8b c6		 mov	 eax, esi
  00022	5e		 pop	 esi
  00023	8b e5		 mov	 esp, ebp
  00025	5d		 pop	 ebp
  00026	c3		 ret	 0
??0CScale@@QAE@XZ ENDP					; CScale::CScale
_TEXT	ENDS
; Function compile flags: /Ogtp
; File D:\git\src\IBK\IBK_DRFN\ProjSrc\SrcChartEx\ChartOCX\ScaleDraw\ScaleBaseData.cpp
;	COMDAT ??4CScale@@QAEAAV0@ABV0@@Z
_TEXT	SEGMENT
__$EHRec$ = -12						; size = 12
$T2 = 8							; size = 4
_data$ = 8						; size = 4
??4CScale@@QAEAAV0@ABV0@@Z PROC				; CScale::operator=, COMDAT
; _this$ = ecx

; 109  : {

  00000	55		 push	 ebp
  00001	8b ec		 mov	 ebp, esp
  00003	6a ff		 push	 -1
  00005	68 00 00 00 00	 push	 __ehhandler$??4CScale@@QAEAAV0@ABV0@@Z
  0000a	64 a1 00 00 00
	00		 mov	 eax, DWORD PTR fs:0
  00010	50		 push	 eax
  00011	56		 push	 esi
  00012	57		 push	 edi
  00013	a1 00 00 00 00	 mov	 eax, DWORD PTR ___security_cookie
  00018	33 c5		 xor	 eax, ebp
  0001a	50		 push	 eax
  0001b	8d 45 f4	 lea	 eax, DWORD PTR __$EHRec$[ebp]
  0001e	64 a3 00 00 00
	00		 mov	 DWORD PTR fs:0, eax
  00024	8b f1		 mov	 esi, ecx

; 110  : 	if(this == &data)

  00026	8b 7d 08	 mov	 edi, DWORD PTR _data$[ebp]
  00029	3b f7		 cmp	 esi, edi
  0002b	74 30		 je	 SHORT $LN10@operator

; 140  : 	return m_strScaleData;

  0002d	8d 47 04	 lea	 eax, DWORD PTR [edi+4]
  00030	50		 push	 eax
  00031	8d 4d 08	 lea	 ecx, DWORD PTR $T2[ebp]
  00034	ff 15 00 00 00
	00		 call	 DWORD PTR __imp_??0?$CStringT@DV?$StrTraitMFC_DLL@DV?$ChTraitsCRT@D@ATL@@@@@ATL@@QAE@ABV01@@Z

; 111  : 		return *this;
; 112  : 
; 113  : 	m_strScaleData = data.GetScaleData();

  0003a	8d 45 08	 lea	 eax, DWORD PTR $T2[ebp]
  0003d	c7 45 fc 00 00
	00 00		 mov	 DWORD PTR __$EHRec$[ebp+8], 0
  00044	50		 push	 eax
  00045	8d 4e 04	 lea	 ecx, DWORD PTR [esi+4]
  00048	ff 15 00 00 00
	00		 call	 DWORD PTR __imp_??4?$CStringT@DV?$StrTraitMFC_DLL@DV?$ChTraitsCRT@D@ATL@@@@@ATL@@QAEAAV01@ABV01@@Z
  0004e	8d 4d 08	 lea	 ecx, DWORD PTR $T2[ebp]
  00051	ff 15 00 00 00
	00		 call	 DWORD PTR __imp_??1?$CStringT@DV?$StrTraitMFC_DLL@DV?$ChTraitsCRT@D@ATL@@@@@ATL@@QAE@XZ

; 114  : 	m_eScaleGrid = data.GetGridType();

  00057	8b 47 08	 mov	 eax, DWORD PTR [edi+8]
  0005a	89 46 08	 mov	 DWORD PTR [esi+8], eax
$LN10@operator:

; 115  : 	return *this;
; 116  : }

  0005d	8b c6		 mov	 eax, esi
  0005f	8b 4d f4	 mov	 ecx, DWORD PTR __$EHRec$[ebp]
  00062	64 89 0d 00 00
	00 00		 mov	 DWORD PTR fs:0, ecx
  00069	59		 pop	 ecx
  0006a	5f		 pop	 edi
  0006b	5e		 pop	 esi
  0006c	8b e5		 mov	 esp, ebp
  0006e	5d		 pop	 ebp
  0006f	c2 04 00	 ret	 4
_TEXT	ENDS
;	COMDAT text$x
text$x	SEGMENT
__unwindfunclet$??4CScale@@QAEAAV0@ABV0@@Z$0:
  00000	8d 4d 08	 lea	 ecx, DWORD PTR $T2[ebp]
  00003	ff 25 00 00 00
	00		 jmp	 DWORD PTR __imp_??1?$CStringT@DV?$StrTraitMFC_DLL@DV?$ChTraitsCRT@D@ATL@@@@@ATL@@QAE@XZ
  00009	cc		 int	 3
  0000a	cc		 int	 3
  0000b	cc		 int	 3
  0000c	cc		 int	 3
  0000d	cc		 int	 3
__ehhandler$??4CScale@@QAEAAV0@ABV0@@Z:
  0000e	90		 npad	 1
  0000f	90		 npad	 1
  00010	8b 54 24 08	 mov	 edx, DWORD PTR [esp+8]
  00014	8d 42 0c	 lea	 eax, DWORD PTR [edx+12]
  00017	8b 4a f4	 mov	 ecx, DWORD PTR [edx-12]
  0001a	33 c8		 xor	 ecx, eax
  0001c	e8 00 00 00 00	 call	 @__security_check_cookie@4
  00021	b8 00 00 00 00	 mov	 eax, OFFSET __ehfuncinfo$??4CScale@@QAEAAV0@ABV0@@Z
  00026	e9 00 00 00 00	 jmp	 ___CxxFrameHandler3
text$x	ENDS
??4CScale@@QAEAAV0@ABV0@@Z ENDP				; CScale::operator=
; Function compile flags: /Ogtp
;	COMDAT ??0CScaleCompart@@QAE@ABV0@@Z
_TEXT	SEGMENT
_this$ = -16						; size = 4
__$EHRec$ = -12						; size = 12
___that$ = 8						; size = 4
??0CScaleCompart@@QAE@ABV0@@Z PROC			; CScaleCompart::CScaleCompart, COMDAT
; _this$ = ecx
  00000	55		 push	 ebp
  00001	8b ec		 mov	 ebp, esp
  00003	6a ff		 push	 -1
  00005	68 00 00 00 00	 push	 __ehhandler$??0CScaleCompart@@QAE@ABV0@@Z
  0000a	64 a1 00 00 00
	00		 mov	 eax, DWORD PTR fs:0
  00010	50		 push	 eax
  00011	51		 push	 ecx
  00012	56		 push	 esi
  00013	57		 push	 edi
  00014	a1 00 00 00 00	 mov	 eax, DWORD PTR ___security_cookie
  00019	33 c5		 xor	 eax, ebp
  0001b	50		 push	 eax
  0001c	8d 45 f4	 lea	 eax, DWORD PTR __$EHRec$[ebp]
  0001f	64 a3 00 00 00
	00		 mov	 DWORD PTR fs:0, eax
  00025	8b f9		 mov	 edi, ecx
  00027	89 7d f0	 mov	 DWORD PTR _this$[ebp], edi
  0002a	8b 75 08	 mov	 esi, DWORD PTR ___that$[ebp]
  0002d	56		 push	 esi
  0002e	ff 15 00 00 00
	00		 call	 DWORD PTR __imp_??0?$CStringT@DV?$StrTraitMFC_DLL@DV?$ChTraitsCRT@D@ATL@@@@@ATL@@QAE@ABV01@@Z
  00034	8d 46 04	 lea	 eax, DWORD PTR [esi+4]
  00037	c7 45 fc 00 00
	00 00		 mov	 DWORD PTR __$EHRec$[ebp+8], 0
  0003e	50		 push	 eax
  0003f	8d 4f 04	 lea	 ecx, DWORD PTR [edi+4]
  00042	ff 15 00 00 00
	00		 call	 DWORD PTR __imp_??0?$CStringT@DV?$StrTraitMFC_DLL@DV?$ChTraitsCRT@D@ATL@@@@@ATL@@QAE@ABV01@@Z
  00048	8b 46 08	 mov	 eax, DWORD PTR [esi+8]
  0004b	89 47 08	 mov	 DWORD PTR [edi+8], eax
  0004e	8b c7		 mov	 eax, edi
  00050	8b 4d f4	 mov	 ecx, DWORD PTR __$EHRec$[ebp]
  00053	64 89 0d 00 00
	00 00		 mov	 DWORD PTR fs:0, ecx
  0005a	59		 pop	 ecx
  0005b	5f		 pop	 edi
  0005c	5e		 pop	 esi
  0005d	8b e5		 mov	 esp, ebp
  0005f	5d		 pop	 ebp
  00060	c2 04 00	 ret	 4
_TEXT	ENDS
;	COMDAT text$x
text$x	SEGMENT
__unwindfunclet$??0CScaleCompart@@QAE@ABV0@@Z$0:
  00000	8b 4d f0	 mov	 ecx, DWORD PTR _this$[ebp]
  00003	ff 25 00 00 00
	00		 jmp	 DWORD PTR __imp_??1?$CStringT@DV?$StrTraitMFC_DLL@DV?$ChTraitsCRT@D@ATL@@@@@ATL@@QAE@XZ
  00009	cc		 int	 3
  0000a	cc		 int	 3
  0000b	cc		 int	 3
  0000c	cc		 int	 3
  0000d	cc		 int	 3
__ehhandler$??0CScaleCompart@@QAE@ABV0@@Z:
  0000e	90		 npad	 1
  0000f	90		 npad	 1
  00010	8b 54 24 08	 mov	 edx, DWORD PTR [esp+8]
  00014	8d 42 0c	 lea	 eax, DWORD PTR [edx+12]
  00017	8b 4a f0	 mov	 ecx, DWORD PTR [edx-16]
  0001a	33 c8		 xor	 ecx, eax
  0001c	e8 00 00 00 00	 call	 @__security_check_cookie@4
  00021	b8 00 00 00 00	 mov	 eax, OFFSET __ehfuncinfo$??0CScaleCompart@@QAE@ABV0@@Z
  00026	e9 00 00 00 00	 jmp	 ___CxxFrameHandler3
text$x	ENDS
??0CScaleCompart@@QAE@ABV0@@Z ENDP			; CScaleCompart::CScaleCompart
; Function compile flags: /Ogtp
;	COMDAT ??1CScaleCompart@@QAE@XZ
_TEXT	SEGMENT
??1CScaleCompart@@QAE@XZ PROC				; CScaleCompart::~CScaleCompart, COMDAT
; _this$ = ecx
  00000	56		 push	 esi
  00001	8b f1		 mov	 esi, ecx
  00003	8d 4e 04	 lea	 ecx, DWORD PTR [esi+4]
  00006	ff 15 00 00 00
	00		 call	 DWORD PTR __imp_??1?$CStringT@DV?$StrTraitMFC_DLL@DV?$ChTraitsCRT@D@ATL@@@@@ATL@@QAE@XZ
  0000c	8b ce		 mov	 ecx, esi
  0000e	5e		 pop	 esi
  0000f	ff 25 00 00 00
	00		 jmp	 DWORD PTR __imp_??1?$CStringT@DV?$StrTraitMFC_DLL@DV?$ChTraitsCRT@D@ATL@@@@@ATL@@QAE@XZ
??1CScaleCompart@@QAE@XZ ENDP				; CScaleCompart::~CScaleCompart
_TEXT	ENDS
; Function compile flags: /Ogtp
; File D:\git\src\IBK\IBK_DRFN\ProjSrc\SrcChartEx\ChartOCX\ScaleDraw\ScaleBaseData.cpp
;	COMDAT ?SetScaleTextType@CScaleCompart@@QAEXW4TEXTCOMPARTTYPE@CScaleBaseData@@@Z
_TEXT	SEGMENT
_eTextType$ = 8						; size = 4
?SetScaleTextType@CScaleCompart@@QAEXW4TEXTCOMPARTTYPE@CScaleBaseData@@@Z PROC ; CScaleCompart::SetScaleTextType, COMDAT
; _this$ = ecx

; 100  : {

  00000	55		 push	 ebp
  00001	8b ec		 mov	 ebp, esp

; 101  : 	m_eTextType = eTextType;

  00003	8b 45 08	 mov	 eax, DWORD PTR _eTextType$[ebp]
  00006	89 41 08	 mov	 DWORD PTR [ecx+8], eax

; 102  : }

  00009	5d		 pop	 ebp
  0000a	c2 04 00	 ret	 4
?SetScaleTextType@CScaleCompart@@QAEXW4TEXTCOMPARTTYPE@CScaleBaseData@@@Z ENDP ; CScaleCompart::SetScaleTextType
_TEXT	ENDS
; Function compile flags: /Ogtp
; File D:\git\src\IBK\IBK_DRFN\ProjSrc\SrcChartEx\ChartOCX\ScaleDraw\ScaleBaseData.cpp
;	COMDAT ?SetTimeCompart@CScaleCompart@@QAEXABV?$CStringT@DV?$StrTraitMFC_DLL@DV?$ChTraitsCRT@D@ATL@@@@@ATL@@@Z
_TEXT	SEGMENT
_timeCompart$ = 8					; size = 4
?SetTimeCompart@CScaleCompart@@QAEXABV?$CStringT@DV?$StrTraitMFC_DLL@DV?$ChTraitsCRT@D@ATL@@@@@ATL@@@Z PROC ; CScaleCompart::SetTimeCompart, COMDAT
; _this$ = ecx

; 95   : {

  00000	55		 push	 ebp
  00001	8b ec		 mov	 ebp, esp

; 96   : 	m_strTimeCompart = timeCompart;

  00003	83 c1 04	 add	 ecx, 4

; 97   : }

  00006	5d		 pop	 ebp

; 96   : 	m_strTimeCompart = timeCompart;

  00007	ff 25 00 00 00
	00		 jmp	 DWORD PTR __imp_??4?$CStringT@DV?$StrTraitMFC_DLL@DV?$ChTraitsCRT@D@ATL@@@@@ATL@@QAEAAV01@ABV01@@Z
?SetTimeCompart@CScaleCompart@@QAEXABV?$CStringT@DV?$StrTraitMFC_DLL@DV?$ChTraitsCRT@D@ATL@@@@@ATL@@@Z ENDP ; CScaleCompart::SetTimeCompart
_TEXT	ENDS
; Function compile flags: /Ogtp
; File D:\git\src\IBK\IBK_DRFN\ProjSrc\SrcChartEx\ChartOCX\ScaleDraw\ScaleBaseData.cpp
;	COMDAT ?SetDateCompart@CScaleCompart@@QAEXABV?$CStringT@DV?$StrTraitMFC_DLL@DV?$ChTraitsCRT@D@ATL@@@@@ATL@@@Z
_TEXT	SEGMENT
_dateCompart$ = 8					; size = 4
?SetDateCompart@CScaleCompart@@QAEXABV?$CStringT@DV?$StrTraitMFC_DLL@DV?$ChTraitsCRT@D@ATL@@@@@ATL@@@Z PROC ; CScaleCompart::SetDateCompart, COMDAT
; _this$ = ecx

; 90   : {

  00000	55		 push	 ebp
  00001	8b ec		 mov	 ebp, esp

; 92   : }

  00003	5d		 pop	 ebp

; 91   : 	m_strDateCompart = dateCompart;

  00004	ff 25 00 00 00
	00		 jmp	 DWORD PTR __imp_??4?$CStringT@DV?$StrTraitMFC_DLL@DV?$ChTraitsCRT@D@ATL@@@@@ATL@@QAEAAV01@ABV01@@Z
?SetDateCompart@CScaleCompart@@QAEXABV?$CStringT@DV?$StrTraitMFC_DLL@DV?$ChTraitsCRT@D@ATL@@@@@ATL@@@Z ENDP ; CScaleCompart::SetDateCompart
_TEXT	ENDS
; Function compile flags: /Ogtp
; File D:\git\src\IBK\IBK_DRFN\ProjSrc\SrcChartEx\ChartOCX\ScaleDraw\ScaleBaseData.cpp
; File C:\Program Files (x86)\Windows Kits\10\Include\10.0.22000.0\ucrt\string.h
; File D:\git\src\IBK\IBK_DRFN\ProjSrc\SrcChartEx\ChartOCX\ScaleDraw\ScaleBaseData.cpp
; File C:\Program Files (x86)\Windows Kits\10\Include\10.0.22000.0\ucrt\string.h
; File D:\git\src\IBK\IBK_DRFN\ProjSrc\SrcChartEx\ChartOCX\ScaleDraw\ScaleBaseData.cpp
; File C:\Program Files (x86)\Windows Kits\10\Include\10.0.22000.0\ucrt\string.h
; File D:\git\src\IBK\IBK_DRFN\ProjSrc\SrcChartEx\ChartOCX\ScaleDraw\ScaleBaseData.cpp
;	COMDAT ?SetCompart@CScaleCompart@@QAEXPAD@Z
_TEXT	SEGMENT
_p_szCompart$ = 8					; size = 4
?SetCompart@CScaleCompart@@QAEXPAD@Z PROC		; CScaleCompart::SetCompart, COMDAT
; _this$ = ecx

; 64   : {

  00000	55		 push	 ebp
  00001	8b ec		 mov	 ebp, esp
  00003	56		 push	 esi
  00004	8b 75 08	 mov	 esi, DWORD PTR _p_szCompart$[ebp]
  00007	57		 push	 edi
  00008	8b f9		 mov	 edi, ecx

; 65   : 	if( !p_szCompart) return;

  0000a	85 f6		 test	 esi, esi
  0000c	0f 84 97 00 00
	00		 je	 $LN12@SetCompart

; 66   : 	if( !*p_szCompart) return;

  00012	80 3e 00	 cmp	 BYTE PTR [esi], 0
  00015	0f 84 8e 00 00
	00		 je	 $LN12@SetCompart
; File C:\Program Files (x86)\Windows Kits\10\Include\10.0.22000.0\ucrt\string.h

; 502  :         return const_cast<char*>(strchr(static_cast<char const*>(_String), _Ch));

  0001b	53		 push	 ebx
  0001c	6a 3b		 push	 59			; 0000003bH
  0001e	56		 push	 esi
  0001f	e8 00 00 00 00	 call	 _strchr
  00024	83 c4 08	 add	 esp, 8
; File D:\git\src\IBK\IBK_DRFN\ProjSrc\SrcChartEx\ChartOCX\ScaleDraw\ScaleBaseData.cpp

; 68   : 	char *szTimeCompart = strchr( p_szCompart, ';');

  00027	8b d8		 mov	 ebx, eax

; 69   : 	if( szTimeCompart) *szTimeCompart = '\0';

  00029	8b cf		 mov	 ecx, edi
  0002b	56		 push	 esi
  0002c	85 db		 test	 ebx, ebx
  0002e	74 72		 je	 SHORT $LN4@SetCompart
  00030	c6 03 00	 mov	 BYTE PTR [ebx], 0
  00033	ff 15 00 00 00
	00		 call	 DWORD PTR __imp_??4?$CStringT@DV?$StrTraitMFC_DLL@DV?$ChTraitsCRT@D@ATL@@@@@ATL@@QAEAAV01@PBD@Z

; 71   : 	if( szTimeCompart) *szTimeCompart++ = ';';

  00039	c6 03 3b	 mov	 BYTE PTR [ebx], 59	; 0000003bH
  0003c	43		 inc	 ebx
; File C:\Program Files (x86)\Windows Kits\10\Include\10.0.22000.0\ucrt\string.h

; 502  :         return const_cast<char*>(strchr(static_cast<char const*>(_String), _Ch));

  0003d	6a 3b		 push	 59			; 0000003bH
  0003f	53		 push	 ebx
  00040	e8 00 00 00 00	 call	 _strchr
  00045	83 c4 08	 add	 esp, 8
; File D:\git\src\IBK\IBK_DRFN\ProjSrc\SrcChartEx\ChartOCX\ScaleDraw\ScaleBaseData.cpp

; 75   : 	if( szTextType) *szTextType = '\0';

  00048	8d 4f 04	 lea	 ecx, DWORD PTR [edi+4]
  0004b	8b f0		 mov	 esi, eax
  0004d	53		 push	 ebx
  0004e	85 f6		 test	 esi, esi
  00050	74 50		 je	 SHORT $LN4@SetCompart
  00052	c6 06 00	 mov	 BYTE PTR [esi], 0
  00055	ff 15 00 00 00
	00		 call	 DWORD PTR __imp_??4?$CStringT@DV?$StrTraitMFC_DLL@DV?$ChTraitsCRT@D@ATL@@@@@ATL@@QAEAAV01@PBD@Z

; 76   : 	m_strTimeCompart = szTimeCompart;
; 77   : 	if( szTextType) *szTextType++ = ';';

  0005b	c6 06 3b	 mov	 BYTE PTR [esi], 59	; 0000003bH
  0005e	46		 inc	 esi

; 78   : 	else return;
; 79   : 
; 80   : 	if( !*szTextType) return;

  0005f	80 3e 00	 cmp	 BYTE PTR [esi], 0
  00062	74 44		 je	 SHORT $LN24@SetCompart
; File C:\Program Files (x86)\Windows Kits\10\Include\10.0.22000.0\ucrt\string.h

; 502  :         return const_cast<char*>(strchr(static_cast<char const*>(_String), _Ch));

  00064	6a 3b		 push	 59			; 0000003bH
  00066	56		 push	 esi
  00067	e8 00 00 00 00	 call	 _strchr
  0006c	83 c4 08	 add	 esp, 8
; File D:\git\src\IBK\IBK_DRFN\ProjSrc\SrcChartEx\ChartOCX\ScaleDraw\ScaleBaseData.cpp

; 82   : 	char *szEnd = strchr( szTextType, ';');

  0006f	8b d8		 mov	 ebx, eax

; 83   : 	if( szEnd) *szEnd = '\0';

  00071	56		 push	 esi
  00072	85 db		 test	 ebx, ebx
  00074	74 19		 je	 SHORT $LN11@SetCompart
  00076	c6 03 00	 mov	 BYTE PTR [ebx], 0
  00079	ff 15 00 00 00
	00		 call	 DWORD PTR __imp__atoi
  0007f	83 c4 04	 add	 esp, 4
  00082	89 47 08	 mov	 DWORD PTR [edi+8], eax

; 85   : 	if( szEnd) *szEnd++ = ';';

  00085	c6 03 3b	 mov	 BYTE PTR [ebx], 59	; 0000003bH
  00088	5b		 pop	 ebx
  00089	5f		 pop	 edi

; 86   : 	else return;
; 87   : }

  0008a	5e		 pop	 esi
  0008b	5d		 pop	 ebp
  0008c	c2 04 00	 ret	 4
$LN11@SetCompart:

; 84   : 	m_eTextType = ( CScaleBaseData::TEXTCOMPARTTYPE)atoi( szTextType);;

  0008f	ff 15 00 00 00
	00		 call	 DWORD PTR __imp__atoi
  00095	83 c4 04	 add	 esp, 4
  00098	89 47 08	 mov	 DWORD PTR [edi+8], eax
  0009b	5b		 pop	 ebx
  0009c	5f		 pop	 edi

; 86   : 	else return;
; 87   : }

  0009d	5e		 pop	 esi
  0009e	5d		 pop	 ebp
  0009f	c2 04 00	 ret	 4
$LN4@SetCompart:

; 70   : 	m_strDateCompart = p_szCompart;

  000a2	ff 15 00 00 00
	00		 call	 DWORD PTR __imp_??4?$CStringT@DV?$StrTraitMFC_DLL@DV?$ChTraitsCRT@D@ATL@@@@@ATL@@QAEAAV01@PBD@Z
$LN24@SetCompart:
  000a8	5b		 pop	 ebx
$LN12@SetCompart:
  000a9	5f		 pop	 edi

; 86   : 	else return;
; 87   : }

  000aa	5e		 pop	 esi
  000ab	5d		 pop	 ebp
  000ac	c2 04 00	 ret	 4
?SetCompart@CScaleCompart@@QAEXPAD@Z ENDP		; CScaleCompart::SetCompart
_TEXT	ENDS
; Function compile flags: /Ogtp
; File D:\git\src\IBK\IBK_DRFN\ProjSrc\SrcChartEx\ChartOCX\ScaleDraw\ScaleBaseData.cpp
;	COMDAT ?GetScaleTextType@CScaleCompart@@QBE?AW4TEXTCOMPARTTYPE@CScaleBaseData@@XZ
_TEXT	SEGMENT
?GetScaleTextType@CScaleCompart@@QBE?AW4TEXTCOMPARTTYPE@CScaleBaseData@@XZ PROC ; CScaleCompart::GetScaleTextType, COMDAT
; _this$ = ecx

; 60   : 	return m_eTextType;

  00000	8b 41 08	 mov	 eax, DWORD PTR [ecx+8]

; 61   : }

  00003	c3		 ret	 0
?GetScaleTextType@CScaleCompart@@QBE?AW4TEXTCOMPARTTYPE@CScaleBaseData@@XZ ENDP ; CScaleCompart::GetScaleTextType
_TEXT	ENDS
; Function compile flags: /Ogtp
; File D:\git\src\IBK\IBK_DRFN\ProjSrc\SrcChartEx\ChartOCX\ScaleDraw\ScaleBaseData.cpp
;	COMDAT ?GetTimeCompart@CScaleCompart@@QBE?AV?$CStringT@DV?$StrTraitMFC_DLL@DV?$ChTraitsCRT@D@ATL@@@@@ATL@@XZ
_TEXT	SEGMENT
___$ReturnUdt$ = 8					; size = 4
?GetTimeCompart@CScaleCompart@@QBE?AV?$CStringT@DV?$StrTraitMFC_DLL@DV?$ChTraitsCRT@D@ATL@@@@@ATL@@XZ PROC ; CScaleCompart::GetTimeCompart, COMDAT
; _this$ = ecx

; 54   : {

  00000	55		 push	 ebp
  00001	8b ec		 mov	 ebp, esp

; 55   : 	return m_strTimeCompart;

  00003	8d 41 04	 lea	 eax, DWORD PTR [ecx+4]
  00006	8b 4d 08	 mov	 ecx, DWORD PTR ___$ReturnUdt$[ebp]
  00009	50		 push	 eax
  0000a	ff 15 00 00 00
	00		 call	 DWORD PTR __imp_??0?$CStringT@DV?$StrTraitMFC_DLL@DV?$ChTraitsCRT@D@ATL@@@@@ATL@@QAE@ABV01@@Z
  00010	8b 45 08	 mov	 eax, DWORD PTR ___$ReturnUdt$[ebp]

; 56   : }

  00013	5d		 pop	 ebp
  00014	c2 04 00	 ret	 4
?GetTimeCompart@CScaleCompart@@QBE?AV?$CStringT@DV?$StrTraitMFC_DLL@DV?$ChTraitsCRT@D@ATL@@@@@ATL@@XZ ENDP ; CScaleCompart::GetTimeCompart
_TEXT	ENDS
; Function compile flags: /Ogtp
; File D:\git\src\IBK\IBK_DRFN\ProjSrc\SrcChartEx\ChartOCX\ScaleDraw\ScaleBaseData.cpp
;	COMDAT ?GetDateCompart@CScaleCompart@@QBE?AV?$CStringT@DV?$StrTraitMFC_DLL@DV?$ChTraitsCRT@D@ATL@@@@@ATL@@XZ
_TEXT	SEGMENT
___$ReturnUdt$ = 8					; size = 4
?GetDateCompart@CScaleCompart@@QBE?AV?$CStringT@DV?$StrTraitMFC_DLL@DV?$ChTraitsCRT@D@ATL@@@@@ATL@@XZ PROC ; CScaleCompart::GetDateCompart, COMDAT
; _this$ = ecx

; 49   : {

  00000	55		 push	 ebp
  00001	8b ec		 mov	 ebp, esp

; 50   : 	return m_strDateCompart;

  00003	51		 push	 ecx
  00004	8b 4d 08	 mov	 ecx, DWORD PTR ___$ReturnUdt$[ebp]
  00007	ff 15 00 00 00
	00		 call	 DWORD PTR __imp_??0?$CStringT@DV?$StrTraitMFC_DLL@DV?$ChTraitsCRT@D@ATL@@@@@ATL@@QAE@ABV01@@Z
  0000d	8b 45 08	 mov	 eax, DWORD PTR ___$ReturnUdt$[ebp]

; 51   : }

  00010	5d		 pop	 ebp
  00011	c2 04 00	 ret	 4
?GetDateCompart@CScaleCompart@@QBE?AV?$CStringT@DV?$StrTraitMFC_DLL@DV?$ChTraitsCRT@D@ATL@@@@@ATL@@XZ ENDP ; CScaleCompart::GetDateCompart
_TEXT	ENDS
; Function compile flags: /Ogtp
; File D:\git\src\IBK\IBK_DRFN\ProjSrc\SrcChartEx\ChartOCX\ScaleDraw\ScaleBaseData.cpp
;	COMDAT ??0CScaleCompart@@QAE@ABV?$CStringT@DV?$StrTraitMFC_DLL@DV?$ChTraitsCRT@D@ATL@@@@@ATL@@0W4TEXTCOMPARTTYPE@CScaleBaseData@@@Z
_TEXT	SEGMENT
_this$ = -16						; size = 4
__$EHRec$ = -12						; size = 12
_dateCompart$ = 8					; size = 4
_timeCompart$ = 12					; size = 4
_eTextType$ = 16					; size = 4
??0CScaleCompart@@QAE@ABV?$CStringT@DV?$StrTraitMFC_DLL@DV?$ChTraitsCRT@D@ATL@@@@@ATL@@0W4TEXTCOMPARTTYPE@CScaleBaseData@@@Z PROC ; CScaleCompart::CScaleCompart, COMDAT
; _this$ = ecx

; 45   : {

  00000	55		 push	 ebp
  00001	8b ec		 mov	 ebp, esp
  00003	6a ff		 push	 -1
  00005	68 00 00 00 00	 push	 __ehhandler$??0CScaleCompart@@QAE@ABV?$CStringT@DV?$StrTraitMFC_DLL@DV?$ChTraitsCRT@D@ATL@@@@@ATL@@0W4TEXTCOMPARTTYPE@CScaleBaseData@@@Z
  0000a	64 a1 00 00 00
	00		 mov	 eax, DWORD PTR fs:0
  00010	50		 push	 eax
  00011	51		 push	 ecx
  00012	56		 push	 esi
  00013	a1 00 00 00 00	 mov	 eax, DWORD PTR ___security_cookie
  00018	33 c5		 xor	 eax, ebp
  0001a	50		 push	 eax
  0001b	8d 45 f4	 lea	 eax, DWORD PTR __$EHRec$[ebp]
  0001e	64 a3 00 00 00
	00		 mov	 DWORD PTR fs:0, eax
  00024	8b f1		 mov	 esi, ecx
  00026	89 75 f0	 mov	 DWORD PTR _this$[ebp], esi

; 42   : 	m_strDateCompart(dateCompart),

  00029	ff 75 08	 push	 DWORD PTR _dateCompart$[ebp]
  0002c	ff 15 00 00 00
	00		 call	 DWORD PTR __imp_??0?$CStringT@DV?$StrTraitMFC_DLL@DV?$ChTraitsCRT@D@ATL@@@@@ATL@@QAE@ABV01@@Z

; 43   : 	m_strTimeCompart(timeCompart),

  00032	ff 75 0c	 push	 DWORD PTR _timeCompart$[ebp]
  00035	8d 4e 04	 lea	 ecx, DWORD PTR [esi+4]
  00038	c7 45 fc 00 00
	00 00		 mov	 DWORD PTR __$EHRec$[ebp+8], 0
  0003f	ff 15 00 00 00
	00		 call	 DWORD PTR __imp_??0?$CStringT@DV?$StrTraitMFC_DLL@DV?$ChTraitsCRT@D@ATL@@@@@ATL@@QAE@ABV01@@Z

; 44   : 	m_eTextType(eTextType)

  00045	8b 45 10	 mov	 eax, DWORD PTR _eTextType$[ebp]
  00048	89 46 08	 mov	 DWORD PTR [esi+8], eax

; 46   : }

  0004b	8b c6		 mov	 eax, esi
  0004d	8b 4d f4	 mov	 ecx, DWORD PTR __$EHRec$[ebp]
  00050	64 89 0d 00 00
	00 00		 mov	 DWORD PTR fs:0, ecx
  00057	59		 pop	 ecx
  00058	5e		 pop	 esi
  00059	8b e5		 mov	 esp, ebp
  0005b	5d		 pop	 ebp
  0005c	c2 0c 00	 ret	 12			; 0000000cH
_TEXT	ENDS
;	COMDAT text$x
text$x	SEGMENT
__unwindfunclet$??0CScaleCompart@@QAE@ABV?$CStringT@DV?$StrTraitMFC_DLL@DV?$ChTraitsCRT@D@ATL@@@@@ATL@@0W4TEXTCOMPARTTYPE@CScaleBaseData@@@Z$0:
  00000	8b 4d f0	 mov	 ecx, DWORD PTR _this$[ebp]
  00003	ff 25 00 00 00
	00		 jmp	 DWORD PTR __imp_??1?$CStringT@DV?$StrTraitMFC_DLL@DV?$ChTraitsCRT@D@ATL@@@@@ATL@@QAE@XZ
  00009	cc		 int	 3
  0000a	cc		 int	 3
  0000b	cc		 int	 3
  0000c	cc		 int	 3
  0000d	cc		 int	 3
__ehhandler$??0CScaleCompart@@QAE@ABV?$CStringT@DV?$StrTraitMFC_DLL@DV?$ChTraitsCRT@D@ATL@@@@@ATL@@0W4TEXTCOMPARTTYPE@CScaleBaseData@@@Z:
  0000e	90		 npad	 1
  0000f	90		 npad	 1
  00010	8b 54 24 08	 mov	 edx, DWORD PTR [esp+8]
  00014	8d 42 0c	 lea	 eax, DWORD PTR [edx+12]
  00017	8b 4a f4	 mov	 ecx, DWORD PTR [edx-12]
  0001a	33 c8		 xor	 ecx, eax
  0001c	e8 00 00 00 00	 call	 @__security_check_cookie@4
  00021	b8 00 00 00 00	 mov	 eax, OFFSET __ehfuncinfo$??0CScaleCompart@@QAE@ABV?$CStringT@DV?$StrTraitMFC_DLL@DV?$ChTraitsCRT@D@ATL@@@@@ATL@@0W4TEXTCOMPARTTYPE@CScaleBaseData@@@Z
  00026	e9 00 00 00 00	 jmp	 ___CxxFrameHandler3
text$x	ENDS
??0CScaleCompart@@QAE@ABV?$CStringT@DV?$StrTraitMFC_DLL@DV?$ChTraitsCRT@D@ATL@@@@@ATL@@0W4TEXTCOMPARTTYPE@CScaleBaseData@@@Z ENDP ; CScaleCompart::CScaleCompart
; Function compile flags: /Ogtp
; File D:\git\src\IBK\IBK_DRFN\ProjSrc\SrcChartEx\ChartOCX\ScaleDraw\ScaleBaseData.cpp
;	COMDAT ??0CScaleCompart@@QAE@XZ
_TEXT	SEGMENT
_this$ = -16						; size = 4
__$EHRec$ = -12						; size = 12
??0CScaleCompart@@QAE@XZ PROC				; CScaleCompart::CScaleCompart, COMDAT
; _this$ = ecx

; 38   : {

  00000	55		 push	 ebp
  00001	8b ec		 mov	 ebp, esp
  00003	6a ff		 push	 -1
  00005	68 00 00 00 00	 push	 __ehhandler$??0CScaleCompart@@QAE@XZ
  0000a	64 a1 00 00 00
	00		 mov	 eax, DWORD PTR fs:0
  00010	50		 push	 eax
  00011	51		 push	 ecx
  00012	56		 push	 esi
  00013	a1 00 00 00 00	 mov	 eax, DWORD PTR ___security_cookie
  00018	33 c5		 xor	 eax, ebp
  0001a	50		 push	 eax
  0001b	8d 45 f4	 lea	 eax, DWORD PTR __$EHRec$[ebp]
  0001e	64 a3 00 00 00
	00		 mov	 DWORD PTR fs:0, eax
  00024	8b f1		 mov	 esi, ecx
  00026	89 75 f0	 mov	 DWORD PTR _this$[ebp], esi

; 35   : 	m_strDateCompart("."),

  00029	68 00 00 00 00	 push	 OFFSET ??_C@_01LFCBOECM@?4@
  0002e	ff 15 00 00 00
	00		 call	 DWORD PTR __imp_??0?$CStringT@DV?$StrTraitMFC_DLL@DV?$ChTraitsCRT@D@ATL@@@@@ATL@@QAE@PBD@Z

; 36   : 	m_strTimeCompart(":"),

  00034	68 00 00 00 00	 push	 OFFSET ??_C@_01JLIPDDHJ@?3@
  00039	8d 4e 04	 lea	 ecx, DWORD PTR [esi+4]
  0003c	c7 45 fc 00 00
	00 00		 mov	 DWORD PTR __$EHRec$[ebp+8], 0
  00043	ff 15 00 00 00
	00		 call	 DWORD PTR __imp_??0?$CStringT@DV?$StrTraitMFC_DLL@DV?$ChTraitsCRT@D@ATL@@@@@ATL@@QAE@PBD@Z

; 37   : 	m_eTextType(CScaleBaseData::HORZ_TEXT_COMPART)

  00049	c7 46 08 00 00
	00 00		 mov	 DWORD PTR [esi+8], 0

; 39   : }

  00050	8b c6		 mov	 eax, esi
  00052	8b 4d f4	 mov	 ecx, DWORD PTR __$EHRec$[ebp]
  00055	64 89 0d 00 00
	00 00		 mov	 DWORD PTR fs:0, ecx
  0005c	59		 pop	 ecx
  0005d	5e		 pop	 esi
  0005e	8b e5		 mov	 esp, ebp
  00060	5d		 pop	 ebp
  00061	c3		 ret	 0
_TEXT	ENDS
;	COMDAT text$x
text$x	SEGMENT
__unwindfunclet$??0CScaleCompart@@QAE@XZ$0:
  00000	8b 4d f0	 mov	 ecx, DWORD PTR _this$[ebp]
  00003	ff 25 00 00 00
	00		 jmp	 DWORD PTR __imp_??1?$CStringT@DV?$StrTraitMFC_DLL@DV?$ChTraitsCRT@D@ATL@@@@@ATL@@QAE@XZ
  00009	cc		 int	 3
  0000a	cc		 int	 3
  0000b	cc		 int	 3
  0000c	cc		 int	 3
  0000d	cc		 int	 3
__ehhandler$??0CScaleCompart@@QAE@XZ:
  0000e	90		 npad	 1
  0000f	90		 npad	 1
  00010	8b 54 24 08	 mov	 edx, DWORD PTR [esp+8]
  00014	8d 42 0c	 lea	 eax, DWORD PTR [edx+12]
  00017	8b 4a f4	 mov	 ecx, DWORD PTR [edx-12]
  0001a	33 c8		 xor	 ecx, eax
  0001c	e8 00 00 00 00	 call	 @__security_check_cookie@4
  00021	b8 00 00 00 00	 mov	 eax, OFFSET __ehfuncinfo$??0CScaleCompart@@QAE@XZ
  00026	e9 00 00 00 00	 jmp	 ___CxxFrameHandler3
text$x	ENDS
??0CScaleCompart@@QAE@XZ ENDP				; CScaleCompart::CScaleCompart
; Function compile flags: /Ogtp
; File D:\git\src\IBK\IBK_DRFN\ProjSrc\SrcChartEx\ChartOCX\ScaleDraw\ScaleBaseData.cpp
;	COMDAT ??4CScaleCompart@@QAEAAV0@ABV0@@Z
_TEXT	SEGMENT
$T2 = -16						; size = 4
__$EHRec$ = -12						; size = 12
$T3 = 8							; size = 4
_data$ = 8						; size = 4
??4CScaleCompart@@QAEAAV0@ABV0@@Z PROC			; CScaleCompart::operator=, COMDAT
; _this$ = ecx

; 24   : {

  00000	55		 push	 ebp
  00001	8b ec		 mov	 ebp, esp
  00003	6a ff		 push	 -1
  00005	68 00 00 00 00	 push	 __ehhandler$??4CScaleCompart@@QAEAAV0@ABV0@@Z
  0000a	64 a1 00 00 00
	00		 mov	 eax, DWORD PTR fs:0
  00010	50		 push	 eax
  00011	51		 push	 ecx
  00012	56		 push	 esi
  00013	57		 push	 edi
  00014	a1 00 00 00 00	 mov	 eax, DWORD PTR ___security_cookie
  00019	33 c5		 xor	 eax, ebp
  0001b	50		 push	 eax
  0001c	8d 45 f4	 lea	 eax, DWORD PTR __$EHRec$[ebp]
  0001f	64 a3 00 00 00
	00		 mov	 DWORD PTR fs:0, eax
  00025	8b f1		 mov	 esi, ecx

; 25   : 	if(this == &data)

  00027	8b 7d 08	 mov	 edi, DWORD PTR _data$[ebp]
  0002a	3b f7		 cmp	 esi, edi
  0002c	74 5d		 je	 SHORT $LN15@operator

; 50   : 	return m_strDateCompart;

  0002e	57		 push	 edi
  0002f	8d 4d 08	 lea	 ecx, DWORD PTR $T3[ebp]
  00032	ff 15 00 00 00
	00		 call	 DWORD PTR __imp_??0?$CStringT@DV?$StrTraitMFC_DLL@DV?$ChTraitsCRT@D@ATL@@@@@ATL@@QAE@ABV01@@Z

; 26   : 		return *this;
; 27   : 
; 28   : 	m_strDateCompart = data.GetDateCompart();

  00038	8d 45 08	 lea	 eax, DWORD PTR $T3[ebp]
  0003b	c7 45 fc 00 00
	00 00		 mov	 DWORD PTR __$EHRec$[ebp+8], 0
  00042	50		 push	 eax
  00043	8b ce		 mov	 ecx, esi
  00045	ff 15 00 00 00
	00		 call	 DWORD PTR __imp_??4?$CStringT@DV?$StrTraitMFC_DLL@DV?$ChTraitsCRT@D@ATL@@@@@ATL@@QAEAAV01@ABV01@@Z
  0004b	8d 4d 08	 lea	 ecx, DWORD PTR $T3[ebp]
  0004e	c7 45 fc ff ff
	ff ff		 mov	 DWORD PTR __$EHRec$[ebp+8], -1
  00055	ff 15 00 00 00
	00		 call	 DWORD PTR __imp_??1?$CStringT@DV?$StrTraitMFC_DLL@DV?$ChTraitsCRT@D@ATL@@@@@ATL@@QAE@XZ

; 55   : 	return m_strTimeCompart;

  0005b	8d 47 04	 lea	 eax, DWORD PTR [edi+4]
  0005e	50		 push	 eax
  0005f	8d 4d f0	 lea	 ecx, DWORD PTR $T2[ebp]
  00062	ff 15 00 00 00
	00		 call	 DWORD PTR __imp_??0?$CStringT@DV?$StrTraitMFC_DLL@DV?$ChTraitsCRT@D@ATL@@@@@ATL@@QAE@ABV01@@Z

; 29   : 	m_strTimeCompart = data.GetTimeCompart();

  00068	8d 45 f0	 lea	 eax, DWORD PTR $T2[ebp]
  0006b	c7 45 fc 01 00
	00 00		 mov	 DWORD PTR __$EHRec$[ebp+8], 1
  00072	50		 push	 eax
  00073	8d 4e 04	 lea	 ecx, DWORD PTR [esi+4]
  00076	ff 15 00 00 00
	00		 call	 DWORD PTR __imp_??4?$CStringT@DV?$StrTraitMFC_DLL@DV?$ChTraitsCRT@D@ATL@@@@@ATL@@QAEAAV01@ABV01@@Z
  0007c	8d 4d f0	 lea	 ecx, DWORD PTR $T2[ebp]
  0007f	ff 15 00 00 00
	00		 call	 DWORD PTR __imp_??1?$CStringT@DV?$StrTraitMFC_DLL@DV?$ChTraitsCRT@D@ATL@@@@@ATL@@QAE@XZ

; 30   : 	m_eTextType = data.GetScaleTextType();

  00085	8b 47 08	 mov	 eax, DWORD PTR [edi+8]
  00088	89 46 08	 mov	 DWORD PTR [esi+8], eax
$LN15@operator:

; 31   : 	return *this;
; 32   : }

  0008b	8b c6		 mov	 eax, esi
  0008d	8b 4d f4	 mov	 ecx, DWORD PTR __$EHRec$[ebp]
  00090	64 89 0d 00 00
	00 00		 mov	 DWORD PTR fs:0, ecx
  00097	59		 pop	 ecx
  00098	5f		 pop	 edi
  00099	5e		 pop	 esi
  0009a	8b e5		 mov	 esp, ebp
  0009c	5d		 pop	 ebp
  0009d	c2 04 00	 ret	 4
_TEXT	ENDS
;	COMDAT text$x
text$x	SEGMENT
__unwindfunclet$??4CScaleCompart@@QAEAAV0@ABV0@@Z$0:
  00000	8d 4d 08	 lea	 ecx, DWORD PTR $T3[ebp]
  00003	ff 25 00 00 00
	00		 jmp	 DWORD PTR __imp_??1?$CStringT@DV?$StrTraitMFC_DLL@DV?$ChTraitsCRT@D@ATL@@@@@ATL@@QAE@XZ
__unwindfunclet$??4CScaleCompart@@QAEAAV0@ABV0@@Z$1:
  00009	8d 4d f0	 lea	 ecx, DWORD PTR $T2[ebp]
  0000c	ff 25 00 00 00
	00		 jmp	 DWORD PTR __imp_??1?$CStringT@DV?$StrTraitMFC_DLL@DV?$ChTraitsCRT@D@ATL@@@@@ATL@@QAE@XZ
  00012	cc		 int	 3
  00013	cc		 int	 3
  00014	cc		 int	 3
  00015	cc		 int	 3
  00016	cc		 int	 3
__ehhandler$??4CScaleCompart@@QAEAAV0@ABV0@@Z:
  00017	90		 npad	 1
  00018	90		 npad	 1
  00019	8b 54 24 08	 mov	 edx, DWORD PTR [esp+8]
  0001d	8d 42 0c	 lea	 eax, DWORD PTR [edx+12]
  00020	8b 4a f0	 mov	 ecx, DWORD PTR [edx-16]
  00023	33 c8		 xor	 ecx, eax
  00025	e8 00 00 00 00	 call	 @__security_check_cookie@4
  0002a	b8 00 00 00 00	 mov	 eax, OFFSET __ehfuncinfo$??4CScaleCompart@@QAEAAV0@ABV0@@Z
  0002f	e9 00 00 00 00	 jmp	 ___CxxFrameHandler3
text$x	ENDS
??4CScaleCompart@@QAEAAV0@ABV0@@Z ENDP			; CScaleCompart::operator=
; Function compile flags: /Ogtp
; File C:\Program Files (x86)\Windows Kits\10\Include\10.0.22000.0\ucrt\stdio.h
;	COMDAT _sprintf
_TEXT	SEGMENT
__Buffer$ = 8						; size = 4
__Format$ = 12						; size = 4
_sprintf PROC						; COMDAT

; 1771 :     {

  00000	55		 push	 ebp
  00001	8b ec		 mov	 ebp, esp

; 1392 :         int const _Result = __stdio_common_vsprintf(

  00003	8d 45 10	 lea	 eax, DWORD PTR __Format$[ebp+4]
  00006	50		 push	 eax
  00007	6a 00		 push	 0
  00009	ff 75 0c	 push	 DWORD PTR __Format$[ebp]
  0000c	6a ff		 push	 -1
  0000e	ff 75 08	 push	 DWORD PTR __Buffer$[ebp]
  00011	e8 00 00 00 00	 call	 ___local_stdio_printf_options
  00016	8b 08		 mov	 ecx, DWORD PTR [eax]
  00018	ff 70 04	 push	 DWORD PTR [eax+4]
  0001b	83 c9 01	 or	 ecx, 1
  0001e	51		 push	 ecx
  0001f	ff 15 00 00 00
	00		 call	 DWORD PTR __imp____stdio_common_vsprintf

; 1393 :             _CRT_INTERNAL_LOCAL_PRINTF_OPTIONS | _CRT_INTERNAL_PRINTF_LEGACY_VSPRINTF_NULL_TERMINATION,
; 1394 :             _Buffer, _BufferCount, _Format, _Locale, _ArgList);
; 1395 : 
; 1396 :         return _Result < 0 ? -1 : _Result;

  00025	83 c9 ff	 or	 ecx, -1
  00028	83 c4 1c	 add	 esp, 28			; 0000001cH
  0002b	85 c0		 test	 eax, eax
  0002d	0f 48 c1	 cmovs	 eax, ecx

; 1772 :         int _Result;
; 1773 :         va_list _ArgList;
; 1774 :         __crt_va_start(_ArgList, _Format);
; 1775 : 
; 1776 :         _Result = _vsprintf_l(_Buffer, _Format, NULL, _ArgList);
; 1777 : 
; 1778 :         __crt_va_end(_ArgList);
; 1779 :         return _Result;
; 1780 :     }

  00030	5d		 pop	 ebp
  00031	c3		 ret	 0
_sprintf ENDP
_TEXT	ENDS
; Function compile flags: /Ogtp
; File C:\Program Files (x86)\Windows Kits\10\Include\10.0.22000.0\ucrt\corecrt_stdio_config.h
;	COMDAT ___local_stdio_printf_options
_TEXT	SEGMENT
___local_stdio_printf_options PROC			; COMDAT

; 91   :         static unsigned __int64 _OptionsStorage;
; 92   :         return &_OptionsStorage;

  00000	b8 00 00 00 00	 mov	 eax, OFFSET ?_OptionsStorage@?1??__local_stdio_printf_options@@9@4_KA ; `__local_stdio_printf_options'::`2'::_OptionsStorage

; 93   :     }

  00005	c3		 ret	 0
___local_stdio_printf_options ENDP
_TEXT	ENDS
; Function compile flags: /Ogtp
; File D:\git\src\IBK\IBK_DRFN\ProjSrc\SrcChartEx\ChartOCX\ScaleDraw\ScaleBaseData.cpp
;	COMDAT ?__empty_global_delete@@YAXPAXI@Z
_TEXT	SEGMENT
___formal$ = 8						; size = 4
___formal$ = 12						; size = 4
?__empty_global_delete@@YAXPAXI@Z PROC			; __empty_global_delete, COMDAT

  00000	c2 00 00	 ret	 0
?__empty_global_delete@@YAXPAXI@Z ENDP			; __empty_global_delete
_TEXT	ENDS
; Function compile flags: /Ogtp
; File D:\git\src\IBK\IBK_DRFN\ProjSrc\SrcChartEx\ChartOCX\ScaleDraw\ScaleBaseData.cpp
;	COMDAT ?__empty_global_delete@@YAXPAX@Z
_TEXT	SEGMENT
___formal$ = 8						; size = 4
?__empty_global_delete@@YAXPAX@Z PROC			; __empty_global_delete, COMDAT

  00000	c2 00 00	 ret	 0
?__empty_global_delete@@YAXPAX@Z ENDP			; __empty_global_delete
_TEXT	ENDS
END
