; Listing generated by Microsoft (R) Optimizing Compiler Version 19.29.30145.0 

	TITLE	D:\git\src\IBK\IBK_DRFN\#DRfn-CS\_Obj\ScaleDraw\ScaleDrawerSingleton.obj
	.686P
	.XMM
	include listing.inc
	.model	flat

INCLUDELIB MSVCRT
INCLUDELIB OLDNAMES

PUBLIC	?__empty_global_delete@@YAXPAX@Z		; __empty_global_delete
PUBLIC	?__empty_global_delete@@YAXPAXI@Z		; __empty_global_delete
PUBLIC	??0CDataHorzScaleDrawerSingleton@@QAE@PAUHWND__@@W4CHART_MODE@CChartInfo@@@Z ; CDataHorzScaleDrawerSingleton::CDataHorzScaleDrawerSingleton
PUBLIC	?GetDataHorzScaleDrawer@CDataHorzScaleDrawerSingleton@@QAEPAVCHorzScaleDrawer@@W4HORZSCALEDRAWERTYPE@CScaleBaseData@@@Z ; CDataHorzScaleDrawerSingleton::GetDataHorzScaleDrawer
PUBLIC	??0CHorzScaleDrawerSingleton@@QAE@PAUHWND__@@W4CHART_MODE@CChartInfo@@@Z ; CHorzScaleDrawerSingleton::CHorzScaleDrawerSingleton
PUBLIC	?GetHorzScaleDrawer@CHorzScaleDrawerSingleton@@QAEPAVCHorzScaleDrawer@@PAVCPacket@@W4HORZSCALEDRAWERTYPE@CScaleBaseData@@@Z ; CHorzScaleDrawerSingleton::GetHorzScaleDrawer
PUBLIC	?GetHorzScaleDrawer@CHorzScaleDrawerSingleton@@QAEPAVCHorzScaleDrawer@@W4HORZSCALEDRAWERTYPE@CScaleBaseData@@@Z ; CHorzScaleDrawerSingleton::GetHorzScaleDrawer
PUBLIC	??0CVertScaleDrawerSingleton@@QAE@PAUHWND__@@W4CHART_MODE@CChartInfo@@@Z ; CVertScaleDrawerSingleton::CVertScaleDrawerSingleton
PUBLIC	?GetVertScaleDrawer@CVertScaleDrawerSingleton@@QAEPAVCVertScaleDrawer@@W4VERTSCALEDRAWERTYPE@CScaleBaseData@@@Z ; CVertScaleDrawerSingleton::GetVertScaleDrawer
PUBLIC	??0CPacketList@@QAE@ABV0@@Z			; CPacketList::CPacketList
PUBLIC	??4CPacketList@@QAEAAV0@ABV0@@Z			; CPacketList::operator=
PUBLIC	??_GCPacketList@@UAEPAXI@Z			; CPacketList::`scalar deleting destructor'
PUBLIC	??_ECPacketList@@UAEPAXI@Z			; CPacketList::`vector deleting destructor'
PUBLIC	??_7CPacketList@@6B@				; CPacketList::`vftable'
PUBLIC	??_R4CPacketList@@6B@				; CPacketList::`RTTI Complete Object Locator'
PUBLIC	??_R0?AVCPacketList@@@8				; CPacketList `RTTI Type Descriptor'
PUBLIC	??_R3CPacketList@@8				; CPacketList::`RTTI Class Hierarchy Descriptor'
PUBLIC	??_R2CPacketList@@8				; CPacketList::`RTTI Base Class Array'
PUBLIC	??_R1A@?0A@EA@CPacketList@@8			; CPacketList::`RTTI Base Class Descriptor at (0,-1,0,64)'
EXTRN	??_M@YGXPAXIIP6EX0@Z@Z:PROC			; `eh vector destructor iterator'
EXTRN	??3@YAXPAXI@Z:PROC				; operator delete
EXTRN	??_V@YAXPAXI@Z:PROC				; operator delete[]
EXTRN	__imp_??1?$CStringT@DV?$StrTraitMFC_DLL@DV?$ChTraitsCRT@D@ATL@@@@@ATL@@QAE@XZ:PROC
EXTRN	__imp_?Compare@?$CStringT@DV?$StrTraitMFC_DLL@DV?$ChTraitsCRT@D@ATL@@@@@ATL@@QBEHPBD@Z:PROC
EXTRN	??0CTextHorzScaleDrawer@@QAE@PAUHWND__@@W4CHART_MODE@CChartInfo@@@Z:PROC ; CTextHorzScaleDrawer::CTextHorzScaleDrawer
EXTRN	??0CTextVertScaleDrawer@@QAE@PAUHWND__@@W4CHART_MODE@CChartInfo@@@Z:PROC ; CTextVertScaleDrawer::CTextVertScaleDrawer
EXTRN	??0CVolumeVertScaleDrawer@@QAE@PAUHWND__@@W4CHART_MODE@CChartInfo@@@Z:PROC ; CVolumeVertScaleDrawer::CVolumeVertScaleDrawer
EXTRN	??0CPriceScaleDrawer@@QAE@PAUHWND__@@W4CHART_MODE@CChartInfo@@@Z:PROC ; CPriceScaleDrawer::CPriceScaleDrawer
EXTRN	??0CSaleScaleDrawer@@QAE@PAUHWND__@@W4CHART_MODE@CChartInfo@@@Z:PROC ; CSaleScaleDrawer::CSaleScaleDrawer
EXTRN	??0CMarketProfileVertScaleDrawer@@QAE@PAUHWND__@@W4CHART_MODE@CChartInfo@@@Z:PROC ; CMarketProfileVertScaleDrawer::CMarketProfileVertScaleDrawer
EXTRN	??0CIndicateScaleDrawer@@QAE@PAUHWND__@@W4CHART_MODE@CChartInfo@@@Z:PROC ; CIndicateScaleDrawer::CIndicateScaleDrawer
EXTRN	??0CPacketDataScaleDrawer@@QAE@PAUHWND__@@W4CHART_MODE@CChartInfo@@@Z:PROC ; CPacketDataScaleDrawer::CPacketDataScaleDrawer
EXTRN	??0CPercentFullScaleDrawer@@QAE@PAUHWND__@@W4CHART_MODE@CChartInfo@@@Z:PROC ; CPercentFullScaleDrawer::CPercentFullScaleDrawer
EXTRN	??0CTopButtomPlusScaleDrawer@@QAE@PAUHWND__@@W4CHART_MODE@CChartInfo@@@Z:PROC ; CTopButtomPlusScaleDrawer::CTopButtomPlusScaleDrawer
EXTRN	??0CLogScaleDrawer@@QAE@PAUHWND__@@W4CHART_MODE@CChartInfo@@@Z:PROC ; CLogScaleDrawer::CLogScaleDrawer
EXTRN	??0CPriceZoneHorzScaleDrawer@@QAE@PAUHWND__@@W4CHART_MODE@CChartInfo@@@Z:PROC ; CPriceZoneHorzScaleDrawer::CPriceZoneHorzScaleDrawer
EXTRN	??0CEtcDataHorzScaleDrawer@@QAE@PAUHWND__@@W4CHART_MODE@CChartInfo@@@Z:PROC ; CEtcDataHorzScaleDrawer::CEtcDataHorzScaleDrawer
EXTRN	??0CLeftRightScaleDrawer@@QAE@PAUHWND__@@W4CHART_MODE@CChartInfo@@@Z:PROC ; CLeftRightScaleDrawer::CLeftRightScaleDrawer
EXTRN	??0CMarketProfileHorzScaleDrawer@@QAE@PAUHWND__@@W4CHART_MODE@CChartInfo@@@Z:PROC ; CMarketProfileHorzScaleDrawer::CMarketProfileHorzScaleDrawer
EXTRN	??0CFullTimeScaleDrawer@@QAE@PAUHWND__@@W4CHART_MODE@CChartInfo@@@Z:PROC ; CFullTimeScaleDrawer::CFullTimeScaleDrawer
EXTRN	__imp_?GetType@CPacket@@QAE?AV?$CStringT@DV?$StrTraitMFC_DLL@DV?$ChTraitsCRT@D@ATL@@@@@ATL@@_N@Z:PROC
EXTRN	??1CPacketList@@UAE@XZ:PROC			; CPacketList::~CPacketList
EXTRN	@__security_check_cookie@4:PROC
EXTRN	___CxxFrameHandler3:PROC
EXTRN	??_7type_info@@6B@:QWORD			; type_info::`vftable'
EXTRN	?g_iMetaTable@@3VIMetaTable@@A:BYTE		; g_iMetaTable
EXTRN	___security_cookie:DWORD
;	COMDAT ??_R1A@?0A@EA@CPacketList@@8
rdata$r	SEGMENT
??_R1A@?0A@EA@CPacketList@@8 DD FLAT:??_R0?AVCPacketList@@@8 ; CPacketList::`RTTI Base Class Descriptor at (0,-1,0,64)'
	DD	00H
	DD	00H
	DD	0ffffffffH
	DD	00H
	DD	040H
	DD	FLAT:??_R3CPacketList@@8
rdata$r	ENDS
;	COMDAT ??_R2CPacketList@@8
rdata$r	SEGMENT
??_R2CPacketList@@8 DD FLAT:??_R1A@?0A@EA@CPacketList@@8 ; CPacketList::`RTTI Base Class Array'
rdata$r	ENDS
;	COMDAT ??_R3CPacketList@@8
rdata$r	SEGMENT
??_R3CPacketList@@8 DD 00H				; CPacketList::`RTTI Class Hierarchy Descriptor'
	DD	00H
	DD	01H
	DD	FLAT:??_R2CPacketList@@8
rdata$r	ENDS
;	COMDAT ??_R0?AVCPacketList@@@8
data$rs	SEGMENT
??_R0?AVCPacketList@@@8 DD FLAT:??_7type_info@@6B@	; CPacketList `RTTI Type Descriptor'
	DD	00H
	DB	'.?AVCPacketList@@', 00H
data$rs	ENDS
;	COMDAT ??_R4CPacketList@@6B@
rdata$r	SEGMENT
??_R4CPacketList@@6B@ DD 00H				; CPacketList::`RTTI Complete Object Locator'
	DD	00H
	DD	00H
	DD	FLAT:??_R0?AVCPacketList@@@8
	DD	FLAT:??_R3CPacketList@@8
rdata$r	ENDS
;	COMDAT ??_7CPacketList@@6B@
CONST	SEGMENT
??_7CPacketList@@6B@ DD FLAT:??_R4CPacketList@@6B@	; CPacketList::`vftable'
	DD	FLAT:??_ECPacketList@@UAEPAXI@Z
CONST	ENDS
;	COMDAT xdata$x
xdata$x	SEGMENT
__ehfuncinfo$??_ECPacketList@@UAEPAXI@Z DD 019930522H
	DD	00H
	DD	00H
	DD	2 DUP(00H)
	DD	2 DUP(00H)
	DD	00H
	DD	05H
xdata$x	ENDS
;	COMDAT xdata$x
xdata$x	SEGMENT
__unwindtable$?GetHorzScaleDrawer@CHorzScaleDrawerSingleton@@QAEPAVCHorzScaleDrawer@@PAVCPacket@@W4HORZSCALEDRAWERTYPE@CScaleBaseData@@@Z DD 0ffffffffH
	DD	FLAT:__unwindfunclet$?GetHorzScaleDrawer@CHorzScaleDrawerSingleton@@QAEPAVCHorzScaleDrawer@@PAVCPacket@@W4HORZSCALEDRAWERTYPE@CScaleBaseData@@@Z$0
__ehfuncinfo$?GetHorzScaleDrawer@CHorzScaleDrawerSingleton@@QAEPAVCHorzScaleDrawer@@PAVCPacket@@W4HORZSCALEDRAWERTYPE@CScaleBaseData@@@Z DD 019930522H
	DD	01H
	DD	FLAT:__unwindtable$?GetHorzScaleDrawer@CHorzScaleDrawerSingleton@@QAEPAVCHorzScaleDrawer@@PAVCPacket@@W4HORZSCALEDRAWERTYPE@CScaleBaseData@@@Z
	DD	2 DUP(00H)
	DD	2 DUP(00H)
	DD	00H
	DD	01H
xdata$x	ENDS
; Function compile flags: /Ogtp
;	COMDAT ??_ECPacketList@@UAEPAXI@Z
_TEXT	SEGMENT
__$EHRec$ = -12						; size = 12
___flags$ = 8						; size = 4
??_ECPacketList@@UAEPAXI@Z PROC				; CPacketList::`vector deleting destructor', COMDAT
; _this$ = ecx
  00000	55		 push	 ebp
  00001	8b ec		 mov	 ebp, esp
  00003	6a ff		 push	 -1
  00005	68 00 00 00 00	 push	 __ehhandler$??_ECPacketList@@UAEPAXI@Z
  0000a	64 a1 00 00 00
	00		 mov	 eax, DWORD PTR fs:0
  00010	50		 push	 eax
  00011	53		 push	 ebx
  00012	56		 push	 esi
  00013	57		 push	 edi
  00014	a1 00 00 00 00	 mov	 eax, DWORD PTR ___security_cookie
  00019	33 c5		 xor	 eax, ebp
  0001b	50		 push	 eax
  0001c	8d 45 f4	 lea	 eax, DWORD PTR __$EHRec$[ebp]
  0001f	64 a3 00 00 00
	00		 mov	 DWORD PTR fs:0, eax
  00025	8b f1		 mov	 esi, ecx
  00027	8b 45 08	 mov	 eax, DWORD PTR ___flags$[ebp]
  0002a	8b d8		 mov	 ebx, eax
  0002c	83 e3 01	 and	 ebx, 1
  0002f	a8 02		 test	 al, 2
  00031	74 40		 je	 SHORT $LN2@vector
  00033	68 00 00 00 00	 push	 OFFSET ??1CPacketList@@UAE@XZ ; CPacketList::~CPacketList
  00038	ff 76 fc	 push	 DWORD PTR [esi-4]
  0003b	8d 7e fc	 lea	 edi, DWORD PTR [esi-4]
  0003e	6a 08		 push	 8
  00040	56		 push	 esi
  00041	e8 00 00 00 00	 call	 ??_M@YGXPAXIIP6EX0@Z@Z
  00046	85 db		 test	 ebx, ebx
  00048	74 13		 je	 SHORT $LN3@vector
  0004a	8b 0f		 mov	 ecx, DWORD PTR [edi]
  0004c	8d 0c cd 04 00
	00 00		 lea	 ecx, DWORD PTR [ecx*8+4]
  00053	51		 push	 ecx
  00054	57		 push	 edi
  00055	e8 00 00 00 00	 call	 ??_V@YAXPAXI@Z		; operator delete[]
  0005a	83 c4 08	 add	 esp, 8
$LN3@vector:
  0005d	8b c7		 mov	 eax, edi
  0005f	8b 4d f4	 mov	 ecx, DWORD PTR __$EHRec$[ebp]
  00062	64 89 0d 00 00
	00 00		 mov	 DWORD PTR fs:0, ecx
  00069	59		 pop	 ecx
  0006a	5f		 pop	 edi
  0006b	5e		 pop	 esi
  0006c	5b		 pop	 ebx
  0006d	8b e5		 mov	 esp, ebp
  0006f	5d		 pop	 ebp
  00070	c2 04 00	 ret	 4
$LN2@vector:
  00073	e8 00 00 00 00	 call	 ??1CPacketList@@UAE@XZ	; CPacketList::~CPacketList
  00078	85 db		 test	 ebx, ebx
  0007a	74 0b		 je	 SHORT $LN4@vector
  0007c	6a 08		 push	 8
  0007e	56		 push	 esi
  0007f	e8 00 00 00 00	 call	 ??3@YAXPAXI@Z		; operator delete
  00084	83 c4 08	 add	 esp, 8
$LN4@vector:
  00087	8b c6		 mov	 eax, esi
  00089	8b 4d f4	 mov	 ecx, DWORD PTR __$EHRec$[ebp]
  0008c	64 89 0d 00 00
	00 00		 mov	 DWORD PTR fs:0, ecx
  00093	59		 pop	 ecx
  00094	5f		 pop	 edi
  00095	5e		 pop	 esi
  00096	5b		 pop	 ebx
  00097	8b e5		 mov	 esp, ebp
  00099	5d		 pop	 ebp
  0009a	c2 04 00	 ret	 4
  0009d	cc		 int	 3
  0009e	cc		 int	 3
  0009f	cc		 int	 3
  000a0	cc		 int	 3
  000a1	cc		 int	 3
_TEXT	ENDS
;	COMDAT text$x
text$x	SEGMENT
__ehhandler$??_ECPacketList@@UAEPAXI@Z:
  00000	90		 npad	 1
  00001	90		 npad	 1
  00002	8b 54 24 08	 mov	 edx, DWORD PTR [esp+8]
  00006	8d 42 0c	 lea	 eax, DWORD PTR [edx+12]
  00009	8b 4a f0	 mov	 ecx, DWORD PTR [edx-16]
  0000c	33 c8		 xor	 ecx, eax
  0000e	e8 00 00 00 00	 call	 @__security_check_cookie@4
  00013	b8 00 00 00 00	 mov	 eax, OFFSET __ehfuncinfo$??_ECPacketList@@UAEPAXI@Z
  00018	e9 00 00 00 00	 jmp	 ___CxxFrameHandler3
text$x	ENDS
??_ECPacketList@@UAEPAXI@Z ENDP				; CPacketList::`vector deleting destructor'
; Function compile flags: /Ogtp
;	COMDAT ??_GCPacketList@@UAEPAXI@Z
_TEXT	SEGMENT
___flags$ = 8						; size = 4
??_GCPacketList@@UAEPAXI@Z PROC				; CPacketList::`scalar deleting destructor', COMDAT
; _this$ = ecx
  00000	55		 push	 ebp
  00001	8b ec		 mov	 ebp, esp
  00003	56		 push	 esi
  00004	8b f1		 mov	 esi, ecx
  00006	e8 00 00 00 00	 call	 ??1CPacketList@@UAE@XZ	; CPacketList::~CPacketList
  0000b	f6 45 08 01	 test	 BYTE PTR ___flags$[ebp], 1
  0000f	74 0b		 je	 SHORT $LN4@scalar
  00011	6a 08		 push	 8
  00013	56		 push	 esi
  00014	e8 00 00 00 00	 call	 ??3@YAXPAXI@Z		; operator delete
  00019	83 c4 08	 add	 esp, 8
$LN4@scalar:
  0001c	8b c6		 mov	 eax, esi
  0001e	5e		 pop	 esi
  0001f	5d		 pop	 ebp
  00020	c2 04 00	 ret	 4
??_GCPacketList@@UAEPAXI@Z ENDP				; CPacketList::`scalar deleting destructor'
_TEXT	ENDS
; Function compile flags: /Ogtp
;	COMDAT ??4CPacketList@@QAEAAV0@ABV0@@Z
_TEXT	SEGMENT
___that$ = 8						; size = 4
??4CPacketList@@QAEAAV0@ABV0@@Z PROC			; CPacketList::operator=, COMDAT
; _this$ = ecx
  00000	55		 push	 ebp
  00001	8b ec		 mov	 ebp, esp
  00003	8b 45 08	 mov	 eax, DWORD PTR ___that$[ebp]
  00006	8b 40 04	 mov	 eax, DWORD PTR [eax+4]
  00009	89 41 04	 mov	 DWORD PTR [ecx+4], eax
  0000c	8b c1		 mov	 eax, ecx
  0000e	5d		 pop	 ebp
  0000f	c2 04 00	 ret	 4
??4CPacketList@@QAEAAV0@ABV0@@Z ENDP			; CPacketList::operator=
_TEXT	ENDS
; Function compile flags: /Ogtp
;	COMDAT ??0CPacketList@@QAE@ABV0@@Z
_TEXT	SEGMENT
___that$ = 8						; size = 4
??0CPacketList@@QAE@ABV0@@Z PROC			; CPacketList::CPacketList, COMDAT
; _this$ = ecx
  00000	55		 push	 ebp
  00001	8b ec		 mov	 ebp, esp
  00003	8b 45 08	 mov	 eax, DWORD PTR ___that$[ebp]
  00006	c7 01 00 00 00
	00		 mov	 DWORD PTR [ecx], OFFSET ??_7CPacketList@@6B@
  0000c	8b 40 04	 mov	 eax, DWORD PTR [eax+4]
  0000f	89 41 04	 mov	 DWORD PTR [ecx+4], eax
  00012	8b c1		 mov	 eax, ecx
  00014	5d		 pop	 ebp
  00015	c2 04 00	 ret	 4
??0CPacketList@@QAE@ABV0@@Z ENDP			; CPacketList::CPacketList
_TEXT	ENDS
; Function compile flags: /Ogtp
; File D:\git\src\IBK\IBK_DRFN\ProjSrc\SrcChartEx\ChartOCX\ScaleDraw\ScaleDrawerSingleton.cpp
;	COMDAT ?GetVertScaleDrawer@CVertScaleDrawerSingleton@@QAEPAVCVertScaleDrawer@@W4VERTSCALEDRAWERTYPE@CScaleBaseData@@@Z
_TEXT	SEGMENT
_drawerType$ = 8					; size = 4
?GetVertScaleDrawer@CVertScaleDrawerSingleton@@QAEPAVCVertScaleDrawer@@W4VERTSCALEDRAWERTYPE@CScaleBaseData@@@Z PROC ; CVertScaleDrawerSingleton::GetVertScaleDrawer, COMDAT
; _this$ = ecx

; 101  : {

  00000	55		 push	 ebp
  00001	8b ec		 mov	 ebp, esp

; 102  : 	switch(drawerType){

  00003	8b 45 08	 mov	 eax, DWORD PTR _drawerType$[ebp]
  00006	48		 dec	 eax
  00007	83 f8 09	 cmp	 eax, 9
  0000a	77 4c		 ja	 SHORT $LN2@GetVertSca
  0000c	ff 24 85 00 00
	00 00		 jmp	 DWORD PTR $LN15@GetVertSca[eax*4]
$LN4@GetVertSca:

; 103  : 		case CScaleBaseData::VERT_PRICE:	// 가격타입
; 104  : 			return &m_priceScaleDrawer;

  00013	8b c1		 mov	 eax, ecx

; 125  : }

  00015	5d		 pop	 ebp
  00016	c2 04 00	 ret	 4
$LN5@GetVertSca:

; 105  : 		case CScaleBaseData::VERT_VOLUME:	// 거래량타입
; 106  : 			return &m_volumeVertScaleDrawer;

  00019	8d 41 0c	 lea	 eax, DWORD PTR [ecx+12]

; 125  : }

  0001c	5d		 pop	 ebp
  0001d	c2 04 00	 ret	 4
$LN6@GetVertSca:

; 107  : 		case CScaleBaseData::VERT_SALE:		// 대기매물
; 108  : 			return &m_saleScaleDrawer;

  00020	8d 41 18	 lea	 eax, DWORD PTR [ecx+24]

; 125  : }

  00023	5d		 pop	 ebp
  00024	c2 04 00	 ret	 4
$LN7@GetVertSca:

; 109  : 		case CScaleBaseData::VERT_MARKETPROFILE: // MarketProfile
; 110  : 			return &m_marketProfileVertDrawer;

  00027	8d 41 24	 lea	 eax, DWORD PTR [ecx+36]

; 125  : }

  0002a	5d		 pop	 ebp
  0002b	c2 04 00	 ret	 4
$LN8@GetVertSca:

; 111  : 		case CScaleBaseData::VERT_BASELINE: // 기준선타입
; 112  : 			return &m_indicateScaleDrawer;

  0002e	8d 41 30	 lea	 eax, DWORD PTR [ecx+48]

; 125  : }

  00031	5d		 pop	 ebp
  00032	c2 04 00	 ret	 4
$LN9@GetVertSca:

; 113  : 		case CScaleBaseData::VERT_TEXT:		// text
; 114  : 			return &m_textVertScaleDrawer;		

  00035	8d 41 48	 lea	 eax, DWORD PTR [ecx+72]

; 125  : }

  00038	5d		 pop	 ebp
  00039	c2 04 00	 ret	 4
$LN10@GetVertSca:

; 115  : 		case CScaleBaseData::VERT_PACKETDATA:// 순수 packet Data
; 116  : 			return &m_packetDataScaleDrawer;

  0003c	8d 41 3c	 lea	 eax, DWORD PTR [ecx+60]

; 125  : }

  0003f	5d		 pop	 ebp
  00040	c2 04 00	 ret	 4
$LN11@GetVertSca:

; 117  : 		case CScaleBaseData::VERT_LOG:		// log
; 118  : 			return &m_logScaleDrawer;

  00043	8d 41 54	 lea	 eax, DWORD PTR [ecx+84]

; 125  : }

  00046	5d		 pop	 ebp
  00047	c2 04 00	 ret	 4
$LN12@GetVertSca:

; 119  : 		case CScaleBaseData::VERT_PERCENT:	// 백분율 (0% ~ 100%)
; 120  : 			return &m_percentScaleDrawer;

  0004a	8d 41 60	 lea	 eax, DWORD PTR [ecx+96]

; 125  : }

  0004d	5d		 pop	 ebp
  0004e	c2 04 00	 ret	 4
$LN13@GetVertSca:

; 121  : 		case CScaleBaseData::VERT_TOPBUTTOM_PLUS:	// +상하식
; 122  : 			return &m_topButtomPlusScaleDrawer;

  00051	8d 41 6c	 lea	 eax, DWORD PTR [ecx+108]

; 125  : }

  00054	5d		 pop	 ebp
  00055	c2 04 00	 ret	 4
$LN2@GetVertSca:

; 123  : 	}
; 124  : 	return NULL;

  00058	33 c0		 xor	 eax, eax

; 125  : }

  0005a	5d		 pop	 ebp
  0005b	c2 04 00	 ret	 4
  0005e	66 90		 npad	 2
$LN15@GetVertSca:
  00060	00 00 00 00	 DD	 $LN4@GetVertSca
  00064	00 00 00 00	 DD	 $LN5@GetVertSca
  00068	00 00 00 00	 DD	 $LN6@GetVertSca
  0006c	00 00 00 00	 DD	 $LN7@GetVertSca
  00070	00 00 00 00	 DD	 $LN8@GetVertSca
  00074	00 00 00 00	 DD	 $LN9@GetVertSca
  00078	00 00 00 00	 DD	 $LN10@GetVertSca
  0007c	00 00 00 00	 DD	 $LN11@GetVertSca
  00080	00 00 00 00	 DD	 $LN12@GetVertSca
  00084	00 00 00 00	 DD	 $LN13@GetVertSca
?GetVertScaleDrawer@CVertScaleDrawerSingleton@@QAEPAVCVertScaleDrawer@@W4VERTSCALEDRAWERTYPE@CScaleBaseData@@@Z ENDP ; CVertScaleDrawerSingleton::GetVertScaleDrawer
_TEXT	ENDS
; Function compile flags: /Ogtp
; File D:\git\src\IBK\IBK_DRFN\ProjSrc\SrcChartEx\ChartOCX\ScaleDraw\ScaleDrawerSingleton.cpp
;	COMDAT ??0CVertScaleDrawerSingleton@@QAE@PAUHWND__@@W4CHART_MODE@CChartInfo@@@Z
_TEXT	SEGMENT
_p_hOcxWnd$ = 8						; size = 4
_p_eChartMode$ = 12					; size = 4
??0CVertScaleDrawerSingleton@@QAE@PAUHWND__@@W4CHART_MODE@CChartInfo@@@Z PROC ; CVertScaleDrawerSingleton::CVertScaleDrawerSingleton, COMDAT
; _this$ = ecx

; 97   : {

  00000	55		 push	 ebp
  00001	8b ec		 mov	 ebp, esp
  00003	53		 push	 ebx
  00004	56		 push	 esi
  00005	8b 75 08	 mov	 esi, DWORD PTR _p_hOcxWnd$[ebp]
  00008	8b d9		 mov	 ebx, ecx
  0000a	57		 push	 edi
  0000b	8b 7d 0c	 mov	 edi, DWORD PTR _p_eChartMode$[ebp]
  0000e	57		 push	 edi
  0000f	56		 push	 esi
  00010	e8 00 00 00 00	 call	 ??0CPriceScaleDrawer@@QAE@PAUHWND__@@W4CHART_MODE@CChartInfo@@@Z ; CPriceScaleDrawer::CPriceScaleDrawer
  00015	57		 push	 edi
  00016	56		 push	 esi
  00017	8d 4b 0c	 lea	 ecx, DWORD PTR [ebx+12]
  0001a	e8 00 00 00 00	 call	 ??0CVolumeVertScaleDrawer@@QAE@PAUHWND__@@W4CHART_MODE@CChartInfo@@@Z ; CVolumeVertScaleDrawer::CVolumeVertScaleDrawer
  0001f	57		 push	 edi
  00020	56		 push	 esi
  00021	8d 4b 18	 lea	 ecx, DWORD PTR [ebx+24]
  00024	e8 00 00 00 00	 call	 ??0CSaleScaleDrawer@@QAE@PAUHWND__@@W4CHART_MODE@CChartInfo@@@Z ; CSaleScaleDrawer::CSaleScaleDrawer
  00029	57		 push	 edi
  0002a	56		 push	 esi
  0002b	8d 4b 24	 lea	 ecx, DWORD PTR [ebx+36]
  0002e	e8 00 00 00 00	 call	 ??0CMarketProfileVertScaleDrawer@@QAE@PAUHWND__@@W4CHART_MODE@CChartInfo@@@Z ; CMarketProfileVertScaleDrawer::CMarketProfileVertScaleDrawer
  00033	57		 push	 edi
  00034	56		 push	 esi
  00035	8d 4b 30	 lea	 ecx, DWORD PTR [ebx+48]
  00038	e8 00 00 00 00	 call	 ??0CIndicateScaleDrawer@@QAE@PAUHWND__@@W4CHART_MODE@CChartInfo@@@Z ; CIndicateScaleDrawer::CIndicateScaleDrawer
  0003d	57		 push	 edi
  0003e	56		 push	 esi
  0003f	8d 4b 3c	 lea	 ecx, DWORD PTR [ebx+60]
  00042	e8 00 00 00 00	 call	 ??0CPacketDataScaleDrawer@@QAE@PAUHWND__@@W4CHART_MODE@CChartInfo@@@Z ; CPacketDataScaleDrawer::CPacketDataScaleDrawer
  00047	57		 push	 edi
  00048	56		 push	 esi
  00049	8d 4b 48	 lea	 ecx, DWORD PTR [ebx+72]
  0004c	e8 00 00 00 00	 call	 ??0CTextVertScaleDrawer@@QAE@PAUHWND__@@W4CHART_MODE@CChartInfo@@@Z ; CTextVertScaleDrawer::CTextVertScaleDrawer
  00051	57		 push	 edi
  00052	56		 push	 esi
  00053	8d 4b 54	 lea	 ecx, DWORD PTR [ebx+84]
  00056	e8 00 00 00 00	 call	 ??0CLogScaleDrawer@@QAE@PAUHWND__@@W4CHART_MODE@CChartInfo@@@Z ; CLogScaleDrawer::CLogScaleDrawer
  0005b	57		 push	 edi
  0005c	56		 push	 esi
  0005d	8d 4b 60	 lea	 ecx, DWORD PTR [ebx+96]
  00060	e8 00 00 00 00	 call	 ??0CPercentFullScaleDrawer@@QAE@PAUHWND__@@W4CHART_MODE@CChartInfo@@@Z ; CPercentFullScaleDrawer::CPercentFullScaleDrawer
  00065	57		 push	 edi
  00066	56		 push	 esi
  00067	8d 4b 6c	 lea	 ecx, DWORD PTR [ebx+108]
  0006a	e8 00 00 00 00	 call	 ??0CTopButtomPlusScaleDrawer@@QAE@PAUHWND__@@W4CHART_MODE@CChartInfo@@@Z ; CTopButtomPlusScaleDrawer::CTopButtomPlusScaleDrawer

; 98   : }

  0006f	5f		 pop	 edi
  00070	5e		 pop	 esi
  00071	8b c3		 mov	 eax, ebx
  00073	5b		 pop	 ebx
  00074	5d		 pop	 ebp
  00075	c2 08 00	 ret	 8
??0CVertScaleDrawerSingleton@@QAE@PAUHWND__@@W4CHART_MODE@CChartInfo@@@Z ENDP ; CVertScaleDrawerSingleton::CVertScaleDrawerSingleton
_TEXT	ENDS
; Function compile flags: /Ogtp
; File D:\git\src\IBK\IBK_DRFN\ProjSrc\SrcChartEx\ChartOCX\ScaleDraw\ScaleDrawerSingleton.cpp
;	COMDAT ?GetHorzScaleDrawer@CHorzScaleDrawerSingleton@@QAEPAVCHorzScaleDrawer@@W4HORZSCALEDRAWERTYPE@CScaleBaseData@@@Z
_TEXT	SEGMENT
_scaleDrawerType$ = 8					; size = 4
?GetHorzScaleDrawer@CHorzScaleDrawerSingleton@@QAEPAVCHorzScaleDrawer@@W4HORZSCALEDRAWERTYPE@CScaleBaseData@@@Z PROC ; CHorzScaleDrawerSingleton::GetHorzScaleDrawer, COMDAT
; _this$ = ecx

; 74   : {

  00000	55		 push	 ebp
  00001	8b ec		 mov	 ebp, esp

; 75   : 	if(scaleDrawerType >= CScaleBaseData::HORZ_DAILY && scaleDrawerType <= CScaleBaseData::HORZ_MONTHLY)

  00003	8b 55 08	 mov	 edx, DWORD PTR _scaleDrawerType$[ebp]
  00006	8d 42 ff	 lea	 eax, DWORD PTR [edx-1]
  00009	83 f8 02	 cmp	 eax, 2
  0000c	76 2b		 jbe	 SHORT $LN6@GetHorzSca

; 76   : 		return &m_fullTimeScaleDrawer;
; 77   : 	else if(scaleDrawerType == CScaleBaseData::HORZ_TICK || 
; 78   : 			scaleDrawerType == CScaleBaseData::HORZ_TIME_ONE ||
; 79   : 			scaleDrawerType == CScaleBaseData::HORZ_TIME_TWO ||

  0000e	83 fa 05	 cmp	 edx, 5
  00011	74 26		 je	 SHORT $LN6@GetHorzSca
  00013	83 fa 04	 cmp	 edx, 4
  00016	74 21		 je	 SHORT $LN6@GetHorzSca
  00018	83 fa 06	 cmp	 edx, 6
  0001b	74 1c		 je	 SHORT $LN6@GetHorzSca
  0001d	83 fa 0c	 cmp	 edx, 12			; 0000000cH
  00020	74 17		 je	 SHORT $LN6@GetHorzSca

; 82   : 	else if(scaleDrawerType == CScaleBaseData::HORZ_TEXT)

  00022	83 fa 07	 cmp	 edx, 7
  00025	75 06		 jne	 SHORT $LN7@GetHorzSca

; 83   : 		return &m_textHorzScaleDrawer;

  00027	8b c1		 mov	 eax, ecx

; 86   : }

  00029	5d		 pop	 ebp
  0002a	c2 04 00	 ret	 4
$LN7@GetHorzSca:

; 84   : 
; 85   : 	return m_dataSingleton.GetDataHorzScaleDrawer(scaleDrawerType);

  0002d	89 55 08	 mov	 DWORD PTR _scaleDrawerType$[ebp], edx
  00030	83 c1 0c	 add	 ecx, 12			; 0000000cH

; 86   : }

  00033	5d		 pop	 ebp

; 84   : 
; 85   : 	return m_dataSingleton.GetDataHorzScaleDrawer(scaleDrawerType);

  00034	e9 00 00 00 00	 jmp	 ?GetDataHorzScaleDrawer@CDataHorzScaleDrawerSingleton@@QAEPAVCHorzScaleDrawer@@W4HORZSCALEDRAWERTYPE@CScaleBaseData@@@Z ; CDataHorzScaleDrawerSingleton::GetDataHorzScaleDrawer
$LN6@GetHorzSca:

; 80   : 			scaleDrawerType == CScaleBaseData::HORZ_TIME_SECOND)
; 81   : 		return &m_fullTimeScaleDrawer;

  00039	8d 41 3c	 lea	 eax, DWORD PTR [ecx+60]

; 86   : }

  0003c	5d		 pop	 ebp
  0003d	c2 04 00	 ret	 4
?GetHorzScaleDrawer@CHorzScaleDrawerSingleton@@QAEPAVCHorzScaleDrawer@@W4HORZSCALEDRAWERTYPE@CScaleBaseData@@@Z ENDP ; CHorzScaleDrawerSingleton::GetHorzScaleDrawer
_TEXT	ENDS
; Function compile flags: /Ogtp
; File D:\git\src\IBK\IBK_DRFN\ProjSrc\SrcChartEx\ChartOCX\ScaleDraw\ScaleDrawerSingleton.cpp
; File C:\Program Files (x86)\Microsoft Visual Studio\2019\Community\VC\Tools\MSVC\14.29.30133\atlmfc\include\cstringt.h
; File D:\git\src\IBK\IBK_DRFN\ProjSrc\SrcChartEx\ChartOCX\ScaleDraw\ScaleDrawerSingleton.cpp
; File C:\Program Files (x86)\Microsoft Visual Studio\2019\Community\VC\Tools\MSVC\14.29.30133\atlmfc\include\cstringt.h
; File D:\git\src\IBK\IBK_DRFN\ProjSrc\SrcChartEx\ChartOCX\ScaleDraw\ScaleDrawerSingleton.cpp
; File C:\Program Files (x86)\Microsoft Visual Studio\2019\Community\VC\Tools\MSVC\14.29.30133\atlmfc\include\cstringt.h
; File D:\git\src\IBK\IBK_DRFN\ProjSrc\SrcChartEx\ChartOCX\ScaleDraw\ScaleDrawerSingleton.cpp
;	COMDAT ?GetHorzScaleDrawer@CHorzScaleDrawerSingleton@@QAEPAVCHorzScaleDrawer@@PAVCPacket@@W4HORZSCALEDRAWERTYPE@CScaleBaseData@@@Z
_TEXT	SEGMENT
__$EHRec$ = -12						; size = 12
$T2 = 8							; size = 4
_pPacket$ = 8						; size = 4
_scaleDrawerType$ = 12					; size = 4
?GetHorzScaleDrawer@CHorzScaleDrawerSingleton@@QAEPAVCHorzScaleDrawer@@PAVCPacket@@W4HORZSCALEDRAWERTYPE@CScaleBaseData@@@Z PROC ; CHorzScaleDrawerSingleton::GetHorzScaleDrawer, COMDAT
; _this$ = ecx

; 57   : {

  00000	55		 push	 ebp
  00001	8b ec		 mov	 ebp, esp
  00003	6a ff		 push	 -1
  00005	68 00 00 00 00	 push	 __ehhandler$?GetHorzScaleDrawer@CHorzScaleDrawerSingleton@@QAEPAVCHorzScaleDrawer@@PAVCPacket@@W4HORZSCALEDRAWERTYPE@CScaleBaseData@@@Z
  0000a	64 a1 00 00 00
	00		 mov	 eax, DWORD PTR fs:0
  00010	50		 push	 eax
  00011	53		 push	 ebx
  00012	56		 push	 esi
  00013	57		 push	 edi
  00014	a1 00 00 00 00	 mov	 eax, DWORD PTR ___security_cookie
  00019	33 c5		 xor	 eax, ebp
  0001b	50		 push	 eax
  0001c	8d 45 f4	 lea	 eax, DWORD PTR __$EHRec$[ebp]
  0001f	64 a3 00 00 00
	00		 mov	 DWORD PTR fs:0, eax
  00025	8b d9		 mov	 ebx, ecx

; 58   : 	if(pPacket == NULL)

  00027	8b 4d 08	 mov	 ecx, DWORD PTR _pPacket$[ebp]
  0002a	85 c9		 test	 ecx, ecx
  0002c	75 16		 jne	 SHORT $LN2@GetHorzSca

; 59   : 		return NULL;

  0002e	33 c0		 xor	 eax, eax

; 71   : }

  00030	8b 4d f4	 mov	 ecx, DWORD PTR __$EHRec$[ebp]
  00033	64 89 0d 00 00
	00 00		 mov	 DWORD PTR fs:0, ecx
  0003a	59		 pop	 ecx
  0003b	5f		 pop	 edi
  0003c	5e		 pop	 esi
  0003d	5b		 pop	 ebx
  0003e	8b e5		 mov	 esp, ebp
  00040	5d		 pop	 ebp
  00041	c2 08 00	 ret	 8
$LN2@GetHorzSca:

; 60   : 
; 61   : 	// "자료일자"
; 62   : 	if( CScaleBaseData::HORZ_DAILY <= scaleDrawerType
; 63   : 		&& scaleDrawerType <= CScaleBaseData::HORZ_TIME_TWO
; 64   : 		|| scaleDrawerType == CScaleBaseData::HORZ_TIME_SECOND)

  00044	8b 7d 0c	 mov	 edi, DWORD PTR _scaleDrawerType$[ebp]
  00047	83 ff 01	 cmp	 edi, 1
  0004a	7c 05		 jl	 SHORT $LN6@GetHorzSca
  0004c	83 ff 06	 cmp	 edi, 6
  0004f	7e 05		 jle	 SHORT $LN5@GetHorzSca
$LN6@GetHorzSca:
  00051	83 ff 0c	 cmp	 edi, 12			; 0000000cH
  00054	75 17		 jne	 SHORT $LN3@GetHorzSca
$LN5@GetHorzSca:

; 65   : 		return &m_fullTimeScaleDrawer;

  00056	8d 43 3c	 lea	 eax, DWORD PTR [ebx+60]

; 71   : }

  00059	8b 4d f4	 mov	 ecx, DWORD PTR __$EHRec$[ebp]
  0005c	64 89 0d 00 00
	00 00		 mov	 DWORD PTR fs:0, ecx
  00063	59		 pop	 ecx
  00064	5f		 pop	 edi
  00065	5e		 pop	 esi
  00066	5b		 pop	 ebx
  00067	8b e5		 mov	 esp, ebp
  00069	5d		 pop	 ebp
  0006a	c2 08 00	 ret	 8
$LN3@GetHorzSca:

; 67   : 	else if( pPacket->GetType() == _MTEXT( C6_CHARACTER))

  0006d	6a 01		 push	 1
  0006f	8d 45 08	 lea	 eax, DWORD PTR $T2[ebp]
  00072	50		 push	 eax
  00073	ff 15 00 00 00
	00		 call	 DWORD PTR __imp_?GetType@CPacket@@QAE?AV?$CStringT@DV?$StrTraitMFC_DLL@DV?$ChTraitsCRT@D@ATL@@@@@ATL@@_N@Z
; File C:\Program Files (x86)\Microsoft Visual Studio\2019\Community\VC\Tools\MSVC\14.29.30133\atlmfc\include\cstringt.h

; 2486 : 		return(str1.Compare(psz2) == 0);

  00079	8b 0d 54 00 00
	00		 mov	 ecx, DWORD PTR ?g_iMetaTable@@3VIMetaTable@@A+84
; File D:\git\src\IBK\IBK_DRFN\ProjSrc\SrcChartEx\ChartOCX\ScaleDraw\ScaleDrawerSingleton.cpp

; 67   : 	else if( pPacket->GetType() == _MTEXT( C6_CHARACTER))

  0007f	c7 45 fc 00 00
	00 00		 mov	 DWORD PTR __$EHRec$[ebp+8], 0
; File C:\Program Files (x86)\Microsoft Visual Studio\2019\Community\VC\Tools\MSVC\14.29.30133\atlmfc\include\cstringt.h

; 2486 : 		return(str1.Compare(psz2) == 0);

  00086	ff b1 60 09 00
	00		 push	 DWORD PTR [ecx+2400]
  0008c	8b c8		 mov	 ecx, eax
  0008e	ff 15 00 00 00
	00		 call	 DWORD PTR __imp_?Compare@?$CStringT@DV?$StrTraitMFC_DLL@DV?$ChTraitsCRT@D@ATL@@@@@ATL@@QBEHPBD@Z
; File D:\git\src\IBK\IBK_DRFN\ProjSrc\SrcChartEx\ChartOCX\ScaleDraw\ScaleDrawerSingleton.cpp

; 67   : 	else if( pPacket->GetType() == _MTEXT( C6_CHARACTER))

  00094	8d 4d 08	 lea	 ecx, DWORD PTR $T2[ebp]
; File C:\Program Files (x86)\Microsoft Visual Studio\2019\Community\VC\Tools\MSVC\14.29.30133\atlmfc\include\cstringt.h

; 2486 : 		return(str1.Compare(psz2) == 0);

  00097	8b f0		 mov	 esi, eax
; File D:\git\src\IBK\IBK_DRFN\ProjSrc\SrcChartEx\ChartOCX\ScaleDraw\ScaleDrawerSingleton.cpp

; 67   : 	else if( pPacket->GetType() == _MTEXT( C6_CHARACTER))

  00099	ff 15 00 00 00
	00		 call	 DWORD PTR __imp_??1?$CStringT@DV?$StrTraitMFC_DLL@DV?$ChTraitsCRT@D@ATL@@@@@ATL@@QAE@XZ
  0009f	85 f6		 test	 esi, esi
  000a1	75 16		 jne	 SHORT $LN7@GetHorzSca

; 68   : 		return &m_textHorzScaleDrawer;

  000a3	8b c3		 mov	 eax, ebx

; 71   : }

  000a5	8b 4d f4	 mov	 ecx, DWORD PTR __$EHRec$[ebp]
  000a8	64 89 0d 00 00
	00 00		 mov	 DWORD PTR fs:0, ecx
  000af	59		 pop	 ecx
  000b0	5f		 pop	 edi
  000b1	5e		 pop	 esi
  000b2	5b		 pop	 ebx
  000b3	8b e5		 mov	 esp, ebp
  000b5	5d		 pop	 ebp
  000b6	c2 08 00	 ret	 8
$LN7@GetHorzSca:

; 69   : 
; 70   : 	return m_dataSingleton.GetDataHorzScaleDrawer(scaleDrawerType);

  000b9	57		 push	 edi
  000ba	8d 4b 0c	 lea	 ecx, DWORD PTR [ebx+12]
  000bd	e8 00 00 00 00	 call	 ?GetDataHorzScaleDrawer@CDataHorzScaleDrawerSingleton@@QAEPAVCHorzScaleDrawer@@W4HORZSCALEDRAWERTYPE@CScaleBaseData@@@Z ; CDataHorzScaleDrawerSingleton::GetDataHorzScaleDrawer

; 71   : }

  000c2	8b 4d f4	 mov	 ecx, DWORD PTR __$EHRec$[ebp]
  000c5	64 89 0d 00 00
	00 00		 mov	 DWORD PTR fs:0, ecx
  000cc	59		 pop	 ecx
  000cd	5f		 pop	 edi
  000ce	5e		 pop	 esi
  000cf	5b		 pop	 ebx
  000d0	8b e5		 mov	 esp, ebp
  000d2	5d		 pop	 ebp
  000d3	c2 08 00	 ret	 8
_TEXT	ENDS
;	COMDAT text$x
text$x	SEGMENT
__unwindfunclet$?GetHorzScaleDrawer@CHorzScaleDrawerSingleton@@QAEPAVCHorzScaleDrawer@@PAVCPacket@@W4HORZSCALEDRAWERTYPE@CScaleBaseData@@@Z$0:
  00000	8d 4d 08	 lea	 ecx, DWORD PTR $T2[ebp]
  00003	ff 25 00 00 00
	00		 jmp	 DWORD PTR __imp_??1?$CStringT@DV?$StrTraitMFC_DLL@DV?$ChTraitsCRT@D@ATL@@@@@ATL@@QAE@XZ
  00009	cc		 int	 3
  0000a	cc		 int	 3
  0000b	cc		 int	 3
  0000c	cc		 int	 3
  0000d	cc		 int	 3
__ehhandler$?GetHorzScaleDrawer@CHorzScaleDrawerSingleton@@QAEPAVCHorzScaleDrawer@@PAVCPacket@@W4HORZSCALEDRAWERTYPE@CScaleBaseData@@@Z:
  0000e	90		 npad	 1
  0000f	90		 npad	 1
  00010	8b 54 24 08	 mov	 edx, DWORD PTR [esp+8]
  00014	8d 42 0c	 lea	 eax, DWORD PTR [edx+12]
  00017	8b 4a f0	 mov	 ecx, DWORD PTR [edx-16]
  0001a	33 c8		 xor	 ecx, eax
  0001c	e8 00 00 00 00	 call	 @__security_check_cookie@4
  00021	b8 00 00 00 00	 mov	 eax, OFFSET __ehfuncinfo$?GetHorzScaleDrawer@CHorzScaleDrawerSingleton@@QAEPAVCHorzScaleDrawer@@PAVCPacket@@W4HORZSCALEDRAWERTYPE@CScaleBaseData@@@Z
  00026	e9 00 00 00 00	 jmp	 ___CxxFrameHandler3
text$x	ENDS
?GetHorzScaleDrawer@CHorzScaleDrawerSingleton@@QAEPAVCHorzScaleDrawer@@PAVCPacket@@W4HORZSCALEDRAWERTYPE@CScaleBaseData@@@Z ENDP ; CHorzScaleDrawerSingleton::GetHorzScaleDrawer
; Function compile flags: /Ogtp
; File D:\git\src\IBK\IBK_DRFN\ProjSrc\SrcChartEx\ChartOCX\ScaleDraw\ScaleDrawerSingleton.cpp
;	COMDAT ??0CHorzScaleDrawerSingleton@@QAE@PAUHWND__@@W4CHART_MODE@CChartInfo@@@Z
_TEXT	SEGMENT
_this$ = -4						; size = 4
_p_hOcxWnd$ = 8						; size = 4
_p_eChartMode$ = 12					; size = 4
??0CHorzScaleDrawerSingleton@@QAE@PAUHWND__@@W4CHART_MODE@CChartInfo@@@Z PROC ; CHorzScaleDrawerSingleton::CHorzScaleDrawerSingleton, COMDAT
; _this$ = ecx

; 52   : {

  00000	55		 push	 ebp
  00001	8b ec		 mov	 ebp, esp
  00003	51		 push	 ecx
  00004	53		 push	 ebx
  00005	8b 5d 0c	 mov	 ebx, DWORD PTR _p_eChartMode$[ebp]
  00008	56		 push	 esi
  00009	57		 push	 edi
  0000a	8b 7d 08	 mov	 edi, DWORD PTR _p_hOcxWnd$[ebp]
  0000d	8b f1		 mov	 esi, ecx
  0000f	53		 push	 ebx
  00010	57		 push	 edi
  00011	89 75 fc	 mov	 DWORD PTR _this$[ebp], esi
  00014	e8 00 00 00 00	 call	 ??0CTextHorzScaleDrawer@@QAE@PAUHWND__@@W4CHART_MODE@CChartInfo@@@Z ; CTextHorzScaleDrawer::CTextHorzScaleDrawer

; 24   : 	: m_priceZoneScaleDrawer( p_hOcxWnd, p_eChartMode), m_etcHorzScaleDrawer( p_hOcxWnd, p_eChartMode),

  00019	53		 push	 ebx
  0001a	57		 push	 edi
  0001b	8d 4e 0c	 lea	 ecx, DWORD PTR [esi+12]
  0001e	e8 00 00 00 00	 call	 ??0CPriceZoneHorzScaleDrawer@@QAE@PAUHWND__@@W4CHART_MODE@CChartInfo@@@Z ; CPriceZoneHorzScaleDrawer::CPriceZoneHorzScaleDrawer
  00023	53		 push	 ebx
  00024	57		 push	 edi
  00025	8d 4e 18	 lea	 ecx, DWORD PTR [esi+24]
  00028	e8 00 00 00 00	 call	 ??0CEtcDataHorzScaleDrawer@@QAE@PAUHWND__@@W4CHART_MODE@CChartInfo@@@Z ; CEtcDataHorzScaleDrawer::CEtcDataHorzScaleDrawer

; 25   : 		m_leftRightScaleDrawer( p_hOcxWnd, p_eChartMode), m_marketProfileHorzScaleDrawer( p_hOcxWnd, p_eChartMode)

  0002d	53		 push	 ebx
  0002e	57		 push	 edi
  0002f	8d 4e 24	 lea	 ecx, DWORD PTR [esi+36]
  00032	e8 00 00 00 00	 call	 ??0CLeftRightScaleDrawer@@QAE@PAUHWND__@@W4CHART_MODE@CChartInfo@@@Z ; CLeftRightScaleDrawer::CLeftRightScaleDrawer
  00037	53		 push	 ebx
  00038	57		 push	 edi
  00039	8d 4e 30	 lea	 ecx, DWORD PTR [esi+48]
  0003c	e8 00 00 00 00	 call	 ??0CMarketProfileHorzScaleDrawer@@QAE@PAUHWND__@@W4CHART_MODE@CChartInfo@@@Z ; CMarketProfileHorzScaleDrawer::CMarketProfileHorzScaleDrawer

; 26   : {
; 27   : }
; 28   : 
; 29   : CHorzScaleDrawer* CDataHorzScaleDrawerSingleton::GetDataHorzScaleDrawer(const CScaleBaseData::HORZSCALEDRAWERTYPE scaleDrawerType)
; 30   : {
; 31   : 	switch(scaleDrawerType){
; 32   : 	case CScaleBaseData::HORZ_LEFTRIGHT: // "좌우식"
; 33   : 		return &m_leftRightScaleDrawer;
; 34   : 	case CScaleBaseData::HORZ_PRICEZONE: // "행사가"
; 35   : 		return &m_priceZoneScaleDrawer;
; 36   : 	case CScaleBaseData::HORZ_DATA:		 // "기타 데이타" (거래량 포함)
; 37   : 		return &m_etcHorzScaleDrawer;
; 38   : 	case CScaleBaseData::HORZ_MARKETPROFILE:	// "MarketProfile"
; 39   : 		return &m_marketProfileHorzScaleDrawer;
; 40   : 	};
; 41   : 
; 42   : 	return NULL;
; 43   : }
; 44   : 
; 45   : 
; 46   : ////////////////////////////////////////////////////////////////////////////////////
; 47   : // class CScaleDrawerSingleton
; 48   : 
; 49   : CHorzScaleDrawerSingleton::CHorzScaleDrawerSingleton( HWND p_hOcxWnd, CChartInfo::CHART_MODE p_eChartMode)
; 50   : 	: m_textHorzScaleDrawer( p_hOcxWnd, p_eChartMode), m_dataSingleton( p_hOcxWnd, p_eChartMode),
; 51   : 		m_fullTimeScaleDrawer( p_hOcxWnd, p_eChartMode)

  00041	53		 push	 ebx
  00042	57		 push	 edi
  00043	8d 4e 3c	 lea	 ecx, DWORD PTR [esi+60]
  00046	e8 00 00 00 00	 call	 ??0CFullTimeScaleDrawer@@QAE@PAUHWND__@@W4CHART_MODE@CChartInfo@@@Z ; CFullTimeScaleDrawer::CFullTimeScaleDrawer

; 53   : }

  0004b	5f		 pop	 edi
  0004c	8b c6		 mov	 eax, esi
  0004e	5e		 pop	 esi
  0004f	5b		 pop	 ebx
  00050	8b e5		 mov	 esp, ebp
  00052	5d		 pop	 ebp
  00053	c2 08 00	 ret	 8
??0CHorzScaleDrawerSingleton@@QAE@PAUHWND__@@W4CHART_MODE@CChartInfo@@@Z ENDP ; CHorzScaleDrawerSingleton::CHorzScaleDrawerSingleton
_TEXT	ENDS
; Function compile flags: /Ogtp
; File D:\git\src\IBK\IBK_DRFN\ProjSrc\SrcChartEx\ChartOCX\ScaleDraw\ScaleDrawerSingleton.cpp
;	COMDAT ?GetDataHorzScaleDrawer@CDataHorzScaleDrawerSingleton@@QAEPAVCHorzScaleDrawer@@W4HORZSCALEDRAWERTYPE@CScaleBaseData@@@Z
_TEXT	SEGMENT
_scaleDrawerType$ = 8					; size = 4
?GetDataHorzScaleDrawer@CDataHorzScaleDrawerSingleton@@QAEPAVCHorzScaleDrawer@@W4HORZSCALEDRAWERTYPE@CScaleBaseData@@@Z PROC ; CDataHorzScaleDrawerSingleton::GetDataHorzScaleDrawer, COMDAT
; _this$ = ecx

; 30   : {

  00000	55		 push	 ebp
  00001	8b ec		 mov	 ebp, esp

; 31   : 	switch(scaleDrawerType){

  00003	8b 45 08	 mov	 eax, DWORD PTR _scaleDrawerType$[ebp]
  00006	83 c0 f8	 add	 eax, -8			; fffffff8H
  00009	83 f8 03	 cmp	 eax, 3
  0000c	77 22		 ja	 SHORT $LN2@GetDataHor
  0000e	ff 24 85 00 00
	00 00		 jmp	 DWORD PTR $LN9@GetDataHor[eax*4]
$LN4@GetDataHor:

; 32   : 	case CScaleBaseData::HORZ_LEFTRIGHT: // "좌우식"
; 33   : 		return &m_leftRightScaleDrawer;

  00015	8d 41 18	 lea	 eax, DWORD PTR [ecx+24]

; 43   : }

  00018	5d		 pop	 ebp
  00019	c2 04 00	 ret	 4
$LN5@GetDataHor:

; 34   : 	case CScaleBaseData::HORZ_PRICEZONE: // "행사가"
; 35   : 		return &m_priceZoneScaleDrawer;

  0001c	8b c1		 mov	 eax, ecx

; 43   : }

  0001e	5d		 pop	 ebp
  0001f	c2 04 00	 ret	 4
$LN6@GetDataHor:

; 36   : 	case CScaleBaseData::HORZ_DATA:		 // "기타 데이타" (거래량 포함)
; 37   : 		return &m_etcHorzScaleDrawer;

  00022	8d 41 0c	 lea	 eax, DWORD PTR [ecx+12]

; 43   : }

  00025	5d		 pop	 ebp
  00026	c2 04 00	 ret	 4
$LN7@GetDataHor:

; 38   : 	case CScaleBaseData::HORZ_MARKETPROFILE:	// "MarketProfile"
; 39   : 		return &m_marketProfileHorzScaleDrawer;

  00029	8d 41 24	 lea	 eax, DWORD PTR [ecx+36]

; 43   : }

  0002c	5d		 pop	 ebp
  0002d	c2 04 00	 ret	 4
$LN2@GetDataHor:

; 40   : 	};
; 41   : 
; 42   : 	return NULL;

  00030	33 c0		 xor	 eax, eax

; 43   : }

  00032	5d		 pop	 ebp
  00033	c2 04 00	 ret	 4
  00036	66 90		 npad	 2
$LN9@GetDataHor:
  00038	00 00 00 00	 DD	 $LN4@GetDataHor
  0003c	00 00 00 00	 DD	 $LN5@GetDataHor
  00040	00 00 00 00	 DD	 $LN6@GetDataHor
  00044	00 00 00 00	 DD	 $LN7@GetDataHor
?GetDataHorzScaleDrawer@CDataHorzScaleDrawerSingleton@@QAEPAVCHorzScaleDrawer@@W4HORZSCALEDRAWERTYPE@CScaleBaseData@@@Z ENDP ; CDataHorzScaleDrawerSingleton::GetDataHorzScaleDrawer
_TEXT	ENDS
; Function compile flags: /Ogtp
; File D:\git\src\IBK\IBK_DRFN\ProjSrc\SrcChartEx\ChartOCX\ScaleDraw\ScaleDrawerSingleton.cpp
;	COMDAT ??0CDataHorzScaleDrawerSingleton@@QAE@PAUHWND__@@W4CHART_MODE@CChartInfo@@@Z
_TEXT	SEGMENT
_p_hOcxWnd$ = 8						; size = 4
_p_eChartMode$ = 12					; size = 4
??0CDataHorzScaleDrawerSingleton@@QAE@PAUHWND__@@W4CHART_MODE@CChartInfo@@@Z PROC ; CDataHorzScaleDrawerSingleton::CDataHorzScaleDrawerSingleton, COMDAT
; _this$ = ecx

; 26   : {

  00000	55		 push	 ebp
  00001	8b ec		 mov	 ebp, esp
  00003	53		 push	 ebx
  00004	56		 push	 esi
  00005	8b 75 08	 mov	 esi, DWORD PTR _p_hOcxWnd$[ebp]
  00008	8b d9		 mov	 ebx, ecx
  0000a	57		 push	 edi
  0000b	8b 7d 0c	 mov	 edi, DWORD PTR _p_eChartMode$[ebp]
  0000e	57		 push	 edi
  0000f	56		 push	 esi
  00010	e8 00 00 00 00	 call	 ??0CPriceZoneHorzScaleDrawer@@QAE@PAUHWND__@@W4CHART_MODE@CChartInfo@@@Z ; CPriceZoneHorzScaleDrawer::CPriceZoneHorzScaleDrawer
  00015	57		 push	 edi
  00016	56		 push	 esi
  00017	8d 4b 0c	 lea	 ecx, DWORD PTR [ebx+12]
  0001a	e8 00 00 00 00	 call	 ??0CEtcDataHorzScaleDrawer@@QAE@PAUHWND__@@W4CHART_MODE@CChartInfo@@@Z ; CEtcDataHorzScaleDrawer::CEtcDataHorzScaleDrawer
  0001f	57		 push	 edi
  00020	56		 push	 esi
  00021	8d 4b 18	 lea	 ecx, DWORD PTR [ebx+24]
  00024	e8 00 00 00 00	 call	 ??0CLeftRightScaleDrawer@@QAE@PAUHWND__@@W4CHART_MODE@CChartInfo@@@Z ; CLeftRightScaleDrawer::CLeftRightScaleDrawer
  00029	57		 push	 edi
  0002a	56		 push	 esi
  0002b	8d 4b 24	 lea	 ecx, DWORD PTR [ebx+36]
  0002e	e8 00 00 00 00	 call	 ??0CMarketProfileHorzScaleDrawer@@QAE@PAUHWND__@@W4CHART_MODE@CChartInfo@@@Z ; CMarketProfileHorzScaleDrawer::CMarketProfileHorzScaleDrawer

; 27   : }

  00033	5f		 pop	 edi
  00034	5e		 pop	 esi
  00035	8b c3		 mov	 eax, ebx
  00037	5b		 pop	 ebx
  00038	5d		 pop	 ebp
  00039	c2 08 00	 ret	 8
??0CDataHorzScaleDrawerSingleton@@QAE@PAUHWND__@@W4CHART_MODE@CChartInfo@@@Z ENDP ; CDataHorzScaleDrawerSingleton::CDataHorzScaleDrawerSingleton
_TEXT	ENDS
; Function compile flags: /Ogtp
; File D:\git\src\IBK\IBK_DRFN\ProjSrc\SrcChartEx\ChartOCX\ScaleDraw\ScaleDrawerSingleton.cpp
;	COMDAT ?__empty_global_delete@@YAXPAXI@Z
_TEXT	SEGMENT
___formal$ = 8						; size = 4
___formal$ = 12						; size = 4
?__empty_global_delete@@YAXPAXI@Z PROC			; __empty_global_delete, COMDAT

  00000	c2 00 00	 ret	 0
?__empty_global_delete@@YAXPAXI@Z ENDP			; __empty_global_delete
_TEXT	ENDS
; Function compile flags: /Ogtp
; File D:\git\src\IBK\IBK_DRFN\ProjSrc\SrcChartEx\ChartOCX\ScaleDraw\ScaleDrawerSingleton.cpp
;	COMDAT ?__empty_global_delete@@YAXPAX@Z
_TEXT	SEGMENT
___formal$ = 8						; size = 4
?__empty_global_delete@@YAXPAX@Z PROC			; __empty_global_delete, COMDAT

  00000	c2 00 00	 ret	 0
?__empty_global_delete@@YAXPAX@Z ENDP			; __empty_global_delete
_TEXT	ENDS
END
