; Listing generated by Microsoft (R) Optimizing Compiler Version 19.29.30145.0 

	TITLE	D:\git\src\IBK\IBK_DRFN\#DRfn-CS\_Obj\ScaleDraw\SpecialScaleDrawer.obj
	.686P
	.XMM
	include listing.inc
	.model	flat

INCLUDELIB MSVCRT
INCLUDELIB OLDNAMES

PUBLIC	?__empty_global_delete@@YAXPAX@Z		; __empty_global_delete
PUBLIC	?__empty_global_delete@@YAXPAXI@Z		; __empty_global_delete
PUBLIC	??1CObject@@UAE@XZ				; CObject::~CObject
PUBLIC	?Serialize@CObject@@UAEXAAVCArchive@@@Z		; CObject::Serialize
PUBLIC	?AssertValid@CObject@@UBEXXZ			; CObject::AssertValid
PUBLIC	?Dump@CObject@@UBEXAAVCDumpContext@@@Z		; CObject::Dump
PUBLIC	??1CGdiObject@@UAE@XZ				; CGdiObject::~CGdiObject
PUBLIC	??_GCGdiObject@@UAEPAXI@Z			; CGdiObject::`scalar deleting destructor'
PUBLIC	??1CPen@@UAE@XZ					; CPen::~CPen
PUBLIC	??_GCPen@@UAEPAXI@Z				; CPen::`scalar deleting destructor'
PUBLIC	??0CSaleScaleDrawer@@QAE@PAUHWND__@@W4CHART_MODE@CChartInfo@@@Z ; CSaleScaleDrawer::CSaleScaleDrawer
PUBLIC	?DrawTextOrGrid@CSaleScaleDrawer@@UAEXPAVCDC@@ABVCDrawingVertScaleData@@ABVCScaleDrawingRegion@@ABVCVerticalScale@@@Z ; CSaleScaleDrawer::DrawTextOrGrid
PUBLIC	?DrawTextOrGrid_Both@CSaleScaleDrawer@@UAEXPAVCDC@@ABVCDrawingVertScaleData@@ABVCVertScaleRegion@@ABVCVerticalScale@@@Z ; CSaleScaleDrawer::DrawTextOrGrid_Both
PUBLIC	?DrawTextOrGrid_Volumn@CSaleScaleDrawer@@AAEXPAVCDC@@ABVCDrawingVertScaleData@@ABVCRect@@ABVCVerticalScale@@@Z ; CSaleScaleDrawer::DrawTextOrGrid_Volumn
PUBLIC	?DrawTextOrGrid_Price@CSaleScaleDrawer@@AAEXPAVCDC@@ABVCDrawingVertScaleData@@ABVCScaleDrawingRegion@@ABVCVerticalScale@@@Z ; CSaleScaleDrawer::DrawTextOrGrid_Price
PUBLIC	?GetSaleData@CSaleScaleDrawer@@AAE_NPAVCPacket@@HAAHAAN2@Z ; CSaleScaleDrawer::GetSaleData
PUBLIC	?GetDataCount@CSaleScaleDrawer@@ABEHPBV?$CList@NN@@@Z ; CSaleScaleDrawer::GetDataCount
PUBLIC	?GetTotalData@CSaleScaleDrawer@@ABENPBV?$CList@NN@@@Z ; CSaleScaleDrawer::GetTotalData
PUBLIC	?GetPercentData@CSaleScaleDrawer@@ABENABN0@Z	; CSaleScaleDrawer::GetPercentData
PUBLIC	??0CMarketProfileVertScaleDrawer@@QAE@PAUHWND__@@W4CHART_MODE@CChartInfo@@@Z ; CMarketProfileVertScaleDrawer::CMarketProfileVertScaleDrawer
PUBLIC	?DrawTextOrGrid@CMarketProfileVertScaleDrawer@@UAEXPAVCDC@@ABVCDrawingVertScaleData@@ABVCScaleDrawingRegion@@ABVCVerticalScale@@@Z ; CMarketProfileVertScaleDrawer::DrawTextOrGrid
PUBLIC	?DrawTextOrGrid_Both@CMarketProfileVertScaleDrawer@@UAEXPAVCDC@@ABVCDrawingVertScaleData@@ABVCVertScaleRegion@@ABVCVerticalScale@@@Z ; CMarketProfileVertScaleDrawer::DrawTextOrGrid_Both
PUBLIC	?GetPacketType@CMarketProfileVertScaleDrawer@@ABE?AV?$CStringT@DV?$StrTraitMFC_DLL@DV?$ChTraitsCRT@D@ATL@@@@@ATL@@PAVCPacket@@@Z ; CMarketProfileVertScaleDrawer::GetPacketType
PUBLIC	??0CIndicatorList@@QAE@ABV0@@Z			; CIndicatorList::CIndicatorList
PUBLIC	??4CIndicatorList@@QAEAAV0@ABV0@@Z		; CIndicatorList::operator=
PUBLIC	??_GCIndicatorList@@UAEPAXI@Z			; CIndicatorList::`scalar deleting destructor'
PUBLIC	??_ECIndicatorList@@UAEPAXI@Z			; CIndicatorList::`vector deleting destructor'
PUBLIC	??0CIndicatorInfo@@QAE@ABV0@@Z			; CIndicatorInfo::CIndicatorInfo
PUBLIC	??4CIndicatorInfo@@QAEAAV0@ABV0@@Z		; CIndicatorInfo::operator=
PUBLIC	??_GCIndicatorInfo@@UAEPAXI@Z			; CIndicatorInfo::`scalar deleting destructor'
PUBLIC	??_ECIndicatorInfo@@UAEPAXI@Z			; CIndicatorInfo::`vector deleting destructor'
PUBLIC	??1CScaleCompart@@QAE@XZ			; CScaleCompart::~CScaleCompart
PUBLIC	??0CScaleCompart@@QAE@ABV0@@Z			; CScaleCompart::CScaleCompart
PUBLIC	??1CScale@@QAE@XZ				; CScale::~CScale
PUBLIC	??0CScale@@QAE@ABV0@@Z				; CScale::CScale
PUBLIC	??1CHorizontalScale@@QAE@XZ			; CHorizontalScale::~CHorizontalScale
PUBLIC	??0CHorizontalScale@@QAE@ABV0@@Z		; CHorizontalScale::CHorizontalScale
PUBLIC	?IsVertScaleMinMaxLock@CVerticalScale@@QBEHXZ	; CVerticalScale::IsVertScaleMinMaxLock
PUBLIC	?SetVertScaleMinMaxLock@CVerticalScale@@QAEXH@Z	; CVerticalScale::SetVertScaleMinMaxLock
PUBLIC	?GetVertScaleMinMaxType@CVerticalScale@@QBE?AW4VERTMINMAXTYPE@CScaleBaseData@@XZ ; CVerticalScale::GetVertScaleMinMaxType
PUBLIC	?SetVertScaleMinMaxType@CVerticalScale@@QAEXW4VERTMINMAXTYPE@CScaleBaseData@@@Z ; CVerticalScale::SetVertScaleMinMaxType
PUBLIC	?GetVertScaleMin@CVerticalScale@@QBENXZ		; CVerticalScale::GetVertScaleMin
PUBLIC	?SetVertScaleMin@CVerticalScale@@QAEXN@Z	; CVerticalScale::SetVertScaleMin
PUBLIC	?GetVertScaleMax@CVerticalScale@@QBENXZ		; CVerticalScale::GetVertScaleMax
PUBLIC	?SetVertScaleMax@CVerticalScale@@QAEXN@Z	; CVerticalScale::SetVertScaleMax
PUBLIC	?SetVertScaleHoGaNumber@CVerticalScale@@QAEXN@Z	; CVerticalScale::SetVertScaleHoGaNumber
PUBLIC	?SetVertScaleUserNumber@CVerticalScale@@QAEXN@Z	; CVerticalScale::SetVertScaleUserNumber
PUBLIC	?SetVertUserHogaScaleType@CVerticalScale@@QAEXH@Z ; CVerticalScale::SetVertUserHogaScaleType
PUBLIC	?GetVertScaleHoGaNumber@CVerticalScale@@QBENXZ	; CVerticalScale::GetVertScaleHoGaNumber
PUBLIC	?GetVertScaleUserNumber@CVerticalScale@@QBENXZ	; CVerticalScale::GetVertScaleUserNumber
PUBLIC	?GetVertUserHogaScaleType@CVerticalScale@@QBEHXZ ; CVerticalScale::GetVertUserHogaScaleType
PUBLIC	?GetVertScaleInvertType@CVerticalScale@@QBE_NXZ	; CVerticalScale::GetVertScaleInvertType
PUBLIC	?SetVertScaleInvertType@CVerticalScale@@QAEX_N@Z ; CVerticalScale::SetVertScaleInvertType
PUBLIC	?SetSpace@CVerticalScale@@QAEXHH@Z		; CVerticalScale::SetSpace
PUBLIC	?GetSpace@CVerticalScale@@QBEXAAH0@Z		; CVerticalScale::GetSpace
PUBLIC	??1CVerticalScale@@QAE@XZ			; CVerticalScale::~CVerticalScale
PUBLIC	??0CVerticalScale@@QAE@ABV0@@Z			; CVerticalScale::CVerticalScale
PUBLIC	??4CHorzScaleRegionHeight@@QAEAAV0@ABV0@@Z	; CHorzScaleRegionHeight::operator=
PUBLIC	??4CHorzScaleRegionHeight@@QAEAAV0@$$QAV0@@Z	; CHorzScaleRegionHeight::operator=
PUBLIC	??4CVertScaleRegionWidth@@QAEAAV0@ABV0@@Z	; CVertScaleRegionWidth::operator=
PUBLIC	??4CVertScaleRegionWidth@@QAEAAV0@$$QAV0@@Z	; CVertScaleRegionWidth::operator=
PUBLIC	??4CHorzScaleRegion@@QAEAAV0@ABV0@@Z		; CHorzScaleRegion::operator=
PUBLIC	??4CHorzScaleRegion@@QAEAAV0@$$QAV0@@Z		; CHorzScaleRegion::operator=
PUBLIC	??4CVertScaleRegion@@QAEAAV0@ABV0@@Z		; CVertScaleRegion::operator=
PUBLIC	??4CVertScaleRegion@@QAEAAV0@$$QAV0@@Z		; CVertScaleRegion::operator=
PUBLIC	??0CPacketList@@QAE@ABV0@@Z			; CPacketList::CPacketList
PUBLIC	??4CPacketList@@QAEAAV0@ABV0@@Z			; CPacketList::operator=
PUBLIC	??_GCPacketList@@UAEPAXI@Z			; CPacketList::`scalar deleting destructor'
PUBLIC	??_ECPacketList@@UAEPAXI@Z			; CPacketList::`vector deleting destructor'
PUBLIC	??_R0PAVCException@@@8				; CException * `RTTI Type Descriptor'
PUBLIC	??_7CGdiObject@@6B@				; CGdiObject::`vftable'
PUBLIC	??_7CPen@@6B@					; CPen::`vftable'
PUBLIC	??_C@_0HD@JJCHHHNK@C?3?2Program?5Files?5?$CIx86?$CJ?2Microsof@ ; `string'
PUBLIC	??_C@_0BP@OIEOKIDM@Exception?5thrown?5in?5destructor@ ; `string'
PUBLIC	??_C@_0BB@HBOOMJBF@?$CFTs?5?$CI?$CFTs?3?$CFd?$CJ?6?$CFTs@ ; `string'
PUBLIC	??_C@_0N@OMEMOKLE@?$CFTs?5?$CI?$CFTs?3?$CFd?$CJ@ ; `string'
PUBLIC	??_R0?AVCObject@@@8				; CObject `RTTI Type Descriptor'
PUBLIC	??_R3CObject@@8					; CObject::`RTTI Class Hierarchy Descriptor'
PUBLIC	??_R2CObject@@8					; CObject::`RTTI Base Class Array'
PUBLIC	??_R1A@?0A@EA@CObject@@8			; CObject::`RTTI Base Class Descriptor at (0,-1,0,64)'
PUBLIC	??_R4CGdiObject@@6B@				; CGdiObject::`RTTI Complete Object Locator'
PUBLIC	??_R0?AVCGdiObject@@@8				; CGdiObject `RTTI Type Descriptor'
PUBLIC	??_R3CGdiObject@@8				; CGdiObject::`RTTI Class Hierarchy Descriptor'
PUBLIC	??_R2CGdiObject@@8				; CGdiObject::`RTTI Base Class Array'
PUBLIC	??_R1A@?0A@EA@CGdiObject@@8			; CGdiObject::`RTTI Base Class Descriptor at (0,-1,0,64)'
PUBLIC	??_R4CPen@@6B@					; CPen::`RTTI Complete Object Locator'
PUBLIC	??_R0?AVCPen@@@8				; CPen `RTTI Type Descriptor'
PUBLIC	??_R3CPen@@8					; CPen::`RTTI Class Hierarchy Descriptor'
PUBLIC	??_R2CPen@@8					; CPen::`RTTI Base Class Array'
PUBLIC	??_R1A@?0A@EA@CPen@@8				; CPen::`RTTI Base Class Descriptor at (0,-1,0,64)'
PUBLIC	??_7CSaleScaleDrawer@@6B@			; CSaleScaleDrawer::`vftable'
PUBLIC	??_7CMarketProfileVertScaleDrawer@@6B@		; CMarketProfileVertScaleDrawer::`vftable'
PUBLIC	??_7CIndicatorList@@6B@				; CIndicatorList::`vftable'
PUBLIC	??_7CIndicatorInfo@@6B@				; CIndicatorInfo::`vftable'
PUBLIC	??_7CScale@@6B@					; CScale::`vftable'
PUBLIC	??_7CHorizontalScale@@6B@			; CHorizontalScale::`vftable'
PUBLIC	??_7CVerticalScale@@6B@				; CVerticalScale::`vftable'
PUBLIC	??_7CPacketList@@6B@				; CPacketList::`vftable'
PUBLIC	??_C@_01FGNFDNOH@?$CF@				; `string'
PUBLIC	??_C@_03IOCAOJMC@x?51@				; `string'
PUBLIC	??_C@_05GMCIGKAN@x?50?41@			; `string'
PUBLIC	??_C@_03MDAFIFFL@0?40@				; `string'
PUBLIC	??_C@_02CPNCMKFB@0?4@				; `string'
PUBLIC	??_C@_01LFCBOECM@?4@				; `string'
PUBLIC	??_C@_01GBGANLPD@0@				; `string'
PUBLIC	??_C@_02NJPGOMH@?$CFf@				; `string'
PUBLIC	??_C@_05KKLGFDFJ@x0?401@			; `string'
PUBLIC	??_R4CVerticalScale@@6B@			; CVerticalScale::`RTTI Complete Object Locator'
PUBLIC	??_R0?AVCVerticalScale@@@8			; CVerticalScale `RTTI Type Descriptor'
PUBLIC	??_R3CVerticalScale@@8				; CVerticalScale::`RTTI Class Hierarchy Descriptor'
PUBLIC	??_R2CVerticalScale@@8				; CVerticalScale::`RTTI Base Class Array'
PUBLIC	??_R1A@?0A@EA@CVerticalScale@@8			; CVerticalScale::`RTTI Base Class Descriptor at (0,-1,0,64)'
PUBLIC	??_R1A@?0A@EA@CScale@@8				; CScale::`RTTI Base Class Descriptor at (0,-1,0,64)'
PUBLIC	??_R0?AVCScale@@@8				; CScale `RTTI Type Descriptor'
PUBLIC	??_R3CScale@@8					; CScale::`RTTI Class Hierarchy Descriptor'
PUBLIC	??_R2CScale@@8					; CScale::`RTTI Base Class Array'
PUBLIC	??_R4CSaleScaleDrawer@@6B@			; CSaleScaleDrawer::`RTTI Complete Object Locator'
PUBLIC	??_R0?AVCSaleScaleDrawer@@@8			; CSaleScaleDrawer `RTTI Type Descriptor'
PUBLIC	??_R3CSaleScaleDrawer@@8			; CSaleScaleDrawer::`RTTI Class Hierarchy Descriptor'
PUBLIC	??_R2CSaleScaleDrawer@@8			; CSaleScaleDrawer::`RTTI Base Class Array'
PUBLIC	??_R1A@?0A@EA@CSaleScaleDrawer@@8		; CSaleScaleDrawer::`RTTI Base Class Descriptor at (0,-1,0,64)'
PUBLIC	??_R1A@?0A@EA@CPriceScaleDrawer@@8		; CPriceScaleDrawer::`RTTI Base Class Descriptor at (0,-1,0,64)'
PUBLIC	??_R0?AVCPriceScaleDrawer@@@8			; CPriceScaleDrawer `RTTI Type Descriptor'
PUBLIC	??_R3CPriceScaleDrawer@@8			; CPriceScaleDrawer::`RTTI Class Hierarchy Descriptor'
PUBLIC	??_R2CPriceScaleDrawer@@8			; CPriceScaleDrawer::`RTTI Base Class Array'
PUBLIC	??_R1A@?0A@EA@CVertScaleDrawer@@8		; CVertScaleDrawer::`RTTI Base Class Descriptor at (0,-1,0,64)'
PUBLIC	??_R0?AVCVertScaleDrawer@@@8			; CVertScaleDrawer `RTTI Type Descriptor'
PUBLIC	??_R3CVertScaleDrawer@@8			; CVertScaleDrawer::`RTTI Class Hierarchy Descriptor'
PUBLIC	??_R2CVertScaleDrawer@@8			; CVertScaleDrawer::`RTTI Base Class Array'
PUBLIC	??_R13?0A@EA@CDrawer@@8				; CDrawer::`RTTI Base Class Descriptor at (4,-1,0,64)'
PUBLIC	??_R0?AVCDrawer@@@8				; CDrawer `RTTI Type Descriptor'
PUBLIC	??_R3CDrawer@@8					; CDrawer::`RTTI Class Hierarchy Descriptor'
PUBLIC	??_R2CDrawer@@8					; CDrawer::`RTTI Base Class Array'
PUBLIC	??_R1A@?0A@EA@CDrawer@@8			; CDrawer::`RTTI Base Class Descriptor at (0,-1,0,64)'
PUBLIC	??_R4CMarketProfileVertScaleDrawer@@6B@		; CMarketProfileVertScaleDrawer::`RTTI Complete Object Locator'
PUBLIC	??_R0?AVCMarketProfileVertScaleDrawer@@@8	; CMarketProfileVertScaleDrawer `RTTI Type Descriptor'
PUBLIC	??_R3CMarketProfileVertScaleDrawer@@8		; CMarketProfileVertScaleDrawer::`RTTI Class Hierarchy Descriptor'
PUBLIC	??_R2CMarketProfileVertScaleDrawer@@8		; CMarketProfileVertScaleDrawer::`RTTI Base Class Array'
PUBLIC	??_R1A@?0A@EA@CMarketProfileVertScaleDrawer@@8	; CMarketProfileVertScaleDrawer::`RTTI Base Class Descriptor at (0,-1,0,64)'
PUBLIC	??_R4CIndicatorInfo@@6B@			; CIndicatorInfo::`RTTI Complete Object Locator'
PUBLIC	??_R0?AVCIndicatorInfo@@@8			; CIndicatorInfo `RTTI Type Descriptor'
PUBLIC	??_R3CIndicatorInfo@@8				; CIndicatorInfo::`RTTI Class Hierarchy Descriptor'
PUBLIC	??_R2CIndicatorInfo@@8				; CIndicatorInfo::`RTTI Base Class Array'
PUBLIC	??_R1A@?0A@EA@CIndicatorInfo@@8			; CIndicatorInfo::`RTTI Base Class Descriptor at (0,-1,0,64)'
PUBLIC	??_R4CIndicatorList@@6B@			; CIndicatorList::`RTTI Complete Object Locator'
PUBLIC	??_R0?AVCIndicatorList@@@8			; CIndicatorList `RTTI Type Descriptor'
PUBLIC	??_R3CIndicatorList@@8				; CIndicatorList::`RTTI Class Hierarchy Descriptor'
PUBLIC	??_R2CIndicatorList@@8				; CIndicatorList::`RTTI Base Class Array'
PUBLIC	??_R1A@?0A@EA@CIndicatorList@@8			; CIndicatorList::`RTTI Base Class Descriptor at (0,-1,0,64)'
PUBLIC	??_R4CScale@@6B@				; CScale::`RTTI Complete Object Locator'
PUBLIC	??_R4CHorizontalScale@@6B@			; CHorizontalScale::`RTTI Complete Object Locator'
PUBLIC	??_R0?AVCHorizontalScale@@@8			; CHorizontalScale `RTTI Type Descriptor'
PUBLIC	??_R3CHorizontalScale@@8			; CHorizontalScale::`RTTI Class Hierarchy Descriptor'
PUBLIC	??_R2CHorizontalScale@@8			; CHorizontalScale::`RTTI Base Class Array'
PUBLIC	??_R1A@?0A@EA@CHorizontalScale@@8		; CHorizontalScale::`RTTI Base Class Descriptor at (0,-1,0,64)'
PUBLIC	??_R4CPacketList@@6B@				; CPacketList::`RTTI Complete Object Locator'
PUBLIC	??_R0?AVCPacketList@@@8				; CPacketList `RTTI Type Descriptor'
PUBLIC	??_R3CPacketList@@8				; CPacketList::`RTTI Class Hierarchy Descriptor'
PUBLIC	??_R2CPacketList@@8				; CPacketList::`RTTI Base Class Array'
PUBLIC	??_R1A@?0A@EA@CPacketList@@8			; CPacketList::`RTTI Base Class Descriptor at (0,-1,0,64)'
PUBLIC	__real@0000000000000000
PUBLIC	__real@3cb0000000000000
PUBLIC	__real@3fe0000000000000
PUBLIC	__real@3ff0000000000000
PUBLIC	__real@4014000000000000
PUBLIC	__real@4024000000000000
PUBLIC	__real@4059000000000000
PUBLIC	__real@7fefffffffffffff
PUBLIC	__xmm@7fffffffffffffff7fffffffffffffff
EXTRN	??_M@YGXPAXIIP6EX0@Z@Z:PROC			; `eh vector destructor iterator'
EXTRN	??3@YAXPAX@Z:PROC				; operator delete
EXTRN	??3@YAXPAXI@Z:PROC				; operator delete
EXTRN	?__global_delete@@YAXPAXI@Z:PROC		; __global_delete
EXTRN	??_V@YAXPAXI@Z:PROC				; operator delete[]
EXTRN	__imp__isdigit:PROC
EXTRN	__imp__CreatePen@12:PROC
EXTRN	__imp__GetTextExtentPoint32A@16:PROC
EXTRN	?AfxThrowInvalidArgException@@YGXXZ:PROC	; AfxThrowInvalidArgException
EXTRN	__imp_?GetAt@?$CSimpleStringT@D$00@ATL@@QBEDH@Z:PROC
EXTRN	__imp_?Concatenate@?$CSimpleStringT@D$00@ATL@@KAXAAV12@PBDH1H@Z:PROC
EXTRN	__imp_??0?$CStringT@DV?$StrTraitMFC_DLL@DV?$ChTraitsCRT@D@ATL@@@@@ATL@@QAE@XZ:PROC
EXTRN	__imp_??0?$CStringT@DV?$StrTraitMFC_DLL@DV?$ChTraitsCRT@D@ATL@@@@@ATL@@QAE@PAUIAtlStringMgr@1@@Z:PROC
EXTRN	__imp_??0?$CStringT@DV?$StrTraitMFC_DLL@DV?$ChTraitsCRT@D@ATL@@@@@ATL@@QAE@ABV01@@Z:PROC
EXTRN	__imp_??0?$CStringT@DV?$StrTraitMFC_DLL@DV?$ChTraitsCRT@D@ATL@@@@@ATL@@QAE@PBD@Z:PROC
EXTRN	__imp_??1?$CStringT@DV?$StrTraitMFC_DLL@DV?$ChTraitsCRT@D@ATL@@@@@ATL@@QAE@XZ:PROC
EXTRN	__imp_??4?$CStringT@DV?$StrTraitMFC_DLL@DV?$ChTraitsCRT@D@ATL@@@@@ATL@@QAEAAV01@ABV01@@Z:PROC
EXTRN	__imp_??4?$CStringT@DV?$StrTraitMFC_DLL@DV?$ChTraitsCRT@D@ATL@@@@@ATL@@QAEAAV01@PBD@Z:PROC
EXTRN	__imp_?GetManager@?$CStringT@DV?$StrTraitMFC_DLL@DV?$ChTraitsCRT@D@ATL@@@@@ATL@@QBEPAUIAtlStringMgr@2@XZ:PROC
EXTRN	__imp_?Insert@?$CStringT@DV?$StrTraitMFC_DLL@DV?$ChTraitsCRT@D@ATL@@@@@ATL@@QAEHHD@Z:PROC
EXTRN	__imp_?Replace@?$CStringT@DV?$StrTraitMFC_DLL@DV?$ChTraitsCRT@D@ATL@@@@@ATL@@QAEHPBD0@Z:PROC
EXTRN	__imp_?Find@?$CStringT@DV?$StrTraitMFC_DLL@DV?$ChTraitsCRT@D@ATL@@@@@ATL@@QBEHDH@Z:PROC
EXTRN	__imp_?Find@?$CStringT@DV?$StrTraitMFC_DLL@DV?$ChTraitsCRT@D@ATL@@@@@ATL@@QBEHPBDH@Z:PROC
EXTRN	__imp_?Left@?$CStringT@DV?$StrTraitMFC_DLL@DV?$ChTraitsCRT@D@ATL@@@@@ATL@@QBE?AV12@H@Z:PROC
EXTRN	__imp_?Format@?$CStringT@DV?$StrTraitMFC_DLL@DV?$ChTraitsCRT@D@ATL@@@@@ATL@@QAAXPBDZZ:PROC
EXTRN	?GetRuntimeClass@CGdiObject@@UBEPAUCRuntimeClass@@XZ:PROC ; CGdiObject::GetRuntimeClass
EXTRN	?Attach@CGdiObject@@QAEHPAX@Z:PROC		; CGdiObject::Attach
EXTRN	?DeleteObject@CGdiObject@@QAEHXZ:PROC		; CGdiObject::DeleteObject
EXTRN	??_ECGdiObject@@UAEPAXI@Z:PROC			; CGdiObject::`vector deleting destructor'
EXTRN	?GetRuntimeClass@CPen@@UBEPAUCRuntimeClass@@XZ:PROC ; CPen::GetRuntimeClass
EXTRN	??_ECPen@@UAEPAXI@Z:PROC			; CPen::`vector deleting destructor'
EXTRN	?SelectObject@CDC@@QAEPAVCPen@@PAV2@@Z:PROC	; CDC::SelectObject
EXTRN	?AfxMessageBox@@YGHPBDII@Z:PROC			; AfxMessageBox
EXTRN	?GetPacketDataType@CDrawer@@IBE?AV?$CStringT@DV?$StrTraitMFC_DLL@DV?$ChTraitsCRT@D@ATL@@@@@ATL@@PAVCPacket@@@Z:PROC ; CDrawer::GetPacketDataType
EXTRN	?GetOnePointWidth@CDrawer@@IBENHH@Z:PROC	; CDrawer::GetOnePointWidth
EXTRN	?DrawTextOut@CDrawer@@IAEXPAVCDC@@ABVCPoint@@ABV?$CStringT@DV?$StrTraitMFC_DLL@DV?$ChTraitsCRT@D@ATL@@@@@ATL@@K@Z:PROC ; CDrawer::DrawTextOut
EXTRN	?GetTextPosition@CVertScaleDrawer@@IBE?AVCPoint@@HHABVCSize@@H@Z:PROC ; CVertScaleDrawer::GetTextPosition
EXTRN	?GetVertScaleAbsolutePosition_y@CVertScaleDrawer@@IAE_NABVCRect@@NABVCDisplayDataMinMax@@_NAAH@Z:PROC ; CVertScaleDrawer::GetVertScaleAbsolutePosition_y
EXTRN	?GetFormatTrans@CVertScaleDrawer@@IAE?AV?$CStringT@DV?$StrTraitMFC_DLL@DV?$ChTraitsCRT@D@ATL@@@@@ATL@@ABVCDisplayDataMinMax@@ABV23@H@Z:PROC ; CVertScaleDrawer::GetFormatTrans
EXTRN	?DrawGrid@CVertScaleDrawer@@IAEXPAVCDC@@ABVCDrawingVertScaleData@@W4SCALEGRIDTYPE@CScaleBaseData@@HH@Z:PROC ; CVertScaleDrawer::DrawGrid
EXTRN	?GetBround@CVertScaleDrawer@@IBE_NABVCDisplayDataMinMax@@@Z:PROC ; CVertScaleDrawer::GetBround
EXTRN	?DrawScaleLine@CVertScaleDrawer@@IAEXPAVCDC@@ABVCRect@@H_NHH@Z:PROC ; CVertScaleDrawer::DrawScaleLine
EXTRN	??0CPriceScaleDrawer@@QAE@PAUHWND__@@W4CHART_MODE@CChartInfo@@@Z:PROC ; CPriceScaleDrawer::CPriceScaleDrawer
EXTRN	?DrawTextOrGrid@CPriceScaleDrawer@@IAEXPAVCDC@@ABVCDrawingVertScaleData@@ABVCScaleDrawingRegion@@ABVCVerticalScale@@ABV?$CStringT@DV?$StrTraitMFC_DLL@DV?$ChTraitsCRT@D@ATL@@@@@ATL@@@Z:PROC ; CPriceScaleDrawer::DrawTextOrGrid
EXTRN	?DrawTextOrGrid_Both@CPriceScaleDrawer@@IAEXPAVCDC@@ABVCDrawingVertScaleData@@ABVCVertScaleRegion@@ABVCVerticalScale@@ABV?$CStringT@DV?$StrTraitMFC_DLL@DV?$ChTraitsCRT@D@ATL@@@@@ATL@@@Z:PROC ; CPriceScaleDrawer::DrawTextOrGrid_Both
EXTRN	??1CIndicatorList@@UAE@XZ:PROC			; CIndicatorList::~CIndicatorList
EXTRN	??1CIndicatorInfo@@UAE@XZ:PROC			; CIndicatorInfo::~CIndicatorInfo
EXTRN	?GetCommonCalConditionList@CIndicatorInfo@@QAEPAV?$CList@NN@@XZ:PROC ; CIndicatorInfo::GetCommonCalConditionList
EXTRN	?SetScaleData@CScale@@UAEXPADPAUHWND__@@@Z:PROC	; CScale::SetScaleData
EXTRN	?GetGridType@CScale@@QBE?AW4SCALEGRIDTYPE@CScaleBaseData@@XZ:PROC ; CScale::GetGridType
EXTRN	?SetScaleData@CHorizontalScale@@UAEXPADPAUHWND__@@@Z:PROC ; CHorizontalScale::SetScaleData
EXTRN	?SetScaleData@CVerticalScale@@UAEXPADPAUHWND__@@@Z:PROC ; CVerticalScale::SetScaleData
EXTRN	?GetActiveFlag@CVerticalScale@@QBEHXZ:PROC	; CVerticalScale::GetActiveFlag
EXTRN	?GetLeftScaleTextRegion@CVertScaleRegion@@QBE?AVCRect@@XZ:PROC ; CVertScaleRegion::GetLeftScaleTextRegion
EXTRN	?GetLeftScaleGridRegion@CVertScaleRegion@@QBE?AVCRect@@XZ:PROC ; CVertScaleRegion::GetLeftScaleGridRegion
EXTRN	?GetRightScaleTextRegion@CVertScaleRegion@@QBE?AVCRect@@XZ:PROC ; CVertScaleRegion::GetRightScaleTextRegion
EXTRN	?GetDisplayMin@CDisplayDataMinMax@@QBENXZ:PROC	; CDisplayDataMinMax::GetDisplayMin
EXTRN	?GetDisplayMax@CDisplayDataMinMax@@QBENXZ:PROC	; CDisplayDataMinMax::GetDisplayMax
EXTRN	__imp_?GetScaleTextColor@CScaleColor@@QAEAAKXZ:PROC
EXTRN	?GetVertScaleInvertType@CDrawingVertScaleData@@QBE_NXZ:PROC ; CDrawingVertScaleData::GetVertScaleInvertType
EXTRN	?GetVertScaleLogType@CDrawingVertScaleData@@QBE_NXZ:PROC ; CDrawingVertScaleData::GetVertScaleLogType
EXTRN	?GetScaleColor@CDrawingVertScaleData@@QBE?AVCScaleColor@@XZ:PROC ; CDrawingVertScaleData::GetScaleColor
EXTRN	?GetCompartLineColor@CDrawingVertScaleData@@QBEKXZ:PROC ; CDrawingVertScaleData::GetCompartLineColor
EXTRN	?GetDisplayDataMinMax@CDrawingVertScaleData@@QBE?AVCDisplayDataMinMax@@XZ:PROC ; CDrawingVertScaleData::GetDisplayDataMinMax
EXTRN	?GetIndicatorInfo@CDrawingVertScaleData@@QBEPAVCIndicatorInfo@@XZ:PROC ; CDrawingVertScaleData::GetIndicatorInfo
EXTRN	?GetPacket@CDrawingVertScaleData@@QBEPAVCPacket@@XZ:PROC ; CDrawingVertScaleData::GetPacket
EXTRN	??0CScaleDrawingRegion@@QAE@ABVCRect@@0@Z:PROC	; CScaleDrawingRegion::CScaleDrawingRegion
EXTRN	?GetScaleTextRegion@CScaleDrawingRegion@@QBE?AVCRect@@XZ:PROC ; CScaleDrawingRegion::GetScaleTextRegion
EXTRN	?DoubleToString@CDataConversion@@SA?AV?$CStringT@DV?$StrTraitMFC_DLL@DV?$ChTraitsCRT@D@ATL@@@@@ATL@@ABNH@Z:PROC ; CDataConversion::DoubleToString
EXTRN	?GetStringDataCount@CDataConversion@@SAHABV?$CStringT@DV?$StrTraitMFC_DLL@DV?$ChTraitsCRT@D@ATL@@@@@ATL@@0@Z:PROC ; CDataConversion::GetStringDataCount
EXTRN	?GetDecimalDownCount@CDataConversion@@SAHABV?$CStringT@DV?$StrTraitMFC_DLL@DV?$ChTraitsCRT@D@ATL@@@@@ATL@@_N@Z:PROC ; CDataConversion::GetDecimalDownCount
EXTRN	?Round@CMath@@SAHN@Z:PROC			; CMath::Round
EXTRN	__imp_?GetPacketList@CPacket@@QAEPAVCPacketList@@XZ:PROC
EXTRN	__imp_?GetType@CPacket@@QAE?AV?$CStringT@DV?$StrTraitMFC_DLL@DV?$ChTraitsCRT@D@ATL@@@@@ATL@@_N@Z:PROC
EXTRN	__imp_?GetnumericDataList@CPacket@@QAEPAV?$CList@NN@@XZ:PROC
EXTRN	__imp_?SetScaleType@CPacket@@QAEXABV?$CStringT@DV?$StrTraitMFC_DLL@DV?$ChTraitsCRT@D@ATL@@@@@ATL@@@Z:PROC
EXTRN	??1CPacketList@@UAE@XZ:PROC			; CPacketList::~CPacketList
EXTRN	?GetBaseData@CPacketList@@QAEPAVCPacket@@V?$CStringT@DV?$StrTraitMFC_DLL@DV?$ChTraitsCRT@D@ATL@@@@@ATL@@_N@Z:PROC ; CPacketList::GetBaseData
EXTRN	@__security_check_cookie@4:PROC
EXTRN	___CxxFrameHandler3:PROC
EXTRN	__libm_sse2_pow_precise:PROC
EXTRN	??_7type_info@@6B@:QWORD			; type_info::`vftable'
EXTRN	?g_iMetaTable@@3VIMetaTable@@A:BYTE		; g_iMetaTable
EXTRN	___security_cookie:DWORD
EXTRN	__fltused:DWORD
;	COMDAT __xmm@7fffffffffffffff7fffffffffffffff
CONST	SEGMENT
__xmm@7fffffffffffffff7fffffffffffffff DB 0ffH, 0ffH, 0ffH, 0ffH, 0ffH, 0ffH
	DB	0ffH, 07fH, 0ffH, 0ffH, 0ffH, 0ffH, 0ffH, 0ffH, 0ffH, 07fH
CONST	ENDS
;	COMDAT __real@7fefffffffffffff
CONST	SEGMENT
__real@7fefffffffffffff DQ 07fefffffffffffffr	; 1.79769e+308
CONST	ENDS
;	COMDAT __real@4059000000000000
CONST	SEGMENT
__real@4059000000000000 DQ 04059000000000000r	; 100
CONST	ENDS
;	COMDAT __real@4024000000000000
CONST	SEGMENT
__real@4024000000000000 DQ 04024000000000000r	; 10
CONST	ENDS
;	COMDAT __real@4014000000000000
CONST	SEGMENT
__real@4014000000000000 DQ 04014000000000000r	; 5
CONST	ENDS
;	COMDAT __real@3ff0000000000000
CONST	SEGMENT
__real@3ff0000000000000 DQ 03ff0000000000000r	; 1
CONST	ENDS
;	COMDAT __real@3fe0000000000000
CONST	SEGMENT
__real@3fe0000000000000 DQ 03fe0000000000000r	; 0.5
CONST	ENDS
;	COMDAT __real@3cb0000000000000
CONST	SEGMENT
__real@3cb0000000000000 DQ 03cb0000000000000r	; 2.22045e-16
CONST	ENDS
;	COMDAT __real@0000000000000000
CONST	SEGMENT
__real@0000000000000000 DQ 00000000000000000r	; 0
CONST	ENDS
;	COMDAT ??_R1A@?0A@EA@CPacketList@@8
rdata$r	SEGMENT
??_R1A@?0A@EA@CPacketList@@8 DD FLAT:??_R0?AVCPacketList@@@8 ; CPacketList::`RTTI Base Class Descriptor at (0,-1,0,64)'
	DD	00H
	DD	00H
	DD	0ffffffffH
	DD	00H
	DD	040H
	DD	FLAT:??_R3CPacketList@@8
rdata$r	ENDS
;	COMDAT ??_R2CPacketList@@8
rdata$r	SEGMENT
??_R2CPacketList@@8 DD FLAT:??_R1A@?0A@EA@CPacketList@@8 ; CPacketList::`RTTI Base Class Array'
rdata$r	ENDS
;	COMDAT ??_R3CPacketList@@8
rdata$r	SEGMENT
??_R3CPacketList@@8 DD 00H				; CPacketList::`RTTI Class Hierarchy Descriptor'
	DD	00H
	DD	01H
	DD	FLAT:??_R2CPacketList@@8
rdata$r	ENDS
;	COMDAT ??_R0?AVCPacketList@@@8
data$rs	SEGMENT
??_R0?AVCPacketList@@@8 DD FLAT:??_7type_info@@6B@	; CPacketList `RTTI Type Descriptor'
	DD	00H
	DB	'.?AVCPacketList@@', 00H
data$rs	ENDS
;	COMDAT ??_R4CPacketList@@6B@
rdata$r	SEGMENT
??_R4CPacketList@@6B@ DD 00H				; CPacketList::`RTTI Complete Object Locator'
	DD	00H
	DD	00H
	DD	FLAT:??_R0?AVCPacketList@@@8
	DD	FLAT:??_R3CPacketList@@8
rdata$r	ENDS
;	COMDAT ??_R1A@?0A@EA@CHorizontalScale@@8
rdata$r	SEGMENT
??_R1A@?0A@EA@CHorizontalScale@@8 DD FLAT:??_R0?AVCHorizontalScale@@@8 ; CHorizontalScale::`RTTI Base Class Descriptor at (0,-1,0,64)'
	DD	01H
	DD	00H
	DD	0ffffffffH
	DD	00H
	DD	040H
	DD	FLAT:??_R3CHorizontalScale@@8
rdata$r	ENDS
;	COMDAT ??_R2CHorizontalScale@@8
rdata$r	SEGMENT
??_R2CHorizontalScale@@8 DD FLAT:??_R1A@?0A@EA@CHorizontalScale@@8 ; CHorizontalScale::`RTTI Base Class Array'
	DD	FLAT:??_R1A@?0A@EA@CScale@@8
rdata$r	ENDS
;	COMDAT ??_R3CHorizontalScale@@8
rdata$r	SEGMENT
??_R3CHorizontalScale@@8 DD 00H				; CHorizontalScale::`RTTI Class Hierarchy Descriptor'
	DD	00H
	DD	02H
	DD	FLAT:??_R2CHorizontalScale@@8
rdata$r	ENDS
;	COMDAT ??_R0?AVCHorizontalScale@@@8
data$rs	SEGMENT
??_R0?AVCHorizontalScale@@@8 DD FLAT:??_7type_info@@6B@	; CHorizontalScale `RTTI Type Descriptor'
	DD	00H
	DB	'.?AVCHorizontalScale@@', 00H
data$rs	ENDS
;	COMDAT ??_R4CHorizontalScale@@6B@
rdata$r	SEGMENT
??_R4CHorizontalScale@@6B@ DD 00H			; CHorizontalScale::`RTTI Complete Object Locator'
	DD	00H
	DD	00H
	DD	FLAT:??_R0?AVCHorizontalScale@@@8
	DD	FLAT:??_R3CHorizontalScale@@8
rdata$r	ENDS
;	COMDAT ??_R4CScale@@6B@
rdata$r	SEGMENT
??_R4CScale@@6B@ DD 00H					; CScale::`RTTI Complete Object Locator'
	DD	00H
	DD	00H
	DD	FLAT:??_R0?AVCScale@@@8
	DD	FLAT:??_R3CScale@@8
rdata$r	ENDS
;	COMDAT ??_R1A@?0A@EA@CIndicatorList@@8
rdata$r	SEGMENT
??_R1A@?0A@EA@CIndicatorList@@8 DD FLAT:??_R0?AVCIndicatorList@@@8 ; CIndicatorList::`RTTI Base Class Descriptor at (0,-1,0,64)'
	DD	00H
	DD	00H
	DD	0ffffffffH
	DD	00H
	DD	040H
	DD	FLAT:??_R3CIndicatorList@@8
rdata$r	ENDS
;	COMDAT ??_R2CIndicatorList@@8
rdata$r	SEGMENT
??_R2CIndicatorList@@8 DD FLAT:??_R1A@?0A@EA@CIndicatorList@@8 ; CIndicatorList::`RTTI Base Class Array'
rdata$r	ENDS
;	COMDAT ??_R3CIndicatorList@@8
rdata$r	SEGMENT
??_R3CIndicatorList@@8 DD 00H				; CIndicatorList::`RTTI Class Hierarchy Descriptor'
	DD	00H
	DD	01H
	DD	FLAT:??_R2CIndicatorList@@8
rdata$r	ENDS
;	COMDAT ??_R0?AVCIndicatorList@@@8
data$rs	SEGMENT
??_R0?AVCIndicatorList@@@8 DD FLAT:??_7type_info@@6B@	; CIndicatorList `RTTI Type Descriptor'
	DD	00H
	DB	'.?AVCIndicatorList@@', 00H
data$rs	ENDS
;	COMDAT ??_R4CIndicatorList@@6B@
rdata$r	SEGMENT
??_R4CIndicatorList@@6B@ DD 00H				; CIndicatorList::`RTTI Complete Object Locator'
	DD	00H
	DD	00H
	DD	FLAT:??_R0?AVCIndicatorList@@@8
	DD	FLAT:??_R3CIndicatorList@@8
rdata$r	ENDS
;	COMDAT ??_R1A@?0A@EA@CIndicatorInfo@@8
rdata$r	SEGMENT
??_R1A@?0A@EA@CIndicatorInfo@@8 DD FLAT:??_R0?AVCIndicatorInfo@@@8 ; CIndicatorInfo::`RTTI Base Class Descriptor at (0,-1,0,64)'
	DD	00H
	DD	00H
	DD	0ffffffffH
	DD	00H
	DD	040H
	DD	FLAT:??_R3CIndicatorInfo@@8
rdata$r	ENDS
;	COMDAT ??_R2CIndicatorInfo@@8
rdata$r	SEGMENT
??_R2CIndicatorInfo@@8 DD FLAT:??_R1A@?0A@EA@CIndicatorInfo@@8 ; CIndicatorInfo::`RTTI Base Class Array'
rdata$r	ENDS
;	COMDAT ??_R3CIndicatorInfo@@8
rdata$r	SEGMENT
??_R3CIndicatorInfo@@8 DD 00H				; CIndicatorInfo::`RTTI Class Hierarchy Descriptor'
	DD	00H
	DD	01H
	DD	FLAT:??_R2CIndicatorInfo@@8
rdata$r	ENDS
;	COMDAT ??_R0?AVCIndicatorInfo@@@8
data$rs	SEGMENT
??_R0?AVCIndicatorInfo@@@8 DD FLAT:??_7type_info@@6B@	; CIndicatorInfo `RTTI Type Descriptor'
	DD	00H
	DB	'.?AVCIndicatorInfo@@', 00H
data$rs	ENDS
;	COMDAT ??_R4CIndicatorInfo@@6B@
rdata$r	SEGMENT
??_R4CIndicatorInfo@@6B@ DD 00H				; CIndicatorInfo::`RTTI Complete Object Locator'
	DD	00H
	DD	00H
	DD	FLAT:??_R0?AVCIndicatorInfo@@@8
	DD	FLAT:??_R3CIndicatorInfo@@8
rdata$r	ENDS
;	COMDAT ??_R1A@?0A@EA@CMarketProfileVertScaleDrawer@@8
rdata$r	SEGMENT
??_R1A@?0A@EA@CMarketProfileVertScaleDrawer@@8 DD FLAT:??_R0?AVCMarketProfileVertScaleDrawer@@@8 ; CMarketProfileVertScaleDrawer::`RTTI Base Class Descriptor at (0,-1,0,64)'
	DD	03H
	DD	00H
	DD	0ffffffffH
	DD	00H
	DD	040H
	DD	FLAT:??_R3CMarketProfileVertScaleDrawer@@8
rdata$r	ENDS
;	COMDAT ??_R2CMarketProfileVertScaleDrawer@@8
rdata$r	SEGMENT
??_R2CMarketProfileVertScaleDrawer@@8 DD FLAT:??_R1A@?0A@EA@CMarketProfileVertScaleDrawer@@8 ; CMarketProfileVertScaleDrawer::`RTTI Base Class Array'
	DD	FLAT:??_R1A@?0A@EA@CPriceScaleDrawer@@8
	DD	FLAT:??_R1A@?0A@EA@CVertScaleDrawer@@8
	DD	FLAT:??_R13?0A@EA@CDrawer@@8
rdata$r	ENDS
;	COMDAT ??_R3CMarketProfileVertScaleDrawer@@8
rdata$r	SEGMENT
??_R3CMarketProfileVertScaleDrawer@@8 DD 00H		; CMarketProfileVertScaleDrawer::`RTTI Class Hierarchy Descriptor'
	DD	00H
	DD	04H
	DD	FLAT:??_R2CMarketProfileVertScaleDrawer@@8
rdata$r	ENDS
;	COMDAT ??_R0?AVCMarketProfileVertScaleDrawer@@@8
data$rs	SEGMENT
??_R0?AVCMarketProfileVertScaleDrawer@@@8 DD FLAT:??_7type_info@@6B@ ; CMarketProfileVertScaleDrawer `RTTI Type Descriptor'
	DD	00H
	DB	'.?AVCMarketProfileVertScaleDrawer@@', 00H
data$rs	ENDS
;	COMDAT ??_R4CMarketProfileVertScaleDrawer@@6B@
rdata$r	SEGMENT
??_R4CMarketProfileVertScaleDrawer@@6B@ DD 00H		; CMarketProfileVertScaleDrawer::`RTTI Complete Object Locator'
	DD	00H
	DD	00H
	DD	FLAT:??_R0?AVCMarketProfileVertScaleDrawer@@@8
	DD	FLAT:??_R3CMarketProfileVertScaleDrawer@@8
rdata$r	ENDS
;	COMDAT ??_R1A@?0A@EA@CDrawer@@8
rdata$r	SEGMENT
??_R1A@?0A@EA@CDrawer@@8 DD FLAT:??_R0?AVCDrawer@@@8	; CDrawer::`RTTI Base Class Descriptor at (0,-1,0,64)'
	DD	00H
	DD	00H
	DD	0ffffffffH
	DD	00H
	DD	040H
	DD	FLAT:??_R3CDrawer@@8
rdata$r	ENDS
;	COMDAT ??_R2CDrawer@@8
rdata$r	SEGMENT
??_R2CDrawer@@8 DD FLAT:??_R1A@?0A@EA@CDrawer@@8	; CDrawer::`RTTI Base Class Array'
rdata$r	ENDS
;	COMDAT ??_R3CDrawer@@8
rdata$r	SEGMENT
??_R3CDrawer@@8 DD 00H					; CDrawer::`RTTI Class Hierarchy Descriptor'
	DD	00H
	DD	01H
	DD	FLAT:??_R2CDrawer@@8
rdata$r	ENDS
;	COMDAT ??_R0?AVCDrawer@@@8
data$rs	SEGMENT
??_R0?AVCDrawer@@@8 DD FLAT:??_7type_info@@6B@		; CDrawer `RTTI Type Descriptor'
	DD	00H
	DB	'.?AVCDrawer@@', 00H
data$rs	ENDS
;	COMDAT ??_R13?0A@EA@CDrawer@@8
rdata$r	SEGMENT
??_R13?0A@EA@CDrawer@@8 DD FLAT:??_R0?AVCDrawer@@@8	; CDrawer::`RTTI Base Class Descriptor at (4,-1,0,64)'
	DD	00H
	DD	04H
	DD	0ffffffffH
	DD	00H
	DD	040H
	DD	FLAT:??_R3CDrawer@@8
rdata$r	ENDS
;	COMDAT ??_R2CVertScaleDrawer@@8
rdata$r	SEGMENT
??_R2CVertScaleDrawer@@8 DD FLAT:??_R1A@?0A@EA@CVertScaleDrawer@@8 ; CVertScaleDrawer::`RTTI Base Class Array'
	DD	FLAT:??_R13?0A@EA@CDrawer@@8
rdata$r	ENDS
;	COMDAT ??_R3CVertScaleDrawer@@8
rdata$r	SEGMENT
??_R3CVertScaleDrawer@@8 DD 00H				; CVertScaleDrawer::`RTTI Class Hierarchy Descriptor'
	DD	00H
	DD	02H
	DD	FLAT:??_R2CVertScaleDrawer@@8
rdata$r	ENDS
;	COMDAT ??_R0?AVCVertScaleDrawer@@@8
data$rs	SEGMENT
??_R0?AVCVertScaleDrawer@@@8 DD FLAT:??_7type_info@@6B@	; CVertScaleDrawer `RTTI Type Descriptor'
	DD	00H
	DB	'.?AVCVertScaleDrawer@@', 00H
data$rs	ENDS
;	COMDAT ??_R1A@?0A@EA@CVertScaleDrawer@@8
rdata$r	SEGMENT
??_R1A@?0A@EA@CVertScaleDrawer@@8 DD FLAT:??_R0?AVCVertScaleDrawer@@@8 ; CVertScaleDrawer::`RTTI Base Class Descriptor at (0,-1,0,64)'
	DD	01H
	DD	00H
	DD	0ffffffffH
	DD	00H
	DD	040H
	DD	FLAT:??_R3CVertScaleDrawer@@8
rdata$r	ENDS
;	COMDAT ??_R2CPriceScaleDrawer@@8
rdata$r	SEGMENT
??_R2CPriceScaleDrawer@@8 DD FLAT:??_R1A@?0A@EA@CPriceScaleDrawer@@8 ; CPriceScaleDrawer::`RTTI Base Class Array'
	DD	FLAT:??_R1A@?0A@EA@CVertScaleDrawer@@8
	DD	FLAT:??_R13?0A@EA@CDrawer@@8
rdata$r	ENDS
;	COMDAT ??_R3CPriceScaleDrawer@@8
rdata$r	SEGMENT
??_R3CPriceScaleDrawer@@8 DD 00H			; CPriceScaleDrawer::`RTTI Class Hierarchy Descriptor'
	DD	00H
	DD	03H
	DD	FLAT:??_R2CPriceScaleDrawer@@8
rdata$r	ENDS
;	COMDAT ??_R0?AVCPriceScaleDrawer@@@8
data$rs	SEGMENT
??_R0?AVCPriceScaleDrawer@@@8 DD FLAT:??_7type_info@@6B@ ; CPriceScaleDrawer `RTTI Type Descriptor'
	DD	00H
	DB	'.?AVCPriceScaleDrawer@@', 00H
data$rs	ENDS
;	COMDAT ??_R1A@?0A@EA@CPriceScaleDrawer@@8
rdata$r	SEGMENT
??_R1A@?0A@EA@CPriceScaleDrawer@@8 DD FLAT:??_R0?AVCPriceScaleDrawer@@@8 ; CPriceScaleDrawer::`RTTI Base Class Descriptor at (0,-1,0,64)'
	DD	02H
	DD	00H
	DD	0ffffffffH
	DD	00H
	DD	040H
	DD	FLAT:??_R3CPriceScaleDrawer@@8
rdata$r	ENDS
;	COMDAT ??_R1A@?0A@EA@CSaleScaleDrawer@@8
rdata$r	SEGMENT
??_R1A@?0A@EA@CSaleScaleDrawer@@8 DD FLAT:??_R0?AVCSaleScaleDrawer@@@8 ; CSaleScaleDrawer::`RTTI Base Class Descriptor at (0,-1,0,64)'
	DD	03H
	DD	00H
	DD	0ffffffffH
	DD	00H
	DD	040H
	DD	FLAT:??_R3CSaleScaleDrawer@@8
rdata$r	ENDS
;	COMDAT ??_R2CSaleScaleDrawer@@8
rdata$r	SEGMENT
??_R2CSaleScaleDrawer@@8 DD FLAT:??_R1A@?0A@EA@CSaleScaleDrawer@@8 ; CSaleScaleDrawer::`RTTI Base Class Array'
	DD	FLAT:??_R1A@?0A@EA@CPriceScaleDrawer@@8
	DD	FLAT:??_R1A@?0A@EA@CVertScaleDrawer@@8
	DD	FLAT:??_R13?0A@EA@CDrawer@@8
rdata$r	ENDS
;	COMDAT ??_R3CSaleScaleDrawer@@8
rdata$r	SEGMENT
??_R3CSaleScaleDrawer@@8 DD 00H				; CSaleScaleDrawer::`RTTI Class Hierarchy Descriptor'
	DD	00H
	DD	04H
	DD	FLAT:??_R2CSaleScaleDrawer@@8
rdata$r	ENDS
;	COMDAT ??_R0?AVCSaleScaleDrawer@@@8
data$rs	SEGMENT
??_R0?AVCSaleScaleDrawer@@@8 DD FLAT:??_7type_info@@6B@	; CSaleScaleDrawer `RTTI Type Descriptor'
	DD	00H
	DB	'.?AVCSaleScaleDrawer@@', 00H
data$rs	ENDS
;	COMDAT ??_R4CSaleScaleDrawer@@6B@
rdata$r	SEGMENT
??_R4CSaleScaleDrawer@@6B@ DD 00H			; CSaleScaleDrawer::`RTTI Complete Object Locator'
	DD	00H
	DD	00H
	DD	FLAT:??_R0?AVCSaleScaleDrawer@@@8
	DD	FLAT:??_R3CSaleScaleDrawer@@8
rdata$r	ENDS
;	COMDAT ??_R2CScale@@8
rdata$r	SEGMENT
??_R2CScale@@8 DD FLAT:??_R1A@?0A@EA@CScale@@8		; CScale::`RTTI Base Class Array'
rdata$r	ENDS
;	COMDAT ??_R3CScale@@8
rdata$r	SEGMENT
??_R3CScale@@8 DD 00H					; CScale::`RTTI Class Hierarchy Descriptor'
	DD	00H
	DD	01H
	DD	FLAT:??_R2CScale@@8
rdata$r	ENDS
;	COMDAT ??_R0?AVCScale@@@8
data$rs	SEGMENT
??_R0?AVCScale@@@8 DD FLAT:??_7type_info@@6B@		; CScale `RTTI Type Descriptor'
	DD	00H
	DB	'.?AVCScale@@', 00H
data$rs	ENDS
;	COMDAT ??_R1A@?0A@EA@CScale@@8
rdata$r	SEGMENT
??_R1A@?0A@EA@CScale@@8 DD FLAT:??_R0?AVCScale@@@8	; CScale::`RTTI Base Class Descriptor at (0,-1,0,64)'
	DD	00H
	DD	00H
	DD	0ffffffffH
	DD	00H
	DD	040H
	DD	FLAT:??_R3CScale@@8
rdata$r	ENDS
;	COMDAT ??_R1A@?0A@EA@CVerticalScale@@8
rdata$r	SEGMENT
??_R1A@?0A@EA@CVerticalScale@@8 DD FLAT:??_R0?AVCVerticalScale@@@8 ; CVerticalScale::`RTTI Base Class Descriptor at (0,-1,0,64)'
	DD	01H
	DD	00H
	DD	0ffffffffH
	DD	00H
	DD	040H
	DD	FLAT:??_R3CVerticalScale@@8
rdata$r	ENDS
;	COMDAT ??_R2CVerticalScale@@8
rdata$r	SEGMENT
??_R2CVerticalScale@@8 DD FLAT:??_R1A@?0A@EA@CVerticalScale@@8 ; CVerticalScale::`RTTI Base Class Array'
	DD	FLAT:??_R1A@?0A@EA@CScale@@8
rdata$r	ENDS
;	COMDAT ??_R3CVerticalScale@@8
rdata$r	SEGMENT
??_R3CVerticalScale@@8 DD 00H				; CVerticalScale::`RTTI Class Hierarchy Descriptor'
	DD	00H
	DD	02H
	DD	FLAT:??_R2CVerticalScale@@8
rdata$r	ENDS
;	COMDAT ??_R0?AVCVerticalScale@@@8
data$rs	SEGMENT
??_R0?AVCVerticalScale@@@8 DD FLAT:??_7type_info@@6B@	; CVerticalScale `RTTI Type Descriptor'
	DD	00H
	DB	'.?AVCVerticalScale@@', 00H
data$rs	ENDS
;	COMDAT ??_R4CVerticalScale@@6B@
rdata$r	SEGMENT
??_R4CVerticalScale@@6B@ DD 00H				; CVerticalScale::`RTTI Complete Object Locator'
	DD	00H
	DD	00H
	DD	FLAT:??_R0?AVCVerticalScale@@@8
	DD	FLAT:??_R3CVerticalScale@@8
rdata$r	ENDS
;	COMDAT ??_C@_05KKLGFDFJ@x0?401@
CONST	SEGMENT
??_C@_05KKLGFDFJ@x0?401@ DB 'x0.01', 00H		; `string'
CONST	ENDS
;	COMDAT ??_C@_02NJPGOMH@?$CFf@
CONST	SEGMENT
??_C@_02NJPGOMH@?$CFf@ DB '%f', 00H			; `string'
CONST	ENDS
;	COMDAT ??_C@_01GBGANLPD@0@
CONST	SEGMENT
??_C@_01GBGANLPD@0@ DB '0', 00H				; `string'
CONST	ENDS
;	COMDAT ??_C@_01LFCBOECM@?4@
CONST	SEGMENT
??_C@_01LFCBOECM@?4@ DB '.', 00H			; `string'
CONST	ENDS
;	COMDAT ??_C@_02CPNCMKFB@0?4@
CONST	SEGMENT
??_C@_02CPNCMKFB@0?4@ DB '0.', 00H			; `string'
CONST	ENDS
;	COMDAT ??_C@_03MDAFIFFL@0?40@
CONST	SEGMENT
??_C@_03MDAFIFFL@0?40@ DB '0.0', 00H			; `string'
CONST	ENDS
;	COMDAT ??_C@_05GMCIGKAN@x?50?41@
CONST	SEGMENT
??_C@_05GMCIGKAN@x?50?41@ DB 'x 0.1', 00H		; `string'
CONST	ENDS
;	COMDAT ??_C@_03IOCAOJMC@x?51@
CONST	SEGMENT
??_C@_03IOCAOJMC@x?51@ DB 'x 1', 00H			; `string'
CONST	ENDS
;	COMDAT ??_C@_01FGNFDNOH@?$CF@
CONST	SEGMENT
??_C@_01FGNFDNOH@?$CF@ DB '%', 00H			; `string'
CONST	ENDS
;	COMDAT ??_7CPacketList@@6B@
CONST	SEGMENT
??_7CPacketList@@6B@ DD FLAT:??_R4CPacketList@@6B@	; CPacketList::`vftable'
	DD	FLAT:??_ECPacketList@@UAEPAXI@Z
CONST	ENDS
;	COMDAT ??_7CVerticalScale@@6B@
CONST	SEGMENT
??_7CVerticalScale@@6B@ DD FLAT:??_R4CVerticalScale@@6B@ ; CVerticalScale::`vftable'
	DD	FLAT:?SetScaleData@CVerticalScale@@UAEXPADPAUHWND__@@@Z
CONST	ENDS
;	COMDAT ??_7CHorizontalScale@@6B@
CONST	SEGMENT
??_7CHorizontalScale@@6B@ DD FLAT:??_R4CHorizontalScale@@6B@ ; CHorizontalScale::`vftable'
	DD	FLAT:?SetScaleData@CHorizontalScale@@UAEXPADPAUHWND__@@@Z
CONST	ENDS
;	COMDAT ??_7CScale@@6B@
CONST	SEGMENT
??_7CScale@@6B@ DD FLAT:??_R4CScale@@6B@		; CScale::`vftable'
	DD	FLAT:?SetScaleData@CScale@@UAEXPADPAUHWND__@@@Z
CONST	ENDS
;	COMDAT ??_7CIndicatorInfo@@6B@
CONST	SEGMENT
??_7CIndicatorInfo@@6B@ DD FLAT:??_R4CIndicatorInfo@@6B@ ; CIndicatorInfo::`vftable'
	DD	FLAT:??_ECIndicatorInfo@@UAEPAXI@Z
CONST	ENDS
;	COMDAT ??_7CIndicatorList@@6B@
CONST	SEGMENT
??_7CIndicatorList@@6B@ DD FLAT:??_R4CIndicatorList@@6B@ ; CIndicatorList::`vftable'
	DD	FLAT:??_ECIndicatorList@@UAEPAXI@Z
CONST	ENDS
;	COMDAT ??_7CMarketProfileVertScaleDrawer@@6B@
CONST	SEGMENT
??_7CMarketProfileVertScaleDrawer@@6B@ DD FLAT:??_R4CMarketProfileVertScaleDrawer@@6B@ ; CMarketProfileVertScaleDrawer::`vftable'
	DD	FLAT:?DrawTextOrGrid@CMarketProfileVertScaleDrawer@@UAEXPAVCDC@@ABVCDrawingVertScaleData@@ABVCScaleDrawingRegion@@ABVCVerticalScale@@@Z
	DD	FLAT:?DrawTextOrGrid_Both@CMarketProfileVertScaleDrawer@@UAEXPAVCDC@@ABVCDrawingVertScaleData@@ABVCVertScaleRegion@@ABVCVerticalScale@@@Z
CONST	ENDS
;	COMDAT ??_7CSaleScaleDrawer@@6B@
CONST	SEGMENT
??_7CSaleScaleDrawer@@6B@ DD FLAT:??_R4CSaleScaleDrawer@@6B@ ; CSaleScaleDrawer::`vftable'
	DD	FLAT:?DrawTextOrGrid@CSaleScaleDrawer@@UAEXPAVCDC@@ABVCDrawingVertScaleData@@ABVCScaleDrawingRegion@@ABVCVerticalScale@@@Z
	DD	FLAT:?DrawTextOrGrid_Both@CSaleScaleDrawer@@UAEXPAVCDC@@ABVCDrawingVertScaleData@@ABVCVertScaleRegion@@ABVCVerticalScale@@@Z
CONST	ENDS
;	COMDAT ??_R1A@?0A@EA@CPen@@8
rdata$r	SEGMENT
??_R1A@?0A@EA@CPen@@8 DD FLAT:??_R0?AVCPen@@@8		; CPen::`RTTI Base Class Descriptor at (0,-1,0,64)'
	DD	02H
	DD	00H
	DD	0ffffffffH
	DD	00H
	DD	040H
	DD	FLAT:??_R3CPen@@8
rdata$r	ENDS
;	COMDAT ??_R2CPen@@8
rdata$r	SEGMENT
??_R2CPen@@8 DD	FLAT:??_R1A@?0A@EA@CPen@@8		; CPen::`RTTI Base Class Array'
	DD	FLAT:??_R1A@?0A@EA@CGdiObject@@8
	DD	FLAT:??_R1A@?0A@EA@CObject@@8
rdata$r	ENDS
;	COMDAT ??_R3CPen@@8
rdata$r	SEGMENT
??_R3CPen@@8 DD	00H					; CPen::`RTTI Class Hierarchy Descriptor'
	DD	00H
	DD	03H
	DD	FLAT:??_R2CPen@@8
rdata$r	ENDS
;	COMDAT ??_R0?AVCPen@@@8
data$rs	SEGMENT
??_R0?AVCPen@@@8 DD FLAT:??_7type_info@@6B@		; CPen `RTTI Type Descriptor'
	DD	00H
	DB	'.?AVCPen@@', 00H
data$rs	ENDS
;	COMDAT ??_R4CPen@@6B@
rdata$r	SEGMENT
??_R4CPen@@6B@ DD 00H					; CPen::`RTTI Complete Object Locator'
	DD	00H
	DD	00H
	DD	FLAT:??_R0?AVCPen@@@8
	DD	FLAT:??_R3CPen@@8
rdata$r	ENDS
;	COMDAT ??_R1A@?0A@EA@CGdiObject@@8
rdata$r	SEGMENT
??_R1A@?0A@EA@CGdiObject@@8 DD FLAT:??_R0?AVCGdiObject@@@8 ; CGdiObject::`RTTI Base Class Descriptor at (0,-1,0,64)'
	DD	01H
	DD	00H
	DD	0ffffffffH
	DD	00H
	DD	040H
	DD	FLAT:??_R3CGdiObject@@8
rdata$r	ENDS
;	COMDAT ??_R2CGdiObject@@8
rdata$r	SEGMENT
??_R2CGdiObject@@8 DD FLAT:??_R1A@?0A@EA@CGdiObject@@8	; CGdiObject::`RTTI Base Class Array'
	DD	FLAT:??_R1A@?0A@EA@CObject@@8
rdata$r	ENDS
;	COMDAT ??_R3CGdiObject@@8
rdata$r	SEGMENT
??_R3CGdiObject@@8 DD 00H				; CGdiObject::`RTTI Class Hierarchy Descriptor'
	DD	00H
	DD	02H
	DD	FLAT:??_R2CGdiObject@@8
rdata$r	ENDS
;	COMDAT ??_R0?AVCGdiObject@@@8
data$rs	SEGMENT
??_R0?AVCGdiObject@@@8 DD FLAT:??_7type_info@@6B@	; CGdiObject `RTTI Type Descriptor'
	DD	00H
	DB	'.?AVCGdiObject@@', 00H
data$rs	ENDS
;	COMDAT ??_R4CGdiObject@@6B@
rdata$r	SEGMENT
??_R4CGdiObject@@6B@ DD 00H				; CGdiObject::`RTTI Complete Object Locator'
	DD	00H
	DD	00H
	DD	FLAT:??_R0?AVCGdiObject@@@8
	DD	FLAT:??_R3CGdiObject@@8
rdata$r	ENDS
;	COMDAT ??_R1A@?0A@EA@CObject@@8
rdata$r	SEGMENT
??_R1A@?0A@EA@CObject@@8 DD FLAT:??_R0?AVCObject@@@8	; CObject::`RTTI Base Class Descriptor at (0,-1,0,64)'
	DD	00H
	DD	00H
	DD	0ffffffffH
	DD	00H
	DD	040H
	DD	FLAT:??_R3CObject@@8
rdata$r	ENDS
;	COMDAT ??_R2CObject@@8
rdata$r	SEGMENT
??_R2CObject@@8 DD FLAT:??_R1A@?0A@EA@CObject@@8	; CObject::`RTTI Base Class Array'
rdata$r	ENDS
;	COMDAT ??_R3CObject@@8
rdata$r	SEGMENT
??_R3CObject@@8 DD 00H					; CObject::`RTTI Class Hierarchy Descriptor'
	DD	00H
	DD	01H
	DD	FLAT:??_R2CObject@@8
rdata$r	ENDS
;	COMDAT ??_R0?AVCObject@@@8
data$rs	SEGMENT
??_R0?AVCObject@@@8 DD FLAT:??_7type_info@@6B@		; CObject `RTTI Type Descriptor'
	DD	00H
	DB	'.?AVCObject@@', 00H
data$rs	ENDS
;	COMDAT ??_C@_0N@OMEMOKLE@?$CFTs?5?$CI?$CFTs?3?$CFd?$CJ@
CONST	SEGMENT
??_C@_0N@OMEMOKLE@?$CFTs?5?$CI?$CFTs?3?$CFd?$CJ@ DB '%Ts (%Ts:%d)', 00H ; `string'
CONST	ENDS
;	COMDAT ??_C@_0BB@HBOOMJBF@?$CFTs?5?$CI?$CFTs?3?$CFd?$CJ?6?$CFTs@
CONST	SEGMENT
??_C@_0BB@HBOOMJBF@?$CFTs?5?$CI?$CFTs?3?$CFd?$CJ?6?$CFTs@ DB '%Ts (%Ts:%d'
	DB	')', 0aH, '%Ts', 00H				; `string'
CONST	ENDS
;	COMDAT ??_C@_0BP@OIEOKIDM@Exception?5thrown?5in?5destructor@
CONST	SEGMENT
??_C@_0BP@OIEOKIDM@Exception?5thrown?5in?5destructor@ DB 'Exception throw'
	DB	'n in destructor', 00H			; `string'
CONST	ENDS
;	COMDAT ??_C@_0HD@JJCHHHNK@C?3?2Program?5Files?5?$CIx86?$CJ?2Microsof@
CONST	SEGMENT
??_C@_0HD@JJCHHHNK@C?3?2Program?5Files?5?$CIx86?$CJ?2Microsof@ DB 'C:\Pro'
	DB	'gram Files (x86)\Microsoft Visual Studio\2019\Community\VC\To'
	DB	'ols\MSVC\14.29.30133\atlmfc\include\afxwin1.inl', 00H ; `string'
CONST	ENDS
;	COMDAT ??_7CPen@@6B@
CONST	SEGMENT
??_7CPen@@6B@ DD FLAT:??_R4CPen@@6B@			; CPen::`vftable'
	DD	FLAT:?GetRuntimeClass@CPen@@UBEPAUCRuntimeClass@@XZ
	DD	FLAT:??_ECPen@@UAEPAXI@Z
	DD	FLAT:?Serialize@CObject@@UAEXAAVCArchive@@@Z
	DD	FLAT:?AssertValid@CObject@@UBEXXZ
	DD	FLAT:?Dump@CObject@@UBEXAAVCDumpContext@@@Z
CONST	ENDS
;	COMDAT ??_7CGdiObject@@6B@
CONST	SEGMENT
??_7CGdiObject@@6B@ DD FLAT:??_R4CGdiObject@@6B@	; CGdiObject::`vftable'
	DD	FLAT:?GetRuntimeClass@CGdiObject@@UBEPAUCRuntimeClass@@XZ
	DD	FLAT:??_ECGdiObject@@UAEPAXI@Z
	DD	FLAT:?Serialize@CObject@@UAEXAAVCArchive@@@Z
	DD	FLAT:?AssertValid@CObject@@UBEXXZ
	DD	FLAT:?Dump@CObject@@UBEXAAVCDumpContext@@@Z
CONST	ENDS
;	COMDAT ??_R0PAVCException@@@8
data$r	SEGMENT
??_R0PAVCException@@@8 DD FLAT:??_7type_info@@6B@	; CException * `RTTI Type Descriptor'
	DD	00H
	DB	'.PAVCException@@', 00H
data$r	ENDS
;	COMDAT xdata$x
xdata$x	SEGMENT
__ehfuncinfo$??_ECPacketList@@UAEPAXI@Z DD 019930522H
	DD	00H
	DD	00H
	DD	2 DUP(00H)
	DD	2 DUP(00H)
	DD	00H
	DD	05H
xdata$x	ENDS
;	COMDAT xdata$x
xdata$x	SEGMENT
__unwindtable$??0CHorizontalScale@@QAE@ABV0@@Z DD 0ffffffffH
	DD	FLAT:__unwindfunclet$??0CHorizontalScale@@QAE@ABV0@@Z$0
	DD	00H
	DD	FLAT:__unwindfunclet$??0CHorizontalScale@@QAE@ABV0@@Z$3
__ehfuncinfo$??0CHorizontalScale@@QAE@ABV0@@Z DD 019930522H
	DD	02H
	DD	FLAT:__unwindtable$??0CHorizontalScale@@QAE@ABV0@@Z
	DD	2 DUP(00H)
	DD	2 DUP(00H)
	DD	00H
	DD	01H
xdata$x	ENDS
;	COMDAT xdata$x
xdata$x	SEGMENT
__unwindtable$??0CScaleCompart@@QAE@ABV0@@Z DD 0ffffffffH
	DD	FLAT:__unwindfunclet$??0CScaleCompart@@QAE@ABV0@@Z$0
__ehfuncinfo$??0CScaleCompart@@QAE@ABV0@@Z DD 019930522H
	DD	01H
	DD	FLAT:__unwindtable$??0CScaleCompart@@QAE@ABV0@@Z
	DD	2 DUP(00H)
	DD	2 DUP(00H)
	DD	00H
	DD	01H
xdata$x	ENDS
;	COMDAT xdata$x
xdata$x	SEGMENT
__ehfuncinfo$??_ECIndicatorInfo@@UAEPAXI@Z DD 019930522H
	DD	00H
	DD	00H
	DD	2 DUP(00H)
	DD	2 DUP(00H)
	DD	00H
	DD	05H
xdata$x	ENDS
;	COMDAT xdata$x
xdata$x	SEGMENT
__ehfuncinfo$??_ECIndicatorList@@UAEPAXI@Z DD 019930522H
	DD	00H
	DD	00H
	DD	2 DUP(00H)
	DD	2 DUP(00H)
	DD	00H
	DD	05H
xdata$x	ENDS
;	COMDAT xdata$x
xdata$x	SEGMENT
__unwindtable$?DrawTextOrGrid_Both@CMarketProfileVertScaleDrawer@@UAEXPAVCDC@@ABVCDrawingVertScaleData@@ABVCVertScaleRegion@@ABVCVerticalScale@@@Z DD 0ffffffffH
	DD	FLAT:__unwindfunclet$?DrawTextOrGrid_Both@CMarketProfileVertScaleDrawer@@UAEXPAVCDC@@ABVCDrawingVertScaleData@@ABVCVertScaleRegion@@ABVCVerticalScale@@@Z$0
__ehfuncinfo$?DrawTextOrGrid_Both@CMarketProfileVertScaleDrawer@@UAEXPAVCDC@@ABVCDrawingVertScaleData@@ABVCVertScaleRegion@@ABVCVerticalScale@@@Z DD 019930522H
	DD	01H
	DD	FLAT:__unwindtable$?DrawTextOrGrid_Both@CMarketProfileVertScaleDrawer@@UAEXPAVCDC@@ABVCDrawingVertScaleData@@ABVCVertScaleRegion@@ABVCVerticalScale@@@Z
	DD	2 DUP(00H)
	DD	2 DUP(00H)
	DD	00H
	DD	01H
xdata$x	ENDS
;	COMDAT xdata$x
xdata$x	SEGMENT
__unwindtable$?DrawTextOrGrid@CMarketProfileVertScaleDrawer@@UAEXPAVCDC@@ABVCDrawingVertScaleData@@ABVCScaleDrawingRegion@@ABVCVerticalScale@@@Z DD 0ffffffffH
	DD	FLAT:__unwindfunclet$?DrawTextOrGrid@CMarketProfileVertScaleDrawer@@UAEXPAVCDC@@ABVCDrawingVertScaleData@@ABVCScaleDrawingRegion@@ABVCVerticalScale@@@Z$0
__ehfuncinfo$?DrawTextOrGrid@CMarketProfileVertScaleDrawer@@UAEXPAVCDC@@ABVCDrawingVertScaleData@@ABVCScaleDrawingRegion@@ABVCVerticalScale@@@Z DD 019930522H
	DD	01H
	DD	FLAT:__unwindtable$?DrawTextOrGrid@CMarketProfileVertScaleDrawer@@UAEXPAVCDC@@ABVCDrawingVertScaleData@@ABVCScaleDrawingRegion@@ABVCVerticalScale@@@Z
	DD	2 DUP(00H)
	DD	2 DUP(00H)
	DD	00H
	DD	01H
xdata$x	ENDS
;	COMDAT xdata$x
xdata$x	SEGMENT
__ehfuncinfo$?DrawTextOrGrid_Price@CSaleScaleDrawer@@AAEXPAVCDC@@ABVCDrawingVertScaleData@@ABVCScaleDrawingRegion@@ABVCVerticalScale@@@Z DD 019930522H
	DD	09H
	DD	FLAT:__unwindtable$?DrawTextOrGrid_Price@CSaleScaleDrawer@@AAEXPAVCDC@@ABVCDrawingVertScaleData@@ABVCScaleDrawingRegion@@ABVCVerticalScale@@@Z
	DD	2 DUP(00H)
	DD	2 DUP(00H)
	DD	00H
	DD	01H
__unwindtable$?DrawTextOrGrid_Price@CSaleScaleDrawer@@AAEXPAVCDC@@ABVCDrawingVertScaleData@@ABVCScaleDrawingRegion@@ABVCVerticalScale@@@Z DD 0ffffffffH
	DD	FLAT:__unwindfunclet$?DrawTextOrGrid_Price@CSaleScaleDrawer@@AAEXPAVCDC@@ABVCDrawingVertScaleData@@ABVCScaleDrawingRegion@@ABVCVerticalScale@@@Z$1
	DD	00H
	DD	FLAT:__unwindfunclet$?DrawTextOrGrid_Price@CSaleScaleDrawer@@AAEXPAVCDC@@ABVCDrawingVertScaleData@@ABVCScaleDrawingRegion@@ABVCVerticalScale@@@Z$3
	DD	01H
	DD	FLAT:__unwindfunclet$?DrawTextOrGrid_Price@CSaleScaleDrawer@@AAEXPAVCDC@@ABVCDrawingVertScaleData@@ABVCScaleDrawingRegion@@ABVCVerticalScale@@@Z$4
	DD	01H
	DD	FLAT:__unwindfunclet$?DrawTextOrGrid_Price@CSaleScaleDrawer@@AAEXPAVCDC@@ABVCDrawingVertScaleData@@ABVCScaleDrawingRegion@@ABVCVerticalScale@@@Z$5
	DD	01H
	DD	FLAT:__unwindfunclet$?DrawTextOrGrid_Price@CSaleScaleDrawer@@AAEXPAVCDC@@ABVCDrawingVertScaleData@@ABVCScaleDrawingRegion@@ABVCVerticalScale@@@Z$6
	DD	04H
	DD	FLAT:__unwindfunclet$?DrawTextOrGrid_Price@CSaleScaleDrawer@@AAEXPAVCDC@@ABVCDrawingVertScaleData@@ABVCScaleDrawingRegion@@ABVCVerticalScale@@@Z$7
	DD	05H
	DD	FLAT:__unwindfunclet$?DrawTextOrGrid_Price@CSaleScaleDrawer@@AAEXPAVCDC@@ABVCDrawingVertScaleData@@ABVCScaleDrawingRegion@@ABVCVerticalScale@@@Z$8
	DD	06H
	DD	FLAT:__unwindfunclet$?DrawTextOrGrid_Price@CSaleScaleDrawer@@AAEXPAVCDC@@ABVCDrawingVertScaleData@@ABVCScaleDrawingRegion@@ABVCVerticalScale@@@Z$9
	DD	06H
	DD	FLAT:__unwindfunclet$?DrawTextOrGrid_Price@CSaleScaleDrawer@@AAEXPAVCDC@@ABVCDrawingVertScaleData@@ABVCScaleDrawingRegion@@ABVCVerticalScale@@@Z$10
xdata$x	ENDS
;	COMDAT xdata$x
xdata$x	SEGMENT
__unwindtable$?DrawTextOrGrid_Volumn@CSaleScaleDrawer@@AAEXPAVCDC@@ABVCDrawingVertScaleData@@ABVCRect@@ABVCVerticalScale@@@Z DD 0ffffffffH
	DD	FLAT:__unwindfunclet$?DrawTextOrGrid_Volumn@CSaleScaleDrawer@@AAEXPAVCDC@@ABVCDrawingVertScaleData@@ABVCRect@@ABVCVerticalScale@@@Z$0
	DD	00H
	DD	FLAT:__unwindfunclet$?DrawTextOrGrid_Volumn@CSaleScaleDrawer@@AAEXPAVCDC@@ABVCDrawingVertScaleData@@ABVCRect@@ABVCVerticalScale@@@Z$2
	DD	0ffffffffH
	DD	FLAT:__unwindfunclet$?DrawTextOrGrid_Volumn@CSaleScaleDrawer@@AAEXPAVCDC@@ABVCDrawingVertScaleData@@ABVCRect@@ABVCVerticalScale@@@Z$2
__ehfuncinfo$?DrawTextOrGrid_Volumn@CSaleScaleDrawer@@AAEXPAVCDC@@ABVCDrawingVertScaleData@@ABVCRect@@ABVCVerticalScale@@@Z DD 019930522H
	DD	03H
	DD	FLAT:__unwindtable$?DrawTextOrGrid_Volumn@CSaleScaleDrawer@@AAEXPAVCDC@@ABVCDrawingVertScaleData@@ABVCRect@@ABVCVerticalScale@@@Z
	DD	2 DUP(00H)
	DD	2 DUP(00H)
	DD	00H
	DD	01H
xdata$x	ENDS
;	COMDAT xdata$x
xdata$x	SEGMENT
__catchsym$??1CGdiObject@@UAE@XZ$3 DD 00H
	DD	FLAT:??_R0PAVCException@@@8
	DD	0fffffde4H
	DD	FLAT:__catch$??1CGdiObject@@UAE@XZ$0
__tryblocktable$??1CGdiObject@@UAE@XZ DD 00H
	DD	00H
	DD	02H
	DD	01H
	DD	FLAT:__catchsym$??1CGdiObject@@UAE@XZ$3
__unwindtable$??1CGdiObject@@UAE@XZ DD 0ffffffffH
	DD	00H
	DD	0ffffffffH
	DD	00H
	DD	01H
	DD	FLAT:__unwindfunclet$??1CGdiObject@@UAE@XZ$2
__ehfuncinfo$??1CGdiObject@@UAE@XZ DD 019930522H
	DD	03H
	DD	FLAT:__unwindtable$??1CGdiObject@@UAE@XZ
	DD	01H
	DD	FLAT:__tryblocktable$??1CGdiObject@@UAE@XZ
	DD	2 DUP(00H)
	DD	00H
	DD	05H
xdata$x	ENDS
;	COMDAT xdata$x
xdata$x	SEGMENT
__unwindtable$??HATL@@YA?AV?$CStringT@DV?$StrTraitMFC_DLL@DV?$ChTraitsCRT@D@ATL@@@@@0@ABV10@PBD@Z DD 0ffffffffH
	DD	FLAT:__unwindfunclet$??HATL@@YA?AV?$CStringT@DV?$StrTraitMFC_DLL@DV?$ChTraitsCRT@D@ATL@@@@@0@ABV10@PBD@Z$0
__ehfuncinfo$??HATL@@YA?AV?$CStringT@DV?$StrTraitMFC_DLL@DV?$ChTraitsCRT@D@ATL@@@@@0@ABV10@PBD@Z DD 019930522H
	DD	01H
	DD	FLAT:__unwindtable$??HATL@@YA?AV?$CStringT@DV?$StrTraitMFC_DLL@DV?$ChTraitsCRT@D@ATL@@@@@0@ABV10@PBD@Z
	DD	2 DUP(00H)
	DD	2 DUP(00H)
	DD	00H
	DD	01H
xdata$x	ENDS
; Function compile flags: /Ogtp
;	COMDAT ??_ECPacketList@@UAEPAXI@Z
_TEXT	SEGMENT
__$EHRec$ = -12						; size = 12
___flags$ = 8						; size = 4
??_ECPacketList@@UAEPAXI@Z PROC				; CPacketList::`vector deleting destructor', COMDAT
; _this$ = ecx
  00000	55		 push	 ebp
  00001	8b ec		 mov	 ebp, esp
  00003	6a ff		 push	 -1
  00005	68 00 00 00 00	 push	 __ehhandler$??_ECPacketList@@UAEPAXI@Z
  0000a	64 a1 00 00 00
	00		 mov	 eax, DWORD PTR fs:0
  00010	50		 push	 eax
  00011	53		 push	 ebx
  00012	56		 push	 esi
  00013	57		 push	 edi
  00014	a1 00 00 00 00	 mov	 eax, DWORD PTR ___security_cookie
  00019	33 c5		 xor	 eax, ebp
  0001b	50		 push	 eax
  0001c	8d 45 f4	 lea	 eax, DWORD PTR __$EHRec$[ebp]
  0001f	64 a3 00 00 00
	00		 mov	 DWORD PTR fs:0, eax
  00025	8b f1		 mov	 esi, ecx
  00027	8b 45 08	 mov	 eax, DWORD PTR ___flags$[ebp]
  0002a	8b d8		 mov	 ebx, eax
  0002c	83 e3 01	 and	 ebx, 1
  0002f	a8 02		 test	 al, 2
  00031	74 40		 je	 SHORT $LN2@vector
  00033	68 00 00 00 00	 push	 OFFSET ??1CPacketList@@UAE@XZ ; CPacketList::~CPacketList
  00038	ff 76 fc	 push	 DWORD PTR [esi-4]
  0003b	8d 7e fc	 lea	 edi, DWORD PTR [esi-4]
  0003e	6a 08		 push	 8
  00040	56		 push	 esi
  00041	e8 00 00 00 00	 call	 ??_M@YGXPAXIIP6EX0@Z@Z
  00046	85 db		 test	 ebx, ebx
  00048	74 13		 je	 SHORT $LN3@vector
  0004a	8b 0f		 mov	 ecx, DWORD PTR [edi]
  0004c	8d 0c cd 04 00
	00 00		 lea	 ecx, DWORD PTR [ecx*8+4]
  00053	51		 push	 ecx
  00054	57		 push	 edi
  00055	e8 00 00 00 00	 call	 ??_V@YAXPAXI@Z		; operator delete[]
  0005a	83 c4 08	 add	 esp, 8
$LN3@vector:
  0005d	8b c7		 mov	 eax, edi
  0005f	8b 4d f4	 mov	 ecx, DWORD PTR __$EHRec$[ebp]
  00062	64 89 0d 00 00
	00 00		 mov	 DWORD PTR fs:0, ecx
  00069	59		 pop	 ecx
  0006a	5f		 pop	 edi
  0006b	5e		 pop	 esi
  0006c	5b		 pop	 ebx
  0006d	8b e5		 mov	 esp, ebp
  0006f	5d		 pop	 ebp
  00070	c2 04 00	 ret	 4
$LN2@vector:
  00073	e8 00 00 00 00	 call	 ??1CPacketList@@UAE@XZ	; CPacketList::~CPacketList
  00078	85 db		 test	 ebx, ebx
  0007a	74 0b		 je	 SHORT $LN4@vector
  0007c	6a 08		 push	 8
  0007e	56		 push	 esi
  0007f	e8 00 00 00 00	 call	 ??3@YAXPAXI@Z		; operator delete
  00084	83 c4 08	 add	 esp, 8
$LN4@vector:
  00087	8b c6		 mov	 eax, esi
  00089	8b 4d f4	 mov	 ecx, DWORD PTR __$EHRec$[ebp]
  0008c	64 89 0d 00 00
	00 00		 mov	 DWORD PTR fs:0, ecx
  00093	59		 pop	 ecx
  00094	5f		 pop	 edi
  00095	5e		 pop	 esi
  00096	5b		 pop	 ebx
  00097	8b e5		 mov	 esp, ebp
  00099	5d		 pop	 ebp
  0009a	c2 04 00	 ret	 4
  0009d	cc		 int	 3
  0009e	cc		 int	 3
  0009f	cc		 int	 3
  000a0	cc		 int	 3
  000a1	cc		 int	 3
_TEXT	ENDS
;	COMDAT text$x
text$x	SEGMENT
__ehhandler$??_ECPacketList@@UAEPAXI@Z:
  00000	90		 npad	 1
  00001	90		 npad	 1
  00002	8b 54 24 08	 mov	 edx, DWORD PTR [esp+8]
  00006	8d 42 0c	 lea	 eax, DWORD PTR [edx+12]
  00009	8b 4a f0	 mov	 ecx, DWORD PTR [edx-16]
  0000c	33 c8		 xor	 ecx, eax
  0000e	e8 00 00 00 00	 call	 @__security_check_cookie@4
  00013	b8 00 00 00 00	 mov	 eax, OFFSET __ehfuncinfo$??_ECPacketList@@UAEPAXI@Z
  00018	e9 00 00 00 00	 jmp	 ___CxxFrameHandler3
text$x	ENDS
??_ECPacketList@@UAEPAXI@Z ENDP				; CPacketList::`vector deleting destructor'
; Function compile flags: /Ogtp
;	COMDAT ??_GCPacketList@@UAEPAXI@Z
_TEXT	SEGMENT
___flags$ = 8						; size = 4
??_GCPacketList@@UAEPAXI@Z PROC				; CPacketList::`scalar deleting destructor', COMDAT
; _this$ = ecx
  00000	55		 push	 ebp
  00001	8b ec		 mov	 ebp, esp
  00003	56		 push	 esi
  00004	8b f1		 mov	 esi, ecx
  00006	e8 00 00 00 00	 call	 ??1CPacketList@@UAE@XZ	; CPacketList::~CPacketList
  0000b	f6 45 08 01	 test	 BYTE PTR ___flags$[ebp], 1
  0000f	74 0b		 je	 SHORT $LN4@scalar
  00011	6a 08		 push	 8
  00013	56		 push	 esi
  00014	e8 00 00 00 00	 call	 ??3@YAXPAXI@Z		; operator delete
  00019	83 c4 08	 add	 esp, 8
$LN4@scalar:
  0001c	8b c6		 mov	 eax, esi
  0001e	5e		 pop	 esi
  0001f	5d		 pop	 ebp
  00020	c2 04 00	 ret	 4
??_GCPacketList@@UAEPAXI@Z ENDP				; CPacketList::`scalar deleting destructor'
_TEXT	ENDS
; Function compile flags: /Ogtp
;	COMDAT ??4CPacketList@@QAEAAV0@ABV0@@Z
_TEXT	SEGMENT
___that$ = 8						; size = 4
??4CPacketList@@QAEAAV0@ABV0@@Z PROC			; CPacketList::operator=, COMDAT
; _this$ = ecx
  00000	55		 push	 ebp
  00001	8b ec		 mov	 ebp, esp
  00003	8b 45 08	 mov	 eax, DWORD PTR ___that$[ebp]
  00006	8b 40 04	 mov	 eax, DWORD PTR [eax+4]
  00009	89 41 04	 mov	 DWORD PTR [ecx+4], eax
  0000c	8b c1		 mov	 eax, ecx
  0000e	5d		 pop	 ebp
  0000f	c2 04 00	 ret	 4
??4CPacketList@@QAEAAV0@ABV0@@Z ENDP			; CPacketList::operator=
_TEXT	ENDS
; Function compile flags: /Ogtp
;	COMDAT ??0CPacketList@@QAE@ABV0@@Z
_TEXT	SEGMENT
___that$ = 8						; size = 4
??0CPacketList@@QAE@ABV0@@Z PROC			; CPacketList::CPacketList, COMDAT
; _this$ = ecx
  00000	55		 push	 ebp
  00001	8b ec		 mov	 ebp, esp
  00003	8b 45 08	 mov	 eax, DWORD PTR ___that$[ebp]
  00006	c7 01 00 00 00
	00		 mov	 DWORD PTR [ecx], OFFSET ??_7CPacketList@@6B@
  0000c	8b 40 04	 mov	 eax, DWORD PTR [eax+4]
  0000f	89 41 04	 mov	 DWORD PTR [ecx+4], eax
  00012	8b c1		 mov	 eax, ecx
  00014	5d		 pop	 ebp
  00015	c2 04 00	 ret	 4
??0CPacketList@@QAE@ABV0@@Z ENDP			; CPacketList::CPacketList
_TEXT	ENDS
; Function compile flags: /Ogtp
;	COMDAT ??4CVertScaleRegion@@QAEAAV0@$$QAV0@@Z
_TEXT	SEGMENT
___that$ = 8						; size = 4
??4CVertScaleRegion@@QAEAAV0@$$QAV0@@Z PROC		; CVertScaleRegion::operator=, COMDAT
; _this$ = ecx
  00000	55		 push	 ebp
  00001	8b ec		 mov	 ebp, esp
  00003	8b 45 08	 mov	 eax, DWORD PTR ___that$[ebp]
  00006	0f 10 00	 movups	 xmm0, XMMWORD PTR [eax]
  00009	0f 11 01	 movups	 XMMWORD PTR [ecx], xmm0
  0000c	0f 10 40 10	 movups	 xmm0, XMMWORD PTR [eax+16]
  00010	8b c1		 mov	 eax, ecx
  00012	0f 11 41 10	 movups	 XMMWORD PTR [ecx+16], xmm0
  00016	5d		 pop	 ebp
  00017	c2 04 00	 ret	 4
??4CVertScaleRegion@@QAEAAV0@$$QAV0@@Z ENDP		; CVertScaleRegion::operator=
_TEXT	ENDS
; Function compile flags: /Ogtp
;	COMDAT ??4CVertScaleRegion@@QAEAAV0@ABV0@@Z
_TEXT	SEGMENT
___that$ = 8						; size = 4
??4CVertScaleRegion@@QAEAAV0@ABV0@@Z PROC		; CVertScaleRegion::operator=, COMDAT
; _this$ = ecx
  00000	55		 push	 ebp
  00001	8b ec		 mov	 ebp, esp
  00003	8b 45 08	 mov	 eax, DWORD PTR ___that$[ebp]
  00006	0f 10 00	 movups	 xmm0, XMMWORD PTR [eax]
  00009	0f 11 01	 movups	 XMMWORD PTR [ecx], xmm0
  0000c	0f 10 40 10	 movups	 xmm0, XMMWORD PTR [eax+16]
  00010	8b c1		 mov	 eax, ecx
  00012	0f 11 41 10	 movups	 XMMWORD PTR [ecx+16], xmm0
  00016	5d		 pop	 ebp
  00017	c2 04 00	 ret	 4
??4CVertScaleRegion@@QAEAAV0@ABV0@@Z ENDP		; CVertScaleRegion::operator=
_TEXT	ENDS
; Function compile flags: /Ogtp
;	COMDAT ??4CHorzScaleRegion@@QAEAAV0@$$QAV0@@Z
_TEXT	SEGMENT
___that$ = 8						; size = 4
??4CHorzScaleRegion@@QAEAAV0@$$QAV0@@Z PROC		; CHorzScaleRegion::operator=, COMDAT
; _this$ = ecx
  00000	55		 push	 ebp
  00001	8b ec		 mov	 ebp, esp
  00003	8b 45 08	 mov	 eax, DWORD PTR ___that$[ebp]
  00006	0f 10 00	 movups	 xmm0, XMMWORD PTR [eax]
  00009	0f 11 01	 movups	 XMMWORD PTR [ecx], xmm0
  0000c	0f 10 40 10	 movups	 xmm0, XMMWORD PTR [eax+16]
  00010	8b c1		 mov	 eax, ecx
  00012	0f 11 41 10	 movups	 XMMWORD PTR [ecx+16], xmm0
  00016	5d		 pop	 ebp
  00017	c2 04 00	 ret	 4
??4CHorzScaleRegion@@QAEAAV0@$$QAV0@@Z ENDP		; CHorzScaleRegion::operator=
_TEXT	ENDS
; Function compile flags: /Ogtp
;	COMDAT ??4CHorzScaleRegion@@QAEAAV0@ABV0@@Z
_TEXT	SEGMENT
___that$ = 8						; size = 4
??4CHorzScaleRegion@@QAEAAV0@ABV0@@Z PROC		; CHorzScaleRegion::operator=, COMDAT
; _this$ = ecx
  00000	55		 push	 ebp
  00001	8b ec		 mov	 ebp, esp
  00003	8b 45 08	 mov	 eax, DWORD PTR ___that$[ebp]
  00006	0f 10 00	 movups	 xmm0, XMMWORD PTR [eax]
  00009	0f 11 01	 movups	 XMMWORD PTR [ecx], xmm0
  0000c	0f 10 40 10	 movups	 xmm0, XMMWORD PTR [eax+16]
  00010	8b c1		 mov	 eax, ecx
  00012	0f 11 41 10	 movups	 XMMWORD PTR [ecx+16], xmm0
  00016	5d		 pop	 ebp
  00017	c2 04 00	 ret	 4
??4CHorzScaleRegion@@QAEAAV0@ABV0@@Z ENDP		; CHorzScaleRegion::operator=
_TEXT	ENDS
; Function compile flags: /Ogtp
;	COMDAT ??4CVertScaleRegionWidth@@QAEAAV0@$$QAV0@@Z
_TEXT	SEGMENT
___that$ = 8						; size = 4
??4CVertScaleRegionWidth@@QAEAAV0@$$QAV0@@Z PROC	; CVertScaleRegionWidth::operator=, COMDAT
; _this$ = ecx
  00000	55		 push	 ebp
  00001	8b ec		 mov	 ebp, esp
  00003	8b 55 08	 mov	 edx, DWORD PTR ___that$[ebp]
  00006	8b 02		 mov	 eax, DWORD PTR [edx]
  00008	89 01		 mov	 DWORD PTR [ecx], eax
  0000a	8b 42 04	 mov	 eax, DWORD PTR [edx+4]
  0000d	89 41 04	 mov	 DWORD PTR [ecx+4], eax
  00010	8b c1		 mov	 eax, ecx
  00012	5d		 pop	 ebp
  00013	c2 04 00	 ret	 4
??4CVertScaleRegionWidth@@QAEAAV0@$$QAV0@@Z ENDP	; CVertScaleRegionWidth::operator=
_TEXT	ENDS
; Function compile flags: /Ogtp
;	COMDAT ??4CVertScaleRegionWidth@@QAEAAV0@ABV0@@Z
_TEXT	SEGMENT
___that$ = 8						; size = 4
??4CVertScaleRegionWidth@@QAEAAV0@ABV0@@Z PROC		; CVertScaleRegionWidth::operator=, COMDAT
; _this$ = ecx
  00000	55		 push	 ebp
  00001	8b ec		 mov	 ebp, esp
  00003	8b 45 08	 mov	 eax, DWORD PTR ___that$[ebp]
  00006	8b 10		 mov	 edx, DWORD PTR [eax]
  00008	8b 40 04	 mov	 eax, DWORD PTR [eax+4]
  0000b	89 41 04	 mov	 DWORD PTR [ecx+4], eax
  0000e	8b c1		 mov	 eax, ecx
  00010	89 11		 mov	 DWORD PTR [ecx], edx
  00012	5d		 pop	 ebp
  00013	c2 04 00	 ret	 4
??4CVertScaleRegionWidth@@QAEAAV0@ABV0@@Z ENDP		; CVertScaleRegionWidth::operator=
_TEXT	ENDS
; Function compile flags: /Ogtp
;	COMDAT ??4CHorzScaleRegionHeight@@QAEAAV0@$$QAV0@@Z
_TEXT	SEGMENT
___that$ = 8						; size = 4
??4CHorzScaleRegionHeight@@QAEAAV0@$$QAV0@@Z PROC	; CHorzScaleRegionHeight::operator=, COMDAT
; _this$ = ecx
  00000	55		 push	 ebp
  00001	8b ec		 mov	 ebp, esp
  00003	8b 55 08	 mov	 edx, DWORD PTR ___that$[ebp]
  00006	8b 02		 mov	 eax, DWORD PTR [edx]
  00008	89 01		 mov	 DWORD PTR [ecx], eax
  0000a	8b 42 04	 mov	 eax, DWORD PTR [edx+4]
  0000d	89 41 04	 mov	 DWORD PTR [ecx+4], eax
  00010	8b c1		 mov	 eax, ecx
  00012	5d		 pop	 ebp
  00013	c2 04 00	 ret	 4
??4CHorzScaleRegionHeight@@QAEAAV0@$$QAV0@@Z ENDP	; CHorzScaleRegionHeight::operator=
_TEXT	ENDS
; Function compile flags: /Ogtp
;	COMDAT ??4CHorzScaleRegionHeight@@QAEAAV0@ABV0@@Z
_TEXT	SEGMENT
___that$ = 8						; size = 4
??4CHorzScaleRegionHeight@@QAEAAV0@ABV0@@Z PROC		; CHorzScaleRegionHeight::operator=, COMDAT
; _this$ = ecx
  00000	55		 push	 ebp
  00001	8b ec		 mov	 ebp, esp
  00003	8b 45 08	 mov	 eax, DWORD PTR ___that$[ebp]
  00006	8b 10		 mov	 edx, DWORD PTR [eax]
  00008	8b 40 04	 mov	 eax, DWORD PTR [eax+4]
  0000b	89 41 04	 mov	 DWORD PTR [ecx+4], eax
  0000e	8b c1		 mov	 eax, ecx
  00010	89 11		 mov	 DWORD PTR [ecx], edx
  00012	5d		 pop	 ebp
  00013	c2 04 00	 ret	 4
??4CHorzScaleRegionHeight@@QAEAAV0@ABV0@@Z ENDP		; CHorzScaleRegionHeight::operator=
_TEXT	ENDS
; Function compile flags: /Ogtp
;	COMDAT ??0CVerticalScale@@QAE@ABV0@@Z
_TEXT	SEGMENT
_this$ = -4						; size = 4
___that$ = 8						; size = 4
??0CVerticalScale@@QAE@ABV0@@Z PROC			; CVerticalScale::CVerticalScale, COMDAT
; _this$ = ecx
  00000	55		 push	 ebp
  00001	8b ec		 mov	 ebp, esp
  00003	51		 push	 ecx
  00004	56		 push	 esi
  00005	8b 75 08	 mov	 esi, DWORD PTR ___that$[ebp]
  00008	57		 push	 edi
  00009	8b f9		 mov	 edi, ecx
  0000b	89 7d fc	 mov	 DWORD PTR _this$[ebp], edi
  0000e	8d 46 04	 lea	 eax, DWORD PTR [esi+4]
  00011	50		 push	 eax
  00012	8d 4f 04	 lea	 ecx, DWORD PTR [edi+4]
  00015	c7 07 00 00 00
	00		 mov	 DWORD PTR [edi], OFFSET ??_7CScale@@6B@
  0001b	ff 15 00 00 00
	00		 call	 DWORD PTR __imp_??0?$CStringT@DV?$StrTraitMFC_DLL@DV?$ChTraitsCRT@D@ATL@@@@@ATL@@QAE@ABV01@@Z
  00021	8b 46 08	 mov	 eax, DWORD PTR [esi+8]
  00024	89 47 08	 mov	 DWORD PTR [edi+8], eax
  00027	c7 07 00 00 00
	00		 mov	 DWORD PTR [edi], OFFSET ??_7CVerticalScale@@6B@
  0002d	8b 46 0c	 mov	 eax, DWORD PTR [esi+12]
  00030	89 47 0c	 mov	 DWORD PTR [edi+12], eax
  00033	8b 46 10	 mov	 eax, DWORD PTR [esi+16]
  00036	89 47 10	 mov	 DWORD PTR [edi+16], eax
  00039	8b 46 14	 mov	 eax, DWORD PTR [esi+20]
  0003c	89 47 14	 mov	 DWORD PTR [edi+20], eax
  0003f	8b 46 18	 mov	 eax, DWORD PTR [esi+24]
  00042	89 47 18	 mov	 DWORD PTR [edi+24], eax
  00045	f2 0f 10 46 20	 movsd	 xmm0, QWORD PTR [esi+32]
  0004a	f2 0f 11 47 20	 movsd	 QWORD PTR [edi+32], xmm0
  0004f	f2 0f 10 46 28	 movsd	 xmm0, QWORD PTR [esi+40]
  00054	f2 0f 11 47 28	 movsd	 QWORD PTR [edi+40], xmm0
  00059	8b 46 30	 mov	 eax, DWORD PTR [esi+48]
  0005c	89 47 30	 mov	 DWORD PTR [edi+48], eax
  0005f	8a 46 34	 mov	 al, BYTE PTR [esi+52]
  00062	88 47 34	 mov	 BYTE PTR [edi+52], al
  00065	f2 0f 10 46 38	 movsd	 xmm0, QWORD PTR [esi+56]
  0006a	f2 0f 11 47 38	 movsd	 QWORD PTR [edi+56], xmm0
  0006f	f2 0f 10 46 40	 movsd	 xmm0, QWORD PTR [esi+64]
  00074	f2 0f 11 47 40	 movsd	 QWORD PTR [edi+64], xmm0
  00079	8b 46 48	 mov	 eax, DWORD PTR [esi+72]
  0007c	89 47 48	 mov	 DWORD PTR [edi+72], eax
  0007f	8b 46 4c	 mov	 eax, DWORD PTR [esi+76]
  00082	89 47 4c	 mov	 DWORD PTR [edi+76], eax
  00085	8b 46 50	 mov	 eax, DWORD PTR [esi+80]
  00088	89 47 50	 mov	 DWORD PTR [edi+80], eax
  0008b	8b c7		 mov	 eax, edi
  0008d	5f		 pop	 edi
  0008e	5e		 pop	 esi
  0008f	8b e5		 mov	 esp, ebp
  00091	5d		 pop	 ebp
  00092	c2 04 00	 ret	 4
??0CVerticalScale@@QAE@ABV0@@Z ENDP			; CVerticalScale::CVerticalScale
_TEXT	ENDS
; Function compile flags: /Ogtp
;	COMDAT ??1CVerticalScale@@QAE@XZ
_TEXT	SEGMENT
??1CVerticalScale@@QAE@XZ PROC				; CVerticalScale::~CVerticalScale, COMDAT
; _this$ = ecx
  00000	83 c1 04	 add	 ecx, 4
  00003	ff 25 00 00 00
	00		 jmp	 DWORD PTR __imp_??1?$CStringT@DV?$StrTraitMFC_DLL@DV?$ChTraitsCRT@D@ATL@@@@@ATL@@QAE@XZ
??1CVerticalScale@@QAE@XZ ENDP				; CVerticalScale::~CVerticalScale
_TEXT	ENDS
; Function compile flags: /Ogtp
; File D:\git\src\IBK\IBK_DRFN\ProjSrc\SrcChartEx\ChartOCX\Include_Chart\ScaleBaseData.h
;	COMDAT ?GetSpace@CVerticalScale@@QBEXAAH0@Z
_TEXT	SEGMENT
_p_nUpSpace$ = 8					; size = 4
_p_nDownSpace$ = 12					; size = 4
?GetSpace@CVerticalScale@@QBEXAAH0@Z PROC		; CVerticalScale::GetSpace, COMDAT
; _this$ = ecx

; 240  : 	void	GetSpace( int &p_nUpSpace, int &p_nDownSpace) const		{	p_nUpSpace = m_nUpSpace;	p_nDownSpace = m_nDownSpace;	}

  00000	55		 push	 ebp
  00001	8b ec		 mov	 ebp, esp
  00003	8b 45 08	 mov	 eax, DWORD PTR _p_nUpSpace$[ebp]
  00006	8b 51 4c	 mov	 edx, DWORD PTR [ecx+76]
  00009	89 10		 mov	 DWORD PTR [eax], edx
  0000b	8b 45 0c	 mov	 eax, DWORD PTR _p_nDownSpace$[ebp]
  0000e	8b 49 50	 mov	 ecx, DWORD PTR [ecx+80]
  00011	89 08		 mov	 DWORD PTR [eax], ecx
  00013	5d		 pop	 ebp
  00014	c2 08 00	 ret	 8
?GetSpace@CVerticalScale@@QBEXAAH0@Z ENDP		; CVerticalScale::GetSpace
_TEXT	ENDS
; Function compile flags: /Ogtp
; File D:\git\src\IBK\IBK_DRFN\ProjSrc\SrcChartEx\ChartOCX\Include_Chart\ScaleBaseData.h
;	COMDAT ?SetSpace@CVerticalScale@@QAEXHH@Z
_TEXT	SEGMENT
_p_nUpSpace$ = 8					; size = 4
_p_nDownSpace$ = 12					; size = 4
?SetSpace@CVerticalScale@@QAEXHH@Z PROC			; CVerticalScale::SetSpace, COMDAT
; _this$ = ecx

; 239  : 	void	SetSpace( int p_nUpSpace, int p_nDownSpace)				{	m_nUpSpace = p_nUpSpace;	m_nDownSpace = p_nDownSpace;	}

  00000	55		 push	 ebp
  00001	8b ec		 mov	 ebp, esp
  00003	8b 45 08	 mov	 eax, DWORD PTR _p_nUpSpace$[ebp]
  00006	89 41 4c	 mov	 DWORD PTR [ecx+76], eax
  00009	8b 45 0c	 mov	 eax, DWORD PTR _p_nDownSpace$[ebp]
  0000c	89 41 50	 mov	 DWORD PTR [ecx+80], eax
  0000f	5d		 pop	 ebp
  00010	c2 08 00	 ret	 8
?SetSpace@CVerticalScale@@QAEXHH@Z ENDP			; CVerticalScale::SetSpace
_TEXT	ENDS
; Function compile flags: /Ogtp
; File D:\git\src\IBK\IBK_DRFN\ProjSrc\SrcChartEx\ChartOCX\Include_Chart\ScaleBaseData.h
;	COMDAT ?SetVertScaleInvertType@CVerticalScale@@QAEX_N@Z
_TEXT	SEGMENT
_bIsVertScaleInvertType$ = 8				; size = 1
?SetVertScaleInvertType@CVerticalScale@@QAEX_N@Z PROC	; CVerticalScale::SetVertScaleInvertType, COMDAT
; _this$ = ecx

; 232  : 	void	SetVertScaleInvertType(const bool bIsVertScaleInvertType)	{	m_bIsVertScaleInvertType = bIsVertScaleInvertType;	}

  00000	55		 push	 ebp
  00001	8b ec		 mov	 ebp, esp
  00003	8a 45 08	 mov	 al, BYTE PTR _bIsVertScaleInvertType$[ebp]
  00006	88 41 34	 mov	 BYTE PTR [ecx+52], al
  00009	5d		 pop	 ebp
  0000a	c2 04 00	 ret	 4
?SetVertScaleInvertType@CVerticalScale@@QAEX_N@Z ENDP	; CVerticalScale::SetVertScaleInvertType
_TEXT	ENDS
; Function compile flags: /Ogtp
; File D:\git\src\IBK\IBK_DRFN\ProjSrc\SrcChartEx\ChartOCX\Include_Chart\ScaleBaseData.h
;	COMDAT ?GetVertScaleInvertType@CVerticalScale@@QBE_NXZ
_TEXT	SEGMENT
?GetVertScaleInvertType@CVerticalScale@@QBE_NXZ PROC	; CVerticalScale::GetVertScaleInvertType, COMDAT
; _this$ = ecx

; 230  : 	bool	GetVertScaleInvertType() const								{	return m_bIsVertScaleInvertType;	}

  00000	8a 41 34	 mov	 al, BYTE PTR [ecx+52]
  00003	c3		 ret	 0
?GetVertScaleInvertType@CVerticalScale@@QBE_NXZ ENDP	; CVerticalScale::GetVertScaleInvertType
_TEXT	ENDS
; Function compile flags: /Ogtp
; File D:\git\src\IBK\IBK_DRFN\ProjSrc\SrcChartEx\ChartOCX\Include_Chart\ScaleBaseData.h
;	COMDAT ?GetVertUserHogaScaleType@CVerticalScale@@QBEHXZ
_TEXT	SEGMENT
?GetVertUserHogaScaleType@CVerticalScale@@QBEHXZ PROC	; CVerticalScale::GetVertUserHogaScaleType, COMDAT
; _this$ = ecx

; 226  : 	int			GetVertUserHogaScaleType( void) const						{	return m_nUserHogaType;		}			

  00000	8b 41 48	 mov	 eax, DWORD PTR [ecx+72]
  00003	c3		 ret	 0
?GetVertUserHogaScaleType@CVerticalScale@@QBEHXZ ENDP	; CVerticalScale::GetVertUserHogaScaleType
_TEXT	ENDS
; Function compile flags: /Ogtp
; File D:\git\src\IBK\IBK_DRFN\ProjSrc\SrcChartEx\ChartOCX\Include_Chart\ScaleBaseData.h
;	COMDAT ?GetVertScaleUserNumber@CVerticalScale@@QBENXZ
_TEXT	SEGMENT
?GetVertScaleUserNumber@CVerticalScale@@QBENXZ PROC	; CVerticalScale::GetVertScaleUserNumber, COMDAT
; _this$ = ecx

; 225  : 	double		GetVertScaleUserNumber( void) const						{	return m_dUserNumber;		}			

  00000	dd 41 38	 fld	 QWORD PTR [ecx+56]
  00003	c3		 ret	 0
?GetVertScaleUserNumber@CVerticalScale@@QBENXZ ENDP	; CVerticalScale::GetVertScaleUserNumber
_TEXT	ENDS
; Function compile flags: /Ogtp
; File D:\git\src\IBK\IBK_DRFN\ProjSrc\SrcChartEx\ChartOCX\Include_Chart\ScaleBaseData.h
;	COMDAT ?GetVertScaleHoGaNumber@CVerticalScale@@QBENXZ
_TEXT	SEGMENT
?GetVertScaleHoGaNumber@CVerticalScale@@QBENXZ PROC	; CVerticalScale::GetVertScaleHoGaNumber, COMDAT
; _this$ = ecx

; 224  : 	double		GetVertScaleHoGaNumber( void) const						{	return m_dHogaNumber;		}			

  00000	dd 41 40	 fld	 QWORD PTR [ecx+64]
  00003	c3		 ret	 0
?GetVertScaleHoGaNumber@CVerticalScale@@QBENXZ ENDP	; CVerticalScale::GetVertScaleHoGaNumber
_TEXT	ENDS
; Function compile flags: /Ogtp
; File D:\git\src\IBK\IBK_DRFN\ProjSrc\SrcChartEx\ChartOCX\Include_Chart\ScaleBaseData.h
;	COMDAT ?SetVertUserHogaScaleType@CVerticalScale@@QAEXH@Z
_TEXT	SEGMENT
_p_nUserHogaType$ = 8					; size = 4
?SetVertUserHogaScaleType@CVerticalScale@@QAEXH@Z PROC	; CVerticalScale::SetVertUserHogaScaleType, COMDAT
; _this$ = ecx

; 222  : 	void		SetVertUserHogaScaleType( int p_nUserHogaType)		{	m_nUserHogaType = p_nUserHogaType;	}

  00000	55		 push	 ebp
  00001	8b ec		 mov	 ebp, esp
  00003	8b 45 08	 mov	 eax, DWORD PTR _p_nUserHogaType$[ebp]
  00006	89 41 48	 mov	 DWORD PTR [ecx+72], eax
  00009	5d		 pop	 ebp
  0000a	c2 04 00	 ret	 4
?SetVertUserHogaScaleType@CVerticalScale@@QAEXH@Z ENDP	; CVerticalScale::SetVertUserHogaScaleType
_TEXT	ENDS
; Function compile flags: /Ogtp
; File D:\git\src\IBK\IBK_DRFN\ProjSrc\SrcChartEx\ChartOCX\Include_Chart\ScaleBaseData.h
;	COMDAT ?SetVertScaleUserNumber@CVerticalScale@@QAEXN@Z
_TEXT	SEGMENT
_p_dUserNumber$ = 8					; size = 8
?SetVertScaleUserNumber@CVerticalScale@@QAEXN@Z PROC	; CVerticalScale::SetVertScaleUserNumber, COMDAT
; _this$ = ecx

; 221  : 	void		SetVertScaleUserNumber( double p_dUserNumber)			{	m_dUserNumber = p_dUserNumber;	}

  00000	55		 push	 ebp
  00001	8b ec		 mov	 ebp, esp
  00003	f2 0f 10 45 08	 movsd	 xmm0, QWORD PTR _p_dUserNumber$[ebp]
  00008	f2 0f 11 41 38	 movsd	 QWORD PTR [ecx+56], xmm0
  0000d	5d		 pop	 ebp
  0000e	c2 08 00	 ret	 8
?SetVertScaleUserNumber@CVerticalScale@@QAEXN@Z ENDP	; CVerticalScale::SetVertScaleUserNumber
_TEXT	ENDS
; Function compile flags: /Ogtp
; File D:\git\src\IBK\IBK_DRFN\ProjSrc\SrcChartEx\ChartOCX\Include_Chart\ScaleBaseData.h
;	COMDAT ?SetVertScaleHoGaNumber@CVerticalScale@@QAEXN@Z
_TEXT	SEGMENT
_p_dHogaNumber$ = 8					; size = 8
?SetVertScaleHoGaNumber@CVerticalScale@@QAEXN@Z PROC	; CVerticalScale::SetVertScaleHoGaNumber, COMDAT
; _this$ = ecx

; 220  : 	void		SetVertScaleHoGaNumber( double p_dHogaNumber)			{	m_dHogaNumber = p_dHogaNumber;	}

  00000	55		 push	 ebp
  00001	8b ec		 mov	 ebp, esp
  00003	f2 0f 10 45 08	 movsd	 xmm0, QWORD PTR _p_dHogaNumber$[ebp]
  00008	f2 0f 11 41 40	 movsd	 QWORD PTR [ecx+64], xmm0
  0000d	5d		 pop	 ebp
  0000e	c2 08 00	 ret	 8
?SetVertScaleHoGaNumber@CVerticalScale@@QAEXN@Z ENDP	; CVerticalScale::SetVertScaleHoGaNumber
_TEXT	ENDS
; Function compile flags: /Ogtp
; File D:\git\src\IBK\IBK_DRFN\ProjSrc\SrcChartEx\ChartOCX\Include_Chart\ScaleBaseData.h
;	COMDAT ?SetVertScaleMax@CVerticalScale@@QAEXN@Z
_TEXT	SEGMENT
_p_dMax$ = 8						; size = 8
?SetVertScaleMax@CVerticalScale@@QAEXN@Z PROC		; CVerticalScale::SetVertScaleMax, COMDAT
; _this$ = ecx

; 211  : 	void							SetVertScaleMax( double p_dMax)											{	m_dMax = p_dMax;	}

  00000	55		 push	 ebp
  00001	8b ec		 mov	 ebp, esp
  00003	f2 0f 10 45 08	 movsd	 xmm0, QWORD PTR _p_dMax$[ebp]
  00008	f2 0f 11 41 28	 movsd	 QWORD PTR [ecx+40], xmm0
  0000d	5d		 pop	 ebp
  0000e	c2 08 00	 ret	 8
?SetVertScaleMax@CVerticalScale@@QAEXN@Z ENDP		; CVerticalScale::SetVertScaleMax
_TEXT	ENDS
; Function compile flags: /Ogtp
; File D:\git\src\IBK\IBK_DRFN\ProjSrc\SrcChartEx\ChartOCX\Include_Chart\ScaleBaseData.h
;	COMDAT ?GetVertScaleMax@CVerticalScale@@QBENXZ
_TEXT	SEGMENT
?GetVertScaleMax@CVerticalScale@@QBENXZ PROC		; CVerticalScale::GetVertScaleMax, COMDAT
; _this$ = ecx

; 210  : 	double							GetVertScaleMax( void) const											{	return m_dMax;		}

  00000	dd 41 28	 fld	 QWORD PTR [ecx+40]
  00003	c3		 ret	 0
?GetVertScaleMax@CVerticalScale@@QBENXZ ENDP		; CVerticalScale::GetVertScaleMax
_TEXT	ENDS
; Function compile flags: /Ogtp
; File D:\git\src\IBK\IBK_DRFN\ProjSrc\SrcChartEx\ChartOCX\Include_Chart\ScaleBaseData.h
;	COMDAT ?SetVertScaleMin@CVerticalScale@@QAEXN@Z
_TEXT	SEGMENT
_p_dMin$ = 8						; size = 8
?SetVertScaleMin@CVerticalScale@@QAEXN@Z PROC		; CVerticalScale::SetVertScaleMin, COMDAT
; _this$ = ecx

; 208  : 	void							SetVertScaleMin( double p_dMin)											{	m_dMin = p_dMin;	}

  00000	55		 push	 ebp
  00001	8b ec		 mov	 ebp, esp
  00003	f2 0f 10 45 08	 movsd	 xmm0, QWORD PTR _p_dMin$[ebp]
  00008	f2 0f 11 41 20	 movsd	 QWORD PTR [ecx+32], xmm0
  0000d	5d		 pop	 ebp
  0000e	c2 08 00	 ret	 8
?SetVertScaleMin@CVerticalScale@@QAEXN@Z ENDP		; CVerticalScale::SetVertScaleMin
_TEXT	ENDS
; Function compile flags: /Ogtp
; File D:\git\src\IBK\IBK_DRFN\ProjSrc\SrcChartEx\ChartOCX\Include_Chart\ScaleBaseData.h
;	COMDAT ?GetVertScaleMin@CVerticalScale@@QBENXZ
_TEXT	SEGMENT
?GetVertScaleMin@CVerticalScale@@QBENXZ PROC		; CVerticalScale::GetVertScaleMin, COMDAT
; _this$ = ecx

; 207  : 	double							GetVertScaleMin( void) const											{	return m_dMin;		}			

  00000	dd 41 20	 fld	 QWORD PTR [ecx+32]
  00003	c3		 ret	 0
?GetVertScaleMin@CVerticalScale@@QBENXZ ENDP		; CVerticalScale::GetVertScaleMin
_TEXT	ENDS
; Function compile flags: /Ogtp
; File D:\git\src\IBK\IBK_DRFN\ProjSrc\SrcChartEx\ChartOCX\Include_Chart\ScaleBaseData.h
;	COMDAT ?SetVertScaleMinMaxType@CVerticalScale@@QAEXW4VERTMINMAXTYPE@CScaleBaseData@@@Z
_TEXT	SEGMENT
_p_eMinMaxType$ = 8					; size = 4
?SetVertScaleMinMaxType@CVerticalScale@@QAEXW4VERTMINMAXTYPE@CScaleBaseData@@@Z PROC ; CVerticalScale::SetVertScaleMinMaxType, COMDAT
; _this$ = ecx

; 205  : 	void							SetVertScaleMinMaxType( CScaleBaseData::VERTMINMAXTYPE p_eMinMaxType) 	{	m_eMinMaxType = p_eMinMaxType;	}

  00000	55		 push	 ebp
  00001	8b ec		 mov	 ebp, esp
  00003	8b 45 08	 mov	 eax, DWORD PTR _p_eMinMaxType$[ebp]
  00006	89 41 18	 mov	 DWORD PTR [ecx+24], eax
  00009	5d		 pop	 ebp
  0000a	c2 04 00	 ret	 4
?SetVertScaleMinMaxType@CVerticalScale@@QAEXW4VERTMINMAXTYPE@CScaleBaseData@@@Z ENDP ; CVerticalScale::SetVertScaleMinMaxType
_TEXT	ENDS
; Function compile flags: /Ogtp
; File D:\git\src\IBK\IBK_DRFN\ProjSrc\SrcChartEx\ChartOCX\Include_Chart\ScaleBaseData.h
;	COMDAT ?GetVertScaleMinMaxType@CVerticalScale@@QBE?AW4VERTMINMAXTYPE@CScaleBaseData@@XZ
_TEXT	SEGMENT
?GetVertScaleMinMaxType@CVerticalScale@@QBE?AW4VERTMINMAXTYPE@CScaleBaseData@@XZ PROC ; CVerticalScale::GetVertScaleMinMaxType, COMDAT
; _this$ = ecx

; 204  : 	CScaleBaseData::VERTMINMAXTYPE	GetVertScaleMinMaxType( void) const										{	return m_eMinMaxType;			}

  00000	8b 41 18	 mov	 eax, DWORD PTR [ecx+24]
  00003	c3		 ret	 0
?GetVertScaleMinMaxType@CVerticalScale@@QBE?AW4VERTMINMAXTYPE@CScaleBaseData@@XZ ENDP ; CVerticalScale::GetVertScaleMinMaxType
_TEXT	ENDS
; Function compile flags: /Ogtp
; File D:\git\src\IBK\IBK_DRFN\ProjSrc\SrcChartEx\ChartOCX\Include_Chart\ScaleBaseData.h
;	COMDAT ?SetVertScaleMinMaxLock@CVerticalScale@@QAEXH@Z
_TEXT	SEGMENT
_p_bMinMaxLock$ = 8					; size = 4
?SetVertScaleMinMaxLock@CVerticalScale@@QAEXH@Z PROC	; CVerticalScale::SetVertScaleMinMaxLock, COMDAT
; _this$ = ecx

; 202  : 	void							SetVertScaleMinMaxLock( BOOL p_bMinMaxLock)								{	m_bMinMaxLock = p_bMinMaxLock;	}

  00000	55		 push	 ebp
  00001	8b ec		 mov	 ebp, esp
  00003	8b 45 08	 mov	 eax, DWORD PTR _p_bMinMaxLock$[ebp]
  00006	89 41 14	 mov	 DWORD PTR [ecx+20], eax
  00009	5d		 pop	 ebp
  0000a	c2 04 00	 ret	 4
?SetVertScaleMinMaxLock@CVerticalScale@@QAEXH@Z ENDP	; CVerticalScale::SetVertScaleMinMaxLock
_TEXT	ENDS
; Function compile flags: /Ogtp
; File D:\git\src\IBK\IBK_DRFN\ProjSrc\SrcChartEx\ChartOCX\Include_Chart\ScaleBaseData.h
;	COMDAT ?IsVertScaleMinMaxLock@CVerticalScale@@QBEHXZ
_TEXT	SEGMENT
?IsVertScaleMinMaxLock@CVerticalScale@@QBEHXZ PROC	; CVerticalScale::IsVertScaleMinMaxLock, COMDAT
; _this$ = ecx

; 201  : 	BOOL							IsVertScaleMinMaxLock( void) const										{	return m_bMinMaxLock;			}

  00000	8b 41 14	 mov	 eax, DWORD PTR [ecx+20]
  00003	c3		 ret	 0
?IsVertScaleMinMaxLock@CVerticalScale@@QBEHXZ ENDP	; CVerticalScale::IsVertScaleMinMaxLock
_TEXT	ENDS
; Function compile flags: /Ogtp
;	COMDAT ??0CHorizontalScale@@QAE@ABV0@@Z
_TEXT	SEGMENT
_this$ = -16						; size = 4
__$EHRec$ = -12						; size = 12
_this$ = 8						; size = 4
___that$ = 8						; size = 4
??0CHorizontalScale@@QAE@ABV0@@Z PROC			; CHorizontalScale::CHorizontalScale, COMDAT
; _this$ = ecx
  00000	55		 push	 ebp
  00001	8b ec		 mov	 ebp, esp
  00003	6a ff		 push	 -1
  00005	68 00 00 00 00	 push	 __ehhandler$??0CHorizontalScale@@QAE@ABV0@@Z
  0000a	64 a1 00 00 00
	00		 mov	 eax, DWORD PTR fs:0
  00010	50		 push	 eax
  00011	51		 push	 ecx
  00012	53		 push	 ebx
  00013	56		 push	 esi
  00014	57		 push	 edi
  00015	a1 00 00 00 00	 mov	 eax, DWORD PTR ___security_cookie
  0001a	33 c5		 xor	 eax, ebp
  0001c	50		 push	 eax
  0001d	8d 45 f4	 lea	 eax, DWORD PTR __$EHRec$[ebp]
  00020	64 a3 00 00 00
	00		 mov	 DWORD PTR fs:0, eax
  00026	8b f1		 mov	 esi, ecx
  00028	89 75 f0	 mov	 DWORD PTR _this$[ebp], esi
  0002b	8b 5d 08	 mov	 ebx, DWORD PTR ___that$[ebp]
  0002e	8d 4e 04	 lea	 ecx, DWORD PTR [esi+4]
  00031	c7 06 00 00 00
	00		 mov	 DWORD PTR [esi], OFFSET ??_7CScale@@6B@
  00037	8d 43 04	 lea	 eax, DWORD PTR [ebx+4]
  0003a	50		 push	 eax
  0003b	ff 15 00 00 00
	00		 call	 DWORD PTR __imp_??0?$CStringT@DV?$StrTraitMFC_DLL@DV?$ChTraitsCRT@D@ATL@@@@@ATL@@QAE@ABV01@@Z
  00041	8b 43 08	 mov	 eax, DWORD PTR [ebx+8]
  00044	89 46 08	 mov	 DWORD PTR [esi+8], eax
  00047	c7 06 00 00 00
	00		 mov	 DWORD PTR [esi], OFFSET ??_7CHorizontalScale@@6B@
  0004d	8d 7b 10	 lea	 edi, DWORD PTR [ebx+16]
  00050	8b 43 0c	 mov	 eax, DWORD PTR [ebx+12]
  00053	89 46 0c	 mov	 DWORD PTR [esi+12], eax
  00056	83 c6 10	 add	 esi, 16			; 00000010H
  00059	57		 push	 edi
  0005a	8b ce		 mov	 ecx, esi
  0005c	c7 45 fc 00 00
	00 00		 mov	 DWORD PTR __$EHRec$[ebp+8], 0
  00063	89 75 08	 mov	 DWORD PTR _this$[ebp], esi
  00066	ff 15 00 00 00
	00		 call	 DWORD PTR __imp_??0?$CStringT@DV?$StrTraitMFC_DLL@DV?$ChTraitsCRT@D@ATL@@@@@ATL@@QAE@ABV01@@Z
  0006c	8d 47 04	 lea	 eax, DWORD PTR [edi+4]
  0006f	c6 45 fc 01	 mov	 BYTE PTR __$EHRec$[ebp+8], 1
  00073	50		 push	 eax
  00074	8d 4e 04	 lea	 ecx, DWORD PTR [esi+4]
  00077	ff 15 00 00 00
	00		 call	 DWORD PTR __imp_??0?$CStringT@DV?$StrTraitMFC_DLL@DV?$ChTraitsCRT@D@ATL@@@@@ATL@@QAE@ABV01@@Z
  0007d	8b 4d f0	 mov	 ecx, DWORD PTR _this$[ebp]
  00080	8b 47 08	 mov	 eax, DWORD PTR [edi+8]
  00083	89 46 08	 mov	 DWORD PTR [esi+8], eax
  00086	8b 43 1c	 mov	 eax, DWORD PTR [ebx+28]
  00089	89 41 1c	 mov	 DWORD PTR [ecx+28], eax
  0008c	8b 43 20	 mov	 eax, DWORD PTR [ebx+32]
  0008f	89 41 20	 mov	 DWORD PTR [ecx+32], eax
  00092	8b 43 24	 mov	 eax, DWORD PTR [ebx+36]
  00095	89 41 24	 mov	 DWORD PTR [ecx+36], eax
  00098	8b 43 28	 mov	 eax, DWORD PTR [ebx+40]
  0009b	89 41 28	 mov	 DWORD PTR [ecx+40], eax
  0009e	8b 43 2c	 mov	 eax, DWORD PTR [ebx+44]
  000a1	89 41 2c	 mov	 DWORD PTR [ecx+44], eax
  000a4	8b 43 30	 mov	 eax, DWORD PTR [ebx+48]
  000a7	89 41 30	 mov	 DWORD PTR [ecx+48], eax
  000aa	8b 43 34	 mov	 eax, DWORD PTR [ebx+52]
  000ad	89 41 34	 mov	 DWORD PTR [ecx+52], eax
  000b0	8b 43 38	 mov	 eax, DWORD PTR [ebx+56]
  000b3	89 41 38	 mov	 DWORD PTR [ecx+56], eax
  000b6	8b 43 3c	 mov	 eax, DWORD PTR [ebx+60]
  000b9	89 41 3c	 mov	 DWORD PTR [ecx+60], eax
  000bc	8b 43 40	 mov	 eax, DWORD PTR [ebx+64]
  000bf	89 41 40	 mov	 DWORD PTR [ecx+64], eax
  000c2	8b 43 44	 mov	 eax, DWORD PTR [ebx+68]
  000c5	89 41 44	 mov	 DWORD PTR [ecx+68], eax
  000c8	8b 43 48	 mov	 eax, DWORD PTR [ebx+72]
  000cb	89 41 48	 mov	 DWORD PTR [ecx+72], eax
  000ce	0f b7 43 4c	 movzx	 eax, WORD PTR [ebx+76]
  000d2	66 89 41 4c	 mov	 WORD PTR [ecx+76], ax
  000d6	0f b7 43 4e	 movzx	 eax, WORD PTR [ebx+78]
  000da	66 89 41 4e	 mov	 WORD PTR [ecx+78], ax
  000de	0f b7 43 50	 movzx	 eax, WORD PTR [ebx+80]
  000e2	66 89 41 50	 mov	 WORD PTR [ecx+80], ax
  000e6	0f b7 43 52	 movzx	 eax, WORD PTR [ebx+82]
  000ea	66 89 41 52	 mov	 WORD PTR [ecx+82], ax
  000ee	8b 43 54	 mov	 eax, DWORD PTR [ebx+84]
  000f1	89 41 54	 mov	 DWORD PTR [ecx+84], eax
  000f4	8b 43 58	 mov	 eax, DWORD PTR [ebx+88]
  000f7	89 41 58	 mov	 DWORD PTR [ecx+88], eax
  000fa	8b 43 5c	 mov	 eax, DWORD PTR [ebx+92]
  000fd	89 41 5c	 mov	 DWORD PTR [ecx+92], eax
  00100	8b 43 60	 mov	 eax, DWORD PTR [ebx+96]
  00103	89 41 60	 mov	 DWORD PTR [ecx+96], eax
  00106	8b c1		 mov	 eax, ecx
  00108	8b 4d f4	 mov	 ecx, DWORD PTR __$EHRec$[ebp]
  0010b	64 89 0d 00 00
	00 00		 mov	 DWORD PTR fs:0, ecx
  00112	59		 pop	 ecx
  00113	5f		 pop	 edi
  00114	5e		 pop	 esi
  00115	5b		 pop	 ebx
  00116	8b e5		 mov	 esp, ebp
  00118	5d		 pop	 ebp
  00119	c2 04 00	 ret	 4
_TEXT	ENDS
;	COMDAT text$x
text$x	SEGMENT
__unwindfunclet$??0CHorizontalScale@@QAE@ABV0@@Z$0:
  00000	8b 4d f0	 mov	 ecx, DWORD PTR _this$[ebp]
  00003	e9 00 00 00 00	 jmp	 ??1CScale@@QAE@XZ
__unwindfunclet$??0CHorizontalScale@@QAE@ABV0@@Z$3:
  00008	8b 4d 08	 mov	 ecx, DWORD PTR _this$[ebp]
  0000b	ff 25 00 00 00
	00		 jmp	 DWORD PTR __imp_??1?$CStringT@DV?$StrTraitMFC_DLL@DV?$ChTraitsCRT@D@ATL@@@@@ATL@@QAE@XZ
  00011	cc		 int	 3
  00012	cc		 int	 3
  00013	cc		 int	 3
  00014	cc		 int	 3
  00015	cc		 int	 3
__ehhandler$??0CHorizontalScale@@QAE@ABV0@@Z:
  00016	90		 npad	 1
  00017	90		 npad	 1
  00018	8b 54 24 08	 mov	 edx, DWORD PTR [esp+8]
  0001c	8d 42 0c	 lea	 eax, DWORD PTR [edx+12]
  0001f	8b 4a ec	 mov	 ecx, DWORD PTR [edx-20]
  00022	33 c8		 xor	 ecx, eax
  00024	e8 00 00 00 00	 call	 @__security_check_cookie@4
  00029	b8 00 00 00 00	 mov	 eax, OFFSET __ehfuncinfo$??0CHorizontalScale@@QAE@ABV0@@Z
  0002e	e9 00 00 00 00	 jmp	 ___CxxFrameHandler3
text$x	ENDS
??0CHorizontalScale@@QAE@ABV0@@Z ENDP			; CHorizontalScale::CHorizontalScale
; Function compile flags: /Ogtp
;	COMDAT ??1CHorizontalScale@@QAE@XZ
_TEXT	SEGMENT
??1CHorizontalScale@@QAE@XZ PROC			; CHorizontalScale::~CHorizontalScale, COMDAT
; _this$ = ecx
  00000	56		 push	 esi
  00001	57		 push	 edi
  00002	8b f9		 mov	 edi, ecx
  00004	8d 4f 14	 lea	 ecx, DWORD PTR [edi+20]
  00007	ff 15 00 00 00
	00		 call	 DWORD PTR __imp_??1?$CStringT@DV?$StrTraitMFC_DLL@DV?$ChTraitsCRT@D@ATL@@@@@ATL@@QAE@XZ
  0000d	8d 4f 10	 lea	 ecx, DWORD PTR [edi+16]
  00010	ff 15 00 00 00
	00		 call	 DWORD PTR __imp_??1?$CStringT@DV?$StrTraitMFC_DLL@DV?$ChTraitsCRT@D@ATL@@@@@ATL@@QAE@XZ
  00016	8d 4f 04	 lea	 ecx, DWORD PTR [edi+4]
  00019	5f		 pop	 edi
  0001a	5e		 pop	 esi
  0001b	ff 25 00 00 00
	00		 jmp	 DWORD PTR __imp_??1?$CStringT@DV?$StrTraitMFC_DLL@DV?$ChTraitsCRT@D@ATL@@@@@ATL@@QAE@XZ
??1CHorizontalScale@@QAE@XZ ENDP			; CHorizontalScale::~CHorizontalScale
_TEXT	ENDS
; Function compile flags: /Ogtp
;	COMDAT ??0CScale@@QAE@ABV0@@Z
_TEXT	SEGMENT
_this$ = -4						; size = 4
___that$ = 8						; size = 4
??0CScale@@QAE@ABV0@@Z PROC				; CScale::CScale, COMDAT
; _this$ = ecx
  00000	55		 push	 ebp
  00001	8b ec		 mov	 ebp, esp
  00003	51		 push	 ecx
  00004	56		 push	 esi
  00005	8b 75 08	 mov	 esi, DWORD PTR ___that$[ebp]
  00008	57		 push	 edi
  00009	8b f9		 mov	 edi, ecx
  0000b	89 7d fc	 mov	 DWORD PTR _this$[ebp], edi
  0000e	8d 46 04	 lea	 eax, DWORD PTR [esi+4]
  00011	50		 push	 eax
  00012	8d 4f 04	 lea	 ecx, DWORD PTR [edi+4]
  00015	c7 07 00 00 00
	00		 mov	 DWORD PTR [edi], OFFSET ??_7CScale@@6B@
  0001b	ff 15 00 00 00
	00		 call	 DWORD PTR __imp_??0?$CStringT@DV?$StrTraitMFC_DLL@DV?$ChTraitsCRT@D@ATL@@@@@ATL@@QAE@ABV01@@Z
  00021	8b 46 08	 mov	 eax, DWORD PTR [esi+8]
  00024	89 47 08	 mov	 DWORD PTR [edi+8], eax
  00027	8b c7		 mov	 eax, edi
  00029	5f		 pop	 edi
  0002a	5e		 pop	 esi
  0002b	8b e5		 mov	 esp, ebp
  0002d	5d		 pop	 ebp
  0002e	c2 04 00	 ret	 4
??0CScale@@QAE@ABV0@@Z ENDP				; CScale::CScale
_TEXT	ENDS
; Function compile flags: /Ogtp
;	COMDAT ??1CScale@@QAE@XZ
_TEXT	SEGMENT
??1CScale@@QAE@XZ PROC					; CScale::~CScale, COMDAT
; _this$ = ecx
  00000	83 c1 04	 add	 ecx, 4
  00003	ff 25 00 00 00
	00		 jmp	 DWORD PTR __imp_??1?$CStringT@DV?$StrTraitMFC_DLL@DV?$ChTraitsCRT@D@ATL@@@@@ATL@@QAE@XZ
??1CScale@@QAE@XZ ENDP					; CScale::~CScale
_TEXT	ENDS
; Function compile flags: /Ogtp
;	COMDAT ??0CScaleCompart@@QAE@ABV0@@Z
_TEXT	SEGMENT
_this$ = -16						; size = 4
__$EHRec$ = -12						; size = 12
___that$ = 8						; size = 4
??0CScaleCompart@@QAE@ABV0@@Z PROC			; CScaleCompart::CScaleCompart, COMDAT
; _this$ = ecx
  00000	55		 push	 ebp
  00001	8b ec		 mov	 ebp, esp
  00003	6a ff		 push	 -1
  00005	68 00 00 00 00	 push	 __ehhandler$??0CScaleCompart@@QAE@ABV0@@Z
  0000a	64 a1 00 00 00
	00		 mov	 eax, DWORD PTR fs:0
  00010	50		 push	 eax
  00011	51		 push	 ecx
  00012	56		 push	 esi
  00013	57		 push	 edi
  00014	a1 00 00 00 00	 mov	 eax, DWORD PTR ___security_cookie
  00019	33 c5		 xor	 eax, ebp
  0001b	50		 push	 eax
  0001c	8d 45 f4	 lea	 eax, DWORD PTR __$EHRec$[ebp]
  0001f	64 a3 00 00 00
	00		 mov	 DWORD PTR fs:0, eax
  00025	8b f9		 mov	 edi, ecx
  00027	89 7d f0	 mov	 DWORD PTR _this$[ebp], edi
  0002a	8b 75 08	 mov	 esi, DWORD PTR ___that$[ebp]
  0002d	56		 push	 esi
  0002e	ff 15 00 00 00
	00		 call	 DWORD PTR __imp_??0?$CStringT@DV?$StrTraitMFC_DLL@DV?$ChTraitsCRT@D@ATL@@@@@ATL@@QAE@ABV01@@Z
  00034	8d 46 04	 lea	 eax, DWORD PTR [esi+4]
  00037	c7 45 fc 00 00
	00 00		 mov	 DWORD PTR __$EHRec$[ebp+8], 0
  0003e	50		 push	 eax
  0003f	8d 4f 04	 lea	 ecx, DWORD PTR [edi+4]
  00042	ff 15 00 00 00
	00		 call	 DWORD PTR __imp_??0?$CStringT@DV?$StrTraitMFC_DLL@DV?$ChTraitsCRT@D@ATL@@@@@ATL@@QAE@ABV01@@Z
  00048	8b 46 08	 mov	 eax, DWORD PTR [esi+8]
  0004b	89 47 08	 mov	 DWORD PTR [edi+8], eax
  0004e	8b c7		 mov	 eax, edi
  00050	8b 4d f4	 mov	 ecx, DWORD PTR __$EHRec$[ebp]
  00053	64 89 0d 00 00
	00 00		 mov	 DWORD PTR fs:0, ecx
  0005a	59		 pop	 ecx
  0005b	5f		 pop	 edi
  0005c	5e		 pop	 esi
  0005d	8b e5		 mov	 esp, ebp
  0005f	5d		 pop	 ebp
  00060	c2 04 00	 ret	 4
_TEXT	ENDS
;	COMDAT text$x
text$x	SEGMENT
__unwindfunclet$??0CScaleCompart@@QAE@ABV0@@Z$0:
  00000	8b 4d f0	 mov	 ecx, DWORD PTR _this$[ebp]
  00003	ff 25 00 00 00
	00		 jmp	 DWORD PTR __imp_??1?$CStringT@DV?$StrTraitMFC_DLL@DV?$ChTraitsCRT@D@ATL@@@@@ATL@@QAE@XZ
  00009	cc		 int	 3
  0000a	cc		 int	 3
  0000b	cc		 int	 3
  0000c	cc		 int	 3
  0000d	cc		 int	 3
__ehhandler$??0CScaleCompart@@QAE@ABV0@@Z:
  0000e	90		 npad	 1
  0000f	90		 npad	 1
  00010	8b 54 24 08	 mov	 edx, DWORD PTR [esp+8]
  00014	8d 42 0c	 lea	 eax, DWORD PTR [edx+12]
  00017	8b 4a f0	 mov	 ecx, DWORD PTR [edx-16]
  0001a	33 c8		 xor	 ecx, eax
  0001c	e8 00 00 00 00	 call	 @__security_check_cookie@4
  00021	b8 00 00 00 00	 mov	 eax, OFFSET __ehfuncinfo$??0CScaleCompart@@QAE@ABV0@@Z
  00026	e9 00 00 00 00	 jmp	 ___CxxFrameHandler3
text$x	ENDS
??0CScaleCompart@@QAE@ABV0@@Z ENDP			; CScaleCompart::CScaleCompart
; Function compile flags: /Ogtp
;	COMDAT ??1CScaleCompart@@QAE@XZ
_TEXT	SEGMENT
??1CScaleCompart@@QAE@XZ PROC				; CScaleCompart::~CScaleCompart, COMDAT
; _this$ = ecx
  00000	56		 push	 esi
  00001	8b f1		 mov	 esi, ecx
  00003	8d 4e 04	 lea	 ecx, DWORD PTR [esi+4]
  00006	ff 15 00 00 00
	00		 call	 DWORD PTR __imp_??1?$CStringT@DV?$StrTraitMFC_DLL@DV?$ChTraitsCRT@D@ATL@@@@@ATL@@QAE@XZ
  0000c	8b ce		 mov	 ecx, esi
  0000e	5e		 pop	 esi
  0000f	ff 25 00 00 00
	00		 jmp	 DWORD PTR __imp_??1?$CStringT@DV?$StrTraitMFC_DLL@DV?$ChTraitsCRT@D@ATL@@@@@ATL@@QAE@XZ
??1CScaleCompart@@QAE@XZ ENDP				; CScaleCompart::~CScaleCompart
_TEXT	ENDS
; Function compile flags: /Ogtp
;	COMDAT ??_ECIndicatorInfo@@UAEPAXI@Z
_TEXT	SEGMENT
__$EHRec$ = -12						; size = 12
___flags$ = 8						; size = 4
??_ECIndicatorInfo@@UAEPAXI@Z PROC			; CIndicatorInfo::`vector deleting destructor', COMDAT
; _this$ = ecx
  00000	55		 push	 ebp
  00001	8b ec		 mov	 ebp, esp
  00003	6a ff		 push	 -1
  00005	68 00 00 00 00	 push	 __ehhandler$??_ECIndicatorInfo@@UAEPAXI@Z
  0000a	64 a1 00 00 00
	00		 mov	 eax, DWORD PTR fs:0
  00010	50		 push	 eax
  00011	53		 push	 ebx
  00012	56		 push	 esi
  00013	57		 push	 edi
  00014	a1 00 00 00 00	 mov	 eax, DWORD PTR ___security_cookie
  00019	33 c5		 xor	 eax, ebp
  0001b	50		 push	 eax
  0001c	8d 45 f4	 lea	 eax, DWORD PTR __$EHRec$[ebp]
  0001f	64 a3 00 00 00
	00		 mov	 DWORD PTR fs:0, eax
  00025	8b f1		 mov	 esi, ecx
  00027	8b 45 08	 mov	 eax, DWORD PTR ___flags$[ebp]
  0002a	8b d8		 mov	 ebx, eax
  0002c	83 e3 01	 and	 ebx, 1
  0002f	a8 02		 test	 al, 2
  00031	74 40		 je	 SHORT $LN2@vector
  00033	68 00 00 00 00	 push	 OFFSET ??1CIndicatorInfo@@UAE@XZ ; CIndicatorInfo::~CIndicatorInfo
  00038	ff 76 fc	 push	 DWORD PTR [esi-4]
  0003b	8d 7e fc	 lea	 edi, DWORD PTR [esi-4]
  0003e	6a 08		 push	 8
  00040	56		 push	 esi
  00041	e8 00 00 00 00	 call	 ??_M@YGXPAXIIP6EX0@Z@Z
  00046	85 db		 test	 ebx, ebx
  00048	74 13		 je	 SHORT $LN3@vector
  0004a	8b 0f		 mov	 ecx, DWORD PTR [edi]
  0004c	8d 0c cd 04 00
	00 00		 lea	 ecx, DWORD PTR [ecx*8+4]
  00053	51		 push	 ecx
  00054	57		 push	 edi
  00055	e8 00 00 00 00	 call	 ??_V@YAXPAXI@Z		; operator delete[]
  0005a	83 c4 08	 add	 esp, 8
$LN3@vector:
  0005d	8b c7		 mov	 eax, edi
  0005f	8b 4d f4	 mov	 ecx, DWORD PTR __$EHRec$[ebp]
  00062	64 89 0d 00 00
	00 00		 mov	 DWORD PTR fs:0, ecx
  00069	59		 pop	 ecx
  0006a	5f		 pop	 edi
  0006b	5e		 pop	 esi
  0006c	5b		 pop	 ebx
  0006d	8b e5		 mov	 esp, ebp
  0006f	5d		 pop	 ebp
  00070	c2 04 00	 ret	 4
$LN2@vector:
  00073	e8 00 00 00 00	 call	 ??1CIndicatorInfo@@UAE@XZ ; CIndicatorInfo::~CIndicatorInfo
  00078	85 db		 test	 ebx, ebx
  0007a	74 0b		 je	 SHORT $LN4@vector
  0007c	6a 08		 push	 8
  0007e	56		 push	 esi
  0007f	e8 00 00 00 00	 call	 ??3@YAXPAXI@Z		; operator delete
  00084	83 c4 08	 add	 esp, 8
$LN4@vector:
  00087	8b c6		 mov	 eax, esi
  00089	8b 4d f4	 mov	 ecx, DWORD PTR __$EHRec$[ebp]
  0008c	64 89 0d 00 00
	00 00		 mov	 DWORD PTR fs:0, ecx
  00093	59		 pop	 ecx
  00094	5f		 pop	 edi
  00095	5e		 pop	 esi
  00096	5b		 pop	 ebx
  00097	8b e5		 mov	 esp, ebp
  00099	5d		 pop	 ebp
  0009a	c2 04 00	 ret	 4
  0009d	cc		 int	 3
  0009e	cc		 int	 3
  0009f	cc		 int	 3
  000a0	cc		 int	 3
  000a1	cc		 int	 3
_TEXT	ENDS
;	COMDAT text$x
text$x	SEGMENT
__ehhandler$??_ECIndicatorInfo@@UAEPAXI@Z:
  00000	90		 npad	 1
  00001	90		 npad	 1
  00002	8b 54 24 08	 mov	 edx, DWORD PTR [esp+8]
  00006	8d 42 0c	 lea	 eax, DWORD PTR [edx+12]
  00009	8b 4a f0	 mov	 ecx, DWORD PTR [edx-16]
  0000c	33 c8		 xor	 ecx, eax
  0000e	e8 00 00 00 00	 call	 @__security_check_cookie@4
  00013	b8 00 00 00 00	 mov	 eax, OFFSET __ehfuncinfo$??_ECIndicatorInfo@@UAEPAXI@Z
  00018	e9 00 00 00 00	 jmp	 ___CxxFrameHandler3
text$x	ENDS
??_ECIndicatorInfo@@UAEPAXI@Z ENDP			; CIndicatorInfo::`vector deleting destructor'
; Function compile flags: /Ogtp
;	COMDAT ??_GCIndicatorInfo@@UAEPAXI@Z
_TEXT	SEGMENT
___flags$ = 8						; size = 4
??_GCIndicatorInfo@@UAEPAXI@Z PROC			; CIndicatorInfo::`scalar deleting destructor', COMDAT
; _this$ = ecx
  00000	55		 push	 ebp
  00001	8b ec		 mov	 ebp, esp
  00003	56		 push	 esi
  00004	8b f1		 mov	 esi, ecx
  00006	e8 00 00 00 00	 call	 ??1CIndicatorInfo@@UAE@XZ ; CIndicatorInfo::~CIndicatorInfo
  0000b	f6 45 08 01	 test	 BYTE PTR ___flags$[ebp], 1
  0000f	74 0b		 je	 SHORT $LN4@scalar
  00011	6a 08		 push	 8
  00013	56		 push	 esi
  00014	e8 00 00 00 00	 call	 ??3@YAXPAXI@Z		; operator delete
  00019	83 c4 08	 add	 esp, 8
$LN4@scalar:
  0001c	8b c6		 mov	 eax, esi
  0001e	5e		 pop	 esi
  0001f	5d		 pop	 ebp
  00020	c2 04 00	 ret	 4
??_GCIndicatorInfo@@UAEPAXI@Z ENDP			; CIndicatorInfo::`scalar deleting destructor'
_TEXT	ENDS
; Function compile flags: /Ogtp
;	COMDAT ??4CIndicatorInfo@@QAEAAV0@ABV0@@Z
_TEXT	SEGMENT
___that$ = 8						; size = 4
??4CIndicatorInfo@@QAEAAV0@ABV0@@Z PROC			; CIndicatorInfo::operator=, COMDAT
; _this$ = ecx
  00000	55		 push	 ebp
  00001	8b ec		 mov	 ebp, esp
  00003	8b 45 08	 mov	 eax, DWORD PTR ___that$[ebp]
  00006	8b 40 04	 mov	 eax, DWORD PTR [eax+4]
  00009	89 41 04	 mov	 DWORD PTR [ecx+4], eax
  0000c	8b c1		 mov	 eax, ecx
  0000e	5d		 pop	 ebp
  0000f	c2 04 00	 ret	 4
??4CIndicatorInfo@@QAEAAV0@ABV0@@Z ENDP			; CIndicatorInfo::operator=
_TEXT	ENDS
; Function compile flags: /Ogtp
;	COMDAT ??0CIndicatorInfo@@QAE@ABV0@@Z
_TEXT	SEGMENT
___that$ = 8						; size = 4
??0CIndicatorInfo@@QAE@ABV0@@Z PROC			; CIndicatorInfo::CIndicatorInfo, COMDAT
; _this$ = ecx
  00000	55		 push	 ebp
  00001	8b ec		 mov	 ebp, esp
  00003	8b 45 08	 mov	 eax, DWORD PTR ___that$[ebp]
  00006	c7 01 00 00 00
	00		 mov	 DWORD PTR [ecx], OFFSET ??_7CIndicatorInfo@@6B@
  0000c	8b 40 04	 mov	 eax, DWORD PTR [eax+4]
  0000f	89 41 04	 mov	 DWORD PTR [ecx+4], eax
  00012	8b c1		 mov	 eax, ecx
  00014	5d		 pop	 ebp
  00015	c2 04 00	 ret	 4
??0CIndicatorInfo@@QAE@ABV0@@Z ENDP			; CIndicatorInfo::CIndicatorInfo
_TEXT	ENDS
; Function compile flags: /Ogtp
;	COMDAT ??_ECIndicatorList@@UAEPAXI@Z
_TEXT	SEGMENT
__$EHRec$ = -12						; size = 12
___flags$ = 8						; size = 4
??_ECIndicatorList@@UAEPAXI@Z PROC			; CIndicatorList::`vector deleting destructor', COMDAT
; _this$ = ecx
  00000	55		 push	 ebp
  00001	8b ec		 mov	 ebp, esp
  00003	6a ff		 push	 -1
  00005	68 00 00 00 00	 push	 __ehhandler$??_ECIndicatorList@@UAEPAXI@Z
  0000a	64 a1 00 00 00
	00		 mov	 eax, DWORD PTR fs:0
  00010	50		 push	 eax
  00011	53		 push	 ebx
  00012	56		 push	 esi
  00013	57		 push	 edi
  00014	a1 00 00 00 00	 mov	 eax, DWORD PTR ___security_cookie
  00019	33 c5		 xor	 eax, ebp
  0001b	50		 push	 eax
  0001c	8d 45 f4	 lea	 eax, DWORD PTR __$EHRec$[ebp]
  0001f	64 a3 00 00 00
	00		 mov	 DWORD PTR fs:0, eax
  00025	8b f1		 mov	 esi, ecx
  00027	8b 45 08	 mov	 eax, DWORD PTR ___flags$[ebp]
  0002a	8b d8		 mov	 ebx, eax
  0002c	83 e3 01	 and	 ebx, 1
  0002f	a8 02		 test	 al, 2
  00031	74 40		 je	 SHORT $LN2@vector
  00033	68 00 00 00 00	 push	 OFFSET ??1CIndicatorList@@UAE@XZ ; CIndicatorList::~CIndicatorList
  00038	ff 76 fc	 push	 DWORD PTR [esi-4]
  0003b	8d 7e fc	 lea	 edi, DWORD PTR [esi-4]
  0003e	6a 08		 push	 8
  00040	56		 push	 esi
  00041	e8 00 00 00 00	 call	 ??_M@YGXPAXIIP6EX0@Z@Z
  00046	85 db		 test	 ebx, ebx
  00048	74 13		 je	 SHORT $LN3@vector
  0004a	8b 0f		 mov	 ecx, DWORD PTR [edi]
  0004c	8d 0c cd 04 00
	00 00		 lea	 ecx, DWORD PTR [ecx*8+4]
  00053	51		 push	 ecx
  00054	57		 push	 edi
  00055	e8 00 00 00 00	 call	 ??_V@YAXPAXI@Z		; operator delete[]
  0005a	83 c4 08	 add	 esp, 8
$LN3@vector:
  0005d	8b c7		 mov	 eax, edi
  0005f	8b 4d f4	 mov	 ecx, DWORD PTR __$EHRec$[ebp]
  00062	64 89 0d 00 00
	00 00		 mov	 DWORD PTR fs:0, ecx
  00069	59		 pop	 ecx
  0006a	5f		 pop	 edi
  0006b	5e		 pop	 esi
  0006c	5b		 pop	 ebx
  0006d	8b e5		 mov	 esp, ebp
  0006f	5d		 pop	 ebp
  00070	c2 04 00	 ret	 4
$LN2@vector:
  00073	e8 00 00 00 00	 call	 ??1CIndicatorList@@UAE@XZ ; CIndicatorList::~CIndicatorList
  00078	85 db		 test	 ebx, ebx
  0007a	74 0b		 je	 SHORT $LN4@vector
  0007c	6a 08		 push	 8
  0007e	56		 push	 esi
  0007f	e8 00 00 00 00	 call	 ??3@YAXPAXI@Z		; operator delete
  00084	83 c4 08	 add	 esp, 8
$LN4@vector:
  00087	8b c6		 mov	 eax, esi
  00089	8b 4d f4	 mov	 ecx, DWORD PTR __$EHRec$[ebp]
  0008c	64 89 0d 00 00
	00 00		 mov	 DWORD PTR fs:0, ecx
  00093	59		 pop	 ecx
  00094	5f		 pop	 edi
  00095	5e		 pop	 esi
  00096	5b		 pop	 ebx
  00097	8b e5		 mov	 esp, ebp
  00099	5d		 pop	 ebp
  0009a	c2 04 00	 ret	 4
  0009d	cc		 int	 3
  0009e	cc		 int	 3
  0009f	cc		 int	 3
  000a0	cc		 int	 3
  000a1	cc		 int	 3
_TEXT	ENDS
;	COMDAT text$x
text$x	SEGMENT
__ehhandler$??_ECIndicatorList@@UAEPAXI@Z:
  00000	90		 npad	 1
  00001	90		 npad	 1
  00002	8b 54 24 08	 mov	 edx, DWORD PTR [esp+8]
  00006	8d 42 0c	 lea	 eax, DWORD PTR [edx+12]
  00009	8b 4a f0	 mov	 ecx, DWORD PTR [edx-16]
  0000c	33 c8		 xor	 ecx, eax
  0000e	e8 00 00 00 00	 call	 @__security_check_cookie@4
  00013	b8 00 00 00 00	 mov	 eax, OFFSET __ehfuncinfo$??_ECIndicatorList@@UAEPAXI@Z
  00018	e9 00 00 00 00	 jmp	 ___CxxFrameHandler3
text$x	ENDS
??_ECIndicatorList@@UAEPAXI@Z ENDP			; CIndicatorList::`vector deleting destructor'
; Function compile flags: /Ogtp
;	COMDAT ??_GCIndicatorList@@UAEPAXI@Z
_TEXT	SEGMENT
___flags$ = 8						; size = 4
??_GCIndicatorList@@UAEPAXI@Z PROC			; CIndicatorList::`scalar deleting destructor', COMDAT
; _this$ = ecx
  00000	55		 push	 ebp
  00001	8b ec		 mov	 ebp, esp
  00003	56		 push	 esi
  00004	8b f1		 mov	 esi, ecx
  00006	e8 00 00 00 00	 call	 ??1CIndicatorList@@UAE@XZ ; CIndicatorList::~CIndicatorList
  0000b	f6 45 08 01	 test	 BYTE PTR ___flags$[ebp], 1
  0000f	74 0b		 je	 SHORT $LN4@scalar
  00011	6a 08		 push	 8
  00013	56		 push	 esi
  00014	e8 00 00 00 00	 call	 ??3@YAXPAXI@Z		; operator delete
  00019	83 c4 08	 add	 esp, 8
$LN4@scalar:
  0001c	8b c6		 mov	 eax, esi
  0001e	5e		 pop	 esi
  0001f	5d		 pop	 ebp
  00020	c2 04 00	 ret	 4
??_GCIndicatorList@@UAEPAXI@Z ENDP			; CIndicatorList::`scalar deleting destructor'
_TEXT	ENDS
; Function compile flags: /Ogtp
;	COMDAT ??4CIndicatorList@@QAEAAV0@ABV0@@Z
_TEXT	SEGMENT
___that$ = 8						; size = 4
??4CIndicatorList@@QAEAAV0@ABV0@@Z PROC			; CIndicatorList::operator=, COMDAT
; _this$ = ecx
  00000	55		 push	 ebp
  00001	8b ec		 mov	 ebp, esp
  00003	8b 45 08	 mov	 eax, DWORD PTR ___that$[ebp]
  00006	8b 40 04	 mov	 eax, DWORD PTR [eax+4]
  00009	89 41 04	 mov	 DWORD PTR [ecx+4], eax
  0000c	8b c1		 mov	 eax, ecx
  0000e	5d		 pop	 ebp
  0000f	c2 04 00	 ret	 4
??4CIndicatorList@@QAEAAV0@ABV0@@Z ENDP			; CIndicatorList::operator=
_TEXT	ENDS
; Function compile flags: /Ogtp
;	COMDAT ??0CIndicatorList@@QAE@ABV0@@Z
_TEXT	SEGMENT
___that$ = 8						; size = 4
??0CIndicatorList@@QAE@ABV0@@Z PROC			; CIndicatorList::CIndicatorList, COMDAT
; _this$ = ecx
  00000	55		 push	 ebp
  00001	8b ec		 mov	 ebp, esp
  00003	8b 45 08	 mov	 eax, DWORD PTR ___that$[ebp]
  00006	c7 01 00 00 00
	00		 mov	 DWORD PTR [ecx], OFFSET ??_7CIndicatorList@@6B@
  0000c	8b 40 04	 mov	 eax, DWORD PTR [eax+4]
  0000f	89 41 04	 mov	 DWORD PTR [ecx+4], eax
  00012	8b c1		 mov	 eax, ecx
  00014	5d		 pop	 ebp
  00015	c2 04 00	 ret	 4
??0CIndicatorList@@QAE@ABV0@@Z ENDP			; CIndicatorList::CIndicatorList
_TEXT	ENDS
; Function compile flags: /Ogtp
; File D:\git\src\IBK\IBK_DRFN\ProjSrc\SrcChartEx\ChartOCX\ScaleDraw\SpecialScaleDrawer.cpp
;	COMDAT ?GetPacketType@CMarketProfileVertScaleDrawer@@ABE?AV?$CStringT@DV?$StrTraitMFC_DLL@DV?$ChTraitsCRT@D@ATL@@@@@ATL@@PAVCPacket@@@Z
_TEXT	SEGMENT
___$ReturnUdt$ = 8					; size = 4
_pPacket$ = 12						; size = 4
?GetPacketType@CMarketProfileVertScaleDrawer@@ABE?AV?$CStringT@DV?$StrTraitMFC_DLL@DV?$ChTraitsCRT@D@ATL@@@@@ATL@@PAVCPacket@@@Z PROC ; CMarketProfileVertScaleDrawer::GetPacketType, COMDAT
; _this$ = ecx

; 312  : {

  00000	55		 push	 ebp
  00001	8b ec		 mov	 ebp, esp

; 313  : 	if(pPacket == NULL)

  00003	8b 4d 0c	 mov	 ecx, DWORD PTR _pPacket$[ebp]
  00006	56		 push	 esi
  00007	85 c9		 test	 ecx, ecx
  00009	75 16		 jne	 SHORT $LN2@GetPacketT

; 314  : 		return "x0.01";

  0000b	8b 4d 08	 mov	 ecx, DWORD PTR ___$ReturnUdt$[ebp]
  0000e	68 00 00 00 00	 push	 OFFSET ??_C@_05KKLGFDFJ@x0?401@
  00013	ff 15 00 00 00
	00		 call	 DWORD PTR __imp_??0?$CStringT@DV?$StrTraitMFC_DLL@DV?$ChTraitsCRT@D@ATL@@@@@ATL@@QAE@PBD@Z
  00019	8b 45 08	 mov	 eax, DWORD PTR ___$ReturnUdt$[ebp]
  0001c	5e		 pop	 esi

; 316  : }

  0001d	5d		 pop	 ebp
  0001e	c2 08 00	 ret	 8
$LN2@GetPacketT:

; 315  : 	return pPacket->GetType();

  00021	8b 75 08	 mov	 esi, DWORD PTR ___$ReturnUdt$[ebp]
  00024	6a 01		 push	 1
  00026	56		 push	 esi
  00027	ff 15 00 00 00
	00		 call	 DWORD PTR __imp_?GetType@CPacket@@QAE?AV?$CStringT@DV?$StrTraitMFC_DLL@DV?$ChTraitsCRT@D@ATL@@@@@ATL@@_N@Z
  0002d	8b c6		 mov	 eax, esi
  0002f	5e		 pop	 esi

; 316  : }

  00030	5d		 pop	 ebp
  00031	c2 08 00	 ret	 8
?GetPacketType@CMarketProfileVertScaleDrawer@@ABE?AV?$CStringT@DV?$StrTraitMFC_DLL@DV?$ChTraitsCRT@D@ATL@@@@@ATL@@PAVCPacket@@@Z ENDP ; CMarketProfileVertScaleDrawer::GetPacketType
_TEXT	ENDS
; Function compile flags: /Ogtp
; File D:\git\src\IBK\IBK_DRFN\ProjSrc\SrcChartEx\ChartOCX\ScaleDraw\SpecialScaleDrawer.cpp
;	COMDAT ?DrawTextOrGrid_Both@CMarketProfileVertScaleDrawer@@UAEXPAVCDC@@ABVCDrawingVertScaleData@@ABVCVertScaleRegion@@ABVCVerticalScale@@@Z
_TEXT	SEGMENT
$T2 = -16						; size = 4
__$EHRec$ = -12						; size = 12
_pDC$ = 8						; size = 4
_drawingVertScaleData$ = 12				; size = 4
_vertScaleRegion$ = 16					; size = 4
_vertScale$ = 20					; size = 4
?DrawTextOrGrid_Both@CMarketProfileVertScaleDrawer@@UAEXPAVCDC@@ABVCDrawingVertScaleData@@ABVCVertScaleRegion@@ABVCVerticalScale@@@Z PROC ; CMarketProfileVertScaleDrawer::DrawTextOrGrid_Both, COMDAT
; _this$ = ecx

; 305  : {

  00000	55		 push	 ebp
  00001	8b ec		 mov	 ebp, esp
  00003	6a ff		 push	 -1
  00005	68 00 00 00 00	 push	 __ehhandler$?DrawTextOrGrid_Both@CMarketProfileVertScaleDrawer@@UAEXPAVCDC@@ABVCDrawingVertScaleData@@ABVCVertScaleRegion@@ABVCVerticalScale@@@Z
  0000a	64 a1 00 00 00
	00		 mov	 eax, DWORD PTR fs:0
  00010	50		 push	 eax
  00011	51		 push	 ecx
  00012	57		 push	 edi
  00013	a1 00 00 00 00	 mov	 eax, DWORD PTR ___security_cookie
  00018	33 c5		 xor	 eax, ebp
  0001a	50		 push	 eax
  0001b	8d 45 f4	 lea	 eax, DWORD PTR __$EHRec$[ebp]
  0001e	64 a3 00 00 00
	00		 mov	 DWORD PTR fs:0, eax
  00024	8b f9		 mov	 edi, ecx

; 306  : 	CPriceScaleDrawer::DrawTextOrGrid_Both(pDC, drawingVertScaleData, vertScaleRegion, 

  00026	8b 4d 0c	 mov	 ecx, DWORD PTR _drawingVertScaleData$[ebp]
  00029	e8 00 00 00 00	 call	 ?GetPacket@CDrawingVertScaleData@@QBEPAVCPacket@@XZ ; CDrawingVertScaleData::GetPacket

; 313  : 	if(pPacket == NULL)

  0002e	8d 4d f0	 lea	 ecx, DWORD PTR $T2[ebp]
  00031	85 c0		 test	 eax, eax
  00033	75 0d		 jne	 SHORT $LN5@DrawTextOr

; 314  : 		return "x0.01";

  00035	68 00 00 00 00	 push	 OFFSET ??_C@_05KKLGFDFJ@x0?401@
  0003a	ff 15 00 00 00
	00		 call	 DWORD PTR __imp_??0?$CStringT@DV?$StrTraitMFC_DLL@DV?$ChTraitsCRT@D@ATL@@@@@ATL@@QAE@PBD@Z
  00040	eb 0b		 jmp	 SHORT $LN4@DrawTextOr
$LN5@DrawTextOr:

; 315  : 	return pPacket->GetType();

  00042	6a 01		 push	 1
  00044	51		 push	 ecx
  00045	8b c8		 mov	 ecx, eax
  00047	ff 15 00 00 00
	00		 call	 DWORD PTR __imp_?GetType@CPacket@@QAE?AV?$CStringT@DV?$StrTraitMFC_DLL@DV?$ChTraitsCRT@D@ATL@@@@@ATL@@_N@Z
$LN4@DrawTextOr:

; 306  : 	CPriceScaleDrawer::DrawTextOrGrid_Both(pDC, drawingVertScaleData, vertScaleRegion, 

  0004d	8d 45 f0	 lea	 eax, DWORD PTR $T2[ebp]
  00050	c7 45 fc 00 00
	00 00		 mov	 DWORD PTR __$EHRec$[ebp+8], 0
  00057	50		 push	 eax
  00058	ff 75 14	 push	 DWORD PTR _vertScale$[ebp]
  0005b	8b cf		 mov	 ecx, edi
  0005d	ff 75 10	 push	 DWORD PTR _vertScaleRegion$[ebp]
  00060	ff 75 0c	 push	 DWORD PTR _drawingVertScaleData$[ebp]
  00063	ff 75 08	 push	 DWORD PTR _pDC$[ebp]
  00066	e8 00 00 00 00	 call	 ?DrawTextOrGrid_Both@CPriceScaleDrawer@@IAEXPAVCDC@@ABVCDrawingVertScaleData@@ABVCVertScaleRegion@@ABVCVerticalScale@@ABV?$CStringT@DV?$StrTraitMFC_DLL@DV?$ChTraitsCRT@D@ATL@@@@@ATL@@@Z ; CPriceScaleDrawer::DrawTextOrGrid_Both
  0006b	8d 4d f0	 lea	 ecx, DWORD PTR $T2[ebp]
  0006e	ff 15 00 00 00
	00		 call	 DWORD PTR __imp_??1?$CStringT@DV?$StrTraitMFC_DLL@DV?$ChTraitsCRT@D@ATL@@@@@ATL@@QAE@XZ

; 307  : 		vertScale, GetPacketType(drawingVertScaleData.GetPacket()));
; 308  : }

  00074	8b 4d f4	 mov	 ecx, DWORD PTR __$EHRec$[ebp]
  00077	64 89 0d 00 00
	00 00		 mov	 DWORD PTR fs:0, ecx
  0007e	59		 pop	 ecx
  0007f	5f		 pop	 edi
  00080	8b e5		 mov	 esp, ebp
  00082	5d		 pop	 ebp
  00083	c2 10 00	 ret	 16			; 00000010H
_TEXT	ENDS
;	COMDAT text$x
text$x	SEGMENT
__unwindfunclet$?DrawTextOrGrid_Both@CMarketProfileVertScaleDrawer@@UAEXPAVCDC@@ABVCDrawingVertScaleData@@ABVCVertScaleRegion@@ABVCVerticalScale@@@Z$0:
  00000	8d 4d f0	 lea	 ecx, DWORD PTR $T2[ebp]
  00003	ff 25 00 00 00
	00		 jmp	 DWORD PTR __imp_??1?$CStringT@DV?$StrTraitMFC_DLL@DV?$ChTraitsCRT@D@ATL@@@@@ATL@@QAE@XZ
  00009	cc		 int	 3
  0000a	cc		 int	 3
  0000b	cc		 int	 3
  0000c	cc		 int	 3
  0000d	cc		 int	 3
__ehhandler$?DrawTextOrGrid_Both@CMarketProfileVertScaleDrawer@@UAEXPAVCDC@@ABVCDrawingVertScaleData@@ABVCVertScaleRegion@@ABVCVerticalScale@@@Z:
  0000e	90		 npad	 1
  0000f	90		 npad	 1
  00010	8b 54 24 08	 mov	 edx, DWORD PTR [esp+8]
  00014	8d 42 0c	 lea	 eax, DWORD PTR [edx+12]
  00017	8b 4a f4	 mov	 ecx, DWORD PTR [edx-12]
  0001a	33 c8		 xor	 ecx, eax
  0001c	e8 00 00 00 00	 call	 @__security_check_cookie@4
  00021	b8 00 00 00 00	 mov	 eax, OFFSET __ehfuncinfo$?DrawTextOrGrid_Both@CMarketProfileVertScaleDrawer@@UAEXPAVCDC@@ABVCDrawingVertScaleData@@ABVCVertScaleRegion@@ABVCVerticalScale@@@Z
  00026	e9 00 00 00 00	 jmp	 ___CxxFrameHandler3
text$x	ENDS
?DrawTextOrGrid_Both@CMarketProfileVertScaleDrawer@@UAEXPAVCDC@@ABVCDrawingVertScaleData@@ABVCVertScaleRegion@@ABVCVerticalScale@@@Z ENDP ; CMarketProfileVertScaleDrawer::DrawTextOrGrid_Both
; Function compile flags: /Ogtp
; File D:\git\src\IBK\IBK_DRFN\ProjSrc\SrcChartEx\ChartOCX\ScaleDraw\SpecialScaleDrawer.cpp
;	COMDAT ?DrawTextOrGrid@CMarketProfileVertScaleDrawer@@UAEXPAVCDC@@ABVCDrawingVertScaleData@@ABVCScaleDrawingRegion@@ABVCVerticalScale@@@Z
_TEXT	SEGMENT
$T2 = -16						; size = 4
__$EHRec$ = -12						; size = 12
_pDC$ = 8						; size = 4
_drawingVertScaleData$ = 12				; size = 4
_scaleRegion$ = 16					; size = 4
_vertScale$ = 20					; size = 4
?DrawTextOrGrid@CMarketProfileVertScaleDrawer@@UAEXPAVCDC@@ABVCDrawingVertScaleData@@ABVCScaleDrawingRegion@@ABVCVerticalScale@@@Z PROC ; CMarketProfileVertScaleDrawer::DrawTextOrGrid, COMDAT
; _this$ = ecx

; 298  : {

  00000	55		 push	 ebp
  00001	8b ec		 mov	 ebp, esp
  00003	6a ff		 push	 -1
  00005	68 00 00 00 00	 push	 __ehhandler$?DrawTextOrGrid@CMarketProfileVertScaleDrawer@@UAEXPAVCDC@@ABVCDrawingVertScaleData@@ABVCScaleDrawingRegion@@ABVCVerticalScale@@@Z
  0000a	64 a1 00 00 00
	00		 mov	 eax, DWORD PTR fs:0
  00010	50		 push	 eax
  00011	51		 push	 ecx
  00012	57		 push	 edi
  00013	a1 00 00 00 00	 mov	 eax, DWORD PTR ___security_cookie
  00018	33 c5		 xor	 eax, ebp
  0001a	50		 push	 eax
  0001b	8d 45 f4	 lea	 eax, DWORD PTR __$EHRec$[ebp]
  0001e	64 a3 00 00 00
	00		 mov	 DWORD PTR fs:0, eax
  00024	8b f9		 mov	 edi, ecx

; 299  : 	CPriceScaleDrawer::DrawTextOrGrid(pDC, drawingVertScaleData, scaleRegion, 

  00026	8b 4d 0c	 mov	 ecx, DWORD PTR _drawingVertScaleData$[ebp]
  00029	e8 00 00 00 00	 call	 ?GetPacket@CDrawingVertScaleData@@QBEPAVCPacket@@XZ ; CDrawingVertScaleData::GetPacket

; 313  : 	if(pPacket == NULL)

  0002e	8d 4d f0	 lea	 ecx, DWORD PTR $T2[ebp]
  00031	85 c0		 test	 eax, eax
  00033	75 0d		 jne	 SHORT $LN5@DrawTextOr

; 314  : 		return "x0.01";

  00035	68 00 00 00 00	 push	 OFFSET ??_C@_05KKLGFDFJ@x0?401@
  0003a	ff 15 00 00 00
	00		 call	 DWORD PTR __imp_??0?$CStringT@DV?$StrTraitMFC_DLL@DV?$ChTraitsCRT@D@ATL@@@@@ATL@@QAE@PBD@Z
  00040	eb 0b		 jmp	 SHORT $LN4@DrawTextOr
$LN5@DrawTextOr:

; 315  : 	return pPacket->GetType();

  00042	6a 01		 push	 1
  00044	51		 push	 ecx
  00045	8b c8		 mov	 ecx, eax
  00047	ff 15 00 00 00
	00		 call	 DWORD PTR __imp_?GetType@CPacket@@QAE?AV?$CStringT@DV?$StrTraitMFC_DLL@DV?$ChTraitsCRT@D@ATL@@@@@ATL@@_N@Z
$LN4@DrawTextOr:

; 299  : 	CPriceScaleDrawer::DrawTextOrGrid(pDC, drawingVertScaleData, scaleRegion, 

  0004d	8d 45 f0	 lea	 eax, DWORD PTR $T2[ebp]
  00050	c7 45 fc 00 00
	00 00		 mov	 DWORD PTR __$EHRec$[ebp+8], 0
  00057	50		 push	 eax
  00058	ff 75 14	 push	 DWORD PTR _vertScale$[ebp]
  0005b	8b cf		 mov	 ecx, edi
  0005d	ff 75 10	 push	 DWORD PTR _scaleRegion$[ebp]
  00060	ff 75 0c	 push	 DWORD PTR _drawingVertScaleData$[ebp]
  00063	ff 75 08	 push	 DWORD PTR _pDC$[ebp]
  00066	e8 00 00 00 00	 call	 ?DrawTextOrGrid@CPriceScaleDrawer@@IAEXPAVCDC@@ABVCDrawingVertScaleData@@ABVCScaleDrawingRegion@@ABVCVerticalScale@@ABV?$CStringT@DV?$StrTraitMFC_DLL@DV?$ChTraitsCRT@D@ATL@@@@@ATL@@@Z ; CPriceScaleDrawer::DrawTextOrGrid
  0006b	8d 4d f0	 lea	 ecx, DWORD PTR $T2[ebp]
  0006e	ff 15 00 00 00
	00		 call	 DWORD PTR __imp_??1?$CStringT@DV?$StrTraitMFC_DLL@DV?$ChTraitsCRT@D@ATL@@@@@ATL@@QAE@XZ

; 300  : 		vertScale, GetPacketType(drawingVertScaleData.GetPacket()));
; 301  : }

  00074	8b 4d f4	 mov	 ecx, DWORD PTR __$EHRec$[ebp]
  00077	64 89 0d 00 00
	00 00		 mov	 DWORD PTR fs:0, ecx
  0007e	59		 pop	 ecx
  0007f	5f		 pop	 edi
  00080	8b e5		 mov	 esp, ebp
  00082	5d		 pop	 ebp
  00083	c2 10 00	 ret	 16			; 00000010H
_TEXT	ENDS
;	COMDAT text$x
text$x	SEGMENT
__unwindfunclet$?DrawTextOrGrid@CMarketProfileVertScaleDrawer@@UAEXPAVCDC@@ABVCDrawingVertScaleData@@ABVCScaleDrawingRegion@@ABVCVerticalScale@@@Z$0:
  00000	8d 4d f0	 lea	 ecx, DWORD PTR $T2[ebp]
  00003	ff 25 00 00 00
	00		 jmp	 DWORD PTR __imp_??1?$CStringT@DV?$StrTraitMFC_DLL@DV?$ChTraitsCRT@D@ATL@@@@@ATL@@QAE@XZ
  00009	cc		 int	 3
  0000a	cc		 int	 3
  0000b	cc		 int	 3
  0000c	cc		 int	 3
  0000d	cc		 int	 3
__ehhandler$?DrawTextOrGrid@CMarketProfileVertScaleDrawer@@UAEXPAVCDC@@ABVCDrawingVertScaleData@@ABVCScaleDrawingRegion@@ABVCVerticalScale@@@Z:
  0000e	90		 npad	 1
  0000f	90		 npad	 1
  00010	8b 54 24 08	 mov	 edx, DWORD PTR [esp+8]
  00014	8d 42 0c	 lea	 eax, DWORD PTR [edx+12]
  00017	8b 4a f4	 mov	 ecx, DWORD PTR [edx-12]
  0001a	33 c8		 xor	 ecx, eax
  0001c	e8 00 00 00 00	 call	 @__security_check_cookie@4
  00021	b8 00 00 00 00	 mov	 eax, OFFSET __ehfuncinfo$?DrawTextOrGrid@CMarketProfileVertScaleDrawer@@UAEXPAVCDC@@ABVCDrawingVertScaleData@@ABVCScaleDrawingRegion@@ABVCVerticalScale@@@Z
  00026	e9 00 00 00 00	 jmp	 ___CxxFrameHandler3
text$x	ENDS
?DrawTextOrGrid@CMarketProfileVertScaleDrawer@@UAEXPAVCDC@@ABVCDrawingVertScaleData@@ABVCScaleDrawingRegion@@ABVCVerticalScale@@@Z ENDP ; CMarketProfileVertScaleDrawer::DrawTextOrGrid
; Function compile flags: /Ogtp
; File D:\git\src\IBK\IBK_DRFN\ProjSrc\SrcChartEx\ChartOCX\ScaleDraw\SpecialScaleDrawer.cpp
;	COMDAT ??0CMarketProfileVertScaleDrawer@@QAE@PAUHWND__@@W4CHART_MODE@CChartInfo@@@Z
_TEXT	SEGMENT
_p_hOcxWnd$ = 8						; size = 4
_p_eChartMode$ = 12					; size = 4
??0CMarketProfileVertScaleDrawer@@QAE@PAUHWND__@@W4CHART_MODE@CChartInfo@@@Z PROC ; CMarketProfileVertScaleDrawer::CMarketProfileVertScaleDrawer, COMDAT
; _this$ = ecx

; 293  : {

  00000	55		 push	 ebp
  00001	8b ec		 mov	 ebp, esp
  00003	56		 push	 esi
  00004	ff 75 0c	 push	 DWORD PTR _p_eChartMode$[ebp]
  00007	8b f1		 mov	 esi, ecx
  00009	ff 75 08	 push	 DWORD PTR _p_hOcxWnd$[ebp]
  0000c	e8 00 00 00 00	 call	 ??0CPriceScaleDrawer@@QAE@PAUHWND__@@W4CHART_MODE@CChartInfo@@@Z ; CPriceScaleDrawer::CPriceScaleDrawer
  00011	c7 06 00 00 00
	00		 mov	 DWORD PTR [esi], OFFSET ??_7CMarketProfileVertScaleDrawer@@6B@

; 294  : }

  00017	8b c6		 mov	 eax, esi
  00019	5e		 pop	 esi
  0001a	5d		 pop	 ebp
  0001b	c2 08 00	 ret	 8
??0CMarketProfileVertScaleDrawer@@QAE@PAUHWND__@@W4CHART_MODE@CChartInfo@@@Z ENDP ; CMarketProfileVertScaleDrawer::CMarketProfileVertScaleDrawer
_TEXT	ENDS
; Function compile flags: /Ogtp
; File D:\git\src\IBK\IBK_DRFN\ProjSrc\SrcChartEx\ChartOCX\ScaleDraw\SpecialScaleDrawer.cpp
;	COMDAT ?GetPercentData@CSaleScaleDrawer@@ABENABN0@Z
_TEXT	SEGMENT
tv130 = -16						; size = 8
tv144 = -8						; size = 8
_dTotalData$ = 8					; size = 4
_dData$ = 12						; size = 4
?GetPercentData@CSaleScaleDrawer@@ABENABN0@Z PROC	; CSaleScaleDrawer::GetPercentData, COMDAT
; _this$ = ecx

; 280  : {

  00000	55		 push	 ebp
  00001	8b ec		 mov	 ebp, esp
  00003	83 ec 10	 sub	 esp, 16			; 00000010H

; 281  : 	if(dTotalData == 0.0)

  00006	8b 45 08	 mov	 eax, DWORD PTR _dTotalData$[ebp]
  00009	f2 0f 10 08	 movsd	 xmm1, QWORD PTR [eax]
  0000d	66 0f 2e 0d 00
	00 00 00	 ucomisd xmm1, QWORD PTR __real@0000000000000000
  00015	8b 45 0c	 mov	 eax, DWORD PTR _dData$[ebp]
  00018	f2 0f 10 00	 movsd	 xmm0, QWORD PTR [eax]
  0001c	f2 0f 11 45 f8	 movsd	 QWORD PTR tv144[ebp], xmm0
  00021	dd 45 f8	 fld	 QWORD PTR tv144[ebp]
  00024	9f		 lahf
  00025	f2 0f 11 4d f0	 movsd	 QWORD PTR tv130[ebp], xmm1
  0002a	f6 c4 44	 test	 ah, 68			; 00000044H
  0002d	7b 09		 jnp	 SHORT $LN1@GetPercent

; 282  : 		return dData;
; 283  : 
; 284  : 	return ((dData * 100.0) / dTotalData);

  0002f	dc 0d 00 00 00
	00		 fmul	 QWORD PTR __real@4059000000000000
  00035	dc 75 f0	 fdiv	 QWORD PTR tv130[ebp]
$LN1@GetPercent:

; 285  : }

  00038	8b e5		 mov	 esp, ebp
  0003a	5d		 pop	 ebp
  0003b	c2 08 00	 ret	 8
?GetPercentData@CSaleScaleDrawer@@ABENABN0@Z ENDP	; CSaleScaleDrawer::GetPercentData
_TEXT	ENDS
; Function compile flags: /Ogtp
; File D:\git\src\IBK\IBK_DRFN\ProjSrc\SrcChartEx\ChartOCX\ScaleDraw\SpecialScaleDrawer.cpp
; File C:\Program Files (x86)\Microsoft Visual Studio\2019\Community\VC\Tools\MSVC\14.29.30133\atlmfc\include\afxtempl.h
; File D:\git\src\IBK\IBK_DRFN\ProjSrc\SrcChartEx\ChartOCX\ScaleDraw\SpecialScaleDrawer.cpp
; File C:\Program Files (x86)\Microsoft Visual Studio\2019\Community\VC\Tools\MSVC\14.29.30133\atlmfc\include\afxtempl.h
; File D:\git\src\IBK\IBK_DRFN\ProjSrc\SrcChartEx\ChartOCX\ScaleDraw\SpecialScaleDrawer.cpp
;	COMDAT ?GetTotalData@CSaleScaleDrawer@@ABENPBV?$CList@NN@@@Z
_TEXT	SEGMENT
_dTotalData$ = -8					; size = 8
_pDataList$ = 8						; size = 4
?GetTotalData@CSaleScaleDrawer@@ABENPBV?$CList@NN@@@Z PROC ; CSaleScaleDrawer::GetTotalData, COMDAT
; _this$ = ecx

; 257  : {

  00000	55		 push	 ebp
  00001	8b ec		 mov	 ebp, esp

; 258  : 	//sy 2002.9.17. -> . / index  
; 259  : 	if(pDataList == NULL || pDataList->GetCount() <= 2)

  00003	8b 4d 08	 mov	 ecx, DWORD PTR _pDataList$[ebp]
  00006	83 ec 08	 sub	 esp, 8
  00009	85 c9		 test	 ecx, ecx
  0000b	74 56		 je	 SHORT $LN5@GetTotalDa
  0000d	8b 41 0c	 mov	 eax, DWORD PTR [ecx+12]
  00010	83 f8 02	 cmp	 eax, 2
  00013	7e 4e		 jle	 SHORT $LN5@GetTotalDa

; 261  : 
; 262  : 	double dTotalData = 0.0;
; 263  : 	POSITION pos = pDataList->GetHeadPosition();

  00015	8b 49 04	 mov	 ecx, DWORD PTR [ecx+4]
  00018	0f 57 c9	 xorps	 xmm1, xmm1

; 264  : 	int nTotalCount = GetDataCount(pDataList);
; 265  : 	int nIndex = 0;

  0001b	33 d2		 xor	 edx, edx
  0001d	f2 0f 11 4d f8	 movsd	 QWORD PTR _dTotalData$[ebp], xmm1
  00022	0f 57 db	 xorps	 xmm3, xmm3
  00025	56		 push	 esi
  00026	8d 70 fe	 lea	 esi, DWORD PTR [eax-2]

; 266  : 	while(pos != NULL){

  00029	85 c9		 test	 ecx, ecx
  0002b	74 2c		 je	 SHORT $LN15@GetTotalDa
  0002d	f2 0f 10 15 00
	00 00 00	 movsd	 xmm2, QWORD PTR __xmm@7fffffffffffffff7fffffffffffffff
$LL2@GetTotalDa:

; 267  : 		double dData = pDataList->GetNext(pos);

  00035	f2 0f 10 41 08	 movsd	 xmm0, QWORD PTR [ecx+8]
; File C:\Program Files (x86)\Microsoft Visual Studio\2019\Community\VC\Tools\MSVC\14.29.30133\atlmfc\include\afxtempl.h

; 817  : 	{ CNode* pNode = (CNode*) rPosition;

  0003a	8d 01		 lea	 eax, DWORD PTR [ecx]
; File D:\git\src\IBK\IBK_DRFN\ProjSrc\SrcChartEx\ChartOCX\ScaleDraw\SpecialScaleDrawer.cpp

; 268  : 		if(dData < 0)

  0003c	66 0f 2f d8	 comisd	 xmm3, xmm0
; File C:\Program Files (x86)\Microsoft Visual Studio\2019\Community\VC\Tools\MSVC\14.29.30133\atlmfc\include\afxtempl.h

; 819  : 		rPosition = (POSITION) pNode->pNext;

  00040	8b 09		 mov	 ecx, DWORD PTR [ecx]
; File D:\git\src\IBK\IBK_DRFN\ProjSrc\SrcChartEx\ChartOCX\ScaleDraw\SpecialScaleDrawer.cpp

; 268  : 		if(dData < 0)

  00042	76 03		 jbe	 SHORT $LN6@GetTotalDa

; 269  : 			dData = fabs(dData);

  00044	0f 54 c2	 andps	 xmm0, xmm2
$LN6@GetTotalDa:

; 271  : 
; 272  : 		if(++nIndex == nTotalCount)

  00047	42		 inc	 edx
  00048	f2 0f 58 c8	 addsd	 xmm1, xmm0
  0004c	3b d6		 cmp	 edx, esi
  0004e	74 04		 je	 SHORT $LN18@GetTotalDa

; 266  : 	while(pos != NULL){

  00050	85 c9		 test	 ecx, ecx
  00052	75 e1		 jne	 SHORT $LL2@GetTotalDa
$LN18@GetTotalDa:

; 270  : 		dTotalData += dData;

  00054	f2 0f 11 4d f8	 movsd	 QWORD PTR _dTotalData$[ebp], xmm1
$LN15@GetTotalDa:

; 273  : 			break;
; 274  : 	}
; 275  : 
; 276  : 	return dTotalData;

  00059	dd 45 f8	 fld	 QWORD PTR _dTotalData$[ebp]
  0005c	5e		 pop	 esi

; 277  : }

  0005d	8b e5		 mov	 esp, ebp
  0005f	5d		 pop	 ebp
  00060	c2 04 00	 ret	 4
$LN5@GetTotalDa:

; 260  : 		return 0.0;

  00063	d9 ee		 fldz

; 277  : }

  00065	8b e5		 mov	 esp, ebp
  00067	5d		 pop	 ebp
  00068	c2 04 00	 ret	 4
?GetTotalData@CSaleScaleDrawer@@ABENPBV?$CList@NN@@@Z ENDP ; CSaleScaleDrawer::GetTotalData
_TEXT	ENDS
; Function compile flags: /Ogtp
; File D:\git\src\IBK\IBK_DRFN\ProjSrc\SrcChartEx\ChartOCX\ScaleDraw\SpecialScaleDrawer.cpp
;	COMDAT ?GetDataCount@CSaleScaleDrawer@@ABEHPBV?$CList@NN@@@Z
_TEXT	SEGMENT
_pDataList$ = 8						; size = 4
?GetDataCount@CSaleScaleDrawer@@ABEHPBV?$CList@NN@@@Z PROC ; CSaleScaleDrawer::GetDataCount, COMDAT
; _this$ = ecx

; 247  : {

  00000	55		 push	 ebp
  00001	8b ec		 mov	 ebp, esp

; 248  : 	//sy 2002.9.17. -> . / index  
; 249  : 	int nTotalCount = pDataList->GetCount();

  00003	8b 45 08	 mov	 eax, DWORD PTR _pDataList$[ebp]
  00006	8b 48 0c	 mov	 ecx, DWORD PTR [eax+12]

; 250  : 	if(nTotalCount >= 2)
; 251  : 		nTotalCount -= 2;
; 252  : 
; 253  : 	return nTotalCount;

  00009	83 f9 02	 cmp	 ecx, 2
  0000c	8d 41 fe	 lea	 eax, DWORD PTR [ecx-2]
  0000f	0f 4c c1	 cmovl	 eax, ecx

; 254  : }

  00012	5d		 pop	 ebp
  00013	c2 04 00	 ret	 4
?GetDataCount@CSaleScaleDrawer@@ABEHPBV?$CList@NN@@@Z ENDP ; CSaleScaleDrawer::GetDataCount
_TEXT	ENDS
; Function compile flags: /Ogtp
; File D:\git\src\IBK\IBK_DRFN\ProjSrc\SrcChartEx\ChartOCX\ScaleDraw\SpecialScaleDrawer.cpp
; File C:\Program Files (x86)\Microsoft Visual Studio\2019\Community\VC\Tools\MSVC\14.29.30133\atlmfc\include\afxtempl.h
; File D:\git\src\IBK\IBK_DRFN\ProjSrc\SrcChartEx\ChartOCX\ScaleDraw\SpecialScaleDrawer.cpp
; File C:\Program Files (x86)\Microsoft Visual Studio\2019\Community\VC\Tools\MSVC\14.29.30133\atlmfc\include\afxtempl.h
; File D:\git\src\IBK\IBK_DRFN\ProjSrc\SrcChartEx\ChartOCX\ScaleDraw\SpecialScaleDrawer.cpp
;	COMDAT ?GetSaleData@CSaleScaleDrawer@@AAE_NPAVCPacket@@HAAHAAN2@Z
_TEXT	SEGMENT
_pPacket$ = 8						; size = 4
_nHeight$ = 12						; size = 4
_nTotalCount$ = 16					; size = 4
_dOnePtWidth$ = 20					; size = 4
_dTotalData$ = 24					; size = 4
?GetSaleData@CSaleScaleDrawer@@AAE_NPAVCPacket@@HAAHAAN2@Z PROC ; CSaleScaleDrawer::GetSaleData, COMDAT
; _this$ = ecx

; 227  : {

  00000	55		 push	 ebp
  00001	8b ec		 mov	 ebp, esp
  00003	56		 push	 esi
  00004	57		 push	 edi
  00005	8b f9		 mov	 edi, ecx

; 228  : 	if(pPacket == NULL)

  00007	8b 4d 08	 mov	 ecx, DWORD PTR _pPacket$[ebp]
  0000a	85 c9		 test	 ecx, ecx
  0000c	0f 84 9c 00 00
	00		 je	 $LN28@GetSaleDat

; 229  : 		return false;
; 230  : 
; 231  : 	CList<double, double>* pDataList = pPacket->GetnumericDataList();

  00012	ff 15 00 00 00
	00		 call	 DWORD PTR __imp_?GetnumericDataList@CPacket@@QAEPAV?$CList@NN@@XZ
  00018	8b f0		 mov	 esi, eax

; 232  : 	if(pDataList == NULL)

  0001a	85 f6		 test	 esi, esi
  0001c	0f 84 8c 00 00
	00		 je	 $LN28@GetSaleDat

; 249  : 	int nTotalCount = pDataList->GetCount();

  00022	8b 4e 0c	 mov	 ecx, DWORD PTR [esi+12]

; 233  : 		return false;
; 234  : 
; 235  : 	//sy 2002.9.17. -> . / index  
; 236  : 	nTotalCount = GetDataCount(pDataList);

  00025	83 f9 02	 cmp	 ecx, 2
  00028	8b 45 10	 mov	 eax, DWORD PTR _nTotalCount$[ebp]
  0002b	8d 51 fe	 lea	 edx, DWORD PTR [ecx-2]
  0002e	0f 4c d1	 cmovl	 edx, ecx
  00031	89 10		 mov	 DWORD PTR [eax], edx

; 237  : 	if(nTotalCount <= 0)

  00033	85 d2		 test	 edx, edx
  00035	7e 77		 jle	 SHORT $LN28@GetSaleDat

; 238  : 		return false;
; 239  : 
; 240  : 	dOnePtWidth = CDrawer::GetOnePointWidth(nHeight, nTotalCount);

  00037	52		 push	 edx
  00038	ff 75 0c	 push	 DWORD PTR _nHeight$[ebp]
  0003b	8d 4f 04	 lea	 ecx, DWORD PTR [edi+4]
  0003e	e8 00 00 00 00	 call	 ?GetOnePointWidth@CDrawer@@IBENHH@Z ; CDrawer::GetOnePointWidth
  00043	8b 7d 14	 mov	 edi, DWORD PTR _dOnePtWidth$[ebp]

; 259  : 	if(pDataList == NULL || pDataList->GetCount() <= 2)

  00046	0f 57 d2	 xorps	 xmm2, xmm2
  00049	0f 57 c9	 xorps	 xmm1, xmm1

; 238  : 		return false;
; 239  : 
; 240  : 	dOnePtWidth = CDrawer::GetOnePointWidth(nHeight, nTotalCount);

  0004c	dd 1f		 fstp	 QWORD PTR [edi]

; 259  : 	if(pDataList == NULL || pDataList->GetCount() <= 2)

  0004e	8b 46 0c	 mov	 eax, DWORD PTR [esi+12]
  00051	83 f8 02	 cmp	 eax, 2
  00054	7e 39		 jle	 SHORT $LN11@GetSaleDat

; 260  : 		return 0.0;
; 261  : 
; 262  : 	double dTotalData = 0.0;
; 263  : 	POSITION pos = pDataList->GetHeadPosition();

  00056	8b 4e 04	 mov	 ecx, DWORD PTR [esi+4]

; 264  : 	int nTotalCount = GetDataCount(pDataList);
; 265  : 	int nIndex = 0;

  00059	33 d2		 xor	 edx, edx
  0005b	8d 70 fe	 lea	 esi, DWORD PTR [eax-2]

; 266  : 	while(pos != NULL){

  0005e	85 c9		 test	 ecx, ecx
  00060	74 2d		 je	 SHORT $LN11@GetSaleDat
  00062	f2 0f 10 1d 00
	00 00 00	 movsd	 xmm3, QWORD PTR __xmm@7fffffffffffffff7fffffffffffffff
  0006a	66 0f 1f 44 00
	00		 npad	 6
$LL12@GetSaleDat:

; 267  : 		double dData = pDataList->GetNext(pos);

  00070	f2 0f 10 41 08	 movsd	 xmm0, QWORD PTR [ecx+8]
; File C:\Program Files (x86)\Microsoft Visual Studio\2019\Community\VC\Tools\MSVC\14.29.30133\atlmfc\include\afxtempl.h

; 817  : 	{ CNode* pNode = (CNode*) rPosition;

  00075	8d 01		 lea	 eax, DWORD PTR [ecx]
; File D:\git\src\IBK\IBK_DRFN\ProjSrc\SrcChartEx\ChartOCX\ScaleDraw\SpecialScaleDrawer.cpp

; 268  : 		if(dData < 0)

  00077	66 0f 2f d0	 comisd	 xmm2, xmm0
; File C:\Program Files (x86)\Microsoft Visual Studio\2019\Community\VC\Tools\MSVC\14.29.30133\atlmfc\include\afxtempl.h

; 819  : 		rPosition = (POSITION) pNode->pNext;

  0007b	8b 09		 mov	 ecx, DWORD PTR [ecx]
; File D:\git\src\IBK\IBK_DRFN\ProjSrc\SrcChartEx\ChartOCX\ScaleDraw\SpecialScaleDrawer.cpp

; 268  : 		if(dData < 0)

  0007d	76 03		 jbe	 SHORT $LN16@GetSaleDat

; 269  : 			dData = fabs(dData);

  0007f	0f 54 c3	 andps	 xmm0, xmm3
$LN16@GetSaleDat:

; 270  : 		dTotalData += dData;
; 271  : 
; 272  : 		if(++nIndex == nTotalCount)

  00082	42		 inc	 edx
  00083	f2 0f 58 c8	 addsd	 xmm1, xmm0
  00087	3b d6		 cmp	 edx, esi
  00089	74 04		 je	 SHORT $LN11@GetSaleDat

; 266  : 	while(pos != NULL){

  0008b	85 c9		 test	 ecx, ecx
  0008d	75 e1		 jne	 SHORT $LL12@GetSaleDat
$LN11@GetSaleDat:

; 241  : 	dTotalData = GetTotalData(pDataList);

  0008f	8b 45 18	 mov	 eax, DWORD PTR _dTotalData$[ebp]
  00092	f2 0f 11 08	 movsd	 QWORD PTR [eax], xmm1

; 242  : 
; 243  : 	return (dOnePtWidth > 0.0 && dTotalData > 0.0);

  00096	f2 0f 10 07	 movsd	 xmm0, QWORD PTR [edi]
  0009a	66 0f 2f c2	 comisd	 xmm0, xmm2
  0009e	76 0e		 jbe	 SHORT $LN28@GetSaleDat
  000a0	66 0f 2f ca	 comisd	 xmm1, xmm2
  000a4	76 08		 jbe	 SHORT $LN28@GetSaleDat
  000a6	5f		 pop	 edi
  000a7	b0 01		 mov	 al, 1

; 244  : }

  000a9	5e		 pop	 esi
  000aa	5d		 pop	 ebp
  000ab	c2 14 00	 ret	 20			; 00000014H
$LN28@GetSaleDat:
  000ae	5f		 pop	 edi
  000af	32 c0		 xor	 al, al
  000b1	5e		 pop	 esi
  000b2	5d		 pop	 ebp
  000b3	c2 14 00	 ret	 20			; 00000014H
?GetSaleData@CSaleScaleDrawer@@AAE_NPAVCPacket@@HAAHAAN2@Z ENDP ; CSaleScaleDrawer::GetSaleData
_TEXT	ENDS
; Function compile flags: /Ogtp
; File D:\git\src\IBK\IBK_DRFN\ProjSrc\SrcChartEx\ChartOCX\ScaleDraw\SpecialScaleDrawer.cpp
; File C:\Program Files (x86)\Microsoft Visual Studio\2019\Community\VC\Tools\MSVC\14.29.30133\atlmfc\include\afxtempl.h
; File D:\git\src\IBK\IBK_DRFN\ProjSrc\SrcChartEx\ChartOCX\ScaleDraw\SpecialScaleDrawer.cpp
; File C:\Program Files (x86)\Microsoft Visual Studio\2019\Community\VC\Tools\MSVC\14.29.30133\atlmfc\include\afxtempl.h
; File D:\git\src\IBK\IBK_DRFN\ProjSrc\SrcChartEx\ChartOCX\ScaleDraw\SpecialScaleDrawer.cpp
; File C:\Program Files (x86)\Microsoft Visual Studio\2019\Community\VC\Tools\MSVC\14.29.30133\atlmfc\include\afxtempl.h
; File D:\git\src\IBK\IBK_DRFN\ProjSrc\SrcChartEx\ChartOCX\ScaleDraw\SpecialScaleDrawer.cpp
; File C:\Program Files (x86)\Microsoft Visual Studio\2019\Community\VC\Tools\MSVC\14.29.30133\atlmfc\include\atlsimpstr.h
; File D:\git\src\IBK\IBK_DRFN\ProjSrc\SrcChartEx\ChartOCX\ScaleDraw\SpecialScaleDrawer.cpp
; File C:\Program Files (x86)\Microsoft Visual Studio\2019\Community\VC\Tools\MSVC\14.29.30133\atlmfc\include\atlsimpstr.h
; File D:\git\src\IBK\IBK_DRFN\ProjSrc\SrcChartEx\ChartOCX\ScaleDraw\SpecialScaleDrawer.cpp
; File C:\Program Files (x86)\Microsoft Visual Studio\2019\Community\VC\Tools\MSVC\14.29.30133\atlmfc\include\atlsimpstr.h
; File D:\git\src\IBK\IBK_DRFN\ProjSrc\SrcChartEx\ChartOCX\ScaleDraw\SpecialScaleDrawer.cpp
; File C:\Program Files (x86)\Microsoft Visual Studio\2019\Community\VC\Tools\MSVC\14.29.30133\atlmfc\include\afxwin1.inl
; File D:\git\src\IBK\IBK_DRFN\ProjSrc\SrcChartEx\ChartOCX\ScaleDraw\SpecialScaleDrawer.cpp
; File C:\Program Files (x86)\Microsoft Visual Studio\2019\Community\VC\Tools\MSVC\14.29.30133\atlmfc\include\afxwin1.inl
; File D:\git\src\IBK\IBK_DRFN\ProjSrc\SrcChartEx\ChartOCX\ScaleDraw\SpecialScaleDrawer.cpp
; File C:\Program Files (x86)\Microsoft Visual Studio\2019\Community\VC\Tools\MSVC\14.29.30133\atlmfc\include\atltypes.h
; File D:\git\src\IBK\IBK_DRFN\ProjSrc\SrcChartEx\ChartOCX\ScaleDraw\SpecialScaleDrawer.cpp
; File C:\Program Files (x86)\Microsoft Visual Studio\2019\Community\VC\Tools\MSVC\14.29.30133\atlmfc\include\afxtempl.h
; File D:\git\src\IBK\IBK_DRFN\ProjSrc\SrcChartEx\ChartOCX\ScaleDraw\SpecialScaleDrawer.cpp
; File C:\Program Files (x86)\Microsoft Visual Studio\2019\Community\VC\Tools\MSVC\14.29.30133\atlmfc\include\afxwin1.inl
; File D:\git\src\IBK\IBK_DRFN\ProjSrc\SrcChartEx\ChartOCX\ScaleDraw\SpecialScaleDrawer.cpp
; File C:\Program Files (x86)\Microsoft Visual Studio\2019\Community\VC\Tools\MSVC\14.29.30133\atlmfc\include\afxwin1.inl
; File D:\git\src\IBK\IBK_DRFN\ProjSrc\SrcChartEx\ChartOCX\ScaleDraw\SpecialScaleDrawer.cpp
; File C:\Program Files (x86)\Microsoft Visual Studio\2019\Community\VC\Tools\MSVC\14.29.30133\atlmfc\include\afxtempl.h
; File D:\git\src\IBK\IBK_DRFN\ProjSrc\SrcChartEx\ChartOCX\ScaleDraw\SpecialScaleDrawer.cpp
;	COMDAT ?DrawTextOrGrid_Price@CSaleScaleDrawer@@AAEXPAVCDC@@ABVCDrawingVertScaleData@@ABVCScaleDrawingRegion@@ABVCVerticalScale@@@Z
_TEXT	SEGMENT
_vertScale$ = -272					; size = 88
$T2 = -184						; size = 12
$T3 = -180						; size = 8
_psn$1$ = -172						; size = 4
_ddMinMax$ = -168					; size = 16
_dPrevSub$1$ = -152					; size = 8
tv1050 = -152						; size = 8
_size$4 = -144						; size = 8
tv518 = -144						; size = 8
_dSubInc$ = -136					; size = 8
_textSize$ = -128					; size = 8
_newPen$ = -120						; size = 8
_pOldPen$1$ = -112					; size = 4
_pPriceList$1$ = -108					; size = 4
$T5 = -108						; size = 4
_vertScale2$GSCopy$1$ = -104				; size = 4
$T6 = -104						; size = 4
_scaleRegion$GSCopy$1$ = -100				; size = 4
_bIsLog$ = -100						; size = 1
_pDC$GSCopy$1$ = -96					; size = 4
_clrText$1$ = -96					; size = 4
_dFactor$1$ = -92					; size = 8
_dPriceData$3$ = -84					; size = 8
_dSubData$4$ = -76					; size = 8
_dGapData$1$ = -76					; size = 8
_dSubData$ = -76					; size = 8
_strFormatTrans$ = -68					; size = 4
_decimalDownCount$1$ = -64				; size = 4
_dPrevPrice$1$ = -60					; size = 8
tv933 = -60						; size = 8
tv921 = -60						; size = 8
tv830 = -60						; size = 8
_drawingVertScaleData$GSCopy$1$ = -52			; size = 4
_nPt_y$ = -48						; size = 4
_pPacketList$1$ = -44					; size = 4
_bIsInvert$ = -44					; size = 1
$T7 = -44						; size = 4
$T8 = -44						; size = 4
_strData$ = -40						; size = 4
_dataType$ = -36					; size = 4
_rctTextRegion$ = -32					; size = 16
__$ArrayPad$ = -16					; size = 4
__$EHRec$ = -12						; size = 12
_pDC$ = 8						; size = 4
_drawingVertScaleData$ = 12				; size = 4
_scaleRegion$ = 16					; size = 4
_vertScale2$ = 20					; size = 4
?DrawTextOrGrid_Price@CSaleScaleDrawer@@AAEXPAVCDC@@ABVCDrawingVertScaleData@@ABVCScaleDrawingRegion@@ABVCVerticalScale@@@Z PROC ; CSaleScaleDrawer::DrawTextOrGrid_Price, COMDAT
; _this$ = ecx

; 81   : {

  00000	55		 push	 ebp
  00001	8b ec		 mov	 ebp, esp
  00003	6a ff		 push	 -1
  00005	68 00 00 00 00	 push	 __ehhandler$?DrawTextOrGrid_Price@CSaleScaleDrawer@@AAEXPAVCDC@@ABVCDrawingVertScaleData@@ABVCScaleDrawingRegion@@ABVCVerticalScale@@@Z
  0000a	64 a1 00 00 00
	00		 mov	 eax, DWORD PTR fs:0
  00010	50		 push	 eax
  00011	81 ec 04 01 00
	00		 sub	 esp, 260		; 00000104H
  00017	a1 00 00 00 00	 mov	 eax, DWORD PTR ___security_cookie
  0001c	33 c5		 xor	 eax, ebp
  0001e	89 45 f0	 mov	 DWORD PTR __$ArrayPad$[ebp], eax
  00021	53		 push	 ebx
  00022	56		 push	 esi
  00023	57		 push	 edi
  00024	50		 push	 eax
  00025	8d 45 f4	 lea	 eax, DWORD PTR __$EHRec$[ebp]
  00028	64 a3 00 00 00
	00		 mov	 DWORD PTR fs:0, eax
  0002e	8b f9		 mov	 edi, ecx
  00030	8b 45 08	 mov	 eax, DWORD PTR _pDC$[ebp]
  00033	8b 75 0c	 mov	 esi, DWORD PTR _drawingVertScaleData$[ebp]

; 82   : 	CPacket *pPacket = drawingVertScaleData.GetPacket();

  00036	8b ce		 mov	 ecx, esi
  00038	89 45 a0	 mov	 DWORD PTR _pDC$GSCopy$1$[ebp], eax
  0003b	8b 45 10	 mov	 eax, DWORD PTR _scaleRegion$[ebp]
  0003e	89 45 9c	 mov	 DWORD PTR _scaleRegion$GSCopy$1$[ebp], eax
  00041	8b 45 14	 mov	 eax, DWORD PTR _vertScale2$[ebp]
  00044	89 75 cc	 mov	 DWORD PTR _drawingVertScaleData$GSCopy$1$[ebp], esi
  00047	89 45 98	 mov	 DWORD PTR _vertScale2$GSCopy$1$[ebp], eax
  0004a	e8 00 00 00 00	 call	 ?GetPacket@CDrawingVertScaleData@@QBEPAVCPacket@@XZ ; CDrawingVertScaleData::GetPacket

; 83   : 	if( !pPacket) return;

  0004f	85 c0		 test	 eax, eax
  00051	0f 84 9e 07 00
	00		 je	 $LN1@DrawTextOr

; 84   : 	CPacketList *pPacketList = pPacket->GetPacketList();

  00057	8b c8		 mov	 ecx, eax
  00059	ff 15 00 00 00
	00		 call	 DWORD PTR __imp_?GetPacketList@CPacket@@QAEPAVCPacketList@@XZ
  0005f	8b d8		 mov	 ebx, eax
  00061	89 5d d4	 mov	 DWORD PTR _pPacketList$1$[ebp], ebx

; 85   : 	if( !pPacketList) return;

  00064	85 db		 test	 ebx, ebx
  00066	0f 84 89 07 00
	00		 je	 $LN1@DrawTextOr

; 86   : 	pPacket = pPacketList->GetBaseData( _MTEXT( C0_BUY_SELL_OVERHANGING_SUPPLY_PRICE_BAND));

  0006c	6a 01		 push	 1
  0006e	51		 push	 ecx
  0006f	8b 0d 54 00 00
	00		 mov	 ecx, DWORD PTR ?g_iMetaTable@@3VIMetaTable@@A+84
  00075	8b d4		 mov	 edx, esp
  00077	ff b1 a8 00 00
	00		 push	 DWORD PTR [ecx+168]
  0007d	8b ca		 mov	 ecx, edx
  0007f	ff 15 00 00 00
	00		 call	 DWORD PTR __imp_??0?$CStringT@DV?$StrTraitMFC_DLL@DV?$ChTraitsCRT@D@ATL@@@@@ATL@@QAE@PBD@Z
  00085	8b cb		 mov	 ecx, ebx
  00087	e8 00 00 00 00	 call	 ?GetBaseData@CPacketList@@QAEPAVCPacket@@V?$CStringT@DV?$StrTraitMFC_DLL@DV?$ChTraitsCRT@D@ATL@@@@@ATL@@_N@Z ; CPacketList::GetBaseData
  0008c	8b d8		 mov	 ebx, eax

; 87   : 	if( !pPacket) return;

  0008e	85 db		 test	 ebx, ebx
  00090	0f 84 5f 07 00
	00		 je	 $LN1@DrawTextOr

; 88   : 	CList < double, double> *pPriceList = pPacket->GetnumericDataList();

  00096	8b cb		 mov	 ecx, ebx
  00098	ff 15 00 00 00
	00		 call	 DWORD PTR __imp_?GetnumericDataList@CPacket@@QAEPAV?$CList@NN@@XZ
  0009e	89 45 94	 mov	 DWORD PTR _pPriceList$1$[ebp], eax

; 89   : 	if( !pPriceList) return;

  000a1	85 c0		 test	 eax, eax
  000a3	0f 84 4c 07 00
	00		 je	 $LN1@DrawTextOr

; 90   : 
; 91   : 	int nDataCount = pPriceList->GetCount();
; 92   : 	if( nDataCount <= 0) return;

  000a9	83 78 0c 00	 cmp	 DWORD PTR [eax+12], 0
  000ad	0f 8e 42 07 00
	00		 jle	 $LN1@DrawTextOr

; 93   : 
; 94   : 	CIndicatorInfo *pIndicatorInfo = drawingVertScaleData.GetIndicatorInfo();

  000b3	8b ce		 mov	 ecx, esi
  000b5	e8 00 00 00 00	 call	 ?GetIndicatorInfo@CDrawingVertScaleData@@QBEPAVCIndicatorInfo@@XZ ; CDrawingVertScaleData::GetIndicatorInfo

; 95   : 	if( !pIndicatorInfo) return;

  000ba	85 c0		 test	 eax, eax
  000bc	0f 84 33 07 00
	00		 je	 $LN1@DrawTextOr

; 96   : 	CList< double, double> *pConditionList = pIndicatorInfo->GetCommonCalConditionList();

  000c2	8b c8		 mov	 ecx, eax
  000c4	e8 00 00 00 00	 call	 ?GetCommonCalConditionList@CIndicatorInfo@@QAEPAV?$CList@NN@@XZ ; CIndicatorInfo::GetCommonCalConditionList
  000c9	8b f0		 mov	 esi, eax

; 97   : 	if( !pConditionList) return;

  000cb	85 f6		 test	 esi, esi
  000cd	0f 84 22 07 00
	00		 je	 $LN1@DrawTextOr

; 98   : 	if( pConditionList->GetCount() < 2) return;

  000d3	83 7e 0c 02	 cmp	 DWORD PTR [esi+12], 2
  000d7	0f 8c 18 07 00
	00		 jl	 $LN1@DrawTextOr

; 99   : 
; 100  : 	CDisplayDataMinMax ddMinMax = drawingVertScaleData.GetDisplayDataMinMax();

  000dd	8b 4d cc	 mov	 ecx, DWORD PTR _drawingVertScaleData$GSCopy$1$[ebp]
  000e0	8d 85 58 ff ff
	ff		 lea	 eax, DWORD PTR _ddMinMax$[ebp]
  000e6	50		 push	 eax
  000e7	e8 00 00 00 00	 call	 ?GetDisplayDataMinMax@CDrawingVertScaleData@@QBE?AVCDisplayDataMinMax@@XZ ; CDrawingVertScaleData::GetDisplayDataMinMax

; 101  : 	CString dataType = CDrawer::GetPacketDataType( pPacket);

  000ec	53		 push	 ebx
  000ed	8d 4d dc	 lea	 ecx, DWORD PTR _dataType$[ebp]
  000f0	51		 push	 ecx
  000f1	8d 4f 04	 lea	 ecx, DWORD PTR [edi+4]
  000f4	e8 00 00 00 00	 call	 ?GetPacketDataType@CDrawer@@IBE?AV?$CStringT@DV?$StrTraitMFC_DLL@DV?$ChTraitsCRT@D@ATL@@@@@ATL@@PAVCPacket@@@Z ; CDrawer::GetPacketDataType

; 102  : 	// (2007/2/21 - Seung-Won, Bae) x 10.. Type's ORG Type is only "x 1"
; 103  : 	if( dataType.Find( '.') < 0) dataType = "x 1";

  000f9	6a 00		 push	 0
  000fb	6a 2e		 push	 46			; 0000002eH
  000fd	8d 4d dc	 lea	 ecx, DWORD PTR _dataType$[ebp]
  00100	c7 45 fc 00 00
	00 00		 mov	 DWORD PTR __$EHRec$[ebp+8], 0
  00107	ff 15 00 00 00
	00		 call	 DWORD PTR __imp_?Find@?$CStringT@DV?$StrTraitMFC_DLL@DV?$ChTraitsCRT@D@ATL@@@@@ATL@@QBEHDH@Z
  0010d	85 c0		 test	 eax, eax
  0010f	79 0e		 jns	 SHORT $LN20@DrawTextOr
  00111	68 00 00 00 00	 push	 OFFSET ??_C@_03IOCAOJMC@x?51@
  00116	8d 4d dc	 lea	 ecx, DWORD PTR _dataType$[ebp]
  00119	ff 15 00 00 00
	00		 call	 DWORD PTR __imp_??4?$CStringT@DV?$StrTraitMFC_DLL@DV?$ChTraitsCRT@D@ATL@@@@@ATL@@QAEAAV01@PBD@Z
$LN20@DrawTextOr:

; 104  : 	int decimalDownCount = CDataConversion::GetDecimalDownCount( dataType);

  0011f	8d 45 dc	 lea	 eax, DWORD PTR _dataType$[ebp]
  00122	6a 01		 push	 1
  00124	50		 push	 eax
  00125	e8 00 00 00 00	 call	 ?GetDecimalDownCount@CDataConversion@@SAHABV?$CStringT@DV?$StrTraitMFC_DLL@DV?$ChTraitsCRT@D@ATL@@@@@ATL@@_N@Z ; CDataConversion::GetDecimalDownCount

; 105  : 	long lDifference = long( ( ddMinMax.GetDisplayMax() * pow( 10, decimalDownCount)) - long( ddMinMax.GetDisplayMin() * pow( 10, decimalDownCount)) );

  0012a	f2 0f 10 05 00
	00 00 00	 movsd	 xmm0, QWORD PTR __real@4024000000000000
  00132	83 c4 08	 add	 esp, 8
  00135	89 45 c0	 mov	 DWORD PTR _decimalDownCount$1$[ebp], eax
  00138	66 0f 6e c8	 movd	 xmm1, eax
  0013c	f3 0f e6 c9	 cvtdq2pd xmm1, xmm1
  00140	e8 00 00 00 00	 call	 __libm_sse2_pow_precise
  00145	8d 8d 58 ff ff
	ff		 lea	 ecx, DWORD PTR _ddMinMax$[ebp]
  0014b	f2 0f 11 45 c4	 movsd	 QWORD PTR tv830[ebp], xmm0
  00150	e8 00 00 00 00	 call	 ?GetDisplayMax@CDisplayDataMinMax@@QBENXZ ; CDisplayDataMinMax::GetDisplayMax
  00155	dc 4d c4	 fmul	 QWORD PTR tv830[ebp]
  00158	8d 8d 58 ff ff
	ff		 lea	 ecx, DWORD PTR _ddMinMax$[ebp]
  0015e	dd 9d 70 ff ff
	ff		 fstp	 QWORD PTR tv518[ebp]
  00164	e8 00 00 00 00	 call	 ?GetDisplayMin@CDisplayDataMinMax@@QBENXZ ; CDisplayDataMinMax::GetDisplayMin
  00169	dc 4d c4	 fmul	 QWORD PTR tv830[ebp]
  0016c	f2 0f 10 8d 70
	ff ff ff	 movsd	 xmm1, QWORD PTR tv518[ebp]
  00174	dd 9d 68 ff ff
	ff		 fstp	 QWORD PTR tv1050[ebp]
  0017a	f2 0f 2c 85 68
	ff ff ff	 cvttsd2si eax, QWORD PTR tv1050[ebp]
  00182	66 0f 6e c0	 movd	 xmm0, eax
; File C:\Program Files (x86)\Microsoft Visual Studio\2019\Community\VC\Tools\MSVC\14.29.30133\atlmfc\include\afxtempl.h

; 789  : 	{ ENSURE(m_pNodeHead != NULL);

  00186	8b 46 04	 mov	 eax, DWORD PTR [esi+4]
; File D:\git\src\IBK\IBK_DRFN\ProjSrc\SrcChartEx\ChartOCX\ScaleDraw\SpecialScaleDrawer.cpp

; 105  : 	long lDifference = long( ( ddMinMax.GetDisplayMax() * pow( 10, decimalDownCount)) - long( ddMinMax.GetDisplayMin() * pow( 10, decimalDownCount)) );

  00189	f3 0f e6 c0	 cvtdq2pd xmm0, xmm0
  0018d	f2 0f 5c c8	 subsd	 xmm1, xmm0
  00191	f2 0f 2c d9	 cvttsd2si ebx, xmm1
; File C:\Program Files (x86)\Microsoft Visual Studio\2019\Community\VC\Tools\MSVC\14.29.30133\atlmfc\include\afxtempl.h

; 789  : 	{ ENSURE(m_pNodeHead != NULL);

  00195	85 c0		 test	 eax, eax
  00197	0f 84 7d 06 00
	00		 je	 $LN126@DrawTextOr
; File D:\git\src\IBK\IBK_DRFN\ProjSrc\SrcChartEx\ChartOCX\ScaleDraw\SpecialScaleDrawer.cpp

; 107  : 	if( nBarCount < 1) nBarCount = 1;

  0019d	f2 0f 2c 48 08	 cvttsd2si ecx, QWORD PTR [eax+8]
  001a2	b8 01 00 00 00	 mov	 eax, 1
  001a7	3b c8		 cmp	 ecx, eax
  001a9	0f 4c c8	 cmovl	 ecx, eax

; 108  : 	long lMod = lDifference % nBarCount;

  001ac	8b c3		 mov	 eax, ebx
  001ae	99		 cdq
  001af	f7 f9		 idiv	 ecx
; File C:\Program Files (x86)\Microsoft Visual Studio\2019\Community\VC\Tools\MSVC\14.29.30133\atlmfc\include\afxtempl.h

; 797  : 	{ ENSURE(m_pNodeTail != NULL);

  001b1	8b 46 08	 mov	 eax, DWORD PTR [esi+8]
  001b4	85 c0		 test	 eax, eax
  001b6	0f 84 5e 06 00
	00		 je	 $LN126@DrawTextOr
; File D:\git\src\IBK\IBK_DRFN\ProjSrc\SrcChartEx\ChartOCX\ScaleDraw\SpecialScaleDrawer.cpp

; 109  : 	if( pConditionList->GetTail() == 0 && ( lMod != 0 || lDifference == 0))

  001bc	f2 0f 10 40 08	 movsd	 xmm0, QWORD PTR [eax+8]
  001c1	66 0f 2e 05 00
	00 00 00	 ucomisd xmm0, QWORD PTR __real@0000000000000000
  001c9	9f		 lahf
  001ca	f6 c4 44	 test	 ah, 68			; 00000044H
  001cd	7a 4e		 jp	 SHORT $LN134@DrawTextOr
  001cf	85 d2		 test	 edx, edx
  001d1	75 04		 jne	 SHORT $LN23@DrawTextOr
  001d3	85 db		 test	 ebx, ebx
  001d5	75 46		 jne	 SHORT $LN134@DrawTextOr
$LN23@DrawTextOr:

; 110  : 	{
; 111  : 		if( dataType.Find( '.') < 0)	dataType = "x 0.1";

  001d7	6a 00		 push	 0
  001d9	6a 2e		 push	 46			; 0000002eH
  001db	8d 4d dc	 lea	 ecx, DWORD PTR _dataType$[ebp]
  001de	ff 15 00 00 00
	00		 call	 DWORD PTR __imp_?Find@?$CStringT@DV?$StrTraitMFC_DLL@DV?$ChTraitsCRT@D@ATL@@@@@ATL@@QBEHDH@Z
  001e4	8d 4d dc	 lea	 ecx, DWORD PTR _dataType$[ebp]
  001e7	85 c0		 test	 eax, eax
  001e9	79 0d		 jns	 SHORT $LN24@DrawTextOr
  001eb	68 00 00 00 00	 push	 OFFSET ??_C@_05GMCIGKAN@x?50?41@
  001f0	ff 15 00 00 00
	00		 call	 DWORD PTR __imp_??4?$CStringT@DV?$StrTraitMFC_DLL@DV?$ChTraitsCRT@D@ATL@@@@@ATL@@QAEAAV01@PBD@Z
  001f6	eb 10		 jmp	 SHORT $LN25@DrawTextOr
$LN24@DrawTextOr:

; 112  : 		else							dataType.Replace( "0.", "0.0");

  001f8	68 00 00 00 00	 push	 OFFSET ??_C@_03MDAFIFFL@0?40@
  001fd	68 00 00 00 00	 push	 OFFSET ??_C@_02CPNCMKFB@0?4@
  00202	ff 15 00 00 00
	00		 call	 DWORD PTR __imp_?Replace@?$CStringT@DV?$StrTraitMFC_DLL@DV?$ChTraitsCRT@D@ATL@@@@@ATL@@QAEHPBD0@Z
$LN25@DrawTextOr:

; 113  : 		decimalDownCount = CDataConversion::GetDecimalDownCount( dataType);

  00208	8d 45 dc	 lea	 eax, DWORD PTR _dataType$[ebp]
  0020b	6a 01		 push	 1
  0020d	50		 push	 eax
  0020e	e8 00 00 00 00	 call	 ?GetDecimalDownCount@CDataConversion@@SAHABV?$CStringT@DV?$StrTraitMFC_DLL@DV?$ChTraitsCRT@D@ATL@@@@@ATL@@_N@Z ; CDataConversion::GetDecimalDownCount
  00213	8b f0		 mov	 esi, eax
  00215	83 c4 08	 add	 esp, 8
  00218	89 75 c0	 mov	 DWORD PTR _decimalDownCount$1$[ebp], esi
  0021b	eb 03		 jmp	 SHORT $LN22@DrawTextOr
$LN134@DrawTextOr:

; 114  : 	}
; 115  : 	// (2008/6/23 - Seung-Won, Bae) 
; 116  : 	pPacket = pPacketList->GetBaseData( _MTEXT( C0_BUY_SELL_OVERHANGING_SUPPLY));

  0021d	8b 75 c0	 mov	 esi, DWORD PTR _decimalDownCount$1$[ebp]
$LN22@DrawTextOr:
  00220	a1 54 00 00 00	 mov	 eax, DWORD PTR ?g_iMetaTable@@3VIMetaTable@@A+84
  00225	6a 01		 push	 1
  00227	51		 push	 ecx
  00228	8b cc		 mov	 ecx, esp
  0022a	ff b0 74 01 00
	00		 push	 DWORD PTR [eax+372]
  00230	ff 15 00 00 00
	00		 call	 DWORD PTR __imp_??0?$CStringT@DV?$StrTraitMFC_DLL@DV?$ChTraitsCRT@D@ATL@@@@@ATL@@QAE@PBD@Z
  00236	8b 4d d4	 mov	 ecx, DWORD PTR _pPacketList$1$[ebp]
  00239	e8 00 00 00 00	 call	 ?GetBaseData@CPacketList@@QAEPAVCPacket@@V?$CStringT@DV?$StrTraitMFC_DLL@DV?$ChTraitsCRT@D@ATL@@@@@ATL@@_N@Z ; CPacketList::GetBaseData

; 117  : 	if( pPacket) pPacket->SetScaleType( dataType);

  0023e	85 c0		 test	 eax, eax
  00240	74 0c		 je	 SHORT $LN26@DrawTextOr
  00242	8d 4d dc	 lea	 ecx, DWORD PTR _dataType$[ebp]
  00245	51		 push	 ecx
  00246	8b c8		 mov	 ecx, eax
  00248	ff 15 00 00 00
	00		 call	 DWORD PTR __imp_?SetScaleType@CPacket@@QAEXABV?$CStringT@DV?$StrTraitMFC_DLL@DV?$ChTraitsCRT@D@ATL@@@@@ATL@@@Z
$LN26@DrawTextOr:

; 119  : 	CString strFormatTrans = CVertScaleDrawer::GetFormatTrans( ddMinMax, dataType, FALSE);

  0024e	6a 00		 push	 0
  00250	8d 45 dc	 lea	 eax, DWORD PTR _dataType$[ebp]
  00253	8b cf		 mov	 ecx, edi
  00255	50		 push	 eax
  00256	8d 85 58 ff ff
	ff		 lea	 eax, DWORD PTR _ddMinMax$[ebp]
  0025c	50		 push	 eax
  0025d	8d 45 bc	 lea	 eax, DWORD PTR _strFormatTrans$[ebp]
  00260	50		 push	 eax
  00261	e8 00 00 00 00	 call	 ?GetFormatTrans@CVertScaleDrawer@@IAE?AV?$CStringT@DV?$StrTraitMFC_DLL@DV?$ChTraitsCRT@D@ATL@@@@@ATL@@ABVCDisplayDataMinMax@@ABV23@H@Z ; CVertScaleDrawer::GetFormatTrans
; File C:\Program Files (x86)\Microsoft Visual Studio\2019\Community\VC\Tools\MSVC\14.29.30133\atlmfc\include\atlsimpstr.h

; 519  : 		return( GetData()->nDataLength );

  00266	8b 45 bc	 mov	 eax, DWORD PTR _strFormatTrans$[ebp]
; File D:\git\src\IBK\IBK_DRFN\ProjSrc\SrcChartEx\ChartOCX\ScaleDraw\SpecialScaleDrawer.cpp

; 119  : 	CString strFormatTrans = CVertScaleDrawer::GetFormatTrans( ddMinMax, dataType, FALSE);

  00269	c6 45 fc 01	 mov	 BYTE PTR __$EHRec$[ebp+8], 1
; File C:\Program Files (x86)\Microsoft Visual Studio\2019\Community\VC\Tools\MSVC\14.29.30133\atlmfc\include\atlsimpstr.h

; 533  : 		return( GetLength() == 0 );

  0026d	83 78 f4 00	 cmp	 DWORD PTR [eax-12], 0
; File D:\git\src\IBK\IBK_DRFN\ProjSrc\SrcChartEx\ChartOCX\ScaleDraw\SpecialScaleDrawer.cpp

; 123  : 	if(!strFormatTrans.IsEmpty() && strFormatTrans.Find(".") == -1)

  00271	0f 84 8d 00 00
	00		 je	 $LN27@DrawTextOr
  00277	6a 00		 push	 0
  00279	68 00 00 00 00	 push	 OFFSET ??_C@_01LFCBOECM@?4@
  0027e	8d 4d bc	 lea	 ecx, DWORD PTR _strFormatTrans$[ebp]
  00281	ff 15 00 00 00
	00		 call	 DWORD PTR __imp_?Find@?$CStringT@DV?$StrTraitMFC_DLL@DV?$ChTraitsCRT@D@ATL@@@@@ATL@@QBEHPBDH@Z
  00287	83 f8 ff	 cmp	 eax, -1
  0028a	75 78		 jne	 SHORT $LN27@DrawTextOr
; File C:\Program Files (x86)\Microsoft Visual Studio\2019\Community\VC\Tools\MSVC\14.29.30133\atlmfc\include\atlsimpstr.h

; 519  : 		return( GetData()->nDataLength );

  0028c	8b 45 dc	 mov	 eax, DWORD PTR _dataType$[ebp]

; 533  : 		return( GetLength() == 0 );

  0028f	83 78 f4 00	 cmp	 DWORD PTR [eax-12], 0
; File D:\git\src\IBK\IBK_DRFN\ProjSrc\SrcChartEx\ChartOCX\ScaleDraw\SpecialScaleDrawer.cpp

; 129  : 		if(!dataType.IsEmpty() && dataType.Find(".") == -1)

  00293	74 44		 je	 SHORT $LN28@DrawTextOr
  00295	6a 00		 push	 0
  00297	68 00 00 00 00	 push	 OFFSET ??_C@_01LFCBOECM@?4@
  0029c	8d 4d dc	 lea	 ecx, DWORD PTR _dataType$[ebp]
  0029f	ff 15 00 00 00
	00		 call	 DWORD PTR __imp_?Find@?$CStringT@DV?$StrTraitMFC_DLL@DV?$ChTraitsCRT@D@ATL@@@@@ATL@@QBEHPBDH@Z
  002a5	83 f8 ff	 cmp	 eax, -1
  002a8	75 2f		 jne	 SHORT $LN28@DrawTextOr

; 130  : 		{
; 131  : 			nTemp = CDataConversion::GetStringDataCount(dataType, "0");

  002aa	68 00 00 00 00	 push	 OFFSET ??_C@_01GBGANLPD@0@
  002af	8d 4d d4	 lea	 ecx, DWORD PTR $T8[ebp]
  002b2	ff 15 00 00 00
	00		 call	 DWORD PTR __imp_??0?$CStringT@DV?$StrTraitMFC_DLL@DV?$ChTraitsCRT@D@ATL@@@@@ATL@@QAE@PBD@Z
  002b8	8d 45 d4	 lea	 eax, DWORD PTR $T8[ebp]
  002bb	c6 45 fc 02	 mov	 BYTE PTR __$EHRec$[ebp+8], 2
  002bf	50		 push	 eax
  002c0	8d 45 dc	 lea	 eax, DWORD PTR _dataType$[ebp]
  002c3	50		 push	 eax
  002c4	e8 00 00 00 00	 call	 ?GetStringDataCount@CDataConversion@@SAHABV?$CStringT@DV?$StrTraitMFC_DLL@DV?$ChTraitsCRT@D@ATL@@@@@ATL@@0@Z ; CDataConversion::GetStringDataCount
  002c9	83 c4 08	 add	 esp, 8
  002cc	c6 45 fc 01	 mov	 BYTE PTR __$EHRec$[ebp+8], 1
  002d0	8d 4d d4	 lea	 ecx, DWORD PTR $T8[ebp]
  002d3	ff 15 00 00 00
	00		 call	 DWORD PTR __imp_??1?$CStringT@DV?$StrTraitMFC_DLL@DV?$ChTraitsCRT@D@ATL@@@@@ATL@@QAE@XZ
$LN28@DrawTextOr:

; 132  : 		}
; 133  : 		nRoundLength = CDataConversion::GetStringDataCount(strFormatTrans, "0");

  002d9	68 00 00 00 00	 push	 OFFSET ??_C@_01GBGANLPD@0@
  002de	8d 4d d4	 lea	 ecx, DWORD PTR $T7[ebp]
  002e1	ff 15 00 00 00
	00		 call	 DWORD PTR __imp_??0?$CStringT@DV?$StrTraitMFC_DLL@DV?$ChTraitsCRT@D@ATL@@@@@ATL@@QAE@PBD@Z
  002e7	8d 45 d4	 lea	 eax, DWORD PTR $T7[ebp]
  002ea	c6 45 fc 03	 mov	 BYTE PTR __$EHRec$[ebp+8], 3
  002ee	50		 push	 eax
  002ef	8d 45 bc	 lea	 eax, DWORD PTR _strFormatTrans$[ebp]
  002f2	50		 push	 eax
  002f3	e8 00 00 00 00	 call	 ?GetStringDataCount@CDataConversion@@SAHABV?$CStringT@DV?$StrTraitMFC_DLL@DV?$ChTraitsCRT@D@ATL@@@@@ATL@@0@Z ; CDataConversion::GetStringDataCount
  002f8	83 c4 08	 add	 esp, 8
  002fb	8d 4d d4	 lea	 ecx, DWORD PTR $T7[ebp]
  002fe	ff 15 00 00 00
	00		 call	 DWORD PTR __imp_??1?$CStringT@DV?$StrTraitMFC_DLL@DV?$ChTraitsCRT@D@ATL@@@@@ATL@@QAE@XZ
$LN27@DrawTextOr:
; File C:\Program Files (x86)\Microsoft Visual Studio\2019\Community\VC\Tools\MSVC\14.29.30133\atlmfc\include\afxwin1.inl

; 70   : 	{ m_hObject = NULL; }

  00304	c7 45 8c 00 00
	00 00		 mov	 DWORD PTR _newPen$[ebp+4], 0

; 104  : 	{ }

  0030b	c7 45 88 00 00
	00 00		 mov	 DWORD PTR _newPen$[ebp], OFFSET ??_7CPen@@6B@
; File D:\git\src\IBK\IBK_DRFN\ProjSrc\SrcChartEx\ChartOCX\ScaleDraw\SpecialScaleDrawer.cpp

; 139  : 	newPen.CreatePen(BS_SOLID, 1, drawingVertScaleData.GetCompartLineColor());

  00312	8b 4d cc	 mov	 ecx, DWORD PTR _drawingVertScaleData$GSCopy$1$[ebp]
  00315	c6 45 fc 04	 mov	 BYTE PTR __$EHRec$[ebp+8], 4
  00319	e8 00 00 00 00	 call	 ?GetCompartLineColor@CDrawingVertScaleData@@QBEKXZ ; CDrawingVertScaleData::GetCompartLineColor
; File C:\Program Files (x86)\Microsoft Visual Studio\2019\Community\VC\Tools\MSVC\14.29.30133\atlmfc\include\afxwin1.inl

; 108  : 	{ return Attach(::CreatePen(nPenStyle, nWidth, crColor)); }

  0031e	50		 push	 eax
  0031f	6a 01		 push	 1
  00321	6a 00		 push	 0
  00323	ff 15 00 00 00
	00		 call	 DWORD PTR __imp__CreatePen@12
  00329	50		 push	 eax
  0032a	8d 4d 88	 lea	 ecx, DWORD PTR _newPen$[ebp]
  0032d	e8 00 00 00 00	 call	 ?Attach@CGdiObject@@QAEHPAX@Z ; CGdiObject::Attach
; File D:\git\src\IBK\IBK_DRFN\ProjSrc\SrcChartEx\ChartOCX\ScaleDraw\SpecialScaleDrawer.cpp

; 140  : 	CPen* pOldPen = pDC->SelectObject(&newPen);

  00332	8b 5d a0	 mov	 ebx, DWORD PTR _pDC$GSCopy$1$[ebp]
  00335	8d 45 88	 lea	 eax, DWORD PTR _newPen$[ebp]
  00338	50		 push	 eax
  00339	8b cb		 mov	 ecx, ebx
  0033b	e8 00 00 00 00	 call	 ?SelectObject@CDC@@QAEPAVCPen@@PAV2@@Z ; CDC::SelectObject

; 141  : 
; 142  : 	CRect rctTextRegion = scaleRegion.GetScaleTextRegion();

  00340	8b 4d 9c	 mov	 ecx, DWORD PTR _scaleRegion$GSCopy$1$[ebp]
  00343	89 45 90	 mov	 DWORD PTR _pOldPen$1$[ebp], eax
  00346	8d 45 e0	 lea	 eax, DWORD PTR _rctTextRegion$[ebp]
  00349	50		 push	 eax
  0034a	e8 00 00 00 00	 call	 ?GetScaleTextRegion@CScaleDrawingRegion@@QBE?AVCRect@@XZ ; CScaleDrawingRegion::GetScaleTextRegion

; 143  : 	bool bIsLog = drawingVertScaleData.GetVertScaleLogType();

  0034f	8b 4d cc	 mov	 ecx, DWORD PTR _drawingVertScaleData$GSCopy$1$[ebp]
  00352	e8 00 00 00 00	 call	 ?GetVertScaleLogType@CDrawingVertScaleData@@QBE_NXZ ; CDrawingVertScaleData::GetVertScaleLogType

; 144  : 	bool bIsInvert = drawingVertScaleData.GetVertScaleInvertType();

  00357	8b 4d cc	 mov	 ecx, DWORD PTR _drawingVertScaleData$GSCopy$1$[ebp]
  0035a	88 45 9c	 mov	 BYTE PTR _bIsLog$[ebp], al
  0035d	e8 00 00 00 00	 call	 ?GetVertScaleInvertType@CDrawingVertScaleData@@QBE_NXZ ; CDrawingVertScaleData::GetVertScaleInvertType
  00362	88 45 d4	 mov	 BYTE PTR _bIsInvert$[ebp], al

; 145  : 	bool bround = CVertScaleDrawer::GetBround( ddMinMax);

  00365	8b cf		 mov	 ecx, edi
  00367	8d 85 58 ff ff
	ff		 lea	 eax, DWORD PTR _ddMinMax$[ebp]
  0036d	50		 push	 eax
  0036e	e8 00 00 00 00	 call	 ?GetBround@CVertScaleDrawer@@IBE_NABVCDisplayDataMinMax@@@Z ; CVertScaleDrawer::GetBround

; 146  : 	int nPt_y = 0, nScaleLineCount = 5, nPeriodIndex = 0;
; 147  : 	double dPriceData = 0.0, dPrevPrice = 0.0, dSubData = 0.0, dSubInc = DBL_MAX, dPrevSub = 0.0;

  00373	f2 0f 10 0d 00
	00 00 00	 movsd	 xmm1, QWORD PTR __real@7fefffffffffffff
  0037b	0f 57 c0	 xorps	 xmm0, xmm0
  0037e	f2 0f 11 8d 78
	ff ff ff	 movsd	 QWORD PTR _dSubInc$[ebp], xmm1
  00386	66 0f 6e ce	 movd	 xmm1, esi

; 148  : 	double dGapData = 0.0, dFactor = pow( 10, decimalDownCount);

  0038a	f3 0f e6 c9	 cvtdq2pd xmm1, xmm1
  0038e	c7 45 d0 00 00
	00 00		 mov	 DWORD PTR _nPt_y$[ebp], 0
  00395	f2 0f 11 45 c4	 movsd	 QWORD PTR _dPrevPrice$1$[ebp], xmm0
  0039a	f2 0f 11 85 68
	ff ff ff	 movsd	 QWORD PTR _dPrevSub$1$[ebp], xmm0
  003a2	f2 0f 10 05 00
	00 00 00	 movsd	 xmm0, QWORD PTR __real@4024000000000000
  003aa	e8 00 00 00 00	 call	 __libm_sse2_pow_precise

; 149  : 	CString strData;

  003af	8d 4d d8	 lea	 ecx, DWORD PTR _strData$[ebp]
  003b2	f2 0f 11 45 a4	 movsd	 QWORD PTR _dFactor$1$[ebp], xmm0
  003b7	ff 15 00 00 00
	00		 call	 DWORD PTR __imp_??0?$CStringT@DV?$StrTraitMFC_DLL@DV?$ChTraitsCRT@D@ATL@@@@@ATL@@QAE@XZ

; 152  : 	COLORREF clrText = drawingVertScaleData.GetScaleColor().GetScaleTextColor();

  003bd	8b 4d cc	 mov	 ecx, DWORD PTR _drawingVertScaleData$GSCopy$1$[ebp]
  003c0	8d 85 48 ff ff
	ff		 lea	 eax, DWORD PTR $T2[ebp]
  003c6	50		 push	 eax
  003c7	c6 45 fc 05	 mov	 BYTE PTR __$EHRec$[ebp+8], 5
; File C:\Program Files (x86)\Microsoft Visual Studio\2019\Community\VC\Tools\MSVC\14.29.30133\atlmfc\include\atltypes.h

; 304  : 	cx = 0;

  003cb	c7 45 80 00 00
	00 00		 mov	 DWORD PTR _textSize$[ebp], 0

; 305  : 	cy = 0;

  003d2	c7 45 84 00 00
	00 00		 mov	 DWORD PTR _textSize$[ebp+4], 0
; File D:\git\src\IBK\IBK_DRFN\ProjSrc\SrcChartEx\ChartOCX\ScaleDraw\SpecialScaleDrawer.cpp

; 152  : 	COLORREF clrText = drawingVertScaleData.GetScaleColor().GetScaleTextColor();

  003d9	e8 00 00 00 00	 call	 ?GetScaleColor@CDrawingVertScaleData@@QBE?AVCScaleColor@@XZ ; CDrawingVertScaleData::GetScaleColor
  003de	8b c8		 mov	 ecx, eax
  003e0	ff 15 00 00 00
	00		 call	 DWORD PTR __imp_?GetScaleTextColor@CScaleColor@@QAEAAKXZ

; 153  : 	CVerticalScale vertScale(vertScale2);

  003e6	ff 75 98	 push	 DWORD PTR _vertScale2$GSCopy$1$[ebp]
  003e9	8d 8d f0 fe ff
	ff		 lea	 ecx, DWORD PTR _vertScale$[ebp]
  003ef	8b 00		 mov	 eax, DWORD PTR [eax]
  003f1	89 45 a0	 mov	 DWORD PTR _clrText$1$[ebp], eax
  003f4	e8 00 00 00 00	 call	 ??0CVerticalScale@@QAE@ABV0@@Z

; 154  : 	vertScale.SetVertUserHogaScaleType( 1);
; 155  : 	vertScale.SetVertScaleHoGaNumber( 1);
; 156  : 
; 157  : 	POSITION psn = pPriceList->GetHeadPosition();

  003f9	8b 45 94	 mov	 eax, DWORD PTR _pPriceList$1$[ebp]
  003fc	f2 0f 10 05 00
	00 00 00	 movsd	 xmm0, QWORD PTR __real@3ff0000000000000
  00404	c7 85 38 ff ff
	ff 01 00 00 00	 mov	 DWORD PTR _vertScale$[ebp+72], 1
  0040e	f2 0f 11 85 30
	ff ff ff	 movsd	 QWORD PTR _vertScale$[ebp+64], xmm0
  00416	8b 48 04	 mov	 ecx, DWORD PTR [eax+4]
  00419	c6 45 fc 06	 mov	 BYTE PTR __$EHRec$[ebp+8], 6

; 158  : 	while( psn)

  0041d	85 c9		 test	 ecx, ecx
  0041f	0f 84 88 03 00
	00		 je	 $LN3@DrawTextOr
  00425	f2 0f 10 65 a4	 movsd	 xmm4, QWORD PTR _dFactor$1$[ebp]
  0042a	66 0f 1f 44 00
	00		 npad	 6
$LL2@DrawTextOr:
; File C:\Program Files (x86)\Microsoft Visual Studio\2019\Community\VC\Tools\MSVC\14.29.30133\atlmfc\include\afxtempl.h

; 811  : 	{ CNode* pNode = (CNode*) rPosition;

  00430	8b c1		 mov	 eax, ecx

; 812  : 		ASSERT(AfxIsValidAddress(pNode, sizeof(CNode)));
; 813  : 		rPosition = (POSITION) pNode->pNext;

  00432	8b 09		 mov	 ecx, DWORD PTR [ecx]
  00434	89 8d 54 ff ff
	ff		 mov	 DWORD PTR _psn$1$[ebp], ecx
; File D:\git\src\IBK\IBK_DRFN\ProjSrc\SrcChartEx\ChartOCX\ScaleDraw\SpecialScaleDrawer.cpp

; 160  : 		dPriceData = pPriceList->GetNext( psn);

  0043a	f2 0f 10 48 08	 movsd	 xmm1, QWORD PTR [eax+8]

; 161  : 		dPriceData -= ( dPriceData * DBL_EPSILON);

  0043f	0f 28 c1	 movaps	 xmm0, xmm1
  00442	f2 0f 59 05 00
	00 00 00	 mulsd	 xmm0, QWORD PTR __real@3cb0000000000000
  0044a	f2 0f 5c c8	 subsd	 xmm1, xmm0

; 162  : 
; 163  : //		strData = CVertScaleDrawer::GetStrData( dPriceData, strFormatTrans, bround, nRoundLength);
; 164  : //		strData = CDataConversion::DoubleToString( dPriceData, CDataConversion::GetDecimalDownCount( strFormatTrans));
; 165  : 		dPriceData *= dFactor;

  0044e	f2 0f 59 cc	 mulsd	 xmm1, xmm4

; 166  : 		if( dPriceData != int( dPriceData)) dPriceData = int( dPriceData) + 1;

  00452	f2 0f 2c c9	 cvttsd2si ecx, xmm1
  00456	66 0f 6e c1	 movd	 xmm0, ecx
  0045a	f3 0f e6 c0	 cvtdq2pd xmm0, xmm0
  0045e	66 0f 2e c8	 ucomisd xmm1, xmm0
  00462	9f		 lahf
  00463	f6 c4 44	 test	 ah, 68			; 00000044H
  00466	7b 0b		 jnp	 SHORT $LN29@DrawTextOr
  00468	8d 41 01	 lea	 eax, DWORD PTR [ecx+1]
  0046b	66 0f 6e c8	 movd	 xmm1, eax
  0046f	f3 0f e6 c9	 cvtdq2pd xmm1, xmm1
$LN29@DrawTextOr:

; 167  : 		dPriceData /= dFactor;

  00473	f2 0f 5e cc	 divsd	 xmm1, xmm4

; 168  : 
; 169  : 		strData.Format("%f", dPriceData);

  00477	83 ec 08	 sub	 esp, 8
  0047a	8d 45 d8	 lea	 eax, DWORD PTR _strData$[ebp]
  0047d	f2 0f 11 0c 24	 movsd	 QWORD PTR [esp], xmm1
  00482	68 00 00 00 00	 push	 OFFSET ??_C@_02NJPGOMH@?$CFf@
  00487	50		 push	 eax
  00488	f2 0f 11 4d ac	 movsd	 QWORD PTR _dPriceData$3$[ebp], xmm1
  0048d	ff 15 00 00 00
	00		 call	 DWORD PTR __imp_?Format@?$CStringT@DV?$StrTraitMFC_DLL@DV?$ChTraitsCRT@D@ATL@@@@@ATL@@QAAXPBDZZ
  00493	83 c4 10	 add	 esp, 16			; 00000010H

; 170  : 		nPeriodIndex = strData.Find( '.');

  00496	8d 4d d8	 lea	 ecx, DWORD PTR _strData$[ebp]
  00499	6a 00		 push	 0
  0049b	6a 2e		 push	 46			; 0000002eH
  0049d	ff 15 00 00 00
	00		 call	 DWORD PTR __imp_?Find@?$CStringT@DV?$StrTraitMFC_DLL@DV?$ChTraitsCRT@D@ATL@@@@@ATL@@QBEHDH@Z
  004a3	8b f0		 mov	 esi, eax

; 171  : 		if( 0 < decimalDownCount)		strData = strData.Left( nPeriodIndex + 1 + decimalDownCount);

  004a5	8b 45 c0	 mov	 eax, DWORD PTR _decimalDownCount$1$[ebp]
  004a8	85 c0		 test	 eax, eax
  004aa	7e 26		 jle	 SHORT $LN137@DrawTextOr
  004ac	8d 48 01	 lea	 ecx, DWORD PTR [eax+1]
  004af	03 ce		 add	 ecx, esi
  004b1	8d 45 94	 lea	 eax, DWORD PTR $T5[ebp]
  004b4	51		 push	 ecx
  004b5	50		 push	 eax
  004b6	8d 4d d8	 lea	 ecx, DWORD PTR _strData$[ebp]
  004b9	ff 15 00 00 00
	00		 call	 DWORD PTR __imp_?Left@?$CStringT@DV?$StrTraitMFC_DLL@DV?$ChTraitsCRT@D@ATL@@@@@ATL@@QBE?AV12@H@Z
  004bf	50		 push	 eax
  004c0	8d 4d d8	 lea	 ecx, DWORD PTR _strData$[ebp]
  004c3	c6 45 fc 07	 mov	 BYTE PTR __$EHRec$[ebp+8], 7
  004c7	ff 15 00 00 00
	00		 call	 DWORD PTR __imp_??4?$CStringT@DV?$StrTraitMFC_DLL@DV?$ChTraitsCRT@D@ATL@@@@@ATL@@QAEAAV01@ABV01@@Z
  004cd	8d 4d 94	 lea	 ecx, DWORD PTR $T5[ebp]
  004d0	eb 21		 jmp	 SHORT $LN138@DrawTextOr
$LN137@DrawTextOr:

; 172  : 		else if( 0 == decimalDownCount)	strData = strData.Left( nPeriodIndex);

  004d2	75 29		 jne	 SHORT $LN110@DrawTextOr
  004d4	56		 push	 esi
  004d5	8d 45 98	 lea	 eax, DWORD PTR $T6[ebp]
  004d8	50		 push	 eax
  004d9	8d 4d d8	 lea	 ecx, DWORD PTR _strData$[ebp]
  004dc	ff 15 00 00 00
	00		 call	 DWORD PTR __imp_?Left@?$CStringT@DV?$StrTraitMFC_DLL@DV?$ChTraitsCRT@D@ATL@@@@@ATL@@QBE?AV12@H@Z
  004e2	50		 push	 eax
  004e3	8d 4d d8	 lea	 ecx, DWORD PTR _strData$[ebp]
  004e6	c6 45 fc 08	 mov	 BYTE PTR __$EHRec$[ebp+8], 8
  004ea	ff 15 00 00 00
	00		 call	 DWORD PTR __imp_??4?$CStringT@DV?$StrTraitMFC_DLL@DV?$ChTraitsCRT@D@ATL@@@@@ATL@@QAEAAV01@ABV01@@Z
  004f0	8d 4d 98	 lea	 ecx, DWORD PTR $T6[ebp]
$LN138@DrawTextOr:

; 173  : 		while( 3 < nPeriodIndex)

  004f3	c6 45 fc 06	 mov	 BYTE PTR __$EHRec$[ebp+8], 6
  004f7	ff 15 00 00 00
	00		 call	 DWORD PTR __imp_??1?$CStringT@DV?$StrTraitMFC_DLL@DV?$ChTraitsCRT@D@ATL@@@@@ATL@@QAE@XZ
$LN110@DrawTextOr:
  004fd	83 fe 03	 cmp	 esi, 3
  00500	7e 2f		 jle	 SHORT $LN5@DrawTextOr
$LL116@DrawTextOr:

; 174  : 		{
; 175  : 			nPeriodIndex -= 3;

  00502	83 ee 03	 sub	 esi, 3

; 176  : 			if( isdigit( strData.GetAt( nPeriodIndex))) strData.Insert( nPeriodIndex, ',');

  00505	8d 4d d8	 lea	 ecx, DWORD PTR _strData$[ebp]
  00508	56		 push	 esi
  00509	ff 15 00 00 00
	00		 call	 DWORD PTR __imp_?GetAt@?$CSimpleStringT@D$00@ATL@@QBEDH@Z
  0050f	0f be c0	 movsx	 eax, al
  00512	50		 push	 eax
  00513	ff 15 00 00 00
	00		 call	 DWORD PTR __imp__isdigit
  00519	83 c4 04	 add	 esp, 4
  0051c	85 c0		 test	 eax, eax
  0051e	74 0c		 je	 SHORT $LN33@DrawTextOr
  00520	6a 2c		 push	 44			; 0000002cH
  00522	56		 push	 esi
  00523	8d 4d d8	 lea	 ecx, DWORD PTR _strData$[ebp]
  00526	ff 15 00 00 00
	00		 call	 DWORD PTR __imp_?Insert@?$CStringT@DV?$StrTraitMFC_DLL@DV?$ChTraitsCRT@D@ATL@@@@@ATL@@QAEHHD@Z
$LN33@DrawTextOr:

; 173  : 		while( 3 < nPeriodIndex)

  0052c	83 fe 03	 cmp	 esi, 3
  0052f	7f d1		 jg	 SHORT $LL116@DrawTextOr
$LN5@DrawTextOr:

; 177  : 		}
; 178  : 
; 179  : 		dGapData = ( dPrevPrice - dPriceData);

  00531	f2 0f 10 4d c4	 movsd	 xmm1, QWORD PTR _dPrevPrice$1$[ebp]
  00536	0f 57 f6	 xorps	 xmm6, xmm6
  00539	f2 0f 10 45 ac	 movsd	 xmm0, QWORD PTR _dPriceData$3$[ebp]
  0053e	f2 0f 5c c8	 subsd	 xmm1, xmm0

; 180  : 		if( 0 != dGapData)

  00542	66 0f 2e f1	 ucomisd xmm6, xmm1
  00546	f2 0f 11 4d b4	 movsd	 QWORD PTR _dGapData$1$[ebp], xmm1
  0054b	9f		 lahf
  0054c	f6 c4 44	 test	 ah, 68			; 00000044H
  0054f	0f 8b 40 02 00
	00		 jnp	 $LN132@DrawTextOr

; 181  : 			if( GetVertScaleAbsolutePosition_y( rctTextRegion, dPriceData, ddMinMax, bIsLog, nPt_y))

  00555	8b 75 9c	 mov	 esi, DWORD PTR _bIsLog$[ebp]
  00558	8d 45 d0	 lea	 eax, DWORD PTR _nPt_y$[ebp]
  0055b	50		 push	 eax
  0055c	56		 push	 esi
  0055d	8d 85 58 ff ff
	ff		 lea	 eax, DWORD PTR _ddMinMax$[ebp]
  00563	8b cf		 mov	 ecx, edi
  00565	50		 push	 eax
  00566	83 ec 08	 sub	 esp, 8
  00569	8d 45 e0	 lea	 eax, DWORD PTR _rctTextRegion$[ebp]
  0056c	f2 0f 11 04 24	 movsd	 QWORD PTR [esp], xmm0
  00571	50		 push	 eax
  00572	e8 00 00 00 00	 call	 ?GetVertScaleAbsolutePosition_y@CVertScaleDrawer@@IAE_NABVCRect@@NABVCDisplayDataMinMax@@_NAAH@Z ; CVertScaleDrawer::GetVertScaleAbsolutePosition_y
  00577	84 c0		 test	 al, al
  00579	0f 84 11 02 00
	00		 je	 $LN131@DrawTextOr

; 182  : 		{
; 183  : 			CVertScaleDrawer::DrawScaleLine( pDC, rctTextRegion, nPt_y, bIsInvert, (MARGIN * 2), MARGIN);

  0057f	6a 04		 push	 4
  00581	6a 08		 push	 8
  00583	ff 75 d4	 push	 DWORD PTR _bIsInvert$[ebp]
  00586	8d 45 e0	 lea	 eax, DWORD PTR _rctTextRegion$[ebp]
  00589	8b cf		 mov	 ecx, edi
  0058b	ff 75 d0	 push	 DWORD PTR _nPt_y$[ebp]
  0058e	50		 push	 eax
  0058f	53		 push	 ebx
  00590	e8 00 00 00 00	 call	 ?DrawScaleLine@CVertScaleDrawer@@IAEXPAVCDC@@ABVCRect@@H_NHH@Z ; CVertScaleDrawer::DrawScaleLine
; File C:\Program Files (x86)\Microsoft Visual Studio\2019\Community\VC\Tools\MSVC\14.29.30133\atlmfc\include\afxwin1.inl

; 639  : 		VERIFY(::GetTextExtentPoint32(m_hAttribDC, str, (int)str.GetLength(), &size));

  00595	8d 85 70 ff ff
	ff		 lea	 eax, DWORD PTR _size$4[ebp]
  0059b	50		 push	 eax
  0059c	8b 45 d8	 mov	 eax, DWORD PTR _strData$[ebp]
  0059f	ff 70 f4	 push	 DWORD PTR [eax-12]
  005a2	50		 push	 eax
  005a3	ff 73 08	 push	 DWORD PTR [ebx+8]
  005a6	ff 15 00 00 00
	00		 call	 DWORD PTR __imp__GetTextExtentPoint32A@16
; File D:\git\src\IBK\IBK_DRFN\ProjSrc\SrcChartEx\ChartOCX\ScaleDraw\SpecialScaleDrawer.cpp

; 186  : 			CVertScaleDrawer::DrawTextOut( pDC, CVertScaleDrawer::GetTextPosition( rctTextRegion.right, nPt_y, textSize), 

  005ac	ff 75 a0	 push	 DWORD PTR _clrText$1$[ebp]
  005af	8b 85 70 ff ff
	ff		 mov	 eax, DWORD PTR _size$4[ebp]
  005b5	8b 8d 74 ff ff
	ff		 mov	 ecx, DWORD PTR _size$4[ebp+4]
  005bb	89 45 80	 mov	 DWORD PTR _textSize$[ebp], eax
  005be	8d 45 d8	 lea	 eax, DWORD PTR _strData$[ebp]
  005c1	50		 push	 eax
  005c2	6a 01		 push	 1
  005c4	8d 45 80	 lea	 eax, DWORD PTR _textSize$[ebp]
  005c7	89 4d 84	 mov	 DWORD PTR _textSize$[ebp+4], ecx
  005ca	50		 push	 eax
  005cb	ff 75 d0	 push	 DWORD PTR _nPt_y$[ebp]
  005ce	8d 85 4c ff ff
	ff		 lea	 eax, DWORD PTR $T3[ebp]
  005d4	8b cf		 mov	 ecx, edi
  005d6	ff 75 e8	 push	 DWORD PTR _rctTextRegion$[ebp+8]
  005d9	50		 push	 eax
  005da	e8 00 00 00 00	 call	 ?GetTextPosition@CVertScaleDrawer@@IBE?AVCPoint@@HHABVCSize@@H@Z ; CVertScaleDrawer::GetTextPosition
  005df	50		 push	 eax
  005e0	53		 push	 ebx
  005e1	8d 4f 04	 lea	 ecx, DWORD PTR [edi+4]
  005e4	e8 00 00 00 00	 call	 ?DrawTextOut@CDrawer@@IAEXPAVCDC@@ABVCPoint@@ABV?$CStringT@DV?$StrTraitMFC_DLL@DV?$ChTraitsCRT@D@ATL@@@@@ATL@@K@Z ; CDrawer::DrawTextOut

; 187  : 				strData, clrText);
; 188  : 			CVertScaleDrawer::DrawGrid( pDC, drawingVertScaleData, vertScale.GetGridType(), nPt_y, vertScale.GetActiveFlag());

  005e9	8d 8d f0 fe ff
	ff		 lea	 ecx, DWORD PTR _vertScale$[ebp]
  005ef	e8 00 00 00 00	 call	 ?GetActiveFlag@CVerticalScale@@QBEHXZ ; CVerticalScale::GetActiveFlag
  005f4	50		 push	 eax
  005f5	ff 75 d0	 push	 DWORD PTR _nPt_y$[ebp]
  005f8	8d 8d f0 fe ff
	ff		 lea	 ecx, DWORD PTR _vertScale$[ebp]
  005fe	e8 00 00 00 00	 call	 ?GetGridType@CScale@@QBE?AW4SCALEGRIDTYPE@CScaleBaseData@@XZ ; CScale::GetGridType
  00603	50		 push	 eax
  00604	ff 75 cc	 push	 DWORD PTR _drawingVertScaleData$GSCopy$1$[ebp]
  00607	8b cf		 mov	 ecx, edi
  00609	53		 push	 ebx
  0060a	e8 00 00 00 00	 call	 ?DrawGrid@CVertScaleDrawer@@IAEXPAVCDC@@ABVCDrawingVertScaleData@@W4SCALEGRIDTYPE@CScaleBaseData@@HH@Z ; CVertScaleDrawer::DrawGrid
  0060f	0f 57 f6	 xorps	 xmm6, xmm6

; 189  : 
; 190  : //			CVertScaleDrawer::DrawScaleLine(pDC, scaleRegion.GetScaleTextRegion(), nScaleLineCount, drawingVertScaleData.GetDisplayDataMinMax(), packetData, dGap, bIsLog, bIsInvert, true);
; 191  : 			// orgY  Min    orgY  min  
; 192  : 			if( 0 != dPrevPrice)

  00612	66 0f 2e 75 c4	 ucomisd xmm6, QWORD PTR _dPrevPrice$1$[ebp]
  00617	9f		 lahf
  00618	f6 c4 44	 test	 ah, 68			; 00000044H
  0061b	0f 8b 6f 01 00
	00		 jnp	 $LN131@DrawTextOr

; 193  : 			{
; 194  : 				if( dSubInc == DBL_MAX)

  00621	f2 0f 10 95 78
	ff ff ff	 movsd	 xmm2, QWORD PTR _dSubInc$[ebp]
  00629	66 0f 2e 15 00
	00 00 00	 ucomisd xmm2, QWORD PTR __real@7fefffffffffffff
  00631	f2 0f 10 65 a4	 movsd	 xmm4, QWORD PTR _dFactor$1$[ebp]
  00636	9f		 lahf
  00637	f6 c4 44	 test	 ah, 68			; 00000044H
  0063a	0f 8a d3 01 00
	00		 jp	 $LN129@DrawTextOr

; 195  : 				{
; 196  : 					for( int nIndex = 0 ; nIndex < nScaleLineCount ; nIndex++)

  00640	f2 0f 10 45 b4	 movsd	 xmm0, QWORD PTR _dGapData$1$[ebp]
  00645	33 c9		 xor	 ecx, ecx
  00647	f2 0f 5e 05 00
	00 00 00	 divsd	 xmm0, QWORD PTR __real@4014000000000000
  0064f	f2 0f 10 9d 68
	ff ff ff	 movsd	 xmm3, QWORD PTR _dPrevSub$1$[ebp]
  00657	f2 0f 10 2d 00
	00 00 00	 movsd	 xmm5, QWORD PTR __real@3cb0000000000000
  0065f	f2 0f 11 45 b4	 movsd	 QWORD PTR _dGapData$1$[ebp], xmm0
$LL8@DrawTextOr:

; 197  : 					{
; 198  : 						dSubData = dPriceData + ( dGapData / nScaleLineCount) * nIndex;

  00664	66 0f 6e c9	 movd	 xmm1, ecx
  00668	f3 0f e6 c9	 cvtdq2pd xmm1, xmm1
  0066c	f2 0f 59 c8	 mulsd	 xmm1, xmm0
  00670	f2 0f 58 4d ac	 addsd	 xmm1, QWORD PTR _dPriceData$3$[ebp]

; 199  : 						dSubData -= ( dSubData * DBL_EPSILON);

  00675	0f 28 c1	 movaps	 xmm0, xmm1
  00678	f2 0f 59 c5	 mulsd	 xmm0, xmm5
  0067c	f2 0f 5c c8	 subsd	 xmm1, xmm0

; 200  : 						dSubData *= dFactor;

  00680	f2 0f 59 cc	 mulsd	 xmm1, xmm4

; 201  : 						if( dSubData != int( dSubData)) dSubData = int( dSubData) + 1;

  00684	f2 0f 2c d1	 cvttsd2si edx, xmm1
  00688	66 0f 6e c2	 movd	 xmm0, edx
  0068c	f3 0f e6 c0	 cvtdq2pd xmm0, xmm0
  00690	66 0f 2e c8	 ucomisd xmm1, xmm0
  00694	9f		 lahf
  00695	f6 c4 44	 test	 ah, 68			; 00000044H
  00698	7b 0b		 jnp	 SHORT $LN121@DrawTextOr
  0069a	8d 42 01	 lea	 eax, DWORD PTR [edx+1]
  0069d	66 0f 6e c8	 movd	 xmm1, eax
  006a1	f3 0f e6 c9	 cvtdq2pd xmm1, xmm1
$LN121@DrawTextOr:

; 202  : 						dSubData /= dFactor;

  006a5	f2 0f 5e cc	 divsd	 xmm1, xmm4

; 203  : 
; 204  : 						if( dPrevSub != dSubData) if( dSubData - dPrevSub < dSubInc) dSubInc = dSubData - dPrevSub;

  006a9	66 0f 2e d9	 ucomisd xmm3, xmm1
  006ad	9f		 lahf
  006ae	f6 c4 44	 test	 ah, 68			; 00000044H
  006b1	7b 16		 jnp	 SHORT $LN40@DrawTextOr
  006b3	0f 28 c1	 movaps	 xmm0, xmm1
  006b6	f2 0f 5c c3	 subsd	 xmm0, xmm3
  006ba	f2 0f 5d c2	 minsd	 xmm0, xmm2
  006be	0f 28 d0	 movaps	 xmm2, xmm0
  006c1	f2 0f 11 95 78
	ff ff ff	 movsd	 QWORD PTR _dSubInc$[ebp], xmm2
$LN40@DrawTextOr:

; 195  : 				{
; 196  : 					for( int nIndex = 0 ; nIndex < nScaleLineCount ; nIndex++)

  006c9	f2 0f 10 45 b4	 movsd	 xmm0, QWORD PTR _dGapData$1$[ebp]
  006ce	41		 inc	 ecx

; 205  : 
; 206  : 						dPrevSub = dSubData;

  006cf	0f 28 d9	 movaps	 xmm3, xmm1
  006d2	83 f9 05	 cmp	 ecx, 5
  006d5	7c 8d		 jl	 SHORT $LL8@DrawTextOr

; 207  : 					}
; 208  : 					if( 0 < dSubInc) for( dSubData = ddMinMax.GetDisplayMin() + dSubInc; dSubData < ddMinMax.GetDisplayMax(); dSubData += dSubInc)

  006d7	66 0f 2f d6	 comisd	 xmm2, xmm6
  006db	f2 0f 11 9d 68
	ff ff ff	 movsd	 QWORD PTR _dPrevSub$1$[ebp], xmm3
  006e3	0f 86 2a 01 00
	00		 jbe	 $LN129@DrawTextOr
  006e9	8d 8d 58 ff ff
	ff		 lea	 ecx, DWORD PTR _ddMinMax$[ebp]
  006ef	e8 00 00 00 00	 call	 ?GetDisplayMin@CDisplayDataMinMax@@QBENXZ ; CDisplayDataMinMax::GetDisplayMin
  006f4	dc 85 78 ff ff
	ff		 fadd	 QWORD PTR _dSubInc$[ebp]
  006fa	8d 8d 58 ff ff
	ff		 lea	 ecx, DWORD PTR _ddMinMax$[ebp]
  00700	dd 5d b4	 fstp	 QWORD PTR _dSubData$[ebp]
  00703	e8 00 00 00 00	 call	 ?GetDisplayMax@CDisplayDataMinMax@@QBENXZ ; CDisplayDataMinMax::GetDisplayMax
  00708	f2 0f 10 4d b4	 movsd	 xmm1, QWORD PTR _dSubData$[ebp]
  0070d	dd 5d c4	 fstp	 QWORD PTR tv933[ebp]
  00710	f2 0f 10 45 c4	 movsd	 xmm0, QWORD PTR tv933[ebp]
  00715	66 0f 2f c1	 comisd	 xmm0, xmm1
  00719	f2 0f 11 4d b4	 movsd	 QWORD PTR _dSubData$4$[ebp], xmm1
  0071e	76 70		 jbe	 SHORT $LN131@DrawTextOr
$LL11@DrawTextOr:

; 209  : 					{
; 210  : 						nPt_y = 0;
; 211  : 						if( GetVertScaleAbsolutePosition_y( rctTextRegion, dSubData, ddMinMax, bIsLog, nPt_y))

  00720	8d 45 d0	 lea	 eax, DWORD PTR _nPt_y$[ebp]
  00723	c7 45 d0 00 00
	00 00		 mov	 DWORD PTR _nPt_y$[ebp], 0
  0072a	50		 push	 eax
  0072b	56		 push	 esi
  0072c	8d 85 58 ff ff
	ff		 lea	 eax, DWORD PTR _ddMinMax$[ebp]
  00732	8b cf		 mov	 ecx, edi
  00734	50		 push	 eax
  00735	83 ec 08	 sub	 esp, 8
  00738	8d 45 e0	 lea	 eax, DWORD PTR _rctTextRegion$[ebp]
  0073b	f2 0f 11 0c 24	 movsd	 QWORD PTR [esp], xmm1
  00740	50		 push	 eax
  00741	e8 00 00 00 00	 call	 ?GetVertScaleAbsolutePosition_y@CVertScaleDrawer@@IAE_NABVCRect@@NABVCDisplayDataMinMax@@_NAAH@Z ; CVertScaleDrawer::GetVertScaleAbsolutePosition_y
  00746	84 c0		 test	 al, al
  00748	74 16		 je	 SHORT $LN9@DrawTextOr

; 212  : 							CVertScaleDrawer::DrawScaleLine(pDC, rctTextRegion, nPt_y, bIsInvert, (MARGIN * 2), (MARGIN * 3 / 2));

  0074a	6a 06		 push	 6
  0074c	6a 08		 push	 8
  0074e	ff 75 d4	 push	 DWORD PTR _bIsInvert$[ebp]
  00751	8d 45 e0	 lea	 eax, DWORD PTR _rctTextRegion$[ebp]
  00754	8b cf		 mov	 ecx, edi
  00756	ff 75 d0	 push	 DWORD PTR _nPt_y$[ebp]
  00759	50		 push	 eax
  0075a	53		 push	 ebx
  0075b	e8 00 00 00 00	 call	 ?DrawScaleLine@CVertScaleDrawer@@IAEXPAVCDC@@ABVCRect@@H_NHH@Z ; CVertScaleDrawer::DrawScaleLine
$LN9@DrawTextOr:

; 207  : 					}
; 208  : 					if( 0 < dSubInc) for( dSubData = ddMinMax.GetDisplayMin() + dSubInc; dSubData < ddMinMax.GetDisplayMax(); dSubData += dSubInc)

  00760	f2 0f 10 4d b4	 movsd	 xmm1, QWORD PTR _dSubData$4$[ebp]
  00765	8d 8d 58 ff ff
	ff		 lea	 ecx, DWORD PTR _ddMinMax$[ebp]
  0076b	f2 0f 58 8d 78
	ff ff ff	 addsd	 xmm1, QWORD PTR _dSubInc$[ebp]
  00773	f2 0f 11 4d b4	 movsd	 QWORD PTR _dSubData$4$[ebp], xmm1
  00778	e8 00 00 00 00	 call	 ?GetDisplayMax@CDisplayDataMinMax@@QBENXZ ; CDisplayDataMinMax::GetDisplayMax
  0077d	f2 0f 10 4d b4	 movsd	 xmm1, QWORD PTR _dSubData$4$[ebp]
  00782	dd 5d c4	 fstp	 QWORD PTR tv921[ebp]
  00785	f2 0f 10 45 c4	 movsd	 xmm0, QWORD PTR tv921[ebp]
  0078a	66 0f 2f c1	 comisd	 xmm0, xmm1
  0078e	77 90		 ja	 SHORT $LL11@DrawTextOr
$LN131@DrawTextOr:

; 213  : 					}
; 214  : 				}
; 215  : 			}
; 216  : 		}
; 217  : 
; 218  : 		dPrevPrice = dPriceData;

  00790	f2 0f 10 45 ac	 movsd	 xmm0, QWORD PTR _dPriceData$3$[ebp]
$LN132@DrawTextOr:
  00795	f2 0f 10 65 a4	 movsd	 xmm4, QWORD PTR _dFactor$1$[ebp]
$LN10@DrawTextOr:

; 158  : 	while( psn)

  0079a	8b 8d 54 ff ff
	ff		 mov	 ecx, DWORD PTR _psn$1$[ebp]

; 213  : 					}
; 214  : 				}
; 215  : 			}
; 216  : 		}
; 217  : 
; 218  : 		dPrevPrice = dPriceData;

  007a0	f2 0f 11 45 c4	 movsd	 QWORD PTR _dPrevPrice$1$[ebp], xmm0
  007a5	85 c9		 test	 ecx, ecx
  007a7	0f 85 83 fc ff
	ff		 jne	 $LL2@DrawTextOr
$LN3@DrawTextOr:

; 219  : 	}
; 220  : 
; 221  : 	pDC->SelectObject(pOldPen);

  007ad	ff 75 90	 push	 DWORD PTR _pOldPen$1$[ebp]
  007b0	8b cb		 mov	 ecx, ebx
  007b2	e8 00 00 00 00	 call	 ?SelectObject@CDC@@QAEPAVCPen@@PAV2@@Z ; CDC::SelectObject

; 222  : 	newPen.DeleteObject();

  007b7	8d 4d 88	 lea	 ecx, DWORD PTR _newPen$[ebp]
  007ba	e8 00 00 00 00	 call	 ?DeleteObject@CGdiObject@@QAEHXZ ; CGdiObject::DeleteObject
  007bf	8d 8d f4 fe ff
	ff		 lea	 ecx, DWORD PTR _vertScale$[ebp+4]
  007c5	ff 15 00 00 00
	00		 call	 DWORD PTR __imp_??1?$CStringT@DV?$StrTraitMFC_DLL@DV?$ChTraitsCRT@D@ATL@@@@@ATL@@QAE@XZ

; 223  : }

  007cb	8d 4d d8	 lea	 ecx, DWORD PTR _strData$[ebp]
  007ce	ff 15 00 00 00
	00		 call	 DWORD PTR __imp_??1?$CStringT@DV?$StrTraitMFC_DLL@DV?$ChTraitsCRT@D@ATL@@@@@ATL@@QAE@XZ
; File C:\Program Files (x86)\Microsoft Visual Studio\2019\Community\VC\Tools\MSVC\14.29.30133\atlmfc\include\afxwin1.inl

; 106  : 	{ }

  007d4	8d 4d 88	 lea	 ecx, DWORD PTR _newPen$[ebp]
  007d7	c7 45 88 00 00
	00 00		 mov	 DWORD PTR _newPen$[ebp], OFFSET ??_7CPen@@6B@
  007de	e8 00 00 00 00	 call	 ??1CGdiObject@@UAE@XZ	; CGdiObject::~CGdiObject
; File D:\git\src\IBK\IBK_DRFN\ProjSrc\SrcChartEx\ChartOCX\ScaleDraw\SpecialScaleDrawer.cpp

; 223  : }

  007e3	8d 4d bc	 lea	 ecx, DWORD PTR _strFormatTrans$[ebp]
  007e6	ff 15 00 00 00
	00		 call	 DWORD PTR __imp_??1?$CStringT@DV?$StrTraitMFC_DLL@DV?$ChTraitsCRT@D@ATL@@@@@ATL@@QAE@XZ
  007ec	8d 4d dc	 lea	 ecx, DWORD PTR _dataType$[ebp]
  007ef	ff 15 00 00 00
	00		 call	 DWORD PTR __imp_??1?$CStringT@DV?$StrTraitMFC_DLL@DV?$ChTraitsCRT@D@ATL@@@@@ATL@@QAE@XZ
$LN1@DrawTextOr:
  007f5	8b 4d f4	 mov	 ecx, DWORD PTR __$EHRec$[ebp]
  007f8	64 89 0d 00 00
	00 00		 mov	 DWORD PTR fs:0, ecx
  007ff	59		 pop	 ecx
  00800	5f		 pop	 edi
  00801	5e		 pop	 esi
  00802	5b		 pop	 ebx
  00803	8b 4d f0	 mov	 ecx, DWORD PTR __$ArrayPad$[ebp]
  00806	33 cd		 xor	 ecx, ebp
  00808	e8 00 00 00 00	 call	 @__security_check_cookie@4
  0080d	8b e5		 mov	 esp, ebp
  0080f	5d		 pop	 ebp
  00810	c2 10 00	 ret	 16			; 00000010H
$LN129@DrawTextOr:

; 213  : 					}
; 214  : 				}
; 215  : 			}
; 216  : 		}
; 217  : 
; 218  : 		dPrevPrice = dPriceData;

  00813	f2 0f 10 45 ac	 movsd	 xmm0, QWORD PTR _dPriceData$3$[ebp]
  00818	eb 80		 jmp	 SHORT $LN10@DrawTextOr
$LN126@DrawTextOr:
; File C:\Program Files (x86)\Microsoft Visual Studio\2019\Community\VC\Tools\MSVC\14.29.30133\atlmfc\include\afxtempl.h

; 797  : 	{ ENSURE(m_pNodeTail != NULL);

  0081a	e8 00 00 00 00	 call	 ?AfxThrowInvalidArgException@@YGXXZ ; AfxThrowInvalidArgException
$LN136@DrawTextOr:
  0081f	cc		 int	 3
_TEXT	ENDS
;	COMDAT text$x
text$x	SEGMENT
__unwindfunclet$?DrawTextOrGrid_Price@CSaleScaleDrawer@@AAEXPAVCDC@@ABVCDrawingVertScaleData@@ABVCScaleDrawingRegion@@ABVCVerticalScale@@@Z$1:
  00000	8d 4d dc	 lea	 ecx, DWORD PTR _dataType$[ebp]
  00003	ff 25 00 00 00
	00		 jmp	 DWORD PTR __imp_??1?$CStringT@DV?$StrTraitMFC_DLL@DV?$ChTraitsCRT@D@ATL@@@@@ATL@@QAE@XZ
__unwindfunclet$?DrawTextOrGrid_Price@CSaleScaleDrawer@@AAEXPAVCDC@@ABVCDrawingVertScaleData@@ABVCScaleDrawingRegion@@ABVCVerticalScale@@@Z$3:
  00009	8d 4d bc	 lea	 ecx, DWORD PTR _strFormatTrans$[ebp]
  0000c	ff 25 00 00 00
	00		 jmp	 DWORD PTR __imp_??1?$CStringT@DV?$StrTraitMFC_DLL@DV?$ChTraitsCRT@D@ATL@@@@@ATL@@QAE@XZ
__unwindfunclet$?DrawTextOrGrid_Price@CSaleScaleDrawer@@AAEXPAVCDC@@ABVCDrawingVertScaleData@@ABVCScaleDrawingRegion@@ABVCVerticalScale@@@Z$4:
  00012	8d 4d d4	 lea	 ecx, DWORD PTR $T8[ebp]
  00015	ff 25 00 00 00
	00		 jmp	 DWORD PTR __imp_??1?$CStringT@DV?$StrTraitMFC_DLL@DV?$ChTraitsCRT@D@ATL@@@@@ATL@@QAE@XZ
__unwindfunclet$?DrawTextOrGrid_Price@CSaleScaleDrawer@@AAEXPAVCDC@@ABVCDrawingVertScaleData@@ABVCScaleDrawingRegion@@ABVCVerticalScale@@@Z$5:
  0001b	8d 4d d4	 lea	 ecx, DWORD PTR $T7[ebp]
  0001e	ff 25 00 00 00
	00		 jmp	 DWORD PTR __imp_??1?$CStringT@DV?$StrTraitMFC_DLL@DV?$ChTraitsCRT@D@ATL@@@@@ATL@@QAE@XZ
__unwindfunclet$?DrawTextOrGrid_Price@CSaleScaleDrawer@@AAEXPAVCDC@@ABVCDrawingVertScaleData@@ABVCScaleDrawingRegion@@ABVCVerticalScale@@@Z$6:
  00024	8d 4d 88	 lea	 ecx, DWORD PTR _newPen$[ebp]
  00027	e9 00 00 00 00	 jmp	 ??1CPen@@UAE@XZ		; CPen::~CPen
__unwindfunclet$?DrawTextOrGrid_Price@CSaleScaleDrawer@@AAEXPAVCDC@@ABVCDrawingVertScaleData@@ABVCScaleDrawingRegion@@ABVCVerticalScale@@@Z$7:
  0002c	8d 4d d8	 lea	 ecx, DWORD PTR _strData$[ebp]
  0002f	ff 25 00 00 00
	00		 jmp	 DWORD PTR __imp_??1?$CStringT@DV?$StrTraitMFC_DLL@DV?$ChTraitsCRT@D@ATL@@@@@ATL@@QAE@XZ
__unwindfunclet$?DrawTextOrGrid_Price@CSaleScaleDrawer@@AAEXPAVCDC@@ABVCDrawingVertScaleData@@ABVCScaleDrawingRegion@@ABVCVerticalScale@@@Z$8:
  00035	8d 8d f0 fe ff
	ff		 lea	 ecx, DWORD PTR _vertScale$[ebp]
  0003b	e9 00 00 00 00	 jmp	 ??1CVerticalScale@@QAE@XZ
__unwindfunclet$?DrawTextOrGrid_Price@CSaleScaleDrawer@@AAEXPAVCDC@@ABVCDrawingVertScaleData@@ABVCScaleDrawingRegion@@ABVCVerticalScale@@@Z$9:
  00040	8d 4d 94	 lea	 ecx, DWORD PTR $T5[ebp]
  00043	ff 25 00 00 00
	00		 jmp	 DWORD PTR __imp_??1?$CStringT@DV?$StrTraitMFC_DLL@DV?$ChTraitsCRT@D@ATL@@@@@ATL@@QAE@XZ
__unwindfunclet$?DrawTextOrGrid_Price@CSaleScaleDrawer@@AAEXPAVCDC@@ABVCDrawingVertScaleData@@ABVCScaleDrawingRegion@@ABVCVerticalScale@@@Z$10:
  00049	8d 4d 98	 lea	 ecx, DWORD PTR $T6[ebp]
  0004c	ff 25 00 00 00
	00		 jmp	 DWORD PTR __imp_??1?$CStringT@DV?$StrTraitMFC_DLL@DV?$ChTraitsCRT@D@ATL@@@@@ATL@@QAE@XZ
  00052	cc		 int	 3
  00053	cc		 int	 3
  00054	cc		 int	 3
  00055	cc		 int	 3
  00056	cc		 int	 3
__ehhandler$?DrawTextOrGrid_Price@CSaleScaleDrawer@@AAEXPAVCDC@@ABVCDrawingVertScaleData@@ABVCScaleDrawingRegion@@ABVCVerticalScale@@@Z:
  00057	90		 npad	 1
  00058	90		 npad	 1
  00059	8b 54 24 08	 mov	 edx, DWORD PTR [esp+8]
  0005d	8d 42 0c	 lea	 eax, DWORD PTR [edx+12]
  00060	8b 8a ec fe ff
	ff		 mov	 ecx, DWORD PTR [edx-276]
  00066	33 c8		 xor	 ecx, eax
  00068	e8 00 00 00 00	 call	 @__security_check_cookie@4
  0006d	8b 4a fc	 mov	 ecx, DWORD PTR [edx-4]
  00070	33 c8		 xor	 ecx, eax
  00072	e8 00 00 00 00	 call	 @__security_check_cookie@4
  00077	b8 00 00 00 00	 mov	 eax, OFFSET __ehfuncinfo$?DrawTextOrGrid_Price@CSaleScaleDrawer@@AAEXPAVCDC@@ABVCDrawingVertScaleData@@ABVCScaleDrawingRegion@@ABVCVerticalScale@@@Z
  0007c	e9 00 00 00 00	 jmp	 ___CxxFrameHandler3
text$x	ENDS
?DrawTextOrGrid_Price@CSaleScaleDrawer@@AAEXPAVCDC@@ABVCDrawingVertScaleData@@ABVCScaleDrawingRegion@@ABVCVerticalScale@@@Z ENDP ; CSaleScaleDrawer::DrawTextOrGrid_Price
; Function compile flags: /Ogtp
; File D:\git\src\IBK\IBK_DRFN\ProjSrc\SrcChartEx\ChartOCX\ScaleDraw\SpecialScaleDrawer.cpp
; File C:\Program Files (x86)\Microsoft Visual Studio\2019\Community\VC\Tools\MSVC\14.29.30133\atlmfc\include\atltypes.h
; File D:\git\src\IBK\IBK_DRFN\ProjSrc\SrcChartEx\ChartOCX\ScaleDraw\SpecialScaleDrawer.cpp
; File C:\Program Files (x86)\Microsoft Visual Studio\2019\Community\VC\Tools\MSVC\14.29.30133\atlmfc\include\afxtempl.h
; File D:\git\src\IBK\IBK_DRFN\ProjSrc\SrcChartEx\ChartOCX\ScaleDraw\SpecialScaleDrawer.cpp
; File C:\Program Files (x86)\Microsoft Visual Studio\2019\Community\VC\Tools\MSVC\14.29.30133\atlmfc\include\afxtempl.h
; File D:\git\src\IBK\IBK_DRFN\ProjSrc\SrcChartEx\ChartOCX\ScaleDraw\SpecialScaleDrawer.cpp
; File C:\Program Files (x86)\Microsoft Visual Studio\2019\Community\VC\Tools\MSVC\14.29.30133\atlmfc\include\afxtempl.h
; File D:\git\src\IBK\IBK_DRFN\ProjSrc\SrcChartEx\ChartOCX\ScaleDraw\SpecialScaleDrawer.cpp
; File C:\Program Files (x86)\Microsoft Visual Studio\2019\Community\VC\Tools\MSVC\14.29.30133\atlmfc\include\afxtempl.h
; File D:\git\src\IBK\IBK_DRFN\ProjSrc\SrcChartEx\ChartOCX\ScaleDraw\SpecialScaleDrawer.cpp
; File C:\Program Files (x86)\Microsoft Visual Studio\2019\Community\VC\Tools\MSVC\14.29.30133\atlmfc\include\cstringt.h
; File D:\git\src\IBK\IBK_DRFN\ProjSrc\SrcChartEx\ChartOCX\ScaleDraw\SpecialScaleDrawer.cpp
; File C:\Program Files (x86)\Microsoft Visual Studio\2019\Community\VC\Tools\MSVC\14.29.30133\atlmfc\include\cstringt.h
; File C:\Program Files (x86)\Microsoft Visual Studio\2019\Community\VC\Tools\MSVC\14.29.30133\atlmfc\include\atlsimpstr.h
; File C:\Program Files (x86)\Microsoft Visual Studio\2019\Community\VC\Tools\MSVC\14.29.30133\atlmfc\include\cstringt.h
; File D:\git\src\IBK\IBK_DRFN\ProjSrc\SrcChartEx\ChartOCX\ScaleDraw\SpecialScaleDrawer.cpp
; File C:\Program Files (x86)\Microsoft Visual Studio\2019\Community\VC\Tools\MSVC\14.29.30133\atlmfc\include\atlsimpstr.h
; File C:\Program Files (x86)\Microsoft Visual Studio\2019\Community\VC\Tools\MSVC\14.29.30133\atlmfc\include\afxwin1.inl
; File C:\Program Files (x86)\Microsoft Visual Studio\2019\Community\VC\Tools\MSVC\14.29.30133\atlmfc\include\atltypes.h
; File D:\git\src\IBK\IBK_DRFN\ProjSrc\SrcChartEx\ChartOCX\ScaleDraw\SpecialScaleDrawer.cpp
; File C:\Program Files (x86)\Microsoft Visual Studio\2019\Community\VC\Tools\MSVC\14.29.30133\atlmfc\include\atltypes.h
; File D:\git\src\IBK\IBK_DRFN\ProjSrc\SrcChartEx\ChartOCX\ScaleDraw\SpecialScaleDrawer.cpp
;	COMDAT ?DrawTextOrGrid_Volumn@CSaleScaleDrawer@@AAEXPAVCDC@@ABVCDrawingVertScaleData@@ABVCRect@@ABVCVerticalScale@@@Z
_TEXT	SEGMENT
$T2 = -116						; size = 12
$T3 = -104						; size = 8
tv542 = -96						; size = 8
_dPercentData$4 = -88					; size = 8
$T5 = -80						; size = 8
_size$6 = -72						; size = 8
_dOnePtWidth$ = -64					; size = 8
$T7 = -56						; size = 8
_nTotalCount$1$ = -48					; size = 4
_pos$1$ = -44						; size = 4
tv544 = -40						; size = 4
_nowPt_y$1$ = -36					; size = 4
$T8 = -32						; size = 4
$T9 = -28						; size = 4
_this$1$ = -24						; size = 4
_strData$10 = -20					; size = 4
$T11 = -16						; size = 4
__$EHRec$ = -12						; size = 12
_pDC$ = 8						; size = 4
_drawingVertScaleData$ = 12				; size = 4
_scaleTextRegion$ = 16					; size = 4
_vertScale$ = 20					; size = 4
?DrawTextOrGrid_Volumn@CSaleScaleDrawer@@AAEXPAVCDC@@ABVCDrawingVertScaleData@@ABVCRect@@ABVCVerticalScale@@@Z PROC ; CSaleScaleDrawer::DrawTextOrGrid_Volumn, COMDAT
; _this$ = ecx

; 47   : {

  00000	55		 push	 ebp
  00001	8b ec		 mov	 ebp, esp
  00003	6a ff		 push	 -1
  00005	68 00 00 00 00	 push	 __ehhandler$?DrawTextOrGrid_Volumn@CSaleScaleDrawer@@AAEXPAVCDC@@ABVCDrawingVertScaleData@@ABVCRect@@ABVCVerticalScale@@@Z
  0000a	64 a1 00 00 00
	00		 mov	 eax, DWORD PTR fs:0
  00010	50		 push	 eax
  00011	83 ec 68	 sub	 esp, 104		; 00000068H
  00014	56		 push	 esi
  00015	57		 push	 edi
  00016	a1 00 00 00 00	 mov	 eax, DWORD PTR ___security_cookie
  0001b	33 c5		 xor	 eax, ebp
  0001d	50		 push	 eax
  0001e	8d 45 f4	 lea	 eax, DWORD PTR __$EHRec$[ebp]
  00021	64 a3 00 00 00
	00		 mov	 DWORD PTR fs:0, eax
  00027	89 4d e8	 mov	 DWORD PTR _this$1$[ebp], ecx

; 50   : 	if(!GetSaleData(drawingVertScaleData.GetPacket(), scaleTextRegion.Height(), nTotalCount, dOnePtWidth, dTotalData))

  0002a	8b 4d 0c	 mov	 ecx, DWORD PTR _drawingVertScaleData$[ebp]
  0002d	33 c0		 xor	 eax, eax
  0002f	89 45 e4	 mov	 DWORD PTR $T9[ebp], eax
  00032	89 45 f0	 mov	 DWORD PTR $T11[ebp], eax
; File C:\Program Files (x86)\Microsoft Visual Studio\2019\Community\VC\Tools\MSVC\14.29.30133\atlmfc\include\atltypes.h

; 581  : 	return bottom - top;

  00035	8b 45 10	 mov	 eax, DWORD PTR _scaleTextRegion$[ebp]
  00038	8b 78 0c	 mov	 edi, DWORD PTR [eax+12]
  0003b	2b 78 04	 sub	 edi, DWORD PTR [eax+4]
; File D:\git\src\IBK\IBK_DRFN\ProjSrc\SrcChartEx\ChartOCX\ScaleDraw\SpecialScaleDrawer.cpp

; 50   : 	if(!GetSaleData(drawingVertScaleData.GetPacket(), scaleTextRegion.Height(), nTotalCount, dOnePtWidth, dTotalData))

  0003e	e8 00 00 00 00	 call	 ?GetPacket@CDrawingVertScaleData@@QBEPAVCPacket@@XZ ; CDrawingVertScaleData::GetPacket

; 228  : 	if(pPacket == NULL)

  00043	85 c0		 test	 eax, eax
  00045	0f 84 33 02 00
	00		 je	 $LN75@DrawTextOr

; 229  : 		return false;
; 230  : 
; 231  : 	CList<double, double>* pDataList = pPacket->GetnumericDataList();

  0004b	8b c8		 mov	 ecx, eax
  0004d	ff 15 00 00 00
	00		 call	 DWORD PTR __imp_?GetnumericDataList@CPacket@@QAEPAV?$CList@NN@@XZ
  00053	8b f0		 mov	 esi, eax

; 232  : 	if(pDataList == NULL)

  00055	85 f6		 test	 esi, esi
  00057	0f 84 21 02 00
	00		 je	 $LN75@DrawTextOr

; 249  : 	int nTotalCount = pDataList->GetCount();

  0005d	8b 4e 0c	 mov	 ecx, DWORD PTR [esi+12]

; 236  : 	nTotalCount = GetDataCount(pDataList);

  00060	83 f9 02	 cmp	 ecx, 2
  00063	8d 41 fe	 lea	 eax, DWORD PTR [ecx-2]
  00066	0f 4c c1	 cmovl	 eax, ecx
  00069	89 45 d0	 mov	 DWORD PTR _nTotalCount$1$[ebp], eax

; 237  : 	if(nTotalCount <= 0)

  0006c	85 c0		 test	 eax, eax
  0006e	0f 8e 0a 02 00
	00		 jle	 $LN75@DrawTextOr

; 238  : 		return false;
; 239  : 
; 240  : 	dOnePtWidth = CDrawer::GetOnePointWidth(nHeight, nTotalCount);

  00074	8b 4d e8	 mov	 ecx, DWORD PTR _this$1$[ebp]
  00077	50		 push	 eax
  00078	83 c1 04	 add	 ecx, 4
  0007b	57		 push	 edi
  0007c	89 4d d8	 mov	 DWORD PTR tv544[ebp], ecx
  0007f	e8 00 00 00 00	 call	 ?GetOnePointWidth@CDrawer@@IBENHH@Z ; CDrawer::GetOnePointWidth

; 259  : 	if(pDataList == NULL || pDataList->GetCount() <= 2)

  00084	8b 46 0c	 mov	 eax, DWORD PTR [esi+12]
  00087	0f 57 c9	 xorps	 xmm1, xmm1
  0008a	f2 0f 11 4d c8	 movsd	 QWORD PTR $T7[ebp], xmm1
  0008f	0f 57 d2	 xorps	 xmm2, xmm2

; 240  : 	dOnePtWidth = CDrawer::GetOnePointWidth(nHeight, nTotalCount);

  00092	dd 5d c0	 fstp	 QWORD PTR _dOnePtWidth$[ebp]

; 259  : 	if(pDataList == NULL || pDataList->GetCount() <= 2)

  00095	83 f8 02	 cmp	 eax, 2
  00098	7e 3a		 jle	 SHORT $LN24@DrawTextOr

; 260  : 		return 0.0;
; 261  : 
; 262  : 	double dTotalData = 0.0;
; 263  : 	POSITION pos = pDataList->GetHeadPosition();

  0009a	8b 4e 04	 mov	 ecx, DWORD PTR [esi+4]

; 264  : 	int nTotalCount = GetDataCount(pDataList);
; 265  : 	int nIndex = 0;

  0009d	33 d2		 xor	 edx, edx
  0009f	8d 70 fe	 lea	 esi, DWORD PTR [eax-2]

; 266  : 	while(pos != NULL){

  000a2	85 c9		 test	 ecx, ecx
  000a4	74 2e		 je	 SHORT $LN24@DrawTextOr
  000a6	f2 0f 10 1d 00
	00 00 00	 movsd	 xmm3, QWORD PTR __xmm@7fffffffffffffff7fffffffffffffff
  000ae	66 90		 npad	 2
$LL25@DrawTextOr:

; 267  : 		double dData = pDataList->GetNext(pos);

  000b0	f2 0f 10 41 08	 movsd	 xmm0, QWORD PTR [ecx+8]
; File C:\Program Files (x86)\Microsoft Visual Studio\2019\Community\VC\Tools\MSVC\14.29.30133\atlmfc\include\afxtempl.h

; 817  : 	{ CNode* pNode = (CNode*) rPosition;

  000b5	8d 01		 lea	 eax, DWORD PTR [ecx]
; File D:\git\src\IBK\IBK_DRFN\ProjSrc\SrcChartEx\ChartOCX\ScaleDraw\SpecialScaleDrawer.cpp

; 268  : 		if(dData < 0)

  000b7	66 0f 2f d0	 comisd	 xmm2, xmm0
; File C:\Program Files (x86)\Microsoft Visual Studio\2019\Community\VC\Tools\MSVC\14.29.30133\atlmfc\include\afxtempl.h

; 819  : 		rPosition = (POSITION) pNode->pNext;

  000bb	8b 09		 mov	 ecx, DWORD PTR [ecx]
; File D:\git\src\IBK\IBK_DRFN\ProjSrc\SrcChartEx\ChartOCX\ScaleDraw\SpecialScaleDrawer.cpp

; 268  : 		if(dData < 0)

  000bd	76 03		 jbe	 SHORT $LN29@DrawTextOr

; 269  : 			dData = fabs(dData);

  000bf	0f 54 c3	 andps	 xmm0, xmm3
$LN29@DrawTextOr:

; 270  : 		dTotalData += dData;
; 271  : 
; 272  : 		if(++nIndex == nTotalCount)

  000c2	42		 inc	 edx
  000c3	f2 0f 58 c8	 addsd	 xmm1, xmm0
  000c7	3b d6		 cmp	 edx, esi
  000c9	74 04		 je	 SHORT $LN74@DrawTextOr

; 266  : 	while(pos != NULL){

  000cb	85 c9		 test	 ecx, ecx
  000cd	75 e1		 jne	 SHORT $LL25@DrawTextOr
$LN74@DrawTextOr:
  000cf	f2 0f 11 4d c8	 movsd	 QWORD PTR $T7[ebp], xmm1
$LN24@DrawTextOr:

; 243  : 	return (dOnePtWidth > 0.0 && dTotalData > 0.0);

  000d4	f2 0f 10 45 c0	 movsd	 xmm0, QWORD PTR _dOnePtWidth$[ebp]
  000d9	66 0f 2f c2	 comisd	 xmm0, xmm2
  000dd	0f 86 9b 01 00
	00		 jbe	 $LN75@DrawTextOr
  000e3	66 0f 2f ca	 comisd	 xmm1, xmm2
  000e7	0f 86 91 01 00
	00		 jbe	 $LN75@DrawTextOr

; 51   : 		return;
; 52   : 
; 53   : 	CList<double, double>* pDataList = drawingVertScaleData.GetPacket()->GetnumericDataList();

  000ed	8b 4d 0c	 mov	 ecx, DWORD PTR _drawingVertScaleData$[ebp]
  000f0	e8 00 00 00 00	 call	 ?GetPacket@CDrawingVertScaleData@@QBEPAVCPacket@@XZ ; CDrawingVertScaleData::GetPacket
  000f5	8b c8		 mov	 ecx, eax
  000f7	ff 15 00 00 00
	00		 call	 DWORD PTR __imp_?GetnumericDataList@CPacket@@QAEPAV?$CList@NN@@XZ

; 54   : 	//sy 2002.7.29.
; 55   : 	if(pDataList == NULL || pDataList->GetCount() <= 0 || nTotalCount <= 0)

  000fd	85 c0		 test	 eax, eax
  000ff	0f 84 79 01 00
	00		 je	 $LN75@DrawTextOr
  00105	83 78 0c 00	 cmp	 DWORD PTR [eax+12], 0
  00109	0f 8e 6f 01 00
	00		 jle	 $LN75@DrawTextOr

; 56   : 		return;
; 57   : 
; 58   : 	//sy 2002.9.17. -> . / index  
; 59   : 	POSITION pos = pDataList->GetHeadPosition();

  0010f	8b 70 04	 mov	 esi, DWORD PTR [eax+4]

; 60   : 	int nIndex = 0;

  00112	33 ff		 xor	 edi, edi

; 61   : 	while(pos != NULL){

  00114	85 f6		 test	 esi, esi
  00116	0f 84 62 01 00
	00		 je	 $LN75@DrawTextOr
  0011c	f2 0f 10 4d c0	 movsd	 xmm1, QWORD PTR _dOnePtWidth$[ebp]
  00121	0f 28 d1	 movaps	 xmm2, xmm1
  00124	f2 0f 59 15 00
	00 00 00	 mulsd	 xmm2, QWORD PTR __real@3fe0000000000000
  0012c	f2 0f 11 55 a0	 movsd	 QWORD PTR tv542[ebp], xmm2
$LL2@DrawTextOr:
  00131	66 0f 6e c7	 movd	 xmm0, edi

; 62   : 		int nowPt_y = scaleTextRegion.top + CMath::Round(dOnePtWidth *(double)nIndex +dOnePtWidth/2.0);

  00135	83 ec 08	 sub	 esp, 8
  00138	f3 0f e6 c0	 cvtdq2pd xmm0, xmm0
  0013c	f2 0f 59 c1	 mulsd	 xmm0, xmm1
  00140	f2 0f 58 c2	 addsd	 xmm0, xmm2
  00144	f2 0f 11 04 24	 movsd	 QWORD PTR [esp], xmm0
  00149	e8 00 00 00 00	 call	 ?Round@CMath@@SAHN@Z	; CMath::Round
  0014e	8b 4d 10	 mov	 ecx, DWORD PTR _scaleTextRegion$[ebp]
  00151	83 c4 08	 add	 esp, 8
  00154	0f 57 c9	 xorps	 xmm1, xmm1
  00157	03 41 04	 add	 eax, DWORD PTR [ecx+4]
; File C:\Program Files (x86)\Microsoft Visual Studio\2019\Community\VC\Tools\MSVC\14.29.30133\atlmfc\include\afxtempl.h

; 811  : 	{ CNode* pNode = (CNode*) rPosition;

  0015a	8b ce		 mov	 ecx, esi

; 813  : 		rPosition = (POSITION) pNode->pNext;

  0015c	8b 36		 mov	 esi, DWORD PTR [esi]
; File D:\git\src\IBK\IBK_DRFN\ProjSrc\SrcChartEx\ChartOCX\ScaleDraw\SpecialScaleDrawer.cpp

; 62   : 		int nowPt_y = scaleTextRegion.top + CMath::Round(dOnePtWidth *(double)nIndex +dOnePtWidth/2.0);

  0015e	89 45 dc	 mov	 DWORD PTR _nowPt_y$1$[ebp], eax
; File C:\Program Files (x86)\Microsoft Visual Studio\2019\Community\VC\Tools\MSVC\14.29.30133\atlmfc\include\afxtempl.h

; 813  : 		rPosition = (POSITION) pNode->pNext;

  00161	89 75 d4	 mov	 DWORD PTR _pos$1$[ebp], esi
; File D:\git\src\IBK\IBK_DRFN\ProjSrc\SrcChartEx\ChartOCX\ScaleDraw\SpecialScaleDrawer.cpp

; 284  : 	return ((dData * 100.0) / dTotalData);

  00164	f2 0f 10 41 08	 movsd	 xmm0, QWORD PTR [ecx+8]
  00169	f2 0f 59 05 00
	00 00 00	 mulsd	 xmm0, QWORD PTR __real@4059000000000000
  00171	f2 0f 5e 45 c8	 divsd	 xmm0, QWORD PTR $T7[ebp]

; 63   : 		double dPercentData = GetPercentData(dTotalData, pDataList->GetNext(pos));

  00176	66 0f 2e c8	 ucomisd xmm1, xmm0
  0017a	f2 0f 11 45 a8	 movsd	 QWORD PTR _dPercentData$4[ebp], xmm0
  0017f	9f		 lahf
  00180	f6 c4 44	 test	 ah, 68			; 00000044H

; 64   : 
; 65   : 		// (2008/6/13 - Seung-Won, Bae) for Support BuySell Overhanging Supply.
; 66   : 		if( 0 != dPercentData)

  00183	0f 8b dd 00 00
	00		 jnp	 $LN7@DrawTextOr

; 68   : 			CString strData = CDataConversion::DoubleToString(dPercentData, 2) + "%";

  00189	6a 02		 push	 2
  0018b	8d 45 a8	 lea	 eax, DWORD PTR _dPercentData$4[ebp]
  0018e	50		 push	 eax
  0018f	8d 45 e0	 lea	 eax, DWORD PTR $T8[ebp]
  00192	50		 push	 eax
  00193	e8 00 00 00 00	 call	 ?DoubleToString@CDataConversion@@SA?AV?$CStringT@DV?$StrTraitMFC_DLL@DV?$ChTraitsCRT@D@ATL@@@@@ATL@@ABNH@Z ; CDataConversion::DoubleToString
  00198	83 c4 0c	 add	 esp, 12			; 0000000cH
  0019b	8b f0		 mov	 esi, eax
; File C:\Program Files (x86)\Microsoft Visual Studio\2019\Community\VC\Tools\MSVC\14.29.30133\atlmfc\include\cstringt.h

; 2401 : 		CStringT strResult( str1.GetManager() );

  0019d	8b ce		 mov	 ecx, esi
; File D:\git\src\IBK\IBK_DRFN\ProjSrc\SrcChartEx\ChartOCX\ScaleDraw\SpecialScaleDrawer.cpp

; 68   : 			CString strData = CDataConversion::DoubleToString(dPercentData, 2) + "%";

  0019f	c7 45 fc 01 00
	00 00		 mov	 DWORD PTR __$EHRec$[ebp+8], 1
; File C:\Program Files (x86)\Microsoft Visual Studio\2019\Community\VC\Tools\MSVC\14.29.30133\atlmfc\include\cstringt.h

; 2401 : 		CStringT strResult( str1.GetManager() );

  001a6	ff 15 00 00 00
	00		 call	 DWORD PTR __imp_?GetManager@?$CStringT@DV?$StrTraitMFC_DLL@DV?$ChTraitsCRT@D@ATL@@@@@ATL@@QBEPAUIAtlStringMgr@2@XZ
  001ac	50		 push	 eax
  001ad	8d 4d ec	 lea	 ecx, DWORD PTR _strData$10[ebp]
  001b0	ff 15 00 00 00
	00		 call	 DWORD PTR __imp_??0?$CStringT@DV?$StrTraitMFC_DLL@DV?$ChTraitsCRT@D@ATL@@@@@ATL@@QAE@PAUIAtlStringMgr@1@@Z

; 2404 : 
; 2405 : 		return( strResult );

  001b6	8b 45 f0	 mov	 eax, DWORD PTR $T11[ebp]
  001b9	83 c8 01	 or	 eax, 1
  001bc	89 45 f0	 mov	 DWORD PTR $T11[ebp], eax
  001bf	89 45 e4	 mov	 DWORD PTR $T9[ebp], eax
; File C:\Program Files (x86)\Microsoft Visual Studio\2019\Community\VC\Tools\MSVC\14.29.30133\atlmfc\include\atlsimpstr.h

; 519  : 		return( GetData()->nDataLength );

  001c2	8b 06		 mov	 eax, DWORD PTR [esi]
; File C:\Program Files (x86)\Microsoft Visual Studio\2019\Community\VC\Tools\MSVC\14.29.30133\atlmfc\include\cstringt.h

; 2403 : 		CThisSimpleString::Concatenate( strResult, str1, str1.GetLength(), psz2, CThisSimpleString::StringLength( psz2 ) );

  001c4	6a 01		 push	 1
  001c6	68 00 00 00 00	 push	 OFFSET ??_C@_01FGNFDNOH@?$CF@
  001cb	ff 70 f4	 push	 DWORD PTR [eax-12]
  001ce	50		 push	 eax
  001cf	8d 45 ec	 lea	 eax, DWORD PTR _strData$10[ebp]
  001d2	50		 push	 eax
  001d3	ff 15 00 00 00
	00		 call	 DWORD PTR __imp_?Concatenate@?$CSimpleStringT@D$00@ATL@@KAXAAV12@PBDH1H@Z
  001d9	83 c4 14	 add	 esp, 20			; 00000014H
; File D:\git\src\IBK\IBK_DRFN\ProjSrc\SrcChartEx\ChartOCX\ScaleDraw\SpecialScaleDrawer.cpp

; 68   : 			CString strData = CDataConversion::DoubleToString(dPercentData, 2) + "%";

  001dc	8d 4d e0	 lea	 ecx, DWORD PTR $T8[ebp]
  001df	c6 45 fc 02	 mov	 BYTE PTR __$EHRec$[ebp+8], 2
  001e3	ff 15 00 00 00
	00		 call	 DWORD PTR __imp_??1?$CStringT@DV?$StrTraitMFC_DLL@DV?$ChTraitsCRT@D@ATL@@@@@ATL@@QAE@XZ
; File C:\Program Files (x86)\Microsoft Visual Studio\2019\Community\VC\Tools\MSVC\14.29.30133\atlmfc\include\atlsimpstr.h

; 519  : 		return( GetData()->nDataLength );

  001e9	8b 45 ec	 mov	 eax, DWORD PTR _strData$10[ebp]
; File C:\Program Files (x86)\Microsoft Visual Studio\2019\Community\VC\Tools\MSVC\14.29.30133\atlmfc\include\afxwin1.inl

; 639  : 		VERIFY(::GetTextExtentPoint32(m_hAttribDC, str, (int)str.GetLength(), &size));

  001ec	8d 4d b8	 lea	 ecx, DWORD PTR _size$6[ebp]
  001ef	8b 75 08	 mov	 esi, DWORD PTR _pDC$[ebp]
  001f2	51		 push	 ecx
  001f3	ff 70 f4	 push	 DWORD PTR [eax-12]
  001f6	50		 push	 eax
  001f7	ff 76 08	 push	 DWORD PTR [esi+8]
  001fa	ff 15 00 00 00
	00		 call	 DWORD PTR __imp__GetTextExtentPoint32A@16
; File C:\Program Files (x86)\Microsoft Visual Studio\2019\Community\VC\Tools\MSVC\14.29.30133\atlmfc\include\atltypes.h

; 318  : 	*(SIZE*)this = initSize;

  00200	8b 45 b8	 mov	 eax, DWORD PTR _size$6[ebp]
  00203	8b 4d bc	 mov	 ecx, DWORD PTR _size$6[ebp+4]
  00206	89 45 b0	 mov	 DWORD PTR $T5[ebp], eax
; File D:\git\src\IBK\IBK_DRFN\ProjSrc\SrcChartEx\ChartOCX\ScaleDraw\SpecialScaleDrawer.cpp

; 69   : 			CDrawer::DrawTextOut(pDC, CVertScaleDrawer::GetTextPosition(scaleTextRegion.right, nowPt_y + 3, pDC->GetTextExtent(strData)),

  00209	8d 45 8c	 lea	 eax, DWORD PTR $T2[ebp]
; File C:\Program Files (x86)\Microsoft Visual Studio\2019\Community\VC\Tools\MSVC\14.29.30133\atlmfc\include\atltypes.h

; 318  : 	*(SIZE*)this = initSize;

  0020c	89 4d b4	 mov	 DWORD PTR $T5[ebp+4], ecx
; File D:\git\src\IBK\IBK_DRFN\ProjSrc\SrcChartEx\ChartOCX\ScaleDraw\SpecialScaleDrawer.cpp

; 69   : 			CDrawer::DrawTextOut(pDC, CVertScaleDrawer::GetTextPosition(scaleTextRegion.right, nowPt_y + 3, pDC->GetTextExtent(strData)),

  0020f	8b 4d 0c	 mov	 ecx, DWORD PTR _drawingVertScaleData$[ebp]
  00212	50		 push	 eax
  00213	e8 00 00 00 00	 call	 ?GetScaleColor@CDrawingVertScaleData@@QBE?AVCScaleColor@@XZ ; CDrawingVertScaleData::GetScaleColor
  00218	8b c8		 mov	 ecx, eax
  0021a	ff 15 00 00 00
	00		 call	 DWORD PTR __imp_?GetScaleTextColor@CScaleColor@@QAEAAKXZ
  00220	8b 4d e8	 mov	 ecx, DWORD PTR _this$1$[ebp]
  00223	ff 30		 push	 DWORD PTR [eax]
  00225	8d 45 ec	 lea	 eax, DWORD PTR _strData$10[ebp]
  00228	50		 push	 eax
  00229	6a 01		 push	 1
  0022b	8d 45 b0	 lea	 eax, DWORD PTR $T5[ebp]
  0022e	50		 push	 eax
  0022f	8b 45 dc	 mov	 eax, DWORD PTR _nowPt_y$1$[ebp]
  00232	83 c0 03	 add	 eax, 3
  00235	50		 push	 eax
  00236	8b 45 10	 mov	 eax, DWORD PTR _scaleTextRegion$[ebp]
  00239	ff 70 08	 push	 DWORD PTR [eax+8]
  0023c	8d 45 98	 lea	 eax, DWORD PTR $T3[ebp]
  0023f	50		 push	 eax
  00240	e8 00 00 00 00	 call	 ?GetTextPosition@CVertScaleDrawer@@IBE?AVCPoint@@HHABVCSize@@H@Z ; CVertScaleDrawer::GetTextPosition
  00245	8b 4d d8	 mov	 ecx, DWORD PTR tv544[ebp]
  00248	50		 push	 eax
  00249	56		 push	 esi
  0024a	e8 00 00 00 00	 call	 ?DrawTextOut@CDrawer@@IAEXPAVCDC@@ABVCPoint@@ABV?$CStringT@DV?$StrTraitMFC_DLL@DV?$ChTraitsCRT@D@ATL@@@@@ATL@@K@Z ; CDrawer::DrawTextOut
  0024f	83 65 f0 fe	 and	 DWORD PTR $T11[ebp], -2	; fffffffeH

; 70   : 				strData, drawingVertScaleData.GetScaleColor().GetScaleTextColor());
; 71   : 		}

  00253	8d 4d ec	 lea	 ecx, DWORD PTR _strData$10[ebp]
  00256	c7 45 fc ff ff
	ff ff		 mov	 DWORD PTR __$EHRec$[ebp+8], -1
  0025d	ff 15 00 00 00
	00		 call	 DWORD PTR __imp_??1?$CStringT@DV?$StrTraitMFC_DLL@DV?$ChTraitsCRT@D@ATL@@@@@ATL@@QAE@XZ
  00263	8b 75 d4	 mov	 esi, DWORD PTR _pos$1$[ebp]
$LN7@DrawTextOr:

; 72   : 
; 73   : 		if(++nIndex == nTotalCount)

  00266	47		 inc	 edi
  00267	3b 7d d0	 cmp	 edi, DWORD PTR _nTotalCount$1$[ebp]
  0026a	74 12		 je	 SHORT $LN75@DrawTextOr

; 61   : 	while(pos != NULL){

  0026c	f2 0f 10 4d c0	 movsd	 xmm1, QWORD PTR _dOnePtWidth$[ebp]
  00271	f2 0f 10 55 a0	 movsd	 xmm2, QWORD PTR tv542[ebp]
  00276	85 f6		 test	 esi, esi
  00278	0f 85 b3 fe ff
	ff		 jne	 $LL2@DrawTextOr
$LN75@DrawTextOr:

; 74   : 			break;
; 75   : 	}
; 76   : }

  0027e	8b 4d f4	 mov	 ecx, DWORD PTR __$EHRec$[ebp]
  00281	64 89 0d 00 00
	00 00		 mov	 DWORD PTR fs:0, ecx
  00288	59		 pop	 ecx
  00289	5f		 pop	 edi
  0028a	5e		 pop	 esi
  0028b	8b e5		 mov	 esp, ebp
  0028d	5d		 pop	 ebp
  0028e	c2 10 00	 ret	 16			; 00000010H
_TEXT	ENDS
;	COMDAT text$x
text$x	SEGMENT
__unwindfunclet$?DrawTextOrGrid_Volumn@CSaleScaleDrawer@@AAEXPAVCDC@@ABVCDrawingVertScaleData@@ABVCRect@@ABVCVerticalScale@@@Z$0:
  00000	8d 4d e0	 lea	 ecx, DWORD PTR $T8[ebp]
  00003	ff 25 00 00 00
	00		 jmp	 DWORD PTR __imp_??1?$CStringT@DV?$StrTraitMFC_DLL@DV?$ChTraitsCRT@D@ATL@@@@@ATL@@QAE@XZ
__unwindfunclet$?DrawTextOrGrid_Volumn@CSaleScaleDrawer@@AAEXPAVCDC@@ABVCDrawingVertScaleData@@ABVCRect@@ABVCVerticalScale@@@Z$2:
  00009	8b 45 e4	 mov	 eax, DWORD PTR $T9[ebp]
  0000c	83 e0 01	 and	 eax, 1
  0000f	0f 84 0d 00 00
	00		 je	 $LN45@DrawTextOr
  00015	83 65 e4 fe	 and	 DWORD PTR $T9[ebp], -2	; fffffffeH
  00019	8d 4d ec	 lea	 ecx, DWORD PTR _strData$10[ebp]
  0001c	ff 25 00 00 00
	00		 jmp	 DWORD PTR __imp_??1?$CStringT@DV?$StrTraitMFC_DLL@DV?$ChTraitsCRT@D@ATL@@@@@ATL@@QAE@XZ
$LN45@DrawTextOr:
  00022	c3		 ret	 0
  00023	cc		 int	 3
  00024	cc		 int	 3
  00025	cc		 int	 3
  00026	cc		 int	 3
  00027	cc		 int	 3
__ehhandler$?DrawTextOrGrid_Volumn@CSaleScaleDrawer@@AAEXPAVCDC@@ABVCDrawingVertScaleData@@ABVCRect@@ABVCVerticalScale@@@Z:
  00028	90		 npad	 1
  00029	90		 npad	 1
  0002a	8b 54 24 08	 mov	 edx, DWORD PTR [esp+8]
  0002e	8d 42 0c	 lea	 eax, DWORD PTR [edx+12]
  00031	8b 4a 8c	 mov	 ecx, DWORD PTR [edx-116]
  00034	33 c8		 xor	 ecx, eax
  00036	e8 00 00 00 00	 call	 @__security_check_cookie@4
  0003b	b8 00 00 00 00	 mov	 eax, OFFSET __ehfuncinfo$?DrawTextOrGrid_Volumn@CSaleScaleDrawer@@AAEXPAVCDC@@ABVCDrawingVertScaleData@@ABVCRect@@ABVCVerticalScale@@@Z
  00040	e9 00 00 00 00	 jmp	 ___CxxFrameHandler3
text$x	ENDS
?DrawTextOrGrid_Volumn@CSaleScaleDrawer@@AAEXPAVCDC@@ABVCDrawingVertScaleData@@ABVCRect@@ABVCVerticalScale@@@Z ENDP ; CSaleScaleDrawer::DrawTextOrGrid_Volumn
; Function compile flags: /Ogtp
; File D:\git\src\IBK\IBK_DRFN\ProjSrc\SrcChartEx\ChartOCX\ScaleDraw\SpecialScaleDrawer.cpp
;	COMDAT ?DrawTextOrGrid_Both@CSaleScaleDrawer@@UAEXPAVCDC@@ABVCDrawingVertScaleData@@ABVCVertScaleRegion@@ABVCVerticalScale@@@Z
_TEXT	SEGMENT
_this$GSCopy$1$ = -76					; size = 4
_pDC$GSCopy$1$ = -72					; size = 4
$T1 = -68						; size = 32
$T2 = -36						; size = 16
$T3 = -20						; size = 16
$T4 = -20						; size = 16
__$ArrayPad$ = -4					; size = 4
_pDC$ = 8						; size = 4
_drawingVertScaleData$ = 12				; size = 4
_vertScaleRegion$ = 16					; size = 4
_vertScale$ = 20					; size = 4
?DrawTextOrGrid_Both@CSaleScaleDrawer@@UAEXPAVCDC@@ABVCDrawingVertScaleData@@ABVCVertScaleRegion@@ABVCVerticalScale@@@Z PROC ; CSaleScaleDrawer::DrawTextOrGrid_Both, COMDAT
; _this$ = ecx

; 39   : {

  00000	55		 push	 ebp
  00001	8b ec		 mov	 ebp, esp
  00003	83 ec 4c	 sub	 esp, 76			; 0000004cH
  00006	a1 00 00 00 00	 mov	 eax, DWORD PTR ___security_cookie
  0000b	33 c5		 xor	 eax, ebp
  0000d	89 45 fc	 mov	 DWORD PTR __$ArrayPad$[ebp], eax
  00010	8b 45 08	 mov	 eax, DWORD PTR _pDC$[ebp]
  00013	53		 push	 ebx
  00014	8b 5d 0c	 mov	 ebx, DWORD PTR _drawingVertScaleData$[ebp]
  00017	56		 push	 esi
  00018	8b 75 14	 mov	 esi, DWORD PTR _vertScale$[ebp]
  0001b	57		 push	 edi
  0001c	8b 7d 10	 mov	 edi, DWORD PTR _vertScaleRegion$[ebp]
  0001f	89 45 b8	 mov	 DWORD PTR _pDC$GSCopy$1$[ebp], eax

; 40   : 	DrawTextOrGrid_Price(pDC, drawingVertScaleData, CScaleDrawingRegion(vertScaleRegion.GetLeftScaleTextRegion(), vertScaleRegion.GetLeftScaleGridRegion()), vertScale);

  00022	8d 45 dc	 lea	 eax, DWORD PTR $T2[ebp]
  00025	56		 push	 esi
  00026	89 4d b4	 mov	 DWORD PTR _this$GSCopy$1$[ebp], ecx
  00029	8b cf		 mov	 ecx, edi
  0002b	50		 push	 eax
  0002c	e8 00 00 00 00	 call	 ?GetLeftScaleGridRegion@CVertScaleRegion@@QBE?AVCRect@@XZ ; CVertScaleRegion::GetLeftScaleGridRegion
  00031	50		 push	 eax
  00032	8d 45 ec	 lea	 eax, DWORD PTR $T4[ebp]
  00035	8b cf		 mov	 ecx, edi
  00037	50		 push	 eax
  00038	e8 00 00 00 00	 call	 ?GetLeftScaleTextRegion@CVertScaleRegion@@QBE?AVCRect@@XZ ; CVertScaleRegion::GetLeftScaleTextRegion
  0003d	50		 push	 eax
  0003e	8d 4d bc	 lea	 ecx, DWORD PTR $T1[ebp]
  00041	e8 00 00 00 00	 call	 ??0CScaleDrawingRegion@@QAE@ABVCRect@@0@Z ; CScaleDrawingRegion::CScaleDrawingRegion
  00046	8b 4d b4	 mov	 ecx, DWORD PTR _this$GSCopy$1$[ebp]
  00049	50		 push	 eax
  0004a	53		 push	 ebx
  0004b	ff 75 b8	 push	 DWORD PTR _pDC$GSCopy$1$[ebp]
  0004e	e8 00 00 00 00	 call	 ?DrawTextOrGrid_Price@CSaleScaleDrawer@@AAEXPAVCDC@@ABVCDrawingVertScaleData@@ABVCScaleDrawingRegion@@ABVCVerticalScale@@@Z ; CSaleScaleDrawer::DrawTextOrGrid_Price

; 41   : 	DrawTextOrGrid_Volumn(pDC, drawingVertScaleData, vertScaleRegion.GetRightScaleTextRegion(), vertScale);

  00053	56		 push	 esi
  00054	8d 45 ec	 lea	 eax, DWORD PTR $T3[ebp]
  00057	8b cf		 mov	 ecx, edi
  00059	50		 push	 eax
  0005a	e8 00 00 00 00	 call	 ?GetRightScaleTextRegion@CVertScaleRegion@@QBE?AVCRect@@XZ ; CVertScaleRegion::GetRightScaleTextRegion
  0005f	8b 4d b4	 mov	 ecx, DWORD PTR _this$GSCopy$1$[ebp]
  00062	50		 push	 eax
  00063	53		 push	 ebx
  00064	ff 75 b8	 push	 DWORD PTR _pDC$GSCopy$1$[ebp]
  00067	e8 00 00 00 00	 call	 ?DrawTextOrGrid_Volumn@CSaleScaleDrawer@@AAEXPAVCDC@@ABVCDrawingVertScaleData@@ABVCRect@@ABVCVerticalScale@@@Z ; CSaleScaleDrawer::DrawTextOrGrid_Volumn

; 42   : }

  0006c	8b 4d fc	 mov	 ecx, DWORD PTR __$ArrayPad$[ebp]
  0006f	5f		 pop	 edi
  00070	5e		 pop	 esi
  00071	33 cd		 xor	 ecx, ebp
  00073	5b		 pop	 ebx
  00074	e8 00 00 00 00	 call	 @__security_check_cookie@4
  00079	8b e5		 mov	 esp, ebp
  0007b	5d		 pop	 ebp
  0007c	c2 10 00	 ret	 16			; 00000010H
?DrawTextOrGrid_Both@CSaleScaleDrawer@@UAEXPAVCDC@@ABVCDrawingVertScaleData@@ABVCVertScaleRegion@@ABVCVerticalScale@@@Z ENDP ; CSaleScaleDrawer::DrawTextOrGrid_Both
_TEXT	ENDS
; Function compile flags: /Ogtp
; File D:\git\src\IBK\IBK_DRFN\ProjSrc\SrcChartEx\ChartOCX\ScaleDraw\SpecialScaleDrawer.cpp
;	COMDAT ?DrawTextOrGrid@CSaleScaleDrawer@@UAEXPAVCDC@@ABVCDrawingVertScaleData@@ABVCScaleDrawingRegion@@ABVCVerticalScale@@@Z
_TEXT	SEGMENT
_pDC$ = 8						; size = 4
_drawingVertScaleData$ = 12				; size = 4
_scaleRegion$ = 16					; size = 4
_vertScale$ = 20					; size = 4
?DrawTextOrGrid@CSaleScaleDrawer@@UAEXPAVCDC@@ABVCDrawingVertScaleData@@ABVCScaleDrawingRegion@@ABVCVerticalScale@@@Z PROC ; CSaleScaleDrawer::DrawTextOrGrid, COMDAT
; _this$ = ecx

; 29   : {

  00000	55		 push	 ebp
  00001	8b ec		 mov	 ebp, esp

; 35   : }

  00003	5d		 pop	 ebp

; 30   : 	// (2008/4/28 - Seung-Won, Bae) Show Price for Only One Scale Area
; 31   : 	//	if(scaleRegion.GetScaleTextRegion().left > drawingVertScaleData.GetDrawingGraphRegion().left)
; 32   : 	//		DrawTextOrGrid_Volumn(pDC, drawingVertScaleData, scaleRegion.GetScaleTextRegion(), vertScale);
; 33   : 	//	else if(scaleRegion.GetScaleTextRegion().left < drawingVertScaleData.GetDrawingGraphRegion().left)
; 34   : 	DrawTextOrGrid_Price(pDC, drawingVertScaleData, scaleRegion, vertScale);

  00004	e9 00 00 00 00	 jmp	 ?DrawTextOrGrid_Price@CSaleScaleDrawer@@AAEXPAVCDC@@ABVCDrawingVertScaleData@@ABVCScaleDrawingRegion@@ABVCVerticalScale@@@Z ; CSaleScaleDrawer::DrawTextOrGrid_Price
?DrawTextOrGrid@CSaleScaleDrawer@@UAEXPAVCDC@@ABVCDrawingVertScaleData@@ABVCScaleDrawingRegion@@ABVCVerticalScale@@@Z ENDP ; CSaleScaleDrawer::DrawTextOrGrid
_TEXT	ENDS
; Function compile flags: /Ogtp
; File D:\git\src\IBK\IBK_DRFN\ProjSrc\SrcChartEx\ChartOCX\ScaleDraw\SpecialScaleDrawer.cpp
;	COMDAT ??0CSaleScaleDrawer@@QAE@PAUHWND__@@W4CHART_MODE@CChartInfo@@@Z
_TEXT	SEGMENT
_p_hOcxWnd$ = 8						; size = 4
_p_eChartMode$ = 12					; size = 4
??0CSaleScaleDrawer@@QAE@PAUHWND__@@W4CHART_MODE@CChartInfo@@@Z PROC ; CSaleScaleDrawer::CSaleScaleDrawer, COMDAT
; _this$ = ecx

; 24   : {

  00000	55		 push	 ebp
  00001	8b ec		 mov	 ebp, esp
  00003	56		 push	 esi
  00004	ff 75 0c	 push	 DWORD PTR _p_eChartMode$[ebp]
  00007	8b f1		 mov	 esi, ecx
  00009	ff 75 08	 push	 DWORD PTR _p_hOcxWnd$[ebp]
  0000c	e8 00 00 00 00	 call	 ??0CPriceScaleDrawer@@QAE@PAUHWND__@@W4CHART_MODE@CChartInfo@@@Z ; CPriceScaleDrawer::CPriceScaleDrawer
  00011	c7 06 00 00 00
	00		 mov	 DWORD PTR [esi], OFFSET ??_7CSaleScaleDrawer@@6B@

; 25   : }

  00017	8b c6		 mov	 eax, esi
  00019	5e		 pop	 esi
  0001a	5d		 pop	 ebp
  0001b	c2 08 00	 ret	 8
??0CSaleScaleDrawer@@QAE@PAUHWND__@@W4CHART_MODE@CChartInfo@@@Z ENDP ; CSaleScaleDrawer::CSaleScaleDrawer
_TEXT	ENDS
; Function compile flags: /Ogtp
; File C:\Program Files (x86)\Microsoft Visual Studio\2019\Community\VC\Tools\MSVC\14.29.30133\atlmfc\include\afxwin1.inl
; File C:\Program Files (x86)\Microsoft Visual Studio\2019\Community\VC\Tools\MSVC\14.29.30133\atlmfc\include\afx.inl
;	COMDAT ??_GCPen@@UAEPAXI@Z
_TEXT	SEGMENT
___flags$ = 8						; size = 4
??_GCPen@@UAEPAXI@Z PROC				; CPen::`scalar deleting destructor', COMDAT
; _this$ = ecx
  00000	55		 push	 ebp
  00001	8b ec		 mov	 ebp, esp
; File C:\Program Files (x86)\Microsoft Visual Studio\2019\Community\VC\Tools\MSVC\14.29.30133\atlmfc\include\afxwin1.inl

; 106  : 	{ }

  00003	56		 push	 esi
  00004	8b f1		 mov	 esi, ecx
  00006	c7 06 00 00 00
	00		 mov	 DWORD PTR [esi], OFFSET ??_7CPen@@6B@
  0000c	e8 00 00 00 00	 call	 ??1CGdiObject@@UAE@XZ	; CGdiObject::~CGdiObject
  00011	8b 45 08	 mov	 eax, DWORD PTR ___flags$[ebp]
  00014	a8 01		 test	 al, 1
  00016	74 1f		 je	 SHORT $LN12@scalar
  00018	a8 04		 test	 al, 4
  0001a	75 10		 jne	 SHORT $LN3@scalar
; File C:\Program Files (x86)\Microsoft Visual Studio\2019\Community\VC\Tools\MSVC\14.29.30133\atlmfc\include\afx.inl

; 112  : 	{ ::operator delete(p); }

  0001c	56		 push	 esi
  0001d	e8 00 00 00 00	 call	 ??3@YAXPAX@Z		; operator delete
  00022	83 c4 04	 add	 esp, 4
  00025	8b c6		 mov	 eax, esi
  00027	5e		 pop	 esi
  00028	5d		 pop	 ebp
  00029	c2 04 00	 ret	 4
$LN3@scalar:
  0002c	6a 08		 push	 8
  0002e	56		 push	 esi
  0002f	e8 00 00 00 00	 call	 ?__global_delete@@YAXPAXI@Z ; __global_delete
  00034	83 c4 08	 add	 esp, 8
$LN12@scalar:
  00037	8b c6		 mov	 eax, esi
  00039	5e		 pop	 esi
  0003a	5d		 pop	 ebp
  0003b	c2 04 00	 ret	 4
??_GCPen@@UAEPAXI@Z ENDP				; CPen::`scalar deleting destructor'
_TEXT	ENDS
; Function compile flags: /Ogtp
; File C:\Program Files (x86)\Microsoft Visual Studio\2019\Community\VC\Tools\MSVC\14.29.30133\atlmfc\include\afxwin1.inl
;	COMDAT ??1CPen@@UAE@XZ
_TEXT	SEGMENT
??1CPen@@UAE@XZ PROC					; CPen::~CPen, COMDAT
; _this$ = ecx

; 106  : 	{ }

  00000	c7 01 00 00 00
	00		 mov	 DWORD PTR [ecx], OFFSET ??_7CPen@@6B@
  00006	e9 00 00 00 00	 jmp	 ??1CGdiObject@@UAE@XZ	; CGdiObject::~CGdiObject
??1CPen@@UAE@XZ ENDP					; CPen::~CPen
_TEXT	ENDS
; Function compile flags: /Ogtp
; File C:\Program Files (x86)\Microsoft Visual Studio\2019\Community\VC\Tools\MSVC\14.29.30133\atlmfc\include\afx.inl
;	COMDAT ??_GCGdiObject@@UAEPAXI@Z
_TEXT	SEGMENT
___flags$ = 8						; size = 4
??_GCGdiObject@@UAEPAXI@Z PROC				; CGdiObject::`scalar deleting destructor', COMDAT
; _this$ = ecx
  00000	55		 push	 ebp
  00001	8b ec		 mov	 ebp, esp
  00003	56		 push	 esi
  00004	8b f1		 mov	 esi, ecx
  00006	e8 00 00 00 00	 call	 ??1CGdiObject@@UAE@XZ	; CGdiObject::~CGdiObject
  0000b	8b 45 08	 mov	 eax, DWORD PTR ___flags$[ebp]
  0000e	a8 01		 test	 al, 1
  00010	74 1f		 je	 SHORT $LN9@scalar
  00012	a8 04		 test	 al, 4
  00014	75 10		 jne	 SHORT $LN3@scalar

; 112  : 	{ ::operator delete(p); }

  00016	56		 push	 esi
  00017	e8 00 00 00 00	 call	 ??3@YAXPAX@Z		; operator delete
  0001c	83 c4 04	 add	 esp, 4
  0001f	8b c6		 mov	 eax, esi
  00021	5e		 pop	 esi
  00022	5d		 pop	 ebp
  00023	c2 04 00	 ret	 4
$LN3@scalar:
  00026	6a 08		 push	 8
  00028	56		 push	 esi
  00029	e8 00 00 00 00	 call	 ?__global_delete@@YAXPAXI@Z ; __global_delete
  0002e	83 c4 08	 add	 esp, 8
$LN9@scalar:
  00031	8b c6		 mov	 eax, esi
  00033	5e		 pop	 esi
  00034	5d		 pop	 ebp
  00035	c2 04 00	 ret	 4
??_GCGdiObject@@UAEPAXI@Z ENDP				; CGdiObject::`scalar deleting destructor'
_TEXT	ENDS
; Function compile flags: /Ogtp
; File C:\Program Files (x86)\Microsoft Visual Studio\2019\Community\VC\Tools\MSVC\14.29.30133\atlmfc\include\afxwin1.inl
;	COMDAT ??1CGdiObject@@UAE@XZ
_TEXT	SEGMENT
_pException$2 = -540					; size = 4
_strMsg$3 = -536					; size = 4
_szErrorMessage$4 = -532				; size = 512
__$ArrayPad$ = -20					; size = 4
__$EHRec$ = -16						; size = 16
??1CGdiObject@@UAE@XZ PROC				; CGdiObject::~CGdiObject, COMDAT
; _this$ = ecx

; 74   : {

  00000	55		 push	 ebp
  00001	8b ec		 mov	 ebp, esp
  00003	6a ff		 push	 -1
  00005	68 00 00 00 00	 push	 __ehhandler$??1CGdiObject@@UAE@XZ
  0000a	64 a1 00 00 00
	00		 mov	 eax, DWORD PTR fs:0
  00010	50		 push	 eax
  00011	81 ec 10 02 00
	00		 sub	 esp, 528		; 00000210H
  00017	a1 00 00 00 00	 mov	 eax, DWORD PTR ___security_cookie
  0001c	33 c5		 xor	 eax, ebp
  0001e	89 45 ec	 mov	 DWORD PTR __$ArrayPad$[ebp], eax
  00021	53		 push	 ebx
  00022	56		 push	 esi
  00023	57		 push	 edi
  00024	50		 push	 eax
  00025	8d 45 f4	 lea	 eax, DWORD PTR __$EHRec$[ebp+4]
  00028	64 a3 00 00 00
	00		 mov	 DWORD PTR fs:0, eax
  0002e	89 65 f0	 mov	 DWORD PTR __$EHRec$[ebp], esp
  00031	c7 01 00 00 00
	00		 mov	 DWORD PTR [ecx], OFFSET ??_7CGdiObject@@6B@

; 75   : 	AFX_BEGIN_DESTRUCTOR

  00037	c7 45 fc 00 00
	00 00		 mov	 DWORD PTR __$EHRec$[ebp+12], 0

; 76   : 	DeleteObject();

  0003e	e8 00 00 00 00	 call	 ?DeleteObject@CGdiObject@@QAEHXZ ; CGdiObject::DeleteObject
$LN18@CGdiObject:

; 78   : }

  00043	8b 4d f4	 mov	 ecx, DWORD PTR __$EHRec$[ebp+4]
  00046	64 89 0d 00 00
	00 00		 mov	 DWORD PTR fs:0, ecx
  0004d	59		 pop	 ecx
  0004e	5f		 pop	 edi
  0004f	5e		 pop	 esi
  00050	5b		 pop	 ebx
  00051	8b 4d ec	 mov	 ecx, DWORD PTR __$ArrayPad$[ebp]
  00054	33 cd		 xor	 ecx, ebp
  00056	e8 00 00 00 00	 call	 @__security_check_cookie@4
  0005b	8b e5		 mov	 esp, ebp
  0005d	5d		 pop	 ebp
  0005e	c3		 ret	 0
__catch$??1CGdiObject@@UAE@XZ$0:

; 77   : 	AFX_END_DESTRUCTOR

  0005f	8d 8d e8 fd ff
	ff		 lea	 ecx, DWORD PTR _strMsg$3[ebp]
  00065	ff 15 00 00 00
	00		 call	 DWORD PTR __imp_??0?$CStringT@DV?$StrTraitMFC_DLL@DV?$ChTraitsCRT@D@ATL@@@@@ATL@@QAE@XZ
  0006b	8b b5 e4 fd ff
	ff		 mov	 esi, DWORD PTR _pException$2[ebp]
  00071	8d 8d ec fd ff
	ff		 lea	 ecx, DWORD PTR _szErrorMessage$4[ebp]
  00077	6a 00		 push	 0
  00079	68 00 02 00 00	 push	 512			; 00000200H
  0007e	51		 push	 ecx
  0007f	8b 06		 mov	 eax, DWORD PTR [esi]
  00081	8b ce		 mov	 ecx, esi
  00083	c6 45 fc 02	 mov	 BYTE PTR __$EHRec$[ebp+12], 2
  00087	ff 50 14	 call	 DWORD PTR [eax+20]
  0008a	85 c0		 test	 eax, eax
  0008c	74 2a		 je	 SHORT $LN9@CGdiObject
  0008e	8d 85 ec fd ff
	ff		 lea	 eax, DWORD PTR _szErrorMessage$4[ebp]
  00094	50		 push	 eax
  00095	6a 4d		 push	 77			; 0000004dH
  00097	68 00 00 00 00	 push	 OFFSET ??_C@_0HD@JJCHHHNK@C?3?2Program?5Files?5?$CIx86?$CJ?2Microsof@
  0009c	68 00 00 00 00	 push	 OFFSET ??_C@_0BP@OIEOKIDM@Exception?5thrown?5in?5destructor@
  000a1	8d 85 e8 fd ff
	ff		 lea	 eax, DWORD PTR _strMsg$3[ebp]
  000a7	68 00 00 00 00	 push	 OFFSET ??_C@_0BB@HBOOMJBF@?$CFTs?5?$CI?$CFTs?3?$CFd?$CJ?6?$CFTs@
  000ac	50		 push	 eax
  000ad	ff 15 00 00 00
	00		 call	 DWORD PTR __imp_?Format@?$CStringT@DV?$StrTraitMFC_DLL@DV?$ChTraitsCRT@D@ATL@@@@@ATL@@QAAXPBDZZ
  000b3	83 c4 18	 add	 esp, 24			; 00000018H
  000b6	eb 21		 jmp	 SHORT $LN10@CGdiObject
$LN9@CGdiObject:
  000b8	6a 4d		 push	 77			; 0000004dH
  000ba	68 00 00 00 00	 push	 OFFSET ??_C@_0HD@JJCHHHNK@C?3?2Program?5Files?5?$CIx86?$CJ?2Microsof@
  000bf	68 00 00 00 00	 push	 OFFSET ??_C@_0BP@OIEOKIDM@Exception?5thrown?5in?5destructor@
  000c4	8d 85 e8 fd ff
	ff		 lea	 eax, DWORD PTR _strMsg$3[ebp]
  000ca	68 00 00 00 00	 push	 OFFSET ??_C@_0N@OMEMOKLE@?$CFTs?5?$CI?$CFTs?3?$CFd?$CJ@
  000cf	50		 push	 eax
  000d0	ff 15 00 00 00
	00		 call	 DWORD PTR __imp_?Format@?$CStringT@DV?$StrTraitMFC_DLL@DV?$ChTraitsCRT@D@ATL@@@@@ATL@@QAAXPBDZZ
  000d6	83 c4 14	 add	 esp, 20			; 00000014H
$LN10@CGdiObject:
  000d9	6a 00		 push	 0
  000db	6a 00		 push	 0
  000dd	ff b5 e8 fd ff
	ff		 push	 DWORD PTR _strMsg$3[ebp]
  000e3	e8 00 00 00 00	 call	 ?AfxMessageBox@@YGHPBDII@Z ; AfxMessageBox
  000e8	8d 8d e8 fd ff
	ff		 lea	 ecx, DWORD PTR _strMsg$3[ebp]
  000ee	ff 15 00 00 00
	00		 call	 DWORD PTR __imp_??1?$CStringT@DV?$StrTraitMFC_DLL@DV?$ChTraitsCRT@D@ATL@@@@@ATL@@QAE@XZ
  000f4	8b 06		 mov	 eax, DWORD PTR [esi]
  000f6	8b ce		 mov	 ecx, esi
  000f8	6a 01		 push	 1
  000fa	ff 50 04	 call	 DWORD PTR [eax+4]
  000fd	b8 00 00 00 00	 mov	 eax, $LN18@CGdiObject
  00102	c3		 ret	 0
_TEXT	ENDS
;	COMDAT text$x
text$x	SEGMENT
__unwindfunclet$??1CGdiObject@@UAE@XZ$2:
  00000	8d 8d e8 fd ff
	ff		 lea	 ecx, DWORD PTR _strMsg$3[ebp]
  00006	ff 25 00 00 00
	00		 jmp	 DWORD PTR __imp_??1?$CStringT@DV?$StrTraitMFC_DLL@DV?$ChTraitsCRT@D@ATL@@@@@ATL@@QAE@XZ
  0000c	cc		 int	 3
  0000d	cc		 int	 3
  0000e	cc		 int	 3
  0000f	cc		 int	 3
  00010	cc		 int	 3
__ehhandler$??1CGdiObject@@UAE@XZ:
  00011	90		 npad	 1
  00012	90		 npad	 1
  00013	8b 54 24 08	 mov	 edx, DWORD PTR [esp+8]
  00017	8d 42 0c	 lea	 eax, DWORD PTR [edx+12]
  0001a	8b 8a e0 fd ff
	ff		 mov	 ecx, DWORD PTR [edx-544]
  00020	33 c8		 xor	 ecx, eax
  00022	e8 00 00 00 00	 call	 @__security_check_cookie@4
  00027	8b 4a f8	 mov	 ecx, DWORD PTR [edx-8]
  0002a	33 c8		 xor	 ecx, eax
  0002c	e8 00 00 00 00	 call	 @__security_check_cookie@4
  00031	b8 00 00 00 00	 mov	 eax, OFFSET __ehfuncinfo$??1CGdiObject@@UAE@XZ
  00036	e9 00 00 00 00	 jmp	 ___CxxFrameHandler3
text$x	ENDS
??1CGdiObject@@UAE@XZ ENDP				; CGdiObject::~CGdiObject
; Function compile flags: /Ogtp
; File C:\Program Files (x86)\Microsoft Visual Studio\2019\Community\VC\Tools\MSVC\14.29.30133\atlmfc\include\afx.inl
;	COMDAT ?Dump@CObject@@UBEXAAVCDumpContext@@@Z
_TEXT	SEGMENT
___formal$ = 8						; size = 4
?Dump@CObject@@UBEXAAVCDumpContext@@@Z PROC		; CObject::Dump, COMDAT
; _this$ = ecx

; 122  : 	{ /* no dumping in release builds */ }

  00000	c2 04 00	 ret	 4
?Dump@CObject@@UBEXAAVCDumpContext@@@Z ENDP		; CObject::Dump
_TEXT	ENDS
; Function compile flags: /Ogtp
; File C:\Program Files (x86)\Microsoft Visual Studio\2019\Community\VC\Tools\MSVC\14.29.30133\atlmfc\include\afx.inl
;	COMDAT ?AssertValid@CObject@@UBEXXZ
_TEXT	SEGMENT
?AssertValid@CObject@@UBEXXZ PROC			; CObject::AssertValid, COMDAT
; _this$ = ecx

; 120  : 	{ /* no asserts in release builds */ }

  00000	c2 00 00	 ret	 0
?AssertValid@CObject@@UBEXXZ ENDP			; CObject::AssertValid
_TEXT	ENDS
; Function compile flags: /Ogtp
; File C:\Program Files (x86)\Microsoft Visual Studio\2019\Community\VC\Tools\MSVC\14.29.30133\atlmfc\include\afx.inl
;	COMDAT ?Serialize@CObject@@UAEXAAVCArchive@@@Z
_TEXT	SEGMENT
___formal$ = 8						; size = 4
?Serialize@CObject@@UAEXAAVCArchive@@@Z PROC		; CObject::Serialize, COMDAT
; _this$ = ecx

; 106  : 	{ /* CObject does not serialize anything by default */ }

  00000	c2 04 00	 ret	 4
?Serialize@CObject@@UAEXAAVCArchive@@@Z ENDP		; CObject::Serialize
_TEXT	ENDS
; Function compile flags: /Ogtp
; File C:\Program Files (x86)\Microsoft Visual Studio\2019\Community\VC\Tools\MSVC\14.29.30133\atlmfc\include\afx.inl
;	COMDAT ??1CObject@@UAE@XZ
_TEXT	SEGMENT
??1CObject@@UAE@XZ PROC					; CObject::~CObject, COMDAT
; _this$ = ecx

; 104  : 	{ }

  00000	c2 00 00	 ret	 0
??1CObject@@UAE@XZ ENDP					; CObject::~CObject
_TEXT	ENDS
; Function compile flags: /Ogtp
; File D:\git\src\IBK\IBK_DRFN\ProjSrc\SrcChartEx\ChartOCX\ScaleDraw\SpecialScaleDrawer.cpp
;	COMDAT ?__empty_global_delete@@YAXPAXI@Z
_TEXT	SEGMENT
___formal$ = 8						; size = 4
___formal$ = 12						; size = 4
?__empty_global_delete@@YAXPAXI@Z PROC			; __empty_global_delete, COMDAT

  00000	c2 00 00	 ret	 0
?__empty_global_delete@@YAXPAXI@Z ENDP			; __empty_global_delete
_TEXT	ENDS
; Function compile flags: /Ogtp
; File D:\git\src\IBK\IBK_DRFN\ProjSrc\SrcChartEx\ChartOCX\ScaleDraw\SpecialScaleDrawer.cpp
;	COMDAT ?__empty_global_delete@@YAXPAX@Z
_TEXT	SEGMENT
___formal$ = 8						; size = 4
?__empty_global_delete@@YAXPAX@Z PROC			; __empty_global_delete, COMDAT

  00000	c2 00 00	 ret	 0
?__empty_global_delete@@YAXPAX@Z ENDP			; __empty_global_delete
_TEXT	ENDS
END
