; Listing generated by Microsoft (R) Optimizing Compiler Version 19.29.30145.0 

	TITLE	D:\git\src\IBK\IBK_DRFN\#DRfn-CS\_Obj\ChartEnvSetupDlgAddIn\_ChartAddInBase.obj
	.686P
	.XMM
	include listing.inc
	.model	flat

INCLUDELIB MSVCRT
INCLUDELIB OLDNAMES

PUBLIC	?__empty_global_delete@@YAXPAX@Z		; __empty_global_delete
PUBLIC	?__empty_global_delete@@YAXPAXI@Z		; __empty_global_delete
PUBLIC	?Serialize@CObject@@UAEXAAVCArchive@@@Z		; CObject::Serialize
PUBLIC	?AssertValid@CObject@@UBEXXZ			; CObject::AssertValid
PUBLIC	?Dump@CObject@@UBEXAAVCDumpContext@@@Z		; CObject::Dump
PUBLIC	?_AfxInitManaged@@YAHXZ				; _AfxInitManaged
PUBLIC	?PostConstruct@CIWUnknown@@MAEXXZ		; CIWUnknown::PostConstruct
PUBLIC	?PreDestructX@CIWUnknown@@MAEXXZ		; CIWUnknown::PreDestructX
PUBLIC	?PreDestruct@CIWUnknown@@MAEXXZ			; CIWUnknown::PreDestruct
PUBLIC	??1IChartAddIn135914@@MAE@XZ			; IChartAddIn135914::~IChartAddIn135914
PUBLIC	??_GIChartAddIn135914@@MAEPAXI@Z		; IChartAddIn135914::`scalar deleting destructor'
PUBLIC	??0CChartAddInBase135914@@IAE@PAUIChartOCX135914@@PAUIAddInDllBase@@@Z ; CChartAddInBase135914::CChartAddInBase135914
PUBLIC	??1CChartAddInBase135914@@MAE@XZ		; CChartAddInBase135914::~CChartAddInBase135914
PUBLIC	?AddRef@CChartAddInBase135914@@MAGKXZ		; CChartAddInBase135914::AddRef
PUBLIC	?Release@CChartAddInBase135914@@MAGKXZ		; CChartAddInBase135914::Release
PUBLIC	?QueryInterface@CChartAddInBase135914@@MAGJABU_GUID@@PAPAX@Z ; CChartAddInBase135914::QueryInterface
PUBLIC	?HasFullManager@CChartAddInBase135914@@MAEHXZ	; CChartAddInBase135914::HasFullManager
PUBLIC	?GetAddInCustomInterface@CChartAddInBase135914@@MAEPAUIUnknown@@XZ ; CChartAddInBase135914::GetAddInCustomInterface
PUBLIC	?InvokeAddIn@CChartAddInBase135914@@MAEHHJ@Z	; CChartAddInBase135914::InvokeAddIn
PUBLIC	?InvokeAddInStr@CChartAddInBase135914@@MAEHPBD0@Z ; CChartAddInBase135914::InvokeAddInStr
PUBLIC	?GetGlobalAddInEventType@CChartAddInBase135914@@MBE?AW4EAddInEventType@IAddInDllBase@@J@Z ; CChartAddInBase135914::GetGlobalAddInEventType
PUBLIC	?RegisterEventMap@CChartAddInBase135914@@UAEHH@Z ; CChartAddInBase135914::RegisterEventMap
PUBLIC	?UnregisterEventMap@CChartAddInBase135914@@UAEHXZ ; CChartAddInBase135914::UnregisterEventMap
PUBLIC	?OnGSharedDataChange@CChartAddInBase135914@@MAEXPBD0H@Z ; CChartAddInBase135914::OnGSharedDataChange
PUBLIC	?OnLSharedDataChange@CChartAddInBase135914@@MAEXPBD0@Z ; CChartAddInBase135914::OnLSharedDataChange
PUBLIC	?OnSharedDataChange@CChartAddInBase135914@@MAEXPBD0H@Z ; CChartAddInBase135914::OnSharedDataChange
PUBLIC	?OnResetChart@CChartAddInBase135914@@MAEXXZ	; CChartAddInBase135914::OnResetChart
PUBLIC	?OnDrawBeforeGraph@CChartAddInBase135914@@MAEXPAUHDC__@@@Z ; CChartAddInBase135914::OnDrawBeforeGraph
PUBLIC	?OnDrawAfterGraph@CChartAddInBase135914@@MAEXPAUHDC__@@@Z ; CChartAddInBase135914::OnDrawAfterGraph
PUBLIC	?OnPacketData@CChartAddInBase135914@@MAEXPBDH@Z	; CChartAddInBase135914::OnPacketData
PUBLIC	?OnUpdatePacketData@CChartAddInBase135914@@MAEXH@Z ; CChartAddInBase135914::OnUpdatePacketData
PUBLIC	?OnTimer@CChartAddInBase135914@@MAEXI@Z		; CChartAddInBase135914::OnTimer
PUBLIC	?OnCaptureChanged@CChartAddInBase135914@@MAEXPAUHWND__@@@Z ; CChartAddInBase135914::OnCaptureChanged
PUBLIC	?OnDrdsData@CChartAddInBase135914@@MAEXIJ@Z	; CChartAddInBase135914::OnDrdsData
PUBLIC	?OnDrdsPacketEnd@CChartAddInBase135914@@MAEXIJ@Z ; CChartAddInBase135914::OnDrdsPacketEnd
PUBLIC	?OnGraphDeleted@CChartAddInBase135914@@MAEXPBD0@Z ; CChartAddInBase135914::OnGraphDeleted
PUBLIC	?OnCmdMsg@CChartAddInBase135914@@MAEHIHPAUICmdUI135914@@@Z ; CChartAddInBase135914::OnCmdMsg
PUBLIC	?OnAddInToolCommand@CChartAddInBase135914@@MAEHW4EAICommandType@@@Z ; CChartAddInBase135914::OnAddInToolCommand
PUBLIC	?OnAddInToolCommand@CChartAddInBase135914@@MAEHW4EAICommandType@@PAUHDC__@@IAAUtagPOINT@@K@Z ; CChartAddInBase135914::OnAddInToolCommand
PUBLIC	?OnAddInToolCommand@CChartAddInBase135914@@MAEHW4EAICommandType@@PBD@Z ; CChartAddInBase135914::OnAddInToolCommand
PUBLIC	?OnAddInToolCommand@CChartAddInBase135914@@MAEHW4EAICommandType@@PBDJ@Z ; CChartAddInBase135914::OnAddInToolCommand
PUBLIC	?OnAddInToolCommand@CChartAddInBase135914@@MAEHW4EAICommandType@@PBVCBlockBehaviorData@@@Z ; CChartAddInBase135914::OnAddInToolCommand
PUBLIC	?OnAddInToolCommand@CChartAddInBase135914@@MAEHW4EAICommandType@@PBUIAddInDllBase@@@Z ; CChartAddInBase135914::OnAddInToolCommand
PUBLIC	?OnAddInToolCommand@CChartAddInBase135914@@MAEHW4EAICommandType@@J@Z ; CChartAddInBase135914::OnAddInToolCommand
PUBLIC	?OnAddInToolCommand@CChartAddInBase135914@@MAEHW4EAICommandType@@JPBD@Z ; CChartAddInBase135914::OnAddInToolCommand
PUBLIC	?OnAddInToolCommand@CChartAddInBase135914@@MAEHW4EAICommandType@@JPBD11@Z ; CChartAddInBase135914::OnAddInToolCommand
PUBLIC	?OnAddInToolCommand@CChartAddInBase135914@@MAEHW4EAICommandType@@JJ@Z ; CChartAddInBase135914::OnAddInToolCommand
PUBLIC	?OnAddInToolCommand@CChartAddInBase135914@@MAEHW4EAICommandType@@JJJJJJJJJ@Z ; CChartAddInBase135914::OnAddInToolCommand
PUBLIC	?OnAddInToolCommand@CChartAddInBase135914@@MAEHW4EAICommandType@@PAUHWND__@@AAUtagPOINT@@@Z ; CChartAddInBase135914::OnAddInToolCommand
PUBLIC	?OnAddInToolCommand@CChartAddInBase135914@@MAEHAAJW4EAICommandType@@@Z ; CChartAddInBase135914::OnAddInToolCommand
PUBLIC	?OnAddInToolCommand@CChartAddInBase135914@@MAEHAAJW4EAICommandType@@PAUIGraphInfo135914@@@Z ; CChartAddInBase135914::OnAddInToolCommand
PUBLIC	?OnAddInToolCommand@CChartAddInBase135914@@MAEHAAJW4EAICommandType@@PBD@Z ; CChartAddInBase135914::OnAddInToolCommand
PUBLIC	?OnAddInToolCommand@CChartAddInBase135914@@MAEHAAJW4EAICommandType@@PBDPAVCObject@@@Z ; CChartAddInBase135914::OnAddInToolCommand
PUBLIC	?OnAddInToolCommand@CChartAddInBase135914@@MAEHAAJW4EAICommandType@@J@Z ; CChartAddInBase135914::OnAddInToolCommand
PUBLIC	?OnAddInToolCommand@CChartAddInBase135914@@MAEHAAJW4EAICommandType@@JJ@Z ; CChartAddInBase135914::OnAddInToolCommand
PUBLIC	?OnKeyDown@CChartAddInBase135914@@MAEHIII@Z	; CChartAddInBase135914::OnKeyDown
PUBLIC	?OnKeyUp@CChartAddInBase135914@@MAEHIII@Z	; CChartAddInBase135914::OnKeyUp
PUBLIC	?OnMouseWheel@CChartAddInBase135914@@MAEHIFUtagPOINT@@K@Z ; CChartAddInBase135914::OnMouseWheel
PUBLIC	?OnMouseMove@CChartAddInBase135914@@MAEHPAUHDC__@@IAAUtagPOINT@@K@Z ; CChartAddInBase135914::OnMouseMove
PUBLIC	?OnLButtonDown@CChartAddInBase135914@@MAEHPAUHDC__@@IAAUtagPOINT@@K@Z ; CChartAddInBase135914::OnLButtonDown
PUBLIC	?OnLButtonUp@CChartAddInBase135914@@MAEHPAUHDC__@@IAAUtagPOINT@@K@Z ; CChartAddInBase135914::OnLButtonUp
PUBLIC	?OnLButtonDblClk@CChartAddInBase135914@@MAEHPAUHDC__@@IAAUtagPOINT@@K@Z ; CChartAddInBase135914::OnLButtonDblClk
PUBLIC	?OnRButtonDown@CChartAddInBase135914@@MAEHPAUHDC__@@IAAUtagPOINT@@K@Z ; CChartAddInBase135914::OnRButtonDown
PUBLIC	?OnRButtonUp@CChartAddInBase135914@@MAEHPAUHDC__@@IAAUtagPOINT@@K@Z ; CChartAddInBase135914::OnRButtonUp
PUBLIC	?OnRButtonDblClk@CChartAddInBase135914@@MAEHPAUHDC__@@IAAUtagPOINT@@K@Z ; CChartAddInBase135914::OnRButtonDblClk
PUBLIC	??_GCChartAddInBase135914@@MAEPAXI@Z		; CChartAddInBase135914::`scalar deleting destructor'
PUBLIC	?QueryInterface@CChartAddInBase135914@@O7AGJABU_GUID@@PAPAX@Z ; [thunk]:CChartAddInBase135914::QueryInterface`adjustor{8}'
PUBLIC	?AddRef@CChartAddInBase135914@@O7AGKXZ		; [thunk]:CChartAddInBase135914::AddRef`adjustor{8}'
PUBLIC	?Release@CChartAddInBase135914@@O7AGKXZ		; [thunk]:CChartAddInBase135914::Release`adjustor{8}'
PUBLIC	??_ECChartAddInBase135914@@O7AEPAXI@Z		; [thunk]:CChartAddInBase135914::`vector deleting destructor'
PUBLIC	??_R0?AVCObject@@@8				; CObject `RTTI Type Descriptor'
PUBLIC	??_R3CObject@@8					; CObject::`RTTI Class Hierarchy Descriptor'
PUBLIC	??_R2CObject@@8					; CObject::`RTTI Base Class Array'
PUBLIC	??_R1A@?0A@EA@CObject@@8			; CObject::`RTTI Base Class Descriptor at (0,-1,0,64)'
PUBLIC	??_R0?AUIUnknown@@@8				; IUnknown `RTTI Type Descriptor'
PUBLIC	??_R3IUnknown@@8				; IUnknown::`RTTI Class Hierarchy Descriptor'
PUBLIC	??_R2IUnknown@@8				; IUnknown::`RTTI Base Class Array'
PUBLIC	??_R1A@?0A@EA@IUnknown@@8			; IUnknown::`RTTI Base Class Descriptor at (0,-1,0,64)'
PUBLIC	??_7IChartAddIn135914@@6B@			; IChartAddIn135914::`vftable'
PUBLIC	??_7CChartAddInBase135914@@6BCIWUnknown@@@	; CChartAddInBase135914::`vftable'
PUBLIC	??_7CChartAddInBase135914@@6BIChartAddIn135914@@@ ; CChartAddInBase135914::`vftable'
PUBLIC	??_C@_0CL@PLCCFHOH@CChartAddInBase135914?5Null?5Wrap@ ; `string'
PUBLIC	??_R4IChartAddIn135914@@6B@			; IChartAddIn135914::`RTTI Complete Object Locator'
PUBLIC	??_R0?AUIChartAddIn135914@@@8			; IChartAddIn135914 `RTTI Type Descriptor'
PUBLIC	??_R3IChartAddIn135914@@8			; IChartAddIn135914::`RTTI Class Hierarchy Descriptor'
PUBLIC	??_R2IChartAddIn135914@@8			; IChartAddIn135914::`RTTI Base Class Array'
PUBLIC	??_R1A@?0A@EA@IChartAddIn135914@@8		; IChartAddIn135914::`RTTI Base Class Descriptor at (0,-1,0,64)'
PUBLIC	??_R4CChartAddInBase135914@@6BCIWUnknown@@@	; CChartAddInBase135914::`RTTI Complete Object Locator'
PUBLIC	??_R0?AVCChartAddInBase135914@@@8		; CChartAddInBase135914 `RTTI Type Descriptor'
PUBLIC	??_R3CChartAddInBase135914@@8			; CChartAddInBase135914::`RTTI Class Hierarchy Descriptor'
PUBLIC	??_R2CChartAddInBase135914@@8			; CChartAddInBase135914::`RTTI Base Class Array'
PUBLIC	??_R1A@?0A@EA@CChartAddInBase135914@@8		; CChartAddInBase135914::`RTTI Base Class Descriptor at (0,-1,0,64)'
PUBLIC	??_R1A@?0A@EA@CIWUnknown@@8			; CIWUnknown::`RTTI Base Class Descriptor at (0,-1,0,64)'
PUBLIC	??_R0?AVCIWUnknown@@@8				; CIWUnknown `RTTI Type Descriptor'
PUBLIC	??_R3CIWUnknown@@8				; CIWUnknown::`RTTI Class Hierarchy Descriptor'
PUBLIC	??_R2CIWUnknown@@8				; CIWUnknown::`RTTI Base Class Array'
PUBLIC	??_R17?0A@EA@IChartAddIn135914@@8		; IChartAddIn135914::`RTTI Base Class Descriptor at (8,-1,0,64)'
PUBLIC	??_R17?0A@EA@IUnknown@@8			; IUnknown::`RTTI Base Class Descriptor at (8,-1,0,64)'
PUBLIC	??_R4CChartAddInBase135914@@6BIChartAddIn135914@@@ ; CChartAddInBase135914::`RTTI Complete Object Locator'
EXTRN	__purecall:PROC
EXTRN	??3@YAXPAX@Z:PROC				; operator delete
EXTRN	??3@YAXPAXI@Z:PROC				; operator delete
EXTRN	?__global_delete@@YAXPAXI@Z:PROC		; __global_delete
EXTRN	___std_terminate:PROC
EXTRN	?GetRuntimeClass@CObject@@UBEPAUCRuntimeClass@@XZ:PROC ; CObject::GetRuntimeClass
EXTRN	?AfxGetStaticModuleState@@YGPAVAFX_MODULE_STATE@@XZ:PROC ; AfxGetStaticModuleState
EXTRN	??0AFX_MAINTAIN_STATE2@@QAE@PAVAFX_MODULE_STATE@@@Z:PROC ; AFX_MAINTAIN_STATE2::AFX_MAINTAIN_STATE2
EXTRN	??1AFX_MAINTAIN_STATE2@@QAE@XZ:PROC		; AFX_MAINTAIN_STATE2::~AFX_MAINTAIN_STATE2
EXTRN	?FromHandle@CWnd@@SGPAV1@PAUHWND__@@@Z:PROC	; CWnd::FromHandle
EXTRN	?AfxMessageBox@@YGHPBDII@Z:PROC			; AfxMessageBox
EXTRN	??0CIWUnknown@@QAE@XZ:PROC			; CIWUnknown::CIWUnknown
EXTRN	??1CIWUnknown@@MAE@XZ:PROC			; CIWUnknown::~CIWUnknown
EXTRN	?AddRef@CIWUnknown@@MAGKXZ:PROC			; CIWUnknown::AddRef
EXTRN	?Release@CIWUnknown@@MAGKXZ:PROC		; CIWUnknown::Release
EXTRN	??_EIChartAddIn135914@@MAEPAXI@Z:PROC		; IChartAddIn135914::`vector deleting destructor'
EXTRN	??_ECChartAddInBase135914@@MAEPAXI@Z:PROC	; CChartAddInBase135914::`vector deleting destructor'
EXTRN	@__security_check_cookie@4:PROC
EXTRN	___CxxFrameHandler3:PROC
EXTRN	??_7type_info@@6B@:QWORD			; type_info::`vftable'
EXTRN	___security_cookie:DWORD
;	COMDAT ??_R4CChartAddInBase135914@@6BIChartAddIn135914@@@
rdata$r	SEGMENT
??_R4CChartAddInBase135914@@6BIChartAddIn135914@@@ DD 00H ; CChartAddInBase135914::`RTTI Complete Object Locator'
	DD	08H
	DD	00H
	DD	FLAT:??_R0?AVCChartAddInBase135914@@@8
	DD	FLAT:??_R3CChartAddInBase135914@@8
rdata$r	ENDS
;	COMDAT ??_R17?0A@EA@IUnknown@@8
rdata$r	SEGMENT
??_R17?0A@EA@IUnknown@@8 DD FLAT:??_R0?AUIUnknown@@@8	; IUnknown::`RTTI Base Class Descriptor at (8,-1,0,64)'
	DD	00H
	DD	08H
	DD	0ffffffffH
	DD	00H
	DD	040H
	DD	FLAT:??_R3IUnknown@@8
rdata$r	ENDS
;	COMDAT ??_R17?0A@EA@IChartAddIn135914@@8
rdata$r	SEGMENT
??_R17?0A@EA@IChartAddIn135914@@8 DD FLAT:??_R0?AUIChartAddIn135914@@@8 ; IChartAddIn135914::`RTTI Base Class Descriptor at (8,-1,0,64)'
	DD	01H
	DD	08H
	DD	0ffffffffH
	DD	00H
	DD	040H
	DD	FLAT:??_R3IChartAddIn135914@@8
rdata$r	ENDS
;	COMDAT ??_R2CIWUnknown@@8
rdata$r	SEGMENT
??_R2CIWUnknown@@8 DD FLAT:??_R1A@?0A@EA@CIWUnknown@@8	; CIWUnknown::`RTTI Base Class Array'
	DD	FLAT:??_R1A@?0A@EA@CObject@@8
rdata$r	ENDS
;	COMDAT ??_R3CIWUnknown@@8
rdata$r	SEGMENT
??_R3CIWUnknown@@8 DD 00H				; CIWUnknown::`RTTI Class Hierarchy Descriptor'
	DD	00H
	DD	02H
	DD	FLAT:??_R2CIWUnknown@@8
rdata$r	ENDS
;	COMDAT ??_R0?AVCIWUnknown@@@8
data$rs	SEGMENT
??_R0?AVCIWUnknown@@@8 DD FLAT:??_7type_info@@6B@	; CIWUnknown `RTTI Type Descriptor'
	DD	00H
	DB	'.?AVCIWUnknown@@', 00H
data$rs	ENDS
;	COMDAT ??_R1A@?0A@EA@CIWUnknown@@8
rdata$r	SEGMENT
??_R1A@?0A@EA@CIWUnknown@@8 DD FLAT:??_R0?AVCIWUnknown@@@8 ; CIWUnknown::`RTTI Base Class Descriptor at (0,-1,0,64)'
	DD	01H
	DD	00H
	DD	0ffffffffH
	DD	00H
	DD	040H
	DD	FLAT:??_R3CIWUnknown@@8
rdata$r	ENDS
;	COMDAT ??_R1A@?0A@EA@CChartAddInBase135914@@8
rdata$r	SEGMENT
??_R1A@?0A@EA@CChartAddInBase135914@@8 DD FLAT:??_R0?AVCChartAddInBase135914@@@8 ; CChartAddInBase135914::`RTTI Base Class Descriptor at (0,-1,0,64)'
	DD	04H
	DD	00H
	DD	0ffffffffH
	DD	00H
	DD	040H
	DD	FLAT:??_R3CChartAddInBase135914@@8
rdata$r	ENDS
;	COMDAT ??_R2CChartAddInBase135914@@8
rdata$r	SEGMENT
??_R2CChartAddInBase135914@@8 DD FLAT:??_R1A@?0A@EA@CChartAddInBase135914@@8 ; CChartAddInBase135914::`RTTI Base Class Array'
	DD	FLAT:??_R1A@?0A@EA@CIWUnknown@@8
	DD	FLAT:??_R1A@?0A@EA@CObject@@8
	DD	FLAT:??_R17?0A@EA@IChartAddIn135914@@8
	DD	FLAT:??_R17?0A@EA@IUnknown@@8
rdata$r	ENDS
;	COMDAT ??_R3CChartAddInBase135914@@8
rdata$r	SEGMENT
??_R3CChartAddInBase135914@@8 DD 00H			; CChartAddInBase135914::`RTTI Class Hierarchy Descriptor'
	DD	01H
	DD	05H
	DD	FLAT:??_R2CChartAddInBase135914@@8
rdata$r	ENDS
;	COMDAT ??_R0?AVCChartAddInBase135914@@@8
data$rs	SEGMENT
??_R0?AVCChartAddInBase135914@@@8 DD FLAT:??_7type_info@@6B@ ; CChartAddInBase135914 `RTTI Type Descriptor'
	DD	00H
	DB	'.?AVCChartAddInBase135914@@', 00H
data$rs	ENDS
;	COMDAT ??_R4CChartAddInBase135914@@6BCIWUnknown@@@
rdata$r	SEGMENT
??_R4CChartAddInBase135914@@6BCIWUnknown@@@ DD 00H	; CChartAddInBase135914::`RTTI Complete Object Locator'
	DD	00H
	DD	00H
	DD	FLAT:??_R0?AVCChartAddInBase135914@@@8
	DD	FLAT:??_R3CChartAddInBase135914@@8
rdata$r	ENDS
;	COMDAT ??_R1A@?0A@EA@IChartAddIn135914@@8
rdata$r	SEGMENT
??_R1A@?0A@EA@IChartAddIn135914@@8 DD FLAT:??_R0?AUIChartAddIn135914@@@8 ; IChartAddIn135914::`RTTI Base Class Descriptor at (0,-1,0,64)'
	DD	01H
	DD	00H
	DD	0ffffffffH
	DD	00H
	DD	040H
	DD	FLAT:??_R3IChartAddIn135914@@8
rdata$r	ENDS
;	COMDAT ??_R2IChartAddIn135914@@8
rdata$r	SEGMENT
??_R2IChartAddIn135914@@8 DD FLAT:??_R1A@?0A@EA@IChartAddIn135914@@8 ; IChartAddIn135914::`RTTI Base Class Array'
	DD	FLAT:??_R1A@?0A@EA@IUnknown@@8
rdata$r	ENDS
;	COMDAT ??_R3IChartAddIn135914@@8
rdata$r	SEGMENT
??_R3IChartAddIn135914@@8 DD 00H			; IChartAddIn135914::`RTTI Class Hierarchy Descriptor'
	DD	00H
	DD	02H
	DD	FLAT:??_R2IChartAddIn135914@@8
rdata$r	ENDS
;	COMDAT ??_R0?AUIChartAddIn135914@@@8
data$rs	SEGMENT
??_R0?AUIChartAddIn135914@@@8 DD FLAT:??_7type_info@@6B@ ; IChartAddIn135914 `RTTI Type Descriptor'
	DD	00H
	DB	'.?AUIChartAddIn135914@@', 00H
data$rs	ENDS
;	COMDAT ??_R4IChartAddIn135914@@6B@
rdata$r	SEGMENT
??_R4IChartAddIn135914@@6B@ DD 00H			; IChartAddIn135914::`RTTI Complete Object Locator'
	DD	00H
	DD	00H
	DD	FLAT:??_R0?AUIChartAddIn135914@@@8
	DD	FLAT:??_R3IChartAddIn135914@@8
rdata$r	ENDS
;	COMDAT ??_C@_0CL@PLCCFHOH@CChartAddInBase135914?5Null?5Wrap@
CONST	SEGMENT
??_C@_0CL@PLCCFHOH@CChartAddInBase135914?5Null?5Wrap@ DB 'CChartAddInBase'
	DB	'135914 Null Wrapping Error!', 00H		; `string'
CONST	ENDS
;	COMDAT ??_7CChartAddInBase135914@@6BIChartAddIn135914@@@
CONST	SEGMENT
??_7CChartAddInBase135914@@6BIChartAddIn135914@@@ DD FLAT:??_R4CChartAddInBase135914@@6BIChartAddIn135914@@@ ; CChartAddInBase135914::`vftable'
	DD	FLAT:?QueryInterface@CChartAddInBase135914@@O7AGJABU_GUID@@PAPAX@Z
	DD	FLAT:?AddRef@CChartAddInBase135914@@O7AGKXZ
	DD	FLAT:?Release@CChartAddInBase135914@@O7AGKXZ
	DD	FLAT:??_ECChartAddInBase135914@@O7AEPAXI@Z
	DD	FLAT:?HasFullManager@CChartAddInBase135914@@MAEHXZ
	DD	FLAT:?GetAddInCustomInterface@CChartAddInBase135914@@MAEPAUIUnknown@@XZ
	DD	FLAT:?InvokeAddIn@CChartAddInBase135914@@MAEHHJ@Z
	DD	FLAT:?InvokeAddInStr@CChartAddInBase135914@@MAEHPBD0@Z
	DD	FLAT:?GetGlobalAddInEventType@CChartAddInBase135914@@MBE?AW4EAddInEventType@IAddInDllBase@@J@Z
	DD	FLAT:?RegisterEventMap@CChartAddInBase135914@@UAEHH@Z
	DD	FLAT:?UnregisterEventMap@CChartAddInBase135914@@UAEHXZ
	DD	FLAT:?OnGSharedDataChange@CChartAddInBase135914@@MAEXPBD0H@Z
	DD	FLAT:?OnLSharedDataChange@CChartAddInBase135914@@MAEXPBD0@Z
	DD	FLAT:?OnSharedDataChange@CChartAddInBase135914@@MAEXPBD0H@Z
	DD	FLAT:?OnResetChart@CChartAddInBase135914@@MAEXXZ
	DD	FLAT:?OnDrawBeforeGraph@CChartAddInBase135914@@MAEXPAUHDC__@@@Z
	DD	FLAT:?OnDrawAfterGraph@CChartAddInBase135914@@MAEXPAUHDC__@@@Z
	DD	FLAT:?OnPacketData@CChartAddInBase135914@@MAEXPBDH@Z
	DD	FLAT:?OnUpdatePacketData@CChartAddInBase135914@@MAEXH@Z
	DD	FLAT:?OnTimer@CChartAddInBase135914@@MAEXI@Z
	DD	FLAT:?OnCaptureChanged@CChartAddInBase135914@@MAEXPAUHWND__@@@Z
	DD	FLAT:?OnDrdsData@CChartAddInBase135914@@MAEXIJ@Z
	DD	FLAT:?OnDrdsPacketEnd@CChartAddInBase135914@@MAEXIJ@Z
	DD	FLAT:?OnGraphDeleted@CChartAddInBase135914@@MAEXPBD0@Z
	DD	FLAT:?OnCmdMsg@CChartAddInBase135914@@MAEHIHPAUICmdUI135914@@@Z
	DD	FLAT:?OnAddInToolCommand@CChartAddInBase135914@@MAEHAAJW4EAICommandType@@JJ@Z
	DD	FLAT:?OnAddInToolCommand@CChartAddInBase135914@@MAEHAAJW4EAICommandType@@J@Z
	DD	FLAT:?OnAddInToolCommand@CChartAddInBase135914@@MAEHAAJW4EAICommandType@@PBDPAVCObject@@@Z
	DD	FLAT:?OnAddInToolCommand@CChartAddInBase135914@@MAEHAAJW4EAICommandType@@PBD@Z
	DD	FLAT:?OnAddInToolCommand@CChartAddInBase135914@@MAEHAAJW4EAICommandType@@PAUIGraphInfo135914@@@Z
	DD	FLAT:?OnAddInToolCommand@CChartAddInBase135914@@MAEHAAJW4EAICommandType@@@Z
	DD	FLAT:?OnAddInToolCommand@CChartAddInBase135914@@MAEHW4EAICommandType@@PAUHWND__@@AAUtagPOINT@@@Z
	DD	FLAT:?OnAddInToolCommand@CChartAddInBase135914@@MAEHW4EAICommandType@@JJJJJJJJJ@Z
	DD	FLAT:?OnAddInToolCommand@CChartAddInBase135914@@MAEHW4EAICommandType@@JJ@Z
	DD	FLAT:?OnAddInToolCommand@CChartAddInBase135914@@MAEHW4EAICommandType@@JPBD11@Z
	DD	FLAT:?OnAddInToolCommand@CChartAddInBase135914@@MAEHW4EAICommandType@@JPBD@Z
	DD	FLAT:?OnAddInToolCommand@CChartAddInBase135914@@MAEHW4EAICommandType@@J@Z
	DD	FLAT:?OnAddInToolCommand@CChartAddInBase135914@@MAEHW4EAICommandType@@PBUIAddInDllBase@@@Z
	DD	FLAT:?OnAddInToolCommand@CChartAddInBase135914@@MAEHW4EAICommandType@@PBVCBlockBehaviorData@@@Z
	DD	FLAT:?OnAddInToolCommand@CChartAddInBase135914@@MAEHW4EAICommandType@@PBDJ@Z
	DD	FLAT:?OnAddInToolCommand@CChartAddInBase135914@@MAEHW4EAICommandType@@PBD@Z
	DD	FLAT:?OnAddInToolCommand@CChartAddInBase135914@@MAEHW4EAICommandType@@PAUHDC__@@IAAUtagPOINT@@K@Z
	DD	FLAT:?OnAddInToolCommand@CChartAddInBase135914@@MAEHW4EAICommandType@@@Z
	DD	FLAT:?OnKeyDown@CChartAddInBase135914@@MAEHIII@Z
	DD	FLAT:?OnKeyUp@CChartAddInBase135914@@MAEHIII@Z
	DD	FLAT:?OnMouseWheel@CChartAddInBase135914@@MAEHIFUtagPOINT@@K@Z
	DD	FLAT:?OnMouseMove@CChartAddInBase135914@@MAEHPAUHDC__@@IAAUtagPOINT@@K@Z
	DD	FLAT:?OnLButtonDown@CChartAddInBase135914@@MAEHPAUHDC__@@IAAUtagPOINT@@K@Z
	DD	FLAT:?OnLButtonUp@CChartAddInBase135914@@MAEHPAUHDC__@@IAAUtagPOINT@@K@Z
	DD	FLAT:?OnLButtonDblClk@CChartAddInBase135914@@MAEHPAUHDC__@@IAAUtagPOINT@@K@Z
	DD	FLAT:?OnRButtonDown@CChartAddInBase135914@@MAEHPAUHDC__@@IAAUtagPOINT@@K@Z
	DD	FLAT:?OnRButtonUp@CChartAddInBase135914@@MAEHPAUHDC__@@IAAUtagPOINT@@K@Z
	DD	FLAT:?OnRButtonDblClk@CChartAddInBase135914@@MAEHPAUHDC__@@IAAUtagPOINT@@K@Z
CONST	ENDS
;	COMDAT ??_7CChartAddInBase135914@@6BCIWUnknown@@@
CONST	SEGMENT
??_7CChartAddInBase135914@@6BCIWUnknown@@@ DD FLAT:??_R4CChartAddInBase135914@@6BCIWUnknown@@@ ; CChartAddInBase135914::`vftable'
	DD	FLAT:?GetRuntimeClass@CObject@@UBEPAUCRuntimeClass@@XZ
	DD	FLAT:??_ECChartAddInBase135914@@MAEPAXI@Z
	DD	FLAT:?Serialize@CObject@@UAEXAAVCArchive@@@Z
	DD	FLAT:?AssertValid@CObject@@UBEXXZ
	DD	FLAT:?Dump@CObject@@UBEXAAVCDumpContext@@@Z
	DD	FLAT:?AddRef@CChartAddInBase135914@@MAGKXZ
	DD	FLAT:?Release@CChartAddInBase135914@@MAGKXZ
	DD	FLAT:?QueryInterface@CChartAddInBase135914@@MAGJABU_GUID@@PAPAX@Z
	DD	FLAT:?PostConstruct@CIWUnknown@@MAEXXZ
	DD	FLAT:?PreDestructX@CIWUnknown@@MAEXXZ
	DD	FLAT:?PreDestruct@CIWUnknown@@MAEXXZ
	DD	FLAT:__purecall
CONST	ENDS
;	COMDAT ??_7IChartAddIn135914@@6B@
CONST	SEGMENT
??_7IChartAddIn135914@@6B@ DD FLAT:??_R4IChartAddIn135914@@6B@ ; IChartAddIn135914::`vftable'
	DD	FLAT:__purecall
	DD	FLAT:__purecall
	DD	FLAT:__purecall
	DD	FLAT:??_EIChartAddIn135914@@MAEPAXI@Z
	DD	FLAT:__purecall
	DD	FLAT:__purecall
	DD	FLAT:__purecall
	DD	FLAT:__purecall
	DD	FLAT:__purecall
	DD	FLAT:__purecall
	DD	FLAT:__purecall
	DD	FLAT:__purecall
	DD	FLAT:__purecall
	DD	FLAT:__purecall
	DD	FLAT:__purecall
	DD	FLAT:__purecall
	DD	FLAT:__purecall
	DD	FLAT:__purecall
	DD	FLAT:__purecall
	DD	FLAT:__purecall
	DD	FLAT:__purecall
	DD	FLAT:__purecall
	DD	FLAT:__purecall
	DD	FLAT:__purecall
	DD	FLAT:__purecall
	DD	FLAT:__purecall
	DD	FLAT:__purecall
	DD	FLAT:__purecall
	DD	FLAT:__purecall
	DD	FLAT:__purecall
	DD	FLAT:__purecall
	DD	FLAT:__purecall
	DD	FLAT:__purecall
	DD	FLAT:__purecall
	DD	FLAT:__purecall
	DD	FLAT:__purecall
	DD	FLAT:__purecall
	DD	FLAT:__purecall
	DD	FLAT:__purecall
	DD	FLAT:__purecall
	DD	FLAT:__purecall
	DD	FLAT:__purecall
	DD	FLAT:__purecall
	DD	FLAT:__purecall
	DD	FLAT:__purecall
	DD	FLAT:__purecall
	DD	FLAT:__purecall
	DD	FLAT:__purecall
	DD	FLAT:__purecall
	DD	FLAT:__purecall
	DD	FLAT:__purecall
	DD	FLAT:__purecall
	DD	FLAT:__purecall
CONST	ENDS
;	COMDAT ??_R1A@?0A@EA@IUnknown@@8
rdata$r	SEGMENT
??_R1A@?0A@EA@IUnknown@@8 DD FLAT:??_R0?AUIUnknown@@@8	; IUnknown::`RTTI Base Class Descriptor at (0,-1,0,64)'
	DD	00H
	DD	00H
	DD	0ffffffffH
	DD	00H
	DD	040H
	DD	FLAT:??_R3IUnknown@@8
rdata$r	ENDS
;	COMDAT ??_R2IUnknown@@8
rdata$r	SEGMENT
??_R2IUnknown@@8 DD FLAT:??_R1A@?0A@EA@IUnknown@@8	; IUnknown::`RTTI Base Class Array'
rdata$r	ENDS
;	COMDAT ??_R3IUnknown@@8
rdata$r	SEGMENT
??_R3IUnknown@@8 DD 00H					; IUnknown::`RTTI Class Hierarchy Descriptor'
	DD	00H
	DD	01H
	DD	FLAT:??_R2IUnknown@@8
rdata$r	ENDS
;	COMDAT ??_R0?AUIUnknown@@@8
data$rs	SEGMENT
??_R0?AUIUnknown@@@8 DD FLAT:??_7type_info@@6B@		; IUnknown `RTTI Type Descriptor'
	DD	00H
	DB	'.?AUIUnknown@@', 00H
data$rs	ENDS
;	COMDAT ??_R1A@?0A@EA@CObject@@8
rdata$r	SEGMENT
??_R1A@?0A@EA@CObject@@8 DD FLAT:??_R0?AVCObject@@@8	; CObject::`RTTI Base Class Descriptor at (0,-1,0,64)'
	DD	00H
	DD	00H
	DD	0ffffffffH
	DD	00H
	DD	040H
	DD	FLAT:??_R3CObject@@8
rdata$r	ENDS
;	COMDAT ??_R2CObject@@8
rdata$r	SEGMENT
??_R2CObject@@8 DD FLAT:??_R1A@?0A@EA@CObject@@8	; CObject::`RTTI Base Class Array'
rdata$r	ENDS
;	COMDAT ??_R3CObject@@8
rdata$r	SEGMENT
??_R3CObject@@8 DD 00H					; CObject::`RTTI Class Hierarchy Descriptor'
	DD	00H
	DD	01H
	DD	FLAT:??_R2CObject@@8
rdata$r	ENDS
;	COMDAT ??_R0?AVCObject@@@8
data$rs	SEGMENT
??_R0?AVCObject@@@8 DD FLAT:??_7type_info@@6B@		; CObject `RTTI Type Descriptor'
	DD	00H
	DB	'.?AVCObject@@', 00H
data$rs	ENDS
;	COMDAT xdata$x
xdata$x	SEGMENT
__unwindtable$??_GCChartAddInBase135914@@MAEPAXI@Z DD 0ffffffffH
	DD	FLAT:___std_terminate
__ehfuncinfo$??_GCChartAddInBase135914@@MAEPAXI@Z DD 019930522H
	DD	01H
	DD	FLAT:__unwindtable$??_GCChartAddInBase135914@@MAEPAXI@Z
	DD	2 DUP(00H)
	DD	2 DUP(00H)
	DD	00H
	DD	05H
xdata$x	ENDS
;	COMDAT xdata$x
xdata$x	SEGMENT
__ehfuncinfo$??1CChartAddInBase135914@@MAE@XZ DD 019930522H
	DD	00H
	DD	00H
	DD	2 DUP(00H)
	DD	2 DUP(00H)
	DD	00H
	DD	05H
xdata$x	ENDS
;	COMDAT xdata$x
xdata$x	SEGMENT
__unwindtable$??0CChartAddInBase135914@@IAE@PAUIChartOCX135914@@PAUIAddInDllBase@@@Z DD 0ffffffffH
	DD	FLAT:__unwindfunclet$??0CChartAddInBase135914@@IAE@PAUIChartOCX135914@@PAUIAddInDllBase@@@Z$0
	DD	00H
	DD	FLAT:__unwindfunclet$??0CChartAddInBase135914@@IAE@PAUIChartOCX135914@@PAUIAddInDllBase@@@Z$1
	DD	01H
	DD	FLAT:__unwindfunclet$??0CChartAddInBase135914@@IAE@PAUIChartOCX135914@@PAUIAddInDllBase@@@Z$2
__ehfuncinfo$??0CChartAddInBase135914@@IAE@PAUIChartOCX135914@@PAUIAddInDllBase@@@Z DD 019930522H
	DD	03H
	DD	FLAT:__unwindtable$??0CChartAddInBase135914@@IAE@PAUIChartOCX135914@@PAUIAddInDllBase@@@Z
	DD	2 DUP(00H)
	DD	2 DUP(00H)
	DD	00H
	DD	01H
xdata$x	ENDS
; Function compile flags: /Odsp
;	COMDAT ??_ECChartAddInBase135914@@O7AEPAXI@Z
_TEXT	SEGMENT
??_ECChartAddInBase135914@@O7AEPAXI@Z PROC		; [thunk]:CChartAddInBase135914::`vector deleting destructor', COMDAT
  00000	83 e9 08	 sub	 ecx, 8
  00003	e9 00 00 00 00	 jmp	 ??_ECChartAddInBase135914@@MAEPAXI@Z
??_ECChartAddInBase135914@@O7AEPAXI@Z ENDP		; [thunk]:CChartAddInBase135914::`vector deleting destructor'
_TEXT	ENDS
; Function compile flags: /Odsp
;	COMDAT ?Release@CChartAddInBase135914@@O7AGKXZ
_TEXT	SEGMENT
?Release@CChartAddInBase135914@@O7AGKXZ PROC		; [thunk]:CChartAddInBase135914::Release`adjustor{8}', COMDAT
  00000	83 6c 24 04 08	 sub	 DWORD PTR [esp+4], 8
  00005	e9 00 00 00 00	 jmp	 ?Release@CChartAddInBase135914@@MAGKXZ ; CChartAddInBase135914::Release
?Release@CChartAddInBase135914@@O7AGKXZ ENDP		; [thunk]:CChartAddInBase135914::Release`adjustor{8}'
_TEXT	ENDS
; Function compile flags: /Odsp
;	COMDAT ?AddRef@CChartAddInBase135914@@O7AGKXZ
_TEXT	SEGMENT
?AddRef@CChartAddInBase135914@@O7AGKXZ PROC		; [thunk]:CChartAddInBase135914::AddRef`adjustor{8}', COMDAT
  00000	83 6c 24 04 08	 sub	 DWORD PTR [esp+4], 8
  00005	e9 00 00 00 00	 jmp	 ?AddRef@CChartAddInBase135914@@MAGKXZ ; CChartAddInBase135914::AddRef
?AddRef@CChartAddInBase135914@@O7AGKXZ ENDP		; [thunk]:CChartAddInBase135914::AddRef`adjustor{8}'
_TEXT	ENDS
; Function compile flags: /Odsp
;	COMDAT ?QueryInterface@CChartAddInBase135914@@O7AGJABU_GUID@@PAPAX@Z
_TEXT	SEGMENT
?QueryInterface@CChartAddInBase135914@@O7AGJABU_GUID@@PAPAX@Z PROC ; [thunk]:CChartAddInBase135914::QueryInterface`adjustor{8}', COMDAT
  00000	83 6c 24 04 08	 sub	 DWORD PTR [esp+4], 8
  00005	e9 00 00 00 00	 jmp	 ?QueryInterface@CChartAddInBase135914@@MAGJABU_GUID@@PAPAX@Z ; CChartAddInBase135914::QueryInterface
?QueryInterface@CChartAddInBase135914@@O7AGJABU_GUID@@PAPAX@Z ENDP ; [thunk]:CChartAddInBase135914::QueryInterface`adjustor{8}'
_TEXT	ENDS
; Function compile flags: /Ogtp
; File D:\git\src\IBK\IBK_DRFN\ProjSrc\SrcChartEx\ChartAddIn\ChartEnvSetupDlgAddIn\Include_Addin_135914\I135914\_ChartAddInBase.cpp
; File C:\Program Files (x86)\Microsoft Visual Studio\2019\Community\VC\Tools\MSVC\14.29.30133\atlmfc\include\afx.inl
;	COMDAT ??_GCChartAddInBase135914@@MAEPAXI@Z
_TEXT	SEGMENT
__$EHRec$ = -12						; size = 12
___flags$ = 8						; size = 4
??_GCChartAddInBase135914@@MAEPAXI@Z PROC		; CChartAddInBase135914::`scalar deleting destructor', COMDAT
; _this$ = ecx
  00000	55		 push	 ebp
  00001	8b ec		 mov	 ebp, esp
  00003	6a ff		 push	 -1
  00005	68 00 00 00 00	 push	 __ehhandler$??_GCChartAddInBase135914@@MAEPAXI@Z
  0000a	64 a1 00 00 00
	00		 mov	 eax, DWORD PTR fs:0
  00010	50		 push	 eax
  00011	56		 push	 esi
  00012	a1 00 00 00 00	 mov	 eax, DWORD PTR ___security_cookie
  00017	33 c5		 xor	 eax, ebp
  00019	50		 push	 eax
  0001a	8d 45 f4	 lea	 eax, DWORD PTR __$EHRec$[ebp]
  0001d	64 a3 00 00 00
	00		 mov	 DWORD PTR fs:0, eax
  00023	8b f1		 mov	 esi, ecx
; File D:\git\src\IBK\IBK_DRFN\ProjSrc\SrcChartEx\ChartAddIn\ChartEnvSetupDlgAddIn\Include_Addin_135914\I135914\_ChartAddInBase.cpp

; 67   : 	if( m_pIChartOCX) m_pIChartOCX->Release();

  00025	8b 4e 0c	 mov	 ecx, DWORD PTR [esi+12]
  00028	c7 45 fc 00 00
	00 00		 mov	 DWORD PTR __$EHRec$[ebp+8], 0
  0002f	c7 06 00 00 00
	00		 mov	 DWORD PTR [esi], OFFSET ??_7CChartAddInBase135914@@6BCIWUnknown@@@
  00035	c7 46 08 00 00
	00 00		 mov	 DWORD PTR [esi+8], OFFSET ??_7CChartAddInBase135914@@6BIChartAddIn135914@@@
  0003c	85 c9		 test	 ecx, ecx
  0003e	74 06		 je	 SHORT $LN8@scalar
  00040	8b 01		 mov	 eax, DWORD PTR [ecx]
  00042	51		 push	 ecx
  00043	ff 50 08	 call	 DWORD PTR [eax+8]
$LN8@scalar:

; 68   : 
; 69   : 	// (2004.10.11, 배승원) OCX로부터 주요 Manager의 Interface를 구하여 관리한다.
; 70   : 	if( m_pIDefaultPacketManager)

  00046	8b 4e 18	 mov	 ecx, DWORD PTR [esi+24]
  00049	85 c9		 test	 ecx, ecx
  0004b	74 0d		 je	 SHORT $LN9@scalar

; 71   : 	{
; 72   : 		m_pIDefaultPacketManager->Release();

  0004d	8b 01		 mov	 eax, DWORD PTR [ecx]
  0004f	51		 push	 ecx
  00050	ff 50 08	 call	 DWORD PTR [eax+8]

; 73   : 		m_pIDefaultPacketManager = NULL;

  00053	c7 46 18 00 00
	00 00		 mov	 DWORD PTR [esi+24], 0
$LN9@scalar:

; 74   : 	}
; 75   : 	if( m_pIChartManager)

  0005a	8b 4e 1c	 mov	 ecx, DWORD PTR [esi+28]
  0005d	85 c9		 test	 ecx, ecx
  0005f	74 0d		 je	 SHORT $LN10@scalar

; 76   : 	{
; 77   : 		m_pIChartManager->Release();

  00061	8b 01		 mov	 eax, DWORD PTR [ecx]
  00063	51		 push	 ecx
  00064	ff 50 08	 call	 DWORD PTR [eax+8]

; 78   : 		m_pIChartManager = NULL;

  00067	c7 46 1c 00 00
	00 00		 mov	 DWORD PTR [esi+28], 0
$LN10@scalar:

; 79   : 	}
; 80   : 	if( m_pIGraphInfoManager)

  0006e	8b 4e 20	 mov	 ecx, DWORD PTR [esi+32]
  00071	85 c9		 test	 ecx, ecx
  00073	74 0d		 je	 SHORT $LN11@scalar

; 81   : 	{
; 82   : 		m_pIGraphInfoManager->Release();

  00075	8b 01		 mov	 eax, DWORD PTR [ecx]
  00077	51		 push	 ecx
  00078	ff 50 08	 call	 DWORD PTR [eax+8]

; 83   : 		m_pIGraphInfoManager = NULL;

  0007b	c7 46 20 00 00
	00 00		 mov	 DWORD PTR [esi+32], 0
$LN11@scalar:

; 84   : 	}
; 85   : 	if( m_pIAddInToolMgr)

  00082	8b 4e 24	 mov	 ecx, DWORD PTR [esi+36]
  00085	85 c9		 test	 ecx, ecx
  00087	74 0d		 je	 SHORT $LN12@scalar

; 86   : 	{
; 87   : 		m_pIAddInToolMgr->Release();

  00089	8b 01		 mov	 eax, DWORD PTR [ecx]
  0008b	51		 push	 ecx
  0008c	ff 50 08	 call	 DWORD PTR [eax+8]

; 88   : 		m_pIAddInToolMgr = NULL;

  0008f	c7 46 24 00 00
	00 00		 mov	 DWORD PTR [esi+36], 0
$LN12@scalar:

; 89   : 	}
; 90   : 	if( m_pIPacketListManager)

  00096	8b 4e 28	 mov	 ecx, DWORD PTR [esi+40]
  00099	85 c9		 test	 ecx, ecx
  0009b	74 0d		 je	 SHORT $LN13@scalar

; 91   : 	{
; 92   : 		m_pIPacketListManager->Release();

  0009d	8b 01		 mov	 eax, DWORD PTR [ecx]
  0009f	51		 push	 ecx
  000a0	ff 50 08	 call	 DWORD PTR [eax+8]

; 93   : 		m_pIPacketListManager = NULL;

  000a3	c7 46 28 00 00
	00 00		 mov	 DWORD PTR [esi+40], 0
$LN13@scalar:

; 94   : 	}
; 95   : }

  000aa	8b ce		 mov	 ecx, esi
  000ac	c7 46 08 00 00
	00 00		 mov	 DWORD PTR [esi+8], OFFSET ??_7IChartAddIn135914@@6B@
  000b3	e8 00 00 00 00	 call	 ??1CIWUnknown@@MAE@XZ	; CIWUnknown::~CIWUnknown
  000b8	8b 45 08	 mov	 eax, DWORD PTR ___flags$[ebp]
  000bb	a8 01		 test	 al, 1
  000bd	74 2c		 je	 SHORT $LN18@scalar
  000bf	a8 04		 test	 al, 4
  000c1	75 1d		 jne	 SHORT $LN3@scalar
; File C:\Program Files (x86)\Microsoft Visual Studio\2019\Community\VC\Tools\MSVC\14.29.30133\atlmfc\include\afx.inl

; 112  : 	{ ::operator delete(p); }

  000c3	56		 push	 esi
  000c4	e8 00 00 00 00	 call	 ??3@YAXPAX@Z		; operator delete
  000c9	83 c4 04	 add	 esp, 4
  000cc	8b c6		 mov	 eax, esi
  000ce	8b 4d f4	 mov	 ecx, DWORD PTR __$EHRec$[ebp]
  000d1	64 89 0d 00 00
	00 00		 mov	 DWORD PTR fs:0, ecx
  000d8	59		 pop	 ecx
  000d9	5e		 pop	 esi
  000da	8b e5		 mov	 esp, ebp
  000dc	5d		 pop	 ebp
  000dd	c2 04 00	 ret	 4
$LN3@scalar:
  000e0	6a 30		 push	 48			; 00000030H
  000e2	56		 push	 esi
  000e3	e8 00 00 00 00	 call	 ?__global_delete@@YAXPAXI@Z ; __global_delete
  000e8	83 c4 08	 add	 esp, 8
$LN18@scalar:
  000eb	8b c6		 mov	 eax, esi
  000ed	8b 4d f4	 mov	 ecx, DWORD PTR __$EHRec$[ebp]
  000f0	64 89 0d 00 00
	00 00		 mov	 DWORD PTR fs:0, ecx
  000f7	59		 pop	 ecx
  000f8	5e		 pop	 esi
  000f9	8b e5		 mov	 esp, ebp
  000fb	5d		 pop	 ebp
  000fc	c2 04 00	 ret	 4
  000ff	cc		 int	 3
  00100	cc		 int	 3
  00101	cc		 int	 3
  00102	cc		 int	 3
  00103	cc		 int	 3
_TEXT	ENDS
;	COMDAT text$x
text$x	SEGMENT
__ehhandler$??_GCChartAddInBase135914@@MAEPAXI@Z:
  00000	90		 npad	 1
  00001	90		 npad	 1
  00002	8b 54 24 08	 mov	 edx, DWORD PTR [esp+8]
  00006	8d 42 0c	 lea	 eax, DWORD PTR [edx+12]
  00009	8b 4a f8	 mov	 ecx, DWORD PTR [edx-8]
  0000c	33 c8		 xor	 ecx, eax
  0000e	e8 00 00 00 00	 call	 @__security_check_cookie@4
  00013	b8 00 00 00 00	 mov	 eax, OFFSET __ehfuncinfo$??_GCChartAddInBase135914@@MAEPAXI@Z
  00018	e9 00 00 00 00	 jmp	 ___CxxFrameHandler3
text$x	ENDS
??_GCChartAddInBase135914@@MAEPAXI@Z ENDP		; CChartAddInBase135914::`scalar deleting destructor'
; Function compile flags: /Ogtp
; File D:\git\src\IBK\IBK_DRFN\ProjSrc\SrcChartEx\ChartAddIn\ChartEnvSetupDlgAddIn\Include_Addin_135914\I135914\_ChartAddInBase.h
;	COMDAT ?OnRButtonDblClk@CChartAddInBase135914@@MAEHPAUHDC__@@IAAUtagPOINT@@K@Z
_TEXT	SEGMENT
_p_hDC$ = 8						; size = 4
_nFlags$ = 12						; size = 4
_point$ = 16						; size = 4
_p_dwMouseActionID$ = 20				; size = 4
?OnRButtonDblClk@CChartAddInBase135914@@MAEHPAUHDC__@@IAAUtagPOINT@@K@Z PROC ; CChartAddInBase135914::OnRButtonDblClk, COMDAT
; _this$ = ecx

; 158  : 	virtual BOOL	OnRButtonDblClk(	HDC p_hDC, UINT nFlags, POINT &point, const DWORD p_dwMouseActionID)									{	return FALSE;	}

  00000	33 c0		 xor	 eax, eax
  00002	c2 10 00	 ret	 16			; 00000010H
?OnRButtonDblClk@CChartAddInBase135914@@MAEHPAUHDC__@@IAAUtagPOINT@@K@Z ENDP ; CChartAddInBase135914::OnRButtonDblClk
_TEXT	ENDS
; Function compile flags: /Ogtp
; File D:\git\src\IBK\IBK_DRFN\ProjSrc\SrcChartEx\ChartAddIn\ChartEnvSetupDlgAddIn\Include_Addin_135914\I135914\_ChartAddInBase.h
;	COMDAT ?OnRButtonUp@CChartAddInBase135914@@MAEHPAUHDC__@@IAAUtagPOINT@@K@Z
_TEXT	SEGMENT
_p_hDC$ = 8						; size = 4
_nFlags$ = 12						; size = 4
_point$ = 16						; size = 4
_p_dwMouseActionID$ = 20				; size = 4
?OnRButtonUp@CChartAddInBase135914@@MAEHPAUHDC__@@IAAUtagPOINT@@K@Z PROC ; CChartAddInBase135914::OnRButtonUp, COMDAT
; _this$ = ecx

; 157  : 	virtual BOOL	OnRButtonUp(		HDC p_hDC, UINT nFlags, POINT &point, const DWORD p_dwMouseActionID)									{	return FALSE;	}

  00000	33 c0		 xor	 eax, eax
  00002	c2 10 00	 ret	 16			; 00000010H
?OnRButtonUp@CChartAddInBase135914@@MAEHPAUHDC__@@IAAUtagPOINT@@K@Z ENDP ; CChartAddInBase135914::OnRButtonUp
_TEXT	ENDS
; Function compile flags: /Ogtp
; File D:\git\src\IBK\IBK_DRFN\ProjSrc\SrcChartEx\ChartAddIn\ChartEnvSetupDlgAddIn\Include_Addin_135914\I135914\_ChartAddInBase.h
;	COMDAT ?OnRButtonDown@CChartAddInBase135914@@MAEHPAUHDC__@@IAAUtagPOINT@@K@Z
_TEXT	SEGMENT
_p_hDC$ = 8						; size = 4
_nFlags$ = 12						; size = 4
_point$ = 16						; size = 4
_p_dwMouseActionID$ = 20				; size = 4
?OnRButtonDown@CChartAddInBase135914@@MAEHPAUHDC__@@IAAUtagPOINT@@K@Z PROC ; CChartAddInBase135914::OnRButtonDown, COMDAT
; _this$ = ecx

; 156  : 	virtual BOOL	OnRButtonDown(		HDC p_hDC, UINT nFlags, POINT &point, const DWORD p_dwMouseActionID)									{	return FALSE;	}

  00000	33 c0		 xor	 eax, eax
  00002	c2 10 00	 ret	 16			; 00000010H
?OnRButtonDown@CChartAddInBase135914@@MAEHPAUHDC__@@IAAUtagPOINT@@K@Z ENDP ; CChartAddInBase135914::OnRButtonDown
_TEXT	ENDS
; Function compile flags: /Ogtp
; File D:\git\src\IBK\IBK_DRFN\ProjSrc\SrcChartEx\ChartAddIn\ChartEnvSetupDlgAddIn\Include_Addin_135914\I135914\_ChartAddInBase.h
;	COMDAT ?OnLButtonDblClk@CChartAddInBase135914@@MAEHPAUHDC__@@IAAUtagPOINT@@K@Z
_TEXT	SEGMENT
_p_hDC$ = 8						; size = 4
_nFlags$ = 12						; size = 4
_point$ = 16						; size = 4
_p_dwMouseActionID$ = 20				; size = 4
?OnLButtonDblClk@CChartAddInBase135914@@MAEHPAUHDC__@@IAAUtagPOINT@@K@Z PROC ; CChartAddInBase135914::OnLButtonDblClk, COMDAT
; _this$ = ecx

; 155  : 	virtual BOOL	OnLButtonDblClk(	HDC p_hDC, UINT nFlags, POINT &point, const DWORD p_dwMouseActionID)									{	return FALSE;	}

  00000	33 c0		 xor	 eax, eax
  00002	c2 10 00	 ret	 16			; 00000010H
?OnLButtonDblClk@CChartAddInBase135914@@MAEHPAUHDC__@@IAAUtagPOINT@@K@Z ENDP ; CChartAddInBase135914::OnLButtonDblClk
_TEXT	ENDS
; Function compile flags: /Ogtp
; File D:\git\src\IBK\IBK_DRFN\ProjSrc\SrcChartEx\ChartAddIn\ChartEnvSetupDlgAddIn\Include_Addin_135914\I135914\_ChartAddInBase.h
;	COMDAT ?OnLButtonUp@CChartAddInBase135914@@MAEHPAUHDC__@@IAAUtagPOINT@@K@Z
_TEXT	SEGMENT
_p_hDC$ = 8						; size = 4
_nFlags$ = 12						; size = 4
_point$ = 16						; size = 4
_p_dwMouseActionID$ = 20				; size = 4
?OnLButtonUp@CChartAddInBase135914@@MAEHPAUHDC__@@IAAUtagPOINT@@K@Z PROC ; CChartAddInBase135914::OnLButtonUp, COMDAT
; _this$ = ecx

; 154  : 	virtual BOOL	OnLButtonUp(		HDC p_hDC, UINT nFlags, POINT &point, const DWORD p_dwMouseActionID)									{	return FALSE;	}

  00000	33 c0		 xor	 eax, eax
  00002	c2 10 00	 ret	 16			; 00000010H
?OnLButtonUp@CChartAddInBase135914@@MAEHPAUHDC__@@IAAUtagPOINT@@K@Z ENDP ; CChartAddInBase135914::OnLButtonUp
_TEXT	ENDS
; Function compile flags: /Ogtp
; File D:\git\src\IBK\IBK_DRFN\ProjSrc\SrcChartEx\ChartAddIn\ChartEnvSetupDlgAddIn\Include_Addin_135914\I135914\_ChartAddInBase.h
;	COMDAT ?OnLButtonDown@CChartAddInBase135914@@MAEHPAUHDC__@@IAAUtagPOINT@@K@Z
_TEXT	SEGMENT
_p_hDC$ = 8						; size = 4
_nFlags$ = 12						; size = 4
_point$ = 16						; size = 4
_p_dwMouseActionID$ = 20				; size = 4
?OnLButtonDown@CChartAddInBase135914@@MAEHPAUHDC__@@IAAUtagPOINT@@K@Z PROC ; CChartAddInBase135914::OnLButtonDown, COMDAT
; _this$ = ecx

; 153  : 	virtual BOOL	OnLButtonDown(		HDC p_hDC, UINT nFlags, POINT &point, const DWORD p_dwMouseActionID)									{	return FALSE;	}

  00000	33 c0		 xor	 eax, eax
  00002	c2 10 00	 ret	 16			; 00000010H
?OnLButtonDown@CChartAddInBase135914@@MAEHPAUHDC__@@IAAUtagPOINT@@K@Z ENDP ; CChartAddInBase135914::OnLButtonDown
_TEXT	ENDS
; Function compile flags: /Ogtp
; File D:\git\src\IBK\IBK_DRFN\ProjSrc\SrcChartEx\ChartAddIn\ChartEnvSetupDlgAddIn\Include_Addin_135914\I135914\_ChartAddInBase.h
;	COMDAT ?OnMouseMove@CChartAddInBase135914@@MAEHPAUHDC__@@IAAUtagPOINT@@K@Z
_TEXT	SEGMENT
_p_hDC$ = 8						; size = 4
_nFlags$ = 12						; size = 4
_point$ = 16						; size = 4
_p_dwMouseActionID$ = 20				; size = 4
?OnMouseMove@CChartAddInBase135914@@MAEHPAUHDC__@@IAAUtagPOINT@@K@Z PROC ; CChartAddInBase135914::OnMouseMove, COMDAT
; _this$ = ecx

; 152  : 	virtual BOOL	OnMouseMove(		HDC p_hDC, UINT nFlags, POINT &point, const DWORD p_dwMouseActionID)									{	return FALSE;	}

  00000	33 c0		 xor	 eax, eax
  00002	c2 10 00	 ret	 16			; 00000010H
?OnMouseMove@CChartAddInBase135914@@MAEHPAUHDC__@@IAAUtagPOINT@@K@Z ENDP ; CChartAddInBase135914::OnMouseMove
_TEXT	ENDS
; Function compile flags: /Ogtp
; File D:\git\src\IBK\IBK_DRFN\ProjSrc\SrcChartEx\ChartAddIn\ChartEnvSetupDlgAddIn\Include_Addin_135914\I135914\_ChartAddInBase.h
;	COMDAT ?OnMouseWheel@CChartAddInBase135914@@MAEHIFUtagPOINT@@K@Z
_TEXT	SEGMENT
_nFlags$ = 8						; size = 4
_zDelta$ = 12						; size = 2
_pt$ = 16						; size = 8
_p_dwMouseActionID$ = 24				; size = 4
?OnMouseWheel@CChartAddInBase135914@@MAEHIFUtagPOINT@@K@Z PROC ; CChartAddInBase135914::OnMouseWheel, COMDAT
; _this$ = ecx

; 151  : 	virtual BOOL	OnMouseWheel(		UINT nFlags, short zDelta, POINT pt, const DWORD p_dwMouseActionID)										{	return FALSE;	}

  00000	33 c0		 xor	 eax, eax
  00002	c2 14 00	 ret	 20			; 00000014H
?OnMouseWheel@CChartAddInBase135914@@MAEHIFUtagPOINT@@K@Z ENDP ; CChartAddInBase135914::OnMouseWheel
_TEXT	ENDS
; Function compile flags: /Ogtp
; File D:\git\src\IBK\IBK_DRFN\ProjSrc\SrcChartEx\ChartAddIn\ChartEnvSetupDlgAddIn\Include_Addin_135914\I135914\_ChartAddInBase.h
;	COMDAT ?OnKeyUp@CChartAddInBase135914@@MAEHIII@Z
_TEXT	SEGMENT
_nChar$ = 8						; size = 4
_nRepCnt$ = 12						; size = 4
_nFlags$ = 16						; size = 4
?OnKeyUp@CChartAddInBase135914@@MAEHIII@Z PROC		; CChartAddInBase135914::OnKeyUp, COMDAT
; _this$ = ecx

; 150  : 	virtual BOOL	OnKeyUp(			UINT nChar, UINT nRepCnt, UINT nFlags)																	{	return FALSE;	}

  00000	33 c0		 xor	 eax, eax
  00002	c2 0c 00	 ret	 12			; 0000000cH
?OnKeyUp@CChartAddInBase135914@@MAEHIII@Z ENDP		; CChartAddInBase135914::OnKeyUp
_TEXT	ENDS
; Function compile flags: /Ogtp
; File D:\git\src\IBK\IBK_DRFN\ProjSrc\SrcChartEx\ChartAddIn\ChartEnvSetupDlgAddIn\Include_Addin_135914\I135914\_ChartAddInBase.h
;	COMDAT ?OnKeyDown@CChartAddInBase135914@@MAEHIII@Z
_TEXT	SEGMENT
_nChar$ = 8						; size = 4
_nRepCnt$ = 12						; size = 4
_nFlags$ = 16						; size = 4
?OnKeyDown@CChartAddInBase135914@@MAEHIII@Z PROC	; CChartAddInBase135914::OnKeyDown, COMDAT
; _this$ = ecx

; 149  : 	virtual BOOL	OnKeyDown(			UINT nChar, UINT nRepCnt, UINT nFlags)																	{	return FALSE;	}

  00000	33 c0		 xor	 eax, eax
  00002	c2 0c 00	 ret	 12			; 0000000cH
?OnKeyDown@CChartAddInBase135914@@MAEHIII@Z ENDP	; CChartAddInBase135914::OnKeyDown
_TEXT	ENDS
; Function compile flags: /Ogtp
; File D:\git\src\IBK\IBK_DRFN\ProjSrc\SrcChartEx\ChartAddIn\ChartEnvSetupDlgAddIn\Include_Addin_135914\I135914\_ChartAddInBase.h
;	COMDAT ?OnAddInToolCommand@CChartAddInBase135914@@MAEHAAJW4EAICommandType@@JJ@Z
_TEXT	SEGMENT
_p_lResult$ = 8						; size = 4
_p_eCommandID$ = 12					; size = 4
_p_lParam1$ = 16					; size = 4
_p_lParam2$ = 20					; size = 4
?OnAddInToolCommand@CChartAddInBase135914@@MAEHAAJW4EAICommandType@@JJ@Z PROC ; CChartAddInBase135914::OnAddInToolCommand, COMDAT
; _this$ = ecx

; 147  : 	virtual BOOL	OnAddInToolCommand(	long &p_lResult, const EAICommandType p_eCommandID, const long p_lParam1, const long p_lParam2)			{	return FALSE;	}

  00000	33 c0		 xor	 eax, eax
  00002	c2 10 00	 ret	 16			; 00000010H
?OnAddInToolCommand@CChartAddInBase135914@@MAEHAAJW4EAICommandType@@JJ@Z ENDP ; CChartAddInBase135914::OnAddInToolCommand
_TEXT	ENDS
; Function compile flags: /Ogtp
; File D:\git\src\IBK\IBK_DRFN\ProjSrc\SrcChartEx\ChartAddIn\ChartEnvSetupDlgAddIn\Include_Addin_135914\I135914\_ChartAddInBase.h
;	COMDAT ?OnAddInToolCommand@CChartAddInBase135914@@MAEHAAJW4EAICommandType@@J@Z
_TEXT	SEGMENT
_p_lResult$ = 8						; size = 4
_p_eCommandID$ = 12					; size = 4
_p_lParam$ = 16						; size = 4
?OnAddInToolCommand@CChartAddInBase135914@@MAEHAAJW4EAICommandType@@J@Z PROC ; CChartAddInBase135914::OnAddInToolCommand, COMDAT
; _this$ = ecx

; 146  : 	virtual BOOL	OnAddInToolCommand(	long &p_lResult, const EAICommandType p_eCommandID, const long p_lParam)								{	return FALSE;	}

  00000	33 c0		 xor	 eax, eax
  00002	c2 0c 00	 ret	 12			; 0000000cH
?OnAddInToolCommand@CChartAddInBase135914@@MAEHAAJW4EAICommandType@@J@Z ENDP ; CChartAddInBase135914::OnAddInToolCommand
_TEXT	ENDS
; Function compile flags: /Ogtp
; File D:\git\src\IBK\IBK_DRFN\ProjSrc\SrcChartEx\ChartAddIn\ChartEnvSetupDlgAddIn\Include_Addin_135914\I135914\_ChartAddInBase.h
;	COMDAT ?OnAddInToolCommand@CChartAddInBase135914@@MAEHAAJW4EAICommandType@@PBDPAVCObject@@@Z
_TEXT	SEGMENT
_p_lResult$ = 8						; size = 4
_p_eCommandID$ = 12					; size = 4
_p_szParam$ = 16					; size = 4
_p_pParam$ = 20						; size = 4
?OnAddInToolCommand@CChartAddInBase135914@@MAEHAAJW4EAICommandType@@PBDPAVCObject@@@Z PROC ; CChartAddInBase135914::OnAddInToolCommand, COMDAT
; _this$ = ecx

; 145  : 	virtual BOOL	OnAddInToolCommand(	long &p_lResult, const EAICommandType p_eCommandID, const char *p_szParam, CObject *p_pParam)			{	return FALSE;	}

  00000	33 c0		 xor	 eax, eax
  00002	c2 10 00	 ret	 16			; 00000010H
?OnAddInToolCommand@CChartAddInBase135914@@MAEHAAJW4EAICommandType@@PBDPAVCObject@@@Z ENDP ; CChartAddInBase135914::OnAddInToolCommand
_TEXT	ENDS
; Function compile flags: /Ogtp
; File D:\git\src\IBK\IBK_DRFN\ProjSrc\SrcChartEx\ChartAddIn\ChartEnvSetupDlgAddIn\Include_Addin_135914\I135914\_ChartAddInBase.h
;	COMDAT ?OnAddInToolCommand@CChartAddInBase135914@@MAEHAAJW4EAICommandType@@PBD@Z
_TEXT	SEGMENT
_p_lResult$ = 8						; size = 4
_p_eCommandID$ = 12					; size = 4
_p_szParam$ = 16					; size = 4
?OnAddInToolCommand@CChartAddInBase135914@@MAEHAAJW4EAICommandType@@PBD@Z PROC ; CChartAddInBase135914::OnAddInToolCommand, COMDAT
; _this$ = ecx

; 144  : 	virtual BOOL	OnAddInToolCommand(	long &p_lResult, const EAICommandType p_eCommandID, const char *p_szParam)								{	return FALSE;	}

  00000	33 c0		 xor	 eax, eax
  00002	c2 0c 00	 ret	 12			; 0000000cH
?OnAddInToolCommand@CChartAddInBase135914@@MAEHAAJW4EAICommandType@@PBD@Z ENDP ; CChartAddInBase135914::OnAddInToolCommand
_TEXT	ENDS
; Function compile flags: /Ogtp
; File D:\git\src\IBK\IBK_DRFN\ProjSrc\SrcChartEx\ChartAddIn\ChartEnvSetupDlgAddIn\Include_Addin_135914\I135914\_ChartAddInBase.h
;	COMDAT ?OnAddInToolCommand@CChartAddInBase135914@@MAEHAAJW4EAICommandType@@PAUIGraphInfo135914@@@Z
_TEXT	SEGMENT
_p_lResult$ = 8						; size = 4
_p_eCommandID$ = 12					; size = 4
_p_pIGraphInfo$ = 16					; size = 4
?OnAddInToolCommand@CChartAddInBase135914@@MAEHAAJW4EAICommandType@@PAUIGraphInfo135914@@@Z PROC ; CChartAddInBase135914::OnAddInToolCommand, COMDAT
; _this$ = ecx

; 143  : 	virtual BOOL	OnAddInToolCommand(	long &p_lResult, const EAICommandType p_eCommandID, IGraphInfo *p_pIGraphInfo)							{	return FALSE;	}

  00000	33 c0		 xor	 eax, eax
  00002	c2 0c 00	 ret	 12			; 0000000cH
?OnAddInToolCommand@CChartAddInBase135914@@MAEHAAJW4EAICommandType@@PAUIGraphInfo135914@@@Z ENDP ; CChartAddInBase135914::OnAddInToolCommand
_TEXT	ENDS
; Function compile flags: /Ogtp
; File D:\git\src\IBK\IBK_DRFN\ProjSrc\SrcChartEx\ChartAddIn\ChartEnvSetupDlgAddIn\Include_Addin_135914\I135914\_ChartAddInBase.h
;	COMDAT ?OnAddInToolCommand@CChartAddInBase135914@@MAEHAAJW4EAICommandType@@@Z
_TEXT	SEGMENT
_p_lResult$ = 8						; size = 4
_p_eCommandID$ = 12					; size = 4
?OnAddInToolCommand@CChartAddInBase135914@@MAEHAAJW4EAICommandType@@@Z PROC ; CChartAddInBase135914::OnAddInToolCommand, COMDAT
; _this$ = ecx

; 142  : 	virtual BOOL	OnAddInToolCommand(	long &p_lResult, const EAICommandType p_eCommandID)														{	return FALSE;	}

  00000	33 c0		 xor	 eax, eax
  00002	c2 08 00	 ret	 8
?OnAddInToolCommand@CChartAddInBase135914@@MAEHAAJW4EAICommandType@@@Z ENDP ; CChartAddInBase135914::OnAddInToolCommand
_TEXT	ENDS
; Function compile flags: /Ogtp
; File D:\git\src\IBK\IBK_DRFN\ProjSrc\SrcChartEx\ChartAddIn\ChartEnvSetupDlgAddIn\Include_Addin_135914\I135914\_ChartAddInBase.h
;	COMDAT ?OnAddInToolCommand@CChartAddInBase135914@@MAEHW4EAICommandType@@PAUHWND__@@AAUtagPOINT@@@Z
_TEXT	SEGMENT
_p_eCommandID$ = 8					; size = 4
_p_hWnd$ = 12						; size = 4
_point$ = 16						; size = 4
?OnAddInToolCommand@CChartAddInBase135914@@MAEHW4EAICommandType@@PAUHWND__@@AAUtagPOINT@@@Z PROC ; CChartAddInBase135914::OnAddInToolCommand, COMDAT
; _this$ = ecx

; 141  : 	virtual BOOL	OnAddInToolCommand(	const EAICommandType p_eCommandID, HWND p_hWnd, POINT &point)											{	return FALSE;	}

  00000	33 c0		 xor	 eax, eax
  00002	c2 0c 00	 ret	 12			; 0000000cH
?OnAddInToolCommand@CChartAddInBase135914@@MAEHW4EAICommandType@@PAUHWND__@@AAUtagPOINT@@@Z ENDP ; CChartAddInBase135914::OnAddInToolCommand
_TEXT	ENDS
; Function compile flags: /Ogtp
; File D:\git\src\IBK\IBK_DRFN\ProjSrc\SrcChartEx\ChartAddIn\ChartEnvSetupDlgAddIn\Include_Addin_135914\I135914\_ChartAddInBase.h
;	COMDAT ?OnAddInToolCommand@CChartAddInBase135914@@MAEHW4EAICommandType@@JJJJJJJJJ@Z
_TEXT	SEGMENT
_p_eCommandID$ = 8					; size = 4
_p_lParam1$ = 12					; size = 4
_p_lParam2$ = 16					; size = 4
_p_lParam3$ = 20					; size = 4
_p_lParam4$ = 24					; size = 4
_p_lParam5$ = 28					; size = 4
_p_lParam6$ = 32					; size = 4
_p_lParam7$ = 36					; size = 4
_p_lParam8$ = 40					; size = 4
_p_lParam9$ = 44					; size = 4
?OnAddInToolCommand@CChartAddInBase135914@@MAEHW4EAICommandType@@JJJJJJJJJ@Z PROC ; CChartAddInBase135914::OnAddInToolCommand, COMDAT
; _this$ = ecx

; 140  : 	virtual BOOL	OnAddInToolCommand(	const EAICommandType p_eCommandID, const long p_lParam1, const long p_lParam2, const long p_lParam3, const long p_lParam4, const long p_lParam5, const long p_lParam6, const long p_lParam7, const long p_lParam8, const long p_lParam9)	{	return FALSE;	}

  00000	33 c0		 xor	 eax, eax
  00002	c2 28 00	 ret	 40			; 00000028H
?OnAddInToolCommand@CChartAddInBase135914@@MAEHW4EAICommandType@@JJJJJJJJJ@Z ENDP ; CChartAddInBase135914::OnAddInToolCommand
_TEXT	ENDS
; Function compile flags: /Ogtp
; File D:\git\src\IBK\IBK_DRFN\ProjSrc\SrcChartEx\ChartAddIn\ChartEnvSetupDlgAddIn\Include_Addin_135914\I135914\_ChartAddInBase.h
;	COMDAT ?OnAddInToolCommand@CChartAddInBase135914@@MAEHW4EAICommandType@@JJ@Z
_TEXT	SEGMENT
_p_eCommandID$ = 8					; size = 4
_p_lParam1$ = 12					; size = 4
_p_lParam2$ = 16					; size = 4
?OnAddInToolCommand@CChartAddInBase135914@@MAEHW4EAICommandType@@JJ@Z PROC ; CChartAddInBase135914::OnAddInToolCommand, COMDAT
; _this$ = ecx

; 139  : 	virtual BOOL	OnAddInToolCommand(	const EAICommandType p_eCommandID, const long p_lParam1, const long p_lParam2)							{	return FALSE;	}

  00000	33 c0		 xor	 eax, eax
  00002	c2 0c 00	 ret	 12			; 0000000cH
?OnAddInToolCommand@CChartAddInBase135914@@MAEHW4EAICommandType@@JJ@Z ENDP ; CChartAddInBase135914::OnAddInToolCommand
_TEXT	ENDS
; Function compile flags: /Ogtp
; File D:\git\src\IBK\IBK_DRFN\ProjSrc\SrcChartEx\ChartAddIn\ChartEnvSetupDlgAddIn\Include_Addin_135914\I135914\_ChartAddInBase.h
;	COMDAT ?OnAddInToolCommand@CChartAddInBase135914@@MAEHW4EAICommandType@@JPBD11@Z
_TEXT	SEGMENT
_p_eCommandID$ = 8					; size = 4
_p_lParam$ = 12						; size = 4
_p_szParam1$ = 16					; size = 4
_p_szParam2$ = 20					; size = 4
_p_szParam3$ = 24					; size = 4
?OnAddInToolCommand@CChartAddInBase135914@@MAEHW4EAICommandType@@JPBD11@Z PROC ; CChartAddInBase135914::OnAddInToolCommand, COMDAT
; _this$ = ecx

; 138  : 	virtual BOOL	OnAddInToolCommand( const EAICommandType p_eCommandID, const long p_lParam, const char *p_szParam1, const char *p_szParam2, const char *p_szParam3)	{	return FALSE;	}

  00000	33 c0		 xor	 eax, eax
  00002	c2 14 00	 ret	 20			; 00000014H
?OnAddInToolCommand@CChartAddInBase135914@@MAEHW4EAICommandType@@JPBD11@Z ENDP ; CChartAddInBase135914::OnAddInToolCommand
_TEXT	ENDS
; Function compile flags: /Ogtp
; File D:\git\src\IBK\IBK_DRFN\ProjSrc\SrcChartEx\ChartAddIn\ChartEnvSetupDlgAddIn\Include_Addin_135914\I135914\_ChartAddInBase.h
;	COMDAT ?OnAddInToolCommand@CChartAddInBase135914@@MAEHW4EAICommandType@@JPBD@Z
_TEXT	SEGMENT
_p_eCommandID$ = 8					; size = 4
_p_lParam$ = 12						; size = 4
_p_szParam$ = 16					; size = 4
?OnAddInToolCommand@CChartAddInBase135914@@MAEHW4EAICommandType@@JPBD@Z PROC ; CChartAddInBase135914::OnAddInToolCommand, COMDAT
; _this$ = ecx

; 137  : 	virtual BOOL	OnAddInToolCommand( const EAICommandType p_eCommandID, const long p_lParam, const char *p_szParam)							{	return FALSE;	}

  00000	33 c0		 xor	 eax, eax
  00002	c2 0c 00	 ret	 12			; 0000000cH
?OnAddInToolCommand@CChartAddInBase135914@@MAEHW4EAICommandType@@JPBD@Z ENDP ; CChartAddInBase135914::OnAddInToolCommand
_TEXT	ENDS
; Function compile flags: /Ogtp
; File D:\git\src\IBK\IBK_DRFN\ProjSrc\SrcChartEx\ChartAddIn\ChartEnvSetupDlgAddIn\Include_Addin_135914\I135914\_ChartAddInBase.h
;	COMDAT ?OnAddInToolCommand@CChartAddInBase135914@@MAEHW4EAICommandType@@J@Z
_TEXT	SEGMENT
_p_eCommandID$ = 8					; size = 4
_p_lParam$ = 12						; size = 4
?OnAddInToolCommand@CChartAddInBase135914@@MAEHW4EAICommandType@@J@Z PROC ; CChartAddInBase135914::OnAddInToolCommand, COMDAT
; _this$ = ecx

; 136  : 	virtual BOOL	OnAddInToolCommand(	const EAICommandType p_eCommandID, const long p_lParam)													{	return FALSE;	}

  00000	33 c0		 xor	 eax, eax
  00002	c2 08 00	 ret	 8
?OnAddInToolCommand@CChartAddInBase135914@@MAEHW4EAICommandType@@J@Z ENDP ; CChartAddInBase135914::OnAddInToolCommand
_TEXT	ENDS
; Function compile flags: /Ogtp
; File D:\git\src\IBK\IBK_DRFN\ProjSrc\SrcChartEx\ChartAddIn\ChartEnvSetupDlgAddIn\Include_Addin_135914\I135914\_ChartAddInBase.h
;	COMDAT ?OnAddInToolCommand@CChartAddInBase135914@@MAEHW4EAICommandType@@PBUIAddInDllBase@@@Z
_TEXT	SEGMENT
_p_eCommandID$ = 8					; size = 4
_p_pParam$ = 12						; size = 4
?OnAddInToolCommand@CChartAddInBase135914@@MAEHW4EAICommandType@@PBUIAddInDllBase@@@Z PROC ; CChartAddInBase135914::OnAddInToolCommand, COMDAT
; _this$ = ecx

; 135  : 	virtual BOOL	OnAddInToolCommand(	const EAICommandType p_eCommandID, const IAddInDllBase *p_pParam)										{	return FALSE;	}

  00000	33 c0		 xor	 eax, eax
  00002	c2 08 00	 ret	 8
?OnAddInToolCommand@CChartAddInBase135914@@MAEHW4EAICommandType@@PBUIAddInDllBase@@@Z ENDP ; CChartAddInBase135914::OnAddInToolCommand
_TEXT	ENDS
; Function compile flags: /Ogtp
; File D:\git\src\IBK\IBK_DRFN\ProjSrc\SrcChartEx\ChartAddIn\ChartEnvSetupDlgAddIn\Include_Addin_135914\I135914\_ChartAddInBase.h
;	COMDAT ?OnAddInToolCommand@CChartAddInBase135914@@MAEHW4EAICommandType@@PBVCBlockBehaviorData@@@Z
_TEXT	SEGMENT
_p_eCommandID$ = 8					; size = 4
_p_pParam$ = 12						; size = 4
?OnAddInToolCommand@CChartAddInBase135914@@MAEHW4EAICommandType@@PBVCBlockBehaviorData@@@Z PROC ; CChartAddInBase135914::OnAddInToolCommand, COMDAT
; _this$ = ecx

; 134  : 	virtual BOOL	OnAddInToolCommand(	const EAICommandType p_eCommandID, const CBlockBehaviorData *p_pParam)									{	return FALSE;	}

  00000	33 c0		 xor	 eax, eax
  00002	c2 08 00	 ret	 8
?OnAddInToolCommand@CChartAddInBase135914@@MAEHW4EAICommandType@@PBVCBlockBehaviorData@@@Z ENDP ; CChartAddInBase135914::OnAddInToolCommand
_TEXT	ENDS
; Function compile flags: /Ogtp
; File D:\git\src\IBK\IBK_DRFN\ProjSrc\SrcChartEx\ChartAddIn\ChartEnvSetupDlgAddIn\Include_Addin_135914\I135914\_ChartAddInBase.h
;	COMDAT ?OnAddInToolCommand@CChartAddInBase135914@@MAEHW4EAICommandType@@PBDJ@Z
_TEXT	SEGMENT
_p_eCommandID$ = 8					; size = 4
_p_szParam$ = 12					; size = 4
_p_lParam$ = 16						; size = 4
?OnAddInToolCommand@CChartAddInBase135914@@MAEHW4EAICommandType@@PBDJ@Z PROC ; CChartAddInBase135914::OnAddInToolCommand, COMDAT
; _this$ = ecx

; 133  : 	virtual BOOL	OnAddInToolCommand( const EAICommandType p_eCommandID, const char *p_szParam, const long p_lParam)							{	return FALSE;	}

  00000	33 c0		 xor	 eax, eax
  00002	c2 0c 00	 ret	 12			; 0000000cH
?OnAddInToolCommand@CChartAddInBase135914@@MAEHW4EAICommandType@@PBDJ@Z ENDP ; CChartAddInBase135914::OnAddInToolCommand
_TEXT	ENDS
; Function compile flags: /Ogtp
; File D:\git\src\IBK\IBK_DRFN\ProjSrc\SrcChartEx\ChartAddIn\ChartEnvSetupDlgAddIn\Include_Addin_135914\I135914\_ChartAddInBase.h
;	COMDAT ?OnAddInToolCommand@CChartAddInBase135914@@MAEHW4EAICommandType@@PBD@Z
_TEXT	SEGMENT
_p_eCommandID$ = 8					; size = 4
_p_szParam$ = 12					; size = 4
?OnAddInToolCommand@CChartAddInBase135914@@MAEHW4EAICommandType@@PBD@Z PROC ; CChartAddInBase135914::OnAddInToolCommand, COMDAT
; _this$ = ecx

; 132  : 	virtual BOOL	OnAddInToolCommand(	const EAICommandType p_eCommandID, const char *p_szParam)												{	return FALSE;	}

  00000	33 c0		 xor	 eax, eax
  00002	c2 08 00	 ret	 8
?OnAddInToolCommand@CChartAddInBase135914@@MAEHW4EAICommandType@@PBD@Z ENDP ; CChartAddInBase135914::OnAddInToolCommand
_TEXT	ENDS
; Function compile flags: /Ogtp
; File D:\git\src\IBK\IBK_DRFN\ProjSrc\SrcChartEx\ChartAddIn\ChartEnvSetupDlgAddIn\Include_Addin_135914\I135914\_ChartAddInBase.h
;	COMDAT ?OnAddInToolCommand@CChartAddInBase135914@@MAEHW4EAICommandType@@PAUHDC__@@IAAUtagPOINT@@K@Z
_TEXT	SEGMENT
_p_eCommandID$ = 8					; size = 4
_p_hDC$ = 12						; size = 4
_nFlags$ = 16						; size = 4
_point$ = 20						; size = 4
_p_dwMouseActionID$ = 24				; size = 4
?OnAddInToolCommand@CChartAddInBase135914@@MAEHW4EAICommandType@@PAUHDC__@@IAAUtagPOINT@@K@Z PROC ; CChartAddInBase135914::OnAddInToolCommand, COMDAT
; _this$ = ecx

; 131  : 	virtual BOOL	OnAddInToolCommand(	const EAICommandType p_eCommandID, HDC p_hDC, UINT nFlags, POINT &point, const DWORD p_dwMouseActionID)	{	return FALSE;	}

  00000	33 c0		 xor	 eax, eax
  00002	c2 14 00	 ret	 20			; 00000014H
?OnAddInToolCommand@CChartAddInBase135914@@MAEHW4EAICommandType@@PAUHDC__@@IAAUtagPOINT@@K@Z ENDP ; CChartAddInBase135914::OnAddInToolCommand
_TEXT	ENDS
; Function compile flags: /Ogtp
; File D:\git\src\IBK\IBK_DRFN\ProjSrc\SrcChartEx\ChartAddIn\ChartEnvSetupDlgAddIn\Include_Addin_135914\I135914\_ChartAddInBase.h
;	COMDAT ?OnAddInToolCommand@CChartAddInBase135914@@MAEHW4EAICommandType@@@Z
_TEXT	SEGMENT
_p_eCommandID$ = 8					; size = 4
?OnAddInToolCommand@CChartAddInBase135914@@MAEHW4EAICommandType@@@Z PROC ; CChartAddInBase135914::OnAddInToolCommand, COMDAT
; _this$ = ecx

; 130  : 	virtual BOOL	OnAddInToolCommand(	const EAICommandType p_eCommandID)																		{	return FALSE;	}

  00000	33 c0		 xor	 eax, eax
  00002	c2 04 00	 ret	 4
?OnAddInToolCommand@CChartAddInBase135914@@MAEHW4EAICommandType@@@Z ENDP ; CChartAddInBase135914::OnAddInToolCommand
_TEXT	ENDS
; Function compile flags: /Ogtp
; File D:\git\src\IBK\IBK_DRFN\ProjSrc\SrcChartEx\ChartAddIn\ChartEnvSetupDlgAddIn\Include_Addin_135914\I135914\_ChartAddInBase.h
;	COMDAT ?OnCmdMsg@CChartAddInBase135914@@MAEHIHPAUICmdUI135914@@@Z
_TEXT	SEGMENT
_nID$ = 8						; size = 4
_nCode$ = 12						; size = 4
_p_pICmdUI$ = 16					; size = 4
?OnCmdMsg@CChartAddInBase135914@@MAEHIHPAUICmdUI135914@@@Z PROC ; CChartAddInBase135914::OnCmdMsg, COMDAT
; _this$ = ecx

; 129  : 	virtual BOOL	OnCmdMsg(			UINT nID, int nCode, ICmdUI *p_pICmdUI)																	{	return FALSE;	}

  00000	33 c0		 xor	 eax, eax
  00002	c2 0c 00	 ret	 12			; 0000000cH
?OnCmdMsg@CChartAddInBase135914@@MAEHIHPAUICmdUI135914@@@Z ENDP ; CChartAddInBase135914::OnCmdMsg
_TEXT	ENDS
; Function compile flags: /Ogtp
; File D:\git\src\IBK\IBK_DRFN\ProjSrc\SrcChartEx\ChartAddIn\ChartEnvSetupDlgAddIn\Include_Addin_135914\I135914\_ChartAddInBase.h
;	COMDAT ?OnGraphDeleted@CChartAddInBase135914@@MAEXPBD0@Z
_TEXT	SEGMENT
_p_szGraphName$ = 8					; size = 4
_p_szIndicatorName$ = 12				; size = 4
?OnGraphDeleted@CChartAddInBase135914@@MAEXPBD0@Z PROC	; CChartAddInBase135914::OnGraphDeleted, COMDAT
; _this$ = ecx

; 123  : 	virtual void	OnGraphDeleted( const char *p_szGraphName, const char *p_szIndicatorName)	{};

  00000	c2 08 00	 ret	 8
?OnGraphDeleted@CChartAddInBase135914@@MAEXPBD0@Z ENDP	; CChartAddInBase135914::OnGraphDeleted
_TEXT	ENDS
; Function compile flags: /Ogtp
; File D:\git\src\IBK\IBK_DRFN\ProjSrc\SrcChartEx\ChartAddIn\ChartEnvSetupDlgAddIn\Include_Addin_135914\I135914\_ChartAddInBase.h
;	COMDAT ?OnDrdsPacketEnd@CChartAddInBase135914@@MAEXIJ@Z
_TEXT	SEGMENT
_p_wParam$ = 8						; size = 4
_p_lParam$ = 12						; size = 4
?OnDrdsPacketEnd@CChartAddInBase135914@@MAEXIJ@Z PROC	; CChartAddInBase135914::OnDrdsPacketEnd, COMDAT
; _this$ = ecx

; 120  : 	virtual void	OnDrdsPacketEnd( WPARAM p_wParam, LPARAM p_lParam)	{}

  00000	c2 08 00	 ret	 8
?OnDrdsPacketEnd@CChartAddInBase135914@@MAEXIJ@Z ENDP	; CChartAddInBase135914::OnDrdsPacketEnd
_TEXT	ENDS
; Function compile flags: /Ogtp
; File D:\git\src\IBK\IBK_DRFN\ProjSrc\SrcChartEx\ChartAddIn\ChartEnvSetupDlgAddIn\Include_Addin_135914\I135914\_ChartAddInBase.h
;	COMDAT ?OnDrdsData@CChartAddInBase135914@@MAEXIJ@Z
_TEXT	SEGMENT
_p_wParam$ = 8						; size = 4
_p_lParam$ = 12						; size = 4
?OnDrdsData@CChartAddInBase135914@@MAEXIJ@Z PROC	; CChartAddInBase135914::OnDrdsData, COMDAT
; _this$ = ecx

; 118  : 	virtual void	OnDrdsData( WPARAM p_wParam, LPARAM p_lParam)		{}

  00000	c2 08 00	 ret	 8
?OnDrdsData@CChartAddInBase135914@@MAEXIJ@Z ENDP	; CChartAddInBase135914::OnDrdsData
_TEXT	ENDS
; Function compile flags: /Ogtp
; File D:\git\src\IBK\IBK_DRFN\ProjSrc\SrcChartEx\ChartAddIn\ChartEnvSetupDlgAddIn\Include_Addin_135914\I135914\_ChartAddInBase.h
;	COMDAT ?OnCaptureChanged@CChartAddInBase135914@@MAEXPAUHWND__@@@Z
_TEXT	SEGMENT
_p_hWnd$ = 8						; size = 4
?OnCaptureChanged@CChartAddInBase135914@@MAEXPAUHWND__@@@Z PROC ; CChartAddInBase135914::OnCaptureChanged, COMDAT
; _this$ = ecx

; 111  : 	virtual void	OnCaptureChanged(	HWND p_hWnd)	{}

  00000	c2 04 00	 ret	 4
?OnCaptureChanged@CChartAddInBase135914@@MAEXPAUHWND__@@@Z ENDP ; CChartAddInBase135914::OnCaptureChanged
_TEXT	ENDS
; Function compile flags: /Ogtp
; File D:\git\src\IBK\IBK_DRFN\ProjSrc\SrcChartEx\ChartAddIn\ChartEnvSetupDlgAddIn\Include_Addin_135914\I135914\_ChartAddInBase.h
;	COMDAT ?OnTimer@CChartAddInBase135914@@MAEXI@Z
_TEXT	SEGMENT
_p_uTimerID$ = 8					; size = 4
?OnTimer@CChartAddInBase135914@@MAEXI@Z PROC		; CChartAddInBase135914::OnTimer, COMDAT
; _this$ = ecx

; 106  : 	virtual void	OnTimer( UINT p_uTimerID)	{}

  00000	c2 04 00	 ret	 4
?OnTimer@CChartAddInBase135914@@MAEXI@Z ENDP		; CChartAddInBase135914::OnTimer
_TEXT	ENDS
; Function compile flags: /Ogtp
; File D:\git\src\IBK\IBK_DRFN\ProjSrc\SrcChartEx\ChartAddIn\ChartEnvSetupDlgAddIn\Include_Addin_135914\I135914\_ChartAddInBase.h
;	COMDAT ?OnUpdatePacketData@CChartAddInBase135914@@MAEXH@Z
_TEXT	SEGMENT
_p_bTrUpdate$ = 8					; size = 4
?OnUpdatePacketData@CChartAddInBase135914@@MAEXH@Z PROC	; CChartAddInBase135914::OnUpdatePacketData, COMDAT
; _this$ = ecx

; 101  : 	virtual void	OnUpdatePacketData( BOOL p_bTrUpdate)	{}

  00000	c2 04 00	 ret	 4
?OnUpdatePacketData@CChartAddInBase135914@@MAEXH@Z ENDP	; CChartAddInBase135914::OnUpdatePacketData
_TEXT	ENDS
; Function compile flags: /Ogtp
; File D:\git\src\IBK\IBK_DRFN\ProjSrc\SrcChartEx\ChartAddIn\ChartEnvSetupDlgAddIn\Include_Addin_135914\I135914\_ChartAddInBase.h
;	COMDAT ?OnPacketData@CChartAddInBase135914@@MAEXPBDH@Z
_TEXT	SEGMENT
_p_szPacketNames$ = 8					; size = 4
_p_bWithReset$ = 12					; size = 4
?OnPacketData@CChartAddInBase135914@@MAEXPBDH@Z PROC	; CChartAddInBase135914::OnPacketData, COMDAT
; _this$ = ecx

; 99   : 	virtual void	OnPacketData( const char *p_szPacketNames, BOOL p_bWithReset)	{}

  00000	c2 08 00	 ret	 8
?OnPacketData@CChartAddInBase135914@@MAEXPBDH@Z ENDP	; CChartAddInBase135914::OnPacketData
_TEXT	ENDS
; Function compile flags: /Ogtp
; File D:\git\src\IBK\IBK_DRFN\ProjSrc\SrcChartEx\ChartAddIn\ChartEnvSetupDlgAddIn\Include_Addin_135914\I135914\_ChartAddInBase.h
;	COMDAT ?OnDrawAfterGraph@CChartAddInBase135914@@MAEXPAUHDC__@@@Z
_TEXT	SEGMENT
_p_hDC$ = 8						; size = 4
?OnDrawAfterGraph@CChartAddInBase135914@@MAEXPAUHDC__@@@Z PROC ; CChartAddInBase135914::OnDrawAfterGraph, COMDAT
; _this$ = ecx

; 97   : 	virtual void	OnDrawAfterGraph( HDC p_hDC)	{}

  00000	c2 04 00	 ret	 4
?OnDrawAfterGraph@CChartAddInBase135914@@MAEXPAUHDC__@@@Z ENDP ; CChartAddInBase135914::OnDrawAfterGraph
_TEXT	ENDS
; Function compile flags: /Ogtp
; File D:\git\src\IBK\IBK_DRFN\ProjSrc\SrcChartEx\ChartAddIn\ChartEnvSetupDlgAddIn\Include_Addin_135914\I135914\_ChartAddInBase.h
;	COMDAT ?OnDrawBeforeGraph@CChartAddInBase135914@@MAEXPAUHDC__@@@Z
_TEXT	SEGMENT
_p_hDC$ = 8						; size = 4
?OnDrawBeforeGraph@CChartAddInBase135914@@MAEXPAUHDC__@@@Z PROC ; CChartAddInBase135914::OnDrawBeforeGraph, COMDAT
; _this$ = ecx

; 95   : 	virtual void	OnDrawBeforeGraph( HDC p_hDC)	{}

  00000	c2 04 00	 ret	 4
?OnDrawBeforeGraph@CChartAddInBase135914@@MAEXPAUHDC__@@@Z ENDP ; CChartAddInBase135914::OnDrawBeforeGraph
_TEXT	ENDS
; Function compile flags: /Ogtp
; File D:\git\src\IBK\IBK_DRFN\ProjSrc\SrcChartEx\ChartAddIn\ChartEnvSetupDlgAddIn\Include_Addin_135914\I135914\_ChartAddInBase.h
;	COMDAT ?OnResetChart@CChartAddInBase135914@@MAEXXZ
_TEXT	SEGMENT
?OnResetChart@CChartAddInBase135914@@MAEXXZ PROC	; CChartAddInBase135914::OnResetChart, COMDAT
; _this$ = ecx

; 93   : 	virtual void	OnResetChart( void)	{}

  00000	c2 00 00	 ret	 0
?OnResetChart@CChartAddInBase135914@@MAEXXZ ENDP	; CChartAddInBase135914::OnResetChart
_TEXT	ENDS
; Function compile flags: /Ogtp
; File D:\git\src\IBK\IBK_DRFN\ProjSrc\SrcChartEx\ChartAddIn\ChartEnvSetupDlgAddIn\Include_Addin_135914\I135914\_ChartAddInBase.h
;	COMDAT ?OnSharedDataChange@CChartAddInBase135914@@MAEXPBD0H@Z
_TEXT	SEGMENT
_p_szShareName$ = 8					; size = 4
_p_szSharedData$ = 12					; size = 4
_p_bStartShare$ = 16					; size = 4
?OnSharedDataChange@CChartAddInBase135914@@MAEXPBD0H@Z PROC ; CChartAddInBase135914::OnSharedDataChange, COMDAT
; _this$ = ecx

; 90   : 	virtual void	OnSharedDataChange( const char *p_szShareName, const char *p_szSharedData, BOOL p_bStartShare)	{}

  00000	c2 0c 00	 ret	 12			; 0000000cH
?OnSharedDataChange@CChartAddInBase135914@@MAEXPBD0H@Z ENDP ; CChartAddInBase135914::OnSharedDataChange
_TEXT	ENDS
; Function compile flags: /Ogtp
; File D:\git\src\IBK\IBK_DRFN\ProjSrc\SrcChartEx\ChartAddIn\ChartEnvSetupDlgAddIn\Include_Addin_135914\I135914\_ChartAddInBase.h
;	COMDAT ?OnLSharedDataChange@CChartAddInBase135914@@MAEXPBD0@Z
_TEXT	SEGMENT
_p_szLShareKey$ = 8					; size = 4
_p_szLShareValue$ = 12					; size = 4
?OnLSharedDataChange@CChartAddInBase135914@@MAEXPBD0@Z PROC ; CChartAddInBase135914::OnLSharedDataChange, COMDAT
; _this$ = ecx

; 88   : 	virtual void	OnLSharedDataChange( const char *p_szLShareKey, const char *p_szLShareValue)	{}

  00000	c2 08 00	 ret	 8
?OnLSharedDataChange@CChartAddInBase135914@@MAEXPBD0@Z ENDP ; CChartAddInBase135914::OnLSharedDataChange
_TEXT	ENDS
; Function compile flags: /Ogtp
; File D:\git\src\IBK\IBK_DRFN\ProjSrc\SrcChartEx\ChartAddIn\ChartEnvSetupDlgAddIn\Include_Addin_135914\I135914\_ChartAddInBase.h
;	COMDAT ?OnGSharedDataChange@CChartAddInBase135914@@MAEXPBD0H@Z
_TEXT	SEGMENT
_p_szGShareKey$ = 8					; size = 4
_p_szGShareValue$ = 12					; size = 4
_p_bStartShare$ = 16					; size = 4
?OnGSharedDataChange@CChartAddInBase135914@@MAEXPBD0H@Z PROC ; CChartAddInBase135914::OnGSharedDataChange, COMDAT
; _this$ = ecx

; 86   : 	virtual void	OnGSharedDataChange( const char *p_szGShareKey, const char *p_szGShareValue, BOOL p_bStartShare)	{}

  00000	c2 0c 00	 ret	 12			; 0000000cH
?OnGSharedDataChange@CChartAddInBase135914@@MAEXPBD0H@Z ENDP ; CChartAddInBase135914::OnGSharedDataChange
_TEXT	ENDS
; Function compile flags: /Ogtp
; File D:\git\src\IBK\IBK_DRFN\ProjSrc\SrcChartEx\ChartAddIn\ChartEnvSetupDlgAddIn\Include_Addin_135914\I135914\_ChartAddInBase.cpp
;	COMDAT ?UnregisterEventMap@CChartAddInBase135914@@UAEHXZ
_TEXT	SEGMENT
_pRegisteredEventMap$1$ = -4				; size = 4
?UnregisterEventMap@CChartAddInBase135914@@UAEHXZ PROC	; CChartAddInBase135914::UnregisterEventMap, COMDAT
; _this$ = ecx

; 119  : {

  00000	55		 push	 ebp
  00001	8b ec		 mov	 ebp, esp
  00003	51		 push	 ecx
  00004	53		 push	 ebx
  00005	8b d9		 mov	 ebx, ecx

; 120  : 	const EAddInEventType *pRegisteredEventMap = GetRegisteredEventMap();

  00007	8b 43 f8	 mov	 eax, DWORD PTR [ebx-8]
  0000a	8d 4b f8	 lea	 ecx, DWORD PTR [ebx-8]
  0000d	56		 push	 esi
  0000e	57		 push	 edi
  0000f	ff 50 2c	 call	 DWORD PTR [eax+44]

; 121  : 
; 122  : 	int nUnregisteredCount = 0;

  00012	33 f6		 xor	 esi, esi
  00014	89 45 fc	 mov	 DWORD PTR _pRegisteredEventMap$1$[ebp], eax

; 123  : 	for( int i = 0; pRegisteredEventMap[ i] != EAE_END; i++)

  00017	33 ff		 xor	 edi, edi
  00019	8b 10		 mov	 edx, DWORD PTR [eax]
  0001b	83 fa 2a	 cmp	 edx, 42			; 0000002aH
  0001e	74 20		 je	 SHORT $LN11@Unregister
$LL4@Unregister:

; 124  : 		if( m_pIAddInToolMgr->UnregisterEventMap( pRegisteredEventMap[ i], m_pIAddInDllBase, m_bOverExclusive)) nUnregisteredCount++;

  00020	8b 4b 1c	 mov	 ecx, DWORD PTR [ebx+28]
  00023	ff 73 24	 push	 DWORD PTR [ebx+36]
  00026	ff 73 0c	 push	 DWORD PTR [ebx+12]
  00029	8b 01		 mov	 eax, DWORD PTR [ecx]
  0002b	52		 push	 edx
  0002c	ff 50 14	 call	 DWORD PTR [eax+20]
  0002f	85 c0		 test	 eax, eax
  00031	74 01		 je	 SHORT $LN2@Unregister
  00033	46		 inc	 esi
$LN2@Unregister:

; 123  : 	for( int i = 0; pRegisteredEventMap[ i] != EAE_END; i++)

  00034	8b 45 fc	 mov	 eax, DWORD PTR _pRegisteredEventMap$1$[ebp]
  00037	47		 inc	 edi
  00038	8b 14 b8	 mov	 edx, DWORD PTR [eax+edi*4]
  0003b	83 fa 2a	 cmp	 edx, 42			; 0000002aH
  0003e	75 e0		 jne	 SHORT $LL4@Unregister
$LN11@Unregister:
  00040	5f		 pop	 edi

; 125  : 
; 126  : 	return nUnregisteredCount;
; 127  : }

  00041	8b c6		 mov	 eax, esi
  00043	5e		 pop	 esi
  00044	5b		 pop	 ebx
  00045	8b e5		 mov	 esp, ebp
  00047	5d		 pop	 ebp
  00048	c3		 ret	 0
?UnregisterEventMap@CChartAddInBase135914@@UAEHXZ ENDP	; CChartAddInBase135914::UnregisterEventMap
_TEXT	ENDS
; Function compile flags: /Ogtp
; File D:\git\src\IBK\IBK_DRFN\ProjSrc\SrcChartEx\ChartAddIn\ChartEnvSetupDlgAddIn\Include_Addin_135914\I135914\_ChartAddInBase.cpp
;	COMDAT ?RegisterEventMap@CChartAddInBase135914@@UAEHH@Z
_TEXT	SEGMENT
_pRegisteredEventMap$1$ = 8				; size = 4
_p_bOverExclusive$ = 8					; size = 4
?RegisterEventMap@CChartAddInBase135914@@UAEHH@Z PROC	; CChartAddInBase135914::RegisterEventMap, COMDAT
; _this$ = ecx

; 105  : {

  00000	55		 push	 ebp
  00001	8b ec		 mov	 ebp, esp

; 106  : 	m_bOverExclusive = p_bOverExclusive;

  00003	8b 45 08	 mov	 eax, DWORD PTR _p_bOverExclusive$[ebp]
  00006	53		 push	 ebx
  00007	8b d9		 mov	 ebx, ecx

; 107  : 
; 108  : 	const EAddInEventType *pRegisteredEventMap = GetRegisteredEventMap();

  00009	8d 4b f8	 lea	 ecx, DWORD PTR [ebx-8]
  0000c	56		 push	 esi
  0000d	57		 push	 edi
  0000e	89 43 24	 mov	 DWORD PTR [ebx+36], eax
  00011	8b 01		 mov	 eax, DWORD PTR [ecx]
  00013	ff 50 2c	 call	 DWORD PTR [eax+44]

; 109  : 
; 110  : 	int nRegisteredCount = 0;

  00016	33 f6		 xor	 esi, esi
  00018	89 45 08	 mov	 DWORD PTR _pRegisteredEventMap$1$[ebp], eax

; 111  : 	for( int i = 0; pRegisteredEventMap[ i] != EAE_END; i++)

  0001b	33 ff		 xor	 edi, edi
  0001d	8b 10		 mov	 edx, DWORD PTR [eax]
  0001f	83 fa 2a	 cmp	 edx, 42			; 0000002aH
  00022	74 20		 je	 SHORT $LN11@RegisterEv
$LL4@RegisterEv:

; 112  : 		if( m_pIAddInToolMgr->RegisterEventMap( pRegisteredEventMap[ i], m_pIAddInDllBase, m_bOverExclusive)) nRegisteredCount++;

  00024	8b 4b 1c	 mov	 ecx, DWORD PTR [ebx+28]
  00027	ff 73 24	 push	 DWORD PTR [ebx+36]
  0002a	ff 73 0c	 push	 DWORD PTR [ebx+12]
  0002d	8b 01		 mov	 eax, DWORD PTR [ecx]
  0002f	52		 push	 edx
  00030	ff 50 10	 call	 DWORD PTR [eax+16]
  00033	85 c0		 test	 eax, eax
  00035	74 01		 je	 SHORT $LN2@RegisterEv
  00037	46		 inc	 esi
$LN2@RegisterEv:

; 111  : 	for( int i = 0; pRegisteredEventMap[ i] != EAE_END; i++)

  00038	8b 45 08	 mov	 eax, DWORD PTR _pRegisteredEventMap$1$[ebp]
  0003b	47		 inc	 edi
  0003c	8b 14 b8	 mov	 edx, DWORD PTR [eax+edi*4]
  0003f	83 fa 2a	 cmp	 edx, 42			; 0000002aH
  00042	75 e0		 jne	 SHORT $LL4@RegisterEv
$LN11@RegisterEv:
  00044	5f		 pop	 edi

; 113  : 
; 114  : 	return nRegisteredCount;
; 115  : }

  00045	8b c6		 mov	 eax, esi
  00047	5e		 pop	 esi
  00048	5b		 pop	 ebx
  00049	5d		 pop	 ebp
  0004a	c2 04 00	 ret	 4
?RegisterEventMap@CChartAddInBase135914@@UAEHH@Z ENDP	; CChartAddInBase135914::RegisterEventMap
_TEXT	ENDS
; Function compile flags: /Ogtp
; File D:\git\src\IBK\IBK_DRFN\ProjSrc\SrcChartEx\ChartAddIn\ChartEnvSetupDlgAddIn\Include_Addin_135914\I135914\_ChartAddInBase.h
;	COMDAT ?GetGlobalAddInEventType@CChartAddInBase135914@@MBE?AW4EAddInEventType@IAddInDllBase@@J@Z
_TEXT	SEGMENT
_p_eAddInEventType$ = 8					; size = 4
?GetGlobalAddInEventType@CChartAddInBase135914@@MBE?AW4EAddInEventType@IAddInDllBase@@J@Z PROC ; CChartAddInBase135914::GetGlobalAddInEventType, COMDAT
; _this$ = ecx

; 73   : 	virtual IAddInDllBase::EAddInEventType	GetGlobalAddInEventType( const long p_eAddInEventType) const	{	return IAddInDllBase::EAddInEventType::EAE_NOT_DEFINED;	}

  00000	83 c8 ff	 or	 eax, -1
  00003	c2 04 00	 ret	 4
?GetGlobalAddInEventType@CChartAddInBase135914@@MBE?AW4EAddInEventType@IAddInDllBase@@J@Z ENDP ; CChartAddInBase135914::GetGlobalAddInEventType
_TEXT	ENDS
; Function compile flags: /Ogtp
; File D:\git\src\IBK\IBK_DRFN\ProjSrc\SrcChartEx\ChartAddIn\ChartEnvSetupDlgAddIn\Include_Addin_135914\I135914\_ChartAddInBase.h
;	COMDAT ?InvokeAddInStr@CChartAddInBase135914@@MAEHPBD0@Z
_TEXT	SEGMENT
_p_szCommandName$ = 8					; size = 4
_p_szData$ = 12						; size = 4
?InvokeAddInStr@CChartAddInBase135914@@MAEHPBD0@Z PROC	; CChartAddInBase135914::InvokeAddInStr, COMDAT
; _this$ = ecx

; 66   : 	virtual BOOL	InvokeAddInStr( LPCTSTR p_szCommandName, LPCTSTR p_szData)	{	return FALSE;	}	// (2005/9/2 - Seung-Won, Bae) for String Data

  00000	33 c0		 xor	 eax, eax
  00002	c2 08 00	 ret	 8
?InvokeAddInStr@CChartAddInBase135914@@MAEHPBD0@Z ENDP	; CChartAddInBase135914::InvokeAddInStr
_TEXT	ENDS
; Function compile flags: /Ogtp
; File D:\git\src\IBK\IBK_DRFN\ProjSrc\SrcChartEx\ChartAddIn\ChartEnvSetupDlgAddIn\Include_Addin_135914\I135914\_ChartAddInBase.h
;	COMDAT ?InvokeAddIn@CChartAddInBase135914@@MAEHHJ@Z
_TEXT	SEGMENT
_p_nCommandType$ = 8					; size = 4
_p_lData$ = 12						; size = 4
?InvokeAddIn@CChartAddInBase135914@@MAEHHJ@Z PROC	; CChartAddInBase135914::InvokeAddIn, COMDAT
; _this$ = ecx

; 65   : 	virtual BOOL	InvokeAddIn( int p_nCommandType, long p_lData)	{	return FALSE;	}

  00000	33 c0		 xor	 eax, eax
  00002	c2 08 00	 ret	 8
?InvokeAddIn@CChartAddInBase135914@@MAEHHJ@Z ENDP	; CChartAddInBase135914::InvokeAddIn
_TEXT	ENDS
; Function compile flags: /Ogtp
; File D:\git\src\IBK\IBK_DRFN\ProjSrc\SrcChartEx\ChartAddIn\ChartEnvSetupDlgAddIn\Include_Addin_135914\I135914\_ChartAddInBase.h
;	COMDAT ?GetAddInCustomInterface@CChartAddInBase135914@@MAEPAUIUnknown@@XZ
_TEXT	SEGMENT
?GetAddInCustomInterface@CChartAddInBase135914@@MAEPAUIUnknown@@XZ PROC ; CChartAddInBase135914::GetAddInCustomInterface, COMDAT
; _this$ = ecx

; 61   : 	virtual IUnknown *	GetAddInCustomInterface( void)				{	return NULL;	}

  00000	33 c0		 xor	 eax, eax
  00002	c3		 ret	 0
?GetAddInCustomInterface@CChartAddInBase135914@@MAEPAUIUnknown@@XZ ENDP ; CChartAddInBase135914::GetAddInCustomInterface
_TEXT	ENDS
; Function compile flags: /Ogtp
; File D:\git\src\IBK\IBK_DRFN\ProjSrc\SrcChartEx\ChartAddIn\ChartEnvSetupDlgAddIn\Include_Addin_135914\I135914\_ChartAddInBase.cpp
;	COMDAT ?HasFullManager@CChartAddInBase135914@@MAEHXZ
_TEXT	SEGMENT
?HasFullManager@CChartAddInBase135914@@MAEHXZ PROC	; CChartAddInBase135914::HasFullManager, COMDAT
; _this$ = ecx

; 100  : 	return m_pIChartOCX && m_pIPacketListManager && m_pIDefaultPacketManager && m_pIChartManager && m_pIGraphInfoManager && m_pIAddInToolMgr;

  00000	83 79 04 00	 cmp	 DWORD PTR [ecx+4], 0
  00004	74 24		 je	 SHORT $LN3@HasFullMan
  00006	83 79 20 00	 cmp	 DWORD PTR [ecx+32], 0
  0000a	74 1e		 je	 SHORT $LN3@HasFullMan
  0000c	83 79 10 00	 cmp	 DWORD PTR [ecx+16], 0
  00010	74 18		 je	 SHORT $LN3@HasFullMan
  00012	83 79 14 00	 cmp	 DWORD PTR [ecx+20], 0
  00016	74 12		 je	 SHORT $LN3@HasFullMan
  00018	83 79 18 00	 cmp	 DWORD PTR [ecx+24], 0
  0001c	74 0c		 je	 SHORT $LN3@HasFullMan
  0001e	83 79 1c 00	 cmp	 DWORD PTR [ecx+28], 0
  00022	74 06		 je	 SHORT $LN3@HasFullMan
  00024	b8 01 00 00 00	 mov	 eax, 1

; 101  : }

  00029	c3		 ret	 0
$LN3@HasFullMan:

; 100  : 	return m_pIChartOCX && m_pIPacketListManager && m_pIDefaultPacketManager && m_pIChartManager && m_pIGraphInfoManager && m_pIAddInToolMgr;

  0002a	33 c0		 xor	 eax, eax

; 101  : }

  0002c	c3		 ret	 0
?HasFullManager@CChartAddInBase135914@@MAEHXZ ENDP	; CChartAddInBase135914::HasFullManager
_TEXT	ENDS
; Function compile flags: /Ogtp
; File D:\git\src\IBK\IBK_DRFN\ProjSrc\SrcChartEx\ChartAddIn\ChartEnvSetupDlgAddIn\Include_Addin_135914\I135914\_ChartAddInBase.h
;	COMDAT ?QueryInterface@CChartAddInBase135914@@MAGJABU_GUID@@PAPAX@Z
_TEXT	SEGMENT
_this$ = 8						; size = 4
_iid$ = 12						; size = 4
_ppvObject$ = 16					; size = 4
?QueryInterface@CChartAddInBase135914@@MAGJABU_GUID@@PAPAX@Z PROC ; CChartAddInBase135914::QueryInterface, COMDAT

; 33   : 	_IWRAPPER_IUNKNOWN_INTERFACE()

  00000	b8 02 40 00 80	 mov	 eax, -2147467262	; 80004002H
  00005	c2 0c 00	 ret	 12			; 0000000cH
?QueryInterface@CChartAddInBase135914@@MAGJABU_GUID@@PAPAX@Z ENDP ; CChartAddInBase135914::QueryInterface
_TEXT	ENDS
; Function compile flags: /Ogtp
; File D:\git\src\IBK\IBK_DRFN\ProjSrc\SrcChartEx\ChartAddIn\ChartEnvSetupDlgAddIn\Include_Addin_135914\I135914\_ChartAddInBase.h
;	COMDAT ?Release@CChartAddInBase135914@@MAGKXZ
_TEXT	SEGMENT
_this$ = 8						; size = 4
?Release@CChartAddInBase135914@@MAGKXZ PROC		; CChartAddInBase135914::Release, COMDAT

; 33   : 	_IWRAPPER_IUNKNOWN_INTERFACE()

  00000	55		 push	 ebp
  00001	8b ec		 mov	 ebp, esp
  00003	5d		 pop	 ebp
  00004	e9 00 00 00 00	 jmp	 ?Release@CIWUnknown@@MAGKXZ ; CIWUnknown::Release
?Release@CChartAddInBase135914@@MAGKXZ ENDP		; CChartAddInBase135914::Release
_TEXT	ENDS
; Function compile flags: /Ogtp
; File D:\git\src\IBK\IBK_DRFN\ProjSrc\SrcChartEx\ChartAddIn\ChartEnvSetupDlgAddIn\Include_Addin_135914\I135914\_ChartAddInBase.h
;	COMDAT ?AddRef@CChartAddInBase135914@@MAGKXZ
_TEXT	SEGMENT
_this$ = 8						; size = 4
?AddRef@CChartAddInBase135914@@MAGKXZ PROC		; CChartAddInBase135914::AddRef, COMDAT

; 33   : 	_IWRAPPER_IUNKNOWN_INTERFACE()

  00000	55		 push	 ebp
  00001	8b ec		 mov	 ebp, esp
  00003	5d		 pop	 ebp
  00004	e9 00 00 00 00	 jmp	 ?AddRef@CIWUnknown@@MAGKXZ ; CIWUnknown::AddRef
?AddRef@CChartAddInBase135914@@MAGKXZ ENDP		; CChartAddInBase135914::AddRef
_TEXT	ENDS
; Function compile flags: /Ogtp
; File D:\git\src\IBK\IBK_DRFN\ProjSrc\SrcChartEx\ChartAddIn\ChartEnvSetupDlgAddIn\Include_Addin_135914\I135914\_ChartAddInBase.cpp
;	COMDAT ??1CChartAddInBase135914@@MAE@XZ
_TEXT	SEGMENT
__$EHRec$ = -12						; size = 12
??1CChartAddInBase135914@@MAE@XZ PROC			; CChartAddInBase135914::~CChartAddInBase135914, COMDAT
; _this$ = ecx

; 65   : {

  00000	55		 push	 ebp
  00001	8b ec		 mov	 ebp, esp
  00003	6a ff		 push	 -1
  00005	68 00 00 00 00	 push	 __ehhandler$??1CChartAddInBase135914@@MAE@XZ
  0000a	64 a1 00 00 00
	00		 mov	 eax, DWORD PTR fs:0
  00010	50		 push	 eax
  00011	56		 push	 esi
  00012	a1 00 00 00 00	 mov	 eax, DWORD PTR ___security_cookie
  00017	33 c5		 xor	 eax, ebp
  00019	50		 push	 eax
  0001a	8d 45 f4	 lea	 eax, DWORD PTR __$EHRec$[ebp]
  0001d	64 a3 00 00 00
	00		 mov	 DWORD PTR fs:0, eax
  00023	8b f1		 mov	 esi, ecx

; 66   : 	// (2004.10.08, 배승원) Chart OCX Interface를 관리하여, 이후 타 Object도 조회할 수 있도록 한다.
; 67   : 	if( m_pIChartOCX) m_pIChartOCX->Release();

  00025	8b 4e 0c	 mov	 ecx, DWORD PTR [esi+12]
  00028	c7 06 00 00 00
	00		 mov	 DWORD PTR [esi], OFFSET ??_7CChartAddInBase135914@@6BCIWUnknown@@@
  0002e	c7 46 08 00 00
	00 00		 mov	 DWORD PTR [esi+8], OFFSET ??_7CChartAddInBase135914@@6BIChartAddIn135914@@@
  00035	85 c9		 test	 ecx, ecx
  00037	74 06		 je	 SHORT $LN2@CChartAddI
  00039	8b 01		 mov	 eax, DWORD PTR [ecx]
  0003b	51		 push	 ecx
  0003c	ff 50 08	 call	 DWORD PTR [eax+8]
$LN2@CChartAddI:

; 68   : 
; 69   : 	// (2004.10.11, 배승원) OCX로부터 주요 Manager의 Interface를 구하여 관리한다.
; 70   : 	if( m_pIDefaultPacketManager)

  0003f	8b 4e 18	 mov	 ecx, DWORD PTR [esi+24]
  00042	85 c9		 test	 ecx, ecx
  00044	74 0d		 je	 SHORT $LN3@CChartAddI

; 71   : 	{
; 72   : 		m_pIDefaultPacketManager->Release();

  00046	8b 01		 mov	 eax, DWORD PTR [ecx]
  00048	51		 push	 ecx
  00049	ff 50 08	 call	 DWORD PTR [eax+8]

; 73   : 		m_pIDefaultPacketManager = NULL;

  0004c	c7 46 18 00 00
	00 00		 mov	 DWORD PTR [esi+24], 0
$LN3@CChartAddI:

; 74   : 	}
; 75   : 	if( m_pIChartManager)

  00053	8b 4e 1c	 mov	 ecx, DWORD PTR [esi+28]
  00056	85 c9		 test	 ecx, ecx
  00058	74 0d		 je	 SHORT $LN4@CChartAddI

; 76   : 	{
; 77   : 		m_pIChartManager->Release();

  0005a	8b 01		 mov	 eax, DWORD PTR [ecx]
  0005c	51		 push	 ecx
  0005d	ff 50 08	 call	 DWORD PTR [eax+8]

; 78   : 		m_pIChartManager = NULL;

  00060	c7 46 1c 00 00
	00 00		 mov	 DWORD PTR [esi+28], 0
$LN4@CChartAddI:

; 79   : 	}
; 80   : 	if( m_pIGraphInfoManager)

  00067	8b 4e 20	 mov	 ecx, DWORD PTR [esi+32]
  0006a	85 c9		 test	 ecx, ecx
  0006c	74 0d		 je	 SHORT $LN5@CChartAddI

; 81   : 	{
; 82   : 		m_pIGraphInfoManager->Release();

  0006e	8b 01		 mov	 eax, DWORD PTR [ecx]
  00070	51		 push	 ecx
  00071	ff 50 08	 call	 DWORD PTR [eax+8]

; 83   : 		m_pIGraphInfoManager = NULL;

  00074	c7 46 20 00 00
	00 00		 mov	 DWORD PTR [esi+32], 0
$LN5@CChartAddI:

; 84   : 	}
; 85   : 	if( m_pIAddInToolMgr)

  0007b	8b 4e 24	 mov	 ecx, DWORD PTR [esi+36]
  0007e	85 c9		 test	 ecx, ecx
  00080	74 0d		 je	 SHORT $LN6@CChartAddI

; 86   : 	{
; 87   : 		m_pIAddInToolMgr->Release();

  00082	8b 01		 mov	 eax, DWORD PTR [ecx]
  00084	51		 push	 ecx
  00085	ff 50 08	 call	 DWORD PTR [eax+8]

; 88   : 		m_pIAddInToolMgr = NULL;

  00088	c7 46 24 00 00
	00 00		 mov	 DWORD PTR [esi+36], 0
$LN6@CChartAddI:

; 89   : 	}
; 90   : 	if( m_pIPacketListManager)

  0008f	8b 4e 28	 mov	 ecx, DWORD PTR [esi+40]
  00092	85 c9		 test	 ecx, ecx
  00094	74 0d		 je	 SHORT $LN7@CChartAddI

; 91   : 	{
; 92   : 		m_pIPacketListManager->Release();

  00096	8b 01		 mov	 eax, DWORD PTR [ecx]
  00098	51		 push	 ecx
  00099	ff 50 08	 call	 DWORD PTR [eax+8]

; 93   : 		m_pIPacketListManager = NULL;

  0009c	c7 46 28 00 00
	00 00		 mov	 DWORD PTR [esi+40], 0
$LN7@CChartAddI:

; 94   : 	}
; 95   : }

  000a3	8b ce		 mov	 ecx, esi
  000a5	c7 46 08 00 00
	00 00		 mov	 DWORD PTR [esi+8], OFFSET ??_7IChartAddIn135914@@6B@
  000ac	e8 00 00 00 00	 call	 ??1CIWUnknown@@MAE@XZ	; CIWUnknown::~CIWUnknown
  000b1	8b 4d f4	 mov	 ecx, DWORD PTR __$EHRec$[ebp]
  000b4	64 89 0d 00 00
	00 00		 mov	 DWORD PTR fs:0, ecx
  000bb	59		 pop	 ecx
  000bc	5e		 pop	 esi
  000bd	8b e5		 mov	 esp, ebp
  000bf	5d		 pop	 ebp
  000c0	c3		 ret	 0
  000c1	cc		 int	 3
  000c2	cc		 int	 3
  000c3	cc		 int	 3
  000c4	cc		 int	 3
  000c5	cc		 int	 3
_TEXT	ENDS
;	COMDAT text$x
text$x	SEGMENT
__ehhandler$??1CChartAddInBase135914@@MAE@XZ:
  00000	90		 npad	 1
  00001	90		 npad	 1
  00002	8b 54 24 08	 mov	 edx, DWORD PTR [esp+8]
  00006	8d 42 0c	 lea	 eax, DWORD PTR [edx+12]
  00009	8b 4a f8	 mov	 ecx, DWORD PTR [edx-8]
  0000c	33 c8		 xor	 ecx, eax
  0000e	e8 00 00 00 00	 call	 @__security_check_cookie@4
  00013	b8 00 00 00 00	 mov	 eax, OFFSET __ehfuncinfo$??1CChartAddInBase135914@@MAE@XZ
  00018	e9 00 00 00 00	 jmp	 ___CxxFrameHandler3
text$x	ENDS
??1CChartAddInBase135914@@MAE@XZ ENDP			; CChartAddInBase135914::~CChartAddInBase135914
; Function compile flags: /Ogtp
; File D:\git\src\IBK\IBK_DRFN\ProjSrc\SrcChartEx\ChartAddIn\ChartEnvSetupDlgAddIn\Include_Addin_135914\I135914\_ChartAddInBase.cpp
;	COMDAT ??0CChartAddInBase135914@@IAE@PAUIChartOCX135914@@PAUIAddInDllBase@@@Z
_TEXT	SEGMENT
__ctlState$ = -24					; size = 8
_this$ = -16						; size = 4
__$EHRec$ = -12						; size = 12
_p_pIChartOCX$ = 8					; size = 4
_p_pIAddInDllBase$ = 12					; size = 4
??0CChartAddInBase135914@@IAE@PAUIChartOCX135914@@PAUIAddInDllBase@@@Z PROC ; CChartAddInBase135914::CChartAddInBase135914, COMDAT
; _this$ = ecx

; 27   : {

  00000	55		 push	 ebp
  00001	8b ec		 mov	 ebp, esp
  00003	6a ff		 push	 -1
  00005	68 00 00 00 00	 push	 __ehhandler$??0CChartAddInBase135914@@IAE@PAUIChartOCX135914@@PAUIAddInDllBase@@@Z
  0000a	64 a1 00 00 00
	00		 mov	 eax, DWORD PTR fs:0
  00010	50		 push	 eax
  00011	83 ec 0c	 sub	 esp, 12			; 0000000cH
  00014	56		 push	 esi
  00015	a1 00 00 00 00	 mov	 eax, DWORD PTR ___security_cookie
  0001a	33 c5		 xor	 eax, ebp
  0001c	50		 push	 eax
  0001d	8d 45 f4	 lea	 eax, DWORD PTR __$EHRec$[ebp]
  00020	64 a3 00 00 00
	00		 mov	 DWORD PTR fs:0, eax
  00026	8b f1		 mov	 esi, ecx
  00028	89 75 f0	 mov	 DWORD PTR _this$[ebp], esi
  0002b	e8 00 00 00 00	 call	 ??0CIWUnknown@@QAE@XZ	; CIWUnknown::CIWUnknown
  00030	c7 45 fc 00 00
	00 00		 mov	 DWORD PTR __$EHRec$[ebp+8], 0
  00037	c7 46 08 00 00
	00 00		 mov	 DWORD PTR [esi+8], OFFSET ??_7IChartAddIn135914@@6B@
  0003e	c6 45 fc 01	 mov	 BYTE PTR __$EHRec$[ebp+8], 1
  00042	c7 06 00 00 00
	00		 mov	 DWORD PTR [esi], OFFSET ??_7CChartAddInBase135914@@6BCIWUnknown@@@
  00048	c7 46 08 00 00
	00 00		 mov	 DWORD PTR [esi+8], OFFSET ??_7CChartAddInBase135914@@6BIChartAddIn135914@@@

; 28   : 	// (2006/2/10 - Seung-Won, Bae) Manage State for CWnd::FromHandle()
; 29   : 	AFX_MANAGE_STATE( AfxGetStaticModuleState());

  0004f	e8 00 00 00 00	 call	 ?AfxGetStaticModuleState@@YGPAVAFX_MODULE_STATE@@XZ ; AfxGetStaticModuleState
  00054	50		 push	 eax
  00055	8d 4d e8	 lea	 ecx, DWORD PTR __ctlState$[ebp]
  00058	e8 00 00 00 00	 call	 ??0AFX_MAINTAIN_STATE2@@QAE@PAVAFX_MODULE_STATE@@@Z ; AFX_MAINTAIN_STATE2::AFX_MAINTAIN_STATE2

; 30   : 
; 31   : 	// (2006/2/12 - Seung-Won, Bae) Manage Over Exclusive Flag for Registering AddIn Event Map
; 32   : 	m_bOverExclusive = FALSE;
; 33   : 
; 34   : 	// (2004.10.15, 배승원) OCX Interface가 NULL인 경우를 대비하여, Member에 미리 NULL 초기화를 처리한다.
; 35   : 	m_pIDefaultPacketManager	= NULL;
; 36   : 	m_pIChartManager			= NULL;
; 37   : 	m_pIGraphInfoManager		= NULL;
; 38   : 	m_pChartCWnd				= NULL;
; 39   : 	m_pIAddInToolMgr			= NULL;
; 40   : 	m_pIPacketListManager		= NULL;
; 41   : 	// (2006/1/17 - Seung-Won, Bae) Manage IAddInDll for AddIn Tool Exclusive
; 42   : 	m_pIAddInDllBase		= p_pIAddInDllBase;
; 43   : 
; 44   : 	// (2004.10.08, 배승원) Chart OCX Interface를 관리하여, 이후 타 Object도 조회할 수 있도록 한다.
; 45   : 	m_pIChartOCX = p_pIChartOCX;

  0005d	8b 4d 08	 mov	 ecx, DWORD PTR _p_pIChartOCX$[ebp]
  00060	8b 45 0c	 mov	 eax, DWORD PTR _p_pIAddInDllBase$[ebp]
  00063	c6 45 fc 02	 mov	 BYTE PTR __$EHRec$[ebp+8], 2
  00067	c7 46 2c 00 00
	00 00		 mov	 DWORD PTR [esi+44], 0
  0006e	c7 46 18 00 00
	00 00		 mov	 DWORD PTR [esi+24], 0
  00075	c7 46 1c 00 00
	00 00		 mov	 DWORD PTR [esi+28], 0
  0007c	c7 46 20 00 00
	00 00		 mov	 DWORD PTR [esi+32], 0
  00083	c7 46 10 00 00
	00 00		 mov	 DWORD PTR [esi+16], 0
  0008a	c7 46 24 00 00
	00 00		 mov	 DWORD PTR [esi+36], 0
  00091	c7 46 28 00 00
	00 00		 mov	 DWORD PTR [esi+40], 0
  00098	89 46 14	 mov	 DWORD PTR [esi+20], eax
  0009b	89 4e 0c	 mov	 DWORD PTR [esi+12], ecx

; 46   : 	if( !m_pIChartOCX)

  0009e	85 c9		 test	 ecx, ecx
  000a0	75 0e		 jne	 SHORT $LN2@CChartAddI

; 47   : 	{
; 48   : 		AfxMessageBox( "CChartAddInBase" _AIVERS " Null Wrapping Error!");

  000a2	51		 push	 ecx
  000a3	51		 push	 ecx
  000a4	68 00 00 00 00	 push	 OFFSET ??_C@_0CL@PLCCFHOH@CChartAddInBase135914?5Null?5Wrap@
  000a9	e8 00 00 00 00	 call	 ?AfxMessageBox@@YGHPBDII@Z ; AfxMessageBox

; 49   : 		return;

  000ae	eb 4e		 jmp	 SHORT $LN1@CChartAddI
$LN2@CChartAddI:

; 50   : 	}
; 51   : 	m_pIChartOCX->AddRef();

  000b0	8b 01		 mov	 eax, DWORD PTR [ecx]
  000b2	51		 push	 ecx
  000b3	ff 50 04	 call	 DWORD PTR [eax+4]

; 52   : 
; 53   : 	// (2004.10.11, 배승원) OCX로부터 주요 Manager의 Interface를 구하여 관리한다.
; 54   : 	m_pIDefaultPacketManager	= m_pIChartOCX->GetIDefaultPacketManager();

  000b6	8b 4e 0c	 mov	 ecx, DWORD PTR [esi+12]
  000b9	8b 01		 mov	 eax, DWORD PTR [ecx]
  000bb	ff 50 1c	 call	 DWORD PTR [eax+28]

; 55   : 	m_pIChartManager			= m_pIChartOCX->GetIChartManager();

  000be	8b 4e 0c	 mov	 ecx, DWORD PTR [esi+12]
  000c1	89 46 18	 mov	 DWORD PTR [esi+24], eax
  000c4	8b 01		 mov	 eax, DWORD PTR [ecx]
  000c6	ff 50 18	 call	 DWORD PTR [eax+24]

; 56   : 	m_pIGraphInfoManager		= m_pIChartOCX->GetIGraphInfoManager();

  000c9	8b 4e 0c	 mov	 ecx, DWORD PTR [esi+12]
  000cc	89 46 1c	 mov	 DWORD PTR [esi+28], eax
  000cf	8b 01		 mov	 eax, DWORD PTR [ecx]
  000d1	ff 50 20	 call	 DWORD PTR [eax+32]

; 57   : 	m_pIAddInToolMgr			= m_pIChartOCX->GetIAddInToolMgr();

  000d4	8b 4e 0c	 mov	 ecx, DWORD PTR [esi+12]
  000d7	89 46 20	 mov	 DWORD PTR [esi+32], eax
  000da	8b 01		 mov	 eax, DWORD PTR [ecx]
  000dc	ff 50 24	 call	 DWORD PTR [eax+36]

; 58   : 	m_pIPacketListManager		= m_pIChartOCX->GetIPacketListManager();

  000df	8b 4e 0c	 mov	 ecx, DWORD PTR [esi+12]
  000e2	89 46 24	 mov	 DWORD PTR [esi+36], eax
  000e5	8b 01		 mov	 eax, DWORD PTR [ecx]
  000e7	ff 50 28	 call	 DWORD PTR [eax+40]

; 59   : 
; 60   : 	// (2004.10.25, 배승원) Chart OCX Control Window Pointer를 관리하여 Windows Interface를 이용할 수 있도록 한다.
; 61   : 	m_pChartCWnd = CWnd::FromHandle( m_pIChartOCX->GetOcxHwnd());

  000ea	8b 4e 0c	 mov	 ecx, DWORD PTR [esi+12]
  000ed	89 46 28	 mov	 DWORD PTR [esi+40], eax
  000f0	8b 01		 mov	 eax, DWORD PTR [ecx]
  000f2	ff 50 40	 call	 DWORD PTR [eax+64]
  000f5	50		 push	 eax
  000f6	e8 00 00 00 00	 call	 ?FromHandle@CWnd@@SGPAV1@PAUHWND__@@@Z ; CWnd::FromHandle
  000fb	89 46 10	 mov	 DWORD PTR [esi+16], eax
$LN1@CChartAddI:

; 62   : }

  000fe	8d 4d e8	 lea	 ecx, DWORD PTR __ctlState$[ebp]
  00101	e8 00 00 00 00	 call	 ??1AFX_MAINTAIN_STATE2@@QAE@XZ ; AFX_MAINTAIN_STATE2::~AFX_MAINTAIN_STATE2
  00106	8b c6		 mov	 eax, esi
  00108	8b 4d f4	 mov	 ecx, DWORD PTR __$EHRec$[ebp]
  0010b	64 89 0d 00 00
	00 00		 mov	 DWORD PTR fs:0, ecx
  00112	59		 pop	 ecx
  00113	5e		 pop	 esi
  00114	8b e5		 mov	 esp, ebp
  00116	5d		 pop	 ebp
  00117	c2 08 00	 ret	 8
_TEXT	ENDS
;	COMDAT text$x
text$x	SEGMENT
__unwindfunclet$??0CChartAddInBase135914@@IAE@PAUIChartOCX135914@@PAUIAddInDllBase@@@Z$0:
  00000	8b 4d f0	 mov	 ecx, DWORD PTR _this$[ebp]
  00003	e9 00 00 00 00	 jmp	 ??1CIWUnknown@@MAE@XZ	; CIWUnknown::~CIWUnknown
__unwindfunclet$??0CChartAddInBase135914@@IAE@PAUIChartOCX135914@@PAUIAddInDllBase@@@Z$1:
  00008	8b 4d f0	 mov	 ecx, DWORD PTR _this$[ebp]
  0000b	83 c1 08	 add	 ecx, 8
  0000e	e9 00 00 00 00	 jmp	 ??1IChartAddIn135914@@MAE@XZ ; IChartAddIn135914::~IChartAddIn135914
__unwindfunclet$??0CChartAddInBase135914@@IAE@PAUIChartOCX135914@@PAUIAddInDllBase@@@Z$2:
  00013	8d 4d e8	 lea	 ecx, DWORD PTR __ctlState$[ebp]
  00016	e9 00 00 00 00	 jmp	 ??1AFX_MAINTAIN_STATE2@@QAE@XZ ; AFX_MAINTAIN_STATE2::~AFX_MAINTAIN_STATE2
  0001b	cc		 int	 3
  0001c	cc		 int	 3
  0001d	cc		 int	 3
  0001e	cc		 int	 3
  0001f	cc		 int	 3
__ehhandler$??0CChartAddInBase135914@@IAE@PAUIChartOCX135914@@PAUIAddInDllBase@@@Z:
  00020	90		 npad	 1
  00021	90		 npad	 1
  00022	8b 54 24 08	 mov	 edx, DWORD PTR [esp+8]
  00026	8d 42 0c	 lea	 eax, DWORD PTR [edx+12]
  00029	8b 4a ec	 mov	 ecx, DWORD PTR [edx-20]
  0002c	33 c8		 xor	 ecx, eax
  0002e	e8 00 00 00 00	 call	 @__security_check_cookie@4
  00033	b8 00 00 00 00	 mov	 eax, OFFSET __ehfuncinfo$??0CChartAddInBase135914@@IAE@PAUIChartOCX135914@@PAUIAddInDllBase@@@Z
  00038	e9 00 00 00 00	 jmp	 ___CxxFrameHandler3
text$x	ENDS
??0CChartAddInBase135914@@IAE@PAUIChartOCX135914@@PAUIAddInDllBase@@@Z ENDP ; CChartAddInBase135914::CChartAddInBase135914
; Function compile flags: /Ogtp
;	COMDAT ??_GIChartAddIn135914@@MAEPAXI@Z
_TEXT	SEGMENT
___flags$ = 8						; size = 4
??_GIChartAddIn135914@@MAEPAXI@Z PROC			; IChartAddIn135914::`scalar deleting destructor', COMDAT
; _this$ = ecx
  00000	55		 push	 ebp
  00001	8b ec		 mov	 ebp, esp
  00003	f6 45 08 01	 test	 BYTE PTR ___flags$[ebp], 1
  00007	56		 push	 esi
  00008	8b f1		 mov	 esi, ecx
  0000a	c7 06 00 00 00
	00		 mov	 DWORD PTR [esi], OFFSET ??_7IChartAddIn135914@@6B@
  00010	74 0b		 je	 SHORT $LN4@scalar
  00012	6a 04		 push	 4
  00014	56		 push	 esi
  00015	e8 00 00 00 00	 call	 ??3@YAXPAXI@Z		; operator delete
  0001a	83 c4 08	 add	 esp, 8
$LN4@scalar:
  0001d	8b c6		 mov	 eax, esi
  0001f	5e		 pop	 esi
  00020	5d		 pop	 ebp
  00021	c2 04 00	 ret	 4
??_GIChartAddIn135914@@MAEPAXI@Z ENDP			; IChartAddIn135914::`scalar deleting destructor'
_TEXT	ENDS
; Function compile flags: /Ogtp
; File D:\git\src\IBK\IBK_DRFN\ProjSrc\SrcChartEx\ChartAddIn\ChartEnvSetupDlgAddIn\Include_Addin_135914\I135914\_IChartAddIn.h
;	COMDAT ??1IChartAddIn135914@@MAE@XZ
_TEXT	SEGMENT
??1IChartAddIn135914@@MAE@XZ PROC			; IChartAddIn135914::~IChartAddIn135914, COMDAT
; _this$ = ecx

; 21   : 	virtual ~IChartAddIn()	{}

  00000	c7 01 00 00 00
	00		 mov	 DWORD PTR [ecx], OFFSET ??_7IChartAddIn135914@@6B@
  00006	c3		 ret	 0
??1IChartAddIn135914@@MAE@XZ ENDP			; IChartAddIn135914::~IChartAddIn135914
_TEXT	ENDS
; Function compile flags: /Ogtp
; File D:\git\src\IBK\IBK_DRFN\ProjSrc\SrcChartEx\ChartAddIn\ChartEnvSetupDlgAddIn\Include_Addin_135914\_IWUnknown.h
;	COMDAT ?PreDestruct@CIWUnknown@@MAEXXZ
_TEXT	SEGMENT
?PreDestruct@CIWUnknown@@MAEXXZ PROC			; CIWUnknown::PreDestruct, COMDAT
; _this$ = ecx

; 48   : 	virtual void	PreDestruct( void)		{}

  00000	c2 00 00	 ret	 0
?PreDestruct@CIWUnknown@@MAEXXZ ENDP			; CIWUnknown::PreDestruct
_TEXT	ENDS
; Function compile flags: /Ogtp
; File D:\git\src\IBK\IBK_DRFN\ProjSrc\SrcChartEx\ChartAddIn\ChartEnvSetupDlgAddIn\Include_Addin_135914\_IWUnknown.h
;	COMDAT ?PreDestructX@CIWUnknown@@MAEXXZ
_TEXT	SEGMENT
?PreDestructX@CIWUnknown@@MAEXXZ PROC			; CIWUnknown::PreDestructX, COMDAT
; _this$ = ecx

; 47   : 	virtual void	PreDestructX( void)		{}

  00000	c2 00 00	 ret	 0
?PreDestructX@CIWUnknown@@MAEXXZ ENDP			; CIWUnknown::PreDestructX
_TEXT	ENDS
; Function compile flags: /Ogtp
; File D:\git\src\IBK\IBK_DRFN\ProjSrc\SrcChartEx\ChartAddIn\ChartEnvSetupDlgAddIn\Include_Addin_135914\_IWUnknown.h
;	COMDAT ?PostConstruct@CIWUnknown@@MAEXXZ
_TEXT	SEGMENT
?PostConstruct@CIWUnknown@@MAEXXZ PROC			; CIWUnknown::PostConstruct, COMDAT
; _this$ = ecx

; 46   : 	virtual void	PostConstruct( void)	{}

  00000	c2 00 00	 ret	 0
?PostConstruct@CIWUnknown@@MAEXXZ ENDP			; CIWUnknown::PostConstruct
_TEXT	ENDS
; Function compile flags: /Ogtp
; File C:\Program Files (x86)\Microsoft Visual Studio\2019\Community\VC\Tools\MSVC\14.29.30133\atlmfc\include\afx.inl
;	COMDAT ?_AfxInitManaged@@YAHXZ
_TEXT	SEGMENT
?_AfxInitManaged@@YAHXZ PROC				; _AfxInitManaged, COMDAT

; 87   : 	return 0;

  00000	33 c0		 xor	 eax, eax

; 88   : }

  00002	c3		 ret	 0
?_AfxInitManaged@@YAHXZ ENDP				; _AfxInitManaged
_TEXT	ENDS
; Function compile flags: /Ogtp
; File C:\Program Files (x86)\Microsoft Visual Studio\2019\Community\VC\Tools\MSVC\14.29.30133\atlmfc\include\afx.inl
;	COMDAT ?Dump@CObject@@UBEXAAVCDumpContext@@@Z
_TEXT	SEGMENT
___formal$ = 8						; size = 4
?Dump@CObject@@UBEXAAVCDumpContext@@@Z PROC		; CObject::Dump, COMDAT
; _this$ = ecx

; 122  : 	{ /* no dumping in release builds */ }

  00000	c2 04 00	 ret	 4
?Dump@CObject@@UBEXAAVCDumpContext@@@Z ENDP		; CObject::Dump
_TEXT	ENDS
; Function compile flags: /Ogtp
; File C:\Program Files (x86)\Microsoft Visual Studio\2019\Community\VC\Tools\MSVC\14.29.30133\atlmfc\include\afx.inl
;	COMDAT ?AssertValid@CObject@@UBEXXZ
_TEXT	SEGMENT
?AssertValid@CObject@@UBEXXZ PROC			; CObject::AssertValid, COMDAT
; _this$ = ecx

; 120  : 	{ /* no asserts in release builds */ }

  00000	c2 00 00	 ret	 0
?AssertValid@CObject@@UBEXXZ ENDP			; CObject::AssertValid
_TEXT	ENDS
; Function compile flags: /Ogtp
; File C:\Program Files (x86)\Microsoft Visual Studio\2019\Community\VC\Tools\MSVC\14.29.30133\atlmfc\include\afx.inl
;	COMDAT ?Serialize@CObject@@UAEXAAVCArchive@@@Z
_TEXT	SEGMENT
___formal$ = 8						; size = 4
?Serialize@CObject@@UAEXAAVCArchive@@@Z PROC		; CObject::Serialize, COMDAT
; _this$ = ecx

; 106  : 	{ /* CObject does not serialize anything by default */ }

  00000	c2 04 00	 ret	 4
?Serialize@CObject@@UAEXAAVCArchive@@@Z ENDP		; CObject::Serialize
_TEXT	ENDS
; Function compile flags: /Ogtp
; File D:\git\src\IBK\IBK_DRFN\ProjSrc\SrcChartEx\ChartAddIn\ChartEnvSetupDlgAddIn\Include_Addin_135914\I135914\_ChartAddInBase.cpp
;	COMDAT ?__empty_global_delete@@YAXPAXI@Z
_TEXT	SEGMENT
___formal$ = 8						; size = 4
___formal$ = 12						; size = 4
?__empty_global_delete@@YAXPAXI@Z PROC			; __empty_global_delete, COMDAT

  00000	c2 00 00	 ret	 0
?__empty_global_delete@@YAXPAXI@Z ENDP			; __empty_global_delete
_TEXT	ENDS
; Function compile flags: /Ogtp
; File D:\git\src\IBK\IBK_DRFN\ProjSrc\SrcChartEx\ChartAddIn\ChartEnvSetupDlgAddIn\Include_Addin_135914\I135914\_ChartAddInBase.cpp
;	COMDAT ?__empty_global_delete@@YAXPAX@Z
_TEXT	SEGMENT
___formal$ = 8						; size = 4
?__empty_global_delete@@YAXPAX@Z PROC			; __empty_global_delete, COMDAT

  00000	c2 00 00	 ret	 0
?__empty_global_delete@@YAXPAX@Z ENDP			; __empty_global_delete
_TEXT	ENDS
END
