; Listing generated by Microsoft (R) Optimizing Compiler Version 19.29.30145.0 

	TITLE	D:\git\src\IBK\IBK_DRFN\#DRfn-CS\_Obj\ChartEnvSetupDlgAddIn\BaseDialogContainer.obj
	.686P
	.XMM
	include listing.inc
	.model	flat

INCLUDELIB MSVCRT
INCLUDELIB OLDNAMES

PUBLIC	??_C@_01GBGANLPD@0@				; `string'
PUBLIC	??_C@_01HIHLOKLC@1@				; `string'
PUBLIC	??_C@_01FDFGLJHB@2@				; `string'
PUBLIC	??_C@_01EKENIIDA@3@				; `string'
PUBLIC	??_C@_01FAMBOPH@4@				; `string'
PUBLIC	??_C@_01BMBHCPLG@5@				; `string'
PUBLIC	??_C@_01DHDKHMHF@6@				; `string'
PUBLIC	??_C@_01COCBENDE@7@				; `string'
PUBLIC	??_C@_01KJLJFBPL@8@				; `string'
PUBLIC	??_C@_01LAKCGALK@9@				; `string'
PUBLIC	??_C@_02PKFBJPLJ@10@				; `string'
PUBLIC	??_C@_02ODEKKOPI@11@				; `string'
PUBLIC	??_C@_02MIGHPNDL@12@				; `string'
PUBLIC	??_C@_02NBHMMMHK@13@				; `string'
PUBLIC	??_C@_02JODNFKLN@14@				; `string'
PUBLIC	??_C@_02IHCGGLPM@15@				; `string'
PUBLIC	??_C@_02KMALDIDP@16@				; `string'
PUBLIC	??_C@_02LFBAAJHO@17@				; `string'
PUBLIC	??_C@_02DCIIBFLB@18@				; `string'
PUBLIC	??_C@_02CLJDCEPA@19@				; `string'
PUBLIC	??_C@_02PIBHCBOA@20@				; `string'
PUBLIC	??_C@_02OBAMBAKB@21@				; `string'
PUBLIC	??_C@_02MKCBEDGC@22@				; `string'
PUBLIC	??_C@_02NDDKHCCD@23@				; `string'
PUBLIC	??_C@_02JMHLOEOE@24@				; `string'
;	COMDAT ??_C@_02JMHLOEOE@24@
CONST	SEGMENT
??_C@_02JMHLOEOE@24@ DB '24', 00H			; `string'
CONST	ENDS
;	COMDAT ??_C@_02NDDKHCCD@23@
CONST	SEGMENT
??_C@_02NDDKHCCD@23@ DB '23', 00H			; `string'
CONST	ENDS
;	COMDAT ??_C@_02MKCBEDGC@22@
CONST	SEGMENT
??_C@_02MKCBEDGC@22@ DB '22', 00H			; `string'
CONST	ENDS
;	COMDAT ??_C@_02OBAMBAKB@21@
CONST	SEGMENT
??_C@_02OBAMBAKB@21@ DB '21', 00H			; `string'
CONST	ENDS
;	COMDAT ??_C@_02PIBHCBOA@20@
CONST	SEGMENT
??_C@_02PIBHCBOA@20@ DB '20', 00H			; `string'
CONST	ENDS
;	COMDAT ??_C@_02CLJDCEPA@19@
CONST	SEGMENT
??_C@_02CLJDCEPA@19@ DB '19', 00H			; `string'
CONST	ENDS
;	COMDAT ??_C@_02DCIIBFLB@18@
CONST	SEGMENT
??_C@_02DCIIBFLB@18@ DB '18', 00H			; `string'
CONST	ENDS
;	COMDAT ??_C@_02LFBAAJHO@17@
CONST	SEGMENT
??_C@_02LFBAAJHO@17@ DB '17', 00H			; `string'
CONST	ENDS
;	COMDAT ??_C@_02KMALDIDP@16@
CONST	SEGMENT
??_C@_02KMALDIDP@16@ DB '16', 00H			; `string'
CONST	ENDS
;	COMDAT ??_C@_02IHCGGLPM@15@
CONST	SEGMENT
??_C@_02IHCGGLPM@15@ DB '15', 00H			; `string'
CONST	ENDS
;	COMDAT ??_C@_02JODNFKLN@14@
CONST	SEGMENT
??_C@_02JODNFKLN@14@ DB '14', 00H			; `string'
CONST	ENDS
;	COMDAT ??_C@_02NBHMMMHK@13@
CONST	SEGMENT
??_C@_02NBHMMMHK@13@ DB '13', 00H			; `string'
CONST	ENDS
;	COMDAT ??_C@_02MIGHPNDL@12@
CONST	SEGMENT
??_C@_02MIGHPNDL@12@ DB '12', 00H			; `string'
CONST	ENDS
;	COMDAT ??_C@_02ODEKKOPI@11@
CONST	SEGMENT
??_C@_02ODEKKOPI@11@ DB '11', 00H			; `string'
CONST	ENDS
;	COMDAT ??_C@_02PKFBJPLJ@10@
CONST	SEGMENT
??_C@_02PKFBJPLJ@10@ DB '10', 00H			; `string'
CONST	ENDS
;	COMDAT ??_C@_01LAKCGALK@9@
CONST	SEGMENT
??_C@_01LAKCGALK@9@ DB '9', 00H				; `string'
CONST	ENDS
;	COMDAT ??_C@_01KJLJFBPL@8@
CONST	SEGMENT
??_C@_01KJLJFBPL@8@ DB '8', 00H				; `string'
CONST	ENDS
;	COMDAT ??_C@_01COCBENDE@7@
CONST	SEGMENT
??_C@_01COCBENDE@7@ DB '7', 00H				; `string'
CONST	ENDS
;	COMDAT ??_C@_01DHDKHMHF@6@
CONST	SEGMENT
??_C@_01DHDKHMHF@6@ DB '6', 00H				; `string'
CONST	ENDS
;	COMDAT ??_C@_01BMBHCPLG@5@
CONST	SEGMENT
??_C@_01BMBHCPLG@5@ DB '5', 00H				; `string'
CONST	ENDS
;	COMDAT ??_C@_01FAMBOPH@4@
CONST	SEGMENT
??_C@_01FAMBOPH@4@ DB '4', 00H				; `string'
CONST	ENDS
;	COMDAT ??_C@_01EKENIIDA@3@
CONST	SEGMENT
??_C@_01EKENIIDA@3@ DB '3', 00H				; `string'
CONST	ENDS
;	COMDAT ??_C@_01FDFGLJHB@2@
CONST	SEGMENT
??_C@_01FDFGLJHB@2@ DB '2', 00H				; `string'
CONST	ENDS
;	COMDAT ??_C@_01HIHLOKLC@1@
CONST	SEGMENT
??_C@_01HIHLOKLC@1@ DB '1', 00H				; `string'
CONST	ENDS
;	COMDAT ??_C@_01GBGANLPD@0@
CONST	SEGMENT
??_C@_01GBGANLPD@0@ DB '0', 00H				; `string'
CONST	ENDS
PUBLIC	?__empty_global_delete@@YAXPAX@Z		; __empty_global_delete
PUBLIC	?__empty_global_delete@@YAXPAXI@Z		; __empty_global_delete
PUBLIC	?AssertValid@CObject@@UBEXXZ			; CObject::AssertValid
PUBLIC	?Dump@CObject@@UBEXAAVCDumpContext@@@Z		; CObject::Dump
PUBLIC	??0CBaseDialogContainer@@QAE@XZ			; CBaseDialogContainer::CBaseDialogContainer
PUBLIC	??1CBaseDialogContainer@@UAE@XZ			; CBaseDialogContainer::~CBaseDialogContainer
PUBLIC	?AddBaseDialog@CBaseDialogContainer@@QAEXPBDPAVCBaseDialog@@@Z ; CBaseDialogContainer::AddBaseDialog
PUBLIC	?GetStartPosition@CBaseDialogContainer@@QBEPAU__POSITION@@XZ ; CBaseDialogContainer::GetStartPosition
PUBLIC	?GetBaseDialog@CBaseDialogContainer@@QAEPAVCBaseDialog@@PBD@Z ; CBaseDialogContainer::GetBaseDialog
PUBLIC	?GetNextAssoc@CBaseDialogContainer@@QAEPAVCBaseDialog@@AAPAU__POSITION@@@Z ; CBaseDialogContainer::GetNextAssoc
PUBLIC	?RemoveAll@CBaseDialogContainer@@QAEXXZ		; CBaseDialogContainer::RemoveAll
PUBLIC	??_G?$CTypedPtrMap@VCMapStringToOb@@V?$CStringT@DV?$StrTraitMFC_DLL@DV?$ChTraitsCRT@D@ATL@@@@@ATL@@PAVCBaseDialog@@@@UAEPAXI@Z ; CTypedPtrMap<CMapStringToOb,ATL::CStringT<char,StrTraitMFC_DLL<char,ATL::ChTraitsCRT<char> > >,CBaseDialog *>::`scalar deleting destructor'
PUBLIC	??_GCBaseDialogContainer@@UAEPAXI@Z		; CBaseDialogContainer::`scalar deleting destructor'
PUBLIC	??_C@_00CNPNBAHC@@				; `string'
PUBLIC	??_R0?AVCObject@@@8				; CObject `RTTI Type Descriptor'
PUBLIC	??_R3CObject@@8					; CObject::`RTTI Class Hierarchy Descriptor'
PUBLIC	??_R2CObject@@8					; CObject::`RTTI Base Class Array'
PUBLIC	??_R1A@?0A@EA@CObject@@8			; CObject::`RTTI Base Class Descriptor at (0,-1,0,64)'
PUBLIC	??_7?$CTypedPtrMap@VCMapStringToOb@@V?$CStringT@DV?$StrTraitMFC_DLL@DV?$ChTraitsCRT@D@ATL@@@@@ATL@@PAVCBaseDialog@@@@6B@ ; CTypedPtrMap<CMapStringToOb,ATL::CStringT<char,StrTraitMFC_DLL<char,ATL::ChTraitsCRT<char> > >,CBaseDialog *>::`vftable'
PUBLIC	??_7CBaseDialogContainer@@6B@			; CBaseDialogContainer::`vftable'
PUBLIC	??_R4CBaseDialogContainer@@6B@			; CBaseDialogContainer::`RTTI Complete Object Locator'
PUBLIC	??_R0?AVCBaseDialogContainer@@@8		; CBaseDialogContainer `RTTI Type Descriptor'
PUBLIC	??_R3CBaseDialogContainer@@8			; CBaseDialogContainer::`RTTI Class Hierarchy Descriptor'
PUBLIC	??_R2CBaseDialogContainer@@8			; CBaseDialogContainer::`RTTI Base Class Array'
PUBLIC	??_R1A@?0A@EA@CBaseDialogContainer@@8		; CBaseDialogContainer::`RTTI Base Class Descriptor at (0,-1,0,64)'
PUBLIC	??_R4?$CTypedPtrMap@VCMapStringToOb@@V?$CStringT@DV?$StrTraitMFC_DLL@DV?$ChTraitsCRT@D@ATL@@@@@ATL@@PAVCBaseDialog@@@@6B@ ; CTypedPtrMap<CMapStringToOb,ATL::CStringT<char,StrTraitMFC_DLL<char,ATL::ChTraitsCRT<char> > >,CBaseDialog *>::`RTTI Complete Object Locator'
PUBLIC	??_R0?AV?$CTypedPtrMap@VCMapStringToOb@@V?$CStringT@DV?$StrTraitMFC_DLL@DV?$ChTraitsCRT@D@ATL@@@@@ATL@@PAVCBaseDialog@@@@@8 ; CTypedPtrMap<CMapStringToOb,ATL::CStringT<char,StrTraitMFC_DLL<char,ATL::ChTraitsCRT<char> > >,CBaseDialog *> `RTTI Type Descriptor'
PUBLIC	??_R3?$CTypedPtrMap@VCMapStringToOb@@V?$CStringT@DV?$StrTraitMFC_DLL@DV?$ChTraitsCRT@D@ATL@@@@@ATL@@PAVCBaseDialog@@@@8 ; CTypedPtrMap<CMapStringToOb,ATL::CStringT<char,StrTraitMFC_DLL<char,ATL::ChTraitsCRT<char> > >,CBaseDialog *>::`RTTI Class Hierarchy Descriptor'
PUBLIC	??_R2?$CTypedPtrMap@VCMapStringToOb@@V?$CStringT@DV?$StrTraitMFC_DLL@DV?$ChTraitsCRT@D@ATL@@@@@ATL@@PAVCBaseDialog@@@@8 ; CTypedPtrMap<CMapStringToOb,ATL::CStringT<char,StrTraitMFC_DLL<char,ATL::ChTraitsCRT<char> > >,CBaseDialog *>::`RTTI Base Class Array'
PUBLIC	??_R1A@?0A@EA@?$CTypedPtrMap@VCMapStringToOb@@V?$CStringT@DV?$StrTraitMFC_DLL@DV?$ChTraitsCRT@D@ATL@@@@@ATL@@PAVCBaseDialog@@@@8 ; CTypedPtrMap<CMapStringToOb,ATL::CStringT<char,StrTraitMFC_DLL<char,ATL::ChTraitsCRT<char> > >,CBaseDialog *>::`RTTI Base Class Descriptor at (0,-1,0,64)'
PUBLIC	??_R1A@?0A@EA@CMapStringToOb@@8			; CMapStringToOb::`RTTI Base Class Descriptor at (0,-1,0,64)'
PUBLIC	??_R0?AVCMapStringToOb@@@8			; CMapStringToOb `RTTI Type Descriptor'
PUBLIC	??_R3CMapStringToOb@@8				; CMapStringToOb::`RTTI Class Hierarchy Descriptor'
PUBLIC	??_R2CMapStringToOb@@8				; CMapStringToOb::`RTTI Base Class Array'
EXTRN	??3@YAXPAX@Z:PROC				; operator delete
EXTRN	??3@YAXPAXI@Z:PROC				; operator delete
EXTRN	?__global_delete@@YAXPAXI@Z:PROC		; __global_delete
EXTRN	___std_terminate:PROC
EXTRN	__imp_??0?$CStringT@DV?$StrTraitMFC_DLL@DV?$ChTraitsCRT@D@ATL@@@@@ATL@@QAE@XZ:PROC
EXTRN	__imp_??0?$CStringT@DV?$StrTraitMFC_DLL@DV?$ChTraitsCRT@D@ATL@@@@@ATL@@QAE@PBD@Z:PROC
EXTRN	__imp_??1?$CStringT@DV?$StrTraitMFC_DLL@DV?$ChTraitsCRT@D@ATL@@@@@ATL@@QAE@XZ:PROC
EXTRN	?GetRuntimeClass@CMapStringToOb@@UBEPAUCRuntimeClass@@XZ:PROC ; CMapStringToOb::GetRuntimeClass
EXTRN	??0CMapStringToOb@@QAE@H@Z:PROC			; CMapStringToOb::CMapStringToOb
EXTRN	?Lookup@CMapStringToOb@@QBEHPBDAAPAVCObject@@@Z:PROC ; CMapStringToOb::Lookup
EXTRN	??ACMapStringToOb@@QAEAAPAVCObject@@PBD@Z:PROC	; CMapStringToOb::operator[]
EXTRN	?RemoveAll@CMapStringToOb@@QAEXXZ:PROC		; CMapStringToOb::RemoveAll
EXTRN	?GetNextAssoc@CMapStringToOb@@QBEXAAPAU__POSITION@@AAV?$CStringT@DV?$StrTraitMFC_DLL@DV?$ChTraitsCRT@D@ATL@@@@@ATL@@AAPAVCObject@@@Z:PROC ; CMapStringToOb::GetNextAssoc
EXTRN	??1CMapStringToOb@@UAE@XZ:PROC			; CMapStringToOb::~CMapStringToOb
EXTRN	?Serialize@CMapStringToOb@@UAEXAAVCArchive@@@Z:PROC ; CMapStringToOb::Serialize
EXTRN	??_E?$CTypedPtrMap@VCMapStringToOb@@V?$CStringT@DV?$StrTraitMFC_DLL@DV?$ChTraitsCRT@D@ATL@@@@@ATL@@PAVCBaseDialog@@@@UAEPAXI@Z:PROC ; CTypedPtrMap<CMapStringToOb,ATL::CStringT<char,StrTraitMFC_DLL<char,ATL::ChTraitsCRT<char> > >,CBaseDialog *>::`vector deleting destructor'
EXTRN	??_ECBaseDialogContainer@@UAEPAXI@Z:PROC	; CBaseDialogContainer::`vector deleting destructor'
EXTRN	@__security_check_cookie@4:PROC
EXTRN	___CxxFrameHandler3:PROC
EXTRN	??_7type_info@@6B@:QWORD			; type_info::`vftable'
EXTRN	___security_cookie:DWORD
;	COMDAT ??_R2CMapStringToOb@@8
rdata$r	SEGMENT
??_R2CMapStringToOb@@8 DD FLAT:??_R1A@?0A@EA@CMapStringToOb@@8 ; CMapStringToOb::`RTTI Base Class Array'
	DD	FLAT:??_R1A@?0A@EA@CObject@@8
rdata$r	ENDS
;	COMDAT ??_R3CMapStringToOb@@8
rdata$r	SEGMENT
??_R3CMapStringToOb@@8 DD 00H				; CMapStringToOb::`RTTI Class Hierarchy Descriptor'
	DD	00H
	DD	02H
	DD	FLAT:??_R2CMapStringToOb@@8
rdata$r	ENDS
;	COMDAT ??_R0?AVCMapStringToOb@@@8
data$rs	SEGMENT
??_R0?AVCMapStringToOb@@@8 DD FLAT:??_7type_info@@6B@	; CMapStringToOb `RTTI Type Descriptor'
	DD	00H
	DB	'.?AVCMapStringToOb@@', 00H
data$rs	ENDS
;	COMDAT ??_R1A@?0A@EA@CMapStringToOb@@8
rdata$r	SEGMENT
??_R1A@?0A@EA@CMapStringToOb@@8 DD FLAT:??_R0?AVCMapStringToOb@@@8 ; CMapStringToOb::`RTTI Base Class Descriptor at (0,-1,0,64)'
	DD	01H
	DD	00H
	DD	0ffffffffH
	DD	00H
	DD	040H
	DD	FLAT:??_R3CMapStringToOb@@8
rdata$r	ENDS
;	COMDAT ??_R1A@?0A@EA@?$CTypedPtrMap@VCMapStringToOb@@V?$CStringT@DV?$StrTraitMFC_DLL@DV?$ChTraitsCRT@D@ATL@@@@@ATL@@PAVCBaseDialog@@@@8
rdata$r	SEGMENT
??_R1A@?0A@EA@?$CTypedPtrMap@VCMapStringToOb@@V?$CStringT@DV?$StrTraitMFC_DLL@DV?$ChTraitsCRT@D@ATL@@@@@ATL@@PAVCBaseDialog@@@@8 DD FLAT:??_R0?AV?$CTypedPtrMap@VCMapStringToOb@@V?$CStringT@DV?$StrTraitMFC_DLL@DV?$ChTraitsCRT@D@ATL@@@@@ATL@@PAVCBaseDialog@@@@@8 ; CTypedPtrMap<CMapStringToOb,ATL::CStringT<char,StrTraitMFC_DLL<char,ATL::ChTraitsCRT<char> > >,CBaseDialog *>::`RTTI Base Class Descriptor at (0,-1,0,64)'
	DD	02H
	DD	00H
	DD	0ffffffffH
	DD	00H
	DD	040H
	DD	FLAT:??_R3?$CTypedPtrMap@VCMapStringToOb@@V?$CStringT@DV?$StrTraitMFC_DLL@DV?$ChTraitsCRT@D@ATL@@@@@ATL@@PAVCBaseDialog@@@@8
rdata$r	ENDS
;	COMDAT ??_R2?$CTypedPtrMap@VCMapStringToOb@@V?$CStringT@DV?$StrTraitMFC_DLL@DV?$ChTraitsCRT@D@ATL@@@@@ATL@@PAVCBaseDialog@@@@8
rdata$r	SEGMENT
??_R2?$CTypedPtrMap@VCMapStringToOb@@V?$CStringT@DV?$StrTraitMFC_DLL@DV?$ChTraitsCRT@D@ATL@@@@@ATL@@PAVCBaseDialog@@@@8 DD FLAT:??_R1A@?0A@EA@?$CTypedPtrMap@VCMapStringToOb@@V?$CStringT@DV?$StrTraitMFC_DLL@DV?$ChTraitsCRT@D@ATL@@@@@ATL@@PAVCBaseDialog@@@@8 ; CTypedPtrMap<CMapStringToOb,ATL::CStringT<char,StrTraitMFC_DLL<char,ATL::ChTraitsCRT<char> > >,CBaseDialog *>::`RTTI Base Class Array'
	DD	FLAT:??_R1A@?0A@EA@CMapStringToOb@@8
	DD	FLAT:??_R1A@?0A@EA@CObject@@8
rdata$r	ENDS
;	COMDAT ??_R3?$CTypedPtrMap@VCMapStringToOb@@V?$CStringT@DV?$StrTraitMFC_DLL@DV?$ChTraitsCRT@D@ATL@@@@@ATL@@PAVCBaseDialog@@@@8
rdata$r	SEGMENT
??_R3?$CTypedPtrMap@VCMapStringToOb@@V?$CStringT@DV?$StrTraitMFC_DLL@DV?$ChTraitsCRT@D@ATL@@@@@ATL@@PAVCBaseDialog@@@@8 DD 00H ; CTypedPtrMap<CMapStringToOb,ATL::CStringT<char,StrTraitMFC_DLL<char,ATL::ChTraitsCRT<char> > >,CBaseDialog *>::`RTTI Class Hierarchy Descriptor'
	DD	00H
	DD	03H
	DD	FLAT:??_R2?$CTypedPtrMap@VCMapStringToOb@@V?$CStringT@DV?$StrTraitMFC_DLL@DV?$ChTraitsCRT@D@ATL@@@@@ATL@@PAVCBaseDialog@@@@8
rdata$r	ENDS
;	COMDAT ??_R0?AV?$CTypedPtrMap@VCMapStringToOb@@V?$CStringT@DV?$StrTraitMFC_DLL@DV?$ChTraitsCRT@D@ATL@@@@@ATL@@PAVCBaseDialog@@@@@8
data$rs	SEGMENT
??_R0?AV?$CTypedPtrMap@VCMapStringToOb@@V?$CStringT@DV?$StrTraitMFC_DLL@DV?$ChTraitsCRT@D@ATL@@@@@ATL@@PAVCBaseDialog@@@@@8 DD FLAT:??_7type_info@@6B@ ; CTypedPtrMap<CMapStringToOb,ATL::CStringT<char,StrTraitMFC_DLL<char,ATL::ChTraitsCRT<char> > >,CBaseDialog *> `RTTI Type Descriptor'
	DD	00H
	DB	'.?AV?$CTypedPtrMap@VCMapStringToOb@@V?$CStringT@DV?$StrT'
	DB	'raitMFC_DLL@DV?$ChTraitsCRT@D@ATL@@@@@ATL@@PAVCBaseDialog@@@@'
	DB	00H
data$rs	ENDS
;	COMDAT ??_R4?$CTypedPtrMap@VCMapStringToOb@@V?$CStringT@DV?$StrTraitMFC_DLL@DV?$ChTraitsCRT@D@ATL@@@@@ATL@@PAVCBaseDialog@@@@6B@
rdata$r	SEGMENT
??_R4?$CTypedPtrMap@VCMapStringToOb@@V?$CStringT@DV?$StrTraitMFC_DLL@DV?$ChTraitsCRT@D@ATL@@@@@ATL@@PAVCBaseDialog@@@@6B@ DD 00H ; CTypedPtrMap<CMapStringToOb,ATL::CStringT<char,StrTraitMFC_DLL<char,ATL::ChTraitsCRT<char> > >,CBaseDialog *>::`RTTI Complete Object Locator'
	DD	00H
	DD	00H
	DD	FLAT:??_R0?AV?$CTypedPtrMap@VCMapStringToOb@@V?$CStringT@DV?$StrTraitMFC_DLL@DV?$ChTraitsCRT@D@ATL@@@@@ATL@@PAVCBaseDialog@@@@@8
	DD	FLAT:??_R3?$CTypedPtrMap@VCMapStringToOb@@V?$CStringT@DV?$StrTraitMFC_DLL@DV?$ChTraitsCRT@D@ATL@@@@@ATL@@PAVCBaseDialog@@@@8
rdata$r	ENDS
;	COMDAT ??_R1A@?0A@EA@CBaseDialogContainer@@8
rdata$r	SEGMENT
??_R1A@?0A@EA@CBaseDialogContainer@@8 DD FLAT:??_R0?AVCBaseDialogContainer@@@8 ; CBaseDialogContainer::`RTTI Base Class Descriptor at (0,-1,0,64)'
	DD	00H
	DD	00H
	DD	0ffffffffH
	DD	00H
	DD	040H
	DD	FLAT:??_R3CBaseDialogContainer@@8
rdata$r	ENDS
;	COMDAT ??_R2CBaseDialogContainer@@8
rdata$r	SEGMENT
??_R2CBaseDialogContainer@@8 DD FLAT:??_R1A@?0A@EA@CBaseDialogContainer@@8 ; CBaseDialogContainer::`RTTI Base Class Array'
rdata$r	ENDS
;	COMDAT ??_R3CBaseDialogContainer@@8
rdata$r	SEGMENT
??_R3CBaseDialogContainer@@8 DD 00H			; CBaseDialogContainer::`RTTI Class Hierarchy Descriptor'
	DD	00H
	DD	01H
	DD	FLAT:??_R2CBaseDialogContainer@@8
rdata$r	ENDS
;	COMDAT ??_R0?AVCBaseDialogContainer@@@8
data$rs	SEGMENT
??_R0?AVCBaseDialogContainer@@@8 DD FLAT:??_7type_info@@6B@ ; CBaseDialogContainer `RTTI Type Descriptor'
	DD	00H
	DB	'.?AVCBaseDialogContainer@@', 00H
data$rs	ENDS
;	COMDAT ??_R4CBaseDialogContainer@@6B@
rdata$r	SEGMENT
??_R4CBaseDialogContainer@@6B@ DD 00H			; CBaseDialogContainer::`RTTI Complete Object Locator'
	DD	00H
	DD	00H
	DD	FLAT:??_R0?AVCBaseDialogContainer@@@8
	DD	FLAT:??_R3CBaseDialogContainer@@8
rdata$r	ENDS
;	COMDAT ??_7CBaseDialogContainer@@6B@
CONST	SEGMENT
??_7CBaseDialogContainer@@6B@ DD FLAT:??_R4CBaseDialogContainer@@6B@ ; CBaseDialogContainer::`vftable'
	DD	FLAT:??_ECBaseDialogContainer@@UAEPAXI@Z
CONST	ENDS
;	COMDAT ??_7?$CTypedPtrMap@VCMapStringToOb@@V?$CStringT@DV?$StrTraitMFC_DLL@DV?$ChTraitsCRT@D@ATL@@@@@ATL@@PAVCBaseDialog@@@@6B@
CONST	SEGMENT
??_7?$CTypedPtrMap@VCMapStringToOb@@V?$CStringT@DV?$StrTraitMFC_DLL@DV?$ChTraitsCRT@D@ATL@@@@@ATL@@PAVCBaseDialog@@@@6B@ DD FLAT:??_R4?$CTypedPtrMap@VCMapStringToOb@@V?$CStringT@DV?$StrTraitMFC_DLL@DV?$ChTraitsCRT@D@ATL@@@@@ATL@@PAVCBaseDialog@@@@6B@ ; CTypedPtrMap<CMapStringToOb,ATL::CStringT<char,StrTraitMFC_DLL<char,ATL::ChTraitsCRT<char> > >,CBaseDialog *>::`vftable'
	DD	FLAT:?GetRuntimeClass@CMapStringToOb@@UBEPAUCRuntimeClass@@XZ
	DD	FLAT:??_E?$CTypedPtrMap@VCMapStringToOb@@V?$CStringT@DV?$StrTraitMFC_DLL@DV?$ChTraitsCRT@D@ATL@@@@@ATL@@PAVCBaseDialog@@@@UAEPAXI@Z
	DD	FLAT:?Serialize@CMapStringToOb@@UAEXAAVCArchive@@@Z
	DD	FLAT:?AssertValid@CObject@@UBEXXZ
	DD	FLAT:?Dump@CObject@@UBEXAAVCDumpContext@@@Z
CONST	ENDS
;	COMDAT ??_R1A@?0A@EA@CObject@@8
rdata$r	SEGMENT
??_R1A@?0A@EA@CObject@@8 DD FLAT:??_R0?AVCObject@@@8	; CObject::`RTTI Base Class Descriptor at (0,-1,0,64)'
	DD	00H
	DD	00H
	DD	0ffffffffH
	DD	00H
	DD	040H
	DD	FLAT:??_R3CObject@@8
rdata$r	ENDS
;	COMDAT ??_R2CObject@@8
rdata$r	SEGMENT
??_R2CObject@@8 DD FLAT:??_R1A@?0A@EA@CObject@@8	; CObject::`RTTI Base Class Array'
rdata$r	ENDS
;	COMDAT ??_R3CObject@@8
rdata$r	SEGMENT
??_R3CObject@@8 DD 00H					; CObject::`RTTI Class Hierarchy Descriptor'
	DD	00H
	DD	01H
	DD	FLAT:??_R2CObject@@8
rdata$r	ENDS
;	COMDAT ??_R0?AVCObject@@@8
data$rs	SEGMENT
??_R0?AVCObject@@@8 DD FLAT:??_7type_info@@6B@		; CObject `RTTI Type Descriptor'
	DD	00H
	DB	'.?AVCObject@@', 00H
data$rs	ENDS
;	COMDAT ??_C@_00CNPNBAHC@@
CONST	SEGMENT
??_C@_00CNPNBAHC@@ DB 00H				; `string'
CONST	ENDS
;	COMDAT xdata$x
xdata$x	SEGMENT
__unwindtable$??_GCBaseDialogContainer@@UAEPAXI@Z DD 0ffffffffH
	DD	FLAT:___std_terminate
__ehfuncinfo$??_GCBaseDialogContainer@@UAEPAXI@Z DD 019930522H
	DD	01H
	DD	FLAT:__unwindtable$??_GCBaseDialogContainer@@UAEPAXI@Z
	DD	2 DUP(00H)
	DD	2 DUP(00H)
	DD	00H
	DD	05H
xdata$x	ENDS
;	COMDAT xdata$x
xdata$x	SEGMENT
__unwindtable$?SetAt@?$CTypedPtrMap@VCMapStringToOb@@V?$CStringT@DV?$StrTraitMFC_DLL@DV?$ChTraitsCRT@D@ATL@@@@@ATL@@PAVCBaseDialog@@@@QAEXV?$CStringT@DV?$StrTraitMFC_DLL@DV?$ChTraitsCRT@D@ATL@@@@@ATL@@PAVCBaseDialog@@@Z DD 0ffffffffH
	DD	FLAT:__unwindfunclet$?SetAt@?$CTypedPtrMap@VCMapStringToOb@@V?$CStringT@DV?$StrTraitMFC_DLL@DV?$ChTraitsCRT@D@ATL@@@@@ATL@@PAVCBaseDialog@@@@QAEXV?$CStringT@DV?$StrTraitMFC_DLL@DV?$ChTraitsCRT@D@ATL@@@@@ATL@@PAVCBaseDialog@@@Z$0
__ehfuncinfo$?SetAt@?$CTypedPtrMap@VCMapStringToOb@@V?$CStringT@DV?$StrTraitMFC_DLL@DV?$ChTraitsCRT@D@ATL@@@@@ATL@@PAVCBaseDialog@@@@QAEXV?$CStringT@DV?$StrTraitMFC_DLL@DV?$ChTraitsCRT@D@ATL@@@@@ATL@@PAVCBaseDialog@@@Z DD 019930522H
	DD	01H
	DD	FLAT:__unwindtable$?SetAt@?$CTypedPtrMap@VCMapStringToOb@@V?$CStringT@DV?$StrTraitMFC_DLL@DV?$ChTraitsCRT@D@ATL@@@@@ATL@@PAVCBaseDialog@@@@QAEXV?$CStringT@DV?$StrTraitMFC_DLL@DV?$ChTraitsCRT@D@ATL@@@@@ATL@@PAVCBaseDialog@@@Z
	DD	2 DUP(00H)
	DD	2 DUP(00H)
	DD	00H
	DD	01H
xdata$x	ENDS
;	COMDAT xdata$x
xdata$x	SEGMENT
__unwindtable$?RemoveAll@CBaseDialogContainer@@QAEXXZ DD 0ffffffffH
	DD	FLAT:__unwindfunclet$?RemoveAll@CBaseDialogContainer@@QAEXXZ$0
__ehfuncinfo$?RemoveAll@CBaseDialogContainer@@QAEXXZ DD 019930522H
	DD	01H
	DD	FLAT:__unwindtable$?RemoveAll@CBaseDialogContainer@@QAEXXZ
	DD	2 DUP(00H)
	DD	2 DUP(00H)
	DD	00H
	DD	01H
xdata$x	ENDS
;	COMDAT xdata$x
xdata$x	SEGMENT
__unwindtable$?GetNextAssoc@CBaseDialogContainer@@QAEPAVCBaseDialog@@AAPAU__POSITION@@@Z DD 0ffffffffH
	DD	FLAT:__unwindfunclet$?GetNextAssoc@CBaseDialogContainer@@QAEPAVCBaseDialog@@AAPAU__POSITION@@@Z$0
__ehfuncinfo$?GetNextAssoc@CBaseDialogContainer@@QAEPAVCBaseDialog@@AAPAU__POSITION@@@Z DD 019930522H
	DD	01H
	DD	FLAT:__unwindtable$?GetNextAssoc@CBaseDialogContainer@@QAEPAVCBaseDialog@@AAPAU__POSITION@@@Z
	DD	2 DUP(00H)
	DD	2 DUP(00H)
	DD	00H
	DD	01H
xdata$x	ENDS
;	COMDAT xdata$x
xdata$x	SEGMENT
__unwindtable$?AddBaseDialog@CBaseDialogContainer@@QAEXPBDPAVCBaseDialog@@@Z DD 0ffffffffH
	DD	FLAT:__unwindfunclet$?AddBaseDialog@CBaseDialogContainer@@QAEXPBDPAVCBaseDialog@@@Z$1
__ehfuncinfo$?AddBaseDialog@CBaseDialogContainer@@QAEXPBDPAVCBaseDialog@@@Z DD 019930522H
	DD	01H
	DD	FLAT:__unwindtable$?AddBaseDialog@CBaseDialogContainer@@QAEXPBDPAVCBaseDialog@@@Z
	DD	2 DUP(00H)
	DD	2 DUP(00H)
	DD	00H
	DD	01H
xdata$x	ENDS
;	COMDAT xdata$x
xdata$x	SEGMENT
__ehfuncinfo$??1CBaseDialogContainer@@UAE@XZ DD 019930522H
	DD	00H
	DD	00H
	DD	2 DUP(00H)
	DD	2 DUP(00H)
	DD	00H
	DD	05H
xdata$x	ENDS
; Function compile flags: /Ogtp
; File C:\Program Files (x86)\Microsoft Visual Studio\2019\Community\VC\Tools\MSVC\14.29.30133\atlmfc\include\afxcoll.inl
; File D:\git\src\IBK\IBK_DRFN\ProjSrc\SrcChartEx\ChartAddIn\ChartEnvSetupDlgAddIn\ChartEnvSetupDlgAddIn\BaseDialogContainer.cpp
; File C:\Program Files (x86)\Microsoft Visual Studio\2019\Community\VC\Tools\MSVC\14.29.30133\atlmfc\include\afxcoll.inl
; File D:\git\src\IBK\IBK_DRFN\ProjSrc\SrcChartEx\ChartAddIn\ChartEnvSetupDlgAddIn\ChartEnvSetupDlgAddIn\BaseDialogContainer.cpp
; File C:\Program Files (x86)\Microsoft Visual Studio\2019\Community\VC\Tools\MSVC\14.29.30133\atlmfc\include\afxtempl.h
; File D:\git\src\IBK\IBK_DRFN\ProjSrc\SrcChartEx\ChartAddIn\ChartEnvSetupDlgAddIn\ChartEnvSetupDlgAddIn\BaseDialogContainer.cpp
;	COMDAT ??_GCBaseDialogContainer@@UAEPAXI@Z
_TEXT	SEGMENT
_pos$2 = -24						; size = 4
_strIndicatorName$3 = -20				; size = 4
_pBaseDlg$4 = -16					; size = 4
__$EHRec$ = -12						; size = 12
___flags$ = 8						; size = 4
??_GCBaseDialogContainer@@UAEPAXI@Z PROC		; CBaseDialogContainer::`scalar deleting destructor', COMDAT
; _this$ = ecx
  00000	55		 push	 ebp
  00001	8b ec		 mov	 ebp, esp
  00003	6a ff		 push	 -1
  00005	68 00 00 00 00	 push	 __ehhandler$??_GCBaseDialogContainer@@UAEPAXI@Z
  0000a	64 a1 00 00 00
	00		 mov	 eax, DWORD PTR fs:0
  00010	50		 push	 eax
  00011	83 ec 0c	 sub	 esp, 12			; 0000000cH
  00014	56		 push	 esi
  00015	57		 push	 edi
  00016	a1 00 00 00 00	 mov	 eax, DWORD PTR ___security_cookie
  0001b	33 c5		 xor	 eax, ebp
  0001d	50		 push	 eax
  0001e	8d 45 f4	 lea	 eax, DWORD PTR __$EHRec$[ebp]
  00021	64 a3 00 00 00
	00		 mov	 DWORD PTR fs:0, eax
  00027	8b f1		 mov	 esi, ecx
; File C:\Program Files (x86)\Microsoft Visual Studio\2019\Community\VC\Tools\MSVC\14.29.30133\atlmfc\include\afxcoll.inl

; 645  : 	{ return (m_nCount == 0) ? NULL : BEFORE_START_POSITION; }

  00029	8b 56 10	 mov	 edx, DWORD PTR [esi+16]
  0002c	8b c2		 mov	 eax, edx
  0002e	f7 d8		 neg	 eax
; File D:\git\src\IBK\IBK_DRFN\ProjSrc\SrcChartEx\ChartAddIn\ChartEnvSetupDlgAddIn\ChartEnvSetupDlgAddIn\BaseDialogContainer.cpp

; 28   : {

  00030	c7 45 fc 00 00
	00 00		 mov	 DWORD PTR __$EHRec$[ebp+8], 0
  00037	c7 06 00 00 00
	00		 mov	 DWORD PTR [esi], OFFSET ??_7CBaseDialogContainer@@6B@
; File C:\Program Files (x86)\Microsoft Visual Studio\2019\Community\VC\Tools\MSVC\14.29.30133\atlmfc\include\afxcoll.inl

; 645  : 	{ return (m_nCount == 0) ? NULL : BEFORE_START_POSITION; }

  0003d	1b c0		 sbb	 eax, eax
; File D:\git\src\IBK\IBK_DRFN\ProjSrc\SrcChartEx\ChartAddIn\ChartEnvSetupDlgAddIn\ChartEnvSetupDlgAddIn\BaseDialogContainer.cpp

; 68   : 	POSITION pos = m_mapBaseDialog.GetStartPosition();

  0003f	89 45 e8	 mov	 DWORD PTR _pos$2[ebp], eax
  00042	85 d2		 test	 edx, edx

; 69   : 
; 70   : 	while( pos )

  00044	74 4b		 je	 SHORT $LN24@scalar
  00046	66 66 0f 1f 84
	00 00 00 00 00	 npad	 10
$LL8@scalar:

; 71   : 	{
; 72   : 		CBaseDialog * pBaseDlg = NULL;
; 73   : 		CString strIndicatorName;

  00050	8d 4d ec	 lea	 ecx, DWORD PTR _strIndicatorName$3[ebp]
  00053	c7 45 f0 00 00
	00 00		 mov	 DWORD PTR _pBaseDlg$4[ebp], 0
  0005a	ff 15 00 00 00
	00		 call	 DWORD PTR __imp_??0?$CStringT@DV?$StrTraitMFC_DLL@DV?$ChTraitsCRT@D@ATL@@@@@ATL@@QAE@XZ
; File C:\Program Files (x86)\Microsoft Visual Studio\2019\Community\VC\Tools\MSVC\14.29.30133\atlmfc\include\afxtempl.h

; 2068 : 		{ BASE_CLASS::GetNextAssoc(rPosition, (typename BASE_CLASS::BASE_KEY&)rKey,

  00060	8d 45 f0	 lea	 eax, DWORD PTR _pBaseDlg$4[ebp]
  00063	50		 push	 eax
  00064	8d 45 ec	 lea	 eax, DWORD PTR _strIndicatorName$3[ebp]
  00067	50		 push	 eax
  00068	8d 45 e8	 lea	 eax, DWORD PTR _pos$2[ebp]
  0006b	50		 push	 eax
  0006c	8d 4e 04	 lea	 ecx, DWORD PTR [esi+4]
  0006f	e8 00 00 00 00	 call	 ?GetNextAssoc@CMapStringToOb@@QBEXAAPAU__POSITION@@AAV?$CStringT@DV?$StrTraitMFC_DLL@DV?$ChTraitsCRT@D@ATL@@@@@ATL@@AAPAVCObject@@@Z ; CMapStringToOb::GetNextAssoc
; File D:\git\src\IBK\IBK_DRFN\ProjSrc\SrcChartEx\ChartAddIn\ChartEnvSetupDlgAddIn\ChartEnvSetupDlgAddIn\BaseDialogContainer.cpp

; 75   : 		if( pBaseDlg) delete pBaseDlg;

  00074	8b 4d f0	 mov	 ecx, DWORD PTR _pBaseDlg$4[ebp]
  00077	85 c9		 test	 ecx, ecx
  00079	74 07		 je	 SHORT $LN12@scalar
  0007b	8b 01		 mov	 eax, DWORD PTR [ecx]
  0007d	6a 01		 push	 1
  0007f	ff 50 04	 call	 DWORD PTR [eax+4]
$LN12@scalar:

; 76   : 	}

  00082	8d 4d ec	 lea	 ecx, DWORD PTR _strIndicatorName$3[ebp]
  00085	ff 15 00 00 00
	00		 call	 DWORD PTR __imp_??1?$CStringT@DV?$StrTraitMFC_DLL@DV?$ChTraitsCRT@D@ATL@@@@@ATL@@QAE@XZ
  0008b	83 7d e8 00	 cmp	 DWORD PTR _pos$2[ebp], 0
  0008f	75 bf		 jne	 SHORT $LL8@scalar
$LN24@scalar:

; 77   : 
; 78   : 	m_mapBaseDialog.RemoveAll();

  00091	8d 4e 04	 lea	 ecx, DWORD PTR [esi+4]
  00094	e8 00 00 00 00	 call	 ?RemoveAll@CMapStringToOb@@QAEXXZ ; CMapStringToOb::RemoveAll
  00099	8d 4e 04	 lea	 ecx, DWORD PTR [esi+4]
  0009c	e8 00 00 00 00	 call	 ??1CMapStringToOb@@UAE@XZ ; CMapStringToOb::~CMapStringToOb
  000a1	f6 45 08 01	 test	 BYTE PTR ___flags$[ebp], 1
  000a5	74 0b		 je	 SHORT $LN26@scalar
  000a7	6a 20		 push	 32			; 00000020H
  000a9	56		 push	 esi
  000aa	e8 00 00 00 00	 call	 ??3@YAXPAXI@Z		; operator delete
  000af	83 c4 08	 add	 esp, 8
$LN26@scalar:
  000b2	8b c6		 mov	 eax, esi
  000b4	8b 4d f4	 mov	 ecx, DWORD PTR __$EHRec$[ebp]
  000b7	64 89 0d 00 00
	00 00		 mov	 DWORD PTR fs:0, ecx
  000be	59		 pop	 ecx
  000bf	5f		 pop	 edi
  000c0	5e		 pop	 esi
  000c1	8b e5		 mov	 esp, ebp
  000c3	5d		 pop	 ebp
  000c4	c2 04 00	 ret	 4
  000c7	cc		 int	 3
  000c8	cc		 int	 3
  000c9	cc		 int	 3
  000ca	cc		 int	 3
  000cb	cc		 int	 3
_TEXT	ENDS
;	COMDAT text$x
text$x	SEGMENT
__ehhandler$??_GCBaseDialogContainer@@UAEPAXI@Z:
  00000	90		 npad	 1
  00001	90		 npad	 1
  00002	8b 54 24 08	 mov	 edx, DWORD PTR [esp+8]
  00006	8d 42 0c	 lea	 eax, DWORD PTR [edx+12]
  00009	8b 4a e8	 mov	 ecx, DWORD PTR [edx-24]
  0000c	33 c8		 xor	 ecx, eax
  0000e	e8 00 00 00 00	 call	 @__security_check_cookie@4
  00013	b8 00 00 00 00	 mov	 eax, OFFSET __ehfuncinfo$??_GCBaseDialogContainer@@UAEPAXI@Z
  00018	e9 00 00 00 00	 jmp	 ___CxxFrameHandler3
text$x	ENDS
??_GCBaseDialogContainer@@UAEPAXI@Z ENDP		; CBaseDialogContainer::`scalar deleting destructor'
; Function compile flags: /Ogtp
; File C:\Program Files (x86)\Microsoft Visual Studio\2019\Community\VC\Tools\MSVC\14.29.30133\atlmfc\include\afx.inl
;	COMDAT ??_G?$CTypedPtrMap@VCMapStringToOb@@V?$CStringT@DV?$StrTraitMFC_DLL@DV?$ChTraitsCRT@D@ATL@@@@@ATL@@PAVCBaseDialog@@@@UAEPAXI@Z
_TEXT	SEGMENT
___flags$ = 8						; size = 4
??_G?$CTypedPtrMap@VCMapStringToOb@@V?$CStringT@DV?$StrTraitMFC_DLL@DV?$ChTraitsCRT@D@ATL@@@@@ATL@@PAVCBaseDialog@@@@UAEPAXI@Z PROC ; CTypedPtrMap<CMapStringToOb,ATL::CStringT<char,StrTraitMFC_DLL<char,ATL::ChTraitsCRT<char> > >,CBaseDialog *>::`scalar deleting destructor', COMDAT
; _this$ = ecx
  00000	55		 push	 ebp
  00001	8b ec		 mov	 ebp, esp
  00003	56		 push	 esi
  00004	8b f1		 mov	 esi, ecx
  00006	e8 00 00 00 00	 call	 ??1CMapStringToOb@@UAE@XZ ; CMapStringToOb::~CMapStringToOb
  0000b	8b 45 08	 mov	 eax, DWORD PTR ___flags$[ebp]
  0000e	a8 01		 test	 al, 1
  00010	74 1f		 je	 SHORT $LN12@scalar
  00012	a8 04		 test	 al, 4
  00014	75 10		 jne	 SHORT $LN3@scalar

; 112  : 	{ ::operator delete(p); }

  00016	56		 push	 esi
  00017	e8 00 00 00 00	 call	 ??3@YAXPAX@Z		; operator delete
  0001c	83 c4 04	 add	 esp, 4
  0001f	8b c6		 mov	 eax, esi
  00021	5e		 pop	 esi
  00022	5d		 pop	 ebp
  00023	c2 04 00	 ret	 4
$LN3@scalar:
  00026	6a 1c		 push	 28			; 0000001cH
  00028	56		 push	 esi
  00029	e8 00 00 00 00	 call	 ?__global_delete@@YAXPAXI@Z ; __global_delete
  0002e	83 c4 08	 add	 esp, 8
$LN12@scalar:
  00031	8b c6		 mov	 eax, esi
  00033	5e		 pop	 esi
  00034	5d		 pop	 ebp
  00035	c2 04 00	 ret	 4
??_G?$CTypedPtrMap@VCMapStringToOb@@V?$CStringT@DV?$StrTraitMFC_DLL@DV?$ChTraitsCRT@D@ATL@@@@@ATL@@PAVCBaseDialog@@@@UAEPAXI@Z ENDP ; CTypedPtrMap<CMapStringToOb,ATL::CStringT<char,StrTraitMFC_DLL<char,ATL::ChTraitsCRT<char> > >,CBaseDialog *>::`scalar deleting destructor'
_TEXT	ENDS
; Function compile flags: /Ogtp
; File D:\git\src\IBK\IBK_DRFN\ProjSrc\SrcChartEx\ChartAddIn\ChartEnvSetupDlgAddIn\ChartEnvSetupDlgAddIn\BaseDialogContainer.cpp
; File C:\Program Files (x86)\Microsoft Visual Studio\2019\Community\VC\Tools\MSVC\14.29.30133\atlmfc\include\afxcoll.inl
; File D:\git\src\IBK\IBK_DRFN\ProjSrc\SrcChartEx\ChartAddIn\ChartEnvSetupDlgAddIn\ChartEnvSetupDlgAddIn\BaseDialogContainer.cpp
; File C:\Program Files (x86)\Microsoft Visual Studio\2019\Community\VC\Tools\MSVC\14.29.30133\atlmfc\include\afxcoll.inl
; File D:\git\src\IBK\IBK_DRFN\ProjSrc\SrcChartEx\ChartAddIn\ChartEnvSetupDlgAddIn\ChartEnvSetupDlgAddIn\BaseDialogContainer.cpp
; File C:\Program Files (x86)\Microsoft Visual Studio\2019\Community\VC\Tools\MSVC\14.29.30133\atlmfc\include\afxtempl.h
; File D:\git\src\IBK\IBK_DRFN\ProjSrc\SrcChartEx\ChartAddIn\ChartEnvSetupDlgAddIn\ChartEnvSetupDlgAddIn\BaseDialogContainer.cpp
; File C:\Program Files (x86)\Microsoft Visual Studio\2019\Community\VC\Tools\MSVC\14.29.30133\atlmfc\include\afxtempl.h
; File D:\git\src\IBK\IBK_DRFN\ProjSrc\SrcChartEx\ChartAddIn\ChartEnvSetupDlgAddIn\ChartEnvSetupDlgAddIn\BaseDialogContainer.cpp
;	COMDAT ?RemoveAll@CBaseDialogContainer@@QAEXXZ
_TEXT	SEGMENT
_pos$ = -24						; size = 4
_strIndicatorName$2 = -20				; size = 4
_pBaseDlg$3 = -16					; size = 4
__$EHRec$ = -12						; size = 12
?RemoveAll@CBaseDialogContainer@@QAEXXZ PROC		; CBaseDialogContainer::RemoveAll, COMDAT
; _this$ = ecx

; 67   : {

  00000	55		 push	 ebp
  00001	8b ec		 mov	 ebp, esp
  00003	6a ff		 push	 -1
  00005	68 00 00 00 00	 push	 __ehhandler$?RemoveAll@CBaseDialogContainer@@QAEXXZ
  0000a	64 a1 00 00 00
	00		 mov	 eax, DWORD PTR fs:0
  00010	50		 push	 eax
  00011	83 ec 0c	 sub	 esp, 12			; 0000000cH
  00014	56		 push	 esi
  00015	a1 00 00 00 00	 mov	 eax, DWORD PTR ___security_cookie
  0001a	33 c5		 xor	 eax, ebp
  0001c	50		 push	 eax
  0001d	8d 45 f4	 lea	 eax, DWORD PTR __$EHRec$[ebp]
  00020	64 a3 00 00 00
	00		 mov	 DWORD PTR fs:0, eax
; File C:\Program Files (x86)\Microsoft Visual Studio\2019\Community\VC\Tools\MSVC\14.29.30133\atlmfc\include\afxcoll.inl

; 645  : 	{ return (m_nCount == 0) ? NULL : BEFORE_START_POSITION; }

  00026	8b 51 10	 mov	 edx, DWORD PTR [ecx+16]
; File D:\git\src\IBK\IBK_DRFN\ProjSrc\SrcChartEx\ChartAddIn\ChartEnvSetupDlgAddIn\ChartEnvSetupDlgAddIn\BaseDialogContainer.cpp

; 68   : 	POSITION pos = m_mapBaseDialog.GetStartPosition();

  00029	8d 71 04	 lea	 esi, DWORD PTR [ecx+4]
; File C:\Program Files (x86)\Microsoft Visual Studio\2019\Community\VC\Tools\MSVC\14.29.30133\atlmfc\include\afxcoll.inl

; 645  : 	{ return (m_nCount == 0) ? NULL : BEFORE_START_POSITION; }

  0002c	8b c2		 mov	 eax, edx
  0002e	f7 d8		 neg	 eax
  00030	1b c0		 sbb	 eax, eax
; File D:\git\src\IBK\IBK_DRFN\ProjSrc\SrcChartEx\ChartAddIn\ChartEnvSetupDlgAddIn\ChartEnvSetupDlgAddIn\BaseDialogContainer.cpp

; 68   : 	POSITION pos = m_mapBaseDialog.GetStartPosition();

  00032	89 45 e8	 mov	 DWORD PTR _pos$[ebp], eax
  00035	85 d2		 test	 edx, edx

; 69   : 
; 70   : 	while( pos )

  00037	74 55		 je	 SHORT $LN16@RemoveAll
  00039	0f 1f 80 00 00
	00 00		 npad	 7
$LL2@RemoveAll:

; 73   : 		CString strIndicatorName;

  00040	8d 4d ec	 lea	 ecx, DWORD PTR _strIndicatorName$2[ebp]
  00043	c7 45 f0 00 00
	00 00		 mov	 DWORD PTR _pBaseDlg$3[ebp], 0
  0004a	ff 15 00 00 00
	00		 call	 DWORD PTR __imp_??0?$CStringT@DV?$StrTraitMFC_DLL@DV?$ChTraitsCRT@D@ATL@@@@@ATL@@QAE@XZ
; File C:\Program Files (x86)\Microsoft Visual Studio\2019\Community\VC\Tools\MSVC\14.29.30133\atlmfc\include\afxtempl.h

; 2068 : 		{ BASE_CLASS::GetNextAssoc(rPosition, (typename BASE_CLASS::BASE_KEY&)rKey,

  00050	8d 45 f0	 lea	 eax, DWORD PTR _pBaseDlg$3[ebp]
; File D:\git\src\IBK\IBK_DRFN\ProjSrc\SrcChartEx\ChartAddIn\ChartEnvSetupDlgAddIn\ChartEnvSetupDlgAddIn\BaseDialogContainer.cpp

; 73   : 		CString strIndicatorName;

  00053	c7 45 fc 00 00
	00 00		 mov	 DWORD PTR __$EHRec$[ebp+8], 0
; File C:\Program Files (x86)\Microsoft Visual Studio\2019\Community\VC\Tools\MSVC\14.29.30133\atlmfc\include\afxtempl.h

; 2068 : 		{ BASE_CLASS::GetNextAssoc(rPosition, (typename BASE_CLASS::BASE_KEY&)rKey,

  0005a	50		 push	 eax
  0005b	8d 45 ec	 lea	 eax, DWORD PTR _strIndicatorName$2[ebp]
  0005e	8b ce		 mov	 ecx, esi
  00060	50		 push	 eax
  00061	8d 45 e8	 lea	 eax, DWORD PTR _pos$[ebp]
  00064	50		 push	 eax
  00065	e8 00 00 00 00	 call	 ?GetNextAssoc@CMapStringToOb@@QBEXAAPAU__POSITION@@AAV?$CStringT@DV?$StrTraitMFC_DLL@DV?$ChTraitsCRT@D@ATL@@@@@ATL@@AAPAVCObject@@@Z ; CMapStringToOb::GetNextAssoc
; File D:\git\src\IBK\IBK_DRFN\ProjSrc\SrcChartEx\ChartAddIn\ChartEnvSetupDlgAddIn\ChartEnvSetupDlgAddIn\BaseDialogContainer.cpp

; 75   : 		if( pBaseDlg) delete pBaseDlg;

  0006a	8b 4d f0	 mov	 ecx, DWORD PTR _pBaseDlg$3[ebp]
  0006d	85 c9		 test	 ecx, ecx
  0006f	74 07		 je	 SHORT $LN6@RemoveAll
  00071	8b 01		 mov	 eax, DWORD PTR [ecx]
  00073	6a 01		 push	 1
  00075	ff 50 04	 call	 DWORD PTR [eax+4]
$LN6@RemoveAll:

; 76   : 	}

  00078	8d 4d ec	 lea	 ecx, DWORD PTR _strIndicatorName$2[ebp]
  0007b	c7 45 fc ff ff
	ff ff		 mov	 DWORD PTR __$EHRec$[ebp+8], -1
  00082	ff 15 00 00 00
	00		 call	 DWORD PTR __imp_??1?$CStringT@DV?$StrTraitMFC_DLL@DV?$ChTraitsCRT@D@ATL@@@@@ATL@@QAE@XZ
  00088	83 7d e8 00	 cmp	 DWORD PTR _pos$[ebp], 0
  0008c	75 b2		 jne	 SHORT $LL2@RemoveAll
$LN16@RemoveAll:

; 77   : 
; 78   : 	m_mapBaseDialog.RemoveAll();

  0008e	8b ce		 mov	 ecx, esi
  00090	e8 00 00 00 00	 call	 ?RemoveAll@CMapStringToOb@@QAEXXZ ; CMapStringToOb::RemoveAll

; 79   : }

  00095	8b 4d f4	 mov	 ecx, DWORD PTR __$EHRec$[ebp]
  00098	64 89 0d 00 00
	00 00		 mov	 DWORD PTR fs:0, ecx
  0009f	59		 pop	 ecx
  000a0	5e		 pop	 esi
  000a1	8b e5		 mov	 esp, ebp
  000a3	5d		 pop	 ebp
  000a4	c3		 ret	 0
_TEXT	ENDS
;	COMDAT text$x
text$x	SEGMENT
__unwindfunclet$?RemoveAll@CBaseDialogContainer@@QAEXXZ$0:
  00000	8d 4d ec	 lea	 ecx, DWORD PTR _strIndicatorName$2[ebp]
  00003	ff 25 00 00 00
	00		 jmp	 DWORD PTR __imp_??1?$CStringT@DV?$StrTraitMFC_DLL@DV?$ChTraitsCRT@D@ATL@@@@@ATL@@QAE@XZ
  00009	cc		 int	 3
  0000a	cc		 int	 3
  0000b	cc		 int	 3
  0000c	cc		 int	 3
  0000d	cc		 int	 3
__ehhandler$?RemoveAll@CBaseDialogContainer@@QAEXXZ:
  0000e	90		 npad	 1
  0000f	90		 npad	 1
  00010	8b 54 24 08	 mov	 edx, DWORD PTR [esp+8]
  00014	8d 42 0c	 lea	 eax, DWORD PTR [edx+12]
  00017	8b 4a ec	 mov	 ecx, DWORD PTR [edx-20]
  0001a	33 c8		 xor	 ecx, eax
  0001c	e8 00 00 00 00	 call	 @__security_check_cookie@4
  00021	b8 00 00 00 00	 mov	 eax, OFFSET __ehfuncinfo$?RemoveAll@CBaseDialogContainer@@QAEXXZ
  00026	e9 00 00 00 00	 jmp	 ___CxxFrameHandler3
text$x	ENDS
?RemoveAll@CBaseDialogContainer@@QAEXXZ ENDP		; CBaseDialogContainer::RemoveAll
; Function compile flags: /Ogtp
; File D:\git\src\IBK\IBK_DRFN\ProjSrc\SrcChartEx\ChartAddIn\ChartEnvSetupDlgAddIn\ChartEnvSetupDlgAddIn\BaseDialogContainer.cpp
; File C:\Program Files (x86)\Microsoft Visual Studio\2019\Community\VC\Tools\MSVC\14.29.30133\atlmfc\include\afxtempl.h
; File D:\git\src\IBK\IBK_DRFN\ProjSrc\SrcChartEx\ChartAddIn\ChartEnvSetupDlgAddIn\ChartEnvSetupDlgAddIn\BaseDialogContainer.cpp
; File C:\Program Files (x86)\Microsoft Visual Studio\2019\Community\VC\Tools\MSVC\14.29.30133\atlmfc\include\afxtempl.h
; File D:\git\src\IBK\IBK_DRFN\ProjSrc\SrcChartEx\ChartAddIn\ChartEnvSetupDlgAddIn\ChartEnvSetupDlgAddIn\BaseDialogContainer.cpp
; File C:\Program Files (x86)\Microsoft Visual Studio\2019\Community\VC\Tools\MSVC\14.29.30133\atlmfc\include\afxtempl.h
; File D:\git\src\IBK\IBK_DRFN\ProjSrc\SrcChartEx\ChartAddIn\ChartEnvSetupDlgAddIn\ChartEnvSetupDlgAddIn\BaseDialogContainer.cpp
; File C:\Program Files (x86)\Microsoft Visual Studio\2019\Community\VC\Tools\MSVC\14.29.30133\atlmfc\include\afxtempl.h
; File D:\git\src\IBK\IBK_DRFN\ProjSrc\SrcChartEx\ChartAddIn\ChartEnvSetupDlgAddIn\ChartEnvSetupDlgAddIn\BaseDialogContainer.cpp
;	COMDAT ?GetNextAssoc@CBaseDialogContainer@@QAEPAVCBaseDialog@@AAPAU__POSITION@@@Z
_TEXT	SEGMENT
_strKey$ = -20						; size = 4
_pBaseDialog$ = -16					; size = 4
__$EHRec$ = -12						; size = 12
_pos$ = 8						; size = 4
?GetNextAssoc@CBaseDialogContainer@@QAEPAVCBaseDialog@@AAPAU__POSITION@@@Z PROC ; CBaseDialogContainer::GetNextAssoc, COMDAT
; _this$ = ecx

; 99   : {

  00000	55		 push	 ebp
  00001	8b ec		 mov	 ebp, esp
  00003	6a ff		 push	 -1
  00005	68 00 00 00 00	 push	 __ehhandler$?GetNextAssoc@CBaseDialogContainer@@QAEPAVCBaseDialog@@AAPAU__POSITION@@@Z
  0000a	64 a1 00 00 00
	00		 mov	 eax, DWORD PTR fs:0
  00010	50		 push	 eax
  00011	83 ec 08	 sub	 esp, 8
  00014	56		 push	 esi
  00015	a1 00 00 00 00	 mov	 eax, DWORD PTR ___security_cookie
  0001a	33 c5		 xor	 eax, ebp
  0001c	50		 push	 eax
  0001d	8d 45 f4	 lea	 eax, DWORD PTR __$EHRec$[ebp]
  00020	64 a3 00 00 00
	00		 mov	 DWORD PTR fs:0, eax
  00026	8b f1		 mov	 esi, ecx

; 100  : 	CString strKey = _T("");

  00028	68 00 00 00 00	 push	 OFFSET ??_C@_00CNPNBAHC@@
  0002d	8d 4d ec	 lea	 ecx, DWORD PTR _strKey$[ebp]
  00030	ff 15 00 00 00
	00		 call	 DWORD PTR __imp_??0?$CStringT@DV?$StrTraitMFC_DLL@DV?$ChTraitsCRT@D@ATL@@@@@ATL@@QAE@PBD@Z
; File C:\Program Files (x86)\Microsoft Visual Studio\2019\Community\VC\Tools\MSVC\14.29.30133\atlmfc\include\afxtempl.h

; 2068 : 		{ BASE_CLASS::GetNextAssoc(rPosition, (typename BASE_CLASS::BASE_KEY&)rKey,

  00036	8d 45 f0	 lea	 eax, DWORD PTR _pBaseDialog$[ebp]
; File D:\git\src\IBK\IBK_DRFN\ProjSrc\SrcChartEx\ChartAddIn\ChartEnvSetupDlgAddIn\ChartEnvSetupDlgAddIn\BaseDialogContainer.cpp

; 100  : 	CString strKey = _T("");

  00039	c7 45 fc 00 00
	00 00		 mov	 DWORD PTR __$EHRec$[ebp+8], 0
; File C:\Program Files (x86)\Microsoft Visual Studio\2019\Community\VC\Tools\MSVC\14.29.30133\atlmfc\include\afxtempl.h

; 2068 : 		{ BASE_CLASS::GetNextAssoc(rPosition, (typename BASE_CLASS::BASE_KEY&)rKey,

  00040	50		 push	 eax
  00041	8d 45 ec	 lea	 eax, DWORD PTR _strKey$[ebp]
; File D:\git\src\IBK\IBK_DRFN\ProjSrc\SrcChartEx\ChartAddIn\ChartEnvSetupDlgAddIn\ChartEnvSetupDlgAddIn\BaseDialogContainer.cpp

; 101  : 	CBaseDialog *pBaseDialog = NULL;

  00044	c7 45 f0 00 00
	00 00		 mov	 DWORD PTR _pBaseDialog$[ebp], 0
; File C:\Program Files (x86)\Microsoft Visual Studio\2019\Community\VC\Tools\MSVC\14.29.30133\atlmfc\include\afxtempl.h

; 2068 : 		{ BASE_CLASS::GetNextAssoc(rPosition, (typename BASE_CLASS::BASE_KEY&)rKey,

  0004b	50		 push	 eax
  0004c	ff 75 08	 push	 DWORD PTR _pos$[ebp]
; File D:\git\src\IBK\IBK_DRFN\ProjSrc\SrcChartEx\ChartAddIn\ChartEnvSetupDlgAddIn\ChartEnvSetupDlgAddIn\BaseDialogContainer.cpp

; 103  : 	m_mapBaseDialog.GetNextAssoc( pos, strKey, pBaseDialog);

  0004f	8d 4e 04	 lea	 ecx, DWORD PTR [esi+4]
; File C:\Program Files (x86)\Microsoft Visual Studio\2019\Community\VC\Tools\MSVC\14.29.30133\atlmfc\include\afxtempl.h

; 2068 : 		{ BASE_CLASS::GetNextAssoc(rPosition, (typename BASE_CLASS::BASE_KEY&)rKey,

  00052	e8 00 00 00 00	 call	 ?GetNextAssoc@CMapStringToOb@@QBEXAAPAU__POSITION@@AAV?$CStringT@DV?$StrTraitMFC_DLL@DV?$ChTraitsCRT@D@ATL@@@@@ATL@@AAPAVCObject@@@Z ; CMapStringToOb::GetNextAssoc
; File D:\git\src\IBK\IBK_DRFN\ProjSrc\SrcChartEx\ChartAddIn\ChartEnvSetupDlgAddIn\ChartEnvSetupDlgAddIn\BaseDialogContainer.cpp

; 105  : 	return pBaseDialog;

  00057	8b 75 f0	 mov	 esi, DWORD PTR _pBaseDialog$[ebp]
  0005a	8d 4d ec	 lea	 ecx, DWORD PTR _strKey$[ebp]
  0005d	ff 15 00 00 00
	00		 call	 DWORD PTR __imp_??1?$CStringT@DV?$StrTraitMFC_DLL@DV?$ChTraitsCRT@D@ATL@@@@@ATL@@QAE@XZ
  00063	8b c6		 mov	 eax, esi

; 106  : }

  00065	8b 4d f4	 mov	 ecx, DWORD PTR __$EHRec$[ebp]
  00068	64 89 0d 00 00
	00 00		 mov	 DWORD PTR fs:0, ecx
  0006f	59		 pop	 ecx
  00070	5e		 pop	 esi
  00071	8b e5		 mov	 esp, ebp
  00073	5d		 pop	 ebp
  00074	c2 04 00	 ret	 4
_TEXT	ENDS
;	COMDAT text$x
text$x	SEGMENT
__unwindfunclet$?GetNextAssoc@CBaseDialogContainer@@QAEPAVCBaseDialog@@AAPAU__POSITION@@@Z$0:
  00000	8d 4d ec	 lea	 ecx, DWORD PTR _strKey$[ebp]
  00003	ff 25 00 00 00
	00		 jmp	 DWORD PTR __imp_??1?$CStringT@DV?$StrTraitMFC_DLL@DV?$ChTraitsCRT@D@ATL@@@@@ATL@@QAE@XZ
  00009	cc		 int	 3
  0000a	cc		 int	 3
  0000b	cc		 int	 3
  0000c	cc		 int	 3
  0000d	cc		 int	 3
__ehhandler$?GetNextAssoc@CBaseDialogContainer@@QAEPAVCBaseDialog@@AAPAU__POSITION@@@Z:
  0000e	90		 npad	 1
  0000f	90		 npad	 1
  00010	8b 54 24 08	 mov	 edx, DWORD PTR [esp+8]
  00014	8d 42 0c	 lea	 eax, DWORD PTR [edx+12]
  00017	8b 4a f0	 mov	 ecx, DWORD PTR [edx-16]
  0001a	33 c8		 xor	 ecx, eax
  0001c	e8 00 00 00 00	 call	 @__security_check_cookie@4
  00021	b8 00 00 00 00	 mov	 eax, OFFSET __ehfuncinfo$?GetNextAssoc@CBaseDialogContainer@@QAEPAVCBaseDialog@@AAPAU__POSITION@@@Z
  00026	e9 00 00 00 00	 jmp	 ___CxxFrameHandler3
text$x	ENDS
?GetNextAssoc@CBaseDialogContainer@@QAEPAVCBaseDialog@@AAPAU__POSITION@@@Z ENDP ; CBaseDialogContainer::GetNextAssoc
; Function compile flags: /Ogtp
; File D:\git\src\IBK\IBK_DRFN\ProjSrc\SrcChartEx\ChartAddIn\ChartEnvSetupDlgAddIn\ChartEnvSetupDlgAddIn\BaseDialogContainer.cpp
; File C:\Program Files (x86)\Microsoft Visual Studio\2019\Community\VC\Tools\MSVC\14.29.30133\atlmfc\include\afxtempl.h
; File D:\git\src\IBK\IBK_DRFN\ProjSrc\SrcChartEx\ChartAddIn\ChartEnvSetupDlgAddIn\ChartEnvSetupDlgAddIn\BaseDialogContainer.cpp
; File C:\Program Files (x86)\Microsoft Visual Studio\2019\Community\VC\Tools\MSVC\14.29.30133\atlmfc\include\afxtempl.h
; File D:\git\src\IBK\IBK_DRFN\ProjSrc\SrcChartEx\ChartAddIn\ChartEnvSetupDlgAddIn\ChartEnvSetupDlgAddIn\BaseDialogContainer.cpp
; File C:\Program Files (x86)\Microsoft Visual Studio\2019\Community\VC\Tools\MSVC\14.29.30133\atlmfc\include\afxtempl.h
; File D:\git\src\IBK\IBK_DRFN\ProjSrc\SrcChartEx\ChartAddIn\ChartEnvSetupDlgAddIn\ChartEnvSetupDlgAddIn\BaseDialogContainer.cpp
;	COMDAT ?GetBaseDialog@CBaseDialogContainer@@QAEPAVCBaseDialog@@PBD@Z
_TEXT	SEGMENT
_pBaseDialog$ = 8					; size = 4
_pcszIndicatorName$ = 8					; size = 4
?GetBaseDialog@CBaseDialogContainer@@QAEPAVCBaseDialog@@PBD@Z PROC ; CBaseDialogContainer::GetBaseDialog, COMDAT
; _this$ = ecx

; 51   : {

  00000	55		 push	 ebp
  00001	8b ec		 mov	 ebp, esp

; 52   : 	if(pcszIndicatorName == "")

  00003	8b 45 08	 mov	 eax, DWORD PTR _pcszIndicatorName$[ebp]
  00006	3d 00 00 00 00	 cmp	 eax, OFFSET ??_C@_00CNPNBAHC@@
  0000b	75 06		 jne	 SHORT $LN2@GetBaseDia

; 53   : 		return NULL;

  0000d	33 c0		 xor	 eax, eax

; 58   : }

  0000f	5d		 pop	 ebp
  00010	c2 04 00	 ret	 4
$LN2@GetBaseDia:
; File C:\Program Files (x86)\Microsoft Visual Studio\2019\Community\VC\Tools\MSVC\14.29.30133\atlmfc\include\afxtempl.h

; 2052 : 		{ return BASE_CLASS::Lookup(key, (typename BASE_CLASS::BASE_VALUE&)rValue); }

  00013	8d 55 08	 lea	 edx, DWORD PTR _pBaseDialog$[ebp]
; File D:\git\src\IBK\IBK_DRFN\ProjSrc\SrcChartEx\ChartAddIn\ChartEnvSetupDlgAddIn\ChartEnvSetupDlgAddIn\BaseDialogContainer.cpp

; 55   : 	CBaseDialog *pBaseDialog = NULL;

  00016	c7 45 08 00 00
	00 00		 mov	 DWORD PTR _pBaseDialog$[ebp], 0
; File C:\Program Files (x86)\Microsoft Visual Studio\2019\Community\VC\Tools\MSVC\14.29.30133\atlmfc\include\afxtempl.h

; 2052 : 		{ return BASE_CLASS::Lookup(key, (typename BASE_CLASS::BASE_VALUE&)rValue); }

  0001d	52		 push	 edx
  0001e	50		 push	 eax
; File D:\git\src\IBK\IBK_DRFN\ProjSrc\SrcChartEx\ChartAddIn\ChartEnvSetupDlgAddIn\ChartEnvSetupDlgAddIn\BaseDialogContainer.cpp

; 56   : 	m_mapBaseDialog.Lookup( pcszIndicatorName, pBaseDialog);

  0001f	83 c1 04	 add	 ecx, 4
; File C:\Program Files (x86)\Microsoft Visual Studio\2019\Community\VC\Tools\MSVC\14.29.30133\atlmfc\include\afxtempl.h

; 2052 : 		{ return BASE_CLASS::Lookup(key, (typename BASE_CLASS::BASE_VALUE&)rValue); }

  00022	e8 00 00 00 00	 call	 ?Lookup@CMapStringToOb@@QBEHPBDAAPAVCObject@@@Z ; CMapStringToOb::Lookup
; File D:\git\src\IBK\IBK_DRFN\ProjSrc\SrcChartEx\ChartAddIn\ChartEnvSetupDlgAddIn\ChartEnvSetupDlgAddIn\BaseDialogContainer.cpp

; 57   : 	return pBaseDialog;

  00027	8b 45 08	 mov	 eax, DWORD PTR _pBaseDialog$[ebp]

; 58   : }

  0002a	5d		 pop	 ebp
  0002b	c2 04 00	 ret	 4
?GetBaseDialog@CBaseDialogContainer@@QAEPAVCBaseDialog@@PBD@Z ENDP ; CBaseDialogContainer::GetBaseDialog
_TEXT	ENDS
; Function compile flags: /Ogtp
; File D:\git\src\IBK\IBK_DRFN\ProjSrc\SrcChartEx\ChartAddIn\ChartEnvSetupDlgAddIn\ChartEnvSetupDlgAddIn\BaseDialogContainer.cpp
; File C:\Program Files (x86)\Microsoft Visual Studio\2019\Community\VC\Tools\MSVC\14.29.30133\atlmfc\include\afxcoll.inl
; File D:\git\src\IBK\IBK_DRFN\ProjSrc\SrcChartEx\ChartAddIn\ChartEnvSetupDlgAddIn\ChartEnvSetupDlgAddIn\BaseDialogContainer.cpp
;	COMDAT ?GetStartPosition@CBaseDialogContainer@@QBEPAU__POSITION@@XZ
_TEXT	SEGMENT
?GetStartPosition@CBaseDialogContainer@@QBEPAU__POSITION@@XZ PROC ; CBaseDialogContainer::GetStartPosition, COMDAT
; _this$ = ecx
; File C:\Program Files (x86)\Microsoft Visual Studio\2019\Community\VC\Tools\MSVC\14.29.30133\atlmfc\include\afxcoll.inl

; 645  : 	{ return (m_nCount == 0) ? NULL : BEFORE_START_POSITION; }

  00000	8b 41 10	 mov	 eax, DWORD PTR [ecx+16]
  00003	f7 d8		 neg	 eax
  00005	1b c0		 sbb	 eax, eax
; File D:\git\src\IBK\IBK_DRFN\ProjSrc\SrcChartEx\ChartAddIn\ChartEnvSetupDlgAddIn\ChartEnvSetupDlgAddIn\BaseDialogContainer.cpp

; 90   : }

  00007	c3		 ret	 0
?GetStartPosition@CBaseDialogContainer@@QBEPAU__POSITION@@XZ ENDP ; CBaseDialogContainer::GetStartPosition
_TEXT	ENDS
; Function compile flags: /Ogtp
; File D:\git\src\IBK\IBK_DRFN\ProjSrc\SrcChartEx\ChartAddIn\ChartEnvSetupDlgAddIn\ChartEnvSetupDlgAddIn\BaseDialogContainer.cpp
; File C:\Program Files (x86)\Microsoft Visual Studio\2019\Community\VC\Tools\MSVC\14.29.30133\atlmfc\include\afxcoll.inl
; File D:\git\src\IBK\IBK_DRFN\ProjSrc\SrcChartEx\ChartAddIn\ChartEnvSetupDlgAddIn\ChartEnvSetupDlgAddIn\BaseDialogContainer.cpp
; File C:\Program Files (x86)\Microsoft Visual Studio\2019\Community\VC\Tools\MSVC\14.29.30133\atlmfc\include\afxtempl.h
; File C:\Program Files (x86)\Microsoft Visual Studio\2019\Community\VC\Tools\MSVC\14.29.30133\atlmfc\include\afxcoll.inl
; File C:\Program Files (x86)\Microsoft Visual Studio\2019\Community\VC\Tools\MSVC\14.29.30133\atlmfc\include\afxtempl.h
; File D:\git\src\IBK\IBK_DRFN\ProjSrc\SrcChartEx\ChartAddIn\ChartEnvSetupDlgAddIn\ChartEnvSetupDlgAddIn\BaseDialogContainer.cpp
;	COMDAT ?AddBaseDialog@CBaseDialogContainer@@QAEXPBDPAVCBaseDialog@@@Z
_TEXT	SEGMENT
__$EHRec$ = -12						; size = 12
$T2 = 8							; size = 4
_pcszIndicatorName$ = 8					; size = 4
_pChildDialog$ = 12					; size = 4
?AddBaseDialog@CBaseDialogContainer@@QAEXPBDPAVCBaseDialog@@@Z PROC ; CBaseDialogContainer::AddBaseDialog, COMDAT
; _this$ = ecx

; 40   : {

  00000	55		 push	 ebp
  00001	8b ec		 mov	 ebp, esp
  00003	6a ff		 push	 -1
  00005	68 00 00 00 00	 push	 __ehhandler$?AddBaseDialog@CBaseDialogContainer@@QAEXPBDPAVCBaseDialog@@@Z
  0000a	64 a1 00 00 00
	00		 mov	 eax, DWORD PTR fs:0
  00010	50		 push	 eax
  00011	56		 push	 esi
  00012	a1 00 00 00 00	 mov	 eax, DWORD PTR ___security_cookie
  00017	33 c5		 xor	 eax, ebp
  00019	50		 push	 eax
  0001a	8d 45 f4	 lea	 eax, DWORD PTR __$EHRec$[ebp]
  0001d	64 a3 00 00 00
	00		 mov	 DWORD PTR fs:0, eax
  00023	8b f1		 mov	 esi, ecx

; 41   : 	m_mapBaseDialog.SetAt( pcszIndicatorName, pChildDialog);

  00025	ff 75 08	 push	 DWORD PTR _pcszIndicatorName$[ebp]
  00028	8d 4d 08	 lea	 ecx, DWORD PTR $T2[ebp]
  0002b	ff 15 00 00 00
	00		 call	 DWORD PTR __imp_??0?$CStringT@DV?$StrTraitMFC_DLL@DV?$ChTraitsCRT@D@ATL@@@@@ATL@@QAE@PBD@Z
; File C:\Program Files (x86)\Microsoft Visual Studio\2019\Community\VC\Tools\MSVC\14.29.30133\atlmfc\include\afxcoll.inl

; 643  : 	{ (*this)[key] = newValue; }

  00031	ff 75 08	 push	 DWORD PTR $T2[ebp]
; File D:\git\src\IBK\IBK_DRFN\ProjSrc\SrcChartEx\ChartAddIn\ChartEnvSetupDlgAddIn\ChartEnvSetupDlgAddIn\BaseDialogContainer.cpp

; 41   : 	m_mapBaseDialog.SetAt( pcszIndicatorName, pChildDialog);

  00034	8d 4e 04	 lea	 ecx, DWORD PTR [esi+4]
; File C:\Program Files (x86)\Microsoft Visual Studio\2019\Community\VC\Tools\MSVC\14.29.30133\atlmfc\include\afxtempl.h

; 2060 : 		{ BASE_CLASS::SetAt(key, newValue); }

  00037	c7 45 fc 00 00
	00 00		 mov	 DWORD PTR __$EHRec$[ebp+8], 0
; File C:\Program Files (x86)\Microsoft Visual Studio\2019\Community\VC\Tools\MSVC\14.29.30133\atlmfc\include\afxcoll.inl

; 643  : 	{ (*this)[key] = newValue; }

  0003e	e8 00 00 00 00	 call	 ??ACMapStringToOb@@QAEAAPAVCObject@@PBD@Z ; CMapStringToOb::operator[]
  00043	8b 4d 0c	 mov	 ecx, DWORD PTR _pChildDialog$[ebp]
  00046	89 08		 mov	 DWORD PTR [eax], ecx
; File C:\Program Files (x86)\Microsoft Visual Studio\2019\Community\VC\Tools\MSVC\14.29.30133\atlmfc\include\afxtempl.h

; 2060 : 		{ BASE_CLASS::SetAt(key, newValue); }

  00048	8d 4d 08	 lea	 ecx, DWORD PTR $T2[ebp]
  0004b	ff 15 00 00 00
	00		 call	 DWORD PTR __imp_??1?$CStringT@DV?$StrTraitMFC_DLL@DV?$ChTraitsCRT@D@ATL@@@@@ATL@@QAE@XZ
; File D:\git\src\IBK\IBK_DRFN\ProjSrc\SrcChartEx\ChartAddIn\ChartEnvSetupDlgAddIn\ChartEnvSetupDlgAddIn\BaseDialogContainer.cpp

; 42   : }

  00051	8b 4d f4	 mov	 ecx, DWORD PTR __$EHRec$[ebp]
  00054	64 89 0d 00 00
	00 00		 mov	 DWORD PTR fs:0, ecx
  0005b	59		 pop	 ecx
  0005c	5e		 pop	 esi
  0005d	8b e5		 mov	 esp, ebp
  0005f	5d		 pop	 ebp
  00060	c2 08 00	 ret	 8
_TEXT	ENDS
;	COMDAT text$x
text$x	SEGMENT
__unwindfunclet$?AddBaseDialog@CBaseDialogContainer@@QAEXPBDPAVCBaseDialog@@@Z$1:
  00000	8d 4d 08	 lea	 ecx, DWORD PTR $T2[ebp]
  00003	ff 25 00 00 00
	00		 jmp	 DWORD PTR __imp_??1?$CStringT@DV?$StrTraitMFC_DLL@DV?$ChTraitsCRT@D@ATL@@@@@ATL@@QAE@XZ
  00009	cc		 int	 3
  0000a	cc		 int	 3
  0000b	cc		 int	 3
  0000c	cc		 int	 3
  0000d	cc		 int	 3
__ehhandler$?AddBaseDialog@CBaseDialogContainer@@QAEXPBDPAVCBaseDialog@@@Z:
  0000e	90		 npad	 1
  0000f	90		 npad	 1
  00010	8b 54 24 08	 mov	 edx, DWORD PTR [esp+8]
  00014	8d 42 0c	 lea	 eax, DWORD PTR [edx+12]
  00017	8b 4a f8	 mov	 ecx, DWORD PTR [edx-8]
  0001a	33 c8		 xor	 ecx, eax
  0001c	e8 00 00 00 00	 call	 @__security_check_cookie@4
  00021	b8 00 00 00 00	 mov	 eax, OFFSET __ehfuncinfo$?AddBaseDialog@CBaseDialogContainer@@QAEXPBDPAVCBaseDialog@@@Z
  00026	e9 00 00 00 00	 jmp	 ___CxxFrameHandler3
text$x	ENDS
?AddBaseDialog@CBaseDialogContainer@@QAEXPBDPAVCBaseDialog@@@Z ENDP ; CBaseDialogContainer::AddBaseDialog
; Function compile flags: /Ogtp
; File D:\git\src\IBK\IBK_DRFN\ProjSrc\SrcChartEx\ChartAddIn\ChartEnvSetupDlgAddIn\ChartEnvSetupDlgAddIn\BaseDialogContainer.cpp
; File C:\Program Files (x86)\Microsoft Visual Studio\2019\Community\VC\Tools\MSVC\14.29.30133\atlmfc\include\afxcoll.inl
; File D:\git\src\IBK\IBK_DRFN\ProjSrc\SrcChartEx\ChartAddIn\ChartEnvSetupDlgAddIn\ChartEnvSetupDlgAddIn\BaseDialogContainer.cpp
; File C:\Program Files (x86)\Microsoft Visual Studio\2019\Community\VC\Tools\MSVC\14.29.30133\atlmfc\include\afxcoll.inl
; File D:\git\src\IBK\IBK_DRFN\ProjSrc\SrcChartEx\ChartAddIn\ChartEnvSetupDlgAddIn\ChartEnvSetupDlgAddIn\BaseDialogContainer.cpp
; File C:\Program Files (x86)\Microsoft Visual Studio\2019\Community\VC\Tools\MSVC\14.29.30133\atlmfc\include\afxcoll.inl
; File D:\git\src\IBK\IBK_DRFN\ProjSrc\SrcChartEx\ChartAddIn\ChartEnvSetupDlgAddIn\ChartEnvSetupDlgAddIn\BaseDialogContainer.cpp
; File C:\Program Files (x86)\Microsoft Visual Studio\2019\Community\VC\Tools\MSVC\14.29.30133\atlmfc\include\afxtempl.h
; File D:\git\src\IBK\IBK_DRFN\ProjSrc\SrcChartEx\ChartAddIn\ChartEnvSetupDlgAddIn\ChartEnvSetupDlgAddIn\BaseDialogContainer.cpp
;	COMDAT ??1CBaseDialogContainer@@UAE@XZ
_TEXT	SEGMENT
_pos$2 = -24						; size = 4
_strIndicatorName$3 = -20				; size = 4
_pBaseDlg$4 = -16					; size = 4
__$EHRec$ = -12						; size = 12
??1CBaseDialogContainer@@UAE@XZ PROC			; CBaseDialogContainer::~CBaseDialogContainer, COMDAT
; _this$ = ecx

; 28   : {

  00000	55		 push	 ebp
  00001	8b ec		 mov	 ebp, esp
  00003	6a ff		 push	 -1
  00005	68 00 00 00 00	 push	 __ehhandler$??1CBaseDialogContainer@@UAE@XZ
  0000a	64 a1 00 00 00
	00		 mov	 eax, DWORD PTR fs:0
  00010	50		 push	 eax
  00011	83 ec 0c	 sub	 esp, 12			; 0000000cH
  00014	56		 push	 esi
  00015	a1 00 00 00 00	 mov	 eax, DWORD PTR ___security_cookie
  0001a	33 c5		 xor	 eax, ebp
  0001c	50		 push	 eax
  0001d	8d 45 f4	 lea	 eax, DWORD PTR __$EHRec$[ebp]
  00020	64 a3 00 00 00
	00		 mov	 DWORD PTR fs:0, eax
; File C:\Program Files (x86)\Microsoft Visual Studio\2019\Community\VC\Tools\MSVC\14.29.30133\atlmfc\include\afxcoll.inl

; 645  : 	{ return (m_nCount == 0) ? NULL : BEFORE_START_POSITION; }

  00026	8b 51 10	 mov	 edx, DWORD PTR [ecx+16]
; File D:\git\src\IBK\IBK_DRFN\ProjSrc\SrcChartEx\ChartAddIn\ChartEnvSetupDlgAddIn\ChartEnvSetupDlgAddIn\BaseDialogContainer.cpp

; 68   : 	POSITION pos = m_mapBaseDialog.GetStartPosition();

  00029	8d 71 04	 lea	 esi, DWORD PTR [ecx+4]
; File C:\Program Files (x86)\Microsoft Visual Studio\2019\Community\VC\Tools\MSVC\14.29.30133\atlmfc\include\afxcoll.inl

; 645  : 	{ return (m_nCount == 0) ? NULL : BEFORE_START_POSITION; }

  0002c	8b c2		 mov	 eax, edx
; File D:\git\src\IBK\IBK_DRFN\ProjSrc\SrcChartEx\ChartAddIn\ChartEnvSetupDlgAddIn\ChartEnvSetupDlgAddIn\BaseDialogContainer.cpp

; 28   : {

  0002e	c7 01 00 00 00
	00		 mov	 DWORD PTR [ecx], OFFSET ??_7CBaseDialogContainer@@6B@
; File C:\Program Files (x86)\Microsoft Visual Studio\2019\Community\VC\Tools\MSVC\14.29.30133\atlmfc\include\afxcoll.inl

; 645  : 	{ return (m_nCount == 0) ? NULL : BEFORE_START_POSITION; }

  00034	f7 d8		 neg	 eax
  00036	1b c0		 sbb	 eax, eax
; File D:\git\src\IBK\IBK_DRFN\ProjSrc\SrcChartEx\ChartAddIn\ChartEnvSetupDlgAddIn\ChartEnvSetupDlgAddIn\BaseDialogContainer.cpp

; 68   : 	POSITION pos = m_mapBaseDialog.GetStartPosition();

  00038	89 45 e8	 mov	 DWORD PTR _pos$2[ebp], eax
  0003b	85 d2		 test	 edx, edx

; 69   : 
; 70   : 	while( pos )

  0003d	74 41		 je	 SHORT $LN20@CBaseDialo
  0003f	90		 npad	 1
$LL4@CBaseDialo:

; 71   : 	{
; 72   : 		CBaseDialog * pBaseDlg = NULL;
; 73   : 		CString strIndicatorName;

  00040	8d 4d ec	 lea	 ecx, DWORD PTR _strIndicatorName$3[ebp]
  00043	c7 45 f0 00 00
	00 00		 mov	 DWORD PTR _pBaseDlg$4[ebp], 0
  0004a	ff 15 00 00 00
	00		 call	 DWORD PTR __imp_??0?$CStringT@DV?$StrTraitMFC_DLL@DV?$ChTraitsCRT@D@ATL@@@@@ATL@@QAE@XZ
; File C:\Program Files (x86)\Microsoft Visual Studio\2019\Community\VC\Tools\MSVC\14.29.30133\atlmfc\include\afxtempl.h

; 2068 : 		{ BASE_CLASS::GetNextAssoc(rPosition, (typename BASE_CLASS::BASE_KEY&)rKey,

  00050	8d 45 f0	 lea	 eax, DWORD PTR _pBaseDlg$4[ebp]
  00053	8b ce		 mov	 ecx, esi
  00055	50		 push	 eax
  00056	8d 45 ec	 lea	 eax, DWORD PTR _strIndicatorName$3[ebp]
  00059	50		 push	 eax
  0005a	8d 45 e8	 lea	 eax, DWORD PTR _pos$2[ebp]
  0005d	50		 push	 eax
  0005e	e8 00 00 00 00	 call	 ?GetNextAssoc@CMapStringToOb@@QBEXAAPAU__POSITION@@AAV?$CStringT@DV?$StrTraitMFC_DLL@DV?$ChTraitsCRT@D@ATL@@@@@ATL@@AAPAVCObject@@@Z ; CMapStringToOb::GetNextAssoc
; File D:\git\src\IBK\IBK_DRFN\ProjSrc\SrcChartEx\ChartAddIn\ChartEnvSetupDlgAddIn\ChartEnvSetupDlgAddIn\BaseDialogContainer.cpp

; 75   : 		if( pBaseDlg) delete pBaseDlg;

  00063	8b 4d f0	 mov	 ecx, DWORD PTR _pBaseDlg$4[ebp]
  00066	85 c9		 test	 ecx, ecx
  00068	74 07		 je	 SHORT $LN8@CBaseDialo
  0006a	8b 01		 mov	 eax, DWORD PTR [ecx]
  0006c	6a 01		 push	 1
  0006e	ff 50 04	 call	 DWORD PTR [eax+4]
$LN8@CBaseDialo:

; 76   : 	}

  00071	8d 4d ec	 lea	 ecx, DWORD PTR _strIndicatorName$3[ebp]
  00074	ff 15 00 00 00
	00		 call	 DWORD PTR __imp_??1?$CStringT@DV?$StrTraitMFC_DLL@DV?$ChTraitsCRT@D@ATL@@@@@ATL@@QAE@XZ
  0007a	83 7d e8 00	 cmp	 DWORD PTR _pos$2[ebp], 0
  0007e	75 c0		 jne	 SHORT $LL4@CBaseDialo
$LN20@CBaseDialo:

; 77   : 
; 78   : 	m_mapBaseDialog.RemoveAll();

  00080	8b ce		 mov	 ecx, esi
  00082	e8 00 00 00 00	 call	 ?RemoveAll@CMapStringToOb@@QAEXXZ ; CMapStringToOb::RemoveAll
  00087	8b ce		 mov	 ecx, esi
  00089	e8 00 00 00 00	 call	 ??1CMapStringToOb@@UAE@XZ ; CMapStringToOb::~CMapStringToOb

; 29   : 	RemoveAll();
; 30   : }

  0008e	8b 4d f4	 mov	 ecx, DWORD PTR __$EHRec$[ebp]
  00091	64 89 0d 00 00
	00 00		 mov	 DWORD PTR fs:0, ecx
  00098	59		 pop	 ecx
  00099	5e		 pop	 esi
  0009a	8b e5		 mov	 esp, ebp
  0009c	5d		 pop	 ebp
  0009d	c3		 ret	 0
  0009e	cc		 int	 3
  0009f	cc		 int	 3
  000a0	cc		 int	 3
  000a1	cc		 int	 3
  000a2	cc		 int	 3
_TEXT	ENDS
;	COMDAT text$x
text$x	SEGMENT
__ehhandler$??1CBaseDialogContainer@@UAE@XZ:
  00000	90		 npad	 1
  00001	90		 npad	 1
  00002	8b 54 24 08	 mov	 edx, DWORD PTR [esp+8]
  00006	8d 42 0c	 lea	 eax, DWORD PTR [edx+12]
  00009	8b 4a ec	 mov	 ecx, DWORD PTR [edx-20]
  0000c	33 c8		 xor	 ecx, eax
  0000e	e8 00 00 00 00	 call	 @__security_check_cookie@4
  00013	b8 00 00 00 00	 mov	 eax, OFFSET __ehfuncinfo$??1CBaseDialogContainer@@UAE@XZ
  00018	e9 00 00 00 00	 jmp	 ___CxxFrameHandler3
text$x	ENDS
??1CBaseDialogContainer@@UAE@XZ ENDP			; CBaseDialogContainer::~CBaseDialogContainer
; Function compile flags: /Ogtp
; File D:\git\src\IBK\IBK_DRFN\ProjSrc\SrcChartEx\ChartAddIn\ChartEnvSetupDlgAddIn\ChartEnvSetupDlgAddIn\BaseDialogContainer.cpp
; File C:\Program Files (x86)\Microsoft Visual Studio\2019\Community\VC\Tools\MSVC\14.29.30133\atlmfc\include\afxtempl.h
; File D:\git\src\IBK\IBK_DRFN\ProjSrc\SrcChartEx\ChartAddIn\ChartEnvSetupDlgAddIn\ChartEnvSetupDlgAddIn\BaseDialogContainer.cpp
; File C:\Program Files (x86)\Microsoft Visual Studio\2019\Community\VC\Tools\MSVC\14.29.30133\atlmfc\include\afxtempl.h
; File D:\git\src\IBK\IBK_DRFN\ProjSrc\SrcChartEx\ChartAddIn\ChartEnvSetupDlgAddIn\ChartEnvSetupDlgAddIn\BaseDialogContainer.cpp
; File C:\Program Files (x86)\Microsoft Visual Studio\2019\Community\VC\Tools\MSVC\14.29.30133\atlmfc\include\afxtempl.h
; File D:\git\src\IBK\IBK_DRFN\ProjSrc\SrcChartEx\ChartAddIn\ChartEnvSetupDlgAddIn\ChartEnvSetupDlgAddIn\BaseDialogContainer.cpp
; File C:\Program Files (x86)\Microsoft Visual Studio\2019\Community\VC\Tools\MSVC\14.29.30133\atlmfc\include\afxtempl.h
; File D:\git\src\IBK\IBK_DRFN\ProjSrc\SrcChartEx\ChartAddIn\ChartEnvSetupDlgAddIn\ChartEnvSetupDlgAddIn\BaseDialogContainer.cpp
;	COMDAT ??0CBaseDialogContainer@@QAE@XZ
_TEXT	SEGMENT
_this$ = -4						; size = 4
_this$ = -4						; size = 4
??0CBaseDialogContainer@@QAE@XZ PROC			; CBaseDialogContainer::CBaseDialogContainer, COMDAT
; _this$ = ecx

; 17   : {

  00000	55		 push	 ebp
  00001	8b ec		 mov	 ebp, esp
  00003	51		 push	 ecx
  00004	56		 push	 esi
  00005	57		 push	 edi
  00006	8b f9		 mov	 edi, ecx
  00008	89 7d fc	 mov	 DWORD PTR _this$[ebp], edi
; File C:\Program Files (x86)\Microsoft Visual Studio\2019\Community\VC\Tools\MSVC\14.29.30133\atlmfc\include\afxtempl.h

; 2048 : 		: BASE_CLASS(nBlockSize) { }

  0000b	6a 0a		 push	 10			; 0000000aH
; File D:\git\src\IBK\IBK_DRFN\ProjSrc\SrcChartEx\ChartAddIn\ChartEnvSetupDlgAddIn\ChartEnvSetupDlgAddIn\BaseDialogContainer.cpp

; 17   : {

  0000d	8d 77 04	 lea	 esi, DWORD PTR [edi+4]
  00010	c7 07 00 00 00
	00		 mov	 DWORD PTR [edi], OFFSET ??_7CBaseDialogContainer@@6B@
; File C:\Program Files (x86)\Microsoft Visual Studio\2019\Community\VC\Tools\MSVC\14.29.30133\atlmfc\include\afxtempl.h

; 2048 : 		: BASE_CLASS(nBlockSize) { }

  00016	8b ce		 mov	 ecx, esi
; File D:\git\src\IBK\IBK_DRFN\ProjSrc\SrcChartEx\ChartAddIn\ChartEnvSetupDlgAddIn\ChartEnvSetupDlgAddIn\BaseDialogContainer.cpp

; 17   : {

  00018	89 75 fc	 mov	 DWORD PTR _this$[ebp], esi
; File C:\Program Files (x86)\Microsoft Visual Studio\2019\Community\VC\Tools\MSVC\14.29.30133\atlmfc\include\afxtempl.h

; 2048 : 		: BASE_CLASS(nBlockSize) { }

  0001b	e8 00 00 00 00	 call	 ??0CMapStringToOb@@QAE@H@Z ; CMapStringToOb::CMapStringToOb
; File D:\git\src\IBK\IBK_DRFN\ProjSrc\SrcChartEx\ChartAddIn\ChartEnvSetupDlgAddIn\ChartEnvSetupDlgAddIn\BaseDialogContainer.cpp

; 19   : }

  00020	8b c7		 mov	 eax, edi
; File C:\Program Files (x86)\Microsoft Visual Studio\2019\Community\VC\Tools\MSVC\14.29.30133\atlmfc\include\afxtempl.h

; 2048 : 		: BASE_CLASS(nBlockSize) { }

  00022	c7 06 00 00 00
	00		 mov	 DWORD PTR [esi], OFFSET ??_7?$CTypedPtrMap@VCMapStringToOb@@V?$CStringT@DV?$StrTraitMFC_DLL@DV?$ChTraitsCRT@D@ATL@@@@@ATL@@PAVCBaseDialog@@@@6B@
; File D:\git\src\IBK\IBK_DRFN\ProjSrc\SrcChartEx\ChartAddIn\ChartEnvSetupDlgAddIn\ChartEnvSetupDlgAddIn\BaseDialogContainer.cpp

; 19   : }

  00028	5f		 pop	 edi
  00029	5e		 pop	 esi
  0002a	8b e5		 mov	 esp, ebp
  0002c	5d		 pop	 ebp
  0002d	c3		 ret	 0
??0CBaseDialogContainer@@QAE@XZ ENDP			; CBaseDialogContainer::CBaseDialogContainer
_TEXT	ENDS
; Function compile flags: /Ogtp
; File C:\Program Files (x86)\Microsoft Visual Studio\2019\Community\VC\Tools\MSVC\14.29.30133\atlmfc\include\afx.inl
;	COMDAT ?Dump@CObject@@UBEXAAVCDumpContext@@@Z
_TEXT	SEGMENT
___formal$ = 8						; size = 4
?Dump@CObject@@UBEXAAVCDumpContext@@@Z PROC		; CObject::Dump, COMDAT
; _this$ = ecx

; 122  : 	{ /* no dumping in release builds */ }

  00000	c2 04 00	 ret	 4
?Dump@CObject@@UBEXAAVCDumpContext@@@Z ENDP		; CObject::Dump
_TEXT	ENDS
; Function compile flags: /Ogtp
; File C:\Program Files (x86)\Microsoft Visual Studio\2019\Community\VC\Tools\MSVC\14.29.30133\atlmfc\include\afx.inl
;	COMDAT ?AssertValid@CObject@@UBEXXZ
_TEXT	SEGMENT
?AssertValid@CObject@@UBEXXZ PROC			; CObject::AssertValid, COMDAT
; _this$ = ecx

; 120  : 	{ /* no asserts in release builds */ }

  00000	c2 00 00	 ret	 0
?AssertValid@CObject@@UBEXXZ ENDP			; CObject::AssertValid
_TEXT	ENDS
; Function compile flags: /Ogtp
; File D:\git\src\IBK\IBK_DRFN\ProjSrc\SrcChartEx\ChartAddIn\ChartEnvSetupDlgAddIn\ChartEnvSetupDlgAddIn\BaseDialogContainer.cpp
;	COMDAT ?__empty_global_delete@@YAXPAXI@Z
_TEXT	SEGMENT
___formal$ = 8						; size = 4
___formal$ = 12						; size = 4
?__empty_global_delete@@YAXPAXI@Z PROC			; __empty_global_delete, COMDAT

  00000	c2 00 00	 ret	 0
?__empty_global_delete@@YAXPAXI@Z ENDP			; __empty_global_delete
_TEXT	ENDS
; Function compile flags: /Ogtp
; File D:\git\src\IBK\IBK_DRFN\ProjSrc\SrcChartEx\ChartAddIn\ChartEnvSetupDlgAddIn\ChartEnvSetupDlgAddIn\BaseDialogContainer.cpp
;	COMDAT ?__empty_global_delete@@YAXPAX@Z
_TEXT	SEGMENT
___formal$ = 8						; size = 4
?__empty_global_delete@@YAXPAX@Z PROC			; __empty_global_delete, COMDAT

  00000	c2 00 00	 ret	 0
?__empty_global_delete@@YAXPAX@Z ENDP			; __empty_global_delete
_TEXT	ENDS
END
