; Listing generated by Microsoft (R) Optimizing Compiler Version 19.29.30145.0 

	TITLE	D:\git\src\IBK\IBK_DRFN\#DRfn-CS\_Obj\ChartEnvSetupDlgAddIn\ChartStyleDataManagerAddInImp.obj
	.686P
	.XMM
	include listing.inc
	.model	flat

INCLUDELIB MSVCRT
INCLUDELIB OLDNAMES

PUBLIC	?m_eRegisteredEventMap@CChartStyleDataManagerAddInImp@@1QBW4EAddInEventType@IChartAddIn135914@@B ; CChartStyleDataManagerAddInImp::m_eRegisteredEventMap
PUBLIC	??_C@_0L@ICPPCKIO@STYLE_DATA@			; `string'
;	COMDAT ??_C@_0L@ICPPCKIO@STYLE_DATA@
CONST	SEGMENT
??_C@_0L@ICPPCKIO@STYLE_DATA@ DB 'STYLE_DATA', 00H	; `string'
CONST	ENDS
CONST	SEGMENT
?m_eRegisteredEventMap@CChartStyleDataManagerAddInImp@@1QBW4EAddInEventType@IChartAddIn135914@@B DD 06H ; CChartStyleDataManagerAddInImp::m_eRegisteredEventMap
	DD	02aH
	ORG $+164
CONST	ENDS
PUBLIC	?__empty_global_delete@@YAXPAX@Z		; __empty_global_delete
PUBLIC	?__empty_global_delete@@YAXPAXI@Z		; __empty_global_delete
PUBLIC	??1CObject@@UAE@XZ				; CObject::~CObject
PUBLIC	?Serialize@CObject@@UAEXAAVCArchive@@@Z		; CObject::Serialize
PUBLIC	?AssertValid@CObject@@UBEXXZ			; CObject::AssertValid
PUBLIC	?Dump@CObject@@UBEXAAVCDumpContext@@@Z		; CObject::Dump
PUBLIC	??1IStyleManager@@MAE@XZ			; IStyleManager::~IStyleManager
PUBLIC	??_GIStyleManager@@MAEPAXI@Z			; IStyleManager::`scalar deleting destructor'
PUBLIC	?PostConstruct@CIWUnknown@@MAEXXZ		; CIWUnknown::PostConstruct
PUBLIC	?PreDestructX@CIWUnknown@@MAEXXZ		; CIWUnknown::PreDestructX
PUBLIC	?PreDestruct@CIWUnknown@@MAEXXZ			; CIWUnknown::PreDestruct
PUBLIC	?InvokeAddIn@CChartAddInBase135914@@MAEHHJ@Z	; CChartAddInBase135914::InvokeAddIn
PUBLIC	?InvokeAddInStr@CChartAddInBase135914@@MAEHPBD0@Z ; CChartAddInBase135914::InvokeAddInStr
PUBLIC	?GetGlobalAddInEventType@CChartAddInBase135914@@MBE?AW4EAddInEventType@IAddInDllBase@@J@Z ; CChartAddInBase135914::GetGlobalAddInEventType
PUBLIC	?OnGSharedDataChange@CChartAddInBase135914@@MAEXPBD0H@Z ; CChartAddInBase135914::OnGSharedDataChange
PUBLIC	?OnLSharedDataChange@CChartAddInBase135914@@MAEXPBD0@Z ; CChartAddInBase135914::OnLSharedDataChange
PUBLIC	?OnSharedDataChange@CChartAddInBase135914@@MAEXPBD0H@Z ; CChartAddInBase135914::OnSharedDataChange
PUBLIC	?OnResetChart@CChartAddInBase135914@@MAEXXZ	; CChartAddInBase135914::OnResetChart
PUBLIC	?OnDrawBeforeGraph@CChartAddInBase135914@@MAEXPAUHDC__@@@Z ; CChartAddInBase135914::OnDrawBeforeGraph
PUBLIC	?OnDrawAfterGraph@CChartAddInBase135914@@MAEXPAUHDC__@@@Z ; CChartAddInBase135914::OnDrawAfterGraph
PUBLIC	?OnPacketData@CChartAddInBase135914@@MAEXPBDH@Z	; CChartAddInBase135914::OnPacketData
PUBLIC	?OnUpdatePacketData@CChartAddInBase135914@@MAEXH@Z ; CChartAddInBase135914::OnUpdatePacketData
PUBLIC	?OnTimer@CChartAddInBase135914@@MAEXI@Z		; CChartAddInBase135914::OnTimer
PUBLIC	?OnCaptureChanged@CChartAddInBase135914@@MAEXPAUHWND__@@@Z ; CChartAddInBase135914::OnCaptureChanged
PUBLIC	?OnDrdsData@CChartAddInBase135914@@MAEXIJ@Z	; CChartAddInBase135914::OnDrdsData
PUBLIC	?OnDrdsPacketEnd@CChartAddInBase135914@@MAEXIJ@Z ; CChartAddInBase135914::OnDrdsPacketEnd
PUBLIC	?OnGraphDeleted@CChartAddInBase135914@@MAEXPBD0@Z ; CChartAddInBase135914::OnGraphDeleted
PUBLIC	?OnCmdMsg@CChartAddInBase135914@@MAEHIHPAUICmdUI135914@@@Z ; CChartAddInBase135914::OnCmdMsg
PUBLIC	?OnAddInToolCommand@CChartAddInBase135914@@MAEHW4EAICommandType@@@Z ; CChartAddInBase135914::OnAddInToolCommand
PUBLIC	?OnAddInToolCommand@CChartAddInBase135914@@MAEHW4EAICommandType@@PAUHDC__@@IAAUtagPOINT@@K@Z ; CChartAddInBase135914::OnAddInToolCommand
PUBLIC	?OnAddInToolCommand@CChartAddInBase135914@@MAEHW4EAICommandType@@PBD@Z ; CChartAddInBase135914::OnAddInToolCommand
PUBLIC	?OnAddInToolCommand@CChartAddInBase135914@@MAEHW4EAICommandType@@PBDJ@Z ; CChartAddInBase135914::OnAddInToolCommand
PUBLIC	?OnAddInToolCommand@CChartAddInBase135914@@MAEHW4EAICommandType@@PBVCBlockBehaviorData@@@Z ; CChartAddInBase135914::OnAddInToolCommand
PUBLIC	?OnAddInToolCommand@CChartAddInBase135914@@MAEHW4EAICommandType@@PBUIAddInDllBase@@@Z ; CChartAddInBase135914::OnAddInToolCommand
PUBLIC	?OnAddInToolCommand@CChartAddInBase135914@@MAEHW4EAICommandType@@JPBD@Z ; CChartAddInBase135914::OnAddInToolCommand
PUBLIC	?OnAddInToolCommand@CChartAddInBase135914@@MAEHW4EAICommandType@@JPBD11@Z ; CChartAddInBase135914::OnAddInToolCommand
PUBLIC	?OnAddInToolCommand@CChartAddInBase135914@@MAEHW4EAICommandType@@JJ@Z ; CChartAddInBase135914::OnAddInToolCommand
PUBLIC	?OnAddInToolCommand@CChartAddInBase135914@@MAEHW4EAICommandType@@JJJJJJJJJ@Z ; CChartAddInBase135914::OnAddInToolCommand
PUBLIC	?OnAddInToolCommand@CChartAddInBase135914@@MAEHW4EAICommandType@@PAUHWND__@@AAUtagPOINT@@@Z ; CChartAddInBase135914::OnAddInToolCommand
PUBLIC	?OnAddInToolCommand@CChartAddInBase135914@@MAEHAAJW4EAICommandType@@@Z ; CChartAddInBase135914::OnAddInToolCommand
PUBLIC	?OnAddInToolCommand@CChartAddInBase135914@@MAEHAAJW4EAICommandType@@PAUIGraphInfo135914@@@Z ; CChartAddInBase135914::OnAddInToolCommand
PUBLIC	?OnAddInToolCommand@CChartAddInBase135914@@MAEHAAJW4EAICommandType@@PBD@Z ; CChartAddInBase135914::OnAddInToolCommand
PUBLIC	?OnAddInToolCommand@CChartAddInBase135914@@MAEHAAJW4EAICommandType@@PBDPAVCObject@@@Z ; CChartAddInBase135914::OnAddInToolCommand
PUBLIC	?OnAddInToolCommand@CChartAddInBase135914@@MAEHAAJW4EAICommandType@@J@Z ; CChartAddInBase135914::OnAddInToolCommand
PUBLIC	?OnAddInToolCommand@CChartAddInBase135914@@MAEHAAJW4EAICommandType@@JJ@Z ; CChartAddInBase135914::OnAddInToolCommand
PUBLIC	?OnKeyDown@CChartAddInBase135914@@MAEHIII@Z	; CChartAddInBase135914::OnKeyDown
PUBLIC	?OnKeyUp@CChartAddInBase135914@@MAEHIII@Z	; CChartAddInBase135914::OnKeyUp
PUBLIC	?OnMouseWheel@CChartAddInBase135914@@MAEHIFUtagPOINT@@K@Z ; CChartAddInBase135914::OnMouseWheel
PUBLIC	?OnMouseMove@CChartAddInBase135914@@MAEHPAUHDC__@@IAAUtagPOINT@@K@Z ; CChartAddInBase135914::OnMouseMove
PUBLIC	?OnLButtonDown@CChartAddInBase135914@@MAEHPAUHDC__@@IAAUtagPOINT@@K@Z ; CChartAddInBase135914::OnLButtonDown
PUBLIC	?OnLButtonUp@CChartAddInBase135914@@MAEHPAUHDC__@@IAAUtagPOINT@@K@Z ; CChartAddInBase135914::OnLButtonUp
PUBLIC	?OnLButtonDblClk@CChartAddInBase135914@@MAEHPAUHDC__@@IAAUtagPOINT@@K@Z ; CChartAddInBase135914::OnLButtonDblClk
PUBLIC	?OnRButtonDown@CChartAddInBase135914@@MAEHPAUHDC__@@IAAUtagPOINT@@K@Z ; CChartAddInBase135914::OnRButtonDown
PUBLIC	?OnRButtonUp@CChartAddInBase135914@@MAEHPAUHDC__@@IAAUtagPOINT@@K@Z ; CChartAddInBase135914::OnRButtonUp
PUBLIC	?OnRButtonDblClk@CChartAddInBase135914@@MAEHPAUHDC__@@IAAUtagPOINT@@K@Z ; CChartAddInBase135914::OnRButtonDblClk
PUBLIC	??0CChartStyleDataManagerAddInImp@@QAE@PAUIChartOCX135914@@PAUIAddInDllBase@@@Z ; CChartStyleDataManagerAddInImp::CChartStyleDataManagerAddInImp
PUBLIC	??1CChartStyleDataManagerAddInImp@@UAE@XZ	; CChartStyleDataManagerAddInImp::~CChartStyleDataManagerAddInImp
PUBLIC	?GetRegisteredEventMap@CChartStyleDataManagerAddInImp@@MBEPBW4EAddInEventType@IChartAddIn135914@@XZ ; CChartStyleDataManagerAddInImp::GetRegisteredEventMap
PUBLIC	?GetAddInCustomInterface@CChartStyleDataManagerAddInImp@@MAEPAUIUnknown@@XZ ; CChartStyleDataManagerAddInImp::GetAddInCustomInterface
PUBLIC	?AddRef@CChartStyleDataManagerAddInImp@@MAGKXZ	; CChartStyleDataManagerAddInImp::AddRef
PUBLIC	?Release@CChartStyleDataManagerAddInImp@@MAGKXZ	; CChartStyleDataManagerAddInImp::Release
PUBLIC	?QueryInterface@CChartStyleDataManagerAddInImp@@MAGJABU_GUID@@PAPAX@Z ; CChartStyleDataManagerAddInImp::QueryInterface
PUBLIC	?GetStyleCount@CChartStyleDataManagerAddInImp@@MAEHXZ ; CChartStyleDataManagerAddInImp::GetStyleCount
PUBLIC	?GetStyleName@CChartStyleDataManagerAddInImp@@MAEPBDH@Z ; CChartStyleDataManagerAddInImp::GetStyleName
PUBLIC	?SetStyleToChart@CChartStyleDataManagerAddInImp@@MAEXH@Z ; CChartStyleDataManagerAddInImp::SetStyleToChart
PUBLIC	?OnAddInToolCommand@CChartStyleDataManagerAddInImp@@MAEHW4EAICommandType@@J@Z ; CChartStyleDataManagerAddInImp::OnAddInToolCommand
PUBLIC	?LoadCurrentStyle@CChartStyleDataManagerAddInImp@@MAEXXZ ; CChartStyleDataManagerAddInImp::LoadCurrentStyle
PUBLIC	?DrawSampleImage@CChartStyleDataManagerAddInImp@@MAEXPAUHDC__@@HHHHHPAX@Z ; CChartStyleDataManagerAddInImp::DrawSampleImage
PUBLIC	?UpdateIndexStyle@CChartStyleDataManagerAddInImp@@MAEXPBDH@Z ; CChartStyleDataManagerAddInImp::UpdateIndexStyle
PUBLIC	??_GCChartStyleDataManagerAddInImp@@UAEPAXI@Z	; CChartStyleDataManagerAddInImp::`scalar deleting destructor'
PUBLIC	??1CMultiLanguageResourceSetter@@QAE@XZ		; CMultiLanguageResourceSetter::~CMultiLanguageResourceSetter
PUBLIC	?AddTail@?$CList@V?$CStringT@DV?$StrTraitMFC_DLL@DV?$ChTraitsCRT@D@ATL@@@@@ATL@@V12@@@QAEPAU__POSITION@@V?$CStringT@DV?$StrTraitMFC_DLL@DV?$ChTraitsCRT@D@ATL@@@@@ATL@@@Z ; CList<ATL::CStringT<char,StrTraitMFC_DLL<char,ATL::ChTraitsCRT<char> > >,ATL::CStringT<char,StrTraitMFC_DLL<char,ATL::ChTraitsCRT<char> > > >::AddTail
PUBLIC	?RemoveAll@?$CList@V?$CStringT@DV?$StrTraitMFC_DLL@DV?$ChTraitsCRT@D@ATL@@@@@ATL@@V12@@@QAEXXZ ; CList<ATL::CStringT<char,StrTraitMFC_DLL<char,ATL::ChTraitsCRT<char> > >,ATL::CStringT<char,StrTraitMFC_DLL<char,ATL::ChTraitsCRT<char> > > >::RemoveAll
PUBLIC	?NewNode@?$CList@V?$CStringT@DV?$StrTraitMFC_DLL@DV?$ChTraitsCRT@D@ATL@@@@@ATL@@V12@@@IAEPAUCNode@1@PAU21@0@Z ; CList<ATL::CStringT<char,StrTraitMFC_DLL<char,ATL::ChTraitsCRT<char> > >,ATL::CStringT<char,StrTraitMFC_DLL<char,ATL::ChTraitsCRT<char> > > >::NewNode
PUBLIC	??1?$CList@V?$CStringT@DV?$StrTraitMFC_DLL@DV?$ChTraitsCRT@D@ATL@@@@@ATL@@V12@@@UAE@XZ ; CList<ATL::CStringT<char,StrTraitMFC_DLL<char,ATL::ChTraitsCRT<char> > >,ATL::CStringT<char,StrTraitMFC_DLL<char,ATL::ChTraitsCRT<char> > > >::~CList<ATL::CStringT<char,StrTraitMFC_DLL<char,ATL::ChTraitsCRT<char> > >,ATL::CStringT<char,StrTraitMFC_DLL<char,ATL::ChTraitsCRT<char> > > >
PUBLIC	?Serialize@?$CList@V?$CStringT@DV?$StrTraitMFC_DLL@DV?$ChTraitsCRT@D@ATL@@@@@ATL@@V12@@@UAEXAAVCArchive@@@Z ; CList<ATL::CStringT<char,StrTraitMFC_DLL<char,ATL::ChTraitsCRT<char> > >,ATL::CStringT<char,StrTraitMFC_DLL<char,ATL::ChTraitsCRT<char> > > >::Serialize
PUBLIC	??_G?$CList@V?$CStringT@DV?$StrTraitMFC_DLL@DV?$ChTraitsCRT@D@ATL@@@@@ATL@@V12@@@UAEPAXI@Z ; CList<ATL::CStringT<char,StrTraitMFC_DLL<char,ATL::ChTraitsCRT<char> > >,ATL::CStringT<char,StrTraitMFC_DLL<char,ATL::ChTraitsCRT<char> > > >::`scalar deleting destructor'
PUBLIC	??1CStyleData@@QAE@XZ				; CStyleData::~CStyleData
PUBLIC	?QueryInterface@CChartStyleDataManagerAddInImp@@O7AGJABU_GUID@@PAPAX@Z ; [thunk]:CChartStyleDataManagerAddInImp::QueryInterface`adjustor{8}'
PUBLIC	?AddRef@CChartStyleDataManagerAddInImp@@O7AGKXZ	; [thunk]:CChartStyleDataManagerAddInImp::AddRef`adjustor{8}'
PUBLIC	?Release@CChartStyleDataManagerAddInImp@@O7AGKXZ ; [thunk]:CChartStyleDataManagerAddInImp::Release`adjustor{8}'
PUBLIC	??_ECChartStyleDataManagerAddInImp@@W7AEPAXI@Z	; [thunk]:CChartStyleDataManagerAddInImp::`vector deleting destructor'
PUBLIC	?QueryInterface@CChartStyleDataManagerAddInImp@@ODA@AGJABU_GUID@@PAPAX@Z ; [thunk]:CChartStyleDataManagerAddInImp::QueryInterface`adjustor{48}'
PUBLIC	?AddRef@CChartStyleDataManagerAddInImp@@ODA@AGKXZ ; [thunk]:CChartStyleDataManagerAddInImp::AddRef`adjustor{48}'
PUBLIC	?Release@CChartStyleDataManagerAddInImp@@ODA@AGKXZ ; [thunk]:CChartStyleDataManagerAddInImp::Release`adjustor{48}'
PUBLIC	??_ECChartStyleDataManagerAddInImp@@WDA@AEPAXI@Z ; [thunk]:CChartStyleDataManagerAddInImp::`vector deleting destructor'
PUBLIC	??_R0?AVCObject@@@8				; CObject `RTTI Type Descriptor'
PUBLIC	??_R3CObject@@8					; CObject::`RTTI Class Hierarchy Descriptor'
PUBLIC	??_R2CObject@@8					; CObject::`RTTI Base Class Array'
PUBLIC	??_R1A@?0A@EA@CObject@@8			; CObject::`RTTI Base Class Descriptor at (0,-1,0,64)'
PUBLIC	??_R0?AUIUnknown@@@8				; IUnknown `RTTI Type Descriptor'
PUBLIC	??_R3IUnknown@@8				; IUnknown::`RTTI Class Hierarchy Descriptor'
PUBLIC	??_R2IUnknown@@8				; IUnknown::`RTTI Base Class Array'
PUBLIC	??_R1A@?0A@EA@IUnknown@@8			; IUnknown::`RTTI Base Class Descriptor at (0,-1,0,64)'
PUBLIC	??_7IStyleManager@@6B@				; IStyleManager::`vftable'
PUBLIC	?m_strAddInItemName@CChartStyleDataManagerAddInImp@@2V?$CStringT@DV?$StrTraitMFC_DLL@DV?$ChTraitsCRT@D@ATL@@@@@ATL@@A ; CChartStyleDataManagerAddInImp::m_strAddInItemName
PUBLIC	??_7CChartStyleDataManagerAddInImp@@6BCIWUnknown@@@ ; CChartStyleDataManagerAddInImp::`vftable'
PUBLIC	??_7CChartStyleDataManagerAddInImp@@6BIChartAddIn135914@@@ ; CChartStyleDataManagerAddInImp::`vftable'
PUBLIC	??_7CChartStyleDataManagerAddInImp@@6B@		; CChartStyleDataManagerAddInImp::`vftable'
PUBLIC	??_C@_0BA@ENJOCHIO@LoadResourceDLL@		; `string'
PUBLIC	??_7?$CList@V?$CStringT@DV?$StrTraitMFC_DLL@DV?$ChTraitsCRT@D@ATL@@@@@ATL@@V12@@@6B@ ; CList<ATL::CStringT<char,StrTraitMFC_DLL<char,ATL::ChTraitsCRT<char> > >,ATL::CStringT<char,StrTraitMFC_DLL<char,ATL::ChTraitsCRT<char> > > >::`vftable'
PUBLIC	??_R4IStyleManager@@6B@				; IStyleManager::`RTTI Complete Object Locator'
PUBLIC	??_R0?AUIStyleManager@@@8			; IStyleManager `RTTI Type Descriptor'
PUBLIC	??_R3IStyleManager@@8				; IStyleManager::`RTTI Class Hierarchy Descriptor'
PUBLIC	??_R2IStyleManager@@8				; IStyleManager::`RTTI Base Class Array'
PUBLIC	??_R1A@?0A@EA@IStyleManager@@8			; IStyleManager::`RTTI Base Class Descriptor at (0,-1,0,64)'
PUBLIC	??_R0?AUIChartAddIn135914@@@8			; IChartAddIn135914 `RTTI Type Descriptor'
PUBLIC	??_R3IChartAddIn135914@@8			; IChartAddIn135914::`RTTI Class Hierarchy Descriptor'
PUBLIC	??_R2IChartAddIn135914@@8			; IChartAddIn135914::`RTTI Base Class Array'
PUBLIC	??_R1A@?0A@EA@IChartAddIn135914@@8		; IChartAddIn135914::`RTTI Base Class Descriptor at (0,-1,0,64)'
PUBLIC	??_R4CChartStyleDataManagerAddInImp@@6BCIWUnknown@@@ ; CChartStyleDataManagerAddInImp::`RTTI Complete Object Locator'
PUBLIC	??_R0?AVCChartStyleDataManagerAddInImp@@@8	; CChartStyleDataManagerAddInImp `RTTI Type Descriptor'
PUBLIC	??_R3CChartStyleDataManagerAddInImp@@8		; CChartStyleDataManagerAddInImp::`RTTI Class Hierarchy Descriptor'
PUBLIC	??_R2CChartStyleDataManagerAddInImp@@8		; CChartStyleDataManagerAddInImp::`RTTI Base Class Array'
PUBLIC	??_R1A@?0A@EA@CChartStyleDataManagerAddInImp@@8	; CChartStyleDataManagerAddInImp::`RTTI Base Class Descriptor at (0,-1,0,64)'
PUBLIC	??_R1A@?0A@EA@CChartAddInBase135914@@8		; CChartAddInBase135914::`RTTI Base Class Descriptor at (0,-1,0,64)'
PUBLIC	??_R0?AVCChartAddInBase135914@@@8		; CChartAddInBase135914 `RTTI Type Descriptor'
PUBLIC	??_R3CChartAddInBase135914@@8			; CChartAddInBase135914::`RTTI Class Hierarchy Descriptor'
PUBLIC	??_R2CChartAddInBase135914@@8			; CChartAddInBase135914::`RTTI Base Class Array'
PUBLIC	??_R1A@?0A@EA@CIWUnknown@@8			; CIWUnknown::`RTTI Base Class Descriptor at (0,-1,0,64)'
PUBLIC	??_R0?AVCIWUnknown@@@8				; CIWUnknown `RTTI Type Descriptor'
PUBLIC	??_R3CIWUnknown@@8				; CIWUnknown::`RTTI Class Hierarchy Descriptor'
PUBLIC	??_R2CIWUnknown@@8				; CIWUnknown::`RTTI Base Class Array'
PUBLIC	??_R17?0A@EA@IChartAddIn135914@@8		; IChartAddIn135914::`RTTI Base Class Descriptor at (8,-1,0,64)'
PUBLIC	??_R17?0A@EA@IUnknown@@8			; IUnknown::`RTTI Base Class Descriptor at (8,-1,0,64)'
PUBLIC	??_R17?0A@EC@IUnknown@@8			; IUnknown::`RTTI Base Class Descriptor at (8,-1,0,66)'
PUBLIC	??_R1DA@?0A@EA@IStyleManager@@8			; IStyleManager::`RTTI Base Class Descriptor at (48,-1,0,64)'
PUBLIC	??_R1DA@?0A@EC@IUnknown@@8			; IUnknown::`RTTI Base Class Descriptor at (48,-1,0,66)'
PUBLIC	??_R4CChartStyleDataManagerAddInImp@@6BIChartAddIn135914@@@ ; CChartStyleDataManagerAddInImp::`RTTI Complete Object Locator'
PUBLIC	??_R4CChartStyleDataManagerAddInImp@@6B@	; CChartStyleDataManagerAddInImp::`RTTI Complete Object Locator'
PUBLIC	??_R4?$CList@V?$CStringT@DV?$StrTraitMFC_DLL@DV?$ChTraitsCRT@D@ATL@@@@@ATL@@V12@@@6B@ ; CList<ATL::CStringT<char,StrTraitMFC_DLL<char,ATL::ChTraitsCRT<char> > >,ATL::CStringT<char,StrTraitMFC_DLL<char,ATL::ChTraitsCRT<char> > > >::`RTTI Complete Object Locator'
PUBLIC	??_R0?AV?$CList@V?$CStringT@DV?$StrTraitMFC_DLL@DV?$ChTraitsCRT@D@ATL@@@@@ATL@@V12@@@@8 ; CList<ATL::CStringT<char,StrTraitMFC_DLL<char,ATL::ChTraitsCRT<char> > >,ATL::CStringT<char,StrTraitMFC_DLL<char,ATL::ChTraitsCRT<char> > > > `RTTI Type Descriptor'
PUBLIC	??_R3?$CList@V?$CStringT@DV?$StrTraitMFC_DLL@DV?$ChTraitsCRT@D@ATL@@@@@ATL@@V12@@@8 ; CList<ATL::CStringT<char,StrTraitMFC_DLL<char,ATL::ChTraitsCRT<char> > >,ATL::CStringT<char,StrTraitMFC_DLL<char,ATL::ChTraitsCRT<char> > > >::`RTTI Class Hierarchy Descriptor'
PUBLIC	??_R2?$CList@V?$CStringT@DV?$StrTraitMFC_DLL@DV?$ChTraitsCRT@D@ATL@@@@@ATL@@V12@@@8 ; CList<ATL::CStringT<char,StrTraitMFC_DLL<char,ATL::ChTraitsCRT<char> > >,ATL::CStringT<char,StrTraitMFC_DLL<char,ATL::ChTraitsCRT<char> > > >::`RTTI Base Class Array'
PUBLIC	??_R1A@?0A@EA@?$CList@V?$CStringT@DV?$StrTraitMFC_DLL@DV?$ChTraitsCRT@D@ATL@@@@@ATL@@V12@@@8 ; CList<ATL::CStringT<char,StrTraitMFC_DLL<char,ATL::ChTraitsCRT<char> > >,ATL::CStringT<char,StrTraitMFC_DLL<char,ATL::ChTraitsCRT<char> > > >::`RTTI Base Class Descriptor at (0,-1,0,64)'
EXTRN	??_L@YGXPAXIIP6EX0@Z1@Z:PROC			; `eh vector constructor iterator'
EXTRN	??_M@YGXPAXIIP6EX0@Z@Z:PROC			; `eh vector destructor iterator'
EXTRN	__purecall:PROC
EXTRN	??3@YAXPAX@Z:PROC				; operator delete
EXTRN	??3@YAXPAXI@Z:PROC				; operator delete
EXTRN	?__global_delete@@YAXPAXI@Z:PROC		; __global_delete
EXTRN	_atexit:PROC
EXTRN	__Init_thread_header:PROC
EXTRN	__Init_thread_footer:PROC
EXTRN	___std_terminate:PROC
EXTRN	__imp__GetProcAddress@8:PROC
EXTRN	?AfxThrowInvalidArgException@@YGXXZ:PROC	; AfxThrowInvalidArgException
EXTRN	?GetRuntimeClass@CObject@@UBEPAUCRuntimeClass@@XZ:PROC ; CObject::GetRuntimeClass
EXTRN	__imp_?Empty@?$CSimpleStringT@D$00@ATL@@QAEXXZ:PROC
EXTRN	__imp_??0?$CStringT@DV?$StrTraitMFC_DLL@DV?$ChTraitsCRT@D@ATL@@@@@ATL@@QAE@XZ:PROC
EXTRN	__imp_??0?$CStringT@DV?$StrTraitMFC_DLL@DV?$ChTraitsCRT@D@ATL@@@@@ATL@@QAE@ABV01@@Z:PROC
EXTRN	__imp_??0?$CStringT@DV?$StrTraitMFC_DLL@DV?$ChTraitsCRT@D@ATL@@@@@ATL@@QAE@PBD@Z:PROC
EXTRN	__imp_??1?$CStringT@DV?$StrTraitMFC_DLL@DV?$ChTraitsCRT@D@ATL@@@@@ATL@@QAE@XZ:PROC
EXTRN	__imp_??4?$CStringT@DV?$StrTraitMFC_DLL@DV?$ChTraitsCRT@D@ATL@@@@@ATL@@QAEAAV01@ABV01@@Z:PROC
EXTRN	?ReadCount@CArchive@@QAEKXZ:PROC		; CArchive::ReadCount
EXTRN	?WriteCount@CArchive@@QAEXK@Z:PROC		; CArchive::WriteCount
EXTRN	??1CDWordArray@@UAE@XZ:PROC			; CDWordArray::~CDWordArray
EXTRN	?AfxGetModuleState@@YGPAVAFX_MODULE_STATE@@XZ:PROC ; AfxGetModuleState
EXTRN	?AfxGetStaticModuleState@@YGPAVAFX_MODULE_STATE@@XZ:PROC ; AfxGetStaticModuleState
EXTRN	?Create@CPlex@@SGPAU1@AAPAU1@II@Z:PROC		; CPlex::Create
EXTRN	?FreeDataChain@CPlex@@QAEXXZ:PROC		; CPlex::FreeDataChain
EXTRN	??$SerializeElements@V?$CStringT@DV?$StrTraitMFC_DLL@DV?$ChTraitsCRT@D@ATL@@@@@ATL@@@@YGXAAVCArchive@@PAV?$CStringT@DV?$StrTraitMFC_DLL@DV?$ChTraitsCRT@D@ATL@@@@@ATL@@H@Z:PROC ; SerializeElements<ATL::CStringT<char,StrTraitMFC_DLL<char,ATL::ChTraitsCRT<char> > > >
EXTRN	?FromHandle@CGdiObject@@SGPAV1@PAX@Z:PROC	; CGdiObject::FromHandle
EXTRN	?FromHandle@CDC@@SGPAV1@PAUHDC__@@@Z:PROC	; CDC::FromHandle
EXTRN	??_EIStyleManager@@MAEPAXI@Z:PROC		; IStyleManager::`vector deleting destructor'
EXTRN	?AddRef@CIWUnknown@@MAGKXZ:PROC			; CIWUnknown::AddRef
EXTRN	?Release@CIWUnknown@@MAGKXZ:PROC		; CIWUnknown::Release
EXTRN	??0CChartAddInBase135914@@IAE@PAUIChartOCX135914@@PAUIAddInDllBase@@@Z:PROC ; CChartAddInBase135914::CChartAddInBase135914
EXTRN	??1CChartAddInBase135914@@MAE@XZ:PROC		; CChartAddInBase135914::~CChartAddInBase135914
EXTRN	?HasFullManager@CChartAddInBase135914@@MAEHXZ:PROC ; CChartAddInBase135914::HasFullManager
EXTRN	?RegisterEventMap@CChartAddInBase135914@@UAEHH@Z:PROC ; CChartAddInBase135914::RegisterEventMap
EXTRN	?UnregisterEventMap@CChartAddInBase135914@@UAEHXZ:PROC ; CChartAddInBase135914::UnregisterEventMap
EXTRN	??0CStyleDataManager@@QAE@XZ:PROC		; CStyleDataManager::CStyleDataManager
EXTRN	??1CStyleDataManager@@UAE@XZ:PROC		; CStyleDataManager::~CStyleDataManager
EXTRN	?SetStyleDataToOCX@CStyleDataManager@@SAXAAVCStyleData@@PAUIChartOCX135914@@HHHH@Z:PROC ; CStyleDataManager::SetStyleDataToOCX
EXTRN	?SetStyleDataToIndex@CStyleDataManager@@SAXAAVCStyleData@@PAUIChartOCX135914@@PBD@Z:PROC ; CStyleDataManager::SetStyleDataToIndex
EXTRN	?Initialize@CStyleDataManager@@QAEHPAUIChartOCX135914@@H@Z:PROC ; CStyleDataManager::Initialize
EXTRN	?GetDataCount@CStyleDataManager@@QAEHH@Z:PROC	; CStyleDataManager::GetDataCount
EXTRN	?GetStyleData@CStyleDataManager@@QAEPAVCStyleData@@HH@Z:PROC ; CStyleDataManager::GetStyleData
EXTRN	?CreateDummyUserStyle@CStyleDataManager@@QAEXPAUIChartOCX135914@@@Z:PROC ; CStyleDataManager::CreateDummyUserStyle
EXTRN	?GetStyleDataFromOCX@CStyleDataManager@@QAEXAAVCStyleData@@PAUIChartOCX135914@@H@Z:PROC ; CStyleDataManager::GetStyleDataFromOCX
EXTRN	?DrawSampleImage@CStyleDataManager@@QAEXPAVCDC@@VCRect@@PAVCStyleData@@W4CHART_MODE@CChartInfo@@PAVCFont@@PAUHWND__@@H@Z:PROC ; CStyleDataManager::DrawSampleImage
EXTRN	??_ECChartStyleDataManagerAddInImp@@UAEPAXI@Z:PROC ; CChartStyleDataManagerAddInImp::`vector deleting destructor'
EXTRN	??_E?$CList@V?$CStringT@DV?$StrTraitMFC_DLL@DV?$ChTraitsCRT@D@ATL@@@@@ATL@@V12@@@UAEPAXI@Z:PROC ; CList<ATL::CStringT<char,StrTraitMFC_DLL<char,ATL::ChTraitsCRT<char> > >,ATL::CStringT<char,StrTraitMFC_DLL<char,ATL::ChTraitsCRT<char> > > >::`vector deleting destructor'
EXTRN	??0CStyleData@@QAE@ABV0@@Z:PROC			; CStyleData::CStyleData
EXTRN	?GetStyleName@CStyleData@@QBE?AV?$CStringT@DV?$StrTraitMFC_DLL@DV?$ChTraitsCRT@D@ATL@@@@@ATL@@XZ:PROC ; CStyleData::GetStyleName
EXTRN	@__security_check_cookie@4:PROC
EXTRN	___CxxFrameHandler3:PROC
EXTRN	__Init_thread_epoch:DWORD
EXTRN	??_7type_info@@6B@:QWORD			; type_info::`vftable'
EXTRN	?g_iMetaTable@@3VIMetaTable@@A:BYTE		; g_iMetaTable
EXTRN	___security_cookie:DWORD
EXTRN	__tls_array:DWORD
EXTRN	__tls_index:DWORD
_BSS	SEGMENT
?m_strAddInItemName@CChartStyleDataManagerAddInImp@@2V?$CStringT@DV?$StrTraitMFC_DLL@DV?$ChTraitsCRT@D@ATL@@@@@ATL@@A DD 01H DUP (?) ; CChartStyleDataManagerAddInImp::m_strAddInItemName
_BSS	ENDS
;	COMDAT ?strResult@?1??GetStyleName@CChartStyleDataManagerAddInImp@@MAEPBDH@Z@4V?$CStringT@DV?$StrTraitMFC_DLL@DV?$ChTraitsCRT@D@ATL@@@@@ATL@@A
_BSS	SEGMENT
?strResult@?1??GetStyleName@CChartStyleDataManagerAddInImp@@MAEPBDH@Z@4V?$CStringT@DV?$StrTraitMFC_DLL@DV?$ChTraitsCRT@D@ATL@@@@@ATL@@A DD 01H DUP (?) ; `CChartStyleDataManagerAddInImp::GetStyleName'::`2'::strResult
_BSS	ENDS
;	COMDAT ?$TSS0@?1??GetStyleName@CChartStyleDataManagerAddInImp@@MAEPBDH@Z@4HA
_BSS	SEGMENT
?$TSS0@?1??GetStyleName@CChartStyleDataManagerAddInImp@@MAEPBDH@Z@4HA DD 01H DUP (?) ; `CChartStyleDataManagerAddInImp::GetStyleName'::`2'::$TSS0
_BSS	ENDS
CRT$XCU	SEGMENT
??m_strAddInItemName$initializer$@CChartStyleDataManagerAddInImp@@2P6AXXZA@@3P6AXXZA DD FLAT:??__E?m_strAddInItemName@CChartStyleDataManagerAddInImp@@2V?$CStringT@DV?$StrTraitMFC_DLL@DV?$ChTraitsCRT@D@ATL@@@@@ATL@@A@@YAXXZ ; ??m_strAddInItemName$initializer$@CChartStyleDataManagerAddInImp@@2P6AXXZA@@3P6AXXZA
CRT$XCU	ENDS
;	COMDAT ??_R1A@?0A@EA@?$CList@V?$CStringT@DV?$StrTraitMFC_DLL@DV?$ChTraitsCRT@D@ATL@@@@@ATL@@V12@@@8
rdata$r	SEGMENT
??_R1A@?0A@EA@?$CList@V?$CStringT@DV?$StrTraitMFC_DLL@DV?$ChTraitsCRT@D@ATL@@@@@ATL@@V12@@@8 DD FLAT:??_R0?AV?$CList@V?$CStringT@DV?$StrTraitMFC_DLL@DV?$ChTraitsCRT@D@ATL@@@@@ATL@@V12@@@@8 ; CList<ATL::CStringT<char,StrTraitMFC_DLL<char,ATL::ChTraitsCRT<char> > >,ATL::CStringT<char,StrTraitMFC_DLL<char,ATL::ChTraitsCRT<char> > > >::`RTTI Base Class Descriptor at (0,-1,0,64)'
	DD	01H
	DD	00H
	DD	0ffffffffH
	DD	00H
	DD	040H
	DD	FLAT:??_R3?$CList@V?$CStringT@DV?$StrTraitMFC_DLL@DV?$ChTraitsCRT@D@ATL@@@@@ATL@@V12@@@8
rdata$r	ENDS
;	COMDAT ??_R2?$CList@V?$CStringT@DV?$StrTraitMFC_DLL@DV?$ChTraitsCRT@D@ATL@@@@@ATL@@V12@@@8
rdata$r	SEGMENT
??_R2?$CList@V?$CStringT@DV?$StrTraitMFC_DLL@DV?$ChTraitsCRT@D@ATL@@@@@ATL@@V12@@@8 DD FLAT:??_R1A@?0A@EA@?$CList@V?$CStringT@DV?$StrTraitMFC_DLL@DV?$ChTraitsCRT@D@ATL@@@@@ATL@@V12@@@8 ; CList<ATL::CStringT<char,StrTraitMFC_DLL<char,ATL::ChTraitsCRT<char> > >,ATL::CStringT<char,StrTraitMFC_DLL<char,ATL::ChTraitsCRT<char> > > >::`RTTI Base Class Array'
	DD	FLAT:??_R1A@?0A@EA@CObject@@8
rdata$r	ENDS
;	COMDAT ??_R3?$CList@V?$CStringT@DV?$StrTraitMFC_DLL@DV?$ChTraitsCRT@D@ATL@@@@@ATL@@V12@@@8
rdata$r	SEGMENT
??_R3?$CList@V?$CStringT@DV?$StrTraitMFC_DLL@DV?$ChTraitsCRT@D@ATL@@@@@ATL@@V12@@@8 DD 00H ; CList<ATL::CStringT<char,StrTraitMFC_DLL<char,ATL::ChTraitsCRT<char> > >,ATL::CStringT<char,StrTraitMFC_DLL<char,ATL::ChTraitsCRT<char> > > >::`RTTI Class Hierarchy Descriptor'
	DD	00H
	DD	02H
	DD	FLAT:??_R2?$CList@V?$CStringT@DV?$StrTraitMFC_DLL@DV?$ChTraitsCRT@D@ATL@@@@@ATL@@V12@@@8
rdata$r	ENDS
;	COMDAT ??_R0?AV?$CList@V?$CStringT@DV?$StrTraitMFC_DLL@DV?$ChTraitsCRT@D@ATL@@@@@ATL@@V12@@@@8
data$rs	SEGMENT
??_R0?AV?$CList@V?$CStringT@DV?$StrTraitMFC_DLL@DV?$ChTraitsCRT@D@ATL@@@@@ATL@@V12@@@@8 DD FLAT:??_7type_info@@6B@ ; CList<ATL::CStringT<char,StrTraitMFC_DLL<char,ATL::ChTraitsCRT<char> > >,ATL::CStringT<char,StrTraitMFC_DLL<char,ATL::ChTraitsCRT<char> > > > `RTTI Type Descriptor'
	DD	00H
	DB	'.?AV?$CList@V?$CStringT@DV?$StrTraitMFC_DLL@DV?$ChTraits'
	DB	'CRT@D@ATL@@@@@ATL@@V12@@@', 00H
data$rs	ENDS
;	COMDAT ??_R4?$CList@V?$CStringT@DV?$StrTraitMFC_DLL@DV?$ChTraitsCRT@D@ATL@@@@@ATL@@V12@@@6B@
rdata$r	SEGMENT
??_R4?$CList@V?$CStringT@DV?$StrTraitMFC_DLL@DV?$ChTraitsCRT@D@ATL@@@@@ATL@@V12@@@6B@ DD 00H ; CList<ATL::CStringT<char,StrTraitMFC_DLL<char,ATL::ChTraitsCRT<char> > >,ATL::CStringT<char,StrTraitMFC_DLL<char,ATL::ChTraitsCRT<char> > > >::`RTTI Complete Object Locator'
	DD	00H
	DD	00H
	DD	FLAT:??_R0?AV?$CList@V?$CStringT@DV?$StrTraitMFC_DLL@DV?$ChTraitsCRT@D@ATL@@@@@ATL@@V12@@@@8
	DD	FLAT:??_R3?$CList@V?$CStringT@DV?$StrTraitMFC_DLL@DV?$ChTraitsCRT@D@ATL@@@@@ATL@@V12@@@8
rdata$r	ENDS
;	COMDAT ??_R4CChartStyleDataManagerAddInImp@@6B@
rdata$r	SEGMENT
??_R4CChartStyleDataManagerAddInImp@@6B@ DD 00H		; CChartStyleDataManagerAddInImp::`RTTI Complete Object Locator'
	DD	030H
	DD	00H
	DD	FLAT:??_R0?AVCChartStyleDataManagerAddInImp@@@8
	DD	FLAT:??_R3CChartStyleDataManagerAddInImp@@8
rdata$r	ENDS
;	COMDAT ??_R4CChartStyleDataManagerAddInImp@@6BIChartAddIn135914@@@
rdata$r	SEGMENT
??_R4CChartStyleDataManagerAddInImp@@6BIChartAddIn135914@@@ DD 00H ; CChartStyleDataManagerAddInImp::`RTTI Complete Object Locator'
	DD	08H
	DD	00H
	DD	FLAT:??_R0?AVCChartStyleDataManagerAddInImp@@@8
	DD	FLAT:??_R3CChartStyleDataManagerAddInImp@@8
rdata$r	ENDS
;	COMDAT ??_R1DA@?0A@EC@IUnknown@@8
rdata$r	SEGMENT
??_R1DA@?0A@EC@IUnknown@@8 DD FLAT:??_R0?AUIUnknown@@@8	; IUnknown::`RTTI Base Class Descriptor at (48,-1,0,66)'
	DD	00H
	DD	030H
	DD	0ffffffffH
	DD	00H
	DD	042H
	DD	FLAT:??_R3IUnknown@@8
rdata$r	ENDS
;	COMDAT ??_R1DA@?0A@EA@IStyleManager@@8
rdata$r	SEGMENT
??_R1DA@?0A@EA@IStyleManager@@8 DD FLAT:??_R0?AUIStyleManager@@@8 ; IStyleManager::`RTTI Base Class Descriptor at (48,-1,0,64)'
	DD	01H
	DD	030H
	DD	0ffffffffH
	DD	00H
	DD	040H
	DD	FLAT:??_R3IStyleManager@@8
rdata$r	ENDS
;	COMDAT ??_R17?0A@EC@IUnknown@@8
rdata$r	SEGMENT
??_R17?0A@EC@IUnknown@@8 DD FLAT:??_R0?AUIUnknown@@@8	; IUnknown::`RTTI Base Class Descriptor at (8,-1,0,66)'
	DD	00H
	DD	08H
	DD	0ffffffffH
	DD	00H
	DD	042H
	DD	FLAT:??_R3IUnknown@@8
rdata$r	ENDS
;	COMDAT ??_R17?0A@EA@IUnknown@@8
rdata$r	SEGMENT
??_R17?0A@EA@IUnknown@@8 DD FLAT:??_R0?AUIUnknown@@@8	; IUnknown::`RTTI Base Class Descriptor at (8,-1,0,64)'
	DD	00H
	DD	08H
	DD	0ffffffffH
	DD	00H
	DD	040H
	DD	FLAT:??_R3IUnknown@@8
rdata$r	ENDS
;	COMDAT ??_R17?0A@EA@IChartAddIn135914@@8
rdata$r	SEGMENT
??_R17?0A@EA@IChartAddIn135914@@8 DD FLAT:??_R0?AUIChartAddIn135914@@@8 ; IChartAddIn135914::`RTTI Base Class Descriptor at (8,-1,0,64)'
	DD	01H
	DD	08H
	DD	0ffffffffH
	DD	00H
	DD	040H
	DD	FLAT:??_R3IChartAddIn135914@@8
rdata$r	ENDS
;	COMDAT ??_R2CIWUnknown@@8
rdata$r	SEGMENT
??_R2CIWUnknown@@8 DD FLAT:??_R1A@?0A@EA@CIWUnknown@@8	; CIWUnknown::`RTTI Base Class Array'
	DD	FLAT:??_R1A@?0A@EA@CObject@@8
rdata$r	ENDS
;	COMDAT ??_R3CIWUnknown@@8
rdata$r	SEGMENT
??_R3CIWUnknown@@8 DD 00H				; CIWUnknown::`RTTI Class Hierarchy Descriptor'
	DD	00H
	DD	02H
	DD	FLAT:??_R2CIWUnknown@@8
rdata$r	ENDS
;	COMDAT ??_R0?AVCIWUnknown@@@8
data$rs	SEGMENT
??_R0?AVCIWUnknown@@@8 DD FLAT:??_7type_info@@6B@	; CIWUnknown `RTTI Type Descriptor'
	DD	00H
	DB	'.?AVCIWUnknown@@', 00H
data$rs	ENDS
;	COMDAT ??_R1A@?0A@EA@CIWUnknown@@8
rdata$r	SEGMENT
??_R1A@?0A@EA@CIWUnknown@@8 DD FLAT:??_R0?AVCIWUnknown@@@8 ; CIWUnknown::`RTTI Base Class Descriptor at (0,-1,0,64)'
	DD	01H
	DD	00H
	DD	0ffffffffH
	DD	00H
	DD	040H
	DD	FLAT:??_R3CIWUnknown@@8
rdata$r	ENDS
;	COMDAT ??_R2CChartAddInBase135914@@8
rdata$r	SEGMENT
??_R2CChartAddInBase135914@@8 DD FLAT:??_R1A@?0A@EA@CChartAddInBase135914@@8 ; CChartAddInBase135914::`RTTI Base Class Array'
	DD	FLAT:??_R1A@?0A@EA@CIWUnknown@@8
	DD	FLAT:??_R1A@?0A@EA@CObject@@8
	DD	FLAT:??_R17?0A@EA@IChartAddIn135914@@8
	DD	FLAT:??_R17?0A@EA@IUnknown@@8
rdata$r	ENDS
;	COMDAT ??_R3CChartAddInBase135914@@8
rdata$r	SEGMENT
??_R3CChartAddInBase135914@@8 DD 00H			; CChartAddInBase135914::`RTTI Class Hierarchy Descriptor'
	DD	01H
	DD	05H
	DD	FLAT:??_R2CChartAddInBase135914@@8
rdata$r	ENDS
;	COMDAT ??_R0?AVCChartAddInBase135914@@@8
data$rs	SEGMENT
??_R0?AVCChartAddInBase135914@@@8 DD FLAT:??_7type_info@@6B@ ; CChartAddInBase135914 `RTTI Type Descriptor'
	DD	00H
	DB	'.?AVCChartAddInBase135914@@', 00H
data$rs	ENDS
;	COMDAT ??_R1A@?0A@EA@CChartAddInBase135914@@8
rdata$r	SEGMENT
??_R1A@?0A@EA@CChartAddInBase135914@@8 DD FLAT:??_R0?AVCChartAddInBase135914@@@8 ; CChartAddInBase135914::`RTTI Base Class Descriptor at (0,-1,0,64)'
	DD	04H
	DD	00H
	DD	0ffffffffH
	DD	00H
	DD	040H
	DD	FLAT:??_R3CChartAddInBase135914@@8
rdata$r	ENDS
;	COMDAT ??_R1A@?0A@EA@CChartStyleDataManagerAddInImp@@8
rdata$r	SEGMENT
??_R1A@?0A@EA@CChartStyleDataManagerAddInImp@@8 DD FLAT:??_R0?AVCChartStyleDataManagerAddInImp@@@8 ; CChartStyleDataManagerAddInImp::`RTTI Base Class Descriptor at (0,-1,0,64)'
	DD	07H
	DD	00H
	DD	0ffffffffH
	DD	00H
	DD	040H
	DD	FLAT:??_R3CChartStyleDataManagerAddInImp@@8
rdata$r	ENDS
;	COMDAT ??_R2CChartStyleDataManagerAddInImp@@8
rdata$r	SEGMENT
??_R2CChartStyleDataManagerAddInImp@@8 DD FLAT:??_R1A@?0A@EA@CChartStyleDataManagerAddInImp@@8 ; CChartStyleDataManagerAddInImp::`RTTI Base Class Array'
	DD	FLAT:??_R1A@?0A@EA@CChartAddInBase135914@@8
	DD	FLAT:??_R1A@?0A@EA@CIWUnknown@@8
	DD	FLAT:??_R1A@?0A@EA@CObject@@8
	DD	FLAT:??_R17?0A@EA@IChartAddIn135914@@8
	DD	FLAT:??_R17?0A@EC@IUnknown@@8
	DD	FLAT:??_R1DA@?0A@EA@IStyleManager@@8
	DD	FLAT:??_R1DA@?0A@EC@IUnknown@@8
rdata$r	ENDS
;	COMDAT ??_R3CChartStyleDataManagerAddInImp@@8
rdata$r	SEGMENT
??_R3CChartStyleDataManagerAddInImp@@8 DD 00H		; CChartStyleDataManagerAddInImp::`RTTI Class Hierarchy Descriptor'
	DD	05H
	DD	08H
	DD	FLAT:??_R2CChartStyleDataManagerAddInImp@@8
rdata$r	ENDS
;	COMDAT ??_R0?AVCChartStyleDataManagerAddInImp@@@8
data$rs	SEGMENT
??_R0?AVCChartStyleDataManagerAddInImp@@@8 DD FLAT:??_7type_info@@6B@ ; CChartStyleDataManagerAddInImp `RTTI Type Descriptor'
	DD	00H
	DB	'.?AVCChartStyleDataManagerAddInImp@@', 00H
data$rs	ENDS
;	COMDAT ??_R4CChartStyleDataManagerAddInImp@@6BCIWUnknown@@@
rdata$r	SEGMENT
??_R4CChartStyleDataManagerAddInImp@@6BCIWUnknown@@@ DD 00H ; CChartStyleDataManagerAddInImp::`RTTI Complete Object Locator'
	DD	00H
	DD	00H
	DD	FLAT:??_R0?AVCChartStyleDataManagerAddInImp@@@8
	DD	FLAT:??_R3CChartStyleDataManagerAddInImp@@8
rdata$r	ENDS
;	COMDAT ??_R1A@?0A@EA@IChartAddIn135914@@8
rdata$r	SEGMENT
??_R1A@?0A@EA@IChartAddIn135914@@8 DD FLAT:??_R0?AUIChartAddIn135914@@@8 ; IChartAddIn135914::`RTTI Base Class Descriptor at (0,-1,0,64)'
	DD	01H
	DD	00H
	DD	0ffffffffH
	DD	00H
	DD	040H
	DD	FLAT:??_R3IChartAddIn135914@@8
rdata$r	ENDS
;	COMDAT ??_R2IChartAddIn135914@@8
rdata$r	SEGMENT
??_R2IChartAddIn135914@@8 DD FLAT:??_R1A@?0A@EA@IChartAddIn135914@@8 ; IChartAddIn135914::`RTTI Base Class Array'
	DD	FLAT:??_R1A@?0A@EA@IUnknown@@8
rdata$r	ENDS
;	COMDAT ??_R3IChartAddIn135914@@8
rdata$r	SEGMENT
??_R3IChartAddIn135914@@8 DD 00H			; IChartAddIn135914::`RTTI Class Hierarchy Descriptor'
	DD	00H
	DD	02H
	DD	FLAT:??_R2IChartAddIn135914@@8
rdata$r	ENDS
;	COMDAT ??_R0?AUIChartAddIn135914@@@8
data$rs	SEGMENT
??_R0?AUIChartAddIn135914@@@8 DD FLAT:??_7type_info@@6B@ ; IChartAddIn135914 `RTTI Type Descriptor'
	DD	00H
	DB	'.?AUIChartAddIn135914@@', 00H
data$rs	ENDS
;	COMDAT ??_R1A@?0A@EA@IStyleManager@@8
rdata$r	SEGMENT
??_R1A@?0A@EA@IStyleManager@@8 DD FLAT:??_R0?AUIStyleManager@@@8 ; IStyleManager::`RTTI Base Class Descriptor at (0,-1,0,64)'
	DD	01H
	DD	00H
	DD	0ffffffffH
	DD	00H
	DD	040H
	DD	FLAT:??_R3IStyleManager@@8
rdata$r	ENDS
;	COMDAT ??_R2IStyleManager@@8
rdata$r	SEGMENT
??_R2IStyleManager@@8 DD FLAT:??_R1A@?0A@EA@IStyleManager@@8 ; IStyleManager::`RTTI Base Class Array'
	DD	FLAT:??_R1A@?0A@EA@IUnknown@@8
rdata$r	ENDS
;	COMDAT ??_R3IStyleManager@@8
rdata$r	SEGMENT
??_R3IStyleManager@@8 DD 00H				; IStyleManager::`RTTI Class Hierarchy Descriptor'
	DD	00H
	DD	02H
	DD	FLAT:??_R2IStyleManager@@8
rdata$r	ENDS
;	COMDAT ??_R0?AUIStyleManager@@@8
data$rs	SEGMENT
??_R0?AUIStyleManager@@@8 DD FLAT:??_7type_info@@6B@	; IStyleManager `RTTI Type Descriptor'
	DD	00H
	DB	'.?AUIStyleManager@@', 00H
data$rs	ENDS
;	COMDAT ??_R4IStyleManager@@6B@
rdata$r	SEGMENT
??_R4IStyleManager@@6B@ DD 00H				; IStyleManager::`RTTI Complete Object Locator'
	DD	00H
	DD	00H
	DD	FLAT:??_R0?AUIStyleManager@@@8
	DD	FLAT:??_R3IStyleManager@@8
rdata$r	ENDS
;	COMDAT ??_7?$CList@V?$CStringT@DV?$StrTraitMFC_DLL@DV?$ChTraitsCRT@D@ATL@@@@@ATL@@V12@@@6B@
CONST	SEGMENT
??_7?$CList@V?$CStringT@DV?$StrTraitMFC_DLL@DV?$ChTraitsCRT@D@ATL@@@@@ATL@@V12@@@6B@ DD FLAT:??_R4?$CList@V?$CStringT@DV?$StrTraitMFC_DLL@DV?$ChTraitsCRT@D@ATL@@@@@ATL@@V12@@@6B@ ; CList<ATL::CStringT<char,StrTraitMFC_DLL<char,ATL::ChTraitsCRT<char> > >,ATL::CStringT<char,StrTraitMFC_DLL<char,ATL::ChTraitsCRT<char> > > >::`vftable'
	DD	FLAT:?GetRuntimeClass@CObject@@UBEPAUCRuntimeClass@@XZ
	DD	FLAT:??_E?$CList@V?$CStringT@DV?$StrTraitMFC_DLL@DV?$ChTraitsCRT@D@ATL@@@@@ATL@@V12@@@UAEPAXI@Z
	DD	FLAT:?Serialize@?$CList@V?$CStringT@DV?$StrTraitMFC_DLL@DV?$ChTraitsCRT@D@ATL@@@@@ATL@@V12@@@UAEXAAVCArchive@@@Z
	DD	FLAT:?AssertValid@CObject@@UBEXXZ
	DD	FLAT:?Dump@CObject@@UBEXAAVCDumpContext@@@Z
CONST	ENDS
;	COMDAT ??_C@_0BA@ENJOCHIO@LoadResourceDLL@
CONST	SEGMENT
??_C@_0BA@ENJOCHIO@LoadResourceDLL@ DB 'LoadResourceDLL', 00H ; `string'
CONST	ENDS
;	COMDAT ??_7CChartStyleDataManagerAddInImp@@6B@
CONST	SEGMENT
??_7CChartStyleDataManagerAddInImp@@6B@ DD FLAT:??_R4CChartStyleDataManagerAddInImp@@6B@ ; CChartStyleDataManagerAddInImp::`vftable'
	DD	FLAT:?QueryInterface@CChartStyleDataManagerAddInImp@@ODA@AGJABU_GUID@@PAPAX@Z
	DD	FLAT:?AddRef@CChartStyleDataManagerAddInImp@@ODA@AGKXZ
	DD	FLAT:?Release@CChartStyleDataManagerAddInImp@@ODA@AGKXZ
	DD	FLAT:??_ECChartStyleDataManagerAddInImp@@WDA@AEPAXI@Z
	DD	FLAT:?GetStyleCount@CChartStyleDataManagerAddInImp@@MAEHXZ
	DD	FLAT:?GetStyleName@CChartStyleDataManagerAddInImp@@MAEPBDH@Z
	DD	FLAT:?SetStyleToChart@CChartStyleDataManagerAddInImp@@MAEXH@Z
	DD	FLAT:?LoadCurrentStyle@CChartStyleDataManagerAddInImp@@MAEXXZ
	DD	FLAT:?DrawSampleImage@CChartStyleDataManagerAddInImp@@MAEXPAUHDC__@@HHHHHPAX@Z
	DD	FLAT:?UpdateIndexStyle@CChartStyleDataManagerAddInImp@@MAEXPBDH@Z
CONST	ENDS
;	COMDAT ??_7CChartStyleDataManagerAddInImp@@6BIChartAddIn135914@@@
CONST	SEGMENT
??_7CChartStyleDataManagerAddInImp@@6BIChartAddIn135914@@@ DD FLAT:??_R4CChartStyleDataManagerAddInImp@@6BIChartAddIn135914@@@ ; CChartStyleDataManagerAddInImp::`vftable'
	DD	FLAT:?QueryInterface@CChartStyleDataManagerAddInImp@@O7AGJABU_GUID@@PAPAX@Z
	DD	FLAT:?AddRef@CChartStyleDataManagerAddInImp@@O7AGKXZ
	DD	FLAT:?Release@CChartStyleDataManagerAddInImp@@O7AGKXZ
	DD	FLAT:??_ECChartStyleDataManagerAddInImp@@W7AEPAXI@Z
	DD	FLAT:?HasFullManager@CChartAddInBase135914@@MAEHXZ
	DD	FLAT:?GetAddInCustomInterface@CChartStyleDataManagerAddInImp@@MAEPAUIUnknown@@XZ
	DD	FLAT:?InvokeAddIn@CChartAddInBase135914@@MAEHHJ@Z
	DD	FLAT:?InvokeAddInStr@CChartAddInBase135914@@MAEHPBD0@Z
	DD	FLAT:?GetGlobalAddInEventType@CChartAddInBase135914@@MBE?AW4EAddInEventType@IAddInDllBase@@J@Z
	DD	FLAT:?RegisterEventMap@CChartAddInBase135914@@UAEHH@Z
	DD	FLAT:?UnregisterEventMap@CChartAddInBase135914@@UAEHXZ
	DD	FLAT:?OnGSharedDataChange@CChartAddInBase135914@@MAEXPBD0H@Z
	DD	FLAT:?OnLSharedDataChange@CChartAddInBase135914@@MAEXPBD0@Z
	DD	FLAT:?OnSharedDataChange@CChartAddInBase135914@@MAEXPBD0H@Z
	DD	FLAT:?OnResetChart@CChartAddInBase135914@@MAEXXZ
	DD	FLAT:?OnDrawBeforeGraph@CChartAddInBase135914@@MAEXPAUHDC__@@@Z
	DD	FLAT:?OnDrawAfterGraph@CChartAddInBase135914@@MAEXPAUHDC__@@@Z
	DD	FLAT:?OnPacketData@CChartAddInBase135914@@MAEXPBDH@Z
	DD	FLAT:?OnUpdatePacketData@CChartAddInBase135914@@MAEXH@Z
	DD	FLAT:?OnTimer@CChartAddInBase135914@@MAEXI@Z
	DD	FLAT:?OnCaptureChanged@CChartAddInBase135914@@MAEXPAUHWND__@@@Z
	DD	FLAT:?OnDrdsData@CChartAddInBase135914@@MAEXIJ@Z
	DD	FLAT:?OnDrdsPacketEnd@CChartAddInBase135914@@MAEXIJ@Z
	DD	FLAT:?OnGraphDeleted@CChartAddInBase135914@@MAEXPBD0@Z
	DD	FLAT:?OnCmdMsg@CChartAddInBase135914@@MAEHIHPAUICmdUI135914@@@Z
	DD	FLAT:?OnAddInToolCommand@CChartAddInBase135914@@MAEHAAJW4EAICommandType@@JJ@Z
	DD	FLAT:?OnAddInToolCommand@CChartAddInBase135914@@MAEHAAJW4EAICommandType@@J@Z
	DD	FLAT:?OnAddInToolCommand@CChartAddInBase135914@@MAEHAAJW4EAICommandType@@PBDPAVCObject@@@Z
	DD	FLAT:?OnAddInToolCommand@CChartAddInBase135914@@MAEHAAJW4EAICommandType@@PBD@Z
	DD	FLAT:?OnAddInToolCommand@CChartAddInBase135914@@MAEHAAJW4EAICommandType@@PAUIGraphInfo135914@@@Z
	DD	FLAT:?OnAddInToolCommand@CChartAddInBase135914@@MAEHAAJW4EAICommandType@@@Z
	DD	FLAT:?OnAddInToolCommand@CChartAddInBase135914@@MAEHW4EAICommandType@@PAUHWND__@@AAUtagPOINT@@@Z
	DD	FLAT:?OnAddInToolCommand@CChartAddInBase135914@@MAEHW4EAICommandType@@JJJJJJJJJ@Z
	DD	FLAT:?OnAddInToolCommand@CChartAddInBase135914@@MAEHW4EAICommandType@@JJ@Z
	DD	FLAT:?OnAddInToolCommand@CChartAddInBase135914@@MAEHW4EAICommandType@@JPBD11@Z
	DD	FLAT:?OnAddInToolCommand@CChartAddInBase135914@@MAEHW4EAICommandType@@JPBD@Z
	DD	FLAT:?OnAddInToolCommand@CChartStyleDataManagerAddInImp@@MAEHW4EAICommandType@@J@Z
	DD	FLAT:?OnAddInToolCommand@CChartAddInBase135914@@MAEHW4EAICommandType@@PBUIAddInDllBase@@@Z
	DD	FLAT:?OnAddInToolCommand@CChartAddInBase135914@@MAEHW4EAICommandType@@PBVCBlockBehaviorData@@@Z
	DD	FLAT:?OnAddInToolCommand@CChartAddInBase135914@@MAEHW4EAICommandType@@PBDJ@Z
	DD	FLAT:?OnAddInToolCommand@CChartAddInBase135914@@MAEHW4EAICommandType@@PBD@Z
	DD	FLAT:?OnAddInToolCommand@CChartAddInBase135914@@MAEHW4EAICommandType@@PAUHDC__@@IAAUtagPOINT@@K@Z
	DD	FLAT:?OnAddInToolCommand@CChartAddInBase135914@@MAEHW4EAICommandType@@@Z
	DD	FLAT:?OnKeyDown@CChartAddInBase135914@@MAEHIII@Z
	DD	FLAT:?OnKeyUp@CChartAddInBase135914@@MAEHIII@Z
	DD	FLAT:?OnMouseWheel@CChartAddInBase135914@@MAEHIFUtagPOINT@@K@Z
	DD	FLAT:?OnMouseMove@CChartAddInBase135914@@MAEHPAUHDC__@@IAAUtagPOINT@@K@Z
	DD	FLAT:?OnLButtonDown@CChartAddInBase135914@@MAEHPAUHDC__@@IAAUtagPOINT@@K@Z
	DD	FLAT:?OnLButtonUp@CChartAddInBase135914@@MAEHPAUHDC__@@IAAUtagPOINT@@K@Z
	DD	FLAT:?OnLButtonDblClk@CChartAddInBase135914@@MAEHPAUHDC__@@IAAUtagPOINT@@K@Z
	DD	FLAT:?OnRButtonDown@CChartAddInBase135914@@MAEHPAUHDC__@@IAAUtagPOINT@@K@Z
	DD	FLAT:?OnRButtonUp@CChartAddInBase135914@@MAEHPAUHDC__@@IAAUtagPOINT@@K@Z
	DD	FLAT:?OnRButtonDblClk@CChartAddInBase135914@@MAEHPAUHDC__@@IAAUtagPOINT@@K@Z
CONST	ENDS
;	COMDAT ??_7CChartStyleDataManagerAddInImp@@6BCIWUnknown@@@
CONST	SEGMENT
??_7CChartStyleDataManagerAddInImp@@6BCIWUnknown@@@ DD FLAT:??_R4CChartStyleDataManagerAddInImp@@6BCIWUnknown@@@ ; CChartStyleDataManagerAddInImp::`vftable'
	DD	FLAT:?GetRuntimeClass@CObject@@UBEPAUCRuntimeClass@@XZ
	DD	FLAT:??_ECChartStyleDataManagerAddInImp@@UAEPAXI@Z
	DD	FLAT:?Serialize@CObject@@UAEXAAVCArchive@@@Z
	DD	FLAT:?AssertValid@CObject@@UBEXXZ
	DD	FLAT:?Dump@CObject@@UBEXAAVCDumpContext@@@Z
	DD	FLAT:?AddRef@CChartStyleDataManagerAddInImp@@MAGKXZ
	DD	FLAT:?Release@CChartStyleDataManagerAddInImp@@MAGKXZ
	DD	FLAT:?QueryInterface@CChartStyleDataManagerAddInImp@@MAGJABU_GUID@@PAPAX@Z
	DD	FLAT:?PostConstruct@CIWUnknown@@MAEXXZ
	DD	FLAT:?PreDestructX@CIWUnknown@@MAEXXZ
	DD	FLAT:?PreDestruct@CIWUnknown@@MAEXXZ
	DD	FLAT:?GetRegisteredEventMap@CChartStyleDataManagerAddInImp@@MBEPBW4EAddInEventType@IChartAddIn135914@@XZ
CONST	ENDS
;	COMDAT ??_7IStyleManager@@6B@
CONST	SEGMENT
??_7IStyleManager@@6B@ DD FLAT:??_R4IStyleManager@@6B@	; IStyleManager::`vftable'
	DD	FLAT:__purecall
	DD	FLAT:__purecall
	DD	FLAT:__purecall
	DD	FLAT:??_EIStyleManager@@MAEPAXI@Z
	DD	FLAT:__purecall
	DD	FLAT:__purecall
	DD	FLAT:__purecall
	DD	FLAT:__purecall
	DD	FLAT:__purecall
	DD	FLAT:__purecall
CONST	ENDS
;	COMDAT ??_R1A@?0A@EA@IUnknown@@8
rdata$r	SEGMENT
??_R1A@?0A@EA@IUnknown@@8 DD FLAT:??_R0?AUIUnknown@@@8	; IUnknown::`RTTI Base Class Descriptor at (0,-1,0,64)'
	DD	00H
	DD	00H
	DD	0ffffffffH
	DD	00H
	DD	040H
	DD	FLAT:??_R3IUnknown@@8
rdata$r	ENDS
;	COMDAT ??_R2IUnknown@@8
rdata$r	SEGMENT
??_R2IUnknown@@8 DD FLAT:??_R1A@?0A@EA@IUnknown@@8	; IUnknown::`RTTI Base Class Array'
rdata$r	ENDS
;	COMDAT ??_R3IUnknown@@8
rdata$r	SEGMENT
??_R3IUnknown@@8 DD 00H					; IUnknown::`RTTI Class Hierarchy Descriptor'
	DD	00H
	DD	01H
	DD	FLAT:??_R2IUnknown@@8
rdata$r	ENDS
;	COMDAT ??_R0?AUIUnknown@@@8
data$rs	SEGMENT
??_R0?AUIUnknown@@@8 DD FLAT:??_7type_info@@6B@		; IUnknown `RTTI Type Descriptor'
	DD	00H
	DB	'.?AUIUnknown@@', 00H
data$rs	ENDS
;	COMDAT ??_R1A@?0A@EA@CObject@@8
rdata$r	SEGMENT
??_R1A@?0A@EA@CObject@@8 DD FLAT:??_R0?AVCObject@@@8	; CObject::`RTTI Base Class Descriptor at (0,-1,0,64)'
	DD	00H
	DD	00H
	DD	0ffffffffH
	DD	00H
	DD	040H
	DD	FLAT:??_R3CObject@@8
rdata$r	ENDS
;	COMDAT ??_R2CObject@@8
rdata$r	SEGMENT
??_R2CObject@@8 DD FLAT:??_R1A@?0A@EA@CObject@@8	; CObject::`RTTI Base Class Array'
rdata$r	ENDS
;	COMDAT ??_R3CObject@@8
rdata$r	SEGMENT
??_R3CObject@@8 DD 00H					; CObject::`RTTI Class Hierarchy Descriptor'
	DD	00H
	DD	01H
	DD	FLAT:??_R2CObject@@8
rdata$r	ENDS
;	COMDAT ??_R0?AVCObject@@@8
data$rs	SEGMENT
??_R0?AVCObject@@@8 DD FLAT:??_7type_info@@6B@		; CObject `RTTI Type Descriptor'
	DD	00H
	DB	'.?AVCObject@@', 00H
data$rs	ENDS
;	COMDAT xdata$x
xdata$x	SEGMENT
__unwindtable$?Serialize@?$CList@V?$CStringT@DV?$StrTraitMFC_DLL@DV?$ChTraitsCRT@D@ATL@@@@@ATL@@V12@@@UAEXAAVCArchive@@@Z DD 0ffffffffH
	DD	FLAT:__unwindfunclet$?Serialize@?$CList@V?$CStringT@DV?$StrTraitMFC_DLL@DV?$ChTraitsCRT@D@ATL@@@@@ATL@@V12@@@UAEXAAVCArchive@@@Z$0
	DD	00H
	DD	FLAT:__unwindfunclet$?Serialize@?$CList@V?$CStringT@DV?$StrTraitMFC_DLL@DV?$ChTraitsCRT@D@ATL@@@@@ATL@@V12@@@UAEXAAVCArchive@@@Z$2
__ehfuncinfo$?Serialize@?$CList@V?$CStringT@DV?$StrTraitMFC_DLL@DV?$ChTraitsCRT@D@ATL@@@@@ATL@@V12@@@UAEXAAVCArchive@@@Z DD 019930522H
	DD	02H
	DD	FLAT:__unwindtable$?Serialize@?$CList@V?$CStringT@DV?$StrTraitMFC_DLL@DV?$ChTraitsCRT@D@ATL@@@@@ATL@@V12@@@UAEXAAVCArchive@@@Z
	DD	2 DUP(00H)
	DD	2 DUP(00H)
	DD	00H
	DD	01H
xdata$x	ENDS
;	COMDAT xdata$x
xdata$x	SEGMENT
__ehfuncinfo$??1?$CList@V?$CStringT@DV?$StrTraitMFC_DLL@DV?$ChTraitsCRT@D@ATL@@@@@ATL@@V12@@@UAE@XZ DD 019930522H
	DD	00H
	DD	00H
	DD	2 DUP(00H)
	DD	2 DUP(00H)
	DD	00H
	DD	05H
xdata$x	ENDS
;	COMDAT xdata$x
xdata$x	SEGMENT
__unwindtable$?AddTail@?$CList@V?$CStringT@DV?$StrTraitMFC_DLL@DV?$ChTraitsCRT@D@ATL@@@@@ATL@@V12@@@QAEPAU__POSITION@@V?$CStringT@DV?$StrTraitMFC_DLL@DV?$ChTraitsCRT@D@ATL@@@@@ATL@@@Z DD 0ffffffffH
	DD	FLAT:__unwindfunclet$?AddTail@?$CList@V?$CStringT@DV?$StrTraitMFC_DLL@DV?$ChTraitsCRT@D@ATL@@@@@ATL@@V12@@@QAEPAU__POSITION@@V?$CStringT@DV?$StrTraitMFC_DLL@DV?$ChTraitsCRT@D@ATL@@@@@ATL@@@Z$0
__ehfuncinfo$?AddTail@?$CList@V?$CStringT@DV?$StrTraitMFC_DLL@DV?$ChTraitsCRT@D@ATL@@@@@ATL@@V12@@@QAEPAU__POSITION@@V?$CStringT@DV?$StrTraitMFC_DLL@DV?$ChTraitsCRT@D@ATL@@@@@ATL@@@Z DD 019930522H
	DD	01H
	DD	FLAT:__unwindtable$?AddTail@?$CList@V?$CStringT@DV?$StrTraitMFC_DLL@DV?$ChTraitsCRT@D@ATL@@@@@ATL@@V12@@@QAEPAU__POSITION@@V?$CStringT@DV?$StrTraitMFC_DLL@DV?$ChTraitsCRT@D@ATL@@@@@ATL@@@Z
	DD	2 DUP(00H)
	DD	2 DUP(00H)
	DD	00H
	DD	01H
xdata$x	ENDS
;	COMDAT xdata$x
xdata$x	SEGMENT
__ehfuncinfo$??1CMultiLanguageResourceSetter@@QAE@XZ DD 019930522H
	DD	00H
	DD	00H
	DD	2 DUP(00H)
	DD	2 DUP(00H)
	DD	00H
	DD	05H
xdata$x	ENDS
;	COMDAT xdata$x
xdata$x	SEGMENT
__unwindtable$?DrawSampleImage@CChartStyleDataManagerAddInImp@@MAEXPAUHDC__@@HHHHHPAX@Z DD 0ffffffffH
	DD	FLAT:__unwindfunclet$?DrawSampleImage@CChartStyleDataManagerAddInImp@@MAEXPAUHDC__@@HHHHHPAX@Z$0
__ehfuncinfo$?DrawSampleImage@CChartStyleDataManagerAddInImp@@MAEXPAUHDC__@@HHHHHPAX@Z DD 019930522H
	DD	01H
	DD	FLAT:__unwindtable$?DrawSampleImage@CChartStyleDataManagerAddInImp@@MAEXPAUHDC__@@HHHHHPAX@Z
	DD	2 DUP(00H)
	DD	2 DUP(00H)
	DD	00H
	DD	01H
xdata$x	ENDS
;	COMDAT xdata$x
xdata$x	SEGMENT
__unwindtable$?LoadCurrentStyle@CChartStyleDataManagerAddInImp@@MAEXXZ DD 0ffffffffH
	DD	FLAT:__unwindfunclet$?LoadCurrentStyle@CChartStyleDataManagerAddInImp@@MAEXXZ$0
	DD	0ffffffffH
	DD	FLAT:___std_terminate
__ehfuncinfo$?LoadCurrentStyle@CChartStyleDataManagerAddInImp@@MAEXXZ DD 019930522H
	DD	02H
	DD	FLAT:__unwindtable$?LoadCurrentStyle@CChartStyleDataManagerAddInImp@@MAEXXZ
	DD	2 DUP(00H)
	DD	2 DUP(00H)
	DD	00H
	DD	01H
xdata$x	ENDS
;	COMDAT xdata$x
xdata$x	SEGMENT
__unwindtable$?GetStyleName@CChartStyleDataManagerAddInImp@@MAEPBDH@Z DD 0ffffffffH
	DD	FLAT:__unwindfunclet$?GetStyleName@CChartStyleDataManagerAddInImp@@MAEPBDH@Z$0
__ehfuncinfo$?GetStyleName@CChartStyleDataManagerAddInImp@@MAEPBDH@Z DD 019930522H
	DD	01H
	DD	FLAT:__unwindtable$?GetStyleName@CChartStyleDataManagerAddInImp@@MAEPBDH@Z
	DD	2 DUP(00H)
	DD	2 DUP(00H)
	DD	00H
	DD	01H
xdata$x	ENDS
;	COMDAT xdata$x
xdata$x	SEGMENT
__unwindtable$??0CChartStyleDataManagerAddInImp@@QAE@PAUIChartOCX135914@@PAUIAddInDllBase@@@Z DD 0ffffffffH
	DD	FLAT:__unwindfunclet$??0CChartStyleDataManagerAddInImp@@QAE@PAUIChartOCX135914@@PAUIAddInDllBase@@@Z$0
	DD	00H
	DD	FLAT:__unwindfunclet$??0CChartStyleDataManagerAddInImp@@QAE@PAUIChartOCX135914@@PAUIAddInDllBase@@@Z$1
	DD	01H
	DD	FLAT:__unwindfunclet$??0CChartStyleDataManagerAddInImp@@QAE@PAUIChartOCX135914@@PAUIAddInDllBase@@@Z$2
__ehfuncinfo$??0CChartStyleDataManagerAddInImp@@QAE@PAUIChartOCX135914@@PAUIAddInDllBase@@@Z DD 019930522H
	DD	03H
	DD	FLAT:__unwindtable$??0CChartStyleDataManagerAddInImp@@QAE@PAUIChartOCX135914@@PAUIAddInDllBase@@@Z
	DD	2 DUP(00H)
	DD	2 DUP(00H)
	DD	00H
	DD	01H
xdata$x	ENDS
; Function compile flags: /Odsp
;	COMDAT ??_ECChartStyleDataManagerAddInImp@@WDA@AEPAXI@Z
_TEXT	SEGMENT
??_ECChartStyleDataManagerAddInImp@@WDA@AEPAXI@Z PROC	; [thunk]:CChartStyleDataManagerAddInImp::`vector deleting destructor', COMDAT
  00000	83 e9 30	 sub	 ecx, 48			; 00000030H
  00003	e9 00 00 00 00	 jmp	 ??_ECChartStyleDataManagerAddInImp@@UAEPAXI@Z
??_ECChartStyleDataManagerAddInImp@@WDA@AEPAXI@Z ENDP	; [thunk]:CChartStyleDataManagerAddInImp::`vector deleting destructor'
_TEXT	ENDS
; Function compile flags: /Odsp
;	COMDAT ?Release@CChartStyleDataManagerAddInImp@@ODA@AGKXZ
_TEXT	SEGMENT
?Release@CChartStyleDataManagerAddInImp@@ODA@AGKXZ PROC	; [thunk]:CChartStyleDataManagerAddInImp::Release`adjustor{48}', COMDAT
  00000	83 6c 24 04 30	 sub	 DWORD PTR [esp+4], 48	; 00000030H
  00005	e9 00 00 00 00	 jmp	 ?Release@CChartStyleDataManagerAddInImp@@MAGKXZ ; CChartStyleDataManagerAddInImp::Release
?Release@CChartStyleDataManagerAddInImp@@ODA@AGKXZ ENDP	; [thunk]:CChartStyleDataManagerAddInImp::Release`adjustor{48}'
_TEXT	ENDS
; Function compile flags: /Odsp
;	COMDAT ?AddRef@CChartStyleDataManagerAddInImp@@ODA@AGKXZ
_TEXT	SEGMENT
?AddRef@CChartStyleDataManagerAddInImp@@ODA@AGKXZ PROC	; [thunk]:CChartStyleDataManagerAddInImp::AddRef`adjustor{48}', COMDAT
  00000	83 6c 24 04 30	 sub	 DWORD PTR [esp+4], 48	; 00000030H
  00005	e9 00 00 00 00	 jmp	 ?AddRef@CChartStyleDataManagerAddInImp@@MAGKXZ ; CChartStyleDataManagerAddInImp::AddRef
?AddRef@CChartStyleDataManagerAddInImp@@ODA@AGKXZ ENDP	; [thunk]:CChartStyleDataManagerAddInImp::AddRef`adjustor{48}'
_TEXT	ENDS
; Function compile flags: /Odsp
;	COMDAT ?QueryInterface@CChartStyleDataManagerAddInImp@@ODA@AGJABU_GUID@@PAPAX@Z
_TEXT	SEGMENT
?QueryInterface@CChartStyleDataManagerAddInImp@@ODA@AGJABU_GUID@@PAPAX@Z PROC ; [thunk]:CChartStyleDataManagerAddInImp::QueryInterface`adjustor{48}', COMDAT
  00000	83 6c 24 04 30	 sub	 DWORD PTR [esp+4], 48	; 00000030H
  00005	e9 00 00 00 00	 jmp	 ?QueryInterface@CChartStyleDataManagerAddInImp@@MAGJABU_GUID@@PAPAX@Z ; CChartStyleDataManagerAddInImp::QueryInterface
?QueryInterface@CChartStyleDataManagerAddInImp@@ODA@AGJABU_GUID@@PAPAX@Z ENDP ; [thunk]:CChartStyleDataManagerAddInImp::QueryInterface`adjustor{48}'
_TEXT	ENDS
; Function compile flags: /Odsp
;	COMDAT ??_ECChartStyleDataManagerAddInImp@@W7AEPAXI@Z
_TEXT	SEGMENT
??_ECChartStyleDataManagerAddInImp@@W7AEPAXI@Z PROC	; [thunk]:CChartStyleDataManagerAddInImp::`vector deleting destructor', COMDAT
  00000	83 e9 08	 sub	 ecx, 8
  00003	e9 00 00 00 00	 jmp	 ??_ECChartStyleDataManagerAddInImp@@UAEPAXI@Z
??_ECChartStyleDataManagerAddInImp@@W7AEPAXI@Z ENDP	; [thunk]:CChartStyleDataManagerAddInImp::`vector deleting destructor'
_TEXT	ENDS
; Function compile flags: /Odsp
;	COMDAT ?Release@CChartStyleDataManagerAddInImp@@O7AGKXZ
_TEXT	SEGMENT
?Release@CChartStyleDataManagerAddInImp@@O7AGKXZ PROC	; [thunk]:CChartStyleDataManagerAddInImp::Release`adjustor{8}', COMDAT
  00000	83 6c 24 04 08	 sub	 DWORD PTR [esp+4], 8
  00005	e9 00 00 00 00	 jmp	 ?Release@CChartStyleDataManagerAddInImp@@MAGKXZ ; CChartStyleDataManagerAddInImp::Release
?Release@CChartStyleDataManagerAddInImp@@O7AGKXZ ENDP	; [thunk]:CChartStyleDataManagerAddInImp::Release`adjustor{8}'
_TEXT	ENDS
; Function compile flags: /Odsp
;	COMDAT ?AddRef@CChartStyleDataManagerAddInImp@@O7AGKXZ
_TEXT	SEGMENT
?AddRef@CChartStyleDataManagerAddInImp@@O7AGKXZ PROC	; [thunk]:CChartStyleDataManagerAddInImp::AddRef`adjustor{8}', COMDAT
  00000	83 6c 24 04 08	 sub	 DWORD PTR [esp+4], 8
  00005	e9 00 00 00 00	 jmp	 ?AddRef@CChartStyleDataManagerAddInImp@@MAGKXZ ; CChartStyleDataManagerAddInImp::AddRef
?AddRef@CChartStyleDataManagerAddInImp@@O7AGKXZ ENDP	; [thunk]:CChartStyleDataManagerAddInImp::AddRef`adjustor{8}'
_TEXT	ENDS
; Function compile flags: /Odsp
;	COMDAT ?QueryInterface@CChartStyleDataManagerAddInImp@@O7AGJABU_GUID@@PAPAX@Z
_TEXT	SEGMENT
?QueryInterface@CChartStyleDataManagerAddInImp@@O7AGJABU_GUID@@PAPAX@Z PROC ; [thunk]:CChartStyleDataManagerAddInImp::QueryInterface`adjustor{8}', COMDAT
  00000	83 6c 24 04 08	 sub	 DWORD PTR [esp+4], 8
  00005	e9 00 00 00 00	 jmp	 ?QueryInterface@CChartStyleDataManagerAddInImp@@MAGJABU_GUID@@PAPAX@Z ; CChartStyleDataManagerAddInImp::QueryInterface
?QueryInterface@CChartStyleDataManagerAddInImp@@O7AGJABU_GUID@@PAPAX@Z ENDP ; [thunk]:CChartStyleDataManagerAddInImp::QueryInterface`adjustor{8}'
_TEXT	ENDS
; Function compile flags: /Ogtp
;	COMDAT ??__FstrResult@?1??GetStyleName@CChartStyleDataManagerAddInImp@@MAEPBDH@Z@YAXXZ
text$yd	SEGMENT
??__FstrResult@?1??GetStyleName@CChartStyleDataManagerAddInImp@@MAEPBDH@Z@YAXXZ PROC ; `CChartStyleDataManagerAddInImp::GetStyleName'::`2'::`dynamic atexit destructor for 'strResult'', COMDAT
  00000	b9 00 00 00 00	 mov	 ecx, OFFSET ?strResult@?1??GetStyleName@CChartStyleDataManagerAddInImp@@MAEPBDH@Z@4V?$CStringT@DV?$StrTraitMFC_DLL@DV?$ChTraitsCRT@D@ATL@@@@@ATL@@A
  00005	ff 25 00 00 00
	00		 jmp	 DWORD PTR __imp_??1?$CStringT@DV?$StrTraitMFC_DLL@DV?$ChTraitsCRT@D@ATL@@@@@ATL@@QAE@XZ
??__FstrResult@?1??GetStyleName@CChartStyleDataManagerAddInImp@@MAEPBDH@Z@YAXXZ ENDP ; `CChartStyleDataManagerAddInImp::GetStyleName'::`2'::`dynamic atexit destructor for 'strResult''
text$yd	ENDS
; Function compile flags: /Ogtp
;	COMDAT ??__F?m_strAddInItemName@CChartStyleDataManagerAddInImp@@2V?$CStringT@DV?$StrTraitMFC_DLL@DV?$ChTraitsCRT@D@ATL@@@@@ATL@@A@@YAXXZ
text$yd	SEGMENT
??__F?m_strAddInItemName@CChartStyleDataManagerAddInImp@@2V?$CStringT@DV?$StrTraitMFC_DLL@DV?$ChTraitsCRT@D@ATL@@@@@ATL@@A@@YAXXZ PROC ; `dynamic atexit destructor for 'CChartStyleDataManagerAddInImp::m_strAddInItemName'', COMDAT
  00000	b9 00 00 00 00	 mov	 ecx, OFFSET ?m_strAddInItemName@CChartStyleDataManagerAddInImp@@2V?$CStringT@DV?$StrTraitMFC_DLL@DV?$ChTraitsCRT@D@ATL@@@@@ATL@@A ; CChartStyleDataManagerAddInImp::m_strAddInItemName
  00005	ff 25 00 00 00
	00		 jmp	 DWORD PTR __imp_??1?$CStringT@DV?$StrTraitMFC_DLL@DV?$ChTraitsCRT@D@ATL@@@@@ATL@@QAE@XZ
??__F?m_strAddInItemName@CChartStyleDataManagerAddInImp@@2V?$CStringT@DV?$StrTraitMFC_DLL@DV?$ChTraitsCRT@D@ATL@@@@@ATL@@A@@YAXXZ ENDP ; `dynamic atexit destructor for 'CChartStyleDataManagerAddInImp::m_strAddInItemName''
text$yd	ENDS
; Function compile flags: /Ogtp
; File D:\git\src\IBK\IBK_DRFN\ProjSrc\SrcChartEx\ChartAddIn\ChartEnvSetupDlgAddIn\ChartEnvSetupDlgAddIn\ChartStyleDataManagerAddInImp.cpp
;	COMDAT ??__E?m_strAddInItemName@CChartStyleDataManagerAddInImp@@2V?$CStringT@DV?$StrTraitMFC_DLL@DV?$ChTraitsCRT@D@ATL@@@@@ATL@@A@@YAXXZ
text$di	SEGMENT
??__E?m_strAddInItemName@CChartStyleDataManagerAddInImp@@2V?$CStringT@DV?$StrTraitMFC_DLL@DV?$ChTraitsCRT@D@ATL@@@@@ATL@@A@@YAXXZ PROC ; `dynamic initializer for 'CChartStyleDataManagerAddInImp::m_strAddInItemName'', COMDAT

; 39   : CString CChartStyleDataManagerAddInImp::m_strAddInItemName = "STYLE_DATA";

  00000	68 00 00 00 00	 push	 OFFSET ??_C@_0L@ICPPCKIO@STYLE_DATA@
  00005	b9 00 00 00 00	 mov	 ecx, OFFSET ?m_strAddInItemName@CChartStyleDataManagerAddInImp@@2V?$CStringT@DV?$StrTraitMFC_DLL@DV?$ChTraitsCRT@D@ATL@@@@@ATL@@A ; CChartStyleDataManagerAddInImp::m_strAddInItemName
  0000a	ff 15 00 00 00
	00		 call	 DWORD PTR __imp_??0?$CStringT@DV?$StrTraitMFC_DLL@DV?$ChTraitsCRT@D@ATL@@@@@ATL@@QAE@PBD@Z
  00010	68 00 00 00 00	 push	 OFFSET ??__F?m_strAddInItemName@CChartStyleDataManagerAddInImp@@2V?$CStringT@DV?$StrTraitMFC_DLL@DV?$ChTraitsCRT@D@ATL@@@@@ATL@@A@@YAXXZ ; `dynamic atexit destructor for 'CChartStyleDataManagerAddInImp::m_strAddInItemName''
  00015	e8 00 00 00 00	 call	 _atexit
  0001a	59		 pop	 ecx
  0001b	c3		 ret	 0
??__E?m_strAddInItemName@CChartStyleDataManagerAddInImp@@2V?$CStringT@DV?$StrTraitMFC_DLL@DV?$ChTraitsCRT@D@ATL@@@@@ATL@@A@@YAXXZ ENDP ; `dynamic initializer for 'CChartStyleDataManagerAddInImp::m_strAddInItemName''
text$di	ENDS
; Function compile flags: /Ogtp
;	COMDAT ??1CStyleData@@QAE@XZ
_TEXT	SEGMENT
??1CStyleData@@QAE@XZ PROC				; CStyleData::~CStyleData, COMDAT
; _this$ = ecx
  00000	56		 push	 esi
  00001	57		 push	 edi
  00002	8b f9		 mov	 edi, ecx
  00004	8d 8f 9c 00 00
	00		 lea	 ecx, DWORD PTR [edi+156]
  0000a	e8 00 00 00 00	 call	 ??1?$CList@V?$CStringT@DV?$StrTraitMFC_DLL@DV?$ChTraitsCRT@D@ATL@@@@@ATL@@V12@@@UAE@XZ ; CList<ATL::CStringT<char,StrTraitMFC_DLL<char,ATL::ChTraitsCRT<char> > >,ATL::CStringT<char,StrTraitMFC_DLL<char,ATL::ChTraitsCRT<char> > > >::~CList<ATL::CStringT<char,StrTraitMFC_DLL<char,ATL::ChTraitsCRT<char> > >,ATL::CStringT<char,StrTraitMFC_DLL<char,ATL::ChTraitsCRT<char> > > >
  0000f	8d 8f 80 00 00
	00		 lea	 ecx, DWORD PTR [edi+128]
  00015	e8 00 00 00 00	 call	 ??1?$CList@V?$CStringT@DV?$StrTraitMFC_DLL@DV?$ChTraitsCRT@D@ATL@@@@@ATL@@V12@@@UAE@XZ ; CList<ATL::CStringT<char,StrTraitMFC_DLL<char,ATL::ChTraitsCRT<char> > >,ATL::CStringT<char,StrTraitMFC_DLL<char,ATL::ChTraitsCRT<char> > > >::~CList<ATL::CStringT<char,StrTraitMFC_DLL<char,ATL::ChTraitsCRT<char> > >,ATL::CStringT<char,StrTraitMFC_DLL<char,ATL::ChTraitsCRT<char> > > >
  0001a	8d 4f 38	 lea	 ecx, DWORD PTR [edi+56]
  0001d	e8 00 00 00 00	 call	 ??1CDWordArray@@UAE@XZ	; CDWordArray::~CDWordArray
  00022	8d 4f 24	 lea	 ecx, DWORD PTR [edi+36]
  00025	e8 00 00 00 00	 call	 ??1CDWordArray@@UAE@XZ	; CDWordArray::~CDWordArray
  0002a	8b cf		 mov	 ecx, edi
  0002c	5f		 pop	 edi
  0002d	5e		 pop	 esi
  0002e	ff 25 00 00 00
	00		 jmp	 DWORD PTR __imp_??1?$CStringT@DV?$StrTraitMFC_DLL@DV?$ChTraitsCRT@D@ATL@@@@@ATL@@QAE@XZ
??1CStyleData@@QAE@XZ ENDP				; CStyleData::~CStyleData
_TEXT	ENDS
; Function compile flags: /Ogtp
; File C:\Program Files (x86)\Microsoft Visual Studio\2019\Community\VC\Tools\MSVC\14.29.30133\atlmfc\include\afx.inl
;	COMDAT ??_G?$CList@V?$CStringT@DV?$StrTraitMFC_DLL@DV?$ChTraitsCRT@D@ATL@@@@@ATL@@V12@@@UAEPAXI@Z
_TEXT	SEGMENT
___flags$ = 8						; size = 4
??_G?$CList@V?$CStringT@DV?$StrTraitMFC_DLL@DV?$ChTraitsCRT@D@ATL@@@@@ATL@@V12@@@UAEPAXI@Z PROC ; CList<ATL::CStringT<char,StrTraitMFC_DLL<char,ATL::ChTraitsCRT<char> > >,ATL::CStringT<char,StrTraitMFC_DLL<char,ATL::ChTraitsCRT<char> > > >::`scalar deleting destructor', COMDAT
; _this$ = ecx
  00000	55		 push	 ebp
  00001	8b ec		 mov	 ebp, esp
  00003	56		 push	 esi
  00004	8b f1		 mov	 esi, ecx
  00006	e8 00 00 00 00	 call	 ??1?$CList@V?$CStringT@DV?$StrTraitMFC_DLL@DV?$ChTraitsCRT@D@ATL@@@@@ATL@@V12@@@UAE@XZ ; CList<ATL::CStringT<char,StrTraitMFC_DLL<char,ATL::ChTraitsCRT<char> > >,ATL::CStringT<char,StrTraitMFC_DLL<char,ATL::ChTraitsCRT<char> > > >::~CList<ATL::CStringT<char,StrTraitMFC_DLL<char,ATL::ChTraitsCRT<char> > >,ATL::CStringT<char,StrTraitMFC_DLL<char,ATL::ChTraitsCRT<char> > > >
  0000b	8b 45 08	 mov	 eax, DWORD PTR ___flags$[ebp]
  0000e	a8 01		 test	 al, 1
  00010	74 1f		 je	 SHORT $LN9@scalar
  00012	a8 04		 test	 al, 4
  00014	75 10		 jne	 SHORT $LN3@scalar

; 112  : 	{ ::operator delete(p); }

  00016	56		 push	 esi
  00017	e8 00 00 00 00	 call	 ??3@YAXPAX@Z		; operator delete
  0001c	83 c4 04	 add	 esp, 4
  0001f	8b c6		 mov	 eax, esi
  00021	5e		 pop	 esi
  00022	5d		 pop	 ebp
  00023	c2 04 00	 ret	 4
$LN3@scalar:
  00026	6a 1c		 push	 28			; 0000001cH
  00028	56		 push	 esi
  00029	e8 00 00 00 00	 call	 ?__global_delete@@YAXPAXI@Z ; __global_delete
  0002e	83 c4 08	 add	 esp, 8
$LN9@scalar:
  00031	8b c6		 mov	 eax, esi
  00033	5e		 pop	 esi
  00034	5d		 pop	 ebp
  00035	c2 04 00	 ret	 4
??_G?$CList@V?$CStringT@DV?$StrTraitMFC_DLL@DV?$ChTraitsCRT@D@ATL@@@@@ATL@@V12@@@UAEPAXI@Z ENDP ; CList<ATL::CStringT<char,StrTraitMFC_DLL<char,ATL::ChTraitsCRT<char> > >,ATL::CStringT<char,StrTraitMFC_DLL<char,ATL::ChTraitsCRT<char> > > >::`scalar deleting destructor'
_TEXT	ENDS
; Function compile flags: /Ogtp
; File C:\Program Files (x86)\Microsoft Visual Studio\2019\Community\VC\Tools\MSVC\14.29.30133\atlmfc\include\afxtempl.h
; File C:\Program Files (x86)\Microsoft Visual Studio\2019\Community\VC\Tools\MSVC\14.29.30133\atlmfc\include\afx.inl
; File C:\Program Files (x86)\Microsoft Visual Studio\2019\Community\VC\Tools\MSVC\14.29.30133\atlmfc\include\afxtempl.h
; File C:\Program Files (x86)\Microsoft Visual Studio\2019\Community\VC\Tools\MSVC\14.29.30133\atlmfc\include\afx.inl
; File C:\Program Files (x86)\Microsoft Visual Studio\2019\Community\VC\Tools\MSVC\14.29.30133\atlmfc\include\afxtempl.h
;	COMDAT ?Serialize@?$CList@V?$CStringT@DV?$StrTraitMFC_DLL@DV?$ChTraitsCRT@D@ATL@@@@@ATL@@V12@@@UAEXAAVCArchive@@@Z
_TEXT	SEGMENT
_nNewCount$1$ = -24					; size = 4
$T2 = -20						; size = 4
_newData$3 = -16					; size = 4
__$EHRec$ = -12						; size = 12
_ar$ = 8						; size = 4
?Serialize@?$CList@V?$CStringT@DV?$StrTraitMFC_DLL@DV?$ChTraitsCRT@D@ATL@@@@@ATL@@V12@@@UAEXAAVCArchive@@@Z PROC ; CList<ATL::CStringT<char,StrTraitMFC_DLL<char,ATL::ChTraitsCRT<char> > >,ATL::CStringT<char,StrTraitMFC_DLL<char,ATL::ChTraitsCRT<char> > > >::Serialize, COMDAT
; _this$ = ecx

; 1169 : {

  00000	55		 push	 ebp
  00001	8b ec		 mov	 ebp, esp
  00003	6a ff		 push	 -1
  00005	68 00 00 00 00	 push	 __ehhandler$?Serialize@?$CList@V?$CStringT@DV?$StrTraitMFC_DLL@DV?$ChTraitsCRT@D@ATL@@@@@ATL@@V12@@@UAEXAAVCArchive@@@Z
  0000a	64 a1 00 00 00
	00		 mov	 eax, DWORD PTR fs:0
  00010	50		 push	 eax
  00011	83 ec 0c	 sub	 esp, 12			; 0000000cH
  00014	53		 push	 ebx
  00015	56		 push	 esi
  00016	57		 push	 edi
  00017	a1 00 00 00 00	 mov	 eax, DWORD PTR ___security_cookie
  0001c	33 c5		 xor	 eax, ebp
  0001e	50		 push	 eax
  0001f	8d 45 f4	 lea	 eax, DWORD PTR __$EHRec$[ebp]
  00022	64 a3 00 00 00
	00		 mov	 DWORD PTR fs:0, eax
  00028	8b f9		 mov	 edi, ecx
; File C:\Program Files (x86)\Microsoft Visual Studio\2019\Community\VC\Tools\MSVC\14.29.30133\atlmfc\include\afx.inl

; 212  : 	{ return (m_nMode & CArchive::load) == 0; }

  0002a	8b 5d 08	 mov	 ebx, DWORD PTR _ar$[ebp]
; File C:\Program Files (x86)\Microsoft Visual Studio\2019\Community\VC\Tools\MSVC\14.29.30133\atlmfc\include\afxtempl.h

; 1174 : 	if (ar.IsStoring())

  0002d	8b cb		 mov	 ecx, ebx
; File C:\Program Files (x86)\Microsoft Visual Studio\2019\Community\VC\Tools\MSVC\14.29.30133\atlmfc\include\afx.inl

; 212  : 	{ return (m_nMode & CArchive::load) == 0; }

  0002f	8b 43 18	 mov	 eax, DWORD PTR [ebx+24]
  00032	f7 d0		 not	 eax
  00034	a8 01		 test	 al, 1
; File C:\Program Files (x86)\Microsoft Visual Studio\2019\Community\VC\Tools\MSVC\14.29.30133\atlmfc\include\afxtempl.h

; 1174 : 	if (ar.IsStoring())

  00036	74 35		 je	 SHORT $LN7@Serialize

; 1175 : 	{
; 1176 : 		ar.WriteCount(m_nCount);

  00038	ff 77 0c	 push	 DWORD PTR [edi+12]
  0003b	e8 00 00 00 00	 call	 ?WriteCount@CArchive@@QAEXK@Z ; CArchive::WriteCount

; 1177 : 		for (CNode* pNode = m_pNodeHead; pNode != NULL; pNode = pNode->pNext)

  00040	8b 77 04	 mov	 esi, DWORD PTR [edi+4]
  00043	85 f6		 test	 esi, esi
  00045	74 12		 je	 SHORT $LN48@Serialize
$LL4@Serialize:

; 1178 : 		{
; 1179 : 			ASSERT(AfxIsValidAddress(pNode, sizeof(CNode)));
; 1180 : 			TYPE* pData;
; 1181 : 			/*
; 1182 : 			 * in some cases the & operator might be overloaded, and we cannot use it to obtain
; 1183 : 			 * the address of a given object.  We then use the following trick to get the address
; 1184 : 			 */
; 1185 : 			pData = reinterpret_cast< TYPE* >( &reinterpret_cast< int& >( static_cast< TYPE& >( pNode->data ) ) );
; 1186 : 			SerializeElements<TYPE>(ar, pData, 1);

  00047	6a 01		 push	 1
  00049	8d 46 08	 lea	 eax, DWORD PTR [esi+8]
  0004c	50		 push	 eax
  0004d	53		 push	 ebx
  0004e	e8 00 00 00 00	 call	 ??$SerializeElements@V?$CStringT@DV?$StrTraitMFC_DLL@DV?$ChTraitsCRT@D@ATL@@@@@ATL@@@@YGXAAVCArchive@@PAV?$CStringT@DV?$StrTraitMFC_DLL@DV?$ChTraitsCRT@D@ATL@@@@@ATL@@H@Z ; SerializeElements<ATL::CStringT<char,StrTraitMFC_DLL<char,ATL::ChTraitsCRT<char> > > >
  00053	8b 36		 mov	 esi, DWORD PTR [esi]
  00055	85 f6		 test	 esi, esi
  00057	75 ee		 jne	 SHORT $LL4@Serialize
$LN48@Serialize:

; 1198 : 	}
; 1199 : }

  00059	8b 4d f4	 mov	 ecx, DWORD PTR __$EHRec$[ebp]
  0005c	64 89 0d 00 00
	00 00		 mov	 DWORD PTR fs:0, ecx
  00063	59		 pop	 ecx
  00064	5f		 pop	 edi
  00065	5e		 pop	 esi
  00066	5b		 pop	 ebx
  00067	8b e5		 mov	 esp, ebp
  00069	5d		 pop	 ebp
  0006a	c2 04 00	 ret	 4
$LN7@Serialize:

; 1187 : 		}
; 1188 : 	}
; 1189 : 	else
; 1190 : 	{
; 1191 : 		DWORD_PTR nNewCount = ar.ReadCount();

  0006d	e8 00 00 00 00	 call	 ?ReadCount@CArchive@@QAEKXZ ; CArchive::ReadCount

; 1192 : 		while (nNewCount--)

  00072	85 c0		 test	 eax, eax
  00074	74 e3		 je	 SHORT $LN48@Serialize
  00076	66 66 0f 1f 84
	00 00 00 00 00	 npad	 10
$LL5@Serialize:

; 1193 : 		{
; 1194 : 			TYPE newData[1];

  00080	ff 35 00 00 00
	00		 push	 DWORD PTR __imp_??1?$CStringT@DV?$StrTraitMFC_DLL@DV?$ChTraitsCRT@D@ATL@@@@@ATL@@QAE@XZ
  00086	48		 dec	 eax
  00087	ff 35 00 00 00
	00		 push	 DWORD PTR __imp_??0?$CStringT@DV?$StrTraitMFC_DLL@DV?$ChTraitsCRT@D@ATL@@@@@ATL@@QAE@XZ
  0008d	89 45 e8	 mov	 DWORD PTR _nNewCount$1$[ebp], eax
  00090	8d 45 f0	 lea	 eax, DWORD PTR _newData$3[ebp]
  00093	6a 01		 push	 1
  00095	6a 04		 push	 4
  00097	50		 push	 eax
  00098	e8 00 00 00 00	 call	 ??_L@YGXPAXIIP6EX0@Z1@Z

; 1195 : 			SerializeElements<TYPE>(ar, newData, 1);

  0009d	6a 01		 push	 1
  0009f	8d 45 f0	 lea	 eax, DWORD PTR _newData$3[ebp]
  000a2	c7 45 fc 00 00
	00 00		 mov	 DWORD PTR __$EHRec$[ebp+8], 0
  000a9	50		 push	 eax
  000aa	53		 push	 ebx
  000ab	e8 00 00 00 00	 call	 ??$SerializeElements@V?$CStringT@DV?$StrTraitMFC_DLL@DV?$ChTraitsCRT@D@ATL@@@@@ATL@@@@YGXAAVCArchive@@PAV?$CStringT@DV?$StrTraitMFC_DLL@DV?$ChTraitsCRT@D@ATL@@@@@ATL@@H@Z ; SerializeElements<ATL::CStringT<char,StrTraitMFC_DLL<char,ATL::ChTraitsCRT<char> > > >

; 1196 : 			AddTail(newData[0]);

  000b0	8d 45 f0	 lea	 eax, DWORD PTR _newData$3[ebp]
  000b3	50		 push	 eax
  000b4	8d 4d ec	 lea	 ecx, DWORD PTR $T2[ebp]
  000b7	ff 15 00 00 00
	00		 call	 DWORD PTR __imp_??0?$CStringT@DV?$StrTraitMFC_DLL@DV?$ChTraitsCRT@D@ATL@@@@@ATL@@QAE@ABV01@@Z

; 902  : 	if (m_pNodeFree == NULL)

  000bd	8b 5f 10	 mov	 ebx, DWORD PTR [edi+16]

; 968  : 	CNode* pNewNode = NewNode(m_pNodeTail, NULL);

  000c0	8b 77 08	 mov	 esi, DWORD PTR [edi+8]
  000c3	c6 45 fc 01	 mov	 BYTE PTR __$EHRec$[ebp+8], 1

; 902  : 	if (m_pNodeFree == NULL)

  000c7	85 db		 test	 ebx, ebx
  000c9	75 40		 jne	 SHORT $LN46@Serialize

; 903  : 	{
; 904  : 		// add another block
; 905  : 		CPlex* pNewBlock = CPlex::Create(m_pBlocks, m_nBlockSize,

  000cb	6a 0c		 push	 12			; 0000000cH
  000cd	ff 77 18	 push	 DWORD PTR [edi+24]
  000d0	8d 47 14	 lea	 eax, DWORD PTR [edi+20]
  000d3	50		 push	 eax
  000d4	e8 00 00 00 00	 call	 ?Create@CPlex@@SGPAU1@AAPAU1@II@Z ; CPlex::Create

; 906  : 				 sizeof(CNode));
; 907  : 
; 908  : 		// chain them into free list
; 909  : 		CNode* pNode = (CNode*) pNewBlock->data();
; 910  : 		// free in reverse order to make it easier to debug
; 911  : 		pNode += m_nBlockSize - 1;

  000d9	8b 57 18	 mov	 edx, DWORD PTR [edi+24]
  000dc	8d 0c 52	 lea	 ecx, DWORD PTR [edx+edx*2]
  000df	8d 04 88	 lea	 eax, DWORD PTR [eax+ecx*4]
  000e2	83 c0 fc	 add	 eax, -4			; fffffffcH

; 912  : 		for (INT_PTR i = m_nBlockSize-1; i >= 0; i--, pNode--)

  000e5	83 c2 ff	 add	 edx, -1
  000e8	78 1a		 js	 SHORT $LN47@Serialize
  000ea	66 0f 1f 44 00
	00		 npad	 6
$LL22@Serialize:

; 913  : 		{
; 914  : 			pNode->pNext = m_pNodeFree;

  000f0	8b 4f 10	 mov	 ecx, DWORD PTR [edi+16]
  000f3	8b d8		 mov	 ebx, eax
  000f5	89 08		 mov	 DWORD PTR [eax], ecx

; 915  : 			m_pNodeFree = pNode;

  000f7	89 47 10	 mov	 DWORD PTR [edi+16], eax
  000fa	83 e8 0c	 sub	 eax, 12			; 0000000cH
  000fd	83 ea 01	 sub	 edx, 1
  00100	79 ee		 jns	 SHORT $LL22@Serialize
  00102	eb 03		 jmp	 SHORT $LN25@Serialize
$LN47@Serialize:
  00104	8b 5f 10	 mov	 ebx, DWORD PTR [edi+16]
$LN25@Serialize:

; 916  : 		}
; 917  : 	}
; 918  : 	ENSURE(m_pNodeFree != NULL);  // we must have something

  00107	85 db		 test	 ebx, ebx
  00109	74 6e		 je	 SHORT $LN34@Serialize
$LN46@Serialize:

; 919  : 
; 920  : 	CList::CNode* pNode = m_pNodeFree;
; 921  : 	m_pNodeFree = m_pNodeFree->pNext;

  0010b	8b 03		 mov	 eax, DWORD PTR [ebx]

; 922  : 	pNode->pPrev = pPrev;
; 923  : 	pNode->pNext = pNext;
; 924  : 	m_nCount++;
; 925  : 	ASSERT(m_nCount > 0);  // make sure we don't overflow
; 926  : 
; 927  : #pragma push_macro("new")
; 928  : #undef new
; 929  : 	::new( (void*)( &pNode->data ) ) TYPE;

  0010d	8d 4b 08	 lea	 ecx, DWORD PTR [ebx+8]
  00110	89 47 10	 mov	 DWORD PTR [edi+16], eax
  00113	89 73 04	 mov	 DWORD PTR [ebx+4], esi
  00116	c7 03 00 00 00
	00		 mov	 DWORD PTR [ebx], 0
  0011c	ff 47 0c	 inc	 DWORD PTR [edi+12]
  0011f	ff 15 00 00 00
	00		 call	 DWORD PTR __imp_??0?$CStringT@DV?$StrTraitMFC_DLL@DV?$ChTraitsCRT@D@ATL@@@@@ATL@@QAE@XZ

; 969  : 	pNewNode->data = newElement;

  00125	8d 45 ec	 lea	 eax, DWORD PTR $T2[ebp]
  00128	50		 push	 eax
  00129	8d 4b 08	 lea	 ecx, DWORD PTR [ebx+8]
  0012c	ff 15 00 00 00
	00		 call	 DWORD PTR __imp_??4?$CStringT@DV?$StrTraitMFC_DLL@DV?$ChTraitsCRT@D@ATL@@@@@ATL@@QAEAAV01@ABV01@@Z

; 970  : 	if (m_pNodeTail != NULL)

  00132	8b 47 08	 mov	 eax, DWORD PTR [edi+8]
  00135	85 c0		 test	 eax, eax
  00137	74 04		 je	 SHORT $LN15@Serialize

; 971  : 		m_pNodeTail->pNext = pNewNode;

  00139	89 18		 mov	 DWORD PTR [eax], ebx
  0013b	eb 03		 jmp	 SHORT $LN16@Serialize
$LN15@Serialize:

; 972  : 	else
; 973  : 		m_pNodeHead = pNewNode;

  0013d	89 5f 04	 mov	 DWORD PTR [edi+4], ebx
$LN16@Serialize:

; 974  : 	m_pNodeTail = pNewNode;
; 975  : 	return (POSITION) pNewNode;

  00140	8d 4d ec	 lea	 ecx, DWORD PTR $T2[ebp]
  00143	89 5f 08	 mov	 DWORD PTR [edi+8], ebx
  00146	ff 15 00 00 00
	00		 call	 DWORD PTR __imp_??1?$CStringT@DV?$StrTraitMFC_DLL@DV?$ChTraitsCRT@D@ATL@@@@@ATL@@QAE@XZ

; 1197 : 		}

  0014c	ff 35 00 00 00
	00		 push	 DWORD PTR __imp_??1?$CStringT@DV?$StrTraitMFC_DLL@DV?$ChTraitsCRT@D@ATL@@@@@ATL@@QAE@XZ
  00152	8d 45 f0	 lea	 eax, DWORD PTR _newData$3[ebp]
  00155	c7 45 fc ff ff
	ff ff		 mov	 DWORD PTR __$EHRec$[ebp+8], -1
  0015c	6a 01		 push	 1
  0015e	6a 04		 push	 4
  00160	50		 push	 eax
  00161	e8 00 00 00 00	 call	 ??_M@YGXPAXIIP6EX0@Z@Z
  00166	8b 45 e8	 mov	 eax, DWORD PTR _nNewCount$1$[ebp]
  00169	85 c0		 test	 eax, eax
  0016b	0f 84 e8 fe ff
	ff		 je	 $LN48@Serialize

; 1192 : 		while (nNewCount--)

  00171	8b 5d 08	 mov	 ebx, DWORD PTR _ar$[ebp]
  00174	e9 07 ff ff ff	 jmp	 $LL5@Serialize
$LN34@Serialize:

; 918  : 	ENSURE(m_pNodeFree != NULL);  // we must have something

  00179	e8 00 00 00 00	 call	 ?AfxThrowInvalidArgException@@YGXXZ ; AfxThrowInvalidArgException
$LN50@Serialize:
  0017e	cc		 int	 3
_TEXT	ENDS
;	COMDAT text$x
text$x	SEGMENT
__unwindfunclet$?Serialize@?$CList@V?$CStringT@DV?$StrTraitMFC_DLL@DV?$ChTraitsCRT@D@ATL@@@@@ATL@@V12@@@UAEXAAVCArchive@@@Z$0:
  00000	a1 00 00 00 00	 mov	 eax, DWORD PTR __imp_??1?$CStringT@DV?$StrTraitMFC_DLL@DV?$ChTraitsCRT@D@ATL@@@@@ATL@@QAE@XZ
  00005	50		 push	 eax
  00006	6a 01		 push	 1
  00008	6a 04		 push	 4
  0000a	8d 45 f0	 lea	 eax, DWORD PTR _newData$3[ebp]
  0000d	50		 push	 eax
  0000e	e8 00 00 00 00	 call	 ??_M@YGXPAXIIP6EX0@Z@Z
  00013	c3		 ret	 0
__unwindfunclet$?Serialize@?$CList@V?$CStringT@DV?$StrTraitMFC_DLL@DV?$ChTraitsCRT@D@ATL@@@@@ATL@@V12@@@UAEXAAVCArchive@@@Z$2:
  00014	8d 4d ec	 lea	 ecx, DWORD PTR $T2[ebp]
  00017	ff 25 00 00 00
	00		 jmp	 DWORD PTR __imp_??1?$CStringT@DV?$StrTraitMFC_DLL@DV?$ChTraitsCRT@D@ATL@@@@@ATL@@QAE@XZ
  0001d	cc		 int	 3
  0001e	cc		 int	 3
  0001f	cc		 int	 3
  00020	cc		 int	 3
  00021	cc		 int	 3
__ehhandler$?Serialize@?$CList@V?$CStringT@DV?$StrTraitMFC_DLL@DV?$ChTraitsCRT@D@ATL@@@@@ATL@@V12@@@UAEXAAVCArchive@@@Z:
  00022	90		 npad	 1
  00023	90		 npad	 1
  00024	8b 54 24 08	 mov	 edx, DWORD PTR [esp+8]
  00028	8d 42 0c	 lea	 eax, DWORD PTR [edx+12]
  0002b	8b 4a e4	 mov	 ecx, DWORD PTR [edx-28]
  0002e	33 c8		 xor	 ecx, eax
  00030	e8 00 00 00 00	 call	 @__security_check_cookie@4
  00035	b8 00 00 00 00	 mov	 eax, OFFSET __ehfuncinfo$?Serialize@?$CList@V?$CStringT@DV?$StrTraitMFC_DLL@DV?$ChTraitsCRT@D@ATL@@@@@ATL@@V12@@@UAEXAAVCArchive@@@Z
  0003a	e9 00 00 00 00	 jmp	 ___CxxFrameHandler3
text$x	ENDS
?Serialize@?$CList@V?$CStringT@DV?$StrTraitMFC_DLL@DV?$ChTraitsCRT@D@ATL@@@@@ATL@@V12@@@UAEXAAVCArchive@@@Z ENDP ; CList<ATL::CStringT<char,StrTraitMFC_DLL<char,ATL::ChTraitsCRT<char> > >,ATL::CStringT<char,StrTraitMFC_DLL<char,ATL::ChTraitsCRT<char> > > >::Serialize
; Function compile flags: /Ogtp
; File C:\Program Files (x86)\Microsoft Visual Studio\2019\Community\VC\Tools\MSVC\14.29.30133\atlmfc\include\afxtempl.h
;	COMDAT ??1?$CList@V?$CStringT@DV?$StrTraitMFC_DLL@DV?$ChTraitsCRT@D@ATL@@@@@ATL@@V12@@@UAE@XZ
_TEXT	SEGMENT
__$EHRec$ = -12						; size = 12
??1?$CList@V?$CStringT@DV?$StrTraitMFC_DLL@DV?$ChTraitsCRT@D@ATL@@@@@ATL@@V12@@@UAE@XZ PROC ; CList<ATL::CStringT<char,StrTraitMFC_DLL<char,ATL::ChTraitsCRT<char> > >,ATL::CStringT<char,StrTraitMFC_DLL<char,ATL::ChTraitsCRT<char> > > >::~CList<ATL::CStringT<char,StrTraitMFC_DLL<char,ATL::ChTraitsCRT<char> > >,ATL::CStringT<char,StrTraitMFC_DLL<char,ATL::ChTraitsCRT<char> > > >, COMDAT
; _this$ = ecx

; 878  : {

  00000	55		 push	 ebp
  00001	8b ec		 mov	 ebp, esp
  00003	6a ff		 push	 -1
  00005	68 00 00 00 00	 push	 __ehhandler$??1?$CList@V?$CStringT@DV?$StrTraitMFC_DLL@DV?$ChTraitsCRT@D@ATL@@@@@ATL@@V12@@@UAE@XZ
  0000a	64 a1 00 00 00
	00		 mov	 eax, DWORD PTR fs:0
  00010	50		 push	 eax
  00011	56		 push	 esi
  00012	57		 push	 edi
  00013	a1 00 00 00 00	 mov	 eax, DWORD PTR ___security_cookie
  00018	33 c5		 xor	 eax, ebp
  0001a	50		 push	 eax
  0001b	8d 45 f4	 lea	 eax, DWORD PTR __$EHRec$[ebp]
  0001e	64 a3 00 00 00
	00		 mov	 DWORD PTR fs:0, eax
  00024	8b f9		 mov	 edi, ecx

; 867  : 	for (pNode = m_pNodeHead; pNode != NULL; pNode = pNode->pNext)

  00026	8b 77 04	 mov	 esi, DWORD PTR [edi+4]

; 878  : {

  00029	c7 07 00 00 00
	00		 mov	 DWORD PTR [edi], OFFSET ??_7?$CList@V?$CStringT@DV?$StrTraitMFC_DLL@DV?$ChTraitsCRT@D@ATL@@@@@ATL@@V12@@@6B@

; 867  : 	for (pNode = m_pNodeHead; pNode != NULL; pNode = pNode->pNext)

  0002f	85 f6		 test	 esi, esi
  00031	74 0f		 je	 SHORT $LN5@CList
$LL6@CList:

; 868  : 		pNode->data.~TYPE();

  00033	8d 4e 08	 lea	 ecx, DWORD PTR [esi+8]
  00036	ff 15 00 00 00
	00		 call	 DWORD PTR __imp_??1?$CStringT@DV?$StrTraitMFC_DLL@DV?$ChTraitsCRT@D@ATL@@@@@ATL@@QAE@XZ

; 867  : 	for (pNode = m_pNodeHead; pNode != NULL; pNode = pNode->pNext)

  0003c	8b 36		 mov	 esi, DWORD PTR [esi]
  0003e	85 f6		 test	 esi, esi
  00040	75 f1		 jne	 SHORT $LL6@CList
$LN5@CList:

; 869  : 
; 870  : 	m_nCount = 0;
; 871  : 	m_pNodeHead = m_pNodeTail = m_pNodeFree = NULL;
; 872  : 	m_pBlocks->FreeDataChain();

  00042	8b 4f 14	 mov	 ecx, DWORD PTR [edi+20]
  00045	c7 47 0c 00 00
	00 00		 mov	 DWORD PTR [edi+12], 0
  0004c	c7 47 10 00 00
	00 00		 mov	 DWORD PTR [edi+16], 0
  00053	c7 47 08 00 00
	00 00		 mov	 DWORD PTR [edi+8], 0
  0005a	c7 47 04 00 00
	00 00		 mov	 DWORD PTR [edi+4], 0
  00061	e8 00 00 00 00	 call	 ?FreeDataChain@CPlex@@QAEXXZ ; CPlex::FreeDataChain

; 873  : 	m_pBlocks = NULL;

  00066	c7 47 14 00 00
	00 00		 mov	 DWORD PTR [edi+20], 0

; 879  : 	RemoveAll();
; 880  : 	ASSERT(m_nCount == 0);
; 881  : }

  0006d	8b 4d f4	 mov	 ecx, DWORD PTR __$EHRec$[ebp]
  00070	64 89 0d 00 00
	00 00		 mov	 DWORD PTR fs:0, ecx
  00077	59		 pop	 ecx
  00078	5f		 pop	 edi
  00079	5e		 pop	 esi
  0007a	8b e5		 mov	 esp, ebp
  0007c	5d		 pop	 ebp
  0007d	c3		 ret	 0
  0007e	cc		 int	 3
  0007f	cc		 int	 3
  00080	cc		 int	 3
  00081	cc		 int	 3
  00082	cc		 int	 3
_TEXT	ENDS
;	COMDAT text$x
text$x	SEGMENT
__ehhandler$??1?$CList@V?$CStringT@DV?$StrTraitMFC_DLL@DV?$ChTraitsCRT@D@ATL@@@@@ATL@@V12@@@UAE@XZ:
  00000	90		 npad	 1
  00001	90		 npad	 1
  00002	8b 54 24 08	 mov	 edx, DWORD PTR [esp+8]
  00006	8d 42 0c	 lea	 eax, DWORD PTR [edx+12]
  00009	8b 4a f4	 mov	 ecx, DWORD PTR [edx-12]
  0000c	33 c8		 xor	 ecx, eax
  0000e	e8 00 00 00 00	 call	 @__security_check_cookie@4
  00013	b8 00 00 00 00	 mov	 eax, OFFSET __ehfuncinfo$??1?$CList@V?$CStringT@DV?$StrTraitMFC_DLL@DV?$ChTraitsCRT@D@ATL@@@@@ATL@@V12@@@UAE@XZ
  00018	e9 00 00 00 00	 jmp	 ___CxxFrameHandler3
text$x	ENDS
??1?$CList@V?$CStringT@DV?$StrTraitMFC_DLL@DV?$ChTraitsCRT@D@ATL@@@@@ATL@@V12@@@UAE@XZ ENDP ; CList<ATL::CStringT<char,StrTraitMFC_DLL<char,ATL::ChTraitsCRT<char> > >,ATL::CStringT<char,StrTraitMFC_DLL<char,ATL::ChTraitsCRT<char> > > >::~CList<ATL::CStringT<char,StrTraitMFC_DLL<char,ATL::ChTraitsCRT<char> > >,ATL::CStringT<char,StrTraitMFC_DLL<char,ATL::ChTraitsCRT<char> > > >
; Function compile flags: /Ogtp
; File C:\Program Files (x86)\Microsoft Visual Studio\2019\Community\VC\Tools\MSVC\14.29.30133\atlmfc\include\afxtempl.h
;	COMDAT ?NewNode@?$CList@V?$CStringT@DV?$StrTraitMFC_DLL@DV?$ChTraitsCRT@D@ATL@@@@@ATL@@V12@@@IAEPAUCNode@1@PAU21@0@Z
_TEXT	SEGMENT
_pPrev$ = 8						; size = 4
_pNext$ = 12						; size = 4
?NewNode@?$CList@V?$CStringT@DV?$StrTraitMFC_DLL@DV?$ChTraitsCRT@D@ATL@@@@@ATL@@V12@@@IAEPAUCNode@1@PAU21@0@Z PROC ; CList<ATL::CStringT<char,StrTraitMFC_DLL<char,ATL::ChTraitsCRT<char> > >,ATL::CStringT<char,StrTraitMFC_DLL<char,ATL::ChTraitsCRT<char> > > >::NewNode, COMDAT
; _this$ = ecx

; 901  : {

  00000	55		 push	 ebp
  00001	8b ec		 mov	 ebp, esp
  00003	56		 push	 esi
  00004	8b f1		 mov	 esi, ecx
  00006	57		 push	 edi

; 902  : 	if (m_pNodeFree == NULL)

  00007	83 7e 10 00	 cmp	 DWORD PTR [esi+16], 0
  0000b	75 33		 jne	 SHORT $LN7@NewNode

; 903  : 	{
; 904  : 		// add another block
; 905  : 		CPlex* pNewBlock = CPlex::Create(m_pBlocks, m_nBlockSize,

  0000d	6a 0c		 push	 12			; 0000000cH
  0000f	ff 76 18	 push	 DWORD PTR [esi+24]
  00012	8d 46 14	 lea	 eax, DWORD PTR [esi+20]
  00015	50		 push	 eax
  00016	e8 00 00 00 00	 call	 ?Create@CPlex@@SGPAU1@AAPAU1@II@Z ; CPlex::Create

; 906  : 				 sizeof(CNode));
; 907  : 
; 908  : 		// chain them into free list
; 909  : 		CNode* pNode = (CNode*) pNewBlock->data();
; 910  : 		// free in reverse order to make it easier to debug
; 911  : 		pNode += m_nBlockSize - 1;

  0001b	8b 56 18	 mov	 edx, DWORD PTR [esi+24]
  0001e	83 c0 08	 add	 eax, 8
  00021	8d 0c 52	 lea	 ecx, DWORD PTR [edx+edx*2]
  00024	8d 04 88	 lea	 eax, DWORD PTR [eax+ecx*4]
  00027	83 c0 f4	 add	 eax, -12		; fffffff4H

; 912  : 		for (INT_PTR i = m_nBlockSize-1; i >= 0; i--, pNode--)

  0002a	83 c2 ff	 add	 edx, -1
  0002d	78 11		 js	 SHORT $LN7@NewNode
  0002f	90		 npad	 1
$LL4@NewNode:

; 913  : 		{
; 914  : 			pNode->pNext = m_pNodeFree;

  00030	8b 4e 10	 mov	 ecx, DWORD PTR [esi+16]
  00033	89 08		 mov	 DWORD PTR [eax], ecx

; 915  : 			m_pNodeFree = pNode;

  00035	89 46 10	 mov	 DWORD PTR [esi+16], eax
  00038	83 e8 0c	 sub	 eax, 12			; 0000000cH
  0003b	83 ea 01	 sub	 edx, 1
  0003e	79 f0		 jns	 SHORT $LL4@NewNode
$LN7@NewNode:

; 916  : 		}
; 917  : 	}
; 918  : 	ENSURE(m_pNodeFree != NULL);  // we must have something

  00040	8b 7e 10	 mov	 edi, DWORD PTR [esi+16]
  00043	85 ff		 test	 edi, edi
  00045	74 24		 je	 SHORT $LN17@NewNode

; 919  : 
; 920  : 	CList::CNode* pNode = m_pNodeFree;
; 921  : 	m_pNodeFree = m_pNodeFree->pNext;

  00047	8b 07		 mov	 eax, DWORD PTR [edi]

; 922  : 	pNode->pPrev = pPrev;

  00049	8b 4d 08	 mov	 ecx, DWORD PTR _pPrev$[ebp]
  0004c	89 46 10	 mov	 DWORD PTR [esi+16], eax
  0004f	89 4f 04	 mov	 DWORD PTR [edi+4], ecx

; 923  : 	pNode->pNext = pNext;

  00052	8b 4d 0c	 mov	 ecx, DWORD PTR _pNext$[ebp]
  00055	89 0f		 mov	 DWORD PTR [edi], ecx

; 924  : 	m_nCount++;
; 925  : 	ASSERT(m_nCount > 0);  // make sure we don't overflow
; 926  : 
; 927  : #pragma push_macro("new")
; 928  : #undef new
; 929  : 	::new( (void*)( &pNode->data ) ) TYPE;

  00057	8d 4f 08	 lea	 ecx, DWORD PTR [edi+8]
  0005a	ff 46 0c	 inc	 DWORD PTR [esi+12]
  0005d	ff 15 00 00 00
	00		 call	 DWORD PTR __imp_??0?$CStringT@DV?$StrTraitMFC_DLL@DV?$ChTraitsCRT@D@ATL@@@@@ATL@@QAE@XZ

; 930  : #pragma pop_macro("new")
; 931  : 	return pNode;

  00063	8b c7		 mov	 eax, edi
  00065	5f		 pop	 edi
  00066	5e		 pop	 esi

; 932  : }

  00067	5d		 pop	 ebp
  00068	c2 08 00	 ret	 8
$LN17@NewNode:

; 916  : 		}
; 917  : 	}
; 918  : 	ENSURE(m_pNodeFree != NULL);  // we must have something

  0006b	e8 00 00 00 00	 call	 ?AfxThrowInvalidArgException@@YGXXZ ; AfxThrowInvalidArgException
$LN15@NewNode:
  00070	cc		 int	 3
?NewNode@?$CList@V?$CStringT@DV?$StrTraitMFC_DLL@DV?$ChTraitsCRT@D@ATL@@@@@ATL@@V12@@@IAEPAUCNode@1@PAU21@0@Z ENDP ; CList<ATL::CStringT<char,StrTraitMFC_DLL<char,ATL::ChTraitsCRT<char> > >,ATL::CStringT<char,StrTraitMFC_DLL<char,ATL::ChTraitsCRT<char> > > >::NewNode
_TEXT	ENDS
; Function compile flags: /Ogtp
; File C:\Program Files (x86)\Microsoft Visual Studio\2019\Community\VC\Tools\MSVC\14.29.30133\atlmfc\include\afxtempl.h
;	COMDAT ?RemoveAll@?$CList@V?$CStringT@DV?$StrTraitMFC_DLL@DV?$ChTraitsCRT@D@ATL@@@@@ATL@@V12@@@QAEXXZ
_TEXT	SEGMENT
?RemoveAll@?$CList@V?$CStringT@DV?$StrTraitMFC_DLL@DV?$ChTraitsCRT@D@ATL@@@@@ATL@@V12@@@QAEXXZ PROC ; CList<ATL::CStringT<char,StrTraitMFC_DLL<char,ATL::ChTraitsCRT<char> > >,ATL::CStringT<char,StrTraitMFC_DLL<char,ATL::ChTraitsCRT<char> > > >::RemoveAll, COMDAT
; _this$ = ecx

; 862  : {

  00000	56		 push	 esi
  00001	57		 push	 edi
  00002	8b f9		 mov	 edi, ecx

; 863  : 	ASSERT_VALID(this);
; 864  : 
; 865  : 	// destroy elements
; 866  : 	CNode* pNode;
; 867  : 	for (pNode = m_pNodeHead; pNode != NULL; pNode = pNode->pNext)

  00004	8b 77 04	 mov	 esi, DWORD PTR [edi+4]
  00007	85 f6		 test	 esi, esi
  00009	74 14		 je	 SHORT $LN3@RemoveAll
  0000b	0f 1f 44 00 00	 npad	 5
$LL4@RemoveAll:

; 868  : 		pNode->data.~TYPE();

  00010	8d 4e 08	 lea	 ecx, DWORD PTR [esi+8]
  00013	ff 15 00 00 00
	00		 call	 DWORD PTR __imp_??1?$CStringT@DV?$StrTraitMFC_DLL@DV?$ChTraitsCRT@D@ATL@@@@@ATL@@QAE@XZ
  00019	8b 36		 mov	 esi, DWORD PTR [esi]
  0001b	85 f6		 test	 esi, esi
  0001d	75 f1		 jne	 SHORT $LL4@RemoveAll
$LN3@RemoveAll:

; 869  : 
; 870  : 	m_nCount = 0;
; 871  : 	m_pNodeHead = m_pNodeTail = m_pNodeFree = NULL;
; 872  : 	m_pBlocks->FreeDataChain();

  0001f	8b 4f 14	 mov	 ecx, DWORD PTR [edi+20]
  00022	c7 47 0c 00 00
	00 00		 mov	 DWORD PTR [edi+12], 0
  00029	c7 47 10 00 00
	00 00		 mov	 DWORD PTR [edi+16], 0
  00030	c7 47 08 00 00
	00 00		 mov	 DWORD PTR [edi+8], 0
  00037	c7 47 04 00 00
	00 00		 mov	 DWORD PTR [edi+4], 0
  0003e	e8 00 00 00 00	 call	 ?FreeDataChain@CPlex@@QAEXXZ ; CPlex::FreeDataChain

; 873  : 	m_pBlocks = NULL;

  00043	c7 47 14 00 00
	00 00		 mov	 DWORD PTR [edi+20], 0
  0004a	5f		 pop	 edi
  0004b	5e		 pop	 esi

; 874  : }

  0004c	c3		 ret	 0
?RemoveAll@?$CList@V?$CStringT@DV?$StrTraitMFC_DLL@DV?$ChTraitsCRT@D@ATL@@@@@ATL@@V12@@@QAEXXZ ENDP ; CList<ATL::CStringT<char,StrTraitMFC_DLL<char,ATL::ChTraitsCRT<char> > >,ATL::CStringT<char,StrTraitMFC_DLL<char,ATL::ChTraitsCRT<char> > > >::RemoveAll
_TEXT	ENDS
; Function compile flags: /Ogtp
; File C:\Program Files (x86)\Microsoft Visual Studio\2019\Community\VC\Tools\MSVC\14.29.30133\atlmfc\include\afxtempl.h
;	COMDAT ?AddTail@?$CList@V?$CStringT@DV?$StrTraitMFC_DLL@DV?$ChTraitsCRT@D@ATL@@@@@ATL@@V12@@@QAEPAU__POSITION@@V?$CStringT@DV?$StrTraitMFC_DLL@DV?$ChTraitsCRT@D@ATL@@@@@ATL@@@Z
_TEXT	SEGMENT
__$EHRec$ = -12						; size = 12
_newElement$ = 8					; size = 4
?AddTail@?$CList@V?$CStringT@DV?$StrTraitMFC_DLL@DV?$ChTraitsCRT@D@ATL@@@@@ATL@@V12@@@QAEPAU__POSITION@@V?$CStringT@DV?$StrTraitMFC_DLL@DV?$ChTraitsCRT@D@ATL@@@@@ATL@@@Z PROC ; CList<ATL::CStringT<char,StrTraitMFC_DLL<char,ATL::ChTraitsCRT<char> > >,ATL::CStringT<char,StrTraitMFC_DLL<char,ATL::ChTraitsCRT<char> > > >::AddTail, COMDAT
; _this$ = ecx

; 965  : {

  00000	55		 push	 ebp
  00001	8b ec		 mov	 ebp, esp
  00003	6a ff		 push	 -1
  00005	68 00 00 00 00	 push	 __ehhandler$?AddTail@?$CList@V?$CStringT@DV?$StrTraitMFC_DLL@DV?$ChTraitsCRT@D@ATL@@@@@ATL@@V12@@@QAEPAU__POSITION@@V?$CStringT@DV?$StrTraitMFC_DLL@DV?$ChTraitsCRT@D@ATL@@@@@ATL@@@Z
  0000a	64 a1 00 00 00
	00		 mov	 eax, DWORD PTR fs:0
  00010	50		 push	 eax
  00011	53		 push	 ebx
  00012	56		 push	 esi
  00013	57		 push	 edi
  00014	a1 00 00 00 00	 mov	 eax, DWORD PTR ___security_cookie
  00019	33 c5		 xor	 eax, ebp
  0001b	50		 push	 eax
  0001c	8d 45 f4	 lea	 eax, DWORD PTR __$EHRec$[ebp]
  0001f	64 a3 00 00 00
	00		 mov	 DWORD PTR fs:0, eax
  00025	8b f1		 mov	 esi, ecx

; 902  : 	if (m_pNodeFree == NULL)

  00027	83 7e 10 00	 cmp	 DWORD PTR [esi+16], 0

; 966  : 	ASSERT_VALID(this);
; 967  : 
; 968  : 	CNode* pNewNode = NewNode(m_pNodeTail, NULL);

  0002b	8b 7e 08	 mov	 edi, DWORD PTR [esi+8]
  0002e	c7 45 fc 00 00
	00 00		 mov	 DWORD PTR __$EHRec$[ebp+8], 0

; 902  : 	if (m_pNodeFree == NULL)

  00035	75 39		 jne	 SHORT $LN12@AddTail

; 903  : 	{
; 904  : 		// add another block
; 905  : 		CPlex* pNewBlock = CPlex::Create(m_pBlocks, m_nBlockSize,

  00037	6a 0c		 push	 12			; 0000000cH
  00039	ff 76 18	 push	 DWORD PTR [esi+24]
  0003c	8d 46 14	 lea	 eax, DWORD PTR [esi+20]
  0003f	50		 push	 eax
  00040	e8 00 00 00 00	 call	 ?Create@CPlex@@SGPAU1@AAPAU1@II@Z ; CPlex::Create

; 906  : 				 sizeof(CNode));
; 907  : 
; 908  : 		// chain them into free list
; 909  : 		CNode* pNode = (CNode*) pNewBlock->data();
; 910  : 		// free in reverse order to make it easier to debug
; 911  : 		pNode += m_nBlockSize - 1;

  00045	8b 56 18	 mov	 edx, DWORD PTR [esi+24]
  00048	83 c0 08	 add	 eax, 8
  0004b	8d 4a ff	 lea	 ecx, DWORD PTR [edx-1]

; 912  : 		for (INT_PTR i = m_nBlockSize-1; i >= 0; i--, pNode--)

  0004e	83 c2 ff	 add	 edx, -1
  00051	8d 0c 49	 lea	 ecx, DWORD PTR [ecx+ecx*2]
  00054	8d 0c 88	 lea	 ecx, DWORD PTR [eax+ecx*4]
  00057	78 17		 js	 SHORT $LN12@AddTail
  00059	0f 1f 80 00 00
	00 00		 npad	 7
$LL9@AddTail:

; 913  : 		{
; 914  : 			pNode->pNext = m_pNodeFree;

  00060	8b 46 10	 mov	 eax, DWORD PTR [esi+16]
  00063	89 01		 mov	 DWORD PTR [ecx], eax

; 915  : 			m_pNodeFree = pNode;

  00065	89 4e 10	 mov	 DWORD PTR [esi+16], ecx
  00068	83 e9 0c	 sub	 ecx, 12			; 0000000cH
  0006b	83 ea 01	 sub	 edx, 1
  0006e	79 f0		 jns	 SHORT $LL9@AddTail
$LN12@AddTail:

; 916  : 		}
; 917  : 	}
; 918  : 	ENSURE(m_pNodeFree != NULL);  // we must have something

  00070	8b 5e 10	 mov	 ebx, DWORD PTR [esi+16]
  00073	85 db		 test	 ebx, ebx
  00075	74 57		 je	 SHORT $LN24@AddTail

; 919  : 
; 920  : 	CList::CNode* pNode = m_pNodeFree;
; 921  : 	m_pNodeFree = m_pNodeFree->pNext;

  00077	8b 03		 mov	 eax, DWORD PTR [ebx]

; 922  : 	pNode->pPrev = pPrev;
; 923  : 	pNode->pNext = pNext;
; 924  : 	m_nCount++;
; 925  : 	ASSERT(m_nCount > 0);  // make sure we don't overflow
; 926  : 
; 927  : #pragma push_macro("new")
; 928  : #undef new
; 929  : 	::new( (void*)( &pNode->data ) ) TYPE;

  00079	8d 4b 08	 lea	 ecx, DWORD PTR [ebx+8]
  0007c	89 46 10	 mov	 DWORD PTR [esi+16], eax
  0007f	89 7b 04	 mov	 DWORD PTR [ebx+4], edi
  00082	c7 03 00 00 00
	00		 mov	 DWORD PTR [ebx], 0
  00088	ff 46 0c	 inc	 DWORD PTR [esi+12]
  0008b	ff 15 00 00 00
	00		 call	 DWORD PTR __imp_??0?$CStringT@DV?$StrTraitMFC_DLL@DV?$ChTraitsCRT@D@ATL@@@@@ATL@@QAE@XZ

; 969  : 	pNewNode->data = newElement;

  00091	8d 45 08	 lea	 eax, DWORD PTR _newElement$[ebp]
  00094	50		 push	 eax
  00095	8d 4b 08	 lea	 ecx, DWORD PTR [ebx+8]
  00098	ff 15 00 00 00
	00		 call	 DWORD PTR __imp_??4?$CStringT@DV?$StrTraitMFC_DLL@DV?$ChTraitsCRT@D@ATL@@@@@ATL@@QAEAAV01@ABV01@@Z

; 970  : 	if (m_pNodeTail != NULL)

  0009e	8b 46 08	 mov	 eax, DWORD PTR [esi+8]
  000a1	85 c0		 test	 eax, eax
  000a3	74 04		 je	 SHORT $LN2@AddTail

; 971  : 		m_pNodeTail->pNext = pNewNode;

  000a5	89 18		 mov	 DWORD PTR [eax], ebx
  000a7	eb 03		 jmp	 SHORT $LN3@AddTail
$LN2@AddTail:

; 972  : 	else
; 973  : 		m_pNodeHead = pNewNode;

  000a9	89 5e 04	 mov	 DWORD PTR [esi+4], ebx
$LN3@AddTail:

; 974  : 	m_pNodeTail = pNewNode;
; 975  : 	return (POSITION) pNewNode;

  000ac	8d 4d 08	 lea	 ecx, DWORD PTR _newElement$[ebp]
  000af	89 5e 08	 mov	 DWORD PTR [esi+8], ebx
  000b2	ff 15 00 00 00
	00		 call	 DWORD PTR __imp_??1?$CStringT@DV?$StrTraitMFC_DLL@DV?$ChTraitsCRT@D@ATL@@@@@ATL@@QAE@XZ
  000b8	8b c3		 mov	 eax, ebx

; 976  : }

  000ba	8b 4d f4	 mov	 ecx, DWORD PTR __$EHRec$[ebp]
  000bd	64 89 0d 00 00
	00 00		 mov	 DWORD PTR fs:0, ecx
  000c4	59		 pop	 ecx
  000c5	5f		 pop	 edi
  000c6	5e		 pop	 esi
  000c7	5b		 pop	 ebx
  000c8	8b e5		 mov	 esp, ebp
  000ca	5d		 pop	 ebp
  000cb	c2 04 00	 ret	 4
$LN24@AddTail:

; 918  : 	ENSURE(m_pNodeFree != NULL);  // we must have something

  000ce	e8 00 00 00 00	 call	 ?AfxThrowInvalidArgException@@YGXXZ ; AfxThrowInvalidArgException
$LN22@AddTail:
  000d3	cc		 int	 3
_TEXT	ENDS
;	COMDAT text$x
text$x	SEGMENT
__unwindfunclet$?AddTail@?$CList@V?$CStringT@DV?$StrTraitMFC_DLL@DV?$ChTraitsCRT@D@ATL@@@@@ATL@@V12@@@QAEPAU__POSITION@@V?$CStringT@DV?$StrTraitMFC_DLL@DV?$ChTraitsCRT@D@ATL@@@@@ATL@@@Z$0:
  00000	8d 4d 08	 lea	 ecx, DWORD PTR _newElement$[ebp]
  00003	ff 25 00 00 00
	00		 jmp	 DWORD PTR __imp_??1?$CStringT@DV?$StrTraitMFC_DLL@DV?$ChTraitsCRT@D@ATL@@@@@ATL@@QAE@XZ
  00009	cc		 int	 3
  0000a	cc		 int	 3
  0000b	cc		 int	 3
  0000c	cc		 int	 3
  0000d	cc		 int	 3
__ehhandler$?AddTail@?$CList@V?$CStringT@DV?$StrTraitMFC_DLL@DV?$ChTraitsCRT@D@ATL@@@@@ATL@@V12@@@QAEPAU__POSITION@@V?$CStringT@DV?$StrTraitMFC_DLL@DV?$ChTraitsCRT@D@ATL@@@@@ATL@@@Z:
  0000e	90		 npad	 1
  0000f	90		 npad	 1
  00010	8b 54 24 08	 mov	 edx, DWORD PTR [esp+8]
  00014	8d 42 0c	 lea	 eax, DWORD PTR [edx+12]
  00017	8b 4a f0	 mov	 ecx, DWORD PTR [edx-16]
  0001a	33 c8		 xor	 ecx, eax
  0001c	e8 00 00 00 00	 call	 @__security_check_cookie@4
  00021	b8 00 00 00 00	 mov	 eax, OFFSET __ehfuncinfo$?AddTail@?$CList@V?$CStringT@DV?$StrTraitMFC_DLL@DV?$ChTraitsCRT@D@ATL@@@@@ATL@@V12@@@QAEPAU__POSITION@@V?$CStringT@DV?$StrTraitMFC_DLL@DV?$ChTraitsCRT@D@ATL@@@@@ATL@@@Z
  00026	e9 00 00 00 00	 jmp	 ___CxxFrameHandler3
text$x	ENDS
?AddTail@?$CList@V?$CStringT@DV?$StrTraitMFC_DLL@DV?$ChTraitsCRT@D@ATL@@@@@ATL@@V12@@@QAEPAU__POSITION@@V?$CStringT@DV?$StrTraitMFC_DLL@DV?$ChTraitsCRT@D@ATL@@@@@ATL@@@Z ENDP ; CList<ATL::CStringT<char,StrTraitMFC_DLL<char,ATL::ChTraitsCRT<char> > >,ATL::CStringT<char,StrTraitMFC_DLL<char,ATL::ChTraitsCRT<char> > > >::AddTail
; Function compile flags: /Ogtp
; File D:\git\src\IBK\IBK_DRFN\ProjSrc\SrcChartEx\ChartAddIn\ChartEnvSetupDlgAddIn\Include_Chart\Dll_Load\IMetaTable.h
; File C:\Program Files (x86)\Microsoft Visual Studio\2019\Community\VC\Tools\MSVC\14.29.30133\atlmfc\include\afxwin1.inl
; File D:\git\src\IBK\IBK_DRFN\ProjSrc\SrcChartEx\ChartAddIn\ChartEnvSetupDlgAddIn\Include_Chart\Dll_Load\IMetaTable.h
;	COMDAT ??1CMultiLanguageResourceSetter@@QAE@XZ
_TEXT	SEGMENT
__$EHRec$ = -12						; size = 12
??1CMultiLanguageResourceSetter@@QAE@XZ PROC		; CMultiLanguageResourceSetter::~CMultiLanguageResourceSetter, COMDAT
; _this$ = ecx

; 1036 : 	{

  00000	55		 push	 ebp
  00001	8b ec		 mov	 ebp, esp
  00003	6a ff		 push	 -1
  00005	68 00 00 00 00	 push	 __ehhandler$??1CMultiLanguageResourceSetter@@QAE@XZ
  0000a	64 a1 00 00 00
	00		 mov	 eax, DWORD PTR fs:0
  00010	50		 push	 eax
  00011	56		 push	 esi
  00012	a1 00 00 00 00	 mov	 eax, DWORD PTR ___security_cookie
  00017	33 c5		 xor	 eax, ebp
  00019	50		 push	 eax
  0001a	8d 45 f4	 lea	 eax, DWORD PTR __$EHRec$[ebp]
  0001d	64 a3 00 00 00
	00		 mov	 DWORD PTR fs:0, eax

; 1037 : 		AfxSetResourceHandle( m_hInstance);

  00023	8b 31		 mov	 esi, DWORD PTR [ecx]
; File C:\Program Files (x86)\Microsoft Visual Studio\2019\Community\VC\Tools\MSVC\14.29.30133\atlmfc\include\afxwin1.inl

; 27   : 	{ ASSERT(hInstResource != NULL); afxCurrentResourceHandle = hInstResource; }

  00025	e8 00 00 00 00	 call	 ?AfxGetModuleState@@YGPAVAFX_MODULE_STATE@@XZ ; AfxGetModuleState
  0002a	89 70 0c	 mov	 DWORD PTR [eax+12], esi
; File D:\git\src\IBK\IBK_DRFN\ProjSrc\SrcChartEx\ChartAddIn\ChartEnvSetupDlgAddIn\Include_Chart\Dll_Load\IMetaTable.h

; 1038 : 	}

  0002d	8b 4d f4	 mov	 ecx, DWORD PTR __$EHRec$[ebp]
  00030	64 89 0d 00 00
	00 00		 mov	 DWORD PTR fs:0, ecx
  00037	59		 pop	 ecx
  00038	5e		 pop	 esi
  00039	8b e5		 mov	 esp, ebp
  0003b	5d		 pop	 ebp
  0003c	c3		 ret	 0
  0003d	cc		 int	 3
  0003e	cc		 int	 3
  0003f	cc		 int	 3
  00040	cc		 int	 3
  00041	cc		 int	 3
_TEXT	ENDS
;	COMDAT text$x
text$x	SEGMENT
__ehhandler$??1CMultiLanguageResourceSetter@@QAE@XZ:
  00000	90		 npad	 1
  00001	90		 npad	 1
  00002	8b 54 24 08	 mov	 edx, DWORD PTR [esp+8]
  00006	8d 42 0c	 lea	 eax, DWORD PTR [edx+12]
  00009	8b 4a f8	 mov	 ecx, DWORD PTR [edx-8]
  0000c	33 c8		 xor	 ecx, eax
  0000e	e8 00 00 00 00	 call	 @__security_check_cookie@4
  00013	b8 00 00 00 00	 mov	 eax, OFFSET __ehfuncinfo$??1CMultiLanguageResourceSetter@@QAE@XZ
  00018	e9 00 00 00 00	 jmp	 ___CxxFrameHandler3
text$x	ENDS
??1CMultiLanguageResourceSetter@@QAE@XZ ENDP		; CMultiLanguageResourceSetter::~CMultiLanguageResourceSetter
; Function compile flags: /Ogtp
; File D:\git\src\IBK\IBK_DRFN\ProjSrc\SrcChartEx\ChartAddIn\ChartEnvSetupDlgAddIn\ChartEnvSetupDlgAddIn\ChartStyleDataManagerAddInImp.cpp
; File C:\Program Files (x86)\Microsoft Visual Studio\2019\Community\VC\Tools\MSVC\14.29.30133\atlmfc\include\afx.inl
;	COMDAT ??_GCChartStyleDataManagerAddInImp@@UAEPAXI@Z
_TEXT	SEGMENT
___flags$ = 8						; size = 4
??_GCChartStyleDataManagerAddInImp@@UAEPAXI@Z PROC	; CChartStyleDataManagerAddInImp::`scalar deleting destructor', COMDAT
; _this$ = ecx
  00000	55		 push	 ebp
  00001	8b ec		 mov	 ebp, esp
; File D:\git\src\IBK\IBK_DRFN\ProjSrc\SrcChartEx\ChartAddIn\ChartEnvSetupDlgAddIn\ChartEnvSetupDlgAddIn\ChartStyleDataManagerAddInImp.cpp

; 34   : {

  00003	56		 push	 esi
  00004	8b f1		 mov	 esi, ecx

; 35   : 
; 36   : }

  00006	8d 4e 34	 lea	 ecx, DWORD PTR [esi+52]
  00009	c7 06 00 00 00
	00		 mov	 DWORD PTR [esi], OFFSET ??_7CChartStyleDataManagerAddInImp@@6BCIWUnknown@@@
  0000f	c7 46 08 00 00
	00 00		 mov	 DWORD PTR [esi+8], OFFSET ??_7CChartStyleDataManagerAddInImp@@6BIChartAddIn135914@@@
  00016	c7 46 30 00 00
	00 00		 mov	 DWORD PTR [esi+48], OFFSET ??_7CChartStyleDataManagerAddInImp@@6B@
  0001d	e8 00 00 00 00	 call	 ??1CStyleDataManager@@UAE@XZ ; CStyleDataManager::~CStyleDataManager
  00022	8b ce		 mov	 ecx, esi
  00024	c7 46 30 00 00
	00 00		 mov	 DWORD PTR [esi+48], OFFSET ??_7IStyleManager@@6B@
  0002b	e8 00 00 00 00	 call	 ??1CChartAddInBase135914@@MAE@XZ ; CChartAddInBase135914::~CChartAddInBase135914
  00030	8b 45 08	 mov	 eax, DWORD PTR ___flags$[ebp]
  00033	a8 01		 test	 al, 1
  00035	74 1f		 je	 SHORT $LN12@scalar
  00037	a8 04		 test	 al, 4
  00039	75 10		 jne	 SHORT $LN3@scalar
; File C:\Program Files (x86)\Microsoft Visual Studio\2019\Community\VC\Tools\MSVC\14.29.30133\atlmfc\include\afx.inl

; 112  : 	{ ::operator delete(p); }

  0003b	56		 push	 esi
  0003c	e8 00 00 00 00	 call	 ??3@YAXPAX@Z		; operator delete
  00041	83 c4 04	 add	 esp, 4
  00044	8b c6		 mov	 eax, esi
  00046	5e		 pop	 esi
  00047	5d		 pop	 ebp
  00048	c2 04 00	 ret	 4
$LN3@scalar:
  0004b	6a 3c		 push	 60			; 0000003cH
  0004d	56		 push	 esi
  0004e	e8 00 00 00 00	 call	 ?__global_delete@@YAXPAXI@Z ; __global_delete
  00053	83 c4 08	 add	 esp, 8
$LN12@scalar:
  00056	8b c6		 mov	 eax, esi
  00058	5e		 pop	 esi
  00059	5d		 pop	 ebp
  0005a	c2 04 00	 ret	 4
??_GCChartStyleDataManagerAddInImp@@UAEPAXI@Z ENDP	; CChartStyleDataManagerAddInImp::`scalar deleting destructor'
_TEXT	ENDS
; Function compile flags: /Ogtp
; File D:\git\src\IBK\IBK_DRFN\ProjSrc\SrcChartEx\ChartAddIn\ChartEnvSetupDlgAddIn\ChartEnvSetupDlgAddIn\ChartStyleDataManagerAddInImp.cpp
;	COMDAT ?UpdateIndexStyle@CChartStyleDataManagerAddInImp@@MAEXPBDH@Z
_TEXT	SEGMENT
_p_szGraphName$ = 8					; size = 4
_p_nStyleIndex$ = 12					; size = 4
?UpdateIndexStyle@CChartStyleDataManagerAddInImp@@MAEXPBDH@Z PROC ; CChartStyleDataManagerAddInImp::UpdateIndexStyle, COMDAT
; _this$ = ecx

; 133  : {

  00000	55		 push	 ebp
  00001	8b ec		 mov	 ebp, esp
  00003	56		 push	 esi
  00004	8b f1		 mov	 esi, ecx

; 134  : 	CStyleData *pStyleData = m_styleDataManager.GetStyleData( p_nStyleIndex);

  00006	6a 00		 push	 0
  00008	ff 75 0c	 push	 DWORD PTR _p_nStyleIndex$[ebp]
  0000b	8d 4e 04	 lea	 ecx, DWORD PTR [esi+4]
  0000e	e8 00 00 00 00	 call	 ?GetStyleData@CStyleDataManager@@QAEPAVCStyleData@@HH@Z ; CStyleDataManager::GetStyleData

; 135  : 	if( !pStyleData) return;

  00013	85 c0		 test	 eax, eax
  00015	74 0f		 je	 SHORT $LN1@UpdateInde

; 136  : 	m_styleDataManager.SetStyleDataToIndex( *pStyleData, m_pIChartOCX, p_szGraphName);

  00017	ff 75 08	 push	 DWORD PTR _p_szGraphName$[ebp]
  0001a	ff 76 dc	 push	 DWORD PTR [esi-36]
  0001d	50		 push	 eax
  0001e	e8 00 00 00 00	 call	 ?SetStyleDataToIndex@CStyleDataManager@@SAXAAVCStyleData@@PAUIChartOCX135914@@PBD@Z ; CStyleDataManager::SetStyleDataToIndex
  00023	83 c4 0c	 add	 esp, 12			; 0000000cH
$LN1@UpdateInde:
  00026	5e		 pop	 esi

; 137  : }

  00027	5d		 pop	 ebp
  00028	c2 08 00	 ret	 8
?UpdateIndexStyle@CChartStyleDataManagerAddInImp@@MAEXPBDH@Z ENDP ; CChartStyleDataManagerAddInImp::UpdateIndexStyle
_TEXT	ENDS
; Function compile flags: /Ogtp
; File D:\git\src\IBK\IBK_DRFN\ProjSrc\SrcChartEx\ChartAddIn\ChartEnvSetupDlgAddIn\ChartEnvSetupDlgAddIn\ChartStyleDataManagerAddInImp.cpp
; File C:\Program Files (x86)\Microsoft Visual Studio\2019\Community\VC\Tools\MSVC\14.29.30133\atlmfc\include\afxwin1.inl
; File D:\git\src\IBK\IBK_DRFN\ProjSrc\SrcChartEx\ChartAddIn\ChartEnvSetupDlgAddIn\ChartEnvSetupDlgAddIn\ChartStyleDataManagerAddInImp.cpp
; File C:\Program Files (x86)\Microsoft Visual Studio\2019\Community\VC\Tools\MSVC\14.29.30133\atlmfc\include\afxwin1.inl
; File D:\git\src\IBK\IBK_DRFN\ProjSrc\SrcChartEx\ChartAddIn\ChartEnvSetupDlgAddIn\ChartEnvSetupDlgAddIn\ChartStyleDataManagerAddInImp.cpp
; File C:\Program Files (x86)\Microsoft Visual Studio\2019\Community\VC\Tools\MSVC\14.29.30133\atlmfc\include\atltypes.h
; File D:\git\src\IBK\IBK_DRFN\ProjSrc\SrcChartEx\ChartAddIn\ChartEnvSetupDlgAddIn\ChartEnvSetupDlgAddIn\ChartStyleDataManagerAddInImp.cpp
; File C:\Program Files (x86)\Microsoft Visual Studio\2019\Community\VC\Tools\MSVC\14.29.30133\atlmfc\include\atltypes.h
; File D:\git\src\IBK\IBK_DRFN\ProjSrc\SrcChartEx\ChartAddIn\ChartEnvSetupDlgAddIn\ChartEnvSetupDlgAddIn\ChartStyleDataManagerAddInImp.cpp
;	COMDAT ?DrawSampleImage@CChartStyleDataManagerAddInImp@@MAEXPAUHDC__@@HHHHHPAX@Z
_TEXT	SEGMENT
_tempStyleData$ = -264					; size = 232
$T2 = -32						; size = 16
_pDC$1$ = -16						; size = 4
__$EHRec$ = -12						; size = 12
_pFont$1$ = 8						; size = 4
_p_hDC$ = 8						; size = 4
_p_nLeft$ = 12						; size = 4
_p_nTop$ = 16						; size = 4
_p_nRight$ = 20						; size = 4
_p_nBottom$ = 24					; size = 4
_p_nStyleIndex$ = 28					; size = 4
_p_hFont$ = 32						; size = 4
?DrawSampleImage@CChartStyleDataManagerAddInImp@@MAEXPAUHDC__@@HHHHHPAX@Z PROC ; CChartStyleDataManagerAddInImp::DrawSampleImage, COMDAT
; _this$ = ecx

; 123  : {

  00000	55		 push	 ebp
  00001	8b ec		 mov	 ebp, esp
  00003	6a ff		 push	 -1
  00005	68 00 00 00 00	 push	 __ehhandler$?DrawSampleImage@CChartStyleDataManagerAddInImp@@MAEXPAUHDC__@@HHHHHPAX@Z
  0000a	64 a1 00 00 00
	00		 mov	 eax, DWORD PTR fs:0
  00010	50		 push	 eax
  00011	81 ec fc 00 00
	00		 sub	 esp, 252		; 000000fcH
  00017	56		 push	 esi
  00018	57		 push	 edi
  00019	a1 00 00 00 00	 mov	 eax, DWORD PTR ___security_cookie
  0001e	33 c5		 xor	 eax, ebp
  00020	50		 push	 eax
  00021	8d 45 f4	 lea	 eax, DWORD PTR __$EHRec$[ebp]
  00024	64 a3 00 00 00
	00		 mov	 DWORD PTR fs:0, eax
  0002a	8b f1		 mov	 esi, ecx

; 124  : 	CDC *pDC = CDC::FromHandle( p_hDC);

  0002c	ff 75 08	 push	 DWORD PTR _p_hDC$[ebp]
  0002f	e8 00 00 00 00	 call	 ?FromHandle@CDC@@SGPAV1@PAUHDC__@@@Z ; CDC::FromHandle
; File C:\Program Files (x86)\Microsoft Visual Studio\2019\Community\VC\Tools\MSVC\14.29.30133\atlmfc\include\afxwin1.inl

; 151  : 	{ return (CFont*) CGdiObject::FromHandle(hFont); }

  00034	ff 75 20	 push	 DWORD PTR _p_hFont$[ebp]
; File D:\git\src\IBK\IBK_DRFN\ProjSrc\SrcChartEx\ChartAddIn\ChartEnvSetupDlgAddIn\ChartEnvSetupDlgAddIn\ChartStyleDataManagerAddInImp.cpp

; 124  : 	CDC *pDC = CDC::FromHandle( p_hDC);

  00037	89 45 f0	 mov	 DWORD PTR _pDC$1$[ebp], eax
; File C:\Program Files (x86)\Microsoft Visual Studio\2019\Community\VC\Tools\MSVC\14.29.30133\atlmfc\include\afxwin1.inl

; 151  : 	{ return (CFont*) CGdiObject::FromHandle(hFont); }

  0003a	e8 00 00 00 00	 call	 ?FromHandle@CGdiObject@@SGPAV1@PAX@Z ; CGdiObject::FromHandle
; File D:\git\src\IBK\IBK_DRFN\ProjSrc\SrcChartEx\ChartAddIn\ChartEnvSetupDlgAddIn\ChartEnvSetupDlgAddIn\ChartStyleDataManagerAddInImp.cpp

; 126  : 	CStyleData *pStyleData = m_styleDataManager.GetStyleData( p_nStyleIndex);

  0003f	6a 00		 push	 0
  00041	ff 75 1c	 push	 DWORD PTR _p_nStyleIndex$[ebp]
  00044	8d 4e 04	 lea	 ecx, DWORD PTR [esi+4]
  00047	89 45 08	 mov	 DWORD PTR _pFont$1$[ebp], eax
  0004a	e8 00 00 00 00	 call	 ?GetStyleData@CStyleDataManager@@QAEPAVCStyleData@@HH@Z ; CStyleDataManager::GetStyleData

; 127  : 	if( !pStyleData) return;

  0004f	85 c0		 test	 eax, eax
  00051	0f 84 a8 00 00
	00		 je	 $LN10@DrawSample

; 128  : 	CStyleData tempStyleData( *pStyleData);

  00057	50		 push	 eax
  00058	8d 8d f8 fe ff
	ff		 lea	 ecx, DWORD PTR _tempStyleData$[ebp]
  0005e	e8 00 00 00 00	 call	 ??0CStyleData@@QAE@ABV0@@Z ; CStyleData::CStyleData

; 129  : 	m_styleDataManager.GetStyleDataFromOCX( tempStyleData, m_pIChartOCX, FALSE);

  00063	6a 00		 push	 0
  00065	ff 76 dc	 push	 DWORD PTR [esi-36]
  00068	8d 85 f8 fe ff
	ff		 lea	 eax, DWORD PTR _tempStyleData$[ebp]
  0006e	c7 45 fc 00 00
	00 00		 mov	 DWORD PTR __$EHRec$[ebp+8], 0
  00075	50		 push	 eax
  00076	8d 4e 04	 lea	 ecx, DWORD PTR [esi+4]
  00079	e8 00 00 00 00	 call	 ?GetStyleDataFromOCX@CStyleDataManager@@QAEXAAVCStyleData@@PAUIChartOCX135914@@H@Z ; CStyleDataManager::GetStyleDataFromOCX
; File C:\Program Files (x86)\Microsoft Visual Studio\2019\Community\VC\Tools\MSVC\14.29.30133\atlmfc\include\atltypes.h

; 540  : 	left = l;

  0007e	8b 45 0c	 mov	 eax, DWORD PTR _p_nLeft$[ebp]
; File D:\git\src\IBK\IBK_DRFN\ProjSrc\SrcChartEx\ChartAddIn\ChartEnvSetupDlgAddIn\ChartEnvSetupDlgAddIn\ChartStyleDataManagerAddInImp.cpp

; 130  : 	m_styleDataManager.DrawSampleImage( pDC, CRect( p_nLeft, p_nTop, p_nRight, p_nBottom), &tempStyleData, ( CChartInfo::CHART_MODE)m_pIChartOCX->GetChartMode(), pFont, m_hOcxWnd, 20);

  00081	8b 4e dc	 mov	 ecx, DWORD PTR [esi-36]
; File C:\Program Files (x86)\Microsoft Visual Studio\2019\Community\VC\Tools\MSVC\14.29.30133\atlmfc\include\atltypes.h

; 540  : 	left = l;

  00084	89 45 e0	 mov	 DWORD PTR $T2[ebp], eax

; 541  : 	top = t;

  00087	8b 45 10	 mov	 eax, DWORD PTR _p_nTop$[ebp]
  0008a	89 45 e4	 mov	 DWORD PTR $T2[ebp+4], eax

; 542  : 	right = r;

  0008d	8b 45 14	 mov	 eax, DWORD PTR _p_nRight$[ebp]
  00090	89 45 e8	 mov	 DWORD PTR $T2[ebp+8], eax

; 543  : 	bottom = b;

  00093	8b 45 18	 mov	 eax, DWORD PTR _p_nBottom$[ebp]
  00096	89 45 ec	 mov	 DWORD PTR $T2[ebp+12], eax
; File D:\git\src\IBK\IBK_DRFN\ProjSrc\SrcChartEx\ChartAddIn\ChartEnvSetupDlgAddIn\ChartEnvSetupDlgAddIn\ChartStyleDataManagerAddInImp.cpp

; 130  : 	m_styleDataManager.DrawSampleImage( pDC, CRect( p_nLeft, p_nTop, p_nRight, p_nBottom), &tempStyleData, ( CChartInfo::CHART_MODE)m_pIChartOCX->GetChartMode(), pFont, m_hOcxWnd, 20);

  00099	8b 01		 mov	 eax, DWORD PTR [ecx]
  0009b	6a 14		 push	 20			; 00000014H
  0009d	ff 76 08	 push	 DWORD PTR [esi+8]
  000a0	ff 75 08	 push	 DWORD PTR _pFont$1$[ebp]
  000a3	8b 80 24 02 00
	00		 mov	 eax, DWORD PTR [eax+548]
  000a9	ff d0		 call	 eax
  000ab	0f 10 45 e0	 movups	 xmm0, XMMWORD PTR $T2[ebp]
  000af	50		 push	 eax
  000b0	8d 85 f8 fe ff
	ff		 lea	 eax, DWORD PTR _tempStyleData$[ebp]
  000b6	50		 push	 eax
  000b7	83 ec 10	 sub	 esp, 16			; 00000010H
  000ba	8d 4e 04	 lea	 ecx, DWORD PTR [esi+4]
  000bd	8b c4		 mov	 eax, esp
  000bf	ff 75 f0	 push	 DWORD PTR _pDC$1$[ebp]
  000c2	0f 11 00	 movups	 XMMWORD PTR [eax], xmm0
  000c5	e8 00 00 00 00	 call	 ?DrawSampleImage@CStyleDataManager@@QAEXPAVCDC@@VCRect@@PAVCStyleData@@W4CHART_MODE@CChartInfo@@PAVCFont@@PAUHWND__@@H@Z ; CStyleDataManager::DrawSampleImage
  000ca	8d 4d 94	 lea	 ecx, DWORD PTR _tempStyleData$[ebp+156]
  000cd	e8 00 00 00 00	 call	 ??1?$CList@V?$CStringT@DV?$StrTraitMFC_DLL@DV?$ChTraitsCRT@D@ATL@@@@@ATL@@V12@@@UAE@XZ ; CList<ATL::CStringT<char,StrTraitMFC_DLL<char,ATL::ChTraitsCRT<char> > >,ATL::CStringT<char,StrTraitMFC_DLL<char,ATL::ChTraitsCRT<char> > > >::~CList<ATL::CStringT<char,StrTraitMFC_DLL<char,ATL::ChTraitsCRT<char> > >,ATL::CStringT<char,StrTraitMFC_DLL<char,ATL::ChTraitsCRT<char> > > >
  000d2	8d 8d 78 ff ff
	ff		 lea	 ecx, DWORD PTR _tempStyleData$[ebp+128]
  000d8	e8 00 00 00 00	 call	 ??1?$CList@V?$CStringT@DV?$StrTraitMFC_DLL@DV?$ChTraitsCRT@D@ATL@@@@@ATL@@V12@@@UAE@XZ ; CList<ATL::CStringT<char,StrTraitMFC_DLL<char,ATL::ChTraitsCRT<char> > >,ATL::CStringT<char,StrTraitMFC_DLL<char,ATL::ChTraitsCRT<char> > > >::~CList<ATL::CStringT<char,StrTraitMFC_DLL<char,ATL::ChTraitsCRT<char> > >,ATL::CStringT<char,StrTraitMFC_DLL<char,ATL::ChTraitsCRT<char> > > >
  000dd	8d 8d 30 ff ff
	ff		 lea	 ecx, DWORD PTR _tempStyleData$[ebp+56]
  000e3	e8 00 00 00 00	 call	 ??1CDWordArray@@UAE@XZ	; CDWordArray::~CDWordArray
  000e8	8d 8d 1c ff ff
	ff		 lea	 ecx, DWORD PTR _tempStyleData$[ebp+36]
  000ee	e8 00 00 00 00	 call	 ??1CDWordArray@@UAE@XZ	; CDWordArray::~CDWordArray
  000f3	8d 8d f8 fe ff
	ff		 lea	 ecx, DWORD PTR _tempStyleData$[ebp]
  000f9	ff 15 00 00 00
	00		 call	 DWORD PTR __imp_??1?$CStringT@DV?$StrTraitMFC_DLL@DV?$ChTraitsCRT@D@ATL@@@@@ATL@@QAE@XZ
$LN10@DrawSample:

; 131  : }

  000ff	8b 4d f4	 mov	 ecx, DWORD PTR __$EHRec$[ebp]
  00102	64 89 0d 00 00
	00 00		 mov	 DWORD PTR fs:0, ecx
  00109	59		 pop	 ecx
  0010a	5f		 pop	 edi
  0010b	5e		 pop	 esi
  0010c	8b e5		 mov	 esp, ebp
  0010e	5d		 pop	 ebp
  0010f	c2 1c 00	 ret	 28			; 0000001cH
_TEXT	ENDS
;	COMDAT text$x
text$x	SEGMENT
__unwindfunclet$?DrawSampleImage@CChartStyleDataManagerAddInImp@@MAEXPAUHDC__@@HHHHHPAX@Z$0:
  00000	8d 8d f8 fe ff
	ff		 lea	 ecx, DWORD PTR _tempStyleData$[ebp]
  00006	e9 00 00 00 00	 jmp	 ??1CStyleData@@QAE@XZ
  0000b	cc		 int	 3
  0000c	cc		 int	 3
  0000d	cc		 int	 3
  0000e	cc		 int	 3
  0000f	cc		 int	 3
__ehhandler$?DrawSampleImage@CChartStyleDataManagerAddInImp@@MAEXPAUHDC__@@HHHHHPAX@Z:
  00010	90		 npad	 1
  00011	90		 npad	 1
  00012	8b 54 24 08	 mov	 edx, DWORD PTR [esp+8]
  00016	8d 42 0c	 lea	 eax, DWORD PTR [edx+12]
  00019	8b 8a f8 fe ff
	ff		 mov	 ecx, DWORD PTR [edx-264]
  0001f	33 c8		 xor	 ecx, eax
  00021	e8 00 00 00 00	 call	 @__security_check_cookie@4
  00026	b8 00 00 00 00	 mov	 eax, OFFSET __ehfuncinfo$?DrawSampleImage@CChartStyleDataManagerAddInImp@@MAEXPAUHDC__@@HHHHHPAX@Z
  0002b	e9 00 00 00 00	 jmp	 ___CxxFrameHandler3
text$x	ENDS
?DrawSampleImage@CChartStyleDataManagerAddInImp@@MAEXPAUHDC__@@HHHHHPAX@Z ENDP ; CChartStyleDataManagerAddInImp::DrawSampleImage
; Function compile flags: /Ogtp
; File D:\git\src\IBK\IBK_DRFN\ProjSrc\SrcChartEx\ChartAddIn\ChartEnvSetupDlgAddIn\ChartEnvSetupDlgAddIn\ChartStyleDataManagerAddInImp.cpp
; File D:\git\src\IBK\IBK_DRFN\ProjSrc\SrcChartEx\ChartAddIn\ChartEnvSetupDlgAddIn\Include_Chart\Dll_Load\IMetaTable.h
; File C:\Program Files (x86)\Microsoft Visual Studio\2019\Community\VC\Tools\MSVC\14.29.30133\atlmfc\include\afxwin1.inl
; File D:\git\src\IBK\IBK_DRFN\ProjSrc\SrcChartEx\ChartAddIn\ChartEnvSetupDlgAddIn\Include_Chart\Dll_Load\IMetaTable.h
; File C:\Program Files (x86)\Microsoft Visual Studio\2019\Community\VC\Tools\MSVC\14.29.30133\atlmfc\include\afxwin1.inl
; File D:\git\src\IBK\IBK_DRFN\ProjSrc\SrcChartEx\ChartAddIn\ChartEnvSetupDlgAddIn\ChartEnvSetupDlgAddIn\ChartStyleDataManagerAddInImp.cpp
; File D:\git\src\IBK\IBK_DRFN\ProjSrc\SrcChartEx\ChartAddIn\ChartEnvSetupDlgAddIn\Include_Chart\Dll_Load\IMetaTable.h
; File C:\Program Files (x86)\Microsoft Visual Studio\2019\Community\VC\Tools\MSVC\14.29.30133\atlmfc\include\afxwin1.inl
; File D:\git\src\IBK\IBK_DRFN\ProjSrc\SrcChartEx\ChartAddIn\ChartEnvSetupDlgAddIn\ChartEnvSetupDlgAddIn\ChartStyleDataManagerAddInImp.cpp
;	COMDAT ?LoadCurrentStyle@CChartStyleDataManagerAddInImp@@MAEXXZ
_TEXT	SEGMENT
___mlrs__$ = -16					; size = 4
__$EHRec$ = -12						; size = 12
?LoadCurrentStyle@CChartStyleDataManagerAddInImp@@MAEXXZ PROC ; CChartStyleDataManagerAddInImp::LoadCurrentStyle, COMDAT
; _this$ = ecx

; 118  : {

  00000	55		 push	 ebp
  00001	8b ec		 mov	 ebp, esp
  00003	6a ff		 push	 -1
  00005	68 00 00 00 00	 push	 __ehhandler$?LoadCurrentStyle@CChartStyleDataManagerAddInImp@@MAEXXZ
  0000a	64 a1 00 00 00
	00		 mov	 eax, DWORD PTR fs:0
  00010	50		 push	 eax
  00011	51		 push	 ecx
  00012	53		 push	 ebx
  00013	56		 push	 esi
  00014	57		 push	 edi
  00015	a1 00 00 00 00	 mov	 eax, DWORD PTR ___security_cookie
  0001a	33 c5		 xor	 eax, ebp
  0001c	50		 push	 eax
  0001d	8d 45 f4	 lea	 eax, DWORD PTR __$EHRec$[ebp]
  00020	64 a3 00 00 00
	00		 mov	 DWORD PTR fs:0, eax
  00026	8b d9		 mov	 ebx, ecx

; 119  : 	ML_SET_LANGUAGE_RES();

  00028	e8 00 00 00 00	 call	 ?AfxGetStaticModuleState@@YGPAVAFX_MODULE_STATE@@XZ ; AfxGetStaticModuleState
  0002d	8b 7b 08	 mov	 edi, DWORD PTR [ebx+8]
  00030	8b 70 08	 mov	 esi, DWORD PTR [eax+8]
; File D:\git\src\IBK\IBK_DRFN\ProjSrc\SrcChartEx\ChartAddIn\ChartEnvSetupDlgAddIn\Include_Chart\Dll_Load\IMetaTable.h

; 936  : 	DECLARE_FUNCTION2(	LoadResourceDLL,				HMODULE, AfxGetStaticModuleState()->m_hCurrentInstanceHandle, HWND, HMODULE);

  00033	a1 04 00 00 00	 mov	 eax, DWORD PTR ?g_iMetaTable@@3VIMetaTable@@A+4
  00038	85 c0		 test	 eax, eax
  0003a	74 4b		 je	 SHORT $LN7@LoadCurren
  0003c	b9 80 0d 00 00	 mov	 ecx, 3456		; 00000d80H
  00041	66 3b 0d 94 00
	00 00		 cmp	 cx, WORD PTR ?g_iMetaTable@@3VIMetaTable@@A+148
  00048	74 29		 je	 SHORT $LN20@LoadCurren
  0004a	68 00 00 00 00	 push	 OFFSET ??_C@_0BA@ENJOCHIO@LoadResourceDLL@
  0004f	50		 push	 eax
  00050	c7 05 90 00 00
	00 00 00 00 00	 mov	 DWORD PTR ?g_iMetaTable@@3VIMetaTable@@A+144, 0
  0005a	ff 15 00 00 00
	00		 call	 DWORD PTR __imp__GetProcAddress@8
  00060	b9 80 0d 00 00	 mov	 ecx, 3456		; 00000d80H
  00065	a3 90 00 00 00	 mov	 DWORD PTR ?g_iMetaTable@@3VIMetaTable@@A+144, eax
  0006a	66 89 0d 94 00
	00 00		 mov	 WORD PTR ?g_iMetaTable@@3VIMetaTable@@A+148, cx
  00071	eb 05		 jmp	 SHORT $LN6@LoadCurren
$LN20@LoadCurren:
  00073	a1 90 00 00 00	 mov	 eax, DWORD PTR ?g_iMetaTable@@3VIMetaTable@@A+144
$LN6@LoadCurren:
  00078	85 c0		 test	 eax, eax
  0007a	74 0b		 je	 SHORT $LN7@LoadCurren
  0007c	56		 push	 esi
  0007d	57		 push	 edi
  0007e	ff d0		 call	 eax
  00080	83 c4 08	 add	 esp, 8
  00083	8b f8		 mov	 edi, eax
  00085	eb 08		 jmp	 SHORT $LN4@LoadCurren
$LN7@LoadCurren:
  00087	e8 00 00 00 00	 call	 ?AfxGetStaticModuleState@@YGPAVAFX_MODULE_STATE@@XZ ; AfxGetStaticModuleState
  0008c	8b 78 08	 mov	 edi, DWORD PTR [eax+8]
$LN4@LoadCurren:
; File C:\Program Files (x86)\Microsoft Visual Studio\2019\Community\VC\Tools\MSVC\14.29.30133\atlmfc\include\afxwin1.inl

; 25   : 		return afxCurrentResourceHandle; }

  0008f	e8 00 00 00 00	 call	 ?AfxGetModuleState@@YGPAVAFX_MODULE_STATE@@XZ ; AfxGetModuleState
; File D:\git\src\IBK\IBK_DRFN\ProjSrc\SrcChartEx\ChartAddIn\ChartEnvSetupDlgAddIn\Include_Chart\Dll_Load\IMetaTable.h

; 1032 : 		m_hInstance = AfxGetResourceHandle();

  00094	8b 70 0c	 mov	 esi, DWORD PTR [eax+12]
  00097	89 75 f0	 mov	 DWORD PTR ___mlrs__$[ebp], esi
; File C:\Program Files (x86)\Microsoft Visual Studio\2019\Community\VC\Tools\MSVC\14.29.30133\atlmfc\include\afxwin1.inl

; 27   : 	{ ASSERT(hInstResource != NULL); afxCurrentResourceHandle = hInstResource; }

  0009a	e8 00 00 00 00	 call	 ?AfxGetModuleState@@YGPAVAFX_MODULE_STATE@@XZ ; AfxGetModuleState
  0009f	89 78 0c	 mov	 DWORD PTR [eax+12], edi
; File D:\git\src\IBK\IBK_DRFN\ProjSrc\SrcChartEx\ChartAddIn\ChartEnvSetupDlgAddIn\ChartEnvSetupDlgAddIn\ChartStyleDataManagerAddInImp.cpp

; 120  : 	m_styleDataManager.CreateDummyUserStyle( m_pIChartOCX);	

  000a2	ff 73 dc	 push	 DWORD PTR [ebx-36]
  000a5	8d 4b 04	 lea	 ecx, DWORD PTR [ebx+4]
  000a8	c7 45 fc 00 00
	00 00		 mov	 DWORD PTR __$EHRec$[ebp+8], 0
  000af	e8 00 00 00 00	 call	 ?CreateDummyUserStyle@CStyleDataManager@@QAEXPAUIChartOCX135914@@@Z ; CStyleDataManager::CreateDummyUserStyle
; File D:\git\src\IBK\IBK_DRFN\ProjSrc\SrcChartEx\ChartAddIn\ChartEnvSetupDlgAddIn\Include_Chart\Dll_Load\IMetaTable.h

; 1036 : 	{

  000b4	c7 45 fc 01 00
	00 00		 mov	 DWORD PTR __$EHRec$[ebp+8], 1
; File C:\Program Files (x86)\Microsoft Visual Studio\2019\Community\VC\Tools\MSVC\14.29.30133\atlmfc\include\afxwin1.inl

; 27   : 	{ ASSERT(hInstResource != NULL); afxCurrentResourceHandle = hInstResource; }

  000bb	e8 00 00 00 00	 call	 ?AfxGetModuleState@@YGPAVAFX_MODULE_STATE@@XZ ; AfxGetModuleState
  000c0	89 70 0c	 mov	 DWORD PTR [eax+12], esi
; File D:\git\src\IBK\IBK_DRFN\ProjSrc\SrcChartEx\ChartAddIn\ChartEnvSetupDlgAddIn\ChartEnvSetupDlgAddIn\ChartStyleDataManagerAddInImp.cpp

; 121  : }

  000c3	8b 4d f4	 mov	 ecx, DWORD PTR __$EHRec$[ebp]
  000c6	64 89 0d 00 00
	00 00		 mov	 DWORD PTR fs:0, ecx
  000cd	59		 pop	 ecx
  000ce	5f		 pop	 edi
  000cf	5e		 pop	 esi
  000d0	5b		 pop	 ebx
  000d1	8b e5		 mov	 esp, ebp
  000d3	5d		 pop	 ebp
  000d4	c3		 ret	 0
_TEXT	ENDS
;	COMDAT text$x
text$x	SEGMENT
__unwindfunclet$?LoadCurrentStyle@CChartStyleDataManagerAddInImp@@MAEXXZ$0:
  00000	8d 4d f0	 lea	 ecx, DWORD PTR ___mlrs__$[ebp]
  00003	e9 00 00 00 00	 jmp	 ??1CMultiLanguageResourceSetter@@QAE@XZ ; CMultiLanguageResourceSetter::~CMultiLanguageResourceSetter
  00008	cc		 int	 3
  00009	cc		 int	 3
  0000a	cc		 int	 3
  0000b	cc		 int	 3
  0000c	cc		 int	 3
__ehhandler$?LoadCurrentStyle@CChartStyleDataManagerAddInImp@@MAEXXZ:
  0000d	90		 npad	 1
  0000e	90		 npad	 1
  0000f	8b 54 24 08	 mov	 edx, DWORD PTR [esp+8]
  00013	8d 42 0c	 lea	 eax, DWORD PTR [edx+12]
  00016	8b 4a ec	 mov	 ecx, DWORD PTR [edx-20]
  00019	33 c8		 xor	 ecx, eax
  0001b	e8 00 00 00 00	 call	 @__security_check_cookie@4
  00020	b8 00 00 00 00	 mov	 eax, OFFSET __ehfuncinfo$?LoadCurrentStyle@CChartStyleDataManagerAddInImp@@MAEXXZ
  00025	e9 00 00 00 00	 jmp	 ___CxxFrameHandler3
text$x	ENDS
?LoadCurrentStyle@CChartStyleDataManagerAddInImp@@MAEXXZ ENDP ; CChartStyleDataManagerAddInImp::LoadCurrentStyle
; Function compile flags: /Ogtp
; File D:\git\src\IBK\IBK_DRFN\ProjSrc\SrcChartEx\ChartAddIn\ChartEnvSetupDlgAddIn\ChartEnvSetupDlgAddIn\ChartStyleDataManagerAddInImp.cpp
;	COMDAT ?OnAddInToolCommand@CChartStyleDataManagerAddInImp@@MAEHW4EAICommandType@@J@Z
_TEXT	SEGMENT
_p_eCommandID$ = 8					; size = 4
_p_lParam$ = 12						; size = 4
?OnAddInToolCommand@CChartStyleDataManagerAddInImp@@MAEHW4EAICommandType@@J@Z PROC ; CChartStyleDataManagerAddInImp::OnAddInToolCommand, COMDAT
; _this$ = ecx

; 103  : {

  00000	55		 push	 ebp
  00001	8b ec		 mov	 ebp, esp

; 104  : 	if( EAI_STYLE_SET_STYLE != p_eCommandID || p_lParam < 0) return FALSE;

  00003	83 7d 08 2c	 cmp	 DWORD PTR _p_eCommandID$[ebp], 44 ; 0000002cH
  00007	53		 push	 ebx
  00008	56		 push	 esi
  00009	57		 push	 edi
  0000a	8b f9		 mov	 edi, ecx
  0000c	75 44		 jne	 SHORT $LN3@OnAddInToo
  0000e	8b 75 0c	 mov	 esi, DWORD PTR _p_lParam$[ebp]
  00011	85 f6		 test	 esi, esi
  00013	78 3d		 js	 SHORT $LN3@OnAddInToo

; 105  : 
; 106  : 	if( m_styleDataManager.GetDataCount( TRUE) <= p_lParam) return FALSE;

  00015	6a 01		 push	 1
  00017	8d 4f 2c	 lea	 ecx, DWORD PTR [edi+44]
  0001a	e8 00 00 00 00	 call	 ?GetDataCount@CStyleDataManager@@QAEHH@Z ; CStyleDataManager::GetDataCount
  0001f	3b c6		 cmp	 eax, esi
  00021	7e 2f		 jle	 SHORT $LN3@OnAddInToo

; 107  : 
; 108  : 	CStyleData *pStyleData = m_styleDataManager.GetStyleData( p_lParam, TRUE);

  00023	6a 01		 push	 1
  00025	56		 push	 esi
  00026	8d 4f 2c	 lea	 ecx, DWORD PTR [edi+44]
  00029	e8 00 00 00 00	 call	 ?GetStyleData@CStyleDataManager@@QAEPAVCStyleData@@HH@Z ; CStyleDataManager::GetStyleData

; 109  : 	if( !pStyleData) return FALSE;

  0002e	85 c0		 test	 eax, eax
  00030	74 20		 je	 SHORT $LN3@OnAddInToo

; 110  : 
; 111  : 	m_styleDataManager.SetStyleDataToOCX( *pStyleData, m_pIChartOCX);

  00032	6a 00		 push	 0
  00034	6a 00		 push	 0
  00036	6a 00		 push	 0
  00038	6a 01		 push	 1
  0003a	ff 77 04	 push	 DWORD PTR [edi+4]
  0003d	50		 push	 eax
  0003e	e8 00 00 00 00	 call	 ?SetStyleDataToOCX@CStyleDataManager@@SAXAAVCStyleData@@PAUIChartOCX135914@@HHHH@Z ; CStyleDataManager::SetStyleDataToOCX
  00043	83 c4 18	 add	 esp, 24			; 00000018H

; 112  : 
; 113  : 	return TRUE;

  00046	b8 01 00 00 00	 mov	 eax, 1
  0004b	5f		 pop	 edi

; 114  : }

  0004c	5e		 pop	 esi
  0004d	5b		 pop	 ebx
  0004e	5d		 pop	 ebp
  0004f	c2 08 00	 ret	 8
$LN3@OnAddInToo:
  00052	5f		 pop	 edi
  00053	5e		 pop	 esi
  00054	33 c0		 xor	 eax, eax
  00056	5b		 pop	 ebx
  00057	5d		 pop	 ebp
  00058	c2 08 00	 ret	 8
?OnAddInToolCommand@CChartStyleDataManagerAddInImp@@MAEHW4EAICommandType@@J@Z ENDP ; CChartStyleDataManagerAddInImp::OnAddInToolCommand
_TEXT	ENDS
; Function compile flags: /Ogtp
; File D:\git\src\IBK\IBK_DRFN\ProjSrc\SrcChartEx\ChartAddIn\ChartEnvSetupDlgAddIn\ChartEnvSetupDlgAddIn\ChartStyleDataManagerAddInImp.cpp
;	COMDAT ?SetStyleToChart@CChartStyleDataManagerAddInImp@@MAEXH@Z
_TEXT	SEGMENT
_p_nStyleIndex$ = 8					; size = 4
?SetStyleToChart@CChartStyleDataManagerAddInImp@@MAEXH@Z PROC ; CChartStyleDataManagerAddInImp::SetStyleToChart, COMDAT
; _this$ = ecx

; 83   : {

  00000	55		 push	 ebp
  00001	8b ec		 mov	 ebp, esp
  00003	56		 push	 esi
  00004	8b f1		 mov	 esi, ecx
  00006	57		 push	 edi

; 84   : 	m_styleDataManager.Initialize( m_pIChartOCX);

  00007	6a 00		 push	 0
  00009	ff 76 dc	 push	 DWORD PTR [esi-36]
  0000c	8d 4e 04	 lea	 ecx, DWORD PTR [esi+4]
  0000f	e8 00 00 00 00	 call	 ?Initialize@CStyleDataManager@@QAEHPAUIChartOCX135914@@H@Z ; CStyleDataManager::Initialize

; 85   : 	if( m_styleDataManager.GetDataCount() <= p_nStyleIndex) return;

  00014	6a 00		 push	 0
  00016	8d 4e 04	 lea	 ecx, DWORD PTR [esi+4]
  00019	e8 00 00 00 00	 call	 ?GetDataCount@CStyleDataManager@@QAEHH@Z ; CStyleDataManager::GetDataCount
  0001e	8b 4d 08	 mov	 ecx, DWORD PTR _p_nStyleIndex$[ebp]
  00021	3b c1		 cmp	 eax, ecx
  00023	7e 23		 jle	 SHORT $LN1@SetStyleTo

; 86   : 	CStyleData *pStyleData = m_styleDataManager.GetStyleData( p_nStyleIndex);

  00025	6a 00		 push	 0
  00027	51		 push	 ecx
  00028	8d 4e 04	 lea	 ecx, DWORD PTR [esi+4]
  0002b	e8 00 00 00 00	 call	 ?GetStyleData@CStyleDataManager@@QAEPAVCStyleData@@HH@Z ; CStyleDataManager::GetStyleData

; 87   : 	if( !pStyleData) return;

  00030	85 c0		 test	 eax, eax
  00032	74 14		 je	 SHORT $LN1@SetStyleTo

; 88   : 	m_styleDataManager.SetStyleDataToOCX( *pStyleData, m_pIChartOCX);

  00034	6a 00		 push	 0
  00036	6a 00		 push	 0
  00038	6a 00		 push	 0
  0003a	6a 01		 push	 1
  0003c	ff 76 dc	 push	 DWORD PTR [esi-36]
  0003f	50		 push	 eax
  00040	e8 00 00 00 00	 call	 ?SetStyleDataToOCX@CStyleDataManager@@SAXAAVCStyleData@@PAUIChartOCX135914@@HHHH@Z ; CStyleDataManager::SetStyleDataToOCX
  00045	83 c4 18	 add	 esp, 24			; 00000018H
$LN1@SetStyleTo:

; 89   : }

  00048	5f		 pop	 edi
  00049	5e		 pop	 esi
  0004a	5d		 pop	 ebp
  0004b	c2 04 00	 ret	 4
?SetStyleToChart@CChartStyleDataManagerAddInImp@@MAEXH@Z ENDP ; CChartStyleDataManagerAddInImp::SetStyleToChart
_TEXT	ENDS
; Function compile flags: /Ogtp
; File D:\git\src\IBK\IBK_DRFN\ProjSrc\SrcChartEx\ChartAddIn\ChartEnvSetupDlgAddIn\ChartEnvSetupDlgAddIn\ChartStyleDataManagerAddInImp.cpp
;	COMDAT ?GetStyleName@CChartStyleDataManagerAddInImp@@MAEPBDH@Z
_TEXT	SEGMENT
__$EHRec$ = -12						; size = 12
$T2 = 8							; size = 4
_p_nStyleIndex$ = 8					; size = 4
?GetStyleName@CChartStyleDataManagerAddInImp@@MAEPBDH@Z PROC ; CChartStyleDataManagerAddInImp::GetStyleName, COMDAT
; _this$ = ecx

; 70   : {

  00000	55		 push	 ebp
  00001	8b ec		 mov	 ebp, esp
  00003	6a ff		 push	 -1
  00005	68 00 00 00 00	 push	 __ehhandler$?GetStyleName@CChartStyleDataManagerAddInImp@@MAEPBDH@Z
  0000a	64 a1 00 00 00
	00		 mov	 eax, DWORD PTR fs:0
  00010	50		 push	 eax
  00011	56		 push	 esi
  00012	57		 push	 edi
  00013	a1 00 00 00 00	 mov	 eax, DWORD PTR ___security_cookie
  00018	33 c5		 xor	 eax, ebp
  0001a	50		 push	 eax
  0001b	8d 45 f4	 lea	 eax, DWORD PTR __$EHRec$[ebp]
  0001e	64 a3 00 00 00
	00		 mov	 DWORD PTR fs:0, eax
  00024	8b f9		 mov	 edi, ecx

; 71   : 	static CString strResult;

  00026	64 a1 00 00 00
	00		 mov	 eax, DWORD PTR fs:__tls_array
  0002c	8b 15 00 00 00
	00		 mov	 edx, DWORD PTR __tls_index
  00032	8b 14 90	 mov	 edx, DWORD PTR [eax+edx*4]
  00035	a1 00 00 00 00	 mov	 eax, DWORD PTR ?$TSS0@?1??GetStyleName@CChartStyleDataManagerAddInImp@@MAEPBDH@Z@4HA
  0003a	3b 82 00 00 00
	00		 cmp	 eax, DWORD PTR __Init_thread_epoch[edx]
  00040	0f 8f 8c 00 00
	00		 jg	 $LN14@GetStyleNa
$LN2@GetStyleNa:

; 72   : 	strResult.Empty();

  00046	b9 00 00 00 00	 mov	 ecx, OFFSET ?strResult@?1??GetStyleName@CChartStyleDataManagerAddInImp@@MAEPBDH@Z@4V?$CStringT@DV?$StrTraitMFC_DLL@DV?$ChTraitsCRT@D@ATL@@@@@ATL@@A
  0004b	ff 15 00 00 00
	00		 call	 DWORD PTR __imp_?Empty@?$CSimpleStringT@D$00@ATL@@QAEXXZ

; 73   : 
; 74   : 	m_styleDataManager.Initialize( m_pIChartOCX);

  00051	6a 00		 push	 0
  00053	ff 77 dc	 push	 DWORD PTR [edi-36]
  00056	8d 4f 04	 lea	 ecx, DWORD PTR [edi+4]
  00059	e8 00 00 00 00	 call	 ?Initialize@CStyleDataManager@@QAEHPAUIChartOCX135914@@H@Z ; CStyleDataManager::Initialize

; 75   : 	if( m_styleDataManager.GetDataCount() <= p_nStyleIndex) return NULL;

  0005e	6a 00		 push	 0
  00060	8d 4f 04	 lea	 ecx, DWORD PTR [edi+4]
  00063	e8 00 00 00 00	 call	 ?GetDataCount@CStyleDataManager@@QAEHH@Z ; CStyleDataManager::GetDataCount
  00068	8b 4d 08	 mov	 ecx, DWORD PTR _p_nStyleIndex$[ebp]
  0006b	3b c1		 cmp	 eax, ecx
  0006d	7f 15		 jg	 SHORT $LN3@GetStyleNa
  0006f	33 c0		 xor	 eax, eax

; 80   : 	return strResult;
; 81   : }

  00071	8b 4d f4	 mov	 ecx, DWORD PTR __$EHRec$[ebp]
  00074	64 89 0d 00 00
	00 00		 mov	 DWORD PTR fs:0, ecx
  0007b	59		 pop	 ecx
  0007c	5f		 pop	 edi
  0007d	5e		 pop	 esi
  0007e	8b e5		 mov	 esp, ebp
  00080	5d		 pop	 ebp
  00081	c2 04 00	 ret	 4
$LN3@GetStyleNa:

; 76   : 	CStyleData *pStyleData = m_styleDataManager.GetStyleData( p_nStyleIndex);

  00084	6a 00		 push	 0
  00086	51		 push	 ecx
  00087	8d 4f 04	 lea	 ecx, DWORD PTR [edi+4]
  0008a	e8 00 00 00 00	 call	 ?GetStyleData@CStyleDataManager@@QAEPAVCStyleData@@HH@Z ; CStyleDataManager::GetStyleData

; 77   : 	if( !pStyleData) return strResult;

  0008f	85 c0		 test	 eax, eax
  00091	74 27		 je	 SHORT $LN12@GetStyleNa

; 78   : 
; 79   : 	strResult = pStyleData->GetStyleName();

  00093	8d 55 08	 lea	 edx, DWORD PTR $T2[ebp]
  00096	8b c8		 mov	 ecx, eax
  00098	52		 push	 edx
  00099	e8 00 00 00 00	 call	 ?GetStyleName@CStyleData@@QBE?AV?$CStringT@DV?$StrTraitMFC_DLL@DV?$ChTraitsCRT@D@ATL@@@@@ATL@@XZ ; CStyleData::GetStyleName
  0009e	50		 push	 eax
  0009f	b9 00 00 00 00	 mov	 ecx, OFFSET ?strResult@?1??GetStyleName@CChartStyleDataManagerAddInImp@@MAEPBDH@Z@4V?$CStringT@DV?$StrTraitMFC_DLL@DV?$ChTraitsCRT@D@ATL@@@@@ATL@@A
  000a4	c7 45 fc 00 00
	00 00		 mov	 DWORD PTR __$EHRec$[ebp+8], 0
  000ab	ff 15 00 00 00
	00		 call	 DWORD PTR __imp_??4?$CStringT@DV?$StrTraitMFC_DLL@DV?$ChTraitsCRT@D@ATL@@@@@ATL@@QAEAAV01@ABV01@@Z
  000b1	8d 4d 08	 lea	 ecx, DWORD PTR $T2[ebp]
  000b4	ff 15 00 00 00
	00		 call	 DWORD PTR __imp_??1?$CStringT@DV?$StrTraitMFC_DLL@DV?$ChTraitsCRT@D@ATL@@@@@ATL@@QAE@XZ
$LN12@GetStyleNa:

; 80   : 	return strResult;
; 81   : }

  000ba	a1 00 00 00 00	 mov	 eax, DWORD PTR ?strResult@?1??GetStyleName@CChartStyleDataManagerAddInImp@@MAEPBDH@Z@4V?$CStringT@DV?$StrTraitMFC_DLL@DV?$ChTraitsCRT@D@ATL@@@@@ATL@@A
  000bf	8b 4d f4	 mov	 ecx, DWORD PTR __$EHRec$[ebp]
  000c2	64 89 0d 00 00
	00 00		 mov	 DWORD PTR fs:0, ecx
  000c9	59		 pop	 ecx
  000ca	5f		 pop	 edi
  000cb	5e		 pop	 esi
  000cc	8b e5		 mov	 esp, ebp
  000ce	5d		 pop	 ebp
  000cf	c2 04 00	 ret	 4
$LN14@GetStyleNa:

; 71   : 	static CString strResult;

  000d2	68 00 00 00 00	 push	 OFFSET ?$TSS0@?1??GetStyleName@CChartStyleDataManagerAddInImp@@MAEPBDH@Z@4HA
  000d7	e8 00 00 00 00	 call	 __Init_thread_header
  000dc	83 c4 04	 add	 esp, 4
  000df	83 3d 00 00 00
	00 ff		 cmp	 DWORD PTR ?$TSS0@?1??GetStyleName@CChartStyleDataManagerAddInImp@@MAEPBDH@Z@4HA, -1
  000e6	0f 85 5a ff ff
	ff		 jne	 $LN2@GetStyleNa
  000ec	b9 00 00 00 00	 mov	 ecx, OFFSET ?strResult@?1??GetStyleName@CChartStyleDataManagerAddInImp@@MAEPBDH@Z@4V?$CStringT@DV?$StrTraitMFC_DLL@DV?$ChTraitsCRT@D@ATL@@@@@ATL@@A
  000f1	ff 15 00 00 00
	00		 call	 DWORD PTR __imp_??0?$CStringT@DV?$StrTraitMFC_DLL@DV?$ChTraitsCRT@D@ATL@@@@@ATL@@QAE@XZ
  000f7	68 00 00 00 00	 push	 OFFSET ??__FstrResult@?1??GetStyleName@CChartStyleDataManagerAddInImp@@MAEPBDH@Z@YAXXZ ; `CChartStyleDataManagerAddInImp::GetStyleName'::`2'::`dynamic atexit destructor for 'strResult''
  000fc	e8 00 00 00 00	 call	 _atexit
  00101	68 00 00 00 00	 push	 OFFSET ?$TSS0@?1??GetStyleName@CChartStyleDataManagerAddInImp@@MAEPBDH@Z@4HA
  00106	e8 00 00 00 00	 call	 __Init_thread_footer
  0010b	83 c4 08	 add	 esp, 8
  0010e	e9 33 ff ff ff	 jmp	 $LN2@GetStyleNa
_TEXT	ENDS
;	COMDAT text$x
text$x	SEGMENT
__unwindfunclet$?GetStyleName@CChartStyleDataManagerAddInImp@@MAEPBDH@Z$0:
  00000	8d 4d 08	 lea	 ecx, DWORD PTR $T2[ebp]
  00003	ff 25 00 00 00
	00		 jmp	 DWORD PTR __imp_??1?$CStringT@DV?$StrTraitMFC_DLL@DV?$ChTraitsCRT@D@ATL@@@@@ATL@@QAE@XZ
  00009	cc		 int	 3
  0000a	cc		 int	 3
  0000b	cc		 int	 3
  0000c	cc		 int	 3
  0000d	cc		 int	 3
__ehhandler$?GetStyleName@CChartStyleDataManagerAddInImp@@MAEPBDH@Z:
  0000e	90		 npad	 1
  0000f	90		 npad	 1
  00010	8b 54 24 08	 mov	 edx, DWORD PTR [esp+8]
  00014	8d 42 0c	 lea	 eax, DWORD PTR [edx+12]
  00017	8b 4a f4	 mov	 ecx, DWORD PTR [edx-12]
  0001a	33 c8		 xor	 ecx, eax
  0001c	e8 00 00 00 00	 call	 @__security_check_cookie@4
  00021	b8 00 00 00 00	 mov	 eax, OFFSET __ehfuncinfo$?GetStyleName@CChartStyleDataManagerAddInImp@@MAEPBDH@Z
  00026	e9 00 00 00 00	 jmp	 ___CxxFrameHandler3
text$x	ENDS
?GetStyleName@CChartStyleDataManagerAddInImp@@MAEPBDH@Z ENDP ; CChartStyleDataManagerAddInImp::GetStyleName
; Function compile flags: /Ogtp
; File D:\git\src\IBK\IBK_DRFN\ProjSrc\SrcChartEx\ChartAddIn\ChartEnvSetupDlgAddIn\ChartEnvSetupDlgAddIn\ChartStyleDataManagerAddInImp.cpp
;	COMDAT ?GetStyleCount@CChartStyleDataManagerAddInImp@@MAEHXZ
_TEXT	SEGMENT
?GetStyleCount@CChartStyleDataManagerAddInImp@@MAEHXZ PROC ; CChartStyleDataManagerAddInImp::GetStyleCount, COMDAT
; _this$ = ecx

; 65   : {

  00000	56		 push	 esi

; 66   : 	m_styleDataManager.Initialize( m_pIChartOCX);

  00001	6a 00		 push	 0
  00003	ff 71 dc	 push	 DWORD PTR [ecx-36]
  00006	8d 71 04	 lea	 esi, DWORD PTR [ecx+4]
  00009	8b ce		 mov	 ecx, esi
  0000b	e8 00 00 00 00	 call	 ?Initialize@CStyleDataManager@@QAEHPAUIChartOCX135914@@H@Z ; CStyleDataManager::Initialize

; 67   : 	return m_styleDataManager.GetDataCount();

  00010	6a 00		 push	 0
  00012	8b ce		 mov	 ecx, esi
  00014	e8 00 00 00 00	 call	 ?GetDataCount@CStyleDataManager@@QAEHH@Z ; CStyleDataManager::GetDataCount
  00019	5e		 pop	 esi

; 68   : }

  0001a	c3		 ret	 0
?GetStyleCount@CChartStyleDataManagerAddInImp@@MAEHXZ ENDP ; CChartStyleDataManagerAddInImp::GetStyleCount
_TEXT	ENDS
; Function compile flags: /Ogtp
; File D:\git\src\IBK\IBK_DRFN\ProjSrc\SrcChartEx\ChartAddIn\ChartEnvSetupDlgAddIn\ChartEnvSetupDlgAddIn\ChartStyleDataManagerAddInImp.h
;	COMDAT ?QueryInterface@CChartStyleDataManagerAddInImp@@MAGJABU_GUID@@PAPAX@Z
_TEXT	SEGMENT
_this$ = 8						; size = 4
_iid$ = 12						; size = 4
_ppvObject$ = 16					; size = 4
?QueryInterface@CChartStyleDataManagerAddInImp@@MAGJABU_GUID@@PAPAX@Z PROC ; CChartStyleDataManagerAddInImp::QueryInterface, COMDAT

; 38   : 	_IWRAPPER_IUNKNOWN_INTERFACE()

  00000	b8 02 40 00 80	 mov	 eax, -2147467262	; 80004002H
  00005	c2 0c 00	 ret	 12			; 0000000cH
?QueryInterface@CChartStyleDataManagerAddInImp@@MAGJABU_GUID@@PAPAX@Z ENDP ; CChartStyleDataManagerAddInImp::QueryInterface
_TEXT	ENDS
; Function compile flags: /Ogtp
; File D:\git\src\IBK\IBK_DRFN\ProjSrc\SrcChartEx\ChartAddIn\ChartEnvSetupDlgAddIn\ChartEnvSetupDlgAddIn\ChartStyleDataManagerAddInImp.h
;	COMDAT ?Release@CChartStyleDataManagerAddInImp@@MAGKXZ
_TEXT	SEGMENT
_this$ = 8						; size = 4
?Release@CChartStyleDataManagerAddInImp@@MAGKXZ PROC	; CChartStyleDataManagerAddInImp::Release, COMDAT

; 38   : 	_IWRAPPER_IUNKNOWN_INTERFACE()

  00000	55		 push	 ebp
  00001	8b ec		 mov	 ebp, esp
  00003	5d		 pop	 ebp
  00004	e9 00 00 00 00	 jmp	 ?Release@CIWUnknown@@MAGKXZ ; CIWUnknown::Release
?Release@CChartStyleDataManagerAddInImp@@MAGKXZ ENDP	; CChartStyleDataManagerAddInImp::Release
_TEXT	ENDS
; Function compile flags: /Ogtp
; File D:\git\src\IBK\IBK_DRFN\ProjSrc\SrcChartEx\ChartAddIn\ChartEnvSetupDlgAddIn\ChartEnvSetupDlgAddIn\ChartStyleDataManagerAddInImp.h
;	COMDAT ?AddRef@CChartStyleDataManagerAddInImp@@MAGKXZ
_TEXT	SEGMENT
_this$ = 8						; size = 4
?AddRef@CChartStyleDataManagerAddInImp@@MAGKXZ PROC	; CChartStyleDataManagerAddInImp::AddRef, COMDAT

; 38   : 	_IWRAPPER_IUNKNOWN_INTERFACE()

  00000	55		 push	 ebp
  00001	8b ec		 mov	 ebp, esp
  00003	5d		 pop	 ebp
  00004	e9 00 00 00 00	 jmp	 ?AddRef@CIWUnknown@@MAGKXZ ; CIWUnknown::AddRef
?AddRef@CChartStyleDataManagerAddInImp@@MAGKXZ ENDP	; CChartStyleDataManagerAddInImp::AddRef
_TEXT	ENDS
; Function compile flags: /Ogtp
; File D:\git\src\IBK\IBK_DRFN\ProjSrc\SrcChartEx\ChartAddIn\ChartEnvSetupDlgAddIn\ChartEnvSetupDlgAddIn\ChartStyleDataManagerAddInImp.cpp
;	COMDAT ?GetAddInCustomInterface@CChartStyleDataManagerAddInImp@@MAEPAUIUnknown@@XZ
_TEXT	SEGMENT
?GetAddInCustomInterface@CChartStyleDataManagerAddInImp@@MAEPAUIUnknown@@XZ PROC ; CChartStyleDataManagerAddInImp::GetAddInCustomInterface, COMDAT
; _this$ = ecx

; 54   : {

  00000	56		 push	 esi

; 55   : 	IUnknown *pIUnknown = ( IUnknown *)( IStyleManager *)this;
; 56   : 	pIUnknown->AddRef();

  00001	33 c0		 xor	 eax, eax
  00003	8d 71 28	 lea	 esi, DWORD PTR [ecx+40]
  00006	83 f9 08	 cmp	 ecx, 8
  00009	0f 44 f0	 cmove	 esi, eax
  0000c	56		 push	 esi
  0000d	8b 0e		 mov	 ecx, DWORD PTR [esi]
  0000f	ff 51 04	 call	 DWORD PTR [ecx+4]

; 57   : 	return pIUnknown;

  00012	8b c6		 mov	 eax, esi
  00014	5e		 pop	 esi

; 58   : }

  00015	c3		 ret	 0
?GetAddInCustomInterface@CChartStyleDataManagerAddInImp@@MAEPAUIUnknown@@XZ ENDP ; CChartStyleDataManagerAddInImp::GetAddInCustomInterface
_TEXT	ENDS
; Function compile flags: /Ogtp
; File D:\git\src\IBK\IBK_DRFN\ProjSrc\SrcChartEx\ChartAddIn\ChartEnvSetupDlgAddIn\ChartEnvSetupDlgAddIn\ChartStyleDataManagerAddInImp.h
;	COMDAT ?GetRegisteredEventMap@CChartStyleDataManagerAddInImp@@MBEPBW4EAddInEventType@IChartAddIn135914@@XZ
_TEXT	SEGMENT
?GetRegisteredEventMap@CChartStyleDataManagerAddInImp@@MBEPBW4EAddInEventType@IChartAddIn135914@@XZ PROC ; CChartStyleDataManagerAddInImp::GetRegisteredEventMap, COMDAT
; _this$ = ecx

; 23   : 	DECLARE_ADDIN_EVENT_MAP()

  00000	b8 00 00 00 00	 mov	 eax, OFFSET ?m_eRegisteredEventMap@CChartStyleDataManagerAddInImp@@1QBW4EAddInEventType@IChartAddIn135914@@B ; CChartStyleDataManagerAddInImp::m_eRegisteredEventMap
  00005	c3		 ret	 0
?GetRegisteredEventMap@CChartStyleDataManagerAddInImp@@MBEPBW4EAddInEventType@IChartAddIn135914@@XZ ENDP ; CChartStyleDataManagerAddInImp::GetRegisteredEventMap
_TEXT	ENDS
; Function compile flags: /Ogtp
; File D:\git\src\IBK\IBK_DRFN\ProjSrc\SrcChartEx\ChartAddIn\ChartEnvSetupDlgAddIn\ChartEnvSetupDlgAddIn\ChartStyleDataManagerAddInImp.cpp
;	COMDAT ??1CChartStyleDataManagerAddInImp@@UAE@XZ
_TEXT	SEGMENT
??1CChartStyleDataManagerAddInImp@@UAE@XZ PROC		; CChartStyleDataManagerAddInImp::~CChartStyleDataManagerAddInImp, COMDAT
; _this$ = ecx

; 34   : {

  00000	56		 push	 esi
  00001	8b f1		 mov	 esi, ecx

; 35   : 
; 36   : }

  00003	8d 4e 34	 lea	 ecx, DWORD PTR [esi+52]
  00006	c7 06 00 00 00
	00		 mov	 DWORD PTR [esi], OFFSET ??_7CChartStyleDataManagerAddInImp@@6BCIWUnknown@@@
  0000c	c7 46 08 00 00
	00 00		 mov	 DWORD PTR [esi+8], OFFSET ??_7CChartStyleDataManagerAddInImp@@6BIChartAddIn135914@@@
  00013	c7 46 30 00 00
	00 00		 mov	 DWORD PTR [esi+48], OFFSET ??_7CChartStyleDataManagerAddInImp@@6B@
  0001a	e8 00 00 00 00	 call	 ??1CStyleDataManager@@UAE@XZ ; CStyleDataManager::~CStyleDataManager
  0001f	c7 46 30 00 00
	00 00		 mov	 DWORD PTR [esi+48], OFFSET ??_7IStyleManager@@6B@
  00026	8b ce		 mov	 ecx, esi
  00028	5e		 pop	 esi
  00029	e9 00 00 00 00	 jmp	 ??1CChartAddInBase135914@@MAE@XZ ; CChartAddInBase135914::~CChartAddInBase135914
??1CChartStyleDataManagerAddInImp@@UAE@XZ ENDP		; CChartStyleDataManagerAddInImp::~CChartStyleDataManagerAddInImp
_TEXT	ENDS
; Function compile flags: /Ogtp
; File D:\git\src\IBK\IBK_DRFN\ProjSrc\SrcChartEx\ChartAddIn\ChartEnvSetupDlgAddIn\ChartEnvSetupDlgAddIn\ChartStyleDataManagerAddInImp.cpp
;	COMDAT ??0CChartStyleDataManagerAddInImp@@QAE@PAUIChartOCX135914@@PAUIAddInDllBase@@@Z
_TEXT	SEGMENT
_this$ = -16						; size = 4
__$EHRec$ = -12						; size = 12
_p_pIChartOCX$ = 8					; size = 4
_p_pIAddInDllBase$ = 12					; size = 4
??0CChartStyleDataManagerAddInImp@@QAE@PAUIChartOCX135914@@PAUIAddInDllBase@@@Z PROC ; CChartStyleDataManagerAddInImp::CChartStyleDataManagerAddInImp, COMDAT
; _this$ = ecx

; 24   : {

  00000	55		 push	 ebp
  00001	8b ec		 mov	 ebp, esp
  00003	6a ff		 push	 -1
  00005	68 00 00 00 00	 push	 __ehhandler$??0CChartStyleDataManagerAddInImp@@QAE@PAUIChartOCX135914@@PAUIAddInDllBase@@@Z
  0000a	64 a1 00 00 00
	00		 mov	 eax, DWORD PTR fs:0
  00010	50		 push	 eax
  00011	51		 push	 ecx
  00012	53		 push	 ebx
  00013	56		 push	 esi
  00014	57		 push	 edi
  00015	a1 00 00 00 00	 mov	 eax, DWORD PTR ___security_cookie
  0001a	33 c5		 xor	 eax, ebp
  0001c	50		 push	 eax
  0001d	8d 45 f4	 lea	 eax, DWORD PTR __$EHRec$[ebp]
  00020	64 a3 00 00 00
	00		 mov	 DWORD PTR fs:0, eax
  00026	8b f1		 mov	 esi, ecx
  00028	89 75 f0	 mov	 DWORD PTR _this$[ebp], esi

; 23   : 	: CChartAddInBase( p_pIChartOCX, p_pIAddInDllBase)

  0002b	ff 75 0c	 push	 DWORD PTR _p_pIAddInDllBase$[ebp]
  0002e	8b 7d 08	 mov	 edi, DWORD PTR _p_pIChartOCX$[ebp]
  00031	57		 push	 edi
  00032	e8 00 00 00 00	 call	 ??0CChartAddInBase135914@@IAE@PAUIChartOCX135914@@PAUIAddInDllBase@@@Z ; CChartAddInBase135914::CChartAddInBase135914
  00037	c7 45 fc 00 00
	00 00		 mov	 DWORD PTR __$EHRec$[ebp+8], 0
  0003e	c7 46 30 00 00
	00 00		 mov	 DWORD PTR [esi+48], OFFSET ??_7IStyleManager@@6B@

; 24   : {

  00045	8d 4e 34	 lea	 ecx, DWORD PTR [esi+52]
  00048	c6 45 fc 01	 mov	 BYTE PTR __$EHRec$[ebp+8], 1
  0004c	c7 06 00 00 00
	00		 mov	 DWORD PTR [esi], OFFSET ??_7CChartStyleDataManagerAddInImp@@6BCIWUnknown@@@
  00052	c7 46 08 00 00
	00 00		 mov	 DWORD PTR [esi+8], OFFSET ??_7CChartStyleDataManagerAddInImp@@6BIChartAddIn135914@@@
  00059	c7 46 30 00 00
	00 00		 mov	 DWORD PTR [esi+48], OFFSET ??_7CChartStyleDataManagerAddInImp@@6B@
  00060	e8 00 00 00 00	 call	 ??0CStyleDataManager@@QAE@XZ ; CStyleDataManager::CStyleDataManager
  00065	c6 45 fc 02	 mov	 BYTE PTR __$EHRec$[ebp+8], 2

; 25   : // 2008.01.25 by LYH >>
; 26   : 	m_hOcxWnd = NULL;

  00069	c7 46 38 00 00
	00 00		 mov	 DWORD PTR [esi+56], 0

; 27   : 	if( p_pIChartOCX) m_hOcxWnd = p_pIChartOCX->GetOcxHwnd();

  00070	85 ff		 test	 edi, edi
  00072	74 0a		 je	 SHORT $LN2@CChartStyl
  00074	8b 07		 mov	 eax, DWORD PTR [edi]
  00076	8b cf		 mov	 ecx, edi
  00078	ff 50 40	 call	 DWORD PTR [eax+64]
  0007b	89 46 38	 mov	 DWORD PTR [esi+56], eax
$LN2@CChartStyl:

; 28   : // 2008.01.25 by LYH <<
; 29   : 
; 30   : 	m_styleDataManager.Initialize( m_pIChartOCX, TRUE);

  0007e	6a 01		 push	 1
  00080	ff 76 0c	 push	 DWORD PTR [esi+12]
  00083	8d 4e 34	 lea	 ecx, DWORD PTR [esi+52]
  00086	e8 00 00 00 00	 call	 ?Initialize@CStyleDataManager@@QAEHPAUIChartOCX135914@@H@Z ; CStyleDataManager::Initialize

; 31   : }

  0008b	8b c6		 mov	 eax, esi
  0008d	8b 4d f4	 mov	 ecx, DWORD PTR __$EHRec$[ebp]
  00090	64 89 0d 00 00
	00 00		 mov	 DWORD PTR fs:0, ecx
  00097	59		 pop	 ecx
  00098	5f		 pop	 edi
  00099	5e		 pop	 esi
  0009a	5b		 pop	 ebx
  0009b	8b e5		 mov	 esp, ebp
  0009d	5d		 pop	 ebp
  0009e	c2 08 00	 ret	 8
_TEXT	ENDS
;	COMDAT text$x
text$x	SEGMENT
__unwindfunclet$??0CChartStyleDataManagerAddInImp@@QAE@PAUIChartOCX135914@@PAUIAddInDllBase@@@Z$0:
  00000	8b 4d f0	 mov	 ecx, DWORD PTR _this$[ebp]
  00003	e9 00 00 00 00	 jmp	 ??1CChartAddInBase135914@@MAE@XZ ; CChartAddInBase135914::~CChartAddInBase135914
__unwindfunclet$??0CChartStyleDataManagerAddInImp@@QAE@PAUIChartOCX135914@@PAUIAddInDllBase@@@Z$1:
  00008	8b 4d f0	 mov	 ecx, DWORD PTR _this$[ebp]
  0000b	83 c1 30	 add	 ecx, 48			; 00000030H
  0000e	e9 00 00 00 00	 jmp	 ??1IStyleManager@@MAE@XZ ; IStyleManager::~IStyleManager
__unwindfunclet$??0CChartStyleDataManagerAddInImp@@QAE@PAUIChartOCX135914@@PAUIAddInDllBase@@@Z$2:
  00013	8b 4d f0	 mov	 ecx, DWORD PTR _this$[ebp]
  00016	83 c1 34	 add	 ecx, 52			; 00000034H
  00019	e9 00 00 00 00	 jmp	 ??1CStyleDataManager@@UAE@XZ ; CStyleDataManager::~CStyleDataManager
  0001e	cc		 int	 3
  0001f	cc		 int	 3
  00020	cc		 int	 3
  00021	cc		 int	 3
  00022	cc		 int	 3
__ehhandler$??0CChartStyleDataManagerAddInImp@@QAE@PAUIChartOCX135914@@PAUIAddInDllBase@@@Z:
  00023	90		 npad	 1
  00024	90		 npad	 1
  00025	8b 54 24 08	 mov	 edx, DWORD PTR [esp+8]
  00029	8d 42 0c	 lea	 eax, DWORD PTR [edx+12]
  0002c	8b 4a ec	 mov	 ecx, DWORD PTR [edx-20]
  0002f	33 c8		 xor	 ecx, eax
  00031	e8 00 00 00 00	 call	 @__security_check_cookie@4
  00036	b8 00 00 00 00	 mov	 eax, OFFSET __ehfuncinfo$??0CChartStyleDataManagerAddInImp@@QAE@PAUIChartOCX135914@@PAUIAddInDllBase@@@Z
  0003b	e9 00 00 00 00	 jmp	 ___CxxFrameHandler3
text$x	ENDS
??0CChartStyleDataManagerAddInImp@@QAE@PAUIChartOCX135914@@PAUIAddInDllBase@@@Z ENDP ; CChartStyleDataManagerAddInImp::CChartStyleDataManagerAddInImp
; Function compile flags: /Ogtp
; File D:\git\src\IBK\IBK_DRFN\ProjSrc\SrcChartEx\ChartAddIn\ChartEnvSetupDlgAddIn\Include_AddIn_135914\I135914\_ChartAddInBase.h
;	COMDAT ?OnRButtonDblClk@CChartAddInBase135914@@MAEHPAUHDC__@@IAAUtagPOINT@@K@Z
_TEXT	SEGMENT
_p_hDC$ = 8						; size = 4
_nFlags$ = 12						; size = 4
_point$ = 16						; size = 4
_p_dwMouseActionID$ = 20				; size = 4
?OnRButtonDblClk@CChartAddInBase135914@@MAEHPAUHDC__@@IAAUtagPOINT@@K@Z PROC ; CChartAddInBase135914::OnRButtonDblClk, COMDAT
; _this$ = ecx

; 158  : 	virtual BOOL	OnRButtonDblClk(	HDC p_hDC, UINT nFlags, POINT &point, const DWORD p_dwMouseActionID)									{	return FALSE;	}

  00000	33 c0		 xor	 eax, eax
  00002	c2 10 00	 ret	 16			; 00000010H
?OnRButtonDblClk@CChartAddInBase135914@@MAEHPAUHDC__@@IAAUtagPOINT@@K@Z ENDP ; CChartAddInBase135914::OnRButtonDblClk
_TEXT	ENDS
; Function compile flags: /Ogtp
; File D:\git\src\IBK\IBK_DRFN\ProjSrc\SrcChartEx\ChartAddIn\ChartEnvSetupDlgAddIn\Include_AddIn_135914\I135914\_ChartAddInBase.h
;	COMDAT ?OnRButtonUp@CChartAddInBase135914@@MAEHPAUHDC__@@IAAUtagPOINT@@K@Z
_TEXT	SEGMENT
_p_hDC$ = 8						; size = 4
_nFlags$ = 12						; size = 4
_point$ = 16						; size = 4
_p_dwMouseActionID$ = 20				; size = 4
?OnRButtonUp@CChartAddInBase135914@@MAEHPAUHDC__@@IAAUtagPOINT@@K@Z PROC ; CChartAddInBase135914::OnRButtonUp, COMDAT
; _this$ = ecx

; 157  : 	virtual BOOL	OnRButtonUp(		HDC p_hDC, UINT nFlags, POINT &point, const DWORD p_dwMouseActionID)									{	return FALSE;	}

  00000	33 c0		 xor	 eax, eax
  00002	c2 10 00	 ret	 16			; 00000010H
?OnRButtonUp@CChartAddInBase135914@@MAEHPAUHDC__@@IAAUtagPOINT@@K@Z ENDP ; CChartAddInBase135914::OnRButtonUp
_TEXT	ENDS
; Function compile flags: /Ogtp
; File D:\git\src\IBK\IBK_DRFN\ProjSrc\SrcChartEx\ChartAddIn\ChartEnvSetupDlgAddIn\Include_AddIn_135914\I135914\_ChartAddInBase.h
;	COMDAT ?OnRButtonDown@CChartAddInBase135914@@MAEHPAUHDC__@@IAAUtagPOINT@@K@Z
_TEXT	SEGMENT
_p_hDC$ = 8						; size = 4
_nFlags$ = 12						; size = 4
_point$ = 16						; size = 4
_p_dwMouseActionID$ = 20				; size = 4
?OnRButtonDown@CChartAddInBase135914@@MAEHPAUHDC__@@IAAUtagPOINT@@K@Z PROC ; CChartAddInBase135914::OnRButtonDown, COMDAT
; _this$ = ecx

; 156  : 	virtual BOOL	OnRButtonDown(		HDC p_hDC, UINT nFlags, POINT &point, const DWORD p_dwMouseActionID)									{	return FALSE;	}

  00000	33 c0		 xor	 eax, eax
  00002	c2 10 00	 ret	 16			; 00000010H
?OnRButtonDown@CChartAddInBase135914@@MAEHPAUHDC__@@IAAUtagPOINT@@K@Z ENDP ; CChartAddInBase135914::OnRButtonDown
_TEXT	ENDS
; Function compile flags: /Ogtp
; File D:\git\src\IBK\IBK_DRFN\ProjSrc\SrcChartEx\ChartAddIn\ChartEnvSetupDlgAddIn\Include_AddIn_135914\I135914\_ChartAddInBase.h
;	COMDAT ?OnLButtonDblClk@CChartAddInBase135914@@MAEHPAUHDC__@@IAAUtagPOINT@@K@Z
_TEXT	SEGMENT
_p_hDC$ = 8						; size = 4
_nFlags$ = 12						; size = 4
_point$ = 16						; size = 4
_p_dwMouseActionID$ = 20				; size = 4
?OnLButtonDblClk@CChartAddInBase135914@@MAEHPAUHDC__@@IAAUtagPOINT@@K@Z PROC ; CChartAddInBase135914::OnLButtonDblClk, COMDAT
; _this$ = ecx

; 155  : 	virtual BOOL	OnLButtonDblClk(	HDC p_hDC, UINT nFlags, POINT &point, const DWORD p_dwMouseActionID)									{	return FALSE;	}

  00000	33 c0		 xor	 eax, eax
  00002	c2 10 00	 ret	 16			; 00000010H
?OnLButtonDblClk@CChartAddInBase135914@@MAEHPAUHDC__@@IAAUtagPOINT@@K@Z ENDP ; CChartAddInBase135914::OnLButtonDblClk
_TEXT	ENDS
; Function compile flags: /Ogtp
; File D:\git\src\IBK\IBK_DRFN\ProjSrc\SrcChartEx\ChartAddIn\ChartEnvSetupDlgAddIn\Include_AddIn_135914\I135914\_ChartAddInBase.h
;	COMDAT ?OnLButtonUp@CChartAddInBase135914@@MAEHPAUHDC__@@IAAUtagPOINT@@K@Z
_TEXT	SEGMENT
_p_hDC$ = 8						; size = 4
_nFlags$ = 12						; size = 4
_point$ = 16						; size = 4
_p_dwMouseActionID$ = 20				; size = 4
?OnLButtonUp@CChartAddInBase135914@@MAEHPAUHDC__@@IAAUtagPOINT@@K@Z PROC ; CChartAddInBase135914::OnLButtonUp, COMDAT
; _this$ = ecx

; 154  : 	virtual BOOL	OnLButtonUp(		HDC p_hDC, UINT nFlags, POINT &point, const DWORD p_dwMouseActionID)									{	return FALSE;	}

  00000	33 c0		 xor	 eax, eax
  00002	c2 10 00	 ret	 16			; 00000010H
?OnLButtonUp@CChartAddInBase135914@@MAEHPAUHDC__@@IAAUtagPOINT@@K@Z ENDP ; CChartAddInBase135914::OnLButtonUp
_TEXT	ENDS
; Function compile flags: /Ogtp
; File D:\git\src\IBK\IBK_DRFN\ProjSrc\SrcChartEx\ChartAddIn\ChartEnvSetupDlgAddIn\Include_AddIn_135914\I135914\_ChartAddInBase.h
;	COMDAT ?OnLButtonDown@CChartAddInBase135914@@MAEHPAUHDC__@@IAAUtagPOINT@@K@Z
_TEXT	SEGMENT
_p_hDC$ = 8						; size = 4
_nFlags$ = 12						; size = 4
_point$ = 16						; size = 4
_p_dwMouseActionID$ = 20				; size = 4
?OnLButtonDown@CChartAddInBase135914@@MAEHPAUHDC__@@IAAUtagPOINT@@K@Z PROC ; CChartAddInBase135914::OnLButtonDown, COMDAT
; _this$ = ecx

; 153  : 	virtual BOOL	OnLButtonDown(		HDC p_hDC, UINT nFlags, POINT &point, const DWORD p_dwMouseActionID)									{	return FALSE;	}

  00000	33 c0		 xor	 eax, eax
  00002	c2 10 00	 ret	 16			; 00000010H
?OnLButtonDown@CChartAddInBase135914@@MAEHPAUHDC__@@IAAUtagPOINT@@K@Z ENDP ; CChartAddInBase135914::OnLButtonDown
_TEXT	ENDS
; Function compile flags: /Ogtp
; File D:\git\src\IBK\IBK_DRFN\ProjSrc\SrcChartEx\ChartAddIn\ChartEnvSetupDlgAddIn\Include_AddIn_135914\I135914\_ChartAddInBase.h
;	COMDAT ?OnMouseMove@CChartAddInBase135914@@MAEHPAUHDC__@@IAAUtagPOINT@@K@Z
_TEXT	SEGMENT
_p_hDC$ = 8						; size = 4
_nFlags$ = 12						; size = 4
_point$ = 16						; size = 4
_p_dwMouseActionID$ = 20				; size = 4
?OnMouseMove@CChartAddInBase135914@@MAEHPAUHDC__@@IAAUtagPOINT@@K@Z PROC ; CChartAddInBase135914::OnMouseMove, COMDAT
; _this$ = ecx

; 152  : 	virtual BOOL	OnMouseMove(		HDC p_hDC, UINT nFlags, POINT &point, const DWORD p_dwMouseActionID)									{	return FALSE;	}

  00000	33 c0		 xor	 eax, eax
  00002	c2 10 00	 ret	 16			; 00000010H
?OnMouseMove@CChartAddInBase135914@@MAEHPAUHDC__@@IAAUtagPOINT@@K@Z ENDP ; CChartAddInBase135914::OnMouseMove
_TEXT	ENDS
; Function compile flags: /Ogtp
; File D:\git\src\IBK\IBK_DRFN\ProjSrc\SrcChartEx\ChartAddIn\ChartEnvSetupDlgAddIn\Include_AddIn_135914\I135914\_ChartAddInBase.h
;	COMDAT ?OnMouseWheel@CChartAddInBase135914@@MAEHIFUtagPOINT@@K@Z
_TEXT	SEGMENT
_nFlags$ = 8						; size = 4
_zDelta$ = 12						; size = 2
_pt$ = 16						; size = 8
_p_dwMouseActionID$ = 24				; size = 4
?OnMouseWheel@CChartAddInBase135914@@MAEHIFUtagPOINT@@K@Z PROC ; CChartAddInBase135914::OnMouseWheel, COMDAT
; _this$ = ecx

; 151  : 	virtual BOOL	OnMouseWheel(		UINT nFlags, short zDelta, POINT pt, const DWORD p_dwMouseActionID)										{	return FALSE;	}

  00000	33 c0		 xor	 eax, eax
  00002	c2 14 00	 ret	 20			; 00000014H
?OnMouseWheel@CChartAddInBase135914@@MAEHIFUtagPOINT@@K@Z ENDP ; CChartAddInBase135914::OnMouseWheel
_TEXT	ENDS
; Function compile flags: /Ogtp
; File D:\git\src\IBK\IBK_DRFN\ProjSrc\SrcChartEx\ChartAddIn\ChartEnvSetupDlgAddIn\Include_AddIn_135914\I135914\_ChartAddInBase.h
;	COMDAT ?OnKeyUp@CChartAddInBase135914@@MAEHIII@Z
_TEXT	SEGMENT
_nChar$ = 8						; size = 4
_nRepCnt$ = 12						; size = 4
_nFlags$ = 16						; size = 4
?OnKeyUp@CChartAddInBase135914@@MAEHIII@Z PROC		; CChartAddInBase135914::OnKeyUp, COMDAT
; _this$ = ecx

; 150  : 	virtual BOOL	OnKeyUp(			UINT nChar, UINT nRepCnt, UINT nFlags)																	{	return FALSE;	}

  00000	33 c0		 xor	 eax, eax
  00002	c2 0c 00	 ret	 12			; 0000000cH
?OnKeyUp@CChartAddInBase135914@@MAEHIII@Z ENDP		; CChartAddInBase135914::OnKeyUp
_TEXT	ENDS
; Function compile flags: /Ogtp
; File D:\git\src\IBK\IBK_DRFN\ProjSrc\SrcChartEx\ChartAddIn\ChartEnvSetupDlgAddIn\Include_AddIn_135914\I135914\_ChartAddInBase.h
;	COMDAT ?OnKeyDown@CChartAddInBase135914@@MAEHIII@Z
_TEXT	SEGMENT
_nChar$ = 8						; size = 4
_nRepCnt$ = 12						; size = 4
_nFlags$ = 16						; size = 4
?OnKeyDown@CChartAddInBase135914@@MAEHIII@Z PROC	; CChartAddInBase135914::OnKeyDown, COMDAT
; _this$ = ecx

; 149  : 	virtual BOOL	OnKeyDown(			UINT nChar, UINT nRepCnt, UINT nFlags)																	{	return FALSE;	}

  00000	33 c0		 xor	 eax, eax
  00002	c2 0c 00	 ret	 12			; 0000000cH
?OnKeyDown@CChartAddInBase135914@@MAEHIII@Z ENDP	; CChartAddInBase135914::OnKeyDown
_TEXT	ENDS
; Function compile flags: /Ogtp
; File D:\git\src\IBK\IBK_DRFN\ProjSrc\SrcChartEx\ChartAddIn\ChartEnvSetupDlgAddIn\Include_AddIn_135914\I135914\_ChartAddInBase.h
;	COMDAT ?OnAddInToolCommand@CChartAddInBase135914@@MAEHAAJW4EAICommandType@@JJ@Z
_TEXT	SEGMENT
_p_lResult$ = 8						; size = 4
_p_eCommandID$ = 12					; size = 4
_p_lParam1$ = 16					; size = 4
_p_lParam2$ = 20					; size = 4
?OnAddInToolCommand@CChartAddInBase135914@@MAEHAAJW4EAICommandType@@JJ@Z PROC ; CChartAddInBase135914::OnAddInToolCommand, COMDAT
; _this$ = ecx

; 147  : 	virtual BOOL	OnAddInToolCommand(	long &p_lResult, const EAICommandType p_eCommandID, const long p_lParam1, const long p_lParam2)			{	return FALSE;	}

  00000	33 c0		 xor	 eax, eax
  00002	c2 10 00	 ret	 16			; 00000010H
?OnAddInToolCommand@CChartAddInBase135914@@MAEHAAJW4EAICommandType@@JJ@Z ENDP ; CChartAddInBase135914::OnAddInToolCommand
_TEXT	ENDS
; Function compile flags: /Ogtp
; File D:\git\src\IBK\IBK_DRFN\ProjSrc\SrcChartEx\ChartAddIn\ChartEnvSetupDlgAddIn\Include_AddIn_135914\I135914\_ChartAddInBase.h
;	COMDAT ?OnAddInToolCommand@CChartAddInBase135914@@MAEHAAJW4EAICommandType@@J@Z
_TEXT	SEGMENT
_p_lResult$ = 8						; size = 4
_p_eCommandID$ = 12					; size = 4
_p_lParam$ = 16						; size = 4
?OnAddInToolCommand@CChartAddInBase135914@@MAEHAAJW4EAICommandType@@J@Z PROC ; CChartAddInBase135914::OnAddInToolCommand, COMDAT
; _this$ = ecx

; 146  : 	virtual BOOL	OnAddInToolCommand(	long &p_lResult, const EAICommandType p_eCommandID, const long p_lParam)								{	return FALSE;	}

  00000	33 c0		 xor	 eax, eax
  00002	c2 0c 00	 ret	 12			; 0000000cH
?OnAddInToolCommand@CChartAddInBase135914@@MAEHAAJW4EAICommandType@@J@Z ENDP ; CChartAddInBase135914::OnAddInToolCommand
_TEXT	ENDS
; Function compile flags: /Ogtp
; File D:\git\src\IBK\IBK_DRFN\ProjSrc\SrcChartEx\ChartAddIn\ChartEnvSetupDlgAddIn\Include_AddIn_135914\I135914\_ChartAddInBase.h
;	COMDAT ?OnAddInToolCommand@CChartAddInBase135914@@MAEHAAJW4EAICommandType@@PBDPAVCObject@@@Z
_TEXT	SEGMENT
_p_lResult$ = 8						; size = 4
_p_eCommandID$ = 12					; size = 4
_p_szParam$ = 16					; size = 4
_p_pParam$ = 20						; size = 4
?OnAddInToolCommand@CChartAddInBase135914@@MAEHAAJW4EAICommandType@@PBDPAVCObject@@@Z PROC ; CChartAddInBase135914::OnAddInToolCommand, COMDAT
; _this$ = ecx

; 145  : 	virtual BOOL	OnAddInToolCommand(	long &p_lResult, const EAICommandType p_eCommandID, const char *p_szParam, CObject *p_pParam)			{	return FALSE;	}

  00000	33 c0		 xor	 eax, eax
  00002	c2 10 00	 ret	 16			; 00000010H
?OnAddInToolCommand@CChartAddInBase135914@@MAEHAAJW4EAICommandType@@PBDPAVCObject@@@Z ENDP ; CChartAddInBase135914::OnAddInToolCommand
_TEXT	ENDS
; Function compile flags: /Ogtp
; File D:\git\src\IBK\IBK_DRFN\ProjSrc\SrcChartEx\ChartAddIn\ChartEnvSetupDlgAddIn\Include_AddIn_135914\I135914\_ChartAddInBase.h
;	COMDAT ?OnAddInToolCommand@CChartAddInBase135914@@MAEHAAJW4EAICommandType@@PBD@Z
_TEXT	SEGMENT
_p_lResult$ = 8						; size = 4
_p_eCommandID$ = 12					; size = 4
_p_szParam$ = 16					; size = 4
?OnAddInToolCommand@CChartAddInBase135914@@MAEHAAJW4EAICommandType@@PBD@Z PROC ; CChartAddInBase135914::OnAddInToolCommand, COMDAT
; _this$ = ecx

; 144  : 	virtual BOOL	OnAddInToolCommand(	long &p_lResult, const EAICommandType p_eCommandID, const char *p_szParam)								{	return FALSE;	}

  00000	33 c0		 xor	 eax, eax
  00002	c2 0c 00	 ret	 12			; 0000000cH
?OnAddInToolCommand@CChartAddInBase135914@@MAEHAAJW4EAICommandType@@PBD@Z ENDP ; CChartAddInBase135914::OnAddInToolCommand
_TEXT	ENDS
; Function compile flags: /Ogtp
; File D:\git\src\IBK\IBK_DRFN\ProjSrc\SrcChartEx\ChartAddIn\ChartEnvSetupDlgAddIn\Include_AddIn_135914\I135914\_ChartAddInBase.h
;	COMDAT ?OnAddInToolCommand@CChartAddInBase135914@@MAEHAAJW4EAICommandType@@PAUIGraphInfo135914@@@Z
_TEXT	SEGMENT
_p_lResult$ = 8						; size = 4
_p_eCommandID$ = 12					; size = 4
_p_pIGraphInfo$ = 16					; size = 4
?OnAddInToolCommand@CChartAddInBase135914@@MAEHAAJW4EAICommandType@@PAUIGraphInfo135914@@@Z PROC ; CChartAddInBase135914::OnAddInToolCommand, COMDAT
; _this$ = ecx

; 143  : 	virtual BOOL	OnAddInToolCommand(	long &p_lResult, const EAICommandType p_eCommandID, IGraphInfo *p_pIGraphInfo)							{	return FALSE;	}

  00000	33 c0		 xor	 eax, eax
  00002	c2 0c 00	 ret	 12			; 0000000cH
?OnAddInToolCommand@CChartAddInBase135914@@MAEHAAJW4EAICommandType@@PAUIGraphInfo135914@@@Z ENDP ; CChartAddInBase135914::OnAddInToolCommand
_TEXT	ENDS
; Function compile flags: /Ogtp
; File D:\git\src\IBK\IBK_DRFN\ProjSrc\SrcChartEx\ChartAddIn\ChartEnvSetupDlgAddIn\Include_AddIn_135914\I135914\_ChartAddInBase.h
;	COMDAT ?OnAddInToolCommand@CChartAddInBase135914@@MAEHAAJW4EAICommandType@@@Z
_TEXT	SEGMENT
_p_lResult$ = 8						; size = 4
_p_eCommandID$ = 12					; size = 4
?OnAddInToolCommand@CChartAddInBase135914@@MAEHAAJW4EAICommandType@@@Z PROC ; CChartAddInBase135914::OnAddInToolCommand, COMDAT
; _this$ = ecx

; 142  : 	virtual BOOL	OnAddInToolCommand(	long &p_lResult, const EAICommandType p_eCommandID)														{	return FALSE;	}

  00000	33 c0		 xor	 eax, eax
  00002	c2 08 00	 ret	 8
?OnAddInToolCommand@CChartAddInBase135914@@MAEHAAJW4EAICommandType@@@Z ENDP ; CChartAddInBase135914::OnAddInToolCommand
_TEXT	ENDS
; Function compile flags: /Ogtp
; File D:\git\src\IBK\IBK_DRFN\ProjSrc\SrcChartEx\ChartAddIn\ChartEnvSetupDlgAddIn\Include_AddIn_135914\I135914\_ChartAddInBase.h
;	COMDAT ?OnAddInToolCommand@CChartAddInBase135914@@MAEHW4EAICommandType@@PAUHWND__@@AAUtagPOINT@@@Z
_TEXT	SEGMENT
_p_eCommandID$ = 8					; size = 4
_p_hWnd$ = 12						; size = 4
_point$ = 16						; size = 4
?OnAddInToolCommand@CChartAddInBase135914@@MAEHW4EAICommandType@@PAUHWND__@@AAUtagPOINT@@@Z PROC ; CChartAddInBase135914::OnAddInToolCommand, COMDAT
; _this$ = ecx

; 141  : 	virtual BOOL	OnAddInToolCommand(	const EAICommandType p_eCommandID, HWND p_hWnd, POINT &point)											{	return FALSE;	}

  00000	33 c0		 xor	 eax, eax
  00002	c2 0c 00	 ret	 12			; 0000000cH
?OnAddInToolCommand@CChartAddInBase135914@@MAEHW4EAICommandType@@PAUHWND__@@AAUtagPOINT@@@Z ENDP ; CChartAddInBase135914::OnAddInToolCommand
_TEXT	ENDS
; Function compile flags: /Ogtp
; File D:\git\src\IBK\IBK_DRFN\ProjSrc\SrcChartEx\ChartAddIn\ChartEnvSetupDlgAddIn\Include_AddIn_135914\I135914\_ChartAddInBase.h
;	COMDAT ?OnAddInToolCommand@CChartAddInBase135914@@MAEHW4EAICommandType@@JJJJJJJJJ@Z
_TEXT	SEGMENT
_p_eCommandID$ = 8					; size = 4
_p_lParam1$ = 12					; size = 4
_p_lParam2$ = 16					; size = 4
_p_lParam3$ = 20					; size = 4
_p_lParam4$ = 24					; size = 4
_p_lParam5$ = 28					; size = 4
_p_lParam6$ = 32					; size = 4
_p_lParam7$ = 36					; size = 4
_p_lParam8$ = 40					; size = 4
_p_lParam9$ = 44					; size = 4
?OnAddInToolCommand@CChartAddInBase135914@@MAEHW4EAICommandType@@JJJJJJJJJ@Z PROC ; CChartAddInBase135914::OnAddInToolCommand, COMDAT
; _this$ = ecx

; 140  : 	virtual BOOL	OnAddInToolCommand(	const EAICommandType p_eCommandID, const long p_lParam1, const long p_lParam2, const long p_lParam3, const long p_lParam4, const long p_lParam5, const long p_lParam6, const long p_lParam7, const long p_lParam8, const long p_lParam9)	{	return FALSE;	}

  00000	33 c0		 xor	 eax, eax
  00002	c2 28 00	 ret	 40			; 00000028H
?OnAddInToolCommand@CChartAddInBase135914@@MAEHW4EAICommandType@@JJJJJJJJJ@Z ENDP ; CChartAddInBase135914::OnAddInToolCommand
_TEXT	ENDS
; Function compile flags: /Ogtp
; File D:\git\src\IBK\IBK_DRFN\ProjSrc\SrcChartEx\ChartAddIn\ChartEnvSetupDlgAddIn\Include_AddIn_135914\I135914\_ChartAddInBase.h
;	COMDAT ?OnAddInToolCommand@CChartAddInBase135914@@MAEHW4EAICommandType@@JJ@Z
_TEXT	SEGMENT
_p_eCommandID$ = 8					; size = 4
_p_lParam1$ = 12					; size = 4
_p_lParam2$ = 16					; size = 4
?OnAddInToolCommand@CChartAddInBase135914@@MAEHW4EAICommandType@@JJ@Z PROC ; CChartAddInBase135914::OnAddInToolCommand, COMDAT
; _this$ = ecx

; 139  : 	virtual BOOL	OnAddInToolCommand(	const EAICommandType p_eCommandID, const long p_lParam1, const long p_lParam2)							{	return FALSE;	}

  00000	33 c0		 xor	 eax, eax
  00002	c2 0c 00	 ret	 12			; 0000000cH
?OnAddInToolCommand@CChartAddInBase135914@@MAEHW4EAICommandType@@JJ@Z ENDP ; CChartAddInBase135914::OnAddInToolCommand
_TEXT	ENDS
; Function compile flags: /Ogtp
; File D:\git\src\IBK\IBK_DRFN\ProjSrc\SrcChartEx\ChartAddIn\ChartEnvSetupDlgAddIn\Include_AddIn_135914\I135914\_ChartAddInBase.h
;	COMDAT ?OnAddInToolCommand@CChartAddInBase135914@@MAEHW4EAICommandType@@JPBD11@Z
_TEXT	SEGMENT
_p_eCommandID$ = 8					; size = 4
_p_lParam$ = 12						; size = 4
_p_szParam1$ = 16					; size = 4
_p_szParam2$ = 20					; size = 4
_p_szParam3$ = 24					; size = 4
?OnAddInToolCommand@CChartAddInBase135914@@MAEHW4EAICommandType@@JPBD11@Z PROC ; CChartAddInBase135914::OnAddInToolCommand, COMDAT
; _this$ = ecx

; 138  : 	virtual BOOL	OnAddInToolCommand( const EAICommandType p_eCommandID, const long p_lParam, const char *p_szParam1, const char *p_szParam2, const char *p_szParam3)	{	return FALSE;	}

  00000	33 c0		 xor	 eax, eax
  00002	c2 14 00	 ret	 20			; 00000014H
?OnAddInToolCommand@CChartAddInBase135914@@MAEHW4EAICommandType@@JPBD11@Z ENDP ; CChartAddInBase135914::OnAddInToolCommand
_TEXT	ENDS
; Function compile flags: /Ogtp
; File D:\git\src\IBK\IBK_DRFN\ProjSrc\SrcChartEx\ChartAddIn\ChartEnvSetupDlgAddIn\Include_AddIn_135914\I135914\_ChartAddInBase.h
;	COMDAT ?OnAddInToolCommand@CChartAddInBase135914@@MAEHW4EAICommandType@@JPBD@Z
_TEXT	SEGMENT
_p_eCommandID$ = 8					; size = 4
_p_lParam$ = 12						; size = 4
_p_szParam$ = 16					; size = 4
?OnAddInToolCommand@CChartAddInBase135914@@MAEHW4EAICommandType@@JPBD@Z PROC ; CChartAddInBase135914::OnAddInToolCommand, COMDAT
; _this$ = ecx

; 137  : 	virtual BOOL	OnAddInToolCommand( const EAICommandType p_eCommandID, const long p_lParam, const char *p_szParam)							{	return FALSE;	}

  00000	33 c0		 xor	 eax, eax
  00002	c2 0c 00	 ret	 12			; 0000000cH
?OnAddInToolCommand@CChartAddInBase135914@@MAEHW4EAICommandType@@JPBD@Z ENDP ; CChartAddInBase135914::OnAddInToolCommand
_TEXT	ENDS
; Function compile flags: /Ogtp
; File D:\git\src\IBK\IBK_DRFN\ProjSrc\SrcChartEx\ChartAddIn\ChartEnvSetupDlgAddIn\Include_AddIn_135914\I135914\_ChartAddInBase.h
;	COMDAT ?OnAddInToolCommand@CChartAddInBase135914@@MAEHW4EAICommandType@@PBUIAddInDllBase@@@Z
_TEXT	SEGMENT
_p_eCommandID$ = 8					; size = 4
_p_pParam$ = 12						; size = 4
?OnAddInToolCommand@CChartAddInBase135914@@MAEHW4EAICommandType@@PBUIAddInDllBase@@@Z PROC ; CChartAddInBase135914::OnAddInToolCommand, COMDAT
; _this$ = ecx

; 135  : 	virtual BOOL	OnAddInToolCommand(	const EAICommandType p_eCommandID, const IAddInDllBase *p_pParam)										{	return FALSE;	}

  00000	33 c0		 xor	 eax, eax
  00002	c2 08 00	 ret	 8
?OnAddInToolCommand@CChartAddInBase135914@@MAEHW4EAICommandType@@PBUIAddInDllBase@@@Z ENDP ; CChartAddInBase135914::OnAddInToolCommand
_TEXT	ENDS
; Function compile flags: /Ogtp
; File D:\git\src\IBK\IBK_DRFN\ProjSrc\SrcChartEx\ChartAddIn\ChartEnvSetupDlgAddIn\Include_AddIn_135914\I135914\_ChartAddInBase.h
;	COMDAT ?OnAddInToolCommand@CChartAddInBase135914@@MAEHW4EAICommandType@@PBVCBlockBehaviorData@@@Z
_TEXT	SEGMENT
_p_eCommandID$ = 8					; size = 4
_p_pParam$ = 12						; size = 4
?OnAddInToolCommand@CChartAddInBase135914@@MAEHW4EAICommandType@@PBVCBlockBehaviorData@@@Z PROC ; CChartAddInBase135914::OnAddInToolCommand, COMDAT
; _this$ = ecx

; 134  : 	virtual BOOL	OnAddInToolCommand(	const EAICommandType p_eCommandID, const CBlockBehaviorData *p_pParam)									{	return FALSE;	}

  00000	33 c0		 xor	 eax, eax
  00002	c2 08 00	 ret	 8
?OnAddInToolCommand@CChartAddInBase135914@@MAEHW4EAICommandType@@PBVCBlockBehaviorData@@@Z ENDP ; CChartAddInBase135914::OnAddInToolCommand
_TEXT	ENDS
; Function compile flags: /Ogtp
; File D:\git\src\IBK\IBK_DRFN\ProjSrc\SrcChartEx\ChartAddIn\ChartEnvSetupDlgAddIn\Include_AddIn_135914\I135914\_ChartAddInBase.h
;	COMDAT ?OnAddInToolCommand@CChartAddInBase135914@@MAEHW4EAICommandType@@PBDJ@Z
_TEXT	SEGMENT
_p_eCommandID$ = 8					; size = 4
_p_szParam$ = 12					; size = 4
_p_lParam$ = 16						; size = 4
?OnAddInToolCommand@CChartAddInBase135914@@MAEHW4EAICommandType@@PBDJ@Z PROC ; CChartAddInBase135914::OnAddInToolCommand, COMDAT
; _this$ = ecx

; 133  : 	virtual BOOL	OnAddInToolCommand( const EAICommandType p_eCommandID, const char *p_szParam, const long p_lParam)							{	return FALSE;	}

  00000	33 c0		 xor	 eax, eax
  00002	c2 0c 00	 ret	 12			; 0000000cH
?OnAddInToolCommand@CChartAddInBase135914@@MAEHW4EAICommandType@@PBDJ@Z ENDP ; CChartAddInBase135914::OnAddInToolCommand
_TEXT	ENDS
; Function compile flags: /Ogtp
; File D:\git\src\IBK\IBK_DRFN\ProjSrc\SrcChartEx\ChartAddIn\ChartEnvSetupDlgAddIn\Include_AddIn_135914\I135914\_ChartAddInBase.h
;	COMDAT ?OnAddInToolCommand@CChartAddInBase135914@@MAEHW4EAICommandType@@PBD@Z
_TEXT	SEGMENT
_p_eCommandID$ = 8					; size = 4
_p_szParam$ = 12					; size = 4
?OnAddInToolCommand@CChartAddInBase135914@@MAEHW4EAICommandType@@PBD@Z PROC ; CChartAddInBase135914::OnAddInToolCommand, COMDAT
; _this$ = ecx

; 132  : 	virtual BOOL	OnAddInToolCommand(	const EAICommandType p_eCommandID, const char *p_szParam)												{	return FALSE;	}

  00000	33 c0		 xor	 eax, eax
  00002	c2 08 00	 ret	 8
?OnAddInToolCommand@CChartAddInBase135914@@MAEHW4EAICommandType@@PBD@Z ENDP ; CChartAddInBase135914::OnAddInToolCommand
_TEXT	ENDS
; Function compile flags: /Ogtp
; File D:\git\src\IBK\IBK_DRFN\ProjSrc\SrcChartEx\ChartAddIn\ChartEnvSetupDlgAddIn\Include_AddIn_135914\I135914\_ChartAddInBase.h
;	COMDAT ?OnAddInToolCommand@CChartAddInBase135914@@MAEHW4EAICommandType@@PAUHDC__@@IAAUtagPOINT@@K@Z
_TEXT	SEGMENT
_p_eCommandID$ = 8					; size = 4
_p_hDC$ = 12						; size = 4
_nFlags$ = 16						; size = 4
_point$ = 20						; size = 4
_p_dwMouseActionID$ = 24				; size = 4
?OnAddInToolCommand@CChartAddInBase135914@@MAEHW4EAICommandType@@PAUHDC__@@IAAUtagPOINT@@K@Z PROC ; CChartAddInBase135914::OnAddInToolCommand, COMDAT
; _this$ = ecx

; 131  : 	virtual BOOL	OnAddInToolCommand(	const EAICommandType p_eCommandID, HDC p_hDC, UINT nFlags, POINT &point, const DWORD p_dwMouseActionID)	{	return FALSE;	}

  00000	33 c0		 xor	 eax, eax
  00002	c2 14 00	 ret	 20			; 00000014H
?OnAddInToolCommand@CChartAddInBase135914@@MAEHW4EAICommandType@@PAUHDC__@@IAAUtagPOINT@@K@Z ENDP ; CChartAddInBase135914::OnAddInToolCommand
_TEXT	ENDS
; Function compile flags: /Ogtp
; File D:\git\src\IBK\IBK_DRFN\ProjSrc\SrcChartEx\ChartAddIn\ChartEnvSetupDlgAddIn\Include_AddIn_135914\I135914\_ChartAddInBase.h
;	COMDAT ?OnAddInToolCommand@CChartAddInBase135914@@MAEHW4EAICommandType@@@Z
_TEXT	SEGMENT
_p_eCommandID$ = 8					; size = 4
?OnAddInToolCommand@CChartAddInBase135914@@MAEHW4EAICommandType@@@Z PROC ; CChartAddInBase135914::OnAddInToolCommand, COMDAT
; _this$ = ecx

; 130  : 	virtual BOOL	OnAddInToolCommand(	const EAICommandType p_eCommandID)																		{	return FALSE;	}

  00000	33 c0		 xor	 eax, eax
  00002	c2 04 00	 ret	 4
?OnAddInToolCommand@CChartAddInBase135914@@MAEHW4EAICommandType@@@Z ENDP ; CChartAddInBase135914::OnAddInToolCommand
_TEXT	ENDS
; Function compile flags: /Ogtp
; File D:\git\src\IBK\IBK_DRFN\ProjSrc\SrcChartEx\ChartAddIn\ChartEnvSetupDlgAddIn\Include_AddIn_135914\I135914\_ChartAddInBase.h
;	COMDAT ?OnCmdMsg@CChartAddInBase135914@@MAEHIHPAUICmdUI135914@@@Z
_TEXT	SEGMENT
_nID$ = 8						; size = 4
_nCode$ = 12						; size = 4
_p_pICmdUI$ = 16					; size = 4
?OnCmdMsg@CChartAddInBase135914@@MAEHIHPAUICmdUI135914@@@Z PROC ; CChartAddInBase135914::OnCmdMsg, COMDAT
; _this$ = ecx

; 129  : 	virtual BOOL	OnCmdMsg(			UINT nID, int nCode, ICmdUI *p_pICmdUI)																	{	return FALSE;	}

  00000	33 c0		 xor	 eax, eax
  00002	c2 0c 00	 ret	 12			; 0000000cH
?OnCmdMsg@CChartAddInBase135914@@MAEHIHPAUICmdUI135914@@@Z ENDP ; CChartAddInBase135914::OnCmdMsg
_TEXT	ENDS
; Function compile flags: /Ogtp
; File D:\git\src\IBK\IBK_DRFN\ProjSrc\SrcChartEx\ChartAddIn\ChartEnvSetupDlgAddIn\Include_AddIn_135914\I135914\_ChartAddInBase.h
;	COMDAT ?OnGraphDeleted@CChartAddInBase135914@@MAEXPBD0@Z
_TEXT	SEGMENT
_p_szGraphName$ = 8					; size = 4
_p_szIndicatorName$ = 12				; size = 4
?OnGraphDeleted@CChartAddInBase135914@@MAEXPBD0@Z PROC	; CChartAddInBase135914::OnGraphDeleted, COMDAT
; _this$ = ecx

; 123  : 	virtual void	OnGraphDeleted( const char *p_szGraphName, const char *p_szIndicatorName)	{};

  00000	c2 08 00	 ret	 8
?OnGraphDeleted@CChartAddInBase135914@@MAEXPBD0@Z ENDP	; CChartAddInBase135914::OnGraphDeleted
_TEXT	ENDS
; Function compile flags: /Ogtp
; File D:\git\src\IBK\IBK_DRFN\ProjSrc\SrcChartEx\ChartAddIn\ChartEnvSetupDlgAddIn\Include_AddIn_135914\I135914\_ChartAddInBase.h
;	COMDAT ?OnDrdsPacketEnd@CChartAddInBase135914@@MAEXIJ@Z
_TEXT	SEGMENT
_p_wParam$ = 8						; size = 4
_p_lParam$ = 12						; size = 4
?OnDrdsPacketEnd@CChartAddInBase135914@@MAEXIJ@Z PROC	; CChartAddInBase135914::OnDrdsPacketEnd, COMDAT
; _this$ = ecx

; 120  : 	virtual void	OnDrdsPacketEnd( WPARAM p_wParam, LPARAM p_lParam)	{}

  00000	c2 08 00	 ret	 8
?OnDrdsPacketEnd@CChartAddInBase135914@@MAEXIJ@Z ENDP	; CChartAddInBase135914::OnDrdsPacketEnd
_TEXT	ENDS
; Function compile flags: /Ogtp
; File D:\git\src\IBK\IBK_DRFN\ProjSrc\SrcChartEx\ChartAddIn\ChartEnvSetupDlgAddIn\Include_AddIn_135914\I135914\_ChartAddInBase.h
;	COMDAT ?OnDrdsData@CChartAddInBase135914@@MAEXIJ@Z
_TEXT	SEGMENT
_p_wParam$ = 8						; size = 4
_p_lParam$ = 12						; size = 4
?OnDrdsData@CChartAddInBase135914@@MAEXIJ@Z PROC	; CChartAddInBase135914::OnDrdsData, COMDAT
; _this$ = ecx

; 118  : 	virtual void	OnDrdsData( WPARAM p_wParam, LPARAM p_lParam)		{}

  00000	c2 08 00	 ret	 8
?OnDrdsData@CChartAddInBase135914@@MAEXIJ@Z ENDP	; CChartAddInBase135914::OnDrdsData
_TEXT	ENDS
; Function compile flags: /Ogtp
; File D:\git\src\IBK\IBK_DRFN\ProjSrc\SrcChartEx\ChartAddIn\ChartEnvSetupDlgAddIn\Include_AddIn_135914\I135914\_ChartAddInBase.h
;	COMDAT ?OnCaptureChanged@CChartAddInBase135914@@MAEXPAUHWND__@@@Z
_TEXT	SEGMENT
_p_hWnd$ = 8						; size = 4
?OnCaptureChanged@CChartAddInBase135914@@MAEXPAUHWND__@@@Z PROC ; CChartAddInBase135914::OnCaptureChanged, COMDAT
; _this$ = ecx

; 111  : 	virtual void	OnCaptureChanged(	HWND p_hWnd)	{}

  00000	c2 04 00	 ret	 4
?OnCaptureChanged@CChartAddInBase135914@@MAEXPAUHWND__@@@Z ENDP ; CChartAddInBase135914::OnCaptureChanged
_TEXT	ENDS
; Function compile flags: /Ogtp
; File D:\git\src\IBK\IBK_DRFN\ProjSrc\SrcChartEx\ChartAddIn\ChartEnvSetupDlgAddIn\Include_AddIn_135914\I135914\_ChartAddInBase.h
;	COMDAT ?OnTimer@CChartAddInBase135914@@MAEXI@Z
_TEXT	SEGMENT
_p_uTimerID$ = 8					; size = 4
?OnTimer@CChartAddInBase135914@@MAEXI@Z PROC		; CChartAddInBase135914::OnTimer, COMDAT
; _this$ = ecx

; 106  : 	virtual void	OnTimer( UINT p_uTimerID)	{}

  00000	c2 04 00	 ret	 4
?OnTimer@CChartAddInBase135914@@MAEXI@Z ENDP		; CChartAddInBase135914::OnTimer
_TEXT	ENDS
; Function compile flags: /Ogtp
; File D:\git\src\IBK\IBK_DRFN\ProjSrc\SrcChartEx\ChartAddIn\ChartEnvSetupDlgAddIn\Include_AddIn_135914\I135914\_ChartAddInBase.h
;	COMDAT ?OnUpdatePacketData@CChartAddInBase135914@@MAEXH@Z
_TEXT	SEGMENT
_p_bTrUpdate$ = 8					; size = 4
?OnUpdatePacketData@CChartAddInBase135914@@MAEXH@Z PROC	; CChartAddInBase135914::OnUpdatePacketData, COMDAT
; _this$ = ecx

; 101  : 	virtual void	OnUpdatePacketData( BOOL p_bTrUpdate)	{}

  00000	c2 04 00	 ret	 4
?OnUpdatePacketData@CChartAddInBase135914@@MAEXH@Z ENDP	; CChartAddInBase135914::OnUpdatePacketData
_TEXT	ENDS
; Function compile flags: /Ogtp
; File D:\git\src\IBK\IBK_DRFN\ProjSrc\SrcChartEx\ChartAddIn\ChartEnvSetupDlgAddIn\Include_AddIn_135914\I135914\_ChartAddInBase.h
;	COMDAT ?OnPacketData@CChartAddInBase135914@@MAEXPBDH@Z
_TEXT	SEGMENT
_p_szPacketNames$ = 8					; size = 4
_p_bWithReset$ = 12					; size = 4
?OnPacketData@CChartAddInBase135914@@MAEXPBDH@Z PROC	; CChartAddInBase135914::OnPacketData, COMDAT
; _this$ = ecx

; 99   : 	virtual void	OnPacketData( const char *p_szPacketNames, BOOL p_bWithReset)	{}

  00000	c2 08 00	 ret	 8
?OnPacketData@CChartAddInBase135914@@MAEXPBDH@Z ENDP	; CChartAddInBase135914::OnPacketData
_TEXT	ENDS
; Function compile flags: /Ogtp
; File D:\git\src\IBK\IBK_DRFN\ProjSrc\SrcChartEx\ChartAddIn\ChartEnvSetupDlgAddIn\Include_AddIn_135914\I135914\_ChartAddInBase.h
;	COMDAT ?OnDrawAfterGraph@CChartAddInBase135914@@MAEXPAUHDC__@@@Z
_TEXT	SEGMENT
_p_hDC$ = 8						; size = 4
?OnDrawAfterGraph@CChartAddInBase135914@@MAEXPAUHDC__@@@Z PROC ; CChartAddInBase135914::OnDrawAfterGraph, COMDAT
; _this$ = ecx

; 97   : 	virtual void	OnDrawAfterGraph( HDC p_hDC)	{}

  00000	c2 04 00	 ret	 4
?OnDrawAfterGraph@CChartAddInBase135914@@MAEXPAUHDC__@@@Z ENDP ; CChartAddInBase135914::OnDrawAfterGraph
_TEXT	ENDS
; Function compile flags: /Ogtp
; File D:\git\src\IBK\IBK_DRFN\ProjSrc\SrcChartEx\ChartAddIn\ChartEnvSetupDlgAddIn\Include_AddIn_135914\I135914\_ChartAddInBase.h
;	COMDAT ?OnDrawBeforeGraph@CChartAddInBase135914@@MAEXPAUHDC__@@@Z
_TEXT	SEGMENT
_p_hDC$ = 8						; size = 4
?OnDrawBeforeGraph@CChartAddInBase135914@@MAEXPAUHDC__@@@Z PROC ; CChartAddInBase135914::OnDrawBeforeGraph, COMDAT
; _this$ = ecx

; 95   : 	virtual void	OnDrawBeforeGraph( HDC p_hDC)	{}

  00000	c2 04 00	 ret	 4
?OnDrawBeforeGraph@CChartAddInBase135914@@MAEXPAUHDC__@@@Z ENDP ; CChartAddInBase135914::OnDrawBeforeGraph
_TEXT	ENDS
; Function compile flags: /Ogtp
; File D:\git\src\IBK\IBK_DRFN\ProjSrc\SrcChartEx\ChartAddIn\ChartEnvSetupDlgAddIn\Include_AddIn_135914\I135914\_ChartAddInBase.h
;	COMDAT ?OnResetChart@CChartAddInBase135914@@MAEXXZ
_TEXT	SEGMENT
?OnResetChart@CChartAddInBase135914@@MAEXXZ PROC	; CChartAddInBase135914::OnResetChart, COMDAT
; _this$ = ecx

; 93   : 	virtual void	OnResetChart( void)	{}

  00000	c2 00 00	 ret	 0
?OnResetChart@CChartAddInBase135914@@MAEXXZ ENDP	; CChartAddInBase135914::OnResetChart
_TEXT	ENDS
; Function compile flags: /Ogtp
; File D:\git\src\IBK\IBK_DRFN\ProjSrc\SrcChartEx\ChartAddIn\ChartEnvSetupDlgAddIn\Include_AddIn_135914\I135914\_ChartAddInBase.h
;	COMDAT ?OnSharedDataChange@CChartAddInBase135914@@MAEXPBD0H@Z
_TEXT	SEGMENT
_p_szShareName$ = 8					; size = 4
_p_szSharedData$ = 12					; size = 4
_p_bStartShare$ = 16					; size = 4
?OnSharedDataChange@CChartAddInBase135914@@MAEXPBD0H@Z PROC ; CChartAddInBase135914::OnSharedDataChange, COMDAT
; _this$ = ecx

; 90   : 	virtual void	OnSharedDataChange( const char *p_szShareName, const char *p_szSharedData, BOOL p_bStartShare)	{}

  00000	c2 0c 00	 ret	 12			; 0000000cH
?OnSharedDataChange@CChartAddInBase135914@@MAEXPBD0H@Z ENDP ; CChartAddInBase135914::OnSharedDataChange
_TEXT	ENDS
; Function compile flags: /Ogtp
; File D:\git\src\IBK\IBK_DRFN\ProjSrc\SrcChartEx\ChartAddIn\ChartEnvSetupDlgAddIn\Include_AddIn_135914\I135914\_ChartAddInBase.h
;	COMDAT ?OnLSharedDataChange@CChartAddInBase135914@@MAEXPBD0@Z
_TEXT	SEGMENT
_p_szLShareKey$ = 8					; size = 4
_p_szLShareValue$ = 12					; size = 4
?OnLSharedDataChange@CChartAddInBase135914@@MAEXPBD0@Z PROC ; CChartAddInBase135914::OnLSharedDataChange, COMDAT
; _this$ = ecx

; 88   : 	virtual void	OnLSharedDataChange( const char *p_szLShareKey, const char *p_szLShareValue)	{}

  00000	c2 08 00	 ret	 8
?OnLSharedDataChange@CChartAddInBase135914@@MAEXPBD0@Z ENDP ; CChartAddInBase135914::OnLSharedDataChange
_TEXT	ENDS
; Function compile flags: /Ogtp
; File D:\git\src\IBK\IBK_DRFN\ProjSrc\SrcChartEx\ChartAddIn\ChartEnvSetupDlgAddIn\Include_AddIn_135914\I135914\_ChartAddInBase.h
;	COMDAT ?OnGSharedDataChange@CChartAddInBase135914@@MAEXPBD0H@Z
_TEXT	SEGMENT
_p_szGShareKey$ = 8					; size = 4
_p_szGShareValue$ = 12					; size = 4
_p_bStartShare$ = 16					; size = 4
?OnGSharedDataChange@CChartAddInBase135914@@MAEXPBD0H@Z PROC ; CChartAddInBase135914::OnGSharedDataChange, COMDAT
; _this$ = ecx

; 86   : 	virtual void	OnGSharedDataChange( const char *p_szGShareKey, const char *p_szGShareValue, BOOL p_bStartShare)	{}

  00000	c2 0c 00	 ret	 12			; 0000000cH
?OnGSharedDataChange@CChartAddInBase135914@@MAEXPBD0H@Z ENDP ; CChartAddInBase135914::OnGSharedDataChange
_TEXT	ENDS
; Function compile flags: /Ogtp
; File D:\git\src\IBK\IBK_DRFN\ProjSrc\SrcChartEx\ChartAddIn\ChartEnvSetupDlgAddIn\Include_AddIn_135914\I135914\_ChartAddInBase.h
;	COMDAT ?GetGlobalAddInEventType@CChartAddInBase135914@@MBE?AW4EAddInEventType@IAddInDllBase@@J@Z
_TEXT	SEGMENT
_p_eAddInEventType$ = 8					; size = 4
?GetGlobalAddInEventType@CChartAddInBase135914@@MBE?AW4EAddInEventType@IAddInDllBase@@J@Z PROC ; CChartAddInBase135914::GetGlobalAddInEventType, COMDAT
; _this$ = ecx

; 73   : 	virtual IAddInDllBase::EAddInEventType	GetGlobalAddInEventType( const long p_eAddInEventType) const	{	return IAddInDllBase::EAddInEventType::EAE_NOT_DEFINED;	}

  00000	83 c8 ff	 or	 eax, -1
  00003	c2 04 00	 ret	 4
?GetGlobalAddInEventType@CChartAddInBase135914@@MBE?AW4EAddInEventType@IAddInDllBase@@J@Z ENDP ; CChartAddInBase135914::GetGlobalAddInEventType
_TEXT	ENDS
; Function compile flags: /Ogtp
; File D:\git\src\IBK\IBK_DRFN\ProjSrc\SrcChartEx\ChartAddIn\ChartEnvSetupDlgAddIn\Include_AddIn_135914\I135914\_ChartAddInBase.h
;	COMDAT ?InvokeAddInStr@CChartAddInBase135914@@MAEHPBD0@Z
_TEXT	SEGMENT
_p_szCommandName$ = 8					; size = 4
_p_szData$ = 12						; size = 4
?InvokeAddInStr@CChartAddInBase135914@@MAEHPBD0@Z PROC	; CChartAddInBase135914::InvokeAddInStr, COMDAT
; _this$ = ecx

; 66   : 	virtual BOOL	InvokeAddInStr( LPCTSTR p_szCommandName, LPCTSTR p_szData)	{	return FALSE;	}	// (2005/9/2 - Seung-Won, Bae) for String Data

  00000	33 c0		 xor	 eax, eax
  00002	c2 08 00	 ret	 8
?InvokeAddInStr@CChartAddInBase135914@@MAEHPBD0@Z ENDP	; CChartAddInBase135914::InvokeAddInStr
_TEXT	ENDS
; Function compile flags: /Ogtp
; File D:\git\src\IBK\IBK_DRFN\ProjSrc\SrcChartEx\ChartAddIn\ChartEnvSetupDlgAddIn\Include_AddIn_135914\I135914\_ChartAddInBase.h
;	COMDAT ?InvokeAddIn@CChartAddInBase135914@@MAEHHJ@Z
_TEXT	SEGMENT
_p_nCommandType$ = 8					; size = 4
_p_lData$ = 12						; size = 4
?InvokeAddIn@CChartAddInBase135914@@MAEHHJ@Z PROC	; CChartAddInBase135914::InvokeAddIn, COMDAT
; _this$ = ecx

; 65   : 	virtual BOOL	InvokeAddIn( int p_nCommandType, long p_lData)	{	return FALSE;	}

  00000	33 c0		 xor	 eax, eax
  00002	c2 08 00	 ret	 8
?InvokeAddIn@CChartAddInBase135914@@MAEHHJ@Z ENDP	; CChartAddInBase135914::InvokeAddIn
_TEXT	ENDS
; Function compile flags: /Ogtp
; File D:\git\src\IBK\IBK_DRFN\ProjSrc\SrcChartEx\ChartAddIn\ChartEnvSetupDlgAddIn\Include_AddIn_135914\_IWUnknown.h
;	COMDAT ?PreDestruct@CIWUnknown@@MAEXXZ
_TEXT	SEGMENT
?PreDestruct@CIWUnknown@@MAEXXZ PROC			; CIWUnknown::PreDestruct, COMDAT
; _this$ = ecx

; 48   : 	virtual void	PreDestruct( void)		{}

  00000	c2 00 00	 ret	 0
?PreDestruct@CIWUnknown@@MAEXXZ ENDP			; CIWUnknown::PreDestruct
_TEXT	ENDS
; Function compile flags: /Ogtp
; File D:\git\src\IBK\IBK_DRFN\ProjSrc\SrcChartEx\ChartAddIn\ChartEnvSetupDlgAddIn\Include_AddIn_135914\_IWUnknown.h
;	COMDAT ?PreDestructX@CIWUnknown@@MAEXXZ
_TEXT	SEGMENT
?PreDestructX@CIWUnknown@@MAEXXZ PROC			; CIWUnknown::PreDestructX, COMDAT
; _this$ = ecx

; 47   : 	virtual void	PreDestructX( void)		{}

  00000	c2 00 00	 ret	 0
?PreDestructX@CIWUnknown@@MAEXXZ ENDP			; CIWUnknown::PreDestructX
_TEXT	ENDS
; Function compile flags: /Ogtp
; File D:\git\src\IBK\IBK_DRFN\ProjSrc\SrcChartEx\ChartAddIn\ChartEnvSetupDlgAddIn\Include_AddIn_135914\_IWUnknown.h
;	COMDAT ?PostConstruct@CIWUnknown@@MAEXXZ
_TEXT	SEGMENT
?PostConstruct@CIWUnknown@@MAEXXZ PROC			; CIWUnknown::PostConstruct, COMDAT
; _this$ = ecx

; 46   : 	virtual void	PostConstruct( void)	{}

  00000	c2 00 00	 ret	 0
?PostConstruct@CIWUnknown@@MAEXXZ ENDP			; CIWUnknown::PostConstruct
_TEXT	ENDS
; Function compile flags: /Ogtp
;	COMDAT ??_GIStyleManager@@MAEPAXI@Z
_TEXT	SEGMENT
___flags$ = 8						; size = 4
??_GIStyleManager@@MAEPAXI@Z PROC			; IStyleManager::`scalar deleting destructor', COMDAT
; _this$ = ecx
  00000	55		 push	 ebp
  00001	8b ec		 mov	 ebp, esp
  00003	f6 45 08 01	 test	 BYTE PTR ___flags$[ebp], 1
  00007	56		 push	 esi
  00008	8b f1		 mov	 esi, ecx
  0000a	c7 06 00 00 00
	00		 mov	 DWORD PTR [esi], OFFSET ??_7IStyleManager@@6B@
  00010	74 0b		 je	 SHORT $LN4@scalar
  00012	6a 04		 push	 4
  00014	56		 push	 esi
  00015	e8 00 00 00 00	 call	 ??3@YAXPAXI@Z		; operator delete
  0001a	83 c4 08	 add	 esp, 8
$LN4@scalar:
  0001d	8b c6		 mov	 eax, esi
  0001f	5e		 pop	 esi
  00020	5d		 pop	 ebp
  00021	c2 04 00	 ret	 4
??_GIStyleManager@@MAEPAXI@Z ENDP			; IStyleManager::`scalar deleting destructor'
_TEXT	ENDS
; Function compile flags: /Ogtp
; File D:\git\src\IBK\IBK_DRFN\ProjSrc\SrcChartEx\ChartAddIn\ChartEnvSetupDlgAddIn\Include_Chart\IStyleManager.h
;	COMDAT ??1IStyleManager@@MAE@XZ
_TEXT	SEGMENT
??1IStyleManager@@MAE@XZ PROC				; IStyleManager::~IStyleManager, COMDAT
; _this$ = ecx

; 20   : 	virtual ~IStyleManager()	{}

  00000	c7 01 00 00 00
	00		 mov	 DWORD PTR [ecx], OFFSET ??_7IStyleManager@@6B@
  00006	c3		 ret	 0
??1IStyleManager@@MAE@XZ ENDP				; IStyleManager::~IStyleManager
_TEXT	ENDS
; Function compile flags: /Ogtp
; File C:\Program Files (x86)\Microsoft Visual Studio\2019\Community\VC\Tools\MSVC\14.29.30133\atlmfc\include\afx.inl
;	COMDAT ?Dump@CObject@@UBEXAAVCDumpContext@@@Z
_TEXT	SEGMENT
___formal$ = 8						; size = 4
?Dump@CObject@@UBEXAAVCDumpContext@@@Z PROC		; CObject::Dump, COMDAT
; _this$ = ecx

; 122  : 	{ /* no dumping in release builds */ }

  00000	c2 04 00	 ret	 4
?Dump@CObject@@UBEXAAVCDumpContext@@@Z ENDP		; CObject::Dump
_TEXT	ENDS
; Function compile flags: /Ogtp
; File C:\Program Files (x86)\Microsoft Visual Studio\2019\Community\VC\Tools\MSVC\14.29.30133\atlmfc\include\afx.inl
;	COMDAT ?AssertValid@CObject@@UBEXXZ
_TEXT	SEGMENT
?AssertValid@CObject@@UBEXXZ PROC			; CObject::AssertValid, COMDAT
; _this$ = ecx

; 120  : 	{ /* no asserts in release builds */ }

  00000	c2 00 00	 ret	 0
?AssertValid@CObject@@UBEXXZ ENDP			; CObject::AssertValid
_TEXT	ENDS
; Function compile flags: /Ogtp
; File C:\Program Files (x86)\Microsoft Visual Studio\2019\Community\VC\Tools\MSVC\14.29.30133\atlmfc\include\afx.inl
;	COMDAT ?Serialize@CObject@@UAEXAAVCArchive@@@Z
_TEXT	SEGMENT
___formal$ = 8						; size = 4
?Serialize@CObject@@UAEXAAVCArchive@@@Z PROC		; CObject::Serialize, COMDAT
; _this$ = ecx

; 106  : 	{ /* CObject does not serialize anything by default */ }

  00000	c2 04 00	 ret	 4
?Serialize@CObject@@UAEXAAVCArchive@@@Z ENDP		; CObject::Serialize
_TEXT	ENDS
; Function compile flags: /Ogtp
; File C:\Program Files (x86)\Microsoft Visual Studio\2019\Community\VC\Tools\MSVC\14.29.30133\atlmfc\include\afx.inl
;	COMDAT ??1CObject@@UAE@XZ
_TEXT	SEGMENT
??1CObject@@UAE@XZ PROC					; CObject::~CObject, COMDAT
; _this$ = ecx

; 104  : 	{ }

  00000	c2 00 00	 ret	 0
??1CObject@@UAE@XZ ENDP					; CObject::~CObject
_TEXT	ENDS
; Function compile flags: /Ogtp
; File D:\git\src\IBK\IBK_DRFN\ProjSrc\SrcChartEx\ChartAddIn\ChartEnvSetupDlgAddIn\ChartEnvSetupDlgAddIn\ChartStyleDataManagerAddInImp.cpp
;	COMDAT ?__empty_global_delete@@YAXPAXI@Z
_TEXT	SEGMENT
___formal$ = 8						; size = 4
___formal$ = 12						; size = 4
?__empty_global_delete@@YAXPAXI@Z PROC			; __empty_global_delete, COMDAT

  00000	c2 00 00	 ret	 0
?__empty_global_delete@@YAXPAXI@Z ENDP			; __empty_global_delete
_TEXT	ENDS
; Function compile flags: /Ogtp
; File D:\git\src\IBK\IBK_DRFN\ProjSrc\SrcChartEx\ChartAddIn\ChartEnvSetupDlgAddIn\ChartEnvSetupDlgAddIn\ChartStyleDataManagerAddInImp.cpp
;	COMDAT ?__empty_global_delete@@YAXPAX@Z
_TEXT	SEGMENT
___formal$ = 8						; size = 4
?__empty_global_delete@@YAXPAX@Z PROC			; __empty_global_delete, COMDAT

  00000	c2 00 00	 ret	 0
?__empty_global_delete@@YAXPAX@Z ENDP			; __empty_global_delete
_TEXT	ENDS
END
