; Listing generated by Microsoft (R) Optimizing Compiler Version 19.29.30145.0 

	TITLE	D:\git\src\IBK\IBK_DRFN\#DRfn-CS\_Obj\ChartEnvSetupDlgAddIn\ChartEnvSetupDlgAddInImp.obj
	.686P
	.XMM
	include listing.inc
	.model	flat

INCLUDELIB MSVCRT
INCLUDELIB OLDNAMES

PUBLIC	?m_eRegisteredEventMap@CChartEnvSetupDlgAddInImp@@1QBW4EAddInEventType@IChartAddIn135914@@B ; CChartEnvSetupDlgAddInImp::m_eRegisteredEventMap
PUBLIC	??_C@_09LKMIGEHN@ENV_SETUP@			; `string'
;	COMDAT ??_C@_09LKMIGEHN@ENV_SETUP@
CONST	SEGMENT
??_C@_09LKMIGEHN@ENV_SETUP@ DB 'ENV_SETUP', 00H		; `string'
CONST	ENDS
CONST	SEGMENT
?m_eRegisteredEventMap@CChartEnvSetupDlgAddInImp@@1QBW4EAddInEventType@IChartAddIn135914@@B DD 029H ; CChartEnvSetupDlgAddInImp::m_eRegisteredEventMap
	DD	013H
	DD	09H
	DD	0dH
	DD	02aH
	ORG $+152
CONST	ENDS
PUBLIC	?__empty_global_delete@@YAXPAX@Z		; __empty_global_delete
PUBLIC	?__empty_global_delete@@YAXPAXI@Z		; __empty_global_delete
PUBLIC	?Serialize@CObject@@UAEXAAVCArchive@@@Z		; CObject::Serialize
PUBLIC	?AssertValid@CObject@@UBEXXZ			; CObject::AssertValid
PUBLIC	?Dump@CObject@@UBEXAAVCDumpContext@@@Z		; CObject::Dump
PUBLIC	?PostConstruct@CIWUnknown@@MAEXXZ		; CIWUnknown::PostConstruct
PUBLIC	?PreDestructX@CIWUnknown@@MAEXXZ		; CIWUnknown::PreDestructX
PUBLIC	?PreDestruct@CIWUnknown@@MAEXXZ			; CIWUnknown::PreDestruct
PUBLIC	?AddRef@CChartAddInBase135914@@MAGKXZ		; CChartAddInBase135914::AddRef
PUBLIC	?Release@CChartAddInBase135914@@MAGKXZ		; CChartAddInBase135914::Release
PUBLIC	?QueryInterface@CChartAddInBase135914@@MAGJABU_GUID@@PAPAX@Z ; CChartAddInBase135914::QueryInterface
PUBLIC	?GetAddInCustomInterface@CChartAddInBase135914@@MAEPAUIUnknown@@XZ ; CChartAddInBase135914::GetAddInCustomInterface
PUBLIC	?GetGlobalAddInEventType@CChartAddInBase135914@@MBE?AW4EAddInEventType@IAddInDllBase@@J@Z ; CChartAddInBase135914::GetGlobalAddInEventType
PUBLIC	?OnGSharedDataChange@CChartAddInBase135914@@MAEXPBD0H@Z ; CChartAddInBase135914::OnGSharedDataChange
PUBLIC	?OnLSharedDataChange@CChartAddInBase135914@@MAEXPBD0@Z ; CChartAddInBase135914::OnLSharedDataChange
PUBLIC	?OnSharedDataChange@CChartAddInBase135914@@MAEXPBD0H@Z ; CChartAddInBase135914::OnSharedDataChange
PUBLIC	?OnResetChart@CChartAddInBase135914@@MAEXXZ	; CChartAddInBase135914::OnResetChart
PUBLIC	?OnDrawBeforeGraph@CChartAddInBase135914@@MAEXPAUHDC__@@@Z ; CChartAddInBase135914::OnDrawBeforeGraph
PUBLIC	?OnDrawAfterGraph@CChartAddInBase135914@@MAEXPAUHDC__@@@Z ; CChartAddInBase135914::OnDrawAfterGraph
PUBLIC	?OnPacketData@CChartAddInBase135914@@MAEXPBDH@Z	; CChartAddInBase135914::OnPacketData
PUBLIC	?OnUpdatePacketData@CChartAddInBase135914@@MAEXH@Z ; CChartAddInBase135914::OnUpdatePacketData
PUBLIC	?OnTimer@CChartAddInBase135914@@MAEXI@Z		; CChartAddInBase135914::OnTimer
PUBLIC	?OnCaptureChanged@CChartAddInBase135914@@MAEXPAUHWND__@@@Z ; CChartAddInBase135914::OnCaptureChanged
PUBLIC	?OnDrdsData@CChartAddInBase135914@@MAEXIJ@Z	; CChartAddInBase135914::OnDrdsData
PUBLIC	?OnDrdsPacketEnd@CChartAddInBase135914@@MAEXIJ@Z ; CChartAddInBase135914::OnDrdsPacketEnd
PUBLIC	?OnAddInToolCommand@CChartAddInBase135914@@MAEHW4EAICommandType@@@Z ; CChartAddInBase135914::OnAddInToolCommand
PUBLIC	?OnAddInToolCommand@CChartAddInBase135914@@MAEHW4EAICommandType@@PAUHDC__@@IAAUtagPOINT@@K@Z ; CChartAddInBase135914::OnAddInToolCommand
PUBLIC	?OnAddInToolCommand@CChartAddInBase135914@@MAEHW4EAICommandType@@PBD@Z ; CChartAddInBase135914::OnAddInToolCommand
PUBLIC	?OnAddInToolCommand@CChartAddInBase135914@@MAEHW4EAICommandType@@PBDJ@Z ; CChartAddInBase135914::OnAddInToolCommand
PUBLIC	?OnAddInToolCommand@CChartAddInBase135914@@MAEHW4EAICommandType@@PBVCBlockBehaviorData@@@Z ; CChartAddInBase135914::OnAddInToolCommand
PUBLIC	?OnAddInToolCommand@CChartAddInBase135914@@MAEHW4EAICommandType@@PBUIAddInDllBase@@@Z ; CChartAddInBase135914::OnAddInToolCommand
PUBLIC	?OnAddInToolCommand@CChartAddInBase135914@@MAEHW4EAICommandType@@J@Z ; CChartAddInBase135914::OnAddInToolCommand
PUBLIC	?OnAddInToolCommand@CChartAddInBase135914@@MAEHW4EAICommandType@@JPBD@Z ; CChartAddInBase135914::OnAddInToolCommand
PUBLIC	?OnAddInToolCommand@CChartAddInBase135914@@MAEHW4EAICommandType@@JPBD11@Z ; CChartAddInBase135914::OnAddInToolCommand
PUBLIC	?OnAddInToolCommand@CChartAddInBase135914@@MAEHW4EAICommandType@@JJJJJJJJJ@Z ; CChartAddInBase135914::OnAddInToolCommand
PUBLIC	?OnAddInToolCommand@CChartAddInBase135914@@MAEHW4EAICommandType@@PAUHWND__@@AAUtagPOINT@@@Z ; CChartAddInBase135914::OnAddInToolCommand
PUBLIC	?OnAddInToolCommand@CChartAddInBase135914@@MAEHAAJW4EAICommandType@@@Z ; CChartAddInBase135914::OnAddInToolCommand
PUBLIC	?OnAddInToolCommand@CChartAddInBase135914@@MAEHAAJW4EAICommandType@@PBD@Z ; CChartAddInBase135914::OnAddInToolCommand
PUBLIC	?OnAddInToolCommand@CChartAddInBase135914@@MAEHAAJW4EAICommandType@@PBDPAVCObject@@@Z ; CChartAddInBase135914::OnAddInToolCommand
PUBLIC	?OnAddInToolCommand@CChartAddInBase135914@@MAEHAAJW4EAICommandType@@J@Z ; CChartAddInBase135914::OnAddInToolCommand
PUBLIC	?OnAddInToolCommand@CChartAddInBase135914@@MAEHAAJW4EAICommandType@@JJ@Z ; CChartAddInBase135914::OnAddInToolCommand
PUBLIC	?OnKeyDown@CChartAddInBase135914@@MAEHIII@Z	; CChartAddInBase135914::OnKeyDown
PUBLIC	?OnKeyUp@CChartAddInBase135914@@MAEHIII@Z	; CChartAddInBase135914::OnKeyUp
PUBLIC	?OnMouseWheel@CChartAddInBase135914@@MAEHIFUtagPOINT@@K@Z ; CChartAddInBase135914::OnMouseWheel
PUBLIC	?OnMouseMove@CChartAddInBase135914@@MAEHPAUHDC__@@IAAUtagPOINT@@K@Z ; CChartAddInBase135914::OnMouseMove
PUBLIC	?OnLButtonDown@CChartAddInBase135914@@MAEHPAUHDC__@@IAAUtagPOINT@@K@Z ; CChartAddInBase135914::OnLButtonDown
PUBLIC	?OnLButtonUp@CChartAddInBase135914@@MAEHPAUHDC__@@IAAUtagPOINT@@K@Z ; CChartAddInBase135914::OnLButtonUp
PUBLIC	?OnLButtonDblClk@CChartAddInBase135914@@MAEHPAUHDC__@@IAAUtagPOINT@@K@Z ; CChartAddInBase135914::OnLButtonDblClk
PUBLIC	?OnRButtonDown@CChartAddInBase135914@@MAEHPAUHDC__@@IAAUtagPOINT@@K@Z ; CChartAddInBase135914::OnRButtonDown
PUBLIC	?OnRButtonUp@CChartAddInBase135914@@MAEHPAUHDC__@@IAAUtagPOINT@@K@Z ; CChartAddInBase135914::OnRButtonUp
PUBLIC	?OnRButtonDblClk@CChartAddInBase135914@@MAEHPAUHDC__@@IAAUtagPOINT@@K@Z ; CChartAddInBase135914::OnRButtonDblClk
PUBLIC	??1ILPCSTR135914@@QAE@XZ			; ILPCSTR135914::~ILPCSTR135914
PUBLIC	??0CChartEnvSetupDlgAddInImp@@QAE@PAUIChartOCX135914@@PAUIAddInDllBase@@@Z ; CChartEnvSetupDlgAddInImp::CChartEnvSetupDlgAddInImp
PUBLIC	??1CChartEnvSetupDlgAddInImp@@UAE@XZ		; CChartEnvSetupDlgAddInImp::~CChartEnvSetupDlgAddInImp
PUBLIC	?GetRegisteredEventMap@CChartEnvSetupDlgAddInImp@@MBEPBW4EAddInEventType@IChartAddIn135914@@XZ ; CChartEnvSetupDlgAddInImp::GetRegisteredEventMap
PUBLIC	?InvokeAddInStr@CChartEnvSetupDlgAddInImp@@MAEHPBD0@Z ; CChartEnvSetupDlgAddInImp::InvokeAddInStr
PUBLIC	?InvokeAddIn@CChartEnvSetupDlgAddInImp@@MAEHHJ@Z ; CChartEnvSetupDlgAddInImp::InvokeAddIn
PUBLIC	?OnGraphDeleted@CChartEnvSetupDlgAddInImp@@MAEXPBD0@Z ; CChartEnvSetupDlgAddInImp::OnGraphDeleted
PUBLIC	?OnCmdMsg@CChartEnvSetupDlgAddInImp@@MAEHIHPAUICmdUI135914@@@Z ; CChartEnvSetupDlgAddInImp::OnCmdMsg
PUBLIC	?OnAddInToolCommand@CChartEnvSetupDlgAddInImp@@MAEHW4EAICommandType@@JJ@Z ; CChartEnvSetupDlgAddInImp::OnAddInToolCommand
PUBLIC	?OnAddInToolCommand@CChartEnvSetupDlgAddInImp@@MAEHAAJW4EAICommandType@@PAUIGraphInfo135914@@@Z ; CChartEnvSetupDlgAddInImp::OnAddInToolCommand
PUBLIC	?BackUpIndicatorInfo@CChartEnvSetupDlgAddInImp@@QAEXPAUIStringList135914@@@Z ; CChartEnvSetupDlgAddInImp::BackUpIndicatorInfo
PUBLIC	??_GCChartEnvSetupDlgAddInImp@@UAEPAXI@Z	; CChartEnvSetupDlgAddInImp::`scalar deleting destructor'
PUBLIC	?LoadResourceDLL@IMetaTable@@QAEPAUHINSTANCE__@@PAUHWND__@@PAU2@@Z ; IMetaTable::LoadResourceDLL
PUBLIC	??1CMultiLanguageResourceSetter@@QAE@XZ		; CMultiLanguageResourceSetter::~CMultiLanguageResourceSetter
PUBLIC	?QueryInterface@CChartAddInBase135914@@O7AGJABU_GUID@@PAPAX@Z ; [thunk]:CChartAddInBase135914::QueryInterface`adjustor{8}'
PUBLIC	?AddRef@CChartAddInBase135914@@O7AGKXZ		; [thunk]:CChartAddInBase135914::AddRef`adjustor{8}'
PUBLIC	?Release@CChartAddInBase135914@@O7AGKXZ		; [thunk]:CChartAddInBase135914::Release`adjustor{8}'
PUBLIC	??_ECChartEnvSetupDlgAddInImp@@W7AEPAXI@Z	; [thunk]:CChartEnvSetupDlgAddInImp::`vector deleting destructor'
PUBLIC	??_R0?AVCObject@@@8				; CObject `RTTI Type Descriptor'
PUBLIC	??_R3CObject@@8					; CObject::`RTTI Class Hierarchy Descriptor'
PUBLIC	??_R2CObject@@8					; CObject::`RTTI Base Class Array'
PUBLIC	??_R1A@?0A@EA@CObject@@8			; CObject::`RTTI Base Class Descriptor at (0,-1,0,64)'
PUBLIC	??_R0?AUIUnknown@@@8				; IUnknown `RTTI Type Descriptor'
PUBLIC	??_R3IUnknown@@8				; IUnknown::`RTTI Class Hierarchy Descriptor'
PUBLIC	??_R2IUnknown@@8				; IUnknown::`RTTI Base Class Array'
PUBLIC	??_R1A@?0A@EA@IUnknown@@8			; IUnknown::`RTTI Base Class Descriptor at (0,-1,0,64)'
PUBLIC	?m_strAddInItemName@CChartEnvSetupDlgAddInImp@@2V?$CStringT@DV?$StrTraitMFC_DLL@DV?$ChTraitsCRT@D@ATL@@@@@ATL@@A ; CChartEnvSetupDlgAddInImp::m_strAddInItemName
PUBLIC	??_7CChartEnvSetupDlgAddInImp@@6BCIWUnknown@@@	; CChartEnvSetupDlgAddInImp::`vftable'
PUBLIC	??_7CChartEnvSetupDlgAddInImp@@6BIChartAddIn135914@@@ ; CChartEnvSetupDlgAddInImp::`vftable'
PUBLIC	??_C@_0BA@ENJOCHIO@LoadResourceDLL@		; `string'
PUBLIC	??_C@_09HBGKILKL@SHOW_MENU@			; `string'
PUBLIC	??_R0?AUIChartAddIn135914@@@8			; IChartAddIn135914 `RTTI Type Descriptor'
PUBLIC	??_R3IChartAddIn135914@@8			; IChartAddIn135914::`RTTI Class Hierarchy Descriptor'
PUBLIC	??_R2IChartAddIn135914@@8			; IChartAddIn135914::`RTTI Base Class Array'
PUBLIC	??_R1A@?0A@EA@IChartAddIn135914@@8		; IChartAddIn135914::`RTTI Base Class Descriptor at (0,-1,0,64)'
PUBLIC	??_R4CChartEnvSetupDlgAddInImp@@6BCIWUnknown@@@	; CChartEnvSetupDlgAddInImp::`RTTI Complete Object Locator'
PUBLIC	??_R0?AVCChartEnvSetupDlgAddInImp@@@8		; CChartEnvSetupDlgAddInImp `RTTI Type Descriptor'
PUBLIC	??_R3CChartEnvSetupDlgAddInImp@@8		; CChartEnvSetupDlgAddInImp::`RTTI Class Hierarchy Descriptor'
PUBLIC	??_R2CChartEnvSetupDlgAddInImp@@8		; CChartEnvSetupDlgAddInImp::`RTTI Base Class Array'
PUBLIC	??_R1A@?0A@EA@CChartEnvSetupDlgAddInImp@@8	; CChartEnvSetupDlgAddInImp::`RTTI Base Class Descriptor at (0,-1,0,64)'
PUBLIC	??_R1A@?0A@EA@CChartAddInBase135914@@8		; CChartAddInBase135914::`RTTI Base Class Descriptor at (0,-1,0,64)'
PUBLIC	??_R0?AVCChartAddInBase135914@@@8		; CChartAddInBase135914 `RTTI Type Descriptor'
PUBLIC	??_R3CChartAddInBase135914@@8			; CChartAddInBase135914::`RTTI Class Hierarchy Descriptor'
PUBLIC	??_R2CChartAddInBase135914@@8			; CChartAddInBase135914::`RTTI Base Class Array'
PUBLIC	??_R1A@?0A@EA@CIWUnknown@@8			; CIWUnknown::`RTTI Base Class Descriptor at (0,-1,0,64)'
PUBLIC	??_R0?AVCIWUnknown@@@8				; CIWUnknown `RTTI Type Descriptor'
PUBLIC	??_R3CIWUnknown@@8				; CIWUnknown::`RTTI Class Hierarchy Descriptor'
PUBLIC	??_R2CIWUnknown@@8				; CIWUnknown::`RTTI Base Class Array'
PUBLIC	??_R17?0A@EA@IChartAddIn135914@@8		; IChartAddIn135914::`RTTI Base Class Descriptor at (8,-1,0,64)'
PUBLIC	??_R17?0A@EA@IUnknown@@8			; IUnknown::`RTTI Base Class Descriptor at (8,-1,0,64)'
PUBLIC	??_R4CChartEnvSetupDlgAddInImp@@6BIChartAddIn135914@@@ ; CChartEnvSetupDlgAddInImp::`RTTI Complete Object Locator'
EXTRN	??3@YAXPAX@Z:PROC				; operator delete
EXTRN	?__global_delete@@YAXPAXI@Z:PROC		; __global_delete
EXTRN	_atexit:PROC
EXTRN	___std_terminate:PROC
EXTRN	__imp__GetVersionExA@4:PROC
EXTRN	__imp__GetProcAddress@8:PROC
EXTRN	?GetRuntimeClass@CObject@@UBEPAUCRuntimeClass@@XZ:PROC ; CObject::GetRuntimeClass
EXTRN	?IsKindOf@CObject@@QBEHPBUCRuntimeClass@@@Z:PROC ; CObject::IsKindOf
EXTRN	__imp_??0?$CStringT@DV?$StrTraitMFC_DLL@DV?$ChTraitsCRT@D@ATL@@@@@ATL@@QAE@PBD@Z:PROC
EXTRN	__imp_??1?$CStringT@DV?$StrTraitMFC_DLL@DV?$ChTraitsCRT@D@ATL@@@@@ATL@@QAE@XZ:PROC
EXTRN	?AfxGetModuleState@@YGPAVAFX_MODULE_STATE@@XZ:PROC ; AfxGetModuleState
EXTRN	?AfxGetStaticModuleState@@YGPAVAFX_MODULE_STATE@@XZ:PROC ; AfxGetStaticModuleState
EXTRN	?DoModal@CDialog@@UAEHXZ:PROC			; CDialog::DoModal
EXTRN	?AfxMessageBox@@YGHIII@Z:PROC			; AfxMessageBox
EXTRN	?AddRef@CIWUnknown@@MAGKXZ:PROC			; CIWUnknown::AddRef
EXTRN	?Release@CIWUnknown@@MAGKXZ:PROC		; CIWUnknown::Release
EXTRN	??0CChartAddInBase135914@@IAE@PAUIChartOCX135914@@PAUIAddInDllBase@@@Z:PROC ; CChartAddInBase135914::CChartAddInBase135914
EXTRN	??1CChartAddInBase135914@@MAE@XZ:PROC		; CChartAddInBase135914::~CChartAddInBase135914
EXTRN	?HasFullManager@CChartAddInBase135914@@MAEHXZ:PROC ; CChartAddInBase135914::HasFullManager
EXTRN	?RegisterEventMap@CChartAddInBase135914@@UAEHH@Z:PROC ; CChartAddInBase135914::RegisterEventMap
EXTRN	?UnregisterEventMap@CChartAddInBase135914@@UAEHXZ:PROC ; CChartAddInBase135914::UnregisterEventMap
EXTRN	??_ECChartEnvSetupDlgAddInImp@@UAEPAXI@Z:PROC	; CChartEnvSetupDlgAddInImp::`vector deleting destructor'
EXTRN	??0CGraphSetting@@QAE@PAUIChartOCX135914@@HPAVCWnd@@@Z:PROC ; CGraphSetting::CGraphSetting
EXTRN	??1CGraphSetting@@UAE@XZ:PROC			; CGraphSetting::~CGraphSetting
EXTRN	?SetData@CGraphSetting@@QAEXPAUIGraphInfo135914@@HHH@Z:PROC ; CGraphSetting::SetData
EXTRN	?GetReturnValue@CGraphSetting@@QBEHXZ:PROC	; CGraphSetting::GetReturnValue
EXTRN	?GetLogState@CGraphSetting@@QBEHXZ:PROC		; CGraphSetting::GetLogState
EXTRN	?GetInvertScaleType@CGraphSetting@@QBEHXZ:PROC	; CGraphSetting::GetInvertScaleType
EXTRN	?GetTabPages@CTabMainChartEnvSetUp@@QAEPAVCDialog@@H@Z:PROC ; CTabMainChartEnvSetUp::GetTabPages
EXTRN	?OnGraphDeleted@CTabMainChartEnvSetUp@@QAEXPBD0@Z:PROC ; CTabMainChartEnvSetUp::OnGraphDeleted
EXTRN	??0CDlgEnvSetUpAll@@QAE@PAUIChartOCX135914@@HHPAVCChartAddInBase135914@@PAVCWnd@@H@Z:PROC ; CDlgEnvSetUpAll::CDlgEnvSetUpAll
EXTRN	??1CDlgEnvSetUpAll@@UAE@XZ:PROC			; CDlgEnvSetUpAll::~CDlgEnvSetUpAll
EXTRN	?GetThisClass@CDlgMainTabBaseEnvSetUp@@SGPAUCRuntimeClass@@XZ:PROC ; CDlgMainTabBaseEnvSetUp::GetThisClass
EXTRN	?EnableRevisedPrice@CDlgMainTabBaseEnvSetUp@@QAEXH@Z:PROC ; CDlgMainTabBaseEnvSetUp::EnableRevisedPrice
EXTRN	?IsSpecialGroupGraph@IMetaTable@@QAE_NPBD@Z:PROC ; IMetaTable::IsSpecialGroupGraph
EXTRN	@__security_check_cookie@4:PROC
EXTRN	___CxxFrameHandler3:PROC
EXTRN	??_7type_info@@6B@:QWORD			; type_info::`vftable'
EXTRN	?g_iMetaTable@@3VIMetaTable@@A:BYTE		; g_iMetaTable
EXTRN	___security_cookie:DWORD
_BSS	SEGMENT
?m_strAddInItemName@CChartEnvSetupDlgAddInImp@@2V?$CStringT@DV?$StrTraitMFC_DLL@DV?$ChTraitsCRT@D@ATL@@@@@ATL@@A DD 01H DUP (?) ; CChartEnvSetupDlgAddInImp::m_strAddInItemName
_BSS	ENDS
CRT$XCU	SEGMENT
??m_strAddInItemName$initializer$@CChartEnvSetupDlgAddInImp@@2P6AXXZA@@3P6AXXZA DD FLAT:??__E?m_strAddInItemName@CChartEnvSetupDlgAddInImp@@2V?$CStringT@DV?$StrTraitMFC_DLL@DV?$ChTraitsCRT@D@ATL@@@@@ATL@@A@@YAXXZ ; ??m_strAddInItemName$initializer$@CChartEnvSetupDlgAddInImp@@2P6AXXZA@@3P6AXXZA
CRT$XCU	ENDS
;	COMDAT ??_R4CChartEnvSetupDlgAddInImp@@6BIChartAddIn135914@@@
rdata$r	SEGMENT
??_R4CChartEnvSetupDlgAddInImp@@6BIChartAddIn135914@@@ DD 00H ; CChartEnvSetupDlgAddInImp::`RTTI Complete Object Locator'
	DD	08H
	DD	00H
	DD	FLAT:??_R0?AVCChartEnvSetupDlgAddInImp@@@8
	DD	FLAT:??_R3CChartEnvSetupDlgAddInImp@@8
rdata$r	ENDS
;	COMDAT ??_R17?0A@EA@IUnknown@@8
rdata$r	SEGMENT
??_R17?0A@EA@IUnknown@@8 DD FLAT:??_R0?AUIUnknown@@@8	; IUnknown::`RTTI Base Class Descriptor at (8,-1,0,64)'
	DD	00H
	DD	08H
	DD	0ffffffffH
	DD	00H
	DD	040H
	DD	FLAT:??_R3IUnknown@@8
rdata$r	ENDS
;	COMDAT ??_R17?0A@EA@IChartAddIn135914@@8
rdata$r	SEGMENT
??_R17?0A@EA@IChartAddIn135914@@8 DD FLAT:??_R0?AUIChartAddIn135914@@@8 ; IChartAddIn135914::`RTTI Base Class Descriptor at (8,-1,0,64)'
	DD	01H
	DD	08H
	DD	0ffffffffH
	DD	00H
	DD	040H
	DD	FLAT:??_R3IChartAddIn135914@@8
rdata$r	ENDS
;	COMDAT ??_R2CIWUnknown@@8
rdata$r	SEGMENT
??_R2CIWUnknown@@8 DD FLAT:??_R1A@?0A@EA@CIWUnknown@@8	; CIWUnknown::`RTTI Base Class Array'
	DD	FLAT:??_R1A@?0A@EA@CObject@@8
rdata$r	ENDS
;	COMDAT ??_R3CIWUnknown@@8
rdata$r	SEGMENT
??_R3CIWUnknown@@8 DD 00H				; CIWUnknown::`RTTI Class Hierarchy Descriptor'
	DD	00H
	DD	02H
	DD	FLAT:??_R2CIWUnknown@@8
rdata$r	ENDS
;	COMDAT ??_R0?AVCIWUnknown@@@8
data$rs	SEGMENT
??_R0?AVCIWUnknown@@@8 DD FLAT:??_7type_info@@6B@	; CIWUnknown `RTTI Type Descriptor'
	DD	00H
	DB	'.?AVCIWUnknown@@', 00H
data$rs	ENDS
;	COMDAT ??_R1A@?0A@EA@CIWUnknown@@8
rdata$r	SEGMENT
??_R1A@?0A@EA@CIWUnknown@@8 DD FLAT:??_R0?AVCIWUnknown@@@8 ; CIWUnknown::`RTTI Base Class Descriptor at (0,-1,0,64)'
	DD	01H
	DD	00H
	DD	0ffffffffH
	DD	00H
	DD	040H
	DD	FLAT:??_R3CIWUnknown@@8
rdata$r	ENDS
;	COMDAT ??_R2CChartAddInBase135914@@8
rdata$r	SEGMENT
??_R2CChartAddInBase135914@@8 DD FLAT:??_R1A@?0A@EA@CChartAddInBase135914@@8 ; CChartAddInBase135914::`RTTI Base Class Array'
	DD	FLAT:??_R1A@?0A@EA@CIWUnknown@@8
	DD	FLAT:??_R1A@?0A@EA@CObject@@8
	DD	FLAT:??_R17?0A@EA@IChartAddIn135914@@8
	DD	FLAT:??_R17?0A@EA@IUnknown@@8
rdata$r	ENDS
;	COMDAT ??_R3CChartAddInBase135914@@8
rdata$r	SEGMENT
??_R3CChartAddInBase135914@@8 DD 00H			; CChartAddInBase135914::`RTTI Class Hierarchy Descriptor'
	DD	01H
	DD	05H
	DD	FLAT:??_R2CChartAddInBase135914@@8
rdata$r	ENDS
;	COMDAT ??_R0?AVCChartAddInBase135914@@@8
data$rs	SEGMENT
??_R0?AVCChartAddInBase135914@@@8 DD FLAT:??_7type_info@@6B@ ; CChartAddInBase135914 `RTTI Type Descriptor'
	DD	00H
	DB	'.?AVCChartAddInBase135914@@', 00H
data$rs	ENDS
;	COMDAT ??_R1A@?0A@EA@CChartAddInBase135914@@8
rdata$r	SEGMENT
??_R1A@?0A@EA@CChartAddInBase135914@@8 DD FLAT:??_R0?AVCChartAddInBase135914@@@8 ; CChartAddInBase135914::`RTTI Base Class Descriptor at (0,-1,0,64)'
	DD	04H
	DD	00H
	DD	0ffffffffH
	DD	00H
	DD	040H
	DD	FLAT:??_R3CChartAddInBase135914@@8
rdata$r	ENDS
;	COMDAT ??_R1A@?0A@EA@CChartEnvSetupDlgAddInImp@@8
rdata$r	SEGMENT
??_R1A@?0A@EA@CChartEnvSetupDlgAddInImp@@8 DD FLAT:??_R0?AVCChartEnvSetupDlgAddInImp@@@8 ; CChartEnvSetupDlgAddInImp::`RTTI Base Class Descriptor at (0,-1,0,64)'
	DD	05H
	DD	00H
	DD	0ffffffffH
	DD	00H
	DD	040H
	DD	FLAT:??_R3CChartEnvSetupDlgAddInImp@@8
rdata$r	ENDS
;	COMDAT ??_R2CChartEnvSetupDlgAddInImp@@8
rdata$r	SEGMENT
??_R2CChartEnvSetupDlgAddInImp@@8 DD FLAT:??_R1A@?0A@EA@CChartEnvSetupDlgAddInImp@@8 ; CChartEnvSetupDlgAddInImp::`RTTI Base Class Array'
	DD	FLAT:??_R1A@?0A@EA@CChartAddInBase135914@@8
	DD	FLAT:??_R1A@?0A@EA@CIWUnknown@@8
	DD	FLAT:??_R1A@?0A@EA@CObject@@8
	DD	FLAT:??_R17?0A@EA@IChartAddIn135914@@8
	DD	FLAT:??_R17?0A@EA@IUnknown@@8
rdata$r	ENDS
;	COMDAT ??_R3CChartEnvSetupDlgAddInImp@@8
rdata$r	SEGMENT
??_R3CChartEnvSetupDlgAddInImp@@8 DD 00H		; CChartEnvSetupDlgAddInImp::`RTTI Class Hierarchy Descriptor'
	DD	01H
	DD	06H
	DD	FLAT:??_R2CChartEnvSetupDlgAddInImp@@8
rdata$r	ENDS
;	COMDAT ??_R0?AVCChartEnvSetupDlgAddInImp@@@8
data$rs	SEGMENT
??_R0?AVCChartEnvSetupDlgAddInImp@@@8 DD FLAT:??_7type_info@@6B@ ; CChartEnvSetupDlgAddInImp `RTTI Type Descriptor'
	DD	00H
	DB	'.?AVCChartEnvSetupDlgAddInImp@@', 00H
data$rs	ENDS
;	COMDAT ??_R4CChartEnvSetupDlgAddInImp@@6BCIWUnknown@@@
rdata$r	SEGMENT
??_R4CChartEnvSetupDlgAddInImp@@6BCIWUnknown@@@ DD 00H	; CChartEnvSetupDlgAddInImp::`RTTI Complete Object Locator'
	DD	00H
	DD	00H
	DD	FLAT:??_R0?AVCChartEnvSetupDlgAddInImp@@@8
	DD	FLAT:??_R3CChartEnvSetupDlgAddInImp@@8
rdata$r	ENDS
;	COMDAT ??_R1A@?0A@EA@IChartAddIn135914@@8
rdata$r	SEGMENT
??_R1A@?0A@EA@IChartAddIn135914@@8 DD FLAT:??_R0?AUIChartAddIn135914@@@8 ; IChartAddIn135914::`RTTI Base Class Descriptor at (0,-1,0,64)'
	DD	01H
	DD	00H
	DD	0ffffffffH
	DD	00H
	DD	040H
	DD	FLAT:??_R3IChartAddIn135914@@8
rdata$r	ENDS
;	COMDAT ??_R2IChartAddIn135914@@8
rdata$r	SEGMENT
??_R2IChartAddIn135914@@8 DD FLAT:??_R1A@?0A@EA@IChartAddIn135914@@8 ; IChartAddIn135914::`RTTI Base Class Array'
	DD	FLAT:??_R1A@?0A@EA@IUnknown@@8
rdata$r	ENDS
;	COMDAT ??_R3IChartAddIn135914@@8
rdata$r	SEGMENT
??_R3IChartAddIn135914@@8 DD 00H			; IChartAddIn135914::`RTTI Class Hierarchy Descriptor'
	DD	00H
	DD	02H
	DD	FLAT:??_R2IChartAddIn135914@@8
rdata$r	ENDS
;	COMDAT ??_R0?AUIChartAddIn135914@@@8
data$rs	SEGMENT
??_R0?AUIChartAddIn135914@@@8 DD FLAT:??_7type_info@@6B@ ; IChartAddIn135914 `RTTI Type Descriptor'
	DD	00H
	DB	'.?AUIChartAddIn135914@@', 00H
data$rs	ENDS
;	COMDAT ??_C@_09HBGKILKL@SHOW_MENU@
CONST	SEGMENT
??_C@_09HBGKILKL@SHOW_MENU@ DB 'SHOW_MENU', 00H		; `string'
CONST	ENDS
;	COMDAT ??_C@_0BA@ENJOCHIO@LoadResourceDLL@
CONST	SEGMENT
??_C@_0BA@ENJOCHIO@LoadResourceDLL@ DB 'LoadResourceDLL', 00H ; `string'
CONST	ENDS
;	COMDAT ??_7CChartEnvSetupDlgAddInImp@@6BIChartAddIn135914@@@
CONST	SEGMENT
??_7CChartEnvSetupDlgAddInImp@@6BIChartAddIn135914@@@ DD FLAT:??_R4CChartEnvSetupDlgAddInImp@@6BIChartAddIn135914@@@ ; CChartEnvSetupDlgAddInImp::`vftable'
	DD	FLAT:?QueryInterface@CChartAddInBase135914@@O7AGJABU_GUID@@PAPAX@Z
	DD	FLAT:?AddRef@CChartAddInBase135914@@O7AGKXZ
	DD	FLAT:?Release@CChartAddInBase135914@@O7AGKXZ
	DD	FLAT:??_ECChartEnvSetupDlgAddInImp@@W7AEPAXI@Z
	DD	FLAT:?HasFullManager@CChartAddInBase135914@@MAEHXZ
	DD	FLAT:?GetAddInCustomInterface@CChartAddInBase135914@@MAEPAUIUnknown@@XZ
	DD	FLAT:?InvokeAddIn@CChartEnvSetupDlgAddInImp@@MAEHHJ@Z
	DD	FLAT:?InvokeAddInStr@CChartEnvSetupDlgAddInImp@@MAEHPBD0@Z
	DD	FLAT:?GetGlobalAddInEventType@CChartAddInBase135914@@MBE?AW4EAddInEventType@IAddInDllBase@@J@Z
	DD	FLAT:?RegisterEventMap@CChartAddInBase135914@@UAEHH@Z
	DD	FLAT:?UnregisterEventMap@CChartAddInBase135914@@UAEHXZ
	DD	FLAT:?OnGSharedDataChange@CChartAddInBase135914@@MAEXPBD0H@Z
	DD	FLAT:?OnLSharedDataChange@CChartAddInBase135914@@MAEXPBD0@Z
	DD	FLAT:?OnSharedDataChange@CChartAddInBase135914@@MAEXPBD0H@Z
	DD	FLAT:?OnResetChart@CChartAddInBase135914@@MAEXXZ
	DD	FLAT:?OnDrawBeforeGraph@CChartAddInBase135914@@MAEXPAUHDC__@@@Z
	DD	FLAT:?OnDrawAfterGraph@CChartAddInBase135914@@MAEXPAUHDC__@@@Z
	DD	FLAT:?OnPacketData@CChartAddInBase135914@@MAEXPBDH@Z
	DD	FLAT:?OnUpdatePacketData@CChartAddInBase135914@@MAEXH@Z
	DD	FLAT:?OnTimer@CChartAddInBase135914@@MAEXI@Z
	DD	FLAT:?OnCaptureChanged@CChartAddInBase135914@@MAEXPAUHWND__@@@Z
	DD	FLAT:?OnDrdsData@CChartAddInBase135914@@MAEXIJ@Z
	DD	FLAT:?OnDrdsPacketEnd@CChartAddInBase135914@@MAEXIJ@Z
	DD	FLAT:?OnGraphDeleted@CChartEnvSetupDlgAddInImp@@MAEXPBD0@Z
	DD	FLAT:?OnCmdMsg@CChartEnvSetupDlgAddInImp@@MAEHIHPAUICmdUI135914@@@Z
	DD	FLAT:?OnAddInToolCommand@CChartAddInBase135914@@MAEHAAJW4EAICommandType@@JJ@Z
	DD	FLAT:?OnAddInToolCommand@CChartAddInBase135914@@MAEHAAJW4EAICommandType@@J@Z
	DD	FLAT:?OnAddInToolCommand@CChartAddInBase135914@@MAEHAAJW4EAICommandType@@PBDPAVCObject@@@Z
	DD	FLAT:?OnAddInToolCommand@CChartAddInBase135914@@MAEHAAJW4EAICommandType@@PBD@Z
	DD	FLAT:?OnAddInToolCommand@CChartEnvSetupDlgAddInImp@@MAEHAAJW4EAICommandType@@PAUIGraphInfo135914@@@Z
	DD	FLAT:?OnAddInToolCommand@CChartAddInBase135914@@MAEHAAJW4EAICommandType@@@Z
	DD	FLAT:?OnAddInToolCommand@CChartAddInBase135914@@MAEHW4EAICommandType@@PAUHWND__@@AAUtagPOINT@@@Z
	DD	FLAT:?OnAddInToolCommand@CChartAddInBase135914@@MAEHW4EAICommandType@@JJJJJJJJJ@Z
	DD	FLAT:?OnAddInToolCommand@CChartEnvSetupDlgAddInImp@@MAEHW4EAICommandType@@JJ@Z
	DD	FLAT:?OnAddInToolCommand@CChartAddInBase135914@@MAEHW4EAICommandType@@JPBD11@Z
	DD	FLAT:?OnAddInToolCommand@CChartAddInBase135914@@MAEHW4EAICommandType@@JPBD@Z
	DD	FLAT:?OnAddInToolCommand@CChartAddInBase135914@@MAEHW4EAICommandType@@J@Z
	DD	FLAT:?OnAddInToolCommand@CChartAddInBase135914@@MAEHW4EAICommandType@@PBUIAddInDllBase@@@Z
	DD	FLAT:?OnAddInToolCommand@CChartAddInBase135914@@MAEHW4EAICommandType@@PBVCBlockBehaviorData@@@Z
	DD	FLAT:?OnAddInToolCommand@CChartAddInBase135914@@MAEHW4EAICommandType@@PBDJ@Z
	DD	FLAT:?OnAddInToolCommand@CChartAddInBase135914@@MAEHW4EAICommandType@@PBD@Z
	DD	FLAT:?OnAddInToolCommand@CChartAddInBase135914@@MAEHW4EAICommandType@@PAUHDC__@@IAAUtagPOINT@@K@Z
	DD	FLAT:?OnAddInToolCommand@CChartAddInBase135914@@MAEHW4EAICommandType@@@Z
	DD	FLAT:?OnKeyDown@CChartAddInBase135914@@MAEHIII@Z
	DD	FLAT:?OnKeyUp@CChartAddInBase135914@@MAEHIII@Z
	DD	FLAT:?OnMouseWheel@CChartAddInBase135914@@MAEHIFUtagPOINT@@K@Z
	DD	FLAT:?OnMouseMove@CChartAddInBase135914@@MAEHPAUHDC__@@IAAUtagPOINT@@K@Z
	DD	FLAT:?OnLButtonDown@CChartAddInBase135914@@MAEHPAUHDC__@@IAAUtagPOINT@@K@Z
	DD	FLAT:?OnLButtonUp@CChartAddInBase135914@@MAEHPAUHDC__@@IAAUtagPOINT@@K@Z
	DD	FLAT:?OnLButtonDblClk@CChartAddInBase135914@@MAEHPAUHDC__@@IAAUtagPOINT@@K@Z
	DD	FLAT:?OnRButtonDown@CChartAddInBase135914@@MAEHPAUHDC__@@IAAUtagPOINT@@K@Z
	DD	FLAT:?OnRButtonUp@CChartAddInBase135914@@MAEHPAUHDC__@@IAAUtagPOINT@@K@Z
	DD	FLAT:?OnRButtonDblClk@CChartAddInBase135914@@MAEHPAUHDC__@@IAAUtagPOINT@@K@Z
CONST	ENDS
;	COMDAT ??_7CChartEnvSetupDlgAddInImp@@6BCIWUnknown@@@
CONST	SEGMENT
??_7CChartEnvSetupDlgAddInImp@@6BCIWUnknown@@@ DD FLAT:??_R4CChartEnvSetupDlgAddInImp@@6BCIWUnknown@@@ ; CChartEnvSetupDlgAddInImp::`vftable'
	DD	FLAT:?GetRuntimeClass@CObject@@UBEPAUCRuntimeClass@@XZ
	DD	FLAT:??_ECChartEnvSetupDlgAddInImp@@UAEPAXI@Z
	DD	FLAT:?Serialize@CObject@@UAEXAAVCArchive@@@Z
	DD	FLAT:?AssertValid@CObject@@UBEXXZ
	DD	FLAT:?Dump@CObject@@UBEXAAVCDumpContext@@@Z
	DD	FLAT:?AddRef@CChartAddInBase135914@@MAGKXZ
	DD	FLAT:?Release@CChartAddInBase135914@@MAGKXZ
	DD	FLAT:?QueryInterface@CChartAddInBase135914@@MAGJABU_GUID@@PAPAX@Z
	DD	FLAT:?PostConstruct@CIWUnknown@@MAEXXZ
	DD	FLAT:?PreDestructX@CIWUnknown@@MAEXXZ
	DD	FLAT:?PreDestruct@CIWUnknown@@MAEXXZ
	DD	FLAT:?GetRegisteredEventMap@CChartEnvSetupDlgAddInImp@@MBEPBW4EAddInEventType@IChartAddIn135914@@XZ
CONST	ENDS
;	COMDAT ??_R1A@?0A@EA@IUnknown@@8
rdata$r	SEGMENT
??_R1A@?0A@EA@IUnknown@@8 DD FLAT:??_R0?AUIUnknown@@@8	; IUnknown::`RTTI Base Class Descriptor at (0,-1,0,64)'
	DD	00H
	DD	00H
	DD	0ffffffffH
	DD	00H
	DD	040H
	DD	FLAT:??_R3IUnknown@@8
rdata$r	ENDS
;	COMDAT ??_R2IUnknown@@8
rdata$r	SEGMENT
??_R2IUnknown@@8 DD FLAT:??_R1A@?0A@EA@IUnknown@@8	; IUnknown::`RTTI Base Class Array'
rdata$r	ENDS
;	COMDAT ??_R3IUnknown@@8
rdata$r	SEGMENT
??_R3IUnknown@@8 DD 00H					; IUnknown::`RTTI Class Hierarchy Descriptor'
	DD	00H
	DD	01H
	DD	FLAT:??_R2IUnknown@@8
rdata$r	ENDS
;	COMDAT ??_R0?AUIUnknown@@@8
data$rs	SEGMENT
??_R0?AUIUnknown@@@8 DD FLAT:??_7type_info@@6B@		; IUnknown `RTTI Type Descriptor'
	DD	00H
	DB	'.?AUIUnknown@@', 00H
data$rs	ENDS
;	COMDAT ??_R1A@?0A@EA@CObject@@8
rdata$r	SEGMENT
??_R1A@?0A@EA@CObject@@8 DD FLAT:??_R0?AVCObject@@@8	; CObject::`RTTI Base Class Descriptor at (0,-1,0,64)'
	DD	00H
	DD	00H
	DD	0ffffffffH
	DD	00H
	DD	040H
	DD	FLAT:??_R3CObject@@8
rdata$r	ENDS
;	COMDAT ??_R2CObject@@8
rdata$r	SEGMENT
??_R2CObject@@8 DD FLAT:??_R1A@?0A@EA@CObject@@8	; CObject::`RTTI Base Class Array'
rdata$r	ENDS
;	COMDAT ??_R3CObject@@8
rdata$r	SEGMENT
??_R3CObject@@8 DD 00H					; CObject::`RTTI Class Hierarchy Descriptor'
	DD	00H
	DD	01H
	DD	FLAT:??_R2CObject@@8
rdata$r	ENDS
;	COMDAT ??_R0?AVCObject@@@8
data$rs	SEGMENT
??_R0?AVCObject@@@8 DD FLAT:??_7type_info@@6B@		; CObject `RTTI Type Descriptor'
	DD	00H
	DB	'.?AVCObject@@', 00H
data$rs	ENDS
;	COMDAT xdata$x
xdata$x	SEGMENT
__ehfuncinfo$??1CMultiLanguageResourceSetter@@QAE@XZ DD 019930522H
	DD	00H
	DD	00H
	DD	2 DUP(00H)
	DD	2 DUP(00H)
	DD	00H
	DD	05H
xdata$x	ENDS
;	COMDAT xdata$x
xdata$x	SEGMENT
__ehfuncinfo$?OnAddInToolCommand@CChartEnvSetupDlgAddInImp@@MAEHAAJW4EAICommandType@@PAUIGraphInfo135914@@@Z DD 019930522H
	DD	09H
	DD	FLAT:__unwindtable$?OnAddInToolCommand@CChartEnvSetupDlgAddInImp@@MAEHAAJW4EAICommandType@@PAUIGraphInfo135914@@@Z
	DD	2 DUP(00H)
	DD	2 DUP(00H)
	DD	00H
	DD	01H
__unwindtable$?OnAddInToolCommand@CChartEnvSetupDlgAddInImp@@MAEHAAJW4EAICommandType@@PAUIGraphInfo135914@@@Z DD 0ffffffffH
	DD	FLAT:__unwindfunclet$?OnAddInToolCommand@CChartEnvSetupDlgAddInImp@@MAEHAAJW4EAICommandType@@PAUIGraphInfo135914@@@Z$0
	DD	0ffffffffH
	DD	FLAT:___std_terminate
	DD	0ffffffffH
	DD	FLAT:__unwindfunclet$?OnAddInToolCommand@CChartEnvSetupDlgAddInImp@@MAEHAAJW4EAICommandType@@PAUIGraphInfo135914@@@Z$1
	DD	02H
	DD	FLAT:__unwindfunclet$?OnAddInToolCommand@CChartEnvSetupDlgAddInImp@@MAEHAAJW4EAICommandType@@PAUIGraphInfo135914@@@Z$2
	DD	03H
	DD	FLAT:__unwindfunclet$?OnAddInToolCommand@CChartEnvSetupDlgAddInImp@@MAEHAAJW4EAICommandType@@PAUIGraphInfo135914@@@Z$3
	DD	03H
	DD	FLAT:__unwindfunclet$?OnAddInToolCommand@CChartEnvSetupDlgAddInImp@@MAEHAAJW4EAICommandType@@PAUIGraphInfo135914@@@Z$4
	DD	05H
	DD	FLAT:__unwindfunclet$?OnAddInToolCommand@CChartEnvSetupDlgAddInImp@@MAEHAAJW4EAICommandType@@PAUIGraphInfo135914@@@Z$5
	DD	03H
	DD	FLAT:___std_terminate
	DD	0ffffffffH
	DD	FLAT:___std_terminate
xdata$x	ENDS
;	COMDAT xdata$x
xdata$x	SEGMENT
__ehfuncinfo$?OnAddInToolCommand@CChartEnvSetupDlgAddInImp@@MAEHW4EAICommandType@@JJ@Z DD 019930522H
	DD	08H
	DD	FLAT:__unwindtable$?OnAddInToolCommand@CChartEnvSetupDlgAddInImp@@MAEHW4EAICommandType@@JJ@Z
	DD	2 DUP(00H)
	DD	2 DUP(00H)
	DD	00H
	DD	01H
__unwindtable$?OnAddInToolCommand@CChartEnvSetupDlgAddInImp@@MAEHW4EAICommandType@@JJ@Z DD 0ffffffffH
	DD	FLAT:__unwindfunclet$?OnAddInToolCommand@CChartEnvSetupDlgAddInImp@@MAEHW4EAICommandType@@JJ@Z$0
	DD	0ffffffffH
	DD	FLAT:___std_terminate
	DD	0ffffffffH
	DD	FLAT:__unwindfunclet$?OnAddInToolCommand@CChartEnvSetupDlgAddInImp@@MAEHW4EAICommandType@@JJ@Z$1
	DD	0ffffffffH
	DD	FLAT:___std_terminate
	DD	0ffffffffH
	DD	FLAT:__unwindfunclet$?OnAddInToolCommand@CChartEnvSetupDlgAddInImp@@MAEHW4EAICommandType@@JJ@Z$2
	DD	04H
	DD	FLAT:__unwindfunclet$?OnAddInToolCommand@CChartEnvSetupDlgAddInImp@@MAEHW4EAICommandType@@JJ@Z$3
	DD	05H
	DD	FLAT:__unwindfunclet$?OnAddInToolCommand@CChartEnvSetupDlgAddInImp@@MAEHW4EAICommandType@@JJ@Z$4
	DD	04H
	DD	FLAT:___std_terminate
xdata$x	ENDS
;	COMDAT xdata$x
xdata$x	SEGMENT
__unwindtable$?OnCmdMsg@CChartEnvSetupDlgAddInImp@@MAEHIHPAUICmdUI135914@@@Z DD 0ffffffffH
	DD	FLAT:__unwindfunclet$?OnCmdMsg@CChartEnvSetupDlgAddInImp@@MAEHIHPAUICmdUI135914@@@Z$0
	DD	0ffffffffH
	DD	FLAT:___std_terminate
__ehfuncinfo$?OnCmdMsg@CChartEnvSetupDlgAddInImp@@MAEHIHPAUICmdUI135914@@@Z DD 019930522H
	DD	02H
	DD	FLAT:__unwindtable$?OnCmdMsg@CChartEnvSetupDlgAddInImp@@MAEHIHPAUICmdUI135914@@@Z
	DD	2 DUP(00H)
	DD	2 DUP(00H)
	DD	00H
	DD	01H
xdata$x	ENDS
;	COMDAT xdata$x
xdata$x	SEGMENT
__unwindtable$??0CChartEnvSetupDlgAddInImp@@QAE@PAUIChartOCX135914@@PAUIAddInDllBase@@@Z DD 0ffffffffH
	DD	FLAT:__unwindfunclet$??0CChartEnvSetupDlgAddInImp@@QAE@PAUIChartOCX135914@@PAUIAddInDllBase@@@Z$0
__ehfuncinfo$??0CChartEnvSetupDlgAddInImp@@QAE@PAUIChartOCX135914@@PAUIAddInDllBase@@@Z DD 019930522H
	DD	01H
	DD	FLAT:__unwindtable$??0CChartEnvSetupDlgAddInImp@@QAE@PAUIChartOCX135914@@PAUIAddInDllBase@@@Z
	DD	2 DUP(00H)
	DD	2 DUP(00H)
	DD	00H
	DD	01H
xdata$x	ENDS
;	COMDAT xdata$x
xdata$x	SEGMENT
__ehfuncinfo$??1ILPCSTR135914@@QAE@XZ DD 019930522H
	DD	00H
	DD	00H
	DD	2 DUP(00H)
	DD	2 DUP(00H)
	DD	00H
	DD	05H
xdata$x	ENDS
; Function compile flags: /Odsp
;	COMDAT ??_ECChartEnvSetupDlgAddInImp@@W7AEPAXI@Z
_TEXT	SEGMENT
??_ECChartEnvSetupDlgAddInImp@@W7AEPAXI@Z PROC		; [thunk]:CChartEnvSetupDlgAddInImp::`vector deleting destructor', COMDAT
  00000	83 e9 08	 sub	 ecx, 8
  00003	e9 00 00 00 00	 jmp	 ??_ECChartEnvSetupDlgAddInImp@@UAEPAXI@Z
??_ECChartEnvSetupDlgAddInImp@@W7AEPAXI@Z ENDP		; [thunk]:CChartEnvSetupDlgAddInImp::`vector deleting destructor'
_TEXT	ENDS
; Function compile flags: /Odsp
;	COMDAT ?Release@CChartAddInBase135914@@O7AGKXZ
_TEXT	SEGMENT
?Release@CChartAddInBase135914@@O7AGKXZ PROC		; [thunk]:CChartAddInBase135914::Release`adjustor{8}', COMDAT
  00000	83 6c 24 04 08	 sub	 DWORD PTR [esp+4], 8
  00005	e9 00 00 00 00	 jmp	 ?Release@CChartAddInBase135914@@MAGKXZ ; CChartAddInBase135914::Release
?Release@CChartAddInBase135914@@O7AGKXZ ENDP		; [thunk]:CChartAddInBase135914::Release`adjustor{8}'
_TEXT	ENDS
; Function compile flags: /Odsp
;	COMDAT ?AddRef@CChartAddInBase135914@@O7AGKXZ
_TEXT	SEGMENT
?AddRef@CChartAddInBase135914@@O7AGKXZ PROC		; [thunk]:CChartAddInBase135914::AddRef`adjustor{8}', COMDAT
  00000	83 6c 24 04 08	 sub	 DWORD PTR [esp+4], 8
  00005	e9 00 00 00 00	 jmp	 ?AddRef@CChartAddInBase135914@@MAGKXZ ; CChartAddInBase135914::AddRef
?AddRef@CChartAddInBase135914@@O7AGKXZ ENDP		; [thunk]:CChartAddInBase135914::AddRef`adjustor{8}'
_TEXT	ENDS
; Function compile flags: /Odsp
;	COMDAT ?QueryInterface@CChartAddInBase135914@@O7AGJABU_GUID@@PAPAX@Z
_TEXT	SEGMENT
?QueryInterface@CChartAddInBase135914@@O7AGJABU_GUID@@PAPAX@Z PROC ; [thunk]:CChartAddInBase135914::QueryInterface`adjustor{8}', COMDAT
  00000	83 6c 24 04 08	 sub	 DWORD PTR [esp+4], 8
  00005	e9 00 00 00 00	 jmp	 ?QueryInterface@CChartAddInBase135914@@MAGJABU_GUID@@PAPAX@Z ; CChartAddInBase135914::QueryInterface
?QueryInterface@CChartAddInBase135914@@O7AGJABU_GUID@@PAPAX@Z ENDP ; [thunk]:CChartAddInBase135914::QueryInterface`adjustor{8}'
_TEXT	ENDS
; Function compile flags: /Ogtp
;	COMDAT ??__F?m_strAddInItemName@CChartEnvSetupDlgAddInImp@@2V?$CStringT@DV?$StrTraitMFC_DLL@DV?$ChTraitsCRT@D@ATL@@@@@ATL@@A@@YAXXZ
text$yd	SEGMENT
??__F?m_strAddInItemName@CChartEnvSetupDlgAddInImp@@2V?$CStringT@DV?$StrTraitMFC_DLL@DV?$ChTraitsCRT@D@ATL@@@@@ATL@@A@@YAXXZ PROC ; `dynamic atexit destructor for 'CChartEnvSetupDlgAddInImp::m_strAddInItemName'', COMDAT
  00000	b9 00 00 00 00	 mov	 ecx, OFFSET ?m_strAddInItemName@CChartEnvSetupDlgAddInImp@@2V?$CStringT@DV?$StrTraitMFC_DLL@DV?$ChTraitsCRT@D@ATL@@@@@ATL@@A ; CChartEnvSetupDlgAddInImp::m_strAddInItemName
  00005	ff 25 00 00 00
	00		 jmp	 DWORD PTR __imp_??1?$CStringT@DV?$StrTraitMFC_DLL@DV?$ChTraitsCRT@D@ATL@@@@@ATL@@QAE@XZ
??__F?m_strAddInItemName@CChartEnvSetupDlgAddInImp@@2V?$CStringT@DV?$StrTraitMFC_DLL@DV?$ChTraitsCRT@D@ATL@@@@@ATL@@A@@YAXXZ ENDP ; `dynamic atexit destructor for 'CChartEnvSetupDlgAddInImp::m_strAddInItemName''
text$yd	ENDS
; Function compile flags: /Ogtp
; File D:\git\src\IBK\IBK_DRFN\ProjSrc\SrcChartEx\ChartAddIn\ChartEnvSetupDlgAddIn\ChartEnvSetupDlgAddIn\ChartEnvSetupDlgAddInImp.cpp
;	COMDAT ??__E?m_strAddInItemName@CChartEnvSetupDlgAddInImp@@2V?$CStringT@DV?$StrTraitMFC_DLL@DV?$ChTraitsCRT@D@ATL@@@@@ATL@@A@@YAXXZ
text$di	SEGMENT
??__E?m_strAddInItemName@CChartEnvSetupDlgAddInImp@@2V?$CStringT@DV?$StrTraitMFC_DLL@DV?$ChTraitsCRT@D@ATL@@@@@ATL@@A@@YAXXZ PROC ; `dynamic initializer for 'CChartEnvSetupDlgAddInImp::m_strAddInItemName'', COMDAT

; 59   : CString CChartEnvSetupDlgAddInImp::m_strAddInItemName = "ENV_SETUP";

  00000	68 00 00 00 00	 push	 OFFSET ??_C@_09LKMIGEHN@ENV_SETUP@
  00005	b9 00 00 00 00	 mov	 ecx, OFFSET ?m_strAddInItemName@CChartEnvSetupDlgAddInImp@@2V?$CStringT@DV?$StrTraitMFC_DLL@DV?$ChTraitsCRT@D@ATL@@@@@ATL@@A ; CChartEnvSetupDlgAddInImp::m_strAddInItemName
  0000a	ff 15 00 00 00
	00		 call	 DWORD PTR __imp_??0?$CStringT@DV?$StrTraitMFC_DLL@DV?$ChTraitsCRT@D@ATL@@@@@ATL@@QAE@PBD@Z
  00010	68 00 00 00 00	 push	 OFFSET ??__F?m_strAddInItemName@CChartEnvSetupDlgAddInImp@@2V?$CStringT@DV?$StrTraitMFC_DLL@DV?$ChTraitsCRT@D@ATL@@@@@ATL@@A@@YAXXZ ; `dynamic atexit destructor for 'CChartEnvSetupDlgAddInImp::m_strAddInItemName''
  00015	e8 00 00 00 00	 call	 _atexit
  0001a	59		 pop	 ecx
  0001b	c3		 ret	 0
??__E?m_strAddInItemName@CChartEnvSetupDlgAddInImp@@2V?$CStringT@DV?$StrTraitMFC_DLL@DV?$ChTraitsCRT@D@ATL@@@@@ATL@@A@@YAXXZ ENDP ; `dynamic initializer for 'CChartEnvSetupDlgAddInImp::m_strAddInItemName''
text$di	ENDS
; Function compile flags: /Ogtp
; File D:\git\src\IBK\IBK_DRFN\ProjSrc\SrcChartEx\ChartAddIn\ChartEnvSetupDlgAddIn\Include_Chart\Dll_Load\IMetaTable.h
; File C:\Program Files (x86)\Microsoft Visual Studio\2019\Community\VC\Tools\MSVC\14.29.30133\atlmfc\include\afxwin1.inl
; File D:\git\src\IBK\IBK_DRFN\ProjSrc\SrcChartEx\ChartAddIn\ChartEnvSetupDlgAddIn\Include_Chart\Dll_Load\IMetaTable.h
;	COMDAT ??1CMultiLanguageResourceSetter@@QAE@XZ
_TEXT	SEGMENT
__$EHRec$ = -12						; size = 12
??1CMultiLanguageResourceSetter@@QAE@XZ PROC		; CMultiLanguageResourceSetter::~CMultiLanguageResourceSetter, COMDAT
; _this$ = ecx

; 1036 : 	{

  00000	55		 push	 ebp
  00001	8b ec		 mov	 ebp, esp
  00003	6a ff		 push	 -1
  00005	68 00 00 00 00	 push	 __ehhandler$??1CMultiLanguageResourceSetter@@QAE@XZ
  0000a	64 a1 00 00 00
	00		 mov	 eax, DWORD PTR fs:0
  00010	50		 push	 eax
  00011	56		 push	 esi
  00012	a1 00 00 00 00	 mov	 eax, DWORD PTR ___security_cookie
  00017	33 c5		 xor	 eax, ebp
  00019	50		 push	 eax
  0001a	8d 45 f4	 lea	 eax, DWORD PTR __$EHRec$[ebp]
  0001d	64 a3 00 00 00
	00		 mov	 DWORD PTR fs:0, eax

; 1037 : 		AfxSetResourceHandle( m_hInstance);

  00023	8b 31		 mov	 esi, DWORD PTR [ecx]
; File C:\Program Files (x86)\Microsoft Visual Studio\2019\Community\VC\Tools\MSVC\14.29.30133\atlmfc\include\afxwin1.inl

; 27   : 	{ ASSERT(hInstResource != NULL); afxCurrentResourceHandle = hInstResource; }

  00025	e8 00 00 00 00	 call	 ?AfxGetModuleState@@YGPAVAFX_MODULE_STATE@@XZ ; AfxGetModuleState
  0002a	89 70 0c	 mov	 DWORD PTR [eax+12], esi
; File D:\git\src\IBK\IBK_DRFN\ProjSrc\SrcChartEx\ChartAddIn\ChartEnvSetupDlgAddIn\Include_Chart\Dll_Load\IMetaTable.h

; 1038 : 	}

  0002d	8b 4d f4	 mov	 ecx, DWORD PTR __$EHRec$[ebp]
  00030	64 89 0d 00 00
	00 00		 mov	 DWORD PTR fs:0, ecx
  00037	59		 pop	 ecx
  00038	5e		 pop	 esi
  00039	8b e5		 mov	 esp, ebp
  0003b	5d		 pop	 ebp
  0003c	c3		 ret	 0
  0003d	cc		 int	 3
  0003e	cc		 int	 3
  0003f	cc		 int	 3
  00040	cc		 int	 3
  00041	cc		 int	 3
_TEXT	ENDS
;	COMDAT text$x
text$x	SEGMENT
__ehhandler$??1CMultiLanguageResourceSetter@@QAE@XZ:
  00000	90		 npad	 1
  00001	90		 npad	 1
  00002	8b 54 24 08	 mov	 edx, DWORD PTR [esp+8]
  00006	8d 42 0c	 lea	 eax, DWORD PTR [edx+12]
  00009	8b 4a f8	 mov	 ecx, DWORD PTR [edx-8]
  0000c	33 c8		 xor	 ecx, eax
  0000e	e8 00 00 00 00	 call	 @__security_check_cookie@4
  00013	b8 00 00 00 00	 mov	 eax, OFFSET __ehfuncinfo$??1CMultiLanguageResourceSetter@@QAE@XZ
  00018	e9 00 00 00 00	 jmp	 ___CxxFrameHandler3
text$x	ENDS
??1CMultiLanguageResourceSetter@@QAE@XZ ENDP		; CMultiLanguageResourceSetter::~CMultiLanguageResourceSetter
; Function compile flags: /Ogtp
; File D:\git\src\IBK\IBK_DRFN\ProjSrc\SrcChartEx\ChartAddIn\ChartEnvSetupDlgAddIn\Include_Chart\Dll_Load\IMetaTable.h
;	COMDAT ?LoadResourceDLL@IMetaTable@@QAEPAUHINSTANCE__@@PAUHWND__@@PAU2@@Z
_TEXT	SEGMENT
_p1$ = 8						; size = 4
_p2$ = 12						; size = 4
?LoadResourceDLL@IMetaTable@@QAEPAUHINSTANCE__@@PAUHWND__@@PAU2@@Z PROC ; IMetaTable::LoadResourceDLL, COMDAT
; _this$ = ecx

; 936  : 	DECLARE_FUNCTION2(	LoadResourceDLL,				HMODULE, AfxGetStaticModuleState()->m_hCurrentInstanceHandle, HWND, HMODULE);

  00000	55		 push	 ebp
  00001	8b ec		 mov	 ebp, esp
  00003	56		 push	 esi
  00004	8b f1		 mov	 esi, ecx
  00006	8b 46 04	 mov	 eax, DWORD PTR [esi+4]
  00009	85 c0		 test	 eax, eax
  0000b	74 4d		 je	 SHORT $LN4@LoadResour
  0000d	57		 push	 edi
  0000e	bf 80 0d 00 00	 mov	 edi, 3456		; 00000d80H
  00013	66 3b be 94 00
	00 00		 cmp	 di, WORD PTR [esi+148]
  0001a	74 23		 je	 SHORT $LN3@LoadResour
  0001c	68 00 00 00 00	 push	 OFFSET ??_C@_0BA@ENJOCHIO@LoadResourceDLL@
  00021	50		 push	 eax
  00022	c7 86 90 00 00
	00 00 00 00 00	 mov	 DWORD PTR [esi+144], 0
  0002c	ff 15 00 00 00
	00		 call	 DWORD PTR __imp__GetProcAddress@8
  00032	89 86 90 00 00
	00		 mov	 DWORD PTR [esi+144], eax
  00038	66 89 be 94 00
	00 00		 mov	 WORD PTR [esi+148], di
$LN3@LoadResour:
  0003f	8b 86 90 00 00
	00		 mov	 eax, DWORD PTR [esi+144]
  00045	5f		 pop	 edi
  00046	85 c0		 test	 eax, eax
  00048	74 10		 je	 SHORT $LN4@LoadResour
  0004a	ff 75 0c	 push	 DWORD PTR _p2$[ebp]
  0004d	ff 75 08	 push	 DWORD PTR _p1$[ebp]
  00050	ff d0		 call	 eax
  00052	83 c4 08	 add	 esp, 8
  00055	5e		 pop	 esi
  00056	5d		 pop	 ebp
  00057	c2 08 00	 ret	 8
$LN4@LoadResour:
  0005a	e8 00 00 00 00	 call	 ?AfxGetStaticModuleState@@YGPAVAFX_MODULE_STATE@@XZ ; AfxGetStaticModuleState
  0005f	5e		 pop	 esi
  00060	8b 40 08	 mov	 eax, DWORD PTR [eax+8]
  00063	5d		 pop	 ebp
  00064	c2 08 00	 ret	 8
?LoadResourceDLL@IMetaTable@@QAEPAUHINSTANCE__@@PAUHWND__@@PAU2@@Z ENDP ; IMetaTable::LoadResourceDLL
_TEXT	ENDS
; Function compile flags: /Ogtp
; File D:\git\src\IBK\IBK_DRFN\ProjSrc\SrcChartEx\ChartAddIn\ChartEnvSetupDlgAddIn\ChartEnvSetupDlgAddIn\ChartEnvSetupDlgAddInImp.cpp
; File C:\Program Files (x86)\Microsoft Visual Studio\2019\Community\VC\Tools\MSVC\14.29.30133\atlmfc\include\afx.inl
;	COMDAT ??_GCChartEnvSetupDlgAddInImp@@UAEPAXI@Z
_TEXT	SEGMENT
___flags$ = 8						; size = 4
??_GCChartEnvSetupDlgAddInImp@@UAEPAXI@Z PROC		; CChartEnvSetupDlgAddInImp::`scalar deleting destructor', COMDAT
; _this$ = ecx
  00000	55		 push	 ebp
  00001	8b ec		 mov	 ebp, esp
; File D:\git\src\IBK\IBK_DRFN\ProjSrc\SrcChartEx\ChartAddIn\ChartEnvSetupDlgAddIn\ChartEnvSetupDlgAddIn\ChartEnvSetupDlgAddInImp.cpp

; 54   : {

  00003	56		 push	 esi
  00004	8b f1		 mov	 esi, ecx
  00006	c7 06 00 00 00
	00		 mov	 DWORD PTR [esi], OFFSET ??_7CChartEnvSetupDlgAddInImp@@6BCIWUnknown@@@
  0000c	c7 46 08 00 00
	00 00		 mov	 DWORD PTR [esi+8], OFFSET ??_7CChartEnvSetupDlgAddInImp@@6BIChartAddIn135914@@@

; 55   : 
; 56   : }

  00013	e8 00 00 00 00	 call	 ??1CChartAddInBase135914@@MAE@XZ ; CChartAddInBase135914::~CChartAddInBase135914
  00018	8b 45 08	 mov	 eax, DWORD PTR ___flags$[ebp]
  0001b	a8 01		 test	 al, 1
  0001d	74 1f		 je	 SHORT $LN12@scalar
  0001f	a8 04		 test	 al, 4
  00021	75 10		 jne	 SHORT $LN3@scalar
; File C:\Program Files (x86)\Microsoft Visual Studio\2019\Community\VC\Tools\MSVC\14.29.30133\atlmfc\include\afx.inl

; 112  : 	{ ::operator delete(p); }

  00023	56		 push	 esi
  00024	e8 00 00 00 00	 call	 ??3@YAXPAX@Z		; operator delete
  00029	83 c4 04	 add	 esp, 4
  0002c	8b c6		 mov	 eax, esi
  0002e	5e		 pop	 esi
  0002f	5d		 pop	 ebp
  00030	c2 04 00	 ret	 4
$LN3@scalar:
  00033	6a 44		 push	 68			; 00000044H
  00035	56		 push	 esi
  00036	e8 00 00 00 00	 call	 ?__global_delete@@YAXPAXI@Z ; __global_delete
  0003b	83 c4 08	 add	 esp, 8
$LN12@scalar:
  0003e	8b c6		 mov	 eax, esi
  00040	5e		 pop	 esi
  00041	5d		 pop	 ebp
  00042	c2 04 00	 ret	 4
??_GCChartEnvSetupDlgAddInImp@@UAEPAXI@Z ENDP		; CChartEnvSetupDlgAddInImp::`scalar deleting destructor'
_TEXT	ENDS
; Function compile flags: /Ogtp
; File D:\git\src\IBK\IBK_DRFN\ProjSrc\SrcChartEx\ChartAddIn\ChartEnvSetupDlgAddIn\ChartEnvSetupDlgAddIn\ChartEnvSetupDlgAddInImp.cpp
;	COMDAT ?BackUpIndicatorInfo@CChartEnvSetupDlgAddInImp@@QAEXPAUIStringList135914@@@Z
_TEXT	SEGMENT
_pStringList$ = 8					; size = 4
?BackUpIndicatorInfo@CChartEnvSetupDlgAddInImp@@QAEXPAUIStringList135914@@@Z PROC ; CChartEnvSetupDlgAddInImp::BackUpIndicatorInfo, COMDAT
; _this$ = ecx

; 323  : {

  00000	55		 push	 ebp
  00001	8b ec		 mov	 ebp, esp
  00003	56		 push	 esi

; 324  : 	if( pStringList == NULL )

  00004	8b 75 08	 mov	 esi, DWORD PTR _pStringList$[ebp]
  00007	57		 push	 edi
  00008	8b f9		 mov	 edi, ecx
  0000a	85 f6		 test	 esi, esi
  0000c	74 17		 je	 SHORT $LN1@BackUpIndi

; 325  : 		return;
; 326  : 
; 327  : 	int nCount = pStringList->GetCount();

  0000e	8b 06		 mov	 eax, DWORD PTR [esi]
  00010	8b ce		 mov	 ecx, esi
  00012	ff 50 10	 call	 DWORD PTR [eax+16]

; 328  : 
; 329  : 	m_pIAddInToolMgr->OnAddInToolCommand( EAI_INDICATORINFO_UNDO_REDO_MANAGER_BACKUP_INDICATORINFO,

  00015	8b 4f 24	 mov	 ecx, DWORD PTR [edi+36]
  00018	6a 00		 push	 0
  0001a	6a 00		 push	 0
  0001c	56		 push	 esi
  0001d	8b 11		 mov	 edx, DWORD PTR [ecx]
  0001f	50		 push	 eax
  00020	6a 38		 push	 56			; 00000038H
  00022	ff 52 78	 call	 DWORD PTR [edx+120]
$LN1@BackUpIndi:

; 330  : 										  nCount,
; 331  : 										  (LPCTSTR)pStringList,
; 332  : 										  NULL,
; 333  : 										  NULL);
; 334  : }

  00025	5f		 pop	 edi
  00026	5e		 pop	 esi
  00027	5d		 pop	 ebp
  00028	c2 04 00	 ret	 4
?BackUpIndicatorInfo@CChartEnvSetupDlgAddInImp@@QAEXPAUIStringList135914@@@Z ENDP ; CChartEnvSetupDlgAddInImp::BackUpIndicatorInfo
_TEXT	ENDS
; Function compile flags: /Ogtp
; File D:\git\src\IBK\IBK_DRFN\ProjSrc\SrcChartEx\ChartAddIn\ChartEnvSetupDlgAddIn\ChartEnvSetupDlgAddIn\ChartEnvSetupDlgAddInImp.cpp
; File C:\Program Files (x86)\Microsoft Visual Studio\2019\Community\VC\Tools\MSVC\14.29.30133\atlmfc\include\afxwin1.inl
; File D:\git\src\IBK\IBK_DRFN\ProjSrc\SrcChartEx\ChartAddIn\ChartEnvSetupDlgAddIn\Include_Chart\Dll_Load\IMetaTable.h
; File C:\Program Files (x86)\Microsoft Visual Studio\2019\Community\VC\Tools\MSVC\14.29.30133\atlmfc\include\afxwin1.inl
; File D:\git\src\IBK\IBK_DRFN\ProjSrc\SrcChartEx\ChartAddIn\ChartEnvSetupDlgAddIn\ChartEnvSetupDlgAddIn\ChartEnvSetupDlgAddInImp.cpp
; File D:\git\src\IBK\IBK_DRFN\ProjSrc\SrcChartEx\ChartAddIn\ChartEnvSetupDlgAddIn\Include_Chart\Dll_Load\IMetaTable.h
; File C:\Program Files (x86)\Microsoft Visual Studio\2019\Community\VC\Tools\MSVC\14.29.30133\atlmfc\include\afxwin1.inl
; File D:\git\src\IBK\IBK_DRFN\ProjSrc\SrcChartEx\ChartAddIn\ChartEnvSetupDlgAddIn\ChartEnvSetupDlgAddIn\ChartEnvSetupDlgAddInImp.cpp
; File D:\git\src\IBK\IBK_DRFN\ProjSrc\SrcChartEx\ChartAddIn\ChartEnvSetupDlgAddIn\Include_AddIn_135914\I135914\_IString.h
; File D:\git\src\IBK\IBK_DRFN\ProjSrc\SrcChartEx\ChartAddIn\ChartEnvSetupDlgAddIn\ChartEnvSetupDlgAddIn\ChartEnvSetupDlgAddInImp.cpp
; File D:\git\src\IBK\IBK_DRFN\ProjSrc\SrcChartEx\ChartAddIn\ChartEnvSetupDlgAddIn\Include_AddIn_135914\I135914\_IString.h
; File D:\git\src\IBK\IBK_DRFN\ProjSrc\SrcChartEx\ChartAddIn\ChartEnvSetupDlgAddIn\ChartEnvSetupDlgAddIn\ChartEnvSetupDlgAddInImp.cpp
; File D:\git\src\IBK\IBK_DRFN\ProjSrc\SrcChartEx\ChartAddIn\ChartEnvSetupDlgAddIn\Include_AddIn_135914\I135914\_IString.h
; File D:\git\src\IBK\IBK_DRFN\ProjSrc\SrcChartEx\ChartAddIn\ChartEnvSetupDlgAddIn\ChartEnvSetupDlgAddIn\ChartEnvSetupDlgAddInImp.cpp
; File D:\git\src\IBK\IBK_DRFN\ProjSrc\SrcChartEx\ChartAddIn\ChartEnvSetupDlgAddIn\Include_AddIn_135914\I135914\_IString.h
; File D:\git\src\IBK\IBK_DRFN\ProjSrc\SrcChartEx\ChartAddIn\ChartEnvSetupDlgAddIn\ChartEnvSetupDlgAddIn\ChartEnvSetupDlgAddInImp.cpp
; File D:\git\src\IBK\IBK_DRFN\ProjSrc\SrcChartEx\ChartAddIn\ChartEnvSetupDlgAddIn\Include_AddIn_135914\I135914\_IString.h
; File D:\git\src\IBK\IBK_DRFN\ProjSrc\SrcChartEx\ChartAddIn\ChartEnvSetupDlgAddIn\ChartEnvSetupDlgAddIn\ChartEnvSetupDlgAddInImp.cpp
; File D:\git\src\IBK\IBK_DRFN\ProjSrc\SrcChartEx\ChartAddIn\ChartEnvSetupDlgAddIn\Include_AddIn_135914\I135914\_IString.h
; File D:\git\src\IBK\IBK_DRFN\ProjSrc\SrcChartEx\ChartAddIn\ChartEnvSetupDlgAddIn\ChartEnvSetupDlgAddIn\ChartEnvSetupDlgAddInImp.cpp
; File C:\Program Files (x86)\Microsoft Visual Studio\2019\Community\VC\Tools\MSVC\14.29.30133\atlmfc\include\afxwin1.inl
; File D:\git\src\IBK\IBK_DRFN\ProjSrc\SrcChartEx\ChartAddIn\ChartEnvSetupDlgAddIn\Include_Chart\Dll_Load\IMetaTable.h
; File C:\Program Files (x86)\Microsoft Visual Studio\2019\Community\VC\Tools\MSVC\14.29.30133\atlmfc\include\afxwin1.inl
; File D:\git\src\IBK\IBK_DRFN\ProjSrc\SrcChartEx\ChartAddIn\ChartEnvSetupDlgAddIn\ChartEnvSetupDlgAddIn\ChartEnvSetupDlgAddInImp.cpp
; File D:\git\src\IBK\IBK_DRFN\ProjSrc\SrcChartEx\ChartAddIn\ChartEnvSetupDlgAddIn\Include_AddIn_135914\I135914\_IString.h
; File D:\git\src\IBK\IBK_DRFN\ProjSrc\SrcChartEx\ChartAddIn\ChartEnvSetupDlgAddIn\ChartEnvSetupDlgAddIn\ChartEnvSetupDlgAddInImp.cpp
; File D:\git\src\IBK\IBK_DRFN\ProjSrc\SrcChartEx\ChartAddIn\ChartEnvSetupDlgAddIn\Include_Chart\Dll_Load\IMetaTable.h
; File C:\Program Files (x86)\Microsoft Visual Studio\2019\Community\VC\Tools\MSVC\14.29.30133\atlmfc\include\afxwin1.inl
; File D:\git\src\IBK\IBK_DRFN\ProjSrc\SrcChartEx\ChartAddIn\ChartEnvSetupDlgAddIn\ChartEnvSetupDlgAddIn\ChartEnvSetupDlgAddInImp.cpp
; File C:\Program Files (x86)\Microsoft Visual Studio\2019\Community\VC\Tools\MSVC\14.29.30133\atlmfc\include\afxwin1.inl
; File D:\git\src\IBK\IBK_DRFN\ProjSrc\SrcChartEx\ChartAddIn\ChartEnvSetupDlgAddIn\ChartEnvSetupDlgAddIn\ChartEnvSetupDlgAddInImp.cpp
; File D:\git\src\IBK\IBK_DRFN\ProjSrc\SrcChartEx\ChartAddIn\ChartEnvSetupDlgAddIn\Include_AddIn_135914\I135914\_IString.h
; File D:\git\src\IBK\IBK_DRFN\ProjSrc\SrcChartEx\ChartAddIn\ChartEnvSetupDlgAddIn\ChartEnvSetupDlgAddIn\ChartEnvSetupDlgAddInImp.cpp
;	COMDAT ?OnAddInToolCommand@CChartEnvSetupDlgAddInImp@@MAEHAAJW4EAICommandType@@PAUIGraphInfo135914@@@Z
_TEXT	SEGMENT
_dlgSetting$ = -468					; size = 400
_szGraphName$ = -68					; size = 8
_szIndicatorName$ = -60					; size = 8
_szGraphName$2 = -52					; size = 8
___mlrs__$ = -48					; size = 4
_bIsDeleteAll$1$ = -44					; size = 4
_nR$ = -40						; size = 4
_nC$ = -36						; size = 4
_nG$ = -32						; size = 4
_bLogVScale$1$ = -28					; size = 4
_bReverseVScale$1$ = -24				; size = 4
_bEnableWithDefaultInfo$1$ = -20			; size = 4
_this$1$ = -16						; size = 4
__$EHRec$ = -12						; size = 12
_p_lResult$ = 8						; size = 4
_nV$ = 12						; size = 4
_p_eCommandID$ = 12					; size = 4
___mlrs__$3 = 16					; size = 4
_p_pIGraphInfo$ = 16					; size = 4
?OnAddInToolCommand@CChartEnvSetupDlgAddInImp@@MAEHAAJW4EAICommandType@@PAUIGraphInfo135914@@@Z PROC ; CChartEnvSetupDlgAddInImp::OnAddInToolCommand, COMDAT
; _this$ = ecx

; 229  : {

  00000	55		 push	 ebp
  00001	8b ec		 mov	 ebp, esp
  00003	6a ff		 push	 -1
  00005	68 00 00 00 00	 push	 __ehhandler$?OnAddInToolCommand@CChartEnvSetupDlgAddInImp@@MAEHAAJW4EAICommandType@@PAUIGraphInfo135914@@@Z
  0000a	64 a1 00 00 00
	00		 mov	 eax, DWORD PTR fs:0
  00010	50		 push	 eax
  00011	81 ec c8 01 00
	00		 sub	 esp, 456		; 000001c8H
  00017	53		 push	 ebx
  00018	56		 push	 esi
  00019	57		 push	 edi
  0001a	a1 00 00 00 00	 mov	 eax, DWORD PTR ___security_cookie
  0001f	33 c5		 xor	 eax, ebp
  00021	50		 push	 eax
  00022	8d 45 f4	 lea	 eax, DWORD PTR __$EHRec$[ebp]
  00025	64 a3 00 00 00
	00		 mov	 DWORD PTR fs:0, eax
  0002b	8b d9		 mov	 ebx, ecx
  0002d	89 5d f0	 mov	 DWORD PTR _this$1$[ebp], ebx

; 230  : 	if( EAI_ENVDLG_SHOW_SETUP_DLG != p_eCommandID) return FALSE;

  00030	83 7d 0c 2b	 cmp	 DWORD PTR _p_eCommandID$[ebp], 43 ; 0000002bH
  00034	75 52		 jne	 SHORT $LN91@OnAddInToo

; 231  : 
; 232  : 	if( m_bWin98)

  00036	83 7b 34 00	 cmp	 DWORD PTR [ebx+52], 0
  0003a	74 62		 je	 SHORT $LN3@OnAddInToo

; 233  : 	{
; 234  : 		ML_SET_LANGUAGE_RES();

  0003c	e8 00 00 00 00	 call	 ?AfxGetStaticModuleState@@YGPAVAFX_MODULE_STATE@@XZ ; AfxGetStaticModuleState
  00041	b9 00 00 00 00	 mov	 ecx, OFFSET ?g_iMetaTable@@3VIMetaTable@@A ; g_iMetaTable
  00046	8b 40 08	 mov	 eax, DWORD PTR [eax+8]
  00049	50		 push	 eax
  0004a	ff 73 38	 push	 DWORD PTR [ebx+56]
  0004d	e8 00 00 00 00	 call	 ?LoadResourceDLL@IMetaTable@@QAEPAUHINSTANCE__@@PAUHWND__@@PAU2@@Z ; IMetaTable::LoadResourceDLL
  00052	8b f8		 mov	 edi, eax
; File C:\Program Files (x86)\Microsoft Visual Studio\2019\Community\VC\Tools\MSVC\14.29.30133\atlmfc\include\afxwin1.inl

; 25   : 		return afxCurrentResourceHandle; }

  00054	e8 00 00 00 00	 call	 ?AfxGetModuleState@@YGPAVAFX_MODULE_STATE@@XZ ; AfxGetModuleState
; File D:\git\src\IBK\IBK_DRFN\ProjSrc\SrcChartEx\ChartAddIn\ChartEnvSetupDlgAddIn\Include_Chart\Dll_Load\IMetaTable.h

; 1032 : 		m_hInstance = AfxGetResourceHandle();

  00059	8b 70 0c	 mov	 esi, DWORD PTR [eax+12]
  0005c	89 75 10	 mov	 DWORD PTR ___mlrs__$3[ebp], esi
; File C:\Program Files (x86)\Microsoft Visual Studio\2019\Community\VC\Tools\MSVC\14.29.30133\atlmfc\include\afxwin1.inl

; 27   : 	{ ASSERT(hInstResource != NULL); afxCurrentResourceHandle = hInstResource; }

  0005f	e8 00 00 00 00	 call	 ?AfxGetModuleState@@YGPAVAFX_MODULE_STATE@@XZ ; AfxGetModuleState
  00064	89 78 0c	 mov	 DWORD PTR [eax+12], edi
; File D:\git\src\IBK\IBK_DRFN\ProjSrc\SrcChartEx\ChartAddIn\ChartEnvSetupDlgAddIn\ChartEnvSetupDlgAddIn\ChartEnvSetupDlgAddInImp.cpp

; 235  : 		AfxMessageBox(IDS_MSG_SETTING_98);

  00067	6a ff		 push	 -1
  00069	6a 00		 push	 0
  0006b	6a 06		 push	 6
  0006d	c7 45 fc 00 00
	00 00		 mov	 DWORD PTR __$EHRec$[ebp+8], 0
  00074	e8 00 00 00 00	 call	 ?AfxMessageBox@@YGHIII@Z ; AfxMessageBox
; File D:\git\src\IBK\IBK_DRFN\ProjSrc\SrcChartEx\ChartAddIn\ChartEnvSetupDlgAddIn\Include_Chart\Dll_Load\IMetaTable.h

; 1036 : 	{

  00079	c7 45 fc 01 00
	00 00		 mov	 DWORD PTR __$EHRec$[ebp+8], 1
; File C:\Program Files (x86)\Microsoft Visual Studio\2019\Community\VC\Tools\MSVC\14.29.30133\atlmfc\include\afxwin1.inl

; 27   : 	{ ASSERT(hInstResource != NULL); afxCurrentResourceHandle = hInstResource; }

  00080	e8 00 00 00 00	 call	 ?AfxGetModuleState@@YGPAVAFX_MODULE_STATE@@XZ ; AfxGetModuleState
  00085	89 70 0c	 mov	 DWORD PTR [eax+12], esi
$LN91@OnAddInToo:
; File D:\git\src\IBK\IBK_DRFN\ProjSrc\SrcChartEx\ChartAddIn\ChartEnvSetupDlgAddIn\ChartEnvSetupDlgAddIn\ChartEnvSetupDlgAddInImp.cpp

; 319  : }

  00088	33 c0		 xor	 eax, eax
  0008a	8b 4d f4	 mov	 ecx, DWORD PTR __$EHRec$[ebp]
  0008d	64 89 0d 00 00
	00 00		 mov	 DWORD PTR fs:0, ecx
  00094	59		 pop	 ecx
  00095	5f		 pop	 edi
  00096	5e		 pop	 esi
  00097	5b		 pop	 ebx
  00098	8b e5		 mov	 esp, ebp
  0009a	5d		 pop	 ebp
  0009b	c2 0c 00	 ret	 12			; 0000000cH
$LN3@OnAddInToo:

; 236  : 		return FALSE;
; 237  : 	}
; 238  : 
; 239  : 	// 1. Initialize Return Value.
; 240  : 	p_lResult = IDCANCEL;

  0009e	8b 45 08	 mov	 eax, DWORD PTR _p_lResult$[ebp]

; 241  : 
; 242  : 	// 2. Check Indicator Info
; 243  : 	if( !p_pIGraphInfo) return TRUE;

  000a1	8b 7d 10	 mov	 edi, DWORD PTR _p_pIGraphInfo$[ebp]
  000a4	c7 00 02 00 00
	00		 mov	 DWORD PTR [eax], 2
  000aa	85 ff		 test	 edi, edi
  000ac	0f 84 39 03 00
	00		 je	 $LN74@OnAddInToo

; 244  : 	if( p_pIGraphInfo->GetSubGraphCount() <= 0) return TRUE;

  000b2	8b 07		 mov	 eax, DWORD PTR [edi]
  000b4	8b cf		 mov	 ecx, edi
  000b6	ff 50 2c	 call	 DWORD PTR [eax+44]
  000b9	85 c0		 test	 eax, eax
  000bb	0f 8e 2a 03 00
	00		 jle	 $LN74@OnAddInToo

; 247  : 	ILPCSTR szGraphName = p_pIGraphInfo->GetGraphNameString();

  000c1	8b 07		 mov	 eax, DWORD PTR [edi]
  000c3	33 db		 xor	 ebx, ebx
  000c5	8b cf		 mov	 ecx, edi
  000c7	89 5d d8	 mov	 DWORD PTR _nR$[ebp], ebx
  000ca	89 5d dc	 mov	 DWORD PTR _nC$[ebp], ebx
  000cd	89 5d 0c	 mov	 DWORD PTR _nV$[ebp], ebx
  000d0	89 5d e0	 mov	 DWORD PTR _nG$[ebp], ebx
  000d3	ff 90 a0 00 00
	00		 call	 DWORD PTR [eax+160]
; File D:\git\src\IBK\IBK_DRFN\ProjSrc\SrcChartEx\ChartAddIn\ChartEnvSetupDlgAddIn\Include_AddIn_135914\I135914\_IString.h

; 39   : 		m_pIStrData = p_pIString;	// Do not AddRef(). Because It must be Return Value.

  000d9	89 45 c0	 mov	 DWORD PTR _szGraphName$[ebp+4], eax

; 40   : 		if( m_pIStrData) m_szData = m_pIStrData->GetData();

  000dc	85 c0		 test	 eax, eax
  000de	74 0b		 je	 SHORT $LN42@OnAddInToo
  000e0	8b 10		 mov	 edx, DWORD PTR [eax]
  000e2	8b c8		 mov	 ecx, eax
  000e4	ff 52 10	 call	 DWORD PTR [edx+16]
  000e7	8b f0		 mov	 esi, eax
  000e9	eb 02		 jmp	 SHORT $LN88@OnAddInToo
$LN42@OnAddInToo:

; 41   : 		else m_szData = NULL;

  000eb	33 f6		 xor	 esi, esi
$LN88@OnAddInToo:
; File D:\git\src\IBK\IBK_DRFN\ProjSrc\SrcChartEx\ChartAddIn\ChartEnvSetupDlgAddIn\ChartEnvSetupDlgAddIn\ChartEnvSetupDlgAddInImp.cpp

; 247  : 	ILPCSTR szGraphName = p_pIGraphInfo->GetGraphNameString();

  000ed	89 75 bc	 mov	 DWORD PTR _szGraphName$[ebp], esi
  000f0	c7 45 fc 02 00
	00 00		 mov	 DWORD PTR __$EHRec$[ebp+8], 2
; File D:\git\src\IBK\IBK_DRFN\ProjSrc\SrcChartEx\ChartAddIn\ChartEnvSetupDlgAddIn\Include_AddIn_135914\I135914\_IString.h

; 57   : 		if( !m_szData) return TRUE;

  000f7	85 f6		 test	 esi, esi
  000f9	75 08		 jne	 SHORT $LN46@OnAddInToo
; File D:\git\src\IBK\IBK_DRFN\ProjSrc\SrcChartEx\ChartAddIn\ChartEnvSetupDlgAddIn\ChartEnvSetupDlgAddIn\ChartEnvSetupDlgAddInImp.cpp

; 255  : 	BOOL bLogVScale = FALSE, bReverseVScale = FALSE;

  000fb	89 75 e4	 mov	 DWORD PTR _bLogVScale$1$[ebp], esi
  000fe	89 75 e8	 mov	 DWORD PTR _bReverseVScale$1$[ebp], esi
; File D:\git\src\IBK\IBK_DRFN\ProjSrc\SrcChartEx\ChartAddIn\ChartEnvSetupDlgAddIn\Include_AddIn_135914\I135914\_IString.h

; 57   : 		if( !m_szData) return TRUE;

  00101	eb 62		 jmp	 SHORT $LN8@OnAddInToo
$LN46@OnAddInToo:
; File D:\git\src\IBK\IBK_DRFN\ProjSrc\SrcChartEx\ChartAddIn\ChartEnvSetupDlgAddIn\ChartEnvSetupDlgAddIn\ChartEnvSetupDlgAddInImp.cpp

; 248  : 	if( !szGraphName.IsEmpty())

  00103	80 3e 00	 cmp	 BYTE PTR [esi], 0
  00106	74 34		 je	 SHORT $LN6@OnAddInToo

; 249  : 	{
; 250  : 		if( !m_pIChartManager->GetIndexOfGraph( szGraphName, nR, nC, nV, nG)) return TRUE;

  00108	8b 5d f0	 mov	 ebx, DWORD PTR _this$1$[ebp]
  0010b	8d 55 e0	 lea	 edx, DWORD PTR _nG$[ebp]
  0010e	52		 push	 edx
  0010f	8d 55 0c	 lea	 edx, DWORD PTR _nV$[ebp]
  00112	52		 push	 edx
  00113	8b 4b 14	 mov	 ecx, DWORD PTR [ebx+20]
  00116	8d 55 dc	 lea	 edx, DWORD PTR _nC$[ebp]
  00119	52		 push	 edx
  0011a	8d 55 d8	 lea	 edx, DWORD PTR _nR$[ebp]
  0011d	52		 push	 edx
  0011e	8b 01		 mov	 eax, DWORD PTR [ecx]
  00120	56		 push	 esi
  00121	ff 50 48	 call	 DWORD PTR [eax+72]
  00124	85 c0		 test	 eax, eax
  00126	0f 84 ab 02 00
	00		 je	 $LN29@OnAddInToo

; 251  : 		pIBlock = m_pIChartManager->GetBlock( nR, nC);

  0012c	8b 4b 14	 mov	 ecx, DWORD PTR [ebx+20]
  0012f	ff 75 dc	 push	 DWORD PTR _nC$[ebp]
  00132	ff 75 d8	 push	 DWORD PTR _nR$[ebp]
  00135	8b 01		 mov	 eax, DWORD PTR [ecx]
  00137	ff 50 2c	 call	 DWORD PTR [eax+44]
  0013a	8b d8		 mov	 ebx, eax
$LN6@OnAddInToo:

; 255  : 	BOOL bLogVScale = FALSE, bReverseVScale = FALSE;

  0013c	c7 45 e4 00 00
	00 00		 mov	 DWORD PTR _bLogVScale$1$[ebp], 0
  00143	c7 45 e8 00 00
	00 00		 mov	 DWORD PTR _bReverseVScale$1$[ebp], 0

; 256  : 	if( pIBlock)

  0014a	85 db		 test	 ebx, ebx
  0014c	74 17		 je	 SHORT $LN8@OnAddInToo

; 257  : 	{
; 258  : 		bLogVScale = pIBlock->IsLogScale();

  0014e	8b 13		 mov	 edx, DWORD PTR [ebx]
  00150	8b cb		 mov	 ecx, ebx
  00152	ff 52 24	 call	 DWORD PTR [edx+36]

; 259  : 		bReverseVScale = pIBlock->IsVScaleInvert( nV);

  00155	8b 13		 mov	 edx, DWORD PTR [ebx]
  00157	8b cb		 mov	 ecx, ebx
  00159	ff 75 0c	 push	 DWORD PTR _nV$[ebp]
  0015c	89 45 e4	 mov	 DWORD PTR _bLogVScale$1$[ebp], eax
  0015f	ff 52 4c	 call	 DWORD PTR [edx+76]
  00162	89 45 e8	 mov	 DWORD PTR _bReverseVScale$1$[ebp], eax
$LN8@OnAddInToo:

; 264  : 	ILPCSTR szIndicatorName = p_pIGraphInfo->GetIndicatorNameString();

  00165	8b 17		 mov	 edx, DWORD PTR [edi]
  00167	8b cf		 mov	 ecx, edi
  00169	ff 92 a4 00 00
	00		 call	 DWORD PTR [edx+164]
; File D:\git\src\IBK\IBK_DRFN\ProjSrc\SrcChartEx\ChartAddIn\ChartEnvSetupDlgAddIn\Include_AddIn_135914\I135914\_IString.h

; 39   : 		m_pIStrData = p_pIString;	// Do not AddRef(). Because It must be Return Value.

  0016f	89 45 c8	 mov	 DWORD PTR _szIndicatorName$[ebp+4], eax

; 40   : 		if( m_pIStrData) m_szData = m_pIStrData->GetData();

  00172	85 c0		 test	 eax, eax
  00174	74 0b		 je	 SHORT $LN49@OnAddInToo
  00176	8b 10		 mov	 edx, DWORD PTR [eax]
  00178	8b c8		 mov	 ecx, eax
  0017a	ff 52 10	 call	 DWORD PTR [edx+16]
  0017d	8b d0		 mov	 edx, eax
  0017f	eb 02		 jmp	 SHORT $LN89@OnAddInToo
$LN49@OnAddInToo:

; 41   : 		else m_szData = NULL;

  00181	33 d2		 xor	 edx, edx
$LN89@OnAddInToo:
; File D:\git\src\IBK\IBK_DRFN\ProjSrc\SrcChartEx\ChartAddIn\ChartEnvSetupDlgAddIn\ChartEnvSetupDlgAddIn\ChartEnvSetupDlgAddInImp.cpp

; 264  : 	ILPCSTR szIndicatorName = p_pIGraphInfo->GetIndicatorNameString();

  00183	89 55 c4	 mov	 DWORD PTR _szIndicatorName$[ebp], edx

; 265  : 	BOOL bIsDeleteAll = strcmp( szIndicatorName, _MTEXT( C2_PRICE_CHART)) && !g_iMetaTable.IsSpecialGroupGraph( szIndicatorName);

  00186	a1 54 00 00 00	 mov	 eax, DWORD PTR ?g_iMetaTable@@3VIMetaTable@@A+84
  0018b	c6 45 fc 03	 mov	 BYTE PTR __$EHRec$[ebp+8], 3
  0018f	8b 88 28 03 00
	00		 mov	 ecx, DWORD PTR [eax+808]
  00195	8b c2		 mov	 eax, edx
$LL79@OnAddInToo:
  00197	8a 10		 mov	 dl, BYTE PTR [eax]
  00199	3a 11		 cmp	 dl, BYTE PTR [ecx]
  0019b	75 1a		 jne	 SHORT $LN80@OnAddInToo
  0019d	84 d2		 test	 dl, dl
  0019f	74 12		 je	 SHORT $LN81@OnAddInToo
  001a1	8a 50 01	 mov	 dl, BYTE PTR [eax+1]
  001a4	3a 51 01	 cmp	 dl, BYTE PTR [ecx+1]
  001a7	75 0e		 jne	 SHORT $LN80@OnAddInToo
  001a9	83 c0 02	 add	 eax, 2
  001ac	83 c1 02	 add	 ecx, 2
  001af	84 d2		 test	 dl, dl
  001b1	75 e4		 jne	 SHORT $LL79@OnAddInToo
$LN81@OnAddInToo:
  001b3	33 c0		 xor	 eax, eax
  001b5	eb 05		 jmp	 SHORT $LN82@OnAddInToo
$LN80@OnAddInToo:
  001b7	1b c0		 sbb	 eax, eax
  001b9	83 c8 01	 or	 eax, 1
$LN82@OnAddInToo:
  001bc	85 c0		 test	 eax, eax
  001be	74 18		 je	 SHORT $LN19@OnAddInToo
  001c0	ff 75 c4	 push	 DWORD PTR _szIndicatorName$[ebp]
  001c3	b9 00 00 00 00	 mov	 ecx, OFFSET ?g_iMetaTable@@3VIMetaTable@@A ; g_iMetaTable
  001c8	e8 00 00 00 00	 call	 ?IsSpecialGroupGraph@IMetaTable@@QAE_NPBD@Z ; IMetaTable::IsSpecialGroupGraph
  001cd	c7 45 d4 01 00
	00 00		 mov	 DWORD PTR _bIsDeleteAll$1$[ebp], 1
  001d4	84 c0		 test	 al, al
  001d6	74 07		 je	 SHORT $LN20@OnAddInToo
$LN19@OnAddInToo:
  001d8	c7 45 d4 00 00
	00 00		 mov	 DWORD PTR _bIsDeleteAll$1$[ebp], 0
$LN20@OnAddInToo:

; 268  : 	BOOL bEnableWithDefaultInfo = ( m_bEnableWithDefaultInfo && !szGraphName.IsEmpty());

  001df	8b 45 f0	 mov	 eax, DWORD PTR _this$1$[ebp]
  001e2	83 78 30 00	 cmp	 DWORD PTR [eax+48], 0
  001e6	0f 84 a7 00 00
	00		 je	 $LN21@OnAddInToo
; File D:\git\src\IBK\IBK_DRFN\ProjSrc\SrcChartEx\ChartAddIn\ChartEnvSetupDlgAddIn\Include_AddIn_135914\I135914\_IString.h

; 57   : 		if( !m_szData) return TRUE;

  001ec	85 f6		 test	 esi, esi
  001ee	0f 84 9f 00 00
	00		 je	 $LN21@OnAddInToo
; File D:\git\src\IBK\IBK_DRFN\ProjSrc\SrcChartEx\ChartAddIn\ChartEnvSetupDlgAddIn\ChartEnvSetupDlgAddIn\ChartEnvSetupDlgAddInImp.cpp

; 268  : 	BOOL bEnableWithDefaultInfo = ( m_bEnableWithDefaultInfo && !szGraphName.IsEmpty());

  001f4	80 3e 00	 cmp	 BYTE PTR [esi], 0
  001f7	0f 84 96 00 00
	00		 je	 $LN21@OnAddInToo

; 272  : 		ILPCSTR szGraphName = p_pIGraphInfo->GetGraphNameString();

  001fd	8b 07		 mov	 eax, DWORD PTR [edi]
  001ff	8b cf		 mov	 ecx, edi
  00201	c7 45 ec 01 00
	00 00		 mov	 DWORD PTR _bEnableWithDefaultInfo$1$[ebp], 1
  00208	ff 90 a0 00 00
	00		 call	 DWORD PTR [eax+160]
; File D:\git\src\IBK\IBK_DRFN\ProjSrc\SrcChartEx\ChartAddIn\ChartEnvSetupDlgAddIn\Include_AddIn_135914\I135914\_IString.h

; 39   : 		m_pIStrData = p_pIString;	// Do not AddRef(). Because It must be Return Value.

  0020e	89 45 d0	 mov	 DWORD PTR _szGraphName$2[ebp+4], eax

; 40   : 		if( m_pIStrData) m_szData = m_pIStrData->GetData();

  00211	85 c0		 test	 eax, eax
  00213	74 0b		 je	 SHORT $LN56@OnAddInToo
  00215	8b 10		 mov	 edx, DWORD PTR [eax]
  00217	8b c8		 mov	 ecx, eax
  00219	ff 52 10	 call	 DWORD PTR [edx+16]
  0021c	8b c8		 mov	 ecx, eax
  0021e	eb 02		 jmp	 SHORT $LN90@OnAddInToo
$LN56@OnAddInToo:

; 41   : 		else m_szData = NULL;

  00220	33 c9		 xor	 ecx, ecx
$LN90@OnAddInToo:
; File D:\git\src\IBK\IBK_DRFN\ProjSrc\SrcChartEx\ChartAddIn\ChartEnvSetupDlgAddIn\ChartEnvSetupDlgAddIn\ChartEnvSetupDlgAddInImp.cpp

; 272  : 		ILPCSTR szGraphName = p_pIGraphInfo->GetGraphNameString();

  00222	89 4d cc	 mov	 DWORD PTR _szGraphName$2[ebp], ecx

; 273  : 		if( !strcmp( szGraphName, _MTEXT( C2_PRICE_CHART))
; 274  : 			&& m_pIDefaultPacketManager->GetBaseTimeUnit() == 1
; 275  : 			&& CScaleBaseData::HORZ_TICK == m_pIDefaultPacketManager->GetBaseTimeDataType())

  00225	a1 54 00 00 00	 mov	 eax, DWORD PTR ?g_iMetaTable@@3VIMetaTable@@A+84
  0022a	c6 45 fc 04	 mov	 BYTE PTR __$EHRec$[ebp+8], 4
  0022e	8b 80 28 03 00
	00		 mov	 eax, DWORD PTR [eax+808]
$LL83@OnAddInToo:
  00234	8a 11		 mov	 dl, BYTE PTR [ecx]
  00236	3a 10		 cmp	 dl, BYTE PTR [eax]
  00238	75 1a		 jne	 SHORT $LN84@OnAddInToo
  0023a	84 d2		 test	 dl, dl
  0023c	74 12		 je	 SHORT $LN85@OnAddInToo
  0023e	8a 51 01	 mov	 dl, BYTE PTR [ecx+1]
  00241	3a 50 01	 cmp	 dl, BYTE PTR [eax+1]
  00244	75 0e		 jne	 SHORT $LN84@OnAddInToo
  00246	83 c1 02	 add	 ecx, 2
  00249	83 c0 02	 add	 eax, 2
  0024c	84 d2		 test	 dl, dl
  0024e	75 e4		 jne	 SHORT $LL83@OnAddInToo
$LN85@OnAddInToo:
  00250	33 c0		 xor	 eax, eax
  00252	eb 05		 jmp	 SHORT $LN86@OnAddInToo
$LN84@OnAddInToo:
  00254	1b c0		 sbb	 eax, eax
  00256	83 c8 01	 or	 eax, 1
$LN86@OnAddInToo:
  00259	85 c0		 test	 eax, eax
  0025b	75 28		 jne	 SHORT $LN10@OnAddInToo
  0025d	8b 75 f0	 mov	 esi, DWORD PTR _this$1$[ebp]
  00260	8b 4e 10	 mov	 ecx, DWORD PTR [esi+16]
  00263	8b 01		 mov	 eax, DWORD PTR [ecx]
  00265	ff 50 40	 call	 DWORD PTR [eax+64]
  00268	83 f8 01	 cmp	 eax, 1
  0026b	75 18		 jne	 SHORT $LN10@OnAddInToo
  0026d	8b 4e 10	 mov	 ecx, DWORD PTR [esi+16]
  00270	8b 01		 mov	 eax, DWORD PTR [ecx]
  00272	ff 50 3c	 call	 DWORD PTR [eax+60]
  00275	33 c9		 xor	 ecx, ecx
  00277	be 01 00 00 00	 mov	 esi, 1
  0027c	83 f8 05	 cmp	 eax, 5
  0027f	0f 44 f1	 cmove	 esi, ecx
  00282	89 75 ec	 mov	 DWORD PTR _bEnableWithDefaultInfo$1$[ebp], esi
$LN10@OnAddInToo:

; 276  : 				bEnableWithDefaultInfo = FALSE;
; 277  : 	}

  00285	8d 4d cc	 lea	 ecx, DWORD PTR _szGraphName$2[ebp]
  00288	c6 45 fc 03	 mov	 BYTE PTR __$EHRec$[ebp+8], 3
  0028c	e8 00 00 00 00	 call	 ??1ILPCSTR135914@@QAE@XZ ; ILPCSTR135914::~ILPCSTR135914
  00291	eb 07		 jmp	 SHORT $LN9@OnAddInToo
$LN21@OnAddInToo:

; 268  : 	BOOL bEnableWithDefaultInfo = ( m_bEnableWithDefaultInfo && !szGraphName.IsEmpty());

  00293	c7 45 ec 00 00
	00 00		 mov	 DWORD PTR _bEnableWithDefaultInfo$1$[ebp], 0
$LN9@OnAddInToo:

; 278  : 	
; 279  : 	// 5. Show IndicatorInfo Setting Dlg
; 280  : 	ML_SET_LANGUAGE_RES();

  0029a	e8 00 00 00 00	 call	 ?AfxGetStaticModuleState@@YGPAVAFX_MODULE_STATE@@XZ ; AfxGetStaticModuleState
  0029f	b9 00 00 00 00	 mov	 ecx, OFFSET ?g_iMetaTable@@3VIMetaTable@@A ; g_iMetaTable
  002a4	8b 40 08	 mov	 eax, DWORD PTR [eax+8]
  002a7	50		 push	 eax
  002a8	8b 45 f0	 mov	 eax, DWORD PTR _this$1$[ebp]
  002ab	ff 70 38	 push	 DWORD PTR [eax+56]
  002ae	e8 00 00 00 00	 call	 ?LoadResourceDLL@IMetaTable@@QAEPAUHINSTANCE__@@PAUHWND__@@PAU2@@Z ; IMetaTable::LoadResourceDLL
  002b3	8b f8		 mov	 edi, eax
; File C:\Program Files (x86)\Microsoft Visual Studio\2019\Community\VC\Tools\MSVC\14.29.30133\atlmfc\include\afxwin1.inl

; 25   : 		return afxCurrentResourceHandle; }

  002b5	e8 00 00 00 00	 call	 ?AfxGetModuleState@@YGPAVAFX_MODULE_STATE@@XZ ; AfxGetModuleState
; File D:\git\src\IBK\IBK_DRFN\ProjSrc\SrcChartEx\ChartAddIn\ChartEnvSetupDlgAddIn\Include_Chart\Dll_Load\IMetaTable.h

; 1032 : 		m_hInstance = AfxGetResourceHandle();

  002ba	8b 70 0c	 mov	 esi, DWORD PTR [eax+12]
  002bd	89 75 d0	 mov	 DWORD PTR ___mlrs__$[ebp], esi
; File C:\Program Files (x86)\Microsoft Visual Studio\2019\Community\VC\Tools\MSVC\14.29.30133\atlmfc\include\afxwin1.inl

; 27   : 	{ ASSERT(hInstResource != NULL); afxCurrentResourceHandle = hInstResource; }

  002c0	e8 00 00 00 00	 call	 ?AfxGetModuleState@@YGPAVAFX_MODULE_STATE@@XZ ; AfxGetModuleState
  002c5	89 78 0c	 mov	 DWORD PTR [eax+12], edi
; File D:\git\src\IBK\IBK_DRFN\ProjSrc\SrcChartEx\ChartAddIn\ChartEnvSetupDlgAddIn\ChartEnvSetupDlgAddIn\ChartEnvSetupDlgAddInImp.cpp

; 282  : 	CGraphSetting dlgSetting( m_pIChartOCX, bEnableWithDefaultInfo);

  002c8	8b 7d f0	 mov	 edi, DWORD PTR _this$1$[ebp]
  002cb	8d 8d 2c fe ff
	ff		 lea	 ecx, DWORD PTR _dlgSetting$[ebp]
  002d1	6a 00		 push	 0
  002d3	ff 75 ec	 push	 DWORD PTR _bEnableWithDefaultInfo$1$[ebp]
  002d6	c6 45 fc 05	 mov	 BYTE PTR __$EHRec$[ebp+8], 5
  002da	ff 77 04	 push	 DWORD PTR [edi+4]
  002dd	e8 00 00 00 00	 call	 ??0CGraphSetting@@QAE@PAUIChartOCX135914@@HPAVCWnd@@@Z ; CGraphSetting::CGraphSetting

; 283  : 	dlgSetting.SetData( p_pIGraphInfo, bLogVScale, bReverseVScale, bIsDeleteAll);

  002e2	ff 75 d4	 push	 DWORD PTR _bIsDeleteAll$1$[ebp]
  002e5	8d 8d 2c fe ff
	ff		 lea	 ecx, DWORD PTR _dlgSetting$[ebp]
  002eb	c6 45 fc 06	 mov	 BYTE PTR __$EHRec$[ebp+8], 6
  002ef	ff 75 e8	 push	 DWORD PTR _bReverseVScale$1$[ebp]
  002f2	ff 75 e4	 push	 DWORD PTR _bLogVScale$1$[ebp]
  002f5	ff 75 10	 push	 DWORD PTR _p_pIGraphInfo$[ebp]
  002f8	e8 00 00 00 00	 call	 ?SetData@CGraphSetting@@QAEXPAUIGraphInfo135914@@HHH@Z ; CGraphSetting::SetData

; 284  : 	dlgSetting.DoModal();

  002fd	8d 8d 2c fe ff
	ff		 lea	 ecx, DWORD PTR _dlgSetting$[ebp]
  00303	e8 00 00 00 00	 call	 ?DoModal@CDialog@@UAEHXZ ; CDialog::DoModal

; 285  : 	p_lResult = dlgSetting.GetReturnValue();

  00308	8d 8d 2c fe ff
	ff		 lea	 ecx, DWORD PTR _dlgSetting$[ebp]
  0030e	e8 00 00 00 00	 call	 ?GetReturnValue@CGraphSetting@@QBEHXZ ; CGraphSetting::GetReturnValue
  00313	8b 4d 08	 mov	 ecx, DWORD PTR _p_lResult$[ebp]
  00316	89 01		 mov	 DWORD PTR [ecx], eax

; 286  : 	// <>  .
; 287  : 	// <>  
; 288  : 	if( IDOK == p_lResult)

  00318	83 f8 01	 cmp	 eax, 1
  0031b	75 73		 jne	 SHORT $LN11@OnAddInToo

; 291  : 		if( dlgSetting.IsWithDefaultInfo() && !szGraphName.IsEmpty())

  0031d	83 bd 74 ff ff
	ff 00		 cmp	 DWORD PTR _dlgSetting$[ebp+328], 0
  00324	74 2c		 je	 SHORT $LN13@OnAddInToo
; File D:\git\src\IBK\IBK_DRFN\ProjSrc\SrcChartEx\ChartAddIn\ChartEnvSetupDlgAddIn\Include_AddIn_135914\I135914\_IString.h

; 57   : 		if( !m_szData) return TRUE;

  00326	8b 55 bc	 mov	 edx, DWORD PTR _szGraphName$[ebp]
  00329	85 d2		 test	 edx, edx
  0032b	74 25		 je	 SHORT $LN13@OnAddInToo
; File D:\git\src\IBK\IBK_DRFN\ProjSrc\SrcChartEx\ChartAddIn\ChartEnvSetupDlgAddIn\ChartEnvSetupDlgAddIn\ChartEnvSetupDlgAddInImp.cpp

; 291  : 		if( dlgSetting.IsWithDefaultInfo() && !szGraphName.IsEmpty())

  0032d	80 3a 00	 cmp	 BYTE PTR [edx], 0
  00330	74 20		 je	 SHORT $LN13@OnAddInToo

; 292  : 		{
; 293  : 			IGraphInfo *pDefaultInfo = m_pIGraphInfoManager->GetGraphInfo( IGraphInfoManager::IEILT_USER_DEFAULT, szGraphName);

  00332	8b 4f 18	 mov	 ecx, DWORD PTR [edi+24]
  00335	52		 push	 edx
  00336	6a 02		 push	 2
  00338	8b 01		 mov	 eax, DWORD PTR [ecx]
  0033a	ff 50 14	 call	 DWORD PTR [eax+20]

; 294  : 			pDefaultInfo->GetCopyDataFrom( p_pIGraphInfo);

  0033d	ff 75 10	 push	 DWORD PTR _p_pIGraphInfo$[ebp]
  00340	8b f8		 mov	 edi, eax
  00342	8b cf		 mov	 ecx, edi
  00344	8b 17		 mov	 edx, DWORD PTR [edi]
  00346	ff 92 c0 00 00
	00		 call	 DWORD PTR [edx+192]

; 295  : 			pDefaultInfo->Release();

  0034c	8b 0f		 mov	 ecx, DWORD PTR [edi]
  0034e	57		 push	 edi
  0034f	ff 51 08	 call	 DWORD PTR [ecx+8]
$LN13@OnAddInToo:

; 296  : 		}
; 297  : 
; 298  : 		//   changeData  .
; 299  : 		if( pIBlock)

  00352	85 db		 test	 ebx, ebx
  00354	74 62		 je	 SHORT $LN17@OnAddInToo

; 300  : 		{
; 301  : 			pIBlock->SetLogScale( dlgSetting.GetLogState());

  00356	8b 3b		 mov	 edi, DWORD PTR [ebx]
  00358	8d 8d 2c fe ff
	ff		 lea	 ecx, DWORD PTR _dlgSetting$[ebp]
  0035e	e8 00 00 00 00	 call	 ?GetLogState@CGraphSetting@@QBEHXZ ; CGraphSetting::GetLogState
  00363	50		 push	 eax
  00364	8b cb		 mov	 ecx, ebx
  00366	ff 57 28	 call	 DWORD PTR [edi+40]

; 302  : 			pIBlock->SetVScaleInvert( nV, dlgSetting.GetInvertScaleType());

  00369	8b 3b		 mov	 edi, DWORD PTR [ebx]
  0036b	8d 8d 2c fe ff
	ff		 lea	 ecx, DWORD PTR _dlgSetting$[ebp]
  00371	e8 00 00 00 00	 call	 ?GetInvertScaleType@CGraphSetting@@QBEHXZ ; CGraphSetting::GetInvertScaleType
  00376	50		 push	 eax
  00377	ff 75 0c	 push	 DWORD PTR _nV$[ebp]
  0037a	8b cb		 mov	 ecx, ebx
  0037c	ff 57 50	 call	 DWORD PTR [edi+80]

; 303  : 
; 304  : 			// (2006/11/28 - Seung-Won, Bae) Use new Interface without IGraphInfo.
; 305  : 			// (2007/1/25 - Seung-Won, Bae) Recalculate always.
; 306  : 			//		It updated in OCX directlry with IndicatorInfo. (So. How can I check about the Recalculation State.)
; 307  : 			pIBlock->UpdateGraphWithGraphInfo( nV, nG, TRUE);	//  dlgSetting.DoCalculate());

  0037f	8b 03		 mov	 eax, DWORD PTR [ebx]
  00381	8b cb		 mov	 ecx, ebx
  00383	6a 01		 push	 1
  00385	ff 75 e0	 push	 DWORD PTR _nG$[ebp]
  00388	ff 75 0c	 push	 DWORD PTR _nV$[ebp]
  0038b	ff 50 34	 call	 DWORD PTR [eax+52]

; 308  : 		}
; 309  : 	}

  0038e	eb 22		 jmp	 SHORT $LN78@OnAddInToo
$LN11@OnAddInToo:

; 310  : 	// <>  
; 311  : 	else if( IDABORT == p_lResult)

  00390	83 f8 03	 cmp	 eax, 3
  00393	75 19		 jne	 SHORT $LN15@OnAddInToo

; 312  : 	{
; 313  : 		if( pIBlock) pIBlock->RemoveGraph( nV, nG);

  00395	85 db		 test	 ebx, ebx
  00397	74 0d		 je	 SHORT $LN16@OnAddInToo
  00399	ff 75 e0	 push	 DWORD PTR _nG$[ebp]
  0039c	8b 03		 mov	 eax, DWORD PTR [ebx]
  0039e	8b cb		 mov	 ecx, ebx
  003a0	ff 75 0c	 push	 DWORD PTR _nV$[ebp]
  003a3	ff 50 30	 call	 DWORD PTR [eax+48]
$LN16@OnAddInToo:

; 314  : 		m_pIChartOCX->InvalidateControl();

  003a6	8b 4f 04	 mov	 ecx, DWORD PTR [edi+4]
  003a9	8b 01		 mov	 eax, DWORD PTR [ecx]
  003ab	ff 50 38	 call	 DWORD PTR [eax+56]
$LN15@OnAddInToo:

; 315  : 	}
; 316  : 
; 317  : 	if( pIBlock) pIBlock->Release();

  003ae	85 db		 test	 ebx, ebx
  003b0	74 06		 je	 SHORT $LN17@OnAddInToo
$LN78@OnAddInToo:
  003b2	8b 03		 mov	 eax, DWORD PTR [ebx]
  003b4	53		 push	 ebx
  003b5	ff 50 08	 call	 DWORD PTR [eax+8]
$LN17@OnAddInToo:

; 318  : 	return TRUE;

  003b8	8d 8d 2c fe ff
	ff		 lea	 ecx, DWORD PTR _dlgSetting$[ebp]
  003be	e8 00 00 00 00	 call	 ??1CGraphSetting@@UAE@XZ ; CGraphSetting::~CGraphSetting
; File D:\git\src\IBK\IBK_DRFN\ProjSrc\SrcChartEx\ChartAddIn\ChartEnvSetupDlgAddIn\Include_Chart\Dll_Load\IMetaTable.h

; 1036 : 	{

  003c3	c6 45 fc 07	 mov	 BYTE PTR __$EHRec$[ebp+8], 7
; File C:\Program Files (x86)\Microsoft Visual Studio\2019\Community\VC\Tools\MSVC\14.29.30133\atlmfc\include\afxwin1.inl

; 27   : 	{ ASSERT(hInstResource != NULL); afxCurrentResourceHandle = hInstResource; }

  003c7	e8 00 00 00 00	 call	 ?AfxGetModuleState@@YGPAVAFX_MODULE_STATE@@XZ ; AfxGetModuleState
; File D:\git\src\IBK\IBK_DRFN\ProjSrc\SrcChartEx\ChartAddIn\ChartEnvSetupDlgAddIn\ChartEnvSetupDlgAddIn\ChartEnvSetupDlgAddInImp.cpp

; 318  : 	return TRUE;

  003cc	8d 4d c4	 lea	 ecx, DWORD PTR _szIndicatorName$[ebp]
; File C:\Program Files (x86)\Microsoft Visual Studio\2019\Community\VC\Tools\MSVC\14.29.30133\atlmfc\include\afxwin1.inl

; 27   : 	{ ASSERT(hInstResource != NULL); afxCurrentResourceHandle = hInstResource; }

  003cf	89 70 0c	 mov	 DWORD PTR [eax+12], esi
; File D:\git\src\IBK\IBK_DRFN\ProjSrc\SrcChartEx\ChartAddIn\ChartEnvSetupDlgAddIn\ChartEnvSetupDlgAddIn\ChartEnvSetupDlgAddInImp.cpp

; 318  : 	return TRUE;

  003d2	e8 00 00 00 00	 call	 ??1ILPCSTR135914@@QAE@XZ ; ILPCSTR135914::~ILPCSTR135914
$LN29@OnAddInToo:
; File D:\git\src\IBK\IBK_DRFN\ProjSrc\SrcChartEx\ChartAddIn\ChartEnvSetupDlgAddIn\Include_AddIn_135914\I135914\_IString.h

; 45   : 		if( m_pIStrData)

  003d7	8b 4d c0	 mov	 ecx, DWORD PTR _szGraphName$[ebp+4]
  003da	c7 45 fc 08 00
	00 00		 mov	 DWORD PTR __$EHRec$[ebp+8], 8
  003e1	85 c9		 test	 ecx, ecx
  003e3	74 06		 je	 SHORT $LN74@OnAddInToo

; 46   : 		{
; 47   : 			m_pIStrData->Release();

  003e5	8b 01		 mov	 eax, DWORD PTR [ecx]
  003e7	51		 push	 ecx
  003e8	ff 50 08	 call	 DWORD PTR [eax+8]
$LN74@OnAddInToo:
; File D:\git\src\IBK\IBK_DRFN\ProjSrc\SrcChartEx\ChartAddIn\ChartEnvSetupDlgAddIn\ChartEnvSetupDlgAddIn\ChartEnvSetupDlgAddInImp.cpp

; 318  : 	return TRUE;

  003eb	b8 01 00 00 00	 mov	 eax, 1

; 319  : }

  003f0	8b 4d f4	 mov	 ecx, DWORD PTR __$EHRec$[ebp]
  003f3	64 89 0d 00 00
	00 00		 mov	 DWORD PTR fs:0, ecx
  003fa	59		 pop	 ecx
  003fb	5f		 pop	 edi
  003fc	5e		 pop	 esi
  003fd	5b		 pop	 ebx
  003fe	8b e5		 mov	 esp, ebp
  00400	5d		 pop	 ebp
  00401	c2 0c 00	 ret	 12			; 0000000cH
_TEXT	ENDS
;	COMDAT text$x
text$x	SEGMENT
__unwindfunclet$?OnAddInToolCommand@CChartEnvSetupDlgAddInImp@@MAEHAAJW4EAICommandType@@PAUIGraphInfo135914@@@Z$0:
  00000	8d 4d 10	 lea	 ecx, DWORD PTR ___mlrs__$3[ebp]
  00003	e9 00 00 00 00	 jmp	 ??1CMultiLanguageResourceSetter@@QAE@XZ ; CMultiLanguageResourceSetter::~CMultiLanguageResourceSetter
__unwindfunclet$?OnAddInToolCommand@CChartEnvSetupDlgAddInImp@@MAEHAAJW4EAICommandType@@PAUIGraphInfo135914@@@Z$1:
  00008	8d 4d bc	 lea	 ecx, DWORD PTR _szGraphName$[ebp]
  0000b	e9 00 00 00 00	 jmp	 ??1ILPCSTR135914@@QAE@XZ ; ILPCSTR135914::~ILPCSTR135914
__unwindfunclet$?OnAddInToolCommand@CChartEnvSetupDlgAddInImp@@MAEHAAJW4EAICommandType@@PAUIGraphInfo135914@@@Z$2:
  00010	8d 4d c4	 lea	 ecx, DWORD PTR _szIndicatorName$[ebp]
  00013	e9 00 00 00 00	 jmp	 ??1ILPCSTR135914@@QAE@XZ ; ILPCSTR135914::~ILPCSTR135914
__unwindfunclet$?OnAddInToolCommand@CChartEnvSetupDlgAddInImp@@MAEHAAJW4EAICommandType@@PAUIGraphInfo135914@@@Z$3:
  00018	8d 4d cc	 lea	 ecx, DWORD PTR _szGraphName$2[ebp]
  0001b	e9 00 00 00 00	 jmp	 ??1ILPCSTR135914@@QAE@XZ ; ILPCSTR135914::~ILPCSTR135914
__unwindfunclet$?OnAddInToolCommand@CChartEnvSetupDlgAddInImp@@MAEHAAJW4EAICommandType@@PAUIGraphInfo135914@@@Z$4:
  00020	8d 4d d0	 lea	 ecx, DWORD PTR ___mlrs__$[ebp]
  00023	e9 00 00 00 00	 jmp	 ??1CMultiLanguageResourceSetter@@QAE@XZ ; CMultiLanguageResourceSetter::~CMultiLanguageResourceSetter
__unwindfunclet$?OnAddInToolCommand@CChartEnvSetupDlgAddInImp@@MAEHAAJW4EAICommandType@@PAUIGraphInfo135914@@@Z$5:
  00028	8d 8d 2c fe ff
	ff		 lea	 ecx, DWORD PTR _dlgSetting$[ebp]
  0002e	e9 00 00 00 00	 jmp	 ??1CGraphSetting@@UAE@XZ ; CGraphSetting::~CGraphSetting
  00033	cc		 int	 3
  00034	cc		 int	 3
  00035	cc		 int	 3
  00036	cc		 int	 3
  00037	cc		 int	 3
__ehhandler$?OnAddInToolCommand@CChartEnvSetupDlgAddInImp@@MAEHAAJW4EAICommandType@@PAUIGraphInfo135914@@@Z:
  00038	90		 npad	 1
  00039	90		 npad	 1
  0003a	8b 54 24 08	 mov	 edx, DWORD PTR [esp+8]
  0003e	8d 42 0c	 lea	 eax, DWORD PTR [edx+12]
  00041	8b 8a 28 fe ff
	ff		 mov	 ecx, DWORD PTR [edx-472]
  00047	33 c8		 xor	 ecx, eax
  00049	e8 00 00 00 00	 call	 @__security_check_cookie@4
  0004e	b8 00 00 00 00	 mov	 eax, OFFSET __ehfuncinfo$?OnAddInToolCommand@CChartEnvSetupDlgAddInImp@@MAEHAAJW4EAICommandType@@PAUIGraphInfo135914@@@Z
  00053	e9 00 00 00 00	 jmp	 ___CxxFrameHandler3
text$x	ENDS
?OnAddInToolCommand@CChartEnvSetupDlgAddInImp@@MAEHAAJW4EAICommandType@@PAUIGraphInfo135914@@@Z ENDP ; CChartEnvSetupDlgAddInImp::OnAddInToolCommand
; Function compile flags: /Ogtp
; File D:\git\src\IBK\IBK_DRFN\ProjSrc\SrcChartEx\ChartAddIn\ChartEnvSetupDlgAddIn\ChartEnvSetupDlgAddIn\ChartEnvSetupDlgAddInImp.cpp
; File C:\Program Files (x86)\Microsoft Visual Studio\2019\Community\VC\Tools\MSVC\14.29.30133\atlmfc\include\afxwin1.inl
; File D:\git\src\IBK\IBK_DRFN\ProjSrc\SrcChartEx\ChartAddIn\ChartEnvSetupDlgAddIn\Include_Chart\Dll_Load\IMetaTable.h
; File C:\Program Files (x86)\Microsoft Visual Studio\2019\Community\VC\Tools\MSVC\14.29.30133\atlmfc\include\afxwin1.inl
; File D:\git\src\IBK\IBK_DRFN\ProjSrc\SrcChartEx\ChartAddIn\ChartEnvSetupDlgAddIn\ChartEnvSetupDlgAddIn\ChartEnvSetupDlgAddInImp.cpp
; File D:\git\src\IBK\IBK_DRFN\ProjSrc\SrcChartEx\ChartAddIn\ChartEnvSetupDlgAddIn\Include_Chart\Dll_Load\IMetaTable.h
; File D:\git\src\IBK\IBK_DRFN\ProjSrc\SrcChartEx\ChartAddIn\ChartEnvSetupDlgAddIn\ChartEnvSetupDlgAddIn\ChartEnvSetupDlgAddInImp.cpp
; File C:\Program Files (x86)\Microsoft Visual Studio\2019\Community\VC\Tools\MSVC\14.29.30133\atlmfc\include\afxwin1.inl
; File D:\git\src\IBK\IBK_DRFN\ProjSrc\SrcChartEx\ChartAddIn\ChartEnvSetupDlgAddIn\Include_Chart\Dll_Load\IMetaTable.h
; File C:\Program Files (x86)\Microsoft Visual Studio\2019\Community\VC\Tools\MSVC\14.29.30133\atlmfc\include\afxwin1.inl
; File D:\git\src\IBK\IBK_DRFN\ProjSrc\SrcChartEx\ChartAddIn\ChartEnvSetupDlgAddIn\ChartEnvSetupDlgAddIn\ChartEnvSetupDlgAddInImp.cpp
; File D:\git\src\IBK\IBK_DRFN\ProjSrc\SrcChartEx\ChartAddIn\ChartEnvSetupDlgAddIn\Include_Chart\Dll_Load\IMetaTable.h
; File D:\git\src\IBK\IBK_DRFN\ProjSrc\SrcChartEx\ChartAddIn\ChartEnvSetupDlgAddIn\ChartEnvSetupDlgAddIn\ChartEnvSetupDlgAddInImp.cpp
; File D:\git\src\IBK\IBK_DRFN\ProjSrc\SrcChartEx\ChartAddIn\ChartEnvSetupDlgAddIn\Include_AddIn_135914\I135914\_IString.h
; File D:\git\src\IBK\IBK_DRFN\ProjSrc\SrcChartEx\ChartAddIn\ChartEnvSetupDlgAddIn\ChartEnvSetupDlgAddIn\ChartEnvSetupDlgAddInImp.cpp
; File D:\git\src\IBK\IBK_DRFN\ProjSrc\SrcChartEx\ChartAddIn\ChartEnvSetupDlgAddIn\Include_AddIn_135914\I135914\_IString.h
; File D:\git\src\IBK\IBK_DRFN\ProjSrc\SrcChartEx\ChartAddIn\ChartEnvSetupDlgAddIn\ChartEnvSetupDlgAddIn\ChartEnvSetupDlgAddInImp.cpp
; File C:\Program Files (x86)\Microsoft Visual Studio\2019\Community\VC\Tools\MSVC\14.29.30133\atlmfc\include\afxwin1.inl
; File D:\git\src\IBK\IBK_DRFN\ProjSrc\SrcChartEx\ChartAddIn\ChartEnvSetupDlgAddIn\Include_Chart\Dll_Load\IMetaTable.h
; File C:\Program Files (x86)\Microsoft Visual Studio\2019\Community\VC\Tools\MSVC\14.29.30133\atlmfc\include\afxwin1.inl
; File D:\git\src\IBK\IBK_DRFN\ProjSrc\SrcChartEx\ChartAddIn\ChartEnvSetupDlgAddIn\ChartEnvSetupDlgAddIn\ChartEnvSetupDlgAddInImp.cpp
; File D:\git\src\IBK\IBK_DRFN\ProjSrc\SrcChartEx\ChartAddIn\ChartEnvSetupDlgAddIn\Include_Chart\Dll_Load\IMetaTable.h
; File C:\Program Files (x86)\Microsoft Visual Studio\2019\Community\VC\Tools\MSVC\14.29.30133\atlmfc\include\afxwin1.inl
; File D:\git\src\IBK\IBK_DRFN\ProjSrc\SrcChartEx\ChartAddIn\ChartEnvSetupDlgAddIn\ChartEnvSetupDlgAddIn\ChartEnvSetupDlgAddInImp.cpp
; File C:\Program Files (x86)\Microsoft Visual Studio\2019\Community\VC\Tools\MSVC\14.29.30133\atlmfc\include\afxwin1.inl
; File D:\git\src\IBK\IBK_DRFN\ProjSrc\SrcChartEx\ChartAddIn\ChartEnvSetupDlgAddIn\ChartEnvSetupDlgAddIn\ChartEnvSetupDlgAddInImp.cpp
;	COMDAT ?OnAddInToolCommand@CChartEnvSetupDlgAddInImp@@MAEHW4EAICommandType@@JJ@Z
_TEXT	SEGMENT
_dlgEnvSetUpAll$ = -416					; size = 392
_szAllIndicatorName$ = -24				; size = 8
_nShowItem$1$ = -16					; size = 4
__$EHRec$ = -12						; size = 12
_nActivePage$1$ = 8					; size = 4
___mlrs__$2 = 8						; size = 4
___mlrs__$3 = 8						; size = 4
_p_eCommandID$ = 8					; size = 4
___mlrs__$ = 12						; size = 4
_p_lParam1$ = 12					; size = 4
_p_lParam2$ = 16					; size = 4
?OnAddInToolCommand@CChartEnvSetupDlgAddInImp@@MAEHW4EAICommandType@@JJ@Z PROC ; CChartEnvSetupDlgAddInImp::OnAddInToolCommand, COMDAT
; _this$ = ecx

; 155  : {

  00000	55		 push	 ebp
  00001	8b ec		 mov	 ebp, esp
  00003	6a ff		 push	 -1
  00005	68 00 00 00 00	 push	 __ehhandler$?OnAddInToolCommand@CChartEnvSetupDlgAddInImp@@MAEHW4EAICommandType@@JJ@Z
  0000a	64 a1 00 00 00
	00		 mov	 eax, DWORD PTR fs:0
  00010	50		 push	 eax
  00011	81 ec 94 01 00
	00		 sub	 esp, 404		; 00000194H
  00017	53		 push	 ebx
  00018	56		 push	 esi
  00019	57		 push	 edi
  0001a	a1 00 00 00 00	 mov	 eax, DWORD PTR ___security_cookie
  0001f	33 c5		 xor	 eax, ebp
  00021	50		 push	 eax
  00022	8d 45 f4	 lea	 eax, DWORD PTR __$EHRec$[ebp]
  00025	64 a3 00 00 00
	00		 mov	 DWORD PTR fs:0, eax
  0002b	8b d9		 mov	 ebx, ecx

; 156  : 	if( EAI_OOA_ON_TOOL_FUNCTION != p_eCommandID) return FALSE;

  0002d	83 7d 08 1b	 cmp	 DWORD PTR _p_eCommandID$[ebp], 27 ; 0000001bH
  00031	0f 85 9a 00 00
	00		 jne	 $LN66@OnAddInToo

; 157  : 
; 158  : 	int nActivePage = 0;
; 159  : 	//     - ojtaso (20080109)
; 160  : 	int nShowItem = LOAD_OTHER_UI;
; 161  : 
; 162  : 	switch( p_lParam1)

  00037	8b 45 0c	 mov	 eax, DWORD PTR _p_lParam1$[ebp]
  0003a	8b 4d 10	 mov	 ecx, DWORD PTR _p_lParam2$[ebp]
  0003d	c7 45 f0 01 00
	00 00		 mov	 DWORD PTR _nShowItem$1$[ebp], 1
  00044	83 f8 0c	 cmp	 eax, 12			; 0000000cH
  00047	7f 1e		 jg	 SHORT $LN17@OnAddInToo
  00049	74 13		 je	 SHORT $LN6@OnAddInToo
  0004b	83 e8 0a	 sub	 eax, 10			; 0000000aH
  0004e	74 0e		 je	 SHORT $LN6@OnAddInToo
  00050	83 e8 01	 sub	 eax, 1
  00053	75 7c		 jne	 SHORT $LN66@OnAddInToo

; 163  : 	{
; 164  : 		case CToolOptionInfo::T_ENVIRONMENT_CFG:	nActivePage = 1;

  00055	c7 45 08 01 00
	00 00		 mov	 DWORD PTR _nActivePage$1$[ebp], 1

; 165  : 													break;

  0005c	eb 1d		 jmp	 SHORT $LN2@OnAddInToo
$LN6@OnAddInToo:

; 166  : 		// 
; 167  : 		case CToolOptionInfo::T_INDICATOR_LIST:
; 168  : 		case CToolOptionInfo::T_INDICATOR_CFG:		nActivePage = 0;

  0005e	c7 45 08 00 00
	00 00		 mov	 DWORD PTR _nActivePage$1$[ebp], 0

; 169  : 													break;

  00065	eb 14		 jmp	 SHORT $LN2@OnAddInToo
$LN17@OnAddInToo:

; 157  : 
; 158  : 	int nActivePage = 0;
; 159  : 	//     - ojtaso (20080109)
; 160  : 	int nShowItem = LOAD_OTHER_UI;
; 161  : 
; 162  : 	switch( p_lParam1)

  00067	3d d0 07 00 00	 cmp	 eax, 2000		; 000007d0H
  0006c	75 63		 jne	 SHORT $LN66@OnAddInToo

; 170  : 		//     - ojtaso (20080109)
; 171  : 		case CToolOptionInfo::T_SELECT_ENV_TAB_INDEX:
; 172  : 			nActivePage = p_lParam2 - 1;

  0006e	8d 41 ff	 lea	 eax, DWORD PTR [ecx-1]

; 173  : 			nShowItem = LOAD_SEL_ITEM;

  00071	c7 45 f0 03 00
	00 00		 mov	 DWORD PTR _nShowItem$1$[ebp], 3
  00078	89 45 08	 mov	 DWORD PTR _nActivePage$1$[ebp], eax
$LN2@OnAddInToo:

; 174  : 			break;
; 175  : 		default:	return FALSE;
; 176  : 	}
; 177  : 
; 178  : 	if( p_lParam2 <= 0) return FALSE;

  0007b	85 c9		 test	 ecx, ecx
  0007d	7e 52		 jle	 SHORT $LN66@OnAddInToo

; 179  : 
; 180  : 	if( m_bWin98)

  0007f	83 7b 34 00	 cmp	 DWORD PTR [ebx+52], 0
  00083	74 62		 je	 SHORT $LN11@OnAddInToo

; 181  : 	{
; 182  : 		ML_SET_LANGUAGE_RES();

  00085	e8 00 00 00 00	 call	 ?AfxGetStaticModuleState@@YGPAVAFX_MODULE_STATE@@XZ ; AfxGetStaticModuleState
  0008a	b9 00 00 00 00	 mov	 ecx, OFFSET ?g_iMetaTable@@3VIMetaTable@@A ; g_iMetaTable
  0008f	8b 40 08	 mov	 eax, DWORD PTR [eax+8]
  00092	50		 push	 eax
  00093	ff 73 38	 push	 DWORD PTR [ebx+56]
  00096	e8 00 00 00 00	 call	 ?LoadResourceDLL@IMetaTable@@QAEPAUHINSTANCE__@@PAUHWND__@@PAU2@@Z ; IMetaTable::LoadResourceDLL
  0009b	8b f8		 mov	 edi, eax
; File C:\Program Files (x86)\Microsoft Visual Studio\2019\Community\VC\Tools\MSVC\14.29.30133\atlmfc\include\afxwin1.inl

; 25   : 		return afxCurrentResourceHandle; }

  0009d	e8 00 00 00 00	 call	 ?AfxGetModuleState@@YGPAVAFX_MODULE_STATE@@XZ ; AfxGetModuleState
; File D:\git\src\IBK\IBK_DRFN\ProjSrc\SrcChartEx\ChartAddIn\ChartEnvSetupDlgAddIn\Include_Chart\Dll_Load\IMetaTable.h

; 1032 : 		m_hInstance = AfxGetResourceHandle();

  000a2	8b 70 0c	 mov	 esi, DWORD PTR [eax+12]
  000a5	89 75 08	 mov	 DWORD PTR ___mlrs__$3[ebp], esi
; File C:\Program Files (x86)\Microsoft Visual Studio\2019\Community\VC\Tools\MSVC\14.29.30133\atlmfc\include\afxwin1.inl

; 27   : 	{ ASSERT(hInstResource != NULL); afxCurrentResourceHandle = hInstResource; }

  000a8	e8 00 00 00 00	 call	 ?AfxGetModuleState@@YGPAVAFX_MODULE_STATE@@XZ ; AfxGetModuleState
  000ad	89 78 0c	 mov	 DWORD PTR [eax+12], edi
; File D:\git\src\IBK\IBK_DRFN\ProjSrc\SrcChartEx\ChartAddIn\ChartEnvSetupDlgAddIn\ChartEnvSetupDlgAddIn\ChartEnvSetupDlgAddInImp.cpp

; 183  : 		AfxMessageBox(IDS_MSG_SETTING_98);

  000b0	6a ff		 push	 -1
  000b2	6a 00		 push	 0
  000b4	6a 06		 push	 6
  000b6	c7 45 fc 00 00
	00 00		 mov	 DWORD PTR __$EHRec$[ebp+8], 0
  000bd	e8 00 00 00 00	 call	 ?AfxMessageBox@@YGHIII@Z ; AfxMessageBox
; File D:\git\src\IBK\IBK_DRFN\ProjSrc\SrcChartEx\ChartAddIn\ChartEnvSetupDlgAddIn\Include_Chart\Dll_Load\IMetaTable.h

; 1036 : 	{

  000c2	c7 45 fc 01 00
	00 00		 mov	 DWORD PTR __$EHRec$[ebp+8], 1
$LN69@OnAddInToo:
; File D:\git\src\IBK\IBK_DRFN\ProjSrc\SrcChartEx\ChartAddIn\ChartEnvSetupDlgAddIn\ChartEnvSetupDlgAddIn\ChartEnvSetupDlgAddInImp.cpp

; 225  : }

  000c9	e8 00 00 00 00	 call	 ?AfxGetModuleState@@YGPAVAFX_MODULE_STATE@@XZ ; AfxGetModuleState
  000ce	89 70 0c	 mov	 DWORD PTR [eax+12], esi
$LN66@OnAddInToo:
  000d1	33 c0		 xor	 eax, eax
  000d3	8b 4d f4	 mov	 ecx, DWORD PTR __$EHRec$[ebp]
  000d6	64 89 0d 00 00
	00 00		 mov	 DWORD PTR fs:0, ecx
  000dd	59		 pop	 ecx
  000de	5f		 pop	 edi
  000df	5e		 pop	 esi
  000e0	5b		 pop	 ebx
  000e1	8b e5		 mov	 esp, ebp
  000e3	5d		 pop	 ebp
  000e4	c2 0c 00	 ret	 12			; 0000000cH
$LN11@OnAddInToo:

; 184  : 		return FALSE;
; 185  : 	}
; 186  : 
; 187  : 	if( m_pIChartOCX->IsOnSpecialChart())

  000e7	8b 4b 04	 mov	 ecx, DWORD PTR [ebx+4]
  000ea	8b 01		 mov	 eax, DWORD PTR [ecx]
  000ec	ff 50 6c	 call	 DWORD PTR [eax+108]
  000ef	85 c0		 test	 eax, eax
  000f1	74 46		 je	 SHORT $LN12@OnAddInToo

; 188  : 	{
; 189  : 		ML_SET_LANGUAGE_RES();

  000f3	e8 00 00 00 00	 call	 ?AfxGetStaticModuleState@@YGPAVAFX_MODULE_STATE@@XZ ; AfxGetStaticModuleState
  000f8	b9 00 00 00 00	 mov	 ecx, OFFSET ?g_iMetaTable@@3VIMetaTable@@A ; g_iMetaTable
  000fd	8b 40 08	 mov	 eax, DWORD PTR [eax+8]
  00100	50		 push	 eax
  00101	ff 73 38	 push	 DWORD PTR [ebx+56]
  00104	e8 00 00 00 00	 call	 ?LoadResourceDLL@IMetaTable@@QAEPAUHINSTANCE__@@PAUHWND__@@PAU2@@Z ; IMetaTable::LoadResourceDLL
  00109	8b f8		 mov	 edi, eax
; File C:\Program Files (x86)\Microsoft Visual Studio\2019\Community\VC\Tools\MSVC\14.29.30133\atlmfc\include\afxwin1.inl

; 25   : 		return afxCurrentResourceHandle; }

  0010b	e8 00 00 00 00	 call	 ?AfxGetModuleState@@YGPAVAFX_MODULE_STATE@@XZ ; AfxGetModuleState
; File D:\git\src\IBK\IBK_DRFN\ProjSrc\SrcChartEx\ChartAddIn\ChartEnvSetupDlgAddIn\Include_Chart\Dll_Load\IMetaTable.h

; 1032 : 		m_hInstance = AfxGetResourceHandle();

  00110	8b 70 0c	 mov	 esi, DWORD PTR [eax+12]
  00113	89 75 08	 mov	 DWORD PTR ___mlrs__$2[ebp], esi
; File C:\Program Files (x86)\Microsoft Visual Studio\2019\Community\VC\Tools\MSVC\14.29.30133\atlmfc\include\afxwin1.inl

; 27   : 	{ ASSERT(hInstResource != NULL); afxCurrentResourceHandle = hInstResource; }

  00116	e8 00 00 00 00	 call	 ?AfxGetModuleState@@YGPAVAFX_MODULE_STATE@@XZ ; AfxGetModuleState
  0011b	89 78 0c	 mov	 DWORD PTR [eax+12], edi
; File D:\git\src\IBK\IBK_DRFN\ProjSrc\SrcChartEx\ChartAddIn\ChartEnvSetupDlgAddIn\ChartEnvSetupDlgAddIn\ChartEnvSetupDlgAddInImp.cpp

; 190  : 		AfxMessageBox(IDS_MSG_ENV_SETTING);

  0011e	6a ff		 push	 -1
  00120	6a 00		 push	 0
  00122	6a 07		 push	 7
  00124	c7 45 fc 02 00
	00 00		 mov	 DWORD PTR __$EHRec$[ebp+8], 2
  0012b	e8 00 00 00 00	 call	 ?AfxMessageBox@@YGHIII@Z ; AfxMessageBox
; File D:\git\src\IBK\IBK_DRFN\ProjSrc\SrcChartEx\ChartAddIn\ChartEnvSetupDlgAddIn\Include_Chart\Dll_Load\IMetaTable.h

; 1036 : 	{

  00130	c7 45 fc 03 00
	00 00		 mov	 DWORD PTR __$EHRec$[ebp+8], 3
; File D:\git\src\IBK\IBK_DRFN\ProjSrc\SrcChartEx\ChartAddIn\ChartEnvSetupDlgAddIn\ChartEnvSetupDlgAddIn\ChartEnvSetupDlgAddInImp.cpp

; 191  : 		return FALSE;

  00137	eb 90		 jmp	 SHORT $LN69@OnAddInToo
$LN12@OnAddInToo:

; 195  : 	ILPCSTR szAllIndicatorName = m_pIChartManager->GetAllIndicatorNameString();

  00139	8b 4b 14	 mov	 ecx, DWORD PTR [ebx+20]
  0013c	8b 01		 mov	 eax, DWORD PTR [ecx]
  0013e	ff 50 4c	 call	 DWORD PTR [eax+76]
; File D:\git\src\IBK\IBK_DRFN\ProjSrc\SrcChartEx\ChartAddIn\ChartEnvSetupDlgAddIn\Include_AddIn_135914\I135914\_IString.h

; 39   : 		m_pIStrData = p_pIString;	// Do not AddRef(). Because It must be Return Value.

  00141	89 45 ec	 mov	 DWORD PTR _szAllIndicatorName$[ebp+4], eax

; 40   : 		if( m_pIStrData) m_szData = m_pIStrData->GetData();

  00144	85 c0		 test	 eax, eax
  00146	74 09		 je	 SHORT $LN47@OnAddInToo
  00148	8b 10		 mov	 edx, DWORD PTR [eax]
  0014a	8b c8		 mov	 ecx, eax
  0014c	ff 52 10	 call	 DWORD PTR [edx+16]
  0014f	eb 02		 jmp	 SHORT $LN68@OnAddInToo
$LN47@OnAddInToo:

; 41   : 		else m_szData = NULL;

  00151	33 c0		 xor	 eax, eax
$LN68@OnAddInToo:
; File D:\git\src\IBK\IBK_DRFN\ProjSrc\SrcChartEx\ChartAddIn\ChartEnvSetupDlgAddIn\ChartEnvSetupDlgAddIn\ChartEnvSetupDlgAddInImp.cpp

; 195  : 	ILPCSTR szAllIndicatorName = m_pIChartManager->GetAllIndicatorNameString();

  00153	89 45 e8	 mov	 DWORD PTR _szAllIndicatorName$[ebp], eax
  00156	c7 45 fc 04 00
	00 00		 mov	 DWORD PTR __$EHRec$[ebp+8], 4
; File D:\git\src\IBK\IBK_DRFN\ProjSrc\SrcChartEx\ChartAddIn\ChartEnvSetupDlgAddIn\Include_AddIn_135914\I135914\_IString.h

; 57   : 		if( !m_szData) return TRUE;

  0015d	85 c0		 test	 eax, eax
  0015f	0f 84 05 01 00
	00		 je	 $LN64@OnAddInToo
; File D:\git\src\IBK\IBK_DRFN\ProjSrc\SrcChartEx\ChartAddIn\ChartEnvSetupDlgAddIn\ChartEnvSetupDlgAddIn\ChartEnvSetupDlgAddInImp.cpp

; 196  : 	if( szAllIndicatorName.IsEmpty()) return FALSE;

  00165	80 38 00	 cmp	 BYTE PTR [eax], 0
  00168	0f 84 fc 00 00
	00		 je	 $LN64@OnAddInToo

; 197  : 
; 198  : 	m_pIChartOCX->ReleaseOtherToolUI( CToolOptionInfo::TOOLOPTION( -1));

  0016e	8b 4b 04	 mov	 ecx, DWORD PTR [ebx+4]
  00171	6a ff		 push	 -1
  00173	8b 01		 mov	 eax, DWORD PTR [ecx]
  00175	ff 90 7c 01 00
	00		 call	 DWORD PTR [eax+380]

; 199  : 
; 200  : 	// (2006/3/29 - Seung-Won, Bae) Release AddIn Tool
; 201  : 	m_pIAddInToolMgr->OnAddInToolCommand( EAI_OOA_ON_TOOL_FUNCTION, CToolOptionInfo::T_TOOL_SELECTION, 0);

  0017b	8b 4b 1c	 mov	 ecx, DWORD PTR [ebx+28]
  0017e	6a 00		 push	 0
  00180	6a 20		 push	 32			; 00000020H
  00182	6a 1b		 push	 27			; 0000001bH
  00184	8b 01		 mov	 eax, DWORD PTR [ecx]
  00186	ff 50 74	 call	 DWORD PTR [eax+116]

; 202  : 
; 203  : 	m_pIChartManager->ChangeAllGraphInfoFromGraphData();

  00189	8b 4b 14	 mov	 ecx, DWORD PTR [ebx+20]
  0018c	8b 01		 mov	 eax, DWORD PTR [ecx]
  0018e	ff 50 74	 call	 DWORD PTR [eax+116]

; 204  : 
; 205  : 	ML_SET_LANGUAGE_RES();

  00191	e8 00 00 00 00	 call	 ?AfxGetStaticModuleState@@YGPAVAFX_MODULE_STATE@@XZ ; AfxGetStaticModuleState
  00196	b9 00 00 00 00	 mov	 ecx, OFFSET ?g_iMetaTable@@3VIMetaTable@@A ; g_iMetaTable
  0019b	8b 40 08	 mov	 eax, DWORD PTR [eax+8]
  0019e	50		 push	 eax
  0019f	ff 73 38	 push	 DWORD PTR [ebx+56]
  001a2	e8 00 00 00 00	 call	 ?LoadResourceDLL@IMetaTable@@QAEPAUHINSTANCE__@@PAUHWND__@@PAU2@@Z ; IMetaTable::LoadResourceDLL
  001a7	8b f8		 mov	 edi, eax
; File C:\Program Files (x86)\Microsoft Visual Studio\2019\Community\VC\Tools\MSVC\14.29.30133\atlmfc\include\afxwin1.inl

; 25   : 		return afxCurrentResourceHandle; }

  001a9	e8 00 00 00 00	 call	 ?AfxGetModuleState@@YGPAVAFX_MODULE_STATE@@XZ ; AfxGetModuleState
; File D:\git\src\IBK\IBK_DRFN\ProjSrc\SrcChartEx\ChartAddIn\ChartEnvSetupDlgAddIn\Include_Chart\Dll_Load\IMetaTable.h

; 1032 : 		m_hInstance = AfxGetResourceHandle();

  001ae	8b 70 0c	 mov	 esi, DWORD PTR [eax+12]
  001b1	89 75 0c	 mov	 DWORD PTR ___mlrs__$[ebp], esi
; File C:\Program Files (x86)\Microsoft Visual Studio\2019\Community\VC\Tools\MSVC\14.29.30133\atlmfc\include\afxwin1.inl

; 27   : 	{ ASSERT(hInstResource != NULL); afxCurrentResourceHandle = hInstResource; }

  001b4	e8 00 00 00 00	 call	 ?AfxGetModuleState@@YGPAVAFX_MODULE_STATE@@XZ ; AfxGetModuleState
  001b9	89 78 0c	 mov	 DWORD PTR [eax+12], edi
; File D:\git\src\IBK\IBK_DRFN\ProjSrc\SrcChartEx\ChartAddIn\ChartEnvSetupDlgAddIn\ChartEnvSetupDlgAddIn\ChartEnvSetupDlgAddInImp.cpp

; 207  : 	CDlgEnvSetUpAll dlgEnvSetUpAll( m_pIChartOCX, nShowItem, nActivePage, this, m_pChartCWnd, m_bWin98);

  001bc	ff 73 34	 push	 DWORD PTR [ebx+52]
  001bf	8d 43 f8	 lea	 eax, DWORD PTR [ebx-8]
  001c2	c6 45 fc 05	 mov	 BYTE PTR __$EHRec$[ebp+8], 5
  001c6	ff 73 08	 push	 DWORD PTR [ebx+8]
  001c9	8d 8d 60 fe ff
	ff		 lea	 ecx, DWORD PTR _dlgEnvSetUpAll$[ebp]
  001cf	50		 push	 eax
  001d0	ff 75 08	 push	 DWORD PTR _nActivePage$1$[ebp]
  001d3	ff 75 f0	 push	 DWORD PTR _nShowItem$1$[ebp]
  001d6	ff 73 04	 push	 DWORD PTR [ebx+4]
  001d9	e8 00 00 00 00	 call	 ??0CDlgEnvSetUpAll@@QAE@PAUIChartOCX135914@@HHPAVCChartAddInBase135914@@PAVCWnd@@H@Z ; CDlgEnvSetUpAll::CDlgEnvSetUpAll

; 208  : 	m_pMainIndicatorCFG = &dlgEnvSetUpAll;
; 209  : 	//{{2007.06.04 by LYH    RQ   
; 210  : 	IPacketManager *pIPacketManager = m_pIChartOCX->GetIDefaultPacketManager();

  001de	8b 4b 04	 mov	 ecx, DWORD PTR [ebx+4]
  001e1	8d 85 60 fe ff
	ff		 lea	 eax, DWORD PTR _dlgEnvSetUpAll$[ebp]
  001e7	89 43 2c	 mov	 DWORD PTR [ebx+44], eax
  001ea	c6 45 fc 06	 mov	 BYTE PTR __$EHRec$[ebp+8], 6
  001ee	8b 01		 mov	 eax, DWORD PTR [ecx]
  001f0	ff 50 1c	 call	 DWORD PTR [eax+28]
  001f3	8b f8		 mov	 edi, eax

; 211  : 	if( pIPacketManager)

  001f5	85 ff		 test	 edi, edi
  001f7	74 25		 je	 SHORT $LN14@OnAddInToo

; 212  : 		pIPacketManager->SetRemovablePacketRQ(FALSE);

  001f9	8b 17		 mov	 edx, DWORD PTR [edi]
  001fb	8b cf		 mov	 ecx, edi
  001fd	6a 00		 push	 0
  001ff	ff 52 24	 call	 DWORD PTR [edx+36]
  00202	8d 8d 60 fe ff
	ff		 lea	 ecx, DWORD PTR _dlgEnvSetUpAll$[ebp]
  00208	e8 00 00 00 00	 call	 ?DoModal@CDialog@@UAEHXZ ; CDialog::DoModal

; 215  : 	//{{2007.06.04 by LYH  
; 216  : 	if( pIPacketManager)
; 217  : 	{
; 218  : 		pIPacketManager->SetRemovablePacketRQ(TRUE);

  0020d	8b 07		 mov	 eax, DWORD PTR [edi]
  0020f	8b cf		 mov	 ecx, edi
  00211	6a 01		 push	 1
  00213	ff 50 24	 call	 DWORD PTR [eax+36]

; 219  : 		pIPacketManager->Release();

  00216	8b 07		 mov	 eax, DWORD PTR [edi]
  00218	57		 push	 edi
  00219	ff 50 08	 call	 DWORD PTR [eax+8]
  0021c	eb 0b		 jmp	 SHORT $LN15@OnAddInToo
$LN14@OnAddInToo:

; 213  : 	//}}
; 214  : 	dlgEnvSetUpAll.DoModal();

  0021e	8d 8d 60 fe ff
	ff		 lea	 ecx, DWORD PTR _dlgEnvSetUpAll$[ebp]
  00224	e8 00 00 00 00	 call	 ?DoModal@CDialog@@UAEHXZ ; CDialog::DoModal
$LN15@OnAddInToo:

; 224  : 	return TRUE;

  00229	8d 8d 60 fe ff
	ff		 lea	 ecx, DWORD PTR _dlgEnvSetUpAll$[ebp]
  0022f	c7 43 2c 00 00
	00 00		 mov	 DWORD PTR [ebx+44], 0
  00236	bf 01 00 00 00	 mov	 edi, 1
  0023b	e8 00 00 00 00	 call	 ??1CDlgEnvSetUpAll@@UAE@XZ ; CDlgEnvSetUpAll::~CDlgEnvSetUpAll
; File D:\git\src\IBK\IBK_DRFN\ProjSrc\SrcChartEx\ChartAddIn\ChartEnvSetupDlgAddIn\Include_Chart\Dll_Load\IMetaTable.h

; 1036 : 	{

  00240	c6 45 fc 07	 mov	 BYTE PTR __$EHRec$[ebp+8], 7
; File C:\Program Files (x86)\Microsoft Visual Studio\2019\Community\VC\Tools\MSVC\14.29.30133\atlmfc\include\afxwin1.inl

; 27   : 	{ ASSERT(hInstResource != NULL); afxCurrentResourceHandle = hInstResource; }

  00244	e8 00 00 00 00	 call	 ?AfxGetModuleState@@YGPAVAFX_MODULE_STATE@@XZ ; AfxGetModuleState
; File D:\git\src\IBK\IBK_DRFN\ProjSrc\SrcChartEx\ChartAddIn\ChartEnvSetupDlgAddIn\ChartEnvSetupDlgAddIn\ChartEnvSetupDlgAddInImp.cpp

; 224  : 	return TRUE;

  00249	8d 4d e8	 lea	 ecx, DWORD PTR _szAllIndicatorName$[ebp]
; File C:\Program Files (x86)\Microsoft Visual Studio\2019\Community\VC\Tools\MSVC\14.29.30133\atlmfc\include\afxwin1.inl

; 27   : 	{ ASSERT(hInstResource != NULL); afxCurrentResourceHandle = hInstResource; }

  0024c	89 70 0c	 mov	 DWORD PTR [eax+12], esi
; File D:\git\src\IBK\IBK_DRFN\ProjSrc\SrcChartEx\ChartAddIn\ChartEnvSetupDlgAddIn\ChartEnvSetupDlgAddIn\ChartEnvSetupDlgAddInImp.cpp

; 224  : 	return TRUE;

  0024f	e8 00 00 00 00	 call	 ??1ILPCSTR135914@@QAE@XZ ; ILPCSTR135914::~ILPCSTR135914
  00254	8b c7		 mov	 eax, edi

; 225  : }

  00256	8b 4d f4	 mov	 ecx, DWORD PTR __$EHRec$[ebp]
  00259	64 89 0d 00 00
	00 00		 mov	 DWORD PTR fs:0, ecx
  00260	59		 pop	 ecx
  00261	5f		 pop	 edi
  00262	5e		 pop	 esi
  00263	5b		 pop	 ebx
  00264	8b e5		 mov	 esp, ebp
  00266	5d		 pop	 ebp
  00267	c2 0c 00	 ret	 12			; 0000000cH
$LN64@OnAddInToo:

; 224  : 	return TRUE;

  0026a	8d 4d e8	 lea	 ecx, DWORD PTR _szAllIndicatorName$[ebp]
  0026d	33 ff		 xor	 edi, edi
  0026f	e8 00 00 00 00	 call	 ??1ILPCSTR135914@@QAE@XZ ; ILPCSTR135914::~ILPCSTR135914
  00274	8b c7		 mov	 eax, edi

; 225  : }

  00276	8b 4d f4	 mov	 ecx, DWORD PTR __$EHRec$[ebp]
  00279	64 89 0d 00 00
	00 00		 mov	 DWORD PTR fs:0, ecx
  00280	59		 pop	 ecx
  00281	5f		 pop	 edi
  00282	5e		 pop	 esi
  00283	5b		 pop	 ebx
  00284	8b e5		 mov	 esp, ebp
  00286	5d		 pop	 ebp
  00287	c2 0c 00	 ret	 12			; 0000000cH
_TEXT	ENDS
;	COMDAT text$x
text$x	SEGMENT
__unwindfunclet$?OnAddInToolCommand@CChartEnvSetupDlgAddInImp@@MAEHW4EAICommandType@@JJ@Z$0:
  00000	8d 4d 08	 lea	 ecx, DWORD PTR ___mlrs__$3[ebp]
  00003	e9 00 00 00 00	 jmp	 ??1CMultiLanguageResourceSetter@@QAE@XZ ; CMultiLanguageResourceSetter::~CMultiLanguageResourceSetter
__unwindfunclet$?OnAddInToolCommand@CChartEnvSetupDlgAddInImp@@MAEHW4EAICommandType@@JJ@Z$1:
  00008	8d 4d 08	 lea	 ecx, DWORD PTR ___mlrs__$2[ebp]
  0000b	e9 00 00 00 00	 jmp	 ??1CMultiLanguageResourceSetter@@QAE@XZ ; CMultiLanguageResourceSetter::~CMultiLanguageResourceSetter
__unwindfunclet$?OnAddInToolCommand@CChartEnvSetupDlgAddInImp@@MAEHW4EAICommandType@@JJ@Z$2:
  00010	8d 4d e8	 lea	 ecx, DWORD PTR _szAllIndicatorName$[ebp]
  00013	e9 00 00 00 00	 jmp	 ??1ILPCSTR135914@@QAE@XZ ; ILPCSTR135914::~ILPCSTR135914
__unwindfunclet$?OnAddInToolCommand@CChartEnvSetupDlgAddInImp@@MAEHW4EAICommandType@@JJ@Z$3:
  00018	8d 4d 0c	 lea	 ecx, DWORD PTR ___mlrs__$[ebp]
  0001b	e9 00 00 00 00	 jmp	 ??1CMultiLanguageResourceSetter@@QAE@XZ ; CMultiLanguageResourceSetter::~CMultiLanguageResourceSetter
__unwindfunclet$?OnAddInToolCommand@CChartEnvSetupDlgAddInImp@@MAEHW4EAICommandType@@JJ@Z$4:
  00020	8d 8d 60 fe ff
	ff		 lea	 ecx, DWORD PTR _dlgEnvSetUpAll$[ebp]
  00026	e9 00 00 00 00	 jmp	 ??1CDlgEnvSetUpAll@@UAE@XZ ; CDlgEnvSetUpAll::~CDlgEnvSetUpAll
  0002b	cc		 int	 3
  0002c	cc		 int	 3
  0002d	cc		 int	 3
  0002e	cc		 int	 3
  0002f	cc		 int	 3
__ehhandler$?OnAddInToolCommand@CChartEnvSetupDlgAddInImp@@MAEHW4EAICommandType@@JJ@Z:
  00030	90		 npad	 1
  00031	90		 npad	 1
  00032	8b 54 24 08	 mov	 edx, DWORD PTR [esp+8]
  00036	8d 42 0c	 lea	 eax, DWORD PTR [edx+12]
  00039	8b 8a 5c fe ff
	ff		 mov	 ecx, DWORD PTR [edx-420]
  0003f	33 c8		 xor	 ecx, eax
  00041	e8 00 00 00 00	 call	 @__security_check_cookie@4
  00046	b8 00 00 00 00	 mov	 eax, OFFSET __ehfuncinfo$?OnAddInToolCommand@CChartEnvSetupDlgAddInImp@@MAEHW4EAICommandType@@JJ@Z
  0004b	e9 00 00 00 00	 jmp	 ___CxxFrameHandler3
text$x	ENDS
?OnAddInToolCommand@CChartEnvSetupDlgAddInImp@@MAEHW4EAICommandType@@JJ@Z ENDP ; CChartEnvSetupDlgAddInImp::OnAddInToolCommand
; Function compile flags: /Ogtp
; File D:\git\src\IBK\IBK_DRFN\ProjSrc\SrcChartEx\ChartAddIn\ChartEnvSetupDlgAddIn\ChartEnvSetupDlgAddIn\ChartEnvSetupDlgAddInImp.cpp
; File D:\git\src\IBK\IBK_DRFN\ProjSrc\SrcChartEx\ChartAddIn\ChartEnvSetupDlgAddIn\Include_AddIn_135914\I135914\_IString.h
; File D:\git\src\IBK\IBK_DRFN\ProjSrc\SrcChartEx\ChartAddIn\ChartEnvSetupDlgAddIn\ChartEnvSetupDlgAddIn\ChartEnvSetupDlgAddInImp.cpp
; File D:\git\src\IBK\IBK_DRFN\ProjSrc\SrcChartEx\ChartAddIn\ChartEnvSetupDlgAddIn\Include_AddIn_135914\I135914\_IString.h
; File D:\git\src\IBK\IBK_DRFN\ProjSrc\SrcChartEx\ChartAddIn\ChartEnvSetupDlgAddIn\ChartEnvSetupDlgAddIn\ChartEnvSetupDlgAddInImp.cpp
; File D:\git\src\IBK\IBK_DRFN\ProjSrc\SrcChartEx\ChartAddIn\ChartEnvSetupDlgAddIn\Include_AddIn_135914\I135914\_IString.h
; File D:\git\src\IBK\IBK_DRFN\ProjSrc\SrcChartEx\ChartAddIn\ChartEnvSetupDlgAddIn\ChartEnvSetupDlgAddIn\ChartEnvSetupDlgAddInImp.cpp
;	COMDAT ?OnCmdMsg@CChartEnvSetupDlgAddInImp@@MAEHIHPAUICmdUI135914@@@Z
_TEXT	SEGMENT
_szAllIndicatorName$2 = -20				; size = 8
__$EHRec$ = -12						; size = 12
_nID$ = 8						; size = 4
_nCode$ = 12						; size = 4
_p_pICmdUI$ = 16					; size = 4
?OnCmdMsg@CChartEnvSetupDlgAddInImp@@MAEHIHPAUICmdUI135914@@@Z PROC ; CChartEnvSetupDlgAddInImp::OnCmdMsg, COMDAT
; _this$ = ecx

; 114  : {

  00000	55		 push	 ebp
  00001	8b ec		 mov	 ebp, esp
  00003	6a ff		 push	 -1
  00005	68 00 00 00 00	 push	 __ehhandler$?OnCmdMsg@CChartEnvSetupDlgAddInImp@@MAEHIHPAUICmdUI135914@@@Z
  0000a	64 a1 00 00 00
	00		 mov	 eax, DWORD PTR fs:0
  00010	50		 push	 eax
  00011	83 ec 08	 sub	 esp, 8
  00014	53		 push	 ebx
  00015	56		 push	 esi
  00016	57		 push	 edi
  00017	a1 00 00 00 00	 mov	 eax, DWORD PTR ___security_cookie
  0001c	33 c5		 xor	 eax, ebp
  0001e	50		 push	 eax
  0001f	8d 45 f4	 lea	 eax, DWORD PTR __$EHRec$[ebp]
  00022	64 a3 00 00 00
	00		 mov	 DWORD PTR fs:0, eax
  00028	8b f1		 mov	 esi, ecx

; 115  : 	if( !m_bShowMenu) return FALSE;

  0002a	83 7e 28 00	 cmp	 DWORD PTR [esi+40], 0
  0002e	0f 84 f4 00 00
	00		 je	 $LN13@OnCmdMsg

; 116  : 
; 117  : 	if( CN_UPDATE_COMMAND_UI == nCode)

  00034	8b 45 0c	 mov	 eax, DWORD PTR _nCode$[ebp]
  00037	83 f8 ff	 cmp	 eax, -1
  0003a	0f 85 87 00 00
	00		 jne	 $LN7@OnCmdMsg

; 118  : 	{
; 119  : 		switch( nID)

  00040	8b 45 08	 mov	 eax, DWORD PTR _nID$[ebp]
  00043	2d f1 a0 00 00	 sub	 eax, 41201		; 0000a0f1H
  00048	74 09		 je	 SHORT $LN8@OnCmdMsg
  0004a	83 e8 01	 sub	 eax, 1
  0004d	0f 85 d5 00 00
	00		 jne	 $LN13@OnCmdMsg
$LN8@OnCmdMsg:

; 120  : 		{
; 121  : 			case ID_ESP_SHOW_ENVIRONMENT_DLG:	
; 122  : 			case ID_ESP_SHOW_INDICATOR_DLG:		if( p_pICmdUI)

  00053	8b 5d 10	 mov	 ebx, DWORD PTR _p_pICmdUI$[ebp]
  00056	85 db		 test	 ebx, ebx
  00058	0f 84 ca 00 00
	00		 je	 $LN13@OnCmdMsg

; 125  : 													ILPCSTR szAllIndicatorName = m_pIChartManager->GetAllIndicatorNameString();

  0005e	8b 4e 14	 mov	 ecx, DWORD PTR [esi+20]
  00061	8b 01		 mov	 eax, DWORD PTR [ecx]
  00063	ff 50 4c	 call	 DWORD PTR [eax+76]
; File D:\git\src\IBK\IBK_DRFN\ProjSrc\SrcChartEx\ChartAddIn\ChartEnvSetupDlgAddIn\Include_AddIn_135914\I135914\_IString.h

; 39   : 		m_pIStrData = p_pIString;	// Do not AddRef(). Because It must be Return Value.

  00066	8b f8		 mov	 edi, eax
  00068	89 7d f0	 mov	 DWORD PTR _szAllIndicatorName$2[ebp+4], edi

; 40   : 		if( m_pIStrData) m_szData = m_pIStrData->GetData();

  0006b	85 ff		 test	 edi, edi
  0006d	74 09		 je	 SHORT $LN20@OnCmdMsg
  0006f	8b 17		 mov	 edx, DWORD PTR [edi]
  00071	8b cf		 mov	 ecx, edi
  00073	ff 52 10	 call	 DWORD PTR [edx+16]
  00076	eb 02		 jmp	 SHORT $LN31@OnCmdMsg
$LN20@OnCmdMsg:

; 41   : 		else m_szData = NULL;

  00078	33 c0		 xor	 eax, eax
$LN31@OnCmdMsg:
; File D:\git\src\IBK\IBK_DRFN\ProjSrc\SrcChartEx\ChartAddIn\ChartEnvSetupDlgAddIn\ChartEnvSetupDlgAddIn\ChartEnvSetupDlgAddInImp.cpp

; 125  : 													ILPCSTR szAllIndicatorName = m_pIChartManager->GetAllIndicatorNameString();

  0007a	89 45 ec	 mov	 DWORD PTR _szAllIndicatorName$2[ebp], eax
  0007d	c7 45 fc 00 00
	00 00		 mov	 DWORD PTR __$EHRec$[ebp+8], 0
; File D:\git\src\IBK\IBK_DRFN\ProjSrc\SrcChartEx\ChartAddIn\ChartEnvSetupDlgAddIn\Include_AddIn_135914\I135914\_IString.h

; 57   : 		if( !m_szData) return TRUE;

  00084	85 c0		 test	 eax, eax
  00086	74 15		 je	 SHORT $LN11@OnCmdMsg
; File D:\git\src\IBK\IBK_DRFN\ProjSrc\SrcChartEx\ChartAddIn\ChartEnvSetupDlgAddIn\ChartEnvSetupDlgAddIn\ChartEnvSetupDlgAddInImp.cpp

; 126  : 													if( !szAllIndicatorName.IsEmpty()) p_pICmdUI->Enable( !m_bWin98);

  00088	80 38 00	 cmp	 BYTE PTR [eax], 0
  0008b	74 10		 je	 SHORT $LN11@OnCmdMsg
  0008d	8b 13		 mov	 edx, DWORD PTR [ebx]
  0008f	33 c0		 xor	 eax, eax
  00091	39 46 34	 cmp	 DWORD PTR [esi+52], eax
  00094	8b cb		 mov	 ecx, ebx
  00096	0f 94 c0	 sete	 al
  00099	50		 push	 eax
  0009a	ff 52 10	 call	 DWORD PTR [edx+16]
$LN11@OnCmdMsg:
; File D:\git\src\IBK\IBK_DRFN\ProjSrc\SrcChartEx\ChartAddIn\ChartEnvSetupDlgAddIn\Include_AddIn_135914\I135914\_IString.h

; 44   : 	{

  0009d	c7 45 fc 01 00
	00 00		 mov	 DWORD PTR __$EHRec$[ebp+8], 1

; 45   : 		if( m_pIStrData)

  000a4	85 ff		 test	 edi, edi
  000a6	74 67		 je	 SHORT $LN4@OnCmdMsg

; 46   : 		{
; 47   : 			m_pIStrData->Release();

  000a8	8b 07		 mov	 eax, DWORD PTR [edi]
  000aa	57		 push	 edi
  000ab	ff 50 08	 call	 DWORD PTR [eax+8]
; File D:\git\src\IBK\IBK_DRFN\ProjSrc\SrcChartEx\ChartAddIn\ChartEnvSetupDlgAddIn\ChartEnvSetupDlgAddIn\ChartEnvSetupDlgAddInImp.cpp

; 147  : 		return TRUE;

  000ae	b8 01 00 00 00	 mov	 eax, 1

; 151  : }

  000b3	8b 4d f4	 mov	 ecx, DWORD PTR __$EHRec$[ebp]
  000b6	64 89 0d 00 00
	00 00		 mov	 DWORD PTR fs:0, ecx
  000bd	59		 pop	 ecx
  000be	5f		 pop	 edi
  000bf	5e		 pop	 esi
  000c0	5b		 pop	 ebx
  000c1	8b e5		 mov	 esp, ebp
  000c3	5d		 pop	 ebp
  000c4	c2 0c 00	 ret	 12			; 0000000cH
$LN7@OnCmdMsg:

; 127  : 													return TRUE;
; 128  : 												}		
; 129  : 			default: return FALSE;
; 130  : 		}
; 131  : 		return TRUE;
; 132  : 	}
; 133  : 
; 134  : 	if( CN_COMMAND == nCode)

  000c7	85 c0		 test	 eax, eax
  000c9	75 5d		 jne	 SHORT $LN13@OnCmdMsg

; 135  : 	{
; 136  : 		switch( nID)

  000cb	8b 45 08	 mov	 eax, DWORD PTR _nID$[ebp]
  000ce	2d f1 a0 00 00	 sub	 eax, 41201		; 0000a0f1H
  000d3	74 2c		 je	 SHORT $LN14@OnCmdMsg
  000d5	83 e8 01	 sub	 eax, 1
  000d8	75 4e		 jne	 SHORT $LN13@OnCmdMsg

; 147  : 		return TRUE;

  000da	8b 06		 mov	 eax, DWORD PTR [esi]
  000dc	6a 01		 push	 1
  000de	6a 0a		 push	 10			; 0000000aH
  000e0	6a 1b		 push	 27			; 0000001bH
  000e2	ff 90 84 00 00
	00		 call	 DWORD PTR [eax+132]
  000e8	b8 01 00 00 00	 mov	 eax, 1

; 151  : }

  000ed	8b 4d f4	 mov	 ecx, DWORD PTR __$EHRec$[ebp]
  000f0	64 89 0d 00 00
	00 00		 mov	 DWORD PTR fs:0, ecx
  000f7	59		 pop	 ecx
  000f8	5f		 pop	 edi
  000f9	5e		 pop	 esi
  000fa	5b		 pop	 ebx
  000fb	8b e5		 mov	 esp, ebp
  000fd	5d		 pop	 ebp
  000fe	c2 0c 00	 ret	 12			; 0000000cH
$LN14@OnCmdMsg:

; 147  : 		return TRUE;

  00101	8b 06		 mov	 eax, DWORD PTR [esi]
  00103	6a 01		 push	 1
  00105	6a 0b		 push	 11			; 0000000bH
  00107	6a 1b		 push	 27			; 0000001bH
  00109	ff 90 84 00 00
	00		 call	 DWORD PTR [eax+132]
$LN4@OnCmdMsg:
  0010f	b8 01 00 00 00	 mov	 eax, 1

; 151  : }

  00114	8b 4d f4	 mov	 ecx, DWORD PTR __$EHRec$[ebp]
  00117	64 89 0d 00 00
	00 00		 mov	 DWORD PTR fs:0, ecx
  0011e	59		 pop	 ecx
  0011f	5f		 pop	 edi
  00120	5e		 pop	 esi
  00121	5b		 pop	 ebx
  00122	8b e5		 mov	 esp, ebp
  00124	5d		 pop	 ebp
  00125	c2 0c 00	 ret	 12			; 0000000cH
$LN13@OnCmdMsg:

; 148  : 	}
; 149  : 
; 150  : 	return FALSE;

  00128	33 c0		 xor	 eax, eax

; 151  : }

  0012a	8b 4d f4	 mov	 ecx, DWORD PTR __$EHRec$[ebp]
  0012d	64 89 0d 00 00
	00 00		 mov	 DWORD PTR fs:0, ecx
  00134	59		 pop	 ecx
  00135	5f		 pop	 edi
  00136	5e		 pop	 esi
  00137	5b		 pop	 ebx
  00138	8b e5		 mov	 esp, ebp
  0013a	5d		 pop	 ebp
  0013b	c2 0c 00	 ret	 12			; 0000000cH
_TEXT	ENDS
;	COMDAT text$x
text$x	SEGMENT
__unwindfunclet$?OnCmdMsg@CChartEnvSetupDlgAddInImp@@MAEHIHPAUICmdUI135914@@@Z$0:
  00000	8d 4d ec	 lea	 ecx, DWORD PTR _szAllIndicatorName$2[ebp]
  00003	e9 00 00 00 00	 jmp	 ??1ILPCSTR135914@@QAE@XZ ; ILPCSTR135914::~ILPCSTR135914
  00008	cc		 int	 3
  00009	cc		 int	 3
  0000a	cc		 int	 3
  0000b	cc		 int	 3
  0000c	cc		 int	 3
__ehhandler$?OnCmdMsg@CChartEnvSetupDlgAddInImp@@MAEHIHPAUICmdUI135914@@@Z:
  0000d	90		 npad	 1
  0000e	90		 npad	 1
  0000f	8b 54 24 08	 mov	 edx, DWORD PTR [esp+8]
  00013	8d 42 0c	 lea	 eax, DWORD PTR [edx+12]
  00016	8b 4a e8	 mov	 ecx, DWORD PTR [edx-24]
  00019	33 c8		 xor	 ecx, eax
  0001b	e8 00 00 00 00	 call	 @__security_check_cookie@4
  00020	b8 00 00 00 00	 mov	 eax, OFFSET __ehfuncinfo$?OnCmdMsg@CChartEnvSetupDlgAddInImp@@MAEHIHPAUICmdUI135914@@@Z
  00025	e9 00 00 00 00	 jmp	 ___CxxFrameHandler3
text$x	ENDS
?OnCmdMsg@CChartEnvSetupDlgAddInImp@@MAEHIHPAUICmdUI135914@@@Z ENDP ; CChartEnvSetupDlgAddInImp::OnCmdMsg
; Function compile flags: /Ogtp
; File D:\git\src\IBK\IBK_DRFN\ProjSrc\SrcChartEx\ChartAddIn\ChartEnvSetupDlgAddIn\ChartEnvSetupDlgAddIn\ChartEnvSetupDlgAddInImp.cpp
; File D:\git\src\IBK\IBK_DRFN\ProjSrc\SrcChartEx\ChartAddIn\ChartEnvSetupDlgAddIn\ChartEnvSetupDlgAddIn\DlgEnvSetUpAll.h
; File D:\git\src\IBK\IBK_DRFN\ProjSrc\SrcChartEx\ChartAddIn\ChartEnvSetupDlgAddIn\ChartEnvSetupDlgAddIn\ChartEnvSetupDlgAddInImp.cpp
; File D:\git\src\IBK\IBK_DRFN\ProjSrc\SrcChartEx\ChartAddIn\ChartEnvSetupDlgAddIn\ChartEnvSetupDlgAddIn\DlgEnvSetUpAll.h
; File D:\git\src\IBK\IBK_DRFN\ProjSrc\SrcChartEx\ChartAddIn\ChartEnvSetupDlgAddIn\ChartEnvSetupDlgAddIn\ChartEnvSetupDlgAddInImp.cpp
;	COMDAT ?OnGraphDeleted@CChartEnvSetupDlgAddInImp@@MAEXPBD0@Z
_TEXT	SEGMENT
_p_szGraphName$ = 8					; size = 4
_p_szIndicatorName$ = 12				; size = 4
?OnGraphDeleted@CChartEnvSetupDlgAddInImp@@MAEXPBD0@Z PROC ; CChartEnvSetupDlgAddInImp::OnGraphDeleted, COMDAT
; _this$ = ecx

; 102  : {

  00000	55		 push	 ebp
  00001	8b ec		 mov	 ebp, esp

; 103  : 	if( !m_pMainIndicatorCFG) return;

  00003	8b 49 2c	 mov	 ecx, DWORD PTR [ecx+44]
  00006	85 c9		 test	 ecx, ecx
  00008	74 0c		 je	 SHORT $LN1@OnGraphDel
; File D:\git\src\IBK\IBK_DRFN\ProjSrc\SrcChartEx\ChartAddIn\ChartEnvSetupDlgAddIn\ChartEnvSetupDlgAddIn\DlgEnvSetUpAll.h

; 93   : 				{	m_mtabChartEnvSetUpAll.OnGraphDeleted( p_szGraphName, p_szIndicatorName);	}

  0000a	81 c1 a8 00 00
	00		 add	 ecx, 168		; 000000a8H
; File D:\git\src\IBK\IBK_DRFN\ProjSrc\SrcChartEx\ChartAddIn\ChartEnvSetupDlgAddIn\ChartEnvSetupDlgAddIn\ChartEnvSetupDlgAddInImp.cpp

; 105  : }

  00010	5d		 pop	 ebp
; File D:\git\src\IBK\IBK_DRFN\ProjSrc\SrcChartEx\ChartAddIn\ChartEnvSetupDlgAddIn\ChartEnvSetupDlgAddIn\DlgEnvSetUpAll.h

; 93   : 				{	m_mtabChartEnvSetUpAll.OnGraphDeleted( p_szGraphName, p_szIndicatorName);	}

  00011	e9 00 00 00 00	 jmp	 ?OnGraphDeleted@CTabMainChartEnvSetUp@@QAEXPBD0@Z ; CTabMainChartEnvSetUp::OnGraphDeleted
$LN1@OnGraphDel:
; File D:\git\src\IBK\IBK_DRFN\ProjSrc\SrcChartEx\ChartAddIn\ChartEnvSetupDlgAddIn\ChartEnvSetupDlgAddIn\ChartEnvSetupDlgAddInImp.cpp

; 105  : }

  00016	5d		 pop	 ebp
  00017	c2 08 00	 ret	 8
?OnGraphDeleted@CChartEnvSetupDlgAddInImp@@MAEXPBD0@Z ENDP ; CChartEnvSetupDlgAddInImp::OnGraphDeleted
_TEXT	ENDS
; Function compile flags: /Ogtp
; File D:\git\src\IBK\IBK_DRFN\ProjSrc\SrcChartEx\ChartAddIn\ChartEnvSetupDlgAddIn\ChartEnvSetupDlgAddIn\ChartEnvSetupDlgAddInImp.cpp
;	COMDAT ?InvokeAddIn@CChartEnvSetupDlgAddInImp@@MAEHHJ@Z
_TEXT	SEGMENT
_p_nCommandType$ = 8					; size = 4
_p_lData$ = 12						; size = 4
?InvokeAddIn@CChartEnvSetupDlgAddInImp@@MAEHHJ@Z PROC	; CChartEnvSetupDlgAddInImp::InvokeAddIn, COMDAT
; _this$ = ecx

; 90   : {

  00000	55		 push	 ebp
  00001	8b ec		 mov	 ebp, esp

; 91   : 	if( p_nCommandType != 1005 || !m_pMainIndicatorCFG) return FALSE;

  00003	81 7d 08 ed 03
	00 00		 cmp	 DWORD PTR _p_nCommandType$[ebp], 1005 ; 000003edH
  0000a	56		 push	 esi
  0000b	75 3f		 jne	 SHORT $LN3@InvokeAddI
  0000d	8b 49 2c	 mov	 ecx, DWORD PTR [ecx+44]
  00010	85 c9		 test	 ecx, ecx
  00012	74 38		 je	 SHORT $LN3@InvokeAddI

; 92   : 	CDialog *pDlg = m_pMainIndicatorCFG->m_mtabChartEnvSetUpAll.GetTabPages( 1);

  00014	6a 01		 push	 1
  00016	81 c1 a8 00 00
	00		 add	 ecx, 168		; 000000a8H
  0001c	e8 00 00 00 00	 call	 ?GetTabPages@CTabMainChartEnvSetUp@@QAEPAVCDialog@@H@Z ; CTabMainChartEnvSetUp::GetTabPages
  00021	8b f0		 mov	 esi, eax

; 93   : 	if( !pDlg) return FALSE;

  00023	85 f6		 test	 esi, esi
  00025	74 25		 je	 SHORT $LN3@InvokeAddI

; 94   : 	if( !pDlg->IsKindOf( RUNTIME_CLASS( CDlgMainTabBaseEnvSetUp))) return FALSE;

  00027	e8 00 00 00 00	 call	 ?GetThisClass@CDlgMainTabBaseEnvSetUp@@SGPAUCRuntimeClass@@XZ ; CDlgMainTabBaseEnvSetUp::GetThisClass
  0002c	50		 push	 eax
  0002d	8b ce		 mov	 ecx, esi
  0002f	e8 00 00 00 00	 call	 ?IsKindOf@CObject@@QBEHPBUCRuntimeClass@@@Z ; CObject::IsKindOf
  00034	85 c0		 test	 eax, eax
  00036	74 14		 je	 SHORT $LN3@InvokeAddI

; 95   : 	CDlgMainTabBaseEnvSetUp *pBaseEnvDlg = ( CDlgMainTabBaseEnvSetUp *)pDlg;
; 96   : 	pBaseEnvDlg->EnableRevisedPrice( p_lData);

  00038	ff 75 0c	 push	 DWORD PTR _p_lData$[ebp]
  0003b	8b ce		 mov	 ecx, esi
  0003d	e8 00 00 00 00	 call	 ?EnableRevisedPrice@CDlgMainTabBaseEnvSetUp@@QAEXH@Z ; CDlgMainTabBaseEnvSetUp::EnableRevisedPrice

; 97   : 	return TRUE;

  00042	b8 01 00 00 00	 mov	 eax, 1
  00047	5e		 pop	 esi

; 98   : }

  00048	5d		 pop	 ebp
  00049	c2 08 00	 ret	 8
$LN3@InvokeAddI:

; 91   : 	if( p_nCommandType != 1005 || !m_pMainIndicatorCFG) return FALSE;

  0004c	33 c0		 xor	 eax, eax
  0004e	5e		 pop	 esi

; 98   : }

  0004f	5d		 pop	 ebp
  00050	c2 08 00	 ret	 8
?InvokeAddIn@CChartEnvSetupDlgAddInImp@@MAEHHJ@Z ENDP	; CChartEnvSetupDlgAddInImp::InvokeAddIn
_TEXT	ENDS
; Function compile flags: /Ogtp
; File D:\git\src\IBK\IBK_DRFN\ProjSrc\SrcChartEx\ChartAddIn\ChartEnvSetupDlgAddIn\ChartEnvSetupDlgAddIn\ChartEnvSetupDlgAddInImp.cpp
;	COMDAT ?InvokeAddInStr@CChartEnvSetupDlgAddInImp@@MAEHPBD0@Z
_TEXT	SEGMENT
_p_szCommandName$ = 8					; size = 4
_p_szData$ = 12						; size = 4
?InvokeAddInStr@CChartEnvSetupDlgAddInImp@@MAEHPBD0@Z PROC ; CChartEnvSetupDlgAddInImp::InvokeAddInStr, COMDAT
; _this$ = ecx

; 77   : {

  00000	55		 push	 ebp
  00001	8b ec		 mov	 ebp, esp

; 78   : 	if( !p_szCommandName || !p_szData) return FALSE;

  00003	8b 45 08	 mov	 eax, DWORD PTR _p_szCommandName$[ebp]
  00006	56		 push	 esi
  00007	57		 push	 edi
  00008	8b f9		 mov	 edi, ecx
  0000a	85 c0		 test	 eax, eax
  0000c	74 4f		 je	 SHORT $LN3@InvokeAddI
  0000e	8b 75 0c	 mov	 esi, DWORD PTR _p_szData$[ebp]
  00011	85 f6		 test	 esi, esi
  00013	74 48		 je	 SHORT $LN3@InvokeAddI

; 79   : 
; 80   : 	if( !strcmp( p_szCommandName, "SHOW_MENU"))

  00015	b9 00 00 00 00	 mov	 ecx, OFFSET ??_C@_09HBGKILKL@SHOW_MENU@
  0001a	66 0f 1f 44 00
	00		 npad	 6
$LL6@InvokeAddI:
  00020	8a 10		 mov	 dl, BYTE PTR [eax]
  00022	3a 11		 cmp	 dl, BYTE PTR [ecx]
  00024	75 1a		 jne	 SHORT $LN7@InvokeAddI
  00026	84 d2		 test	 dl, dl
  00028	74 12		 je	 SHORT $LN8@InvokeAddI
  0002a	8a 50 01	 mov	 dl, BYTE PTR [eax+1]
  0002d	3a 51 01	 cmp	 dl, BYTE PTR [ecx+1]
  00030	75 0e		 jne	 SHORT $LN7@InvokeAddI
  00032	83 c0 02	 add	 eax, 2
  00035	83 c1 02	 add	 ecx, 2
  00038	84 d2		 test	 dl, dl
  0003a	75 e4		 jne	 SHORT $LL6@InvokeAddI
$LN8@InvokeAddI:
  0003c	33 c0		 xor	 eax, eax
  0003e	eb 05		 jmp	 SHORT $LN9@InvokeAddI
$LN7@InvokeAddI:
  00040	1b c0		 sbb	 eax, eax
  00042	83 c8 01	 or	 eax, 1
$LN9@InvokeAddI:
  00045	85 c0		 test	 eax, eax
  00047	75 14		 jne	 SHORT $LN3@InvokeAddI

; 81   : 	{
; 82   : 		m_bShowMenu = ( *p_szData != '0');

  00049	80 3e 30	 cmp	 BYTE PTR [esi], 48	; 00000030H
  0004c	0f 95 c0	 setne	 al
  0004f	89 47 28	 mov	 DWORD PTR [edi+40], eax

; 83   : 		return TRUE;

  00052	b8 01 00 00 00	 mov	 eax, 1
  00057	5f		 pop	 edi

; 84   : 	}
; 85   : 	return FALSE;
; 86   : }

  00058	5e		 pop	 esi
  00059	5d		 pop	 ebp
  0005a	c2 08 00	 ret	 8
$LN3@InvokeAddI:
  0005d	5f		 pop	 edi

; 78   : 	if( !p_szCommandName || !p_szData) return FALSE;

  0005e	33 c0		 xor	 eax, eax

; 84   : 	}
; 85   : 	return FALSE;
; 86   : }

  00060	5e		 pop	 esi
  00061	5d		 pop	 ebp
  00062	c2 08 00	 ret	 8
?InvokeAddInStr@CChartEnvSetupDlgAddInImp@@MAEHPBD0@Z ENDP ; CChartEnvSetupDlgAddInImp::InvokeAddInStr
_TEXT	ENDS
; Function compile flags: /Ogtp
; File D:\git\src\IBK\IBK_DRFN\ProjSrc\SrcChartEx\ChartAddIn\ChartEnvSetupDlgAddIn\ChartEnvSetupDlgAddIn\ChartEnvSetupDlgAddInImp.h
;	COMDAT ?GetRegisteredEventMap@CChartEnvSetupDlgAddInImp@@MBEPBW4EAddInEventType@IChartAddIn135914@@XZ
_TEXT	SEGMENT
?GetRegisteredEventMap@CChartEnvSetupDlgAddInImp@@MBEPBW4EAddInEventType@IChartAddIn135914@@XZ PROC ; CChartEnvSetupDlgAddInImp::GetRegisteredEventMap, COMDAT
; _this$ = ecx

; 63   : 	DECLARE_ADDIN_EVENT_MAP()

  00000	b8 00 00 00 00	 mov	 eax, OFFSET ?m_eRegisteredEventMap@CChartEnvSetupDlgAddInImp@@1QBW4EAddInEventType@IChartAddIn135914@@B ; CChartEnvSetupDlgAddInImp::m_eRegisteredEventMap
  00005	c3		 ret	 0
?GetRegisteredEventMap@CChartEnvSetupDlgAddInImp@@MBEPBW4EAddInEventType@IChartAddIn135914@@XZ ENDP ; CChartEnvSetupDlgAddInImp::GetRegisteredEventMap
_TEXT	ENDS
; Function compile flags: /Ogtp
; File D:\git\src\IBK\IBK_DRFN\ProjSrc\SrcChartEx\ChartAddIn\ChartEnvSetupDlgAddIn\ChartEnvSetupDlgAddIn\ChartEnvSetupDlgAddInImp.cpp
;	COMDAT ??1CChartEnvSetupDlgAddInImp@@UAE@XZ
_TEXT	SEGMENT
??1CChartEnvSetupDlgAddInImp@@UAE@XZ PROC		; CChartEnvSetupDlgAddInImp::~CChartEnvSetupDlgAddInImp, COMDAT
; _this$ = ecx

; 54   : {

  00000	c7 01 00 00 00
	00		 mov	 DWORD PTR [ecx], OFFSET ??_7CChartEnvSetupDlgAddInImp@@6BCIWUnknown@@@
  00006	c7 41 08 00 00
	00 00		 mov	 DWORD PTR [ecx+8], OFFSET ??_7CChartEnvSetupDlgAddInImp@@6BIChartAddIn135914@@@

; 55   : 
; 56   : }

  0000d	e9 00 00 00 00	 jmp	 ??1CChartAddInBase135914@@MAE@XZ ; CChartAddInBase135914::~CChartAddInBase135914
??1CChartEnvSetupDlgAddInImp@@UAE@XZ ENDP		; CChartEnvSetupDlgAddInImp::~CChartEnvSetupDlgAddInImp
_TEXT	ENDS
; Function compile flags: /Ogtp
; File D:\git\src\IBK\IBK_DRFN\ProjSrc\SrcChartEx\ChartAddIn\ChartEnvSetupDlgAddIn\ChartEnvSetupDlgAddIn\ChartEnvSetupDlgAddInImp.cpp
;	COMDAT ??0CChartEnvSetupDlgAddInImp@@QAE@PAUIChartOCX135914@@PAUIAddInDllBase@@@Z
_TEXT	SEGMENT
_this$GSCopy$ = -172					; size = 4
_this$ = -168						; size = 4
_osVersionInfo$ = -164					; size = 148
__$ArrayPad$ = -16					; size = 4
__$EHRec$ = -12						; size = 12
_p_pIChartOCX$ = 8					; size = 4
_p_pIAddInDllBase$ = 12					; size = 4
??0CChartEnvSetupDlgAddInImp@@QAE@PAUIChartOCX135914@@PAUIAddInDllBase@@@Z PROC ; CChartEnvSetupDlgAddInImp::CChartEnvSetupDlgAddInImp, COMDAT
; _this$ = ecx

; 29   : {

  00000	55		 push	 ebp
  00001	8b ec		 mov	 ebp, esp
  00003	6a ff		 push	 -1
  00005	68 00 00 00 00	 push	 __ehhandler$??0CChartEnvSetupDlgAddInImp@@QAE@PAUIChartOCX135914@@PAUIAddInDllBase@@@Z
  0000a	64 a1 00 00 00
	00		 mov	 eax, DWORD PTR fs:0
  00010	50		 push	 eax
  00011	81 ec a0 00 00
	00		 sub	 esp, 160		; 000000a0H
  00017	a1 00 00 00 00	 mov	 eax, DWORD PTR ___security_cookie
  0001c	33 c5		 xor	 eax, ebp
  0001e	89 45 f0	 mov	 DWORD PTR __$ArrayPad$[ebp], eax
  00021	56		 push	 esi
  00022	57		 push	 edi
  00023	50		 push	 eax
  00024	8d 45 f4	 lea	 eax, DWORD PTR __$EHRec$[ebp]
  00027	64 a3 00 00 00
	00		 mov	 DWORD PTR fs:0, eax
  0002d	8b f1		 mov	 esi, ecx
  0002f	89 b5 58 ff ff
	ff		 mov	 DWORD PTR _this$[ebp], esi
  00035	8b 45 0c	 mov	 eax, DWORD PTR _p_pIAddInDllBase$[ebp]
  00038	8b 7d 08	 mov	 edi, DWORD PTR _p_pIChartOCX$[ebp]
  0003b	50		 push	 eax
  0003c	57		 push	 edi
  0003d	89 b5 54 ff ff
	ff		 mov	 DWORD PTR _this$GSCopy$[ebp], esi
  00043	e8 00 00 00 00	 call	 ??0CChartAddInBase135914@@IAE@PAUIChartOCX135914@@PAUIAddInDllBase@@@Z ; CChartAddInBase135914::CChartAddInBase135914
  00048	c7 45 fc 00 00
	00 00		 mov	 DWORD PTR __$EHRec$[ebp+8], 0
  0004f	c7 06 00 00 00
	00		 mov	 DWORD PTR [esi], OFFSET ??_7CChartEnvSetupDlgAddInImp@@6BCIWUnknown@@@
  00055	c7 46 08 00 00
	00 00		 mov	 DWORD PTR [esi+8], OFFSET ??_7CChartEnvSetupDlgAddInImp@@6BIChartAddIn135914@@@

; 30   : // 2008.01.25 by LYH >>
; 31   : 	m_hOcxWnd = NULL;

  0005c	c7 46 40 00 00
	00 00		 mov	 DWORD PTR [esi+64], 0

; 32   : 	if( p_pIChartOCX) m_hOcxWnd = p_pIChartOCX->GetOcxHwnd();

  00063	85 ff		 test	 edi, edi
  00065	74 0a		 je	 SHORT $LN2@CChartEnvS
  00067	8b 07		 mov	 eax, DWORD PTR [edi]
  00069	8b cf		 mov	 ecx, edi
  0006b	ff 50 40	 call	 DWORD PTR [eax+64]
  0006e	89 46 40	 mov	 DWORD PTR [esi+64], eax
$LN2@CChartEnvS:

; 33   : // 2008.01.25 by LYH <<
; 34   : 
; 35   : 	m_bEnableWithDefaultInfo = FALSE;
; 36   : 
; 37   : 	// (2007/1/19 - Seung-Won, Bae) Check OS Version. (for excepting Win98)
; 38   : 	OSVERSIONINFO osVersionInfo;
; 39   : 	m_bWin98 = FALSE;
; 40   : 	osVersionInfo.dwOSVersionInfoSize = sizeof( OSVERSIONINFO);
; 41   : 	if( GetVersionEx( &osVersionInfo)) m_bWin98 = ( osVersionInfo.dwPlatformId != VER_PLATFORM_WIN32_NT);

  00071	8d 85 5c ff ff
	ff		 lea	 eax, DWORD PTR _osVersionInfo$[ebp]
  00077	c7 46 38 00 00
	00 00		 mov	 DWORD PTR [esi+56], 0
  0007e	50		 push	 eax
  0007f	c7 46 3c 00 00
	00 00		 mov	 DWORD PTR [esi+60], 0
  00086	c7 85 5c ff ff
	ff 94 00 00 00	 mov	 DWORD PTR _osVersionInfo$[ebp], 148 ; 00000094H
  00090	ff 15 00 00 00
	00		 call	 DWORD PTR __imp__GetVersionExA@4
  00096	85 c0		 test	 eax, eax
  00098	74 0f		 je	 SHORT $LN3@CChartEnvS
  0009a	33 c0		 xor	 eax, eax
  0009c	83 bd 6c ff ff
	ff 02		 cmp	 DWORD PTR _osVersionInfo$[ebp+16], 2
  000a3	0f 95 c0	 setne	 al
  000a6	89 46 3c	 mov	 DWORD PTR [esi+60], eax
$LN3@CChartEnvS:

; 42   : 
; 43   : 	// (2007/1/20 - Seung-Won, Bae) Support Multiple Same-Name Indicator.
; 44   : 	m_pIChartOCX->SetMultipleSameNameIndicator( TRUE);

  000a9	8b 4e 0c	 mov	 ecx, DWORD PTR [esi+12]
  000ac	6a 01		 push	 1
  000ae	8b 11		 mov	 edx, DWORD PTR [ecx]
  000b0	ff 92 cc 00 00
	00		 call	 DWORD PTR [edx+204]

; 45   : 
; 46   : 	// (2007/1/23 - Seung-Won, Bae) Main Indicator CFG Dialog for Deleting State Update.
; 47   : 	m_pMainIndicatorCFG = NULL;

  000b6	c7 46 34 00 00
	00 00		 mov	 DWORD PTR [esi+52], 0

; 48   : 	
; 49   : 	// (2007/10/31 - Seung-Won, Bae) for Hide Menu
; 50   : 	m_bShowMenu = TRUE;
; 51   : }

  000bd	8b c6		 mov	 eax, esi
  000bf	c7 46 30 01 00
	00 00		 mov	 DWORD PTR [esi+48], 1
  000c6	8b 4d f4	 mov	 ecx, DWORD PTR __$EHRec$[ebp]
  000c9	64 89 0d 00 00
	00 00		 mov	 DWORD PTR fs:0, ecx
  000d0	59		 pop	 ecx
  000d1	5f		 pop	 edi
  000d2	5e		 pop	 esi
  000d3	8b 4d f0	 mov	 ecx, DWORD PTR __$ArrayPad$[ebp]
  000d6	33 cd		 xor	 ecx, ebp
  000d8	e8 00 00 00 00	 call	 @__security_check_cookie@4
  000dd	8b e5		 mov	 esp, ebp
  000df	5d		 pop	 ebp
  000e0	c2 08 00	 ret	 8
_TEXT	ENDS
;	COMDAT text$x
text$x	SEGMENT
__unwindfunclet$??0CChartEnvSetupDlgAddInImp@@QAE@PAUIChartOCX135914@@PAUIAddInDllBase@@@Z$0:
  00000	8b 8d 54 ff ff
	ff		 mov	 ecx, DWORD PTR _this$GSCopy$[ebp]
  00006	e9 00 00 00 00	 jmp	 ??1CChartAddInBase135914@@MAE@XZ ; CChartAddInBase135914::~CChartAddInBase135914
  0000b	cc		 int	 3
  0000c	cc		 int	 3
  0000d	cc		 int	 3
  0000e	cc		 int	 3
  0000f	cc		 int	 3
__ehhandler$??0CChartEnvSetupDlgAddInImp@@QAE@PAUIChartOCX135914@@PAUIAddInDllBase@@@Z:
  00010	90		 npad	 1
  00011	90		 npad	 1
  00012	8b 54 24 08	 mov	 edx, DWORD PTR [esp+8]
  00016	8d 42 0c	 lea	 eax, DWORD PTR [edx+12]
  00019	8b 8a 54 ff ff
	ff		 mov	 ecx, DWORD PTR [edx-172]
  0001f	33 c8		 xor	 ecx, eax
  00021	e8 00 00 00 00	 call	 @__security_check_cookie@4
  00026	8b 4a fc	 mov	 ecx, DWORD PTR [edx-4]
  00029	33 c8		 xor	 ecx, eax
  0002b	e8 00 00 00 00	 call	 @__security_check_cookie@4
  00030	b8 00 00 00 00	 mov	 eax, OFFSET __ehfuncinfo$??0CChartEnvSetupDlgAddInImp@@QAE@PAUIChartOCX135914@@PAUIAddInDllBase@@@Z
  00035	e9 00 00 00 00	 jmp	 ___CxxFrameHandler3
text$x	ENDS
??0CChartEnvSetupDlgAddInImp@@QAE@PAUIChartOCX135914@@PAUIAddInDllBase@@@Z ENDP ; CChartEnvSetupDlgAddInImp::CChartEnvSetupDlgAddInImp
; Function compile flags: /Ogtp
; File D:\git\src\IBK\IBK_DRFN\ProjSrc\SrcChartEx\ChartAddIn\ChartEnvSetupDlgAddIn\Include_AddIn_135914\I135914\_IString.h
;	COMDAT ??1ILPCSTR135914@@QAE@XZ
_TEXT	SEGMENT
__$EHRec$ = -12						; size = 12
??1ILPCSTR135914@@QAE@XZ PROC				; ILPCSTR135914::~ILPCSTR135914, COMDAT
; _this$ = ecx

; 44   : 	{

  00000	55		 push	 ebp
  00001	8b ec		 mov	 ebp, esp
  00003	6a ff		 push	 -1
  00005	68 00 00 00 00	 push	 __ehhandler$??1ILPCSTR135914@@QAE@XZ
  0000a	64 a1 00 00 00
	00		 mov	 eax, DWORD PTR fs:0
  00010	50		 push	 eax
  00011	56		 push	 esi
  00012	a1 00 00 00 00	 mov	 eax, DWORD PTR ___security_cookie
  00017	33 c5		 xor	 eax, ebp
  00019	50		 push	 eax
  0001a	8d 45 f4	 lea	 eax, DWORD PTR __$EHRec$[ebp]
  0001d	64 a3 00 00 00
	00		 mov	 DWORD PTR fs:0, eax
  00023	8b f1		 mov	 esi, ecx

; 45   : 		if( m_pIStrData)

  00025	8b 4e 04	 mov	 ecx, DWORD PTR [esi+4]
  00028	85 c9		 test	 ecx, ecx
  0002a	74 13		 je	 SHORT $LN2@ILPCSTR135

; 46   : 		{
; 47   : 			m_pIStrData->Release();

  0002c	8b 01		 mov	 eax, DWORD PTR [ecx]
  0002e	51		 push	 ecx
  0002f	ff 50 08	 call	 DWORD PTR [eax+8]

; 48   : 			m_pIStrData = NULL;

  00032	c7 46 04 00 00
	00 00		 mov	 DWORD PTR [esi+4], 0

; 49   : 			m_szData = NULL;

  00039	c7 06 00 00 00
	00		 mov	 DWORD PTR [esi], 0
$LN2@ILPCSTR135:

; 50   : 		}
; 51   : 	}

  0003f	8b 4d f4	 mov	 ecx, DWORD PTR __$EHRec$[ebp]
  00042	64 89 0d 00 00
	00 00		 mov	 DWORD PTR fs:0, ecx
  00049	59		 pop	 ecx
  0004a	5e		 pop	 esi
  0004b	8b e5		 mov	 esp, ebp
  0004d	5d		 pop	 ebp
  0004e	c3		 ret	 0
  0004f	cc		 int	 3
  00050	cc		 int	 3
  00051	cc		 int	 3
  00052	cc		 int	 3
  00053	cc		 int	 3
_TEXT	ENDS
;	COMDAT text$x
text$x	SEGMENT
__ehhandler$??1ILPCSTR135914@@QAE@XZ:
  00000	90		 npad	 1
  00001	90		 npad	 1
  00002	8b 54 24 08	 mov	 edx, DWORD PTR [esp+8]
  00006	8d 42 0c	 lea	 eax, DWORD PTR [edx+12]
  00009	8b 4a f8	 mov	 ecx, DWORD PTR [edx-8]
  0000c	33 c8		 xor	 ecx, eax
  0000e	e8 00 00 00 00	 call	 @__security_check_cookie@4
  00013	b8 00 00 00 00	 mov	 eax, OFFSET __ehfuncinfo$??1ILPCSTR135914@@QAE@XZ
  00018	e9 00 00 00 00	 jmp	 ___CxxFrameHandler3
text$x	ENDS
??1ILPCSTR135914@@QAE@XZ ENDP				; ILPCSTR135914::~ILPCSTR135914
; Function compile flags: /Ogtp
; File D:\git\src\IBK\IBK_DRFN\ProjSrc\SrcChartEx\ChartAddIn\ChartEnvSetupDlgAddIn\Include_AddIn_135914\I135914\_ChartAddInBase.h
;	COMDAT ?OnRButtonDblClk@CChartAddInBase135914@@MAEHPAUHDC__@@IAAUtagPOINT@@K@Z
_TEXT	SEGMENT
_p_hDC$ = 8						; size = 4
_nFlags$ = 12						; size = 4
_point$ = 16						; size = 4
_p_dwMouseActionID$ = 20				; size = 4
?OnRButtonDblClk@CChartAddInBase135914@@MAEHPAUHDC__@@IAAUtagPOINT@@K@Z PROC ; CChartAddInBase135914::OnRButtonDblClk, COMDAT
; _this$ = ecx

; 158  : 	virtual BOOL	OnRButtonDblClk(	HDC p_hDC, UINT nFlags, POINT &point, const DWORD p_dwMouseActionID)									{	return FALSE;	}

  00000	33 c0		 xor	 eax, eax
  00002	c2 10 00	 ret	 16			; 00000010H
?OnRButtonDblClk@CChartAddInBase135914@@MAEHPAUHDC__@@IAAUtagPOINT@@K@Z ENDP ; CChartAddInBase135914::OnRButtonDblClk
_TEXT	ENDS
; Function compile flags: /Ogtp
; File D:\git\src\IBK\IBK_DRFN\ProjSrc\SrcChartEx\ChartAddIn\ChartEnvSetupDlgAddIn\Include_AddIn_135914\I135914\_ChartAddInBase.h
;	COMDAT ?OnRButtonUp@CChartAddInBase135914@@MAEHPAUHDC__@@IAAUtagPOINT@@K@Z
_TEXT	SEGMENT
_p_hDC$ = 8						; size = 4
_nFlags$ = 12						; size = 4
_point$ = 16						; size = 4
_p_dwMouseActionID$ = 20				; size = 4
?OnRButtonUp@CChartAddInBase135914@@MAEHPAUHDC__@@IAAUtagPOINT@@K@Z PROC ; CChartAddInBase135914::OnRButtonUp, COMDAT
; _this$ = ecx

; 157  : 	virtual BOOL	OnRButtonUp(		HDC p_hDC, UINT nFlags, POINT &point, const DWORD p_dwMouseActionID)									{	return FALSE;	}

  00000	33 c0		 xor	 eax, eax
  00002	c2 10 00	 ret	 16			; 00000010H
?OnRButtonUp@CChartAddInBase135914@@MAEHPAUHDC__@@IAAUtagPOINT@@K@Z ENDP ; CChartAddInBase135914::OnRButtonUp
_TEXT	ENDS
; Function compile flags: /Ogtp
; File D:\git\src\IBK\IBK_DRFN\ProjSrc\SrcChartEx\ChartAddIn\ChartEnvSetupDlgAddIn\Include_AddIn_135914\I135914\_ChartAddInBase.h
;	COMDAT ?OnRButtonDown@CChartAddInBase135914@@MAEHPAUHDC__@@IAAUtagPOINT@@K@Z
_TEXT	SEGMENT
_p_hDC$ = 8						; size = 4
_nFlags$ = 12						; size = 4
_point$ = 16						; size = 4
_p_dwMouseActionID$ = 20				; size = 4
?OnRButtonDown@CChartAddInBase135914@@MAEHPAUHDC__@@IAAUtagPOINT@@K@Z PROC ; CChartAddInBase135914::OnRButtonDown, COMDAT
; _this$ = ecx

; 156  : 	virtual BOOL	OnRButtonDown(		HDC p_hDC, UINT nFlags, POINT &point, const DWORD p_dwMouseActionID)									{	return FALSE;	}

  00000	33 c0		 xor	 eax, eax
  00002	c2 10 00	 ret	 16			; 00000010H
?OnRButtonDown@CChartAddInBase135914@@MAEHPAUHDC__@@IAAUtagPOINT@@K@Z ENDP ; CChartAddInBase135914::OnRButtonDown
_TEXT	ENDS
; Function compile flags: /Ogtp
; File D:\git\src\IBK\IBK_DRFN\ProjSrc\SrcChartEx\ChartAddIn\ChartEnvSetupDlgAddIn\Include_AddIn_135914\I135914\_ChartAddInBase.h
;	COMDAT ?OnLButtonDblClk@CChartAddInBase135914@@MAEHPAUHDC__@@IAAUtagPOINT@@K@Z
_TEXT	SEGMENT
_p_hDC$ = 8						; size = 4
_nFlags$ = 12						; size = 4
_point$ = 16						; size = 4
_p_dwMouseActionID$ = 20				; size = 4
?OnLButtonDblClk@CChartAddInBase135914@@MAEHPAUHDC__@@IAAUtagPOINT@@K@Z PROC ; CChartAddInBase135914::OnLButtonDblClk, COMDAT
; _this$ = ecx

; 155  : 	virtual BOOL	OnLButtonDblClk(	HDC p_hDC, UINT nFlags, POINT &point, const DWORD p_dwMouseActionID)									{	return FALSE;	}

  00000	33 c0		 xor	 eax, eax
  00002	c2 10 00	 ret	 16			; 00000010H
?OnLButtonDblClk@CChartAddInBase135914@@MAEHPAUHDC__@@IAAUtagPOINT@@K@Z ENDP ; CChartAddInBase135914::OnLButtonDblClk
_TEXT	ENDS
; Function compile flags: /Ogtp
; File D:\git\src\IBK\IBK_DRFN\ProjSrc\SrcChartEx\ChartAddIn\ChartEnvSetupDlgAddIn\Include_AddIn_135914\I135914\_ChartAddInBase.h
;	COMDAT ?OnLButtonUp@CChartAddInBase135914@@MAEHPAUHDC__@@IAAUtagPOINT@@K@Z
_TEXT	SEGMENT
_p_hDC$ = 8						; size = 4
_nFlags$ = 12						; size = 4
_point$ = 16						; size = 4
_p_dwMouseActionID$ = 20				; size = 4
?OnLButtonUp@CChartAddInBase135914@@MAEHPAUHDC__@@IAAUtagPOINT@@K@Z PROC ; CChartAddInBase135914::OnLButtonUp, COMDAT
; _this$ = ecx

; 154  : 	virtual BOOL	OnLButtonUp(		HDC p_hDC, UINT nFlags, POINT &point, const DWORD p_dwMouseActionID)									{	return FALSE;	}

  00000	33 c0		 xor	 eax, eax
  00002	c2 10 00	 ret	 16			; 00000010H
?OnLButtonUp@CChartAddInBase135914@@MAEHPAUHDC__@@IAAUtagPOINT@@K@Z ENDP ; CChartAddInBase135914::OnLButtonUp
_TEXT	ENDS
; Function compile flags: /Ogtp
; File D:\git\src\IBK\IBK_DRFN\ProjSrc\SrcChartEx\ChartAddIn\ChartEnvSetupDlgAddIn\Include_AddIn_135914\I135914\_ChartAddInBase.h
;	COMDAT ?OnLButtonDown@CChartAddInBase135914@@MAEHPAUHDC__@@IAAUtagPOINT@@K@Z
_TEXT	SEGMENT
_p_hDC$ = 8						; size = 4
_nFlags$ = 12						; size = 4
_point$ = 16						; size = 4
_p_dwMouseActionID$ = 20				; size = 4
?OnLButtonDown@CChartAddInBase135914@@MAEHPAUHDC__@@IAAUtagPOINT@@K@Z PROC ; CChartAddInBase135914::OnLButtonDown, COMDAT
; _this$ = ecx

; 153  : 	virtual BOOL	OnLButtonDown(		HDC p_hDC, UINT nFlags, POINT &point, const DWORD p_dwMouseActionID)									{	return FALSE;	}

  00000	33 c0		 xor	 eax, eax
  00002	c2 10 00	 ret	 16			; 00000010H
?OnLButtonDown@CChartAddInBase135914@@MAEHPAUHDC__@@IAAUtagPOINT@@K@Z ENDP ; CChartAddInBase135914::OnLButtonDown
_TEXT	ENDS
; Function compile flags: /Ogtp
; File D:\git\src\IBK\IBK_DRFN\ProjSrc\SrcChartEx\ChartAddIn\ChartEnvSetupDlgAddIn\Include_AddIn_135914\I135914\_ChartAddInBase.h
;	COMDAT ?OnMouseMove@CChartAddInBase135914@@MAEHPAUHDC__@@IAAUtagPOINT@@K@Z
_TEXT	SEGMENT
_p_hDC$ = 8						; size = 4
_nFlags$ = 12						; size = 4
_point$ = 16						; size = 4
_p_dwMouseActionID$ = 20				; size = 4
?OnMouseMove@CChartAddInBase135914@@MAEHPAUHDC__@@IAAUtagPOINT@@K@Z PROC ; CChartAddInBase135914::OnMouseMove, COMDAT
; _this$ = ecx

; 152  : 	virtual BOOL	OnMouseMove(		HDC p_hDC, UINT nFlags, POINT &point, const DWORD p_dwMouseActionID)									{	return FALSE;	}

  00000	33 c0		 xor	 eax, eax
  00002	c2 10 00	 ret	 16			; 00000010H
?OnMouseMove@CChartAddInBase135914@@MAEHPAUHDC__@@IAAUtagPOINT@@K@Z ENDP ; CChartAddInBase135914::OnMouseMove
_TEXT	ENDS
; Function compile flags: /Ogtp
; File D:\git\src\IBK\IBK_DRFN\ProjSrc\SrcChartEx\ChartAddIn\ChartEnvSetupDlgAddIn\Include_AddIn_135914\I135914\_ChartAddInBase.h
;	COMDAT ?OnMouseWheel@CChartAddInBase135914@@MAEHIFUtagPOINT@@K@Z
_TEXT	SEGMENT
_nFlags$ = 8						; size = 4
_zDelta$ = 12						; size = 2
_pt$ = 16						; size = 8
_p_dwMouseActionID$ = 24				; size = 4
?OnMouseWheel@CChartAddInBase135914@@MAEHIFUtagPOINT@@K@Z PROC ; CChartAddInBase135914::OnMouseWheel, COMDAT
; _this$ = ecx

; 151  : 	virtual BOOL	OnMouseWheel(		UINT nFlags, short zDelta, POINT pt, const DWORD p_dwMouseActionID)										{	return FALSE;	}

  00000	33 c0		 xor	 eax, eax
  00002	c2 14 00	 ret	 20			; 00000014H
?OnMouseWheel@CChartAddInBase135914@@MAEHIFUtagPOINT@@K@Z ENDP ; CChartAddInBase135914::OnMouseWheel
_TEXT	ENDS
; Function compile flags: /Ogtp
; File D:\git\src\IBK\IBK_DRFN\ProjSrc\SrcChartEx\ChartAddIn\ChartEnvSetupDlgAddIn\Include_AddIn_135914\I135914\_ChartAddInBase.h
;	COMDAT ?OnKeyUp@CChartAddInBase135914@@MAEHIII@Z
_TEXT	SEGMENT
_nChar$ = 8						; size = 4
_nRepCnt$ = 12						; size = 4
_nFlags$ = 16						; size = 4
?OnKeyUp@CChartAddInBase135914@@MAEHIII@Z PROC		; CChartAddInBase135914::OnKeyUp, COMDAT
; _this$ = ecx

; 150  : 	virtual BOOL	OnKeyUp(			UINT nChar, UINT nRepCnt, UINT nFlags)																	{	return FALSE;	}

  00000	33 c0		 xor	 eax, eax
  00002	c2 0c 00	 ret	 12			; 0000000cH
?OnKeyUp@CChartAddInBase135914@@MAEHIII@Z ENDP		; CChartAddInBase135914::OnKeyUp
_TEXT	ENDS
; Function compile flags: /Ogtp
; File D:\git\src\IBK\IBK_DRFN\ProjSrc\SrcChartEx\ChartAddIn\ChartEnvSetupDlgAddIn\Include_AddIn_135914\I135914\_ChartAddInBase.h
;	COMDAT ?OnKeyDown@CChartAddInBase135914@@MAEHIII@Z
_TEXT	SEGMENT
_nChar$ = 8						; size = 4
_nRepCnt$ = 12						; size = 4
_nFlags$ = 16						; size = 4
?OnKeyDown@CChartAddInBase135914@@MAEHIII@Z PROC	; CChartAddInBase135914::OnKeyDown, COMDAT
; _this$ = ecx

; 149  : 	virtual BOOL	OnKeyDown(			UINT nChar, UINT nRepCnt, UINT nFlags)																	{	return FALSE;	}

  00000	33 c0		 xor	 eax, eax
  00002	c2 0c 00	 ret	 12			; 0000000cH
?OnKeyDown@CChartAddInBase135914@@MAEHIII@Z ENDP	; CChartAddInBase135914::OnKeyDown
_TEXT	ENDS
; Function compile flags: /Ogtp
; File D:\git\src\IBK\IBK_DRFN\ProjSrc\SrcChartEx\ChartAddIn\ChartEnvSetupDlgAddIn\Include_AddIn_135914\I135914\_ChartAddInBase.h
;	COMDAT ?OnAddInToolCommand@CChartAddInBase135914@@MAEHAAJW4EAICommandType@@JJ@Z
_TEXT	SEGMENT
_p_lResult$ = 8						; size = 4
_p_eCommandID$ = 12					; size = 4
_p_lParam1$ = 16					; size = 4
_p_lParam2$ = 20					; size = 4
?OnAddInToolCommand@CChartAddInBase135914@@MAEHAAJW4EAICommandType@@JJ@Z PROC ; CChartAddInBase135914::OnAddInToolCommand, COMDAT
; _this$ = ecx

; 147  : 	virtual BOOL	OnAddInToolCommand(	long &p_lResult, const EAICommandType p_eCommandID, const long p_lParam1, const long p_lParam2)			{	return FALSE;	}

  00000	33 c0		 xor	 eax, eax
  00002	c2 10 00	 ret	 16			; 00000010H
?OnAddInToolCommand@CChartAddInBase135914@@MAEHAAJW4EAICommandType@@JJ@Z ENDP ; CChartAddInBase135914::OnAddInToolCommand
_TEXT	ENDS
; Function compile flags: /Ogtp
; File D:\git\src\IBK\IBK_DRFN\ProjSrc\SrcChartEx\ChartAddIn\ChartEnvSetupDlgAddIn\Include_AddIn_135914\I135914\_ChartAddInBase.h
;	COMDAT ?OnAddInToolCommand@CChartAddInBase135914@@MAEHAAJW4EAICommandType@@J@Z
_TEXT	SEGMENT
_p_lResult$ = 8						; size = 4
_p_eCommandID$ = 12					; size = 4
_p_lParam$ = 16						; size = 4
?OnAddInToolCommand@CChartAddInBase135914@@MAEHAAJW4EAICommandType@@J@Z PROC ; CChartAddInBase135914::OnAddInToolCommand, COMDAT
; _this$ = ecx

; 146  : 	virtual BOOL	OnAddInToolCommand(	long &p_lResult, const EAICommandType p_eCommandID, const long p_lParam)								{	return FALSE;	}

  00000	33 c0		 xor	 eax, eax
  00002	c2 0c 00	 ret	 12			; 0000000cH
?OnAddInToolCommand@CChartAddInBase135914@@MAEHAAJW4EAICommandType@@J@Z ENDP ; CChartAddInBase135914::OnAddInToolCommand
_TEXT	ENDS
; Function compile flags: /Ogtp
; File D:\git\src\IBK\IBK_DRFN\ProjSrc\SrcChartEx\ChartAddIn\ChartEnvSetupDlgAddIn\Include_AddIn_135914\I135914\_ChartAddInBase.h
;	COMDAT ?OnAddInToolCommand@CChartAddInBase135914@@MAEHAAJW4EAICommandType@@PBDPAVCObject@@@Z
_TEXT	SEGMENT
_p_lResult$ = 8						; size = 4
_p_eCommandID$ = 12					; size = 4
_p_szParam$ = 16					; size = 4
_p_pParam$ = 20						; size = 4
?OnAddInToolCommand@CChartAddInBase135914@@MAEHAAJW4EAICommandType@@PBDPAVCObject@@@Z PROC ; CChartAddInBase135914::OnAddInToolCommand, COMDAT
; _this$ = ecx

; 145  : 	virtual BOOL	OnAddInToolCommand(	long &p_lResult, const EAICommandType p_eCommandID, const char *p_szParam, CObject *p_pParam)			{	return FALSE;	}

  00000	33 c0		 xor	 eax, eax
  00002	c2 10 00	 ret	 16			; 00000010H
?OnAddInToolCommand@CChartAddInBase135914@@MAEHAAJW4EAICommandType@@PBDPAVCObject@@@Z ENDP ; CChartAddInBase135914::OnAddInToolCommand
_TEXT	ENDS
; Function compile flags: /Ogtp
; File D:\git\src\IBK\IBK_DRFN\ProjSrc\SrcChartEx\ChartAddIn\ChartEnvSetupDlgAddIn\Include_AddIn_135914\I135914\_ChartAddInBase.h
;	COMDAT ?OnAddInToolCommand@CChartAddInBase135914@@MAEHAAJW4EAICommandType@@PBD@Z
_TEXT	SEGMENT
_p_lResult$ = 8						; size = 4
_p_eCommandID$ = 12					; size = 4
_p_szParam$ = 16					; size = 4
?OnAddInToolCommand@CChartAddInBase135914@@MAEHAAJW4EAICommandType@@PBD@Z PROC ; CChartAddInBase135914::OnAddInToolCommand, COMDAT
; _this$ = ecx

; 144  : 	virtual BOOL	OnAddInToolCommand(	long &p_lResult, const EAICommandType p_eCommandID, const char *p_szParam)								{	return FALSE;	}

  00000	33 c0		 xor	 eax, eax
  00002	c2 0c 00	 ret	 12			; 0000000cH
?OnAddInToolCommand@CChartAddInBase135914@@MAEHAAJW4EAICommandType@@PBD@Z ENDP ; CChartAddInBase135914::OnAddInToolCommand
_TEXT	ENDS
; Function compile flags: /Ogtp
; File D:\git\src\IBK\IBK_DRFN\ProjSrc\SrcChartEx\ChartAddIn\ChartEnvSetupDlgAddIn\Include_AddIn_135914\I135914\_ChartAddInBase.h
;	COMDAT ?OnAddInToolCommand@CChartAddInBase135914@@MAEHAAJW4EAICommandType@@@Z
_TEXT	SEGMENT
_p_lResult$ = 8						; size = 4
_p_eCommandID$ = 12					; size = 4
?OnAddInToolCommand@CChartAddInBase135914@@MAEHAAJW4EAICommandType@@@Z PROC ; CChartAddInBase135914::OnAddInToolCommand, COMDAT
; _this$ = ecx

; 142  : 	virtual BOOL	OnAddInToolCommand(	long &p_lResult, const EAICommandType p_eCommandID)														{	return FALSE;	}

  00000	33 c0		 xor	 eax, eax
  00002	c2 08 00	 ret	 8
?OnAddInToolCommand@CChartAddInBase135914@@MAEHAAJW4EAICommandType@@@Z ENDP ; CChartAddInBase135914::OnAddInToolCommand
_TEXT	ENDS
; Function compile flags: /Ogtp
; File D:\git\src\IBK\IBK_DRFN\ProjSrc\SrcChartEx\ChartAddIn\ChartEnvSetupDlgAddIn\Include_AddIn_135914\I135914\_ChartAddInBase.h
;	COMDAT ?OnAddInToolCommand@CChartAddInBase135914@@MAEHW4EAICommandType@@PAUHWND__@@AAUtagPOINT@@@Z
_TEXT	SEGMENT
_p_eCommandID$ = 8					; size = 4
_p_hWnd$ = 12						; size = 4
_point$ = 16						; size = 4
?OnAddInToolCommand@CChartAddInBase135914@@MAEHW4EAICommandType@@PAUHWND__@@AAUtagPOINT@@@Z PROC ; CChartAddInBase135914::OnAddInToolCommand, COMDAT
; _this$ = ecx

; 141  : 	virtual BOOL	OnAddInToolCommand(	const EAICommandType p_eCommandID, HWND p_hWnd, POINT &point)											{	return FALSE;	}

  00000	33 c0		 xor	 eax, eax
  00002	c2 0c 00	 ret	 12			; 0000000cH
?OnAddInToolCommand@CChartAddInBase135914@@MAEHW4EAICommandType@@PAUHWND__@@AAUtagPOINT@@@Z ENDP ; CChartAddInBase135914::OnAddInToolCommand
_TEXT	ENDS
; Function compile flags: /Ogtp
; File D:\git\src\IBK\IBK_DRFN\ProjSrc\SrcChartEx\ChartAddIn\ChartEnvSetupDlgAddIn\Include_AddIn_135914\I135914\_ChartAddInBase.h
;	COMDAT ?OnAddInToolCommand@CChartAddInBase135914@@MAEHW4EAICommandType@@JJJJJJJJJ@Z
_TEXT	SEGMENT
_p_eCommandID$ = 8					; size = 4
_p_lParam1$ = 12					; size = 4
_p_lParam2$ = 16					; size = 4
_p_lParam3$ = 20					; size = 4
_p_lParam4$ = 24					; size = 4
_p_lParam5$ = 28					; size = 4
_p_lParam6$ = 32					; size = 4
_p_lParam7$ = 36					; size = 4
_p_lParam8$ = 40					; size = 4
_p_lParam9$ = 44					; size = 4
?OnAddInToolCommand@CChartAddInBase135914@@MAEHW4EAICommandType@@JJJJJJJJJ@Z PROC ; CChartAddInBase135914::OnAddInToolCommand, COMDAT
; _this$ = ecx

; 140  : 	virtual BOOL	OnAddInToolCommand(	const EAICommandType p_eCommandID, const long p_lParam1, const long p_lParam2, const long p_lParam3, const long p_lParam4, const long p_lParam5, const long p_lParam6, const long p_lParam7, const long p_lParam8, const long p_lParam9)	{	return FALSE;	}

  00000	33 c0		 xor	 eax, eax
  00002	c2 28 00	 ret	 40			; 00000028H
?OnAddInToolCommand@CChartAddInBase135914@@MAEHW4EAICommandType@@JJJJJJJJJ@Z ENDP ; CChartAddInBase135914::OnAddInToolCommand
_TEXT	ENDS
; Function compile flags: /Ogtp
; File D:\git\src\IBK\IBK_DRFN\ProjSrc\SrcChartEx\ChartAddIn\ChartEnvSetupDlgAddIn\Include_AddIn_135914\I135914\_ChartAddInBase.h
;	COMDAT ?OnAddInToolCommand@CChartAddInBase135914@@MAEHW4EAICommandType@@JPBD11@Z
_TEXT	SEGMENT
_p_eCommandID$ = 8					; size = 4
_p_lParam$ = 12						; size = 4
_p_szParam1$ = 16					; size = 4
_p_szParam2$ = 20					; size = 4
_p_szParam3$ = 24					; size = 4
?OnAddInToolCommand@CChartAddInBase135914@@MAEHW4EAICommandType@@JPBD11@Z PROC ; CChartAddInBase135914::OnAddInToolCommand, COMDAT
; _this$ = ecx

; 138  : 	virtual BOOL	OnAddInToolCommand( const EAICommandType p_eCommandID, const long p_lParam, const char *p_szParam1, const char *p_szParam2, const char *p_szParam3)	{	return FALSE;	}

  00000	33 c0		 xor	 eax, eax
  00002	c2 14 00	 ret	 20			; 00000014H
?OnAddInToolCommand@CChartAddInBase135914@@MAEHW4EAICommandType@@JPBD11@Z ENDP ; CChartAddInBase135914::OnAddInToolCommand
_TEXT	ENDS
; Function compile flags: /Ogtp
; File D:\git\src\IBK\IBK_DRFN\ProjSrc\SrcChartEx\ChartAddIn\ChartEnvSetupDlgAddIn\Include_AddIn_135914\I135914\_ChartAddInBase.h
;	COMDAT ?OnAddInToolCommand@CChartAddInBase135914@@MAEHW4EAICommandType@@JPBD@Z
_TEXT	SEGMENT
_p_eCommandID$ = 8					; size = 4
_p_lParam$ = 12						; size = 4
_p_szParam$ = 16					; size = 4
?OnAddInToolCommand@CChartAddInBase135914@@MAEHW4EAICommandType@@JPBD@Z PROC ; CChartAddInBase135914::OnAddInToolCommand, COMDAT
; _this$ = ecx

; 137  : 	virtual BOOL	OnAddInToolCommand( const EAICommandType p_eCommandID, const long p_lParam, const char *p_szParam)							{	return FALSE;	}

  00000	33 c0		 xor	 eax, eax
  00002	c2 0c 00	 ret	 12			; 0000000cH
?OnAddInToolCommand@CChartAddInBase135914@@MAEHW4EAICommandType@@JPBD@Z ENDP ; CChartAddInBase135914::OnAddInToolCommand
_TEXT	ENDS
; Function compile flags: /Ogtp
; File D:\git\src\IBK\IBK_DRFN\ProjSrc\SrcChartEx\ChartAddIn\ChartEnvSetupDlgAddIn\Include_AddIn_135914\I135914\_ChartAddInBase.h
;	COMDAT ?OnAddInToolCommand@CChartAddInBase135914@@MAEHW4EAICommandType@@J@Z
_TEXT	SEGMENT
_p_eCommandID$ = 8					; size = 4
_p_lParam$ = 12						; size = 4
?OnAddInToolCommand@CChartAddInBase135914@@MAEHW4EAICommandType@@J@Z PROC ; CChartAddInBase135914::OnAddInToolCommand, COMDAT
; _this$ = ecx

; 136  : 	virtual BOOL	OnAddInToolCommand(	const EAICommandType p_eCommandID, const long p_lParam)													{	return FALSE;	}

  00000	33 c0		 xor	 eax, eax
  00002	c2 08 00	 ret	 8
?OnAddInToolCommand@CChartAddInBase135914@@MAEHW4EAICommandType@@J@Z ENDP ; CChartAddInBase135914::OnAddInToolCommand
_TEXT	ENDS
; Function compile flags: /Ogtp
; File D:\git\src\IBK\IBK_DRFN\ProjSrc\SrcChartEx\ChartAddIn\ChartEnvSetupDlgAddIn\Include_AddIn_135914\I135914\_ChartAddInBase.h
;	COMDAT ?OnAddInToolCommand@CChartAddInBase135914@@MAEHW4EAICommandType@@PBUIAddInDllBase@@@Z
_TEXT	SEGMENT
_p_eCommandID$ = 8					; size = 4
_p_pParam$ = 12						; size = 4
?OnAddInToolCommand@CChartAddInBase135914@@MAEHW4EAICommandType@@PBUIAddInDllBase@@@Z PROC ; CChartAddInBase135914::OnAddInToolCommand, COMDAT
; _this$ = ecx

; 135  : 	virtual BOOL	OnAddInToolCommand(	const EAICommandType p_eCommandID, const IAddInDllBase *p_pParam)										{	return FALSE;	}

  00000	33 c0		 xor	 eax, eax
  00002	c2 08 00	 ret	 8
?OnAddInToolCommand@CChartAddInBase135914@@MAEHW4EAICommandType@@PBUIAddInDllBase@@@Z ENDP ; CChartAddInBase135914::OnAddInToolCommand
_TEXT	ENDS
; Function compile flags: /Ogtp
; File D:\git\src\IBK\IBK_DRFN\ProjSrc\SrcChartEx\ChartAddIn\ChartEnvSetupDlgAddIn\Include_AddIn_135914\I135914\_ChartAddInBase.h
;	COMDAT ?OnAddInToolCommand@CChartAddInBase135914@@MAEHW4EAICommandType@@PBVCBlockBehaviorData@@@Z
_TEXT	SEGMENT
_p_eCommandID$ = 8					; size = 4
_p_pParam$ = 12						; size = 4
?OnAddInToolCommand@CChartAddInBase135914@@MAEHW4EAICommandType@@PBVCBlockBehaviorData@@@Z PROC ; CChartAddInBase135914::OnAddInToolCommand, COMDAT
; _this$ = ecx

; 134  : 	virtual BOOL	OnAddInToolCommand(	const EAICommandType p_eCommandID, const CBlockBehaviorData *p_pParam)									{	return FALSE;	}

  00000	33 c0		 xor	 eax, eax
  00002	c2 08 00	 ret	 8
?OnAddInToolCommand@CChartAddInBase135914@@MAEHW4EAICommandType@@PBVCBlockBehaviorData@@@Z ENDP ; CChartAddInBase135914::OnAddInToolCommand
_TEXT	ENDS
; Function compile flags: /Ogtp
; File D:\git\src\IBK\IBK_DRFN\ProjSrc\SrcChartEx\ChartAddIn\ChartEnvSetupDlgAddIn\Include_AddIn_135914\I135914\_ChartAddInBase.h
;	COMDAT ?OnAddInToolCommand@CChartAddInBase135914@@MAEHW4EAICommandType@@PBDJ@Z
_TEXT	SEGMENT
_p_eCommandID$ = 8					; size = 4
_p_szParam$ = 12					; size = 4
_p_lParam$ = 16						; size = 4
?OnAddInToolCommand@CChartAddInBase135914@@MAEHW4EAICommandType@@PBDJ@Z PROC ; CChartAddInBase135914::OnAddInToolCommand, COMDAT
; _this$ = ecx

; 133  : 	virtual BOOL	OnAddInToolCommand( const EAICommandType p_eCommandID, const char *p_szParam, const long p_lParam)							{	return FALSE;	}

  00000	33 c0		 xor	 eax, eax
  00002	c2 0c 00	 ret	 12			; 0000000cH
?OnAddInToolCommand@CChartAddInBase135914@@MAEHW4EAICommandType@@PBDJ@Z ENDP ; CChartAddInBase135914::OnAddInToolCommand
_TEXT	ENDS
; Function compile flags: /Ogtp
; File D:\git\src\IBK\IBK_DRFN\ProjSrc\SrcChartEx\ChartAddIn\ChartEnvSetupDlgAddIn\Include_AddIn_135914\I135914\_ChartAddInBase.h
;	COMDAT ?OnAddInToolCommand@CChartAddInBase135914@@MAEHW4EAICommandType@@PBD@Z
_TEXT	SEGMENT
_p_eCommandID$ = 8					; size = 4
_p_szParam$ = 12					; size = 4
?OnAddInToolCommand@CChartAddInBase135914@@MAEHW4EAICommandType@@PBD@Z PROC ; CChartAddInBase135914::OnAddInToolCommand, COMDAT
; _this$ = ecx

; 132  : 	virtual BOOL	OnAddInToolCommand(	const EAICommandType p_eCommandID, const char *p_szParam)												{	return FALSE;	}

  00000	33 c0		 xor	 eax, eax
  00002	c2 08 00	 ret	 8
?OnAddInToolCommand@CChartAddInBase135914@@MAEHW4EAICommandType@@PBD@Z ENDP ; CChartAddInBase135914::OnAddInToolCommand
_TEXT	ENDS
; Function compile flags: /Ogtp
; File D:\git\src\IBK\IBK_DRFN\ProjSrc\SrcChartEx\ChartAddIn\ChartEnvSetupDlgAddIn\Include_AddIn_135914\I135914\_ChartAddInBase.h
;	COMDAT ?OnAddInToolCommand@CChartAddInBase135914@@MAEHW4EAICommandType@@PAUHDC__@@IAAUtagPOINT@@K@Z
_TEXT	SEGMENT
_p_eCommandID$ = 8					; size = 4
_p_hDC$ = 12						; size = 4
_nFlags$ = 16						; size = 4
_point$ = 20						; size = 4
_p_dwMouseActionID$ = 24				; size = 4
?OnAddInToolCommand@CChartAddInBase135914@@MAEHW4EAICommandType@@PAUHDC__@@IAAUtagPOINT@@K@Z PROC ; CChartAddInBase135914::OnAddInToolCommand, COMDAT
; _this$ = ecx

; 131  : 	virtual BOOL	OnAddInToolCommand(	const EAICommandType p_eCommandID, HDC p_hDC, UINT nFlags, POINT &point, const DWORD p_dwMouseActionID)	{	return FALSE;	}

  00000	33 c0		 xor	 eax, eax
  00002	c2 14 00	 ret	 20			; 00000014H
?OnAddInToolCommand@CChartAddInBase135914@@MAEHW4EAICommandType@@PAUHDC__@@IAAUtagPOINT@@K@Z ENDP ; CChartAddInBase135914::OnAddInToolCommand
_TEXT	ENDS
; Function compile flags: /Ogtp
; File D:\git\src\IBK\IBK_DRFN\ProjSrc\SrcChartEx\ChartAddIn\ChartEnvSetupDlgAddIn\Include_AddIn_135914\I135914\_ChartAddInBase.h
;	COMDAT ?OnAddInToolCommand@CChartAddInBase135914@@MAEHW4EAICommandType@@@Z
_TEXT	SEGMENT
_p_eCommandID$ = 8					; size = 4
?OnAddInToolCommand@CChartAddInBase135914@@MAEHW4EAICommandType@@@Z PROC ; CChartAddInBase135914::OnAddInToolCommand, COMDAT
; _this$ = ecx

; 130  : 	virtual BOOL	OnAddInToolCommand(	const EAICommandType p_eCommandID)																		{	return FALSE;	}

  00000	33 c0		 xor	 eax, eax
  00002	c2 04 00	 ret	 4
?OnAddInToolCommand@CChartAddInBase135914@@MAEHW4EAICommandType@@@Z ENDP ; CChartAddInBase135914::OnAddInToolCommand
_TEXT	ENDS
; Function compile flags: /Ogtp
; File D:\git\src\IBK\IBK_DRFN\ProjSrc\SrcChartEx\ChartAddIn\ChartEnvSetupDlgAddIn\Include_AddIn_135914\I135914\_ChartAddInBase.h
;	COMDAT ?OnDrdsPacketEnd@CChartAddInBase135914@@MAEXIJ@Z
_TEXT	SEGMENT
_p_wParam$ = 8						; size = 4
_p_lParam$ = 12						; size = 4
?OnDrdsPacketEnd@CChartAddInBase135914@@MAEXIJ@Z PROC	; CChartAddInBase135914::OnDrdsPacketEnd, COMDAT
; _this$ = ecx

; 120  : 	virtual void	OnDrdsPacketEnd( WPARAM p_wParam, LPARAM p_lParam)	{}

  00000	c2 08 00	 ret	 8
?OnDrdsPacketEnd@CChartAddInBase135914@@MAEXIJ@Z ENDP	; CChartAddInBase135914::OnDrdsPacketEnd
_TEXT	ENDS
; Function compile flags: /Ogtp
; File D:\git\src\IBK\IBK_DRFN\ProjSrc\SrcChartEx\ChartAddIn\ChartEnvSetupDlgAddIn\Include_AddIn_135914\I135914\_ChartAddInBase.h
;	COMDAT ?OnDrdsData@CChartAddInBase135914@@MAEXIJ@Z
_TEXT	SEGMENT
_p_wParam$ = 8						; size = 4
_p_lParam$ = 12						; size = 4
?OnDrdsData@CChartAddInBase135914@@MAEXIJ@Z PROC	; CChartAddInBase135914::OnDrdsData, COMDAT
; _this$ = ecx

; 118  : 	virtual void	OnDrdsData( WPARAM p_wParam, LPARAM p_lParam)		{}

  00000	c2 08 00	 ret	 8
?OnDrdsData@CChartAddInBase135914@@MAEXIJ@Z ENDP	; CChartAddInBase135914::OnDrdsData
_TEXT	ENDS
; Function compile flags: /Ogtp
; File D:\git\src\IBK\IBK_DRFN\ProjSrc\SrcChartEx\ChartAddIn\ChartEnvSetupDlgAddIn\Include_AddIn_135914\I135914\_ChartAddInBase.h
;	COMDAT ?OnCaptureChanged@CChartAddInBase135914@@MAEXPAUHWND__@@@Z
_TEXT	SEGMENT
_p_hWnd$ = 8						; size = 4
?OnCaptureChanged@CChartAddInBase135914@@MAEXPAUHWND__@@@Z PROC ; CChartAddInBase135914::OnCaptureChanged, COMDAT
; _this$ = ecx

; 111  : 	virtual void	OnCaptureChanged(	HWND p_hWnd)	{}

  00000	c2 04 00	 ret	 4
?OnCaptureChanged@CChartAddInBase135914@@MAEXPAUHWND__@@@Z ENDP ; CChartAddInBase135914::OnCaptureChanged
_TEXT	ENDS
; Function compile flags: /Ogtp
; File D:\git\src\IBK\IBK_DRFN\ProjSrc\SrcChartEx\ChartAddIn\ChartEnvSetupDlgAddIn\Include_AddIn_135914\I135914\_ChartAddInBase.h
;	COMDAT ?OnTimer@CChartAddInBase135914@@MAEXI@Z
_TEXT	SEGMENT
_p_uTimerID$ = 8					; size = 4
?OnTimer@CChartAddInBase135914@@MAEXI@Z PROC		; CChartAddInBase135914::OnTimer, COMDAT
; _this$ = ecx

; 106  : 	virtual void	OnTimer( UINT p_uTimerID)	{}

  00000	c2 04 00	 ret	 4
?OnTimer@CChartAddInBase135914@@MAEXI@Z ENDP		; CChartAddInBase135914::OnTimer
_TEXT	ENDS
; Function compile flags: /Ogtp
; File D:\git\src\IBK\IBK_DRFN\ProjSrc\SrcChartEx\ChartAddIn\ChartEnvSetupDlgAddIn\Include_AddIn_135914\I135914\_ChartAddInBase.h
;	COMDAT ?OnUpdatePacketData@CChartAddInBase135914@@MAEXH@Z
_TEXT	SEGMENT
_p_bTrUpdate$ = 8					; size = 4
?OnUpdatePacketData@CChartAddInBase135914@@MAEXH@Z PROC	; CChartAddInBase135914::OnUpdatePacketData, COMDAT
; _this$ = ecx

; 101  : 	virtual void	OnUpdatePacketData( BOOL p_bTrUpdate)	{}

  00000	c2 04 00	 ret	 4
?OnUpdatePacketData@CChartAddInBase135914@@MAEXH@Z ENDP	; CChartAddInBase135914::OnUpdatePacketData
_TEXT	ENDS
; Function compile flags: /Ogtp
; File D:\git\src\IBK\IBK_DRFN\ProjSrc\SrcChartEx\ChartAddIn\ChartEnvSetupDlgAddIn\Include_AddIn_135914\I135914\_ChartAddInBase.h
;	COMDAT ?OnPacketData@CChartAddInBase135914@@MAEXPBDH@Z
_TEXT	SEGMENT
_p_szPacketNames$ = 8					; size = 4
_p_bWithReset$ = 12					; size = 4
?OnPacketData@CChartAddInBase135914@@MAEXPBDH@Z PROC	; CChartAddInBase135914::OnPacketData, COMDAT
; _this$ = ecx

; 99   : 	virtual void	OnPacketData( const char *p_szPacketNames, BOOL p_bWithReset)	{}

  00000	c2 08 00	 ret	 8
?OnPacketData@CChartAddInBase135914@@MAEXPBDH@Z ENDP	; CChartAddInBase135914::OnPacketData
_TEXT	ENDS
; Function compile flags: /Ogtp
; File D:\git\src\IBK\IBK_DRFN\ProjSrc\SrcChartEx\ChartAddIn\ChartEnvSetupDlgAddIn\Include_AddIn_135914\I135914\_ChartAddInBase.h
;	COMDAT ?OnDrawAfterGraph@CChartAddInBase135914@@MAEXPAUHDC__@@@Z
_TEXT	SEGMENT
_p_hDC$ = 8						; size = 4
?OnDrawAfterGraph@CChartAddInBase135914@@MAEXPAUHDC__@@@Z PROC ; CChartAddInBase135914::OnDrawAfterGraph, COMDAT
; _this$ = ecx

; 97   : 	virtual void	OnDrawAfterGraph( HDC p_hDC)	{}

  00000	c2 04 00	 ret	 4
?OnDrawAfterGraph@CChartAddInBase135914@@MAEXPAUHDC__@@@Z ENDP ; CChartAddInBase135914::OnDrawAfterGraph
_TEXT	ENDS
; Function compile flags: /Ogtp
; File D:\git\src\IBK\IBK_DRFN\ProjSrc\SrcChartEx\ChartAddIn\ChartEnvSetupDlgAddIn\Include_AddIn_135914\I135914\_ChartAddInBase.h
;	COMDAT ?OnDrawBeforeGraph@CChartAddInBase135914@@MAEXPAUHDC__@@@Z
_TEXT	SEGMENT
_p_hDC$ = 8						; size = 4
?OnDrawBeforeGraph@CChartAddInBase135914@@MAEXPAUHDC__@@@Z PROC ; CChartAddInBase135914::OnDrawBeforeGraph, COMDAT
; _this$ = ecx

; 95   : 	virtual void	OnDrawBeforeGraph( HDC p_hDC)	{}

  00000	c2 04 00	 ret	 4
?OnDrawBeforeGraph@CChartAddInBase135914@@MAEXPAUHDC__@@@Z ENDP ; CChartAddInBase135914::OnDrawBeforeGraph
_TEXT	ENDS
; Function compile flags: /Ogtp
; File D:\git\src\IBK\IBK_DRFN\ProjSrc\SrcChartEx\ChartAddIn\ChartEnvSetupDlgAddIn\Include_AddIn_135914\I135914\_ChartAddInBase.h
;	COMDAT ?OnResetChart@CChartAddInBase135914@@MAEXXZ
_TEXT	SEGMENT
?OnResetChart@CChartAddInBase135914@@MAEXXZ PROC	; CChartAddInBase135914::OnResetChart, COMDAT
; _this$ = ecx

; 93   : 	virtual void	OnResetChart( void)	{}

  00000	c2 00 00	 ret	 0
?OnResetChart@CChartAddInBase135914@@MAEXXZ ENDP	; CChartAddInBase135914::OnResetChart
_TEXT	ENDS
; Function compile flags: /Ogtp
; File D:\git\src\IBK\IBK_DRFN\ProjSrc\SrcChartEx\ChartAddIn\ChartEnvSetupDlgAddIn\Include_AddIn_135914\I135914\_ChartAddInBase.h
;	COMDAT ?OnSharedDataChange@CChartAddInBase135914@@MAEXPBD0H@Z
_TEXT	SEGMENT
_p_szShareName$ = 8					; size = 4
_p_szSharedData$ = 12					; size = 4
_p_bStartShare$ = 16					; size = 4
?OnSharedDataChange@CChartAddInBase135914@@MAEXPBD0H@Z PROC ; CChartAddInBase135914::OnSharedDataChange, COMDAT
; _this$ = ecx

; 90   : 	virtual void	OnSharedDataChange( const char *p_szShareName, const char *p_szSharedData, BOOL p_bStartShare)	{}

  00000	c2 0c 00	 ret	 12			; 0000000cH
?OnSharedDataChange@CChartAddInBase135914@@MAEXPBD0H@Z ENDP ; CChartAddInBase135914::OnSharedDataChange
_TEXT	ENDS
; Function compile flags: /Ogtp
; File D:\git\src\IBK\IBK_DRFN\ProjSrc\SrcChartEx\ChartAddIn\ChartEnvSetupDlgAddIn\Include_AddIn_135914\I135914\_ChartAddInBase.h
;	COMDAT ?OnLSharedDataChange@CChartAddInBase135914@@MAEXPBD0@Z
_TEXT	SEGMENT
_p_szLShareKey$ = 8					; size = 4
_p_szLShareValue$ = 12					; size = 4
?OnLSharedDataChange@CChartAddInBase135914@@MAEXPBD0@Z PROC ; CChartAddInBase135914::OnLSharedDataChange, COMDAT
; _this$ = ecx

; 88   : 	virtual void	OnLSharedDataChange( const char *p_szLShareKey, const char *p_szLShareValue)	{}

  00000	c2 08 00	 ret	 8
?OnLSharedDataChange@CChartAddInBase135914@@MAEXPBD0@Z ENDP ; CChartAddInBase135914::OnLSharedDataChange
_TEXT	ENDS
; Function compile flags: /Ogtp
; File D:\git\src\IBK\IBK_DRFN\ProjSrc\SrcChartEx\ChartAddIn\ChartEnvSetupDlgAddIn\Include_AddIn_135914\I135914\_ChartAddInBase.h
;	COMDAT ?OnGSharedDataChange@CChartAddInBase135914@@MAEXPBD0H@Z
_TEXT	SEGMENT
_p_szGShareKey$ = 8					; size = 4
_p_szGShareValue$ = 12					; size = 4
_p_bStartShare$ = 16					; size = 4
?OnGSharedDataChange@CChartAddInBase135914@@MAEXPBD0H@Z PROC ; CChartAddInBase135914::OnGSharedDataChange, COMDAT
; _this$ = ecx

; 86   : 	virtual void	OnGSharedDataChange( const char *p_szGShareKey, const char *p_szGShareValue, BOOL p_bStartShare)	{}

  00000	c2 0c 00	 ret	 12			; 0000000cH
?OnGSharedDataChange@CChartAddInBase135914@@MAEXPBD0H@Z ENDP ; CChartAddInBase135914::OnGSharedDataChange
_TEXT	ENDS
; Function compile flags: /Ogtp
; File D:\git\src\IBK\IBK_DRFN\ProjSrc\SrcChartEx\ChartAddIn\ChartEnvSetupDlgAddIn\Include_AddIn_135914\I135914\_ChartAddInBase.h
;	COMDAT ?GetGlobalAddInEventType@CChartAddInBase135914@@MBE?AW4EAddInEventType@IAddInDllBase@@J@Z
_TEXT	SEGMENT
_p_eAddInEventType$ = 8					; size = 4
?GetGlobalAddInEventType@CChartAddInBase135914@@MBE?AW4EAddInEventType@IAddInDllBase@@J@Z PROC ; CChartAddInBase135914::GetGlobalAddInEventType, COMDAT
; _this$ = ecx

; 73   : 	virtual IAddInDllBase::EAddInEventType	GetGlobalAddInEventType( const long p_eAddInEventType) const	{	return IAddInDllBase::EAddInEventType::EAE_NOT_DEFINED;	}

  00000	83 c8 ff	 or	 eax, -1
  00003	c2 04 00	 ret	 4
?GetGlobalAddInEventType@CChartAddInBase135914@@MBE?AW4EAddInEventType@IAddInDllBase@@J@Z ENDP ; CChartAddInBase135914::GetGlobalAddInEventType
_TEXT	ENDS
; Function compile flags: /Ogtp
; File D:\git\src\IBK\IBK_DRFN\ProjSrc\SrcChartEx\ChartAddIn\ChartEnvSetupDlgAddIn\Include_AddIn_135914\I135914\_ChartAddInBase.h
;	COMDAT ?GetAddInCustomInterface@CChartAddInBase135914@@MAEPAUIUnknown@@XZ
_TEXT	SEGMENT
?GetAddInCustomInterface@CChartAddInBase135914@@MAEPAUIUnknown@@XZ PROC ; CChartAddInBase135914::GetAddInCustomInterface, COMDAT
; _this$ = ecx

; 61   : 	virtual IUnknown *	GetAddInCustomInterface( void)				{	return NULL;	}

  00000	33 c0		 xor	 eax, eax
  00002	c3		 ret	 0
?GetAddInCustomInterface@CChartAddInBase135914@@MAEPAUIUnknown@@XZ ENDP ; CChartAddInBase135914::GetAddInCustomInterface
_TEXT	ENDS
; Function compile flags: /Ogtp
; File D:\git\src\IBK\IBK_DRFN\ProjSrc\SrcChartEx\ChartAddIn\ChartEnvSetupDlgAddIn\Include_AddIn_135914\I135914\_ChartAddInBase.h
;	COMDAT ?QueryInterface@CChartAddInBase135914@@MAGJABU_GUID@@PAPAX@Z
_TEXT	SEGMENT
_this$ = 8						; size = 4
_iid$ = 12						; size = 4
_ppvObject$ = 16					; size = 4
?QueryInterface@CChartAddInBase135914@@MAGJABU_GUID@@PAPAX@Z PROC ; CChartAddInBase135914::QueryInterface, COMDAT

; 33   : 	_IWRAPPER_IUNKNOWN_INTERFACE()

  00000	b8 02 40 00 80	 mov	 eax, -2147467262	; 80004002H
  00005	c2 0c 00	 ret	 12			; 0000000cH
?QueryInterface@CChartAddInBase135914@@MAGJABU_GUID@@PAPAX@Z ENDP ; CChartAddInBase135914::QueryInterface
_TEXT	ENDS
; Function compile flags: /Ogtp
; File D:\git\src\IBK\IBK_DRFN\ProjSrc\SrcChartEx\ChartAddIn\ChartEnvSetupDlgAddIn\Include_AddIn_135914\I135914\_ChartAddInBase.h
;	COMDAT ?Release@CChartAddInBase135914@@MAGKXZ
_TEXT	SEGMENT
_this$ = 8						; size = 4
?Release@CChartAddInBase135914@@MAGKXZ PROC		; CChartAddInBase135914::Release, COMDAT

; 33   : 	_IWRAPPER_IUNKNOWN_INTERFACE()

  00000	55		 push	 ebp
  00001	8b ec		 mov	 ebp, esp
  00003	5d		 pop	 ebp
  00004	e9 00 00 00 00	 jmp	 ?Release@CIWUnknown@@MAGKXZ ; CIWUnknown::Release
?Release@CChartAddInBase135914@@MAGKXZ ENDP		; CChartAddInBase135914::Release
_TEXT	ENDS
; Function compile flags: /Ogtp
; File D:\git\src\IBK\IBK_DRFN\ProjSrc\SrcChartEx\ChartAddIn\ChartEnvSetupDlgAddIn\Include_AddIn_135914\I135914\_ChartAddInBase.h
;	COMDAT ?AddRef@CChartAddInBase135914@@MAGKXZ
_TEXT	SEGMENT
_this$ = 8						; size = 4
?AddRef@CChartAddInBase135914@@MAGKXZ PROC		; CChartAddInBase135914::AddRef, COMDAT

; 33   : 	_IWRAPPER_IUNKNOWN_INTERFACE()

  00000	55		 push	 ebp
  00001	8b ec		 mov	 ebp, esp
  00003	5d		 pop	 ebp
  00004	e9 00 00 00 00	 jmp	 ?AddRef@CIWUnknown@@MAGKXZ ; CIWUnknown::AddRef
?AddRef@CChartAddInBase135914@@MAGKXZ ENDP		; CChartAddInBase135914::AddRef
_TEXT	ENDS
; Function compile flags: /Ogtp
; File D:\git\src\IBK\IBK_DRFN\ProjSrc\SrcChartEx\ChartAddIn\ChartEnvSetupDlgAddIn\Include_AddIn_135914\_IWUnknown.h
;	COMDAT ?PreDestruct@CIWUnknown@@MAEXXZ
_TEXT	SEGMENT
?PreDestruct@CIWUnknown@@MAEXXZ PROC			; CIWUnknown::PreDestruct, COMDAT
; _this$ = ecx

; 48   : 	virtual void	PreDestruct( void)		{}

  00000	c2 00 00	 ret	 0
?PreDestruct@CIWUnknown@@MAEXXZ ENDP			; CIWUnknown::PreDestruct
_TEXT	ENDS
; Function compile flags: /Ogtp
; File D:\git\src\IBK\IBK_DRFN\ProjSrc\SrcChartEx\ChartAddIn\ChartEnvSetupDlgAddIn\Include_AddIn_135914\_IWUnknown.h
;	COMDAT ?PreDestructX@CIWUnknown@@MAEXXZ
_TEXT	SEGMENT
?PreDestructX@CIWUnknown@@MAEXXZ PROC			; CIWUnknown::PreDestructX, COMDAT
; _this$ = ecx

; 47   : 	virtual void	PreDestructX( void)		{}

  00000	c2 00 00	 ret	 0
?PreDestructX@CIWUnknown@@MAEXXZ ENDP			; CIWUnknown::PreDestructX
_TEXT	ENDS
; Function compile flags: /Ogtp
; File D:\git\src\IBK\IBK_DRFN\ProjSrc\SrcChartEx\ChartAddIn\ChartEnvSetupDlgAddIn\Include_AddIn_135914\_IWUnknown.h
;	COMDAT ?PostConstruct@CIWUnknown@@MAEXXZ
_TEXT	SEGMENT
?PostConstruct@CIWUnknown@@MAEXXZ PROC			; CIWUnknown::PostConstruct, COMDAT
; _this$ = ecx

; 46   : 	virtual void	PostConstruct( void)	{}

  00000	c2 00 00	 ret	 0
?PostConstruct@CIWUnknown@@MAEXXZ ENDP			; CIWUnknown::PostConstruct
_TEXT	ENDS
; Function compile flags: /Ogtp
; File C:\Program Files (x86)\Microsoft Visual Studio\2019\Community\VC\Tools\MSVC\14.29.30133\atlmfc\include\afx.inl
;	COMDAT ?Dump@CObject@@UBEXAAVCDumpContext@@@Z
_TEXT	SEGMENT
___formal$ = 8						; size = 4
?Dump@CObject@@UBEXAAVCDumpContext@@@Z PROC		; CObject::Dump, COMDAT
; _this$ = ecx

; 122  : 	{ /* no dumping in release builds */ }

  00000	c2 04 00	 ret	 4
?Dump@CObject@@UBEXAAVCDumpContext@@@Z ENDP		; CObject::Dump
_TEXT	ENDS
; Function compile flags: /Ogtp
; File C:\Program Files (x86)\Microsoft Visual Studio\2019\Community\VC\Tools\MSVC\14.29.30133\atlmfc\include\afx.inl
;	COMDAT ?AssertValid@CObject@@UBEXXZ
_TEXT	SEGMENT
?AssertValid@CObject@@UBEXXZ PROC			; CObject::AssertValid, COMDAT
; _this$ = ecx

; 120  : 	{ /* no asserts in release builds */ }

  00000	c2 00 00	 ret	 0
?AssertValid@CObject@@UBEXXZ ENDP			; CObject::AssertValid
_TEXT	ENDS
; Function compile flags: /Ogtp
; File C:\Program Files (x86)\Microsoft Visual Studio\2019\Community\VC\Tools\MSVC\14.29.30133\atlmfc\include\afx.inl
;	COMDAT ?Serialize@CObject@@UAEXAAVCArchive@@@Z
_TEXT	SEGMENT
___formal$ = 8						; size = 4
?Serialize@CObject@@UAEXAAVCArchive@@@Z PROC		; CObject::Serialize, COMDAT
; _this$ = ecx

; 106  : 	{ /* CObject does not serialize anything by default */ }

  00000	c2 04 00	 ret	 4
?Serialize@CObject@@UAEXAAVCArchive@@@Z ENDP		; CObject::Serialize
_TEXT	ENDS
; Function compile flags: /Ogtp
; File D:\git\src\IBK\IBK_DRFN\ProjSrc\SrcChartEx\ChartAddIn\ChartEnvSetupDlgAddIn\ChartEnvSetupDlgAddIn\ChartEnvSetupDlgAddInImp.cpp
;	COMDAT ?__empty_global_delete@@YAXPAXI@Z
_TEXT	SEGMENT
___formal$ = 8						; size = 4
___formal$ = 12						; size = 4
?__empty_global_delete@@YAXPAXI@Z PROC			; __empty_global_delete, COMDAT

  00000	c2 00 00	 ret	 0
?__empty_global_delete@@YAXPAXI@Z ENDP			; __empty_global_delete
_TEXT	ENDS
; Function compile flags: /Ogtp
; File D:\git\src\IBK\IBK_DRFN\ProjSrc\SrcChartEx\ChartAddIn\ChartEnvSetupDlgAddIn\ChartEnvSetupDlgAddIn\ChartEnvSetupDlgAddInImp.cpp
;	COMDAT ?__empty_global_delete@@YAXPAX@Z
_TEXT	SEGMENT
___formal$ = 8						; size = 4
?__empty_global_delete@@YAXPAX@Z PROC			; __empty_global_delete, COMDAT

  00000	c2 00 00	 ret	 0
?__empty_global_delete@@YAXPAX@Z ENDP			; __empty_global_delete
_TEXT	ENDS
END
