; Listing generated by Microsoft (R) Optimizing Compiler Version 19.29.30145.0 

	TITLE	D:\git\src\IBK\IBK_DRFN\#DRfn-CS\_Obj\ChartEnvSetupDlgAddIn\Data_ConditionTitle.obj
	.686P
	.XMM
	include listing.inc
	.model	flat

INCLUDELIB MSVCRT
INCLUDELIB OLDNAMES

PUBLIC	?__empty_global_delete@@YAXPAX@Z		; __empty_global_delete
PUBLIC	?__empty_global_delete@@YAXPAXI@Z		; __empty_global_delete
PUBLIC	?GetConditionTitle@CData_ConditionTitle@@QAE?AV?$CStringT@DV?$StrTraitMFC_DLL@DV?$ChTraitsCRT@D@ATL@@@@@ATL@@ABV23@@Z ; CData_ConditionTitle::GetConditionTitle
PUBLIC	?MakeString@CData_ConditionTitle@@AAE?AV?$CStringT@DV?$StrTraitMFC_DLL@DV?$ChTraitsCRT@D@ATL@@@@@ATL@@ABV23@0@Z ; CData_ConditionTitle::MakeString
PUBLIC	??_C@_09DOJOJOOO@?$CFs?0?$CFs?0?$CFs?0@		; `string'
PUBLIC	??_C@_03CGNBMCEI@?$CFs?0@			; `string'
PUBLIC	??_C@_0BI@EGCADHDF@?$CFs?0?$CFs?0?$CFs1?$CFs?0?$CFs2?$CFs?0?$CFs?$CFs?0@ ; `string'
PUBLIC	??_C@_06IOPLGJHL@?$CFs?0?$CFs?0@		; `string'
PUBLIC	??_C@_0O@POOELIFG@?$CFs?0?$CFs?0Signal?0@	; `string'
PUBLIC	??_C@_0BC@NFAHEEIC@?$CFs?0?$CFs?$CI?$CF?$CF?$CJ?0?$CFs?$CI?$CF?$CF?$CJ?0@ ; `string'
PUBLIC	??_C@_07INFEOIPA@?$CFs?$CI?$CF?$CF?$CJ?0@	; `string'
PUBLIC	??_C@_07JHMPOCMH@Signal?0@			; `string'
PUBLIC	??_C@_0BF@HMFODBMO@?$CFs1?0?$CFs2?0?$CFs3?0?$CFs4?0?$CFs5?0@ ; `string'
PUBLIC	??_C@_0L@BHBKOAPL@?$CFs?0Signal?0@		; `string'
PUBLIC	??_C@_0EB@ECBKOHJK@?$CFs?0ROC?5?$CFs?0Sto?5Fast?5?$CF?$CFK?0Sto?5Fast@ ; `string'
PUBLIC	??_C@_0CK@KJCFFEKD@?$CFs?0?$CFs?0Slow?$CF?$CFK?5?$CFs1?0slow?$CF?$CFK?5?$CFs2?0S@ ; `string'
PUBLIC	??_C@_0CL@FFNKGLNG@LRS?5?$CFs?0Slow?$CF?$CFK?5?$CFs1?0slow?$CF?$CFK?5?$CFs2?0@ ; `string'
PUBLIC	??_C@_0O@BINAELEC@?$CFs?0?$CFs?5Signal?0@	; `string'
PUBLIC	??_C@_0CC@OBCAKKNC@Fast?$CF?$CFK?5?$CFs?0Slow?$CF?$CFK?5?$CFs?0Slow?$CF?$CFD?5?$CF@ ; `string'
PUBLIC	??_C@_0CL@OLMGGEPE@ROC?5?$CFs?0Slow?$CF?$CFK?5?$CFs1?0slow?$CF?$CFK?5?$CFs2?0@ ; `string'
PUBLIC	??_C@_0BF@GAJDJLKB@RSI?5?$CFs?0?$CFs?0?$CFs?0Signal?0@ ; `string'
PUBLIC	??_C@_0CL@MAOOGFCD@RSI?5?$CFs?0Slow?$CF?$CFK?5?$CFs1?0Slow?$CF?$CFK?5?$CFs2?0@ ; `string'
PUBLIC	??_C@_0CF@JGGBPBED@Fast?$CF?$CFK?5?$CFs?0Fast?$CF?$CFD?5?$CFs?0RSI?5?$CFs?0Si@ ; `string'
PUBLIC	??_C@_0BA@MKCDDABF@ADX?5?$CFs?0ADXR?5?$CFs?0@	; `string'
PUBLIC	??_C@_0N@KDLGPKIJ@AR?5?$CFs?0BR?5?$CFs?0@	; `string'
PUBLIC	??_C@_0O@OJADBDPP@RS?5?$CFs?0RMI?5?$CFs?0@	; `string'
PUBLIC	??_C@_0BH@ECHGHJAI@Fase?$CF?$CFK?5?$CFs?0Fast?$CF?$CFD?5?$CFs?0@ ; `string'
PUBLIC	??_C@_0CC@BLJMPBD@Fase?$CF?$CFK?5?$CFs?0Slow?$CF?$CFK?5?$CFs?0Slow?$CF?$CFD?5?$CF@ ; `string'
PUBLIC	??_C@_01IHBHIGKO@?0@				; `string'
EXTRN	__imp_?Concatenate@?$CSimpleStringT@D$00@ATL@@KAXAAV12@PBDH1H@Z:PROC
EXTRN	__imp_??0?$CStringT@DV?$StrTraitMFC_DLL@DV?$ChTraitsCRT@D@ATL@@@@@ATL@@QAE@XZ:PROC
EXTRN	__imp_??0?$CStringT@DV?$StrTraitMFC_DLL@DV?$ChTraitsCRT@D@ATL@@@@@ATL@@QAE@PAUIAtlStringMgr@1@@Z:PROC
EXTRN	__imp_??0?$CStringT@DV?$StrTraitMFC_DLL@DV?$ChTraitsCRT@D@ATL@@@@@ATL@@QAE@ABV01@@Z:PROC
EXTRN	__imp_??0?$CStringT@DV?$StrTraitMFC_DLL@DV?$ChTraitsCRT@D@ATL@@@@@ATL@@QAE@PBD@Z:PROC
EXTRN	__imp_??1?$CStringT@DV?$StrTraitMFC_DLL@DV?$ChTraitsCRT@D@ATL@@@@@ATL@@QAE@XZ:PROC
EXTRN	__imp_??4?$CStringT@DV?$StrTraitMFC_DLL@DV?$ChTraitsCRT@D@ATL@@@@@ATL@@QAEAAV01@ABV01@@Z:PROC
EXTRN	__imp_?GetManager@?$CStringT@DV?$StrTraitMFC_DLL@DV?$ChTraitsCRT@D@ATL@@@@@ATL@@QBEPAUIAtlStringMgr@2@XZ:PROC
EXTRN	__imp_?CompareNoCase@?$CStringT@DV?$StrTraitMFC_DLL@DV?$ChTraitsCRT@D@ATL@@@@@ATL@@QBEHPBD@Z:PROC
EXTRN	__imp_?Format@?$CStringT@DV?$StrTraitMFC_DLL@DV?$ChTraitsCRT@D@ATL@@@@@ATL@@QAAXPBDZZ:PROC
EXTRN	__imp_?LoadStringA@?$CStringT@DV?$StrTraitMFC_DLL@DV?$ChTraitsCRT@D@ATL@@@@@ATL@@QAEHI@Z:PROC
EXTRN	?FindStochastics@CFindType@@SA?AV?$CStringT@DV?$StrTraitMFC_DLL@DV?$ChTraitsCRT@D@ATL@@@@@ATL@@ABV23@@Z:PROC ; CFindType::FindStochastics
EXTRN	@__security_check_cookie@4:PROC
EXTRN	___CxxFrameHandler3:PROC
EXTRN	?g_iMetaTable@@3VIMetaTable@@A:BYTE		; g_iMetaTable
EXTRN	___security_cookie:DWORD
;	COMDAT ??_C@_01IHBHIGKO@?0@
CONST	SEGMENT
??_C@_01IHBHIGKO@?0@ DB ',', 00H			; `string'
CONST	ENDS
;	COMDAT ??_C@_0CC@BLJMPBD@Fase?$CF?$CFK?5?$CFs?0Slow?$CF?$CFK?5?$CFs?0Slow?$CF?$CFD?5?$CF@
CONST	SEGMENT
??_C@_0CC@BLJMPBD@Fase?$CF?$CFK?5?$CFs?0Slow?$CF?$CFK?5?$CFs?0Slow?$CF?$CFD?5?$CF@ DB 'F'
	DB	'ase%%K %s,Slow%%K %s,Slow%%D %s,', 00H	; `string'
CONST	ENDS
;	COMDAT ??_C@_0BH@ECHGHJAI@Fase?$CF?$CFK?5?$CFs?0Fast?$CF?$CFD?5?$CFs?0@
CONST	SEGMENT
??_C@_0BH@ECHGHJAI@Fase?$CF?$CFK?5?$CFs?0Fast?$CF?$CFD?5?$CFs?0@ DB 'Fase'
	DB	'%%K %s,Fast%%D %s,', 00H			; `string'
CONST	ENDS
;	COMDAT ??_C@_0O@OJADBDPP@RS?5?$CFs?0RMI?5?$CFs?0@
CONST	SEGMENT
??_C@_0O@OJADBDPP@RS?5?$CFs?0RMI?5?$CFs?0@ DB 'RS %s,RMI %s,', 00H ; `string'
CONST	ENDS
;	COMDAT ??_C@_0N@KDLGPKIJ@AR?5?$CFs?0BR?5?$CFs?0@
CONST	SEGMENT
??_C@_0N@KDLGPKIJ@AR?5?$CFs?0BR?5?$CFs?0@ DB 'AR %s,BR %s,', 00H ; `string'
CONST	ENDS
;	COMDAT ??_C@_0BA@MKCDDABF@ADX?5?$CFs?0ADXR?5?$CFs?0@
CONST	SEGMENT
??_C@_0BA@MKCDDABF@ADX?5?$CFs?0ADXR?5?$CFs?0@ DB 'ADX %s,ADXR %s,', 00H ; `string'
CONST	ENDS
;	COMDAT ??_C@_0CF@JGGBPBED@Fast?$CF?$CFK?5?$CFs?0Fast?$CF?$CFD?5?$CFs?0RSI?5?$CFs?0Si@
CONST	SEGMENT
??_C@_0CF@JGGBPBED@Fast?$CF?$CFK?5?$CFs?0Fast?$CF?$CFD?5?$CFs?0RSI?5?$CFs?0Si@ DB 'F'
	DB	'ast%%K %s,Fast%%D %s,RSI %s,Signal,', 00H	; `string'
CONST	ENDS
;	COMDAT ??_C@_0CL@MAOOGFCD@RSI?5?$CFs?0Slow?$CF?$CFK?5?$CFs1?0Slow?$CF?$CFK?5?$CFs2?0@
CONST	SEGMENT
??_C@_0CL@MAOOGFCD@RSI?5?$CFs?0Slow?$CF?$CFK?5?$CFs1?0Slow?$CF?$CFK?5?$CFs2?0@ DB 'R'
	DB	'SI %s,Slow%%K %s1,Slow%%K %s2,Slow%%D %s,', 00H ; `string'
CONST	ENDS
;	COMDAT ??_C@_0BF@GAJDJLKB@RSI?5?$CFs?0?$CFs?0?$CFs?0Signal?0@
CONST	SEGMENT
??_C@_0BF@GAJDJLKB@RSI?5?$CFs?0?$CFs?0?$CFs?0Signal?0@ DB 'RSI %s,%s,%s,S'
	DB	'ignal,', 00H				; `string'
CONST	ENDS
;	COMDAT ??_C@_0CL@OLMGGEPE@ROC?5?$CFs?0Slow?$CF?$CFK?5?$CFs1?0slow?$CF?$CFK?5?$CFs2?0@
CONST	SEGMENT
??_C@_0CL@OLMGGEPE@ROC?5?$CFs?0Slow?$CF?$CFK?5?$CFs1?0slow?$CF?$CFK?5?$CFs2?0@ DB 'R'
	DB	'OC %s,Slow%%K %s1,slow%%K %s2,Slow%%D %s,', 00H ; `string'
CONST	ENDS
;	COMDAT ??_C@_0CC@OBCAKKNC@Fast?$CF?$CFK?5?$CFs?0Slow?$CF?$CFK?5?$CFs?0Slow?$CF?$CFD?5?$CF@
CONST	SEGMENT
??_C@_0CC@OBCAKKNC@Fast?$CF?$CFK?5?$CFs?0Slow?$CF?$CFK?5?$CFs?0Slow?$CF?$CFD?5?$CF@ DB 'F'
	DB	'ast%%K %s,Slow%%K %s,Slow%%D %s,', 00H	; `string'
CONST	ENDS
;	COMDAT ??_C@_0O@BINAELEC@?$CFs?0?$CFs?5Signal?0@
CONST	SEGMENT
??_C@_0O@BINAELEC@?$CFs?0?$CFs?5Signal?0@ DB '%s,%s Signal,', 00H ; `string'
CONST	ENDS
;	COMDAT ??_C@_0CL@FFNKGLNG@LRS?5?$CFs?0Slow?$CF?$CFK?5?$CFs1?0slow?$CF?$CFK?5?$CFs2?0@
CONST	SEGMENT
??_C@_0CL@FFNKGLNG@LRS?5?$CFs?0Slow?$CF?$CFK?5?$CFs1?0slow?$CF?$CFK?5?$CFs2?0@ DB 'L'
	DB	'RS %s,Slow%%K %s1,slow%%K %s2,Slow%%D %s,', 00H ; `string'
CONST	ENDS
;	COMDAT ??_C@_0CK@KJCFFEKD@?$CFs?0?$CFs?0Slow?$CF?$CFK?5?$CFs1?0slow?$CF?$CFK?5?$CFs2?0S@
CONST	SEGMENT
??_C@_0CK@KJCFFEKD@?$CFs?0?$CFs?0Slow?$CF?$CFK?5?$CFs1?0slow?$CF?$CFK?5?$CFs2?0S@ DB '%'
	DB	's,%s,Slow%%K %s1,slow%%K %s2,Slow%%D %s,', 00H ; `string'
CONST	ENDS
;	COMDAT ??_C@_0EB@ECBKOHJK@?$CFs?0ROC?5?$CFs?0Sto?5Fast?5?$CF?$CFK?0Sto?5Fast@
CONST	SEGMENT
??_C@_0EB@ECBKOHJK@?$CFs?0ROC?5?$CFs?0Sto?5Fast?5?$CF?$CFK?0Sto?5Fast@ DB '%'
	DB	's,ROC %s,Sto Fast %%K,Sto Fast %%D,MACD %s,MACD %s,MACD Signa'
	DB	'l,', 00H					; `string'
CONST	ENDS
;	COMDAT ??_C@_0L@BHBKOAPL@?$CFs?0Signal?0@
CONST	SEGMENT
??_C@_0L@BHBKOAPL@?$CFs?0Signal?0@ DB '%s,Signal,', 00H	; `string'
CONST	ENDS
;	COMDAT ??_C@_0BF@HMFODBMO@?$CFs1?0?$CFs2?0?$CFs3?0?$CFs4?0?$CFs5?0@
CONST	SEGMENT
??_C@_0BF@HMFODBMO@?$CFs1?0?$CFs2?0?$CFs3?0?$CFs4?0?$CFs5?0@ DB '%s1,%s2,'
	DB	'%s3,%s4,%s5,', 00H				; `string'
CONST	ENDS
;	COMDAT ??_C@_07JHMPOCMH@Signal?0@
CONST	SEGMENT
??_C@_07JHMPOCMH@Signal?0@ DB 'Signal,', 00H		; `string'
CONST	ENDS
;	COMDAT ??_C@_07INFEOIPA@?$CFs?$CI?$CF?$CF?$CJ?0@
CONST	SEGMENT
??_C@_07INFEOIPA@?$CFs?$CI?$CF?$CF?$CJ?0@ DB '%s(%%),', 00H ; `string'
CONST	ENDS
;	COMDAT ??_C@_0BC@NFAHEEIC@?$CFs?0?$CFs?$CI?$CF?$CF?$CJ?0?$CFs?$CI?$CF?$CF?$CJ?0@
CONST	SEGMENT
??_C@_0BC@NFAHEEIC@?$CFs?0?$CFs?$CI?$CF?$CF?$CJ?0?$CFs?$CI?$CF?$CF?$CJ?0@ DB '%'
	DB	's,%s(%%),%s(%%),', 00H			; `string'
CONST	ENDS
;	COMDAT ??_C@_0O@POOELIFG@?$CFs?0?$CFs?0Signal?0@
CONST	SEGMENT
??_C@_0O@POOELIFG@?$CFs?0?$CFs?0Signal?0@ DB '%s,%s,Signal,', 00H ; `string'
CONST	ENDS
;	COMDAT ??_C@_06IOPLGJHL@?$CFs?0?$CFs?0@
CONST	SEGMENT
??_C@_06IOPLGJHL@?$CFs?0?$CFs?0@ DB '%s,%s,', 00H	; `string'
CONST	ENDS
;	COMDAT ??_C@_0BI@EGCADHDF@?$CFs?0?$CFs?0?$CFs1?$CFs?0?$CFs2?$CFs?0?$CFs?$CFs?0@
CONST	SEGMENT
??_C@_0BI@EGCADHDF@?$CFs?0?$CFs?0?$CFs1?$CFs?0?$CFs2?$CFs?0?$CFs?$CFs?0@ DB '%'
	DB	's,%s,%s1%s,%s2%s,%s%s,', 00H		; `string'
CONST	ENDS
;	COMDAT ??_C@_03CGNBMCEI@?$CFs?0@
CONST	SEGMENT
??_C@_03CGNBMCEI@?$CFs?0@ DB '%s,', 00H			; `string'
CONST	ENDS
;	COMDAT ??_C@_09DOJOJOOO@?$CFs?0?$CFs?0?$CFs?0@
CONST	SEGMENT
??_C@_09DOJOJOOO@?$CFs?0?$CFs?0?$CFs?0@ DB '%s,%s,%s,', 00H ; `string'
CONST	ENDS
_DATA	SEGMENT
?g_szIndicatorNameList@@3PAW4E_METACODE@IMetaTable@@A DD 0caH ; g_szIndicatorNameList
	DD	0cbH
	DD	0c8H
	DD	0c9H
	DD	0cdH
	DD	012bH
	DD	0ceH
	DD	0113H
	DD	01afH
	DD	0ddH
	DD	0deH
	DD	0cfH
	DD	0d0H
	DD	0f9H
	DD	0326H
	DD	0107H
	DD	01afH
	DD	012aH
	DD	0d3H
	DD	01afH
	DD	01afH
	DD	0d4H
	DD	0fcH
	DD	0fdH
	DD	010bH
	DD	01afH
	DD	0ffH
	DD	010cH
	DD	010dH
	DD	01afH
	DD	01afH
	DD	0d5H
	DD	0d6H
	DD	010eH
	DD	01afH
	DD	0116H
	DD	0322H
	DD	0102H
	DD	0eaH
	DD	0103H
	DD	0eeH
	DD	0f1H
	DD	01afH
	DD	01afH
	DD	0112H
	DD	0320H
	DD	01afH
	DD	0105H
	DD	0ccH
	DD	0122H
	DD	0123H
	DD	0124H
	DD	0323H
	DD	01afH
	DD	012eH
	DD	01afH
	DD	012cH
	DD	0f5H
	DD	0daH
	DD	01afH
	DD	0e2H
	DD	01afH
	DD	01afH
	DD	01afH
	DD	01afH
	DD	01afH
	DD	0ecH
	DD	01afH
	DD	0106H
	DD	0f6H
	DD	01afH
	DD	0e1H
	DD	0dfH
	DD	0e0H
	DD	0115H
	DD	0109H
	DD	0d2H
	DD	01afH
	DD	01afH
	DD	01afH
	DD	01afH
	DD	01afH
	DD	01afH
	DD	01afH
	DD	01afH
	DD	01afH
	DD	01afH
	DD	0e7H
	DD	0ebH
	DD	01afH
	DD	0129H
	DD	0fbH
	DD	0206H
	DD	01afH
	DD	0125H
	DD	0126H
	DD	0127H
	DD	0324H
	DD	01afH
	DD	01afH
	DD	01afH
	DD	01afH
	DD	01afH
	DD	01afH
	DD	01afH
	DD	01afH
	DD	01afH
	DD	01afH
	DD	01afH
	DD	01afH
	DD	0114H
	DD	010fH
	DD	0d7H
	DD	0f8H
	DD	0faH
	DD	01afH
	DD	0e4H
	DD	0e5H
	DD	0edH
	DD	0111H
	DD	0112H
	DD	01afH
	DD	01afH
	DD	0113H
	DD	0d1H
	DD	0d9H
	DD	0dbH
	DD	0dcH
	DD	0d8H
	DD	0100H
	DD	0f4H
	DD	0e8H
	DD	010aH
	DD	0121H
	DD	0117H
	DD	0118H
	DD	0119H
	DD	011aH
	DD	011bH
	DD	011cH
	DD	011dH
	DD	011eH
	DD	011fH
	DD	0120H
	DD	0327H
	DD	01afH
	DD	01afH
	DD	0d5H
	DD	0f7H
	DD	0feH
	DD	0101H
	DD	0108H
	DD	0110H
	DD	0104H
	DD	0e6H
	DD	0e9H
	DD	0e3H
	DD	01afH
	DD	01afH
	DD	01afH
	DD	01afH
	DD	01afH
	DD	01afH
	DD	01afH
	DD	01afH
	DD	01afH
	DD	01afH
	DD	01afH
	DD	01afH
	DD	01afH
	DD	01afH
	DD	0321H
	DD	01afH
	DD	01afH
	DD	01afH
	DD	01afH
	DD	01afH
_DATA	ENDS
;	COMDAT xdata$x
xdata$x	SEGMENT
__unwindtable$?MakeString@CData_ConditionTitle@@AAE?AV?$CStringT@DV?$StrTraitMFC_DLL@DV?$ChTraitsCRT@D@ATL@@@@@ATL@@ABV23@0@Z DD 0ffffffffH
	DD	FLAT:__unwindfunclet$?MakeString@CData_ConditionTitle@@AAE?AV?$CStringT@DV?$StrTraitMFC_DLL@DV?$ChTraitsCRT@D@ATL@@@@@ATL@@ABV23@0@Z$1
__ehfuncinfo$?MakeString@CData_ConditionTitle@@AAE?AV?$CStringT@DV?$StrTraitMFC_DLL@DV?$ChTraitsCRT@D@ATL@@@@@ATL@@ABV23@0@Z DD 019930522H
	DD	01H
	DD	FLAT:__unwindtable$?MakeString@CData_ConditionTitle@@AAE?AV?$CStringT@DV?$StrTraitMFC_DLL@DV?$ChTraitsCRT@D@ATL@@@@@ATL@@ABV23@0@Z
	DD	2 DUP(00H)
	DD	2 DUP(00H)
	DD	00H
	DD	01H
xdata$x	ENDS
;	COMDAT xdata$x
xdata$x	SEGMENT
__ehfuncinfo$?GetConditionTitle@CData_ConditionTitle@@QAE?AV?$CStringT@DV?$StrTraitMFC_DLL@DV?$ChTraitsCRT@D@ATL@@@@@ATL@@ABV23@@Z DD 019930522H
	DD	023H
	DD	FLAT:__unwindtable$?GetConditionTitle@CData_ConditionTitle@@QAE?AV?$CStringT@DV?$StrTraitMFC_DLL@DV?$ChTraitsCRT@D@ATL@@@@@ATL@@ABV23@@Z
	DD	2 DUP(00H)
	DD	2 DUP(00H)
	DD	00H
	DD	01H
__unwindtable$?GetConditionTitle@CData_ConditionTitle@@QAE?AV?$CStringT@DV?$StrTraitMFC_DLL@DV?$ChTraitsCRT@D@ATL@@@@@ATL@@ABV23@@Z DD 0ffffffffH
	DD	FLAT:__unwindfunclet$?GetConditionTitle@CData_ConditionTitle@@QAE?AV?$CStringT@DV?$StrTraitMFC_DLL@DV?$ChTraitsCRT@D@ATL@@@@@ATL@@ABV23@@Z$0
	DD	00H
	DD	FLAT:__unwindfunclet$?GetConditionTitle@CData_ConditionTitle@@QAE?AV?$CStringT@DV?$StrTraitMFC_DLL@DV?$ChTraitsCRT@D@ATL@@@@@ATL@@ABV23@@Z$1
	DD	00H
	DD	FLAT:__unwindfunclet$?GetConditionTitle@CData_ConditionTitle@@QAE?AV?$CStringT@DV?$StrTraitMFC_DLL@DV?$ChTraitsCRT@D@ATL@@@@@ATL@@ABV23@@Z$2
	DD	02H
	DD	FLAT:__unwindfunclet$?GetConditionTitle@CData_ConditionTitle@@QAE?AV?$CStringT@DV?$StrTraitMFC_DLL@DV?$ChTraitsCRT@D@ATL@@@@@ATL@@ABV23@@Z$3
	DD	03H
	DD	FLAT:__unwindfunclet$?GetConditionTitle@CData_ConditionTitle@@QAE?AV?$CStringT@DV?$StrTraitMFC_DLL@DV?$ChTraitsCRT@D@ATL@@@@@ATL@@ABV23@@Z$4
	DD	04H
	DD	FLAT:__unwindfunclet$?GetConditionTitle@CData_ConditionTitle@@QAE?AV?$CStringT@DV?$StrTraitMFC_DLL@DV?$ChTraitsCRT@D@ATL@@@@@ATL@@ABV23@@Z$5
	DD	05H
	DD	FLAT:__unwindfunclet$?GetConditionTitle@CData_ConditionTitle@@QAE?AV?$CStringT@DV?$StrTraitMFC_DLL@DV?$ChTraitsCRT@D@ATL@@@@@ATL@@ABV23@@Z$6
	DD	06H
	DD	FLAT:__unwindfunclet$?GetConditionTitle@CData_ConditionTitle@@QAE?AV?$CStringT@DV?$StrTraitMFC_DLL@DV?$ChTraitsCRT@D@ATL@@@@@ATL@@ABV23@@Z$7
	DD	07H
	DD	FLAT:__unwindfunclet$?GetConditionTitle@CData_ConditionTitle@@QAE?AV?$CStringT@DV?$StrTraitMFC_DLL@DV?$ChTraitsCRT@D@ATL@@@@@ATL@@ABV23@@Z$8
	DD	08H
	DD	FLAT:__unwindfunclet$?GetConditionTitle@CData_ConditionTitle@@QAE?AV?$CStringT@DV?$StrTraitMFC_DLL@DV?$ChTraitsCRT@D@ATL@@@@@ATL@@ABV23@@Z$9
	DD	09H
	DD	FLAT:__unwindfunclet$?GetConditionTitle@CData_ConditionTitle@@QAE?AV?$CStringT@DV?$StrTraitMFC_DLL@DV?$ChTraitsCRT@D@ATL@@@@@ATL@@ABV23@@Z$10
	DD	0aH
	DD	FLAT:__unwindfunclet$?GetConditionTitle@CData_ConditionTitle@@QAE?AV?$CStringT@DV?$StrTraitMFC_DLL@DV?$ChTraitsCRT@D@ATL@@@@@ATL@@ABV23@@Z$11
	DD	0bH
	DD	FLAT:__unwindfunclet$?GetConditionTitle@CData_ConditionTitle@@QAE?AV?$CStringT@DV?$StrTraitMFC_DLL@DV?$ChTraitsCRT@D@ATL@@@@@ATL@@ABV23@@Z$12
	DD	0cH
	DD	FLAT:__unwindfunclet$?GetConditionTitle@CData_ConditionTitle@@QAE?AV?$CStringT@DV?$StrTraitMFC_DLL@DV?$ChTraitsCRT@D@ATL@@@@@ATL@@ABV23@@Z$13
	DD	0dH
	DD	FLAT:__unwindfunclet$?GetConditionTitle@CData_ConditionTitle@@QAE?AV?$CStringT@DV?$StrTraitMFC_DLL@DV?$ChTraitsCRT@D@ATL@@@@@ATL@@ABV23@@Z$14
	DD	0eH
	DD	FLAT:__unwindfunclet$?GetConditionTitle@CData_ConditionTitle@@QAE?AV?$CStringT@DV?$StrTraitMFC_DLL@DV?$ChTraitsCRT@D@ATL@@@@@ATL@@ABV23@@Z$15
	DD	0fH
	DD	FLAT:__unwindfunclet$?GetConditionTitle@CData_ConditionTitle@@QAE?AV?$CStringT@DV?$StrTraitMFC_DLL@DV?$ChTraitsCRT@D@ATL@@@@@ATL@@ABV23@@Z$16
	DD	010H
	DD	FLAT:__unwindfunclet$?GetConditionTitle@CData_ConditionTitle@@QAE?AV?$CStringT@DV?$StrTraitMFC_DLL@DV?$ChTraitsCRT@D@ATL@@@@@ATL@@ABV23@@Z$17
	DD	011H
	DD	FLAT:__unwindfunclet$?GetConditionTitle@CData_ConditionTitle@@QAE?AV?$CStringT@DV?$StrTraitMFC_DLL@DV?$ChTraitsCRT@D@ATL@@@@@ATL@@ABV23@@Z$18
	DD	012H
	DD	FLAT:__unwindfunclet$?GetConditionTitle@CData_ConditionTitle@@QAE?AV?$CStringT@DV?$StrTraitMFC_DLL@DV?$ChTraitsCRT@D@ATL@@@@@ATL@@ABV23@@Z$19
	DD	013H
	DD	FLAT:__unwindfunclet$?GetConditionTitle@CData_ConditionTitle@@QAE?AV?$CStringT@DV?$StrTraitMFC_DLL@DV?$ChTraitsCRT@D@ATL@@@@@ATL@@ABV23@@Z$20
	DD	014H
	DD	FLAT:__unwindfunclet$?GetConditionTitle@CData_ConditionTitle@@QAE?AV?$CStringT@DV?$StrTraitMFC_DLL@DV?$ChTraitsCRT@D@ATL@@@@@ATL@@ABV23@@Z$21
	DD	015H
	DD	FLAT:__unwindfunclet$?GetConditionTitle@CData_ConditionTitle@@QAE?AV?$CStringT@DV?$StrTraitMFC_DLL@DV?$ChTraitsCRT@D@ATL@@@@@ATL@@ABV23@@Z$22
	DD	016H
	DD	FLAT:__unwindfunclet$?GetConditionTitle@CData_ConditionTitle@@QAE?AV?$CStringT@DV?$StrTraitMFC_DLL@DV?$ChTraitsCRT@D@ATL@@@@@ATL@@ABV23@@Z$23
	DD	017H
	DD	FLAT:__unwindfunclet$?GetConditionTitle@CData_ConditionTitle@@QAE?AV?$CStringT@DV?$StrTraitMFC_DLL@DV?$ChTraitsCRT@D@ATL@@@@@ATL@@ABV23@@Z$24
	DD	018H
	DD	FLAT:__unwindfunclet$?GetConditionTitle@CData_ConditionTitle@@QAE?AV?$CStringT@DV?$StrTraitMFC_DLL@DV?$ChTraitsCRT@D@ATL@@@@@ATL@@ABV23@@Z$25
	DD	019H
	DD	FLAT:__unwindfunclet$?GetConditionTitle@CData_ConditionTitle@@QAE?AV?$CStringT@DV?$StrTraitMFC_DLL@DV?$ChTraitsCRT@D@ATL@@@@@ATL@@ABV23@@Z$26
	DD	01aH
	DD	FLAT:__unwindfunclet$?GetConditionTitle@CData_ConditionTitle@@QAE?AV?$CStringT@DV?$StrTraitMFC_DLL@DV?$ChTraitsCRT@D@ATL@@@@@ATL@@ABV23@@Z$27
	DD	01bH
	DD	FLAT:__unwindfunclet$?GetConditionTitle@CData_ConditionTitle@@QAE?AV?$CStringT@DV?$StrTraitMFC_DLL@DV?$ChTraitsCRT@D@ATL@@@@@ATL@@ABV23@@Z$28
	DD	01cH
	DD	FLAT:__unwindfunclet$?GetConditionTitle@CData_ConditionTitle@@QAE?AV?$CStringT@DV?$StrTraitMFC_DLL@DV?$ChTraitsCRT@D@ATL@@@@@ATL@@ABV23@@Z$29
	DD	01dH
	DD	FLAT:__unwindfunclet$?GetConditionTitle@CData_ConditionTitle@@QAE?AV?$CStringT@DV?$StrTraitMFC_DLL@DV?$ChTraitsCRT@D@ATL@@@@@ATL@@ABV23@@Z$30
	DD	01eH
	DD	FLAT:__unwindfunclet$?GetConditionTitle@CData_ConditionTitle@@QAE?AV?$CStringT@DV?$StrTraitMFC_DLL@DV?$ChTraitsCRT@D@ATL@@@@@ATL@@ABV23@@Z$31
	DD	01fH
	DD	FLAT:__unwindfunclet$?GetConditionTitle@CData_ConditionTitle@@QAE?AV?$CStringT@DV?$StrTraitMFC_DLL@DV?$ChTraitsCRT@D@ATL@@@@@ATL@@ABV23@@Z$32
	DD	01fH
	DD	FLAT:__unwindfunclet$?GetConditionTitle@CData_ConditionTitle@@QAE?AV?$CStringT@DV?$StrTraitMFC_DLL@DV?$ChTraitsCRT@D@ATL@@@@@ATL@@ABV23@@Z$34
	DD	021H
	DD	FLAT:__unwindfunclet$?GetConditionTitle@CData_ConditionTitle@@QAE?AV?$CStringT@DV?$StrTraitMFC_DLL@DV?$ChTraitsCRT@D@ATL@@@@@ATL@@ABV23@@Z$36
xdata$x	ENDS
;	COMDAT xdata$x
xdata$x	SEGMENT
__unwindtable$??HATL@@YA?AV?$CStringT@DV?$StrTraitMFC_DLL@DV?$ChTraitsCRT@D@ATL@@@@@0@ABV10@0@Z DD 0ffffffffH
	DD	FLAT:__unwindfunclet$??HATL@@YA?AV?$CStringT@DV?$StrTraitMFC_DLL@DV?$ChTraitsCRT@D@ATL@@@@@0@ABV10@0@Z$0
__ehfuncinfo$??HATL@@YA?AV?$CStringT@DV?$StrTraitMFC_DLL@DV?$ChTraitsCRT@D@ATL@@@@@0@ABV10@0@Z DD 019930522H
	DD	01H
	DD	FLAT:__unwindtable$??HATL@@YA?AV?$CStringT@DV?$StrTraitMFC_DLL@DV?$ChTraitsCRT@D@ATL@@@@@0@ABV10@0@Z
	DD	2 DUP(00H)
	DD	2 DUP(00H)
	DD	00H
	DD	01H
xdata$x	ENDS
; Function compile flags: /Ogtp
; File D:\git\src\IBK\IBK_DRFN\ProjSrc\SrcChartEx\ChartAddIn\ChartEnvSetupDlgAddIn\ChartEnvSetupDlgAddIn\Data_ConditionTitle.cpp
; File C:\Program Files (x86)\Microsoft Visual Studio\2019\Community\VC\Tools\MSVC\14.29.30133\atlmfc\include\cstringt.h
; File D:\git\src\IBK\IBK_DRFN\ProjSrc\SrcChartEx\ChartAddIn\ChartEnvSetupDlgAddIn\ChartEnvSetupDlgAddIn\Data_ConditionTitle.cpp
; File C:\Program Files (x86)\Microsoft Visual Studio\2019\Community\VC\Tools\MSVC\14.29.30133\atlmfc\include\cstringt.h
; File C:\Program Files (x86)\Microsoft Visual Studio\2019\Community\VC\Tools\MSVC\14.29.30133\atlmfc\include\atlsimpstr.h
; File C:\Program Files (x86)\Microsoft Visual Studio\2019\Community\VC\Tools\MSVC\14.29.30133\atlmfc\include\cstringt.h
; File C:\Program Files (x86)\Microsoft Visual Studio\2019\Community\VC\Tools\MSVC\14.29.30133\atlmfc\include\atlsimpstr.h
; File C:\Program Files (x86)\Microsoft Visual Studio\2019\Community\VC\Tools\MSVC\14.29.30133\atlmfc\include\cstringt.h
; File D:\git\src\IBK\IBK_DRFN\ProjSrc\SrcChartEx\ChartAddIn\ChartEnvSetupDlgAddIn\ChartEnvSetupDlgAddIn\Data_ConditionTitle.cpp
;	COMDAT ?MakeString@CData_ConditionTitle@@AAE?AV?$CStringT@DV?$StrTraitMFC_DLL@DV?$ChTraitsCRT@D@ATL@@@@@ATL@@ABV23@0@Z
_TEXT	SEGMENT
$T2 = -16						; size = 4
__$EHRec$ = -12						; size = 12
___$ReturnUdt$ = 8					; size = 4
_title$ = 12						; size = 4
_compart$ = 16						; size = 4
?MakeString@CData_ConditionTitle@@AAE?AV?$CStringT@DV?$StrTraitMFC_DLL@DV?$ChTraitsCRT@D@ATL@@@@@ATL@@ABV23@0@Z PROC ; CData_ConditionTitle::MakeString, COMDAT
; _this$ = ecx

; 31   : {

  00000	55		 push	 ebp
  00001	8b ec		 mov	 ebp, esp
  00003	6a ff		 push	 -1
  00005	68 00 00 00 00	 push	 __ehhandler$?MakeString@CData_ConditionTitle@@AAE?AV?$CStringT@DV?$StrTraitMFC_DLL@DV?$ChTraitsCRT@D@ATL@@@@@ATL@@ABV23@0@Z
  0000a	64 a1 00 00 00
	00		 mov	 eax, DWORD PTR fs:0
  00010	50		 push	 eax
  00011	51		 push	 ecx
  00012	56		 push	 esi
  00013	57		 push	 edi
  00014	a1 00 00 00 00	 mov	 eax, DWORD PTR ___security_cookie
  00019	33 c5		 xor	 eax, ebp
  0001b	50		 push	 eax
  0001c	8d 45 f4	 lea	 eax, DWORD PTR __$EHRec$[ebp]
  0001f	64 a3 00 00 00
	00		 mov	 DWORD PTR fs:0, eax
  00025	c7 45 f0 00 00
	00 00		 mov	 DWORD PTR $T2[ebp], 0
; File C:\Program Files (x86)\Microsoft Visual Studio\2019\Community\VC\Tools\MSVC\14.29.30133\atlmfc\include\cstringt.h

; 2390 : 		CStringT strResult( str1.GetManager() );

  0002c	8b 75 0c	 mov	 esi, DWORD PTR _title$[ebp]
  0002f	8b ce		 mov	 ecx, esi
; File D:\git\src\IBK\IBK_DRFN\ProjSrc\SrcChartEx\ChartAddIn\ChartEnvSetupDlgAddIn\ChartEnvSetupDlgAddIn\Data_ConditionTitle.cpp

; 32   : 	return title + compart;

  00031	c7 45 fc 00 00
	00 00		 mov	 DWORD PTR __$EHRec$[ebp+8], 0
; File C:\Program Files (x86)\Microsoft Visual Studio\2019\Community\VC\Tools\MSVC\14.29.30133\atlmfc\include\cstringt.h

; 2390 : 		CStringT strResult( str1.GetManager() );

  00038	ff 15 00 00 00
	00		 call	 DWORD PTR __imp_?GetManager@?$CStringT@DV?$StrTraitMFC_DLL@DV?$ChTraitsCRT@D@ATL@@@@@ATL@@QBEPAUIAtlStringMgr@2@XZ
  0003e	8b 7d 08	 mov	 edi, DWORD PTR ___$ReturnUdt$[ebp]
  00041	8b cf		 mov	 ecx, edi
  00043	50		 push	 eax
  00044	ff 15 00 00 00
	00		 call	 DWORD PTR __imp_??0?$CStringT@DV?$StrTraitMFC_DLL@DV?$ChTraitsCRT@D@ATL@@@@@ATL@@QAE@PAUIAtlStringMgr@1@@Z
; File C:\Program Files (x86)\Microsoft Visual Studio\2019\Community\VC\Tools\MSVC\14.29.30133\atlmfc\include\atlsimpstr.h

; 519  : 		return( GetData()->nDataLength );

  0004a	8b 45 10	 mov	 eax, DWORD PTR _compart$[ebp]
  0004d	8b 16		 mov	 edx, DWORD PTR [esi]
; File C:\Program Files (x86)\Microsoft Visual Studio\2019\Community\VC\Tools\MSVC\14.29.30133\atlmfc\include\cstringt.h

; 2394 : 		return( strResult );

  0004f	c7 45 f0 02 00
	00 00		 mov	 DWORD PTR $T2[ebp], 2
; File C:\Program Files (x86)\Microsoft Visual Studio\2019\Community\VC\Tools\MSVC\14.29.30133\atlmfc\include\atlsimpstr.h

; 519  : 		return( GetData()->nDataLength );

  00056	8b 08		 mov	 ecx, DWORD PTR [eax]
; File C:\Program Files (x86)\Microsoft Visual Studio\2019\Community\VC\Tools\MSVC\14.29.30133\atlmfc\include\cstringt.h

; 2392 : 		CThisSimpleString::Concatenate( strResult, str1, str1.GetLength(), str2, str2.GetLength() );

  00058	ff 71 f4	 push	 DWORD PTR [ecx-12]
  0005b	51		 push	 ecx
  0005c	ff 72 f4	 push	 DWORD PTR [edx-12]
  0005f	52		 push	 edx
  00060	57		 push	 edi
  00061	ff 15 00 00 00
	00		 call	 DWORD PTR __imp_?Concatenate@?$CSimpleStringT@D$00@ATL@@KAXAAV12@PBDH1H@Z
  00067	83 c4 14	 add	 esp, 20			; 00000014H
; File D:\git\src\IBK\IBK_DRFN\ProjSrc\SrcChartEx\ChartAddIn\ChartEnvSetupDlgAddIn\ChartEnvSetupDlgAddIn\Data_ConditionTitle.cpp

; 32   : 	return title + compart;

  0006a	8b c7		 mov	 eax, edi

; 33   : }

  0006c	8b 4d f4	 mov	 ecx, DWORD PTR __$EHRec$[ebp]
  0006f	64 89 0d 00 00
	00 00		 mov	 DWORD PTR fs:0, ecx
  00076	59		 pop	 ecx
  00077	5f		 pop	 edi
  00078	5e		 pop	 esi
  00079	8b e5		 mov	 esp, ebp
  0007b	5d		 pop	 ebp
  0007c	c2 0c 00	 ret	 12			; 0000000cH
_TEXT	ENDS
;	COMDAT text$x
text$x	SEGMENT
__unwindfunclet$?MakeString@CData_ConditionTitle@@AAE?AV?$CStringT@DV?$StrTraitMFC_DLL@DV?$ChTraitsCRT@D@ATL@@@@@ATL@@ABV23@0@Z$1:
  00000	8b 45 f0	 mov	 eax, DWORD PTR $T2[ebp]
  00003	83 e0 02	 and	 eax, 2
  00006	0f 84 0d 00 00
	00		 je	 $LN8@MakeString
  0000c	83 65 f0 fd	 and	 DWORD PTR $T2[ebp], -3	; fffffffdH
  00010	8b 4d 08	 mov	 ecx, DWORD PTR ___$ReturnUdt$[ebp]
  00013	ff 25 00 00 00
	00		 jmp	 DWORD PTR __imp_??1?$CStringT@DV?$StrTraitMFC_DLL@DV?$ChTraitsCRT@D@ATL@@@@@ATL@@QAE@XZ
$LN8@MakeString:
  00019	c3		 ret	 0
  0001a	cc		 int	 3
  0001b	cc		 int	 3
  0001c	cc		 int	 3
  0001d	cc		 int	 3
  0001e	cc		 int	 3
__ehhandler$?MakeString@CData_ConditionTitle@@AAE?AV?$CStringT@DV?$StrTraitMFC_DLL@DV?$ChTraitsCRT@D@ATL@@@@@ATL@@ABV23@0@Z:
  0001f	90		 npad	 1
  00020	90		 npad	 1
  00021	8b 54 24 08	 mov	 edx, DWORD PTR [esp+8]
  00025	8d 42 0c	 lea	 eax, DWORD PTR [edx+12]
  00028	8b 4a f0	 mov	 ecx, DWORD PTR [edx-16]
  0002b	33 c8		 xor	 ecx, eax
  0002d	e8 00 00 00 00	 call	 @__security_check_cookie@4
  00032	b8 00 00 00 00	 mov	 eax, OFFSET __ehfuncinfo$?MakeString@CData_ConditionTitle@@AAE?AV?$CStringT@DV?$StrTraitMFC_DLL@DV?$ChTraitsCRT@D@ATL@@@@@ATL@@ABV23@0@Z
  00037	e9 00 00 00 00	 jmp	 ___CxxFrameHandler3
text$x	ENDS
?MakeString@CData_ConditionTitle@@AAE?AV?$CStringT@DV?$StrTraitMFC_DLL@DV?$ChTraitsCRT@D@ATL@@@@@ATL@@ABV23@0@Z ENDP ; CData_ConditionTitle::MakeString
; Function compile flags: /Ogtp
; File D:\git\src\IBK\IBK_DRFN\ProjSrc\SrcChartEx\ChartAddIn\ChartEnvSetupDlgAddIn\ChartEnvSetupDlgAddIn\Data_ConditionTitle.cpp
; File C:\Program Files (x86)\Microsoft Visual Studio\2019\Community\VC\Tools\MSVC\14.29.30133\atlmfc\include\cstringt.h
; File D:\git\src\IBK\IBK_DRFN\ProjSrc\SrcChartEx\ChartAddIn\ChartEnvSetupDlgAddIn\ChartEnvSetupDlgAddIn\Data_ConditionTitle.cpp
; File C:\Program Files (x86)\Microsoft Visual Studio\2019\Community\VC\Tools\MSVC\14.29.30133\atlmfc\include\cstringt.h
; File D:\git\src\IBK\IBK_DRFN\ProjSrc\SrcChartEx\ChartAddIn\ChartEnvSetupDlgAddIn\ChartEnvSetupDlgAddIn\Data_ConditionTitle.cpp
;	COMDAT ?GetConditionTitle@CData_ConditionTitle@@QAE?AV?$CStringT@DV?$StrTraitMFC_DLL@DV?$ChTraitsCRT@D@ATL@@@@@ATL@@ABV23@@Z
_TEXT	SEGMENT
$T2 = -140						; size = 4
$T3 = -136						; size = 4
_strData$4 = -136					; size = 4
$T5 = -136						; size = 4
_indicatorname$ = -132					; size = 4
_strIncInterval$ = -128					; size = 4
_strMALineNum$ = -124					; size = 4
_strStandardPeriod$ = -120				; size = 4
_strConversePeriod$ = -116				; size = 4
_strBulkNum$ = -112					; size = 4
_strUpperPer$ = -108					; size = 4
_strPre$ = -104						; size = 4
_strPost$ = -100					; size = 4
_strLowerPer$ = -96					; size = 4
_strReversePer$ = -92					; size = 4
_strDisparity$ = -88					; size = 4
_strDisparityPeriod$ = -84				; size = 4
_strShortTerm$ = -80					; size = 4
_strLongTerm$ = -76					; size = 4
_strSD$ = -72						; size = 4
_strMomentumPeriod$ = -68				; size = 4
_strMomentum$ = -64					; size = 4
_strComparePeriod$ = -60				; size = 4
_strPsychologyPeriod$ = -56				; size = 4
_strAccVariable$ = -52					; size = 4
_strMaxValue$ = -48					; size = 4
_strCumPeriod$ = -44					; size = 4
_strSEMulti$ = -40					; size = 4
_strIntervalNum$ = -36					; size = 4
_strSDMulti$ = -32					; size = 4
_strShortMA$ = -28					; size = 4
_strLongMA$ = -24					; size = 4
_strMaPeriod$ = -20					; size = 4
_strPeriod$ = -16					; size = 4
__$EHRec$ = -12						; size = 12
___$ReturnUdt$ = 8					; size = 4
_retValue$ = 12						; size = 4
_strIndicatorName$ = 12					; size = 4
?GetConditionTitle@CData_ConditionTitle@@QAE?AV?$CStringT@DV?$StrTraitMFC_DLL@DV?$ChTraitsCRT@D@ATL@@@@@ATL@@ABV23@@Z PROC ; CData_ConditionTitle::GetConditionTitle, COMDAT
; _this$ = ecx

; 43   : {	

  00000	55		 push	 ebp
  00001	8b ec		 mov	 ebp, esp
  00003	6a ff		 push	 -1
  00005	68 00 00 00 00	 push	 __ehhandler$?GetConditionTitle@CData_ConditionTitle@@QAE?AV?$CStringT@DV?$StrTraitMFC_DLL@DV?$ChTraitsCRT@D@ATL@@@@@ATL@@ABV23@@Z
  0000a	64 a1 00 00 00
	00		 mov	 eax, DWORD PTR fs:0
  00010	50		 push	 eax
  00011	81 ec 80 00 00
	00		 sub	 esp, 128		; 00000080H
  00017	56		 push	 esi
  00018	57		 push	 edi
  00019	a1 00 00 00 00	 mov	 eax, DWORD PTR ___security_cookie
  0001e	33 c5		 xor	 eax, ebp
  00020	50		 push	 eax
  00021	8d 45 f4	 lea	 eax, DWORD PTR __$EHRec$[ebp]
  00024	64 a3 00 00 00
	00		 mov	 DWORD PTR fs:0, eax
  0002a	c7 85 74 ff ff
	ff 00 00 00 00	 mov	 DWORD PTR $T2[ebp], 0

; 44   : 	CString indicatorname = strIndicatorName;

  00034	8d 8d 7c ff ff
	ff		 lea	 ecx, DWORD PTR _indicatorname$[ebp]
  0003a	8b 75 0c	 mov	 esi, DWORD PTR _strIndicatorName$[ebp]
  0003d	56		 push	 esi
  0003e	ff 15 00 00 00
	00		 call	 DWORD PTR __imp_??0?$CStringT@DV?$StrTraitMFC_DLL@DV?$ChTraitsCRT@D@ATL@@@@@ATL@@QAE@ABV01@@Z

; 45   : 	indicatorname = CFindType::FindStochastics( strIndicatorName );

  00044	8d 85 78 ff ff
	ff		 lea	 eax, DWORD PTR $T5[ebp]
  0004a	c7 45 fc 00 00
	00 00		 mov	 DWORD PTR __$EHRec$[ebp+8], 0
  00051	56		 push	 esi
  00052	50		 push	 eax
  00053	e8 00 00 00 00	 call	 ?FindStochastics@CFindType@@SA?AV?$CStringT@DV?$StrTraitMFC_DLL@DV?$ChTraitsCRT@D@ATL@@@@@ATL@@ABV23@@Z ; CFindType::FindStochastics
  00058	83 c4 08	 add	 esp, 8
  0005b	50		 push	 eax
  0005c	8d 8d 7c ff ff
	ff		 lea	 ecx, DWORD PTR _indicatorname$[ebp]
  00062	c6 45 fc 01	 mov	 BYTE PTR __$EHRec$[ebp+8], 1
  00066	ff 15 00 00 00
	00		 call	 DWORD PTR __imp_??4?$CStringT@DV?$StrTraitMFC_DLL@DV?$ChTraitsCRT@D@ATL@@@@@ATL@@QAEAAV01@ABV01@@Z
  0006c	8d 8d 78 ff ff
	ff		 lea	 ecx, DWORD PTR $T5[ebp]
  00072	ff 15 00 00 00
	00		 call	 DWORD PTR __imp_??1?$CStringT@DV?$StrTraitMFC_DLL@DV?$ChTraitsCRT@D@ATL@@@@@ATL@@QAE@XZ

; 46   : 
; 47   : // 2008.02.04 by LYH >>	
; 48   : 	CString strMaPeriod, strPeriod, strIncInterval, strMALineNum, strIntervalNum;

  00078	8d 4d ec	 lea	 ecx, DWORD PTR _strMaPeriod$[ebp]
  0007b	ff 15 00 00 00
	00		 call	 DWORD PTR __imp_??0?$CStringT@DV?$StrTraitMFC_DLL@DV?$ChTraitsCRT@D@ATL@@@@@ATL@@QAE@XZ
  00081	8d 4d f0	 lea	 ecx, DWORD PTR _strPeriod$[ebp]
  00084	ff 15 00 00 00
	00		 call	 DWORD PTR __imp_??0?$CStringT@DV?$StrTraitMFC_DLL@DV?$ChTraitsCRT@D@ATL@@@@@ATL@@QAE@XZ
  0008a	8d 4d 80	 lea	 ecx, DWORD PTR _strIncInterval$[ebp]
  0008d	ff 15 00 00 00
	00		 call	 DWORD PTR __imp_??0?$CStringT@DV?$StrTraitMFC_DLL@DV?$ChTraitsCRT@D@ATL@@@@@ATL@@QAE@XZ
  00093	8d 4d 84	 lea	 ecx, DWORD PTR _strMALineNum$[ebp]
  00096	ff 15 00 00 00
	00		 call	 DWORD PTR __imp_??0?$CStringT@DV?$StrTraitMFC_DLL@DV?$ChTraitsCRT@D@ATL@@@@@ATL@@QAE@XZ
  0009c	8d 4d dc	 lea	 ecx, DWORD PTR _strIntervalNum$[ebp]
  0009f	ff 15 00 00 00
	00		 call	 DWORD PTR __imp_??0?$CStringT@DV?$StrTraitMFC_DLL@DV?$ChTraitsCRT@D@ATL@@@@@ATL@@QAE@XZ

; 49   : 	strMaPeriod.LoadString(IDS_MA_PERIOD);

  000a5	6a 2f		 push	 47			; 0000002fH
  000a7	8d 4d ec	 lea	 ecx, DWORD PTR _strMaPeriod$[ebp]
  000aa	c6 45 fc 06	 mov	 BYTE PTR __$EHRec$[ebp+8], 6
  000ae	ff 15 00 00 00
	00		 call	 DWORD PTR __imp_?LoadStringA@?$CStringT@DV?$StrTraitMFC_DLL@DV?$ChTraitsCRT@D@ATL@@@@@ATL@@QAEHI@Z

; 50   : 	strPeriod.LoadString(IDS_PERIOD);

  000b4	6a 30		 push	 48			; 00000030H
  000b6	8d 4d f0	 lea	 ecx, DWORD PTR _strPeriod$[ebp]
  000b9	ff 15 00 00 00
	00		 call	 DWORD PTR __imp_?LoadStringA@?$CStringT@DV?$StrTraitMFC_DLL@DV?$ChTraitsCRT@D@ATL@@@@@ATL@@QAEHI@Z

; 51   : 	strIncInterval.LoadString(IDS_INC_INTERVAL);

  000bf	6a 31		 push	 49			; 00000031H
  000c1	8d 4d 80	 lea	 ecx, DWORD PTR _strIncInterval$[ebp]
  000c4	ff 15 00 00 00
	00		 call	 DWORD PTR __imp_?LoadStringA@?$CStringT@DV?$StrTraitMFC_DLL@DV?$ChTraitsCRT@D@ATL@@@@@ATL@@QAEHI@Z

; 52   : 	strMALineNum.LoadString(IDS_MA_LINE_NUM);

  000ca	6a 32		 push	 50			; 00000032H
  000cc	8d 4d 84	 lea	 ecx, DWORD PTR _strMALineNum$[ebp]
  000cf	ff 15 00 00 00
	00		 call	 DWORD PTR __imp_?LoadStringA@?$CStringT@DV?$StrTraitMFC_DLL@DV?$ChTraitsCRT@D@ATL@@@@@ATL@@QAEHI@Z

; 53   : 	strIntervalNum.LoadString(IDS_INTERVAL_NUM);

  000d5	6a 33		 push	 51			; 00000033H
  000d7	8d 4d dc	 lea	 ecx, DWORD PTR _strIntervalNum$[ebp]
  000da	ff 15 00 00 00
	00		 call	 DWORD PTR __imp_?LoadStringA@?$CStringT@DV?$StrTraitMFC_DLL@DV?$ChTraitsCRT@D@ATL@@@@@ATL@@QAEHI@Z

; 54   : 
; 55   : 	CString strStandardPeriod, strConversePeriod, strSDMulti, strBulkNum, strUpperPer, strPre, strPost;

  000e0	8d 4d 88	 lea	 ecx, DWORD PTR _strStandardPeriod$[ebp]
  000e3	ff 15 00 00 00
	00		 call	 DWORD PTR __imp_??0?$CStringT@DV?$StrTraitMFC_DLL@DV?$ChTraitsCRT@D@ATL@@@@@ATL@@QAE@XZ
  000e9	8d 4d 8c	 lea	 ecx, DWORD PTR _strConversePeriod$[ebp]
  000ec	ff 15 00 00 00
	00		 call	 DWORD PTR __imp_??0?$CStringT@DV?$StrTraitMFC_DLL@DV?$ChTraitsCRT@D@ATL@@@@@ATL@@QAE@XZ
  000f2	8d 4d e0	 lea	 ecx, DWORD PTR _strSDMulti$[ebp]
  000f5	ff 15 00 00 00
	00		 call	 DWORD PTR __imp_??0?$CStringT@DV?$StrTraitMFC_DLL@DV?$ChTraitsCRT@D@ATL@@@@@ATL@@QAE@XZ
  000fb	8d 4d 90	 lea	 ecx, DWORD PTR _strBulkNum$[ebp]
  000fe	ff 15 00 00 00
	00		 call	 DWORD PTR __imp_??0?$CStringT@DV?$StrTraitMFC_DLL@DV?$ChTraitsCRT@D@ATL@@@@@ATL@@QAE@XZ
  00104	8d 4d 94	 lea	 ecx, DWORD PTR _strUpperPer$[ebp]
  00107	ff 15 00 00 00
	00		 call	 DWORD PTR __imp_??0?$CStringT@DV?$StrTraitMFC_DLL@DV?$ChTraitsCRT@D@ATL@@@@@ATL@@QAE@XZ
  0010d	8d 4d 98	 lea	 ecx, DWORD PTR _strPre$[ebp]
  00110	ff 15 00 00 00
	00		 call	 DWORD PTR __imp_??0?$CStringT@DV?$StrTraitMFC_DLL@DV?$ChTraitsCRT@D@ATL@@@@@ATL@@QAE@XZ
  00116	8d 4d 9c	 lea	 ecx, DWORD PTR _strPost$[ebp]
  00119	ff 15 00 00 00
	00		 call	 DWORD PTR __imp_??0?$CStringT@DV?$StrTraitMFC_DLL@DV?$ChTraitsCRT@D@ATL@@@@@ATL@@QAE@XZ

; 56   : 	strStandardPeriod.LoadString(IDS_STANDARD_PERIOD);

  0011f	6a 34		 push	 52			; 00000034H
  00121	8d 4d 88	 lea	 ecx, DWORD PTR _strStandardPeriod$[ebp]
  00124	c6 45 fc 0d	 mov	 BYTE PTR __$EHRec$[ebp+8], 13 ; 0000000dH
  00128	ff 15 00 00 00
	00		 call	 DWORD PTR __imp_?LoadStringA@?$CStringT@DV?$StrTraitMFC_DLL@DV?$ChTraitsCRT@D@ATL@@@@@ATL@@QAEHI@Z

; 57   : 	strConversePeriod.LoadString(IDS_CONVERSE_PERIOD);

  0012e	6a 35		 push	 53			; 00000035H
  00130	8d 4d 8c	 lea	 ecx, DWORD PTR _strConversePeriod$[ebp]
  00133	ff 15 00 00 00
	00		 call	 DWORD PTR __imp_?LoadStringA@?$CStringT@DV?$StrTraitMFC_DLL@DV?$ChTraitsCRT@D@ATL@@@@@ATL@@QAEHI@Z

; 58   : 	strSDMulti.LoadString(IDS_SD_MULTI);

  00139	6a 36		 push	 54			; 00000036H
  0013b	8d 4d e0	 lea	 ecx, DWORD PTR _strSDMulti$[ebp]
  0013e	ff 15 00 00 00
	00		 call	 DWORD PTR __imp_?LoadStringA@?$CStringT@DV?$StrTraitMFC_DLL@DV?$ChTraitsCRT@D@ATL@@@@@ATL@@QAEHI@Z

; 59   : 	strBulkNum.LoadString(IDS_BULK_NUM);

  00144	6a 37		 push	 55			; 00000037H
  00146	8d 4d 90	 lea	 ecx, DWORD PTR _strBulkNum$[ebp]
  00149	ff 15 00 00 00
	00		 call	 DWORD PTR __imp_?LoadStringA@?$CStringT@DV?$StrTraitMFC_DLL@DV?$ChTraitsCRT@D@ATL@@@@@ATL@@QAEHI@Z

; 60   : 	strUpperPer.LoadString(IDS_UPPER_PER);

  0014f	6a 38		 push	 56			; 00000038H
  00151	8d 4d 94	 lea	 ecx, DWORD PTR _strUpperPer$[ebp]
  00154	ff 15 00 00 00
	00		 call	 DWORD PTR __imp_?LoadStringA@?$CStringT@DV?$StrTraitMFC_DLL@DV?$ChTraitsCRT@D@ATL@@@@@ATL@@QAEHI@Z

; 61   : 	strPre.LoadString(IDS_PRE);

  0015a	6a 5b		 push	 91			; 0000005bH
  0015c	8d 4d 98	 lea	 ecx, DWORD PTR _strPre$[ebp]
  0015f	ff 15 00 00 00
	00		 call	 DWORD PTR __imp_?LoadStringA@?$CStringT@DV?$StrTraitMFC_DLL@DV?$ChTraitsCRT@D@ATL@@@@@ATL@@QAEHI@Z

; 62   : 	strPost.LoadString(IDS_POST);

  00165	6a 5c		 push	 92			; 0000005cH
  00167	8d 4d 9c	 lea	 ecx, DWORD PTR _strPost$[ebp]
  0016a	ff 15 00 00 00
	00		 call	 DWORD PTR __imp_?LoadStringA@?$CStringT@DV?$StrTraitMFC_DLL@DV?$ChTraitsCRT@D@ATL@@@@@ATL@@QAEHI@Z

; 63   : 
; 64   : 	CString strLowerPer, strReversePer, strDisparity, strDisparityPeriod, strShortTerm;

  00170	8d 4d a0	 lea	 ecx, DWORD PTR _strLowerPer$[ebp]
  00173	ff 15 00 00 00
	00		 call	 DWORD PTR __imp_??0?$CStringT@DV?$StrTraitMFC_DLL@DV?$ChTraitsCRT@D@ATL@@@@@ATL@@QAE@XZ
  00179	8d 4d a4	 lea	 ecx, DWORD PTR _strReversePer$[ebp]
  0017c	ff 15 00 00 00
	00		 call	 DWORD PTR __imp_??0?$CStringT@DV?$StrTraitMFC_DLL@DV?$ChTraitsCRT@D@ATL@@@@@ATL@@QAE@XZ
  00182	8d 4d a8	 lea	 ecx, DWORD PTR _strDisparity$[ebp]
  00185	ff 15 00 00 00
	00		 call	 DWORD PTR __imp_??0?$CStringT@DV?$StrTraitMFC_DLL@DV?$ChTraitsCRT@D@ATL@@@@@ATL@@QAE@XZ
  0018b	8d 4d ac	 lea	 ecx, DWORD PTR _strDisparityPeriod$[ebp]
  0018e	ff 15 00 00 00
	00		 call	 DWORD PTR __imp_??0?$CStringT@DV?$StrTraitMFC_DLL@DV?$ChTraitsCRT@D@ATL@@@@@ATL@@QAE@XZ
  00194	8d 4d b0	 lea	 ecx, DWORD PTR _strShortTerm$[ebp]
  00197	ff 15 00 00 00
	00		 call	 DWORD PTR __imp_??0?$CStringT@DV?$StrTraitMFC_DLL@DV?$ChTraitsCRT@D@ATL@@@@@ATL@@QAE@XZ

; 65   : 	strLowerPer.LoadString(IDS_LOWER_PER);

  0019d	6a 39		 push	 57			; 00000039H
  0019f	8d 4d a0	 lea	 ecx, DWORD PTR _strLowerPer$[ebp]
  001a2	c6 45 fc 12	 mov	 BYTE PTR __$EHRec$[ebp+8], 18 ; 00000012H
  001a6	ff 15 00 00 00
	00		 call	 DWORD PTR __imp_?LoadStringA@?$CStringT@DV?$StrTraitMFC_DLL@DV?$ChTraitsCRT@D@ATL@@@@@ATL@@QAEHI@Z

; 66   : 	strReversePer.LoadString(IDS_REVERSE_PER);

  001ac	6a 3a		 push	 58			; 0000003aH
  001ae	8d 4d a4	 lea	 ecx, DWORD PTR _strReversePer$[ebp]
  001b1	ff 15 00 00 00
	00		 call	 DWORD PTR __imp_?LoadStringA@?$CStringT@DV?$StrTraitMFC_DLL@DV?$ChTraitsCRT@D@ATL@@@@@ATL@@QAEHI@Z

; 67   : 	strDisparity.LoadString(IDS_DISPARITY);

  001b7	6a 3b		 push	 59			; 0000003bH
  001b9	8d 4d a8	 lea	 ecx, DWORD PTR _strDisparity$[ebp]
  001bc	ff 15 00 00 00
	00		 call	 DWORD PTR __imp_?LoadStringA@?$CStringT@DV?$StrTraitMFC_DLL@DV?$ChTraitsCRT@D@ATL@@@@@ATL@@QAEHI@Z

; 68   : 	strDisparityPeriod.LoadString(IDS_DISPARITY_PERIOD);

  001c2	6a 3c		 push	 60			; 0000003cH
  001c4	8d 4d ac	 lea	 ecx, DWORD PTR _strDisparityPeriod$[ebp]
  001c7	ff 15 00 00 00
	00		 call	 DWORD PTR __imp_?LoadStringA@?$CStringT@DV?$StrTraitMFC_DLL@DV?$ChTraitsCRT@D@ATL@@@@@ATL@@QAEHI@Z

; 69   : 	strShortTerm.LoadString(IDS_SHORT_TERM);

  001cd	6a 3d		 push	 61			; 0000003dH
  001cf	8d 4d b0	 lea	 ecx, DWORD PTR _strShortTerm$[ebp]
  001d2	ff 15 00 00 00
	00		 call	 DWORD PTR __imp_?LoadStringA@?$CStringT@DV?$StrTraitMFC_DLL@DV?$ChTraitsCRT@D@ATL@@@@@ATL@@QAEHI@Z

; 70   : 
; 71   : 	CString strLongTerm, strSD, strShortMA, strLongMA, strMomentumPeriod;

  001d8	8d 4d b4	 lea	 ecx, DWORD PTR _strLongTerm$[ebp]
  001db	ff 15 00 00 00
	00		 call	 DWORD PTR __imp_??0?$CStringT@DV?$StrTraitMFC_DLL@DV?$ChTraitsCRT@D@ATL@@@@@ATL@@QAE@XZ
  001e1	8d 4d b8	 lea	 ecx, DWORD PTR _strSD$[ebp]
  001e4	ff 15 00 00 00
	00		 call	 DWORD PTR __imp_??0?$CStringT@DV?$StrTraitMFC_DLL@DV?$ChTraitsCRT@D@ATL@@@@@ATL@@QAE@XZ
  001ea	8d 4d e4	 lea	 ecx, DWORD PTR _strShortMA$[ebp]
  001ed	ff 15 00 00 00
	00		 call	 DWORD PTR __imp_??0?$CStringT@DV?$StrTraitMFC_DLL@DV?$ChTraitsCRT@D@ATL@@@@@ATL@@QAE@XZ
  001f3	8d 4d e8	 lea	 ecx, DWORD PTR _strLongMA$[ebp]
  001f6	ff 15 00 00 00
	00		 call	 DWORD PTR __imp_??0?$CStringT@DV?$StrTraitMFC_DLL@DV?$ChTraitsCRT@D@ATL@@@@@ATL@@QAE@XZ
  001fc	8d 4d bc	 lea	 ecx, DWORD PTR _strMomentumPeriod$[ebp]
  001ff	ff 15 00 00 00
	00		 call	 DWORD PTR __imp_??0?$CStringT@DV?$StrTraitMFC_DLL@DV?$ChTraitsCRT@D@ATL@@@@@ATL@@QAE@XZ

; 72   : 	strLongTerm.LoadString(IDS_LONG_TERM);

  00205	6a 3e		 push	 62			; 0000003eH
  00207	8d 4d b4	 lea	 ecx, DWORD PTR _strLongTerm$[ebp]
  0020a	c6 45 fc 17	 mov	 BYTE PTR __$EHRec$[ebp+8], 23 ; 00000017H
  0020e	ff 15 00 00 00
	00		 call	 DWORD PTR __imp_?LoadStringA@?$CStringT@DV?$StrTraitMFC_DLL@DV?$ChTraitsCRT@D@ATL@@@@@ATL@@QAEHI@Z

; 73   : 	strSD.LoadString(IDS_STRING_SD);

  00214	6a 3f		 push	 63			; 0000003fH
  00216	8d 4d b8	 lea	 ecx, DWORD PTR _strSD$[ebp]
  00219	ff 15 00 00 00
	00		 call	 DWORD PTR __imp_?LoadStringA@?$CStringT@DV?$StrTraitMFC_DLL@DV?$ChTraitsCRT@D@ATL@@@@@ATL@@QAEHI@Z

; 74   : 	strShortMA.LoadString(IDS_SHORT_MA);

  0021f	6a 40		 push	 64			; 00000040H
  00221	8d 4d e4	 lea	 ecx, DWORD PTR _strShortMA$[ebp]
  00224	ff 15 00 00 00
	00		 call	 DWORD PTR __imp_?LoadStringA@?$CStringT@DV?$StrTraitMFC_DLL@DV?$ChTraitsCRT@D@ATL@@@@@ATL@@QAEHI@Z

; 75   : 	strLongMA.LoadString(IDS_LONG_MA);

  0022a	6a 41		 push	 65			; 00000041H
  0022c	8d 4d e8	 lea	 ecx, DWORD PTR _strLongMA$[ebp]
  0022f	ff 15 00 00 00
	00		 call	 DWORD PTR __imp_?LoadStringA@?$CStringT@DV?$StrTraitMFC_DLL@DV?$ChTraitsCRT@D@ATL@@@@@ATL@@QAEHI@Z

; 76   : 	strMomentumPeriod.LoadString(IDS_MOMENTUM_PERIOD);

  00235	6a 42		 push	 66			; 00000042H
  00237	8d 4d bc	 lea	 ecx, DWORD PTR _strMomentumPeriod$[ebp]
  0023a	ff 15 00 00 00
	00		 call	 DWORD PTR __imp_?LoadStringA@?$CStringT@DV?$StrTraitMFC_DLL@DV?$ChTraitsCRT@D@ATL@@@@@ATL@@QAEHI@Z

; 77   : 
; 78   : 	CString strMomentum, strComparePeriod, strPsychologyPeriod, strSEMulti, strAccVariable, strMaxValue, strCumPeriod;

  00240	8d 4d c0	 lea	 ecx, DWORD PTR _strMomentum$[ebp]
  00243	ff 15 00 00 00
	00		 call	 DWORD PTR __imp_??0?$CStringT@DV?$StrTraitMFC_DLL@DV?$ChTraitsCRT@D@ATL@@@@@ATL@@QAE@XZ
  00249	8d 4d c4	 lea	 ecx, DWORD PTR _strComparePeriod$[ebp]
  0024c	ff 15 00 00 00
	00		 call	 DWORD PTR __imp_??0?$CStringT@DV?$StrTraitMFC_DLL@DV?$ChTraitsCRT@D@ATL@@@@@ATL@@QAE@XZ
  00252	8d 4d c8	 lea	 ecx, DWORD PTR _strPsychologyPeriod$[ebp]
  00255	ff 15 00 00 00
	00		 call	 DWORD PTR __imp_??0?$CStringT@DV?$StrTraitMFC_DLL@DV?$ChTraitsCRT@D@ATL@@@@@ATL@@QAE@XZ
  0025b	8d 4d d8	 lea	 ecx, DWORD PTR _strSEMulti$[ebp]
  0025e	ff 15 00 00 00
	00		 call	 DWORD PTR __imp_??0?$CStringT@DV?$StrTraitMFC_DLL@DV?$ChTraitsCRT@D@ATL@@@@@ATL@@QAE@XZ
  00264	8d 4d cc	 lea	 ecx, DWORD PTR _strAccVariable$[ebp]
  00267	ff 15 00 00 00
	00		 call	 DWORD PTR __imp_??0?$CStringT@DV?$StrTraitMFC_DLL@DV?$ChTraitsCRT@D@ATL@@@@@ATL@@QAE@XZ
  0026d	8d 4d d0	 lea	 ecx, DWORD PTR _strMaxValue$[ebp]
  00270	ff 15 00 00 00
	00		 call	 DWORD PTR __imp_??0?$CStringT@DV?$StrTraitMFC_DLL@DV?$ChTraitsCRT@D@ATL@@@@@ATL@@QAE@XZ
  00276	8d 4d d4	 lea	 ecx, DWORD PTR _strCumPeriod$[ebp]
  00279	ff 15 00 00 00
	00		 call	 DWORD PTR __imp_??0?$CStringT@DV?$StrTraitMFC_DLL@DV?$ChTraitsCRT@D@ATL@@@@@ATL@@QAE@XZ

; 79   : 	strMomentum.LoadString(IDS_MOMENTUM);

  0027f	6a 43		 push	 67			; 00000043H
  00281	8d 4d c0	 lea	 ecx, DWORD PTR _strMomentum$[ebp]
  00284	c6 45 fc 1e	 mov	 BYTE PTR __$EHRec$[ebp+8], 30 ; 0000001eH
  00288	ff 15 00 00 00
	00		 call	 DWORD PTR __imp_?LoadStringA@?$CStringT@DV?$StrTraitMFC_DLL@DV?$ChTraitsCRT@D@ATL@@@@@ATL@@QAEHI@Z

; 80   : 	strComparePeriod.LoadString(IDS_COMPARE_PERIOD);

  0028e	6a 44		 push	 68			; 00000044H
  00290	8d 4d c4	 lea	 ecx, DWORD PTR _strComparePeriod$[ebp]
  00293	ff 15 00 00 00
	00		 call	 DWORD PTR __imp_?LoadStringA@?$CStringT@DV?$StrTraitMFC_DLL@DV?$ChTraitsCRT@D@ATL@@@@@ATL@@QAEHI@Z

; 81   : 	strPsychologyPeriod.LoadString(IDS_PSYCHOLOGY_PERIOD);

  00299	6a 45		 push	 69			; 00000045H
  0029b	8d 4d c8	 lea	 ecx, DWORD PTR _strPsychologyPeriod$[ebp]
  0029e	ff 15 00 00 00
	00		 call	 DWORD PTR __imp_?LoadStringA@?$CStringT@DV?$StrTraitMFC_DLL@DV?$ChTraitsCRT@D@ATL@@@@@ATL@@QAEHI@Z

; 82   : 	strSEMulti.LoadString(IDS_SE_MULTI);

  002a4	6a 46		 push	 70			; 00000046H
  002a6	8d 4d d8	 lea	 ecx, DWORD PTR _strSEMulti$[ebp]
  002a9	ff 15 00 00 00
	00		 call	 DWORD PTR __imp_?LoadStringA@?$CStringT@DV?$StrTraitMFC_DLL@DV?$ChTraitsCRT@D@ATL@@@@@ATL@@QAEHI@Z

; 83   : 	strAccVariable.LoadString(IDS_ACC_VARIABLE);

  002af	6a 47		 push	 71			; 00000047H
  002b1	8d 4d cc	 lea	 ecx, DWORD PTR _strAccVariable$[ebp]
  002b4	ff 15 00 00 00
	00		 call	 DWORD PTR __imp_?LoadStringA@?$CStringT@DV?$StrTraitMFC_DLL@DV?$ChTraitsCRT@D@ATL@@@@@ATL@@QAEHI@Z

; 84   : 	strMaxValue.LoadString(IDS_MAX_VALUE);

  002ba	6a 48		 push	 72			; 00000048H
  002bc	8d 4d d0	 lea	 ecx, DWORD PTR _strMaxValue$[ebp]
  002bf	ff 15 00 00 00
	00		 call	 DWORD PTR __imp_?LoadStringA@?$CStringT@DV?$StrTraitMFC_DLL@DV?$ChTraitsCRT@D@ATL@@@@@ATL@@QAEHI@Z

; 85   : 	strCumPeriod.LoadString(IDS_CUMULATIVE_PERIOD);

  002c5	6a 49		 push	 73			; 00000049H
  002c7	8d 4d d4	 lea	 ecx, DWORD PTR _strCumPeriod$[ebp]
  002ca	ff 15 00 00 00
	00		 call	 DWORD PTR __imp_?LoadStringA@?$CStringT@DV?$StrTraitMFC_DLL@DV?$ChTraitsCRT@D@ATL@@@@@ATL@@QAEHI@Z

; 86   : 
; 87   : 	CString retValue;

  002d0	8d 4d 0c	 lea	 ecx, DWORD PTR _retValue$[ebp]
  002d3	ff 15 00 00 00
	00		 call	 DWORD PTR __imp_??0?$CStringT@DV?$StrTraitMFC_DLL@DV?$ChTraitsCRT@D@ATL@@@@@ATL@@QAE@XZ
  002d9	c6 45 fc 1f	 mov	 BYTE PTR __$EHRec$[ebp+8], 31 ; 0000001fH
  002dd	be fc ff ff ff	 mov	 esi, -4			; fffffffcH
  002e2	bf 00 00 00 00	 mov	 edi, OFFSET ?g_szIndicatorNameList@@3PAW4E_METACODE@IMetaTable@@A
  002e7	66 0f 1f 84 00
	00 00 00 00	 npad	 9
$LL4@GetConditi:

; 88   : 	for( int i = 0 ; i < GRAPH_COUNT; i++ )
; 89   : 	{
; 90   : 		CString strData = CString(_MTEXT(C2_PRICE_CHART));

  002f0	a1 54 00 00 00	 mov	 eax, DWORD PTR ?g_iMetaTable@@3VIMetaTable@@A+84
  002f5	8d 8d 78 ff ff
	ff		 lea	 ecx, DWORD PTR _strData$4[ebp]
  002fb	ff b0 28 03 00
	00		 push	 DWORD PTR [eax+808]
  00301	ff 15 00 00 00
	00		 call	 DWORD PTR __imp_??0?$CStringT@DV?$StrTraitMFC_DLL@DV?$ChTraitsCRT@D@ATL@@@@@ATL@@QAE@PBD@Z

; 91   : 		if( indicatorname.CompareNoCase( _MTEXTN( g_szIndicatorNameList[i]) ) == 0 )

  00307	8b 0f		 mov	 ecx, DWORD PTR [edi]
  00309	a1 54 00 00 00	 mov	 eax, DWORD PTR ?g_iMetaTable@@3VIMetaTable@@A+84
  0030e	c6 45 fc 20	 mov	 BYTE PTR __$EHRec$[ebp+8], 32 ; 00000020H
  00312	ff 34 88	 push	 DWORD PTR [eax+ecx*4]
  00315	8d 8d 7c ff ff
	ff		 lea	 ecx, DWORD PTR _indicatorname$[ebp]
  0031b	ff 15 00 00 00
	00		 call	 DWORD PTR __imp_?CompareNoCase@?$CStringT@DV?$StrTraitMFC_DLL@DV?$ChTraitsCRT@D@ATL@@@@@ATL@@QBEHPBD@Z
  00321	85 c0		 test	 eax, eax
  00323	75 16		 jne	 SHORT $LN5@GetConditi

; 92   : 		{
; 93   : 			switch( i )

  00325	81 fe a8 00 00
	00		 cmp	 esi, 168		; 000000a8H
  0032b	77 0e		 ja	 SHORT $LN5@GetConditi
  0032d	0f b6 86 00 00
	00 00		 movzx	 eax, BYTE PTR $LN158@GetConditi[esi]
  00334	ff 24 85 00 00
	00 00		 jmp	 DWORD PTR $LN159@GetConditi[eax*4]
$LN5@GetConditi:

; 419  : 					}
; 420  : 			}
; 421  : 		}
; 422  : 	}

  0033b	8d 8d 78 ff ff
	ff		 lea	 ecx, DWORD PTR _strData$4[ebp]
  00341	c6 45 fc 1f	 mov	 BYTE PTR __$EHRec$[ebp+8], 31 ; 0000001fH
  00345	ff 15 00 00 00
	00		 call	 DWORD PTR __imp_??1?$CStringT@DV?$StrTraitMFC_DLL@DV?$ChTraitsCRT@D@ATL@@@@@ATL@@QAE@XZ
  0034b	46		 inc	 esi
  0034c	83 c7 04	 add	 edi, 4
  0034f	8d 46 04	 lea	 eax, DWORD PTR [esi+4]
  00352	3d b1 00 00 00	 cmp	 eax, 177		; 000000b1H
  00357	7c 97		 jl	 SHORT $LL4@GetConditi

; 427  : 	return MakeString( strIntervalNum, ","); //""

  00359	68 00 00 00 00	 push	 OFFSET ??_C@_01IHBHIGKO@?0@
  0035e	8d 8d 78 ff ff
	ff		 lea	 ecx, DWORD PTR $T3[ebp]
  00364	ff 15 00 00 00
	00		 call	 DWORD PTR __imp_??0?$CStringT@DV?$StrTraitMFC_DLL@DV?$ChTraitsCRT@D@ATL@@@@@ATL@@QAE@PBD@Z
; File C:\Program Files (x86)\Microsoft Visual Studio\2019\Community\VC\Tools\MSVC\14.29.30133\atlmfc\include\cstringt.h

; 2390 : 		CStringT strResult( str1.GetManager() );

  0036a	8d 4d dc	 lea	 ecx, DWORD PTR _strIntervalNum$[ebp]
; File D:\git\src\IBK\IBK_DRFN\ProjSrc\SrcChartEx\ChartAddIn\ChartEnvSetupDlgAddIn\ChartEnvSetupDlgAddIn\Data_ConditionTitle.cpp

; 32   : 	return title + compart;

  0036d	c6 45 fc 22	 mov	 BYTE PTR __$EHRec$[ebp+8], 34 ; 00000022H
; File C:\Program Files (x86)\Microsoft Visual Studio\2019\Community\VC\Tools\MSVC\14.29.30133\atlmfc\include\cstringt.h

; 2390 : 		CStringT strResult( str1.GetManager() );

  00371	ff 15 00 00 00
	00		 call	 DWORD PTR __imp_?GetManager@?$CStringT@DV?$StrTraitMFC_DLL@DV?$ChTraitsCRT@D@ATL@@@@@ATL@@QBEPAUIAtlStringMgr@2@XZ
  00377	8b 75 08	 mov	 esi, DWORD PTR ___$ReturnUdt$[ebp]
  0037a	8b ce		 mov	 ecx, esi
  0037c	50		 push	 eax
  0037d	ff 15 00 00 00
	00		 call	 DWORD PTR __imp_??0?$CStringT@DV?$StrTraitMFC_DLL@DV?$ChTraitsCRT@D@ATL@@@@@ATL@@QAE@PAUIAtlStringMgr@1@@Z

; 2391 : 
; 2392 : 		CThisSimpleString::Concatenate( strResult, str1, str1.GetLength(), str2, str2.GetLength() );

  00383	8b 85 78 ff ff
	ff		 mov	 eax, DWORD PTR $T3[ebp]

; 2393 : 
; 2394 : 		return( strResult );

  00389	c7 85 74 ff ff
	ff 04 00 00 00	 mov	 DWORD PTR $T2[ebp], 4
  00393	ff 70 f4	 push	 DWORD PTR [eax-12]
  00396	50		 push	 eax
  00397	8b 45 dc	 mov	 eax, DWORD PTR _strIntervalNum$[ebp]
  0039a	ff 70 f4	 push	 DWORD PTR [eax-12]
  0039d	50		 push	 eax
  0039e	56		 push	 esi
  0039f	ff 15 00 00 00
	00		 call	 DWORD PTR __imp_?Concatenate@?$CSimpleStringT@D$00@ATL@@KAXAAV12@PBDH1H@Z
  003a5	83 c4 14	 add	 esp, 20			; 00000014H
; File D:\git\src\IBK\IBK_DRFN\ProjSrc\SrcChartEx\ChartAddIn\ChartEnvSetupDlgAddIn\ChartEnvSetupDlgAddIn\Data_ConditionTitle.cpp

; 427  : 	return MakeString( strIntervalNum, ","); //""

  003a8	8d 8d 78 ff ff
	ff		 lea	 ecx, DWORD PTR $T3[ebp]
  003ae	ff 15 00 00 00
	00		 call	 DWORD PTR __imp_??1?$CStringT@DV?$StrTraitMFC_DLL@DV?$ChTraitsCRT@D@ATL@@@@@ATL@@QAE@XZ
  003b4	8d 4d 0c	 lea	 ecx, DWORD PTR _retValue$[ebp]
  003b7	ff 15 00 00 00
	00		 call	 DWORD PTR __imp_??1?$CStringT@DV?$StrTraitMFC_DLL@DV?$ChTraitsCRT@D@ATL@@@@@ATL@@QAE@XZ
  003bd	8d 4d d4	 lea	 ecx, DWORD PTR _strCumPeriod$[ebp]
  003c0	ff 15 00 00 00
	00		 call	 DWORD PTR __imp_??1?$CStringT@DV?$StrTraitMFC_DLL@DV?$ChTraitsCRT@D@ATL@@@@@ATL@@QAE@XZ
  003c6	8d 4d d0	 lea	 ecx, DWORD PTR _strMaxValue$[ebp]
  003c9	ff 15 00 00 00
	00		 call	 DWORD PTR __imp_??1?$CStringT@DV?$StrTraitMFC_DLL@DV?$ChTraitsCRT@D@ATL@@@@@ATL@@QAE@XZ
  003cf	8d 4d cc	 lea	 ecx, DWORD PTR _strAccVariable$[ebp]
  003d2	ff 15 00 00 00
	00		 call	 DWORD PTR __imp_??1?$CStringT@DV?$StrTraitMFC_DLL@DV?$ChTraitsCRT@D@ATL@@@@@ATL@@QAE@XZ
  003d8	8d 4d d8	 lea	 ecx, DWORD PTR _strSEMulti$[ebp]
  003db	ff 15 00 00 00
	00		 call	 DWORD PTR __imp_??1?$CStringT@DV?$StrTraitMFC_DLL@DV?$ChTraitsCRT@D@ATL@@@@@ATL@@QAE@XZ
  003e1	8d 4d c8	 lea	 ecx, DWORD PTR _strPsychologyPeriod$[ebp]
  003e4	ff 15 00 00 00
	00		 call	 DWORD PTR __imp_??1?$CStringT@DV?$StrTraitMFC_DLL@DV?$ChTraitsCRT@D@ATL@@@@@ATL@@QAE@XZ
  003ea	8d 4d c4	 lea	 ecx, DWORD PTR _strComparePeriod$[ebp]
  003ed	ff 15 00 00 00
	00		 call	 DWORD PTR __imp_??1?$CStringT@DV?$StrTraitMFC_DLL@DV?$ChTraitsCRT@D@ATL@@@@@ATL@@QAE@XZ
  003f3	8d 4d c0	 lea	 ecx, DWORD PTR _strMomentum$[ebp]
  003f6	ff 15 00 00 00
	00		 call	 DWORD PTR __imp_??1?$CStringT@DV?$StrTraitMFC_DLL@DV?$ChTraitsCRT@D@ATL@@@@@ATL@@QAE@XZ
  003fc	8d 4d bc	 lea	 ecx, DWORD PTR _strMomentumPeriod$[ebp]
  003ff	ff 15 00 00 00
	00		 call	 DWORD PTR __imp_??1?$CStringT@DV?$StrTraitMFC_DLL@DV?$ChTraitsCRT@D@ATL@@@@@ATL@@QAE@XZ
  00405	8d 4d e8	 lea	 ecx, DWORD PTR _strLongMA$[ebp]
  00408	ff 15 00 00 00
	00		 call	 DWORD PTR __imp_??1?$CStringT@DV?$StrTraitMFC_DLL@DV?$ChTraitsCRT@D@ATL@@@@@ATL@@QAE@XZ
  0040e	8d 4d e4	 lea	 ecx, DWORD PTR _strShortMA$[ebp]
  00411	ff 15 00 00 00
	00		 call	 DWORD PTR __imp_??1?$CStringT@DV?$StrTraitMFC_DLL@DV?$ChTraitsCRT@D@ATL@@@@@ATL@@QAE@XZ
  00417	8d 4d b8	 lea	 ecx, DWORD PTR _strSD$[ebp]
  0041a	ff 15 00 00 00
	00		 call	 DWORD PTR __imp_??1?$CStringT@DV?$StrTraitMFC_DLL@DV?$ChTraitsCRT@D@ATL@@@@@ATL@@QAE@XZ
  00420	8d 4d b4	 lea	 ecx, DWORD PTR _strLongTerm$[ebp]
  00423	ff 15 00 00 00
	00		 call	 DWORD PTR __imp_??1?$CStringT@DV?$StrTraitMFC_DLL@DV?$ChTraitsCRT@D@ATL@@@@@ATL@@QAE@XZ
  00429	8d 4d b0	 lea	 ecx, DWORD PTR _strShortTerm$[ebp]
  0042c	ff 15 00 00 00
	00		 call	 DWORD PTR __imp_??1?$CStringT@DV?$StrTraitMFC_DLL@DV?$ChTraitsCRT@D@ATL@@@@@ATL@@QAE@XZ
  00432	8d 4d ac	 lea	 ecx, DWORD PTR _strDisparityPeriod$[ebp]
  00435	ff 15 00 00 00
	00		 call	 DWORD PTR __imp_??1?$CStringT@DV?$StrTraitMFC_DLL@DV?$ChTraitsCRT@D@ATL@@@@@ATL@@QAE@XZ
  0043b	8d 4d a8	 lea	 ecx, DWORD PTR _strDisparity$[ebp]
  0043e	ff 15 00 00 00
	00		 call	 DWORD PTR __imp_??1?$CStringT@DV?$StrTraitMFC_DLL@DV?$ChTraitsCRT@D@ATL@@@@@ATL@@QAE@XZ
  00444	8d 4d a4	 lea	 ecx, DWORD PTR _strReversePer$[ebp]
  00447	ff 15 00 00 00
	00		 call	 DWORD PTR __imp_??1?$CStringT@DV?$StrTraitMFC_DLL@DV?$ChTraitsCRT@D@ATL@@@@@ATL@@QAE@XZ
  0044d	8d 4d a0	 lea	 ecx, DWORD PTR _strLowerPer$[ebp]
  00450	ff 15 00 00 00
	00		 call	 DWORD PTR __imp_??1?$CStringT@DV?$StrTraitMFC_DLL@DV?$ChTraitsCRT@D@ATL@@@@@ATL@@QAE@XZ
  00456	8d 4d 9c	 lea	 ecx, DWORD PTR _strPost$[ebp]
  00459	ff 15 00 00 00
	00		 call	 DWORD PTR __imp_??1?$CStringT@DV?$StrTraitMFC_DLL@DV?$ChTraitsCRT@D@ATL@@@@@ATL@@QAE@XZ
  0045f	8d 4d 98	 lea	 ecx, DWORD PTR _strPre$[ebp]
  00462	ff 15 00 00 00
	00		 call	 DWORD PTR __imp_??1?$CStringT@DV?$StrTraitMFC_DLL@DV?$ChTraitsCRT@D@ATL@@@@@ATL@@QAE@XZ
  00468	8d 4d 94	 lea	 ecx, DWORD PTR _strUpperPer$[ebp]
  0046b	ff 15 00 00 00
	00		 call	 DWORD PTR __imp_??1?$CStringT@DV?$StrTraitMFC_DLL@DV?$ChTraitsCRT@D@ATL@@@@@ATL@@QAE@XZ
  00471	8d 4d 90	 lea	 ecx, DWORD PTR _strBulkNum$[ebp]
  00474	ff 15 00 00 00
	00		 call	 DWORD PTR __imp_??1?$CStringT@DV?$StrTraitMFC_DLL@DV?$ChTraitsCRT@D@ATL@@@@@ATL@@QAE@XZ
  0047a	8d 4d e0	 lea	 ecx, DWORD PTR _strSDMulti$[ebp]
  0047d	ff 15 00 00 00
	00		 call	 DWORD PTR __imp_??1?$CStringT@DV?$StrTraitMFC_DLL@DV?$ChTraitsCRT@D@ATL@@@@@ATL@@QAE@XZ
  00483	8d 4d 8c	 lea	 ecx, DWORD PTR _strConversePeriod$[ebp]
  00486	ff 15 00 00 00
	00		 call	 DWORD PTR __imp_??1?$CStringT@DV?$StrTraitMFC_DLL@DV?$ChTraitsCRT@D@ATL@@@@@ATL@@QAE@XZ
  0048c	8d 4d 88	 lea	 ecx, DWORD PTR _strStandardPeriod$[ebp]
  0048f	ff 15 00 00 00
	00		 call	 DWORD PTR __imp_??1?$CStringT@DV?$StrTraitMFC_DLL@DV?$ChTraitsCRT@D@ATL@@@@@ATL@@QAE@XZ
  00495	8d 4d dc	 lea	 ecx, DWORD PTR _strIntervalNum$[ebp]
  00498	ff 15 00 00 00
	00		 call	 DWORD PTR __imp_??1?$CStringT@DV?$StrTraitMFC_DLL@DV?$ChTraitsCRT@D@ATL@@@@@ATL@@QAE@XZ
  0049e	8d 4d 84	 lea	 ecx, DWORD PTR _strMALineNum$[ebp]
  004a1	ff 15 00 00 00
	00		 call	 DWORD PTR __imp_??1?$CStringT@DV?$StrTraitMFC_DLL@DV?$ChTraitsCRT@D@ATL@@@@@ATL@@QAE@XZ
  004a7	8d 4d 80	 lea	 ecx, DWORD PTR _strIncInterval$[ebp]
  004aa	ff 15 00 00 00
	00		 call	 DWORD PTR __imp_??1?$CStringT@DV?$StrTraitMFC_DLL@DV?$ChTraitsCRT@D@ATL@@@@@ATL@@QAE@XZ
  004b0	8d 4d f0	 lea	 ecx, DWORD PTR _strPeriod$[ebp]
  004b3	ff 15 00 00 00
	00		 call	 DWORD PTR __imp_??1?$CStringT@DV?$StrTraitMFC_DLL@DV?$ChTraitsCRT@D@ATL@@@@@ATL@@QAE@XZ
  004b9	8d 4d ec	 lea	 ecx, DWORD PTR _strMaPeriod$[ebp]
  004bc	ff 15 00 00 00
	00		 call	 DWORD PTR __imp_??1?$CStringT@DV?$StrTraitMFC_DLL@DV?$ChTraitsCRT@D@ATL@@@@@ATL@@QAE@XZ
  004c2	8d 8d 7c ff ff
	ff		 lea	 ecx, DWORD PTR _indicatorname$[ebp]
  004c8	ff 15 00 00 00
	00		 call	 DWORD PTR __imp_??1?$CStringT@DV?$StrTraitMFC_DLL@DV?$ChTraitsCRT@D@ATL@@@@@ATL@@QAE@XZ
  004ce	8b c6		 mov	 eax, esi

; 428  : // 2008..02.04 by LYH <<
; 429  : }

  004d0	8b 4d f4	 mov	 ecx, DWORD PTR __$EHRec$[ebp]
  004d3	64 89 0d 00 00
	00 00		 mov	 DWORD PTR fs:0, ecx
  004da	59		 pop	 ecx
  004db	5f		 pop	 edi
  004dc	5e		 pop	 esi
  004dd	8b e5		 mov	 esp, ebp
  004df	5d		 pop	 ebp
  004e0	c2 08 00	 ret	 8
$LN8@GetConditi:

; 94   : 			{
; 95   : 				// 
; 96   : 				case GRAPH_RAINBOW:
; 97   : 					//return _T(",,,");
; 98   : 					{
; 99   : 						retValue.Format("%s,%s,%s,", strMaPeriod, strIncInterval, strMALineNum);

  004e3	ff 75 84	 push	 DWORD PTR _strMALineNum$[ebp]
  004e6	ff 75 80	 push	 DWORD PTR _strIncInterval$[ebp]
$LN164@GetConditi:

; 428  : // 2008..02.04 by LYH <<
; 429  : }

  004e9	ff 75 ec	 push	 DWORD PTR _strMaPeriod$[ebp]
  004ec	68 00 00 00 00	 push	 OFFSET ??_C@_09DOJOJOOO@?$CFs?0?$CFs?0?$CFs?0@
$LN162@GetConditi:
  004f1	8d 45 0c	 lea	 eax, DWORD PTR _retValue$[ebp]
  004f4	50		 push	 eax
  004f5	ff 15 00 00 00
	00		 call	 DWORD PTR __imp_?Format@?$CStringT@DV?$StrTraitMFC_DLL@DV?$ChTraitsCRT@D@ATL@@@@@ATL@@QAAXPBDZZ
  004fb	83 c4 14	 add	 esp, 20			; 00000014H
$LN161@GetConditi:
  004fe	8b 4d 08	 mov	 ecx, DWORD PTR ___$ReturnUdt$[ebp]
  00501	8d 45 0c	 lea	 eax, DWORD PTR _retValue$[ebp]
  00504	50		 push	 eax
  00505	ff 15 00 00 00
	00		 call	 DWORD PTR __imp_??0?$CStringT@DV?$StrTraitMFC_DLL@DV?$ChTraitsCRT@D@ATL@@@@@ATL@@QAE@ABV01@@Z
$LN163@GetConditi:
  0050b	8d 8d 78 ff ff
	ff		 lea	 ecx, DWORD PTR _strData$4[ebp]
  00511	ff 15 00 00 00
	00		 call	 DWORD PTR __imp_??1?$CStringT@DV?$StrTraitMFC_DLL@DV?$ChTraitsCRT@D@ATL@@@@@ATL@@QAE@XZ
  00517	8d 4d 0c	 lea	 ecx, DWORD PTR _retValue$[ebp]
  0051a	ff 15 00 00 00
	00		 call	 DWORD PTR __imp_??1?$CStringT@DV?$StrTraitMFC_DLL@DV?$ChTraitsCRT@D@ATL@@@@@ATL@@QAE@XZ
  00520	8d 4d d4	 lea	 ecx, DWORD PTR _strCumPeriod$[ebp]
  00523	ff 15 00 00 00
	00		 call	 DWORD PTR __imp_??1?$CStringT@DV?$StrTraitMFC_DLL@DV?$ChTraitsCRT@D@ATL@@@@@ATL@@QAE@XZ
  00529	8d 4d d0	 lea	 ecx, DWORD PTR _strMaxValue$[ebp]
  0052c	ff 15 00 00 00
	00		 call	 DWORD PTR __imp_??1?$CStringT@DV?$StrTraitMFC_DLL@DV?$ChTraitsCRT@D@ATL@@@@@ATL@@QAE@XZ
  00532	8d 4d cc	 lea	 ecx, DWORD PTR _strAccVariable$[ebp]
  00535	ff 15 00 00 00
	00		 call	 DWORD PTR __imp_??1?$CStringT@DV?$StrTraitMFC_DLL@DV?$ChTraitsCRT@D@ATL@@@@@ATL@@QAE@XZ
  0053b	8d 4d d8	 lea	 ecx, DWORD PTR _strSEMulti$[ebp]
  0053e	ff 15 00 00 00
	00		 call	 DWORD PTR __imp_??1?$CStringT@DV?$StrTraitMFC_DLL@DV?$ChTraitsCRT@D@ATL@@@@@ATL@@QAE@XZ
  00544	8d 4d c8	 lea	 ecx, DWORD PTR _strPsychologyPeriod$[ebp]
  00547	ff 15 00 00 00
	00		 call	 DWORD PTR __imp_??1?$CStringT@DV?$StrTraitMFC_DLL@DV?$ChTraitsCRT@D@ATL@@@@@ATL@@QAE@XZ
  0054d	8d 4d c4	 lea	 ecx, DWORD PTR _strComparePeriod$[ebp]
  00550	ff 15 00 00 00
	00		 call	 DWORD PTR __imp_??1?$CStringT@DV?$StrTraitMFC_DLL@DV?$ChTraitsCRT@D@ATL@@@@@ATL@@QAE@XZ
  00556	8d 4d c0	 lea	 ecx, DWORD PTR _strMomentum$[ebp]
  00559	ff 15 00 00 00
	00		 call	 DWORD PTR __imp_??1?$CStringT@DV?$StrTraitMFC_DLL@DV?$ChTraitsCRT@D@ATL@@@@@ATL@@QAE@XZ
  0055f	8d 4d bc	 lea	 ecx, DWORD PTR _strMomentumPeriod$[ebp]
  00562	ff 15 00 00 00
	00		 call	 DWORD PTR __imp_??1?$CStringT@DV?$StrTraitMFC_DLL@DV?$ChTraitsCRT@D@ATL@@@@@ATL@@QAE@XZ
  00568	8d 4d e8	 lea	 ecx, DWORD PTR _strLongMA$[ebp]
  0056b	ff 15 00 00 00
	00		 call	 DWORD PTR __imp_??1?$CStringT@DV?$StrTraitMFC_DLL@DV?$ChTraitsCRT@D@ATL@@@@@ATL@@QAE@XZ
  00571	8d 4d e4	 lea	 ecx, DWORD PTR _strShortMA$[ebp]
  00574	ff 15 00 00 00
	00		 call	 DWORD PTR __imp_??1?$CStringT@DV?$StrTraitMFC_DLL@DV?$ChTraitsCRT@D@ATL@@@@@ATL@@QAE@XZ
  0057a	8d 4d b8	 lea	 ecx, DWORD PTR _strSD$[ebp]
  0057d	ff 15 00 00 00
	00		 call	 DWORD PTR __imp_??1?$CStringT@DV?$StrTraitMFC_DLL@DV?$ChTraitsCRT@D@ATL@@@@@ATL@@QAE@XZ
  00583	8d 4d b4	 lea	 ecx, DWORD PTR _strLongTerm$[ebp]
  00586	ff 15 00 00 00
	00		 call	 DWORD PTR __imp_??1?$CStringT@DV?$StrTraitMFC_DLL@DV?$ChTraitsCRT@D@ATL@@@@@ATL@@QAE@XZ
  0058c	8d 4d b0	 lea	 ecx, DWORD PTR _strShortTerm$[ebp]
  0058f	ff 15 00 00 00
	00		 call	 DWORD PTR __imp_??1?$CStringT@DV?$StrTraitMFC_DLL@DV?$ChTraitsCRT@D@ATL@@@@@ATL@@QAE@XZ
  00595	8d 4d ac	 lea	 ecx, DWORD PTR _strDisparityPeriod$[ebp]
  00598	ff 15 00 00 00
	00		 call	 DWORD PTR __imp_??1?$CStringT@DV?$StrTraitMFC_DLL@DV?$ChTraitsCRT@D@ATL@@@@@ATL@@QAE@XZ
  0059e	8d 4d a8	 lea	 ecx, DWORD PTR _strDisparity$[ebp]
  005a1	ff 15 00 00 00
	00		 call	 DWORD PTR __imp_??1?$CStringT@DV?$StrTraitMFC_DLL@DV?$ChTraitsCRT@D@ATL@@@@@ATL@@QAE@XZ
  005a7	8d 4d a4	 lea	 ecx, DWORD PTR _strReversePer$[ebp]
  005aa	ff 15 00 00 00
	00		 call	 DWORD PTR __imp_??1?$CStringT@DV?$StrTraitMFC_DLL@DV?$ChTraitsCRT@D@ATL@@@@@ATL@@QAE@XZ
  005b0	8d 4d a0	 lea	 ecx, DWORD PTR _strLowerPer$[ebp]
  005b3	ff 15 00 00 00
	00		 call	 DWORD PTR __imp_??1?$CStringT@DV?$StrTraitMFC_DLL@DV?$ChTraitsCRT@D@ATL@@@@@ATL@@QAE@XZ
  005b9	8d 4d 9c	 lea	 ecx, DWORD PTR _strPost$[ebp]
  005bc	ff 15 00 00 00
	00		 call	 DWORD PTR __imp_??1?$CStringT@DV?$StrTraitMFC_DLL@DV?$ChTraitsCRT@D@ATL@@@@@ATL@@QAE@XZ
  005c2	8d 4d 98	 lea	 ecx, DWORD PTR _strPre$[ebp]
  005c5	ff 15 00 00 00
	00		 call	 DWORD PTR __imp_??1?$CStringT@DV?$StrTraitMFC_DLL@DV?$ChTraitsCRT@D@ATL@@@@@ATL@@QAE@XZ
  005cb	8d 4d 94	 lea	 ecx, DWORD PTR _strUpperPer$[ebp]
  005ce	ff 15 00 00 00
	00		 call	 DWORD PTR __imp_??1?$CStringT@DV?$StrTraitMFC_DLL@DV?$ChTraitsCRT@D@ATL@@@@@ATL@@QAE@XZ
  005d4	8d 4d 90	 lea	 ecx, DWORD PTR _strBulkNum$[ebp]
  005d7	ff 15 00 00 00
	00		 call	 DWORD PTR __imp_??1?$CStringT@DV?$StrTraitMFC_DLL@DV?$ChTraitsCRT@D@ATL@@@@@ATL@@QAE@XZ
  005dd	8d 4d e0	 lea	 ecx, DWORD PTR _strSDMulti$[ebp]
  005e0	ff 15 00 00 00
	00		 call	 DWORD PTR __imp_??1?$CStringT@DV?$StrTraitMFC_DLL@DV?$ChTraitsCRT@D@ATL@@@@@ATL@@QAE@XZ
  005e6	8d 4d 8c	 lea	 ecx, DWORD PTR _strConversePeriod$[ebp]
  005e9	ff 15 00 00 00
	00		 call	 DWORD PTR __imp_??1?$CStringT@DV?$StrTraitMFC_DLL@DV?$ChTraitsCRT@D@ATL@@@@@ATL@@QAE@XZ
  005ef	8d 4d 88	 lea	 ecx, DWORD PTR _strStandardPeriod$[ebp]
  005f2	ff 15 00 00 00
	00		 call	 DWORD PTR __imp_??1?$CStringT@DV?$StrTraitMFC_DLL@DV?$ChTraitsCRT@D@ATL@@@@@ATL@@QAE@XZ
  005f8	8d 4d dc	 lea	 ecx, DWORD PTR _strIntervalNum$[ebp]
  005fb	ff 15 00 00 00
	00		 call	 DWORD PTR __imp_??1?$CStringT@DV?$StrTraitMFC_DLL@DV?$ChTraitsCRT@D@ATL@@@@@ATL@@QAE@XZ
  00601	8d 4d 84	 lea	 ecx, DWORD PTR _strMALineNum$[ebp]
  00604	ff 15 00 00 00
	00		 call	 DWORD PTR __imp_??1?$CStringT@DV?$StrTraitMFC_DLL@DV?$ChTraitsCRT@D@ATL@@@@@ATL@@QAE@XZ
  0060a	8d 4d 80	 lea	 ecx, DWORD PTR _strIncInterval$[ebp]
  0060d	ff 15 00 00 00
	00		 call	 DWORD PTR __imp_??1?$CStringT@DV?$StrTraitMFC_DLL@DV?$ChTraitsCRT@D@ATL@@@@@ATL@@QAE@XZ
  00613	8d 4d f0	 lea	 ecx, DWORD PTR _strPeriod$[ebp]
  00616	ff 15 00 00 00
	00		 call	 DWORD PTR __imp_??1?$CStringT@DV?$StrTraitMFC_DLL@DV?$ChTraitsCRT@D@ATL@@@@@ATL@@QAE@XZ
  0061c	8d 4d ec	 lea	 ecx, DWORD PTR _strMaPeriod$[ebp]
  0061f	ff 15 00 00 00
	00		 call	 DWORD PTR __imp_??1?$CStringT@DV?$StrTraitMFC_DLL@DV?$ChTraitsCRT@D@ATL@@@@@ATL@@QAE@XZ
  00625	8d 8d 7c ff ff
	ff		 lea	 ecx, DWORD PTR _indicatorname$[ebp]
  0062b	ff 15 00 00 00
	00		 call	 DWORD PTR __imp_??1?$CStringT@DV?$StrTraitMFC_DLL@DV?$ChTraitsCRT@D@ATL@@@@@ATL@@QAE@XZ
  00631	8b 45 08	 mov	 eax, DWORD PTR ___$ReturnUdt$[ebp]
  00634	8b 4d f4	 mov	 ecx, DWORD PTR __$EHRec$[ebp]
  00637	64 89 0d 00 00
	00 00		 mov	 DWORD PTR fs:0, ecx
  0063e	59		 pop	 ecx
  0063f	5f		 pop	 edi
  00640	5e		 pop	 esi
  00641	8b e5		 mov	 esp, ebp
  00643	5d		 pop	 ebp
  00644	c2 08 00	 ret	 8
$LN9@GetConditi:

; 100  : 						return retValue;
; 101  : 					}
; 102  : 				// 
; 103  : 				case GRAPH_HORIZONTALBAR :
; 104  : 					//return _T(",");
; 105  : 					{
; 106  : 						retValue.Format("%s,", strIntervalNum);

  00647	ff 75 dc	 push	 DWORD PTR _strIntervalNum$[ebp]
$LN165@GetConditi:

; 428  : // 2008..02.04 by LYH <<
; 429  : }

  0064a	8d 45 0c	 lea	 eax, DWORD PTR _retValue$[ebp]
  0064d	68 00 00 00 00	 push	 OFFSET ??_C@_03CGNBMCEI@?$CFs?0@
  00652	50		 push	 eax
  00653	ff 15 00 00 00
	00		 call	 DWORD PTR __imp_?Format@?$CStringT@DV?$StrTraitMFC_DLL@DV?$ChTraitsCRT@D@ATL@@@@@ATL@@QAAXPBDZZ
  00659	83 c4 0c	 add	 esp, 12			; 0000000cH
  0065c	e9 9d fe ff ff	 jmp	 $LN161@GetConditi
$LN10@GetConditi:

; 107  : 						return retValue;
; 108  : 					}
; 109  : 				case GRAPH_GLANCEBALANCE :
; 110  : 					//return _T( ",,1,2,," );
; 111  : 					{
; 112  : 						retValue.Format("%s,%s,%s1%s,%s2%s,%s%s,", strStandardPeriod, strConversePeriod, strPre, strPeriod, strPre, strPeriod, strPost, strPeriod);

  00661	8b 4d f0	 mov	 ecx, DWORD PTR _strPeriod$[ebp]
  00664	8b 45 98	 mov	 eax, DWORD PTR _strPre$[ebp]
  00667	51		 push	 ecx
  00668	ff 75 9c	 push	 DWORD PTR _strPost$[ebp]
  0066b	51		 push	 ecx
  0066c	50		 push	 eax
  0066d	51		 push	 ecx
  0066e	50		 push	 eax
  0066f	ff 75 8c	 push	 DWORD PTR _strConversePeriod$[ebp]
  00672	8d 45 0c	 lea	 eax, DWORD PTR _retValue$[ebp]
  00675	ff 75 88	 push	 DWORD PTR _strStandardPeriod$[ebp]
  00678	68 00 00 00 00	 push	 OFFSET ??_C@_0BI@EGCADHDF@?$CFs?0?$CFs?0?$CFs1?$CFs?0?$CFs2?$CFs?0?$CFs?$CFs?0@
  0067d	50		 push	 eax
  0067e	ff 15 00 00 00
	00		 call	 DWORD PTR __imp_?Format@?$CStringT@DV?$StrTraitMFC_DLL@DV?$ChTraitsCRT@D@ATL@@@@@ATL@@QAAXPBDZZ
  00684	83 c4 28	 add	 esp, 40			; 00000028H

; 113  : 						return retValue;

  00687	e9 72 fe ff ff	 jmp	 $LN161@GetConditi
$LN11@GetConditi:

; 114  : 					}
; 115  : 				
; 116  : 				case GRAPH_BOLLINGER :
; 117  : 				case GRAPH_BandWidth:
; 118  : 					//return _T( ",," );
; 119  : 					{
; 120  : 						retValue.Format("%s,%s,", strMaPeriod, strSDMulti);

  0068c	ff 75 e0	 push	 DWORD PTR _strSDMulti$[ebp]
  0068f	ff 75 ec	 push	 DWORD PTR _strMaPeriod$[ebp]
$LN167@GetConditi:

; 428  : // 2008..02.04 by LYH <<
; 429  : }

  00692	8d 45 0c	 lea	 eax, DWORD PTR _retValue$[ebp]
  00695	68 00 00 00 00	 push	 OFFSET ??_C@_06IOPLGJHL@?$CFs?0?$CFs?0@
  0069a	50		 push	 eax
  0069b	ff 15 00 00 00
	00		 call	 DWORD PTR __imp_?Format@?$CStringT@DV?$StrTraitMFC_DLL@DV?$ChTraitsCRT@D@ATL@@@@@ATL@@QAAXPBDZZ
  006a1	83 c4 10	 add	 esp, 16			; 00000010H
  006a4	e9 55 fe ff ff	 jmp	 $LN161@GetConditi
$LN13@GetConditi:

; 121  : 						return retValue;
; 122  : 					}
; 123  : 
; 124  : 				case GRAPH_BANDB:
; 125  : 					//return _T( ",,Signal," );
; 126  : 					{
; 127  : 						retValue.Format("%s,%s,Signal,", strMaPeriod, strSDMulti);

  006a9	ff 75 e0	 push	 DWORD PTR _strSDMulti$[ebp]
  006ac	8d 45 0c	 lea	 eax, DWORD PTR _retValue$[ebp]
  006af	ff 75 ec	 push	 DWORD PTR _strMaPeriod$[ebp]
  006b2	68 00 00 00 00	 push	 OFFSET ??_C@_0O@POOELIFG@?$CFs?0?$CFs?0Signal?0@
  006b7	50		 push	 eax
  006b8	ff 15 00 00 00
	00		 call	 DWORD PTR __imp_?Format@?$CStringT@DV?$StrTraitMFC_DLL@DV?$ChTraitsCRT@D@ATL@@@@@ATL@@QAAXPBDZZ
  006be	83 c4 10	 add	 esp, 16			; 00000010H

; 128  : 						return retValue;

  006c1	e9 38 fe ff ff	 jmp	 $LN161@GetConditi
$LN14@GetConditi:

; 129  : 					}
; 130  : 
; 131  : 				case GRAPH_BOXCHART:
; 132  : 					//return _T( "," );
; 133  : 					{
; 134  : 						retValue.Format("%s,", strBulkNum);

  006c6	ff 75 90	 push	 DWORD PTR _strBulkNum$[ebp]

; 135  : 						return retValue;

  006c9	e9 7c ff ff ff	 jmp	 $LN165@GetConditi
$LN15@GetConditi:

; 136  : 					}
; 137  : 
; 138  : 				case GRAPH_ENVELOPE:
; 139  : 				case GRAPH_MAC:
; 140  : 					//return _T(",(%),(%),");
; 141  : 					{
; 142  : 						retValue.Format("%s,%s(%%),%s(%%),", strMaPeriod, strUpperPer, strLowerPer);

  006ce	ff 75 a0	 push	 DWORD PTR _strLowerPer$[ebp]
  006d1	ff 75 94	 push	 DWORD PTR _strUpperPer$[ebp]
  006d4	ff 75 ec	 push	 DWORD PTR _strMaPeriod$[ebp]
  006d7	68 00 00 00 00	 push	 OFFSET ??_C@_0BC@NFAHEEIC@?$CFs?0?$CFs?$CI?$CF?$CF?$CJ?0?$CFs?$CI?$CF?$CF?$CJ?0@

; 143  : 						return retValue;

  006dc	e9 10 fe ff ff	 jmp	 $LN162@GetConditi
$LN17@GetConditi:

; 144  : 					}
; 145  : 
; 146  : 				case GRAPH_ZIGZAG:
; 147  : 				case GRAPH_CLC:
; 148  : 					//return _T("(%),");
; 149  : 					{
; 150  : 						retValue.Format("%s(%%),", strReversePer);

  006e1	ff 75 a4	 push	 DWORD PTR _strReversePer$[ebp]

; 428  : // 2008..02.04 by LYH <<
; 429  : }

  006e4	8d 45 0c	 lea	 eax, DWORD PTR _retValue$[ebp]
  006e7	68 00 00 00 00	 push	 OFFSET ??_C@_07INFEOIPA@?$CFs?$CI?$CF?$CF?$CJ?0@
  006ec	50		 push	 eax
  006ed	ff 15 00 00 00
	00		 call	 DWORD PTR __imp_?Format@?$CStringT@DV?$StrTraitMFC_DLL@DV?$ChTraitsCRT@D@ATL@@@@@ATL@@QAAXPBDZZ
  006f3	83 c4 0c	 add	 esp, 12			; 0000000cH
  006f6	e9 03 fe ff ff	 jmp	 $LN161@GetConditi
$LN19@GetConditi:

; 151  : 						return retValue;
; 152  : 					}
; 153  : 
; 154  : 				case GRAPH_AD:
; 155  : 				case GRAPH_NEGATIVE_VOLUME_INDEX:
; 156  : 				case GRAPH_OBV:
; 157  : 				case GRAPH_POSITIVE_VOLUME_INDEX:
; 158  : 				case GRAPH_PRICE_VOLUME_TREND:
; 159  : 				case GRAPH_7BINARYWAVE:
; 160  : 				case GRAPH_VA_OSCILLATOR:
; 161  : 					return _T("Signal,");

  006fb	8b 4d 08	 mov	 ecx, DWORD PTR ___$ReturnUdt$[ebp]
  006fe	68 00 00 00 00	 push	 OFFSET ??_C@_07JHMPOCMH@Signal?0@
  00703	ff 15 00 00 00
	00		 call	 DWORD PTR __imp_??0?$CStringT@DV?$StrTraitMFC_DLL@DV?$ChTraitsCRT@D@ATL@@@@@ATL@@QAE@PBD@Z
  00709	e9 fd fd ff ff	 jmp	 $LN163@GetConditi
$LN26@GetConditi:

; 162  : 
; 163  : 				case GRAPH_PRICE_CHANNEL:
; 164  : 				case GRAPH_AROON:
; 165  : 				case GRAPH_FORMULA:
; 166  : 				case GRAPH_TDI:
; 167  : 				case GRAPH_ELDER_RAY_BEAR:
; 168  : 				case GRAPH_ELDER_RAY_BULL:
; 169  : 				case GRAPH_Sigma:
; 170  : 				case GRAPH_STANDARD_DEVIATION:
; 171  : 				case GRAPH_STANDARD_ERROR:
; 172  : 				case GRAPH_CMF:
; 173  : 				case GRAPH_VOLUME_RATIO:
; 174  : 				case GRAPH_VROC:
; 175  : 				case GRAPH_VHF:
; 176  : 				case GRAPH_ADX:
; 177  : 				case GRAPH_UPDOWN_ADL:
; 178  : 				case GRAPH_UPDOWN_ADR:
; 179  : 				case GRAPH_ENERGY:
; 180  : 					//return _T(",");
; 181  : 					{
; 182  : 						retValue.Format("%s,", strPeriod);

  0070e	ff 75 f0	 push	 DWORD PTR _strPeriod$[ebp]

; 183  : 						return retValue;

  00711	e9 34 ff ff ff	 jmp	 $LN165@GetConditi
$LN43@GetConditi:

; 184  : 					}
; 185  : 
; 186  : 				case GRAPH_DEMA:
; 187  : 				case GRAPH_TEMA:
; 188  : 					//return _T(",");
; 189  : 					{
; 190  : 						retValue.Format("%s,", strMaPeriod);

  00716	ff 75 ec	 push	 DWORD PTR _strMaPeriod$[ebp]

; 191  : 						return retValue;

  00719	e9 2c ff ff ff	 jmp	 $LN165@GetConditi
$LN45@GetConditi:

; 192  : 					}
; 193  : 
; 194  : 				case GRAPH_DISPARITY_SIMPLE:
; 195  : 				case GRAPH_DISPARITY_COMPLEX:
; 196  : 					//return _T("1,2,3,4,5,");
; 197  : 					{
; 198  : 						retValue.Format("%s1,%s2,%s3,%s4,%s5,", strDisparity, strDisparity, strDisparity, strDisparity, strDisparity);

  0071e	8b 45 a8	 mov	 eax, DWORD PTR _strDisparity$[ebp]
  00721	50		 push	 eax
  00722	50		 push	 eax
  00723	50		 push	 eax
  00724	50		 push	 eax
  00725	50		 push	 eax
  00726	8d 45 0c	 lea	 eax, DWORD PTR _retValue$[ebp]
  00729	68 00 00 00 00	 push	 OFFSET ??_C@_0BF@HMFODBMO@?$CFs1?0?$CFs2?0?$CFs3?0?$CFs4?0?$CFs5?0@
  0072e	50		 push	 eax
  0072f	ff 15 00 00 00
	00		 call	 DWORD PTR __imp_?Format@?$CStringT@DV?$StrTraitMFC_DLL@DV?$ChTraitsCRT@D@ATL@@@@@ATL@@QAAXPBDZZ
  00735	83 c4 1c	 add	 esp, 28			; 0000001cH

; 199  : 						return retValue;

  00738	e9 c1 fd ff ff	 jmp	 $LN161@GetConditi
$LN47@GetConditi:

; 200  : 					}
; 201  : 
; 202  : 				case GRAPH_STARC_BAND:
; 203  : 					//return _T(",,");
; 204  : 					{
; 205  : 						retValue.Format("%s,%s,", strPeriod, strMaPeriod);

  0073d	ff 75 ec	 push	 DWORD PTR _strMaPeriod$[ebp]
  00740	ff 75 f0	 push	 DWORD PTR _strPeriod$[ebp]

; 206  : 						return retValue;

  00743	e9 4a ff ff ff	 jmp	 $LN167@GetConditi
$LN48@GetConditi:

; 207  : 					}
; 208  : 
; 209  : 				case GRAPH_CCI:
; 210  : 				case GRAPH_LRS:
; 211  : 				case GRAPH_MOMENTUM:
; 212  : 				case GRAPH_NDI:
; 213  : 				case GRAPH_ROC:
; 214  : 				case GRAPH_TRIX:
; 215  : 				case GRAPH_PERCENT_R:
; 216  : 				case GRAPH_ChaikinsVolatility:
; 217  : 				case GRAPH_DPO:
; 218  : 				case GRAPH_NCO:
; 219  : 				case GRAPH_QSTIC:
; 220  : 				case GRAPH_RSI:
; 221  : 				case GRAPH_MFI:
; 222  : 				case GRAPH_FORCE_INDEX:
; 223  : 				case GRAPH_PSYCO_LINE:
; 224  : 				case IMetaTable::EDDC_ST_NEW_PSYCHOLOGY_LINE:
; 225  : 					//return _T(",Signal,");
; 226  : 					{
; 227  : 						retValue.Format("%s,Signal,", strPeriod);

  00748	ff 75 f0	 push	 DWORD PTR _strPeriod$[ebp]

; 428  : // 2008..02.04 by LYH <<
; 429  : }

  0074b	8d 45 0c	 lea	 eax, DWORD PTR _retValue$[ebp]
  0074e	68 00 00 00 00	 push	 OFFSET ??_C@_0L@BHBKOAPL@?$CFs?0Signal?0@
  00753	50		 push	 eax
  00754	ff 15 00 00 00
	00		 call	 DWORD PTR __imp_?Format@?$CStringT@DV?$StrTraitMFC_DLL@DV?$ChTraitsCRT@D@ATL@@@@@ATL@@QAAXPBDZZ
  0075a	83 c4 0c	 add	 esp, 12			; 0000000cH
  0075d	e9 9c fd ff ff	 jmp	 $LN161@GetConditi
$LN64@GetConditi:

; 228  : 						return retValue;
; 229  : 					}
; 230  : 
; 231  : 				case GRAPH_BinaryWave:
; 232  : 					// ( 2006 / 06 / 05 - Sang-Woo, Cho ) - A title of Binary Wave modification
; 233  : 					//return _T(",ROC,Sto Fast %K,Sto Fast %D,,,Signal,");
; 234  : 					//return _T(",ROC,Sto Fast %K,Sto Fast %D,MACD ,MACD ,MACD Signal,");
; 235  : 					{
; 236  : 						retValue.Format("%s,ROC %s,Sto Fast %%K,Sto Fast %%D,MACD %s,MACD %s,MACD Signal,", strDisparityPeriod, strPeriod, strShortTerm, strLongTerm);

  00762	ff 75 b4	 push	 DWORD PTR _strLongTerm$[ebp]
  00765	8d 45 0c	 lea	 eax, DWORD PTR _retValue$[ebp]
  00768	ff 75 b0	 push	 DWORD PTR _strShortTerm$[ebp]
  0076b	ff 75 f0	 push	 DWORD PTR _strPeriod$[ebp]
  0076e	ff 75 ac	 push	 DWORD PTR _strDisparityPeriod$[ebp]
  00771	68 00 00 00 00	 push	 OFFSET ??_C@_0EB@ECBKOHJK@?$CFs?0ROC?5?$CFs?0Sto?5Fast?5?$CF?$CFK?0Sto?5Fast@
  00776	50		 push	 eax
  00777	ff 15 00 00 00
	00		 call	 DWORD PTR __imp_?Format@?$CStringT@DV?$StrTraitMFC_DLL@DV?$ChTraitsCRT@D@ATL@@@@@ATL@@QAAXPBDZZ
  0077d	83 c4 18	 add	 esp, 24			; 00000018H

; 237  : 						return retValue;

  00780	e9 79 fd ff ff	 jmp	 $LN161@GetConditi
$LN65@GetConditi:

; 238  : 					}
; 239  : 
; 240  : 				case GRAPH_PERCENT_B_STOCHASTIC:
; 241  : 					//return _T(",,Slow%K1,slow%K2,Slow%D,");
; 242  : 					{
; 243  : 						retValue.Format("%s,%s,Slow%%K %s1,slow%%K %s2,Slow%%D %s,", strMaPeriod, strSD, strPeriod, strPeriod, strPeriod);

  00785	8b 45 f0	 mov	 eax, DWORD PTR _strPeriod$[ebp]
  00788	50		 push	 eax
  00789	50		 push	 eax
  0078a	50		 push	 eax
  0078b	ff 75 b8	 push	 DWORD PTR _strSD$[ebp]
  0078e	ff 75 ec	 push	 DWORD PTR _strMaPeriod$[ebp]
$LN169@GetConditi:

; 428  : // 2008..02.04 by LYH <<
; 429  : }

  00791	8d 45 0c	 lea	 eax, DWORD PTR _retValue$[ebp]
  00794	68 00 00 00 00	 push	 OFFSET ??_C@_0CK@KJCFFEKD@?$CFs?0?$CFs?0Slow?$CF?$CFK?5?$CFs1?0slow?$CF?$CFK?5?$CFs2?0S@
  00799	50		 push	 eax
  0079a	ff 15 00 00 00
	00		 call	 DWORD PTR __imp_?Format@?$CStringT@DV?$StrTraitMFC_DLL@DV?$ChTraitsCRT@D@ATL@@@@@ATL@@QAAXPBDZZ
  007a0	83 c4 1c	 add	 esp, 28			; 0000001cH
  007a3	e9 56 fd ff ff	 jmp	 $LN161@GetConditi
$LN66@GetConditi:

; 244  : 						return retValue;
; 245  : 					}
; 246  : 
; 247  : 				case GRAPH_LRS_STOCHASTIC:
; 248  : 					//return _T("LRS,Slow%K1,slow%K2,Slow%D,");
; 249  : 					{
; 250  : 						retValue.Format("LRS %s,Slow%%K %s1,slow%%K %s2,Slow%%D %s,", strPeriod, strPeriod, strPeriod, strPeriod);

  007a8	8b 45 f0	 mov	 eax, DWORD PTR _strPeriod$[ebp]
  007ab	50		 push	 eax
  007ac	50		 push	 eax
  007ad	50		 push	 eax
  007ae	50		 push	 eax
  007af	8d 45 0c	 lea	 eax, DWORD PTR _retValue$[ebp]
  007b2	68 00 00 00 00	 push	 OFFSET ??_C@_0CL@FFNKGLNG@LRS?5?$CFs?0Slow?$CF?$CFK?5?$CFs1?0slow?$CF?$CFK?5?$CFs2?0@
  007b7	50		 push	 eax
  007b8	ff 15 00 00 00
	00		 call	 DWORD PTR __imp_?Format@?$CStringT@DV?$StrTraitMFC_DLL@DV?$ChTraitsCRT@D@ATL@@@@@ATL@@QAAXPBDZZ
  007be	83 c4 18	 add	 esp, 24			; 00000018H

; 251  : 						return retValue;

  007c1	e9 38 fd ff ff	 jmp	 $LN161@GetConditi
$LN67@GetConditi:

; 428  : // 2008..02.04 by LYH <<
; 429  : }

  007c6	8b 45 f0	 mov	 eax, DWORD PTR _strPeriod$[ebp]
  007c9	50		 push	 eax
  007ca	50		 push	 eax
  007cb	50		 push	 eax
  007cc	ff 75 e8	 push	 DWORD PTR _strLongMA$[ebp]
  007cf	ff 75 e4	 push	 DWORD PTR _strShortMA$[ebp]
  007d2	eb bd		 jmp	 SHORT $LN169@GetConditi
$LN69@GetConditi:

; 252  : 					}
; 253  : 						
; 254  : 				case GRAPH_MACD_STOCHASTIC:
; 255  : 					//return _T(",,Slow%K1,slow%K2,Slow%D,");
; 256  : 					{
; 257  : 						retValue.Format("%s,%s,Slow%%K %s1,slow%%K %s2,Slow%%D %s,", strShortMA, strLongMA, strPeriod, strPeriod, strPeriod);
; 258  : 						return retValue;
; 259  : 					}
; 260  : 
; 261  : 				case GRAPH_MOMENTUM_STOCHASTIC:
; 262  : 					//return _T(",Slow%K1,slow%K2,Slow%D,");
; 263  : 					{
; 264  : 						retValue.Format("%s,%s,Slow%%K %s1,slow%%K %s2,Slow%%D %s,", strShortMA, strLongMA, strPeriod, strPeriod, strPeriod);
; 265  : 						return retValue;
; 266  : 					}
; 267  : 
; 268  : 				case GRAPH_OBV_MOMENTUM:
; 269  : 					//return _T(",Signal,");
; 270  : 					{
; 271  : 						retValue.Format("%s,%s Signal,", strMomentumPeriod, strMomentum);

  007d4	ff 75 c0	 push	 DWORD PTR _strMomentum$[ebp]

; 428  : // 2008..02.04 by LYH <<
; 429  : }

  007d7	8d 45 0c	 lea	 eax, DWORD PTR _retValue$[ebp]
  007da	ff 75 bc	 push	 DWORD PTR _strMomentumPeriod$[ebp]
  007dd	68 00 00 00 00	 push	 OFFSET ??_C@_0O@BINAELEC@?$CFs?0?$CFs?5Signal?0@
  007e2	50		 push	 eax
  007e3	ff 15 00 00 00
	00		 call	 DWORD PTR __imp_?Format@?$CStringT@DV?$StrTraitMFC_DLL@DV?$ChTraitsCRT@D@ATL@@@@@ATL@@QAAXPBDZZ
  007e9	83 c4 10	 add	 esp, 16			; 00000010H
  007ec	e9 0d fd ff ff	 jmp	 $LN161@GetConditi
$LN70@GetConditi:

; 272  : 						return retValue;
; 273  : 					}
; 274  : 									
; 275  : 				case GRAPH_OBV_STOCHASTIC:
; 276  : 					//return _T("Fast%K,Slow%K,Slow%D,");
; 277  : 					{
; 278  : 						retValue.Format("Fast%%K %s,Slow%%K %s,Slow%%D %s,", strPeriod, strPeriod, strPeriod);

  007f1	8b 45 f0	 mov	 eax, DWORD PTR _strPeriod$[ebp]
  007f4	50		 push	 eax
  007f5	50		 push	 eax
  007f6	50		 push	 eax
  007f7	68 00 00 00 00	 push	 OFFSET ??_C@_0CC@OBCAKKNC@Fast?$CF?$CFK?5?$CFs?0Slow?$CF?$CFK?5?$CFs?0Slow?$CF?$CFD?5?$CF@

; 279  : 						return retValue;

  007fc	e9 f0 fc ff ff	 jmp	 $LN162@GetConditi
$LN71@GetConditi:

; 280  : 					}
; 281  : 										
; 282  : 				case GRAPH_ROC_STOCHASTIC:
; 283  : 					//return _T("ROC,Slow%K1,slow%K2,Slow%D,");
; 284  : 					{
; 285  : 						retValue.Format("ROC %s,Slow%%K %s1,slow%%K %s2,Slow%%D %s,", strPeriod, strPeriod, strPeriod, strPeriod);

  00801	8b 45 f0	 mov	 eax, DWORD PTR _strPeriod$[ebp]
  00804	50		 push	 eax
  00805	50		 push	 eax
  00806	50		 push	 eax
  00807	50		 push	 eax
  00808	8d 45 0c	 lea	 eax, DWORD PTR _retValue$[ebp]
  0080b	68 00 00 00 00	 push	 OFFSET ??_C@_0CL@OLMGGEPE@ROC?5?$CFs?0Slow?$CF?$CFK?5?$CFs1?0slow?$CF?$CFK?5?$CFs2?0@
  00810	50		 push	 eax
  00811	ff 15 00 00 00
	00		 call	 DWORD PTR __imp_?Format@?$CStringT@DV?$StrTraitMFC_DLL@DV?$ChTraitsCRT@D@ATL@@@@@ATL@@QAAXPBDZZ
  00817	83 c4 18	 add	 esp, 24			; 00000018H

; 286  : 						return retValue;

  0081a	e9 df fc ff ff	 jmp	 $LN161@GetConditi
$LN72@GetConditi:

; 287  : 					}
; 288  : 
; 289  : 				case GRAPH_RSI_MACD:
; 290  : 					//return _T("RSI,,,Signal,");
; 291  : 					{
; 292  : 						retValue.Format("RSI %s,%s,%s,Signal,", strPeriod, strShortMA, strLongMA);

  0081f	ff 75 e8	 push	 DWORD PTR _strLongMA$[ebp]
  00822	ff 75 e4	 push	 DWORD PTR _strShortMA$[ebp]
  00825	ff 75 f0	 push	 DWORD PTR _strPeriod$[ebp]
  00828	68 00 00 00 00	 push	 OFFSET ??_C@_0BF@GAJDJLKB@RSI?5?$CFs?0?$CFs?0?$CFs?0Signal?0@

; 293  : 						return retValue;

  0082d	e9 bf fc ff ff	 jmp	 $LN162@GetConditi
$LN73@GetConditi:

; 294  : 					}
; 295  : 
; 296  : 				case GRAPH_RSI_STOCHASTIC:
; 297  : 					//return _T("RSI,Slow%K1,Slow%K2,Slow%D,");
; 298  : 					{
; 299  : 						retValue.Format("RSI %s,Slow%%K %s1,Slow%%K %s2,Slow%%D %s,", strPeriod, strPeriod, strPeriod, strPeriod);

  00832	8b 45 f0	 mov	 eax, DWORD PTR _strPeriod$[ebp]
  00835	50		 push	 eax
  00836	50		 push	 eax
  00837	50		 push	 eax
  00838	50		 push	 eax
  00839	8d 45 0c	 lea	 eax, DWORD PTR _retValue$[ebp]
  0083c	68 00 00 00 00	 push	 OFFSET ??_C@_0CL@MAOOGFCD@RSI?5?$CFs?0Slow?$CF?$CFK?5?$CFs1?0Slow?$CF?$CFK?5?$CFs2?0@
  00841	50		 push	 eax
  00842	ff 15 00 00 00
	00		 call	 DWORD PTR __imp_?Format@?$CStringT@DV?$StrTraitMFC_DLL@DV?$ChTraitsCRT@D@ATL@@@@@ATL@@QAAXPBDZZ
  00848	83 c4 18	 add	 esp, 24			; 00000018H

; 300  : 						return retValue;

  0084b	e9 ae fc ff ff	 jmp	 $LN161@GetConditi
$LN74@GetConditi:

; 301  : 					}
; 302  : 
; 303  : 				case GRAPH_SONAR_PSYCO_LINE:
; 304  : 					//return _T(",,,");
; 305  : 					{
; 306  : 						retValue.Format("%s,%s,%s,", strMaPeriod, strComparePeriod, strPsychologyPeriod);

  00850	ff 75 c8	 push	 DWORD PTR _strPsychologyPeriod$[ebp]
  00853	ff 75 c4	 push	 DWORD PTR _strComparePeriod$[ebp]

; 307  : 						return retValue;

  00856	e9 8e fc ff ff	 jmp	 $LN164@GetConditi
$LN75@GetConditi:

; 308  : 					}
; 309  : 				
; 310  : 				case GRAPH_STOCHASTIC_RSI:
; 311  : 					//return _T("Fast%K,Fast%d,RSI,Signal,");
; 312  : 					{
; 313  : 						retValue.Format("Fast%%K %s,Fast%%D %s,RSI %s,Signal,", strPeriod, strPeriod, strPeriod);

  0085b	8b 45 f0	 mov	 eax, DWORD PTR _strPeriod$[ebp]
  0085e	50		 push	 eax
  0085f	50		 push	 eax
  00860	50		 push	 eax
  00861	68 00 00 00 00	 push	 OFFSET ??_C@_0CF@JGGBPBED@Fast?$CF?$CFK?5?$CFs?0Fast?$CF?$CFD?5?$CFs?0RSI?5?$CFs?0Si@

; 314  : 						return retValue;

  00866	e9 86 fc ff ff	 jmp	 $LN162@GetConditi
$LN76@GetConditi:

; 315  : 					}
; 316  : 
; 317  : 				case GRAPH_STANDARD_ERROR_BAND:
; 318  : 					//return _T(",,");
; 319  : 					{
; 320  : 						retValue.Format("%s,%s,", strPeriod, strSEMulti);

  0086b	ff 75 d8	 push	 DWORD PTR _strSEMulti$[ebp]
  0086e	ff 75 f0	 push	 DWORD PTR _strPeriod$[ebp]

; 321  : 						return retValue;

  00871	e9 1c fe ff ff	 jmp	 $LN167@GetConditi
$LN77@GetConditi:

; 322  : 					}
; 323  : 
; 324  : 				case GRAPH_STANDARD_ERROR_CHANNEL:
; 325  : 					//return _T(",");
; 326  : 					{
; 327  : 						retValue.Format("%s,", strSEMulti);

  00876	ff 75 d8	 push	 DWORD PTR _strSEMulti$[ebp]

; 328  : 						return retValue;

  00879	e9 cc fd ff ff	 jmp	 $LN165@GetConditi
$LN78@GetConditi:

; 329  : 					}
; 330  : 
; 331  : 				case GRAPH_STANDARD_GAP_BAND:
; 332  : 					//return _T(",");
; 333  : 					{
; 334  : 						retValue.Format("%s,", strSDMulti);

  0087e	ff 75 e0	 push	 DWORD PTR _strSDMulti$[ebp]

; 335  : 						return retValue;

  00881	e9 c4 fd ff ff	 jmp	 $LN165@GetConditi
$LN79@GetConditi:

; 336  : 					}
; 337  : 
; 338  : 				case GRAPH_PARABOLIC_SAR:
; 339  : 					//return _T(",,");
; 340  : 					{
; 341  : 						retValue.Format("%s,%s,", strAccVariable, strMaxValue);

  00886	ff 75 d0	 push	 DWORD PTR _strMaxValue$[ebp]
  00889	ff 75 cc	 push	 DWORD PTR _strAccVariable$[ebp]

; 342  : 						return retValue;

  0088c	e9 01 fe ff ff	 jmp	 $LN167@GetConditi
$LN80@GetConditi:

; 343  : 					}
; 344  : 
; 345  : 				case GRAPH_ADXR:
; 346  : 					//return _T("ADX,ADXR,");
; 347  : 					{
; 348  : 						retValue.Format("ADX %s,ADXR %s,", strPeriod, strPeriod);

  00891	8b 45 f0	 mov	 eax, DWORD PTR _strPeriod$[ebp]
  00894	50		 push	 eax
  00895	50		 push	 eax

; 428  : // 2008..02.04 by LYH <<
; 429  : }

  00896	8d 45 0c	 lea	 eax, DWORD PTR _retValue$[ebp]
  00899	68 00 00 00 00	 push	 OFFSET ??_C@_0BA@MKCDDABF@ADX?5?$CFs?0ADXR?5?$CFs?0@
  0089e	50		 push	 eax
  0089f	ff 15 00 00 00
	00		 call	 DWORD PTR __imp_?Format@?$CStringT@DV?$StrTraitMFC_DLL@DV?$ChTraitsCRT@D@ATL@@@@@ATL@@QAAXPBDZZ
  008a5	83 c4 10	 add	 esp, 16			; 00000010H
  008a8	e9 51 fc ff ff	 jmp	 $LN161@GetConditi
$LN81@GetConditi:

; 349  : 						return retValue;
; 350  : 					}
; 351  : 
; 352  : 				case GRAPH_MACD:
; 353  : 				case GRAPH_MACD_OSC:
; 354  : 				case GRAPH_MAO:
; 355  : 				case GRAPH_PRICE_OSCILLATOR:
; 356  : 				case GRAPH_CHARKINS_OSCILLATOR:
; 357  : 				case GRAPH_VOLUME_OSCILLATOR:
; 358  : 					//return _T(",,Signal,");
; 359  : 					{
; 360  : 						retValue.Format("%s,%s,Signal,", strShortMA, strLongMA);

  008ad	ff 75 e8	 push	 DWORD PTR _strLongMA$[ebp]

; 428  : // 2008..02.04 by LYH <<
; 429  : }

  008b0	8d 45 0c	 lea	 eax, DWORD PTR _retValue$[ebp]
  008b3	ff 75 e4	 push	 DWORD PTR _strShortMA$[ebp]
  008b6	68 00 00 00 00	 push	 OFFSET ??_C@_0O@POOELIFG@?$CFs?0?$CFs?0Signal?0@
  008bb	50		 push	 eax
  008bc	ff 15 00 00 00
	00		 call	 DWORD PTR __imp_?Format@?$CStringT@DV?$StrTraitMFC_DLL@DV?$ChTraitsCRT@D@ATL@@@@@ATL@@QAAXPBDZZ
  008c2	83 c4 10	 add	 esp, 16			; 00000010H
  008c5	e9 34 fc ff ff	 jmp	 $LN161@GetConditi
$LN87@GetConditi:
  008ca	ff 75 ec	 push	 DWORD PTR _strMaPeriod$[ebp]
  008cd	8d 45 0c	 lea	 eax, DWORD PTR _retValue$[ebp]
  008d0	68 00 00 00 00	 push	 OFFSET ??_C@_0L@BHBKOAPL@?$CFs?0Signal?0@
  008d5	50		 push	 eax
  008d6	ff 15 00 00 00
	00		 call	 DWORD PTR __imp_?Format@?$CStringT@DV?$StrTraitMFC_DLL@DV?$ChTraitsCRT@D@ATL@@@@@ATL@@QAAXPBDZZ
  008dc	83 c4 0c	 add	 esp, 12			; 0000000cH
  008df	e9 1a fc ff ff	 jmp	 $LN161@GetConditi
$LN88@GetConditi:

; 361  : 						return retValue;
; 362  : 					}
; 363  : 
; 364  : 				case GRAPH_SONAR:
; 365  : 					//return _T(",Signal,");
; 366  : 					{
; 367  : 						retValue.Format("%s,Signal,", strMaPeriod);
; 368  : 						return retValue;
; 369  : 					}
; 370  : 
; 371  : 				case GRAPH_SROC:
; 372  : 					//return _T(",,Signal,");
; 373  : 					{
; 374  : 						retValue.Format("%s,%s,Signal,", strMaPeriod, strPeriod);

  008e4	ff 75 f0	 push	 DWORD PTR _strPeriod$[ebp]

; 428  : // 2008..02.04 by LYH <<
; 429  : }

  008e7	8d 45 0c	 lea	 eax, DWORD PTR _retValue$[ebp]
  008ea	ff 75 ec	 push	 DWORD PTR _strMaPeriod$[ebp]
  008ed	68 00 00 00 00	 push	 OFFSET ??_C@_0O@POOELIFG@?$CFs?0?$CFs?0Signal?0@
  008f2	50		 push	 eax
  008f3	ff 15 00 00 00
	00		 call	 DWORD PTR __imp_?Format@?$CStringT@DV?$StrTraitMFC_DLL@DV?$ChTraitsCRT@D@ATL@@@@@ATL@@QAAXPBDZZ
  008f9	83 c4 10	 add	 esp, 16			; 00000010H
  008fc	e9 fd fb ff ff	 jmp	 $LN161@GetConditi
$LN89@GetConditi:

; 375  : 						return retValue;
; 376  : 					}
; 377  : 
; 378  : 				case GRAPH_AB_RATIO:
; 379  : 					//return _T("AR,BR,");
; 380  : 					{
; 381  : 						retValue.Format("AR %s,BR %s,", strPeriod, strPeriod);

  00901	8b 45 f0	 mov	 eax, DWORD PTR _strPeriod$[ebp]
  00904	50		 push	 eax
  00905	50		 push	 eax

; 428  : // 2008..02.04 by LYH <<
; 429  : }

  00906	8d 45 0c	 lea	 eax, DWORD PTR _retValue$[ebp]
  00909	68 00 00 00 00	 push	 OFFSET ??_C@_0N@KDLGPKIJ@AR?5?$CFs?0BR?5?$CFs?0@
  0090e	50		 push	 eax
  0090f	ff 15 00 00 00
	00		 call	 DWORD PTR __imp_?Format@?$CStringT@DV?$StrTraitMFC_DLL@DV?$ChTraitsCRT@D@ATL@@@@@ATL@@QAAXPBDZZ
  00915	83 c4 10	 add	 esp, 16			; 00000010H
  00918	e9 e1 fb ff ff	 jmp	 $LN161@GetConditi
$LN92@GetConditi:

; 382  : 						return retValue;
; 383  : 					}
; 384  : 
; 385  : 				case GRAPH_ATR:
; 386  : 				case GRAPH_EOM:
; 387  : 					//return _T(",Signal,");
; 388  : 					{
; 389  : 						retValue.Format("%s,Signal,", strMaPeriod);
; 390  : 						return retValue;
; 391  : 					}
; 392  : 
; 393  : 				case GRAPH_MASS_INDEX:
; 394  : 					//return _T(",Signal,");
; 395  : 					{
; 396  : 						retValue.Format("%s,Signal,", strCumPeriod);

  0091d	ff 75 d4	 push	 DWORD PTR _strCumPeriod$[ebp]

; 428  : // 2008..02.04 by LYH <<
; 429  : }

  00920	8d 45 0c	 lea	 eax, DWORD PTR _retValue$[ebp]
  00923	68 00 00 00 00	 push	 OFFSET ??_C@_0L@BHBKOAPL@?$CFs?0Signal?0@
  00928	50		 push	 eax
  00929	ff 15 00 00 00
	00		 call	 DWORD PTR __imp_?Format@?$CStringT@DV?$StrTraitMFC_DLL@DV?$ChTraitsCRT@D@ATL@@@@@ATL@@QAAXPBDZZ
  0092f	83 c4 0c	 add	 esp, 12			; 0000000cH
  00932	e9 c7 fb ff ff	 jmp	 $LN161@GetConditi
$LN93@GetConditi:

; 397  : 						return retValue;
; 398  : 					}
; 399  : 
; 400  : 				case GRAPH_RMI:
; 401  : 					//return _T("RS,RMI,");
; 402  : 					{
; 403  : 						retValue.Format("RS %s,RMI %s,", strPeriod, strPeriod);

  00937	8b 45 f0	 mov	 eax, DWORD PTR _strPeriod$[ebp]
  0093a	50		 push	 eax
  0093b	50		 push	 eax

; 428  : // 2008..02.04 by LYH <<
; 429  : }

  0093c	8d 45 0c	 lea	 eax, DWORD PTR _retValue$[ebp]
  0093f	68 00 00 00 00	 push	 OFFSET ??_C@_0O@OJADBDPP@RS?5?$CFs?0RMI?5?$CFs?0@
  00944	50		 push	 eax
  00945	ff 15 00 00 00
	00		 call	 DWORD PTR __imp_?Format@?$CStringT@DV?$StrTraitMFC_DLL@DV?$ChTraitsCRT@D@ATL@@@@@ATL@@QAAXPBDZZ
  0094b	83 c4 10	 add	 esp, 16			; 00000010H
  0094e	e9 ab fb ff ff	 jmp	 $LN161@GetConditi
$LN94@GetConditi:

; 404  : 						return retValue;
; 405  : 					}
; 406  : 
; 407  : 				case GRAPH_STOCHASTICS_FAST:
; 408  : 					//return _T("Fase%K,Fast%D,");
; 409  : 					{
; 410  : 						retValue.Format("Fase%%K %s,Fast%%D %s,", strPeriod, strPeriod);

  00953	8b 45 f0	 mov	 eax, DWORD PTR _strPeriod$[ebp]
  00956	50		 push	 eax
  00957	50		 push	 eax

; 428  : // 2008..02.04 by LYH <<
; 429  : }

  00958	8d 45 0c	 lea	 eax, DWORD PTR _retValue$[ebp]
  0095b	68 00 00 00 00	 push	 OFFSET ??_C@_0BH@ECHGHJAI@Fase?$CF?$CFK?5?$CFs?0Fast?$CF?$CFD?5?$CFs?0@
  00960	50		 push	 eax
  00961	ff 15 00 00 00
	00		 call	 DWORD PTR __imp_?Format@?$CStringT@DV?$StrTraitMFC_DLL@DV?$ChTraitsCRT@D@ATL@@@@@ATL@@QAAXPBDZZ
  00967	83 c4 10	 add	 esp, 16			; 00000010H
  0096a	e9 8f fb ff ff	 jmp	 $LN161@GetConditi
$LN95@GetConditi:

; 411  : 						return retValue;
; 412  : 					}
; 413  : 
; 414  : 				case GRAPH_STOCHASTICS_SLOW:
; 415  : 					//return _T("Fase%K,Slow%K,Slow%D,");
; 416  : 					{
; 417  : 						retValue.Format("Fase%%K %s,Slow%%K %s,Slow%%D %s,", strPeriod, strPeriod, strPeriod);

  0096f	8b 45 f0	 mov	 eax, DWORD PTR _strPeriod$[ebp]
  00972	50		 push	 eax
  00973	50		 push	 eax
  00974	50		 push	 eax
  00975	68 00 00 00 00	 push	 OFFSET ??_C@_0CC@BLJMPBD@Fase?$CF?$CFK?5?$CFs?0Slow?$CF?$CFK?5?$CFs?0Slow?$CF?$CFD?5?$CF@

; 418  : 						return retValue;

  0097a	e9 72 fb ff ff	 jmp	 $LN162@GetConditi
  0097f	90		 npad	 1
$LN159@GetConditi:

; 428  : // 2008..02.04 by LYH <<
; 429  : }

  00980	00 00 00 00	 DD	 $LN9@GetConditi
  00984	00 00 00 00	 DD	 $LN10@GetConditi
  00988	00 00 00 00	 DD	 $LN89@GetConditi
  0098c	00 00 00 00	 DD	 $LN87@GetConditi
  00990	00 00 00 00	 DD	 $LN11@GetConditi
  00994	00 00 00 00	 DD	 $LN14@GetConditi
  00998	00 00 00 00	 DD	 $LN48@GetConditi
  0099c	00 00 00 00	 DD	 $LN17@GetConditi
  009a0	00 00 00 00	 DD	 $LN26@GetConditi
  009a4	00 00 00 00	 DD	 $LN15@GetConditi
  009a8	00 00 00 00	 DD	 $LN81@GetConditi
  009ac	00 00 00 00	 DD	 $LN19@GetConditi
  009b0	00 00 00 00	 DD	 $LN94@GetConditi
  009b4	00 00 00 00	 DD	 $LN95@GetConditi
  009b8	00 00 00 00	 DD	 $LN8@GetConditi
  009bc	00 00 00 00	 DD	 $LN13@GetConditi
  009c0	00 00 00 00	 DD	 $LN64@GetConditi
  009c4	00 00 00 00	 DD	 $LN43@GetConditi
  009c8	00 00 00 00	 DD	 $LN45@GetConditi
  009cc	00 00 00 00	 DD	 $LN47@GetConditi
  009d0	00 00 00 00	 DD	 $LN65@GetConditi
  009d4	00 00 00 00	 DD	 $LN66@GetConditi
  009d8	00 00 00 00	 DD	 $LN67@GetConditi
  009dc	00 00 00 00	 DD	 $LN69@GetConditi
  009e0	00 00 00 00	 DD	 $LN70@GetConditi
  009e4	00 00 00 00	 DD	 $LN71@GetConditi
  009e8	00 00 00 00	 DD	 $LN72@GetConditi
  009ec	00 00 00 00	 DD	 $LN73@GetConditi
  009f0	00 00 00 00	 DD	 $LN74@GetConditi
  009f4	00 00 00 00	 DD	 $LN75@GetConditi
  009f8	00 00 00 00	 DD	 $LN76@GetConditi
  009fc	00 00 00 00	 DD	 $LN77@GetConditi
  00a00	00 00 00 00	 DD	 $LN78@GetConditi
  00a04	00 00 00 00	 DD	 $LN79@GetConditi
  00a08	00 00 00 00	 DD	 $LN80@GetConditi
  00a0c	00 00 00 00	 DD	 $LN88@GetConditi
  00a10	00 00 00 00	 DD	 $LN92@GetConditi
  00a14	00 00 00 00	 DD	 $LN93@GetConditi
  00a18	00 00 00 00	 DD	 $LN5@GetConditi
$LN158@GetConditi:
  00a1c	00		 DB	 0
  00a1d	26		 DB	 38			; 00000026H
  00a1e	01		 DB	 1
  00a1f	26		 DB	 38			; 00000026H
  00a20	26		 DB	 38			; 00000026H
  00a21	02		 DB	 2
  00a22	03		 DB	 3
  00a23	04		 DB	 4
  00a24	05		 DB	 5
  00a25	06		 DB	 6
  00a26	07		 DB	 7
  00a27	08		 DB	 8
  00a28	26		 DB	 38			; 00000026H
  00a29	26		 DB	 38			; 00000026H
  00a2a	09		 DB	 9
  00a2b	26		 DB	 38			; 00000026H
  00a2c	26		 DB	 38			; 00000026H
  00a2d	09		 DB	 9
  00a2e	0a		 DB	 10			; 0000000aH
  00a2f	0a		 DB	 10			; 0000000aH
  00a30	06		 DB	 6
  00a31	26		 DB	 38			; 00000026H
  00a32	06		 DB	 6
  00a33	0b		 DB	 11			; 0000000bH
  00a34	0b		 DB	 11			; 0000000bH
  00a35	26		 DB	 38			; 00000026H
  00a36	26		 DB	 38			; 00000026H
  00a37	26		 DB	 38			; 00000026H
  00a38	26		 DB	 38			; 00000026H
  00a39	0b		 DB	 11			; 0000000bH
  00a3a	26		 DB	 38			; 00000026H
  00a3b	0b		 DB	 11			; 0000000bH
  00a3c	26		 DB	 38			; 00000026H
  00a3d	06		 DB	 6
  00a3e	06		 DB	 6
  00a3f	03		 DB	 3
  00a40	0c		 DB	 12			; 0000000cH
  00a41	0d		 DB	 13			; 0000000dH
  00a42	26		 DB	 38			; 00000026H
  00a43	26		 DB	 38			; 00000026H
  00a44	26		 DB	 38			; 00000026H
  00a45	26		 DB	 38			; 00000026H
  00a46	26		 DB	 38			; 00000026H
  00a47	06		 DB	 6
  00a48	0e		 DB	 14			; 0000000eH
  00a49	26		 DB	 38			; 00000026H
  00a4a	26		 DB	 38			; 00000026H
  00a4b	26		 DB	 38			; 00000026H
  00a4c	26		 DB	 38			; 00000026H
  00a4d	26		 DB	 38			; 00000026H
  00a4e	26		 DB	 38			; 00000026H
  00a4f	26		 DB	 38			; 00000026H
  00a50	26		 DB	 38			; 00000026H
  00a51	0b		 DB	 11			; 0000000bH
  00a52	07		 DB	 7
  00a53	26		 DB	 38			; 00000026H
  00a54	06		 DB	 6
  00a55	26		 DB	 38			; 00000026H
  00a56	26		 DB	 38			; 00000026H
  00a57	26		 DB	 38			; 00000026H
  00a58	26		 DB	 38			; 00000026H
  00a59	26		 DB	 38			; 00000026H
  00a5a	08		 DB	 8
  00a5b	26		 DB	 38			; 00000026H
  00a5c	08		 DB	 8
  00a5d	08		 DB	 8
  00a5e	26		 DB	 38			; 00000026H
  00a5f	06		 DB	 6
  00a60	0f		 DB	 15			; 0000000fH
  00a61	04		 DB	 4
  00a62	10		 DB	 16			; 00000010H
  00a63	03		 DB	 3
  00a64	26		 DB	 38			; 00000026H
  00a65	26		 DB	 38			; 00000026H
  00a66	26		 DB	 38			; 00000026H
  00a67	26		 DB	 38			; 00000026H
  00a68	26		 DB	 38			; 00000026H
  00a69	26		 DB	 38			; 00000026H
  00a6a	26		 DB	 38			; 00000026H
  00a6b	26		 DB	 38			; 00000026H
  00a6c	26		 DB	 38			; 00000026H
  00a6d	26		 DB	 38			; 00000026H
  00a6e	26		 DB	 38			; 00000026H
  00a6f	06		 DB	 6
  00a70	08		 DB	 8
  00a71	26		 DB	 38			; 00000026H
  00a72	06		 DB	 6
  00a73	06		 DB	 6
  00a74	26		 DB	 38			; 00000026H
  00a75	26		 DB	 38			; 00000026H
  00a76	26		 DB	 38			; 00000026H
  00a77	26		 DB	 38			; 00000026H
  00a78	26		 DB	 38			; 00000026H
  00a79	26		 DB	 38			; 00000026H
  00a7a	26		 DB	 38			; 00000026H
  00a7b	26		 DB	 38			; 00000026H
  00a7c	26		 DB	 38			; 00000026H
  00a7d	26		 DB	 38			; 00000026H
  00a7e	26		 DB	 38			; 00000026H
  00a7f	26		 DB	 38			; 00000026H
  00a80	26		 DB	 38			; 00000026H
  00a81	26		 DB	 38			; 00000026H
  00a82	26		 DB	 38			; 00000026H
  00a83	26		 DB	 38			; 00000026H
  00a84	26		 DB	 38			; 00000026H
  00a85	26		 DB	 38			; 00000026H
  00a86	0b		 DB	 11			; 0000000bH
  00a87	0b		 DB	 11			; 0000000bH
  00a88	08		 DB	 8
  00a89	08		 DB	 8
  00a8a	08		 DB	 8
  00a8b	08		 DB	 8
  00a8c	08		 DB	 8
  00a8d	08		 DB	 8
  00a8e	08		 DB	 8
  00a8f	08		 DB	 8
  00a90	08		 DB	 8
  00a91	08		 DB	 8
  00a92	08		 DB	 8
  00a93	06		 DB	 6
  00a94	11		 DB	 17			; 00000011H
  00a95	11		 DB	 17			; 00000011H
  00a96	12		 DB	 18			; 00000012H
  00a97	12		 DB	 18			; 00000012H
  00a98	13		 DB	 19			; 00000013H
  00a99	06		 DB	 6
  00a9a	06		 DB	 6
  00a9b	06		 DB	 6
  00a9c	06		 DB	 6
  00a9d	14		 DB	 20			; 00000014H
  00a9e	15		 DB	 21			; 00000015H
  00a9f	16		 DB	 22			; 00000016H
  00aa0	16		 DB	 22			; 00000016H
  00aa1	17		 DB	 23			; 00000017H
  00aa2	18		 DB	 24			; 00000018H
  00aa3	19		 DB	 25			; 00000019H
  00aa4	1a		 DB	 26			; 0000001aH
  00aa5	1b		 DB	 27			; 0000001bH
  00aa6	1c		 DB	 28			; 0000001cH
  00aa7	1d		 DB	 29			; 0000001dH
  00aa8	1e		 DB	 30			; 0000001eH
  00aa9	1f		 DB	 31			; 0000001fH
  00aaa	20		 DB	 32			; 00000020H
  00aab	21		 DB	 33			; 00000021H
  00aac	22		 DB	 34			; 00000022H
  00aad	0a		 DB	 10			; 0000000aH
  00aae	0a		 DB	 10			; 0000000aH
  00aaf	0a		 DB	 10			; 0000000aH
  00ab0	0a		 DB	 10			; 0000000aH
  00ab1	23		 DB	 35			; 00000023H
  00ab2	24		 DB	 36			; 00000024H
  00ab3	25		 DB	 37			; 00000025H
  00ab4	26		 DB	 38			; 00000026H
  00ab5	26		 DB	 38			; 00000026H
  00ab6	26		 DB	 38			; 00000026H
  00ab7	26		 DB	 38			; 00000026H
  00ab8	26		 DB	 38			; 00000026H
  00ab9	26		 DB	 38			; 00000026H
  00aba	26		 DB	 38			; 00000026H
  00abb	26		 DB	 38			; 00000026H
  00abc	26		 DB	 38			; 00000026H
  00abd	26		 DB	 38			; 00000026H
  00abe	26		 DB	 38			; 00000026H
  00abf	26		 DB	 38			; 00000026H
  00ac0	26		 DB	 38			; 00000026H
  00ac1	26		 DB	 38			; 00000026H
  00ac2	26		 DB	 38			; 00000026H
  00ac3	26		 DB	 38			; 00000026H
  00ac4	08		 DB	 8
_TEXT	ENDS
;	COMDAT text$x
text$x	SEGMENT
__unwindfunclet$?GetConditionTitle@CData_ConditionTitle@@QAE?AV?$CStringT@DV?$StrTraitMFC_DLL@DV?$ChTraitsCRT@D@ATL@@@@@ATL@@ABV23@@Z$0:
  00000	8d 8d 7c ff ff
	ff		 lea	 ecx, DWORD PTR _indicatorname$[ebp]
  00006	ff 25 00 00 00
	00		 jmp	 DWORD PTR __imp_??1?$CStringT@DV?$StrTraitMFC_DLL@DV?$ChTraitsCRT@D@ATL@@@@@ATL@@QAE@XZ
__unwindfunclet$?GetConditionTitle@CData_ConditionTitle@@QAE?AV?$CStringT@DV?$StrTraitMFC_DLL@DV?$ChTraitsCRT@D@ATL@@@@@ATL@@ABV23@@Z$1:
  0000c	8d 8d 78 ff ff
	ff		 lea	 ecx, DWORD PTR $T5[ebp]
  00012	ff 25 00 00 00
	00		 jmp	 DWORD PTR __imp_??1?$CStringT@DV?$StrTraitMFC_DLL@DV?$ChTraitsCRT@D@ATL@@@@@ATL@@QAE@XZ
__unwindfunclet$?GetConditionTitle@CData_ConditionTitle@@QAE?AV?$CStringT@DV?$StrTraitMFC_DLL@DV?$ChTraitsCRT@D@ATL@@@@@ATL@@ABV23@@Z$2:
  00018	8d 4d ec	 lea	 ecx, DWORD PTR _strMaPeriod$[ebp]
  0001b	ff 25 00 00 00
	00		 jmp	 DWORD PTR __imp_??1?$CStringT@DV?$StrTraitMFC_DLL@DV?$ChTraitsCRT@D@ATL@@@@@ATL@@QAE@XZ
__unwindfunclet$?GetConditionTitle@CData_ConditionTitle@@QAE?AV?$CStringT@DV?$StrTraitMFC_DLL@DV?$ChTraitsCRT@D@ATL@@@@@ATL@@ABV23@@Z$3:
  00021	8d 4d f0	 lea	 ecx, DWORD PTR _strPeriod$[ebp]
  00024	ff 25 00 00 00
	00		 jmp	 DWORD PTR __imp_??1?$CStringT@DV?$StrTraitMFC_DLL@DV?$ChTraitsCRT@D@ATL@@@@@ATL@@QAE@XZ
__unwindfunclet$?GetConditionTitle@CData_ConditionTitle@@QAE?AV?$CStringT@DV?$StrTraitMFC_DLL@DV?$ChTraitsCRT@D@ATL@@@@@ATL@@ABV23@@Z$4:
  0002a	8d 4d 80	 lea	 ecx, DWORD PTR _strIncInterval$[ebp]
  0002d	ff 25 00 00 00
	00		 jmp	 DWORD PTR __imp_??1?$CStringT@DV?$StrTraitMFC_DLL@DV?$ChTraitsCRT@D@ATL@@@@@ATL@@QAE@XZ
__unwindfunclet$?GetConditionTitle@CData_ConditionTitle@@QAE?AV?$CStringT@DV?$StrTraitMFC_DLL@DV?$ChTraitsCRT@D@ATL@@@@@ATL@@ABV23@@Z$5:
  00033	8d 4d 84	 lea	 ecx, DWORD PTR _strMALineNum$[ebp]
  00036	ff 25 00 00 00
	00		 jmp	 DWORD PTR __imp_??1?$CStringT@DV?$StrTraitMFC_DLL@DV?$ChTraitsCRT@D@ATL@@@@@ATL@@QAE@XZ
__unwindfunclet$?GetConditionTitle@CData_ConditionTitle@@QAE?AV?$CStringT@DV?$StrTraitMFC_DLL@DV?$ChTraitsCRT@D@ATL@@@@@ATL@@ABV23@@Z$6:
  0003c	8d 4d dc	 lea	 ecx, DWORD PTR _strIntervalNum$[ebp]
  0003f	ff 25 00 00 00
	00		 jmp	 DWORD PTR __imp_??1?$CStringT@DV?$StrTraitMFC_DLL@DV?$ChTraitsCRT@D@ATL@@@@@ATL@@QAE@XZ
__unwindfunclet$?GetConditionTitle@CData_ConditionTitle@@QAE?AV?$CStringT@DV?$StrTraitMFC_DLL@DV?$ChTraitsCRT@D@ATL@@@@@ATL@@ABV23@@Z$7:
  00045	8d 4d 88	 lea	 ecx, DWORD PTR _strStandardPeriod$[ebp]
  00048	ff 25 00 00 00
	00		 jmp	 DWORD PTR __imp_??1?$CStringT@DV?$StrTraitMFC_DLL@DV?$ChTraitsCRT@D@ATL@@@@@ATL@@QAE@XZ
__unwindfunclet$?GetConditionTitle@CData_ConditionTitle@@QAE?AV?$CStringT@DV?$StrTraitMFC_DLL@DV?$ChTraitsCRT@D@ATL@@@@@ATL@@ABV23@@Z$8:
  0004e	8d 4d 8c	 lea	 ecx, DWORD PTR _strConversePeriod$[ebp]
  00051	ff 25 00 00 00
	00		 jmp	 DWORD PTR __imp_??1?$CStringT@DV?$StrTraitMFC_DLL@DV?$ChTraitsCRT@D@ATL@@@@@ATL@@QAE@XZ
__unwindfunclet$?GetConditionTitle@CData_ConditionTitle@@QAE?AV?$CStringT@DV?$StrTraitMFC_DLL@DV?$ChTraitsCRT@D@ATL@@@@@ATL@@ABV23@@Z$9:
  00057	8d 4d e0	 lea	 ecx, DWORD PTR _strSDMulti$[ebp]
  0005a	ff 25 00 00 00
	00		 jmp	 DWORD PTR __imp_??1?$CStringT@DV?$StrTraitMFC_DLL@DV?$ChTraitsCRT@D@ATL@@@@@ATL@@QAE@XZ
__unwindfunclet$?GetConditionTitle@CData_ConditionTitle@@QAE?AV?$CStringT@DV?$StrTraitMFC_DLL@DV?$ChTraitsCRT@D@ATL@@@@@ATL@@ABV23@@Z$10:
  00060	8d 4d 90	 lea	 ecx, DWORD PTR _strBulkNum$[ebp]
  00063	ff 25 00 00 00
	00		 jmp	 DWORD PTR __imp_??1?$CStringT@DV?$StrTraitMFC_DLL@DV?$ChTraitsCRT@D@ATL@@@@@ATL@@QAE@XZ
__unwindfunclet$?GetConditionTitle@CData_ConditionTitle@@QAE?AV?$CStringT@DV?$StrTraitMFC_DLL@DV?$ChTraitsCRT@D@ATL@@@@@ATL@@ABV23@@Z$11:
  00069	8d 4d 94	 lea	 ecx, DWORD PTR _strUpperPer$[ebp]
  0006c	ff 25 00 00 00
	00		 jmp	 DWORD PTR __imp_??1?$CStringT@DV?$StrTraitMFC_DLL@DV?$ChTraitsCRT@D@ATL@@@@@ATL@@QAE@XZ
__unwindfunclet$?GetConditionTitle@CData_ConditionTitle@@QAE?AV?$CStringT@DV?$StrTraitMFC_DLL@DV?$ChTraitsCRT@D@ATL@@@@@ATL@@ABV23@@Z$12:
  00072	8d 4d 98	 lea	 ecx, DWORD PTR _strPre$[ebp]
  00075	ff 25 00 00 00
	00		 jmp	 DWORD PTR __imp_??1?$CStringT@DV?$StrTraitMFC_DLL@DV?$ChTraitsCRT@D@ATL@@@@@ATL@@QAE@XZ
__unwindfunclet$?GetConditionTitle@CData_ConditionTitle@@QAE?AV?$CStringT@DV?$StrTraitMFC_DLL@DV?$ChTraitsCRT@D@ATL@@@@@ATL@@ABV23@@Z$13:
  0007b	8d 4d 9c	 lea	 ecx, DWORD PTR _strPost$[ebp]
  0007e	ff 25 00 00 00
	00		 jmp	 DWORD PTR __imp_??1?$CStringT@DV?$StrTraitMFC_DLL@DV?$ChTraitsCRT@D@ATL@@@@@ATL@@QAE@XZ
__unwindfunclet$?GetConditionTitle@CData_ConditionTitle@@QAE?AV?$CStringT@DV?$StrTraitMFC_DLL@DV?$ChTraitsCRT@D@ATL@@@@@ATL@@ABV23@@Z$14:
  00084	8d 4d a0	 lea	 ecx, DWORD PTR _strLowerPer$[ebp]
  00087	ff 25 00 00 00
	00		 jmp	 DWORD PTR __imp_??1?$CStringT@DV?$StrTraitMFC_DLL@DV?$ChTraitsCRT@D@ATL@@@@@ATL@@QAE@XZ
__unwindfunclet$?GetConditionTitle@CData_ConditionTitle@@QAE?AV?$CStringT@DV?$StrTraitMFC_DLL@DV?$ChTraitsCRT@D@ATL@@@@@ATL@@ABV23@@Z$15:
  0008d	8d 4d a4	 lea	 ecx, DWORD PTR _strReversePer$[ebp]
  00090	ff 25 00 00 00
	00		 jmp	 DWORD PTR __imp_??1?$CStringT@DV?$StrTraitMFC_DLL@DV?$ChTraitsCRT@D@ATL@@@@@ATL@@QAE@XZ
__unwindfunclet$?GetConditionTitle@CData_ConditionTitle@@QAE?AV?$CStringT@DV?$StrTraitMFC_DLL@DV?$ChTraitsCRT@D@ATL@@@@@ATL@@ABV23@@Z$16:
  00096	8d 4d a8	 lea	 ecx, DWORD PTR _strDisparity$[ebp]
  00099	ff 25 00 00 00
	00		 jmp	 DWORD PTR __imp_??1?$CStringT@DV?$StrTraitMFC_DLL@DV?$ChTraitsCRT@D@ATL@@@@@ATL@@QAE@XZ
__unwindfunclet$?GetConditionTitle@CData_ConditionTitle@@QAE?AV?$CStringT@DV?$StrTraitMFC_DLL@DV?$ChTraitsCRT@D@ATL@@@@@ATL@@ABV23@@Z$17:
  0009f	8d 4d ac	 lea	 ecx, DWORD PTR _strDisparityPeriod$[ebp]
  000a2	ff 25 00 00 00
	00		 jmp	 DWORD PTR __imp_??1?$CStringT@DV?$StrTraitMFC_DLL@DV?$ChTraitsCRT@D@ATL@@@@@ATL@@QAE@XZ
__unwindfunclet$?GetConditionTitle@CData_ConditionTitle@@QAE?AV?$CStringT@DV?$StrTraitMFC_DLL@DV?$ChTraitsCRT@D@ATL@@@@@ATL@@ABV23@@Z$18:
  000a8	8d 4d b0	 lea	 ecx, DWORD PTR _strShortTerm$[ebp]
  000ab	ff 25 00 00 00
	00		 jmp	 DWORD PTR __imp_??1?$CStringT@DV?$StrTraitMFC_DLL@DV?$ChTraitsCRT@D@ATL@@@@@ATL@@QAE@XZ
__unwindfunclet$?GetConditionTitle@CData_ConditionTitle@@QAE?AV?$CStringT@DV?$StrTraitMFC_DLL@DV?$ChTraitsCRT@D@ATL@@@@@ATL@@ABV23@@Z$19:
  000b1	8d 4d b4	 lea	 ecx, DWORD PTR _strLongTerm$[ebp]
  000b4	ff 25 00 00 00
	00		 jmp	 DWORD PTR __imp_??1?$CStringT@DV?$StrTraitMFC_DLL@DV?$ChTraitsCRT@D@ATL@@@@@ATL@@QAE@XZ
__unwindfunclet$?GetConditionTitle@CData_ConditionTitle@@QAE?AV?$CStringT@DV?$StrTraitMFC_DLL@DV?$ChTraitsCRT@D@ATL@@@@@ATL@@ABV23@@Z$20:
  000ba	8d 4d b8	 lea	 ecx, DWORD PTR _strSD$[ebp]
  000bd	ff 25 00 00 00
	00		 jmp	 DWORD PTR __imp_??1?$CStringT@DV?$StrTraitMFC_DLL@DV?$ChTraitsCRT@D@ATL@@@@@ATL@@QAE@XZ
__unwindfunclet$?GetConditionTitle@CData_ConditionTitle@@QAE?AV?$CStringT@DV?$StrTraitMFC_DLL@DV?$ChTraitsCRT@D@ATL@@@@@ATL@@ABV23@@Z$21:
  000c3	8d 4d e4	 lea	 ecx, DWORD PTR _strShortMA$[ebp]
  000c6	ff 25 00 00 00
	00		 jmp	 DWORD PTR __imp_??1?$CStringT@DV?$StrTraitMFC_DLL@DV?$ChTraitsCRT@D@ATL@@@@@ATL@@QAE@XZ
__unwindfunclet$?GetConditionTitle@CData_ConditionTitle@@QAE?AV?$CStringT@DV?$StrTraitMFC_DLL@DV?$ChTraitsCRT@D@ATL@@@@@ATL@@ABV23@@Z$22:
  000cc	8d 4d e8	 lea	 ecx, DWORD PTR _strLongMA$[ebp]
  000cf	ff 25 00 00 00
	00		 jmp	 DWORD PTR __imp_??1?$CStringT@DV?$StrTraitMFC_DLL@DV?$ChTraitsCRT@D@ATL@@@@@ATL@@QAE@XZ
__unwindfunclet$?GetConditionTitle@CData_ConditionTitle@@QAE?AV?$CStringT@DV?$StrTraitMFC_DLL@DV?$ChTraitsCRT@D@ATL@@@@@ATL@@ABV23@@Z$23:
  000d5	8d 4d bc	 lea	 ecx, DWORD PTR _strMomentumPeriod$[ebp]
  000d8	ff 25 00 00 00
	00		 jmp	 DWORD PTR __imp_??1?$CStringT@DV?$StrTraitMFC_DLL@DV?$ChTraitsCRT@D@ATL@@@@@ATL@@QAE@XZ
__unwindfunclet$?GetConditionTitle@CData_ConditionTitle@@QAE?AV?$CStringT@DV?$StrTraitMFC_DLL@DV?$ChTraitsCRT@D@ATL@@@@@ATL@@ABV23@@Z$24:
  000de	8d 4d c0	 lea	 ecx, DWORD PTR _strMomentum$[ebp]
  000e1	ff 25 00 00 00
	00		 jmp	 DWORD PTR __imp_??1?$CStringT@DV?$StrTraitMFC_DLL@DV?$ChTraitsCRT@D@ATL@@@@@ATL@@QAE@XZ
__unwindfunclet$?GetConditionTitle@CData_ConditionTitle@@QAE?AV?$CStringT@DV?$StrTraitMFC_DLL@DV?$ChTraitsCRT@D@ATL@@@@@ATL@@ABV23@@Z$25:
  000e7	8d 4d c4	 lea	 ecx, DWORD PTR _strComparePeriod$[ebp]
  000ea	ff 25 00 00 00
	00		 jmp	 DWORD PTR __imp_??1?$CStringT@DV?$StrTraitMFC_DLL@DV?$ChTraitsCRT@D@ATL@@@@@ATL@@QAE@XZ
__unwindfunclet$?GetConditionTitle@CData_ConditionTitle@@QAE?AV?$CStringT@DV?$StrTraitMFC_DLL@DV?$ChTraitsCRT@D@ATL@@@@@ATL@@ABV23@@Z$26:
  000f0	8d 4d c8	 lea	 ecx, DWORD PTR _strPsychologyPeriod$[ebp]
  000f3	ff 25 00 00 00
	00		 jmp	 DWORD PTR __imp_??1?$CStringT@DV?$StrTraitMFC_DLL@DV?$ChTraitsCRT@D@ATL@@@@@ATL@@QAE@XZ
__unwindfunclet$?GetConditionTitle@CData_ConditionTitle@@QAE?AV?$CStringT@DV?$StrTraitMFC_DLL@DV?$ChTraitsCRT@D@ATL@@@@@ATL@@ABV23@@Z$27:
  000f9	8d 4d d8	 lea	 ecx, DWORD PTR _strSEMulti$[ebp]
  000fc	ff 25 00 00 00
	00		 jmp	 DWORD PTR __imp_??1?$CStringT@DV?$StrTraitMFC_DLL@DV?$ChTraitsCRT@D@ATL@@@@@ATL@@QAE@XZ
__unwindfunclet$?GetConditionTitle@CData_ConditionTitle@@QAE?AV?$CStringT@DV?$StrTraitMFC_DLL@DV?$ChTraitsCRT@D@ATL@@@@@ATL@@ABV23@@Z$28:
  00102	8d 4d cc	 lea	 ecx, DWORD PTR _strAccVariable$[ebp]
  00105	ff 25 00 00 00
	00		 jmp	 DWORD PTR __imp_??1?$CStringT@DV?$StrTraitMFC_DLL@DV?$ChTraitsCRT@D@ATL@@@@@ATL@@QAE@XZ
__unwindfunclet$?GetConditionTitle@CData_ConditionTitle@@QAE?AV?$CStringT@DV?$StrTraitMFC_DLL@DV?$ChTraitsCRT@D@ATL@@@@@ATL@@ABV23@@Z$29:
  0010b	8d 4d d0	 lea	 ecx, DWORD PTR _strMaxValue$[ebp]
  0010e	ff 25 00 00 00
	00		 jmp	 DWORD PTR __imp_??1?$CStringT@DV?$StrTraitMFC_DLL@DV?$ChTraitsCRT@D@ATL@@@@@ATL@@QAE@XZ
__unwindfunclet$?GetConditionTitle@CData_ConditionTitle@@QAE?AV?$CStringT@DV?$StrTraitMFC_DLL@DV?$ChTraitsCRT@D@ATL@@@@@ATL@@ABV23@@Z$30:
  00114	8d 4d d4	 lea	 ecx, DWORD PTR _strCumPeriod$[ebp]
  00117	ff 25 00 00 00
	00		 jmp	 DWORD PTR __imp_??1?$CStringT@DV?$StrTraitMFC_DLL@DV?$ChTraitsCRT@D@ATL@@@@@ATL@@QAE@XZ
__unwindfunclet$?GetConditionTitle@CData_ConditionTitle@@QAE?AV?$CStringT@DV?$StrTraitMFC_DLL@DV?$ChTraitsCRT@D@ATL@@@@@ATL@@ABV23@@Z$31:
  0011d	8d 4d 0c	 lea	 ecx, DWORD PTR _retValue$[ebp]
  00120	ff 25 00 00 00
	00		 jmp	 DWORD PTR __imp_??1?$CStringT@DV?$StrTraitMFC_DLL@DV?$ChTraitsCRT@D@ATL@@@@@ATL@@QAE@XZ
__unwindfunclet$?GetConditionTitle@CData_ConditionTitle@@QAE?AV?$CStringT@DV?$StrTraitMFC_DLL@DV?$ChTraitsCRT@D@ATL@@@@@ATL@@ABV23@@Z$32:
  00126	8d 8d 78 ff ff
	ff		 lea	 ecx, DWORD PTR _strData$4[ebp]
  0012c	ff 25 00 00 00
	00		 jmp	 DWORD PTR __imp_??1?$CStringT@DV?$StrTraitMFC_DLL@DV?$ChTraitsCRT@D@ATL@@@@@ATL@@QAE@XZ
__unwindfunclet$?GetConditionTitle@CData_ConditionTitle@@QAE?AV?$CStringT@DV?$StrTraitMFC_DLL@DV?$ChTraitsCRT@D@ATL@@@@@ATL@@ABV23@@Z$34:
  00132	8d 8d 78 ff ff
	ff		 lea	 ecx, DWORD PTR $T3[ebp]
  00138	ff 25 00 00 00
	00		 jmp	 DWORD PTR __imp_??1?$CStringT@DV?$StrTraitMFC_DLL@DV?$ChTraitsCRT@D@ATL@@@@@ATL@@QAE@XZ
__unwindfunclet$?GetConditionTitle@CData_ConditionTitle@@QAE?AV?$CStringT@DV?$StrTraitMFC_DLL@DV?$ChTraitsCRT@D@ATL@@@@@ATL@@ABV23@@Z$36:
  0013e	8b 85 74 ff ff
	ff		 mov	 eax, DWORD PTR $T2[ebp]
  00144	83 e0 04	 and	 eax, 4
  00147	0f 84 10 00 00
	00		 je	 $LN140@GetConditi
  0014d	83 a5 74 ff ff
	ff fb		 and	 DWORD PTR $T2[ebp], -5	; fffffffbH
  00154	8b 4d 08	 mov	 ecx, DWORD PTR ___$ReturnUdt$[ebp]
  00157	ff 25 00 00 00
	00		 jmp	 DWORD PTR __imp_??1?$CStringT@DV?$StrTraitMFC_DLL@DV?$ChTraitsCRT@D@ATL@@@@@ATL@@QAE@XZ
$LN140@GetConditi:
  0015d	c3		 ret	 0
  0015e	cc		 int	 3
  0015f	cc		 int	 3
  00160	cc		 int	 3
  00161	cc		 int	 3
  00162	cc		 int	 3
__ehhandler$?GetConditionTitle@CData_ConditionTitle@@QAE?AV?$CStringT@DV?$StrTraitMFC_DLL@DV?$ChTraitsCRT@D@ATL@@@@@ATL@@ABV23@@Z:
  00163	90		 npad	 1
  00164	90		 npad	 1
  00165	8b 54 24 08	 mov	 edx, DWORD PTR [esp+8]
  00169	8d 42 0c	 lea	 eax, DWORD PTR [edx+12]
  0016c	8b 8a 74 ff ff
	ff		 mov	 ecx, DWORD PTR [edx-140]
  00172	33 c8		 xor	 ecx, eax
  00174	e8 00 00 00 00	 call	 @__security_check_cookie@4
  00179	b8 00 00 00 00	 mov	 eax, OFFSET __ehfuncinfo$?GetConditionTitle@CData_ConditionTitle@@QAE?AV?$CStringT@DV?$StrTraitMFC_DLL@DV?$ChTraitsCRT@D@ATL@@@@@ATL@@ABV23@@Z
  0017e	e9 00 00 00 00	 jmp	 ___CxxFrameHandler3
text$x	ENDS
?GetConditionTitle@CData_ConditionTitle@@QAE?AV?$CStringT@DV?$StrTraitMFC_DLL@DV?$ChTraitsCRT@D@ATL@@@@@ATL@@ABV23@@Z ENDP ; CData_ConditionTitle::GetConditionTitle
; Function compile flags: /Ogtp
; File D:\git\src\IBK\IBK_DRFN\ProjSrc\SrcChartEx\ChartAddIn\ChartEnvSetupDlgAddIn\ChartEnvSetupDlgAddIn\Data_ConditionTitle.cpp
;	COMDAT ?__empty_global_delete@@YAXPAXI@Z
_TEXT	SEGMENT
___formal$ = 8						; size = 4
___formal$ = 12						; size = 4
?__empty_global_delete@@YAXPAXI@Z PROC			; __empty_global_delete, COMDAT

  00000	c2 00 00	 ret	 0
?__empty_global_delete@@YAXPAXI@Z ENDP			; __empty_global_delete
_TEXT	ENDS
; Function compile flags: /Ogtp
; File D:\git\src\IBK\IBK_DRFN\ProjSrc\SrcChartEx\ChartAddIn\ChartEnvSetupDlgAddIn\ChartEnvSetupDlgAddIn\Data_ConditionTitle.cpp
;	COMDAT ?__empty_global_delete@@YAXPAX@Z
_TEXT	SEGMENT
___formal$ = 8						; size = 4
?__empty_global_delete@@YAXPAX@Z PROC			; __empty_global_delete, COMDAT

  00000	c2 00 00	 ret	 0
?__empty_global_delete@@YAXPAX@Z ENDP			; __empty_global_delete
_TEXT	ENDS
END
