; Listing generated by Microsoft (R) Optimizing Compiler Version 19.29.30145.0 

	TITLE	D:\git\src\IBK\IBK_DRFN\#DRfn-CS\_Obj\ChartEnvSetupDlgAddIn\DlgMainTabBaseEnvSetUp.obj
	.686P
	.XMM
	include listing.inc
	.model	flat

INCLUDELIB MSVCRT
INCLUDELIB OLDNAMES

PUBLIC	?__empty_global_delete@@YAXPAX@Z		; __empty_global_delete
PUBLIC	?__empty_global_delete@@YAXPAXI@Z		; __empty_global_delete
PUBLIC	?Serialize@CObject@@UAEXAAVCArchive@@@Z		; CObject::Serialize
PUBLIC	?AssertValid@CObject@@UBEXXZ			; CObject::AssertValid
PUBLIC	?Dump@CObject@@UBEXAAVCDumpContext@@@Z		; CObject::Dump
PUBLIC	?DoDataExchange@CWnd@@MAEXPAVCDataExchange@@@Z	; CWnd::DoDataExchange
PUBLIC	?BeginModalState@CWnd@@UAEXXZ			; CWnd::BeginModalState
PUBLIC	?EndModalState@CWnd@@UAEXXZ			; CWnd::EndModalState
PUBLIC	?Create@CDialog@@UAEHIPAVCWnd@@@Z		; CDialog::Create
PUBLIC	??_GCButton@@UAEPAXI@Z				; CButton::`scalar deleting destructor'
PUBLIC	??_GCComboBox@@UAEPAXI@Z			; CComboBox::`scalar deleting destructor'
PUBLIC	??1ILPCSTR135914@@QAE@XZ			; ILPCSTR135914::~ILPCSTR135914
PUBLIC	??1CBaseTabDlg@@UAE@XZ				; CBaseTabDlg::~CBaseTabDlg
PUBLIC	?_GetBaseClass@CDlgMainTabBaseEnvSetUp@@KGPAUCRuntimeClass@@XZ ; CDlgMainTabBaseEnvSetUp::_GetBaseClass
PUBLIC	?GetThisClass@CDlgMainTabBaseEnvSetUp@@SGPAUCRuntimeClass@@XZ ; CDlgMainTabBaseEnvSetUp::GetThisClass
PUBLIC	?GetRuntimeClass@CDlgMainTabBaseEnvSetUp@@UBEPAUCRuntimeClass@@XZ ; CDlgMainTabBaseEnvSetUp::GetRuntimeClass
PUBLIC	??0CDlgMainTabBaseEnvSetUp@@QAE@PAUIChartOCX135914@@PAVCWnd@@H@Z ; CDlgMainTabBaseEnvSetUp::CDlgMainTabBaseEnvSetUp
PUBLIC	??1CDlgMainTabBaseEnvSetUp@@UAE@XZ		; CDlgMainTabBaseEnvSetUp::~CDlgMainTabBaseEnvSetUp
PUBLIC	?PreTranslateMessage@CDlgMainTabBaseEnvSetUp@@UAEHPAUtagMSG@@@Z ; CDlgMainTabBaseEnvSetUp::PreTranslateMessage
PUBLIC	?DoDataExchange@CDlgMainTabBaseEnvSetUp@@MAEXPAVCDataExchange@@@Z ; CDlgMainTabBaseEnvSetUp::DoDataExchange
PUBLIC	?Recover@CDlgMainTabBaseEnvSetUp@@QAEXXZ	; CDlgMainTabBaseEnvSetUp::Recover
PUBLIC	?Save@CDlgMainTabBaseEnvSetUp@@QAEXXZ		; CDlgMainTabBaseEnvSetUp::Save
PUBLIC	?PreView@CDlgMainTabBaseEnvSetUp@@QAEXXZ	; CDlgMainTabBaseEnvSetUp::PreView
PUBLIC	?GetDialogType@CDlgMainTabBaseEnvSetUp@@UBE?AW4DLG_TYPE@CBaseTabDlg@@XZ ; CDlgMainTabBaseEnvSetUp::GetDialogType
PUBLIC	?GetCurrentPrice@CDlgMainTabBaseEnvSetUp@@UBE_NAAH@Z ; CDlgMainTabBaseEnvSetUp::GetCurrentPrice
PUBLIC	?GetCurrentPrice@CDlgMainTabBaseEnvSetUp@@ABEHXZ ; CDlgMainTabBaseEnvSetUp::GetCurrentPrice
PUBLIC	?OnInitDialog@CDlgMainTabBaseEnvSetUp@@MAEHXZ	; CDlgMainTabBaseEnvSetUp::OnInitDialog
PUBLIC	?OnInquirydataWindowShow@CDlgMainTabBaseEnvSetUp@@IAEXXZ ; CDlgMainTabBaseEnvSetUp::OnInquirydataWindowShow
PUBLIC	?OnShowCurrentPrice@CDlgMainTabBaseEnvSetUp@@IAEXXZ ; CDlgMainTabBaseEnvSetUp::OnShowCurrentPrice
PUBLIC	?OnUseIndicatorName@CDlgMainTabBaseEnvSetUp@@IAEXXZ ; CDlgMainTabBaseEnvSetUp::OnUseIndicatorName
PUBLIC	?OnChkLhLcHc@CDlgMainTabBaseEnvSetUp@@IAEXXZ	; CDlgMainTabBaseEnvSetUp::OnChkLhLcHc
PUBLIC	?OnRdoLhLcHc@CDlgMainTabBaseEnvSetUp@@IAEXXZ	; CDlgMainTabBaseEnvSetUp::OnRdoLhLcHc
PUBLIC	?OnShowMinMaxPrice@CDlgMainTabBaseEnvSetUp@@IAEXXZ ; CDlgMainTabBaseEnvSetUp::OnShowMinMaxPrice
PUBLIC	?GetThisMessageMap@CDlgMainTabBaseEnvSetUp@@KGPBUAFX_MSGMAP@@XZ ; CDlgMainTabBaseEnvSetUp::GetThisMessageMap
PUBLIC	?GetMessageMap@CDlgMainTabBaseEnvSetUp@@MBEPBUAFX_MSGMAP@@XZ ; CDlgMainTabBaseEnvSetUp::GetMessageMap
PUBLIC	?Initial_Spin@CDlgMainTabBaseEnvSetUp@@AAEXAAVCNumSpinCtrl@@AAVCNumEdit@@HM@Z ; CDlgMainTabBaseEnvSetUp::Initial_Spin
PUBLIC	?EnableHighLowBound@CDlgMainTabBaseEnvSetUp@@AAEXXZ ; CDlgMainTabBaseEnvSetUp::EnableHighLowBound
PUBLIC	?EnableLowHighMarker@CDlgMainTabBaseEnvSetUp@@AAEXXZ ; CDlgMainTabBaseEnvSetUp::EnableLowHighMarker
PUBLIC	?EnableShowExRightDividend@CDlgMainTabBaseEnvSetUp@@AAEXXZ ; CDlgMainTabBaseEnvSetUp::EnableShowExRightDividend
PUBLIC	?EnableCurPrice@CDlgMainTabBaseEnvSetUp@@AAEXXZ	; CDlgMainTabBaseEnvSetUp::EnableCurPrice
PUBLIC	?EnableUseIndicatorName@CDlgMainTabBaseEnvSetUp@@AAEXH@Z ; CDlgMainTabBaseEnvSetUp::EnableUseIndicatorName
PUBLIC	?IsApplyShowCurrentPrice@CDlgMainTabBaseEnvSetUp@@ABE_NH@Z ; CDlgMainTabBaseEnvSetUp::IsApplyShowCurrentPrice
PUBLIC	?EnableRevisedPrice@CDlgMainTabBaseEnvSetUp@@AAEXXZ ; CDlgMainTabBaseEnvSetUp::EnableRevisedPrice
PUBLIC	?EnableRevisedPrice@CDlgMainTabBaseEnvSetUp@@QAEXH@Z ; CDlgMainTabBaseEnvSetUp::EnableRevisedPrice
PUBLIC	?GetShowCurrentPrice@CDlgMainTabBaseEnvSetUp@@IAEHXZ ; CDlgMainTabBaseEnvSetUp::GetShowCurrentPrice
PUBLIC	?GetExistenceHighLowBound@CDlgMainTabBaseEnvSetUp@@IAEHXZ ; CDlgMainTabBaseEnvSetUp::GetExistenceHighLowBound
PUBLIC	?SetShowHighLowBound@CDlgMainTabBaseEnvSetUp@@IAEXH@Z ; CDlgMainTabBaseEnvSetUp::SetShowHighLowBound
PUBLIC	?GetExistenceLowHighMarker@CDlgMainTabBaseEnvSetUp@@IAEHXZ ; CDlgMainTabBaseEnvSetUp::GetExistenceLowHighMarker
PUBLIC	?SetShowLowHighMarker@CDlgMainTabBaseEnvSetUp@@IAEXH@Z ; CDlgMainTabBaseEnvSetUp::SetShowLowHighMarker
PUBLIC	?SetShowExRightDividend@CDlgMainTabBaseEnvSetUp@@IAEX_N@Z ; CDlgMainTabBaseEnvSetUp::SetShowExRightDividend
PUBLIC	?SetShowCurrentPrice@CDlgMainTabBaseEnvSetUp@@IAEXH@Z ; CDlgMainTabBaseEnvSetUp::SetShowCurrentPrice
PUBLIC	?SetShowIndicatorVariable@CDlgMainTabBaseEnvSetUp@@IAEX_N@Z ; CDlgMainTabBaseEnvSetUp::SetShowIndicatorVariable
PUBLIC	?SetShowIndicatorValue@CDlgMainTabBaseEnvSetUp@@IAEX_N@Z ; CDlgMainTabBaseEnvSetUp::SetShowIndicatorValue
PUBLIC	?SetYScalePosition@CDlgMainTabBaseEnvSetUp@@IAEXH@Z ; CDlgMainTabBaseEnvSetUp::SetYScalePosition
PUBLIC	?SetShowLH_LC_HC@CDlgMainTabBaseEnvSetUp@@IAEXH@Z ; CDlgMainTabBaseEnvSetUp::SetShowLH_LC_HC
PUBLIC	?GetShowLH_LC_HC@CDlgMainTabBaseEnvSetUp@@IAEHXZ ; CDlgMainTabBaseEnvSetUp::GetShowLH_LC_HC
PUBLIC	?SetUpDownSpace@CDlgMainTabBaseEnvSetUp@@IAEXH@Z ; CDlgMainTabBaseEnvSetUp::SetUpDownSpace
PUBLIC	?GetGapRevision@CDlgMainTabBaseEnvSetUp@@IAEHXZ	; CDlgMainTabBaseEnvSetUp::GetGapRevision
PUBLIC	?GetMonthGapRevision@CDlgMainTabBaseEnvSetUp@@IAEHXZ ; CDlgMainTabBaseEnvSetUp::GetMonthGapRevision
PUBLIC	?GetShowMonthGapRevision@CDlgMainTabBaseEnvSetUp@@IAEHXZ ; CDlgMainTabBaseEnvSetUp::GetShowMonthGapRevision
PUBLIC	?SetTimeGubunGrid@CDlgMainTabBaseEnvSetUp@@IAEXXZ ; CDlgMainTabBaseEnvSetUp::SetTimeGubunGrid
PUBLIC	??_GCDlgMainTabBaseEnvSetUp@@UAEPAXI@Z		; CDlgMainTabBaseEnvSetUp::`scalar deleting destructor'
PUBLIC	??_C@_00CNPNBAHC@@				; `string'
PUBLIC	??_7CButton@@6B@				; CButton::`vftable'
PUBLIC	??_7CComboBox@@6B@				; CComboBox::`vftable'
PUBLIC	??_R0?AVCObject@@@8				; CObject `RTTI Type Descriptor'
PUBLIC	??_R3CObject@@8					; CObject::`RTTI Class Hierarchy Descriptor'
PUBLIC	??_R2CObject@@8					; CObject::`RTTI Base Class Array'
PUBLIC	??_R1A@?0A@EA@CObject@@8			; CObject::`RTTI Base Class Descriptor at (0,-1,0,64)'
PUBLIC	??_R1A@?0A@EA@CWnd@@8				; CWnd::`RTTI Base Class Descriptor at (0,-1,0,64)'
PUBLIC	??_R0?AVCWnd@@@8				; CWnd `RTTI Type Descriptor'
PUBLIC	??_R3CWnd@@8					; CWnd::`RTTI Class Hierarchy Descriptor'
PUBLIC	??_R2CWnd@@8					; CWnd::`RTTI Base Class Array'
PUBLIC	??_R1A@?0A@EA@CCmdTarget@@8			; CCmdTarget::`RTTI Base Class Descriptor at (0,-1,0,64)'
PUBLIC	??_R0?AVCCmdTarget@@@8				; CCmdTarget `RTTI Type Descriptor'
PUBLIC	??_R3CCmdTarget@@8				; CCmdTarget::`RTTI Class Hierarchy Descriptor'
PUBLIC	??_R2CCmdTarget@@8				; CCmdTarget::`RTTI Base Class Array'
PUBLIC	??_R4CButton@@6B@				; CButton::`RTTI Complete Object Locator'
PUBLIC	??_R0?AVCButton@@@8				; CButton `RTTI Type Descriptor'
PUBLIC	??_R3CButton@@8					; CButton::`RTTI Class Hierarchy Descriptor'
PUBLIC	??_R2CButton@@8					; CButton::`RTTI Base Class Array'
PUBLIC	??_R1A@?0A@EA@CButton@@8			; CButton::`RTTI Base Class Descriptor at (0,-1,0,64)'
PUBLIC	??_R4CComboBox@@6B@				; CComboBox::`RTTI Complete Object Locator'
PUBLIC	??_R0?AVCComboBox@@@8				; CComboBox `RTTI Type Descriptor'
PUBLIC	??_R3CComboBox@@8				; CComboBox::`RTTI Class Hierarchy Descriptor'
PUBLIC	??_R2CComboBox@@8				; CComboBox::`RTTI Base Class Array'
PUBLIC	??_R1A@?0A@EA@CComboBox@@8			; CComboBox::`RTTI Base Class Descriptor at (0,-1,0,64)'
PUBLIC	??_R1A@?0A@EA@CDialog@@8			; CDialog::`RTTI Base Class Descriptor at (0,-1,0,64)'
PUBLIC	??_R0?AVCDialog@@@8				; CDialog `RTTI Type Descriptor'
PUBLIC	??_R3CDialog@@8					; CDialog::`RTTI Class Hierarchy Descriptor'
PUBLIC	??_R2CDialog@@8					; CDialog::`RTTI Base Class Array'
PUBLIC	?classCDlgMainTabBaseEnvSetUp@CDlgMainTabBaseEnvSetUp@@2UCRuntimeClass@@B ; CDlgMainTabBaseEnvSetUp::classCDlgMainTabBaseEnvSetUp
PUBLIC	??_7CDlgMainTabBaseEnvSetUp@@6B@		; CDlgMainTabBaseEnvSetUp::`vftable'
PUBLIC	??_C@_0BI@IIGOGIJB@CDlgMainTabBaseEnvSetUp@	; `string'
PUBLIC	??_C@_07MGCPDNLD@DEFAULT@			; `string'
PUBLIC	??_R4CDlgMainTabBaseEnvSetUp@@6B@		; CDlgMainTabBaseEnvSetUp::`RTTI Complete Object Locator'
PUBLIC	??_R0?AVCDlgMainTabBaseEnvSetUp@@@8		; CDlgMainTabBaseEnvSetUp `RTTI Type Descriptor'
PUBLIC	??_R3CDlgMainTabBaseEnvSetUp@@8			; CDlgMainTabBaseEnvSetUp::`RTTI Class Hierarchy Descriptor'
PUBLIC	??_R2CDlgMainTabBaseEnvSetUp@@8			; CDlgMainTabBaseEnvSetUp::`RTTI Base Class Array'
PUBLIC	??_R1A@?0A@EA@CDlgMainTabBaseEnvSetUp@@8	; CDlgMainTabBaseEnvSetUp::`RTTI Base Class Descriptor at (0,-1,0,64)'
PUBLIC	??_R1A@?0A@EA@CBaseTabDlg@@8			; CBaseTabDlg::`RTTI Base Class Descriptor at (0,-1,0,64)'
PUBLIC	??_R0?AVCBaseTabDlg@@@8				; CBaseTabDlg `RTTI Type Descriptor'
PUBLIC	??_R3CBaseTabDlg@@8				; CBaseTabDlg::`RTTI Class Hierarchy Descriptor'
PUBLIC	??_R2CBaseTabDlg@@8				; CBaseTabDlg::`RTTI Base Class Array'
PUBLIC	__real@3ff0000000000000
EXTRN	??3@YAXPAX@Z:PROC				; operator delete
EXTRN	?__global_delete@@YAXPAXI@Z:PROC		; __global_delete
EXTRN	___std_terminate:PROC
EXTRN	__imp__SendMessageA@16:PROC
EXTRN	__imp__EnableWindow@8:PROC
EXTRN	__imp__InvalidateRect@12:PROC
EXTRN	__imp__atoi:PROC
EXTRN	?AfxThrowInvalidArgException@@YGXXZ:PROC	; AfxThrowInvalidArgException
EXTRN	__imp_??0?$CStringT@DV?$StrTraitMFC_DLL@DV?$ChTraitsCRT@D@ATL@@@@@ATL@@QAE@XZ:PROC
EXTRN	__imp_??0?$CStringT@DV?$StrTraitMFC_DLL@DV?$ChTraitsCRT@D@ATL@@@@@ATL@@QAE@PBD@Z:PROC
EXTRN	__imp_??1?$CStringT@DV?$StrTraitMFC_DLL@DV?$ChTraitsCRT@D@ATL@@@@@ATL@@QAE@XZ:PROC
EXTRN	__imp_?LoadStringA@?$CStringT@DV?$StrTraitMFC_DLL@DV?$ChTraitsCRT@D@ATL@@@@@ATL@@QAEHI@Z:PROC
EXTRN	??0CStringArray@@QAE@XZ:PROC			; CStringArray::CStringArray
EXTRN	?SetAtGrow@CStringArray@@QAEXHPBD@Z:PROC	; CStringArray::SetAtGrow
EXTRN	??1CStringArray@@UAE@XZ:PROC			; CStringArray::~CStringArray
EXTRN	?DDX_Check@@YGXPAVCDataExchange@@HAAH@Z:PROC	; DDX_Check
EXTRN	?DDX_Radio@@YGXPAVCDataExchange@@HAAH@Z:PROC	; DDX_Radio
EXTRN	?DDX_CBIndex@@YGXPAVCDataExchange@@HAAH@Z:PROC	; DDX_CBIndex
EXTRN	?DDX_Control@@YGXPAVCDataExchange@@HAAVCWnd@@@Z:PROC ; DDX_Control
EXTRN	?OnCmdMsg@CCmdTarget@@UAEHIHPAXPAUAFX_CMDHANDLERINFO@@@Z:PROC ; CCmdTarget::OnCmdMsg
EXTRN	?IsInvokeAllowed@CCmdTarget@@UAEHJ@Z:PROC	; CCmdTarget::IsInvokeAllowed
EXTRN	?GetDispatchIID@CCmdTarget@@UAEHPAU_GUID@@@Z:PROC ; CCmdTarget::GetDispatchIID
EXTRN	?GetTypeInfoCount@CCmdTarget@@UAEIXZ:PROC	; CCmdTarget::GetTypeInfoCount
EXTRN	?GetTypeLibCache@CCmdTarget@@UAEPAVCTypeLibCache@@XZ:PROC ; CCmdTarget::GetTypeLibCache
EXTRN	?GetTypeLib@CCmdTarget@@UAEJKPAPAUITypeLib@@@Z:PROC ; CCmdTarget::GetTypeLib
EXTRN	?GetCommandMap@CCmdTarget@@MBEPBUAFX_OLECMDMAP@@XZ:PROC ; CCmdTarget::GetCommandMap
EXTRN	?GetDispatchMap@CCmdTarget@@MBEPBUAFX_DISPMAP@@XZ:PROC ; CCmdTarget::GetDispatchMap
EXTRN	?GetConnectionMap@CCmdTarget@@MBEPBUAFX_CONNECTIONMAP@@XZ:PROC ; CCmdTarget::GetConnectionMap
EXTRN	?GetEventSinkMap@CCmdTarget@@MBEPBUAFX_EVENTSINKMAP@@XZ:PROC ; CCmdTarget::GetEventSinkMap
EXTRN	?OnCreateAggregates@CCmdTarget@@UAEHXZ:PROC	; CCmdTarget::OnCreateAggregates
EXTRN	?GetInterfaceHook@CCmdTarget@@UAEPAUIUnknown@@PBX@Z:PROC ; CCmdTarget::GetInterfaceHook
EXTRN	?GetExtraConnectionPoints@CCmdTarget@@MAEHPAVCPtrArray@@@Z:PROC ; CCmdTarget::GetExtraConnectionPoints
EXTRN	?GetConnectionHook@CCmdTarget@@MAEPAUIConnectionPoint@@ABU_GUID@@@Z:PROC ; CCmdTarget::GetConnectionHook
EXTRN	??0CWnd@@QAE@XZ:PROC				; CWnd::CWnd
EXTRN	?PreSubclassWindow@CWnd@@UAEXXZ:PROC		; CWnd::PreSubclassWindow
EXTRN	?Create@CWnd@@UAEHPBD0KABUtagRECT@@PAV1@IPAUCCreateContext@@@Z:PROC ; CWnd::Create
EXTRN	?CreateEx@CWnd@@UAEHKPBD0KHHHHPAUHWND__@@PAUHMENU__@@PAX@Z:PROC ; CWnd::CreateEx
EXTRN	?CreateEx@CWnd@@UAEHKPBD0KABUtagRECT@@PAV1@IPAX@Z:PROC ; CWnd::CreateEx
EXTRN	?DestroyWindow@CWnd@@UAEHXZ:PROC		; CWnd::DestroyWindow
EXTRN	?PreCreateWindow@CWnd@@UAEHAAUtagCREATESTRUCTA@@@Z:PROC ; CWnd::PreCreateWindow
EXTRN	?CalcWindowRect@CWnd@@UAEXPAUtagRECT@@I@Z:PROC	; CWnd::CalcWindowRect
EXTRN	?GetDlgItem@CWnd@@QBEPAV1@H@Z:PROC		; CWnd::GetDlgItem
EXTRN	?GetWindowTextA@CWnd@@QBEXAAV?$CStringT@DV?$StrTraitMFC_DLL@DV?$ChTraitsCRT@D@ATL@@@@@ATL@@@Z:PROC ; CWnd::GetWindowTextA
EXTRN	?GetMenu@CWnd@@UBEPAVCMenu@@XZ:PROC		; CWnd::GetMenu
EXTRN	?SetMenu@CWnd@@UAEHPAVCMenu@@@Z:PROC		; CWnd::SetMenu
EXTRN	?ShowWindow@CWnd@@QAEHH@Z:PROC			; CWnd::ShowWindow
EXTRN	?OnToolHitTest@CWnd@@UBEHVCPoint@@PAUtagTOOLINFOA@@@Z:PROC ; CWnd::OnToolHitTest
EXTRN	?IsWindowEnabled@CWnd@@QBEHXZ:PROC		; CWnd::IsWindowEnabled
EXTRN	?EnableWindow@CWnd@@QAEHH@Z:PROC		; CWnd::EnableWindow
EXTRN	?GetScrollBarCtrl@CWnd@@UBEPAVCScrollBar@@H@Z:PROC ; CWnd::GetScrollBarCtrl
EXTRN	?UpdateData@CWnd@@QAEHH@Z:PROC			; CWnd::UpdateData
EXTRN	?WinHelpA@CWnd@@UAEXKI@Z:PROC			; CWnd::WinHelpA
EXTRN	?HtmlHelpA@CWnd@@UAEXKI@Z:PROC			; CWnd::HtmlHelpA
EXTRN	?WinHelpInternal@CWnd@@UAEXKI@Z:PROC		; CWnd::WinHelpInternal
EXTRN	?ContinueModal@CWnd@@UAEHXZ:PROC		; CWnd::ContinueModal
EXTRN	?EndModalLoop@CWnd@@UAEXH@Z:PROC		; CWnd::EndModalLoop
EXTRN	?OnDrawIconicThumbnailOrLivePreview@CWnd@@UAEXAAVCDC@@VCRect@@VCSize@@HAAH@Z:PROC ; CWnd::OnDrawIconicThumbnailOrLivePreview
EXTRN	?GetInterfaceMap@CWnd@@MBEPBUAFX_INTERFACEMAP@@XZ:PROC ; CWnd::GetInterfaceMap
EXTRN	?EnsureStdObj@CWnd@@UAEJXZ:PROC			; CWnd::EnsureStdObj
EXTRN	?get_accParent@CWnd@@UAEJPAPAUIDispatch@@@Z:PROC ; CWnd::get_accParent
EXTRN	?get_accChildCount@CWnd@@UAEJPAJ@Z:PROC		; CWnd::get_accChildCount
EXTRN	?get_accChild@CWnd@@UAEJUtagVARIANT@@PAPAUIDispatch@@@Z:PROC ; CWnd::get_accChild
EXTRN	?get_accName@CWnd@@UAEJUtagVARIANT@@PAPA_W@Z:PROC ; CWnd::get_accName
EXTRN	?get_accValue@CWnd@@UAEJUtagVARIANT@@PAPA_W@Z:PROC ; CWnd::get_accValue
EXTRN	?get_accDescription@CWnd@@UAEJUtagVARIANT@@PAPA_W@Z:PROC ; CWnd::get_accDescription
EXTRN	?get_accRole@CWnd@@UAEJUtagVARIANT@@PAU2@@Z:PROC ; CWnd::get_accRole
EXTRN	?get_accState@CWnd@@UAEJUtagVARIANT@@PAU2@@Z:PROC ; CWnd::get_accState
EXTRN	?get_accHelp@CWnd@@UAEJUtagVARIANT@@PAPA_W@Z:PROC ; CWnd::get_accHelp
EXTRN	?get_accHelpTopic@CWnd@@UAEJPAPA_WUtagVARIANT@@PAJ@Z:PROC ; CWnd::get_accHelpTopic
EXTRN	?get_accKeyboardShortcut@CWnd@@UAEJUtagVARIANT@@PAPA_W@Z:PROC ; CWnd::get_accKeyboardShortcut
EXTRN	?get_accFocus@CWnd@@UAEJPAUtagVARIANT@@@Z:PROC	; CWnd::get_accFocus
EXTRN	?get_accSelection@CWnd@@UAEJPAUtagVARIANT@@@Z:PROC ; CWnd::get_accSelection
EXTRN	?get_accDefaultAction@CWnd@@UAEJUtagVARIANT@@PAPA_W@Z:PROC ; CWnd::get_accDefaultAction
EXTRN	?accSelect@CWnd@@UAEJJUtagVARIANT@@@Z:PROC	; CWnd::accSelect
EXTRN	?accLocation@CWnd@@UAEJPAJ000UtagVARIANT@@@Z:PROC ; CWnd::accLocation
EXTRN	?accNavigate@CWnd@@UAEJJUtagVARIANT@@PAU2@@Z:PROC ; CWnd::accNavigate
EXTRN	?accHitTest@CWnd@@UAEJJJPAUtagVARIANT@@@Z:PROC	; CWnd::accHitTest
EXTRN	?accDoDefaultAction@CWnd@@UAEJUtagVARIANT@@@Z:PROC ; CWnd::accDoDefaultAction
EXTRN	?put_accName@CWnd@@UAEJUtagVARIANT@@PA_W@Z:PROC	; CWnd::put_accName
EXTRN	?put_accValue@CWnd@@UAEJUtagVARIANT@@PA_W@Z:PROC ; CWnd::put_accValue
EXTRN	?SetProxy@CWnd@@UAEJPAUIAccessibleProxy@@@Z:PROC ; CWnd::SetProxy
EXTRN	?CreateAccessibleProxy@CWnd@@UAEJIJPAJ@Z:PROC	; CWnd::CreateAccessibleProxy
EXTRN	?OnCommand@CWnd@@MAEHIJ@Z:PROC			; CWnd::OnCommand
EXTRN	?OnNotify@CWnd@@MAEHIJPAJ@Z:PROC		; CWnd::OnNotify
EXTRN	?GetSuperWndProcAddr@CWnd@@MAEPAP6GJPAUHWND__@@IIJ@ZXZ:PROC ; CWnd::GetSuperWndProcAddr
EXTRN	?PreTranslateMessage@CWnd@@UAEHPAUtagMSG@@@Z:PROC ; CWnd::PreTranslateMessage
EXTRN	?OnAmbientProperty@CWnd@@UAEHPAVCOleControlSite@@JPAUtagVARIANT@@@Z:PROC ; CWnd::OnAmbientProperty
EXTRN	?WindowProc@CWnd@@MAEJIIJ@Z:PROC		; CWnd::WindowProc
EXTRN	?OnWndMsg@CWnd@@MAEHIIJPAJ@Z:PROC		; CWnd::OnWndMsg
EXTRN	?DefWindowProcA@CWnd@@MAEJIIJ@Z:PROC		; CWnd::DefWindowProcA
EXTRN	?PostNcDestroy@CWnd@@MAEXXZ:PROC		; CWnd::PostNcDestroy
EXTRN	?OnChildNotify@CWnd@@MAEHIIJPAJ@Z:PROC		; CWnd::OnChildNotify
EXTRN	?OnTouchInputs@CWnd@@MAEHIPAUtagTOUCHINPUT@@@Z:PROC ; CWnd::OnTouchInputs
EXTRN	?OnTouchInput@CWnd@@MAEHVCPoint@@HHPAUtagTOUCHINPUT@@@Z:PROC ; CWnd::OnTouchInput
EXTRN	?GetGestureStatus@CWnd@@MAEKVCPoint@@@Z:PROC	; CWnd::GetGestureStatus
EXTRN	?OnGestureZoom@CWnd@@MAEHVCPoint@@J@Z:PROC	; CWnd::OnGestureZoom
EXTRN	?OnGesturePan@CWnd@@MAEHVCPoint@@0@Z:PROC	; CWnd::OnGesturePan
EXTRN	?OnGestureRotate@CWnd@@MAEHVCPoint@@N@Z:PROC	; CWnd::OnGestureRotate
EXTRN	?OnGestureTwoFingerTap@CWnd@@MAEHVCPoint@@@Z:PROC ; CWnd::OnGestureTwoFingerTap
EXTRN	?OnGesturePressAndTap@CWnd@@MAEHVCPoint@@J@Z:PROC ; CWnd::OnGesturePressAndTap
EXTRN	?ResizeDynamicLayout@CWnd@@MAEXXZ:PROC		; CWnd::ResizeDynamicLayout
EXTRN	?CheckAutoCenter@CWnd@@UAEHXZ:PROC		; CWnd::CheckAutoCenter
EXTRN	?IsFrameWnd@CWnd@@UBEHXZ:PROC			; CWnd::IsFrameWnd
EXTRN	?OnFinalRelease@CWnd@@UAEXXZ:PROC		; CWnd::OnFinalRelease
EXTRN	?CreateControlContainer@CWnd@@MAEHPAPAVCOleControlContainer@@@Z:PROC ; CWnd::CreateControlContainer
EXTRN	?CreateControlSite@CWnd@@MAEHPAVCOleControlContainer@@PAPAVCOleControlSite@@IABU_GUID@@@Z:PROC ; CWnd::CreateControlSite
EXTRN	?SetOccDialogInfo@CWnd@@MAEHPAU_AFX_OCC_DIALOG_INFO@@@Z:PROC ; CWnd::SetOccDialogInfo
EXTRN	?GetOccDialogInfo@CWnd@@MAEPAU_AFX_OCC_DIALOG_INFO@@XZ:PROC ; CWnd::GetOccDialogInfo
EXTRN	?GetMessageMap@CWnd@@MBEPBUAFX_MSGMAP@@XZ:PROC	; CWnd::GetMessageMap
EXTRN	?Create@CDialog@@UAEHPBDPAVCWnd@@@Z:PROC	; CDialog::Create
EXTRN	?CreateIndirect@CDialog@@UAEHPBUDLGTEMPLATE@@PAVCWnd@@PAX@Z:PROC ; CDialog::CreateIndirect
EXTRN	?CreateIndirect@CDialog@@UAEHPAXPAVCWnd@@@Z:PROC ; CDialog::CreateIndirect
EXTRN	?DoModal@CDialog@@UAEHXZ:PROC			; CDialog::DoModal
EXTRN	?OnInitDialog@CDialog@@UAEHXZ:PROC		; CDialog::OnInitDialog
EXTRN	?OnSetFont@CDialog@@UAEXPAVCFont@@@Z:PROC	; CDialog::OnSetFont
EXTRN	?OnOK@CDialog@@MAEXXZ:PROC			; CDialog::OnOK
EXTRN	?OnCancel@CDialog@@MAEXXZ:PROC			; CDialog::OnCancel
EXTRN	??1CDialog@@UAE@XZ:PROC				; CDialog::~CDialog
EXTRN	?PreTranslateMessage@CDialog@@UAEHPAUtagMSG@@@Z:PROC ; CDialog::PreTranslateMessage
EXTRN	?OnCmdMsg@CDialog@@UAEHIHPAXPAUAFX_CMDHANDLERINFO@@@Z:PROC ; CDialog::OnCmdMsg
EXTRN	?CheckAutoCenter@CDialog@@UAEHXZ:PROC		; CDialog::CheckAutoCenter
EXTRN	?SetOccDialogInfo@CDialog@@MAEHPAU_AFX_OCC_DIALOG_INFO@@@Z:PROC ; CDialog::SetOccDialogInfo
EXTRN	?GetOccDialogInfo@CDialog@@MAEPAU_AFX_OCC_DIALOG_INFO@@XZ:PROC ; CDialog::GetOccDialogInfo
EXTRN	?PreInitDialog@CDialog@@MAEXXZ:PROC		; CDialog::PreInitDialog
EXTRN	?GetThisMessageMap@CDialog@@KGPBUAFX_MSGMAP@@XZ:PROC ; CDialog::GetThisMessageMap
EXTRN	?GetRuntimeClass@CButton@@UBEPAUCRuntimeClass@@XZ:PROC ; CButton::GetRuntimeClass
EXTRN	?Create@CButton@@UAEHPBDKABUtagRECT@@PAVCWnd@@I@Z:PROC ; CButton::Create
EXTRN	?DrawItem@CButton@@UAEXPAUtagDRAWITEMSTRUCT@@@Z:PROC ; CButton::DrawItem
EXTRN	??1CButton@@UAE@XZ:PROC				; CButton::~CButton
EXTRN	?OnChildNotify@CButton@@MAEHIIJPAJ@Z:PROC	; CButton::OnChildNotify
EXTRN	??_ECButton@@UAEPAXI@Z:PROC			; CButton::`vector deleting destructor'
EXTRN	?GetRuntimeClass@CComboBox@@UBEPAUCRuntimeClass@@XZ:PROC ; CComboBox::GetRuntimeClass
EXTRN	?Create@CComboBox@@UAEHKABUtagRECT@@PAVCWnd@@I@Z:PROC ; CComboBox::Create
EXTRN	?DrawItem@CComboBox@@UAEXPAUtagDRAWITEMSTRUCT@@@Z:PROC ; CComboBox::DrawItem
EXTRN	?MeasureItem@CComboBox@@UAEXPAUtagMEASUREITEMSTRUCT@@@Z:PROC ; CComboBox::MeasureItem
EXTRN	?CompareItem@CComboBox@@UAEHPAUtagCOMPAREITEMSTRUCT@@@Z:PROC ; CComboBox::CompareItem
EXTRN	?DeleteItem@CComboBox@@UAEXPAUtagDELETEITEMSTRUCT@@@Z:PROC ; CComboBox::DeleteItem
EXTRN	??1CComboBox@@UAE@XZ:PROC			; CComboBox::~CComboBox
EXTRN	?OnChildNotify@CComboBox@@MAEHIIJPAJ@Z:PROC	; CComboBox::OnChildNotify
EXTRN	??_ECComboBox@@UAEPAXI@Z:PROC			; CComboBox::`vector deleting destructor'
EXTRN	_GetAddInIVersion:PROC
EXTRN	??0COutsideCommonInterfaceFunction@@QAE@XZ:PROC	; COutsideCommonInterfaceFunction::COutsideCommonInterfaceFunction
EXTRN	??1COutsideCommonInterfaceFunction@@UAE@XZ:PROC	; COutsideCommonInterfaceFunction::~COutsideCommonInterfaceFunction
EXTRN	?SetOutsideCommonInterface@COutsideCommonInterfaceFunction@@QAEXPAVCOutsideCommonInterface@@V?$CStringT@DV?$StrTraitMFC_DLL@DV?$ChTraitsCRT@D@ATL@@@@@ATL@@@Z:PROC ; COutsideCommonInterfaceFunction::SetOutsideCommonInterface
EXTRN	?MChart_SetImaginaryCandleAndGapRevisionToOutside@COutsideCommonInterfaceFunction@@QAE_N_N0@Z:PROC ; COutsideCommonInterfaceFunction::MChart_SetImaginaryCandleAndGapRevisionToOutside
EXTRN	?MChart_SetShowHighLowBoundToOutside@COutsideCommonInterfaceFunction@@QAE_N_N@Z:PROC ; COutsideCommonInterfaceFunction::MChart_SetShowHighLowBoundToOutside
EXTRN	?MChart_SetShowExRightDividendToOutside@COutsideCommonInterfaceFunction@@QAE_N_N@Z:PROC ; COutsideCommonInterfaceFunction::MChart_SetShowExRightDividendToOutside
EXTRN	?MChart_SetShowCurrentPriceToOutside@COutsideCommonInterfaceFunction@@QAE_NH@Z:PROC ; COutsideCommonInterfaceFunction::MChart_SetShowCurrentPriceToOutside
EXTRN	?InitMChartInterface061115@COutsideCommonInterfaceFunction@@QAEHXZ:PROC ; COutsideCommonInterfaceFunction::InitMChartInterface061115
EXTRN	?GetRevisedPriceFlag@COutsideCommonInterfaceFunction@@QAEHXZ:PROC ; COutsideCommonInterfaceFunction::GetRevisedPriceFlag
EXTRN	?SetRevisedPriceFlag@COutsideCommonInterfaceFunction@@QAEHH@Z:PROC ; COutsideCommonInterfaceFunction::SetRevisedPriceFlag
EXTRN	?GetThisClass@CBaseTabDlg@@SGPAUCRuntimeClass@@XZ:PROC ; CBaseTabDlg::GetThisClass
EXTRN	??0CBaseTabDlg@@QAE@HPAVCWnd@@@Z:PROC		; CBaseTabDlg::CBaseTabDlg
EXTRN	?ChangeTabPage@CBaseTabDlg@@UAE_NPAV1@@Z:PROC	; CBaseTabDlg::ChangeTabPage
EXTRN	??0CColorButton@@QAE@XZ:PROC			; CColorButton::CColorButton
EXTRN	??1CColorButton@@UAE@XZ:PROC			; CColorButton::~CColorButton
EXTRN	??0CNumEdit@@QAE@XZ:PROC			; CNumEdit::CNumEdit
EXTRN	??1CNumEdit@@UAE@XZ:PROC			; CNumEdit::~CNumEdit
EXTRN	??0CNumSpinCtrl@@QAE@XZ:PROC			; CNumSpinCtrl::CNumSpinCtrl
EXTRN	??1CNumSpinCtrl@@UAE@XZ:PROC			; CNumSpinCtrl::~CNumSpinCtrl
EXTRN	??_ECDlgMainTabBaseEnvSetUp@@UAEPAXI@Z:PROC	; CDlgMainTabBaseEnvSetUp::`vector deleting destructor'
EXTRN	?GetGridTypeCombo@CDlgEnvSetUpAll@@QAEHH@Z:PROC	; CDlgEnvSetUpAll::GetGridTypeCombo
EXTRN	@__security_check_cookie@4:PROC
EXTRN	___CxxFrameHandler3:PROC
EXTRN	??_7type_info@@6B@:QWORD			; type_info::`vftable'
EXTRN	?g_iMetaTable@@3VIMetaTable@@A:BYTE		; g_iMetaTable
EXTRN	?m_strAddInItemName@CChartEnvSetupDlgAddInImp@@2V?$CStringT@DV?$StrTraitMFC_DLL@DV?$ChTraitsCRT@D@ATL@@@@@ATL@@A:DWORD ; CChartEnvSetupDlgAddInImp::m_strAddInItemName
EXTRN	___security_cookie:DWORD
EXTRN	__fltused:DWORD
;	COMDAT __real@3ff0000000000000
CONST	SEGMENT
__real@3ff0000000000000 DQ 03ff0000000000000r	; 1
CONST	ENDS
;	COMDAT ??_R2CBaseTabDlg@@8
rdata$r	SEGMENT
??_R2CBaseTabDlg@@8 DD FLAT:??_R1A@?0A@EA@CBaseTabDlg@@8 ; CBaseTabDlg::`RTTI Base Class Array'
	DD	FLAT:??_R1A@?0A@EA@CDialog@@8
	DD	FLAT:??_R1A@?0A@EA@CWnd@@8
	DD	FLAT:??_R1A@?0A@EA@CCmdTarget@@8
	DD	FLAT:??_R1A@?0A@EA@CObject@@8
rdata$r	ENDS
;	COMDAT ??_R3CBaseTabDlg@@8
rdata$r	SEGMENT
??_R3CBaseTabDlg@@8 DD 00H				; CBaseTabDlg::`RTTI Class Hierarchy Descriptor'
	DD	00H
	DD	05H
	DD	FLAT:??_R2CBaseTabDlg@@8
rdata$r	ENDS
;	COMDAT ??_R0?AVCBaseTabDlg@@@8
data$rs	SEGMENT
??_R0?AVCBaseTabDlg@@@8 DD FLAT:??_7type_info@@6B@	; CBaseTabDlg `RTTI Type Descriptor'
	DD	00H
	DB	'.?AVCBaseTabDlg@@', 00H
data$rs	ENDS
;	COMDAT ??_R1A@?0A@EA@CBaseTabDlg@@8
rdata$r	SEGMENT
??_R1A@?0A@EA@CBaseTabDlg@@8 DD FLAT:??_R0?AVCBaseTabDlg@@@8 ; CBaseTabDlg::`RTTI Base Class Descriptor at (0,-1,0,64)'
	DD	04H
	DD	00H
	DD	0ffffffffH
	DD	00H
	DD	040H
	DD	FLAT:??_R3CBaseTabDlg@@8
rdata$r	ENDS
;	COMDAT ??_R1A@?0A@EA@CDlgMainTabBaseEnvSetUp@@8
rdata$r	SEGMENT
??_R1A@?0A@EA@CDlgMainTabBaseEnvSetUp@@8 DD FLAT:??_R0?AVCDlgMainTabBaseEnvSetUp@@@8 ; CDlgMainTabBaseEnvSetUp::`RTTI Base Class Descriptor at (0,-1,0,64)'
	DD	05H
	DD	00H
	DD	0ffffffffH
	DD	00H
	DD	040H
	DD	FLAT:??_R3CDlgMainTabBaseEnvSetUp@@8
rdata$r	ENDS
;	COMDAT ??_R2CDlgMainTabBaseEnvSetUp@@8
rdata$r	SEGMENT
??_R2CDlgMainTabBaseEnvSetUp@@8 DD FLAT:??_R1A@?0A@EA@CDlgMainTabBaseEnvSetUp@@8 ; CDlgMainTabBaseEnvSetUp::`RTTI Base Class Array'
	DD	FLAT:??_R1A@?0A@EA@CBaseTabDlg@@8
	DD	FLAT:??_R1A@?0A@EA@CDialog@@8
	DD	FLAT:??_R1A@?0A@EA@CWnd@@8
	DD	FLAT:??_R1A@?0A@EA@CCmdTarget@@8
	DD	FLAT:??_R1A@?0A@EA@CObject@@8
rdata$r	ENDS
;	COMDAT ??_R3CDlgMainTabBaseEnvSetUp@@8
rdata$r	SEGMENT
??_R3CDlgMainTabBaseEnvSetUp@@8 DD 00H			; CDlgMainTabBaseEnvSetUp::`RTTI Class Hierarchy Descriptor'
	DD	00H
	DD	06H
	DD	FLAT:??_R2CDlgMainTabBaseEnvSetUp@@8
rdata$r	ENDS
;	COMDAT ??_R0?AVCDlgMainTabBaseEnvSetUp@@@8
data$rs	SEGMENT
??_R0?AVCDlgMainTabBaseEnvSetUp@@@8 DD FLAT:??_7type_info@@6B@ ; CDlgMainTabBaseEnvSetUp `RTTI Type Descriptor'
	DD	00H
	DB	'.?AVCDlgMainTabBaseEnvSetUp@@', 00H
data$rs	ENDS
;	COMDAT ??_R4CDlgMainTabBaseEnvSetUp@@6B@
rdata$r	SEGMENT
??_R4CDlgMainTabBaseEnvSetUp@@6B@ DD 00H		; CDlgMainTabBaseEnvSetUp::`RTTI Complete Object Locator'
	DD	00H
	DD	00H
	DD	FLAT:??_R0?AVCDlgMainTabBaseEnvSetUp@@@8
	DD	FLAT:??_R3CDlgMainTabBaseEnvSetUp@@8
rdata$r	ENDS
;	COMDAT ??_C@_07MGCPDNLD@DEFAULT@
CONST	SEGMENT
??_C@_07MGCPDNLD@DEFAULT@ DB 'DEFAULT', 00H		; `string'
CONST	ENDS
;	COMDAT ?messageMap@?1??GetThisMessageMap@CDlgMainTabBaseEnvSetUp@@KGPBUAFX_MSGMAP@@XZ@4U3@B
CONST	SEGMENT
?messageMap@?1??GetThisMessageMap@CDlgMainTabBaseEnvSetUp@@KGPBUAFX_MSGMAP@@XZ@4U3@B DD FLAT:?GetThisMessageMap@CDialog@@KGPBUAFX_MSGMAP@@XZ ; `CDlgMainTabBaseEnvSetUp::GetThisMessageMap'::`2'::messageMap
	DD	FLAT:?_messageEntries@?1??GetThisMessageMap@CDlgMainTabBaseEnvSetUp@@KGPBUAFX_MSGMAP@@XZ@4QBUAFX_MSGMAP_ENTRY@@B
CONST	ENDS
;	COMDAT ?_messageEntries@?1??GetThisMessageMap@CDlgMainTabBaseEnvSetUp@@KGPBUAFX_MSGMAP@@XZ@4QBUAFX_MSGMAP_ENTRY@@B
CONST	SEGMENT
?_messageEntries@?1??GetThisMessageMap@CDlgMainTabBaseEnvSetUp@@KGPBUAFX_MSGMAP@@XZ@4QBUAFX_MSGMAP_ENTRY@@B DD 0111H ; `CDlgMainTabBaseEnvSetUp::GetThisMessageMap'::`2'::_messageEntries
	DD	00H
	DD	01788H
	DD	01788H
	DD	03aH
	DD	FLAT:?OnInquirydataWindowShow@CDlgMainTabBaseEnvSetUp@@IAEXXZ
	DD	0111H
	DD	00H
	DD	07f0H
	DD	07f0H
	DD	03aH
	DD	FLAT:?OnShowCurrentPrice@CDlgMainTabBaseEnvSetUp@@IAEXXZ
	DD	0111H
	DD	00H
	DD	03f9H
	DD	03f9H
	DD	03aH
	DD	FLAT:?OnUseIndicatorName@CDlgMainTabBaseEnvSetUp@@IAEXXZ
	DD	0111H
	DD	00H
	DD	0409H
	DD	0409H
	DD	03aH
	DD	FLAT:?OnChkLhLcHc@CDlgMainTabBaseEnvSetUp@@IAEXXZ
	DD	0111H
	DD	00H
	DD	01f67H
	DD	01f67H
	DD	03aH
	DD	FLAT:?OnRdoLhLcHc@CDlgMainTabBaseEnvSetUp@@IAEXXZ
	DD	0111H
	DD	00H
	DD	03f8H
	DD	03f8H
	DD	03aH
	DD	FLAT:?OnShowMinMaxPrice@CDlgMainTabBaseEnvSetUp@@IAEXXZ
	DD	0111H
	DD	00H
	DD	01f69H
	DD	01f69H
	DD	03aH
	DD	FLAT:?OnRdoLhLcHc@CDlgMainTabBaseEnvSetUp@@IAEXXZ
	DD	0111H
	DD	00H
	DD	01f68H
	DD	01f68H
	DD	03aH
	DD	FLAT:?OnRdoLhLcHc@CDlgMainTabBaseEnvSetUp@@IAEXXZ
	DD	00H
	DD	00H
	DD	00H
	DD	00H
	DD	00H
	DD	00H
CONST	ENDS
;	COMDAT ??_C@_0BI@IIGOGIJB@CDlgMainTabBaseEnvSetUp@
CONST	SEGMENT
??_C@_0BI@IIGOGIJB@CDlgMainTabBaseEnvSetUp@ DB 'CDlgMainTabBaseEnvSetUp', 00H ; `string'
CONST	ENDS
;	COMDAT ??_7CDlgMainTabBaseEnvSetUp@@6B@
CONST	SEGMENT
??_7CDlgMainTabBaseEnvSetUp@@6B@ DD FLAT:??_R4CDlgMainTabBaseEnvSetUp@@6B@ ; CDlgMainTabBaseEnvSetUp::`vftable'
	DD	FLAT:?GetRuntimeClass@CDlgMainTabBaseEnvSetUp@@UBEPAUCRuntimeClass@@XZ
	DD	FLAT:??_ECDlgMainTabBaseEnvSetUp@@UAEPAXI@Z
	DD	FLAT:?Serialize@CObject@@UAEXAAVCArchive@@@Z
	DD	FLAT:?AssertValid@CObject@@UBEXXZ
	DD	FLAT:?Dump@CObject@@UBEXAAVCDumpContext@@@Z
	DD	FLAT:?OnCmdMsg@CDialog@@UAEHIHPAXPAUAFX_CMDHANDLERINFO@@@Z
	DD	FLAT:?OnFinalRelease@CWnd@@UAEXXZ
	DD	FLAT:?IsInvokeAllowed@CCmdTarget@@UAEHJ@Z
	DD	FLAT:?GetDispatchIID@CCmdTarget@@UAEHPAU_GUID@@@Z
	DD	FLAT:?GetTypeInfoCount@CCmdTarget@@UAEIXZ
	DD	FLAT:?GetTypeLibCache@CCmdTarget@@UAEPAVCTypeLibCache@@XZ
	DD	FLAT:?GetTypeLib@CCmdTarget@@UAEJKPAPAUITypeLib@@@Z
	DD	FLAT:?GetMessageMap@CDlgMainTabBaseEnvSetUp@@MBEPBUAFX_MSGMAP@@XZ
	DD	FLAT:?GetCommandMap@CCmdTarget@@MBEPBUAFX_OLECMDMAP@@XZ
	DD	FLAT:?GetDispatchMap@CCmdTarget@@MBEPBUAFX_DISPMAP@@XZ
	DD	FLAT:?GetConnectionMap@CCmdTarget@@MBEPBUAFX_CONNECTIONMAP@@XZ
	DD	FLAT:?GetInterfaceMap@CWnd@@MBEPBUAFX_INTERFACEMAP@@XZ
	DD	FLAT:?GetEventSinkMap@CCmdTarget@@MBEPBUAFX_EVENTSINKMAP@@XZ
	DD	FLAT:?OnCreateAggregates@CCmdTarget@@UAEHXZ
	DD	FLAT:?GetInterfaceHook@CCmdTarget@@UAEPAUIUnknown@@PBX@Z
	DD	FLAT:?GetExtraConnectionPoints@CCmdTarget@@MAEHPAVCPtrArray@@@Z
	DD	FLAT:?GetConnectionHook@CCmdTarget@@MAEPAUIConnectionPoint@@ABU_GUID@@@Z
	DD	FLAT:?PreSubclassWindow@CWnd@@UAEXXZ
	DD	FLAT:?Create@CWnd@@UAEHPBD0KABUtagRECT@@PAV1@IPAUCCreateContext@@@Z
	DD	FLAT:?CreateEx@CWnd@@UAEHKPBD0KABUtagRECT@@PAV1@IPAX@Z
	DD	FLAT:?CreateEx@CWnd@@UAEHKPBD0KHHHHPAUHWND__@@PAUHMENU__@@PAX@Z
	DD	FLAT:?DestroyWindow@CWnd@@UAEHXZ
	DD	FLAT:?PreCreateWindow@CWnd@@UAEHAAUtagCREATESTRUCTA@@@Z
	DD	FLAT:?CalcWindowRect@CWnd@@UAEXPAUtagRECT@@I@Z
	DD	FLAT:?GetMenu@CWnd@@UBEPAVCMenu@@XZ
	DD	FLAT:?SetMenu@CWnd@@UAEHPAVCMenu@@@Z
	DD	FLAT:?OnToolHitTest@CWnd@@UBEHVCPoint@@PAUtagTOOLINFOA@@@Z
	DD	FLAT:?GetScrollBarCtrl@CWnd@@UBEPAVCScrollBar@@H@Z
	DD	FLAT:?WinHelpA@CWnd@@UAEXKI@Z
	DD	FLAT:?HtmlHelpA@CWnd@@UAEXKI@Z
	DD	FLAT:?WinHelpInternal@CWnd@@UAEXKI@Z
	DD	FLAT:?ContinueModal@CWnd@@UAEHXZ
	DD	FLAT:?EndModalLoop@CWnd@@UAEXH@Z
	DD	FLAT:?OnDrawIconicThumbnailOrLivePreview@CWnd@@UAEXAAVCDC@@VCRect@@VCSize@@HAAH@Z
	DD	FLAT:?EnsureStdObj@CWnd@@UAEJXZ
	DD	FLAT:?get_accParent@CWnd@@UAEJPAPAUIDispatch@@@Z
	DD	FLAT:?get_accChildCount@CWnd@@UAEJPAJ@Z
	DD	FLAT:?get_accChild@CWnd@@UAEJUtagVARIANT@@PAPAUIDispatch@@@Z
	DD	FLAT:?get_accName@CWnd@@UAEJUtagVARIANT@@PAPA_W@Z
	DD	FLAT:?get_accValue@CWnd@@UAEJUtagVARIANT@@PAPA_W@Z
	DD	FLAT:?get_accDescription@CWnd@@UAEJUtagVARIANT@@PAPA_W@Z
	DD	FLAT:?get_accRole@CWnd@@UAEJUtagVARIANT@@PAU2@@Z
	DD	FLAT:?get_accState@CWnd@@UAEJUtagVARIANT@@PAU2@@Z
	DD	FLAT:?get_accHelp@CWnd@@UAEJUtagVARIANT@@PAPA_W@Z
	DD	FLAT:?get_accHelpTopic@CWnd@@UAEJPAPA_WUtagVARIANT@@PAJ@Z
	DD	FLAT:?get_accKeyboardShortcut@CWnd@@UAEJUtagVARIANT@@PAPA_W@Z
	DD	FLAT:?get_accFocus@CWnd@@UAEJPAUtagVARIANT@@@Z
	DD	FLAT:?get_accSelection@CWnd@@UAEJPAUtagVARIANT@@@Z
	DD	FLAT:?get_accDefaultAction@CWnd@@UAEJUtagVARIANT@@PAPA_W@Z
	DD	FLAT:?accSelect@CWnd@@UAEJJUtagVARIANT@@@Z
	DD	FLAT:?accLocation@CWnd@@UAEJPAJ000UtagVARIANT@@@Z
	DD	FLAT:?accNavigate@CWnd@@UAEJJUtagVARIANT@@PAU2@@Z
	DD	FLAT:?accHitTest@CWnd@@UAEJJJPAUtagVARIANT@@@Z
	DD	FLAT:?accDoDefaultAction@CWnd@@UAEJUtagVARIANT@@@Z
	DD	FLAT:?put_accName@CWnd@@UAEJUtagVARIANT@@PA_W@Z
	DD	FLAT:?put_accValue@CWnd@@UAEJUtagVARIANT@@PA_W@Z
	DD	FLAT:?SetProxy@CWnd@@UAEJPAUIAccessibleProxy@@@Z
	DD	FLAT:?CreateAccessibleProxy@CWnd@@UAEJIJPAJ@Z
	DD	FLAT:?OnCommand@CWnd@@MAEHIJ@Z
	DD	FLAT:?OnNotify@CWnd@@MAEHIJPAJ@Z
	DD	FLAT:?GetSuperWndProcAddr@CWnd@@MAEPAP6GJPAUHWND__@@IIJ@ZXZ
	DD	FLAT:?DoDataExchange@CDlgMainTabBaseEnvSetUp@@MAEXPAVCDataExchange@@@Z
	DD	FLAT:?BeginModalState@CWnd@@UAEXXZ
	DD	FLAT:?EndModalState@CWnd@@UAEXXZ
	DD	FLAT:?PreTranslateMessage@CDlgMainTabBaseEnvSetUp@@UAEHPAUtagMSG@@@Z
	DD	FLAT:?OnAmbientProperty@CWnd@@UAEHPAVCOleControlSite@@JPAUtagVARIANT@@@Z
	DD	FLAT:?WindowProc@CWnd@@MAEJIIJ@Z
	DD	FLAT:?OnWndMsg@CWnd@@MAEHIIJPAJ@Z
	DD	FLAT:?DefWindowProcA@CWnd@@MAEJIIJ@Z
	DD	FLAT:?PostNcDestroy@CWnd@@MAEXXZ
	DD	FLAT:?OnChildNotify@CWnd@@MAEHIIJPAJ@Z
	DD	FLAT:?OnTouchInputs@CWnd@@MAEHIPAUtagTOUCHINPUT@@@Z
	DD	FLAT:?OnTouchInput@CWnd@@MAEHVCPoint@@HHPAUtagTOUCHINPUT@@@Z
	DD	FLAT:?GetGestureStatus@CWnd@@MAEKVCPoint@@@Z
	DD	FLAT:?OnGestureZoom@CWnd@@MAEHVCPoint@@J@Z
	DD	FLAT:?OnGesturePan@CWnd@@MAEHVCPoint@@0@Z
	DD	FLAT:?OnGestureRotate@CWnd@@MAEHVCPoint@@N@Z
	DD	FLAT:?OnGestureTwoFingerTap@CWnd@@MAEHVCPoint@@@Z
	DD	FLAT:?OnGesturePressAndTap@CWnd@@MAEHVCPoint@@J@Z
	DD	FLAT:?ResizeDynamicLayout@CWnd@@MAEXXZ
	DD	FLAT:?CheckAutoCenter@CDialog@@UAEHXZ
	DD	FLAT:?IsFrameWnd@CWnd@@UBEHXZ
	DD	FLAT:?CreateControlContainer@CWnd@@MAEHPAPAVCOleControlContainer@@@Z
	DD	FLAT:?CreateControlSite@CWnd@@MAEHPAVCOleControlContainer@@PAPAVCOleControlSite@@IABU_GUID@@@Z
	DD	FLAT:?SetOccDialogInfo@CDialog@@MAEHPAU_AFX_OCC_DIALOG_INFO@@@Z
	DD	FLAT:?GetOccDialogInfo@CDialog@@MAEPAU_AFX_OCC_DIALOG_INFO@@XZ
	DD	FLAT:?Create@CDialog@@UAEHIPAVCWnd@@@Z
	DD	FLAT:?Create@CDialog@@UAEHPBDPAVCWnd@@@Z
	DD	FLAT:?CreateIndirect@CDialog@@UAEHPAXPAVCWnd@@@Z
	DD	FLAT:?CreateIndirect@CDialog@@UAEHPBUDLGTEMPLATE@@PAVCWnd@@PAX@Z
	DD	FLAT:?DoModal@CDialog@@UAEHXZ
	DD	FLAT:?OnInitDialog@CDlgMainTabBaseEnvSetUp@@MAEHXZ
	DD	FLAT:?OnSetFont@CDialog@@UAEXPAVCFont@@@Z
	DD	FLAT:?OnOK@CDialog@@MAEXXZ
	DD	FLAT:?OnCancel@CDialog@@MAEXXZ
	DD	FLAT:?PreInitDialog@CDialog@@MAEXXZ
	DD	FLAT:?ChangeTabPage@CBaseTabDlg@@UAE_NPAV1@@Z
	DD	FLAT:?GetDialogType@CDlgMainTabBaseEnvSetUp@@UBE?AW4DLG_TYPE@CBaseTabDlg@@XZ
	DD	FLAT:?GetCurrentPrice@CDlgMainTabBaseEnvSetUp@@UBE_NAAH@Z
CONST	ENDS
;	COMDAT ?classCDlgMainTabBaseEnvSetUp@CDlgMainTabBaseEnvSetUp@@2UCRuntimeClass@@B
CONST	SEGMENT
?classCDlgMainTabBaseEnvSetUp@CDlgMainTabBaseEnvSetUp@@2UCRuntimeClass@@B DD FLAT:??_C@_0BI@IIGOGIJB@CDlgMainTabBaseEnvSetUp@ ; CDlgMainTabBaseEnvSetUp::classCDlgMainTabBaseEnvSetUp
	DD	0a10H
	DD	0ffffH
	DD	00H
	DD	FLAT:?_GetBaseClass@CDlgMainTabBaseEnvSetUp@@KGPAUCRuntimeClass@@XZ
	DD	00H
	DD	00H
CONST	ENDS
;	COMDAT ??_R2CDialog@@8
rdata$r	SEGMENT
??_R2CDialog@@8 DD FLAT:??_R1A@?0A@EA@CDialog@@8	; CDialog::`RTTI Base Class Array'
	DD	FLAT:??_R1A@?0A@EA@CWnd@@8
	DD	FLAT:??_R1A@?0A@EA@CCmdTarget@@8
	DD	FLAT:??_R1A@?0A@EA@CObject@@8
rdata$r	ENDS
;	COMDAT ??_R3CDialog@@8
rdata$r	SEGMENT
??_R3CDialog@@8 DD 00H					; CDialog::`RTTI Class Hierarchy Descriptor'
	DD	00H
	DD	04H
	DD	FLAT:??_R2CDialog@@8
rdata$r	ENDS
;	COMDAT ??_R0?AVCDialog@@@8
data$rs	SEGMENT
??_R0?AVCDialog@@@8 DD FLAT:??_7type_info@@6B@		; CDialog `RTTI Type Descriptor'
	DD	00H
	DB	'.?AVCDialog@@', 00H
data$rs	ENDS
;	COMDAT ??_R1A@?0A@EA@CDialog@@8
rdata$r	SEGMENT
??_R1A@?0A@EA@CDialog@@8 DD FLAT:??_R0?AVCDialog@@@8	; CDialog::`RTTI Base Class Descriptor at (0,-1,0,64)'
	DD	03H
	DD	00H
	DD	0ffffffffH
	DD	00H
	DD	040H
	DD	FLAT:??_R3CDialog@@8
rdata$r	ENDS
;	COMDAT ??_R1A@?0A@EA@CComboBox@@8
rdata$r	SEGMENT
??_R1A@?0A@EA@CComboBox@@8 DD FLAT:??_R0?AVCComboBox@@@8 ; CComboBox::`RTTI Base Class Descriptor at (0,-1,0,64)'
	DD	03H
	DD	00H
	DD	0ffffffffH
	DD	00H
	DD	040H
	DD	FLAT:??_R3CComboBox@@8
rdata$r	ENDS
;	COMDAT ??_R2CComboBox@@8
rdata$r	SEGMENT
??_R2CComboBox@@8 DD FLAT:??_R1A@?0A@EA@CComboBox@@8	; CComboBox::`RTTI Base Class Array'
	DD	FLAT:??_R1A@?0A@EA@CWnd@@8
	DD	FLAT:??_R1A@?0A@EA@CCmdTarget@@8
	DD	FLAT:??_R1A@?0A@EA@CObject@@8
rdata$r	ENDS
;	COMDAT ??_R3CComboBox@@8
rdata$r	SEGMENT
??_R3CComboBox@@8 DD 00H				; CComboBox::`RTTI Class Hierarchy Descriptor'
	DD	00H
	DD	04H
	DD	FLAT:??_R2CComboBox@@8
rdata$r	ENDS
;	COMDAT ??_R0?AVCComboBox@@@8
data$rs	SEGMENT
??_R0?AVCComboBox@@@8 DD FLAT:??_7type_info@@6B@	; CComboBox `RTTI Type Descriptor'
	DD	00H
	DB	'.?AVCComboBox@@', 00H
data$rs	ENDS
;	COMDAT ??_R4CComboBox@@6B@
rdata$r	SEGMENT
??_R4CComboBox@@6B@ DD 00H				; CComboBox::`RTTI Complete Object Locator'
	DD	00H
	DD	00H
	DD	FLAT:??_R0?AVCComboBox@@@8
	DD	FLAT:??_R3CComboBox@@8
rdata$r	ENDS
;	COMDAT ??_R1A@?0A@EA@CButton@@8
rdata$r	SEGMENT
??_R1A@?0A@EA@CButton@@8 DD FLAT:??_R0?AVCButton@@@8	; CButton::`RTTI Base Class Descriptor at (0,-1,0,64)'
	DD	03H
	DD	00H
	DD	0ffffffffH
	DD	00H
	DD	040H
	DD	FLAT:??_R3CButton@@8
rdata$r	ENDS
;	COMDAT ??_R2CButton@@8
rdata$r	SEGMENT
??_R2CButton@@8 DD FLAT:??_R1A@?0A@EA@CButton@@8	; CButton::`RTTI Base Class Array'
	DD	FLAT:??_R1A@?0A@EA@CWnd@@8
	DD	FLAT:??_R1A@?0A@EA@CCmdTarget@@8
	DD	FLAT:??_R1A@?0A@EA@CObject@@8
rdata$r	ENDS
;	COMDAT ??_R3CButton@@8
rdata$r	SEGMENT
??_R3CButton@@8 DD 00H					; CButton::`RTTI Class Hierarchy Descriptor'
	DD	00H
	DD	04H
	DD	FLAT:??_R2CButton@@8
rdata$r	ENDS
;	COMDAT ??_R0?AVCButton@@@8
data$rs	SEGMENT
??_R0?AVCButton@@@8 DD FLAT:??_7type_info@@6B@		; CButton `RTTI Type Descriptor'
	DD	00H
	DB	'.?AVCButton@@', 00H
data$rs	ENDS
;	COMDAT ??_R4CButton@@6B@
rdata$r	SEGMENT
??_R4CButton@@6B@ DD 00H				; CButton::`RTTI Complete Object Locator'
	DD	00H
	DD	00H
	DD	FLAT:??_R0?AVCButton@@@8
	DD	FLAT:??_R3CButton@@8
rdata$r	ENDS
;	COMDAT ??_R2CCmdTarget@@8
rdata$r	SEGMENT
??_R2CCmdTarget@@8 DD FLAT:??_R1A@?0A@EA@CCmdTarget@@8	; CCmdTarget::`RTTI Base Class Array'
	DD	FLAT:??_R1A@?0A@EA@CObject@@8
rdata$r	ENDS
;	COMDAT ??_R3CCmdTarget@@8
rdata$r	SEGMENT
??_R3CCmdTarget@@8 DD 00H				; CCmdTarget::`RTTI Class Hierarchy Descriptor'
	DD	00H
	DD	02H
	DD	FLAT:??_R2CCmdTarget@@8
rdata$r	ENDS
;	COMDAT ??_R0?AVCCmdTarget@@@8
data$rs	SEGMENT
??_R0?AVCCmdTarget@@@8 DD FLAT:??_7type_info@@6B@	; CCmdTarget `RTTI Type Descriptor'
	DD	00H
	DB	'.?AVCCmdTarget@@', 00H
data$rs	ENDS
;	COMDAT ??_R1A@?0A@EA@CCmdTarget@@8
rdata$r	SEGMENT
??_R1A@?0A@EA@CCmdTarget@@8 DD FLAT:??_R0?AVCCmdTarget@@@8 ; CCmdTarget::`RTTI Base Class Descriptor at (0,-1,0,64)'
	DD	01H
	DD	00H
	DD	0ffffffffH
	DD	00H
	DD	040H
	DD	FLAT:??_R3CCmdTarget@@8
rdata$r	ENDS
;	COMDAT ??_R2CWnd@@8
rdata$r	SEGMENT
??_R2CWnd@@8 DD	FLAT:??_R1A@?0A@EA@CWnd@@8		; CWnd::`RTTI Base Class Array'
	DD	FLAT:??_R1A@?0A@EA@CCmdTarget@@8
	DD	FLAT:??_R1A@?0A@EA@CObject@@8
rdata$r	ENDS
;	COMDAT ??_R3CWnd@@8
rdata$r	SEGMENT
??_R3CWnd@@8 DD	00H					; CWnd::`RTTI Class Hierarchy Descriptor'
	DD	00H
	DD	03H
	DD	FLAT:??_R2CWnd@@8
rdata$r	ENDS
;	COMDAT ??_R0?AVCWnd@@@8
data$rs	SEGMENT
??_R0?AVCWnd@@@8 DD FLAT:??_7type_info@@6B@		; CWnd `RTTI Type Descriptor'
	DD	00H
	DB	'.?AVCWnd@@', 00H
data$rs	ENDS
;	COMDAT ??_R1A@?0A@EA@CWnd@@8
rdata$r	SEGMENT
??_R1A@?0A@EA@CWnd@@8 DD FLAT:??_R0?AVCWnd@@@8		; CWnd::`RTTI Base Class Descriptor at (0,-1,0,64)'
	DD	02H
	DD	00H
	DD	0ffffffffH
	DD	00H
	DD	040H
	DD	FLAT:??_R3CWnd@@8
rdata$r	ENDS
;	COMDAT ??_R1A@?0A@EA@CObject@@8
rdata$r	SEGMENT
??_R1A@?0A@EA@CObject@@8 DD FLAT:??_R0?AVCObject@@@8	; CObject::`RTTI Base Class Descriptor at (0,-1,0,64)'
	DD	00H
	DD	00H
	DD	0ffffffffH
	DD	00H
	DD	040H
	DD	FLAT:??_R3CObject@@8
rdata$r	ENDS
;	COMDAT ??_R2CObject@@8
rdata$r	SEGMENT
??_R2CObject@@8 DD FLAT:??_R1A@?0A@EA@CObject@@8	; CObject::`RTTI Base Class Array'
rdata$r	ENDS
;	COMDAT ??_R3CObject@@8
rdata$r	SEGMENT
??_R3CObject@@8 DD 00H					; CObject::`RTTI Class Hierarchy Descriptor'
	DD	00H
	DD	01H
	DD	FLAT:??_R2CObject@@8
rdata$r	ENDS
;	COMDAT ??_R0?AVCObject@@@8
data$rs	SEGMENT
??_R0?AVCObject@@@8 DD FLAT:??_7type_info@@6B@		; CObject `RTTI Type Descriptor'
	DD	00H
	DB	'.?AVCObject@@', 00H
data$rs	ENDS
;	COMDAT ??_7CComboBox@@6B@
CONST	SEGMENT
??_7CComboBox@@6B@ DD FLAT:??_R4CComboBox@@6B@		; CComboBox::`vftable'
	DD	FLAT:?GetRuntimeClass@CComboBox@@UBEPAUCRuntimeClass@@XZ
	DD	FLAT:??_ECComboBox@@UAEPAXI@Z
	DD	FLAT:?Serialize@CObject@@UAEXAAVCArchive@@@Z
	DD	FLAT:?AssertValid@CObject@@UBEXXZ
	DD	FLAT:?Dump@CObject@@UBEXAAVCDumpContext@@@Z
	DD	FLAT:?OnCmdMsg@CCmdTarget@@UAEHIHPAXPAUAFX_CMDHANDLERINFO@@@Z
	DD	FLAT:?OnFinalRelease@CWnd@@UAEXXZ
	DD	FLAT:?IsInvokeAllowed@CCmdTarget@@UAEHJ@Z
	DD	FLAT:?GetDispatchIID@CCmdTarget@@UAEHPAU_GUID@@@Z
	DD	FLAT:?GetTypeInfoCount@CCmdTarget@@UAEIXZ
	DD	FLAT:?GetTypeLibCache@CCmdTarget@@UAEPAVCTypeLibCache@@XZ
	DD	FLAT:?GetTypeLib@CCmdTarget@@UAEJKPAPAUITypeLib@@@Z
	DD	FLAT:?GetMessageMap@CWnd@@MBEPBUAFX_MSGMAP@@XZ
	DD	FLAT:?GetCommandMap@CCmdTarget@@MBEPBUAFX_OLECMDMAP@@XZ
	DD	FLAT:?GetDispatchMap@CCmdTarget@@MBEPBUAFX_DISPMAP@@XZ
	DD	FLAT:?GetConnectionMap@CCmdTarget@@MBEPBUAFX_CONNECTIONMAP@@XZ
	DD	FLAT:?GetInterfaceMap@CWnd@@MBEPBUAFX_INTERFACEMAP@@XZ
	DD	FLAT:?GetEventSinkMap@CCmdTarget@@MBEPBUAFX_EVENTSINKMAP@@XZ
	DD	FLAT:?OnCreateAggregates@CCmdTarget@@UAEHXZ
	DD	FLAT:?GetInterfaceHook@CCmdTarget@@UAEPAUIUnknown@@PBX@Z
	DD	FLAT:?GetExtraConnectionPoints@CCmdTarget@@MAEHPAVCPtrArray@@@Z
	DD	FLAT:?GetConnectionHook@CCmdTarget@@MAEPAUIConnectionPoint@@ABU_GUID@@@Z
	DD	FLAT:?PreSubclassWindow@CWnd@@UAEXXZ
	DD	FLAT:?Create@CWnd@@UAEHPBD0KABUtagRECT@@PAV1@IPAUCCreateContext@@@Z
	DD	FLAT:?CreateEx@CWnd@@UAEHKPBD0KABUtagRECT@@PAV1@IPAX@Z
	DD	FLAT:?CreateEx@CWnd@@UAEHKPBD0KHHHHPAUHWND__@@PAUHMENU__@@PAX@Z
	DD	FLAT:?DestroyWindow@CWnd@@UAEHXZ
	DD	FLAT:?PreCreateWindow@CWnd@@UAEHAAUtagCREATESTRUCTA@@@Z
	DD	FLAT:?CalcWindowRect@CWnd@@UAEXPAUtagRECT@@I@Z
	DD	FLAT:?GetMenu@CWnd@@UBEPAVCMenu@@XZ
	DD	FLAT:?SetMenu@CWnd@@UAEHPAVCMenu@@@Z
	DD	FLAT:?OnToolHitTest@CWnd@@UBEHVCPoint@@PAUtagTOOLINFOA@@@Z
	DD	FLAT:?GetScrollBarCtrl@CWnd@@UBEPAVCScrollBar@@H@Z
	DD	FLAT:?WinHelpA@CWnd@@UAEXKI@Z
	DD	FLAT:?HtmlHelpA@CWnd@@UAEXKI@Z
	DD	FLAT:?WinHelpInternal@CWnd@@UAEXKI@Z
	DD	FLAT:?ContinueModal@CWnd@@UAEHXZ
	DD	FLAT:?EndModalLoop@CWnd@@UAEXH@Z
	DD	FLAT:?OnDrawIconicThumbnailOrLivePreview@CWnd@@UAEXAAVCDC@@VCRect@@VCSize@@HAAH@Z
	DD	FLAT:?EnsureStdObj@CWnd@@UAEJXZ
	DD	FLAT:?get_accParent@CWnd@@UAEJPAPAUIDispatch@@@Z
	DD	FLAT:?get_accChildCount@CWnd@@UAEJPAJ@Z
	DD	FLAT:?get_accChild@CWnd@@UAEJUtagVARIANT@@PAPAUIDispatch@@@Z
	DD	FLAT:?get_accName@CWnd@@UAEJUtagVARIANT@@PAPA_W@Z
	DD	FLAT:?get_accValue@CWnd@@UAEJUtagVARIANT@@PAPA_W@Z
	DD	FLAT:?get_accDescription@CWnd@@UAEJUtagVARIANT@@PAPA_W@Z
	DD	FLAT:?get_accRole@CWnd@@UAEJUtagVARIANT@@PAU2@@Z
	DD	FLAT:?get_accState@CWnd@@UAEJUtagVARIANT@@PAU2@@Z
	DD	FLAT:?get_accHelp@CWnd@@UAEJUtagVARIANT@@PAPA_W@Z
	DD	FLAT:?get_accHelpTopic@CWnd@@UAEJPAPA_WUtagVARIANT@@PAJ@Z
	DD	FLAT:?get_accKeyboardShortcut@CWnd@@UAEJUtagVARIANT@@PAPA_W@Z
	DD	FLAT:?get_accFocus@CWnd@@UAEJPAUtagVARIANT@@@Z
	DD	FLAT:?get_accSelection@CWnd@@UAEJPAUtagVARIANT@@@Z
	DD	FLAT:?get_accDefaultAction@CWnd@@UAEJUtagVARIANT@@PAPA_W@Z
	DD	FLAT:?accSelect@CWnd@@UAEJJUtagVARIANT@@@Z
	DD	FLAT:?accLocation@CWnd@@UAEJPAJ000UtagVARIANT@@@Z
	DD	FLAT:?accNavigate@CWnd@@UAEJJUtagVARIANT@@PAU2@@Z
	DD	FLAT:?accHitTest@CWnd@@UAEJJJPAUtagVARIANT@@@Z
	DD	FLAT:?accDoDefaultAction@CWnd@@UAEJUtagVARIANT@@@Z
	DD	FLAT:?put_accName@CWnd@@UAEJUtagVARIANT@@PA_W@Z
	DD	FLAT:?put_accValue@CWnd@@UAEJUtagVARIANT@@PA_W@Z
	DD	FLAT:?SetProxy@CWnd@@UAEJPAUIAccessibleProxy@@@Z
	DD	FLAT:?CreateAccessibleProxy@CWnd@@UAEJIJPAJ@Z
	DD	FLAT:?OnCommand@CWnd@@MAEHIJ@Z
	DD	FLAT:?OnNotify@CWnd@@MAEHIJPAJ@Z
	DD	FLAT:?GetSuperWndProcAddr@CWnd@@MAEPAP6GJPAUHWND__@@IIJ@ZXZ
	DD	FLAT:?DoDataExchange@CWnd@@MAEXPAVCDataExchange@@@Z
	DD	FLAT:?BeginModalState@CWnd@@UAEXXZ
	DD	FLAT:?EndModalState@CWnd@@UAEXXZ
	DD	FLAT:?PreTranslateMessage@CWnd@@UAEHPAUtagMSG@@@Z
	DD	FLAT:?OnAmbientProperty@CWnd@@UAEHPAVCOleControlSite@@JPAUtagVARIANT@@@Z
	DD	FLAT:?WindowProc@CWnd@@MAEJIIJ@Z
	DD	FLAT:?OnWndMsg@CWnd@@MAEHIIJPAJ@Z
	DD	FLAT:?DefWindowProcA@CWnd@@MAEJIIJ@Z
	DD	FLAT:?PostNcDestroy@CWnd@@MAEXXZ
	DD	FLAT:?OnChildNotify@CComboBox@@MAEHIIJPAJ@Z
	DD	FLAT:?OnTouchInputs@CWnd@@MAEHIPAUtagTOUCHINPUT@@@Z
	DD	FLAT:?OnTouchInput@CWnd@@MAEHVCPoint@@HHPAUtagTOUCHINPUT@@@Z
	DD	FLAT:?GetGestureStatus@CWnd@@MAEKVCPoint@@@Z
	DD	FLAT:?OnGestureZoom@CWnd@@MAEHVCPoint@@J@Z
	DD	FLAT:?OnGesturePan@CWnd@@MAEHVCPoint@@0@Z
	DD	FLAT:?OnGestureRotate@CWnd@@MAEHVCPoint@@N@Z
	DD	FLAT:?OnGestureTwoFingerTap@CWnd@@MAEHVCPoint@@@Z
	DD	FLAT:?OnGesturePressAndTap@CWnd@@MAEHVCPoint@@J@Z
	DD	FLAT:?ResizeDynamicLayout@CWnd@@MAEXXZ
	DD	FLAT:?CheckAutoCenter@CWnd@@UAEHXZ
	DD	FLAT:?IsFrameWnd@CWnd@@UBEHXZ
	DD	FLAT:?CreateControlContainer@CWnd@@MAEHPAPAVCOleControlContainer@@@Z
	DD	FLAT:?CreateControlSite@CWnd@@MAEHPAVCOleControlContainer@@PAPAVCOleControlSite@@IABU_GUID@@@Z
	DD	FLAT:?SetOccDialogInfo@CWnd@@MAEHPAU_AFX_OCC_DIALOG_INFO@@@Z
	DD	FLAT:?GetOccDialogInfo@CWnd@@MAEPAU_AFX_OCC_DIALOG_INFO@@XZ
	DD	FLAT:?Create@CComboBox@@UAEHKABUtagRECT@@PAVCWnd@@I@Z
	DD	FLAT:?DrawItem@CComboBox@@UAEXPAUtagDRAWITEMSTRUCT@@@Z
	DD	FLAT:?MeasureItem@CComboBox@@UAEXPAUtagMEASUREITEMSTRUCT@@@Z
	DD	FLAT:?CompareItem@CComboBox@@UAEHPAUtagCOMPAREITEMSTRUCT@@@Z
	DD	FLAT:?DeleteItem@CComboBox@@UAEXPAUtagDELETEITEMSTRUCT@@@Z
CONST	ENDS
;	COMDAT ??_7CButton@@6B@
CONST	SEGMENT
??_7CButton@@6B@ DD FLAT:??_R4CButton@@6B@		; CButton::`vftable'
	DD	FLAT:?GetRuntimeClass@CButton@@UBEPAUCRuntimeClass@@XZ
	DD	FLAT:??_ECButton@@UAEPAXI@Z
	DD	FLAT:?Serialize@CObject@@UAEXAAVCArchive@@@Z
	DD	FLAT:?AssertValid@CObject@@UBEXXZ
	DD	FLAT:?Dump@CObject@@UBEXAAVCDumpContext@@@Z
	DD	FLAT:?OnCmdMsg@CCmdTarget@@UAEHIHPAXPAUAFX_CMDHANDLERINFO@@@Z
	DD	FLAT:?OnFinalRelease@CWnd@@UAEXXZ
	DD	FLAT:?IsInvokeAllowed@CCmdTarget@@UAEHJ@Z
	DD	FLAT:?GetDispatchIID@CCmdTarget@@UAEHPAU_GUID@@@Z
	DD	FLAT:?GetTypeInfoCount@CCmdTarget@@UAEIXZ
	DD	FLAT:?GetTypeLibCache@CCmdTarget@@UAEPAVCTypeLibCache@@XZ
	DD	FLAT:?GetTypeLib@CCmdTarget@@UAEJKPAPAUITypeLib@@@Z
	DD	FLAT:?GetMessageMap@CWnd@@MBEPBUAFX_MSGMAP@@XZ
	DD	FLAT:?GetCommandMap@CCmdTarget@@MBEPBUAFX_OLECMDMAP@@XZ
	DD	FLAT:?GetDispatchMap@CCmdTarget@@MBEPBUAFX_DISPMAP@@XZ
	DD	FLAT:?GetConnectionMap@CCmdTarget@@MBEPBUAFX_CONNECTIONMAP@@XZ
	DD	FLAT:?GetInterfaceMap@CWnd@@MBEPBUAFX_INTERFACEMAP@@XZ
	DD	FLAT:?GetEventSinkMap@CCmdTarget@@MBEPBUAFX_EVENTSINKMAP@@XZ
	DD	FLAT:?OnCreateAggregates@CCmdTarget@@UAEHXZ
	DD	FLAT:?GetInterfaceHook@CCmdTarget@@UAEPAUIUnknown@@PBX@Z
	DD	FLAT:?GetExtraConnectionPoints@CCmdTarget@@MAEHPAVCPtrArray@@@Z
	DD	FLAT:?GetConnectionHook@CCmdTarget@@MAEPAUIConnectionPoint@@ABU_GUID@@@Z
	DD	FLAT:?PreSubclassWindow@CWnd@@UAEXXZ
	DD	FLAT:?Create@CWnd@@UAEHPBD0KABUtagRECT@@PAV1@IPAUCCreateContext@@@Z
	DD	FLAT:?CreateEx@CWnd@@UAEHKPBD0KABUtagRECT@@PAV1@IPAX@Z
	DD	FLAT:?CreateEx@CWnd@@UAEHKPBD0KHHHHPAUHWND__@@PAUHMENU__@@PAX@Z
	DD	FLAT:?DestroyWindow@CWnd@@UAEHXZ
	DD	FLAT:?PreCreateWindow@CWnd@@UAEHAAUtagCREATESTRUCTA@@@Z
	DD	FLAT:?CalcWindowRect@CWnd@@UAEXPAUtagRECT@@I@Z
	DD	FLAT:?GetMenu@CWnd@@UBEPAVCMenu@@XZ
	DD	FLAT:?SetMenu@CWnd@@UAEHPAVCMenu@@@Z
	DD	FLAT:?OnToolHitTest@CWnd@@UBEHVCPoint@@PAUtagTOOLINFOA@@@Z
	DD	FLAT:?GetScrollBarCtrl@CWnd@@UBEPAVCScrollBar@@H@Z
	DD	FLAT:?WinHelpA@CWnd@@UAEXKI@Z
	DD	FLAT:?HtmlHelpA@CWnd@@UAEXKI@Z
	DD	FLAT:?WinHelpInternal@CWnd@@UAEXKI@Z
	DD	FLAT:?ContinueModal@CWnd@@UAEHXZ
	DD	FLAT:?EndModalLoop@CWnd@@UAEXH@Z
	DD	FLAT:?OnDrawIconicThumbnailOrLivePreview@CWnd@@UAEXAAVCDC@@VCRect@@VCSize@@HAAH@Z
	DD	FLAT:?EnsureStdObj@CWnd@@UAEJXZ
	DD	FLAT:?get_accParent@CWnd@@UAEJPAPAUIDispatch@@@Z
	DD	FLAT:?get_accChildCount@CWnd@@UAEJPAJ@Z
	DD	FLAT:?get_accChild@CWnd@@UAEJUtagVARIANT@@PAPAUIDispatch@@@Z
	DD	FLAT:?get_accName@CWnd@@UAEJUtagVARIANT@@PAPA_W@Z
	DD	FLAT:?get_accValue@CWnd@@UAEJUtagVARIANT@@PAPA_W@Z
	DD	FLAT:?get_accDescription@CWnd@@UAEJUtagVARIANT@@PAPA_W@Z
	DD	FLAT:?get_accRole@CWnd@@UAEJUtagVARIANT@@PAU2@@Z
	DD	FLAT:?get_accState@CWnd@@UAEJUtagVARIANT@@PAU2@@Z
	DD	FLAT:?get_accHelp@CWnd@@UAEJUtagVARIANT@@PAPA_W@Z
	DD	FLAT:?get_accHelpTopic@CWnd@@UAEJPAPA_WUtagVARIANT@@PAJ@Z
	DD	FLAT:?get_accKeyboardShortcut@CWnd@@UAEJUtagVARIANT@@PAPA_W@Z
	DD	FLAT:?get_accFocus@CWnd@@UAEJPAUtagVARIANT@@@Z
	DD	FLAT:?get_accSelection@CWnd@@UAEJPAUtagVARIANT@@@Z
	DD	FLAT:?get_accDefaultAction@CWnd@@UAEJUtagVARIANT@@PAPA_W@Z
	DD	FLAT:?accSelect@CWnd@@UAEJJUtagVARIANT@@@Z
	DD	FLAT:?accLocation@CWnd@@UAEJPAJ000UtagVARIANT@@@Z
	DD	FLAT:?accNavigate@CWnd@@UAEJJUtagVARIANT@@PAU2@@Z
	DD	FLAT:?accHitTest@CWnd@@UAEJJJPAUtagVARIANT@@@Z
	DD	FLAT:?accDoDefaultAction@CWnd@@UAEJUtagVARIANT@@@Z
	DD	FLAT:?put_accName@CWnd@@UAEJUtagVARIANT@@PA_W@Z
	DD	FLAT:?put_accValue@CWnd@@UAEJUtagVARIANT@@PA_W@Z
	DD	FLAT:?SetProxy@CWnd@@UAEJPAUIAccessibleProxy@@@Z
	DD	FLAT:?CreateAccessibleProxy@CWnd@@UAEJIJPAJ@Z
	DD	FLAT:?OnCommand@CWnd@@MAEHIJ@Z
	DD	FLAT:?OnNotify@CWnd@@MAEHIJPAJ@Z
	DD	FLAT:?GetSuperWndProcAddr@CWnd@@MAEPAP6GJPAUHWND__@@IIJ@ZXZ
	DD	FLAT:?DoDataExchange@CWnd@@MAEXPAVCDataExchange@@@Z
	DD	FLAT:?BeginModalState@CWnd@@UAEXXZ
	DD	FLAT:?EndModalState@CWnd@@UAEXXZ
	DD	FLAT:?PreTranslateMessage@CWnd@@UAEHPAUtagMSG@@@Z
	DD	FLAT:?OnAmbientProperty@CWnd@@UAEHPAVCOleControlSite@@JPAUtagVARIANT@@@Z
	DD	FLAT:?WindowProc@CWnd@@MAEJIIJ@Z
	DD	FLAT:?OnWndMsg@CWnd@@MAEHIIJPAJ@Z
	DD	FLAT:?DefWindowProcA@CWnd@@MAEJIIJ@Z
	DD	FLAT:?PostNcDestroy@CWnd@@MAEXXZ
	DD	FLAT:?OnChildNotify@CButton@@MAEHIIJPAJ@Z
	DD	FLAT:?OnTouchInputs@CWnd@@MAEHIPAUtagTOUCHINPUT@@@Z
	DD	FLAT:?OnTouchInput@CWnd@@MAEHVCPoint@@HHPAUtagTOUCHINPUT@@@Z
	DD	FLAT:?GetGestureStatus@CWnd@@MAEKVCPoint@@@Z
	DD	FLAT:?OnGestureZoom@CWnd@@MAEHVCPoint@@J@Z
	DD	FLAT:?OnGesturePan@CWnd@@MAEHVCPoint@@0@Z
	DD	FLAT:?OnGestureRotate@CWnd@@MAEHVCPoint@@N@Z
	DD	FLAT:?OnGestureTwoFingerTap@CWnd@@MAEHVCPoint@@@Z
	DD	FLAT:?OnGesturePressAndTap@CWnd@@MAEHVCPoint@@J@Z
	DD	FLAT:?ResizeDynamicLayout@CWnd@@MAEXXZ
	DD	FLAT:?CheckAutoCenter@CWnd@@UAEHXZ
	DD	FLAT:?IsFrameWnd@CWnd@@UBEHXZ
	DD	FLAT:?CreateControlContainer@CWnd@@MAEHPAPAVCOleControlContainer@@@Z
	DD	FLAT:?CreateControlSite@CWnd@@MAEHPAVCOleControlContainer@@PAPAVCOleControlSite@@IABU_GUID@@@Z
	DD	FLAT:?SetOccDialogInfo@CWnd@@MAEHPAU_AFX_OCC_DIALOG_INFO@@@Z
	DD	FLAT:?GetOccDialogInfo@CWnd@@MAEPAU_AFX_OCC_DIALOG_INFO@@XZ
	DD	FLAT:?Create@CButton@@UAEHPBDKABUtagRECT@@PAVCWnd@@I@Z
	DD	FLAT:?DrawItem@CButton@@UAEXPAUtagDRAWITEMSTRUCT@@@Z
CONST	ENDS
;	COMDAT ??_C@_00CNPNBAHC@@
CONST	SEGMENT
??_C@_00CNPNBAHC@@ DB 00H				; `string'
CONST	ENDS
;	COMDAT xdata$x
xdata$x	SEGMENT
__unwindtable$??_GCDlgMainTabBaseEnvSetUp@@UAEPAXI@Z DD 0ffffffffH
	DD	FLAT:___std_terminate
__ehfuncinfo$??_GCDlgMainTabBaseEnvSetUp@@UAEPAXI@Z DD 019930522H
	DD	01H
	DD	FLAT:__unwindtable$??_GCDlgMainTabBaseEnvSetUp@@UAEPAXI@Z
	DD	2 DUP(00H)
	DD	2 DUP(00H)
	DD	00H
	DD	05H
xdata$x	ENDS
;	COMDAT xdata$x
xdata$x	SEGMENT
__unwindtable$?SetUpDownSpace@CDlgMainTabBaseEnvSetUp@@IAEXH@Z DD 0ffffffffH
	DD	FLAT:__unwindfunclet$?SetUpDownSpace@CDlgMainTabBaseEnvSetUp@@IAEXH@Z$0
	DD	0ffffffffH
	DD	FLAT:___std_terminate
__ehfuncinfo$?SetUpDownSpace@CDlgMainTabBaseEnvSetUp@@IAEXH@Z DD 019930522H
	DD	02H
	DD	FLAT:__unwindtable$?SetUpDownSpace@CDlgMainTabBaseEnvSetUp@@IAEXH@Z
	DD	2 DUP(00H)
	DD	2 DUP(00H)
	DD	00H
	DD	01H
xdata$x	ENDS
;	COMDAT xdata$x
xdata$x	SEGMENT
__unwindtable$?SetShowLH_LC_HC@CDlgMainTabBaseEnvSetUp@@IAEXH@Z DD 0ffffffffH
	DD	FLAT:__unwindfunclet$?SetShowLH_LC_HC@CDlgMainTabBaseEnvSetUp@@IAEXH@Z$0
	DD	00H
	DD	FLAT:__unwindfunclet$?SetShowLH_LC_HC@CDlgMainTabBaseEnvSetUp@@IAEXH@Z$1
	DD	00H
	DD	FLAT:___std_terminate
__ehfuncinfo$?SetShowLH_LC_HC@CDlgMainTabBaseEnvSetUp@@IAEXH@Z DD 019930522H
	DD	03H
	DD	FLAT:__unwindtable$?SetShowLH_LC_HC@CDlgMainTabBaseEnvSetUp@@IAEXH@Z
	DD	2 DUP(00H)
	DD	2 DUP(00H)
	DD	00H
	DD	01H
xdata$x	ENDS
;	COMDAT xdata$x
xdata$x	SEGMENT
__unwindtable$?SetShowCurrentPrice@CDlgMainTabBaseEnvSetUp@@IAEXH@Z DD 0ffffffffH
	DD	FLAT:__unwindfunclet$?SetShowCurrentPrice@CDlgMainTabBaseEnvSetUp@@IAEXH@Z$0
	DD	00H
	DD	FLAT:__unwindfunclet$?SetShowCurrentPrice@CDlgMainTabBaseEnvSetUp@@IAEXH@Z$1
	DD	00H
	DD	FLAT:___std_terminate
__ehfuncinfo$?SetShowCurrentPrice@CDlgMainTabBaseEnvSetUp@@IAEXH@Z DD 019930522H
	DD	03H
	DD	FLAT:__unwindtable$?SetShowCurrentPrice@CDlgMainTabBaseEnvSetUp@@IAEXH@Z
	DD	2 DUP(00H)
	DD	2 DUP(00H)
	DD	00H
	DD	01H
xdata$x	ENDS
;	COMDAT xdata$x
xdata$x	SEGMENT
__unwindtable$?SetShowExRightDividend@CDlgMainTabBaseEnvSetUp@@IAEX_N@Z DD 0ffffffffH
	DD	FLAT:__unwindfunclet$?SetShowExRightDividend@CDlgMainTabBaseEnvSetUp@@IAEX_N@Z$0
	DD	0ffffffffH
	DD	FLAT:___std_terminate
__ehfuncinfo$?SetShowExRightDividend@CDlgMainTabBaseEnvSetUp@@IAEX_N@Z DD 019930522H
	DD	02H
	DD	FLAT:__unwindtable$?SetShowExRightDividend@CDlgMainTabBaseEnvSetUp@@IAEX_N@Z
	DD	2 DUP(00H)
	DD	2 DUP(00H)
	DD	00H
	DD	01H
xdata$x	ENDS
;	COMDAT xdata$x
xdata$x	SEGMENT
__unwindtable$?EnableCurPrice@CDlgMainTabBaseEnvSetUp@@AAEXXZ DD 0ffffffffH
	DD	FLAT:__unwindfunclet$?EnableCurPrice@CDlgMainTabBaseEnvSetUp@@AAEXXZ$0
__ehfuncinfo$?EnableCurPrice@CDlgMainTabBaseEnvSetUp@@AAEXXZ DD 019930522H
	DD	01H
	DD	FLAT:__unwindtable$?EnableCurPrice@CDlgMainTabBaseEnvSetUp@@AAEXXZ
	DD	2 DUP(00H)
	DD	2 DUP(00H)
	DD	00H
	DD	01H
xdata$x	ENDS
;	COMDAT xdata$x
xdata$x	SEGMENT
__unwindtable$?EnableShowExRightDividend@CDlgMainTabBaseEnvSetUp@@AAEXXZ DD 0ffffffffH
	DD	FLAT:__unwindfunclet$?EnableShowExRightDividend@CDlgMainTabBaseEnvSetUp@@AAEXXZ$0
	DD	0ffffffffH
	DD	FLAT:___std_terminate
__ehfuncinfo$?EnableShowExRightDividend@CDlgMainTabBaseEnvSetUp@@AAEXXZ DD 019930522H
	DD	02H
	DD	FLAT:__unwindtable$?EnableShowExRightDividend@CDlgMainTabBaseEnvSetUp@@AAEXXZ
	DD	2 DUP(00H)
	DD	2 DUP(00H)
	DD	00H
	DD	01H
xdata$x	ENDS
;	COMDAT xdata$x
xdata$x	SEGMENT
__unwindtable$?OnInitDialog@CDlgMainTabBaseEnvSetUp@@MAEHXZ DD 0ffffffffH
	DD	FLAT:__unwindfunclet$?OnInitDialog@CDlgMainTabBaseEnvSetUp@@MAEHXZ$0
	DD	00H
	DD	FLAT:__unwindfunclet$?OnInitDialog@CDlgMainTabBaseEnvSetUp@@MAEHXZ$1
	DD	00H
	DD	FLAT:___std_terminate
	DD	0ffffffffH
	DD	FLAT:___std_terminate
__ehfuncinfo$?OnInitDialog@CDlgMainTabBaseEnvSetUp@@MAEHXZ DD 019930522H
	DD	04H
	DD	FLAT:__unwindtable$?OnInitDialog@CDlgMainTabBaseEnvSetUp@@MAEHXZ
	DD	2 DUP(00H)
	DD	2 DUP(00H)
	DD	00H
	DD	01H
xdata$x	ENDS
;	COMDAT xdata$x
xdata$x	SEGMENT
__unwindtable$?PreView@CDlgMainTabBaseEnvSetUp@@QAEXXZ DD 0ffffffffH
	DD	FLAT:__unwindfunclet$?PreView@CDlgMainTabBaseEnvSetUp@@QAEXXZ$0
	DD	00H
	DD	FLAT:__unwindfunclet$?PreView@CDlgMainTabBaseEnvSetUp@@QAEXXZ$1
	DD	00H
	DD	FLAT:__unwindfunclet$?PreView@CDlgMainTabBaseEnvSetUp@@QAEXXZ$2
__ehfuncinfo$?PreView@CDlgMainTabBaseEnvSetUp@@QAEXXZ DD 019930522H
	DD	03H
	DD	FLAT:__unwindtable$?PreView@CDlgMainTabBaseEnvSetUp@@QAEXXZ
	DD	2 DUP(00H)
	DD	2 DUP(00H)
	DD	00H
	DD	01H
xdata$x	ENDS
;	COMDAT xdata$x
xdata$x	SEGMENT
__unwindtable$?Save@CDlgMainTabBaseEnvSetUp@@QAEXXZ DD 0ffffffffH
	DD	FLAT:__unwindfunclet$?Save@CDlgMainTabBaseEnvSetUp@@QAEXXZ$0
	DD	00H
	DD	FLAT:__unwindfunclet$?Save@CDlgMainTabBaseEnvSetUp@@QAEXXZ$1
	DD	00H
	DD	FLAT:__unwindfunclet$?Save@CDlgMainTabBaseEnvSetUp@@QAEXXZ$2
__ehfuncinfo$?Save@CDlgMainTabBaseEnvSetUp@@QAEXXZ DD 019930522H
	DD	03H
	DD	FLAT:__unwindtable$?Save@CDlgMainTabBaseEnvSetUp@@QAEXXZ
	DD	2 DUP(00H)
	DD	2 DUP(00H)
	DD	00H
	DD	01H
xdata$x	ENDS
;	COMDAT xdata$x
xdata$x	SEGMENT
__unwindtable$?Recover@CDlgMainTabBaseEnvSetUp@@QAEXXZ DD 0ffffffffH
	DD	FLAT:__unwindfunclet$?Recover@CDlgMainTabBaseEnvSetUp@@QAEXXZ$0
	DD	00H
	DD	FLAT:__unwindfunclet$?Recover@CDlgMainTabBaseEnvSetUp@@QAEXXZ$1
	DD	00H
	DD	FLAT:__unwindfunclet$?Recover@CDlgMainTabBaseEnvSetUp@@QAEXXZ$2
__ehfuncinfo$?Recover@CDlgMainTabBaseEnvSetUp@@QAEXXZ DD 019930522H
	DD	03H
	DD	FLAT:__unwindtable$?Recover@CDlgMainTabBaseEnvSetUp@@QAEXXZ
	DD	2 DUP(00H)
	DD	2 DUP(00H)
	DD	00H
	DD	01H
xdata$x	ENDS
;	COMDAT xdata$x
xdata$x	SEGMENT
__ehfuncinfo$??1CDlgMainTabBaseEnvSetUp@@UAE@XZ DD 019930522H
	DD	00H
	DD	00H
	DD	2 DUP(00H)
	DD	2 DUP(00H)
	DD	00H
	DD	05H
xdata$x	ENDS
;	COMDAT xdata$x
xdata$x	SEGMENT
__ehfuncinfo$??0CDlgMainTabBaseEnvSetUp@@QAE@PAUIChartOCX135914@@PAVCWnd@@H@Z DD 019930522H
	DD	014H
	DD	FLAT:__unwindtable$??0CDlgMainTabBaseEnvSetUp@@QAE@PAUIChartOCX135914@@PAVCWnd@@H@Z
	DD	2 DUP(00H)
	DD	2 DUP(00H)
	DD	00H
	DD	01H
__unwindtable$??0CDlgMainTabBaseEnvSetUp@@QAE@PAUIChartOCX135914@@PAVCWnd@@H@Z DD 0ffffffffH
	DD	FLAT:__unwindfunclet$??0CDlgMainTabBaseEnvSetUp@@QAE@PAUIChartOCX135914@@PAVCWnd@@H@Z$0
	DD	00H
	DD	FLAT:__unwindfunclet$??0CDlgMainTabBaseEnvSetUp@@QAE@PAUIChartOCX135914@@PAVCWnd@@H@Z$1
	DD	01H
	DD	FLAT:__unwindfunclet$??0CDlgMainTabBaseEnvSetUp@@QAE@PAUIChartOCX135914@@PAVCWnd@@H@Z$2
	DD	02H
	DD	FLAT:__unwindfunclet$??0CDlgMainTabBaseEnvSetUp@@QAE@PAUIChartOCX135914@@PAVCWnd@@H@Z$3
	DD	03H
	DD	FLAT:__unwindfunclet$??0CDlgMainTabBaseEnvSetUp@@QAE@PAUIChartOCX135914@@PAVCWnd@@H@Z$4
	DD	04H
	DD	FLAT:__unwindfunclet$??0CDlgMainTabBaseEnvSetUp@@QAE@PAUIChartOCX135914@@PAVCWnd@@H@Z$5
	DD	05H
	DD	FLAT:__unwindfunclet$??0CDlgMainTabBaseEnvSetUp@@QAE@PAUIChartOCX135914@@PAVCWnd@@H@Z$6
	DD	06H
	DD	FLAT:__unwindfunclet$??0CDlgMainTabBaseEnvSetUp@@QAE@PAUIChartOCX135914@@PAVCWnd@@H@Z$7
	DD	07H
	DD	FLAT:__unwindfunclet$??0CDlgMainTabBaseEnvSetUp@@QAE@PAUIChartOCX135914@@PAVCWnd@@H@Z$8
	DD	08H
	DD	FLAT:__unwindfunclet$??0CDlgMainTabBaseEnvSetUp@@QAE@PAUIChartOCX135914@@PAVCWnd@@H@Z$9
	DD	09H
	DD	FLAT:__unwindfunclet$??0CDlgMainTabBaseEnvSetUp@@QAE@PAUIChartOCX135914@@PAVCWnd@@H@Z$10
	DD	0aH
	DD	FLAT:__unwindfunclet$??0CDlgMainTabBaseEnvSetUp@@QAE@PAUIChartOCX135914@@PAVCWnd@@H@Z$11
	DD	0bH
	DD	FLAT:__unwindfunclet$??0CDlgMainTabBaseEnvSetUp@@QAE@PAUIChartOCX135914@@PAVCWnd@@H@Z$12
	DD	0cH
	DD	FLAT:__unwindfunclet$??0CDlgMainTabBaseEnvSetUp@@QAE@PAUIChartOCX135914@@PAVCWnd@@H@Z$13
	DD	0dH
	DD	FLAT:__unwindfunclet$??0CDlgMainTabBaseEnvSetUp@@QAE@PAUIChartOCX135914@@PAVCWnd@@H@Z$14
	DD	0eH
	DD	FLAT:__unwindfunclet$??0CDlgMainTabBaseEnvSetUp@@QAE@PAUIChartOCX135914@@PAVCWnd@@H@Z$15
	DD	0fH
	DD	FLAT:__unwindfunclet$??0CDlgMainTabBaseEnvSetUp@@QAE@PAUIChartOCX135914@@PAVCWnd@@H@Z$16
	DD	010H
	DD	FLAT:__unwindfunclet$??0CDlgMainTabBaseEnvSetUp@@QAE@PAUIChartOCX135914@@PAVCWnd@@H@Z$17
	DD	011H
	DD	FLAT:__unwindfunclet$??0CDlgMainTabBaseEnvSetUp@@QAE@PAUIChartOCX135914@@PAVCWnd@@H@Z$18
	DD	010H
	DD	FLAT:___std_terminate
xdata$x	ENDS
;	COMDAT xdata$x
xdata$x	SEGMENT
__ehfuncinfo$??1ILPCSTR135914@@QAE@XZ DD 019930522H
	DD	00H
	DD	00H
	DD	2 DUP(00H)
	DD	2 DUP(00H)
	DD	00H
	DD	05H
xdata$x	ENDS
; Function compile flags: /Ogtp
; File D:\git\src\IBK\IBK_DRFN\ProjSrc\SrcChartEx\ChartAddIn\ChartEnvSetupDlgAddIn\ChartEnvSetupDlgAddIn\DlgMainTabBaseEnvSetUp.cpp
; File C:\Program Files (x86)\Microsoft Visual Studio\2019\Community\VC\Tools\MSVC\14.29.30133\atlmfc\include\afx.inl
;	COMDAT ??_GCDlgMainTabBaseEnvSetUp@@UAEPAXI@Z
_TEXT	SEGMENT
__$EHRec$ = -12						; size = 12
___flags$ = 8						; size = 4
??_GCDlgMainTabBaseEnvSetUp@@UAEPAXI@Z PROC		; CDlgMainTabBaseEnvSetUp::`scalar deleting destructor', COMDAT
; _this$ = ecx
  00000	55		 push	 ebp
  00001	8b ec		 mov	 ebp, esp
  00003	6a ff		 push	 -1
  00005	68 00 00 00 00	 push	 __ehhandler$??_GCDlgMainTabBaseEnvSetUp@@UAEPAXI@Z
  0000a	64 a1 00 00 00
	00		 mov	 eax, DWORD PTR fs:0
  00010	50		 push	 eax
  00011	56		 push	 esi
  00012	a1 00 00 00 00	 mov	 eax, DWORD PTR ___security_cookie
  00017	33 c5		 xor	 eax, ebp
  00019	50		 push	 eax
  0001a	8d 45 f4	 lea	 eax, DWORD PTR __$EHRec$[ebp]
  0001d	64 a3 00 00 00
	00		 mov	 DWORD PTR fs:0, eax
  00023	8b f1		 mov	 esi, ecx
; File D:\git\src\IBK\IBK_DRFN\ProjSrc\SrcChartEx\ChartAddIn\ChartEnvSetupDlgAddIn\ChartEnvSetupDlgAddIn\DlgMainTabBaseEnvSetUp.cpp

; 83   : 	if( m_pIChartOCX)

  00025	8b 8e d8 09 00
	00		 mov	 ecx, DWORD PTR [esi+2520]
  0002b	c7 45 fc 00 00
	00 00		 mov	 DWORD PTR __$EHRec$[ebp+8], 0
  00032	c7 06 00 00 00
	00		 mov	 DWORD PTR [esi], OFFSET ??_7CDlgMainTabBaseEnvSetUp@@6B@
  00038	85 c9		 test	 ecx, ecx
  0003a	74 10		 je	 SHORT $LN8@scalar

; 84   : 	{
; 85   : 		m_pIChartOCX->Release();

  0003c	8b 01		 mov	 eax, DWORD PTR [ecx]
  0003e	51		 push	 ecx
  0003f	ff 50 08	 call	 DWORD PTR [eax+8]

; 86   : 		m_pIChartOCX = NULL;

  00042	c7 86 d8 09 00
	00 00 00 00 00	 mov	 DWORD PTR [esi+2520], 0
$LN8@scalar:

; 87   : 	}
; 88   : }

  0004c	8d 8e dc 09 00
	00		 lea	 ecx, DWORD PTR [esi+2524]
  00052	e8 00 00 00 00	 call	 ??1COutsideCommonInterfaceFunction@@UAE@XZ ; COutsideCommonInterfaceFunction::~COutsideCommonInterfaceFunction
  00057	8d 8e a0 08 00
	00		 lea	 ecx, DWORD PTR [esi+2208]
  0005d	e8 00 00 00 00	 call	 ??1CButton@@UAE@XZ	; CButton::~CButton
  00062	8d 8e 20 08 00
	00		 lea	 ecx, DWORD PTR [esi+2080]
  00068	e8 00 00 00 00	 call	 ??1CButton@@UAE@XZ	; CButton::~CButton
  0006d	8d 8e a0 07 00
	00		 lea	 ecx, DWORD PTR [esi+1952]
  00073	e8 00 00 00 00	 call	 ??1CButton@@UAE@XZ	; CButton::~CButton
  00078	8d 8e 20 07 00
	00		 lea	 ecx, DWORD PTR [esi+1824]
  0007e	e8 00 00 00 00	 call	 ??1CButton@@UAE@XZ	; CButton::~CButton
  00083	8d 8e a0 06 00
	00		 lea	 ecx, DWORD PTR [esi+1696]
  00089	e8 00 00 00 00	 call	 ??1CButton@@UAE@XZ	; CButton::~CButton
  0008e	8d 8e 20 06 00
	00		 lea	 ecx, DWORD PTR [esi+1568]
  00094	e8 00 00 00 00	 call	 ??1CButton@@UAE@XZ	; CButton::~CButton
  00099	8d 8e a0 05 00
	00		 lea	 ecx, DWORD PTR [esi+1440]
  0009f	e8 00 00 00 00	 call	 ??1CButton@@UAE@XZ	; CButton::~CButton
  000a4	8d 8e 10 05 00
	00		 lea	 ecx, DWORD PTR [esi+1296]
  000aa	e8 00 00 00 00	 call	 ??1CComboBox@@UAE@XZ	; CComboBox::~CComboBox
  000af	8d 8e 70 04 00
	00		 lea	 ecx, DWORD PTR [esi+1136]
  000b5	e8 00 00 00 00	 call	 ??1CNumSpinCtrl@@UAE@XZ	; CNumSpinCtrl::~CNumSpinCtrl
  000ba	8d 8e c8 03 00
	00		 lea	 ecx, DWORD PTR [esi+968]
  000c0	e8 00 00 00 00	 call	 ??1CNumEdit@@UAE@XZ	; CNumEdit::~CNumEdit
  000c5	8d 8e f8 02 00
	00		 lea	 ecx, DWORD PTR [esi+760]
  000cb	e8 00 00 00 00	 call	 ??1CColorButton@@UAE@XZ	; CColorButton::~CColorButton
  000d0	8d 8e 50 02 00
	00		 lea	 ecx, DWORD PTR [esi+592]
  000d6	e8 00 00 00 00	 call	 ??1CNumEdit@@UAE@XZ	; CNumEdit::~CNumEdit
  000db	8d 8e d0 01 00
	00		 lea	 ecx, DWORD PTR [esi+464]
  000e1	e8 00 00 00 00	 call	 ??1CNumSpinCtrl@@UAE@XZ	; CNumSpinCtrl::~CNumSpinCtrl
  000e6	8d 8e 28 01 00
	00		 lea	 ecx, DWORD PTR [esi+296]
  000ec	e8 00 00 00 00	 call	 ??1CNumEdit@@UAE@XZ	; CNumEdit::~CNumEdit
  000f1	8d 8e a8 00 00
	00		 lea	 ecx, DWORD PTR [esi+168]
  000f7	e8 00 00 00 00	 call	 ??1CNumSpinCtrl@@UAE@XZ	; CNumSpinCtrl::~CNumSpinCtrl
  000fc	8b ce		 mov	 ecx, esi
  000fe	e8 00 00 00 00	 call	 ??1CDialog@@UAE@XZ	; CDialog::~CDialog
  00103	8b 45 08	 mov	 eax, DWORD PTR ___flags$[ebp]
  00106	a8 01		 test	 al, 1
  00108	74 2f		 je	 SHORT $LN16@scalar
  0010a	a8 04		 test	 al, 4
  0010c	75 1d		 jne	 SHORT $LN3@scalar
; File C:\Program Files (x86)\Microsoft Visual Studio\2019\Community\VC\Tools\MSVC\14.29.30133\atlmfc\include\afx.inl

; 112  : 	{ ::operator delete(p); }

  0010e	56		 push	 esi
  0010f	e8 00 00 00 00	 call	 ??3@YAXPAX@Z		; operator delete
  00114	83 c4 04	 add	 esp, 4
  00117	8b c6		 mov	 eax, esi
  00119	8b 4d f4	 mov	 ecx, DWORD PTR __$EHRec$[ebp]
  0011c	64 89 0d 00 00
	00 00		 mov	 DWORD PTR fs:0, ecx
  00123	59		 pop	 ecx
  00124	5e		 pop	 esi
  00125	8b e5		 mov	 esp, ebp
  00127	5d		 pop	 ebp
  00128	c2 04 00	 ret	 4
$LN3@scalar:
  0012b	68 10 0a 00 00	 push	 2576			; 00000a10H
  00130	56		 push	 esi
  00131	e8 00 00 00 00	 call	 ?__global_delete@@YAXPAXI@Z ; __global_delete
  00136	83 c4 08	 add	 esp, 8
$LN16@scalar:
  00139	8b c6		 mov	 eax, esi
  0013b	8b 4d f4	 mov	 ecx, DWORD PTR __$EHRec$[ebp]
  0013e	64 89 0d 00 00
	00 00		 mov	 DWORD PTR fs:0, ecx
  00145	59		 pop	 ecx
  00146	5e		 pop	 esi
  00147	8b e5		 mov	 esp, ebp
  00149	5d		 pop	 ebp
  0014a	c2 04 00	 ret	 4
  0014d	cc		 int	 3
  0014e	cc		 int	 3
  0014f	cc		 int	 3
  00150	cc		 int	 3
  00151	cc		 int	 3
_TEXT	ENDS
;	COMDAT text$x
text$x	SEGMENT
__ehhandler$??_GCDlgMainTabBaseEnvSetUp@@UAEPAXI@Z:
  00000	90		 npad	 1
  00001	90		 npad	 1
  00002	8b 54 24 08	 mov	 edx, DWORD PTR [esp+8]
  00006	8d 42 0c	 lea	 eax, DWORD PTR [edx+12]
  00009	8b 4a f8	 mov	 ecx, DWORD PTR [edx-8]
  0000c	33 c8		 xor	 ecx, eax
  0000e	e8 00 00 00 00	 call	 @__security_check_cookie@4
  00013	b8 00 00 00 00	 mov	 eax, OFFSET __ehfuncinfo$??_GCDlgMainTabBaseEnvSetUp@@UAEPAXI@Z
  00018	e9 00 00 00 00	 jmp	 ___CxxFrameHandler3
text$x	ENDS
??_GCDlgMainTabBaseEnvSetUp@@UAEPAXI@Z ENDP		; CDlgMainTabBaseEnvSetUp::`scalar deleting destructor'
; Function compile flags: /Ogtp
; File D:\git\src\IBK\IBK_DRFN\ProjSrc\SrcChartEx\ChartAddIn\ChartEnvSetupDlgAddIn\ChartEnvSetupDlgAddIn\DlgMainTabBaseEnvSetUp.cpp
; File C:\Program Files (x86)\Microsoft Visual Studio\2019\Community\VC\Tools\MSVC\14.29.30133\atlmfc\include\afxwin2.inl
; File D:\git\src\IBK\IBK_DRFN\ProjSrc\SrcChartEx\ChartAddIn\ChartEnvSetupDlgAddIn\ChartEnvSetupDlgAddIn\DlgMainTabBaseEnvSetUp.cpp
; File C:\Program Files (x86)\Microsoft Visual Studio\2019\Community\VC\Tools\MSVC\14.29.30133\atlmfc\include\afxwin2.inl
; File D:\git\src\IBK\IBK_DRFN\ProjSrc\SrcChartEx\ChartAddIn\ChartEnvSetupDlgAddIn\ChartEnvSetupDlgAddIn\DlgMainTabBaseEnvSetUp.cpp
; File C:\Program Files (x86)\Microsoft Visual Studio\2019\Community\VC\Tools\MSVC\14.29.30133\atlmfc\include\afxwin2.inl
; File D:\git\src\IBK\IBK_DRFN\ProjSrc\SrcChartEx\ChartAddIn\ChartEnvSetupDlgAddIn\ChartEnvSetupDlgAddIn\DlgMainTabBaseEnvSetUp.cpp
; File C:\Program Files (x86)\Microsoft Visual Studio\2019\Community\VC\Tools\MSVC\14.29.30133\atlmfc\include\afxwin2.inl
; File D:\git\src\IBK\IBK_DRFN\ProjSrc\SrcChartEx\ChartAddIn\ChartEnvSetupDlgAddIn\ChartEnvSetupDlgAddIn\DlgMainTabBaseEnvSetUp.cpp
; File C:\Program Files (x86)\Microsoft Visual Studio\2019\Community\VC\Tools\MSVC\14.29.30133\atlmfc\include\afxwin2.inl
; File D:\git\src\IBK\IBK_DRFN\ProjSrc\SrcChartEx\ChartAddIn\ChartEnvSetupDlgAddIn\ChartEnvSetupDlgAddIn\DlgMainTabBaseEnvSetUp.cpp
; File C:\Program Files (x86)\Microsoft Visual Studio\2019\Community\VC\Tools\MSVC\14.29.30133\atlmfc\include\afxwin2.inl
; File D:\git\src\IBK\IBK_DRFN\ProjSrc\SrcChartEx\ChartAddIn\ChartEnvSetupDlgAddIn\ChartEnvSetupDlgAddIn\DlgMainTabBaseEnvSetUp.cpp
; File C:\Program Files (x86)\Microsoft Visual Studio\2019\Community\VC\Tools\MSVC\14.29.30133\atlmfc\include\afxwin2.inl
; File D:\git\src\IBK\IBK_DRFN\ProjSrc\SrcChartEx\ChartAddIn\ChartEnvSetupDlgAddIn\ChartEnvSetupDlgAddIn\DlgMainTabBaseEnvSetUp.cpp
;	COMDAT ?SetTimeGubunGrid@CDlgMainTabBaseEnvSetUp@@IAEXXZ
_TEXT	SEGMENT
?SetTimeGubunGrid@CDlgMainTabBaseEnvSetUp@@IAEXXZ PROC	; CDlgMainTabBaseEnvSetUp::SetTimeGubunGrid, COMDAT
; _this$ = ecx

; 2109 : {

  00000	53		 push	 ebx
  00001	56		 push	 esi
  00002	8b d9		 mov	 ebx, ecx
  00004	57		 push	 edi

; 2110 : 	//KHD :      . , ....  .
; 2111 : 	//, Style Dlg     OCX   OCX          .
; 2112 : 	//Ex        .  
; 2113 : 	// Pixel   .
; 2114 : 	int nGridType = 3;
; 2115 : 	//KHD :         Check  .
; 2116 : 	nGridType = ((CDlgEnvSetUpAll *)m_pParentWnd)->GetGridTypeCombo(CScaleBaseData::MINTICK_DAY_GUBUN);

  00005	6a 00		 push	 0
  00007	8b 8b 94 00 00
	00		 mov	 ecx, DWORD PTR [ebx+148]
  0000d	e8 00 00 00 00	 call	 ?GetGridTypeCombo@CDlgEnvSetUpAll@@QAEHH@Z ; CDlgEnvSetUpAll::GetGridTypeCombo

; 2117 : 	m_pIChartOCX->SetAllHScaleGridType_TimeGubun(nGridType, ((CButton *)GetDlgItem(IDC_TICK_GUBUN))->GetCheck(), CScaleBaseData::MINTICK_DAY_GUBUN );

  00012	68 02 18 00 00	 push	 6146			; 00001802H
  00017	8b cb		 mov	 ecx, ebx
  00019	8b f0		 mov	 esi, eax
  0001b	e8 00 00 00 00	 call	 ?GetDlgItem@CWnd@@QBEPAV1@H@Z ; CWnd::GetDlgItem
; File C:\Program Files (x86)\Microsoft Visual Studio\2019\Community\VC\Tools\MSVC\14.29.30133\atlmfc\include\afxwin2.inl

; 628  : 	{ ASSERT(::IsWindow(m_hWnd)); return (int)::SendMessage(m_hWnd, BM_GETCHECK, 0, 0); }

  00020	8b 3d 00 00 00
	00		 mov	 edi, DWORD PTR __imp__SendMessageA@16
  00026	6a 00		 push	 0
  00028	6a 00		 push	 0
  0002a	68 f0 00 00 00	 push	 240			; 000000f0H
  0002f	ff 70 20	 push	 DWORD PTR [eax+32]
  00032	ff d7		 call	 edi
; File D:\git\src\IBK\IBK_DRFN\ProjSrc\SrcChartEx\ChartAddIn\ChartEnvSetupDlgAddIn\ChartEnvSetupDlgAddIn\DlgMainTabBaseEnvSetUp.cpp

; 2117 : 	m_pIChartOCX->SetAllHScaleGridType_TimeGubun(nGridType, ((CButton *)GetDlgItem(IDC_TICK_GUBUN))->GetCheck(), CScaleBaseData::MINTICK_DAY_GUBUN );

  00034	8b 8b d8 09 00
	00		 mov	 ecx, DWORD PTR [ebx+2520]
  0003a	6a 00		 push	 0
  0003c	50		 push	 eax
  0003d	56		 push	 esi
  0003e	8b 11		 mov	 edx, DWORD PTR [ecx]
  00040	ff 92 4c 02 00
	00		 call	 DWORD PTR [edx+588]

; 2118 : 
; 2119 : 	nGridType = ((CDlgEnvSetUpAll *)m_pParentWnd)->GetGridTypeCombo(CScaleBaseData::DAYCHART_WEEK_GUBUN);

  00046	8b 8b 94 00 00
	00		 mov	 ecx, DWORD PTR [ebx+148]
  0004c	6a 01		 push	 1
  0004e	e8 00 00 00 00	 call	 ?GetGridTypeCombo@CDlgEnvSetUpAll@@QAEHH@Z ; CDlgEnvSetUpAll::GetGridTypeCombo

; 2120 : 	m_pIChartOCX->SetAllHScaleGridType_TimeGubun(nGridType, ((CButton *)GetDlgItem(IDC_DAY_WEEK_GUBUN))->GetCheck(), CScaleBaseData::DAYCHART_WEEK_GUBUN );

  00053	68 03 18 00 00	 push	 6147			; 00001803H
  00058	8b cb		 mov	 ecx, ebx
  0005a	8b f0		 mov	 esi, eax
  0005c	e8 00 00 00 00	 call	 ?GetDlgItem@CWnd@@QBEPAV1@H@Z ; CWnd::GetDlgItem
; File C:\Program Files (x86)\Microsoft Visual Studio\2019\Community\VC\Tools\MSVC\14.29.30133\atlmfc\include\afxwin2.inl

; 628  : 	{ ASSERT(::IsWindow(m_hWnd)); return (int)::SendMessage(m_hWnd, BM_GETCHECK, 0, 0); }

  00061	6a 00		 push	 0
  00063	6a 00		 push	 0
  00065	68 f0 00 00 00	 push	 240			; 000000f0H
  0006a	ff 70 20	 push	 DWORD PTR [eax+32]
  0006d	ff d7		 call	 edi
; File D:\git\src\IBK\IBK_DRFN\ProjSrc\SrcChartEx\ChartAddIn\ChartEnvSetupDlgAddIn\ChartEnvSetupDlgAddIn\DlgMainTabBaseEnvSetUp.cpp

; 2120 : 	m_pIChartOCX->SetAllHScaleGridType_TimeGubun(nGridType, ((CButton *)GetDlgItem(IDC_DAY_WEEK_GUBUN))->GetCheck(), CScaleBaseData::DAYCHART_WEEK_GUBUN );

  0006f	8b 8b d8 09 00
	00		 mov	 ecx, DWORD PTR [ebx+2520]
  00075	6a 01		 push	 1
  00077	50		 push	 eax
  00078	56		 push	 esi
  00079	8b 11		 mov	 edx, DWORD PTR [ecx]
  0007b	ff 92 4c 02 00
	00		 call	 DWORD PTR [edx+588]

; 2121 : 
; 2122 : 	nGridType = ((CDlgEnvSetUpAll *)m_pParentWnd)->GetGridTypeCombo(CScaleBaseData::DAYCHART_MON_GUBUN);

  00081	8b 8b 94 00 00
	00		 mov	 ecx, DWORD PTR [ebx+148]
  00087	6a 02		 push	 2
  00089	e8 00 00 00 00	 call	 ?GetGridTypeCombo@CDlgEnvSetUpAll@@QAEHH@Z ; CDlgEnvSetUpAll::GetGridTypeCombo

; 2123 : 	m_pIChartOCX->SetAllHScaleGridType_TimeGubun(nGridType, ((CButton *)GetDlgItem(IDC_DAY_MON_GUBUN))->GetCheck(), CScaleBaseData::DAYCHART_MON_GUBUN );

  0008e	68 04 18 00 00	 push	 6148			; 00001804H
  00093	8b cb		 mov	 ecx, ebx
  00095	8b f0		 mov	 esi, eax
  00097	e8 00 00 00 00	 call	 ?GetDlgItem@CWnd@@QBEPAV1@H@Z ; CWnd::GetDlgItem
; File C:\Program Files (x86)\Microsoft Visual Studio\2019\Community\VC\Tools\MSVC\14.29.30133\atlmfc\include\afxwin2.inl

; 628  : 	{ ASSERT(::IsWindow(m_hWnd)); return (int)::SendMessage(m_hWnd, BM_GETCHECK, 0, 0); }

  0009c	6a 00		 push	 0
  0009e	6a 00		 push	 0
  000a0	68 f0 00 00 00	 push	 240			; 000000f0H
  000a5	ff 70 20	 push	 DWORD PTR [eax+32]
  000a8	ff d7		 call	 edi
; File D:\git\src\IBK\IBK_DRFN\ProjSrc\SrcChartEx\ChartAddIn\ChartEnvSetupDlgAddIn\ChartEnvSetupDlgAddIn\DlgMainTabBaseEnvSetUp.cpp

; 2123 : 	m_pIChartOCX->SetAllHScaleGridType_TimeGubun(nGridType, ((CButton *)GetDlgItem(IDC_DAY_MON_GUBUN))->GetCheck(), CScaleBaseData::DAYCHART_MON_GUBUN );

  000aa	8b 8b d8 09 00
	00		 mov	 ecx, DWORD PTR [ebx+2520]
  000b0	6a 02		 push	 2
  000b2	50		 push	 eax
  000b3	56		 push	 esi
  000b4	8b 11		 mov	 edx, DWORD PTR [ecx]
  000b6	ff 92 4c 02 00
	00		 call	 DWORD PTR [edx+588]

; 2124 : 
; 2125 : 	nGridType = ((CDlgEnvSetUpAll *)m_pParentWnd)->GetGridTypeCombo(CScaleBaseData::DAYCHART_YEAR_GUBUN);

  000bc	8b 8b 94 00 00
	00		 mov	 ecx, DWORD PTR [ebx+148]
  000c2	6a 03		 push	 3
  000c4	e8 00 00 00 00	 call	 ?GetGridTypeCombo@CDlgEnvSetUpAll@@QAEHH@Z ; CDlgEnvSetUpAll::GetGridTypeCombo

; 2126 : 	m_pIChartOCX->SetAllHScaleGridType_TimeGubun(nGridType, ((CButton *)GetDlgItem(IDC_DAY_YEAR_GUBUN))->GetCheck(), CScaleBaseData::DAYCHART_YEAR_GUBUN );

  000c9	68 fe 17 00 00	 push	 6142			; 000017feH
  000ce	8b cb		 mov	 ecx, ebx
  000d0	8b f0		 mov	 esi, eax
  000d2	e8 00 00 00 00	 call	 ?GetDlgItem@CWnd@@QBEPAV1@H@Z ; CWnd::GetDlgItem
; File C:\Program Files (x86)\Microsoft Visual Studio\2019\Community\VC\Tools\MSVC\14.29.30133\atlmfc\include\afxwin2.inl

; 628  : 	{ ASSERT(::IsWindow(m_hWnd)); return (int)::SendMessage(m_hWnd, BM_GETCHECK, 0, 0); }

  000d7	6a 00		 push	 0
  000d9	6a 00		 push	 0
  000db	68 f0 00 00 00	 push	 240			; 000000f0H
  000e0	ff 70 20	 push	 DWORD PTR [eax+32]
  000e3	ff d7		 call	 edi
; File D:\git\src\IBK\IBK_DRFN\ProjSrc\SrcChartEx\ChartAddIn\ChartEnvSetupDlgAddIn\ChartEnvSetupDlgAddIn\DlgMainTabBaseEnvSetUp.cpp

; 2126 : 	m_pIChartOCX->SetAllHScaleGridType_TimeGubun(nGridType, ((CButton *)GetDlgItem(IDC_DAY_YEAR_GUBUN))->GetCheck(), CScaleBaseData::DAYCHART_YEAR_GUBUN );

  000e5	8b 8b d8 09 00
	00		 mov	 ecx, DWORD PTR [ebx+2520]
  000eb	6a 03		 push	 3
  000ed	50		 push	 eax
  000ee	56		 push	 esi
  000ef	8b 11		 mov	 edx, DWORD PTR [ecx]
  000f1	ff 92 4c 02 00
	00		 call	 DWORD PTR [edx+588]

; 2127 : 
; 2128 : 	nGridType = ((CDlgEnvSetUpAll *)m_pParentWnd)->GetGridTypeCombo(CScaleBaseData::WEEKCHART_MON_GUBUN);

  000f7	8b 8b 94 00 00
	00		 mov	 ecx, DWORD PTR [ebx+148]
  000fd	6a 04		 push	 4
  000ff	e8 00 00 00 00	 call	 ?GetGridTypeCombo@CDlgEnvSetUpAll@@QAEHH@Z ; CDlgEnvSetUpAll::GetGridTypeCombo
  00104	8b f0		 mov	 esi, eax

; 2129 : 	m_pIChartOCX->SetAllHScaleGridType_TimeGubun(nGridType, ((CButton *)GetDlgItem(IDC_WEEK_MON_GUBUN))->GetCheck(), CScaleBaseData::WEEKCHART_MON_GUBUN );

  00106	68 00 18 00 00	 push	 6144			; 00001800H
  0010b	8b cb		 mov	 ecx, ebx
  0010d	e8 00 00 00 00	 call	 ?GetDlgItem@CWnd@@QBEPAV1@H@Z ; CWnd::GetDlgItem
; File C:\Program Files (x86)\Microsoft Visual Studio\2019\Community\VC\Tools\MSVC\14.29.30133\atlmfc\include\afxwin2.inl

; 628  : 	{ ASSERT(::IsWindow(m_hWnd)); return (int)::SendMessage(m_hWnd, BM_GETCHECK, 0, 0); }

  00112	6a 00		 push	 0
  00114	6a 00		 push	 0
  00116	68 f0 00 00 00	 push	 240			; 000000f0H
  0011b	ff 70 20	 push	 DWORD PTR [eax+32]
  0011e	ff d7		 call	 edi
; File D:\git\src\IBK\IBK_DRFN\ProjSrc\SrcChartEx\ChartAddIn\ChartEnvSetupDlgAddIn\ChartEnvSetupDlgAddIn\DlgMainTabBaseEnvSetUp.cpp

; 2129 : 	m_pIChartOCX->SetAllHScaleGridType_TimeGubun(nGridType, ((CButton *)GetDlgItem(IDC_WEEK_MON_GUBUN))->GetCheck(), CScaleBaseData::WEEKCHART_MON_GUBUN );

  00120	8b 8b d8 09 00
	00		 mov	 ecx, DWORD PTR [ebx+2520]
  00126	6a 04		 push	 4
  00128	50		 push	 eax
  00129	56		 push	 esi
  0012a	8b 11		 mov	 edx, DWORD PTR [ecx]
  0012c	ff 92 4c 02 00
	00		 call	 DWORD PTR [edx+588]

; 2130 : 
; 2131 : 	nGridType = ((CDlgEnvSetUpAll *)m_pParentWnd)->GetGridTypeCombo(CScaleBaseData::WEEKCHART_YEAR_GUBUN);

  00132	8b 8b 94 00 00
	00		 mov	 ecx, DWORD PTR [ebx+148]
  00138	6a 05		 push	 5
  0013a	e8 00 00 00 00	 call	 ?GetGridTypeCombo@CDlgEnvSetUpAll@@QAEHH@Z ; CDlgEnvSetUpAll::GetGridTypeCombo

; 2132 : 	m_pIChartOCX->SetAllHScaleGridType_TimeGubun(nGridType, ((CButton *)GetDlgItem(IDC_WEEK_YEAR_GUBUN))->GetCheck(), CScaleBaseData::WEEKCHART_YEAR_GUBUN );

  0013f	68 ff 17 00 00	 push	 6143			; 000017ffH
  00144	8b cb		 mov	 ecx, ebx
  00146	8b f0		 mov	 esi, eax
  00148	e8 00 00 00 00	 call	 ?GetDlgItem@CWnd@@QBEPAV1@H@Z ; CWnd::GetDlgItem
; File C:\Program Files (x86)\Microsoft Visual Studio\2019\Community\VC\Tools\MSVC\14.29.30133\atlmfc\include\afxwin2.inl

; 628  : 	{ ASSERT(::IsWindow(m_hWnd)); return (int)::SendMessage(m_hWnd, BM_GETCHECK, 0, 0); }

  0014d	6a 00		 push	 0
  0014f	6a 00		 push	 0
  00151	68 f0 00 00 00	 push	 240			; 000000f0H
  00156	ff 70 20	 push	 DWORD PTR [eax+32]
  00159	ff d7		 call	 edi
; File D:\git\src\IBK\IBK_DRFN\ProjSrc\SrcChartEx\ChartAddIn\ChartEnvSetupDlgAddIn\ChartEnvSetupDlgAddIn\DlgMainTabBaseEnvSetUp.cpp

; 2132 : 	m_pIChartOCX->SetAllHScaleGridType_TimeGubun(nGridType, ((CButton *)GetDlgItem(IDC_WEEK_YEAR_GUBUN))->GetCheck(), CScaleBaseData::WEEKCHART_YEAR_GUBUN );

  0015b	8b 8b d8 09 00
	00		 mov	 ecx, DWORD PTR [ebx+2520]
  00161	6a 05		 push	 5
  00163	50		 push	 eax
  00164	56		 push	 esi
  00165	8b 11		 mov	 edx, DWORD PTR [ecx]
  00167	ff 92 4c 02 00
	00		 call	 DWORD PTR [edx+588]

; 2133 : 
; 2134 : 	nGridType = ((CDlgEnvSetUpAll *)m_pParentWnd)->GetGridTypeCombo(CScaleBaseData::MONCHART_YEAR_GUBUN);

  0016d	8b 8b 94 00 00
	00		 mov	 ecx, DWORD PTR [ebx+148]
  00173	6a 06		 push	 6
  00175	e8 00 00 00 00	 call	 ?GetGridTypeCombo@CDlgEnvSetUpAll@@QAEHH@Z ; CDlgEnvSetUpAll::GetGridTypeCombo

; 2135 : 	m_pIChartOCX->SetAllHScaleGridType_TimeGubun(nGridType, ((CButton *)GetDlgItem(IDC_MON_YEAR_GUBUN))->GetCheck(), CScaleBaseData::MONCHART_YEAR_GUBUN );

  0017a	68 01 18 00 00	 push	 6145			; 00001801H
  0017f	8b cb		 mov	 ecx, ebx
  00181	8b f0		 mov	 esi, eax
  00183	e8 00 00 00 00	 call	 ?GetDlgItem@CWnd@@QBEPAV1@H@Z ; CWnd::GetDlgItem
; File C:\Program Files (x86)\Microsoft Visual Studio\2019\Community\VC\Tools\MSVC\14.29.30133\atlmfc\include\afxwin2.inl

; 628  : 	{ ASSERT(::IsWindow(m_hWnd)); return (int)::SendMessage(m_hWnd, BM_GETCHECK, 0, 0); }

  00188	6a 00		 push	 0
  0018a	6a 00		 push	 0
  0018c	68 f0 00 00 00	 push	 240			; 000000f0H
  00191	ff 70 20	 push	 DWORD PTR [eax+32]
  00194	ff d7		 call	 edi
; File D:\git\src\IBK\IBK_DRFN\ProjSrc\SrcChartEx\ChartAddIn\ChartEnvSetupDlgAddIn\ChartEnvSetupDlgAddIn\DlgMainTabBaseEnvSetUp.cpp

; 2135 : 	m_pIChartOCX->SetAllHScaleGridType_TimeGubun(nGridType, ((CButton *)GetDlgItem(IDC_MON_YEAR_GUBUN))->GetCheck(), CScaleBaseData::MONCHART_YEAR_GUBUN );

  00196	8b 8b d8 09 00
	00		 mov	 ecx, DWORD PTR [ebx+2520]
  0019c	6a 06		 push	 6
  0019e	50		 push	 eax
  0019f	56		 push	 esi
  001a0	8b 11		 mov	 edx, DWORD PTR [ecx]
  001a2	ff 92 4c 02 00
	00		 call	 DWORD PTR [edx+588]
  001a8	5f		 pop	 edi
  001a9	5e		 pop	 esi
  001aa	5b		 pop	 ebx

; 2136 : }

  001ab	c3		 ret	 0
?SetTimeGubunGrid@CDlgMainTabBaseEnvSetUp@@IAEXXZ ENDP	; CDlgMainTabBaseEnvSetUp::SetTimeGubunGrid
_TEXT	ENDS
; Function compile flags: /Ogtp
; File D:\git\src\IBK\IBK_DRFN\ProjSrc\SrcChartEx\ChartAddIn\ChartEnvSetupDlgAddIn\ChartEnvSetupDlgAddIn\DlgMainTabBaseEnvSetUp.cpp
;	COMDAT ?GetShowMonthGapRevision@CDlgMainTabBaseEnvSetUp@@IAEHXZ
_TEXT	SEGMENT
_lResult$ = -4						; size = 4
?GetShowMonthGapRevision@CDlgMainTabBaseEnvSetUp@@IAEHXZ PROC ; CDlgMainTabBaseEnvSetUp::GetShowMonthGapRevision, COMDAT
; _this$ = ecx

; 2070 : {

  00000	55		 push	 ebp
  00001	8b ec		 mov	 ebp, esp
  00003	51		 push	 ecx

; 2071 : 	long lResult = 0;
; 2072 : 	IAddInToolMgr *pIAddInToolMgr = m_pIChartOCX->GetIAddInToolMgr();

  00004	8b 89 d8 09 00
	00		 mov	 ecx, DWORD PTR [ecx+2520]
  0000a	c7 45 fc 00 00
	00 00		 mov	 DWORD PTR _lResult$[ebp], 0
  00011	56		 push	 esi
  00012	8b 01		 mov	 eax, DWORD PTR [ecx]
  00014	ff 50 24	 call	 DWORD PTR [eax+36]
  00017	8b f0		 mov	 esi, eax

; 2073 : 	if( pIAddInToolMgr)

  00019	85 f6		 test	 esi, esi
  0001b	74 13		 je	 SHORT $LN4@GetShowMon

; 2074 : 	{
; 2075 : 		pIAddInToolMgr->OnAddInToolCommand( lResult, EAI_ENVSETUP_SHOWMONTHGAPREVISION_CHANGED);

  0001d	8b 16		 mov	 edx, DWORD PTR [esi]
  0001f	8d 45 fc	 lea	 eax, DWORD PTR _lResult$[ebp]
  00022	6a 43		 push	 67			; 00000043H
  00024	50		 push	 eax
  00025	8b ce		 mov	 ecx, esi
  00027	ff 52 70	 call	 DWORD PTR [edx+112]

; 2076 : 		pIAddInToolMgr->Release();

  0002a	8b 06		 mov	 eax, DWORD PTR [esi]
  0002c	56		 push	 esi
  0002d	ff 50 08	 call	 DWORD PTR [eax+8]
$LN4@GetShowMon:

; 2077 : 	}
; 2078 : 	return lResult;
; 2079 : }

  00030	8b 45 fc	 mov	 eax, DWORD PTR _lResult$[ebp]
  00033	5e		 pop	 esi
  00034	8b e5		 mov	 esp, ebp
  00036	5d		 pop	 ebp
  00037	c3		 ret	 0
?GetShowMonthGapRevision@CDlgMainTabBaseEnvSetUp@@IAEHXZ ENDP ; CDlgMainTabBaseEnvSetUp::GetShowMonthGapRevision
_TEXT	ENDS
; Function compile flags: /Ogtp
; File D:\git\src\IBK\IBK_DRFN\ProjSrc\SrcChartEx\ChartAddIn\ChartEnvSetupDlgAddIn\ChartEnvSetupDlgAddIn\DlgMainTabBaseEnvSetUp.cpp
;	COMDAT ?GetMonthGapRevision@CDlgMainTabBaseEnvSetUp@@IAEHXZ
_TEXT	SEGMENT
_lResult$ = -4						; size = 4
?GetMonthGapRevision@CDlgMainTabBaseEnvSetUp@@IAEHXZ PROC ; CDlgMainTabBaseEnvSetUp::GetMonthGapRevision, COMDAT
; _this$ = ecx

; 2058 : {

  00000	55		 push	 ebp
  00001	8b ec		 mov	 ebp, esp
  00003	51		 push	 ecx

; 2059 : 	long lResult = 0;
; 2060 : 	IAddInToolMgr *pIAddInToolMgr = m_pIChartOCX->GetIAddInToolMgr();

  00004	8b 89 d8 09 00
	00		 mov	 ecx, DWORD PTR [ecx+2520]
  0000a	c7 45 fc 00 00
	00 00		 mov	 DWORD PTR _lResult$[ebp], 0
  00011	56		 push	 esi
  00012	8b 01		 mov	 eax, DWORD PTR [ecx]
  00014	ff 50 24	 call	 DWORD PTR [eax+36]
  00017	8b f0		 mov	 esi, eax

; 2061 : 	if( pIAddInToolMgr)

  00019	85 f6		 test	 esi, esi
  0001b	74 13		 je	 SHORT $LN4@GetMonthGa

; 2062 : 	{
; 2063 : 		pIAddInToolMgr->OnAddInToolCommand( lResult, EAI_CUSTOM_GET_MONTHGAPREVISION);

  0001d	8b 16		 mov	 edx, DWORD PTR [esi]
  0001f	8d 45 fc	 lea	 eax, DWORD PTR _lResult$[ebp]
  00022	6a 44		 push	 68			; 00000044H
  00024	50		 push	 eax
  00025	8b ce		 mov	 ecx, esi
  00027	ff 52 70	 call	 DWORD PTR [edx+112]

; 2064 : 		pIAddInToolMgr->Release();

  0002a	8b 06		 mov	 eax, DWORD PTR [esi]
  0002c	56		 push	 esi
  0002d	ff 50 08	 call	 DWORD PTR [eax+8]
$LN4@GetMonthGa:

; 2065 : 	}
; 2066 : 	return lResult;
; 2067 : }

  00030	8b 45 fc	 mov	 eax, DWORD PTR _lResult$[ebp]
  00033	5e		 pop	 esi
  00034	8b e5		 mov	 esp, ebp
  00036	5d		 pop	 ebp
  00037	c3		 ret	 0
?GetMonthGapRevision@CDlgMainTabBaseEnvSetUp@@IAEHXZ ENDP ; CDlgMainTabBaseEnvSetUp::GetMonthGapRevision
_TEXT	ENDS
; Function compile flags: /Ogtp
; File D:\git\src\IBK\IBK_DRFN\ProjSrc\SrcChartEx\ChartAddIn\ChartEnvSetupDlgAddIn\ChartEnvSetupDlgAddIn\DlgMainTabBaseEnvSetUp.cpp
;	COMDAT ?GetGapRevision@CDlgMainTabBaseEnvSetUp@@IAEHXZ
_TEXT	SEGMENT
_lResult$ = -4						; size = 4
?GetGapRevision@CDlgMainTabBaseEnvSetUp@@IAEHXZ PROC	; CDlgMainTabBaseEnvSetUp::GetGapRevision, COMDAT
; _this$ = ecx

; 2044 : {

  00000	55		 push	 ebp
  00001	8b ec		 mov	 ebp, esp
  00003	51		 push	 ecx

; 2045 : 	long lResult = 0;
; 2046 : 	IAddInToolMgr *pIAddInToolMgr = m_pIChartOCX->GetIAddInToolMgr();

  00004	8b 89 d8 09 00
	00		 mov	 ecx, DWORD PTR [ecx+2520]
  0000a	c7 45 fc 00 00
	00 00		 mov	 DWORD PTR _lResult$[ebp], 0
  00011	56		 push	 esi
  00012	8b 01		 mov	 eax, DWORD PTR [ecx]
  00014	ff 50 24	 call	 DWORD PTR [eax+36]
  00017	8b f0		 mov	 esi, eax

; 2047 : 	if( pIAddInToolMgr)

  00019	85 f6		 test	 esi, esi
  0001b	74 13		 je	 SHORT $LN4@GetGapRevi

; 2048 : 	{
; 2049 : 		pIAddInToolMgr->OnAddInToolCommand( lResult, EAI_CUSTOM_GET_GAPREVISION);

  0001d	8b 16		 mov	 edx, DWORD PTR [esi]
  0001f	8d 45 fc	 lea	 eax, DWORD PTR _lResult$[ebp]
  00022	6a 41		 push	 65			; 00000041H
  00024	50		 push	 eax
  00025	8b ce		 mov	 ecx, esi
  00027	ff 52 70	 call	 DWORD PTR [edx+112]

; 2050 : 		pIAddInToolMgr->Release();

  0002a	8b 06		 mov	 eax, DWORD PTR [esi]
  0002c	56		 push	 esi
  0002d	ff 50 08	 call	 DWORD PTR [eax+8]
$LN4@GetGapRevi:

; 2051 : 	}
; 2052 : 	return lResult;
; 2053 : }

  00030	8b 45 fc	 mov	 eax, DWORD PTR _lResult$[ebp]
  00033	5e		 pop	 esi
  00034	8b e5		 mov	 esp, ebp
  00036	5d		 pop	 ebp
  00037	c3		 ret	 0
?GetGapRevision@CDlgMainTabBaseEnvSetUp@@IAEHXZ ENDP	; CDlgMainTabBaseEnvSetUp::GetGapRevision
_TEXT	ENDS
; Function compile flags: /Ogtp
; File D:\git\src\IBK\IBK_DRFN\ProjSrc\SrcChartEx\ChartAddIn\ChartEnvSetupDlgAddIn\ChartEnvSetupDlgAddIn\DlgMainTabBaseEnvSetUp.cpp
; File D:\git\src\IBK\IBK_DRFN\ProjSrc\SrcChartEx\ChartAddIn\ChartEnvSetupDlgAddIn\Include_AddIn_135914\I135914\_IString.h
; File D:\git\src\IBK\IBK_DRFN\ProjSrc\SrcChartEx\ChartAddIn\ChartEnvSetupDlgAddIn\ChartEnvSetupDlgAddIn\DlgMainTabBaseEnvSetUp.cpp
; File D:\git\src\IBK\IBK_DRFN\ProjSrc\SrcChartEx\ChartAddIn\ChartEnvSetupDlgAddIn\Include_AddIn_135914\I135914\_IString.h
; File D:\git\src\IBK\IBK_DRFN\ProjSrc\SrcChartEx\ChartAddIn\ChartEnvSetupDlgAddIn\ChartEnvSetupDlgAddIn\DlgMainTabBaseEnvSetUp.cpp
; File D:\git\src\IBK\IBK_DRFN\ProjSrc\SrcChartEx\ChartAddIn\ChartEnvSetupDlgAddIn\Include_AddIn_135914\I135914\_IString.h
; File D:\git\src\IBK\IBK_DRFN\ProjSrc\SrcChartEx\ChartAddIn\ChartEnvSetupDlgAddIn\ChartEnvSetupDlgAddIn\DlgMainTabBaseEnvSetUp.cpp
; File D:\git\src\IBK\IBK_DRFN\ProjSrc\SrcChartEx\ChartAddIn\ChartEnvSetupDlgAddIn\Include_AddIn_135914\I135914\_IString.h
; File D:\git\src\IBK\IBK_DRFN\ProjSrc\SrcChartEx\ChartAddIn\ChartEnvSetupDlgAddIn\ChartEnvSetupDlgAddIn\DlgMainTabBaseEnvSetUp.cpp
; File D:\git\src\IBK\IBK_DRFN\ProjSrc\SrcChartEx\ChartAddIn\ChartEnvSetupDlgAddIn\Include_AddIn_135914\I135914\_IString.h
; File D:\git\src\IBK\IBK_DRFN\ProjSrc\SrcChartEx\ChartAddIn\ChartEnvSetupDlgAddIn\ChartEnvSetupDlgAddIn\DlgMainTabBaseEnvSetUp.cpp
;	COMDAT ?SetUpDownSpace@CDlgMainTabBaseEnvSetUp@@IAEXH@Z
_TEXT	SEGMENT
_p_dMin$ = -68						; size = 8
_p_dMax$ = -60						; size = 8
_szGraphName$ = -52					; size = 8
_this$1$ = -44						; size = 4
_nNewSpace$1$ = -40					; size = 4
_eMinMaxType$ = -36					; size = 4
_nG$ = -32						; size = 4
_bIsLock$ = -28						; size = 4
_nC$ = -24						; size = 4
_nR$ = -20						; size = 4
_nV$ = -16						; size = 4
__$EHRec$ = -12						; size = 12
_nUpDownSpace$ = 8					; size = 4
?SetUpDownSpace@CDlgMainTabBaseEnvSetUp@@IAEXH@Z PROC	; CDlgMainTabBaseEnvSetUp::SetUpDownSpace, COMDAT
; _this$ = ecx

; 2006 : {

  00000	55		 push	 ebp
  00001	8b ec		 mov	 ebp, esp
  00003	6a ff		 push	 -1
  00005	68 00 00 00 00	 push	 __ehhandler$?SetUpDownSpace@CDlgMainTabBaseEnvSetUp@@IAEXH@Z
  0000a	64 a1 00 00 00
	00		 mov	 eax, DWORD PTR fs:0
  00010	50		 push	 eax
  00011	83 ec 38	 sub	 esp, 56			; 00000038H
  00014	53		 push	 ebx
  00015	56		 push	 esi
  00016	57		 push	 edi
  00017	a1 00 00 00 00	 mov	 eax, DWORD PTR ___security_cookie
  0001c	33 c5		 xor	 eax, ebp
  0001e	50		 push	 eax
  0001f	8d 45 f4	 lea	 eax, DWORD PTR __$EHRec$[ebp]
  00022	64 a3 00 00 00
	00		 mov	 DWORD PTR fs:0, eax
  00028	8b c1		 mov	 eax, ecx
  0002a	89 45 d4	 mov	 DWORD PTR _this$1$[ebp], eax

; 2007 : 	IChartManager *pIChartManager = m_pIChartOCX->GetIChartManager();

  0002d	8b 88 d8 09 00
	00		 mov	 ecx, DWORD PTR [eax+2520]
  00033	8b 01		 mov	 eax, DWORD PTR [ecx]
  00035	ff 50 18	 call	 DWORD PTR [eax+24]
  00038	8b f8		 mov	 edi, eax

; 2008 : 	if( !pIChartManager) return;

  0003a	85 ff		 test	 edi, edi
  0003c	0f 84 bb 01 00
	00		 je	 $LN29@SetUpDownS

; 2009 : 
; 2010 : 	int nNewSpace = nUpDownSpace / 2;

  00042	8b 45 08	 mov	 eax, DWORD PTR _nUpDownSpace$[ebp]
  00045	0f 57 c0	 xorps	 xmm0, xmm0
  00048	99		 cdq

; 2015 : 	ILPCSTR szGraphName = pIChartManager->FindFirstIndicator( _MTEXT( C2_PRICE_CHART ), nR, nC, nV, nG, NULL);

  00049	8b cf		 mov	 ecx, edi
  0004b	2b c2		 sub	 eax, edx
  0004d	c7 45 ec 00 00
	00 00		 mov	 DWORD PTR _nR$[ebp], 0
  00054	d1 f8		 sar	 eax, 1
  00056	89 45 d8	 mov	 DWORD PTR _nNewSpace$1$[ebp], eax
  00059	8d 45 e0	 lea	 eax, DWORD PTR _nG$[ebp]
  0005c	6a 00		 push	 0
  0005e	50		 push	 eax
  0005f	8d 45 f0	 lea	 eax, DWORD PTR _nV$[ebp]
  00062	c7 45 e8 00 00
	00 00		 mov	 DWORD PTR _nC$[ebp], 0
  00069	50		 push	 eax
  0006a	8d 45 e8	 lea	 eax, DWORD PTR _nC$[ebp]
  0006d	c7 45 f0 00 00
	00 00		 mov	 DWORD PTR _nV$[ebp], 0
  00074	50		 push	 eax
  00075	8d 45 ec	 lea	 eax, DWORD PTR _nR$[ebp]
  00078	c7 45 e0 00 00
	00 00		 mov	 DWORD PTR _nG$[ebp], 0
  0007f	50		 push	 eax
  00080	a1 54 00 00 00	 mov	 eax, DWORD PTR ?g_iMetaTable@@3VIMetaTable@@A+84
  00085	c7 45 e4 00 00
	00 00		 mov	 DWORD PTR _bIsLock$[ebp], 0
  0008c	c7 45 dc 00 00
	00 00		 mov	 DWORD PTR _eMinMaxType$[ebp], 0
  00093	f2 0f 11 45 bc	 movsd	 QWORD PTR _p_dMin$[ebp], xmm0
  00098	f2 0f 11 45 c4	 movsd	 QWORD PTR _p_dMax$[ebp], xmm0
  0009d	8b 17		 mov	 edx, DWORD PTR [edi]
  0009f	ff b0 28 03 00
	00		 push	 DWORD PTR [eax+808]
  000a5	ff 52 58	 call	 DWORD PTR [edx+88]
; File D:\git\src\IBK\IBK_DRFN\ProjSrc\SrcChartEx\ChartAddIn\ChartEnvSetupDlgAddIn\Include_AddIn_135914\I135914\_IString.h

; 39   : 		m_pIStrData = p_pIString;	// Do not AddRef(). Because It must be Return Value.

  000a8	8b d8		 mov	 ebx, eax
  000aa	89 5d d0	 mov	 DWORD PTR _szGraphName$[ebp+4], ebx

; 40   : 		if( m_pIStrData) m_szData = m_pIStrData->GetData();

  000ad	85 db		 test	 ebx, ebx
  000af	74 09		 je	 SHORT $LN17@SetUpDownS
  000b1	8b 13		 mov	 edx, DWORD PTR [ebx]
  000b3	8b cb		 mov	 ecx, ebx
  000b5	ff 52 10	 call	 DWORD PTR [edx+16]
  000b8	eb 02		 jmp	 SHORT $LN46@SetUpDownS
$LN17@SetUpDownS:

; 41   : 		else m_szData = NULL;

  000ba	33 c0		 xor	 eax, eax
$LN46@SetUpDownS:
; File D:\git\src\IBK\IBK_DRFN\ProjSrc\SrcChartEx\ChartAddIn\ChartEnvSetupDlgAddIn\ChartEnvSetupDlgAddIn\DlgMainTabBaseEnvSetUp.cpp

; 2015 : 	ILPCSTR szGraphName = pIChartManager->FindFirstIndicator( _MTEXT( C2_PRICE_CHART ), nR, nC, nV, nG, NULL);

  000bc	89 45 cc	 mov	 DWORD PTR _szGraphName$[ebp], eax
  000bf	c7 45 fc 00 00
	00 00		 mov	 DWORD PTR __$EHRec$[ebp+8], 0
$LL2@SetUpDownS:
; File D:\git\src\IBK\IBK_DRFN\ProjSrc\SrcChartEx\ChartAddIn\ChartEnvSetupDlgAddIn\Include_AddIn_135914\I135914\_IString.h

; 57   : 		if( !m_szData) return TRUE;

  000c6	85 c0		 test	 eax, eax
  000c8	0f 84 0a 01 00
	00		 je	 $LN41@SetUpDownS
; File D:\git\src\IBK\IBK_DRFN\ProjSrc\SrcChartEx\ChartAddIn\ChartEnvSetupDlgAddIn\ChartEnvSetupDlgAddIn\DlgMainTabBaseEnvSetUp.cpp

; 2016 : 	while( !szGraphName.IsEmpty())

  000ce	80 38 00	 cmp	 BYTE PTR [eax], 0
  000d1	0f 84 01 01 00
	00		 je	 $LN41@SetUpDownS

; 2017 : 	{
; 2018 : 		IBlock *pIBlock = pIChartManager->GetBlock( nR, nC);

  000d7	ff 75 e8	 push	 DWORD PTR _nC$[ebp]
  000da	8b 07		 mov	 eax, DWORD PTR [edi]
  000dc	8b cf		 mov	 ecx, edi
  000de	ff 75 ec	 push	 DWORD PTR _nR$[ebp]
  000e1	ff 50 2c	 call	 DWORD PTR [eax+44]
  000e4	8b f0		 mov	 esi, eax

; 2019 : 		if( !pIBlock) break;

  000e6	85 f6		 test	 esi, esi
  000e8	0f 84 ea 00 00
	00		 je	 $LN41@SetUpDownS

; 2020 : 
; 2021 : 		nV = -1;

  000ee	8b 5d d8	 mov	 ebx, DWORD PTR _nNewSpace$1$[ebp]
  000f1	83 c9 ff	 or	 ecx, -1
$LL6@SetUpDownS:

; 2022 : 		do
; 2023 : 		{
; 2024 : 			nV++;
; 2025 : 			if( !pIBlock->GetVScaleMinMaxSetting( nV, bIsLock, eMinMaxType, p_dMin, p_dMax)) break;

  000f4	8d 55 c4	 lea	 edx, DWORD PTR _p_dMax$[ebp]
  000f7	41		 inc	 ecx
  000f8	52		 push	 edx
  000f9	8d 55 bc	 lea	 edx, DWORD PTR _p_dMin$[ebp]
  000fc	89 4d f0	 mov	 DWORD PTR _nV$[ebp], ecx
  000ff	8b 06		 mov	 eax, DWORD PTR [esi]
  00101	52		 push	 edx
  00102	8d 55 dc	 lea	 edx, DWORD PTR _eMinMaxType$[ebp]
  00105	52		 push	 edx
  00106	8d 55 e4	 lea	 edx, DWORD PTR _bIsLock$[ebp]
  00109	52		 push	 edx
  0010a	51		 push	 ecx
  0010b	8b ce		 mov	 ecx, esi
  0010d	ff 50 44	 call	 DWORD PTR [eax+68]
  00110	85 c0		 test	 eax, eax
  00112	74 58		 je	 SHORT $LN5@SetUpDownS

; 2026 : 			if( !bIsLock && CScaleBaseData::VERT_MINMAX_OF_USER == eMinMaxType)

  00114	83 7d e4 00	 cmp	 DWORD PTR _bIsLock$[ebp], 0
  00118	75 4d		 jne	 SHORT $LL42@SetUpDownS
  0011a	83 7d dc 02	 cmp	 DWORD PTR _eMinMaxType$[ebp], 2
  0011e	75 2c		 jne	 SHORT $LN13@SetUpDownS

; 2027 : 				pIBlock->SetVScaleMinMaxSetting( nV, bIsLock, CScaleBaseData::VERT_MINMAX_OF_VIEW, p_dMin, p_dMax);

  00120	f2 0f 10 45 c4	 movsd	 xmm0, QWORD PTR _p_dMax$[ebp]
  00125	83 ec 10	 sub	 esp, 16			; 00000010H
  00128	8b 06		 mov	 eax, DWORD PTR [esi]
  0012a	8b ce		 mov	 ecx, esi
  0012c	f2 0f 11 44 24
	08		 movsd	 QWORD PTR [esp+8], xmm0
  00132	f2 0f 10 45 bc	 movsd	 xmm0, QWORD PTR _p_dMin$[ebp]
  00137	f2 0f 11 04 24	 movsd	 QWORD PTR [esp], xmm0
  0013c	6a 00		 push	 0
  0013e	6a 00		 push	 0
  00140	ff 75 f0	 push	 DWORD PTR _nV$[ebp]
  00143	ff 50 48	 call	 DWORD PTR [eax+72]

; 2028 : 		}
; 2029 : 		while( ( bIsLock ? TRUE : pIChartManager->SetVertScaleSpace( nR, nC, nV, nNewSpace, nUpDownSpace - nNewSpace)));

  00146	83 7d e4 00	 cmp	 DWORD PTR _bIsLock$[ebp], 0
  0014a	75 1b		 jne	 SHORT $LL42@SetUpDownS
$LN13@SetUpDownS:
  0014c	8b 45 08	 mov	 eax, DWORD PTR _nUpDownSpace$[ebp]
  0014f	8b cf		 mov	 ecx, edi
  00151	8b 17		 mov	 edx, DWORD PTR [edi]
  00153	2b c3		 sub	 eax, ebx
  00155	50		 push	 eax
  00156	53		 push	 ebx
  00157	ff 75 f0	 push	 DWORD PTR _nV$[ebp]
  0015a	ff 75 e8	 push	 DWORD PTR _nC$[ebp]
  0015d	ff 75 ec	 push	 DWORD PTR _nR$[ebp]
  00160	ff 52 40	 call	 DWORD PTR [edx+64]
  00163	85 c0		 test	 eax, eax
  00165	74 05		 je	 SHORT $LN5@SetUpDownS
$LL42@SetUpDownS:
  00167	8b 4d f0	 mov	 ecx, DWORD PTR _nV$[ebp]
  0016a	eb 88		 jmp	 SHORT $LL6@SetUpDownS
$LN5@SetUpDownS:

; 2030 : 		pIBlock->Release();

  0016c	8b 06		 mov	 eax, DWORD PTR [esi]
  0016e	56		 push	 esi
  0016f	ff 50 08	 call	 DWORD PTR [eax+8]

; 2031 : 
; 2032 : 		nR++;

  00172	ff 45 ec	 inc	 DWORD PTR _nR$[ebp]

; 2035 : 		szGraphName = pIChartManager->FindNextIndicator( _MTEXT( C2_PRICE_CHART ), nR, nC, nV, nG, NULL);

  00175	8d 45 e0	 lea	 eax, DWORD PTR _nG$[ebp]
  00178	6a 00		 push	 0
  0017a	50		 push	 eax
  0017b	8d 45 f0	 lea	 eax, DWORD PTR _nV$[ebp]
  0017e	c7 45 f0 00 00
	00 00		 mov	 DWORD PTR _nV$[ebp], 0
  00185	50		 push	 eax
  00186	8d 45 e8	 lea	 eax, DWORD PTR _nC$[ebp]
  00189	c7 45 e0 ff ff
	ff ff		 mov	 DWORD PTR _nG$[ebp], -1
  00190	8b 17		 mov	 edx, DWORD PTR [edi]
  00192	8b cf		 mov	 ecx, edi
  00194	50		 push	 eax
  00195	8d 45 ec	 lea	 eax, DWORD PTR _nR$[ebp]
  00198	50		 push	 eax
  00199	a1 54 00 00 00	 mov	 eax, DWORD PTR ?g_iMetaTable@@3VIMetaTable@@A+84
  0019e	ff b0 28 03 00
	00		 push	 DWORD PTR [eax+808]
  001a4	ff 52 5c	 call	 DWORD PTR [edx+92]
; File D:\git\src\IBK\IBK_DRFN\ProjSrc\SrcChartEx\ChartAddIn\ChartEnvSetupDlgAddIn\Include_AddIn_135914\I135914\_IString.h

; 67   : 		if( m_pIStrData) m_pIStrData->Release();

  001a7	8b 5d d0	 mov	 ebx, DWORD PTR _szGraphName$[ebp+4]
; File D:\git\src\IBK\IBK_DRFN\ProjSrc\SrcChartEx\ChartAddIn\ChartEnvSetupDlgAddIn\ChartEnvSetupDlgAddIn\DlgMainTabBaseEnvSetUp.cpp

; 2035 : 		szGraphName = pIChartManager->FindNextIndicator( _MTEXT( C2_PRICE_CHART ), nR, nC, nV, nG, NULL);

  001aa	8b f0		 mov	 esi, eax
; File D:\git\src\IBK\IBK_DRFN\ProjSrc\SrcChartEx\ChartAddIn\ChartEnvSetupDlgAddIn\Include_AddIn_135914\I135914\_IString.h

; 67   : 		if( m_pIStrData) m_pIStrData->Release();

  001ac	85 db		 test	 ebx, ebx
  001ae	74 06		 je	 SHORT $LN24@SetUpDownS
  001b0	8b 0b		 mov	 ecx, DWORD PTR [ebx]
  001b2	53		 push	 ebx
  001b3	ff 51 08	 call	 DWORD PTR [ecx+8]
$LN24@SetUpDownS:

; 68   : 		m_pIStrData = stringSrc;	// Do not AddRef(). Because It must be Return Value.

  001b6	8b de		 mov	 ebx, esi
  001b8	89 5d d0	 mov	 DWORD PTR _szGraphName$[ebp+4], ebx
  001bb	85 f6		 test	 esi, esi

; 69   : 		if( m_pIStrData) m_szData = m_pIStrData->GetData();

  001bd	74 0f		 je	 SHORT $LN25@SetUpDownS
  001bf	8b 06		 mov	 eax, DWORD PTR [esi]
  001c1	8b ce		 mov	 ecx, esi
  001c3	ff 50 10	 call	 DWORD PTR [eax+16]
  001c6	89 45 cc	 mov	 DWORD PTR _szGraphName$[ebp], eax
  001c9	e9 f8 fe ff ff	 jmp	 $LL2@SetUpDownS
$LN25@SetUpDownS:

; 70   : 		else m_szData = NULL;

  001ce	33 c0		 xor	 eax, eax
  001d0	89 45 cc	 mov	 DWORD PTR _szGraphName$[ebp], eax
; File D:\git\src\IBK\IBK_DRFN\ProjSrc\SrcChartEx\ChartAddIn\ChartEnvSetupDlgAddIn\ChartEnvSetupDlgAddIn\DlgMainTabBaseEnvSetUp.cpp

; 2036 : 	}

  001d3	e9 ee fe ff ff	 jmp	 $LL2@SetUpDownS
$LN41@SetUpDownS:

; 2037 : 
; 2038 : 	if( pIChartManager) pIChartManager->Release();

  001d8	8b 07		 mov	 eax, DWORD PTR [edi]
  001da	57		 push	 edi
  001db	ff 50 08	 call	 DWORD PTR [eax+8]

; 2039 : 	m_pIChartOCX->InvalidateControl();

  001de	8b 45 d4	 mov	 eax, DWORD PTR _this$1$[ebp]
  001e1	8b 88 d8 09 00
	00		 mov	 ecx, DWORD PTR [eax+2520]
  001e7	8b 01		 mov	 eax, DWORD PTR [ecx]
  001e9	ff 50 38	 call	 DWORD PTR [eax+56]
; File D:\git\src\IBK\IBK_DRFN\ProjSrc\SrcChartEx\ChartAddIn\ChartEnvSetupDlgAddIn\Include_AddIn_135914\I135914\_IString.h

; 44   : 	{

  001ec	c7 45 fc 01 00
	00 00		 mov	 DWORD PTR __$EHRec$[ebp+8], 1

; 45   : 		if( m_pIStrData)

  001f3	85 db		 test	 ebx, ebx
  001f5	74 06		 je	 SHORT $LN29@SetUpDownS

; 46   : 		{
; 47   : 			m_pIStrData->Release();

  001f7	8b 03		 mov	 eax, DWORD PTR [ebx]
  001f9	53		 push	 ebx
  001fa	ff 50 08	 call	 DWORD PTR [eax+8]
$LN29@SetUpDownS:
; File D:\git\src\IBK\IBK_DRFN\ProjSrc\SrcChartEx\ChartAddIn\ChartEnvSetupDlgAddIn\ChartEnvSetupDlgAddIn\DlgMainTabBaseEnvSetUp.cpp

; 2040 : }

  001fd	8b 4d f4	 mov	 ecx, DWORD PTR __$EHRec$[ebp]
  00200	64 89 0d 00 00
	00 00		 mov	 DWORD PTR fs:0, ecx
  00207	59		 pop	 ecx
  00208	5f		 pop	 edi
  00209	5e		 pop	 esi
  0020a	5b		 pop	 ebx
  0020b	8b e5		 mov	 esp, ebp
  0020d	5d		 pop	 ebp
  0020e	c2 04 00	 ret	 4
_TEXT	ENDS
;	COMDAT text$x
text$x	SEGMENT
__unwindfunclet$?SetUpDownSpace@CDlgMainTabBaseEnvSetUp@@IAEXH@Z$0:
  00000	8d 4d cc	 lea	 ecx, DWORD PTR _szGraphName$[ebp]
  00003	e9 00 00 00 00	 jmp	 ??1ILPCSTR135914@@QAE@XZ ; ILPCSTR135914::~ILPCSTR135914
  00008	cc		 int	 3
  00009	cc		 int	 3
  0000a	cc		 int	 3
  0000b	cc		 int	 3
  0000c	cc		 int	 3
__ehhandler$?SetUpDownSpace@CDlgMainTabBaseEnvSetUp@@IAEXH@Z:
  0000d	90		 npad	 1
  0000e	90		 npad	 1
  0000f	8b 54 24 08	 mov	 edx, DWORD PTR [esp+8]
  00013	8d 42 0c	 lea	 eax, DWORD PTR [edx+12]
  00016	8b 4a b8	 mov	 ecx, DWORD PTR [edx-72]
  00019	33 c8		 xor	 ecx, eax
  0001b	e8 00 00 00 00	 call	 @__security_check_cookie@4
  00020	b8 00 00 00 00	 mov	 eax, OFFSET __ehfuncinfo$?SetUpDownSpace@CDlgMainTabBaseEnvSetUp@@IAEXH@Z
  00025	e9 00 00 00 00	 jmp	 ___CxxFrameHandler3
text$x	ENDS
?SetUpDownSpace@CDlgMainTabBaseEnvSetUp@@IAEXH@Z ENDP	; CDlgMainTabBaseEnvSetUp::SetUpDownSpace
; Function compile flags: /Ogtp
; File D:\git\src\IBK\IBK_DRFN\ProjSrc\SrcChartEx\ChartAddIn\ChartEnvSetupDlgAddIn\ChartEnvSetupDlgAddIn\DlgMainTabBaseEnvSetUp.cpp
;	COMDAT ?GetShowLH_LC_HC@CDlgMainTabBaseEnvSetUp@@IAEHXZ
_TEXT	SEGMENT
_bPrevCur$ = -24					; size = 4
_nCurData$ = -20					; size = 4
_bShowOHLC$ = -16					; size = 4
_bHighCur$ = -12					; size = 4
_bLowCur$ = -8						; size = 4
_bLowHigh$ = -4						; size = 4
?GetShowLH_LC_HC@CDlgMainTabBaseEnvSetUp@@IAEHXZ PROC	; CDlgMainTabBaseEnvSetUp::GetShowLH_LC_HC, COMDAT
; _this$ = ecx

; 1760 : {

  00000	55		 push	 ebp
  00001	8b ec		 mov	 ebp, esp

; 1761 : 	IGraphInfoManager *pIGraphInfoManager = m_pIChartOCX->GetIGraphInfoManager();

  00003	8b 89 d8 09 00
	00		 mov	 ecx, DWORD PTR [ecx+2520]
  00009	83 ec 18	 sub	 esp, 24			; 00000018H
  0000c	8b 01		 mov	 eax, DWORD PTR [ecx]
  0000e	56		 push	 esi
  0000f	57		 push	 edi
  00010	ff 50 20	 call	 DWORD PTR [eax+32]
  00013	8b f0		 mov	 esi, eax

; 1762 : 	if( !pIGraphInfoManager) return 0;

  00015	85 f6		 test	 esi, esi
  00017	0f 84 a5 00 00
	00		 je	 $LN7@GetShowLH_

; 1763 : 
; 1764 : 	IGraphInfo *pIPriceChart = pIGraphInfoManager->GetGraphInfo( IGraphInfoManager::IEILT_USER, _MTEXT( C2_PRICE_CHART ));

  0001d	8b 0d 54 00 00
	00		 mov	 ecx, DWORD PTR ?g_iMetaTable@@3VIMetaTable@@A+84
  00023	8b 16		 mov	 edx, DWORD PTR [esi]
  00025	ff b1 28 03 00
	00		 push	 DWORD PTR [ecx+808]
  0002b	8b ce		 mov	 ecx, esi
  0002d	6a 03		 push	 3
  0002f	ff 52 14	 call	 DWORD PTR [edx+20]

; 1765 : 	pIGraphInfoManager->Release();

  00032	8b 0e		 mov	 ecx, DWORD PTR [esi]
  00034	8b f8		 mov	 edi, eax
  00036	56		 push	 esi
  00037	ff 51 08	 call	 DWORD PTR [ecx+8]

; 1766 : 	if( !pIPriceChart) return 0;

  0003a	85 ff		 test	 edi, edi
  0003c	0f 84 80 00 00
	00		 je	 $LN7@GetShowLH_

; 1767 : 
; 1768 : 	BOOL bLowHigh = FALSE, bLowCur = FALSE, bHighCur = FALSE, bPrevCur = FALSE, bShowOHLC = FALSE;
; 1769 : 	int nCurData = 0;
; 1770 : 	pIPriceChart->GetGraphDataDrawingData( bLowHigh, bLowCur, bHighCur, bPrevCur, nCurData, bShowOHLC);

  00042	8d 4d f0	 lea	 ecx, DWORD PTR _bShowOHLC$[ebp]
  00045	c7 45 fc 00 00
	00 00		 mov	 DWORD PTR _bLowHigh$[ebp], 0
  0004c	51		 push	 ecx
  0004d	8d 4d ec	 lea	 ecx, DWORD PTR _nCurData$[ebp]
  00050	c7 45 f8 00 00
	00 00		 mov	 DWORD PTR _bLowCur$[ebp], 0
  00057	51		 push	 ecx
  00058	8d 4d e8	 lea	 ecx, DWORD PTR _bPrevCur$[ebp]
  0005b	c7 45 f4 00 00
	00 00		 mov	 DWORD PTR _bHighCur$[ebp], 0
  00062	51		 push	 ecx
  00063	8d 4d f4	 lea	 ecx, DWORD PTR _bHighCur$[ebp]
  00066	c7 45 e8 00 00
	00 00		 mov	 DWORD PTR _bPrevCur$[ebp], 0
  0006d	51		 push	 ecx
  0006e	8d 4d f8	 lea	 ecx, DWORD PTR _bLowCur$[ebp]
  00071	c7 45 f0 00 00
	00 00		 mov	 DWORD PTR _bShowOHLC$[ebp], 0
  00078	51		 push	 ecx
  00079	c7 45 ec 00 00
	00 00		 mov	 DWORD PTR _nCurData$[ebp], 0
  00080	8d 4d fc	 lea	 ecx, DWORD PTR _bLowHigh$[ebp]
  00083	8b 07		 mov	 eax, DWORD PTR [edi]
  00085	51		 push	 ecx
  00086	8b cf		 mov	 ecx, edi
  00088	ff 90 ac 00 00
	00		 call	 DWORD PTR [eax+172]

; 1771 : 	pIPriceChart->Release();

  0008e	8b 07		 mov	 eax, DWORD PTR [edi]
  00090	57		 push	 edi
  00091	ff 50 08	 call	 DWORD PTR [eax+8]

; 1772 : 
; 1773 : 	if( bLowHigh && bLowCur && bHighCur) return 1;

  00094	83 7d fc 00	 cmp	 DWORD PTR _bLowHigh$[ebp], 0
  00098	74 17		 je	 SHORT $LN4@GetShowLH_
  0009a	83 7d f8 00	 cmp	 DWORD PTR _bLowCur$[ebp], 0
  0009e	74 11		 je	 SHORT $LN4@GetShowLH_
  000a0	83 7d f4 00	 cmp	 DWORD PTR _bHighCur$[ebp], 0
  000a4	74 0b		 je	 SHORT $LN4@GetShowLH_
  000a6	5f		 pop	 edi
  000a7	b8 01 00 00 00	 mov	 eax, 1

; 1776 : }

  000ac	5e		 pop	 esi
  000ad	8b e5		 mov	 esp, ebp
  000af	5d		 pop	 ebp
  000b0	c3		 ret	 0
$LN4@GetShowLH_:

; 1774 : 	if( bShowOHLC) return 0;

  000b1	83 7d f0 00	 cmp	 DWORD PTR _bShowOHLC$[ebp], 0
  000b5	75 0b		 jne	 SHORT $LN7@GetShowLH_

; 1775 : 	return 2;

  000b7	5f		 pop	 edi
  000b8	b8 02 00 00 00	 mov	 eax, 2

; 1776 : }

  000bd	5e		 pop	 esi
  000be	8b e5		 mov	 esp, ebp
  000c0	5d		 pop	 ebp
  000c1	c3		 ret	 0
$LN7@GetShowLH_:
  000c2	5f		 pop	 edi

; 1774 : 	if( bShowOHLC) return 0;

  000c3	33 c0		 xor	 eax, eax

; 1776 : }

  000c5	5e		 pop	 esi
  000c6	8b e5		 mov	 esp, ebp
  000c8	5d		 pop	 ebp
  000c9	c3		 ret	 0
?GetShowLH_LC_HC@CDlgMainTabBaseEnvSetUp@@IAEHXZ ENDP	; CDlgMainTabBaseEnvSetUp::GetShowLH_LC_HC
_TEXT	ENDS
; Function compile flags: /Ogtp
; File D:\git\src\IBK\IBK_DRFN\ProjSrc\SrcChartEx\ChartAddIn\ChartEnvSetupDlgAddIn\ChartEnvSetupDlgAddIn\DlgMainTabBaseEnvSetUp.cpp
; File C:\Program Files (x86)\Microsoft Visual Studio\2019\Community\VC\Tools\MSVC\14.29.30133\atlmfc\include\afxcoll.inl
; File D:\git\src\IBK\IBK_DRFN\ProjSrc\SrcChartEx\ChartAddIn\ChartEnvSetupDlgAddIn\ChartEnvSetupDlgAddIn\DlgMainTabBaseEnvSetUp.cpp
; File C:\Program Files (x86)\Microsoft Visual Studio\2019\Community\VC\Tools\MSVC\14.29.30133\atlmfc\include\afxcoll.inl
; File D:\git\src\IBK\IBK_DRFN\ProjSrc\SrcChartEx\ChartAddIn\ChartEnvSetupDlgAddIn\ChartEnvSetupDlgAddIn\DlgMainTabBaseEnvSetUp.cpp
; File D:\git\src\IBK\IBK_DRFN\ProjSrc\SrcChartEx\ChartAddIn\ChartEnvSetupDlgAddIn\Include_AddIn_135914\I135914\_IString.h
; File D:\git\src\IBK\IBK_DRFN\ProjSrc\SrcChartEx\ChartAddIn\ChartEnvSetupDlgAddIn\ChartEnvSetupDlgAddIn\DlgMainTabBaseEnvSetUp.cpp
; File D:\git\src\IBK\IBK_DRFN\ProjSrc\SrcChartEx\ChartAddIn\ChartEnvSetupDlgAddIn\Include_AddIn_135914\I135914\_IString.h
; File D:\git\src\IBK\IBK_DRFN\ProjSrc\SrcChartEx\ChartAddIn\ChartEnvSetupDlgAddIn\ChartEnvSetupDlgAddIn\DlgMainTabBaseEnvSetUp.cpp
; File D:\git\src\IBK\IBK_DRFN\ProjSrc\SrcChartEx\ChartAddIn\ChartEnvSetupDlgAddIn\Include_AddIn_135914\I135914\_IString.h
; File D:\git\src\IBK\IBK_DRFN\ProjSrc\SrcChartEx\ChartAddIn\ChartEnvSetupDlgAddIn\ChartEnvSetupDlgAddIn\DlgMainTabBaseEnvSetUp.cpp
; File D:\git\src\IBK\IBK_DRFN\ProjSrc\SrcChartEx\ChartAddIn\ChartEnvSetupDlgAddIn\Include_AddIn_135914\I135914\_IString.h
; File D:\git\src\IBK\IBK_DRFN\ProjSrc\SrcChartEx\ChartAddIn\ChartEnvSetupDlgAddIn\ChartEnvSetupDlgAddIn\DlgMainTabBaseEnvSetUp.cpp
; File C:\Program Files (x86)\Microsoft Visual Studio\2019\Community\VC\Tools\MSVC\14.29.30133\atlmfc\include\afxcoll.inl
; File D:\git\src\IBK\IBK_DRFN\ProjSrc\SrcChartEx\ChartAddIn\ChartEnvSetupDlgAddIn\ChartEnvSetupDlgAddIn\DlgMainTabBaseEnvSetUp.cpp
; File C:\Program Files (x86)\Microsoft Visual Studio\2019\Community\VC\Tools\MSVC\14.29.30133\atlmfc\include\afxcoll.inl
; File D:\git\src\IBK\IBK_DRFN\ProjSrc\SrcChartEx\ChartAddIn\ChartEnvSetupDlgAddIn\ChartEnvSetupDlgAddIn\DlgMainTabBaseEnvSetUp.cpp
;	COMDAT ?SetShowLH_LC_HC@CDlgMainTabBaseEnvSetUp@@IAEXH@Z
_TEXT	SEGMENT
_arRQ$ = -92						; size = 20
_szGraphName$2 = -72					; size = 8
_this$1$ = -64						; size = 4
_nR$3 = -60						; size = 4
_nC$4 = -56						; size = 4
_nV$5 = -52						; size = 4
_nG$6 = -48						; size = 4
_pIGraphInfoManager$1$ = -44				; size = 4
_pIChartManager$1$ = -40				; size = 4
_bPrevCur$7 = -36					; size = 4
_nCurData$8 = -32					; size = 4
_bShowOHLC$9 = -28					; size = 4
_bLowHigh$10 = -24					; size = 4
_bLowCur$11 = -20					; size = 4
_bHighCur$12 = -16					; size = 4
__$EHRec$ = -12						; size = 12
_nLH_LC_HC$ = 8						; size = 4
?SetShowLH_LC_HC@CDlgMainTabBaseEnvSetUp@@IAEXH@Z PROC	; CDlgMainTabBaseEnvSetUp::SetShowLH_LC_HC, COMDAT
; _this$ = ecx

; 1909 : {

  00000	55		 push	 ebp
  00001	8b ec		 mov	 ebp, esp
  00003	6a ff		 push	 -1
  00005	68 00 00 00 00	 push	 __ehhandler$?SetShowLH_LC_HC@CDlgMainTabBaseEnvSetUp@@IAEXH@Z
  0000a	64 a1 00 00 00
	00		 mov	 eax, DWORD PTR fs:0
  00010	50		 push	 eax
  00011	83 ec 50	 sub	 esp, 80			; 00000050H
  00014	53		 push	 ebx
  00015	56		 push	 esi
  00016	57		 push	 edi
  00017	a1 00 00 00 00	 mov	 eax, DWORD PTR ___security_cookie
  0001c	33 c5		 xor	 eax, ebp
  0001e	50		 push	 eax
  0001f	8d 45 f4	 lea	 eax, DWORD PTR __$EHRec$[ebp]
  00022	64 a3 00 00 00
	00		 mov	 DWORD PTR fs:0, eax
  00028	8b f9		 mov	 edi, ecx
  0002a	89 7d c0	 mov	 DWORD PTR _this$1$[ebp], edi

; 1910 : 	// (2008/11/3 - Seung-Won, Bae) for multiple indicator.
; 1911 : 	IPacketListManager *pIPacketListManager = m_pIChartOCX->GetIPacketListManager();

  0002d	8b 8f d8 09 00
	00		 mov	 ecx, DWORD PTR [edi+2520]
  00033	8b 01		 mov	 eax, DWORD PTR [ecx]
  00035	ff 50 28	 call	 DWORD PTR [eax+40]
  00038	8b f0		 mov	 esi, eax

; 1912 : 	if( !pIPacketListManager) return;

  0003a	85 f6		 test	 esi, esi
  0003c	0f 84 1b 02 00
	00		 je	 $LN1@SetShowLH_

; 1913 : 	CStringArray arRQ;

  00042	8d 4d a4	 lea	 ecx, DWORD PTR _arRQ$[ebp]
  00045	e8 00 00 00 00	 call	 ??0CStringArray@@QAE@XZ	; CStringArray::CStringArray

; 1914 : 	pIPacketListManager->GetAllRQ( arRQ);

  0004a	8b 16		 mov	 edx, DWORD PTR [esi]
  0004c	8d 45 a4	 lea	 eax, DWORD PTR _arRQ$[ebp]
  0004f	50		 push	 eax
  00050	8b ce		 mov	 ecx, esi
  00052	c7 45 fc 00 00
	00 00		 mov	 DWORD PTR __$EHRec$[ebp+8], 0
  00059	ff 52 1c	 call	 DWORD PTR [edx+28]
; File C:\Program Files (x86)\Microsoft Visual Studio\2019\Community\VC\Tools\MSVC\14.29.30133\atlmfc\include\afxcoll.inl

; 316  : 		SetAtGrow(nIndex, newElement);

  0005c	68 00 00 00 00	 push	 OFFSET ??_C@_07MGCPDNLD@DEFAULT@
  00061	ff 75 ac	 push	 DWORD PTR _arRQ$[ebp+8]
  00064	8d 4d a4	 lea	 ecx, DWORD PTR _arRQ$[ebp]
  00067	e8 00 00 00 00	 call	 ?SetAtGrow@CStringArray@@QAEXHPBD@Z ; CStringArray::SetAtGrow
; File D:\git\src\IBK\IBK_DRFN\ProjSrc\SrcChartEx\ChartAddIn\ChartEnvSetupDlgAddIn\ChartEnvSetupDlgAddIn\DlgMainTabBaseEnvSetUp.cpp

; 1916 : 	pIPacketListManager->Release();

  0006c	8b 06		 mov	 eax, DWORD PTR [esi]
  0006e	56		 push	 esi
  0006f	ff 50 08	 call	 DWORD PTR [eax+8]

; 1917 : 
; 1918 : 	IChartManager *pIChartManager = m_pIChartOCX->GetIChartManager();

  00072	8b 8f d8 09 00
	00		 mov	 ecx, DWORD PTR [edi+2520]
  00078	8b 01		 mov	 eax, DWORD PTR [ecx]
  0007a	ff 50 18	 call	 DWORD PTR [eax+24]
  0007d	8b d8		 mov	 ebx, eax
  0007f	89 5d d8	 mov	 DWORD PTR _pIChartManager$1$[ebp], ebx

; 1919 : 	if( !pIChartManager) return;

  00082	85 db		 test	 ebx, ebx
  00084	0f 84 cb 01 00
	00		 je	 $LN15@SetShowLH_

; 1920 : 
; 1921 : 	IGraphInfoManager *pIGraphInfoManager = m_pIChartOCX->GetIGraphInfoManager();

  0008a	8b 8f d8 09 00
	00		 mov	 ecx, DWORD PTR [edi+2520]
  00090	8b 11		 mov	 edx, DWORD PTR [ecx]
  00092	ff 52 20	 call	 DWORD PTR [edx+32]
  00095	8b f8		 mov	 edi, eax
  00097	89 7d d4	 mov	 DWORD PTR _pIGraphInfoManager$1$[ebp], edi

; 1922 : 	if( !pIGraphInfoManager)

  0009a	85 ff		 test	 edi, edi
  0009c	75 0b		 jne	 SHORT $LN7@SetShowLH_

; 1923 : 	{
; 1924 : 		pIChartManager->Release();

  0009e	8b 03		 mov	 eax, DWORD PTR [ebx]
  000a0	53		 push	 ebx
  000a1	ff 50 08	 call	 DWORD PTR [eax+8]
  000a4	e9 ac 01 00 00	 jmp	 $LN15@SetShowLH_
$LN7@SetShowLH_:

; 1928 : 	for( int i = 0; i < arRQ.GetSize(); i++)

  000a9	8b 45 ac	 mov	 eax, DWORD PTR _arRQ$[ebp+8]
  000ac	33 f6		 xor	 esi, esi
  000ae	85 c0		 test	 eax, eax
  000b0	0f 8e 59 01 00
	00		 jle	 $LN3@SetShowLH_
  000b6	66 66 0f 1f 84
	00 00 00 00 00	 npad	 10
$LL4@SetShowLH_:

; 1929 : 	{
; 1930 : 		int nR = -1, nC = -1, nV = -1, nG = -1;

  000c0	c7 45 c4 ff ff
	ff ff		 mov	 DWORD PTR _nR$3[ebp], -1
  000c7	c7 45 c8 ff ff
	ff ff		 mov	 DWORD PTR _nC$4[ebp], -1
  000ce	c7 45 cc ff ff
	ff ff		 mov	 DWORD PTR _nV$5[ebp], -1
  000d5	c7 45 d0 ff ff
	ff ff		 mov	 DWORD PTR _nG$6[ebp], -1
; File C:\Program Files (x86)\Microsoft Visual Studio\2019\Community\VC\Tools\MSVC\14.29.30133\atlmfc\include\afxcoll.inl

; 289  : 		if( nIndex < 0 || nIndex >= m_nSize )

  000dc	85 f6		 test	 esi, esi
  000de	0f 88 8d 01 00
	00		 js	 $LN37@SetShowLH_
  000e4	3b f0		 cmp	 esi, eax
  000e6	0f 8d 85 01 00
	00		 jge	 $LN37@SetShowLH_

; 291  : 		return m_pData[nIndex]; }

  000ec	8b 45 a8	 mov	 eax, DWORD PTR _arRQ$[ebp+4]
; File D:\git\src\IBK\IBK_DRFN\ProjSrc\SrcChartEx\ChartAddIn\ChartEnvSetupDlgAddIn\ChartEnvSetupDlgAddIn\DlgMainTabBaseEnvSetUp.cpp

; 1931 : 		ILPCSTR szGraphName = pIChartManager->FindFirstIndicator( _MTEXT( C2_PRICE_CHART), nR, nC, nV, nG, arRQ.GetAt( i));

  000ef	8b cb		 mov	 ecx, ebx
  000f1	8b 13		 mov	 edx, DWORD PTR [ebx]
  000f3	ff 34 b0	 push	 DWORD PTR [eax+esi*4]
  000f6	8d 45 d0	 lea	 eax, DWORD PTR _nG$6[ebp]
  000f9	50		 push	 eax
  000fa	8d 45 cc	 lea	 eax, DWORD PTR _nV$5[ebp]
  000fd	50		 push	 eax
  000fe	8d 45 c8	 lea	 eax, DWORD PTR _nC$4[ebp]
  00101	50		 push	 eax
  00102	8d 45 c4	 lea	 eax, DWORD PTR _nR$3[ebp]
  00105	50		 push	 eax
  00106	a1 54 00 00 00	 mov	 eax, DWORD PTR ?g_iMetaTable@@3VIMetaTable@@A+84
  0010b	ff b0 28 03 00
	00		 push	 DWORD PTR [eax+808]
  00111	ff 52 58	 call	 DWORD PTR [edx+88]
; File D:\git\src\IBK\IBK_DRFN\ProjSrc\SrcChartEx\ChartAddIn\ChartEnvSetupDlgAddIn\Include_AddIn_135914\I135914\_IString.h

; 39   : 		m_pIStrData = p_pIString;	// Do not AddRef(). Because It must be Return Value.

  00114	8b f8		 mov	 edi, eax
  00116	89 7d bc	 mov	 DWORD PTR _szGraphName$2[ebp+4], edi

; 40   : 		if( m_pIStrData) m_szData = m_pIStrData->GetData();

  00119	85 ff		 test	 edi, edi
  0011b	74 0b		 je	 SHORT $LN26@SetShowLH_
  0011d	8b 17		 mov	 edx, DWORD PTR [edi]
  0011f	8b cf		 mov	 ecx, edi
  00121	ff 52 10	 call	 DWORD PTR [edx+16]
  00124	8b c8		 mov	 ecx, eax
  00126	eb 02		 jmp	 SHORT $LN44@SetShowLH_
$LN26@SetShowLH_:

; 41   : 		else m_szData = NULL;

  00128	33 c9		 xor	 ecx, ecx
$LN44@SetShowLH_:
; File D:\git\src\IBK\IBK_DRFN\ProjSrc\SrcChartEx\ChartAddIn\ChartEnvSetupDlgAddIn\ChartEnvSetupDlgAddIn\DlgMainTabBaseEnvSetUp.cpp

; 1931 : 		ILPCSTR szGraphName = pIChartManager->FindFirstIndicator( _MTEXT( C2_PRICE_CHART), nR, nC, nV, nG, arRQ.GetAt( i));

  0012a	89 4d b8	 mov	 DWORD PTR _szGraphName$2[ebp], ecx
  0012d	c6 45 fc 01	 mov	 BYTE PTR __$EHRec$[ebp+8], 1
; File D:\git\src\IBK\IBK_DRFN\ProjSrc\SrcChartEx\ChartAddIn\ChartEnvSetupDlgAddIn\Include_AddIn_135914\I135914\_IString.h

; 57   : 		if( !m_szData) return TRUE;

  00131	85 c9		 test	 ecx, ecx
  00133	0f 84 a7 00 00
	00		 je	 $LN9@SetShowLH_
; File D:\git\src\IBK\IBK_DRFN\ProjSrc\SrcChartEx\ChartAddIn\ChartEnvSetupDlgAddIn\ChartEnvSetupDlgAddIn\DlgMainTabBaseEnvSetUp.cpp

; 1932 : 		if( !szGraphName.IsEmpty())

  00139	80 39 00	 cmp	 BYTE PTR [ecx], 0
  0013c	0f 84 9e 00 00
	00		 je	 $LN9@SetShowLH_

; 1933 : 		{
; 1934 : 			IGraphInfo *pIPriceChart = pIGraphInfoManager->GetGraphInfo( IGraphInfoManager::IEILT_USER, szGraphName);

  00142	8b 55 d4	 mov	 edx, DWORD PTR _pIGraphInfoManager$1$[ebp]
  00145	51		 push	 ecx
  00146	6a 03		 push	 3
  00148	8b ca		 mov	 ecx, edx
  0014a	8b 02		 mov	 eax, DWORD PTR [edx]
  0014c	ff 50 14	 call	 DWORD PTR [eax+20]
  0014f	8b d8		 mov	 ebx, eax

; 1935 : 			if( pIPriceChart)

  00151	85 db		 test	 ebx, ebx
  00153	0f 84 84 00 00
	00		 je	 $LN41@SetShowLH_

; 1936 : 			{
; 1937 : 				BOOL bLowHigh = FALSE, bLowCur = FALSE, bHighCur = FALSE, bPrevCur = FALSE, bShowOHLC = FALSE;
; 1938 : 				int nCurData = 0;
; 1939 : 				pIPriceChart->GetGraphDataDrawingData( bLowHigh, bLowCur, bHighCur, bPrevCur, nCurData, bShowOHLC);

  00159	8b 03		 mov	 eax, DWORD PTR [ebx]
  0015b	8d 4d e4	 lea	 ecx, DWORD PTR _bShowOHLC$9[ebp]
  0015e	51		 push	 ecx
  0015f	8d 4d e0	 lea	 ecx, DWORD PTR _nCurData$8[ebp]
  00162	c7 45 e8 00 00
	00 00		 mov	 DWORD PTR _bLowHigh$10[ebp], 0
  00169	51		 push	 ecx
  0016a	8d 4d dc	 lea	 ecx, DWORD PTR _bPrevCur$7[ebp]
  0016d	c7 45 ec 00 00
	00 00		 mov	 DWORD PTR _bLowCur$11[ebp], 0
  00174	51		 push	 ecx
  00175	8d 4d f0	 lea	 ecx, DWORD PTR _bHighCur$12[ebp]
  00178	c7 45 f0 00 00
	00 00		 mov	 DWORD PTR _bHighCur$12[ebp], 0
  0017f	51		 push	 ecx
  00180	8d 4d ec	 lea	 ecx, DWORD PTR _bLowCur$11[ebp]
  00183	c7 45 dc 00 00
	00 00		 mov	 DWORD PTR _bPrevCur$7[ebp], 0
  0018a	51		 push	 ecx
  0018b	8d 4d e8	 lea	 ecx, DWORD PTR _bLowHigh$10[ebp]
  0018e	c7 45 e4 00 00
	00 00		 mov	 DWORD PTR _bShowOHLC$9[ebp], 0
  00195	51		 push	 ecx
  00196	8b cb		 mov	 ecx, ebx
  00198	c7 45 e0 00 00
	00 00		 mov	 DWORD PTR _nCurData$8[ebp], 0
  0019f	ff 90 ac 00 00
	00		 call	 DWORD PTR [eax+172]

; 1940 : 				bLowHigh = bLowCur = bHighCur = ( nLH_LC_HC == 1);

  001a5	8b 55 08	 mov	 edx, DWORD PTR _nLH_LC_HC$[ebp]
  001a8	33 c9		 xor	 ecx, ecx
  001aa	83 fa 01	 cmp	 edx, 1
  001ad	0f 94 c1	 sete	 cl

; 1941 : 				bShowOHLC = ( nLH_LC_HC == 0);

  001b0	33 c0		 xor	 eax, eax
  001b2	85 d2		 test	 edx, edx
  001b4	89 4d f0	 mov	 DWORD PTR _bHighCur$12[ebp], ecx

; 1942 : 				pIPriceChart->SetGraphDataDrawingData( bLowHigh, bLowCur, bHighCur, bPrevCur, nCurData, bShowOHLC);

  001b7	8b 13		 mov	 edx, DWORD PTR [ebx]
  001b9	0f 94 c0	 sete	 al
  001bc	89 4d ec	 mov	 DWORD PTR _bLowCur$11[ebp], ecx
  001bf	50		 push	 eax
  001c0	ff 75 e0	 push	 DWORD PTR _nCurData$8[ebp]
  001c3	89 4d e8	 mov	 DWORD PTR _bLowHigh$10[ebp], ecx
  001c6	ff 75 dc	 push	 DWORD PTR _bPrevCur$7[ebp]
  001c9	89 45 e4	 mov	 DWORD PTR _bShowOHLC$9[ebp], eax
  001cc	51		 push	 ecx
  001cd	51		 push	 ecx
  001ce	51		 push	 ecx
  001cf	8b cb		 mov	 ecx, ebx
  001d1	ff 92 b0 00 00
	00		 call	 DWORD PTR [edx+176]

; 1943 : 				pIPriceChart->Release();

  001d7	8b 03		 mov	 eax, DWORD PTR [ebx]
  001d9	53		 push	 ebx
  001da	ff 50 08	 call	 DWORD PTR [eax+8]
$LN41@SetShowLH_:
; File D:\git\src\IBK\IBK_DRFN\ProjSrc\SrcChartEx\ChartAddIn\ChartEnvSetupDlgAddIn\Include_AddIn_135914\I135914\_IString.h

; 44   : 	{

  001dd	8b 5d d8	 mov	 ebx, DWORD PTR _pIChartManager$1$[ebp]
$LN9@SetShowLH_:
  001e0	c6 45 fc 02	 mov	 BYTE PTR __$EHRec$[ebp+8], 2

; 45   : 		if( m_pIStrData)

  001e4	85 ff		 test	 edi, edi
  001e6	74 14		 je	 SHORT $LN33@SetShowLH_

; 46   : 		{
; 47   : 			m_pIStrData->Release();

  001e8	8b 07		 mov	 eax, DWORD PTR [edi]
  001ea	57		 push	 edi
  001eb	ff 50 08	 call	 DWORD PTR [eax+8]

; 48   : 			m_pIStrData = NULL;

  001ee	c7 45 bc 00 00
	00 00		 mov	 DWORD PTR _szGraphName$2[ebp+4], 0

; 49   : 			m_szData = NULL;

  001f5	c7 45 b8 00 00
	00 00		 mov	 DWORD PTR _szGraphName$2[ebp], 0
$LN33@SetShowLH_:
; File D:\git\src\IBK\IBK_DRFN\ProjSrc\SrcChartEx\ChartAddIn\ChartEnvSetupDlgAddIn\ChartEnvSetupDlgAddIn\DlgMainTabBaseEnvSetUp.cpp

; 1928 : 	for( int i = 0; i < arRQ.GetSize(); i++)

  001fc	8b 45 ac	 mov	 eax, DWORD PTR _arRQ$[ebp+8]
  001ff	46		 inc	 esi
; File D:\git\src\IBK\IBK_DRFN\ProjSrc\SrcChartEx\ChartAddIn\ChartEnvSetupDlgAddIn\Include_AddIn_135914\I135914\_IString.h

; 51   : 	}

  00200	c6 45 fc 00	 mov	 BYTE PTR __$EHRec$[ebp+8], 0
; File D:\git\src\IBK\IBK_DRFN\ProjSrc\SrcChartEx\ChartAddIn\ChartEnvSetupDlgAddIn\ChartEnvSetupDlgAddIn\DlgMainTabBaseEnvSetUp.cpp

; 1928 : 	for( int i = 0; i < arRQ.GetSize(); i++)

  00204	3b f0		 cmp	 esi, eax
  00206	0f 8c b4 fe ff
	ff		 jl	 $LL4@SetShowLH_
; File C:\Program Files (x86)\Microsoft Visual Studio\2019\Community\VC\Tools\MSVC\14.29.30133\atlmfc\include\afxcoll.inl

; 289  : 		if( nIndex < 0 || nIndex >= m_nSize )

  0020c	8b 7d d4	 mov	 edi, DWORD PTR _pIGraphInfoManager$1$[ebp]
$LN3@SetShowLH_:
; File D:\git\src\IBK\IBK_DRFN\ProjSrc\SrcChartEx\ChartAddIn\ChartEnvSetupDlgAddIn\ChartEnvSetupDlgAddIn\DlgMainTabBaseEnvSetUp.cpp

; 1949 : 	pIChartManager->ChangeAllGraphDataFromGraphInfo( FALSE);

  0020f	8b 03		 mov	 eax, DWORD PTR [ebx]
  00211	8b cb		 mov	 ecx, ebx
  00213	6a 00		 push	 0
  00215	ff 50 78	 call	 DWORD PTR [eax+120]

; 1950 : 
; 1951 : 	pIChartManager->Release();

  00218	8b 03		 mov	 eax, DWORD PTR [ebx]
  0021a	53		 push	 ebx
  0021b	ff 50 08	 call	 DWORD PTR [eax+8]

; 1952 : 	pIGraphInfoManager->Release();

  0021e	8b 07		 mov	 eax, DWORD PTR [edi]
  00220	57		 push	 edi
  00221	ff 50 08	 call	 DWORD PTR [eax+8]

; 1953 : 
; 1954 : 	// (2008/10/26 - Seung-Won, Bae) for O/H/L/C (not LH/LC/HC)
; 1955 : 	IAddInToolMgr *pIAddInToolMgr = m_pIChartOCX->GetIAddInToolMgr();

  00224	8b 7d c0	 mov	 edi, DWORD PTR _this$1$[ebp]
  00227	8b 8f d8 09 00
	00		 mov	 ecx, DWORD PTR [edi+2520]
  0022d	8b 01		 mov	 eax, DWORD PTR [ecx]
  0022f	ff 50 24	 call	 DWORD PTR [eax+36]
  00232	8b f0		 mov	 esi, eax

; 1956 : 	if( pIAddInToolMgr)

  00234	85 f6		 test	 esi, esi
  00236	74 12		 je	 SHORT $LN10@SetShowLH_

; 1957 : 	{
; 1958 : 		pIAddInToolMgr->OnAddInToolCommand( EAI_ENVSETUP_LHLCHC_CHANGED);

  00238	8b 16		 mov	 edx, DWORD PTR [esi]
  0023a	8b ce		 mov	 ecx, esi
  0023c	6a 3f		 push	 63			; 0000003fH
  0023e	ff 92 88 00 00
	00		 call	 DWORD PTR [edx+136]

; 1959 : 		pIAddInToolMgr->Release();

  00244	8b 0e		 mov	 ecx, DWORD PTR [esi]
  00246	56		 push	 esi
  00247	ff 51 08	 call	 DWORD PTR [ecx+8]
$LN10@SetShowLH_:

; 1960 : 	}
; 1961 : 
; 1962 : 	m_pIChartOCX->InvalidateControl();

  0024a	8b 8f d8 09 00
	00		 mov	 ecx, DWORD PTR [edi+2520]
  00250	8b 01		 mov	 eax, DWORD PTR [ecx]
  00252	ff 50 38	 call	 DWORD PTR [eax+56]
$LN15@SetShowLH_:

; 1963 : }

  00255	8d 4d a4	 lea	 ecx, DWORD PTR _arRQ$[ebp]
  00258	e8 00 00 00 00	 call	 ??1CStringArray@@UAE@XZ	; CStringArray::~CStringArray
$LN1@SetShowLH_:
  0025d	8b 4d f4	 mov	 ecx, DWORD PTR __$EHRec$[ebp]
  00260	64 89 0d 00 00
	00 00		 mov	 DWORD PTR fs:0, ecx
  00267	59		 pop	 ecx
  00268	5f		 pop	 edi
  00269	5e		 pop	 esi
  0026a	5b		 pop	 ebx
  0026b	8b e5		 mov	 esp, ebp
  0026d	5d		 pop	 ebp
  0026e	c2 04 00	 ret	 4
$LN37@SetShowLH_:
; File C:\Program Files (x86)\Microsoft Visual Studio\2019\Community\VC\Tools\MSVC\14.29.30133\atlmfc\include\afxcoll.inl

; 290  : 			AfxThrowInvalidArgException();

  00271	e8 00 00 00 00	 call	 ?AfxThrowInvalidArgException@@YGXXZ ; AfxThrowInvalidArgException
$LN43@SetShowLH_:
  00276	cc		 int	 3
_TEXT	ENDS
;	COMDAT text$x
text$x	SEGMENT
__unwindfunclet$?SetShowLH_LC_HC@CDlgMainTabBaseEnvSetUp@@IAEXH@Z$0:
  00000	8d 4d a4	 lea	 ecx, DWORD PTR _arRQ$[ebp]
  00003	e9 00 00 00 00	 jmp	 ??1CStringArray@@UAE@XZ	; CStringArray::~CStringArray
__unwindfunclet$?SetShowLH_LC_HC@CDlgMainTabBaseEnvSetUp@@IAEXH@Z$1:
  00008	8d 4d b8	 lea	 ecx, DWORD PTR _szGraphName$2[ebp]
  0000b	e9 00 00 00 00	 jmp	 ??1ILPCSTR135914@@QAE@XZ ; ILPCSTR135914::~ILPCSTR135914
  00010	cc		 int	 3
  00011	cc		 int	 3
  00012	cc		 int	 3
  00013	cc		 int	 3
  00014	cc		 int	 3
__ehhandler$?SetShowLH_LC_HC@CDlgMainTabBaseEnvSetUp@@IAEXH@Z:
  00015	90		 npad	 1
  00016	90		 npad	 1
  00017	8b 54 24 08	 mov	 edx, DWORD PTR [esp+8]
  0001b	8d 42 0c	 lea	 eax, DWORD PTR [edx+12]
  0001e	8b 4a a0	 mov	 ecx, DWORD PTR [edx-96]
  00021	33 c8		 xor	 ecx, eax
  00023	e8 00 00 00 00	 call	 @__security_check_cookie@4
  00028	b8 00 00 00 00	 mov	 eax, OFFSET __ehfuncinfo$?SetShowLH_LC_HC@CDlgMainTabBaseEnvSetUp@@IAEXH@Z
  0002d	e9 00 00 00 00	 jmp	 ___CxxFrameHandler3
text$x	ENDS
?SetShowLH_LC_HC@CDlgMainTabBaseEnvSetUp@@IAEXH@Z ENDP	; CDlgMainTabBaseEnvSetUp::SetShowLH_LC_HC
; Function compile flags: /Ogtp
; File D:\git\src\IBK\IBK_DRFN\ProjSrc\SrcChartEx\ChartAddIn\ChartEnvSetupDlgAddIn\ChartEnvSetupDlgAddIn\DlgMainTabBaseEnvSetUp.cpp
;	COMDAT ?SetYScalePosition@CDlgMainTabBaseEnvSetUp@@IAEXH@Z
_TEXT	SEGMENT
_nPosition$ = 8						; size = 4
?SetYScalePosition@CDlgMainTabBaseEnvSetUp@@IAEXH@Z PROC ; CDlgMainTabBaseEnvSetUp::SetYScalePosition, COMDAT
; _this$ = ecx

; 1988 : {

  00000	55		 push	 ebp
  00001	8b ec		 mov	 ebp, esp

; 1989 : 	IChartManager *pIChartManager = m_pIChartOCX->GetIChartManager();

  00003	8b 89 d8 09 00
	00		 mov	 ecx, DWORD PTR [ecx+2520]
  00009	56		 push	 esi
  0000a	8b 01		 mov	 eax, DWORD PTR [ecx]
  0000c	ff 50 18	 call	 DWORD PTR [eax+24]
  0000f	8b f0		 mov	 esi, eax

; 1990 : 	if( !pIChartManager) return;

  00011	85 f6		 test	 esi, esi
  00013	74 10		 je	 SHORT $LN1@SetYScaleP

; 1991 : 
; 1992 : 	pIChartManager->SetAllVertScalePosition( CScaleBaseData::VERTSCALEPOSITION( nPosition));

  00015	8b 16		 mov	 edx, DWORD PTR [esi]
  00017	8b ce		 mov	 ecx, esi
  00019	ff 75 08	 push	 DWORD PTR _nPosition$[ebp]
  0001c	ff 52 38	 call	 DWORD PTR [edx+56]

; 1993 : 	pIChartManager->Release();

  0001f	8b 06		 mov	 eax, DWORD PTR [esi]
  00021	56		 push	 esi
  00022	ff 50 08	 call	 DWORD PTR [eax+8]
$LN1@SetYScaleP:
  00025	5e		 pop	 esi

; 1994 : }

  00026	5d		 pop	 ebp
  00027	c2 04 00	 ret	 4
?SetYScalePosition@CDlgMainTabBaseEnvSetUp@@IAEXH@Z ENDP ; CDlgMainTabBaseEnvSetUp::SetYScalePosition
_TEXT	ENDS
; Function compile flags: /Ogtp
; File D:\git\src\IBK\IBK_DRFN\ProjSrc\SrcChartEx\ChartAddIn\ChartEnvSetupDlgAddIn\ChartEnvSetupDlgAddIn\DlgMainTabBaseEnvSetUp.cpp
;	COMDAT ?SetShowIndicatorValue@CDlgMainTabBaseEnvSetUp@@IAEX_N@Z
_TEXT	SEGMENT
_bWithConditionValue$ = -8				; size = 4
_bWithLastValue$ = -4					; size = 4
_bShow$ = 8						; size = 1
?SetShowIndicatorValue@CDlgMainTabBaseEnvSetUp@@IAEX_N@Z PROC ; CDlgMainTabBaseEnvSetUp::SetShowIndicatorValue, COMDAT
; _this$ = ecx

; 1977 : {

  00000	55		 push	 ebp
  00001	8b ec		 mov	 ebp, esp
  00003	83 ec 08	 sub	 esp, 8
  00006	56		 push	 esi
  00007	8b f1		 mov	 esi, ecx

; 1978 : 	BOOL bWithConditionValue = FALSE, bWithLastValue = FALSE;

  00009	c7 45 f8 00 00
	00 00		 mov	 DWORD PTR _bWithConditionValue$[ebp], 0

; 1979 : 	m_pIChartOCX->GetGraphTitleOption( bWithConditionValue, bWithLastValue);

  00010	8d 55 fc	 lea	 edx, DWORD PTR _bWithLastValue$[ebp]
  00013	c7 45 fc 00 00
	00 00		 mov	 DWORD PTR _bWithLastValue$[ebp], 0
  0001a	52		 push	 edx
  0001b	8d 55 f8	 lea	 edx, DWORD PTR _bWithConditionValue$[ebp]
  0001e	8b 8e d8 09 00
	00		 mov	 ecx, DWORD PTR [esi+2520]
  00024	52		 push	 edx
  00025	8b 01		 mov	 eax, DWORD PTR [ecx]
  00027	ff 90 f8 01 00
	00		 call	 DWORD PTR [eax+504]

; 1980 : 
; 1981 : 	bWithLastValue = bShow;
; 1982 : 	m_pIChartOCX->SetGraphTitleOption( bWithConditionValue, bWithLastValue);

  0002d	8b 8e d8 09 00
	00		 mov	 ecx, DWORD PTR [esi+2520]
  00033	0f b6 45 08	 movzx	 eax, BYTE PTR _bShow$[ebp]
  00037	89 45 fc	 mov	 DWORD PTR _bWithLastValue$[ebp], eax
  0003a	50		 push	 eax
  0003b	8b 11		 mov	 edx, DWORD PTR [ecx]
  0003d	ff 75 f8	 push	 DWORD PTR _bWithConditionValue$[ebp]
  00040	ff 92 fc 01 00
	00		 call	 DWORD PTR [edx+508]
  00046	5e		 pop	 esi

; 1983 : 
; 1984 : //	m_MChartInterface.MChart_SetShowIndicatorVariableToOutside(bShow);
; 1985 : }

  00047	8b e5		 mov	 esp, ebp
  00049	5d		 pop	 ebp
  0004a	c2 04 00	 ret	 4
?SetShowIndicatorValue@CDlgMainTabBaseEnvSetUp@@IAEX_N@Z ENDP ; CDlgMainTabBaseEnvSetUp::SetShowIndicatorValue
_TEXT	ENDS
; Function compile flags: /Ogtp
; File D:\git\src\IBK\IBK_DRFN\ProjSrc\SrcChartEx\ChartAddIn\ChartEnvSetupDlgAddIn\ChartEnvSetupDlgAddIn\DlgMainTabBaseEnvSetUp.cpp
;	COMDAT ?SetShowIndicatorVariable@CDlgMainTabBaseEnvSetUp@@IAEX_N@Z
_TEXT	SEGMENT
_bWithLastValue$ = -8					; size = 4
_bWithConditionValue$ = -4				; size = 4
_bShow$ = 8						; size = 1
?SetShowIndicatorVariable@CDlgMainTabBaseEnvSetUp@@IAEX_N@Z PROC ; CDlgMainTabBaseEnvSetUp::SetShowIndicatorVariable, COMDAT
; _this$ = ecx

; 1966 : {

  00000	55		 push	 ebp
  00001	8b ec		 mov	 ebp, esp
  00003	83 ec 08	 sub	 esp, 8
  00006	56		 push	 esi
  00007	8b f1		 mov	 esi, ecx

; 1967 : 	BOOL bWithConditionValue = FALSE, bWithLastValue = FALSE;

  00009	c7 45 fc 00 00
	00 00		 mov	 DWORD PTR _bWithConditionValue$[ebp], 0

; 1968 : 	m_pIChartOCX->GetGraphTitleOption( bWithConditionValue, bWithLastValue);

  00010	8d 55 f8	 lea	 edx, DWORD PTR _bWithLastValue$[ebp]
  00013	c7 45 f8 00 00
	00 00		 mov	 DWORD PTR _bWithLastValue$[ebp], 0
  0001a	52		 push	 edx
  0001b	8d 55 fc	 lea	 edx, DWORD PTR _bWithConditionValue$[ebp]
  0001e	8b 8e d8 09 00
	00		 mov	 ecx, DWORD PTR [esi+2520]
  00024	52		 push	 edx
  00025	8b 01		 mov	 eax, DWORD PTR [ecx]
  00027	ff 90 f8 01 00
	00		 call	 DWORD PTR [eax+504]

; 1969 : 
; 1970 : 	bWithConditionValue = bShow;
; 1971 : 	m_pIChartOCX->SetGraphTitleOption( bWithConditionValue, bWithLastValue);

  0002d	8b 8e d8 09 00
	00		 mov	 ecx, DWORD PTR [esi+2520]
  00033	0f b6 55 08	 movzx	 edx, BYTE PTR _bShow$[ebp]
  00037	ff 75 f8	 push	 DWORD PTR _bWithLastValue$[ebp]
  0003a	89 55 fc	 mov	 DWORD PTR _bWithConditionValue$[ebp], edx
  0003d	8b 01		 mov	 eax, DWORD PTR [ecx]
  0003f	52		 push	 edx
  00040	ff 90 fc 01 00
	00		 call	 DWORD PTR [eax+508]
  00046	5e		 pop	 esi

; 1972 : 
; 1973 : //	m_MChartInterface.MChart_SetShowIndicatorVariableToOutside(bShow);
; 1974 : }

  00047	8b e5		 mov	 esp, ebp
  00049	5d		 pop	 ebp
  0004a	c2 04 00	 ret	 4
?SetShowIndicatorVariable@CDlgMainTabBaseEnvSetUp@@IAEX_N@Z ENDP ; CDlgMainTabBaseEnvSetUp::SetShowIndicatorVariable
_TEXT	ENDS
; Function compile flags: /Ogtp
; File D:\git\src\IBK\IBK_DRFN\ProjSrc\SrcChartEx\ChartAddIn\ChartEnvSetupDlgAddIn\ChartEnvSetupDlgAddIn\DlgMainTabBaseEnvSetUp.cpp
; File C:\Program Files (x86)\Microsoft Visual Studio\2019\Community\VC\Tools\MSVC\14.29.30133\atlmfc\include\afxcoll.inl
; File D:\git\src\IBK\IBK_DRFN\ProjSrc\SrcChartEx\ChartAddIn\ChartEnvSetupDlgAddIn\ChartEnvSetupDlgAddIn\DlgMainTabBaseEnvSetUp.cpp
; File C:\Program Files (x86)\Microsoft Visual Studio\2019\Community\VC\Tools\MSVC\14.29.30133\atlmfc\include\afxcoll.inl
; File D:\git\src\IBK\IBK_DRFN\ProjSrc\SrcChartEx\ChartAddIn\ChartEnvSetupDlgAddIn\ChartEnvSetupDlgAddIn\DlgMainTabBaseEnvSetUp.cpp
; File D:\git\src\IBK\IBK_DRFN\ProjSrc\SrcChartEx\ChartAddIn\ChartEnvSetupDlgAddIn\Include_AddIn_135914\I135914\_IString.h
; File D:\git\src\IBK\IBK_DRFN\ProjSrc\SrcChartEx\ChartAddIn\ChartEnvSetupDlgAddIn\ChartEnvSetupDlgAddIn\DlgMainTabBaseEnvSetUp.cpp
; File D:\git\src\IBK\IBK_DRFN\ProjSrc\SrcChartEx\ChartAddIn\ChartEnvSetupDlgAddIn\Include_AddIn_135914\I135914\_IString.h
; File D:\git\src\IBK\IBK_DRFN\ProjSrc\SrcChartEx\ChartAddIn\ChartEnvSetupDlgAddIn\ChartEnvSetupDlgAddIn\DlgMainTabBaseEnvSetUp.cpp
; File D:\git\src\IBK\IBK_DRFN\ProjSrc\SrcChartEx\ChartAddIn\ChartEnvSetupDlgAddIn\Include_AddIn_135914\I135914\_IString.h
; File D:\git\src\IBK\IBK_DRFN\ProjSrc\SrcChartEx\ChartAddIn\ChartEnvSetupDlgAddIn\ChartEnvSetupDlgAddIn\DlgMainTabBaseEnvSetUp.cpp
; File D:\git\src\IBK\IBK_DRFN\ProjSrc\SrcChartEx\ChartAddIn\ChartEnvSetupDlgAddIn\Include_AddIn_135914\I135914\_IString.h
; File D:\git\src\IBK\IBK_DRFN\ProjSrc\SrcChartEx\ChartAddIn\ChartEnvSetupDlgAddIn\ChartEnvSetupDlgAddIn\DlgMainTabBaseEnvSetUp.cpp
; File C:\Program Files (x86)\Microsoft Visual Studio\2019\Community\VC\Tools\MSVC\14.29.30133\atlmfc\include\afxcoll.inl
; File D:\git\src\IBK\IBK_DRFN\ProjSrc\SrcChartEx\ChartAddIn\ChartEnvSetupDlgAddIn\ChartEnvSetupDlgAddIn\DlgMainTabBaseEnvSetUp.cpp
; File C:\Program Files (x86)\Microsoft Visual Studio\2019\Community\VC\Tools\MSVC\14.29.30133\atlmfc\include\afxcoll.inl
; File D:\git\src\IBK\IBK_DRFN\ProjSrc\SrcChartEx\ChartAddIn\ChartEnvSetupDlgAddIn\ChartEnvSetupDlgAddIn\DlgMainTabBaseEnvSetUp.cpp
;	COMDAT ?SetShowCurrentPrice@CDlgMainTabBaseEnvSetUp@@IAEXH@Z
_TEXT	SEGMENT
_arRQ$ = -92						; size = 20
_szGraphName$2 = -72					; size = 8
_this$1$ = -64						; size = 4
_nR$3 = -60						; size = 4
_nC$4 = -56						; size = 4
_nV$5 = -52						; size = 4
_nG$6 = -48						; size = 4
_pIGraphInfoManager$1$ = -44				; size = 4
_pIChartManager$1$ = -40				; size = 4
_bLowHigh$7 = -36					; size = 4
_bLowCur$8 = -32					; size = 4
_bHighCur$9 = -28					; size = 4
_bPrevCur$10 = -24					; size = 4
_bShowOHLC$11 = -20					; size = 4
_nCurData$12 = -16					; size = 4
__$EHRec$ = -12						; size = 12
_nShowType$ = 8						; size = 4
?SetShowCurrentPrice@CDlgMainTabBaseEnvSetUp@@IAEXH@Z PROC ; CDlgMainTabBaseEnvSetUp::SetShowCurrentPrice, COMDAT
; _this$ = ecx

; 1857 : {

  00000	55		 push	 ebp
  00001	8b ec		 mov	 ebp, esp
  00003	6a ff		 push	 -1
  00005	68 00 00 00 00	 push	 __ehhandler$?SetShowCurrentPrice@CDlgMainTabBaseEnvSetUp@@IAEXH@Z
  0000a	64 a1 00 00 00
	00		 mov	 eax, DWORD PTR fs:0
  00010	50		 push	 eax
  00011	83 ec 50	 sub	 esp, 80			; 00000050H
  00014	53		 push	 ebx
  00015	56		 push	 esi
  00016	57		 push	 edi
  00017	a1 00 00 00 00	 mov	 eax, DWORD PTR ___security_cookie
  0001c	33 c5		 xor	 eax, ebp
  0001e	50		 push	 eax
  0001f	8d 45 f4	 lea	 eax, DWORD PTR __$EHRec$[ebp]
  00022	64 a3 00 00 00
	00		 mov	 DWORD PTR fs:0, eax
  00028	8b f9		 mov	 edi, ecx
  0002a	89 7d c0	 mov	 DWORD PTR _this$1$[ebp], edi

; 1858 : 	// (2008/11/3 - Seung-Won, Bae) for multiple indicator.
; 1859 : 	IPacketListManager *pIPacketListManager = m_pIChartOCX->GetIPacketListManager();

  0002d	8b 8f d8 09 00
	00		 mov	 ecx, DWORD PTR [edi+2520]
  00033	8b 01		 mov	 eax, DWORD PTR [ecx]
  00035	ff 50 28	 call	 DWORD PTR [eax+40]
  00038	8b f0		 mov	 esi, eax

; 1860 : 	if( !pIPacketListManager) return;

  0003a	85 f6		 test	 esi, esi
  0003c	0f 84 f6 01 00
	00		 je	 $LN1@SetShowCur

; 1861 : 	CStringArray arRQ;

  00042	8d 4d a4	 lea	 ecx, DWORD PTR _arRQ$[ebp]
  00045	e8 00 00 00 00	 call	 ??0CStringArray@@QAE@XZ	; CStringArray::CStringArray

; 1862 : 	pIPacketListManager->GetAllRQ( arRQ);

  0004a	8b 16		 mov	 edx, DWORD PTR [esi]
  0004c	8d 45 a4	 lea	 eax, DWORD PTR _arRQ$[ebp]
  0004f	50		 push	 eax
  00050	8b ce		 mov	 ecx, esi
  00052	c7 45 fc 00 00
	00 00		 mov	 DWORD PTR __$EHRec$[ebp+8], 0
  00059	ff 52 1c	 call	 DWORD PTR [edx+28]
; File C:\Program Files (x86)\Microsoft Visual Studio\2019\Community\VC\Tools\MSVC\14.29.30133\atlmfc\include\afxcoll.inl

; 316  : 		SetAtGrow(nIndex, newElement);

  0005c	68 00 00 00 00	 push	 OFFSET ??_C@_07MGCPDNLD@DEFAULT@
  00061	ff 75 ac	 push	 DWORD PTR _arRQ$[ebp+8]
  00064	8d 4d a4	 lea	 ecx, DWORD PTR _arRQ$[ebp]
  00067	e8 00 00 00 00	 call	 ?SetAtGrow@CStringArray@@QAEXHPBD@Z ; CStringArray::SetAtGrow
; File D:\git\src\IBK\IBK_DRFN\ProjSrc\SrcChartEx\ChartAddIn\ChartEnvSetupDlgAddIn\ChartEnvSetupDlgAddIn\DlgMainTabBaseEnvSetUp.cpp

; 1864 : 	pIPacketListManager->Release();

  0006c	8b 06		 mov	 eax, DWORD PTR [esi]
  0006e	56		 push	 esi
  0006f	ff 50 08	 call	 DWORD PTR [eax+8]

; 1865 : 
; 1866 : 	IChartManager *pIChartManager = m_pIChartOCX->GetIChartManager();

  00072	8b 8f d8 09 00
	00		 mov	 ecx, DWORD PTR [edi+2520]
  00078	8b 01		 mov	 eax, DWORD PTR [ecx]
  0007a	ff 50 18	 call	 DWORD PTR [eax+24]
  0007d	8b d8		 mov	 ebx, eax
  0007f	89 5d d8	 mov	 DWORD PTR _pIChartManager$1$[ebp], ebx

; 1867 : 	if( !pIChartManager) return;

  00082	85 db		 test	 ebx, ebx
  00084	0f 84 a6 01 00
	00		 je	 $LN14@SetShowCur

; 1868 : 
; 1869 : 	IGraphInfoManager *pIGraphInfoManager = m_pIChartOCX->GetIGraphInfoManager();

  0008a	8b 8f d8 09 00
	00		 mov	 ecx, DWORD PTR [edi+2520]
  00090	8b 11		 mov	 edx, DWORD PTR [ecx]
  00092	ff 52 20	 call	 DWORD PTR [edx+32]
  00095	8b f8		 mov	 edi, eax
  00097	89 7d d4	 mov	 DWORD PTR _pIGraphInfoManager$1$[ebp], edi

; 1870 : 	if( !pIGraphInfoManager)

  0009a	85 ff		 test	 edi, edi
  0009c	75 0b		 jne	 SHORT $LN7@SetShowCur

; 1871 : 	{
; 1872 : 		pIChartManager->Release();

  0009e	8b 03		 mov	 eax, DWORD PTR [ebx]
  000a0	53		 push	 ebx
  000a1	ff 50 08	 call	 DWORD PTR [eax+8]
  000a4	e9 87 01 00 00	 jmp	 $LN14@SetShowCur
$LN7@SetShowCur:

; 1876 : 	for( int i = 0; i < arRQ.GetSize(); i++)

  000a9	8b 45 ac	 mov	 eax, DWORD PTR _arRQ$[ebp+8]
  000ac	33 f6		 xor	 esi, esi
  000ae	85 c0		 test	 eax, eax
  000b0	0f 8e 43 01 00
	00		 jle	 $LN3@SetShowCur
  000b6	66 66 0f 1f 84
	00 00 00 00 00	 npad	 10
$LL4@SetShowCur:

; 1877 : 	{
; 1878 : 		int nR = -1, nC = -1, nV = -1, nG = -1;

  000c0	c7 45 c4 ff ff
	ff ff		 mov	 DWORD PTR _nR$3[ebp], -1
  000c7	c7 45 c8 ff ff
	ff ff		 mov	 DWORD PTR _nC$4[ebp], -1
  000ce	c7 45 cc ff ff
	ff ff		 mov	 DWORD PTR _nV$5[ebp], -1
  000d5	c7 45 d0 ff ff
	ff ff		 mov	 DWORD PTR _nG$6[ebp], -1
; File C:\Program Files (x86)\Microsoft Visual Studio\2019\Community\VC\Tools\MSVC\14.29.30133\atlmfc\include\afxcoll.inl

; 289  : 		if( nIndex < 0 || nIndex >= m_nSize )

  000dc	85 f6		 test	 esi, esi
  000de	0f 88 68 01 00
	00		 js	 $LN36@SetShowCur
  000e4	3b f0		 cmp	 esi, eax
  000e6	0f 8d 60 01 00
	00		 jge	 $LN36@SetShowCur

; 291  : 		return m_pData[nIndex]; }

  000ec	8b 45 a8	 mov	 eax, DWORD PTR _arRQ$[ebp+4]
; File D:\git\src\IBK\IBK_DRFN\ProjSrc\SrcChartEx\ChartAddIn\ChartEnvSetupDlgAddIn\ChartEnvSetupDlgAddIn\DlgMainTabBaseEnvSetUp.cpp

; 1879 : 		ILPCSTR szGraphName = pIChartManager->FindFirstIndicator( _MTEXT( C2_PRICE_CHART), nR, nC, nV, nG, arRQ.GetAt( i));

  000ef	8b cb		 mov	 ecx, ebx
  000f1	8b 13		 mov	 edx, DWORD PTR [ebx]
  000f3	ff 34 b0	 push	 DWORD PTR [eax+esi*4]
  000f6	8d 45 d0	 lea	 eax, DWORD PTR _nG$6[ebp]
  000f9	50		 push	 eax
  000fa	8d 45 cc	 lea	 eax, DWORD PTR _nV$5[ebp]
  000fd	50		 push	 eax
  000fe	8d 45 c8	 lea	 eax, DWORD PTR _nC$4[ebp]
  00101	50		 push	 eax
  00102	8d 45 c4	 lea	 eax, DWORD PTR _nR$3[ebp]
  00105	50		 push	 eax
  00106	a1 54 00 00 00	 mov	 eax, DWORD PTR ?g_iMetaTable@@3VIMetaTable@@A+84
  0010b	ff b0 28 03 00
	00		 push	 DWORD PTR [eax+808]
  00111	ff 52 58	 call	 DWORD PTR [edx+88]
; File D:\git\src\IBK\IBK_DRFN\ProjSrc\SrcChartEx\ChartAddIn\ChartEnvSetupDlgAddIn\Include_AddIn_135914\I135914\_IString.h

; 39   : 		m_pIStrData = p_pIString;	// Do not AddRef(). Because It must be Return Value.

  00114	8b f8		 mov	 edi, eax
  00116	89 7d bc	 mov	 DWORD PTR _szGraphName$2[ebp+4], edi

; 40   : 		if( m_pIStrData) m_szData = m_pIStrData->GetData();

  00119	85 ff		 test	 edi, edi
  0011b	74 0b		 je	 SHORT $LN25@SetShowCur
  0011d	8b 17		 mov	 edx, DWORD PTR [edi]
  0011f	8b cf		 mov	 ecx, edi
  00121	ff 52 10	 call	 DWORD PTR [edx+16]
  00124	8b c8		 mov	 ecx, eax
  00126	eb 02		 jmp	 SHORT $LN43@SetShowCur
$LN25@SetShowCur:

; 41   : 		else m_szData = NULL;

  00128	33 c9		 xor	 ecx, ecx
$LN43@SetShowCur:
; File D:\git\src\IBK\IBK_DRFN\ProjSrc\SrcChartEx\ChartAddIn\ChartEnvSetupDlgAddIn\ChartEnvSetupDlgAddIn\DlgMainTabBaseEnvSetUp.cpp

; 1879 : 		ILPCSTR szGraphName = pIChartManager->FindFirstIndicator( _MTEXT( C2_PRICE_CHART), nR, nC, nV, nG, arRQ.GetAt( i));

  0012a	89 4d b8	 mov	 DWORD PTR _szGraphName$2[ebp], ecx
  0012d	c6 45 fc 01	 mov	 BYTE PTR __$EHRec$[ebp+8], 1
; File D:\git\src\IBK\IBK_DRFN\ProjSrc\SrcChartEx\ChartAddIn\ChartEnvSetupDlgAddIn\Include_AddIn_135914\I135914\_IString.h

; 57   : 		if( !m_szData) return TRUE;

  00131	85 c9		 test	 ecx, ecx
  00133	0f 84 91 00 00
	00		 je	 $LN9@SetShowCur
; File D:\git\src\IBK\IBK_DRFN\ProjSrc\SrcChartEx\ChartAddIn\ChartEnvSetupDlgAddIn\ChartEnvSetupDlgAddIn\DlgMainTabBaseEnvSetUp.cpp

; 1880 : 		if( !szGraphName.IsEmpty())

  00139	80 39 00	 cmp	 BYTE PTR [ecx], 0
  0013c	0f 84 88 00 00
	00		 je	 $LN9@SetShowCur

; 1881 : 		{
; 1882 : 			IGraphInfo *pIPriceChart = pIGraphInfoManager->GetGraphInfo( IGraphInfoManager::IEILT_USER, szGraphName);

  00142	8b 55 d4	 mov	 edx, DWORD PTR _pIGraphInfoManager$1$[ebp]
  00145	51		 push	 ecx
  00146	6a 03		 push	 3
  00148	8b ca		 mov	 ecx, edx
  0014a	8b 02		 mov	 eax, DWORD PTR [edx]
  0014c	ff 50 14	 call	 DWORD PTR [eax+20]
  0014f	8b d8		 mov	 ebx, eax

; 1883 : 			if( pIPriceChart)

  00151	85 db		 test	 ebx, ebx
  00153	74 72		 je	 SHORT $LN40@SetShowCur

; 1884 : 			{
; 1885 : 				BOOL bLowHigh = FALSE, bLowCur = FALSE, bHighCur = FALSE, bPrevCur = FALSE, bShowOHLC = FALSE;
; 1886 : 				int nCurData = 0;
; 1887 : 				pIPriceChart->GetGraphDataDrawingData( bLowHigh, bLowCur, bHighCur, bPrevCur, nCurData, bShowOHLC);

  00155	8b 03		 mov	 eax, DWORD PTR [ebx]
  00157	8d 4d ec	 lea	 ecx, DWORD PTR _bShowOHLC$11[ebp]
  0015a	51		 push	 ecx
  0015b	8d 4d f0	 lea	 ecx, DWORD PTR _nCurData$12[ebp]
  0015e	c7 45 dc 00 00
	00 00		 mov	 DWORD PTR _bLowHigh$7[ebp], 0
  00165	51		 push	 ecx
  00166	8d 4d e8	 lea	 ecx, DWORD PTR _bPrevCur$10[ebp]
  00169	c7 45 e0 00 00
	00 00		 mov	 DWORD PTR _bLowCur$8[ebp], 0
  00170	51		 push	 ecx
  00171	8d 4d e4	 lea	 ecx, DWORD PTR _bHighCur$9[ebp]
  00174	c7 45 e4 00 00
	00 00		 mov	 DWORD PTR _bHighCur$9[ebp], 0
  0017b	51		 push	 ecx
  0017c	8d 4d e0	 lea	 ecx, DWORD PTR _bLowCur$8[ebp]
  0017f	c7 45 e8 00 00
	00 00		 mov	 DWORD PTR _bPrevCur$10[ebp], 0
  00186	51		 push	 ecx
  00187	8d 4d dc	 lea	 ecx, DWORD PTR _bLowHigh$7[ebp]
  0018a	c7 45 ec 00 00
	00 00		 mov	 DWORD PTR _bShowOHLC$11[ebp], 0
  00191	51		 push	 ecx
  00192	8b cb		 mov	 ecx, ebx
  00194	c7 45 f0 00 00
	00 00		 mov	 DWORD PTR _nCurData$12[ebp], 0
  0019b	ff 90 ac 00 00
	00		 call	 DWORD PTR [eax+172]

; 1888 : 				
; 1889 : 				nCurData = nShowType;
; 1890 : 				pIPriceChart->SetGraphDataDrawingData( bLowHigh, bLowCur, bHighCur, bPrevCur, nCurData, bShowOHLC);

  001a1	ff 75 ec	 push	 DWORD PTR _bShowOHLC$11[ebp]
  001a4	8b 4d 08	 mov	 ecx, DWORD PTR _nShowType$[ebp]
  001a7	8b 03		 mov	 eax, DWORD PTR [ebx]
  001a9	51		 push	 ecx
  001aa	ff 75 e8	 push	 DWORD PTR _bPrevCur$10[ebp]
  001ad	89 4d f0	 mov	 DWORD PTR _nCurData$12[ebp], ecx
  001b0	8b cb		 mov	 ecx, ebx
  001b2	ff 75 e4	 push	 DWORD PTR _bHighCur$9[ebp]
  001b5	ff 75 e0	 push	 DWORD PTR _bLowCur$8[ebp]
  001b8	ff 75 dc	 push	 DWORD PTR _bLowHigh$7[ebp]
  001bb	ff 90 b0 00 00
	00		 call	 DWORD PTR [eax+176]

; 1891 : 				pIPriceChart->Release();

  001c1	8b 03		 mov	 eax, DWORD PTR [ebx]
  001c3	53		 push	 ebx
  001c4	ff 50 08	 call	 DWORD PTR [eax+8]
$LN40@SetShowCur:
; File D:\git\src\IBK\IBK_DRFN\ProjSrc\SrcChartEx\ChartAddIn\ChartEnvSetupDlgAddIn\Include_AddIn_135914\I135914\_IString.h

; 44   : 	{

  001c7	8b 5d d8	 mov	 ebx, DWORD PTR _pIChartManager$1$[ebp]
$LN9@SetShowCur:
  001ca	c6 45 fc 02	 mov	 BYTE PTR __$EHRec$[ebp+8], 2

; 45   : 		if( m_pIStrData)

  001ce	85 ff		 test	 edi, edi
  001d0	74 14		 je	 SHORT $LN32@SetShowCur

; 46   : 		{
; 47   : 			m_pIStrData->Release();

  001d2	8b 07		 mov	 eax, DWORD PTR [edi]
  001d4	57		 push	 edi
  001d5	ff 50 08	 call	 DWORD PTR [eax+8]

; 48   : 			m_pIStrData = NULL;

  001d8	c7 45 bc 00 00
	00 00		 mov	 DWORD PTR _szGraphName$2[ebp+4], 0

; 49   : 			m_szData = NULL;

  001df	c7 45 b8 00 00
	00 00		 mov	 DWORD PTR _szGraphName$2[ebp], 0
$LN32@SetShowCur:
; File D:\git\src\IBK\IBK_DRFN\ProjSrc\SrcChartEx\ChartAddIn\ChartEnvSetupDlgAddIn\ChartEnvSetupDlgAddIn\DlgMainTabBaseEnvSetUp.cpp

; 1876 : 	for( int i = 0; i < arRQ.GetSize(); i++)

  001e6	8b 45 ac	 mov	 eax, DWORD PTR _arRQ$[ebp+8]
  001e9	46		 inc	 esi
; File D:\git\src\IBK\IBK_DRFN\ProjSrc\SrcChartEx\ChartAddIn\ChartEnvSetupDlgAddIn\Include_AddIn_135914\I135914\_IString.h

; 51   : 	}

  001ea	c6 45 fc 00	 mov	 BYTE PTR __$EHRec$[ebp+8], 0
; File D:\git\src\IBK\IBK_DRFN\ProjSrc\SrcChartEx\ChartAddIn\ChartEnvSetupDlgAddIn\ChartEnvSetupDlgAddIn\DlgMainTabBaseEnvSetUp.cpp

; 1876 : 	for( int i = 0; i < arRQ.GetSize(); i++)

  001ee	3b f0		 cmp	 esi, eax
  001f0	0f 8c ca fe ff
	ff		 jl	 $LL4@SetShowCur
; File C:\Program Files (x86)\Microsoft Visual Studio\2019\Community\VC\Tools\MSVC\14.29.30133\atlmfc\include\afxcoll.inl

; 289  : 		if( nIndex < 0 || nIndex >= m_nSize )

  001f6	8b 7d d4	 mov	 edi, DWORD PTR _pIGraphInfoManager$1$[ebp]
$LN3@SetShowCur:
; File D:\git\src\IBK\IBK_DRFN\ProjSrc\SrcChartEx\ChartAddIn\ChartEnvSetupDlgAddIn\ChartEnvSetupDlgAddIn\DlgMainTabBaseEnvSetUp.cpp

; 1897 : 	pIChartManager->ChangeAllGraphDataFromGraphInfo( FALSE);

  001f9	8b 03		 mov	 eax, DWORD PTR [ebx]
  001fb	8b cb		 mov	 ecx, ebx
  001fd	6a 00		 push	 0
  001ff	ff 50 78	 call	 DWORD PTR [eax+120]

; 1898 : 
; 1899 : 	pIChartManager->Release();

  00202	8b 03		 mov	 eax, DWORD PTR [ebx]
  00204	53		 push	 ebx
  00205	ff 50 08	 call	 DWORD PTR [eax+8]

; 1900 : 	pIGraphInfoManager->Release();

  00208	8b 07		 mov	 eax, DWORD PTR [edi]
  0020a	57		 push	 edi
  0020b	ff 50 08	 call	 DWORD PTR [eax+8]

; 1901 : 	pIChartManager->Release();

  0020e	8b 03		 mov	 eax, DWORD PTR [ebx]
  00210	53		 push	 ebx
  00211	ff 50 08	 call	 DWORD PTR [eax+8]

; 1902 : 
; 1903 : 	m_MChartInterface.MChart_SetShowCurrentPriceToOutside( nShowType);

  00214	8b 75 c0	 mov	 esi, DWORD PTR _this$1$[ebp]
  00217	ff 75 08	 push	 DWORD PTR _nShowType$[ebp]
  0021a	8d 8e dc 09 00
	00		 lea	 ecx, DWORD PTR [esi+2524]
  00220	e8 00 00 00 00	 call	 ?MChart_SetShowCurrentPriceToOutside@COutsideCommonInterfaceFunction@@QAE_NH@Z ; COutsideCommonInterfaceFunction::MChart_SetShowCurrentPriceToOutside

; 1904 : 	m_pIChartOCX->InvalidateControl();

  00225	8b 8e d8 09 00
	00		 mov	 ecx, DWORD PTR [esi+2520]
  0022b	8b 01		 mov	 eax, DWORD PTR [ecx]
  0022d	ff 50 38	 call	 DWORD PTR [eax+56]
$LN14@SetShowCur:

; 1905 : }

  00230	8d 4d a4	 lea	 ecx, DWORD PTR _arRQ$[ebp]
  00233	e8 00 00 00 00	 call	 ??1CStringArray@@UAE@XZ	; CStringArray::~CStringArray
$LN1@SetShowCur:
  00238	8b 4d f4	 mov	 ecx, DWORD PTR __$EHRec$[ebp]
  0023b	64 89 0d 00 00
	00 00		 mov	 DWORD PTR fs:0, ecx
  00242	59		 pop	 ecx
  00243	5f		 pop	 edi
  00244	5e		 pop	 esi
  00245	5b		 pop	 ebx
  00246	8b e5		 mov	 esp, ebp
  00248	5d		 pop	 ebp
  00249	c2 04 00	 ret	 4
$LN36@SetShowCur:
; File C:\Program Files (x86)\Microsoft Visual Studio\2019\Community\VC\Tools\MSVC\14.29.30133\atlmfc\include\afxcoll.inl

; 290  : 			AfxThrowInvalidArgException();

  0024c	e8 00 00 00 00	 call	 ?AfxThrowInvalidArgException@@YGXXZ ; AfxThrowInvalidArgException
$LN42@SetShowCur:
  00251	cc		 int	 3
_TEXT	ENDS
;	COMDAT text$x
text$x	SEGMENT
__unwindfunclet$?SetShowCurrentPrice@CDlgMainTabBaseEnvSetUp@@IAEXH@Z$0:
  00000	8d 4d a4	 lea	 ecx, DWORD PTR _arRQ$[ebp]
  00003	e9 00 00 00 00	 jmp	 ??1CStringArray@@UAE@XZ	; CStringArray::~CStringArray
__unwindfunclet$?SetShowCurrentPrice@CDlgMainTabBaseEnvSetUp@@IAEXH@Z$1:
  00008	8d 4d b8	 lea	 ecx, DWORD PTR _szGraphName$2[ebp]
  0000b	e9 00 00 00 00	 jmp	 ??1ILPCSTR135914@@QAE@XZ ; ILPCSTR135914::~ILPCSTR135914
  00010	cc		 int	 3
  00011	cc		 int	 3
  00012	cc		 int	 3
  00013	cc		 int	 3
  00014	cc		 int	 3
__ehhandler$?SetShowCurrentPrice@CDlgMainTabBaseEnvSetUp@@IAEXH@Z:
  00015	90		 npad	 1
  00016	90		 npad	 1
  00017	8b 54 24 08	 mov	 edx, DWORD PTR [esp+8]
  0001b	8d 42 0c	 lea	 eax, DWORD PTR [edx+12]
  0001e	8b 4a a0	 mov	 ecx, DWORD PTR [edx-96]
  00021	33 c8		 xor	 ecx, eax
  00023	e8 00 00 00 00	 call	 @__security_check_cookie@4
  00028	b8 00 00 00 00	 mov	 eax, OFFSET __ehfuncinfo$?SetShowCurrentPrice@CDlgMainTabBaseEnvSetUp@@IAEXH@Z
  0002d	e9 00 00 00 00	 jmp	 ___CxxFrameHandler3
text$x	ENDS
?SetShowCurrentPrice@CDlgMainTabBaseEnvSetUp@@IAEXH@Z ENDP ; CDlgMainTabBaseEnvSetUp::SetShowCurrentPrice
; Function compile flags: /Ogtp
; File D:\git\src\IBK\IBK_DRFN\ProjSrc\SrcChartEx\ChartAddIn\ChartEnvSetupDlgAddIn\ChartEnvSetupDlgAddIn\DlgMainTabBaseEnvSetUp.cpp
; File D:\git\src\IBK\IBK_DRFN\ProjSrc\SrcChartEx\ChartAddIn\ChartEnvSetupDlgAddIn\Include_AddIn_135914\I135914\_IString.h
; File D:\git\src\IBK\IBK_DRFN\ProjSrc\SrcChartEx\ChartAddIn\ChartEnvSetupDlgAddIn\ChartEnvSetupDlgAddIn\DlgMainTabBaseEnvSetUp.cpp
; File D:\git\src\IBK\IBK_DRFN\ProjSrc\SrcChartEx\ChartAddIn\ChartEnvSetupDlgAddIn\Include_AddIn_135914\I135914\_IString.h
; File D:\git\src\IBK\IBK_DRFN\ProjSrc\SrcChartEx\ChartAddIn\ChartEnvSetupDlgAddIn\ChartEnvSetupDlgAddIn\DlgMainTabBaseEnvSetUp.cpp
; File D:\git\src\IBK\IBK_DRFN\ProjSrc\SrcChartEx\ChartAddIn\ChartEnvSetupDlgAddIn\Include_AddIn_135914\I135914\_IString.h
; File D:\git\src\IBK\IBK_DRFN\ProjSrc\SrcChartEx\ChartAddIn\ChartEnvSetupDlgAddIn\ChartEnvSetupDlgAddIn\DlgMainTabBaseEnvSetUp.cpp
; File D:\git\src\IBK\IBK_DRFN\ProjSrc\SrcChartEx\ChartAddIn\ChartEnvSetupDlgAddIn\Include_AddIn_135914\I135914\_IString.h
; File D:\git\src\IBK\IBK_DRFN\ProjSrc\SrcChartEx\ChartAddIn\ChartEnvSetupDlgAddIn\ChartEnvSetupDlgAddIn\DlgMainTabBaseEnvSetUp.cpp
; File D:\git\src\IBK\IBK_DRFN\ProjSrc\SrcChartEx\ChartAddIn\ChartEnvSetupDlgAddIn\Include_AddIn_135914\I135914\_IString.h
; File D:\git\src\IBK\IBK_DRFN\ProjSrc\SrcChartEx\ChartAddIn\ChartEnvSetupDlgAddIn\ChartEnvSetupDlgAddIn\DlgMainTabBaseEnvSetUp.cpp
;	COMDAT ?SetShowExRightDividend@CDlgMainTabBaseEnvSetUp@@IAEX_N@Z
_TEXT	SEGMENT
_szGraphName$2 = -40					; size = 8
_nR$3 = -32						; size = 4
_nC$4 = -28						; size = 4
_nV$5 = -24						; size = 4
_nG$6 = -20						; size = 4
_this$1$ = -16						; size = 4
__$EHRec$ = -12						; size = 12
_bShow$ = 8						; size = 1
?SetShowExRightDividend@CDlgMainTabBaseEnvSetUp@@IAEX_N@Z PROC ; CDlgMainTabBaseEnvSetUp::SetShowExRightDividend, COMDAT
; _this$ = ecx

; 1839 : {

  00000	55		 push	 ebp
  00001	8b ec		 mov	 ebp, esp
  00003	6a ff		 push	 -1
  00005	68 00 00 00 00	 push	 __ehhandler$?SetShowExRightDividend@CDlgMainTabBaseEnvSetUp@@IAEX_N@Z
  0000a	64 a1 00 00 00
	00		 mov	 eax, DWORD PTR fs:0
  00010	50		 push	 eax
  00011	83 ec 1c	 sub	 esp, 28			; 0000001cH
  00014	53		 push	 ebx
  00015	56		 push	 esi
  00016	57		 push	 edi
  00017	a1 00 00 00 00	 mov	 eax, DWORD PTR ___security_cookie
  0001c	33 c5		 xor	 eax, ebp
  0001e	50		 push	 eax
  0001f	8d 45 f4	 lea	 eax, DWORD PTR __$EHRec$[ebp]
  00022	64 a3 00 00 00
	00		 mov	 DWORD PTR fs:0, eax
  00028	8b f1		 mov	 esi, ecx
  0002a	89 75 f0	 mov	 DWORD PTR _this$1$[ebp], esi

; 1840 : 	BOOL bIsCurExistence = FALSE;
; 1841 : 	IChartManager *pIChartManager = m_pIChartOCX->GetIChartManager();

  0002d	8b 8e d8 09 00
	00		 mov	 ecx, DWORD PTR [esi+2520]
  00033	8b 01		 mov	 eax, DWORD PTR [ecx]
  00035	ff 50 18	 call	 DWORD PTR [eax+24]
  00038	8b f8		 mov	 edi, eax

; 1842 : 	if( pIChartManager)

  0003a	85 ff		 test	 edi, edi
  0003c	0f 84 b0 00 00
	00		 je	 $LN19@SetShowExR

; 1845 : 		ILPCSTR szGraphName = pIChartManager->FindFirstIndicator( _MTEXT( C2_LOCK), nR, nC, nV, nG, NULL);

  00042	8b 17		 mov	 edx, DWORD PTR [edi]
  00044	8d 45 ec	 lea	 eax, DWORD PTR _nG$6[ebp]
  00047	6a 00		 push	 0
  00049	50		 push	 eax
  0004a	8d 45 e8	 lea	 eax, DWORD PTR _nV$5[ebp]
  0004d	c7 45 e0 ff ff
	ff ff		 mov	 DWORD PTR _nR$3[ebp], -1
  00054	50		 push	 eax
  00055	8d 45 e4	 lea	 eax, DWORD PTR _nC$4[ebp]
  00058	c7 45 e4 ff ff
	ff ff		 mov	 DWORD PTR _nC$4[ebp], -1
  0005f	50		 push	 eax
  00060	8d 45 e0	 lea	 eax, DWORD PTR _nR$3[ebp]
  00063	c7 45 e8 ff ff
	ff ff		 mov	 DWORD PTR _nV$5[ebp], -1
  0006a	50		 push	 eax
  0006b	a1 54 00 00 00	 mov	 eax, DWORD PTR ?g_iMetaTable@@3VIMetaTable@@A+84
  00070	8b cf		 mov	 ecx, edi
  00072	c7 45 ec ff ff
	ff ff		 mov	 DWORD PTR _nG$6[ebp], -1
  00079	ff b0 e4 0c 00
	00		 push	 DWORD PTR [eax+3300]
  0007f	ff 52 58	 call	 DWORD PTR [edx+88]
; File D:\git\src\IBK\IBK_DRFN\ProjSrc\SrcChartEx\ChartAddIn\ChartEnvSetupDlgAddIn\Include_AddIn_135914\I135914\_IString.h

; 39   : 		m_pIStrData = p_pIString;	// Do not AddRef(). Because It must be Return Value.

  00082	8b f0		 mov	 esi, eax
  00084	89 75 dc	 mov	 DWORD PTR _szGraphName$2[ebp+4], esi

; 40   : 		if( m_pIStrData) m_szData = m_pIStrData->GetData();

  00087	85 f6		 test	 esi, esi
  00089	74 09		 je	 SHORT $LN9@SetShowExR
  0008b	8b 16		 mov	 edx, DWORD PTR [esi]
  0008d	8b ce		 mov	 ecx, esi
  0008f	ff 52 10	 call	 DWORD PTR [edx+16]
  00092	eb 02		 jmp	 SHORT $LN24@SetShowExR
$LN9@SetShowExR:

; 41   : 		else m_szData = NULL;

  00094	33 c0		 xor	 eax, eax
$LN24@SetShowExR:
; File D:\git\src\IBK\IBK_DRFN\ProjSrc\SrcChartEx\ChartAddIn\ChartEnvSetupDlgAddIn\ChartEnvSetupDlgAddIn\DlgMainTabBaseEnvSetUp.cpp

; 1845 : 		ILPCSTR szGraphName = pIChartManager->FindFirstIndicator( _MTEXT( C2_LOCK), nR, nC, nV, nG, NULL);

  00096	89 45 d8	 mov	 DWORD PTR _szGraphName$2[ebp], eax
; File D:\git\src\IBK\IBK_DRFN\ProjSrc\SrcChartEx\ChartAddIn\ChartEnvSetupDlgAddIn\Include_AddIn_135914\I135914\_IString.h

; 57   : 		if( !m_szData) return TRUE;

  00099	33 db		 xor	 ebx, ebx
; File D:\git\src\IBK\IBK_DRFN\ProjSrc\SrcChartEx\ChartAddIn\ChartEnvSetupDlgAddIn\ChartEnvSetupDlgAddIn\DlgMainTabBaseEnvSetUp.cpp

; 1845 : 		ILPCSTR szGraphName = pIChartManager->FindFirstIndicator( _MTEXT( C2_LOCK), nR, nC, nV, nG, NULL);

  0009b	c7 45 fc 00 00
	00 00		 mov	 DWORD PTR __$EHRec$[ebp+8], 0
; File D:\git\src\IBK\IBK_DRFN\ProjSrc\SrcChartEx\ChartAddIn\ChartEnvSetupDlgAddIn\Include_AddIn_135914\I135914\_IString.h

; 57   : 		if( !m_szData) return TRUE;

  000a2	85 c0		 test	 eax, eax
  000a4	74 05		 je	 SHORT $LN12@SetShowExR

; 58   : 		return !*m_szData;

  000a6	38 18		 cmp	 BYTE PTR [eax], bl
  000a8	0f 95 c3	 setne	 bl
$LN12@SetShowExR:
; File D:\git\src\IBK\IBK_DRFN\ProjSrc\SrcChartEx\ChartAddIn\ChartEnvSetupDlgAddIn\ChartEnvSetupDlgAddIn\DlgMainTabBaseEnvSetUp.cpp

; 1847 : 		pIChartManager->Release();

  000ab	8b 07		 mov	 eax, DWORD PTR [edi]
  000ad	57		 push	 edi
  000ae	ff 50 08	 call	 DWORD PTR [eax+8]
; File D:\git\src\IBK\IBK_DRFN\ProjSrc\SrcChartEx\ChartAddIn\ChartEnvSetupDlgAddIn\Include_AddIn_135914\I135914\_IString.h

; 44   : 	{

  000b1	c7 45 fc 01 00
	00 00		 mov	 DWORD PTR __$EHRec$[ebp+8], 1

; 45   : 		if( m_pIStrData)

  000b8	85 f6		 test	 esi, esi
  000ba	74 06		 je	 SHORT $LN16@SetShowExR

; 46   : 		{
; 47   : 			m_pIStrData->Release();

  000bc	8b 06		 mov	 eax, DWORD PTR [esi]
  000be	56		 push	 esi
  000bf	ff 50 08	 call	 DWORD PTR [eax+8]
$LN16@SetShowExR:
; File D:\git\src\IBK\IBK_DRFN\ProjSrc\SrcChartEx\ChartAddIn\ChartEnvSetupDlgAddIn\ChartEnvSetupDlgAddIn\DlgMainTabBaseEnvSetUp.cpp

; 1850 : 	if( bIsCurExistence && !bShow)		m_pIChartOCX->RemoveChart(		_MTEXT( C2_LOCK));

  000c2	8b 75 f0	 mov	 esi, DWORD PTR _this$1$[ebp]
; File D:\git\src\IBK\IBK_DRFN\ProjSrc\SrcChartEx\ChartAddIn\ChartEnvSetupDlgAddIn\Include_AddIn_135914\I135914\_IString.h

; 51   : 	}

  000c5	c7 45 fc ff ff
	ff ff		 mov	 DWORD PTR __$EHRec$[ebp+8], -1
; File D:\git\src\IBK\IBK_DRFN\ProjSrc\SrcChartEx\ChartAddIn\ChartEnvSetupDlgAddIn\ChartEnvSetupDlgAddIn\DlgMainTabBaseEnvSetUp.cpp

; 1850 : 	if( bIsCurExistence && !bShow)		m_pIChartOCX->RemoveChart(		_MTEXT( C2_LOCK));

  000cc	85 db		 test	 ebx, ebx
  000ce	74 22		 je	 SHORT $LN19@SetShowExR
  000d0	8b 5d 08	 mov	 ebx, DWORD PTR _bShow$[ebp]
  000d3	84 db		 test	 bl, bl
  000d5	75 3e		 jne	 SHORT $LN5@SetShowExR
  000d7	8b 8e d8 09 00
	00		 mov	 ecx, DWORD PTR [esi+2520]
  000dd	a1 54 00 00 00	 mov	 eax, DWORD PTR ?g_iMetaTable@@3VIMetaTable@@A+84
  000e2	8b 11		 mov	 edx, DWORD PTR [ecx]
  000e4	ff b0 e4 0c 00
	00		 push	 DWORD PTR [eax+3300]
  000ea	ff 92 68 01 00
	00		 call	 DWORD PTR [edx+360]
  000f0	eb 23		 jmp	 SHORT $LN5@SetShowExR
$LN19@SetShowExR:

; 1851 : 	else if( !bIsCurExistence && bShow) m_pIChartOCX->AddChartBlock(	_MTEXT( C2_LOCK));

  000f2	8b 5d 08	 mov	 ebx, DWORD PTR _bShow$[ebp]
  000f5	84 db		 test	 bl, bl
  000f7	74 19		 je	 SHORT $LN21@SetShowExR
  000f9	8b 8e d8 09 00
	00		 mov	 ecx, DWORD PTR [esi+2520]
  000ff	a1 54 00 00 00	 mov	 eax, DWORD PTR ?g_iMetaTable@@3VIMetaTable@@A+84
  00104	8b 11		 mov	 edx, DWORD PTR [ecx]
  00106	ff b0 e4 0c 00
	00		 push	 DWORD PTR [eax+3300]
  0010c	ff 92 48 01 00
	00		 call	 DWORD PTR [edx+328]
$LN21@SetShowExR:

; 1852 : 
; 1853 : 	m_MChartInterface.MChart_SetShowExRightDividendToOutside( bShow);

  00112	8b 75 f0	 mov	 esi, DWORD PTR _this$1$[ebp]
$LN5@SetShowExR:
  00115	53		 push	 ebx
  00116	8d 8e dc 09 00
	00		 lea	 ecx, DWORD PTR [esi+2524]
  0011c	e8 00 00 00 00	 call	 ?MChart_SetShowExRightDividendToOutside@COutsideCommonInterfaceFunction@@QAE_N_N@Z ; COutsideCommonInterfaceFunction::MChart_SetShowExRightDividendToOutside

; 1854 : }

  00121	8b 4d f4	 mov	 ecx, DWORD PTR __$EHRec$[ebp]
  00124	64 89 0d 00 00
	00 00		 mov	 DWORD PTR fs:0, ecx
  0012b	59		 pop	 ecx
  0012c	5f		 pop	 edi
  0012d	5e		 pop	 esi
  0012e	5b		 pop	 ebx
  0012f	8b e5		 mov	 esp, ebp
  00131	5d		 pop	 ebp
  00132	c2 04 00	 ret	 4
_TEXT	ENDS
;	COMDAT text$x
text$x	SEGMENT
__unwindfunclet$?SetShowExRightDividend@CDlgMainTabBaseEnvSetUp@@IAEX_N@Z$0:
  00000	8d 4d d8	 lea	 ecx, DWORD PTR _szGraphName$2[ebp]
  00003	e9 00 00 00 00	 jmp	 ??1ILPCSTR135914@@QAE@XZ ; ILPCSTR135914::~ILPCSTR135914
  00008	cc		 int	 3
  00009	cc		 int	 3
  0000a	cc		 int	 3
  0000b	cc		 int	 3
  0000c	cc		 int	 3
__ehhandler$?SetShowExRightDividend@CDlgMainTabBaseEnvSetUp@@IAEX_N@Z:
  0000d	90		 npad	 1
  0000e	90		 npad	 1
  0000f	8b 54 24 08	 mov	 edx, DWORD PTR [esp+8]
  00013	8d 42 0c	 lea	 eax, DWORD PTR [edx+12]
  00016	8b 4a d4	 mov	 ecx, DWORD PTR [edx-44]
  00019	33 c8		 xor	 ecx, eax
  0001b	e8 00 00 00 00	 call	 @__security_check_cookie@4
  00020	b8 00 00 00 00	 mov	 eax, OFFSET __ehfuncinfo$?SetShowExRightDividend@CDlgMainTabBaseEnvSetUp@@IAEX_N@Z
  00025	e9 00 00 00 00	 jmp	 ___CxxFrameHandler3
text$x	ENDS
?SetShowExRightDividend@CDlgMainTabBaseEnvSetUp@@IAEX_N@Z ENDP ; CDlgMainTabBaseEnvSetUp::SetShowExRightDividend
; Function compile flags: /Ogtp
; File D:\git\src\IBK\IBK_DRFN\ProjSrc\SrcChartEx\ChartAddIn\ChartEnvSetupDlgAddIn\ChartEnvSetupDlgAddIn\DlgMainTabBaseEnvSetUp.cpp
;	COMDAT ?SetShowLowHighMarker@CDlgMainTabBaseEnvSetUp@@IAEXH@Z
_TEXT	SEGMENT
_p_bEnable$ = 8						; size = 4
?SetShowLowHighMarker@CDlgMainTabBaseEnvSetUp@@IAEXH@Z PROC ; CDlgMainTabBaseEnvSetUp::SetShowLowHighMarker, COMDAT
; _this$ = ecx

; 1826 : {

  00000	55		 push	 ebp
  00001	8b ec		 mov	 ebp, esp

; 1827 :  	IAddInToolMgr *pIAddInToolMgr = m_pIChartOCX->GetIAddInToolMgr();

  00003	8b 89 d8 09 00
	00		 mov	 ecx, DWORD PTR [ecx+2520]
  00009	56		 push	 esi
  0000a	8b 01		 mov	 eax, DWORD PTR [ecx]
  0000c	ff 50 24	 call	 DWORD PTR [eax+36]
  0000f	8b f0		 mov	 esi, eax

; 1828 :  	if( pIAddInToolMgr)

  00011	85 f6		 test	 esi, esi
  00013	74 12		 je	 SHORT $LN2@SetShowLow

; 1829 :  	{
; 1830 :  		pIAddInToolMgr->OnAddInToolCommand( EAI_CUSTOM_ENABLE_LOWHIGHMARK, p_bEnable);

  00015	ff 75 08	 push	 DWORD PTR _p_bEnable$[ebp]
  00018	8b 16		 mov	 edx, DWORD PTR [esi]
  0001a	8b ce		 mov	 ecx, esi
  0001c	6a 45		 push	 69			; 00000045H
  0001e	ff 52 7c	 call	 DWORD PTR [edx+124]

; 1831 :  		pIAddInToolMgr->Release();

  00021	8b 06		 mov	 eax, DWORD PTR [esi]
  00023	56		 push	 esi
  00024	ff 50 08	 call	 DWORD PTR [eax+8]
$LN2@SetShowLow:
  00027	5e		 pop	 esi

; 1832 :  	}
; 1833 :  	
; 1834 : //KHD 	m_MChartInterface.MChart_SetShowLowHighMarkerToOutside( p_bEnable ? true : false );
; 1835 : }

  00028	5d		 pop	 ebp
  00029	c2 04 00	 ret	 4
?SetShowLowHighMarker@CDlgMainTabBaseEnvSetUp@@IAEXH@Z ENDP ; CDlgMainTabBaseEnvSetUp::SetShowLowHighMarker
_TEXT	ENDS
; Function compile flags: /Ogtp
; File D:\git\src\IBK\IBK_DRFN\ProjSrc\SrcChartEx\ChartAddIn\ChartEnvSetupDlgAddIn\ChartEnvSetupDlgAddIn\DlgMainTabBaseEnvSetUp.cpp
;	COMDAT ?GetExistenceLowHighMarker@CDlgMainTabBaseEnvSetUp@@IAEHXZ
_TEXT	SEGMENT
_lResult$ = -4						; size = 4
?GetExistenceLowHighMarker@CDlgMainTabBaseEnvSetUp@@IAEHXZ PROC ; CDlgMainTabBaseEnvSetUp::GetExistenceLowHighMarker, COMDAT
; _this$ = ecx

; 1804 : {

  00000	55		 push	 ebp
  00001	8b ec		 mov	 ebp, esp
  00003	51		 push	 ecx

; 1805 : 	long lResult = 0;
; 1806 :  	IAddInToolMgr *pIAddInToolMgr = m_pIChartOCX->GetIAddInToolMgr();

  00004	8b 89 d8 09 00
	00		 mov	 ecx, DWORD PTR [ecx+2520]
  0000a	c7 45 fc 00 00
	00 00		 mov	 DWORD PTR _lResult$[ebp], 0
  00011	56		 push	 esi
  00012	8b 01		 mov	 eax, DWORD PTR [ecx]
  00014	ff 50 24	 call	 DWORD PTR [eax+36]
  00017	8b f0		 mov	 esi, eax

; 1807 :  	if( pIAddInToolMgr)

  00019	85 f6		 test	 esi, esi
  0001b	74 13		 je	 SHORT $LN4@GetExisten

; 1808 :  	{
; 1809 :  		pIAddInToolMgr->OnAddInToolCommand( lResult, EAI_CUSTOM_GET_EXISTENCE_LOWHIGHMARK);

  0001d	8b 16		 mov	 edx, DWORD PTR [esi]
  0001f	8d 45 fc	 lea	 eax, DWORD PTR _lResult$[ebp]
  00022	6a 47		 push	 71			; 00000047H
  00024	50		 push	 eax
  00025	8b ce		 mov	 ecx, esi
  00027	ff 52 70	 call	 DWORD PTR [edx+112]

; 1810 :  		pIAddInToolMgr->Release();

  0002a	8b 06		 mov	 eax, DWORD PTR [esi]
  0002c	56		 push	 esi
  0002d	ff 50 08	 call	 DWORD PTR [eax+8]
$LN4@GetExisten:

; 1811 :  	}
; 1812 : 	return lResult;
; 1813 : /*
; 1814 : 	BOOL bReturn = FALSE;
; 1815 : 	ILPCSTR strData;
; 1816 : 	IPacketManager *pIPacketManager = m_pIChartOCX->GetIDefaultPacketManager();
; 1817 : 	IPacket *pPacket = pIPacketManager->GetPacket( _MTEXT( C0_UPDOWN_SIGN));
; 1818 : 	bReturn = (pPacket!=NULL ? TRUE : FALSE);
; 1819 : 	if( pIPacketManager ) pIPacketManager->Release();
; 1820 : 	if( pPacket ) pPacket->Release();
; 1821 : 	return bReturn;
; 1822 : */
; 1823 : }

  00030	8b 45 fc	 mov	 eax, DWORD PTR _lResult$[ebp]
  00033	5e		 pop	 esi
  00034	8b e5		 mov	 esp, ebp
  00036	5d		 pop	 ebp
  00037	c3		 ret	 0
?GetExistenceLowHighMarker@CDlgMainTabBaseEnvSetUp@@IAEHXZ ENDP ; CDlgMainTabBaseEnvSetUp::GetExistenceLowHighMarker
_TEXT	ENDS
; Function compile flags: /Ogtp
; File D:\git\src\IBK\IBK_DRFN\ProjSrc\SrcChartEx\ChartAddIn\ChartEnvSetupDlgAddIn\ChartEnvSetupDlgAddIn\DlgMainTabBaseEnvSetUp.cpp
;	COMDAT ?SetShowHighLowBound@CDlgMainTabBaseEnvSetUp@@IAEXH@Z
_TEXT	SEGMENT
_p_bEnable$ = 8						; size = 4
?SetShowHighLowBound@CDlgMainTabBaseEnvSetUp@@IAEXH@Z PROC ; CDlgMainTabBaseEnvSetUp::SetShowHighLowBound, COMDAT
; _this$ = ecx

; 1791 : {

  00000	55		 push	 ebp
  00001	8b ec		 mov	 ebp, esp
  00003	53		 push	 ebx
  00004	8b d9		 mov	 ebx, ecx
  00006	56		 push	 esi

; 1792 : 	IAddInToolMgr *pIAddInToolMgr = m_pIChartOCX->GetIAddInToolMgr();

  00007	8b 8b d8 09 00
	00		 mov	 ecx, DWORD PTR [ebx+2520]
  0000d	8b 01		 mov	 eax, DWORD PTR [ecx]
  0000f	ff 50 24	 call	 DWORD PTR [eax+36]
  00012	8b f0		 mov	 esi, eax

; 1793 : 	if( pIAddInToolMgr)

  00014	85 f6		 test	 esi, esi
  00016	74 12		 je	 SHORT $LN2@SetShowHig

; 1794 : 	{
; 1795 : 		pIAddInToolMgr->OnAddInToolCommand( EAI_CUSTOM_ENABLE_BOUNDMARK, p_bEnable);

  00018	ff 75 08	 push	 DWORD PTR _p_bEnable$[ebp]
  0001b	8b 16		 mov	 edx, DWORD PTR [esi]
  0001d	8b ce		 mov	 ecx, esi
  0001f	6a 09		 push	 9
  00021	ff 52 7c	 call	 DWORD PTR [edx+124]

; 1796 : 		pIAddInToolMgr->Release();

  00024	8b 06		 mov	 eax, DWORD PTR [esi]
  00026	56		 push	 esi
  00027	ff 50 08	 call	 DWORD PTR [eax+8]
$LN2@SetShowHig:

; 1797 : 	}
; 1798 : 
; 1799 : 	m_MChartInterface.MChart_SetShowHighLowBoundToOutside( p_bEnable ? true : false );

  0002a	83 7d 08 00	 cmp	 DWORD PTR _p_bEnable$[ebp], 0
  0002e	8d 8b dc 09 00
	00		 lea	 ecx, DWORD PTR [ebx+2524]
  00034	0f 95 c0	 setne	 al
  00037	0f b6 c0	 movzx	 eax, al
  0003a	50		 push	 eax
  0003b	e8 00 00 00 00	 call	 ?MChart_SetShowHighLowBoundToOutside@COutsideCommonInterfaceFunction@@QAE_N_N@Z ; COutsideCommonInterfaceFunction::MChart_SetShowHighLowBoundToOutside
  00040	5e		 pop	 esi
  00041	5b		 pop	 ebx

; 1800 : }

  00042	5d		 pop	 ebp
  00043	c2 04 00	 ret	 4
?SetShowHighLowBound@CDlgMainTabBaseEnvSetUp@@IAEXH@Z ENDP ; CDlgMainTabBaseEnvSetUp::SetShowHighLowBound
_TEXT	ENDS
; Function compile flags: /Ogtp
; File D:\git\src\IBK\IBK_DRFN\ProjSrc\SrcChartEx\ChartAddIn\ChartEnvSetupDlgAddIn\ChartEnvSetupDlgAddIn\DlgMainTabBaseEnvSetUp.cpp
;	COMDAT ?GetExistenceHighLowBound@CDlgMainTabBaseEnvSetUp@@IAEHXZ
_TEXT	SEGMENT
_lResult$ = -4						; size = 4
?GetExistenceHighLowBound@CDlgMainTabBaseEnvSetUp@@IAEHXZ PROC ; CDlgMainTabBaseEnvSetUp::GetExistenceHighLowBound, COMDAT
; _this$ = ecx

; 1779 : {

  00000	55		 push	 ebp
  00001	8b ec		 mov	 ebp, esp
  00003	51		 push	 ecx

; 1780 : 	long lResult = 0;
; 1781 : 	IAddInToolMgr *pIAddInToolMgr = m_pIChartOCX->GetIAddInToolMgr();

  00004	8b 89 d8 09 00
	00		 mov	 ecx, DWORD PTR [ecx+2520]
  0000a	c7 45 fc 00 00
	00 00		 mov	 DWORD PTR _lResult$[ebp], 0
  00011	56		 push	 esi
  00012	8b 01		 mov	 eax, DWORD PTR [ecx]
  00014	ff 50 24	 call	 DWORD PTR [eax+36]
  00017	8b f0		 mov	 esi, eax

; 1782 : 	if( pIAddInToolMgr)

  00019	85 f6		 test	 esi, esi
  0001b	74 13		 je	 SHORT $LN4@GetExisten

; 1783 : 	{
; 1784 : 		pIAddInToolMgr->OnAddInToolCommand( lResult, EAI_CUSTOM_GET_EXISTENCE_BOUNDMARK);

  0001d	8b 16		 mov	 edx, DWORD PTR [esi]
  0001f	8d 45 fc	 lea	 eax, DWORD PTR _lResult$[ebp]
  00022	6a 0b		 push	 11			; 0000000bH
  00024	50		 push	 eax
  00025	8b ce		 mov	 ecx, esi
  00027	ff 52 70	 call	 DWORD PTR [edx+112]

; 1785 : 		pIAddInToolMgr->Release();

  0002a	8b 06		 mov	 eax, DWORD PTR [esi]
  0002c	56		 push	 esi
  0002d	ff 50 08	 call	 DWORD PTR [eax+8]
$LN4@GetExisten:

; 1786 : 	}
; 1787 : 	return lResult;
; 1788 : }

  00030	8b 45 fc	 mov	 eax, DWORD PTR _lResult$[ebp]
  00033	5e		 pop	 esi
  00034	8b e5		 mov	 esp, ebp
  00036	5d		 pop	 ebp
  00037	c3		 ret	 0
?GetExistenceHighLowBound@CDlgMainTabBaseEnvSetUp@@IAEHXZ ENDP ; CDlgMainTabBaseEnvSetUp::GetExistenceHighLowBound
_TEXT	ENDS
; Function compile flags: /Ogtp
; File D:\git\src\IBK\IBK_DRFN\ProjSrc\SrcChartEx\ChartAddIn\ChartEnvSetupDlgAddIn\ChartEnvSetupDlgAddIn\DlgMainTabBaseEnvSetUp.cpp
;	COMDAT ?GetShowCurrentPrice@CDlgMainTabBaseEnvSetUp@@IAEHXZ
_TEXT	SEGMENT
_bLowHigh$ = -24					; size = 4
_bLowCur$ = -20						; size = 4
_bHighCur$ = -16					; size = 4
_bPrevCur$ = -12					; size = 4
_bShowOHLC$ = -8					; size = 4
_nCurData$ = -4						; size = 4
?GetShowCurrentPrice@CDlgMainTabBaseEnvSetUp@@IAEHXZ PROC ; CDlgMainTabBaseEnvSetUp::GetShowCurrentPrice, COMDAT
; _this$ = ecx

; 1742 : {

  00000	55		 push	 ebp
  00001	8b ec		 mov	 ebp, esp

; 1743 : 	IGraphInfoManager *pIGraphInfoManager = m_pIChartOCX->GetIGraphInfoManager();

  00003	8b 89 d8 09 00
	00		 mov	 ecx, DWORD PTR [ecx+2520]
  00009	83 ec 18	 sub	 esp, 24			; 00000018H
  0000c	8b 01		 mov	 eax, DWORD PTR [ecx]
  0000e	56		 push	 esi
  0000f	57		 push	 edi
  00010	ff 50 20	 call	 DWORD PTR [eax+32]
  00013	8b f0		 mov	 esi, eax

; 1744 : 	if( !pIGraphInfoManager) return 0;

  00015	85 f6		 test	 esi, esi
  00017	74 7c		 je	 SHORT $LN5@GetShowCur

; 1745 : 
; 1746 : 	IGraphInfo *pIPriceChart = pIGraphInfoManager->GetGraphInfo( IGraphInfoManager::IEILT_USER, _MTEXT( C2_PRICE_CHART ));

  00019	8b 0d 54 00 00
	00		 mov	 ecx, DWORD PTR ?g_iMetaTable@@3VIMetaTable@@A+84
  0001f	8b 16		 mov	 edx, DWORD PTR [esi]
  00021	ff b1 28 03 00
	00		 push	 DWORD PTR [ecx+808]
  00027	8b ce		 mov	 ecx, esi
  00029	6a 03		 push	 3
  0002b	ff 52 14	 call	 DWORD PTR [edx+20]

; 1747 : 	pIGraphInfoManager->Release();

  0002e	8b 0e		 mov	 ecx, DWORD PTR [esi]
  00030	8b f8		 mov	 edi, eax
  00032	56		 push	 esi
  00033	ff 51 08	 call	 DWORD PTR [ecx+8]

; 1748 : 	if( !pIPriceChart) return 0;

  00036	85 ff		 test	 edi, edi
  00038	74 5b		 je	 SHORT $LN5@GetShowCur

; 1749 : 
; 1750 : 	BOOL bLowHigh = FALSE, bLowCur = FALSE, bHighCur = FALSE, bPrevCur = FALSE, bShowOHLC = FALSE;
; 1751 : 	int nCurData = 0;
; 1752 : 	pIPriceChart->GetGraphDataDrawingData( bLowHigh, bLowCur, bHighCur, bPrevCur, nCurData, bShowOHLC);

  0003a	8d 4d f8	 lea	 ecx, DWORD PTR _bShowOHLC$[ebp]
  0003d	c7 45 e8 00 00
	00 00		 mov	 DWORD PTR _bLowHigh$[ebp], 0
  00044	51		 push	 ecx
  00045	8d 4d fc	 lea	 ecx, DWORD PTR _nCurData$[ebp]
  00048	c7 45 ec 00 00
	00 00		 mov	 DWORD PTR _bLowCur$[ebp], 0
  0004f	51		 push	 ecx
  00050	8d 4d f4	 lea	 ecx, DWORD PTR _bPrevCur$[ebp]
  00053	c7 45 f0 00 00
	00 00		 mov	 DWORD PTR _bHighCur$[ebp], 0
  0005a	51		 push	 ecx
  0005b	8d 4d f0	 lea	 ecx, DWORD PTR _bHighCur$[ebp]
  0005e	c7 45 f4 00 00
	00 00		 mov	 DWORD PTR _bPrevCur$[ebp], 0
  00065	51		 push	 ecx
  00066	8d 4d ec	 lea	 ecx, DWORD PTR _bLowCur$[ebp]
  00069	c7 45 f8 00 00
	00 00		 mov	 DWORD PTR _bShowOHLC$[ebp], 0
  00070	51		 push	 ecx
  00071	c7 45 fc 00 00
	00 00		 mov	 DWORD PTR _nCurData$[ebp], 0
  00078	8d 4d e8	 lea	 ecx, DWORD PTR _bLowHigh$[ebp]
  0007b	8b 07		 mov	 eax, DWORD PTR [edi]
  0007d	51		 push	 ecx
  0007e	8b cf		 mov	 ecx, edi
  00080	ff 90 ac 00 00
	00		 call	 DWORD PTR [eax+172]

; 1753 : 	pIPriceChart->Release();

  00086	8b 07		 mov	 eax, DWORD PTR [edi]
  00088	57		 push	 edi
  00089	ff 50 08	 call	 DWORD PTR [eax+8]

; 1754 : 
; 1755 : 	return nCurData;

  0008c	8b 45 fc	 mov	 eax, DWORD PTR _nCurData$[ebp]
  0008f	5f		 pop	 edi

; 1756 : }

  00090	5e		 pop	 esi
  00091	8b e5		 mov	 esp, ebp
  00093	5d		 pop	 ebp
  00094	c3		 ret	 0
$LN5@GetShowCur:
  00095	5f		 pop	 edi

; 1748 : 	if( !pIPriceChart) return 0;

  00096	33 c0		 xor	 eax, eax

; 1756 : }

  00098	5e		 pop	 esi
  00099	8b e5		 mov	 esp, ebp
  0009b	5d		 pop	 ebp
  0009c	c3		 ret	 0
?GetShowCurrentPrice@CDlgMainTabBaseEnvSetUp@@IAEHXZ ENDP ; CDlgMainTabBaseEnvSetUp::GetShowCurrentPrice
_TEXT	ENDS
; Function compile flags: /Ogtp
; File D:\git\src\IBK\IBK_DRFN\ProjSrc\SrcChartEx\ChartAddIn\ChartEnvSetupDlgAddIn\ChartEnvSetupDlgAddIn\DlgMainTabBaseEnvSetUp.cpp
;	COMDAT ?EnableRevisedPrice@CDlgMainTabBaseEnvSetUp@@QAEXH@Z
_TEXT	SEGMENT
_p_bCheck$ = 8						; size = 4
?EnableRevisedPrice@CDlgMainTabBaseEnvSetUp@@QAEXH@Z PROC ; CDlgMainTabBaseEnvSetUp::EnableRevisedPrice, COMDAT
; _this$ = ecx

; 506  : {

  00000	55		 push	 ebp
  00001	8b ec		 mov	 ebp, esp
  00003	56		 push	 esi

; 507  : 	// (2009/9/3 - Seung-Won, Bae) Check the control not in common.
; 508  : 	if( !GetDlgItem( IDC_USE_REVISED_PRICE)) return;

  00004	68 f7 03 00 00	 push	 1015			; 000003f7H
  00009	8b f1		 mov	 esi, ecx
  0000b	e8 00 00 00 00	 call	 ?GetDlgItem@CWnd@@QBEPAV1@H@Z ; CWnd::GetDlgItem
  00010	85 c0		 test	 eax, eax
  00012	74 1e		 je	 SHORT $LN1@EnableRevi

; 509  : 
; 510  : 	GetDlgItem(IDC_USE_REVISED_PRICE)->EnableWindow( TRUE );

  00014	6a 01		 push	 1
  00016	68 f7 03 00 00	 push	 1015			; 000003f7H
  0001b	8b ce		 mov	 ecx, esi
  0001d	e8 00 00 00 00	 call	 ?GetDlgItem@CWnd@@QBEPAV1@H@Z ; CWnd::GetDlgItem
  00022	8b c8		 mov	 ecx, eax
  00024	e8 00 00 00 00	 call	 ?EnableWindow@CWnd@@QAEHH@Z ; CWnd::EnableWindow

; 511  : 	m_bUseRevisedPrice = p_bCheck;

  00029	8b 45 08	 mov	 eax, DWORD PTR _p_bCheck$[ebp]
  0002c	89 86 f8 04 00
	00		 mov	 DWORD PTR [esi+1272], eax
$LN1@EnableRevi:
  00032	5e		 pop	 esi

; 512  : }

  00033	5d		 pop	 ebp
  00034	c2 04 00	 ret	 4
?EnableRevisedPrice@CDlgMainTabBaseEnvSetUp@@QAEXH@Z ENDP ; CDlgMainTabBaseEnvSetUp::EnableRevisedPrice
_TEXT	ENDS
; Function compile flags: /Ogtp
; File D:\git\src\IBK\IBK_DRFN\ProjSrc\SrcChartEx\ChartAddIn\ChartEnvSetupDlgAddIn\ChartEnvSetupDlgAddIn\DlgMainTabBaseEnvSetUp.cpp
;	COMDAT ?EnableRevisedPrice@CDlgMainTabBaseEnvSetUp@@AAEXXZ
_TEXT	SEGMENT
?EnableRevisedPrice@CDlgMainTabBaseEnvSetUp@@AAEXXZ PROC ; CDlgMainTabBaseEnvSetUp::EnableRevisedPrice, COMDAT
; _this$ = ecx

; 484  : {

  00000	56		 push	 esi

; 485  : 	// (2009/9/3 - Seung-Won, Bae) Check the control not in common.
; 486  : 	if( !GetDlgItem( IDC_USE_REVISED_PRICE)) return;

  00001	68 f7 03 00 00	 push	 1015			; 000003f7H
  00006	8b f1		 mov	 esi, ecx
  00008	e8 00 00 00 00	 call	 ?GetDlgItem@CWnd@@QBEPAV1@H@Z ; CWnd::GetDlgItem
  0000d	85 c0		 test	 eax, eax
  0000f	0f 84 8a 00 00
	00		 je	 $LN5@EnableRevi

; 487  : 
; 488  : 	//       Disable.
; 489  : 	int nVersion = GetAddInIVersion();

  00015	e8 00 00 00 00	 call	 _GetAddInIVersion

; 490  : 	if( 419999 < nVersion && nVersion < 430000  )

  0001a	05 60 97 f9 ff	 add	 eax, -420000		; fff99760H
  0001f	3d 0f 27 00 00	 cmp	 eax, 9999		; 0000270fH
  00024	77 17		 ja	 SHORT $LN3@EnableRevi

; 491  : 	{
; 492  : 		GetDlgItem(IDC_USE_REVISED_PRICE)->ShowWindow(SW_HIDE);

  00026	6a 00		 push	 0
  00028	68 f7 03 00 00	 push	 1015			; 000003f7H
  0002d	8b ce		 mov	 ecx, esi
  0002f	e8 00 00 00 00	 call	 ?GetDlgItem@CWnd@@QBEPAV1@H@Z ; CWnd::GetDlgItem
  00034	8b c8		 mov	 ecx, eax
  00036	e8 00 00 00 00	 call	 ?ShowWindow@CWnd@@QAEHH@Z ; CWnd::ShowWindow
  0003b	5e		 pop	 esi

; 503  : }

  0003c	c3		 ret	 0
$LN3@EnableRevi:
  0003d	57		 push	 edi

; 493  : 		return;
; 494  : 	}
; 495  : 	
; 496  : 	if( m_MChartInterface.InitMChartInterface061115() )

  0003e	8d 8e dc 09 00
	00		 lea	 ecx, DWORD PTR [esi+2524]
  00044	e8 00 00 00 00	 call	 ?InitMChartInterface061115@COutsideCommonInterfaceFunction@@QAEHXZ ; COutsideCommonInterfaceFunction::InitMChartInterface061115
  00049	85 c0		 test	 eax, eax
  0004b	74 29		 je	 SHORT $LN4@EnableRevi

; 497  : 	{
; 498  : 		GetDlgItem(IDC_USE_REVISED_PRICE)->EnableWindow( TRUE );

  0004d	6a 01		 push	 1
  0004f	68 f7 03 00 00	 push	 1015			; 000003f7H
  00054	8b ce		 mov	 ecx, esi
  00056	e8 00 00 00 00	 call	 ?GetDlgItem@CWnd@@QBEPAV1@H@Z ; CWnd::GetDlgItem
  0005b	8b c8		 mov	 ecx, eax
  0005d	e8 00 00 00 00	 call	 ?EnableWindow@CWnd@@QAEHH@Z ; CWnd::EnableWindow

; 499  : 		m_bUseRevisedPrice = m_MChartInterface.GetRevisedPriceFlag();

  00062	8d 8e dc 09 00
	00		 lea	 ecx, DWORD PTR [esi+2524]
  00068	e8 00 00 00 00	 call	 ?GetRevisedPriceFlag@COutsideCommonInterfaceFunction@@QAEHXZ ; COutsideCommonInterfaceFunction::GetRevisedPriceFlag
  0006d	5f		 pop	 edi
  0006e	89 86 f8 04 00
	00		 mov	 DWORD PTR [esi+1272], eax
  00074	5e		 pop	 esi

; 503  : }

  00075	c3		 ret	 0
$LN4@EnableRevi:

; 500  : 	}
; 501  : 	// (2007/10/5 - Seung-Won, Bae) Support Map
; 502  : 	else m_pIChartOCX->FireAddInEvent( CChartEnvSetupDlgAddInImp::m_strAddInItemName, 1005, NULL, 0, 0);

  00076	8b 8e d8 09 00
	00		 mov	 ecx, DWORD PTR [esi+2520]
  0007c	0f 57 c0	 xorps	 xmm0, xmm0
  0007f	6a 00		 push	 0
  00081	83 ec 08	 sub	 esp, 8
  00084	8b 01		 mov	 eax, DWORD PTR [ecx]
  00086	f2 0f 11 04 24	 movsd	 QWORD PTR [esp], xmm0
  0008b	6a 00		 push	 0
  0008d	68 ed 03 00 00	 push	 1005			; 000003edH
  00092	ff 35 00 00 00
	00		 push	 DWORD PTR ?m_strAddInItemName@CChartEnvSetupDlgAddInImp@@2V?$CStringT@DV?$StrTraitMFC_DLL@DV?$ChTraitsCRT@D@ATL@@@@@ATL@@A ; CChartEnvSetupDlgAddInImp::m_strAddInItemName
  00098	ff 90 80 01 00
	00		 call	 DWORD PTR [eax+384]
  0009e	5f		 pop	 edi
$LN5@EnableRevi:

; 503  : }

  0009f	5e		 pop	 esi
  000a0	c3		 ret	 0
?EnableRevisedPrice@CDlgMainTabBaseEnvSetUp@@AAEXXZ ENDP ; CDlgMainTabBaseEnvSetUp::EnableRevisedPrice
_TEXT	ENDS
; Function compile flags: /Ogtp
; File D:\git\src\IBK\IBK_DRFN\ProjSrc\SrcChartEx\ChartAddIn\ChartEnvSetupDlgAddIn\ChartEnvSetupDlgAddIn\DlgMainTabBaseEnvSetUp.cpp
;	COMDAT ?IsApplyShowCurrentPrice@CDlgMainTabBaseEnvSetUp@@ABE_NH@Z
_TEXT	SEGMENT
_nShowCurrentPrice$ = 8					; size = 4
?IsApplyShowCurrentPrice@CDlgMainTabBaseEnvSetUp@@ABE_NH@Z PROC ; CDlgMainTabBaseEnvSetUp::IsApplyShowCurrentPrice, COMDAT
; _this$ = ecx

; 974  : {

  00000	55		 push	 ebp
  00001	8b ec		 mov	 ebp, esp

; 975  : 	//        .
; 976  : // vntsorl_20110609:[A00000259]     
; 977  : 	if(m_nApplyShowCurrentPrice != nShowCurrentPrice)

  00003	8b 45 08	 mov	 eax, DWORD PTR _nShowCurrentPrice$[ebp]
  00006	39 81 98 09 00
	00		 cmp	 DWORD PTR [ecx+2456], eax
  0000c	74 06		 je	 SHORT $LN2@IsApplySho

; 978  : 		return true;

  0000e	b0 01		 mov	 al, 1

; 981  : }

  00010	5d		 pop	 ebp
  00011	c2 04 00	 ret	 4
$LN2@IsApplySho:

; 979  : 
; 980  : 	return (m_nOrgShowCurrentPrice != nShowCurrentPrice);

  00014	39 81 44 09 00
	00		 cmp	 DWORD PTR [ecx+2372], eax
  0001a	0f 95 c0	 setne	 al

; 981  : }

  0001d	5d		 pop	 ebp
  0001e	c2 04 00	 ret	 4
?IsApplyShowCurrentPrice@CDlgMainTabBaseEnvSetUp@@ABE_NH@Z ENDP ; CDlgMainTabBaseEnvSetUp::IsApplyShowCurrentPrice
_TEXT	ENDS
; Function compile flags: /Ogtp
; File D:\git\src\IBK\IBK_DRFN\ProjSrc\SrcChartEx\ChartAddIn\ChartEnvSetupDlgAddIn\ChartEnvSetupDlgAddIn\DlgMainTabBaseEnvSetUp.cpp
;	COMDAT ?EnableUseIndicatorName@CDlgMainTabBaseEnvSetUp@@AAEXH@Z
_TEXT	SEGMENT
_m_bShowAllTitle$ = 8					; size = 4
?EnableUseIndicatorName@CDlgMainTabBaseEnvSetUp@@AAEXH@Z PROC ; CDlgMainTabBaseEnvSetUp::EnableUseIndicatorName, COMDAT
; _this$ = ecx

; 542  : {

  00000	55		 push	 ebp
  00001	8b ec		 mov	 ebp, esp
  00003	57		 push	 edi

; 543  : 	GetDlgItem(IDC_INDICATOR_VARIABLE)->EnableWindow(m_bShowAllTitle);

  00004	ff 75 08	 push	 DWORD PTR _m_bShowAllTitle$[ebp]
  00007	8b f9		 mov	 edi, ecx
  00009	68 f1 07 00 00	 push	 2033			; 000007f1H
  0000e	e8 00 00 00 00	 call	 ?GetDlgItem@CWnd@@QBEPAV1@H@Z ; CWnd::GetDlgItem
  00013	8b c8		 mov	 ecx, eax
  00015	e8 00 00 00 00	 call	 ?EnableWindow@CWnd@@QAEHH@Z ; CWnd::EnableWindow

; 544  : 	GetDlgItem(IDC_INDICATOR_VALUE)->EnableWindow(m_bShowAllTitle);

  0001a	ff 75 08	 push	 DWORD PTR _m_bShowAllTitle$[ebp]
  0001d	8b cf		 mov	 ecx, edi
  0001f	68 f2 07 00 00	 push	 2034			; 000007f2H
  00024	e8 00 00 00 00	 call	 ?GetDlgItem@CWnd@@QBEPAV1@H@Z ; CWnd::GetDlgItem
  00029	8b c8		 mov	 ecx, eax
  0002b	e8 00 00 00 00	 call	 ?EnableWindow@CWnd@@QAEHH@Z ; CWnd::EnableWindow
  00030	5f		 pop	 edi

; 545  : }

  00031	5d		 pop	 ebp
  00032	c2 04 00	 ret	 4
?EnableUseIndicatorName@CDlgMainTabBaseEnvSetUp@@AAEXH@Z ENDP ; CDlgMainTabBaseEnvSetUp::EnableUseIndicatorName
_TEXT	ENDS
; Function compile flags: /Ogtp
; File D:\git\src\IBK\IBK_DRFN\ProjSrc\SrcChartEx\ChartAddIn\ChartEnvSetupDlgAddIn\ChartEnvSetupDlgAddIn\DlgMainTabBaseEnvSetUp.cpp
; File C:\Program Files (x86)\Microsoft Visual Studio\2019\Community\VC\Tools\MSVC\14.29.30133\atlmfc\include\afxwin2.inl
; File D:\git\src\IBK\IBK_DRFN\ProjSrc\SrcChartEx\ChartAddIn\ChartEnvSetupDlgAddIn\ChartEnvSetupDlgAddIn\DlgMainTabBaseEnvSetUp.cpp
; File C:\Program Files (x86)\Microsoft Visual Studio\2019\Community\VC\Tools\MSVC\14.29.30133\atlmfc\include\afxwin2.inl
; File D:\git\src\IBK\IBK_DRFN\ProjSrc\SrcChartEx\ChartAddIn\ChartEnvSetupDlgAddIn\ChartEnvSetupDlgAddIn\DlgMainTabBaseEnvSetUp.cpp
; File C:\Program Files (x86)\Microsoft Visual Studio\2019\Community\VC\Tools\MSVC\14.29.30133\atlmfc\include\afxwin2.inl
; File D:\git\src\IBK\IBK_DRFN\ProjSrc\SrcChartEx\ChartAddIn\ChartEnvSetupDlgAddIn\ChartEnvSetupDlgAddIn\DlgMainTabBaseEnvSetUp.cpp
; File C:\Program Files (x86)\Microsoft Visual Studio\2019\Community\VC\Tools\MSVC\14.29.30133\atlmfc\include\afxwin2.inl
; File D:\git\src\IBK\IBK_DRFN\ProjSrc\SrcChartEx\ChartAddIn\ChartEnvSetupDlgAddIn\ChartEnvSetupDlgAddIn\DlgMainTabBaseEnvSetUp.cpp
; File C:\Program Files (x86)\Microsoft Visual Studio\2019\Community\VC\Tools\MSVC\14.29.30133\atlmfc\include\afxwin2.inl
; File D:\git\src\IBK\IBK_DRFN\ProjSrc\SrcChartEx\ChartAddIn\ChartEnvSetupDlgAddIn\ChartEnvSetupDlgAddIn\DlgMainTabBaseEnvSetUp.cpp
; File C:\Program Files (x86)\Microsoft Visual Studio\2019\Community\VC\Tools\MSVC\14.29.30133\atlmfc\include\afxwin2.inl
; File D:\git\src\IBK\IBK_DRFN\ProjSrc\SrcChartEx\ChartAddIn\ChartEnvSetupDlgAddIn\ChartEnvSetupDlgAddIn\DlgMainTabBaseEnvSetUp.cpp
; File C:\Program Files (x86)\Microsoft Visual Studio\2019\Community\VC\Tools\MSVC\14.29.30133\atlmfc\include\afxwin2.inl
; File D:\git\src\IBK\IBK_DRFN\ProjSrc\SrcChartEx\ChartAddIn\ChartEnvSetupDlgAddIn\ChartEnvSetupDlgAddIn\DlgMainTabBaseEnvSetUp.cpp
; File C:\Program Files (x86)\Microsoft Visual Studio\2019\Community\VC\Tools\MSVC\14.29.30133\atlmfc\include\afxwin2.inl
; File D:\git\src\IBK\IBK_DRFN\ProjSrc\SrcChartEx\ChartAddIn\ChartEnvSetupDlgAddIn\ChartEnvSetupDlgAddIn\DlgMainTabBaseEnvSetUp.cpp
;	COMDAT ?EnableCurPrice@CDlgMainTabBaseEnvSetUp@@AAEXXZ
_TEXT	SEGMENT
_tmp$2 = -16						; size = 4
__$EHRec$ = -12						; size = 12
?EnableCurPrice@CDlgMainTabBaseEnvSetUp@@AAEXXZ PROC	; CDlgMainTabBaseEnvSetUp::EnableCurPrice, COMDAT
; _this$ = ecx

; 599  : {

  00000	55		 push	 ebp
  00001	8b ec		 mov	 ebp, esp
  00003	6a ff		 push	 -1
  00005	68 00 00 00 00	 push	 __ehhandler$?EnableCurPrice@CDlgMainTabBaseEnvSetUp@@AAEXXZ
  0000a	64 a1 00 00 00
	00		 mov	 eax, DWORD PTR fs:0
  00010	50		 push	 eax
  00011	51		 push	 ecx
  00012	56		 push	 esi
  00013	57		 push	 edi
  00014	a1 00 00 00 00	 mov	 eax, DWORD PTR ___security_cookie
  00019	33 c5		 xor	 eax, ebp
  0001b	50		 push	 eax
  0001c	8d 45 f4	 lea	 eax, DWORD PTR __$EHRec$[ebp]
  0001f	64 a3 00 00 00
	00		 mov	 DWORD PTR fs:0, eax
  00025	8b f1		 mov	 esi, ecx

; 600  : // vntsorl_20110609:[A00000259]     
; 601  : 	//    - ojtaso (20071112)
; 602  : // 	if(!m_bOrgShowCurrentPrice)
; 603  : // 	{
; 604  : // 		m_bShowCurrentPrice = FALSE;	//  
; 605  : // 		GetDlgItem(IDC_STATIC_CUR_PRICE)->EnableWindow( FALSE );
; 606  : // 		GetDlgItem(IDC_CUR_PRICE_1)->EnableWindow( FALSE );
; 607  : // 		GetDlgItem(IDC_CUR_PRICE_2)->EnableWindow( FALSE );
; 608  : // 		GetDlgItem(IDC_CUR_PRICE_3)->EnableWindow( FALSE );
; 609  : // 		GetDlgItem(IDC_CUR_PRICE_4)->EnableWindow( FALSE );
; 610  : // 	}
; 611  : // 	else
; 612  : // 	{
; 613  : // 		GetDlgItem(IDC_STATIC_CUR_PRICE)->EnableWindow( TRUE );
; 614  : // 		GetDlgItem(IDC_CUR_PRICE_1)->EnableWindow( TRUE );
; 615  : // 		GetDlgItem(IDC_CUR_PRICE_2)->EnableWindow( TRUE );
; 616  : // 		GetDlgItem(IDC_CUR_PRICE_3)->EnableWindow( TRUE );
; 617  : // 		GetDlgItem(IDC_CUR_PRICE_4)->EnableWindow( TRUE );
; 618  : // 		m_bShowCurrentPrice = TRUE;
; 619  : // 		m_nCurPriceSub = m_bOrgShowCurrentPrice - 1;
; 620  : // 	}
; 621  : 
; 622  : 	if( GetDlgItem(IDC_CUR_PRICE_TYPE_COMBO) )

  00027	68 6b 1f 00 00	 push	 8043			; 00001f6bH
  0002c	e8 00 00 00 00	 call	 ?GetDlgItem@CWnd@@QBEPAV1@H@Z ; CWnd::GetDlgItem
  00031	85 c0		 test	 eax, eax
  00033	0f 84 11 02 00
	00		 je	 $LN6@EnableCurP

; 623  : 	{
; 624  : 
; 625  : 		UpdateData();

  00039	6a 01		 push	 1
  0003b	8b ce		 mov	 ecx, esi
  0003d	e8 00 00 00 00	 call	 ?UpdateData@CWnd@@QAEHH@Z ; CWnd::UpdateData
; File C:\Program Files (x86)\Microsoft Visual Studio\2019\Community\VC\Tools\MSVC\14.29.30133\atlmfc\include\afxwin2.inl

; 763  : 	{ ASSERT(::IsWindow(m_hWnd)); return (int)::SendMessage(m_hWnd, CB_GETCOUNT, 0, 0); }

  00042	8b 3d 00 00 00
	00		 mov	 edi, DWORD PTR __imp__SendMessageA@16
  00048	6a 00		 push	 0
  0004a	6a 00		 push	 0
  0004c	68 46 01 00 00	 push	 326			; 00000146H
  00051	ff b6 30 05 00
	00		 push	 DWORD PTR [esi+1328]
  00057	ff d7		 call	 edi
; File D:\git\src\IBK\IBK_DRFN\ProjSrc\SrcChartEx\ChartAddIn\ChartEnvSetupDlgAddIn\ChartEnvSetupDlgAddIn\DlgMainTabBaseEnvSetUp.cpp

; 627  : 		while( m_curPriceTypeCombo.GetCount() )

  00059	85 c0		 test	 eax, eax
  0005b	74 29		 je	 SHORT $LN3@EnableCurP
  0005d	0f 1f 00	 npad	 3
$LL2@EnableCurP:
; File C:\Program Files (x86)\Microsoft Visual Studio\2019\Community\VC\Tools\MSVC\14.29.30133\atlmfc\include\afxwin2.inl

; 797  : 	{ ASSERT(::IsWindow(m_hWnd)); return (int)::SendMessage(m_hWnd, CB_DELETESTRING, nIndex, 0);}

  00060	6a 00		 push	 0
  00062	6a 00		 push	 0
  00064	68 44 01 00 00	 push	 324			; 00000144H
  00069	ff b6 30 05 00
	00		 push	 DWORD PTR [esi+1328]
  0006f	ff d7		 call	 edi

; 763  : 	{ ASSERT(::IsWindow(m_hWnd)); return (int)::SendMessage(m_hWnd, CB_GETCOUNT, 0, 0); }

  00071	6a 00		 push	 0
  00073	6a 00		 push	 0
  00075	68 46 01 00 00	 push	 326			; 00000146H
  0007a	ff b6 30 05 00
	00		 push	 DWORD PTR [esi+1328]
  00080	ff d7		 call	 edi
; File D:\git\src\IBK\IBK_DRFN\ProjSrc\SrcChartEx\ChartAddIn\ChartEnvSetupDlgAddIn\ChartEnvSetupDlgAddIn\DlgMainTabBaseEnvSetUp.cpp

; 627  : 		while( m_curPriceTypeCombo.GetCount() )

  00082	85 c0		 test	 eax, eax
  00084	75 da		 jne	 SHORT $LL2@EnableCurP
$LN3@EnableCurP:

; 628  : 			m_curPriceTypeCombo.DeleteString(0);
; 629  : 
; 630  : 		CString tmp;

  00086	8d 4d f0	 lea	 ecx, DWORD PTR _tmp$2[ebp]
  00089	ff 15 00 00 00
	00		 call	 DWORD PTR __imp_??0?$CStringT@DV?$StrTraitMFC_DLL@DV?$ChTraitsCRT@D@ATL@@@@@ATL@@QAE@XZ

; 631  : 		tmp.LoadString(IDS_LOWHIGH_MARK_STR_1);

  0008f	6a 56		 push	 86			; 00000056H
  00091	8d 4d f0	 lea	 ecx, DWORD PTR _tmp$2[ebp]
  00094	c7 45 fc 00 00
	00 00		 mov	 DWORD PTR __$EHRec$[ebp+8], 0
  0009b	ff 15 00 00 00
	00		 call	 DWORD PTR __imp_?LoadStringA@?$CStringT@DV?$StrTraitMFC_DLL@DV?$ChTraitsCRT@D@ATL@@@@@ATL@@QAEHI@Z
; File C:\Program Files (x86)\Microsoft Visual Studio\2019\Community\VC\Tools\MSVC\14.29.30133\atlmfc\include\afxwin2.inl

; 795  : 	{ ASSERT(::IsWindow(m_hWnd)); return (int)::SendMessage(m_hWnd, CB_ADDSTRING, 0, (LPARAM)lpszString); }

  000a1	ff 75 f0	 push	 DWORD PTR _tmp$2[ebp]
  000a4	6a 00		 push	 0
  000a6	68 43 01 00 00	 push	 323			; 00000143H
  000ab	ff b6 30 05 00
	00		 push	 DWORD PTR [esi+1328]
  000b1	ff d7		 call	 edi
; File D:\git\src\IBK\IBK_DRFN\ProjSrc\SrcChartEx\ChartAddIn\ChartEnvSetupDlgAddIn\ChartEnvSetupDlgAddIn\DlgMainTabBaseEnvSetUp.cpp

; 633  : 		tmp.LoadString(IDS_LOWHIGH_MARK_STR_5);		// (2011/2/9 - Seung-Won, Bae) for the difference only.

  000b3	6a 5a		 push	 90			; 0000005aH
  000b5	8d 4d f0	 lea	 ecx, DWORD PTR _tmp$2[ebp]
  000b8	ff 15 00 00 00
	00		 call	 DWORD PTR __imp_?LoadStringA@?$CStringT@DV?$StrTraitMFC_DLL@DV?$ChTraitsCRT@D@ATL@@@@@ATL@@QAEHI@Z
; File C:\Program Files (x86)\Microsoft Visual Studio\2019\Community\VC\Tools\MSVC\14.29.30133\atlmfc\include\afxwin2.inl

; 795  : 	{ ASSERT(::IsWindow(m_hWnd)); return (int)::SendMessage(m_hWnd, CB_ADDSTRING, 0, (LPARAM)lpszString); }

  000be	ff 75 f0	 push	 DWORD PTR _tmp$2[ebp]
  000c1	6a 00		 push	 0
  000c3	68 43 01 00 00	 push	 323			; 00000143H
  000c8	ff b6 30 05 00
	00		 push	 DWORD PTR [esi+1328]
  000ce	ff d7		 call	 edi
; File D:\git\src\IBK\IBK_DRFN\ProjSrc\SrcChartEx\ChartAddIn\ChartEnvSetupDlgAddIn\ChartEnvSetupDlgAddIn\DlgMainTabBaseEnvSetUp.cpp

; 635  : 		tmp.LoadString(IDS_LOWHIGH_MARK_STR_2);

  000d0	6a 57		 push	 87			; 00000057H
  000d2	8d 4d f0	 lea	 ecx, DWORD PTR _tmp$2[ebp]
  000d5	ff 15 00 00 00
	00		 call	 DWORD PTR __imp_?LoadStringA@?$CStringT@DV?$StrTraitMFC_DLL@DV?$ChTraitsCRT@D@ATL@@@@@ATL@@QAEHI@Z
; File C:\Program Files (x86)\Microsoft Visual Studio\2019\Community\VC\Tools\MSVC\14.29.30133\atlmfc\include\afxwin2.inl

; 795  : 	{ ASSERT(::IsWindow(m_hWnd)); return (int)::SendMessage(m_hWnd, CB_ADDSTRING, 0, (LPARAM)lpszString); }

  000db	ff 75 f0	 push	 DWORD PTR _tmp$2[ebp]
  000de	6a 00		 push	 0
  000e0	68 43 01 00 00	 push	 323			; 00000143H
  000e5	ff b6 30 05 00
	00		 push	 DWORD PTR [esi+1328]
  000eb	ff d7		 call	 edi
; File D:\git\src\IBK\IBK_DRFN\ProjSrc\SrcChartEx\ChartAddIn\ChartEnvSetupDlgAddIn\ChartEnvSetupDlgAddIn\DlgMainTabBaseEnvSetUp.cpp

; 637  : 		tmp.LoadString(IDS_LOWHIGH_MARK_STR_3);

  000ed	6a 58		 push	 88			; 00000058H
  000ef	8d 4d f0	 lea	 ecx, DWORD PTR _tmp$2[ebp]
  000f2	ff 15 00 00 00
	00		 call	 DWORD PTR __imp_?LoadStringA@?$CStringT@DV?$StrTraitMFC_DLL@DV?$ChTraitsCRT@D@ATL@@@@@ATL@@QAEHI@Z
; File C:\Program Files (x86)\Microsoft Visual Studio\2019\Community\VC\Tools\MSVC\14.29.30133\atlmfc\include\afxwin2.inl

; 795  : 	{ ASSERT(::IsWindow(m_hWnd)); return (int)::SendMessage(m_hWnd, CB_ADDSTRING, 0, (LPARAM)lpszString); }

  000f8	ff 75 f0	 push	 DWORD PTR _tmp$2[ebp]
  000fb	6a 00		 push	 0
  000fd	68 43 01 00 00	 push	 323			; 00000143H
  00102	ff b6 30 05 00
	00		 push	 DWORD PTR [esi+1328]
  00108	ff d7		 call	 edi
; File D:\git\src\IBK\IBK_DRFN\ProjSrc\SrcChartEx\ChartAddIn\ChartEnvSetupDlgAddIn\ChartEnvSetupDlgAddIn\DlgMainTabBaseEnvSetUp.cpp

; 640  : 		if( m_pIChartOCX->GetChartMode() == CChartInfo::CHART_MODE::DEVELOPER ||

  0010a	8b 8e d8 09 00
	00		 mov	 ecx, DWORD PTR [esi+2520]
  00110	8b 01		 mov	 eax, DWORD PTR [ecx]
  00112	ff 90 24 02 00
	00		 call	 DWORD PTR [eax+548]
  00118	85 c0		 test	 eax, eax
  0011a	74 13		 je	 SHORT $LN8@EnableCurP
  0011c	8b 8e d8 09 00
	00		 mov	 ecx, DWORD PTR [esi+2520]
  00122	8b 01		 mov	 eax, DWORD PTR [ecx]
  00124	ff 90 24 02 00
	00		 call	 DWORD PTR [eax+548]
  0012a	83 f8 02	 cmp	 eax, 2
  0012d	75 1d		 jne	 SHORT $LN7@EnableCurP
$LN8@EnableCurP:

; 641  : 			m_pIChartOCX->GetChartMode() == CChartInfo::CHART_MODE::FX ){
; 642  : 			// Fx  
; 643  : 			tmp.LoadString(IDS_LOWHIGH_MARK_STR_4);

  0012f	6a 59		 push	 89			; 00000059H
  00131	8d 4d f0	 lea	 ecx, DWORD PTR _tmp$2[ebp]
  00134	ff 15 00 00 00
	00		 call	 DWORD PTR __imp_?LoadStringA@?$CStringT@DV?$StrTraitMFC_DLL@DV?$ChTraitsCRT@D@ATL@@@@@ATL@@QAEHI@Z
; File C:\Program Files (x86)\Microsoft Visual Studio\2019\Community\VC\Tools\MSVC\14.29.30133\atlmfc\include\afxwin2.inl

; 795  : 	{ ASSERT(::IsWindow(m_hWnd)); return (int)::SendMessage(m_hWnd, CB_ADDSTRING, 0, (LPARAM)lpszString); }

  0013a	ff 75 f0	 push	 DWORD PTR _tmp$2[ebp]
  0013d	6a 00		 push	 0
  0013f	68 43 01 00 00	 push	 323			; 00000143H
  00144	ff b6 30 05 00
	00		 push	 DWORD PTR [esi+1328]
  0014a	ff d7		 call	 edi
$LN7@EnableCurP:
; File D:\git\src\IBK\IBK_DRFN\ProjSrc\SrcChartEx\ChartAddIn\ChartEnvSetupDlgAddIn\ChartEnvSetupDlgAddIn\DlgMainTabBaseEnvSetUp.cpp

; 647  : 		if( m_nCurPriceSub < 0 ){

  0014c	8b 86 9c 03 00
	00		 mov	 eax, DWORD PTR [esi+924]
  00152	85 c0		 test	 eax, eax
  00154	79 0e		 jns	 SHORT $LN9@EnableCurP

; 648  : 			m_nCurPriceSub = GetShowCurrentPrice()-1;

  00156	8b ce		 mov	 ecx, esi
  00158	e8 00 00 00 00	 call	 ?GetShowCurrentPrice@CDlgMainTabBaseEnvSetUp@@IAEHXZ ; CDlgMainTabBaseEnvSetUp::GetShowCurrentPrice
  0015d	48		 dec	 eax
  0015e	89 86 9c 03 00
	00		 mov	 DWORD PTR [esi+924], eax
$LN9@EnableCurP:

; 649  : 		}
; 650  : 		m_nOrgShowCurrentPrice = m_nCurPriceSub + 1;

  00164	8d 48 01	 lea	 ecx, DWORD PTR [eax+1]
  00167	89 8e 44 09 00
	00		 mov	 DWORD PTR [esi+2372], ecx

; 651  : 
; 652  : 		int cur = m_nCurPriceSub;
; 653  : 		switch(cur){

  0016d	83 f8 09	 cmp	 eax, 9
  00170	0f 87 a4 00 00
	00		 ja	 $LN38@EnableCurP
  00176	0f b6 88 00 00
	00 00		 movzx	 ecx, BYTE PTR $LN71@EnableCurP[eax]
  0017d	ff 24 8d 00 00
	00 00		 jmp	 DWORD PTR $LN72@EnableCurP[ecx*4]
$LN10@EnableCurP:

; 654  : 		case 0:
; 655  : 		case 4:
; 656  : 		case 2:
; 657  : 		case 6:
; 658  : 		case 8:
; 659  : 			if( cur == 4 ) cur = 0;

  00184	83 f8 04	 cmp	 eax, 4
  00187	75 04		 jne	 SHORT $LN15@EnableCurP
  00189	33 c0		 xor	 eax, eax
  0018b	eb 2e		 jmp	 SHORT $LN23@EnableCurP
$LN15@EnableCurP:

; 660  : 			else if( cur == 8 ) cur = 1;	// (2011/2/9 - Seung-Won, Bae) for the difference only.

  0018d	83 f8 08	 cmp	 eax, 8
  00190	75 07		 jne	 SHORT $LN17@EnableCurP
  00192	b8 01 00 00 00	 mov	 eax, 1
  00197	eb 22		 jmp	 SHORT $LN23@EnableCurP
$LN17@EnableCurP:

; 661  : 			else if( cur == 0 ) cur = 2;

  00199	85 c0		 test	 eax, eax
  0019b	75 07		 jne	 SHORT $LN19@EnableCurP
  0019d	b8 02 00 00 00	 mov	 eax, 2
  001a2	eb 17		 jmp	 SHORT $LN23@EnableCurP
$LN19@EnableCurP:

; 662  : 			else if( cur == 2 ) cur = 3;

  001a4	83 f8 02	 cmp	 eax, 2
  001a7	75 07		 jne	 SHORT $LN21@EnableCurP
  001a9	b8 03 00 00 00	 mov	 eax, 3
  001ae	eb 0b		 jmp	 SHORT $LN23@EnableCurP
$LN21@EnableCurP:

; 663  : 			else if( cur == 6 ) cur = 4;

  001b0	83 f8 06	 cmp	 eax, 6
  001b3	b9 04 00 00 00	 mov	 ecx, 4
  001b8	0f 44 c1	 cmove	 eax, ecx
$LN23@EnableCurP:

; 664  : 			m_nPriceBongType=0;

  001bb	c7 86 90 05 00
	00 00 00 00 00	 mov	 DWORD PTR [esi+1424], 0

; 665  : 			m_bShowCurrentPrice = TRUE;

  001c5	c7 86 84 03 00
	00 01 00 00 00	 mov	 DWORD PTR [esi+900], 1

; 666  : 			break;

  001cf	eb 57		 jmp	 SHORT $LN4@EnableCurP
$LN24@EnableCurP:

; 667  : 		case 1:
; 668  : 		case 5:
; 669  : 		case 3:
; 670  : 		case 7:
; 671  : 		case 9:
; 672  : 			if( cur == 5 ) cur = 0;

  001d1	83 f8 05	 cmp	 eax, 5
  001d4	75 04		 jne	 SHORT $LN29@EnableCurP
  001d6	33 c0		 xor	 eax, eax
  001d8	eb 2a		 jmp	 SHORT $LN37@EnableCurP
$LN29@EnableCurP:

; 673  : 			else if( cur == 9 ) cur = 1;	// (2011/2/9 - Seung-Won, Bae) for the difference only.

  001da	83 f8 09	 cmp	 eax, 9
  001dd	75 07		 jne	 SHORT $LN31@EnableCurP
  001df	b8 01 00 00 00	 mov	 eax, 1
  001e4	eb 1e		 jmp	 SHORT $LN37@EnableCurP
$LN31@EnableCurP:

; 674  : 			else if( cur == 1 ) cur = 2;

  001e6	83 f8 01	 cmp	 eax, 1
  001e9	75 07		 jne	 SHORT $LN33@EnableCurP
  001eb	b8 02 00 00 00	 mov	 eax, 2
  001f0	eb 12		 jmp	 SHORT $LN37@EnableCurP
$LN33@EnableCurP:

; 675  : 			else if( cur == 3 ) cur = 3;

  001f2	83 f8 03	 cmp	 eax, 3
  001f5	75 02		 jne	 SHORT $LN35@EnableCurP
  001f7	eb 0b		 jmp	 SHORT $LN37@EnableCurP
$LN35@EnableCurP:

; 676  : 			else if( cur == 7 ) cur = 4;

  001f9	83 f8 07	 cmp	 eax, 7
  001fc	b9 04 00 00 00	 mov	 ecx, 4
  00201	0f 44 c1	 cmove	 eax, ecx
$LN37@EnableCurP:

; 677  : 			m_nPriceBongType=1;

  00204	c7 86 90 05 00
	00 01 00 00 00	 mov	 DWORD PTR [esi+1424], 1

; 678  : 			m_bShowCurrentPrice = TRUE;

  0020e	c7 86 84 03 00
	00 01 00 00 00	 mov	 DWORD PTR [esi+900], 1

; 679  : 			break;

  00218	eb 0e		 jmp	 SHORT $LN4@EnableCurP
$LN38@EnableCurP:

; 680  : 		default:
; 681  : 			cur = 0;

  0021a	33 c0		 xor	 eax, eax

; 682  : 			m_nPriceBongType=0;

  0021c	89 86 90 05 00
	00		 mov	 DWORD PTR [esi+1424], eax

; 683  : 			m_bShowCurrentPrice = FALSE;

  00222	89 86 84 03 00
	00		 mov	 DWORD PTR [esi+900], eax
$LN4@EnableCurP:
; File C:\Program Files (x86)\Microsoft Visual Studio\2019\Community\VC\Tools\MSVC\14.29.30133\atlmfc\include\afxwin2.inl

; 767  : 	{ ASSERT(::IsWindow(m_hWnd)); return (int)::SendMessage(m_hWnd, CB_SETCURSEL, nSelect, 0); }

  00228	6a 00		 push	 0
  0022a	50		 push	 eax
  0022b	68 4e 01 00 00	 push	 334			; 0000014eH
  00230	ff b6 30 05 00
	00		 push	 DWORD PTR [esi+1328]
  00236	ff d7		 call	 edi
; File D:\git\src\IBK\IBK_DRFN\ProjSrc\SrcChartEx\ChartAddIn\ChartEnvSetupDlgAddIn\ChartEnvSetupDlgAddIn\DlgMainTabBaseEnvSetUp.cpp

; 689  : 		UpdateData(FALSE);

  00238	6a 00		 push	 0
  0023a	8b ce		 mov	 ecx, esi
  0023c	e8 00 00 00 00	 call	 ?UpdateData@CWnd@@QAEHH@Z ; CWnd::UpdateData

; 690  : 	}

  00241	8d 4d f0	 lea	 ecx, DWORD PTR _tmp$2[ebp]
  00244	ff 15 00 00 00
	00		 call	 DWORD PTR __imp_??1?$CStringT@DV?$StrTraitMFC_DLL@DV?$ChTraitsCRT@D@ATL@@@@@ATL@@QAE@XZ
$LN6@EnableCurP:

; 691  : }

  0024a	8b 4d f4	 mov	 ecx, DWORD PTR __$EHRec$[ebp]
  0024d	64 89 0d 00 00
	00 00		 mov	 DWORD PTR fs:0, ecx
  00254	59		 pop	 ecx
  00255	5f		 pop	 edi
  00256	5e		 pop	 esi
  00257	8b e5		 mov	 esp, ebp
  00259	5d		 pop	 ebp
  0025a	c3		 ret	 0
  0025b	90		 npad	 1
$LN72@EnableCurP:
  0025c	00 00 00 00	 DD	 $LN10@EnableCurP
  00260	00 00 00 00	 DD	 $LN24@EnableCurP
$LN71@EnableCurP:
  00264	00		 DB	 0
  00265	01		 DB	 1
  00266	00		 DB	 0
  00267	01		 DB	 1
  00268	00		 DB	 0
  00269	01		 DB	 1
  0026a	00		 DB	 0
  0026b	01		 DB	 1
  0026c	00		 DB	 0
  0026d	01		 DB	 1
_TEXT	ENDS
;	COMDAT text$x
text$x	SEGMENT
__unwindfunclet$?EnableCurPrice@CDlgMainTabBaseEnvSetUp@@AAEXXZ$0:
  00000	8d 4d f0	 lea	 ecx, DWORD PTR _tmp$2[ebp]
  00003	ff 25 00 00 00
	00		 jmp	 DWORD PTR __imp_??1?$CStringT@DV?$StrTraitMFC_DLL@DV?$ChTraitsCRT@D@ATL@@@@@ATL@@QAE@XZ
  00009	cc		 int	 3
  0000a	cc		 int	 3
  0000b	cc		 int	 3
  0000c	cc		 int	 3
  0000d	cc		 int	 3
__ehhandler$?EnableCurPrice@CDlgMainTabBaseEnvSetUp@@AAEXXZ:
  0000e	90		 npad	 1
  0000f	90		 npad	 1
  00010	8b 54 24 08	 mov	 edx, DWORD PTR [esp+8]
  00014	8d 42 0c	 lea	 eax, DWORD PTR [edx+12]
  00017	8b 4a f0	 mov	 ecx, DWORD PTR [edx-16]
  0001a	33 c8		 xor	 ecx, eax
  0001c	e8 00 00 00 00	 call	 @__security_check_cookie@4
  00021	b8 00 00 00 00	 mov	 eax, OFFSET __ehfuncinfo$?EnableCurPrice@CDlgMainTabBaseEnvSetUp@@AAEXXZ
  00026	e9 00 00 00 00	 jmp	 ___CxxFrameHandler3
text$x	ENDS
?EnableCurPrice@CDlgMainTabBaseEnvSetUp@@AAEXXZ ENDP	; CDlgMainTabBaseEnvSetUp::EnableCurPrice
; Function compile flags: /Ogtp
; File D:\git\src\IBK\IBK_DRFN\ProjSrc\SrcChartEx\ChartAddIn\ChartEnvSetupDlgAddIn\ChartEnvSetupDlgAddIn\DlgMainTabBaseEnvSetUp.cpp
; File D:\git\src\IBK\IBK_DRFN\ProjSrc\SrcChartEx\ChartAddIn\ChartEnvSetupDlgAddIn\Include_AddIn_135914\I135914\_IString.h
; File D:\git\src\IBK\IBK_DRFN\ProjSrc\SrcChartEx\ChartAddIn\ChartEnvSetupDlgAddIn\ChartEnvSetupDlgAddIn\DlgMainTabBaseEnvSetUp.cpp
; File D:\git\src\IBK\IBK_DRFN\ProjSrc\SrcChartEx\ChartAddIn\ChartEnvSetupDlgAddIn\Include_AddIn_135914\I135914\_IString.h
; File D:\git\src\IBK\IBK_DRFN\ProjSrc\SrcChartEx\ChartAddIn\ChartEnvSetupDlgAddIn\ChartEnvSetupDlgAddIn\DlgMainTabBaseEnvSetUp.cpp
; File D:\git\src\IBK\IBK_DRFN\ProjSrc\SrcChartEx\ChartAddIn\ChartEnvSetupDlgAddIn\Include_AddIn_135914\I135914\_IString.h
; File D:\git\src\IBK\IBK_DRFN\ProjSrc\SrcChartEx\ChartAddIn\ChartEnvSetupDlgAddIn\ChartEnvSetupDlgAddIn\DlgMainTabBaseEnvSetUp.cpp
; File D:\git\src\IBK\IBK_DRFN\ProjSrc\SrcChartEx\ChartAddIn\ChartEnvSetupDlgAddIn\Include_AddIn_135914\I135914\_IString.h
; File D:\git\src\IBK\IBK_DRFN\ProjSrc\SrcChartEx\ChartAddIn\ChartEnvSetupDlgAddIn\ChartEnvSetupDlgAddIn\DlgMainTabBaseEnvSetUp.cpp
;	COMDAT ?EnableShowExRightDividend@CDlgMainTabBaseEnvSetUp@@AAEXXZ
_TEXT	SEGMENT
_szGraphName$2 = -36					; size = 8
_nR$3 = -28						; size = 4
_nC$4 = -24						; size = 4
_nV$5 = -20						; size = 4
_nG$6 = -16						; size = 4
__$EHRec$ = -12						; size = 12
?EnableShowExRightDividend@CDlgMainTabBaseEnvSetUp@@AAEXXZ PROC ; CDlgMainTabBaseEnvSetUp::EnableShowExRightDividend, COMDAT
; _this$ = ecx

; 517  : { 

  00000	55		 push	 ebp
  00001	8b ec		 mov	 ebp, esp
  00003	6a ff		 push	 -1
  00005	68 00 00 00 00	 push	 __ehhandler$?EnableShowExRightDividend@CDlgMainTabBaseEnvSetUp@@AAEXXZ
  0000a	64 a1 00 00 00
	00		 mov	 eax, DWORD PTR fs:0
  00010	50		 push	 eax
  00011	83 ec 18	 sub	 esp, 24			; 00000018H
  00014	53		 push	 ebx
  00015	56		 push	 esi
  00016	57		 push	 edi
  00017	a1 00 00 00 00	 mov	 eax, DWORD PTR ___security_cookie
  0001c	33 c5		 xor	 eax, ebp
  0001e	50		 push	 eax
  0001f	8d 45 f4	 lea	 eax, DWORD PTR __$EHRec$[ebp]
  00022	64 a3 00 00 00
	00		 mov	 DWORD PTR fs:0, eax
  00028	8b f1		 mov	 esi, ecx

; 518  : 	// (2009/9/3 - Seung-Won, Bae) Check the control not in common.
; 519  : 	if( !GetDlgItem( IDC_SHOW_EXRIGHT_DIVIDEND)) return;

  0002a	68 eb 07 00 00	 push	 2027			; 000007ebH
  0002f	e8 00 00 00 00	 call	 ?GetDlgItem@CWnd@@QBEPAV1@H@Z ; CWnd::GetDlgItem
  00034	85 c0		 test	 eax, eax
  00036	0f 84 e4 00 00
	00		 je	 $LN4@EnableShow

; 520  : 
; 521  : 	m_bShowExRightDividend = FALSE;
; 522  : 	IChartManager *pIChartManager = m_pIChartOCX->GetIChartManager();

  0003c	8b 8e d8 09 00
	00		 mov	 ecx, DWORD PTR [esi+2520]
  00042	c7 86 f0 04 00
	00 00 00 00 00	 mov	 DWORD PTR [esi+1264], 0
  0004c	8b 01		 mov	 eax, DWORD PTR [ecx]
  0004e	ff 50 18	 call	 DWORD PTR [eax+24]
  00051	8b d8		 mov	 ebx, eax

; 523  : 	if( pIChartManager)

  00053	85 db		 test	 ebx, ebx
  00055	0f 84 8d 00 00
	00		 je	 $LN16@EnableShow

; 526  : 		ILPCSTR szGraphName = pIChartManager->FindFirstIndicator( _MTEXT( C2_LOCK), nR, nC, nV, nG, NULL);

  0005b	8b 13		 mov	 edx, DWORD PTR [ebx]
  0005d	8d 45 f0	 lea	 eax, DWORD PTR _nG$6[ebp]
  00060	6a 00		 push	 0
  00062	50		 push	 eax
  00063	8d 45 ec	 lea	 eax, DWORD PTR _nV$5[ebp]
  00066	c7 45 e4 ff ff
	ff ff		 mov	 DWORD PTR _nR$3[ebp], -1
  0006d	50		 push	 eax
  0006e	8d 45 e8	 lea	 eax, DWORD PTR _nC$4[ebp]
  00071	c7 45 e8 ff ff
	ff ff		 mov	 DWORD PTR _nC$4[ebp], -1
  00078	50		 push	 eax
  00079	8d 45 e4	 lea	 eax, DWORD PTR _nR$3[ebp]
  0007c	c7 45 ec ff ff
	ff ff		 mov	 DWORD PTR _nV$5[ebp], -1
  00083	50		 push	 eax
  00084	a1 54 00 00 00	 mov	 eax, DWORD PTR ?g_iMetaTable@@3VIMetaTable@@A+84
  00089	8b cb		 mov	 ecx, ebx
  0008b	c7 45 f0 ff ff
	ff ff		 mov	 DWORD PTR _nG$6[ebp], -1
  00092	ff b0 e4 0c 00
	00		 push	 DWORD PTR [eax+3300]
  00098	ff 52 58	 call	 DWORD PTR [edx+88]
; File D:\git\src\IBK\IBK_DRFN\ProjSrc\SrcChartEx\ChartAddIn\ChartEnvSetupDlgAddIn\Include_AddIn_135914\I135914\_IString.h

; 39   : 		m_pIStrData = p_pIString;	// Do not AddRef(). Because It must be Return Value.

  0009b	8b f8		 mov	 edi, eax
  0009d	89 7d e0	 mov	 DWORD PTR _szGraphName$2[ebp+4], edi

; 40   : 		if( m_pIStrData) m_szData = m_pIStrData->GetData();

  000a0	85 ff		 test	 edi, edi
  000a2	74 09		 je	 SHORT $LN8@EnableShow
  000a4	8b 17		 mov	 edx, DWORD PTR [edi]
  000a6	8b cf		 mov	 ecx, edi
  000a8	ff 52 10	 call	 DWORD PTR [edx+16]
  000ab	eb 02		 jmp	 SHORT $LN19@EnableShow
$LN8@EnableShow:

; 41   : 		else m_szData = NULL;

  000ad	33 c0		 xor	 eax, eax
$LN19@EnableShow:
; File D:\git\src\IBK\IBK_DRFN\ProjSrc\SrcChartEx\ChartAddIn\ChartEnvSetupDlgAddIn\ChartEnvSetupDlgAddIn\DlgMainTabBaseEnvSetUp.cpp

; 526  : 		ILPCSTR szGraphName = pIChartManager->FindFirstIndicator( _MTEXT( C2_LOCK), nR, nC, nV, nG, NULL);

  000af	89 45 dc	 mov	 DWORD PTR _szGraphName$2[ebp], eax
; File D:\git\src\IBK\IBK_DRFN\ProjSrc\SrcChartEx\ChartAddIn\ChartEnvSetupDlgAddIn\Include_AddIn_135914\I135914\_IString.h

; 57   : 		if( !m_szData) return TRUE;

  000b2	33 c9		 xor	 ecx, ecx
; File D:\git\src\IBK\IBK_DRFN\ProjSrc\SrcChartEx\ChartAddIn\ChartEnvSetupDlgAddIn\ChartEnvSetupDlgAddIn\DlgMainTabBaseEnvSetUp.cpp

; 526  : 		ILPCSTR szGraphName = pIChartManager->FindFirstIndicator( _MTEXT( C2_LOCK), nR, nC, nV, nG, NULL);

  000b4	c7 45 fc 00 00
	00 00		 mov	 DWORD PTR __$EHRec$[ebp+8], 0
; File D:\git\src\IBK\IBK_DRFN\ProjSrc\SrcChartEx\ChartAddIn\ChartEnvSetupDlgAddIn\Include_AddIn_135914\I135914\_IString.h

; 57   : 		if( !m_szData) return TRUE;

  000bb	85 c0		 test	 eax, eax
  000bd	74 05		 je	 SHORT $LN11@EnableShow

; 58   : 		return !*m_szData;

  000bf	38 08		 cmp	 BYTE PTR [eax], cl
  000c1	0f 95 c1	 setne	 cl
$LN11@EnableShow:
; File D:\git\src\IBK\IBK_DRFN\ProjSrc\SrcChartEx\ChartAddIn\ChartEnvSetupDlgAddIn\ChartEnvSetupDlgAddIn\DlgMainTabBaseEnvSetUp.cpp

; 527  : 		m_bShowExRightDividend = !szGraphName.IsEmpty();

  000c4	89 8e f0 04 00
	00		 mov	 DWORD PTR [esi+1264], ecx

; 528  : 		pIChartManager->Release();

  000ca	8b 03		 mov	 eax, DWORD PTR [ebx]
  000cc	53		 push	 ebx
  000cd	ff 50 08	 call	 DWORD PTR [eax+8]
; File D:\git\src\IBK\IBK_DRFN\ProjSrc\SrcChartEx\ChartAddIn\ChartEnvSetupDlgAddIn\Include_AddIn_135914\I135914\_IString.h

; 44   : 	{

  000d0	c7 45 fc 01 00
	00 00		 mov	 DWORD PTR __$EHRec$[ebp+8], 1

; 45   : 		if( m_pIStrData)

  000d7	85 ff		 test	 edi, edi
  000d9	74 06		 je	 SHORT $LN15@EnableShow

; 46   : 		{
; 47   : 			m_pIStrData->Release();

  000db	8b 07		 mov	 eax, DWORD PTR [edi]
  000dd	57		 push	 edi
  000de	ff 50 08	 call	 DWORD PTR [eax+8]
$LN15@EnableShow:

; 48   : 			m_pIStrData = NULL;
; 49   : 			m_szData = NULL;
; 50   : 		}
; 51   : 	}

  000e1	c7 45 fc ff ff
	ff ff		 mov	 DWORD PTR __$EHRec$[ebp+8], -1
$LN16@EnableShow:
; File D:\git\src\IBK\IBK_DRFN\ProjSrc\SrcChartEx\ChartAddIn\ChartEnvSetupDlgAddIn\ChartEnvSetupDlgAddIn\DlgMainTabBaseEnvSetUp.cpp

; 531  : 	IPacketManager *pIPacketManager = m_pIChartOCX->GetIDefaultPacketManager();

  000e8	8b 8e d8 09 00
	00		 mov	 ecx, DWORD PTR [esi+2520]
  000ee	8b 01		 mov	 eax, DWORD PTR [ecx]
  000f0	ff 50 1c	 call	 DWORD PTR [eax+28]
  000f3	8b f8		 mov	 edi, eax

; 532  : 	if( pIPacketManager)

  000f5	85 ff		 test	 edi, edi
  000f7	74 27		 je	 SHORT $LN4@EnableShow

; 533  : 	{
; 534  : 		// <>  <> 
; 535  : 		GetDlgItem( IDC_SHOW_EXRIGHT_DIVIDEND)->EnableWindow( pIPacketManager->GetBaseTimeDataType() == CScaleBaseData::HORZ_DAILY);

  000f9	8b 17		 mov	 edx, DWORD PTR [edi]
  000fb	8b cf		 mov	 ecx, edi
  000fd	ff 52 3c	 call	 DWORD PTR [edx+60]
  00100	48		 dec	 eax
  00101	8b ce		 mov	 ecx, esi
  00103	f7 d8		 neg	 eax
  00105	1b c0		 sbb	 eax, eax
  00107	40		 inc	 eax
  00108	50		 push	 eax
  00109	68 eb 07 00 00	 push	 2027			; 000007ebH
  0010e	e8 00 00 00 00	 call	 ?GetDlgItem@CWnd@@QBEPAV1@H@Z ; CWnd::GetDlgItem
  00113	8b c8		 mov	 ecx, eax
  00115	e8 00 00 00 00	 call	 ?EnableWindow@CWnd@@QAEHH@Z ; CWnd::EnableWindow

; 536  : 		pIPacketManager->Release();

  0011a	8b 07		 mov	 eax, DWORD PTR [edi]
  0011c	57		 push	 edi
  0011d	ff 50 08	 call	 DWORD PTR [eax+8]
$LN4@EnableShow:

; 537  : 	}
; 538  : }

  00120	8b 4d f4	 mov	 ecx, DWORD PTR __$EHRec$[ebp]
  00123	64 89 0d 00 00
	00 00		 mov	 DWORD PTR fs:0, ecx
  0012a	59		 pop	 ecx
  0012b	5f		 pop	 edi
  0012c	5e		 pop	 esi
  0012d	5b		 pop	 ebx
  0012e	8b e5		 mov	 esp, ebp
  00130	5d		 pop	 ebp
  00131	c3		 ret	 0
_TEXT	ENDS
;	COMDAT text$x
text$x	SEGMENT
__unwindfunclet$?EnableShowExRightDividend@CDlgMainTabBaseEnvSetUp@@AAEXXZ$0:
  00000	8d 4d dc	 lea	 ecx, DWORD PTR _szGraphName$2[ebp]
  00003	e9 00 00 00 00	 jmp	 ??1ILPCSTR135914@@QAE@XZ ; ILPCSTR135914::~ILPCSTR135914
  00008	cc		 int	 3
  00009	cc		 int	 3
  0000a	cc		 int	 3
  0000b	cc		 int	 3
  0000c	cc		 int	 3
__ehhandler$?EnableShowExRightDividend@CDlgMainTabBaseEnvSetUp@@AAEXXZ:
  0000d	90		 npad	 1
  0000e	90		 npad	 1
  0000f	8b 54 24 08	 mov	 edx, DWORD PTR [esp+8]
  00013	8d 42 0c	 lea	 eax, DWORD PTR [edx+12]
  00016	8b 4a d8	 mov	 ecx, DWORD PTR [edx-40]
  00019	33 c8		 xor	 ecx, eax
  0001b	e8 00 00 00 00	 call	 @__security_check_cookie@4
  00020	b8 00 00 00 00	 mov	 eax, OFFSET __ehfuncinfo$?EnableShowExRightDividend@CDlgMainTabBaseEnvSetUp@@AAEXXZ
  00025	e9 00 00 00 00	 jmp	 ___CxxFrameHandler3
text$x	ENDS
?EnableShowExRightDividend@CDlgMainTabBaseEnvSetUp@@AAEXXZ ENDP ; CDlgMainTabBaseEnvSetUp::EnableShowExRightDividend
; Function compile flags: /Ogtp
; File D:\git\src\IBK\IBK_DRFN\ProjSrc\SrcChartEx\ChartAddIn\ChartEnvSetupDlgAddIn\ChartEnvSetupDlgAddIn\DlgMainTabBaseEnvSetUp.cpp
;	COMDAT ?EnableLowHighMarker@CDlgMainTabBaseEnvSetUp@@AAEXXZ
_TEXT	SEGMENT
_lResult$1 = -4						; size = 4
_lResult$2 = -4						; size = 4
?EnableLowHighMarker@CDlgMainTabBaseEnvSetUp@@AAEXXZ PROC ; CDlgMainTabBaseEnvSetUp::EnableLowHighMarker, COMDAT
; _this$ = ecx

; 574  : {

  00000	55		 push	 ebp
  00001	8b ec		 mov	 ebp, esp
  00003	51		 push	 ecx
  00004	56		 push	 esi

; 575  : 	// (2009/9/3 - Seung-Won, Bae) Check the control not in common.
; 576  : 	if( !GetDlgItem( IDC_SHOW_LOWHIGH_MARKER)) return;

  00005	68 ff 03 00 00	 push	 1023			; 000003ffH
  0000a	8b f1		 mov	 esi, ecx
  0000c	e8 00 00 00 00	 call	 ?GetDlgItem@CWnd@@QBEPAV1@H@Z ; CWnd::GetDlgItem
  00011	85 c0		 test	 eax, eax
  00013	0f 84 95 00 00
	00		 je	 $LN4@EnableLowH

; 1806 :  	IAddInToolMgr *pIAddInToolMgr = m_pIChartOCX->GetIAddInToolMgr();

  00019	8b 8e d8 09 00
	00		 mov	 ecx, DWORD PTR [esi+2520]
  0001f	c7 45 fc 00 00
	00 00		 mov	 DWORD PTR _lResult$1[ebp], 0
  00026	57		 push	 edi
  00027	8b 01		 mov	 eax, DWORD PTR [ecx]
  00029	ff 50 24	 call	 DWORD PTR [eax+36]
  0002c	8b f8		 mov	 edi, eax

; 1807 :  	if( pIAddInToolMgr)

  0002e	85 ff		 test	 edi, edi
  00030	74 13		 je	 SHORT $LN8@EnableLowH

; 1808 :  	{
; 1809 :  		pIAddInToolMgr->OnAddInToolCommand( lResult, EAI_CUSTOM_GET_EXISTENCE_LOWHIGHMARK);

  00032	8b 17		 mov	 edx, DWORD PTR [edi]
  00034	8d 45 fc	 lea	 eax, DWORD PTR _lResult$1[ebp]
  00037	6a 47		 push	 71			; 00000047H
  00039	50		 push	 eax
  0003a	8b cf		 mov	 ecx, edi
  0003c	ff 52 70	 call	 DWORD PTR [edx+112]

; 1810 :  		pIAddInToolMgr->Release();

  0003f	8b 07		 mov	 eax, DWORD PTR [edi]
  00041	57		 push	 edi
  00042	ff 50 08	 call	 DWORD PTR [eax+8]
$LN8@EnableLowH:

; 577  : 	
; 578  : 	if( GetExistenceLowHighMarker())

  00045	83 7d fc 00	 cmp	 DWORD PTR _lResult$1[ebp], 0
  00049	8b ce		 mov	 ecx, esi
  0004b	74 4d		 je	 SHORT $LN3@EnableLowH

; 579  : 	{
; 580  : 		GetDlgItem( IDC_SHOW_LOWHIGH_MARKER)->EnableWindow( TRUE );

  0004d	6a 01		 push	 1
  0004f	68 ff 03 00 00	 push	 1023			; 000003ffH
  00054	e8 00 00 00 00	 call	 ?GetDlgItem@CWnd@@QBEPAV1@H@Z ; CWnd::GetDlgItem
  00059	8b c8		 mov	 ecx, eax
  0005b	e8 00 00 00 00	 call	 ?EnableWindow@CWnd@@QAEHH@Z ; CWnd::EnableWindow

; 581  : 		
; 582  : 		long lResult = 0;
; 583  : 		IAddInToolMgr *pIAddInToolMgr = m_pIChartOCX->GetIAddInToolMgr();

  00060	8b 8e d8 09 00
	00		 mov	 ecx, DWORD PTR [esi+2520]
  00066	c7 45 fc 00 00
	00 00		 mov	 DWORD PTR _lResult$2[ebp], 0
  0006d	8b 01		 mov	 eax, DWORD PTR [ecx]
  0006f	ff 50 24	 call	 DWORD PTR [eax+36]
  00072	8b f8		 mov	 edi, eax

; 584  : 		if( pIAddInToolMgr)

  00074	85 ff		 test	 edi, edi
  00076	74 13		 je	 SHORT $LN5@EnableLowH

; 585  : 		{
; 586  : 			pIAddInToolMgr->OnAddInToolCommand( lResult, EAI_CUSTOM_GET_LOWHIGHMARK_FLAG);

  00078	8b 17		 mov	 edx, DWORD PTR [edi]
  0007a	8d 45 fc	 lea	 eax, DWORD PTR _lResult$2[ebp]
  0007d	6a 46		 push	 70			; 00000046H
  0007f	50		 push	 eax
  00080	8b cf		 mov	 ecx, edi
  00082	ff 52 70	 call	 DWORD PTR [edx+112]

; 587  : 			pIAddInToolMgr->Release();

  00085	8b 07		 mov	 eax, DWORD PTR [edi]
  00087	57		 push	 edi
  00088	ff 50 08	 call	 DWORD PTR [eax+8]
$LN5@EnableLowH:

; 588  : 		}
; 589  : 		m_bShowLowHighMarker = lResult;		//  /  

  0008b	8b 45 fc	 mov	 eax, DWORD PTR _lResult$2[ebp]
  0008e	5f		 pop	 edi
  0008f	89 86 fc 04 00
	00		 mov	 DWORD PTR [esi+1276], eax
  00095	5e		 pop	 esi

; 594  : 	}
; 595  : }

  00096	8b e5		 mov	 esp, ebp
  00098	5d		 pop	 ebp
  00099	c3		 ret	 0
$LN3@EnableLowH:

; 590  : 	}
; 591  : 	else
; 592  : 	{
; 593  : 		GetDlgItem( IDC_SHOW_LOWHIGH_MARKER)->EnableWindow( FALSE );

  0009a	6a 00		 push	 0
  0009c	68 ff 03 00 00	 push	 1023			; 000003ffH
  000a1	e8 00 00 00 00	 call	 ?GetDlgItem@CWnd@@QBEPAV1@H@Z ; CWnd::GetDlgItem
  000a6	8b c8		 mov	 ecx, eax
  000a8	e8 00 00 00 00	 call	 ?EnableWindow@CWnd@@QAEHH@Z ; CWnd::EnableWindow
  000ad	5f		 pop	 edi
$LN4@EnableLowH:
  000ae	5e		 pop	 esi

; 594  : 	}
; 595  : }

  000af	8b e5		 mov	 esp, ebp
  000b1	5d		 pop	 ebp
  000b2	c3		 ret	 0
?EnableLowHighMarker@CDlgMainTabBaseEnvSetUp@@AAEXXZ ENDP ; CDlgMainTabBaseEnvSetUp::EnableLowHighMarker
_TEXT	ENDS
; Function compile flags: /Ogtp
; File D:\git\src\IBK\IBK_DRFN\ProjSrc\SrcChartEx\ChartAddIn\ChartEnvSetupDlgAddIn\ChartEnvSetupDlgAddIn\DlgMainTabBaseEnvSetUp.cpp
;	COMDAT ?EnableHighLowBound@CDlgMainTabBaseEnvSetUp@@AAEXXZ
_TEXT	SEGMENT
_lResult$1 = -4						; size = 4
_lResult$2 = -4						; size = 4
?EnableHighLowBound@CDlgMainTabBaseEnvSetUp@@AAEXXZ PROC ; CDlgMainTabBaseEnvSetUp::EnableHighLowBound, COMDAT
; _this$ = ecx

; 549  : {

  00000	55		 push	 ebp
  00001	8b ec		 mov	 ebp, esp
  00003	51		 push	 ecx
  00004	56		 push	 esi

; 550  : 	// (2009/9/3 - Seung-Won, Bae) Check the control not in common.
; 551  : 	if( !GetDlgItem( IDC_SHOW_HIGH_LOW_BOUND)) return;

  00005	68 e7 07 00 00	 push	 2023			; 000007e7H
  0000a	8b f1		 mov	 esi, ecx
  0000c	e8 00 00 00 00	 call	 ?GetDlgItem@CWnd@@QBEPAV1@H@Z ; CWnd::GetDlgItem
  00011	85 c0		 test	 eax, eax
  00013	0f 84 95 00 00
	00		 je	 $LN4@EnableHigh

; 1781 : 	IAddInToolMgr *pIAddInToolMgr = m_pIChartOCX->GetIAddInToolMgr();

  00019	8b 8e d8 09 00
	00		 mov	 ecx, DWORD PTR [esi+2520]
  0001f	c7 45 fc 00 00
	00 00		 mov	 DWORD PTR _lResult$1[ebp], 0
  00026	57		 push	 edi
  00027	8b 01		 mov	 eax, DWORD PTR [ecx]
  00029	ff 50 24	 call	 DWORD PTR [eax+36]
  0002c	8b f8		 mov	 edi, eax

; 1782 : 	if( pIAddInToolMgr)

  0002e	85 ff		 test	 edi, edi
  00030	74 13		 je	 SHORT $LN8@EnableHigh

; 1783 : 	{
; 1784 : 		pIAddInToolMgr->OnAddInToolCommand( lResult, EAI_CUSTOM_GET_EXISTENCE_BOUNDMARK);

  00032	8b 17		 mov	 edx, DWORD PTR [edi]
  00034	8d 45 fc	 lea	 eax, DWORD PTR _lResult$1[ebp]
  00037	6a 0b		 push	 11			; 0000000bH
  00039	50		 push	 eax
  0003a	8b cf		 mov	 ecx, edi
  0003c	ff 52 70	 call	 DWORD PTR [edx+112]

; 1785 : 		pIAddInToolMgr->Release();

  0003f	8b 07		 mov	 eax, DWORD PTR [edi]
  00041	57		 push	 edi
  00042	ff 50 08	 call	 DWORD PTR [eax+8]
$LN8@EnableHigh:

; 552  : 
; 553  : 	if( GetExistenceHighLowBound())

  00045	83 7d fc 00	 cmp	 DWORD PTR _lResult$1[ebp], 0
  00049	8b ce		 mov	 ecx, esi
  0004b	74 4d		 je	 SHORT $LN3@EnableHigh

; 554  : 	{
; 555  : 		GetDlgItem( IDC_SHOW_HIGH_LOW_BOUND)->EnableWindow( TRUE );

  0004d	6a 01		 push	 1
  0004f	68 e7 07 00 00	 push	 2023			; 000007e7H
  00054	e8 00 00 00 00	 call	 ?GetDlgItem@CWnd@@QBEPAV1@H@Z ; CWnd::GetDlgItem
  00059	8b c8		 mov	 ecx, eax
  0005b	e8 00 00 00 00	 call	 ?EnableWindow@CWnd@@QAEHH@Z ; CWnd::EnableWindow

; 556  : 
; 557  : 		long lResult = 0;
; 558  : 		IAddInToolMgr *pIAddInToolMgr = m_pIChartOCX->GetIAddInToolMgr();

  00060	8b 8e d8 09 00
	00		 mov	 ecx, DWORD PTR [esi+2520]
  00066	c7 45 fc 00 00
	00 00		 mov	 DWORD PTR _lResult$2[ebp], 0
  0006d	8b 01		 mov	 eax, DWORD PTR [ecx]
  0006f	ff 50 24	 call	 DWORD PTR [eax+36]
  00072	8b f8		 mov	 edi, eax

; 559  : 		if( pIAddInToolMgr)

  00074	85 ff		 test	 edi, edi
  00076	74 13		 je	 SHORT $LN5@EnableHigh

; 560  : 		{
; 561  : 			pIAddInToolMgr->OnAddInToolCommand( lResult, EAI_CUSTOM_GET_BOUNDMARK_FLAG);

  00078	8b 17		 mov	 edx, DWORD PTR [edi]
  0007a	8d 45 fc	 lea	 eax, DWORD PTR _lResult$2[ebp]
  0007d	6a 0a		 push	 10			; 0000000aH
  0007f	50		 push	 eax
  00080	8b cf		 mov	 ecx, edi
  00082	ff 52 70	 call	 DWORD PTR [edx+112]

; 562  : 			pIAddInToolMgr->Release();

  00085	8b 07		 mov	 eax, DWORD PTR [edi]
  00087	57		 push	 edi
  00088	ff 50 08	 call	 DWORD PTR [eax+8]
$LN5@EnableHigh:

; 563  : 		}
; 564  : 		m_bShowHighLowBound = lResult;		//  /  

  0008b	8b 45 fc	 mov	 eax, DWORD PTR _lResult$2[ebp]
  0008e	5f		 pop	 edi
  0008f	89 86 f4 04 00
	00		 mov	 DWORD PTR [esi+1268], eax
  00095	5e		 pop	 esi

; 569  : 	}
; 570  : }

  00096	8b e5		 mov	 esp, ebp
  00098	5d		 pop	 ebp
  00099	c3		 ret	 0
$LN3@EnableHigh:

; 565  : 	}
; 566  : 	else
; 567  : 	{
; 568  : 		GetDlgItem( IDC_SHOW_HIGH_LOW_BOUND)->EnableWindow( FALSE );

  0009a	6a 00		 push	 0
  0009c	68 e7 07 00 00	 push	 2023			; 000007e7H
  000a1	e8 00 00 00 00	 call	 ?GetDlgItem@CWnd@@QBEPAV1@H@Z ; CWnd::GetDlgItem
  000a6	8b c8		 mov	 ecx, eax
  000a8	e8 00 00 00 00	 call	 ?EnableWindow@CWnd@@QAEHH@Z ; CWnd::EnableWindow
  000ad	5f		 pop	 edi
$LN4@EnableHigh:
  000ae	5e		 pop	 esi

; 569  : 	}
; 570  : }

  000af	8b e5		 mov	 esp, ebp
  000b1	5d		 pop	 ebp
  000b2	c3		 ret	 0
?EnableHighLowBound@CDlgMainTabBaseEnvSetUp@@AAEXXZ ENDP ; CDlgMainTabBaseEnvSetUp::EnableHighLowBound
_TEXT	ENDS
; Function compile flags: /Ogtp
; File D:\git\src\IBK\IBK_DRFN\ProjSrc\SrcChartEx\ChartAddIn\ChartEnvSetupDlgAddIn\ChartEnvSetupDlgAddIn\DlgMainTabBaseEnvSetUp.cpp
; File C:\Program Files (x86)\Microsoft Visual Studio\2019\Community\VC\Tools\MSVC\14.29.30133\atlmfc\include\afxwin2.inl
; File D:\git\src\IBK\IBK_DRFN\ProjSrc\SrcChartEx\ChartAddIn\ChartEnvSetupDlgAddIn\ChartEnvSetupDlgAddIn\DlgMainTabBaseEnvSetUp.cpp
;	COMDAT ?Initial_Spin@CDlgMainTabBaseEnvSetUp@@AAEXAAVCNumSpinCtrl@@AAVCNumEdit@@HM@Z
_TEXT	SEGMENT
_pSpin$ = 8						; size = 4
_pEdit$ = 12						; size = 4
_Value$ = 16						; size = 4
_p_dMax$ = 20						; size = 4
?Initial_Spin@CDlgMainTabBaseEnvSetUp@@AAEXAAVCNumSpinCtrl@@AAVCNumEdit@@HM@Z PROC ; CDlgMainTabBaseEnvSetUp::Initial_Spin, COMDAT
; _this$ = ecx

; 1589 : {

  00000	55		 push	 ebp
  00001	8b ec		 mov	 ebp, esp
  00003	56		 push	 esi

; 1590 : 	CNumEdit *pNumEdit = pSpin.GetBuddy();

  00004	8b 75 08	 mov	 esi, DWORD PTR _pSpin$[ebp]
  00007	8b ce		 mov	 ecx, esi
  00009	8b 06		 mov	 eax, DWORD PTR [esi]
  0000b	ff 90 80 01 00
	00		 call	 DWORD PTR [eax+384]

; 1593 : 	if( pNumEdit == NULL || *pNumEdit != pEdit )

  00011	8b 4d 0c	 mov	 ecx, DWORD PTR _pEdit$[ebp]
  00014	85 c0		 test	 eax, eax
  00016	74 10		 je	 SHORT $LN3@Initial_Sp
; File C:\Program Files (x86)\Microsoft Visual Studio\2019\Community\VC\Tools\MSVC\14.29.30133\atlmfc\include\afxwin2.inl

; 19   : 	{ return this == NULL ? NULL : m_hWnd; }

  00018	85 c9		 test	 ecx, ecx
  0001a	75 04		 jne	 SHORT $LN9@Initial_Sp
  0001c	33 d2		 xor	 edx, edx
  0001e	eb 03		 jmp	 SHORT $LN10@Initial_Sp
$LN9@Initial_Sp:
  00020	8b 51 20	 mov	 edx, DWORD PTR [ecx+32]
$LN10@Initial_Sp:

; 23   : 	{ return ((HWND) wnd) != m_hWnd; }

  00023	3b 50 20	 cmp	 edx, DWORD PTR [eax+32]
; File D:\git\src\IBK\IBK_DRFN\ProjSrc\SrcChartEx\ChartAddIn\ChartEnvSetupDlgAddIn\ChartEnvSetupDlgAddIn\DlgMainTabBaseEnvSetUp.cpp

; 1593 : 	if( pNumEdit == NULL || *pNumEdit != pEdit )

  00026	74 0b		 je	 SHORT $LN2@Initial_Sp
$LN3@Initial_Sp:

; 1594 : 		pSpin.SetBuddy( &pEdit ); 

  00028	8b 06		 mov	 eax, DWORD PTR [esi]
  0002a	51		 push	 ecx
  0002b	8b ce		 mov	 ecx, esi
  0002d	ff 90 7c 01 00
	00		 call	 DWORD PTR [eax+380]
$LN2@Initial_Sp:

; 1595 : 	
; 1596 : 	// 2. Spin  .
; 1597 : 	pSpin.SetRange( 0, p_dMax);

  00033	8b 06		 mov	 eax, DWORD PTR [esi]
  00035	83 ec 08	 sub	 esp, 8
  00038	f3 0f 10 45 14	 movss	 xmm0, DWORD PTR _p_dMax$[ebp]
  0003d	8b ce		 mov	 ecx, esi
  0003f	f3 0f 11 44 24
	04		 movss	 DWORD PTR [esp+4], xmm0
  00045	c7 04 24 00 00
	00 00		 mov	 DWORD PTR [esp], 0
  0004c	ff 90 88 01 00
	00		 call	 DWORD PTR [eax+392]
  00052	66 0f 6e 45 10	 movd	 xmm0, DWORD PTR _Value$[ebp]

; 1598 : 	pSpin.SetPos( ( float)Value);

  00057	8b 06		 mov	 eax, DWORD PTR [esi]
  00059	0f 5b c0	 cvtdq2ps xmm0, xmm0
  0005c	51		 push	 ecx
  0005d	8b ce		 mov	 ecx, esi
  0005f	f3 0f 11 04 24	 movss	 DWORD PTR [esp], xmm0
  00064	ff 90 90 01 00
	00		 call	 DWORD PTR [eax+400]

; 1599 : 	pSpin.SetDelta( 1);	

  0006a	8b 06		 mov	 eax, DWORD PTR [esi]
  0006c	83 ec 08	 sub	 esp, 8
  0006f	f2 0f 10 05 00
	00 00 00	 movsd	 xmm0, QWORD PTR __real@3ff0000000000000
  00077	8b ce		 mov	 ecx, esi
  00079	f2 0f 11 04 24	 movsd	 QWORD PTR [esp], xmm0
  0007e	ff 90 74 01 00
	00		 call	 DWORD PTR [eax+372]
  00084	5e		 pop	 esi

; 1600 : }

  00085	5d		 pop	 ebp
  00086	c2 10 00	 ret	 16			; 00000010H
?Initial_Spin@CDlgMainTabBaseEnvSetUp@@AAEXAAVCNumSpinCtrl@@AAVCNumEdit@@HM@Z ENDP ; CDlgMainTabBaseEnvSetUp::Initial_Spin
_TEXT	ENDS
; Function compile flags: /Ogtp
; File D:\git\src\IBK\IBK_DRFN\ProjSrc\SrcChartEx\ChartAddIn\ChartEnvSetupDlgAddIn\ChartEnvSetupDlgAddIn\DlgMainTabBaseEnvSetUp.cpp
;	COMDAT ?GetMessageMap@CDlgMainTabBaseEnvSetUp@@MBEPBUAFX_MSGMAP@@XZ
_TEXT	SEGMENT
?GetMessageMap@CDlgMainTabBaseEnvSetUp@@MBEPBUAFX_MSGMAP@@XZ PROC ; CDlgMainTabBaseEnvSetUp::GetMessageMap, COMDAT
; _this$ = ecx

; 160  : BEGIN_MESSAGE_MAP(CDlgMainTabBaseEnvSetUp, CDialog)

  00000	b8 00 00 00 00	 mov	 eax, OFFSET ?messageMap@?1??GetThisMessageMap@CDlgMainTabBaseEnvSetUp@@KGPBUAFX_MSGMAP@@XZ@4U3@B
  00005	c3		 ret	 0
?GetMessageMap@CDlgMainTabBaseEnvSetUp@@MBEPBUAFX_MSGMAP@@XZ ENDP ; CDlgMainTabBaseEnvSetUp::GetMessageMap
_TEXT	ENDS
; Function compile flags: /Ogtp
; File D:\git\src\IBK\IBK_DRFN\ProjSrc\SrcChartEx\ChartAddIn\ChartEnvSetupDlgAddIn\ChartEnvSetupDlgAddIn\DlgMainTabBaseEnvSetUp.cpp
;	COMDAT ?GetThisMessageMap@CDlgMainTabBaseEnvSetUp@@KGPBUAFX_MSGMAP@@XZ
_TEXT	SEGMENT
?GetThisMessageMap@CDlgMainTabBaseEnvSetUp@@KGPBUAFX_MSGMAP@@XZ PROC ; CDlgMainTabBaseEnvSetUp::GetThisMessageMap, COMDAT

; 161  : 	//{{AFX_MSG_MAP(CDlgMainTabBaseEnvSetUp)
; 162  : 	ON_BN_CLICKED(IDC_INQUIRYDATA_WINDOW_SHOW, OnInquirydataWindowShow)
; 163  : 	ON_BN_CLICKED(IDC_SHOW_CURRENT_PRICE, OnShowCurrentPrice)
; 164  : 	ON_BN_CLICKED(IDC_HIDE_ALL_TITLE, OnUseIndicatorName)
; 165  : 	ON_BN_CLICKED(IDC_CHK_LH_LC_HC, OnChkLhLcHc)
; 166  : 	ON_BN_CLICKED(IDC_RDO_LH_LC_HC, OnRdoLhLcHc)
; 167  : 	ON_BN_CLICKED(IDC_SHOW_MIN_MAX_PRICE, OnShowMinMaxPrice)
; 168  : 	//}}AFX_MSG_MAP
; 169  : 	// (2009/9/3 - Seung-Won, Bae) Sync UI
; 170  : 	ON_BN_CLICKED(IDC_RDO_NONE, OnRdoLhLcHc)
; 171  : 	ON_BN_CLICKED(IDC_RDO_OHLC, OnRdoLhLcHc)
; 172  : END_MESSAGE_MAP()

  00000	b8 00 00 00 00	 mov	 eax, OFFSET ?messageMap@?1??GetThisMessageMap@CDlgMainTabBaseEnvSetUp@@KGPBUAFX_MSGMAP@@XZ@4U3@B
  00005	c3		 ret	 0
?GetThisMessageMap@CDlgMainTabBaseEnvSetUp@@KGPBUAFX_MSGMAP@@XZ ENDP ; CDlgMainTabBaseEnvSetUp::GetThisMessageMap
_TEXT	ENDS
; Function compile flags: /Ogtp
; File D:\git\src\IBK\IBK_DRFN\ProjSrc\SrcChartEx\ChartAddIn\ChartEnvSetupDlgAddIn\ChartEnvSetupDlgAddIn\DlgMainTabBaseEnvSetUp.cpp
;	COMDAT ?OnShowMinMaxPrice@CDlgMainTabBaseEnvSetUp@@IAEXXZ
_TEXT	SEGMENT
?OnShowMinMaxPrice@CDlgMainTabBaseEnvSetUp@@IAEXXZ PROC	; CDlgMainTabBaseEnvSetUp::OnShowMinMaxPrice, COMDAT
; _this$ = ecx

; 2101 : {

  00000	56		 push	 esi

; 2102 : 	UpdateData(TRUE);

  00001	6a 01		 push	 1
  00003	8b f1		 mov	 esi, ecx
  00005	e8 00 00 00 00	 call	 ?UpdateData@CWnd@@QAEHH@Z ; CWnd::UpdateData

; 2103 : 	GetDlgItem(IDC_RDO_CURPRICE)->EnableWindow(m_bShowPriceMinMaxText);

  0000a	ff b6 a8 03 00
	00		 push	 DWORD PTR [esi+936]
  00010	8b ce		 mov	 ecx, esi
  00012	68 6f 1f 00 00	 push	 8047			; 00001f6fH
  00017	e8 00 00 00 00	 call	 ?GetDlgItem@CWnd@@QBEPAV1@H@Z ; CWnd::GetDlgItem
  0001c	8b c8		 mov	 ecx, eax
  0001e	e8 00 00 00 00	 call	 ?EnableWindow@CWnd@@QAEHH@Z ; CWnd::EnableWindow

; 2104 : 	GetDlgItem(IDC_RDO_STANDPRICE)->EnableWindow(m_bShowPriceMinMaxText);

  00023	ff b6 a8 03 00
	00		 push	 DWORD PTR [esi+936]
  00029	8b ce		 mov	 ecx, esi
  0002b	68 70 1f 00 00	 push	 8048			; 00001f70H
  00030	e8 00 00 00 00	 call	 ?GetDlgItem@CWnd@@QBEPAV1@H@Z ; CWnd::GetDlgItem
  00035	8b c8		 mov	 ecx, eax
  00037	e8 00 00 00 00	 call	 ?EnableWindow@CWnd@@QAEHH@Z ; CWnd::EnableWindow
  0003c	5e		 pop	 esi

; 2105 : }

  0003d	c3		 ret	 0
?OnShowMinMaxPrice@CDlgMainTabBaseEnvSetUp@@IAEXXZ ENDP	; CDlgMainTabBaseEnvSetUp::OnShowMinMaxPrice
_TEXT	ENDS
; Function compile flags: /Ogtp
; File D:\git\src\IBK\IBK_DRFN\ProjSrc\SrcChartEx\ChartAddIn\ChartEnvSetupDlgAddIn\ChartEnvSetupDlgAddIn\DlgMainTabBaseEnvSetUp.cpp
; File C:\Program Files (x86)\Microsoft Visual Studio\2019\Community\VC\Tools\MSVC\14.29.30133\atlmfc\include\afxwin2.inl
; File D:\git\src\IBK\IBK_DRFN\ProjSrc\SrcChartEx\ChartAddIn\ChartEnvSetupDlgAddIn\ChartEnvSetupDlgAddIn\DlgMainTabBaseEnvSetUp.cpp
; File C:\Program Files (x86)\Microsoft Visual Studio\2019\Community\VC\Tools\MSVC\14.29.30133\atlmfc\include\afxwin2.inl
; File D:\git\src\IBK\IBK_DRFN\ProjSrc\SrcChartEx\ChartAddIn\ChartEnvSetupDlgAddIn\ChartEnvSetupDlgAddIn\DlgMainTabBaseEnvSetUp.cpp
; File C:\Program Files (x86)\Microsoft Visual Studio\2019\Community\VC\Tools\MSVC\14.29.30133\atlmfc\include\afxwin2.inl
; File D:\git\src\IBK\IBK_DRFN\ProjSrc\SrcChartEx\ChartAddIn\ChartEnvSetupDlgAddIn\ChartEnvSetupDlgAddIn\DlgMainTabBaseEnvSetUp.cpp
;	COMDAT ?OnRdoLhLcHc@CDlgMainTabBaseEnvSetUp@@IAEXXZ
_TEXT	SEGMENT
?OnRdoLhLcHc@CDlgMainTabBaseEnvSetUp@@IAEXXZ PROC	; CDlgMainTabBaseEnvSetUp::OnRdoLhLcHc, COMDAT
; _this$ = ecx

; 2093 : {

  00000	53		 push	 ebx

; 2094 : 	// TODO: Add your control notification handler code here
; 2095 : 	if( !GetDlgItem( IDC_CHK_LH_LC_HC)) return;

  00001	68 09 04 00 00	 push	 1033			; 00000409H
  00006	8b d9		 mov	 ebx, ecx
  00008	e8 00 00 00 00	 call	 ?GetDlgItem@CWnd@@QBEPAV1@H@Z ; CWnd::GetDlgItem
  0000d	85 c0		 test	 eax, eax
  0000f	74 3f		 je	 SHORT $LN1@OnRdoLhLcH

; 2096 : 	CButton *pButton = ( CButton *)GetDlgItem( IDC_RDO_LH_LC_HC);

  00011	56		 push	 esi
  00012	68 67 1f 00 00	 push	 8039			; 00001f67H
  00017	8b cb		 mov	 ecx, ebx
  00019	e8 00 00 00 00	 call	 ?GetDlgItem@CWnd@@QBEPAV1@H@Z ; CWnd::GetDlgItem
; File C:\Program Files (x86)\Microsoft Visual Studio\2019\Community\VC\Tools\MSVC\14.29.30133\atlmfc\include\afxwin2.inl

; 628  : 	{ ASSERT(::IsWindow(m_hWnd)); return (int)::SendMessage(m_hWnd, BM_GETCHECK, 0, 0); }

  0001e	6a 00		 push	 0
  00020	6a 00		 push	 0
  00022	68 f0 00 00 00	 push	 240			; 000000f0H
  00027	ff 70 20	 push	 DWORD PTR [eax+32]
  0002a	ff 15 00 00 00
	00		 call	 DWORD PTR __imp__SendMessageA@16
; File D:\git\src\IBK\IBK_DRFN\ProjSrc\SrcChartEx\ChartAddIn\ChartEnvSetupDlgAddIn\ChartEnvSetupDlgAddIn\DlgMainTabBaseEnvSetUp.cpp

; 2097 : 	( ( CButton *)GetDlgItem( IDC_CHK_LH_LC_HC))->SetCheck( pButton->GetCheck());

  00030	68 09 04 00 00	 push	 1033			; 00000409H
  00035	8b cb		 mov	 ecx, ebx
; File C:\Program Files (x86)\Microsoft Visual Studio\2019\Community\VC\Tools\MSVC\14.29.30133\atlmfc\include\afxwin2.inl

; 628  : 	{ ASSERT(::IsWindow(m_hWnd)); return (int)::SendMessage(m_hWnd, BM_GETCHECK, 0, 0); }

  00037	8b f0		 mov	 esi, eax
; File D:\git\src\IBK\IBK_DRFN\ProjSrc\SrcChartEx\ChartAddIn\ChartEnvSetupDlgAddIn\ChartEnvSetupDlgAddIn\DlgMainTabBaseEnvSetUp.cpp

; 2097 : 	( ( CButton *)GetDlgItem( IDC_CHK_LH_LC_HC))->SetCheck( pButton->GetCheck());

  00039	e8 00 00 00 00	 call	 ?GetDlgItem@CWnd@@QBEPAV1@H@Z ; CWnd::GetDlgItem
; File C:\Program Files (x86)\Microsoft Visual Studio\2019\Community\VC\Tools\MSVC\14.29.30133\atlmfc\include\afxwin2.inl

; 630  : 	{ ASSERT(::IsWindow(m_hWnd)); ::SendMessage(m_hWnd, BM_SETCHECK, nCheck, 0); }

  0003e	6a 00		 push	 0
  00040	56		 push	 esi
  00041	68 f1 00 00 00	 push	 241			; 000000f1H
  00046	ff 70 20	 push	 DWORD PTR [eax+32]
  00049	ff 15 00 00 00
	00		 call	 DWORD PTR __imp__SendMessageA@16
  0004f	5e		 pop	 esi
$LN1@OnRdoLhLcH:
  00050	5b		 pop	 ebx
; File D:\git\src\IBK\IBK_DRFN\ProjSrc\SrcChartEx\ChartAddIn\ChartEnvSetupDlgAddIn\ChartEnvSetupDlgAddIn\DlgMainTabBaseEnvSetUp.cpp

; 2098 : }

  00051	c3		 ret	 0
?OnRdoLhLcHc@CDlgMainTabBaseEnvSetUp@@IAEXXZ ENDP	; CDlgMainTabBaseEnvSetUp::OnRdoLhLcHc
_TEXT	ENDS
; Function compile flags: /Ogtp
; File D:\git\src\IBK\IBK_DRFN\ProjSrc\SrcChartEx\ChartAddIn\ChartEnvSetupDlgAddIn\ChartEnvSetupDlgAddIn\DlgMainTabBaseEnvSetUp.cpp
; File C:\Program Files (x86)\Microsoft Visual Studio\2019\Community\VC\Tools\MSVC\14.29.30133\atlmfc\include\afxwin2.inl
; File D:\git\src\IBK\IBK_DRFN\ProjSrc\SrcChartEx\ChartAddIn\ChartEnvSetupDlgAddIn\ChartEnvSetupDlgAddIn\DlgMainTabBaseEnvSetUp.cpp
; File C:\Program Files (x86)\Microsoft Visual Studio\2019\Community\VC\Tools\MSVC\14.29.30133\atlmfc\include\afxwin2.inl
; File D:\git\src\IBK\IBK_DRFN\ProjSrc\SrcChartEx\ChartAddIn\ChartEnvSetupDlgAddIn\ChartEnvSetupDlgAddIn\DlgMainTabBaseEnvSetUp.cpp
; File C:\Program Files (x86)\Microsoft Visual Studio\2019\Community\VC\Tools\MSVC\14.29.30133\atlmfc\include\afxwin2.inl
; File D:\git\src\IBK\IBK_DRFN\ProjSrc\SrcChartEx\ChartAddIn\ChartEnvSetupDlgAddIn\ChartEnvSetupDlgAddIn\DlgMainTabBaseEnvSetUp.cpp
; File C:\Program Files (x86)\Microsoft Visual Studio\2019\Community\VC\Tools\MSVC\14.29.30133\atlmfc\include\afxwin2.inl
; File D:\git\src\IBK\IBK_DRFN\ProjSrc\SrcChartEx\ChartAddIn\ChartEnvSetupDlgAddIn\ChartEnvSetupDlgAddIn\DlgMainTabBaseEnvSetUp.cpp
; File C:\Program Files (x86)\Microsoft Visual Studio\2019\Community\VC\Tools\MSVC\14.29.30133\atlmfc\include\afxwin2.inl
; File D:\git\src\IBK\IBK_DRFN\ProjSrc\SrcChartEx\ChartAddIn\ChartEnvSetupDlgAddIn\ChartEnvSetupDlgAddIn\DlgMainTabBaseEnvSetUp.cpp
; File C:\Program Files (x86)\Microsoft Visual Studio\2019\Community\VC\Tools\MSVC\14.29.30133\atlmfc\include\afxwin2.inl
; File D:\git\src\IBK\IBK_DRFN\ProjSrc\SrcChartEx\ChartAddIn\ChartEnvSetupDlgAddIn\ChartEnvSetupDlgAddIn\DlgMainTabBaseEnvSetUp.cpp
; File C:\Program Files (x86)\Microsoft Visual Studio\2019\Community\VC\Tools\MSVC\14.29.30133\atlmfc\include\afxwin2.inl
; File D:\git\src\IBK\IBK_DRFN\ProjSrc\SrcChartEx\ChartAddIn\ChartEnvSetupDlgAddIn\ChartEnvSetupDlgAddIn\DlgMainTabBaseEnvSetUp.cpp
; File C:\Program Files (x86)\Microsoft Visual Studio\2019\Community\VC\Tools\MSVC\14.29.30133\atlmfc\include\afxwin2.inl
; File D:\git\src\IBK\IBK_DRFN\ProjSrc\SrcChartEx\ChartAddIn\ChartEnvSetupDlgAddIn\ChartEnvSetupDlgAddIn\DlgMainTabBaseEnvSetUp.cpp
;	COMDAT ?OnChkLhLcHc@CDlgMainTabBaseEnvSetUp@@IAEXXZ
_TEXT	SEGMENT
_this$1$ = -4						; size = 4
?OnChkLhLcHc@CDlgMainTabBaseEnvSetUp@@IAEXXZ PROC	; CDlgMainTabBaseEnvSetUp::OnChkLhLcHc, COMDAT
; _this$ = ecx

; 2084 : {

  00000	55		 push	 ebp
  00001	8b ec		 mov	 ebp, esp
  00003	51		 push	 ecx
  00004	53		 push	 ebx
  00005	8b d9		 mov	 ebx, ecx

; 2085 : 	// TODO: Add your control notification handler code here
; 2086 : 	if( !GetDlgItem( IDC_RDO_NONE)) return;

  00007	68 69 1f 00 00	 push	 8041			; 00001f69H
  0000c	89 5d fc	 mov	 DWORD PTR _this$1$[ebp], ebx
  0000f	e8 00 00 00 00	 call	 ?GetDlgItem@CWnd@@QBEPAV1@H@Z ; CWnd::GetDlgItem
  00014	85 c0		 test	 eax, eax
  00016	0f 84 8e 00 00
	00		 je	 $LN1@OnChkLhLcH

; 2087 : 	CButton *pButton = ( CButton *)GetDlgItem( IDC_CHK_LH_LC_HC);

  0001c	56		 push	 esi
  0001d	57		 push	 edi
  0001e	68 09 04 00 00	 push	 1033			; 00000409H
  00023	8b cb		 mov	 ecx, ebx
  00025	e8 00 00 00 00	 call	 ?GetDlgItem@CWnd@@QBEPAV1@H@Z ; CWnd::GetDlgItem
; File C:\Program Files (x86)\Microsoft Visual Studio\2019\Community\VC\Tools\MSVC\14.29.30133\atlmfc\include\afxwin2.inl

; 628  : 	{ ASSERT(::IsWindow(m_hWnd)); return (int)::SendMessage(m_hWnd, BM_GETCHECK, 0, 0); }

  0002a	8b 1d 00 00 00
	00		 mov	 ebx, DWORD PTR __imp__SendMessageA@16
; File D:\git\src\IBK\IBK_DRFN\ProjSrc\SrcChartEx\ChartAddIn\ChartEnvSetupDlgAddIn\ChartEnvSetupDlgAddIn\DlgMainTabBaseEnvSetUp.cpp

; 2087 : 	CButton *pButton = ( CButton *)GetDlgItem( IDC_CHK_LH_LC_HC);

  00030	8b f8		 mov	 edi, eax
; File C:\Program Files (x86)\Microsoft Visual Studio\2019\Community\VC\Tools\MSVC\14.29.30133\atlmfc\include\afxwin2.inl

; 628  : 	{ ASSERT(::IsWindow(m_hWnd)); return (int)::SendMessage(m_hWnd, BM_GETCHECK, 0, 0); }

  00032	6a 00		 push	 0
  00034	6a 00		 push	 0
  00036	68 f0 00 00 00	 push	 240			; 000000f0H
  0003b	ff 77 20	 push	 DWORD PTR [edi+32]
  0003e	ff d3		 call	 ebx
; File D:\git\src\IBK\IBK_DRFN\ProjSrc\SrcChartEx\ChartAddIn\ChartEnvSetupDlgAddIn\ChartEnvSetupDlgAddIn\DlgMainTabBaseEnvSetUp.cpp

; 2088 : 	( ( CButton *)GetDlgItem( IDC_RDO_LH_LC_HC))->SetCheck( pButton->GetCheck());

  00040	8b 4d fc	 mov	 ecx, DWORD PTR _this$1$[ebp]
; File C:\Program Files (x86)\Microsoft Visual Studio\2019\Community\VC\Tools\MSVC\14.29.30133\atlmfc\include\afxwin2.inl

; 628  : 	{ ASSERT(::IsWindow(m_hWnd)); return (int)::SendMessage(m_hWnd, BM_GETCHECK, 0, 0); }

  00043	8b f0		 mov	 esi, eax
; File D:\git\src\IBK\IBK_DRFN\ProjSrc\SrcChartEx\ChartAddIn\ChartEnvSetupDlgAddIn\ChartEnvSetupDlgAddIn\DlgMainTabBaseEnvSetUp.cpp

; 2088 : 	( ( CButton *)GetDlgItem( IDC_RDO_LH_LC_HC))->SetCheck( pButton->GetCheck());

  00045	68 67 1f 00 00	 push	 8039			; 00001f67H
  0004a	e8 00 00 00 00	 call	 ?GetDlgItem@CWnd@@QBEPAV1@H@Z ; CWnd::GetDlgItem
; File C:\Program Files (x86)\Microsoft Visual Studio\2019\Community\VC\Tools\MSVC\14.29.30133\atlmfc\include\afxwin2.inl

; 630  : 	{ ASSERT(::IsWindow(m_hWnd)); ::SendMessage(m_hWnd, BM_SETCHECK, nCheck, 0); }

  0004f	6a 00		 push	 0
  00051	56		 push	 esi
  00052	68 f1 00 00 00	 push	 241			; 000000f1H
  00057	ff 70 20	 push	 DWORD PTR [eax+32]
  0005a	ff d3		 call	 ebx
; File D:\git\src\IBK\IBK_DRFN\ProjSrc\SrcChartEx\ChartAddIn\ChartEnvSetupDlgAddIn\ChartEnvSetupDlgAddIn\DlgMainTabBaseEnvSetUp.cpp

; 2089 : 	( ( CButton *)GetDlgItem( IDC_RDO_OHLC))->SetCheck( FALSE);

  0005c	8b 4d fc	 mov	 ecx, DWORD PTR _this$1$[ebp]
  0005f	68 68 1f 00 00	 push	 8040			; 00001f68H
  00064	e8 00 00 00 00	 call	 ?GetDlgItem@CWnd@@QBEPAV1@H@Z ; CWnd::GetDlgItem
; File C:\Program Files (x86)\Microsoft Visual Studio\2019\Community\VC\Tools\MSVC\14.29.30133\atlmfc\include\afxwin2.inl

; 630  : 	{ ASSERT(::IsWindow(m_hWnd)); ::SendMessage(m_hWnd, BM_SETCHECK, nCheck, 0); }

  00069	6a 00		 push	 0
  0006b	6a 00		 push	 0
  0006d	68 f1 00 00 00	 push	 241			; 000000f1H
  00072	ff 70 20	 push	 DWORD PTR [eax+32]
  00075	ff d3		 call	 ebx

; 628  : 	{ ASSERT(::IsWindow(m_hWnd)); return (int)::SendMessage(m_hWnd, BM_GETCHECK, 0, 0); }

  00077	6a 00		 push	 0
  00079	6a 00		 push	 0
  0007b	68 f0 00 00 00	 push	 240			; 000000f0H
  00080	ff 77 20	 push	 DWORD PTR [edi+32]
  00083	ff d3		 call	 ebx
; File D:\git\src\IBK\IBK_DRFN\ProjSrc\SrcChartEx\ChartAddIn\ChartEnvSetupDlgAddIn\ChartEnvSetupDlgAddIn\DlgMainTabBaseEnvSetUp.cpp

; 2090 : 	( ( CButton *)GetDlgItem( IDC_RDO_NONE))->SetCheck( !pButton->GetCheck());

  00085	8b 4d fc	 mov	 ecx, DWORD PTR _this$1$[ebp]
; File C:\Program Files (x86)\Microsoft Visual Studio\2019\Community\VC\Tools\MSVC\14.29.30133\atlmfc\include\afxwin2.inl

; 628  : 	{ ASSERT(::IsWindow(m_hWnd)); return (int)::SendMessage(m_hWnd, BM_GETCHECK, 0, 0); }

  00088	8b f0		 mov	 esi, eax
; File D:\git\src\IBK\IBK_DRFN\ProjSrc\SrcChartEx\ChartAddIn\ChartEnvSetupDlgAddIn\ChartEnvSetupDlgAddIn\DlgMainTabBaseEnvSetUp.cpp

; 2090 : 	( ( CButton *)GetDlgItem( IDC_RDO_NONE))->SetCheck( !pButton->GetCheck());

  0008a	68 69 1f 00 00	 push	 8041			; 00001f69H
  0008f	e8 00 00 00 00	 call	 ?GetDlgItem@CWnd@@QBEPAV1@H@Z ; CWnd::GetDlgItem
  00094	33 c9		 xor	 ecx, ecx
  00096	85 f6		 test	 esi, esi
; File C:\Program Files (x86)\Microsoft Visual Studio\2019\Community\VC\Tools\MSVC\14.29.30133\atlmfc\include\afxwin2.inl

; 630  : 	{ ASSERT(::IsWindow(m_hWnd)); ::SendMessage(m_hWnd, BM_SETCHECK, nCheck, 0); }

  00098	6a 00		 push	 0
; File D:\git\src\IBK\IBK_DRFN\ProjSrc\SrcChartEx\ChartAddIn\ChartEnvSetupDlgAddIn\ChartEnvSetupDlgAddIn\DlgMainTabBaseEnvSetUp.cpp

; 2090 : 	( ( CButton *)GetDlgItem( IDC_RDO_NONE))->SetCheck( !pButton->GetCheck());

  0009a	0f 94 c1	 sete	 cl
; File C:\Program Files (x86)\Microsoft Visual Studio\2019\Community\VC\Tools\MSVC\14.29.30133\atlmfc\include\afxwin2.inl

; 630  : 	{ ASSERT(::IsWindow(m_hWnd)); ::SendMessage(m_hWnd, BM_SETCHECK, nCheck, 0); }

  0009d	51		 push	 ecx
  0009e	68 f1 00 00 00	 push	 241			; 000000f1H
  000a3	ff 70 20	 push	 DWORD PTR [eax+32]
  000a6	ff d3		 call	 ebx
  000a8	5f		 pop	 edi
  000a9	5e		 pop	 esi
$LN1@OnChkLhLcH:
  000aa	5b		 pop	 ebx
; File D:\git\src\IBK\IBK_DRFN\ProjSrc\SrcChartEx\ChartAddIn\ChartEnvSetupDlgAddIn\ChartEnvSetupDlgAddIn\DlgMainTabBaseEnvSetUp.cpp

; 2091 : }

  000ab	8b e5		 mov	 esp, ebp
  000ad	5d		 pop	 ebp
  000ae	c3		 ret	 0
?OnChkLhLcHc@CDlgMainTabBaseEnvSetUp@@IAEXXZ ENDP	; CDlgMainTabBaseEnvSetUp::OnChkLhLcHc
_TEXT	ENDS
; Function compile flags: /Ogtp
; File D:\git\src\IBK\IBK_DRFN\ProjSrc\SrcChartEx\ChartAddIn\ChartEnvSetupDlgAddIn\ChartEnvSetupDlgAddIn\DlgMainTabBaseEnvSetUp.cpp
;	COMDAT ?OnUseIndicatorName@CDlgMainTabBaseEnvSetUp@@IAEXXZ
_TEXT	SEGMENT
?OnUseIndicatorName@CDlgMainTabBaseEnvSetUp@@IAEXXZ PROC ; CDlgMainTabBaseEnvSetUp::OnUseIndicatorName, COMDAT
; _this$ = ecx

; 1997 : {

  00000	56		 push	 esi
  00001	57		 push	 edi

; 1998 : 	// TODO: Add your control notification handler code here
; 1999 : 	UpdateData();

  00002	6a 01		 push	 1
  00004	8b f9		 mov	 edi, ecx
  00006	e8 00 00 00 00	 call	 ?UpdateData@CWnd@@QAEHH@Z ; CWnd::UpdateData

; 2000 : 
; 2001 : 	EnableUseIndicatorName( m_bShowAllTitle );

  0000b	8b b7 a4 03 00
	00		 mov	 esi, DWORD PTR [edi+932]

; 543  : 	GetDlgItem(IDC_INDICATOR_VARIABLE)->EnableWindow(m_bShowAllTitle);

  00011	8b cf		 mov	 ecx, edi
  00013	56		 push	 esi
  00014	68 f1 07 00 00	 push	 2033			; 000007f1H
  00019	e8 00 00 00 00	 call	 ?GetDlgItem@CWnd@@QBEPAV1@H@Z ; CWnd::GetDlgItem
  0001e	8b c8		 mov	 ecx, eax
  00020	e8 00 00 00 00	 call	 ?EnableWindow@CWnd@@QAEHH@Z ; CWnd::EnableWindow

; 544  : 	GetDlgItem(IDC_INDICATOR_VALUE)->EnableWindow(m_bShowAllTitle);

  00025	56		 push	 esi
  00026	68 f2 07 00 00	 push	 2034			; 000007f2H
  0002b	8b cf		 mov	 ecx, edi
  0002d	e8 00 00 00 00	 call	 ?GetDlgItem@CWnd@@QBEPAV1@H@Z ; CWnd::GetDlgItem
  00032	8b c8		 mov	 ecx, eax
  00034	e8 00 00 00 00	 call	 ?EnableWindow@CWnd@@QAEHH@Z ; CWnd::EnableWindow
  00039	5f		 pop	 edi
  0003a	5e		 pop	 esi

; 2002 : }

  0003b	c3		 ret	 0
?OnUseIndicatorName@CDlgMainTabBaseEnvSetUp@@IAEXXZ ENDP ; CDlgMainTabBaseEnvSetUp::OnUseIndicatorName
_TEXT	ENDS
; Function compile flags: /Ogtp
; File D:\git\src\IBK\IBK_DRFN\ProjSrc\SrcChartEx\ChartAddIn\ChartEnvSetupDlgAddIn\ChartEnvSetupDlgAddIn\DlgMainTabBaseEnvSetUp.cpp
;	COMDAT ?OnShowCurrentPrice@CDlgMainTabBaseEnvSetUp@@IAEXXZ
_TEXT	SEGMENT
?OnShowCurrentPrice@CDlgMainTabBaseEnvSetUp@@IAEXXZ PROC ; CDlgMainTabBaseEnvSetUp::OnShowCurrentPrice, COMDAT
; _this$ = ecx

; 1626 : {

  00000	56		 push	 esi

; 1627 : 	// TODO: Add your control notification handler code here
; 1628 : 	UpdateData();

  00001	6a 01		 push	 1
  00003	8b f1		 mov	 esi, ecx
  00005	e8 00 00 00 00	 call	 ?UpdateData@CWnd@@QAEHH@Z ; CWnd::UpdateData

; 1629 : 	
; 1630 : // vntsorl_20110609:[A00000259]     
; 1631 : // 	if( m_bShowCurrentPrice)
; 1632 : // 	{
; 1633 : // 		GetDlgItem(IDC_STATIC_CUR_PRICE)->EnableWindow( TRUE );
; 1634 : // 		GetDlgItem(IDC_CUR_PRICE_1)->EnableWindow( TRUE );
; 1635 : // 		GetDlgItem(IDC_CUR_PRICE_2)->EnableWindow( TRUE );
; 1636 : // 		GetDlgItem(IDC_CUR_PRICE_3)->EnableWindow( TRUE );
; 1637 : // 		GetDlgItem(IDC_CUR_PRICE_4)->EnableWindow( TRUE );
; 1638 : // 
; 1639 : // 		//    - ojtaso (20071112)
; 1640 : // 		m_nCurPriceSub = GetShowCurrentPrice() - 1;
; 1641 : // 
; 1642 : // 		if(m_nCurPriceSub<0) m_nCurPriceSub=0;
; 1643 : // 		UpdateData(FALSE);
; 1644 : // 	}
; 1645 : // 
; 1646 : // 	else
; 1647 : // 	{
; 1648 : // 		GetDlgItem(IDC_STATIC_CUR_PRICE)->EnableWindow( FALSE );
; 1649 : // 		GetDlgItem(IDC_CUR_PRICE_1)->EnableWindow( FALSE );
; 1650 : // 		GetDlgItem(IDC_CUR_PRICE_2)->EnableWindow( FALSE );
; 1651 : // 		GetDlgItem(IDC_CUR_PRICE_3)->EnableWindow( FALSE );
; 1652 : // 		GetDlgItem(IDC_CUR_PRICE_4)->EnableWindow( FALSE );
; 1653 : // 	}
; 1654 : 
; 1655 : 	if( GetDlgItem(IDC_STATIC_CUR_PRICE) ){

  0000a	68 f7 17 00 00	 push	 6135			; 000017f7H
  0000f	8b ce		 mov	 ecx, esi
  00011	e8 00 00 00 00	 call	 ?GetDlgItem@CWnd@@QBEPAV1@H@Z ; CWnd::GetDlgItem
  00016	85 c0		 test	 eax, eax
  00018	0f 84 e1 00 00
	00		 je	 $LN6@OnShowCurr

; 1656 : 
; 1657 : 		CButton *pBtn = NULL;
; 1658 : 		if( pBtn = (CButton *)GetDlgItem(IDC_CUR_PRICE_TYPE_PREDAY) ){

  0001e	68 6c 1f 00 00	 push	 8044			; 00001f6cH
  00023	8b ce		 mov	 ecx, esi
  00025	e8 00 00 00 00	 call	 ?GetDlgItem@CWnd@@QBEPAV1@H@Z ; CWnd::GetDlgItem
  0002a	8b c8		 mov	 ecx, eax
  0002c	85 c9		 test	 ecx, ecx
  0002e	74 21		 je	 SHORT $LN3@OnShowCurr

; 1659 : 			pBtn->EnableWindow(m_bEnablePreDay && m_bShowCurrentPrice);

  00030	83 be 98 05 00
	00 00		 cmp	 DWORD PTR [esi+1432], 0
  00037	74 10		 je	 SHORT $LN11@OnShowCurr
  00039	83 be 84 03 00
	00 00		 cmp	 DWORD PTR [esi+900], 0
  00040	74 07		 je	 SHORT $LN11@OnShowCurr
  00042	b8 01 00 00 00	 mov	 eax, 1
  00047	eb 02		 jmp	 SHORT $LN9@OnShowCurr
$LN11@OnShowCurr:
  00049	33 c0		 xor	 eax, eax
$LN9@OnShowCurr:
  0004b	50		 push	 eax
  0004c	e8 00 00 00 00	 call	 ?EnableWindow@CWnd@@QAEHH@Z ; CWnd::EnableWindow
$LN3@OnShowCurr:

; 1660 : 		}
; 1661 : 
; 1662 : 		if( (pBtn = (CButton *)GetDlgItem(IDC_CUR_PRICE_TYPE_PREBONG)) && !m_bEnablePreDay ){

  00051	57		 push	 edi
  00052	68 6d 1f 00 00	 push	 8045			; 00001f6dH
  00057	8b ce		 mov	 ecx, esi
  00059	e8 00 00 00 00	 call	 ?GetDlgItem@CWnd@@QBEPAV1@H@Z ; CWnd::GetDlgItem
  0005e	8b f8		 mov	 edi, eax
  00060	85 ff		 test	 edi, edi
  00062	74 13		 je	 SHORT $LN4@OnShowCurr
  00064	83 be 98 05 00
	00 00		 cmp	 DWORD PTR [esi+1432], 0
  0006b	75 0a		 jne	 SHORT $LN4@OnShowCurr

; 1663 : 			//    
; 1664 : 			m_nPriceBongType = 1;

  0006d	c7 86 90 05 00
	00 01 00 00 00	 mov	 DWORD PTR [esi+1424], 1
$LN4@OnShowCurr:

; 1665 : 		}
; 1666 : 
; 1667 : 		if( m_bShowCurrentPrice)

  00077	83 be 84 03 00
	00 00		 cmp	 DWORD PTR [esi+900], 0
  0007e	8b ce		 mov	 ecx, esi
  00080	74 4b		 je	 SHORT $LN5@OnShowCurr

; 1668 : 		{
; 1669 : 			GetDlgItem(IDC_STATIC_CUR_PRICE)->EnableWindow( TRUE );

  00082	6a 01		 push	 1
  00084	68 f7 17 00 00	 push	 6135			; 000017f7H
  00089	e8 00 00 00 00	 call	 ?GetDlgItem@CWnd@@QBEPAV1@H@Z ; CWnd::GetDlgItem
  0008e	8b c8		 mov	 ecx, eax
  00090	e8 00 00 00 00	 call	 ?EnableWindow@CWnd@@QAEHH@Z ; CWnd::EnableWindow

; 1670 : 			GetDlgItem(IDC_CUR_PRICE_TYPE_COMBO)->EnableWindow( TRUE );

  00095	6a 01		 push	 1
  00097	68 6b 1f 00 00	 push	 8043			; 00001f6bH
  0009c	8b ce		 mov	 ecx, esi
  0009e	e8 00 00 00 00	 call	 ?GetDlgItem@CWnd@@QBEPAV1@H@Z ; CWnd::GetDlgItem
  000a3	8b c8		 mov	 ecx, eax
  000a5	e8 00 00 00 00	 call	 ?EnableWindow@CWnd@@QAEHH@Z ; CWnd::EnableWindow

; 1671 : 			pBtn->EnableWindow(TRUE);

  000aa	6a 01		 push	 1
  000ac	8b cf		 mov	 ecx, edi
  000ae	e8 00 00 00 00	 call	 ?EnableWindow@CWnd@@QAEHH@Z ; CWnd::EnableWindow

; 1672 : 
; 1673 : 			//    - ojtaso (20071112)
; 1674 : 			m_nCurPriceSub = GetShowCurrentPrice() - 1;

  000b3	8b ce		 mov	 ecx, esi
  000b5	e8 00 00 00 00	 call	 ?GetShowCurrentPrice@CDlgMainTabBaseEnvSetUp@@IAEHXZ ; CDlgMainTabBaseEnvSetUp::GetShowCurrentPrice
  000ba	48		 dec	 eax

; 1675 : 			UpdateData(FALSE);

  000bb	8b ce		 mov	 ecx, esi
  000bd	6a 00		 push	 0
  000bf	89 86 9c 03 00
	00		 mov	 DWORD PTR [esi+924], eax
  000c5	e8 00 00 00 00	 call	 ?UpdateData@CWnd@@QAEHH@Z ; CWnd::UpdateData
  000ca	5f		 pop	 edi
  000cb	5e		 pop	 esi

; 1682 : 		}
; 1683 : 	}
; 1684 : }

  000cc	c3		 ret	 0
$LN5@OnShowCurr:

; 1676 : 		}
; 1677 : 		else
; 1678 : 		{
; 1679 : 			GetDlgItem(IDC_STATIC_CUR_PRICE)->EnableWindow( FALSE );

  000cd	6a 00		 push	 0
  000cf	68 f7 17 00 00	 push	 6135			; 000017f7H
  000d4	e8 00 00 00 00	 call	 ?GetDlgItem@CWnd@@QBEPAV1@H@Z ; CWnd::GetDlgItem
  000d9	8b c8		 mov	 ecx, eax
  000db	e8 00 00 00 00	 call	 ?EnableWindow@CWnd@@QAEHH@Z ; CWnd::EnableWindow

; 1680 : 			GetDlgItem(IDC_CUR_PRICE_TYPE_COMBO)->EnableWindow( FALSE );

  000e0	6a 00		 push	 0
  000e2	68 6b 1f 00 00	 push	 8043			; 00001f6bH
  000e7	8b ce		 mov	 ecx, esi
  000e9	e8 00 00 00 00	 call	 ?GetDlgItem@CWnd@@QBEPAV1@H@Z ; CWnd::GetDlgItem
  000ee	8b c8		 mov	 ecx, eax
  000f0	e8 00 00 00 00	 call	 ?EnableWindow@CWnd@@QAEHH@Z ; CWnd::EnableWindow

; 1681 : 			pBtn->EnableWindow(FALSE);

  000f5	6a 00		 push	 0
  000f7	8b cf		 mov	 ecx, edi
  000f9	e8 00 00 00 00	 call	 ?EnableWindow@CWnd@@QAEHH@Z ; CWnd::EnableWindow
  000fe	5f		 pop	 edi
$LN6@OnShowCurr:

; 1682 : 		}
; 1683 : 	}
; 1684 : }

  000ff	5e		 pop	 esi
  00100	c3		 ret	 0
?OnShowCurrentPrice@CDlgMainTabBaseEnvSetUp@@IAEXXZ ENDP ; CDlgMainTabBaseEnvSetUp::OnShowCurrentPrice
_TEXT	ENDS
; Function compile flags: /Ogtp
; File D:\git\src\IBK\IBK_DRFN\ProjSrc\SrcChartEx\ChartAddIn\ChartEnvSetupDlgAddIn\ChartEnvSetupDlgAddIn\DlgMainTabBaseEnvSetUp.cpp
; File C:\Program Files (x86)\Microsoft Visual Studio\2019\Community\VC\Tools\MSVC\14.29.30133\atlmfc\include\afxwin2.inl
; File D:\git\src\IBK\IBK_DRFN\ProjSrc\SrcChartEx\ChartAddIn\ChartEnvSetupDlgAddIn\ChartEnvSetupDlgAddIn\DlgMainTabBaseEnvSetUp.cpp
;	COMDAT ?OnInquirydataWindowShow@CDlgMainTabBaseEnvSetUp@@IAEXXZ
_TEXT	SEGMENT
?OnInquirydataWindowShow@CDlgMainTabBaseEnvSetUp@@IAEXXZ PROC ; CDlgMainTabBaseEnvSetUp::OnInquirydataWindowShow, COMDAT
; _this$ = ecx

; 183  : {

  00000	56		 push	 esi
  00001	57		 push	 edi

; 184  : 	// 1. "  " "  "  
; 185  : 	UpdateData(TRUE);

  00002	6a 01		 push	 1
  00004	8b f9		 mov	 edi, ecx
  00006	e8 00 00 00 00	 call	 ?UpdateData@CWnd@@QAEHH@Z ; CWnd::UpdateData

; 186  : 
; 187  : 	BOOL bOnNiDlg = ( ( ( CButton *)GetDlgItem( IDC_INQUIRYDATA_WINDOW_SHOW))->GetCheck() == 1);

  0000b	68 88 17 00 00	 push	 6024			; 00001788H
  00010	8b cf		 mov	 ecx, edi
  00012	e8 00 00 00 00	 call	 ?GetDlgItem@CWnd@@QBEPAV1@H@Z ; CWnd::GetDlgItem
; File C:\Program Files (x86)\Microsoft Visual Studio\2019\Community\VC\Tools\MSVC\14.29.30133\atlmfc\include\afxwin2.inl

; 628  : 	{ ASSERT(::IsWindow(m_hWnd)); return (int)::SendMessage(m_hWnd, BM_GETCHECK, 0, 0); }

  00017	6a 00		 push	 0
  00019	6a 00		 push	 0
  0001b	68 f0 00 00 00	 push	 240			; 000000f0H
  00020	ff 70 20	 push	 DWORD PTR [eax+32]
  00023	ff 15 00 00 00
	00		 call	 DWORD PTR __imp__SendMessageA@16
; File D:\git\src\IBK\IBK_DRFN\ProjSrc\SrcChartEx\ChartAddIn\ChartEnvSetupDlgAddIn\ChartEnvSetupDlgAddIn\DlgMainTabBaseEnvSetUp.cpp

; 190  : 	if( GetDlgItem( IDC_INQUIRYDATA_WINDOW_MOVETYPE_MANUAL))

  00029	68 8a 17 00 00	 push	 6026			; 0000178aH
  0002e	8b cf		 mov	 ecx, edi
  00030	8d 70 ff	 lea	 esi, DWORD PTR [eax-1]
  00033	f7 de		 neg	 esi
  00035	1b f6		 sbb	 esi, esi
  00037	46		 inc	 esi
  00038	e8 00 00 00 00	 call	 ?GetDlgItem@CWnd@@QBEPAV1@H@Z ; CWnd::GetDlgItem
  0003d	85 c0		 test	 eax, eax
  0003f	74 28		 je	 SHORT $LN2@OnInquiryd

; 191  : 	{
; 192  : 		GetDlgItem( IDC_INQUIRYDATA_WINDOW_MOVETYPE_MANUAL)->EnableWindow( bOnNiDlg);

  00041	56		 push	 esi
  00042	68 8a 17 00 00	 push	 6026			; 0000178aH
  00047	8b cf		 mov	 ecx, edi
  00049	e8 00 00 00 00	 call	 ?GetDlgItem@CWnd@@QBEPAV1@H@Z ; CWnd::GetDlgItem
  0004e	8b c8		 mov	 ecx, eax
  00050	e8 00 00 00 00	 call	 ?EnableWindow@CWnd@@QAEHH@Z ; CWnd::EnableWindow

; 193  : 		GetDlgItem( IDC_INQUIRYDATA_WINDOW_MOVETYPE_MANUAL2)->EnableWindow( bOnNiDlg);

  00055	56		 push	 esi
  00056	68 8b 17 00 00	 push	 6027			; 0000178bH
  0005b	8b cf		 mov	 ecx, edi
  0005d	e8 00 00 00 00	 call	 ?GetDlgItem@CWnd@@QBEPAV1@H@Z ; CWnd::GetDlgItem
  00062	8b c8		 mov	 ecx, eax
  00064	e8 00 00 00 00	 call	 ?EnableWindow@CWnd@@QAEHH@Z ; CWnd::EnableWindow
$LN2@OnInquiryd:

; 194  : 	}
; 195  : 
; 196  : 	UpdateData(FALSE);

  00069	6a 00		 push	 0
  0006b	8b cf		 mov	 ecx, edi
  0006d	e8 00 00 00 00	 call	 ?UpdateData@CWnd@@QAEHH@Z ; CWnd::UpdateData
  00072	5f		 pop	 edi
  00073	5e		 pop	 esi

; 197  : }

  00074	c3		 ret	 0
?OnInquirydataWindowShow@CDlgMainTabBaseEnvSetUp@@IAEXXZ ENDP ; CDlgMainTabBaseEnvSetUp::OnInquirydataWindowShow
_TEXT	ENDS
; Function compile flags: /Ogtp
; File D:\git\src\IBK\IBK_DRFN\ProjSrc\SrcChartEx\ChartAddIn\ChartEnvSetupDlgAddIn\ChartEnvSetupDlgAddIn\DlgMainTabBaseEnvSetUp.cpp
; File C:\Program Files (x86)\Microsoft Visual Studio\2019\Community\VC\Tools\MSVC\14.29.30133\atlmfc\include\afxwin2.inl
; File D:\git\src\IBK\IBK_DRFN\ProjSrc\SrcChartEx\ChartAddIn\ChartEnvSetupDlgAddIn\ChartEnvSetupDlgAddIn\DlgMainTabBaseEnvSetUp.cpp
; File C:\Program Files (x86)\Microsoft Visual Studio\2019\Community\VC\Tools\MSVC\14.29.30133\atlmfc\include\afxwin2.inl
; File D:\git\src\IBK\IBK_DRFN\ProjSrc\SrcChartEx\ChartAddIn\ChartEnvSetupDlgAddIn\ChartEnvSetupDlgAddIn\DlgMainTabBaseEnvSetUp.cpp
; File C:\Program Files (x86)\Microsoft Visual Studio\2019\Community\VC\Tools\MSVC\14.29.30133\atlmfc\include\afxwin2.inl
; File D:\git\src\IBK\IBK_DRFN\ProjSrc\SrcChartEx\ChartAddIn\ChartEnvSetupDlgAddIn\ChartEnvSetupDlgAddIn\DlgMainTabBaseEnvSetUp.cpp
; File D:\git\src\IBK\IBK_DRFN\ProjSrc\SrcChartEx\ChartAddIn\ChartEnvSetupDlgAddIn\Include_AddIn_135914\I135914\_IString.h
; File D:\git\src\IBK\IBK_DRFN\ProjSrc\SrcChartEx\ChartAddIn\ChartEnvSetupDlgAddIn\ChartEnvSetupDlgAddIn\DlgMainTabBaseEnvSetUp.cpp
; File D:\git\src\IBK\IBK_DRFN\ProjSrc\SrcChartEx\ChartAddIn\ChartEnvSetupDlgAddIn\Include_AddIn_135914\I135914\_IString.h
; File D:\git\src\IBK\IBK_DRFN\ProjSrc\SrcChartEx\ChartAddIn\ChartEnvSetupDlgAddIn\ChartEnvSetupDlgAddIn\DlgMainTabBaseEnvSetUp.cpp
; File D:\git\src\IBK\IBK_DRFN\ProjSrc\SrcChartEx\ChartAddIn\ChartEnvSetupDlgAddIn\Include_AddIn_135914\I135914\_IString.h
; File D:\git\src\IBK\IBK_DRFN\ProjSrc\SrcChartEx\ChartAddIn\ChartEnvSetupDlgAddIn\ChartEnvSetupDlgAddIn\DlgMainTabBaseEnvSetUp.cpp
; File D:\git\src\IBK\IBK_DRFN\ProjSrc\SrcChartEx\ChartAddIn\ChartEnvSetupDlgAddIn\Include_AddIn_135914\I135914\_IString.h
; File D:\git\src\IBK\IBK_DRFN\ProjSrc\SrcChartEx\ChartAddIn\ChartEnvSetupDlgAddIn\ChartEnvSetupDlgAddIn\DlgMainTabBaseEnvSetUp.cpp
; File D:\git\src\IBK\IBK_DRFN\ProjSrc\SrcChartEx\ChartAddIn\ChartEnvSetupDlgAddIn\Include_AddIn_135914\I135914\_IString.h
; File D:\git\src\IBK\IBK_DRFN\ProjSrc\SrcChartEx\ChartAddIn\ChartEnvSetupDlgAddIn\ChartEnvSetupDlgAddIn\DlgMainTabBaseEnvSetUp.cpp
; File C:\Program Files (x86)\Microsoft Visual Studio\2019\Community\VC\Tools\MSVC\14.29.30133\atlmfc\include\afxwin2.inl
; File D:\git\src\IBK\IBK_DRFN\ProjSrc\SrcChartEx\ChartAddIn\ChartEnvSetupDlgAddIn\ChartEnvSetupDlgAddIn\DlgMainTabBaseEnvSetUp.cpp
; File D:\git\src\IBK\IBK_DRFN\ProjSrc\SrcChartEx\ChartAddIn\ChartEnvSetupDlgAddIn\Include_AddIn_135914\I135914\_IString.h
; File D:\git\src\IBK\IBK_DRFN\ProjSrc\SrcChartEx\ChartAddIn\ChartEnvSetupDlgAddIn\ChartEnvSetupDlgAddIn\DlgMainTabBaseEnvSetUp.cpp
; File D:\git\src\IBK\IBK_DRFN\ProjSrc\SrcChartEx\ChartAddIn\ChartEnvSetupDlgAddIn\Include_AddIn_135914\I135914\_IString.h
; File D:\git\src\IBK\IBK_DRFN\ProjSrc\SrcChartEx\ChartAddIn\ChartEnvSetupDlgAddIn\ChartEnvSetupDlgAddIn\DlgMainTabBaseEnvSetUp.cpp
; File D:\git\src\IBK\IBK_DRFN\ProjSrc\SrcChartEx\ChartAddIn\ChartEnvSetupDlgAddIn\Include_AddIn_135914\I135914\_IString.h
; File D:\git\src\IBK\IBK_DRFN\ProjSrc\SrcChartEx\ChartAddIn\ChartEnvSetupDlgAddIn\ChartEnvSetupDlgAddIn\DlgMainTabBaseEnvSetUp.cpp
; File D:\git\src\IBK\IBK_DRFN\ProjSrc\SrcChartEx\ChartAddIn\ChartEnvSetupDlgAddIn\Include_AddIn_135914\I135914\_IString.h
; File D:\git\src\IBK\IBK_DRFN\ProjSrc\SrcChartEx\ChartAddIn\ChartEnvSetupDlgAddIn\ChartEnvSetupDlgAddIn\DlgMainTabBaseEnvSetUp.cpp
; File C:\Program Files (x86)\Microsoft Visual Studio\2019\Community\VC\Tools\MSVC\14.29.30133\atlmfc\include\afxwin2.inl
; File D:\git\src\IBK\IBK_DRFN\ProjSrc\SrcChartEx\ChartAddIn\ChartEnvSetupDlgAddIn\ChartEnvSetupDlgAddIn\DlgMainTabBaseEnvSetUp.cpp
; File D:\git\src\IBK\IBK_DRFN\ProjSrc\SrcChartEx\ChartAddIn\ChartEnvSetupDlgAddIn\ChartEnvSetupDlgAddIn\DlgMainTabBaseEnvSetUp.h
; File D:\git\src\IBK\IBK_DRFN\ProjSrc\SrcChartEx\ChartAddIn\ChartEnvSetupDlgAddIn\ChartEnvSetupDlgAddIn\DlgMainTabBaseEnvSetUp.cpp
; File D:\git\src\IBK\IBK_DRFN\ProjSrc\SrcChartEx\ChartAddIn\ChartEnvSetupDlgAddIn\ChartEnvSetupDlgAddIn\DlgMainTabBaseEnvSetUp.h
; File D:\git\src\IBK\IBK_DRFN\ProjSrc\SrcChartEx\ChartAddIn\ChartEnvSetupDlgAddIn\ChartEnvSetupDlgAddIn\DlgMainTabBaseEnvSetUp.cpp
; File D:\git\src\IBK\IBK_DRFN\ProjSrc\SrcChartEx\ChartAddIn\ChartEnvSetupDlgAddIn\ChartEnvSetupDlgAddIn\DlgMainTabBaseEnvSetUp.h
; File D:\git\src\IBK\IBK_DRFN\ProjSrc\SrcChartEx\ChartAddIn\ChartEnvSetupDlgAddIn\ChartEnvSetupDlgAddIn\DlgMainTabBaseEnvSetUp.cpp
; File D:\git\src\IBK\IBK_DRFN\ProjSrc\SrcChartEx\ChartAddIn\ChartEnvSetupDlgAddIn\ChartEnvSetupDlgAddIn\DlgMainTabBaseEnvSetUp.h
; File D:\git\src\IBK\IBK_DRFN\ProjSrc\SrcChartEx\ChartAddIn\ChartEnvSetupDlgAddIn\ChartEnvSetupDlgAddIn\DlgMainTabBaseEnvSetUp.cpp
; File D:\git\src\IBK\IBK_DRFN\ProjSrc\SrcChartEx\ChartAddIn\ChartEnvSetupDlgAddIn\ChartEnvSetupDlgAddIn\DlgMainTabBaseEnvSetUp.h
; File D:\git\src\IBK\IBK_DRFN\ProjSrc\SrcChartEx\ChartAddIn\ChartEnvSetupDlgAddIn\ChartEnvSetupDlgAddIn\DlgMainTabBaseEnvSetUp.cpp
; File D:\git\src\IBK\IBK_DRFN\ProjSrc\SrcChartEx\ChartAddIn\ChartEnvSetupDlgAddIn\ChartEnvSetupDlgAddIn\DlgMainTabBaseEnvSetUp.h
; File D:\git\src\IBK\IBK_DRFN\ProjSrc\SrcChartEx\ChartAddIn\ChartEnvSetupDlgAddIn\ChartEnvSetupDlgAddIn\DlgMainTabBaseEnvSetUp.cpp
; File D:\git\src\IBK\IBK_DRFN\ProjSrc\SrcChartEx\ChartAddIn\ChartEnvSetupDlgAddIn\ChartEnvSetupDlgAddIn\DlgMainTabBaseEnvSetUp.h
; File D:\git\src\IBK\IBK_DRFN\ProjSrc\SrcChartEx\ChartAddIn\ChartEnvSetupDlgAddIn\ChartEnvSetupDlgAddIn\DlgMainTabBaseEnvSetUp.cpp
; File C:\Program Files (x86)\Microsoft Visual Studio\2019\Community\VC\Tools\MSVC\14.29.30133\atlmfc\include\afxwin2.inl
; File D:\git\src\IBK\IBK_DRFN\ProjSrc\SrcChartEx\ChartAddIn\ChartEnvSetupDlgAddIn\ChartEnvSetupDlgAddIn\DlgMainTabBaseEnvSetUp.cpp
; File C:\Program Files (x86)\Microsoft Visual Studio\2019\Community\VC\Tools\MSVC\14.29.30133\atlmfc\include\afxwin2.inl
; File D:\git\src\IBK\IBK_DRFN\ProjSrc\SrcChartEx\ChartAddIn\ChartEnvSetupDlgAddIn\ChartEnvSetupDlgAddIn\DlgMainTabBaseEnvSetUp.cpp
; File C:\Program Files (x86)\Microsoft Visual Studio\2019\Community\VC\Tools\MSVC\14.29.30133\atlmfc\include\afxwin2.inl
; File D:\git\src\IBK\IBK_DRFN\ProjSrc\SrcChartEx\ChartAddIn\ChartEnvSetupDlgAddIn\ChartEnvSetupDlgAddIn\DlgMainTabBaseEnvSetUp.cpp
; File C:\Program Files (x86)\Microsoft Visual Studio\2019\Community\VC\Tools\MSVC\14.29.30133\atlmfc\include\afxwin2.inl
; File D:\git\src\IBK\IBK_DRFN\ProjSrc\SrcChartEx\ChartAddIn\ChartEnvSetupDlgAddIn\ChartEnvSetupDlgAddIn\DlgMainTabBaseEnvSetUp.cpp
; File C:\Program Files (x86)\Microsoft Visual Studio\2019\Community\VC\Tools\MSVC\14.29.30133\atlmfc\include\afxwin2.inl
; File D:\git\src\IBK\IBK_DRFN\ProjSrc\SrcChartEx\ChartAddIn\ChartEnvSetupDlgAddIn\ChartEnvSetupDlgAddIn\DlgMainTabBaseEnvSetUp.cpp
; File C:\Program Files (x86)\Microsoft Visual Studio\2019\Community\VC\Tools\MSVC\14.29.30133\atlmfc\include\afxwin2.inl
; File D:\git\src\IBK\IBK_DRFN\ProjSrc\SrcChartEx\ChartAddIn\ChartEnvSetupDlgAddIn\ChartEnvSetupDlgAddIn\DlgMainTabBaseEnvSetUp.cpp
; File C:\Program Files (x86)\Microsoft Visual Studio\2019\Community\VC\Tools\MSVC\14.29.30133\atlmfc\include\afxwin2.inl
; File D:\git\src\IBK\IBK_DRFN\ProjSrc\SrcChartEx\ChartAddIn\ChartEnvSetupDlgAddIn\ChartEnvSetupDlgAddIn\DlgMainTabBaseEnvSetUp.cpp
; File C:\Program Files (x86)\Microsoft Visual Studio\2019\Community\VC\Tools\MSVC\14.29.30133\atlmfc\include\afxwin2.inl
; File D:\git\src\IBK\IBK_DRFN\ProjSrc\SrcChartEx\ChartAddIn\ChartEnvSetupDlgAddIn\ChartEnvSetupDlgAddIn\DlgMainTabBaseEnvSetUp.cpp
; File D:\git\src\IBK\IBK_DRFN\ProjSrc\SrcChartEx\ChartAddIn\ChartEnvSetupDlgAddIn\Include_AddIn_135914\I135914\_IString.h
; File D:\git\src\IBK\IBK_DRFN\ProjSrc\SrcChartEx\ChartAddIn\ChartEnvSetupDlgAddIn\ChartEnvSetupDlgAddIn\DlgMainTabBaseEnvSetUp.cpp
;	COMDAT ?OnInitDialog@CDlgMainTabBaseEnvSetUp@@MAEHXZ
_TEXT	SEGMENT
__real@0000000000000000$1$ = -108			; size = 8
_pIPacketManager$1$ = -100				; size = 4
_Value$1$ = -96						; size = 4
_this$1$ = -96						; size = 4
_nG$2 = -96						; size = 4
_p_dMax$3 = -92						; size = 8
_dData$4 = -92						; size = 8
_Value$1$ = -88						; size = 4
_nV$5 = -88						; size = 4
_bPrevCur$6 = -88					; size = 4
_p_dMin$7 = -84						; size = 8
_nC$8 = -80						; size = 4
_nCurData$9 = -80					; size = 4
__real@3ff0000000000000$1$ = -76			; size = 8
_pIPriceChart$1$ = -72					; size = 4
_nR$10 = -72						; size = 4
_pIChartManager$1$ = -68				; size = 4
_szGraphName$11 = -64					; size = 8
_lResult$12 = -60					; size = 4
_nG$ = -56						; size = 4
_lResult$13 = -52					; size = 4
_lResult$14 = -52					; size = 4
_lResult$15 = -52					; size = 4
_lResult$16 = -52					; size = 4
_lResult$17 = -52					; size = 4
_lResult$18 = -52					; size = 4
_bShowOHLC$19 = -52					; size = 4
_bIsLock$20 = -52					; size = 4
_bHighCur$21 = -48					; size = 4
_eMinMaxType$22 = -48					; size = 4
_szGraphName$ = -44					; size = 8
_bLowCur$23 = -40					; size = 4
_nDownSpace$ = -36					; size = 4
_nUpSpace$ = -32					; size = 4
_nC$ = -28						; size = 4
_nV$ = -24						; size = 4
_bSpaceSpinEnable$1$ = -20				; size = 4
_bLowHigh$24 = -20					; size = 4
_nR$ = -16						; size = 4
__$EHRec$ = -12						; size = 12
?OnInitDialog@CDlgMainTabBaseEnvSetUp@@MAEHXZ PROC	; CDlgMainTabBaseEnvSetUp::OnInitDialog, COMDAT
; _this$ = ecx

; 205  : {

  00000	55		 push	 ebp
  00001	8b ec		 mov	 ebp, esp
  00003	6a ff		 push	 -1
  00005	68 00 00 00 00	 push	 __ehhandler$?OnInitDialog@CDlgMainTabBaseEnvSetUp@@MAEHXZ
  0000a	64 a1 00 00 00
	00		 mov	 eax, DWORD PTR fs:0
  00010	50		 push	 eax
  00011	83 ec 60	 sub	 esp, 96			; 00000060H
  00014	53		 push	 ebx
  00015	56		 push	 esi
  00016	57		 push	 edi
  00017	a1 00 00 00 00	 mov	 eax, DWORD PTR ___security_cookie
  0001c	33 c5		 xor	 eax, ebp
  0001e	50		 push	 eax
  0001f	8d 45 f4	 lea	 eax, DWORD PTR __$EHRec$[ebp]
  00022	64 a3 00 00 00
	00		 mov	 DWORD PTR fs:0, eax
  00028	8b d9		 mov	 ebx, ecx
  0002a	89 5d a0	 mov	 DWORD PTR _this$1$[ebp], ebx

; 206  : 	CDialog::OnInitDialog();

  0002d	e8 00 00 00 00	 call	 ?OnInitDialog@CDialog@@UAEHXZ ; CDialog::OnInitDialog

; 207  : 	
; 208  : 	// TODO: Add extra initialization here
; 209  : 	if( m_pIChartOCX == NULL )

  00032	8b 8b d8 09 00
	00		 mov	 ecx, DWORD PTR [ebx+2520]
  00038	85 c9		 test	 ecx, ecx
  0003a	75 14		 jne	 SHORT $LN6@OnInitDial

; 210  : 		return FALSE;

  0003c	33 c0		 xor	 eax, eax

; 475  : 	              // EXCEPTION: OCX Property Pages should return FALSE
; 476  : }

  0003e	8b 4d f4	 mov	 ecx, DWORD PTR __$EHRec$[ebp]
  00041	64 89 0d 00 00
	00 00		 mov	 DWORD PTR fs:0, ecx
  00048	59		 pop	 ecx
  00049	5f		 pop	 edi
  0004a	5e		 pop	 esi
  0004b	5b		 pop	 ebx
  0004c	8b e5		 mov	 esp, ebp
  0004e	5d		 pop	 ebp
  0004f	c3		 ret	 0
$LN6@OnInitDial:

; 211  : 
; 212  : 	// 1. Y  ( 0:, 1:, 2:, 3: ) ~ based on First Vertical Scale Group.
; 213  : 	// 1.1  Y 
; 214  : 	// 1.2  Y 
; 215  : 	m_nOrgYScalePosition = 0;

  00050	c7 83 48 09 00
	00 00 00 00 00	 mov	 DWORD PTR [ebx+2376], 0

; 216  : 	IChartManager *pIChartManager = m_pIChartOCX->GetIChartManager();

  0005a	8b 01		 mov	 eax, DWORD PTR [ecx]
  0005c	ff 50 18	 call	 DWORD PTR [eax+24]
  0005f	8b f0		 mov	 esi, eax
  00061	89 75 bc	 mov	 DWORD PTR _pIChartManager$1$[ebp], esi

; 217  : 	if( pIChartManager)

  00064	85 f6		 test	 esi, esi
  00066	74 26		 je	 SHORT $LN8@OnInitDial

; 218  : 	{
; 219  : 		IBlock *pIBlock = pIChartManager->GetBlock( 0, 0);

  00068	8b 16		 mov	 edx, DWORD PTR [esi]
  0006a	8b ce		 mov	 ecx, esi
  0006c	6a 00		 push	 0
  0006e	6a 00		 push	 0
  00070	ff 52 2c	 call	 DWORD PTR [edx+44]
  00073	8b f8		 mov	 edi, eax

; 220  : 		if( pIBlock)

  00075	85 ff		 test	 edi, edi
  00077	74 15		 je	 SHORT $LN8@OnInitDial

; 221  : 		{
; 222  : 			m_nOrgYScalePosition = pIBlock->GetVScaleGroupYScalePosition( 0);

  00079	8b 17		 mov	 edx, DWORD PTR [edi]
  0007b	8b cf		 mov	 ecx, edi
  0007d	6a 00		 push	 0
  0007f	ff 52 38	 call	 DWORD PTR [edx+56]
  00082	89 83 48 09 00
	00		 mov	 DWORD PTR [ebx+2376], eax

; 223  : 			pIBlock->Release();

  00088	8b 07		 mov	 eax, DWORD PTR [edi]
  0008a	57		 push	 edi
  0008b	ff 50 08	 call	 DWORD PTR [eax+8]
$LN8@OnInitDial:

; 224  : 		}
; 225  : 	}
; 226  : 
; 227  : // vntsorl_20110609:[A00000259]     
; 228  : 	// (2010/7/22 - Seung-Won, Bae) Check base price.
; 229  : 	// 3.5   
; 230  : 	m_bEnablePreDay = FALSE;
; 231  : 	IPacketManager *pIPacketManager = m_pIChartOCX->GetIDefaultPacketManager();

  0008e	8b 8b d8 09 00
	00		 mov	 ecx, DWORD PTR [ebx+2520]
  00094	c7 83 98 05 00
	00 00 00 00 00	 mov	 DWORD PTR [ebx+1432], 0
  0009e	8b 01		 mov	 eax, DWORD PTR [ecx]
  000a0	ff 50 1c	 call	 DWORD PTR [eax+28]

; 232  : 	IPacket* pIPacketClose = pIPacketManager->GetPacket( _MTEXT( C0_CLOSE));

  000a3	8b 0d 54 00 00
	00		 mov	 ecx, DWORD PTR ?g_iMetaTable@@3VIMetaTable@@A+84
  000a9	89 45 9c	 mov	 DWORD PTR _pIPacketManager$1$[ebp], eax
  000ac	8b 10		 mov	 edx, DWORD PTR [eax]
  000ae	ff 71 14	 push	 DWORD PTR [ecx+20]
  000b1	8b c8		 mov	 ecx, eax
  000b3	ff 52 10	 call	 DWORD PTR [edx+16]
  000b6	8b f8		 mov	 edi, eax
  000b8	0f 57 c0	 xorps	 xmm0, xmm0

; 233  : 	if( pIPacketClose)

  000bb	f2 0f 11 45 94	 movsd	 QWORD PTR __real@0000000000000000$1$[ebp], xmm0
  000c0	85 ff		 test	 edi, edi
  000c2	74 1e		 je	 SHORT $LN9@OnInitDial

; 234  : 	{
; 235  : 		double dData = 0.0;
; 236  : 		m_bEnablePreDay = pIPacketClose->GetStandardValue( dData);

  000c4	8b 17		 mov	 edx, DWORD PTR [edi]
  000c6	8d 45 a4	 lea	 eax, DWORD PTR _dData$4[ebp]
  000c9	6a 00		 push	 0
  000cb	50		 push	 eax
  000cc	8b cf		 mov	 ecx, edi
  000ce	f2 0f 11 45 a4	 movsd	 QWORD PTR _dData$4[ebp], xmm0
  000d3	ff 52 20	 call	 DWORD PTR [edx+32]
  000d6	89 83 98 05 00
	00		 mov	 DWORD PTR [ebx+1432], eax

; 237  : 		pIPacketClose->Release();

  000dc	8b 07		 mov	 eax, DWORD PTR [edi]
  000de	57		 push	 edi
  000df	ff 50 08	 call	 DWORD PTR [eax+8]
$LN9@OnInitDial:

; 238  : 	}
; 239  : 
; 240  : 	EnableCurPrice();

  000e2	8b cb		 mov	 ecx, ebx
  000e4	e8 00 00 00 00	 call	 ?EnableCurPrice@CDlgMainTabBaseEnvSetUp@@AAEXXZ ; CDlgMainTabBaseEnvSetUp::EnableCurPrice

; 241  : 	OnShowCurrentPrice();

  000e9	8b cb		 mov	 ecx, ebx
  000eb	e8 00 00 00 00	 call	 ?OnShowCurrentPrice@CDlgMainTabBaseEnvSetUp@@IAEXXZ ; CDlgMainTabBaseEnvSetUp::OnShowCurrentPrice

; 242  : 
; 243  : 	switch( m_nOrgYScalePosition)

  000f0	8b 83 48 09 00
	00		 mov	 eax, DWORD PTR [ebx+2376]
  000f6	83 f8 03	 cmp	 eax, 3
  000f9	77 53		 ja	 SHORT $LN2@OnInitDial
  000fb	ff 24 85 00 00
	00 00		 jmp	 DWORD PTR $LN177@OnInitDial[eax*4]
$LN10@OnInitDial:

; 244  : 	{
; 245  : 		case 0 :
; 246  : 			m_bYScalePositionLeftSide = TRUE;

  00102	c7 83 88 03 00
	00 01 00 00 00	 mov	 DWORD PTR [ebx+904], 1

; 247  : 			m_bYScalePositionRightSide = FALSE;
; 248  : 			break;

  0010c	eb 36		 jmp	 SHORT $LN180@OnInitDial
$LN11@OnInitDial:

; 249  : 		
; 250  : 		case 1 :
; 251  : 			m_bYScalePositionLeftSide = FALSE;

  0010e	c7 83 88 03 00
	00 00 00 00 00	 mov	 DWORD PTR [ebx+904], 0

; 252  : 			m_bYScalePositionRightSide = TRUE;

  00118	c7 83 8c 03 00
	00 01 00 00 00	 mov	 DWORD PTR [ebx+908], 1

; 253  : 			break;

  00122	eb 2a		 jmp	 SHORT $LN2@OnInitDial
$LN12@OnInitDial:

; 254  : 		
; 255  : 		case 2 :
; 256  : 			m_bYScalePositionLeftSide = TRUE;

  00124	c7 83 88 03 00
	00 01 00 00 00	 mov	 DWORD PTR [ebx+904], 1

; 257  : 			m_bYScalePositionRightSide = TRUE;

  0012e	c7 83 8c 03 00
	00 01 00 00 00	 mov	 DWORD PTR [ebx+908], 1

; 258  : 			break;

  00138	eb 14		 jmp	 SHORT $LN2@OnInitDial
$LN13@OnInitDial:

; 259  : 			
; 260  : 		case 3 :
; 261  : 			m_bYScalePositionLeftSide = FALSE;

  0013a	c7 83 88 03 00
	00 00 00 00 00	 mov	 DWORD PTR [ebx+904], 0
$LN180@OnInitDial:

; 1761 : 	IGraphInfoManager *pIGraphInfoManager = m_pIChartOCX->GetIGraphInfoManager();

  00144	c7 83 8c 03 00
	00 00 00 00 00	 mov	 DWORD PTR [ebx+908], 0
$LN2@OnInitDial:
  0014e	8b 8b d8 09 00
	00		 mov	 ecx, DWORD PTR [ebx+2520]
  00154	8b 01		 mov	 eax, DWORD PTR [ecx]
  00156	ff 50 20	 call	 DWORD PTR [eax+32]
  00159	8b f8		 mov	 edi, eax

; 1762 : 	if( !pIGraphInfoManager) return 0;

  0015b	85 ff		 test	 edi, edi
  0015d	75 07		 jne	 SHORT $LN28@OnInitDial
  0015f	33 c9		 xor	 ecx, ecx
  00161	e9 a0 00 00 00	 jmp	 $LN31@OnInitDial
$LN28@OnInitDial:

; 1763 : 
; 1764 : 	IGraphInfo *pIPriceChart = pIGraphInfoManager->GetGraphInfo( IGraphInfoManager::IEILT_USER, _MTEXT( C2_PRICE_CHART ));

  00166	a1 54 00 00 00	 mov	 eax, DWORD PTR ?g_iMetaTable@@3VIMetaTable@@A+84
  0016b	8b cf		 mov	 ecx, edi
  0016d	8b 17		 mov	 edx, DWORD PTR [edi]
  0016f	ff b0 28 03 00
	00		 push	 DWORD PTR [eax+808]
  00175	6a 03		 push	 3
  00177	ff 52 14	 call	 DWORD PTR [edx+20]

; 1765 : 	pIGraphInfoManager->Release();

  0017a	8b 0f		 mov	 ecx, DWORD PTR [edi]
  0017c	57		 push	 edi
  0017d	89 45 b8	 mov	 DWORD PTR _pIPriceChart$1$[ebp], eax
  00180	ff 51 08	 call	 DWORD PTR [ecx+8]

; 1766 : 	if( !pIPriceChart) return 0;

  00183	8b 7d b8	 mov	 edi, DWORD PTR _pIPriceChart$1$[ebp]
  00186	85 ff		 test	 edi, edi
  00188	75 04		 jne	 SHORT $LN29@OnInitDial
  0018a	33 c9		 xor	 ecx, ecx
  0018c	eb 78		 jmp	 SHORT $LN31@OnInitDial
$LN29@OnInitDial:

; 1767 : 
; 1768 : 	BOOL bLowHigh = FALSE, bLowCur = FALSE, bHighCur = FALSE, bPrevCur = FALSE, bShowOHLC = FALSE;
; 1769 : 	int nCurData = 0;
; 1770 : 	pIPriceChart->GetGraphDataDrawingData( bLowHigh, bLowCur, bHighCur, bPrevCur, nCurData, bShowOHLC);

  0018e	8d 4d cc	 lea	 ecx, DWORD PTR _bShowOHLC$19[ebp]
  00191	c7 45 ec 00 00
	00 00		 mov	 DWORD PTR _bLowHigh$24[ebp], 0
  00198	51		 push	 ecx
  00199	8d 4d b0	 lea	 ecx, DWORD PTR _nCurData$9[ebp]
  0019c	c7 45 d8 00 00
	00 00		 mov	 DWORD PTR _bLowCur$23[ebp], 0
  001a3	51		 push	 ecx
  001a4	8d 4d a8	 lea	 ecx, DWORD PTR _bPrevCur$6[ebp]
  001a7	c7 45 d0 00 00
	00 00		 mov	 DWORD PTR _bHighCur$21[ebp], 0
  001ae	51		 push	 ecx
  001af	8d 4d d0	 lea	 ecx, DWORD PTR _bHighCur$21[ebp]
  001b2	c7 45 a8 00 00
	00 00		 mov	 DWORD PTR _bPrevCur$6[ebp], 0
  001b9	51		 push	 ecx
  001ba	8d 4d d8	 lea	 ecx, DWORD PTR _bLowCur$23[ebp]
  001bd	c7 45 cc 00 00
	00 00		 mov	 DWORD PTR _bShowOHLC$19[ebp], 0
  001c4	51		 push	 ecx
  001c5	c7 45 b0 00 00
	00 00		 mov	 DWORD PTR _nCurData$9[ebp], 0
  001cc	8d 4d ec	 lea	 ecx, DWORD PTR _bLowHigh$24[ebp]
  001cf	8b 07		 mov	 eax, DWORD PTR [edi]
  001d1	51		 push	 ecx
  001d2	8b cf		 mov	 ecx, edi
  001d4	ff 90 ac 00 00
	00		 call	 DWORD PTR [eax+172]

; 1771 : 	pIPriceChart->Release();

  001da	8b 07		 mov	 eax, DWORD PTR [edi]
  001dc	57		 push	 edi
  001dd	ff 50 08	 call	 DWORD PTR [eax+8]

; 1772 : 
; 1773 : 	if( bLowHigh && bLowCur && bHighCur) return 1;

  001e0	83 7d ec 00	 cmp	 DWORD PTR _bLowHigh$24[ebp], 0
  001e4	74 13		 je	 SHORT $LN30@OnInitDial
  001e6	83 7d d8 00	 cmp	 DWORD PTR _bLowCur$23[ebp], 0
  001ea	74 0d		 je	 SHORT $LN30@OnInitDial
  001ec	83 7d d0 00	 cmp	 DWORD PTR _bHighCur$21[ebp], 0
  001f0	74 07		 je	 SHORT $LN30@OnInitDial
  001f2	b9 01 00 00 00	 mov	 ecx, 1
  001f7	eb 0d		 jmp	 SHORT $LN31@OnInitDial
$LN30@OnInitDial:

; 1774 : 	if( bShowOHLC) return 0;

  001f9	33 c0		 xor	 eax, eax
  001fb	b9 02 00 00 00	 mov	 ecx, 2
  00200	39 45 cc	 cmp	 DWORD PTR _bShowOHLC$19[ebp], eax
  00203	0f 45 c8	 cmovne	 ecx, eax
$LN31@OnInitDial:

; 262  : 			m_bYScalePositionRightSide = FALSE;
; 263  : 			break;
; 264  : 	}
; 265  : 
; 266  : 	// (2008/10/26 - Seung-Won, Bae) for O/H/L/C (not LH/LC/HC)
; 267  : 	m_nLH_LC_HC = m_nOrgLH_LC_HC = GetShowLH_LC_HC();
; 268  : 	// LH/LC/HC - ojtaso (20071226)
; 269  : 	m_bLH_LC_HC = m_bOrgLH_LC_HC = ( 1 == m_nLH_LC_HC);

  00206	33 c0		 xor	 eax, eax
  00208	89 8b 68 09 00
	00		 mov	 DWORD PTR [ebx+2408], ecx
  0020e	89 8b 0c 05 00
	00		 mov	 DWORD PTR [ebx+1292], ecx
  00214	83 f9 01	 cmp	 ecx, 1

; 270  : 
; 271  : 	// 1.3  () 
; 272  : // vntsorl_20110609:[A00000259]     
; 273  : // 	m_nOrgShowCurrentPrice = GetShowCurrentPrice();
; 274  : // 	EnableCurPrice();
; 275  : 	
; 276  : 	// (2009/5/13 - Seung-Won, Bae) Manage right margin for only non special chart.
; 277  : 	m_nRightMargin = m_pIChartOCX->GetRightMarginWidth();

  00217	8b 8b d8 09 00
	00		 mov	 ecx, DWORD PTR [ebx+2520]
  0021d	0f 94 c0	 sete	 al
  00220	89 83 64 09 00
	00		 mov	 DWORD PTR [ebx+2404], eax
  00226	89 83 04 05 00
	00		 mov	 DWORD PTR [ebx+1284], eax
  0022c	8b 01		 mov	 eax, DWORD PTR [ecx]
  0022e	ff 90 18 02 00
	00		 call	 DWORD PTR [eax+536]

; 278  : 	m_nOrgRightMargin = m_nRightMargin;
; 279  : 	Initial_Spin( m_spnRightMargin, m_edtRightMargin, m_nRightMargin);

  00234	8d bb d0 01 00
	00		 lea	 edi, DWORD PTR [ebx+464]
  0023a	89 83 c8 09 00
	00		 mov	 DWORD PTR [ebx+2504], eax
  00240	89 83 28 09 00
	00		 mov	 DWORD PTR [ebx+2344], eax

; 1590 : 	CNumEdit *pNumEdit = pSpin.GetBuddy();

  00246	8b cf		 mov	 ecx, edi
  00248	8b 17		 mov	 edx, DWORD PTR [edi]

; 270  : 
; 271  : 	// 1.3  () 
; 272  : // vntsorl_20110609:[A00000259]     
; 273  : // 	m_nOrgShowCurrentPrice = GetShowCurrentPrice();
; 274  : // 	EnableCurPrice();
; 275  : 	
; 276  : 	// (2009/5/13 - Seung-Won, Bae) Manage right margin for only non special chart.
; 277  : 	m_nRightMargin = m_pIChartOCX->GetRightMarginWidth();

  0024a	89 45 a8	 mov	 DWORD PTR _Value$1$[ebp], eax

; 1590 : 	CNumEdit *pNumEdit = pSpin.GetBuddy();

  0024d	ff 92 80 01 00
	00		 call	 DWORD PTR [edx+384]
  00253	8b d0		 mov	 edx, eax

; 1593 : 	if( pNumEdit == NULL || *pNumEdit != pEdit )

  00255	85 d2		 test	 edx, edx
  00257	74 16		 je	 SHORT $LN35@OnInitDial
; File C:\Program Files (x86)\Microsoft Visual Studio\2019\Community\VC\Tools\MSVC\14.29.30133\atlmfc\include\afxwin2.inl

; 19   : 	{ return this == NULL ? NULL : m_hWnd; }

  00259	8d 83 50 02 00
	00		 lea	 eax, DWORD PTR [ebx+592]
  0025f	85 c0		 test	 eax, eax
  00261	75 04		 jne	 SHORT $LN41@OnInitDial
  00263	33 c9		 xor	 ecx, ecx
  00265	eb 03		 jmp	 SHORT $LN42@OnInitDial
$LN41@OnInitDial:
  00267	8b 48 20	 mov	 ecx, DWORD PTR [eax+32]
$LN42@OnInitDial:

; 23   : 	{ return ((HWND) wnd) != m_hWnd; }

  0026a	3b 4a 20	 cmp	 ecx, DWORD PTR [edx+32]
; File D:\git\src\IBK\IBK_DRFN\ProjSrc\SrcChartEx\ChartAddIn\ChartEnvSetupDlgAddIn\ChartEnvSetupDlgAddIn\DlgMainTabBaseEnvSetUp.cpp

; 1593 : 	if( pNumEdit == NULL || *pNumEdit != pEdit )

  0026d	74 11		 je	 SHORT $LN34@OnInitDial
$LN35@OnInitDial:

; 1594 : 		pSpin.SetBuddy( &pEdit ); 

  0026f	8b 07		 mov	 eax, DWORD PTR [edi]
  00271	8d 8b 50 02 00
	00		 lea	 ecx, DWORD PTR [ebx+592]
  00277	51		 push	 ecx
  00278	8b cf		 mov	 ecx, edi
  0027a	ff 90 7c 01 00
	00		 call	 DWORD PTR [eax+380]
$LN34@OnInitDial:

; 1595 : 	
; 1596 : 	// 2. Spin  .
; 1597 : 	pSpin.SetRange( 0, p_dMax);

  00280	8b 07		 mov	 eax, DWORD PTR [edi]
  00282	83 ec 08	 sub	 esp, 8
  00285	8b cf		 mov	 ecx, edi
  00287	c7 44 24 04 00
	00 7a 44	 mov	 DWORD PTR [esp+4], 1148846080 ; 447a0000H
  0028f	c7 04 24 00 00
	00 00		 mov	 DWORD PTR [esp], 0
  00296	ff 90 88 01 00
	00		 call	 DWORD PTR [eax+392]
  0029c	66 0f 6e 45 a8	 movd	 xmm0, DWORD PTR _Value$1$[ebp]

; 1598 : 	pSpin.SetPos( ( float)Value);

  002a1	8b 07		 mov	 eax, DWORD PTR [edi]
  002a3	0f 5b c0	 cvtdq2ps xmm0, xmm0
  002a6	51		 push	 ecx
  002a7	8b cf		 mov	 ecx, edi
  002a9	f3 0f 11 04 24	 movss	 DWORD PTR [esp], xmm0
  002ae	ff 90 90 01 00
	00		 call	 DWORD PTR [eax+400]

; 1599 : 	pSpin.SetDelta( 1);	

  002b4	8b 07		 mov	 eax, DWORD PTR [edi]
  002b6	83 ec 08	 sub	 esp, 8
  002b9	f2 0f 10 05 00
	00 00 00	 movsd	 xmm0, QWORD PTR __real@3ff0000000000000
  002c1	8b cf		 mov	 ecx, edi
  002c3	f2 0f 11 45 b4	 movsd	 QWORD PTR __real@3ff0000000000000$1$[ebp], xmm0
  002c8	f2 0f 11 04 24	 movsd	 QWORD PTR [esp], xmm0
  002cd	ff 90 74 01 00
	00		 call	 DWORD PTR [eax+372]

; 280  : 
; 281  : 	// (2009/5/17 - Seung-Won, Bae) for Future Time
; 282  : 	m_nFutureTime = m_pIChartOCX->GetFutureTimeCount();

  002d3	8b 8b d8 09 00
	00		 mov	 ecx, DWORD PTR [ebx+2520]
  002d9	8b 01		 mov	 eax, DWORD PTR [ecx]
  002db	ff 90 20 02 00
	00		 call	 DWORD PTR [eax+544]
  002e1	8b d0		 mov	 edx, eax

; 285  : 	if( m_edtFutureTime.GetSafeHwnd() && m_spnFutureTime.GetSafeHwnd())

  002e3	8d 8b c8 03 00
	00		 lea	 ecx, DWORD PTR [ebx+968]
  002e9	89 93 cc 09 00
	00		 mov	 DWORD PTR [ebx+2508], edx
  002ef	89 93 2c 09 00
	00		 mov	 DWORD PTR [ebx+2348], edx
; File C:\Program Files (x86)\Microsoft Visual Studio\2019\Community\VC\Tools\MSVC\14.29.30133\atlmfc\include\afxwin2.inl

; 25   : 	{ return this == NULL ? NULL : m_hWnd; }

  002f5	85 c9		 test	 ecx, ecx
  002f7	74 28		 je	 SHORT $LN14@OnInitDial
; File D:\git\src\IBK\IBK_DRFN\ProjSrc\SrcChartEx\ChartAddIn\ChartEnvSetupDlgAddIn\ChartEnvSetupDlgAddIn\DlgMainTabBaseEnvSetUp.cpp

; 285  : 	if( m_edtFutureTime.GetSafeHwnd() && m_spnFutureTime.GetSafeHwnd())

  002f9	83 79 20 00	 cmp	 DWORD PTR [ecx+32], 0
  002fd	74 22		 je	 SHORT $LN14@OnInitDial
  002ff	8d 83 70 04 00
	00		 lea	 eax, DWORD PTR [ebx+1136]
; File C:\Program Files (x86)\Microsoft Visual Studio\2019\Community\VC\Tools\MSVC\14.29.30133\atlmfc\include\afxwin2.inl

; 25   : 	{ return this == NULL ? NULL : m_hWnd; }

  00305	85 c0		 test	 eax, eax
  00307	74 18		 je	 SHORT $LN14@OnInitDial
; File D:\git\src\IBK\IBK_DRFN\ProjSrc\SrcChartEx\ChartAddIn\ChartEnvSetupDlgAddIn\ChartEnvSetupDlgAddIn\DlgMainTabBaseEnvSetUp.cpp

; 285  : 	if( m_edtFutureTime.GetSafeHwnd() && m_spnFutureTime.GetSafeHwnd())

  00309	83 78 20 00	 cmp	 DWORD PTR [eax+32], 0
  0030d	74 12		 je	 SHORT $LN14@OnInitDial

; 286  : 		Initial_Spin( m_spnFutureTime, m_edtFutureTime, m_nFutureTime);

  0030f	51		 push	 ecx
  00310	c7 04 24 00 00
	7a 44		 mov	 DWORD PTR [esp], 1148846080 ; 447a0000H
  00317	52		 push	 edx
  00318	51		 push	 ecx
  00319	50		 push	 eax
  0031a	8b cb		 mov	 ecx, ebx
  0031c	e8 00 00 00 00	 call	 ?Initial_Spin@CDlgMainTabBaseEnvSetUp@@AAEXAAVCNumSpinCtrl@@AAVCNumEdit@@HM@Z ; CDlgMainTabBaseEnvSetUp::Initial_Spin
$LN14@OnInitDial:

; 287  : 
; 288  : 	m_nMouseWheelIndex = m_pIChartOCX->GetMouseWheelIndex();

  00321	8b 8b d8 09 00
	00		 mov	 ecx, DWORD PTR [ebx+2520]
  00327	8b 01		 mov	 eax, DWORD PTR [ecx]
  00329	ff 90 30 02 00
	00		 call	 DWORD PTR [eax+560]
  0032f	89 83 bc 03 00
	00		 mov	 DWORD PTR [ebx+956], eax

; 289  : 	m_nOrgMouseWheelIndex = m_nMouseWheelIndex;

  00335	89 83 30 09 00
	00		 mov	 DWORD PTR [ebx+2352], eax

; 290  : 
; 291  : 	if( pIChartManager)

  0033b	85 f6		 test	 esi, esi
  0033d	74 1c		 je	 SHORT $LN15@OnInitDial

; 292  : 	{
; 293  : 		m_bFixInterval = pIChartManager->GetFixedInterval();

  0033f	8b 06		 mov	 eax, DWORD PTR [esi]
  00341	8b ce		 mov	 ecx, esi
  00343	ff 90 c0 00 00
	00		 call	 DWORD PTR [eax+192]
  00349	89 83 b4 03 00
	00		 mov	 DWORD PTR [ebx+948], eax

; 294  : 		m_nCandleTypeOnResize = pIChartManager->GetCandleTypeOnResize();

  0034f	8b ce		 mov	 ecx, esi
  00351	8b 06		 mov	 eax, DWORD PTR [esi]
  00353	ff 90 b8 00 00
	00		 call	 DWORD PTR [eax+184]

; 295  : 	}

  00359	eb 0c		 jmp	 SHORT $LN16@OnInitDial
$LN15@OnInitDial:

; 296  : 	else
; 297  : 	{
; 298  : 		m_bFixInterval = FALSE;

  0035b	c7 83 b4 03 00
	00 00 00 00 00	 mov	 DWORD PTR [ebx+948], 0

; 299  : 		m_nCandleTypeOnResize = 0;

  00365	33 c0		 xor	 eax, eax
$LN16@OnInitDial:

; 300  : 	}
; 301  : 
; 302  : 	// (2007/7/18 - Seung-Won, Bae) Up/Down Space.
; 303  : 	int nUpSpace = 0, nDownSpace = 0;

  00367	89 83 80 03 00
	00		 mov	 DWORD PTR [ebx+896], eax

; 305  : 	ILPCSTR szGraphName = pIChartManager->FindFirstIndicator( _MTEXT( C2_PRICE_CHART ), nR, nC, nV, nG, NULL);

  0036d	8b ce		 mov	 ecx, esi
  0036f	6a 00		 push	 0
  00371	8d 45 c8	 lea	 eax, DWORD PTR _nG$[ebp]
  00374	c7 45 e0 00 00
	00 00		 mov	 DWORD PTR _nUpSpace$[ebp], 0
  0037b	50		 push	 eax
  0037c	8d 45 e8	 lea	 eax, DWORD PTR _nV$[ebp]
  0037f	c7 45 dc 00 00
	00 00		 mov	 DWORD PTR _nDownSpace$[ebp], 0
  00386	50		 push	 eax
  00387	8d 45 e4	 lea	 eax, DWORD PTR _nC$[ebp]
  0038a	c7 45 f0 00 00
	00 00		 mov	 DWORD PTR _nR$[ebp], 0
  00391	50		 push	 eax
  00392	8d 45 f0	 lea	 eax, DWORD PTR _nR$[ebp]
  00395	c7 45 e4 00 00
	00 00		 mov	 DWORD PTR _nC$[ebp], 0
  0039c	50		 push	 eax
  0039d	a1 54 00 00 00	 mov	 eax, DWORD PTR ?g_iMetaTable@@3VIMetaTable@@A+84
  003a2	c7 45 e8 00 00
	00 00		 mov	 DWORD PTR _nV$[ebp], 0
  003a9	c7 45 c8 00 00
	00 00		 mov	 DWORD PTR _nG$[ebp], 0
  003b0	8b 16		 mov	 edx, DWORD PTR [esi]
  003b2	ff b0 28 03 00
	00		 push	 DWORD PTR [eax+808]
  003b8	ff 52 58	 call	 DWORD PTR [edx+88]
; File D:\git\src\IBK\IBK_DRFN\ProjSrc\SrcChartEx\ChartAddIn\ChartEnvSetupDlgAddIn\Include_AddIn_135914\I135914\_IString.h

; 39   : 		m_pIStrData = p_pIString;	// Do not AddRef(). Because It must be Return Value.

  003bb	8b f8		 mov	 edi, eax
  003bd	89 7d d8	 mov	 DWORD PTR _szGraphName$[ebp+4], edi

; 40   : 		if( m_pIStrData) m_szData = m_pIStrData->GetData();

  003c0	85 ff		 test	 edi, edi
  003c2	74 0b		 je	 SHORT $LN52@OnInitDial
  003c4	8b 17		 mov	 edx, DWORD PTR [edi]
  003c6	8b cf		 mov	 ecx, edi
  003c8	ff 52 10	 call	 DWORD PTR [edx+16]
  003cb	8b f0		 mov	 esi, eax
  003cd	eb 02		 jmp	 SHORT $LN181@OnInitDial
$LN52@OnInitDial:

; 41   : 		else m_szData = NULL;

  003cf	33 f6		 xor	 esi, esi
$LN181@OnInitDial:
; File D:\git\src\IBK\IBK_DRFN\ProjSrc\SrcChartEx\ChartAddIn\ChartEnvSetupDlgAddIn\ChartEnvSetupDlgAddIn\DlgMainTabBaseEnvSetUp.cpp

; 305  : 	ILPCSTR szGraphName = pIChartManager->FindFirstIndicator( _MTEXT( C2_PRICE_CHART ), nR, nC, nV, nG, NULL);

  003d1	89 75 d4	 mov	 DWORD PTR _szGraphName$[ebp], esi
  003d4	c7 45 fc 00 00
	00 00		 mov	 DWORD PTR __$EHRec$[ebp+8], 0
; File D:\git\src\IBK\IBK_DRFN\ProjSrc\SrcChartEx\ChartAddIn\ChartEnvSetupDlgAddIn\Include_AddIn_135914\I135914\_IString.h

; 57   : 		if( !m_szData) return TRUE;

  003db	85 f6		 test	 esi, esi
  003dd	0f 84 2a 01 00
	00		 je	 $LN17@OnInitDial
; File D:\git\src\IBK\IBK_DRFN\ProjSrc\SrcChartEx\ChartAddIn\ChartEnvSetupDlgAddIn\ChartEnvSetupDlgAddIn\DlgMainTabBaseEnvSetUp.cpp

; 306  : 	if( !szGraphName.IsEmpty())

  003e3	80 3e 00	 cmp	 BYTE PTR [esi], 0
  003e6	0f 84 21 01 00
	00		 je	 $LN17@OnInitDial

; 307  : 	{
; 308  : 		pIChartManager->GetVertScaleSpace( nR, nC, nV, nUpSpace, nDownSpace);

  003ec	8b 5d bc	 mov	 ebx, DWORD PTR _pIChartManager$1$[ebp]
  003ef	8d 4d dc	 lea	 ecx, DWORD PTR _nDownSpace$[ebp]
  003f2	51		 push	 ecx
  003f3	8d 4d e0	 lea	 ecx, DWORD PTR _nUpSpace$[ebp]
  003f6	51		 push	 ecx
  003f7	ff 75 e8	 push	 DWORD PTR _nV$[ebp]
  003fa	8b 03		 mov	 eax, DWORD PTR [ebx]
  003fc	8b cb		 mov	 ecx, ebx
  003fe	ff 75 e4	 push	 DWORD PTR _nC$[ebp]
  00401	ff 75 f0	 push	 DWORD PTR _nR$[ebp]
  00404	ff 50 3c	 call	 DWORD PTR [eax+60]

; 309  : 
; 310  : 		BOOL bSpaceSpinEnable = TRUE;
; 311  : 		BOOL bIsLock = FALSE;
; 312  : 		CScaleBaseData::VERTMINMAXTYPE eMinMaxType = CScaleBaseData::VERT_MINMAX_OF_VIEW;
; 313  : 		double p_dMin = 0.0, p_dMax = 0.0;

  00407	f2 0f 10 45 94	 movsd	 xmm0, QWORD PTR __real@0000000000000000$1$[ebp]
  0040c	b8 01 00 00 00	 mov	 eax, 1
  00411	89 45 ec	 mov	 DWORD PTR _bSpaceSpinEnable$1$[ebp], eax
  00414	c7 45 cc 00 00
	00 00		 mov	 DWORD PTR _bIsLock$20[ebp], 0
  0041b	c7 45 d0 00 00
	00 00		 mov	 DWORD PTR _eMinMaxType$22[ebp], 0
  00422	f2 0f 11 45 ac	 movsd	 QWORD PTR _p_dMin$7[ebp], xmm0
  00427	f2 0f 11 45 a4	 movsd	 QWORD PTR _p_dMax$3[ebp], xmm0
  0042c	0f 1f 40 00	 npad	 4
$LL4@OnInitDial:
; File D:\git\src\IBK\IBK_DRFN\ProjSrc\SrcChartEx\ChartAddIn\ChartEnvSetupDlgAddIn\Include_AddIn_135914\I135914\_IString.h

; 57   : 		if( !m_szData) return TRUE;

  00430	85 f6		 test	 esi, esi
  00432	0f 84 c6 00 00
	00		 je	 $LN176@OnInitDial
; File D:\git\src\IBK\IBK_DRFN\ProjSrc\SrcChartEx\ChartAddIn\ChartEnvSetupDlgAddIn\ChartEnvSetupDlgAddIn\DlgMainTabBaseEnvSetUp.cpp

; 314  : 		while( !szGraphName.IsEmpty() && bSpaceSpinEnable)

  00438	80 3e 00	 cmp	 BYTE PTR [esi], 0
  0043b	0f 84 bd 00 00
	00		 je	 $LN176@OnInitDial
  00441	85 c0		 test	 eax, eax
  00443	0f 84 b5 00 00
	00		 je	 $LN176@OnInitDial

; 315  : 		{
; 316  : 			IBlock *pIBlock = pIChartManager->GetBlock( nR, nC);

  00449	ff 75 e4	 push	 DWORD PTR _nC$[ebp]
  0044c	8b 03		 mov	 eax, DWORD PTR [ebx]
  0044e	8b cb		 mov	 ecx, ebx
  00450	ff 75 f0	 push	 DWORD PTR _nR$[ebp]
  00453	ff 50 2c	 call	 DWORD PTR [eax+44]
  00456	8b f0		 mov	 esi, eax

; 317  : 			if( !pIBlock) break;

  00458	85 f6		 test	 esi, esi
  0045a	0f 84 9b 00 00
	00		 je	 $LN178@OnInitDial

; 318  : 
; 319  : 			if( pIBlock->GetVScaleMinMaxSetting( nV, bIsLock, eMinMaxType, p_dMin, p_dMax))

  00460	8b 16		 mov	 edx, DWORD PTR [esi]
  00462	8d 45 a4	 lea	 eax, DWORD PTR _p_dMax$3[ebp]
  00465	50		 push	 eax
  00466	8d 45 ac	 lea	 eax, DWORD PTR _p_dMin$7[ebp]
  00469	8b ce		 mov	 ecx, esi
  0046b	50		 push	 eax
  0046c	8d 45 d0	 lea	 eax, DWORD PTR _eMinMaxType$22[ebp]
  0046f	50		 push	 eax
  00470	8d 45 cc	 lea	 eax, DWORD PTR _bIsLock$20[ebp]
  00473	50		 push	 eax
  00474	ff 75 e8	 push	 DWORD PTR _nV$[ebp]
  00477	ff 52 44	 call	 DWORD PTR [edx+68]
  0047a	85 c0		 test	 eax, eax
  0047c	74 1a		 je	 SHORT $LN21@OnInitDial

; 320  : 			{
; 321  : 				if( bIsLock) bSpaceSpinEnable = FALSE;

  0047e	8b 45 ec	 mov	 eax, DWORD PTR _bSpaceSpinEnable$1$[ebp]
  00481	33 c9		 xor	 ecx, ecx
  00483	39 4d cc	 cmp	 DWORD PTR _bIsLock$20[ebp], ecx
  00486	0f 45 c1	 cmovne	 eax, ecx

; 322  : 				if( CScaleBaseData::VERT_MINMAX_OF_USER == eMinMaxType) nUpSpace = nDownSpace = 0;

  00489	83 7d d0 02	 cmp	 DWORD PTR _eMinMaxType$22[ebp], 2
  0048d	89 45 ec	 mov	 DWORD PTR _bSpaceSpinEnable$1$[ebp], eax
  00490	75 06		 jne	 SHORT $LN21@OnInitDial
  00492	89 4d dc	 mov	 DWORD PTR _nDownSpace$[ebp], ecx
  00495	89 4d e0	 mov	 DWORD PTR _nUpSpace$[ebp], ecx
$LN21@OnInitDial:

; 323  : 			}
; 324  : 
; 325  : 			pIBlock->Release();

  00498	8b 06		 mov	 eax, DWORD PTR [esi]
  0049a	56		 push	 esi
  0049b	ff 50 08	 call	 DWORD PTR [eax+8]

; 326  : 
; 327  : 			nR++;

  0049e	ff 45 f0	 inc	 DWORD PTR _nR$[ebp]

; 328  : 			szGraphName = pIChartManager->FindNextIndicator( _MTEXT( C2_PRICE_CHART ), nR, nC, nV, nG, NULL);

  004a1	8d 45 c8	 lea	 eax, DWORD PTR _nG$[ebp]
  004a4	8b 13		 mov	 edx, DWORD PTR [ebx]
  004a6	8b cb		 mov	 ecx, ebx
  004a8	6a 00		 push	 0
  004aa	50		 push	 eax
  004ab	8d 45 e8	 lea	 eax, DWORD PTR _nV$[ebp]
  004ae	50		 push	 eax
  004af	8d 45 e4	 lea	 eax, DWORD PTR _nC$[ebp]
  004b2	50		 push	 eax
  004b3	8d 45 f0	 lea	 eax, DWORD PTR _nR$[ebp]
  004b6	50		 push	 eax
  004b7	a1 54 00 00 00	 mov	 eax, DWORD PTR ?g_iMetaTable@@3VIMetaTable@@A+84
  004bc	ff b0 28 03 00
	00		 push	 DWORD PTR [eax+808]
  004c2	ff 52 5c	 call	 DWORD PTR [edx+92]
  004c5	8b f0		 mov	 esi, eax
; File D:\git\src\IBK\IBK_DRFN\ProjSrc\SrcChartEx\ChartAddIn\ChartEnvSetupDlgAddIn\Include_AddIn_135914\I135914\_IString.h

; 67   : 		if( m_pIStrData) m_pIStrData->Release();

  004c7	85 ff		 test	 edi, edi
  004c9	74 06		 je	 SHORT $LN62@OnInitDial
  004cb	8b 0f		 mov	 ecx, DWORD PTR [edi]
  004cd	57		 push	 edi
  004ce	ff 51 08	 call	 DWORD PTR [ecx+8]
$LN62@OnInitDial:

; 68   : 		m_pIStrData = stringSrc;	// Do not AddRef(). Because It must be Return Value.

  004d1	8b fe		 mov	 edi, esi
  004d3	89 7d d8	 mov	 DWORD PTR _szGraphName$[ebp+4], edi
  004d6	85 f6		 test	 esi, esi

; 69   : 		if( m_pIStrData) m_szData = m_pIStrData->GetData();

  004d8	74 14		 je	 SHORT $LN63@OnInitDial
  004da	8b 06		 mov	 eax, DWORD PTR [esi]
  004dc	8b ce		 mov	 ecx, esi
  004de	ff 50 10	 call	 DWORD PTR [eax+16]
  004e1	8b f0		 mov	 esi, eax
  004e3	8b 45 ec	 mov	 eax, DWORD PTR _bSpaceSpinEnable$1$[ebp]
  004e6	89 75 d4	 mov	 DWORD PTR _szGraphName$[ebp], esi
  004e9	e9 42 ff ff ff	 jmp	 $LL4@OnInitDial
$LN63@OnInitDial:
; File D:\git\src\IBK\IBK_DRFN\ProjSrc\SrcChartEx\ChartAddIn\ChartEnvSetupDlgAddIn\ChartEnvSetupDlgAddIn\DlgMainTabBaseEnvSetUp.cpp

; 329  : 		}

  004ee	8b 45 ec	 mov	 eax, DWORD PTR _bSpaceSpinEnable$1$[ebp]
; File D:\git\src\IBK\IBK_DRFN\ProjSrc\SrcChartEx\ChartAddIn\ChartEnvSetupDlgAddIn\Include_AddIn_135914\I135914\_IString.h

; 70   : 		else m_szData = NULL;

  004f1	33 f6		 xor	 esi, esi
  004f3	89 75 d4	 mov	 DWORD PTR _szGraphName$[ebp], esi
; File D:\git\src\IBK\IBK_DRFN\ProjSrc\SrcChartEx\ChartAddIn\ChartEnvSetupDlgAddIn\ChartEnvSetupDlgAddIn\DlgMainTabBaseEnvSetUp.cpp

; 329  : 		}

  004f6	e9 35 ff ff ff	 jmp	 $LL4@OnInitDial
$LN178@OnInitDial:

; 317  : 			if( !pIBlock) break;

  004fb	8b 45 ec	 mov	 eax, DWORD PTR _bSpaceSpinEnable$1$[ebp]
$LN176@OnInitDial:

; 330  : 		m_edtUpDownSpace.EnableWindow( bSpaceSpinEnable);

  004fe	8b 5d a0	 mov	 ebx, DWORD PTR _this$1$[ebp]
  00501	50		 push	 eax
  00502	8d 8b 28 01 00
	00		 lea	 ecx, DWORD PTR [ebx+296]
  00508	e8 00 00 00 00	 call	 ?EnableWindow@CWnd@@QAEHH@Z ; CWnd::EnableWindow
$LN17@OnInitDial:

; 331  : 	}
; 332  : 	m_nUpDownSpace = nUpSpace + nDownSpace;

  0050d	8b 45 dc	 mov	 eax, DWORD PTR _nDownSpace$[ebp]

; 334  : 	Initial_Spin( m_spnUpDownSpace, m_edtUpDownSpace, m_nUpDownSpace, 90);

  00510	8d b3 a8 00 00
	00		 lea	 esi, DWORD PTR [ebx+168]
  00516	03 45 e0	 add	 eax, DWORD PTR _nUpSpace$[ebp]
  00519	8d bb 28 01 00
	00		 lea	 edi, DWORD PTR [ebx+296]
  0051f	89 45 a0	 mov	 DWORD PTR _Value$1$[ebp], eax

; 1590 : 	CNumEdit *pNumEdit = pSpin.GetBuddy();

  00522	8b ce		 mov	 ecx, esi

; 331  : 	}
; 332  : 	m_nUpDownSpace = nUpSpace + nDownSpace;

  00524	89 83 00 0a 00
	00		 mov	 DWORD PTR [ebx+2560], eax

; 333  : 	m_nOrgUpDownSpace = m_nUpDownSpace;

  0052a	89 83 04 0a 00
	00		 mov	 DWORD PTR [ebx+2564], eax

; 1590 : 	CNumEdit *pNumEdit = pSpin.GetBuddy();

  00530	8b 06		 mov	 eax, DWORD PTR [esi]
  00532	ff 90 80 01 00
	00		 call	 DWORD PTR [eax+384]

; 1593 : 	if( pNumEdit == NULL || *pNumEdit != pEdit )

  00538	85 c0		 test	 eax, eax
  0053a	74 10		 je	 SHORT $LN68@OnInitDial
; File C:\Program Files (x86)\Microsoft Visual Studio\2019\Community\VC\Tools\MSVC\14.29.30133\atlmfc\include\afxwin2.inl

; 19   : 	{ return this == NULL ? NULL : m_hWnd; }

  0053c	85 ff		 test	 edi, edi
  0053e	75 04		 jne	 SHORT $LN74@OnInitDial
  00540	33 c9		 xor	 ecx, ecx
  00542	eb 03		 jmp	 SHORT $LN75@OnInitDial
$LN74@OnInitDial:
  00544	8b 4f 20	 mov	 ecx, DWORD PTR [edi+32]
$LN75@OnInitDial:

; 23   : 	{ return ((HWND) wnd) != m_hWnd; }

  00547	3b 48 20	 cmp	 ecx, DWORD PTR [eax+32]
; File D:\git\src\IBK\IBK_DRFN\ProjSrc\SrcChartEx\ChartAddIn\ChartEnvSetupDlgAddIn\ChartEnvSetupDlgAddIn\DlgMainTabBaseEnvSetUp.cpp

; 1593 : 	if( pNumEdit == NULL || *pNumEdit != pEdit )

  0054a	74 0b		 je	 SHORT $LN67@OnInitDial
$LN68@OnInitDial:

; 1594 : 		pSpin.SetBuddy( &pEdit ); 

  0054c	8b 06		 mov	 eax, DWORD PTR [esi]
  0054e	8b ce		 mov	 ecx, esi
  00550	57		 push	 edi
  00551	ff 90 7c 01 00
	00		 call	 DWORD PTR [eax+380]
$LN67@OnInitDial:

; 1595 : 	
; 1596 : 	// 2. Spin  .
; 1597 : 	pSpin.SetRange( 0, p_dMax);

  00557	8b 06		 mov	 eax, DWORD PTR [esi]
  00559	83 ec 08	 sub	 esp, 8
  0055c	8b ce		 mov	 ecx, esi
  0055e	c7 44 24 04 00
	00 b4 42	 mov	 DWORD PTR [esp+4], 1119092736 ; 42b40000H
  00566	c7 04 24 00 00
	00 00		 mov	 DWORD PTR [esp], 0
  0056d	ff 90 88 01 00
	00		 call	 DWORD PTR [eax+392]
  00573	66 0f 6e 45 a0	 movd	 xmm0, DWORD PTR _Value$1$[ebp]

; 1598 : 	pSpin.SetPos( ( float)Value);

  00578	8b 06		 mov	 eax, DWORD PTR [esi]
  0057a	0f 5b c0	 cvtdq2ps xmm0, xmm0
  0057d	51		 push	 ecx
  0057e	8b ce		 mov	 ecx, esi
  00580	f3 0f 11 04 24	 movss	 DWORD PTR [esp], xmm0
  00585	ff 90 90 01 00
	00		 call	 DWORD PTR [eax+400]

; 1599 : 	pSpin.SetDelta( 1);	

  0058b	8b 06		 mov	 eax, DWORD PTR [esi]
  0058d	83 ec 08	 sub	 esp, 8
  00590	f2 0f 10 45 b4	 movsd	 xmm0, QWORD PTR __real@3ff0000000000000$1$[ebp]
  00595	8b ce		 mov	 ecx, esi
  00597	f2 0f 11 04 24	 movsd	 QWORD PTR [esp], xmm0
  0059c	ff 90 74 01 00
	00		 call	 DWORD PTR [eax+372]

; 335  : 
; 336  : 	// 2.1 
; 337  : 	m_bOrgFixInterval = m_bFixInterval;

  005a2	8b 83 b4 03 00
	00		 mov	 eax, DWORD PTR [ebx+948]

; 519  : 	if( !GetDlgItem( IDC_SHOW_EXRIGHT_DIVIDEND)) return;

  005a8	8b cb		 mov	 ecx, ebx
  005aa	68 eb 07 00 00	 push	 2027			; 000007ebH

; 335  : 
; 336  : 	// 2.1 
; 337  : 	m_bOrgFixInterval = m_bFixInterval;

  005af	89 83 5c 09 00
	00		 mov	 DWORD PTR [ebx+2396], eax

; 519  : 	if( !GetDlgItem( IDC_SHOW_EXRIGHT_DIVIDEND)) return;

  005b5	e8 00 00 00 00	 call	 ?GetDlgItem@CWnd@@QBEPAV1@H@Z ; CWnd::GetDlgItem
  005ba	85 c0		 test	 eax, eax
  005bc	0f 84 db 00 00
	00		 je	 $LN79@OnInitDial

; 520  : 
; 521  : 	m_bShowExRightDividend = FALSE;
; 522  : 	IChartManager *pIChartManager = m_pIChartOCX->GetIChartManager();

  005c2	8b 8b d8 09 00
	00		 mov	 ecx, DWORD PTR [ebx+2520]
  005c8	c7 83 f0 04 00
	00 00 00 00 00	 mov	 DWORD PTR [ebx+1264], 0
  005d2	8b 01		 mov	 eax, DWORD PTR [ecx]
  005d4	ff 50 18	 call	 DWORD PTR [eax+24]
  005d7	8b f8		 mov	 edi, eax

; 523  : 	if( pIChartManager)

  005d9	85 ff		 test	 edi, edi
  005db	0f 84 84 00 00
	00		 je	 $LN91@OnInitDial

; 526  : 		ILPCSTR szGraphName = pIChartManager->FindFirstIndicator( _MTEXT( C2_LOCK), nR, nC, nV, nG, NULL);

  005e1	8b 17		 mov	 edx, DWORD PTR [edi]
  005e3	8d 45 a0	 lea	 eax, DWORD PTR _nG$2[ebp]
  005e6	6a 00		 push	 0
  005e8	50		 push	 eax
  005e9	8d 45 a8	 lea	 eax, DWORD PTR _nV$5[ebp]
  005ec	c7 45 b8 ff ff
	ff ff		 mov	 DWORD PTR _nR$10[ebp], -1
  005f3	50		 push	 eax
  005f4	8d 45 b0	 lea	 eax, DWORD PTR _nC$8[ebp]
  005f7	c7 45 b0 ff ff
	ff ff		 mov	 DWORD PTR _nC$8[ebp], -1
  005fe	50		 push	 eax
  005ff	8d 45 b8	 lea	 eax, DWORD PTR _nR$10[ebp]
  00602	c7 45 a8 ff ff
	ff ff		 mov	 DWORD PTR _nV$5[ebp], -1
  00609	50		 push	 eax
  0060a	a1 54 00 00 00	 mov	 eax, DWORD PTR ?g_iMetaTable@@3VIMetaTable@@A+84
  0060f	8b cf		 mov	 ecx, edi
  00611	c7 45 a0 ff ff
	ff ff		 mov	 DWORD PTR _nG$2[ebp], -1
  00618	ff b0 e4 0c 00
	00		 push	 DWORD PTR [eax+3300]
  0061e	ff 52 58	 call	 DWORD PTR [edx+88]
; File D:\git\src\IBK\IBK_DRFN\ProjSrc\SrcChartEx\ChartAddIn\ChartEnvSetupDlgAddIn\Include_AddIn_135914\I135914\_IString.h

; 39   : 		m_pIStrData = p_pIString;	// Do not AddRef(). Because It must be Return Value.

  00621	8b f0		 mov	 esi, eax
  00623	89 75 c4	 mov	 DWORD PTR _szGraphName$11[ebp+4], esi

; 40   : 		if( m_pIStrData) m_szData = m_pIStrData->GetData();

  00626	85 f6		 test	 esi, esi
  00628	74 09		 je	 SHORT $LN83@OnInitDial
  0062a	8b 16		 mov	 edx, DWORD PTR [esi]
  0062c	8b ce		 mov	 ecx, esi
  0062e	ff 52 10	 call	 DWORD PTR [edx+16]
  00631	eb 02		 jmp	 SHORT $LN182@OnInitDial
$LN83@OnInitDial:

; 41   : 		else m_szData = NULL;

  00633	33 c0		 xor	 eax, eax
$LN182@OnInitDial:
; File D:\git\src\IBK\IBK_DRFN\ProjSrc\SrcChartEx\ChartAddIn\ChartEnvSetupDlgAddIn\ChartEnvSetupDlgAddIn\DlgMainTabBaseEnvSetUp.cpp

; 526  : 		ILPCSTR szGraphName = pIChartManager->FindFirstIndicator( _MTEXT( C2_LOCK), nR, nC, nV, nG, NULL);

  00635	89 45 c0	 mov	 DWORD PTR _szGraphName$11[ebp], eax
; File D:\git\src\IBK\IBK_DRFN\ProjSrc\SrcChartEx\ChartAddIn\ChartEnvSetupDlgAddIn\Include_AddIn_135914\I135914\_IString.h

; 57   : 		if( !m_szData) return TRUE;

  00638	33 c9		 xor	 ecx, ecx
; File D:\git\src\IBK\IBK_DRFN\ProjSrc\SrcChartEx\ChartAddIn\ChartEnvSetupDlgAddIn\ChartEnvSetupDlgAddIn\DlgMainTabBaseEnvSetUp.cpp

; 526  : 		ILPCSTR szGraphName = pIChartManager->FindFirstIndicator( _MTEXT( C2_LOCK), nR, nC, nV, nG, NULL);

  0063a	c6 45 fc 01	 mov	 BYTE PTR __$EHRec$[ebp+8], 1
; File D:\git\src\IBK\IBK_DRFN\ProjSrc\SrcChartEx\ChartAddIn\ChartEnvSetupDlgAddIn\Include_AddIn_135914\I135914\_IString.h

; 57   : 		if( !m_szData) return TRUE;

  0063e	85 c0		 test	 eax, eax
  00640	74 05		 je	 SHORT $LN86@OnInitDial

; 58   : 		return !*m_szData;

  00642	38 08		 cmp	 BYTE PTR [eax], cl
  00644	0f 95 c1	 setne	 cl
$LN86@OnInitDial:
; File D:\git\src\IBK\IBK_DRFN\ProjSrc\SrcChartEx\ChartAddIn\ChartEnvSetupDlgAddIn\ChartEnvSetupDlgAddIn\DlgMainTabBaseEnvSetUp.cpp

; 527  : 		m_bShowExRightDividend = !szGraphName.IsEmpty();

  00647	89 8b f0 04 00
	00		 mov	 DWORD PTR [ebx+1264], ecx

; 528  : 		pIChartManager->Release();

  0064d	8b 07		 mov	 eax, DWORD PTR [edi]
  0064f	57		 push	 edi
  00650	ff 50 08	 call	 DWORD PTR [eax+8]
; File D:\git\src\IBK\IBK_DRFN\ProjSrc\SrcChartEx\ChartAddIn\ChartEnvSetupDlgAddIn\Include_AddIn_135914\I135914\_IString.h

; 44   : 	{

  00653	c6 45 fc 02	 mov	 BYTE PTR __$EHRec$[ebp+8], 2

; 45   : 		if( m_pIStrData)

  00657	85 f6		 test	 esi, esi
  00659	74 06		 je	 SHORT $LN90@OnInitDial

; 46   : 		{
; 47   : 			m_pIStrData->Release();

  0065b	8b 06		 mov	 eax, DWORD PTR [esi]
  0065d	56		 push	 esi
  0065e	ff 50 08	 call	 DWORD PTR [eax+8]
$LN90@OnInitDial:

; 48   : 			m_pIStrData = NULL;
; 49   : 			m_szData = NULL;
; 50   : 		}
; 51   : 	}

  00661	c6 45 fc 00	 mov	 BYTE PTR __$EHRec$[ebp+8], 0
$LN91@OnInitDial:
; File D:\git\src\IBK\IBK_DRFN\ProjSrc\SrcChartEx\ChartAddIn\ChartEnvSetupDlgAddIn\ChartEnvSetupDlgAddIn\DlgMainTabBaseEnvSetUp.cpp

; 531  : 	IPacketManager *pIPacketManager = m_pIChartOCX->GetIDefaultPacketManager();

  00665	8b 8b d8 09 00
	00		 mov	 ecx, DWORD PTR [ebx+2520]
  0066b	8b 01		 mov	 eax, DWORD PTR [ecx]
  0066d	ff 50 1c	 call	 DWORD PTR [eax+28]
  00670	8b f0		 mov	 esi, eax

; 532  : 	if( pIPacketManager)

  00672	85 f6		 test	 esi, esi
  00674	74 27		 je	 SHORT $LN79@OnInitDial

; 533  : 	{
; 534  : 		// <>  <> 
; 535  : 		GetDlgItem( IDC_SHOW_EXRIGHT_DIVIDEND)->EnableWindow( pIPacketManager->GetBaseTimeDataType() == CScaleBaseData::HORZ_DAILY);

  00676	8b 16		 mov	 edx, DWORD PTR [esi]
  00678	8b ce		 mov	 ecx, esi
  0067a	ff 52 3c	 call	 DWORD PTR [edx+60]
  0067d	48		 dec	 eax
  0067e	8b cb		 mov	 ecx, ebx
  00680	f7 d8		 neg	 eax
  00682	1b c0		 sbb	 eax, eax
  00684	40		 inc	 eax
  00685	50		 push	 eax
  00686	68 eb 07 00 00	 push	 2027			; 000007ebH
  0068b	e8 00 00 00 00	 call	 ?GetDlgItem@CWnd@@QBEPAV1@H@Z ; CWnd::GetDlgItem
  00690	8b c8		 mov	 ecx, eax
  00692	e8 00 00 00 00	 call	 ?EnableWindow@CWnd@@QAEHH@Z ; CWnd::EnableWindow

; 536  : 		pIPacketManager->Release();

  00697	8b 06		 mov	 eax, DWORD PTR [esi]
  00699	56		 push	 esi
  0069a	ff 50 08	 call	 DWORD PTR [eax+8]
$LN79@OnInitDial:

; 338  : 
; 339  : 	// 3.  
; 340  : 	// 3.1 / 
; 341  : 	EnableShowExRightDividend();
; 342  : 	m_bOrgShowExRightDividend = ( m_bShowExRightDividend ) ? true : false;

  0069d	83 bb f0 04 00
	00 00		 cmp	 DWORD PTR [ebx+1264], 0

; 551  : 	if( !GetDlgItem( IDC_SHOW_HIGH_LOW_BOUND)) return;

  006a4	8b cb		 mov	 ecx, ebx
  006a6	68 e7 07 00 00	 push	 2023			; 000007e7H

; 338  : 
; 339  : 	// 3.  
; 340  : 	// 3.1 / 
; 341  : 	EnableShowExRightDividend();
; 342  : 	m_bOrgShowExRightDividend = ( m_bShowExRightDividend ) ? true : false;

  006ab	0f 95 c0	 setne	 al
  006ae	88 83 3f 09 00
	00		 mov	 BYTE PTR [ebx+2367], al

; 551  : 	if( !GetDlgItem( IDC_SHOW_HIGH_LOW_BOUND)) return;

  006b4	e8 00 00 00 00	 call	 ?GetDlgItem@CWnd@@QBEPAV1@H@Z ; CWnd::GetDlgItem
  006b9	85 c0		 test	 eax, eax
  006bb	0f 84 8f 00 00
	00		 je	 $LN96@OnInitDial

; 1781 : 	IAddInToolMgr *pIAddInToolMgr = m_pIChartOCX->GetIAddInToolMgr();

  006c1	8b 8b d8 09 00
	00		 mov	 ecx, DWORD PTR [ebx+2520]
  006c7	c7 45 cc 00 00
	00 00		 mov	 DWORD PTR _lResult$17[ebp], 0
  006ce	8b 01		 mov	 eax, DWORD PTR [ecx]
  006d0	ff 50 24	 call	 DWORD PTR [eax+36]
  006d3	8b f0		 mov	 esi, eax

; 1782 : 	if( pIAddInToolMgr)

  006d5	85 f6		 test	 esi, esi
  006d7	74 13		 je	 SHORT $LN100@OnInitDial

; 1783 : 	{
; 1784 : 		pIAddInToolMgr->OnAddInToolCommand( lResult, EAI_CUSTOM_GET_EXISTENCE_BOUNDMARK);

  006d9	8b 16		 mov	 edx, DWORD PTR [esi]
  006db	8d 45 cc	 lea	 eax, DWORD PTR _lResult$17[ebp]
  006de	6a 0b		 push	 11			; 0000000bH
  006e0	50		 push	 eax
  006e1	8b ce		 mov	 ecx, esi
  006e3	ff 52 70	 call	 DWORD PTR [edx+112]

; 1785 : 		pIAddInToolMgr->Release();

  006e6	8b 06		 mov	 eax, DWORD PTR [esi]
  006e8	56		 push	 esi
  006e9	ff 50 08	 call	 DWORD PTR [eax+8]
$LN100@OnInitDial:

; 553  : 	if( GetExistenceHighLowBound())

  006ec	83 7d cc 00	 cmp	 DWORD PTR _lResult$17[ebp], 0
  006f0	8b cb		 mov	 ecx, ebx
  006f2	74 49		 je	 SHORT $LN95@OnInitDial

; 554  : 	{
; 555  : 		GetDlgItem( IDC_SHOW_HIGH_LOW_BOUND)->EnableWindow( TRUE );

  006f4	6a 01		 push	 1
  006f6	68 e7 07 00 00	 push	 2023			; 000007e7H
  006fb	e8 00 00 00 00	 call	 ?GetDlgItem@CWnd@@QBEPAV1@H@Z ; CWnd::GetDlgItem
  00700	8b c8		 mov	 ecx, eax
  00702	e8 00 00 00 00	 call	 ?EnableWindow@CWnd@@QAEHH@Z ; CWnd::EnableWindow

; 556  : 
; 557  : 		long lResult = 0;
; 558  : 		IAddInToolMgr *pIAddInToolMgr = m_pIChartOCX->GetIAddInToolMgr();

  00707	8b 8b d8 09 00
	00		 mov	 ecx, DWORD PTR [ebx+2520]
  0070d	c7 45 cc 00 00
	00 00		 mov	 DWORD PTR _lResult$18[ebp], 0
  00714	8b 01		 mov	 eax, DWORD PTR [ecx]
  00716	ff 50 24	 call	 DWORD PTR [eax+36]
  00719	8b f0		 mov	 esi, eax

; 559  : 		if( pIAddInToolMgr)

  0071b	85 f6		 test	 esi, esi
  0071d	74 13		 je	 SHORT $LN97@OnInitDial

; 560  : 		{
; 561  : 			pIAddInToolMgr->OnAddInToolCommand( lResult, EAI_CUSTOM_GET_BOUNDMARK_FLAG);

  0071f	8b 16		 mov	 edx, DWORD PTR [esi]
  00721	8d 45 cc	 lea	 eax, DWORD PTR _lResult$18[ebp]
  00724	6a 0a		 push	 10			; 0000000aH
  00726	50		 push	 eax
  00727	8b ce		 mov	 ecx, esi
  00729	ff 52 70	 call	 DWORD PTR [edx+112]

; 562  : 			pIAddInToolMgr->Release();

  0072c	8b 06		 mov	 eax, DWORD PTR [esi]
  0072e	56		 push	 esi
  0072f	ff 50 08	 call	 DWORD PTR [eax+8]
$LN97@OnInitDial:

; 563  : 		}
; 564  : 		m_bShowHighLowBound = lResult;		//  /  

  00732	8b 45 cc	 mov	 eax, DWORD PTR _lResult$18[ebp]
  00735	89 83 f4 04 00
	00		 mov	 DWORD PTR [ebx+1268], eax

; 565  : 	}

  0073b	eb 13		 jmp	 SHORT $LN96@OnInitDial
$LN95@OnInitDial:

; 566  : 	else
; 567  : 	{
; 568  : 		GetDlgItem( IDC_SHOW_HIGH_LOW_BOUND)->EnableWindow( FALSE );

  0073d	6a 00		 push	 0
  0073f	68 e7 07 00 00	 push	 2023			; 000007e7H
  00744	e8 00 00 00 00	 call	 ?GetDlgItem@CWnd@@QBEPAV1@H@Z ; CWnd::GetDlgItem
  00749	8b c8		 mov	 ecx, eax
  0074b	e8 00 00 00 00	 call	 ?EnableWindow@CWnd@@QAEHH@Z ; CWnd::EnableWindow
$LN96@OnInitDial:

; 343  : 
; 344  : 	// 3.2  Bar 
; 345  : 	EnableHighLowBound();
; 346  : 	m_bOrgShowHighLowBound = ( m_bShowHighLowBound ) ? true : false;

  00750	83 bb f4 04 00
	00 00		 cmp	 DWORD PTR [ebx+1268], 0

; 486  : 	if( !GetDlgItem( IDC_USE_REVISED_PRICE)) return;

  00757	8b cb		 mov	 ecx, ebx
  00759	68 f7 03 00 00	 push	 1015			; 000003f7H

; 343  : 
; 344  : 	// 3.2  Bar 
; 345  : 	EnableHighLowBound();
; 346  : 	m_bOrgShowHighLowBound = ( m_bShowHighLowBound ) ? true : false;

  0075e	0f 95 c0	 setne	 al
  00761	88 83 3e 09 00
	00		 mov	 BYTE PTR [ebx+2366], al

; 486  : 	if( !GetDlgItem( IDC_USE_REVISED_PRICE)) return;

  00767	e8 00 00 00 00	 call	 ?GetDlgItem@CWnd@@QBEPAV1@H@Z ; CWnd::GetDlgItem
  0076c	85 c0		 test	 eax, eax
  0076e	0f 84 89 00 00
	00		 je	 $LN106@OnInitDial

; 487  : 
; 488  : 	//       Disable.
; 489  : 	int nVersion = GetAddInIVersion();

  00774	e8 00 00 00 00	 call	 _GetAddInIVersion

; 490  : 	if( 419999 < nVersion && nVersion < 430000  )

  00779	05 60 97 f9 ff	 add	 eax, -420000		; fff99760H
  0077e	3d 0f 27 00 00	 cmp	 eax, 9999		; 0000270fH
  00783	77 17		 ja	 SHORT $LN104@OnInitDial

; 491  : 	{
; 492  : 		GetDlgItem(IDC_USE_REVISED_PRICE)->ShowWindow(SW_HIDE);

  00785	6a 00		 push	 0
  00787	68 f7 03 00 00	 push	 1015			; 000003f7H
  0078c	8b cb		 mov	 ecx, ebx
  0078e	e8 00 00 00 00	 call	 ?GetDlgItem@CWnd@@QBEPAV1@H@Z ; CWnd::GetDlgItem
  00793	8b c8		 mov	 ecx, eax
  00795	e8 00 00 00 00	 call	 ?ShowWindow@CWnd@@QAEHH@Z ; CWnd::ShowWindow

; 493  : 		return;

  0079a	eb 61		 jmp	 SHORT $LN106@OnInitDial
$LN104@OnInitDial:

; 494  : 	}
; 495  : 	
; 496  : 	if( m_MChartInterface.InitMChartInterface061115() )

  0079c	8d 8b dc 09 00
	00		 lea	 ecx, DWORD PTR [ebx+2524]
  007a2	e8 00 00 00 00	 call	 ?InitMChartInterface061115@COutsideCommonInterfaceFunction@@QAEHXZ ; COutsideCommonInterfaceFunction::InitMChartInterface061115
  007a7	85 c0		 test	 eax, eax
  007a9	74 28		 je	 SHORT $LN105@OnInitDial

; 497  : 	{
; 498  : 		GetDlgItem(IDC_USE_REVISED_PRICE)->EnableWindow( TRUE );

  007ab	6a 01		 push	 1
  007ad	68 f7 03 00 00	 push	 1015			; 000003f7H
  007b2	8b cb		 mov	 ecx, ebx
  007b4	e8 00 00 00 00	 call	 ?GetDlgItem@CWnd@@QBEPAV1@H@Z ; CWnd::GetDlgItem
  007b9	8b c8		 mov	 ecx, eax
  007bb	e8 00 00 00 00	 call	 ?EnableWindow@CWnd@@QAEHH@Z ; CWnd::EnableWindow

; 499  : 		m_bUseRevisedPrice = m_MChartInterface.GetRevisedPriceFlag();

  007c0	8d 8b dc 09 00
	00		 lea	 ecx, DWORD PTR [ebx+2524]
  007c6	e8 00 00 00 00	 call	 ?GetRevisedPriceFlag@COutsideCommonInterfaceFunction@@QAEHXZ ; COutsideCommonInterfaceFunction::GetRevisedPriceFlag
  007cb	89 83 f8 04 00
	00		 mov	 DWORD PTR [ebx+1272], eax

; 500  : 	}

  007d1	eb 2a		 jmp	 SHORT $LN106@OnInitDial
$LN105@OnInitDial:

; 501  : 	// (2007/10/5 - Seung-Won, Bae) Support Map
; 502  : 	else m_pIChartOCX->FireAddInEvent( CChartEnvSetupDlgAddInImp::m_strAddInItemName, 1005, NULL, 0, 0);

  007d3	8b 8b d8 09 00
	00		 mov	 ecx, DWORD PTR [ebx+2520]
  007d9	f2 0f 10 45 94	 movsd	 xmm0, QWORD PTR __real@0000000000000000$1$[ebp]
  007de	6a 00		 push	 0
  007e0	83 ec 08	 sub	 esp, 8
  007e3	8b 01		 mov	 eax, DWORD PTR [ecx]
  007e5	f2 0f 11 04 24	 movsd	 QWORD PTR [esp], xmm0
  007ea	6a 00		 push	 0
  007ec	68 ed 03 00 00	 push	 1005			; 000003edH
  007f1	ff 35 00 00 00
	00		 push	 DWORD PTR ?m_strAddInItemName@CChartEnvSetupDlgAddInImp@@2V?$CStringT@DV?$StrTraitMFC_DLL@DV?$ChTraitsCRT@D@ATL@@@@@ATL@@A ; CChartEnvSetupDlgAddInImp::m_strAddInItemName
  007f7	ff 90 80 01 00
	00		 call	 DWORD PTR [eax+384]
$LN106@OnInitDial:

; 347  : 
; 348  : 	// 3.3  
; 349  : 	EnableRevisedPrice();
; 350  : 	m_bOrgUseRevisedPrice = m_bUseRevisedPrice;

  007fd	8b 83 f8 04 00
	00		 mov	 eax, DWORD PTR [ebx+1272]

; 576  : 	if( !GetDlgItem( IDC_SHOW_LOWHIGH_MARKER)) return;

  00803	8b cb		 mov	 ecx, ebx
  00805	68 ff 03 00 00	 push	 1023			; 000003ffH

; 347  : 
; 348  : 	// 3.3  
; 349  : 	EnableRevisedPrice();
; 350  : 	m_bOrgUseRevisedPrice = m_bUseRevisedPrice;

  0080a	89 83 58 09 00
	00		 mov	 DWORD PTR [ebx+2392], eax

; 576  : 	if( !GetDlgItem( IDC_SHOW_LOWHIGH_MARKER)) return;

  00810	e8 00 00 00 00	 call	 ?GetDlgItem@CWnd@@QBEPAV1@H@Z ; CWnd::GetDlgItem
  00815	85 c0		 test	 eax, eax
  00817	0f 84 8f 00 00
	00		 je	 $LN113@OnInitDial

; 1806 :  	IAddInToolMgr *pIAddInToolMgr = m_pIChartOCX->GetIAddInToolMgr();

  0081d	8b 8b d8 09 00
	00		 mov	 ecx, DWORD PTR [ebx+2520]
  00823	c7 45 cc 00 00
	00 00		 mov	 DWORD PTR _lResult$15[ebp], 0
  0082a	8b 01		 mov	 eax, DWORD PTR [ecx]
  0082c	ff 50 24	 call	 DWORD PTR [eax+36]
  0082f	8b f0		 mov	 esi, eax

; 1807 :  	if( pIAddInToolMgr)

  00831	85 f6		 test	 esi, esi
  00833	74 13		 je	 SHORT $LN117@OnInitDial

; 1808 :  	{
; 1809 :  		pIAddInToolMgr->OnAddInToolCommand( lResult, EAI_CUSTOM_GET_EXISTENCE_LOWHIGHMARK);

  00835	8b 16		 mov	 edx, DWORD PTR [esi]
  00837	8d 45 cc	 lea	 eax, DWORD PTR _lResult$15[ebp]
  0083a	6a 47		 push	 71			; 00000047H
  0083c	50		 push	 eax
  0083d	8b ce		 mov	 ecx, esi
  0083f	ff 52 70	 call	 DWORD PTR [edx+112]

; 1810 :  		pIAddInToolMgr->Release();

  00842	8b 06		 mov	 eax, DWORD PTR [esi]
  00844	56		 push	 esi
  00845	ff 50 08	 call	 DWORD PTR [eax+8]
$LN117@OnInitDial:

; 578  : 	if( GetExistenceLowHighMarker())

  00848	83 7d cc 00	 cmp	 DWORD PTR _lResult$15[ebp], 0
  0084c	8b cb		 mov	 ecx, ebx
  0084e	74 49		 je	 SHORT $LN112@OnInitDial

; 579  : 	{
; 580  : 		GetDlgItem( IDC_SHOW_LOWHIGH_MARKER)->EnableWindow( TRUE );

  00850	6a 01		 push	 1
  00852	68 ff 03 00 00	 push	 1023			; 000003ffH
  00857	e8 00 00 00 00	 call	 ?GetDlgItem@CWnd@@QBEPAV1@H@Z ; CWnd::GetDlgItem
  0085c	8b c8		 mov	 ecx, eax
  0085e	e8 00 00 00 00	 call	 ?EnableWindow@CWnd@@QAEHH@Z ; CWnd::EnableWindow

; 581  : 		
; 582  : 		long lResult = 0;
; 583  : 		IAddInToolMgr *pIAddInToolMgr = m_pIChartOCX->GetIAddInToolMgr();

  00863	8b 8b d8 09 00
	00		 mov	 ecx, DWORD PTR [ebx+2520]
  00869	c7 45 cc 00 00
	00 00		 mov	 DWORD PTR _lResult$16[ebp], 0
  00870	8b 01		 mov	 eax, DWORD PTR [ecx]
  00872	ff 50 24	 call	 DWORD PTR [eax+36]
  00875	8b f0		 mov	 esi, eax

; 584  : 		if( pIAddInToolMgr)

  00877	85 f6		 test	 esi, esi
  00879	74 13		 je	 SHORT $LN114@OnInitDial

; 585  : 		{
; 586  : 			pIAddInToolMgr->OnAddInToolCommand( lResult, EAI_CUSTOM_GET_LOWHIGHMARK_FLAG);

  0087b	8b 16		 mov	 edx, DWORD PTR [esi]
  0087d	8d 45 cc	 lea	 eax, DWORD PTR _lResult$16[ebp]
  00880	6a 46		 push	 70			; 00000046H
  00882	50		 push	 eax
  00883	8b ce		 mov	 ecx, esi
  00885	ff 52 70	 call	 DWORD PTR [edx+112]

; 587  : 			pIAddInToolMgr->Release();

  00888	8b 06		 mov	 eax, DWORD PTR [esi]
  0088a	56		 push	 esi
  0088b	ff 50 08	 call	 DWORD PTR [eax+8]
$LN114@OnInitDial:

; 588  : 		}
; 589  : 		m_bShowLowHighMarker = lResult;		//  /  

  0088e	8b 45 cc	 mov	 eax, DWORD PTR _lResult$16[ebp]
  00891	89 83 fc 04 00
	00		 mov	 DWORD PTR [ebx+1276], eax

; 590  : 	}

  00897	eb 13		 jmp	 SHORT $LN113@OnInitDial
$LN112@OnInitDial:

; 591  : 	else
; 592  : 	{
; 593  : 		GetDlgItem( IDC_SHOW_LOWHIGH_MARKER)->EnableWindow( FALSE );

  00899	6a 00		 push	 0
  0089b	68 ff 03 00 00	 push	 1023			; 000003ffH
  008a0	e8 00 00 00 00	 call	 ?GetDlgItem@CWnd@@QBEPAV1@H@Z ; CWnd::GetDlgItem
  008a5	8b c8		 mov	 ecx, eax
  008a7	e8 00 00 00 00	 call	 ?EnableWindow@CWnd@@QAEHH@Z ; CWnd::EnableWindow
$LN113@OnInitDial:

; 351  : 
; 352  : 	//>>20100120_JS.Kim_alzioyes	/ 
; 353  : 	// 3.4 / 
; 354  : 	EnableLowHighMarker();
; 355  : 	m_bOrgShowLowHighMarker = (m_bShowLowHighMarker) ? true : false;

  008ac	83 bb fc 04 00
	00 00		 cmp	 DWORD PTR [ebx+1276], 0

; 356  : 	//<<
; 357  : 
; 358  : 	// 4.  
; 359  : 	// 4.1  
; 360  : 	m_bShowAllTitle = m_bOrgShowAllTitle = !m_pIChartOCX->IsHideAllTitle();

  008b3	8b 8b d8 09 00
	00		 mov	 ecx, DWORD PTR [ebx+2520]
  008b9	0f 95 c0	 setne	 al
  008bc	88 83 40 09 00
	00		 mov	 BYTE PTR [ebx+2368], al
  008c2	8b 01		 mov	 eax, DWORD PTR [ecx]
  008c4	ff 90 b8 00 00
	00		 call	 DWORD PTR [eax+184]
  008ca	f7 d8		 neg	 eax

; 543  : 	GetDlgItem(IDC_INDICATOR_VARIABLE)->EnableWindow(m_bShowAllTitle);

  008cc	8b cb		 mov	 ecx, ebx

; 356  : 	//<<
; 357  : 
; 358  : 	// 4.  
; 359  : 	// 4.1  
; 360  : 	m_bShowAllTitle = m_bOrgShowAllTitle = !m_pIChartOCX->IsHideAllTitle();

  008ce	1b f6		 sbb	 esi, esi
  008d0	46		 inc	 esi

; 543  : 	GetDlgItem(IDC_INDICATOR_VARIABLE)->EnableWindow(m_bShowAllTitle);

  008d1	56		 push	 esi
  008d2	68 f1 07 00 00	 push	 2033			; 000007f1H

; 356  : 	//<<
; 357  : 
; 358  : 	// 4.  
; 359  : 	// 4.1  
; 360  : 	m_bShowAllTitle = m_bOrgShowAllTitle = !m_pIChartOCX->IsHideAllTitle();

  008d7	89 b3 50 09 00
	00		 mov	 DWORD PTR [ebx+2384], esi
  008dd	89 b3 a4 03 00
	00		 mov	 DWORD PTR [ebx+932], esi

; 543  : 	GetDlgItem(IDC_INDICATOR_VARIABLE)->EnableWindow(m_bShowAllTitle);

  008e3	e8 00 00 00 00	 call	 ?GetDlgItem@CWnd@@QBEPAV1@H@Z ; CWnd::GetDlgItem
  008e8	8b c8		 mov	 ecx, eax
  008ea	e8 00 00 00 00	 call	 ?EnableWindow@CWnd@@QAEHH@Z ; CWnd::EnableWindow

; 544  : 	GetDlgItem(IDC_INDICATOR_VALUE)->EnableWindow(m_bShowAllTitle);

  008ef	56		 push	 esi
  008f0	68 f2 07 00 00	 push	 2034			; 000007f2H
  008f5	8b cb		 mov	 ecx, ebx
  008f7	e8 00 00 00 00	 call	 ?GetDlgItem@CWnd@@QBEPAV1@H@Z ; CWnd::GetDlgItem
  008fc	8b c8		 mov	 ecx, eax
  008fe	e8 00 00 00 00	 call	 ?EnableWindow@CWnd@@QAEHH@Z ; CWnd::EnableWindow

; 361  : 	EnableUseIndicatorName(m_bShowAllTitle);
; 362  : 
; 363  : 	// 4.2   
; 364  : 	m_pIChartOCX->GetGraphTitleOption( m_bShowIndicatorVariable, m_bShowIndicatorValue);	//  -    

  00903	8b 8b d8 09 00
	00		 mov	 ecx, DWORD PTR [ebx+2520]
  00909	8d bb 90 03 00
	00		 lea	 edi, DWORD PTR [ebx+912]
  0090f	57		 push	 edi
  00910	8d b3 94 03 00
	00		 lea	 esi, DWORD PTR [ebx+916]
  00916	56		 push	 esi
  00917	8b 01		 mov	 eax, DWORD PTR [ecx]
  00919	ff 90 f8 01 00
	00		 call	 DWORD PTR [eax+504]

; 365  : 	m_bOrgShowIndicatorVariable = ( m_bShowIndicatorVariable ) ? true : false;

  0091f	83 3e 00	 cmp	 DWORD PTR [esi], 0

; 366  : 	m_bOrgShowIndicatorValue = ( m_bShowIndicatorValue ) ? true : false;
; 367  : 
; 368  : 	// 5.   - .
; 369  : 	m_nCandleType = m_nOrgCandleType = ( m_pIChartOCX->GetNormalizedMinuteTimeRule() ? 1 : 0);

  00922	8b 8b d8 09 00
	00		 mov	 ecx, DWORD PTR [ebx+2520]
  00928	0f 95 c0	 setne	 al
  0092b	83 3f 00	 cmp	 DWORD PTR [edi], 0
  0092e	88 83 3c 09 00
	00		 mov	 BYTE PTR [ebx+2364], al
  00934	0f 95 c0	 setne	 al
  00937	88 83 3d 09 00
	00		 mov	 BYTE PTR [ebx+2365], al
  0093d	8b 01		 mov	 eax, DWORD PTR [ecx]
  0093f	ff 90 a8 00 00
	00		 call	 DWORD PTR [eax+168]

; 2046 : 	IAddInToolMgr *pIAddInToolMgr = m_pIChartOCX->GetIAddInToolMgr();

  00945	8b 8b d8 09 00
	00		 mov	 ecx, DWORD PTR [ebx+2520]

; 366  : 	m_bOrgShowIndicatorValue = ( m_bShowIndicatorValue ) ? true : false;
; 367  : 
; 368  : 	// 5.   - .
; 369  : 	m_nCandleType = m_nOrgCandleType = ( m_pIChartOCX->GetNormalizedMinuteTimeRule() ? 1 : 0);

  0094b	f7 d8		 neg	 eax

; 2045 : 	long lResult = 0;

  0094d	c7 45 cc 00 00
	00 00		 mov	 DWORD PTR _lResult$14[ebp], 0

; 366  : 	m_bOrgShowIndicatorValue = ( m_bShowIndicatorValue ) ? true : false;
; 367  : 
; 368  : 	// 5.   - .
; 369  : 	m_nCandleType = m_nOrgCandleType = ( m_pIChartOCX->GetNormalizedMinuteTimeRule() ? 1 : 0);

  00954	1b c0		 sbb	 eax, eax
  00956	f7 d8		 neg	 eax
  00958	89 83 20 09 00
	00		 mov	 DWORD PTR [ebx+2336], eax
  0095e	89 83 00 05 00
	00		 mov	 DWORD PTR [ebx+1280], eax

; 2046 : 	IAddInToolMgr *pIAddInToolMgr = m_pIChartOCX->GetIAddInToolMgr();

  00964	8b 01		 mov	 eax, DWORD PTR [ecx]
  00966	ff 50 24	 call	 DWORD PTR [eax+36]
  00969	8b f0		 mov	 esi, eax

; 2047 : 	if( pIAddInToolMgr)

  0096b	85 f6		 test	 esi, esi
  0096d	74 13		 je	 SHORT $LN122@OnInitDial

; 2048 : 	{
; 2049 : 		pIAddInToolMgr->OnAddInToolCommand( lResult, EAI_CUSTOM_GET_GAPREVISION);

  0096f	8b 16		 mov	 edx, DWORD PTR [esi]
  00971	8d 45 cc	 lea	 eax, DWORD PTR _lResult$14[ebp]
  00974	6a 41		 push	 65			; 00000041H
  00976	50		 push	 eax
  00977	8b ce		 mov	 ecx, esi
  00979	ff 52 70	 call	 DWORD PTR [edx+112]

; 2050 : 		pIAddInToolMgr->Release();

  0097c	8b 06		 mov	 eax, DWORD PTR [esi]
  0097e	56		 push	 esi
  0097f	ff 50 08	 call	 DWORD PTR [eax+8]
$LN122@OnInitDial:

; 370  : 
; 371  : 	// 2008.10.15 by LYH >> 
; 372  : 	//>>  - vntsorl(20090217)
; 373  : 	//	m_bUseGapRevision = m_bOrgUseGapRevision = m_pIChartOCX->GetUseGapRevision();
; 374  : 	m_bUseGapRevision = m_bOrgUseGapRevision = GetGapRevision();

  00982	8b 45 cc	 mov	 eax, DWORD PTR _lResult$14[ebp]

; 2072 : 	IAddInToolMgr *pIAddInToolMgr = m_pIChartOCX->GetIAddInToolMgr();

  00985	8b 8b d8 09 00
	00		 mov	 ecx, DWORD PTR [ebx+2520]

; 370  : 
; 371  : 	// 2008.10.15 by LYH >> 
; 372  : 	//>>  - vntsorl(20090217)
; 373  : 	//	m_bUseGapRevision = m_bOrgUseGapRevision = m_pIChartOCX->GetUseGapRevision();
; 374  : 	m_bUseGapRevision = m_bOrgUseGapRevision = GetGapRevision();

  0098b	89 83 24 09 00
	00		 mov	 DWORD PTR [ebx+2340], eax
  00991	89 83 08 05 00
	00		 mov	 DWORD PTR [ebx+1288], eax

; 2071 : 	long lResult = 0;

  00997	c7 45 cc 00 00
	00 00		 mov	 DWORD PTR _lResult$13[ebp], 0

; 2072 : 	IAddInToolMgr *pIAddInToolMgr = m_pIChartOCX->GetIAddInToolMgr();

  0099e	8b 01		 mov	 eax, DWORD PTR [ecx]
  009a0	ff 50 24	 call	 DWORD PTR [eax+36]
  009a3	8b f0		 mov	 esi, eax

; 2073 : 	if( pIAddInToolMgr)

  009a5	85 f6		 test	 esi, esi
  009a7	74 13		 je	 SHORT $LN125@OnInitDial

; 2074 : 	{
; 2075 : 		pIAddInToolMgr->OnAddInToolCommand( lResult, EAI_ENVSETUP_SHOWMONTHGAPREVISION_CHANGED);

  009a9	8b 16		 mov	 edx, DWORD PTR [esi]
  009ab	8d 45 cc	 lea	 eax, DWORD PTR _lResult$13[ebp]
  009ae	6a 43		 push	 67			; 00000043H
  009b0	50		 push	 eax
  009b1	8b ce		 mov	 ecx, esi
  009b3	ff 52 70	 call	 DWORD PTR [edx+112]

; 2076 : 		pIAddInToolMgr->Release();

  009b6	8b 06		 mov	 eax, DWORD PTR [esi]
  009b8	56		 push	 esi
  009b9	ff 50 08	 call	 DWORD PTR [eax+8]
$LN125@OnInitDial:

; 375  : 	//<<  - vntsorl(20090217)
; 376  : 	
; 377  : 	// 20130530  :   (IBK) (Issue No : 0006572)
; 378  : 	GetDlgItem(IDC_USE_GAP_MONTHREV)->EnableWindow(GetShowMonthGapRevision());

  009bc	ff 75 cc	 push	 DWORD PTR _lResult$13[ebp]
  009bf	8b cb		 mov	 ecx, ebx
  009c1	68 fd 17 00 00	 push	 6141			; 000017fdH
  009c6	e8 00 00 00 00	 call	 ?GetDlgItem@CWnd@@QBEPAV1@H@Z ; CWnd::GetDlgItem
  009cb	8b c8		 mov	 ecx, eax
  009cd	e8 00 00 00 00	 call	 ?EnableWindow@CWnd@@QAEHH@Z ; CWnd::EnableWindow

; 2060 : 	IAddInToolMgr *pIAddInToolMgr = m_pIChartOCX->GetIAddInToolMgr();

  009d2	8b 8b d8 09 00
	00		 mov	 ecx, DWORD PTR [ebx+2520]
  009d8	c7 45 c4 00 00
	00 00		 mov	 DWORD PTR _lResult$12[ebp], 0
  009df	8b 01		 mov	 eax, DWORD PTR [ecx]
  009e1	ff 50 24	 call	 DWORD PTR [eax+36]
  009e4	8b f0		 mov	 esi, eax

; 2061 : 	if( pIAddInToolMgr)

  009e6	85 f6		 test	 esi, esi
  009e8	74 13		 je	 SHORT $LN128@OnInitDial

; 2062 : 	{
; 2063 : 		pIAddInToolMgr->OnAddInToolCommand( lResult, EAI_CUSTOM_GET_MONTHGAPREVISION);

  009ea	8b 16		 mov	 edx, DWORD PTR [esi]
  009ec	8d 45 c4	 lea	 eax, DWORD PTR _lResult$12[ebp]
  009ef	6a 44		 push	 68			; 00000044H
  009f1	50		 push	 eax
  009f2	8b ce		 mov	 ecx, esi
  009f4	ff 52 70	 call	 DWORD PTR [edx+112]

; 2064 : 		pIAddInToolMgr->Release();

  009f7	8b 06		 mov	 eax, DWORD PTR [esi]
  009f9	56		 push	 esi
  009fa	ff 50 08	 call	 DWORD PTR [eax+8]
$LN128@OnInitDial:

; 2065 : 	}
; 2066 : 	return lResult;

  009fd	8b 75 c4	 mov	 esi, DWORD PTR _lResult$12[ebp]

; 379  : 	( ( CButton *)GetDlgItem( IDC_USE_GAP_MONTHREV))->SetCheck(GetMonthGapRevision());

  00a00	8b cb		 mov	 ecx, ebx
  00a02	68 fd 17 00 00	 push	 6141			; 000017fdH
  00a07	e8 00 00 00 00	 call	 ?GetDlgItem@CWnd@@QBEPAV1@H@Z ; CWnd::GetDlgItem
; File C:\Program Files (x86)\Microsoft Visual Studio\2019\Community\VC\Tools\MSVC\14.29.30133\atlmfc\include\afxwin2.inl

; 630  : 	{ ASSERT(::IsWindow(m_hWnd)); ::SendMessage(m_hWnd, BM_SETCHECK, nCheck, 0); }

  00a0c	6a 00		 push	 0
  00a0e	56		 push	 esi
  00a0f	68 f1 00 00 00	 push	 241			; 000000f1H
  00a14	ff 70 20	 push	 DWORD PTR [eax+32]
  00a17	ff 15 00 00 00
	00		 call	 DWORD PTR __imp__SendMessageA@16
; File D:\git\src\IBK\IBK_DRFN\ProjSrc\SrcChartEx\ChartAddIn\ChartEnvSetupDlgAddIn\ChartEnvSetupDlgAddIn\DlgMainTabBaseEnvSetUp.cpp

; 383  : 	m_bShowPriceMinMaxText = m_bOrgShowPriceMinMaxText = m_pIChartOCX->IsShowPriceMinMaxText();

  00a1d	8b 8b d8 09 00
	00		 mov	 ecx, DWORD PTR [ebx+2520]
  00a23	8b 01		 mov	 eax, DWORD PTR [ecx]
  00a25	ff 90 c0 00 00
	00		 call	 DWORD PTR [eax+192]

; 384  : 
; 385  : 	m_nMinMaxRatio = m_nOrgMinMaxRatio = m_pIChartOCX->GetPriceMinMaxShowType();

  00a2b	8b 8b d8 09 00
	00		 mov	 ecx, DWORD PTR [ebx+2520]
  00a31	89 83 54 09 00
	00		 mov	 DWORD PTR [ebx+2388], eax
  00a37	89 83 a8 03 00
	00		 mov	 DWORD PTR [ebx+936], eax
  00a3d	8b 01		 mov	 eax, DWORD PTR [ecx]
  00a3f	ff 90 34 02 00
	00		 call	 DWORD PTR [eax+564]

; 386  : 	GetDlgItem(IDC_RDO_CURPRICE)->EnableWindow(m_bShowPriceMinMaxText);

  00a45	ff b3 a8 03 00
	00		 push	 DWORD PTR [ebx+936]
  00a4b	8b cb		 mov	 ecx, ebx
  00a4d	89 83 6c 09 00
	00		 mov	 DWORD PTR [ebx+2412], eax
  00a53	68 6f 1f 00 00	 push	 8047			; 00001f6fH
  00a58	89 83 c0 03 00
	00		 mov	 DWORD PTR [ebx+960], eax
  00a5e	e8 00 00 00 00	 call	 ?GetDlgItem@CWnd@@QBEPAV1@H@Z ; CWnd::GetDlgItem
  00a63	8b c8		 mov	 ecx, eax
  00a65	e8 00 00 00 00	 call	 ?EnableWindow@CWnd@@QAEHH@Z ; CWnd::EnableWindow

; 387  : 	GetDlgItem(IDC_RDO_STANDPRICE)->EnableWindow(m_bShowPriceMinMaxText);

  00a6a	ff b3 a8 03 00
	00		 push	 DWORD PTR [ebx+936]
  00a70	8b cb		 mov	 ecx, ebx
  00a72	68 70 1f 00 00	 push	 8048			; 00001f70H
  00a77	e8 00 00 00 00	 call	 ?GetDlgItem@CWnd@@QBEPAV1@H@Z ; CWnd::GetDlgItem
  00a7c	8b c8		 mov	 ecx, eax
  00a7e	e8 00 00 00 00	 call	 ?EnableWindow@CWnd@@QAEHH@Z ; CWnd::EnableWindow

; 388  : 
; 389  : 	//    Scale   - ojtaso (20071101)
; 390  : 	m_bDrawBaseLine = m_bOrgDrawBaseLine = (BOOL)m_pIChartOCX->GetDrawBaseLine();

  00a83	8b 8b d8 09 00
	00		 mov	 ecx, DWORD PTR [ebx+2520]
  00a89	8b 01		 mov	 eax, DWORD PTR [ecx]
  00a8b	8b 80 d8 00 00
	00		 mov	 eax, DWORD PTR [eax+216]
  00a91	ff d0		 call	 eax

; 391  : 
; 392  : 	// 6.2.   0:/, 1:Window
; 393  : 	m_lOrgNumericalInquiryOption = m_pIChartOCX->GetNumericalInquiryOption();

  00a93	8b 8b d8 09 00
	00		 mov	 ecx, DWORD PTR [ebx+2520]
  00a99	0f b6 c0	 movzx	 eax, al
  00a9c	89 83 60 09 00
	00		 mov	 DWORD PTR [ebx+2400], eax
  00aa2	89 83 b8 03 00
	00		 mov	 DWORD PTR [ebx+952], eax
  00aa8	8b 01		 mov	 eax, DWORD PTR [ecx]
  00aaa	ff 50 74	 call	 DWORD PTR [eax+116]
  00aad	89 83 4c 09 00
	00		 mov	 DWORD PTR [ebx+2380], eax

; 394  : 	m_bInquieryDataWindow = ( m_lOrgNumericalInquiryOption & NUMERICALINQUIRYDLG);
; 395  : 	// (2009/9/3 - Seung-Won, Bae) Check the control not in common.
; 396  : 	if( GetDlgItem( IDC_INQUIRYDATA_WINDOW_MOVETYPE_MANUAL))

  00ab3	8b cb		 mov	 ecx, ebx
  00ab5	83 e0 01	 and	 eax, 1
  00ab8	68 8a 17 00 00	 push	 6026			; 0000178aH
  00abd	89 83 a0 03 00
	00		 mov	 DWORD PTR [ebx+928], eax
  00ac3	e8 00 00 00 00	 call	 ?GetDlgItem@CWnd@@QBEPAV1@H@Z ; CWnd::GetDlgItem
  00ac8	85 c0		 test	 eax, eax
  00aca	74 32		 je	 SHORT $LN22@OnInitDial

; 397  : 	{
; 398  : 		// ( 2006 / 11 / 07 - Sang-Woo, Cho ) -  - 0 
; 399  : 		GetDlgItem( IDC_INQUIRYDATA_WINDOW_MOVETYPE_MANUAL)->EnableWindow( m_bInquieryDataWindow);

  00acc	ff b3 a0 03 00
	00		 push	 DWORD PTR [ebx+928]
  00ad2	8b cb		 mov	 ecx, ebx
  00ad4	68 8a 17 00 00	 push	 6026			; 0000178aH
  00ad9	e8 00 00 00 00	 call	 ?GetDlgItem@CWnd@@QBEPAV1@H@Z ; CWnd::GetDlgItem
  00ade	8b c8		 mov	 ecx, eax
  00ae0	e8 00 00 00 00	 call	 ?EnableWindow@CWnd@@QAEHH@Z ; CWnd::EnableWindow

; 400  : 		GetDlgItem( IDC_INQUIRYDATA_WINDOW_MOVETYPE_MANUAL2)->EnableWindow( m_bInquieryDataWindow);

  00ae5	ff b3 a0 03 00
	00		 push	 DWORD PTR [ebx+928]
  00aeb	8b cb		 mov	 ecx, ebx
  00aed	68 8b 17 00 00	 push	 6027			; 0000178bH
  00af2	e8 00 00 00 00	 call	 ?GetDlgItem@CWnd@@QBEPAV1@H@Z ; CWnd::GetDlgItem
  00af7	8b c8		 mov	 ecx, eax
  00af9	e8 00 00 00 00	 call	 ?EnableWindow@CWnd@@QAEHH@Z ; CWnd::EnableWindow
$LN22@OnInitDial:

; 406  : 
; 407  : 	// 6.3   		0:, 1:
; 408  : 	m_bUseCrossLine = ( m_lOrgNumericalInquiryOption & CROSSLINEVIEW ? 1 : 0);

  00afe	8b 93 4c 09 00
	00		 mov	 edx, DWORD PTR [ebx+2380]
  00b04	8b c2		 mov	 eax, edx
  00b06	d1 e8		 shr	 eax, 1
  00b08	83 e0 01	 and	 eax, 1

; 409  : 
; 410  : 	// 6.4   		0:, 1:
; 411  : 	m_bUseTooptipShow = ( m_lOrgNumericalInquiryOption & TOOLTIPVIEW ? 1 : 0);
; 412  : 	m_bUseTooptipShowAll = ( m_lOrgNumericalInquiryOption & TOOLTIPVIEW_ALL ? 1 : 0);	//[A00000441]     
; 413  : 
; 414  : 	// 7.  
; 415  : 	m_nOrgCandleTypeOnResize = m_nCandleTypeOnResize;

  00b0b	8b 8b 80 03 00
	00		 mov	 ecx, DWORD PTR [ebx+896]
  00b11	89 83 98 03 00
	00		 mov	 DWORD PTR [ebx+920], eax
  00b17	8b c2		 mov	 eax, edx
  00b19	c1 e8 02	 shr	 eax, 2
  00b1c	83 e0 01	 and	 eax, 1

; 437  : 
; 438  : // vntsorl_20110609:[A00000259]     
; 439  : 	SetDlgItemEnable(IDC_SHOW_CURRENT_PRICE, m_bPriceChart);

  00b1f	8b bb 94 05 00
	00		 mov	 edi, DWORD PTR [ebx+1428]
  00b25	89 83 ac 03 00
	00		 mov	 DWORD PTR [ebx+940], eax
  00b2b	8b c2		 mov	 eax, edx
  00b2d	c1 e8 05	 shr	 eax, 5
  00b30	83 e0 01	 and	 eax, 1
  00b33	89 8b 34 09 00
	00		 mov	 DWORD PTR [ebx+2356], ecx
  00b39	89 83 b0 03 00
	00		 mov	 DWORD PTR [ebx+944], eax
  00b3f	8b 83 20 09 00
	00		 mov	 eax, DWORD PTR [ebx+2336]
  00b45	89 83 74 09 00
	00		 mov	 DWORD PTR [ebx+2420], eax
  00b4b	8b 83 24 09 00
	00		 mov	 eax, DWORD PTR [ebx+2340]
  00b51	89 83 78 09 00
	00		 mov	 DWORD PTR [ebx+2424], eax
  00b57	8b 83 28 09 00
	00		 mov	 eax, DWORD PTR [ebx+2344]
  00b5d	89 83 7c 09 00
	00		 mov	 DWORD PTR [ebx+2428], eax
  00b63	8b 83 2c 09 00
	00		 mov	 eax, DWORD PTR [ebx+2348]
  00b69	89 83 80 09 00
	00		 mov	 DWORD PTR [ebx+2432], eax
  00b6f	8b 83 5c 09 00
	00		 mov	 eax, DWORD PTR [ebx+2396]
  00b75	89 83 b0 09 00
	00		 mov	 DWORD PTR [ebx+2480], eax
  00b7b	8a 83 3c 09 00
	00		 mov	 al, BYTE PTR [ebx+2364]
  00b81	88 83 90 09 00
	00		 mov	 BYTE PTR [ebx+2448], al
  00b87	8a 83 3d 09 00
	00		 mov	 al, BYTE PTR [ebx+2365]
  00b8d	88 83 91 09 00
	00		 mov	 BYTE PTR [ebx+2449], al
  00b93	8a 83 3e 09 00
	00		 mov	 al, BYTE PTR [ebx+2366]
  00b99	88 83 92 09 00
	00		 mov	 BYTE PTR [ebx+2450], al
  00b9f	8b 83 58 09 00
	00		 mov	 eax, DWORD PTR [ebx+2392]
  00ba5	89 83 ac 09 00
	00		 mov	 DWORD PTR [ebx+2476], eax
  00bab	8a 83 3f 09 00
	00		 mov	 al, BYTE PTR [ebx+2367]
  00bb1	88 83 93 09 00
	00		 mov	 BYTE PTR [ebx+2451], al
  00bb7	8b 83 44 09 00
	00		 mov	 eax, DWORD PTR [ebx+2372]
  00bbd	89 83 98 09 00
	00		 mov	 DWORD PTR [ebx+2456], eax
  00bc3	8b 83 48 09 00
	00		 mov	 eax, DWORD PTR [ebx+2376]
  00bc9	89 83 9c 09 00
	00		 mov	 DWORD PTR [ebx+2460], eax
  00bcf	8b 83 b8 03 00
	00		 mov	 eax, DWORD PTR [ebx+952]
  00bd5	89 83 b4 09 00
	00		 mov	 DWORD PTR [ebx+2484], eax
  00bdb	8b 83 00 0a 00
	00		 mov	 eax, DWORD PTR [ebx+2560]
  00be1	89 8b 88 09 00
	00		 mov	 DWORD PTR [ebx+2440], ecx
; File D:\git\src\IBK\IBK_DRFN\ProjSrc\SrcChartEx\ChartAddIn\ChartEnvSetupDlgAddIn\ChartEnvSetupDlgAddIn\DlgMainTabBaseEnvSetUp.h

; 254  : 		CWnd *pWnd = GetDlgItem(nId);

  00be7	8b cb		 mov	 ecx, ebx
; File D:\git\src\IBK\IBK_DRFN\ProjSrc\SrcChartEx\ChartAddIn\ChartEnvSetupDlgAddIn\ChartEnvSetupDlgAddIn\DlgMainTabBaseEnvSetUp.cpp

; 435  : 	m_nApplyUpDownSpace = m_nUpDownSpace;								// (2007/7/18 - Seung-Won, Bae) Up/Down Space.

  00be9	89 83 08 0a 00
	00		 mov	 DWORD PTR [ebx+2568], eax

; 436  : 	m_nApplyMouseWheelIndex = m_nOrgMouseWheelIndex;

  00bef	8b 83 30 09 00
	00		 mov	 eax, DWORD PTR [ebx+2352]
; File D:\git\src\IBK\IBK_DRFN\ProjSrc\SrcChartEx\ChartAddIn\ChartEnvSetupDlgAddIn\ChartEnvSetupDlgAddIn\DlgMainTabBaseEnvSetUp.h

; 254  : 		CWnd *pWnd = GetDlgItem(nId);

  00bf5	68 f0 07 00 00	 push	 2032			; 000007f0H
; File D:\git\src\IBK\IBK_DRFN\ProjSrc\SrcChartEx\ChartAddIn\ChartEnvSetupDlgAddIn\ChartEnvSetupDlgAddIn\DlgMainTabBaseEnvSetUp.cpp

; 405  : 	m_nInquiryDlgManualMove = 0;

  00bfa	c7 83 c4 03 00
	00 00 00 00 00	 mov	 DWORD PTR [ebx+964], 0

; 416  : 
; 417  : 	// 9.    .
; 418  : 	m_nApplyCandleType = m_nOrgCandleType;
; 419  : 	m_bApplyUseGapRevision = m_bOrgUseGapRevision;						// 2008.10.15 by LYH >> 
; 420  : 	m_nApplyRightMargin = m_nOrgRightMargin;
; 421  : 	m_nApplyFutureTime = m_nOrgFutureTime;			// (2009/5/17 - Seung-Won, Bae) for Future Time
; 422  : 	m_nApplyMouseWheelIndex = m_nOrgMouseWheelIndex;
; 423  : 	m_bApplyFixInterval = m_bOrgFixInterval;
; 424  : 	m_nApplyCandleTypeOnResize = m_nOrgCandleTypeOnResize;
; 425  : 	m_bApplyShowIndicatorVariable = m_bOrgShowIndicatorVariable;		//  -  
; 426  : 	m_bApplyShowIndicatorValue = m_bOrgShowIndicatorValue;				//  -  
; 427  : 	m_lApplyNumericalInquiryOption = m_lOrgNumericalInquiryOption;

  00c04	89 93 a0 09 00
	00		 mov	 DWORD PTR [ebx+2464], edx

; 436  : 	m_nApplyMouseWheelIndex = m_nOrgMouseWheelIndex;

  00c0a	89 83 84 09 00
	00		 mov	 DWORD PTR [ebx+2436], eax
; File D:\git\src\IBK\IBK_DRFN\ProjSrc\SrcChartEx\ChartAddIn\ChartEnvSetupDlgAddIn\ChartEnvSetupDlgAddIn\DlgMainTabBaseEnvSetUp.h

; 254  : 		CWnd *pWnd = GetDlgItem(nId);

  00c10	e8 00 00 00 00	 call	 ?GetDlgItem@CWnd@@QBEPAV1@H@Z ; CWnd::GetDlgItem
  00c15	8b f0		 mov	 esi, eax

; 255  : 
; 256  : 		//    .
; 257  : 		if( !pWnd ) return;

  00c17	85 f6		 test	 esi, esi
  00c19	74 13		 je	 SHORT $LN132@OnInitDial

; 258  : 
; 259  : 		//     .
; 260  : 		if( !pWnd->IsWindowEnabled() ) return;

  00c1b	8b ce		 mov	 ecx, esi
  00c1d	e8 00 00 00 00	 call	 ?IsWindowEnabled@CWnd@@QBEHXZ ; CWnd::IsWindowEnabled
  00c22	85 c0		 test	 eax, eax
  00c24	74 08		 je	 SHORT $LN132@OnInitDial

; 261  : 
; 262  : 		//  .
; 263  : 		pWnd->EnableWindow(bEnable);

  00c26	57		 push	 edi
  00c27	8b ce		 mov	 ecx, esi
  00c29	e8 00 00 00 00	 call	 ?EnableWindow@CWnd@@QAEHH@Z ; CWnd::EnableWindow
$LN132@OnInitDial:
; File D:\git\src\IBK\IBK_DRFN\ProjSrc\SrcChartEx\ChartAddIn\ChartEnvSetupDlgAddIn\ChartEnvSetupDlgAddIn\DlgMainTabBaseEnvSetUp.cpp

; 440  : 	SetDlgItemEnable(IDC_CUR_PRICE_TYPE_COMBO, m_bPriceChart);

  00c2e	8b bb 94 05 00
	00		 mov	 edi, DWORD PTR [ebx+1428]
; File D:\git\src\IBK\IBK_DRFN\ProjSrc\SrcChartEx\ChartAddIn\ChartEnvSetupDlgAddIn\ChartEnvSetupDlgAddIn\DlgMainTabBaseEnvSetUp.h

; 254  : 		CWnd *pWnd = GetDlgItem(nId);

  00c34	8b cb		 mov	 ecx, ebx
  00c36	68 6b 1f 00 00	 push	 8043			; 00001f6bH
  00c3b	e8 00 00 00 00	 call	 ?GetDlgItem@CWnd@@QBEPAV1@H@Z ; CWnd::GetDlgItem
  00c40	8b f0		 mov	 esi, eax

; 255  : 
; 256  : 		//    .
; 257  : 		if( !pWnd ) return;

  00c42	85 f6		 test	 esi, esi
  00c44	74 13		 je	 SHORT $LN136@OnInitDial

; 258  : 
; 259  : 		//     .
; 260  : 		if( !pWnd->IsWindowEnabled() ) return;

  00c46	8b ce		 mov	 ecx, esi
  00c48	e8 00 00 00 00	 call	 ?IsWindowEnabled@CWnd@@QBEHXZ ; CWnd::IsWindowEnabled
  00c4d	85 c0		 test	 eax, eax
  00c4f	74 08		 je	 SHORT $LN136@OnInitDial

; 261  : 
; 262  : 		//  .
; 263  : 		pWnd->EnableWindow(bEnable);

  00c51	57		 push	 edi
  00c52	8b ce		 mov	 ecx, esi
  00c54	e8 00 00 00 00	 call	 ?EnableWindow@CWnd@@QAEHH@Z ; CWnd::EnableWindow
$LN136@OnInitDial:
; File D:\git\src\IBK\IBK_DRFN\ProjSrc\SrcChartEx\ChartAddIn\ChartEnvSetupDlgAddIn\ChartEnvSetupDlgAddIn\DlgMainTabBaseEnvSetUp.cpp

; 441  : 	SetDlgItemEnable(IDC_CUR_PRICE_TYPE_PREDAY, m_bPriceChart);

  00c59	8b bb 94 05 00
	00		 mov	 edi, DWORD PTR [ebx+1428]
; File D:\git\src\IBK\IBK_DRFN\ProjSrc\SrcChartEx\ChartAddIn\ChartEnvSetupDlgAddIn\ChartEnvSetupDlgAddIn\DlgMainTabBaseEnvSetUp.h

; 254  : 		CWnd *pWnd = GetDlgItem(nId);

  00c5f	8b cb		 mov	 ecx, ebx
  00c61	68 6c 1f 00 00	 push	 8044			; 00001f6cH
  00c66	e8 00 00 00 00	 call	 ?GetDlgItem@CWnd@@QBEPAV1@H@Z ; CWnd::GetDlgItem
  00c6b	8b f0		 mov	 esi, eax

; 255  : 
; 256  : 		//    .
; 257  : 		if( !pWnd ) return;

  00c6d	85 f6		 test	 esi, esi
  00c6f	74 13		 je	 SHORT $LN140@OnInitDial

; 258  : 
; 259  : 		//     .
; 260  : 		if( !pWnd->IsWindowEnabled() ) return;

  00c71	8b ce		 mov	 ecx, esi
  00c73	e8 00 00 00 00	 call	 ?IsWindowEnabled@CWnd@@QBEHXZ ; CWnd::IsWindowEnabled
  00c78	85 c0		 test	 eax, eax
  00c7a	74 08		 je	 SHORT $LN140@OnInitDial

; 261  : 
; 262  : 		//  .
; 263  : 		pWnd->EnableWindow(bEnable);

  00c7c	57		 push	 edi
  00c7d	8b ce		 mov	 ecx, esi
  00c7f	e8 00 00 00 00	 call	 ?EnableWindow@CWnd@@QAEHH@Z ; CWnd::EnableWindow
$LN140@OnInitDial:
; File D:\git\src\IBK\IBK_DRFN\ProjSrc\SrcChartEx\ChartAddIn\ChartEnvSetupDlgAddIn\ChartEnvSetupDlgAddIn\DlgMainTabBaseEnvSetUp.cpp

; 442  : 	SetDlgItemEnable(IDC_CUR_PRICE_TYPE_PREBONG, m_bPriceChart);

  00c84	8b bb 94 05 00
	00		 mov	 edi, DWORD PTR [ebx+1428]
; File D:\git\src\IBK\IBK_DRFN\ProjSrc\SrcChartEx\ChartAddIn\ChartEnvSetupDlgAddIn\ChartEnvSetupDlgAddIn\DlgMainTabBaseEnvSetUp.h

; 254  : 		CWnd *pWnd = GetDlgItem(nId);

  00c8a	8b cb		 mov	 ecx, ebx
  00c8c	68 6d 1f 00 00	 push	 8045			; 00001f6dH
  00c91	e8 00 00 00 00	 call	 ?GetDlgItem@CWnd@@QBEPAV1@H@Z ; CWnd::GetDlgItem
  00c96	8b f0		 mov	 esi, eax

; 255  : 
; 256  : 		//    .
; 257  : 		if( !pWnd ) return;

  00c98	85 f6		 test	 esi, esi
  00c9a	74 13		 je	 SHORT $LN144@OnInitDial

; 258  : 
; 259  : 		//     .
; 260  : 		if( !pWnd->IsWindowEnabled() ) return;

  00c9c	8b ce		 mov	 ecx, esi
  00c9e	e8 00 00 00 00	 call	 ?IsWindowEnabled@CWnd@@QBEHXZ ; CWnd::IsWindowEnabled
  00ca3	85 c0		 test	 eax, eax
  00ca5	74 08		 je	 SHORT $LN144@OnInitDial

; 261  : 
; 262  : 		//  .
; 263  : 		pWnd->EnableWindow(bEnable);

  00ca7	57		 push	 edi
  00ca8	8b ce		 mov	 ecx, esi
  00caa	e8 00 00 00 00	 call	 ?EnableWindow@CWnd@@QAEHH@Z ; CWnd::EnableWindow
$LN144@OnInitDial:
; File D:\git\src\IBK\IBK_DRFN\ProjSrc\SrcChartEx\ChartAddIn\ChartEnvSetupDlgAddIn\ChartEnvSetupDlgAddIn\DlgMainTabBaseEnvSetUp.cpp

; 443  : 	SetDlgItemEnable(IDC_SHOW_LOWHIGH_MARKER, m_bPriceChart);

  00caf	8b bb 94 05 00
	00		 mov	 edi, DWORD PTR [ebx+1428]
; File D:\git\src\IBK\IBK_DRFN\ProjSrc\SrcChartEx\ChartAddIn\ChartEnvSetupDlgAddIn\ChartEnvSetupDlgAddIn\DlgMainTabBaseEnvSetUp.h

; 254  : 		CWnd *pWnd = GetDlgItem(nId);

  00cb5	8b cb		 mov	 ecx, ebx
  00cb7	68 ff 03 00 00	 push	 1023			; 000003ffH
  00cbc	e8 00 00 00 00	 call	 ?GetDlgItem@CWnd@@QBEPAV1@H@Z ; CWnd::GetDlgItem
  00cc1	8b f0		 mov	 esi, eax

; 255  : 
; 256  : 		//    .
; 257  : 		if( !pWnd ) return;

  00cc3	85 f6		 test	 esi, esi
  00cc5	74 13		 je	 SHORT $LN148@OnInitDial

; 258  : 
; 259  : 		//     .
; 260  : 		if( !pWnd->IsWindowEnabled() ) return;

  00cc7	8b ce		 mov	 ecx, esi
  00cc9	e8 00 00 00 00	 call	 ?IsWindowEnabled@CWnd@@QBEHXZ ; CWnd::IsWindowEnabled
  00cce	85 c0		 test	 eax, eax
  00cd0	74 08		 je	 SHORT $LN148@OnInitDial

; 261  : 
; 262  : 		//  .
; 263  : 		pWnd->EnableWindow(bEnable);

  00cd2	57		 push	 edi
  00cd3	8b ce		 mov	 ecx, esi
  00cd5	e8 00 00 00 00	 call	 ?EnableWindow@CWnd@@QAEHH@Z ; CWnd::EnableWindow
$LN148@OnInitDial:
; File D:\git\src\IBK\IBK_DRFN\ProjSrc\SrcChartEx\ChartAddIn\ChartEnvSetupDlgAddIn\ChartEnvSetupDlgAddIn\DlgMainTabBaseEnvSetUp.cpp

; 445  : 	m_bApplyShowAllTitle = m_bOrgShowAllTitle;

  00cda	8b 83 50 09 00
	00		 mov	 eax, DWORD PTR [ebx+2384]

; 446  : 	m_bApplyShowPriceMinMaxText = m_bOrgShowPriceMinMaxText;
; 447  : 	m_nApplyMinMaxRatio = m_nOrgMinMaxRatio;
; 448  : 	
; 449  : 
; 450  : 	BOOL bCheck = FALSE;
; 451  : 	bCheck=m_pIChartOCX->GetFirstBlockHScaleType_TimeGubun( CScaleBaseData::MINTICK_DAY_GUBUN );

  00ce0	8b 8b d8 09 00
	00		 mov	 ecx, DWORD PTR [ebx+2520]
  00ce6	89 83 a4 09 00
	00		 mov	 DWORD PTR [ebx+2468], eax
  00cec	8b 83 54 09 00
	00		 mov	 eax, DWORD PTR [ebx+2388]
  00cf2	89 83 a8 09 00
	00		 mov	 DWORD PTR [ebx+2472], eax
  00cf8	8b 83 6c 09 00
	00		 mov	 eax, DWORD PTR [ebx+2412]
  00cfe	89 83 c0 09 00
	00		 mov	 DWORD PTR [ebx+2496], eax
  00d04	8b 01		 mov	 eax, DWORD PTR [ecx]
  00d06	6a 00		 push	 0
  00d08	ff 90 40 02 00
	00		 call	 DWORD PTR [eax+576]
; File C:\Program Files (x86)\Microsoft Visual Studio\2019\Community\VC\Tools\MSVC\14.29.30133\atlmfc\include\afxwin2.inl

; 630  : 	{ ASSERT(::IsWindow(m_hWnd)); ::SendMessage(m_hWnd, BM_SETCHECK, nCheck, 0); }

  00d0e	8b 35 00 00 00
	00		 mov	 esi, DWORD PTR __imp__SendMessageA@16
  00d14	6a 00		 push	 0
  00d16	50		 push	 eax
  00d17	68 f1 00 00 00	 push	 241			; 000000f1H
  00d1c	ff b3 c0 05 00
	00		 push	 DWORD PTR [ebx+1472]
  00d22	ff d6		 call	 esi
; File D:\git\src\IBK\IBK_DRFN\ProjSrc\SrcChartEx\ChartAddIn\ChartEnvSetupDlgAddIn\ChartEnvSetupDlgAddIn\DlgMainTabBaseEnvSetUp.cpp

; 453  : 	bCheck=m_pIChartOCX->GetFirstBlockHScaleType_TimeGubun( CScaleBaseData::DAYCHART_WEEK_GUBUN );

  00d24	8b 8b d8 09 00
	00		 mov	 ecx, DWORD PTR [ebx+2520]
  00d2a	6a 01		 push	 1
  00d2c	8b 01		 mov	 eax, DWORD PTR [ecx]
  00d2e	ff 90 40 02 00
	00		 call	 DWORD PTR [eax+576]
; File C:\Program Files (x86)\Microsoft Visual Studio\2019\Community\VC\Tools\MSVC\14.29.30133\atlmfc\include\afxwin2.inl

; 630  : 	{ ASSERT(::IsWindow(m_hWnd)); ::SendMessage(m_hWnd, BM_SETCHECK, nCheck, 0); }

  00d34	6a 00		 push	 0
  00d36	50		 push	 eax
  00d37	68 f1 00 00 00	 push	 241			; 000000f1H
  00d3c	ff b3 40 06 00
	00		 push	 DWORD PTR [ebx+1600]
  00d42	ff d6		 call	 esi
; File D:\git\src\IBK\IBK_DRFN\ProjSrc\SrcChartEx\ChartAddIn\ChartEnvSetupDlgAddIn\ChartEnvSetupDlgAddIn\DlgMainTabBaseEnvSetUp.cpp

; 455  : 	bCheck=m_pIChartOCX->GetFirstBlockHScaleType_TimeGubun( CScaleBaseData::DAYCHART_MON_GUBUN );

  00d44	8b 8b d8 09 00
	00		 mov	 ecx, DWORD PTR [ebx+2520]
  00d4a	6a 02		 push	 2
  00d4c	8b 01		 mov	 eax, DWORD PTR [ecx]
  00d4e	ff 90 40 02 00
	00		 call	 DWORD PTR [eax+576]
; File C:\Program Files (x86)\Microsoft Visual Studio\2019\Community\VC\Tools\MSVC\14.29.30133\atlmfc\include\afxwin2.inl

; 630  : 	{ ASSERT(::IsWindow(m_hWnd)); ::SendMessage(m_hWnd, BM_SETCHECK, nCheck, 0); }

  00d54	6a 00		 push	 0
  00d56	50		 push	 eax
  00d57	68 f1 00 00 00	 push	 241			; 000000f1H
  00d5c	ff b3 c0 06 00
	00		 push	 DWORD PTR [ebx+1728]
  00d62	ff d6		 call	 esi
; File D:\git\src\IBK\IBK_DRFN\ProjSrc\SrcChartEx\ChartAddIn\ChartEnvSetupDlgAddIn\ChartEnvSetupDlgAddIn\DlgMainTabBaseEnvSetUp.cpp

; 457  : 	bCheck=m_pIChartOCX->GetFirstBlockHScaleType_TimeGubun( CScaleBaseData::DAYCHART_YEAR_GUBUN );

  00d64	8b 8b d8 09 00
	00		 mov	 ecx, DWORD PTR [ebx+2520]
  00d6a	6a 03		 push	 3
  00d6c	8b 01		 mov	 eax, DWORD PTR [ecx]
  00d6e	ff 90 40 02 00
	00		 call	 DWORD PTR [eax+576]
; File C:\Program Files (x86)\Microsoft Visual Studio\2019\Community\VC\Tools\MSVC\14.29.30133\atlmfc\include\afxwin2.inl

; 630  : 	{ ASSERT(::IsWindow(m_hWnd)); ::SendMessage(m_hWnd, BM_SETCHECK, nCheck, 0); }

  00d74	6a 00		 push	 0
  00d76	50		 push	 eax
  00d77	68 f1 00 00 00	 push	 241			; 000000f1H
  00d7c	ff b3 40 07 00
	00		 push	 DWORD PTR [ebx+1856]
  00d82	ff d6		 call	 esi
; File D:\git\src\IBK\IBK_DRFN\ProjSrc\SrcChartEx\ChartAddIn\ChartEnvSetupDlgAddIn\ChartEnvSetupDlgAddIn\DlgMainTabBaseEnvSetUp.cpp

; 459  : 	bCheck=m_pIChartOCX->GetFirstBlockHScaleType_TimeGubun( CScaleBaseData::WEEKCHART_MON_GUBUN );

  00d84	8b 8b d8 09 00
	00		 mov	 ecx, DWORD PTR [ebx+2520]
  00d8a	6a 04		 push	 4
  00d8c	8b 01		 mov	 eax, DWORD PTR [ecx]
  00d8e	ff 90 40 02 00
	00		 call	 DWORD PTR [eax+576]
; File C:\Program Files (x86)\Microsoft Visual Studio\2019\Community\VC\Tools\MSVC\14.29.30133\atlmfc\include\afxwin2.inl

; 630  : 	{ ASSERT(::IsWindow(m_hWnd)); ::SendMessage(m_hWnd, BM_SETCHECK, nCheck, 0); }

  00d94	6a 00		 push	 0
  00d96	50		 push	 eax
  00d97	68 f1 00 00 00	 push	 241			; 000000f1H
  00d9c	ff b3 c0 07 00
	00		 push	 DWORD PTR [ebx+1984]
  00da2	ff d6		 call	 esi
; File D:\git\src\IBK\IBK_DRFN\ProjSrc\SrcChartEx\ChartAddIn\ChartEnvSetupDlgAddIn\ChartEnvSetupDlgAddIn\DlgMainTabBaseEnvSetUp.cpp

; 461  : 	bCheck=m_pIChartOCX->GetFirstBlockHScaleType_TimeGubun( CScaleBaseData::WEEKCHART_YEAR_GUBUN );

  00da4	8b 8b d8 09 00
	00		 mov	 ecx, DWORD PTR [ebx+2520]
  00daa	6a 05		 push	 5
  00dac	8b 01		 mov	 eax, DWORD PTR [ecx]
  00dae	ff 90 40 02 00
	00		 call	 DWORD PTR [eax+576]
; File C:\Program Files (x86)\Microsoft Visual Studio\2019\Community\VC\Tools\MSVC\14.29.30133\atlmfc\include\afxwin2.inl

; 630  : 	{ ASSERT(::IsWindow(m_hWnd)); ::SendMessage(m_hWnd, BM_SETCHECK, nCheck, 0); }

  00db4	6a 00		 push	 0
  00db6	50		 push	 eax
  00db7	68 f1 00 00 00	 push	 241			; 000000f1H
  00dbc	ff b3 40 08 00
	00		 push	 DWORD PTR [ebx+2112]
  00dc2	ff d6		 call	 esi
; File D:\git\src\IBK\IBK_DRFN\ProjSrc\SrcChartEx\ChartAddIn\ChartEnvSetupDlgAddIn\ChartEnvSetupDlgAddIn\DlgMainTabBaseEnvSetUp.cpp

; 463  : 	bCheck=m_pIChartOCX->GetFirstBlockHScaleType_TimeGubun( CScaleBaseData::MONCHART_YEAR_GUBUN );

  00dc4	8b 8b d8 09 00
	00		 mov	 ecx, DWORD PTR [ebx+2520]
  00dca	6a 06		 push	 6
  00dcc	8b 01		 mov	 eax, DWORD PTR [ecx]
  00dce	ff 90 40 02 00
	00		 call	 DWORD PTR [eax+576]
; File C:\Program Files (x86)\Microsoft Visual Studio\2019\Community\VC\Tools\MSVC\14.29.30133\atlmfc\include\afxwin2.inl

; 630  : 	{ ASSERT(::IsWindow(m_hWnd)); ::SendMessage(m_hWnd, BM_SETCHECK, nCheck, 0); }

  00dd4	6a 00		 push	 0
  00dd6	50		 push	 eax
  00dd7	68 f1 00 00 00	 push	 241			; 000000f1H
  00ddc	ff b3 c0 08 00
	00		 push	 DWORD PTR [ebx+2240]
  00de2	ff d6		 call	 esi
; File D:\git\src\IBK\IBK_DRFN\ProjSrc\SrcChartEx\ChartAddIn\ChartEnvSetupDlgAddIn\ChartEnvSetupDlgAddIn\DlgMainTabBaseEnvSetUp.cpp

; 467  : 	UpdateData( FALSE );

  00de4	6a 00		 push	 0
  00de6	8b cb		 mov	 ecx, ebx
  00de8	e8 00 00 00 00	 call	 ?UpdateData@CWnd@@QAEHH@Z ; CWnd::UpdateData
; File C:\Program Files (x86)\Microsoft Visual Studio\2019\Community\VC\Tools\MSVC\14.29.30133\atlmfc\include\afxwin2.inl

; 114  : 	{ ASSERT(::IsWindow(m_hWnd)); ::InvalidateRect(m_hWnd, NULL, bErase); }

  00ded	6a 01		 push	 1
  00def	6a 00		 push	 0
  00df1	ff 73 20	 push	 DWORD PTR [ebx+32]
  00df4	ff 15 00 00 00
	00		 call	 DWORD PTR __imp__InvalidateRect@12
; File D:\git\src\IBK\IBK_DRFN\ProjSrc\SrcChartEx\ChartAddIn\ChartEnvSetupDlgAddIn\ChartEnvSetupDlgAddIn\DlgMainTabBaseEnvSetUp.cpp

; 470  : 	if( pIChartManager) pIChartManager->Release();

  00dfa	8b 4d bc	 mov	 ecx, DWORD PTR _pIChartManager$1$[ebp]
  00dfd	51		 push	 ecx
  00dfe	8b 01		 mov	 eax, DWORD PTR [ecx]
  00e00	ff 50 08	 call	 DWORD PTR [eax+8]

; 471  : // vntsorl_20110609:[A00000259]     
; 472  : 	if( pIPacketManager ) pIPacketManager->Release();

  00e03	8b 4d 9c	 mov	 ecx, DWORD PTR _pIPacketManager$1$[ebp]
  00e06	51		 push	 ecx
  00e07	8b 01		 mov	 eax, DWORD PTR [ecx]
  00e09	ff 50 08	 call	 DWORD PTR [eax+8]
; File D:\git\src\IBK\IBK_DRFN\ProjSrc\SrcChartEx\ChartAddIn\ChartEnvSetupDlgAddIn\Include_AddIn_135914\I135914\_IString.h

; 45   : 		if( m_pIStrData)

  00e0c	8b 4d d8	 mov	 ecx, DWORD PTR _szGraphName$[ebp+4]
  00e0f	c7 45 fc 03 00
	00 00		 mov	 DWORD PTR __$EHRec$[ebp+8], 3
  00e16	85 c9		 test	 ecx, ecx
  00e18	74 06		 je	 SHORT $LN169@OnInitDial

; 46   : 		{
; 47   : 			m_pIStrData->Release();

  00e1a	8b 01		 mov	 eax, DWORD PTR [ecx]
  00e1c	51		 push	 ecx
  00e1d	ff 50 08	 call	 DWORD PTR [eax+8]
$LN169@OnInitDial:
; File D:\git\src\IBK\IBK_DRFN\ProjSrc\SrcChartEx\ChartAddIn\ChartEnvSetupDlgAddIn\ChartEnvSetupDlgAddIn\DlgMainTabBaseEnvSetUp.cpp

; 474  : 	return TRUE;  // return TRUE unless you set the focus to a control

  00e20	b8 01 00 00 00	 mov	 eax, 1

; 475  : 	              // EXCEPTION: OCX Property Pages should return FALSE
; 476  : }

  00e25	8b 4d f4	 mov	 ecx, DWORD PTR __$EHRec$[ebp]
  00e28	64 89 0d 00 00
	00 00		 mov	 DWORD PTR fs:0, ecx
  00e2f	59		 pop	 ecx
  00e30	5f		 pop	 edi
  00e31	5e		 pop	 esi
  00e32	5b		 pop	 ebx
  00e33	8b e5		 mov	 esp, ebp
  00e35	5d		 pop	 ebp
  00e36	c3		 ret	 0
  00e37	90		 npad	 1
$LN177@OnInitDial:
  00e38	00 00 00 00	 DD	 $LN10@OnInitDial
  00e3c	00 00 00 00	 DD	 $LN11@OnInitDial
  00e40	00 00 00 00	 DD	 $LN12@OnInitDial
  00e44	00 00 00 00	 DD	 $LN13@OnInitDial
_TEXT	ENDS
;	COMDAT text$x
text$x	SEGMENT
__unwindfunclet$?OnInitDialog@CDlgMainTabBaseEnvSetUp@@MAEHXZ$0:
  00000	8d 4d d4	 lea	 ecx, DWORD PTR _szGraphName$[ebp]
  00003	e9 00 00 00 00	 jmp	 ??1ILPCSTR135914@@QAE@XZ ; ILPCSTR135914::~ILPCSTR135914
__unwindfunclet$?OnInitDialog@CDlgMainTabBaseEnvSetUp@@MAEHXZ$1:
  00008	8d 4d c0	 lea	 ecx, DWORD PTR _szGraphName$11[ebp]
  0000b	e9 00 00 00 00	 jmp	 ??1ILPCSTR135914@@QAE@XZ ; ILPCSTR135914::~ILPCSTR135914
  00010	cc		 int	 3
  00011	cc		 int	 3
  00012	cc		 int	 3
  00013	cc		 int	 3
  00014	cc		 int	 3
__ehhandler$?OnInitDialog@CDlgMainTabBaseEnvSetUp@@MAEHXZ:
  00015	90		 npad	 1
  00016	90		 npad	 1
  00017	8b 54 24 08	 mov	 edx, DWORD PTR [esp+8]
  0001b	8d 42 0c	 lea	 eax, DWORD PTR [edx+12]
  0001e	8b 4a 90	 mov	 ecx, DWORD PTR [edx-112]
  00021	33 c8		 xor	 ecx, eax
  00023	e8 00 00 00 00	 call	 @__security_check_cookie@4
  00028	b8 00 00 00 00	 mov	 eax, OFFSET __ehfuncinfo$?OnInitDialog@CDlgMainTabBaseEnvSetUp@@MAEHXZ
  0002d	e9 00 00 00 00	 jmp	 ___CxxFrameHandler3
text$x	ENDS
?OnInitDialog@CDlgMainTabBaseEnvSetUp@@MAEHXZ ENDP	; CDlgMainTabBaseEnvSetUp::OnInitDialog
; Function compile flags: /Ogtp
; File D:\git\src\IBK\IBK_DRFN\ProjSrc\SrcChartEx\ChartAddIn\ChartEnvSetupDlgAddIn\ChartEnvSetupDlgAddIn\DlgMainTabBaseEnvSetUp.cpp
; File C:\Program Files (x86)\Microsoft Visual Studio\2019\Community\VC\Tools\MSVC\14.29.30133\atlmfc\include\afxwin2.inl
; File D:\git\src\IBK\IBK_DRFN\ProjSrc\SrcChartEx\ChartAddIn\ChartEnvSetupDlgAddIn\ChartEnvSetupDlgAddIn\DlgMainTabBaseEnvSetUp.cpp
;	COMDAT ?GetCurrentPrice@CDlgMainTabBaseEnvSetUp@@ABEHXZ
_TEXT	SEGMENT
?GetCurrentPrice@CDlgMainTabBaseEnvSetUp@@ABEHXZ PROC	; CDlgMainTabBaseEnvSetUp::GetCurrentPrice, COMDAT
; _this$ = ecx

; 1699 : {

  00000	56		 push	 esi
  00001	8b f1		 mov	 esi, ecx

; 1700 : 	if(!m_bShowCurrentPrice)

  00003	83 be 84 03 00
	00 00		 cmp	 DWORD PTR [esi+900], 0
  0000a	75 04		 jne	 SHORT $LN6@GetCurrent

; 1701 : 		return 0;

  0000c	33 c0		 xor	 eax, eax
  0000e	5e		 pop	 esi

; 1734 : }

  0000f	c3		 ret	 0
$LN6@GetCurrent:
; File C:\Program Files (x86)\Microsoft Visual Studio\2019\Community\VC\Tools\MSVC\14.29.30133\atlmfc\include\afxwin2.inl

; 765  : 	{ ASSERT(::IsWindow(m_hWnd)); return (int)::SendMessage(m_hWnd, CB_GETCURSEL, 0, 0); }

  00010	6a 00		 push	 0
  00012	6a 00		 push	 0
  00014	68 47 01 00 00	 push	 327			; 00000147H
  00019	ff b6 30 05 00
	00		 push	 DWORD PTR [esi+1328]
  0001f	ff 15 00 00 00
	00		 call	 DWORD PTR __imp__SendMessageA@16
; File D:\git\src\IBK\IBK_DRFN\ProjSrc\SrcChartEx\ChartAddIn\ChartEnvSetupDlgAddIn\ChartEnvSetupDlgAddIn\DlgMainTabBaseEnvSetUp.cpp

; 1710 : 	if( m_nPriceBongType==0 ){

  00025	83 be 90 05 00
	00 00		 cmp	 DWORD PTR [esi+1424], 0
  0002c	75 2c		 jne	 SHORT $LN7@GetCurrent

; 1711 : 	// 
; 1712 : 		switch(cur){

  0002e	83 f8 04	 cmp	 eax, 4
  00031	77 5b		 ja	 SHORT $LN20@GetCurrent
  00033	ff 24 85 00 00
	00 00		 jmp	 DWORD PTR $LN24@GetCurrent[eax*4]
$LN9@GetCurrent:

; 1713 : 		case 0: rslt = 4; break;

  0003a	b8 04 00 00 00	 mov	 eax, 4

; 1729 : 		default: rslt = 0; break;
; 1730 : 		}
; 1731 : 	}
; 1732 : 
; 1733 : 	return rslt+1;

  0003f	40		 inc	 eax
  00040	5e		 pop	 esi

; 1734 : }

  00041	c3		 ret	 0
$LN10@GetCurrent:

; 1714 : 		case 1: rslt = 8; break;	// (2011/2/9 - Seung-Won, Bae) for the difference only.

  00042	b8 08 00 00 00	 mov	 eax, 8

; 1729 : 		default: rslt = 0; break;
; 1730 : 		}
; 1731 : 	}
; 1732 : 
; 1733 : 	return rslt+1;

  00047	40		 inc	 eax
  00048	5e		 pop	 esi

; 1734 : }

  00049	c3		 ret	 0
$LN12@GetCurrent:

; 1715 : 		case 2: rslt = 0; break;
; 1716 : 		case 3: rslt = 2; break;

  0004a	b8 02 00 00 00	 mov	 eax, 2

; 1729 : 		default: rslt = 0; break;
; 1730 : 		}
; 1731 : 	}
; 1732 : 
; 1733 : 	return rslt+1;

  0004f	40		 inc	 eax
  00050	5e		 pop	 esi

; 1734 : }

  00051	c3		 ret	 0
$LN13@GetCurrent:

; 1717 : 		case 4: rslt = 6; break;

  00052	b8 06 00 00 00	 mov	 eax, 6

; 1729 : 		default: rslt = 0; break;
; 1730 : 		}
; 1731 : 	}
; 1732 : 
; 1733 : 	return rslt+1;

  00057	40		 inc	 eax
  00058	5e		 pop	 esi

; 1734 : }

  00059	c3		 ret	 0
$LN7@GetCurrent:

; 1718 : 		default: rslt = 0; break;
; 1719 : 		}
; 1720 : 	}
; 1721 : 	else {
; 1722 : 	// 
; 1723 : 		switch(cur){

  0005a	83 f8 04	 cmp	 eax, 4
  0005d	77 2f		 ja	 SHORT $LN20@GetCurrent
  0005f	ff 24 85 00 00
	00 00		 jmp	 DWORD PTR $LN25@GetCurrent[eax*4]
$LN15@GetCurrent:

; 1724 : 		case 0: rslt = 5; break;

  00066	b8 05 00 00 00	 mov	 eax, 5

; 1729 : 		default: rslt = 0; break;
; 1730 : 		}
; 1731 : 	}
; 1732 : 
; 1733 : 	return rslt+1;

  0006b	40		 inc	 eax
  0006c	5e		 pop	 esi

; 1734 : }

  0006d	c3		 ret	 0
$LN16@GetCurrent:

; 1725 : 		case 1: rslt = 9; break;	// (2011/2/9 - Seung-Won, Bae) for the difference only.

  0006e	b8 09 00 00 00	 mov	 eax, 9

; 1729 : 		default: rslt = 0; break;
; 1730 : 		}
; 1731 : 	}
; 1732 : 
; 1733 : 	return rslt+1;

  00073	40		 inc	 eax
  00074	5e		 pop	 esi

; 1734 : }

  00075	c3		 ret	 0
$LN17@GetCurrent:

; 1726 : 		case 2: rslt = 1; break;

  00076	b8 01 00 00 00	 mov	 eax, 1

; 1729 : 		default: rslt = 0; break;
; 1730 : 		}
; 1731 : 	}
; 1732 : 
; 1733 : 	return rslt+1;

  0007b	40		 inc	 eax
  0007c	5e		 pop	 esi

; 1734 : }

  0007d	c3		 ret	 0
$LN18@GetCurrent:

; 1727 : 		case 3: rslt = 3; break;

  0007e	b8 03 00 00 00	 mov	 eax, 3

; 1729 : 		default: rslt = 0; break;
; 1730 : 		}
; 1731 : 	}
; 1732 : 
; 1733 : 	return rslt+1;

  00083	40		 inc	 eax
  00084	5e		 pop	 esi

; 1734 : }

  00085	c3		 ret	 0
$LN19@GetCurrent:

; 1728 : 		case 4: rslt = 7; break;

  00086	b8 07 00 00 00	 mov	 eax, 7

; 1729 : 		default: rslt = 0; break;
; 1730 : 		}
; 1731 : 	}
; 1732 : 
; 1733 : 	return rslt+1;

  0008b	40		 inc	 eax
  0008c	5e		 pop	 esi

; 1734 : }

  0008d	c3		 ret	 0
$LN20@GetCurrent:

; 1729 : 		default: rslt = 0; break;
; 1730 : 		}
; 1731 : 	}
; 1732 : 
; 1733 : 	return rslt+1;

  0008e	33 c0		 xor	 eax, eax
  00090	40		 inc	 eax
  00091	5e		 pop	 esi

; 1734 : }

  00092	c3		 ret	 0
  00093	90		 npad	 1
$LN24@GetCurrent:
  00094	00 00 00 00	 DD	 $LN9@GetCurrent
  00098	00 00 00 00	 DD	 $LN10@GetCurrent
  0009c	00 00 00 00	 DD	 $LN20@GetCurrent
  000a0	00 00 00 00	 DD	 $LN12@GetCurrent
  000a4	00 00 00 00	 DD	 $LN13@GetCurrent
$LN25@GetCurrent:
  000a8	00 00 00 00	 DD	 $LN15@GetCurrent
  000ac	00 00 00 00	 DD	 $LN16@GetCurrent
  000b0	00 00 00 00	 DD	 $LN17@GetCurrent
  000b4	00 00 00 00	 DD	 $LN18@GetCurrent
  000b8	00 00 00 00	 DD	 $LN19@GetCurrent
?GetCurrentPrice@CDlgMainTabBaseEnvSetUp@@ABEHXZ ENDP	; CDlgMainTabBaseEnvSetUp::GetCurrentPrice
_TEXT	ENDS
; Function compile flags: /Ogtp
; File D:\git\src\IBK\IBK_DRFN\ProjSrc\SrcChartEx\ChartAddIn\ChartEnvSetupDlgAddIn\ChartEnvSetupDlgAddIn\DlgMainTabBaseEnvSetUp.cpp
;	COMDAT ?GetCurrentPrice@CDlgMainTabBaseEnvSetUp@@UBE_NAAH@Z
_TEXT	SEGMENT
_nCurPrice$ = 8						; size = 4
?GetCurrentPrice@CDlgMainTabBaseEnvSetUp@@UBE_NAAH@Z PROC ; CDlgMainTabBaseEnvSetUp::GetCurrentPrice, COMDAT
; _this$ = ecx

; 1693 : {

  00000	55		 push	 ebp
  00001	8b ec		 mov	 ebp, esp

; 1694 : 	nCurPrice = GetCurrentPrice();

  00003	e8 00 00 00 00	 call	 ?GetCurrentPrice@CDlgMainTabBaseEnvSetUp@@ABEHXZ ; CDlgMainTabBaseEnvSetUp::GetCurrentPrice
  00008	8b 4d 08	 mov	 ecx, DWORD PTR _nCurPrice$[ebp]
  0000b	89 01		 mov	 DWORD PTR [ecx], eax

; 1695 : 	return true;

  0000d	b0 01		 mov	 al, 1

; 1696 : }

  0000f	5d		 pop	 ebp
  00010	c2 04 00	 ret	 4
?GetCurrentPrice@CDlgMainTabBaseEnvSetUp@@UBE_NAAH@Z ENDP ; CDlgMainTabBaseEnvSetUp::GetCurrentPrice
_TEXT	ENDS
; Function compile flags: /Ogtp
; File D:\git\src\IBK\IBK_DRFN\ProjSrc\SrcChartEx\ChartAddIn\ChartEnvSetupDlgAddIn\ChartEnvSetupDlgAddIn\DlgMainTabBaseEnvSetUp.cpp
;	COMDAT ?GetDialogType@CDlgMainTabBaseEnvSetUp@@UBE?AW4DLG_TYPE@CBaseTabDlg@@XZ
_TEXT	SEGMENT
?GetDialogType@CDlgMainTabBaseEnvSetUp@@UBE?AW4DLG_TYPE@CBaseTabDlg@@XZ PROC ; CDlgMainTabBaseEnvSetUp::GetDialogType, COMDAT
; _this$ = ecx

; 1689 : 	return CBaseTabDlg::ENV_SET;

  00000	b8 01 00 00 00	 mov	 eax, 1

; 1690 : }

  00005	c3		 ret	 0
?GetDialogType@CDlgMainTabBaseEnvSetUp@@UBE?AW4DLG_TYPE@CBaseTabDlg@@XZ ENDP ; CDlgMainTabBaseEnvSetUp::GetDialogType
_TEXT	ENDS
; Function compile flags: /Ogtp
; File D:\git\src\IBK\IBK_DRFN\ProjSrc\SrcChartEx\ChartAddIn\ChartEnvSetupDlgAddIn\ChartEnvSetupDlgAddIn\DlgMainTabBaseEnvSetUp.cpp
; File C:\Program Files (x86)\Microsoft Visual Studio\2019\Community\VC\Tools\MSVC\14.29.30133\atlmfc\include\afxwin2.inl
; File D:\git\src\IBK\IBK_DRFN\ProjSrc\SrcChartEx\ChartAddIn\ChartEnvSetupDlgAddIn\ChartEnvSetupDlgAddIn\DlgMainTabBaseEnvSetUp.cpp
; File C:\Program Files (x86)\Microsoft Visual Studio\2019\Community\VC\Tools\MSVC\14.29.30133\atlmfc\include\afxwin2.inl
; File D:\git\src\IBK\IBK_DRFN\ProjSrc\SrcChartEx\ChartAddIn\ChartEnvSetupDlgAddIn\ChartEnvSetupDlgAddIn\DlgMainTabBaseEnvSetUp.cpp
; File C:\Program Files (x86)\Microsoft Visual Studio\2019\Community\VC\Tools\MSVC\14.29.30133\atlmfc\include\afxwin2.inl
; File D:\git\src\IBK\IBK_DRFN\ProjSrc\SrcChartEx\ChartAddIn\ChartEnvSetupDlgAddIn\ChartEnvSetupDlgAddIn\DlgMainTabBaseEnvSetUp.cpp
;	COMDAT ?PreView@CDlgMainTabBaseEnvSetUp@@QAEXXZ
_TEXT	SEGMENT
tv1738 = -36						; size = 4
_bChangeAllGraph$1$ = -36				; size = 4
_bIsChanged$1$ = -32					; size = 4
_bWithLastValue$2 = -32					; size = 4
_bWithLastValue$3 = -32					; size = 4
_szRightMargin$ = -28					; size = 4
_szUpDownSpace$ = -24					; size = 4
_pIAddInToolMgr$1$ = -20				; size = 4
_bWithConditionValue$4 = -20				; size = 4
_bWithConditionValue$5 = -20				; size = 4
_lResult$6 = -20					; size = 4
_lResult$7 = -20					; size = 4
_szFutureTime$8 = -20					; size = 4
tv1737 = -13						; size = 1
tv1736 = -13						; size = 1
__$EHRec$ = -12						; size = 12
?PreView@CDlgMainTabBaseEnvSetUp@@QAEXXZ PROC		; CDlgMainTabBaseEnvSetUp::PreView, COMDAT
; _this$ = ecx

; 1331 : {

  00000	55		 push	 ebp
  00001	8b ec		 mov	 ebp, esp
  00003	6a ff		 push	 -1
  00005	68 00 00 00 00	 push	 __ehhandler$?PreView@CDlgMainTabBaseEnvSetUp@@QAEXXZ
  0000a	64 a1 00 00 00
	00		 mov	 eax, DWORD PTR fs:0
  00010	50		 push	 eax
  00011	83 ec 18	 sub	 esp, 24			; 00000018H
  00014	53		 push	 ebx
  00015	56		 push	 esi
  00016	57		 push	 edi
  00017	a1 00 00 00 00	 mov	 eax, DWORD PTR ___security_cookie
  0001c	33 c5		 xor	 eax, ebp
  0001e	50		 push	 eax
  0001f	8d 45 f4	 lea	 eax, DWORD PTR __$EHRec$[ebp]
  00022	64 a3 00 00 00
	00		 mov	 DWORD PTR fs:0, eax
  00028	8b f1		 mov	 esi, ecx

; 1332 : 	// TODO: Add your control notification handler code here
; 1333 : 	UpdateData(TRUE);

  0002a	6a 01		 push	 1
  0002c	e8 00 00 00 00	 call	 ?UpdateData@CWnd@@QAEHH@Z ; CWnd::UpdateData

; 1334 : 	
; 1335 : 	// 1. Y  ( 0:, 1:, 2:, 3: )
; 1336 : 	int nYScalePosition;
; 1337 : 	if( m_bYScalePositionLeftSide && m_bYScalePositionRightSide == FALSE )

  00031	83 be 88 03 00
	00 00		 cmp	 DWORD PTR [esi+904], 0
  00038	8b 86 8c 03 00
	00		 mov	 eax, DWORD PTR [esi+908]
  0003e	74 0f		 je	 SHORT $LN92@PreView
  00040	85 c0		 test	 eax, eax
  00042	75 04		 jne	 SHORT $LN89@PreView

; 1338 : 		nYScalePosition = 0;

  00044	33 ff		 xor	 edi, edi
  00046	eb 16		 jmp	 SHORT $LN8@PreView
$LN89@PreView:

; 1342 : 
; 1343 : 	else if( m_bYScalePositionLeftSide && m_bYScalePositionRightSide)
; 1344 : 		nYScalePosition = 2;

  00048	bf 02 00 00 00	 mov	 edi, 2
  0004d	eb 0f		 jmp	 SHORT $LN8@PreView
$LN92@PreView:

; 1339 : 
; 1340 : 	else if( m_bYScalePositionLeftSide == FALSE && m_bYScalePositionRightSide)

  0004f	85 c0		 test	 eax, eax

; 1341 : 		nYScalePosition = 1;

  00051	b9 01 00 00 00	 mov	 ecx, 1

; 1345 : 
; 1346 : 	else if( m_bYScalePositionLeftSide == FALSE && m_bYScalePositionRightSide == FALSE )
; 1347 : 		nYScalePosition = 3;

  00056	bf 03 00 00 00	 mov	 edi, 3
  0005b	0f 45 f9	 cmovne	 edi, ecx
$LN8@PreView:

; 1348 : 
; 1349 : 	if( m_nApplyYScalePosition != nYScalePosition )

  0005e	39 be 9c 09 00
	00		 cmp	 DWORD PTR [esi+2460], edi
  00064	74 25		 je	 SHORT $LN9@PreView

; 1989 : 	IChartManager *pIChartManager = m_pIChartOCX->GetIChartManager();

  00066	8b 8e d8 09 00
	00		 mov	 ecx, DWORD PTR [esi+2520]
  0006c	8b 01		 mov	 eax, DWORD PTR [ecx]
  0006e	ff 50 18	 call	 DWORD PTR [eax+24]
  00071	8b d8		 mov	 ebx, eax

; 1990 : 	if( !pIChartManager) return;

  00073	85 db		 test	 ebx, ebx
  00075	74 0e		 je	 SHORT $LN54@PreView

; 1991 : 
; 1992 : 	pIChartManager->SetAllVertScalePosition( CScaleBaseData::VERTSCALEPOSITION( nPosition));

  00077	8b 13		 mov	 edx, DWORD PTR [ebx]
  00079	8b cb		 mov	 ecx, ebx
  0007b	57		 push	 edi
  0007c	ff 52 38	 call	 DWORD PTR [edx+56]

; 1993 : 	pIChartManager->Release();

  0007f	8b 0b		 mov	 ecx, DWORD PTR [ebx]
  00081	53		 push	 ebx
  00082	ff 51 08	 call	 DWORD PTR [ecx+8]
$LN54@PreView:

; 1350 : 	{
; 1351 : 		SetYScalePosition( nYScalePosition );
; 1352 : 		m_nApplyYScalePosition = nYScalePosition;

  00085	89 be 9c 09 00
	00		 mov	 DWORD PTR [esi+2460], edi
$LN9@PreView:

; 1353 : 	}
; 1354 : 
; 1355 : 	// (2009/9/3 - Seung-Won, Bae) Check the control not in common.
; 1356 : 	if( GetDlgItem( IDC_RDO_OHLC))

  0008b	68 68 1f 00 00	 push	 8040			; 00001f68H
  00090	8b ce		 mov	 ecx, esi
  00092	e8 00 00 00 00	 call	 ?GetDlgItem@CWnd@@QBEPAV1@H@Z ; CWnd::GetDlgItem
  00097	85 c0		 test	 eax, eax
  00099	74 1e		 je	 SHORT $LN10@PreView

; 1357 : 	{
; 1358 : 		// (2008/10/26 - Seung-Won, Bae) for O/H/L/C (not LH/LC/HC)
; 1359 : 		int nLH_LC_HC = m_nLH_LC_HC;

  0009b	8b be 0c 05 00
	00		 mov	 edi, DWORD PTR [esi+1292]

; 1360 : 		if( m_nApplyLH_LC_HC != nLH_LC_HC)

  000a1	39 be bc 09 00
	00		 cmp	 DWORD PTR [esi+2492], edi
  000a7	74 33		 je	 SHORT $LN13@PreView

; 1361 : 		{
; 1362 : 			SetShowLH_LC_HC( nLH_LC_HC );

  000a9	57		 push	 edi
  000aa	8b ce		 mov	 ecx, esi
  000ac	e8 00 00 00 00	 call	 ?SetShowLH_LC_HC@CDlgMainTabBaseEnvSetUp@@IAEXH@Z ; CDlgMainTabBaseEnvSetUp::SetShowLH_LC_HC

; 1363 : 			m_nApplyLH_LC_HC = nLH_LC_HC;

  000b1	89 be bc 09 00
	00		 mov	 DWORD PTR [esi+2492], edi

; 1364 : 		}
; 1365 : 	}

  000b7	eb 23		 jmp	 SHORT $LN13@PreView
$LN10@PreView:

; 1366 : 	else
; 1367 : 	{
; 1368 : 		BOOL bLH_LC_HC = m_bLH_LC_HC;

  000b9	8b be 04 05 00
	00		 mov	 edi, DWORD PTR [esi+1284]

; 1369 : 		if( m_bApplyLH_LC_HC != bLH_LC_HC)

  000bf	39 be b8 09 00
	00		 cmp	 DWORD PTR [esi+2488], edi
  000c5	74 15		 je	 SHORT $LN13@PreView

; 1370 : 		{
; 1371 : 			SetShowLH_LC_HC( bLH_LC_HC ? 1 : 0);

  000c7	33 c0		 xor	 eax, eax
  000c9	8b ce		 mov	 ecx, esi
  000cb	85 ff		 test	 edi, edi
  000cd	0f 95 c0	 setne	 al
  000d0	50		 push	 eax
  000d1	e8 00 00 00 00	 call	 ?SetShowLH_LC_HC@CDlgMainTabBaseEnvSetUp@@IAEXH@Z ; CDlgMainTabBaseEnvSetUp::SetShowLH_LC_HC

; 1372 : 			m_bApplyLH_LC_HC = bLH_LC_HC;

  000d6	89 be b8 09 00
	00		 mov	 DWORD PTR [esi+2488], edi
$LN13@PreView:

; 1373 : 		}
; 1374 : 	}
; 1375 : 
; 1376 : 	int nShowCurrentPrice = GetCurrentPrice();

  000dc	8b ce		 mov	 ecx, esi
  000de	e8 00 00 00 00	 call	 ?GetCurrentPrice@CDlgMainTabBaseEnvSetUp@@ABEHXZ ; CDlgMainTabBaseEnvSetUp::GetCurrentPrice
  000e3	8b f8		 mov	 edi, eax

; 1377 : // vntsorl_20110609:[A00000259]     
; 1378 : 	if( m_nApplyShowCurrentPrice != nShowCurrentPrice )

  000e5	39 be 98 09 00
	00		 cmp	 DWORD PTR [esi+2456], edi
  000eb	74 0e		 je	 SHORT $LN14@PreView

; 1379 : 	{
; 1380 : 		SetShowCurrentPrice( nShowCurrentPrice );

  000ed	57		 push	 edi
  000ee	8b ce		 mov	 ecx, esi
  000f0	e8 00 00 00 00	 call	 ?SetShowCurrentPrice@CDlgMainTabBaseEnvSetUp@@IAEXH@Z ; CDlgMainTabBaseEnvSetUp::SetShowCurrentPrice

; 1381 : 		m_nApplyShowCurrentPrice = nShowCurrentPrice;

  000f5	89 be 98 09 00
	00		 mov	 DWORD PTR [esi+2456], edi
$LN14@PreView:

; 1382 : 	}
; 1383 : 
; 1384 : 	IChartManager *pIChartManager = m_pIChartOCX->GetIChartManager();

  000fb	8b 8e d8 09 00
	00		 mov	 ecx, DWORD PTR [esi+2520]
  00101	8b 01		 mov	 eax, DWORD PTR [ecx]
  00103	ff 50 18	 call	 DWORD PTR [eax+24]

; 1385 : 
; 1386 : 	// 2.  
; 1387 : 	CString szRightMargin = "";

  00106	68 00 00 00 00	 push	 OFFSET ??_C@_00CNPNBAHC@@
  0010b	8d 4d e4	 lea	 ecx, DWORD PTR _szRightMargin$[ebp]
  0010e	8b d8		 mov	 ebx, eax
  00110	ff 15 00 00 00
	00		 call	 DWORD PTR __imp_??0?$CStringT@DV?$StrTraitMFC_DLL@DV?$ChTraitsCRT@D@ATL@@@@@ATL@@QAE@PBD@Z

; 1388 : 	m_edtRightMargin.GetWindowText(szRightMargin);

  00116	8d 45 e4	 lea	 eax, DWORD PTR _szRightMargin$[ebp]
  00119	c7 45 fc 00 00
	00 00		 mov	 DWORD PTR __$EHRec$[ebp+8], 0
  00120	50		 push	 eax
  00121	8d 8e 50 02 00
	00		 lea	 ecx, DWORD PTR [esi+592]
  00127	e8 00 00 00 00	 call	 ?GetWindowTextA@CWnd@@QBEXAAV?$CStringT@DV?$StrTraitMFC_DLL@DV?$ChTraitsCRT@D@ATL@@@@@ATL@@@Z ; CWnd::GetWindowTextA

; 1389 : 	int nRightMargin = atoi( szRightMargin );

  0012c	ff 75 e4	 push	 DWORD PTR _szRightMargin$[ebp]
  0012f	ff 15 00 00 00
	00		 call	 DWORD PTR __imp__atoi
  00135	83 c4 04	 add	 esp, 4
  00138	8b f8		 mov	 edi, eax

; 1390 : 	if( pIChartManager && m_nApplyRightMargin != nRightMargin )

  0013a	85 db		 test	 ebx, ebx
  0013c	74 1d		 je	 SHORT $LN15@PreView
  0013e	39 be 7c 09 00
	00		 cmp	 DWORD PTR [esi+2428], edi
  00144	74 15		 je	 SHORT $LN15@PreView

; 1391 : 	{
; 1392 : 		// (2009/5/13 - Seung-Won, Bae) Manage right margin for only non special chart.
; 1393 : 		m_pIChartOCX->SetRightMarginWidth( nRightMargin);

  00146	8b 8e d8 09 00
	00		 mov	 ecx, DWORD PTR [esi+2520]
  0014c	57		 push	 edi
  0014d	8b 11		 mov	 edx, DWORD PTR [ecx]
  0014f	ff 92 14 02 00
	00		 call	 DWORD PTR [edx+532]

; 1394 : 		m_nApplyRightMargin = nRightMargin;

  00155	89 be 7c 09 00
	00		 mov	 DWORD PTR [esi+2428], edi
$LN15@PreView:

; 1398 : 	if( m_edtFutureTime.GetSafeHwnd() && m_spnFutureTime.GetSafeHwnd())

  0015b	8d be c8 03 00
	00		 lea	 edi, DWORD PTR [esi+968]
; File C:\Program Files (x86)\Microsoft Visual Studio\2019\Community\VC\Tools\MSVC\14.29.30133\atlmfc\include\afxwin2.inl

; 25   : 	{ return this == NULL ? NULL : m_hWnd; }

  00161	85 ff		 test	 edi, edi
  00163	74 6f		 je	 SHORT $LN16@PreView
; File D:\git\src\IBK\IBK_DRFN\ProjSrc\SrcChartEx\ChartAddIn\ChartEnvSetupDlgAddIn\ChartEnvSetupDlgAddIn\DlgMainTabBaseEnvSetUp.cpp

; 1398 : 	if( m_edtFutureTime.GetSafeHwnd() && m_spnFutureTime.GetSafeHwnd())

  00165	83 7f 20 00	 cmp	 DWORD PTR [edi+32], 0
  00169	74 69		 je	 SHORT $LN16@PreView
  0016b	8d 86 70 04 00
	00		 lea	 eax, DWORD PTR [esi+1136]
; File C:\Program Files (x86)\Microsoft Visual Studio\2019\Community\VC\Tools\MSVC\14.29.30133\atlmfc\include\afxwin2.inl

; 25   : 	{ return this == NULL ? NULL : m_hWnd; }

  00171	85 c0		 test	 eax, eax
  00173	74 5f		 je	 SHORT $LN16@PreView
; File D:\git\src\IBK\IBK_DRFN\ProjSrc\SrcChartEx\ChartAddIn\ChartEnvSetupDlgAddIn\ChartEnvSetupDlgAddIn\DlgMainTabBaseEnvSetUp.cpp

; 1398 : 	if( m_edtFutureTime.GetSafeHwnd() && m_spnFutureTime.GetSafeHwnd())

  00175	83 78 20 00	 cmp	 DWORD PTR [eax+32], 0
  00179	74 59		 je	 SHORT $LN16@PreView

; 1399 : 	{
; 1400 : 		// (2009/5/17 - Seung-Won, Bae) for Future Time
; 1401 : 		CString szFutureTime = "";

  0017b	68 00 00 00 00	 push	 OFFSET ??_C@_00CNPNBAHC@@
  00180	8d 4d ec	 lea	 ecx, DWORD PTR _szFutureTime$8[ebp]
  00183	ff 15 00 00 00
	00		 call	 DWORD PTR __imp_??0?$CStringT@DV?$StrTraitMFC_DLL@DV?$ChTraitsCRT@D@ATL@@@@@ATL@@QAE@PBD@Z

; 1402 : 		m_edtFutureTime.GetWindowText(szFutureTime);

  00189	8d 45 ec	 lea	 eax, DWORD PTR _szFutureTime$8[ebp]
  0018c	c6 45 fc 01	 mov	 BYTE PTR __$EHRec$[ebp+8], 1
  00190	50		 push	 eax
  00191	8b cf		 mov	 ecx, edi
  00193	e8 00 00 00 00	 call	 ?GetWindowTextA@CWnd@@QBEXAAV?$CStringT@DV?$StrTraitMFC_DLL@DV?$ChTraitsCRT@D@ATL@@@@@ATL@@@Z ; CWnd::GetWindowTextA

; 1403 : 		int nFutureTime = atoi( szFutureTime );

  00198	ff 75 ec	 push	 DWORD PTR _szFutureTime$8[ebp]
  0019b	ff 15 00 00 00
	00		 call	 DWORD PTR __imp__atoi
  001a1	83 c4 04	 add	 esp, 4
  001a4	8b f8		 mov	 edi, eax

; 1404 : 		if( pIChartManager && m_nApplyFutureTime != nFutureTime )

  001a6	85 db		 test	 ebx, ebx
  001a8	74 1d		 je	 SHORT $LN17@PreView
  001aa	39 be 80 09 00
	00		 cmp	 DWORD PTR [esi+2432], edi
  001b0	74 15		 je	 SHORT $LN17@PreView

; 1405 : 		{
; 1406 : 			// (2009/5/13 - Seung-Won, Bae) Manage right margin for only non special chart.
; 1407 : 			m_pIChartOCX->SetFutureTimeCount( nFutureTime);

  001b2	8b 8e d8 09 00
	00		 mov	 ecx, DWORD PTR [esi+2520]
  001b8	57		 push	 edi
  001b9	8b 11		 mov	 edx, DWORD PTR [ecx]
  001bb	ff 92 1c 02 00
	00		 call	 DWORD PTR [edx+540]

; 1408 : 			m_nApplyFutureTime = nFutureTime;

  001c1	89 be 80 09 00
	00		 mov	 DWORD PTR [esi+2432], edi
$LN17@PreView:

; 1409 : 		}
; 1410 : 	}

  001c7	8d 4d ec	 lea	 ecx, DWORD PTR _szFutureTime$8[ebp]
  001ca	c6 45 fc 00	 mov	 BYTE PTR __$EHRec$[ebp+8], 0
  001ce	ff 15 00 00 00
	00		 call	 DWORD PTR __imp_??1?$CStringT@DV?$StrTraitMFC_DLL@DV?$ChTraitsCRT@D@ATL@@@@@ATL@@QAE@XZ
$LN16@PreView:

; 1411 : 
; 1412 : 	if(m_nApplyMouseWheelIndex != m_nMouseWheelIndex )

  001d4	8b 96 bc 03 00
	00		 mov	 edx, DWORD PTR [esi+956]
  001da	39 96 84 09 00
	00		 cmp	 DWORD PTR [esi+2436], edx
  001e0	74 1b		 je	 SHORT $LN18@PreView

; 1413 : 	{
; 1414 : 		m_pIChartOCX->SetFutureTimeCount( m_nMouseWheelIndex);

  001e2	8b 8e d8 09 00
	00		 mov	 ecx, DWORD PTR [esi+2520]
  001e8	52		 push	 edx
  001e9	8b 01		 mov	 eax, DWORD PTR [ecx]
  001eb	ff 90 1c 02 00
	00		 call	 DWORD PTR [eax+540]

; 1415 : 		m_nApplyMouseWheelIndex = m_nMouseWheelIndex;

  001f1	8b 86 bc 03 00
	00		 mov	 eax, DWORD PTR [esi+956]
  001f7	89 86 84 09 00
	00		 mov	 DWORD PTR [esi+2436], eax
$LN18@PreView:

; 1416 : 	}
; 1417 : 
; 1418 : 	// (2007/7/18 - Seung-Won, Bae) Up/Down Space.
; 1419 : 	CString szUpDownSpace = "";

  001fd	68 00 00 00 00	 push	 OFFSET ??_C@_00CNPNBAHC@@
  00202	8d 4d e8	 lea	 ecx, DWORD PTR _szUpDownSpace$[ebp]
  00205	ff 15 00 00 00
	00		 call	 DWORD PTR __imp_??0?$CStringT@DV?$StrTraitMFC_DLL@DV?$ChTraitsCRT@D@ATL@@@@@ATL@@QAE@PBD@Z

; 1420 : 	m_edtUpDownSpace.GetWindowText(szUpDownSpace);

  0020b	8d 45 e8	 lea	 eax, DWORD PTR _szUpDownSpace$[ebp]
  0020e	c6 45 fc 02	 mov	 BYTE PTR __$EHRec$[ebp+8], 2
  00212	50		 push	 eax
  00213	8d 8e 28 01 00
	00		 lea	 ecx, DWORD PTR [esi+296]
  00219	e8 00 00 00 00	 call	 ?GetWindowTextA@CWnd@@QBEXAAV?$CStringT@DV?$StrTraitMFC_DLL@DV?$ChTraitsCRT@D@ATL@@@@@ATL@@@Z ; CWnd::GetWindowTextA

; 1421 : 	int nUpDownSpace = atoi( szUpDownSpace );

  0021e	ff 75 e8	 push	 DWORD PTR _szUpDownSpace$[ebp]
  00221	ff 15 00 00 00
	00		 call	 DWORD PTR __imp__atoi
  00227	8b f8		 mov	 edi, eax
  00229	83 c4 04	 add	 esp, 4

; 1422 : 	if( m_nApplyUpDownSpace != nUpDownSpace )

  0022c	39 be 08 0a 00
	00		 cmp	 DWORD PTR [esi+2568], edi
  00232	74 0e		 je	 SHORT $LN19@PreView

; 1423 : 	{
; 1424 : 		SetUpDownSpace( nUpDownSpace );

  00234	57		 push	 edi
  00235	8b ce		 mov	 ecx, esi
  00237	e8 00 00 00 00	 call	 ?SetUpDownSpace@CDlgMainTabBaseEnvSetUp@@IAEXH@Z ; CDlgMainTabBaseEnvSetUp::SetUpDownSpace

; 1425 : 		m_nApplyUpDownSpace = nUpDownSpace;

  0023c	89 be 08 0a 00
	00		 mov	 DWORD PTR [esi+2568], edi
$LN19@PreView:

; 1426 : 	}
; 1427 : 
; 1428 : 	// 2.1 
; 1429 : 	if( pIChartManager && m_bApplyFixInterval != m_bFixInterval )

  00242	85 db		 test	 ebx, ebx
  00244	74 27		 je	 SHORT $LN20@PreView
  00246	8b 8e b4 03 00
	00		 mov	 ecx, DWORD PTR [esi+948]
  0024c	39 8e b0 09 00
	00		 cmp	 DWORD PTR [esi+2480], ecx
  00252	74 19		 je	 SHORT $LN20@PreView

; 1430 : 	{
; 1431 : 		pIChartManager->SetFixedInterval( m_bFixInterval, TRUE );

  00254	8b 03		 mov	 eax, DWORD PTR [ebx]
  00256	6a 01		 push	 1
  00258	51		 push	 ecx
  00259	8b cb		 mov	 ecx, ebx
  0025b	ff 90 bc 00 00
	00		 call	 DWORD PTR [eax+188]

; 1432 : 		m_bApplyFixInterval = m_bFixInterval;

  00261	8b 86 b4 03 00
	00		 mov	 eax, DWORD PTR [esi+948]
  00267	89 86 b0 09 00
	00		 mov	 DWORD PTR [esi+2480], eax
$LN20@PreView:

; 1433 : 	}
; 1434 : 
; 1435 : 	// 3.  
; 1436 : 	if( m_bApplyShowExRightDividend != ( m_bShowExRightDividend ? true : false ) )

  0026d	83 be f0 04 00
	00 00		 cmp	 DWORD PTR [esi+1264], 0
  00274	0f 95 c0	 setne	 al
  00277	38 86 93 09 00
	00		 cmp	 BYTE PTR [esi+2451], al
  0027d	74 18		 je	 SHORT $LN21@PreView

; 1437 : 	{
; 1438 : 		SetShowExRightDividend( ( m_bShowExRightDividend ? true : false ) );

  0027f	50		 push	 eax
  00280	8b ce		 mov	 ecx, esi
  00282	e8 00 00 00 00	 call	 ?SetShowExRightDividend@CDlgMainTabBaseEnvSetUp@@IAEX_N@Z ; CDlgMainTabBaseEnvSetUp::SetShowExRightDividend

; 1439 : 		m_bApplyShowExRightDividend = ( m_bShowExRightDividend ? true : false );

  00287	83 be f0 04 00
	00 00		 cmp	 DWORD PTR [esi+1264], 0
  0028e	0f 95 c0	 setne	 al
  00291	88 86 93 09 00
	00		 mov	 BYTE PTR [esi+2451], al
$LN21@PreView:

; 1781 : 	IAddInToolMgr *pIAddInToolMgr = m_pIChartOCX->GetIAddInToolMgr();

  00297	8b 8e d8 09 00
	00		 mov	 ecx, DWORD PTR [esi+2520]
  0029d	c7 45 ec 00 00
	00 00		 mov	 DWORD PTR _lResult$7[ebp], 0
  002a4	8b 01		 mov	 eax, DWORD PTR [ecx]
  002a6	ff 50 24	 call	 DWORD PTR [eax+36]
  002a9	8b f8		 mov	 edi, eax

; 1782 : 	if( pIAddInToolMgr)

  002ab	85 ff		 test	 edi, edi
  002ad	74 13		 je	 SHORT $LN72@PreView

; 1783 : 	{
; 1784 : 		pIAddInToolMgr->OnAddInToolCommand( lResult, EAI_CUSTOM_GET_EXISTENCE_BOUNDMARK);

  002af	8b 17		 mov	 edx, DWORD PTR [edi]
  002b1	8d 45 ec	 lea	 eax, DWORD PTR _lResult$7[ebp]
  002b4	6a 0b		 push	 11			; 0000000bH
  002b6	50		 push	 eax
  002b7	8b cf		 mov	 ecx, edi
  002b9	ff 52 70	 call	 DWORD PTR [edx+112]

; 1785 : 		pIAddInToolMgr->Release();

  002bc	8b 07		 mov	 eax, DWORD PTR [edi]
  002be	57		 push	 edi
  002bf	ff 50 08	 call	 DWORD PTR [eax+8]
$LN72@PreView:

; 1440 : 	}
; 1441 : 
; 1442 : 	if( GetExistenceHighLowBound())

  002c2	83 7d ec 00	 cmp	 DWORD PTR _lResult$7[ebp], 0
  002c6	74 32		 je	 SHORT $LN23@PreView

; 1443 : 	{
; 1444 : 		if( m_bApplyShowHighLowBound != ( m_bShowHighLowBound ? true : false ) )

  002c8	8b 8e f4 04 00
	00		 mov	 ecx, DWORD PTR [esi+1268]
  002ce	85 c9		 test	 ecx, ecx
  002d0	0f 95 c0	 setne	 al
  002d3	38 86 92 09 00
	00		 cmp	 BYTE PTR [esi+2450], al
  002d9	74 1f		 je	 SHORT $LN23@PreView

; 1445 : 		{
; 1446 : 			SetShowHighLowBound( ( m_bShowHighLowBound ? true : false ) );

  002db	33 c0		 xor	 eax, eax
  002dd	85 c9		 test	 ecx, ecx
  002df	8b ce		 mov	 ecx, esi
  002e1	0f 95 c0	 setne	 al
  002e4	50		 push	 eax
  002e5	e8 00 00 00 00	 call	 ?SetShowHighLowBound@CDlgMainTabBaseEnvSetUp@@IAEXH@Z ; CDlgMainTabBaseEnvSetUp::SetShowHighLowBound

; 1447 : 			m_bApplyShowHighLowBound = ( m_bShowHighLowBound ? true : false );

  002ea	83 be f4 04 00
	00 00		 cmp	 DWORD PTR [esi+1268], 0
  002f1	0f 95 c0	 setne	 al
  002f4	88 86 92 09 00
	00		 mov	 BYTE PTR [esi+2450], al
$LN23@PreView:

; 1806 :  	IAddInToolMgr *pIAddInToolMgr = m_pIChartOCX->GetIAddInToolMgr();

  002fa	8b 8e d8 09 00
	00		 mov	 ecx, DWORD PTR [esi+2520]
  00300	c7 45 ec 00 00
	00 00		 mov	 DWORD PTR _lResult$6[ebp], 0
  00307	8b 01		 mov	 eax, DWORD PTR [ecx]
  00309	ff 50 24	 call	 DWORD PTR [eax+36]
  0030c	8b f8		 mov	 edi, eax

; 1807 :  	if( pIAddInToolMgr)

  0030e	85 ff		 test	 edi, edi
  00310	74 13		 je	 SHORT $LN75@PreView

; 1808 :  	{
; 1809 :  		pIAddInToolMgr->OnAddInToolCommand( lResult, EAI_CUSTOM_GET_EXISTENCE_LOWHIGHMARK);

  00312	8b 17		 mov	 edx, DWORD PTR [edi]
  00314	8d 45 ec	 lea	 eax, DWORD PTR _lResult$6[ebp]
  00317	6a 47		 push	 71			; 00000047H
  00319	50		 push	 eax
  0031a	8b cf		 mov	 ecx, edi
  0031c	ff 52 70	 call	 DWORD PTR [edx+112]

; 1810 :  		pIAddInToolMgr->Release();

  0031f	8b 07		 mov	 eax, DWORD PTR [edi]
  00321	57		 push	 edi
  00322	ff 50 08	 call	 DWORD PTR [eax+8]
$LN75@PreView:

; 1448 : 		}
; 1449 : 	}
; 1450 : 
; 1451 : 	//>>20100120_JS.Kim_alzioyes	/ 
; 1452 : 	if( GetExistenceLowHighMarker())

  00325	83 7d ec 00	 cmp	 DWORD PTR _lResult$6[ebp], 0
  00329	74 4f		 je	 SHORT $LN25@PreView

; 1453 : 	{
; 1454 : 		if( m_bApplyShowLowHighMarker != ( m_bShowLowHighMarker ? true : false ) )

  0032b	8b 86 fc 04 00
	00		 mov	 eax, DWORD PTR [esi+1276]
  00331	85 c0		 test	 eax, eax
  00333	89 45 dc	 mov	 DWORD PTR tv1738[ebp], eax
  00336	0f 95 c0	 setne	 al
  00339	38 86 94 09 00
	00		 cmp	 BYTE PTR [esi+2452], al
  0033f	74 39		 je	 SHORT $LN25@PreView

; 1827 :  	IAddInToolMgr *pIAddInToolMgr = m_pIChartOCX->GetIAddInToolMgr();

  00341	8b 8e d8 09 00
	00		 mov	 ecx, DWORD PTR [esi+2520]
  00347	8b 01		 mov	 eax, DWORD PTR [ecx]
  00349	ff 50 24	 call	 DWORD PTR [eax+36]
  0034c	8b f8		 mov	 edi, eax

; 1828 :  	if( pIAddInToolMgr)

  0034e	85 ff		 test	 edi, edi
  00350	74 18		 je	 SHORT $LN78@PreView

; 1829 :  	{
; 1830 :  		pIAddInToolMgr->OnAddInToolCommand( EAI_CUSTOM_ENABLE_LOWHIGHMARK, p_bEnable);

  00352	8b 17		 mov	 edx, DWORD PTR [edi]

; 1455 : 		{
; 1456 : 			SetShowLowHighMarker( ( m_bShowLowHighMarker? true : false ) );

  00354	33 c9		 xor	 ecx, ecx
  00356	39 4d dc	 cmp	 DWORD PTR tv1738[ebp], ecx
  00359	0f 95 c1	 setne	 cl

; 1830 :  		pIAddInToolMgr->OnAddInToolCommand( EAI_CUSTOM_ENABLE_LOWHIGHMARK, p_bEnable);

  0035c	51		 push	 ecx
  0035d	6a 45		 push	 69			; 00000045H
  0035f	8b cf		 mov	 ecx, edi
  00361	ff 52 7c	 call	 DWORD PTR [edx+124]

; 1831 :  		pIAddInToolMgr->Release();

  00364	8b 07		 mov	 eax, DWORD PTR [edi]
  00366	57		 push	 edi
  00367	ff 50 08	 call	 DWORD PTR [eax+8]
$LN78@PreView:

; 1457 : 			m_bApplyShowLowHighMarker = ( m_bShowLowHighMarker ? true : false );

  0036a	83 be fc 04 00
	00 00		 cmp	 DWORD PTR [esi+1276], 0
  00371	0f 95 c0	 setne	 al
  00374	88 86 94 09 00
	00		 mov	 BYTE PTR [esi+2452], al
$LN25@PreView:

; 1458 : 		}
; 1459 : 	}
; 1460 : 	//<<
; 1461 : 
; 1462 : 	if( m_MChartInterface.InitMChartInterface061115()) m_MChartInterface.SetRevisedPriceFlag(m_bUseRevisedPrice);

  0037a	8d 8e dc 09 00
	00		 lea	 ecx, DWORD PTR [esi+2524]
  00380	e8 00 00 00 00	 call	 ?InitMChartInterface061115@COutsideCommonInterfaceFunction@@QAEHXZ ; COutsideCommonInterfaceFunction::InitMChartInterface061115
  00385	85 c0		 test	 eax, eax
  00387	74 13		 je	 SHORT $LN26@PreView
  00389	ff b6 f8 04 00
	00		 push	 DWORD PTR [esi+1272]
  0038f	8d 8e dc 09 00
	00		 lea	 ecx, DWORD PTR [esi+2524]
  00395	e8 00 00 00 00	 call	 ?SetRevisedPriceFlag@COutsideCommonInterfaceFunction@@QAEHH@Z ; COutsideCommonInterfaceFunction::SetRevisedPriceFlag
  0039a	eb 32		 jmp	 SHORT $LN27@PreView
$LN26@PreView:

; 1463 : 	// (2007/10/5 - Seung-Won, Bae) Support Map
; 1464 : 	else m_pIChartOCX->FireAddInEvent( CChartEnvSetupDlgAddInImp::m_strAddInItemName, 1006, NULL, 0, ( m_bUseRevisedPrice ? 1 : 0));

  0039c	8b 8e d8 09 00
	00		 mov	 ecx, DWORD PTR [esi+2520]
  003a2	33 c0		 xor	 eax, eax
  003a4	39 86 f8 04 00
	00		 cmp	 DWORD PTR [esi+1272], eax
  003aa	0f 57 c0	 xorps	 xmm0, xmm0
  003ad	0f 95 c0	 setne	 al
  003b0	8b 11		 mov	 edx, DWORD PTR [ecx]
  003b2	50		 push	 eax
  003b3	83 ec 08	 sub	 esp, 8
  003b6	f2 0f 11 04 24	 movsd	 QWORD PTR [esp], xmm0
  003bb	6a 00		 push	 0
  003bd	68 ee 03 00 00	 push	 1006			; 000003eeH
  003c2	ff 35 00 00 00
	00		 push	 DWORD PTR ?m_strAddInItemName@CChartEnvSetupDlgAddInImp@@2V?$CStringT@DV?$StrTraitMFC_DLL@DV?$ChTraitsCRT@D@ATL@@@@@ATL@@A ; CChartEnvSetupDlgAddInImp::m_strAddInItemName
  003c8	ff 92 80 01 00
	00		 call	 DWORD PTR [edx+384]
$LN27@PreView:

; 1465 : 	m_bApplyUseRevisedPrice = m_bUseRevisedPrice;

  003ce	8b 86 f8 04 00
	00		 mov	 eax, DWORD PTR [esi+1272]

; 1466 : 
; 1467 : 
; 1468 : 	// 4.   
; 1469 : 	m_pIChartOCX->SetHideAllTitle( !m_bShowAllTitle );

  003d4	8b 8e d8 09 00
	00		 mov	 ecx, DWORD PTR [esi+2520]
  003da	89 86 ac 09 00
	00		 mov	 DWORD PTR [esi+2476], eax
  003e0	33 c0		 xor	 eax, eax
  003e2	39 86 a4 03 00
	00		 cmp	 DWORD PTR [esi+932], eax
  003e8	8b 11		 mov	 edx, DWORD PTR [ecx]
  003ea	0f 94 c0	 sete	 al
  003ed	50		 push	 eax
  003ee	ff 92 bc 00 00
	00		 call	 DWORD PTR [edx+188]

; 1470 : 	m_bApplyShowAllTitle = m_bShowAllTitle;
; 1471 : 
; 1472 : 	if( m_bApplyShowIndicatorVariable != ( m_bShowIndicatorVariable ? true : false ) )					//  -  

  003f4	83 be 94 03 00
	00 00		 cmp	 DWORD PTR [esi+916], 0
  003fb	8b 86 a4 03 00
	00		 mov	 eax, DWORD PTR [esi+932]
  00401	89 86 a4 09 00
	00		 mov	 DWORD PTR [esi+2468], eax
  00407	0f 95 c0	 setne	 al
  0040a	88 45 f3	 mov	 BYTE PTR tv1737[ebp], al
  0040d	38 86 90 09 00
	00		 cmp	 BYTE PTR [esi+2448], al
  00413	74 4d		 je	 SHORT $LN28@PreView

; 1968 : 	m_pIChartOCX->GetGraphTitleOption( bWithConditionValue, bWithLastValue);

  00415	8b 8e d8 09 00
	00		 mov	 ecx, DWORD PTR [esi+2520]
  0041b	8d 55 e0	 lea	 edx, DWORD PTR _bWithLastValue$3[ebp]
  0041e	c7 45 ec 00 00
	00 00		 mov	 DWORD PTR _bWithConditionValue$5[ebp], 0
  00425	c7 45 e0 00 00
	00 00		 mov	 DWORD PTR _bWithLastValue$3[ebp], 0
  0042c	52		 push	 edx
  0042d	8b 01		 mov	 eax, DWORD PTR [ecx]
  0042f	8d 55 ec	 lea	 edx, DWORD PTR _bWithConditionValue$5[ebp]
  00432	52		 push	 edx
  00433	ff 90 f8 01 00
	00		 call	 DWORD PTR [eax+504]

; 1969 : 
; 1970 : 	bWithConditionValue = bShow;
; 1971 : 	m_pIChartOCX->SetGraphTitleOption( bWithConditionValue, bWithLastValue);

  00439	8b 8e d8 09 00
	00		 mov	 ecx, DWORD PTR [esi+2520]
  0043f	0f b6 55 f3	 movzx	 edx, BYTE PTR tv1737[ebp]
  00443	ff 75 e0	 push	 DWORD PTR _bWithLastValue$3[ebp]
  00446	89 55 ec	 mov	 DWORD PTR _bWithConditionValue$5[ebp], edx
  00449	8b 01		 mov	 eax, DWORD PTR [ecx]
  0044b	52		 push	 edx
  0044c	ff 90 fc 01 00
	00		 call	 DWORD PTR [eax+508]

; 1473 : 	{
; 1474 : 		SetShowIndicatorVariable( ( m_bShowIndicatorVariable ? true : false ) );
; 1475 : 		m_bApplyShowIndicatorVariable = ( m_bShowIndicatorVariable ? true : false );

  00452	83 be 94 03 00
	00 00		 cmp	 DWORD PTR [esi+916], 0
  00459	0f 95 c0	 setne	 al
  0045c	88 86 90 09 00
	00		 mov	 BYTE PTR [esi+2448], al
$LN28@PreView:

; 1476 : 	}
; 1477 : 	
; 1478 : 	if( m_bApplyShowIndicatorValue != ( m_bShowIndicatorValue ? true : false ) )						//  -  

  00462	83 be 90 03 00
	00 00		 cmp	 DWORD PTR [esi+912], 0
  00469	0f 95 c0	 setne	 al
  0046c	88 45 f3	 mov	 BYTE PTR tv1736[ebp], al
  0046f	38 86 91 09 00
	00		 cmp	 BYTE PTR [esi+2449], al
  00475	74 4d		 je	 SHORT $LN29@PreView

; 1979 : 	m_pIChartOCX->GetGraphTitleOption( bWithConditionValue, bWithLastValue);

  00477	8b 8e d8 09 00
	00		 mov	 ecx, DWORD PTR [esi+2520]
  0047d	8d 55 e0	 lea	 edx, DWORD PTR _bWithLastValue$2[ebp]
  00480	c7 45 ec 00 00
	00 00		 mov	 DWORD PTR _bWithConditionValue$4[ebp], 0
  00487	c7 45 e0 00 00
	00 00		 mov	 DWORD PTR _bWithLastValue$2[ebp], 0
  0048e	52		 push	 edx
  0048f	8b 01		 mov	 eax, DWORD PTR [ecx]
  00491	8d 55 ec	 lea	 edx, DWORD PTR _bWithConditionValue$4[ebp]
  00494	52		 push	 edx
  00495	ff 90 f8 01 00
	00		 call	 DWORD PTR [eax+504]

; 1980 : 
; 1981 : 	bWithLastValue = bShow;
; 1982 : 	m_pIChartOCX->SetGraphTitleOption( bWithConditionValue, bWithLastValue);

  0049b	8b 8e d8 09 00
	00		 mov	 ecx, DWORD PTR [esi+2520]
  004a1	0f b6 45 f3	 movzx	 eax, BYTE PTR tv1736[ebp]
  004a5	89 45 e0	 mov	 DWORD PTR _bWithLastValue$2[ebp], eax
  004a8	50		 push	 eax
  004a9	8b 11		 mov	 edx, DWORD PTR [ecx]
  004ab	ff 75 ec	 push	 DWORD PTR _bWithConditionValue$4[ebp]
  004ae	ff 92 fc 01 00
	00		 call	 DWORD PTR [edx+508]

; 1479 : 	{
; 1480 : 		SetShowIndicatorValue( ( m_bShowIndicatorValue ? true : false ) );
; 1481 : 		 m_bApplyShowIndicatorValue = ( m_bShowIndicatorValue ? true : false );

  004b4	83 be 90 03 00
	00 00		 cmp	 DWORD PTR [esi+912], 0
  004bb	0f 95 c0	 setne	 al
  004be	88 86 91 09 00
	00		 mov	 BYTE PTR [esi+2449], al
$LN29@PreView:

; 1482 : 	}
; 1483 : 
; 1484 : 	BOOL bUseMonthGapRevision = ( ( ( CButton *)GetDlgItem( IDC_USE_GAP_MONTHREV))->GetCheck() == 1);

  004c4	68 fd 17 00 00	 push	 6141			; 000017fdH
  004c9	8b ce		 mov	 ecx, esi
  004cb	e8 00 00 00 00	 call	 ?GetDlgItem@CWnd@@QBEPAV1@H@Z ; CWnd::GetDlgItem
; File C:\Program Files (x86)\Microsoft Visual Studio\2019\Community\VC\Tools\MSVC\14.29.30133\atlmfc\include\afxwin2.inl

; 628  : 	{ ASSERT(::IsWindow(m_hWnd)); return (int)::SendMessage(m_hWnd, BM_GETCHECK, 0, 0); }

  004d0	6a 00		 push	 0
  004d2	6a 00		 push	 0
  004d4	68 f0 00 00 00	 push	 240			; 000000f0H
  004d9	ff 70 20	 push	 DWORD PTR [eax+32]
  004dc	ff 15 00 00 00
	00		 call	 DWORD PTR __imp__SendMessageA@16
; File D:\git\src\IBK\IBK_DRFN\ProjSrc\SrcChartEx\ChartAddIn\ChartEnvSetupDlgAddIn\ChartEnvSetupDlgAddIn\DlgMainTabBaseEnvSetUp.cpp

; 1488 : 	BOOL bIsChanged = ( m_nApplyCandleType != m_nCandleType || m_bApplyUseGapRevision != m_bUseGapRevision || m_bApplyUseMonthGapRevision != bUseMonthGapRevision);

  004e2	8b 8e 74 09 00
	00		 mov	 ecx, DWORD PTR [esi+2420]
  004e8	8d 78 ff	 lea	 edi, DWORD PTR [eax-1]
  004eb	f7 df		 neg	 edi
  004ed	1b ff		 sbb	 edi, edi
  004ef	47		 inc	 edi
  004f0	3b 8e 00 05 00
	00		 cmp	 ecx, DWORD PTR [esi+1280]
  004f6	75 1d		 jne	 SHORT $LN49@PreView
  004f8	8b 86 78 09 00
	00		 mov	 eax, DWORD PTR [esi+2424]
  004fe	3b 86 08 05 00
	00		 cmp	 eax, DWORD PTR [esi+1288]
  00504	75 0f		 jne	 SHORT $LN49@PreView
  00506	c7 45 e0 00 00
	00 00		 mov	 DWORD PTR _bIsChanged$1$[ebp], 0
  0050d	39 be c4 09 00
	00		 cmp	 DWORD PTR [esi+2500], edi
  00513	74 07		 je	 SHORT $LN50@PreView
$LN49@PreView:
  00515	c7 45 e0 01 00
	00 00		 mov	 DWORD PTR _bIsChanged$1$[ebp], 1
$LN50@PreView:

; 1489 : 
; 1490 : 	BOOL bChangeAllGraph = FALSE;
; 1491 : 	// 2008.10.15 by LYH >> 
; 1492 : 	IAddInToolMgr *pIAddInToolMgr = m_pIChartOCX->GetIAddInToolMgr();

  0051c	8b 8e d8 09 00
	00		 mov	 ecx, DWORD PTR [esi+2520]
  00522	c7 45 dc 00 00
	00 00		 mov	 DWORD PTR _bChangeAllGraph$1$[ebp], 0
  00529	8b 01		 mov	 eax, DWORD PTR [ecx]
  0052b	ff 50 24	 call	 DWORD PTR [eax+36]
  0052e	8b c8		 mov	 ecx, eax
  00530	89 4d ec	 mov	 DWORD PTR _pIAddInToolMgr$1$[ebp], ecx

; 1493 : 	if( pIAddInToolMgr)

  00533	85 c9		 test	 ecx, ecx
  00535	74 65		 je	 SHORT $LN30@PreView

; 1494 : 	{
; 1495 : 		//>>   - vntsorl(20090217)
; 1496 : 		if(m_bApplyUseGapRevision != m_bUseGapRevision)

  00537	8b 86 08 05 00
	00		 mov	 eax, DWORD PTR [esi+1288]
  0053d	39 86 78 09 00
	00		 cmp	 DWORD PTR [esi+2424], eax
  00543	74 38		 je	 SHORT $LN31@PreView

; 1497 : 		{
; 1498 : 			pIAddInToolMgr->OnAddInToolCommand( EAI_ENVSETUP_GAPREVISION_CHANGED, m_bUseGapRevision, m_nApplyCandleType != m_nCandleType);

  00545	8b 11		 mov	 edx, DWORD PTR [ecx]
  00547	33 c9		 xor	 ecx, ecx
  00549	8b 86 74 09 00
	00		 mov	 eax, DWORD PTR [esi+2420]
  0054f	3b 86 00 05 00
	00		 cmp	 eax, DWORD PTR [esi+1280]
  00555	0f 95 c1	 setne	 cl
  00558	51		 push	 ecx
  00559	ff b6 08 05 00
	00		 push	 DWORD PTR [esi+1288]
  0055f	8b 4d ec	 mov	 ecx, DWORD PTR _pIAddInToolMgr$1$[ebp]
  00562	6a 40		 push	 64			; 00000040H
  00564	ff 52 74	 call	 DWORD PTR [edx+116]

; 1499 : 			m_bApplyUseGapRevision = m_bUseGapRevision;

  00567	8b 86 08 05 00
	00		 mov	 eax, DWORD PTR [esi+1288]
  0056d	8b 4d ec	 mov	 ecx, DWORD PTR _pIAddInToolMgr$1$[ebp]
  00570	89 86 78 09 00
	00		 mov	 DWORD PTR [esi+2424], eax

; 1500 : 			bChangeAllGraph = TRUE;

  00576	c7 45 dc 01 00
	00 00		 mov	 DWORD PTR _bChangeAllGraph$1$[ebp], 1
$LN31@PreView:

; 1501 : 		}
; 1502 : 		//<<   - vntsorl(20090217)
; 1503 : 
; 1504 : 		//<< 20130530  :   (IBK) (Issue No : 0006572)
; 1505 : 		if( m_bApplyUseMonthGapRevision != bUseMonthGapRevision)

  0057d	39 be c4 09 00
	00		 cmp	 DWORD PTR [esi+2500], edi
  00583	74 0e		 je	 SHORT $LN32@PreView

; 1506 : 		{
; 1507 : 			pIAddInToolMgr->OnAddInToolCommand( EAI_ENVSETUP_MONTHGAPREVISION_CHANGED, bUseMonthGapRevision);

  00585	8b 01		 mov	 eax, DWORD PTR [ecx]
  00587	57		 push	 edi
  00588	6a 42		 push	 66			; 00000042H
  0058a	ff 50 7c	 call	 DWORD PTR [eax+124]

; 1508 : 			m_bApplyUseMonthGapRevision = bUseMonthGapRevision;

  0058d	89 be c4 09 00
	00		 mov	 DWORD PTR [esi+2500], edi
$LN32@PreView:

; 1509 : 		}
; 1510 : 		//>> (Issue No : 0006572)
; 1511 : 
; 1512 : 		pIAddInToolMgr->Release();

  00593	8b 4d ec	 mov	 ecx, DWORD PTR _pIAddInToolMgr$1$[ebp]
  00596	51		 push	 ecx
  00597	8b 01		 mov	 eax, DWORD PTR [ecx]
  00599	ff 50 08	 call	 DWORD PTR [eax+8]
$LN30@PreView:

; 1513 : 	}
; 1514 : 
; 1515 : 	if( m_nApplyCandleType != m_nCandleType)

  0059c	8b 8e 74 09 00
	00		 mov	 ecx, DWORD PTR [esi+2420]
  005a2	8b 96 00 05 00
	00		 mov	 edx, DWORD PTR [esi+1280]
  005a8	3b ca		 cmp	 ecx, edx
  005aa	74 1b		 je	 SHORT $LN33@PreView

; 1516 : 	{
; 1517 : 		m_pIChartOCX->SetNormalizedMinuteTimeRule( m_nCandleType);

  005ac	8b 8e d8 09 00
	00		 mov	 ecx, DWORD PTR [esi+2520]
  005b2	52		 push	 edx
  005b3	8b 01		 mov	 eax, DWORD PTR [ecx]
  005b5	ff 90 ac 00 00
	00		 call	 DWORD PTR [eax+172]

; 1518 : 		m_nApplyCandleType = m_nCandleType;

  005bb	8b 8e 00 05 00
	00		 mov	 ecx, DWORD PTR [esi+1280]
  005c1	89 8e 74 09 00
	00		 mov	 DWORD PTR [esi+2420], ecx
$LN33@PreView:

; 1519 : 	}
; 1520 : 	// (2008/11/2 - Seung-Won, Bae) Notify to MChart with CandleType and GapRevision.
; 1521 : 	if( bIsChanged)

  005c7	83 7d e0 00	 cmp	 DWORD PTR _bIsChanged$1$[ebp], 0
  005cb	74 22		 je	 SHORT $LN34@PreView

; 1522 : 		m_MChartInterface.MChart_SetImaginaryCandleAndGapRevisionToOutside( m_nApplyCandleType ? true : false, m_bApplyUseGapRevision ? true : false);

  005cd	83 be 78 09 00
	00 00		 cmp	 DWORD PTR [esi+2424], 0
  005d4	0f 95 c0	 setne	 al
  005d7	85 c9		 test	 ecx, ecx
  005d9	0f b6 c0	 movzx	 eax, al
  005dc	8d 8e dc 09 00
	00		 lea	 ecx, DWORD PTR [esi+2524]
  005e2	50		 push	 eax
  005e3	0f 95 c0	 setne	 al
  005e6	0f b6 c0	 movzx	 eax, al
  005e9	50		 push	 eax
  005ea	e8 00 00 00 00	 call	 ?MChart_SetImaginaryCandleAndGapRevisionToOutside@COutsideCommonInterfaceFunction@@QAE_N_N0@Z ; COutsideCommonInterfaceFunction::MChart_SetImaginaryCandleAndGapRevisionToOutside
$LN34@PreView:

; 1523 : 
; 1524 : 	// 6.  
; 1525 : 	// 6.1 / 
; 1526 : 	m_pIChartOCX->ShowPriceMinMaxText(m_bShowPriceMinMaxText);

  005ef	8b 8e d8 09 00
	00		 mov	 ecx, DWORD PTR [esi+2520]
  005f5	ff b6 a8 03 00
	00		 push	 DWORD PTR [esi+936]
  005fb	8b 01		 mov	 eax, DWORD PTR [ecx]
  005fd	ff 90 c4 00 00
	00		 call	 DWORD PTR [eax+196]

; 1527 : 	m_bApplyShowPriceMinMaxText = m_bShowPriceMinMaxText;
; 1528 : 
; 1529 : 	m_pIChartOCX->SetPriceMinMaxShowType(m_nMinMaxRatio);

  00603	8b 8e d8 09 00
	00		 mov	 ecx, DWORD PTR [esi+2520]
  00609	8b 86 a8 03 00
	00		 mov	 eax, DWORD PTR [esi+936]
  0060f	ff b6 c0 03 00
	00		 push	 DWORD PTR [esi+960]
  00615	89 86 a8 09 00
	00		 mov	 DWORD PTR [esi+2472], eax
  0061b	8b 01		 mov	 eax, DWORD PTR [ecx]
  0061d	ff 90 38 02 00
	00		 call	 DWORD PTR [eax+568]

; 1530 : 	m_nApplyMinMaxRatio = m_nMinMaxRatio;
; 1531 : 
; 1532 : 	//    Scale   - ojtaso (20071101)
; 1533 : 	m_pIChartOCX->SetDrawBaseLine(m_bDrawBaseLine);

  00623	8b 8e d8 09 00
	00		 mov	 ecx, DWORD PTR [esi+2520]
  00629	8b 86 c0 03 00
	00		 mov	 eax, DWORD PTR [esi+960]
  0062f	ff b6 b8 03 00
	00		 push	 DWORD PTR [esi+952]
  00635	89 86 c0 09 00
	00		 mov	 DWORD PTR [esi+2496], eax
  0063b	8b 01		 mov	 eax, DWORD PTR [ecx]
  0063d	ff 90 d4 00 00
	00		 call	 DWORD PTR [eax+212]

; 1534 : 	m_bApplyDrawBaseLine = m_bDrawBaseLine;
; 1535 : 
; 1536 : 	// 6.2 
; 1537 : 	//long lNumericalInquiryOption = ( m_pIChartOCX->GetNumericalInquiryOption() & TOOLTIPVIEW);
; 1538 : 	long lNumericalInquiryOption = ( m_pIChartOCX->GetNumericalInquiryOption());

  00643	8b 8e d8 09 00
	00		 mov	 ecx, DWORD PTR [esi+2520]
  00649	8b 86 b8 03 00
	00		 mov	 eax, DWORD PTR [esi+952]
  0064f	89 86 b4 09 00
	00		 mov	 DWORD PTR [esi+2484], eax
  00655	8b 01		 mov	 eax, DWORD PTR [ecx]
  00657	ff 50 74	 call	 DWORD PTR [eax+116]
  0065a	8b f8		 mov	 edi, eax

; 1539 : 	if( m_bInquieryDataWindow)			lNumericalInquiryOption |= NUMERICALINQUIRYDLG;
; 1540 : 	else								lNumericalInquiryOption &= ~NUMERICALINQUIRYDLG;
; 1541 : 
; 1542 : 	if( m_nInquiryDlgManualMove == 1)	lNumericalInquiryOption |= NIDLG_MANUALMOVE;

  0065c	8b c8		 mov	 ecx, eax
  0065e	83 cf 01	 or	 edi, 1
  00661	83 e1 fe	 and	 ecx, -2			; fffffffeH
  00664	83 be a0 03 00
	00 00		 cmp	 DWORD PTR [esi+928], 0
  0066b	0f 44 f9	 cmove	 edi, ecx

; 1543 : 	else								lNumericalInquiryOption &= ~NIDLG_MANUALMOVE;
; 1544 : 
; 1545 : 	if( m_bUseCrossLine)				lNumericalInquiryOption |= CROSSLINEVIEW;

  0066e	8b cf		 mov	 ecx, edi
  00670	83 cf 08	 or	 edi, 8
  00673	83 e1 f7	 and	 ecx, -9			; fffffff7H
  00676	83 be c4 03 00
	00 01		 cmp	 DWORD PTR [esi+964], 1
  0067d	0f 45 f9	 cmovne	 edi, ecx

; 1546 : 	else								lNumericalInquiryOption &= ~CROSSLINEVIEW;
; 1547 : 
; 1548 : 	if( m_bUseTooptipShow)				lNumericalInquiryOption |= TOOLTIPVIEW;

  00680	8b c7		 mov	 eax, edi
  00682	83 cf 02	 or	 edi, 2
  00685	83 e0 fd	 and	 eax, -3			; fffffffdH
  00688	83 be 98 03 00
	00 00		 cmp	 DWORD PTR [esi+920], 0
  0068f	0f 44 f8	 cmove	 edi, eax

; 1549 : 	else								lNumericalInquiryOption &= ~TOOLTIPVIEW;
; 1550 : 
; 1551 : 	//>>[A00000441]     
; 1552 : 	if( m_bUseTooptipShowAll)			lNumericalInquiryOption |= TOOLTIPVIEW_ALL;

  00692	8b c7		 mov	 eax, edi
  00694	83 cf 04	 or	 edi, 4
  00697	83 e0 fb	 and	 eax, -5			; fffffffbH
  0069a	83 be ac 03 00
	00 00		 cmp	 DWORD PTR [esi+940], 0
  006a1	0f 44 f8	 cmove	 edi, eax

; 1553 : 	else								lNumericalInquiryOption &= ~TOOLTIPVIEW_ALL;
; 1554 : 	//<< 
; 1555 : 
; 1556 : 	if( m_lApplyNumericalInquiryOption != lNumericalInquiryOption)

  006a4	8b c7		 mov	 eax, edi
  006a6	83 cf 20	 or	 edi, 32			; 00000020H
  006a9	83 e0 df	 and	 eax, -33		; ffffffdfH
  006ac	83 be b0 03 00
	00 00		 cmp	 DWORD PTR [esi+944], 0
  006b3	0f 44 f8	 cmove	 edi, eax
  006b6	39 be a0 09 00
	00		 cmp	 DWORD PTR [esi+2464], edi
  006bc	74 12		 je	 SHORT $LN45@PreView

; 1557 : 	{
; 1558 : 		m_pIChartOCX->SetNumericalInquiryOption( lNumericalInquiryOption);

  006be	8b 8e d8 09 00
	00		 mov	 ecx, DWORD PTR [esi+2520]
  006c4	57		 push	 edi
  006c5	8b 01		 mov	 eax, DWORD PTR [ecx]
  006c7	ff 50 78	 call	 DWORD PTR [eax+120]

; 1559 : 		m_lApplyNumericalInquiryOption = lNumericalInquiryOption;

  006ca	89 be a0 09 00
	00		 mov	 DWORD PTR [esi+2464], edi
$LN45@PreView:

; 1560 : 	}
; 1561 : 
; 1562 : 	// 7.  
; 1563 : 	if( pIChartManager && m_nApplyCandleTypeOnResize != m_nCandleTypeOnResize )

  006d0	85 db		 test	 ebx, ebx
  006d2	74 2d		 je	 SHORT $LN46@PreView
  006d4	8b 8e 80 03 00
	00		 mov	 ecx, DWORD PTR [esi+896]
  006da	39 8e 88 09 00
	00		 cmp	 DWORD PTR [esi+2440], ecx
  006e0	74 1f		 je	 SHORT $LN46@PreView

; 1564 : 	{
; 1565 : 		pIChartManager->SetCandleTypeOnResize( m_nCandleTypeOnResize, TRUE);

  006e2	8b 03		 mov	 eax, DWORD PTR [ebx]
  006e4	6a 01		 push	 1
  006e6	51		 push	 ecx
  006e7	8b cb		 mov	 ecx, ebx
  006e9	ff 90 b4 00 00
	00		 call	 DWORD PTR [eax+180]

; 1566 : 		//m_MChartInterface.MChart_SetImaginaryCandleToOutside( m_nCandleType ? true : false);
; 1567 : 		m_nApplyCandleTypeOnResize = m_nCandleTypeOnResize;

  006ef	8b 86 80 03 00
	00		 mov	 eax, DWORD PTR [esi+896]
  006f5	89 86 88 09 00
	00		 mov	 DWORD PTR [esi+2440], eax

; 1568 : 		pIChartManager->Release();

  006fb	8b 03		 mov	 eax, DWORD PTR [ebx]
  006fd	53		 push	 ebx
  006fe	ff 50 08	 call	 DWORD PTR [eax+8]
$LN46@PreView:

; 1569 : 	}
; 1570 : 
; 1571 : 	// Update to Graph -> Because GraphDraw data manage in Graph Object for Final Version.
; 1572 : 	if (bChangeAllGraph)

  00701	83 7d dc 00	 cmp	 DWORD PTR _bChangeAllGraph$1$[ebp], 0
  00705	74 09		 je	 SHORT $LN47@PreView

; 1573 : 		pIChartManager->ChangeAllGraphDataFromGraphInfo( TRUE);

  00707	8b 03		 mov	 eax, DWORD PTR [ebx]
  00709	8b cb		 mov	 ecx, ebx
  0070b	6a 01		 push	 1
  0070d	ff 50 78	 call	 DWORD PTR [eax+120]
$LN47@PreView:

; 1574 : 
; 1575 : 	m_bPreview = TRUE;
; 1576 : 	m_pIChartOCX->InvalidateControl();

  00710	8b 8e d8 09 00
	00		 mov	 ecx, DWORD PTR [esi+2520]
  00716	c7 86 d4 09 00
	00 01 00 00 00	 mov	 DWORD PTR [esi+2516], 1
  00720	8b 01		 mov	 eax, DWORD PTR [ecx]
  00722	ff 50 38	 call	 DWORD PTR [eax+56]

; 1577 : }

  00725	8d 4d e8	 lea	 ecx, DWORD PTR _szUpDownSpace$[ebp]
  00728	ff 15 00 00 00
	00		 call	 DWORD PTR __imp_??1?$CStringT@DV?$StrTraitMFC_DLL@DV?$ChTraitsCRT@D@ATL@@@@@ATL@@QAE@XZ
  0072e	8d 4d e4	 lea	 ecx, DWORD PTR _szRightMargin$[ebp]
  00731	ff 15 00 00 00
	00		 call	 DWORD PTR __imp_??1?$CStringT@DV?$StrTraitMFC_DLL@DV?$ChTraitsCRT@D@ATL@@@@@ATL@@QAE@XZ
  00737	8b 4d f4	 mov	 ecx, DWORD PTR __$EHRec$[ebp]
  0073a	64 89 0d 00 00
	00 00		 mov	 DWORD PTR fs:0, ecx
  00741	59		 pop	 ecx
  00742	5f		 pop	 edi
  00743	5e		 pop	 esi
  00744	5b		 pop	 ebx
  00745	8b e5		 mov	 esp, ebp
  00747	5d		 pop	 ebp
  00748	c3		 ret	 0
_TEXT	ENDS
;	COMDAT text$x
text$x	SEGMENT
__unwindfunclet$?PreView@CDlgMainTabBaseEnvSetUp@@QAEXXZ$0:
  00000	8d 4d e4	 lea	 ecx, DWORD PTR _szRightMargin$[ebp]
  00003	ff 25 00 00 00
	00		 jmp	 DWORD PTR __imp_??1?$CStringT@DV?$StrTraitMFC_DLL@DV?$ChTraitsCRT@D@ATL@@@@@ATL@@QAE@XZ
__unwindfunclet$?PreView@CDlgMainTabBaseEnvSetUp@@QAEXXZ$1:
  00009	8d 4d ec	 lea	 ecx, DWORD PTR _szFutureTime$8[ebp]
  0000c	ff 25 00 00 00
	00		 jmp	 DWORD PTR __imp_??1?$CStringT@DV?$StrTraitMFC_DLL@DV?$ChTraitsCRT@D@ATL@@@@@ATL@@QAE@XZ
__unwindfunclet$?PreView@CDlgMainTabBaseEnvSetUp@@QAEXXZ$2:
  00012	8d 4d e8	 lea	 ecx, DWORD PTR _szUpDownSpace$[ebp]
  00015	ff 25 00 00 00
	00		 jmp	 DWORD PTR __imp_??1?$CStringT@DV?$StrTraitMFC_DLL@DV?$ChTraitsCRT@D@ATL@@@@@ATL@@QAE@XZ
  0001b	cc		 int	 3
  0001c	cc		 int	 3
  0001d	cc		 int	 3
  0001e	cc		 int	 3
  0001f	cc		 int	 3
__ehhandler$?PreView@CDlgMainTabBaseEnvSetUp@@QAEXXZ:
  00020	90		 npad	 1
  00021	90		 npad	 1
  00022	8b 54 24 08	 mov	 edx, DWORD PTR [esp+8]
  00026	8d 42 0c	 lea	 eax, DWORD PTR [edx+12]
  00029	8b 4a d8	 mov	 ecx, DWORD PTR [edx-40]
  0002c	33 c8		 xor	 ecx, eax
  0002e	e8 00 00 00 00	 call	 @__security_check_cookie@4
  00033	b8 00 00 00 00	 mov	 eax, OFFSET __ehfuncinfo$?PreView@CDlgMainTabBaseEnvSetUp@@QAEXXZ
  00038	e9 00 00 00 00	 jmp	 ___CxxFrameHandler3
text$x	ENDS
?PreView@CDlgMainTabBaseEnvSetUp@@QAEXXZ ENDP		; CDlgMainTabBaseEnvSetUp::PreView
; Function compile flags: /Ogtp
; File D:\git\src\IBK\IBK_DRFN\ProjSrc\SrcChartEx\ChartAddIn\ChartEnvSetupDlgAddIn\ChartEnvSetupDlgAddIn\DlgMainTabBaseEnvSetUp.cpp
; File C:\Program Files (x86)\Microsoft Visual Studio\2019\Community\VC\Tools\MSVC\14.29.30133\atlmfc\include\afxwin2.inl
; File D:\git\src\IBK\IBK_DRFN\ProjSrc\SrcChartEx\ChartAddIn\ChartEnvSetupDlgAddIn\ChartEnvSetupDlgAddIn\DlgMainTabBaseEnvSetUp.cpp
; File C:\Program Files (x86)\Microsoft Visual Studio\2019\Community\VC\Tools\MSVC\14.29.30133\atlmfc\include\afxwin2.inl
; File D:\git\src\IBK\IBK_DRFN\ProjSrc\SrcChartEx\ChartAddIn\ChartEnvSetupDlgAddIn\ChartEnvSetupDlgAddIn\DlgMainTabBaseEnvSetUp.cpp
; File C:\Program Files (x86)\Microsoft Visual Studio\2019\Community\VC\Tools\MSVC\14.29.30133\atlmfc\include\afxwin2.inl
; File D:\git\src\IBK\IBK_DRFN\ProjSrc\SrcChartEx\ChartAddIn\ChartEnvSetupDlgAddIn\ChartEnvSetupDlgAddIn\DlgMainTabBaseEnvSetUp.cpp
;	COMDAT ?Save@CDlgMainTabBaseEnvSetUp@@QAEXXZ
_TEXT	SEGMENT
tv1880 = -32						; size = 4
_bChangeAllGraph$1$ = -32				; size = 4
_bIsChanged$1$ = -28					; size = 4
_bWithLastValue$2 = -28					; size = 4
_bWithLastValue$3 = -28					; size = 4
_szRightMargin$ = -24					; size = 4
_szUpDownSpace$ = -20					; size = 4
_pIAddInToolMgr$1$ = -16				; size = 4
_bWithConditionValue$4 = -16				; size = 4
_bWithConditionValue$5 = -16				; size = 4
_lResult$6 = -16					; size = 4
_lResult$7 = -16					; size = 4
_szFutureTime$8 = -16					; size = 4
__$EHRec$ = -12						; size = 12
?Save@CDlgMainTabBaseEnvSetUp@@QAEXXZ PROC		; CDlgMainTabBaseEnvSetUp::Save, COMDAT
; _this$ = ecx

; 700  : {

  00000	55		 push	 ebp
  00001	8b ec		 mov	 ebp, esp
  00003	6a ff		 push	 -1
  00005	68 00 00 00 00	 push	 __ehhandler$?Save@CDlgMainTabBaseEnvSetUp@@QAEXXZ
  0000a	64 a1 00 00 00
	00		 mov	 eax, DWORD PTR fs:0
  00010	50		 push	 eax
  00011	83 ec 14	 sub	 esp, 20			; 00000014H
  00014	53		 push	 ebx
  00015	56		 push	 esi
  00016	57		 push	 edi
  00017	a1 00 00 00 00	 mov	 eax, DWORD PTR ___security_cookie
  0001c	33 c5		 xor	 eax, ebp
  0001e	50		 push	 eax
  0001f	8d 45 f4	 lea	 eax, DWORD PTR __$EHRec$[ebp]
  00022	64 a3 00 00 00
	00		 mov	 DWORD PTR fs:0, eax
  00028	8b f1		 mov	 esi, ecx

; 701  : 	// TODO: Add your control notification handler code here
; 702  : 	m_bPreview = FALSE;
; 703  : 	
; 704  : 	UpdateData(TRUE);

  0002a	6a 01		 push	 1
  0002c	c7 86 d4 09 00
	00 00 00 00 00	 mov	 DWORD PTR [esi+2516], 0
  00036	e8 00 00 00 00	 call	 ?UpdateData@CWnd@@QAEHH@Z ; CWnd::UpdateData

; 705  : 	
; 706  : 	// 1. Y  ( 0:, 1:, 2:, 3: )
; 707  : 	int nYScalePosition;
; 708  : 	if( m_bYScalePositionLeftSide && m_bYScalePositionRightSide == FALSE )

  0003b	83 be 88 03 00
	00 00		 cmp	 DWORD PTR [esi+904], 0
  00042	8b 86 8c 03 00
	00		 mov	 eax, DWORD PTR [esi+908]
  00048	74 0f		 je	 SHORT $LN97@Save
  0004a	85 c0		 test	 eax, eax
  0004c	75 04		 jne	 SHORT $LN94@Save

; 709  : 		nYScalePosition = 0;

  0004e	33 ff		 xor	 edi, edi
  00050	eb 16		 jmp	 SHORT $LN8@Save
$LN94@Save:

; 713  : 
; 714  : 	else if( m_bYScalePositionLeftSide && m_bYScalePositionRightSide)
; 715  : 		nYScalePosition = 2;

  00052	bf 02 00 00 00	 mov	 edi, 2
  00057	eb 0f		 jmp	 SHORT $LN8@Save
$LN97@Save:

; 710  : 
; 711  : 	else if( m_bYScalePositionLeftSide == FALSE && m_bYScalePositionRightSide)

  00059	85 c0		 test	 eax, eax

; 712  : 		nYScalePosition = 1;

  0005b	b9 01 00 00 00	 mov	 ecx, 1

; 716  : 
; 717  : 	else if( m_bYScalePositionLeftSide == FALSE && m_bYScalePositionRightSide == FALSE )
; 718  : 		nYScalePosition = 3;

  00060	bf 03 00 00 00	 mov	 edi, 3
  00065	0f 45 f9	 cmovne	 edi, ecx
$LN8@Save:

; 719  : 
; 720  : 	if( m_nApplyYScalePosition != nYScalePosition )

  00068	39 be 9c 09 00
	00		 cmp	 DWORD PTR [esi+2460], edi
  0006e	74 2b		 je	 SHORT $LN9@Save

; 1989 : 	IChartManager *pIChartManager = m_pIChartOCX->GetIChartManager();

  00070	8b 8e d8 09 00
	00		 mov	 ecx, DWORD PTR [esi+2520]
  00076	8b 01		 mov	 eax, DWORD PTR [ecx]
  00078	ff 50 18	 call	 DWORD PTR [eax+24]
  0007b	8b d8		 mov	 ebx, eax

; 1990 : 	if( !pIChartManager) return;

  0007d	85 db		 test	 ebx, ebx
  0007f	74 0e		 je	 SHORT $LN56@Save

; 1991 : 
; 1992 : 	pIChartManager->SetAllVertScalePosition( CScaleBaseData::VERTSCALEPOSITION( nPosition));

  00081	8b 13		 mov	 edx, DWORD PTR [ebx]
  00083	8b cb		 mov	 ecx, ebx
  00085	57		 push	 edi
  00086	ff 52 38	 call	 DWORD PTR [edx+56]

; 1993 : 	pIChartManager->Release();

  00089	8b 0b		 mov	 ecx, DWORD PTR [ebx]
  0008b	53		 push	 ebx
  0008c	ff 51 08	 call	 DWORD PTR [ecx+8]
$LN56@Save:

; 721  : 	{
; 722  : 		SetYScalePosition( nYScalePosition );
; 723  : 		m_nApplyYScalePosition = nYScalePosition;

  0008f	89 be 9c 09 00
	00		 mov	 DWORD PTR [esi+2460], edi

; 724  : 		m_nOrgYScalePosition = nYScalePosition;

  00095	89 be 48 09 00
	00		 mov	 DWORD PTR [esi+2376], edi
$LN9@Save:

; 725  : 	}
; 726  : 
; 727  : 	// (2009/9/3 - Seung-Won, Bae) Check the control not in common.
; 728  : 	if( GetDlgItem( IDC_RDO_OHLC))

  0009b	68 68 1f 00 00	 push	 8040			; 00001f68H
  000a0	8b ce		 mov	 ecx, esi
  000a2	e8 00 00 00 00	 call	 ?GetDlgItem@CWnd@@QBEPAV1@H@Z ; CWnd::GetDlgItem
  000a7	85 c0		 test	 eax, eax
  000a9	74 2c		 je	 SHORT $LN10@Save

; 729  : 	{
; 730  : 		// (2008/10/26 - Seung-Won, Bae) for O/H/L/C (not LH/LC/HC)
; 731  : 		int nLH_LC_HC = m_nLH_LC_HC;

  000ab	8b be 0c 05 00
	00		 mov	 edi, DWORD PTR [esi+1292]

; 732  : 		if( m_nApplyLH_LC_HC != nLH_LC_HC || m_nOrgLH_LC_HC != nLH_LC_HC)

  000b1	39 be bc 09 00
	00		 cmp	 DWORD PTR [esi+2492], edi
  000b7	75 08		 jne	 SHORT $LN13@Save
  000b9	39 be 68 09 00
	00		 cmp	 DWORD PTR [esi+2408], edi
  000bf	74 47		 je	 SHORT $LN14@Save
$LN13@Save:

; 733  : 		{
; 734  : 			SetShowLH_LC_HC( nLH_LC_HC );

  000c1	57		 push	 edi
  000c2	8b ce		 mov	 ecx, esi
  000c4	e8 00 00 00 00	 call	 ?SetShowLH_LC_HC@CDlgMainTabBaseEnvSetUp@@IAEXH@Z ; CDlgMainTabBaseEnvSetUp::SetShowLH_LC_HC

; 735  : 			m_nApplyLH_LC_HC = nLH_LC_HC;

  000c9	89 be bc 09 00
	00		 mov	 DWORD PTR [esi+2492], edi

; 736  : 			m_nOrgLH_LC_HC = nLH_LC_HC;

  000cf	89 be 68 09 00
	00		 mov	 DWORD PTR [esi+2408], edi

; 737  : 		}
; 738  : 	}

  000d5	eb 31		 jmp	 SHORT $LN14@Save
$LN10@Save:

; 739  : 	else
; 740  : 	{
; 741  : 		BOOL bLH_LC_HC = m_bLH_LC_HC;

  000d7	8b be 04 05 00
	00		 mov	 edi, DWORD PTR [esi+1284]

; 742  : 		if( m_bApplyLH_LC_HC != bLH_LC_HC || m_bOrgLH_LC_HC != bLH_LC_HC)

  000dd	39 be b8 09 00
	00		 cmp	 DWORD PTR [esi+2488], edi
  000e3	75 08		 jne	 SHORT $LN15@Save
  000e5	39 be 64 09 00
	00		 cmp	 DWORD PTR [esi+2404], edi
  000eb	74 1b		 je	 SHORT $LN14@Save
$LN15@Save:

; 743  : 		{
; 744  : 			SetShowLH_LC_HC( bLH_LC_HC ? 1 : 0);

  000ed	33 c0		 xor	 eax, eax
  000ef	8b ce		 mov	 ecx, esi
  000f1	85 ff		 test	 edi, edi
  000f3	0f 95 c0	 setne	 al
  000f6	50		 push	 eax
  000f7	e8 00 00 00 00	 call	 ?SetShowLH_LC_HC@CDlgMainTabBaseEnvSetUp@@IAEXH@Z ; CDlgMainTabBaseEnvSetUp::SetShowLH_LC_HC

; 745  : 			m_bApplyLH_LC_HC = bLH_LC_HC;

  000fc	89 be b8 09 00
	00		 mov	 DWORD PTR [esi+2488], edi

; 746  : 			m_bOrgLH_LC_HC = bLH_LC_HC;

  00102	89 be 64 09 00
	00		 mov	 DWORD PTR [esi+2404], edi
$LN14@Save:

; 747  : 		}
; 748  : 	}
; 749  : 
; 750  : 	int nShowCurrentPrice = GetCurrentPrice();

  00108	8b ce		 mov	 ecx, esi
  0010a	e8 00 00 00 00	 call	 ?GetCurrentPrice@CDlgMainTabBaseEnvSetUp@@ABEHXZ ; CDlgMainTabBaseEnvSetUp::GetCurrentPrice
  0010f	8b f8		 mov	 edi, eax

; 977  : 	if(m_nApplyShowCurrentPrice != nShowCurrentPrice)

  00111	39 be 98 09 00
	00		 cmp	 DWORD PTR [esi+2456], edi
  00117	75 08		 jne	 SHORT $LN98@Save

; 751  : 	if(IsApplyShowCurrentPrice(nShowCurrentPrice))

  00119	39 be 44 09 00
	00		 cmp	 DWORD PTR [esi+2372], edi
  0011f	74 14		 je	 SHORT $LN16@Save
$LN98@Save:

; 752  : 	{
; 753  : 		SetShowCurrentPrice( nShowCurrentPrice );

  00121	57		 push	 edi
  00122	8b ce		 mov	 ecx, esi
  00124	e8 00 00 00 00	 call	 ?SetShowCurrentPrice@CDlgMainTabBaseEnvSetUp@@IAEXH@Z ; CDlgMainTabBaseEnvSetUp::SetShowCurrentPrice

; 754  : // vntsorl_20110609:[A00000259]     
; 755  : 		m_nApplyShowCurrentPrice = nShowCurrentPrice;

  00129	89 be 98 09 00
	00		 mov	 DWORD PTR [esi+2456], edi

; 756  : 		m_nOrgShowCurrentPrice = nShowCurrentPrice;

  0012f	89 be 44 09 00
	00		 mov	 DWORD PTR [esi+2372], edi
$LN16@Save:

; 757  : 	}
; 758  : 
; 759  : 	IChartManager *pIChartManager = m_pIChartOCX->GetIChartManager();

  00135	8b 8e d8 09 00
	00		 mov	 ecx, DWORD PTR [esi+2520]
  0013b	8b 01		 mov	 eax, DWORD PTR [ecx]
  0013d	ff 50 18	 call	 DWORD PTR [eax+24]

; 760  : 
; 761  : 	// 2.  
; 762  : 	CString szRightMargin = "";

  00140	68 00 00 00 00	 push	 OFFSET ??_C@_00CNPNBAHC@@
  00145	8d 4d e8	 lea	 ecx, DWORD PTR _szRightMargin$[ebp]
  00148	8b f8		 mov	 edi, eax
  0014a	ff 15 00 00 00
	00		 call	 DWORD PTR __imp_??0?$CStringT@DV?$StrTraitMFC_DLL@DV?$ChTraitsCRT@D@ATL@@@@@ATL@@QAE@PBD@Z

; 763  : 	m_edtRightMargin.GetWindowText(szRightMargin);

  00150	8d 45 e8	 lea	 eax, DWORD PTR _szRightMargin$[ebp]
  00153	c7 45 fc 00 00
	00 00		 mov	 DWORD PTR __$EHRec$[ebp+8], 0
  0015a	50		 push	 eax
  0015b	8d 8e 50 02 00
	00		 lea	 ecx, DWORD PTR [esi+592]
  00161	e8 00 00 00 00	 call	 ?GetWindowTextA@CWnd@@QBEXAAV?$CStringT@DV?$StrTraitMFC_DLL@DV?$ChTraitsCRT@D@ATL@@@@@ATL@@@Z ; CWnd::GetWindowTextA

; 764  : 	int nRightMargin = atoi( szRightMargin );

  00166	ff 75 e8	 push	 DWORD PTR _szRightMargin$[ebp]
  00169	ff 15 00 00 00
	00		 call	 DWORD PTR __imp__atoi
  0016f	83 c4 04	 add	 esp, 4
  00172	8b d8		 mov	 ebx, eax

; 765  : 	if( pIChartManager && m_nApplyRightMargin != nRightMargin )

  00174	85 ff		 test	 edi, edi
  00176	74 23		 je	 SHORT $LN17@Save
  00178	39 9e 7c 09 00
	00		 cmp	 DWORD PTR [esi+2428], ebx
  0017e	74 1b		 je	 SHORT $LN17@Save

; 766  : 	{
; 767  : 		// (2009/5/13 - Seung-Won, Bae) Manage right margin for only non special chart.
; 768  : 		m_pIChartOCX->SetRightMarginWidth( nRightMargin);

  00180	8b 8e d8 09 00
	00		 mov	 ecx, DWORD PTR [esi+2520]
  00186	53		 push	 ebx
  00187	8b 11		 mov	 edx, DWORD PTR [ecx]
  00189	ff 92 14 02 00
	00		 call	 DWORD PTR [edx+532]

; 769  : 		m_nApplyRightMargin = nRightMargin;

  0018f	89 9e 7c 09 00
	00		 mov	 DWORD PTR [esi+2428], ebx

; 770  : 		m_nOrgRightMargin = nRightMargin;

  00195	89 9e 28 09 00
	00		 mov	 DWORD PTR [esi+2344], ebx
$LN17@Save:

; 774  : 	if( m_edtFutureTime.GetSafeHwnd() && m_spnFutureTime.GetSafeHwnd())

  0019b	8d 9e c8 03 00
	00		 lea	 ebx, DWORD PTR [esi+968]
; File C:\Program Files (x86)\Microsoft Visual Studio\2019\Community\VC\Tools\MSVC\14.29.30133\atlmfc\include\afxwin2.inl

; 25   : 	{ return this == NULL ? NULL : m_hWnd; }

  001a1	85 db		 test	 ebx, ebx
  001a3	74 75		 je	 SHORT $LN18@Save
; File D:\git\src\IBK\IBK_DRFN\ProjSrc\SrcChartEx\ChartAddIn\ChartEnvSetupDlgAddIn\ChartEnvSetupDlgAddIn\DlgMainTabBaseEnvSetUp.cpp

; 774  : 	if( m_edtFutureTime.GetSafeHwnd() && m_spnFutureTime.GetSafeHwnd())

  001a5	83 7b 20 00	 cmp	 DWORD PTR [ebx+32], 0
  001a9	74 6f		 je	 SHORT $LN18@Save
  001ab	8d 86 70 04 00
	00		 lea	 eax, DWORD PTR [esi+1136]
; File C:\Program Files (x86)\Microsoft Visual Studio\2019\Community\VC\Tools\MSVC\14.29.30133\atlmfc\include\afxwin2.inl

; 25   : 	{ return this == NULL ? NULL : m_hWnd; }

  001b1	85 c0		 test	 eax, eax
  001b3	74 65		 je	 SHORT $LN18@Save
; File D:\git\src\IBK\IBK_DRFN\ProjSrc\SrcChartEx\ChartAddIn\ChartEnvSetupDlgAddIn\ChartEnvSetupDlgAddIn\DlgMainTabBaseEnvSetUp.cpp

; 774  : 	if( m_edtFutureTime.GetSafeHwnd() && m_spnFutureTime.GetSafeHwnd())

  001b5	83 78 20 00	 cmp	 DWORD PTR [eax+32], 0
  001b9	74 5f		 je	 SHORT $LN18@Save

; 775  : 	{
; 776  : 		// (2009/5/17 - Seung-Won, Bae) for Future Time
; 777  : 		CString szFutureTime = "";

  001bb	68 00 00 00 00	 push	 OFFSET ??_C@_00CNPNBAHC@@
  001c0	8d 4d f0	 lea	 ecx, DWORD PTR _szFutureTime$8[ebp]
  001c3	ff 15 00 00 00
	00		 call	 DWORD PTR __imp_??0?$CStringT@DV?$StrTraitMFC_DLL@DV?$ChTraitsCRT@D@ATL@@@@@ATL@@QAE@PBD@Z

; 778  : 		m_edtFutureTime.GetWindowText(szFutureTime);

  001c9	8d 45 f0	 lea	 eax, DWORD PTR _szFutureTime$8[ebp]
  001cc	c6 45 fc 01	 mov	 BYTE PTR __$EHRec$[ebp+8], 1
  001d0	50		 push	 eax
  001d1	8b cb		 mov	 ecx, ebx
  001d3	e8 00 00 00 00	 call	 ?GetWindowTextA@CWnd@@QBEXAAV?$CStringT@DV?$StrTraitMFC_DLL@DV?$ChTraitsCRT@D@ATL@@@@@ATL@@@Z ; CWnd::GetWindowTextA

; 779  : 		int nFutureTime = atoi( szFutureTime );

  001d8	ff 75 f0	 push	 DWORD PTR _szFutureTime$8[ebp]
  001db	ff 15 00 00 00
	00		 call	 DWORD PTR __imp__atoi
  001e1	83 c4 04	 add	 esp, 4
  001e4	8b d8		 mov	 ebx, eax

; 780  : 		if( pIChartManager && m_nApplyFutureTime != nFutureTime )

  001e6	85 ff		 test	 edi, edi
  001e8	74 23		 je	 SHORT $LN19@Save
  001ea	39 9e 80 09 00
	00		 cmp	 DWORD PTR [esi+2432], ebx
  001f0	74 1b		 je	 SHORT $LN19@Save

; 781  : 		{
; 782  : 			// (2009/5/13 - Seung-Won, Bae) Manage right margin for only non special chart.
; 783  : 			m_pIChartOCX->SetFutureTimeCount( nFutureTime);

  001f2	8b 8e d8 09 00
	00		 mov	 ecx, DWORD PTR [esi+2520]
  001f8	53		 push	 ebx
  001f9	8b 11		 mov	 edx, DWORD PTR [ecx]
  001fb	ff 92 1c 02 00
	00		 call	 DWORD PTR [edx+540]

; 784  : 			m_nApplyFutureTime = nFutureTime;

  00201	89 9e 80 09 00
	00		 mov	 DWORD PTR [esi+2432], ebx

; 785  : 			m_nOrgFutureTime = nFutureTime;

  00207	89 9e 2c 09 00
	00		 mov	 DWORD PTR [esi+2348], ebx
$LN19@Save:

; 786  : 		}
; 787  : 	}

  0020d	8d 4d f0	 lea	 ecx, DWORD PTR _szFutureTime$8[ebp]
  00210	c6 45 fc 00	 mov	 BYTE PTR __$EHRec$[ebp+8], 0
  00214	ff 15 00 00 00
	00		 call	 DWORD PTR __imp_??1?$CStringT@DV?$StrTraitMFC_DLL@DV?$ChTraitsCRT@D@ATL@@@@@ATL@@QAE@XZ
$LN18@Save:

; 788  : 
; 789  : 	m_pIChartOCX->SetMouseWheelIndex( m_nMouseWheelIndex);

  0021a	8b 8e d8 09 00
	00		 mov	 ecx, DWORD PTR [esi+2520]
  00220	ff b6 bc 03 00
	00		 push	 DWORD PTR [esi+956]
  00226	8b 01		 mov	 eax, DWORD PTR [ecx]
  00228	ff 90 2c 02 00
	00		 call	 DWORD PTR [eax+556]

; 790  : 	m_nApplyMouseWheelIndex = m_nMouseWheelIndex;

  0022e	8b 86 bc 03 00
	00		 mov	 eax, DWORD PTR [esi+956]

; 791  : 	m_nOrgMouseWheelIndex = m_nMouseWheelIndex;
; 792  : 
; 793  : 	// (2007/7/18 - Seung-Won, Bae) Up/Down Space.
; 794  : 	CString szUpDownSpace = "";

  00234	8d 4d ec	 lea	 ecx, DWORD PTR _szUpDownSpace$[ebp]
  00237	68 00 00 00 00	 push	 OFFSET ??_C@_00CNPNBAHC@@
  0023c	89 86 84 09 00
	00		 mov	 DWORD PTR [esi+2436], eax
  00242	89 86 30 09 00
	00		 mov	 DWORD PTR [esi+2352], eax
  00248	ff 15 00 00 00
	00		 call	 DWORD PTR __imp_??0?$CStringT@DV?$StrTraitMFC_DLL@DV?$ChTraitsCRT@D@ATL@@@@@ATL@@QAE@PBD@Z

; 795  : 	m_edtUpDownSpace.GetWindowText(szUpDownSpace);

  0024e	8d 45 ec	 lea	 eax, DWORD PTR _szUpDownSpace$[ebp]
  00251	c6 45 fc 02	 mov	 BYTE PTR __$EHRec$[ebp+8], 2
  00255	50		 push	 eax
  00256	8d 8e 28 01 00
	00		 lea	 ecx, DWORD PTR [esi+296]
  0025c	e8 00 00 00 00	 call	 ?GetWindowTextA@CWnd@@QBEXAAV?$CStringT@DV?$StrTraitMFC_DLL@DV?$ChTraitsCRT@D@ATL@@@@@ATL@@@Z ; CWnd::GetWindowTextA

; 796  : 	int nUpDownSpace = atoi( szUpDownSpace );

  00261	ff 75 ec	 push	 DWORD PTR _szUpDownSpace$[ebp]
  00264	ff 15 00 00 00
	00		 call	 DWORD PTR __imp__atoi
  0026a	8b d8		 mov	 ebx, eax
  0026c	83 c4 04	 add	 esp, 4

; 797  : 	if( m_nApplyUpDownSpace != nUpDownSpace )

  0026f	39 9e 08 0a 00
	00		 cmp	 DWORD PTR [esi+2568], ebx
  00275	74 14		 je	 SHORT $LN20@Save

; 798  : 	{
; 799  : 		SetUpDownSpace( nUpDownSpace );

  00277	53		 push	 ebx
  00278	8b ce		 mov	 ecx, esi
  0027a	e8 00 00 00 00	 call	 ?SetUpDownSpace@CDlgMainTabBaseEnvSetUp@@IAEXH@Z ; CDlgMainTabBaseEnvSetUp::SetUpDownSpace

; 800  : 		m_nApplyUpDownSpace = nUpDownSpace;

  0027f	89 9e 08 0a 00
	00		 mov	 DWORD PTR [esi+2568], ebx

; 801  : 		m_nOrgUpDownSpace = nUpDownSpace;

  00285	89 9e 04 0a 00
	00		 mov	 DWORD PTR [esi+2564], ebx
$LN20@Save:

; 802  : 	}
; 803  : 
; 804  : 	// 2.1 
; 805  : 	if( pIChartManager && m_bApplyFixInterval != m_bFixInterval )

  0028b	85 ff		 test	 edi, edi
  0028d	74 2d		 je	 SHORT $LN21@Save
  0028f	8b 8e b4 03 00
	00		 mov	 ecx, DWORD PTR [esi+948]
  00295	39 8e b0 09 00
	00		 cmp	 DWORD PTR [esi+2480], ecx
  0029b	74 1f		 je	 SHORT $LN21@Save

; 806  : 	{
; 807  : 		pIChartManager->SetFixedInterval( m_bFixInterval, TRUE );

  0029d	8b 07		 mov	 eax, DWORD PTR [edi]
  0029f	6a 01		 push	 1
  002a1	51		 push	 ecx
  002a2	8b cf		 mov	 ecx, edi
  002a4	ff 90 bc 00 00
	00		 call	 DWORD PTR [eax+188]

; 808  : 		m_bApplyFixInterval = m_bFixInterval;

  002aa	8b 86 b4 03 00
	00		 mov	 eax, DWORD PTR [esi+948]
  002b0	89 86 b0 09 00
	00		 mov	 DWORD PTR [esi+2480], eax

; 809  : 		m_bOrgFixInterval = m_bFixInterval;

  002b6	89 86 5c 09 00
	00		 mov	 DWORD PTR [esi+2396], eax
$LN21@Save:

; 810  : 	}
; 811  : 
; 812  : 	// 3.  
; 813  : 	if( m_bApplyShowExRightDividend != ( m_bShowExRightDividend ? true : false ) )

  002bc	83 be f0 04 00
	00 00		 cmp	 DWORD PTR [esi+1264], 0
  002c3	0f 95 c0	 setne	 al
  002c6	38 86 93 09 00
	00		 cmp	 BYTE PTR [esi+2451], al
  002cc	74 1e		 je	 SHORT $LN22@Save

; 814  : 	{
; 815  : 		SetShowExRightDividend( ( m_bShowExRightDividend ? true : false ) );

  002ce	50		 push	 eax
  002cf	8b ce		 mov	 ecx, esi
  002d1	e8 00 00 00 00	 call	 ?SetShowExRightDividend@CDlgMainTabBaseEnvSetUp@@IAEX_N@Z ; CDlgMainTabBaseEnvSetUp::SetShowExRightDividend

; 816  : 		m_bApplyShowExRightDividend = ( m_bShowExRightDividend ? true : false );

  002d6	83 be f0 04 00
	00 00		 cmp	 DWORD PTR [esi+1264], 0
  002dd	0f 95 c0	 setne	 al
  002e0	88 86 93 09 00
	00		 mov	 BYTE PTR [esi+2451], al

; 817  : 		m_bOrgShowExRightDividend = m_bApplyShowExRightDividend;

  002e6	88 86 3f 09 00
	00		 mov	 BYTE PTR [esi+2367], al
$LN22@Save:

; 1781 : 	IAddInToolMgr *pIAddInToolMgr = m_pIChartOCX->GetIAddInToolMgr();

  002ec	8b 8e d8 09 00
	00		 mov	 ecx, DWORD PTR [esi+2520]
  002f2	c7 45 f0 00 00
	00 00		 mov	 DWORD PTR _lResult$7[ebp], 0
  002f9	8b 01		 mov	 eax, DWORD PTR [ecx]
  002fb	ff 50 24	 call	 DWORD PTR [eax+36]
  002fe	8b d8		 mov	 ebx, eax

; 1782 : 	if( pIAddInToolMgr)

  00300	85 db		 test	 ebx, ebx
  00302	74 13		 je	 SHORT $LN77@Save

; 1783 : 	{
; 1784 : 		pIAddInToolMgr->OnAddInToolCommand( lResult, EAI_CUSTOM_GET_EXISTENCE_BOUNDMARK);

  00304	8b 13		 mov	 edx, DWORD PTR [ebx]
  00306	8d 45 f0	 lea	 eax, DWORD PTR _lResult$7[ebp]
  00309	6a 0b		 push	 11			; 0000000bH
  0030b	50		 push	 eax
  0030c	8b cb		 mov	 ecx, ebx
  0030e	ff 52 70	 call	 DWORD PTR [edx+112]

; 1785 : 		pIAddInToolMgr->Release();

  00311	8b 03		 mov	 eax, DWORD PTR [ebx]
  00313	53		 push	 ebx
  00314	ff 50 08	 call	 DWORD PTR [eax+8]
$LN77@Save:

; 818  : 	}
; 819  : 
; 820  : 	if( GetExistenceHighLowBound())

  00317	83 7d f0 00	 cmp	 DWORD PTR _lResult$7[ebp], 0
  0031b	74 38		 je	 SHORT $LN24@Save

; 821  : 	{
; 822  : 		if( m_bApplyShowHighLowBound != ( m_bShowHighLowBound ? true : false ) )

  0031d	8b 8e f4 04 00
	00		 mov	 ecx, DWORD PTR [esi+1268]
  00323	85 c9		 test	 ecx, ecx
  00325	0f 95 c0	 setne	 al
  00328	38 86 92 09 00
	00		 cmp	 BYTE PTR [esi+2450], al
  0032e	74 25		 je	 SHORT $LN24@Save

; 823  : 		{
; 824  : 			SetShowHighLowBound( ( m_bShowHighLowBound ? true : false ) );

  00330	33 c0		 xor	 eax, eax
  00332	85 c9		 test	 ecx, ecx
  00334	8b ce		 mov	 ecx, esi
  00336	0f 95 c0	 setne	 al
  00339	50		 push	 eax
  0033a	e8 00 00 00 00	 call	 ?SetShowHighLowBound@CDlgMainTabBaseEnvSetUp@@IAEXH@Z ; CDlgMainTabBaseEnvSetUp::SetShowHighLowBound

; 825  : 			m_bApplyShowHighLowBound = ( m_bShowHighLowBound ? true : false );

  0033f	83 be f4 04 00
	00 00		 cmp	 DWORD PTR [esi+1268], 0
  00346	0f 95 c0	 setne	 al
  00349	88 86 92 09 00
	00		 mov	 BYTE PTR [esi+2450], al

; 826  : 			m_bOrgShowHighLowBound = m_bApplyShowHighLowBound;

  0034f	88 86 3e 09 00
	00		 mov	 BYTE PTR [esi+2366], al
$LN24@Save:

; 1806 :  	IAddInToolMgr *pIAddInToolMgr = m_pIChartOCX->GetIAddInToolMgr();

  00355	8b 8e d8 09 00
	00		 mov	 ecx, DWORD PTR [esi+2520]
  0035b	c7 45 f0 00 00
	00 00		 mov	 DWORD PTR _lResult$6[ebp], 0
  00362	8b 01		 mov	 eax, DWORD PTR [ecx]
  00364	ff 50 24	 call	 DWORD PTR [eax+36]
  00367	8b d8		 mov	 ebx, eax

; 1807 :  	if( pIAddInToolMgr)

  00369	85 db		 test	 ebx, ebx
  0036b	74 13		 je	 SHORT $LN80@Save

; 1808 :  	{
; 1809 :  		pIAddInToolMgr->OnAddInToolCommand( lResult, EAI_CUSTOM_GET_EXISTENCE_LOWHIGHMARK);

  0036d	8b 13		 mov	 edx, DWORD PTR [ebx]
  0036f	8d 45 f0	 lea	 eax, DWORD PTR _lResult$6[ebp]
  00372	6a 47		 push	 71			; 00000047H
  00374	50		 push	 eax
  00375	8b cb		 mov	 ecx, ebx
  00377	ff 52 70	 call	 DWORD PTR [edx+112]

; 1810 :  		pIAddInToolMgr->Release();

  0037a	8b 03		 mov	 eax, DWORD PTR [ebx]
  0037c	53		 push	 ebx
  0037d	ff 50 08	 call	 DWORD PTR [eax+8]
$LN80@Save:

; 827  : 		}
; 828  : 	}
; 829  : 
; 830  : 	//>>20100120_JS.Kim_alzioyes	/ 
; 831  : 	if( GetExistenceLowHighMarker())

  00380	83 7d f0 00	 cmp	 DWORD PTR _lResult$6[ebp], 0
  00384	74 55		 je	 SHORT $LN26@Save

; 832  : 	{
; 833  : 		if( m_bApplyShowLowHighMarker != ( m_bShowLowHighMarker ? true : false ) )

  00386	8b 86 fc 04 00
	00		 mov	 eax, DWORD PTR [esi+1276]
  0038c	85 c0		 test	 eax, eax
  0038e	89 45 e0	 mov	 DWORD PTR tv1880[ebp], eax
  00391	0f 95 c0	 setne	 al
  00394	38 86 94 09 00
	00		 cmp	 BYTE PTR [esi+2452], al
  0039a	74 3f		 je	 SHORT $LN26@Save

; 1827 :  	IAddInToolMgr *pIAddInToolMgr = m_pIChartOCX->GetIAddInToolMgr();

  0039c	8b 8e d8 09 00
	00		 mov	 ecx, DWORD PTR [esi+2520]
  003a2	8b 01		 mov	 eax, DWORD PTR [ecx]
  003a4	ff 50 24	 call	 DWORD PTR [eax+36]
  003a7	8b d8		 mov	 ebx, eax

; 1828 :  	if( pIAddInToolMgr)

  003a9	85 db		 test	 ebx, ebx
  003ab	74 18		 je	 SHORT $LN83@Save

; 1829 :  	{
; 1830 :  		pIAddInToolMgr->OnAddInToolCommand( EAI_CUSTOM_ENABLE_LOWHIGHMARK, p_bEnable);

  003ad	8b 13		 mov	 edx, DWORD PTR [ebx]

; 834  : 		{
; 835  : 			SetShowLowHighMarker( ( m_bShowLowHighMarker ? true : false ) );

  003af	33 c9		 xor	 ecx, ecx
  003b1	39 4d e0	 cmp	 DWORD PTR tv1880[ebp], ecx
  003b4	0f 95 c1	 setne	 cl

; 1830 :  		pIAddInToolMgr->OnAddInToolCommand( EAI_CUSTOM_ENABLE_LOWHIGHMARK, p_bEnable);

  003b7	51		 push	 ecx
  003b8	6a 45		 push	 69			; 00000045H
  003ba	8b cb		 mov	 ecx, ebx
  003bc	ff 52 7c	 call	 DWORD PTR [edx+124]

; 1831 :  		pIAddInToolMgr->Release();

  003bf	8b 03		 mov	 eax, DWORD PTR [ebx]
  003c1	53		 push	 ebx
  003c2	ff 50 08	 call	 DWORD PTR [eax+8]
$LN83@Save:

; 836  : 			m_bApplyShowLowHighMarker = ( m_bShowLowHighMarker ? true : false );

  003c5	83 be fc 04 00
	00 00		 cmp	 DWORD PTR [esi+1276], 0
  003cc	0f 95 c0	 setne	 al
  003cf	88 86 94 09 00
	00		 mov	 BYTE PTR [esi+2452], al

; 837  : 			m_bOrgShowLowHighMarker = m_bApplyShowLowHighMarker;

  003d5	88 86 40 09 00
	00		 mov	 BYTE PTR [esi+2368], al
$LN26@Save:

; 838  : 		}
; 839  : 	}
; 840  : 	//<<
; 841  : 
; 842  : 	if( m_MChartInterface.InitMChartInterface061115() ) m_MChartInterface.SetRevisedPriceFlag( m_bUseRevisedPrice );

  003db	8d 8e dc 09 00
	00		 lea	 ecx, DWORD PTR [esi+2524]
  003e1	e8 00 00 00 00	 call	 ?InitMChartInterface061115@COutsideCommonInterfaceFunction@@QAEHXZ ; COutsideCommonInterfaceFunction::InitMChartInterface061115
  003e6	85 c0		 test	 eax, eax
  003e8	74 13		 je	 SHORT $LN27@Save
  003ea	ff b6 f8 04 00
	00		 push	 DWORD PTR [esi+1272]
  003f0	8d 8e dc 09 00
	00		 lea	 ecx, DWORD PTR [esi+2524]
  003f6	e8 00 00 00 00	 call	 ?SetRevisedPriceFlag@COutsideCommonInterfaceFunction@@QAEHH@Z ; COutsideCommonInterfaceFunction::SetRevisedPriceFlag
  003fb	eb 32		 jmp	 SHORT $LN28@Save
$LN27@Save:

; 843  : 	// (2007/10/5 - Seung-Won, Bae) Support Map
; 844  : 	else m_pIChartOCX->FireAddInEvent( CChartEnvSetupDlgAddInImp::m_strAddInItemName, 1006, NULL, 0, ( m_bUseRevisedPrice ? 1 : 0));

  003fd	8b 8e d8 09 00
	00		 mov	 ecx, DWORD PTR [esi+2520]
  00403	33 c0		 xor	 eax, eax
  00405	39 86 f8 04 00
	00		 cmp	 DWORD PTR [esi+1272], eax
  0040b	0f 57 c0	 xorps	 xmm0, xmm0
  0040e	0f 95 c0	 setne	 al
  00411	8b 11		 mov	 edx, DWORD PTR [ecx]
  00413	50		 push	 eax
  00414	83 ec 08	 sub	 esp, 8
  00417	f2 0f 11 04 24	 movsd	 QWORD PTR [esp], xmm0
  0041c	6a 00		 push	 0
  0041e	68 ee 03 00 00	 push	 1006			; 000003eeH
  00423	ff 35 00 00 00
	00		 push	 DWORD PTR ?m_strAddInItemName@CChartEnvSetupDlgAddInImp@@2V?$CStringT@DV?$StrTraitMFC_DLL@DV?$ChTraitsCRT@D@ATL@@@@@ATL@@A ; CChartEnvSetupDlgAddInImp::m_strAddInItemName
  00429	ff 92 80 01 00
	00		 call	 DWORD PTR [edx+384]
$LN28@Save:

; 845  : 	m_bApplyUseRevisedPrice = m_bOrgUseRevisedPrice = m_bUseRevisedPrice;

  0042f	8b 86 f8 04 00
	00		 mov	 eax, DWORD PTR [esi+1272]

; 846  : 
; 847  : 
; 848  : 	// 4.   
; 849  : 	m_pIChartOCX->SetHideAllTitle( !m_bShowAllTitle );

  00435	8b 8e d8 09 00
	00		 mov	 ecx, DWORD PTR [esi+2520]
  0043b	89 86 58 09 00
	00		 mov	 DWORD PTR [esi+2392], eax
  00441	89 86 ac 09 00
	00		 mov	 DWORD PTR [esi+2476], eax
  00447	33 c0		 xor	 eax, eax
  00449	39 86 a4 03 00
	00		 cmp	 DWORD PTR [esi+932], eax
  0044f	8b 11		 mov	 edx, DWORD PTR [ecx]
  00451	0f 94 c0	 sete	 al
  00454	50		 push	 eax
  00455	ff 92 bc 00 00
	00		 call	 DWORD PTR [edx+188]

; 850  : 	m_bOrgShowAllTitle = m_bApplyShowAllTitle = m_bShowAllTitle;
; 851  : 
; 852  : 	if( m_bApplyShowIndicatorVariable != ( m_bShowIndicatorVariable ? true : false ) )					//  -  

  0045b	83 be 94 03 00
	00 00		 cmp	 DWORD PTR [esi+916], 0
  00462	8b 86 a4 03 00
	00		 mov	 eax, DWORD PTR [esi+932]
  00468	0f 95 c3	 setne	 bl
  0046b	89 86 a4 09 00
	00		 mov	 DWORD PTR [esi+2468], eax
  00471	89 86 50 09 00
	00		 mov	 DWORD PTR [esi+2384], eax
  00477	38 9e 90 09 00
	00		 cmp	 BYTE PTR [esi+2448], bl
  0047d	74 52		 je	 SHORT $LN29@Save

; 1968 : 	m_pIChartOCX->GetGraphTitleOption( bWithConditionValue, bWithLastValue);

  0047f	8b 8e d8 09 00
	00		 mov	 ecx, DWORD PTR [esi+2520]
  00485	8d 55 e4	 lea	 edx, DWORD PTR _bWithLastValue$3[ebp]
  00488	c7 45 f0 00 00
	00 00		 mov	 DWORD PTR _bWithConditionValue$5[ebp], 0
  0048f	c7 45 e4 00 00
	00 00		 mov	 DWORD PTR _bWithLastValue$3[ebp], 0
  00496	52		 push	 edx
  00497	8b 01		 mov	 eax, DWORD PTR [ecx]
  00499	8d 55 f0	 lea	 edx, DWORD PTR _bWithConditionValue$5[ebp]
  0049c	52		 push	 edx
  0049d	ff 90 f8 01 00
	00		 call	 DWORD PTR [eax+504]

; 1969 : 
; 1970 : 	bWithConditionValue = bShow;
; 1971 : 	m_pIChartOCX->SetGraphTitleOption( bWithConditionValue, bWithLastValue);

  004a3	8b 8e d8 09 00
	00		 mov	 ecx, DWORD PTR [esi+2520]
  004a9	ff 75 e4	 push	 DWORD PTR _bWithLastValue$3[ebp]
  004ac	0f b6 d3	 movzx	 edx, bl
  004af	89 55 f0	 mov	 DWORD PTR _bWithConditionValue$5[ebp], edx
  004b2	8b 01		 mov	 eax, DWORD PTR [ecx]
  004b4	52		 push	 edx
  004b5	ff 90 fc 01 00
	00		 call	 DWORD PTR [eax+508]

; 853  : 	{
; 854  : 		SetShowIndicatorVariable( ( m_bShowIndicatorVariable ? true : false ) );
; 855  : 		m_bApplyShowIndicatorVariable = ( m_bShowIndicatorVariable ? true : false );

  004bb	83 be 94 03 00
	00 00		 cmp	 DWORD PTR [esi+916], 0
  004c2	0f 95 c0	 setne	 al
  004c5	88 86 90 09 00
	00		 mov	 BYTE PTR [esi+2448], al

; 856  : 		m_bOrgShowIndicatorVariable = m_bApplyShowIndicatorVariable;

  004cb	88 86 3c 09 00
	00		 mov	 BYTE PTR [esi+2364], al
$LN29@Save:

; 857  : 	}
; 858  : 	
; 859  : 	if( m_bApplyShowIndicatorValue != ( m_bShowIndicatorValue ? true : false ) )						//  -  

  004d1	83 be 90 03 00
	00 00		 cmp	 DWORD PTR [esi+912], 0
  004d8	0f 95 c3	 setne	 bl
  004db	38 9e 91 09 00
	00		 cmp	 BYTE PTR [esi+2449], bl
  004e1	74 52		 je	 SHORT $LN30@Save

; 1979 : 	m_pIChartOCX->GetGraphTitleOption( bWithConditionValue, bWithLastValue);

  004e3	8b 8e d8 09 00
	00		 mov	 ecx, DWORD PTR [esi+2520]
  004e9	8d 55 e4	 lea	 edx, DWORD PTR _bWithLastValue$2[ebp]
  004ec	c7 45 f0 00 00
	00 00		 mov	 DWORD PTR _bWithConditionValue$4[ebp], 0
  004f3	c7 45 e4 00 00
	00 00		 mov	 DWORD PTR _bWithLastValue$2[ebp], 0
  004fa	52		 push	 edx
  004fb	8b 01		 mov	 eax, DWORD PTR [ecx]
  004fd	8d 55 f0	 lea	 edx, DWORD PTR _bWithConditionValue$4[ebp]
  00500	52		 push	 edx
  00501	ff 90 f8 01 00
	00		 call	 DWORD PTR [eax+504]

; 1980 : 
; 1981 : 	bWithLastValue = bShow;
; 1982 : 	m_pIChartOCX->SetGraphTitleOption( bWithConditionValue, bWithLastValue);

  00507	8b 8e d8 09 00
	00		 mov	 ecx, DWORD PTR [esi+2520]
  0050d	0f b6 c3	 movzx	 eax, bl
  00510	89 45 e4	 mov	 DWORD PTR _bWithLastValue$2[ebp], eax
  00513	50		 push	 eax
  00514	8b 11		 mov	 edx, DWORD PTR [ecx]
  00516	ff 75 f0	 push	 DWORD PTR _bWithConditionValue$4[ebp]
  00519	ff 92 fc 01 00
	00		 call	 DWORD PTR [edx+508]

; 860  : 	{
; 861  : 		SetShowIndicatorValue( ( m_bShowIndicatorValue ? true : false ) );
; 862  : 		m_bApplyShowIndicatorValue = ( m_bShowIndicatorValue ? true : false );

  0051f	83 be 90 03 00
	00 00		 cmp	 DWORD PTR [esi+912], 0
  00526	0f 95 c0	 setne	 al
  00529	88 86 91 09 00
	00		 mov	 BYTE PTR [esi+2449], al

; 863  : 		m_bOrgShowIndicatorValue = m_bApplyShowIndicatorValue;

  0052f	88 86 3d 09 00
	00		 mov	 BYTE PTR [esi+2365], al
$LN30@Save:

; 864  : 	}
; 865  : 
; 866  : 	BOOL bUseMonthGapRevision = ( ( ( CButton *)GetDlgItem( IDC_USE_GAP_MONTHREV))->GetCheck() == 1);

  00535	68 fd 17 00 00	 push	 6141			; 000017fdH
  0053a	8b ce		 mov	 ecx, esi
  0053c	e8 00 00 00 00	 call	 ?GetDlgItem@CWnd@@QBEPAV1@H@Z ; CWnd::GetDlgItem
; File C:\Program Files (x86)\Microsoft Visual Studio\2019\Community\VC\Tools\MSVC\14.29.30133\atlmfc\include\afxwin2.inl

; 628  : 	{ ASSERT(::IsWindow(m_hWnd)); return (int)::SendMessage(m_hWnd, BM_GETCHECK, 0, 0); }

  00541	6a 00		 push	 0
  00543	6a 00		 push	 0
  00545	68 f0 00 00 00	 push	 240			; 000000f0H
  0054a	ff 70 20	 push	 DWORD PTR [eax+32]
  0054d	ff 15 00 00 00
	00		 call	 DWORD PTR __imp__SendMessageA@16
; File D:\git\src\IBK\IBK_DRFN\ProjSrc\SrcChartEx\ChartAddIn\ChartEnvSetupDlgAddIn\ChartEnvSetupDlgAddIn\DlgMainTabBaseEnvSetUp.cpp

; 870  : 	BOOL bIsChanged = ( m_nApplyCandleType != m_nCandleType || m_bApplyUseGapRevision != m_bUseGapRevision || m_bApplyUseMonthGapRevision != bUseMonthGapRevision);

  00553	8b 8e 74 09 00
	00		 mov	 ecx, DWORD PTR [esi+2420]
  00559	8d 58 ff	 lea	 ebx, DWORD PTR [eax-1]
  0055c	f7 db		 neg	 ebx
  0055e	1b db		 sbb	 ebx, ebx
  00560	43		 inc	 ebx
  00561	3b 8e 00 05 00
	00		 cmp	 ecx, DWORD PTR [esi+1280]
  00567	75 1d		 jne	 SHORT $LN51@Save
  00569	8b 86 78 09 00
	00		 mov	 eax, DWORD PTR [esi+2424]
  0056f	3b 86 08 05 00
	00		 cmp	 eax, DWORD PTR [esi+1288]
  00575	75 0f		 jne	 SHORT $LN51@Save
  00577	c7 45 e4 00 00
	00 00		 mov	 DWORD PTR _bIsChanged$1$[ebp], 0
  0057e	39 9e c4 09 00
	00		 cmp	 DWORD PTR [esi+2500], ebx
  00584	74 07		 je	 SHORT $LN52@Save
$LN51@Save:
  00586	c7 45 e4 01 00
	00 00		 mov	 DWORD PTR _bIsChanged$1$[ebp], 1
$LN52@Save:

; 871  : 
; 872  : 	BOOL bChangeAllGraph = FALSE;
; 873  : 	IAddInToolMgr *pIAddInToolMgr = m_pIChartOCX->GetIAddInToolMgr();

  0058d	8b 8e d8 09 00
	00		 mov	 ecx, DWORD PTR [esi+2520]
  00593	c7 45 e0 00 00
	00 00		 mov	 DWORD PTR _bChangeAllGraph$1$[ebp], 0
  0059a	8b 01		 mov	 eax, DWORD PTR [ecx]
  0059c	ff 50 24	 call	 DWORD PTR [eax+36]
  0059f	8b c8		 mov	 ecx, eax
  005a1	89 4d f0	 mov	 DWORD PTR _pIAddInToolMgr$1$[ebp], ecx

; 874  : 	if (pIAddInToolMgr)

  005a4	85 c9		 test	 ecx, ecx
  005a6	74 6b		 je	 SHORT $LN31@Save

; 875  : 	{
; 876  : 		// 2008.10.15 by LYH >> 
; 877  : 		if( m_bApplyUseGapRevision != m_bUseGapRevision)

  005a8	8b 86 08 05 00
	00		 mov	 eax, DWORD PTR [esi+1288]
  005ae	39 86 78 09 00
	00		 cmp	 DWORD PTR [esi+2424], eax
  005b4	74 3e		 je	 SHORT $LN32@Save

; 878  : 		{
; 879  : 			//<<   - vntsorl(20090217)
; 880  : 			pIAddInToolMgr->OnAddInToolCommand( EAI_ENVSETUP_GAPREVISION_CHANGED, m_bUseGapRevision, m_nApplyCandleType != m_nCandleType);

  005b6	8b 11		 mov	 edx, DWORD PTR [ecx]
  005b8	33 c9		 xor	 ecx, ecx
  005ba	8b 86 74 09 00
	00		 mov	 eax, DWORD PTR [esi+2420]
  005c0	3b 86 00 05 00
	00		 cmp	 eax, DWORD PTR [esi+1280]
  005c6	0f 95 c1	 setne	 cl
  005c9	51		 push	 ecx
  005ca	ff b6 08 05 00
	00		 push	 DWORD PTR [esi+1288]
  005d0	8b 4d f0	 mov	 ecx, DWORD PTR _pIAddInToolMgr$1$[ebp]
  005d3	6a 40		 push	 64			; 00000040H
  005d5	ff 52 74	 call	 DWORD PTR [edx+116]

; 881  : 
; 882  : 			m_bApplyUseGapRevision = m_bUseGapRevision;

  005d8	8b 86 08 05 00
	00		 mov	 eax, DWORD PTR [esi+1288]
  005de	8b 4d f0	 mov	 ecx, DWORD PTR _pIAddInToolMgr$1$[ebp]
  005e1	89 86 78 09 00
	00		 mov	 DWORD PTR [esi+2424], eax

; 883  : 			m_bOrgUseGapRevision = m_bApplyUseGapRevision;

  005e7	89 86 24 09 00
	00		 mov	 DWORD PTR [esi+2340], eax

; 884  : 
; 885  : 			bChangeAllGraph = TRUE;

  005ed	c7 45 e0 01 00
	00 00		 mov	 DWORD PTR _bChangeAllGraph$1$[ebp], 1
$LN32@Save:

; 886  : 		}
; 887  : 
; 888  : 		//<< 20130530  :   (IBK) (Issue No : 0006572)
; 889  : 		if( m_bApplyUseMonthGapRevision != bUseMonthGapRevision)

  005f4	39 9e c4 09 00
	00		 cmp	 DWORD PTR [esi+2500], ebx
  005fa	74 0e		 je	 SHORT $LN33@Save

; 890  : 		{
; 891  : 			pIAddInToolMgr->OnAddInToolCommand( EAI_ENVSETUP_MONTHGAPREVISION_CHANGED, bUseMonthGapRevision);

  005fc	8b 01		 mov	 eax, DWORD PTR [ecx]
  005fe	53		 push	 ebx
  005ff	6a 42		 push	 66			; 00000042H
  00601	ff 50 7c	 call	 DWORD PTR [eax+124]

; 892  : 			m_bApplyUseMonthGapRevision = bUseMonthGapRevision;

  00604	89 9e c4 09 00
	00		 mov	 DWORD PTR [esi+2500], ebx
$LN33@Save:

; 893  : 		}
; 894  : 		//>> (Issue No : 0006572)
; 895  : 
; 896  : 		pIAddInToolMgr->Release();

  0060a	8b 4d f0	 mov	 ecx, DWORD PTR _pIAddInToolMgr$1$[ebp]
  0060d	51		 push	 ecx
  0060e	8b 01		 mov	 eax, DWORD PTR [ecx]
  00610	ff 50 08	 call	 DWORD PTR [eax+8]
$LN31@Save:

; 897  : 	}
; 898  : 	// 2008.10.15 by LYH <<
; 899  : 	if( m_nApplyCandleType != m_nCandleType)

  00613	8b 8e 74 09 00
	00		 mov	 ecx, DWORD PTR [esi+2420]
  00619	8b 96 00 05 00
	00		 mov	 edx, DWORD PTR [esi+1280]
  0061f	3b ca		 cmp	 ecx, edx
  00621	74 21		 je	 SHORT $LN34@Save

; 900  : 	{
; 901  : 		m_pIChartOCX->SetNormalizedMinuteTimeRule( m_nCandleType);

  00623	8b 8e d8 09 00
	00		 mov	 ecx, DWORD PTR [esi+2520]
  00629	52		 push	 edx
  0062a	8b 01		 mov	 eax, DWORD PTR [ecx]
  0062c	ff 90 ac 00 00
	00		 call	 DWORD PTR [eax+172]

; 902  : 		m_nApplyCandleType = m_nCandleType;

  00632	8b 8e 00 05 00
	00		 mov	 ecx, DWORD PTR [esi+1280]
  00638	89 8e 74 09 00
	00		 mov	 DWORD PTR [esi+2420], ecx

; 903  : 		m_nOrgCandleType = m_nApplyCandleType;

  0063e	89 8e 20 09 00
	00		 mov	 DWORD PTR [esi+2336], ecx
$LN34@Save:

; 904  : 	}
; 905  : 	// (2008/11/2 - Seung-Won, Bae) Notify to MChart with CandleType and GapRevision.
; 906  : 	if( bIsChanged)

  00644	83 7d e4 00	 cmp	 DWORD PTR _bIsChanged$1$[ebp], 0
  00648	74 22		 je	 SHORT $LN35@Save

; 907  : 		m_MChartInterface.MChart_SetImaginaryCandleAndGapRevisionToOutside( m_nApplyCandleType ? true : false, m_bApplyUseGapRevision ? true : false);

  0064a	83 be 78 09 00
	00 00		 cmp	 DWORD PTR [esi+2424], 0
  00651	0f 95 c0	 setne	 al
  00654	85 c9		 test	 ecx, ecx
  00656	0f b6 c0	 movzx	 eax, al
  00659	8d 8e dc 09 00
	00		 lea	 ecx, DWORD PTR [esi+2524]
  0065f	50		 push	 eax
  00660	0f 95 c0	 setne	 al
  00663	0f b6 c0	 movzx	 eax, al
  00666	50		 push	 eax
  00667	e8 00 00 00 00	 call	 ?MChart_SetImaginaryCandleAndGapRevisionToOutside@COutsideCommonInterfaceFunction@@QAE_N_N0@Z ; COutsideCommonInterfaceFunction::MChart_SetImaginaryCandleAndGapRevisionToOutside
$LN35@Save:

; 908  : 
; 909  : 	// 6.  
; 910  : 	// 6.1 / 
; 911  : 	m_pIChartOCX->ShowPriceMinMaxText(m_bShowPriceMinMaxText);

  0066c	8b 8e d8 09 00
	00		 mov	 ecx, DWORD PTR [esi+2520]
  00672	ff b6 a8 03 00
	00		 push	 DWORD PTR [esi+936]
  00678	8b 01		 mov	 eax, DWORD PTR [ecx]
  0067a	ff 90 c4 00 00
	00		 call	 DWORD PTR [eax+196]

; 912  : 	m_bOrgShowPriceMinMaxText = m_bApplyShowPriceMinMaxText = m_bShowPriceMinMaxText;
; 913  : 
; 914  : 	m_pIChartOCX->SetPriceMinMaxShowType(m_nMinMaxRatio);

  00680	8b 8e d8 09 00
	00		 mov	 ecx, DWORD PTR [esi+2520]
  00686	8b 86 a8 03 00
	00		 mov	 eax, DWORD PTR [esi+936]
  0068c	ff b6 c0 03 00
	00		 push	 DWORD PTR [esi+960]
  00692	89 86 a8 09 00
	00		 mov	 DWORD PTR [esi+2472], eax
  00698	89 86 54 09 00
	00		 mov	 DWORD PTR [esi+2388], eax
  0069e	8b 01		 mov	 eax, DWORD PTR [ecx]
  006a0	ff 90 38 02 00
	00		 call	 DWORD PTR [eax+568]

; 915  : 	m_nOrgMinMaxRatio = m_nApplyMinMaxRatio = m_nMinMaxRatio;
; 916  : 
; 917  : 	//    Scale   - ojtaso (20071101)
; 918  : 	m_pIChartOCX->SetDrawBaseLine(m_bDrawBaseLine);

  006a6	8b 8e d8 09 00
	00		 mov	 ecx, DWORD PTR [esi+2520]
  006ac	8b 86 c0 03 00
	00		 mov	 eax, DWORD PTR [esi+960]
  006b2	ff b6 b8 03 00
	00		 push	 DWORD PTR [esi+952]
  006b8	89 86 c0 09 00
	00		 mov	 DWORD PTR [esi+2496], eax
  006be	89 86 6c 09 00
	00		 mov	 DWORD PTR [esi+2412], eax
  006c4	8b 01		 mov	 eax, DWORD PTR [ecx]
  006c6	ff 90 d4 00 00
	00		 call	 DWORD PTR [eax+212]

; 919  : 	m_bOrgDrawBaseLine = m_bApplyDrawBaseLine = m_bDrawBaseLine;
; 920  : 
; 921  : 	// 6.2 
; 922  : 	//long lNumericalInquiryOption = ( m_pIChartOCX->GetNumericalInquiryOption() & TOOLTIPVIEW);
; 923  : 	long lNumericalInquiryOption = ( m_pIChartOCX->GetNumericalInquiryOption());

  006cc	8b 8e d8 09 00
	00		 mov	 ecx, DWORD PTR [esi+2520]
  006d2	8b 86 b8 03 00
	00		 mov	 eax, DWORD PTR [esi+952]
  006d8	89 86 b4 09 00
	00		 mov	 DWORD PTR [esi+2484], eax
  006de	89 86 60 09 00
	00		 mov	 DWORD PTR [esi+2400], eax
  006e4	8b 01		 mov	 eax, DWORD PTR [ecx]
  006e6	ff 50 74	 call	 DWORD PTR [eax+116]
  006e9	8b d8		 mov	 ebx, eax

; 924  : 	if( m_bInquieryDataWindow)			lNumericalInquiryOption |= NUMERICALINQUIRYDLG;
; 925  : 	else								lNumericalInquiryOption &= ~NUMERICALINQUIRYDLG;
; 926  : 
; 927  : 	if( m_nInquiryDlgManualMove == 1)	lNumericalInquiryOption |= NIDLG_MANUALMOVE;

  006eb	8b c8		 mov	 ecx, eax
  006ed	83 cb 01	 or	 ebx, 1
  006f0	83 e1 fe	 and	 ecx, -2			; fffffffeH
  006f3	83 be a0 03 00
	00 00		 cmp	 DWORD PTR [esi+928], 0
  006fa	0f 44 d9	 cmove	 ebx, ecx

; 928  : 	else								lNumericalInquiryOption &= ~NIDLG_MANUALMOVE;
; 929  : 
; 930  : 	if( m_bUseCrossLine)				lNumericalInquiryOption |= CROSSLINEVIEW;

  006fd	8b cb		 mov	 ecx, ebx
  006ff	83 cb 08	 or	 ebx, 8
  00702	83 e1 f7	 and	 ecx, -9			; fffffff7H
  00705	83 be c4 03 00
	00 01		 cmp	 DWORD PTR [esi+964], 1
  0070c	0f 45 d9	 cmovne	 ebx, ecx

; 931  : 	else								lNumericalInquiryOption &= ~CROSSLINEVIEW;
; 932  : 
; 933  : 	if(m_bUseTooptipShow)				lNumericalInquiryOption |= TOOLTIPVIEW;

  0070f	8b c3		 mov	 eax, ebx
  00711	83 cb 02	 or	 ebx, 2
  00714	83 e0 fd	 and	 eax, -3			; fffffffdH
  00717	83 be 98 03 00
	00 00		 cmp	 DWORD PTR [esi+920], 0
  0071e	0f 44 d8	 cmove	 ebx, eax

; 934  : 	else								lNumericalInquiryOption  &= ~TOOLTIPVIEW;
; 935  : 
; 936  : 	//>>[A00000441]     
; 937  : 	if(m_bUseTooptipShowAll)			lNumericalInquiryOption |= TOOLTIPVIEW_ALL;

  00721	8b c3		 mov	 eax, ebx
  00723	83 cb 04	 or	 ebx, 4
  00726	83 e0 fb	 and	 eax, -5			; fffffffbH
  00729	83 be ac 03 00
	00 00		 cmp	 DWORD PTR [esi+940], 0
  00730	0f 44 d8	 cmove	 ebx, eax

; 938  : 	else								lNumericalInquiryOption  &= ~TOOLTIPVIEW_ALL;
; 939  : 	//<<
; 940  : 
; 941  : 	if( m_lApplyNumericalInquiryOption != lNumericalInquiryOption)

  00733	8b c3		 mov	 eax, ebx
  00735	83 cb 20	 or	 ebx, 32			; 00000020H
  00738	83 e0 df	 and	 eax, -33		; ffffffdfH
  0073b	83 be b0 03 00
	00 00		 cmp	 DWORD PTR [esi+944], 0
  00742	0f 44 d8	 cmove	 ebx, eax
  00745	39 9e a0 09 00
	00		 cmp	 DWORD PTR [esi+2464], ebx
  0074b	74 18		 je	 SHORT $LN46@Save

; 942  : 	{
; 943  : 		m_pIChartOCX->SetNumericalInquiryOption( lNumericalInquiryOption);

  0074d	8b 8e d8 09 00
	00		 mov	 ecx, DWORD PTR [esi+2520]
  00753	53		 push	 ebx
  00754	8b 01		 mov	 eax, DWORD PTR [ecx]
  00756	ff 50 78	 call	 DWORD PTR [eax+120]

; 944  : 		m_lApplyNumericalInquiryOption = lNumericalInquiryOption;

  00759	89 9e a0 09 00
	00		 mov	 DWORD PTR [esi+2464], ebx

; 945  : 		m_lOrgNumericalInquiryOption = lNumericalInquiryOption;

  0075f	89 9e 4c 09 00
	00		 mov	 DWORD PTR [esi+2380], ebx
$LN46@Save:

; 946  : 	}
; 947  : 
; 948  : 	// 7.  
; 949  : 	if( pIChartManager && m_nApplyCandleTypeOnResize != m_nCandleTypeOnResize )

  00765	85 ff		 test	 edi, edi
  00767	74 2d		 je	 SHORT $LN47@Save
  00769	8b 8e 80 03 00
	00		 mov	 ecx, DWORD PTR [esi+896]
  0076f	39 8e 88 09 00
	00		 cmp	 DWORD PTR [esi+2440], ecx
  00775	74 1f		 je	 SHORT $LN47@Save

; 950  : 	{
; 951  : 		pIChartManager->SetCandleTypeOnResize(m_nCandleTypeOnResize, TRUE);

  00777	8b 07		 mov	 eax, DWORD PTR [edi]
  00779	6a 01		 push	 1
  0077b	51		 push	 ecx
  0077c	8b cf		 mov	 ecx, edi
  0077e	ff 90 b4 00 00
	00		 call	 DWORD PTR [eax+180]

; 952  : 		//m_MChartInterface.MChart_SetImaginaryCandleToOutside( m_nCandleType ? true : false);
; 953  : 		m_nApplyCandleTypeOnResize = m_nCandleTypeOnResize;

  00784	8b 86 80 03 00
	00		 mov	 eax, DWORD PTR [esi+896]
  0078a	89 86 88 09 00
	00		 mov	 DWORD PTR [esi+2440], eax

; 954  : 		m_nOrgCandleTypeOnResize = m_nApplyCandleTypeOnResize;

  00790	89 86 34 09 00
	00		 mov	 DWORD PTR [esi+2356], eax
$LN47@Save:

; 955  : 		//>> (2008/12/26 - Seung-Lyong, Park)  
; 956  : // 		pIChartManager->Release();
; 957  : 	}
; 958  : 
; 959  : 	//KHD : 
; 960  : 	SetTimeGubunGrid();

  00796	8b ce		 mov	 ecx, esi
  00798	e8 00 00 00 00	 call	 ?SetTimeGubunGrid@CDlgMainTabBaseEnvSetUp@@IAEXXZ ; CDlgMainTabBaseEnvSetUp::SetTimeGubunGrid

; 961  : 
; 962  : 	// Update to Graph -> Because GraphDraw data manage in Graph Object for Final Version.
; 963  : 	if (bChangeAllGraph)

  0079d	83 7d e0 00	 cmp	 DWORD PTR _bChangeAllGraph$1$[ebp], 0
  007a1	74 09		 je	 SHORT $LN48@Save

; 964  : 		pIChartManager->ChangeAllGraphDataFromGraphInfo( TRUE);

  007a3	8b 07		 mov	 eax, DWORD PTR [edi]
  007a5	8b cf		 mov	 ecx, edi
  007a7	6a 01		 push	 1
  007a9	ff 50 78	 call	 DWORD PTR [eax+120]
$LN48@Save:

; 965  : 
; 966  : 	if( pIChartManager) pIChartManager->Release();

  007ac	85 ff		 test	 edi, edi
  007ae	74 06		 je	 SHORT $LN49@Save
  007b0	8b 07		 mov	 eax, DWORD PTR [edi]
  007b2	57		 push	 edi
  007b3	ff 50 08	 call	 DWORD PTR [eax+8]
$LN49@Save:

; 967  : 	//<< (2008/12/26 - Seung-Lyong, Park)  
; 968  : 
; 969  : 	m_pIChartOCX->InvalidateControl();

  007b6	8b 8e d8 09 00
	00		 mov	 ecx, DWORD PTR [esi+2520]
  007bc	8b 01		 mov	 eax, DWORD PTR [ecx]
  007be	ff 50 38	 call	 DWORD PTR [eax+56]

; 970  : }

  007c1	8d 4d ec	 lea	 ecx, DWORD PTR _szUpDownSpace$[ebp]
  007c4	ff 15 00 00 00
	00		 call	 DWORD PTR __imp_??1?$CStringT@DV?$StrTraitMFC_DLL@DV?$ChTraitsCRT@D@ATL@@@@@ATL@@QAE@XZ
  007ca	8d 4d e8	 lea	 ecx, DWORD PTR _szRightMargin$[ebp]
  007cd	ff 15 00 00 00
	00		 call	 DWORD PTR __imp_??1?$CStringT@DV?$StrTraitMFC_DLL@DV?$ChTraitsCRT@D@ATL@@@@@ATL@@QAE@XZ
  007d3	8b 4d f4	 mov	 ecx, DWORD PTR __$EHRec$[ebp]
  007d6	64 89 0d 00 00
	00 00		 mov	 DWORD PTR fs:0, ecx
  007dd	59		 pop	 ecx
  007de	5f		 pop	 edi
  007df	5e		 pop	 esi
  007e0	5b		 pop	 ebx
  007e1	8b e5		 mov	 esp, ebp
  007e3	5d		 pop	 ebp
  007e4	c3		 ret	 0
_TEXT	ENDS
;	COMDAT text$x
text$x	SEGMENT
__unwindfunclet$?Save@CDlgMainTabBaseEnvSetUp@@QAEXXZ$0:
  00000	8d 4d e8	 lea	 ecx, DWORD PTR _szRightMargin$[ebp]
  00003	ff 25 00 00 00
	00		 jmp	 DWORD PTR __imp_??1?$CStringT@DV?$StrTraitMFC_DLL@DV?$ChTraitsCRT@D@ATL@@@@@ATL@@QAE@XZ
__unwindfunclet$?Save@CDlgMainTabBaseEnvSetUp@@QAEXXZ$1:
  00009	8d 4d f0	 lea	 ecx, DWORD PTR _szFutureTime$8[ebp]
  0000c	ff 25 00 00 00
	00		 jmp	 DWORD PTR __imp_??1?$CStringT@DV?$StrTraitMFC_DLL@DV?$ChTraitsCRT@D@ATL@@@@@ATL@@QAE@XZ
__unwindfunclet$?Save@CDlgMainTabBaseEnvSetUp@@QAEXXZ$2:
  00012	8d 4d ec	 lea	 ecx, DWORD PTR _szUpDownSpace$[ebp]
  00015	ff 25 00 00 00
	00		 jmp	 DWORD PTR __imp_??1?$CStringT@DV?$StrTraitMFC_DLL@DV?$ChTraitsCRT@D@ATL@@@@@ATL@@QAE@XZ
  0001b	cc		 int	 3
  0001c	cc		 int	 3
  0001d	cc		 int	 3
  0001e	cc		 int	 3
  0001f	cc		 int	 3
__ehhandler$?Save@CDlgMainTabBaseEnvSetUp@@QAEXXZ:
  00020	90		 npad	 1
  00021	90		 npad	 1
  00022	8b 54 24 08	 mov	 edx, DWORD PTR [esp+8]
  00026	8d 42 0c	 lea	 eax, DWORD PTR [edx+12]
  00029	8b 4a dc	 mov	 ecx, DWORD PTR [edx-36]
  0002c	33 c8		 xor	 ecx, eax
  0002e	e8 00 00 00 00	 call	 @__security_check_cookie@4
  00033	b8 00 00 00 00	 mov	 eax, OFFSET __ehfuncinfo$?Save@CDlgMainTabBaseEnvSetUp@@QAEXXZ
  00038	e9 00 00 00 00	 jmp	 ___CxxFrameHandler3
text$x	ENDS
?Save@CDlgMainTabBaseEnvSetUp@@QAEXXZ ENDP		; CDlgMainTabBaseEnvSetUp::Save
; Function compile flags: /Ogtp
; File D:\git\src\IBK\IBK_DRFN\ProjSrc\SrcChartEx\ChartAddIn\ChartEnvSetupDlgAddIn\ChartEnvSetupDlgAddIn\DlgMainTabBaseEnvSetUp.cpp
; File C:\Program Files (x86)\Microsoft Visual Studio\2019\Community\VC\Tools\MSVC\14.29.30133\atlmfc\include\afxwin2.inl
; File D:\git\src\IBK\IBK_DRFN\ProjSrc\SrcChartEx\ChartAddIn\ChartEnvSetupDlgAddIn\ChartEnvSetupDlgAddIn\DlgMainTabBaseEnvSetUp.cpp
; File C:\Program Files (x86)\Microsoft Visual Studio\2019\Community\VC\Tools\MSVC\14.29.30133\atlmfc\include\afxwin2.inl
; File D:\git\src\IBK\IBK_DRFN\ProjSrc\SrcChartEx\ChartAddIn\ChartEnvSetupDlgAddIn\ChartEnvSetupDlgAddIn\DlgMainTabBaseEnvSetUp.cpp
; File C:\Program Files (x86)\Microsoft Visual Studio\2019\Community\VC\Tools\MSVC\14.29.30133\atlmfc\include\afxwin2.inl
; File D:\git\src\IBK\IBK_DRFN\ProjSrc\SrcChartEx\ChartAddIn\ChartEnvSetupDlgAddIn\ChartEnvSetupDlgAddIn\DlgMainTabBaseEnvSetUp.cpp
; File C:\Program Files (x86)\Microsoft Visual Studio\2019\Community\VC\Tools\MSVC\14.29.30133\atlmfc\include\afxwin2.inl
; File D:\git\src\IBK\IBK_DRFN\ProjSrc\SrcChartEx\ChartAddIn\ChartEnvSetupDlgAddIn\ChartEnvSetupDlgAddIn\DlgMainTabBaseEnvSetUp.cpp
; File C:\Program Files (x86)\Microsoft Visual Studio\2019\Community\VC\Tools\MSVC\14.29.30133\atlmfc\include\afxwin2.inl
; File D:\git\src\IBK\IBK_DRFN\ProjSrc\SrcChartEx\ChartAddIn\ChartEnvSetupDlgAddIn\ChartEnvSetupDlgAddIn\DlgMainTabBaseEnvSetUp.cpp
; File C:\Program Files (x86)\Microsoft Visual Studio\2019\Community\VC\Tools\MSVC\14.29.30133\atlmfc\include\afxwin2.inl
; File D:\git\src\IBK\IBK_DRFN\ProjSrc\SrcChartEx\ChartAddIn\ChartEnvSetupDlgAddIn\ChartEnvSetupDlgAddIn\DlgMainTabBaseEnvSetUp.cpp
; File C:\Program Files (x86)\Microsoft Visual Studio\2019\Community\VC\Tools\MSVC\14.29.30133\atlmfc\include\afxwin2.inl
; File D:\git\src\IBK\IBK_DRFN\ProjSrc\SrcChartEx\ChartAddIn\ChartEnvSetupDlgAddIn\ChartEnvSetupDlgAddIn\DlgMainTabBaseEnvSetUp.cpp
;	COMDAT ?Recover@CDlgMainTabBaseEnvSetUp@@QAEXXZ
_TEXT	SEGMENT
_Value$1$ = -36						; size = 4
_Value$1$ = -36						; size = 4
_bChangeAllGraph$1$ = -36				; size = 4
_bIsChanged$1$ = -32					; size = 4
_szRightMargin$ = -28					; size = 4
_szUpDownSpace$ = -24					; size = 4
_pIAddInToolMgr$1$ = -20				; size = 4
_lResult$2 = -20					; size = 4
_lResult$3 = -20					; size = 4
_szFutureTime$4 = -20					; size = 4
tv1912 = -13						; size = 1
__$EHRec$ = -12						; size = 12
?Recover@CDlgMainTabBaseEnvSetUp@@QAEXXZ PROC		; CDlgMainTabBaseEnvSetUp::Recover, COMDAT
; _this$ = ecx

; 990  : {

  00000	55		 push	 ebp
  00001	8b ec		 mov	 ebp, esp
  00003	6a ff		 push	 -1
  00005	68 00 00 00 00	 push	 __ehhandler$?Recover@CDlgMainTabBaseEnvSetUp@@QAEXXZ
  0000a	64 a1 00 00 00
	00		 mov	 eax, DWORD PTR fs:0
  00010	50		 push	 eax
  00011	83 ec 18	 sub	 esp, 24			; 00000018H
  00014	53		 push	 ebx
  00015	56		 push	 esi
  00016	57		 push	 edi
  00017	a1 00 00 00 00	 mov	 eax, DWORD PTR ___security_cookie
  0001c	33 c5		 xor	 eax, ebp
  0001e	50		 push	 eax
  0001f	8d 45 f4	 lea	 eax, DWORD PTR __$EHRec$[ebp]
  00022	64 a3 00 00 00
	00		 mov	 DWORD PTR fs:0, eax
  00028	8b f9		 mov	 edi, ecx

; 991  : 	// TODO: Add extra cleanup here
; 992  : 	m_bPreview = FALSE;
; 993  : 	
; 994  : 	UpdateData(TRUE);

  0002a	6a 01		 push	 1
  0002c	c7 87 d4 09 00
	00 00 00 00 00	 mov	 DWORD PTR [edi+2516], 0
  00036	e8 00 00 00 00	 call	 ?UpdateData@CWnd@@QAEHH@Z ; CWnd::UpdateData

; 995  : 	
; 996  : 	// 1. Y  ( 0:, 1:, 2:, 3: )
; 997  : 	int nYScalePosition;
; 998  : 	if( m_bYScalePositionLeftSide && m_bYScalePositionRightSide == FALSE )

  0003b	83 bf 88 03 00
	00 00		 cmp	 DWORD PTR [edi+904], 0
  00042	74 14		 je	 SHORT $LN118@Recover
  00044	83 bf 8c 03 00
	00 00		 cmp	 DWORD PTR [edi+908], 0
  0004b	75 04		 jne	 SHORT $LN114@Recover

; 999  : 		nYScalePosition = 0;

  0004d	33 c0		 xor	 eax, eax
  0004f	eb 1b		 jmp	 SHORT $LN10@Recover
$LN114@Recover:

; 1003 : 
; 1004 : 	else if( m_bYScalePositionLeftSide && m_bYScalePositionRightSide)
; 1005 : 		nYScalePosition = 2;

  00051	b8 02 00 00 00	 mov	 eax, 2
  00056	eb 14		 jmp	 SHORT $LN10@Recover
$LN118@Recover:

; 1000 : 
; 1001 : 	else if( m_bYScalePositionLeftSide == FALSE && m_bYScalePositionRightSide)

  00058	83 bf 8c 03 00
	00 00		 cmp	 DWORD PTR [edi+908], 0

; 1002 : 		nYScalePosition = 1;

  0005f	b9 01 00 00 00	 mov	 ecx, 1

; 1006 : 
; 1007 : 	else if( m_bYScalePositionLeftSide == FALSE && m_bYScalePositionRightSide == FALSE )
; 1008 : 		nYScalePosition = 3;

  00064	b8 03 00 00 00	 mov	 eax, 3
  00069	0f 45 c1	 cmovne	 eax, ecx
$LN10@Recover:

; 1009 : 
; 1010 : 	// Y  ( 0:, 1:, 2:, 3: )
; 1011 : 	if( m_nOrgYScalePosition != nYScalePosition )

  0006c	8b 9f 48 09 00
	00		 mov	 ebx, DWORD PTR [edi+2376]
  00072	3b d8		 cmp	 ebx, eax
  00074	0f 84 83 00 00
	00		 je	 $LN2@Recover

; 1989 : 	IChartManager *pIChartManager = m_pIChartOCX->GetIChartManager();

  0007a	8b 8f d8 09 00
	00		 mov	 ecx, DWORD PTR [edi+2520]

; 1012 : 	{
; 1013 : 		m_nApplyYScalePosition = m_nOrgYScalePosition;

  00080	89 9f 9c 09 00
	00		 mov	 DWORD PTR [edi+2460], ebx

; 1989 : 	IChartManager *pIChartManager = m_pIChartOCX->GetIChartManager();

  00086	8b 01		 mov	 eax, DWORD PTR [ecx]
  00088	ff 50 18	 call	 DWORD PTR [eax+24]
  0008b	8b f0		 mov	 esi, eax

; 1990 : 	if( !pIChartManager) return;

  0008d	85 f6		 test	 esi, esi
  0008f	74 0e		 je	 SHORT $LN57@Recover

; 1991 : 
; 1992 : 	pIChartManager->SetAllVertScalePosition( CScaleBaseData::VERTSCALEPOSITION( nPosition));

  00091	8b 16		 mov	 edx, DWORD PTR [esi]
  00093	8b ce		 mov	 ecx, esi
  00095	53		 push	 ebx
  00096	ff 52 38	 call	 DWORD PTR [edx+56]

; 1993 : 	pIChartManager->Release();

  00099	8b 0e		 mov	 ecx, DWORD PTR [esi]
  0009b	56		 push	 esi
  0009c	ff 51 08	 call	 DWORD PTR [ecx+8]
$LN57@Recover:

; 1014 : 		SetYScalePosition( m_nOrgYScalePosition );
; 1015 : 		switch( m_nOrgYScalePosition )

  0009f	8b 87 48 09 00
	00		 mov	 eax, DWORD PTR [edi+2376]
  000a5	83 f8 03	 cmp	 eax, 3
  000a8	77 53		 ja	 SHORT $LN2@Recover
  000aa	ff 24 85 00 00
	00 00		 jmp	 DWORD PTR $LN121@Recover[eax*4]
$LN12@Recover:

; 1016 : 		{
; 1017 : 			case 0 :
; 1018 : 				m_bYScalePositionLeftSide = TRUE;

  000b1	c7 87 88 03 00
	00 01 00 00 00	 mov	 DWORD PTR [edi+904], 1

; 1019 : 				m_bYScalePositionRightSide = FALSE;
; 1020 : 				break;

  000bb	eb 36		 jmp	 SHORT $LN125@Recover
$LN13@Recover:

; 1021 : 			
; 1022 : 			case 1 :
; 1023 : 				m_bYScalePositionLeftSide = FALSE;

  000bd	c7 87 88 03 00
	00 00 00 00 00	 mov	 DWORD PTR [edi+904], 0

; 1024 : 				m_bYScalePositionRightSide = TRUE;

  000c7	c7 87 8c 03 00
	00 01 00 00 00	 mov	 DWORD PTR [edi+908], 1

; 1025 : 				break;

  000d1	eb 2a		 jmp	 SHORT $LN2@Recover
$LN14@Recover:

; 1026 : 			
; 1027 : 			case 2 :
; 1028 : 				m_bYScalePositionLeftSide = TRUE;

  000d3	c7 87 88 03 00
	00 01 00 00 00	 mov	 DWORD PTR [edi+904], 1

; 1029 : 				m_bYScalePositionRightSide = TRUE;

  000dd	c7 87 8c 03 00
	00 01 00 00 00	 mov	 DWORD PTR [edi+908], 1

; 1030 : 				break;

  000e7	eb 14		 jmp	 SHORT $LN2@Recover
$LN15@Recover:

; 1031 : 				
; 1032 : 			case 3 :
; 1033 : 				m_bYScalePositionLeftSide = FALSE;

  000e9	c7 87 88 03 00
	00 00 00 00 00	 mov	 DWORD PTR [edi+904], 0
$LN125@Recover:

; 1034 : 				m_bYScalePositionRightSide = FALSE;
; 1035 : 				break;
; 1036 : 		}
; 1037 : 	}
; 1038 : 
; 1039 : 	// (2009/9/3 - Seung-Won, Bae) Check the control not in common.
; 1040 : 	if( GetDlgItem( IDC_RDO_OHLC))

  000f3	c7 87 8c 03 00
	00 00 00 00 00	 mov	 DWORD PTR [edi+908], 0
$LN2@Recover:
  000fd	68 68 1f 00 00	 push	 8040			; 00001f68H
  00102	8b cf		 mov	 ecx, edi
  00104	e8 00 00 00 00	 call	 ?GetDlgItem@CWnd@@QBEPAV1@H@Z ; CWnd::GetDlgItem
  00109	85 c0		 test	 eax, eax
  0010b	74 2a		 je	 SHORT $LN16@Recover

; 1041 : 	{
; 1042 : 		// (2008/10/26 - Seung-Won, Bae) for O/H/L/C (not LH/LC/HC)
; 1043 : 		if( m_nOrgLH_LC_HC != m_nLH_LC_HC )

  0010d	8b 87 68 09 00
	00		 mov	 eax, DWORD PTR [edi+2408]
  00113	3b 87 0c 05 00
	00		 cmp	 eax, DWORD PTR [edi+1292]
  00119	74 4b		 je	 SHORT $LN19@Recover

; 1044 : 		{
; 1045 : 			SetShowLH_LC_HC( m_nOrgLH_LC_HC);

  0011b	50		 push	 eax
  0011c	8b cf		 mov	 ecx, edi
  0011e	e8 00 00 00 00	 call	 ?SetShowLH_LC_HC@CDlgMainTabBaseEnvSetUp@@IAEXH@Z ; CDlgMainTabBaseEnvSetUp::SetShowLH_LC_HC

; 1046 : 			m_nApplyLH_LC_HC = m_nLH_LC_HC = m_nOrgLH_LC_HC;

  00123	8b 87 68 09 00
	00		 mov	 eax, DWORD PTR [edi+2408]
  00129	89 87 0c 05 00
	00		 mov	 DWORD PTR [edi+1292], eax
  0012f	89 87 bc 09 00
	00		 mov	 DWORD PTR [edi+2492], eax

; 1047 : 		}
; 1048 : 	}

  00135	eb 2f		 jmp	 SHORT $LN19@Recover
$LN16@Recover:

; 1049 : 	else
; 1050 : 	{
; 1051 : 		// LH/LC/HC - ojtaso (20071226)
; 1052 : 		if( m_bOrgLH_LC_HC != m_bLH_LC_HC )

  00137	8b 8f 64 09 00
	00		 mov	 ecx, DWORD PTR [edi+2404]
  0013d	3b 8f 04 05 00
	00		 cmp	 ecx, DWORD PTR [edi+1284]
  00143	74 21		 je	 SHORT $LN19@Recover

; 1053 : 		{
; 1054 : 			SetShowLH_LC_HC( m_bOrgLH_LC_HC ? 1 : 0);

  00145	33 c0		 xor	 eax, eax
  00147	85 c9		 test	 ecx, ecx
  00149	8b cf		 mov	 ecx, edi
  0014b	0f 95 c0	 setne	 al
  0014e	50		 push	 eax
  0014f	e8 00 00 00 00	 call	 ?SetShowLH_LC_HC@CDlgMainTabBaseEnvSetUp@@IAEXH@Z ; CDlgMainTabBaseEnvSetUp::SetShowLH_LC_HC

; 1055 : 			m_bApplyLH_LC_HC = m_bLH_LC_HC = m_bOrgLH_LC_HC;

  00154	8b 87 64 09 00
	00		 mov	 eax, DWORD PTR [edi+2404]
  0015a	89 87 04 05 00
	00		 mov	 DWORD PTR [edi+1284], eax
  00160	89 87 b8 09 00
	00		 mov	 DWORD PTR [edi+2488], eax
$LN19@Recover:

; 1056 : 		}
; 1057 : 	}
; 1058 : 
; 1059 : // vntsorl_20110609:[A00000259]     
; 1060 : // 	if( ( m_bOrgShowCurrentPrice ? TRUE : FALSE ) != m_bShowCurrentPrice )
; 1061 : // 	{
; 1062 : // 		SetShowCurrentPrice( m_bOrgShowCurrentPrice ? 1: 0);
; 1063 : // 		m_bShowCurrentPrice = ( m_bOrgShowCurrentPrice ? TRUE : FALSE );
; 1064 : // 		m_bApplyShowCurrentPrice = m_bOrgShowCurrentPrice;
; 1065 : // 	}
; 1066 : // 
; 1067 : // 	//sy 2005.10.12
; 1068 : // 	int nShowCurrentPrice = GetCurrentPrice();
; 1069 : // 	if( m_bOrgShowCurrentPrice != nShowCurrentPrice )
; 1070 : // 	{
; 1071 : // 		SetShowCurrentPrice( m_bOrgShowCurrentPrice );
; 1072 : // 	
; 1073 : // 		//    - ojtaso (20071112)
; 1074 : // 		if(!m_bOrgShowCurrentPrice)
; 1075 : // 		{
; 1076 : // 			m_bShowCurrentPrice = FALSE;	//  
; 1077 : // 			GetDlgItem(IDC_STATIC_CUR_PRICE)->EnableWindow( FALSE );
; 1078 : // 			GetDlgItem(IDC_CUR_PRICE_1)->EnableWindow( FALSE );
; 1079 : // 			GetDlgItem(IDC_CUR_PRICE_2)->EnableWindow( FALSE );
; 1080 : // 			GetDlgItem(IDC_CUR_PRICE_3)->EnableWindow( FALSE );
; 1081 : // 			GetDlgItem(IDC_CUR_PRICE_4)->EnableWindow( FALSE );
; 1082 : // 		}
; 1083 : // 		else
; 1084 : // 		{
; 1085 : // 			GetDlgItem(IDC_STATIC_CUR_PRICE)->EnableWindow( TRUE );
; 1086 : // 			GetDlgItem(IDC_CUR_PRICE_1)->EnableWindow( TRUE );
; 1087 : // 			GetDlgItem(IDC_CUR_PRICE_2)->EnableWindow( TRUE );
; 1088 : // 			GetDlgItem(IDC_CUR_PRICE_3)->EnableWindow( TRUE );
; 1089 : // 			GetDlgItem(IDC_CUR_PRICE_4)->EnableWindow( TRUE );
; 1090 : // 			m_bShowCurrentPrice = TRUE;
; 1091 : // 			m_nCurPriceSub = m_bOrgShowCurrentPrice - 1;
; 1092 : // 		}
; 1093 : // 
; 1094 : // 		m_bApplyShowCurrentPrice = m_bOrgShowCurrentPrice;
; 1095 : // 	}
; 1096 : 	
; 1097 : 	if( 0 < m_nOrgShowCurrentPrice && !m_bShowCurrentPrice
; 1098 : 		|| 0 == m_nOrgShowCurrentPrice && m_bShowCurrentPrice)

  00166	8b 87 44 09 00
	00		 mov	 eax, DWORD PTR [edi+2372]
  0016c	8d b7 84 03 00
	00		 lea	 esi, DWORD PTR [edi+900]
  00172	85 c0		 test	 eax, eax
  00174	7e 07		 jle	 SHORT $LN126@Recover
  00176	83 3e 00	 cmp	 DWORD PTR [esi], 0
  00179	74 09		 je	 SHORT $LN21@Recover
  0017b	85 c0		 test	 eax, eax
$LN126@Recover:
  0017d	75 22		 jne	 SHORT $LN20@Recover
  0017f	83 3e 00	 cmp	 DWORD PTR [esi], 0
  00182	74 1d		 je	 SHORT $LN20@Recover
$LN21@Recover:

; 1099 : 	{
; 1100 : 		SetShowCurrentPrice( m_nOrgShowCurrentPrice);

  00184	50		 push	 eax
  00185	8b cf		 mov	 ecx, edi
  00187	e8 00 00 00 00	 call	 ?SetShowCurrentPrice@CDlgMainTabBaseEnvSetUp@@IAEXH@Z ; CDlgMainTabBaseEnvSetUp::SetShowCurrentPrice

; 1101 : 		m_bShowCurrentPrice = ( 0 < m_nOrgShowCurrentPrice ? TRUE : FALSE );

  0018c	8b 8f 44 09 00
	00		 mov	 ecx, DWORD PTR [edi+2372]
  00192	33 c0		 xor	 eax, eax
  00194	85 c9		 test	 ecx, ecx

; 1102 : 		m_nApplyShowCurrentPrice = m_nOrgShowCurrentPrice;

  00196	89 8f 98 09 00
	00		 mov	 DWORD PTR [edi+2456], ecx
  0019c	0f 9f c0	 setg	 al
  0019f	89 06		 mov	 DWORD PTR [esi], eax
$LN20@Recover:

; 1103 : 	}
; 1104 : 
; 1105 : 	//sy 2005.10.12
; 1106 : 	int nShowCurrentPrice = GetCurrentPrice();

  001a1	8b cf		 mov	 ecx, edi
  001a3	e8 00 00 00 00	 call	 ?GetCurrentPrice@CDlgMainTabBaseEnvSetUp@@ABEHXZ ; CDlgMainTabBaseEnvSetUp::GetCurrentPrice

; 1107 : 	if( m_nOrgShowCurrentPrice != nShowCurrentPrice )

  001a8	8b 8f 44 09 00
	00		 mov	 ecx, DWORD PTR [edi+2372]
  001ae	3b c8		 cmp	 ecx, eax
  001b0	74 14		 je	 SHORT $LN23@Recover

; 1108 : 	{
; 1109 : 		SetShowCurrentPrice( m_nOrgShowCurrentPrice);

  001b2	51		 push	 ecx
  001b3	8b cf		 mov	 ecx, edi
  001b5	e8 00 00 00 00	 call	 ?SetShowCurrentPrice@CDlgMainTabBaseEnvSetUp@@IAEXH@Z ; CDlgMainTabBaseEnvSetUp::SetShowCurrentPrice

; 1110 : 		m_nApplyShowCurrentPrice = m_nOrgShowCurrentPrice;

  001ba	8b 87 44 09 00
	00		 mov	 eax, DWORD PTR [edi+2372]
  001c0	89 87 98 09 00
	00		 mov	 DWORD PTR [edi+2456], eax
$LN23@Recover:

; 1111 : 	}
; 1112 : 
; 1113 : 	IChartManager *pIChartManager = m_pIChartOCX->GetIChartManager();

  001c6	8b 8f d8 09 00
	00		 mov	 ecx, DWORD PTR [edi+2520]
  001cc	8b 01		 mov	 eax, DWORD PTR [ecx]
  001ce	ff 50 18	 call	 DWORD PTR [eax+24]

; 1114 : 
; 1115 : 	// 2.  
; 1116 : 	CString szRightMargin = "";

  001d1	68 00 00 00 00	 push	 OFFSET ??_C@_00CNPNBAHC@@
  001d6	8d 4d e4	 lea	 ecx, DWORD PTR _szRightMargin$[ebp]
  001d9	8b d8		 mov	 ebx, eax
  001db	ff 15 00 00 00
	00		 call	 DWORD PTR __imp_??0?$CStringT@DV?$StrTraitMFC_DLL@DV?$ChTraitsCRT@D@ATL@@@@@ATL@@QAE@PBD@Z

; 1117 : 	m_edtRightMargin.GetWindowText( szRightMargin );

  001e1	8d 4d e4	 lea	 ecx, DWORD PTR _szRightMargin$[ebp]
  001e4	c7 45 fc 00 00
	00 00		 mov	 DWORD PTR __$EHRec$[ebp+8], 0
  001eb	51		 push	 ecx
  001ec	8d 8f 50 02 00
	00		 lea	 ecx, DWORD PTR [edi+592]
  001f2	e8 00 00 00 00	 call	 ?GetWindowTextA@CWnd@@QBEXAAV?$CStringT@DV?$StrTraitMFC_DLL@DV?$ChTraitsCRT@D@ATL@@@@@ATL@@@Z ; CWnd::GetWindowTextA

; 1118 : 	int nRightMargin = atoi( szRightMargin );

  001f7	ff 75 e4	 push	 DWORD PTR _szRightMargin$[ebp]
  001fa	ff 15 00 00 00
	00		 call	 DWORD PTR __imp__atoi
  00200	83 c4 04	 add	 esp, 4

; 1119 : 	if( pIChartManager && m_nOrgRightMargin != nRightMargin )

  00203	85 db		 test	 ebx, ebx
  00205	0f 84 b5 00 00
	00		 je	 $LN24@Recover
  0020b	8b 97 28 09 00
	00		 mov	 edx, DWORD PTR [edi+2344]
  00211	3b d0		 cmp	 edx, eax
  00213	0f 84 a7 00 00
	00		 je	 $LN24@Recover

; 1120 : 	{
; 1121 : 		// (2009/5/13 - Seung-Won, Bae) Manage right margin for only non special chart.
; 1122 : 		m_pIChartOCX->SetRightMarginWidth( m_nOrgRightMargin);

  00219	8b 8f d8 09 00
	00		 mov	 ecx, DWORD PTR [edi+2520]
  0021f	52		 push	 edx
  00220	8b 01		 mov	 eax, DWORD PTR [ecx]
  00222	ff 90 14 02 00
	00		 call	 DWORD PTR [eax+532]

; 1123 : 		m_nRightMargin = m_nOrgRightMargin;

  00228	8b 87 28 09 00
	00		 mov	 eax, DWORD PTR [edi+2344]

; 1125 : 		Initial_Spin( m_spnRightMargin, m_edtRightMargin, m_nOrgRightMargin );

  0022e	8d b7 d0 01 00
	00		 lea	 esi, DWORD PTR [edi+464]
  00234	89 45 dc	 mov	 DWORD PTR _Value$1$[ebp], eax

; 1590 : 	CNumEdit *pNumEdit = pSpin.GetBuddy();

  00237	8b ce		 mov	 ecx, esi

; 1123 : 		m_nRightMargin = m_nOrgRightMargin;

  00239	89 87 c8 09 00
	00		 mov	 DWORD PTR [edi+2504], eax

; 1124 : 		m_nApplyRightMargin = m_nOrgRightMargin;

  0023f	89 87 7c 09 00
	00		 mov	 DWORD PTR [edi+2428], eax

; 1590 : 	CNumEdit *pNumEdit = pSpin.GetBuddy();

  00245	8b 06		 mov	 eax, DWORD PTR [esi]
  00247	ff 90 80 01 00
	00		 call	 DWORD PTR [eax+384]

; 1593 : 	if( pNumEdit == NULL || *pNumEdit != pEdit )

  0024d	8d 8f 50 02 00
	00		 lea	 ecx, DWORD PTR [edi+592]
  00253	85 c0		 test	 eax, eax
  00255	74 10		 je	 SHORT $LN64@Recover
; File C:\Program Files (x86)\Microsoft Visual Studio\2019\Community\VC\Tools\MSVC\14.29.30133\atlmfc\include\afxwin2.inl

; 19   : 	{ return this == NULL ? NULL : m_hWnd; }

  00257	85 c9		 test	 ecx, ecx
  00259	75 04		 jne	 SHORT $LN70@Recover
  0025b	33 d2		 xor	 edx, edx
  0025d	eb 03		 jmp	 SHORT $LN71@Recover
$LN70@Recover:
  0025f	8b 51 20	 mov	 edx, DWORD PTR [ecx+32]
$LN71@Recover:

; 23   : 	{ return ((HWND) wnd) != m_hWnd; }

  00262	3b 50 20	 cmp	 edx, DWORD PTR [eax+32]
; File D:\git\src\IBK\IBK_DRFN\ProjSrc\SrcChartEx\ChartAddIn\ChartEnvSetupDlgAddIn\ChartEnvSetupDlgAddIn\DlgMainTabBaseEnvSetUp.cpp

; 1593 : 	if( pNumEdit == NULL || *pNumEdit != pEdit )

  00265	74 0b		 je	 SHORT $LN63@Recover
$LN64@Recover:

; 1594 : 		pSpin.SetBuddy( &pEdit ); 

  00267	8b 06		 mov	 eax, DWORD PTR [esi]
  00269	51		 push	 ecx
  0026a	8b ce		 mov	 ecx, esi
  0026c	ff 90 7c 01 00
	00		 call	 DWORD PTR [eax+380]
$LN63@Recover:

; 1595 : 	
; 1596 : 	// 2. Spin  .
; 1597 : 	pSpin.SetRange( 0, p_dMax);

  00272	8b 06		 mov	 eax, DWORD PTR [esi]
  00274	83 ec 08	 sub	 esp, 8
  00277	8b ce		 mov	 ecx, esi
  00279	c7 44 24 04 00
	00 7a 44	 mov	 DWORD PTR [esp+4], 1148846080 ; 447a0000H
  00281	c7 04 24 00 00
	00 00		 mov	 DWORD PTR [esp], 0
  00288	ff 90 88 01 00
	00		 call	 DWORD PTR [eax+392]
  0028e	66 0f 6e 45 dc	 movd	 xmm0, DWORD PTR _Value$1$[ebp]

; 1598 : 	pSpin.SetPos( ( float)Value);

  00293	8b 06		 mov	 eax, DWORD PTR [esi]
  00295	0f 5b c0	 cvtdq2ps xmm0, xmm0
  00298	51		 push	 ecx
  00299	8b ce		 mov	 ecx, esi
  0029b	f3 0f 11 04 24	 movss	 DWORD PTR [esp], xmm0
  002a0	ff 90 90 01 00
	00		 call	 DWORD PTR [eax+400]

; 1599 : 	pSpin.SetDelta( 1);	

  002a6	8b 06		 mov	 eax, DWORD PTR [esi]
  002a8	83 ec 08	 sub	 esp, 8
  002ab	f2 0f 10 05 00
	00 00 00	 movsd	 xmm0, QWORD PTR __real@3ff0000000000000
  002b3	8b ce		 mov	 ecx, esi
  002b5	f2 0f 11 04 24	 movsd	 QWORD PTR [esp], xmm0
  002ba	ff 90 74 01 00
	00		 call	 DWORD PTR [eax+372]
$LN24@Recover:

; 1129 : 	if( m_edtFutureTime.GetSafeHwnd() && m_spnFutureTime.GetSafeHwnd())

  002c0	8d b7 c8 03 00
	00		 lea	 esi, DWORD PTR [edi+968]
; File C:\Program Files (x86)\Microsoft Visual Studio\2019\Community\VC\Tools\MSVC\14.29.30133\atlmfc\include\afxwin2.inl

; 25   : 	{ return this == NULL ? NULL : m_hWnd; }

  002c6	85 f6		 test	 esi, esi
  002c8	0f 84 9b 00 00
	00		 je	 $LN25@Recover
; File D:\git\src\IBK\IBK_DRFN\ProjSrc\SrcChartEx\ChartAddIn\ChartEnvSetupDlgAddIn\ChartEnvSetupDlgAddIn\DlgMainTabBaseEnvSetUp.cpp

; 1129 : 	if( m_edtFutureTime.GetSafeHwnd() && m_spnFutureTime.GetSafeHwnd())

  002ce	83 7e 20 00	 cmp	 DWORD PTR [esi+32], 0
  002d2	0f 84 91 00 00
	00		 je	 $LN25@Recover
  002d8	8d 87 70 04 00
	00		 lea	 eax, DWORD PTR [edi+1136]
; File C:\Program Files (x86)\Microsoft Visual Studio\2019\Community\VC\Tools\MSVC\14.29.30133\atlmfc\include\afxwin2.inl

; 25   : 	{ return this == NULL ? NULL : m_hWnd; }

  002de	85 c0		 test	 eax, eax
  002e0	0f 84 83 00 00
	00		 je	 $LN25@Recover
; File D:\git\src\IBK\IBK_DRFN\ProjSrc\SrcChartEx\ChartAddIn\ChartEnvSetupDlgAddIn\ChartEnvSetupDlgAddIn\DlgMainTabBaseEnvSetUp.cpp

; 1129 : 	if( m_edtFutureTime.GetSafeHwnd() && m_spnFutureTime.GetSafeHwnd())

  002e6	83 78 20 00	 cmp	 DWORD PTR [eax+32], 0
  002ea	74 7d		 je	 SHORT $LN25@Recover

; 1130 : 	{
; 1131 : 		// (2009/5/17 - Seung-Won, Bae) for Future Time
; 1132 : 		CString szFutureTime = "";

  002ec	68 00 00 00 00	 push	 OFFSET ??_C@_00CNPNBAHC@@
  002f1	8d 4d ec	 lea	 ecx, DWORD PTR _szFutureTime$4[ebp]
  002f4	ff 15 00 00 00
	00		 call	 DWORD PTR __imp_??0?$CStringT@DV?$StrTraitMFC_DLL@DV?$ChTraitsCRT@D@ATL@@@@@ATL@@QAE@PBD@Z

; 1133 : 		m_edtFutureTime.GetWindowText( szFutureTime );

  002fa	8d 45 ec	 lea	 eax, DWORD PTR _szFutureTime$4[ebp]
  002fd	c6 45 fc 01	 mov	 BYTE PTR __$EHRec$[ebp+8], 1
  00301	50		 push	 eax
  00302	8b ce		 mov	 ecx, esi
  00304	e8 00 00 00 00	 call	 ?GetWindowTextA@CWnd@@QBEXAAV?$CStringT@DV?$StrTraitMFC_DLL@DV?$ChTraitsCRT@D@ATL@@@@@ATL@@@Z ; CWnd::GetWindowTextA

; 1134 : 		int nFutureTime = atoi( szFutureTime );

  00309	ff 75 ec	 push	 DWORD PTR _szFutureTime$4[ebp]
  0030c	ff 15 00 00 00
	00		 call	 DWORD PTR __imp__atoi
  00312	83 c4 04	 add	 esp, 4

; 1135 : 		if( pIChartManager && m_nOrgFutureTime != nFutureTime )

  00315	85 db		 test	 ebx, ebx
  00317	74 43		 je	 SHORT $LN26@Recover
  00319	8b 97 2c 09 00
	00		 mov	 edx, DWORD PTR [edi+2348]
  0031f	3b d0		 cmp	 edx, eax
  00321	74 39		 je	 SHORT $LN26@Recover

; 1136 : 		{
; 1137 : 			// (2009/5/13 - Seung-Won, Bae) Manage right margin for only non special chart.
; 1138 : 			m_pIChartOCX->SetFutureTimeCount( m_nOrgFutureTime);

  00323	8b 8f d8 09 00
	00		 mov	 ecx, DWORD PTR [edi+2520]
  00329	52		 push	 edx
  0032a	8b 01		 mov	 eax, DWORD PTR [ecx]
  0032c	ff 90 1c 02 00
	00		 call	 DWORD PTR [eax+540]

; 1139 : 			m_nFutureTime = m_nOrgFutureTime;

  00332	8b 87 2c 09 00
	00		 mov	 eax, DWORD PTR [edi+2348]

; 1140 : 			m_nApplyFutureTime = m_nOrgFutureTime;
; 1141 : 			Initial_Spin( m_spnFutureTime, m_edtFutureTime, m_nOrgFutureTime);

  00338	51		 push	 ecx
  00339	c7 04 24 00 00
	7a 44		 mov	 DWORD PTR [esp], 1148846080 ; 447a0000H
  00340	8b cf		 mov	 ecx, edi
  00342	50		 push	 eax
  00343	89 87 cc 09 00
	00		 mov	 DWORD PTR [edi+2508], eax
  00349	89 87 80 09 00
	00		 mov	 DWORD PTR [edi+2432], eax
  0034f	8d 87 70 04 00
	00		 lea	 eax, DWORD PTR [edi+1136]
  00355	56		 push	 esi
  00356	50		 push	 eax
  00357	e8 00 00 00 00	 call	 ?Initial_Spin@CDlgMainTabBaseEnvSetUp@@AAEXAAVCNumSpinCtrl@@AAVCNumEdit@@HM@Z ; CDlgMainTabBaseEnvSetUp::Initial_Spin
$LN26@Recover:

; 1142 : 		}
; 1143 : 	}

  0035c	8d 4d ec	 lea	 ecx, DWORD PTR _szFutureTime$4[ebp]
  0035f	c6 45 fc 00	 mov	 BYTE PTR __$EHRec$[ebp+8], 0
  00363	ff 15 00 00 00
	00		 call	 DWORD PTR __imp_??1?$CStringT@DV?$StrTraitMFC_DLL@DV?$ChTraitsCRT@D@ATL@@@@@ATL@@QAE@XZ
$LN25@Recover:

; 1144 : 	
; 1145 : 	m_nMouseWheelIndex = m_nOrgMouseWheelIndex;

  00369	8b 87 30 09 00
	00		 mov	 eax, DWORD PTR [edi+2352]

; 1146 : 	m_nApplyMouseWheelIndex = m_nOrgMouseWheelIndex;
; 1147 : 
; 1148 : 	// (2007/7/18 - Seung-Won, Bae) Up/Down Space.
; 1149 : 	CString szUpDownSpace = "";

  0036f	8d 4d e8	 lea	 ecx, DWORD PTR _szUpDownSpace$[ebp]
  00372	68 00 00 00 00	 push	 OFFSET ??_C@_00CNPNBAHC@@
  00377	89 87 bc 03 00
	00		 mov	 DWORD PTR [edi+956], eax
  0037d	89 87 84 09 00
	00		 mov	 DWORD PTR [edi+2436], eax
  00383	ff 15 00 00 00
	00		 call	 DWORD PTR __imp_??0?$CStringT@DV?$StrTraitMFC_DLL@DV?$ChTraitsCRT@D@ATL@@@@@ATL@@QAE@PBD@Z

; 1150 : 	m_edtUpDownSpace.GetWindowText( szUpDownSpace );

  00389	8d 4d e8	 lea	 ecx, DWORD PTR _szUpDownSpace$[ebp]
  0038c	c6 45 fc 02	 mov	 BYTE PTR __$EHRec$[ebp+8], 2
  00390	51		 push	 ecx
  00391	8d 8f 28 01 00
	00		 lea	 ecx, DWORD PTR [edi+296]
  00397	e8 00 00 00 00	 call	 ?GetWindowTextA@CWnd@@QBEXAAV?$CStringT@DV?$StrTraitMFC_DLL@DV?$ChTraitsCRT@D@ATL@@@@@ATL@@@Z ; CWnd::GetWindowTextA

; 1151 : 	int nUpDownSpace = atoi( szUpDownSpace );

  0039c	ff 75 e8	 push	 DWORD PTR _szUpDownSpace$[ebp]
  0039f	ff 15 00 00 00
	00		 call	 DWORD PTR __imp__atoi

; 1152 : 
; 1153 : 	if( m_nOrgUpDownSpace != nUpDownSpace )

  003a5	8b 8f 04 0a 00
	00		 mov	 ecx, DWORD PTR [edi+2564]
  003ab	83 c4 04	 add	 esp, 4
  003ae	3b c8		 cmp	 ecx, eax
  003b0	0f 84 a0 00 00
	00		 je	 $LN27@Recover

; 1154 : 	{
; 1155 : 		SetUpDownSpace( m_nOrgUpDownSpace );

  003b6	51		 push	 ecx
  003b7	8b cf		 mov	 ecx, edi
  003b9	e8 00 00 00 00	 call	 ?SetUpDownSpace@CDlgMainTabBaseEnvSetUp@@IAEXH@Z ; CDlgMainTabBaseEnvSetUp::SetUpDownSpace

; 1156 : 		m_nUpDownSpace = m_nOrgUpDownSpace;

  003be	8b 87 04 0a 00
	00		 mov	 eax, DWORD PTR [edi+2564]

; 1158 : 		Initial_Spin( m_spnUpDownSpace, m_edtUpDownSpace, m_nOrgUpDownSpace, 90);

  003c4	8d b7 a8 00 00
	00		 lea	 esi, DWORD PTR [edi+168]
  003ca	89 45 dc	 mov	 DWORD PTR _Value$1$[ebp], eax

; 1590 : 	CNumEdit *pNumEdit = pSpin.GetBuddy();

  003cd	8b ce		 mov	 ecx, esi

; 1156 : 		m_nUpDownSpace = m_nOrgUpDownSpace;

  003cf	89 87 00 0a 00
	00		 mov	 DWORD PTR [edi+2560], eax

; 1157 : 		m_nApplyUpDownSpace = m_nOrgUpDownSpace;

  003d5	89 87 08 0a 00
	00		 mov	 DWORD PTR [edi+2568], eax

; 1590 : 	CNumEdit *pNumEdit = pSpin.GetBuddy();

  003db	8b 06		 mov	 eax, DWORD PTR [esi]
  003dd	ff 90 80 01 00
	00		 call	 DWORD PTR [eax+384]

; 1593 : 	if( pNumEdit == NULL || *pNumEdit != pEdit )

  003e3	8d 8f 28 01 00
	00		 lea	 ecx, DWORD PTR [edi+296]
  003e9	85 c0		 test	 eax, eax
  003eb	74 10		 je	 SHORT $LN86@Recover
; File C:\Program Files (x86)\Microsoft Visual Studio\2019\Community\VC\Tools\MSVC\14.29.30133\atlmfc\include\afxwin2.inl

; 19   : 	{ return this == NULL ? NULL : m_hWnd; }

  003ed	85 c9		 test	 ecx, ecx
  003ef	75 04		 jne	 SHORT $LN92@Recover
  003f1	33 d2		 xor	 edx, edx
  003f3	eb 03		 jmp	 SHORT $LN93@Recover
$LN92@Recover:
  003f5	8b 51 20	 mov	 edx, DWORD PTR [ecx+32]
$LN93@Recover:

; 23   : 	{ return ((HWND) wnd) != m_hWnd; }

  003f8	3b 50 20	 cmp	 edx, DWORD PTR [eax+32]
; File D:\git\src\IBK\IBK_DRFN\ProjSrc\SrcChartEx\ChartAddIn\ChartEnvSetupDlgAddIn\ChartEnvSetupDlgAddIn\DlgMainTabBaseEnvSetUp.cpp

; 1593 : 	if( pNumEdit == NULL || *pNumEdit != pEdit )

  003fb	74 0b		 je	 SHORT $LN85@Recover
$LN86@Recover:

; 1594 : 		pSpin.SetBuddy( &pEdit ); 

  003fd	8b 06		 mov	 eax, DWORD PTR [esi]
  003ff	51		 push	 ecx
  00400	8b ce		 mov	 ecx, esi
  00402	ff 90 7c 01 00
	00		 call	 DWORD PTR [eax+380]
$LN85@Recover:

; 1595 : 	
; 1596 : 	// 2. Spin  .
; 1597 : 	pSpin.SetRange( 0, p_dMax);

  00408	8b 06		 mov	 eax, DWORD PTR [esi]
  0040a	83 ec 08	 sub	 esp, 8
  0040d	8b ce		 mov	 ecx, esi
  0040f	c7 44 24 04 00
	00 b4 42	 mov	 DWORD PTR [esp+4], 1119092736 ; 42b40000H
  00417	c7 04 24 00 00
	00 00		 mov	 DWORD PTR [esp], 0
  0041e	ff 90 88 01 00
	00		 call	 DWORD PTR [eax+392]
  00424	66 0f 6e 45 dc	 movd	 xmm0, DWORD PTR _Value$1$[ebp]

; 1598 : 	pSpin.SetPos( ( float)Value);

  00429	8b 06		 mov	 eax, DWORD PTR [esi]
  0042b	0f 5b c0	 cvtdq2ps xmm0, xmm0
  0042e	51		 push	 ecx
  0042f	8b ce		 mov	 ecx, esi
  00431	f3 0f 11 04 24	 movss	 DWORD PTR [esp], xmm0
  00436	ff 90 90 01 00
	00		 call	 DWORD PTR [eax+400]

; 1599 : 	pSpin.SetDelta( 1);	

  0043c	8b 06		 mov	 eax, DWORD PTR [esi]
  0043e	83 ec 08	 sub	 esp, 8
  00441	f2 0f 10 05 00
	00 00 00	 movsd	 xmm0, QWORD PTR __real@3ff0000000000000
  00449	8b ce		 mov	 ecx, esi
  0044b	f2 0f 11 04 24	 movsd	 QWORD PTR [esp], xmm0
  00450	ff 90 74 01 00
	00		 call	 DWORD PTR [eax+372]
$LN27@Recover:

; 1159 : 	}
; 1160 : 	
; 1161 : 	// 2.1 
; 1162 : 	if( pIChartManager && m_bOrgFixInterval != m_bFixInterval )

  00456	85 db		 test	 ebx, ebx
  00458	74 2d		 je	 SHORT $LN28@Recover
  0045a	8b 8f 5c 09 00
	00		 mov	 ecx, DWORD PTR [edi+2396]
  00460	3b 8f b4 03 00
	00		 cmp	 ecx, DWORD PTR [edi+948]
  00466	74 1f		 je	 SHORT $LN28@Recover

; 1163 : 	{
; 1164 : 		pIChartManager->SetFixedInterval( m_bOrgFixInterval, TRUE );

  00468	8b 03		 mov	 eax, DWORD PTR [ebx]
  0046a	6a 01		 push	 1
  0046c	51		 push	 ecx
  0046d	8b cb		 mov	 ecx, ebx
  0046f	ff 90 bc 00 00
	00		 call	 DWORD PTR [eax+188]

; 1165 : 		m_bFixInterval = m_bOrgFixInterval;

  00475	8b 87 5c 09 00
	00		 mov	 eax, DWORD PTR [edi+2396]
  0047b	89 87 b4 03 00
	00		 mov	 DWORD PTR [edi+948], eax

; 1166 : 		m_bApplyFixInterval = m_bOrgFixInterval;

  00481	89 87 b0 09 00
	00		 mov	 DWORD PTR [edi+2480], eax
$LN28@Recover:

; 1781 : 	IAddInToolMgr *pIAddInToolMgr = m_pIChartOCX->GetIAddInToolMgr();

  00487	8b 8f d8 09 00
	00		 mov	 ecx, DWORD PTR [edi+2520]
  0048d	c7 45 ec 00 00
	00 00		 mov	 DWORD PTR _lResult$3[ebp], 0
  00494	8b 01		 mov	 eax, DWORD PTR [ecx]
  00496	ff 50 24	 call	 DWORD PTR [eax+36]
  00499	8b f0		 mov	 esi, eax

; 1782 : 	if( pIAddInToolMgr)

  0049b	85 f6		 test	 esi, esi
  0049d	74 13		 je	 SHORT $LN95@Recover

; 1783 : 	{
; 1784 : 		pIAddInToolMgr->OnAddInToolCommand( lResult, EAI_CUSTOM_GET_EXISTENCE_BOUNDMARK);

  0049f	8b 16		 mov	 edx, DWORD PTR [esi]
  004a1	8d 45 ec	 lea	 eax, DWORD PTR _lResult$3[ebp]
  004a4	6a 0b		 push	 11			; 0000000bH
  004a6	50		 push	 eax
  004a7	8b ce		 mov	 ecx, esi
  004a9	ff 52 70	 call	 DWORD PTR [edx+112]

; 1785 : 		pIAddInToolMgr->Release();

  004ac	8b 06		 mov	 eax, DWORD PTR [esi]
  004ae	56		 push	 esi
  004af	ff 50 08	 call	 DWORD PTR [eax+8]
$LN95@Recover:

; 1167 : 	}
; 1168 : 
; 1169 : 	// 3.   
; 1170 : 	if( GetExistenceHighLowBound())

  004b2	83 7d ec 00	 cmp	 DWORD PTR _lResult$3[ebp], 0
  004b6	74 39		 je	 SHORT $LN30@Recover

; 1171 : 	{
; 1172 : 		if( ( m_bOrgShowHighLowBound ? TRUE : FALSE ) != m_bShowHighLowBound )

  004b8	8a 8f 3e 09 00
	00		 mov	 cl, BYTE PTR [edi+2366]
  004be	33 c0		 xor	 eax, eax
  004c0	84 c9		 test	 cl, cl
  004c2	0f 95 c0	 setne	 al
  004c5	3b 87 f4 04 00
	00		 cmp	 eax, DWORD PTR [edi+1268]
  004cb	74 24		 je	 SHORT $LN30@Recover

; 1173 : 		{
; 1174 : 			SetShowHighLowBound( m_bOrgShowHighLowBound );

  004cd	0f b6 c1	 movzx	 eax, cl
  004d0	8b cf		 mov	 ecx, edi
  004d2	50		 push	 eax
  004d3	e8 00 00 00 00	 call	 ?SetShowHighLowBound@CDlgMainTabBaseEnvSetUp@@IAEXH@Z ; CDlgMainTabBaseEnvSetUp::SetShowHighLowBound

; 1175 : 			m_bShowHighLowBound = ( m_bOrgShowHighLowBound ? TRUE : FALSE );

  004d8	8a 8f 3e 09 00
	00		 mov	 cl, BYTE PTR [edi+2366]
  004de	33 c0		 xor	 eax, eax
  004e0	84 c9		 test	 cl, cl

; 1176 : 			m_bApplyShowHighLowBound = m_bOrgShowHighLowBound;

  004e2	88 8f 92 09 00
	00		 mov	 BYTE PTR [edi+2450], cl
  004e8	0f 95 c0	 setne	 al
  004eb	89 87 f4 04 00
	00		 mov	 DWORD PTR [edi+1268], eax
$LN30@Recover:

; 1177 : 		}
; 1178 : 	}
; 1179 : 	
; 1180 : 	if( ( m_bOrgShowExRightDividend ? TRUE : FALSE ) != m_bShowExRightDividend )

  004f1	8a 8f 3f 09 00
	00		 mov	 cl, BYTE PTR [edi+2367]
  004f7	33 c0		 xor	 eax, eax
  004f9	84 c9		 test	 cl, cl
  004fb	0f 95 c0	 setne	 al
  004fe	3b 87 f0 04 00
	00		 cmp	 eax, DWORD PTR [edi+1264]
  00504	74 21		 je	 SHORT $LN31@Recover

; 1181 : 	{
; 1182 : 		SetShowExRightDividend( m_bOrgShowExRightDividend );

  00506	51		 push	 ecx
  00507	8b cf		 mov	 ecx, edi
  00509	e8 00 00 00 00	 call	 ?SetShowExRightDividend@CDlgMainTabBaseEnvSetUp@@IAEX_N@Z ; CDlgMainTabBaseEnvSetUp::SetShowExRightDividend

; 1183 : 		m_bShowExRightDividend = ( m_bOrgShowExRightDividend ? TRUE : FALSE );

  0050e	8a 8f 3f 09 00
	00		 mov	 cl, BYTE PTR [edi+2367]
  00514	33 c0		 xor	 eax, eax
  00516	84 c9		 test	 cl, cl

; 1184 : 		m_bApplyShowExRightDividend = m_bOrgShowExRightDividend;

  00518	88 8f 93 09 00
	00		 mov	 BYTE PTR [edi+2451], cl
  0051e	0f 95 c0	 setne	 al
  00521	89 87 f0 04 00
	00		 mov	 DWORD PTR [edi+1264], eax
$LN31@Recover:

; 1185 : 	}
; 1186 : 
; 1187 : 	if( m_bOrgUseRevisedPrice != m_bUseRevisedPrice)

  00527	8b 87 58 09 00
	00		 mov	 eax, DWORD PTR [edi+2392]
  0052d	3b 87 f8 04 00
	00		 cmp	 eax, DWORD PTR [edi+1272]
  00533	74 66		 je	 SHORT $LN32@Recover

; 1188 : 	{
; 1189 : 		if( m_MChartInterface.InitMChartInterface061115()) m_MChartInterface.SetRevisedPriceFlag( m_bOrgUseRevisedPrice);

  00535	8d 8f dc 09 00
	00		 lea	 ecx, DWORD PTR [edi+2524]
  0053b	e8 00 00 00 00	 call	 ?InitMChartInterface061115@COutsideCommonInterfaceFunction@@QAEHXZ ; COutsideCommonInterfaceFunction::InitMChartInterface061115
  00540	85 c0		 test	 eax, eax
  00542	74 13		 je	 SHORT $LN33@Recover
  00544	ff b7 58 09 00
	00		 push	 DWORD PTR [edi+2392]
  0054a	8d 8f dc 09 00
	00		 lea	 ecx, DWORD PTR [edi+2524]
  00550	e8 00 00 00 00	 call	 ?SetRevisedPriceFlag@COutsideCommonInterfaceFunction@@QAEHH@Z ; COutsideCommonInterfaceFunction::SetRevisedPriceFlag
  00555	eb 32		 jmp	 SHORT $LN34@Recover
$LN33@Recover:

; 1190 : 		// (2007/10/5 - Seung-Won, Bae) Support Map
; 1191 : 		else m_pIChartOCX->FireAddInEvent( CChartEnvSetupDlgAddInImp::m_strAddInItemName, 1006, NULL, 0, ( m_bOrgUseRevisedPrice ? 1 : 0));

  00557	8b 8f d8 09 00
	00		 mov	 ecx, DWORD PTR [edi+2520]
  0055d	33 c0		 xor	 eax, eax
  0055f	39 87 58 09 00
	00		 cmp	 DWORD PTR [edi+2392], eax
  00565	0f 57 c0	 xorps	 xmm0, xmm0
  00568	0f 95 c0	 setne	 al
  0056b	8b 11		 mov	 edx, DWORD PTR [ecx]
  0056d	50		 push	 eax
  0056e	83 ec 08	 sub	 esp, 8
  00571	f2 0f 11 04 24	 movsd	 QWORD PTR [esp], xmm0
  00576	6a 00		 push	 0
  00578	68 ee 03 00 00	 push	 1006			; 000003eeH
  0057d	ff 35 00 00 00
	00		 push	 DWORD PTR ?m_strAddInItemName@CChartEnvSetupDlgAddInImp@@2V?$CStringT@DV?$StrTraitMFC_DLL@DV?$ChTraitsCRT@D@ATL@@@@@ATL@@A ; CChartEnvSetupDlgAddInImp::m_strAddInItemName
  00583	ff 92 80 01 00
	00		 call	 DWORD PTR [edx+384]
$LN34@Recover:

; 1192 : 		m_bApplyUseRevisedPrice = m_bUseRevisedPrice = m_bOrgUseRevisedPrice;

  00589	8b 87 58 09 00
	00		 mov	 eax, DWORD PTR [edi+2392]
  0058f	89 87 f8 04 00
	00		 mov	 DWORD PTR [edi+1272], eax
  00595	89 87 ac 09 00
	00		 mov	 DWORD PTR [edi+2476], eax
$LN32@Recover:

; 1806 :  	IAddInToolMgr *pIAddInToolMgr = m_pIChartOCX->GetIAddInToolMgr();

  0059b	8b 8f d8 09 00
	00		 mov	 ecx, DWORD PTR [edi+2520]
  005a1	c7 45 ec 00 00
	00 00		 mov	 DWORD PTR _lResult$2[ebp], 0
  005a8	8b 01		 mov	 eax, DWORD PTR [ecx]
  005aa	ff 50 24	 call	 DWORD PTR [eax+36]
  005ad	8b f0		 mov	 esi, eax

; 1807 :  	if( pIAddInToolMgr)

  005af	85 f6		 test	 esi, esi
  005b1	74 13		 je	 SHORT $LN100@Recover

; 1808 :  	{
; 1809 :  		pIAddInToolMgr->OnAddInToolCommand( lResult, EAI_CUSTOM_GET_EXISTENCE_LOWHIGHMARK);

  005b3	8b 16		 mov	 edx, DWORD PTR [esi]
  005b5	8d 45 ec	 lea	 eax, DWORD PTR _lResult$2[ebp]
  005b8	6a 47		 push	 71			; 00000047H
  005ba	50		 push	 eax
  005bb	8b ce		 mov	 ecx, esi
  005bd	ff 52 70	 call	 DWORD PTR [edx+112]

; 1810 :  		pIAddInToolMgr->Release();

  005c0	8b 06		 mov	 eax, DWORD PTR [esi]
  005c2	56		 push	 esi
  005c3	ff 50 08	 call	 DWORD PTR [eax+8]
$LN100@Recover:

; 1193 : 	}
; 1194 : 
; 1195 : 	//>>20100120_JS.Kim_alzioyes	/ 
; 1196 : 	if( GetExistenceLowHighMarker())

  005c6	83 7d ec 00	 cmp	 DWORD PTR _lResult$2[ebp], 0
  005ca	74 56		 je	 SHORT $LN36@Recover

; 1197 : 	{
; 1198 : 		if( ( m_bOrgShowLowHighMarker ? TRUE : FALSE ) != m_bShowLowHighMarker )

  005cc	8a 8f 40 09 00
	00		 mov	 cl, BYTE PTR [edi+2368]
  005d2	33 c0		 xor	 eax, eax
  005d4	84 c9		 test	 cl, cl
  005d6	88 4d f3	 mov	 BYTE PTR tv1912[ebp], cl
  005d9	0f 95 c0	 setne	 al
  005dc	3b 87 fc 04 00
	00		 cmp	 eax, DWORD PTR [edi+1276]
  005e2	74 3e		 je	 SHORT $LN36@Recover

; 1827 :  	IAddInToolMgr *pIAddInToolMgr = m_pIChartOCX->GetIAddInToolMgr();

  005e4	8b 8f d8 09 00
	00		 mov	 ecx, DWORD PTR [edi+2520]
  005ea	8b 01		 mov	 eax, DWORD PTR [ecx]
  005ec	ff 50 24	 call	 DWORD PTR [eax+36]
  005ef	8b f0		 mov	 esi, eax

; 1828 :  	if( pIAddInToolMgr)

  005f1	85 f6		 test	 esi, esi
  005f3	74 14		 je	 SHORT $LN103@Recover

; 1199 : 		{
; 1200 : 			SetShowLowHighMarker( m_bOrgShowLowHighMarker );

  005f5	0f b6 4d f3	 movzx	 ecx, BYTE PTR tv1912[ebp]

; 1830 :  		pIAddInToolMgr->OnAddInToolCommand( EAI_CUSTOM_ENABLE_LOWHIGHMARK, p_bEnable);

  005f9	8b 16		 mov	 edx, DWORD PTR [esi]
  005fb	51		 push	 ecx
  005fc	6a 45		 push	 69			; 00000045H
  005fe	8b ce		 mov	 ecx, esi
  00600	ff 52 7c	 call	 DWORD PTR [edx+124]

; 1831 :  		pIAddInToolMgr->Release();

  00603	8b 06		 mov	 eax, DWORD PTR [esi]
  00605	56		 push	 esi
  00606	ff 50 08	 call	 DWORD PTR [eax+8]
$LN103@Recover:

; 1201 : 			m_bShowLowHighMarker = ( m_bOrgShowLowHighMarker ? TRUE : FALSE );

  00609	8a 8f 40 09 00
	00		 mov	 cl, BYTE PTR [edi+2368]
  0060f	33 c0		 xor	 eax, eax
  00611	84 c9		 test	 cl, cl

; 1202 : 			m_bApplyShowLowHighMarker = m_bOrgShowLowHighMarker;

  00613	88 8f 94 09 00
	00		 mov	 BYTE PTR [edi+2452], cl
  00619	0f 95 c0	 setne	 al
  0061c	89 87 fc 04 00
	00		 mov	 DWORD PTR [edi+1276], eax
$LN36@Recover:

; 1203 : 		}
; 1204 : 	}
; 1205 : 	//<<
; 1206 : 
; 1207 : 	// 4.   
; 1208 : 	if( m_bOrgShowAllTitle != m_bShowAllTitle )

  00622	8b 87 50 09 00
	00		 mov	 eax, DWORD PTR [edi+2384]
  00628	3b 87 a4 03 00
	00		 cmp	 eax, DWORD PTR [edi+932]
  0062e	0f 84 c0 00 00
	00		 je	 $LN37@Recover

; 1209 : 	{
; 1210 : 		if( ( m_bOrgShowIndicatorVariable ? TRUE : FALSE ) != m_bShowIndicatorVariable )					//  -  

  00634	8a 8f 3c 09 00
	00		 mov	 cl, BYTE PTR [edi+2364]
  0063a	33 c0		 xor	 eax, eax
  0063c	84 c9		 test	 cl, cl
  0063e	0f 95 c0	 setne	 al
  00641	3b 87 94 03 00
	00		 cmp	 eax, DWORD PTR [edi+916]
  00647	74 21		 je	 SHORT $LN38@Recover

; 1211 : 		{
; 1212 : 			SetShowIndicatorVariable( m_bOrgShowIndicatorVariable );

  00649	51		 push	 ecx
  0064a	8b cf		 mov	 ecx, edi
  0064c	e8 00 00 00 00	 call	 ?SetShowIndicatorVariable@CDlgMainTabBaseEnvSetUp@@IAEX_N@Z ; CDlgMainTabBaseEnvSetUp::SetShowIndicatorVariable

; 1213 : 			m_bShowIndicatorVariable = ( m_bOrgShowIndicatorVariable ? TRUE : FALSE );

  00651	8a 8f 3c 09 00
	00		 mov	 cl, BYTE PTR [edi+2364]
  00657	33 c0		 xor	 eax, eax
  00659	84 c9		 test	 cl, cl

; 1214 : 			m_bApplyShowIndicatorVariable = m_bOrgShowIndicatorVariable;

  0065b	88 8f 90 09 00
	00		 mov	 BYTE PTR [edi+2448], cl
  00661	0f 95 c0	 setne	 al
  00664	89 87 94 03 00
	00		 mov	 DWORD PTR [edi+916], eax
$LN38@Recover:

; 1215 : 		}
; 1216 : 		
; 1217 : 		if( ( m_bOrgShowIndicatorValue ? TRUE : FALSE ) != m_bShowIndicatorValue )						//  -  

  0066a	8a 8f 3d 09 00
	00		 mov	 cl, BYTE PTR [edi+2365]
  00670	33 c0		 xor	 eax, eax
  00672	84 c9		 test	 cl, cl
  00674	0f 95 c0	 setne	 al
  00677	3b 87 90 03 00
	00		 cmp	 eax, DWORD PTR [edi+912]
  0067d	74 21		 je	 SHORT $LN39@Recover

; 1218 : 		{
; 1219 : 			SetShowIndicatorValue( m_bOrgShowIndicatorValue );

  0067f	51		 push	 ecx
  00680	8b cf		 mov	 ecx, edi
  00682	e8 00 00 00 00	 call	 ?SetShowIndicatorValue@CDlgMainTabBaseEnvSetUp@@IAEX_N@Z ; CDlgMainTabBaseEnvSetUp::SetShowIndicatorValue

; 1220 : 			m_bShowIndicatorValue = ( m_bOrgShowIndicatorValue ? TRUE : FALSE );

  00687	8a 8f 3d 09 00
	00		 mov	 cl, BYTE PTR [edi+2365]
  0068d	33 c0		 xor	 eax, eax
  0068f	84 c9		 test	 cl, cl

; 1221 : 			m_bApplyShowIndicatorValue = m_bOrgShowIndicatorValue;

  00691	88 8f 91 09 00
	00		 mov	 BYTE PTR [edi+2449], cl
  00697	0f 95 c0	 setne	 al
  0069a	89 87 90 03 00
	00		 mov	 DWORD PTR [edi+912], eax
$LN39@Recover:

; 1222 : 		}
; 1223 : 
; 1224 : 		EnableUseIndicatorName( m_bOrgShowAllTitle );

  006a0	8b b7 50 09 00
	00		 mov	 esi, DWORD PTR [edi+2384]

; 543  : 	GetDlgItem(IDC_INDICATOR_VARIABLE)->EnableWindow(m_bShowAllTitle);

  006a6	8b cf		 mov	 ecx, edi
  006a8	56		 push	 esi
  006a9	68 f1 07 00 00	 push	 2033			; 000007f1H
  006ae	e8 00 00 00 00	 call	 ?GetDlgItem@CWnd@@QBEPAV1@H@Z ; CWnd::GetDlgItem
  006b3	8b c8		 mov	 ecx, eax
  006b5	e8 00 00 00 00	 call	 ?EnableWindow@CWnd@@QAEHH@Z ; CWnd::EnableWindow

; 544  : 	GetDlgItem(IDC_INDICATOR_VALUE)->EnableWindow(m_bShowAllTitle);

  006ba	56		 push	 esi
  006bb	68 f2 07 00 00	 push	 2034			; 000007f2H
  006c0	8b cf		 mov	 ecx, edi
  006c2	e8 00 00 00 00	 call	 ?GetDlgItem@CWnd@@QBEPAV1@H@Z ; CWnd::GetDlgItem
  006c7	8b c8		 mov	 ecx, eax
  006c9	e8 00 00 00 00	 call	 ?EnableWindow@CWnd@@QAEHH@Z ; CWnd::EnableWindow

; 1225 : 		m_pIChartOCX->SetHideAllTitle( m_bOrgShowAllTitle );

  006ce	8b 8f d8 09 00
	00		 mov	 ecx, DWORD PTR [edi+2520]
  006d4	ff b7 50 09 00
	00		 push	 DWORD PTR [edi+2384]
  006da	8b 01		 mov	 eax, DWORD PTR [ecx]
  006dc	ff 90 bc 00 00
	00		 call	 DWORD PTR [eax+188]

; 1226 : 		m_bApplyShowAllTitle = m_bShowAllTitle = m_bOrgShowAllTitle;

  006e2	8b 87 50 09 00
	00		 mov	 eax, DWORD PTR [edi+2384]
  006e8	89 87 a4 03 00
	00		 mov	 DWORD PTR [edi+932], eax
  006ee	89 87 a4 09 00
	00		 mov	 DWORD PTR [edi+2468], eax
$LN37@Recover:

; 1227 : 	}
; 1228 : 	
; 1229 : 	BOOL bUseMonthGapRevision = ( ( ( CButton *)GetDlgItem( IDC_USE_GAP_MONTHREV))->GetCheck() == 1);

  006f4	68 fd 17 00 00	 push	 6141			; 000017fdH
  006f9	8b cf		 mov	 ecx, edi
  006fb	e8 00 00 00 00	 call	 ?GetDlgItem@CWnd@@QBEPAV1@H@Z ; CWnd::GetDlgItem
; File C:\Program Files (x86)\Microsoft Visual Studio\2019\Community\VC\Tools\MSVC\14.29.30133\atlmfc\include\afxwin2.inl

; 628  : 	{ ASSERT(::IsWindow(m_hWnd)); return (int)::SendMessage(m_hWnd, BM_GETCHECK, 0, 0); }

  00700	6a 00		 push	 0
  00702	6a 00		 push	 0
  00704	68 f0 00 00 00	 push	 240			; 000000f0H
  00709	ff 70 20	 push	 DWORD PTR [eax+32]
  0070c	ff 15 00 00 00
	00		 call	 DWORD PTR __imp__SendMessageA@16
; File D:\git\src\IBK\IBK_DRFN\ProjSrc\SrcChartEx\ChartAddIn\ChartEnvSetupDlgAddIn\ChartEnvSetupDlgAddIn\DlgMainTabBaseEnvSetUp.cpp

; 1231 : 	BOOL bIsChanged = ( m_nOrgCandleType != m_nCandleType || m_bOrgUseGapRevision != m_bUseGapRevision || m_bOrgUseMonthGapRevision != bUseMonthGapRevision);

  00712	8b 8f 20 09 00
	00		 mov	 ecx, DWORD PTR [edi+2336]
  00718	8d 70 ff	 lea	 esi, DWORD PTR [eax-1]
  0071b	f7 de		 neg	 esi
  0071d	1b f6		 sbb	 esi, esi
  0071f	46		 inc	 esi
  00720	3b 8f 00 05 00
	00		 cmp	 ecx, DWORD PTR [edi+1280]
  00726	75 1d		 jne	 SHORT $LN52@Recover
  00728	8b 87 24 09 00
	00		 mov	 eax, DWORD PTR [edi+2340]
  0072e	3b 87 08 05 00
	00		 cmp	 eax, DWORD PTR [edi+1288]
  00734	75 0f		 jne	 SHORT $LN52@Recover
  00736	c7 45 e0 00 00
	00 00		 mov	 DWORD PTR _bIsChanged$1$[ebp], 0
  0073d	39 b7 70 09 00
	00		 cmp	 DWORD PTR [edi+2416], esi
  00743	74 07		 je	 SHORT $LN53@Recover
$LN52@Recover:
  00745	c7 45 e0 01 00
	00 00		 mov	 DWORD PTR _bIsChanged$1$[ebp], 1
$LN53@Recover:

; 1232 : 
; 1233 : 	BOOL bChangeAllGraph = FALSE;
; 1234 : 	// 2008.10.15 by LYH >> 
; 1235 : 	IAddInToolMgr *pIAddInToolMgr = m_pIChartOCX->GetIAddInToolMgr();

  0074c	8b 8f d8 09 00
	00		 mov	 ecx, DWORD PTR [edi+2520]
  00752	c7 45 dc 00 00
	00 00		 mov	 DWORD PTR _bChangeAllGraph$1$[ebp], 0
  00759	8b 01		 mov	 eax, DWORD PTR [ecx]
  0075b	ff 50 24	 call	 DWORD PTR [eax+36]
  0075e	8b c8		 mov	 ecx, eax
  00760	89 4d ec	 mov	 DWORD PTR _pIAddInToolMgr$1$[ebp], ecx

; 1236 : 	if( pIAddInToolMgr)

  00763	85 c9		 test	 ecx, ecx
  00765	0f 84 90 00 00
	00		 je	 $LN40@Recover

; 1237 : 	{
; 1238 : 		//>>   - vntsorl(20090217)
; 1239 : //		m_pIChartOCX->SetUseGapRevision( m_bOrgUseGapRevision, m_nOrgCandleType != m_nCandleType);
; 1240 : 		if( m_bOrgUseGapRevision != m_bUseGapRevision)

  0076b	8b 87 24 09 00
	00		 mov	 eax, DWORD PTR [edi+2340]
  00771	3b 87 08 05 00
	00		 cmp	 eax, DWORD PTR [edi+1288]
  00777	74 3e		 je	 SHORT $LN41@Recover

; 1241 : 		{
; 1242 : 			pIAddInToolMgr->OnAddInToolCommand( EAI_ENVSETUP_GAPREVISION_CHANGED, m_bOrgUseGapRevision, m_nOrgCandleType != m_nCandleType);

  00779	8b 11		 mov	 edx, DWORD PTR [ecx]
  0077b	33 c9		 xor	 ecx, ecx
  0077d	8b 87 20 09 00
	00		 mov	 eax, DWORD PTR [edi+2336]
  00783	3b 87 00 05 00
	00		 cmp	 eax, DWORD PTR [edi+1280]
  00789	0f 95 c1	 setne	 cl
  0078c	51		 push	 ecx
  0078d	ff b7 24 09 00
	00		 push	 DWORD PTR [edi+2340]
  00793	8b 4d ec	 mov	 ecx, DWORD PTR _pIAddInToolMgr$1$[ebp]
  00796	6a 40		 push	 64			; 00000040H
  00798	ff 52 74	 call	 DWORD PTR [edx+116]

; 1243 : 		//<<   - vntsorl(20090217)
; 1244 : 			m_bApplyUseGapRevision = m_bUseGapRevision = m_bOrgUseGapRevision;

  0079b	8b 87 24 09 00
	00		 mov	 eax, DWORD PTR [edi+2340]
  007a1	8b 4d ec	 mov	 ecx, DWORD PTR _pIAddInToolMgr$1$[ebp]
  007a4	89 87 08 05 00
	00		 mov	 DWORD PTR [edi+1288], eax
  007aa	89 87 78 09 00
	00		 mov	 DWORD PTR [edi+2424], eax

; 1245 : 
; 1246 : 			bChangeAllGraph = TRUE;

  007b0	c7 45 dc 01 00
	00 00		 mov	 DWORD PTR _bChangeAllGraph$1$[ebp], 1
$LN41@Recover:

; 1247 : 		}
; 1248 : 
; 1249 : 		//<< 20130530  :   (IBK) (Issue No : 0006572)
; 1250 : 		if( m_bOrgUseMonthGapRevision != bUseMonthGapRevision)

  007b7	8b 97 70 09 00
	00		 mov	 edx, DWORD PTR [edi+2416]
  007bd	3b d6		 cmp	 edx, esi
  007bf	74 31		 je	 SHORT $LN42@Recover

; 1251 : 		{
; 1252 : 			pIAddInToolMgr->OnAddInToolCommand( EAI_ENVSETUP_MONTHGAPREVISION_CHANGED, m_bOrgUseMonthGapRevision);

  007c1	8b 01		 mov	 eax, DWORD PTR [ecx]
  007c3	52		 push	 edx
  007c4	6a 42		 push	 66			; 00000042H
  007c6	ff 50 7c	 call	 DWORD PTR [eax+124]

; 1253 : 			m_bApplyUseMonthGapRevision = m_bOrgUseMonthGapRevision;

  007c9	8b b7 70 09 00
	00		 mov	 esi, DWORD PTR [edi+2416]

; 1254 : 			( ( CButton *)GetDlgItem( IDC_USE_GAP_MONTHREV))->SetCheck(m_bApplyUseMonthGapRevision);

  007cf	8b cf		 mov	 ecx, edi
  007d1	68 fd 17 00 00	 push	 6141			; 000017fdH
  007d6	89 b7 c4 09 00
	00		 mov	 DWORD PTR [edi+2500], esi
  007dc	e8 00 00 00 00	 call	 ?GetDlgItem@CWnd@@QBEPAV1@H@Z ; CWnd::GetDlgItem
; File C:\Program Files (x86)\Microsoft Visual Studio\2019\Community\VC\Tools\MSVC\14.29.30133\atlmfc\include\afxwin2.inl

; 630  : 	{ ASSERT(::IsWindow(m_hWnd)); ::SendMessage(m_hWnd, BM_SETCHECK, nCheck, 0); }

  007e1	6a 00		 push	 0
  007e3	56		 push	 esi
  007e4	68 f1 00 00 00	 push	 241			; 000000f1H
  007e9	ff 70 20	 push	 DWORD PTR [eax+32]
  007ec	ff 15 00 00 00
	00		 call	 DWORD PTR __imp__SendMessageA@16
$LN42@Recover:
; File D:\git\src\IBK\IBK_DRFN\ProjSrc\SrcChartEx\ChartAddIn\ChartEnvSetupDlgAddIn\ChartEnvSetupDlgAddIn\DlgMainTabBaseEnvSetUp.cpp

; 1258 : 		pIAddInToolMgr->Release();

  007f2	8b 4d ec	 mov	 ecx, DWORD PTR _pIAddInToolMgr$1$[ebp]
  007f5	51		 push	 ecx
  007f6	8b 01		 mov	 eax, DWORD PTR [ecx]
  007f8	ff 50 08	 call	 DWORD PTR [eax+8]
$LN40@Recover:

; 1259 : 	}
; 1260 : 	// 5.  
; 1261 : 	if( m_nOrgCandleType != m_nCandleType)

  007fb	8b 97 20 09 00
	00		 mov	 edx, DWORD PTR [edi+2336]
  00801	3b 97 00 05 00
	00		 cmp	 edx, DWORD PTR [edi+1280]
  00807	74 21		 je	 SHORT $LN43@Recover

; 1262 : 	{
; 1263 : 		m_pIChartOCX->SetNormalizedMinuteTimeRule( m_nOrgCandleType);

  00809	8b 8f d8 09 00
	00		 mov	 ecx, DWORD PTR [edi+2520]
  0080f	52		 push	 edx
  00810	8b 01		 mov	 eax, DWORD PTR [ecx]
  00812	ff 90 ac 00 00
	00		 call	 DWORD PTR [eax+172]

; 1264 : 		m_nApplyCandleType = m_nCandleType = m_nOrgCandleType;

  00818	8b 97 20 09 00
	00		 mov	 edx, DWORD PTR [edi+2336]
  0081e	89 97 00 05 00
	00		 mov	 DWORD PTR [edi+1280], edx
  00824	89 97 74 09 00
	00		 mov	 DWORD PTR [edi+2420], edx
$LN43@Recover:

; 1265 : 	}
; 1266 : 	// (2008/11/2 - Seung-Won, Bae) Notify to MChart with CandleType and GapRevision.
; 1267 : 	if( bIsChanged)

  0082a	83 7d e0 00	 cmp	 DWORD PTR _bIsChanged$1$[ebp], 0
  0082e	74 22		 je	 SHORT $LN44@Recover

; 1268 : 		m_MChartInterface.MChart_SetImaginaryCandleAndGapRevisionToOutside( m_nOrgCandleType ? true : false, m_bOrgUseGapRevision ? true : false);

  00830	83 bf 24 09 00
	00 00		 cmp	 DWORD PTR [edi+2340], 0
  00837	8d 8f dc 09 00
	00		 lea	 ecx, DWORD PTR [edi+2524]
  0083d	0f 95 c0	 setne	 al
  00840	85 d2		 test	 edx, edx
  00842	0f b6 c0	 movzx	 eax, al
  00845	50		 push	 eax
  00846	0f 95 c0	 setne	 al
  00849	0f b6 c0	 movzx	 eax, al
  0084c	50		 push	 eax
  0084d	e8 00 00 00 00	 call	 ?MChart_SetImaginaryCandleAndGapRevisionToOutside@COutsideCommonInterfaceFunction@@QAE_N_N0@Z ; COutsideCommonInterfaceFunction::MChart_SetImaginaryCandleAndGapRevisionToOutside
$LN44@Recover:

; 1269 : 		
; 1270 : 	// 6.  
; 1271 : 	// 6.1 / 
; 1272 : 	if( m_bOrgShowPriceMinMaxText != m_bShowPriceMinMaxText )

  00852	8b 97 54 09 00
	00		 mov	 edx, DWORD PTR [edi+2388]
  00858	3b 97 a8 03 00
	00		 cmp	 edx, DWORD PTR [edi+936]
  0085e	74 21		 je	 SHORT $LN45@Recover

; 1273 : 	{
; 1274 : 		m_pIChartOCX->ShowPriceMinMaxText(m_bOrgShowPriceMinMaxText);

  00860	8b 8f d8 09 00
	00		 mov	 ecx, DWORD PTR [edi+2520]
  00866	52		 push	 edx
  00867	8b 01		 mov	 eax, DWORD PTR [ecx]
  00869	ff 90 c4 00 00
	00		 call	 DWORD PTR [eax+196]

; 1275 : 		m_bApplyShowPriceMinMaxText = m_bShowPriceMinMaxText = m_bOrgShowPriceMinMaxText;

  0086f	8b 87 54 09 00
	00		 mov	 eax, DWORD PTR [edi+2388]
  00875	89 87 a8 03 00
	00		 mov	 DWORD PTR [edi+936], eax
  0087b	89 87 a8 09 00
	00		 mov	 DWORD PTR [edi+2472], eax
$LN45@Recover:

; 1276 : 	}
; 1277 : 
; 1278 : 	if( m_nOrgMinMaxRatio != m_nMinMaxRatio )

  00881	8b 97 6c 09 00
	00		 mov	 edx, DWORD PTR [edi+2412]
  00887	3b 97 c0 03 00
	00		 cmp	 edx, DWORD PTR [edi+960]
  0088d	74 21		 je	 SHORT $LN46@Recover

; 1279 : 	{
; 1280 : 		m_pIChartOCX->SetPriceMinMaxShowType(m_nOrgMinMaxRatio);

  0088f	8b 8f d8 09 00
	00		 mov	 ecx, DWORD PTR [edi+2520]
  00895	52		 push	 edx
  00896	8b 01		 mov	 eax, DWORD PTR [ecx]
  00898	ff 90 38 02 00
	00		 call	 DWORD PTR [eax+568]

; 1281 : 		m_nApplyMinMaxRatio = m_nMinMaxRatio = m_nOrgMinMaxRatio;

  0089e	8b 87 6c 09 00
	00		 mov	 eax, DWORD PTR [edi+2412]
  008a4	89 87 c0 03 00
	00		 mov	 DWORD PTR [edi+960], eax
  008aa	89 87 c0 09 00
	00		 mov	 DWORD PTR [edi+2496], eax
$LN46@Recover:

; 1282 : 	}
; 1283 : 
; 1284 : 	//    Scale   - ojtaso (20071101)
; 1285 : 	if( m_bOrgDrawBaseLine != m_bDrawBaseLine )

  008b0	8b 97 60 09 00
	00		 mov	 edx, DWORD PTR [edi+2400]
  008b6	3b 97 b8 03 00
	00		 cmp	 edx, DWORD PTR [edi+952]
  008bc	74 21		 je	 SHORT $LN47@Recover

; 1286 : 	{
; 1287 : 		m_pIChartOCX->SetDrawBaseLine(m_bOrgDrawBaseLine);

  008be	8b 8f d8 09 00
	00		 mov	 ecx, DWORD PTR [edi+2520]
  008c4	52		 push	 edx
  008c5	8b 01		 mov	 eax, DWORD PTR [ecx]
  008c7	ff 90 d4 00 00
	00		 call	 DWORD PTR [eax+212]

; 1288 : 		m_bApplyDrawBaseLine = m_bDrawBaseLine = m_bOrgDrawBaseLine;

  008cd	8b 87 60 09 00
	00		 mov	 eax, DWORD PTR [edi+2400]
  008d3	89 87 b8 03 00
	00		 mov	 DWORD PTR [edi+952], eax
  008d9	89 87 b4 09 00
	00		 mov	 DWORD PTR [edi+2484], eax
$LN47@Recover:

; 1289 : 	}
; 1290 : 
; 1291 : 	// 6.2 
; 1292 : 	long lNumericalInquiryOption = m_pIChartOCX->GetNumericalInquiryOption();

  008df	8b 8f d8 09 00
	00		 mov	 ecx, DWORD PTR [edi+2520]
  008e5	8b 01		 mov	 eax, DWORD PTR [ecx]
  008e7	ff 50 74	 call	 DWORD PTR [eax+116]
  008ea	8b f0		 mov	 esi, eax

; 1293 : 	if( m_lOrgNumericalInquiryOption != lNumericalInquiryOption)

  008ec	8b 87 4c 09 00
	00		 mov	 eax, DWORD PTR [edi+2380]
  008f2	3b c6		 cmp	 eax, esi
  008f4	74 50		 je	 SHORT $LN48@Recover

; 1294 : 	{
; 1295 : 		m_pIChartOCX->SetNumericalInquiryOption( m_lOrgNumericalInquiryOption);

  008f6	8b 8f d8 09 00
	00		 mov	 ecx, DWORD PTR [edi+2520]
  008fc	50		 push	 eax
  008fd	8b 11		 mov	 edx, DWORD PTR [ecx]
  008ff	ff 52 78	 call	 DWORD PTR [edx+120]

; 1296 : 
; 1297 : 		m_bInquieryDataWindow = ( lNumericalInquiryOption & NUMERICALINQUIRYDLG);

  00902	8b c6		 mov	 eax, esi
  00904	83 e0 01	 and	 eax, 1
  00907	89 87 a0 03 00
	00		 mov	 DWORD PTR [edi+928], eax

; 1298 : 		m_nInquiryDlgManualMove = ( lNumericalInquiryOption & NIDLG_MANUALMOVE ? 1 : 0);

  0090d	8b c6		 mov	 eax, esi
  0090f	c1 e8 03	 shr	 eax, 3
  00912	83 e0 01	 and	 eax, 1
  00915	89 87 c4 03 00
	00		 mov	 DWORD PTR [edi+964], eax

; 1299 : 		m_bUseCrossLine = ( lNumericalInquiryOption & CROSSLINEVIEW);

  0091b	8b c6		 mov	 eax, esi
  0091d	83 e0 02	 and	 eax, 2
  00920	89 87 98 03 00
	00		 mov	 DWORD PTR [edi+920], eax

; 1300 : 		m_bUseTooptipShow = ( lNumericalInquiryOption & TOOLTIPVIEW);

  00926	8b c6		 mov	 eax, esi
  00928	83 e0 04	 and	 eax, 4

; 1301 : 		m_bUseTooptipShowAll = ( lNumericalInquiryOption & TOOLTIPVIEW_ALL);//[A00000441]     

  0092b	83 e6 20	 and	 esi, 32			; 00000020H
  0092e	89 87 ac 03 00
	00		 mov	 DWORD PTR [edi+940], eax

; 1302 : 
; 1303 : 		m_lApplyNumericalInquiryOption = m_lOrgNumericalInquiryOption;

  00934	8b 87 4c 09 00
	00		 mov	 eax, DWORD PTR [edi+2380]
  0093a	89 b7 b0 03 00
	00		 mov	 DWORD PTR [edi+944], esi
  00940	89 87 a0 09 00
	00		 mov	 DWORD PTR [edi+2464], eax
$LN48@Recover:

; 1304 : 	}
; 1305 : 	
; 1306 : 	// 7.  
; 1307 : 	if( pIChartManager && m_nOrgCandleTypeOnResize != m_nCandleTypeOnResize )

  00946	85 db		 test	 ebx, ebx
  00948	74 33		 je	 SHORT $LN49@Recover
  0094a	8b 8f 34 09 00
	00		 mov	 ecx, DWORD PTR [edi+2356]
  00950	3b 8f 80 03 00
	00		 cmp	 ecx, DWORD PTR [edi+896]
  00956	74 25		 je	 SHORT $LN49@Recover

; 1308 : 	{
; 1309 : 		pIChartManager->SetCandleTypeOnResize( m_nOrgCandleTypeOnResize, TRUE);

  00958	8b 03		 mov	 eax, DWORD PTR [ebx]
  0095a	6a 01		 push	 1
  0095c	51		 push	 ecx
  0095d	8b cb		 mov	 ecx, ebx
  0095f	ff 90 b4 00 00
	00		 call	 DWORD PTR [eax+180]

; 1310 : 		//m_MChartInterface.MChart_SetImaginaryCandleToOutside( m_nOrgCandleType ? true : false);
; 1311 : 		m_nApplyCandleTypeOnResize = m_nCandleTypeOnResize = m_nOrgCandleTypeOnResize;

  00965	8b 87 34 09 00
	00		 mov	 eax, DWORD PTR [edi+2356]
  0096b	89 87 80 03 00
	00		 mov	 DWORD PTR [edi+896], eax
  00971	89 87 88 09 00
	00		 mov	 DWORD PTR [edi+2440], eax

; 1312 : 		pIChartManager->Release();

  00977	8b 03		 mov	 eax, DWORD PTR [ebx]
  00979	53		 push	 ebx
  0097a	ff 50 08	 call	 DWORD PTR [eax+8]
$LN49@Recover:

; 1313 : 	}
; 1314 : 
; 1315 : 	// Update to Graph -> Because GraphDraw data manage in Graph Object for Final Version.
; 1316 : 	if (bChangeAllGraph)

  0097d	83 7d dc 00	 cmp	 DWORD PTR _bChangeAllGraph$1$[ebp], 0
  00981	74 09		 je	 SHORT $LN50@Recover

; 1317 : 		pIChartManager->ChangeAllGraphDataFromGraphInfo( TRUE);

  00983	8b 03		 mov	 eax, DWORD PTR [ebx]
  00985	8b cb		 mov	 ecx, ebx
  00987	6a 01		 push	 1
  00989	ff 50 78	 call	 DWORD PTR [eax+120]
$LN50@Recover:

; 1318 : 
; 1319 : 	UpdateData(FALSE);

  0098c	6a 00		 push	 0
  0098e	8b cf		 mov	 ecx, edi
  00990	e8 00 00 00 00	 call	 ?UpdateData@CWnd@@QAEHH@Z ; CWnd::UpdateData
; File C:\Program Files (x86)\Microsoft Visual Studio\2019\Community\VC\Tools\MSVC\14.29.30133\atlmfc\include\afxwin2.inl

; 114  : 	{ ASSERT(::IsWindow(m_hWnd)); ::InvalidateRect(m_hWnd, NULL, bErase); }

  00995	6a 01		 push	 1
  00997	6a 00		 push	 0
  00999	ff 77 20	 push	 DWORD PTR [edi+32]
  0099c	ff 15 00 00 00
	00		 call	 DWORD PTR __imp__InvalidateRect@12
; File D:\git\src\IBK\IBK_DRFN\ProjSrc\SrcChartEx\ChartAddIn\ChartEnvSetupDlgAddIn\ChartEnvSetupDlgAddIn\DlgMainTabBaseEnvSetUp.cpp

; 1321 : 	m_pIChartOCX->InvalidateControl();

  009a2	8b 8f d8 09 00
	00		 mov	 ecx, DWORD PTR [edi+2520]
  009a8	8b 01		 mov	 eax, DWORD PTR [ecx]
  009aa	ff 50 38	 call	 DWORD PTR [eax+56]

; 1322 : }

  009ad	8d 4d e8	 lea	 ecx, DWORD PTR _szUpDownSpace$[ebp]
  009b0	ff 15 00 00 00
	00		 call	 DWORD PTR __imp_??1?$CStringT@DV?$StrTraitMFC_DLL@DV?$ChTraitsCRT@D@ATL@@@@@ATL@@QAE@XZ
  009b6	8d 4d e4	 lea	 ecx, DWORD PTR _szRightMargin$[ebp]
  009b9	ff 15 00 00 00
	00		 call	 DWORD PTR __imp_??1?$CStringT@DV?$StrTraitMFC_DLL@DV?$ChTraitsCRT@D@ATL@@@@@ATL@@QAE@XZ
  009bf	8b 4d f4	 mov	 ecx, DWORD PTR __$EHRec$[ebp]
  009c2	64 89 0d 00 00
	00 00		 mov	 DWORD PTR fs:0, ecx
  009c9	59		 pop	 ecx
  009ca	5f		 pop	 edi
  009cb	5e		 pop	 esi
  009cc	5b		 pop	 ebx
  009cd	8b e5		 mov	 esp, ebp
  009cf	5d		 pop	 ebp
  009d0	c3		 ret	 0
  009d1	0f 1f 00	 npad	 3
$LN121@Recover:
  009d4	00 00 00 00	 DD	 $LN12@Recover
  009d8	00 00 00 00	 DD	 $LN13@Recover
  009dc	00 00 00 00	 DD	 $LN14@Recover
  009e0	00 00 00 00	 DD	 $LN15@Recover
_TEXT	ENDS
;	COMDAT text$x
text$x	SEGMENT
__unwindfunclet$?Recover@CDlgMainTabBaseEnvSetUp@@QAEXXZ$0:
  00000	8d 4d e4	 lea	 ecx, DWORD PTR _szRightMargin$[ebp]
  00003	ff 25 00 00 00
	00		 jmp	 DWORD PTR __imp_??1?$CStringT@DV?$StrTraitMFC_DLL@DV?$ChTraitsCRT@D@ATL@@@@@ATL@@QAE@XZ
__unwindfunclet$?Recover@CDlgMainTabBaseEnvSetUp@@QAEXXZ$1:
  00009	8d 4d ec	 lea	 ecx, DWORD PTR _szFutureTime$4[ebp]
  0000c	ff 25 00 00 00
	00		 jmp	 DWORD PTR __imp_??1?$CStringT@DV?$StrTraitMFC_DLL@DV?$ChTraitsCRT@D@ATL@@@@@ATL@@QAE@XZ
__unwindfunclet$?Recover@CDlgMainTabBaseEnvSetUp@@QAEXXZ$2:
  00012	8d 4d e8	 lea	 ecx, DWORD PTR _szUpDownSpace$[ebp]
  00015	ff 25 00 00 00
	00		 jmp	 DWORD PTR __imp_??1?$CStringT@DV?$StrTraitMFC_DLL@DV?$ChTraitsCRT@D@ATL@@@@@ATL@@QAE@XZ
  0001b	cc		 int	 3
  0001c	cc		 int	 3
  0001d	cc		 int	 3
  0001e	cc		 int	 3
  0001f	cc		 int	 3
__ehhandler$?Recover@CDlgMainTabBaseEnvSetUp@@QAEXXZ:
  00020	90		 npad	 1
  00021	90		 npad	 1
  00022	8b 54 24 08	 mov	 edx, DWORD PTR [esp+8]
  00026	8d 42 0c	 lea	 eax, DWORD PTR [edx+12]
  00029	8b 4a d8	 mov	 ecx, DWORD PTR [edx-40]
  0002c	33 c8		 xor	 ecx, eax
  0002e	e8 00 00 00 00	 call	 @__security_check_cookie@4
  00033	b8 00 00 00 00	 mov	 eax, OFFSET __ehfuncinfo$?Recover@CDlgMainTabBaseEnvSetUp@@QAEXXZ
  00038	e9 00 00 00 00	 jmp	 ___CxxFrameHandler3
text$x	ENDS
?Recover@CDlgMainTabBaseEnvSetUp@@QAEXXZ ENDP		; CDlgMainTabBaseEnvSetUp::Recover
; Function compile flags: /Ogtp
; File D:\git\src\IBK\IBK_DRFN\ProjSrc\SrcChartEx\ChartAddIn\ChartEnvSetupDlgAddIn\ChartEnvSetupDlgAddIn\DlgMainTabBaseEnvSetUp.cpp
;	COMDAT ?DoDataExchange@CDlgMainTabBaseEnvSetUp@@MAEXPAVCDataExchange@@@Z
_TEXT	SEGMENT
_pDX$ = 8						; size = 4
?DoDataExchange@CDlgMainTabBaseEnvSetUp@@MAEXPAVCDataExchange@@@Z PROC ; CDlgMainTabBaseEnvSetUp::DoDataExchange, COMDAT
; _this$ = ecx

; 94   : {

  00000	55		 push	 ebp
  00001	8b ec		 mov	 ebp, esp
  00003	56		 push	 esi
  00004	8b f1		 mov	 esi, ecx
  00006	57		 push	 edi

; 95   : 	CDialog::DoDataExchange(pDX);
; 96   : 	//{{AFX_DATA_MAP(CDlgMainTabBaseEnvSetUp)
; 97   : 	DDX_Control(pDX, IDC_SPIN_IDC_EDIT_UPDOWN_SPACE, m_spnUpDownSpace);

  00007	8b 7d 08	 mov	 edi, DWORD PTR _pDX$[ebp]
  0000a	8d 86 a8 00 00
	00		 lea	 eax, DWORD PTR [esi+168]
  00010	50		 push	 eax
  00011	68 f4 17 00 00	 push	 6132			; 000017f4H
  00016	57		 push	 edi
  00017	e8 00 00 00 00	 call	 ?DDX_Control@@YGXPAVCDataExchange@@HAAVCWnd@@@Z ; DDX_Control

; 98   : 	DDX_Control(pDX, IDC_EDIT_UPDOWN_SPACE, m_edtUpDownSpace);

  0001c	8d 86 28 01 00
	00		 lea	 eax, DWORD PTR [esi+296]
  00022	50		 push	 eax
  00023	68 f3 17 00 00	 push	 6131			; 000017f3H
  00028	57		 push	 edi
  00029	e8 00 00 00 00	 call	 ?DDX_Control@@YGXPAVCDataExchange@@HAAVCWnd@@@Z ; DDX_Control

; 99   : 	DDX_Control(pDX, IDC_SPIN_IDC_EDIT_RIGHT_MARGIN, m_spnRightMargin);

  0002e	8d 86 d0 01 00
	00		 lea	 eax, DWORD PTR [esi+464]
  00034	50		 push	 eax
  00035	68 f2 17 00 00	 push	 6130			; 000017f2H
  0003a	57		 push	 edi
  0003b	e8 00 00 00 00	 call	 ?DDX_Control@@YGXPAVCDataExchange@@HAAVCWnd@@@Z ; DDX_Control

; 100  : 	DDX_Control(pDX, IDC_EDIT_RIGHT_MARGIN, m_edtRightMargin);

  00040	8d 86 50 02 00
	00		 lea	 eax, DWORD PTR [esi+592]
  00046	50		 push	 eax
  00047	68 f1 17 00 00	 push	 6129			; 000017f1H
  0004c	57		 push	 edi
  0004d	e8 00 00 00 00	 call	 ?DDX_Control@@YGXPAVCDataExchange@@HAAVCWnd@@@Z ; DDX_Control

; 101  : 	DDX_Radio(pDX, IDC_CANDLETYPE_ONSIZE1, m_nCandleTypeOnResize);

  00052	8d 86 80 03 00
	00		 lea	 eax, DWORD PTR [esi+896]
  00058	50		 push	 eax
  00059	68 5a 1f 00 00	 push	 8026			; 00001f5aH
  0005e	57		 push	 edi
  0005f	e8 00 00 00 00	 call	 ?DDX_Radio@@YGXPAVCDataExchange@@HAAH@Z ; DDX_Radio

; 102  : 	DDX_Check(pDX, IDC_SHOW_CURRENT_PRICE, m_bShowCurrentPrice);

  00064	8d 86 84 03 00
	00		 lea	 eax, DWORD PTR [esi+900]
  0006a	50		 push	 eax
  0006b	68 f0 07 00 00	 push	 2032			; 000007f0H
  00070	57		 push	 edi
  00071	e8 00 00 00 00	 call	 ?DDX_Check@@YGXPAVCDataExchange@@HAAH@Z ; DDX_Check

; 103  : 	DDX_Check(pDX, IDC_Y_SCALE_POSITION_LEFTSIDE, m_bYScalePositionLeftSide);

  00076	8d 86 88 03 00
	00		 lea	 eax, DWORD PTR [esi+904]
  0007c	50		 push	 eax
  0007d	68 f3 07 00 00	 push	 2035			; 000007f3H
  00082	57		 push	 edi
  00083	e8 00 00 00 00	 call	 ?DDX_Check@@YGXPAVCDataExchange@@HAAH@Z ; DDX_Check

; 104  : 	DDX_Check(pDX, IDC_Y_SCALE_POSITION_RIGHTSIDE, m_bYScalePositionRightSide);

  00088	8d 86 8c 03 00
	00		 lea	 eax, DWORD PTR [esi+908]
  0008e	50		 push	 eax
  0008f	68 f4 07 00 00	 push	 2036			; 000007f4H
  00094	57		 push	 edi
  00095	e8 00 00 00 00	 call	 ?DDX_Check@@YGXPAVCDataExchange@@HAAH@Z ; DDX_Check

; 105  : 	DDX_Check(pDX, IDC_INDICATOR_VALUE, m_bShowIndicatorValue);

  0009a	8d 86 90 03 00
	00		 lea	 eax, DWORD PTR [esi+912]
  000a0	50		 push	 eax
  000a1	68 f2 07 00 00	 push	 2034			; 000007f2H
  000a6	57		 push	 edi
  000a7	e8 00 00 00 00	 call	 ?DDX_Check@@YGXPAVCDataExchange@@HAAH@Z ; DDX_Check

; 106  : 	DDX_Check(pDX, IDC_INDICATOR_VARIABLE, m_bShowIndicatorVariable);

  000ac	8d 86 94 03 00
	00		 lea	 eax, DWORD PTR [esi+916]
  000b2	50		 push	 eax
  000b3	68 f1 07 00 00	 push	 2033			; 000007f1H
  000b8	57		 push	 edi
  000b9	e8 00 00 00 00	 call	 ?DDX_Check@@YGXPAVCDataExchange@@HAAH@Z ; DDX_Check

; 107  : 	DDX_Check(pDX, IDC_USE_CROSS_LINE, m_bUseCrossLine);

  000be	8d 86 98 03 00
	00		 lea	 eax, DWORD PTR [esi+920]
  000c4	50		 push	 eax
  000c5	68 f5 17 00 00	 push	 6133			; 000017f5H
  000ca	57		 push	 edi
  000cb	e8 00 00 00 00	 call	 ?DDX_Check@@YGXPAVCDataExchange@@HAAH@Z ; DDX_Check

; 108  : 	DDX_Check(pDX, IDC_INQUIRYDATA_WINDOW_SHOW, m_bInquieryDataWindow);

  000d0	8d 86 a0 03 00
	00		 lea	 eax, DWORD PTR [esi+928]
  000d6	50		 push	 eax
  000d7	68 88 17 00 00	 push	 6024			; 00001788H
  000dc	57		 push	 edi
  000dd	e8 00 00 00 00	 call	 ?DDX_Check@@YGXPAVCDataExchange@@HAAH@Z ; DDX_Check

; 109  : 	DDX_Check(pDX, IDC_HIDE_ALL_TITLE, m_bShowAllTitle);

  000e2	8d 86 a4 03 00
	00		 lea	 eax, DWORD PTR [esi+932]
  000e8	50		 push	 eax
  000e9	68 f9 03 00 00	 push	 1017			; 000003f9H
  000ee	57		 push	 edi
  000ef	e8 00 00 00 00	 call	 ?DDX_Check@@YGXPAVCDataExchange@@HAAH@Z ; DDX_Check

; 110  : 	DDX_Check(pDX, IDC_SHOW_MIN_MAX_PRICE, m_bShowPriceMinMaxText);

  000f4	8d 86 a8 03 00
	00		 lea	 eax, DWORD PTR [esi+936]
  000fa	50		 push	 eax
  000fb	68 f8 03 00 00	 push	 1016			; 000003f8H
  00100	57		 push	 edi
  00101	e8 00 00 00 00	 call	 ?DDX_Check@@YGXPAVCDataExchange@@HAAH@Z ; DDX_Check

; 111  : 	DDX_Check(pDX, IDC_USE_TOOLTIP_SHOW, m_bUseTooptipShow);

  00106	8d 86 ac 03 00
	00		 lea	 eax, DWORD PTR [esi+940]
  0010c	50		 push	 eax
  0010d	68 f6 17 00 00	 push	 6134			; 000017f6H
  00112	57		 push	 edi
  00113	e8 00 00 00 00	 call	 ?DDX_Check@@YGXPAVCDataExchange@@HAAH@Z ; DDX_Check

; 112  : 	DDX_Check(pDX, IDC_USE_TOOLTIP_SHOW_ALL, m_bUseTooptipShowAll);		//[A00000441]     

  00118	8d 86 b0 03 00
	00		 lea	 eax, DWORD PTR [esi+944]
  0011e	50		 push	 eax
  0011f	68 6a 1f 00 00	 push	 8042			; 00001f6aH
  00124	57		 push	 edi
  00125	e8 00 00 00 00	 call	 ?DDX_Check@@YGXPAVCDataExchange@@HAAH@Z ; DDX_Check

; 113  : 	DDX_Check(pDX, IDC_FIX_INTERVAL, m_bFixInterval);

  0012a	8d 86 b4 03 00
	00		 lea	 eax, DWORD PTR [esi+948]
  00130	50		 push	 eax
  00131	68 fa 03 00 00	 push	 1018			; 000003faH
  00136	57		 push	 edi
  00137	e8 00 00 00 00	 call	 ?DDX_Check@@YGXPAVCDataExchange@@HAAH@Z ; DDX_Check

; 114  : 	DDX_Check(pDX, IDC_DISPLAY_BASELINE, m_bDrawBaseLine);

  0013c	8d 86 b8 03 00
	00		 lea	 eax, DWORD PTR [esi+952]
  00142	50		 push	 eax
  00143	68 08 04 00 00	 push	 1032			; 00000408H
  00148	57		 push	 edi
  00149	e8 00 00 00 00	 call	 ?DDX_Check@@YGXPAVCDataExchange@@HAAH@Z ; DDX_Check

; 115  : 	DDX_CBIndex(pDX, IDC_COMBO_MOUSEWHEEL, m_nMouseWheelIndex);

  0014e	8d 86 bc 03 00
	00		 lea	 eax, DWORD PTR [esi+956]
  00154	50		 push	 eax
  00155	68 6e 1f 00 00	 push	 8046			; 00001f6eH
  0015a	57		 push	 edi
  0015b	e8 00 00 00 00	 call	 ?DDX_CBIndex@@YGXPAVCDataExchange@@HAAH@Z ; DDX_CBIndex

; 116  : 	DDX_Radio(pDX, IDC_RDO_CURPRICE, m_nMinMaxRatio);

  00160	8d 86 c0 03 00
	00		 lea	 eax, DWORD PTR [esi+960]
  00166	50		 push	 eax
  00167	68 6f 1f 00 00	 push	 8047			; 00001f6fH
  0016c	57		 push	 edi
  0016d	e8 00 00 00 00	 call	 ?DDX_Radio@@YGXPAVCDataExchange@@HAAH@Z ; DDX_Radio

; 117  : 	DDX_Control(pDX, IDC_TICK_GUBUN,		m_chkHScaleGridType_Day);

  00172	8d 86 a0 05 00
	00		 lea	 eax, DWORD PTR [esi+1440]
  00178	50		 push	 eax
  00179	68 02 18 00 00	 push	 6146			; 00001802H
  0017e	57		 push	 edi
  0017f	e8 00 00 00 00	 call	 ?DDX_Control@@YGXPAVCDataExchange@@HAAVCWnd@@@Z ; DDX_Control

; 118  : 	DDX_Control(pDX, IDC_DAY_WEEK_GUBUN,	m_chkHScaleGridType_Day_Week);

  00184	8d 86 20 06 00
	00		 lea	 eax, DWORD PTR [esi+1568]
  0018a	50		 push	 eax
  0018b	68 03 18 00 00	 push	 6147			; 00001803H
  00190	57		 push	 edi
  00191	e8 00 00 00 00	 call	 ?DDX_Control@@YGXPAVCDataExchange@@HAAVCWnd@@@Z ; DDX_Control

; 119  : 	DDX_Control(pDX, IDC_DAY_MON_GUBUN,		m_chkHScaleGridType_Day_Mon);

  00196	8d 86 a0 06 00
	00		 lea	 eax, DWORD PTR [esi+1696]
  0019c	50		 push	 eax
  0019d	68 04 18 00 00	 push	 6148			; 00001804H
  001a2	57		 push	 edi
  001a3	e8 00 00 00 00	 call	 ?DDX_Control@@YGXPAVCDataExchange@@HAAVCWnd@@@Z ; DDX_Control

; 120  : 	DDX_Control(pDX, IDC_DAY_YEAR_GUBUN,	m_chkHScaleGridType_Day_Year);

  001a8	8d 86 20 07 00
	00		 lea	 eax, DWORD PTR [esi+1824]
  001ae	50		 push	 eax
  001af	68 fe 17 00 00	 push	 6142			; 000017feH
  001b4	57		 push	 edi
  001b5	e8 00 00 00 00	 call	 ?DDX_Control@@YGXPAVCDataExchange@@HAAVCWnd@@@Z ; DDX_Control

; 121  : 	DDX_Control(pDX, IDC_WEEK_MON_GUBUN,	m_chkHScaleGridType_Week_Mon);

  001ba	8d 86 a0 07 00
	00		 lea	 eax, DWORD PTR [esi+1952]
  001c0	50		 push	 eax
  001c1	68 00 18 00 00	 push	 6144			; 00001800H
  001c6	57		 push	 edi
  001c7	e8 00 00 00 00	 call	 ?DDX_Control@@YGXPAVCDataExchange@@HAAVCWnd@@@Z ; DDX_Control

; 122  : 	DDX_Control(pDX, IDC_WEEK_YEAR_GUBUN,	m_chkHScaleGridType_Week_Year);

  001cc	8d 86 20 08 00
	00		 lea	 eax, DWORD PTR [esi+2080]
  001d2	50		 push	 eax
  001d3	68 ff 17 00 00	 push	 6143			; 000017ffH
  001d8	57		 push	 edi
  001d9	e8 00 00 00 00	 call	 ?DDX_Control@@YGXPAVCDataExchange@@HAAVCWnd@@@Z ; DDX_Control

; 123  : 	DDX_Control(pDX, IDC_MON_YEAR_GUBUN,	m_chkHScaleGridType_Mon_Year);

  001de	8d 86 a0 08 00
	00		 lea	 eax, DWORD PTR [esi+2208]
  001e4	50		 push	 eax
  001e5	68 01 18 00 00	 push	 6145			; 00001801H
  001ea	57		 push	 edi
  001eb	e8 00 00 00 00	 call	 ?DDX_Control@@YGXPAVCDataExchange@@HAAVCWnd@@@Z ; DDX_Control

; 124  : 	//}}AFX_DATA_MAP
; 125  : 
; 126  : 	// (2009/9/3 - Seung-Won, Bae) Check the control not in common.
; 127  : 	if( GetDlgItem( IDC_INQUIRYDATA_WINDOW_MOVETYPE_MANUAL))

  001f0	68 8a 17 00 00	 push	 6026			; 0000178aH
  001f5	8b ce		 mov	 ecx, esi
  001f7	e8 00 00 00 00	 call	 ?GetDlgItem@CWnd@@QBEPAV1@H@Z ; CWnd::GetDlgItem
  001fc	85 c0		 test	 eax, eax
  001fe	74 12		 je	 SHORT $LN2@DoDataExch

; 128  : 		DDX_Radio(pDX, IDC_INQUIRYDATA_WINDOW_MOVETYPE_MANUAL, m_nInquiryDlgManualMove);

  00200	8d 86 c4 03 00
	00		 lea	 eax, DWORD PTR [esi+964]
  00206	50		 push	 eax
  00207	68 8a 17 00 00	 push	 6026			; 0000178aH
  0020c	57		 push	 edi
  0020d	e8 00 00 00 00	 call	 ?DDX_Radio@@YGXPAVCDataExchange@@HAAH@Z ; DDX_Radio
$LN2@DoDataExch:

; 129  : 	if( GetDlgItem( IDC_EDT_FUTURE_TIME))

  00212	68 fa 17 00 00	 push	 6138			; 000017faH
  00217	8b ce		 mov	 ecx, esi
  00219	e8 00 00 00 00	 call	 ?GetDlgItem@CWnd@@QBEPAV1@H@Z ; CWnd::GetDlgItem
  0021e	85 c0		 test	 eax, eax
  00220	74 12		 je	 SHORT $LN3@DoDataExch

; 130  : 		DDX_Control(pDX, IDC_EDT_FUTURE_TIME, m_edtFutureTime);

  00222	8d 86 c8 03 00
	00		 lea	 eax, DWORD PTR [esi+968]
  00228	50		 push	 eax
  00229	68 fa 17 00 00	 push	 6138			; 000017faH
  0022e	57		 push	 edi
  0022f	e8 00 00 00 00	 call	 ?DDX_Control@@YGXPAVCDataExchange@@HAAVCWnd@@@Z ; DDX_Control
$LN3@DoDataExch:

; 131  : 	if( GetDlgItem( IDC_SPIN_FUTURE_TIME))

  00234	68 fb 17 00 00	 push	 6139			; 000017fbH
  00239	8b ce		 mov	 ecx, esi
  0023b	e8 00 00 00 00	 call	 ?GetDlgItem@CWnd@@QBEPAV1@H@Z ; CWnd::GetDlgItem
  00240	85 c0		 test	 eax, eax
  00242	74 12		 je	 SHORT $LN4@DoDataExch

; 132  : 		DDX_Control(pDX, IDC_SPIN_FUTURE_TIME, m_spnFutureTime);

  00244	8d 86 70 04 00
	00		 lea	 eax, DWORD PTR [esi+1136]
  0024a	50		 push	 eax
  0024b	68 fb 17 00 00	 push	 6139			; 000017fbH
  00250	57		 push	 edi
  00251	e8 00 00 00 00	 call	 ?DDX_Control@@YGXPAVCDataExchange@@HAAVCWnd@@@Z ; DDX_Control
$LN4@DoDataExch:

; 133  : 	if( GetDlgItem( IDC_SHOW_EXRIGHT_DIVIDEND))

  00256	68 eb 07 00 00	 push	 2027			; 000007ebH
  0025b	8b ce		 mov	 ecx, esi
  0025d	e8 00 00 00 00	 call	 ?GetDlgItem@CWnd@@QBEPAV1@H@Z ; CWnd::GetDlgItem
  00262	85 c0		 test	 eax, eax
  00264	74 12		 je	 SHORT $LN5@DoDataExch

; 134  : 		DDX_Check(pDX, IDC_SHOW_EXRIGHT_DIVIDEND, m_bShowExRightDividend);

  00266	8d 86 f0 04 00
	00		 lea	 eax, DWORD PTR [esi+1264]
  0026c	50		 push	 eax
  0026d	68 eb 07 00 00	 push	 2027			; 000007ebH
  00272	57		 push	 edi
  00273	e8 00 00 00 00	 call	 ?DDX_Check@@YGXPAVCDataExchange@@HAAH@Z ; DDX_Check
$LN5@DoDataExch:

; 135  : 	if( GetDlgItem( IDC_SHOW_HIGH_LOW_BOUND))

  00278	68 e7 07 00 00	 push	 2023			; 000007e7H
  0027d	8b ce		 mov	 ecx, esi
  0027f	e8 00 00 00 00	 call	 ?GetDlgItem@CWnd@@QBEPAV1@H@Z ; CWnd::GetDlgItem
  00284	85 c0		 test	 eax, eax
  00286	74 12		 je	 SHORT $LN6@DoDataExch

; 136  : 		DDX_Check(pDX, IDC_SHOW_HIGH_LOW_BOUND, m_bShowHighLowBound);

  00288	8d 86 f4 04 00
	00		 lea	 eax, DWORD PTR [esi+1268]
  0028e	50		 push	 eax
  0028f	68 e7 07 00 00	 push	 2023			; 000007e7H
  00294	57		 push	 edi
  00295	e8 00 00 00 00	 call	 ?DDX_Check@@YGXPAVCDataExchange@@HAAH@Z ; DDX_Check
$LN6@DoDataExch:

; 137  : 	if( GetDlgItem( IDC_USE_REVISED_PRICE))

  0029a	68 f7 03 00 00	 push	 1015			; 000003f7H
  0029f	8b ce		 mov	 ecx, esi
  002a1	e8 00 00 00 00	 call	 ?GetDlgItem@CWnd@@QBEPAV1@H@Z ; CWnd::GetDlgItem
  002a6	85 c0		 test	 eax, eax
  002a8	74 12		 je	 SHORT $LN7@DoDataExch

; 138  : 		DDX_Check(pDX, IDC_USE_REVISED_PRICE, m_bUseRevisedPrice);

  002aa	8d 86 f8 04 00
	00		 lea	 eax, DWORD PTR [esi+1272]
  002b0	50		 push	 eax
  002b1	68 f7 03 00 00	 push	 1015			; 000003f7H
  002b6	57		 push	 edi
  002b7	e8 00 00 00 00	 call	 ?DDX_Check@@YGXPAVCDataExchange@@HAAH@Z ; DDX_Check
$LN7@DoDataExch:

; 139  : 	//>>20100120_JS.Kim_alzioyes	/ 
; 140  : 	if( GetDlgItem( IDC_SHOW_LOWHIGH_MARKER))

  002bc	68 ff 03 00 00	 push	 1023			; 000003ffH
  002c1	8b ce		 mov	 ecx, esi
  002c3	e8 00 00 00 00	 call	 ?GetDlgItem@CWnd@@QBEPAV1@H@Z ; CWnd::GetDlgItem
  002c8	85 c0		 test	 eax, eax
  002ca	74 12		 je	 SHORT $LN8@DoDataExch

; 141  : 		DDX_Check(pDX, IDC_SHOW_LOWHIGH_MARKER, m_bShowLowHighMarker);

  002cc	8d 86 fc 04 00
	00		 lea	 eax, DWORD PTR [esi+1276]
  002d2	50		 push	 eax
  002d3	68 ff 03 00 00	 push	 1023			; 000003ffH
  002d8	57		 push	 edi
  002d9	e8 00 00 00 00	 call	 ?DDX_Check@@YGXPAVCDataExchange@@HAAH@Z ; DDX_Check
$LN8@DoDataExch:

; 142  : 	//<<
; 143  : 	if( GetDlgItem( IDC_CANDLE_ONLY))

  002de	68 db 07 00 00	 push	 2011			; 000007dbH
  002e3	8b ce		 mov	 ecx, esi
  002e5	e8 00 00 00 00	 call	 ?GetDlgItem@CWnd@@QBEPAV1@H@Z ; CWnd::GetDlgItem
  002ea	85 c0		 test	 eax, eax
  002ec	74 12		 je	 SHORT $LN9@DoDataExch

; 144  : 		DDX_Radio(pDX, IDC_CANDLE_ONLY, m_nCandleType);

  002ee	8d 86 00 05 00
	00		 lea	 eax, DWORD PTR [esi+1280]
  002f4	50		 push	 eax
  002f5	68 db 07 00 00	 push	 2011			; 000007dbH
  002fa	57		 push	 edi
  002fb	e8 00 00 00 00	 call	 ?DDX_Radio@@YGXPAVCDataExchange@@HAAH@Z ; DDX_Radio
$LN9@DoDataExch:

; 145  : 	if( GetDlgItem( IDC_CHK_LH_LC_HC))

  00300	68 09 04 00 00	 push	 1033			; 00000409H
  00305	8b ce		 mov	 ecx, esi
  00307	e8 00 00 00 00	 call	 ?GetDlgItem@CWnd@@QBEPAV1@H@Z ; CWnd::GetDlgItem
  0030c	85 c0		 test	 eax, eax
  0030e	74 12		 je	 SHORT $LN10@DoDataExch

; 146  : 		DDX_Check(pDX, IDC_CHK_LH_LC_HC, m_bLH_LC_HC);

  00310	8d 86 04 05 00
	00		 lea	 eax, DWORD PTR [esi+1284]
  00316	50		 push	 eax
  00317	68 09 04 00 00	 push	 1033			; 00000409H
  0031c	57		 push	 edi
  0031d	e8 00 00 00 00	 call	 ?DDX_Check@@YGXPAVCDataExchange@@HAAH@Z ; DDX_Check
$LN10@DoDataExch:

; 147  : 	if( GetDlgItem( IDC_USE_GAP_REVISION))

  00322	68 fc 17 00 00	 push	 6140			; 000017fcH
  00327	8b ce		 mov	 ecx, esi
  00329	e8 00 00 00 00	 call	 ?GetDlgItem@CWnd@@QBEPAV1@H@Z ; CWnd::GetDlgItem
  0032e	85 c0		 test	 eax, eax
  00330	74 12		 je	 SHORT $LN11@DoDataExch

; 148  : 		DDX_Check(pDX, IDC_USE_GAP_REVISION, m_bUseGapRevision);

  00332	8d 86 08 05 00
	00		 lea	 eax, DWORD PTR [esi+1288]
  00338	50		 push	 eax
  00339	68 fc 17 00 00	 push	 6140			; 000017fcH
  0033e	57		 push	 edi
  0033f	e8 00 00 00 00	 call	 ?DDX_Check@@YGXPAVCDataExchange@@HAAH@Z ; DDX_Check
$LN11@DoDataExch:

; 149  : 	if( GetDlgItem( IDC_RDO_OHLC))

  00344	68 68 1f 00 00	 push	 8040			; 00001f68H
  00349	8b ce		 mov	 ecx, esi
  0034b	e8 00 00 00 00	 call	 ?GetDlgItem@CWnd@@QBEPAV1@H@Z ; CWnd::GetDlgItem
  00350	85 c0		 test	 eax, eax
  00352	74 12		 je	 SHORT $LN12@DoDataExch

; 150  : 		DDX_Radio(pDX, IDC_RDO_OHLC, m_nLH_LC_HC);

  00354	8d 86 0c 05 00
	00		 lea	 eax, DWORD PTR [esi+1292]
  0035a	50		 push	 eax
  0035b	68 68 1f 00 00	 push	 8040			; 00001f68H
  00360	57		 push	 edi
  00361	e8 00 00 00 00	 call	 ?DDX_Radio@@YGXPAVCDataExchange@@HAAH@Z ; DDX_Radio
$LN12@DoDataExch:

; 151  : 
; 152  : // vntsorl_20110609:[A00000259]     
; 153  : 	if( GetDlgItem(IDC_CUR_PRICE_TYPE_COMBO) )

  00366	68 6b 1f 00 00	 push	 8043			; 00001f6bH
  0036b	8b ce		 mov	 ecx, esi
  0036d	e8 00 00 00 00	 call	 ?GetDlgItem@CWnd@@QBEPAV1@H@Z ; CWnd::GetDlgItem
  00372	85 c0		 test	 eax, eax
  00374	74 12		 je	 SHORT $LN13@DoDataExch

; 154  : 		DDX_Control(pDX, IDC_CUR_PRICE_TYPE_COMBO, m_curPriceTypeCombo);

  00376	8d 86 10 05 00
	00		 lea	 eax, DWORD PTR [esi+1296]
  0037c	50		 push	 eax
  0037d	68 6b 1f 00 00	 push	 8043			; 00001f6bH
  00382	57		 push	 edi
  00383	e8 00 00 00 00	 call	 ?DDX_Control@@YGXPAVCDataExchange@@HAAVCWnd@@@Z ; DDX_Control
$LN13@DoDataExch:

; 155  : 	if( GetDlgItem( IDC_CUR_PRICE_TYPE_PREDAY))

  00388	68 6c 1f 00 00	 push	 8044			; 00001f6cH
  0038d	8b ce		 mov	 ecx, esi
  0038f	e8 00 00 00 00	 call	 ?GetDlgItem@CWnd@@QBEPAV1@H@Z ; CWnd::GetDlgItem
  00394	85 c0		 test	 eax, eax
  00396	74 12		 je	 SHORT $LN14@DoDataExch

; 156  : 		DDX_Radio(pDX, IDC_CUR_PRICE_TYPE_PREDAY, m_nPriceBongType);

  00398	8d 86 90 05 00
	00		 lea	 eax, DWORD PTR [esi+1424]
  0039e	50		 push	 eax
  0039f	68 6c 1f 00 00	 push	 8044			; 00001f6cH
  003a4	57		 push	 edi
  003a5	e8 00 00 00 00	 call	 ?DDX_Radio@@YGXPAVCDataExchange@@HAAH@Z ; DDX_Radio
$LN14@DoDataExch:

; 157  : }

  003aa	5f		 pop	 edi
  003ab	5e		 pop	 esi
  003ac	5d		 pop	 ebp
  003ad	c2 04 00	 ret	 4
?DoDataExchange@CDlgMainTabBaseEnvSetUp@@MAEXPAVCDataExchange@@@Z ENDP ; CDlgMainTabBaseEnvSetUp::DoDataExchange
_TEXT	ENDS
; Function compile flags: /Ogtp
; File D:\git\src\IBK\IBK_DRFN\ProjSrc\SrcChartEx\ChartAddIn\ChartEnvSetupDlgAddIn\ChartEnvSetupDlgAddIn\DlgMainTabBaseEnvSetUp.cpp
; File D:\git\src\IBK\IBK_DRFN\ProjSrc\SrcChartEx\ChartAddIn\ChartEnvSetupDlgAddIn\ChartEnvSetupDlgAddIn\DlgEnvSetUpAll.h
; File D:\git\src\IBK\IBK_DRFN\ProjSrc\SrcChartEx\ChartAddIn\ChartEnvSetupDlgAddIn\ChartEnvSetupDlgAddIn\DlgMainTabBaseEnvSetUp.cpp
; File D:\git\src\IBK\IBK_DRFN\ProjSrc\SrcChartEx\ChartAddIn\ChartEnvSetupDlgAddIn\ChartEnvSetupDlgAddIn\DlgEnvSetUpAll.h
; File D:\git\src\IBK\IBK_DRFN\ProjSrc\SrcChartEx\ChartAddIn\ChartEnvSetupDlgAddIn\ChartEnvSetupDlgAddIn\DlgMainTabBaseEnvSetUp.cpp
;	COMDAT ?PreTranslateMessage@CDlgMainTabBaseEnvSetUp@@UAEHPAUtagMSG@@@Z
_TEXT	SEGMENT
_pMsg$ = 8						; size = 4
?PreTranslateMessage@CDlgMainTabBaseEnvSetUp@@UAEHPAUtagMSG@@@Z PROC ; CDlgMainTabBaseEnvSetUp::PreTranslateMessage, COMDAT
; _this$ = ecx

; 1604 : {

  00000	55		 push	 ebp
  00001	8b ec		 mov	 ebp, esp
  00003	56		 push	 esi

; 1605 : 	// TODO: Add your specialized code here and/or call the base class
; 1606 : 	if(pMsg->message == WM_KEYDOWN)

  00004	8b 75 08	 mov	 esi, DWORD PTR _pMsg$[ebp]
  00007	57		 push	 edi
  00008	8b f9		 mov	 edi, ecx
  0000a	81 7e 04 00 01
	00 00		 cmp	 DWORD PTR [esi+4], 256	; 00000100H
  00011	75 34		 jne	 SHORT $LN6@PreTransla

; 1607 : 	{
; 1608 : 		if(pMsg->wParam == VK_RETURN)

  00013	8b 46 08	 mov	 eax, DWORD PTR [esi+8]
  00016	83 f8 0d	 cmp	 eax, 13			; 0000000dH
  00019	75 15		 jne	 SHORT $LN4@PreTransla

; 1609 : 		{
; 1610 : 			if( m_pParentWnd != NULL )

  0001b	8b 8f 94 00 00
	00		 mov	 ecx, DWORD PTR [edi+148]
  00021	85 c9		 test	 ecx, ecx
  00023	74 22		 je	 SHORT $LN6@PreTransla
; File D:\git\src\IBK\IBK_DRFN\ProjSrc\SrcChartEx\ChartAddIn\ChartEnvSetupDlgAddIn\ChartEnvSetupDlgAddIn\DlgEnvSetUpAll.h

; 60   : 	void OK( void )			{ OnOK(); };

  00025	8b 01		 mov	 eax, DWORD PTR [ecx]
  00027	ff 90 88 01 00
	00		 call	 DWORD PTR [eax+392]
  0002d	8b 46 08	 mov	 eax, DWORD PTR [esi+8]
$LN4@PreTransla:
; File D:\git\src\IBK\IBK_DRFN\ProjSrc\SrcChartEx\ChartAddIn\ChartEnvSetupDlgAddIn\ChartEnvSetupDlgAddIn\DlgMainTabBaseEnvSetUp.cpp

; 1614 : 		if( pMsg->wParam == VK_ESCAPE )

  00030	83 f8 1b	 cmp	 eax, 27			; 0000001bH
  00033	75 12		 jne	 SHORT $LN6@PreTransla

; 1615 : 		{
; 1616 : 			if( m_pParentWnd != NULL )

  00035	8b 8f 94 00 00
	00		 mov	 ecx, DWORD PTR [edi+148]
  0003b	85 c9		 test	 ecx, ecx
  0003d	74 08		 je	 SHORT $LN6@PreTransla
; File D:\git\src\IBK\IBK_DRFN\ProjSrc\SrcChartEx\ChartAddIn\ChartEnvSetupDlgAddIn\ChartEnvSetupDlgAddIn\DlgEnvSetUpAll.h

; 61   : 	void Cancel( void )		{ OnCancel(); };

  0003f	8b 01		 mov	 eax, DWORD PTR [ecx]
  00041	ff 90 8c 01 00
	00		 call	 DWORD PTR [eax+396]
$LN6@PreTransla:
; File D:\git\src\IBK\IBK_DRFN\ProjSrc\SrcChartEx\ChartAddIn\ChartEnvSetupDlgAddIn\ChartEnvSetupDlgAddIn\DlgMainTabBaseEnvSetUp.cpp

; 1621 : 	return CDialog::PreTranslateMessage(pMsg);

  00047	56		 push	 esi
  00048	8b cf		 mov	 ecx, edi
  0004a	e8 00 00 00 00	 call	 ?PreTranslateMessage@CDialog@@UAEHPAUtagMSG@@@Z ; CDialog::PreTranslateMessage
  0004f	5f		 pop	 edi
  00050	5e		 pop	 esi

; 1622 : }

  00051	5d		 pop	 ebp
  00052	c2 04 00	 ret	 4
?PreTranslateMessage@CDlgMainTabBaseEnvSetUp@@UAEHPAUtagMSG@@@Z ENDP ; CDlgMainTabBaseEnvSetUp::PreTranslateMessage
_TEXT	ENDS
; Function compile flags: /Ogtp
; File D:\git\src\IBK\IBK_DRFN\ProjSrc\SrcChartEx\ChartAddIn\ChartEnvSetupDlgAddIn\ChartEnvSetupDlgAddIn\DlgMainTabBaseEnvSetUp.cpp
;	COMDAT ??1CDlgMainTabBaseEnvSetUp@@UAE@XZ
_TEXT	SEGMENT
__$EHRec$ = -12						; size = 12
??1CDlgMainTabBaseEnvSetUp@@UAE@XZ PROC			; CDlgMainTabBaseEnvSetUp::~CDlgMainTabBaseEnvSetUp, COMDAT
; _this$ = ecx

; 82   : {

  00000	55		 push	 ebp
  00001	8b ec		 mov	 ebp, esp
  00003	6a ff		 push	 -1
  00005	68 00 00 00 00	 push	 __ehhandler$??1CDlgMainTabBaseEnvSetUp@@UAE@XZ
  0000a	64 a1 00 00 00
	00		 mov	 eax, DWORD PTR fs:0
  00010	50		 push	 eax
  00011	56		 push	 esi
  00012	a1 00 00 00 00	 mov	 eax, DWORD PTR ___security_cookie
  00017	33 c5		 xor	 eax, ebp
  00019	50		 push	 eax
  0001a	8d 45 f4	 lea	 eax, DWORD PTR __$EHRec$[ebp]
  0001d	64 a3 00 00 00
	00		 mov	 DWORD PTR fs:0, eax
  00023	8b f1		 mov	 esi, ecx

; 83   : 	if( m_pIChartOCX)

  00025	8b 8e d8 09 00
	00		 mov	 ecx, DWORD PTR [esi+2520]
  0002b	c7 06 00 00 00
	00		 mov	 DWORD PTR [esi], OFFSET ??_7CDlgMainTabBaseEnvSetUp@@6B@
  00031	85 c9		 test	 ecx, ecx
  00033	74 10		 je	 SHORT $LN2@CDlgMainTa

; 84   : 	{
; 85   : 		m_pIChartOCX->Release();

  00035	8b 01		 mov	 eax, DWORD PTR [ecx]
  00037	51		 push	 ecx
  00038	ff 50 08	 call	 DWORD PTR [eax+8]

; 86   : 		m_pIChartOCX = NULL;

  0003b	c7 86 d8 09 00
	00 00 00 00 00	 mov	 DWORD PTR [esi+2520], 0
$LN2@CDlgMainTa:

; 87   : 	}
; 88   : }

  00045	8d 8e dc 09 00
	00		 lea	 ecx, DWORD PTR [esi+2524]
  0004b	e8 00 00 00 00	 call	 ??1COutsideCommonInterfaceFunction@@UAE@XZ ; COutsideCommonInterfaceFunction::~COutsideCommonInterfaceFunction
  00050	8d 8e a0 08 00
	00		 lea	 ecx, DWORD PTR [esi+2208]
  00056	e8 00 00 00 00	 call	 ??1CButton@@UAE@XZ	; CButton::~CButton
  0005b	8d 8e 20 08 00
	00		 lea	 ecx, DWORD PTR [esi+2080]
  00061	e8 00 00 00 00	 call	 ??1CButton@@UAE@XZ	; CButton::~CButton
  00066	8d 8e a0 07 00
	00		 lea	 ecx, DWORD PTR [esi+1952]
  0006c	e8 00 00 00 00	 call	 ??1CButton@@UAE@XZ	; CButton::~CButton
  00071	8d 8e 20 07 00
	00		 lea	 ecx, DWORD PTR [esi+1824]
  00077	e8 00 00 00 00	 call	 ??1CButton@@UAE@XZ	; CButton::~CButton
  0007c	8d 8e a0 06 00
	00		 lea	 ecx, DWORD PTR [esi+1696]
  00082	e8 00 00 00 00	 call	 ??1CButton@@UAE@XZ	; CButton::~CButton
  00087	8d 8e 20 06 00
	00		 lea	 ecx, DWORD PTR [esi+1568]
  0008d	e8 00 00 00 00	 call	 ??1CButton@@UAE@XZ	; CButton::~CButton
  00092	8d 8e a0 05 00
	00		 lea	 ecx, DWORD PTR [esi+1440]
  00098	e8 00 00 00 00	 call	 ??1CButton@@UAE@XZ	; CButton::~CButton
  0009d	8d 8e 10 05 00
	00		 lea	 ecx, DWORD PTR [esi+1296]
  000a3	e8 00 00 00 00	 call	 ??1CComboBox@@UAE@XZ	; CComboBox::~CComboBox
  000a8	8d 8e 70 04 00
	00		 lea	 ecx, DWORD PTR [esi+1136]
  000ae	e8 00 00 00 00	 call	 ??1CNumSpinCtrl@@UAE@XZ	; CNumSpinCtrl::~CNumSpinCtrl
  000b3	8d 8e c8 03 00
	00		 lea	 ecx, DWORD PTR [esi+968]
  000b9	e8 00 00 00 00	 call	 ??1CNumEdit@@UAE@XZ	; CNumEdit::~CNumEdit
  000be	8d 8e f8 02 00
	00		 lea	 ecx, DWORD PTR [esi+760]
  000c4	e8 00 00 00 00	 call	 ??1CColorButton@@UAE@XZ	; CColorButton::~CColorButton
  000c9	8d 8e 50 02 00
	00		 lea	 ecx, DWORD PTR [esi+592]
  000cf	e8 00 00 00 00	 call	 ??1CNumEdit@@UAE@XZ	; CNumEdit::~CNumEdit
  000d4	8d 8e d0 01 00
	00		 lea	 ecx, DWORD PTR [esi+464]
  000da	e8 00 00 00 00	 call	 ??1CNumSpinCtrl@@UAE@XZ	; CNumSpinCtrl::~CNumSpinCtrl
  000df	8d 8e 28 01 00
	00		 lea	 ecx, DWORD PTR [esi+296]
  000e5	e8 00 00 00 00	 call	 ??1CNumEdit@@UAE@XZ	; CNumEdit::~CNumEdit
  000ea	8d 8e a8 00 00
	00		 lea	 ecx, DWORD PTR [esi+168]
  000f0	e8 00 00 00 00	 call	 ??1CNumSpinCtrl@@UAE@XZ	; CNumSpinCtrl::~CNumSpinCtrl
  000f5	8b ce		 mov	 ecx, esi
  000f7	e8 00 00 00 00	 call	 ??1CDialog@@UAE@XZ	; CDialog::~CDialog
  000fc	8b 4d f4	 mov	 ecx, DWORD PTR __$EHRec$[ebp]
  000ff	64 89 0d 00 00
	00 00		 mov	 DWORD PTR fs:0, ecx
  00106	59		 pop	 ecx
  00107	5e		 pop	 esi
  00108	8b e5		 mov	 esp, ebp
  0010a	5d		 pop	 ebp
  0010b	c3		 ret	 0
  0010c	cc		 int	 3
  0010d	cc		 int	 3
  0010e	cc		 int	 3
  0010f	cc		 int	 3
  00110	cc		 int	 3
_TEXT	ENDS
;	COMDAT text$x
text$x	SEGMENT
__ehhandler$??1CDlgMainTabBaseEnvSetUp@@UAE@XZ:
  00000	90		 npad	 1
  00001	90		 npad	 1
  00002	8b 54 24 08	 mov	 edx, DWORD PTR [esp+8]
  00006	8d 42 0c	 lea	 eax, DWORD PTR [edx+12]
  00009	8b 4a f8	 mov	 ecx, DWORD PTR [edx-8]
  0000c	33 c8		 xor	 ecx, eax
  0000e	e8 00 00 00 00	 call	 @__security_check_cookie@4
  00013	b8 00 00 00 00	 mov	 eax, OFFSET __ehfuncinfo$??1CDlgMainTabBaseEnvSetUp@@UAE@XZ
  00018	e9 00 00 00 00	 jmp	 ___CxxFrameHandler3
text$x	ENDS
??1CDlgMainTabBaseEnvSetUp@@UAE@XZ ENDP			; CDlgMainTabBaseEnvSetUp::~CDlgMainTabBaseEnvSetUp
; Function compile flags: /Ogtp
; File D:\git\src\IBK\IBK_DRFN\ProjSrc\SrcChartEx\ChartAddIn\ChartEnvSetupDlgAddIn\ChartEnvSetupDlgAddIn\DlgMainTabBaseEnvSetUp.cpp
; File C:\Program Files (x86)\Microsoft Visual Studio\2019\Community\VC\Tools\MSVC\14.29.30133\atlmfc\include\afxwin2.inl
; File D:\git\src\IBK\IBK_DRFN\ProjSrc\SrcChartEx\ChartAddIn\ChartEnvSetupDlgAddIn\ChartEnvSetupDlgAddIn\DlgMainTabBaseEnvSetUp.cpp
; File C:\Program Files (x86)\Microsoft Visual Studio\2019\Community\VC\Tools\MSVC\14.29.30133\atlmfc\include\afxwin2.inl
; File D:\git\src\IBK\IBK_DRFN\ProjSrc\SrcChartEx\ChartAddIn\ChartEnvSetupDlgAddIn\ChartEnvSetupDlgAddIn\DlgMainTabBaseEnvSetUp.cpp
; File C:\Program Files (x86)\Microsoft Visual Studio\2019\Community\VC\Tools\MSVC\14.29.30133\atlmfc\include\afxwin2.inl
; File D:\git\src\IBK\IBK_DRFN\ProjSrc\SrcChartEx\ChartAddIn\ChartEnvSetupDlgAddIn\ChartEnvSetupDlgAddIn\DlgMainTabBaseEnvSetUp.cpp
; File C:\Program Files (x86)\Microsoft Visual Studio\2019\Community\VC\Tools\MSVC\14.29.30133\atlmfc\include\afxwin2.inl
; File D:\git\src\IBK\IBK_DRFN\ProjSrc\SrcChartEx\ChartAddIn\ChartEnvSetupDlgAddIn\ChartEnvSetupDlgAddIn\DlgMainTabBaseEnvSetUp.cpp
; File C:\Program Files (x86)\Microsoft Visual Studio\2019\Community\VC\Tools\MSVC\14.29.30133\atlmfc\include\afxwin2.inl
; File D:\git\src\IBK\IBK_DRFN\ProjSrc\SrcChartEx\ChartAddIn\ChartEnvSetupDlgAddIn\ChartEnvSetupDlgAddIn\DlgMainTabBaseEnvSetUp.cpp
; File C:\Program Files (x86)\Microsoft Visual Studio\2019\Community\VC\Tools\MSVC\14.29.30133\atlmfc\include\afxwin2.inl
; File D:\git\src\IBK\IBK_DRFN\ProjSrc\SrcChartEx\ChartAddIn\ChartEnvSetupDlgAddIn\ChartEnvSetupDlgAddIn\DlgMainTabBaseEnvSetUp.cpp
; File C:\Program Files (x86)\Microsoft Visual Studio\2019\Community\VC\Tools\MSVC\14.29.30133\atlmfc\include\afxwin2.inl
; File D:\git\src\IBK\IBK_DRFN\ProjSrc\SrcChartEx\ChartAddIn\ChartEnvSetupDlgAddIn\ChartEnvSetupDlgAddIn\DlgMainTabBaseEnvSetUp.cpp
; File C:\Program Files (x86)\Microsoft Visual Studio\2019\Community\VC\Tools\MSVC\14.29.30133\atlmfc\include\afxwin2.inl
; File D:\git\src\IBK\IBK_DRFN\ProjSrc\SrcChartEx\ChartAddIn\ChartEnvSetupDlgAddIn\ChartEnvSetupDlgAddIn\DlgMainTabBaseEnvSetUp.cpp
; File C:\Program Files (x86)\Microsoft Visual Studio\2019\Community\VC\Tools\MSVC\14.29.30133\atlmfc\include\afxwin2.inl
; File D:\git\src\IBK\IBK_DRFN\ProjSrc\SrcChartEx\ChartAddIn\ChartEnvSetupDlgAddIn\ChartEnvSetupDlgAddIn\DlgMainTabBaseEnvSetUp.cpp
; File C:\Program Files (x86)\Microsoft Visual Studio\2019\Community\VC\Tools\MSVC\14.29.30133\atlmfc\include\afxwin2.inl
; File D:\git\src\IBK\IBK_DRFN\ProjSrc\SrcChartEx\ChartAddIn\ChartEnvSetupDlgAddIn\ChartEnvSetupDlgAddIn\DlgMainTabBaseEnvSetUp.cpp
; File C:\Program Files (x86)\Microsoft Visual Studio\2019\Community\VC\Tools\MSVC\14.29.30133\atlmfc\include\afxwin2.inl
; File D:\git\src\IBK\IBK_DRFN\ProjSrc\SrcChartEx\ChartAddIn\ChartEnvSetupDlgAddIn\ChartEnvSetupDlgAddIn\DlgMainTabBaseEnvSetUp.cpp
; File C:\Program Files (x86)\Microsoft Visual Studio\2019\Community\VC\Tools\MSVC\14.29.30133\atlmfc\include\afxwin2.inl
; File D:\git\src\IBK\IBK_DRFN\ProjSrc\SrcChartEx\ChartAddIn\ChartEnvSetupDlgAddIn\ChartEnvSetupDlgAddIn\DlgMainTabBaseEnvSetUp.cpp
; File C:\Program Files (x86)\Microsoft Visual Studio\2019\Community\VC\Tools\MSVC\14.29.30133\atlmfc\include\afxwin2.inl
; File D:\git\src\IBK\IBK_DRFN\ProjSrc\SrcChartEx\ChartAddIn\ChartEnvSetupDlgAddIn\ChartEnvSetupDlgAddIn\DlgMainTabBaseEnvSetUp.cpp
; File C:\Program Files (x86)\Microsoft Visual Studio\2019\Community\VC\Tools\MSVC\14.29.30133\atlmfc\include\afxwin2.inl
; File D:\git\src\IBK\IBK_DRFN\ProjSrc\SrcChartEx\ChartAddIn\ChartEnvSetupDlgAddIn\ChartEnvSetupDlgAddIn\DlgMainTabBaseEnvSetUp.cpp
; File C:\Program Files (x86)\Microsoft Visual Studio\2019\Community\VC\Tools\MSVC\14.29.30133\atlmfc\include\afxwin2.inl
; File D:\git\src\IBK\IBK_DRFN\ProjSrc\SrcChartEx\ChartAddIn\ChartEnvSetupDlgAddIn\ChartEnvSetupDlgAddIn\DlgMainTabBaseEnvSetUp.cpp
; File C:\Program Files (x86)\Microsoft Visual Studio\2019\Community\VC\Tools\MSVC\14.29.30133\atlmfc\include\afxwin2.inl
; File D:\git\src\IBK\IBK_DRFN\ProjSrc\SrcChartEx\ChartAddIn\ChartEnvSetupDlgAddIn\ChartEnvSetupDlgAddIn\DlgMainTabBaseEnvSetUp.cpp
; File D:\git\src\IBK\IBK_DRFN\ProjSrc\SrcChartEx\ChartAddIn\ChartEnvSetupDlgAddIn\Include_AddIn_135914\I135914\_IString.h
; File D:\git\src\IBK\IBK_DRFN\ProjSrc\SrcChartEx\ChartAddIn\ChartEnvSetupDlgAddIn\ChartEnvSetupDlgAddIn\DlgMainTabBaseEnvSetUp.cpp
; File D:\git\src\IBK\IBK_DRFN\ProjSrc\SrcChartEx\ChartAddIn\ChartEnvSetupDlgAddIn\Include_AddIn_135914\I135914\_IString.h
; File D:\git\src\IBK\IBK_DRFN\ProjSrc\SrcChartEx\ChartAddIn\ChartEnvSetupDlgAddIn\ChartEnvSetupDlgAddIn\DlgMainTabBaseEnvSetUp.cpp
;	COMDAT ??0CDlgMainTabBaseEnvSetUp@@QAE@PAUIChartOCX135914@@PAVCWnd@@H@Z
_TEXT	SEGMENT
_szDataPath$2 = -24					; size = 8
_this$ = -16						; size = 4
__$EHRec$ = -12						; size = 12
_p_pIChartOCX$ = 8					; size = 4
_this$ = 12						; size = 4
_this$ = 12						; size = 4
_this$ = 12						; size = 4
_this$ = 12						; size = 4
_this$ = 12						; size = 4
_this$ = 12						; size = 4
_this$ = 12						; size = 4
_this$ = 12						; size = 4
$T3 = 12						; size = 4
_pParent$ = 12						; size = 4
_bPriceChart$ = 16					; size = 4
??0CDlgMainTabBaseEnvSetUp@@QAE@PAUIChartOCX135914@@PAVCWnd@@H@Z PROC ; CDlgMainTabBaseEnvSetUp::CDlgMainTabBaseEnvSetUp, COMDAT
; _this$ = ecx

; 34   : {

  00000	55		 push	 ebp
  00001	8b ec		 mov	 ebp, esp
  00003	6a ff		 push	 -1
  00005	68 00 00 00 00	 push	 __ehhandler$??0CDlgMainTabBaseEnvSetUp@@QAE@PAUIChartOCX135914@@PAVCWnd@@H@Z
  0000a	64 a1 00 00 00
	00		 mov	 eax, DWORD PTR fs:0
  00010	50		 push	 eax
  00011	83 ec 0c	 sub	 esp, 12			; 0000000cH
  00014	53		 push	 ebx
  00015	56		 push	 esi
  00016	57		 push	 edi
  00017	a1 00 00 00 00	 mov	 eax, DWORD PTR ___security_cookie
  0001c	33 c5		 xor	 eax, ebp
  0001e	50		 push	 eax
  0001f	8d 45 f4	 lea	 eax, DWORD PTR __$EHRec$[ebp]
  00022	64 a3 00 00 00
	00		 mov	 DWORD PTR fs:0, eax
  00028	8b f9		 mov	 edi, ecx
  0002a	89 7d f0	 mov	 DWORD PTR _this$[ebp], edi

; 33   : 	: CBaseTabDlg(CDlgMainTabBaseEnvSetUp::IDD, pParent)

  0002d	ff 75 0c	 push	 DWORD PTR _pParent$[ebp]
  00030	68 49 1f 00 00	 push	 8009			; 00001f49H
  00035	e8 00 00 00 00	 call	 ??0CBaseTabDlg@@QAE@HPAVCWnd@@@Z ; CBaseTabDlg::CBaseTabDlg

; 34   : {

  0003a	8d 8f a8 00 00
	00		 lea	 ecx, DWORD PTR [edi+168]
  00040	c7 45 fc 00 00
	00 00		 mov	 DWORD PTR __$EHRec$[ebp+8], 0
  00047	c7 07 00 00 00
	00		 mov	 DWORD PTR [edi], OFFSET ??_7CDlgMainTabBaseEnvSetUp@@6B@
  0004d	e8 00 00 00 00	 call	 ??0CNumSpinCtrl@@QAE@XZ	; CNumSpinCtrl::CNumSpinCtrl
  00052	8d 8f 28 01 00
	00		 lea	 ecx, DWORD PTR [edi+296]
  00058	c6 45 fc 01	 mov	 BYTE PTR __$EHRec$[ebp+8], 1
  0005c	e8 00 00 00 00	 call	 ??0CNumEdit@@QAE@XZ	; CNumEdit::CNumEdit
  00061	8d 8f d0 01 00
	00		 lea	 ecx, DWORD PTR [edi+464]
  00067	c6 45 fc 02	 mov	 BYTE PTR __$EHRec$[ebp+8], 2
  0006b	e8 00 00 00 00	 call	 ??0CNumSpinCtrl@@QAE@XZ	; CNumSpinCtrl::CNumSpinCtrl
  00070	8d 8f 50 02 00
	00		 lea	 ecx, DWORD PTR [edi+592]
  00076	c6 45 fc 03	 mov	 BYTE PTR __$EHRec$[ebp+8], 3
  0007a	e8 00 00 00 00	 call	 ??0CNumEdit@@QAE@XZ	; CNumEdit::CNumEdit
  0007f	8d 8f f8 02 00
	00		 lea	 ecx, DWORD PTR [edi+760]
  00085	c6 45 fc 04	 mov	 BYTE PTR __$EHRec$[ebp+8], 4
  00089	e8 00 00 00 00	 call	 ??0CColorButton@@QAE@XZ	; CColorButton::CColorButton
  0008e	8d 8f c8 03 00
	00		 lea	 ecx, DWORD PTR [edi+968]
  00094	c6 45 fc 05	 mov	 BYTE PTR __$EHRec$[ebp+8], 5
  00098	e8 00 00 00 00	 call	 ??0CNumEdit@@QAE@XZ	; CNumEdit::CNumEdit
  0009d	8d 8f 70 04 00
	00		 lea	 ecx, DWORD PTR [edi+1136]
  000a3	c6 45 fc 06	 mov	 BYTE PTR __$EHRec$[ebp+8], 6
  000a7	e8 00 00 00 00	 call	 ??0CNumSpinCtrl@@QAE@XZ	; CNumSpinCtrl::CNumSpinCtrl
  000ac	8d b7 10 05 00
	00		 lea	 esi, DWORD PTR [edi+1296]
  000b2	c6 45 fc 07	 mov	 BYTE PTR __$EHRec$[ebp+8], 7
; File C:\Program Files (x86)\Microsoft Visual Studio\2019\Community\VC\Tools\MSVC\14.29.30133\atlmfc\include\afxwin2.inl

; 761  : 	{ }

  000b6	8b ce		 mov	 ecx, esi
; File D:\git\src\IBK\IBK_DRFN\ProjSrc\SrcChartEx\ChartAddIn\ChartEnvSetupDlgAddIn\ChartEnvSetupDlgAddIn\DlgMainTabBaseEnvSetUp.cpp

; 34   : {

  000b8	89 75 0c	 mov	 DWORD PTR _this$[ebp], esi
; File C:\Program Files (x86)\Microsoft Visual Studio\2019\Community\VC\Tools\MSVC\14.29.30133\atlmfc\include\afxwin2.inl

; 761  : 	{ }

  000bb	e8 00 00 00 00	 call	 ??0CWnd@@QAE@XZ		; CWnd::CWnd
  000c0	c7 06 00 00 00
	00		 mov	 DWORD PTR [esi], OFFSET ??_7CComboBox@@6B@
; File D:\git\src\IBK\IBK_DRFN\ProjSrc\SrcChartEx\ChartAddIn\ChartEnvSetupDlgAddIn\ChartEnvSetupDlgAddIn\DlgMainTabBaseEnvSetUp.cpp

; 34   : {

  000c6	8d b7 a0 05 00
	00		 lea	 esi, DWORD PTR [edi+1440]
  000cc	c6 45 fc 08	 mov	 BYTE PTR __$EHRec$[ebp+8], 8
; File C:\Program Files (x86)\Microsoft Visual Studio\2019\Community\VC\Tools\MSVC\14.29.30133\atlmfc\include\afxwin2.inl

; 622  : 	{ }

  000d0	8b ce		 mov	 ecx, esi
; File D:\git\src\IBK\IBK_DRFN\ProjSrc\SrcChartEx\ChartAddIn\ChartEnvSetupDlgAddIn\ChartEnvSetupDlgAddIn\DlgMainTabBaseEnvSetUp.cpp

; 34   : {

  000d2	89 75 0c	 mov	 DWORD PTR _this$[ebp], esi
; File C:\Program Files (x86)\Microsoft Visual Studio\2019\Community\VC\Tools\MSVC\14.29.30133\atlmfc\include\afxwin2.inl

; 622  : 	{ }

  000d5	e8 00 00 00 00	 call	 ??0CWnd@@QAE@XZ		; CWnd::CWnd
  000da	c7 06 00 00 00
	00		 mov	 DWORD PTR [esi], OFFSET ??_7CButton@@6B@
; File D:\git\src\IBK\IBK_DRFN\ProjSrc\SrcChartEx\ChartAddIn\ChartEnvSetupDlgAddIn\ChartEnvSetupDlgAddIn\DlgMainTabBaseEnvSetUp.cpp

; 34   : {

  000e0	8d b7 20 06 00
	00		 lea	 esi, DWORD PTR [edi+1568]
  000e6	c6 45 fc 09	 mov	 BYTE PTR __$EHRec$[ebp+8], 9
; File C:\Program Files (x86)\Microsoft Visual Studio\2019\Community\VC\Tools\MSVC\14.29.30133\atlmfc\include\afxwin2.inl

; 622  : 	{ }

  000ea	8b ce		 mov	 ecx, esi
; File D:\git\src\IBK\IBK_DRFN\ProjSrc\SrcChartEx\ChartAddIn\ChartEnvSetupDlgAddIn\ChartEnvSetupDlgAddIn\DlgMainTabBaseEnvSetUp.cpp

; 34   : {

  000ec	89 75 0c	 mov	 DWORD PTR _this$[ebp], esi
; File C:\Program Files (x86)\Microsoft Visual Studio\2019\Community\VC\Tools\MSVC\14.29.30133\atlmfc\include\afxwin2.inl

; 622  : 	{ }

  000ef	e8 00 00 00 00	 call	 ??0CWnd@@QAE@XZ		; CWnd::CWnd
  000f4	c7 06 00 00 00
	00		 mov	 DWORD PTR [esi], OFFSET ??_7CButton@@6B@
; File D:\git\src\IBK\IBK_DRFN\ProjSrc\SrcChartEx\ChartAddIn\ChartEnvSetupDlgAddIn\ChartEnvSetupDlgAddIn\DlgMainTabBaseEnvSetUp.cpp

; 34   : {

  000fa	8d b7 a0 06 00
	00		 lea	 esi, DWORD PTR [edi+1696]
  00100	c6 45 fc 0a	 mov	 BYTE PTR __$EHRec$[ebp+8], 10 ; 0000000aH
; File C:\Program Files (x86)\Microsoft Visual Studio\2019\Community\VC\Tools\MSVC\14.29.30133\atlmfc\include\afxwin2.inl

; 622  : 	{ }

  00104	8b ce		 mov	 ecx, esi
; File D:\git\src\IBK\IBK_DRFN\ProjSrc\SrcChartEx\ChartAddIn\ChartEnvSetupDlgAddIn\ChartEnvSetupDlgAddIn\DlgMainTabBaseEnvSetUp.cpp

; 34   : {

  00106	89 75 0c	 mov	 DWORD PTR _this$[ebp], esi
; File C:\Program Files (x86)\Microsoft Visual Studio\2019\Community\VC\Tools\MSVC\14.29.30133\atlmfc\include\afxwin2.inl

; 622  : 	{ }

  00109	e8 00 00 00 00	 call	 ??0CWnd@@QAE@XZ		; CWnd::CWnd
  0010e	c7 06 00 00 00
	00		 mov	 DWORD PTR [esi], OFFSET ??_7CButton@@6B@
; File D:\git\src\IBK\IBK_DRFN\ProjSrc\SrcChartEx\ChartAddIn\ChartEnvSetupDlgAddIn\ChartEnvSetupDlgAddIn\DlgMainTabBaseEnvSetUp.cpp

; 34   : {

  00114	8d b7 20 07 00
	00		 lea	 esi, DWORD PTR [edi+1824]
  0011a	c6 45 fc 0b	 mov	 BYTE PTR __$EHRec$[ebp+8], 11 ; 0000000bH
; File C:\Program Files (x86)\Microsoft Visual Studio\2019\Community\VC\Tools\MSVC\14.29.30133\atlmfc\include\afxwin2.inl

; 622  : 	{ }

  0011e	8b ce		 mov	 ecx, esi
; File D:\git\src\IBK\IBK_DRFN\ProjSrc\SrcChartEx\ChartAddIn\ChartEnvSetupDlgAddIn\ChartEnvSetupDlgAddIn\DlgMainTabBaseEnvSetUp.cpp

; 34   : {

  00120	89 75 0c	 mov	 DWORD PTR _this$[ebp], esi
; File C:\Program Files (x86)\Microsoft Visual Studio\2019\Community\VC\Tools\MSVC\14.29.30133\atlmfc\include\afxwin2.inl

; 622  : 	{ }

  00123	e8 00 00 00 00	 call	 ??0CWnd@@QAE@XZ		; CWnd::CWnd
  00128	c7 06 00 00 00
	00		 mov	 DWORD PTR [esi], OFFSET ??_7CButton@@6B@
; File D:\git\src\IBK\IBK_DRFN\ProjSrc\SrcChartEx\ChartAddIn\ChartEnvSetupDlgAddIn\ChartEnvSetupDlgAddIn\DlgMainTabBaseEnvSetUp.cpp

; 34   : {

  0012e	8d b7 a0 07 00
	00		 lea	 esi, DWORD PTR [edi+1952]
  00134	c6 45 fc 0c	 mov	 BYTE PTR __$EHRec$[ebp+8], 12 ; 0000000cH
; File C:\Program Files (x86)\Microsoft Visual Studio\2019\Community\VC\Tools\MSVC\14.29.30133\atlmfc\include\afxwin2.inl

; 622  : 	{ }

  00138	8b ce		 mov	 ecx, esi
; File D:\git\src\IBK\IBK_DRFN\ProjSrc\SrcChartEx\ChartAddIn\ChartEnvSetupDlgAddIn\ChartEnvSetupDlgAddIn\DlgMainTabBaseEnvSetUp.cpp

; 34   : {

  0013a	89 75 0c	 mov	 DWORD PTR _this$[ebp], esi
; File C:\Program Files (x86)\Microsoft Visual Studio\2019\Community\VC\Tools\MSVC\14.29.30133\atlmfc\include\afxwin2.inl

; 622  : 	{ }

  0013d	e8 00 00 00 00	 call	 ??0CWnd@@QAE@XZ		; CWnd::CWnd
  00142	c7 06 00 00 00
	00		 mov	 DWORD PTR [esi], OFFSET ??_7CButton@@6B@
; File D:\git\src\IBK\IBK_DRFN\ProjSrc\SrcChartEx\ChartAddIn\ChartEnvSetupDlgAddIn\ChartEnvSetupDlgAddIn\DlgMainTabBaseEnvSetUp.cpp

; 34   : {

  00148	8d b7 20 08 00
	00		 lea	 esi, DWORD PTR [edi+2080]
  0014e	c6 45 fc 0d	 mov	 BYTE PTR __$EHRec$[ebp+8], 13 ; 0000000dH
; File C:\Program Files (x86)\Microsoft Visual Studio\2019\Community\VC\Tools\MSVC\14.29.30133\atlmfc\include\afxwin2.inl

; 622  : 	{ }

  00152	8b ce		 mov	 ecx, esi
; File D:\git\src\IBK\IBK_DRFN\ProjSrc\SrcChartEx\ChartAddIn\ChartEnvSetupDlgAddIn\ChartEnvSetupDlgAddIn\DlgMainTabBaseEnvSetUp.cpp

; 34   : {

  00154	89 75 0c	 mov	 DWORD PTR _this$[ebp], esi
; File C:\Program Files (x86)\Microsoft Visual Studio\2019\Community\VC\Tools\MSVC\14.29.30133\atlmfc\include\afxwin2.inl

; 622  : 	{ }

  00157	e8 00 00 00 00	 call	 ??0CWnd@@QAE@XZ		; CWnd::CWnd
  0015c	c7 06 00 00 00
	00		 mov	 DWORD PTR [esi], OFFSET ??_7CButton@@6B@
; File D:\git\src\IBK\IBK_DRFN\ProjSrc\SrcChartEx\ChartAddIn\ChartEnvSetupDlgAddIn\ChartEnvSetupDlgAddIn\DlgMainTabBaseEnvSetUp.cpp

; 34   : {

  00162	8d b7 a0 08 00
	00		 lea	 esi, DWORD PTR [edi+2208]
  00168	c6 45 fc 0e	 mov	 BYTE PTR __$EHRec$[ebp+8], 14 ; 0000000eH
; File C:\Program Files (x86)\Microsoft Visual Studio\2019\Community\VC\Tools\MSVC\14.29.30133\atlmfc\include\afxwin2.inl

; 622  : 	{ }

  0016c	8b ce		 mov	 ecx, esi
; File D:\git\src\IBK\IBK_DRFN\ProjSrc\SrcChartEx\ChartAddIn\ChartEnvSetupDlgAddIn\ChartEnvSetupDlgAddIn\DlgMainTabBaseEnvSetUp.cpp

; 34   : {

  0016e	89 75 0c	 mov	 DWORD PTR _this$[ebp], esi
; File C:\Program Files (x86)\Microsoft Visual Studio\2019\Community\VC\Tools\MSVC\14.29.30133\atlmfc\include\afxwin2.inl

; 622  : 	{ }

  00171	e8 00 00 00 00	 call	 ??0CWnd@@QAE@XZ		; CWnd::CWnd
  00176	c7 06 00 00 00
	00		 mov	 DWORD PTR [esi], OFFSET ??_7CButton@@6B@
; File D:\git\src\IBK\IBK_DRFN\ProjSrc\SrcChartEx\ChartAddIn\ChartEnvSetupDlgAddIn\ChartEnvSetupDlgAddIn\DlgMainTabBaseEnvSetUp.cpp

; 34   : {

  0017c	8d 8f dc 09 00
	00		 lea	 ecx, DWORD PTR [edi+2524]
  00182	c6 45 fc 0f	 mov	 BYTE PTR __$EHRec$[ebp+8], 15 ; 0000000fH
  00186	e8 00 00 00 00	 call	 ??0COutsideCommonInterfaceFunction@@QAE@XZ ; COutsideCommonInterfaceFunction::COutsideCommonInterfaceFunction

; 35   : 	//{{AFX_DATA_INIT(CDlgMainTabBaseEnvSetUp)
; 36   : 	m_nCandleTypeOnResize = 0;
; 37   : 	m_bShowCurrentPrice = FALSE;
; 38   : 	m_bYScalePositionLeftSide = FALSE;
; 39   : 	m_bYScalePositionRightSide = FALSE;
; 40   : 	m_bShowIndicatorValue = FALSE;
; 41   : 	m_bShowIndicatorVariable = FALSE;
; 42   : 	m_bUseCrossLine = FALSE;
; 43   : 	m_nCurPriceSub = -1;
; 44   : 	m_bInquieryDataWindow = FALSE;
; 45   : 	m_bShowAllTitle = FALSE;
; 46   : 	m_bShowPriceMinMaxText = FALSE;
; 47   : 	m_bUseTooptipShow = TRUE;
; 48   : 	m_bUseTooptipShowAll = TRUE;		//[A00000441]110407      
; 49   : 	m_bFixInterval = FALSE;
; 50   : 	m_bDrawBaseLine = TRUE;
; 51   : 	m_nMouseWheelIndex = 0;
; 52   : 	m_nMinMaxRatio = 0;
; 53   : 	//}}AFX_DATA_INIT
; 54   : 
; 55   : 	// (2009/9/3 - Seung-Won, Bae) Check the control not in common.
; 56   : 	m_nInquiryDlgManualMove = 0;
; 57   : 	m_bShowExRightDividend = FALSE;
; 58   : 	m_bShowHighLowBound = FALSE;
; 59   : 	m_bUseRevisedPrice = TRUE;
; 60   : 	m_nCandleType = 0;
; 61   : 	m_bLH_LC_HC = FALSE;
; 62   : 	m_bUseGapRevision = FALSE;
; 63   : 	m_nLH_LC_HC = -1;
; 64   : 	
; 65   : 	m_pIChartOCX = p_pIChartOCX;

  0018b	8b 4d 08	 mov	 ecx, DWORD PTR _p_pIChartOCX$[ebp]
  0018e	c6 45 fc 10	 mov	 BYTE PTR __$EHRec$[ebp+8], 16 ; 00000010H
  00192	c7 87 80 03 00
	00 00 00 00 00	 mov	 DWORD PTR [edi+896], 0
  0019c	c7 87 84 03 00
	00 00 00 00 00	 mov	 DWORD PTR [edi+900], 0
  001a6	c7 87 88 03 00
	00 00 00 00 00	 mov	 DWORD PTR [edi+904], 0
  001b0	c7 87 8c 03 00
	00 00 00 00 00	 mov	 DWORD PTR [edi+908], 0
  001ba	c7 87 90 03 00
	00 00 00 00 00	 mov	 DWORD PTR [edi+912], 0
  001c4	c7 87 94 03 00
	00 00 00 00 00	 mov	 DWORD PTR [edi+916], 0
  001ce	c7 87 98 03 00
	00 00 00 00 00	 mov	 DWORD PTR [edi+920], 0
  001d8	c7 87 9c 03 00
	00 ff ff ff ff	 mov	 DWORD PTR [edi+924], -1
  001e2	c7 87 a0 03 00
	00 00 00 00 00	 mov	 DWORD PTR [edi+928], 0
  001ec	c7 87 a4 03 00
	00 00 00 00 00	 mov	 DWORD PTR [edi+932], 0
  001f6	c7 87 a8 03 00
	00 00 00 00 00	 mov	 DWORD PTR [edi+936], 0
  00200	c7 87 ac 03 00
	00 01 00 00 00	 mov	 DWORD PTR [edi+940], 1
  0020a	c7 87 b0 03 00
	00 01 00 00 00	 mov	 DWORD PTR [edi+944], 1
  00214	c7 87 b4 03 00
	00 00 00 00 00	 mov	 DWORD PTR [edi+948], 0
  0021e	c7 87 b8 03 00
	00 01 00 00 00	 mov	 DWORD PTR [edi+952], 1
  00228	c7 87 bc 03 00
	00 00 00 00 00	 mov	 DWORD PTR [edi+956], 0
  00232	c7 87 c0 03 00
	00 00 00 00 00	 mov	 DWORD PTR [edi+960], 0
  0023c	c7 87 c4 03 00
	00 00 00 00 00	 mov	 DWORD PTR [edi+964], 0
  00246	c7 87 f0 04 00
	00 00 00 00 00	 mov	 DWORD PTR [edi+1264], 0
  00250	c7 87 f4 04 00
	00 00 00 00 00	 mov	 DWORD PTR [edi+1268], 0
  0025a	c7 87 f8 04 00
	00 01 00 00 00	 mov	 DWORD PTR [edi+1272], 1
  00264	c7 87 00 05 00
	00 00 00 00 00	 mov	 DWORD PTR [edi+1280], 0
  0026e	c7 87 04 05 00
	00 00 00 00 00	 mov	 DWORD PTR [edi+1284], 0
  00278	c7 87 08 05 00
	00 00 00 00 00	 mov	 DWORD PTR [edi+1288], 0
  00282	c7 87 0c 05 00
	00 ff ff ff ff	 mov	 DWORD PTR [edi+1292], -1
  0028c	89 8f d8 09 00
	00		 mov	 DWORD PTR [edi+2520], ecx

; 66   : 
; 67   : 	if( m_pIChartOCX)

  00292	85 c9		 test	 ecx, ecx
  00294	74 66		 je	 SHORT $LN52@CDlgMainTa

; 68   : 	{
; 69   : 		m_pIChartOCX->AddRef();

  00296	8b 01		 mov	 eax, DWORD PTR [ecx]
  00298	51		 push	 ecx
  00299	ff 50 04	 call	 DWORD PTR [eax+4]

; 71   : 		ILPCSTR szDataPath = m_pIChartOCX->GetDefaultPathString();

  0029c	8b 8f d8 09 00
	00		 mov	 ecx, DWORD PTR [edi+2520]
  002a2	8b 01		 mov	 eax, DWORD PTR [ecx]
  002a4	ff 50 64	 call	 DWORD PTR [eax+100]
; File D:\git\src\IBK\IBK_DRFN\ProjSrc\SrcChartEx\ChartAddIn\ChartEnvSetupDlgAddIn\Include_AddIn_135914\I135914\_IString.h

; 39   : 		m_pIStrData = p_pIString;	// Do not AddRef(). Because It must be Return Value.

  002a7	8b f0		 mov	 esi, eax
  002a9	89 75 ec	 mov	 DWORD PTR _szDataPath$2[ebp+4], esi

; 40   : 		if( m_pIStrData) m_szData = m_pIStrData->GetData();

  002ac	85 f6		 test	 esi, esi
  002ae	74 09		 je	 SHORT $LN48@CDlgMainTa
  002b0	8b 16		 mov	 edx, DWORD PTR [esi]
  002b2	8b ce		 mov	 ecx, esi
  002b4	ff 52 10	 call	 DWORD PTR [edx+16]
  002b7	eb 02		 jmp	 SHORT $LN56@CDlgMainTa
$LN48@CDlgMainTa:

; 41   : 		else m_szData = NULL;

  002b9	33 c0		 xor	 eax, eax
$LN56@CDlgMainTa:
; File D:\git\src\IBK\IBK_DRFN\ProjSrc\SrcChartEx\ChartAddIn\ChartEnvSetupDlgAddIn\ChartEnvSetupDlgAddIn\DlgMainTabBaseEnvSetUp.cpp

; 71   : 		ILPCSTR szDataPath = m_pIChartOCX->GetDefaultPathString();

  002bb	89 45 e8	 mov	 DWORD PTR _szDataPath$2[ebp], eax

; 72   : 		m_MChartInterface.SetOutsideCommonInterface( m_pIChartOCX->GetMChartInterface(), CString( szDataPath));

  002be	51		 push	 ecx
  002bf	8b cc		 mov	 ecx, esp
  002c1	89 65 0c	 mov	 DWORD PTR $T3[ebp], esp
  002c4	50		 push	 eax
  002c5	c6 45 fc 11	 mov	 BYTE PTR __$EHRec$[ebp+8], 17 ; 00000011H
  002c9	ff 15 00 00 00
	00		 call	 DWORD PTR __imp_??0?$CStringT@DV?$StrTraitMFC_DLL@DV?$ChTraitsCRT@D@ATL@@@@@ATL@@QAE@PBD@Z
  002cf	8b 8f d8 09 00
	00		 mov	 ecx, DWORD PTR [edi+2520]
  002d5	c6 45 fc 12	 mov	 BYTE PTR __$EHRec$[ebp+8], 18 ; 00000012H
  002d9	8b 01		 mov	 eax, DWORD PTR [ecx]
  002db	ff 50 14	 call	 DWORD PTR [eax+20]
  002de	50		 push	 eax
  002df	8d 8f dc 09 00
	00		 lea	 ecx, DWORD PTR [edi+2524]
  002e5	c6 45 fc 11	 mov	 BYTE PTR __$EHRec$[ebp+8], 17 ; 00000011H
  002e9	e8 00 00 00 00	 call	 ?SetOutsideCommonInterface@COutsideCommonInterfaceFunction@@QAEXPAVCOutsideCommonInterface@@V?$CStringT@DV?$StrTraitMFC_DLL@DV?$ChTraitsCRT@D@ATL@@@@@ATL@@@Z ; COutsideCommonInterfaceFunction::SetOutsideCommonInterface
; File D:\git\src\IBK\IBK_DRFN\ProjSrc\SrcChartEx\ChartAddIn\ChartEnvSetupDlgAddIn\Include_AddIn_135914\I135914\_IString.h

; 44   : 	{

  002ee	c6 45 fc 13	 mov	 BYTE PTR __$EHRec$[ebp+8], 19 ; 00000013H

; 45   : 		if( m_pIStrData)

  002f2	85 f6		 test	 esi, esi
  002f4	74 06		 je	 SHORT $LN52@CDlgMainTa

; 46   : 		{
; 47   : 			m_pIStrData->Release();

  002f6	8b 06		 mov	 eax, DWORD PTR [esi]
  002f8	56		 push	 esi
  002f9	ff 50 08	 call	 DWORD PTR [eax+8]
$LN52@CDlgMainTa:
; File D:\git\src\IBK\IBK_DRFN\ProjSrc\SrcChartEx\ChartAddIn\ChartEnvSetupDlgAddIn\ChartEnvSetupDlgAddIn\DlgMainTabBaseEnvSetUp.cpp

; 78   : 	m_bPriceChart = bPriceChart;

  002fc	8b 45 10	 mov	 eax, DWORD PTR _bPriceChart$[ebp]
  002ff	89 87 94 05 00
	00		 mov	 DWORD PTR [edi+1428], eax

; 79   : }

  00305	8b c7		 mov	 eax, edi
  00307	c7 87 d4 09 00
	00 00 00 00 00	 mov	 DWORD PTR [edi+2516], 0
  00311	8b 4d f4	 mov	 ecx, DWORD PTR __$EHRec$[ebp]
  00314	64 89 0d 00 00
	00 00		 mov	 DWORD PTR fs:0, ecx
  0031b	59		 pop	 ecx
  0031c	5f		 pop	 edi
  0031d	5e		 pop	 esi
  0031e	5b		 pop	 ebx
  0031f	8b e5		 mov	 esp, ebp
  00321	5d		 pop	 ebp
  00322	c2 0c 00	 ret	 12			; 0000000cH
_TEXT	ENDS
;	COMDAT text$x
text$x	SEGMENT
__unwindfunclet$??0CDlgMainTabBaseEnvSetUp@@QAE@PAUIChartOCX135914@@PAVCWnd@@H@Z$0:
  00000	8b 4d f0	 mov	 ecx, DWORD PTR _this$[ebp]
  00003	e9 00 00 00 00	 jmp	 ??1CBaseTabDlg@@UAE@XZ
__unwindfunclet$??0CDlgMainTabBaseEnvSetUp@@QAE@PAUIChartOCX135914@@PAVCWnd@@H@Z$1:
  00008	8b 4d f0	 mov	 ecx, DWORD PTR _this$[ebp]
  0000b	81 c1 a8 00 00
	00		 add	 ecx, 168		; 000000a8H
  00011	e9 00 00 00 00	 jmp	 ??1CNumSpinCtrl@@UAE@XZ	; CNumSpinCtrl::~CNumSpinCtrl
__unwindfunclet$??0CDlgMainTabBaseEnvSetUp@@QAE@PAUIChartOCX135914@@PAVCWnd@@H@Z$2:
  00016	8b 4d f0	 mov	 ecx, DWORD PTR _this$[ebp]
  00019	81 c1 28 01 00
	00		 add	 ecx, 296		; 00000128H
  0001f	e9 00 00 00 00	 jmp	 ??1CNumEdit@@UAE@XZ	; CNumEdit::~CNumEdit
__unwindfunclet$??0CDlgMainTabBaseEnvSetUp@@QAE@PAUIChartOCX135914@@PAVCWnd@@H@Z$3:
  00024	8b 4d f0	 mov	 ecx, DWORD PTR _this$[ebp]
  00027	81 c1 d0 01 00
	00		 add	 ecx, 464		; 000001d0H
  0002d	e9 00 00 00 00	 jmp	 ??1CNumSpinCtrl@@UAE@XZ	; CNumSpinCtrl::~CNumSpinCtrl
__unwindfunclet$??0CDlgMainTabBaseEnvSetUp@@QAE@PAUIChartOCX135914@@PAVCWnd@@H@Z$4:
  00032	8b 4d f0	 mov	 ecx, DWORD PTR _this$[ebp]
  00035	81 c1 50 02 00
	00		 add	 ecx, 592		; 00000250H
  0003b	e9 00 00 00 00	 jmp	 ??1CNumEdit@@UAE@XZ	; CNumEdit::~CNumEdit
__unwindfunclet$??0CDlgMainTabBaseEnvSetUp@@QAE@PAUIChartOCX135914@@PAVCWnd@@H@Z$5:
  00040	8b 4d f0	 mov	 ecx, DWORD PTR _this$[ebp]
  00043	81 c1 f8 02 00
	00		 add	 ecx, 760		; 000002f8H
  00049	e9 00 00 00 00	 jmp	 ??1CColorButton@@UAE@XZ	; CColorButton::~CColorButton
__unwindfunclet$??0CDlgMainTabBaseEnvSetUp@@QAE@PAUIChartOCX135914@@PAVCWnd@@H@Z$6:
  0004e	8b 4d f0	 mov	 ecx, DWORD PTR _this$[ebp]
  00051	81 c1 c8 03 00
	00		 add	 ecx, 968		; 000003c8H
  00057	e9 00 00 00 00	 jmp	 ??1CNumEdit@@UAE@XZ	; CNumEdit::~CNumEdit
__unwindfunclet$??0CDlgMainTabBaseEnvSetUp@@QAE@PAUIChartOCX135914@@PAVCWnd@@H@Z$7:
  0005c	8b 4d f0	 mov	 ecx, DWORD PTR _this$[ebp]
  0005f	81 c1 70 04 00
	00		 add	 ecx, 1136		; 00000470H
  00065	e9 00 00 00 00	 jmp	 ??1CNumSpinCtrl@@UAE@XZ	; CNumSpinCtrl::~CNumSpinCtrl
__unwindfunclet$??0CDlgMainTabBaseEnvSetUp@@QAE@PAUIChartOCX135914@@PAVCWnd@@H@Z$8:
  0006a	8b 4d f0	 mov	 ecx, DWORD PTR _this$[ebp]
  0006d	81 c1 10 05 00
	00		 add	 ecx, 1296		; 00000510H
  00073	e9 00 00 00 00	 jmp	 ??1CComboBox@@UAE@XZ	; CComboBox::~CComboBox
__unwindfunclet$??0CDlgMainTabBaseEnvSetUp@@QAE@PAUIChartOCX135914@@PAVCWnd@@H@Z$9:
  00078	8b 4d f0	 mov	 ecx, DWORD PTR _this$[ebp]
  0007b	81 c1 a0 05 00
	00		 add	 ecx, 1440		; 000005a0H
  00081	e9 00 00 00 00	 jmp	 ??1CButton@@UAE@XZ	; CButton::~CButton
__unwindfunclet$??0CDlgMainTabBaseEnvSetUp@@QAE@PAUIChartOCX135914@@PAVCWnd@@H@Z$10:
  00086	8b 4d f0	 mov	 ecx, DWORD PTR _this$[ebp]
  00089	81 c1 20 06 00
	00		 add	 ecx, 1568		; 00000620H
  0008f	e9 00 00 00 00	 jmp	 ??1CButton@@UAE@XZ	; CButton::~CButton
__unwindfunclet$??0CDlgMainTabBaseEnvSetUp@@QAE@PAUIChartOCX135914@@PAVCWnd@@H@Z$11:
  00094	8b 4d f0	 mov	 ecx, DWORD PTR _this$[ebp]
  00097	81 c1 a0 06 00
	00		 add	 ecx, 1696		; 000006a0H
  0009d	e9 00 00 00 00	 jmp	 ??1CButton@@UAE@XZ	; CButton::~CButton
__unwindfunclet$??0CDlgMainTabBaseEnvSetUp@@QAE@PAUIChartOCX135914@@PAVCWnd@@H@Z$12:
  000a2	8b 4d f0	 mov	 ecx, DWORD PTR _this$[ebp]
  000a5	81 c1 20 07 00
	00		 add	 ecx, 1824		; 00000720H
  000ab	e9 00 00 00 00	 jmp	 ??1CButton@@UAE@XZ	; CButton::~CButton
__unwindfunclet$??0CDlgMainTabBaseEnvSetUp@@QAE@PAUIChartOCX135914@@PAVCWnd@@H@Z$13:
  000b0	8b 4d f0	 mov	 ecx, DWORD PTR _this$[ebp]
  000b3	81 c1 a0 07 00
	00		 add	 ecx, 1952		; 000007a0H
  000b9	e9 00 00 00 00	 jmp	 ??1CButton@@UAE@XZ	; CButton::~CButton
__unwindfunclet$??0CDlgMainTabBaseEnvSetUp@@QAE@PAUIChartOCX135914@@PAVCWnd@@H@Z$14:
  000be	8b 4d f0	 mov	 ecx, DWORD PTR _this$[ebp]
  000c1	81 c1 20 08 00
	00		 add	 ecx, 2080		; 00000820H
  000c7	e9 00 00 00 00	 jmp	 ??1CButton@@UAE@XZ	; CButton::~CButton
__unwindfunclet$??0CDlgMainTabBaseEnvSetUp@@QAE@PAUIChartOCX135914@@PAVCWnd@@H@Z$15:
  000cc	8b 4d f0	 mov	 ecx, DWORD PTR _this$[ebp]
  000cf	81 c1 a0 08 00
	00		 add	 ecx, 2208		; 000008a0H
  000d5	e9 00 00 00 00	 jmp	 ??1CButton@@UAE@XZ	; CButton::~CButton
__unwindfunclet$??0CDlgMainTabBaseEnvSetUp@@QAE@PAUIChartOCX135914@@PAVCWnd@@H@Z$16:
  000da	8b 4d f0	 mov	 ecx, DWORD PTR _this$[ebp]
  000dd	81 c1 dc 09 00
	00		 add	 ecx, 2524		; 000009dcH
  000e3	e9 00 00 00 00	 jmp	 ??1COutsideCommonInterfaceFunction@@UAE@XZ ; COutsideCommonInterfaceFunction::~COutsideCommonInterfaceFunction
__unwindfunclet$??0CDlgMainTabBaseEnvSetUp@@QAE@PAUIChartOCX135914@@PAVCWnd@@H@Z$17:
  000e8	8d 4d e8	 lea	 ecx, DWORD PTR _szDataPath$2[ebp]
  000eb	e9 00 00 00 00	 jmp	 ??1ILPCSTR135914@@QAE@XZ ; ILPCSTR135914::~ILPCSTR135914
__unwindfunclet$??0CDlgMainTabBaseEnvSetUp@@QAE@PAUIChartOCX135914@@PAVCWnd@@H@Z$18:
  000f0	8b 4d 0c	 mov	 ecx, DWORD PTR $T3[ebp]
  000f3	ff 25 00 00 00
	00		 jmp	 DWORD PTR __imp_??1?$CStringT@DV?$StrTraitMFC_DLL@DV?$ChTraitsCRT@D@ATL@@@@@ATL@@QAE@XZ
  000f9	cc		 int	 3
  000fa	cc		 int	 3
  000fb	cc		 int	 3
  000fc	cc		 int	 3
  000fd	cc		 int	 3
__ehhandler$??0CDlgMainTabBaseEnvSetUp@@QAE@PAUIChartOCX135914@@PAVCWnd@@H@Z:
  000fe	90		 npad	 1
  000ff	90		 npad	 1
  00100	8b 54 24 08	 mov	 edx, DWORD PTR [esp+8]
  00104	8d 42 0c	 lea	 eax, DWORD PTR [edx+12]
  00107	8b 4a e4	 mov	 ecx, DWORD PTR [edx-28]
  0010a	33 c8		 xor	 ecx, eax
  0010c	e8 00 00 00 00	 call	 @__security_check_cookie@4
  00111	b8 00 00 00 00	 mov	 eax, OFFSET __ehfuncinfo$??0CDlgMainTabBaseEnvSetUp@@QAE@PAUIChartOCX135914@@PAVCWnd@@H@Z
  00116	e9 00 00 00 00	 jmp	 ___CxxFrameHandler3
text$x	ENDS
??0CDlgMainTabBaseEnvSetUp@@QAE@PAUIChartOCX135914@@PAVCWnd@@H@Z ENDP ; CDlgMainTabBaseEnvSetUp::CDlgMainTabBaseEnvSetUp
; Function compile flags: /Ogtp
; File D:\git\src\IBK\IBK_DRFN\ProjSrc\SrcChartEx\ChartAddIn\ChartEnvSetupDlgAddIn\ChartEnvSetupDlgAddIn\DlgMainTabBaseEnvSetUp.cpp
;	COMDAT ?GetRuntimeClass@CDlgMainTabBaseEnvSetUp@@UBEPAUCRuntimeClass@@XZ
_TEXT	SEGMENT
?GetRuntimeClass@CDlgMainTabBaseEnvSetUp@@UBEPAUCRuntimeClass@@XZ PROC ; CDlgMainTabBaseEnvSetUp::GetRuntimeClass, COMDAT
; _this$ = ecx

; 90   : IMPLEMENT_DYNAMIC( CDlgMainTabBaseEnvSetUp, CBaseTabDlg)

  00000	b8 00 00 00 00	 mov	 eax, OFFSET ?classCDlgMainTabBaseEnvSetUp@CDlgMainTabBaseEnvSetUp@@2UCRuntimeClass@@B ; CDlgMainTabBaseEnvSetUp::classCDlgMainTabBaseEnvSetUp
  00005	c3		 ret	 0
?GetRuntimeClass@CDlgMainTabBaseEnvSetUp@@UBEPAUCRuntimeClass@@XZ ENDP ; CDlgMainTabBaseEnvSetUp::GetRuntimeClass
_TEXT	ENDS
; Function compile flags: /Ogtp
; File D:\git\src\IBK\IBK_DRFN\ProjSrc\SrcChartEx\ChartAddIn\ChartEnvSetupDlgAddIn\ChartEnvSetupDlgAddIn\DlgMainTabBaseEnvSetUp.cpp
;	COMDAT ?GetThisClass@CDlgMainTabBaseEnvSetUp@@SGPAUCRuntimeClass@@XZ
_TEXT	SEGMENT
?GetThisClass@CDlgMainTabBaseEnvSetUp@@SGPAUCRuntimeClass@@XZ PROC ; CDlgMainTabBaseEnvSetUp::GetThisClass, COMDAT

; 90   : IMPLEMENT_DYNAMIC( CDlgMainTabBaseEnvSetUp, CBaseTabDlg)

  00000	b8 00 00 00 00	 mov	 eax, OFFSET ?classCDlgMainTabBaseEnvSetUp@CDlgMainTabBaseEnvSetUp@@2UCRuntimeClass@@B ; CDlgMainTabBaseEnvSetUp::classCDlgMainTabBaseEnvSetUp
  00005	c3		 ret	 0
?GetThisClass@CDlgMainTabBaseEnvSetUp@@SGPAUCRuntimeClass@@XZ ENDP ; CDlgMainTabBaseEnvSetUp::GetThisClass
_TEXT	ENDS
; Function compile flags: /Ogtp
; File D:\git\src\IBK\IBK_DRFN\ProjSrc\SrcChartEx\ChartAddIn\ChartEnvSetupDlgAddIn\ChartEnvSetupDlgAddIn\DlgMainTabBaseEnvSetUp.cpp
;	COMDAT ?_GetBaseClass@CDlgMainTabBaseEnvSetUp@@KGPAUCRuntimeClass@@XZ
_TEXT	SEGMENT
?_GetBaseClass@CDlgMainTabBaseEnvSetUp@@KGPAUCRuntimeClass@@XZ PROC ; CDlgMainTabBaseEnvSetUp::_GetBaseClass, COMDAT

; 90   : IMPLEMENT_DYNAMIC( CDlgMainTabBaseEnvSetUp, CBaseTabDlg)

  00000	e9 00 00 00 00	 jmp	 ?GetThisClass@CBaseTabDlg@@SGPAUCRuntimeClass@@XZ ; CBaseTabDlg::GetThisClass
?_GetBaseClass@CDlgMainTabBaseEnvSetUp@@KGPAUCRuntimeClass@@XZ ENDP ; CDlgMainTabBaseEnvSetUp::_GetBaseClass
_TEXT	ENDS
; Function compile flags: /Ogtp
;	COMDAT ??1CBaseTabDlg@@UAE@XZ
_TEXT	SEGMENT
??1CBaseTabDlg@@UAE@XZ PROC				; CBaseTabDlg::~CBaseTabDlg, COMDAT
; _this$ = ecx
  00000	e9 00 00 00 00	 jmp	 ??1CDialog@@UAE@XZ	; CDialog::~CDialog
??1CBaseTabDlg@@UAE@XZ ENDP				; CBaseTabDlg::~CBaseTabDlg
_TEXT	ENDS
; Function compile flags: /Ogtp
; File D:\git\src\IBK\IBK_DRFN\ProjSrc\SrcChartEx\ChartAddIn\ChartEnvSetupDlgAddIn\Include_AddIn_135914\I135914\_IString.h
;	COMDAT ??1ILPCSTR135914@@QAE@XZ
_TEXT	SEGMENT
__$EHRec$ = -12						; size = 12
??1ILPCSTR135914@@QAE@XZ PROC				; ILPCSTR135914::~ILPCSTR135914, COMDAT
; _this$ = ecx

; 44   : 	{

  00000	55		 push	 ebp
  00001	8b ec		 mov	 ebp, esp
  00003	6a ff		 push	 -1
  00005	68 00 00 00 00	 push	 __ehhandler$??1ILPCSTR135914@@QAE@XZ
  0000a	64 a1 00 00 00
	00		 mov	 eax, DWORD PTR fs:0
  00010	50		 push	 eax
  00011	56		 push	 esi
  00012	a1 00 00 00 00	 mov	 eax, DWORD PTR ___security_cookie
  00017	33 c5		 xor	 eax, ebp
  00019	50		 push	 eax
  0001a	8d 45 f4	 lea	 eax, DWORD PTR __$EHRec$[ebp]
  0001d	64 a3 00 00 00
	00		 mov	 DWORD PTR fs:0, eax
  00023	8b f1		 mov	 esi, ecx

; 45   : 		if( m_pIStrData)

  00025	8b 4e 04	 mov	 ecx, DWORD PTR [esi+4]
  00028	85 c9		 test	 ecx, ecx
  0002a	74 13		 je	 SHORT $LN2@ILPCSTR135

; 46   : 		{
; 47   : 			m_pIStrData->Release();

  0002c	8b 01		 mov	 eax, DWORD PTR [ecx]
  0002e	51		 push	 ecx
  0002f	ff 50 08	 call	 DWORD PTR [eax+8]

; 48   : 			m_pIStrData = NULL;

  00032	c7 46 04 00 00
	00 00		 mov	 DWORD PTR [esi+4], 0

; 49   : 			m_szData = NULL;

  00039	c7 06 00 00 00
	00		 mov	 DWORD PTR [esi], 0
$LN2@ILPCSTR135:

; 50   : 		}
; 51   : 	}

  0003f	8b 4d f4	 mov	 ecx, DWORD PTR __$EHRec$[ebp]
  00042	64 89 0d 00 00
	00 00		 mov	 DWORD PTR fs:0, ecx
  00049	59		 pop	 ecx
  0004a	5e		 pop	 esi
  0004b	8b e5		 mov	 esp, ebp
  0004d	5d		 pop	 ebp
  0004e	c3		 ret	 0
  0004f	cc		 int	 3
  00050	cc		 int	 3
  00051	cc		 int	 3
  00052	cc		 int	 3
  00053	cc		 int	 3
_TEXT	ENDS
;	COMDAT text$x
text$x	SEGMENT
__ehhandler$??1ILPCSTR135914@@QAE@XZ:
  00000	90		 npad	 1
  00001	90		 npad	 1
  00002	8b 54 24 08	 mov	 edx, DWORD PTR [esp+8]
  00006	8d 42 0c	 lea	 eax, DWORD PTR [edx+12]
  00009	8b 4a f8	 mov	 ecx, DWORD PTR [edx-8]
  0000c	33 c8		 xor	 ecx, eax
  0000e	e8 00 00 00 00	 call	 @__security_check_cookie@4
  00013	b8 00 00 00 00	 mov	 eax, OFFSET __ehfuncinfo$??1ILPCSTR135914@@QAE@XZ
  00018	e9 00 00 00 00	 jmp	 ___CxxFrameHandler3
text$x	ENDS
??1ILPCSTR135914@@QAE@XZ ENDP				; ILPCSTR135914::~ILPCSTR135914
; Function compile flags: /Ogtp
; File C:\Program Files (x86)\Microsoft Visual Studio\2019\Community\VC\Tools\MSVC\14.29.30133\atlmfc\include\afx.inl
;	COMDAT ??_GCComboBox@@UAEPAXI@Z
_TEXT	SEGMENT
___flags$ = 8						; size = 4
??_GCComboBox@@UAEPAXI@Z PROC				; CComboBox::`scalar deleting destructor', COMDAT
; _this$ = ecx
  00000	55		 push	 ebp
  00001	8b ec		 mov	 ebp, esp
  00003	56		 push	 esi
  00004	8b f1		 mov	 esi, ecx
  00006	e8 00 00 00 00	 call	 ??1CComboBox@@UAE@XZ	; CComboBox::~CComboBox
  0000b	8b 45 08	 mov	 eax, DWORD PTR ___flags$[ebp]
  0000e	a8 01		 test	 al, 1
  00010	74 22		 je	 SHORT $LN9@scalar
  00012	a8 04		 test	 al, 4
  00014	75 10		 jne	 SHORT $LN3@scalar

; 112  : 	{ ::operator delete(p); }

  00016	56		 push	 esi
  00017	e8 00 00 00 00	 call	 ??3@YAXPAX@Z		; operator delete
  0001c	83 c4 04	 add	 esp, 4
  0001f	8b c6		 mov	 eax, esi
  00021	5e		 pop	 esi
  00022	5d		 pop	 ebp
  00023	c2 04 00	 ret	 4
$LN3@scalar:
  00026	68 80 00 00 00	 push	 128			; 00000080H
  0002b	56		 push	 esi
  0002c	e8 00 00 00 00	 call	 ?__global_delete@@YAXPAXI@Z ; __global_delete
  00031	83 c4 08	 add	 esp, 8
$LN9@scalar:
  00034	8b c6		 mov	 eax, esi
  00036	5e		 pop	 esi
  00037	5d		 pop	 ebp
  00038	c2 04 00	 ret	 4
??_GCComboBox@@UAEPAXI@Z ENDP				; CComboBox::`scalar deleting destructor'
_TEXT	ENDS
; Function compile flags: /Ogtp
; File C:\Program Files (x86)\Microsoft Visual Studio\2019\Community\VC\Tools\MSVC\14.29.30133\atlmfc\include\afx.inl
;	COMDAT ??_GCButton@@UAEPAXI@Z
_TEXT	SEGMENT
___flags$ = 8						; size = 4
??_GCButton@@UAEPAXI@Z PROC				; CButton::`scalar deleting destructor', COMDAT
; _this$ = ecx
  00000	55		 push	 ebp
  00001	8b ec		 mov	 ebp, esp
  00003	56		 push	 esi
  00004	8b f1		 mov	 esi, ecx
  00006	e8 00 00 00 00	 call	 ??1CButton@@UAE@XZ	; CButton::~CButton
  0000b	8b 45 08	 mov	 eax, DWORD PTR ___flags$[ebp]
  0000e	a8 01		 test	 al, 1
  00010	74 22		 je	 SHORT $LN9@scalar
  00012	a8 04		 test	 al, 4
  00014	75 10		 jne	 SHORT $LN3@scalar

; 112  : 	{ ::operator delete(p); }

  00016	56		 push	 esi
  00017	e8 00 00 00 00	 call	 ??3@YAXPAX@Z		; operator delete
  0001c	83 c4 04	 add	 esp, 4
  0001f	8b c6		 mov	 eax, esi
  00021	5e		 pop	 esi
  00022	5d		 pop	 ebp
  00023	c2 04 00	 ret	 4
$LN3@scalar:
  00026	68 80 00 00 00	 push	 128			; 00000080H
  0002b	56		 push	 esi
  0002c	e8 00 00 00 00	 call	 ?__global_delete@@YAXPAXI@Z ; __global_delete
  00031	83 c4 08	 add	 esp, 8
$LN9@scalar:
  00034	8b c6		 mov	 eax, esi
  00036	5e		 pop	 esi
  00037	5d		 pop	 ebp
  00038	c2 04 00	 ret	 4
??_GCButton@@UAEPAXI@Z ENDP				; CButton::`scalar deleting destructor'
_TEXT	ENDS
; Function compile flags: /Ogtp
; File C:\Program Files (x86)\Microsoft Visual Studio\2019\Community\VC\Tools\MSVC\14.29.30133\atlmfc\include\afxwin2.inl
;	COMDAT ?Create@CDialog@@UAEHIPAVCWnd@@@Z
_TEXT	SEGMENT
_nIDTemplate$ = 8					; size = 4
_pParentWnd$ = 12					; size = 4
?Create@CDialog@@UAEHIPAVCWnd@@@Z PROC			; CDialog::Create, COMDAT
; _this$ = ecx

; 585  : 	{ return CDialog::Create(ATL_MAKEINTRESOURCE(nIDTemplate), pParentWnd); }

  00000	55		 push	 ebp
  00001	8b ec		 mov	 ebp, esp
  00003	0f b7 45 08	 movzx	 eax, WORD PTR _nIDTemplate$[ebp]
  00007	89 45 08	 mov	 DWORD PTR _nIDTemplate$[ebp], eax
  0000a	5d		 pop	 ebp
  0000b	e9 00 00 00 00	 jmp	 ?Create@CDialog@@UAEHPBDPAVCWnd@@@Z ; CDialog::Create
?Create@CDialog@@UAEHIPAVCWnd@@@Z ENDP			; CDialog::Create
_TEXT	ENDS
; Function compile flags: /Ogtp
; File C:\Program Files (x86)\Microsoft Visual Studio\2019\Community\VC\Tools\MSVC\14.29.30133\atlmfc\include\afxwin2.inl
;	COMDAT ?EndModalState@CWnd@@UAEXXZ
_TEXT	SEGMENT
?EndModalState@CWnd@@UAEXXZ PROC			; CWnd::EndModalState, COMDAT
; _this$ = ecx

; 567  : 	{ ::EnableWindow(m_hWnd, TRUE); }

  00000	6a 01		 push	 1
  00002	ff 71 20	 push	 DWORD PTR [ecx+32]
  00005	ff 15 00 00 00
	00		 call	 DWORD PTR __imp__EnableWindow@8
  0000b	c3		 ret	 0
?EndModalState@CWnd@@UAEXXZ ENDP			; CWnd::EndModalState
_TEXT	ENDS
; Function compile flags: /Ogtp
; File C:\Program Files (x86)\Microsoft Visual Studio\2019\Community\VC\Tools\MSVC\14.29.30133\atlmfc\include\afxwin2.inl
;	COMDAT ?BeginModalState@CWnd@@UAEXXZ
_TEXT	SEGMENT
?BeginModalState@CWnd@@UAEXXZ PROC			; CWnd::BeginModalState, COMDAT
; _this$ = ecx

; 565  : 	{ ::EnableWindow(m_hWnd, FALSE); }

  00000	6a 00		 push	 0
  00002	ff 71 20	 push	 DWORD PTR [ecx+32]
  00005	ff 15 00 00 00
	00		 call	 DWORD PTR __imp__EnableWindow@8
  0000b	c3		 ret	 0
?BeginModalState@CWnd@@UAEXXZ ENDP			; CWnd::BeginModalState
_TEXT	ENDS
; Function compile flags: /Ogtp
; File C:\Program Files (x86)\Microsoft Visual Studio\2019\Community\VC\Tools\MSVC\14.29.30133\atlmfc\include\afxwin2.inl
;	COMDAT ?DoDataExchange@CWnd@@MAEXPAVCDataExchange@@@Z
_TEXT	SEGMENT
___formal$ = 8						; size = 4
?DoDataExchange@CWnd@@MAEXPAVCDataExchange@@@Z PROC	; CWnd::DoDataExchange, COMDAT
; _this$ = ecx

; 561  : 	{ } // default does nothing

  00000	c2 04 00	 ret	 4
?DoDataExchange@CWnd@@MAEXPAVCDataExchange@@@Z ENDP	; CWnd::DoDataExchange
_TEXT	ENDS
; Function compile flags: /Ogtp
; File C:\Program Files (x86)\Microsoft Visual Studio\2019\Community\VC\Tools\MSVC\14.29.30133\atlmfc\include\afx.inl
;	COMDAT ?Dump@CObject@@UBEXAAVCDumpContext@@@Z
_TEXT	SEGMENT
___formal$ = 8						; size = 4
?Dump@CObject@@UBEXAAVCDumpContext@@@Z PROC		; CObject::Dump, COMDAT
; _this$ = ecx

; 122  : 	{ /* no dumping in release builds */ }

  00000	c2 04 00	 ret	 4
?Dump@CObject@@UBEXAAVCDumpContext@@@Z ENDP		; CObject::Dump
_TEXT	ENDS
; Function compile flags: /Ogtp
; File C:\Program Files (x86)\Microsoft Visual Studio\2019\Community\VC\Tools\MSVC\14.29.30133\atlmfc\include\afx.inl
;	COMDAT ?AssertValid@CObject@@UBEXXZ
_TEXT	SEGMENT
?AssertValid@CObject@@UBEXXZ PROC			; CObject::AssertValid, COMDAT
; _this$ = ecx

; 120  : 	{ /* no asserts in release builds */ }

  00000	c2 00 00	 ret	 0
?AssertValid@CObject@@UBEXXZ ENDP			; CObject::AssertValid
_TEXT	ENDS
; Function compile flags: /Ogtp
; File C:\Program Files (x86)\Microsoft Visual Studio\2019\Community\VC\Tools\MSVC\14.29.30133\atlmfc\include\afx.inl
;	COMDAT ?Serialize@CObject@@UAEXAAVCArchive@@@Z
_TEXT	SEGMENT
___formal$ = 8						; size = 4
?Serialize@CObject@@UAEXAAVCArchive@@@Z PROC		; CObject::Serialize, COMDAT
; _this$ = ecx

; 106  : 	{ /* CObject does not serialize anything by default */ }

  00000	c2 04 00	 ret	 4
?Serialize@CObject@@UAEXAAVCArchive@@@Z ENDP		; CObject::Serialize
_TEXT	ENDS
; Function compile flags: /Ogtp
; File D:\git\src\IBK\IBK_DRFN\ProjSrc\SrcChartEx\ChartAddIn\ChartEnvSetupDlgAddIn\ChartEnvSetupDlgAddIn\DlgMainTabBaseEnvSetUp.cpp
;	COMDAT ?__empty_global_delete@@YAXPAXI@Z
_TEXT	SEGMENT
___formal$ = 8						; size = 4
___formal$ = 12						; size = 4
?__empty_global_delete@@YAXPAXI@Z PROC			; __empty_global_delete, COMDAT

  00000	c2 00 00	 ret	 0
?__empty_global_delete@@YAXPAXI@Z ENDP			; __empty_global_delete
_TEXT	ENDS
; Function compile flags: /Ogtp
; File D:\git\src\IBK\IBK_DRFN\ProjSrc\SrcChartEx\ChartAddIn\ChartEnvSetupDlgAddIn\ChartEnvSetupDlgAddIn\DlgMainTabBaseEnvSetUp.cpp
;	COMDAT ?__empty_global_delete@@YAXPAX@Z
_TEXT	SEGMENT
___formal$ = 8						; size = 4
?__empty_global_delete@@YAXPAX@Z PROC			; __empty_global_delete, COMDAT

  00000	c2 00 00	 ret	 0
?__empty_global_delete@@YAXPAX@Z ENDP			; __empty_global_delete
_TEXT	ENDS
END
