; Listing generated by Microsoft (R) Optimizing Compiler Version 19.29.30145.0 

	TITLE	D:\git\src\IBK\IBK_DRFN\#DRfn-CS\_Obj\ChartEnvSetupDlgAddIn\DropBtn.obj
	.686P
	.XMM
	include listing.inc
	.model	flat

INCLUDELIB MSVCRT
INCLUDELIB OLDNAMES

PUBLIC	?__empty_global_delete@@YAXPAX@Z		; __empty_global_delete
PUBLIC	?__empty_global_delete@@YAXPAXI@Z		; __empty_global_delete
PUBLIC	??1CObject@@UAE@XZ				; CObject::~CObject
PUBLIC	??3CObject@@SGXPAX@Z				; CObject::operator delete
PUBLIC	?Serialize@CObject@@UAEXAAVCArchive@@@Z		; CObject::Serialize
PUBLIC	?AssertValid@CObject@@UBEXXZ			; CObject::AssertValid
PUBLIC	?Dump@CObject@@UBEXAAVCDumpContext@@@Z		; CObject::Dump
PUBLIC	??1CGdiObject@@UAE@XZ				; CGdiObject::~CGdiObject
PUBLIC	??_GCGdiObject@@UAEPAXI@Z			; CGdiObject::`scalar deleting destructor'
PUBLIC	??1CPen@@UAE@XZ					; CPen::~CPen
PUBLIC	??_GCPen@@UAEPAXI@Z				; CPen::`scalar deleting destructor'
PUBLIC	??1CFont@@UAE@XZ				; CFont::~CFont
PUBLIC	??_GCFont@@UAEPAXI@Z				; CFont::`scalar deleting destructor'
PUBLIC	?DoDataExchange@CWnd@@MAEXPAVCDataExchange@@@Z	; CWnd::DoDataExchange
PUBLIC	?BeginModalState@CWnd@@UAEXXZ			; CWnd::BeginModalState
PUBLIC	?EndModalState@CWnd@@UAEXXZ			; CWnd::EndModalState
PUBLIC	??_GCButton@@UAEPAXI@Z				; CButton::`scalar deleting destructor'
PUBLIC	??_GCListBox@@UAEPAXI@Z				; CListBox::`scalar deleting destructor'
PUBLIC	?AddToList@CDropList@@AAEHHV?$CStringT@DV?$StrTraitMFC_DLL@DV?$ChTraitsCRT@D@ATL@@@@@ATL@@@Z ; CDropList::AddToList
PUBLIC	?ClearItems@CDropList@@AAEXXZ			; CDropList::ClearItems
PUBLIC	??0CDropList@@QAE@XZ				; CDropList::CDropList
PUBLIC	?DrawItem@CDropList@@AAEXPAVCDC@@VCRect@@H@Z	; CDropList::DrawItem
PUBLIC	?SetFont@CDropList@@QAEXPAVCFont@@H@Z		; CDropList::SetFont
PUBLIC	?SetBkColor@CDropList@@QAEXK@Z			; CDropList::SetBkColor
PUBLIC	?SetHighlightBkColor@CDropList@@QAEXK@Z		; CDropList::SetHighlightBkColor
PUBLIC	?SetPreviousSelection@CDropList@@QAEXH@Z	; CDropList::SetPreviousSelection
PUBLIC	?AddString@CDropList@@QAEHPBD@Z			; CDropList::AddString
PUBLIC	?AddString@CDropList@@QAEHPBDHKK@Z		; CDropList::AddString
PUBLIC	?DeleteString@CDropList@@QAEHI@Z		; CDropList::DeleteString
PUBLIC	?ResetContent@CDropList@@QAEXXZ			; CDropList::ResetContent
PUBLIC	?DrawItem@CDropList@@UAEXPAUtagDRAWITEMSTRUCT@@@Z ; CDropList::DrawItem
PUBLIC	?MeasureItem@CDropList@@UAEXPAUtagMEASUREITEMSTRUCT@@@Z ; CDropList::MeasureItem
PUBLIC	??1CDropList@@UAE@XZ				; CDropList::~CDropList
PUBLIC	?OnCreate@CDropList@@IAEHPAUtagCREATESTRUCTA@@@Z ; CDropList::OnCreate
PUBLIC	?CtlColor@CDropList@@IAEPAUHBRUSH__@@PAVCDC@@I@Z ; CDropList::CtlColor
PUBLIC	?OnKillFocus@CDropList@@IAEXPAVCWnd@@@Z		; CDropList::OnKillFocus
PUBLIC	?OnSize@CDropList@@IAEXIHH@Z			; CDropList::OnSize
PUBLIC	?GetThisMessageMap@CDropList@@KGPBUAFX_MSGMAP@@XZ ; CDropList::GetThisMessageMap
PUBLIC	?GetMessageMap@CDropList@@MBEPBUAFX_MSGMAP@@XZ	; CDropList::GetMessageMap
PUBLIC	??_GCDropList@@UAEPAXI@Z			; CDropList::`scalar deleting destructor'
PUBLIC	??0CListWnd@@QAE@XZ				; CListWnd::CListWnd
PUBLIC	?Create@CListWnd@@QAEHPAVCWnd@@I@Z		; CListWnd::Create
PUBLIC	??1CListWnd@@UAE@XZ				; CListWnd::~CListWnd
PUBLIC	?OnSelectionChange@CListWnd@@IAEXXZ		; CListWnd::OnSelectionChange
PUBLIC	?OnSize@CListWnd@@IAEXIHH@Z			; CListWnd::OnSize
PUBLIC	?OnShowWindow@CListWnd@@IAEXHI@Z		; CListWnd::OnShowWindow
PUBLIC	?GetThisMessageMap@CListWnd@@KGPBUAFX_MSGMAP@@XZ ; CListWnd::GetThisMessageMap
PUBLIC	?GetMessageMap@CListWnd@@MBEPBUAFX_MSGMAP@@XZ	; CListWnd::GetMessageMap
PUBLIC	??_GCListWnd@@UAEPAXI@Z				; CListWnd::`scalar deleting destructor'
PUBLIC	?DrawTriangle@CDropButton@@AAEXPAVCDC@@VCPoint@@H@Z ; CDropButton::DrawTriangle
PUBLIC	?DisplayList@CDropButton@@AAEXXZ		; CDropButton::DisplayList
PUBLIC	??0CDropButton@@QAE@XZ				; CDropButton::CDropButton
PUBLIC	?Create@CDropButton@@QAEHV?$CStringT@DV?$StrTraitMFC_DLL@DV?$ChTraitsCRT@D@ATL@@@@@ATL@@VCRect@@PAVCWnd@@IKKKKPAVCFont@@K@Z ; CDropButton::Create
PUBLIC	??1CDropButton@@UAE@XZ				; CDropButton::~CDropButton
PUBLIC	?DrawItem@CDropButton@@UAEXPAUtagDRAWITEMSTRUCT@@@Z ; CDropButton::DrawItem
PUBLIC	?MeasureItem@CDropButton@@UAEXPAUtagMEASUREITEMSTRUCT@@@Z ; CDropButton::MeasureItem
PUBLIC	?OnSelectionChanged@CDropButton@@IAEJIJ@Z	; CDropButton::OnSelectionChanged
PUBLIC	?OnMouseMove@CDropButton@@IAEXIVCPoint@@@Z	; CDropButton::OnMouseMove
PUBLIC	?OnLButtonDown@CDropButton@@IAEXIVCPoint@@@Z	; CDropButton::OnLButtonDown
PUBLIC	?OnSetFocus@CDropButton@@IAEXPAVCWnd@@@Z	; CDropButton::OnSetFocus
PUBLIC	?OnSize@CDropButton@@IAEXIHH@Z			; CDropButton::OnSize
PUBLIC	?GetThisMessageMap@CDropButton@@KGPBUAFX_MSGMAP@@XZ ; CDropButton::GetThisMessageMap
PUBLIC	?GetMessageMap@CDropButton@@MBEPBUAFX_MSGMAP@@XZ ; CDropButton::GetMessageMap
PUBLIC	??_GCDropButton@@UAEPAXI@Z			; CDropButton::`scalar deleting destructor'
PUBLIC	??_R0PAVCException@@@8				; CException * `RTTI Type Descriptor'
PUBLIC	??_C@_01PLPBNMEI@M@				; `string'
PUBLIC	??_7CGdiObject@@6B@				; CGdiObject::`vftable'
PUBLIC	??_7CPen@@6B@					; CPen::`vftable'
PUBLIC	??_7CFont@@6B@					; CFont::`vftable'
PUBLIC	??_7CButton@@6B@				; CButton::`vftable'
PUBLIC	??_7CListBox@@6B@				; CListBox::`vftable'
PUBLIC	??_C@_0HD@JJCHHHNK@C?3?2Program?5Files?5?$CIx86?$CJ?2Microsof@ ; `string'
PUBLIC	??_C@_0BP@OIEOKIDM@Exception?5thrown?5in?5destructor@ ; `string'
PUBLIC	??_C@_0BB@HBOOMJBF@?$CFTs?5?$CI?$CFTs?3?$CFd?$CJ?6?$CFTs@ ; `string'
PUBLIC	??_C@_0N@OMEMOKLE@?$CFTs?5?$CI?$CFTs?3?$CFd?$CJ@ ; `string'
PUBLIC	??_R0?AVCObject@@@8				; CObject `RTTI Type Descriptor'
PUBLIC	??_R3CObject@@8					; CObject::`RTTI Class Hierarchy Descriptor'
PUBLIC	??_R2CObject@@8					; CObject::`RTTI Base Class Array'
PUBLIC	??_R1A@?0A@EA@CObject@@8			; CObject::`RTTI Base Class Descriptor at (0,-1,0,64)'
PUBLIC	??_R4CGdiObject@@6B@				; CGdiObject::`RTTI Complete Object Locator'
PUBLIC	??_R0?AVCGdiObject@@@8				; CGdiObject `RTTI Type Descriptor'
PUBLIC	??_R3CGdiObject@@8				; CGdiObject::`RTTI Class Hierarchy Descriptor'
PUBLIC	??_R2CGdiObject@@8				; CGdiObject::`RTTI Base Class Array'
PUBLIC	??_R1A@?0A@EA@CGdiObject@@8			; CGdiObject::`RTTI Base Class Descriptor at (0,-1,0,64)'
PUBLIC	??_R4CPen@@6B@					; CPen::`RTTI Complete Object Locator'
PUBLIC	??_R0?AVCPen@@@8				; CPen `RTTI Type Descriptor'
PUBLIC	??_R3CPen@@8					; CPen::`RTTI Class Hierarchy Descriptor'
PUBLIC	??_R2CPen@@8					; CPen::`RTTI Base Class Array'
PUBLIC	??_R1A@?0A@EA@CPen@@8				; CPen::`RTTI Base Class Descriptor at (0,-1,0,64)'
PUBLIC	??_R4CFont@@6B@					; CFont::`RTTI Complete Object Locator'
PUBLIC	??_R0?AVCFont@@@8				; CFont `RTTI Type Descriptor'
PUBLIC	??_R3CFont@@8					; CFont::`RTTI Class Hierarchy Descriptor'
PUBLIC	??_R2CFont@@8					; CFont::`RTTI Base Class Array'
PUBLIC	??_R1A@?0A@EA@CFont@@8				; CFont::`RTTI Base Class Descriptor at (0,-1,0,64)'
PUBLIC	??_R1A@?0A@EA@CWnd@@8				; CWnd::`RTTI Base Class Descriptor at (0,-1,0,64)'
PUBLIC	??_R0?AVCWnd@@@8				; CWnd `RTTI Type Descriptor'
PUBLIC	??_R3CWnd@@8					; CWnd::`RTTI Class Hierarchy Descriptor'
PUBLIC	??_R2CWnd@@8					; CWnd::`RTTI Base Class Array'
PUBLIC	??_R1A@?0A@EA@CCmdTarget@@8			; CCmdTarget::`RTTI Base Class Descriptor at (0,-1,0,64)'
PUBLIC	??_R0?AVCCmdTarget@@@8				; CCmdTarget `RTTI Type Descriptor'
PUBLIC	??_R3CCmdTarget@@8				; CCmdTarget::`RTTI Class Hierarchy Descriptor'
PUBLIC	??_R2CCmdTarget@@8				; CCmdTarget::`RTTI Base Class Array'
PUBLIC	??_R4CButton@@6B@				; CButton::`RTTI Complete Object Locator'
PUBLIC	??_R0?AVCButton@@@8				; CButton `RTTI Type Descriptor'
PUBLIC	??_R3CButton@@8					; CButton::`RTTI Class Hierarchy Descriptor'
PUBLIC	??_R2CButton@@8					; CButton::`RTTI Base Class Array'
PUBLIC	??_R1A@?0A@EA@CButton@@8			; CButton::`RTTI Base Class Descriptor at (0,-1,0,64)'
PUBLIC	??_R4CListBox@@6B@				; CListBox::`RTTI Complete Object Locator'
PUBLIC	??_R0?AVCListBox@@@8				; CListBox `RTTI Type Descriptor'
PUBLIC	??_R3CListBox@@8				; CListBox::`RTTI Class Hierarchy Descriptor'
PUBLIC	??_R2CListBox@@8				; CListBox::`RTTI Base Class Array'
PUBLIC	??_R1A@?0A@EA@CListBox@@8			; CListBox::`RTTI Base Class Descriptor at (0,-1,0,64)'
PUBLIC	??_7CDropList@@6B@				; CDropList::`vftable'
PUBLIC	??_7CListWnd@@6B@				; CListWnd::`vftable'
PUBLIC	??_7CDropButton@@6B@				; CDropButton::`vftable'
PUBLIC	??_C@_05MPFIAJAP@Arial@				; `string'
PUBLIC	??_R4CDropList@@6B@				; CDropList::`RTTI Complete Object Locator'
PUBLIC	??_R0?AVCDropList@@@8				; CDropList `RTTI Type Descriptor'
PUBLIC	??_R3CDropList@@8				; CDropList::`RTTI Class Hierarchy Descriptor'
PUBLIC	??_R2CDropList@@8				; CDropList::`RTTI Base Class Array'
PUBLIC	??_R1A@?0A@EA@CDropList@@8			; CDropList::`RTTI Base Class Descriptor at (0,-1,0,64)'
PUBLIC	??_R4CListWnd@@6B@				; CListWnd::`RTTI Complete Object Locator'
PUBLIC	??_R0?AVCListWnd@@@8				; CListWnd `RTTI Type Descriptor'
PUBLIC	??_R3CListWnd@@8				; CListWnd::`RTTI Class Hierarchy Descriptor'
PUBLIC	??_R2CListWnd@@8				; CListWnd::`RTTI Base Class Array'
PUBLIC	??_R1A@?0A@EA@CListWnd@@8			; CListWnd::`RTTI Base Class Descriptor at (0,-1,0,64)'
PUBLIC	??_R4CDropButton@@6B@				; CDropButton::`RTTI Complete Object Locator'
PUBLIC	??_R0?AVCDropButton@@@8				; CDropButton `RTTI Type Descriptor'
PUBLIC	??_R3CDropButton@@8				; CDropButton::`RTTI Class Hierarchy Descriptor'
PUBLIC	??_R2CDropButton@@8				; CDropButton::`RTTI Base Class Array'
PUBLIC	??_R1A@?0A@EA@CDropButton@@8			; CDropButton::`RTTI Base Class Descriptor at (0,-1,0,64)'
EXTRN	??2@YAPAXI@Z:PROC				; operator new
EXTRN	??3@YAXPAX@Z:PROC				; operator delete
EXTRN	??3@YAXPAXI@Z:PROC				; operator delete
EXTRN	?__global_delete@@YAXPAXI@Z:PROC		; __global_delete
EXTRN	___std_terminate:PROC
EXTRN	__imp__CreateFontIndirectA@4:PROC
EXTRN	__imp__CreateFontA@56:PROC
EXTRN	__imp__GetTextExtentPoint32A@16:PROC
EXTRN	__imp__Rectangle@20:PROC
EXTRN	__imp__SelectObject@8:PROC
EXTRN	__imp__GetObjectA@12:PROC
EXTRN	__imp__Polygon@12:PROC
EXTRN	__imp__SendMessageA@16:PROC
EXTRN	__imp__PostMessageA@16:PROC
EXTRN	__imp__IsWindowVisible@4:PROC
EXTRN	__imp__SetCapture@4:PROC
EXTRN	__imp__ReleaseCapture@0:PROC
EXTRN	__imp__EnableWindow@8:PROC
EXTRN	__imp__RedrawWindow@16:PROC
EXTRN	__imp__GetClientRect@8:PROC
EXTRN	__imp__GetWindowRect@8:PROC
EXTRN	__imp__GetCursorPos@4:PROC
EXTRN	__imp__ClientToScreen@8:PROC
EXTRN	__imp__MapWindowPoints@16:PROC
EXTRN	__imp__CopyRect@8:PROC
EXTRN	__imp__InflateRect@12:PROC
EXTRN	__imp__PtInRect@12:PROC
EXTRN	__imp__GetDesktopWindow@0:PROC
EXTRN	__imp__GetParent@4:PROC
EXTRN	?AfxThrowInvalidArgException@@YGXXZ:PROC	; AfxThrowInvalidArgException
EXTRN	__imp_?Empty@?$CSimpleStringT@D$00@ATL@@QAEXXZ:PROC
EXTRN	__imp_??0?$CStringT@DV?$StrTraitMFC_DLL@DV?$ChTraitsCRT@D@ATL@@@@@ATL@@QAE@XZ:PROC
EXTRN	__imp_??0?$CStringT@DV?$StrTraitMFC_DLL@DV?$ChTraitsCRT@D@ATL@@@@@ATL@@QAE@PBD@Z:PROC
EXTRN	__imp_??1?$CStringT@DV?$StrTraitMFC_DLL@DV?$ChTraitsCRT@D@ATL@@@@@ATL@@QAE@XZ:PROC
EXTRN	__imp_?CompareNoCase@?$CStringT@DV?$StrTraitMFC_DLL@DV?$ChTraitsCRT@D@ATL@@@@@ATL@@QBEHPBD@Z:PROC
EXTRN	__imp_?Format@?$CStringT@DV?$StrTraitMFC_DLL@DV?$ChTraitsCRT@D@ATL@@@@@ATL@@QAAXPBDZZ:PROC
EXTRN	??0CPtrList@@QAE@H@Z:PROC			; CPtrList::CPtrList
EXTRN	?AddTail@CPtrList@@QAEPAU__POSITION@@PAX@Z:PROC	; CPtrList::AddTail
EXTRN	?RemoveAll@CPtrList@@QAEXXZ:PROC		; CPtrList::RemoveAll
EXTRN	?RemoveAt@CPtrList@@QAEXPAU__POSITION@@@Z:PROC	; CPtrList::RemoveAt
EXTRN	?InsertBefore@CPtrList@@QAEPAU__POSITION@@PAU2@PAX@Z:PROC ; CPtrList::InsertBefore
EXTRN	?FindIndex@CPtrList@@QBEPAU__POSITION@@H@Z:PROC	; CPtrList::FindIndex
EXTRN	??1CPtrList@@UAE@XZ:PROC			; CPtrList::~CPtrList
EXTRN	?GetRuntimeClass@CGdiObject@@UBEPAUCRuntimeClass@@XZ:PROC ; CGdiObject::GetRuntimeClass
EXTRN	?Attach@CGdiObject@@QAEHPAX@Z:PROC		; CGdiObject::Attach
EXTRN	?DeleteObject@CGdiObject@@QAEHXZ:PROC		; CGdiObject::DeleteObject
EXTRN	??_ECGdiObject@@UAEPAXI@Z:PROC			; CGdiObject::`vector deleting destructor'
EXTRN	?GetRuntimeClass@CPen@@UBEPAUCRuntimeClass@@XZ:PROC ; CPen::GetRuntimeClass
EXTRN	??0CPen@@QAE@HHK@Z:PROC				; CPen::CPen
EXTRN	??_ECPen@@UAEPAXI@Z:PROC			; CPen::`vector deleting destructor'
EXTRN	??0CBrush@@QAE@K@Z:PROC				; CBrush::CBrush
EXTRN	?GetRuntimeClass@CFont@@UBEPAUCRuntimeClass@@XZ:PROC ; CFont::GetRuntimeClass
EXTRN	??_ECFont@@UAEPAXI@Z:PROC			; CFont::`vector deleting destructor'
EXTRN	?FromHandle@CDC@@SGPAV1@PAUHDC__@@@Z:PROC	; CDC::FromHandle
EXTRN	?SelectObject@CDC@@QAEPAVCPen@@PAV2@@Z:PROC	; CDC::SelectObject
EXTRN	?SelectObject@CDC@@QAEPAVCBrush@@PAV2@@Z:PROC	; CDC::SelectObject
EXTRN	?SetBkMode@CDC@@QAEHH@Z:PROC			; CDC::SetBkMode
EXTRN	?MoveTo@CDC@@QAE?AVCPoint@@HH@Z:PROC		; CDC::MoveTo
EXTRN	?LineTo@CDC@@QAEHHH@Z:PROC			; CDC::LineTo
EXTRN	?OnCmdMsg@CCmdTarget@@UAEHIHPAXPAUAFX_CMDHANDLERINFO@@@Z:PROC ; CCmdTarget::OnCmdMsg
EXTRN	?IsInvokeAllowed@CCmdTarget@@UAEHJ@Z:PROC	; CCmdTarget::IsInvokeAllowed
EXTRN	?GetDispatchIID@CCmdTarget@@UAEHPAU_GUID@@@Z:PROC ; CCmdTarget::GetDispatchIID
EXTRN	?GetTypeInfoCount@CCmdTarget@@UAEIXZ:PROC	; CCmdTarget::GetTypeInfoCount
EXTRN	?GetTypeLibCache@CCmdTarget@@UAEPAVCTypeLibCache@@XZ:PROC ; CCmdTarget::GetTypeLibCache
EXTRN	?GetTypeLib@CCmdTarget@@UAEJKPAPAUITypeLib@@@Z:PROC ; CCmdTarget::GetTypeLib
EXTRN	?GetCommandMap@CCmdTarget@@MBEPBUAFX_OLECMDMAP@@XZ:PROC ; CCmdTarget::GetCommandMap
EXTRN	?GetDispatchMap@CCmdTarget@@MBEPBUAFX_DISPMAP@@XZ:PROC ; CCmdTarget::GetDispatchMap
EXTRN	?GetConnectionMap@CCmdTarget@@MBEPBUAFX_CONNECTIONMAP@@XZ:PROC ; CCmdTarget::GetConnectionMap
EXTRN	?GetEventSinkMap@CCmdTarget@@MBEPBUAFX_EVENTSINKMAP@@XZ:PROC ; CCmdTarget::GetEventSinkMap
EXTRN	?OnCreateAggregates@CCmdTarget@@UAEHXZ:PROC	; CCmdTarget::OnCreateAggregates
EXTRN	?GetInterfaceHook@CCmdTarget@@UAEPAUIUnknown@@PBX@Z:PROC ; CCmdTarget::GetInterfaceHook
EXTRN	?GetExtraConnectionPoints@CCmdTarget@@MAEHPAVCPtrArray@@@Z:PROC ; CCmdTarget::GetExtraConnectionPoints
EXTRN	?GetConnectionHook@CCmdTarget@@MAEPAUIConnectionPoint@@ABU_GUID@@@Z:PROC ; CCmdTarget::GetConnectionHook
EXTRN	?GetRuntimeClass@CWnd@@UBEPAUCRuntimeClass@@XZ:PROC ; CWnd::GetRuntimeClass
EXTRN	??0CWnd@@QAE@XZ:PROC				; CWnd::CWnd
EXTRN	?FromHandle@CWnd@@SGPAV1@PAUHWND__@@@Z:PROC	; CWnd::FromHandle
EXTRN	?PreSubclassWindow@CWnd@@UAEXXZ:PROC		; CWnd::PreSubclassWindow
EXTRN	?Create@CWnd@@UAEHPBD0KABUtagRECT@@PAV1@IPAUCCreateContext@@@Z:PROC ; CWnd::Create
EXTRN	?CreateEx@CWnd@@UAEHKPBD0KHHHHPAUHWND__@@PAUHMENU__@@PAX@Z:PROC ; CWnd::CreateEx
EXTRN	?CreateEx@CWnd@@UAEHKPBD0KABUtagRECT@@PAV1@IPAX@Z:PROC ; CWnd::CreateEx
EXTRN	?DestroyWindow@CWnd@@UAEHXZ:PROC		; CWnd::DestroyWindow
EXTRN	?PreCreateWindow@CWnd@@UAEHAAUtagCREATESTRUCTA@@@Z:PROC ; CWnd::PreCreateWindow
EXTRN	?CalcWindowRect@CWnd@@UAEXPAUtagRECT@@I@Z:PROC	; CWnd::CalcWindowRect
EXTRN	?SetWindowTextA@CWnd@@QAEXPBD@Z:PROC		; CWnd::SetWindowTextA
EXTRN	?GetWindowTextA@CWnd@@QBEXAAV?$CStringT@DV?$StrTraitMFC_DLL@DV?$ChTraitsCRT@D@ATL@@@@@ATL@@@Z:PROC ; CWnd::GetWindowTextA
EXTRN	?GetMenu@CWnd@@UBEPAVCMenu@@XZ:PROC		; CWnd::GetMenu
EXTRN	?SetMenu@CWnd@@UAEHPAVCMenu@@@Z:PROC		; CWnd::SetMenu
EXTRN	?MoveWindow@CWnd@@QAEXHHHHH@Z:PROC		; CWnd::MoveWindow
EXTRN	?ClientToScreen@CWnd@@QBEXPAUtagRECT@@@Z:PROC	; CWnd::ClientToScreen
EXTRN	?ShowWindow@CWnd@@QAEHH@Z:PROC			; CWnd::ShowWindow
EXTRN	?OnToolHitTest@CWnd@@UBEHVCPoint@@PAUtagTOOLINFOA@@@Z:PROC ; CWnd::OnToolHitTest
EXTRN	?SetFocus@CWnd@@QAEPAV1@XZ:PROC			; CWnd::SetFocus
EXTRN	?GetScrollBarCtrl@CWnd@@UBEPAVCScrollBar@@H@Z:PROC ; CWnd::GetScrollBarCtrl
EXTRN	?WinHelpA@CWnd@@UAEXKI@Z:PROC			; CWnd::WinHelpA
EXTRN	?HtmlHelpA@CWnd@@UAEXKI@Z:PROC			; CWnd::HtmlHelpA
EXTRN	?WinHelpInternal@CWnd@@UAEXKI@Z:PROC		; CWnd::WinHelpInternal
EXTRN	?ContinueModal@CWnd@@UAEHXZ:PROC		; CWnd::ContinueModal
EXTRN	?EndModalLoop@CWnd@@UAEXH@Z:PROC		; CWnd::EndModalLoop
EXTRN	?OnDrawIconicThumbnailOrLivePreview@CWnd@@UAEXAAVCDC@@VCRect@@VCSize@@HAAH@Z:PROC ; CWnd::OnDrawIconicThumbnailOrLivePreview
EXTRN	?GetInterfaceMap@CWnd@@MBEPBUAFX_INTERFACEMAP@@XZ:PROC ; CWnd::GetInterfaceMap
EXTRN	?EnsureStdObj@CWnd@@UAEJXZ:PROC			; CWnd::EnsureStdObj
EXTRN	?get_accParent@CWnd@@UAEJPAPAUIDispatch@@@Z:PROC ; CWnd::get_accParent
EXTRN	?get_accChildCount@CWnd@@UAEJPAJ@Z:PROC		; CWnd::get_accChildCount
EXTRN	?get_accChild@CWnd@@UAEJUtagVARIANT@@PAPAUIDispatch@@@Z:PROC ; CWnd::get_accChild
EXTRN	?get_accName@CWnd@@UAEJUtagVARIANT@@PAPA_W@Z:PROC ; CWnd::get_accName
EXTRN	?get_accValue@CWnd@@UAEJUtagVARIANT@@PAPA_W@Z:PROC ; CWnd::get_accValue
EXTRN	?get_accDescription@CWnd@@UAEJUtagVARIANT@@PAPA_W@Z:PROC ; CWnd::get_accDescription
EXTRN	?get_accRole@CWnd@@UAEJUtagVARIANT@@PAU2@@Z:PROC ; CWnd::get_accRole
EXTRN	?get_accState@CWnd@@UAEJUtagVARIANT@@PAU2@@Z:PROC ; CWnd::get_accState
EXTRN	?get_accHelp@CWnd@@UAEJUtagVARIANT@@PAPA_W@Z:PROC ; CWnd::get_accHelp
EXTRN	?get_accHelpTopic@CWnd@@UAEJPAPA_WUtagVARIANT@@PAJ@Z:PROC ; CWnd::get_accHelpTopic
EXTRN	?get_accKeyboardShortcut@CWnd@@UAEJUtagVARIANT@@PAPA_W@Z:PROC ; CWnd::get_accKeyboardShortcut
EXTRN	?get_accFocus@CWnd@@UAEJPAUtagVARIANT@@@Z:PROC	; CWnd::get_accFocus
EXTRN	?get_accSelection@CWnd@@UAEJPAUtagVARIANT@@@Z:PROC ; CWnd::get_accSelection
EXTRN	?get_accDefaultAction@CWnd@@UAEJUtagVARIANT@@PAPA_W@Z:PROC ; CWnd::get_accDefaultAction
EXTRN	?accSelect@CWnd@@UAEJJUtagVARIANT@@@Z:PROC	; CWnd::accSelect
EXTRN	?accLocation@CWnd@@UAEJPAJ000UtagVARIANT@@@Z:PROC ; CWnd::accLocation
EXTRN	?accNavigate@CWnd@@UAEJJUtagVARIANT@@PAU2@@Z:PROC ; CWnd::accNavigate
EXTRN	?accHitTest@CWnd@@UAEJJJPAUtagVARIANT@@@Z:PROC	; CWnd::accHitTest
EXTRN	?accDoDefaultAction@CWnd@@UAEJUtagVARIANT@@@Z:PROC ; CWnd::accDoDefaultAction
EXTRN	?put_accName@CWnd@@UAEJUtagVARIANT@@PA_W@Z:PROC	; CWnd::put_accName
EXTRN	?put_accValue@CWnd@@UAEJUtagVARIANT@@PA_W@Z:PROC ; CWnd::put_accValue
EXTRN	?SetProxy@CWnd@@UAEJPAUIAccessibleProxy@@@Z:PROC ; CWnd::SetProxy
EXTRN	?CreateAccessibleProxy@CWnd@@UAEJIJPAJ@Z:PROC	; CWnd::CreateAccessibleProxy
EXTRN	?OnCommand@CWnd@@MAEHIJ@Z:PROC			; CWnd::OnCommand
EXTRN	?OnNotify@CWnd@@MAEHIJPAJ@Z:PROC		; CWnd::OnNotify
EXTRN	?OnSetFocus@CWnd@@IAEXPAV1@@Z:PROC		; CWnd::OnSetFocus
EXTRN	?GetSuperWndProcAddr@CWnd@@MAEPAP6GJPAUHWND__@@IIJ@ZXZ:PROC ; CWnd::GetSuperWndProcAddr
EXTRN	?PreTranslateMessage@CWnd@@UAEHPAUtagMSG@@@Z:PROC ; CWnd::PreTranslateMessage
EXTRN	?OnAmbientProperty@CWnd@@UAEHPAVCOleControlSite@@JPAUtagVARIANT@@@Z:PROC ; CWnd::OnAmbientProperty
EXTRN	?WindowProc@CWnd@@MAEJIIJ@Z:PROC		; CWnd::WindowProc
EXTRN	?OnWndMsg@CWnd@@MAEHIIJPAJ@Z:PROC		; CWnd::OnWndMsg
EXTRN	?Default@CWnd@@IAEJXZ:PROC			; CWnd::Default
EXTRN	?DefWindowProcA@CWnd@@MAEJIIJ@Z:PROC		; CWnd::DefWindowProcA
EXTRN	?PostNcDestroy@CWnd@@MAEXXZ:PROC		; CWnd::PostNcDestroy
EXTRN	?OnChildNotify@CWnd@@MAEHIIJPAJ@Z:PROC		; CWnd::OnChildNotify
EXTRN	?OnTouchInputs@CWnd@@MAEHIPAUtagTOUCHINPUT@@@Z:PROC ; CWnd::OnTouchInputs
EXTRN	?OnTouchInput@CWnd@@MAEHVCPoint@@HHPAUtagTOUCHINPUT@@@Z:PROC ; CWnd::OnTouchInput
EXTRN	?GetGestureStatus@CWnd@@MAEKVCPoint@@@Z:PROC	; CWnd::GetGestureStatus
EXTRN	?OnGestureZoom@CWnd@@MAEHVCPoint@@J@Z:PROC	; CWnd::OnGestureZoom
EXTRN	?OnGesturePan@CWnd@@MAEHVCPoint@@0@Z:PROC	; CWnd::OnGesturePan
EXTRN	?OnGestureRotate@CWnd@@MAEHVCPoint@@N@Z:PROC	; CWnd::OnGestureRotate
EXTRN	?OnGestureTwoFingerTap@CWnd@@MAEHVCPoint@@@Z:PROC ; CWnd::OnGestureTwoFingerTap
EXTRN	?OnGesturePressAndTap@CWnd@@MAEHVCPoint@@J@Z:PROC ; CWnd::OnGesturePressAndTap
EXTRN	?ResizeDynamicLayout@CWnd@@MAEXXZ:PROC		; CWnd::ResizeDynamicLayout
EXTRN	??1CWnd@@UAE@XZ:PROC				; CWnd::~CWnd
EXTRN	?CheckAutoCenter@CWnd@@UAEHXZ:PROC		; CWnd::CheckAutoCenter
EXTRN	?IsFrameWnd@CWnd@@UBEHXZ:PROC			; CWnd::IsFrameWnd
EXTRN	?OnFinalRelease@CWnd@@UAEXXZ:PROC		; CWnd::OnFinalRelease
EXTRN	?CreateControlContainer@CWnd@@MAEHPAPAVCOleControlContainer@@@Z:PROC ; CWnd::CreateControlContainer
EXTRN	?CreateControlSite@CWnd@@MAEHPAVCOleControlContainer@@PAPAVCOleControlSite@@IABU_GUID@@@Z:PROC ; CWnd::CreateControlSite
EXTRN	?SetOccDialogInfo@CWnd@@MAEHPAU_AFX_OCC_DIALOG_INFO@@@Z:PROC ; CWnd::SetOccDialogInfo
EXTRN	?GetOccDialogInfo@CWnd@@MAEPAU_AFX_OCC_DIALOG_INFO@@XZ:PROC ; CWnd::GetOccDialogInfo
EXTRN	?GetThisMessageMap@CWnd@@KGPBUAFX_MSGMAP@@XZ:PROC ; CWnd::GetThisMessageMap
EXTRN	?GetMessageMap@CWnd@@MBEPBUAFX_MSGMAP@@XZ:PROC	; CWnd::GetMessageMap
EXTRN	?AfxRegisterWndClass@@YGPBDIPAUHICON__@@PAUHBRUSH__@@0@Z:PROC ; AfxRegisterWndClass
EXTRN	?GetRuntimeClass@CButton@@UBEPAUCRuntimeClass@@XZ:PROC ; CButton::GetRuntimeClass
EXTRN	?Create@CButton@@UAEHPBDKABUtagRECT@@PAVCWnd@@I@Z:PROC ; CButton::Create
EXTRN	?DrawItem@CButton@@UAEXPAUtagDRAWITEMSTRUCT@@@Z:PROC ; CButton::DrawItem
EXTRN	??1CButton@@UAE@XZ:PROC				; CButton::~CButton
EXTRN	?OnChildNotify@CButton@@MAEHIIJPAJ@Z:PROC	; CButton::OnChildNotify
EXTRN	??_ECButton@@UAEPAXI@Z:PROC			; CButton::`vector deleting destructor'
EXTRN	?GetRuntimeClass@CListBox@@UBEPAUCRuntimeClass@@XZ:PROC ; CListBox::GetRuntimeClass
EXTRN	?Create@CListBox@@UAEHKABUtagRECT@@PAVCWnd@@I@Z:PROC ; CListBox::Create
EXTRN	?GetText@CListBox@@QBEXHAAV?$CStringT@DV?$StrTraitMFC_DLL@DV?$ChTraitsCRT@D@ATL@@@@@ATL@@@Z:PROC ; CListBox::GetText
EXTRN	?DrawItem@CListBox@@UAEXPAUtagDRAWITEMSTRUCT@@@Z:PROC ; CListBox::DrawItem
EXTRN	?MeasureItem@CListBox@@UAEXPAUtagMEASUREITEMSTRUCT@@@Z:PROC ; CListBox::MeasureItem
EXTRN	?CompareItem@CListBox@@UAEHPAUtagCOMPAREITEMSTRUCT@@@Z:PROC ; CListBox::CompareItem
EXTRN	?DeleteItem@CListBox@@UAEXPAUtagDELETEITEMSTRUCT@@@Z:PROC ; CListBox::DeleteItem
EXTRN	?VKeyToItem@CListBox@@UAEHII@Z:PROC		; CListBox::VKeyToItem
EXTRN	?CharToItem@CListBox@@UAEHII@Z:PROC		; CListBox::CharToItem
EXTRN	??1CListBox@@UAE@XZ:PROC			; CListBox::~CListBox
EXTRN	?OnChildNotify@CListBox@@MAEHIIJPAJ@Z:PROC	; CListBox::OnChildNotify
EXTRN	??_ECListBox@@UAEPAXI@Z:PROC			; CListBox::`vector deleting destructor'
EXTRN	?AfxMessageBox@@YGHPBDII@Z:PROC			; AfxMessageBox
EXTRN	??_ECDropList@@UAEPAXI@Z:PROC			; CDropList::`vector deleting destructor'
EXTRN	??_ECListWnd@@UAEPAXI@Z:PROC			; CListWnd::`vector deleting destructor'
EXTRN	??_ECDropButton@@UAEPAXI@Z:PROC			; CDropButton::`vector deleting destructor'
EXTRN	@__security_check_cookie@4:PROC
EXTRN	___CxxFrameHandler3:PROC
EXTRN	??_7type_info@@6B@:QWORD			; type_info::`vftable'
EXTRN	___security_cookie:DWORD
;	COMDAT ??_R1A@?0A@EA@CDropButton@@8
rdata$r	SEGMENT
??_R1A@?0A@EA@CDropButton@@8 DD FLAT:??_R0?AVCDropButton@@@8 ; CDropButton::`RTTI Base Class Descriptor at (0,-1,0,64)'
	DD	04H
	DD	00H
	DD	0ffffffffH
	DD	00H
	DD	040H
	DD	FLAT:??_R3CDropButton@@8
rdata$r	ENDS
;	COMDAT ??_R2CDropButton@@8
rdata$r	SEGMENT
??_R2CDropButton@@8 DD FLAT:??_R1A@?0A@EA@CDropButton@@8 ; CDropButton::`RTTI Base Class Array'
	DD	FLAT:??_R1A@?0A@EA@CButton@@8
	DD	FLAT:??_R1A@?0A@EA@CWnd@@8
	DD	FLAT:??_R1A@?0A@EA@CCmdTarget@@8
	DD	FLAT:??_R1A@?0A@EA@CObject@@8
rdata$r	ENDS
;	COMDAT ??_R3CDropButton@@8
rdata$r	SEGMENT
??_R3CDropButton@@8 DD 00H				; CDropButton::`RTTI Class Hierarchy Descriptor'
	DD	00H
	DD	05H
	DD	FLAT:??_R2CDropButton@@8
rdata$r	ENDS
;	COMDAT ??_R0?AVCDropButton@@@8
data$rs	SEGMENT
??_R0?AVCDropButton@@@8 DD FLAT:??_7type_info@@6B@	; CDropButton `RTTI Type Descriptor'
	DD	00H
	DB	'.?AVCDropButton@@', 00H
data$rs	ENDS
;	COMDAT ??_R4CDropButton@@6B@
rdata$r	SEGMENT
??_R4CDropButton@@6B@ DD 00H				; CDropButton::`RTTI Complete Object Locator'
	DD	00H
	DD	00H
	DD	FLAT:??_R0?AVCDropButton@@@8
	DD	FLAT:??_R3CDropButton@@8
rdata$r	ENDS
;	COMDAT ??_R1A@?0A@EA@CListWnd@@8
rdata$r	SEGMENT
??_R1A@?0A@EA@CListWnd@@8 DD FLAT:??_R0?AVCListWnd@@@8	; CListWnd::`RTTI Base Class Descriptor at (0,-1,0,64)'
	DD	03H
	DD	00H
	DD	0ffffffffH
	DD	00H
	DD	040H
	DD	FLAT:??_R3CListWnd@@8
rdata$r	ENDS
;	COMDAT ??_R2CListWnd@@8
rdata$r	SEGMENT
??_R2CListWnd@@8 DD FLAT:??_R1A@?0A@EA@CListWnd@@8	; CListWnd::`RTTI Base Class Array'
	DD	FLAT:??_R1A@?0A@EA@CWnd@@8
	DD	FLAT:??_R1A@?0A@EA@CCmdTarget@@8
	DD	FLAT:??_R1A@?0A@EA@CObject@@8
rdata$r	ENDS
;	COMDAT ??_R3CListWnd@@8
rdata$r	SEGMENT
??_R3CListWnd@@8 DD 00H					; CListWnd::`RTTI Class Hierarchy Descriptor'
	DD	00H
	DD	04H
	DD	FLAT:??_R2CListWnd@@8
rdata$r	ENDS
;	COMDAT ??_R0?AVCListWnd@@@8
data$rs	SEGMENT
??_R0?AVCListWnd@@@8 DD FLAT:??_7type_info@@6B@		; CListWnd `RTTI Type Descriptor'
	DD	00H
	DB	'.?AVCListWnd@@', 00H
data$rs	ENDS
;	COMDAT ??_R4CListWnd@@6B@
rdata$r	SEGMENT
??_R4CListWnd@@6B@ DD 00H				; CListWnd::`RTTI Complete Object Locator'
	DD	00H
	DD	00H
	DD	FLAT:??_R0?AVCListWnd@@@8
	DD	FLAT:??_R3CListWnd@@8
rdata$r	ENDS
;	COMDAT ??_R1A@?0A@EA@CDropList@@8
rdata$r	SEGMENT
??_R1A@?0A@EA@CDropList@@8 DD FLAT:??_R0?AVCDropList@@@8 ; CDropList::`RTTI Base Class Descriptor at (0,-1,0,64)'
	DD	04H
	DD	00H
	DD	0ffffffffH
	DD	00H
	DD	040H
	DD	FLAT:??_R3CDropList@@8
rdata$r	ENDS
;	COMDAT ??_R2CDropList@@8
rdata$r	SEGMENT
??_R2CDropList@@8 DD FLAT:??_R1A@?0A@EA@CDropList@@8	; CDropList::`RTTI Base Class Array'
	DD	FLAT:??_R1A@?0A@EA@CListBox@@8
	DD	FLAT:??_R1A@?0A@EA@CWnd@@8
	DD	FLAT:??_R1A@?0A@EA@CCmdTarget@@8
	DD	FLAT:??_R1A@?0A@EA@CObject@@8
rdata$r	ENDS
;	COMDAT ??_R3CDropList@@8
rdata$r	SEGMENT
??_R3CDropList@@8 DD 00H				; CDropList::`RTTI Class Hierarchy Descriptor'
	DD	00H
	DD	05H
	DD	FLAT:??_R2CDropList@@8
rdata$r	ENDS
;	COMDAT ??_R0?AVCDropList@@@8
data$rs	SEGMENT
??_R0?AVCDropList@@@8 DD FLAT:??_7type_info@@6B@	; CDropList `RTTI Type Descriptor'
	DD	00H
	DB	'.?AVCDropList@@', 00H
data$rs	ENDS
;	COMDAT ??_R4CDropList@@6B@
rdata$r	SEGMENT
??_R4CDropList@@6B@ DD 00H				; CDropList::`RTTI Complete Object Locator'
	DD	00H
	DD	00H
	DD	FLAT:??_R0?AVCDropList@@@8
	DD	FLAT:??_R3CDropList@@8
rdata$r	ENDS
;	COMDAT ??_C@_05MPFIAJAP@Arial@
CONST	SEGMENT
??_C@_05MPFIAJAP@Arial@ DB 'Arial', 00H			; `string'
CONST	ENDS
;	COMDAT ?messageMap@?1??GetThisMessageMap@CDropButton@@KGPBUAFX_MSGMAP@@XZ@4U3@B
CONST	SEGMENT
?messageMap@?1??GetThisMessageMap@CDropButton@@KGPBUAFX_MSGMAP@@XZ@4U3@B DD FLAT:?GetThisMessageMap@CWnd@@KGPBUAFX_MSGMAP@@XZ ; `CDropButton::GetThisMessageMap'::`2'::messageMap
	DD	FLAT:?_messageEntries@?1??GetThisMessageMap@CDropButton@@KGPBUAFX_MSGMAP@@XZ@4QBUAFX_MSGMAP_ENTRY@@B
CONST	ENDS
;	COMDAT ?_messageEntries@?1??GetThisMessageMap@CDropButton@@KGPBUAFX_MSGMAP@@XZ@4QBUAFX_MSGMAP_ENTRY@@B
CONST	SEGMENT
?_messageEntries@?1??GetThisMessageMap@CDropButton@@KGPBUAFX_MSGMAP@@XZ@4QBUAFX_MSGMAP_ENTRY@@B DD 0200H ; `CDropButton::GetThisMessageMap'::`2'::_messageEntries
	DD	00H
	DD	00H
	DD	00H
	DD	036H
	DD	FLAT:?OnMouseMove@CDropButton@@IAEXIVCPoint@@@Z
	DD	0201H
	DD	00H
	DD	00H
	DD	00H
	DD	036H
	DD	FLAT:?OnLButtonDown@CDropButton@@IAEXIVCPoint@@@Z
	DD	07H
	DD	00H
	DD	00H
	DD	00H
	DD	024H
	DD	FLAT:?OnSetFocus@CDropButton@@IAEXPAVCWnd@@@Z
	DD	05H
	DD	00H
	DD	00H
	DD	00H
	DD	01aH
	DD	FLAT:?OnSize@CDropButton@@IAEXIHH@Z
	DD	0466H
	DD	00H
	DD	00H
	DD	00H
	DD	0eH
	DD	FLAT:?OnSelectionChanged@CDropButton@@IAEJIJ@Z
	DD	00H
	DD	00H
	DD	00H
	DD	00H
	DD	00H
	DD	00H
CONST	ENDS
;	COMDAT ?messageMap@?1??GetThisMessageMap@CListWnd@@KGPBUAFX_MSGMAP@@XZ@4U3@B
CONST	SEGMENT
?messageMap@?1??GetThisMessageMap@CListWnd@@KGPBUAFX_MSGMAP@@XZ@4U3@B DD FLAT:?GetThisMessageMap@CWnd@@KGPBUAFX_MSGMAP@@XZ ; `CListWnd::GetThisMessageMap'::`2'::messageMap
	DD	FLAT:?_messageEntries@?1??GetThisMessageMap@CListWnd@@KGPBUAFX_MSGMAP@@XZ@4QBUAFX_MSGMAP_ENTRY@@B
CONST	ENDS
;	COMDAT ?_messageEntries@?1??GetThisMessageMap@CListWnd@@KGPBUAFX_MSGMAP@@XZ@4QBUAFX_MSGMAP_ENTRY@@B
CONST	SEGMENT
?_messageEntries@?1??GetThisMessageMap@CListWnd@@KGPBUAFX_MSGMAP@@XZ@4QBUAFX_MSGMAP_ENTRY@@B DD 05H ; `CListWnd::GetThisMessageMap'::`2'::_messageEntries
	DD	00H
	DD	00H
	DD	00H
	DD	01aH
	DD	FLAT:?OnSize@CListWnd@@IAEXIHH@Z
	DD	018H
	DD	00H
	DD	00H
	DD	00H
	DD	016H
	DD	FLAT:?OnShowWindow@CListWnd@@IAEXHI@Z
	DD	0111H
	DD	01H
	DD	0465H
	DD	0465H
	DD	03aH
	DD	FLAT:?OnSelectionChange@CListWnd@@IAEXXZ
	DD	00H
	DD	00H
	DD	00H
	DD	00H
	DD	00H
	DD	00H
CONST	ENDS
;	COMDAT ?messageMap@?1??GetThisMessageMap@CDropList@@KGPBUAFX_MSGMAP@@XZ@4U3@B
CONST	SEGMENT
?messageMap@?1??GetThisMessageMap@CDropList@@KGPBUAFX_MSGMAP@@XZ@4U3@B DD FLAT:?GetThisMessageMap@CWnd@@KGPBUAFX_MSGMAP@@XZ ; `CDropList::GetThisMessageMap'::`2'::messageMap
	DD	FLAT:?_messageEntries@?1??GetThisMessageMap@CDropList@@KGPBUAFX_MSGMAP@@XZ@4QBUAFX_MSGMAP_ENTRY@@B
CONST	ENDS
;	COMDAT ?_messageEntries@?1??GetThisMessageMap@CDropList@@KGPBUAFX_MSGMAP@@XZ@4QBUAFX_MSGMAP_ENTRY@@B
CONST	SEGMENT
?_messageEntries@?1??GetThisMessageMap@CDropList@@KGPBUAFX_MSGMAP@@XZ@4QBUAFX_MSGMAP_ENTRY@@B DD 01H ; `CDropList::GetThisMessageMap'::`2'::_messageEntries
	DD	00H
	DD	00H
	DD	00H
	DD	0dH
	DD	FLAT:?OnCreate@CDropList@@IAEHPAUtagCREATESTRUCTA@@@Z
	DD	0bc19H
	DD	00H
	DD	00H
	DD	00H
	DD	09H
	DD	FLAT:?CtlColor@CDropList@@IAEPAUHBRUSH__@@PAVCDC@@I@Z
	DD	08H
	DD	00H
	DD	00H
	DD	00H
	DD	024H
	DD	FLAT:?OnKillFocus@CDropList@@IAEXPAVCWnd@@@Z
	DD	05H
	DD	00H
	DD	00H
	DD	00H
	DD	01aH
	DD	FLAT:?OnSize@CDropList@@IAEXIHH@Z
	DD	00H
	DD	00H
	DD	00H
	DD	00H
	DD	00H
	DD	00H
CONST	ENDS
;	COMDAT ??_7CDropButton@@6B@
CONST	SEGMENT
??_7CDropButton@@6B@ DD FLAT:??_R4CDropButton@@6B@	; CDropButton::`vftable'
	DD	FLAT:?GetRuntimeClass@CButton@@UBEPAUCRuntimeClass@@XZ
	DD	FLAT:??_ECDropButton@@UAEPAXI@Z
	DD	FLAT:?Serialize@CObject@@UAEXAAVCArchive@@@Z
	DD	FLAT:?AssertValid@CObject@@UBEXXZ
	DD	FLAT:?Dump@CObject@@UBEXAAVCDumpContext@@@Z
	DD	FLAT:?OnCmdMsg@CCmdTarget@@UAEHIHPAXPAUAFX_CMDHANDLERINFO@@@Z
	DD	FLAT:?OnFinalRelease@CWnd@@UAEXXZ
	DD	FLAT:?IsInvokeAllowed@CCmdTarget@@UAEHJ@Z
	DD	FLAT:?GetDispatchIID@CCmdTarget@@UAEHPAU_GUID@@@Z
	DD	FLAT:?GetTypeInfoCount@CCmdTarget@@UAEIXZ
	DD	FLAT:?GetTypeLibCache@CCmdTarget@@UAEPAVCTypeLibCache@@XZ
	DD	FLAT:?GetTypeLib@CCmdTarget@@UAEJKPAPAUITypeLib@@@Z
	DD	FLAT:?GetMessageMap@CDropButton@@MBEPBUAFX_MSGMAP@@XZ
	DD	FLAT:?GetCommandMap@CCmdTarget@@MBEPBUAFX_OLECMDMAP@@XZ
	DD	FLAT:?GetDispatchMap@CCmdTarget@@MBEPBUAFX_DISPMAP@@XZ
	DD	FLAT:?GetConnectionMap@CCmdTarget@@MBEPBUAFX_CONNECTIONMAP@@XZ
	DD	FLAT:?GetInterfaceMap@CWnd@@MBEPBUAFX_INTERFACEMAP@@XZ
	DD	FLAT:?GetEventSinkMap@CCmdTarget@@MBEPBUAFX_EVENTSINKMAP@@XZ
	DD	FLAT:?OnCreateAggregates@CCmdTarget@@UAEHXZ
	DD	FLAT:?GetInterfaceHook@CCmdTarget@@UAEPAUIUnknown@@PBX@Z
	DD	FLAT:?GetExtraConnectionPoints@CCmdTarget@@MAEHPAVCPtrArray@@@Z
	DD	FLAT:?GetConnectionHook@CCmdTarget@@MAEPAUIConnectionPoint@@ABU_GUID@@@Z
	DD	FLAT:?PreSubclassWindow@CWnd@@UAEXXZ
	DD	FLAT:?Create@CWnd@@UAEHPBD0KABUtagRECT@@PAV1@IPAUCCreateContext@@@Z
	DD	FLAT:?CreateEx@CWnd@@UAEHKPBD0KABUtagRECT@@PAV1@IPAX@Z
	DD	FLAT:?CreateEx@CWnd@@UAEHKPBD0KHHHHPAUHWND__@@PAUHMENU__@@PAX@Z
	DD	FLAT:?DestroyWindow@CWnd@@UAEHXZ
	DD	FLAT:?PreCreateWindow@CWnd@@UAEHAAUtagCREATESTRUCTA@@@Z
	DD	FLAT:?CalcWindowRect@CWnd@@UAEXPAUtagRECT@@I@Z
	DD	FLAT:?GetMenu@CWnd@@UBEPAVCMenu@@XZ
	DD	FLAT:?SetMenu@CWnd@@UAEHPAVCMenu@@@Z
	DD	FLAT:?OnToolHitTest@CWnd@@UBEHVCPoint@@PAUtagTOOLINFOA@@@Z
	DD	FLAT:?GetScrollBarCtrl@CWnd@@UBEPAVCScrollBar@@H@Z
	DD	FLAT:?WinHelpA@CWnd@@UAEXKI@Z
	DD	FLAT:?HtmlHelpA@CWnd@@UAEXKI@Z
	DD	FLAT:?WinHelpInternal@CWnd@@UAEXKI@Z
	DD	FLAT:?ContinueModal@CWnd@@UAEHXZ
	DD	FLAT:?EndModalLoop@CWnd@@UAEXH@Z
	DD	FLAT:?OnDrawIconicThumbnailOrLivePreview@CWnd@@UAEXAAVCDC@@VCRect@@VCSize@@HAAH@Z
	DD	FLAT:?EnsureStdObj@CWnd@@UAEJXZ
	DD	FLAT:?get_accParent@CWnd@@UAEJPAPAUIDispatch@@@Z
	DD	FLAT:?get_accChildCount@CWnd@@UAEJPAJ@Z
	DD	FLAT:?get_accChild@CWnd@@UAEJUtagVARIANT@@PAPAUIDispatch@@@Z
	DD	FLAT:?get_accName@CWnd@@UAEJUtagVARIANT@@PAPA_W@Z
	DD	FLAT:?get_accValue@CWnd@@UAEJUtagVARIANT@@PAPA_W@Z
	DD	FLAT:?get_accDescription@CWnd@@UAEJUtagVARIANT@@PAPA_W@Z
	DD	FLAT:?get_accRole@CWnd@@UAEJUtagVARIANT@@PAU2@@Z
	DD	FLAT:?get_accState@CWnd@@UAEJUtagVARIANT@@PAU2@@Z
	DD	FLAT:?get_accHelp@CWnd@@UAEJUtagVARIANT@@PAPA_W@Z
	DD	FLAT:?get_accHelpTopic@CWnd@@UAEJPAPA_WUtagVARIANT@@PAJ@Z
	DD	FLAT:?get_accKeyboardShortcut@CWnd@@UAEJUtagVARIANT@@PAPA_W@Z
	DD	FLAT:?get_accFocus@CWnd@@UAEJPAUtagVARIANT@@@Z
	DD	FLAT:?get_accSelection@CWnd@@UAEJPAUtagVARIANT@@@Z
	DD	FLAT:?get_accDefaultAction@CWnd@@UAEJUtagVARIANT@@PAPA_W@Z
	DD	FLAT:?accSelect@CWnd@@UAEJJUtagVARIANT@@@Z
	DD	FLAT:?accLocation@CWnd@@UAEJPAJ000UtagVARIANT@@@Z
	DD	FLAT:?accNavigate@CWnd@@UAEJJUtagVARIANT@@PAU2@@Z
	DD	FLAT:?accHitTest@CWnd@@UAEJJJPAUtagVARIANT@@@Z
	DD	FLAT:?accDoDefaultAction@CWnd@@UAEJUtagVARIANT@@@Z
	DD	FLAT:?put_accName@CWnd@@UAEJUtagVARIANT@@PA_W@Z
	DD	FLAT:?put_accValue@CWnd@@UAEJUtagVARIANT@@PA_W@Z
	DD	FLAT:?SetProxy@CWnd@@UAEJPAUIAccessibleProxy@@@Z
	DD	FLAT:?CreateAccessibleProxy@CWnd@@UAEJIJPAJ@Z
	DD	FLAT:?OnCommand@CWnd@@MAEHIJ@Z
	DD	FLAT:?OnNotify@CWnd@@MAEHIJPAJ@Z
	DD	FLAT:?GetSuperWndProcAddr@CWnd@@MAEPAP6GJPAUHWND__@@IIJ@ZXZ
	DD	FLAT:?DoDataExchange@CWnd@@MAEXPAVCDataExchange@@@Z
	DD	FLAT:?BeginModalState@CWnd@@UAEXXZ
	DD	FLAT:?EndModalState@CWnd@@UAEXXZ
	DD	FLAT:?PreTranslateMessage@CWnd@@UAEHPAUtagMSG@@@Z
	DD	FLAT:?OnAmbientProperty@CWnd@@UAEHPAVCOleControlSite@@JPAUtagVARIANT@@@Z
	DD	FLAT:?WindowProc@CWnd@@MAEJIIJ@Z
	DD	FLAT:?OnWndMsg@CWnd@@MAEHIIJPAJ@Z
	DD	FLAT:?DefWindowProcA@CWnd@@MAEJIIJ@Z
	DD	FLAT:?PostNcDestroy@CWnd@@MAEXXZ
	DD	FLAT:?OnChildNotify@CButton@@MAEHIIJPAJ@Z
	DD	FLAT:?OnTouchInputs@CWnd@@MAEHIPAUtagTOUCHINPUT@@@Z
	DD	FLAT:?OnTouchInput@CWnd@@MAEHVCPoint@@HHPAUtagTOUCHINPUT@@@Z
	DD	FLAT:?GetGestureStatus@CWnd@@MAEKVCPoint@@@Z
	DD	FLAT:?OnGestureZoom@CWnd@@MAEHVCPoint@@J@Z
	DD	FLAT:?OnGesturePan@CWnd@@MAEHVCPoint@@0@Z
	DD	FLAT:?OnGestureRotate@CWnd@@MAEHVCPoint@@N@Z
	DD	FLAT:?OnGestureTwoFingerTap@CWnd@@MAEHVCPoint@@@Z
	DD	FLAT:?OnGesturePressAndTap@CWnd@@MAEHVCPoint@@J@Z
	DD	FLAT:?ResizeDynamicLayout@CWnd@@MAEXXZ
	DD	FLAT:?CheckAutoCenter@CWnd@@UAEHXZ
	DD	FLAT:?IsFrameWnd@CWnd@@UBEHXZ
	DD	FLAT:?CreateControlContainer@CWnd@@MAEHPAPAVCOleControlContainer@@@Z
	DD	FLAT:?CreateControlSite@CWnd@@MAEHPAVCOleControlContainer@@PAPAVCOleControlSite@@IABU_GUID@@@Z
	DD	FLAT:?SetOccDialogInfo@CWnd@@MAEHPAU_AFX_OCC_DIALOG_INFO@@@Z
	DD	FLAT:?GetOccDialogInfo@CWnd@@MAEPAU_AFX_OCC_DIALOG_INFO@@XZ
	DD	FLAT:?Create@CButton@@UAEHPBDKABUtagRECT@@PAVCWnd@@I@Z
	DD	FLAT:?DrawItem@CDropButton@@UAEXPAUtagDRAWITEMSTRUCT@@@Z
	DD	FLAT:?MeasureItem@CDropButton@@UAEXPAUtagMEASUREITEMSTRUCT@@@Z
CONST	ENDS
;	COMDAT ??_7CListWnd@@6B@
CONST	SEGMENT
??_7CListWnd@@6B@ DD FLAT:??_R4CListWnd@@6B@		; CListWnd::`vftable'
	DD	FLAT:?GetRuntimeClass@CWnd@@UBEPAUCRuntimeClass@@XZ
	DD	FLAT:??_ECListWnd@@UAEPAXI@Z
	DD	FLAT:?Serialize@CObject@@UAEXAAVCArchive@@@Z
	DD	FLAT:?AssertValid@CObject@@UBEXXZ
	DD	FLAT:?Dump@CObject@@UBEXAAVCDumpContext@@@Z
	DD	FLAT:?OnCmdMsg@CCmdTarget@@UAEHIHPAXPAUAFX_CMDHANDLERINFO@@@Z
	DD	FLAT:?OnFinalRelease@CWnd@@UAEXXZ
	DD	FLAT:?IsInvokeAllowed@CCmdTarget@@UAEHJ@Z
	DD	FLAT:?GetDispatchIID@CCmdTarget@@UAEHPAU_GUID@@@Z
	DD	FLAT:?GetTypeInfoCount@CCmdTarget@@UAEIXZ
	DD	FLAT:?GetTypeLibCache@CCmdTarget@@UAEPAVCTypeLibCache@@XZ
	DD	FLAT:?GetTypeLib@CCmdTarget@@UAEJKPAPAUITypeLib@@@Z
	DD	FLAT:?GetMessageMap@CListWnd@@MBEPBUAFX_MSGMAP@@XZ
	DD	FLAT:?GetCommandMap@CCmdTarget@@MBEPBUAFX_OLECMDMAP@@XZ
	DD	FLAT:?GetDispatchMap@CCmdTarget@@MBEPBUAFX_DISPMAP@@XZ
	DD	FLAT:?GetConnectionMap@CCmdTarget@@MBEPBUAFX_CONNECTIONMAP@@XZ
	DD	FLAT:?GetInterfaceMap@CWnd@@MBEPBUAFX_INTERFACEMAP@@XZ
	DD	FLAT:?GetEventSinkMap@CCmdTarget@@MBEPBUAFX_EVENTSINKMAP@@XZ
	DD	FLAT:?OnCreateAggregates@CCmdTarget@@UAEHXZ
	DD	FLAT:?GetInterfaceHook@CCmdTarget@@UAEPAUIUnknown@@PBX@Z
	DD	FLAT:?GetExtraConnectionPoints@CCmdTarget@@MAEHPAVCPtrArray@@@Z
	DD	FLAT:?GetConnectionHook@CCmdTarget@@MAEPAUIConnectionPoint@@ABU_GUID@@@Z
	DD	FLAT:?PreSubclassWindow@CWnd@@UAEXXZ
	DD	FLAT:?Create@CWnd@@UAEHPBD0KABUtagRECT@@PAV1@IPAUCCreateContext@@@Z
	DD	FLAT:?CreateEx@CWnd@@UAEHKPBD0KABUtagRECT@@PAV1@IPAX@Z
	DD	FLAT:?CreateEx@CWnd@@UAEHKPBD0KHHHHPAUHWND__@@PAUHMENU__@@PAX@Z
	DD	FLAT:?DestroyWindow@CWnd@@UAEHXZ
	DD	FLAT:?PreCreateWindow@CWnd@@UAEHAAUtagCREATESTRUCTA@@@Z
	DD	FLAT:?CalcWindowRect@CWnd@@UAEXPAUtagRECT@@I@Z
	DD	FLAT:?GetMenu@CWnd@@UBEPAVCMenu@@XZ
	DD	FLAT:?SetMenu@CWnd@@UAEHPAVCMenu@@@Z
	DD	FLAT:?OnToolHitTest@CWnd@@UBEHVCPoint@@PAUtagTOOLINFOA@@@Z
	DD	FLAT:?GetScrollBarCtrl@CWnd@@UBEPAVCScrollBar@@H@Z
	DD	FLAT:?WinHelpA@CWnd@@UAEXKI@Z
	DD	FLAT:?HtmlHelpA@CWnd@@UAEXKI@Z
	DD	FLAT:?WinHelpInternal@CWnd@@UAEXKI@Z
	DD	FLAT:?ContinueModal@CWnd@@UAEHXZ
	DD	FLAT:?EndModalLoop@CWnd@@UAEXH@Z
	DD	FLAT:?OnDrawIconicThumbnailOrLivePreview@CWnd@@UAEXAAVCDC@@VCRect@@VCSize@@HAAH@Z
	DD	FLAT:?EnsureStdObj@CWnd@@UAEJXZ
	DD	FLAT:?get_accParent@CWnd@@UAEJPAPAUIDispatch@@@Z
	DD	FLAT:?get_accChildCount@CWnd@@UAEJPAJ@Z
	DD	FLAT:?get_accChild@CWnd@@UAEJUtagVARIANT@@PAPAUIDispatch@@@Z
	DD	FLAT:?get_accName@CWnd@@UAEJUtagVARIANT@@PAPA_W@Z
	DD	FLAT:?get_accValue@CWnd@@UAEJUtagVARIANT@@PAPA_W@Z
	DD	FLAT:?get_accDescription@CWnd@@UAEJUtagVARIANT@@PAPA_W@Z
	DD	FLAT:?get_accRole@CWnd@@UAEJUtagVARIANT@@PAU2@@Z
	DD	FLAT:?get_accState@CWnd@@UAEJUtagVARIANT@@PAU2@@Z
	DD	FLAT:?get_accHelp@CWnd@@UAEJUtagVARIANT@@PAPA_W@Z
	DD	FLAT:?get_accHelpTopic@CWnd@@UAEJPAPA_WUtagVARIANT@@PAJ@Z
	DD	FLAT:?get_accKeyboardShortcut@CWnd@@UAEJUtagVARIANT@@PAPA_W@Z
	DD	FLAT:?get_accFocus@CWnd@@UAEJPAUtagVARIANT@@@Z
	DD	FLAT:?get_accSelection@CWnd@@UAEJPAUtagVARIANT@@@Z
	DD	FLAT:?get_accDefaultAction@CWnd@@UAEJUtagVARIANT@@PAPA_W@Z
	DD	FLAT:?accSelect@CWnd@@UAEJJUtagVARIANT@@@Z
	DD	FLAT:?accLocation@CWnd@@UAEJPAJ000UtagVARIANT@@@Z
	DD	FLAT:?accNavigate@CWnd@@UAEJJUtagVARIANT@@PAU2@@Z
	DD	FLAT:?accHitTest@CWnd@@UAEJJJPAUtagVARIANT@@@Z
	DD	FLAT:?accDoDefaultAction@CWnd@@UAEJUtagVARIANT@@@Z
	DD	FLAT:?put_accName@CWnd@@UAEJUtagVARIANT@@PA_W@Z
	DD	FLAT:?put_accValue@CWnd@@UAEJUtagVARIANT@@PA_W@Z
	DD	FLAT:?SetProxy@CWnd@@UAEJPAUIAccessibleProxy@@@Z
	DD	FLAT:?CreateAccessibleProxy@CWnd@@UAEJIJPAJ@Z
	DD	FLAT:?OnCommand@CWnd@@MAEHIJ@Z
	DD	FLAT:?OnNotify@CWnd@@MAEHIJPAJ@Z
	DD	FLAT:?GetSuperWndProcAddr@CWnd@@MAEPAP6GJPAUHWND__@@IIJ@ZXZ
	DD	FLAT:?DoDataExchange@CWnd@@MAEXPAVCDataExchange@@@Z
	DD	FLAT:?BeginModalState@CWnd@@UAEXXZ
	DD	FLAT:?EndModalState@CWnd@@UAEXXZ
	DD	FLAT:?PreTranslateMessage@CWnd@@UAEHPAUtagMSG@@@Z
	DD	FLAT:?OnAmbientProperty@CWnd@@UAEHPAVCOleControlSite@@JPAUtagVARIANT@@@Z
	DD	FLAT:?WindowProc@CWnd@@MAEJIIJ@Z
	DD	FLAT:?OnWndMsg@CWnd@@MAEHIIJPAJ@Z
	DD	FLAT:?DefWindowProcA@CWnd@@MAEJIIJ@Z
	DD	FLAT:?PostNcDestroy@CWnd@@MAEXXZ
	DD	FLAT:?OnChildNotify@CWnd@@MAEHIIJPAJ@Z
	DD	FLAT:?OnTouchInputs@CWnd@@MAEHIPAUtagTOUCHINPUT@@@Z
	DD	FLAT:?OnTouchInput@CWnd@@MAEHVCPoint@@HHPAUtagTOUCHINPUT@@@Z
	DD	FLAT:?GetGestureStatus@CWnd@@MAEKVCPoint@@@Z
	DD	FLAT:?OnGestureZoom@CWnd@@MAEHVCPoint@@J@Z
	DD	FLAT:?OnGesturePan@CWnd@@MAEHVCPoint@@0@Z
	DD	FLAT:?OnGestureRotate@CWnd@@MAEHVCPoint@@N@Z
	DD	FLAT:?OnGestureTwoFingerTap@CWnd@@MAEHVCPoint@@@Z
	DD	FLAT:?OnGesturePressAndTap@CWnd@@MAEHVCPoint@@J@Z
	DD	FLAT:?ResizeDynamicLayout@CWnd@@MAEXXZ
	DD	FLAT:?CheckAutoCenter@CWnd@@UAEHXZ
	DD	FLAT:?IsFrameWnd@CWnd@@UBEHXZ
	DD	FLAT:?CreateControlContainer@CWnd@@MAEHPAPAVCOleControlContainer@@@Z
	DD	FLAT:?CreateControlSite@CWnd@@MAEHPAVCOleControlContainer@@PAPAVCOleControlSite@@IABU_GUID@@@Z
	DD	FLAT:?SetOccDialogInfo@CWnd@@MAEHPAU_AFX_OCC_DIALOG_INFO@@@Z
	DD	FLAT:?GetOccDialogInfo@CWnd@@MAEPAU_AFX_OCC_DIALOG_INFO@@XZ
CONST	ENDS
;	COMDAT ??_7CDropList@@6B@
CONST	SEGMENT
??_7CDropList@@6B@ DD FLAT:??_R4CDropList@@6B@		; CDropList::`vftable'
	DD	FLAT:?GetRuntimeClass@CListBox@@UBEPAUCRuntimeClass@@XZ
	DD	FLAT:??_ECDropList@@UAEPAXI@Z
	DD	FLAT:?Serialize@CObject@@UAEXAAVCArchive@@@Z
	DD	FLAT:?AssertValid@CObject@@UBEXXZ
	DD	FLAT:?Dump@CObject@@UBEXAAVCDumpContext@@@Z
	DD	FLAT:?OnCmdMsg@CCmdTarget@@UAEHIHPAXPAUAFX_CMDHANDLERINFO@@@Z
	DD	FLAT:?OnFinalRelease@CWnd@@UAEXXZ
	DD	FLAT:?IsInvokeAllowed@CCmdTarget@@UAEHJ@Z
	DD	FLAT:?GetDispatchIID@CCmdTarget@@UAEHPAU_GUID@@@Z
	DD	FLAT:?GetTypeInfoCount@CCmdTarget@@UAEIXZ
	DD	FLAT:?GetTypeLibCache@CCmdTarget@@UAEPAVCTypeLibCache@@XZ
	DD	FLAT:?GetTypeLib@CCmdTarget@@UAEJKPAPAUITypeLib@@@Z
	DD	FLAT:?GetMessageMap@CDropList@@MBEPBUAFX_MSGMAP@@XZ
	DD	FLAT:?GetCommandMap@CCmdTarget@@MBEPBUAFX_OLECMDMAP@@XZ
	DD	FLAT:?GetDispatchMap@CCmdTarget@@MBEPBUAFX_DISPMAP@@XZ
	DD	FLAT:?GetConnectionMap@CCmdTarget@@MBEPBUAFX_CONNECTIONMAP@@XZ
	DD	FLAT:?GetInterfaceMap@CWnd@@MBEPBUAFX_INTERFACEMAP@@XZ
	DD	FLAT:?GetEventSinkMap@CCmdTarget@@MBEPBUAFX_EVENTSINKMAP@@XZ
	DD	FLAT:?OnCreateAggregates@CCmdTarget@@UAEHXZ
	DD	FLAT:?GetInterfaceHook@CCmdTarget@@UAEPAUIUnknown@@PBX@Z
	DD	FLAT:?GetExtraConnectionPoints@CCmdTarget@@MAEHPAVCPtrArray@@@Z
	DD	FLAT:?GetConnectionHook@CCmdTarget@@MAEPAUIConnectionPoint@@ABU_GUID@@@Z
	DD	FLAT:?PreSubclassWindow@CWnd@@UAEXXZ
	DD	FLAT:?Create@CWnd@@UAEHPBD0KABUtagRECT@@PAV1@IPAUCCreateContext@@@Z
	DD	FLAT:?CreateEx@CWnd@@UAEHKPBD0KABUtagRECT@@PAV1@IPAX@Z
	DD	FLAT:?CreateEx@CWnd@@UAEHKPBD0KHHHHPAUHWND__@@PAUHMENU__@@PAX@Z
	DD	FLAT:?DestroyWindow@CWnd@@UAEHXZ
	DD	FLAT:?PreCreateWindow@CWnd@@UAEHAAUtagCREATESTRUCTA@@@Z
	DD	FLAT:?CalcWindowRect@CWnd@@UAEXPAUtagRECT@@I@Z
	DD	FLAT:?GetMenu@CWnd@@UBEPAVCMenu@@XZ
	DD	FLAT:?SetMenu@CWnd@@UAEHPAVCMenu@@@Z
	DD	FLAT:?OnToolHitTest@CWnd@@UBEHVCPoint@@PAUtagTOOLINFOA@@@Z
	DD	FLAT:?GetScrollBarCtrl@CWnd@@UBEPAVCScrollBar@@H@Z
	DD	FLAT:?WinHelpA@CWnd@@UAEXKI@Z
	DD	FLAT:?HtmlHelpA@CWnd@@UAEXKI@Z
	DD	FLAT:?WinHelpInternal@CWnd@@UAEXKI@Z
	DD	FLAT:?ContinueModal@CWnd@@UAEHXZ
	DD	FLAT:?EndModalLoop@CWnd@@UAEXH@Z
	DD	FLAT:?OnDrawIconicThumbnailOrLivePreview@CWnd@@UAEXAAVCDC@@VCRect@@VCSize@@HAAH@Z
	DD	FLAT:?EnsureStdObj@CWnd@@UAEJXZ
	DD	FLAT:?get_accParent@CWnd@@UAEJPAPAUIDispatch@@@Z
	DD	FLAT:?get_accChildCount@CWnd@@UAEJPAJ@Z
	DD	FLAT:?get_accChild@CWnd@@UAEJUtagVARIANT@@PAPAUIDispatch@@@Z
	DD	FLAT:?get_accName@CWnd@@UAEJUtagVARIANT@@PAPA_W@Z
	DD	FLAT:?get_accValue@CWnd@@UAEJUtagVARIANT@@PAPA_W@Z
	DD	FLAT:?get_accDescription@CWnd@@UAEJUtagVARIANT@@PAPA_W@Z
	DD	FLAT:?get_accRole@CWnd@@UAEJUtagVARIANT@@PAU2@@Z
	DD	FLAT:?get_accState@CWnd@@UAEJUtagVARIANT@@PAU2@@Z
	DD	FLAT:?get_accHelp@CWnd@@UAEJUtagVARIANT@@PAPA_W@Z
	DD	FLAT:?get_accHelpTopic@CWnd@@UAEJPAPA_WUtagVARIANT@@PAJ@Z
	DD	FLAT:?get_accKeyboardShortcut@CWnd@@UAEJUtagVARIANT@@PAPA_W@Z
	DD	FLAT:?get_accFocus@CWnd@@UAEJPAUtagVARIANT@@@Z
	DD	FLAT:?get_accSelection@CWnd@@UAEJPAUtagVARIANT@@@Z
	DD	FLAT:?get_accDefaultAction@CWnd@@UAEJUtagVARIANT@@PAPA_W@Z
	DD	FLAT:?accSelect@CWnd@@UAEJJUtagVARIANT@@@Z
	DD	FLAT:?accLocation@CWnd@@UAEJPAJ000UtagVARIANT@@@Z
	DD	FLAT:?accNavigate@CWnd@@UAEJJUtagVARIANT@@PAU2@@Z
	DD	FLAT:?accHitTest@CWnd@@UAEJJJPAUtagVARIANT@@@Z
	DD	FLAT:?accDoDefaultAction@CWnd@@UAEJUtagVARIANT@@@Z
	DD	FLAT:?put_accName@CWnd@@UAEJUtagVARIANT@@PA_W@Z
	DD	FLAT:?put_accValue@CWnd@@UAEJUtagVARIANT@@PA_W@Z
	DD	FLAT:?SetProxy@CWnd@@UAEJPAUIAccessibleProxy@@@Z
	DD	FLAT:?CreateAccessibleProxy@CWnd@@UAEJIJPAJ@Z
	DD	FLAT:?OnCommand@CWnd@@MAEHIJ@Z
	DD	FLAT:?OnNotify@CWnd@@MAEHIJPAJ@Z
	DD	FLAT:?GetSuperWndProcAddr@CWnd@@MAEPAP6GJPAUHWND__@@IIJ@ZXZ
	DD	FLAT:?DoDataExchange@CWnd@@MAEXPAVCDataExchange@@@Z
	DD	FLAT:?BeginModalState@CWnd@@UAEXXZ
	DD	FLAT:?EndModalState@CWnd@@UAEXXZ
	DD	FLAT:?PreTranslateMessage@CWnd@@UAEHPAUtagMSG@@@Z
	DD	FLAT:?OnAmbientProperty@CWnd@@UAEHPAVCOleControlSite@@JPAUtagVARIANT@@@Z
	DD	FLAT:?WindowProc@CWnd@@MAEJIIJ@Z
	DD	FLAT:?OnWndMsg@CWnd@@MAEHIIJPAJ@Z
	DD	FLAT:?DefWindowProcA@CWnd@@MAEJIIJ@Z
	DD	FLAT:?PostNcDestroy@CWnd@@MAEXXZ
	DD	FLAT:?OnChildNotify@CListBox@@MAEHIIJPAJ@Z
	DD	FLAT:?OnTouchInputs@CWnd@@MAEHIPAUtagTOUCHINPUT@@@Z
	DD	FLAT:?OnTouchInput@CWnd@@MAEHVCPoint@@HHPAUtagTOUCHINPUT@@@Z
	DD	FLAT:?GetGestureStatus@CWnd@@MAEKVCPoint@@@Z
	DD	FLAT:?OnGestureZoom@CWnd@@MAEHVCPoint@@J@Z
	DD	FLAT:?OnGesturePan@CWnd@@MAEHVCPoint@@0@Z
	DD	FLAT:?OnGestureRotate@CWnd@@MAEHVCPoint@@N@Z
	DD	FLAT:?OnGestureTwoFingerTap@CWnd@@MAEHVCPoint@@@Z
	DD	FLAT:?OnGesturePressAndTap@CWnd@@MAEHVCPoint@@J@Z
	DD	FLAT:?ResizeDynamicLayout@CWnd@@MAEXXZ
	DD	FLAT:?CheckAutoCenter@CWnd@@UAEHXZ
	DD	FLAT:?IsFrameWnd@CWnd@@UBEHXZ
	DD	FLAT:?CreateControlContainer@CWnd@@MAEHPAPAVCOleControlContainer@@@Z
	DD	FLAT:?CreateControlSite@CWnd@@MAEHPAVCOleControlContainer@@PAPAVCOleControlSite@@IABU_GUID@@@Z
	DD	FLAT:?SetOccDialogInfo@CWnd@@MAEHPAU_AFX_OCC_DIALOG_INFO@@@Z
	DD	FLAT:?GetOccDialogInfo@CWnd@@MAEPAU_AFX_OCC_DIALOG_INFO@@XZ
	DD	FLAT:?Create@CListBox@@UAEHKABUtagRECT@@PAVCWnd@@I@Z
	DD	FLAT:?DrawItem@CDropList@@UAEXPAUtagDRAWITEMSTRUCT@@@Z
	DD	FLAT:?MeasureItem@CDropList@@UAEXPAUtagMEASUREITEMSTRUCT@@@Z
	DD	FLAT:?CompareItem@CListBox@@UAEHPAUtagCOMPAREITEMSTRUCT@@@Z
	DD	FLAT:?DeleteItem@CListBox@@UAEXPAUtagDELETEITEMSTRUCT@@@Z
	DD	FLAT:?VKeyToItem@CListBox@@UAEHII@Z
	DD	FLAT:?CharToItem@CListBox@@UAEHII@Z
CONST	ENDS
;	COMDAT ??_R1A@?0A@EA@CListBox@@8
rdata$r	SEGMENT
??_R1A@?0A@EA@CListBox@@8 DD FLAT:??_R0?AVCListBox@@@8	; CListBox::`RTTI Base Class Descriptor at (0,-1,0,64)'
	DD	03H
	DD	00H
	DD	0ffffffffH
	DD	00H
	DD	040H
	DD	FLAT:??_R3CListBox@@8
rdata$r	ENDS
;	COMDAT ??_R2CListBox@@8
rdata$r	SEGMENT
??_R2CListBox@@8 DD FLAT:??_R1A@?0A@EA@CListBox@@8	; CListBox::`RTTI Base Class Array'
	DD	FLAT:??_R1A@?0A@EA@CWnd@@8
	DD	FLAT:??_R1A@?0A@EA@CCmdTarget@@8
	DD	FLAT:??_R1A@?0A@EA@CObject@@8
rdata$r	ENDS
;	COMDAT ??_R3CListBox@@8
rdata$r	SEGMENT
??_R3CListBox@@8 DD 00H					; CListBox::`RTTI Class Hierarchy Descriptor'
	DD	00H
	DD	04H
	DD	FLAT:??_R2CListBox@@8
rdata$r	ENDS
;	COMDAT ??_R0?AVCListBox@@@8
data$rs	SEGMENT
??_R0?AVCListBox@@@8 DD FLAT:??_7type_info@@6B@		; CListBox `RTTI Type Descriptor'
	DD	00H
	DB	'.?AVCListBox@@', 00H
data$rs	ENDS
;	COMDAT ??_R4CListBox@@6B@
rdata$r	SEGMENT
??_R4CListBox@@6B@ DD 00H				; CListBox::`RTTI Complete Object Locator'
	DD	00H
	DD	00H
	DD	FLAT:??_R0?AVCListBox@@@8
	DD	FLAT:??_R3CListBox@@8
rdata$r	ENDS
;	COMDAT ??_R1A@?0A@EA@CButton@@8
rdata$r	SEGMENT
??_R1A@?0A@EA@CButton@@8 DD FLAT:??_R0?AVCButton@@@8	; CButton::`RTTI Base Class Descriptor at (0,-1,0,64)'
	DD	03H
	DD	00H
	DD	0ffffffffH
	DD	00H
	DD	040H
	DD	FLAT:??_R3CButton@@8
rdata$r	ENDS
;	COMDAT ??_R2CButton@@8
rdata$r	SEGMENT
??_R2CButton@@8 DD FLAT:??_R1A@?0A@EA@CButton@@8	; CButton::`RTTI Base Class Array'
	DD	FLAT:??_R1A@?0A@EA@CWnd@@8
	DD	FLAT:??_R1A@?0A@EA@CCmdTarget@@8
	DD	FLAT:??_R1A@?0A@EA@CObject@@8
rdata$r	ENDS
;	COMDAT ??_R3CButton@@8
rdata$r	SEGMENT
??_R3CButton@@8 DD 00H					; CButton::`RTTI Class Hierarchy Descriptor'
	DD	00H
	DD	04H
	DD	FLAT:??_R2CButton@@8
rdata$r	ENDS
;	COMDAT ??_R0?AVCButton@@@8
data$rs	SEGMENT
??_R0?AVCButton@@@8 DD FLAT:??_7type_info@@6B@		; CButton `RTTI Type Descriptor'
	DD	00H
	DB	'.?AVCButton@@', 00H
data$rs	ENDS
;	COMDAT ??_R4CButton@@6B@
rdata$r	SEGMENT
??_R4CButton@@6B@ DD 00H				; CButton::`RTTI Complete Object Locator'
	DD	00H
	DD	00H
	DD	FLAT:??_R0?AVCButton@@@8
	DD	FLAT:??_R3CButton@@8
rdata$r	ENDS
;	COMDAT ??_R2CCmdTarget@@8
rdata$r	SEGMENT
??_R2CCmdTarget@@8 DD FLAT:??_R1A@?0A@EA@CCmdTarget@@8	; CCmdTarget::`RTTI Base Class Array'
	DD	FLAT:??_R1A@?0A@EA@CObject@@8
rdata$r	ENDS
;	COMDAT ??_R3CCmdTarget@@8
rdata$r	SEGMENT
??_R3CCmdTarget@@8 DD 00H				; CCmdTarget::`RTTI Class Hierarchy Descriptor'
	DD	00H
	DD	02H
	DD	FLAT:??_R2CCmdTarget@@8
rdata$r	ENDS
;	COMDAT ??_R0?AVCCmdTarget@@@8
data$rs	SEGMENT
??_R0?AVCCmdTarget@@@8 DD FLAT:??_7type_info@@6B@	; CCmdTarget `RTTI Type Descriptor'
	DD	00H
	DB	'.?AVCCmdTarget@@', 00H
data$rs	ENDS
;	COMDAT ??_R1A@?0A@EA@CCmdTarget@@8
rdata$r	SEGMENT
??_R1A@?0A@EA@CCmdTarget@@8 DD FLAT:??_R0?AVCCmdTarget@@@8 ; CCmdTarget::`RTTI Base Class Descriptor at (0,-1,0,64)'
	DD	01H
	DD	00H
	DD	0ffffffffH
	DD	00H
	DD	040H
	DD	FLAT:??_R3CCmdTarget@@8
rdata$r	ENDS
;	COMDAT ??_R2CWnd@@8
rdata$r	SEGMENT
??_R2CWnd@@8 DD	FLAT:??_R1A@?0A@EA@CWnd@@8		; CWnd::`RTTI Base Class Array'
	DD	FLAT:??_R1A@?0A@EA@CCmdTarget@@8
	DD	FLAT:??_R1A@?0A@EA@CObject@@8
rdata$r	ENDS
;	COMDAT ??_R3CWnd@@8
rdata$r	SEGMENT
??_R3CWnd@@8 DD	00H					; CWnd::`RTTI Class Hierarchy Descriptor'
	DD	00H
	DD	03H
	DD	FLAT:??_R2CWnd@@8
rdata$r	ENDS
;	COMDAT ??_R0?AVCWnd@@@8
data$rs	SEGMENT
??_R0?AVCWnd@@@8 DD FLAT:??_7type_info@@6B@		; CWnd `RTTI Type Descriptor'
	DD	00H
	DB	'.?AVCWnd@@', 00H
data$rs	ENDS
;	COMDAT ??_R1A@?0A@EA@CWnd@@8
rdata$r	SEGMENT
??_R1A@?0A@EA@CWnd@@8 DD FLAT:??_R0?AVCWnd@@@8		; CWnd::`RTTI Base Class Descriptor at (0,-1,0,64)'
	DD	02H
	DD	00H
	DD	0ffffffffH
	DD	00H
	DD	040H
	DD	FLAT:??_R3CWnd@@8
rdata$r	ENDS
;	COMDAT ??_R1A@?0A@EA@CFont@@8
rdata$r	SEGMENT
??_R1A@?0A@EA@CFont@@8 DD FLAT:??_R0?AVCFont@@@8	; CFont::`RTTI Base Class Descriptor at (0,-1,0,64)'
	DD	02H
	DD	00H
	DD	0ffffffffH
	DD	00H
	DD	040H
	DD	FLAT:??_R3CFont@@8
rdata$r	ENDS
;	COMDAT ??_R2CFont@@8
rdata$r	SEGMENT
??_R2CFont@@8 DD FLAT:??_R1A@?0A@EA@CFont@@8		; CFont::`RTTI Base Class Array'
	DD	FLAT:??_R1A@?0A@EA@CGdiObject@@8
	DD	FLAT:??_R1A@?0A@EA@CObject@@8
rdata$r	ENDS
;	COMDAT ??_R3CFont@@8
rdata$r	SEGMENT
??_R3CFont@@8 DD 00H					; CFont::`RTTI Class Hierarchy Descriptor'
	DD	00H
	DD	03H
	DD	FLAT:??_R2CFont@@8
rdata$r	ENDS
;	COMDAT ??_R0?AVCFont@@@8
data$rs	SEGMENT
??_R0?AVCFont@@@8 DD FLAT:??_7type_info@@6B@		; CFont `RTTI Type Descriptor'
	DD	00H
	DB	'.?AVCFont@@', 00H
data$rs	ENDS
;	COMDAT ??_R4CFont@@6B@
rdata$r	SEGMENT
??_R4CFont@@6B@ DD 00H					; CFont::`RTTI Complete Object Locator'
	DD	00H
	DD	00H
	DD	FLAT:??_R0?AVCFont@@@8
	DD	FLAT:??_R3CFont@@8
rdata$r	ENDS
;	COMDAT ??_R1A@?0A@EA@CPen@@8
rdata$r	SEGMENT
??_R1A@?0A@EA@CPen@@8 DD FLAT:??_R0?AVCPen@@@8		; CPen::`RTTI Base Class Descriptor at (0,-1,0,64)'
	DD	02H
	DD	00H
	DD	0ffffffffH
	DD	00H
	DD	040H
	DD	FLAT:??_R3CPen@@8
rdata$r	ENDS
;	COMDAT ??_R2CPen@@8
rdata$r	SEGMENT
??_R2CPen@@8 DD	FLAT:??_R1A@?0A@EA@CPen@@8		; CPen::`RTTI Base Class Array'
	DD	FLAT:??_R1A@?0A@EA@CGdiObject@@8
	DD	FLAT:??_R1A@?0A@EA@CObject@@8
rdata$r	ENDS
;	COMDAT ??_R3CPen@@8
rdata$r	SEGMENT
??_R3CPen@@8 DD	00H					; CPen::`RTTI Class Hierarchy Descriptor'
	DD	00H
	DD	03H
	DD	FLAT:??_R2CPen@@8
rdata$r	ENDS
;	COMDAT ??_R0?AVCPen@@@8
data$rs	SEGMENT
??_R0?AVCPen@@@8 DD FLAT:??_7type_info@@6B@		; CPen `RTTI Type Descriptor'
	DD	00H
	DB	'.?AVCPen@@', 00H
data$rs	ENDS
;	COMDAT ??_R4CPen@@6B@
rdata$r	SEGMENT
??_R4CPen@@6B@ DD 00H					; CPen::`RTTI Complete Object Locator'
	DD	00H
	DD	00H
	DD	FLAT:??_R0?AVCPen@@@8
	DD	FLAT:??_R3CPen@@8
rdata$r	ENDS
;	COMDAT ??_R1A@?0A@EA@CGdiObject@@8
rdata$r	SEGMENT
??_R1A@?0A@EA@CGdiObject@@8 DD FLAT:??_R0?AVCGdiObject@@@8 ; CGdiObject::`RTTI Base Class Descriptor at (0,-1,0,64)'
	DD	01H
	DD	00H
	DD	0ffffffffH
	DD	00H
	DD	040H
	DD	FLAT:??_R3CGdiObject@@8
rdata$r	ENDS
;	COMDAT ??_R2CGdiObject@@8
rdata$r	SEGMENT
??_R2CGdiObject@@8 DD FLAT:??_R1A@?0A@EA@CGdiObject@@8	; CGdiObject::`RTTI Base Class Array'
	DD	FLAT:??_R1A@?0A@EA@CObject@@8
rdata$r	ENDS
;	COMDAT ??_R3CGdiObject@@8
rdata$r	SEGMENT
??_R3CGdiObject@@8 DD 00H				; CGdiObject::`RTTI Class Hierarchy Descriptor'
	DD	00H
	DD	02H
	DD	FLAT:??_R2CGdiObject@@8
rdata$r	ENDS
;	COMDAT ??_R0?AVCGdiObject@@@8
data$rs	SEGMENT
??_R0?AVCGdiObject@@@8 DD FLAT:??_7type_info@@6B@	; CGdiObject `RTTI Type Descriptor'
	DD	00H
	DB	'.?AVCGdiObject@@', 00H
data$rs	ENDS
;	COMDAT ??_R4CGdiObject@@6B@
rdata$r	SEGMENT
??_R4CGdiObject@@6B@ DD 00H				; CGdiObject::`RTTI Complete Object Locator'
	DD	00H
	DD	00H
	DD	FLAT:??_R0?AVCGdiObject@@@8
	DD	FLAT:??_R3CGdiObject@@8
rdata$r	ENDS
;	COMDAT ??_R1A@?0A@EA@CObject@@8
rdata$r	SEGMENT
??_R1A@?0A@EA@CObject@@8 DD FLAT:??_R0?AVCObject@@@8	; CObject::`RTTI Base Class Descriptor at (0,-1,0,64)'
	DD	00H
	DD	00H
	DD	0ffffffffH
	DD	00H
	DD	040H
	DD	FLAT:??_R3CObject@@8
rdata$r	ENDS
;	COMDAT ??_R2CObject@@8
rdata$r	SEGMENT
??_R2CObject@@8 DD FLAT:??_R1A@?0A@EA@CObject@@8	; CObject::`RTTI Base Class Array'
rdata$r	ENDS
;	COMDAT ??_R3CObject@@8
rdata$r	SEGMENT
??_R3CObject@@8 DD 00H					; CObject::`RTTI Class Hierarchy Descriptor'
	DD	00H
	DD	01H
	DD	FLAT:??_R2CObject@@8
rdata$r	ENDS
;	COMDAT ??_R0?AVCObject@@@8
data$rs	SEGMENT
??_R0?AVCObject@@@8 DD FLAT:??_7type_info@@6B@		; CObject `RTTI Type Descriptor'
	DD	00H
	DB	'.?AVCObject@@', 00H
data$rs	ENDS
;	COMDAT ??_C@_0N@OMEMOKLE@?$CFTs?5?$CI?$CFTs?3?$CFd?$CJ@
CONST	SEGMENT
??_C@_0N@OMEMOKLE@?$CFTs?5?$CI?$CFTs?3?$CFd?$CJ@ DB '%Ts (%Ts:%d)', 00H ; `string'
CONST	ENDS
;	COMDAT ??_C@_0BB@HBOOMJBF@?$CFTs?5?$CI?$CFTs?3?$CFd?$CJ?6?$CFTs@
CONST	SEGMENT
??_C@_0BB@HBOOMJBF@?$CFTs?5?$CI?$CFTs?3?$CFd?$CJ?6?$CFTs@ DB '%Ts (%Ts:%d'
	DB	')', 0aH, '%Ts', 00H				; `string'
CONST	ENDS
;	COMDAT ??_C@_0BP@OIEOKIDM@Exception?5thrown?5in?5destructor@
CONST	SEGMENT
??_C@_0BP@OIEOKIDM@Exception?5thrown?5in?5destructor@ DB 'Exception throw'
	DB	'n in destructor', 00H			; `string'
CONST	ENDS
;	COMDAT ??_C@_0HD@JJCHHHNK@C?3?2Program?5Files?5?$CIx86?$CJ?2Microsof@
CONST	SEGMENT
??_C@_0HD@JJCHHHNK@C?3?2Program?5Files?5?$CIx86?$CJ?2Microsof@ DB 'C:\Pro'
	DB	'gram Files (x86)\Microsoft Visual Studio\2019\Community\VC\To'
	DB	'ols\MSVC\14.29.30133\atlmfc\include\afxwin1.inl', 00H ; `string'
CONST	ENDS
;	COMDAT ??_7CListBox@@6B@
CONST	SEGMENT
??_7CListBox@@6B@ DD FLAT:??_R4CListBox@@6B@		; CListBox::`vftable'
	DD	FLAT:?GetRuntimeClass@CListBox@@UBEPAUCRuntimeClass@@XZ
	DD	FLAT:??_ECListBox@@UAEPAXI@Z
	DD	FLAT:?Serialize@CObject@@UAEXAAVCArchive@@@Z
	DD	FLAT:?AssertValid@CObject@@UBEXXZ
	DD	FLAT:?Dump@CObject@@UBEXAAVCDumpContext@@@Z
	DD	FLAT:?OnCmdMsg@CCmdTarget@@UAEHIHPAXPAUAFX_CMDHANDLERINFO@@@Z
	DD	FLAT:?OnFinalRelease@CWnd@@UAEXXZ
	DD	FLAT:?IsInvokeAllowed@CCmdTarget@@UAEHJ@Z
	DD	FLAT:?GetDispatchIID@CCmdTarget@@UAEHPAU_GUID@@@Z
	DD	FLAT:?GetTypeInfoCount@CCmdTarget@@UAEIXZ
	DD	FLAT:?GetTypeLibCache@CCmdTarget@@UAEPAVCTypeLibCache@@XZ
	DD	FLAT:?GetTypeLib@CCmdTarget@@UAEJKPAPAUITypeLib@@@Z
	DD	FLAT:?GetMessageMap@CWnd@@MBEPBUAFX_MSGMAP@@XZ
	DD	FLAT:?GetCommandMap@CCmdTarget@@MBEPBUAFX_OLECMDMAP@@XZ
	DD	FLAT:?GetDispatchMap@CCmdTarget@@MBEPBUAFX_DISPMAP@@XZ
	DD	FLAT:?GetConnectionMap@CCmdTarget@@MBEPBUAFX_CONNECTIONMAP@@XZ
	DD	FLAT:?GetInterfaceMap@CWnd@@MBEPBUAFX_INTERFACEMAP@@XZ
	DD	FLAT:?GetEventSinkMap@CCmdTarget@@MBEPBUAFX_EVENTSINKMAP@@XZ
	DD	FLAT:?OnCreateAggregates@CCmdTarget@@UAEHXZ
	DD	FLAT:?GetInterfaceHook@CCmdTarget@@UAEPAUIUnknown@@PBX@Z
	DD	FLAT:?GetExtraConnectionPoints@CCmdTarget@@MAEHPAVCPtrArray@@@Z
	DD	FLAT:?GetConnectionHook@CCmdTarget@@MAEPAUIConnectionPoint@@ABU_GUID@@@Z
	DD	FLAT:?PreSubclassWindow@CWnd@@UAEXXZ
	DD	FLAT:?Create@CWnd@@UAEHPBD0KABUtagRECT@@PAV1@IPAUCCreateContext@@@Z
	DD	FLAT:?CreateEx@CWnd@@UAEHKPBD0KABUtagRECT@@PAV1@IPAX@Z
	DD	FLAT:?CreateEx@CWnd@@UAEHKPBD0KHHHHPAUHWND__@@PAUHMENU__@@PAX@Z
	DD	FLAT:?DestroyWindow@CWnd@@UAEHXZ
	DD	FLAT:?PreCreateWindow@CWnd@@UAEHAAUtagCREATESTRUCTA@@@Z
	DD	FLAT:?CalcWindowRect@CWnd@@UAEXPAUtagRECT@@I@Z
	DD	FLAT:?GetMenu@CWnd@@UBEPAVCMenu@@XZ
	DD	FLAT:?SetMenu@CWnd@@UAEHPAVCMenu@@@Z
	DD	FLAT:?OnToolHitTest@CWnd@@UBEHVCPoint@@PAUtagTOOLINFOA@@@Z
	DD	FLAT:?GetScrollBarCtrl@CWnd@@UBEPAVCScrollBar@@H@Z
	DD	FLAT:?WinHelpA@CWnd@@UAEXKI@Z
	DD	FLAT:?HtmlHelpA@CWnd@@UAEXKI@Z
	DD	FLAT:?WinHelpInternal@CWnd@@UAEXKI@Z
	DD	FLAT:?ContinueModal@CWnd@@UAEHXZ
	DD	FLAT:?EndModalLoop@CWnd@@UAEXH@Z
	DD	FLAT:?OnDrawIconicThumbnailOrLivePreview@CWnd@@UAEXAAVCDC@@VCRect@@VCSize@@HAAH@Z
	DD	FLAT:?EnsureStdObj@CWnd@@UAEJXZ
	DD	FLAT:?get_accParent@CWnd@@UAEJPAPAUIDispatch@@@Z
	DD	FLAT:?get_accChildCount@CWnd@@UAEJPAJ@Z
	DD	FLAT:?get_accChild@CWnd@@UAEJUtagVARIANT@@PAPAUIDispatch@@@Z
	DD	FLAT:?get_accName@CWnd@@UAEJUtagVARIANT@@PAPA_W@Z
	DD	FLAT:?get_accValue@CWnd@@UAEJUtagVARIANT@@PAPA_W@Z
	DD	FLAT:?get_accDescription@CWnd@@UAEJUtagVARIANT@@PAPA_W@Z
	DD	FLAT:?get_accRole@CWnd@@UAEJUtagVARIANT@@PAU2@@Z
	DD	FLAT:?get_accState@CWnd@@UAEJUtagVARIANT@@PAU2@@Z
	DD	FLAT:?get_accHelp@CWnd@@UAEJUtagVARIANT@@PAPA_W@Z
	DD	FLAT:?get_accHelpTopic@CWnd@@UAEJPAPA_WUtagVARIANT@@PAJ@Z
	DD	FLAT:?get_accKeyboardShortcut@CWnd@@UAEJUtagVARIANT@@PAPA_W@Z
	DD	FLAT:?get_accFocus@CWnd@@UAEJPAUtagVARIANT@@@Z
	DD	FLAT:?get_accSelection@CWnd@@UAEJPAUtagVARIANT@@@Z
	DD	FLAT:?get_accDefaultAction@CWnd@@UAEJUtagVARIANT@@PAPA_W@Z
	DD	FLAT:?accSelect@CWnd@@UAEJJUtagVARIANT@@@Z
	DD	FLAT:?accLocation@CWnd@@UAEJPAJ000UtagVARIANT@@@Z
	DD	FLAT:?accNavigate@CWnd@@UAEJJUtagVARIANT@@PAU2@@Z
	DD	FLAT:?accHitTest@CWnd@@UAEJJJPAUtagVARIANT@@@Z
	DD	FLAT:?accDoDefaultAction@CWnd@@UAEJUtagVARIANT@@@Z
	DD	FLAT:?put_accName@CWnd@@UAEJUtagVARIANT@@PA_W@Z
	DD	FLAT:?put_accValue@CWnd@@UAEJUtagVARIANT@@PA_W@Z
	DD	FLAT:?SetProxy@CWnd@@UAEJPAUIAccessibleProxy@@@Z
	DD	FLAT:?CreateAccessibleProxy@CWnd@@UAEJIJPAJ@Z
	DD	FLAT:?OnCommand@CWnd@@MAEHIJ@Z
	DD	FLAT:?OnNotify@CWnd@@MAEHIJPAJ@Z
	DD	FLAT:?GetSuperWndProcAddr@CWnd@@MAEPAP6GJPAUHWND__@@IIJ@ZXZ
	DD	FLAT:?DoDataExchange@CWnd@@MAEXPAVCDataExchange@@@Z
	DD	FLAT:?BeginModalState@CWnd@@UAEXXZ
	DD	FLAT:?EndModalState@CWnd@@UAEXXZ
	DD	FLAT:?PreTranslateMessage@CWnd@@UAEHPAUtagMSG@@@Z
	DD	FLAT:?OnAmbientProperty@CWnd@@UAEHPAVCOleControlSite@@JPAUtagVARIANT@@@Z
	DD	FLAT:?WindowProc@CWnd@@MAEJIIJ@Z
	DD	FLAT:?OnWndMsg@CWnd@@MAEHIIJPAJ@Z
	DD	FLAT:?DefWindowProcA@CWnd@@MAEJIIJ@Z
	DD	FLAT:?PostNcDestroy@CWnd@@MAEXXZ
	DD	FLAT:?OnChildNotify@CListBox@@MAEHIIJPAJ@Z
	DD	FLAT:?OnTouchInputs@CWnd@@MAEHIPAUtagTOUCHINPUT@@@Z
	DD	FLAT:?OnTouchInput@CWnd@@MAEHVCPoint@@HHPAUtagTOUCHINPUT@@@Z
	DD	FLAT:?GetGestureStatus@CWnd@@MAEKVCPoint@@@Z
	DD	FLAT:?OnGestureZoom@CWnd@@MAEHVCPoint@@J@Z
	DD	FLAT:?OnGesturePan@CWnd@@MAEHVCPoint@@0@Z
	DD	FLAT:?OnGestureRotate@CWnd@@MAEHVCPoint@@N@Z
	DD	FLAT:?OnGestureTwoFingerTap@CWnd@@MAEHVCPoint@@@Z
	DD	FLAT:?OnGesturePressAndTap@CWnd@@MAEHVCPoint@@J@Z
	DD	FLAT:?ResizeDynamicLayout@CWnd@@MAEXXZ
	DD	FLAT:?CheckAutoCenter@CWnd@@UAEHXZ
	DD	FLAT:?IsFrameWnd@CWnd@@UBEHXZ
	DD	FLAT:?CreateControlContainer@CWnd@@MAEHPAPAVCOleControlContainer@@@Z
	DD	FLAT:?CreateControlSite@CWnd@@MAEHPAVCOleControlContainer@@PAPAVCOleControlSite@@IABU_GUID@@@Z
	DD	FLAT:?SetOccDialogInfo@CWnd@@MAEHPAU_AFX_OCC_DIALOG_INFO@@@Z
	DD	FLAT:?GetOccDialogInfo@CWnd@@MAEPAU_AFX_OCC_DIALOG_INFO@@XZ
	DD	FLAT:?Create@CListBox@@UAEHKABUtagRECT@@PAVCWnd@@I@Z
	DD	FLAT:?DrawItem@CListBox@@UAEXPAUtagDRAWITEMSTRUCT@@@Z
	DD	FLAT:?MeasureItem@CListBox@@UAEXPAUtagMEASUREITEMSTRUCT@@@Z
	DD	FLAT:?CompareItem@CListBox@@UAEHPAUtagCOMPAREITEMSTRUCT@@@Z
	DD	FLAT:?DeleteItem@CListBox@@UAEXPAUtagDELETEITEMSTRUCT@@@Z
	DD	FLAT:?VKeyToItem@CListBox@@UAEHII@Z
	DD	FLAT:?CharToItem@CListBox@@UAEHII@Z
CONST	ENDS
;	COMDAT ??_7CButton@@6B@
CONST	SEGMENT
??_7CButton@@6B@ DD FLAT:??_R4CButton@@6B@		; CButton::`vftable'
	DD	FLAT:?GetRuntimeClass@CButton@@UBEPAUCRuntimeClass@@XZ
	DD	FLAT:??_ECButton@@UAEPAXI@Z
	DD	FLAT:?Serialize@CObject@@UAEXAAVCArchive@@@Z
	DD	FLAT:?AssertValid@CObject@@UBEXXZ
	DD	FLAT:?Dump@CObject@@UBEXAAVCDumpContext@@@Z
	DD	FLAT:?OnCmdMsg@CCmdTarget@@UAEHIHPAXPAUAFX_CMDHANDLERINFO@@@Z
	DD	FLAT:?OnFinalRelease@CWnd@@UAEXXZ
	DD	FLAT:?IsInvokeAllowed@CCmdTarget@@UAEHJ@Z
	DD	FLAT:?GetDispatchIID@CCmdTarget@@UAEHPAU_GUID@@@Z
	DD	FLAT:?GetTypeInfoCount@CCmdTarget@@UAEIXZ
	DD	FLAT:?GetTypeLibCache@CCmdTarget@@UAEPAVCTypeLibCache@@XZ
	DD	FLAT:?GetTypeLib@CCmdTarget@@UAEJKPAPAUITypeLib@@@Z
	DD	FLAT:?GetMessageMap@CWnd@@MBEPBUAFX_MSGMAP@@XZ
	DD	FLAT:?GetCommandMap@CCmdTarget@@MBEPBUAFX_OLECMDMAP@@XZ
	DD	FLAT:?GetDispatchMap@CCmdTarget@@MBEPBUAFX_DISPMAP@@XZ
	DD	FLAT:?GetConnectionMap@CCmdTarget@@MBEPBUAFX_CONNECTIONMAP@@XZ
	DD	FLAT:?GetInterfaceMap@CWnd@@MBEPBUAFX_INTERFACEMAP@@XZ
	DD	FLAT:?GetEventSinkMap@CCmdTarget@@MBEPBUAFX_EVENTSINKMAP@@XZ
	DD	FLAT:?OnCreateAggregates@CCmdTarget@@UAEHXZ
	DD	FLAT:?GetInterfaceHook@CCmdTarget@@UAEPAUIUnknown@@PBX@Z
	DD	FLAT:?GetExtraConnectionPoints@CCmdTarget@@MAEHPAVCPtrArray@@@Z
	DD	FLAT:?GetConnectionHook@CCmdTarget@@MAEPAUIConnectionPoint@@ABU_GUID@@@Z
	DD	FLAT:?PreSubclassWindow@CWnd@@UAEXXZ
	DD	FLAT:?Create@CWnd@@UAEHPBD0KABUtagRECT@@PAV1@IPAUCCreateContext@@@Z
	DD	FLAT:?CreateEx@CWnd@@UAEHKPBD0KABUtagRECT@@PAV1@IPAX@Z
	DD	FLAT:?CreateEx@CWnd@@UAEHKPBD0KHHHHPAUHWND__@@PAUHMENU__@@PAX@Z
	DD	FLAT:?DestroyWindow@CWnd@@UAEHXZ
	DD	FLAT:?PreCreateWindow@CWnd@@UAEHAAUtagCREATESTRUCTA@@@Z
	DD	FLAT:?CalcWindowRect@CWnd@@UAEXPAUtagRECT@@I@Z
	DD	FLAT:?GetMenu@CWnd@@UBEPAVCMenu@@XZ
	DD	FLAT:?SetMenu@CWnd@@UAEHPAVCMenu@@@Z
	DD	FLAT:?OnToolHitTest@CWnd@@UBEHVCPoint@@PAUtagTOOLINFOA@@@Z
	DD	FLAT:?GetScrollBarCtrl@CWnd@@UBEPAVCScrollBar@@H@Z
	DD	FLAT:?WinHelpA@CWnd@@UAEXKI@Z
	DD	FLAT:?HtmlHelpA@CWnd@@UAEXKI@Z
	DD	FLAT:?WinHelpInternal@CWnd@@UAEXKI@Z
	DD	FLAT:?ContinueModal@CWnd@@UAEHXZ
	DD	FLAT:?EndModalLoop@CWnd@@UAEXH@Z
	DD	FLAT:?OnDrawIconicThumbnailOrLivePreview@CWnd@@UAEXAAVCDC@@VCRect@@VCSize@@HAAH@Z
	DD	FLAT:?EnsureStdObj@CWnd@@UAEJXZ
	DD	FLAT:?get_accParent@CWnd@@UAEJPAPAUIDispatch@@@Z
	DD	FLAT:?get_accChildCount@CWnd@@UAEJPAJ@Z
	DD	FLAT:?get_accChild@CWnd@@UAEJUtagVARIANT@@PAPAUIDispatch@@@Z
	DD	FLAT:?get_accName@CWnd@@UAEJUtagVARIANT@@PAPA_W@Z
	DD	FLAT:?get_accValue@CWnd@@UAEJUtagVARIANT@@PAPA_W@Z
	DD	FLAT:?get_accDescription@CWnd@@UAEJUtagVARIANT@@PAPA_W@Z
	DD	FLAT:?get_accRole@CWnd@@UAEJUtagVARIANT@@PAU2@@Z
	DD	FLAT:?get_accState@CWnd@@UAEJUtagVARIANT@@PAU2@@Z
	DD	FLAT:?get_accHelp@CWnd@@UAEJUtagVARIANT@@PAPA_W@Z
	DD	FLAT:?get_accHelpTopic@CWnd@@UAEJPAPA_WUtagVARIANT@@PAJ@Z
	DD	FLAT:?get_accKeyboardShortcut@CWnd@@UAEJUtagVARIANT@@PAPA_W@Z
	DD	FLAT:?get_accFocus@CWnd@@UAEJPAUtagVARIANT@@@Z
	DD	FLAT:?get_accSelection@CWnd@@UAEJPAUtagVARIANT@@@Z
	DD	FLAT:?get_accDefaultAction@CWnd@@UAEJUtagVARIANT@@PAPA_W@Z
	DD	FLAT:?accSelect@CWnd@@UAEJJUtagVARIANT@@@Z
	DD	FLAT:?accLocation@CWnd@@UAEJPAJ000UtagVARIANT@@@Z
	DD	FLAT:?accNavigate@CWnd@@UAEJJUtagVARIANT@@PAU2@@Z
	DD	FLAT:?accHitTest@CWnd@@UAEJJJPAUtagVARIANT@@@Z
	DD	FLAT:?accDoDefaultAction@CWnd@@UAEJUtagVARIANT@@@Z
	DD	FLAT:?put_accName@CWnd@@UAEJUtagVARIANT@@PA_W@Z
	DD	FLAT:?put_accValue@CWnd@@UAEJUtagVARIANT@@PA_W@Z
	DD	FLAT:?SetProxy@CWnd@@UAEJPAUIAccessibleProxy@@@Z
	DD	FLAT:?CreateAccessibleProxy@CWnd@@UAEJIJPAJ@Z
	DD	FLAT:?OnCommand@CWnd@@MAEHIJ@Z
	DD	FLAT:?OnNotify@CWnd@@MAEHIJPAJ@Z
	DD	FLAT:?GetSuperWndProcAddr@CWnd@@MAEPAP6GJPAUHWND__@@IIJ@ZXZ
	DD	FLAT:?DoDataExchange@CWnd@@MAEXPAVCDataExchange@@@Z
	DD	FLAT:?BeginModalState@CWnd@@UAEXXZ
	DD	FLAT:?EndModalState@CWnd@@UAEXXZ
	DD	FLAT:?PreTranslateMessage@CWnd@@UAEHPAUtagMSG@@@Z
	DD	FLAT:?OnAmbientProperty@CWnd@@UAEHPAVCOleControlSite@@JPAUtagVARIANT@@@Z
	DD	FLAT:?WindowProc@CWnd@@MAEJIIJ@Z
	DD	FLAT:?OnWndMsg@CWnd@@MAEHIIJPAJ@Z
	DD	FLAT:?DefWindowProcA@CWnd@@MAEJIIJ@Z
	DD	FLAT:?PostNcDestroy@CWnd@@MAEXXZ
	DD	FLAT:?OnChildNotify@CButton@@MAEHIIJPAJ@Z
	DD	FLAT:?OnTouchInputs@CWnd@@MAEHIPAUtagTOUCHINPUT@@@Z
	DD	FLAT:?OnTouchInput@CWnd@@MAEHVCPoint@@HHPAUtagTOUCHINPUT@@@Z
	DD	FLAT:?GetGestureStatus@CWnd@@MAEKVCPoint@@@Z
	DD	FLAT:?OnGestureZoom@CWnd@@MAEHVCPoint@@J@Z
	DD	FLAT:?OnGesturePan@CWnd@@MAEHVCPoint@@0@Z
	DD	FLAT:?OnGestureRotate@CWnd@@MAEHVCPoint@@N@Z
	DD	FLAT:?OnGestureTwoFingerTap@CWnd@@MAEHVCPoint@@@Z
	DD	FLAT:?OnGesturePressAndTap@CWnd@@MAEHVCPoint@@J@Z
	DD	FLAT:?ResizeDynamicLayout@CWnd@@MAEXXZ
	DD	FLAT:?CheckAutoCenter@CWnd@@UAEHXZ
	DD	FLAT:?IsFrameWnd@CWnd@@UBEHXZ
	DD	FLAT:?CreateControlContainer@CWnd@@MAEHPAPAVCOleControlContainer@@@Z
	DD	FLAT:?CreateControlSite@CWnd@@MAEHPAVCOleControlContainer@@PAPAVCOleControlSite@@IABU_GUID@@@Z
	DD	FLAT:?SetOccDialogInfo@CWnd@@MAEHPAU_AFX_OCC_DIALOG_INFO@@@Z
	DD	FLAT:?GetOccDialogInfo@CWnd@@MAEPAU_AFX_OCC_DIALOG_INFO@@XZ
	DD	FLAT:?Create@CButton@@UAEHPBDKABUtagRECT@@PAVCWnd@@I@Z
	DD	FLAT:?DrawItem@CButton@@UAEXPAUtagDRAWITEMSTRUCT@@@Z
CONST	ENDS
;	COMDAT ??_7CFont@@6B@
CONST	SEGMENT
??_7CFont@@6B@ DD FLAT:??_R4CFont@@6B@			; CFont::`vftable'
	DD	FLAT:?GetRuntimeClass@CFont@@UBEPAUCRuntimeClass@@XZ
	DD	FLAT:??_ECFont@@UAEPAXI@Z
	DD	FLAT:?Serialize@CObject@@UAEXAAVCArchive@@@Z
	DD	FLAT:?AssertValid@CObject@@UBEXXZ
	DD	FLAT:?Dump@CObject@@UBEXAAVCDumpContext@@@Z
CONST	ENDS
;	COMDAT ??_7CPen@@6B@
CONST	SEGMENT
??_7CPen@@6B@ DD FLAT:??_R4CPen@@6B@			; CPen::`vftable'
	DD	FLAT:?GetRuntimeClass@CPen@@UBEPAUCRuntimeClass@@XZ
	DD	FLAT:??_ECPen@@UAEPAXI@Z
	DD	FLAT:?Serialize@CObject@@UAEXAAVCArchive@@@Z
	DD	FLAT:?AssertValid@CObject@@UBEXXZ
	DD	FLAT:?Dump@CObject@@UBEXAAVCDumpContext@@@Z
CONST	ENDS
;	COMDAT ??_7CGdiObject@@6B@
CONST	SEGMENT
??_7CGdiObject@@6B@ DD FLAT:??_R4CGdiObject@@6B@	; CGdiObject::`vftable'
	DD	FLAT:?GetRuntimeClass@CGdiObject@@UBEPAUCRuntimeClass@@XZ
	DD	FLAT:??_ECGdiObject@@UAEPAXI@Z
	DD	FLAT:?Serialize@CObject@@UAEXAAVCArchive@@@Z
	DD	FLAT:?AssertValid@CObject@@UBEXXZ
	DD	FLAT:?Dump@CObject@@UBEXAAVCDumpContext@@@Z
CONST	ENDS
;	COMDAT ??_C@_01PLPBNMEI@M@
CONST	SEGMENT
??_C@_01PLPBNMEI@M@ DB 'M', 00H				; `string'
CONST	ENDS
;	COMDAT ??_R0PAVCException@@@8
data$r	SEGMENT
??_R0PAVCException@@@8 DD FLAT:??_7type_info@@6B@	; CException * `RTTI Type Descriptor'
	DD	00H
	DB	'.PAVCException@@', 00H
data$r	ENDS
;	COMDAT xdata$x
xdata$x	SEGMENT
__unwindtable$?OnSelectionChanged@CDropButton@@IAEJIJ@Z DD 0ffffffffH
	DD	FLAT:__unwindfunclet$?OnSelectionChanged@CDropButton@@IAEJIJ@Z$0
__ehfuncinfo$?OnSelectionChanged@CDropButton@@IAEJIJ@Z DD 019930522H
	DD	01H
	DD	FLAT:__unwindtable$?OnSelectionChanged@CDropButton@@IAEJIJ@Z
	DD	2 DUP(00H)
	DD	2 DUP(00H)
	DD	00H
	DD	01H
xdata$x	ENDS
;	COMDAT xdata$x
xdata$x	SEGMENT
__unwindtable$?DrawItem@CDropButton@@UAEXPAUtagDRAWITEMSTRUCT@@@Z DD 0ffffffffH
	DD	FLAT:__unwindfunclet$?DrawItem@CDropButton@@UAEXPAUtagDRAWITEMSTRUCT@@@Z$0
__ehfuncinfo$?DrawItem@CDropButton@@UAEXPAUtagDRAWITEMSTRUCT@@@Z DD 019930522H
	DD	01H
	DD	FLAT:__unwindtable$?DrawItem@CDropButton@@UAEXPAUtagDRAWITEMSTRUCT@@@Z
	DD	2 DUP(00H)
	DD	2 DUP(00H)
	DD	00H
	DD	01H
xdata$x	ENDS
;	COMDAT xdata$x
xdata$x	SEGMENT
__ehfuncinfo$?Create@CDropButton@@QAEHV?$CStringT@DV?$StrTraitMFC_DLL@DV?$ChTraitsCRT@D@ATL@@@@@ATL@@VCRect@@PAVCWnd@@IKKKKPAVCFont@@K@Z DD 019930522H
	DD	0eH
	DD	FLAT:__unwindtable$?Create@CDropButton@@QAEHV?$CStringT@DV?$StrTraitMFC_DLL@DV?$ChTraitsCRT@D@ATL@@@@@ATL@@VCRect@@PAVCWnd@@IKKKKPAVCFont@@K@Z
	DD	2 DUP(00H)
	DD	2 DUP(00H)
	DD	00H
	DD	01H
__unwindtable$?Create@CDropButton@@QAEHV?$CStringT@DV?$StrTraitMFC_DLL@DV?$ChTraitsCRT@D@ATL@@@@@ATL@@VCRect@@PAVCWnd@@IKKKKPAVCFont@@K@Z DD 0ffffffffH
	DD	FLAT:__unwindfunclet$?Create@CDropButton@@QAEHV?$CStringT@DV?$StrTraitMFC_DLL@DV?$ChTraitsCRT@D@ATL@@@@@ATL@@VCRect@@PAVCWnd@@IKKKKPAVCFont@@K@Z$0
	DD	00H
	DD	FLAT:__unwindfunclet$?Create@CDropButton@@QAEHV?$CStringT@DV?$StrTraitMFC_DLL@DV?$ChTraitsCRT@D@ATL@@@@@ATL@@VCRect@@PAVCWnd@@IKKKKPAVCFont@@K@Z$1
	DD	00H
	DD	FLAT:__unwindfunclet$?Create@CDropButton@@QAEHV?$CStringT@DV?$StrTraitMFC_DLL@DV?$ChTraitsCRT@D@ATL@@@@@ATL@@VCRect@@PAVCWnd@@IKKKKPAVCFont@@K@Z$2
	DD	00H
	DD	FLAT:__unwindfunclet$?Create@CDropButton@@QAEHV?$CStringT@DV?$StrTraitMFC_DLL@DV?$ChTraitsCRT@D@ATL@@@@@ATL@@VCRect@@PAVCWnd@@IKKKKPAVCFont@@K@Z$3
	DD	00H
	DD	FLAT:__unwindfunclet$?Create@CDropButton@@QAEHV?$CStringT@DV?$StrTraitMFC_DLL@DV?$ChTraitsCRT@D@ATL@@@@@ATL@@VCRect@@PAVCWnd@@IKKKKPAVCFont@@K@Z$4
	DD	00H
	DD	FLAT:__unwindfunclet$?Create@CDropButton@@QAEHV?$CStringT@DV?$StrTraitMFC_DLL@DV?$ChTraitsCRT@D@ATL@@@@@ATL@@VCRect@@PAVCWnd@@IKKKKPAVCFont@@K@Z$5
	DD	00H
	DD	FLAT:__unwindfunclet$?Create@CDropButton@@QAEHV?$CStringT@DV?$StrTraitMFC_DLL@DV?$ChTraitsCRT@D@ATL@@@@@ATL@@VCRect@@PAVCWnd@@IKKKKPAVCFont@@K@Z$7
	DD	00H
	DD	FLAT:__unwindfunclet$?Create@CDropButton@@QAEHV?$CStringT@DV?$StrTraitMFC_DLL@DV?$ChTraitsCRT@D@ATL@@@@@ATL@@VCRect@@PAVCWnd@@IKKKKPAVCFont@@K@Z$8
	DD	00H
	DD	FLAT:__unwindfunclet$?Create@CDropButton@@QAEHV?$CStringT@DV?$StrTraitMFC_DLL@DV?$ChTraitsCRT@D@ATL@@@@@ATL@@VCRect@@PAVCWnd@@IKKKKPAVCFont@@K@Z$9
	DD	00H
	DD	FLAT:__unwindfunclet$?Create@CDropButton@@QAEHV?$CStringT@DV?$StrTraitMFC_DLL@DV?$ChTraitsCRT@D@ATL@@@@@ATL@@VCRect@@PAVCWnd@@IKKKKPAVCFont@@K@Z$11
	DD	09H
	DD	FLAT:__unwindfunclet$?Create@CDropButton@@QAEHV?$CStringT@DV?$StrTraitMFC_DLL@DV?$ChTraitsCRT@D@ATL@@@@@ATL@@VCRect@@PAVCWnd@@IKKKKPAVCFont@@K@Z$12
	DD	0aH
	DD	FLAT:__unwindfunclet$?Create@CDropButton@@QAEHV?$CStringT@DV?$StrTraitMFC_DLL@DV?$ChTraitsCRT@D@ATL@@@@@ATL@@VCRect@@PAVCWnd@@IKKKKPAVCFont@@K@Z$13
	DD	00H
	DD	FLAT:__unwindfunclet$?Create@CDropButton@@QAEHV?$CStringT@DV?$StrTraitMFC_DLL@DV?$ChTraitsCRT@D@ATL@@@@@ATL@@VCRect@@PAVCWnd@@IKKKKPAVCFont@@K@Z$18
	DD	00H
	DD	FLAT:__unwindfunclet$?Create@CDropButton@@QAEHV?$CStringT@DV?$StrTraitMFC_DLL@DV?$ChTraitsCRT@D@ATL@@@@@ATL@@VCRect@@PAVCWnd@@IKKKKPAVCFont@@K@Z$19
xdata$x	ENDS
;	COMDAT xdata$x
xdata$x	SEGMENT
__unwindtable$?Create@CListWnd@@QAEHPAVCWnd@@I@Z DD 0ffffffffH
	DD	FLAT:__unwindfunclet$?Create@CListWnd@@QAEHPAVCWnd@@I@Z$0
	DD	00H
	DD	FLAT:__unwindfunclet$?Create@CListWnd@@QAEHPAVCWnd@@I@Z$1
	DD	01H
	DD	FLAT:__unwindfunclet$?Create@CListWnd@@QAEHPAVCWnd@@I@Z$2
__ehfuncinfo$?Create@CListWnd@@QAEHPAVCWnd@@I@Z DD 019930522H
	DD	03H
	DD	FLAT:__unwindtable$?Create@CListWnd@@QAEHPAVCWnd@@I@Z
	DD	2 DUP(00H)
	DD	2 DUP(00H)
	DD	00H
	DD	01H
xdata$x	ENDS
;	COMDAT xdata$x
xdata$x	SEGMENT
__unwindtable$??_GCDropList@@UAEPAXI@Z DD 0ffffffffH
	DD	FLAT:___std_terminate
__ehfuncinfo$??_GCDropList@@UAEPAXI@Z DD 019930522H
	DD	01H
	DD	FLAT:__unwindtable$??_GCDropList@@UAEPAXI@Z
	DD	2 DUP(00H)
	DD	2 DUP(00H)
	DD	00H
	DD	05H
xdata$x	ENDS
;	COMDAT xdata$x
xdata$x	SEGMENT
__unwindtable$?OnCreate@CDropList@@IAEHPAUtagCREATESTRUCTA@@@Z DD 0ffffffffH
	DD	FLAT:__unwindfunclet$?OnCreate@CDropList@@IAEHPAUtagCREATESTRUCTA@@@Z$0
	DD	0ffffffffH
	DD	FLAT:__unwindfunclet$?OnCreate@CDropList@@IAEHPAUtagCREATESTRUCTA@@@Z$1
	DD	0ffffffffH
	DD	FLAT:__unwindfunclet$?OnCreate@CDropList@@IAEHPAUtagCREATESTRUCTA@@@Z$2
__ehfuncinfo$?OnCreate@CDropList@@IAEHPAUtagCREATESTRUCTA@@@Z DD 019930522H
	DD	03H
	DD	FLAT:__unwindtable$?OnCreate@CDropList@@IAEHPAUtagCREATESTRUCTA@@@Z
	DD	2 DUP(00H)
	DD	2 DUP(00H)
	DD	00H
	DD	01H
xdata$x	ENDS
;	COMDAT xdata$x
xdata$x	SEGMENT
__ehfuncinfo$??1CDropList@@UAE@XZ DD 019930522H
	DD	00H
	DD	00H
	DD	2 DUP(00H)
	DD	2 DUP(00H)
	DD	00H
	DD	05H
xdata$x	ENDS
;	COMDAT xdata$x
xdata$x	SEGMENT
__unwindtable$?SetHighlightBkColor@CDropList@@QAEXK@Z DD 0ffffffffH
	DD	FLAT:__unwindfunclet$?SetHighlightBkColor@CDropList@@QAEXK@Z$0
__ehfuncinfo$?SetHighlightBkColor@CDropList@@QAEXK@Z DD 019930522H
	DD	01H
	DD	FLAT:__unwindtable$?SetHighlightBkColor@CDropList@@QAEXK@Z
	DD	2 DUP(00H)
	DD	2 DUP(00H)
	DD	00H
	DD	01H
xdata$x	ENDS
;	COMDAT xdata$x
xdata$x	SEGMENT
__unwindtable$?SetBkColor@CDropList@@QAEXK@Z DD 0ffffffffH
	DD	FLAT:__unwindfunclet$?SetBkColor@CDropList@@QAEXK@Z$0
	DD	0ffffffffH
	DD	FLAT:__unwindfunclet$?SetBkColor@CDropList@@QAEXK@Z$1
__ehfuncinfo$?SetBkColor@CDropList@@QAEXK@Z DD 019930522H
	DD	02H
	DD	FLAT:__unwindtable$?SetBkColor@CDropList@@QAEXK@Z
	DD	2 DUP(00H)
	DD	2 DUP(00H)
	DD	00H
	DD	01H
xdata$x	ENDS
;	COMDAT xdata$x
xdata$x	SEGMENT
__unwindtable$?DrawItem@CDropList@@AAEXPAVCDC@@VCRect@@H@Z DD 0ffffffffH
	DD	FLAT:__unwindfunclet$?DrawItem@CDropList@@AAEXPAVCDC@@VCRect@@H@Z$0
__ehfuncinfo$?DrawItem@CDropList@@AAEXPAVCDC@@VCRect@@H@Z DD 019930522H
	DD	01H
	DD	FLAT:__unwindtable$?DrawItem@CDropList@@AAEXPAVCDC@@VCRect@@H@Z
	DD	2 DUP(00H)
	DD	2 DUP(00H)
	DD	00H
	DD	01H
xdata$x	ENDS
;	COMDAT xdata$x
xdata$x	SEGMENT
__unwindtable$??0CDropList@@QAE@XZ DD 0ffffffffH
	DD	FLAT:__unwindfunclet$??0CDropList@@QAE@XZ$0
__ehfuncinfo$??0CDropList@@QAE@XZ DD 019930522H
	DD	01H
	DD	FLAT:__unwindtable$??0CDropList@@QAE@XZ
	DD	2 DUP(00H)
	DD	2 DUP(00H)
	DD	00H
	DD	01H
xdata$x	ENDS
;	COMDAT xdata$x
xdata$x	SEGMENT
__unwindtable$?AddToList@CDropList@@AAEHHV?$CStringT@DV?$StrTraitMFC_DLL@DV?$ChTraitsCRT@D@ATL@@@@@ATL@@@Z DD 0ffffffffH
	DD	FLAT:__unwindfunclet$?AddToList@CDropList@@AAEHHV?$CStringT@DV?$StrTraitMFC_DLL@DV?$ChTraitsCRT@D@ATL@@@@@ATL@@@Z$0
	DD	00H
	DD	FLAT:__unwindfunclet$?AddToList@CDropList@@AAEHHV?$CStringT@DV?$StrTraitMFC_DLL@DV?$ChTraitsCRT@D@ATL@@@@@ATL@@@Z$1
__ehfuncinfo$?AddToList@CDropList@@AAEHHV?$CStringT@DV?$StrTraitMFC_DLL@DV?$ChTraitsCRT@D@ATL@@@@@ATL@@@Z DD 019930522H
	DD	02H
	DD	FLAT:__unwindtable$?AddToList@CDropList@@AAEHHV?$CStringT@DV?$StrTraitMFC_DLL@DV?$ChTraitsCRT@D@ATL@@@@@ATL@@@Z
	DD	2 DUP(00H)
	DD	2 DUP(00H)
	DD	00H
	DD	01H
xdata$x	ENDS
;	COMDAT xdata$x
xdata$x	SEGMENT
__catchsym$??1CGdiObject@@UAE@XZ$3 DD 00H
	DD	FLAT:??_R0PAVCException@@@8
	DD	0fffffde4H
	DD	FLAT:__catch$??1CGdiObject@@UAE@XZ$0
__tryblocktable$??1CGdiObject@@UAE@XZ DD 00H
	DD	00H
	DD	02H
	DD	01H
	DD	FLAT:__catchsym$??1CGdiObject@@UAE@XZ$3
__unwindtable$??1CGdiObject@@UAE@XZ DD 0ffffffffH
	DD	00H
	DD	0ffffffffH
	DD	00H
	DD	01H
	DD	FLAT:__unwindfunclet$??1CGdiObject@@UAE@XZ$2
__ehfuncinfo$??1CGdiObject@@UAE@XZ DD 019930522H
	DD	03H
	DD	FLAT:__unwindtable$??1CGdiObject@@UAE@XZ
	DD	01H
	DD	FLAT:__tryblocktable$??1CGdiObject@@UAE@XZ
	DD	2 DUP(00H)
	DD	00H
	DD	05H
xdata$x	ENDS
; Function compile flags: /Ogtp
; File D:\git\src\IBK\IBK_DRFN\ProjSrc\SrcChartEx\ChartAddIn\ChartEnvSetupDlgAddIn\ChartEnvSetupDlgAddIn\DropBtn.cpp
; File C:\Program Files (x86)\Microsoft Visual Studio\2019\Community\VC\Tools\MSVC\14.29.30133\atlmfc\include\afx.inl
;	COMDAT ??_GCDropButton@@UAEPAXI@Z
_TEXT	SEGMENT
___flags$ = 8						; size = 4
??_GCDropButton@@UAEPAXI@Z PROC				; CDropButton::`scalar deleting destructor', COMDAT
; _this$ = ecx
  00000	55		 push	 ebp
  00001	8b ec		 mov	 ebp, esp
; File D:\git\src\IBK\IBK_DRFN\ProjSrc\SrcChartEx\ChartAddIn\ChartEnvSetupDlgAddIn\ChartEnvSetupDlgAddIn\DropBtn.cpp

; 464  : {

  00003	56		 push	 esi
  00004	8b f1		 mov	 esi, ecx

; 465  : 	// Clean Up
; 466  : 	delete	m_pBkBrush;

  00006	8b 8e c0 00 00
	00		 mov	 ecx, DWORD PTR [esi+192]
  0000c	c7 06 00 00 00
	00		 mov	 DWORD PTR [esi], OFFSET ??_7CDropButton@@6B@
  00012	85 c9		 test	 ecx, ecx
  00014	74 07		 je	 SHORT $LN10@scalar
  00016	8b 01		 mov	 eax, DWORD PTR [ecx]
  00018	6a 01		 push	 1
  0001a	ff 50 04	 call	 DWORD PTR [eax+4]
$LN10@scalar:

; 467  : 	delete	m_pBkOverBrush;

  0001d	8b 8e c4 00 00
	00		 mov	 ecx, DWORD PTR [esi+196]
  00023	85 c9		 test	 ecx, ecx
  00025	74 07		 je	 SHORT $LN12@scalar
  00027	8b 01		 mov	 eax, DWORD PTR [ecx]
  00029	6a 01		 push	 1
  0002b	ff 50 04	 call	 DWORD PTR [eax+4]
$LN12@scalar:

; 468  : 	delete	m_pBorderPen;

  0002e	8b 8e b4 00 00
	00		 mov	 ecx, DWORD PTR [esi+180]
  00034	85 c9		 test	 ecx, ecx
  00036	74 07		 je	 SHORT $LN14@scalar
  00038	8b 01		 mov	 eax, DWORD PTR [ecx]
  0003a	6a 01		 push	 1
  0003c	ff 50 04	 call	 DWORD PTR [eax+4]
$LN14@scalar:

; 469  : 	delete	m_pTriBrush;

  0003f	8b 8e c8 00 00
	00		 mov	 ecx, DWORD PTR [esi+200]
  00045	85 c9		 test	 ecx, ecx
  00047	74 07		 je	 SHORT $LN16@scalar
  00049	8b 01		 mov	 eax, DWORD PTR [ecx]
  0004b	6a 01		 push	 1
  0004d	ff 50 04	 call	 DWORD PTR [eax+4]
$LN16@scalar:

; 470  : 	delete	m_pTriPen;

  00050	8b 8e b8 00 00
	00		 mov	 ecx, DWORD PTR [esi+184]
  00056	85 c9		 test	 ecx, ecx
  00058	74 07		 je	 SHORT $LN18@scalar
  0005a	8b 01		 mov	 eax, DWORD PTR [ecx]
  0005c	6a 01		 push	 1
  0005e	ff 50 04	 call	 DWORD PTR [eax+4]
$LN18@scalar:

; 471  : 	
; 472  : 	delete	m_pDropWnd;

  00061	8b 8e d4 00 00
	00		 mov	 ecx, DWORD PTR [esi+212]
  00067	85 c9		 test	 ecx, ecx
  00069	74 07		 je	 SHORT $LN20@scalar
  0006b	8b 01		 mov	 eax, DWORD PTR [ecx]
  0006d	6a 01		 push	 1
  0006f	ff 50 04	 call	 DWORD PTR [eax+4]
$LN20@scalar:

; 473  : 	if(m_bDeleteFont) delete m_pTextFont;

  00072	80 be 8c 00 00
	00 00		 cmp	 BYTE PTR [esi+140], 0
  00079	74 11		 je	 SHORT $LN22@scalar
  0007b	8b 8e bc 00 00
	00		 mov	 ecx, DWORD PTR [esi+188]
  00081	85 c9		 test	 ecx, ecx
  00083	74 07		 je	 SHORT $LN22@scalar
  00085	8b 01		 mov	 eax, DWORD PTR [ecx]
  00087	6a 01		 push	 1
  00089	ff 50 04	 call	 DWORD PTR [eax+4]
$LN22@scalar:

; 474  : }

  0008c	8b ce		 mov	 ecx, esi
  0008e	e8 00 00 00 00	 call	 ??1CButton@@UAE@XZ	; CButton::~CButton
  00093	8b 45 08	 mov	 eax, DWORD PTR ___flags$[ebp]
  00096	a8 01		 test	 al, 1
  00098	74 22		 je	 SHORT $LN27@scalar
  0009a	a8 04		 test	 al, 4
  0009c	75 10		 jne	 SHORT $LN3@scalar
; File C:\Program Files (x86)\Microsoft Visual Studio\2019\Community\VC\Tools\MSVC\14.29.30133\atlmfc\include\afx.inl

; 112  : 	{ ::operator delete(p); }

  0009e	56		 push	 esi
  0009f	e8 00 00 00 00	 call	 ??3@YAXPAX@Z		; operator delete
  000a4	83 c4 04	 add	 esp, 4
  000a7	8b c6		 mov	 eax, esi
  000a9	5e		 pop	 esi
  000aa	5d		 pop	 ebp
  000ab	c2 04 00	 ret	 4
$LN3@scalar:
  000ae	68 d8 00 00 00	 push	 216			; 000000d8H
  000b3	56		 push	 esi
  000b4	e8 00 00 00 00	 call	 ?__global_delete@@YAXPAXI@Z ; __global_delete
  000b9	83 c4 08	 add	 esp, 8
$LN27@scalar:
  000bc	8b c6		 mov	 eax, esi
  000be	5e		 pop	 esi
  000bf	5d		 pop	 ebp
  000c0	c2 04 00	 ret	 4
??_GCDropButton@@UAEPAXI@Z ENDP				; CDropButton::`scalar deleting destructor'
_TEXT	ENDS
; Function compile flags: /Ogtp
; File D:\git\src\IBK\IBK_DRFN\ProjSrc\SrcChartEx\ChartAddIn\ChartEnvSetupDlgAddIn\ChartEnvSetupDlgAddIn\DropBtn.cpp
;	COMDAT ?GetMessageMap@CDropButton@@MBEPBUAFX_MSGMAP@@XZ
_TEXT	SEGMENT
?GetMessageMap@CDropButton@@MBEPBUAFX_MSGMAP@@XZ PROC	; CDropButton::GetMessageMap, COMDAT
; _this$ = ecx

; 476  : BEGIN_MESSAGE_MAP(CDropButton, CButton)

  00000	b8 00 00 00 00	 mov	 eax, OFFSET ?messageMap@?1??GetThisMessageMap@CDropButton@@KGPBUAFX_MSGMAP@@XZ@4U3@B
  00005	c3		 ret	 0
?GetMessageMap@CDropButton@@MBEPBUAFX_MSGMAP@@XZ ENDP	; CDropButton::GetMessageMap
_TEXT	ENDS
; Function compile flags: /Ogtp
; File D:\git\src\IBK\IBK_DRFN\ProjSrc\SrcChartEx\ChartAddIn\ChartEnvSetupDlgAddIn\ChartEnvSetupDlgAddIn\DropBtn.cpp
;	COMDAT ?GetThisMessageMap@CDropButton@@KGPBUAFX_MSGMAP@@XZ
_TEXT	SEGMENT
?GetThisMessageMap@CDropButton@@KGPBUAFX_MSGMAP@@XZ PROC ; CDropButton::GetThisMessageMap, COMDAT

; 477  : 	//{{AFX_MSG_MAP(CDropButton)
; 478  : 	ON_WM_MOUSEMOVE()
; 479  : 	ON_WM_LBUTTONDOWN()
; 480  : 	ON_WM_SETFOCUS()
; 481  : 	ON_WM_SIZE()
; 482  : 	//}}AFX_MSG_MAP
; 483  : 	ON_MESSAGE(CM_SELECTION_CHANGED, OnSelectionChanged)
; 484  : END_MESSAGE_MAP()

  00000	b8 00 00 00 00	 mov	 eax, OFFSET ?messageMap@?1??GetThisMessageMap@CDropButton@@KGPBUAFX_MSGMAP@@XZ@4U3@B
  00005	c3		 ret	 0
?GetThisMessageMap@CDropButton@@KGPBUAFX_MSGMAP@@XZ ENDP ; CDropButton::GetThisMessageMap
_TEXT	ENDS
; Function compile flags: /Ogtp
; File D:\git\src\IBK\IBK_DRFN\ProjSrc\SrcChartEx\ChartAddIn\ChartEnvSetupDlgAddIn\ChartEnvSetupDlgAddIn\DropBtn.cpp
; File C:\Program Files (x86)\Microsoft Visual Studio\2019\Community\VC\Tools\MSVC\14.29.30133\atlmfc\include\afxwin2.inl
; File D:\git\src\IBK\IBK_DRFN\ProjSrc\SrcChartEx\ChartAddIn\ChartEnvSetupDlgAddIn\ChartEnvSetupDlgAddIn\DropBtn.cpp
; File C:\Program Files (x86)\Microsoft Visual Studio\2019\Community\VC\Tools\MSVC\14.29.30133\atlmfc\include\afxwin2.inl
; File D:\git\src\IBK\IBK_DRFN\ProjSrc\SrcChartEx\ChartAddIn\ChartEnvSetupDlgAddIn\ChartEnvSetupDlgAddIn\DropBtn.cpp
;	COMDAT ?OnSize@CDropButton@@IAEXIHH@Z
_TEXT	SEGMENT
_nType$ = 8						; size = 4
_cx$ = 12						; size = 4
_cy$ = 16						; size = 4
?OnSize@CDropButton@@IAEXIHH@Z PROC			; CDropButton::OnSize, COMDAT
; _this$ = ecx

; 625  : {

  00000	56		 push	 esi
  00001	8b f1		 mov	 esi, ecx
; File C:\Program Files (x86)\Microsoft Visual Studio\2019\Community\VC\Tools\MSVC\14.29.30133\atlmfc\include\afxwin2.inl

; 330  : 	{ Default(); }

  00003	e8 00 00 00 00	 call	 ?Default@CWnd@@IAEJXZ	; CWnd::Default
; File D:\git\src\IBK\IBK_DRFN\ProjSrc\SrcChartEx\ChartAddIn\ChartEnvSetupDlgAddIn\ChartEnvSetupDlgAddIn\DropBtn.cpp

; 627  : 	GetClientRect(m_WindowRect);	

  00008	8d 86 94 00 00
	00		 lea	 eax, DWORD PTR [esi+148]
; File C:\Program Files (x86)\Microsoft Visual Studio\2019\Community\VC\Tools\MSVC\14.29.30133\atlmfc\include\afxwin2.inl

; 86   : 	{ ASSERT(::IsWindow(m_hWnd)); ::GetClientRect(m_hWnd, lpRect); }

  0000e	50		 push	 eax
  0000f	ff 76 20	 push	 DWORD PTR [esi+32]
  00012	ff 15 00 00 00
	00		 call	 DWORD PTR __imp__GetClientRect@8
  00018	5e		 pop	 esi
; File D:\git\src\IBK\IBK_DRFN\ProjSrc\SrcChartEx\ChartAddIn\ChartEnvSetupDlgAddIn\ChartEnvSetupDlgAddIn\DropBtn.cpp

; 628  : }

  00019	c2 0c 00	 ret	 12			; 0000000cH
?OnSize@CDropButton@@IAEXIHH@Z ENDP			; CDropButton::OnSize
_TEXT	ENDS
; Function compile flags: /Ogtp
; File D:\git\src\IBK\IBK_DRFN\ProjSrc\SrcChartEx\ChartAddIn\ChartEnvSetupDlgAddIn\ChartEnvSetupDlgAddIn\DropBtn.cpp
; File C:\Program Files (x86)\Microsoft Visual Studio\2019\Community\VC\Tools\MSVC\14.29.30133\atlmfc\include\afxwin2.inl
; File D:\git\src\IBK\IBK_DRFN\ProjSrc\SrcChartEx\ChartAddIn\ChartEnvSetupDlgAddIn\ChartEnvSetupDlgAddIn\DropBtn.cpp
;	COMDAT ?OnSetFocus@CDropButton@@IAEXPAVCWnd@@@Z
_TEXT	SEGMENT
_pOldWnd$ = 8						; size = 4
?OnSetFocus@CDropButton@@IAEXPAVCWnd@@@Z PROC		; CDropButton::OnSetFocus, COMDAT
; _this$ = ecx

; 723  : {

  00000	55		 push	 ebp
  00001	8b ec		 mov	 ebp, esp
  00003	56		 push	 esi

; 724  : 	CButton::OnSetFocus(pOldWnd);

  00004	ff 75 08	 push	 DWORD PTR _pOldWnd$[ebp]
  00007	8b f1		 mov	 esi, ecx
  00009	e8 00 00 00 00	 call	 ?OnSetFocus@CWnd@@IAEXPAV1@@Z ; CWnd::OnSetFocus

; 726  : 	if(m_pDropWnd->IsWindowVisible())

  0000e	8b 86 d4 00 00
	00		 mov	 eax, DWORD PTR [esi+212]
; File C:\Program Files (x86)\Microsoft Visual Studio\2019\Community\VC\Tools\MSVC\14.29.30133\atlmfc\include\afxwin2.inl

; 124  : 	{ ASSERT(::IsWindow(m_hWnd)); return ::IsWindowVisible(m_hWnd); }

  00014	ff 70 20	 push	 DWORD PTR [eax+32]
  00017	ff 15 00 00 00
	00		 call	 DWORD PTR __imp__IsWindowVisible@4
; File D:\git\src\IBK\IBK_DRFN\ProjSrc\SrcChartEx\ChartAddIn\ChartEnvSetupDlgAddIn\ChartEnvSetupDlgAddIn\DropBtn.cpp

; 726  : 	if(m_pDropWnd->IsWindowVisible())

  0001d	85 c0		 test	 eax, eax
  0001f	74 11		 je	 SHORT $LN2@OnSetFocus

; 727  : 		m_pDropWnd->m_pDropList->SetFocus();

  00021	8b 8e d4 00 00
	00		 mov	 ecx, DWORD PTR [esi+212]
  00027	8b 89 84 00 00
	00		 mov	 ecx, DWORD PTR [ecx+132]
  0002d	e8 00 00 00 00	 call	 ?SetFocus@CWnd@@QAEPAV1@XZ ; CWnd::SetFocus
$LN2@OnSetFocus:
  00032	5e		 pop	 esi

; 728  : 		
; 729  : }

  00033	5d		 pop	 ebp
  00034	c2 04 00	 ret	 4
?OnSetFocus@CDropButton@@IAEXPAVCWnd@@@Z ENDP		; CDropButton::OnSetFocus
_TEXT	ENDS
; Function compile flags: /Ogtp
; File D:\git\src\IBK\IBK_DRFN\ProjSrc\SrcChartEx\ChartAddIn\ChartEnvSetupDlgAddIn\ChartEnvSetupDlgAddIn\DropBtn.cpp
; File C:\Program Files (x86)\Microsoft Visual Studio\2019\Community\VC\Tools\MSVC\14.29.30133\atlmfc\include\afxwin2.inl
; File D:\git\src\IBK\IBK_DRFN\ProjSrc\SrcChartEx\ChartAddIn\ChartEnvSetupDlgAddIn\ChartEnvSetupDlgAddIn\DropBtn.cpp
; File C:\Program Files (x86)\Microsoft Visual Studio\2019\Community\VC\Tools\MSVC\14.29.30133\atlmfc\include\afxwin2.inl
; File C:\Program Files (x86)\Microsoft Visual Studio\2019\Community\VC\Tools\MSVC\14.29.30133\atlmfc\include\atltypes.h
; File D:\git\src\IBK\IBK_DRFN\ProjSrc\SrcChartEx\ChartAddIn\ChartEnvSetupDlgAddIn\ChartEnvSetupDlgAddIn\DropBtn.cpp
; File C:\Program Files (x86)\Microsoft Visual Studio\2019\Community\VC\Tools\MSVC\14.29.30133\atlmfc\include\atltypes.h
; File D:\git\src\IBK\IBK_DRFN\ProjSrc\SrcChartEx\ChartAddIn\ChartEnvSetupDlgAddIn\ChartEnvSetupDlgAddIn\DropBtn.cpp
; File C:\Program Files (x86)\Microsoft Visual Studio\2019\Community\VC\Tools\MSVC\14.29.30133\atlmfc\include\afxwin2.inl
; File D:\git\src\IBK\IBK_DRFN\ProjSrc\SrcChartEx\ChartAddIn\ChartEnvSetupDlgAddIn\ChartEnvSetupDlgAddIn\DropBtn.cpp
; File C:\Program Files (x86)\Microsoft Visual Studio\2019\Community\VC\Tools\MSVC\14.29.30133\atlmfc\include\afxwin2.inl
; File D:\git\src\IBK\IBK_DRFN\ProjSrc\SrcChartEx\ChartAddIn\ChartEnvSetupDlgAddIn\ChartEnvSetupDlgAddIn\DropBtn.cpp
;	COMDAT ?OnLButtonDown@CDropButton@@IAEXIVCPoint@@@Z
_TEXT	SEGMENT
_nFlags$ = 8						; size = 4
_point$ = 12						; size = 8
?OnLButtonDown@CDropButton@@IAEXIVCPoint@@@Z PROC	; CDropButton::OnLButtonDown, COMDAT
; _this$ = ecx

; 707  : {

  00000	55		 push	 ebp
  00001	8b ec		 mov	 ebp, esp
  00003	56		 push	 esi
  00004	8b f1		 mov	 esi, ecx

; 710  : 	if(m_pDropWnd->IsWindowVisible())

  00006	8b 86 d4 00 00
	00		 mov	 eax, DWORD PTR [esi+212]
  0000c	c6 86 8e 00 00
	00 00		 mov	 BYTE PTR [esi+142], 0
; File C:\Program Files (x86)\Microsoft Visual Studio\2019\Community\VC\Tools\MSVC\14.29.30133\atlmfc\include\afxwin2.inl

; 124  : 	{ ASSERT(::IsWindow(m_hWnd)); return ::IsWindowVisible(m_hWnd); }

  00013	ff 70 20	 push	 DWORD PTR [eax+32]
  00016	ff 15 00 00 00
	00		 call	 DWORD PTR __imp__IsWindowVisible@4
; File D:\git\src\IBK\IBK_DRFN\ProjSrc\SrcChartEx\ChartAddIn\ChartEnvSetupDlgAddIn\ChartEnvSetupDlgAddIn\DropBtn.cpp

; 710  : 	if(m_pDropWnd->IsWindowVisible())

  0001c	85 c0		 test	 eax, eax
  0001e	74 52		 je	 SHORT $LN2@OnLButtonD
; File C:\Program Files (x86)\Microsoft Visual Studio\2019\Community\VC\Tools\MSVC\14.29.30133\atlmfc\include\afxwin2.inl

; 167  : 	{ return CWnd::FromHandle(::GetDesktopWindow()); }

  00020	ff 15 00 00 00
	00		 call	 DWORD PTR __imp__GetDesktopWindow@0
  00026	50		 push	 eax
  00027	e8 00 00 00 00	 call	 ?FromHandle@CWnd@@SGPAV1@PAUHWND__@@@Z ; CWnd::FromHandle

; 25   : 	{ return this == NULL ? NULL : m_hWnd; }

  0002c	85 c0		 test	 eax, eax
  0002e	74 03		 je	 SHORT $LN15@OnLButtonD
$LN14@OnLButtonD:
  00030	8b 40 20	 mov	 eax, DWORD PTR [eax+32]
$LN15@OnLButtonD:

; 88   : 	{ ASSERT(::IsWindow(m_hWnd)); ::MapWindowPoints(m_hWnd, pwndTo->GetSafeHwnd(), lpPoint, nCount); }

  00033	6a 02		 push	 2
  00035	8d 4d 0c	 lea	 ecx, DWORD PTR _point$[ebp]
  00038	51		 push	 ecx
  00039	50		 push	 eax
  0003a	ff 76 20	 push	 DWORD PTR [esi+32]
  0003d	ff 15 00 00 00
	00		 call	 DWORD PTR __imp__MapWindowPoints@16
; File C:\Program Files (x86)\Microsoft Visual Studio\2019\Community\VC\Tools\MSVC\14.29.30133\atlmfc\include\atltypes.h

; 648  : 	return ::PtInRect(this, point);

  00043	ff 75 10	 push	 DWORD PTR _point$[ebp+4]
; File D:\git\src\IBK\IBK_DRFN\ProjSrc\SrcChartEx\ChartAddIn\ChartEnvSetupDlgAddIn\ChartEnvSetupDlgAddIn\DropBtn.cpp

; 714  : 		if(!m_ListRect.PtInRect(point))

  00046	8d 86 a4 00 00
	00		 lea	 eax, DWORD PTR [esi+164]
; File C:\Program Files (x86)\Microsoft Visual Studio\2019\Community\VC\Tools\MSVC\14.29.30133\atlmfc\include\atltypes.h

; 648  : 	return ::PtInRect(this, point);

  0004c	ff 75 0c	 push	 DWORD PTR _point$[ebp]
  0004f	50		 push	 eax
  00050	ff 15 00 00 00
	00		 call	 DWORD PTR __imp__PtInRect@12
; File D:\git\src\IBK\IBK_DRFN\ProjSrc\SrcChartEx\ChartAddIn\ChartEnvSetupDlgAddIn\ChartEnvSetupDlgAddIn\DropBtn.cpp

; 714  : 		if(!m_ListRect.PtInRect(point))

  00056	85 c0		 test	 eax, eax
  00058	75 1f		 jne	 SHORT $LN3@OnLButtonD

; 715  : 			m_pDropWnd->ShowWindow(SW_HIDE);

  0005a	8b 8e d4 00 00
	00		 mov	 ecx, DWORD PTR [esi+212]
  00060	50		 push	 eax
  00061	e8 00 00 00 00	 call	 ?ShowWindow@CWnd@@QAEHH@Z ; CWnd::ShowWindow
; File C:\Program Files (x86)\Microsoft Visual Studio\2019\Community\VC\Tools\MSVC\14.29.30133\atlmfc\include\afxwin2.inl

; 432  : 	{ Default(); }

  00066	8b ce		 mov	 ecx, esi
  00068	e8 00 00 00 00	 call	 ?Default@CWnd@@IAEJXZ	; CWnd::Default
  0006d	5e		 pop	 esi
; File D:\git\src\IBK\IBK_DRFN\ProjSrc\SrcChartEx\ChartAddIn\ChartEnvSetupDlgAddIn\ChartEnvSetupDlgAddIn\DropBtn.cpp

; 721  : }

  0006e	5d		 pop	 ebp
  0006f	c2 0c 00	 ret	 12			; 0000000cH
$LN2@OnLButtonD:

; 716  : 	}
; 717  : 	else	
; 718  : 		DisplayList();

  00072	8b ce		 mov	 ecx, esi
  00074	e8 00 00 00 00	 call	 ?DisplayList@CDropButton@@AAEXXZ ; CDropButton::DisplayList
$LN3@OnLButtonD:
; File C:\Program Files (x86)\Microsoft Visual Studio\2019\Community\VC\Tools\MSVC\14.29.30133\atlmfc\include\afxwin2.inl

; 432  : 	{ Default(); }

  00079	8b ce		 mov	 ecx, esi
  0007b	e8 00 00 00 00	 call	 ?Default@CWnd@@IAEJXZ	; CWnd::Default
  00080	5e		 pop	 esi
; File D:\git\src\IBK\IBK_DRFN\ProjSrc\SrcChartEx\ChartAddIn\ChartEnvSetupDlgAddIn\ChartEnvSetupDlgAddIn\DropBtn.cpp

; 721  : }

  00081	5d		 pop	 ebp
  00082	c2 0c 00	 ret	 12			; 0000000cH
?OnLButtonDown@CDropButton@@IAEXIVCPoint@@@Z ENDP	; CDropButton::OnLButtonDown
_TEXT	ENDS
; Function compile flags: /Ogtp
; File D:\git\src\IBK\IBK_DRFN\ProjSrc\SrcChartEx\ChartAddIn\ChartEnvSetupDlgAddIn\ChartEnvSetupDlgAddIn\DropBtn.cpp
; File C:\Program Files (x86)\Microsoft Visual Studio\2019\Community\VC\Tools\MSVC\14.29.30133\atlmfc\include\afxwin2.inl
; File D:\git\src\IBK\IBK_DRFN\ProjSrc\SrcChartEx\ChartAddIn\ChartEnvSetupDlgAddIn\ChartEnvSetupDlgAddIn\DropBtn.cpp
; File C:\Program Files (x86)\Microsoft Visual Studio\2019\Community\VC\Tools\MSVC\14.29.30133\atlmfc\include\afxwin2.inl
; File D:\git\src\IBK\IBK_DRFN\ProjSrc\SrcChartEx\ChartAddIn\ChartEnvSetupDlgAddIn\ChartEnvSetupDlgAddIn\DropBtn.cpp
; File C:\Program Files (x86)\Microsoft Visual Studio\2019\Community\VC\Tools\MSVC\14.29.30133\atlmfc\include\afxwin2.inl
; File C:\Program Files (x86)\Microsoft Visual Studio\2019\Community\VC\Tools\MSVC\14.29.30133\atlmfc\include\atltypes.h
; File D:\git\src\IBK\IBK_DRFN\ProjSrc\SrcChartEx\ChartAddIn\ChartEnvSetupDlgAddIn\ChartEnvSetupDlgAddIn\DropBtn.cpp
; File C:\Program Files (x86)\Microsoft Visual Studio\2019\Community\VC\Tools\MSVC\14.29.30133\atlmfc\include\afxwin2.inl
; File D:\git\src\IBK\IBK_DRFN\ProjSrc\SrcChartEx\ChartAddIn\ChartEnvSetupDlgAddIn\ChartEnvSetupDlgAddIn\DropBtn.cpp
; File C:\Program Files (x86)\Microsoft Visual Studio\2019\Community\VC\Tools\MSVC\14.29.30133\atlmfc\include\afxwin2.inl
; File D:\git\src\IBK\IBK_DRFN\ProjSrc\SrcChartEx\ChartAddIn\ChartEnvSetupDlgAddIn\ChartEnvSetupDlgAddIn\DropBtn.cpp
; File C:\Program Files (x86)\Microsoft Visual Studio\2019\Community\VC\Tools\MSVC\14.29.30133\atlmfc\include\afxwin2.inl
; File D:\git\src\IBK\IBK_DRFN\ProjSrc\SrcChartEx\ChartAddIn\ChartEnvSetupDlgAddIn\ChartEnvSetupDlgAddIn\DropBtn.cpp
; File C:\Program Files (x86)\Microsoft Visual Studio\2019\Community\VC\Tools\MSVC\14.29.30133\atlmfc\include\afxwin2.inl
; File D:\git\src\IBK\IBK_DRFN\ProjSrc\SrcChartEx\ChartAddIn\ChartEnvSetupDlgAddIn\ChartEnvSetupDlgAddIn\DropBtn.cpp
; File C:\Program Files (x86)\Microsoft Visual Studio\2019\Community\VC\Tools\MSVC\14.29.30133\atlmfc\include\afxwin2.inl
; File C:\Program Files (x86)\Microsoft Visual Studio\2019\Community\VC\Tools\MSVC\14.29.30133\atlmfc\include\atltypes.h
; File D:\git\src\IBK\IBK_DRFN\ProjSrc\SrcChartEx\ChartAddIn\ChartEnvSetupDlgAddIn\ChartEnvSetupDlgAddIn\DropBtn.cpp
; File C:\Program Files (x86)\Microsoft Visual Studio\2019\Community\VC\Tools\MSVC\14.29.30133\atlmfc\include\afxwin2.inl
; File D:\git\src\IBK\IBK_DRFN\ProjSrc\SrcChartEx\ChartAddIn\ChartEnvSetupDlgAddIn\ChartEnvSetupDlgAddIn\DropBtn.cpp
; File C:\Program Files (x86)\Microsoft Visual Studio\2019\Community\VC\Tools\MSVC\14.29.30133\atlmfc\include\afxwin2.inl
; File D:\git\src\IBK\IBK_DRFN\ProjSrc\SrcChartEx\ChartAddIn\ChartEnvSetupDlgAddIn\ChartEnvSetupDlgAddIn\DropBtn.cpp
; File C:\Program Files (x86)\Microsoft Visual Studio\2019\Community\VC\Tools\MSVC\14.29.30133\atlmfc\include\afxwin2.inl
; File D:\git\src\IBK\IBK_DRFN\ProjSrc\SrcChartEx\ChartAddIn\ChartEnvSetupDlgAddIn\ChartEnvSetupDlgAddIn\DropBtn.cpp
; File C:\Program Files (x86)\Microsoft Visual Studio\2019\Community\VC\Tools\MSVC\14.29.30133\atlmfc\include\afxwin2.inl
; File D:\git\src\IBK\IBK_DRFN\ProjSrc\SrcChartEx\ChartAddIn\ChartEnvSetupDlgAddIn\ChartEnvSetupDlgAddIn\DropBtn.cpp
; File C:\Program Files (x86)\Microsoft Visual Studio\2019\Community\VC\Tools\MSVC\14.29.30133\atlmfc\include\afxwin2.inl
; File D:\git\src\IBK\IBK_DRFN\ProjSrc\SrcChartEx\ChartAddIn\ChartEnvSetupDlgAddIn\ChartEnvSetupDlgAddIn\DropBtn.cpp
;	COMDAT ?OnMouseMove@CDropButton@@IAEXIVCPoint@@@Z
_TEXT	SEGMENT
_NewRect$ = -20						; size = 16
__$ArrayPad$ = -4					; size = 4
_nFlags$ = 8						; size = 4
_point$ = 12						; size = 8
?OnMouseMove@CDropButton@@IAEXIVCPoint@@@Z PROC		; CDropButton::OnMouseMove, COMDAT
; _this$ = ecx

; 631  : {

  00000	55		 push	 ebp
  00001	8b ec		 mov	 ebp, esp
  00003	83 ec 14	 sub	 esp, 20			; 00000014H
  00006	a1 00 00 00 00	 mov	 eax, DWORD PTR ___security_cookie
  0000b	33 c5		 xor	 eax, ebp
  0000d	89 45 fc	 mov	 DWORD PTR __$ArrayPad$[ebp], eax
  00010	56		 push	 esi
  00011	8b f1		 mov	 esi, ecx
  00013	57		 push	 edi

; 633  : 	if(!m_bOver && !m_pDropWnd->IsWindowVisible())

  00014	8b 3d 00 00 00
	00		 mov	 edi, DWORD PTR __imp__IsWindowVisible@4
  0001a	80 be 8e 00 00
	00 00		 cmp	 BYTE PTR [esi+142], 0
  00021	75 1e		 jne	 SHORT $LN2@OnMouseMov
  00023	8b 86 d4 00 00
	00		 mov	 eax, DWORD PTR [esi+212]
; File C:\Program Files (x86)\Microsoft Visual Studio\2019\Community\VC\Tools\MSVC\14.29.30133\atlmfc\include\afxwin2.inl

; 124  : 	{ ASSERT(::IsWindow(m_hWnd)); return ::IsWindowVisible(m_hWnd); }

  00029	ff 70 20	 push	 DWORD PTR [eax+32]
  0002c	ff d7		 call	 edi
; File D:\git\src\IBK\IBK_DRFN\ProjSrc\SrcChartEx\ChartAddIn\ChartEnvSetupDlgAddIn\ChartEnvSetupDlgAddIn\DropBtn.cpp

; 633  : 	if(!m_bOver && !m_pDropWnd->IsWindowVisible())

  0002e	85 c0		 test	 eax, eax
  00030	75 0f		 jne	 SHORT $LN2@OnMouseMov
; File C:\Program Files (x86)\Microsoft Visual Studio\2019\Community\VC\Tools\MSVC\14.29.30133\atlmfc\include\afxwin2.inl

; 163  : 	{ ASSERT(::IsWindow(m_hWnd)); return CWnd::FromHandle(::SetCapture(m_hWnd)); }

  00032	ff 76 20	 push	 DWORD PTR [esi+32]
  00035	ff 15 00 00 00
	00		 call	 DWORD PTR __imp__SetCapture@4
  0003b	50		 push	 eax
  0003c	e8 00 00 00 00	 call	 ?FromHandle@CWnd@@SGPAV1@PAUHWND__@@@Z ; CWnd::FromHandle
$LN2@OnMouseMov:
; File D:\git\src\IBK\IBK_DRFN\ProjSrc\SrcChartEx\ChartAddIn\ChartEnvSetupDlgAddIn\ChartEnvSetupDlgAddIn\DropBtn.cpp

; 637  : 	CRect NewRect(m_WindowRect);

  00041	0f 10 86 94 00
	00 00		 movups	 xmm0, XMMWORD PTR [esi+148]

; 638  : 	ClientToScreen(NewRect);

  00048	8d 45 ec	 lea	 eax, DWORD PTR _NewRect$[ebp]
  0004b	8b ce		 mov	 ecx, esi
  0004d	50		 push	 eax
  0004e	0f 11 45 ec	 movups	 XMMWORD PTR _NewRect$[ebp], xmm0
  00052	e8 00 00 00 00	 call	 ?ClientToScreen@CWnd@@QBEXPAUtagRECT@@@Z ; CWnd::ClientToScreen
; File C:\Program Files (x86)\Microsoft Visual Studio\2019\Community\VC\Tools\MSVC\14.29.30133\atlmfc\include\afxwin2.inl

; 92   : 	{ ASSERT(::IsWindow(m_hWnd)); ::ClientToScreen(m_hWnd, lpPoint); }

  00057	8d 45 0c	 lea	 eax, DWORD PTR _point$[ebp]
  0005a	50		 push	 eax
  0005b	ff 76 20	 push	 DWORD PTR [esi+32]
  0005e	ff 15 00 00 00
	00		 call	 DWORD PTR __imp__ClientToScreen@8
; File C:\Program Files (x86)\Microsoft Visual Studio\2019\Community\VC\Tools\MSVC\14.29.30133\atlmfc\include\atltypes.h

; 648  : 	return ::PtInRect(this, point);

  00064	ff 75 10	 push	 DWORD PTR _point$[ebp+4]
  00067	8d 45 ec	 lea	 eax, DWORD PTR _NewRect$[ebp]
  0006a	ff 75 0c	 push	 DWORD PTR _point$[ebp]
  0006d	50		 push	 eax
  0006e	ff 15 00 00 00
	00		 call	 DWORD PTR __imp__PtInRect@12
; File D:\git\src\IBK\IBK_DRFN\ProjSrc\SrcChartEx\ChartAddIn\ChartEnvSetupDlgAddIn\ChartEnvSetupDlgAddIn\DropBtn.cpp

; 644  : 	if(NewRect.PtInRect(point))

  00074	85 c0		 test	 eax, eax
  00076	74 35		 je	 SHORT $LN3@OnMouseMov

; 646  : 		if(!m_bOver && !m_pDropWnd->IsWindowVisible())

  00078	80 be 8e 00 00
	00 00		 cmp	 BYTE PTR [esi+142], 0
  0007f	0f 85 8b 00 00
	00		 jne	 $LN7@OnMouseMov
  00085	8b 86 d4 00 00
	00		 mov	 eax, DWORD PTR [esi+212]
; File C:\Program Files (x86)\Microsoft Visual Studio\2019\Community\VC\Tools\MSVC\14.29.30133\atlmfc\include\afxwin2.inl

; 124  : 	{ ASSERT(::IsWindow(m_hWnd)); return ::IsWindowVisible(m_hWnd); }

  0008b	ff 70 20	 push	 DWORD PTR [eax+32]
  0008e	ff d7		 call	 edi
; File D:\git\src\IBK\IBK_DRFN\ProjSrc\SrcChartEx\ChartAddIn\ChartEnvSetupDlgAddIn\ChartEnvSetupDlgAddIn\DropBtn.cpp

; 646  : 		if(!m_bOver && !m_pDropWnd->IsWindowVisible())

  00090	85 c0		 test	 eax, eax
  00092	75 7c		 jne	 SHORT $LN7@OnMouseMov
; File C:\Program Files (x86)\Microsoft Visual Studio\2019\Community\VC\Tools\MSVC\14.29.30133\atlmfc\include\afxwin2.inl

; 142  : 	{ ASSERT(::IsWindow(m_hWnd)); return ::RedrawWindow(m_hWnd, lpRectUpdate, (HRGN)prgnUpdate->GetSafeHandle(), flags); }

  00094	68 05 01 00 00	 push	 261			; 00000105H
  00099	50		 push	 eax
  0009a	50		 push	 eax
  0009b	ff 76 20	 push	 DWORD PTR [esi+32]
; File D:\git\src\IBK\IBK_DRFN\ProjSrc\SrcChartEx\ChartAddIn\ChartEnvSetupDlgAddIn\ChartEnvSetupDlgAddIn\DropBtn.cpp

; 648  : 			m_bOver = true;	

  0009e	c6 86 8e 00 00
	00 01		 mov	 BYTE PTR [esi+142], 1
; File C:\Program Files (x86)\Microsoft Visual Studio\2019\Community\VC\Tools\MSVC\14.29.30133\atlmfc\include\afxwin2.inl

; 142  : 	{ ASSERT(::IsWindow(m_hWnd)); return ::RedrawWindow(m_hWnd, lpRectUpdate, (HRGN)prgnUpdate->GetSafeHandle(), flags); }

  000a5	ff 15 00 00 00
	00		 call	 DWORD PTR __imp__RedrawWindow@16
; File D:\git\src\IBK\IBK_DRFN\ProjSrc\SrcChartEx\ChartAddIn\ChartEnvSetupDlgAddIn\ChartEnvSetupDlgAddIn\DropBtn.cpp

; 651  : 	}

  000ab	eb 63		 jmp	 SHORT $LN7@OnMouseMov
$LN3@OnMouseMov:

; 655  : 		if(m_pDropWnd->IsWindowVisible())

  000ad	8b 86 d4 00 00
	00		 mov	 eax, DWORD PTR [esi+212]
; File C:\Program Files (x86)\Microsoft Visual Studio\2019\Community\VC\Tools\MSVC\14.29.30133\atlmfc\include\afxwin2.inl

; 124  : 	{ ASSERT(::IsWindow(m_hWnd)); return ::IsWindowVisible(m_hWnd); }

  000b3	ff 70 20	 push	 DWORD PTR [eax+32]
  000b6	ff d7		 call	 edi
; File D:\git\src\IBK\IBK_DRFN\ProjSrc\SrcChartEx\ChartAddIn\ChartEnvSetupDlgAddIn\ChartEnvSetupDlgAddIn\DropBtn.cpp

; 655  : 		if(m_pDropWnd->IsWindowVisible())

  000b8	85 c0		 test	 eax, eax
  000ba	74 35		 je	 SHORT $LN6@OnMouseMov
; File C:\Program Files (x86)\Microsoft Visual Studio\2019\Community\VC\Tools\MSVC\14.29.30133\atlmfc\include\afxwin2.inl

; 84   : 	{ ASSERT(::IsWindow(m_hWnd)); ::GetWindowRect(m_hWnd, lpRect); }

  000bc	8d 45 ec	 lea	 eax, DWORD PTR _NewRect$[ebp]
  000bf	50		 push	 eax
  000c0	8b 86 d4 00 00
	00		 mov	 eax, DWORD PTR [esi+212]
  000c6	ff 70 20	 push	 DWORD PTR [eax+32]
  000c9	ff 15 00 00 00
	00		 call	 DWORD PTR __imp__GetWindowRect@8
; File C:\Program Files (x86)\Microsoft Visual Studio\2019\Community\VC\Tools\MSVC\14.29.30133\atlmfc\include\atltypes.h

; 648  : 	return ::PtInRect(this, point);

  000cf	ff 75 10	 push	 DWORD PTR _point$[ebp+4]
  000d2	8d 45 ec	 lea	 eax, DWORD PTR _NewRect$[ebp]
  000d5	ff 75 0c	 push	 DWORD PTR _point$[ebp]
  000d8	50		 push	 eax
  000d9	ff 15 00 00 00
	00		 call	 DWORD PTR __imp__PtInRect@12
; File D:\git\src\IBK\IBK_DRFN\ProjSrc\SrcChartEx\ChartAddIn\ChartEnvSetupDlgAddIn\ChartEnvSetupDlgAddIn\DropBtn.cpp

; 658  : 			if(!NewRect.PtInRect(point))

  000df	85 c0		 test	 eax, eax
  000e1	75 2d		 jne	 SHORT $LN7@OnMouseMov

; 659  : 				m_pDropWnd->ShowWindow(SW_HIDE);

  000e3	8b 8e d4 00 00
	00		 mov	 ecx, DWORD PTR [esi+212]
  000e9	50		 push	 eax
  000ea	e8 00 00 00 00	 call	 ?ShowWindow@CWnd@@QAEHH@Z ; CWnd::ShowWindow

; 660  : 		}

  000ef	eb 1f		 jmp	 SHORT $LN7@OnMouseMov
$LN6@OnMouseMov:
; File C:\Program Files (x86)\Microsoft Visual Studio\2019\Community\VC\Tools\MSVC\14.29.30133\atlmfc\include\afxwin2.inl

; 142  : 	{ ASSERT(::IsWindow(m_hWnd)); return ::RedrawWindow(m_hWnd, lpRectUpdate, (HRGN)prgnUpdate->GetSafeHandle(), flags); }

  000f1	68 05 01 00 00	 push	 261			; 00000105H
  000f6	6a 00		 push	 0
  000f8	6a 00		 push	 0
  000fa	ff 76 20	 push	 DWORD PTR [esi+32]
; File D:\git\src\IBK\IBK_DRFN\ProjSrc\SrcChartEx\ChartAddIn\ChartEnvSetupDlgAddIn\ChartEnvSetupDlgAddIn\DropBtn.cpp

; 664  : 			m_bOver = false;

  000fd	c6 86 8e 00 00
	00 00		 mov	 BYTE PTR [esi+142], 0
; File C:\Program Files (x86)\Microsoft Visual Studio\2019\Community\VC\Tools\MSVC\14.29.30133\atlmfc\include\afxwin2.inl

; 142  : 	{ ASSERT(::IsWindow(m_hWnd)); return ::RedrawWindow(m_hWnd, lpRectUpdate, (HRGN)prgnUpdate->GetSafeHandle(), flags); }

  00104	ff 15 00 00 00
	00		 call	 DWORD PTR __imp__RedrawWindow@16
; File D:\git\src\IBK\IBK_DRFN\ProjSrc\SrcChartEx\ChartAddIn\ChartEnvSetupDlgAddIn\ChartEnvSetupDlgAddIn\DropBtn.cpp

; 666  : 			ReleaseCapture();

  0010a	ff 15 00 00 00
	00		 call	 DWORD PTR __imp__ReleaseCapture@0
$LN7@OnMouseMov:
; File C:\Program Files (x86)\Microsoft Visual Studio\2019\Community\VC\Tools\MSVC\14.29.30133\atlmfc\include\afxwin2.inl

; 454  : 	{ Default(); }

  00110	8b ce		 mov	 ecx, esi
  00112	e8 00 00 00 00	 call	 ?Default@CWnd@@IAEJXZ	; CWnd::Default
; File D:\git\src\IBK\IBK_DRFN\ProjSrc\SrcChartEx\ChartAddIn\ChartEnvSetupDlgAddIn\ChartEnvSetupDlgAddIn\DropBtn.cpp

; 671  : }

  00117	8b 4d fc	 mov	 ecx, DWORD PTR __$ArrayPad$[ebp]
; File C:\Program Files (x86)\Microsoft Visual Studio\2019\Community\VC\Tools\MSVC\14.29.30133\atlmfc\include\afxwin2.inl

; 454  : 	{ Default(); }

  0011a	5f		 pop	 edi
; File D:\git\src\IBK\IBK_DRFN\ProjSrc\SrcChartEx\ChartAddIn\ChartEnvSetupDlgAddIn\ChartEnvSetupDlgAddIn\DropBtn.cpp

; 671  : }

  0011b	33 cd		 xor	 ecx, ebp
; File C:\Program Files (x86)\Microsoft Visual Studio\2019\Community\VC\Tools\MSVC\14.29.30133\atlmfc\include\afxwin2.inl

; 454  : 	{ Default(); }

  0011d	5e		 pop	 esi
; File D:\git\src\IBK\IBK_DRFN\ProjSrc\SrcChartEx\ChartAddIn\ChartEnvSetupDlgAddIn\ChartEnvSetupDlgAddIn\DropBtn.cpp

; 671  : }

  0011e	e8 00 00 00 00	 call	 @__security_check_cookie@4
  00123	8b e5		 mov	 esp, ebp
  00125	5d		 pop	 ebp
  00126	c2 0c 00	 ret	 12			; 0000000cH
?OnMouseMove@CDropButton@@IAEXIVCPoint@@@Z ENDP		; CDropButton::OnMouseMove
_TEXT	ENDS
; Function compile flags: /Ogtp
; File D:\git\src\IBK\IBK_DRFN\ProjSrc\SrcChartEx\ChartAddIn\ChartEnvSetupDlgAddIn\ChartEnvSetupDlgAddIn\DropBtn.cpp
; File C:\Program Files (x86)\Microsoft Visual Studio\2019\Community\VC\Tools\MSVC\14.29.30133\atlmfc\include\afxwin2.inl
; File D:\git\src\IBK\IBK_DRFN\ProjSrc\SrcChartEx\ChartAddIn\ChartEnvSetupDlgAddIn\ChartEnvSetupDlgAddIn\DropBtn.cpp
; File C:\Program Files (x86)\Microsoft Visual Studio\2019\Community\VC\Tools\MSVC\14.29.30133\atlmfc\include\afxwin2.inl
; File D:\git\src\IBK\IBK_DRFN\ProjSrc\SrcChartEx\ChartAddIn\ChartEnvSetupDlgAddIn\ChartEnvSetupDlgAddIn\DropBtn.cpp
;	COMDAT ?OnSelectionChanged@CDropButton@@IAEJIJ@Z
_TEXT	SEGMENT
__$EHRec$ = -12						; size = 12
_csText$2 = 8						; size = 4
_wParam$ = 8						; size = 4
_lParam$ = 12						; size = 4
?OnSelectionChanged@CDropButton@@IAEJIJ@Z PROC		; CDropButton::OnSelectionChanged, COMDAT
; _this$ = ecx

; 731  : {

  00000	55		 push	 ebp
  00001	8b ec		 mov	 ebp, esp
  00003	6a ff		 push	 -1
  00005	68 00 00 00 00	 push	 __ehhandler$?OnSelectionChanged@CDropButton@@IAEJIJ@Z
  0000a	64 a1 00 00 00
	00		 mov	 eax, DWORD PTR fs:0
  00010	50		 push	 eax
  00011	56		 push	 esi
  00012	57		 push	 edi
  00013	a1 00 00 00 00	 mov	 eax, DWORD PTR ___security_cookie
  00018	33 c5		 xor	 eax, ebp
  0001a	50		 push	 eax
  0001b	8d 45 f4	 lea	 eax, DWORD PTR __$EHRec$[ebp]
  0001e	64 a3 00 00 00
	00		 mov	 DWORD PTR fs:0, eax
  00024	8b f1		 mov	 esi, ecx

; 732  : 	if(m_bChangeTitle)

  00026	80 be 8d 00 00
	00 00		 cmp	 BYTE PTR [esi+141], 0
  0002d	8b 7d 08	 mov	 edi, DWORD PTR _wParam$[ebp]
  00030	74 52		 je	 SHORT $LN2@OnSelectio

; 733  : 	{
; 734  : 		// Set the New Title
; 735  : 		CString csText;

  00032	8d 4d 08	 lea	 ecx, DWORD PTR _csText$2[ebp]
  00035	ff 15 00 00 00
	00		 call	 DWORD PTR __imp_??0?$CStringT@DV?$StrTraitMFC_DLL@DV?$ChTraitsCRT@D@ATL@@@@@ATL@@QAE@XZ

; 736  : 		m_pDropWnd->m_pDropList->GetText(wParam, csText);

  0003b	8b 8e d4 00 00
	00		 mov	 ecx, DWORD PTR [esi+212]
  00041	8d 45 08	 lea	 eax, DWORD PTR _csText$2[ebp]
  00044	50		 push	 eax
  00045	57		 push	 edi
  00046	c7 45 fc 00 00
	00 00		 mov	 DWORD PTR __$EHRec$[ebp+8], 0
  0004d	8b 89 84 00 00
	00		 mov	 ecx, DWORD PTR [ecx+132]
  00053	e8 00 00 00 00	 call	 ?GetText@CListBox@@QBEXHAAV?$CStringT@DV?$StrTraitMFC_DLL@DV?$ChTraitsCRT@D@ATL@@@@@ATL@@@Z ; CListBox::GetText

; 737  : 		SetWindowText(csText);

  00058	ff 75 08	 push	 DWORD PTR _csText$2[ebp]
  0005b	8b ce		 mov	 ecx, esi
  0005d	e8 00 00 00 00	 call	 ?SetWindowTextA@CWnd@@QAEXPBD@Z ; CWnd::SetWindowTextA
; File C:\Program Files (x86)\Microsoft Visual Studio\2019\Community\VC\Tools\MSVC\14.29.30133\atlmfc\include\afxwin2.inl

; 142  : 	{ ASSERT(::IsWindow(m_hWnd)); return ::RedrawWindow(m_hWnd, lpRectUpdate, (HRGN)prgnUpdate->GetSafeHandle(), flags); }

  00062	68 05 01 00 00	 push	 261			; 00000105H
  00067	6a 00		 push	 0
  00069	6a 00		 push	 0
  0006b	ff 76 20	 push	 DWORD PTR [esi+32]
  0006e	ff 15 00 00 00
	00		 call	 DWORD PTR __imp__RedrawWindow@16
; File D:\git\src\IBK\IBK_DRFN\ProjSrc\SrcChartEx\ChartAddIn\ChartEnvSetupDlgAddIn\ChartEnvSetupDlgAddIn\DropBtn.cpp

; 741  : 	}

  00074	8d 4d 08	 lea	 ecx, DWORD PTR _csText$2[ebp]
  00077	c7 45 fc ff ff
	ff ff		 mov	 DWORD PTR __$EHRec$[ebp+8], -1
  0007e	ff 15 00 00 00
	00		 call	 DWORD PTR __imp_??1?$CStringT@DV?$StrTraitMFC_DLL@DV?$ChTraitsCRT@D@ATL@@@@@ATL@@QAE@XZ
$LN2@OnSelectio:
; File C:\Program Files (x86)\Microsoft Visual Studio\2019\Community\VC\Tools\MSVC\14.29.30133\atlmfc\include\afxwin2.inl

; 213  : 	{ ASSERT(::IsWindow(m_hWnd)); return CWnd::FromHandle(::GetParent(m_hWnd)); }

  00084	ff 76 20	 push	 DWORD PTR [esi+32]
  00087	ff 15 00 00 00
	00		 call	 DWORD PTR __imp__GetParent@4
  0008d	50		 push	 eax
  0008e	e8 00 00 00 00	 call	 ?FromHandle@CWnd@@SGPAV1@PAUHWND__@@@Z ; CWnd::FromHandle

; 39   : 	{ ASSERT(::IsWindow(m_hWnd)); return ::PostMessage(m_hWnd, message, wParam, lParam); }

  00093	57		 push	 edi
  00094	ff b6 88 00 00
	00		 push	 DWORD PTR [esi+136]
  0009a	68 66 04 00 00	 push	 1126			; 00000466H
  0009f	ff 70 20	 push	 DWORD PTR [eax+32]
  000a2	ff 15 00 00 00
	00		 call	 DWORD PTR __imp__PostMessageA@16
; File D:\git\src\IBK\IBK_DRFN\ProjSrc\SrcChartEx\ChartAddIn\ChartEnvSetupDlgAddIn\ChartEnvSetupDlgAddIn\DropBtn.cpp

; 745  : 	m_pDropWnd->m_pDropList->SetPreviousSelection(wParam);

  000a8	8b 86 d4 00 00
	00		 mov	 eax, DWORD PTR [esi+212]
  000ae	8b 80 84 00 00
	00		 mov	 eax, DWORD PTR [eax+132]
  000b4	89 b8 84 00 00
	00		 mov	 DWORD PTR [eax+132], edi

; 746  : 	return 1;

  000ba	b8 01 00 00 00	 mov	 eax, 1

; 747  : }

  000bf	8b 4d f4	 mov	 ecx, DWORD PTR __$EHRec$[ebp]
  000c2	64 89 0d 00 00
	00 00		 mov	 DWORD PTR fs:0, ecx
  000c9	59		 pop	 ecx
  000ca	5f		 pop	 edi
  000cb	5e		 pop	 esi
  000cc	8b e5		 mov	 esp, ebp
  000ce	5d		 pop	 ebp
  000cf	c2 08 00	 ret	 8
_TEXT	ENDS
;	COMDAT text$x
text$x	SEGMENT
__unwindfunclet$?OnSelectionChanged@CDropButton@@IAEJIJ@Z$0:
  00000	8d 4d 08	 lea	 ecx, DWORD PTR _csText$2[ebp]
  00003	ff 25 00 00 00
	00		 jmp	 DWORD PTR __imp_??1?$CStringT@DV?$StrTraitMFC_DLL@DV?$ChTraitsCRT@D@ATL@@@@@ATL@@QAE@XZ
  00009	cc		 int	 3
  0000a	cc		 int	 3
  0000b	cc		 int	 3
  0000c	cc		 int	 3
  0000d	cc		 int	 3
__ehhandler$?OnSelectionChanged@CDropButton@@IAEJIJ@Z:
  0000e	90		 npad	 1
  0000f	90		 npad	 1
  00010	8b 54 24 08	 mov	 edx, DWORD PTR [esp+8]
  00014	8d 42 0c	 lea	 eax, DWORD PTR [edx+12]
  00017	8b 4a f4	 mov	 ecx, DWORD PTR [edx-12]
  0001a	33 c8		 xor	 ecx, eax
  0001c	e8 00 00 00 00	 call	 @__security_check_cookie@4
  00021	b8 00 00 00 00	 mov	 eax, OFFSET __ehfuncinfo$?OnSelectionChanged@CDropButton@@IAEJIJ@Z
  00026	e9 00 00 00 00	 jmp	 ___CxxFrameHandler3
text$x	ENDS
?OnSelectionChanged@CDropButton@@IAEJIJ@Z ENDP		; CDropButton::OnSelectionChanged
; Function compile flags: /Ogtp
; File D:\git\src\IBK\IBK_DRFN\ProjSrc\SrcChartEx\ChartAddIn\ChartEnvSetupDlgAddIn\ChartEnvSetupDlgAddIn\DropBtn.cpp
;	COMDAT ?MeasureItem@CDropButton@@UAEXPAUtagMEASUREITEMSTRUCT@@@Z
_TEXT	SEGMENT
_lpMeasureItemStruct$ = 8				; size = 4
?MeasureItem@CDropButton@@UAEXPAUtagMEASUREITEMSTRUCT@@@Z PROC ; CDropButton::MeasureItem, COMDAT
; _this$ = ecx

; 621  : 
; 622  : }

  00000	c2 04 00	 ret	 4
?MeasureItem@CDropButton@@UAEXPAUtagMEASUREITEMSTRUCT@@@Z ENDP ; CDropButton::MeasureItem
_TEXT	ENDS
; Function compile flags: /Ogtp
; File D:\git\src\IBK\IBK_DRFN\ProjSrc\SrcChartEx\ChartAddIn\ChartEnvSetupDlgAddIn\ChartEnvSetupDlgAddIn\DropBtn.cpp
; File C:\Program Files (x86)\Microsoft Visual Studio\2019\Community\VC\Tools\MSVC\14.29.30133\atlmfc\include\atltypes.h
; File D:\git\src\IBK\IBK_DRFN\ProjSrc\SrcChartEx\ChartAddIn\ChartEnvSetupDlgAddIn\ChartEnvSetupDlgAddIn\DropBtn.cpp
; File C:\Program Files (x86)\Microsoft Visual Studio\2019\Community\VC\Tools\MSVC\14.29.30133\atlmfc\include\atltypes.h
; File D:\git\src\IBK\IBK_DRFN\ProjSrc\SrcChartEx\ChartAddIn\ChartEnvSetupDlgAddIn\ChartEnvSetupDlgAddIn\DropBtn.cpp
; File C:\Program Files (x86)\Microsoft Visual Studio\2019\Community\VC\Tools\MSVC\14.29.30133\atlmfc\include\afxwin1.inl
; File D:\git\src\IBK\IBK_DRFN\ProjSrc\SrcChartEx\ChartAddIn\ChartEnvSetupDlgAddIn\ChartEnvSetupDlgAddIn\DropBtn.cpp
; File C:\Program Files (x86)\Microsoft Visual Studio\2019\Community\VC\Tools\MSVC\14.29.30133\atlmfc\include\afxwin1.inl
; File D:\git\src\IBK\IBK_DRFN\ProjSrc\SrcChartEx\ChartAddIn\ChartEnvSetupDlgAddIn\ChartEnvSetupDlgAddIn\DropBtn.cpp
; File C:\Program Files (x86)\Microsoft Visual Studio\2019\Community\VC\Tools\MSVC\14.29.30133\atlmfc\include\afxwin1.inl
; File D:\git\src\IBK\IBK_DRFN\ProjSrc\SrcChartEx\ChartAddIn\ChartEnvSetupDlgAddIn\ChartEnvSetupDlgAddIn\DropBtn.cpp
; File C:\Program Files (x86)\Microsoft Visual Studio\2019\Community\VC\Tools\MSVC\14.29.30133\atlmfc\include\afxwin1.inl
; File D:\git\src\IBK\IBK_DRFN\ProjSrc\SrcChartEx\ChartAddIn\ChartEnvSetupDlgAddIn\ChartEnvSetupDlgAddIn\DropBtn.cpp
; File C:\Program Files (x86)\Microsoft Visual Studio\2019\Community\VC\Tools\MSVC\14.29.30133\atlmfc\include\atltypes.h
; File D:\git\src\IBK\IBK_DRFN\ProjSrc\SrcChartEx\ChartAddIn\ChartEnvSetupDlgAddIn\ChartEnvSetupDlgAddIn\DropBtn.cpp
; File C:\Program Files (x86)\Microsoft Visual Studio\2019\Community\VC\Tools\MSVC\14.29.30133\atlmfc\include\atltypes.h
; File D:\git\src\IBK\IBK_DRFN\ProjSrc\SrcChartEx\ChartAddIn\ChartEnvSetupDlgAddIn\ChartEnvSetupDlgAddIn\DropBtn.cpp
; File C:\Program Files (x86)\Microsoft Visual Studio\2019\Community\VC\Tools\MSVC\14.29.30133\atlmfc\include\afxwin1.inl
; File D:\git\src\IBK\IBK_DRFN\ProjSrc\SrcChartEx\ChartAddIn\ChartEnvSetupDlgAddIn\ChartEnvSetupDlgAddIn\DropBtn.cpp
; File C:\Program Files (x86)\Microsoft Visual Studio\2019\Community\VC\Tools\MSVC\14.29.30133\atlmfc\include\atltypes.h
; File D:\git\src\IBK\IBK_DRFN\ProjSrc\SrcChartEx\ChartAddIn\ChartEnvSetupDlgAddIn\ChartEnvSetupDlgAddIn\DropBtn.cpp
; File C:\Program Files (x86)\Microsoft Visual Studio\2019\Community\VC\Tools\MSVC\14.29.30133\atlmfc\include\atltypes.h
; File D:\git\src\IBK\IBK_DRFN\ProjSrc\SrcChartEx\ChartAddIn\ChartEnvSetupDlgAddIn\ChartEnvSetupDlgAddIn\DropBtn.cpp
;	COMDAT ?DrawItem@CDropButton@@UAEXPAUtagDRAWITEMSTRUCT@@@Z
_TEXT	SEGMENT
_pOldFont$1$ = -92					; size = 4
_size$2 = -88						; size = 8
_crOldColor$1$ = -84					; size = 4
_nOldBkMode$1$ = -80					; size = 4
_pOldPen$1$ = -76					; size = 4
tv540 = -72						; size = 4
_pDC$1$ = -68						; size = 4
_this$GSCopy$1$ = -64					; size = 4
_csText$ = -60						; size = 4
_ButtonRect$ = -56					; size = 16
_ptArray$3 = -40					; size = 24
$T4 = -32						; size = 16
_size$5 = -24						; size = 8
__$ArrayPad$ = -16					; size = 4
__$EHRec$ = -12						; size = 12
_lpDrawItemStruct$ = 8					; size = 4
?DrawItem@CDropButton@@UAEXPAUtagDRAWITEMSTRUCT@@@Z PROC ; CDropButton::DrawItem, COMDAT
; _this$ = ecx

; 553  : {

  00000	55		 push	 ebp
  00001	8b ec		 mov	 ebp, esp
  00003	6a ff		 push	 -1
  00005	68 00 00 00 00	 push	 __ehhandler$?DrawItem@CDropButton@@UAEXPAUtagDRAWITEMSTRUCT@@@Z
  0000a	64 a1 00 00 00
	00		 mov	 eax, DWORD PTR fs:0
  00010	50		 push	 eax
  00011	83 ec 50	 sub	 esp, 80			; 00000050H
  00014	a1 00 00 00 00	 mov	 eax, DWORD PTR ___security_cookie
  00019	33 c5		 xor	 eax, ebp
  0001b	89 45 f0	 mov	 DWORD PTR __$ArrayPad$[ebp], eax
  0001e	53		 push	 ebx
  0001f	56		 push	 esi
  00020	57		 push	 edi
  00021	50		 push	 eax
  00022	8d 45 f4	 lea	 eax, DWORD PTR __$EHRec$[ebp]
  00025	64 a3 00 00 00
	00		 mov	 DWORD PTR fs:0, eax
  0002b	8b d9		 mov	 ebx, ecx
  0002d	89 5d c0	 mov	 DWORD PTR _this$GSCopy$1$[ebp], ebx
  00030	8b 75 08	 mov	 esi, DWORD PTR _lpDrawItemStruct$[ebp]

; 554  : 	CDC*	pDC			= CDC::FromHandle(lpDrawItemStruct->hDC);

  00033	ff 76 18	 push	 DWORD PTR [esi+24]
  00036	e8 00 00 00 00	 call	 ?FromHandle@CDC@@SGPAV1@PAUHDC__@@@Z ; CDC::FromHandle
  0003b	8b f8		 mov	 edi, eax

; 555  : 	UINT	uState		= lpDrawItemStruct->itemState;
; 556  : 	CRect 	ButtonRect  = lpDrawItemStruct->rcItem;

  0003d	8d 56 1c	 lea	 edx, DWORD PTR [esi+28]
; File C:\Program Files (x86)\Microsoft Visual Studio\2019\Community\VC\Tools\MSVC\14.29.30133\atlmfc\include\atltypes.h

; 548  : 	::CopyRect(this, &srcRect);

  00040	52		 push	 edx
  00041	8d 45 c8	 lea	 eax, DWORD PTR _ButtonRect$[ebp]
; File D:\git\src\IBK\IBK_DRFN\ProjSrc\SrcChartEx\ChartAddIn\ChartEnvSetupDlgAddIn\ChartEnvSetupDlgAddIn\DropBtn.cpp

; 554  : 	CDC*	pDC			= CDC::FromHandle(lpDrawItemStruct->hDC);

  00044	89 7d bc	 mov	 DWORD PTR _pDC$1$[ebp], edi
; File C:\Program Files (x86)\Microsoft Visual Studio\2019\Community\VC\Tools\MSVC\14.29.30133\atlmfc\include\atltypes.h

; 548  : 	::CopyRect(this, &srcRect);

  00047	50		 push	 eax
  00048	ff 15 00 00 00
	00		 call	 DWORD PTR __imp__CopyRect@8
; File D:\git\src\IBK\IBK_DRFN\ProjSrc\SrcChartEx\ChartAddIn\ChartEnvSetupDlgAddIn\ChartEnvSetupDlgAddIn\DropBtn.cpp

; 561  : 	CPen*	pOldPen		= (CPen*)pDC->SelectObject(m_pBorderPen);

  0004e	ff b3 b4 00 00
	00		 push	 DWORD PTR [ebx+180]
  00054	8b cf		 mov	 ecx, edi
  00056	e8 00 00 00 00	 call	 ?SelectObject@CDC@@QAEPAVCPen@@PAV2@@Z ; CDC::SelectObject

; 562  : 	if(m_bOver)

  0005b	80 bb 8e 00 00
	00 00		 cmp	 BYTE PTR [ebx+142], 0
  00062	89 45 b4	 mov	 DWORD PTR _pOldPen$1$[ebp], eax
  00065	74 08		 je	 SHORT $LN2@DrawItem

; 563  : 		pOldBrush = (CBrush*)pDC->SelectObject(m_pBkOverBrush);

  00067	8b 8b c4 00 00
	00		 mov	 ecx, DWORD PTR [ebx+196]
  0006d	eb 06		 jmp	 SHORT $LN3@DrawItem
$LN2@DrawItem:

; 564  : 	else
; 565  : 		pOldBrush = (CBrush*)pDC->SelectObject(m_pBkBrush);

  0006f	8b 8b c0 00 00
	00		 mov	 ecx, DWORD PTR [ebx+192]
$LN3@DrawItem:
; File C:\Program Files (x86)\Microsoft Visual Studio\2019\Community\VC\Tools\MSVC\14.29.30133\atlmfc\include\afxwin1.inl

; 541  : 	{ ASSERT(m_hDC != NULL); return ::Rectangle(m_hDC, lpRect->left, lpRect->top,

  00075	51		 push	 ecx
  00076	8b cf		 mov	 ecx, edi
  00078	e8 00 00 00 00	 call	 ?SelectObject@CDC@@QAEPAVCBrush@@PAV2@@Z ; CDC::SelectObject
  0007d	ff 75 d4	 push	 DWORD PTR _ButtonRect$[ebp+12]
  00080	89 45 b8	 mov	 DWORD PTR tv540[ebp], eax
  00083	ff 75 d0	 push	 DWORD PTR _ButtonRect$[ebp+8]
  00086	ff 75 cc	 push	 DWORD PTR _ButtonRect$[ebp+4]
  00089	ff 75 c8	 push	 DWORD PTR _ButtonRect$[ebp]
  0008c	ff 77 04	 push	 DWORD PTR [edi+4]
  0008f	ff 15 00 00 00
	00		 call	 DWORD PTR __imp__Rectangle@20
; File D:\git\src\IBK\IBK_DRFN\ProjSrc\SrcChartEx\ChartAddIn\ChartEnvSetupDlgAddIn\ChartEnvSetupDlgAddIn\DropBtn.cpp

; 570  : 	CFont* pOldFont = (CFont*)pDC->SelectObject(m_pTextFont);

  00095	8b 07		 mov	 eax, DWORD PTR [edi]
  00097	8b cf		 mov	 ecx, edi
  00099	ff b3 bc 00 00
	00		 push	 DWORD PTR [ebx+188]
  0009f	ff 50 30	 call	 DWORD PTR [eax+48]
; File C:\Program Files (x86)\Microsoft Visual Studio\2019\Community\VC\Tools\MSVC\14.29.30133\atlmfc\include\afxwin1.inl

; 632  : 		VERIFY(::GetTextExtentPoint32(m_hAttribDC, lpszString, nCount, &size));

  000a2	8b 35 00 00 00
	00		 mov	 esi, DWORD PTR __imp__GetTextExtentPoint32A@16
; File D:\git\src\IBK\IBK_DRFN\ProjSrc\SrcChartEx\ChartAddIn\ChartEnvSetupDlgAddIn\ChartEnvSetupDlgAddIn\DropBtn.cpp

; 570  : 	CFont* pOldFont = (CFont*)pDC->SelectObject(m_pTextFont);

  000a8	89 45 a4	 mov	 DWORD PTR _pOldFont$1$[ebp], eax
; File C:\Program Files (x86)\Microsoft Visual Studio\2019\Community\VC\Tools\MSVC\14.29.30133\atlmfc\include\afxwin1.inl

; 632  : 		VERIFY(::GetTextExtentPoint32(m_hAttribDC, lpszString, nCount, &size));

  000ab	8d 45 e8	 lea	 eax, DWORD PTR _size$5[ebp]
  000ae	50		 push	 eax
  000af	6a 01		 push	 1
  000b1	68 00 00 00 00	 push	 OFFSET ??_C@_01PLPBNMEI@M@
  000b6	ff 77 08	 push	 DWORD PTR [edi+8]
  000b9	ff d6		 call	 esi
; File D:\git\src\IBK\IBK_DRFN\ProjSrc\SrcChartEx\ChartAddIn\ChartEnvSetupDlgAddIn\ChartEnvSetupDlgAddIn\DropBtn.cpp

; 572  : 	CString csText;

  000bb	8d 4d c4	 lea	 ecx, DWORD PTR _csText$[ebp]
  000be	ff 15 00 00 00
	00		 call	 DWORD PTR __imp_??0?$CStringT@DV?$StrTraitMFC_DLL@DV?$ChTraitsCRT@D@ATL@@@@@ATL@@QAE@XZ

; 573  : 	GetWindowText(csText);

  000c4	8d 45 c4	 lea	 eax, DWORD PTR _csText$[ebp]
  000c7	c7 45 fc 00 00
	00 00		 mov	 DWORD PTR __$EHRec$[ebp+8], 0
  000ce	50		 push	 eax
  000cf	8b cb		 mov	 ecx, ebx
  000d1	e8 00 00 00 00	 call	 ?GetWindowTextA@CWnd@@QBEXAAV?$CStringT@DV?$StrTraitMFC_DLL@DV?$ChTraitsCRT@D@ATL@@@@@ATL@@@Z ; CWnd::GetWindowTextA
; File C:\Program Files (x86)\Microsoft Visual Studio\2019\Community\VC\Tools\MSVC\14.29.30133\atlmfc\include\afxwin1.inl

; 632  : 		VERIFY(::GetTextExtentPoint32(m_hAttribDC, lpszString, nCount, &size));

  000d6	8d 45 a8	 lea	 eax, DWORD PTR _size$2[ebp]
  000d9	50		 push	 eax
  000da	8b 45 c4	 mov	 eax, DWORD PTR _csText$[ebp]
  000dd	ff 70 f4	 push	 DWORD PTR [eax-12]
  000e0	50		 push	 eax
  000e1	ff 77 08	 push	 DWORD PTR [edi+8]
  000e4	ff d6		 call	 esi
; File D:\git\src\IBK\IBK_DRFN\ProjSrc\SrcChartEx\ChartAddIn\ChartEnvSetupDlgAddIn\ChartEnvSetupDlgAddIn\DropBtn.cpp

; 578  : 	int nYStart = (ButtonRect.Height() - cText.cy) / 2;

  000e6	8b 45 d4	 mov	 eax, DWORD PTR _ButtonRect$[ebp+12]

; 579  : 	
; 580  : 	///////////////////////////////////////////////////
; 581  : 	// Set the Bk Mode and Transparenacy
; 582  : 	int	nOldBkMode		= pDC->SetBkMode(TRANSPARENT);

  000e9	8b cf		 mov	 ecx, edi
  000eb	2b 45 ac	 sub	 eax, DWORD PTR _size$2[ebp+4]
  000ee	2b 45 cc	 sub	 eax, DWORD PTR _ButtonRect$[ebp+4]
  000f1	99		 cdq
  000f2	2b c2		 sub	 eax, edx
  000f4	8b f0		 mov	 esi, eax
  000f6	6a 01		 push	 1
  000f8	d1 fe		 sar	 esi, 1
  000fa	e8 00 00 00 00	 call	 ?SetBkMode@CDC@@QAEHH@Z	; CDC::SetBkMode

; 583  : 	COLORREF crOldColor = pDC->SetTextColor(m_crTxtColor);

  000ff	8b 17		 mov	 edx, DWORD PTR [edi]
  00101	8b cf		 mov	 ecx, edi
  00103	ff b3 cc 00 00
	00		 push	 DWORD PTR [ebx+204]
  00109	89 45 b0	 mov	 DWORD PTR _nOldBkMode$1$[ebp], eax
  0010c	ff 52 38	 call	 DWORD PTR [edx+56]
; File C:\Program Files (x86)\Microsoft Visual Studio\2019\Community\VC\Tools\MSVC\14.29.30133\atlmfc\include\atltypes.h

; 408  : 	x = initX;

  0010f	8b 5d e8	 mov	 ebx, DWORD PTR _size$5[ebp]
  00112	8b 7d d0	 mov	 edi, DWORD PTR _ButtonRect$[ebp+8]
; File D:\git\src\IBK\IBK_DRFN\ProjSrc\SrcChartEx\ChartAddIn\ChartEnvSetupDlgAddIn\ChartEnvSetupDlgAddIn\DropBtn.cpp

; 583  : 	COLORREF crOldColor = pDC->SetTextColor(m_crTxtColor);

  00115	89 45 ac	 mov	 DWORD PTR _crOldColor$1$[ebp], eax
; File C:\Program Files (x86)\Microsoft Visual Studio\2019\Community\VC\Tools\MSVC\14.29.30133\atlmfc\include\atltypes.h

; 408  : 	x = initX;

  00118	2b fb		 sub	 edi, ebx
; File D:\git\src\IBK\IBK_DRFN\ProjSrc\SrcChartEx\ChartAddIn\ChartEnvSetupDlgAddIn\ChartEnvSetupDlgAddIn\DropBtn.cpp

; 587  : 	CPoint ptTri(ButtonRect.right - (cTri.cx + 5), nYStart + (cTri.cy / 3));

  0011a	b8 56 55 55 55	 mov	 eax, 1431655766		; 55555556H
  0011f	f7 6d ec	 imul	 DWORD PTR _size$5[ebp+4]
  00122	8d 4f fb	 lea	 ecx, DWORD PTR [edi-5]
  00125	8b c2		 mov	 eax, edx

; 607  : 	ptArray[0] 	 = ptTopLeft;

  00127	89 4d d8	 mov	 DWORD PTR _ptArray$3[ebp], ecx

; 587  : 	CPoint ptTri(ButtonRect.right - (cTri.cx + 5), nYStart + (cTri.cy / 3));

  0012a	c1 e8 1f	 shr	 eax, 31			; 0000001fH
  0012d	03 c2		 add	 eax, edx
  0012f	03 f0		 add	 esi, eax

; 608  : 	ptArray[1].x = ptTopLeft.x + nWidth - 1;

  00131	8d 43 ff	 lea	 eax, DWORD PTR [ebx-1]
  00134	03 c1		 add	 eax, ecx
  00136	89 75 dc	 mov	 DWORD PTR _ptArray$3[ebp+4], esi
  00139	89 45 e0	 mov	 DWORD PTR _ptArray$3[ebp+8], eax

; 609  : 	ptArray[1].y = ptTopLeft.y;
; 610  : 	ptArray[2].x = ptTopLeft.x + nWidth / 2;

  0013c	8d 4f fb	 lea	 ecx, DWORD PTR [edi-5]

; 611  : 	ptArray[2].y = ptTopLeft.y + nWidth / 2;
; 612  : 
; 613  : 	// Select the Brush and Draw the triangle
; 614  : 	pDC->SelectObject(m_pTriBrush);

  0013f	8b 7d bc	 mov	 edi, DWORD PTR _pDC$1$[ebp]
  00142	8b c3		 mov	 eax, ebx
  00144	99		 cdq
  00145	2b c2		 sub	 eax, edx
  00147	89 75 e4	 mov	 DWORD PTR _ptArray$3[ebp+12], esi
  0014a	d1 f8		 sar	 eax, 1
  0014c	03 c8		 add	 ecx, eax
  0014e	03 c6		 add	 eax, esi
  00150	8b 75 c0	 mov	 esi, DWORD PTR _this$GSCopy$1$[ebp]
  00153	89 4d e8	 mov	 DWORD PTR _ptArray$3[ebp+16], ecx
  00156	89 45 ec	 mov	 DWORD PTR _ptArray$3[ebp+20], eax
  00159	ff b6 c8 00 00
	00		 push	 DWORD PTR [esi+200]
  0015f	8b cf		 mov	 ecx, edi
  00161	e8 00 00 00 00	 call	 ?SelectObject@CDC@@QAEPAVCBrush@@PAV2@@Z ; CDC::SelectObject

; 615  : 	pDC->SelectObject(m_pTriPen);

  00166	ff b6 b8 00 00
	00		 push	 DWORD PTR [esi+184]
  0016c	8b cf		 mov	 ecx, edi
  0016e	e8 00 00 00 00	 call	 ?SelectObject@CDC@@QAEPAVCPen@@PAV2@@Z ; CDC::SelectObject
; File C:\Program Files (x86)\Microsoft Visual Studio\2019\Community\VC\Tools\MSVC\14.29.30133\atlmfc\include\afxwin1.inl

; 535  : 	{ ASSERT(m_hDC != NULL); return ::Polygon(m_hDC, lpPoints, nCount); }

  00173	6a 03		 push	 3
  00175	8d 45 d8	 lea	 eax, DWORD PTR _ptArray$3[ebp]
  00178	50		 push	 eax
  00179	ff 77 04	 push	 DWORD PTR [edi+4]
  0017c	ff 15 00 00 00
	00		 call	 DWORD PTR __imp__Polygon@12
; File D:\git\src\IBK\IBK_DRFN\ProjSrc\SrcChartEx\ChartAddIn\ChartEnvSetupDlgAddIn\ChartEnvSetupDlgAddIn\DropBtn.cpp

; 593  : 	pDC->DrawText(csText, csText.GetLength(), CRect(4, 0, m_WindowRect.right - (cTri.cx + 10), m_WindowRect.bottom), DT_LEFT|DT_VCENTER|DT_END_ELLIPSIS|DT_SINGLELINE);

  00182	8b 86 9c 00 00
	00		 mov	 eax, DWORD PTR [esi+156]
  00188	8b cf		 mov	 ecx, edi
  0018a	8b 17		 mov	 edx, DWORD PTR [edi]
  0018c	2b c3		 sub	 eax, ebx
  0018e	83 e8 0a	 sub	 eax, 10			; 0000000aH
; File C:\Program Files (x86)\Microsoft Visual Studio\2019\Community\VC\Tools\MSVC\14.29.30133\atlmfc\include\atltypes.h

; 540  : 	left = l;

  00191	c7 45 e0 04 00
	00 00		 mov	 DWORD PTR $T4[ebp], 4

; 542  : 	right = r;

  00198	89 45 e8	 mov	 DWORD PTR $T4[ebp+8], eax

; 543  : 	bottom = b;

  0019b	8b 86 a0 00 00
	00		 mov	 eax, DWORD PTR [esi+160]
  001a1	89 45 ec	 mov	 DWORD PTR $T4[ebp+12], eax
; File D:\git\src\IBK\IBK_DRFN\ProjSrc\SrcChartEx\ChartAddIn\ChartEnvSetupDlgAddIn\ChartEnvSetupDlgAddIn\DropBtn.cpp

; 593  : 	pDC->DrawText(csText, csText.GetLength(), CRect(4, 0, m_WindowRect.right - (cTri.cx + 10), m_WindowRect.bottom), DT_LEFT|DT_VCENTER|DT_END_ELLIPSIS|DT_SINGLELINE);

  001a4	8d 45 e0	 lea	 eax, DWORD PTR $T4[ebp]
  001a7	68 24 80 00 00	 push	 32804			; 00008024H
  001ac	50		 push	 eax
  001ad	8b 45 c4	 mov	 eax, DWORD PTR _csText$[ebp]
; File C:\Program Files (x86)\Microsoft Visual Studio\2019\Community\VC\Tools\MSVC\14.29.30133\atlmfc\include\atltypes.h

; 541  : 	top = t;

  001b0	c7 45 e4 00 00
	00 00		 mov	 DWORD PTR $T4[ebp+4], 0
; File D:\git\src\IBK\IBK_DRFN\ProjSrc\SrcChartEx\ChartAddIn\ChartEnvSetupDlgAddIn\ChartEnvSetupDlgAddIn\DropBtn.cpp

; 593  : 	pDC->DrawText(csText, csText.GetLength(), CRect(4, 0, m_WindowRect.right - (cTri.cx + 10), m_WindowRect.bottom), DT_LEFT|DT_VCENTER|DT_END_ELLIPSIS|DT_SINGLELINE);

  001b7	ff 70 f4	 push	 DWORD PTR [eax-12]
  001ba	50		 push	 eax
  001bb	ff 52 70	 call	 DWORD PTR [edx+112]

; 594  : 
; 595  : 	// Return what we used
; 596  : 	pDC->SelectObject(pOldBrush);

  001be	ff 75 b8	 push	 DWORD PTR tv540[ebp]
  001c1	8b cf		 mov	 ecx, edi
  001c3	e8 00 00 00 00	 call	 ?SelectObject@CDC@@QAEPAVCBrush@@PAV2@@Z ; CDC::SelectObject

; 597  : 	pDC->SelectObject(pOldPen);

  001c8	ff 75 b4	 push	 DWORD PTR _pOldPen$1$[ebp]
  001cb	8b cf		 mov	 ecx, edi
  001cd	e8 00 00 00 00	 call	 ?SelectObject@CDC@@QAEPAVCPen@@PAV2@@Z ; CDC::SelectObject

; 598  : 	pDC->SetBkMode(nOldBkMode);

  001d2	ff 75 b0	 push	 DWORD PTR _nOldBkMode$1$[ebp]
  001d5	8b cf		 mov	 ecx, edi
  001d7	e8 00 00 00 00	 call	 ?SetBkMode@CDC@@QAEHH@Z	; CDC::SetBkMode

; 599  : 	pDC->SetTextColor(crOldColor);

  001dc	8b 07		 mov	 eax, DWORD PTR [edi]
  001de	8b cf		 mov	 ecx, edi
  001e0	ff 75 ac	 push	 DWORD PTR _crOldColor$1$[ebp]
  001e3	ff 50 38	 call	 DWORD PTR [eax+56]

; 600  : 	pDC->SelectObject(pOldFont);

  001e6	8b 07		 mov	 eax, DWORD PTR [edi]
  001e8	8b cf		 mov	 ecx, edi
  001ea	ff 75 a4	 push	 DWORD PTR _pOldFont$1$[ebp]
  001ed	ff 50 30	 call	 DWORD PTR [eax+48]

; 601  : }

  001f0	8d 4d c4	 lea	 ecx, DWORD PTR _csText$[ebp]
  001f3	ff 15 00 00 00
	00		 call	 DWORD PTR __imp_??1?$CStringT@DV?$StrTraitMFC_DLL@DV?$ChTraitsCRT@D@ATL@@@@@ATL@@QAE@XZ
  001f9	8b 4d f4	 mov	 ecx, DWORD PTR __$EHRec$[ebp]
  001fc	64 89 0d 00 00
	00 00		 mov	 DWORD PTR fs:0, ecx
  00203	59		 pop	 ecx
  00204	5f		 pop	 edi
  00205	5e		 pop	 esi
  00206	5b		 pop	 ebx
  00207	8b 4d f0	 mov	 ecx, DWORD PTR __$ArrayPad$[ebp]
  0020a	33 cd		 xor	 ecx, ebp
  0020c	e8 00 00 00 00	 call	 @__security_check_cookie@4
  00211	8b e5		 mov	 esp, ebp
  00213	5d		 pop	 ebp
  00214	c2 04 00	 ret	 4
_TEXT	ENDS
;	COMDAT text$x
text$x	SEGMENT
__unwindfunclet$?DrawItem@CDropButton@@UAEXPAUtagDRAWITEMSTRUCT@@@Z$0:
  00000	8d 4d c4	 lea	 ecx, DWORD PTR _csText$[ebp]
  00003	ff 25 00 00 00
	00		 jmp	 DWORD PTR __imp_??1?$CStringT@DV?$StrTraitMFC_DLL@DV?$ChTraitsCRT@D@ATL@@@@@ATL@@QAE@XZ
  00009	cc		 int	 3
  0000a	cc		 int	 3
  0000b	cc		 int	 3
  0000c	cc		 int	 3
  0000d	cc		 int	 3
__ehhandler$?DrawItem@CDropButton@@UAEXPAUtagDRAWITEMSTRUCT@@@Z:
  0000e	90		 npad	 1
  0000f	90		 npad	 1
  00010	8b 54 24 08	 mov	 edx, DWORD PTR [esp+8]
  00014	8d 42 0c	 lea	 eax, DWORD PTR [edx+12]
  00017	8b 4a a0	 mov	 ecx, DWORD PTR [edx-96]
  0001a	33 c8		 xor	 ecx, eax
  0001c	e8 00 00 00 00	 call	 @__security_check_cookie@4
  00021	8b 4a fc	 mov	 ecx, DWORD PTR [edx-4]
  00024	33 c8		 xor	 ecx, eax
  00026	e8 00 00 00 00	 call	 @__security_check_cookie@4
  0002b	b8 00 00 00 00	 mov	 eax, OFFSET __ehfuncinfo$?DrawItem@CDropButton@@UAEXPAUtagDRAWITEMSTRUCT@@@Z
  00030	e9 00 00 00 00	 jmp	 ___CxxFrameHandler3
text$x	ENDS
?DrawItem@CDropButton@@UAEXPAUtagDRAWITEMSTRUCT@@@Z ENDP ; CDropButton::DrawItem
; Function compile flags: /Ogtp
; File D:\git\src\IBK\IBK_DRFN\ProjSrc\SrcChartEx\ChartAddIn\ChartEnvSetupDlgAddIn\ChartEnvSetupDlgAddIn\DropBtn.cpp
;	COMDAT ??1CDropButton@@UAE@XZ
_TEXT	SEGMENT
??1CDropButton@@UAE@XZ PROC				; CDropButton::~CDropButton, COMDAT
; _this$ = ecx

; 464  : {

  00000	56		 push	 esi
  00001	8b f1		 mov	 esi, ecx

; 465  : 	// Clean Up
; 466  : 	delete	m_pBkBrush;

  00003	8b 8e c0 00 00
	00		 mov	 ecx, DWORD PTR [esi+192]
  00009	c7 06 00 00 00
	00		 mov	 DWORD PTR [esi], OFFSET ??_7CDropButton@@6B@
  0000f	85 c9		 test	 ecx, ecx
  00011	74 07		 je	 SHORT $LN4@CDropButto
  00013	8b 01		 mov	 eax, DWORD PTR [ecx]
  00015	6a 01		 push	 1
  00017	ff 50 04	 call	 DWORD PTR [eax+4]
$LN4@CDropButto:

; 467  : 	delete	m_pBkOverBrush;

  0001a	8b 8e c4 00 00
	00		 mov	 ecx, DWORD PTR [esi+196]
  00020	85 c9		 test	 ecx, ecx
  00022	74 07		 je	 SHORT $LN6@CDropButto
  00024	8b 01		 mov	 eax, DWORD PTR [ecx]
  00026	6a 01		 push	 1
  00028	ff 50 04	 call	 DWORD PTR [eax+4]
$LN6@CDropButto:

; 468  : 	delete	m_pBorderPen;

  0002b	8b 8e b4 00 00
	00		 mov	 ecx, DWORD PTR [esi+180]
  00031	85 c9		 test	 ecx, ecx
  00033	74 07		 je	 SHORT $LN8@CDropButto
  00035	8b 01		 mov	 eax, DWORD PTR [ecx]
  00037	6a 01		 push	 1
  00039	ff 50 04	 call	 DWORD PTR [eax+4]
$LN8@CDropButto:

; 469  : 	delete	m_pTriBrush;

  0003c	8b 8e c8 00 00
	00		 mov	 ecx, DWORD PTR [esi+200]
  00042	85 c9		 test	 ecx, ecx
  00044	74 07		 je	 SHORT $LN10@CDropButto
  00046	8b 01		 mov	 eax, DWORD PTR [ecx]
  00048	6a 01		 push	 1
  0004a	ff 50 04	 call	 DWORD PTR [eax+4]
$LN10@CDropButto:

; 470  : 	delete	m_pTriPen;

  0004d	8b 8e b8 00 00
	00		 mov	 ecx, DWORD PTR [esi+184]
  00053	85 c9		 test	 ecx, ecx
  00055	74 07		 je	 SHORT $LN12@CDropButto
  00057	8b 01		 mov	 eax, DWORD PTR [ecx]
  00059	6a 01		 push	 1
  0005b	ff 50 04	 call	 DWORD PTR [eax+4]
$LN12@CDropButto:

; 471  : 	
; 472  : 	delete	m_pDropWnd;

  0005e	8b 8e d4 00 00
	00		 mov	 ecx, DWORD PTR [esi+212]
  00064	85 c9		 test	 ecx, ecx
  00066	74 07		 je	 SHORT $LN14@CDropButto
  00068	8b 01		 mov	 eax, DWORD PTR [ecx]
  0006a	6a 01		 push	 1
  0006c	ff 50 04	 call	 DWORD PTR [eax+4]
$LN14@CDropButto:

; 473  : 	if(m_bDeleteFont) delete m_pTextFont;

  0006f	80 be 8c 00 00
	00 00		 cmp	 BYTE PTR [esi+140], 0
  00076	74 11		 je	 SHORT $LN16@CDropButto
  00078	8b 8e bc 00 00
	00		 mov	 ecx, DWORD PTR [esi+188]
  0007e	85 c9		 test	 ecx, ecx
  00080	74 07		 je	 SHORT $LN16@CDropButto
  00082	8b 01		 mov	 eax, DWORD PTR [ecx]
  00084	6a 01		 push	 1
  00086	ff 50 04	 call	 DWORD PTR [eax+4]
$LN16@CDropButto:

; 474  : }

  00089	8b ce		 mov	 ecx, esi
  0008b	5e		 pop	 esi
  0008c	e9 00 00 00 00	 jmp	 ??1CButton@@UAE@XZ	; CButton::~CButton
??1CDropButton@@UAE@XZ ENDP				; CDropButton::~CDropButton
_TEXT	ENDS
; Function compile flags: /Ogtp
; File D:\git\src\IBK\IBK_DRFN\ProjSrc\SrcChartEx\ChartAddIn\ChartEnvSetupDlgAddIn\ChartEnvSetupDlgAddIn\DropBtn.cpp
; File C:\Program Files (x86)\Microsoft Visual Studio\2019\Community\VC\Tools\MSVC\14.29.30133\atlmfc\include\afx.inl
; File D:\git\src\IBK\IBK_DRFN\ProjSrc\SrcChartEx\ChartAddIn\ChartEnvSetupDlgAddIn\ChartEnvSetupDlgAddIn\DropBtn.cpp
; File C:\Program Files (x86)\Microsoft Visual Studio\2019\Community\VC\Tools\MSVC\14.29.30133\atlmfc\include\afx.inl
; File D:\git\src\IBK\IBK_DRFN\ProjSrc\SrcChartEx\ChartAddIn\ChartEnvSetupDlgAddIn\ChartEnvSetupDlgAddIn\DropBtn.cpp
; File C:\Program Files (x86)\Microsoft Visual Studio\2019\Community\VC\Tools\MSVC\14.29.30133\atlmfc\include\afx.inl
; File D:\git\src\IBK\IBK_DRFN\ProjSrc\SrcChartEx\ChartAddIn\ChartEnvSetupDlgAddIn\ChartEnvSetupDlgAddIn\DropBtn.cpp
; File C:\Program Files (x86)\Microsoft Visual Studio\2019\Community\VC\Tools\MSVC\14.29.30133\atlmfc\include\afx.inl
; File D:\git\src\IBK\IBK_DRFN\ProjSrc\SrcChartEx\ChartAddIn\ChartEnvSetupDlgAddIn\ChartEnvSetupDlgAddIn\DropBtn.cpp
; File C:\Program Files (x86)\Microsoft Visual Studio\2019\Community\VC\Tools\MSVC\14.29.30133\atlmfc\include\afx.inl
; File D:\git\src\IBK\IBK_DRFN\ProjSrc\SrcChartEx\ChartAddIn\ChartEnvSetupDlgAddIn\ChartEnvSetupDlgAddIn\DropBtn.cpp
; File C:\Program Files (x86)\Microsoft Visual Studio\2019\Community\VC\Tools\MSVC\14.29.30133\atlmfc\include\afx.inl
; File D:\git\src\IBK\IBK_DRFN\ProjSrc\SrcChartEx\ChartAddIn\ChartEnvSetupDlgAddIn\ChartEnvSetupDlgAddIn\DropBtn.cpp
; File C:\Program Files (x86)\Microsoft Visual Studio\2019\Community\VC\Tools\MSVC\14.29.30133\atlmfc\include\afx.inl
; File D:\git\src\IBK\IBK_DRFN\ProjSrc\SrcChartEx\ChartAddIn\ChartEnvSetupDlgAddIn\ChartEnvSetupDlgAddIn\DropBtn.cpp
; File C:\Program Files (x86)\Microsoft Visual Studio\2019\Community\VC\Tools\MSVC\14.29.30133\atlmfc\include\afx.inl
; File D:\git\src\IBK\IBK_DRFN\ProjSrc\SrcChartEx\ChartAddIn\ChartEnvSetupDlgAddIn\ChartEnvSetupDlgAddIn\DropBtn.cpp
; File C:\Program Files (x86)\Microsoft Visual Studio\2019\Community\VC\Tools\MSVC\14.29.30133\atlmfc\include\afxwin1.inl
; File D:\git\src\IBK\IBK_DRFN\ProjSrc\SrcChartEx\ChartAddIn\ChartEnvSetupDlgAddIn\ChartEnvSetupDlgAddIn\DropBtn.cpp
; File C:\Program Files (x86)\Microsoft Visual Studio\2019\Community\VC\Tools\MSVC\14.29.30133\atlmfc\include\afxwin1.inl
; File D:\git\src\IBK\IBK_DRFN\ProjSrc\SrcChartEx\ChartAddIn\ChartEnvSetupDlgAddIn\ChartEnvSetupDlgAddIn\DropBtn.cpp
; File C:\Program Files (x86)\Microsoft Visual Studio\2019\Community\VC\Tools\MSVC\14.29.30133\atlmfc\include\afxwin1.inl
; File D:\git\src\IBK\IBK_DRFN\ProjSrc\SrcChartEx\ChartAddIn\ChartEnvSetupDlgAddIn\ChartEnvSetupDlgAddIn\DropBtn.cpp
; File C:\Program Files (x86)\Microsoft Visual Studio\2019\Community\VC\Tools\MSVC\14.29.30133\atlmfc\include\afx.inl
; File D:\git\src\IBK\IBK_DRFN\ProjSrc\SrcChartEx\ChartAddIn\ChartEnvSetupDlgAddIn\ChartEnvSetupDlgAddIn\DropBtn.cpp
; File C:\Program Files (x86)\Microsoft Visual Studio\2019\Community\VC\Tools\MSVC\14.29.30133\atlmfc\include\afx.inl
; File D:\git\src\IBK\IBK_DRFN\ProjSrc\SrcChartEx\ChartAddIn\ChartEnvSetupDlgAddIn\ChartEnvSetupDlgAddIn\DropBtn.cpp
; File C:\Program Files (x86)\Microsoft Visual Studio\2019\Community\VC\Tools\MSVC\14.29.30133\atlmfc\include\afx.inl
; File D:\git\src\IBK\IBK_DRFN\ProjSrc\SrcChartEx\ChartAddIn\ChartEnvSetupDlgAddIn\ChartEnvSetupDlgAddIn\DropBtn.cpp
; File C:\Program Files (x86)\Microsoft Visual Studio\2019\Community\VC\Tools\MSVC\14.29.30133\atlmfc\include\afx.inl
; File D:\git\src\IBK\IBK_DRFN\ProjSrc\SrcChartEx\ChartAddIn\ChartEnvSetupDlgAddIn\ChartEnvSetupDlgAddIn\DropBtn.cpp
; File C:\Program Files (x86)\Microsoft Visual Studio\2019\Community\VC\Tools\MSVC\14.29.30133\atlmfc\include\afxwin2.inl
; File C:\Program Files (x86)\Microsoft Visual Studio\2019\Community\VC\Tools\MSVC\14.29.30133\atlmfc\include\atltypes.h
; File C:\Program Files (x86)\Microsoft Visual Studio\2019\Community\VC\Tools\MSVC\14.29.30133\atlmfc\include\afx.inl
; File D:\git\src\IBK\IBK_DRFN\ProjSrc\SrcChartEx\ChartAddIn\ChartEnvSetupDlgAddIn\ChartEnvSetupDlgAddIn\DropBtn.cpp
; File C:\Program Files (x86)\Microsoft Visual Studio\2019\Community\VC\Tools\MSVC\14.29.30133\atlmfc\include\afx.inl
; File D:\git\src\IBK\IBK_DRFN\ProjSrc\SrcChartEx\ChartAddIn\ChartEnvSetupDlgAddIn\ChartEnvSetupDlgAddIn\DropBtn.cpp
; File C:\Program Files (x86)\Microsoft Visual Studio\2019\Community\VC\Tools\MSVC\14.29.30133\atlmfc\include\afx.inl
; File D:\git\src\IBK\IBK_DRFN\ProjSrc\SrcChartEx\ChartAddIn\ChartEnvSetupDlgAddIn\ChartEnvSetupDlgAddIn\DropBtn.cpp
; File C:\Program Files (x86)\Microsoft Visual Studio\2019\Community\VC\Tools\MSVC\14.29.30133\atlmfc\include\afx.inl
; File D:\git\src\IBK\IBK_DRFN\ProjSrc\SrcChartEx\ChartAddIn\ChartEnvSetupDlgAddIn\ChartEnvSetupDlgAddIn\DropBtn.cpp
; File C:\Program Files (x86)\Microsoft Visual Studio\2019\Community\VC\Tools\MSVC\14.29.30133\atlmfc\include\afx.inl
; File D:\git\src\IBK\IBK_DRFN\ProjSrc\SrcChartEx\ChartAddIn\ChartEnvSetupDlgAddIn\ChartEnvSetupDlgAddIn\DropBtn.cpp
; File C:\Program Files (x86)\Microsoft Visual Studio\2019\Community\VC\Tools\MSVC\14.29.30133\atlmfc\include\afxwin2.inl
; File D:\git\src\IBK\IBK_DRFN\ProjSrc\SrcChartEx\ChartAddIn\ChartEnvSetupDlgAddIn\ChartEnvSetupDlgAddIn\DropBtn.cpp
; File C:\Program Files (x86)\Microsoft Visual Studio\2019\Community\VC\Tools\MSVC\14.29.30133\atlmfc\include\atltypes.h
; File D:\git\src\IBK\IBK_DRFN\ProjSrc\SrcChartEx\ChartAddIn\ChartEnvSetupDlgAddIn\ChartEnvSetupDlgAddIn\DropBtn.cpp
; File C:\Program Files (x86)\Microsoft Visual Studio\2019\Community\VC\Tools\MSVC\14.29.30133\atlmfc\include\atltypes.h
; File D:\git\src\IBK\IBK_DRFN\ProjSrc\SrcChartEx\ChartAddIn\ChartEnvSetupDlgAddIn\ChartEnvSetupDlgAddIn\DropBtn.cpp
; File C:\Program Files (x86)\Microsoft Visual Studio\2019\Community\VC\Tools\MSVC\14.29.30133\atlmfc\include\afxwin1.inl
; File C:\Program Files (x86)\Microsoft Visual Studio\2019\Community\VC\Tools\MSVC\14.29.30133\atlmfc\include\afxwin2.inl
; File D:\git\src\IBK\IBK_DRFN\ProjSrc\SrcChartEx\ChartAddIn\ChartEnvSetupDlgAddIn\ChartEnvSetupDlgAddIn\DropBtn.cpp
; File C:\Program Files (x86)\Microsoft Visual Studio\2019\Community\VC\Tools\MSVC\14.29.30133\atlmfc\include\afxwin1.inl
; File C:\Program Files (x86)\Microsoft Visual Studio\2019\Community\VC\Tools\MSVC\14.29.30133\atlmfc\include\afx.inl
; File D:\git\src\IBK\IBK_DRFN\ProjSrc\SrcChartEx\ChartAddIn\ChartEnvSetupDlgAddIn\ChartEnvSetupDlgAddIn\DropBtn.cpp
; File C:\Program Files (x86)\Microsoft Visual Studio\2019\Community\VC\Tools\MSVC\14.29.30133\atlmfc\include\afx.inl
; File D:\git\src\IBK\IBK_DRFN\ProjSrc\SrcChartEx\ChartAddIn\ChartEnvSetupDlgAddIn\ChartEnvSetupDlgAddIn\DropBtn.cpp
; File C:\Program Files (x86)\Microsoft Visual Studio\2019\Community\VC\Tools\MSVC\14.29.30133\atlmfc\include\afx.inl
; File D:\git\src\IBK\IBK_DRFN\ProjSrc\SrcChartEx\ChartAddIn\ChartEnvSetupDlgAddIn\ChartEnvSetupDlgAddIn\DropBtn.cpp
; File C:\Program Files (x86)\Microsoft Visual Studio\2019\Community\VC\Tools\MSVC\14.29.30133\atlmfc\include\afxwin1.inl
; File D:\git\src\IBK\IBK_DRFN\ProjSrc\SrcChartEx\ChartAddIn\ChartEnvSetupDlgAddIn\ChartEnvSetupDlgAddIn\DropBtn.cpp
; File C:\Program Files (x86)\Microsoft Visual Studio\2019\Community\VC\Tools\MSVC\14.29.30133\atlmfc\include\afxwin1.inl
; File D:\git\src\IBK\IBK_DRFN\ProjSrc\SrcChartEx\ChartAddIn\ChartEnvSetupDlgAddIn\ChartEnvSetupDlgAddIn\DropBtn.cpp
; File C:\Program Files (x86)\Microsoft Visual Studio\2019\Community\VC\Tools\MSVC\14.29.30133\atlmfc\include\afxwin1.inl
; File C:\Program Files (x86)\Microsoft Visual Studio\2019\Community\VC\Tools\MSVC\14.29.30133\atlmfc\include\afxwin2.inl
; File D:\git\src\IBK\IBK_DRFN\ProjSrc\SrcChartEx\ChartAddIn\ChartEnvSetupDlgAddIn\ChartEnvSetupDlgAddIn\DropBtn.cpp
; File C:\Program Files (x86)\Microsoft Visual Studio\2019\Community\VC\Tools\MSVC\14.29.30133\atlmfc\include\afx.inl
; File D:\git\src\IBK\IBK_DRFN\ProjSrc\SrcChartEx\ChartAddIn\ChartEnvSetupDlgAddIn\ChartEnvSetupDlgAddIn\DropBtn.cpp
; File C:\Program Files (x86)\Microsoft Visual Studio\2019\Community\VC\Tools\MSVC\14.29.30133\atlmfc\include\afx.inl
; File D:\git\src\IBK\IBK_DRFN\ProjSrc\SrcChartEx\ChartAddIn\ChartEnvSetupDlgAddIn\ChartEnvSetupDlgAddIn\DropBtn.cpp
; File C:\Program Files (x86)\Microsoft Visual Studio\2019\Community\VC\Tools\MSVC\14.29.30133\atlmfc\include\afx.inl
; File D:\git\src\IBK\IBK_DRFN\ProjSrc\SrcChartEx\ChartAddIn\ChartEnvSetupDlgAddIn\ChartEnvSetupDlgAddIn\DropBtn.cpp
; File C:\Program Files (x86)\Microsoft Visual Studio\2019\Community\VC\Tools\MSVC\14.29.30133\atlmfc\include\afxwin2.inl
; File D:\git\src\IBK\IBK_DRFN\ProjSrc\SrcChartEx\ChartAddIn\ChartEnvSetupDlgAddIn\ChartEnvSetupDlgAddIn\DropBtn.cpp
; File C:\Program Files (x86)\Microsoft Visual Studio\2019\Community\VC\Tools\MSVC\14.29.30133\atlmfc\include\afxwin2.inl
; File D:\git\src\IBK\IBK_DRFN\ProjSrc\SrcChartEx\ChartAddIn\ChartEnvSetupDlgAddIn\ChartEnvSetupDlgAddIn\DropBtn.cpp
;	COMDAT ?Create@CDropButton@@QAEHV?$CStringT@DV?$StrTraitMFC_DLL@DV?$ChTraitsCRT@D@ATL@@@@@ATL@@VCRect@@PAVCWnd@@IKKKKPAVCFont@@K@Z
_TEXT	SEGMENT
_pParent$GSCopy$1$ = -104				; size = 4
$T2 = -100						; size = 4
$T3 = -100						; size = 4
$T4 = -100						; size = 4
$T5 = -100						; size = 4
_csWndClassName$6 = -96					; size = 4
$T7 = -96						; size = 4
$T8 = -96						; size = 4
$T9 = -96						; size = 4
$T10 = -96						; size = 4
$T11 = -96						; size = 4
$T12 = -96						; size = 4
$T13 = -96						; size = 4
$T14 = -96						; size = 4
$T15 = -96						; size = 4
_lpLogFont$16 = -92					; size = 60
$T17 = -32						; size = 16
__$ArrayPad$ = -16					; size = 4
__$EHRec$ = -12						; size = 12
_csCaption$ = 8						; size = 4
_Rect$ = 12						; size = 16
_pParent$ = 28						; size = 4
_uID$ = 32						; size = 4
_crBkColor$ = 36					; size = 4
_crBkOverColor$ = 40					; size = 4
_crTxtColor$ = 44					; size = 4
_crTxtOverColor$ = 48					; size = 4
_pTextFont$ = 52					; size = 4
_crBkListColor$ = 56					; size = 4
?Create@CDropButton@@QAEHV?$CStringT@DV?$StrTraitMFC_DLL@DV?$ChTraitsCRT@D@ATL@@@@@ATL@@VCRect@@PAVCWnd@@IKKKKPAVCFont@@K@Z PROC ; CDropButton::Create, COMDAT
; _this$ = ecx

; 489  : {

  00000	55		 push	 ebp
  00001	8b ec		 mov	 ebp, esp
  00003	6a ff		 push	 -1
  00005	68 00 00 00 00	 push	 __ehhandler$?Create@CDropButton@@QAEHV?$CStringT@DV?$StrTraitMFC_DLL@DV?$ChTraitsCRT@D@ATL@@@@@ATL@@VCRect@@PAVCWnd@@IKKKKPAVCFont@@K@Z
  0000a	64 a1 00 00 00
	00		 mov	 eax, DWORD PTR fs:0
  00010	50		 push	 eax
  00011	83 ec 5c	 sub	 esp, 92			; 0000005cH
  00014	a1 00 00 00 00	 mov	 eax, DWORD PTR ___security_cookie
  00019	33 c5		 xor	 eax, ebp
  0001b	89 45 f0	 mov	 DWORD PTR __$ArrayPad$[ebp], eax
  0001e	53		 push	 ebx
  0001f	56		 push	 esi
  00020	57		 push	 edi
  00021	50		 push	 eax
  00022	8d 45 f4	 lea	 eax, DWORD PTR __$EHRec$[ebp]
  00025	64 a3 00 00 00
	00		 mov	 DWORD PTR fs:0, eax
  0002b	8b f9		 mov	 edi, ecx
  0002d	8b 45 1c	 mov	 eax, DWORD PTR _pParent$[ebp]
  00030	8b 75 24	 mov	 esi, DWORD PTR _crBkColor$[ebp]
  00033	8b 5d 28	 mov	 ebx, DWORD PTR _crBkOverColor$[ebp]
  00036	89 45 98	 mov	 DWORD PTR _pParent$GSCopy$1$[ebp], eax
  00039	6a 08		 push	 8
  0003b	c7 45 fc 00 00
	00 00		 mov	 DWORD PTR __$EHRec$[ebp+8], 0
  00042	e8 00 00 00 00	 call	 ??2@YAPAXI@Z		; operator new
  00047	83 c4 04	 add	 esp, 4

; 490  : 	// Create the Correct Brush for the background Fill
; 491  :     if(crBkColor == -1)

  0004a	89 45 a0	 mov	 DWORD PTR $T15[ebp], eax
  0004d	83 fe ff	 cmp	 esi, -1
  00050	75 45		 jne	 SHORT $LN2@Create

; 493  : 		m_pBkBrush = new CBrush(RGB(221,217,205));

  00052	c6 45 fc 01	 mov	 BYTE PTR __$EHRec$[ebp+8], 1
  00056	85 c0		 test	 eax, eax
  00058	74 0e		 je	 SHORT $LN10@Create
  0005a	68 dd d9 cd 00	 push	 13490653		; 00cdd9ddH
  0005f	8b c8		 mov	 ecx, eax
  00061	e8 00 00 00 00	 call	 ??0CBrush@@QAE@K@Z	; CBrush::CBrush
  00066	eb 02		 jmp	 SHORT $LN11@Create
$LN10@Create:
  00068	33 c0		 xor	 eax, eax
$LN11@Create:
; File C:\Program Files (x86)\Microsoft Visual Studio\2019\Community\VC\Tools\MSVC\14.29.30133\atlmfc\include\afx.inl

; 116  : 	{ return ::operator new(nSize); }

  0006a	6a 08		 push	 8
; File D:\git\src\IBK\IBK_DRFN\ProjSrc\SrcChartEx\ChartAddIn\ChartEnvSetupDlgAddIn\ChartEnvSetupDlgAddIn\DropBtn.cpp

; 493  : 		m_pBkBrush = new CBrush(RGB(221,217,205));

  0006c	c6 45 fc 00	 mov	 BYTE PTR __$EHRec$[ebp+8], 0
  00070	89 87 c0 00 00
	00		 mov	 DWORD PTR [edi+192], eax
; File C:\Program Files (x86)\Microsoft Visual Studio\2019\Community\VC\Tools\MSVC\14.29.30133\atlmfc\include\afx.inl

; 116  : 	{ return ::operator new(nSize); }

  00076	e8 00 00 00 00	 call	 ??2@YAPAXI@Z		; operator new
  0007b	83 c4 04	 add	 esp, 4
; File D:\git\src\IBK\IBK_DRFN\ProjSrc\SrcChartEx\ChartAddIn\ChartEnvSetupDlgAddIn\ChartEnvSetupDlgAddIn\DropBtn.cpp

; 494  : 		m_pBkOverBrush = new CBrush(RGB(233,229,217));		

  0007e	89 45 a0	 mov	 DWORD PTR $T14[ebp], eax
  00081	c6 45 fc 02	 mov	 BYTE PTR __$EHRec$[ebp+8], 2
  00085	85 c0		 test	 eax, eax
  00087	74 4b		 je	 SHORT $LN16@Create
  00089	68 e9 e5 d9 00	 push	 14280169		; 00d9e5e9H
  0008e	8b c8		 mov	 ecx, eax
  00090	e8 00 00 00 00	 call	 ??0CBrush@@QAE@K@Z	; CBrush::CBrush
  00095	eb 3f		 jmp	 SHORT $LN17@Create
$LN2@Create:

; 498  : 		m_pBkBrush = new CBrush(crBkColor);

  00097	c6 45 fc 03	 mov	 BYTE PTR __$EHRec$[ebp+8], 3
  0009b	85 c0		 test	 eax, eax
  0009d	74 0a		 je	 SHORT $LN14@Create
  0009f	56		 push	 esi
  000a0	8b c8		 mov	 ecx, eax
  000a2	e8 00 00 00 00	 call	 ??0CBrush@@QAE@K@Z	; CBrush::CBrush
  000a7	eb 02		 jmp	 SHORT $LN15@Create
$LN14@Create:
  000a9	33 c0		 xor	 eax, eax
$LN15@Create:
; File C:\Program Files (x86)\Microsoft Visual Studio\2019\Community\VC\Tools\MSVC\14.29.30133\atlmfc\include\afx.inl

; 116  : 	{ return ::operator new(nSize); }

  000ab	6a 08		 push	 8
; File D:\git\src\IBK\IBK_DRFN\ProjSrc\SrcChartEx\ChartAddIn\ChartEnvSetupDlgAddIn\ChartEnvSetupDlgAddIn\DropBtn.cpp

; 498  : 		m_pBkBrush = new CBrush(crBkColor);

  000ad	c6 45 fc 00	 mov	 BYTE PTR __$EHRec$[ebp+8], 0
  000b1	89 87 c0 00 00
	00		 mov	 DWORD PTR [edi+192], eax
; File C:\Program Files (x86)\Microsoft Visual Studio\2019\Community\VC\Tools\MSVC\14.29.30133\atlmfc\include\afx.inl

; 116  : 	{ return ::operator new(nSize); }

  000b7	e8 00 00 00 00	 call	 ??2@YAPAXI@Z		; operator new
  000bc	83 c4 04	 add	 esp, 4
; File D:\git\src\IBK\IBK_DRFN\ProjSrc\SrcChartEx\ChartAddIn\ChartEnvSetupDlgAddIn\ChartEnvSetupDlgAddIn\DropBtn.cpp

; 499  : 		m_pBkOverBrush = new CBrush(crBkOverColor);		

  000bf	89 45 a0	 mov	 DWORD PTR $T12[ebp], eax
  000c2	c6 45 fc 04	 mov	 BYTE PTR __$EHRec$[ebp+8], 4
  000c6	85 c0		 test	 eax, eax
  000c8	74 0a		 je	 SHORT $LN16@Create
  000ca	53		 push	 ebx
  000cb	8b c8		 mov	 ecx, eax
  000cd	e8 00 00 00 00	 call	 ??0CBrush@@QAE@K@Z	; CBrush::CBrush
  000d2	eb 02		 jmp	 SHORT $LN17@Create
$LN16@Create:
; File C:\Program Files (x86)\Microsoft Visual Studio\2019\Community\VC\Tools\MSVC\14.29.30133\atlmfc\include\afx.inl

; 116  : 	{ return ::operator new(nSize); }

  000d4	33 c0		 xor	 eax, eax
$LN17@Create:
  000d6	c6 45 fc 00	 mov	 BYTE PTR __$EHRec$[ebp+8], 0
  000da	6a 08		 push	 8
  000dc	89 87 c4 00 00
	00		 mov	 DWORD PTR [edi+196], eax
  000e2	e8 00 00 00 00	 call	 ??2@YAPAXI@Z		; operator new
  000e7	83 c4 04	 add	 esp, 4
; File D:\git\src\IBK\IBK_DRFN\ProjSrc\SrcChartEx\ChartAddIn\ChartEnvSetupDlgAddIn\ChartEnvSetupDlgAddIn\DropBtn.cpp

; 503  : 	m_pBorderPen = new CPen(PS_SOLID, 1, RGB(0,0,0));

  000ea	89 45 a0	 mov	 DWORD PTR $T11[ebp], eax
  000ed	c6 45 fc 05	 mov	 BYTE PTR __$EHRec$[ebp+8], 5
  000f1	85 c0		 test	 eax, eax
  000f3	74 0f		 je	 SHORT $LN18@Create
  000f5	6a 00		 push	 0
  000f7	6a 01		 push	 1
  000f9	6a 00		 push	 0
  000fb	8b c8		 mov	 ecx, eax
  000fd	e8 00 00 00 00	 call	 ??0CPen@@QAE@HHK@Z	; CPen::CPen
  00102	eb 02		 jmp	 SHORT $LN19@Create
$LN18@Create:
  00104	33 c0		 xor	 eax, eax
$LN19@Create:
  00106	89 87 b4 00 00
	00		 mov	 DWORD PTR [edi+180], eax

; 504  : 
; 505  :     // Save the Button Font
; 506  :     m_pTextFont = pTextFont;

  0010c	8b 45 34	 mov	 eax, DWORD PTR _pTextFont$[ebp]
  0010f	c6 45 fc 00	 mov	 BYTE PTR __$EHRec$[ebp+8], 0
  00113	89 87 bc 00 00
	00		 mov	 DWORD PTR [edi+188], eax

; 507  :     if(!m_pTextFont)

  00119	85 c0		 test	 eax, eax
  0011b	75 61		 jne	 SHORT $LN4@Create
; File C:\Program Files (x86)\Microsoft Visual Studio\2019\Community\VC\Tools\MSVC\14.29.30133\atlmfc\include\afx.inl

; 116  : 	{ return ::operator new(nSize); }

  0011d	6a 08		 push	 8
; File D:\git\src\IBK\IBK_DRFN\ProjSrc\SrcChartEx\ChartAddIn\ChartEnvSetupDlgAddIn\ChartEnvSetupDlgAddIn\DropBtn.cpp

; 509  :         m_bDeleteFont = true;

  0011f	c6 87 8c 00 00
	00 01		 mov	 BYTE PTR [edi+140], 1
; File C:\Program Files (x86)\Microsoft Visual Studio\2019\Community\VC\Tools\MSVC\14.29.30133\atlmfc\include\afx.inl

; 116  : 	{ return ::operator new(nSize); }

  00126	e8 00 00 00 00	 call	 ??2@YAPAXI@Z		; operator new
; File D:\git\src\IBK\IBK_DRFN\ProjSrc\SrcChartEx\ChartAddIn\ChartEnvSetupDlgAddIn\ChartEnvSetupDlgAddIn\DropBtn.cpp

; 510  :         m_pTextFont = new CFont();

  0012b	8b f0		 mov	 esi, eax
; File C:\Program Files (x86)\Microsoft Visual Studio\2019\Community\VC\Tools\MSVC\14.29.30133\atlmfc\include\afx.inl

; 116  : 	{ return ::operator new(nSize); }

  0012d	83 c4 04	 add	 esp, 4
; File D:\git\src\IBK\IBK_DRFN\ProjSrc\SrcChartEx\ChartAddIn\ChartEnvSetupDlgAddIn\ChartEnvSetupDlgAddIn\DropBtn.cpp

; 510  :         m_pTextFont = new CFont();

  00130	89 75 a0	 mov	 DWORD PTR $T10[ebp], esi
  00133	85 f6		 test	 esi, esi
  00135	74 0f		 je	 SHORT $LN20@Create
; File C:\Program Files (x86)\Microsoft Visual Studio\2019\Community\VC\Tools\MSVC\14.29.30133\atlmfc\include\afxwin1.inl

; 70   : 	{ m_hObject = NULL; }

  00137	c7 46 04 00 00
	00 00		 mov	 DWORD PTR [esi+4], 0

; 153  : 	{ }

  0013e	c7 06 00 00 00
	00		 mov	 DWORD PTR [esi], OFFSET ??_7CFont@@6B@
; File D:\git\src\IBK\IBK_DRFN\ProjSrc\SrcChartEx\ChartAddIn\ChartEnvSetupDlgAddIn\ChartEnvSetupDlgAddIn\DropBtn.cpp

; 510  :         m_pTextFont = new CFont();

  00144	eb 02		 jmp	 SHORT $LN21@Create
$LN20@Create:
  00146	33 f6		 xor	 esi, esi
$LN21@Create:
; File C:\Program Files (x86)\Microsoft Visual Studio\2019\Community\VC\Tools\MSVC\14.29.30133\atlmfc\include\afxwin1.inl

; 163  : 	{ return Attach(::CreateFont(nHeight, nWidth, nEscapement,

  00148	68 00 00 00 00	 push	 OFFSET ??_C@_05MPFIAJAP@Arial@
  0014d	6a 22		 push	 34			; 00000022H
  0014f	6a 01		 push	 1
  00151	6a 10		 push	 16			; 00000010H
  00153	6a 02		 push	 2
  00155	6a 00		 push	 0
  00157	6a 00		 push	 0
  00159	6a 00		 push	 0
  0015b	6a 00		 push	 0
  0015d	68 90 01 00 00	 push	 400			; 00000190H
  00162	6a 00		 push	 0
  00164	6a 00		 push	 0
  00166	6a 00		 push	 0
  00168	6a 0f		 push	 15			; 0000000fH
; File D:\git\src\IBK\IBK_DRFN\ProjSrc\SrcChartEx\ChartAddIn\ChartEnvSetupDlgAddIn\ChartEnvSetupDlgAddIn\DropBtn.cpp

; 510  :         m_pTextFont = new CFont();

  0016a	89 b7 bc 00 00
	00		 mov	 DWORD PTR [edi+188], esi
; File C:\Program Files (x86)\Microsoft Visual Studio\2019\Community\VC\Tools\MSVC\14.29.30133\atlmfc\include\afxwin1.inl

; 163  : 	{ return Attach(::CreateFont(nHeight, nWidth, nEscapement,

  00170	ff 15 00 00 00
	00		 call	 DWORD PTR __imp__CreateFontA@56
  00176	50		 push	 eax
  00177	8b ce		 mov	 ecx, esi
  00179	e8 00 00 00 00	 call	 ?Attach@CGdiObject@@QAEHPAX@Z ; CGdiObject::Attach
$LN4@Create:
; File D:\git\src\IBK\IBK_DRFN\ProjSrc\SrcChartEx\ChartAddIn\ChartEnvSetupDlgAddIn\ChartEnvSetupDlgAddIn\DropBtn.cpp

; 516  :    	m_crTxtColor = crTxtColor;

  0017e	8b 45 2c	 mov	 eax, DWORD PTR _crTxtColor$[ebp]

; 517  :     if(m_crTxtColor == -1)

  00181	33 c9		 xor	 ecx, ecx
  00183	83 f8 ff	 cmp	 eax, -1
; File C:\Program Files (x86)\Microsoft Visual Studio\2019\Community\VC\Tools\MSVC\14.29.30133\atlmfc\include\afx.inl

; 116  : 	{ return ::operator new(nSize); }

  00186	6a 08		 push	 8
; File D:\git\src\IBK\IBK_DRFN\ProjSrc\SrcChartEx\ChartAddIn\ChartEnvSetupDlgAddIn\ChartEnvSetupDlgAddIn\DropBtn.cpp

; 517  :     if(m_crTxtColor == -1)

  00188	0f 44 c1	 cmove	 eax, ecx
  0018b	89 87 cc 00 00
	00		 mov	 DWORD PTR [edi+204], eax

; 518  :     	m_crTxtColor = RGB(0,0,0);
; 519  :     
; 520  : 	// Save the text over color
; 521  : 	m_crTxtOverColor = crTxtOverColor;

  00191	8b 45 30	 mov	 eax, DWORD PTR _crTxtOverColor$[ebp]

; 522  :     if(m_crTxtOverColor == -1)

  00194	83 f8 ff	 cmp	 eax, -1
  00197	0f 44 c1	 cmove	 eax, ecx
  0019a	89 87 d0 00 00
	00		 mov	 DWORD PTR [edi+208], eax
; File C:\Program Files (x86)\Microsoft Visual Studio\2019\Community\VC\Tools\MSVC\14.29.30133\atlmfc\include\afx.inl

; 116  : 	{ return ::operator new(nSize); }

  001a0	e8 00 00 00 00	 call	 ??2@YAPAXI@Z		; operator new
  001a5	83 c4 04	 add	 esp, 4
; File D:\git\src\IBK\IBK_DRFN\ProjSrc\SrcChartEx\ChartAddIn\ChartEnvSetupDlgAddIn\ChartEnvSetupDlgAddIn\DropBtn.cpp

; 526  : 	m_pTriBrush = new CBrush(m_crTxtColor); 

  001a8	89 45 a0	 mov	 DWORD PTR $T9[ebp], eax
  001ab	c6 45 fc 06	 mov	 BYTE PTR __$EHRec$[ebp+8], 6
  001af	85 c0		 test	 eax, eax
  001b1	74 0f		 je	 SHORT $LN22@Create
  001b3	ff b7 cc 00 00
	00		 push	 DWORD PTR [edi+204]
  001b9	8b c8		 mov	 ecx, eax
  001bb	e8 00 00 00 00	 call	 ??0CBrush@@QAE@K@Z	; CBrush::CBrush
  001c0	eb 02		 jmp	 SHORT $LN23@Create
$LN22@Create:
  001c2	33 c0		 xor	 eax, eax
$LN23@Create:
; File C:\Program Files (x86)\Microsoft Visual Studio\2019\Community\VC\Tools\MSVC\14.29.30133\atlmfc\include\afx.inl

; 116  : 	{ return ::operator new(nSize); }

  001c4	6a 08		 push	 8
; File D:\git\src\IBK\IBK_DRFN\ProjSrc\SrcChartEx\ChartAddIn\ChartEnvSetupDlgAddIn\ChartEnvSetupDlgAddIn\DropBtn.cpp

; 526  : 	m_pTriBrush = new CBrush(m_crTxtColor); 

  001c6	c6 45 fc 00	 mov	 BYTE PTR __$EHRec$[ebp+8], 0
  001ca	89 87 c8 00 00
	00		 mov	 DWORD PTR [edi+200], eax
; File C:\Program Files (x86)\Microsoft Visual Studio\2019\Community\VC\Tools\MSVC\14.29.30133\atlmfc\include\afx.inl

; 116  : 	{ return ::operator new(nSize); }

  001d0	e8 00 00 00 00	 call	 ??2@YAPAXI@Z		; operator new
  001d5	83 c4 04	 add	 esp, 4
; File D:\git\src\IBK\IBK_DRFN\ProjSrc\SrcChartEx\ChartAddIn\ChartEnvSetupDlgAddIn\ChartEnvSetupDlgAddIn\DropBtn.cpp

; 527  : 	m_pTriPen = new CPen(PS_SOLID, 1, m_crTxtColor); 

  001d8	89 45 a0	 mov	 DWORD PTR $T8[ebp], eax
  001db	c6 45 fc 07	 mov	 BYTE PTR __$EHRec$[ebp+8], 7
  001df	85 c0		 test	 eax, eax
  001e1	74 13		 je	 SHORT $LN24@Create
  001e3	ff b7 cc 00 00
	00		 push	 DWORD PTR [edi+204]
  001e9	8b c8		 mov	 ecx, eax
  001eb	6a 01		 push	 1
  001ed	6a 00		 push	 0
  001ef	e8 00 00 00 00	 call	 ??0CPen@@QAE@HHK@Z	; CPen::CPen
  001f4	eb 02		 jmp	 SHORT $LN25@Create
$LN24@Create:
  001f6	33 c0		 xor	 eax, eax
$LN25@Create:

; 528  : 
; 529  :     // Create the CButton
; 530  : 	if(!CButton::Create(csCaption, WS_CHILD|WS_VISIBLE|BS_PUSHBUTTON|BS_OWNERDRAW, Rect, pParent, uID))

  001f8	ff 75 20	 push	 DWORD PTR _uID$[ebp]
  001fb	89 87 b8 00 00
	00		 mov	 DWORD PTR [edi+184], eax
  00201	8b cf		 mov	 ecx, edi
  00203	ff 75 98	 push	 DWORD PTR _pParent$GSCopy$1$[ebp]
  00206	8d 45 0c	 lea	 eax, DWORD PTR _Rect$[ebp]
  00209	c6 45 fc 00	 mov	 BYTE PTR __$EHRec$[ebp+8], 0
  0020d	50		 push	 eax
  0020e	68 0b 00 00 50	 push	 1342177291		; 5000000bH
  00213	ff 75 08	 push	 DWORD PTR _csCaption$[ebp]
  00216	e8 00 00 00 00	 call	 ?Create@CButton@@UAEHPBDKABUtagRECT@@PAVCWnd@@I@Z ; CButton::Create
  0021b	85 c0		 test	 eax, eax
  0021d	0f 84 ad 00 00
	00		 je	 $LN38@Create

; 531  : 		return FALSE;
; 532  : 	
; 533  : 	// Get the Client Rect
; 534  : 	GetClientRect(m_WindowRect);

  00223	8d b7 94 00 00
	00		 lea	 esi, DWORD PTR [edi+148]
; File C:\Program Files (x86)\Microsoft Visual Studio\2019\Community\VC\Tools\MSVC\14.29.30133\atlmfc\include\afxwin2.inl

; 86   : 	{ ASSERT(::IsWindow(m_hWnd)); ::GetClientRect(m_hWnd, lpRect); }

  00229	56		 push	 esi
  0022a	ff 77 20	 push	 DWORD PTR [edi+32]
  0022d	ff 15 00 00 00
	00		 call	 DWORD PTR __imp__GetClientRect@8
; File C:\Program Files (x86)\Microsoft Visual Studio\2019\Community\VC\Tools\MSVC\14.29.30133\atlmfc\include\atltypes.h

; 576  : 	return right - left;

  00233	8b 46 08	 mov	 eax, DWORD PTR [esi+8]
  00236	2b 06		 sub	 eax, DWORD PTR [esi]
; File C:\Program Files (x86)\Microsoft Visual Studio\2019\Community\VC\Tools\MSVC\14.29.30133\atlmfc\include\afx.inl

; 116  : 	{ return ::operator new(nSize); }

  00238	68 88 00 00 00	 push	 136			; 00000088H
; File D:\git\src\IBK\IBK_DRFN\ProjSrc\SrcChartEx\ChartAddIn\ChartEnvSetupDlgAddIn\ChartEnvSetupDlgAddIn\DropBtn.cpp

; 535  : 	m_nListWidth = m_WindowRect.Width();

  0023d	89 87 80 00 00
	00		 mov	 DWORD PTR [edi+128], eax
; File C:\Program Files (x86)\Microsoft Visual Studio\2019\Community\VC\Tools\MSVC\14.29.30133\atlmfc\include\afx.inl

; 116  : 	{ return ::operator new(nSize); }

  00243	e8 00 00 00 00	 call	 ??2@YAPAXI@Z		; operator new
; File D:\git\src\IBK\IBK_DRFN\ProjSrc\SrcChartEx\ChartAddIn\ChartEnvSetupDlgAddIn\ChartEnvSetupDlgAddIn\DropBtn.cpp

; 538  : 	m_pDropWnd = new CListWnd();

  00248	8b d8		 mov	 ebx, eax
; File C:\Program Files (x86)\Microsoft Visual Studio\2019\Community\VC\Tools\MSVC\14.29.30133\atlmfc\include\afx.inl

; 116  : 	{ return ::operator new(nSize); }

  0024a	83 c4 04	 add	 esp, 4
; File D:\git\src\IBK\IBK_DRFN\ProjSrc\SrcChartEx\ChartAddIn\ChartEnvSetupDlgAddIn\ChartEnvSetupDlgAddIn\DropBtn.cpp

; 538  : 	m_pDropWnd = new CListWnd();

  0024d	89 5d a0	 mov	 DWORD PTR $T7[ebp], ebx
  00250	c6 45 fc 08	 mov	 BYTE PTR __$EHRec$[ebp+8], 8
  00254	85 db		 test	 ebx, ebx
  00256	74 19		 je	 SHORT $LN26@Create

; 363  : {

  00258	8b cb		 mov	 ecx, ebx
  0025a	e8 00 00 00 00	 call	 ??0CWnd@@QAE@XZ		; CWnd::CWnd
  0025f	c7 03 00 00 00
	00		 mov	 DWORD PTR [ebx], OFFSET ??_7CListWnd@@6B@

; 364  : 	m_pDropList = NULL;

  00265	c7 83 84 00 00
	00 00 00 00 00	 mov	 DWORD PTR [ebx+132], 0

; 538  : 	m_pDropWnd = new CListWnd();

  0026f	eb 02		 jmp	 SHORT $LN27@Create
$LN26@Create:
  00271	33 db		 xor	 ebx, ebx
$LN27@Create:

; 384  : 	CString csWndClassName = AfxRegisterWndClass( CS_SAVEBITS , NULL, NULL, NULL );

  00273	6a 00		 push	 0
  00275	6a 00		 push	 0
  00277	6a 00		 push	 0
  00279	68 00 08 00 00	 push	 2048			; 00000800H

; 538  : 	m_pDropWnd = new CListWnd();

  0027e	c6 45 fc 00	 mov	 BYTE PTR __$EHRec$[ebp+8], 0
  00282	89 9f d4 00 00
	00		 mov	 DWORD PTR [edi+212], ebx

; 384  : 	CString csWndClassName = AfxRegisterWndClass( CS_SAVEBITS , NULL, NULL, NULL );

  00288	e8 00 00 00 00	 call	 ?AfxRegisterWndClass@@YGPBDIPAUHICON__@@PAUHBRUSH__@@0@Z ; AfxRegisterWndClass
  0028d	50		 push	 eax
  0028e	8d 4d a0	 lea	 ecx, DWORD PTR _csWndClassName$6[ebp]
  00291	ff 15 00 00 00
	00		 call	 DWORD PTR __imp_??0?$CStringT@DV?$StrTraitMFC_DLL@DV?$ChTraitsCRT@D@ATL@@@@@ATL@@QAE@PBD@Z

; 385  : 
; 386  : 	// Create the Window
; 387  : 	if(!CreateEx(WS_EX_TOPMOST, csWndClassName, NULL, WS_BORDER|WS_POPUP, 0, 0, 200, 200, pParentWnd->GetSafeHwnd(), NULL, NULL))

  00297	8b 03		 mov	 eax, DWORD PTR [ebx]
  00299	8b cb		 mov	 ecx, ebx
  0029b	6a 00		 push	 0
  0029d	6a 00		 push	 0
  0029f	ff 77 20	 push	 DWORD PTR [edi+32]
  002a2	c6 45 fc 09	 mov	 BYTE PTR __$EHRec$[ebp+8], 9
  002a6	68 c8 00 00 00	 push	 200			; 000000c8H
  002ab	68 c8 00 00 00	 push	 200			; 000000c8H
  002b0	6a 00		 push	 0
  002b2	6a 00		 push	 0
  002b4	68 00 00 80 80	 push	 -2139095040		; 80800000H
  002b9	6a 00		 push	 0
  002bb	ff 75 a0	 push	 DWORD PTR _csWndClassName$6[ebp]
  002be	6a 08		 push	 8
  002c0	ff 50 64	 call	 DWORD PTR [eax+100]
  002c3	85 c0		 test	 eax, eax
  002c5	75 34		 jne	 SHORT $LN74@Create

; 388  : 		return FALSE;

  002c7	8d 4d a0	 lea	 ecx, DWORD PTR _csWndClassName$6[ebp]
$LN161@Create:
  002ca	ff 15 00 00 00
	00		 call	 DWORD PTR __imp_??1?$CStringT@DV?$StrTraitMFC_DLL@DV?$ChTraitsCRT@D@ATL@@@@@ATL@@QAE@XZ
$LN38@Create:
  002d0	33 f6		 xor	 esi, esi
$LN39@Create:

; 548  : 	m_uID = uID;
; 549  : 	return TRUE;

  002d2	8d 4d 08	 lea	 ecx, DWORD PTR _csCaption$[ebp]
  002d5	ff 15 00 00 00
	00		 call	 DWORD PTR __imp_??1?$CStringT@DV?$StrTraitMFC_DLL@DV?$ChTraitsCRT@D@ATL@@@@@ATL@@QAE@XZ
  002db	8b c6		 mov	 eax, esi

; 550  : }

  002dd	8b 4d f4	 mov	 ecx, DWORD PTR __$EHRec$[ebp]
  002e0	64 89 0d 00 00
	00 00		 mov	 DWORD PTR fs:0, ecx
  002e7	59		 pop	 ecx
  002e8	5f		 pop	 edi
  002e9	5e		 pop	 esi
  002ea	5b		 pop	 ebx
  002eb	8b 4d f0	 mov	 ecx, DWORD PTR __$ArrayPad$[ebp]
  002ee	33 cd		 xor	 ecx, ebp
  002f0	e8 00 00 00 00	 call	 @__security_check_cookie@4
  002f5	8b e5		 mov	 esp, ebp
  002f7	5d		 pop	 ebp
  002f8	c2 34 00	 ret	 52			; 00000034H
$LN74@Create:
; File C:\Program Files (x86)\Microsoft Visual Studio\2019\Community\VC\Tools\MSVC\14.29.30133\atlmfc\include\afx.inl

; 116  : 	{ return ::operator new(nSize); }

  002fb	68 d0 00 00 00	 push	 208			; 000000d0H
  00300	e8 00 00 00 00	 call	 ??2@YAPAXI@Z		; operator new
; File D:\git\src\IBK\IBK_DRFN\ProjSrc\SrcChartEx\ChartAddIn\ChartEnvSetupDlgAddIn\ChartEnvSetupDlgAddIn\DropBtn.cpp

; 391  : 	m_pDropList = new CDropList();

  00305	8b f0		 mov	 esi, eax
; File C:\Program Files (x86)\Microsoft Visual Studio\2019\Community\VC\Tools\MSVC\14.29.30133\atlmfc\include\afx.inl

; 116  : 	{ return ::operator new(nSize); }

  00307	83 c4 04	 add	 esp, 4
; File D:\git\src\IBK\IBK_DRFN\ProjSrc\SrcChartEx\ChartAddIn\ChartEnvSetupDlgAddIn\ChartEnvSetupDlgAddIn\DropBtn.cpp

; 391  : 	m_pDropList = new CDropList();

  0030a	89 75 9c	 mov	 DWORD PTR $T5[ebp], esi
  0030d	c6 45 fc 0a	 mov	 BYTE PTR __$EHRec$[ebp+8], 10 ; 0000000aH
  00311	85 f6		 test	 esi, esi
  00313	0f 84 9a 00 00
	00		 je	 $LN77@Create
; File C:\Program Files (x86)\Microsoft Visual Studio\2019\Community\VC\Tools\MSVC\14.29.30133\atlmfc\include\afxwin2.inl

; 662  : 	{ }

  00319	8b ce		 mov	 ecx, esi
  0031b	e8 00 00 00 00	 call	 ??0CWnd@@QAE@XZ		; CWnd::CWnd
; File D:\git\src\IBK\IBK_DRFN\ProjSrc\SrcChartEx\ChartAddIn\ChartEnvSetupDlgAddIn\ChartEnvSetupDlgAddIn\DropBtn.cpp

; 16   : {

  00320	6a 0a		 push	 10			; 0000000aH
  00322	8d 8e 88 00 00
	00		 lea	 ecx, DWORD PTR [esi+136]
  00328	c6 45 fc 0b	 mov	 BYTE PTR __$EHRec$[ebp+8], 11 ; 0000000bH
  0032c	c7 06 00 00 00
	00		 mov	 DWORD PTR [esi], OFFSET ??_7CDropList@@6B@
  00332	e8 00 00 00 00	 call	 ??0CPtrList@@QAE@H@Z	; CPtrList::CPtrList
  00337	8d 8e bc 00 00
	00		 lea	 ecx, DWORD PTR [esi+188]
; File C:\Program Files (x86)\Microsoft Visual Studio\2019\Community\VC\Tools\MSVC\14.29.30133\atlmfc\include\atltypes.h

; 528  : 	left = 0;

  0033d	c7 86 a4 00 00
	00 00 00 00 00	 mov	 DWORD PTR [esi+164], 0

; 529  : 	top = 0;

  00347	c7 86 a8 00 00
	00 00 00 00 00	 mov	 DWORD PTR [esi+168], 0

; 530  : 	right = 0;

  00351	c7 86 ac 00 00
	00 00 00 00 00	 mov	 DWORD PTR [esi+172], 0

; 531  : 	bottom = 0;

  0035b	c7 86 b0 00 00
	00 00 00 00 00	 mov	 DWORD PTR [esi+176], 0
; File D:\git\src\IBK\IBK_DRFN\ProjSrc\SrcChartEx\ChartAddIn\ChartEnvSetupDlgAddIn\ChartEnvSetupDlgAddIn\DropBtn.cpp

; 16   : {

  00365	ff 15 00 00 00
	00		 call	 DWORD PTR __imp_??0?$CStringT@DV?$StrTraitMFC_DLL@DV?$ChTraitsCRT@D@ATL@@@@@ATL@@QAE@XZ

; 17   : 	m_nPrevSelection			= 0;

  0036b	c7 86 84 00 00
	00 00 00 00 00	 mov	 DWORD PTR [esi+132], 0

; 18   : 	m_nGroupCount				= 0;

  00375	c7 86 80 00 00
	00 00 00 00 00	 mov	 DWORD PTR [esi+128], 0

; 19   : 	m_pHeaderFont				= NULL;

  0037f	c7 86 b8 00 00
	00 00 00 00 00	 mov	 DWORD PTR [esi+184], 0

; 20   : 	m_pTextFont					= NULL;

  00389	c7 86 b4 00 00
	00 00 00 00 00	 mov	 DWORD PTR [esi+180], 0

; 21   : 	m_pBkBrush					= NULL;

  00393	c7 86 c4 00 00
	00 00 00 00 00	 mov	 DWORD PTR [esi+196], 0

; 22   : 	m_pBkHighlightBrush			= NULL;

  0039d	c7 86 c8 00 00
	00 00 00 00 00	 mov	 DWORD PTR [esi+200], 0

; 23   : 	m_pBkPen					= NULL;

  003a7	c7 86 c0 00 00
	00 00 00 00 00	 mov	 DWORD PTR [esi+192], 0

; 391  : 	m_pDropList = new CDropList();

  003b1	eb 02		 jmp	 SHORT $LN78@Create
$LN77@Create:
  003b3	33 f6		 xor	 esi, esi
$LN78@Create:

; 392  : 	if(!m_pDropList->Create(WS_CHILD|WS_VSCROLL|WS_VISIBLE|LBS_NOTIFY|LBS_HASSTRINGS|LBS_OWNERDRAWFIXED|LBS_NOINTEGRALHEIGHT, CRect(0,0,0,0), this, ID_CUSTOMLIST))

  003b5	68 65 04 00 00	 push	 1125			; 00000465H
  003ba	0f 57 c0	 xorps	 xmm0, xmm0

; 391  : 	m_pDropList = new CDropList();

  003bd	89 b3 84 00 00
	00		 mov	 DWORD PTR [ebx+132], esi

; 392  : 	if(!m_pDropList->Create(WS_CHILD|WS_VSCROLL|WS_VISIBLE|LBS_NOTIFY|LBS_HASSTRINGS|LBS_OWNERDRAWFIXED|LBS_NOINTEGRALHEIGHT, CRect(0,0,0,0), this, ID_CUSTOMLIST))

  003c3	53		 push	 ebx
; File C:\Program Files (x86)\Microsoft Visual Studio\2019\Community\VC\Tools\MSVC\14.29.30133\atlmfc\include\atltypes.h

; 540  : 	left = l;

  003c4	0f 11 45 e0	 movups	 XMMWORD PTR $T17[ebp], xmm0
; File D:\git\src\IBK\IBK_DRFN\ProjSrc\SrcChartEx\ChartAddIn\ChartEnvSetupDlgAddIn\ChartEnvSetupDlgAddIn\DropBtn.cpp

; 392  : 	if(!m_pDropList->Create(WS_CHILD|WS_VSCROLL|WS_VISIBLE|LBS_NOTIFY|LBS_HASSTRINGS|LBS_OWNERDRAWFIXED|LBS_NOINTEGRALHEIGHT, CRect(0,0,0,0), this, ID_CUSTOMLIST))

  003c8	8b 06		 mov	 eax, DWORD PTR [esi]
  003ca	8d 4d e0	 lea	 ecx, DWORD PTR $T17[ebp]
  003cd	51		 push	 ecx
  003ce	68 51 01 20 50	 push	 1344274769		; 50200151H
  003d3	8b ce		 mov	 ecx, esi
  003d5	c6 45 fc 09	 mov	 BYTE PTR __$EHRec$[ebp+8], 9
  003d9	ff 90 6c 01 00
	00		 call	 DWORD PTR [eax+364]
  003df	8d 4d a0	 lea	 ecx, DWORD PTR _csWndClassName$6[ebp]
  003e2	85 c0		 test	 eax, eax
  003e4	0f 84 e0 fe ff
	ff		 je	 $LN161@Create

; 393  : 		return FALSE;
; 394  : 	m_pParent = pParentWnd;

  003ea	89 bb 80 00 00
	00		 mov	 DWORD PTR [ebx+128], edi

; 395  : 	return TRUE;

  003f0	c6 45 fc 00	 mov	 BYTE PTR __$EHRec$[ebp+8], 0
  003f4	ff 15 00 00 00
	00		 call	 DWORD PTR __imp_??1?$CStringT@DV?$StrTraitMFC_DLL@DV?$ChTraitsCRT@D@ATL@@@@@ATL@@QAE@XZ

; 539  : 	if(!m_pDropWnd->Create(this, uID + 1))
; 540  : 		return FALSE;
; 541  : 
; 542  : 	
; 543  : 
; 544  : 	// Set the Font to the list box
; 545  : 	m_pDropWnd->m_pDropList->SetFont(m_pTextFont);

  003fa	8b b7 d4 00 00
	00		 mov	 esi, DWORD PTR [edi+212]
  00400	8b 87 bc 00 00
	00		 mov	 eax, DWORD PTR [edi+188]
  00406	8b 9e 84 00 00
	00		 mov	 ebx, DWORD PTR [esi+132]

; 340  : 	if(m_pTextFont)

  0040c	83 bb b4 00 00
	00 00		 cmp	 DWORD PTR [ebx+180], 0
  00413	0f 85 8e 00 00
	00		 jne	 $LN101@Create

; 341  : 		return;
; 342  : 	m_pTextFont = pFont;

  00419	89 83 b4 00 00
	00		 mov	 DWORD PTR [ebx+180], eax
; File C:\Program Files (x86)\Microsoft Visual Studio\2019\Community\VC\Tools\MSVC\14.29.30133\atlmfc\include\afxwin1.inl

; 68   : 	{ return this == NULL ? NULL : m_hObject; }

  0041f	85 c0		 test	 eax, eax
  00421	74 03		 je	 SHORT $LN112@Create
$LN111@Create:
  00423	8b 40 04	 mov	 eax, DWORD PTR [eax+4]
$LN112@Create:
; File C:\Program Files (x86)\Microsoft Visual Studio\2019\Community\VC\Tools\MSVC\14.29.30133\atlmfc\include\afxwin2.inl

; 43   : 	{ ASSERT(::IsWindow(m_hWnd)); ::SendMessage(m_hWnd, WM_SETFONT, (WPARAM)pFont->GetSafeHandle(), bRedraw); }

  00426	6a 01		 push	 1
  00428	50		 push	 eax
  00429	6a 30		 push	 48			; 00000030H
  0042b	ff 73 20	 push	 DWORD PTR [ebx+32]
  0042e	ff 15 00 00 00
	00		 call	 DWORD PTR __imp__SendMessageA@16
; File D:\git\src\IBK\IBK_DRFN\ProjSrc\SrcChartEx\ChartAddIn\ChartEnvSetupDlgAddIn\ChartEnvSetupDlgAddIn\DropBtn.cpp

; 347  : 	m_pTextFont->GetLogFont(&lpLogFont);

  00434	8b 83 b4 00 00
	00		 mov	 eax, DWORD PTR [ebx+180]
; File C:\Program Files (x86)\Microsoft Visual Studio\2019\Community\VC\Tools\MSVC\14.29.30133\atlmfc\include\afxwin1.inl

; 169  : 		return ::GetObject(m_hObject, sizeof(LOGFONT), pLogFont); }

  0043a	8d 4d a4	 lea	 ecx, DWORD PTR _lpLogFont$16[ebp]
  0043d	51		 push	 ecx
  0043e	6a 3c		 push	 60			; 0000003cH
  00440	ff 70 04	 push	 DWORD PTR [eax+4]
  00443	ff 15 00 00 00
	00		 call	 DWORD PTR __imp__GetObjectA@12
; File C:\Program Files (x86)\Microsoft Visual Studio\2019\Community\VC\Tools\MSVC\14.29.30133\atlmfc\include\afx.inl

; 116  : 	{ return ::operator new(nSize); }

  00449	6a 08		 push	 8
; File D:\git\src\IBK\IBK_DRFN\ProjSrc\SrcChartEx\ChartAddIn\ChartEnvSetupDlgAddIn\ChartEnvSetupDlgAddIn\DropBtn.cpp

; 350  : 	lpLogFont.lfWeight = FW_BOLD;

  0044b	c7 45 b4 bc 02
	00 00		 mov	 DWORD PTR _lpLogFont$16[ebp+16], 700 ; 000002bcH
; File C:\Program Files (x86)\Microsoft Visual Studio\2019\Community\VC\Tools\MSVC\14.29.30133\atlmfc\include\afx.inl

; 116  : 	{ return ::operator new(nSize); }

  00452	e8 00 00 00 00	 call	 ??2@YAPAXI@Z		; operator new
; File D:\git\src\IBK\IBK_DRFN\ProjSrc\SrcChartEx\ChartAddIn\ChartEnvSetupDlgAddIn\ChartEnvSetupDlgAddIn\DropBtn.cpp

; 351  : 	m_pHeaderFont = new CFont();

  00457	8b f0		 mov	 esi, eax
; File C:\Program Files (x86)\Microsoft Visual Studio\2019\Community\VC\Tools\MSVC\14.29.30133\atlmfc\include\afx.inl

; 116  : 	{ return ::operator new(nSize); }

  00459	83 c4 04	 add	 esp, 4
; File D:\git\src\IBK\IBK_DRFN\ProjSrc\SrcChartEx\ChartAddIn\ChartEnvSetupDlgAddIn\ChartEnvSetupDlgAddIn\DropBtn.cpp

; 351  : 	m_pHeaderFont = new CFont();

  0045c	89 75 9c	 mov	 DWORD PTR $T4[ebp], esi
  0045f	85 f6		 test	 esi, esi
  00461	74 0f		 je	 SHORT $LN104@Create
; File C:\Program Files (x86)\Microsoft Visual Studio\2019\Community\VC\Tools\MSVC\14.29.30133\atlmfc\include\afxwin1.inl

; 70   : 	{ m_hObject = NULL; }

  00463	c7 46 04 00 00
	00 00		 mov	 DWORD PTR [esi+4], 0

; 153  : 	{ }

  0046a	c7 06 00 00 00
	00		 mov	 DWORD PTR [esi], OFFSET ??_7CFont@@6B@
; File D:\git\src\IBK\IBK_DRFN\ProjSrc\SrcChartEx\ChartAddIn\ChartEnvSetupDlgAddIn\ChartEnvSetupDlgAddIn\DropBtn.cpp

; 351  : 	m_pHeaderFont = new CFont();

  00470	eb 02		 jmp	 SHORT $LN105@Create
$LN104@Create:
  00472	33 f6		 xor	 esi, esi
$LN105@Create:
; File C:\Program Files (x86)\Microsoft Visual Studio\2019\Community\VC\Tools\MSVC\14.29.30133\atlmfc\include\afxwin1.inl

; 157  : 	{ return Attach(::CreateFontIndirect(lpLogFont)); }

  00474	8d 45 a4	 lea	 eax, DWORD PTR _lpLogFont$16[ebp]
; File D:\git\src\IBK\IBK_DRFN\ProjSrc\SrcChartEx\ChartAddIn\ChartEnvSetupDlgAddIn\ChartEnvSetupDlgAddIn\DropBtn.cpp

; 351  : 	m_pHeaderFont = new CFont();

  00477	89 b3 b8 00 00
	00		 mov	 DWORD PTR [ebx+184], esi
; File C:\Program Files (x86)\Microsoft Visual Studio\2019\Community\VC\Tools\MSVC\14.29.30133\atlmfc\include\afxwin1.inl

; 157  : 	{ return Attach(::CreateFontIndirect(lpLogFont)); }

  0047d	50		 push	 eax
  0047e	ff 15 00 00 00
	00		 call	 DWORD PTR __imp__CreateFontIndirectA@4
  00484	50		 push	 eax
  00485	8b ce		 mov	 ecx, esi
  00487	e8 00 00 00 00	 call	 ?Attach@CGdiObject@@QAEHPAX@Z ; CGdiObject::Attach
; File C:\Program Files (x86)\Microsoft Visual Studio\2019\Community\VC\Tools\MSVC\14.29.30133\atlmfc\include\afxwin2.inl

; 715  : 	{ ASSERT(::IsWindow(m_hWnd)); return (int)::SendMessage(m_hWnd, LB_SETITEMHEIGHT, nIndex, MAKELONG(cyItemHeight, 0)); }

  0048c	0f b7 45 a4	 movzx	 eax, WORD PTR _lpLogFont$16[ebp]
  00490	50		 push	 eax
  00491	6a ff		 push	 -1
  00493	68 a0 01 00 00	 push	 416			; 000001a0H
  00498	ff 73 20	 push	 DWORD PTR [ebx+32]
  0049b	ff 15 00 00 00
	00		 call	 DWORD PTR __imp__SendMessageA@16
  004a1	8b b7 d4 00 00
	00		 mov	 esi, DWORD PTR [edi+212]
$LN101@Create:
; File D:\git\src\IBK\IBK_DRFN\ProjSrc\SrcChartEx\ChartAddIn\ChartEnvSetupDlgAddIn\ChartEnvSetupDlgAddIn\DropBtn.cpp

; 546  : 	m_pDropWnd->m_pDropList->SetBkColor(crBkListColor);

  004a7	8b b6 84 00 00
	00		 mov	 esi, DWORD PTR [esi+132]

; 325  : 	if(m_pBkBrush) delete m_pBkBrush;

  004ad	8b 8e c4 00 00
	00		 mov	 ecx, DWORD PTR [esi+196]
  004b3	85 c9		 test	 ecx, ecx
  004b5	74 07		 je	 SHORT $LN129@Create
  004b7	8b 01		 mov	 eax, DWORD PTR [ecx]
  004b9	6a 01		 push	 1
  004bb	ff 50 04	 call	 DWORD PTR [eax+4]
$LN129@Create:

; 326  : 	if(m_pBkPen)	delete m_pBkPen;

  004be	8b 8e c0 00 00
	00		 mov	 ecx, DWORD PTR [esi+192]
  004c4	85 c9		 test	 ecx, ecx
  004c6	74 07		 je	 SHORT $LN131@Create
  004c8	8b 01		 mov	 eax, DWORD PTR [ecx]
  004ca	6a 01		 push	 1
  004cc	ff 50 04	 call	 DWORD PTR [eax+4]
$LN131@Create:
; File C:\Program Files (x86)\Microsoft Visual Studio\2019\Community\VC\Tools\MSVC\14.29.30133\atlmfc\include\afx.inl

; 116  : 	{ return ::operator new(nSize); }

  004cf	6a 08		 push	 8
  004d1	e8 00 00 00 00	 call	 ??2@YAPAXI@Z		; operator new
  004d6	83 c4 04	 add	 esp, 4
; File D:\git\src\IBK\IBK_DRFN\ProjSrc\SrcChartEx\ChartAddIn\ChartEnvSetupDlgAddIn\ChartEnvSetupDlgAddIn\DropBtn.cpp

; 327  : 	m_pBkPen	= new CPen(PS_SOLID, 1, crColor);

  004d9	89 45 9c	 mov	 DWORD PTR $T3[ebp], eax
  004dc	8b 5d 38	 mov	 ebx, DWORD PTR _crBkListColor$[ebp]
  004df	c6 45 fc 0c	 mov	 BYTE PTR __$EHRec$[ebp+8], 12 ; 0000000cH
  004e3	85 c0		 test	 eax, eax
  004e5	74 0e		 je	 SHORT $LN133@Create
  004e7	53		 push	 ebx
  004e8	6a 01		 push	 1
  004ea	6a 00		 push	 0
  004ec	8b c8		 mov	 ecx, eax
  004ee	e8 00 00 00 00	 call	 ??0CPen@@QAE@HHK@Z	; CPen::CPen
  004f3	eb 02		 jmp	 SHORT $LN134@Create
$LN133@Create:
  004f5	33 c0		 xor	 eax, eax
$LN134@Create:
; File C:\Program Files (x86)\Microsoft Visual Studio\2019\Community\VC\Tools\MSVC\14.29.30133\atlmfc\include\afx.inl

; 116  : 	{ return ::operator new(nSize); }

  004f7	6a 08		 push	 8
; File D:\git\src\IBK\IBK_DRFN\ProjSrc\SrcChartEx\ChartAddIn\ChartEnvSetupDlgAddIn\ChartEnvSetupDlgAddIn\DropBtn.cpp

; 327  : 	m_pBkPen	= new CPen(PS_SOLID, 1, crColor);

  004f9	c6 45 fc 00	 mov	 BYTE PTR __$EHRec$[ebp+8], 0
  004fd	89 86 c0 00 00
	00		 mov	 DWORD PTR [esi+192], eax
; File C:\Program Files (x86)\Microsoft Visual Studio\2019\Community\VC\Tools\MSVC\14.29.30133\atlmfc\include\afx.inl

; 116  : 	{ return ::operator new(nSize); }

  00503	e8 00 00 00 00	 call	 ??2@YAPAXI@Z		; operator new
  00508	83 c4 04	 add	 esp, 4
; File D:\git\src\IBK\IBK_DRFN\ProjSrc\SrcChartEx\ChartAddIn\ChartEnvSetupDlgAddIn\ChartEnvSetupDlgAddIn\DropBtn.cpp

; 328  : 	m_pBkBrush	= new CBrush(crColor);	

  0050b	89 45 9c	 mov	 DWORD PTR $T2[ebp], eax
  0050e	c6 45 fc 0d	 mov	 BYTE PTR __$EHRec$[ebp+8], 13 ; 0000000dH
  00512	85 c0		 test	 eax, eax
  00514	74 0a		 je	 SHORT $LN135@Create
  00516	53		 push	 ebx
  00517	8b c8		 mov	 ecx, eax
  00519	e8 00 00 00 00	 call	 ??0CBrush@@QAE@K@Z	; CBrush::CBrush
  0051e	eb 02		 jmp	 SHORT $LN136@Create
$LN135@Create:
  00520	33 c0		 xor	 eax, eax
$LN136@Create:
; File C:\Program Files (x86)\Microsoft Visual Studio\2019\Community\VC\Tools\MSVC\14.29.30133\atlmfc\include\afxwin2.inl

; 142  : 	{ ASSERT(::IsWindow(m_hWnd)); return ::RedrawWindow(m_hWnd, lpRectUpdate, (HRGN)prgnUpdate->GetSafeHandle(), flags); }

  00522	68 05 01 00 00	 push	 261			; 00000105H
  00527	6a 00		 push	 0
  00529	6a 00		 push	 0
  0052b	ff 76 20	 push	 DWORD PTR [esi+32]
; File D:\git\src\IBK\IBK_DRFN\ProjSrc\SrcChartEx\ChartAddIn\ChartEnvSetupDlgAddIn\ChartEnvSetupDlgAddIn\DropBtn.cpp

; 328  : 	m_pBkBrush	= new CBrush(crColor);	

  0052e	89 86 c4 00 00
	00		 mov	 DWORD PTR [esi+196], eax
; File C:\Program Files (x86)\Microsoft Visual Studio\2019\Community\VC\Tools\MSVC\14.29.30133\atlmfc\include\afxwin2.inl

; 142  : 	{ ASSERT(::IsWindow(m_hWnd)); return ::RedrawWindow(m_hWnd, lpRectUpdate, (HRGN)prgnUpdate->GetSafeHandle(), flags); }

  00534	ff 15 00 00 00
	00		 call	 DWORD PTR __imp__RedrawWindow@16
; File D:\git\src\IBK\IBK_DRFN\ProjSrc\SrcChartEx\ChartAddIn\ChartEnvSetupDlgAddIn\ChartEnvSetupDlgAddIn\DropBtn.cpp

; 547  : 	m_pParent = pParent;

  0053a	8b 45 98	 mov	 eax, DWORD PTR _pParent$GSCopy$1$[ebp]

; 548  : 	m_uID = uID;
; 549  : 	return TRUE;

  0053d	be 01 00 00 00	 mov	 esi, 1
  00542	89 87 90 00 00
	00		 mov	 DWORD PTR [edi+144], eax
  00548	8b 45 20	 mov	 eax, DWORD PTR _uID$[ebp]
  0054b	89 87 88 00 00
	00		 mov	 DWORD PTR [edi+136], eax
  00551	e9 7c fd ff ff	 jmp	 $LN39@Create
_TEXT	ENDS
;	COMDAT text$x
text$x	SEGMENT
__unwindfunclet$?Create@CDropButton@@QAEHV?$CStringT@DV?$StrTraitMFC_DLL@DV?$ChTraitsCRT@D@ATL@@@@@ATL@@VCRect@@PAVCWnd@@IKKKKPAVCFont@@K@Z$0:
  00000	8d 4d 08	 lea	 ecx, DWORD PTR _csCaption$[ebp]
  00003	ff 25 00 00 00
	00		 jmp	 DWORD PTR __imp_??1?$CStringT@DV?$StrTraitMFC_DLL@DV?$ChTraitsCRT@D@ATL@@@@@ATL@@QAE@XZ
__unwindfunclet$?Create@CDropButton@@QAEHV?$CStringT@DV?$StrTraitMFC_DLL@DV?$ChTraitsCRT@D@ATL@@@@@ATL@@VCRect@@PAVCWnd@@IKKKKPAVCFont@@K@Z$1:
  00009	8b 45 a0	 mov	 eax, DWORD PTR $T15[ebp]
  0000c	50		 push	 eax
  0000d	e8 00 00 00 00	 call	 ??3CObject@@SGXPAX@Z	; CObject::operator delete
  00012	c3		 ret	 0
__unwindfunclet$?Create@CDropButton@@QAEHV?$CStringT@DV?$StrTraitMFC_DLL@DV?$ChTraitsCRT@D@ATL@@@@@ATL@@VCRect@@PAVCWnd@@IKKKKPAVCFont@@K@Z$2:
  00013	8b 45 a0	 mov	 eax, DWORD PTR $T14[ebp]
  00016	50		 push	 eax
  00017	e8 00 00 00 00	 call	 ??3CObject@@SGXPAX@Z	; CObject::operator delete
  0001c	c3		 ret	 0
__unwindfunclet$?Create@CDropButton@@QAEHV?$CStringT@DV?$StrTraitMFC_DLL@DV?$ChTraitsCRT@D@ATL@@@@@ATL@@VCRect@@PAVCWnd@@IKKKKPAVCFont@@K@Z$3:
  0001d	8b 45 a0	 mov	 eax, DWORD PTR $T13[ebp]
  00020	50		 push	 eax
  00021	e8 00 00 00 00	 call	 ??3CObject@@SGXPAX@Z	; CObject::operator delete
  00026	c3		 ret	 0
__unwindfunclet$?Create@CDropButton@@QAEHV?$CStringT@DV?$StrTraitMFC_DLL@DV?$ChTraitsCRT@D@ATL@@@@@ATL@@VCRect@@PAVCWnd@@IKKKKPAVCFont@@K@Z$4:
  00027	8b 45 a0	 mov	 eax, DWORD PTR $T12[ebp]
  0002a	50		 push	 eax
  0002b	e8 00 00 00 00	 call	 ??3CObject@@SGXPAX@Z	; CObject::operator delete
  00030	c3		 ret	 0
__unwindfunclet$?Create@CDropButton@@QAEHV?$CStringT@DV?$StrTraitMFC_DLL@DV?$ChTraitsCRT@D@ATL@@@@@ATL@@VCRect@@PAVCWnd@@IKKKKPAVCFont@@K@Z$5:
  00031	8b 45 a0	 mov	 eax, DWORD PTR $T11[ebp]
  00034	50		 push	 eax
  00035	e8 00 00 00 00	 call	 ??3CObject@@SGXPAX@Z	; CObject::operator delete
  0003a	c3		 ret	 0
__unwindfunclet$?Create@CDropButton@@QAEHV?$CStringT@DV?$StrTraitMFC_DLL@DV?$ChTraitsCRT@D@ATL@@@@@ATL@@VCRect@@PAVCWnd@@IKKKKPAVCFont@@K@Z$7:
  0003b	8b 45 a0	 mov	 eax, DWORD PTR $T9[ebp]
  0003e	50		 push	 eax
  0003f	e8 00 00 00 00	 call	 ??3CObject@@SGXPAX@Z	; CObject::operator delete
  00044	c3		 ret	 0
__unwindfunclet$?Create@CDropButton@@QAEHV?$CStringT@DV?$StrTraitMFC_DLL@DV?$ChTraitsCRT@D@ATL@@@@@ATL@@VCRect@@PAVCWnd@@IKKKKPAVCFont@@K@Z$8:
  00045	8b 45 a0	 mov	 eax, DWORD PTR $T8[ebp]
  00048	50		 push	 eax
  00049	e8 00 00 00 00	 call	 ??3CObject@@SGXPAX@Z	; CObject::operator delete
  0004e	c3		 ret	 0
__unwindfunclet$?Create@CDropButton@@QAEHV?$CStringT@DV?$StrTraitMFC_DLL@DV?$ChTraitsCRT@D@ATL@@@@@ATL@@VCRect@@PAVCWnd@@IKKKKPAVCFont@@K@Z$9:
  0004f	8b 45 a0	 mov	 eax, DWORD PTR $T7[ebp]
  00052	50		 push	 eax
  00053	e8 00 00 00 00	 call	 ??3CObject@@SGXPAX@Z	; CObject::operator delete
  00058	c3		 ret	 0
__unwindfunclet$?Create@CDropButton@@QAEHV?$CStringT@DV?$StrTraitMFC_DLL@DV?$ChTraitsCRT@D@ATL@@@@@ATL@@VCRect@@PAVCWnd@@IKKKKPAVCFont@@K@Z$11:
  00059	8d 4d a0	 lea	 ecx, DWORD PTR _csWndClassName$6[ebp]
  0005c	ff 25 00 00 00
	00		 jmp	 DWORD PTR __imp_??1?$CStringT@DV?$StrTraitMFC_DLL@DV?$ChTraitsCRT@D@ATL@@@@@ATL@@QAE@XZ
__unwindfunclet$?Create@CDropButton@@QAEHV?$CStringT@DV?$StrTraitMFC_DLL@DV?$ChTraitsCRT@D@ATL@@@@@ATL@@VCRect@@PAVCWnd@@IKKKKPAVCFont@@K@Z$12:
  00062	8b 45 9c	 mov	 eax, DWORD PTR $T5[ebp]
  00065	50		 push	 eax
  00066	e8 00 00 00 00	 call	 ??3CObject@@SGXPAX@Z	; CObject::operator delete
  0006b	c3		 ret	 0
__unwindfunclet$?Create@CDropButton@@QAEHV?$CStringT@DV?$StrTraitMFC_DLL@DV?$ChTraitsCRT@D@ATL@@@@@ATL@@VCRect@@PAVCWnd@@IKKKKPAVCFont@@K@Z$13:
  0006c	8b 4d 9c	 mov	 ecx, DWORD PTR $T5[ebp]
  0006f	e9 00 00 00 00	 jmp	 ??1CListBox@@UAE@XZ	; CListBox::~CListBox
__unwindfunclet$?Create@CDropButton@@QAEHV?$CStringT@DV?$StrTraitMFC_DLL@DV?$ChTraitsCRT@D@ATL@@@@@ATL@@VCRect@@PAVCWnd@@IKKKKPAVCFont@@K@Z$18:
  00074	8b 45 9c	 mov	 eax, DWORD PTR $T3[ebp]
  00077	50		 push	 eax
  00078	e8 00 00 00 00	 call	 ??3CObject@@SGXPAX@Z	; CObject::operator delete
  0007d	c3		 ret	 0
__unwindfunclet$?Create@CDropButton@@QAEHV?$CStringT@DV?$StrTraitMFC_DLL@DV?$ChTraitsCRT@D@ATL@@@@@ATL@@VCRect@@PAVCWnd@@IKKKKPAVCFont@@K@Z$19:
  0007e	8b 45 9c	 mov	 eax, DWORD PTR $T2[ebp]
  00081	50		 push	 eax
  00082	e8 00 00 00 00	 call	 ??3CObject@@SGXPAX@Z	; CObject::operator delete
  00087	c3		 ret	 0
  00088	cc		 int	 3
  00089	cc		 int	 3
  0008a	cc		 int	 3
  0008b	cc		 int	 3
  0008c	cc		 int	 3
__ehhandler$?Create@CDropButton@@QAEHV?$CStringT@DV?$StrTraitMFC_DLL@DV?$ChTraitsCRT@D@ATL@@@@@ATL@@VCRect@@PAVCWnd@@IKKKKPAVCFont@@K@Z:
  0008d	90		 npad	 1
  0008e	90		 npad	 1
  0008f	8b 54 24 08	 mov	 edx, DWORD PTR [esp+8]
  00093	8d 42 0c	 lea	 eax, DWORD PTR [edx+12]
  00096	8b 4a 94	 mov	 ecx, DWORD PTR [edx-108]
  00099	33 c8		 xor	 ecx, eax
  0009b	e8 00 00 00 00	 call	 @__security_check_cookie@4
  000a0	8b 4a fc	 mov	 ecx, DWORD PTR [edx-4]
  000a3	33 c8		 xor	 ecx, eax
  000a5	e8 00 00 00 00	 call	 @__security_check_cookie@4
  000aa	b8 00 00 00 00	 mov	 eax, OFFSET __ehfuncinfo$?Create@CDropButton@@QAEHV?$CStringT@DV?$StrTraitMFC_DLL@DV?$ChTraitsCRT@D@ATL@@@@@ATL@@VCRect@@PAVCWnd@@IKKKKPAVCFont@@K@Z
  000af	e9 00 00 00 00	 jmp	 ___CxxFrameHandler3
text$x	ENDS
?Create@CDropButton@@QAEHV?$CStringT@DV?$StrTraitMFC_DLL@DV?$ChTraitsCRT@D@ATL@@@@@ATL@@VCRect@@PAVCWnd@@IKKKKPAVCFont@@K@Z ENDP ; CDropButton::Create
; Function compile flags: /Ogtp
; File D:\git\src\IBK\IBK_DRFN\ProjSrc\SrcChartEx\ChartAddIn\ChartEnvSetupDlgAddIn\ChartEnvSetupDlgAddIn\DropBtn.cpp
; File C:\Program Files (x86)\Microsoft Visual Studio\2019\Community\VC\Tools\MSVC\14.29.30133\atlmfc\include\afxwin2.inl
; File D:\git\src\IBK\IBK_DRFN\ProjSrc\SrcChartEx\ChartAddIn\ChartEnvSetupDlgAddIn\ChartEnvSetupDlgAddIn\DropBtn.cpp
; File C:\Program Files (x86)\Microsoft Visual Studio\2019\Community\VC\Tools\MSVC\14.29.30133\atlmfc\include\atltypes.h
; File D:\git\src\IBK\IBK_DRFN\ProjSrc\SrcChartEx\ChartAddIn\ChartEnvSetupDlgAddIn\ChartEnvSetupDlgAddIn\DropBtn.cpp
;	COMDAT ??0CDropButton@@QAE@XZ
_TEXT	SEGMENT
_this$ = -4						; size = 4
??0CDropButton@@QAE@XZ PROC				; CDropButton::CDropButton, COMDAT
; _this$ = ecx

; 448  : {

  00000	55		 push	 ebp
  00001	8b ec		 mov	 ebp, esp
  00003	51		 push	 ecx
  00004	56		 push	 esi
  00005	8b f1		 mov	 esi, ecx
  00007	89 75 fc	 mov	 DWORD PTR _this$[ebp], esi
; File C:\Program Files (x86)\Microsoft Visual Studio\2019\Community\VC\Tools\MSVC\14.29.30133\atlmfc\include\afxwin2.inl

; 622  : 	{ }

  0000a	e8 00 00 00 00	 call	 ??0CWnd@@QAE@XZ		; CWnd::CWnd
; File D:\git\src\IBK\IBK_DRFN\ProjSrc\SrcChartEx\ChartAddIn\ChartEnvSetupDlgAddIn\ChartEnvSetupDlgAddIn\DropBtn.cpp

; 448  : {

  0000f	c7 06 00 00 00
	00		 mov	 DWORD PTR [esi], OFFSET ??_7CDropButton@@6B@

; 460  : //	m_MouseHook		= NULL;
; 461  : }

  00015	8b c6		 mov	 eax, esi
; File C:\Program Files (x86)\Microsoft Visual Studio\2019\Community\VC\Tools\MSVC\14.29.30133\atlmfc\include\atltypes.h

; 528  : 	left = 0;

  00017	c7 86 94 00 00
	00 00 00 00 00	 mov	 DWORD PTR [esi+148], 0

; 529  : 	top = 0;

  00021	c7 86 98 00 00
	00 00 00 00 00	 mov	 DWORD PTR [esi+152], 0

; 530  : 	right = 0;

  0002b	c7 86 9c 00 00
	00 00 00 00 00	 mov	 DWORD PTR [esi+156], 0

; 531  : 	bottom = 0;

  00035	c7 86 a0 00 00
	00 00 00 00 00	 mov	 DWORD PTR [esi+160], 0

; 528  : 	left = 0;

  0003f	c7 86 a4 00 00
	00 00 00 00 00	 mov	 DWORD PTR [esi+164], 0

; 529  : 	top = 0;

  00049	c7 86 a8 00 00
	00 00 00 00 00	 mov	 DWORD PTR [esi+168], 0

; 530  : 	right = 0;

  00053	c7 86 ac 00 00
	00 00 00 00 00	 mov	 DWORD PTR [esi+172], 0

; 531  : 	bottom = 0;

  0005d	c7 86 b0 00 00
	00 00 00 00 00	 mov	 DWORD PTR [esi+176], 0
; File D:\git\src\IBK\IBK_DRFN\ProjSrc\SrcChartEx\ChartAddIn\ChartEnvSetupDlgAddIn\ChartEnvSetupDlgAddIn\DropBtn.cpp

; 452  : 	m_bChangeTitle 	= true;

  00067	66 c7 86 8d 00
	00 00 01 00	 mov	 WORD PTR [esi+141], 1
  00070	c6 86 8c 00 00
	00 00		 mov	 BYTE PTR [esi+140], 0

; 453  : 	m_pBkBrush 		= NULL;

  00077	c7 86 c0 00 00
	00 00 00 00 00	 mov	 DWORD PTR [esi+192], 0

; 454  : 	m_pBkOverBrush	= NULL;

  00081	c7 86 c4 00 00
	00 00 00 00 00	 mov	 DWORD PTR [esi+196], 0

; 455  : 	m_pBorderPen	= NULL;

  0008b	c7 86 b4 00 00
	00 00 00 00 00	 mov	 DWORD PTR [esi+180], 0

; 456  : 	m_pTriBrush 	= NULL;

  00095	c7 86 c8 00 00
	00 00 00 00 00	 mov	 DWORD PTR [esi+200], 0

; 457  : 	m_pTriPen		= NULL;

  0009f	c7 86 b8 00 00
	00 00 00 00 00	 mov	 DWORD PTR [esi+184], 0

; 458  : 	m_pDropWnd		= NULL;

  000a9	c7 86 d4 00 00
	00 00 00 00 00	 mov	 DWORD PTR [esi+212], 0

; 459  : 	m_nListHeight	= 100;

  000b3	c7 86 84 00 00
	00 64 00 00 00	 mov	 DWORD PTR [esi+132], 100 ; 00000064H

; 460  : //	m_MouseHook		= NULL;
; 461  : }

  000bd	5e		 pop	 esi
  000be	8b e5		 mov	 esp, ebp
  000c0	5d		 pop	 ebp
  000c1	c3		 ret	 0
??0CDropButton@@QAE@XZ ENDP				; CDropButton::CDropButton
_TEXT	ENDS
; Function compile flags: /Ogtp
; File D:\git\src\IBK\IBK_DRFN\ProjSrc\SrcChartEx\ChartAddIn\ChartEnvSetupDlgAddIn\ChartEnvSetupDlgAddIn\DropBtn.cpp
; File C:\Program Files (x86)\Microsoft Visual Studio\2019\Community\VC\Tools\MSVC\14.29.30133\atlmfc\include\afxwin2.inl
; File D:\git\src\IBK\IBK_DRFN\ProjSrc\SrcChartEx\ChartAddIn\ChartEnvSetupDlgAddIn\ChartEnvSetupDlgAddIn\DropBtn.cpp
; File C:\Program Files (x86)\Microsoft Visual Studio\2019\Community\VC\Tools\MSVC\14.29.30133\atlmfc\include\afxwin2.inl
; File D:\git\src\IBK\IBK_DRFN\ProjSrc\SrcChartEx\ChartAddIn\ChartEnvSetupDlgAddIn\ChartEnvSetupDlgAddIn\DropBtn.cpp
; File C:\Program Files (x86)\Microsoft Visual Studio\2019\Community\VC\Tools\MSVC\14.29.30133\atlmfc\include\afxwin2.inl
; File D:\git\src\IBK\IBK_DRFN\ProjSrc\SrcChartEx\ChartAddIn\ChartEnvSetupDlgAddIn\ChartEnvSetupDlgAddIn\DropBtn.cpp
; File C:\Program Files (x86)\Microsoft Visual Studio\2019\Community\VC\Tools\MSVC\14.29.30133\atlmfc\include\afxwin2.inl
; File D:\git\src\IBK\IBK_DRFN\ProjSrc\SrcChartEx\ChartAddIn\ChartEnvSetupDlgAddIn\ChartEnvSetupDlgAddIn\DropBtn.cpp
; File C:\Program Files (x86)\Microsoft Visual Studio\2019\Community\VC\Tools\MSVC\14.29.30133\atlmfc\include\afxwin2.inl
; File D:\git\src\IBK\IBK_DRFN\ProjSrc\SrcChartEx\ChartAddIn\ChartEnvSetupDlgAddIn\ChartEnvSetupDlgAddIn\DropBtn.cpp
; File C:\Program Files (x86)\Microsoft Visual Studio\2019\Community\VC\Tools\MSVC\14.29.30133\atlmfc\include\afxwin2.inl
; File D:\git\src\IBK\IBK_DRFN\ProjSrc\SrcChartEx\ChartAddIn\ChartEnvSetupDlgAddIn\ChartEnvSetupDlgAddIn\DropBtn.cpp
; File C:\Program Files (x86)\Microsoft Visual Studio\2019\Community\VC\Tools\MSVC\14.29.30133\atlmfc\include\afxwin2.inl
; File D:\git\src\IBK\IBK_DRFN\ProjSrc\SrcChartEx\ChartAddIn\ChartEnvSetupDlgAddIn\ChartEnvSetupDlgAddIn\DropBtn.cpp
; File C:\Program Files (x86)\Microsoft Visual Studio\2019\Community\VC\Tools\MSVC\14.29.30133\atlmfc\include\afxwin2.inl
; File D:\git\src\IBK\IBK_DRFN\ProjSrc\SrcChartEx\ChartAddIn\ChartEnvSetupDlgAddIn\ChartEnvSetupDlgAddIn\DropBtn.cpp
; File C:\Program Files (x86)\Microsoft Visual Studio\2019\Community\VC\Tools\MSVC\14.29.30133\atlmfc\include\afxwin2.inl
; File D:\git\src\IBK\IBK_DRFN\ProjSrc\SrcChartEx\ChartAddIn\ChartEnvSetupDlgAddIn\ChartEnvSetupDlgAddIn\DropBtn.cpp
; File C:\Program Files (x86)\Microsoft Visual Studio\2019\Community\VC\Tools\MSVC\14.29.30133\atlmfc\include\afxwin2.inl
; File D:\git\src\IBK\IBK_DRFN\ProjSrc\SrcChartEx\ChartAddIn\ChartEnvSetupDlgAddIn\ChartEnvSetupDlgAddIn\DropBtn.cpp
; File C:\Program Files (x86)\Microsoft Visual Studio\2019\Community\VC\Tools\MSVC\14.29.30133\atlmfc\include\afxwin2.inl
; File D:\git\src\IBK\IBK_DRFN\ProjSrc\SrcChartEx\ChartAddIn\ChartEnvSetupDlgAddIn\ChartEnvSetupDlgAddIn\DropBtn.cpp
; File C:\Program Files (x86)\Microsoft Visual Studio\2019\Community\VC\Tools\MSVC\14.29.30133\atlmfc\include\atltypes.h
; File D:\git\src\IBK\IBK_DRFN\ProjSrc\SrcChartEx\ChartAddIn\ChartEnvSetupDlgAddIn\ChartEnvSetupDlgAddIn\DropBtn.cpp
; File C:\Program Files (x86)\Microsoft Visual Studio\2019\Community\VC\Tools\MSVC\14.29.30133\atlmfc\include\atltypes.h
; File D:\git\src\IBK\IBK_DRFN\ProjSrc\SrcChartEx\ChartAddIn\ChartEnvSetupDlgAddIn\ChartEnvSetupDlgAddIn\DropBtn.cpp
; File C:\Program Files (x86)\Microsoft Visual Studio\2019\Community\VC\Tools\MSVC\14.29.30133\atlmfc\include\atltypes.h
; File D:\git\src\IBK\IBK_DRFN\ProjSrc\SrcChartEx\ChartAddIn\ChartEnvSetupDlgAddIn\ChartEnvSetupDlgAddIn\DropBtn.cpp
; File C:\Program Files (x86)\Microsoft Visual Studio\2019\Community\VC\Tools\MSVC\14.29.30133\atlmfc\include\atltypes.h
; File D:\git\src\IBK\IBK_DRFN\ProjSrc\SrcChartEx\ChartAddIn\ChartEnvSetupDlgAddIn\ChartEnvSetupDlgAddIn\DropBtn.cpp
; File C:\Program Files (x86)\Microsoft Visual Studio\2019\Community\VC\Tools\MSVC\14.29.30133\atlmfc\include\afxwin2.inl
; File D:\git\src\IBK\IBK_DRFN\ProjSrc\SrcChartEx\ChartAddIn\ChartEnvSetupDlgAddIn\ChartEnvSetupDlgAddIn\DropBtn.cpp
; File C:\Program Files (x86)\Microsoft Visual Studio\2019\Community\VC\Tools\MSVC\14.29.30133\atlmfc\include\afxwin2.inl
; File D:\git\src\IBK\IBK_DRFN\ProjSrc\SrcChartEx\ChartAddIn\ChartEnvSetupDlgAddIn\ChartEnvSetupDlgAddIn\DropBtn.cpp
; File C:\Program Files (x86)\Microsoft Visual Studio\2019\Community\VC\Tools\MSVC\14.29.30133\atlmfc\include\atltypes.h
; File D:\git\src\IBK\IBK_DRFN\ProjSrc\SrcChartEx\ChartAddIn\ChartEnvSetupDlgAddIn\ChartEnvSetupDlgAddIn\DropBtn.cpp
; File C:\Program Files (x86)\Microsoft Visual Studio\2019\Community\VC\Tools\MSVC\14.29.30133\atlmfc\include\atltypes.h
; File C:\Program Files (x86)\Microsoft Visual Studio\2019\Community\VC\Tools\MSVC\14.29.30133\atlmfc\include\afxwin2.inl
; File D:\git\src\IBK\IBK_DRFN\ProjSrc\SrcChartEx\ChartAddIn\ChartEnvSetupDlgAddIn\ChartEnvSetupDlgAddIn\DropBtn.cpp
;	COMDAT ?DisplayList@CDropButton@@AAEXXZ
_TEXT	SEGMENT
_NewRect$ = -40						; size = 16
_nHeight$1$ = -24					; size = 4
_ButtonRect$ = -20					; size = 16
__$ArrayPad$ = -4					; size = 4
?DisplayList@CDropButton@@AAEXXZ PROC			; CDropButton::DisplayList, COMDAT
; _this$ = ecx

; 674  : {

  00000	55		 push	 ebp
  00001	8b ec		 mov	 ebp, esp
  00003	83 ec 28	 sub	 esp, 40			; 00000028H
  00006	a1 00 00 00 00	 mov	 eax, DWORD PTR ___security_cookie
  0000b	33 c5		 xor	 eax, ebp
  0000d	89 45 fc	 mov	 DWORD PTR __$ArrayPad$[ebp], eax
  00010	57		 push	 edi
  00011	8b f9		 mov	 edi, ecx

; 675  : 	// Convert to this button coordinates to desktop coordinates
; 676  : 	CRect ButtonRect(m_WindowRect);

  00013	0f 10 87 94 00
	00 00		 movups	 xmm0, XMMWORD PTR [edi+148]
  0001a	0f 11 45 ec	 movups	 XMMWORD PTR _ButtonRect$[ebp], xmm0
; File C:\Program Files (x86)\Microsoft Visual Studio\2019\Community\VC\Tools\MSVC\14.29.30133\atlmfc\include\afxwin2.inl

; 167  : 	{ return CWnd::FromHandle(::GetDesktopWindow()); }

  0001e	ff 15 00 00 00
	00		 call	 DWORD PTR __imp__GetDesktopWindow@0
  00024	50		 push	 eax
  00025	e8 00 00 00 00	 call	 ?FromHandle@CWnd@@SGPAV1@PAUHWND__@@@Z ; CWnd::FromHandle

; 25   : 	{ return this == NULL ? NULL : m_hWnd; }

  0002a	85 c0		 test	 eax, eax
  0002c	74 03		 je	 SHORT $LN13@DisplayLis
$LN12@DisplayLis:
  0002e	8b 40 20	 mov	 eax, DWORD PTR [eax+32]
$LN13@DisplayLis:
  00031	53		 push	 ebx
  00032	56		 push	 esi

; 90   : 	{ ASSERT(::IsWindow(m_hWnd)); ::MapWindowPoints(m_hWnd, pwndTo->GetSafeHwnd(), (LPPOINT)lpRect, 2); }

  00033	6a 02		 push	 2
  00035	8d 4d ec	 lea	 ecx, DWORD PTR _ButtonRect$[ebp]
  00038	51		 push	 ecx
  00039	50		 push	 eax
  0003a	ff 77 20	 push	 DWORD PTR [edi+32]
  0003d	ff 15 00 00 00
	00		 call	 DWORD PTR __imp__MapWindowPoints@16

; 717  : 	{ ASSERT(::IsWindow(m_hWnd)); return (int)::SendMessage(m_hWnd, LB_GETITEMHEIGHT, nIndex, 0L); }

  00043	8b 87 d4 00 00
	00		 mov	 eax, DWORD PTR [edi+212]
  00049	8b 1d 00 00 00
	00		 mov	 ebx, DWORD PTR __imp__SendMessageA@16
  0004f	6a 00		 push	 0
  00051	6a 00		 push	 0
  00053	8b 80 84 00 00
	00		 mov	 eax, DWORD PTR [eax+132]
  00059	68 a1 01 00 00	 push	 417			; 000001a1H
  0005e	ff 70 20	 push	 DWORD PTR [eax+32]
  00061	ff d3		 call	 ebx

; 664  : 	{ ASSERT(::IsWindow(m_hWnd)); return (int)::SendMessage(m_hWnd, LB_GETCOUNT, 0, 0); }

  00063	8b 87 d4 00 00
	00		 mov	 eax, DWORD PTR [edi+212]
  00069	6a 00		 push	 0
  0006b	6a 00		 push	 0
  0006d	68 8b 01 00 00	 push	 395			; 0000018bH
  00072	8b 80 84 00 00
	00		 mov	 eax, DWORD PTR [eax+132]
  00078	ff 70 20	 push	 DWORD PTR [eax+32]
  0007b	ff d3		 call	 ebx
; File D:\git\src\IBK\IBK_DRFN\ProjSrc\SrcChartEx\ChartAddIn\ChartEnvSetupDlgAddIn\ChartEnvSetupDlgAddIn\DropBtn.cpp

; 683  : 	int nHeight = m_nListHeight;

  0007d	8b 87 84 00 00
	00		 mov	 eax, DWORD PTR [edi+132]
  00083	89 45 e8	 mov	 DWORD PTR _nHeight$1$[ebp], eax

; 684  : 	if(m_pDropWnd->m_pDropList->GetCount())

  00086	8b 87 d4 00 00
	00		 mov	 eax, DWORD PTR [edi+212]
; File C:\Program Files (x86)\Microsoft Visual Studio\2019\Community\VC\Tools\MSVC\14.29.30133\atlmfc\include\afxwin2.inl

; 664  : 	{ ASSERT(::IsWindow(m_hWnd)); return (int)::SendMessage(m_hWnd, LB_GETCOUNT, 0, 0); }

  0008c	6a 00		 push	 0
  0008e	6a 00		 push	 0
  00090	68 8b 01 00 00	 push	 395			; 0000018bH
; File D:\git\src\IBK\IBK_DRFN\ProjSrc\SrcChartEx\ChartAddIn\ChartEnvSetupDlgAddIn\ChartEnvSetupDlgAddIn\DropBtn.cpp

; 684  : 	if(m_pDropWnd->m_pDropList->GetCount())

  00095	8b 80 84 00 00
	00		 mov	 eax, DWORD PTR [eax+132]
; File C:\Program Files (x86)\Microsoft Visual Studio\2019\Community\VC\Tools\MSVC\14.29.30133\atlmfc\include\afxwin2.inl

; 664  : 	{ ASSERT(::IsWindow(m_hWnd)); return (int)::SendMessage(m_hWnd, LB_GETCOUNT, 0, 0); }

  0009b	ff 70 20	 push	 DWORD PTR [eax+32]
  0009e	ff d3		 call	 ebx
; File D:\git\src\IBK\IBK_DRFN\ProjSrc\SrcChartEx\ChartAddIn\ChartEnvSetupDlgAddIn\ChartEnvSetupDlgAddIn\DropBtn.cpp

; 684  : 	if(m_pDropWnd->m_pDropList->GetCount())

  000a0	85 c0		 test	 eax, eax
  000a2	74 7d		 je	 SHORT $LN3@DisplayLis

; 685  : 		if(m_pDropWnd->m_pDropList->GetCount() * m_pDropWnd->m_pDropList->GetItemHeight(0) < m_nListHeight)

  000a4	8b 87 d4 00 00
	00		 mov	 eax, DWORD PTR [edi+212]
; File C:\Program Files (x86)\Microsoft Visual Studio\2019\Community\VC\Tools\MSVC\14.29.30133\atlmfc\include\afxwin2.inl

; 664  : 	{ ASSERT(::IsWindow(m_hWnd)); return (int)::SendMessage(m_hWnd, LB_GETCOUNT, 0, 0); }

  000aa	6a 00		 push	 0
  000ac	6a 00		 push	 0
  000ae	68 8b 01 00 00	 push	 395			; 0000018bH
; File D:\git\src\IBK\IBK_DRFN\ProjSrc\SrcChartEx\ChartAddIn\ChartEnvSetupDlgAddIn\ChartEnvSetupDlgAddIn\DropBtn.cpp

; 685  : 		if(m_pDropWnd->m_pDropList->GetCount() * m_pDropWnd->m_pDropList->GetItemHeight(0) < m_nListHeight)

  000b3	8b 80 84 00 00
	00		 mov	 eax, DWORD PTR [eax+132]
; File C:\Program Files (x86)\Microsoft Visual Studio\2019\Community\VC\Tools\MSVC\14.29.30133\atlmfc\include\afxwin2.inl

; 664  : 	{ ASSERT(::IsWindow(m_hWnd)); return (int)::SendMessage(m_hWnd, LB_GETCOUNT, 0, 0); }

  000b9	ff 70 20	 push	 DWORD PTR [eax+32]
  000bc	ff d3		 call	 ebx
; File D:\git\src\IBK\IBK_DRFN\ProjSrc\SrcChartEx\ChartAddIn\ChartEnvSetupDlgAddIn\ChartEnvSetupDlgAddIn\DropBtn.cpp

; 685  : 		if(m_pDropWnd->m_pDropList->GetCount() * m_pDropWnd->m_pDropList->GetItemHeight(0) < m_nListHeight)

  000be	8b 8f d4 00 00
	00		 mov	 ecx, DWORD PTR [edi+212]
; File C:\Program Files (x86)\Microsoft Visual Studio\2019\Community\VC\Tools\MSVC\14.29.30133\atlmfc\include\afxwin2.inl

; 664  : 	{ ASSERT(::IsWindow(m_hWnd)); return (int)::SendMessage(m_hWnd, LB_GETCOUNT, 0, 0); }

  000c4	8b f0		 mov	 esi, eax

; 717  : 	{ ASSERT(::IsWindow(m_hWnd)); return (int)::SendMessage(m_hWnd, LB_GETITEMHEIGHT, nIndex, 0L); }

  000c6	6a 00		 push	 0
  000c8	6a 00		 push	 0
  000ca	68 a1 01 00 00	 push	 417			; 000001a1H
; File D:\git\src\IBK\IBK_DRFN\ProjSrc\SrcChartEx\ChartAddIn\ChartEnvSetupDlgAddIn\ChartEnvSetupDlgAddIn\DropBtn.cpp

; 685  : 		if(m_pDropWnd->m_pDropList->GetCount() * m_pDropWnd->m_pDropList->GetItemHeight(0) < m_nListHeight)

  000cf	8b 89 84 00 00
	00		 mov	 ecx, DWORD PTR [ecx+132]
; File C:\Program Files (x86)\Microsoft Visual Studio\2019\Community\VC\Tools\MSVC\14.29.30133\atlmfc\include\afxwin2.inl

; 717  : 	{ ASSERT(::IsWindow(m_hWnd)); return (int)::SendMessage(m_hWnd, LB_GETITEMHEIGHT, nIndex, 0L); }

  000d5	ff 71 20	 push	 DWORD PTR [ecx+32]
  000d8	ff d3		 call	 ebx
; File D:\git\src\IBK\IBK_DRFN\ProjSrc\SrcChartEx\ChartAddIn\ChartEnvSetupDlgAddIn\ChartEnvSetupDlgAddIn\DropBtn.cpp

; 685  : 		if(m_pDropWnd->m_pDropList->GetCount() * m_pDropWnd->m_pDropList->GetItemHeight(0) < m_nListHeight)

  000da	0f af c6	 imul	 eax, esi
  000dd	3b 87 84 00 00
	00		 cmp	 eax, DWORD PTR [edi+132]
  000e3	7d 3c		 jge	 SHORT $LN3@DisplayLis

; 686  : 			nHeight = m_pDropWnd->m_pDropList->GetCount() * m_pDropWnd->m_pDropList->GetItemHeight(0);		

  000e5	8b 87 d4 00 00
	00		 mov	 eax, DWORD PTR [edi+212]
; File C:\Program Files (x86)\Microsoft Visual Studio\2019\Community\VC\Tools\MSVC\14.29.30133\atlmfc\include\afxwin2.inl

; 664  : 	{ ASSERT(::IsWindow(m_hWnd)); return (int)::SendMessage(m_hWnd, LB_GETCOUNT, 0, 0); }

  000eb	6a 00		 push	 0
  000ed	6a 00		 push	 0
  000ef	68 8b 01 00 00	 push	 395			; 0000018bH
; File D:\git\src\IBK\IBK_DRFN\ProjSrc\SrcChartEx\ChartAddIn\ChartEnvSetupDlgAddIn\ChartEnvSetupDlgAddIn\DropBtn.cpp

; 686  : 			nHeight = m_pDropWnd->m_pDropList->GetCount() * m_pDropWnd->m_pDropList->GetItemHeight(0);		

  000f4	8b 80 84 00 00
	00		 mov	 eax, DWORD PTR [eax+132]
; File C:\Program Files (x86)\Microsoft Visual Studio\2019\Community\VC\Tools\MSVC\14.29.30133\atlmfc\include\afxwin2.inl

; 664  : 	{ ASSERT(::IsWindow(m_hWnd)); return (int)::SendMessage(m_hWnd, LB_GETCOUNT, 0, 0); }

  000fa	ff 70 20	 push	 DWORD PTR [eax+32]
  000fd	ff d3		 call	 ebx
; File D:\git\src\IBK\IBK_DRFN\ProjSrc\SrcChartEx\ChartAddIn\ChartEnvSetupDlgAddIn\ChartEnvSetupDlgAddIn\DropBtn.cpp

; 686  : 			nHeight = m_pDropWnd->m_pDropList->GetCount() * m_pDropWnd->m_pDropList->GetItemHeight(0);		

  000ff	8b 8f d4 00 00
	00		 mov	 ecx, DWORD PTR [edi+212]
; File C:\Program Files (x86)\Microsoft Visual Studio\2019\Community\VC\Tools\MSVC\14.29.30133\atlmfc\include\afxwin2.inl

; 664  : 	{ ASSERT(::IsWindow(m_hWnd)); return (int)::SendMessage(m_hWnd, LB_GETCOUNT, 0, 0); }

  00105	8b f0		 mov	 esi, eax

; 717  : 	{ ASSERT(::IsWindow(m_hWnd)); return (int)::SendMessage(m_hWnd, LB_GETITEMHEIGHT, nIndex, 0L); }

  00107	6a 00		 push	 0
  00109	6a 00		 push	 0
  0010b	68 a1 01 00 00	 push	 417			; 000001a1H
; File D:\git\src\IBK\IBK_DRFN\ProjSrc\SrcChartEx\ChartAddIn\ChartEnvSetupDlgAddIn\ChartEnvSetupDlgAddIn\DropBtn.cpp

; 686  : 			nHeight = m_pDropWnd->m_pDropList->GetCount() * m_pDropWnd->m_pDropList->GetItemHeight(0);		

  00110	8b 89 84 00 00
	00		 mov	 ecx, DWORD PTR [ecx+132]
; File C:\Program Files (x86)\Microsoft Visual Studio\2019\Community\VC\Tools\MSVC\14.29.30133\atlmfc\include\afxwin2.inl

; 717  : 	{ ASSERT(::IsWindow(m_hWnd)); return (int)::SendMessage(m_hWnd, LB_GETITEMHEIGHT, nIndex, 0L); }

  00116	ff 71 20	 push	 DWORD PTR [ecx+32]
  00119	ff d3		 call	 ebx
; File D:\git\src\IBK\IBK_DRFN\ProjSrc\SrcChartEx\ChartAddIn\ChartEnvSetupDlgAddIn\ChartEnvSetupDlgAddIn\DropBtn.cpp

; 686  : 			nHeight = m_pDropWnd->m_pDropList->GetCount() * m_pDropWnd->m_pDropList->GetItemHeight(0);		

  0011b	0f af c6	 imul	 eax, esi
  0011e	89 45 e8	 mov	 DWORD PTR _nHeight$1$[ebp], eax
$LN3@DisplayLis:
; File C:\Program Files (x86)\Microsoft Visual Studio\2019\Community\VC\Tools\MSVC\14.29.30133\atlmfc\include\atltypes.h

; 540  : 	left = l;

  00121	8b 55 ec	 mov	 edx, DWORD PTR _ButtonRect$[ebp]
; File D:\git\src\IBK\IBK_DRFN\ProjSrc\SrcChartEx\ChartAddIn\ChartEnvSetupDlgAddIn\ChartEnvSetupDlgAddIn\DropBtn.cpp

; 689  : 	CRect NewRect(ButtonRect.left, ButtonRect.bottom - 1, ButtonRect.left + m_nListWidth, ButtonRect.bottom + nHeight );

  00124	8b 87 80 00 00
	00		 mov	 eax, DWORD PTR [edi+128]
  0012a	8b 75 f8	 mov	 esi, DWORD PTR _ButtonRect$[ebp+12]
  0012d	03 c2		 add	 eax, edx
; File C:\Program Files (x86)\Microsoft Visual Studio\2019\Community\VC\Tools\MSVC\14.29.30133\atlmfc\include\atltypes.h

; 542  : 	right = r;

  0012f	89 45 e0	 mov	 DWORD PTR _NewRect$[ebp+8], eax
; File D:\git\src\IBK\IBK_DRFN\ProjSrc\SrcChartEx\ChartAddIn\ChartEnvSetupDlgAddIn\ChartEnvSetupDlgAddIn\DropBtn.cpp

; 689  : 	CRect NewRect(ButtonRect.left, ButtonRect.bottom - 1, ButtonRect.left + m_nListWidth, ButtonRect.bottom + nHeight );

  00132	8b 45 e8	 mov	 eax, DWORD PTR _nHeight$1$[ebp]
  00135	03 c6		 add	 eax, esi
; File C:\Program Files (x86)\Microsoft Visual Studio\2019\Community\VC\Tools\MSVC\14.29.30133\atlmfc\include\atltypes.h

; 540  : 	left = l;

  00137	89 55 d8	 mov	 DWORD PTR _NewRect$[ebp], edx

; 543  : 	bottom = b;

  0013a	89 45 e4	 mov	 DWORD PTR _NewRect$[ebp+12], eax
; File D:\git\src\IBK\IBK_DRFN\ProjSrc\SrcChartEx\ChartAddIn\ChartEnvSetupDlgAddIn\ChartEnvSetupDlgAddIn\DropBtn.cpp

; 689  : 	CRect NewRect(ButtonRect.left, ButtonRect.bottom - 1, ButtonRect.left + m_nListWidth, ButtonRect.bottom + nHeight );

  0013d	8d 4e ff	 lea	 ecx, DWORD PTR [esi-1]
; File C:\Program Files (x86)\Microsoft Visual Studio\2019\Community\VC\Tools\MSVC\14.29.30133\atlmfc\include\atltypes.h

; 541  : 	top = t;

  00140	89 4d dc	 mov	 DWORD PTR _NewRect$[ebp+4], ecx
; File D:\git\src\IBK\IBK_DRFN\ProjSrc\SrcChartEx\ChartAddIn\ChartEnvSetupDlgAddIn\ChartEnvSetupDlgAddIn\DropBtn.cpp

; 690  : 	m_ListRect = NewRect;

  00143	0f 10 45 d8	 movups	 xmm0, XMMWORD PTR _NewRect$[ebp]
; File C:\Program Files (x86)\Microsoft Visual Studio\2019\Community\VC\Tools\MSVC\14.29.30133\atlmfc\include\afxwin2.inl

; 73   : 	{ MoveWindow(lpRect->left, lpRect->top, lpRect->right - lpRect->left,

  00147	6a 00		 push	 0
; File D:\git\src\IBK\IBK_DRFN\ProjSrc\SrcChartEx\ChartAddIn\ChartEnvSetupDlgAddIn\ChartEnvSetupDlgAddIn\DropBtn.cpp

; 690  : 	m_ListRect = NewRect;

  00149	0f 11 87 a4 00
	00 00		 movups	 XMMWORD PTR [edi+164], xmm0
; File C:\Program Files (x86)\Microsoft Visual Studio\2019\Community\VC\Tools\MSVC\14.29.30133\atlmfc\include\afxwin2.inl

; 73   : 	{ MoveWindow(lpRect->left, lpRect->top, lpRect->right - lpRect->left,

  00150	8b 8f a8 00 00
	00		 mov	 ecx, DWORD PTR [edi+168]
  00156	8b 87 b0 00 00
	00		 mov	 eax, DWORD PTR [edi+176]
  0015c	8b 97 a4 00 00
	00		 mov	 edx, DWORD PTR [edi+164]
  00162	2b c1		 sub	 eax, ecx
  00164	50		 push	 eax
  00165	8b 87 ac 00 00
	00		 mov	 eax, DWORD PTR [edi+172]
  0016b	2b c2		 sub	 eax, edx
  0016d	50		 push	 eax
  0016e	51		 push	 ecx
  0016f	8b 8f d4 00 00
	00		 mov	 ecx, DWORD PTR [edi+212]
  00175	52		 push	 edx
  00176	e8 00 00 00 00	 call	 ?MoveWindow@CWnd@@QAEXHHHHH@Z ; CWnd::MoveWindow

; 84   : 	{ ASSERT(::IsWindow(m_hWnd)); ::GetWindowRect(m_hWnd, lpRect); }

  0017b	8d 45 ec	 lea	 eax, DWORD PTR _ButtonRect$[ebp]
  0017e	50		 push	 eax
  0017f	8b 87 d4 00 00
	00		 mov	 eax, DWORD PTR [edi+212]
  00185	8b 80 84 00 00
	00		 mov	 eax, DWORD PTR [eax+132]
  0018b	ff 70 20	 push	 DWORD PTR [eax+32]
  0018e	ff 15 00 00 00
	00		 call	 DWORD PTR __imp__GetWindowRect@8
; File D:\git\src\IBK\IBK_DRFN\ProjSrc\SrcChartEx\ChartAddIn\ChartEnvSetupDlgAddIn\ChartEnvSetupDlgAddIn\DropBtn.cpp

; 695  : 	if(ButtonRect.bottom != m_ListRect.bottom)

  00194	8b 87 b0 00 00
	00		 mov	 eax, DWORD PTR [edi+176]
  0019a	5e		 pop	 esi
  0019b	5b		 pop	 ebx
  0019c	39 45 f8	 cmp	 DWORD PTR _ButtonRect$[ebp+12], eax
  0019f	74 32		 je	 SHORT $LN4@DisplayLis
; File C:\Program Files (x86)\Microsoft Visual Studio\2019\Community\VC\Tools\MSVC\14.29.30133\atlmfc\include\atltypes.h

; 686  : 	::InflateRect(this, x, y);

  001a1	6a 01		 push	 1
; File D:\git\src\IBK\IBK_DRFN\ProjSrc\SrcChartEx\ChartAddIn\ChartEnvSetupDlgAddIn\ChartEnvSetupDlgAddIn\DropBtn.cpp

; 697  : 		ButtonRect.bottom = m_ListRect.bottom; // Two for the border

  001a3	89 45 f8	 mov	 DWORD PTR _ButtonRect$[ebp+12], eax
; File C:\Program Files (x86)\Microsoft Visual Studio\2019\Community\VC\Tools\MSVC\14.29.30133\atlmfc\include\atltypes.h

; 686  : 	::InflateRect(this, x, y);

  001a6	8d 45 ec	 lea	 eax, DWORD PTR _ButtonRect$[ebp]
  001a9	6a 01		 push	 1
  001ab	50		 push	 eax
  001ac	ff 15 00 00 00
	00		 call	 DWORD PTR __imp__InflateRect@12
; File C:\Program Files (x86)\Microsoft Visual Studio\2019\Community\VC\Tools\MSVC\14.29.30133\atlmfc\include\afxwin2.inl

; 73   : 	{ MoveWindow(lpRect->left, lpRect->top, lpRect->right - lpRect->left,

  001b2	8b 45 f8	 mov	 eax, DWORD PTR _ButtonRect$[ebp+12]
  001b5	8b 55 f0	 mov	 edx, DWORD PTR _ButtonRect$[ebp+4]
  001b8	2b c2		 sub	 eax, edx
  001ba	8b 4d ec	 mov	 ecx, DWORD PTR _ButtonRect$[ebp]
  001bd	6a 01		 push	 1
  001bf	50		 push	 eax
  001c0	8b 45 f4	 mov	 eax, DWORD PTR _ButtonRect$[ebp+8]
  001c3	2b c1		 sub	 eax, ecx
  001c5	50		 push	 eax
  001c6	52		 push	 edx
  001c7	51		 push	 ecx
  001c8	8b 8f d4 00 00
	00		 mov	 ecx, DWORD PTR [edi+212]
  001ce	e8 00 00 00 00	 call	 ?MoveWindow@CWnd@@QAEXHHHHH@Z ; CWnd::MoveWindow
$LN4@DisplayLis:
; File D:\git\src\IBK\IBK_DRFN\ProjSrc\SrcChartEx\ChartAddIn\ChartEnvSetupDlgAddIn\ChartEnvSetupDlgAddIn\DropBtn.cpp

; 703  : 	m_pDropWnd->ShowWindow(SW_SHOWNORMAL);

  001d3	8b 8f d4 00 00
	00		 mov	 ecx, DWORD PTR [edi+212]
  001d9	6a 01		 push	 1
  001db	e8 00 00 00 00	 call	 ?ShowWindow@CWnd@@QAEHH@Z ; CWnd::ShowWindow

; 704  : }

  001e0	8b 4d fc	 mov	 ecx, DWORD PTR __$ArrayPad$[ebp]
  001e3	33 cd		 xor	 ecx, ebp
  001e5	5f		 pop	 edi
  001e6	e8 00 00 00 00	 call	 @__security_check_cookie@4
  001eb	8b e5		 mov	 esp, ebp
  001ed	5d		 pop	 ebp
  001ee	c3		 ret	 0
?DisplayList@CDropButton@@AAEXXZ ENDP			; CDropButton::DisplayList
_TEXT	ENDS
; Function compile flags: /Ogtp
; File D:\git\src\IBK\IBK_DRFN\ProjSrc\SrcChartEx\ChartAddIn\ChartEnvSetupDlgAddIn\ChartEnvSetupDlgAddIn\DropBtn.cpp
; File C:\Program Files (x86)\Microsoft Visual Studio\2019\Community\VC\Tools\MSVC\14.29.30133\atlmfc\include\afxwin1.inl
; File D:\git\src\IBK\IBK_DRFN\ProjSrc\SrcChartEx\ChartAddIn\ChartEnvSetupDlgAddIn\ChartEnvSetupDlgAddIn\DropBtn.cpp
; File C:\Program Files (x86)\Microsoft Visual Studio\2019\Community\VC\Tools\MSVC\14.29.30133\atlmfc\include\afxwin1.inl
; File D:\git\src\IBK\IBK_DRFN\ProjSrc\SrcChartEx\ChartAddIn\ChartEnvSetupDlgAddIn\ChartEnvSetupDlgAddIn\DropBtn.cpp
; File C:\Program Files (x86)\Microsoft Visual Studio\2019\Community\VC\Tools\MSVC\14.29.30133\atlmfc\include\afxwin1.inl
; File D:\git\src\IBK\IBK_DRFN\ProjSrc\SrcChartEx\ChartAddIn\ChartEnvSetupDlgAddIn\ChartEnvSetupDlgAddIn\DropBtn.cpp
;	COMDAT ?DrawTriangle@CDropButton@@AAEXPAVCDC@@VCPoint@@H@Z
_TEXT	SEGMENT
_pDC$GSCopy$1$ = -32					; size = 4
_ptArray$ = -28						; size = 24
__$ArrayPad$ = -4					; size = 4
_pDC$ = 8						; size = 4
_ptTopLeft$ = 12					; size = 8
_nWidth$ = 20						; size = 4
?DrawTriangle@CDropButton@@AAEXPAVCDC@@VCPoint@@H@Z PROC ; CDropButton::DrawTriangle, COMDAT
; _this$ = ecx

; 604  : {

  00000	55		 push	 ebp
  00001	8b ec		 mov	 ebp, esp
  00003	83 ec 20	 sub	 esp, 32			; 00000020H
  00006	a1 00 00 00 00	 mov	 eax, DWORD PTR ___security_cookie
  0000b	33 c5		 xor	 eax, ebp
  0000d	89 45 fc	 mov	 DWORD PTR __$ArrayPad$[ebp], eax
  00010	8b 45 08	 mov	 eax, DWORD PTR _pDC$[ebp]
  00013	89 45 e0	 mov	 DWORD PTR _pDC$GSCopy$1$[ebp], eax

; 605  : 	POINT 	ptArray[3];
; 606  : 	
; 607  : 	ptArray[0] 	 = ptTopLeft;
; 608  : 	ptArray[1].x = ptTopLeft.x + nWidth - 1;

  00016	8b 45 14	 mov	 eax, DWORD PTR _nWidth$[ebp]
  00019	53		 push	 ebx
  0001a	8b d9		 mov	 ebx, ecx
  0001c	56		 push	 esi
  0001d	8b 75 0c	 mov	 esi, DWORD PTR _ptTopLeft$[ebp]
  00020	8d 48 ff	 lea	 ecx, DWORD PTR [eax-1]

; 609  : 	ptArray[1].y = ptTopLeft.y;
; 610  : 	ptArray[2].x = ptTopLeft.x + nWidth / 2;

  00023	99		 cdq
  00024	03 ce		 add	 ecx, esi
  00026	2b c2		 sub	 eax, edx
  00028	89 4d ec	 mov	 DWORD PTR _ptArray$[ebp+8], ecx
  0002b	d1 f8		 sar	 eax, 1
  0002d	57		 push	 edi
  0002e	8b 7d 10	 mov	 edi, DWORD PTR _ptTopLeft$[ebp+4]

; 611  : 	ptArray[2].y = ptTopLeft.y + nWidth / 2;
; 612  : 
; 613  : 	// Select the Brush and Draw the triangle
; 614  : 	pDC->SelectObject(m_pTriBrush);

  00031	ff b3 c8 00 00
	00		 push	 DWORD PTR [ebx+200]
  00037	8d 0c 30	 lea	 ecx, DWORD PTR [eax+esi]
  0003a	89 75 e4	 mov	 DWORD PTR _ptArray$[ebp], esi
  0003d	8b 75 e0	 mov	 esi, DWORD PTR _pDC$GSCopy$1$[ebp]
  00040	03 c7		 add	 eax, edi
  00042	89 4d f4	 mov	 DWORD PTR _ptArray$[ebp+16], ecx
  00045	8b ce		 mov	 ecx, esi
  00047	89 7d e8	 mov	 DWORD PTR _ptArray$[ebp+4], edi
  0004a	89 7d f0	 mov	 DWORD PTR _ptArray$[ebp+12], edi
  0004d	89 45 f8	 mov	 DWORD PTR _ptArray$[ebp+20], eax
  00050	e8 00 00 00 00	 call	 ?SelectObject@CDC@@QAEPAVCBrush@@PAV2@@Z ; CDC::SelectObject

; 615  : 	pDC->SelectObject(m_pTriPen);

  00055	ff b3 b8 00 00
	00		 push	 DWORD PTR [ebx+184]
  0005b	8b ce		 mov	 ecx, esi
  0005d	e8 00 00 00 00	 call	 ?SelectObject@CDC@@QAEPAVCPen@@PAV2@@Z ; CDC::SelectObject
; File C:\Program Files (x86)\Microsoft Visual Studio\2019\Community\VC\Tools\MSVC\14.29.30133\atlmfc\include\afxwin1.inl

; 535  : 	{ ASSERT(m_hDC != NULL); return ::Polygon(m_hDC, lpPoints, nCount); }

  00062	6a 03		 push	 3
  00064	8d 45 e4	 lea	 eax, DWORD PTR _ptArray$[ebp]
  00067	50		 push	 eax
  00068	ff 76 04	 push	 DWORD PTR [esi+4]
  0006b	ff 15 00 00 00
	00		 call	 DWORD PTR __imp__Polygon@12
; File D:\git\src\IBK\IBK_DRFN\ProjSrc\SrcChartEx\ChartAddIn\ChartEnvSetupDlgAddIn\ChartEnvSetupDlgAddIn\DropBtn.cpp

; 617  : }

  00071	8b 4d fc	 mov	 ecx, DWORD PTR __$ArrayPad$[ebp]
; File C:\Program Files (x86)\Microsoft Visual Studio\2019\Community\VC\Tools\MSVC\14.29.30133\atlmfc\include\afxwin1.inl

; 535  : 	{ ASSERT(m_hDC != NULL); return ::Polygon(m_hDC, lpPoints, nCount); }

  00074	5f		 pop	 edi
  00075	5e		 pop	 esi
; File D:\git\src\IBK\IBK_DRFN\ProjSrc\SrcChartEx\ChartAddIn\ChartEnvSetupDlgAddIn\ChartEnvSetupDlgAddIn\DropBtn.cpp

; 617  : }

  00076	33 cd		 xor	 ecx, ebp
; File C:\Program Files (x86)\Microsoft Visual Studio\2019\Community\VC\Tools\MSVC\14.29.30133\atlmfc\include\afxwin1.inl

; 535  : 	{ ASSERT(m_hDC != NULL); return ::Polygon(m_hDC, lpPoints, nCount); }

  00078	5b		 pop	 ebx
; File D:\git\src\IBK\IBK_DRFN\ProjSrc\SrcChartEx\ChartAddIn\ChartEnvSetupDlgAddIn\ChartEnvSetupDlgAddIn\DropBtn.cpp

; 617  : }

  00079	e8 00 00 00 00	 call	 @__security_check_cookie@4
  0007e	8b e5		 mov	 esp, ebp
  00080	5d		 pop	 ebp
  00081	c2 10 00	 ret	 16			; 00000010H
?DrawTriangle@CDropButton@@AAEXPAVCDC@@VCPoint@@H@Z ENDP ; CDropButton::DrawTriangle
_TEXT	ENDS
; Function compile flags: /Ogtp
; File D:\git\src\IBK\IBK_DRFN\ProjSrc\SrcChartEx\ChartAddIn\ChartEnvSetupDlgAddIn\ChartEnvSetupDlgAddIn\DropBtn.cpp
; File C:\Program Files (x86)\Microsoft Visual Studio\2019\Community\VC\Tools\MSVC\14.29.30133\atlmfc\include\afx.inl
;	COMDAT ??_GCListWnd@@UAEPAXI@Z
_TEXT	SEGMENT
___flags$ = 8						; size = 4
??_GCListWnd@@UAEPAXI@Z PROC				; CListWnd::`scalar deleting destructor', COMDAT
; _this$ = ecx
  00000	55		 push	 ebp
  00001	8b ec		 mov	 ebp, esp
; File D:\git\src\IBK\IBK_DRFN\ProjSrc\SrcChartEx\ChartAddIn\ChartEnvSetupDlgAddIn\ChartEnvSetupDlgAddIn\DropBtn.cpp

; 368  : {

  00003	56		 push	 esi
  00004	8b f1		 mov	 esi, ecx

; 369  : 	if(m_pDropList) delete m_pDropList;

  00006	8b 8e 84 00 00
	00		 mov	 ecx, DWORD PTR [esi+132]
  0000c	c7 06 00 00 00
	00		 mov	 DWORD PTR [esi], OFFSET ??_7CListWnd@@6B@
  00012	85 c9		 test	 ecx, ecx
  00014	74 07		 je	 SHORT $LN10@scalar
  00016	8b 01		 mov	 eax, DWORD PTR [ecx]
  00018	6a 01		 push	 1
  0001a	ff 50 04	 call	 DWORD PTR [eax+4]
$LN10@scalar:

; 370  : }

  0001d	8b ce		 mov	 ecx, esi
  0001f	e8 00 00 00 00	 call	 ??1CWnd@@UAE@XZ		; CWnd::~CWnd
  00024	8b 45 08	 mov	 eax, DWORD PTR ___flags$[ebp]
  00027	a8 01		 test	 al, 1
  00029	74 22		 je	 SHORT $LN15@scalar
  0002b	a8 04		 test	 al, 4
  0002d	75 10		 jne	 SHORT $LN3@scalar
; File C:\Program Files (x86)\Microsoft Visual Studio\2019\Community\VC\Tools\MSVC\14.29.30133\atlmfc\include\afx.inl

; 112  : 	{ ::operator delete(p); }

  0002f	56		 push	 esi
  00030	e8 00 00 00 00	 call	 ??3@YAXPAX@Z		; operator delete
  00035	83 c4 04	 add	 esp, 4
  00038	8b c6		 mov	 eax, esi
  0003a	5e		 pop	 esi
  0003b	5d		 pop	 ebp
  0003c	c2 04 00	 ret	 4
$LN3@scalar:
  0003f	68 88 00 00 00	 push	 136			; 00000088H
  00044	56		 push	 esi
  00045	e8 00 00 00 00	 call	 ?__global_delete@@YAXPAXI@Z ; __global_delete
  0004a	83 c4 08	 add	 esp, 8
$LN15@scalar:
  0004d	8b c6		 mov	 eax, esi
  0004f	5e		 pop	 esi
  00050	5d		 pop	 ebp
  00051	c2 04 00	 ret	 4
??_GCListWnd@@UAEPAXI@Z ENDP				; CListWnd::`scalar deleting destructor'
_TEXT	ENDS
; Function compile flags: /Ogtp
; File D:\git\src\IBK\IBK_DRFN\ProjSrc\SrcChartEx\ChartAddIn\ChartEnvSetupDlgAddIn\ChartEnvSetupDlgAddIn\DropBtn.cpp
;	COMDAT ?GetMessageMap@CListWnd@@MBEPBUAFX_MSGMAP@@XZ
_TEXT	SEGMENT
?GetMessageMap@CListWnd@@MBEPBUAFX_MSGMAP@@XZ PROC	; CListWnd::GetMessageMap, COMDAT
; _this$ = ecx

; 372  : BEGIN_MESSAGE_MAP(CListWnd, CWnd)

  00000	b8 00 00 00 00	 mov	 eax, OFFSET ?messageMap@?1??GetThisMessageMap@CListWnd@@KGPBUAFX_MSGMAP@@XZ@4U3@B
  00005	c3		 ret	 0
?GetMessageMap@CListWnd@@MBEPBUAFX_MSGMAP@@XZ ENDP	; CListWnd::GetMessageMap
_TEXT	ENDS
; Function compile flags: /Ogtp
; File D:\git\src\IBK\IBK_DRFN\ProjSrc\SrcChartEx\ChartAddIn\ChartEnvSetupDlgAddIn\ChartEnvSetupDlgAddIn\DropBtn.cpp
;	COMDAT ?GetThisMessageMap@CListWnd@@KGPBUAFX_MSGMAP@@XZ
_TEXT	SEGMENT
?GetThisMessageMap@CListWnd@@KGPBUAFX_MSGMAP@@XZ PROC	; CListWnd::GetThisMessageMap, COMDAT

; 373  : 	//{{AFX_MSG_MAP(CListWnd)
; 374  : 	ON_WM_SIZE()
; 375  : 	ON_WM_SHOWWINDOW()
; 376  : 	ON_LBN_SELCHANGE(ID_CUSTOMLIST, OnSelectionChange)
; 377  : 	//}}AFX_MSG_MAP
; 378  : END_MESSAGE_MAP()

  00000	b8 00 00 00 00	 mov	 eax, OFFSET ?messageMap@?1??GetThisMessageMap@CListWnd@@KGPBUAFX_MSGMAP@@XZ@4U3@B
  00005	c3		 ret	 0
?GetThisMessageMap@CListWnd@@KGPBUAFX_MSGMAP@@XZ ENDP	; CListWnd::GetThisMessageMap
_TEXT	ENDS
; Function compile flags: /Ogtp
; File D:\git\src\IBK\IBK_DRFN\ProjSrc\SrcChartEx\ChartAddIn\ChartEnvSetupDlgAddIn\ChartEnvSetupDlgAddIn\DropBtn.cpp
; File C:\Program Files (x86)\Microsoft Visual Studio\2019\Community\VC\Tools\MSVC\14.29.30133\atlmfc\include\afxwin2.inl
; File D:\git\src\IBK\IBK_DRFN\ProjSrc\SrcChartEx\ChartAddIn\ChartEnvSetupDlgAddIn\ChartEnvSetupDlgAddIn\DropBtn.cpp
; File C:\Program Files (x86)\Microsoft Visual Studio\2019\Community\VC\Tools\MSVC\14.29.30133\atlmfc\include\afxwin2.inl
; File D:\git\src\IBK\IBK_DRFN\ProjSrc\SrcChartEx\ChartAddIn\ChartEnvSetupDlgAddIn\ChartEnvSetupDlgAddIn\DropBtn.cpp
;	COMDAT ?OnShowWindow@CListWnd@@IAEXHI@Z
_TEXT	SEGMENT
_bShow$ = 8						; size = 4
_nStatus$ = 12						; size = 4
?OnShowWindow@CListWnd@@IAEXHI@Z PROC			; CListWnd::OnShowWindow, COMDAT
; _this$ = ecx

; 412  : {

  00000	55		 push	 ebp
  00001	8b ec		 mov	 ebp, esp
  00003	56		 push	 esi
  00004	8b f1		 mov	 esi, ecx
; File C:\Program Files (x86)\Microsoft Visual Studio\2019\Community\VC\Tools\MSVC\14.29.30133\atlmfc\include\afxwin2.inl

; 328  : 	{ Default(); }

  00006	e8 00 00 00 00	 call	 ?Default@CWnd@@IAEJXZ	; CWnd::Default
; File D:\git\src\IBK\IBK_DRFN\ProjSrc\SrcChartEx\ChartAddIn\ChartEnvSetupDlgAddIn\ChartEnvSetupDlgAddIn\DropBtn.cpp

; 414  : 	if(!bShow)	

  0000b	83 7d 08 00	 cmp	 DWORD PTR _bShow$[ebp], 0
  0000f	75 21		 jne	 SHORT $LN2@OnShowWind
; File C:\Program Files (x86)\Microsoft Visual Studio\2019\Community\VC\Tools\MSVC\14.29.30133\atlmfc\include\afxwin2.inl

; 213  : 	{ ASSERT(::IsWindow(m_hWnd)); return CWnd::FromHandle(::GetParent(m_hWnd)); }

  00011	ff 76 20	 push	 DWORD PTR [esi+32]
  00014	ff 15 00 00 00
	00		 call	 DWORD PTR __imp__GetParent@4
  0001a	50		 push	 eax
  0001b	e8 00 00 00 00	 call	 ?FromHandle@CWnd@@SGPAV1@PAUHWND__@@@Z ; CWnd::FromHandle

; 142  : 	{ ASSERT(::IsWindow(m_hWnd)); return ::RedrawWindow(m_hWnd, lpRectUpdate, (HRGN)prgnUpdate->GetSafeHandle(), flags); }

  00020	68 05 01 00 00	 push	 261			; 00000105H
  00025	6a 00		 push	 0
  00027	6a 00		 push	 0
  00029	ff 70 20	 push	 DWORD PTR [eax+32]
  0002c	ff 15 00 00 00
	00		 call	 DWORD PTR __imp__RedrawWindow@16
$LN2@OnShowWind:
  00032	5e		 pop	 esi
; File D:\git\src\IBK\IBK_DRFN\ProjSrc\SrcChartEx\ChartAddIn\ChartEnvSetupDlgAddIn\ChartEnvSetupDlgAddIn\DropBtn.cpp

; 416  : }

  00033	5d		 pop	 ebp
  00034	c2 08 00	 ret	 8
?OnShowWindow@CListWnd@@IAEXHI@Z ENDP			; CListWnd::OnShowWindow
_TEXT	ENDS
; Function compile flags: /Ogtp
; File D:\git\src\IBK\IBK_DRFN\ProjSrc\SrcChartEx\ChartAddIn\ChartEnvSetupDlgAddIn\ChartEnvSetupDlgAddIn\DropBtn.cpp
; File C:\Program Files (x86)\Microsoft Visual Studio\2019\Community\VC\Tools\MSVC\14.29.30133\atlmfc\include\afxwin2.inl
; File D:\git\src\IBK\IBK_DRFN\ProjSrc\SrcChartEx\ChartAddIn\ChartEnvSetupDlgAddIn\ChartEnvSetupDlgAddIn\DropBtn.cpp
; File C:\Program Files (x86)\Microsoft Visual Studio\2019\Community\VC\Tools\MSVC\14.29.30133\atlmfc\include\afxwin2.inl
; File C:\Program Files (x86)\Microsoft Visual Studio\2019\Community\VC\Tools\MSVC\14.29.30133\atlmfc\include\atltypes.h
; File C:\Program Files (x86)\Microsoft Visual Studio\2019\Community\VC\Tools\MSVC\14.29.30133\atlmfc\include\afxwin2.inl
; File D:\git\src\IBK\IBK_DRFN\ProjSrc\SrcChartEx\ChartAddIn\ChartEnvSetupDlgAddIn\ChartEnvSetupDlgAddIn\DropBtn.cpp
;	COMDAT ?OnSize@CListWnd@@IAEXIHH@Z
_TEXT	SEGMENT
_WindowRect$ = -20					; size = 16
__$ArrayPad$ = -4					; size = 4
_nType$ = 8						; size = 4
_cx$ = 12						; size = 4
_cy$ = 16						; size = 4
?OnSize@CListWnd@@IAEXIHH@Z PROC			; CListWnd::OnSize, COMDAT
; _this$ = ecx

; 398  : {

  00000	55		 push	 ebp
  00001	8b ec		 mov	 ebp, esp
  00003	83 ec 14	 sub	 esp, 20			; 00000014H
  00006	a1 00 00 00 00	 mov	 eax, DWORD PTR ___security_cookie
  0000b	33 c5		 xor	 eax, ebp
  0000d	89 45 fc	 mov	 DWORD PTR __$ArrayPad$[ebp], eax
  00010	56		 push	 esi
  00011	8b f1		 mov	 esi, ecx
; File C:\Program Files (x86)\Microsoft Visual Studio\2019\Community\VC\Tools\MSVC\14.29.30133\atlmfc\include\afxwin2.inl

; 330  : 	{ Default(); }

  00013	e8 00 00 00 00	 call	 ?Default@CWnd@@IAEJXZ	; CWnd::Default
; File D:\git\src\IBK\IBK_DRFN\ProjSrc\SrcChartEx\ChartAddIn\ChartEnvSetupDlgAddIn\ChartEnvSetupDlgAddIn\DropBtn.cpp

; 402  : 	if(!m_pDropList)

  00018	83 be 84 00 00
	00 00		 cmp	 DWORD PTR [esi+132], 0
  0001f	74 35		 je	 SHORT $LN1@OnSize
; File C:\Program Files (x86)\Microsoft Visual Studio\2019\Community\VC\Tools\MSVC\14.29.30133\atlmfc\include\afxwin2.inl

; 86   : 	{ ASSERT(::IsWindow(m_hWnd)); ::GetClientRect(m_hWnd, lpRect); }

  00021	8d 45 ec	 lea	 eax, DWORD PTR _WindowRect$[ebp]
  00024	0f 57 c0	 xorps	 xmm0, xmm0
  00027	50		 push	 eax
  00028	ff 76 20	 push	 DWORD PTR [esi+32]
; File C:\Program Files (x86)\Microsoft Visual Studio\2019\Community\VC\Tools\MSVC\14.29.30133\atlmfc\include\atltypes.h

; 528  : 	left = 0;

  0002b	0f 11 45 ec	 movups	 XMMWORD PTR _WindowRect$[ebp], xmm0
; File C:\Program Files (x86)\Microsoft Visual Studio\2019\Community\VC\Tools\MSVC\14.29.30133\atlmfc\include\afxwin2.inl

; 86   : 	{ ASSERT(::IsWindow(m_hWnd)); ::GetClientRect(m_hWnd, lpRect); }

  0002f	ff 15 00 00 00
	00		 call	 DWORD PTR __imp__GetClientRect@8

; 73   : 	{ MoveWindow(lpRect->left, lpRect->top, lpRect->right - lpRect->left,

  00035	8b 45 f8	 mov	 eax, DWORD PTR _WindowRect$[ebp+12]
  00038	8b 55 f0	 mov	 edx, DWORD PTR _WindowRect$[ebp+4]
  0003b	2b c2		 sub	 eax, edx
  0003d	8b 4d ec	 mov	 ecx, DWORD PTR _WindowRect$[ebp]
  00040	6a 01		 push	 1
  00042	50		 push	 eax
  00043	8b 45 f4	 mov	 eax, DWORD PTR _WindowRect$[ebp+8]
  00046	2b c1		 sub	 eax, ecx
  00048	50		 push	 eax
  00049	52		 push	 edx
  0004a	51		 push	 ecx
  0004b	8b 8e 84 00 00
	00		 mov	 ecx, DWORD PTR [esi+132]
  00051	e8 00 00 00 00	 call	 ?MoveWindow@CWnd@@QAEXHHHHH@Z ; CWnd::MoveWindow
$LN1@OnSize:
; File D:\git\src\IBK\IBK_DRFN\ProjSrc\SrcChartEx\ChartAddIn\ChartEnvSetupDlgAddIn\ChartEnvSetupDlgAddIn\DropBtn.cpp

; 409  : }

  00056	8b 4d fc	 mov	 ecx, DWORD PTR __$ArrayPad$[ebp]
  00059	33 cd		 xor	 ecx, ebp
  0005b	5e		 pop	 esi
  0005c	e8 00 00 00 00	 call	 @__security_check_cookie@4
  00061	8b e5		 mov	 esp, ebp
  00063	5d		 pop	 ebp
  00064	c2 0c 00	 ret	 12			; 0000000cH
?OnSize@CListWnd@@IAEXIHH@Z ENDP			; CListWnd::OnSize
_TEXT	ENDS
; Function compile flags: /Ogtp
; File D:\git\src\IBK\IBK_DRFN\ProjSrc\SrcChartEx\ChartAddIn\ChartEnvSetupDlgAddIn\ChartEnvSetupDlgAddIn\DropBtn.cpp
; File C:\Program Files (x86)\Microsoft Visual Studio\2019\Community\VC\Tools\MSVC\14.29.30133\atlmfc\include\afxwin2.inl
; File C:\Program Files (x86)\Microsoft Visual Studio\2019\Community\VC\Tools\MSVC\14.29.30133\atlmfc\include\atltypes.h
; File C:\Program Files (x86)\Microsoft Visual Studio\2019\Community\VC\Tools\MSVC\14.29.30133\atlmfc\include\afxwin2.inl
; File D:\git\src\IBK\IBK_DRFN\ProjSrc\SrcChartEx\ChartAddIn\ChartEnvSetupDlgAddIn\ChartEnvSetupDlgAddIn\DropBtn.cpp
; File C:\Program Files (x86)\Microsoft Visual Studio\2019\Community\VC\Tools\MSVC\14.29.30133\atlmfc\include\atltypes.h
; File D:\git\src\IBK\IBK_DRFN\ProjSrc\SrcChartEx\ChartAddIn\ChartEnvSetupDlgAddIn\ChartEnvSetupDlgAddIn\DropBtn.cpp
; File C:\Program Files (x86)\Microsoft Visual Studio\2019\Community\VC\Tools\MSVC\14.29.30133\atlmfc\include\afxwin2.inl
; File D:\git\src\IBK\IBK_DRFN\ProjSrc\SrcChartEx\ChartAddIn\ChartEnvSetupDlgAddIn\ChartEnvSetupDlgAddIn\DropBtn.cpp
; File C:\Program Files (x86)\Microsoft Visual Studio\2019\Community\VC\Tools\MSVC\14.29.30133\atlmfc\include\afxwin2.inl
; File D:\git\src\IBK\IBK_DRFN\ProjSrc\SrcChartEx\ChartAddIn\ChartEnvSetupDlgAddIn\ChartEnvSetupDlgAddIn\DropBtn.cpp
;	COMDAT ?OnSelectionChange@CListWnd@@IAEXXZ
_TEXT	SEGMENT
_pPoint$ = -28						; size = 8
_WindowRect$ = -20					; size = 16
__$ArrayPad$ = -4					; size = 4
?OnSelectionChange@CListWnd@@IAEXXZ PROC		; CListWnd::OnSelectionChange, COMDAT
; _this$ = ecx

; 418  : {

  00000	55		 push	 ebp
  00001	8b ec		 mov	 ebp, esp
  00003	83 ec 1c	 sub	 esp, 28			; 0000001cH
  00006	a1 00 00 00 00	 mov	 eax, DWORD PTR ___security_cookie
  0000b	33 c5		 xor	 eax, ebp
  0000d	89 45 fc	 mov	 DWORD PTR __$ArrayPad$[ebp], eax
  00010	57		 push	 edi
  00011	8b f9		 mov	 edi, ecx

; 419  : 	// Did they pick a Header?
; 420  : 	LISTITEM* pItem = m_pDropList->GetCurListItem();
; 421  : 	if(pItem->btHeader)

  00013	8b 87 84 00 00
	00		 mov	 eax, DWORD PTR [edi+132]
  00019	8b 80 cc 00 00
	00		 mov	 eax, DWORD PTR [eax+204]
  0001f	80 38 00	 cmp	 BYTE PTR [eax], 0
  00022	75 78		 jne	 SHORT $LN1@OnSelectio

; 422  : 		return;
; 423  : 	
; 424  : 	// Close the Window
; 425  : 	ShowWindow(SW_HIDE);		

  00024	6a 00		 push	 0
  00026	e8 00 00 00 00	 call	 ?ShowWindow@CWnd@@QAEHH@Z ; CWnd::ShowWindow
; File C:\Program Files (x86)\Microsoft Visual Studio\2019\Community\VC\Tools\MSVC\14.29.30133\atlmfc\include\afxwin2.inl

; 84   : 	{ ASSERT(::IsWindow(m_hWnd)); ::GetWindowRect(m_hWnd, lpRect); }

  0002b	8d 45 ec	 lea	 eax, DWORD PTR _WindowRect$[ebp]
  0002e	0f 57 c0	 xorps	 xmm0, xmm0
  00031	50		 push	 eax
  00032	ff 77 20	 push	 DWORD PTR [edi+32]
; File C:\Program Files (x86)\Microsoft Visual Studio\2019\Community\VC\Tools\MSVC\14.29.30133\atlmfc\include\atltypes.h

; 528  : 	left = 0;

  00035	0f 11 45 ec	 movups	 XMMWORD PTR _WindowRect$[ebp], xmm0
; File C:\Program Files (x86)\Microsoft Visual Studio\2019\Community\VC\Tools\MSVC\14.29.30133\atlmfc\include\afxwin2.inl

; 84   : 	{ ASSERT(::IsWindow(m_hWnd)); ::GetWindowRect(m_hWnd, lpRect); }

  00039	ff 15 00 00 00
	00		 call	 DWORD PTR __imp__GetWindowRect@8
; File D:\git\src\IBK\IBK_DRFN\ProjSrc\SrcChartEx\ChartAddIn\ChartEnvSetupDlgAddIn\ChartEnvSetupDlgAddIn\DropBtn.cpp

; 432  : 	GetCursorPos(&pPoint);

  0003f	8d 45 e4	 lea	 eax, DWORD PTR _pPoint$[ebp]
  00042	50		 push	 eax
  00043	ff 15 00 00 00
	00		 call	 DWORD PTR __imp__GetCursorPos@4
; File C:\Program Files (x86)\Microsoft Visual Studio\2019\Community\VC\Tools\MSVC\14.29.30133\atlmfc\include\atltypes.h

; 648  : 	return ::PtInRect(this, point);

  00049	ff 75 e8	 push	 DWORD PTR _pPoint$[ebp+4]
  0004c	8d 45 ec	 lea	 eax, DWORD PTR _WindowRect$[ebp]
  0004f	ff 75 e4	 push	 DWORD PTR _pPoint$[ebp]
  00052	50		 push	 eax
  00053	ff 15 00 00 00
	00		 call	 DWORD PTR __imp__PtInRect@12
  00059	8b 8f 84 00 00
	00		 mov	 ecx, DWORD PTR [edi+132]
; File D:\git\src\IBK\IBK_DRFN\ProjSrc\SrcChartEx\ChartAddIn\ChartEnvSetupDlgAddIn\ChartEnvSetupDlgAddIn\DropBtn.cpp

; 433  : 	if(!WindowRect.PtInRect(pPoint))

  0005f	6a 00		 push	 0
  00061	85 c0		 test	 eax, eax
  00063	75 10		 jne	 SHORT $LN3@OnSelectio
; File C:\Program Files (x86)\Microsoft Visual Studio\2019\Community\VC\Tools\MSVC\14.29.30133\atlmfc\include\afxwin2.inl

; 668  : 	{ ASSERT(::IsWindow(m_hWnd)); return (int)::SendMessage(m_hWnd, LB_SETCURSEL, nSelect, 0); }

  00065	ff b1 84 00 00
	00		 push	 DWORD PTR [ecx+132]
  0006b	68 86 01 00 00	 push	 390			; 00000186H
  00070	ff 71 20	 push	 DWORD PTR [ecx+32]
; File D:\git\src\IBK\IBK_DRFN\ProjSrc\SrcChartEx\ChartAddIn\ChartEnvSetupDlgAddIn\ChartEnvSetupDlgAddIn\DropBtn.cpp

; 437  : 		return;

  00073	eb 21		 jmp	 SHORT $LN28@OnSelectio
$LN3@OnSelectio:
; File C:\Program Files (x86)\Microsoft Visual Studio\2019\Community\VC\Tools\MSVC\14.29.30133\atlmfc\include\afxwin2.inl

; 666  : 	{ ASSERT(::IsWindow(m_hWnd)); return (int)::SendMessage(m_hWnd, LB_GETCURSEL, 0, 0); }

  00075	6a 00		 push	 0
  00077	68 88 01 00 00	 push	 392			; 00000188H
  0007c	ff 71 20	 push	 DWORD PTR [ecx+32]
  0007f	ff 15 00 00 00
	00		 call	 DWORD PTR __imp__SendMessageA@16

; 32   : 	{ ASSERT(::IsWindow(m_hWnd)); return ::SendMessage(m_hWnd, message, wParam, lParam); }

  00085	6a 00		 push	 0
  00087	50		 push	 eax
  00088	8b 87 80 00 00
	00		 mov	 eax, DWORD PTR [edi+128]
  0008e	68 66 04 00 00	 push	 1126			; 00000466H
  00093	ff 70 20	 push	 DWORD PTR [eax+32]
$LN28@OnSelectio:
; File D:\git\src\IBK\IBK_DRFN\ProjSrc\SrcChartEx\ChartAddIn\ChartEnvSetupDlgAddIn\ChartEnvSetupDlgAddIn\DropBtn.cpp

; 442  : }

  00096	ff 15 00 00 00
	00		 call	 DWORD PTR __imp__SendMessageA@16
$LN1@OnSelectio:
  0009c	8b 4d fc	 mov	 ecx, DWORD PTR __$ArrayPad$[ebp]
  0009f	33 cd		 xor	 ecx, ebp
  000a1	5f		 pop	 edi
  000a2	e8 00 00 00 00	 call	 @__security_check_cookie@4
  000a7	8b e5		 mov	 esp, ebp
  000a9	5d		 pop	 ebp
  000aa	c3		 ret	 0
?OnSelectionChange@CListWnd@@IAEXXZ ENDP		; CListWnd::OnSelectionChange
_TEXT	ENDS
; Function compile flags: /Ogtp
; File D:\git\src\IBK\IBK_DRFN\ProjSrc\SrcChartEx\ChartAddIn\ChartEnvSetupDlgAddIn\ChartEnvSetupDlgAddIn\DropBtn.cpp
;	COMDAT ??1CListWnd@@UAE@XZ
_TEXT	SEGMENT
??1CListWnd@@UAE@XZ PROC				; CListWnd::~CListWnd, COMDAT
; _this$ = ecx

; 368  : {

  00000	56		 push	 esi
  00001	8b f1		 mov	 esi, ecx

; 369  : 	if(m_pDropList) delete m_pDropList;

  00003	8b 8e 84 00 00
	00		 mov	 ecx, DWORD PTR [esi+132]
  00009	c7 06 00 00 00
	00		 mov	 DWORD PTR [esi], OFFSET ??_7CListWnd@@6B@
  0000f	85 c9		 test	 ecx, ecx
  00011	74 07		 je	 SHORT $LN4@CListWnd
  00013	8b 01		 mov	 eax, DWORD PTR [ecx]
  00015	6a 01		 push	 1
  00017	ff 50 04	 call	 DWORD PTR [eax+4]
$LN4@CListWnd:

; 370  : }

  0001a	8b ce		 mov	 ecx, esi
  0001c	5e		 pop	 esi
  0001d	e9 00 00 00 00	 jmp	 ??1CWnd@@UAE@XZ		; CWnd::~CWnd
??1CListWnd@@UAE@XZ ENDP				; CListWnd::~CListWnd
_TEXT	ENDS
; Function compile flags: /Ogtp
; File D:\git\src\IBK\IBK_DRFN\ProjSrc\SrcChartEx\ChartAddIn\ChartEnvSetupDlgAddIn\ChartEnvSetupDlgAddIn\DropBtn.cpp
; File C:\Program Files (x86)\Microsoft Visual Studio\2019\Community\VC\Tools\MSVC\14.29.30133\atlmfc\include\afxwin2.inl
; File D:\git\src\IBK\IBK_DRFN\ProjSrc\SrcChartEx\ChartAddIn\ChartEnvSetupDlgAddIn\ChartEnvSetupDlgAddIn\DropBtn.cpp
; File C:\Program Files (x86)\Microsoft Visual Studio\2019\Community\VC\Tools\MSVC\14.29.30133\atlmfc\include\afx.inl
; File D:\git\src\IBK\IBK_DRFN\ProjSrc\SrcChartEx\ChartAddIn\ChartEnvSetupDlgAddIn\ChartEnvSetupDlgAddIn\DropBtn.cpp
; File C:\Program Files (x86)\Microsoft Visual Studio\2019\Community\VC\Tools\MSVC\14.29.30133\atlmfc\include\afx.inl
; File D:\git\src\IBK\IBK_DRFN\ProjSrc\SrcChartEx\ChartAddIn\ChartEnvSetupDlgAddIn\ChartEnvSetupDlgAddIn\DropBtn.cpp
; File C:\Program Files (x86)\Microsoft Visual Studio\2019\Community\VC\Tools\MSVC\14.29.30133\atlmfc\include\afxwin2.inl
; File D:\git\src\IBK\IBK_DRFN\ProjSrc\SrcChartEx\ChartAddIn\ChartEnvSetupDlgAddIn\ChartEnvSetupDlgAddIn\DropBtn.cpp
; File C:\Program Files (x86)\Microsoft Visual Studio\2019\Community\VC\Tools\MSVC\14.29.30133\atlmfc\include\atltypes.h
; File D:\git\src\IBK\IBK_DRFN\ProjSrc\SrcChartEx\ChartAddIn\ChartEnvSetupDlgAddIn\ChartEnvSetupDlgAddIn\DropBtn.cpp
; File C:\Program Files (x86)\Microsoft Visual Studio\2019\Community\VC\Tools\MSVC\14.29.30133\atlmfc\include\atltypes.h
; File D:\git\src\IBK\IBK_DRFN\ProjSrc\SrcChartEx\ChartAddIn\ChartEnvSetupDlgAddIn\ChartEnvSetupDlgAddIn\DropBtn.cpp
;	COMDAT ?Create@CListWnd@@QAEHPAVCWnd@@I@Z
_TEXT	SEGMENT
$T2 = -40						; size = 4
_csWndClassName$ = -36					; size = 4
$T3 = -32						; size = 16
__$ArrayPad$ = -16					; size = 4
__$EHRec$ = -12						; size = 12
_pParentWnd$ = 8					; size = 4
_uID$ = 12						; size = 4
?Create@CListWnd@@QAEHPAVCWnd@@I@Z PROC			; CListWnd::Create, COMDAT
; _this$ = ecx

; 383  : {

  00000	55		 push	 ebp
  00001	8b ec		 mov	 ebp, esp
  00003	6a ff		 push	 -1
  00005	68 00 00 00 00	 push	 __ehhandler$?Create@CListWnd@@QAEHPAVCWnd@@I@Z
  0000a	64 a1 00 00 00
	00		 mov	 eax, DWORD PTR fs:0
  00010	50		 push	 eax
  00011	83 ec 1c	 sub	 esp, 28			; 0000001cH
  00014	a1 00 00 00 00	 mov	 eax, DWORD PTR ___security_cookie
  00019	33 c5		 xor	 eax, ebp
  0001b	89 45 f0	 mov	 DWORD PTR __$ArrayPad$[ebp], eax
  0001e	53		 push	 ebx
  0001f	56		 push	 esi
  00020	57		 push	 edi
  00021	50		 push	 eax
  00022	8d 45 f4	 lea	 eax, DWORD PTR __$EHRec$[ebp]
  00025	64 a3 00 00 00
	00		 mov	 DWORD PTR fs:0, eax
  0002b	8b f9		 mov	 edi, ecx
  0002d	8b 5d 08	 mov	 ebx, DWORD PTR _pParentWnd$[ebp]

; 384  : 	CString csWndClassName = AfxRegisterWndClass( CS_SAVEBITS , NULL, NULL, NULL );

  00030	6a 00		 push	 0
  00032	6a 00		 push	 0
  00034	6a 00		 push	 0
  00036	68 00 08 00 00	 push	 2048			; 00000800H
  0003b	e8 00 00 00 00	 call	 ?AfxRegisterWndClass@@YGPBDIPAUHICON__@@PAUHBRUSH__@@0@Z ; AfxRegisterWndClass
  00040	50		 push	 eax
  00041	8d 4d dc	 lea	 ecx, DWORD PTR _csWndClassName$[ebp]
  00044	ff 15 00 00 00
	00		 call	 DWORD PTR __imp_??0?$CStringT@DV?$StrTraitMFC_DLL@DV?$ChTraitsCRT@D@ATL@@@@@ATL@@QAE@PBD@Z
  0004a	c7 45 fc 00 00
	00 00		 mov	 DWORD PTR __$EHRec$[ebp+8], 0
; File C:\Program Files (x86)\Microsoft Visual Studio\2019\Community\VC\Tools\MSVC\14.29.30133\atlmfc\include\afxwin2.inl

; 25   : 	{ return this == NULL ? NULL : m_hWnd; }

  00051	85 db		 test	 ebx, ebx
  00053	75 04		 jne	 SHORT $LN13@Create
  00055	33 c9		 xor	 ecx, ecx
  00057	eb 03		 jmp	 SHORT $LN14@Create
$LN13@Create:
  00059	8b 4b 20	 mov	 ecx, DWORD PTR [ebx+32]
$LN14@Create:
; File D:\git\src\IBK\IBK_DRFN\ProjSrc\SrcChartEx\ChartAddIn\ChartEnvSetupDlgAddIn\ChartEnvSetupDlgAddIn\DropBtn.cpp

; 387  : 	if(!CreateEx(WS_EX_TOPMOST, csWndClassName, NULL, WS_BORDER|WS_POPUP, 0, 0, 200, 200, pParentWnd->GetSafeHwnd(), NULL, NULL))

  0005c	8b 07		 mov	 eax, DWORD PTR [edi]
  0005e	6a 00		 push	 0
  00060	6a 00		 push	 0
  00062	51		 push	 ecx
  00063	68 c8 00 00 00	 push	 200			; 000000c8H
  00068	68 c8 00 00 00	 push	 200			; 000000c8H
  0006d	6a 00		 push	 0
  0006f	6a 00		 push	 0
  00071	68 00 00 80 80	 push	 -2139095040		; 80800000H
  00076	6a 00		 push	 0
  00078	ff 75 dc	 push	 DWORD PTR _csWndClassName$[ebp]
  0007b	8b cf		 mov	 ecx, edi
  0007d	6a 08		 push	 8
  0007f	ff 50 64	 call	 DWORD PTR [eax+100]
  00082	85 c0		 test	 eax, eax
  00084	0f 84 f5 00 00
	00		 je	 $LN9@Create
; File C:\Program Files (x86)\Microsoft Visual Studio\2019\Community\VC\Tools\MSVC\14.29.30133\atlmfc\include\afx.inl

; 116  : 	{ return ::operator new(nSize); }

  0008a	68 d0 00 00 00	 push	 208			; 000000d0H
  0008f	e8 00 00 00 00	 call	 ??2@YAPAXI@Z		; operator new
; File D:\git\src\IBK\IBK_DRFN\ProjSrc\SrcChartEx\ChartAddIn\ChartEnvSetupDlgAddIn\ChartEnvSetupDlgAddIn\DropBtn.cpp

; 391  : 	m_pDropList = new CDropList();

  00094	8b f0		 mov	 esi, eax
; File C:\Program Files (x86)\Microsoft Visual Studio\2019\Community\VC\Tools\MSVC\14.29.30133\atlmfc\include\afx.inl

; 116  : 	{ return ::operator new(nSize); }

  00096	83 c4 04	 add	 esp, 4
; File D:\git\src\IBK\IBK_DRFN\ProjSrc\SrcChartEx\ChartAddIn\ChartEnvSetupDlgAddIn\ChartEnvSetupDlgAddIn\DropBtn.cpp

; 391  : 	m_pDropList = new CDropList();

  00099	89 75 d8	 mov	 DWORD PTR $T2[ebp], esi
  0009c	c6 45 fc 01	 mov	 BYTE PTR __$EHRec$[ebp+8], 1
  000a0	85 f6		 test	 esi, esi
  000a2	0f 84 9a 00 00
	00		 je	 $LN5@Create
; File C:\Program Files (x86)\Microsoft Visual Studio\2019\Community\VC\Tools\MSVC\14.29.30133\atlmfc\include\afxwin2.inl

; 662  : 	{ }

  000a8	8b ce		 mov	 ecx, esi
  000aa	e8 00 00 00 00	 call	 ??0CWnd@@QAE@XZ		; CWnd::CWnd
; File D:\git\src\IBK\IBK_DRFN\ProjSrc\SrcChartEx\ChartAddIn\ChartEnvSetupDlgAddIn\ChartEnvSetupDlgAddIn\DropBtn.cpp

; 16   : {

  000af	6a 0a		 push	 10			; 0000000aH
  000b1	8d 8e 88 00 00
	00		 lea	 ecx, DWORD PTR [esi+136]
  000b7	c6 45 fc 02	 mov	 BYTE PTR __$EHRec$[ebp+8], 2
  000bb	c7 06 00 00 00
	00		 mov	 DWORD PTR [esi], OFFSET ??_7CDropList@@6B@
  000c1	e8 00 00 00 00	 call	 ??0CPtrList@@QAE@H@Z	; CPtrList::CPtrList
  000c6	8d 8e bc 00 00
	00		 lea	 ecx, DWORD PTR [esi+188]
; File C:\Program Files (x86)\Microsoft Visual Studio\2019\Community\VC\Tools\MSVC\14.29.30133\atlmfc\include\atltypes.h

; 528  : 	left = 0;

  000cc	c7 86 a4 00 00
	00 00 00 00 00	 mov	 DWORD PTR [esi+164], 0

; 529  : 	top = 0;

  000d6	c7 86 a8 00 00
	00 00 00 00 00	 mov	 DWORD PTR [esi+168], 0

; 530  : 	right = 0;

  000e0	c7 86 ac 00 00
	00 00 00 00 00	 mov	 DWORD PTR [esi+172], 0

; 531  : 	bottom = 0;

  000ea	c7 86 b0 00 00
	00 00 00 00 00	 mov	 DWORD PTR [esi+176], 0
; File D:\git\src\IBK\IBK_DRFN\ProjSrc\SrcChartEx\ChartAddIn\ChartEnvSetupDlgAddIn\ChartEnvSetupDlgAddIn\DropBtn.cpp

; 16   : {

  000f4	ff 15 00 00 00
	00		 call	 DWORD PTR __imp_??0?$CStringT@DV?$StrTraitMFC_DLL@DV?$ChTraitsCRT@D@ATL@@@@@ATL@@QAE@XZ

; 17   : 	m_nPrevSelection			= 0;

  000fa	c7 86 84 00 00
	00 00 00 00 00	 mov	 DWORD PTR [esi+132], 0

; 18   : 	m_nGroupCount				= 0;

  00104	c7 86 80 00 00
	00 00 00 00 00	 mov	 DWORD PTR [esi+128], 0

; 19   : 	m_pHeaderFont				= NULL;

  0010e	c7 86 b8 00 00
	00 00 00 00 00	 mov	 DWORD PTR [esi+184], 0

; 20   : 	m_pTextFont					= NULL;

  00118	c7 86 b4 00 00
	00 00 00 00 00	 mov	 DWORD PTR [esi+180], 0

; 21   : 	m_pBkBrush					= NULL;

  00122	c7 86 c4 00 00
	00 00 00 00 00	 mov	 DWORD PTR [esi+196], 0

; 22   : 	m_pBkHighlightBrush			= NULL;

  0012c	c7 86 c8 00 00
	00 00 00 00 00	 mov	 DWORD PTR [esi+200], 0

; 23   : 	m_pBkPen					= NULL;

  00136	c7 86 c0 00 00
	00 00 00 00 00	 mov	 DWORD PTR [esi+192], 0

; 391  : 	m_pDropList = new CDropList();

  00140	eb 02		 jmp	 SHORT $LN6@Create
$LN5@Create:
  00142	33 f6		 xor	 esi, esi
$LN6@Create:

; 392  : 	if(!m_pDropList->Create(WS_CHILD|WS_VSCROLL|WS_VISIBLE|LBS_NOTIFY|LBS_HASSTRINGS|LBS_OWNERDRAWFIXED|LBS_NOINTEGRALHEIGHT, CRect(0,0,0,0), this, ID_CUSTOMLIST))

  00144	68 65 04 00 00	 push	 1125			; 00000465H
  00149	0f 57 c0	 xorps	 xmm0, xmm0
  0014c	89 b7 84 00 00
	00		 mov	 DWORD PTR [edi+132], esi
  00152	57		 push	 edi
; File C:\Program Files (x86)\Microsoft Visual Studio\2019\Community\VC\Tools\MSVC\14.29.30133\atlmfc\include\atltypes.h

; 540  : 	left = l;

  00153	0f 11 45 e0	 movups	 XMMWORD PTR $T3[ebp], xmm0
; File D:\git\src\IBK\IBK_DRFN\ProjSrc\SrcChartEx\ChartAddIn\ChartEnvSetupDlgAddIn\ChartEnvSetupDlgAddIn\DropBtn.cpp

; 392  : 	if(!m_pDropList->Create(WS_CHILD|WS_VSCROLL|WS_VISIBLE|LBS_NOTIFY|LBS_HASSTRINGS|LBS_OWNERDRAWFIXED|LBS_NOINTEGRALHEIGHT, CRect(0,0,0,0), this, ID_CUSTOMLIST))

  00157	8b 06		 mov	 eax, DWORD PTR [esi]
  00159	8d 4d e0	 lea	 ecx, DWORD PTR $T3[ebp]
  0015c	51		 push	 ecx
  0015d	68 51 01 20 50	 push	 1344274769		; 50200151H
  00162	8b ce		 mov	 ecx, esi
  00164	c6 45 fc 00	 mov	 BYTE PTR __$EHRec$[ebp+8], 0
  00168	ff 90 6c 01 00
	00		 call	 DWORD PTR [eax+364]
  0016e	85 c0		 test	 eax, eax
  00170	74 0d		 je	 SHORT $LN9@Create

; 393  : 		return FALSE;
; 394  : 	m_pParent = pParentWnd;

  00172	89 9f 80 00 00
	00		 mov	 DWORD PTR [edi+128], ebx

; 395  : 	return TRUE;

  00178	be 01 00 00 00	 mov	 esi, 1
  0017d	eb 02		 jmp	 SHORT $LN10@Create
$LN9@Create:
  0017f	33 f6		 xor	 esi, esi
$LN10@Create:
  00181	8d 4d dc	 lea	 ecx, DWORD PTR _csWndClassName$[ebp]
  00184	ff 15 00 00 00
	00		 call	 DWORD PTR __imp_??1?$CStringT@DV?$StrTraitMFC_DLL@DV?$ChTraitsCRT@D@ATL@@@@@ATL@@QAE@XZ
  0018a	8b c6		 mov	 eax, esi

; 396  : }

  0018c	8b 4d f4	 mov	 ecx, DWORD PTR __$EHRec$[ebp]
  0018f	64 89 0d 00 00
	00 00		 mov	 DWORD PTR fs:0, ecx
  00196	59		 pop	 ecx
  00197	5f		 pop	 edi
  00198	5e		 pop	 esi
  00199	5b		 pop	 ebx
  0019a	8b 4d f0	 mov	 ecx, DWORD PTR __$ArrayPad$[ebp]
  0019d	33 cd		 xor	 ecx, ebp
  0019f	e8 00 00 00 00	 call	 @__security_check_cookie@4
  001a4	8b e5		 mov	 esp, ebp
  001a6	5d		 pop	 ebp
  001a7	c2 08 00	 ret	 8
_TEXT	ENDS
;	COMDAT text$x
text$x	SEGMENT
__unwindfunclet$?Create@CListWnd@@QAEHPAVCWnd@@I@Z$0:
  00000	8d 4d dc	 lea	 ecx, DWORD PTR _csWndClassName$[ebp]
  00003	ff 25 00 00 00
	00		 jmp	 DWORD PTR __imp_??1?$CStringT@DV?$StrTraitMFC_DLL@DV?$ChTraitsCRT@D@ATL@@@@@ATL@@QAE@XZ
__unwindfunclet$?Create@CListWnd@@QAEHPAVCWnd@@I@Z$1:
  00009	8b 45 d8	 mov	 eax, DWORD PTR $T2[ebp]
  0000c	50		 push	 eax
  0000d	e8 00 00 00 00	 call	 ??3CObject@@SGXPAX@Z	; CObject::operator delete
  00012	c3		 ret	 0
__unwindfunclet$?Create@CListWnd@@QAEHPAVCWnd@@I@Z$2:
  00013	8b 4d d8	 mov	 ecx, DWORD PTR $T2[ebp]
  00016	e9 00 00 00 00	 jmp	 ??1CListBox@@UAE@XZ	; CListBox::~CListBox
  0001b	cc		 int	 3
  0001c	cc		 int	 3
  0001d	cc		 int	 3
  0001e	cc		 int	 3
  0001f	cc		 int	 3
__ehhandler$?Create@CListWnd@@QAEHPAVCWnd@@I@Z:
  00020	90		 npad	 1
  00021	90		 npad	 1
  00022	8b 54 24 08	 mov	 edx, DWORD PTR [esp+8]
  00026	8d 42 0c	 lea	 eax, DWORD PTR [edx+12]
  00029	8b 4a d4	 mov	 ecx, DWORD PTR [edx-44]
  0002c	33 c8		 xor	 ecx, eax
  0002e	e8 00 00 00 00	 call	 @__security_check_cookie@4
  00033	8b 4a fc	 mov	 ecx, DWORD PTR [edx-4]
  00036	33 c8		 xor	 ecx, eax
  00038	e8 00 00 00 00	 call	 @__security_check_cookie@4
  0003d	b8 00 00 00 00	 mov	 eax, OFFSET __ehfuncinfo$?Create@CListWnd@@QAEHPAVCWnd@@I@Z
  00042	e9 00 00 00 00	 jmp	 ___CxxFrameHandler3
text$x	ENDS
?Create@CListWnd@@QAEHPAVCWnd@@I@Z ENDP			; CListWnd::Create
; Function compile flags: /Ogtp
; File D:\git\src\IBK\IBK_DRFN\ProjSrc\SrcChartEx\ChartAddIn\ChartEnvSetupDlgAddIn\ChartEnvSetupDlgAddIn\DropBtn.cpp
;	COMDAT ??0CListWnd@@QAE@XZ
_TEXT	SEGMENT
_this$ = -4						; size = 4
??0CListWnd@@QAE@XZ PROC				; CListWnd::CListWnd, COMDAT
; _this$ = ecx

; 363  : {

  00000	55		 push	 ebp
  00001	8b ec		 mov	 ebp, esp
  00003	51		 push	 ecx
  00004	56		 push	 esi
  00005	8b f1		 mov	 esi, ecx
  00007	89 75 fc	 mov	 DWORD PTR _this$[ebp], esi
  0000a	e8 00 00 00 00	 call	 ??0CWnd@@QAE@XZ		; CWnd::CWnd
  0000f	c7 06 00 00 00
	00		 mov	 DWORD PTR [esi], OFFSET ??_7CListWnd@@6B@

; 364  : 	m_pDropList = NULL;
; 365  : }

  00015	8b c6		 mov	 eax, esi
  00017	c7 86 84 00 00
	00 00 00 00 00	 mov	 DWORD PTR [esi+132], 0
  00021	5e		 pop	 esi
  00022	8b e5		 mov	 esp, ebp
  00024	5d		 pop	 ebp
  00025	c3		 ret	 0
??0CListWnd@@QAE@XZ ENDP				; CListWnd::CListWnd
_TEXT	ENDS
; Function compile flags: /Ogtp
; File D:\git\src\IBK\IBK_DRFN\ProjSrc\SrcChartEx\ChartAddIn\ChartEnvSetupDlgAddIn\ChartEnvSetupDlgAddIn\DropBtn.cpp
; File C:\Program Files (x86)\Microsoft Visual Studio\2019\Community\VC\Tools\MSVC\14.29.30133\atlmfc\include\afx.inl
;	COMDAT ??_GCDropList@@UAEPAXI@Z
_TEXT	SEGMENT
__$EHRec$ = -12						; size = 12
___flags$ = 8						; size = 4
??_GCDropList@@UAEPAXI@Z PROC				; CDropList::`scalar deleting destructor', COMDAT
; _this$ = ecx
  00000	55		 push	 ebp
  00001	8b ec		 mov	 ebp, esp
  00003	6a ff		 push	 -1
  00005	68 00 00 00 00	 push	 __ehhandler$??_GCDropList@@UAEPAXI@Z
  0000a	64 a1 00 00 00
	00		 mov	 eax, DWORD PTR fs:0
  00010	50		 push	 eax
  00011	56		 push	 esi
  00012	a1 00 00 00 00	 mov	 eax, DWORD PTR ___security_cookie
  00017	33 c5		 xor	 eax, ebp
  00019	50		 push	 eax
  0001a	8d 45 f4	 lea	 eax, DWORD PTR __$EHRec$[ebp]
  0001d	64 a3 00 00 00
	00		 mov	 DWORD PTR fs:0, eax
  00023	8b f1		 mov	 esi, ecx
; File D:\git\src\IBK\IBK_DRFN\ProjSrc\SrcChartEx\ChartAddIn\ChartEnvSetupDlgAddIn\ChartEnvSetupDlgAddIn\DropBtn.cpp

; 28   : 	if(m_pHeaderFont) delete m_pHeaderFont;

  00025	8b 8e b8 00 00
	00		 mov	 ecx, DWORD PTR [esi+184]
  0002b	c7 45 fc 00 00
	00 00		 mov	 DWORD PTR __$EHRec$[ebp+8], 0
  00032	c7 06 00 00 00
	00		 mov	 DWORD PTR [esi], OFFSET ??_7CDropList@@6B@
  00038	85 c9		 test	 ecx, ecx
  0003a	74 07		 je	 SHORT $LN13@scalar
  0003c	8b 01		 mov	 eax, DWORD PTR [ecx]
  0003e	6a 01		 push	 1
  00040	ff 50 04	 call	 DWORD PTR [eax+4]
$LN13@scalar:

; 29   : 	if(m_pBkBrush) delete m_pBkBrush;

  00043	8b 8e c4 00 00
	00		 mov	 ecx, DWORD PTR [esi+196]
  00049	85 c9		 test	 ecx, ecx
  0004b	74 07		 je	 SHORT $LN15@scalar
  0004d	8b 01		 mov	 eax, DWORD PTR [ecx]
  0004f	6a 01		 push	 1
  00051	ff 50 04	 call	 DWORD PTR [eax+4]
$LN15@scalar:

; 30   : 	if(m_pBkHighlightBrush) delete m_pBkHighlightBrush;

  00054	8b 8e c8 00 00
	00		 mov	 ecx, DWORD PTR [esi+200]
  0005a	85 c9		 test	 ecx, ecx
  0005c	74 07		 je	 SHORT $LN17@scalar
  0005e	8b 01		 mov	 eax, DWORD PTR [ecx]
  00060	6a 01		 push	 1
  00062	ff 50 04	 call	 DWORD PTR [eax+4]
$LN17@scalar:

; 31   : 	if(m_pBkPen) delete m_pBkPen;

  00065	8b 8e c0 00 00
	00		 mov	 ecx, DWORD PTR [esi+192]
  0006b	85 c9		 test	 ecx, ecx
  0006d	74 07		 je	 SHORT $LN19@scalar
  0006f	8b 01		 mov	 eax, DWORD PTR [ecx]
  00071	6a 01		 push	 1
  00073	ff 50 04	 call	 DWORD PTR [eax+4]
$LN19@scalar:

; 32   : 
; 33   : 	// Clear out the Items
; 34   : 	ClearItems();

  00076	8b ce		 mov	 ecx, esi
  00078	e8 00 00 00 00	 call	 ?ClearItems@CDropList@@AAEXXZ ; CDropList::ClearItems

; 35   : }

  0007d	8d 8e bc 00 00
	00		 lea	 ecx, DWORD PTR [esi+188]
  00083	ff 15 00 00 00
	00		 call	 DWORD PTR __imp_??1?$CStringT@DV?$StrTraitMFC_DLL@DV?$ChTraitsCRT@D@ATL@@@@@ATL@@QAE@XZ
  00089	8d 8e 88 00 00
	00		 lea	 ecx, DWORD PTR [esi+136]
  0008f	e8 00 00 00 00	 call	 ??1CPtrList@@UAE@XZ	; CPtrList::~CPtrList
  00094	8b ce		 mov	 ecx, esi
  00096	e8 00 00 00 00	 call	 ??1CListBox@@UAE@XZ	; CListBox::~CListBox
  0009b	8b 45 08	 mov	 eax, DWORD PTR ___flags$[ebp]
  0009e	a8 01		 test	 al, 1
  000a0	74 2f		 je	 SHORT $LN24@scalar
  000a2	a8 04		 test	 al, 4
  000a4	75 1d		 jne	 SHORT $LN3@scalar
; File C:\Program Files (x86)\Microsoft Visual Studio\2019\Community\VC\Tools\MSVC\14.29.30133\atlmfc\include\afx.inl

; 112  : 	{ ::operator delete(p); }

  000a6	56		 push	 esi
  000a7	e8 00 00 00 00	 call	 ??3@YAXPAX@Z		; operator delete
  000ac	83 c4 04	 add	 esp, 4
  000af	8b c6		 mov	 eax, esi
  000b1	8b 4d f4	 mov	 ecx, DWORD PTR __$EHRec$[ebp]
  000b4	64 89 0d 00 00
	00 00		 mov	 DWORD PTR fs:0, ecx
  000bb	59		 pop	 ecx
  000bc	5e		 pop	 esi
  000bd	8b e5		 mov	 esp, ebp
  000bf	5d		 pop	 ebp
  000c0	c2 04 00	 ret	 4
$LN3@scalar:
  000c3	68 d0 00 00 00	 push	 208			; 000000d0H
  000c8	56		 push	 esi
  000c9	e8 00 00 00 00	 call	 ?__global_delete@@YAXPAXI@Z ; __global_delete
  000ce	83 c4 08	 add	 esp, 8
$LN24@scalar:
  000d1	8b c6		 mov	 eax, esi
  000d3	8b 4d f4	 mov	 ecx, DWORD PTR __$EHRec$[ebp]
  000d6	64 89 0d 00 00
	00 00		 mov	 DWORD PTR fs:0, ecx
  000dd	59		 pop	 ecx
  000de	5e		 pop	 esi
  000df	8b e5		 mov	 esp, ebp
  000e1	5d		 pop	 ebp
  000e2	c2 04 00	 ret	 4
  000e5	cc		 int	 3
  000e6	cc		 int	 3
  000e7	cc		 int	 3
  000e8	cc		 int	 3
  000e9	cc		 int	 3
_TEXT	ENDS
;	COMDAT text$x
text$x	SEGMENT
__ehhandler$??_GCDropList@@UAEPAXI@Z:
  00000	90		 npad	 1
  00001	90		 npad	 1
  00002	8b 54 24 08	 mov	 edx, DWORD PTR [esp+8]
  00006	8d 42 0c	 lea	 eax, DWORD PTR [edx+12]
  00009	8b 4a f8	 mov	 ecx, DWORD PTR [edx-8]
  0000c	33 c8		 xor	 ecx, eax
  0000e	e8 00 00 00 00	 call	 @__security_check_cookie@4
  00013	b8 00 00 00 00	 mov	 eax, OFFSET __ehfuncinfo$??_GCDropList@@UAEPAXI@Z
  00018	e9 00 00 00 00	 jmp	 ___CxxFrameHandler3
text$x	ENDS
??_GCDropList@@UAEPAXI@Z ENDP				; CDropList::`scalar deleting destructor'
; Function compile flags: /Ogtp
; File D:\git\src\IBK\IBK_DRFN\ProjSrc\SrcChartEx\ChartAddIn\ChartEnvSetupDlgAddIn\ChartEnvSetupDlgAddIn\DropBtn.cpp
;	COMDAT ?GetMessageMap@CDropList@@MBEPBUAFX_MSGMAP@@XZ
_TEXT	SEGMENT
?GetMessageMap@CDropList@@MBEPBUAFX_MSGMAP@@XZ PROC	; CDropList::GetMessageMap, COMDAT
; _this$ = ecx

; 50   : BEGIN_MESSAGE_MAP(CDropList, CListBox)

  00000	b8 00 00 00 00	 mov	 eax, OFFSET ?messageMap@?1??GetThisMessageMap@CDropList@@KGPBUAFX_MSGMAP@@XZ@4U3@B
  00005	c3		 ret	 0
?GetMessageMap@CDropList@@MBEPBUAFX_MSGMAP@@XZ ENDP	; CDropList::GetMessageMap
_TEXT	ENDS
; Function compile flags: /Ogtp
; File D:\git\src\IBK\IBK_DRFN\ProjSrc\SrcChartEx\ChartAddIn\ChartEnvSetupDlgAddIn\ChartEnvSetupDlgAddIn\DropBtn.cpp
;	COMDAT ?GetThisMessageMap@CDropList@@KGPBUAFX_MSGMAP@@XZ
_TEXT	SEGMENT
?GetThisMessageMap@CDropList@@KGPBUAFX_MSGMAP@@XZ PROC	; CDropList::GetThisMessageMap, COMDAT

; 51   : 	//{{AFX_MSG_MAP(CDropList)
; 52   : 	ON_WM_CREATE()
; 53   : 	ON_WM_CTLCOLOR_REFLECT()
; 54   : 	ON_WM_KILLFOCUS()
; 55   : 	ON_WM_SIZE()
; 56   : 	//}}AFX_MSG_MAP
; 57   : END_MESSAGE_MAP()

  00000	b8 00 00 00 00	 mov	 eax, OFFSET ?messageMap@?1??GetThisMessageMap@CDropList@@KGPBUAFX_MSGMAP@@XZ@4U3@B
  00005	c3		 ret	 0
?GetThisMessageMap@CDropList@@KGPBUAFX_MSGMAP@@XZ ENDP	; CDropList::GetThisMessageMap
_TEXT	ENDS
; Function compile flags: /Ogtp
; File D:\git\src\IBK\IBK_DRFN\ProjSrc\SrcChartEx\ChartAddIn\ChartEnvSetupDlgAddIn\ChartEnvSetupDlgAddIn\DropBtn.cpp
; File C:\Program Files (x86)\Microsoft Visual Studio\2019\Community\VC\Tools\MSVC\14.29.30133\atlmfc\include\afxwin2.inl
; File D:\git\src\IBK\IBK_DRFN\ProjSrc\SrcChartEx\ChartAddIn\ChartEnvSetupDlgAddIn\ChartEnvSetupDlgAddIn\DropBtn.cpp
; File C:\Program Files (x86)\Microsoft Visual Studio\2019\Community\VC\Tools\MSVC\14.29.30133\atlmfc\include\afxwin2.inl
; File D:\git\src\IBK\IBK_DRFN\ProjSrc\SrcChartEx\ChartAddIn\ChartEnvSetupDlgAddIn\ChartEnvSetupDlgAddIn\DropBtn.cpp
;	COMDAT ?OnSize@CDropList@@IAEXIHH@Z
_TEXT	SEGMENT
_nType$ = 8						; size = 4
_cx$ = 12						; size = 4
_cy$ = 16						; size = 4
?OnSize@CDropList@@IAEXIHH@Z PROC			; CDropList::OnSize, COMDAT
; _this$ = ecx

; 75   : {

  00000	56		 push	 esi
  00001	8b f1		 mov	 esi, ecx
; File C:\Program Files (x86)\Microsoft Visual Studio\2019\Community\VC\Tools\MSVC\14.29.30133\atlmfc\include\afxwin2.inl

; 330  : 	{ Default(); }

  00003	e8 00 00 00 00	 call	 ?Default@CWnd@@IAEJXZ	; CWnd::Default
; File D:\git\src\IBK\IBK_DRFN\ProjSrc\SrcChartEx\ChartAddIn\ChartEnvSetupDlgAddIn\ChartEnvSetupDlgAddIn\DropBtn.cpp

; 77   : 	GetClientRect(m_WindowRect);		

  00008	8d 86 a4 00 00
	00		 lea	 eax, DWORD PTR [esi+164]
; File C:\Program Files (x86)\Microsoft Visual Studio\2019\Community\VC\Tools\MSVC\14.29.30133\atlmfc\include\afxwin2.inl

; 86   : 	{ ASSERT(::IsWindow(m_hWnd)); ::GetClientRect(m_hWnd, lpRect); }

  0000e	50		 push	 eax
  0000f	ff 76 20	 push	 DWORD PTR [esi+32]
  00012	ff 15 00 00 00
	00		 call	 DWORD PTR __imp__GetClientRect@8
  00018	5e		 pop	 esi
; File D:\git\src\IBK\IBK_DRFN\ProjSrc\SrcChartEx\ChartAddIn\ChartEnvSetupDlgAddIn\ChartEnvSetupDlgAddIn\DropBtn.cpp

; 78   : }

  00019	c2 0c 00	 ret	 12			; 0000000cH
?OnSize@CDropList@@IAEXIHH@Z ENDP			; CDropList::OnSize
_TEXT	ENDS
; Function compile flags: /Ogtp
; File D:\git\src\IBK\IBK_DRFN\ProjSrc\SrcChartEx\ChartAddIn\ChartEnvSetupDlgAddIn\ChartEnvSetupDlgAddIn\DropBtn.cpp
; File C:\Program Files (x86)\Microsoft Visual Studio\2019\Community\VC\Tools\MSVC\14.29.30133\atlmfc\include\afxwin2.inl
; File D:\git\src\IBK\IBK_DRFN\ProjSrc\SrcChartEx\ChartAddIn\ChartEnvSetupDlgAddIn\ChartEnvSetupDlgAddIn\DropBtn.cpp
; File C:\Program Files (x86)\Microsoft Visual Studio\2019\Community\VC\Tools\MSVC\14.29.30133\atlmfc\include\afxwin2.inl
; File D:\git\src\IBK\IBK_DRFN\ProjSrc\SrcChartEx\ChartAddIn\ChartEnvSetupDlgAddIn\ChartEnvSetupDlgAddIn\DropBtn.cpp
;	COMDAT ?OnKillFocus@CDropList@@IAEXPAVCWnd@@@Z
_TEXT	SEGMENT
_pNewWnd$ = 8						; size = 4
?OnKillFocus@CDropList@@IAEXPAVCWnd@@@Z PROC		; CDropList::OnKillFocus, COMDAT
; _this$ = ecx

; 80   : {

  00000	56		 push	 esi
  00001	8b f1		 mov	 esi, ecx
; File C:\Program Files (x86)\Microsoft Visual Studio\2019\Community\VC\Tools\MSVC\14.29.30133\atlmfc\include\afxwin2.inl

; 308  : 	{ Default(); }

  00003	e8 00 00 00 00	 call	 ?Default@CWnd@@IAEJXZ	; CWnd::Default
; File D:\git\src\IBK\IBK_DRFN\ProjSrc\SrcChartEx\ChartAddIn\ChartEnvSetupDlgAddIn\ChartEnvSetupDlgAddIn\DropBtn.cpp

; 82   : 	GetParent()->ShowWindow(SW_HIDE);

  00008	6a 00		 push	 0
; File C:\Program Files (x86)\Microsoft Visual Studio\2019\Community\VC\Tools\MSVC\14.29.30133\atlmfc\include\afxwin2.inl

; 213  : 	{ ASSERT(::IsWindow(m_hWnd)); return CWnd::FromHandle(::GetParent(m_hWnd)); }

  0000a	ff 76 20	 push	 DWORD PTR [esi+32]
  0000d	ff 15 00 00 00
	00		 call	 DWORD PTR __imp__GetParent@4
  00013	50		 push	 eax
  00014	e8 00 00 00 00	 call	 ?FromHandle@CWnd@@SGPAV1@PAUHWND__@@@Z ; CWnd::FromHandle
; File D:\git\src\IBK\IBK_DRFN\ProjSrc\SrcChartEx\ChartAddIn\ChartEnvSetupDlgAddIn\ChartEnvSetupDlgAddIn\DropBtn.cpp

; 82   : 	GetParent()->ShowWindow(SW_HIDE);

  00019	8b c8		 mov	 ecx, eax
  0001b	e8 00 00 00 00	 call	 ?ShowWindow@CWnd@@QAEHH@Z ; CWnd::ShowWindow
  00020	5e		 pop	 esi

; 83   : }

  00021	c2 04 00	 ret	 4
?OnKillFocus@CDropList@@IAEXPAVCWnd@@@Z ENDP		; CDropList::OnKillFocus
_TEXT	ENDS
; Function compile flags: /Ogtp
; File D:\git\src\IBK\IBK_DRFN\ProjSrc\SrcChartEx\ChartAddIn\ChartEnvSetupDlgAddIn\ChartEnvSetupDlgAddIn\DropBtn.cpp
; File C:\Program Files (x86)\Microsoft Visual Studio\2019\Community\VC\Tools\MSVC\14.29.30133\atlmfc\include\afxwin1.inl
; File D:\git\src\IBK\IBK_DRFN\ProjSrc\SrcChartEx\ChartAddIn\ChartEnvSetupDlgAddIn\ChartEnvSetupDlgAddIn\DropBtn.cpp
;	COMDAT ?CtlColor@CDropList@@IAEPAUHBRUSH__@@PAVCDC@@I@Z
_TEXT	SEGMENT
_pDC$ = 8						; size = 4
_nCtlColor$ = 12					; size = 4
?CtlColor@CDropList@@IAEPAUHBRUSH__@@PAVCDC@@I@Z PROC	; CDropList::CtlColor, COMDAT
; _this$ = ecx

; 151  : 	return (HBRUSH)(m_pBkBrush->GetSafeHandle() );

  00000	8b 81 c4 00 00
	00		 mov	 eax, DWORD PTR [ecx+196]
; File C:\Program Files (x86)\Microsoft Visual Studio\2019\Community\VC\Tools\MSVC\14.29.30133\atlmfc\include\afxwin1.inl

; 68   : 	{ return this == NULL ? NULL : m_hObject; }

  00006	85 c0		 test	 eax, eax
  00008	75 03		 jne	 SHORT $LN5@CtlColor
; File D:\git\src\IBK\IBK_DRFN\ProjSrc\SrcChartEx\ChartAddIn\ChartEnvSetupDlgAddIn\ChartEnvSetupDlgAddIn\DropBtn.cpp

; 152  : }

  0000a	c2 08 00	 ret	 8
$LN5@CtlColor:

; 151  : 	return (HBRUSH)(m_pBkBrush->GetSafeHandle() );

  0000d	8b 40 04	 mov	 eax, DWORD PTR [eax+4]

; 152  : }

  00010	c2 08 00	 ret	 8
?CtlColor@CDropList@@IAEPAUHBRUSH__@@PAVCDC@@I@Z ENDP	; CDropList::CtlColor
_TEXT	ENDS
; Function compile flags: /Ogtp
; File D:\git\src\IBK\IBK_DRFN\ProjSrc\SrcChartEx\ChartAddIn\ChartEnvSetupDlgAddIn\ChartEnvSetupDlgAddIn\DropBtn.cpp
; File C:\Program Files (x86)\Microsoft Visual Studio\2019\Community\VC\Tools\MSVC\14.29.30133\atlmfc\include\afxwin2.inl
; File D:\git\src\IBK\IBK_DRFN\ProjSrc\SrcChartEx\ChartAddIn\ChartEnvSetupDlgAddIn\ChartEnvSetupDlgAddIn\DropBtn.cpp
; File C:\Program Files (x86)\Microsoft Visual Studio\2019\Community\VC\Tools\MSVC\14.29.30133\atlmfc\include\afx.inl
; File D:\git\src\IBK\IBK_DRFN\ProjSrc\SrcChartEx\ChartAddIn\ChartEnvSetupDlgAddIn\ChartEnvSetupDlgAddIn\DropBtn.cpp
; File C:\Program Files (x86)\Microsoft Visual Studio\2019\Community\VC\Tools\MSVC\14.29.30133\atlmfc\include\afx.inl
; File D:\git\src\IBK\IBK_DRFN\ProjSrc\SrcChartEx\ChartAddIn\ChartEnvSetupDlgAddIn\ChartEnvSetupDlgAddIn\DropBtn.cpp
; File C:\Program Files (x86)\Microsoft Visual Studio\2019\Community\VC\Tools\MSVC\14.29.30133\atlmfc\include\afx.inl
; File D:\git\src\IBK\IBK_DRFN\ProjSrc\SrcChartEx\ChartAddIn\ChartEnvSetupDlgAddIn\ChartEnvSetupDlgAddIn\DropBtn.cpp
; File C:\Program Files (x86)\Microsoft Visual Studio\2019\Community\VC\Tools\MSVC\14.29.30133\atlmfc\include\afx.inl
; File D:\git\src\IBK\IBK_DRFN\ProjSrc\SrcChartEx\ChartAddIn\ChartEnvSetupDlgAddIn\ChartEnvSetupDlgAddIn\DropBtn.cpp
; File C:\Program Files (x86)\Microsoft Visual Studio\2019\Community\VC\Tools\MSVC\14.29.30133\atlmfc\include\afx.inl
; File D:\git\src\IBK\IBK_DRFN\ProjSrc\SrcChartEx\ChartAddIn\ChartEnvSetupDlgAddIn\ChartEnvSetupDlgAddIn\DropBtn.cpp
; File C:\Program Files (x86)\Microsoft Visual Studio\2019\Community\VC\Tools\MSVC\14.29.30133\atlmfc\include\afxwin2.inl
; File D:\git\src\IBK\IBK_DRFN\ProjSrc\SrcChartEx\ChartAddIn\ChartEnvSetupDlgAddIn\ChartEnvSetupDlgAddIn\DropBtn.cpp
; File C:\Program Files (x86)\Microsoft Visual Studio\2019\Community\VC\Tools\MSVC\14.29.30133\atlmfc\include\afxwin2.inl
; File D:\git\src\IBK\IBK_DRFN\ProjSrc\SrcChartEx\ChartAddIn\ChartEnvSetupDlgAddIn\ChartEnvSetupDlgAddIn\DropBtn.cpp
;	COMDAT ?OnCreate@CDropList@@IAEHPAUtagCREATESTRUCTA@@@Z
_TEXT	SEGMENT
$T2 = -16						; size = 4
$T3 = -16						; size = 4
$T4 = -16						; size = 4
__$EHRec$ = -12						; size = 12
_lpCreateStruct$ = 8					; size = 4
?OnCreate@CDropList@@IAEHPAUtagCREATESTRUCTA@@@Z PROC	; CDropList::OnCreate, COMDAT
; _this$ = ecx

; 62   : {

  00000	55		 push	 ebp
  00001	8b ec		 mov	 ebp, esp
  00003	6a ff		 push	 -1
  00005	68 00 00 00 00	 push	 __ehhandler$?OnCreate@CDropList@@IAEHPAUtagCREATESTRUCTA@@@Z
  0000a	64 a1 00 00 00
	00		 mov	 eax, DWORD PTR fs:0
  00010	50		 push	 eax
  00011	51		 push	 ecx
  00012	56		 push	 esi
  00013	a1 00 00 00 00	 mov	 eax, DWORD PTR ___security_cookie
  00018	33 c5		 xor	 eax, ebp
  0001a	50		 push	 eax
  0001b	8d 45 f4	 lea	 eax, DWORD PTR __$EHRec$[ebp]
  0001e	64 a3 00 00 00
	00		 mov	 DWORD PTR fs:0, eax
  00024	8b f1		 mov	 esi, ecx
; File C:\Program Files (x86)\Microsoft Visual Studio\2019\Community\VC\Tools\MSVC\14.29.30133\atlmfc\include\afxwin2.inl

; 296  : 	{ return (int)Default(); }

  00026	e8 00 00 00 00	 call	 ?Default@CWnd@@IAEJXZ	; CWnd::Default
; File D:\git\src\IBK\IBK_DRFN\ProjSrc\SrcChartEx\ChartAddIn\ChartEnvSetupDlgAddIn\ChartEnvSetupDlgAddIn\DropBtn.cpp

; 63   : 	if (CListBox::OnCreate(lpCreateStruct) == -1)

  0002b	83 f8 ff	 cmp	 eax, -1
  0002e	75 14		 jne	 SHORT $LN2@OnCreate

; 64   : 		return -1;

  00030	0b c0		 or	 eax, eax

; 73   : }

  00032	8b 4d f4	 mov	 ecx, DWORD PTR __$EHRec$[ebp]
  00035	64 89 0d 00 00
