; Listing generated by Microsoft (R) Optimizing Compiler Version 19.29.30145.0 

	TITLE	D:\git\src\IBK\IBK_DRFN\#DRfn-CS\_Obj\ChartEnvSetupDlgAddIn\FindType.obj
	.686P
	.XMM
	include listing.inc
	.model	flat

INCLUDELIB MSVCRT
INCLUDELIB OLDNAMES

PUBLIC	?__empty_global_delete@@YAXPAX@Z		; __empty_global_delete
PUBLIC	?__empty_global_delete@@YAXPAXI@Z		; __empty_global_delete
PUBLIC	?DoThisIndicatorUseOnePricePacket@CFindType@@SA_NPBD@Z ; CFindType::DoThisIndicatorUseOnePricePacket
PUBLIC	?FindLimitValueofHorizontalLine@CFindType@@SA?AW4LIMITHORIZONTALLINE@CBaseData@@PBD@Z ; CFindType::FindLimitValueofHorizontalLine
PUBLIC	?FindDrawPositionType@CFindType@@SA?AW4DRAWPOSITIONTYPE@CBaseData@@ABV?$CStringT@DV?$StrTraitMFC_DLL@DV?$ChTraitsCRT@D@ATL@@@@@ATL@@@Z ; CFindType::FindDrawPositionType
PUBLIC	?FindColorItemText@CFindType@@SA?AW4COLORLISTITEMTYPE@CBaseData@@PBD@Z ; CFindType::FindColorItemText
PUBLIC	?FindTabItemText@CFindType@@SA?AW4TABITEMTYPE@CBaseData@@PBD@Z ; CFindType::FindTabItemText
PUBLIC	?FindDlgType@CFindType@@SA?AW4DLGTYPE@CBaseData@@PBD@Z ; CFindType::FindDlgType
PUBLIC	?FindFillTypeWhenOneSub_NoCondi@CFindType@@SA?AW4FILLTYPE@CBaseData@@ABV?$CStringT@DV?$StrTraitMFC_DLL@DV?$ChTraitsCRT@D@ATL@@@@@ATL@@@Z ; CFindType::FindFillTypeWhenOneSub_NoCondi
PUBLIC	?FindFillTypeWhenOneSub_ThreeCondi@CFindType@@SA?AW4FILLTYPE@CBaseData@@ABV?$CStringT@DV?$StrTraitMFC_DLL@DV?$ChTraitsCRT@D@ATL@@@@@ATL@@@Z ; CFindType::FindFillTypeWhenOneSub_ThreeCondi
PUBLIC	?FindFillTypeWhenOneSub_TwoCondi@CFindType@@SA?AW4FILLTYPE@CBaseData@@ABV?$CStringT@DV?$StrTraitMFC_DLL@DV?$ChTraitsCRT@D@ATL@@@@@ATL@@@Z ; CFindType::FindFillTypeWhenOneSub_TwoCondi
PUBLIC	?FindFillTypeWhenOneSub_OneCondi@CFindType@@SA?AW4FILLTYPE@CBaseData@@ABV?$CStringT@DV?$StrTraitMFC_DLL@DV?$ChTraitsCRT@D@ATL@@@@@ATL@@@Z ; CFindType::FindFillTypeWhenOneSub_OneCondi
PUBLIC	?FindStochastics@CFindType@@SA?AV?$CStringT@DV?$StrTraitMFC_DLL@DV?$ChTraitsCRT@D@ATL@@@@@ATL@@ABV23@@Z ; CFindType::FindStochastics
EXTRN	__imp_??0?$CStringT@DV?$StrTraitMFC_DLL@DV?$ChTraitsCRT@D@ATL@@@@@ATL@@QAE@ABV01@@Z:PROC
EXTRN	__imp_??0?$CStringT@DV?$StrTraitMFC_DLL@DV?$ChTraitsCRT@D@ATL@@@@@ATL@@QAE@PBD@Z:PROC
EXTRN	__imp_??1?$CStringT@DV?$StrTraitMFC_DLL@DV?$ChTraitsCRT@D@ATL@@@@@ATL@@QAE@XZ:PROC
EXTRN	__imp_??4?$CStringT@DV?$StrTraitMFC_DLL@DV?$ChTraitsCRT@D@ATL@@@@@ATL@@QAEAAV01@ABV01@@Z:PROC
EXTRN	__imp_?CompareNoCase@?$CStringT@DV?$StrTraitMFC_DLL@DV?$ChTraitsCRT@D@ATL@@@@@ATL@@QBEHPBD@Z:PROC
EXTRN	__imp_?Find@?$CStringT@DV?$StrTraitMFC_DLL@DV?$ChTraitsCRT@D@ATL@@@@@ATL@@QBEHPBDH@Z:PROC
EXTRN	@__security_check_cookie@4:PROC
EXTRN	___CxxFrameHandler3:PROC
EXTRN	?g_iMetaTable@@3VIMetaTable@@A:BYTE		; g_iMetaTable
EXTRN	___security_cookie:DWORD
_DATA	SEGMENT
?g_szIndicatorNameList@@3PAW4E_METACODE@IMetaTable@@A DD 0caH ; g_szIndicatorNameList
	DD	0cbH
	DD	0c8H
	DD	0c9H
	DD	0cdH
	DD	012bH
	DD	0ceH
	DD	0113H
	DD	01afH
	DD	0ddH
	DD	0deH
	DD	0cfH
	DD	0d0H
	DD	0f9H
	DD	0326H
	DD	0107H
	DD	01afH
	DD	012aH
	DD	0d3H
	DD	01afH
	DD	01afH
	DD	0d4H
	DD	0fcH
	DD	0fdH
	DD	010bH
	DD	01afH
	DD	0ffH
	DD	010cH
	DD	010dH
	DD	01afH
	DD	01afH
	DD	0d5H
	DD	0d6H
	DD	010eH
	DD	01afH
	DD	0116H
	DD	0322H
	DD	0102H
	DD	0eaH
	DD	0103H
	DD	0eeH
	DD	0f1H
	DD	01afH
	DD	01afH
	DD	0112H
	DD	0320H
	DD	01afH
	DD	0105H
	DD	0ccH
	DD	0122H
	DD	0123H
	DD	0124H
	DD	0323H
	DD	01afH
	DD	012eH
	DD	01afH
	DD	012cH
	DD	0f5H
	DD	0daH
	DD	01afH
	DD	0e2H
	DD	01afH
	DD	01afH
	DD	01afH
	DD	01afH
	DD	01afH
	DD	0ecH
	DD	01afH
	DD	0106H
	DD	0f6H
	DD	01afH
	DD	0e1H
	DD	0dfH
	DD	0e0H
	DD	0115H
	DD	0109H
	DD	0d2H
	DD	01afH
	DD	01afH
	DD	01afH
	DD	01afH
	DD	01afH
	DD	01afH
	DD	01afH
	DD	01afH
	DD	01afH
	DD	01afH
	DD	0e7H
	DD	0ebH
	DD	01afH
	DD	0129H
	DD	0fbH
	DD	0206H
	DD	01afH
	DD	0125H
	DD	0126H
	DD	0127H
	DD	0324H
	DD	01afH
	DD	01afH
	DD	01afH
	DD	01afH
	DD	01afH
	DD	01afH
	DD	01afH
	DD	01afH
	DD	01afH
	DD	01afH
	DD	01afH
	DD	01afH
	DD	0114H
	DD	010fH
	DD	0d7H
	DD	0f8H
	DD	0faH
	DD	01afH
	DD	0e4H
	DD	0e5H
	DD	0edH
	DD	0111H
	DD	0112H
	DD	01afH
	DD	01afH
	DD	0113H
	DD	0d1H
	DD	0d9H
	DD	0dbH
	DD	0dcH
	DD	0d8H
	DD	0100H
	DD	0f4H
	DD	0e8H
	DD	010aH
	DD	0121H
	DD	0117H
	DD	0118H
	DD	0119H
	DD	011aH
	DD	011bH
	DD	011cH
	DD	011dH
	DD	011eH
	DD	011fH
	DD	0120H
	DD	0327H
	DD	01afH
	DD	01afH
	DD	0d5H
	DD	0f7H
	DD	0feH
	DD	0101H
	DD	0108H
	DD	0110H
	DD	0104H
	DD	0e6H
	DD	0e9H
	DD	0e3H
	DD	01afH
	DD	01afH
	DD	01afH
	DD	01afH
	DD	01afH
	DD	01afH
	DD	01afH
	DD	01afH
	DD	01afH
	DD	01afH
	DD	01afH
	DD	01afH
	DD	01afH
	DD	01afH
	DD	0321H
	DD	01afH
	DD	01afH
	DD	01afH
	DD	01afH
	DD	01afH
_DATA	ENDS
;	COMDAT xdata$x
xdata$x	SEGMENT
__unwindtable$?FindFillTypeWhenOneSub_OneCondi@CFindType@@SA?AW4FILLTYPE@CBaseData@@ABV?$CStringT@DV?$StrTraitMFC_DLL@DV?$ChTraitsCRT@D@ATL@@@@@ATL@@@Z DD 0ffffffffH
	DD	FLAT:__unwindfunclet$?FindFillTypeWhenOneSub_OneCondi@CFindType@@SA?AW4FILLTYPE@CBaseData@@ABV?$CStringT@DV?$StrTraitMFC_DLL@DV?$ChTraitsCRT@D@ATL@@@@@ATL@@@Z$0
	DD	00H
	DD	FLAT:__unwindfunclet$?FindFillTypeWhenOneSub_OneCondi@CFindType@@SA?AW4FILLTYPE@CBaseData@@ABV?$CStringT@DV?$StrTraitMFC_DLL@DV?$ChTraitsCRT@D@ATL@@@@@ATL@@@Z$1
__ehfuncinfo$?FindFillTypeWhenOneSub_OneCondi@CFindType@@SA?AW4FILLTYPE@CBaseData@@ABV?$CStringT@DV?$StrTraitMFC_DLL@DV?$ChTraitsCRT@D@ATL@@@@@ATL@@@Z DD 019930522H
	DD	02H
	DD	FLAT:__unwindtable$?FindFillTypeWhenOneSub_OneCondi@CFindType@@SA?AW4FILLTYPE@CBaseData@@ABV?$CStringT@DV?$StrTraitMFC_DLL@DV?$ChTraitsCRT@D@ATL@@@@@ATL@@@Z
	DD	2 DUP(00H)
	DD	2 DUP(00H)
	DD	00H
	DD	01H
xdata$x	ENDS
;	COMDAT xdata$x
xdata$x	SEGMENT
__unwindtable$?FindFillTypeWhenOneSub_TwoCondi@CFindType@@SA?AW4FILLTYPE@CBaseData@@ABV?$CStringT@DV?$StrTraitMFC_DLL@DV?$ChTraitsCRT@D@ATL@@@@@ATL@@@Z DD 0ffffffffH
	DD	FLAT:__unwindfunclet$?FindFillTypeWhenOneSub_TwoCondi@CFindType@@SA?AW4FILLTYPE@CBaseData@@ABV?$CStringT@DV?$StrTraitMFC_DLL@DV?$ChTraitsCRT@D@ATL@@@@@ATL@@@Z$0
	DD	00H
	DD	FLAT:__unwindfunclet$?FindFillTypeWhenOneSub_TwoCondi@CFindType@@SA?AW4FILLTYPE@CBaseData@@ABV?$CStringT@DV?$StrTraitMFC_DLL@DV?$ChTraitsCRT@D@ATL@@@@@ATL@@@Z$1
__ehfuncinfo$?FindFillTypeWhenOneSub_TwoCondi@CFindType@@SA?AW4FILLTYPE@CBaseData@@ABV?$CStringT@DV?$StrTraitMFC_DLL@DV?$ChTraitsCRT@D@ATL@@@@@ATL@@@Z DD 019930522H
	DD	02H
	DD	FLAT:__unwindtable$?FindFillTypeWhenOneSub_TwoCondi@CFindType@@SA?AW4FILLTYPE@CBaseData@@ABV?$CStringT@DV?$StrTraitMFC_DLL@DV?$ChTraitsCRT@D@ATL@@@@@ATL@@@Z
	DD	2 DUP(00H)
	DD	2 DUP(00H)
	DD	00H
	DD	01H
xdata$x	ENDS
;	COMDAT xdata$x
xdata$x	SEGMENT
__unwindtable$?FindFillTypeWhenOneSub_ThreeCondi@CFindType@@SA?AW4FILLTYPE@CBaseData@@ABV?$CStringT@DV?$StrTraitMFC_DLL@DV?$ChTraitsCRT@D@ATL@@@@@ATL@@@Z DD 0ffffffffH
	DD	FLAT:__unwindfunclet$?FindFillTypeWhenOneSub_ThreeCondi@CFindType@@SA?AW4FILLTYPE@CBaseData@@ABV?$CStringT@DV?$StrTraitMFC_DLL@DV?$ChTraitsCRT@D@ATL@@@@@ATL@@@Z$0
	DD	00H
	DD	FLAT:__unwindfunclet$?FindFillTypeWhenOneSub_ThreeCondi@CFindType@@SA?AW4FILLTYPE@CBaseData@@ABV?$CStringT@DV?$StrTraitMFC_DLL@DV?$ChTraitsCRT@D@ATL@@@@@ATL@@@Z$1
__ehfuncinfo$?FindFillTypeWhenOneSub_ThreeCondi@CFindType@@SA?AW4FILLTYPE@CBaseData@@ABV?$CStringT@DV?$StrTraitMFC_DLL@DV?$ChTraitsCRT@D@ATL@@@@@ATL@@@Z DD 019930522H
	DD	02H
	DD	FLAT:__unwindtable$?FindFillTypeWhenOneSub_ThreeCondi@CFindType@@SA?AW4FILLTYPE@CBaseData@@ABV?$CStringT@DV?$StrTraitMFC_DLL@DV?$ChTraitsCRT@D@ATL@@@@@ATL@@@Z
	DD	2 DUP(00H)
	DD	2 DUP(00H)
	DD	00H
	DD	01H
xdata$x	ENDS
;	COMDAT xdata$x
xdata$x	SEGMENT
__unwindtable$?FindFillTypeWhenOneSub_NoCondi@CFindType@@SA?AW4FILLTYPE@CBaseData@@ABV?$CStringT@DV?$StrTraitMFC_DLL@DV?$ChTraitsCRT@D@ATL@@@@@ATL@@@Z DD 0ffffffffH
	DD	FLAT:__unwindfunclet$?FindFillTypeWhenOneSub_NoCondi@CFindType@@SA?AW4FILLTYPE@CBaseData@@ABV?$CStringT@DV?$StrTraitMFC_DLL@DV?$ChTraitsCRT@D@ATL@@@@@ATL@@@Z$0
	DD	00H
	DD	FLAT:__unwindfunclet$?FindFillTypeWhenOneSub_NoCondi@CFindType@@SA?AW4FILLTYPE@CBaseData@@ABV?$CStringT@DV?$StrTraitMFC_DLL@DV?$ChTraitsCRT@D@ATL@@@@@ATL@@@Z$1
__ehfuncinfo$?FindFillTypeWhenOneSub_NoCondi@CFindType@@SA?AW4FILLTYPE@CBaseData@@ABV?$CStringT@DV?$StrTraitMFC_DLL@DV?$ChTraitsCRT@D@ATL@@@@@ATL@@@Z DD 019930522H
	DD	02H
	DD	FLAT:__unwindtable$?FindFillTypeWhenOneSub_NoCondi@CFindType@@SA?AW4FILLTYPE@CBaseData@@ABV?$CStringT@DV?$StrTraitMFC_DLL@DV?$ChTraitsCRT@D@ATL@@@@@ATL@@@Z
	DD	2 DUP(00H)
	DD	2 DUP(00H)
	DD	00H
	DD	01H
xdata$x	ENDS
;	COMDAT xdata$x
xdata$x	SEGMENT
__unwindtable$?FindDlgType@CFindType@@SA?AW4DLGTYPE@CBaseData@@PBD@Z DD 0ffffffffH
	DD	FLAT:__unwindfunclet$?FindDlgType@CFindType@@SA?AW4DLGTYPE@CBaseData@@PBD@Z$0
	DD	00H
	DD	FLAT:__unwindfunclet$?FindDlgType@CFindType@@SA?AW4DLGTYPE@CBaseData@@PBD@Z$1
	DD	0ffffffffH
	DD	FLAT:__unwindfunclet$?FindDlgType@CFindType@@SA?AW4DLGTYPE@CBaseData@@PBD@Z$1
__ehfuncinfo$?FindDlgType@CFindType@@SA?AW4DLGTYPE@CBaseData@@PBD@Z DD 019930522H
	DD	03H
	DD	FLAT:__unwindtable$?FindDlgType@CFindType@@SA?AW4DLGTYPE@CBaseData@@PBD@Z
	DD	2 DUP(00H)
	DD	2 DUP(00H)
	DD	00H
	DD	01H
xdata$x	ENDS
;	COMDAT xdata$x
xdata$x	SEGMENT
__unwindtable$?FindTabItemText@CFindType@@SA?AW4TABITEMTYPE@CBaseData@@PBD@Z DD 0ffffffffH
	DD	FLAT:__unwindfunclet$?FindTabItemText@CFindType@@SA?AW4TABITEMTYPE@CBaseData@@PBD@Z$0
	DD	00H
	DD	FLAT:__unwindfunclet$?FindTabItemText@CFindType@@SA?AW4TABITEMTYPE@CBaseData@@PBD@Z$1
	DD	0ffffffffH
	DD	FLAT:__unwindfunclet$?FindTabItemText@CFindType@@SA?AW4TABITEMTYPE@CBaseData@@PBD@Z$1
__ehfuncinfo$?FindTabItemText@CFindType@@SA?AW4TABITEMTYPE@CBaseData@@PBD@Z DD 019930522H
	DD	03H
	DD	FLAT:__unwindtable$?FindTabItemText@CFindType@@SA?AW4TABITEMTYPE@CBaseData@@PBD@Z
	DD	2 DUP(00H)
	DD	2 DUP(00H)
	DD	00H
	DD	01H
xdata$x	ENDS
;	COMDAT xdata$x
xdata$x	SEGMENT
__unwindtable$?FindColorItemText@CFindType@@SA?AW4COLORLISTITEMTYPE@CBaseData@@PBD@Z DD 0ffffffffH
	DD	FLAT:__unwindfunclet$?FindColorItemText@CFindType@@SA?AW4COLORLISTITEMTYPE@CBaseData@@PBD@Z$0
	DD	00H
	DD	FLAT:__unwindfunclet$?FindColorItemText@CFindType@@SA?AW4COLORLISTITEMTYPE@CBaseData@@PBD@Z$1
	DD	0ffffffffH
	DD	FLAT:__unwindfunclet$?FindColorItemText@CFindType@@SA?AW4COLORLISTITEMTYPE@CBaseData@@PBD@Z$1
__ehfuncinfo$?FindColorItemText@CFindType@@SA?AW4COLORLISTITEMTYPE@CBaseData@@PBD@Z DD 019930522H
	DD	03H
	DD	FLAT:__unwindtable$?FindColorItemText@CFindType@@SA?AW4COLORLISTITEMTYPE@CBaseData@@PBD@Z
	DD	2 DUP(00H)
	DD	2 DUP(00H)
	DD	00H
	DD	01H
xdata$x	ENDS
;	COMDAT xdata$x
xdata$x	SEGMENT
__unwindtable$?FindDrawPositionType@CFindType@@SA?AW4DRAWPOSITIONTYPE@CBaseData@@ABV?$CStringT@DV?$StrTraitMFC_DLL@DV?$ChTraitsCRT@D@ATL@@@@@ATL@@@Z DD 0ffffffffH
	DD	FLAT:__unwindfunclet$?FindDrawPositionType@CFindType@@SA?AW4DRAWPOSITIONTYPE@CBaseData@@ABV?$CStringT@DV?$StrTraitMFC_DLL@DV?$ChTraitsCRT@D@ATL@@@@@ATL@@@Z$0
	DD	00H
	DD	FLAT:__unwindfunclet$?FindDrawPositionType@CFindType@@SA?AW4DRAWPOSITIONTYPE@CBaseData@@ABV?$CStringT@DV?$StrTraitMFC_DLL@DV?$ChTraitsCRT@D@ATL@@@@@ATL@@@Z$1
__ehfuncinfo$?FindDrawPositionType@CFindType@@SA?AW4DRAWPOSITIONTYPE@CBaseData@@ABV?$CStringT@DV?$StrTraitMFC_DLL@DV?$ChTraitsCRT@D@ATL@@@@@ATL@@@Z DD 019930522H
	DD	02H
	DD	FLAT:__unwindtable$?FindDrawPositionType@CFindType@@SA?AW4DRAWPOSITIONTYPE@CBaseData@@ABV?$CStringT@DV?$StrTraitMFC_DLL@DV?$ChTraitsCRT@D@ATL@@@@@ATL@@@Z
	DD	2 DUP(00H)
	DD	2 DUP(00H)
	DD	00H
	DD	01H
xdata$x	ENDS
;	COMDAT xdata$x
xdata$x	SEGMENT
__unwindtable$?FindLimitValueofHorizontalLine@CFindType@@SA?AW4LIMITHORIZONTALLINE@CBaseData@@PBD@Z DD 0ffffffffH
	DD	FLAT:__unwindfunclet$?FindLimitValueofHorizontalLine@CFindType@@SA?AW4LIMITHORIZONTALLINE@CBaseData@@PBD@Z$0
	DD	00H
	DD	FLAT:__unwindfunclet$?FindLimitValueofHorizontalLine@CFindType@@SA?AW4LIMITHORIZONTALLINE@CBaseData@@PBD@Z$1
	DD	0ffffffffH
	DD	FLAT:__unwindfunclet$?FindLimitValueofHorizontalLine@CFindType@@SA?AW4LIMITHORIZONTALLINE@CBaseData@@PBD@Z$1
__ehfuncinfo$?FindLimitValueofHorizontalLine@CFindType@@SA?AW4LIMITHORIZONTALLINE@CBaseData@@PBD@Z DD 019930522H
	DD	03H
	DD	FLAT:__unwindtable$?FindLimitValueofHorizontalLine@CFindType@@SA?AW4LIMITHORIZONTALLINE@CBaseData@@PBD@Z
	DD	2 DUP(00H)
	DD	2 DUP(00H)
	DD	00H
	DD	01H
xdata$x	ENDS
;	COMDAT xdata$x
xdata$x	SEGMENT
__unwindtable$?DoThisIndicatorUseOnePricePacket@CFindType@@SA_NPBD@Z DD 0ffffffffH
	DD	FLAT:__unwindfunclet$?DoThisIndicatorUseOnePricePacket@CFindType@@SA_NPBD@Z$0
	DD	00H
	DD	FLAT:__unwindfunclet$?DoThisIndicatorUseOnePricePacket@CFindType@@SA_NPBD@Z$1
	DD	0ffffffffH
	DD	FLAT:__unwindfunclet$?DoThisIndicatorUseOnePricePacket@CFindType@@SA_NPBD@Z$1
__ehfuncinfo$?DoThisIndicatorUseOnePricePacket@CFindType@@SA_NPBD@Z DD 019930522H
	DD	03H
	DD	FLAT:__unwindtable$?DoThisIndicatorUseOnePricePacket@CFindType@@SA_NPBD@Z
	DD	2 DUP(00H)
	DD	2 DUP(00H)
	DD	00H
	DD	01H
xdata$x	ENDS
; Function compile flags: /Ogtp
; File D:\git\src\IBK\IBK_DRFN\ProjSrc\SrcChartEx\ChartAddIn\ChartEnvSetupDlgAddIn\ChartEnvSetupDlgAddIn\FindType.cpp
;	COMDAT ?FindStochastics@CFindType@@SA?AV?$CStringT@DV?$StrTraitMFC_DLL@DV?$ChTraitsCRT@D@ATL@@@@@ATL@@ABV23@@Z
_TEXT	SEGMENT
___$ReturnUdt$ = 8					; size = 4
_strGraphName$ = 12					; size = 4
?FindStochastics@CFindType@@SA?AV?$CStringT@DV?$StrTraitMFC_DLL@DV?$ChTraitsCRT@D@ATL@@@@@ATL@@ABV23@@Z PROC ; CFindType::FindStochastics, COMDAT

; 637  : {

  00000	55		 push	 ebp
  00001	8b ec		 mov	 ebp, esp

; 638  : 	// "Stochastics Fast"
; 639  : 	if( strGraphName.Find(_MTEXT( C2_STOCHASTIC_FAST )) != -1 ) 

  00003	a1 54 00 00 00	 mov	 eax, DWORD PTR ?g_iMetaTable@@3VIMetaTable@@A+84
  00008	56		 push	 esi
  00009	8b 75 0c	 mov	 esi, DWORD PTR _strGraphName$[ebp]
  0000c	8b ce		 mov	 ecx, esi
  0000e	6a 00		 push	 0
  00010	ff b0 b8 03 00
	00		 push	 DWORD PTR [eax+952]
  00016	ff 15 00 00 00
	00		 call	 DWORD PTR __imp_?Find@?$CStringT@DV?$StrTraitMFC_DLL@DV?$ChTraitsCRT@D@ATL@@@@@ATL@@QBEHPBDH@Z
  0001c	83 f8 ff	 cmp	 eax, -1
  0001f	a1 54 00 00 00	 mov	 eax, DWORD PTR ?g_iMetaTable@@3VIMetaTable@@A+84
  00024	74 15		 je	 SHORT $LN2@FindStocha

; 640  : 		return _MTEXT( C2_STOCHASTIC_FAST );

  00026	ff b0 b8 03 00
	00		 push	 DWORD PTR [eax+952]
  0002c	8b 4d 08	 mov	 ecx, DWORD PTR ___$ReturnUdt$[ebp]
  0002f	ff 15 00 00 00
	00		 call	 DWORD PTR __imp_??0?$CStringT@DV?$StrTraitMFC_DLL@DV?$ChTraitsCRT@D@ATL@@@@@ATL@@QAE@PBD@Z

; 647  : }

  00035	8b 45 08	 mov	 eax, DWORD PTR ___$ReturnUdt$[ebp]
  00038	5e		 pop	 esi
  00039	5d		 pop	 ebp
  0003a	c3		 ret	 0
$LN2@FindStocha:

; 641  : 	
; 642  : 	// "Stochastics Slow"
; 643  : 	else if( strGraphName.Find(_MTEXT( C2_STOCHASTIC_SLOW )) != -1 ) 

  0003b	6a 00		 push	 0
  0003d	ff b0 c4 03 00
	00		 push	 DWORD PTR [eax+964]
  00043	8b ce		 mov	 ecx, esi
  00045	ff 15 00 00 00
	00		 call	 DWORD PTR __imp_?Find@?$CStringT@DV?$StrTraitMFC_DLL@DV?$ChTraitsCRT@D@ATL@@@@@ATL@@QBEHPBDH@Z
  0004b	8b 4d 08	 mov	 ecx, DWORD PTR ___$ReturnUdt$[ebp]
  0004e	83 f8 ff	 cmp	 eax, -1
  00051	74 17		 je	 SHORT $LN4@FindStocha

; 644  : 		return _MTEXT( C2_STOCHASTIC_SLOW );

  00053	a1 54 00 00 00	 mov	 eax, DWORD PTR ?g_iMetaTable@@3VIMetaTable@@A+84
  00058	ff b0 c4 03 00
	00		 push	 DWORD PTR [eax+964]
  0005e	ff 15 00 00 00
	00		 call	 DWORD PTR __imp_??0?$CStringT@DV?$StrTraitMFC_DLL@DV?$ChTraitsCRT@D@ATL@@@@@ATL@@QAE@PBD@Z

; 647  : }

  00064	8b 45 08	 mov	 eax, DWORD PTR ___$ReturnUdt$[ebp]
  00067	5e		 pop	 esi
  00068	5d		 pop	 ebp
  00069	c3		 ret	 0
$LN4@FindStocha:

; 645  : 
; 646  : 	return strGraphName;

  0006a	56		 push	 esi
  0006b	ff 15 00 00 00
	00		 call	 DWORD PTR __imp_??0?$CStringT@DV?$StrTraitMFC_DLL@DV?$ChTraitsCRT@D@ATL@@@@@ATL@@QAE@ABV01@@Z

; 647  : }

  00071	8b 45 08	 mov	 eax, DWORD PTR ___$ReturnUdt$[ebp]
  00074	5e		 pop	 esi
  00075	5d		 pop	 ebp
  00076	c3		 ret	 0
?FindStochastics@CFindType@@SA?AV?$CStringT@DV?$StrTraitMFC_DLL@DV?$ChTraitsCRT@D@ATL@@@@@ATL@@ABV23@@Z ENDP ; CFindType::FindStochastics
_TEXT	ENDS
; Function compile flags: /Ogtp
; File D:\git\src\IBK\IBK_DRFN\ProjSrc\SrcChartEx\ChartAddIn\ChartEnvSetupDlgAddIn\ChartEnvSetupDlgAddIn\FindType.cpp
;	COMDAT ?FindFillTypeWhenOneSub_OneCondi@CFindType@@SA?AW4FILLTYPE@CBaseData@@ABV?$CStringT@DV?$StrTraitMFC_DLL@DV?$ChTraitsCRT@D@ATL@@@@@ATL@@@Z
_TEXT	SEGMENT
$T2 = -20						; size = 4
_GraphName$ = -16					; size = 4
__$EHRec$ = -12						; size = 12
_strGraphName$ = 8					; size = 4
?FindFillTypeWhenOneSub_OneCondi@CFindType@@SA?AW4FILLTYPE@CBaseData@@ABV?$CStringT@DV?$StrTraitMFC_DLL@DV?$ChTraitsCRT@D@ATL@@@@@ATL@@@Z PROC ; CFindType::FindFillTypeWhenOneSub_OneCondi, COMDAT

; 417  : {

  00000	55		 push	 ebp
  00001	8b ec		 mov	 ebp, esp
  00003	6a ff		 push	 -1
  00005	68 00 00 00 00	 push	 __ehhandler$?FindFillTypeWhenOneSub_OneCondi@CFindType@@SA?AW4FILLTYPE@CBaseData@@ABV?$CStringT@DV?$StrTraitMFC_DLL@DV?$ChTraitsCRT@D@ATL@@@@@ATL@@@Z
  0000a	64 a1 00 00 00
	00		 mov	 eax, DWORD PTR fs:0
  00010	50		 push	 eax
  00011	83 ec 08	 sub	 esp, 8
  00014	56		 push	 esi
  00015	57		 push	 edi
  00016	a1 00 00 00 00	 mov	 eax, DWORD PTR ___security_cookie
  0001b	33 c5		 xor	 eax, ebp
  0001d	50		 push	 eax
  0001e	8d 45 f4	 lea	 eax, DWORD PTR __$EHRec$[ebp]
  00021	64 a3 00 00 00
	00		 mov	 DWORD PTR fs:0, eax

; 418  : 	CString GraphName = strGraphName;

  00027	8b 75 08	 mov	 esi, DWORD PTR _strGraphName$[ebp]
  0002a	8d 4d f0	 lea	 ecx, DWORD PTR _GraphName$[ebp]
  0002d	56		 push	 esi
  0002e	ff 15 00 00 00
	00		 call	 DWORD PTR __imp_??0?$CStringT@DV?$StrTraitMFC_DLL@DV?$ChTraitsCRT@D@ATL@@@@@ATL@@QAE@ABV01@@Z

; 419  : 	GraphName = FindStochastics(strGraphName);

  00034	8d 45 ec	 lea	 eax, DWORD PTR $T2[ebp]
  00037	c7 45 fc 00 00
	00 00		 mov	 DWORD PTR __$EHRec$[ebp+8], 0
  0003e	56		 push	 esi
  0003f	50		 push	 eax
  00040	e8 00 00 00 00	 call	 ?FindStochastics@CFindType@@SA?AV?$CStringT@DV?$StrTraitMFC_DLL@DV?$ChTraitsCRT@D@ATL@@@@@ATL@@ABV23@@Z ; CFindType::FindStochastics
  00045	83 c4 08	 add	 esp, 8
  00048	50		 push	 eax
  00049	8d 4d f0	 lea	 ecx, DWORD PTR _GraphName$[ebp]
  0004c	c6 45 fc 01	 mov	 BYTE PTR __$EHRec$[ebp+8], 1
  00050	ff 15 00 00 00
	00		 call	 DWORD PTR __imp_??4?$CStringT@DV?$StrTraitMFC_DLL@DV?$ChTraitsCRT@D@ATL@@@@@ATL@@QAEAAV01@ABV01@@Z
  00056	8d 4d ec	 lea	 ecx, DWORD PTR $T2[ebp]
  00059	c6 45 fc 00	 mov	 BYTE PTR __$EHRec$[ebp+8], 0
  0005d	ff 15 00 00 00
	00		 call	 DWORD PTR __imp_??1?$CStringT@DV?$StrTraitMFC_DLL@DV?$ChTraitsCRT@D@ATL@@@@@ATL@@QAE@XZ
  00063	be f9 ff ff ff	 mov	 esi, -7			; fffffff9H
  00068	bf 00 00 00 00	 mov	 edi, OFFSET ?g_szIndicatorNameList@@3PAW4E_METACODE@IMetaTable@@A
  0006d	0f 1f 00	 npad	 3
$LL4@FindFillTy:

; 421  : // 2008.01.25 by LYH >>
; 422  : 		//if(GraphName.CompareNoCase(g_szIndicatorNameList[i]) == 0) {
; 423  : 		if(GraphName.CompareNoCase( _MTEXTN( g_szIndicatorNameList[i]) ) == 0) {

  00070	8b 0f		 mov	 ecx, DWORD PTR [edi]
  00072	a1 54 00 00 00	 mov	 eax, DWORD PTR ?g_iMetaTable@@3VIMetaTable@@A+84
  00077	ff 34 88	 push	 DWORD PTR [eax+ecx*4]
  0007a	8d 4d f0	 lea	 ecx, DWORD PTR _GraphName$[ebp]
  0007d	ff 15 00 00 00
	00		 call	 DWORD PTR __imp_?CompareNoCase@?$CStringT@DV?$StrTraitMFC_DLL@DV?$ChTraitsCRT@D@ATL@@@@@ATL@@QBEHPBD@Z
  00083	85 c0		 test	 eax, eax
  00085	75 13		 jne	 SHORT $LN2@FindFillTy

; 424  : // 2008.01.25 by LYH <<
; 425  : 			switch(i){

  00087	83 fe 54	 cmp	 esi, 84			; 00000054H
  0008a	77 0e		 ja	 SHORT $LN2@FindFillTy
  0008c	0f b6 86 00 00
	00 00		 movzx	 eax, BYTE PTR $LN35@FindFillTy[esi]
  00093	ff 24 85 00 00
	00 00		 jmp	 DWORD PTR $LN36@FindFillTy[eax*4]
$LN2@FindFillTy:

; 420  : 	for(int i = 0; i < GRAPH_COUNT; i++) {

  0009a	46		 inc	 esi
  0009b	83 c7 04	 add	 edi, 4
  0009e	8d 46 07	 lea	 eax, DWORD PTR [esi+7]
  000a1	3d b1 00 00 00	 cmp	 eax, 177		; 000000b1H
  000a6	7c c8		 jl	 SHORT $LL4@FindFillTy
$LN8@FindFillTy:

; 426  : 				case GRAPH_CCI: //fill
; 427  : 				case GRAPH_PSYCH: // Sub 1, Condition 1, fill
; 428  : 				case GRAPH_NEWPSYCH:
; 429  : 				case GRAPH_ATR:// Sub 1, Condition 1, nofill
; 430  : 				case GRAPH_MOMENTUM:
; 431  : 				case GRAPH_VR:
; 432  : 				case GRAPH_VOLUME_ROC:
; 433  : 				case GRAPH_P_AND_F:
; 434  : 				case GRAPH_INVERSE_LINE: 
; 435  : 				case GRAPH_BOXCHART:
; 436  : 				case GRAPH_ADR:					/// Advanced Decline Ratio
; 437  : 				case GRAPH_VHF:					/// Vertical horizontal Filter
; 438  : 				case GRAPH_ChaikinsVolatility:
; 439  : 				case GRAPH_Sigma:
; 440  : 				case GRAPH_LRS:
; 441  : 				case GRAPH_TRIN:
; 442  : 				case GRAPH_CMF:
; 443  : 				case GRAPH_IMI:
; 444  : 				case GRAPH_EOM:
; 445  : 					return CBaseData::NoFill;
; 446  : 			}
; 447  : 		}
; 448  : 	}
; 449  : 	return CBaseData::NoFill;

  000a8	8d 4d f0	 lea	 ecx, DWORD PTR _GraphName$[ebp]
  000ab	ff 15 00 00 00
	00		 call	 DWORD PTR __imp_??1?$CStringT@DV?$StrTraitMFC_DLL@DV?$ChTraitsCRT@D@ATL@@@@@ATL@@QAE@XZ
  000b1	b8 01 00 00 00	 mov	 eax, 1

; 450  : }

  000b6	8b 4d f4	 mov	 ecx, DWORD PTR __$EHRec$[ebp]
  000b9	64 89 0d 00 00
	00 00		 mov	 DWORD PTR fs:0, ecx
  000c0	59		 pop	 ecx
  000c1	5f		 pop	 edi
  000c2	5e		 pop	 esi
  000c3	8b e5		 mov	 esp, ebp
  000c5	5d		 pop	 ebp
  000c6	c3		 ret	 0
  000c7	90		 npad	 1
$LN36@FindFillTy:
  000c8	00 00 00 00	 DD	 $LN8@FindFillTy
  000cc	00 00 00 00	 DD	 $LN2@FindFillTy
$LN35@FindFillTy:
  000d0	00		 DB	 0
  000d1	00		 DB	 0
  000d2	01		 DB	 1
  000d3	00		 DB	 0
  000d4	01		 DB	 1
  000d5	00		 DB	 0
  000d6	00		 DB	 0
  000d7	01		 DB	 1
  000d8	00		 DB	 0
  000d9	01		 DB	 1
  000da	01		 DB	 1
  000db	01		 DB	 1
  000dc	00		 DB	 0
  000dd	01		 DB	 1
  000de	01		 DB	 1
  000df	01		 DB	 1
  000e0	01		 DB	 1
  000e1	01		 DB	 1
  000e2	01		 DB	 1
  000e3	00		 DB	 0
  000e4	01		 DB	 1
  000e5	01		 DB	 1
  000e6	01		 DB	 1
  000e7	01		 DB	 1
  000e8	01		 DB	 1
  000e9	01		 DB	 1
  000ea	01		 DB	 1
  000eb	01		 DB	 1
  000ec	01		 DB	 1
  000ed	01		 DB	 1
  000ee	01		 DB	 1
  000ef	01		 DB	 1
  000f0	01		 DB	 1
  000f1	01		 DB	 1
  000f2	01		 DB	 1
  000f3	01		 DB	 1
  000f4	00		 DB	 0
  000f5	00		 DB	 0
  000f6	00		 DB	 0
  000f7	01		 DB	 1
  000f8	01		 DB	 1
  000f9	01		 DB	 1
  000fa	01		 DB	 1
  000fb	00		 DB	 0
  000fc	00		 DB	 0
  000fd	01		 DB	 1
  000fe	01		 DB	 1
  000ff	01		 DB	 1
  00100	01		 DB	 1
  00101	01		 DB	 1
  00102	01		 DB	 1
  00103	01		 DB	 1
  00104	01		 DB	 1
  00105	01		 DB	 1
  00106	01		 DB	 1
  00107	01		 DB	 1
  00108	00		 DB	 0
  00109	01		 DB	 1
  0010a	01		 DB	 1
  0010b	01		 DB	 1
  0010c	01		 DB	 1
  0010d	00		 DB	 0
  0010e	01		 DB	 1
  0010f	01		 DB	 1
  00110	00		 DB	 0
  00111	01		 DB	 1
  00112	01		 DB	 1
  00113	01		 DB	 1
  00114	00		 DB	 0
  00115	01		 DB	 1
  00116	01		 DB	 1
  00117	01		 DB	 1
  00118	01		 DB	 1
  00119	01		 DB	 1
  0011a	01		 DB	 1
  0011b	01		 DB	 1
  0011c	01		 DB	 1
  0011d	01		 DB	 1
  0011e	01		 DB	 1
  0011f	01		 DB	 1
  00120	01		 DB	 1
  00121	00		 DB	 0
  00122	01		 DB	 1
  00123	01		 DB	 1
  00124	00		 DB	 0
_TEXT	ENDS
;	COMDAT text$x
text$x	SEGMENT
__unwindfunclet$?FindFillTypeWhenOneSub_OneCondi@CFindType@@SA?AW4FILLTYPE@CBaseData@@ABV?$CStringT@DV?$StrTraitMFC_DLL@DV?$ChTraitsCRT@D@ATL@@@@@ATL@@@Z$0:
  00000	8d 4d f0	 lea	 ecx, DWORD PTR _GraphName$[ebp]
  00003	ff 25 00 00 00
	00		 jmp	 DWORD PTR __imp_??1?$CStringT@DV?$StrTraitMFC_DLL@DV?$ChTraitsCRT@D@ATL@@@@@ATL@@QAE@XZ
__unwindfunclet$?FindFillTypeWhenOneSub_OneCondi@CFindType@@SA?AW4FILLTYPE@CBaseData@@ABV?$CStringT@DV?$StrTraitMFC_DLL@DV?$ChTraitsCRT@D@ATL@@@@@ATL@@@Z$1:
  00009	8d 4d ec	 lea	 ecx, DWORD PTR $T2[ebp]
  0000c	ff 25 00 00 00
	00		 jmp	 DWORD PTR __imp_??1?$CStringT@DV?$StrTraitMFC_DLL@DV?$ChTraitsCRT@D@ATL@@@@@ATL@@QAE@XZ
  00012	cc		 int	 3
  00013	cc		 int	 3
  00014	cc		 int	 3
  00015	cc		 int	 3
  00016	cc		 int	 3
__ehhandler$?FindFillTypeWhenOneSub_OneCondi@CFindType@@SA?AW4FILLTYPE@CBaseData@@ABV?$CStringT@DV?$StrTraitMFC_DLL@DV?$ChTraitsCRT@D@ATL@@@@@ATL@@@Z:
  00017	90		 npad	 1
  00018	90		 npad	 1
  00019	8b 54 24 08	 mov	 edx, DWORD PTR [esp+8]
  0001d	8d 42 0c	 lea	 eax, DWORD PTR [edx+12]
  00020	8b 4a ec	 mov	 ecx, DWORD PTR [edx-20]
  00023	33 c8		 xor	 ecx, eax
  00025	e8 00 00 00 00	 call	 @__security_check_cookie@4
  0002a	b8 00 00 00 00	 mov	 eax, OFFSET __ehfuncinfo$?FindFillTypeWhenOneSub_OneCondi@CFindType@@SA?AW4FILLTYPE@CBaseData@@ABV?$CStringT@DV?$StrTraitMFC_DLL@DV?$ChTraitsCRT@D@ATL@@@@@ATL@@@Z
  0002f	e9 00 00 00 00	 jmp	 ___CxxFrameHandler3
text$x	ENDS
?FindFillTypeWhenOneSub_OneCondi@CFindType@@SA?AW4FILLTYPE@CBaseData@@ABV?$CStringT@DV?$StrTraitMFC_DLL@DV?$ChTraitsCRT@D@ATL@@@@@ATL@@@Z ENDP ; CFindType::FindFillTypeWhenOneSub_OneCondi
; Function compile flags: /Ogtp
; File D:\git\src\IBK\IBK_DRFN\ProjSrc\SrcChartEx\ChartAddIn\ChartEnvSetupDlgAddIn\ChartEnvSetupDlgAddIn\FindType.cpp
;	COMDAT ?FindFillTypeWhenOneSub_TwoCondi@CFindType@@SA?AW4FILLTYPE@CBaseData@@ABV?$CStringT@DV?$StrTraitMFC_DLL@DV?$ChTraitsCRT@D@ATL@@@@@ATL@@@Z
_TEXT	SEGMENT
$T2 = -20						; size = 4
_GraphName$ = -16					; size = 4
__$EHRec$ = -12						; size = 12
_strGraphName$ = 8					; size = 4
?FindFillTypeWhenOneSub_TwoCondi@CFindType@@SA?AW4FILLTYPE@CBaseData@@ABV?$CStringT@DV?$StrTraitMFC_DLL@DV?$ChTraitsCRT@D@ATL@@@@@ATL@@@Z PROC ; CFindType::FindFillTypeWhenOneSub_TwoCondi, COMDAT

; 454  : {

  00000	55		 push	 ebp
  00001	8b ec		 mov	 ebp, esp
  00003	6a ff		 push	 -1
  00005	68 00 00 00 00	 push	 __ehhandler$?FindFillTypeWhenOneSub_TwoCondi@CFindType@@SA?AW4FILLTYPE@CBaseData@@ABV?$CStringT@DV?$StrTraitMFC_DLL@DV?$ChTraitsCRT@D@ATL@@@@@ATL@@@Z
  0000a	64 a1 00 00 00
	00		 mov	 eax, DWORD PTR fs:0
  00010	50		 push	 eax
  00011	83 ec 08	 sub	 esp, 8
  00014	56		 push	 esi
  00015	57		 push	 edi
  00016	a1 00 00 00 00	 mov	 eax, DWORD PTR ___security_cookie
  0001b	33 c5		 xor	 eax, ebp
  0001d	50		 push	 eax
  0001e	8d 45 f4	 lea	 eax, DWORD PTR __$EHRec$[ebp]
  00021	64 a3 00 00 00
	00		 mov	 DWORD PTR fs:0, eax

; 455  : 	CString GraphName = strGraphName;

  00027	8b 75 08	 mov	 esi, DWORD PTR _strGraphName$[ebp]
  0002a	8d 4d f0	 lea	 ecx, DWORD PTR _GraphName$[ebp]
  0002d	56		 push	 esi
  0002e	ff 15 00 00 00
	00		 call	 DWORD PTR __imp_??0?$CStringT@DV?$StrTraitMFC_DLL@DV?$ChTraitsCRT@D@ATL@@@@@ATL@@QAE@ABV01@@Z

; 456  : 	GraphName = FindStochastics(strGraphName);

  00034	8d 45 ec	 lea	 eax, DWORD PTR $T2[ebp]
  00037	c7 45 fc 00 00
	00 00		 mov	 DWORD PTR __$EHRec$[ebp+8], 0
  0003e	56		 push	 esi
  0003f	50		 push	 eax
  00040	e8 00 00 00 00	 call	 ?FindStochastics@CFindType@@SA?AV?$CStringT@DV?$StrTraitMFC_DLL@DV?$ChTraitsCRT@D@ATL@@@@@ATL@@ABV23@@Z ; CFindType::FindStochastics
  00045	83 c4 08	 add	 esp, 8
  00048	50		 push	 eax
  00049	8d 4d f0	 lea	 ecx, DWORD PTR _GraphName$[ebp]
  0004c	c6 45 fc 01	 mov	 BYTE PTR __$EHRec$[ebp+8], 1
  00050	ff 15 00 00 00
	00		 call	 DWORD PTR __imp_??4?$CStringT@DV?$StrTraitMFC_DLL@DV?$ChTraitsCRT@D@ATL@@@@@ATL@@QAEAAV01@ABV01@@Z
  00056	8d 4d ec	 lea	 ecx, DWORD PTR $T2[ebp]
  00059	c6 45 fc 00	 mov	 BYTE PTR __$EHRec$[ebp+8], 0
  0005d	ff 15 00 00 00
	00		 call	 DWORD PTR __imp_??1?$CStringT@DV?$StrTraitMFC_DLL@DV?$ChTraitsCRT@D@ATL@@@@@ATL@@QAE@XZ
  00063	be e7 ff ff ff	 mov	 esi, -25		; ffffffe7H
  00068	bf 00 00 00 00	 mov	 edi, OFFSET ?g_szIndicatorNameList@@3PAW4E_METACODE@IMetaTable@@A
  0006d	0f 1f 00	 npad	 3
$LL4@FindFillTy:

; 459  : 	{
; 460  : // 2008.01.25 by LYH >>
; 461  : 		//if( GraphName.CompareNoCase( g_szIndicatorNameList[i] ) == 0 )
; 462  : 		if( GraphName.CompareNoCase( _MTEXTN( g_szIndicatorNameList[i]) ) == 0 )

  00070	8b 0f		 mov	 ecx, DWORD PTR [edi]
  00072	a1 54 00 00 00	 mov	 eax, DWORD PTR ?g_iMetaTable@@3VIMetaTable@@A+84
  00077	ff 34 88	 push	 DWORD PTR [eax+ecx*4]
  0007a	8d 4d f0	 lea	 ecx, DWORD PTR _GraphName$[ebp]
  0007d	ff 15 00 00 00
	00		 call	 DWORD PTR __imp_?CompareNoCase@?$CStringT@DV?$StrTraitMFC_DLL@DV?$ChTraitsCRT@D@ATL@@@@@ATL@@QBEHPBD@Z
  00083	85 c0		 test	 eax, eax
  00085	75 13		 jne	 SHORT $LN2@FindFillTy

; 463  : // 2008.01.25 by LYH <<
; 464  : 		{
; 465  : 			switch(i)

  00087	83 fe 30	 cmp	 esi, 48			; 00000030H
  0008a	77 0e		 ja	 SHORT $LN2@FindFillTy
  0008c	0f b6 86 00 00
	00 00		 movzx	 eax, BYTE PTR $LN26@FindFillTy[esi]
  00093	ff 24 85 00 00
	00 00		 jmp	 DWORD PTR $LN27@FindFillTy[eax*4]
$LN2@FindFillTy:

; 457  : 	
; 458  : 	for( int i = 0 ; i < GRAPH_COUNT ; i++ )

  0009a	46		 inc	 esi
  0009b	83 c7 04	 add	 edi, 4
  0009e	8d 46 19	 lea	 eax, DWORD PTR [esi+25]
  000a1	3d b1 00 00 00	 cmp	 eax, 177		; 000000b1H
  000a6	7c c8		 jl	 SHORT $LL4@FindFillTy
$LN25@FindFillTy:

; 466  : 			{
; 467  : 				//sy 2004.2.10
; 468  : 				//case GRAPH_CO: //Sub 1, Condition 2, fill
; 469  : 				case GRAPH_STOCHASTICS_OSCILLATOR: //Sub 1, Condition 2, fill
; 470  : 					return CBaseData::Fill;
; 471  : 	
; 472  : 				case GRAPH_MI: // Sub 1, Condition 2, nofill
; 473  : 				case GRAPH_PARABOLIC:
; 474  : 				case GRAPH_OSCP:
; 475  : 				case GRAPH_RAINBOW:
; 476  : 				case GRAPH_STIX:
; 477  : 				case GRAPH_BANDB:
; 478  : 				case GRAPH_BandWidth:
; 479  : 					return CBaseData::NoFill;
; 480  : 			}
; 481  : 		}
; 482  : 	}
; 483  : 	return CBaseData::NoFill;

  000a8	be 01 00 00 00	 mov	 esi, 1
$LN20@FindFillTy:
  000ad	8d 4d f0	 lea	 ecx, DWORD PTR _GraphName$[ebp]
  000b0	ff 15 00 00 00
	00		 call	 DWORD PTR __imp_??1?$CStringT@DV?$StrTraitMFC_DLL@DV?$ChTraitsCRT@D@ATL@@@@@ATL@@QAE@XZ
  000b6	8b c6		 mov	 eax, esi

; 484  : }

  000b8	8b 4d f4	 mov	 ecx, DWORD PTR __$EHRec$[ebp]
  000bb	64 89 0d 00 00
	00 00		 mov	 DWORD PTR fs:0, ecx
  000c2	59		 pop	 ecx
  000c3	5f		 pop	 edi
  000c4	5e		 pop	 esi
  000c5	8b e5		 mov	 esp, ebp
  000c7	5d		 pop	 ebp
  000c8	c3		 ret	 0
$LN8@FindFillTy:
  000c9	33 f6		 xor	 esi, esi
  000cb	eb e0		 jmp	 SHORT $LN20@FindFillTy
  000cd	0f 1f 00	 npad	 3
$LN27@FindFillTy:
  000d0	00 00 00 00	 DD	 $LN25@FindFillTy
  000d4	00 00 00 00	 DD	 $LN8@FindFillTy
  000d8	00 00 00 00	 DD	 $LN2@FindFillTy
$LN26@FindFillTy:
  000dc	00		 DB	 0
  000dd	02		 DB	 2
  000de	02		 DB	 2
  000df	02		 DB	 2
  000e0	02		 DB	 2
  000e1	02		 DB	 2
  000e2	00		 DB	 0
  000e3	02		 DB	 2
  000e4	02		 DB	 2
  000e5	00		 DB	 0
  000e6	02		 DB	 2
  000e7	02		 DB	 2
  000e8	02		 DB	 2
  000e9	02		 DB	 2
  000ea	02		 DB	 2
  000eb	02		 DB	 2
  000ec	02		 DB	 2
  000ed	01		 DB	 1
  000ee	02		 DB	 2
  000ef	02		 DB	 2
  000f0	02		 DB	 2
  000f1	02		 DB	 2
  000f2	02		 DB	 2
  000f3	00		 DB	 0
  000f4	02		 DB	 2
  000f5	02		 DB	 2
  000f6	02		 DB	 2
  000f7	02		 DB	 2
  000f8	02		 DB	 2
  000f9	02		 DB	 2
  000fa	02		 DB	 2
  000fb	02		 DB	 2
  000fc	02		 DB	 2
  000fd	02		 DB	 2
  000fe	02		 DB	 2
  000ff	02		 DB	 2
  00100	02		 DB	 2
  00101	02		 DB	 2
  00102	02		 DB	 2
  00103	02		 DB	 2
  00104	02		 DB	 2
  00105	02		 DB	 2
  00106	00		 DB	 0
  00107	02		 DB	 2
  00108	02		 DB	 2
  00109	02		 DB	 2
  0010a	02		 DB	 2
  0010b	00		 DB	 0
  0010c	00		 DB	 0
_TEXT	ENDS
;	COMDAT text$x
text$x	SEGMENT
__unwindfunclet$?FindFillTypeWhenOneSub_TwoCondi@CFindType@@SA?AW4FILLTYPE@CBaseData@@ABV?$CStringT@DV?$StrTraitMFC_DLL@DV?$ChTraitsCRT@D@ATL@@@@@ATL@@@Z$0:
  00000	8d 4d f0	 lea	 ecx, DWORD PTR _GraphName$[ebp]
  00003	ff 25 00 00 00
	00		 jmp	 DWORD PTR __imp_??1?$CStringT@DV?$StrTraitMFC_DLL@DV?$ChTraitsCRT@D@ATL@@@@@ATL@@QAE@XZ
__unwindfunclet$?FindFillTypeWhenOneSub_TwoCondi@CFindType@@SA?AW4FILLTYPE@CBaseData@@ABV?$CStringT@DV?$StrTraitMFC_DLL@DV?$ChTraitsCRT@D@ATL@@@@@ATL@@@Z$1:
  00009	8d 4d ec	 lea	 ecx, DWORD PTR $T2[ebp]
  0000c	ff 25 00 00 00
	00		 jmp	 DWORD PTR __imp_??1?$CStringT@DV?$StrTraitMFC_DLL@DV?$ChTraitsCRT@D@ATL@@@@@ATL@@QAE@XZ
  00012	cc		 int	 3
  00013	cc		 int	 3
  00014	cc		 int	 3
  00015	cc		 int	 3
  00016	cc		 int	 3
__ehhandler$?FindFillTypeWhenOneSub_TwoCondi@CFindType@@SA?AW4FILLTYPE@CBaseData@@ABV?$CStringT@DV?$StrTraitMFC_DLL@DV?$ChTraitsCRT@D@ATL@@@@@ATL@@@Z:
  00017	90		 npad	 1
  00018	90		 npad	 1
  00019	8b 54 24 08	 mov	 edx, DWORD PTR [esp+8]
  0001d	8d 42 0c	 lea	 eax, DWORD PTR [edx+12]
  00020	8b 4a ec	 mov	 ecx, DWORD PTR [edx-20]
  00023	33 c8		 xor	 ecx, eax
  00025	e8 00 00 00 00	 call	 @__security_check_cookie@4
  0002a	b8 00 00 00 00	 mov	 eax, OFFSET __ehfuncinfo$?FindFillTypeWhenOneSub_TwoCondi@CFindType@@SA?AW4FILLTYPE@CBaseData@@ABV?$CStringT@DV?$StrTraitMFC_DLL@DV?$ChTraitsCRT@D@ATL@@@@@ATL@@@Z
  0002f	e9 00 00 00 00	 jmp	 ___CxxFrameHandler3
text$x	ENDS
?FindFillTypeWhenOneSub_TwoCondi@CFindType@@SA?AW4FILLTYPE@CBaseData@@ABV?$CStringT@DV?$StrTraitMFC_DLL@DV?$ChTraitsCRT@D@ATL@@@@@ATL@@@Z ENDP ; CFindType::FindFillTypeWhenOneSub_TwoCondi
; Function compile flags: /Ogtp
; File D:\git\src\IBK\IBK_DRFN\ProjSrc\SrcChartEx\ChartAddIn\ChartEnvSetupDlgAddIn\ChartEnvSetupDlgAddIn\FindType.cpp
;	COMDAT ?FindFillTypeWhenOneSub_ThreeCondi@CFindType@@SA?AW4FILLTYPE@CBaseData@@ABV?$CStringT@DV?$StrTraitMFC_DLL@DV?$ChTraitsCRT@D@ATL@@@@@ATL@@@Z
_TEXT	SEGMENT
$T2 = -20						; size = 4
_GraphName$ = -16					; size = 4
__$EHRec$ = -12						; size = 12
_strGraphName$ = 8					; size = 4
?FindFillTypeWhenOneSub_ThreeCondi@CFindType@@SA?AW4FILLTYPE@CBaseData@@ABV?$CStringT@DV?$StrTraitMFC_DLL@DV?$ChTraitsCRT@D@ATL@@@@@ATL@@@Z PROC ; CFindType::FindFillTypeWhenOneSub_ThreeCondi, COMDAT

; 357  : {

  00000	55		 push	 ebp
  00001	8b ec		 mov	 ebp, esp
  00003	6a ff		 push	 -1
  00005	68 00 00 00 00	 push	 __ehhandler$?FindFillTypeWhenOneSub_ThreeCondi@CFindType@@SA?AW4FILLTYPE@CBaseData@@ABV?$CStringT@DV?$StrTraitMFC_DLL@DV?$ChTraitsCRT@D@ATL@@@@@ATL@@@Z
  0000a	64 a1 00 00 00
	00		 mov	 eax, DWORD PTR fs:0
  00010	50		 push	 eax
  00011	83 ec 08	 sub	 esp, 8
  00014	56		 push	 esi
  00015	a1 00 00 00 00	 mov	 eax, DWORD PTR ___security_cookie
  0001a	33 c5		 xor	 eax, ebp
  0001c	50		 push	 eax
  0001d	8d 45 f4	 lea	 eax, DWORD PTR __$EHRec$[ebp]
  00020	64 a3 00 00 00
	00		 mov	 DWORD PTR fs:0, eax

; 358  : 	CString GraphName = strGraphName;

  00026	8b 75 08	 mov	 esi, DWORD PTR _strGraphName$[ebp]
  00029	8d 4d f0	 lea	 ecx, DWORD PTR _GraphName$[ebp]
  0002c	56		 push	 esi
  0002d	ff 15 00 00 00
	00		 call	 DWORD PTR __imp_??0?$CStringT@DV?$StrTraitMFC_DLL@DV?$ChTraitsCRT@D@ATL@@@@@ATL@@QAE@ABV01@@Z

; 359  : 	GraphName = FindStochastics(strGraphName);

  00033	8d 45 ec	 lea	 eax, DWORD PTR $T2[ebp]
  00036	c7 45 fc 00 00
	00 00		 mov	 DWORD PTR __$EHRec$[ebp+8], 0
  0003d	56		 push	 esi
  0003e	50		 push	 eax
  0003f	e8 00 00 00 00	 call	 ?FindStochastics@CFindType@@SA?AV?$CStringT@DV?$StrTraitMFC_DLL@DV?$ChTraitsCRT@D@ATL@@@@@ATL@@ABV23@@Z ; CFindType::FindStochastics
  00044	83 c4 08	 add	 esp, 8
  00047	50		 push	 eax
  00048	8d 4d f0	 lea	 ecx, DWORD PTR _GraphName$[ebp]
  0004b	c6 45 fc 01	 mov	 BYTE PTR __$EHRec$[ebp+8], 1
  0004f	ff 15 00 00 00
	00		 call	 DWORD PTR __imp_??4?$CStringT@DV?$StrTraitMFC_DLL@DV?$ChTraitsCRT@D@ATL@@@@@ATL@@QAEAAV01@ABV01@@Z
  00055	8d 4d ec	 lea	 ecx, DWORD PTR $T2[ebp]
  00058	c6 45 fc 00	 mov	 BYTE PTR __$EHRec$[ebp+8], 0
  0005c	ff 15 00 00 00
	00		 call	 DWORD PTR __imp_??1?$CStringT@DV?$StrTraitMFC_DLL@DV?$ChTraitsCRT@D@ATL@@@@@ATL@@QAE@XZ
  00062	be 00 00 00 00	 mov	 esi, OFFSET ?g_szIndicatorNameList@@3PAW4E_METACODE@IMetaTable@@A
  00067	66 0f 1f 84 00
	00 00 00 00	 npad	 9
$LL4@FindFillTy:

; 362  : 	{
; 363  : // 2008.01.25 by LYH >>
; 364  : 		//if( GraphName.CompareNoCase( g_szIndicatorNameList[i] ) == 0 )
; 365  : 		if( GraphName.CompareNoCase( _MTEXTN( g_szIndicatorNameList[i]) ) == 0 )

  00070	8b 0e		 mov	 ecx, DWORD PTR [esi]
  00072	a1 54 00 00 00	 mov	 eax, DWORD PTR ?g_iMetaTable@@3VIMetaTable@@A+84
  00077	ff 34 88	 push	 DWORD PTR [eax+ecx*4]
  0007a	8d 4d f0	 lea	 ecx, DWORD PTR _GraphName$[ebp]
  0007d	ff 15 00 00 00
	00		 call	 DWORD PTR __imp_?CompareNoCase@?$CStringT@DV?$StrTraitMFC_DLL@DV?$ChTraitsCRT@D@ATL@@@@@ATL@@QBEHPBD@Z
  00083	85 c0		 test	 eax, eax
  00085	75 10		 jne	 SHORT $LN2@FindFillTy

; 366  : // 2008.01.25 by LYH <<
; 367  : 		{
; 368  : 			switch( i ) 

  00087	81 fe 5c 00 00
	00		 cmp	 esi, OFFSET ?g_szIndicatorNameList@@3PAW4E_METACODE@IMetaTable@@A+92
  0008d	74 33		 je	 SHORT $LN8@FindFillTy
  0008f	81 fe 78 00 00
	00		 cmp	 esi, OFFSET ?g_szIndicatorNameList@@3PAW4E_METACODE@IMetaTable@@A+120
  00095	74 2b		 je	 SHORT $LN8@FindFillTy
$LN2@FindFillTy:

; 360  : 	
; 361  : 	for( int i = 0 ; i < GRAPH_COUNT ; i++ )

  00097	83 c6 04	 add	 esi, 4
  0009a	81 fe c4 02 00
	00		 cmp	 esi, OFFSET ?g_szIndicatorNameList@@3PAW4E_METACODE@IMetaTable@@A+708
  000a0	7c ce		 jl	 SHORT $LL4@FindFillTy

; 369  : 			{
; 370  : 				case GRAPH_MACD_OSC: //Sub1, Condition 3, fill
; 371  : 				case GRAPH_OSCV: 
; 372  : 					return CBaseData::Fill;
; 373  : 			}
; 374  : 		}
; 375  : 	}
; 376  : 	
; 377  : 	return CBaseData::NoFill;

  000a2	be 01 00 00 00	 mov	 esi, 1
$LN13@FindFillTy:
  000a7	8d 4d f0	 lea	 ecx, DWORD PTR _GraphName$[ebp]
  000aa	ff 15 00 00 00
	00		 call	 DWORD PTR __imp_??1?$CStringT@DV?$StrTraitMFC_DLL@DV?$ChTraitsCRT@D@ATL@@@@@ATL@@QAE@XZ
  000b0	8b c6		 mov	 eax, esi

; 378  : }

  000b2	8b 4d f4	 mov	 ecx, DWORD PTR __$EHRec$[ebp]
  000b5	64 89 0d 00 00
	00 00		 mov	 DWORD PTR fs:0, ecx
  000bc	59		 pop	 ecx
  000bd	5e		 pop	 esi
  000be	8b e5		 mov	 esp, ebp
  000c0	5d		 pop	 ebp
  000c1	c3		 ret	 0
$LN8@FindFillTy:
  000c2	33 f6		 xor	 esi, esi
  000c4	eb e1		 jmp	 SHORT $LN13@FindFillTy
_TEXT	ENDS
;	COMDAT text$x
text$x	SEGMENT
__unwindfunclet$?FindFillTypeWhenOneSub_ThreeCondi@CFindType@@SA?AW4FILLTYPE@CBaseData@@ABV?$CStringT@DV?$StrTraitMFC_DLL@DV?$ChTraitsCRT@D@ATL@@@@@ATL@@@Z$0:
  00000	8d 4d f0	 lea	 ecx, DWORD PTR _GraphName$[ebp]
  00003	ff 25 00 00 00
	00		 jmp	 DWORD PTR __imp_??1?$CStringT@DV?$StrTraitMFC_DLL@DV?$ChTraitsCRT@D@ATL@@@@@ATL@@QAE@XZ
__unwindfunclet$?FindFillTypeWhenOneSub_ThreeCondi@CFindType@@SA?AW4FILLTYPE@CBaseData@@ABV?$CStringT@DV?$StrTraitMFC_DLL@DV?$ChTraitsCRT@D@ATL@@@@@ATL@@@Z$1:
  00009	8d 4d ec	 lea	 ecx, DWORD PTR $T2[ebp]
  0000c	ff 25 00 00 00
	00		 jmp	 DWORD PTR __imp_??1?$CStringT@DV?$StrTraitMFC_DLL@DV?$ChTraitsCRT@D@ATL@@@@@ATL@@QAE@XZ
  00012	cc		 int	 3
  00013	cc		 int	 3
  00014	cc		 int	 3
  00015	cc		 int	 3
  00016	cc		 int	 3
__ehhandler$?FindFillTypeWhenOneSub_ThreeCondi@CFindType@@SA?AW4FILLTYPE@CBaseData@@ABV?$CStringT@DV?$StrTraitMFC_DLL@DV?$ChTraitsCRT@D@ATL@@@@@ATL@@@Z:
  00017	90		 npad	 1
  00018	90		 npad	 1
  00019	8b 54 24 08	 mov	 edx, DWORD PTR [esp+8]
  0001d	8d 42 0c	 lea	 eax, DWORD PTR [edx+12]
  00020	8b 4a f0	 mov	 ecx, DWORD PTR [edx-16]
  00023	33 c8		 xor	 ecx, eax
  00025	e8 00 00 00 00	 call	 @__security_check_cookie@4
  0002a	b8 00 00 00 00	 mov	 eax, OFFSET __ehfuncinfo$?FindFillTypeWhenOneSub_ThreeCondi@CFindType@@SA?AW4FILLTYPE@CBaseData@@ABV?$CStringT@DV?$StrTraitMFC_DLL@DV?$ChTraitsCRT@D@ATL@@@@@ATL@@@Z
  0002f	e9 00 00 00 00	 jmp	 ___CxxFrameHandler3
text$x	ENDS
?FindFillTypeWhenOneSub_ThreeCondi@CFindType@@SA?AW4FILLTYPE@CBaseData@@ABV?$CStringT@DV?$StrTraitMFC_DLL@DV?$ChTraitsCRT@D@ATL@@@@@ATL@@@Z ENDP ; CFindType::FindFillTypeWhenOneSub_ThreeCondi
; Function compile flags: /Ogtp
; File D:\git\src\IBK\IBK_DRFN\ProjSrc\SrcChartEx\ChartAddIn\ChartEnvSetupDlgAddIn\ChartEnvSetupDlgAddIn\FindType.cpp
;	COMDAT ?FindFillTypeWhenOneSub_NoCondi@CFindType@@SA?AW4FILLTYPE@CBaseData@@ABV?$CStringT@DV?$StrTraitMFC_DLL@DV?$ChTraitsCRT@D@ATL@@@@@ATL@@@Z
_TEXT	SEGMENT
$T2 = -20						; size = 4
_GraphName$ = -16					; size = 4
__$EHRec$ = -12						; size = 12
_strGraphName$ = 8					; size = 4
?FindFillTypeWhenOneSub_NoCondi@CFindType@@SA?AW4FILLTYPE@CBaseData@@ABV?$CStringT@DV?$StrTraitMFC_DLL@DV?$ChTraitsCRT@D@ATL@@@@@ATL@@@Z PROC ; CFindType::FindFillTypeWhenOneSub_NoCondi, COMDAT

; 382  : {

  00000	55		 push	 ebp
  00001	8b ec		 mov	 ebp, esp
  00003	6a ff		 push	 -1
  00005	68 00 00 00 00	 push	 __ehhandler$?FindFillTypeWhenOneSub_NoCondi@CFindType@@SA?AW4FILLTYPE@CBaseData@@ABV?$CStringT@DV?$StrTraitMFC_DLL@DV?$ChTraitsCRT@D@ATL@@@@@ATL@@@Z
  0000a	64 a1 00 00 00
	00		 mov	 eax, DWORD PTR fs:0
  00010	50		 push	 eax
  00011	83 ec 08	 sub	 esp, 8
  00014	56		 push	 esi
  00015	57		 push	 edi
  00016	a1 00 00 00 00	 mov	 eax, DWORD PTR ___security_cookie
  0001b	33 c5		 xor	 eax, ebp
  0001d	50		 push	 eax
  0001e	8d 45 f4	 lea	 eax, DWORD PTR __$EHRec$[ebp]
  00021	64 a3 00 00 00
	00		 mov	 DWORD PTR fs:0, eax

; 383  : 	CString GraphName = strGraphName;

  00027	8b 75 08	 mov	 esi, DWORD PTR _strGraphName$[ebp]
  0002a	8d 4d f0	 lea	 ecx, DWORD PTR _GraphName$[ebp]
  0002d	56		 push	 esi
  0002e	ff 15 00 00 00
	00		 call	 DWORD PTR __imp_??0?$CStringT@DV?$StrTraitMFC_DLL@DV?$ChTraitsCRT@D@ATL@@@@@ATL@@QAE@ABV01@@Z

; 384  : 	GraphName = FindStochastics(strGraphName);

  00034	8d 45 ec	 lea	 eax, DWORD PTR $T2[ebp]
  00037	c7 45 fc 00 00
	00 00		 mov	 DWORD PTR __$EHRec$[ebp+8], 0
  0003e	56		 push	 esi
  0003f	50		 push	 eax
  00040	e8 00 00 00 00	 call	 ?FindStochastics@CFindType@@SA?AV?$CStringT@DV?$StrTraitMFC_DLL@DV?$ChTraitsCRT@D@ATL@@@@@ATL@@ABV23@@Z ; CFindType::FindStochastics
  00045	83 c4 08	 add	 esp, 8
  00048	50		 push	 eax
  00049	8d 4d f0	 lea	 ecx, DWORD PTR _GraphName$[ebp]
  0004c	c6 45 fc 01	 mov	 BYTE PTR __$EHRec$[ebp+8], 1
  00050	ff 15 00 00 00
	00		 call	 DWORD PTR __imp_??4?$CStringT@DV?$StrTraitMFC_DLL@DV?$ChTraitsCRT@D@ATL@@@@@ATL@@QAEAAV01@ABV01@@Z
  00056	8d 4d ec	 lea	 ecx, DWORD PTR $T2[ebp]
  00059	c6 45 fc 00	 mov	 BYTE PTR __$EHRec$[ebp+8], 0
  0005d	ff 15 00 00 00
	00		 call	 DWORD PTR __imp_??1?$CStringT@DV?$StrTraitMFC_DLL@DV?$ChTraitsCRT@D@ATL@@@@@ATL@@QAE@XZ
  00063	be ec ff ff ff	 mov	 esi, -20		; ffffffecH
  00068	bf 00 00 00 00	 mov	 edi, OFFSET ?g_szIndicatorNameList@@3PAW4E_METACODE@IMetaTable@@A
  0006d	0f 1f 00	 npad	 3
$LL4@FindFillTy:

; 387  : 	{
; 388  : // 2008.01.25 by LYH >>
; 389  : 		//if( GraphName.CompareNoCase(g_szIndicatorNameList[i] ) == 0 )
; 390  : 		if( GraphName.CompareNoCase( _MTEXTN( g_szIndicatorNameList[i]) ) == 0 )

  00070	8b 0f		 mov	 ecx, DWORD PTR [edi]
  00072	a1 54 00 00 00	 mov	 eax, DWORD PTR ?g_iMetaTable@@3VIMetaTable@@A+84
  00077	ff 34 88	 push	 DWORD PTR [eax+ecx*4]
  0007a	8d 4d f0	 lea	 ecx, DWORD PTR _GraphName$[ebp]
  0007d	ff 15 00 00 00
	00		 call	 DWORD PTR __imp_?CompareNoCase@?$CStringT@DV?$StrTraitMFC_DLL@DV?$ChTraitsCRT@D@ATL@@@@@ATL@@QBEHPBD@Z
  00083	85 c0		 test	 eax, eax
  00085	75 13		 jne	 SHORT $LN2@FindFillTy

; 391  : // 2008.01.25 by LYH <<
; 392  : 		{
; 393  : 			switch(i)

  00087	83 fe 39	 cmp	 esi, 57			; 00000039H
  0008a	77 0e		 ja	 SHORT $LN2@FindFillTy
  0008c	0f b6 86 00 00
	00 00		 movzx	 eax, BYTE PTR $LN26@FindFillTy[esi]
  00093	ff 24 85 00 00
	00 00		 jmp	 DWORD PTR $LN27@FindFillTy[eax*4]
$LN2@FindFillTy:

; 385  : 	
; 386  : 	for( int i = 0 ; i < GRAPH_COUNT ; i++)

  0009a	46		 inc	 esi
  0009b	83 c7 04	 add	 edi, 4
  0009e	8d 46 14	 lea	 eax, DWORD PTR [esi+20]
  000a1	3d b1 00 00 00	 cmp	 eax, 177		; 000000b1H
  000a6	7c c8		 jl	 SHORT $LL4@FindFillTy
$LN25@FindFillTy:

; 394  : 			{
; 395  : 				case GRAPH_THREE_LINE_BREAK: // Sub 1, No Condi, fill
; 396  : 					return CBaseData::Fill;	
; 397  : 				
; 398  : 				//case GRAPH_NEGATIVE_VOLUME_INDEX: // Sub 1, No-Condition
; 399  : 				//case GRAPH_POSITIVE_VOLUME_INDEX: // PVI
; 400  : 				case GRAPH_FOURIER_TRANSFORM:
; 401  : 				case GRAPH_PRICE_VOLUME_TREND:	
; 402  : 				case GRAPH_ABI:					/// Absolute Breadth Index
; 403  : 				case GRAPH_AD:					/// A/D Line : Accumulation/Distribution
; 404  : 				case GRAPH_ADL:					/// Advanced Decline Line
; 405  : 				case GRAPH_WEIGHTCLOSE:
; 406  : 				case GRAPH_WilliamAD:
; 407  : 					return CBaseData::NoFill;
; 408  : 			}
; 409  : 		}
; 410  : 	}
; 411  : 	
; 412  : 	return CBaseData::NoFill;

  000a8	be 01 00 00 00	 mov	 esi, 1
$LN20@FindFillTy:
  000ad	8d 4d f0	 lea	 ecx, DWORD PTR _GraphName$[ebp]
  000b0	ff 15 00 00 00
	00		 call	 DWORD PTR __imp_??1?$CStringT@DV?$StrTraitMFC_DLL@DV?$ChTraitsCRT@D@ATL@@@@@ATL@@QAE@XZ
  000b6	8b c6		 mov	 eax, esi

; 413  : }

  000b8	8b 4d f4	 mov	 ecx, DWORD PTR __$EHRec$[ebp]
  000bb	64 89 0d 00 00
	00 00		 mov	 DWORD PTR fs:0, ecx
  000c2	59		 pop	 ecx
  000c3	5f		 pop	 edi
  000c4	5e		 pop	 esi
  000c5	8b e5		 mov	 esp, ebp
  000c7	5d		 pop	 ebp
  000c8	c3		 ret	 0
$LN8@FindFillTy:
  000c9	33 f6		 xor	 esi, esi
  000cb	eb e0		 jmp	 SHORT $LN20@FindFillTy
  000cd	0f 1f 00	 npad	 3
$LN27@FindFillTy:
  000d0	00 00 00 00	 DD	 $LN25@FindFillTy
  000d4	00 00 00 00	 DD	 $LN8@FindFillTy
  000d8	00 00 00 00	 DD	 $LN2@FindFillTy
$LN26@FindFillTy:
  000dc	00		 DB	 0
  000dd	02		 DB	 2
  000de	02		 DB	 2
  000df	02		 DB	 2
  000e0	02		 DB	 2
  000e1	02		 DB	 2
  000e2	02		 DB	 2
  000e3	02		 DB	 2
  000e4	02		 DB	 2
  000e5	02		 DB	 2
  000e6	02		 DB	 2
  000e7	02		 DB	 2
  000e8	02		 DB	 2
  000e9	02		 DB	 2
  000ea	02		 DB	 2
  000eb	00		 DB	 0
  000ec	02		 DB	 2
  000ed	02		 DB	 2
  000ee	02		 DB	 2
  000ef	02		 DB	 2
  000f0	02		 DB	 2
  000f1	02		 DB	 2
  000f2	02		 DB	 2
  000f3	02		 DB	 2
  000f4	02		 DB	 2
  000f5	02		 DB	 2
  000f6	02		 DB	 2
  000f7	02		 DB	 2
  000f8	02		 DB	 2
  000f9	01		 DB	 1
  000fa	02		 DB	 2
  000fb	02		 DB	 2
  000fc	02		 DB	 2
  000fd	02		 DB	 2
  000fe	02		 DB	 2
  000ff	02		 DB	 2
  00100	02		 DB	 2
  00101	00		 DB	 0
  00102	02		 DB	 2
  00103	02		 DB	 2
  00104	02		 DB	 2
  00105	00		 DB	 0
  00106	00		 DB	 0
  00107	02		 DB	 2
  00108	02		 DB	 2
  00109	02		 DB	 2
  0010a	02		 DB	 2
  0010b	02		 DB	 2
  0010c	02		 DB	 2
  0010d	02		 DB	 2
  0010e	00		 DB	 0
  0010f	02		 DB	 2
  00110	02		 DB	 2
  00111	02		 DB	 2
  00112	02		 DB	 2
  00113	02		 DB	 2
  00114	02		 DB	 2
  00115	00		 DB	 0
_TEXT	ENDS
;	COMDAT text$x
text$x	SEGMENT
__unwindfunclet$?FindFillTypeWhenOneSub_NoCondi@CFindType@@SA?AW4FILLTYPE@CBaseData@@ABV?$CStringT@DV?$StrTraitMFC_DLL@DV?$ChTraitsCRT@D@ATL@@@@@ATL@@@Z$0:
  00000	8d 4d f0	 lea	 ecx, DWORD PTR _GraphName$[ebp]
  00003	ff 25 00 00 00
	00		 jmp	 DWORD PTR __imp_??1?$CStringT@DV?$StrTraitMFC_DLL@DV?$ChTraitsCRT@D@ATL@@@@@ATL@@QAE@XZ
__unwindfunclet$?FindFillTypeWhenOneSub_NoCondi@CFindType@@SA?AW4FILLTYPE@CBaseData@@ABV?$CStringT@DV?$StrTraitMFC_DLL@DV?$ChTraitsCRT@D@ATL@@@@@ATL@@@Z$1:
  00009	8d 4d ec	 lea	 ecx, DWORD PTR $T2[ebp]
  0000c	ff 25 00 00 00
	00		 jmp	 DWORD PTR __imp_??1?$CStringT@DV?$StrTraitMFC_DLL@DV?$ChTraitsCRT@D@ATL@@@@@ATL@@QAE@XZ
  00012	cc		 int	 3
  00013	cc		 int	 3
  00014	cc		 int	 3
  00015	cc		 int	 3
  00016	cc		 int	 3
__ehhandler$?FindFillTypeWhenOneSub_NoCondi@CFindType@@SA?AW4FILLTYPE@CBaseData@@ABV?$CStringT@DV?$StrTraitMFC_DLL@DV?$ChTraitsCRT@D@ATL@@@@@ATL@@@Z:
  00017	90		 npad	 1
  00018	90		 npad	 1
  00019	8b 54 24 08	 mov	 edx, DWORD PTR [esp+8]
  0001d	8d 42 0c	 lea	 eax, DWORD PTR [edx+12]
  00020	8b 4a ec	 mov	 ecx, DWORD PTR [edx-20]
  00023	33 c8		 xor	 ecx, eax
  00025	e8 00 00 00 00	 call	 @__security_check_cookie@4
  0002a	b8 00 00 00 00	 mov	 eax, OFFSET __ehfuncinfo$?FindFillTypeWhenOneSub_NoCondi@CFindType@@SA?AW4FILLTYPE@CBaseData@@ABV?$CStringT@DV?$StrTraitMFC_DLL@DV?$ChTraitsCRT@D@ATL@@@@@ATL@@@Z
  0002f	e9 00 00 00 00	 jmp	 ___CxxFrameHandler3
text$x	ENDS
?FindFillTypeWhenOneSub_NoCondi@CFindType@@SA?AW4FILLTYPE@CBaseData@@ABV?$CStringT@DV?$StrTraitMFC_DLL@DV?$ChTraitsCRT@D@ATL@@@@@ATL@@@Z ENDP ; CFindType::FindFillTypeWhenOneSub_NoCondi
; Function compile flags: /Ogtp
; File D:\git\src\IBK\IBK_DRFN\ProjSrc\SrcChartEx\ChartAddIn\ChartEnvSetupDlgAddIn\ChartEnvSetupDlgAddIn\FindType.cpp
;	COMDAT ?FindDlgType@CFindType@@SA?AW4DLGTYPE@CBaseData@@PBD@Z
_TEXT	SEGMENT
_GraphName$ = -20					; size = 4
$T2 = -16						; size = 4
__$EHRec$ = -12						; size = 12
_p_szIndicatorName$ = 8					; size = 4
?FindDlgType@CFindType@@SA?AW4DLGTYPE@CBaseData@@PBD@Z PROC ; CFindType::FindDlgType, COMDAT

; 276  : {

  00000	55		 push	 ebp
  00001	8b ec		 mov	 ebp, esp
  00003	6a ff		 push	 -1
  00005	68 00 00 00 00	 push	 __ehhandler$?FindDlgType@CFindType@@SA?AW4DLGTYPE@CBaseData@@PBD@Z
  0000a	64 a1 00 00 00
	00		 mov	 eax, DWORD PTR fs:0
  00010	50		 push	 eax
  00011	83 ec 08	 sub	 esp, 8
  00014	56		 push	 esi
  00015	57		 push	 edi
  00016	a1 00 00 00 00	 mov	 eax, DWORD PTR ___security_cookie
  0001b	33 c5		 xor	 eax, ebp
  0001d	50		 push	 eax
  0001e	8d 45 f4	 lea	 eax, DWORD PTR __$EHRec$[ebp]
  00021	64 a3 00 00 00
	00		 mov	 DWORD PTR fs:0, eax

; 277  : 	CString GraphName = FindStochastics( p_szIndicatorName);

  00027	8b 7d 08	 mov	 edi, DWORD PTR _p_szIndicatorName$[ebp]
  0002a	8d 4d f0	 lea	 ecx, DWORD PTR $T2[ebp]
  0002d	57		 push	 edi
  0002e	ff 15 00 00 00
	00		 call	 DWORD PTR __imp_??0?$CStringT@DV?$StrTraitMFC_DLL@DV?$ChTraitsCRT@D@ATL@@@@@ATL@@QAE@PBD@Z
  00034	8d 45 f0	 lea	 eax, DWORD PTR $T2[ebp]
  00037	c7 45 fc 00 00
	00 00		 mov	 DWORD PTR __$EHRec$[ebp+8], 0
  0003e	50		 push	 eax
  0003f	8d 45 ec	 lea	 eax, DWORD PTR _GraphName$[ebp]
  00042	50		 push	 eax
  00043	e8 00 00 00 00	 call	 ?FindStochastics@CFindType@@SA?AV?$CStringT@DV?$StrTraitMFC_DLL@DV?$ChTraitsCRT@D@ATL@@@@@ATL@@ABV23@@Z ; CFindType::FindStochastics
  00048	83 c4 08	 add	 esp, 8
  0004b	8d 4d f0	 lea	 ecx, DWORD PTR $T2[ebp]
  0004e	c6 45 fc 02	 mov	 BYTE PTR __$EHRec$[ebp+8], 2
  00052	ff 15 00 00 00
	00		 call	 DWORD PTR __imp_??1?$CStringT@DV?$StrTraitMFC_DLL@DV?$ChTraitsCRT@D@ATL@@@@@ATL@@QAE@XZ

; 278  : 	
; 279  : 	for( int i = 0 ; i < GRAPH_COUNT ; i++ )

  00058	33 f6		 xor	 esi, esi
  0005a	66 0f 1f 44 00
	00		 npad	 6
$LL4@FindDlgTyp:

; 280  : 	{
; 281  : // 2008.01.25 by LYH >>
; 282  : 		//if( GraphName.CompareNoCase( g_szIndicatorNameList[i] ) == 0)
; 283  : 		if( GraphName.CompareNoCase( _MTEXTN( g_szIndicatorNameList[i]) ) == 0)

  00060	8b 0c b5 00 00
	00 00		 mov	 ecx, DWORD PTR ?g_szIndicatorNameList@@3PAW4E_METACODE@IMetaTable@@A[esi*4]
  00067	a1 54 00 00 00	 mov	 eax, DWORD PTR ?g_iMetaTable@@3VIMetaTable@@A+84
  0006c	ff 34 88	 push	 DWORD PTR [eax+ecx*4]
  0006f	8d 4d ec	 lea	 ecx, DWORD PTR _GraphName$[ebp]
  00072	ff 15 00 00 00
	00		 call	 DWORD PTR __imp_?CompareNoCase@?$CStringT@DV?$StrTraitMFC_DLL@DV?$ChTraitsCRT@D@ATL@@@@@ATL@@QBEHPBD@Z
  00078	85 c0		 test	 eax, eax
  0007a	74 4b		 je	 SHORT $LN44@FindDlgTyp

; 278  : 	
; 279  : 	for( int i = 0 ; i < GRAPH_COUNT ; i++ )

  0007c	46		 inc	 esi
  0007d	81 fe b1 00 00
	00		 cmp	 esi, 177		; 000000b1H
  00083	7c db		 jl	 SHORT $LL4@FindDlgTyp

; 344  : 			}
; 345  : 		}
; 346  : 	}
; 347  : 
; 348  : 	//지표설정중 <거래대금>을 <거래량차트>과 같이 하기위해
; 349  : 	//SK에서 만 사용하기때문에 예외처리함.
; 350  : 	if( !strcmp( p_szIndicatorName, _MTEXT( C2_VOLUME_AMOUNT ))) return CBaseData::Volume;

  00085	a1 54 00 00 00	 mov	 eax, DWORD PTR ?g_iMetaTable@@3VIMetaTable@@A+84
  0008a	8b 80 a0 04 00
	00		 mov	 eax, DWORD PTR [eax+1184]
$LL48@FindDlgTyp:
  00090	8a 0f		 mov	 cl, BYTE PTR [edi]
  00092	3a 08		 cmp	 cl, BYTE PTR [eax]
  00094	75 1a		 jne	 SHORT $LN49@FindDlgTyp
  00096	84 c9		 test	 cl, cl
  00098	74 12		 je	 SHORT $LN50@FindDlgTyp
  0009a	8a 4f 01	 mov	 cl, BYTE PTR [edi+1]
  0009d	3a 48 01	 cmp	 cl, BYTE PTR [eax+1]
  000a0	75 0e		 jne	 SHORT $LN49@FindDlgTyp
  000a2	83 c7 02	 add	 edi, 2
  000a5	83 c0 02	 add	 eax, 2
  000a8	84 c9		 test	 cl, cl
  000aa	75 e4		 jne	 SHORT $LL48@FindDlgTyp
$LN50@FindDlgTyp:
  000ac	33 c0		 xor	 eax, eax
  000ae	eb 05		 jmp	 SHORT $LN51@FindDlgTyp
$LN49@FindDlgTyp:
  000b0	1b c0		 sbb	 eax, eax
  000b2	83 c8 01	 or	 eax, 1
$LN51@FindDlgTyp:
  000b5	85 c0		 test	 eax, eax
  000b7	75 07		 jne	 SHORT $LN25@FindDlgTyp
$LN9@FindDlgTyp:

; 351  : 
; 352  : 	return CBaseData::OneSub_NoCondition;

  000b9	be 0c 00 00 00	 mov	 esi, 12			; 0000000cH
  000be	eb 6f		 jmp	 SHORT $LN42@FindDlgTyp
$LN25@FindDlgTyp:
  000c0	be 06 00 00 00	 mov	 esi, 6
  000c5	eb 68		 jmp	 SHORT $LN42@FindDlgTyp
$LN44@FindDlgTyp:

; 284  : // 2008.01.25 by LYH <<
; 285  : 		{
; 286  : 			switch( i )

  000c7	81 fe ab 00 00
	00		 cmp	 esi, 171		; 000000abH
  000cd	77 5b		 ja	 SHORT $LN24@FindDlgTyp
  000cf	0f b6 86 00 00
	00 00		 movzx	 eax, BYTE PTR $LN52@FindDlgTyp[esi]
  000d6	ff 24 85 00 00
	00 00		 jmp	 DWORD PTR $LN53@FindDlgTyp[eax*4]
$LN8@FindDlgTyp:
  000dd	be 0b 00 00 00	 mov	 esi, 11			; 0000000bH
  000e2	eb 4b		 jmp	 SHORT $LN42@FindDlgTyp
$LN10@FindDlgTyp:

; 287  : 			{
; 288  : 				case GRAPH_PRICE: //price 
; 289  : 					return CBaseData::Price;
; 290  : 				
; 291  : 				case GRAPH_VOLUME: //volume
; 292  : 					return CBaseData::Volume;
; 293  : 				
; 294  : 				case GRAPH_MAC:
; 295  : 					return CBaseData::SeveralSub_OneCondition;

  000e4	be 04 00 00 00	 mov	 esi, 4
  000e9	eb 44		 jmp	 SHORT $LN42@FindDlgTyp
$LN11@FindDlgTyp:

; 296  : 					
; 297  : 				case GRAPH_THREE_LINE_BREAK: //Sub 1, No-Condition, fill
; 298  : 				case GRAPH_P_AND_F:
; 299  : 					return CBaseData::DT_SPECIAL_TYPE_A;

  000eb	be 17 00 00 00	 mov	 esi, 23			; 00000017H
  000f0	eb 3d		 jmp	 SHORT $LN42@FindDlgTyp
$LN13@FindDlgTyp:

; 300  : 
; 301  : 				case GRAPH_SwingChart:
; 302  : 				case GRAPH_KagiChart:
; 303  : 					return CBaseData::DT_SPECIAL_TYPE_B;

  000f2	be 18 00 00 00	 mov	 esi, 24			; 00000018H
  000f7	eb 36		 jmp	 SHORT $LN42@FindDlgTyp
$LN15@FindDlgTyp:

; 304  : 
; 305  : 				case GRAPH_RENKO_CHART:
; 306  : // (2006.11.09 안승환) 분산차트 추가
; 307  : 				case GRAPH_DISPERSION_CHART:
; 308  : // (2006.11.09 안승환) 분산차트 추가
; 309  : 					return CBaseData::DT_SPECIAL_TYPE_C;

  000f9	be 19 00 00 00	 mov	 esi, 25			; 00000019H
  000fe	eb 2f		 jmp	 SHORT $LN42@FindDlgTyp
$LN17@FindDlgTyp:

; 310  : 
; 311  : 				case GRAPH_INVERSE_LINE: 
; 312  : 					return CBaseData::DT_SPECIAL_TYPE_D;

  00100	be 1a 00 00 00	 mov	 esi, 26			; 0000001aH
  00105	eb 28		 jmp	 SHORT $LN42@FindDlgTyp
$LN18@FindDlgTyp:

; 313  : 					
; 314  : 				// Sang-Woo, Cho		2006 / 04 / 19
; 315  : 
; 316  : 				// "대기매물" 지표설정을 별도로 분리함.
; 317  : 				// Begin
; 318  : 				case GRAPH_HORIZONTALBAR:
; 319  : 				case GRAPH_SELLBYHORIZONTALBAR:
; 320  : 					return CBaseData::DT_SPECIAL_TYPE_E;

  00107	be 1b 00 00 00	 mov	 esi, 27			; 0000001bH
  0010c	eb 21		 jmp	 SHORT $LN42@FindDlgTyp
$LN20@FindDlgTyp:

; 321  : 				// End
; 322  : 
; 323  : 				//[가격이동평균] 설정창 변경
; 324  : 				case GRAPH_PRICE_MA: //이동평균
; 325  : 					return CBaseData::PriceMA;

  0010e	be 0e 00 00 00	 mov	 esi, 14			; 0000000eH
  00113	eb 1a		 jmp	 SHORT $LN42@FindDlgTyp
$LN21@FindDlgTyp:

; 326  : 				
; 327  : 				case GRAPH_VOLUME_MA:
; 328  : 					return CBaseData::MovingAverage;

  00115	be 0d 00 00 00	 mov	 esi, 13			; 0000000dH
  0011a	eb 13		 jmp	 SHORT $LN42@FindDlgTyp
$LN22@FindDlgTyp:

; 329  : 					
; 330  : 				// Sang-Woo, Cho		2005 / 11 / 10
; 331  : 				// 일목균형표 지표 UI 분리
; 332  : 				// Begin
; 333  : 				case GRAPH_GLANCEBALANCE:
; 334  : 					return CBaseData::GLANCEBALANCE;

  0011c	be 11 00 00 00	 mov	 esi, 17			; 00000011H
  00121	eb 0c		 jmp	 SHORT $LN42@FindDlgTyp
$LN23@FindDlgTyp:

; 335  : 				// End
; 336  : 
; 337  : 				// Sang-Woo, Cho		2006 / 05 / 02
; 338  : 				// BinaryWave 설정창 분리
; 339  : 				case GRAPH_BinaryWave:
; 340  : 					return CBaseData::DT_COMMON_TYPE_B;

  00123	be 1d 00 00 00	 mov	 esi, 29			; 0000001dH
  00128	eb 05		 jmp	 SHORT $LN42@FindDlgTyp
$LN24@FindDlgTyp:

; 341  : 
; 342  : 				default:
; 343  : 					return CBaseData::DT_COMMON_TYPE_A;

  0012a	be 1c 00 00 00	 mov	 esi, 28			; 0000001cH
$LN42@FindDlgTyp:

; 351  : 
; 352  : 	return CBaseData::OneSub_NoCondition;

  0012f	8d 4d ec	 lea	 ecx, DWORD PTR _GraphName$[ebp]
  00132	ff 15 00 00 00
	00		 call	 DWORD PTR __imp_??1?$CStringT@DV?$StrTraitMFC_DLL@DV?$ChTraitsCRT@D@ATL@@@@@ATL@@QAE@XZ
  00138	8b c6		 mov	 eax, esi

; 353  : }

  0013a	8b 4d f4	 mov	 ecx, DWORD PTR __$EHRec$[ebp]
  0013d	64 89 0d 00 00
	00 00		 mov	 DWORD PTR fs:0, ecx
  00144	59		 pop	 ecx
  00145	5f		 pop	 edi
  00146	5e		 pop	 esi
  00147	8b e5		 mov	 esp, ebp
  00149	5d		 pop	 ebp
  0014a	c3		 ret	 0
  0014b	90		 npad	 1
$LN53@FindDlgTyp:
  0014c	00 00 00 00	 DD	 $LN8@FindDlgTyp
  00150	00 00 00 00	 DD	 $LN9@FindDlgTyp
  00154	00 00 00 00	 DD	 $LN20@FindDlgTyp
  00158	00 00 00 00	 DD	 $LN21@FindDlgTyp
  0015c	00 00 00 00	 DD	 $LN18@FindDlgTyp
  00160	00 00 00 00	 DD	 $LN22@FindDlgTyp
  00164	00 00 00 00	 DD	 $LN10@FindDlgTyp
  00168	00 00 00 00	 DD	 $LN11@FindDlgTyp
  0016c	00 00 00 00	 DD	 $LN17@FindDlgTyp
  00170	00 00 00 00	 DD	 $LN23@FindDlgTyp
  00174	00 00 00 00	 DD	 $LN13@FindDlgTyp
  00178	00 00 00 00	 DD	 $LN15@FindDlgTyp
  0017c	00 00 00 00	 DD	 $LN24@FindDlgTyp
$LN52@FindDlgTyp:
  00180	00		 DB	 0
  00181	01		 DB	 1
  00182	02		 DB	 2
  00183	03		 DB	 3
  00184	04		 DB	 4
  00185	0c		 DB	 12			; 0000000cH
  00186	05		 DB	 5
  00187	0c		 DB	 12			; 0000000cH
  00188	0c		 DB	 12			; 0000000cH
  00189	0c		 DB	 12			; 0000000cH
  0018a	0c		 DB	 12			; 0000000cH
  0018b	0c		 DB	 12			; 0000000cH
  0018c	0c		 DB	 12			; 0000000cH
  0018d	0c		 DB	 12			; 0000000cH
  0018e	0c		 DB	 12			; 0000000cH
  0018f	0c		 DB	 12			; 0000000cH
  00190	0c		 DB	 12			; 0000000cH
  00191	0c		 DB	 12			; 0000000cH
  00192	0c		 DB	 12			; 0000000cH
  00193	0c		 DB	 12			; 0000000cH
  00194	0c		 DB	 12			; 0000000cH
  00195	06		 DB	 6
  00196	0c		 DB	 12			; 0000000cH
  00197	0c		 DB	 12			; 0000000cH
  00198	0c		 DB	 12			; 0000000cH
  00199	0c		 DB	 12			; 0000000cH
  0019a	0c		 DB	 12			; 0000000cH
  0019b	0c		 DB	 12			; 0000000cH
  0019c	0c		 DB	 12			; 0000000cH
  0019d	0c		 DB	 12			; 0000000cH
  0019e	0c		 DB	 12			; 0000000cH
  0019f	0c		 DB	 12			; 0000000cH
  001a0	0c		 DB	 12			; 0000000cH
  001a1	0c		 DB	 12			; 0000000cH
  001a2	0c		 DB	 12			; 0000000cH
  001a3	0c		 DB	 12			; 0000000cH
  001a4	0c		 DB	 12			; 0000000cH
  001a5	0c		 DB	 12			; 0000000cH
  001a6	0c		 DB	 12			; 0000000cH
  001a7	0c		 DB	 12			; 0000000cH
  001a8	0c		 DB	 12			; 0000000cH
  001a9	0c		 DB	 12			; 0000000cH
  001aa	0c		 DB	 12			; 0000000cH
  001ab	0c		 DB	 12			; 0000000cH
  001ac	0c		 DB	 12			; 0000000cH
  001ad	0c		 DB	 12			; 0000000cH
  001ae	0c		 DB	 12			; 0000000cH
  001af	0c		 DB	 12			; 0000000cH
  001b0	0c		 DB	 12			; 0000000cH
  001b1	07		 DB	 7
  001b2	08		 DB	 8
  001b3	07		 DB	 7
  001b4	0c		 DB	 12			; 0000000cH
  001b5	0c		 DB	 12			; 0000000cH
  001b6	0c		 DB	 12			; 0000000cH
  001b7	0c		 DB	 12			; 0000000cH
  001b8	0c		 DB	 12			; 0000000cH
  001b9	0c		 DB	 12			; 0000000cH
  001ba	0c		 DB	 12			; 0000000cH
  001bb	0c		 DB	 12			; 0000000cH
  001bc	0c		 DB	 12			; 0000000cH
  001bd	0c		 DB	 12			; 0000000cH
  001be	0c		 DB	 12			; 0000000cH
  001bf	0c		 DB	 12			; 0000000cH
  001c0	0c		 DB	 12			; 0000000cH
  001c1	0c		 DB	 12			; 0000000cH
  001c2	0c		 DB	 12			; 0000000cH
  001c3	0c		 DB	 12			; 0000000cH
  001c4	0c		 DB	 12			; 0000000cH
  001c5	0c		 DB	 12			; 0000000cH
  001c6	0c		 DB	 12			; 0000000cH
  001c7	0c		 DB	 12			; 0000000cH
  001c8	0c		 DB	 12			; 0000000cH
  001c9	0c		 DB	 12			; 0000000cH
  001ca	09		 DB	 9
  001cb	0c		 DB	 12			; 0000000cH
  001cc	0c		 DB	 12			; 0000000cH
  001cd	0c		 DB	 12			; 0000000cH
  001ce	0c		 DB	 12			; 0000000cH
  001cf	0c		 DB	 12			; 0000000cH
  001d0	0c		 DB	 12			; 0000000cH
  001d1	0c		 DB	 12			; 0000000cH
  001d2	0c		 DB	 12			; 0000000cH
  001d3	0c		 DB	 12			; 0000000cH
  001d4	0c		 DB	 12			; 0000000cH
  001d5	0c		 DB	 12			; 0000000cH
  001d6	0c		 DB	 12			; 0000000cH
  001d7	0c		 DB	 12			; 0000000cH
  001d8	0c		 DB	 12			; 0000000cH
  001d9	0c		 DB	 12			; 0000000cH
  001da	0c		 DB	 12			; 0000000cH
  001db	0c		 DB	 12			; 0000000cH
  001dc	0c		 DB	 12			; 0000000cH
  001dd	0c		 DB	 12			; 0000000cH
  001de	0a		 DB	 10			; 0000000aH
  001df	0a		 DB	 10			; 0000000aH
  001e0	0b		 DB	 11			; 0000000bH
  001e1	0b		 DB	 11			; 0000000bH
  001e2	0c		 DB	 12			; 0000000cH
  001e3	0c		 DB	 12			; 0000000cH
  001e4	0c		 DB	 12			; 0000000cH
  001e5	0c		 DB	 12			; 0000000cH
  001e6	0c		 DB	 12			; 0000000cH
  001e7	0c		 DB	 12			; 0000000cH
  001e8	0c		 DB	 12			; 0000000cH
  001e9	0c		 DB	 12			; 0000000cH
  001ea	0c		 DB	 12			; 0000000cH
  001eb	0c		 DB	 12			; 0000000cH
  001ec	0c		 DB	 12			; 0000000cH
  001ed	0c		 DB	 12			; 0000000cH
  001ee	0c		 DB	 12			; 0000000cH
  001ef	0c		 DB	 12			; 0000000cH
  001f0	0c		 DB	 12			; 0000000cH
  001f1	0c		 DB	 12			; 0000000cH
  001f2	0c		 DB	 12			; 0000000cH
  001f3	0c		 DB	 12			; 0000000cH
  001f4	0c		 DB	 12			; 0000000cH
  001f5	0c		 DB	 12			; 0000000cH
  001f6	0c		 DB	 12			; 0000000cH
  001f7	0c		 DB	 12			; 0000000cH
  001f8	0c		 DB	 12			; 0000000cH
  001f9	0c		 DB	 12			; 0000000cH
  001fa	0c		 DB	 12			; 0000000cH
  001fb	0c		 DB	 12			; 0000000cH
  001fc	0c		 DB	 12			; 0000000cH
  001fd	0c		 DB	 12			; 0000000cH
  001fe	0c		 DB	 12			; 0000000cH
  001ff	0c		 DB	 12			; 0000000cH
  00200	0c		 DB	 12			; 0000000cH
  00201	0c		 DB	 12			; 0000000cH
  00202	0c		 DB	 12			; 0000000cH
  00203	0c		 DB	 12			; 0000000cH
  00204	0c		 DB	 12			; 0000000cH
  00205	0c		 DB	 12			; 0000000cH
  00206	0c		 DB	 12			; 0000000cH
  00207	0c		 DB	 12			; 0000000cH
  00208	0c		 DB	 12			; 0000000cH
  00209	0c		 DB	 12			; 0000000cH
  0020a	0c		 DB	 12			; 0000000cH
  0020b	0c		 DB	 12			; 0000000cH
  0020c	0c		 DB	 12			; 0000000cH
  0020d	0c		 DB	 12			; 0000000cH
  0020e	0c		 DB	 12			; 0000000cH
  0020f	0c		 DB	 12			; 0000000cH
  00210	0c		 DB	 12			; 0000000cH
  00211	0c		 DB	 12			; 0000000cH
  00212	0c		 DB	 12			; 0000000cH
  00213	0c		 DB	 12			; 0000000cH
  00214	0c		 DB	 12			; 0000000cH
  00215	0c		 DB	 12			; 0000000cH
  00216	0c		 DB	 12			; 0000000cH
  00217	0c		 DB	 12			; 0000000cH
  00218	0c		 DB	 12			; 0000000cH
  00219	0c		 DB	 12			; 0000000cH
  0021a	0c		 DB	 12			; 0000000cH
  0021b	0c		 DB	 12			; 0000000cH
  0021c	0c		 DB	 12			; 0000000cH
  0021d	0c		 DB	 12			; 0000000cH
  0021e	0c		 DB	 12			; 0000000cH
  0021f	0c		 DB	 12			; 0000000cH
  00220	0c		 DB	 12			; 0000000cH
  00221	0c		 DB	 12			; 0000000cH
  00222	0c		 DB	 12			; 0000000cH
  00223	0c		 DB	 12			; 0000000cH
  00224	0c		 DB	 12			; 0000000cH
  00225	0c		 DB	 12			; 0000000cH
  00226	0c		 DB	 12			; 0000000cH
  00227	0c		 DB	 12			; 0000000cH
  00228	0c		 DB	 12			; 0000000cH
  00229	0c		 DB	 12			; 0000000cH
  0022a	0c		 DB	 12			; 0000000cH
  0022b	04		 DB	 4
_TEXT	ENDS
;	COMDAT text$x
text$x	SEGMENT
__unwindfunclet$?FindDlgType@CFindType@@SA?AW4DLGTYPE@CBaseData@@PBD@Z$0:
  00000	8d 4d f0	 lea	 ecx, DWORD PTR $T2[ebp]
  00003	ff 25 00 00 00
	00		 jmp	 DWORD PTR __imp_??1?$CStringT@DV?$StrTraitMFC_DLL@DV?$ChTraitsCRT@D@ATL@@@@@ATL@@QAE@XZ
__unwindfunclet$?FindDlgType@CFindType@@SA?AW4DLGTYPE@CBaseData@@PBD@Z$1:
  00009	8d 4d ec	 lea	 ecx, DWORD PTR _GraphName$[ebp]
  0000c	ff 25 00 00 00
	00		 jmp	 DWORD PTR __imp_??1?$CStringT@DV?$StrTraitMFC_DLL@DV?$ChTraitsCRT@D@ATL@@@@@ATL@@QAE@XZ
  00012	cc		 int	 3
  00013	cc		 int	 3
  00014	cc		 int	 3
  00015	cc		 int	 3
  00016	cc		 int	 3
__ehhandler$?FindDlgType@CFindType@@SA?AW4DLGTYPE@CBaseData@@PBD@Z:
  00017	90		 npad	 1
  00018	90		 npad	 1
  00019	8b 54 24 08	 mov	 edx, DWORD PTR [esp+8]
  0001d	8d 42 0c	 lea	 eax, DWORD PTR [edx+12]
  00020	8b 4a ec	 mov	 ecx, DWORD PTR [edx-20]
  00023	33 c8		 xor	 ecx, eax
  00025	e8 00 00 00 00	 call	 @__security_check_cookie@4
  0002a	b8 00 00 00 00	 mov	 eax, OFFSET __ehfuncinfo$?FindDlgType@CFindType@@SA?AW4DLGTYPE@CBaseData@@PBD@Z
  0002f	e9 00 00 00 00	 jmp	 ___CxxFrameHandler3
text$x	ENDS
?FindDlgType@CFindType@@SA?AW4DLGTYPE@CBaseData@@PBD@Z ENDP ; CFindType::FindDlgType
; Function compile flags: /Ogtp
; File D:\git\src\IBK\IBK_DRFN\ProjSrc\SrcChartEx\ChartAddIn\ChartEnvSetupDlgAddIn\ChartEnvSetupDlgAddIn\FindType.cpp
;	COMDAT ?FindTabItemText@CFindType@@SA?AW4TABITEMTYPE@CBaseData@@PBD@Z
_TEXT	SEGMENT
_GraphName$ = -20					; size = 4
$T2 = -16						; size = 4
__$EHRec$ = -12						; size = 12
_p_szIndicatorName$ = 8					; size = 4
?FindTabItemText@CFindType@@SA?AW4TABITEMTYPE@CBaseData@@PBD@Z PROC ; CFindType::FindTabItemText, COMDAT

; 151  : {

  00000	55		 push	 ebp
  00001	8b ec		 mov	 ebp, esp
  00003	6a ff		 push	 -1
  00005	68 00 00 00 00	 push	 __ehhandler$?FindTabItemText@CFindType@@SA?AW4TABITEMTYPE@CBaseData@@PBD@Z
  0000a	64 a1 00 00 00
	00		 mov	 eax, DWORD PTR fs:0
  00010	50		 push	 eax
  00011	83 ec 08	 sub	 esp, 8
  00014	56		 push	 esi
  00015	a1 00 00 00 00	 mov	 eax, DWORD PTR ___security_cookie
  0001a	33 c5		 xor	 eax, ebp
  0001c	50		 push	 eax
  0001d	8d 45 f4	 lea	 eax, DWORD PTR __$EHRec$[ebp]
  00020	64 a3 00 00 00
	00		 mov	 DWORD PTR fs:0, eax

; 152  : 	CString GraphName = FindStochastics( p_szIndicatorName);

  00026	ff 75 08	 push	 DWORD PTR _p_szIndicatorName$[ebp]
  00029	8d 4d f0	 lea	 ecx, DWORD PTR $T2[ebp]
  0002c	ff 15 00 00 00
	00		 call	 DWORD PTR __imp_??0?$CStringT@DV?$StrTraitMFC_DLL@DV?$ChTraitsCRT@D@ATL@@@@@ATL@@QAE@PBD@Z
  00032	8d 45 f0	 lea	 eax, DWORD PTR $T2[ebp]
  00035	c7 45 fc 00 00
	00 00		 mov	 DWORD PTR __$EHRec$[ebp+8], 0
  0003c	50		 push	 eax
  0003d	8d 45 ec	 lea	 eax, DWORD PTR _GraphName$[ebp]
  00040	50		 push	 eax
  00041	e8 00 00 00 00	 call	 ?FindStochastics@CFindType@@SA?AV?$CStringT@DV?$StrTraitMFC_DLL@DV?$ChTraitsCRT@D@ATL@@@@@ATL@@ABV23@@Z ; CFindType::FindStochastics
  00046	83 c4 08	 add	 esp, 8
  00049	8d 4d f0	 lea	 ecx, DWORD PTR $T2[ebp]
  0004c	c6 45 fc 02	 mov	 BYTE PTR __$EHRec$[ebp+8], 2
  00050	ff 15 00 00 00
	00		 call	 DWORD PTR __imp_??1?$CStringT@DV?$StrTraitMFC_DLL@DV?$ChTraitsCRT@D@ATL@@@@@ATL@@QAE@XZ

; 153  : 	for(int i = 0; i < GRAPH_RAINBOW; i++) {

  00056	33 f6		 xor	 esi, esi
  00058	0f 1f 84 00 00
	00 00 00	 npad	 8
$LL4@FindTabIte:

; 154  : // 2008.01.25 by LYH >>
; 155  : 		//if(GraphName.CompareNoCase( g_szIndicatorNameList[ i]) == 0) {
; 156  : 		if(GraphName.CompareNoCase( _MTEXTN( g_szIndicatorNameList[i]) ) == 0) {

  00060	8b 0c b5 00 00
	00 00		 mov	 ecx, DWORD PTR ?g_szIndicatorNameList@@3PAW4E_METACODE@IMetaTable@@A[esi*4]
  00067	a1 54 00 00 00	 mov	 eax, DWORD PTR ?g_iMetaTable@@3VIMetaTable@@A+84
  0006c	ff 34 88	 push	 DWORD PTR [eax+ecx*4]
  0006f	8d 4d ec	 lea	 ecx, DWORD PTR _GraphName$[ebp]
  00072	ff 15 00 00 00
	00		 call	 DWORD PTR __imp_?CompareNoCase@?$CStringT@DV?$StrTraitMFC_DLL@DV?$ChTraitsCRT@D@ATL@@@@@ATL@@QBEHPBD@Z
  00078	85 c0		 test	 eax, eax
  0007a	75 13		 jne	 SHORT $LN2@FindTabIte

; 157  : // 2008.01.25 by LYH <<
; 158  : 			switch(i){//설정

  0007c	83 fe 61	 cmp	 esi, 97			; 00000061H
  0007f	77 0e		 ja	 SHORT $LN2@FindTabIte
  00081	0f b6 86 00 00
	00 00		 movzx	 eax, BYTE PTR $LN99@FindTabIte[esi]
  00088	ff 24 85 00 00
	00 00		 jmp	 DWORD PTR $LN100@FindTabIte[eax*4]
$LN2@FindTabIte:

; 153  : 	for(int i = 0; i < GRAPH_RAINBOW; i++) {

  0008f	46		 inc	 esi
  00090	83 fe 30	 cmp	 esi, 48			; 00000030H
  00093	7c cb		 jl	 SHORT $LL4@FindTabIte
$LN98@FindTabIte:

; 261  : 			}
; 262  : 		}
; 263  : 	}
; 264  : 	return CBaseData::CONFIGURATION;

  00095	33 f6		 xor	 esi, esi
$LN93@FindTabIte:
  00097	8d 4d ec	 lea	 ecx, DWORD PTR _GraphName$[ebp]
  0009a	ff 15 00 00 00
	00		 call	 DWORD PTR __imp_??1?$CStringT@DV?$StrTraitMFC_DLL@DV?$ChTraitsCRT@D@ATL@@@@@ATL@@QAE@XZ
  000a0	8b c6		 mov	 eax, esi

; 265  : }

  000a2	8b 4d f4	 mov	 ecx, DWORD PTR __$EHRec$[ebp]
  000a5	64 89 0d 00 00
	00 00		 mov	 DWORD PTR fs:0, ecx
  000ac	59		 pop	 ecx
  000ad	5e		 pop	 esi
  000ae	8b e5		 mov	 esp, ebp
  000b0	5d		 pop	 ebp
  000b1	c3		 ret	 0
$LN66@FindTabIte:

; 159  : 				case GRAPH_PRICE: //가격 
; 160  : 				case GRAPH_VOLUME: //거래량
; 161  : 				
; 162  : 				case GRAPH_P_AND_F:
; 163  : 				case GRAPH_RENKO_CHART:
; 164  : // (2006.11.09 안승환) 분산차트 추가
; 165  : 				case GRAPH_DISPERSION_CHART:
; 166  : // (2006.11.09 안승환) 분산차트 추가
; 167  : 
; 168  : 				case GRAPH_THREE_LINE_BREAK:
; 169  : 				case GRAPH_PRICE_MA: //이동평균
; 170  : 				case GRAPH_VOLUME_MA:
; 171  : 				case GRAPH_ENVELOPE: 
; 172  : 				case GRAPH_PARABOLIC: 
; 173  : 				case GRAPH_INVERSE_LINE: 
; 174  : 				case GRAPH_BOLLINGER:
; 175  : 				case GRAPH_RAINBOW:
; 176  : 				case GRAPH_ATR:
; 177  : 				case GRAPH_GLANCEBALANCE: 
; 178  : 				case GRAPH_MACD_OSC:
; 179  : 				case GRAPH_NEGATIVE_VOLUME_INDEX:
; 180  : 				case GRAPH_POSITIVE_VOLUME_INDEX:
; 181  : 				case GRAPH_PIVOT:
; 182  : 				case GRAPH_PRICE_VOLUME_TREND:
; 183  : 				case GRAPH_VOLUME_ROC:
; 184  : 				case GRAPH_ABI:					/// Absolute Breadth Index
; 185  : 				case GRAPH_AD:					/// A/D Line : Accumulation/Distribution
; 186  : 				case GRAPH_STANDARD_DEVIATION:	/// Standard Deviation
; 187  : 				case GRAPH_VHF:					/// Vertical horizontal Filter
; 188  : 				case GRAPH_ZIGZAG:				/// Zig Zag
; 189  : 				case GRAPH_BOXCHART:
; 190  : 				case GRAPH_EMV:					/// Ease Of Movement
; 191  : 				case GRAPH_MAC:
; 192  : 				//case GRAPH_SONAR:
; 193  : 				//case GRAPH_TRIX:
; 194  : 				case GRAPH_OCMA:
; 195  : 				case GRAPH_CO: // CO : Chaikin's Oscillator -> baseLine 이 있지만 셋팅할 필요는 없다.
; 196  : 				case GRAPH_OBV:
; 197  : 				case GRAPH_OSCP:
; 198  : 				case GRAPH_OSCV:
; 199  : 				case GRAPH_RELATIVE_STRENGTH_COMPARATIVE:
; 200  : 				case GRAPH_FOURIER_TRANSFORM: 
; 201  : 				case GRAPH_ADL:					/// Advanced Decline Line
; 202  : 				//case GRAPH_DPO:					/// Detreded Price Oscillator
; 203  : //교보 추가
; 204  : 				case GRAPH_ADX:
; 205  : 				case GRAPH_WEIGHTCLOSE:
; 206  : 				case GRAPH_ChaikinsVolatility:
; 207  : 				case GRAPH_BANDB:
; 208  : 				case GRAPH_BandWidth:
; 209  : 				case GRAPH_BinaryWave:
; 210  : 				case GRAPH_EOM:
; 211  : 				case GRAPH_Demark:
; 212  : 				case GRAPH_WilliamAD:
; 213  : 				case GRAPH_SMI:
; 214  : 				case GRAPH_NCO:
; 215  : 				case GRAPH_Sigma:
; 216  : 				case GRAPH_MaOscillator:
; 217  : 				case GRAPH_TSF:
; 218  : 				case GRAPH_LRS:
; 219  : 				case GRAPH_CLC:
; 220  : 				case GRAPH_TRIN:
; 221  : 				case GRAPH_CMF:
; 222  : 				case GRAPH_IMI:
; 223  : 				case GRAPH_STOCHASTICS_OSCILLATOR:
; 224  : 				//sy 2004.05.12.
; 225  : 				//-> 기존엔 특수차트이 였으나 <가격차트>에 첨부되는 차트로 수정함.
; 226  : 				case GRAPH_HORIZONTALBAR:
; 227  : 					return CBaseData::CONFIGURATION;
; 228  : 				
; 229  : 				//case GRAPH_HORIZONTALBAR: //대기매물
; 230  : 				//	return CBaseData::DAEGI;
; 231  : 				//sy end
; 232  : 				case GRAPH_CCI://설정, 수평선
; 233  : 				case GRAPH_DISPARITY: 
; 234  : 				case GRAPH_PSYCH: 
; 235  : 				case GRAPH_NEWPSYCH:
; 236  : 				case GRAPH_DMI:
; 237  : 				case GRAPH_MFI:
; 238  : 				case GRAPH_MOMENTUM:
; 239  : 				case GRAPH_MI: 
; 240  : 				case GRAPH_RSI:
; 241  : 				case GRAPH_WILLIAM:
; 242  : 				case GRAPH_VR:
; 243  : 				case GRAPH_STOCHASTICS_FAST:
; 244  : 				case GRAPH_STOCHASTICS_SLOW:
; 245  : 				case GRAPH_ROC:
; 246  : 				case GRAPH_AB_RATIO: 
; 247  : 				case GRAPH_ADR:					/// Advanced Decline Ratio
; 248  : 				case GRAPH_BREADTH_THRUST:		/// Breadth Thrust
; 249  : 				case GRAPH_MCCLELLAN_OSCILLATOR:	/// McClellan Oscillator
; 250  : 				case GRAPH_STIX:					/// STIX
; 251  : 				case GRAPH_MACD:
; 252  : 				//sy 2004.2.10
; 253  : 				// 종찬(04/09/22) DPO와 TSI는 매매신호보기가 적용안됨.
; 254  : //				case GRAPH_DPO:					/// Detreded Price Oscillator
; 255  : 				case GRAPH_Energy:
; 256  : 				case GRAPH_SONAR:
; 257  : 				case GRAPH_TRIX:
; 258  : //				case GRAPH_TSI:
; 259  : 				// 04/09/22
; 260  : 					return CBaseData::CONFIGU_HORIZONLINE;

  000b2	be 02 00 00 00	 mov	 esi, 2
  000b7	eb de		 jmp	 SHORT $LN93@FindTabIte
  000b9	0f 1f 00	 npad	 3
$LN100@FindTabIte:

; 265  : }

  000bc	00 00 00 00	 DD	 $LN98@FindTabIte
  000c0	00 00 00 00	 DD	 $LN66@FindTabIte
  000c4	00 00 00 00	 DD	 $LN2@FindTabIte
$LN99@FindTabIte:
  000c8	00		 DB	 0
  000c9	00		 DB	 0
  000ca	00		 DB	 0
  000cb	00		 DB	 0
  000cc	00		 DB	 0
  000cd	01		 DB	 1
  000ce	00		 DB	 0
  000cf	01		 DB	 1
  000d0	01		 DB	 1
  000d1	01		 DB	 1
  000d2	00		 DB	 0
  000d3	00		 DB	 0
  000d4	00		 DB	 0
  000d5	01		 DB	 1
  000d6	00		 DB	 0
  000d7	00		 DB	 0
  000d8	00		 DB	 0
  000d9	01		 DB	 1
  000da	00		 DB	 0
  000db	00		 DB	 0
  000dc	00		 DB	 0
  000dd	00		 DB	 0
  000de	01		 DB	 1
  000df	00		 DB	 0
  000e0	01		 DB	 1
  000e1	01		 DB	 1
  000e2	01		 DB	 1
  000e3	00		 DB	 0
  000e4	00		 DB	 0
  000e5	00		 DB	 0
  000e6	00		 DB	 0
  000e7	00		 DB	 0
  000e8	00		 DB	 0
  000e9	00		 DB	 0
  000ea	00		 DB	 0
  000eb	00		 DB	 0
  000ec	00		 DB	 0
  000ed	01		 DB	 1
  000ee	01		 DB	 1
  000ef	01		 DB	 1
  000f0	01		 DB	 1
  000f1	01		 DB	 1
  000f2	00		 DB	 0
  000f3	00		 DB	 0
  000f4	00		 DB	 0
  000f5	01		 DB	 1
  000f6	01		 DB	 1
  000f7	01		 DB	 1
  000f8	00		 DB	 0
  000f9	00		 DB	 0
  000fa	00		 DB	 0
  000fb	00		 DB	 0
  000fc	02		 DB	 2
  000fd	02		 DB	 2
  000fe	02		 DB	 2
  000ff	02		 DB	 2
  00100	02		 DB	 2
  00101	00		 DB	 0
  00102	00		 DB	 0
  00103	00		 DB	 0
  00104	02		 DB	 2
  00105	00		 DB	 0
  00106	00		 DB	 0
  00107	01		 DB	 1
  00108	01		 DB	 1
  00109	01		 DB	 1
  0010a	00		 DB	 0
  0010b	01		 DB	 1
  0010c	00		 DB	 0
  0010d	00		 DB	 0
  0010e	00		 DB	 0
  0010f	00		 DB	 0
  00110	00		 DB	 0
  00111	00		 DB	 0
  00112	00		 DB	 0
  00113	00		 DB	 0
  00114	00		 DB	 0
  00115	00		 DB	 0
  00116	00		 DB	 0
  00117	02		 DB	 2
  00118	02		 DB	 2
  00119	02		 DB	 2
  0011a	02		 DB	 2
  0011b	01		 DB	 1
  0011c	02		 DB	 2
  0011d	02		 DB	 2
  0011e	02		 DB	 2
  0011f	00		 DB	 0
  00120	00		 DB	 0
  00121	00		 DB	 0
  00122	00		 DB	 0
  00123	00		 DB	 0
  00124	02		 DB	 2
  00125	02		 DB	 2
  00126	02		 DB	 2
  00127	02		 DB	 2
  00128	00		 DB	 0
  00129	00		 DB	 0
_TEXT	ENDS
;	COMDAT text$x
text$x	SEGMENT
__unwindfunclet$?FindTabItemText@CFindType@@SA?AW4TABITEMTYPE@CBaseData@@PBD@Z$0:
  00000	8d 4d f0	 lea	 ecx, DWORD PTR $T2[ebp]
  00003	ff 25 00 00 00
	00		 jmp	 DWORD PTR __imp_??1?$CStringT@DV?$StrTraitMFC_DLL@DV?$ChTraitsCRT@D@ATL@@@@@ATL@@QAE@XZ
__unwindfunclet$?FindTabItemText@CFindType@@SA?AW4TABITEMTYPE@CBaseData@@PBD@Z$1:
  00009	8d 4d ec	 lea	 ecx, DWORD PTR _GraphName$[ebp]
  0000c	ff 25 00 00 00
	00		 jmp	 DWORD PTR __imp_??1?$CStringT@DV?$StrTraitMFC_DLL@DV?$ChTraitsCRT@D@ATL@@@@@ATL@@QAE@XZ
  00012	cc		 int	 3
  00013	cc		 int	 3
  00014	cc		 int	 3
  00015	cc		 int	 3
  00016	cc		 int	 3
__ehhandler$?FindTabItemText@CFindType@@SA?AW4TABITEMTYPE@CBaseData@@PBD@Z:
  00017	90		 npad	 1
  00018	90		 npad	 1
  00019	8b 54 24 08	 mov	 edx, DWORD PTR [esp+8]
  0001d	8d 42 0c	 lea	 eax, DWORD PTR [edx+12]
  00020	8b 4a f0	 mov	 ecx, DWORD PTR [edx-16]
  00023	33 c8		 xor	 ecx, eax
  00025	e8 00 00 00 00	 call	 @__security_check_cookie@4
  0002a	b8 00 00 00 00	 mov	 eax, OFFSET __ehfuncinfo$?FindTabItemText@CFindType@@SA?AW4TABITEMTYPE@CBaseData@@PBD@Z
  0002f	e9 00 00 00 00	 jmp	 ___CxxFrameHandler3
text$x	ENDS
?FindTabItemText@CFindType@@SA?AW4TABITEMTYPE@CBaseData@@PBD@Z ENDP ; CFindType::FindTabItemText
; Function compile flags: /Ogtp
; File D:\git\src\IBK\IBK_DRFN\ProjSrc\SrcChartEx\ChartAddIn\ChartEnvSetupDlgAddIn\ChartEnvSetupDlgAddIn\FindType.cpp
;	COMDAT ?FindColorItemText@CFindType@@SA?AW4COLORLISTITEMTYPE@CBaseData@@PBD@Z
_TEXT	SEGMENT
_GraphName$ = -20					; size = 4
$T2 = -16						; size = 4
__$EHRec$ = -12						; size = 12
_szGraphName$ = 8					; size = 4
?FindColorItemText@CFindType@@SA?AW4COLORLISTITEMTYPE@CBaseData@@PBD@Z PROC ; CFindType::FindColorItemText, COMDAT

; 27   : {

  00000	55		 push	 ebp
  00001	8b ec		 mov	 ebp, esp
  00003	6a ff		 push	 -1
  00005	68 00 00 00 00	 push	 __ehhandler$?FindColorItemText@CFindType@@SA?AW4COLORLISTITEMTYPE@CBaseData@@PBD@Z
  0000a	64 a1 00 00 00
	00		 mov	 eax, DWORD PTR fs:0
  00010	50		 push	 eax
  00011	83 ec 08	 sub	 esp, 8
  00014	56		 push	 esi
  00015	57		 push	 edi
  00016	a1 00 00 00 00	 mov	 eax, DWORD PTR ___security_cookie
  0001b	33 c5		 xor	 eax, ebp
  0001d	50		 push	 eax
  0001e	8d 45 f4	 lea	 eax, DWORD PTR __$EHRec$[ebp]
  00021	64 a3 00 00 00
	00		 mov	 DWORD PTR fs:0, eax

; 28   : 	CString GraphName = FindStochastics( szGraphName);

  00027	8b 7d 08	 mov	 edi, DWORD PTR _szGraphName$[ebp]
  0002a	8d 4d f0	 lea	 ecx, DWORD PTR $T2[ebp]
  0002d	57		 push	 edi
  0002e	ff 15 00 00 00
	00		 call	 DWORD PTR __imp_??0?$CStringT@DV?$StrTraitMFC_DLL@DV?$ChTraitsCRT@D@ATL@@@@@ATL@@QAE@PBD@Z
  00034	8d 45 f0	 lea	 eax, DWORD PTR $T2[ebp]
  00037	c7 45 fc 00 00
	00 00		 mov	 DWORD PTR __$EHRec$[ebp+8], 0
  0003e	50		 push	 eax
  0003f	8d 45 ec	 lea	 eax, DWORD PTR _GraphName$[ebp]
  00042	50		 push	 eax
  00043	e8 00 00 00 00	 call	 ?FindStochastics@CFindType@@SA?AV?$CStringT@DV?$StrTraitMFC_DLL@DV?$ChTraitsCRT@D@ATL@@@@@ATL@@ABV23@@Z ; CFindType::FindStochastics
  00048	83 c4 08	 add	 esp, 8
  0004b	8d 4d f0	 lea	 ecx, DWORD PTR $T2[ebp]
  0004e	c6 45 fc 02	 mov	 BYTE PTR __$EHRec$[ebp+8], 2
  00052	ff 15 00 00 00
	00		 call	 DWORD PTR __imp_??1?$CStringT@DV?$StrTraitMFC_DLL@DV?$ChTraitsCRT@D@ATL@@@@@ATL@@QAE@XZ

; 29   : 	for( int i = 0; i < GRAPH_RAINBOW; i++)

  00058	33 f6		 xor	 esi, esi
  0005a	66 0f 1f 44 00
	00		 npad	 6
$LL4@FindColorI:

; 30   : 	{
; 31   : // 2008.01.25 by LYH >>
; 32   : 		if(GraphName.CompareNoCase( _MTEXTN( g_szIndicatorNameList[i])) == 0)

  00060	8b 0c b5 00 00
	00 00		 mov	 ecx, DWORD PTR ?g_szIndicatorNameList@@3PAW4E_METACODE@IMetaTable@@A[esi*4]
  00067	a1 54 00 00 00	 mov	 eax, DWORD PTR ?g_iMetaTable@@3VIMetaTable@@A+84
  0006c	ff 34 88	 push	 DWORD PTR [eax+ecx*4]
  0006f	8d 4d ec	 lea	 ecx, DWORD PTR _GraphName$[ebp]
  00072	ff 15 00 00 00
	00		 call	 DWORD PTR __imp_?CompareNoCase@?$CStringT@DV?$StrTraitMFC_DLL@DV?$ChTraitsCRT@D@ATL@@@@@ATL@@QBEHPBD@Z
  00078	85 c0		 test	 eax, eax
  0007a	75 13		 jne	 SHORT $LN2@FindColorI

; 33   : // 2008.01.25 by LYH <<
; 34   : 		{
; 35   : 			switch(i)

  0007c	83 fe 5b	 cmp	 esi, 91			; 0000005bH
  0007f	77 0e		 ja	 SHORT $LN2@FindColorI
  00081	0f b6 86 00 00
	00 00		 movzx	 eax, BYTE PTR $LN104@FindColorI[esi]
  00088	ff 24 85 00 00
	00 00		 jmp	 DWORD PTR $LN105@FindColorI[eax*4]
$LN2@FindColorI:

; 29   : 	for( int i = 0; i < GRAPH_RAINBOW; i++)

  0008f	46		 inc	 esi
  00090	83 fe 30	 cmp	 esi, 48			; 00000030H
  00093	7c cb		 jl	 SHORT $LL4@FindColorI

; 139  : 			}
; 140  : 		}
; 141  : 	}
; 142  : 
; 143  : 	//지표설정중 <거래대금>을 <거래량차트>과 같이 하기위해
; 144  : 	//SK에서 만 사용하기때문에 예외처리함.
; 145  : 	if( !strcmp( szGraphName, _MTEXT( C2_VOLUME_AMOUNT ))) return CBaseData::VOLUME;

  00095	a1 54 00 00 00	 mov	 eax, DWORD PTR ?g_iMetaTable@@3VIMetaTable@@A+84
  0009a	8b 80 a0 04 00
	00		 mov	 eax, DWORD PTR [eax+1184]
$LL106@FindColorI:
  000a0	8a 0f		 mov	 cl, BYTE PTR [edi]
  000a2	3a 08		 cmp	 cl, BYTE PTR [eax]
  000a4	75 67		 jne	 SHORT $LN107@FindColorI
  000a6	84 c9		 test	 cl, cl
  000a8	74 12		 je	 SHORT $LN108@FindColorI
  000aa	8a 4f 01	 mov	 cl, BYTE PTR [edi+1]
  000ad	3a 48 01	 cmp	 cl, BYTE PTR [eax+1]
  000b0	75 5b		 jne	 SHORT $LN107@FindColorI
  000b2	83 c7 02	 add	 edi, 2
  000b5	83 c0 02	 add	 eax, 2
  000b8	84 c9		 test	 cl, cl
  000ba	75 e4		 jne	 SHORT $LL106@FindColorI
$LN108@FindColorI:
  000bc	33 c0		 xor	 eax, eax
  000be	eb 52		 jmp	 SHORT $LN109@FindColorI
$LN8@FindColorI:
  000c0	be 01 00 00 00	 mov	 esi, 1
  000c5	eb 58		 jmp	 SHORT $LN98@FindColorI
$LN10@FindColorI:

; 36   : 			{
; 37   : 				case GRAPH_PRICE: //가격
; 38   : 					return CBaseData::PRICE;
; 39   : 		
; 40   : 				case GRAPH_VOLUME: //거래량
; 41   : 					return CBaseData::VOLUME;
; 42   : 				
; 43   : 				case GRAPH_P_AND_F: //상승, 하락
; 44   : 				case GRAPH_THREE_LINE_BREAK:
; 45   : 				case GRAPH_PARABOLIC: 
; 46   : 				case GRAPH_BOXCHART:
; 47   : 					return CBaseData::UP_DOWN;

  000c7	be 03 00 00 00	 mov	 esi, 3
  000cc	eb 51		 jmp	 SHORT $LN98@FindColorI
$LN14@FindColorI:

; 48   : 				
; 49   : 				case GRAPH_HORIZONTALBAR:  //대기매물
; 50   : 					return CBaseData::DAEGIMEMUL;

  000ce	be 04 00 00 00	 mov	 esi, 4
  000d3	eb 4a		 jmp	 SHORT $LN98@FindColorI
$LN15@FindColorI:

; 51   : 				case GRAPH_INVERSE_LINE: //지표
; 52   : 					return CBaseData::INVERSELINE;

  000d5	be 0a 00 00 00	 mov	 esi, 10			; 0000000aH
  000da	eb 43		 jmp	 SHORT $LN98@FindColorI
$LN16@FindColorI:

; 53   : 				
; 54   : 				case GRAPH_MACD:
; 55   : 					return CBaseData::MACD;

  000dc	be 0b 00 00 00	 mov	 esi, 11			; 0000000bH
  000e1	eb 3c		 jmp	 SHORT $LN98@FindColorI
$LN17@FindColorI:

; 56   : 				
; 57   : 				case GRAPH_PIVOT:
; 58   : 					return CBaseData::PIVOT;

  000e3	be 0c 00 00 00	 mov	 esi, 12			; 0000000cH
  000e8	eb 35		 jmp	 SHORT $LN98@FindColorI
$LN18@FindColorI:

; 59   : 				
; 60   : 				case GRAPH_BOLLINGER:
; 61   : 				case GRAPH_ENVELOPE: 
; 62   : 				case GRAPH_MAC:
; 63   : 				case GRAPH_MFI:
; 64   : 				case GRAPH_MOMENTUM:
; 65   : 				case GRAPH_MI: 
; 66   : 				case GRAPH_OBV:
; 67   : 				//case GRAPH_NEGATIVE_VOLUME_INDEX:
; 68   : 				//case GRAPH_POSITIVE_VOLUME_INDEX:
; 69   : 				case GRAPH_OCMA:
; 70   : 				case GRAPH_RSI:
; 71   : //				case GRAPH_PSYCH:		// 종찬(04/10/04) 선형;채움식; 수정
; 72   : //				case GRAPH_NEWPSYCH:	// 종찬(04/10/04) 선형;채움식; 수정
; 73   : //				case GRAPH_CCI:			// 종찬(04/10/04) 선형;채움식; 수정
; 74   : 				case GRAPH_EOM:
; 75   : 				case GRAPH_SONAR:
; 76   : 				case GRAPH_WILLIAM:
; 77   : 				case GRAPH_OSCP:
; 78   : 				case GRAPH_VR:
; 79   : 				case GRAPH_STOCHASTICS_FAST:
; 80   : 				case GRAPH_STOCHASTICS_SLOW:
; 81   : 				case GRAPH_TRIX:	
; 82   : //
; 83   : 				case GRAPH_ATR:
; 84   : 				case GRAPH_ROC:
; 85   : 				case GRAPH_VOLUME_ROC:
; 86   : 				case GRAPH_AB_RATIO: 
; 87   : 				case GRAPH_RELATIVE_STRENGTH_COMPARATIVE:
; 88   : 				case GRAPH_FOURIER_TRANSFORM: 
; 89   : 				case GRAPH_PRICE_VOLUME_TREND:
; 90   : 				case GRAPH_DMI:
; 91   : 				case GRAPH_EMV:					/// Ease Of Movement
; 92   : 				case GRAPH_ADX:
; 93   : 				case GRAPH_WEIGHTCLOSE:
; 94   : 				case GRAPH_ChaikinsVolatility:
; 95   : 				case GRAPH_BANDB:
; 96   : 				case GRAPH_BandWidth:
; 97   : 				case GRAPH_BinaryWave:
; 98   : 				case GRAPH_Demark:
; 99   : 				case GRAPH_WilliamAD:
; 100  : 				case GRAPH_SMI:
; 101  : 				case GRAPH_NCO:
; 102  : 				case GRAPH_Sigma:
; 103  : 				case GRAPH_TSF:
; 104  : 				case GRAPH_LRS:
; 105  : 				case GRAPH_CLC:
; 106  : 				case GRAPH_TRIN:
; 107  : 				case GRAPH_CMF:
; 108  : 				case GRAPH_IMI:
; 109  : 				case GRAPH_STOCHASTICS_OSCILLATOR:
; 110  : 				case GRAPH_AD:	/// A/D Line : Accumulation/Distribution
; 111  : 				case GRAPH_Energy:
; 112  : 				case GRAPH_NEGATIVE_VOLUME_INDEX: // NVI
; 113  : 				case GRAPH_POSITIVE_VOLUME_INDEX: // PVI
; 114  : 					return CBaseData::SUBGRAPHNAME;

  000ea	be 06 00 00 00	 mov	 esi, 6
  000ef	eb 2e		 jmp	 SHORT $LN98@FindColorI
$LN66@FindColorI:

; 115  : 
; 116  : 				//case GRAPH_AD:					/// A/D Line : Accumulation/Distribution
; 117  : 				case GRAPH_ZIGZAG:				/// Zig Zag
; 118  : 				case GRAPH_DPO:					/// Detreded Price Oscillator
; 119  : 				case GRAPH_ABI:					/// Absolute Breadth Index
; 120  : 				case GRAPH_ADL:					/// Advanced Decline Line
; 121  : 				case GRAPH_ADR:					/// Advanced Decline Ratio
; 122  : 				case GRAPH_BREADTH_THRUST:		/// Breadth Thrust
; 123  : 				case GRAPH_MCCLELLAN_OSCILLATOR:/// McClellan Oscillator
; 124  : 				case GRAPH_STANDARD_DEVIATION:	/// Standard Deviation
; 125  : 				case GRAPH_STIX:				/// STIX
; 126  : 				case GRAPH_VHF:					/// Vertical horizontal Filter
; 127  : 				case GRAPH_CO:
; 128  : 					return CBaseData::COLOR;

  000f1	be 05 00 00 00	 mov	 esi, 5
  000f6	eb 27		 jmp	 SHORT $LN98@FindColorI
$LN77@FindColorI:

; 129  : 
; 130  : 				//case GRAPH_CO:
; 131  : 				case GRAPH_MACD_OSC:
; 132  : 				case GRAPH_OSCV:
; 133  : 				case GRAPH_MaOscillator: 
; 134  : 					return CBaseData::SUB_UPFILL_DOWNFILL;  

  000f8	be 08 00 00 00	 mov	 esi, 8
  000fd	eb 20		 jmp	 SHORT $LN98@FindColorI
$LN80@FindColorI:

; 135  : 				case GRAPH_RAINBOW: 
; 136  : 					return CBaseData::RAINBOW; //시작색상, 종료색상

  000ff	be 07 00 00 00	 mov	 esi, 7
  00104	eb 19		 jmp	 SHORT $LN98@FindColorI
$LN81@FindColorI:

; 137  : 				case GRAPH_GLANCEBALANCE:  //일목균형
; 138  : 						return CBaseData::GLANCEBLANCE;

  00106	be 09 00 00 00	 mov	 esi, 9
  0010b	eb 12		 jmp	 SHORT $LN98@FindColorI
$LN107@FindColorI:

; 139  : 			}
; 140  : 		}
; 141  : 	}
; 142  : 
; 143  : 	//지표설정중 <거래대금>을 <거래량차트>과 같이 하기위해
; 144  : 	//SK에서 만 사용하기때문에 예외처리함.
; 145  : 	if( !strcmp( szGraphName, _MTEXT( C2_VOLUME_AMOUNT ))) return CBaseData::VOLUME;

  0010d	1b c0		 sbb	 eax, eax
  0010f	83 c8 01	 or	 eax, 1
$LN109@FindColorI:
  00112	85 c0		 test	 eax, eax
  00114	75 07		 jne	 SHORT $LN82@FindColorI
$LN9@FindColorI:

; 146  : 
; 147  : 	return CBaseData::NONE;

  00116	be 02 00 00 00	 mov	 esi, 2
  0011b	eb 02		 jmp	 SHORT $LN98@FindColorI
$LN82@FindColorI:
  0011d	33 f6		 xor	 esi, esi
$LN98@FindColorI:
  0011f	8d 4d ec	 lea	 ecx, DWORD PTR _GraphName$[ebp]
  00122	ff 15 00 00 00
	00		 call	 DWORD PTR __imp_??1?$CStringT@DV?$StrTraitMFC_DLL@DV?$ChTraitsCRT@D@ATL@@@@@ATL@@QAE@XZ
  00128	8b c6		 mov	 eax, esi

; 148  : }

  0012a	8b 4d f4	 mov	 ecx, DWORD PTR __$EHRec$[ebp]
  0012d	64 89 0d 00 00
	00 00		 mov	 DWORD PTR fs:0, ecx
  00134	59		 pop	 ecx
  00135	5f		 pop	 edi
  00136	5e		 pop	 esi
  00137	8b e5		 mov	 esp, ebp
  00139	5d		 pop	 ebp
  0013a	c3		 ret	 0
  0013b	90		 npad	 1
$LN105@FindColorI:
  0013c	00 00 00 00	 DD	 $LN8@FindColorI
  00140	00 00 00 00	 DD	 $LN9@FindColorI
  00144	00 00 00 00	 DD	 $LN14@FindColorI
  00148	00 00 00 00	 DD	 $LN81@FindColorI
  0014c	00 00 00 00	 DD	 $LN18@FindColorI
  00150	00 00 00 00	 DD	 $LN10@FindColorI
  00154	00 00 00 00	 DD	 $LN66@FindColorI
  00158	00 00 00 00	 DD	 $LN16@FindColorI
  0015c	00 00 00 00	 DD	 $LN77@FindColorI
  00160	00 00 00 00	 DD	 $LN17@FindColorI
  00164	00 00 00 00	 DD	 $LN80@FindColorI
  00168	00 00 00 00	 DD	 $LN15@FindColorI
  0016c	00 00 00 00	 DD	 $LN2@FindColorI
$LN104@FindColorI:
  00170	00		 DB	 0
  00171	01		 DB	 1
  00172	0c		 DB	 12			; 0000000cH
  00173	0c		 DB	 12			; 0000000cH
  00174	02		 DB	 2
  00175	0c		 DB	 12			; 0000000cH
  00176	03		 DB	 3
  00177	0c		 DB	 12			; 0000000cH
  00178	0c		 DB	 12			; 0000000cH
  00179	04		 DB	 4
  0017a	04		 DB	 4
  0017b	04		 DB	 4
  0017c	05		 DB	 5
  0017d	0c		 DB	 12			; 0000000cH
  0017e	04		 DB	 4
  0017f	04		 DB	 4
  00180	06		 DB	 6
  00181	04		 DB	 4
  00182	04		 DB	 4
  00183	04		 DB	 4
  00184	04		 DB	 4
  00185	04		 DB	 4
  00186	07		 DB	 7
  00187	08		 DB	 8
  00188	04		 DB	 4
  00189	04		 DB	 4
  0018a	04		 DB	 4
  0018b	04		 DB	 4
  0018c	04		 DB	 4
  0018d	04		 DB	 4
  0018e	08		 DB	 8
  0018f	05		 DB	 5
  00190	09		 DB	 9
  00191	04		 DB	 4
  00192	04		 DB	 4
  00193	04		 DB	 4
  00194	04		 DB	 4
  00195	04		 DB	 4
  00196	04		 DB	 4
  00197	04		 DB	 4
  00198	04		 DB	 4
  00199	04		 DB	 4
  0019a	04		 DB	 4
  0019b	04		 DB	 4
  0019c	04		 DB	 4
  0019d	04		 DB	 4
  0019e	04		 DB	 4
  0019f	04		 DB	 4
  001a0	0a		 DB	 10			; 0000000aH
  001a1	05		 DB	 5
  001a2	0b		 DB	 11			; 0000000bH
  001a3	05		 DB	 5
  001a4	0c		 DB	 12			; 0000000cH
  001a5	0c		 DB	 12			; 0000000cH
  001a6	0c		 DB	 12			; 0000000cH
  001a7	0c		 DB	 12			; 0000000cH
  001a8	0c		 DB	 12			; 0000000cH
  001a9	04		 DB	 4
  001aa	06		 DB	 6
  001ab	04		 DB	 4
  001ac	06		 DB	 6
  001ad	06		 DB	 6
  001ae	06		 DB	 6
  001af	06		 DB	 6
  001b0	06		 DB	 6
  001b1	06		 DB	 6
  001b2	06		 DB	 6
  001b3	06		 DB	 6
  001b4	06		 DB	 6
  001b5	04		 DB	 4
  001b6	04		 DB	 4
  001b7	04		 DB	 4
  001b8	04		 DB	 4
  001b9	04		 DB	 4
  001ba	04		 DB	 4
  001bb	04		 DB	 4
  001bc	04		 DB	 4
  001bd	04		 DB	 4
  001be	04		 DB	 4
  001bf	0c		 DB	 12			; 0000000cH
  001c0	0c		 DB	 12			; 0000000cH
  001c1	0c		 DB	 12			; 0000000cH
  001c2	0c		 DB	 12			; 0000000cH
  001c3	04		 DB	 4
  001c4	0c		 DB	 12			; 0000000cH
  001c5	0c		 DB	 12			; 0000000cH
  001c6	0c		 DB	 12			; 0000000cH
  001c7	04		 DB	 4
  001c8	04		 DB	 4
  001c9	08		 DB	 8
  001ca	04		 DB	 4
  001cb	04		 DB	 4
_TEXT	ENDS
;	COMDAT text$x
text$x	SEGMENT
__unwindfunclet$?FindColorItemText@CFindType@@SA?AW4COLORLISTITEMTYPE@CBaseData@@PBD@Z$0:
  00000	8d 4d f0	 lea	 ecx, DWORD PTR $T2[ebp]
  00003	ff 25 00 00 00
	00		 jmp	 DWORD PTR __imp_??1?$CStringT@DV?$StrTraitMFC_DLL@DV?$ChTraitsCRT@D@ATL@@@@@ATL@@QAE@XZ
__unwindfunclet$?FindColorItemText@CFindType@@SA?AW4COLORLISTITEMTYPE@CBaseData@@PBD@Z$1:
  00009	8d 4d ec	 lea	 ecx, DWORD PTR _GraphName$[ebp]
  0000c	ff 25 00 00 00
	00		 jmp	 DWORD PTR __imp_??1?$CStringT@DV?$StrTraitMFC_DLL@DV?$ChTraitsCRT@D@ATL@@@@@ATL@@QAE@XZ
  00012	cc		 int	 3
  00013	cc		 int	 3
  00014	cc		 int	 3
  00015	cc		 int	 3
  00016	cc		 int	 3
__ehhandler$?FindColorItemText@CFindType@@SA?AW4COLORLISTITEMTYPE@CBaseData@@PBD@Z:
  00017	90		 npad	 1
  00018	90		 npad	 1
  00019	8b 54 24 08	 mov	 edx, DWORD PTR [esp+8]
  0001d	8d 42 0c	 lea	 eax, DWORD PTR [edx+12]
  00020	8b 4a ec	 mov	 ecx, DWORD PTR [edx-20]
  00023	33 c8		 xor	 ecx, eax
  00025	e8 00 00 00 00	 call	 @__security_check_cookie@4
  0002a	b8 00 00 00 00	 mov	 eax, OFFSET __ehfuncinfo$?FindColorItemText@CFindType@@SA?AW4COLORLISTITEMTYPE@CBaseData@@PBD@Z
  0002f	e9 00 00 00 00	 jmp	 ___CxxFrameHandler3
text$x	ENDS
?FindColorItemText@CFindType@@SA?AW4COLORLISTITEMTYPE@CBaseData@@PBD@Z ENDP ; CFindType::FindColorItemText
; Function compile flags: /Ogtp
; File D:\git\src\IBK\IBK_DRFN\ProjSrc\SrcChartEx\ChartAddIn\ChartEnvSetupDlgAddIn\ChartEnvSetupDlgAddIn\FindType.cpp
;	COMDAT ?FindDrawPositionType@CFindType@@SA?AW4DRAWPOSITIONTYPE@CBaseData@@ABV?$CStringT@DV?$StrTraitMFC_DLL@DV?$ChTraitsCRT@D@ATL@@@@@ATL@@@Z
_TEXT	SEGMENT
$T2 = -20						; size = 4
_GraphName$ = -16					; size = 4
__$EHRec$ = -12						; size = 12
_strGraphName$ = 8					; size = 4
?FindDrawPositionType@CFindType@@SA?AW4DRAWPOSITIONTYPE@CBaseData@@ABV?$CStringT@DV?$StrTraitMFC_DLL@DV?$ChTraitsCRT@D@ATL@@@@@ATL@@@Z PROC ; CFindType::FindDrawPositionType, COMDAT

; 488  : {

  00000	55		 push	 ebp
  00001	8b ec		 mov	 ebp, esp
  00003	6a ff		 push	 -1
  00005	68 00 00 00 00	 push	 __ehhandler$?FindDrawPositionType@CFindType@@SA?AW4DRAWPOSITIONTYPE@CBaseData@@ABV?$CStringT@DV?$StrTraitMFC_DLL@DV?$ChTraitsCRT@D@ATL@@@@@ATL@@@Z
  0000a	64 a1 00 00 00
	00		 mov	 eax, DWORD PTR fs:0
  00010	50		 push	 eax
  00011	83 ec 08	 sub	 esp, 8
  00014	56		 push	 esi
  00015	57		 push	 edi
  00016	a1 00 00 00 00	 mov	 eax, DWORD PTR ___security_cookie
  0001b	33 c5		 xor	 eax, ebp
  0001d	50		 push	 eax
  0001e	8d 45 f4	 lea	 eax, DWORD PTR __$EHRec$[ebp]
  00021	64 a3 00 00 00
	00		 mov	 DWORD PTR fs:0, eax

; 489  : 	CString GraphName = strGraphName;

  00027	8b 75 08	 mov	 esi, DWORD PTR _strGraphName$[ebp]
  0002a	8d 4d f0	 lea	 ecx, DWORD PTR _GraphName$[ebp]
  0002d	56		 push	 esi
  0002e	ff 15 00 00 00
	00		 call	 DWORD PTR __imp_??0?$CStringT@DV?$StrTraitMFC_DLL@DV?$ChTraitsCRT@D@ATL@@@@@ATL@@QAE@ABV01@@Z

; 490  : 	GraphName = FindStochastics(strGraphName);

  00034	8d 45 ec	 lea	 eax, DWORD PTR $T2[ebp]
  00037	c7 45 fc 00 00
	00 00		 mov	 DWORD PTR __$EHRec$[ebp+8], 0
  0003e	56		 push	 esi
  0003f	50		 push	 eax
  00040	e8 00 00 00 00	 call	 ?FindStochastics@CFindType@@SA?AV?$CStringT@DV?$StrTraitMFC_DLL@DV?$ChTraitsCRT@D@ATL@@@@@ATL@@ABV23@@Z ; CFindType::FindStochastics
  00045	83 c4 08	 add	 esp, 8
  00048	50		 push	 eax
  00049	8d 4d f0	 lea	 ecx, DWORD PTR _GraphName$[ebp]
  0004c	c6 45 fc 01	 mov	 BYTE PTR __$EHRec$[ebp+8], 1
  00050	ff 15 00 00 00
	00		 call	 DWORD PTR __imp_??4?$CStringT@DV?$StrTraitMFC_DLL@DV?$ChTraitsCRT@D@ATL@@@@@ATL@@QAEAAV01@ABV01@@Z
  00056	8d 4d ec	 lea	 ecx, DWORD PTR $T2[ebp]
  00059	c6 45 fc 00	 mov	 BYTE PTR __$EHRec$[ebp+8], 0
  0005d	ff 15 00 00 00
	00		 call	 DWORD PTR __imp_??1?$CStringT@DV?$StrTraitMFC_DLL@DV?$ChTraitsCRT@D@ATL@@@@@ATL@@QAE@XZ
  00063	be fa ff ff ff	 mov	 esi, -6			; fffffffaH
  00068	bf 00 00 00 00	 mov	 edi, OFFSET ?g_szIndicatorNameList@@3PAW4E_METACODE@IMetaTable@@A
  0006d	0f 1f 00	 npad	 3
$LL4@FindDrawPo:

; 493  : 	{
; 494  : // 2008.01.25 by LYH >>
; 495  : 		//if( GraphName.CompareNoCase(g_szIndicatorNameList[i]) == 0 )
; 496  : 		if( GraphName.CompareNoCase( _MTEXTN( g_szIndicatorNameList[i]) ) == 0 )

  00070	8b 0f		 mov	 ecx, DWORD PTR [edi]
  00072	a1 54 00 00 00	 mov	 eax, DWORD PTR ?g_iMetaTable@@3VIMetaTable@@A+84
  00077	ff 34 88	 push	 DWORD PTR [eax+ecx*4]
  0007a	8d 4d f0	 lea	 ecx, DWORD PTR _GraphName$[ebp]
  0007d	ff 15 00 00 00
	00		 call	 DWORD PTR __imp_?CompareNoCase@?$CStringT@DV?$StrTraitMFC_DLL@DV?$ChTraitsCRT@D@ATL@@@@@ATL@@QBEHPBD@Z
  00083	85 c0		 test	 eax, eax
  00085	75 13		 jne	 SHORT $LN2@FindDrawPo

; 497  : // 2008.01.25 by LYH <<
; 498  : 		{
; 499  : 			switch( i )

  00087	83 fe 2a	 cmp	 esi, 42			; 0000002aH
  0008a	77 0e		 ja	 SHORT $LN2@FindDrawPo
  0008c	0f b6 86 00 00
	00 00		 movzx	 eax, BYTE PTR $LN24@FindDrawPo[esi]
  00093	ff 24 85 00 00
	00 00		 jmp	 DWORD PTR $LN25@FindDrawPo[eax*4]
$LN2@FindDrawPo:

; 491  : 
; 492  : 	for( int i = 0 ; i < GRAPH_COUNT ; i++ )

  0009a	46		 inc	 esi
  0009b	83 c7 04	 add	 edi, 4
  0009e	8d 46 06	 lea	 eax, DWORD PTR [esi+6]
  000a1	3d b1 00 00 00	 cmp	 eax, 177		; 000000b1H
  000a6	7c c8		 jl	 SHORT $LL4@FindDrawPo

; 500  : 			{
; 501  : 				case GRAPH_PARABOLIC: 
; 502  : 				case GRAPH_RAINBOW:
; 503  : 				case GRAPH_GLANCEBALANCE:
; 504  : 				case GRAPH_BOLLINGER:
; 505  : 				case GRAPH_PIVOT:
; 506  : 				case GRAPH_ENVELOPE: 
; 507  : 				case GRAPH_CLC:
; 508  : 					return CBaseData::DrawWithPrice;
; 509  : 			}
; 510  : 		}
; 511  : 	}
; 512  : 	
; 513  : 	return CBaseData::NotDrawWithPrice;

  000a8	be 01 00 00 00	 mov	 esi, 1
$LN18@FindDrawPo:
  000ad	8d 4d f0	 lea	 ecx, DWORD PTR _GraphName$[ebp]
  000b0	ff 15 00 00 00
	00		 call	 DWORD PTR __imp_??1?$CStringT@DV?$StrTraitMFC_DLL@DV?$ChTraitsCRT@D@ATL@@@@@ATL@@QAE@XZ
  000b6	8b c6		 mov	 eax, esi

; 514  : }

  000b8	8b 4d f4	 mov	 ecx, DWORD PTR __$EHRec$[ebp]
  000bb	64 89 0d 00 00
	00 00		 mov	 DWORD PTR fs:0, ecx
  000c2	59		 pop	 ecx
  000c3	5f		 pop	 edi
  000c4	5e		 pop	 esi
  000c5	8b e5		 mov	 esp, ebp
  000c7	5d		 pop	 ebp
  000c8	c3		 ret	 0
$LN8@FindDrawPo:
  000c9	33 f6		 xor	 esi, esi
  000cb	eb e0		 jmp	 SHORT $LN18@FindDrawPo
  000cd	0f 1f 00	 npad	 3
$LN25@FindDrawPo:
  000d0	00 00 00 00	 DD	 $LN8@FindDrawPo
  000d4	00 00 00 00	 DD	 $LN2@FindDrawPo
$LN24@FindDrawPo:
  000d8	00		 DB	 0
  000d9	01		 DB	 1
  000da	01		 DB	 1
  000db	01		 DB	 1
  000dc	01		 DB	 1
  000dd	00		 DB	 0
  000de	01		 DB	 1
  000df	01		 DB	 1
  000e0	00		 DB	 0
  000e1	01		 DB	 1
  000e2	01		 DB	 1
  000e3	01		 DB	 1
  000e4	00		 DB	 0
  000e5	01		 DB	 1
  000e6	01		 DB	 1
  000e7	01		 DB	 1
  000e8	01		 DB	 1
  000e9	01		 DB	 1
  000ea	01		 DB	 1
  000eb	01		 DB	 1
  000ec	01		 DB	 1
  000ed	01		 DB	 1
  000ee	01		 DB	 1
  000ef	01		 DB	 1
  000f0	01		 DB	 1
  000f1	00		 DB	 0
  000f2	00		 DB	 0
  000f3	01		 DB	 1
  000f4	01		 DB	 1
  000f5	01		 DB	 1
  000f6	01		 DB	 1
  000f7	01		 DB	 1
  000f8	01		 DB	 1
  000f9	01		 DB	 1
  000fa	01		 DB	 1
  000fb	01		 DB	 1
  000fc	01		 DB	 1
  000fd	01		 DB	 1
  000fe	01		 DB	 1
  000ff	01		 DB	 1
  00100	01		 DB	 1
  00101	01		 DB	 1
  00102	00		 DB	 0
_TEXT	ENDS
;	COMDAT text$x
text$x	SEGMENT
__unwindfunclet$?FindDrawPositionType@CFindType@@SA?AW4DRAWPOSITIONTYPE@CBaseData@@ABV?$CStringT@DV?$StrTraitMFC_DLL@DV?$ChTraitsCRT@D@ATL@@@@@ATL@@@Z$0:
  00000	8d 4d f0	 lea	 ecx, DWORD PTR _GraphName$[ebp]
  00003	ff 25 00 00 00
	00		 jmp	 DWORD PTR __imp_??1?$CStringT@DV?$StrTraitMFC_DLL@DV?$ChTraitsCRT@D@ATL@@@@@ATL@@QAE@XZ
__unwindfunclet$?FindDrawPositionType@CFindType@@SA?AW4DRAWPOSITIONTYPE@CBaseData@@ABV?$CStringT@DV?$StrTraitMFC_DLL@DV?$ChTraitsCRT@D@ATL@@@@@ATL@@@Z$1:
  00009	8d 4d ec	 lea	 ecx, DWORD PTR $T2[ebp]
  0000c	ff 25 00 00 00
	00		 jmp	 DWORD PTR __imp_??1?$CStringT@DV?$StrTraitMFC_DLL@DV?$ChTraitsCRT@D@ATL@@@@@ATL@@QAE@XZ
  00012	cc		 int	 3
  00013	cc		 int	 3
  00014	cc		 int	 3
  00015	cc		 int	 3
  00016	cc		 int	 3
__ehhandler$?FindDrawPositionType@CFindType@@SA?AW4DRAWPOSITIONTYPE@CBaseData@@ABV?$CStringT@DV?$StrTraitMFC_DLL@DV?$ChTraitsCRT@D@ATL@@@@@ATL@@@Z:
  00017	90		 npad	 1
  00018	90		 npad	 1
  00019	8b 54 24 08	 mov	 edx, DWORD PTR [esp+8]
  0001d	8d 42 0c	 lea	 eax, DWORD PTR [edx+12]
  00020	8b 4a ec	 mov	 ecx, DWORD PTR [edx-20]
  00023	33 c8		 xor	 ecx, eax
  00025	e8 00 00 00 00	 call	 @__security_check_cookie@4
  0002a	b8 00 00 00 00	 mov	 eax, OFFSET __ehfuncinfo$?FindDrawPositionType@CFindType@@SA?AW4DRAWPOSITIONTYPE@CBaseData@@ABV?$CStringT@DV?$StrTraitMFC_DLL@DV?$ChTraitsCRT@D@ATL@@@@@ATL@@@Z
  0002f	e9 00 00 00 00	 jmp	 ___CxxFrameHandler3
text$x	ENDS
?FindDrawPositionType@CFindType@@SA?AW4DRAWPOSITIONTYPE@CBaseData@@ABV?$CStringT@DV?$StrTraitMFC_DLL@DV?$ChTraitsCRT@D@ATL@@@@@ATL@@@Z ENDP ; CFindType::FindDrawPositionType
; Function compile flags: /Ogtp
; File D:\git\src\IBK\IBK_DRFN\ProjSrc\SrcChartEx\ChartAddIn\ChartEnvSetupDlgAddIn\ChartEnvSetupDlgAddIn\FindType.cpp
;	COMDAT ?FindLimitValueofHorizontalLine@CFindType@@SA?AW4LIMITHORIZONTALLINE@CBaseData@@PBD@Z
_TEXT	SEGMENT
_GraphName$ = -20					; size = 4
$T2 = -16						; size = 4
__$EHRec$ = -12						; size = 12
_szGraphName$ = 8					; size = 4
?FindLimitValueofHorizontalLine@CFindType@@SA?AW4LIMITHORIZONTALLINE@CBaseData@@PBD@Z PROC ; CFindType::FindLimitValueofHorizontalLine, COMDAT

; 517  : {

  00000	55		 push	 ebp
  00001	8b ec		 mov	 ebp, esp
  00003	6a ff		 push	 -1
  00005	68 00 00 00 00	 push	 __ehhandler$?FindLimitValueofHorizontalLine@CFindType@@SA?AW4LIMITHORIZONTALLINE@CBaseData@@PBD@Z
  0000a	64 a1 00 00 00
	00		 mov	 eax, DWORD PTR fs:0
  00010	50		 push	 eax
  00011	83 ec 08	 sub	 esp, 8
  00014	56		 push	 esi
  00015	57		 push	 edi
  00016	a1 00 00 00 00	 mov	 eax, DWORD PTR ___security_cookie
  0001b	33 c5		 xor	 eax, ebp
  0001d	50		 push	 eax
  0001e	8d 45 f4	 lea	 eax, DWORD PTR __$EHRec$[ebp]
  00021	64 a3 00 00 00
	00		 mov	 DWORD PTR fs:0, eax

; 518  : 	CString GraphName = FindStochastics(szGraphName);

  00027	ff 75 08	 push	 DWORD PTR _szGraphName$[ebp]
  0002a	8d 4d f0	 lea	 ecx, DWORD PTR $T2[ebp]
  0002d	ff 15 00 00 00
	00		 call	 DWORD PTR __imp_??0?$CStringT@DV?$StrTraitMFC_DLL@DV?$ChTraitsCRT@D@ATL@@@@@ATL@@QAE@PBD@Z
  00033	8d 45 f0	 lea	 eax, DWORD PTR $T2[ebp]
  00036	c7 45 fc 00 00
	00 00		 mov	 DWORD PTR __$EHRec$[ebp+8], 0
  0003d	50		 push	 eax
  0003e	8d 45 ec	 lea	 eax, DWORD PTR _GraphName$[ebp]
  00041	50		 push	 eax
  00042	e8 00 00 00 00	 call	 ?FindStochastics@CFindType@@SA?AV?$CStringT@DV?$StrTraitMFC_DLL@DV?$ChTraitsCRT@D@ATL@@@@@ATL@@ABV23@@Z ; CFindType::FindStochastics
  00047	83 c4 08	 add	 esp, 8
  0004a	8d 4d f0	 lea	 ecx, DWORD PTR $T2[ebp]
  0004d	c6 45 fc 02	 mov	 BYTE PTR __$EHRec$[ebp+8], 2
  00051	ff 15 00 00 00
	00		 call	 DWORD PTR __imp_??1?$CStringT@DV?$StrTraitMFC_DLL@DV?$ChTraitsCRT@D@ATL@@@@@ATL@@QAE@XZ
  00057	be f9 ff ff ff	 mov	 esi, -7			; fffffff9H
  0005c	bf 00 00 00 00	 mov	 edi, OFFSET ?g_szIndicatorNameList@@3PAW4E_METACODE@IMetaTable@@A
$LL4@FindLimitV:

; 521  : 	{
; 522  : // 2008.01.25 by LYH >>
; 523  : 		//if( GraphName.CompareNoCase(g_szIndicatorNameList[i]) == 0 )
; 524  : 		if( GraphName.CompareNoCase( _MTEXTN( g_szIndicatorNameList[i]) ) == 0 )

  00061	8b 0f		 mov	 ecx, DWORD PTR [edi]
  00063	a1 54 00 00 00	 mov	 eax, DWORD PTR ?g_iMetaTable@@3VIMetaTable@@A+84
  00068	ff 34 88	 push	 DWORD PTR [eax+ecx*4]
  0006b	8d 4d ec	 lea	 ecx, DWORD PTR _GraphName$[ebp]
  0006e	ff 15 00 00 00
	00		 call	 DWORD PTR __imp_?CompareNoCase@?$CStringT@DV?$StrTraitMFC_DLL@DV?$ChTraitsCRT@D@ATL@@@@@ATL@@QBEHPBD@Z
  00074	85 c0		 test	 eax, eax
  00076	75 13		 jne	 SHORT $LN2@FindLimitV

; 525  : // 2008.01.25 by LYH <<
; 526  : 		{
; 527  : 			switch(i)

  00078	83 fe 44	 cmp	 esi, 68			; 00000044H
  0007b	77 0e		 ja	 SHORT $LN2@FindLimitV
  0007d	0f b6 86 00 00
	00 00		 movzx	 eax, BYTE PTR $LN25@FindLimitV[esi]
  00084	ff 24 85 00 00
	00 00		 jmp	 DWORD PTR $LN26@FindLimitV[eax*4]
$LN2@FindLimitV:

; 519  : 
; 520  : 	for( int i = 0 ; i < GRAPH_COUNT ; i++ )

  0008b	46		 inc	 esi
  0008c	83 c7 04	 add	 edi, 4
  0008f	8d 46 07	 lea	 eax, DWORD PTR [esi+7]
  00092	3d b1 00 00 00	 cmp	 eax, 177		; 000000b1H
  00097	7c c8		 jl	 SHORT $LL4@FindLimitV

; 542  : 			}
; 543  : 		}
; 544  : 	}
; 545  : 
; 546  : 	return CBaseData::Others; // 수평선이 값 -1000~1000

  00099	be 02 00 00 00	 mov	 esi, 2
$LN19@FindLimitV:
  0009e	8d 4d ec	 lea	 ecx, DWORD PTR _GraphName$[ebp]
  000a1	ff 15 00 00 00
	00		 call	 DWORD PTR __imp_??1?$CStringT@DV?$StrTraitMFC_DLL@DV?$ChTraitsCRT@D@ATL@@@@@ATL@@QAE@XZ
  000a7	8b c6		 mov	 eax, esi

; 547  : }

  000a9	8b 4d f4	 mov	 ecx, DWORD PTR __$EHRec$[ebp]
  000ac	64 89 0d 00 00
	00 00		 mov	 DWORD PTR fs:0, ecx
  000b3	59		 pop	 ecx
  000b4	5f		 pop	 edi
  000b5	5e		 pop	 esi
  000b6	8b e5		 mov	 esp, ebp
  000b8	5d		 pop	 ebp
  000b9	c3		 ret	 0
$LN8@FindLimitV:
  000ba	33 f6		 xor	 esi, esi
  000bc	eb e0		 jmp	 SHORT $LN19@FindLimitV
$LN14@FindLimitV:

; 528  : 			{
; 529  : 				case GRAPH_PSYCH: // 수평선의 값 0~100
; 530  : //				case GRAPH_NEWPSYCH:
; 531  : 				case GRAPH_MOMENTUM:
; 532  : // (2007/6/4 - Seung-Won, Bae) Do not Support -100~100 Limitation.
; 533  : //				case GRAPH_CCI:
; 534  : 				case GRAPH_EOM:
; 535  : 				case GRAPH_RSI:
; 536  : 				case GRAPH_STOCHASTICS_FAST:
; 537  : 				case GRAPH_STOCHASTICS_SLOW:
; 538  : 					return CBaseData::ZeroToOneZeroZero;
; 539  : 			
; 540  : 				case GRAPH_WILLIAM: //수평선의 값 -0~-100
; 541  : 					return CBaseData::MinusZeroToOneZeroZero;

  000be	be 01 00 00 00	 mov	 esi, 1
  000c3	eb d9		 jmp	 SHORT $LN19@FindLimitV
  000c5	0f 1f 00	 npad	 3
$LN26@FindLimitV:

; 547  : }

  000c8	00 00 00 00	 DD	 $LN8@FindLimitV
  000cc	00 00 00 00	 DD	 $LN14@FindLimitV
  000d0	00 00 00 00	 DD	 $LN2@FindLimitV
$LN25@FindLimitV:
  000d4	00		 DB	 0
  000d5	02		 DB	 2
  000d6	02		 DB	 2
  000d7	02		 DB	 2
  000d8	02		 DB	 2
  000d9	02		 DB	 2
  000da	02		 DB	 2
  000db	02		 DB	 2
  000dc	02		 DB	 2
  000dd	02		 DB	 2
  000de	02		 DB	 2
  000df	02		 DB	 2
  000e0	02		 DB	 2
  000e1	02		 DB	 2
  000e2	02		 DB	 2
  000e3	02		 DB	 2
  000e4	02		 DB	 2
  000e5	02		 DB	 2
  000e6	02		 DB	 2
  000e7	00		 DB	 0
  000e8	02		 DB	 2
  000e9	02		 DB	 2
  000ea	02		 DB	 2
  000eb	02		 DB	 2
  000ec	02		 DB	 2
  000ed	02		 DB	 2
  000ee	02		 DB	 2
  000ef	02		 DB	 2
  000f0	02		 DB	 2
  000f1	02		 DB	 2
  000f2	02		 DB	 2
  000f3	00		 DB	 0
  000f4	02		 DB	 2
  000f5	00		 DB	 0
  000f6	00		 DB	 0
  000f7	02		 DB	 2
  000f8	02		 DB	 2
  000f9	02		 DB	 2
  000fa	02		 DB	 2
  000fb	01		 DB	 1
  000fc	02		 DB	 2
  000fd	02		 DB	 2
  000fe	02		 DB	 2
  000ff	02		 DB	 2
  00100	02		 DB	 2
  00101	02		 DB	 2
  00102	02		 DB	 2
  00103	02		 DB	 2
  00104	02		 DB	 2
  00105	02		 DB	 2
  00106	02		 DB	 2
  00107	02		 DB	 2
  00108	02		 DB	 2
  00109	02		 DB	 2
  0010a	02		 DB	 2
  0010b	02		 DB	 2
  0010c	02		 DB	 2
  0010d	02		 DB	 2
  0010e	02		 DB	 2
  0010f	02		 DB	 2
  00110	02		 DB	 2
  00111	02		 DB	 2
  00112	02		 DB	 2
  00113	02		 DB	 2
  00114	02		 DB	 2
  00115	02		 DB	 2
  00116	02		 DB	 2
  00117	02		 DB	 2
  00118	00		 DB	 0
_TEXT	ENDS
;	COMDAT text$x
text$x	SEGMENT
__unwindfunclet$?FindLimitValueofHorizontalLine@CFindType@@SA?AW4LIMITHORIZONTALLINE@CBaseData@@PBD@Z$0:
  00000	8d 4d f0	 lea	 ecx, DWORD PTR $T2[ebp]
  00003	ff 25 00 00 00
	00		 jmp	 DWORD PTR __imp_??1?$CStringT@DV?$StrTraitMFC_DLL@DV?$ChTraitsCRT@D@ATL@@@@@ATL@@QAE@XZ
__unwindfunclet$?FindLimitValueofHorizontalLine@CFindType@@SA?AW4LIMITHORIZONTALLINE@CBaseData@@PBD@Z$1:
  00009	8d 4d ec	 lea	 ecx, DWORD PTR _GraphName$[ebp]
  0000c	ff 25 00 00 00
	00		 jmp	 DWORD PTR __imp_??1?$CStringT@DV?$StrTraitMFC_DLL@DV?$ChTraitsCRT@D@ATL@@@@@ATL@@QAE@XZ
  00012	cc		 int	 3
  00013	cc		 int	 3
  00014	cc		 int	 3
  00015	cc		 int	 3
  00016	cc		 int	 3
__ehhandler$?FindLimitValueofHorizontalLine@CFindType@@SA?AW4LIMITHORIZONTALLINE@CBaseData@@PBD@Z:
  00017	90		 npad	 1
  00018	90		 npad	 1
  00019	8b 54 24 08	 mov	 edx, DWORD PTR [esp+8]
  0001d	8d 42 0c	 lea	 eax, DWORD PTR [edx+12]
  00020	8b 4a ec	 mov	 ecx, DWORD PTR [edx-20]
  00023	33 c8		 xor	 ecx, eax
  00025	e8 00 00 00 00	 call	 @__security_check_cookie@4
  0002a	b8 00 00 00 00	 mov	 eax, OFFSET __ehfuncinfo$?FindLimitValueofHorizontalLine@CFindType@@SA?AW4LIMITHORIZONTALLINE@CBaseData@@PBD@Z
  0002f	e9 00 00 00 00	 jmp	 ___CxxFrameHandler3
text$x	ENDS
?FindLimitValueofHorizontalLine@CFindType@@SA?AW4LIMITHORIZONTALLINE@CBaseData@@PBD@Z ENDP ; CFindType::FindLimitValueofHorizontalLine
; Function compile flags: /Ogtp
; File D:\git\src\IBK\IBK_DRFN\ProjSrc\SrcChartEx\ChartAddIn\ChartEnvSetupDlgAddIn\ChartEnvSetupDlgAddIn\FindType.cpp
;	COMDAT ?DoThisIndicatorUseOnePricePacket@CFindType@@SA_NPBD@Z
_TEXT	SEGMENT
_GraphName$ = -20					; size = 4
$T2 = -16						; size = 4
__$EHRec$ = -12						; size = 12
_p_szIndicatorName$ = 8					; size = 4
?DoThisIndicatorUseOnePricePacket@CFindType@@SA_NPBD@Z PROC ; CFindType::DoThisIndicatorUseOnePricePacket, COMDAT

; 551  : {

  00000	55		 push	 ebp
  00001	8b ec		 mov	 ebp, esp
  00003	6a ff		 push	 -1
  00005	68 00 00 00 00	 push	 __ehhandler$?DoThisIndicatorUseOnePricePacket@CFindType@@SA_NPBD@Z
  0000a	64 a1 00 00 00
	00		 mov	 eax, DWORD PTR fs:0
  00010	50		 push	 eax
  00011	83 ec 08	 sub	 esp, 8
  00014	53		 push	 ebx
  00015	56		 push	 esi
  00016	57		 push	 edi
  00017	a1 00 00 00 00	 mov	 eax, DWORD PTR ___security_cookie
  0001c	33 c5		 xor	 eax, ebp
  0001e	50		 push	 eax
  0001f	8d 45 f4	 lea	 eax, DWORD PTR __$EHRec$[ebp]
  00022	64 a3 00 00 00
	00		 mov	 DWORD PTR fs:0, eax

; 552  : 	CString GraphName = FindStochastics(p_szIndicatorName);

  00028	ff 75 08	 push	 DWORD PTR _p_szIndicatorName$[ebp]
  0002b	8d 4d f0	 lea	 ecx, DWORD PTR $T2[ebp]
  0002e	ff 15 00 00 00
	00		 call	 DWORD PTR __imp_??0?$CStringT@DV?$StrTraitMFC_DLL@DV?$ChTraitsCRT@D@ATL@@@@@ATL@@QAE@PBD@Z
  00034	8d 45 f0	 lea	 eax, DWORD PTR $T2[ebp]
  00037	c7 45 fc 00 00
	00 00		 mov	 DWORD PTR __$EHRec$[ebp+8], 0
  0003e	50		 push	 eax
  0003f	8d 45 ec	 lea	 eax, DWORD PTR _GraphName$[ebp]
  00042	50		 push	 eax
  00043	e8 00 00 00 00	 call	 ?FindStochastics@CFindType@@SA?AV?$CStringT@DV?$StrTraitMFC_DLL@DV?$ChTraitsCRT@D@ATL@@@@@ATL@@ABV23@@Z ; CFindType::FindStochastics
  00048	83 c4 08	 add	 esp, 8
  0004b	8d 4d f0	 lea	 ecx, DWORD PTR $T2[ebp]
  0004e	c6 45 fc 02	 mov	 BYTE PTR __$EHRec$[ebp+8], 2
  00052	ff 15 00 00 00
	00		 call	 DWORD PTR __imp_??1?$CStringT@DV?$StrTraitMFC_DLL@DV?$ChTraitsCRT@D@ATL@@@@@ATL@@QAE@XZ
  00058	be fe ff ff ff	 mov	 esi, -2			; fffffffeH
  0005d	bf 00 00 00 00	 mov	 edi, OFFSET ?g_szIndicatorNameList@@3PAW4E_METACODE@IMetaTable@@A
$LL4@DoThisIndi:

; 555  : 	{
; 556  : // 2008.01.25 by LYH >>
; 557  : 		//if( GraphName.CompareNoCase(g_szIndicatorNameList[i]) == 0 )
; 558  : 		if( GraphName.CompareNoCase( _MTEXTN( g_szIndicatorNameList[i]) ) == 0 )

  00062	8b 0f		 mov	 ecx, DWORD PTR [edi]
  00064	a1 54 00 00 00	 mov	 eax, DWORD PTR ?g_iMetaTable@@3VIMetaTable@@A+84
  00069	ff 34 88	 push	 DWORD PTR [eax+ecx*4]
  0006c	8d 4d ec	 lea	 ecx, DWORD PTR _GraphName$[ebp]
  0006f	ff 15 00 00 00
	00		 call	 DWORD PTR __imp_?CompareNoCase@?$CStringT@DV?$StrTraitMFC_DLL@DV?$ChTraitsCRT@D@ATL@@@@@ATL@@QBEHPBD@Z
  00075	85 c0		 test	 eax, eax
  00077	75 16		 jne	 SHORT $LN2@DoThisIndi

; 559  : // 2008.01.25 by LYH <<
; 560  : 		{
; 561  : 			switch(i)

  00079	81 fe a8 00 00
	00		 cmp	 esi, 168		; 000000a8H
  0007f	77 0e		 ja	 SHORT $LN2@DoThisIndi
  00081	0f b6 86 00 00
	00 00		 movzx	 eax, BYTE PTR $LN72@DoThisIndi[esi]
  00088	ff 24 85 00 00
	00 00		 jmp	 DWORD PTR $LN73@DoThisIndi[eax*4]
$LN2@DoThisIndi:

; 553  : 	
; 554  : 	for( int i = 0 ; i < GRAPH_COUNT ; i++ )

  0008f	46		 inc	 esi
  00090	83 c7 04	 add	 edi, 4
  00093	8d 46 02	 lea	 eax, DWORD PTR [esi+2]
  00096	3d b1 00 00 00	 cmp	 eax, 177		; 000000b1H
  0009b	7c c5		 jl	 SHORT $LL4@DoThisIndi

; 562  : 			{
; 563  : 				case GRAPH_GLANCEBALANCE:
; 564  : 				case GRAPH_HORIZONTALBAR:
; 565  : 				case GRAPH_BOXCHART:
; 566  : 				case GRAPH_Demark:
; 567  : 				case GRAPH_MAC:
; 568  : 				case GRAPH_PARABOLIC_SAR:
; 569  : 				case GRAPH_PIVOT:
; 570  : 				case GRAPH_PRICE_CHANNEL:
; 571  : 				case GRAPH_AD:
; 572  : 				case GRAPH_ADX:
; 573  : 				case GRAPH_ADXR:
; 574  : 				case GRAPH_AROON:
; 575  : 				case GRAPH_NDI:
; 576  : 				case GRAPH_AB_RATIO:
; 577  : 				case GRAPH_ATR:
; 578  : 				case GRAPH_ChaikinsVolatility:
; 579  : 				case GRAPH_DRF:
; 580  : 				case GRAPH_MASS_INDEX:
; 581  : 				case GRAPH_QSTIC:
; 582  : 				case GRAPH_CHARKINS_OSCILLATOR:
; 583  : 				case GRAPH_CMF:
; 584  : 				case GRAPH_EOM:
; 585  : 				case GRAPH_VOLUME_RATIO:
; 586  : 				case GRAPH_VROC:
; 587  : 				case GRAPH_PERCENT_B_STOCHASTIC:
; 588  : 				case GRAPH_LRS_STOCHASTIC:
; 589  : 				case GRAPH_MACD_STOCHASTIC:
; 590  : 				case GRAPH_MOMENTUM_STOCHASTIC:
; 591  : 				case GRAPH_OBV_MOMENTUM:
; 592  : 				case GRAPH_OBV_STOCHASTIC:
; 593  : 				case GRAPH_ROC_STOCHASTIC:
; 594  : 				case GRAPH_RSI_MACD:
; 595  : 				case GRAPH_RSI_STOCHASTIC:
; 596  : 				case GRAPH_SONAR_PSYCO_LINE:
; 597  : 				case GRAPH_STOCHASTIC_RSI:
; 598  : 				case GRAPH_INTEREST:						// 금리
; 599  : 				case GRAPH_NEWS_INTENSITY:					// 뉴스 강도
; 600  : 				case GRAPH_NEWS_COUNT:						// 뉴스 건수
; 601  : 				case GRAPH_AVOLS:							// 시가총액( Aggregate Value Of Listed Stock ) 
; 602  : 				case GRAPH_DEBIT_BALANCE:					// 신용잔고( Debit Balance )
; 603  : 				case GRAPH_DEPOSIT:							// 예탁금( Deposit )
; 604  : 				case GRAPH_FOREIGNER_RESERVE_QUANTITY:		// 외국인 보유량
; 605  : 				case GRAPH_FOREIGNER_RESERVE_RATIO:			// 외국인 보유율
; 606  : 				case GRAPH_FOREIGNER_EXHAUSTED_RATIO:		// 외국인 소진율
; 607  : 				case GRAPH_INVESTER_NET_BUYER_FUTURES:		// 투자자 순매수(선물)
; 608  : 				case GRAPH_INVESTER_NET_BUYER_CALL_OPTION:	// 투자자 순매수(콜옵션)
; 609  : 				case GRAPH_INVESTER_NET_BUYER_KOSDAQ:		// 투자자 순매수(KOSDAQ)
; 610  : 				case GRAPH_INVESTER_NET_BUYER_KOSPI:		// 투자자 순매수(KOSPI)
; 611  : 				case GRAPH_INVESTER_NET_BUYER_PUT_OPTION:	// 투자자 순매수(풋옵션)
; 612  : 				case GRAPH_PRICE_MA:
; 613  : 				case GRAPH_BinaryWave:
; 614  : 				case GRAPH_7BINARYWAVE:
; 615  : 				case GRAPH_CLC:
; 616  : 
; 617  : 				// Sang-Woo, Cho		2006 / 05 / 09
; 618  : 				// VA Oscillator & Volume Oscillator에 Packet 선택부분을 숨김.
; 619  : 				case GRAPH_VA_OSCILLATOR:
; 620  : 				case GRAPH_VOLUME_OSCILLATOR:
; 621  : 					return true;
; 622  : 			}
; 623  : 		}
; 624  : 	}
; 625  : 
; 626  : 	return false; 

  0009d	32 db		 xor	 bl, bl
$LN66@DoThisIndi:
  0009f	8d 4d ec	 lea	 ecx, DWORD PTR _GraphName$[ebp]
  000a2	ff 15 00 00 00
	00		 call	 DWORD PTR __imp_??1?$CStringT@DV?$StrTraitMFC_DLL@DV?$ChTraitsCRT@D@ATL@@@@@ATL@@QAE@XZ
  000a8	8a c3		 mov	 al, bl

; 627  : }

  000aa	8b 4d f4	 mov	 ecx, DWORD PTR __$EHRec$[ebp]
  000ad	64 89 0d 00 00
	00 00		 mov	 DWORD PTR fs:0, ecx
  000b4	59		 pop	 ecx
  000b5	5f		 pop	 edi
  000b6	5e		 pop	 esi
  000b7	5b		 pop	 ebx
  000b8	8b e5		 mov	 esp, ebp
  000ba	5d		 pop	 ebp
  000bb	c3		 ret	 0
$LN8@DoThisIndi:
  000bc	b3 01		 mov	 bl, 1
  000be	eb df		 jmp	 SHORT $LN66@DoThisIndi
$LN73@DoThisIndi:
  000c0	00 00 00 00	 DD	 $LN8@DoThisIndi
  000c4	00 00 00 00	 DD	 $LN2@DoThisIndi
$LN72@DoThisIndi:
  000c8	00		 DB	 0
  000c9	01		 DB	 1
  000ca	00		 DB	 0
  000cb	01		 DB	 1
  000cc	00		 DB	 0
  000cd	01		 DB	 1
  000ce	01		 DB	 1
  000cf	00		 DB	 0
  000d0	00		 DB	 0
  000d1	01		 DB	 1
  000d2	00		 DB	 0
  000d3	01		 DB	 1
  000d4	00		 DB	 0
  000d5	00		 DB	 0
  000d6	01		 DB	 1
  000d7	01		 DB	 1
  000d8	01		 DB	 1
  000d9	01		 DB	 1
  000da	01		 DB	 1
  000db	00		 DB	 0
  000dc	01		 DB	 1
  000dd	01		 DB	 1
  000de	01		 DB	 1
  000df	01		 DB	 1
  000e0	01		 DB	 1
  000e1	01		 DB	 1
  000e2	01		 DB	 1
  000e3	01		 DB	 1
  000e4	01		 DB	 1
  000e5	01		 DB	 1
  000e6	00		 DB	 0
  000e7	01		 DB	 1
  000e8	01		 DB	 1
  000e9	01		 DB	 1
  000ea	01		 DB	 1
  000eb	01		 DB	 1
  000ec	01		 DB	 1
  000ed	01		 DB	 1
  000ee	01		 DB	 1
  000ef	01		 DB	 1
  000f0	01		 DB	 1
  000f1	01		 DB	 1
  000f2	01		 DB	 1
  000f3	01		 DB	 1
  000f4	01		 DB	 1
  000f5	01		 DB	 1
  000f6	01		 DB	 1
  000f7	01		 DB	 1
  000f8	01		 DB	 1
  000f9	01		 DB	 1
  000fa	01		 DB	 1
  000fb	01		 DB	 1
  000fc	01		 DB	 1
  000fd	01		 DB	 1
  000fe	01		 DB	 1
  000ff	00		 DB	 0
  00100	01		 DB	 1
  00101	01		 DB	 1
  00102	01		 DB	 1
  00103	01		 DB	 1
  00104	01		 DB	 1
  00105	01		 DB	 1
  00106	01		 DB	 1
  00107	01		 DB	 1
  00108	01		 DB	 1
  00109	01		 DB	 1
  0010a	01		 DB	 1
  0010b	00		 DB	 0
  0010c	01		 DB	 1
  0010d	00		 DB	 0
  0010e	01		 DB	 1
  0010f	01		 DB	 1
  00110	00		 DB	 0
  00111	00		 DB	 0
  00112	00		 DB	 0
  00113	01		 DB	 1
  00114	01		 DB	 1
  00115	01		 DB	 1
  00116	01		 DB	 1
  00117	01		 DB	 1
  00118	01		 DB	 1
  00119	01		 DB	 1
  0011a	01		 DB	 1
  0011b	01		 DB	 1
  0011c	01		 DB	 1
  0011d	01		 DB	 1
  0011e	01		 DB	 1
  0011f	01		 DB	 1
  00120	01		 DB	 1
  00121	01		 DB	 1
  00122	01		 DB	 1
  00123	01		 DB	 1
  00124	01		 DB	 1
  00125	01		 DB	 1
  00126	01		 DB	 1
  00127	01		 DB	 1
  00128	01		 DB	 1
  00129	01		 DB	 1
  0012a	01		 DB	 1
  0012b	01		 DB	 1
  0012c	01		 DB	 1
  0012d	01		 DB	 1
  0012e	01		 DB	 1
  0012f	01		 DB	 1
  00130	01		 DB	 1
  00131	01		 DB	 1
  00132	01		 DB	 1
  00133	01		 DB	 1
  00134	00		 DB	 0
  00135	00		 DB	 0
  00136	00		 DB	 0
  00137	00		 DB	 0
  00138	01		 DB	 1
  00139	01		 DB	 1
  0013a	01		 DB	 1
  0013b	01		 DB	 1
  0013c	01		 DB	 1
  0013d	00		 DB	 0
  0013e	00		 DB	 0
  0013f	01		 DB	 1
  00140	01		 DB	 1
  00141	01		 DB	 1
  00142	01		 DB	 1
  00143	01		 DB	 1
  00144	01		 DB	 1
  00145	01		 DB	 1
  00146	01		 DB	 1
  00147	00		 DB	 0
  00148	01		 DB	 1
  00149	00		 DB	 0
  0014a	01		 DB	 1
  0014b	00		 DB	 0
  0014c	00		 DB	 0
  0014d	00		 DB	 0
  0014e	00		 DB	 0
  0014f	00		 DB	 0
  00150	00		 DB	 0
  00151	00		 DB	 0
  00152	00		 DB	 0
  00153	00		 DB	 0
  00154	00		 DB	 0
  00155	00		 DB	 0
  00156	01		 DB	 1
  00157	01		 DB	 1
  00158	01		 DB	 1
  00159	00		 DB	 0
  0015a	00		 DB	 0
  0015b	01		 DB	 1
  0015c	01		 DB	 1
  0015d	00		 DB	 0
  0015e	00		 DB	 0
  0015f	01		 DB	 1
  00160	00		 DB	 0
  00161	01		 DB	 1
  00162	00		 DB	 0
  00163	00		 DB	 0
  00164	00		 DB	 0
  00165	00		 DB	 0
  00166	00		 DB	 0
  00167	00		 DB	 0
  00168	00		 DB	 0
  00169	00		 DB	 0
  0016a	00		 DB	 0
  0016b	00		 DB	 0
  0016c	00		 DB	 0
  0016d	00		 DB	 0
  0016e	00		 DB	 0
  0016f	00		 DB	 0
  00170	00		 DB	 0
_TEXT	ENDS
;	COMDAT text$x
text$x	SEGMENT
__unwindfunclet$?DoThisIndicatorUseOnePricePacket@CFindType@@SA_NPBD@Z$0:
  00000	8d 4d f0	 lea	 ecx, DWORD PTR $T2[ebp]
  00003	ff 25 00 00 00
	00		 jmp	 DWORD PTR __imp_??1?$CStringT@DV?$StrTraitMFC_DLL@DV?$ChTraitsCRT@D@ATL@@@@@ATL@@QAE@XZ
__unwindfunclet$?DoThisIndicatorUseOnePricePacket@CFindType@@SA_NPBD@Z$1:
  00009	8d 4d ec	 lea	 ecx, DWORD PTR _GraphName$[ebp]
  0000c	ff 25 00 00 00
	00		 jmp	 DWORD PTR __imp_??1?$CStringT@DV?$StrTraitMFC_DLL@DV?$ChTraitsCRT@D@ATL@@@@@ATL@@QAE@XZ
  00012	cc		 int	 3
  00013	cc		 int	 3
  00014	cc		 int	 3
  00015	cc		 int	 3
  00016	cc		 int	 3
__ehhandler$?DoThisIndicatorUseOnePricePacket@CFindType@@SA_NPBD@Z:
  00017	90		 npad	 1
  00018	90		 npad	 1
  00019	8b 54 24 08	 mov	 edx, DWORD PTR [esp+8]
  0001d	8d 42 0c	 lea	 eax, DWORD PTR [edx+12]
  00020	8b 4a e8	 mov	 ecx, DWORD PTR [edx-24]
  00023	33 c8		 xor	 ecx, eax
  00025	e8 00 00 00 00	 call	 @__security_check_cookie@4
  0002a	b8 00 00 00 00	 mov	 eax, OFFSET __ehfuncinfo$?DoThisIndicatorUseOnePricePacket@CFindType@@SA_NPBD@Z
  0002f	e9 00 00 00 00	 jmp	 ___CxxFrameHandler3
text$x	ENDS
?DoThisIndicatorUseOnePricePacket@CFindType@@SA_NPBD@Z ENDP ; CFindType::DoThisIndicatorUseOnePricePacket
; Function compile flags: /Ogtp
; File D:\git\src\IBK\IBK_DRFN\ProjSrc\SrcChartEx\ChartAddIn\ChartEnvSetupDlgAddIn\ChartEnvSetupDlgAddIn\FindType.cpp
;	COMDAT ?__empty_global_delete@@YAXPAXI@Z
_TEXT	SEGMENT
___formal$ = 8						; size = 4
___formal$ = 12						; size = 4
?__empty_global_delete@@YAXPAXI@Z PROC			; __empty_global_delete, COMDAT

  00000	c2 00 00	 ret	 0
?__empty_global_delete@@YAXPAXI@Z ENDP			; __empty_global_delete
_TEXT	ENDS
; Function compile flags: /Ogtp
; File D:\git\src\IBK\IBK_DRFN\ProjSrc\SrcChartEx\ChartAddIn\ChartEnvSetupDlgAddIn\ChartEnvSetupDlgAddIn\FindType.cpp
;	COMDAT ?__empty_global_delete@@YAXPAX@Z
_TEXT	SEGMENT
___formal$ = 8						; size = 4
?__empty_global_delete@@YAXPAX@Z PROC			; __empty_global_delete, COMDAT

  00000	c2 00 00	 ret	 0
?__empty_global_delete@@YAXPAX@Z ENDP			; __empty_global_delete
_TEXT	ENDS
END
