; Listing generated by Microsoft (R) Optimizing Compiler Version 19.29.30145.0 

	TITLE	D:\git\src\IBK\IBK_DRFN\#DRfn-CS\_Obj\ChartEnvSetupDlgAddIn\GraphSetting.obj
	.686P
	.XMM
	include listing.inc
	.model	flat

INCLUDELIB MSVCRT
INCLUDELIB OLDNAMES

PUBLIC	??_C@_01GBGANLPD@0@				; `string'
PUBLIC	??_C@_01HIHLOKLC@1@				; `string'
PUBLIC	??_C@_01FDFGLJHB@2@				; `string'
PUBLIC	??_C@_01EKENIIDA@3@				; `string'
PUBLIC	??_C@_01FAMBOPH@4@				; `string'
PUBLIC	??_C@_01BMBHCPLG@5@				; `string'
PUBLIC	??_C@_01DHDKHMHF@6@				; `string'
PUBLIC	??_C@_01COCBENDE@7@				; `string'
PUBLIC	??_C@_01KJLJFBPL@8@				; `string'
PUBLIC	??_C@_01LAKCGALK@9@				; `string'
PUBLIC	??_C@_02PKFBJPLJ@10@				; `string'
PUBLIC	??_C@_02ODEKKOPI@11@				; `string'
PUBLIC	??_C@_02MIGHPNDL@12@				; `string'
PUBLIC	??_C@_02NBHMMMHK@13@				; `string'
PUBLIC	??_C@_02JODNFKLN@14@				; `string'
PUBLIC	??_C@_02IHCGGLPM@15@				; `string'
PUBLIC	??_C@_02KMALDIDP@16@				; `string'
PUBLIC	??_C@_02LFBAAJHO@17@				; `string'
PUBLIC	??_C@_02DCIIBFLB@18@				; `string'
PUBLIC	??_C@_02CLJDCEPA@19@				; `string'
PUBLIC	??_C@_02PIBHCBOA@20@				; `string'
PUBLIC	??_C@_02OBAMBAKB@21@				; `string'
PUBLIC	??_C@_02MKCBEDGC@22@				; `string'
PUBLIC	??_C@_02NDDKHCCD@23@				; `string'
PUBLIC	??_C@_02JMHLOEOE@24@				; `string'
;	COMDAT ??_C@_02JMHLOEOE@24@
CONST	SEGMENT
??_C@_02JMHLOEOE@24@ DB '24', 00H			; `string'
CONST	ENDS
;	COMDAT ??_C@_02NDDKHCCD@23@
CONST	SEGMENT
??_C@_02NDDKHCCD@23@ DB '23', 00H			; `string'
CONST	ENDS
;	COMDAT ??_C@_02MKCBEDGC@22@
CONST	SEGMENT
??_C@_02MKCBEDGC@22@ DB '22', 00H			; `string'
CONST	ENDS
;	COMDAT ??_C@_02OBAMBAKB@21@
CONST	SEGMENT
??_C@_02OBAMBAKB@21@ DB '21', 00H			; `string'
CONST	ENDS
;	COMDAT ??_C@_02PIBHCBOA@20@
CONST	SEGMENT
??_C@_02PIBHCBOA@20@ DB '20', 00H			; `string'
CONST	ENDS
;	COMDAT ??_C@_02CLJDCEPA@19@
CONST	SEGMENT
??_C@_02CLJDCEPA@19@ DB '19', 00H			; `string'
CONST	ENDS
;	COMDAT ??_C@_02DCIIBFLB@18@
CONST	SEGMENT
??_C@_02DCIIBFLB@18@ DB '18', 00H			; `string'
CONST	ENDS
;	COMDAT ??_C@_02LFBAAJHO@17@
CONST	SEGMENT
??_C@_02LFBAAJHO@17@ DB '17', 00H			; `string'
CONST	ENDS
;	COMDAT ??_C@_02KMALDIDP@16@
CONST	SEGMENT
??_C@_02KMALDIDP@16@ DB '16', 00H			; `string'
CONST	ENDS
;	COMDAT ??_C@_02IHCGGLPM@15@
CONST	SEGMENT
??_C@_02IHCGGLPM@15@ DB '15', 00H			; `string'
CONST	ENDS
;	COMDAT ??_C@_02JODNFKLN@14@
CONST	SEGMENT
??_C@_02JODNFKLN@14@ DB '14', 00H			; `string'
CONST	ENDS
;	COMDAT ??_C@_02NBHMMMHK@13@
CONST	SEGMENT
??_C@_02NBHMMMHK@13@ DB '13', 00H			; `string'
CONST	ENDS
;	COMDAT ??_C@_02MIGHPNDL@12@
CONST	SEGMENT
??_C@_02MIGHPNDL@12@ DB '12', 00H			; `string'
CONST	ENDS
;	COMDAT ??_C@_02ODEKKOPI@11@
CONST	SEGMENT
??_C@_02ODEKKOPI@11@ DB '11', 00H			; `string'
CONST	ENDS
;	COMDAT ??_C@_02PKFBJPLJ@10@
CONST	SEGMENT
??_C@_02PKFBJPLJ@10@ DB '10', 00H			; `string'
CONST	ENDS
;	COMDAT ??_C@_01LAKCGALK@9@
CONST	SEGMENT
??_C@_01LAKCGALK@9@ DB '9', 00H				; `string'
CONST	ENDS
;	COMDAT ??_C@_01KJLJFBPL@8@
CONST	SEGMENT
??_C@_01KJLJFBPL@8@ DB '8', 00H				; `string'
CONST	ENDS
;	COMDAT ??_C@_01COCBENDE@7@
CONST	SEGMENT
??_C@_01COCBENDE@7@ DB '7', 00H				; `string'
CONST	ENDS
;	COMDAT ??_C@_01DHDKHMHF@6@
CONST	SEGMENT
??_C@_01DHDKHMHF@6@ DB '6', 00H				; `string'
CONST	ENDS
;	COMDAT ??_C@_01BMBHCPLG@5@
CONST	SEGMENT
??_C@_01BMBHCPLG@5@ DB '5', 00H				; `string'
CONST	ENDS
;	COMDAT ??_C@_01FAMBOPH@4@
CONST	SEGMENT
??_C@_01FAMBOPH@4@ DB '4', 00H				; `string'
CONST	ENDS
;	COMDAT ??_C@_01EKENIIDA@3@
CONST	SEGMENT
??_C@_01EKENIIDA@3@ DB '3', 00H				; `string'
CONST	ENDS
;	COMDAT ??_C@_01FDFGLJHB@2@
CONST	SEGMENT
??_C@_01FDFGLJHB@2@ DB '2', 00H				; `string'
CONST	ENDS
;	COMDAT ??_C@_01HIHLOKLC@1@
CONST	SEGMENT
??_C@_01HIHLOKLC@1@ DB '1', 00H				; `string'
CONST	ENDS
;	COMDAT ??_C@_01GBGANLPD@0@
CONST	SEGMENT
??_C@_01GBGANLPD@0@ DB '0', 00H				; `string'
CONST	ENDS
PUBLIC	?__empty_global_delete@@YAXPAX@Z		; __empty_global_delete
PUBLIC	?__empty_global_delete@@YAXPAXI@Z		; __empty_global_delete
PUBLIC	?Serialize@CObject@@UAEXAAVCArchive@@@Z		; CObject::Serialize
PUBLIC	?AssertValid@CObject@@UBEXXZ			; CObject::AssertValid
PUBLIC	?Dump@CObject@@UBEXAAVCDumpContext@@@Z		; CObject::Dump
PUBLIC	?DoDataExchange@CWnd@@MAEXPAVCDataExchange@@@Z	; CWnd::DoDataExchange
PUBLIC	?BeginModalState@CWnd@@UAEXXZ			; CWnd::BeginModalState
PUBLIC	?EndModalState@CWnd@@UAEXXZ			; CWnd::EndModalState
PUBLIC	?Create@CDialog@@UAEHIPAVCWnd@@@Z		; CDialog::Create
PUBLIC	??1ILPCSTR135914@@QAE@XZ			; ILPCSTR135914::~ILPCSTR135914
PUBLIC	?_GetBaseClass@CGraphSetting@@KGPAUCRuntimeClass@@XZ ; CGraphSetting::_GetBaseClass
PUBLIC	?GetThisClass@CGraphSetting@@SGPAUCRuntimeClass@@XZ ; CGraphSetting::GetThisClass
PUBLIC	?GetRuntimeClass@CGraphSetting@@UBEPAUCRuntimeClass@@XZ ; CGraphSetting::GetRuntimeClass
PUBLIC	??0CGraphSetting@@QAE@PAUIChartOCX135914@@HPAVCWnd@@@Z ; CGraphSetting::CGraphSetting
PUBLIC	??1CGraphSetting@@UAE@XZ			; CGraphSetting::~CGraphSetting
PUBLIC	?SetData@CGraphSetting@@QAEXPAUIGraphInfo135914@@HHH@Z ; CGraphSetting::SetData
PUBLIC	?SetDeleteAllButtonState@CGraphSetting@@QAEXH@Z	; CGraphSetting::SetDeleteAllButtonState
PUBLIC	?GetReturnValue@CGraphSetting@@QBEHXZ		; CGraphSetting::GetReturnValue
PUBLIC	?ShowChildDialog@CGraphSetting@@UAEXH@Z		; CGraphSetting::ShowChildDialog
PUBLIC	?PreTranslateMessage@CGraphSetting@@UAEHPAUtagMSG@@@Z ; CGraphSetting::PreTranslateMessage
PUBLIC	?DoDataExchange@CGraphSetting@@MAEXPAVCDataExchange@@@Z ; CGraphSetting::DoDataExchange
PUBLIC	?OnInitDialog@CGraphSetting@@MAEHXZ		; CGraphSetting::OnInitDialog
PUBLIC	?OnOK@CGraphSetting@@MAEXXZ			; CGraphSetting::OnOK
PUBLIC	?OnAllDelete@CGraphSetting@@IAEXXZ		; CGraphSetting::OnAllDelete
PUBLIC	?OnCancel@CGraphSetting@@MAEXXZ			; CGraphSetting::OnCancel
PUBLIC	?OnChkWithDefault@CGraphSetting@@IAEXXZ		; CGraphSetting::OnChkWithDefault
PUBLIC	?GetThisMessageMap@CGraphSetting@@KGPBUAFX_MSGMAP@@XZ ; CGraphSetting::GetThisMessageMap
PUBLIC	?GetMessageMap@CGraphSetting@@MBEPBUAFX_MSGMAP@@XZ ; CGraphSetting::GetMessageMap
PUBLIC	?OnInsertOscillator@CGraphSetting@@IAEJIJ@Z	; CGraphSetting::OnInsertOscillator
PUBLIC	?SetChildDlgPosition@CGraphSetting@@AAEXXZ	; CGraphSetting::SetChildDlgPosition
PUBLIC	?DeleteChildDlg@CGraphSetting@@AAEXXZ		; CGraphSetting::DeleteChildDlg
PUBLIC	?GetLogState@CGraphSetting@@QBEHXZ		; CGraphSetting::GetLogState
PUBLIC	?SetLogState@CGraphSetting@@QAEXH@Z		; CGraphSetting::SetLogState
PUBLIC	?GetInvertScaleType@CGraphSetting@@QBEHXZ	; CGraphSetting::GetInvertScaleType
PUBLIC	?SetInvertScaleType@CGraphSetting@@QAEXH@Z	; CGraphSetting::SetInvertScaleType
PUBLIC	?DoCalculate@CGraphSetting@@QBEHXZ		; CGraphSetting::DoCalculate
PUBLIC	??_GCGraphSetting@@UAEPAXI@Z			; CGraphSetting::`scalar deleting destructor'
PUBLIC	??_R0?AVCObject@@@8				; CObject `RTTI Type Descriptor'
PUBLIC	??_R3CObject@@8					; CObject::`RTTI Class Hierarchy Descriptor'
PUBLIC	??_R2CObject@@8					; CObject::`RTTI Base Class Array'
PUBLIC	??_R1A@?0A@EA@CObject@@8			; CObject::`RTTI Base Class Descriptor at (0,-1,0,64)'
PUBLIC	??_R1A@?0A@EA@CWnd@@8				; CWnd::`RTTI Base Class Descriptor at (0,-1,0,64)'
PUBLIC	??_R0?AVCWnd@@@8				; CWnd `RTTI Type Descriptor'
PUBLIC	??_R3CWnd@@8					; CWnd::`RTTI Class Hierarchy Descriptor'
PUBLIC	??_R2CWnd@@8					; CWnd::`RTTI Base Class Array'
PUBLIC	??_R1A@?0A@EA@CCmdTarget@@8			; CCmdTarget::`RTTI Base Class Descriptor at (0,-1,0,64)'
PUBLIC	??_R0?AVCCmdTarget@@@8				; CCmdTarget `RTTI Type Descriptor'
PUBLIC	??_R3CCmdTarget@@8				; CCmdTarget::`RTTI Class Hierarchy Descriptor'
PUBLIC	??_R2CCmdTarget@@8				; CCmdTarget::`RTTI Base Class Array'
PUBLIC	??_R1A@?0A@EA@CDialog@@8			; CDialog::`RTTI Base Class Descriptor at (0,-1,0,64)'
PUBLIC	??_R0?AVCDialog@@@8				; CDialog `RTTI Type Descriptor'
PUBLIC	??_R3CDialog@@8					; CDialog::`RTTI Class Hierarchy Descriptor'
PUBLIC	??_R2CDialog@@8					; CDialog::`RTTI Base Class Array'
PUBLIC	??_7CTabParentDlg@@6B@				; CTabParentDlg::`vftable'
PUBLIC	?classCGraphSetting@CGraphSetting@@2UCRuntimeClass@@B ; CGraphSetting::classCGraphSetting
PUBLIC	??_7CGraphSetting@@6BCDialog@@@			; CGraphSetting::`vftable'
PUBLIC	??_7CGraphSetting@@6BCTabParentDlg@@@		; CGraphSetting::`vftable'
PUBLIC	??_C@_0O@CLKGAOCK@CGraphSetting@		; `string'
PUBLIC	??_R4CTabParentDlg@@6B@				; CTabParentDlg::`RTTI Complete Object Locator'
PUBLIC	??_R0?AVCTabParentDlg@@@8			; CTabParentDlg `RTTI Type Descriptor'
PUBLIC	??_R3CTabParentDlg@@8				; CTabParentDlg::`RTTI Class Hierarchy Descriptor'
PUBLIC	??_R2CTabParentDlg@@8				; CTabParentDlg::`RTTI Base Class Array'
PUBLIC	??_R1A@?0A@EA@CTabParentDlg@@8			; CTabParentDlg::`RTTI Base Class Descriptor at (0,-1,0,64)'
PUBLIC	??_R4CGraphSetting@@6BCDialog@@@		; CGraphSetting::`RTTI Complete Object Locator'
PUBLIC	??_R0?AVCGraphSetting@@@8			; CGraphSetting `RTTI Type Descriptor'
PUBLIC	??_R3CGraphSetting@@8				; CGraphSetting::`RTTI Class Hierarchy Descriptor'
PUBLIC	??_R2CGraphSetting@@8				; CGraphSetting::`RTTI Base Class Array'
PUBLIC	??_R1A@?0A@EA@CGraphSetting@@8			; CGraphSetting::`RTTI Base Class Descriptor at (0,-1,0,64)'
PUBLIC	??_R1KI@?0A@EA@CTabParentDlg@@8			; CTabParentDlg::`RTTI Base Class Descriptor at (168,-1,0,64)'
PUBLIC	??_R4CGraphSetting@@6BCTabParentDlg@@@		; CGraphSetting::`RTTI Complete Object Locator'
EXTRN	__purecall:PROC
EXTRN	??3@YAXPAX@Z:PROC				; operator delete
EXTRN	?__global_delete@@YAXPAXI@Z:PROC		; __global_delete
EXTRN	___std_terminate:PROC
EXTRN	__imp__SendMessageA@16:PROC
EXTRN	__imp__EnableWindow@8:PROC
EXTRN	__imp__GetWindowRect@8:PROC
EXTRN	__imp_??0?$CStringT@DV?$StrTraitMFC_DLL@DV?$ChTraitsCRT@D@ATL@@@@@ATL@@QAE@PBD@Z:PROC
EXTRN	?DDX_Check@@YGXPAVCDataExchange@@HAAH@Z:PROC	; DDX_Check
EXTRN	?DDX_Control@@YGXPAVCDataExchange@@HAAVCWnd@@@Z:PROC ; DDX_Control
EXTRN	?IsInvokeAllowed@CCmdTarget@@UAEHJ@Z:PROC	; CCmdTarget::IsInvokeAllowed
EXTRN	?GetDispatchIID@CCmdTarget@@UAEHPAU_GUID@@@Z:PROC ; CCmdTarget::GetDispatchIID
EXTRN	?GetTypeInfoCount@CCmdTarget@@UAEIXZ:PROC	; CCmdTarget::GetTypeInfoCount
EXTRN	?GetTypeLibCache@CCmdTarget@@UAEPAVCTypeLibCache@@XZ:PROC ; CCmdTarget::GetTypeLibCache
EXTRN	?GetTypeLib@CCmdTarget@@UAEJKPAPAUITypeLib@@@Z:PROC ; CCmdTarget::GetTypeLib
EXTRN	?GetCommandMap@CCmdTarget@@MBEPBUAFX_OLECMDMAP@@XZ:PROC ; CCmdTarget::GetCommandMap
EXTRN	?GetDispatchMap@CCmdTarget@@MBEPBUAFX_DISPMAP@@XZ:PROC ; CCmdTarget::GetDispatchMap
EXTRN	?GetConnectionMap@CCmdTarget@@MBEPBUAFX_CONNECTIONMAP@@XZ:PROC ; CCmdTarget::GetConnectionMap
EXTRN	?GetEventSinkMap@CCmdTarget@@MBEPBUAFX_EVENTSINKMAP@@XZ:PROC ; CCmdTarget::GetEventSinkMap
EXTRN	?OnCreateAggregates@CCmdTarget@@UAEHXZ:PROC	; CCmdTarget::OnCreateAggregates
EXTRN	?GetInterfaceHook@CCmdTarget@@UAEPAUIUnknown@@PBX@Z:PROC ; CCmdTarget::GetInterfaceHook
EXTRN	?GetExtraConnectionPoints@CCmdTarget@@MAEHPAVCPtrArray@@@Z:PROC ; CCmdTarget::GetExtraConnectionPoints
EXTRN	?GetConnectionHook@CCmdTarget@@MAEPAUIConnectionPoint@@ABU_GUID@@@Z:PROC ; CCmdTarget::GetConnectionHook
EXTRN	?PreSubclassWindow@CWnd@@UAEXXZ:PROC		; CWnd::PreSubclassWindow
EXTRN	?Create@CWnd@@UAEHPBD0KABUtagRECT@@PAV1@IPAUCCreateContext@@@Z:PROC ; CWnd::Create
EXTRN	?CreateEx@CWnd@@UAEHKPBD0KHHHHPAUHWND__@@PAUHMENU__@@PAX@Z:PROC ; CWnd::CreateEx
EXTRN	?CreateEx@CWnd@@UAEHKPBD0KABUtagRECT@@PAV1@IPAX@Z:PROC ; CWnd::CreateEx
EXTRN	?DestroyWindow@CWnd@@UAEHXZ:PROC		; CWnd::DestroyWindow
EXTRN	?PreCreateWindow@CWnd@@UAEHAAUtagCREATESTRUCTA@@@Z:PROC ; CWnd::PreCreateWindow
EXTRN	?CalcWindowRect@CWnd@@UAEXPAUtagRECT@@I@Z:PROC	; CWnd::CalcWindowRect
EXTRN	?GetDlgItem@CWnd@@QBEPAV1@H@Z:PROC		; CWnd::GetDlgItem
EXTRN	?SetWindowTextA@CWnd@@QAEXPBD@Z:PROC		; CWnd::SetWindowTextA
EXTRN	?GetMenu@CWnd@@UBEPAVCMenu@@XZ:PROC		; CWnd::GetMenu
EXTRN	?SetMenu@CWnd@@UAEHPAVCMenu@@@Z:PROC		; CWnd::SetMenu
EXTRN	?SetWindowPos@CWnd@@QAEHPBV1@HHHHI@Z:PROC	; CWnd::SetWindowPos
EXTRN	?ScreenToClient@CWnd@@QBEXPAUtagRECT@@@Z:PROC	; CWnd::ScreenToClient
EXTRN	?ShowWindow@CWnd@@QAEHH@Z:PROC			; CWnd::ShowWindow
EXTRN	?OnToolHitTest@CWnd@@UBEHVCPoint@@PAUtagTOOLINFOA@@@Z:PROC ; CWnd::OnToolHitTest
EXTRN	?EnableWindow@CWnd@@QAEHH@Z:PROC		; CWnd::EnableWindow
EXTRN	?GetScrollBarCtrl@CWnd@@UBEPAVCScrollBar@@H@Z:PROC ; CWnd::GetScrollBarCtrl
EXTRN	?UpdateData@CWnd@@QAEHH@Z:PROC			; CWnd::UpdateData
EXTRN	?WinHelpA@CWnd@@UAEXKI@Z:PROC			; CWnd::WinHelpA
EXTRN	?HtmlHelpA@CWnd@@UAEXKI@Z:PROC			; CWnd::HtmlHelpA
EXTRN	?WinHelpInternal@CWnd@@UAEXKI@Z:PROC		; CWnd::WinHelpInternal
EXTRN	?ContinueModal@CWnd@@UAEHXZ:PROC		; CWnd::ContinueModal
EXTRN	?EndModalLoop@CWnd@@UAEXH@Z:PROC		; CWnd::EndModalLoop
EXTRN	?OnDrawIconicThumbnailOrLivePreview@CWnd@@UAEXAAVCDC@@VCRect@@VCSize@@HAAH@Z:PROC ; CWnd::OnDrawIconicThumbnailOrLivePreview
EXTRN	?GetInterfaceMap@CWnd@@MBEPBUAFX_INTERFACEMAP@@XZ:PROC ; CWnd::GetInterfaceMap
EXTRN	?EnsureStdObj@CWnd@@UAEJXZ:PROC			; CWnd::EnsureStdObj
EXTRN	?get_accParent@CWnd@@UAEJPAPAUIDispatch@@@Z:PROC ; CWnd::get_accParent
EXTRN	?get_accChildCount@CWnd@@UAEJPAJ@Z:PROC		; CWnd::get_accChildCount
EXTRN	?get_accChild@CWnd@@UAEJUtagVARIANT@@PAPAUIDispatch@@@Z:PROC ; CWnd::get_accChild
EXTRN	?get_accName@CWnd@@UAEJUtagVARIANT@@PAPA_W@Z:PROC ; CWnd::get_accName
EXTRN	?get_accValue@CWnd@@UAEJUtagVARIANT@@PAPA_W@Z:PROC ; CWnd::get_accValue
EXTRN	?get_accDescription@CWnd@@UAEJUtagVARIANT@@PAPA_W@Z:PROC ; CWnd::get_accDescription
EXTRN	?get_accRole@CWnd@@UAEJUtagVARIANT@@PAU2@@Z:PROC ; CWnd::get_accRole
EXTRN	?get_accState@CWnd@@UAEJUtagVARIANT@@PAU2@@Z:PROC ; CWnd::get_accState
EXTRN	?get_accHelp@CWnd@@UAEJUtagVARIANT@@PAPA_W@Z:PROC ; CWnd::get_accHelp
EXTRN	?get_accHelpTopic@CWnd@@UAEJPAPA_WUtagVARIANT@@PAJ@Z:PROC ; CWnd::get_accHelpTopic
EXTRN	?get_accKeyboardShortcut@CWnd@@UAEJUtagVARIANT@@PAPA_W@Z:PROC ; CWnd::get_accKeyboardShortcut
EXTRN	?get_accFocus@CWnd@@UAEJPAUtagVARIANT@@@Z:PROC	; CWnd::get_accFocus
EXTRN	?get_accSelection@CWnd@@UAEJPAUtagVARIANT@@@Z:PROC ; CWnd::get_accSelection
EXTRN	?get_accDefaultAction@CWnd@@UAEJUtagVARIANT@@PAPA_W@Z:PROC ; CWnd::get_accDefaultAction
EXTRN	?accSelect@CWnd@@UAEJJUtagVARIANT@@@Z:PROC	; CWnd::accSelect
EXTRN	?accLocation@CWnd@@UAEJPAJ000UtagVARIANT@@@Z:PROC ; CWnd::accLocation
EXTRN	?accNavigate@CWnd@@UAEJJUtagVARIANT@@PAU2@@Z:PROC ; CWnd::accNavigate
EXTRN	?accHitTest@CWnd@@UAEJJJPAUtagVARIANT@@@Z:PROC	; CWnd::accHitTest
EXTRN	?accDoDefaultAction@CWnd@@UAEJUtagVARIANT@@@Z:PROC ; CWnd::accDoDefaultAction
EXTRN	?put_accName@CWnd@@UAEJUtagVARIANT@@PA_W@Z:PROC	; CWnd::put_accName
EXTRN	?put_accValue@CWnd@@UAEJUtagVARIANT@@PA_W@Z:PROC ; CWnd::put_accValue
EXTRN	?SetProxy@CWnd@@UAEJPAUIAccessibleProxy@@@Z:PROC ; CWnd::SetProxy
EXTRN	?CreateAccessibleProxy@CWnd@@UAEJIJPAJ@Z:PROC	; CWnd::CreateAccessibleProxy
EXTRN	?OnCommand@CWnd@@MAEHIJ@Z:PROC			; CWnd::OnCommand
EXTRN	?OnNotify@CWnd@@MAEHIJPAJ@Z:PROC		; CWnd::OnNotify
EXTRN	?GetSuperWndProcAddr@CWnd@@MAEPAP6GJPAUHWND__@@IIJ@ZXZ:PROC ; CWnd::GetSuperWndProcAddr
EXTRN	?OnAmbientProperty@CWnd@@UAEHPAVCOleControlSite@@JPAUtagVARIANT@@@Z:PROC ; CWnd::OnAmbientProperty
EXTRN	?WindowProc@CWnd@@MAEJIIJ@Z:PROC		; CWnd::WindowProc
EXTRN	?OnWndMsg@CWnd@@MAEHIIJPAJ@Z:PROC		; CWnd::OnWndMsg
EXTRN	?DefWindowProcA@CWnd@@MAEJIIJ@Z:PROC		; CWnd::DefWindowProcA
EXTRN	?PostNcDestroy@CWnd@@MAEXXZ:PROC		; CWnd::PostNcDestroy
EXTRN	?OnChildNotify@CWnd@@MAEHIIJPAJ@Z:PROC		; CWnd::OnChildNotify
EXTRN	?OnTouchInputs@CWnd@@MAEHIPAUtagTOUCHINPUT@@@Z:PROC ; CWnd::OnTouchInputs
EXTRN	?OnTouchInput@CWnd@@MAEHVCPoint@@HHPAUtagTOUCHINPUT@@@Z:PROC ; CWnd::OnTouchInput
EXTRN	?GetGestureStatus@CWnd@@MAEKVCPoint@@@Z:PROC	; CWnd::GetGestureStatus
EXTRN	?OnGestureZoom@CWnd@@MAEHVCPoint@@J@Z:PROC	; CWnd::OnGestureZoom
EXTRN	?OnGesturePan@CWnd@@MAEHVCPoint@@0@Z:PROC	; CWnd::OnGesturePan
EXTRN	?OnGestureRotate@CWnd@@MAEHVCPoint@@N@Z:PROC	; CWnd::OnGestureRotate
EXTRN	?OnGestureTwoFingerTap@CWnd@@MAEHVCPoint@@@Z:PROC ; CWnd::OnGestureTwoFingerTap
EXTRN	?OnGesturePressAndTap@CWnd@@MAEHVCPoint@@J@Z:PROC ; CWnd::OnGesturePressAndTap
EXTRN	?ResizeDynamicLayout@CWnd@@MAEXXZ:PROC		; CWnd::ResizeDynamicLayout
EXTRN	?IsFrameWnd@CWnd@@UBEHXZ:PROC			; CWnd::IsFrameWnd
EXTRN	?OnFinalRelease@CWnd@@UAEXXZ:PROC		; CWnd::OnFinalRelease
EXTRN	?CreateControlContainer@CWnd@@MAEHPAPAVCOleControlContainer@@@Z:PROC ; CWnd::CreateControlContainer
EXTRN	?CreateControlSite@CWnd@@MAEHPAVCOleControlContainer@@PAPAVCOleControlSite@@IABU_GUID@@@Z:PROC ; CWnd::CreateControlSite
EXTRN	?GetThisClass@CDialog@@SGPAUCRuntimeClass@@XZ:PROC ; CDialog::GetThisClass
EXTRN	?Create@CDialog@@UAEHPBDPAVCWnd@@@Z:PROC	; CDialog::Create
EXTRN	?CreateIndirect@CDialog@@UAEHPBUDLGTEMPLATE@@PAVCWnd@@PAX@Z:PROC ; CDialog::CreateIndirect
EXTRN	?CreateIndirect@CDialog@@UAEHPAXPAVCWnd@@@Z:PROC ; CDialog::CreateIndirect
EXTRN	??0CDialog@@QAE@IPAVCWnd@@@Z:PROC		; CDialog::CDialog
EXTRN	?DoModal@CDialog@@UAEHXZ:PROC			; CDialog::DoModal
EXTRN	?OnInitDialog@CDialog@@UAEHXZ:PROC		; CDialog::OnInitDialog
EXTRN	?OnSetFont@CDialog@@UAEXPAVCFont@@@Z:PROC	; CDialog::OnSetFont
EXTRN	?OnOK@CDialog@@MAEXXZ:PROC			; CDialog::OnOK
EXTRN	?OnCancel@CDialog@@MAEXXZ:PROC			; CDialog::OnCancel
EXTRN	??1CDialog@@UAE@XZ:PROC				; CDialog::~CDialog
EXTRN	?PreTranslateMessage@CDialog@@UAEHPAUtagMSG@@@Z:PROC ; CDialog::PreTranslateMessage
EXTRN	?OnCmdMsg@CDialog@@UAEHIHPAXPAUAFX_CMDHANDLERINFO@@@Z:PROC ; CDialog::OnCmdMsg
EXTRN	?CheckAutoCenter@CDialog@@UAEHXZ:PROC		; CDialog::CheckAutoCenter
EXTRN	?SetOccDialogInfo@CDialog@@MAEHPAU_AFX_OCC_DIALOG_INFO@@@Z:PROC ; CDialog::SetOccDialogInfo
EXTRN	?GetOccDialogInfo@CDialog@@MAEPAU_AFX_OCC_DIALOG_INFO@@XZ:PROC ; CDialog::GetOccDialogInfo
EXTRN	?PreInitDialog@CDialog@@MAEXXZ:PROC		; CDialog::PreInitDialog
EXTRN	?GetThisMessageMap@CDialog@@KGPBUAFX_MSGMAP@@XZ:PROC ; CDialog::GetThisMessageMap
EXTRN	??0CTabSubIndicatorSetUpCtrl@@QAE@XZ:PROC	; CTabSubIndicatorSetUpCtrl::CTabSubIndicatorSetUpCtrl
EXTRN	??1CTabSubIndicatorSetUpCtrl@@UAE@XZ:PROC	; CTabSubIndicatorSetUpCtrl::~CTabSubIndicatorSetUpCtrl
EXTRN	?Init@CTabSubIndicatorSetUpCtrl@@QAEXPAUIChartOCX135914@@PAVCTabParentDlg@@@Z:PROC ; CTabSubIndicatorSetUpCtrl::Init
EXTRN	?GetSubTab@CTabSubIndicatorSetUpCtrl@@QAEPAVCWnd@@H@Z:PROC ; CTabSubIndicatorSetUpCtrl::GetSubTab
EXTRN	?SetSubGraphName@CTabSubIndicatorSetUpCtrl@@QAEXV?$CStringT@DV?$StrTraitMFC_DLL@DV?$ChTraitsCRT@D@ATL@@@@@ATL@@@Z:PROC ; CTabSubIndicatorSetUpCtrl::SetSubGraphName
EXTRN	?Initial@CMakeChildDlg@@QAEXPAUIChartOCX135914@@PAUIGraphInfo135914@@PAVCWnd@@AAPAVCBaseDialog@@2@Z:PROC ; CMakeChildDlg::Initial
EXTRN	??_ECGraphSetting@@UAEPAXI@Z:PROC		; CGraphSetting::`vector deleting destructor'
EXTRN	?GetLanguageText@IMetaTable@@QAEPBDPAUHWND__@@W4E_CODEPAGE@1@PBDH@Z:PROC ; IMetaTable::GetLanguageText
EXTRN	@__security_check_cookie@4:PROC
EXTRN	___CxxFrameHandler3:PROC
EXTRN	??_7type_info@@6B@:QWORD			; type_info::`vftable'
EXTRN	__imp_?wndTop@CWnd@@2V1@B:BYTE
EXTRN	?g_iMetaTable@@3VIMetaTable@@A:BYTE		; g_iMetaTable
EXTRN	___security_cookie:DWORD
;	COMDAT ??_R4CGraphSetting@@6BCTabParentDlg@@@
rdata$r	SEGMENT
??_R4CGraphSetting@@6BCTabParentDlg@@@ DD 00H		; CGraphSetting::`RTTI Complete Object Locator'
	DD	0a8H
	DD	00H
	DD	FLAT:??_R0?AVCGraphSetting@@@8
	DD	FLAT:??_R3CGraphSetting@@8
rdata$r	ENDS
;	COMDAT ??_R1KI@?0A@EA@CTabParentDlg@@8
rdata$r	SEGMENT
??_R1KI@?0A@EA@CTabParentDlg@@8 DD FLAT:??_R0?AVCTabParentDlg@@@8 ; CTabParentDlg::`RTTI Base Class Descriptor at (168,-1,0,64)'
	DD	00H
	DD	0a8H
	DD	0ffffffffH
	DD	00H
	DD	040H
	DD	FLAT:??_R3CTabParentDlg@@8
rdata$r	ENDS
;	COMDAT ??_R1A@?0A@EA@CGraphSetting@@8
rdata$r	SEGMENT
??_R1A@?0A@EA@CGraphSetting@@8 DD FLAT:??_R0?AVCGraphSetting@@@8 ; CGraphSetting::`RTTI Base Class Descriptor at (0,-1,0,64)'
	DD	05H
	DD	00H
	DD	0ffffffffH
	DD	00H
	DD	040H
	DD	FLAT:??_R3CGraphSetting@@8
rdata$r	ENDS
;	COMDAT ??_R2CGraphSetting@@8
rdata$r	SEGMENT
??_R2CGraphSetting@@8 DD FLAT:??_R1A@?0A@EA@CGraphSetting@@8 ; CGraphSetting::`RTTI Base Class Array'
	DD	FLAT:??_R1A@?0A@EA@CDialog@@8
	DD	FLAT:??_R1A@?0A@EA@CWnd@@8
	DD	FLAT:??_R1A@?0A@EA@CCmdTarget@@8
	DD	FLAT:??_R1A@?0A@EA@CObject@@8
	DD	FLAT:??_R1KI@?0A@EA@CTabParentDlg@@8
rdata$r	ENDS
;	COMDAT ??_R3CGraphSetting@@8
rdata$r	SEGMENT
??_R3CGraphSetting@@8 DD 00H				; CGraphSetting::`RTTI Class Hierarchy Descriptor'
	DD	01H
	DD	06H
	DD	FLAT:??_R2CGraphSetting@@8
rdata$r	ENDS
;	COMDAT ??_R0?AVCGraphSetting@@@8
data$rs	SEGMENT
??_R0?AVCGraphSetting@@@8 DD FLAT:??_7type_info@@6B@	; CGraphSetting `RTTI Type Descriptor'
	DD	00H
	DB	'.?AVCGraphSetting@@', 00H
data$rs	ENDS
;	COMDAT ??_R4CGraphSetting@@6BCDialog@@@
rdata$r	SEGMENT
??_R4CGraphSetting@@6BCDialog@@@ DD 00H			; CGraphSetting::`RTTI Complete Object Locator'
	DD	00H
	DD	00H
	DD	FLAT:??_R0?AVCGraphSetting@@@8
	DD	FLAT:??_R3CGraphSetting@@8
rdata$r	ENDS
;	COMDAT ??_R1A@?0A@EA@CTabParentDlg@@8
rdata$r	SEGMENT
??_R1A@?0A@EA@CTabParentDlg@@8 DD FLAT:??_R0?AVCTabParentDlg@@@8 ; CTabParentDlg::`RTTI Base Class Descriptor at (0,-1,0,64)'
	DD	00H
	DD	00H
	DD	0ffffffffH
	DD	00H
	DD	040H
	DD	FLAT:??_R3CTabParentDlg@@8
rdata$r	ENDS
;	COMDAT ??_R2CTabParentDlg@@8
rdata$r	SEGMENT
??_R2CTabParentDlg@@8 DD FLAT:??_R1A@?0A@EA@CTabParentDlg@@8 ; CTabParentDlg::`RTTI Base Class Array'
rdata$r	ENDS
;	COMDAT ??_R3CTabParentDlg@@8
rdata$r	SEGMENT
??_R3CTabParentDlg@@8 DD 00H				; CTabParentDlg::`RTTI Class Hierarchy Descriptor'
	DD	00H
	DD	01H
	DD	FLAT:??_R2CTabParentDlg@@8
rdata$r	ENDS
;	COMDAT ??_R0?AVCTabParentDlg@@@8
data$rs	SEGMENT
??_R0?AVCTabParentDlg@@@8 DD FLAT:??_7type_info@@6B@	; CTabParentDlg `RTTI Type Descriptor'
	DD	00H
	DB	'.?AVCTabParentDlg@@', 00H
data$rs	ENDS
;	COMDAT ??_R4CTabParentDlg@@6B@
rdata$r	SEGMENT
??_R4CTabParentDlg@@6B@ DD 00H				; CTabParentDlg::`RTTI Complete Object Locator'
	DD	00H
	DD	00H
	DD	FLAT:??_R0?AVCTabParentDlg@@@8
	DD	FLAT:??_R3CTabParentDlg@@8
rdata$r	ENDS
;	COMDAT ?messageMap@?1??GetThisMessageMap@CGraphSetting@@KGPBUAFX_MSGMAP@@XZ@4U3@B
CONST	SEGMENT
?messageMap@?1??GetThisMessageMap@CGraphSetting@@KGPBUAFX_MSGMAP@@XZ@4U3@B DD FLAT:?GetThisMessageMap@CDialog@@KGPBUAFX_MSGMAP@@XZ ; `CGraphSetting::GetThisMessageMap'::`2'::messageMap
	DD	FLAT:?_messageEntries@?1??GetThisMessageMap@CGraphSetting@@KGPBUAFX_MSGMAP@@XZ@4QBUAFX_MSGMAP_ENTRY@@B
CONST	ENDS
;	COMDAT ?_messageEntries@?1??GetThisMessageMap@CGraphSetting@@KGPBUAFX_MSGMAP@@XZ@4QBUAFX_MSGMAP_ENTRY@@B
CONST	SEGMENT
?_messageEntries@?1??GetThisMessageMap@CGraphSetting@@KGPBUAFX_MSGMAP@@XZ@4QBUAFX_MSGMAP_ENTRY@@B DD 0111H ; `CGraphSetting::GetThisMessageMap'::`2'::_messageEntries
	DD	00H
	DD	0410H
	DD	0410H
	DD	03aH
	DD	FLAT:?OnAllDelete@CGraphSetting@@IAEXXZ
	DD	0111H
	DD	00H
	DD	0449H
	DD	0449H
	DD	03aH
	DD	FLAT:?OnChkWithDefault@CGraphSetting@@IAEXXZ
	DD	06bdH
	DD	00H
	DD	00H
	DD	00H
	DD	0eH
	DD	FLAT:?OnInsertOscillator@CGraphSetting@@IAEJIJ@Z
	DD	00H
	DD	00H
	DD	00H
	DD	00H
	DD	00H
	DD	00H
CONST	ENDS
;	COMDAT ??_C@_0O@CLKGAOCK@CGraphSetting@
CONST	SEGMENT
??_C@_0O@CLKGAOCK@CGraphSetting@ DB 'CGraphSetting', 00H ; `string'
CONST	ENDS
;	COMDAT ??_7CGraphSetting@@6BCTabParentDlg@@@
CONST	SEGMENT
??_7CGraphSetting@@6BCTabParentDlg@@@ DD FLAT:??_R4CGraphSetting@@6BCTabParentDlg@@@ ; CGraphSetting::`vftable'
	DD	FLAT:?ShowChildDialog@CGraphSetting@@UAEXH@Z
CONST	ENDS
;	COMDAT ??_7CGraphSetting@@6BCDialog@@@
CONST	SEGMENT
??_7CGraphSetting@@6BCDialog@@@ DD FLAT:??_R4CGraphSetting@@6BCDialog@@@ ; CGraphSetting::`vftable'
	DD	FLAT:?GetRuntimeClass@CGraphSetting@@UBEPAUCRuntimeClass@@XZ
	DD	FLAT:??_ECGraphSetting@@UAEPAXI@Z
	DD	FLAT:?Serialize@CObject@@UAEXAAVCArchive@@@Z
	DD	FLAT:?AssertValid@CObject@@UBEXXZ
	DD	FLAT:?Dump@CObject@@UBEXAAVCDumpContext@@@Z
	DD	FLAT:?OnCmdMsg@CDialog@@UAEHIHPAXPAUAFX_CMDHANDLERINFO@@@Z
	DD	FLAT:?OnFinalRelease@CWnd@@UAEXXZ
	DD	FLAT:?IsInvokeAllowed@CCmdTarget@@UAEHJ@Z
	DD	FLAT:?GetDispatchIID@CCmdTarget@@UAEHPAU_GUID@@@Z
	DD	FLAT:?GetTypeInfoCount@CCmdTarget@@UAEIXZ
	DD	FLAT:?GetTypeLibCache@CCmdTarget@@UAEPAVCTypeLibCache@@XZ
	DD	FLAT:?GetTypeLib@CCmdTarget@@UAEJKPAPAUITypeLib@@@Z
	DD	FLAT:?GetMessageMap@CGraphSetting@@MBEPBUAFX_MSGMAP@@XZ
	DD	FLAT:?GetCommandMap@CCmdTarget@@MBEPBUAFX_OLECMDMAP@@XZ
	DD	FLAT:?GetDispatchMap@CCmdTarget@@MBEPBUAFX_DISPMAP@@XZ
	DD	FLAT:?GetConnectionMap@CCmdTarget@@MBEPBUAFX_CONNECTIONMAP@@XZ
	DD	FLAT:?GetInterfaceMap@CWnd@@MBEPBUAFX_INTERFACEMAP@@XZ
	DD	FLAT:?GetEventSinkMap@CCmdTarget@@MBEPBUAFX_EVENTSINKMAP@@XZ
	DD	FLAT:?OnCreateAggregates@CCmdTarget@@UAEHXZ
	DD	FLAT:?GetInterfaceHook@CCmdTarget@@UAEPAUIUnknown@@PBX@Z
	DD	FLAT:?GetExtraConnectionPoints@CCmdTarget@@MAEHPAVCPtrArray@@@Z
	DD	FLAT:?GetConnectionHook@CCmdTarget@@MAEPAUIConnectionPoint@@ABU_GUID@@@Z
	DD	FLAT:?PreSubclassWindow@CWnd@@UAEXXZ
	DD	FLAT:?Create@CWnd@@UAEHPBD0KABUtagRECT@@PAV1@IPAUCCreateContext@@@Z
	DD	FLAT:?CreateEx@CWnd@@UAEHKPBD0KABUtagRECT@@PAV1@IPAX@Z
	DD	FLAT:?CreateEx@CWnd@@UAEHKPBD0KHHHHPAUHWND__@@PAUHMENU__@@PAX@Z
	DD	FLAT:?DestroyWindow@CWnd@@UAEHXZ
	DD	FLAT:?PreCreateWindow@CWnd@@UAEHAAUtagCREATESTRUCTA@@@Z
	DD	FLAT:?CalcWindowRect@CWnd@@UAEXPAUtagRECT@@I@Z
	DD	FLAT:?GetMenu@CWnd@@UBEPAVCMenu@@XZ
	DD	FLAT:?SetMenu@CWnd@@UAEHPAVCMenu@@@Z
	DD	FLAT:?OnToolHitTest@CWnd@@UBEHVCPoint@@PAUtagTOOLINFOA@@@Z
	DD	FLAT:?GetScrollBarCtrl@CWnd@@UBEPAVCScrollBar@@H@Z
	DD	FLAT:?WinHelpA@CWnd@@UAEXKI@Z
	DD	FLAT:?HtmlHelpA@CWnd@@UAEXKI@Z
	DD	FLAT:?WinHelpInternal@CWnd@@UAEXKI@Z
	DD	FLAT:?ContinueModal@CWnd@@UAEHXZ
	DD	FLAT:?EndModalLoop@CWnd@@UAEXH@Z
	DD	FLAT:?OnDrawIconicThumbnailOrLivePreview@CWnd@@UAEXAAVCDC@@VCRect@@VCSize@@HAAH@Z
	DD	FLAT:?EnsureStdObj@CWnd@@UAEJXZ
	DD	FLAT:?get_accParent@CWnd@@UAEJPAPAUIDispatch@@@Z
	DD	FLAT:?get_accChildCount@CWnd@@UAEJPAJ@Z
	DD	FLAT:?get_accChild@CWnd@@UAEJUtagVARIANT@@PAPAUIDispatch@@@Z
	DD	FLAT:?get_accName@CWnd@@UAEJUtagVARIANT@@PAPA_W@Z
	DD	FLAT:?get_accValue@CWnd@@UAEJUtagVARIANT@@PAPA_W@Z
	DD	FLAT:?get_accDescription@CWnd@@UAEJUtagVARIANT@@PAPA_W@Z
	DD	FLAT:?get_accRole@CWnd@@UAEJUtagVARIANT@@PAU2@@Z
	DD	FLAT:?get_accState@CWnd@@UAEJUtagVARIANT@@PAU2@@Z
	DD	FLAT:?get_accHelp@CWnd@@UAEJUtagVARIANT@@PAPA_W@Z
	DD	FLAT:?get_accHelpTopic@CWnd@@UAEJPAPA_WUtagVARIANT@@PAJ@Z
	DD	FLAT:?get_accKeyboardShortcut@CWnd@@UAEJUtagVARIANT@@PAPA_W@Z
	DD	FLAT:?get_accFocus@CWnd@@UAEJPAUtagVARIANT@@@Z
	DD	FLAT:?get_accSelection@CWnd@@UAEJPAUtagVARIANT@@@Z
	DD	FLAT:?get_accDefaultAction@CWnd@@UAEJUtagVARIANT@@PAPA_W@Z
	DD	FLAT:?accSelect@CWnd@@UAEJJUtagVARIANT@@@Z
	DD	FLAT:?accLocation@CWnd@@UAEJPAJ000UtagVARIANT@@@Z
	DD	FLAT:?accNavigate@CWnd@@UAEJJUtagVARIANT@@PAU2@@Z
	DD	FLAT:?accHitTest@CWnd@@UAEJJJPAUtagVARIANT@@@Z
	DD	FLAT:?accDoDefaultAction@CWnd@@UAEJUtagVARIANT@@@Z
	DD	FLAT:?put_accName@CWnd@@UAEJUtagVARIANT@@PA_W@Z
	DD	FLAT:?put_accValue@CWnd@@UAEJUtagVARIANT@@PA_W@Z
	DD	FLAT:?SetProxy@CWnd@@UAEJPAUIAccessibleProxy@@@Z
	DD	FLAT:?CreateAccessibleProxy@CWnd@@UAEJIJPAJ@Z
	DD	FLAT:?OnCommand@CWnd@@MAEHIJ@Z
	DD	FLAT:?OnNotify@CWnd@@MAEHIJPAJ@Z
	DD	FLAT:?GetSuperWndProcAddr@CWnd@@MAEPAP6GJPAUHWND__@@IIJ@ZXZ
	DD	FLAT:?DoDataExchange@CGraphSetting@@MAEXPAVCDataExchange@@@Z
	DD	FLAT:?BeginModalState@CWnd@@UAEXXZ
	DD	FLAT:?EndModalState@CWnd@@UAEXXZ
	DD	FLAT:?PreTranslateMessage@CGraphSetting@@UAEHPAUtagMSG@@@Z
	DD	FLAT:?OnAmbientProperty@CWnd@@UAEHPAVCOleControlSite@@JPAUtagVARIANT@@@Z
	DD	FLAT:?WindowProc@CWnd@@MAEJIIJ@Z
	DD	FLAT:?OnWndMsg@CWnd@@MAEHIIJPAJ@Z
	DD	FLAT:?DefWindowProcA@CWnd@@MAEJIIJ@Z
	DD	FLAT:?PostNcDestroy@CWnd@@MAEXXZ
	DD	FLAT:?OnChildNotify@CWnd@@MAEHIIJPAJ@Z
	DD	FLAT:?OnTouchInputs@CWnd@@MAEHIPAUtagTOUCHINPUT@@@Z
	DD	FLAT:?OnTouchInput@CWnd@@MAEHVCPoint@@HHPAUtagTOUCHINPUT@@@Z
	DD	FLAT:?GetGestureStatus@CWnd@@MAEKVCPoint@@@Z
	DD	FLAT:?OnGestureZoom@CWnd@@MAEHVCPoint@@J@Z
	DD	FLAT:?OnGesturePan@CWnd@@MAEHVCPoint@@0@Z
	DD	FLAT:?OnGestureRotate@CWnd@@MAEHVCPoint@@N@Z
	DD	FLAT:?OnGestureTwoFingerTap@CWnd@@MAEHVCPoint@@@Z
	DD	FLAT:?OnGesturePressAndTap@CWnd@@MAEHVCPoint@@J@Z
	DD	FLAT:?ResizeDynamicLayout@CWnd@@MAEXXZ
	DD	FLAT:?CheckAutoCenter@CDialog@@UAEHXZ
	DD	FLAT:?IsFrameWnd@CWnd@@UBEHXZ
	DD	FLAT:?CreateControlContainer@CWnd@@MAEHPAPAVCOleControlContainer@@@Z
	DD	FLAT:?CreateControlSite@CWnd@@MAEHPAVCOleControlContainer@@PAPAVCOleControlSite@@IABU_GUID@@@Z
	DD	FLAT:?SetOccDialogInfo@CDialog@@MAEHPAU_AFX_OCC_DIALOG_INFO@@@Z
	DD	FLAT:?GetOccDialogInfo@CDialog@@MAEPAU_AFX_OCC_DIALOG_INFO@@XZ
	DD	FLAT:?Create@CDialog@@UAEHIPAVCWnd@@@Z
	DD	FLAT:?Create@CDialog@@UAEHPBDPAVCWnd@@@Z
	DD	FLAT:?CreateIndirect@CDialog@@UAEHPAXPAVCWnd@@@Z
	DD	FLAT:?CreateIndirect@CDialog@@UAEHPBUDLGTEMPLATE@@PAVCWnd@@PAX@Z
	DD	FLAT:?DoModal@CDialog@@UAEHXZ
	DD	FLAT:?OnInitDialog@CGraphSetting@@MAEHXZ
	DD	FLAT:?OnSetFont@CDialog@@UAEXPAVCFont@@@Z
	DD	FLAT:?OnOK@CGraphSetting@@MAEXXZ
	DD	FLAT:?OnCancel@CGraphSetting@@MAEXXZ
	DD	FLAT:?PreInitDialog@CDialog@@MAEXXZ
CONST	ENDS
;	COMDAT ?classCGraphSetting@CGraphSetting@@2UCRuntimeClass@@B
CONST	SEGMENT
?classCGraphSetting@CGraphSetting@@2UCRuntimeClass@@B DD FLAT:??_C@_0O@CLKGAOCK@CGraphSetting@ ; CGraphSetting::classCGraphSetting
	DD	0190H
	DD	0ffffH
	DD	00H
	DD	FLAT:?_GetBaseClass@CGraphSetting@@KGPAUCRuntimeClass@@XZ
	DD	00H
	DD	00H
CONST	ENDS
;	COMDAT ??_7CTabParentDlg@@6B@
CONST	SEGMENT
??_7CTabParentDlg@@6B@ DD FLAT:??_R4CTabParentDlg@@6B@	; CTabParentDlg::`vftable'
	DD	FLAT:__purecall
CONST	ENDS
;	COMDAT ??_R2CDialog@@8
rdata$r	SEGMENT
??_R2CDialog@@8 DD FLAT:??_R1A@?0A@EA@CDialog@@8	; CDialog::`RTTI Base Class Array'
	DD	FLAT:??_R1A@?0A@EA@CWnd@@8
	DD	FLAT:??_R1A@?0A@EA@CCmdTarget@@8
	DD	FLAT:??_R1A@?0A@EA@CObject@@8
rdata$r	ENDS
;	COMDAT ??_R3CDialog@@8
rdata$r	SEGMENT
??_R3CDialog@@8 DD 00H					; CDialog::`RTTI Class Hierarchy Descriptor'
	DD	00H
	DD	04H
	DD	FLAT:??_R2CDialog@@8
rdata$r	ENDS
;	COMDAT ??_R0?AVCDialog@@@8
data$rs	SEGMENT
??_R0?AVCDialog@@@8 DD FLAT:??_7type_info@@6B@		; CDialog `RTTI Type Descriptor'
	DD	00H
	DB	'.?AVCDialog@@', 00H
data$rs	ENDS
;	COMDAT ??_R1A@?0A@EA@CDialog@@8
rdata$r	SEGMENT
??_R1A@?0A@EA@CDialog@@8 DD FLAT:??_R0?AVCDialog@@@8	; CDialog::`RTTI Base Class Descriptor at (0,-1,0,64)'
	DD	03H
	DD	00H
	DD	0ffffffffH
	DD	00H
	DD	040H
	DD	FLAT:??_R3CDialog@@8
rdata$r	ENDS
;	COMDAT ??_R2CCmdTarget@@8
rdata$r	SEGMENT
??_R2CCmdTarget@@8 DD FLAT:??_R1A@?0A@EA@CCmdTarget@@8	; CCmdTarget::`RTTI Base Class Array'
	DD	FLAT:??_R1A@?0A@EA@CObject@@8
rdata$r	ENDS
;	COMDAT ??_R3CCmdTarget@@8
rdata$r	SEGMENT
??_R3CCmdTarget@@8 DD 00H				; CCmdTarget::`RTTI Class Hierarchy Descriptor'
	DD	00H
	DD	02H
	DD	FLAT:??_R2CCmdTarget@@8
rdata$r	ENDS
;	COMDAT ??_R0?AVCCmdTarget@@@8
data$rs	SEGMENT
??_R0?AVCCmdTarget@@@8 DD FLAT:??_7type_info@@6B@	; CCmdTarget `RTTI Type Descriptor'
	DD	00H
	DB	'.?AVCCmdTarget@@', 00H
data$rs	ENDS
;	COMDAT ??_R1A@?0A@EA@CCmdTarget@@8
rdata$r	SEGMENT
??_R1A@?0A@EA@CCmdTarget@@8 DD FLAT:??_R0?AVCCmdTarget@@@8 ; CCmdTarget::`RTTI Base Class Descriptor at (0,-1,0,64)'
	DD	01H
	DD	00H
	DD	0ffffffffH
	DD	00H
	DD	040H
	DD	FLAT:??_R3CCmdTarget@@8
rdata$r	ENDS
;	COMDAT ??_R2CWnd@@8
rdata$r	SEGMENT
??_R2CWnd@@8 DD	FLAT:??_R1A@?0A@EA@CWnd@@8		; CWnd::`RTTI Base Class Array'
	DD	FLAT:??_R1A@?0A@EA@CCmdTarget@@8
	DD	FLAT:??_R1A@?0A@EA@CObject@@8
rdata$r	ENDS
;	COMDAT ??_R3CWnd@@8
rdata$r	SEGMENT
??_R3CWnd@@8 DD	00H					; CWnd::`RTTI Class Hierarchy Descriptor'
	DD	00H
	DD	03H
	DD	FLAT:??_R2CWnd@@8
rdata$r	ENDS
;	COMDAT ??_R0?AVCWnd@@@8
data$rs	SEGMENT
??_R0?AVCWnd@@@8 DD FLAT:??_7type_info@@6B@		; CWnd `RTTI Type Descriptor'
	DD	00H
	DB	'.?AVCWnd@@', 00H
data$rs	ENDS
;	COMDAT ??_R1A@?0A@EA@CWnd@@8
rdata$r	SEGMENT
??_R1A@?0A@EA@CWnd@@8 DD FLAT:??_R0?AVCWnd@@@8		; CWnd::`RTTI Base Class Descriptor at (0,-1,0,64)'
	DD	02H
	DD	00H
	DD	0ffffffffH
	DD	00H
	DD	040H
	DD	FLAT:??_R3CWnd@@8
rdata$r	ENDS
;	COMDAT ??_R1A@?0A@EA@CObject@@8
rdata$r	SEGMENT
??_R1A@?0A@EA@CObject@@8 DD FLAT:??_R0?AVCObject@@@8	; CObject::`RTTI Base Class Descriptor at (0,-1,0,64)'
	DD	00H
	DD	00H
	DD	0ffffffffH
	DD	00H
	DD	040H
	DD	FLAT:??_R3CObject@@8
rdata$r	ENDS
;	COMDAT ??_R2CObject@@8
rdata$r	SEGMENT
??_R2CObject@@8 DD FLAT:??_R1A@?0A@EA@CObject@@8	; CObject::`RTTI Base Class Array'
rdata$r	ENDS
;	COMDAT ??_R3CObject@@8
rdata$r	SEGMENT
??_R3CObject@@8 DD 00H					; CObject::`RTTI Class Hierarchy Descriptor'
	DD	00H
	DD	01H
	DD	FLAT:??_R2CObject@@8
rdata$r	ENDS
;	COMDAT ??_R0?AVCObject@@@8
data$rs	SEGMENT
??_R0?AVCObject@@@8 DD FLAT:??_7type_info@@6B@		; CObject `RTTI Type Descriptor'
	DD	00H
	DB	'.?AVCObject@@', 00H
data$rs	ENDS
;	COMDAT xdata$x
xdata$x	SEGMENT
__unwindtable$??_GCGraphSetting@@UAEPAXI@Z DD 0ffffffffH
	DD	FLAT:___std_terminate
__ehfuncinfo$??_GCGraphSetting@@UAEPAXI@Z DD 019930522H
	DD	01H
	DD	FLAT:__unwindtable$??_GCGraphSetting@@UAEPAXI@Z
	DD	2 DUP(00H)
	DD	2 DUP(00H)
	DD	00H
	DD	05H
xdata$x	ENDS
;	COMDAT xdata$x
xdata$x	SEGMENT
__unwindtable$?OnOK@CGraphSetting@@MAEXXZ DD 0ffffffffH
	DD	FLAT:__unwindfunclet$?OnOK@CGraphSetting@@MAEXXZ$0
	DD	0ffffffffH
	DD	FLAT:___std_terminate
__ehfuncinfo$?OnOK@CGraphSetting@@MAEXXZ DD 019930522H
	DD	02H
	DD	FLAT:__unwindtable$?OnOK@CGraphSetting@@MAEXXZ
	DD	2 DUP(00H)
	DD	2 DUP(00H)
	DD	00H
	DD	01H
xdata$x	ENDS
;	COMDAT xdata$x
xdata$x	SEGMENT
__unwindtable$?OnInitDialog@CGraphSetting@@MAEHXZ DD 0ffffffffH
	DD	FLAT:__unwindfunclet$?OnInitDialog@CGraphSetting@@MAEHXZ$0
	DD	0ffffffffH
	DD	FLAT:___std_terminate
__ehfuncinfo$?OnInitDialog@CGraphSetting@@MAEHXZ DD 019930522H
	DD	02H
	DD	FLAT:__unwindtable$?OnInitDialog@CGraphSetting@@MAEHXZ
	DD	2 DUP(00H)
	DD	2 DUP(00H)
	DD	00H
	DD	01H
xdata$x	ENDS
;	COMDAT xdata$x
xdata$x	SEGMENT
__ehfuncinfo$??1CGraphSetting@@UAE@XZ DD 019930522H
	DD	00H
	DD	00H
	DD	2 DUP(00H)
	DD	2 DUP(00H)
	DD	00H
	DD	05H
xdata$x	ENDS
;	COMDAT xdata$x
xdata$x	SEGMENT
__unwindtable$??0CGraphSetting@@QAE@PAUIChartOCX135914@@HPAVCWnd@@@Z DD 0ffffffffH
	DD	FLAT:__unwindfunclet$??0CGraphSetting@@QAE@PAUIChartOCX135914@@HPAVCWnd@@@Z$0
	DD	00H
	DD	FLAT:__unwindfunclet$??0CGraphSetting@@QAE@PAUIChartOCX135914@@HPAVCWnd@@@Z$1
__ehfuncinfo$??0CGraphSetting@@QAE@PAUIChartOCX135914@@HPAVCWnd@@@Z DD 019930522H
	DD	02H
	DD	FLAT:__unwindtable$??0CGraphSetting@@QAE@PAUIChartOCX135914@@HPAVCWnd@@@Z
	DD	2 DUP(00H)
	DD	2 DUP(00H)
	DD	00H
	DD	01H
xdata$x	ENDS
;	COMDAT xdata$x
xdata$x	SEGMENT
__ehfuncinfo$??1ILPCSTR135914@@QAE@XZ DD 019930522H
	DD	00H
	DD	00H
	DD	2 DUP(00H)
	DD	2 DUP(00H)
	DD	00H
	DD	05H
xdata$x	ENDS
; Function compile flags: /Ogtp
; File D:\git\src\IBK\IBK_DRFN\ProjSrc\SrcChartEx\ChartAddIn\ChartEnvSetupDlgAddIn\ChartEnvSetupDlgAddIn\GraphSetting.cpp
; File C:\Program Files (x86)\Microsoft Visual Studio\2019\Community\VC\Tools\MSVC\14.29.30133\atlmfc\include\afx.inl
;	COMDAT ??_GCGraphSetting@@UAEPAXI@Z
_TEXT	SEGMENT
__$EHRec$ = -12						; size = 12
___flags$ = 8						; size = 4
??_GCGraphSetting@@UAEPAXI@Z PROC			; CGraphSetting::`scalar deleting destructor', COMDAT
; _this$ = ecx
  00000	55		 push	 ebp
  00001	8b ec		 mov	 ebp, esp
  00003	6a ff		 push	 -1
  00005	68 00 00 00 00	 push	 __ehhandler$??_GCGraphSetting@@UAEPAXI@Z
  0000a	64 a1 00 00 00
	00		 mov	 eax, DWORD PTR fs:0
  00010	50		 push	 eax
  00011	56		 push	 esi
  00012	a1 00 00 00 00	 mov	 eax, DWORD PTR ___security_cookie
  00017	33 c5		 xor	 eax, ebp
  00019	50		 push	 eax
  0001a	8d 45 f4	 lea	 eax, DWORD PTR __$EHRec$[ebp]
  0001d	64 a3 00 00 00
	00		 mov	 DWORD PTR fs:0, eax
  00023	8b f1		 mov	 esi, ecx
; File D:\git\src\IBK\IBK_DRFN\ProjSrc\SrcChartEx\ChartAddIn\ChartEnvSetupDlgAddIn\ChartEnvSetupDlgAddIn\GraphSetting.cpp

; 269  : 	if( m_pChildDlg != NULL)

  00025	8b 8e 6c 01 00
	00		 mov	 ecx, DWORD PTR [esi+364]

; 69   : {

  0002b	c7 45 fc 00 00
	00 00		 mov	 DWORD PTR __$EHRec$[ebp+8], 0
  00032	c7 06 00 00 00
	00		 mov	 DWORD PTR [esi], OFFSET ??_7CGraphSetting@@6BCDialog@@@
  00038	c7 86 a8 00 00
	00 00 00 00 00	 mov	 DWORD PTR [esi+168], OFFSET ??_7CGraphSetting@@6BCTabParentDlg@@@

; 269  : 	if( m_pChildDlg != NULL)

  00042	85 c9		 test	 ecx, ecx
  00044	74 20		 je	 SHORT $LN17@scalar

; 270  : 	{
; 271  : 		m_pChildDlg->DestroyWindow();

  00046	8b 01		 mov	 eax, DWORD PTR [ecx]
  00048	ff 50 68	 call	 DWORD PTR [eax+104]

; 272  : 		delete m_pChildDlg;

  0004b	8b 8e 6c 01 00
	00		 mov	 ecx, DWORD PTR [esi+364]
  00051	85 c9		 test	 ecx, ecx
  00053	74 07		 je	 SHORT $LN19@scalar
  00055	8b 01		 mov	 eax, DWORD PTR [ecx]
  00057	6a 01		 push	 1
  00059	ff 50 04	 call	 DWORD PTR [eax+4]
$LN19@scalar:

; 273  : 		m_pChildDlg = NULL;

  0005c	c7 86 6c 01 00
	00 00 00 00 00	 mov	 DWORD PTR [esi+364], 0
$LN17@scalar:

; 73   : 	if( m_pIChartOCX) m_pIChartOCX->Release();

  00066	8b 8e 4c 01 00
	00		 mov	 ecx, DWORD PTR [esi+332]
  0006c	85 c9		 test	 ecx, ecx
  0006e	74 06		 je	 SHORT $LN8@scalar
  00070	8b 01		 mov	 eax, DWORD PTR [ecx]
  00072	51		 push	 ecx
  00073	ff 50 08	 call	 DWORD PTR [eax+8]
$LN8@scalar:

; 74   : 
; 75   : 	// (2004.10.11, 배승원) OCX로부터 주요 Manager의 Interface를 구하여 관리한다.
; 76   : 	if( m_pIPacketManager)

  00076	8b 8e 50 01 00
	00		 mov	 ecx, DWORD PTR [esi+336]
  0007c	85 c9		 test	 ecx, ecx
  0007e	74 10		 je	 SHORT $LN9@scalar

; 77   : 	{
; 78   : 		m_pIPacketManager->Release();

  00080	8b 01		 mov	 eax, DWORD PTR [ecx]
  00082	51		 push	 ecx
  00083	ff 50 08	 call	 DWORD PTR [eax+8]

; 79   : 		m_pIPacketManager = NULL;

  00086	c7 86 50 01 00
	00 00 00 00 00	 mov	 DWORD PTR [esi+336], 0
$LN9@scalar:

; 80   : 	}
; 81   : 	if( m_pIChartManager)

  00090	8b 8e 54 01 00
	00		 mov	 ecx, DWORD PTR [esi+340]
  00096	85 c9		 test	 ecx, ecx
  00098	74 10		 je	 SHORT $LN10@scalar

; 82   : 	{
; 83   : 		m_pIChartManager->Release();

  0009a	8b 01		 mov	 eax, DWORD PTR [ecx]
  0009c	51		 push	 ecx
  0009d	ff 50 08	 call	 DWORD PTR [eax+8]

; 84   : 		m_pIChartManager = NULL;

  000a0	c7 86 54 01 00
	00 00 00 00 00	 mov	 DWORD PTR [esi+340], 0
$LN10@scalar:

; 85   : 	}
; 86   : 	if( m_pIGraphInfoManager)

  000aa	8b 8e 58 01 00
	00		 mov	 ecx, DWORD PTR [esi+344]
  000b0	85 c9		 test	 ecx, ecx
  000b2	74 10		 je	 SHORT $LN11@scalar

; 87   : 	{
; 88   : 		m_pIGraphInfoManager->Release();

  000b4	8b 01		 mov	 eax, DWORD PTR [ecx]
  000b6	51		 push	 ecx
  000b7	ff 50 08	 call	 DWORD PTR [eax+8]

; 89   : 		m_pIGraphInfoManager = NULL;

  000ba	c7 86 58 01 00
	00 00 00 00 00	 mov	 DWORD PTR [esi+344], 0
$LN11@scalar:

; 90   : 	}
; 91   : 	if( m_pIAddInToolMgr)

  000c4	8b 8e 5c 01 00
	00		 mov	 ecx, DWORD PTR [esi+348]
  000ca	85 c9		 test	 ecx, ecx
  000cc	74 10		 je	 SHORT $LN12@scalar

; 92   : 	{
; 93   : 		m_pIAddInToolMgr->Release();

  000ce	8b 01		 mov	 eax, DWORD PTR [ecx]
  000d0	51		 push	 ecx
  000d1	ff 50 08	 call	 DWORD PTR [eax+8]

; 94   : 		m_pIAddInToolMgr = NULL;

  000d4	c7 86 5c 01 00
	00 00 00 00 00	 mov	 DWORD PTR [esi+348], 0
$LN12@scalar:

; 95   : 	}
; 96   : 	if( m_pIGraphInfo)

  000de	8b 8e 74 01 00
	00		 mov	 ecx, DWORD PTR [esi+372]
  000e4	85 c9		 test	 ecx, ecx
  000e6	74 10		 je	 SHORT $LN13@scalar

; 97   : 	{
; 98   : 		m_pIGraphInfo->Release();

  000e8	8b 01		 mov	 eax, DWORD PTR [ecx]
  000ea	51		 push	 ecx
  000eb	ff 50 08	 call	 DWORD PTR [eax+8]

; 99   : 		m_pIGraphInfo = NULL;

  000ee	c7 86 74 01 00
	00 00 00 00 00	 mov	 DWORD PTR [esi+372], 0
$LN13@scalar:

; 100  : 	}
; 101  : }

  000f8	8d 8e b0 00 00
	00		 lea	 ecx, DWORD PTR [esi+176]
  000fe	e8 00 00 00 00	 call	 ??1CTabSubIndicatorSetUpCtrl@@UAE@XZ ; CTabSubIndicatorSetUpCtrl::~CTabSubIndicatorSetUpCtrl
  00103	8b ce		 mov	 ecx, esi
  00105	e8 00 00 00 00	 call	 ??1CDialog@@UAE@XZ	; CDialog::~CDialog
  0010a	8b 45 08	 mov	 eax, DWORD PTR ___flags$[ebp]
  0010d	a8 01		 test	 al, 1
  0010f	74 2f		 je	 SHORT $LN23@scalar
  00111	a8 04		 test	 al, 4
  00113	75 1d		 jne	 SHORT $LN3@scalar
; File C:\Program Files (x86)\Microsoft Visual Studio\2019\Community\VC\Tools\MSVC\14.29.30133\atlmfc\include\afx.inl

; 112  : 	{ ::operator delete(p); }

  00115	56		 push	 esi
  00116	e8 00 00 00 00	 call	 ??3@YAXPAX@Z		; operator delete
  0011b	83 c4 04	 add	 esp, 4
  0011e	8b c6		 mov	 eax, esi
  00120	8b 4d f4	 mov	 ecx, DWORD PTR __$EHRec$[ebp]
  00123	64 89 0d 00 00
	00 00		 mov	 DWORD PTR fs:0, ecx
  0012a	59		 pop	 ecx
  0012b	5e		 pop	 esi
  0012c	8b e5		 mov	 esp, ebp
  0012e	5d		 pop	 ebp
  0012f	c2 04 00	 ret	 4
$LN3@scalar:
  00132	68 90 01 00 00	 push	 400			; 00000190H
  00137	56		 push	 esi
  00138	e8 00 00 00 00	 call	 ?__global_delete@@YAXPAXI@Z ; __global_delete
  0013d	83 c4 08	 add	 esp, 8
$LN23@scalar:
  00140	8b c6		 mov	 eax, esi
  00142	8b 4d f4	 mov	 ecx, DWORD PTR __$EHRec$[ebp]
  00145	64 89 0d 00 00
	00 00		 mov	 DWORD PTR fs:0, ecx
  0014c	59		 pop	 ecx
  0014d	5e		 pop	 esi
  0014e	8b e5		 mov	 esp, ebp
  00150	5d		 pop	 ebp
  00151	c2 04 00	 ret	 4
  00154	cc		 int	 3
  00155	cc		 int	 3
  00156	cc		 int	 3
  00157	cc		 int	 3
  00158	cc		 int	 3
_TEXT	ENDS
;	COMDAT text$x
text$x	SEGMENT
__ehhandler$??_GCGraphSetting@@UAEPAXI@Z:
  00000	90		 npad	 1
  00001	90		 npad	 1
  00002	8b 54 24 08	 mov	 edx, DWORD PTR [esp+8]
  00006	8d 42 0c	 lea	 eax, DWORD PTR [edx+12]
  00009	8b 4a f8	 mov	 ecx, DWORD PTR [edx-8]
  0000c	33 c8		 xor	 ecx, eax
  0000e	e8 00 00 00 00	 call	 @__security_check_cookie@4
  00013	b8 00 00 00 00	 mov	 eax, OFFSET __ehfuncinfo$??_GCGraphSetting@@UAEPAXI@Z
  00018	e9 00 00 00 00	 jmp	 ___CxxFrameHandler3
text$x	ENDS
??_GCGraphSetting@@UAEPAXI@Z ENDP			; CGraphSetting::`scalar deleting destructor'
; Function compile flags: /Ogtp
; File D:\git\src\IBK\IBK_DRFN\ProjSrc\SrcChartEx\ChartAddIn\ChartEnvSetupDlgAddIn\ChartEnvSetupDlgAddIn\GraphSetting.cpp
;	COMDAT ?DoCalculate@CGraphSetting@@QBEHXZ
_TEXT	SEGMENT
?DoCalculate@CGraphSetting@@QBEHXZ PROC			; CGraphSetting::DoCalculate, COMDAT
; _this$ = ecx

; 242  : 	return m_bDoCalculate;

  00000	8b 81 7c 01 00
	00		 mov	 eax, DWORD PTR [ecx+380]

; 243  : }

  00006	c3		 ret	 0
?DoCalculate@CGraphSetting@@QBEHXZ ENDP			; CGraphSetting::DoCalculate
_TEXT	ENDS
; Function compile flags: /Ogtp
; File D:\git\src\IBK\IBK_DRFN\ProjSrc\SrcChartEx\ChartAddIn\ChartEnvSetupDlgAddIn\ChartEnvSetupDlgAddIn\GraphSetting.cpp
;	COMDAT ?SetInvertScaleType@CGraphSetting@@QAEXH@Z
_TEXT	SEGMENT
_bInvertScaleType$ = 8					; size = 4
?SetInvertScaleType@CGraphSetting@@QAEXH@Z PROC		; CGraphSetting::SetInvertScaleType, COMDAT
; _this$ = ecx

; 311  : {

  00000	55		 push	 ebp
  00001	8b ec		 mov	 ebp, esp

; 312  : 	//sy 2005.09.28.
; 313  : 	m_bVertInvertScale = bInvertScaleType;

  00003	8b 45 08	 mov	 eax, DWORD PTR _bInvertScaleType$[ebp]
  00006	89 81 84 01 00
	00		 mov	 DWORD PTR [ecx+388], eax

; 314  : }

  0000c	5d		 pop	 ebp
  0000d	c2 04 00	 ret	 4
?SetInvertScaleType@CGraphSetting@@QAEXH@Z ENDP		; CGraphSetting::SetInvertScaleType
_TEXT	ENDS
; Function compile flags: /Ogtp
; File D:\git\src\IBK\IBK_DRFN\ProjSrc\SrcChartEx\ChartAddIn\ChartEnvSetupDlgAddIn\ChartEnvSetupDlgAddIn\GraphSetting.cpp
;	COMDAT ?GetInvertScaleType@CGraphSetting@@QBEHXZ
_TEXT	SEGMENT
?GetInvertScaleType@CGraphSetting@@QBEHXZ PROC		; CGraphSetting::GetInvertScaleType, COMDAT
; _this$ = ecx

; 318  : 	//sy 2005.09.28.
; 319  : 	return m_bVertInvertScale;

  00000	8b 81 84 01 00
	00		 mov	 eax, DWORD PTR [ecx+388]

; 320  : }

  00006	c3		 ret	 0
?GetInvertScaleType@CGraphSetting@@QBEHXZ ENDP		; CGraphSetting::GetInvertScaleType
_TEXT	ENDS
; Function compile flags: /Ogtp
; File D:\git\src\IBK\IBK_DRFN\ProjSrc\SrcChartEx\ChartAddIn\ChartEnvSetupDlgAddIn\ChartEnvSetupDlgAddIn\GraphSetting.cpp
;	COMDAT ?SetLogState@CGraphSetting@@QAEXH@Z
_TEXT	SEGMENT
_bLogState$ = 8						; size = 4
?SetLogState@CGraphSetting@@QAEXH@Z PROC		; CGraphSetting::SetLogState, COMDAT
; _this$ = ecx

; 299  : {

  00000	55		 push	 ebp
  00001	8b ec		 mov	 ebp, esp

; 300  : 	//sy 2005.09.28.
; 301  : 	m_bVertLogScale = bLogState;

  00003	8b 45 08	 mov	 eax, DWORD PTR _bLogState$[ebp]
  00006	89 81 80 01 00
	00		 mov	 DWORD PTR [ecx+384], eax

; 302  : }

  0000c	5d		 pop	 ebp
  0000d	c2 04 00	 ret	 4
?SetLogState@CGraphSetting@@QAEXH@Z ENDP		; CGraphSetting::SetLogState
_TEXT	ENDS
; Function compile flags: /Ogtp
; File D:\git\src\IBK\IBK_DRFN\ProjSrc\SrcChartEx\ChartAddIn\ChartEnvSetupDlgAddIn\ChartEnvSetupDlgAddIn\GraphSetting.cpp
;	COMDAT ?GetLogState@CGraphSetting@@QBEHXZ
_TEXT	SEGMENT
?GetLogState@CGraphSetting@@QBEHXZ PROC			; CGraphSetting::GetLogState, COMDAT
; _this$ = ecx

; 306  : 	//sy 2005.09.28.
; 307  : 	return m_bVertLogScale;

  00000	8b 81 80 01 00
	00		 mov	 eax, DWORD PTR [ecx+384]

; 308  : }

  00006	c3		 ret	 0
?GetLogState@CGraphSetting@@QBEHXZ ENDP			; CGraphSetting::GetLogState
_TEXT	ENDS
; Function compile flags: /Ogtp
; File D:\git\src\IBK\IBK_DRFN\ProjSrc\SrcChartEx\ChartAddIn\ChartEnvSetupDlgAddIn\ChartEnvSetupDlgAddIn\GraphSetting.cpp
;	COMDAT ?DeleteChildDlg@CGraphSetting@@AAEXXZ
_TEXT	SEGMENT
?DeleteChildDlg@CGraphSetting@@AAEXXZ PROC		; CGraphSetting::DeleteChildDlg, COMDAT
; _this$ = ecx

; 268  : {

  00000	56		 push	 esi
  00001	8b f1		 mov	 esi, ecx

; 269  : 	if( m_pChildDlg != NULL)

  00003	8b 8e 6c 01 00
	00		 mov	 ecx, DWORD PTR [esi+364]
  00009	85 c9		 test	 ecx, ecx
  0000b	74 20		 je	 SHORT $LN2@DeleteChil

; 270  : 	{
; 271  : 		m_pChildDlg->DestroyWindow();

  0000d	8b 01		 mov	 eax, DWORD PTR [ecx]
  0000f	ff 50 68	 call	 DWORD PTR [eax+104]

; 272  : 		delete m_pChildDlg;

  00012	8b 8e 6c 01 00
	00		 mov	 ecx, DWORD PTR [esi+364]
  00018	85 c9		 test	 ecx, ecx
  0001a	74 07		 je	 SHORT $LN4@DeleteChil
  0001c	8b 01		 mov	 eax, DWORD PTR [ecx]
  0001e	6a 01		 push	 1
  00020	ff 50 04	 call	 DWORD PTR [eax+4]
$LN4@DeleteChil:

; 273  : 		m_pChildDlg = NULL;

  00023	c7 86 6c 01 00
	00 00 00 00 00	 mov	 DWORD PTR [esi+364], 0
$LN2@DeleteChil:
  0002d	5e		 pop	 esi

; 274  : 	}
; 275  : }

  0002e	c3		 ret	 0
?DeleteChildDlg@CGraphSetting@@AAEXXZ ENDP		; CGraphSetting::DeleteChildDlg
_TEXT	ENDS
; Function compile flags: /Ogtp
; File D:\git\src\IBK\IBK_DRFN\ProjSrc\SrcChartEx\ChartAddIn\ChartEnvSetupDlgAddIn\ChartEnvSetupDlgAddIn\GraphSetting.cpp
; File C:\Program Files (x86)\Microsoft Visual Studio\2019\Community\VC\Tools\MSVC\14.29.30133\atlmfc\include\atltypes.h
; File D:\git\src\IBK\IBK_DRFN\ProjSrc\SrcChartEx\ChartAddIn\ChartEnvSetupDlgAddIn\ChartEnvSetupDlgAddIn\GraphSetting.cpp
; File C:\Program Files (x86)\Microsoft Visual Studio\2019\Community\VC\Tools\MSVC\14.29.30133\atlmfc\include\afxwin2.inl
; File D:\git\src\IBK\IBK_DRFN\ProjSrc\SrcChartEx\ChartAddIn\ChartEnvSetupDlgAddIn\ChartEnvSetupDlgAddIn\GraphSetting.cpp
; File C:\Program Files (x86)\Microsoft Visual Studio\2019\Community\VC\Tools\MSVC\14.29.30133\atlmfc\include\afxcmn.inl
; File D:\git\src\IBK\IBK_DRFN\ProjSrc\SrcChartEx\ChartAddIn\ChartEnvSetupDlgAddIn\ChartEnvSetupDlgAddIn\GraphSetting.cpp
;	COMDAT ?SetChildDlgPosition@CGraphSetting@@AAEXXZ
_TEXT	SEGMENT
_rcCommon$ = -20					; size = 16
__$ArrayPad$ = -4					; size = 4
?SetChildDlgPosition@CGraphSetting@@AAEXXZ PROC		; CGraphSetting::SetChildDlgPosition, COMDAT
; _this$ = ecx

; 247  : {

  00000	55		 push	 ebp
  00001	8b ec		 mov	 ebp, esp
  00003	83 ec 14	 sub	 esp, 20			; 00000014H
  00006	a1 00 00 00 00	 mov	 eax, DWORD PTR ___security_cookie
  0000b	33 c5		 xor	 eax, ebp
  0000d	89 45 fc	 mov	 DWORD PTR __$ArrayPad$[ebp], eax
  00010	56		 push	 esi
  00011	8b f1		 mov	 esi, ecx
  00013	0f 57 c0	 xorps	 xmm0, xmm0
  00016	57		 push	 edi

; 249  : 	CButton* pCommonBtn = (CButton* )m_tabIndicatorSetUpAll.GetSubTab(0);

  00017	6a 00		 push	 0
; File C:\Program Files (x86)\Microsoft Visual Studio\2019\Community\VC\Tools\MSVC\14.29.30133\atlmfc\include\atltypes.h

; 528  : 	left = 0;

  00019	0f 11 45 ec	 movups	 XMMWORD PTR _rcCommon$[ebp], xmm0
; File D:\git\src\IBK\IBK_DRFN\ProjSrc\SrcChartEx\ChartAddIn\ChartEnvSetupDlgAddIn\ChartEnvSetupDlgAddIn\GraphSetting.cpp

; 249  : 	CButton* pCommonBtn = (CButton* )m_tabIndicatorSetUpAll.GetSubTab(0);

  0001d	8d 8e b0 00 00
	00		 lea	 ecx, DWORD PTR [esi+176]
  00023	e8 00 00 00 00	 call	 ?GetSubTab@CTabSubIndicatorSetUpCtrl@@QAEPAVCWnd@@H@Z ; CTabSubIndicatorSetUpCtrl::GetSubTab
  00028	8b f8		 mov	 edi, eax

; 250  : 
; 251  : 	if( pCommonBtn == NULL )

  0002a	85 ff		 test	 edi, edi
  0002c	74 68		 je	 SHORT $LN4@SetChildDl
; File C:\Program Files (x86)\Microsoft Visual Studio\2019\Community\VC\Tools\MSVC\14.29.30133\atlmfc\include\afxwin2.inl

; 84   : 	{ ASSERT(::IsWindow(m_hWnd)); ::GetWindowRect(m_hWnd, lpRect); }

  0002e	8d 45 ec	 lea	 eax, DWORD PTR _rcCommon$[ebp]
  00031	50		 push	 eax
  00032	ff 77 20	 push	 DWORD PTR [edi+32]
  00035	ff 15 00 00 00
	00		 call	 DWORD PTR __imp__GetWindowRect@8
; File D:\git\src\IBK\IBK_DRFN\ProjSrc\SrcChartEx\ChartAddIn\ChartEnvSetupDlgAddIn\ChartEnvSetupDlgAddIn\GraphSetting.cpp

; 255  : 	ScreenToClient(rcCommon);

  0003b	8d 45 ec	 lea	 eax, DWORD PTR _rcCommon$[ebp]
  0003e	8b ce		 mov	 ecx, esi
  00040	50		 push	 eax
  00041	e8 00 00 00 00	 call	 ?ScreenToClient@CWnd@@QBEXPAUtagRECT@@@Z ; CWnd::ScreenToClient

; 256  : 
; 257  : 	pCommonBtn->ShowWindow(SW_HIDE);

  00046	6a 00		 push	 0
  00048	8b cf		 mov	 ecx, edi
  0004a	e8 00 00 00 00	 call	 ?ShowWindow@CWnd@@QAEHH@Z ; CWnd::ShowWindow
; File C:\Program Files (x86)\Microsoft Visual Studio\2019\Community\VC\Tools\MSVC\14.29.30133\atlmfc\include\afxcmn.inl

; 586  : 	{ ASSERT(::IsWindow(m_hWnd)); return (int)::SendMessage(m_hWnd, TCM_GETCURSEL, 0, 0L); }

  0004f	6a 00		 push	 0
  00051	6a 00		 push	 0
  00053	68 0b 13 00 00	 push	 4875			; 0000130bH
  00058	ff b6 d0 00 00
	00		 push	 DWORD PTR [esi+208]
  0005e	ff 15 00 00 00
	00		 call	 DWORD PTR __imp__SendMessageA@16
; File D:\git\src\IBK\IBK_DRFN\ProjSrc\SrcChartEx\ChartAddIn\ChartEnvSetupDlgAddIn\ChartEnvSetupDlgAddIn\GraphSetting.cpp

; 260  : 	if( m_tabIndicatorSetUpAll.GetCurSel() == 0 )

  00064	8b 55 f0	 mov	 edx, DWORD PTR _rcCommon$[ebp+4]
  00067	85 c0		 test	 eax, eax
  00069	8b 4d ec	 mov	 ecx, DWORD PTR _rcCommon$[ebp]
  0006c	8b 45 f8	 mov	 eax, DWORD PTR _rcCommon$[ebp+12]
  0006f	75 04		 jne	 SHORT $LN3@SetChildDl

; 261  : 		m_pChildDlg->SetWindowPos( &wndTop, rcCommon.left, rcCommon.top, rcCommon.Width(), rcCommon.Height(), SWP_SHOWWINDOW);

  00071	6a 40		 push	 64			; 00000040H
  00073	eb 05		 jmp	 SHORT $LN20@SetChildDl
$LN3@SetChildDl:

; 262  : 	else
; 263  : 		m_pChildDlg->SetWindowPos( &wndTop, rcCommon.left, rcCommon.top, rcCommon.Width(), rcCommon.Height(), SWP_HIDEWINDOW);

  00075	68 80 00 00 00	 push	 128			; 00000080H
$LN20@SetChildDl:

; 264  : 
; 265  : }

  0007a	2b c2		 sub	 eax, edx
  0007c	50		 push	 eax
  0007d	8b 45 f4	 mov	 eax, DWORD PTR _rcCommon$[ebp+8]
  00080	2b c1		 sub	 eax, ecx
  00082	50		 push	 eax
  00083	52		 push	 edx
  00084	51		 push	 ecx
  00085	ff 35 00 00 00
	00		 push	 DWORD PTR __imp_?wndTop@CWnd@@2V1@B
  0008b	8b 8e 6c 01 00
	00		 mov	 ecx, DWORD PTR [esi+364]
  00091	e8 00 00 00 00	 call	 ?SetWindowPos@CWnd@@QAEHPBV1@HHHHI@Z ; CWnd::SetWindowPos
$LN4@SetChildDl:
  00096	8b 4d fc	 mov	 ecx, DWORD PTR __$ArrayPad$[ebp]
  00099	5f		 pop	 edi
  0009a	33 cd		 xor	 ecx, ebp
  0009c	5e		 pop	 esi
  0009d	e8 00 00 00 00	 call	 @__security_check_cookie@4
  000a2	8b e5		 mov	 esp, ebp
  000a4	5d		 pop	 ebp
  000a5	c3		 ret	 0
?SetChildDlgPosition@CGraphSetting@@AAEXXZ ENDP		; CGraphSetting::SetChildDlgPosition
_TEXT	ENDS
; Function compile flags: /Ogtp
; File D:\git\src\IBK\IBK_DRFN\ProjSrc\SrcChartEx\ChartAddIn\ChartEnvSetupDlgAddIn\ChartEnvSetupDlgAddIn\GraphSetting.cpp
;	COMDAT ?OnInsertOscillator@CGraphSetting@@IAEJIJ@Z
_TEXT	SEGMENT
_wParam$ = 8						; size = 4
_lParam$ = 12						; size = 4
?OnInsertOscillator@CGraphSetting@@IAEJIJ@Z PROC	; CGraphSetting::OnInsertOscillator, COMDAT
; _this$ = ecx

; 281  : //	m_pGraphData->AddSubGraph("Oscillator", m_pIGraphInfoManager);
; 282  : 	return 0L;

  00000	33 c0		 xor	 eax, eax

; 283  : }

  00002	c2 08 00	 ret	 8
?OnInsertOscillator@CGraphSetting@@IAEJIJ@Z ENDP	; CGraphSetting::OnInsertOscillator
_TEXT	ENDS
; Function compile flags: /Ogtp
; File D:\git\src\IBK\IBK_DRFN\ProjSrc\SrcChartEx\ChartAddIn\ChartEnvSetupDlgAddIn\ChartEnvSetupDlgAddIn\GraphSetting.cpp
;	COMDAT ?GetMessageMap@CGraphSetting@@MBEPBUAFX_MSGMAP@@XZ
_TEXT	SEGMENT
?GetMessageMap@CGraphSetting@@MBEPBUAFX_MSGMAP@@XZ PROC	; CGraphSetting::GetMessageMap, COMDAT
; _this$ = ecx

; 113  : BEGIN_MESSAGE_MAP(CGraphSetting, CDialog)

  00000	b8 00 00 00 00	 mov	 eax, OFFSET ?messageMap@?1??GetThisMessageMap@CGraphSetting@@KGPBUAFX_MSGMAP@@XZ@4U3@B
  00005	c3		 ret	 0
?GetMessageMap@CGraphSetting@@MBEPBUAFX_MSGMAP@@XZ ENDP	; CGraphSetting::GetMessageMap
_TEXT	ENDS
; Function compile flags: /Ogtp
; File D:\git\src\IBK\IBK_DRFN\ProjSrc\SrcChartEx\ChartAddIn\ChartEnvSetupDlgAddIn\ChartEnvSetupDlgAddIn\GraphSetting.cpp
;	COMDAT ?GetThisMessageMap@CGraphSetting@@KGPBUAFX_MSGMAP@@XZ
_TEXT	SEGMENT
?GetThisMessageMap@CGraphSetting@@KGPBUAFX_MSGMAP@@XZ PROC ; CGraphSetting::GetThisMessageMap, COMDAT

; 114  : 	//{{AFX_MSG_MAP(CGraphSetting)
; 115  : 	ON_BN_CLICKED(IDC_ALL_DELETE, OnAllDelete)
; 116  : 	ON_BN_CLICKED(IDC_CHK_WITH_DEFAULT, OnChkWithDefault)
; 117  : 	//}}AFX_MSG_MAP
; 118  : 	ON_MESSAGE(UDM_INDICATOR_GRAPH_INSERT, OnInsertOscillator)
; 119  : END_MESSAGE_MAP()

  00000	b8 00 00 00 00	 mov	 eax, OFFSET ?messageMap@?1??GetThisMessageMap@CGraphSetting@@KGPBUAFX_MSGMAP@@XZ@4U3@B
  00005	c3		 ret	 0
?GetThisMessageMap@CGraphSetting@@KGPBUAFX_MSGMAP@@XZ ENDP ; CGraphSetting::GetThisMessageMap
_TEXT	ENDS
; Function compile flags: /Ogtp
; File D:\git\src\IBK\IBK_DRFN\ProjSrc\SrcChartEx\ChartAddIn\ChartEnvSetupDlgAddIn\ChartEnvSetupDlgAddIn\GraphSetting.cpp
;	COMDAT ?OnChkWithDefault@CGraphSetting@@IAEXXZ
_TEXT	SEGMENT
?OnChkWithDefault@CGraphSetting@@IAEXXZ PROC		; CGraphSetting::OnChkWithDefault, COMDAT
; _this$ = ecx

; 324  : 	// TODO: Add your control notification handler code here
; 325  : 	
; 326  : }

  00000	c2 00 00	 ret	 0
?OnChkWithDefault@CGraphSetting@@IAEXXZ ENDP		; CGraphSetting::OnChkWithDefault
_TEXT	ENDS
; Function compile flags: /Ogtp
; File D:\git\src\IBK\IBK_DRFN\ProjSrc\SrcChartEx\ChartAddIn\ChartEnvSetupDlgAddIn\ChartEnvSetupDlgAddIn\GraphSetting.cpp
;	COMDAT ?OnCancel@CGraphSetting@@MAEXXZ
_TEXT	SEGMENT
?OnCancel@CGraphSetting@@MAEXXZ PROC			; CGraphSetting::OnCancel, COMDAT
; _this$ = ecx

; 221  : 	m_eReturn = IDCANCEL;	

  00000	c7 81 70 01 00
	00 02 00 00 00	 mov	 DWORD PTR [ecx+368], 2

; 222  : 	
; 223  : 	CDialog::OnCancel();

  0000a	e9 00 00 00 00	 jmp	 ?OnCancel@CDialog@@MAEXXZ ; CDialog::OnCancel
?OnCancel@CGraphSetting@@MAEXXZ ENDP			; CGraphSetting::OnCancel
_TEXT	ENDS
; Function compile flags: /Ogtp
; File D:\git\src\IBK\IBK_DRFN\ProjSrc\SrcChartEx\ChartAddIn\ChartEnvSetupDlgAddIn\ChartEnvSetupDlgAddIn\GraphSetting.cpp
;	COMDAT ?OnAllDelete@CGraphSetting@@IAEXXZ
_TEXT	SEGMENT
?OnAllDelete@CGraphSetting@@IAEXXZ PROC			; CGraphSetting::OnAllDelete, COMDAT
; _this$ = ecx

; 214  : 	m_eReturn = IDABORT;

  00000	c7 81 70 01 00
	00 03 00 00 00	 mov	 DWORD PTR [ecx+368], 3

; 215  : 	CDialog::OnOK();

  0000a	e9 00 00 00 00	 jmp	 ?OnOK@CDialog@@MAEXXZ	; CDialog::OnOK
?OnAllDelete@CGraphSetting@@IAEXXZ ENDP			; CGraphSetting::OnAllDelete
_TEXT	ENDS
; Function compile flags: /Ogtp
; File D:\git\src\IBK\IBK_DRFN\ProjSrc\SrcChartEx\ChartAddIn\ChartEnvSetupDlgAddIn\ChartEnvSetupDlgAddIn\GraphSetting.cpp
; File D:\git\src\IBK\IBK_DRFN\ProjSrc\SrcChartEx\ChartAddIn\ChartEnvSetupDlgAddIn\Include_AddIn_135914\I135914\_IString.h
; File D:\git\src\IBK\IBK_DRFN\ProjSrc\SrcChartEx\ChartAddIn\ChartEnvSetupDlgAddIn\ChartEnvSetupDlgAddIn\GraphSetting.cpp
; File D:\git\src\IBK\IBK_DRFN\ProjSrc\SrcChartEx\ChartAddIn\ChartEnvSetupDlgAddIn\Include_AddIn_135914\I135914\_IString.h
; File D:\git\src\IBK\IBK_DRFN\ProjSrc\SrcChartEx\ChartAddIn\ChartEnvSetupDlgAddIn\ChartEnvSetupDlgAddIn\GraphSetting.cpp
;	COMDAT ?OnOK@CGraphSetting@@MAEXXZ
_TEXT	SEGMENT
_szGraphName$2 = -20					; size = 8
__$EHRec$ = -12						; size = 12
?OnOK@CGraphSetting@@MAEXXZ PROC			; CGraphSetting::OnOK, COMDAT
; _this$ = ecx

; 188  : {

  00000	55		 push	 ebp
  00001	8b ec		 mov	 ebp, esp
  00003	6a ff		 push	 -1
  00005	68 00 00 00 00	 push	 __ehhandler$?OnOK@CGraphSetting@@MAEXXZ
  0000a	64 a1 00 00 00
	00		 mov	 eax, DWORD PTR fs:0
  00010	50		 push	 eax
  00011	83 ec 08	 sub	 esp, 8
  00014	53		 push	 ebx
  00015	56		 push	 esi
  00016	57		 push	 edi
  00017	a1 00 00 00 00	 mov	 eax, DWORD PTR ___security_cookie
  0001c	33 c5		 xor	 eax, ebp
  0001e	50		 push	 eax
  0001f	8d 45 f4	 lea	 eax, DWORD PTR __$EHRec$[ebp]
  00022	64 a3 00 00 00
	00		 mov	 DWORD PTR fs:0, eax
  00028	8b f9		 mov	 edi, ecx

; 189  : 	// 20081014 박동관 >>
; 190  : 	//m_pChildDlg->OnApply(m_pIGraphInfo);
; 191  : 	BOOL bResult = m_pChildDlg->OnApply(m_pIGraphInfo);

  0002a	8b 8f 6c 01 00
	00		 mov	 ecx, DWORD PTR [edi+364]
  00030	ff b7 74 01 00
	00		 push	 DWORD PTR [edi+372]
  00036	8b 01		 mov	 eax, DWORD PTR [ecx]
  00038	ff 90 98 01 00
	00		 call	 DWORD PTR [eax+408]

; 192  : 	if(!bResult) return ;

  0003e	85 c0		 test	 eax, eax
  00040	0f 84 b7 00 00
	00		 je	 $LN1@OnOK

; 193  : 	// 20081014 박동관 <<
; 194  : 
; 195  : 	UpdateData();

  00046	6a 01		 push	 1
  00048	8b cf		 mov	 ecx, edi
  0004a	e8 00 00 00 00	 call	 ?UpdateData@CWnd@@QAEHH@Z ; CWnd::UpdateData

; 196  : 	if( m_bWithDefaultInfo == TRUE )

  0004f	83 bf 48 01 00
	00 01		 cmp	 DWORD PTR [edi+328], 1
  00056	75 7b		 jne	 SHORT $LN12@OnOK

; 198  : 		ILPCSTR szGraphName = m_pIGraphInfo->GetGraphNameString();

  00058	8b 8f 74 01 00
	00		 mov	 ecx, DWORD PTR [edi+372]
  0005e	8b 01		 mov	 eax, DWORD PTR [ecx]
  00060	ff 90 a0 00 00
	00		 call	 DWORD PTR [eax+160]
; File D:\git\src\IBK\IBK_DRFN\ProjSrc\SrcChartEx\ChartAddIn\ChartEnvSetupDlgAddIn\Include_AddIn_135914\I135914\_IString.h

; 39   : 		m_pIStrData = p_pIString;	// Do not AddRef(). Because It must be Return Value.

  00066	8b d8		 mov	 ebx, eax
  00068	89 5d f0	 mov	 DWORD PTR _szGraphName$2[ebp+4], ebx

; 40   : 		if( m_pIStrData) m_szData = m_pIStrData->GetData();

  0006b	85 db		 test	 ebx, ebx
  0006d	74 0b		 je	 SHORT $LN7@OnOK
  0006f	8b 13		 mov	 edx, DWORD PTR [ebx]
  00071	8b cb		 mov	 ecx, ebx
  00073	ff 52 10	 call	 DWORD PTR [edx+16]
  00076	8b d0		 mov	 edx, eax
  00078	eb 02		 jmp	 SHORT $LN15@OnOK
$LN7@OnOK:

; 41   : 		else m_szData = NULL;

  0007a	33 d2		 xor	 edx, edx
$LN15@OnOK:
; File D:\git\src\IBK\IBK_DRFN\ProjSrc\SrcChartEx\ChartAddIn\ChartEnvSetupDlgAddIn\ChartEnvSetupDlgAddIn\GraphSetting.cpp

; 198  : 		ILPCSTR szGraphName = m_pIGraphInfo->GetGraphNameString();

  0007c	89 55 ec	 mov	 DWORD PTR _szGraphName$2[ebp], edx

; 199  : 		IGraphInfo *pIDefaultInfo = m_pIGraphInfoManager->GetGraphInfo( IGraphInfoManager::IEILT_USER_DEFAULT, szGraphName);

  0007f	8b 8f 58 01 00
	00		 mov	 ecx, DWORD PTR [edi+344]
  00085	52		 push	 edx
  00086	6a 02		 push	 2
  00088	c7 45 fc 00 00
	00 00		 mov	 DWORD PTR __$EHRec$[ebp+8], 0
  0008f	8b 01		 mov	 eax, DWORD PTR [ecx]
  00091	ff 50 14	 call	 DWORD PTR [eax+20]

; 200  : 		m_pChildDlg->OnApply( pIDefaultInfo);

  00094	8b 8f 6c 01 00
	00		 mov	 ecx, DWORD PTR [edi+364]
  0009a	8b f0		 mov	 esi, eax
  0009c	56		 push	 esi
  0009d	8b 11		 mov	 edx, DWORD PTR [ecx]
  0009f	ff 92 98 01 00
	00		 call	 DWORD PTR [edx+408]

; 201  : 		m_pChildDlg->m_bOrgSaveDefault = TRUE;

  000a5	8b 8f 6c 01 00
	00		 mov	 ecx, DWORD PTR [edi+364]

; 202  : 		pIDefaultInfo->Release();

  000ab	56		 push	 esi
  000ac	c7 81 ac 00 00
	00 01 00 00 00	 mov	 DWORD PTR [ecx+172], 1
  000b6	8b 0e		 mov	 ecx, DWORD PTR [esi]
  000b8	ff 51 08	 call	 DWORD PTR [ecx+8]
; File D:\git\src\IBK\IBK_DRFN\ProjSrc\SrcChartEx\ChartAddIn\ChartEnvSetupDlgAddIn\Include_AddIn_135914\I135914\_IString.h

; 44   : 	{

  000bb	c7 45 fc 01 00
	00 00		 mov	 DWORD PTR __$EHRec$[ebp+8], 1

; 45   : 		if( m_pIStrData)

  000c2	85 db		 test	 ebx, ebx
  000c4	74 06		 je	 SHORT $LN11@OnOK

; 46   : 		{
; 47   : 			m_pIStrData->Release();

  000c6	8b 03		 mov	 eax, DWORD PTR [ebx]
  000c8	53		 push	 ebx
  000c9	ff 50 08	 call	 DWORD PTR [eax+8]
$LN11@OnOK:

; 48   : 			m_pIStrData = NULL;
; 49   : 			m_szData = NULL;
; 50   : 		}
; 51   : 	}

  000cc	c7 45 fc ff ff
	ff ff		 mov	 DWORD PTR __$EHRec$[ebp+8], -1
$LN12@OnOK:
; File D:\git\src\IBK\IBK_DRFN\ProjSrc\SrcChartEx\ChartAddIn\ChartEnvSetupDlgAddIn\ChartEnvSetupDlgAddIn\GraphSetting.cpp

; 205  : 	m_bDoCalculate = m_pChildDlg->DoCalculate();

  000d3	8b 8f 6c 01 00
	00		 mov	 ecx, DWORD PTR [edi+364]
  000d9	8b 01		 mov	 eax, DWORD PTR [ecx]
  000db	8b 80 a0 01 00
	00		 mov	 eax, DWORD PTR [eax+416]
  000e1	ff d0		 call	 eax
  000e3	0f b6 c0	 movzx	 eax, al

; 206  : 	m_eReturn = IDOK;
; 207  : 
; 208  : 	CDialog::OnOK();

  000e6	8b cf		 mov	 ecx, edi
  000e8	89 87 7c 01 00
	00		 mov	 DWORD PTR [edi+380], eax
  000ee	c7 87 70 01 00
	00 01 00 00 00	 mov	 DWORD PTR [edi+368], 1
  000f8	e8 00 00 00 00	 call	 ?OnOK@CDialog@@MAEXXZ	; CDialog::OnOK
$LN1@OnOK:

; 209  : }

  000fd	8b 4d f4	 mov	 ecx, DWORD PTR __$EHRec$[ebp]
  00100	64 89 0d 00 00
	00 00		 mov	 DWORD PTR fs:0, ecx
  00107	59		 pop	 ecx
  00108	5f		 pop	 edi
  00109	5e		 pop	 esi
  0010a	5b		 pop	 ebx
  0010b	8b e5		 mov	 esp, ebp
  0010d	5d		 pop	 ebp
  0010e	c3		 ret	 0
_TEXT	ENDS
;	COMDAT text$x
text$x	SEGMENT
__unwindfunclet$?OnOK@CGraphSetting@@MAEXXZ$0:
  00000	8d 4d ec	 lea	 ecx, DWORD PTR _szGraphName$2[ebp]
  00003	e9 00 00 00 00	 jmp	 ??1ILPCSTR135914@@QAE@XZ ; ILPCSTR135914::~ILPCSTR135914
  00008	cc		 int	 3
  00009	cc		 int	 3
  0000a	cc		 int	 3
  0000b	cc		 int	 3
  0000c	cc		 int	 3
__ehhandler$?OnOK@CGraphSetting@@MAEXXZ:
  0000d	90		 npad	 1
  0000e	90		 npad	 1
  0000f	8b 54 24 08	 mov	 edx, DWORD PTR [esp+8]
  00013	8d 42 0c	 lea	 eax, DWORD PTR [edx+12]
  00016	8b 4a e8	 mov	 ecx, DWORD PTR [edx-24]
  00019	33 c8		 xor	 ecx, eax
  0001b	e8 00 00 00 00	 call	 @__security_check_cookie@4
  00020	b8 00 00 00 00	 mov	 eax, OFFSET __ehfuncinfo$?OnOK@CGraphSetting@@MAEXXZ
  00025	e9 00 00 00 00	 jmp	 ___CxxFrameHandler3
text$x	ENDS
?OnOK@CGraphSetting@@MAEXXZ ENDP			; CGraphSetting::OnOK
; Function compile flags: /Ogtp
; File D:\git\src\IBK\IBK_DRFN\ProjSrc\SrcChartEx\ChartAddIn\ChartEnvSetupDlgAddIn\ChartEnvSetupDlgAddIn\GraphSetting.cpp
; File D:\git\src\IBK\IBK_DRFN\ProjSrc\SrcChartEx\ChartAddIn\ChartEnvSetupDlgAddIn\Include_AddIn_135914\I135914\_IString.h
; File D:\git\src\IBK\IBK_DRFN\ProjSrc\SrcChartEx\ChartAddIn\ChartEnvSetupDlgAddIn\ChartEnvSetupDlgAddIn\GraphSetting.cpp
; File C:\Program Files (x86)\Microsoft Visual Studio\2019\Community\VC\Tools\MSVC\14.29.30133\atlmfc\include\atltypes.h
; File D:\git\src\IBK\IBK_DRFN\ProjSrc\SrcChartEx\ChartAddIn\ChartEnvSetupDlgAddIn\ChartEnvSetupDlgAddIn\GraphSetting.cpp
; File C:\Program Files (x86)\Microsoft Visual Studio\2019\Community\VC\Tools\MSVC\14.29.30133\atlmfc\include\afxwin2.inl
; File D:\git\src\IBK\IBK_DRFN\ProjSrc\SrcChartEx\ChartAddIn\ChartEnvSetupDlgAddIn\ChartEnvSetupDlgAddIn\GraphSetting.cpp
; File C:\Program Files (x86)\Microsoft Visual Studio\2019\Community\VC\Tools\MSVC\14.29.30133\atlmfc\include\afxcmn.inl
; File D:\git\src\IBK\IBK_DRFN\ProjSrc\SrcChartEx\ChartAddIn\ChartEnvSetupDlgAddIn\ChartEnvSetupDlgAddIn\GraphSetting.cpp
; File D:\git\src\IBK\IBK_DRFN\ProjSrc\SrcChartEx\ChartAddIn\ChartEnvSetupDlgAddIn\Include_AddIn_135914\I135914\_IString.h
; File D:\git\src\IBK\IBK_DRFN\ProjSrc\SrcChartEx\ChartAddIn\ChartEnvSetupDlgAddIn\ChartEnvSetupDlgAddIn\GraphSetting.cpp
;	COMDAT ?OnInitDialog@CGraphSetting@@MAEHXZ
_TEXT	SEGMENT
_szIndicatorName$ = -44					; size = 8
_pCommonBtn$1$ = -36					; size = 4
_pIGraphInfo$1$ = -36					; size = 4
_rcCommon$2 = -32					; size = 16
__$ArrayPad$ = -16					; size = 4
__$EHRec$ = -12						; size = 12
?OnInitDialog@CGraphSetting@@MAEHXZ PROC		; CGraphSetting::OnInitDialog, COMDAT
; _this$ = ecx

; 125  : {

  00000	55		 push	 ebp
  00001	8b ec		 mov	 ebp, esp
  00003	6a ff		 push	 -1
  00005	68 00 00 00 00	 push	 __ehhandler$?OnInitDialog@CGraphSetting@@MAEHXZ
  0000a	64 a1 00 00 00
	00		 mov	 eax, DWORD PTR fs:0
  00010	50		 push	 eax
  00011	83 ec 20	 sub	 esp, 32			; 00000020H
  00014	a1 00 00 00 00	 mov	 eax, DWORD PTR ___security_cookie
  00019	33 c5		 xor	 eax, ebp
  0001b	89 45 f0	 mov	 DWORD PTR __$ArrayPad$[ebp], eax
  0001e	53		 push	 ebx
  0001f	56		 push	 esi
  00020	57		 push	 edi
  00021	50		 push	 eax
  00022	8d 45 f4	 lea	 eax, DWORD PTR __$EHRec$[ebp]
  00025	64 a3 00 00 00
	00		 mov	 DWORD PTR fs:0, eax
  0002b	8b f1		 mov	 esi, ecx

; 126  : 	CDialog::OnInitDialog();

  0002d	e8 00 00 00 00	 call	 ?OnInitDialog@CDialog@@UAEHXZ ; CDialog::OnInitDialog

; 127  : 
; 128  : 	m_tabIndicatorSetUpAll.Init( m_pIChartOCX, this);

  00032	8b ce		 mov	 ecx, esi
  00034	8d 86 a8 00 00
	00		 lea	 eax, DWORD PTR [esi+168]
  0003a	f7 d9		 neg	 ecx
  0003c	1b c9		 sbb	 ecx, ecx
  0003e	23 c8		 and	 ecx, eax
  00040	51		 push	 ecx
  00041	ff b6 4c 01 00
	00		 push	 DWORD PTR [esi+332]
  00047	8d 8e b0 00 00
	00		 lea	 ecx, DWORD PTR [esi+176]
  0004d	e8 00 00 00 00	 call	 ?Init@CTabSubIndicatorSetUpCtrl@@QAEXPAUIChartOCX135914@@PAVCTabParentDlg@@@Z ; CTabSubIndicatorSetUpCtrl::Init

; 131  : 	ILPCSTR szIndicatorName = m_pIGraphInfo->GetIndicatorNameString();

  00052	8b 8e 74 01 00
	00		 mov	 ecx, DWORD PTR [esi+372]
  00058	8b 01		 mov	 eax, DWORD PTR [ecx]
  0005a	ff 90 a4 00 00
	00		 call	 DWORD PTR [eax+164]
; File D:\git\src\IBK\IBK_DRFN\ProjSrc\SrcChartEx\ChartAddIn\ChartEnvSetupDlgAddIn\Include_AddIn_135914\I135914\_IString.h

; 39   : 		m_pIStrData = p_pIString;	// Do not AddRef(). Because It must be Return Value.

  00060	8b f8		 mov	 edi, eax
  00062	89 7d d8	 mov	 DWORD PTR _szIndicatorName$[ebp+4], edi

; 40   : 		if( m_pIStrData) m_szData = m_pIStrData->GetData();

  00065	85 ff		 test	 edi, edi
  00067	74 0b		 je	 SHORT $LN14@OnInitDial
  00069	8b 17		 mov	 edx, DWORD PTR [edi]
  0006b	8b cf		 mov	 ecx, edi
  0006d	ff 52 10	 call	 DWORD PTR [edx+16]
  00070	8b d8		 mov	 ebx, eax
  00072	eb 02		 jmp	 SHORT $LN46@OnInitDial
$LN14@OnInitDial:

; 41   : 		else m_szData = NULL;

  00074	33 db		 xor	 ebx, ebx
$LN46@OnInitDial:
; File D:\git\src\IBK\IBK_DRFN\ProjSrc\SrcChartEx\ChartAddIn\ChartEnvSetupDlgAddIn\ChartEnvSetupDlgAddIn\GraphSetting.cpp

; 131  : 	ILPCSTR szIndicatorName = m_pIGraphInfo->GetIndicatorNameString();

  00076	89 5d d4	 mov	 DWORD PTR _szIndicatorName$[ebp], ebx

; 132  : 	if(m_pIGraphInfo->GetSubGraphCount() > 0) 

  00079	8b 8e 74 01 00
	00		 mov	 ecx, DWORD PTR [esi+372]
  0007f	c7 45 fc 00 00
	00 00		 mov	 DWORD PTR __$EHRec$[ebp+8], 0
  00086	8b 01		 mov	 eax, DWORD PTR [ecx]
  00088	ff 50 2c	 call	 DWORD PTR [eax+44]
  0008b	85 c0		 test	 eax, eax
  0008d	0f 8e c2 00 00
	00		 jle	 $LN20@OnInitDial

; 133  : 	{
; 134  : // 2008.01.25 by LYH >>
; 135  : 		//SetWindowText( szIndicatorName);
; 136  : 		SetWindowText( _MTOL2(szIndicatorName) );

  00093	6a 00		 push	 0
  00095	53		 push	 ebx
  00096	6a 02		 push	 2
  00098	ff b6 8c 01 00
	00		 push	 DWORD PTR [esi+396]
  0009e	b9 00 00 00 00	 mov	 ecx, OFFSET ?g_iMetaTable@@3VIMetaTable@@A ; g_iMetaTable
  000a3	e8 00 00 00 00	 call	 ?GetLanguageText@IMetaTable@@QAEPBDPAUHWND__@@W4E_CODEPAGE@1@PBDH@Z ; IMetaTable::GetLanguageText
  000a8	50		 push	 eax
  000a9	8b ce		 mov	 ecx, esi
  000ab	e8 00 00 00 00	 call	 ?SetWindowTextA@CWnd@@QAEXPBD@Z ; CWnd::SetWindowTextA

; 137  : // 2008.01.25 by LYH <<
; 138  : 		
; 139  : 		// GraphSetting을 통해 생성되는 ChildDlg는 MainBlock포인터는 NULL로 세팅한다.
; 140  : 		m_MakeChildDlg.Initial( m_pIChartOCX, m_pIGraphInfo, this, m_pChildDlg);

  000b0	6a 00		 push	 0
  000b2	8d 86 6c 01 00
	00		 lea	 eax, DWORD PTR [esi+364]
  000b8	50		 push	 eax
  000b9	56		 push	 esi
  000ba	ff b6 74 01 00
	00		 push	 DWORD PTR [esi+372]
  000c0	8d 8e 68 01 00
	00		 lea	 ecx, DWORD PTR [esi+360]
  000c6	ff b6 4c 01 00
	00		 push	 DWORD PTR [esi+332]
  000cc	e8 00 00 00 00	 call	 ?Initial@CMakeChildDlg@@QAEXPAUIChartOCX135914@@PAUIGraphInfo135914@@PAVCWnd@@AAPAVCBaseDialog@@2@Z ; CMakeChildDlg::Initial
  000d1	0f 57 c0	 xorps	 xmm0, xmm0

; 249  : 	CButton* pCommonBtn = (CButton* )m_tabIndicatorSetUpAll.GetSubTab(0);

  000d4	8d 8e b0 00 00
	00		 lea	 ecx, DWORD PTR [esi+176]
  000da	6a 00		 push	 0
; File C:\Program Files (x86)\Microsoft Visual Studio\2019\Community\VC\Tools\MSVC\14.29.30133\atlmfc\include\atltypes.h

; 528  : 	left = 0;

  000dc	0f 11 45 e0	 movups	 XMMWORD PTR _rcCommon$2[ebp], xmm0
; File D:\git\src\IBK\IBK_DRFN\ProjSrc\SrcChartEx\ChartAddIn\ChartEnvSetupDlgAddIn\ChartEnvSetupDlgAddIn\GraphSetting.cpp

; 249  : 	CButton* pCommonBtn = (CButton* )m_tabIndicatorSetUpAll.GetSubTab(0);

  000e0	e8 00 00 00 00	 call	 ?GetSubTab@CTabSubIndicatorSetUpCtrl@@QAEPAVCWnd@@H@Z ; CTabSubIndicatorSetUpCtrl::GetSubTab
  000e5	89 45 dc	 mov	 DWORD PTR _pCommonBtn$1$[ebp], eax

; 250  : 
; 251  : 	if( pCommonBtn == NULL )

  000e8	85 c0		 test	 eax, eax
  000ea	74 69		 je	 SHORT $LN20@OnInitDial
; File C:\Program Files (x86)\Microsoft Visual Studio\2019\Community\VC\Tools\MSVC\14.29.30133\atlmfc\include\afxwin2.inl

; 84   : 	{ ASSERT(::IsWindow(m_hWnd)); ::GetWindowRect(m_hWnd, lpRect); }

  000ec	8d 4d e0	 lea	 ecx, DWORD PTR _rcCommon$2[ebp]
  000ef	51		 push	 ecx
  000f0	ff 70 20	 push	 DWORD PTR [eax+32]
  000f3	ff 15 00 00 00
	00		 call	 DWORD PTR __imp__GetWindowRect@8
; File D:\git\src\IBK\IBK_DRFN\ProjSrc\SrcChartEx\ChartAddIn\ChartEnvSetupDlgAddIn\ChartEnvSetupDlgAddIn\GraphSetting.cpp

; 255  : 	ScreenToClient(rcCommon);

  000f9	8d 45 e0	 lea	 eax, DWORD PTR _rcCommon$2[ebp]
  000fc	8b ce		 mov	 ecx, esi
  000fe	50		 push	 eax
  000ff	e8 00 00 00 00	 call	 ?ScreenToClient@CWnd@@QBEXPAUtagRECT@@@Z ; CWnd::ScreenToClient

; 256  : 
; 257  : 	pCommonBtn->ShowWindow(SW_HIDE);

  00104	8b 4d dc	 mov	 ecx, DWORD PTR _pCommonBtn$1$[ebp]
  00107	6a 00		 push	 0
  00109	e8 00 00 00 00	 call	 ?ShowWindow@CWnd@@QAEHH@Z ; CWnd::ShowWindow
; File C:\Program Files (x86)\Microsoft Visual Studio\2019\Community\VC\Tools\MSVC\14.29.30133\atlmfc\include\afxcmn.inl

; 586  : 	{ ASSERT(::IsWindow(m_hWnd)); return (int)::SendMessage(m_hWnd, TCM_GETCURSEL, 0, 0L); }

  0010e	6a 00		 push	 0
  00110	6a 00		 push	 0
  00112	68 0b 13 00 00	 push	 4875			; 0000130bH
  00117	ff b6 d0 00 00
	00		 push	 DWORD PTR [esi+208]
  0011d	ff 15 00 00 00
	00		 call	 DWORD PTR __imp__SendMessageA@16
; File D:\git\src\IBK\IBK_DRFN\ProjSrc\SrcChartEx\ChartAddIn\ChartEnvSetupDlgAddIn\ChartEnvSetupDlgAddIn\GraphSetting.cpp

; 260  : 	if( m_tabIndicatorSetUpAll.GetCurSel() == 0 )

  00123	8b 55 e4	 mov	 edx, DWORD PTR _rcCommon$2[ebp+4]
  00126	85 c0		 test	 eax, eax
  00128	8b 4d e0	 mov	 ecx, DWORD PTR _rcCommon$2[ebp]
  0012b	8b 45 ec	 mov	 eax, DWORD PTR _rcCommon$2[ebp+12]
  0012e	75 04		 jne	 SHORT $LN19@OnInitDial

; 261  : 		m_pChildDlg->SetWindowPos( &wndTop, rcCommon.left, rcCommon.top, rcCommon.Width(), rcCommon.Height(), SWP_SHOWWINDOW);

  00130	6a 40		 push	 64			; 00000040H
  00132	eb 05		 jmp	 SHORT $LN47@OnInitDial
$LN19@OnInitDial:

; 262  : 	else
; 263  : 		m_pChildDlg->SetWindowPos( &wndTop, rcCommon.left, rcCommon.top, rcCommon.Width(), rcCommon.Height(), SWP_HIDEWINDOW);

  00134	68 80 00 00 00	 push	 128			; 00000080H
$LN47@OnInitDial:

; 141  : 		SetChildDlgPosition();
; 142  : 	}
; 143  : 	// (2007/5/4 - Seung-Won, Bae) Set Indicator Info Copy for Buffer.
; 144  : 	IGraphInfo *pIGraphInfo = m_pIGraphInfo->CreateCopyObject();

  00139	2b c2		 sub	 eax, edx
  0013b	50		 push	 eax
  0013c	8b 45 e8	 mov	 eax, DWORD PTR _rcCommon$2[ebp+8]
  0013f	2b c1		 sub	 eax, ecx
  00141	50		 push	 eax
  00142	52		 push	 edx
  00143	51		 push	 ecx
  00144	ff 35 00 00 00
	00		 push	 DWORD PTR __imp_?wndTop@CWnd@@2V1@B
  0014a	8b 8e 6c 01 00
	00		 mov	 ecx, DWORD PTR [esi+364]
  00150	e8 00 00 00 00	 call	 ?SetWindowPos@CWnd@@QAEHPBV1@HHHHI@Z ; CWnd::SetWindowPos
$LN20@OnInitDial:
  00155	8b 8e 74 01 00
	00		 mov	 ecx, DWORD PTR [esi+372]
  0015b	8b 01		 mov	 eax, DWORD PTR [ecx]
  0015d	ff 90 bc 00 00
	00		 call	 DWORD PTR [eax+188]

; 145  : 	m_pChildDlg->Initial( pIGraphInfo);

  00163	8b 8e 6c 01 00
	00		 mov	 ecx, DWORD PTR [esi+364]
  00169	50		 push	 eax
  0016a	89 45 dc	 mov	 DWORD PTR _pIGraphInfo$1$[ebp], eax
  0016d	8b 11		 mov	 edx, DWORD PTR [ecx]
  0016f	ff 92 94 01 00
	00		 call	 DWORD PTR [edx+404]

; 146  : 	if( pIGraphInfo) pIGraphInfo->Release();

  00175	8b 4d dc	 mov	 ecx, DWORD PTR _pIGraphInfo$1$[ebp]
  00178	85 c9		 test	 ecx, ecx
  0017a	74 06		 je	 SHORT $LN3@OnInitDial
  0017c	8b 01		 mov	 eax, DWORD PTR [ecx]
  0017e	51		 push	 ecx
  0017f	ff 50 08	 call	 DWORD PTR [eax+8]
$LN3@OnInitDial:

; 147  : 
; 148  : 	// 2. 가격차트이거나 전체삭제버튼을 윈치 않을 경우 비활성상태.
; 149  : // 2008.01.25 by LYH >>
; 150  : 	//if( !strcmp( szIndicatorName, "가격차트") || !m_bEnableDeleteAll)
; 151  : 	if( !strcmp( szIndicatorName, _MTEXT( C2_PRICE_CHART )) || !m_bEnableDeleteAll)

  00182	a1 54 00 00 00	 mov	 eax, DWORD PTR ?g_iMetaTable@@3VIMetaTable@@A+84
  00187	8b 88 28 03 00
	00		 mov	 ecx, DWORD PTR [eax+808]
  0018d	8b c3		 mov	 eax, ebx
  0018f	90		 npad	 1
$LL40@OnInitDial:
  00190	8a 10		 mov	 dl, BYTE PTR [eax]
  00192	3a 11		 cmp	 dl, BYTE PTR [ecx]
  00194	75 1a		 jne	 SHORT $LN41@OnInitDial
  00196	84 d2		 test	 dl, dl
  00198	74 12		 je	 SHORT $LN42@OnInitDial
  0019a	8a 50 01	 mov	 dl, BYTE PTR [eax+1]
  0019d	3a 51 01	 cmp	 dl, BYTE PTR [ecx+1]
  001a0	75 0e		 jne	 SHORT $LN41@OnInitDial
  001a2	83 c0 02	 add	 eax, 2
  001a5	83 c1 02	 add	 ecx, 2
  001a8	84 d2		 test	 dl, dl
  001aa	75 e4		 jne	 SHORT $LL40@OnInitDial
$LN42@OnInitDial:
  001ac	33 c0		 xor	 eax, eax
  001ae	eb 05		 jmp	 SHORT $LN43@OnInitDial
$LN41@OnInitDial:
  001b0	1b c0		 sbb	 eax, eax
  001b2	83 c8 01	 or	 eax, 1
$LN43@OnInitDial:
  001b5	85 c0		 test	 eax, eax
  001b7	74 09		 je	 SHORT $LN5@OnInitDial
  001b9	83 be 60 01 00
	00 00		 cmp	 DWORD PTR [esi+352], 0
  001c0	75 19		 jne	 SHORT $LN6@OnInitDial
$LN5@OnInitDial:

; 152  : // 2008.01.25 by LYH <<
; 153  : 	{ 
; 154  : 		CButton* pbutton = (CButton* )GetDlgItem(IDC_ALL_DELETE);

  001c2	68 10 04 00 00	 push	 1040			; 00000410H
  001c7	8b ce		 mov	 ecx, esi
  001c9	e8 00 00 00 00	 call	 ?GetDlgItem@CWnd@@QBEPAV1@H@Z ; CWnd::GetDlgItem

; 155  : 		if( pbutton) pbutton->EnableWindow(FALSE);

  001ce	85 c0		 test	 eax, eax
  001d0	74 09		 je	 SHORT $LN6@OnInitDial
  001d2	6a 00		 push	 0
  001d4	8b c8		 mov	 ecx, eax
  001d6	e8 00 00 00 00	 call	 ?EnableWindow@CWnd@@QAEHH@Z ; CWnd::EnableWindow
$LN6@OnInitDial:

; 156  : 	}	
; 157  : 
; 158  : 	// (2004.09.06, 배승원) 선택된 Graph별 지표 설정을 받는도록 하는 기능에서,
; 159  : 	//		별도의 Check Button으로 Default (User Default) Indicator Info도 변경하도록 지원할 것인지를
; 160  : 	//		설정받아 처리토록 한다.
; 161  : 	if( m_bEnableWithDefaultInfo)

  001db	83 be 88 01 00
	00 00		 cmp	 DWORD PTR [esi+392], 0
  001e2	74 15		 je	 SHORT $LN7@OnInitDial

; 162  : 	{
; 163  : //		GetDlgItem( IDC_CHK_WITH_DEFAULT)->ShowWindow(SW_SHOW);
; 164  : 		GetDlgItem( IDC_ALL_DELETE)->ShowWindow(SW_SHOW);

  001e4	6a 05		 push	 5
  001e6	68 10 04 00 00	 push	 1040			; 00000410H
  001eb	8b ce		 mov	 ecx, esi
  001ed	e8 00 00 00 00	 call	 ?GetDlgItem@CWnd@@QBEPAV1@H@Z ; CWnd::GetDlgItem
  001f2	8b c8		 mov	 ecx, eax
  001f4	e8 00 00 00 00	 call	 ?ShowWindow@CWnd@@QAEHH@Z ; CWnd::ShowWindow
$LN7@OnInitDial:

; 165  : 	}
; 166  : 
; 167  : 	// (2006/12/10 - Seung-Won, Bae) Show Help in CGraphSetting Dlg.
; 168  : 	m_tabIndicatorSetUpAll.SetSubGraphName( ( const char *)szIndicatorName);

  001f9	51		 push	 ecx
  001fa	8b cc		 mov	 ecx, esp
  001fc	53		 push	 ebx
  001fd	ff 15 00 00 00
	00		 call	 DWORD PTR __imp_??0?$CStringT@DV?$StrTraitMFC_DLL@DV?$ChTraitsCRT@D@ATL@@@@@ATL@@QAE@PBD@Z
  00203	8d 8e b0 00 00
	00		 lea	 ecx, DWORD PTR [esi+176]
  00209	e8 00 00 00 00	 call	 ?SetSubGraphName@CTabSubIndicatorSetUpCtrl@@QAEXV?$CStringT@DV?$StrTraitMFC_DLL@DV?$ChTraitsCRT@D@ATL@@@@@ATL@@@Z ; CTabSubIndicatorSetUpCtrl::SetSubGraphName
; File D:\git\src\IBK\IBK_DRFN\ProjSrc\SrcChartEx\ChartAddIn\ChartEnvSetupDlgAddIn\Include_AddIn_135914\I135914\_IString.h

; 44   : 	{

  0020e	c7 45 fc 01 00
	00 00		 mov	 DWORD PTR __$EHRec$[ebp+8], 1

; 45   : 		if( m_pIStrData)

  00215	85 ff		 test	 edi, edi
  00217	74 06		 je	 SHORT $LN44@OnInitDial

; 46   : 		{
; 47   : 			m_pIStrData->Release();

  00219	8b 07		 mov	 eax, DWORD PTR [edi]
  0021b	57		 push	 edi
  0021c	ff 50 08	 call	 DWORD PTR [eax+8]
$LN44@OnInitDial:
; File D:\git\src\IBK\IBK_DRFN\ProjSrc\SrcChartEx\ChartAddIn\ChartEnvSetupDlgAddIn\ChartEnvSetupDlgAddIn\GraphSetting.cpp

; 172  : }

  0021f	b8 01 00 00 00	 mov	 eax, 1
  00224	8b 4d f4	 mov	 ecx, DWORD PTR __$EHRec$[ebp]
  00227	64 89 0d 00 00
	00 00		 mov	 DWORD PTR fs:0, ecx
  0022e	59		 pop	 ecx
  0022f	5f		 pop	 edi
  00230	5e		 pop	 esi
  00231	5b		 pop	 ebx
  00232	8b 4d f0	 mov	 ecx, DWORD PTR __$ArrayPad$[ebp]
  00235	33 cd		 xor	 ecx, ebp
  00237	e8 00 00 00 00	 call	 @__security_check_cookie@4
  0023c	8b e5		 mov	 esp, ebp
  0023e	5d		 pop	 ebp
  0023f	c3		 ret	 0
_TEXT	ENDS
;	COMDAT text$x
text$x	SEGMENT
__unwindfunclet$?OnInitDialog@CGraphSetting@@MAEHXZ$0:
  00000	8d 4d d4	 lea	 ecx, DWORD PTR _szIndicatorName$[ebp]
  00003	e9 00 00 00 00	 jmp	 ??1ILPCSTR135914@@QAE@XZ ; ILPCSTR135914::~ILPCSTR135914
  00008	cc		 int	 3
  00009	cc		 int	 3
  0000a	cc		 int	 3
  0000b	cc		 int	 3
  0000c	cc		 int	 3
__ehhandler$?OnInitDialog@CGraphSetting@@MAEHXZ:
  0000d	90		 npad	 1
  0000e	90		 npad	 1
  0000f	8b 54 24 08	 mov	 edx, DWORD PTR [esp+8]
  00013	8d 42 0c	 lea	 eax, DWORD PTR [edx+12]
  00016	8b 4a d0	 mov	 ecx, DWORD PTR [edx-48]
  00019	33 c8		 xor	 ecx, eax
  0001b	e8 00 00 00 00	 call	 @__security_check_cookie@4
  00020	8b 4a fc	 mov	 ecx, DWORD PTR [edx-4]
  00023	33 c8		 xor	 ecx, eax
  00025	e8 00 00 00 00	 call	 @__security_check_cookie@4
  0002a	b8 00 00 00 00	 mov	 eax, OFFSET __ehfuncinfo$?OnInitDialog@CGraphSetting@@MAEHXZ
  0002f	e9 00 00 00 00	 jmp	 ___CxxFrameHandler3
text$x	ENDS
?OnInitDialog@CGraphSetting@@MAEHXZ ENDP		; CGraphSetting::OnInitDialog
; Function compile flags: /Ogtp
; File D:\git\src\IBK\IBK_DRFN\ProjSrc\SrcChartEx\ChartAddIn\ChartEnvSetupDlgAddIn\ChartEnvSetupDlgAddIn\GraphSetting.cpp
;	COMDAT ?DoDataExchange@CGraphSetting@@MAEXPAVCDataExchange@@@Z
_TEXT	SEGMENT
_pDX$ = 8						; size = 4
?DoDataExchange@CGraphSetting@@MAEXPAVCDataExchange@@@Z PROC ; CGraphSetting::DoDataExchange, COMDAT
; _this$ = ecx

; 104  : {

  00000	55		 push	 ebp
  00001	8b ec		 mov	 ebp, esp
  00003	57		 push	 edi
  00004	8b f9		 mov	 edi, ecx

; 105  : 	CDialog::DoDataExchange(pDX);
; 106  : 	//{{AFX_DATA_MAP(CGraphSetting)
; 107  : 	DDX_Control(pDX, IDC_SUBTAB_ALL, m_tabIndicatorSetUpAll);

  00006	8d 87 b0 00 00
	00		 lea	 eax, DWORD PTR [edi+176]
  0000c	50		 push	 eax
  0000d	68 44 1f 00 00	 push	 8004			; 00001f44H
  00012	ff 75 08	 push	 DWORD PTR _pDX$[ebp]
  00015	e8 00 00 00 00	 call	 ?DDX_Control@@YGXPAVCDataExchange@@HAAVCWnd@@@Z ; DDX_Control

; 108  : 	DDX_Check(pDX, IDC_CHK_WITH_DEFAULT, m_bWithDefaultInfo);

  0001a	8d 87 48 01 00
	00		 lea	 eax, DWORD PTR [edi+328]
  00020	50		 push	 eax
  00021	68 49 04 00 00	 push	 1097			; 00000449H
  00026	ff 75 08	 push	 DWORD PTR _pDX$[ebp]
  00029	e8 00 00 00 00	 call	 ?DDX_Check@@YGXPAVCDataExchange@@HAAH@Z ; DDX_Check
  0002e	5f		 pop	 edi

; 109  : 	//}}AFX_DATA_MAP
; 110  : }

  0002f	5d		 pop	 ebp
  00030	c2 04 00	 ret	 4
?DoDataExchange@CGraphSetting@@MAEXPAVCDataExchange@@@Z ENDP ; CGraphSetting::DoDataExchange
_TEXT	ENDS
; Function compile flags: /Ogtp
; File D:\git\src\IBK\IBK_DRFN\ProjSrc\SrcChartEx\ChartAddIn\ChartEnvSetupDlgAddIn\ChartEnvSetupDlgAddIn\GraphSetting.cpp
;	COMDAT ?PreTranslateMessage@CGraphSetting@@UAEHPAUtagMSG@@@Z
_TEXT	SEGMENT
_pMsg$ = 8						; size = 4
?PreTranslateMessage@CGraphSetting@@UAEHPAUtagMSG@@@Z PROC ; CGraphSetting::PreTranslateMessage, COMDAT
; _this$ = ecx

; 329  : {

  00000	55		 push	 ebp
  00001	8b ec		 mov	 ebp, esp

; 330  : 	// TODO: Add your specialized code here and/or call the base class
; 331  : 	if(pMsg->message == WM_KEYDOWN)

  00003	8b 45 08	 mov	 eax, DWORD PTR _pMsg$[ebp]
  00006	81 78 04 00 01
	00 00		 cmp	 DWORD PTR [eax+4], 256	; 00000100H
  0000d	75 17		 jne	 SHORT $LN3@PreTransla

; 332  : 	{
; 333  : 		if(pMsg->wParam == VK_RETURN)

  0000f	83 78 08 0d	 cmp	 DWORD PTR [eax+8], 13	; 0000000dH
  00013	75 11		 jne	 SHORT $LN3@PreTransla

; 334  : 		{
; 335  : 			OnOK();

  00015	8b 01		 mov	 eax, DWORD PTR [ecx]
  00017	ff 90 88 01 00
	00		 call	 DWORD PTR [eax+392]

; 336  : 			return TRUE;

  0001d	b8 01 00 00 00	 mov	 eax, 1

; 340  : }

  00022	5d		 pop	 ebp
  00023	c2 04 00	 ret	 4
$LN3@PreTransla:

; 337  : 		}	
; 338  : 	}
; 339  : 	return CDialog::PreTranslateMessage(pMsg);

  00026	89 45 08	 mov	 DWORD PTR _pMsg$[ebp], eax

; 340  : }

  00029	5d		 pop	 ebp

; 337  : 		}	
; 338  : 	}
; 339  : 	return CDialog::PreTranslateMessage(pMsg);

  0002a	e9 00 00 00 00	 jmp	 ?PreTranslateMessage@CDialog@@UAEHPAUtagMSG@@@Z ; CDialog::PreTranslateMessage
?PreTranslateMessage@CGraphSetting@@UAEHPAUtagMSG@@@Z ENDP ; CGraphSetting::PreTranslateMessage
_TEXT	ENDS
; Function compile flags: /Ogtp
; File D:\git\src\IBK\IBK_DRFN\ProjSrc\SrcChartEx\ChartAddIn\ChartEnvSetupDlgAddIn\ChartEnvSetupDlgAddIn\GraphSetting.cpp
;	COMDAT ?ShowChildDialog@CGraphSetting@@UAEXH@Z
_TEXT	SEGMENT
_bShow$ = 8						; size = 4
?ShowChildDialog@CGraphSetting@@UAEXH@Z PROC		; CGraphSetting::ShowChildDialog, COMDAT
; _this$ = ecx

; 344  : {

  00000	55		 push	 ebp
  00001	8b ec		 mov	 ebp, esp

; 345  : 	// 1. ChildDialog의 List가 없으면 빠져나간다. 
; 346  : 	if( !m_pChildDlg) return;

  00003	8b 89 c4 00 00
	00		 mov	 ecx, DWORD PTR [ecx+196]
  00009	85 c9		 test	 ecx, ecx
  0000b	74 13		 je	 SHORT $LN1@ShowChildD

; 347  : 	
; 348  : 	// 2. m_plstChildDlg를 loop를 돌면서 Child Dialog를 Show / Hide를 한다.
; 349  : 	m_pChildDlg->ShowWindow( bShow ? SW_SHOW : SW_HIDE);

  0000d	8b 45 08	 mov	 eax, DWORD PTR _bShow$[ebp]
  00010	f7 d8		 neg	 eax
  00012	1b c0		 sbb	 eax, eax
  00014	83 e0 05	 and	 eax, 5
  00017	89 45 08	 mov	 DWORD PTR _bShow$[ebp], eax

; 350  : }

  0001a	5d		 pop	 ebp

; 347  : 	
; 348  : 	// 2. m_plstChildDlg를 loop를 돌면서 Child Dialog를 Show / Hide를 한다.
; 349  : 	m_pChildDlg->ShowWindow( bShow ? SW_SHOW : SW_HIDE);

  0001b	e9 00 00 00 00	 jmp	 ?ShowWindow@CWnd@@QAEHH@Z ; CWnd::ShowWindow
$LN1@ShowChildD:

; 350  : }

  00020	5d		 pop	 ebp
  00021	c2 04 00	 ret	 4
?ShowChildDialog@CGraphSetting@@UAEXH@Z ENDP		; CGraphSetting::ShowChildDialog
_TEXT	ENDS
; Function compile flags: /Ogtp
; File D:\git\src\IBK\IBK_DRFN\ProjSrc\SrcChartEx\ChartAddIn\ChartEnvSetupDlgAddIn\ChartEnvSetupDlgAddIn\GraphSetting.cpp
;	COMDAT ?GetReturnValue@CGraphSetting@@QBEHXZ
_TEXT	SEGMENT
?GetReturnValue@CGraphSetting@@QBEHXZ PROC		; CGraphSetting::GetReturnValue, COMDAT
; _this$ = ecx

; 230  : 	return m_eReturn;

  00000	8b 81 70 01 00
	00		 mov	 eax, DWORD PTR [ecx+368]

; 231  : }

  00006	c3		 ret	 0
?GetReturnValue@CGraphSetting@@QBEHXZ ENDP		; CGraphSetting::GetReturnValue
_TEXT	ENDS
; Function compile flags: /Ogtp
; File D:\git\src\IBK\IBK_DRFN\ProjSrc\SrcChartEx\ChartAddIn\ChartEnvSetupDlgAddIn\ChartEnvSetupDlgAddIn\GraphSetting.cpp
;	COMDAT ?SetDeleteAllButtonState@CGraphSetting@@QAEXH@Z
_TEXT	SEGMENT
_enableDeleteAll$ = 8					; size = 4
?SetDeleteAllButtonState@CGraphSetting@@QAEXH@Z PROC	; CGraphSetting::SetDeleteAllButtonState, COMDAT
; _this$ = ecx

; 293  : {

  00000	55		 push	 ebp
  00001	8b ec		 mov	 ebp, esp

; 294  : 	m_bEnableDeleteAll = enableDeleteAll;

  00003	8b 45 08	 mov	 eax, DWORD PTR _enableDeleteAll$[ebp]
  00006	89 81 60 01 00
	00		 mov	 DWORD PTR [ecx+352], eax

; 295  : }

  0000c	5d		 pop	 ebp
  0000d	c2 04 00	 ret	 4
?SetDeleteAllButtonState@CGraphSetting@@QAEXH@Z ENDP	; CGraphSetting::SetDeleteAllButtonState
_TEXT	ENDS
; Function compile flags: /Ogtp
; File D:\git\src\IBK\IBK_DRFN\ProjSrc\SrcChartEx\ChartAddIn\ChartEnvSetupDlgAddIn\ChartEnvSetupDlgAddIn\GraphSetting.cpp
;	COMDAT ?SetData@CGraphSetting@@QAEXPAUIGraphInfo135914@@HHH@Z
_TEXT	SEGMENT
_p_pIGraphInfo$ = 8					; size = 4
_p_bLogScale$ = 12					; size = 4
_p_bReverseScale$ = 16					; size = 4
_p_bDelAllCheck$ = 20					; size = 4
?SetData@CGraphSetting@@QAEXPAUIGraphInfo135914@@HHH@Z PROC ; CGraphSetting::SetData, COMDAT
; _this$ = ecx

; 176  : {

  00000	55		 push	 ebp
  00001	8b ec		 mov	 ebp, esp
  00003	56		 push	 esi
  00004	8b f1		 mov	 esi, ecx

; 177  : 	if( m_pIGraphInfo) m_pIGraphInfo->Release();

  00006	8b 8e 74 01 00
	00		 mov	 ecx, DWORD PTR [esi+372]
  0000c	85 c9		 test	 ecx, ecx
  0000e	74 06		 je	 SHORT $LN2@SetData
  00010	8b 01		 mov	 eax, DWORD PTR [ecx]
  00012	51		 push	 ecx
  00013	ff 50 08	 call	 DWORD PTR [eax+8]
$LN2@SetData:

; 178  : 	m_pIGraphInfo = p_pIGraphInfo;

  00016	8b 4d 08	 mov	 ecx, DWORD PTR _p_pIGraphInfo$[ebp]
  00019	89 8e 74 01 00
	00		 mov	 DWORD PTR [esi+372], ecx

; 179  : 	if( m_pIGraphInfo) m_pIGraphInfo->AddRef();

  0001f	85 c9		 test	 ecx, ecx
  00021	74 06		 je	 SHORT $LN3@SetData
  00023	8b 01		 mov	 eax, DWORD PTR [ecx]
  00025	51		 push	 ecx
  00026	ff 50 04	 call	 DWORD PTR [eax+4]
$LN3@SetData:

; 180  : 
; 181  : 	m_bVertLogScale = p_bLogScale;

  00029	8b 45 0c	 mov	 eax, DWORD PTR _p_bLogScale$[ebp]
  0002c	89 86 80 01 00
	00		 mov	 DWORD PTR [esi+384], eax

; 182  : 	m_bVertInvertScale = p_bReverseScale;

  00032	8b 45 10	 mov	 eax, DWORD PTR _p_bReverseScale$[ebp]
  00035	89 86 84 01 00
	00		 mov	 DWORD PTR [esi+388], eax

; 183  : 
; 184  : 	SetDeleteAllButtonState( p_bDelAllCheck);

  0003b	8b 45 14	 mov	 eax, DWORD PTR _p_bDelAllCheck$[ebp]
  0003e	89 86 60 01 00
	00		 mov	 DWORD PTR [esi+352], eax
  00044	5e		 pop	 esi

; 185  : }

  00045	5d		 pop	 ebp
  00046	c2 10 00	 ret	 16			; 00000010H
?SetData@CGraphSetting@@QAEXPAUIGraphInfo135914@@HHH@Z ENDP ; CGraphSetting::SetData
_TEXT	ENDS
; Function compile flags: /Ogtp
; File D:\git\src\IBK\IBK_DRFN\ProjSrc\SrcChartEx\ChartAddIn\ChartEnvSetupDlgAddIn\ChartEnvSetupDlgAddIn\GraphSetting.cpp
;	COMDAT ??1CGraphSetting@@UAE@XZ
_TEXT	SEGMENT
__$EHRec$ = -12						; size = 12
??1CGraphSetting@@UAE@XZ PROC				; CGraphSetting::~CGraphSetting, COMDAT
; _this$ = ecx

; 69   : {

  00000	55		 push	 ebp
  00001	8b ec		 mov	 ebp, esp
  00003	6a ff		 push	 -1
  00005	68 00 00 00 00	 push	 __ehhandler$??1CGraphSetting@@UAE@XZ
  0000a	64 a1 00 00 00
	00		 mov	 eax, DWORD PTR fs:0
  00010	50		 push	 eax
  00011	56		 push	 esi
  00012	a1 00 00 00 00	 mov	 eax, DWORD PTR ___security_cookie
  00017	33 c5		 xor	 eax, ebp
  00019	50		 push	 eax
  0001a	8d 45 f4	 lea	 eax, DWORD PTR __$EHRec$[ebp]
  0001d	64 a3 00 00 00
	00		 mov	 DWORD PTR fs:0, eax
  00023	8b f1		 mov	 esi, ecx

; 269  : 	if( m_pChildDlg != NULL)

  00025	8b 8e 6c 01 00
	00		 mov	 ecx, DWORD PTR [esi+364]

; 69   : {

  0002b	c7 06 00 00 00
	00		 mov	 DWORD PTR [esi], OFFSET ??_7CGraphSetting@@6BCDialog@@@
  00031	c7 86 a8 00 00
	00 00 00 00 00	 mov	 DWORD PTR [esi+168], OFFSET ??_7CGraphSetting@@6BCTabParentDlg@@@

; 269  : 	if( m_pChildDlg != NULL)

  0003b	85 c9		 test	 ecx, ecx
  0003d	74 20		 je	 SHORT $LN10@CGraphSett

; 270  : 	{
; 271  : 		m_pChildDlg->DestroyWindow();

  0003f	8b 01		 mov	 eax, DWORD PTR [ecx]
  00041	ff 50 68	 call	 DWORD PTR [eax+104]

; 272  : 		delete m_pChildDlg;

  00044	8b 8e 6c 01 00
	00		 mov	 ecx, DWORD PTR [esi+364]
  0004a	85 c9		 test	 ecx, ecx
  0004c	74 07		 je	 SHORT $LN12@CGraphSett
  0004e	8b 01		 mov	 eax, DWORD PTR [ecx]
  00050	6a 01		 push	 1
  00052	ff 50 04	 call	 DWORD PTR [eax+4]
$LN12@CGraphSett:

; 273  : 		m_pChildDlg = NULL;

  00055	c7 86 6c 01 00
	00 00 00 00 00	 mov	 DWORD PTR [esi+364], 0
$LN10@CGraphSett:

; 70   : 	DeleteChildDlg();
; 71   : 
; 72   : 	// (2004.10.08, 배승원) Chart OCX Interface를 관리하여, 이후 타 Object도 조회할 수 있도록 한다.
; 73   : 	if( m_pIChartOCX) m_pIChartOCX->Release();

  0005f	8b 8e 4c 01 00
	00		 mov	 ecx, DWORD PTR [esi+332]
  00065	85 c9		 test	 ecx, ecx
  00067	74 06		 je	 SHORT $LN2@CGraphSett
  00069	8b 01		 mov	 eax, DWORD PTR [ecx]
  0006b	51		 push	 ecx
  0006c	ff 50 08	 call	 DWORD PTR [eax+8]
$LN2@CGraphSett:

; 74   : 
; 75   : 	// (2004.10.11, 배승원) OCX로부터 주요 Manager의 Interface를 구하여 관리한다.
; 76   : 	if( m_pIPacketManager)

  0006f	8b 8e 50 01 00
	00		 mov	 ecx, DWORD PTR [esi+336]
  00075	85 c9		 test	 ecx, ecx
  00077	74 10		 je	 SHORT $LN3@CGraphSett

; 77   : 	{
; 78   : 		m_pIPacketManager->Release();

  00079	8b 01		 mov	 eax, DWORD PTR [ecx]
  0007b	51		 push	 ecx
  0007c	ff 50 08	 call	 DWORD PTR [eax+8]

; 79   : 		m_pIPacketManager = NULL;

  0007f	c7 86 50 01 00
	00 00 00 00 00	 mov	 DWORD PTR [esi+336], 0
$LN3@CGraphSett:

; 80   : 	}
; 81   : 	if( m_pIChartManager)

  00089	8b 8e 54 01 00
	00		 mov	 ecx, DWORD PTR [esi+340]
  0008f	85 c9		 test	 ecx, ecx
  00091	74 10		 je	 SHORT $LN4@CGraphSett

; 82   : 	{
; 83   : 		m_pIChartManager->Release();

  00093	8b 01		 mov	 eax, DWORD PTR [ecx]
  00095	51		 push	 ecx
  00096	ff 50 08	 call	 DWORD PTR [eax+8]

; 84   : 		m_pIChartManager = NULL;

  00099	c7 86 54 01 00
	00 00 00 00 00	 mov	 DWORD PTR [esi+340], 0
$LN4@CGraphSett:

; 85   : 	}
; 86   : 	if( m_pIGraphInfoManager)

  000a3	8b 8e 58 01 00
	00		 mov	 ecx, DWORD PTR [esi+344]
  000a9	85 c9		 test	 ecx, ecx
  000ab	74 10		 je	 SHORT $LN5@CGraphSett

; 87   : 	{
; 88   : 		m_pIGraphInfoManager->Release();

  000ad	8b 01		 mov	 eax, DWORD PTR [ecx]
  000af	51		 push	 ecx
  000b0	ff 50 08	 call	 DWORD PTR [eax+8]

; 89   : 		m_pIGraphInfoManager = NULL;

  000b3	c7 86 58 01 00
	00 00 00 00 00	 mov	 DWORD PTR [esi+344], 0
$LN5@CGraphSett:

; 90   : 	}
; 91   : 	if( m_pIAddInToolMgr)

  000bd	8b 8e 5c 01 00
	00		 mov	 ecx, DWORD PTR [esi+348]
  000c3	85 c9		 test	 ecx, ecx
  000c5	74 10		 je	 SHORT $LN6@CGraphSett

; 92   : 	{
; 93   : 		m_pIAddInToolMgr->Release();

  000c7	8b 01		 mov	 eax, DWORD PTR [ecx]
  000c9	51		 push	 ecx
  000ca	ff 50 08	 call	 DWORD PTR [eax+8]

; 94   : 		m_pIAddInToolMgr = NULL;

  000cd	c7 86 5c 01 00
	00 00 00 00 00	 mov	 DWORD PTR [esi+348], 0
$LN6@CGraphSett:

; 95   : 	}
; 96   : 	if( m_pIGraphInfo)

  000d7	8b 8e 74 01 00
	00		 mov	 ecx, DWORD PTR [esi+372]
  000dd	85 c9		 test	 ecx, ecx
  000df	74 10		 je	 SHORT $LN7@CGraphSett

; 97   : 	{
; 98   : 		m_pIGraphInfo->Release();

  000e1	8b 01		 mov	 eax, DWORD PTR [ecx]
  000e3	51		 push	 ecx
  000e4	ff 50 08	 call	 DWORD PTR [eax+8]

; 99   : 		m_pIGraphInfo = NULL;

  000e7	c7 86 74 01 00
	00 00 00 00 00	 mov	 DWORD PTR [esi+372], 0
$LN7@CGraphSett:

; 100  : 	}
; 101  : }

  000f1	8d 8e b0 00 00
	00		 lea	 ecx, DWORD PTR [esi+176]
  000f7	e8 00 00 00 00	 call	 ??1CTabSubIndicatorSetUpCtrl@@UAE@XZ ; CTabSubIndicatorSetUpCtrl::~CTabSubIndicatorSetUpCtrl
  000fc	8b ce		 mov	 ecx, esi
  000fe	e8 00 00 00 00	 call	 ??1CDialog@@UAE@XZ	; CDialog::~CDialog
  00103	8b 4d f4	 mov	 ecx, DWORD PTR __$EHRec$[ebp]
  00106	64 89 0d 00 00
	00 00		 mov	 DWORD PTR fs:0, ecx
  0010d	59		 pop	 ecx
  0010e	5e		 pop	 esi
  0010f	8b e5		 mov	 esp, ebp
  00111	5d		 pop	 ebp
  00112	c3		 ret	 0
  00113	cc		 int	 3
  00114	cc		 int	 3
  00115	cc		 int	 3
  00116	cc		 int	 3
  00117	cc		 int	 3
_TEXT	ENDS
;	COMDAT text$x
text$x	SEGMENT
__ehhandler$??1CGraphSetting@@UAE@XZ:
  00000	90		 npad	 1
  00001	90		 npad	 1
  00002	8b 54 24 08	 mov	 edx, DWORD PTR [esp+8]
  00006	8d 42 0c	 lea	 eax, DWORD PTR [edx+12]
  00009	8b 4a f8	 mov	 ecx, DWORD PTR [edx-8]
  0000c	33 c8		 xor	 ecx, eax
  0000e	e8 00 00 00 00	 call	 @__security_check_cookie@4
  00013	b8 00 00 00 00	 mov	 eax, OFFSET __ehfuncinfo$??1CGraphSetting@@UAE@XZ
  00018	e9 00 00 00 00	 jmp	 ___CxxFrameHandler3
text$x	ENDS
??1CGraphSetting@@UAE@XZ ENDP				; CGraphSetting::~CGraphSetting
; Function compile flags: /Ogtp
; File D:\git\src\IBK\IBK_DRFN\ProjSrc\SrcChartEx\ChartAddIn\ChartEnvSetupDlgAddIn\ChartEnvSetupDlgAddIn\GraphSetting.cpp
;	COMDAT ??0CGraphSetting@@QAE@PAUIChartOCX135914@@HPAVCWnd@@@Z
_TEXT	SEGMENT
_this$ = -16						; size = 4
__$EHRec$ = -12						; size = 12
_p_pIChartOCX$ = 8					; size = 4
_p_bEnableWithDefaultInfo$ = 12				; size = 4
_pParent$ = 16						; size = 4
??0CGraphSetting@@QAE@PAUIChartOCX135914@@HPAVCWnd@@@Z PROC ; CGraphSetting::CGraphSetting, COMDAT
; _this$ = ecx

; 32   : {

  00000	55		 push	 ebp
  00001	8b ec		 mov	 ebp, esp
  00003	6a ff		 push	 -1
  00005	68 00 00 00 00	 push	 __ehhandler$??0CGraphSetting@@QAE@PAUIChartOCX135914@@HPAVCWnd@@@Z
  0000a	64 a1 00 00 00
	00		 mov	 eax, DWORD PTR fs:0
  00010	50		 push	 eax
  00011	51		 push	 ecx
  00012	56		 push	 esi
  00013	a1 00 00 00 00	 mov	 eax, DWORD PTR ___security_cookie
  00018	33 c5		 xor	 eax, ebp
  0001a	50		 push	 eax
  0001b	8d 45 f4	 lea	 eax, DWORD PTR __$EHRec$[ebp]
  0001e	64 a3 00 00 00
	00		 mov	 DWORD PTR fs:0, eax
  00024	8b f1		 mov	 esi, ecx
  00026	89 75 f0	 mov	 DWORD PTR _this$[ebp], esi

; 29   : 	: CDialog(CGraphSetting::IDD, pParent),

  00029	ff 75 10	 push	 DWORD PTR _pParent$[ebp]
  0002c	68 ea 03 00 00	 push	 1002			; 000003eaH
  00031	e8 00 00 00 00	 call	 ??0CDialog@@QAE@IPAVCWnd@@@Z ; CDialog::CDialog
  00036	c7 86 a8 00 00
	00 00 00 00 00	 mov	 DWORD PTR [esi+168], OFFSET ??_7CTabParentDlg@@6B@

; 32   : {

  00040	8d 8e b0 00 00
	00		 lea	 ecx, DWORD PTR [esi+176]
  00046	c7 45 fc 00 00
	00 00		 mov	 DWORD PTR __$EHRec$[ebp+8], 0
  0004d	c7 06 00 00 00
	00		 mov	 DWORD PTR [esi], OFFSET ??_7CGraphSetting@@6BCDialog@@@
  00053	c7 86 a8 00 00
	00 00 00 00 00	 mov	 DWORD PTR [esi+168], OFFSET ??_7CGraphSetting@@6BCTabParentDlg@@@
  0005d	e8 00 00 00 00	 call	 ??0CTabSubIndicatorSetUpCtrl@@QAE@XZ ; CTabSubIndicatorSetUpCtrl::CTabSubIndicatorSetUpCtrl

; 33   : 	//{{AFX_DATA_INIT(CGraphSetting)
; 34   : 	m_bWithDefaultInfo = FALSE;
; 35   : 	//}}AFX_DATA_INIT
; 36   : 
; 37   : 	// (2004.10.15, 배승원) OCX Interface가 NULL인 경우를 대비하여, Member에 미리 NULL 초기화를 처리한다.
; 38   : 	m_pIPacketManager		= NULL;
; 39   : 	m_pIChartManager		= NULL;
; 40   : 	m_pIGraphInfoManager	= NULL;
; 41   : 	m_pIAddInToolMgr		= NULL;
; 42   : 	m_pIChartOCX			= p_pIChartOCX;

  00062	8b 4d 08	 mov	 ecx, DWORD PTR _p_pIChartOCX$[ebp]
  00065	c6 45 fc 01	 mov	 BYTE PTR __$EHRec$[ebp+8], 1
  00069	c7 86 60 01 00
	00 01 00 00 00	 mov	 DWORD PTR [esi+352], 1
  00073	c7 86 64 01 00
	00 00 00 00 00	 mov	 DWORD PTR [esi+356], 0
  0007d	c7 86 48 01 00
	00 00 00 00 00	 mov	 DWORD PTR [esi+328], 0
  00087	c7 86 50 01 00
	00 00 00 00 00	 mov	 DWORD PTR [esi+336], 0
  00091	c7 86 54 01 00
	00 00 00 00 00	 mov	 DWORD PTR [esi+340], 0
  0009b	c7 86 58 01 00
	00 00 00 00 00	 mov	 DWORD PTR [esi+344], 0
  000a5	c7 86 5c 01 00
	00 00 00 00 00	 mov	 DWORD PTR [esi+348], 0
  000af	89 8e 4c 01 00
	00		 mov	 DWORD PTR [esi+332], ecx

; 43   : 	if( m_pIChartOCX)

  000b5	85 c9		 test	 ecx, ecx
  000b7	74 50		 je	 SHORT $LN2@CGraphSett

; 44   : 	{
; 45   : 		m_pIChartOCX->AddRef();

  000b9	8b 01		 mov	 eax, DWORD PTR [ecx]
  000bb	51		 push	 ecx
  000bc	ff 50 04	 call	 DWORD PTR [eax+4]

; 46   : 		m_pIPacketManager		= m_pIChartOCX->GetIDefaultPacketManager();

  000bf	8b 8e 4c 01 00
	00		 mov	 ecx, DWORD PTR [esi+332]
  000c5	8b 01		 mov	 eax, DWORD PTR [ecx]
  000c7	ff 50 1c	 call	 DWORD PTR [eax+28]

; 47   : 		m_pIChartManager		= m_pIChartOCX->GetIChartManager();

  000ca	8b 8e 4c 01 00
	00		 mov	 ecx, DWORD PTR [esi+332]
  000d0	89 86 50 01 00
	00		 mov	 DWORD PTR [esi+336], eax
  000d6	8b 01		 mov	 eax, DWORD PTR [ecx]
  000d8	ff 50 18	 call	 DWORD PTR [eax+24]

; 48   : 		m_pIGraphInfoManager	= m_pIChartOCX->GetIGraphInfoManager();

  000db	8b 8e 4c 01 00
	00		 mov	 ecx, DWORD PTR [esi+332]
  000e1	89 86 54 01 00
	00		 mov	 DWORD PTR [esi+340], eax
  000e7	8b 01		 mov	 eax, DWORD PTR [ecx]
  000e9	ff 50 20	 call	 DWORD PTR [eax+32]

; 49   : 		m_pIAddInToolMgr		= m_pIChartOCX->GetIAddInToolMgr();

  000ec	8b 8e 4c 01 00
	00		 mov	 ecx, DWORD PTR [esi+332]
  000f2	89 86 58 01 00
	00		 mov	 DWORD PTR [esi+344], eax
  000f8	8b 01		 mov	 eax, DWORD PTR [ecx]
  000fa	ff 50 24	 call	 DWORD PTR [eax+36]
  000fd	8b 8e 4c 01 00
	00		 mov	 ecx, DWORD PTR [esi+332]
  00103	89 86 5c 01 00
	00		 mov	 DWORD PTR [esi+348], eax
$LN2@CGraphSett:

; 50   : 	}
; 51   : 
; 52   : 	m_eReturn = IDCANCEL;
; 53   : 	m_pIGraphInfo = NULL;
; 54   : 	
; 55   : 	//sy 2005.09.28.
; 56   : 	m_bVertLogScale = false;
; 57   : 	m_bVertInvertScale = false;
; 58   : 	m_bDoCalculate = false;
; 59   : 	
; 60   : 	// (2004.09.06, 배승원) 선택된 Graph별 지표 설정을 받는도록 하는 기능에서,
; 61   : 	//		별도의 Check Button으로 Default (User Default) Indicator Info도 변경하도록 지원할 것인지를
; 62   : 	//		설정받아 처리토록 한다.
; 63   : 	m_bEnableWithDefaultInfo = p_bEnableWithDefaultInfo;

  00109	8b 45 0c	 mov	 eax, DWORD PTR _p_bEnableWithDefaultInfo$[ebp]
  0010c	c7 86 70 01 00
	00 02 00 00 00	 mov	 DWORD PTR [esi+368], 2
  00116	c7 86 74 01 00
	00 00 00 00 00	 mov	 DWORD PTR [esi+372], 0
  00120	c7 86 80 01 00
	00 00 00 00 00	 mov	 DWORD PTR [esi+384], 0
  0012a	c7 86 84 01 00
	00 00 00 00 00	 mov	 DWORD PTR [esi+388], 0
  00134	c7 86 7c 01 00
	00 00 00 00 00	 mov	 DWORD PTR [esi+380], 0
  0013e	89 86 88 01 00
	00		 mov	 DWORD PTR [esi+392], eax

; 64   : 
; 65   : 	m_hOcxWnd = m_pIChartOCX->GetOcxHwnd();

  00144	8b 01		 mov	 eax, DWORD PTR [ecx]
  00146	ff 50 40	 call	 DWORD PTR [eax+64]
  00149	89 86 8c 01 00
	00		 mov	 DWORD PTR [esi+396], eax

; 66   : }

  0014f	8b c6		 mov	 eax, esi
  00151	8b 4d f4	 mov	 ecx, DWORD PTR __$EHRec$[ebp]
  00154	64 89 0d 00 00
	00 00		 mov	 DWORD PTR fs:0, ecx
  0015b	59		 pop	 ecx
  0015c	5e		 pop	 esi
  0015d	8b e5		 mov	 esp, ebp
  0015f	5d		 pop	 ebp
  00160	c2 0c 00	 ret	 12			; 0000000cH
_TEXT	ENDS
;	COMDAT text$x
text$x	SEGMENT
__unwindfunclet$??0CGraphSetting@@QAE@PAUIChartOCX135914@@HPAVCWnd@@@Z$0:
  00000	8b 4d f0	 mov	 ecx, DWORD PTR _this$[ebp]
  00003	e9 00 00 00 00	 jmp	 ??1CDialog@@UAE@XZ	; CDialog::~CDialog
__unwindfunclet$??0CGraphSetting@@QAE@PAUIChartOCX135914@@HPAVCWnd@@@Z$1:
  00008	8b 4d f0	 mov	 ecx, DWORD PTR _this$[ebp]
  0000b	81 c1 b0 00 00
	00		 add	 ecx, 176		; 000000b0H
  00011	e9 00 00 00 00	 jmp	 ??1CTabSubIndicatorSetUpCtrl@@UAE@XZ ; CTabSubIndicatorSetUpCtrl::~CTabSubIndicatorSetUpCtrl
  00016	cc		 int	 3
  00017	cc		 int	 3
  00018	cc		 int	 3
  00019	cc		 int	 3
  0001a	cc		 int	 3
__ehhandler$??0CGraphSetting@@QAE@PAUIChartOCX135914@@HPAVCWnd@@@Z:
  0001b	90		 npad	 1
  0001c	90		 npad	 1
  0001d	8b 54 24 08	 mov	 edx, DWORD PTR [esp+8]
  00021	8d 42 0c	 lea	 eax, DWORD PTR [edx+12]
  00024	8b 4a f4	 mov	 ecx, DWORD PTR [edx-12]
  00027	33 c8		 xor	 ecx, eax
  00029	e8 00 00 00 00	 call	 @__security_check_cookie@4
  0002e	b8 00 00 00 00	 mov	 eax, OFFSET __ehfuncinfo$??0CGraphSetting@@QAE@PAUIChartOCX135914@@HPAVCWnd@@@Z
  00033	e9 00 00 00 00	 jmp	 ___CxxFrameHandler3
text$x	ENDS
??0CGraphSetting@@QAE@PAUIChartOCX135914@@HPAVCWnd@@@Z ENDP ; CGraphSetting::CGraphSetting
; Function compile flags: /Ogtp
; File D:\git\src\IBK\IBK_DRFN\ProjSrc\SrcChartEx\ChartAddIn\ChartEnvSetupDlgAddIn\ChartEnvSetupDlgAddIn\GraphSetting.cpp
;	COMDAT ?GetRuntimeClass@CGraphSetting@@UBEPAUCRuntimeClass@@XZ
_TEXT	SEGMENT
?GetRuntimeClass@CGraphSetting@@UBEPAUCRuntimeClass@@XZ PROC ; CGraphSetting::GetRuntimeClass, COMDAT
; _this$ = ecx

; 24   : IMPLEMENT_DYNAMIC( CGraphSetting, CDialog)

  00000	b8 00 00 00 00	 mov	 eax, OFFSET ?classCGraphSetting@CGraphSetting@@2UCRuntimeClass@@B ; CGraphSetting::classCGraphSetting
  00005	c3		 ret	 0
?GetRuntimeClass@CGraphSetting@@UBEPAUCRuntimeClass@@XZ ENDP ; CGraphSetting::GetRuntimeClass
_TEXT	ENDS
; Function compile flags: /Ogtp
; File D:\git\src\IBK\IBK_DRFN\ProjSrc\SrcChartEx\ChartAddIn\ChartEnvSetupDlgAddIn\ChartEnvSetupDlgAddIn\GraphSetting.cpp
;	COMDAT ?GetThisClass@CGraphSetting@@SGPAUCRuntimeClass@@XZ
_TEXT	SEGMENT
?GetThisClass@CGraphSetting@@SGPAUCRuntimeClass@@XZ PROC ; CGraphSetting::GetThisClass, COMDAT

; 24   : IMPLEMENT_DYNAMIC( CGraphSetting, CDialog)

  00000	b8 00 00 00 00	 mov	 eax, OFFSET ?classCGraphSetting@CGraphSetting@@2UCRuntimeClass@@B ; CGraphSetting::classCGraphSetting
  00005	c3		 ret	 0
?GetThisClass@CGraphSetting@@SGPAUCRuntimeClass@@XZ ENDP ; CGraphSetting::GetThisClass
_TEXT	ENDS
; Function compile flags: /Ogtp
; File D:\git\src\IBK\IBK_DRFN\ProjSrc\SrcChartEx\ChartAddIn\ChartEnvSetupDlgAddIn\ChartEnvSetupDlgAddIn\GraphSetting.cpp
;	COMDAT ?_GetBaseClass@CGraphSetting@@KGPAUCRuntimeClass@@XZ
_TEXT	SEGMENT
?_GetBaseClass@CGraphSetting@@KGPAUCRuntimeClass@@XZ PROC ; CGraphSetting::_GetBaseClass, COMDAT

; 24   : IMPLEMENT_DYNAMIC( CGraphSetting, CDialog)

  00000	e9 00 00 00 00	 jmp	 ?GetThisClass@CDialog@@SGPAUCRuntimeClass@@XZ ; CDialog::GetThisClass
?_GetBaseClass@CGraphSetting@@KGPAUCRuntimeClass@@XZ ENDP ; CGraphSetting::_GetBaseClass
_TEXT	ENDS
; Function compile flags: /Ogtp
; File D:\git\src\IBK\IBK_DRFN\ProjSrc\SrcChartEx\ChartAddIn\ChartEnvSetupDlgAddIn\Include_AddIn_135914\I135914\_IString.h
;	COMDAT ??1ILPCSTR135914@@QAE@XZ
_TEXT	SEGMENT
__$EHRec$ = -12						; size = 12
??1ILPCSTR135914@@QAE@XZ PROC				; ILPCSTR135914::~ILPCSTR135914, COMDAT
; _this$ = ecx

; 44   : 	{

  00000	55		 push	 ebp
  00001	8b ec		 mov	 ebp, esp
  00003	6a ff		 push	 -1
  00005	68 00 00 00 00	 push	 __ehhandler$??1ILPCSTR135914@@QAE@XZ
  0000a	64 a1 00 00 00
	00		 mov	 eax, DWORD PTR fs:0
  00010	50		 push	 eax
  00011	56		 push	 esi
  00012	a1 00 00 00 00	 mov	 eax, DWORD PTR ___security_cookie
  00017	33 c5		 xor	 eax, ebp
  00019	50		 push	 eax
  0001a	8d 45 f4	 lea	 eax, DWORD PTR __$EHRec$[ebp]
  0001d	64 a3 00 00 00
	00		 mov	 DWORD PTR fs:0, eax
  00023	8b f1		 mov	 esi, ecx

; 45   : 		if( m_pIStrData)

  00025	8b 4e 04	 mov	 ecx, DWORD PTR [esi+4]
  00028	85 c9		 test	 ecx, ecx
  0002a	74 13		 je	 SHORT $LN2@ILPCSTR135

; 46   : 		{
; 47   : 			m_pIStrData->Release();

  0002c	8b 01		 mov	 eax, DWORD PTR [ecx]
  0002e	51		 push	 ecx
  0002f	ff 50 08	 call	 DWORD PTR [eax+8]

; 48   : 			m_pIStrData = NULL;

  00032	c7 46 04 00 00
	00 00		 mov	 DWORD PTR [esi+4], 0

; 49   : 			m_szData = NULL;

  00039	c7 06 00 00 00
	00		 mov	 DWORD PTR [esi], 0
$LN2@ILPCSTR135:

; 50   : 		}
; 51   : 	}

  0003f	8b 4d f4	 mov	 ecx, DWORD PTR __$EHRec$[ebp]
  00042	64 89 0d 00 00
	00 00		 mov	 DWORD PTR fs:0, ecx
  00049	59		 pop	 ecx
  0004a	5e		 pop	 esi
  0004b	8b e5		 mov	 esp, ebp
  0004d	5d		 pop	 ebp
  0004e	c3		 ret	 0
  0004f	cc		 int	 3
  00050	cc		 int	 3
  00051	cc		 int	 3
  00052	cc		 int	 3
  00053	cc		 int	 3
_TEXT	ENDS
;	COMDAT text$x
text$x	SEGMENT
__ehhandler$??1ILPCSTR135914@@QAE@XZ:
  00000	90		 npad	 1
  00001	90		 npad	 1
  00002	8b 54 24 08	 mov	 edx, DWORD PTR [esp+8]
  00006	8d 42 0c	 lea	 eax, DWORD PTR [edx+12]
  00009	8b 4a f8	 mov	 ecx, DWORD PTR [edx-8]
  0000c	33 c8		 xor	 ecx, eax
  0000e	e8 00 00 00 00	 call	 @__security_check_cookie@4
  00013	b8 00 00 00 00	 mov	 eax, OFFSET __ehfuncinfo$??1ILPCSTR135914@@QAE@XZ
  00018	e9 00 00 00 00	 jmp	 ___CxxFrameHandler3
text$x	ENDS
??1ILPCSTR135914@@QAE@XZ ENDP				; ILPCSTR135914::~ILPCSTR135914
; Function compile flags: /Ogtp
; File C:\Program Files (x86)\Microsoft Visual Studio\2019\Community\VC\Tools\MSVC\14.29.30133\atlmfc\include\afxwin2.inl
;	COMDAT ?Create@CDialog@@UAEHIPAVCWnd@@@Z
_TEXT	SEGMENT
_nIDTemplate$ = 8					; size = 4
_pParentWnd$ = 12					; size = 4
?Create@CDialog@@UAEHIPAVCWnd@@@Z PROC			; CDialog::Create, COMDAT
; _this$ = ecx

; 585  : 	{ return CDialog::Create(ATL_MAKEINTRESOURCE(nIDTemplate), pParentWnd); }

  00000	55		 push	 ebp
  00001	8b ec		 mov	 ebp, esp
  00003	0f b7 45 08	 movzx	 eax, WORD PTR _nIDTemplate$[ebp]
  00007	89 45 08	 mov	 DWORD PTR _nIDTemplate$[ebp], eax
  0000a	5d		 pop	 ebp
  0000b	e9 00 00 00 00	 jmp	 ?Create@CDialog@@UAEHPBDPAVCWnd@@@Z ; CDialog::Create
?Create@CDialog@@UAEHIPAVCWnd@@@Z ENDP			; CDialog::Create
_TEXT	ENDS
; Function compile flags: /Ogtp
; File C:\Program Files (x86)\Microsoft Visual Studio\2019\Community\VC\Tools\MSVC\14.29.30133\atlmfc\include\afxwin2.inl
;	COMDAT ?EndModalState@CWnd@@UAEXXZ
_TEXT	SEGMENT
?EndModalState@CWnd@@UAEXXZ PROC			; CWnd::EndModalState, COMDAT
; _this$ = ecx

; 567  : 	{ ::EnableWindow(m_hWnd, TRUE); }

  00000	6a 01		 push	 1
  00002	ff 71 20	 push	 DWORD PTR [ecx+32]
  00005	ff 15 00 00 00
	00		 call	 DWORD PTR __imp__EnableWindow@8
  0000b	c3		 ret	 0
?EndModalState@CWnd@@UAEXXZ ENDP			; CWnd::EndModalState
_TEXT	ENDS
; Function compile flags: /Ogtp
; File C:\Program Files (x86)\Microsoft Visual Studio\2019\Community\VC\Tools\MSVC\14.29.30133\atlmfc\include\afxwin2.inl
;	COMDAT ?BeginModalState@CWnd@@UAEXXZ
_TEXT	SEGMENT
?BeginModalState@CWnd@@UAEXXZ PROC			; CWnd::BeginModalState, COMDAT
; _this$ = ecx

; 565  : 	{ ::EnableWindow(m_hWnd, FALSE); }

  00000	6a 00		 push	 0
  00002	ff 71 20	 push	 DWORD PTR [ecx+32]
  00005	ff 15 00 00 00
	00		 call	 DWORD PTR __imp__EnableWindow@8
  0000b	c3		 ret	 0
?BeginModalState@CWnd@@UAEXXZ ENDP			; CWnd::BeginModalState
_TEXT	ENDS
; Function compile flags: /Ogtp
; File C:\Program Files (x86)\Microsoft Visual Studio\2019\Community\VC\Tools\MSVC\14.29.30133\atlmfc\include\afxwin2.inl
;	COMDAT ?DoDataExchange@CWnd@@MAEXPAVCDataExchange@@@Z
_TEXT	SEGMENT
___formal$ = 8						; size = 4
?DoDataExchange@CWnd@@MAEXPAVCDataExchange@@@Z PROC	; CWnd::DoDataExchange, COMDAT
; _this$ = ecx

; 561  : 	{ } // default does nothing

  00000	c2 04 00	 ret	 4
?DoDataExchange@CWnd@@MAEXPAVCDataExchange@@@Z ENDP	; CWnd::DoDataExchange
_TEXT	ENDS
; Function compile flags: /Ogtp
; File C:\Program Files (x86)\Microsoft Visual Studio\2019\Community\VC\Tools\MSVC\14.29.30133\atlmfc\include\afx.inl
;	COMDAT ?Dump@CObject@@UBEXAAVCDumpContext@@@Z
_TEXT	SEGMENT
___formal$ = 8						; size = 4
?Dump@CObject@@UBEXAAVCDumpContext@@@Z PROC		; CObject::Dump, COMDAT
; _this$ = ecx

; 122  : 	{ /* no dumping in release builds */ }

  00000	c2 04 00	 ret	 4
?Dump@CObject@@UBEXAAVCDumpContext@@@Z ENDP		; CObject::Dump
_TEXT	ENDS
; Function compile flags: /Ogtp
; File C:\Program Files (x86)\Microsoft Visual Studio\2019\Community\VC\Tools\MSVC\14.29.30133\atlmfc\include\afx.inl
;	COMDAT ?AssertValid@CObject@@UBEXXZ
_TEXT	SEGMENT
?AssertValid@CObject@@UBEXXZ PROC			; CObject::AssertValid, COMDAT
; _this$ = ecx

; 120  : 	{ /* no asserts in release builds */ }

  00000	c2 00 00	 ret	 0
?AssertValid@CObject@@UBEXXZ ENDP			; CObject::AssertValid
_TEXT	ENDS
; Function compile flags: /Ogtp
; File C:\Program Files (x86)\Microsoft Visual Studio\2019\Community\VC\Tools\MSVC\14.29.30133\atlmfc\include\afx.inl
;	COMDAT ?Serialize@CObject@@UAEXAAVCArchive@@@Z
_TEXT	SEGMENT
___formal$ = 8						; size = 4
?Serialize@CObject@@UAEXAAVCArchive@@@Z PROC		; CObject::Serialize, COMDAT
; _this$ = ecx

; 106  : 	{ /* CObject does not serialize anything by default */ }

  00000	c2 04 00	 ret	 4
?Serialize@CObject@@UAEXAAVCArchive@@@Z ENDP		; CObject::Serialize
_TEXT	ENDS
; Function compile flags: /Ogtp
; File D:\git\src\IBK\IBK_DRFN\ProjSrc\SrcChartEx\ChartAddIn\ChartEnvSetupDlgAddIn\ChartEnvSetupDlgAddIn\GraphSetting.cpp
;	COMDAT ?__empty_global_delete@@YAXPAXI@Z
_TEXT	SEGMENT
___formal$ = 8						; size = 4
___formal$ = 12						; size = 4
?__empty_global_delete@@YAXPAXI@Z PROC			; __empty_global_delete, COMDAT

  00000	c2 00 00	 ret	 0
?__empty_global_delete@@YAXPAXI@Z ENDP			; __empty_global_delete
_TEXT	ENDS
; Function compile flags: /Ogtp
; File D:\git\src\IBK\IBK_DRFN\ProjSrc\SrcChartEx\ChartAddIn\ChartEnvSetupDlgAddIn\ChartEnvSetupDlgAddIn\GraphSetting.cpp
;	COMDAT ?__empty_global_delete@@YAXPAX@Z
_TEXT	SEGMENT
___formal$ = 8						; size = 4
?__empty_global_delete@@YAXPAX@Z PROC			; __empty_global_delete, COMDAT

  00000	c2 00 00	 ret	 0
?__empty_global_delete@@YAXPAX@Z ENDP			; __empty_global_delete
_TEXT	ENDS
END
