; Listing generated by Microsoft (R) Optimizing Compiler Version 19.29.30145.0 

	TITLE	D:\git\src\IBK\IBK_DRFN\#DRfn-CS\_Obj\ChartEnvSetupDlgAddIn\IndicatorNameListCtrl.obj
	.686P
	.XMM
	include listing.inc
	.model	flat

INCLUDELIB MSVCRT
INCLUDELIB OLDNAMES

PUBLIC	?__empty_global_delete@@YAXPAX@Z		; __empty_global_delete
PUBLIC	?__empty_global_delete@@YAXPAXI@Z		; __empty_global_delete
PUBLIC	?Serialize@CObject@@UAEXAAVCArchive@@@Z		; CObject::Serialize
PUBLIC	?AssertValid@CObject@@UBEXXZ			; CObject::AssertValid
PUBLIC	?Dump@CObject@@UBEXAAVCDumpContext@@@Z		; CObject::Dump
PUBLIC	?DoDataExchange@CWnd@@MAEXPAVCDataExchange@@@Z	; CWnd::DoDataExchange
PUBLIC	?BeginModalState@CWnd@@UAEXXZ			; CWnd::BeginModalState
PUBLIC	?EndModalState@CWnd@@UAEXXZ			; CWnd::EndModalState
PUBLIC	?GetItemCount@CListCtrl@@QBEHXZ			; CListCtrl::GetItemCount
PUBLIC	??_GCListCtrl@@UAEPAXI@Z			; CListCtrl::`scalar deleting destructor'
PUBLIC	??1ILPCSTR135914@@QAE@XZ			; ILPCSTR135914::~ILPCSTR135914
PUBLIC	??0CIndicatorNameListCtrl@@QAE@PAVCGroupButtonCtrl@@PBDHPAUIPacketManager135914@@@Z ; CIndicatorNameListCtrl::CIndicatorNameListCtrl
PUBLIC	??1CIndicatorNameListCtrl@@UAE@XZ		; CIndicatorNameListCtrl::~CIndicatorNameListCtrl
PUBLIC	?OnItemchanged@CIndicatorNameListCtrl@@QAEXPAUtagNMHDR@@PAJ@Z ; CIndicatorNameListCtrl::OnItemchanged
PUBLIC	?OnClick@CIndicatorNameListCtrl@@QAEXPAUtagNMHDR@@PAJ@Z ; CIndicatorNameListCtrl::OnClick
PUBLIC	?OnDrawItem@CIndicatorNameListCtrl@@QAEXHPAUtagDRAWITEMSTRUCT@@@Z ; CIndicatorNameListCtrl::OnDrawItem
PUBLIC	?OnDblclk@CIndicatorNameListCtrl@@QAEXPAUtagNMHDR@@PAJ@Z ; CIndicatorNameListCtrl::OnDblclk
PUBLIC	?GetThisMessageMap@CIndicatorNameListCtrl@@KGPBUAFX_MSGMAP@@XZ ; CIndicatorNameListCtrl::GetThisMessageMap
PUBLIC	?GetMessageMap@CIndicatorNameListCtrl@@MBEPBUAFX_MSGMAP@@XZ ; CIndicatorNameListCtrl::GetMessageMap
PUBLIC	?InitColumn@CIndicatorNameListCtrl@@AAEXXZ	; CIndicatorNameListCtrl::InitColumn
PUBLIC	?Initialize@CIndicatorNameListCtrl@@AAE_NPAUIStringList135914@@0@Z ; CIndicatorNameListCtrl::Initialize
PUBLIC	?Initialize_Market@CIndicatorNameListCtrl@@AAE_NPAUIStringList135914@@@Z ; CIndicatorNameListCtrl::Initialize_Market
PUBLIC	?Initialize_PacketTimeType@CIndicatorNameListCtrl@@AAE_NPAUIStringList135914@@@Z ; CIndicatorNameListCtrl::Initialize_PacketTimeType
PUBLIC	?GetDataInPacket@CIndicatorNameListCtrl@@AAEXAAW4ICOMMODITY_BOND_NAME@IPacketManager135914@@AAW4HORZSCALEDRAWERTYPE@CScaleBaseData@@@Z ; CIndicatorNameListCtrl::GetDataInPacket
PUBLIC	?IsInitialize_Market@CIndicatorNameListCtrl@@ABE_NABV?$CStringT@DV?$StrTraitMFC_DLL@DV?$ChTraitsCRT@D@ATL@@@@@ATL@@@Z ; CIndicatorNameListCtrl::IsInitialize_Market
PUBLIC	?IsInitialize_PacketTimeType@CIndicatorNameListCtrl@@ABE_NABV?$CStringT@DV?$StrTraitMFC_DLL@DV?$ChTraitsCRT@D@ATL@@@@@ATL@@@Z ; CIndicatorNameListCtrl::IsInitialize_PacketTimeType
PUBLIC	?IsAddIndicatorName_DLL@CIndicatorNameListCtrl@@AAE_NXZ ; CIndicatorNameListCtrl::IsAddIndicatorName_DLL
PUBLIC	?IsAddIndicatorName@CIndicatorNameListCtrl@@AAE_NXZ ; CIndicatorNameListCtrl::IsAddIndicatorName
PUBLIC	?IsAddIndicatorName@CIndicatorNameListCtrl@@AAE_NW4ICOMMODITY_BOND_NAME@IPacketManager135914@@W4HORZSCALEDRAWERTYPE@CScaleBaseData@@PBD@Z ; CIndicatorNameListCtrl::IsAddIndicatorName
PUBLIC	?IsStock@CIndicatorNameListCtrl@@ABE_NW4ICOMMODITY_BOND_NAME@IPacketManager135914@@@Z ; CIndicatorNameListCtrl::IsStock
PUBLIC	?IsFuturesOrOption@CIndicatorNameListCtrl@@ABE_NW4ICOMMODITY_BOND_NAME@IPacketManager135914@@@Z ; CIndicatorNameListCtrl::IsFuturesOrOption
PUBLIC	?IsDailyOrWeekleyOrMonthly@CIndicatorNameListCtrl@@ABE_NW4HORZSCALEDRAWERTYPE@CScaleBaseData@@@Z ; CIndicatorNameListCtrl::IsDailyOrWeekleyOrMonthly
PUBLIC	?IsDailyOrTimeOrTick@CIndicatorNameListCtrl@@ABE_NW4HORZSCALEDRAWERTYPE@CScaleBaseData@@@Z ; CIndicatorNameListCtrl::IsDailyOrTimeOrTick
PUBLIC	?IsDaily@CIndicatorNameListCtrl@@ABE_NW4HORZSCALEDRAWERTYPE@CScaleBaseData@@@Z ; CIndicatorNameListCtrl::IsDaily
PUBLIC	?Initialize@CIndicatorNameListCtrl@@QAE_NPBDPAUIStringList135914@@1@Z ; CIndicatorNameListCtrl::Initialize
PUBLIC	?SetCheckSeletecItem@CIndicatorNameListCtrl@@QAEXPAUIStringList135914@@@Z ; CIndicatorNameListCtrl::SetCheckSeletecItem
PUBLIC	?SetAllUnCheck@CIndicatorNameListCtrl@@QAEXXZ	; CIndicatorNameListCtrl::SetAllUnCheck
PUBLIC	?SetFocusItem@CIndicatorNameListCtrl@@QAEXH@Z	; CIndicatorNameListCtrl::SetFocusItem
PUBLIC	?ReleaseFocusItem@CIndicatorNameListCtrl@@QAEXXZ ; CIndicatorNameListCtrl::ReleaseFocusItem
PUBLIC	?GetCheckState@CIndicatorNameListCtrl@@QAEHABV?$CStringT@DV?$StrTraitMFC_DLL@DV?$ChTraitsCRT@D@ATL@@@@@ATL@@AAH@Z ; CIndicatorNameListCtrl::GetCheckState
PUBLIC	?ChangeFocusItem@CIndicatorNameListCtrl@@QAEXXZ	; CIndicatorNameListCtrl::ChangeFocusItem
PUBLIC	?AddGraph@CIndicatorNameListCtrl@@QAEHABV?$CStringT@DV?$StrTraitMFC_DLL@DV?$ChTraitsCRT@D@ATL@@@@@ATL@@0@Z ; CIndicatorNameListCtrl::AddGraph
PUBLIC	?RemoveGraph@CIndicatorNameListCtrl@@QAEHH@Z	; CIndicatorNameListCtrl::RemoveGraph
PUBLIC	??_GCIndicatorNameListCtrl@@UAEPAXI@Z		; CIndicatorNameListCtrl::`scalar deleting destructor'
PUBLIC	??1CMultiLanguageResourceSetter@@QAE@XZ		; CMultiLanguageResourceSetter::~CMultiLanguageResourceSetter
PUBLIC	??_7CListCtrl@@6B@				; CListCtrl::`vftable'
PUBLIC	??_R0?AVCObject@@@8				; CObject `RTTI Type Descriptor'
PUBLIC	??_R3CObject@@8					; CObject::`RTTI Class Hierarchy Descriptor'
PUBLIC	??_R2CObject@@8					; CObject::`RTTI Base Class Array'
PUBLIC	??_R1A@?0A@EA@CObject@@8			; CObject::`RTTI Base Class Descriptor at (0,-1,0,64)'
PUBLIC	??_R1A@?0A@EA@CWnd@@8				; CWnd::`RTTI Base Class Descriptor at (0,-1,0,64)'
PUBLIC	??_R0?AVCWnd@@@8				; CWnd `RTTI Type Descriptor'
PUBLIC	??_R3CWnd@@8					; CWnd::`RTTI Class Hierarchy Descriptor'
PUBLIC	??_R2CWnd@@8					; CWnd::`RTTI Base Class Array'
PUBLIC	??_R1A@?0A@EA@CCmdTarget@@8			; CCmdTarget::`RTTI Base Class Descriptor at (0,-1,0,64)'
PUBLIC	??_R0?AVCCmdTarget@@@8				; CCmdTarget `RTTI Type Descriptor'
PUBLIC	??_R3CCmdTarget@@8				; CCmdTarget::`RTTI Class Hierarchy Descriptor'
PUBLIC	??_R2CCmdTarget@@8				; CCmdTarget::`RTTI Base Class Array'
PUBLIC	??_R4CListCtrl@@6B@				; CListCtrl::`RTTI Complete Object Locator'
PUBLIC	??_R0?AVCListCtrl@@@8				; CListCtrl `RTTI Type Descriptor'
PUBLIC	??_R3CListCtrl@@8				; CListCtrl::`RTTI Class Hierarchy Descriptor'
PUBLIC	??_R2CListCtrl@@8				; CListCtrl::`RTTI Base Class Array'
PUBLIC	??_R1A@?0A@EA@CListCtrl@@8			; CListCtrl::`RTTI Base Class Descriptor at (0,-1,0,64)'
PUBLIC	??_7CIndicatorNameListCtrl@@6B@			; CIndicatorNameListCtrl::`vftable'
PUBLIC	??_C@_0BA@ENJOCHIO@LoadResourceDLL@		; `string'
PUBLIC	??_C@_04JDFEIJL@?A?v?G?$KF@			; `string'
PUBLIC	??_C@_09JGBECMOF@GraphName@			; `string'
PUBLIC	??_C@_02PPKAJPJL@?$CG?$CG@			; `string'
PUBLIC	??_C@_01HNPIGOCE@?$CG@				; `string'
PUBLIC	??_R4CIndicatorNameListCtrl@@6B@		; CIndicatorNameListCtrl::`RTTI Complete Object Locator'
PUBLIC	??_R0?AVCIndicatorNameListCtrl@@@8		; CIndicatorNameListCtrl `RTTI Type Descriptor'
PUBLIC	??_R3CIndicatorNameListCtrl@@8			; CIndicatorNameListCtrl::`RTTI Class Hierarchy Descriptor'
PUBLIC	??_R2CIndicatorNameListCtrl@@8			; CIndicatorNameListCtrl::`RTTI Base Class Array'
PUBLIC	??_R1A@?0A@EA@CIndicatorNameListCtrl@@8		; CIndicatorNameListCtrl::`RTTI Base Class Descriptor at (0,-1,0,64)'
EXTRN	??3@YAXPAX@Z:PROC				; operator delete
EXTRN	?__global_delete@@YAXPAXI@Z:PROC		; __global_delete
EXTRN	___std_terminate:PROC
EXTRN	__imp__GetProcAddress@8:PROC
EXTRN	__imp__SendMessageA@16:PROC
EXTRN	__imp__EnableWindow@8:PROC
EXTRN	__imp__RedrawWindow@16:PROC
EXTRN	__imp__GetClientRect@8:PROC
EXTRN	__imp_??0?$CStringT@DV?$StrTraitMFC_DLL@DV?$ChTraitsCRT@D@ATL@@@@@ATL@@QAE@XZ:PROC
EXTRN	__imp_??0?$CStringT@DV?$StrTraitMFC_DLL@DV?$ChTraitsCRT@D@ATL@@@@@ATL@@QAE@PBD@Z:PROC
EXTRN	__imp_??1?$CStringT@DV?$StrTraitMFC_DLL@DV?$ChTraitsCRT@D@ATL@@@@@ATL@@QAE@XZ:PROC
EXTRN	__imp_??4?$CStringT@DV?$StrTraitMFC_DLL@DV?$ChTraitsCRT@D@ATL@@@@@ATL@@QAEAAV01@PBD@Z:PROC
EXTRN	__imp_?Compare@?$CStringT@DV?$StrTraitMFC_DLL@DV?$ChTraitsCRT@D@ATL@@@@@ATL@@QBEHPBD@Z:PROC
EXTRN	__imp_?CompareNoCase@?$CStringT@DV?$StrTraitMFC_DLL@DV?$ChTraitsCRT@D@ATL@@@@@ATL@@QBEHPBD@Z:PROC
EXTRN	__imp_?Replace@?$CStringT@DV?$StrTraitMFC_DLL@DV?$ChTraitsCRT@D@ATL@@@@@ATL@@QAEHPBD0@Z:PROC
EXTRN	__imp_?Find@?$CStringT@DV?$StrTraitMFC_DLL@DV?$ChTraitsCRT@D@ATL@@@@@ATL@@QBEHDH@Z:PROC
EXTRN	?AfxGetModuleState@@YGPAVAFX_MODULE_STATE@@XZ:PROC ; AfxGetModuleState
EXTRN	?AfxGetStaticModuleState@@YGPAVAFX_MODULE_STATE@@XZ:PROC ; AfxGetStaticModuleState
EXTRN	?OnCmdMsg@CCmdTarget@@UAEHIHPAXPAUAFX_CMDHANDLERINFO@@@Z:PROC ; CCmdTarget::OnCmdMsg
EXTRN	?IsInvokeAllowed@CCmdTarget@@UAEHJ@Z:PROC	; CCmdTarget::IsInvokeAllowed
EXTRN	?GetDispatchIID@CCmdTarget@@UAEHPAU_GUID@@@Z:PROC ; CCmdTarget::GetDispatchIID
EXTRN	?GetTypeInfoCount@CCmdTarget@@UAEIXZ:PROC	; CCmdTarget::GetTypeInfoCount
EXTRN	?GetTypeLibCache@CCmdTarget@@UAEPAVCTypeLibCache@@XZ:PROC ; CCmdTarget::GetTypeLibCache
EXTRN	?GetTypeLib@CCmdTarget@@UAEJKPAPAUITypeLib@@@Z:PROC ; CCmdTarget::GetTypeLib
EXTRN	?GetCommandMap@CCmdTarget@@MBEPBUAFX_OLECMDMAP@@XZ:PROC ; CCmdTarget::GetCommandMap
EXTRN	?GetDispatchMap@CCmdTarget@@MBEPBUAFX_DISPMAP@@XZ:PROC ; CCmdTarget::GetDispatchMap
EXTRN	?GetConnectionMap@CCmdTarget@@MBEPBUAFX_CONNECTIONMAP@@XZ:PROC ; CCmdTarget::GetConnectionMap
EXTRN	?GetEventSinkMap@CCmdTarget@@MBEPBUAFX_EVENTSINKMAP@@XZ:PROC ; CCmdTarget::GetEventSinkMap
EXTRN	?OnCreateAggregates@CCmdTarget@@UAEHXZ:PROC	; CCmdTarget::OnCreateAggregates
EXTRN	?GetInterfaceHook@CCmdTarget@@UAEPAUIUnknown@@PBX@Z:PROC ; CCmdTarget::GetInterfaceHook
EXTRN	?GetExtraConnectionPoints@CCmdTarget@@MAEHPAVCPtrArray@@@Z:PROC ; CCmdTarget::GetExtraConnectionPoints
EXTRN	?GetConnectionHook@CCmdTarget@@MAEPAUIConnectionPoint@@ABU_GUID@@@Z:PROC ; CCmdTarget::GetConnectionHook
EXTRN	??0CWnd@@QAE@XZ:PROC				; CWnd::CWnd
EXTRN	?PreSubclassWindow@CWnd@@UAEXXZ:PROC		; CWnd::PreSubclassWindow
EXTRN	?Create@CWnd@@UAEHPBD0KABUtagRECT@@PAV1@IPAUCCreateContext@@@Z:PROC ; CWnd::Create
EXTRN	?CreateEx@CWnd@@UAEHKPBD0KHHHHPAUHWND__@@PAUHMENU__@@PAX@Z:PROC ; CWnd::CreateEx
EXTRN	?CreateEx@CWnd@@UAEHKPBD0KABUtagRECT@@PAV1@IPAX@Z:PROC ; CWnd::CreateEx
EXTRN	?DestroyWindow@CWnd@@UAEHXZ:PROC		; CWnd::DestroyWindow
EXTRN	?PreCreateWindow@CWnd@@UAEHAAUtagCREATESTRUCTA@@@Z:PROC ; CWnd::PreCreateWindow
EXTRN	?CalcWindowRect@CWnd@@UAEXPAUtagRECT@@I@Z:PROC	; CWnd::CalcWindowRect
EXTRN	?GetDlgItem@CWnd@@QBEPAV1@H@Z:PROC		; CWnd::GetDlgItem
EXTRN	?GetMenu@CWnd@@UBEPAVCMenu@@XZ:PROC		; CWnd::GetMenu
EXTRN	?SetMenu@CWnd@@UAEHPAVCMenu@@@Z:PROC		; CWnd::SetMenu
EXTRN	?ShowWindow@CWnd@@QAEHH@Z:PROC			; CWnd::ShowWindow
EXTRN	?OnToolHitTest@CWnd@@UBEHVCPoint@@PAUtagTOOLINFOA@@@Z:PROC ; CWnd::OnToolHitTest
EXTRN	?SetDlgItemTextA@CWnd@@QAEXHPBD@Z:PROC		; CWnd::SetDlgItemTextA
EXTRN	?GetScrollBarCtrl@CWnd@@UBEPAVCScrollBar@@H@Z:PROC ; CWnd::GetScrollBarCtrl
EXTRN	?WinHelpA@CWnd@@UAEXKI@Z:PROC			; CWnd::WinHelpA
EXTRN	?HtmlHelpA@CWnd@@UAEXKI@Z:PROC			; CWnd::HtmlHelpA
EXTRN	?WinHelpInternal@CWnd@@UAEXKI@Z:PROC		; CWnd::WinHelpInternal
EXTRN	?ContinueModal@CWnd@@UAEHXZ:PROC		; CWnd::ContinueModal
EXTRN	?EndModalLoop@CWnd@@UAEXH@Z:PROC		; CWnd::EndModalLoop
EXTRN	?OnDrawIconicThumbnailOrLivePreview@CWnd@@UAEXAAVCDC@@VCRect@@VCSize@@HAAH@Z:PROC ; CWnd::OnDrawIconicThumbnailOrLivePreview
EXTRN	?GetInterfaceMap@CWnd@@MBEPBUAFX_INTERFACEMAP@@XZ:PROC ; CWnd::GetInterfaceMap
EXTRN	?EnsureStdObj@CWnd@@UAEJXZ:PROC			; CWnd::EnsureStdObj
EXTRN	?get_accParent@CWnd@@UAEJPAPAUIDispatch@@@Z:PROC ; CWnd::get_accParent
EXTRN	?get_accChildCount@CWnd@@UAEJPAJ@Z:PROC		; CWnd::get_accChildCount
EXTRN	?get_accChild@CWnd@@UAEJUtagVARIANT@@PAPAUIDispatch@@@Z:PROC ; CWnd::get_accChild
EXTRN	?get_accName@CWnd@@UAEJUtagVARIANT@@PAPA_W@Z:PROC ; CWnd::get_accName
EXTRN	?get_accValue@CWnd@@UAEJUtagVARIANT@@PAPA_W@Z:PROC ; CWnd::get_accValue
EXTRN	?get_accDescription@CWnd@@UAEJUtagVARIANT@@PAPA_W@Z:PROC ; CWnd::get_accDescription
EXTRN	?get_accRole@CWnd@@UAEJUtagVARIANT@@PAU2@@Z:PROC ; CWnd::get_accRole
EXTRN	?get_accState@CWnd@@UAEJUtagVARIANT@@PAU2@@Z:PROC ; CWnd::get_accState
EXTRN	?get_accHelp@CWnd@@UAEJUtagVARIANT@@PAPA_W@Z:PROC ; CWnd::get_accHelp
EXTRN	?get_accHelpTopic@CWnd@@UAEJPAPA_WUtagVARIANT@@PAJ@Z:PROC ; CWnd::get_accHelpTopic
EXTRN	?get_accKeyboardShortcut@CWnd@@UAEJUtagVARIANT@@PAPA_W@Z:PROC ; CWnd::get_accKeyboardShortcut
EXTRN	?get_accFocus@CWnd@@UAEJPAUtagVARIANT@@@Z:PROC	; CWnd::get_accFocus
EXTRN	?get_accSelection@CWnd@@UAEJPAUtagVARIANT@@@Z:PROC ; CWnd::get_accSelection
EXTRN	?get_accDefaultAction@CWnd@@UAEJUtagVARIANT@@PAPA_W@Z:PROC ; CWnd::get_accDefaultAction
EXTRN	?accSelect@CWnd@@UAEJJUtagVARIANT@@@Z:PROC	; CWnd::accSelect
EXTRN	?accLocation@CWnd@@UAEJPAJ000UtagVARIANT@@@Z:PROC ; CWnd::accLocation
EXTRN	?accNavigate@CWnd@@UAEJJUtagVARIANT@@PAU2@@Z:PROC ; CWnd::accNavigate
EXTRN	?accHitTest@CWnd@@UAEJJJPAUtagVARIANT@@@Z:PROC	; CWnd::accHitTest
EXTRN	?accDoDefaultAction@CWnd@@UAEJUtagVARIANT@@@Z:PROC ; CWnd::accDoDefaultAction
EXTRN	?put_accName@CWnd@@UAEJUtagVARIANT@@PA_W@Z:PROC	; CWnd::put_accName
EXTRN	?put_accValue@CWnd@@UAEJUtagVARIANT@@PA_W@Z:PROC ; CWnd::put_accValue
EXTRN	?SetProxy@CWnd@@UAEJPAUIAccessibleProxy@@@Z:PROC ; CWnd::SetProxy
EXTRN	?CreateAccessibleProxy@CWnd@@UAEJIJPAJ@Z:PROC	; CWnd::CreateAccessibleProxy
EXTRN	?OnCommand@CWnd@@MAEHIJ@Z:PROC			; CWnd::OnCommand
EXTRN	?OnNotify@CWnd@@MAEHIJPAJ@Z:PROC		; CWnd::OnNotify
EXTRN	?OnDrawItem@CWnd@@IAEXHPAUtagDRAWITEMSTRUCT@@@Z:PROC ; CWnd::OnDrawItem
EXTRN	?GetSuperWndProcAddr@CWnd@@MAEPAP6GJPAUHWND__@@IIJ@ZXZ:PROC ; CWnd::GetSuperWndProcAddr
EXTRN	?PreTranslateMessage@CWnd@@UAEHPAUtagMSG@@@Z:PROC ; CWnd::PreTranslateMessage
EXTRN	?OnAmbientProperty@CWnd@@UAEHPAVCOleControlSite@@JPAUtagVARIANT@@@Z:PROC ; CWnd::OnAmbientProperty
EXTRN	?WindowProc@CWnd@@MAEJIIJ@Z:PROC		; CWnd::WindowProc
EXTRN	?OnWndMsg@CWnd@@MAEHIIJPAJ@Z:PROC		; CWnd::OnWndMsg
EXTRN	?DefWindowProcA@CWnd@@MAEJIIJ@Z:PROC		; CWnd::DefWindowProcA
EXTRN	?PostNcDestroy@CWnd@@MAEXXZ:PROC		; CWnd::PostNcDestroy
EXTRN	?OnTouchInputs@CWnd@@MAEHIPAUtagTOUCHINPUT@@@Z:PROC ; CWnd::OnTouchInputs
EXTRN	?OnTouchInput@CWnd@@MAEHVCPoint@@HHPAUtagTOUCHINPUT@@@Z:PROC ; CWnd::OnTouchInput
EXTRN	?GetGestureStatus@CWnd@@MAEKVCPoint@@@Z:PROC	; CWnd::GetGestureStatus
EXTRN	?OnGestureZoom@CWnd@@MAEHVCPoint@@J@Z:PROC	; CWnd::OnGestureZoom
EXTRN	?OnGesturePan@CWnd@@MAEHVCPoint@@0@Z:PROC	; CWnd::OnGesturePan
EXTRN	?OnGestureRotate@CWnd@@MAEHVCPoint@@N@Z:PROC	; CWnd::OnGestureRotate
EXTRN	?OnGestureTwoFingerTap@CWnd@@MAEHVCPoint@@@Z:PROC ; CWnd::OnGestureTwoFingerTap
EXTRN	?OnGesturePressAndTap@CWnd@@MAEHVCPoint@@J@Z:PROC ; CWnd::OnGesturePressAndTap
EXTRN	?ResizeDynamicLayout@CWnd@@MAEXXZ:PROC		; CWnd::ResizeDynamicLayout
EXTRN	?CheckAutoCenter@CWnd@@UAEHXZ:PROC		; CWnd::CheckAutoCenter
EXTRN	?IsFrameWnd@CWnd@@UBEHXZ:PROC			; CWnd::IsFrameWnd
EXTRN	?OnFinalRelease@CWnd@@UAEXXZ:PROC		; CWnd::OnFinalRelease
EXTRN	?CreateControlContainer@CWnd@@MAEHPAPAVCOleControlContainer@@@Z:PROC ; CWnd::CreateControlContainer
EXTRN	?CreateControlSite@CWnd@@MAEHPAVCOleControlContainer@@PAPAVCOleControlSite@@IABU_GUID@@@Z:PROC ; CWnd::CreateControlSite
EXTRN	?SetOccDialogInfo@CWnd@@MAEHPAU_AFX_OCC_DIALOG_INFO@@@Z:PROC ; CWnd::SetOccDialogInfo
EXTRN	?GetOccDialogInfo@CWnd@@MAEPAU_AFX_OCC_DIALOG_INFO@@XZ:PROC ; CWnd::GetOccDialogInfo
EXTRN	?AfxMessageBox@@YGHIII@Z:PROC			; AfxMessageBox
EXTRN	?GetRuntimeClass@CListCtrl@@UBEPAUCRuntimeClass@@XZ:PROC ; CListCtrl::GetRuntimeClass
EXTRN	?SetItemState@CListCtrl@@QAEHHII@Z:PROC		; CListCtrl::SetItemState
EXTRN	?GetItemText@CListCtrl@@QBE?AV?$CStringT@DV?$StrTraitMFC_DLL@DV?$ChTraitsCRT@D@ATL@@@@@ATL@@HH@Z:PROC ; CListCtrl::GetItemText
EXTRN	?SetItemText@CListCtrl@@QAEHHHPBD@Z:PROC	; CListCtrl::SetItemText
EXTRN	?GetCheck@CListCtrl@@QBEHH@Z:PROC		; CListCtrl::GetCheck
EXTRN	?SetCheck@CListCtrl@@QAEHHH@Z:PROC		; CListCtrl::SetCheck
EXTRN	?DrawItem@CListCtrl@@UAEXPAUtagDRAWITEMSTRUCT@@@Z:PROC ; CListCtrl::DrawItem
EXTRN	?InsertItem@CListCtrl@@QAEHIHPBDIIHJ@Z:PROC	; CListCtrl::InsertItem
EXTRN	??1CListCtrl@@UAE@XZ:PROC			; CListCtrl::~CListCtrl
EXTRN	?OnChildNotify@CListCtrl@@MAEHIIJPAJ@Z:PROC	; CListCtrl::OnChildNotify
EXTRN	?GetThisMessageMap@CListCtrl@@KGPBUAFX_MSGMAP@@XZ:PROC ; CListCtrl::GetThisMessageMap
EXTRN	?GetMessageMap@CListCtrl@@MBEPBUAFX_MSGMAP@@XZ:PROC ; CListCtrl::GetMessageMap
EXTRN	??_ECListCtrl@@UAEPAXI@Z:PROC			; CListCtrl::`vector deleting destructor'
EXTRN	??_ECIndicatorNameListCtrl@@UAEPAXI@Z:PROC	; CIndicatorNameListCtrl::`vector deleting destructor'
EXTRN	??0COutsideCommonInterfaceFunction@@QAE@XZ:PROC	; COutsideCommonInterfaceFunction::COutsideCommonInterfaceFunction
EXTRN	??1COutsideCommonInterfaceFunction@@UAE@XZ:PROC	; COutsideCommonInterfaceFunction::~COutsideCommonInterfaceFunction
EXTRN	?Outside_IsLoad_MarketChart@COutsideCommonInterfaceFunction@@QBE_NXZ:PROC ; COutsideCommonInterfaceFunction::Outside_IsLoad_MarketChart
EXTRN	?GetSelectListCtrl@CGroupButtonCtrl@@QAEPAVCIndicatorNameListCtrl@@H@Z:PROC ; CGroupButtonCtrl::GetSelectListCtrl
EXTRN	?SelChangeGraph@CDlgMainTabIndicatorSetUp@@QAEXABV?$CStringT@DV?$StrTraitMFC_DLL@DV?$ChTraitsCRT@D@ATL@@@@@ATL@@0@Z:PROC ; CDlgMainTabIndicatorSetUp::SelChangeGraph
EXTRN	?AddGraph@CDlgMainTabIndicatorSetUp@@QAEXABV?$CStringT@DV?$StrTraitMFC_DLL@DV?$ChTraitsCRT@D@ATL@@@@@ATL@@AAV23@@Z:PROC ; CDlgMainTabIndicatorSetUp::AddGraph
EXTRN	?RemoveGraph@CDlgMainTabIndicatorSetUp@@QAEHPBD@Z:PROC ; CDlgMainTabIndicatorSetUp::RemoveGraph
EXTRN	?GetMChartInterface@CDlgMainTabIndicatorSetUp@@QAEXAAVCOutsideCommonInterfaceFunction@@@Z:PROC ; CDlgMainTabIndicatorSetUp::GetMChartInterface
EXTRN	?IsIndicatorNameInStocksDaily@CIndiConfigurationDefineData@@SA_NABV?$CStringT@DV?$StrTraitMFC_DLL@DV?$ChTraitsCRT@D@ATL@@@@@ATL@@@Z:PROC ; CIndiConfigurationDefineData::IsIndicatorNameInStocksDaily
EXTRN	?GetMetaText@IMetaTable@@QAEPBDPAUHWND__@@W4E_CODEPAGE@1@PBDH@Z:PROC ; IMetaTable::GetMetaText
EXTRN	?GetLanguageText@IMetaTable@@QAEPBDPAUHWND__@@W4E_CODEPAGE@1@PBDH@Z:PROC ; IMetaTable::GetLanguageText
EXTRN	@__security_check_cookie@4:PROC
EXTRN	___CxxFrameHandler3:PROC
EXTRN	??_7type_info@@6B@:QWORD			; type_info::`vftable'
EXTRN	?GROUPNAME_MARKET@CIndiConfigurationDefineData@@2PBDB:DWORD ; CIndiConfigurationDefineData::GROUPNAME_MARKET
EXTRN	?GROUPNAME_INVESTOR@CIndiConfigurationDefineData@@2PBDB:DWORD ; CIndiConfigurationDefineData::GROUPNAME_INVESTOR
EXTRN	?INDINAME_FO_UNAPPROVAL@CIndiConfigurationDefineData@@2PBDB:DWORD ; CIndiConfigurationDefineData::INDINAME_FO_UNAPPROVAL
EXTRN	?INDINAME_FO_PRICE@CIndiConfigurationDefineData@@2PBDB:DWORD ; CIndiConfigurationDefineData::INDINAME_FO_PRICE
EXTRN	?g_iMetaTable@@3VIMetaTable@@A:BYTE		; g_iMetaTable
EXTRN	___security_cookie:DWORD
;	COMDAT ??_R1A@?0A@EA@CIndicatorNameListCtrl@@8
rdata$r	SEGMENT
??_R1A@?0A@EA@CIndicatorNameListCtrl@@8 DD FLAT:??_R0?AVCIndicatorNameListCtrl@@@8 ; CIndicatorNameListCtrl::`RTTI Base Class Descriptor at (0,-1,0,64)'
	DD	04H
	DD	00H
	DD	0ffffffffH
	DD	00H
	DD	040H
	DD	FLAT:??_R3CIndicatorNameListCtrl@@8
rdata$r	ENDS
;	COMDAT ??_R2CIndicatorNameListCtrl@@8
rdata$r	SEGMENT
??_R2CIndicatorNameListCtrl@@8 DD FLAT:??_R1A@?0A@EA@CIndicatorNameListCtrl@@8 ; CIndicatorNameListCtrl::`RTTI Base Class Array'
	DD	FLAT:??_R1A@?0A@EA@CListCtrl@@8
	DD	FLAT:??_R1A@?0A@EA@CWnd@@8
	DD	FLAT:??_R1A@?0A@EA@CCmdTarget@@8
	DD	FLAT:??_R1A@?0A@EA@CObject@@8
rdata$r	ENDS
;	COMDAT ??_R3CIndicatorNameListCtrl@@8
rdata$r	SEGMENT
??_R3CIndicatorNameListCtrl@@8 DD 00H			; CIndicatorNameListCtrl::`RTTI Class Hierarchy Descriptor'
	DD	00H
	DD	05H
	DD	FLAT:??_R2CIndicatorNameListCtrl@@8
rdata$r	ENDS
;	COMDAT ??_R0?AVCIndicatorNameListCtrl@@@8
data$rs	SEGMENT
??_R0?AVCIndicatorNameListCtrl@@@8 DD FLAT:??_7type_info@@6B@ ; CIndicatorNameListCtrl `RTTI Type Descriptor'
	DD	00H
	DB	'.?AVCIndicatorNameListCtrl@@', 00H
data$rs	ENDS
;	COMDAT ??_R4CIndicatorNameListCtrl@@6B@
rdata$r	SEGMENT
??_R4CIndicatorNameListCtrl@@6B@ DD 00H			; CIndicatorNameListCtrl::`RTTI Complete Object Locator'
	DD	00H
	DD	00H
	DD	FLAT:??_R0?AVCIndicatorNameListCtrl@@@8
	DD	FLAT:??_R3CIndicatorNameListCtrl@@8
rdata$r	ENDS
;	COMDAT ??_C@_01HNPIGOCE@?$CG@
CONST	SEGMENT
??_C@_01HNPIGOCE@?$CG@ DB '&', 00H			; `string'
CONST	ENDS
;	COMDAT ??_C@_02PPKAJPJL@?$CG?$CG@
CONST	SEGMENT
??_C@_02PPKAJPJL@?$CG?$CG@ DB '&&', 00H			; `string'
CONST	ENDS
;	COMDAT ??_C@_09JGBECMOF@GraphName@
CONST	SEGMENT
??_C@_09JGBECMOF@GraphName@ DB 'GraphName', 00H		; `string'
CONST	ENDS
;	COMDAT ??_C@_04JDFEIJL@?A?v?G?$KF@
CONST	SEGMENT
??_C@_04JDFEIJL@?A?v?G?$KF@ DB 0c1H, 0f6H, 0c7H, 0a5H, 00H ; `string'
CONST	ENDS
;	COMDAT ?messageMap@?1??GetThisMessageMap@CIndicatorNameListCtrl@@KGPBUAFX_MSGMAP@@XZ@4U3@B
CONST	SEGMENT
?messageMap@?1??GetThisMessageMap@CIndicatorNameListCtrl@@KGPBUAFX_MSGMAP@@XZ@4U3@B DD FLAT:?GetThisMessageMap@CListCtrl@@KGPBUAFX_MSGMAP@@XZ ; `CIndicatorNameListCtrl::GetThisMessageMap'::`2'::messageMap
	DD	FLAT:?_messageEntries@?1??GetThisMessageMap@CIndicatorNameListCtrl@@KGPBUAFX_MSGMAP@@XZ@4QBUAFX_MSGMAP_ENTRY@@B
CONST	ENDS
;	COMDAT ?_messageEntries@?1??GetThisMessageMap@CIndicatorNameListCtrl@@KGPBUAFX_MSGMAP@@XZ@4QBUAFX_MSGMAP_ENTRY@@B
CONST	SEGMENT
?_messageEntries@?1??GetThisMessageMap@CIndicatorNameListCtrl@@KGPBUAFX_MSGMAP@@XZ@4QBUAFX_MSGMAP_ENTRY@@B DD 0bc4eH ; `CIndicatorNameListCtrl::GetThisMessageMap'::`2'::_messageEntries
	DD	0ff9bH
	DD	00H
	DD	00H
	DD	03eH
	DD	FLAT:?OnItemchanged@CIndicatorNameListCtrl@@QAEXPAUtagNMHDR@@PAJ@Z
	DD	0bc4eH
	DD	0fffeH
	DD	00H
	DD	00H
	DD	03eH
	DD	FLAT:?OnClick@CIndicatorNameListCtrl@@QAEXPAUtagNMHDR@@PAJ@Z
	DD	02bH
	DD	00H
	DD	00H
	DD	00H
	DD	02fH
	DD	FLAT:?OnDrawItem@CIndicatorNameListCtrl@@QAEXHPAUtagDRAWITEMSTRUCT@@@Z
	DD	0bc4eH
	DD	0fffdH
	DD	00H
	DD	00H
	DD	03eH
	DD	FLAT:?OnDblclk@CIndicatorNameListCtrl@@QAEXPAUtagNMHDR@@PAJ@Z
	DD	00H
	DD	00H
	DD	00H
	DD	00H
	DD	00H
	DD	00H
CONST	ENDS
;	COMDAT ??_C@_0BA@ENJOCHIO@LoadResourceDLL@
CONST	SEGMENT
??_C@_0BA@ENJOCHIO@LoadResourceDLL@ DB 'LoadResourceDLL', 00H ; `string'
CONST	ENDS
;	COMDAT ??_7CIndicatorNameListCtrl@@6B@
CONST	SEGMENT
??_7CIndicatorNameListCtrl@@6B@ DD FLAT:??_R4CIndicatorNameListCtrl@@6B@ ; CIndicatorNameListCtrl::`vftable'
	DD	FLAT:?GetRuntimeClass@CListCtrl@@UBEPAUCRuntimeClass@@XZ
	DD	FLAT:??_ECIndicatorNameListCtrl@@UAEPAXI@Z
	DD	FLAT:?Serialize@CObject@@UAEXAAVCArchive@@@Z
	DD	FLAT:?AssertValid@CObject@@UBEXXZ
	DD	FLAT:?Dump@CObject@@UBEXAAVCDumpContext@@@Z
	DD	FLAT:?OnCmdMsg@CCmdTarget@@UAEHIHPAXPAUAFX_CMDHANDLERINFO@@@Z
	DD	FLAT:?OnFinalRelease@CWnd@@UAEXXZ
	DD	FLAT:?IsInvokeAllowed@CCmdTarget@@UAEHJ@Z
	DD	FLAT:?GetDispatchIID@CCmdTarget@@UAEHPAU_GUID@@@Z
	DD	FLAT:?GetTypeInfoCount@CCmdTarget@@UAEIXZ
	DD	FLAT:?GetTypeLibCache@CCmdTarget@@UAEPAVCTypeLibCache@@XZ
	DD	FLAT:?GetTypeLib@CCmdTarget@@UAEJKPAPAUITypeLib@@@Z
	DD	FLAT:?GetMessageMap@CIndicatorNameListCtrl@@MBEPBUAFX_MSGMAP@@XZ
	DD	FLAT:?GetCommandMap@CCmdTarget@@MBEPBUAFX_OLECMDMAP@@XZ
	DD	FLAT:?GetDispatchMap@CCmdTarget@@MBEPBUAFX_DISPMAP@@XZ
	DD	FLAT:?GetConnectionMap@CCmdTarget@@MBEPBUAFX_CONNECTIONMAP@@XZ
	DD	FLAT:?GetInterfaceMap@CWnd@@MBEPBUAFX_INTERFACEMAP@@XZ
	DD	FLAT:?GetEventSinkMap@CCmdTarget@@MBEPBUAFX_EVENTSINKMAP@@XZ
	DD	FLAT:?OnCreateAggregates@CCmdTarget@@UAEHXZ
	DD	FLAT:?GetInterfaceHook@CCmdTarget@@UAEPAUIUnknown@@PBX@Z
	DD	FLAT:?GetExtraConnectionPoints@CCmdTarget@@MAEHPAVCPtrArray@@@Z
	DD	FLAT:?GetConnectionHook@CCmdTarget@@MAEPAUIConnectionPoint@@ABU_GUID@@@Z
	DD	FLAT:?PreSubclassWindow@CWnd@@UAEXXZ
	DD	FLAT:?Create@CWnd@@UAEHPBD0KABUtagRECT@@PAV1@IPAUCCreateContext@@@Z
	DD	FLAT:?CreateEx@CWnd@@UAEHKPBD0KABUtagRECT@@PAV1@IPAX@Z
	DD	FLAT:?CreateEx@CWnd@@UAEHKPBD0KHHHHPAUHWND__@@PAUHMENU__@@PAX@Z
	DD	FLAT:?DestroyWindow@CWnd@@UAEHXZ
	DD	FLAT:?PreCreateWindow@CWnd@@UAEHAAUtagCREATESTRUCTA@@@Z
	DD	FLAT:?CalcWindowRect@CWnd@@UAEXPAUtagRECT@@I@Z
	DD	FLAT:?GetMenu@CWnd@@UBEPAVCMenu@@XZ
	DD	FLAT:?SetMenu@CWnd@@UAEHPAVCMenu@@@Z
	DD	FLAT:?OnToolHitTest@CWnd@@UBEHVCPoint@@PAUtagTOOLINFOA@@@Z
	DD	FLAT:?GetScrollBarCtrl@CWnd@@UBEPAVCScrollBar@@H@Z
	DD	FLAT:?WinHelpA@CWnd@@UAEXKI@Z
	DD	FLAT:?HtmlHelpA@CWnd@@UAEXKI@Z
	DD	FLAT:?WinHelpInternal@CWnd@@UAEXKI@Z
	DD	FLAT:?ContinueModal@CWnd@@UAEHXZ
	DD	FLAT:?EndModalLoop@CWnd@@UAEXH@Z
	DD	FLAT:?OnDrawIconicThumbnailOrLivePreview@CWnd@@UAEXAAVCDC@@VCRect@@VCSize@@HAAH@Z
	DD	FLAT:?EnsureStdObj@CWnd@@UAEJXZ
	DD	FLAT:?get_accParent@CWnd@@UAEJPAPAUIDispatch@@@Z
	DD	FLAT:?get_accChildCount@CWnd@@UAEJPAJ@Z
	DD	FLAT:?get_accChild@CWnd@@UAEJUtagVARIANT@@PAPAUIDispatch@@@Z
	DD	FLAT:?get_accName@CWnd@@UAEJUtagVARIANT@@PAPA_W@Z
	DD	FLAT:?get_accValue@CWnd@@UAEJUtagVARIANT@@PAPA_W@Z
	DD	FLAT:?get_accDescription@CWnd@@UAEJUtagVARIANT@@PAPA_W@Z
	DD	FLAT:?get_accRole@CWnd@@UAEJUtagVARIANT@@PAU2@@Z
	DD	FLAT:?get_accState@CWnd@@UAEJUtagVARIANT@@PAU2@@Z
	DD	FLAT:?get_accHelp@CWnd@@UAEJUtagVARIANT@@PAPA_W@Z
	DD	FLAT:?get_accHelpTopic@CWnd@@UAEJPAPA_WUtagVARIANT@@PAJ@Z
	DD	FLAT:?get_accKeyboardShortcut@CWnd@@UAEJUtagVARIANT@@PAPA_W@Z
	DD	FLAT:?get_accFocus@CWnd@@UAEJPAUtagVARIANT@@@Z
	DD	FLAT:?get_accSelection@CWnd@@UAEJPAUtagVARIANT@@@Z
	DD	FLAT:?get_accDefaultAction@CWnd@@UAEJUtagVARIANT@@PAPA_W@Z
	DD	FLAT:?accSelect@CWnd@@UAEJJUtagVARIANT@@@Z
	DD	FLAT:?accLocation@CWnd@@UAEJPAJ000UtagVARIANT@@@Z
	DD	FLAT:?accNavigate@CWnd@@UAEJJUtagVARIANT@@PAU2@@Z
	DD	FLAT:?accHitTest@CWnd@@UAEJJJPAUtagVARIANT@@@Z
	DD	FLAT:?accDoDefaultAction@CWnd@@UAEJUtagVARIANT@@@Z
	DD	FLAT:?put_accName@CWnd@@UAEJUtagVARIANT@@PA_W@Z
	DD	FLAT:?put_accValue@CWnd@@UAEJUtagVARIANT@@PA_W@Z
	DD	FLAT:?SetProxy@CWnd@@UAEJPAUIAccessibleProxy@@@Z
	DD	FLAT:?CreateAccessibleProxy@CWnd@@UAEJIJPAJ@Z
	DD	FLAT:?OnCommand@CWnd@@MAEHIJ@Z
	DD	FLAT:?OnNotify@CWnd@@MAEHIJPAJ@Z
	DD	FLAT:?GetSuperWndProcAddr@CWnd@@MAEPAP6GJPAUHWND__@@IIJ@ZXZ
	DD	FLAT:?DoDataExchange@CWnd@@MAEXPAVCDataExchange@@@Z
	DD	FLAT:?BeginModalState@CWnd@@UAEXXZ
	DD	FLAT:?EndModalState@CWnd@@UAEXXZ
	DD	FLAT:?PreTranslateMessage@CWnd@@UAEHPAUtagMSG@@@Z
	DD	FLAT:?OnAmbientProperty@CWnd@@UAEHPAVCOleControlSite@@JPAUtagVARIANT@@@Z
	DD	FLAT:?WindowProc@CWnd@@MAEJIIJ@Z
	DD	FLAT:?OnWndMsg@CWnd@@MAEHIIJPAJ@Z
	DD	FLAT:?DefWindowProcA@CWnd@@MAEJIIJ@Z
	DD	FLAT:?PostNcDestroy@CWnd@@MAEXXZ
	DD	FLAT:?OnChildNotify@CListCtrl@@MAEHIIJPAJ@Z
	DD	FLAT:?OnTouchInputs@CWnd@@MAEHIPAUtagTOUCHINPUT@@@Z
	DD	FLAT:?OnTouchInput@CWnd@@MAEHVCPoint@@HHPAUtagTOUCHINPUT@@@Z
	DD	FLAT:?GetGestureStatus@CWnd@@MAEKVCPoint@@@Z
	DD	FLAT:?OnGestureZoom@CWnd@@MAEHVCPoint@@J@Z
	DD	FLAT:?OnGesturePan@CWnd@@MAEHVCPoint@@0@Z
	DD	FLAT:?OnGestureRotate@CWnd@@MAEHVCPoint@@N@Z
	DD	FLAT:?OnGestureTwoFingerTap@CWnd@@MAEHVCPoint@@@Z
	DD	FLAT:?OnGesturePressAndTap@CWnd@@MAEHVCPoint@@J@Z
	DD	FLAT:?ResizeDynamicLayout@CWnd@@MAEXXZ
	DD	FLAT:?CheckAutoCenter@CWnd@@UAEHXZ
	DD	FLAT:?IsFrameWnd@CWnd@@UBEHXZ
	DD	FLAT:?CreateControlContainer@CWnd@@MAEHPAPAVCOleControlContainer@@@Z
	DD	FLAT:?CreateControlSite@CWnd@@MAEHPAVCOleControlContainer@@PAPAVCOleControlSite@@IABU_GUID@@@Z
	DD	FLAT:?SetOccDialogInfo@CWnd@@MAEHPAU_AFX_OCC_DIALOG_INFO@@@Z
	DD	FLAT:?GetOccDialogInfo@CWnd@@MAEPAU_AFX_OCC_DIALOG_INFO@@XZ
	DD	FLAT:?DrawItem@CListCtrl@@UAEXPAUtagDRAWITEMSTRUCT@@@Z
CONST	ENDS
;	COMDAT ??_R1A@?0A@EA@CListCtrl@@8
rdata$r	SEGMENT
??_R1A@?0A@EA@CListCtrl@@8 DD FLAT:??_R0?AVCListCtrl@@@8 ; CListCtrl::`RTTI Base Class Descriptor at (0,-1,0,64)'
	DD	03H
	DD	00H
	DD	0ffffffffH
	DD	00H
	DD	040H
	DD	FLAT:??_R3CListCtrl@@8
rdata$r	ENDS
;	COMDAT ??_R2CListCtrl@@8
rdata$r	SEGMENT
??_R2CListCtrl@@8 DD FLAT:??_R1A@?0A@EA@CListCtrl@@8	; CListCtrl::`RTTI Base Class Array'
	DD	FLAT:??_R1A@?0A@EA@CWnd@@8
	DD	FLAT:??_R1A@?0A@EA@CCmdTarget@@8
	DD	FLAT:??_R1A@?0A@EA@CObject@@8
rdata$r	ENDS
;	COMDAT ??_R3CListCtrl@@8
rdata$r	SEGMENT
??_R3CListCtrl@@8 DD 00H				; CListCtrl::`RTTI Class Hierarchy Descriptor'
	DD	00H
	DD	04H
	DD	FLAT:??_R2CListCtrl@@8
rdata$r	ENDS
;	COMDAT ??_R0?AVCListCtrl@@@8
data$rs	SEGMENT
??_R0?AVCListCtrl@@@8 DD FLAT:??_7type_info@@6B@	; CListCtrl `RTTI Type Descriptor'
	DD	00H
	DB	'.?AVCListCtrl@@', 00H
data$rs	ENDS
;	COMDAT ??_R4CListCtrl@@6B@
rdata$r	SEGMENT
??_R4CListCtrl@@6B@ DD 00H				; CListCtrl::`RTTI Complete Object Locator'
	DD	00H
	DD	00H
	DD	FLAT:??_R0?AVCListCtrl@@@8
	DD	FLAT:??_R3CListCtrl@@8
rdata$r	ENDS
;	COMDAT ??_R2CCmdTarget@@8
rdata$r	SEGMENT
??_R2CCmdTarget@@8 DD FLAT:??_R1A@?0A@EA@CCmdTarget@@8	; CCmdTarget::`RTTI Base Class Array'
	DD	FLAT:??_R1A@?0A@EA@CObject@@8
rdata$r	ENDS
;	COMDAT ??_R3CCmdTarget@@8
rdata$r	SEGMENT
??_R3CCmdTarget@@8 DD 00H				; CCmdTarget::`RTTI Class Hierarchy Descriptor'
	DD	00H
	DD	02H
	DD	FLAT:??_R2CCmdTarget@@8
rdata$r	ENDS
;	COMDAT ??_R0?AVCCmdTarget@@@8
data$rs	SEGMENT
??_R0?AVCCmdTarget@@@8 DD FLAT:??_7type_info@@6B@	; CCmdTarget `RTTI Type Descriptor'
	DD	00H
	DB	'.?AVCCmdTarget@@', 00H
data$rs	ENDS
;	COMDAT ??_R1A@?0A@EA@CCmdTarget@@8
rdata$r	SEGMENT
??_R1A@?0A@EA@CCmdTarget@@8 DD FLAT:??_R0?AVCCmdTarget@@@8 ; CCmdTarget::`RTTI Base Class Descriptor at (0,-1,0,64)'
	DD	01H
	DD	00H
	DD	0ffffffffH
	DD	00H
	DD	040H
	DD	FLAT:??_R3CCmdTarget@@8
rdata$r	ENDS
;	COMDAT ??_R2CWnd@@8
rdata$r	SEGMENT
??_R2CWnd@@8 DD	FLAT:??_R1A@?0A@EA@CWnd@@8		; CWnd::`RTTI Base Class Array'
	DD	FLAT:??_R1A@?0A@EA@CCmdTarget@@8
	DD	FLAT:??_R1A@?0A@EA@CObject@@8
rdata$r	ENDS
;	COMDAT ??_R3CWnd@@8
rdata$r	SEGMENT
??_R3CWnd@@8 DD	00H					; CWnd::`RTTI Class Hierarchy Descriptor'
	DD	00H
	DD	03H
	DD	FLAT:??_R2CWnd@@8
rdata$r	ENDS
;	COMDAT ??_R0?AVCWnd@@@8
data$rs	SEGMENT
??_R0?AVCWnd@@@8 DD FLAT:??_7type_info@@6B@		; CWnd `RTTI Type Descriptor'
	DD	00H
	DB	'.?AVCWnd@@', 00H
data$rs	ENDS
;	COMDAT ??_R1A@?0A@EA@CWnd@@8
rdata$r	SEGMENT
??_R1A@?0A@EA@CWnd@@8 DD FLAT:??_R0?AVCWnd@@@8		; CWnd::`RTTI Base Class Descriptor at (0,-1,0,64)'
	DD	02H
	DD	00H
	DD	0ffffffffH
	DD	00H
	DD	040H
	DD	FLAT:??_R3CWnd@@8
rdata$r	ENDS
;	COMDAT ??_R1A@?0A@EA@CObject@@8
rdata$r	SEGMENT
??_R1A@?0A@EA@CObject@@8 DD FLAT:??_R0?AVCObject@@@8	; CObject::`RTTI Base Class Descriptor at (0,-1,0,64)'
	DD	00H
	DD	00H
	DD	0ffffffffH
	DD	00H
	DD	040H
	DD	FLAT:??_R3CObject@@8
rdata$r	ENDS
;	COMDAT ??_R2CObject@@8
rdata$r	SEGMENT
??_R2CObject@@8 DD FLAT:??_R1A@?0A@EA@CObject@@8	; CObject::`RTTI Base Class Array'
rdata$r	ENDS
;	COMDAT ??_R3CObject@@8
rdata$r	SEGMENT
??_R3CObject@@8 DD 00H					; CObject::`RTTI Class Hierarchy Descriptor'
	DD	00H
	DD	01H
	DD	FLAT:??_R2CObject@@8
rdata$r	ENDS
;	COMDAT ??_R0?AVCObject@@@8
data$rs	SEGMENT
??_R0?AVCObject@@@8 DD FLAT:??_7type_info@@6B@		; CObject `RTTI Type Descriptor'
	DD	00H
	DB	'.?AVCObject@@', 00H
data$rs	ENDS
;	COMDAT ??_7CListCtrl@@6B@
CONST	SEGMENT
??_7CListCtrl@@6B@ DD FLAT:??_R4CListCtrl@@6B@		; CListCtrl::`vftable'
	DD	FLAT:?GetRuntimeClass@CListCtrl@@UBEPAUCRuntimeClass@@XZ
	DD	FLAT:??_ECListCtrl@@UAEPAXI@Z
	DD	FLAT:?Serialize@CObject@@UAEXAAVCArchive@@@Z
	DD	FLAT:?AssertValid@CObject@@UBEXXZ
	DD	FLAT:?Dump@CObject@@UBEXAAVCDumpContext@@@Z
	DD	FLAT:?OnCmdMsg@CCmdTarget@@UAEHIHPAXPAUAFX_CMDHANDLERINFO@@@Z
	DD	FLAT:?OnFinalRelease@CWnd@@UAEXXZ
	DD	FLAT:?IsInvokeAllowed@CCmdTarget@@UAEHJ@Z
	DD	FLAT:?GetDispatchIID@CCmdTarget@@UAEHPAU_GUID@@@Z
	DD	FLAT:?GetTypeInfoCount@CCmdTarget@@UAEIXZ
	DD	FLAT:?GetTypeLibCache@CCmdTarget@@UAEPAVCTypeLibCache@@XZ
	DD	FLAT:?GetTypeLib@CCmdTarget@@UAEJKPAPAUITypeLib@@@Z
	DD	FLAT:?GetMessageMap@CListCtrl@@MBEPBUAFX_MSGMAP@@XZ
	DD	FLAT:?GetCommandMap@CCmdTarget@@MBEPBUAFX_OLECMDMAP@@XZ
	DD	FLAT:?GetDispatchMap@CCmdTarget@@MBEPBUAFX_DISPMAP@@XZ
	DD	FLAT:?GetConnectionMap@CCmdTarget@@MBEPBUAFX_CONNECTIONMAP@@XZ
	DD	FLAT:?GetInterfaceMap@CWnd@@MBEPBUAFX_INTERFACEMAP@@XZ
	DD	FLAT:?GetEventSinkMap@CCmdTarget@@MBEPBUAFX_EVENTSINKMAP@@XZ
	DD	FLAT:?OnCreateAggregates@CCmdTarget@@UAEHXZ
	DD	FLAT:?GetInterfaceHook@CCmdTarget@@UAEPAUIUnknown@@PBX@Z
	DD	FLAT:?GetExtraConnectionPoints@CCmdTarget@@MAEHPAVCPtrArray@@@Z
	DD	FLAT:?GetConnectionHook@CCmdTarget@@MAEPAUIConnectionPoint@@ABU_GUID@@@Z
	DD	FLAT:?PreSubclassWindow@CWnd@@UAEXXZ
	DD	FLAT:?Create@CWnd@@UAEHPBD0KABUtagRECT@@PAV1@IPAUCCreateContext@@@Z
	DD	FLAT:?CreateEx@CWnd@@UAEHKPBD0KABUtagRECT@@PAV1@IPAX@Z
	DD	FLAT:?CreateEx@CWnd@@UAEHKPBD0KHHHHPAUHWND__@@PAUHMENU__@@PAX@Z
	DD	FLAT:?DestroyWindow@CWnd@@UAEHXZ
	DD	FLAT:?PreCreateWindow@CWnd@@UAEHAAUtagCREATESTRUCTA@@@Z
	DD	FLAT:?CalcWindowRect@CWnd@@UAEXPAUtagRECT@@I@Z
	DD	FLAT:?GetMenu@CWnd@@UBEPAVCMenu@@XZ
	DD	FLAT:?SetMenu@CWnd@@UAEHPAVCMenu@@@Z
	DD	FLAT:?OnToolHitTest@CWnd@@UBEHVCPoint@@PAUtagTOOLINFOA@@@Z
	DD	FLAT:?GetScrollBarCtrl@CWnd@@UBEPAVCScrollBar@@H@Z
	DD	FLAT:?WinHelpA@CWnd@@UAEXKI@Z
	DD	FLAT:?HtmlHelpA@CWnd@@UAEXKI@Z
	DD	FLAT:?WinHelpInternal@CWnd@@UAEXKI@Z
	DD	FLAT:?ContinueModal@CWnd@@UAEHXZ
	DD	FLAT:?EndModalLoop@CWnd@@UAEXH@Z
	DD	FLAT:?OnDrawIconicThumbnailOrLivePreview@CWnd@@UAEXAAVCDC@@VCRect@@VCSize@@HAAH@Z
	DD	FLAT:?EnsureStdObj@CWnd@@UAEJXZ
	DD	FLAT:?get_accParent@CWnd@@UAEJPAPAUIDispatch@@@Z
	DD	FLAT:?get_accChildCount@CWnd@@UAEJPAJ@Z
	DD	FLAT:?get_accChild@CWnd@@UAEJUtagVARIANT@@PAPAUIDispatch@@@Z
	DD	FLAT:?get_accName@CWnd@@UAEJUtagVARIANT@@PAPA_W@Z
	DD	FLAT:?get_accValue@CWnd@@UAEJUtagVARIANT@@PAPA_W@Z
	DD	FLAT:?get_accDescription@CWnd@@UAEJUtagVARIANT@@PAPA_W@Z
	DD	FLAT:?get_accRole@CWnd@@UAEJUtagVARIANT@@PAU2@@Z
	DD	FLAT:?get_accState@CWnd@@UAEJUtagVARIANT@@PAU2@@Z
	DD	FLAT:?get_accHelp@CWnd@@UAEJUtagVARIANT@@PAPA_W@Z
	DD	FLAT:?get_accHelpTopic@CWnd@@UAEJPAPA_WUtagVARIANT@@PAJ@Z
	DD	FLAT:?get_accKeyboardShortcut@CWnd@@UAEJUtagVARIANT@@PAPA_W@Z
	DD	FLAT:?get_accFocus@CWnd@@UAEJPAUtagVARIANT@@@Z
	DD	FLAT:?get_accSelection@CWnd@@UAEJPAUtagVARIANT@@@Z
	DD	FLAT:?get_accDefaultAction@CWnd@@UAEJUtagVARIANT@@PAPA_W@Z
	DD	FLAT:?accSelect@CWnd@@UAEJJUtagVARIANT@@@Z
	DD	FLAT:?accLocation@CWnd@@UAEJPAJ000UtagVARIANT@@@Z
	DD	FLAT:?accNavigate@CWnd@@UAEJJUtagVARIANT@@PAU2@@Z
	DD	FLAT:?accHitTest@CWnd@@UAEJJJPAUtagVARIANT@@@Z
	DD	FLAT:?accDoDefaultAction@CWnd@@UAEJUtagVARIANT@@@Z
	DD	FLAT:?put_accName@CWnd@@UAEJUtagVARIANT@@PA_W@Z
	DD	FLAT:?put_accValue@CWnd@@UAEJUtagVARIANT@@PA_W@Z
	DD	FLAT:?SetProxy@CWnd@@UAEJPAUIAccessibleProxy@@@Z
	DD	FLAT:?CreateAccessibleProxy@CWnd@@UAEJIJPAJ@Z
	DD	FLAT:?OnCommand@CWnd@@MAEHIJ@Z
	DD	FLAT:?OnNotify@CWnd@@MAEHIJPAJ@Z
	DD	FLAT:?GetSuperWndProcAddr@CWnd@@MAEPAP6GJPAUHWND__@@IIJ@ZXZ
	DD	FLAT:?DoDataExchange@CWnd@@MAEXPAVCDataExchange@@@Z
	DD	FLAT:?BeginModalState@CWnd@@UAEXXZ
	DD	FLAT:?EndModalState@CWnd@@UAEXXZ
	DD	FLAT:?PreTranslateMessage@CWnd@@UAEHPAUtagMSG@@@Z
	DD	FLAT:?OnAmbientProperty@CWnd@@UAEHPAVCOleControlSite@@JPAUtagVARIANT@@@Z
	DD	FLAT:?WindowProc@CWnd@@MAEJIIJ@Z
	DD	FLAT:?OnWndMsg@CWnd@@MAEHIIJPAJ@Z
	DD	FLAT:?DefWindowProcA@CWnd@@MAEJIIJ@Z
	DD	FLAT:?PostNcDestroy@CWnd@@MAEXXZ
	DD	FLAT:?OnChildNotify@CListCtrl@@MAEHIIJPAJ@Z
	DD	FLAT:?OnTouchInputs@CWnd@@MAEHIPAUtagTOUCHINPUT@@@Z
	DD	FLAT:?OnTouchInput@CWnd@@MAEHVCPoint@@HHPAUtagTOUCHINPUT@@@Z
	DD	FLAT:?GetGestureStatus@CWnd@@MAEKVCPoint@@@Z
	DD	FLAT:?OnGestureZoom@CWnd@@MAEHVCPoint@@J@Z
	DD	FLAT:?OnGesturePan@CWnd@@MAEHVCPoint@@0@Z
	DD	FLAT:?OnGestureRotate@CWnd@@MAEHVCPoint@@N@Z
	DD	FLAT:?OnGestureTwoFingerTap@CWnd@@MAEHVCPoint@@@Z
	DD	FLAT:?OnGesturePressAndTap@CWnd@@MAEHVCPoint@@J@Z
	DD	FLAT:?ResizeDynamicLayout@CWnd@@MAEXXZ
	DD	FLAT:?CheckAutoCenter@CWnd@@UAEHXZ
	DD	FLAT:?IsFrameWnd@CWnd@@UBEHXZ
	DD	FLAT:?CreateControlContainer@CWnd@@MAEHPAPAVCOleControlContainer@@@Z
	DD	FLAT:?CreateControlSite@CWnd@@MAEHPAVCOleControlContainer@@PAPAVCOleControlSite@@IABU_GUID@@@Z
	DD	FLAT:?SetOccDialogInfo@CWnd@@MAEHPAU_AFX_OCC_DIALOG_INFO@@@Z
	DD	FLAT:?GetOccDialogInfo@CWnd@@MAEPAU_AFX_OCC_DIALOG_INFO@@XZ
	DD	FLAT:?DrawItem@CListCtrl@@UAEXPAUtagDRAWITEMSTRUCT@@@Z
CONST	ENDS
;	COMDAT xdata$x
xdata$x	SEGMENT
__ehfuncinfo$??1CMultiLanguageResourceSetter@@QAE@XZ DD 019930522H
	DD	00H
	DD	00H
	DD	2 DUP(00H)
	DD	2 DUP(00H)
	DD	00H
	DD	05H
xdata$x	ENDS
;	COMDAT xdata$x
xdata$x	SEGMENT
__unwindtable$??_GCIndicatorNameListCtrl@@UAEPAXI@Z DD 0ffffffffH
	DD	FLAT:___std_terminate
__ehfuncinfo$??_GCIndicatorNameListCtrl@@UAEPAXI@Z DD 019930522H
	DD	01H
	DD	FLAT:__unwindtable$??_GCIndicatorNameListCtrl@@UAEPAXI@Z
	DD	2 DUP(00H)
	DD	2 DUP(00H)
	DD	00H
	DD	05H
xdata$x	ENDS
;	COMDAT xdata$x
xdata$x	SEGMENT
__unwindtable$?GetCheckState@CIndicatorNameListCtrl@@QAEHABV?$CStringT@DV?$StrTraitMFC_DLL@DV?$ChTraitsCRT@D@ATL@@@@@ATL@@AAH@Z DD 0ffffffffH
	DD	FLAT:__unwindfunclet$?GetCheckState@CIndicatorNameListCtrl@@QAEHABV?$CStringT@DV?$StrTraitMFC_DLL@DV?$ChTraitsCRT@D@ATL@@@@@ATL@@AAH@Z$0
__ehfuncinfo$?GetCheckState@CIndicatorNameListCtrl@@QAEHABV?$CStringT@DV?$StrTraitMFC_DLL@DV?$ChTraitsCRT@D@ATL@@@@@ATL@@AAH@Z DD 019930522H
	DD	01H
	DD	FLAT:__unwindtable$?GetCheckState@CIndicatorNameListCtrl@@QAEHABV?$CStringT@DV?$StrTraitMFC_DLL@DV?$ChTraitsCRT@D@ATL@@@@@ATL@@AAH@Z
	DD	2 DUP(00H)
	DD	2 DUP(00H)
	DD	00H
	DD	01H
xdata$x	ENDS
;	COMDAT xdata$x
xdata$x	SEGMENT
__unwindtable$?SetCheckSeletecItem@CIndicatorNameListCtrl@@QAEXPAUIStringList135914@@@Z DD 0ffffffffH
	DD	FLAT:__unwindfunclet$?SetCheckSeletecItem@CIndicatorNameListCtrl@@QAEXPAUIStringList135914@@@Z$0
	DD	0ffffffffH
	DD	FLAT:___std_terminate
__ehfuncinfo$?SetCheckSeletecItem@CIndicatorNameListCtrl@@QAEXPAUIStringList135914@@@Z DD 019930522H
	DD	02H
	DD	FLAT:__unwindtable$?SetCheckSeletecItem@CIndicatorNameListCtrl@@QAEXPAUIStringList135914@@@Z
	DD	2 DUP(00H)
	DD	2 DUP(00H)
	DD	00H
	DD	01H
xdata$x	ENDS
;	COMDAT xdata$x
xdata$x	SEGMENT
__ehfuncinfo$?Initialize@CIndicatorNameListCtrl@@QAE_NPBDPAUIStringList135914@@1@Z DD 019930522H
	DD	08H
	DD	FLAT:__unwindtable$?Initialize@CIndicatorNameListCtrl@@QAE_NPBDPAUIStringList135914@@1@Z
	DD	2 DUP(00H)
	DD	2 DUP(00H)
	DD	00H
	DD	01H
__unwindtable$?Initialize@CIndicatorNameListCtrl@@QAE_NPBDPAUIStringList135914@@1@Z DD 0ffffffffH
	DD	FLAT:__unwindfunclet$?Initialize@CIndicatorNameListCtrl@@QAE_NPBDPAUIStringList135914@@1@Z$0
	DD	0ffffffffH
	DD	FLAT:__unwindfunclet$?Initialize@CIndicatorNameListCtrl@@QAE_NPBDPAUIStringList135914@@1@Z$2
	DD	0ffffffffH
	DD	FLAT:___std_terminate
	DD	0ffffffffH
	DD	FLAT:__unwindfunclet$?Initialize@CIndicatorNameListCtrl@@QAE_NPBDPAUIStringList135914@@1@Z$1
	DD	0ffffffffH
	DD	FLAT:__unwindfunclet$?Initialize@CIndicatorNameListCtrl@@QAE_NPBDPAUIStringList135914@@1@Z$4
	DD	04H
	DD	FLAT:__unwindfunclet$?Initialize@CIndicatorNameListCtrl@@QAE_NPBDPAUIStringList135914@@1@Z$5
	DD	04H
	DD	FLAT:___std_terminate
	DD	0ffffffffH
	DD	FLAT:___std_terminate
xdata$x	ENDS
;	COMDAT xdata$x
xdata$x	SEGMENT
__unwindtable$?IsAddIndicatorName@CIndicatorNameListCtrl@@AAE_NW4ICOMMODITY_BOND_NAME@IPacketManager135914@@W4HORZSCALEDRAWERTYPE@CScaleBaseData@@PBD@Z DD 0ffffffffH
	DD	FLAT:__unwindfunclet$?IsAddIndicatorName@CIndicatorNameListCtrl@@AAE_NW4ICOMMODITY_BOND_NAME@IPacketManager135914@@W4HORZSCALEDRAWERTYPE@CScaleBaseData@@PBD@Z$0
__ehfuncinfo$?IsAddIndicatorName@CIndicatorNameListCtrl@@AAE_NW4ICOMMODITY_BOND_NAME@IPacketManager135914@@W4HORZSCALEDRAWERTYPE@CScaleBaseData@@PBD@Z DD 019930522H
	DD	01H
	DD	FLAT:__unwindtable$?IsAddIndicatorName@CIndicatorNameListCtrl@@AAE_NW4ICOMMODITY_BOND_NAME@IPacketManager135914@@W4HORZSCALEDRAWERTYPE@CScaleBaseData@@PBD@Z
	DD	2 DUP(00H)
	DD	2 DUP(00H)
	DD	00H
	DD	01H
xdata$x	ENDS
;	COMDAT xdata$x
xdata$x	SEGMENT
__unwindtable$?IsAddIndicatorName_DLL@CIndicatorNameListCtrl@@AAE_NXZ DD 0ffffffffH
	DD	FLAT:__unwindfunclet$?IsAddIndicatorName_DLL@CIndicatorNameListCtrl@@AAE_NXZ$0
__ehfuncinfo$?IsAddIndicatorName_DLL@CIndicatorNameListCtrl@@AAE_NXZ DD 019930522H
	DD	01H
	DD	FLAT:__unwindtable$?IsAddIndicatorName_DLL@CIndicatorNameListCtrl@@AAE_NXZ
	DD	2 DUP(00H)
	DD	2 DUP(00H)
	DD	00H
	DD	01H
xdata$x	ENDS
;	COMDAT xdata$x
xdata$x	SEGMENT
__unwindtable$?Initialize_PacketTimeType@CIndicatorNameListCtrl@@AAE_NPAUIStringList135914@@@Z DD 0ffffffffH
	DD	FLAT:__unwindfunclet$?Initialize_PacketTimeType@CIndicatorNameListCtrl@@AAE_NPAUIStringList135914@@@Z$0
	DD	00H
	DD	FLAT:__unwindfunclet$?Initialize_PacketTimeType@CIndicatorNameListCtrl@@AAE_NPAUIStringList135914@@@Z$1
	DD	0ffffffffH
	DD	FLAT:___std_terminate
__ehfuncinfo$?Initialize_PacketTimeType@CIndicatorNameListCtrl@@AAE_NPAUIStringList135914@@@Z DD 019930522H
	DD	03H
	DD	FLAT:__unwindtable$?Initialize_PacketTimeType@CIndicatorNameListCtrl@@AAE_NPAUIStringList135914@@@Z
	DD	2 DUP(00H)
	DD	2 DUP(00H)
	DD	00H
	DD	01H
xdata$x	ENDS
;	COMDAT xdata$x
xdata$x	SEGMENT
__unwindtable$?Initialize_Market@CIndicatorNameListCtrl@@AAE_NPAUIStringList135914@@@Z DD 0ffffffffH
	DD	FLAT:__unwindfunclet$?Initialize_Market@CIndicatorNameListCtrl@@AAE_NPAUIStringList135914@@@Z$0
	DD	0ffffffffH
	DD	FLAT:___std_terminate
__ehfuncinfo$?Initialize_Market@CIndicatorNameListCtrl@@AAE_NPAUIStringList135914@@@Z DD 019930522H
	DD	02H
	DD	FLAT:__unwindtable$?Initialize_Market@CIndicatorNameListCtrl@@AAE_NPAUIStringList135914@@@Z
	DD	2 DUP(00H)
	DD	2 DUP(00H)
	DD	00H
	DD	01H
xdata$x	ENDS
;	COMDAT xdata$x
xdata$x	SEGMENT
__unwindtable$?Initialize@CIndicatorNameListCtrl@@AAE_NPAUIStringList135914@@0@Z DD 0ffffffffH
	DD	FLAT:__unwindfunclet$?Initialize@CIndicatorNameListCtrl@@AAE_NPAUIStringList135914@@0@Z$0
	DD	00H
	DD	FLAT:__unwindfunclet$?Initialize@CIndicatorNameListCtrl@@AAE_NPAUIStringList135914@@0@Z$1
	DD	00H
	DD	FLAT:___std_terminate
	DD	0ffffffffH
	DD	FLAT:___std_terminate
__ehfuncinfo$?Initialize@CIndicatorNameListCtrl@@AAE_NPAUIStringList135914@@0@Z DD 019930522H
	DD	04H
	DD	FLAT:__unwindtable$?Initialize@CIndicatorNameListCtrl@@AAE_NPAUIStringList135914@@0@Z
	DD	2 DUP(00H)
	DD	2 DUP(00H)
	DD	00H
	DD	01H
xdata$x	ENDS
;	COMDAT xdata$x
xdata$x	SEGMENT
__ehfuncinfo$?OnDblclk@CIndicatorNameListCtrl@@QAEXPAUtagNMHDR@@PAJ@Z DD 019930522H
	DD	09H
	DD	FLAT:__unwindtable$?OnDblclk@CIndicatorNameListCtrl@@QAEXPAUtagNMHDR@@PAJ@Z
	DD	2 DUP(00H)
	DD	2 DUP(00H)
	DD	00H
	DD	01H
__unwindtable$?OnDblclk@CIndicatorNameListCtrl@@QAEXPAUtagNMHDR@@PAJ@Z DD 0ffffffffH
	DD	FLAT:__unwindfunclet$?OnDblclk@CIndicatorNameListCtrl@@QAEXPAUtagNMHDR@@PAJ@Z$0
	DD	00H
	DD	FLAT:__unwindfunclet$?OnDblclk@CIndicatorNameListCtrl@@QAEXPAUtagNMHDR@@PAJ@Z$1
	DD	01H
	DD	FLAT:__unwindfunclet$?OnDblclk@CIndicatorNameListCtrl@@QAEXPAUtagNMHDR@@PAJ@Z$2
	DD	00H
	DD	FLAT:__unwindfunclet$?OnDblclk@CIndicatorNameListCtrl@@QAEXPAUtagNMHDR@@PAJ@Z$2
	DD	0ffffffffH
	DD	00H
	DD	03H
	DD	FLAT:__unwindfunclet$?OnDblclk@CIndicatorNameListCtrl@@QAEXPAUtagNMHDR@@PAJ@Z$3
	DD	0ffffffffH
	DD	00H
	DD	03H
	DD	FLAT:__unwindfunclet$?OnDblclk@CIndicatorNameListCtrl@@QAEXPAUtagNMHDR@@PAJ@Z$4
	DD	0ffffffffH
	DD	FLAT:___std_terminate
xdata$x	ENDS
;	COMDAT xdata$x
xdata$x	SEGMENT
__unwindtable$?OnClick@CIndicatorNameListCtrl@@QAEXPAUtagNMHDR@@PAJ@Z DD 0ffffffffH
	DD	FLAT:__unwindfunclet$?OnClick@CIndicatorNameListCtrl@@QAEXPAUtagNMHDR@@PAJ@Z$0
	DD	00H
	DD	FLAT:__unwindfunclet$?OnClick@CIndicatorNameListCtrl@@QAEXPAUtagNMHDR@@PAJ@Z$1
	DD	01H
	DD	FLAT:__unwindfunclet$?OnClick@CIndicatorNameListCtrl@@QAEXPAUtagNMHDR@@PAJ@Z$2
__ehfuncinfo$?OnClick@CIndicatorNameListCtrl@@QAEXPAUtagNMHDR@@PAJ@Z DD 019930522H
	DD	03H
	DD	FLAT:__unwindtable$?OnClick@CIndicatorNameListCtrl@@QAEXPAUtagNMHDR@@PAJ@Z
	DD	2 DUP(00H)
	DD	2 DUP(00H)
	DD	00H
	DD	01H
xdata$x	ENDS
;	COMDAT xdata$x
xdata$x	SEGMENT
__ehfuncinfo$?OnItemchanged@CIndicatorNameListCtrl@@QAEXPAUtagNMHDR@@PAJ@Z DD 019930522H
	DD	05H
	DD	FLAT:__unwindtable$?OnItemchanged@CIndicatorNameListCtrl@@QAEXPAUtagNMHDR@@PAJ@Z
	DD	2 DUP(00H)
	DD	2 DUP(00H)
	DD	00H
	DD	01H
__unwindtable$?OnItemchanged@CIndicatorNameListCtrl@@QAEXPAUtagNMHDR@@PAJ@Z DD 0ffffffffH
	DD	FLAT:__unwindfunclet$?OnItemchanged@CIndicatorNameListCtrl@@QAEXPAUtagNMHDR@@PAJ@Z$0
	DD	0ffffffffH
	DD	FLAT:__unwindfunclet$?OnItemchanged@CIndicatorNameListCtrl@@QAEXPAUtagNMHDR@@PAJ@Z$1
	DD	01H
	DD	FLAT:__unwindfunclet$?OnItemchanged@CIndicatorNameListCtrl@@QAEXPAUtagNMHDR@@PAJ@Z$2
	DD	0ffffffffH
	DD	FLAT:__unwindfunclet$?OnItemchanged@CIndicatorNameListCtrl@@QAEXPAUtagNMHDR@@PAJ@Z$3
	DD	0ffffffffH
	DD	FLAT:__unwindfunclet$?OnItemchanged@CIndicatorNameListCtrl@@QAEXPAUtagNMHDR@@PAJ@Z$4
xdata$x	ENDS
;	COMDAT xdata$x
xdata$x	SEGMENT
__ehfuncinfo$??1CIndicatorNameListCtrl@@UAE@XZ DD 019930522H
	DD	00H
	DD	00H
	DD	2 DUP(00H)
	DD	2 DUP(00H)
	DD	00H
	DD	05H
xdata$x	ENDS
;	COMDAT xdata$x
xdata$x	SEGMENT
__unwindtable$??0CIndicatorNameListCtrl@@QAE@PAVCGroupButtonCtrl@@PBDHPAUIPacketManager135914@@@Z DD 0ffffffffH
	DD	FLAT:__unwindfunclet$??0CIndicatorNameListCtrl@@QAE@PAVCGroupButtonCtrl@@PBDHPAUIPacketManager135914@@@Z$0
	DD	00H
	DD	FLAT:__unwindfunclet$??0CIndicatorNameListCtrl@@QAE@PAVCGroupButtonCtrl@@PBDHPAUIPacketManager135914@@@Z$1
__ehfuncinfo$??0CIndicatorNameListCtrl@@QAE@PAVCGroupButtonCtrl@@PBDHPAUIPacketManager135914@@@Z DD 019930522H
	DD	02H
	DD	FLAT:__unwindtable$??0CIndicatorNameListCtrl@@QAE@PAVCGroupButtonCtrl@@PBDHPAUIPacketManager135914@@@Z
	DD	2 DUP(00H)
	DD	2 DUP(00H)
	DD	00H
	DD	01H
xdata$x	ENDS
;	COMDAT xdata$x
xdata$x	SEGMENT
__ehfuncinfo$??1ILPCSTR135914@@QAE@XZ DD 019930522H
	DD	00H
	DD	00H
	DD	2 DUP(00H)
	DD	2 DUP(00H)
	DD	00H
	DD	05H
xdata$x	ENDS
; Function compile flags: /Ogtp
; File D:\git\src\IBK\IBK_DRFN\ProjSrc\SrcChartEx\ChartAddIn\ChartEnvSetupDlgAddIn\Include_Chart\Dll_Load\IMetaTable.h
; File C:\Program Files (x86)\Microsoft Visual Studio\2019\Community\VC\Tools\MSVC\14.29.30133\atlmfc\include\afxwin1.inl
; File D:\git\src\IBK\IBK_DRFN\ProjSrc\SrcChartEx\ChartAddIn\ChartEnvSetupDlgAddIn\Include_Chart\Dll_Load\IMetaTable.h
;	COMDAT ??1CMultiLanguageResourceSetter@@QAE@XZ
_TEXT	SEGMENT
__$EHRec$ = -12						; size = 12
??1CMultiLanguageResourceSetter@@QAE@XZ PROC		; CMultiLanguageResourceSetter::~CMultiLanguageResourceSetter, COMDAT
; _this$ = ecx

; 1036 : 	{

  00000	55		 push	 ebp
  00001	8b ec		 mov	 ebp, esp
  00003	6a ff		 push	 -1
  00005	68 00 00 00 00	 push	 __ehhandler$??1CMultiLanguageResourceSetter@@QAE@XZ
  0000a	64 a1 00 00 00
	00		 mov	 eax, DWORD PTR fs:0
  00010	50		 push	 eax
  00011	56		 push	 esi
  00012	a1 00 00 00 00	 mov	 eax, DWORD PTR ___security_cookie
  00017	33 c5		 xor	 eax, ebp
  00019	50		 push	 eax
  0001a	8d 45 f4	 lea	 eax, DWORD PTR __$EHRec$[ebp]
  0001d	64 a3 00 00 00
	00		 mov	 DWORD PTR fs:0, eax

; 1037 : 		AfxSetResourceHandle( m_hInstance);

  00023	8b 31		 mov	 esi, DWORD PTR [ecx]
; File C:\Program Files (x86)\Microsoft Visual Studio\2019\Community\VC\Tools\MSVC\14.29.30133\atlmfc\include\afxwin1.inl

; 27   : 	{ ASSERT(hInstResource != NULL); afxCurrentResourceHandle = hInstResource; }

  00025	e8 00 00 00 00	 call	 ?AfxGetModuleState@@YGPAVAFX_MODULE_STATE@@XZ ; AfxGetModuleState
  0002a	89 70 0c	 mov	 DWORD PTR [eax+12], esi
; File D:\git\src\IBK\IBK_DRFN\ProjSrc\SrcChartEx\ChartAddIn\ChartEnvSetupDlgAddIn\Include_Chart\Dll_Load\IMetaTable.h

; 1038 : 	}

  0002d	8b 4d f4	 mov	 ecx, DWORD PTR __$EHRec$[ebp]
  00030	64 89 0d 00 00
	00 00		 mov	 DWORD PTR fs:0, ecx
  00037	59		 pop	 ecx
  00038	5e		 pop	 esi
  00039	8b e5		 mov	 esp, ebp
  0003b	5d		 pop	 ebp
  0003c	c3		 ret	 0
  0003d	cc		 int	 3
  0003e	cc		 int	 3
  0003f	cc		 int	 3
  00040	cc		 int	 3
  00041	cc		 int	 3
_TEXT	ENDS
;	COMDAT text$x
text$x	SEGMENT
__ehhandler$??1CMultiLanguageResourceSetter@@QAE@XZ:
  00000	90		 npad	 1
  00001	90		 npad	 1
  00002	8b 54 24 08	 mov	 edx, DWORD PTR [esp+8]
  00006	8d 42 0c	 lea	 eax, DWORD PTR [edx+12]
  00009	8b 4a f8	 mov	 ecx, DWORD PTR [edx-8]
  0000c	33 c8		 xor	 ecx, eax
  0000e	e8 00 00 00 00	 call	 @__security_check_cookie@4
  00013	b8 00 00 00 00	 mov	 eax, OFFSET __ehfuncinfo$??1CMultiLanguageResourceSetter@@QAE@XZ
  00018	e9 00 00 00 00	 jmp	 ___CxxFrameHandler3
text$x	ENDS
??1CMultiLanguageResourceSetter@@QAE@XZ ENDP		; CMultiLanguageResourceSetter::~CMultiLanguageResourceSetter
; Function compile flags: /Ogtp
; File D:\git\src\IBK\IBK_DRFN\ProjSrc\SrcChartEx\ChartAddIn\ChartEnvSetupDlgAddIn\ChartEnvSetupDlgAddIn\IndicatorNameListCtrl.cpp
; File C:\Program Files (x86)\Microsoft Visual Studio\2019\Community\VC\Tools\MSVC\14.29.30133\atlmfc\include\afx.inl
;	COMDAT ??_GCIndicatorNameListCtrl@@UAEPAXI@Z
_TEXT	SEGMENT
__$EHRec$ = -12						; size = 12
___flags$ = 8						; size = 4
??_GCIndicatorNameListCtrl@@UAEPAXI@Z PROC		; CIndicatorNameListCtrl::`scalar deleting destructor', COMDAT
; _this$ = ecx
  00000	55		 push	 ebp
  00001	8b ec		 mov	 ebp, esp
  00003	6a ff		 push	 -1
  00005	68 00 00 00 00	 push	 __ehhandler$??_GCIndicatorNameListCtrl@@UAEPAXI@Z
  0000a	64 a1 00 00 00
	00		 mov	 eax, DWORD PTR fs:0
  00010	50		 push	 eax
  00011	56		 push	 esi
  00012	a1 00 00 00 00	 mov	 eax, DWORD PTR ___security_cookie
  00017	33 c5		 xor	 eax, ebp
  00019	50		 push	 eax
  0001a	8d 45 f4	 lea	 eax, DWORD PTR __$EHRec$[ebp]
  0001d	64 a3 00 00 00
	00		 mov	 DWORD PTR fs:0, eax
  00023	8b f1		 mov	 esi, ecx
; File D:\git\src\IBK\IBK_DRFN\ProjSrc\SrcChartEx\ChartAddIn\ChartEnvSetupDlgAddIn\ChartEnvSetupDlgAddIn\IndicatorNameListCtrl.cpp

; 46   : 	if( m_pIPacketManager)

  00025	8b 8e 94 00 00
	00		 mov	 ecx, DWORD PTR [esi+148]
  0002b	c7 45 fc 00 00
	00 00		 mov	 DWORD PTR __$EHRec$[ebp+8], 0
  00032	c7 06 00 00 00
	00		 mov	 DWORD PTR [esi], OFFSET ??_7CIndicatorNameListCtrl@@6B@
  00038	85 c9		 test	 ecx, ecx
  0003a	74 10		 je	 SHORT $LN8@scalar

; 47   : 	{
; 48   : 		m_pIPacketManager->Release();

  0003c	8b 01		 mov	 eax, DWORD PTR [ecx]
  0003e	51		 push	 ecx
  0003f	ff 50 08	 call	 DWORD PTR [eax+8]

; 49   : 		m_pIPacketManager = NULL;

  00042	c7 86 94 00 00
	00 00 00 00 00	 mov	 DWORD PTR [esi+148], 0
$LN8@scalar:

; 50   : 	}
; 51   : }

  0004c	8d 8e 80 00 00
	00		 lea	 ecx, DWORD PTR [esi+128]
  00052	ff 15 00 00 00
	00		 call	 DWORD PTR __imp_??1?$CStringT@DV?$StrTraitMFC_DLL@DV?$ChTraitsCRT@D@ATL@@@@@ATL@@QAE@XZ
  00058	8b ce		 mov	 ecx, esi
  0005a	e8 00 00 00 00	 call	 ??1CListCtrl@@UAE@XZ	; CListCtrl::~CListCtrl
  0005f	8b 45 08	 mov	 eax, DWORD PTR ___flags$[ebp]
  00062	a8 01		 test	 al, 1
  00064	74 2f		 je	 SHORT $LN13@scalar
  00066	a8 04		 test	 al, 4
  00068	75 1d		 jne	 SHORT $LN3@scalar
; File C:\Program Files (x86)\Microsoft Visual Studio\2019\Community\VC\Tools\MSVC\14.29.30133\atlmfc\include\afx.inl

; 112  : 	{ ::operator delete(p); }

  0006a	56		 push	 esi
  0006b	e8 00 00 00 00	 call	 ??3@YAXPAX@Z		; operator delete
  00070	83 c4 04	 add	 esp, 4
  00073	8b c6		 mov	 eax, esi
  00075	8b 4d f4	 mov	 ecx, DWORD PTR __$EHRec$[ebp]
  00078	64 89 0d 00 00
	00 00		 mov	 DWORD PTR fs:0, ecx
  0007f	59		 pop	 ecx
  00080	5e		 pop	 esi
  00081	8b e5		 mov	 esp, ebp
  00083	5d		 pop	 ebp
  00084	c2 04 00	 ret	 4
$LN3@scalar:
  00087	68 a0 00 00 00	 push	 160			; 000000a0H
  0008c	56		 push	 esi
  0008d	e8 00 00 00 00	 call	 ?__global_delete@@YAXPAXI@Z ; __global_delete
  00092	83 c4 08	 add	 esp, 8
$LN13@scalar:
  00095	8b c6		 mov	 eax, esi
  00097	8b 4d f4	 mov	 ecx, DWORD PTR __$EHRec$[ebp]
  0009a	64 89 0d 00 00
	00 00		 mov	 DWORD PTR fs:0, ecx
  000a1	59		 pop	 ecx
  000a2	5e		 pop	 esi
  000a3	8b e5		 mov	 esp, ebp
  000a5	5d		 pop	 ebp
  000a6	c2 04 00	 ret	 4
  000a9	cc		 int	 3
  000aa	cc		 int	 3
  000ab	cc		 int	 3
  000ac	cc		 int	 3
  000ad	cc		 int	 3
_TEXT	ENDS
;	COMDAT text$x
text$x	SEGMENT
__ehhandler$??_GCIndicatorNameListCtrl@@UAEPAXI@Z:
  00000	90		 npad	 1
  00001	90		 npad	 1
  00002	8b 54 24 08	 mov	 edx, DWORD PTR [esp+8]
  00006	8d 42 0c	 lea	 eax, DWORD PTR [edx+12]
  00009	8b 4a f8	 mov	 ecx, DWORD PTR [edx-8]
  0000c	33 c8		 xor	 ecx, eax
  0000e	e8 00 00 00 00	 call	 @__security_check_cookie@4
  00013	b8 00 00 00 00	 mov	 eax, OFFSET __ehfuncinfo$??_GCIndicatorNameListCtrl@@UAEPAXI@Z
  00018	e9 00 00 00 00	 jmp	 ___CxxFrameHandler3
text$x	ENDS
??_GCIndicatorNameListCtrl@@UAEPAXI@Z ENDP		; CIndicatorNameListCtrl::`scalar deleting destructor'
; Function compile flags: /Ogtp
; File D:\git\src\IBK\IBK_DRFN\ProjSrc\SrcChartEx\ChartAddIn\ChartEnvSetupDlgAddIn\ChartEnvSetupDlgAddIn\IndicatorNameListCtrl.cpp
; File C:\Program Files (x86)\Microsoft Visual Studio\2019\Community\VC\Tools\MSVC\14.29.30133\atlmfc\include\afxcmn.inl
; File D:\git\src\IBK\IBK_DRFN\ProjSrc\SrcChartEx\ChartAddIn\ChartEnvSetupDlgAddIn\ChartEnvSetupDlgAddIn\IndicatorNameListCtrl.cpp
; File C:\Program Files (x86)\Microsoft Visual Studio\2019\Community\VC\Tools\MSVC\14.29.30133\atlmfc\include\afxcmn.inl
; File D:\git\src\IBK\IBK_DRFN\ProjSrc\SrcChartEx\ChartAddIn\ChartEnvSetupDlgAddIn\ChartEnvSetupDlgAddIn\IndicatorNameListCtrl.cpp
;	COMDAT ?RemoveGraph@CIndicatorNameListCtrl@@QAEHH@Z
_TEXT	SEGMENT
_p_nIndex$ = 8						; size = 4
?RemoveGraph@CIndicatorNameListCtrl@@QAEHH@Z PROC	; CIndicatorNameListCtrl::RemoveGraph, COMDAT
; _this$ = ecx

; 645  : {

  00000	55		 push	 ebp
  00001	8b ec		 mov	 ebp, esp
  00003	56		 push	 esi
  00004	57		 push	 edi

; 646  : 	if( 0 <= p_nIndex && p_nIndex < GetItemCount())

  00005	8b 7d 08	 mov	 edi, DWORD PTR _p_nIndex$[ebp]
  00008	8b f1		 mov	 esi, ecx
  0000a	85 ff		 test	 edi, edi
  0000c	78 43		 js	 SHORT $LN2@RemoveGrap
; File C:\Program Files (x86)\Microsoft Visual Studio\2019\Community\VC\Tools\MSVC\14.29.30133\atlmfc\include\afxcmn.inl

; 155  : 	{ ASSERT(::IsWindow(m_hWnd)); return (int) ::SendMessage(m_hWnd, LVM_GETITEMCOUNT, 0, 0L); }

  0000e	6a 00		 push	 0
  00010	6a 00		 push	 0
  00012	68 04 10 00 00	 push	 4100			; 00001004H
  00017	ff 76 20	 push	 DWORD PTR [esi+32]
  0001a	ff 15 00 00 00
	00		 call	 DWORD PTR __imp__SendMessageA@16
; File D:\git\src\IBK\IBK_DRFN\ProjSrc\SrcChartEx\ChartAddIn\ChartEnvSetupDlgAddIn\ChartEnvSetupDlgAddIn\IndicatorNameListCtrl.cpp

; 646  : 	if( 0 <= p_nIndex && p_nIndex < GetItemCount())

  00020	3b f8		 cmp	 edi, eax
  00022	7d 2d		 jge	 SHORT $LN2@RemoveGrap
; File C:\Program Files (x86)\Microsoft Visual Studio\2019\Community\VC\Tools\MSVC\14.29.30133\atlmfc\include\afxcmn.inl

; 169  : 	{ ASSERT(::IsWindow(m_hWnd)); return (BOOL) ::SendMessage(m_hWnd, LVM_DELETEITEM, nItem, 0L); }

  00024	6a 00		 push	 0
  00026	57		 push	 edi
  00027	68 08 10 00 00	 push	 4104			; 00001008H
  0002c	ff 76 20	 push	 DWORD PTR [esi+32]
  0002f	ff 15 00 00 00
	00		 call	 DWORD PTR __imp__SendMessageA@16
; File D:\git\src\IBK\IBK_DRFN\ProjSrc\SrcChartEx\ChartAddIn\ChartEnvSetupDlgAddIn\ChartEnvSetupDlgAddIn\IndicatorNameListCtrl.cpp

; 649  : 		if( p_nIndex <= m_nSelectItemIndex) m_nSelectItemIndex--;

  00035	8b 86 88 00 00
	00		 mov	 eax, DWORD PTR [esi+136]
  0003b	3b f8		 cmp	 edi, eax
  0003d	7f 07		 jg	 SHORT $LN3@RemoveGrap
  0003f	48		 dec	 eax
  00040	89 86 88 00 00
	00		 mov	 DWORD PTR [esi+136], eax
$LN3@RemoveGrap:

; 650  : 		return TRUE;

  00046	5f		 pop	 edi
  00047	b8 01 00 00 00	 mov	 eax, 1

; 654  : }

  0004c	5e		 pop	 esi
  0004d	5d		 pop	 ebp
  0004e	c2 04 00	 ret	 4
$LN2@RemoveGrap:
  00051	5f		 pop	 edi

; 651  : 	}
; 652  : 
; 653  : 	return FALSE;

  00052	33 c0		 xor	 eax, eax

; 654  : }

  00054	5e		 pop	 esi
  00055	5d		 pop	 ebp
  00056	c2 04 00	 ret	 4
?RemoveGraph@CIndicatorNameListCtrl@@QAEHH@Z ENDP	; CIndicatorNameListCtrl::RemoveGraph
_TEXT	ENDS
; Function compile flags: /Ogtp
; File D:\git\src\IBK\IBK_DRFN\ProjSrc\SrcChartEx\ChartAddIn\ChartEnvSetupDlgAddIn\ChartEnvSetupDlgAddIn\IndicatorNameListCtrl.cpp
; File C:\Program Files (x86)\Microsoft Visual Studio\2019\Community\VC\Tools\MSVC\14.29.30133\atlmfc\include\atlsimpstr.h
; File D:\git\src\IBK\IBK_DRFN\ProjSrc\SrcChartEx\ChartAddIn\ChartEnvSetupDlgAddIn\ChartEnvSetupDlgAddIn\IndicatorNameListCtrl.cpp
; File C:\Program Files (x86)\Microsoft Visual Studio\2019\Community\VC\Tools\MSVC\14.29.30133\atlmfc\include\atlsimpstr.h
; File D:\git\src\IBK\IBK_DRFN\ProjSrc\SrcChartEx\ChartAddIn\ChartEnvSetupDlgAddIn\ChartEnvSetupDlgAddIn\IndicatorNameListCtrl.cpp
; File C:\Program Files (x86)\Microsoft Visual Studio\2019\Community\VC\Tools\MSVC\14.29.30133\atlmfc\include\afxcmn.inl
; File D:\git\src\IBK\IBK_DRFN\ProjSrc\SrcChartEx\ChartAddIn\ChartEnvSetupDlgAddIn\ChartEnvSetupDlgAddIn\IndicatorNameListCtrl.cpp
; File C:\Program Files (x86)\Microsoft Visual Studio\2019\Community\VC\Tools\MSVC\14.29.30133\atlmfc\include\afxcmn.inl
; File D:\git\src\IBK\IBK_DRFN\ProjSrc\SrcChartEx\ChartAddIn\ChartEnvSetupDlgAddIn\ChartEnvSetupDlgAddIn\IndicatorNameListCtrl.cpp
;	COMDAT ?AddGraph@CIndicatorNameListCtrl@@QAEHABV?$CStringT@DV?$StrTraitMFC_DLL@DV?$ChTraitsCRT@D@ATL@@@@@ATL@@0@Z
_TEXT	SEGMENT
_nmListView$1 = -44					; size = 44
_lResult$2 = 8						; size = 4
_strIndicatorName$ = 8					; size = 4
_p_strGraphName$ = 12					; size = 4
?AddGraph@CIndicatorNameListCtrl@@QAEHABV?$CStringT@DV?$StrTraitMFC_DLL@DV?$ChTraitsCRT@D@ATL@@@@@ATL@@0@Z PROC ; CIndicatorNameListCtrl::AddGraph, COMDAT
; _this$ = ecx

; 621  : {

  00000	55		 push	 ebp
  00001	8b ec		 mov	 ebp, esp
  00003	83 ec 2c	 sub	 esp, 44			; 0000002cH
  00006	53		 push	 ebx
; File C:\Program Files (x86)\Microsoft Visual Studio\2019\Community\VC\Tools\MSVC\14.29.30133\atlmfc\include\atlsimpstr.h

; 533  : 		return( GetLength() == 0 );

  00007	8b 5d 08	 mov	 ebx, DWORD PTR _strIndicatorName$[ebp]
; File D:\git\src\IBK\IBK_DRFN\ProjSrc\SrcChartEx\ChartAddIn\ChartEnvSetupDlgAddIn\ChartEnvSetupDlgAddIn\IndicatorNameListCtrl.cpp

; 621  : {

  0000a	56		 push	 esi
  0000b	8b f1		 mov	 esi, ecx
; File C:\Program Files (x86)\Microsoft Visual Studio\2019\Community\VC\Tools\MSVC\14.29.30133\atlmfc\include\atlsimpstr.h

; 533  : 		return( GetLength() == 0 );

  0000d	8b 03		 mov	 eax, DWORD PTR [ebx]
  0000f	83 78 f4 00	 cmp	 DWORD PTR [eax-12], 0
; File D:\git\src\IBK\IBK_DRFN\ProjSrc\SrcChartEx\ChartAddIn\ChartEnvSetupDlgAddIn\ChartEnvSetupDlgAddIn\IndicatorNameListCtrl.cpp

; 622  : 	if( !strIndicatorName.IsEmpty() )

  00013	0f 84 9b 00 00
	00		 je	 $LN2@AddGraph
; File C:\Program Files (x86)\Microsoft Visual Studio\2019\Community\VC\Tools\MSVC\14.29.30133\atlmfc\include\afxcmn.inl

; 155  : 	{ ASSERT(::IsWindow(m_hWnd)); return (int) ::SendMessage(m_hWnd, LVM_GETITEMCOUNT, 0, 0L); }

  00019	57		 push	 edi
  0001a	6a 00		 push	 0
  0001c	6a 00		 push	 0
  0001e	68 04 10 00 00	 push	 4100			; 00001004H
  00023	ff 76 20	 push	 DWORD PTR [esi+32]
  00026	ff 15 00 00 00
	00		 call	 DWORD PTR __imp__SendMessageA@16
; File D:\git\src\IBK\IBK_DRFN\ProjSrc\SrcChartEx\ChartAddIn\ChartEnvSetupDlgAddIn\ChartEnvSetupDlgAddIn\IndicatorNameListCtrl.cpp

; 627  : 		InsertItem( nIndex, _MTOL2(strIndicatorName) );

  0002c	6a 00		 push	 0
  0002e	ff 33		 push	 DWORD PTR [ebx]
  00030	b9 00 00 00 00	 mov	 ecx, OFFSET ?g_iMetaTable@@3VIMetaTable@@A ; g_iMetaTable
  00035	8b f8		 mov	 edi, eax
  00037	6a 02		 push	 2
  00039	ff b6 98 00 00
	00		 push	 DWORD PTR [esi+152]
  0003f	e8 00 00 00 00	 call	 ?GetLanguageText@IMetaTable@@QAEPBDPAUHWND__@@W4E_CODEPAGE@1@PBDH@Z ; IMetaTable::GetLanguageText
; File C:\Program Files (x86)\Microsoft Visual Studio\2019\Community\VC\Tools\MSVC\14.29.30133\atlmfc\include\afxcmn.inl

; 165  : 	{ ASSERT(::IsWindow(m_hWnd)); return InsertItem(LVIF_TEXT, nItem, lpszItem, 0, 0, 0, 0); }

  00044	6a 00		 push	 0
  00046	6a 00		 push	 0
  00048	6a 00		 push	 0
  0004a	6a 00		 push	 0
  0004c	50		 push	 eax
  0004d	57		 push	 edi
  0004e	6a 01		 push	 1
  00050	8b ce		 mov	 ecx, esi
  00052	e8 00 00 00 00	 call	 ?InsertItem@CListCtrl@@QAEHIHPBDIIHJ@Z ; CListCtrl::InsertItem
; File D:\git\src\IBK\IBK_DRFN\ProjSrc\SrcChartEx\ChartAddIn\ChartEnvSetupDlgAddIn\ChartEnvSetupDlgAddIn\IndicatorNameListCtrl.cpp

; 629  : 		SetItemText( nIndex, 1, p_strGraphName);

  00057	8b 45 0c	 mov	 eax, DWORD PTR _p_strGraphName$[ebp]
  0005a	8b ce		 mov	 ecx, esi
  0005c	ff 30		 push	 DWORD PTR [eax]
  0005e	6a 01		 push	 1
  00060	57		 push	 edi
  00061	e8 00 00 00 00	 call	 ?SetItemText@CListCtrl@@QAEHHHPBD@Z ; CListCtrl::SetItemText

; 370  : 	if(nIndex != -1) 

  00066	83 ff ff	 cmp	 edi, -1
  00069	74 23		 je	 SHORT $LN19@AddGraph

; 371  : 	{
; 372  : 		SetItemState( m_nSelectItemIndex, 0, LVIF_STATE); 

  0006b	6a 08		 push	 8
  0006d	6a 00		 push	 0
  0006f	ff b6 88 00 00
	00		 push	 DWORD PTR [esi+136]
  00075	8b ce		 mov	 ecx, esi
  00077	e8 00 00 00 00	 call	 ?SetItemState@CListCtrl@@QAEHHII@Z ; CListCtrl::SetItemState

; 373  : 		m_nSelectItemIndex = nIndex;
; 374  : 		SetItemState( m_nSelectItemIndex, ~LVIS_SELECTED | LVIS_FOCUSED, LVIF_STATE); 

  0007c	6a 08		 push	 8
  0007e	6a fd		 push	 -3			; fffffffdH
  00080	57		 push	 edi
  00081	8b ce		 mov	 ecx, esi
  00083	89 be 88 00 00
	00		 mov	 DWORD PTR [esi+136], edi
  00089	e8 00 00 00 00	 call	 ?SetItemState@CListCtrl@@QAEHHII@Z ; CListCtrl::SetItemState
$LN19@AddGraph:

; 630  : 
; 631  : 		NM_LISTVIEW nmListView;
; 632  : 		SetFocusItem( nIndex);
; 633  : 		SetSelectItemIndex(	nIndex);
; 634  : 		nmListView.iItem = nIndex;
; 635  : 		long lResult = 0;
; 636  : 		OnClick( ( NMHDR *)&nmListView, &lResult);

  0008e	8d 45 08	 lea	 eax, DWORD PTR _lResult$2[ebp]
  00091	89 be 88 00 00
	00		 mov	 DWORD PTR [esi+136], edi
  00097	50		 push	 eax
  00098	8d 45 d4	 lea	 eax, DWORD PTR _nmListView$1[ebp]
  0009b	89 7d e0	 mov	 DWORD PTR _nmListView$1[ebp+12], edi
  0009e	50		 push	 eax
  0009f	8b ce		 mov	 ecx, esi
  000a1	e8 00 00 00 00	 call	 ?OnClick@CIndicatorNameListCtrl@@QAEXPAUtagNMHDR@@PAJ@Z ; CIndicatorNameListCtrl::OnClick

; 637  : 
; 638  : 		return TRUE;

  000a6	5f		 pop	 edi
  000a7	5e		 pop	 esi
  000a8	b8 01 00 00 00	 mov	 eax, 1

; 642  : }

  000ad	5b		 pop	 ebx
  000ae	8b e5		 mov	 esp, ebp
  000b0	5d		 pop	 ebp
  000b1	c2 08 00	 ret	 8
$LN2@AddGraph:
  000b4	5e		 pop	 esi

; 639  : 	}
; 640  : 
; 641  : 	return FALSE;

  000b5	33 c0		 xor	 eax, eax

; 642  : }

  000b7	5b		 pop	 ebx
  000b8	8b e5		 mov	 esp, ebp
  000ba	5d		 pop	 ebp
  000bb	c2 08 00	 ret	 8
?AddGraph@CIndicatorNameListCtrl@@QAEHABV?$CStringT@DV?$StrTraitMFC_DLL@DV?$ChTraitsCRT@D@ATL@@@@@ATL@@0@Z ENDP ; CIndicatorNameListCtrl::AddGraph
_TEXT	ENDS
; Function compile flags: /Ogtp
; File D:\git\src\IBK\IBK_DRFN\ProjSrc\SrcChartEx\ChartAddIn\ChartEnvSetupDlgAddIn\ChartEnvSetupDlgAddIn\IndicatorNameListCtrl.cpp
; File C:\Program Files (x86)\Microsoft Visual Studio\2019\Community\VC\Tools\MSVC\14.29.30133\atlmfc\include\afxwin2.inl
; File D:\git\src\IBK\IBK_DRFN\ProjSrc\SrcChartEx\ChartAddIn\ChartEnvSetupDlgAddIn\ChartEnvSetupDlgAddIn\IndicatorNameListCtrl.cpp
; File C:\Program Files (x86)\Microsoft Visual Studio\2019\Community\VC\Tools\MSVC\14.29.30133\atlmfc\include\afxwin2.inl
; File D:\git\src\IBK\IBK_DRFN\ProjSrc\SrcChartEx\ChartAddIn\ChartEnvSetupDlgAddIn\ChartEnvSetupDlgAddIn\IndicatorNameListCtrl.cpp
;	COMDAT ?ChangeFocusItem@CIndicatorNameListCtrl@@QAEXXZ
_TEXT	SEGMENT
?ChangeFocusItem@CIndicatorNameListCtrl@@QAEXXZ PROC	; CIndicatorNameListCtrl::ChangeFocusItem, COMDAT
; _this$ = ecx

; 597  : {

  00000	56		 push	 esi
  00001	57		 push	 edi
  00002	8b f9		 mov	 edi, ecx

; 598  : 	CIndicatorNameListCtrl *pOtherIndicatorNameListCtrl = NULL;

  00004	33 f6		 xor	 esi, esi

; 599  : 
; 600  : 	if( m_pParent->GetGroupButtonCtrlType() == GENERAL_GROUP )		// General

  00006	8b 8f 8c 00 00
	00		 mov	 ecx, DWORD PTR [edi+140]
  0000c	8b 41 74	 mov	 eax, DWORD PTR [ecx+116]
  0000f	85 c0		 test	 eax, eax
  00011	75 0b		 jne	 SHORT $LN2@ChangeFocu

; 601  : 	{
; 602  : 		pOtherIndicatorNameListCtrl = (m_pParent->GetParent()->m_ctrlUseGroupButton).GetSelectListCtrl();

  00013	8b 49 0c	 mov	 ecx, DWORD PTR [ecx+12]
  00016	81 c1 78 02 00
	00		 add	 ecx, 632		; 00000278H

; 603  : 		CButton *pBtnWithDefault = (CButton *)(m_pParent->GetParent()->GetDlgItem(IDC_BTN_WITH_DEFAULT));
; 604  : 		pBtnWithDefault->ShowWindow( SW_HIDE );
; 605  : 	}

  0001c	eb 0e		 jmp	 SHORT $LN10@ChangeFocu
$LN2@ChangeFocu:

; 606  : 
; 607  : 	else if( m_pParent->GetGroupButtonCtrlType() == USE_GROUP )

  0001e	83 f8 01	 cmp	 eax, 1
  00021	75 2e		 jne	 SHORT $LN4@ChangeFocu

; 608  : 	{
; 609  : 		pOtherIndicatorNameListCtrl = (m_pParent->GetParent()->m_ctrlGroupButton).GetSelectListCtrl();

  00023	8b 49 0c	 mov	 ecx, DWORD PTR [ecx+12]
  00026	81 c1 fc 01 00
	00		 add	 ecx, 508		; 000001fcH
$LN10@ChangeFocu:

; 387  : 	SetItemState(m_nSelectItemIndex, LVIS_SELECTED , LVIF_STATE);	

  0002c	6a ff		 push	 -1
  0002e	e8 00 00 00 00	 call	 ?GetSelectListCtrl@CGroupButtonCtrl@@QAEPAVCIndicatorNameListCtrl@@H@Z ; CGroupButtonCtrl::GetSelectListCtrl
  00033	8b 8f 8c 00 00
	00		 mov	 ecx, DWORD PTR [edi+140]
  00039	8b f0		 mov	 esi, eax
  0003b	68 51 1f 00 00	 push	 8017			; 00001f51H
  00040	8b 49 0c	 mov	 ecx, DWORD PTR [ecx+12]
  00043	e8 00 00 00 00	 call	 ?GetDlgItem@CWnd@@QBEPAV1@H@Z ; CWnd::GetDlgItem
  00048	6a 00		 push	 0
  0004a	8b c8		 mov	 ecx, eax
  0004c	e8 00 00 00 00	 call	 ?ShowWindow@CWnd@@QAEHH@Z ; CWnd::ShowWindow
$LN4@ChangeFocu:
  00051	6a 08		 push	 8
  00053	6a 02		 push	 2
  00055	ff b6 88 00 00
	00		 push	 DWORD PTR [esi+136]
  0005b	8b ce		 mov	 ecx, esi
  0005d	e8 00 00 00 00	 call	 ?SetItemState@CListCtrl@@QAEHHII@Z ; CListCtrl::SetItemState
; File C:\Program Files (x86)\Microsoft Visual Studio\2019\Community\VC\Tools\MSVC\14.29.30133\atlmfc\include\afxwin2.inl

; 32   : 	{ ASSERT(::IsWindow(m_hWnd)); return ::SendMessage(m_hWnd, message, wParam, lParam); }

  00062	6a 00		 push	 0
  00064	6a 00		 push	 0
  00066	6a 08		 push	 8
  00068	ff 76 20	 push	 DWORD PTR [esi+32]
; File D:\git\src\IBK\IBK_DRFN\ProjSrc\SrcChartEx\ChartAddIn\ChartEnvSetupDlgAddIn\ChartEnvSetupDlgAddIn\IndicatorNameListCtrl.cpp

; 390  : 	m_nSelectItemIndex = -1;

  0006b	c7 86 88 00 00
	00 ff ff ff ff	 mov	 DWORD PTR [esi+136], -1
; File C:\Program Files (x86)\Microsoft Visual Studio\2019\Community\VC\Tools\MSVC\14.29.30133\atlmfc\include\afxwin2.inl

; 32   : 	{ ASSERT(::IsWindow(m_hWnd)); return ::SendMessage(m_hWnd, message, wParam, lParam); }

  00075	ff 15 00 00 00
	00		 call	 DWORD PTR __imp__SendMessageA@16
  0007b	5f		 pop	 edi
  0007c	5e		 pop	 esi
; File D:\git\src\IBK\IBK_DRFN\ProjSrc\SrcChartEx\ChartAddIn\ChartEnvSetupDlgAddIn\ChartEnvSetupDlgAddIn\IndicatorNameListCtrl.cpp

; 617  : }

  0007d	c3		 ret	 0
?ChangeFocusItem@CIndicatorNameListCtrl@@QAEXXZ ENDP	; CIndicatorNameListCtrl::ChangeFocusItem
_TEXT	ENDS
; Function compile flags: /Ogtp
; File D:\git\src\IBK\IBK_DRFN\ProjSrc\SrcChartEx\ChartAddIn\ChartEnvSetupDlgAddIn\ChartEnvSetupDlgAddIn\IndicatorNameListCtrl.cpp
; File C:\Program Files (x86)\Microsoft Visual Studio\2019\Community\VC\Tools\MSVC\14.29.30133\atlmfc\include\afxcmn.inl
; File D:\git\src\IBK\IBK_DRFN\ProjSrc\SrcChartEx\ChartAddIn\ChartEnvSetupDlgAddIn\ChartEnvSetupDlgAddIn\IndicatorNameListCtrl.cpp
; File C:\Program Files (x86)\Microsoft Visual Studio\2019\Community\VC\Tools\MSVC\14.29.30133\atlmfc\include\afxcmn.inl
; File D:\git\src\IBK\IBK_DRFN\ProjSrc\SrcChartEx\ChartAddIn\ChartEnvSetupDlgAddIn\ChartEnvSetupDlgAddIn\IndicatorNameListCtrl.cpp
; File C:\Program Files (x86)\Microsoft Visual Studio\2019\Community\VC\Tools\MSVC\14.29.30133\atlmfc\include\afxcmn.inl
; File D:\git\src\IBK\IBK_DRFN\ProjSrc\SrcChartEx\ChartAddIn\ChartEnvSetupDlgAddIn\ChartEnvSetupDlgAddIn\IndicatorNameListCtrl.cpp
;	COMDAT ?GetCheckState@CIndicatorNameListCtrl@@QAEHABV?$CStringT@DV?$StrTraitMFC_DLL@DV?$ChTraitsCRT@D@ATL@@@@@ATL@@AAH@Z
_TEXT	SEGMENT
$T2 = -16						; size = 4
__$EHRec$ = -12						; size = 12
_strIndicatorName$ = 8					; size = 4
_nIndex$ = 12						; size = 4
?GetCheckState@CIndicatorNameListCtrl@@QAEHABV?$CStringT@DV?$StrTraitMFC_DLL@DV?$ChTraitsCRT@D@ATL@@@@@ATL@@AAH@Z PROC ; CIndicatorNameListCtrl::GetCheckState, COMDAT
; _this$ = ecx

; 501  : {

  00000	55		 push	 ebp
  00001	8b ec		 mov	 ebp, esp
  00003	6a ff		 push	 -1
  00005	68 00 00 00 00	 push	 __ehhandler$?GetCheckState@CIndicatorNameListCtrl@@QAEHABV?$CStringT@DV?$StrTraitMFC_DLL@DV?$ChTraitsCRT@D@ATL@@@@@ATL@@AAH@Z
  0000a	64 a1 00 00 00
	00		 mov	 eax, DWORD PTR fs:0
  00010	50		 push	 eax
  00011	51		 push	 ecx
  00012	53		 push	 ebx
  00013	56		 push	 esi
  00014	57		 push	 edi
  00015	a1 00 00 00 00	 mov	 eax, DWORD PTR ___security_cookie
  0001a	33 c5		 xor	 eax, ebp
  0001c	50		 push	 eax
  0001d	8d 45 f4	 lea	 eax, DWORD PTR __$EHRec$[ebp]
  00020	64 a3 00 00 00
	00		 mov	 DWORD PTR fs:0, eax
  00026	8b d9		 mov	 ebx, ecx

; 502  : 	for(int i = 0 ; i< GetItemCount() ; i++) {

  00028	33 f6		 xor	 esi, esi
; File C:\Program Files (x86)\Microsoft Visual Studio\2019\Community\VC\Tools\MSVC\14.29.30133\atlmfc\include\afxcmn.inl

; 155  : 	{ ASSERT(::IsWindow(m_hWnd)); return (int) ::SendMessage(m_hWnd, LVM_GETITEMCOUNT, 0, 0L); }

  0002a	56		 push	 esi
  0002b	56		 push	 esi
  0002c	68 04 10 00 00	 push	 4100			; 00001004H
  00031	ff 73 20	 push	 DWORD PTR [ebx+32]
  00034	ff 15 00 00 00
	00		 call	 DWORD PTR __imp__SendMessageA@16
; File D:\git\src\IBK\IBK_DRFN\ProjSrc\SrcChartEx\ChartAddIn\ChartEnvSetupDlgAddIn\ChartEnvSetupDlgAddIn\IndicatorNameListCtrl.cpp

; 502  : 	for(int i = 0 ; i< GetItemCount() ; i++) {

  0003a	85 c0		 test	 eax, eax
  0003c	7e 4f		 jle	 SHORT $LN3@GetCheckSt
  0003e	66 90		 npad	 2
$LL4@GetCheckSt:

; 503  : 		if(strIndicatorName.CompareNoCase(GetItemText(i, 0)) == 0) {

  00040	6a 00		 push	 0
  00042	56		 push	 esi
  00043	8d 45 f0	 lea	 eax, DWORD PTR $T2[ebp]
  00046	8b cb		 mov	 ecx, ebx
  00048	50		 push	 eax
  00049	e8 00 00 00 00	 call	 ?GetItemText@CListCtrl@@QBE?AV?$CStringT@DV?$StrTraitMFC_DLL@DV?$ChTraitsCRT@D@ATL@@@@@ATL@@HH@Z ; CListCtrl::GetItemText
  0004e	ff 30		 push	 DWORD PTR [eax]
  00050	8b 4d 08	 mov	 ecx, DWORD PTR _strIndicatorName$[ebp]
  00053	c7 45 fc 00 00
	00 00		 mov	 DWORD PTR __$EHRec$[ebp+8], 0
  0005a	ff 15 00 00 00
	00		 call	 DWORD PTR __imp_?CompareNoCase@?$CStringT@DV?$StrTraitMFC_DLL@DV?$ChTraitsCRT@D@ATL@@@@@ATL@@QBEHPBD@Z
  00060	8d 4d f0	 lea	 ecx, DWORD PTR $T2[ebp]
  00063	c7 45 fc ff ff
	ff ff		 mov	 DWORD PTR __$EHRec$[ebp+8], -1
  0006a	8b f8		 mov	 edi, eax
  0006c	ff 15 00 00 00
	00		 call	 DWORD PTR __imp_??1?$CStringT@DV?$StrTraitMFC_DLL@DV?$ChTraitsCRT@D@ATL@@@@@ATL@@QAE@XZ
  00072	85 ff		 test	 edi, edi
  00074	74 36		 je	 SHORT $LN13@GetCheckSt
; File C:\Program Files (x86)\Microsoft Visual Studio\2019\Community\VC\Tools\MSVC\14.29.30133\atlmfc\include\afxcmn.inl

; 155  : 	{ ASSERT(::IsWindow(m_hWnd)); return (int) ::SendMessage(m_hWnd, LVM_GETITEMCOUNT, 0, 0L); }

  00076	6a 00		 push	 0
  00078	6a 00		 push	 0
  0007a	68 04 10 00 00	 push	 4100			; 00001004H
  0007f	ff 73 20	 push	 DWORD PTR [ebx+32]
; File D:\git\src\IBK\IBK_DRFN\ProjSrc\SrcChartEx\ChartAddIn\ChartEnvSetupDlgAddIn\ChartEnvSetupDlgAddIn\IndicatorNameListCtrl.cpp

; 502  : 	for(int i = 0 ; i< GetItemCount() ; i++) {

  00082	46		 inc	 esi
; File C:\Program Files (x86)\Microsoft Visual Studio\2019\Community\VC\Tools\MSVC\14.29.30133\atlmfc\include\afxcmn.inl

; 155  : 	{ ASSERT(::IsWindow(m_hWnd)); return (int) ::SendMessage(m_hWnd, LVM_GETITEMCOUNT, 0, 0L); }

  00083	ff 15 00 00 00
	00		 call	 DWORD PTR __imp__SendMessageA@16
; File D:\git\src\IBK\IBK_DRFN\ProjSrc\SrcChartEx\ChartAddIn\ChartEnvSetupDlgAddIn\ChartEnvSetupDlgAddIn\IndicatorNameListCtrl.cpp

; 502  : 	for(int i = 0 ; i< GetItemCount() ; i++) {

  00089	3b f0		 cmp	 esi, eax
  0008b	7c b3		 jl	 SHORT $LL4@GetCheckSt
$LN3@GetCheckSt:

; 506  : 		}
; 507  : 	}
; 508  : 	nIndex = -1;

  0008d	8b 45 0c	 mov	 eax, DWORD PTR _nIndex$[ebp]
  00090	c7 00 ff ff ff
	ff		 mov	 DWORD PTR [eax], -1

; 509  : 	return FALSE;	

  00096	33 c0		 xor	 eax, eax

; 510  : }

  00098	8b 4d f4	 mov	 ecx, DWORD PTR __$EHRec$[ebp]
  0009b	64 89 0d 00 00
	00 00		 mov	 DWORD PTR fs:0, ecx
  000a2	59		 pop	 ecx
  000a3	5f		 pop	 edi
  000a4	5e		 pop	 esi
  000a5	5b		 pop	 ebx
  000a6	8b e5		 mov	 esp, ebp
  000a8	5d		 pop	 ebp
  000a9	c2 08 00	 ret	 8
$LN13@GetCheckSt:

; 504  : 			nIndex = i;

  000ac	8b 45 0c	 mov	 eax, DWORD PTR _nIndex$[ebp]

; 505  : 			return GetCheck(i);

  000af	8b cb		 mov	 ecx, ebx
  000b1	56		 push	 esi
  000b2	89 30		 mov	 DWORD PTR [eax], esi
  000b4	e8 00 00 00 00	 call	 ?GetCheck@CListCtrl@@QBEHH@Z ; CListCtrl::GetCheck

; 510  : }

  000b9	8b 4d f4	 mov	 ecx, DWORD PTR __$EHRec$[ebp]
  000bc	64 89 0d 00 00
	00 00		 mov	 DWORD PTR fs:0, ecx
  000c3	59		 pop	 ecx
  000c4	5f		 pop	 edi
  000c5	5e		 pop	 esi
  000c6	5b		 pop	 ebx
  000c7	8b e5		 mov	 esp, ebp
  000c9	5d		 pop	 ebp
  000ca	c2 08 00	 ret	 8
_TEXT	ENDS
;	COMDAT text$x
text$x	SEGMENT
__unwindfunclet$?GetCheckState@CIndicatorNameListCtrl@@QAEHABV?$CStringT@DV?$StrTraitMFC_DLL@DV?$ChTraitsCRT@D@ATL@@@@@ATL@@AAH@Z$0:
  00000	8d 4d f0	 lea	 ecx, DWORD PTR $T2[ebp]
  00003	ff 25 00 00 00
	00		 jmp	 DWORD PTR __imp_??1?$CStringT@DV?$StrTraitMFC_DLL@DV?$ChTraitsCRT@D@ATL@@@@@ATL@@QAE@XZ
  00009	cc		 int	 3
  0000a	cc		 int	 3
  0000b	cc		 int	 3
  0000c	cc		 int	 3
  0000d	cc		 int	 3
__ehhandler$?GetCheckState@CIndicatorNameListCtrl@@QAEHABV?$CStringT@DV?$StrTraitMFC_DLL@DV?$ChTraitsCRT@D@ATL@@@@@ATL@@AAH@Z:
  0000e	90		 npad	 1
  0000f	90		 npad	 1
  00010	8b 54 24 08	 mov	 edx, DWORD PTR [esp+8]
  00014	8d 42 0c	 lea	 eax, DWORD PTR [edx+12]
  00017	8b 4a ec	 mov	 ecx, DWORD PTR [edx-20]
  0001a	33 c8		 xor	 ecx, eax
  0001c	e8 00 00 00 00	 call	 @__security_check_cookie@4
  00021	b8 00 00 00 00	 mov	 eax, OFFSET __ehfuncinfo$?GetCheckState@CIndicatorNameListCtrl@@QAEHABV?$CStringT@DV?$StrTraitMFC_DLL@DV?$ChTraitsCRT@D@ATL@@@@@ATL@@AAH@Z
  00026	e9 00 00 00 00	 jmp	 ___CxxFrameHandler3
text$x	ENDS
?GetCheckState@CIndicatorNameListCtrl@@QAEHABV?$CStringT@DV?$StrTraitMFC_DLL@DV?$ChTraitsCRT@D@ATL@@@@@ATL@@AAH@Z ENDP ; CIndicatorNameListCtrl::GetCheckState
; Function compile flags: /Ogtp
; File D:\git\src\IBK\IBK_DRFN\ProjSrc\SrcChartEx\ChartAddIn\ChartEnvSetupDlgAddIn\ChartEnvSetupDlgAddIn\IndicatorNameListCtrl.cpp
;	COMDAT ?ReleaseFocusItem@CIndicatorNameListCtrl@@QAEXXZ
_TEXT	SEGMENT
?ReleaseFocusItem@CIndicatorNameListCtrl@@QAEXXZ PROC	; CIndicatorNameListCtrl::ReleaseFocusItem, COMDAT
; _this$ = ecx

; 386  : {

  00000	56		 push	 esi
  00001	8b f1		 mov	 esi, ecx

; 387  : 	SetItemState(m_nSelectItemIndex, LVIS_SELECTED , LVIF_STATE);	

  00003	6a 08		 push	 8
  00005	6a 02		 push	 2
  00007	ff b6 88 00 00
	00		 push	 DWORD PTR [esi+136]
  0000d	e8 00 00 00 00	 call	 ?SetItemState@CListCtrl@@QAEHHII@Z ; CListCtrl::SetItemState

; 388  : 	
; 389  : 	// ( 2007 / 01 / 09 - Sang-Woo, Cho ) 
; 390  : 	m_nSelectItemIndex = -1;

  00012	c7 86 88 00 00
	00 ff ff ff ff	 mov	 DWORD PTR [esi+136], -1
  0001c	5e		 pop	 esi

; 391  : }

  0001d	c3		 ret	 0
?ReleaseFocusItem@CIndicatorNameListCtrl@@QAEXXZ ENDP	; CIndicatorNameListCtrl::ReleaseFocusItem
_TEXT	ENDS
; Function compile flags: /Ogtp
; File D:\git\src\IBK\IBK_DRFN\ProjSrc\SrcChartEx\ChartAddIn\ChartEnvSetupDlgAddIn\ChartEnvSetupDlgAddIn\IndicatorNameListCtrl.cpp
;	COMDAT ?SetFocusItem@CIndicatorNameListCtrl@@QAEXH@Z
_TEXT	SEGMENT
_nIndex$ = 8						; size = 4
?SetFocusItem@CIndicatorNameListCtrl@@QAEXH@Z PROC	; CIndicatorNameListCtrl::SetFocusItem, COMDAT
; _this$ = ecx

; 369  : {

  00000	55		 push	 ebp
  00001	8b ec		 mov	 ebp, esp
  00003	56		 push	 esi
  00004	57		 push	 edi

; 370  : 	if(nIndex != -1) 

  00005	8b 7d 08	 mov	 edi, DWORD PTR _nIndex$[ebp]
  00008	8b f1		 mov	 esi, ecx
  0000a	83 ff ff	 cmp	 edi, -1
  0000d	74 21		 je	 SHORT $LN2@SetFocusIt

; 371  : 	{
; 372  : 		SetItemState( m_nSelectItemIndex, 0, LVIF_STATE); 

  0000f	6a 08		 push	 8
  00011	6a 00		 push	 0
  00013	ff b6 88 00 00
	00		 push	 DWORD PTR [esi+136]
  00019	e8 00 00 00 00	 call	 ?SetItemState@CListCtrl@@QAEHHII@Z ; CListCtrl::SetItemState

; 373  : 		m_nSelectItemIndex = nIndex;
; 374  : 		SetItemState( m_nSelectItemIndex, ~LVIS_SELECTED | LVIS_FOCUSED, LVIF_STATE); 

  0001e	6a 08		 push	 8
  00020	6a fd		 push	 -3			; fffffffdH
  00022	57		 push	 edi
  00023	8b ce		 mov	 ecx, esi
  00025	89 be 88 00 00
	00		 mov	 DWORD PTR [esi+136], edi
  0002b	e8 00 00 00 00	 call	 ?SetItemState@CListCtrl@@QAEHHII@Z ; CListCtrl::SetItemState
$LN2@SetFocusIt:

; 375  : 	}
; 376  : }

  00030	5f		 pop	 edi
  00031	5e		 pop	 esi
  00032	5d		 pop	 ebp
  00033	c2 04 00	 ret	 4
?SetFocusItem@CIndicatorNameListCtrl@@QAEXH@Z ENDP	; CIndicatorNameListCtrl::SetFocusItem
_TEXT	ENDS
; Function compile flags: /Ogtp
; File D:\git\src\IBK\IBK_DRFN\ProjSrc\SrcChartEx\ChartAddIn\ChartEnvSetupDlgAddIn\ChartEnvSetupDlgAddIn\IndicatorNameListCtrl.cpp
; File C:\Program Files (x86)\Microsoft Visual Studio\2019\Community\VC\Tools\MSVC\14.29.30133\atlmfc\include\afxcmn.inl
; File D:\git\src\IBK\IBK_DRFN\ProjSrc\SrcChartEx\ChartAddIn\ChartEnvSetupDlgAddIn\ChartEnvSetupDlgAddIn\IndicatorNameListCtrl.cpp
; File C:\Program Files (x86)\Microsoft Visual Studio\2019\Community\VC\Tools\MSVC\14.29.30133\atlmfc\include\afxcmn.inl
; File D:\git\src\IBK\IBK_DRFN\ProjSrc\SrcChartEx\ChartAddIn\ChartEnvSetupDlgAddIn\ChartEnvSetupDlgAddIn\IndicatorNameListCtrl.cpp
; File C:\Program Files (x86)\Microsoft Visual Studio\2019\Community\VC\Tools\MSVC\14.29.30133\atlmfc\include\afxcmn.inl
; File D:\git\src\IBK\IBK_DRFN\ProjSrc\SrcChartEx\ChartAddIn\ChartEnvSetupDlgAddIn\ChartEnvSetupDlgAddIn\IndicatorNameListCtrl.cpp
; File C:\Program Files (x86)\Microsoft Visual Studio\2019\Community\VC\Tools\MSVC\14.29.30133\atlmfc\include\afxcmn.inl
; File D:\git\src\IBK\IBK_DRFN\ProjSrc\SrcChartEx\ChartAddIn\ChartEnvSetupDlgAddIn\ChartEnvSetupDlgAddIn\IndicatorNameListCtrl.cpp
; File C:\Program Files (x86)\Microsoft Visual Studio\2019\Community\VC\Tools\MSVC\14.29.30133\atlmfc\include\afxcmn.inl
; File D:\git\src\IBK\IBK_DRFN\ProjSrc\SrcChartEx\ChartAddIn\ChartEnvSetupDlgAddIn\ChartEnvSetupDlgAddIn\IndicatorNameListCtrl.cpp
;	COMDAT ?SetAllUnCheck@CIndicatorNameListCtrl@@QAEXXZ
_TEXT	SEGMENT
?SetAllUnCheck@CIndicatorNameListCtrl@@QAEXXZ PROC	; CIndicatorNameListCtrl::SetAllUnCheck, COMDAT
; _this$ = ecx

; 353  : {

  00000	53		 push	 ebx
; File C:\Program Files (x86)\Microsoft Visual Studio\2019\Community\VC\Tools\MSVC\14.29.30133\atlmfc\include\afxcmn.inl

; 155  : 	{ ASSERT(::IsWindow(m_hWnd)); return (int) ::SendMessage(m_hWnd, LVM_GETITEMCOUNT, 0, 0L); }

  00001	8b 1d 00 00 00
	00		 mov	 ebx, DWORD PTR __imp__SendMessageA@16
; File D:\git\src\IBK\IBK_DRFN\ProjSrc\SrcChartEx\ChartAddIn\ChartEnvSetupDlgAddIn\ChartEnvSetupDlgAddIn\IndicatorNameListCtrl.cpp

; 353  : {

  00007	56		 push	 esi
  00008	57		 push	 edi

; 356  : 	for(int i = 0; i < GetItemCount(); i++)

  00009	33 f6		 xor	 esi, esi
  0000b	8b f9		 mov	 edi, ecx
; File C:\Program Files (x86)\Microsoft Visual Studio\2019\Community\VC\Tools\MSVC\14.29.30133\atlmfc\include\afxcmn.inl

; 155  : 	{ ASSERT(::IsWindow(m_hWnd)); return (int) ::SendMessage(m_hWnd, LVM_GETITEMCOUNT, 0, 0L); }

  0000d	56		 push	 esi
  0000e	56		 push	 esi
  0000f	68 04 10 00 00	 push	 4100			; 00001004H
  00014	ff 77 20	 push	 DWORD PTR [edi+32]
; File D:\git\src\IBK\IBK_DRFN\ProjSrc\SrcChartEx\ChartAddIn\ChartEnvSetupDlgAddIn\ChartEnvSetupDlgAddIn\IndicatorNameListCtrl.cpp

; 355  : 	m_bInitCheckIndicator = TRUE;

  00017	c7 87 90 00 00
	00 01 00 00 00	 mov	 DWORD PTR [edi+144], 1
; File C:\Program Files (x86)\Microsoft Visual Studio\2019\Community\VC\Tools\MSVC\14.29.30133\atlmfc\include\afxcmn.inl

; 155  : 	{ ASSERT(::IsWindow(m_hWnd)); return (int) ::SendMessage(m_hWnd, LVM_GETITEMCOUNT, 0, 0L); }

  00021	ff d3		 call	 ebx
; File D:\git\src\IBK\IBK_DRFN\ProjSrc\SrcChartEx\ChartAddIn\ChartEnvSetupDlgAddIn\ChartEnvSetupDlgAddIn\IndicatorNameListCtrl.cpp

; 356  : 	for(int i = 0; i < GetItemCount(); i++)

  00023	85 c0		 test	 eax, eax
  00025	7e 2b		 jle	 SHORT $LN12@SetAllUnCh
$LL4@SetAllUnCh:

; 357  : 		SetCheck(i, FALSE);

  00027	6a 00		 push	 0
  00029	56		 push	 esi
  0002a	8b cf		 mov	 ecx, edi
  0002c	e8 00 00 00 00	 call	 ?SetCheck@CListCtrl@@QAEHHH@Z ; CListCtrl::SetCheck
; File C:\Program Files (x86)\Microsoft Visual Studio\2019\Community\VC\Tools\MSVC\14.29.30133\atlmfc\include\afxcmn.inl

; 155  : 	{ ASSERT(::IsWindow(m_hWnd)); return (int) ::SendMessage(m_hWnd, LVM_GETITEMCOUNT, 0, 0L); }

  00031	6a 00		 push	 0
  00033	6a 00		 push	 0
  00035	68 04 10 00 00	 push	 4100			; 00001004H
  0003a	ff 77 20	 push	 DWORD PTR [edi+32]
; File D:\git\src\IBK\IBK_DRFN\ProjSrc\SrcChartEx\ChartAddIn\ChartEnvSetupDlgAddIn\ChartEnvSetupDlgAddIn\IndicatorNameListCtrl.cpp

; 356  : 	for(int i = 0; i < GetItemCount(); i++)

  0003d	46		 inc	 esi
; File C:\Program Files (x86)\Microsoft Visual Studio\2019\Community\VC\Tools\MSVC\14.29.30133\atlmfc\include\afxcmn.inl

; 155  : 	{ ASSERT(::IsWindow(m_hWnd)); return (int) ::SendMessage(m_hWnd, LVM_GETITEMCOUNT, 0, 0L); }

  0003e	ff d3		 call	 ebx
; File D:\git\src\IBK\IBK_DRFN\ProjSrc\SrcChartEx\ChartAddIn\ChartEnvSetupDlgAddIn\ChartEnvSetupDlgAddIn\IndicatorNameListCtrl.cpp

; 356  : 	for(int i = 0; i < GetItemCount(); i++)

  00040	3b f0		 cmp	 esi, eax
  00042	7c e3		 jl	 SHORT $LL4@SetAllUnCh

; 358  : 	m_bInitCheckIndicator = FALSE;

  00044	c7 87 90 00 00
	00 00 00 00 00	 mov	 DWORD PTR [edi+144], 0
  0004e	5f		 pop	 edi

; 359  : }

  0004f	5e		 pop	 esi
  00050	5b		 pop	 ebx
  00051	c3		 ret	 0
$LN12@SetAllUnCh:

; 358  : 	m_bInitCheckIndicator = FALSE;

  00052	89 b7 90 00 00
	00		 mov	 DWORD PTR [edi+144], esi
  00058	5f		 pop	 edi

; 359  : }

  00059	5e		 pop	 esi
  0005a	5b		 pop	 ebx
  0005b	c3		 ret	 0
?SetAllUnCheck@CIndicatorNameListCtrl@@QAEXXZ ENDP	; CIndicatorNameListCtrl::SetAllUnCheck
_TEXT	ENDS
; Function compile flags: /Ogtp
; File D:\git\src\IBK\IBK_DRFN\ProjSrc\SrcChartEx\ChartAddIn\ChartEnvSetupDlgAddIn\ChartEnvSetupDlgAddIn\IndicatorNameListCtrl.cpp
; File D:\git\src\IBK\IBK_DRFN\ProjSrc\SrcChartEx\ChartAddIn\ChartEnvSetupDlgAddIn\Include_AddIn_135914\I135914\_IString.h
; File D:\git\src\IBK\IBK_DRFN\ProjSrc\SrcChartEx\ChartAddIn\ChartEnvSetupDlgAddIn\ChartEnvSetupDlgAddIn\IndicatorNameListCtrl.cpp
; File C:\Program Files (x86)\Microsoft Visual Studio\2019\Community\VC\Tools\MSVC\14.29.30133\atlmfc\include\afxcmn.inl
; File D:\git\src\IBK\IBK_DRFN\ProjSrc\SrcChartEx\ChartAddIn\ChartEnvSetupDlgAddIn\ChartEnvSetupDlgAddIn\IndicatorNameListCtrl.cpp
; File C:\Program Files (x86)\Microsoft Visual Studio\2019\Community\VC\Tools\MSVC\14.29.30133\atlmfc\include\atlsimpstr.h
; File D:\git\src\IBK\IBK_DRFN\ProjSrc\SrcChartEx\ChartAddIn\ChartEnvSetupDlgAddIn\ChartEnvSetupDlgAddIn\IndicatorNameListCtrl.cpp
; File C:\Program Files (x86)\Microsoft Visual Studio\2019\Community\VC\Tools\MSVC\14.29.30133\atlmfc\include\afxcmn.inl
; File D:\git\src\IBK\IBK_DRFN\ProjSrc\SrcChartEx\ChartAddIn\ChartEnvSetupDlgAddIn\ChartEnvSetupDlgAddIn\IndicatorNameListCtrl.cpp
; File C:\Program Files (x86)\Microsoft Visual Studio\2019\Community\VC\Tools\MSVC\14.29.30133\atlmfc\include\afxcmn.inl
; File D:\git\src\IBK\IBK_DRFN\ProjSrc\SrcChartEx\ChartAddIn\ChartEnvSetupDlgAddIn\ChartEnvSetupDlgAddIn\IndicatorNameListCtrl.cpp
; File D:\git\src\IBK\IBK_DRFN\ProjSrc\SrcChartEx\ChartAddIn\ChartEnvSetupDlgAddIn\Include_AddIn_135914\I135914\_IString.h
; File D:\git\src\IBK\IBK_DRFN\ProjSrc\SrcChartEx\ChartAddIn\ChartEnvSetupDlgAddIn\ChartEnvSetupDlgAddIn\IndicatorNameListCtrl.cpp
;	COMDAT ?SetCheckSeletecItem@CIndicatorNameListCtrl@@QAEXPAUIStringList135914@@@Z
_TEXT	SEGMENT
_szGraphName$ = -28					; size = 8
$T2 = -20						; size = 4
_pos$ = -16						; size = 4
__$EHRec$ = -12						; size = 12
_p_pIGraphNameList$ = 8					; size = 4
?SetCheckSeletecItem@CIndicatorNameListCtrl@@QAEXPAUIStringList135914@@@Z PROC ; CIndicatorNameListCtrl::SetCheckSeletecItem, COMDAT
; _this$ = ecx

; 323  : {

  00000	55		 push	 ebp
  00001	8b ec		 mov	 ebp, esp
  00003	6a ff		 push	 -1
  00005	68 00 00 00 00	 push	 __ehhandler$?SetCheckSeletecItem@CIndicatorNameListCtrl@@QAEXPAUIStringList135914@@@Z
  0000a	64 a1 00 00 00
	00		 mov	 eax, DWORD PTR fs:0
  00010	50		 push	 eax
  00011	83 ec 10	 sub	 esp, 16			; 00000010H
  00014	53		 push	 ebx
  00015	56		 push	 esi
  00016	57		 push	 edi
  00017	a1 00 00 00 00	 mov	 eax, DWORD PTR ___security_cookie
  0001c	33 c5		 xor	 eax, ebp
  0001e	50		 push	 eax
  0001f	8d 45 f4	 lea	 eax, DWORD PTR __$EHRec$[ebp]
  00022	64 a3 00 00 00
	00		 mov	 DWORD PTR fs:0, eax
  00028	8b d9		 mov	 ebx, ecx

; 324  : 	// (04/08/04)     
; 325  : 	//    . T_T  ...!!
; 326  : 	m_bInitCheckIndicator = TRUE;

  0002a	c7 83 90 00 00
	00 01 00 00 00	 mov	 DWORD PTR [ebx+144], 1
; File D:\git\src\IBK\IBK_DRFN\ProjSrc\SrcChartEx\ChartAddIn\ChartEnvSetupDlgAddIn\Include_AddIn_135914\I135914\_IString.h

; 39   : 		m_pIStrData = p_pIString;	// Do not AddRef(). Because It must be Return Value.

  00034	c7 45 e8 00 00
	00 00		 mov	 DWORD PTR _szGraphName$[ebp+4], 0

; 40   : 		if( m_pIStrData) m_szData = m_pIStrData->GetData();
; 41   : 		else m_szData = NULL;

  0003b	c7 45 e4 00 00
	00 00		 mov	 DWORD PTR _szGraphName$[ebp], 0
; File D:\git\src\IBK\IBK_DRFN\ProjSrc\SrcChartEx\ChartAddIn\ChartEnvSetupDlgAddIn\ChartEnvSetupDlgAddIn\IndicatorNameListCtrl.cpp

; 329  : 	POSITION pos = p_pIGraphNameList->GetHeadPosition();

  00042	8b 7d 08	 mov	 edi, DWORD PTR _p_pIGraphNameList$[ebp]
  00045	8b cf		 mov	 ecx, edi
  00047	c7 45 fc 00 00
	00 00		 mov	 DWORD PTR __$EHRec$[ebp+8], 0
  0004e	8b 07		 mov	 eax, DWORD PTR [edi]
  00050	ff 50 34	 call	 DWORD PTR [eax+52]
  00053	89 45 f0	 mov	 DWORD PTR _pos$[ebp], eax

; 330  : 	while(pos)

  00056	85 c0		 test	 eax, eax
  00058	0f 84 a4 00 00
	00		 je	 $LN3@SetCheckSe
  0005e	8b 35 00 00 00
	00		 mov	 esi, DWORD PTR __imp__SendMessageA@16
$LL2@SetCheckSe:

; 331  : 	{
; 332  : 		p_pIGraphNameList->GetNext( pos, szGraphName);

  00064	8b 07		 mov	 eax, DWORD PTR [edi]
  00066	8d 4d e4	 lea	 ecx, DWORD PTR _szGraphName$[ebp]
  00069	51		 push	 ecx
  0006a	8d 4d f0	 lea	 ecx, DWORD PTR _pos$[ebp]
  0006d	51		 push	 ecx
  0006e	8b cf		 mov	 ecx, edi
  00070	ff 50 3c	 call	 DWORD PTR [eax+60]

; 333  : 		for(int i = 0; i < GetItemCount(); i++)

  00073	33 ff		 xor	 edi, edi
; File C:\Program Files (x86)\Microsoft Visual Studio\2019\Community\VC\Tools\MSVC\14.29.30133\atlmfc\include\afxcmn.inl

; 155  : 	{ ASSERT(::IsWindow(m_hWnd)); return (int) ::SendMessage(m_hWnd, LVM_GETITEMCOUNT, 0, 0L); }

  00075	57		 push	 edi
  00076	57		 push	 edi
  00077	68 04 10 00 00	 push	 4100			; 00001004H
  0007c	ff 73 20	 push	 DWORD PTR [ebx+32]
  0007f	ff d6		 call	 esi
; File D:\git\src\IBK\IBK_DRFN\ProjSrc\SrcChartEx\ChartAddIn\ChartEnvSetupDlgAddIn\ChartEnvSetupDlgAddIn\IndicatorNameListCtrl.cpp

; 333  : 		for(int i = 0; i < GetItemCount(); i++)

  00081	85 c0		 test	 eax, eax
  00083	7e 70		 jle	 SHORT $LN5@SetCheckSe
$LL6@SetCheckSe:

; 335  : 			if( !strcmp( szGraphName, GetItemText(i, 0)))

  00085	6a 00		 push	 0
  00087	57		 push	 edi
  00088	8d 45 ec	 lea	 eax, DWORD PTR $T2[ebp]
  0008b	8b cb		 mov	 ecx, ebx
  0008d	50		 push	 eax
  0008e	e8 00 00 00 00	 call	 ?GetItemText@CListCtrl@@QBE?AV?$CStringT@DV?$StrTraitMFC_DLL@DV?$ChTraitsCRT@D@ATL@@@@@ATL@@HH@Z ; CListCtrl::GetItemText
; File C:\Program Files (x86)\Microsoft Visual Studio\2019\Community\VC\Tools\MSVC\14.29.30133\atlmfc\include\atlsimpstr.h

; 377  : 		return( m_pszData );

  00093	8b 08		 mov	 ecx, DWORD PTR [eax]
; File D:\git\src\IBK\IBK_DRFN\ProjSrc\SrcChartEx\ChartAddIn\ChartEnvSetupDlgAddIn\ChartEnvSetupDlgAddIn\IndicatorNameListCtrl.cpp

; 335  : 			if( !strcmp( szGraphName, GetItemText(i, 0)))

  00095	8b 45 e4	 mov	 eax, DWORD PTR _szGraphName$[ebp]
$LL31@SetCheckSe:
  00098	8a 10		 mov	 dl, BYTE PTR [eax]
  0009a	3a 11		 cmp	 dl, BYTE PTR [ecx]
  0009c	75 1a		 jne	 SHORT $LN32@SetCheckSe
  0009e	84 d2		 test	 dl, dl
  000a0	74 12		 je	 SHORT $LN33@SetCheckSe
  000a2	8a 50 01	 mov	 dl, BYTE PTR [eax+1]
  000a5	3a 51 01	 cmp	 dl, BYTE PTR [ecx+1]
  000a8	75 0e		 jne	 SHORT $LN32@SetCheckSe
  000aa	83 c0 02	 add	 eax, 2
  000ad	83 c1 02	 add	 ecx, 2
  000b0	84 d2		 test	 dl, dl
  000b2	75 e4		 jne	 SHORT $LL31@SetCheckSe
$LN33@SetCheckSe:
  000b4	33 f6		 xor	 esi, esi
  000b6	eb 05		 jmp	 SHORT $LN34@SetCheckSe
$LN32@SetCheckSe:
  000b8	1b f6		 sbb	 esi, esi
  000ba	83 ce 01	 or	 esi, 1
$LN34@SetCheckSe:
  000bd	8d 4d ec	 lea	 ecx, DWORD PTR $T2[ebp]
  000c0	ff 15 00 00 00
	00		 call	 DWORD PTR __imp_??1?$CStringT@DV?$StrTraitMFC_DLL@DV?$ChTraitsCRT@D@ATL@@@@@ATL@@QAE@XZ
  000c6	85 f6		 test	 esi, esi
  000c8	74 1b		 je	 SHORT $LN25@SetCheckSe
; File C:\Program Files (x86)\Microsoft Visual Studio\2019\Community\VC\Tools\MSVC\14.29.30133\atlmfc\include\afxcmn.inl

; 155  : 	{ ASSERT(::IsWindow(m_hWnd)); return (int) ::SendMessage(m_hWnd, LVM_GETITEMCOUNT, 0, 0L); }

  000ca	8b 35 00 00 00
	00		 mov	 esi, DWORD PTR __imp__SendMessageA@16
; File D:\git\src\IBK\IBK_DRFN\ProjSrc\SrcChartEx\ChartAddIn\ChartEnvSetupDlgAddIn\ChartEnvSetupDlgAddIn\IndicatorNameListCtrl.cpp

; 333  : 		for(int i = 0; i < GetItemCount(); i++)

  000d0	47		 inc	 edi
; File C:\Program Files (x86)\Microsoft Visual Studio\2019\Community\VC\Tools\MSVC\14.29.30133\atlmfc\include\afxcmn.inl

; 155  : 	{ ASSERT(::IsWindow(m_hWnd)); return (int) ::SendMessage(m_hWnd, LVM_GETITEMCOUNT, 0, 0L); }

  000d1	6a 00		 push	 0
  000d3	6a 00		 push	 0
  000d5	68 04 10 00 00	 push	 4100			; 00001004H
  000da	ff 73 20	 push	 DWORD PTR [ebx+32]
  000dd	ff d6		 call	 esi
; File D:\git\src\IBK\IBK_DRFN\ProjSrc\SrcChartEx\ChartAddIn\ChartEnvSetupDlgAddIn\ChartEnvSetupDlgAddIn\IndicatorNameListCtrl.cpp

; 333  : 		for(int i = 0; i < GetItemCount(); i++)

  000df	3b f8		 cmp	 edi, eax
  000e1	7c a2		 jl	 SHORT $LL6@SetCheckSe

; 335  : 			if( !strcmp( szGraphName, GetItemText(i, 0)))

  000e3	eb 10		 jmp	 SHORT $LN5@SetCheckSe
$LN25@SetCheckSe:

; 336  : 			{
; 337  : 				SetCheck(i);

  000e5	6a 01		 push	 1
  000e7	57		 push	 edi
  000e8	8b cb		 mov	 ecx, ebx
  000ea	e8 00 00 00 00	 call	 ?SetCheck@CListCtrl@@QAEHHH@Z ; CListCtrl::SetCheck
  000ef	8b 35 00 00 00
	00		 mov	 esi, DWORD PTR __imp__SendMessageA@16
$LN5@SetCheckSe:

; 330  : 	while(pos)

  000f5	83 7d f0 00	 cmp	 DWORD PTR _pos$[ebp], 0
  000f9	8b 7d 08	 mov	 edi, DWORD PTR _p_pIGraphNameList$[ebp]
  000fc	0f 85 62 ff ff
	ff		 jne	 $LL2@SetCheckSe
$LN3@SetCheckSe:

; 338  : 				break;
; 339  : 			}
; 340  : 		}//end of for
; 341  : 	}//end of while(pos)
; 342  : 	m_bInitCheckIndicator = FALSE;

  00102	c7 83 90 00 00
	00 00 00 00 00	 mov	 DWORD PTR [ebx+144], 0
; File D:\git\src\IBK\IBK_DRFN\ProjSrc\SrcChartEx\ChartAddIn\ChartEnvSetupDlgAddIn\Include_AddIn_135914\I135914\_IString.h

; 45   : 		if( m_pIStrData)

  0010c	8b 4d e8	 mov	 ecx, DWORD PTR _szGraphName$[ebp+4]
  0010f	c7 45 fc 01 00
	00 00		 mov	 DWORD PTR __$EHRec$[ebp+8], 1
  00116	85 c9		 test	 ecx, ecx
  00118	74 06		 je	 SHORT $LN20@SetCheckSe

; 46   : 		{
; 47   : 			m_pIStrData->Release();

  0011a	8b 01		 mov	 eax, DWORD PTR [ecx]
  0011c	51		 push	 ecx
  0011d	ff 50 08	 call	 DWORD PTR [eax+8]
$LN20@SetCheckSe:
; File D:\git\src\IBK\IBK_DRFN\ProjSrc\SrcChartEx\ChartAddIn\ChartEnvSetupDlgAddIn\ChartEnvSetupDlgAddIn\IndicatorNameListCtrl.cpp

; 343  : }

  00120	8b 4d f4	 mov	 ecx, DWORD PTR __$EHRec$[ebp]
  00123	64 89 0d 00 00
	00 00		 mov	 DWORD PTR fs:0, ecx
  0012a	59		 pop	 ecx
  0012b	5f		 pop	 edi
  0012c	5e		 pop	 esi
  0012d	5b		 pop	 ebx
  0012e	8b e5		 mov	 esp, ebp
  00130	5d		 pop	 ebp
  00131	c2 04 00	 ret	 4
_TEXT	ENDS
;	COMDAT text$x
text$x	SEGMENT
__unwindfunclet$?SetCheckSeletecItem@CIndicatorNameListCtrl@@QAEXPAUIStringList135914@@@Z$0:
  00000	8d 4d e4	 lea	 ecx, DWORD PTR _szGraphName$[ebp]
  00003	e9 00 00 00 00	 jmp	 ??1ILPCSTR135914@@QAE@XZ ; ILPCSTR135914::~ILPCSTR135914
  00008	cc		 int	 3
  00009	cc		 int	 3
  0000a	cc		 int	 3
  0000b	cc		 int	 3
  0000c	cc		 int	 3
__ehhandler$?SetCheckSeletecItem@CIndicatorNameListCtrl@@QAEXPAUIStringList135914@@@Z:
  0000d	90		 npad	 1
  0000e	90		 npad	 1
  0000f	8b 54 24 08	 mov	 edx, DWORD PTR [esp+8]
  00013	8d 42 0c	 lea	 eax, DWORD PTR [edx+12]
  00016	8b 4a e0	 mov	 ecx, DWORD PTR [edx-32]
  00019	33 c8		 xor	 ecx, eax
  0001b	e8 00 00 00 00	 call	 @__security_check_cookie@4
  00020	b8 00 00 00 00	 mov	 eax, OFFSET __ehfuncinfo$?SetCheckSeletecItem@CIndicatorNameListCtrl@@QAEXPAUIStringList135914@@@Z
  00025	e9 00 00 00 00	 jmp	 ___CxxFrameHandler3
text$x	ENDS
?SetCheckSeletecItem@CIndicatorNameListCtrl@@QAEXPAUIStringList135914@@@Z ENDP ; CIndicatorNameListCtrl::SetCheckSeletecItem
; Function compile flags: /Ogtp
; File D:\git\src\IBK\IBK_DRFN\ProjSrc\SrcChartEx\ChartAddIn\ChartEnvSetupDlgAddIn\ChartEnvSetupDlgAddIn\IndicatorNameListCtrl.cpp
; File C:\Program Files (x86)\Microsoft Visual Studio\2019\Community\VC\Tools\MSVC\14.29.30133\atlmfc\include\afxcmn2.inl
; File D:\git\src\IBK\IBK_DRFN\ProjSrc\SrcChartEx\ChartAddIn\ChartEnvSetupDlgAddIn\ChartEnvSetupDlgAddIn\IndicatorNameListCtrl.cpp
; File C:\Program Files (x86)\Microsoft Visual Studio\2019\Community\VC\Tools\MSVC\14.29.30133\atlmfc\include\afxcmn2.inl
; File C:\Program Files (x86)\Microsoft Visual Studio\2019\Community\VC\Tools\MSVC\14.29.30133\atlmfc\include\afxwin2.inl
; File C:\Program Files (x86)\Microsoft Visual Studio\2019\Community\VC\Tools\MSVC\14.29.30133\atlmfc\include\atltypes.h
; File C:\Program Files (x86)\Microsoft Visual Studio\2019\Community\VC\Tools\MSVC\14.29.30133\atlmfc\include\afxwin2.inl
; File D:\git\src\IBK\IBK_DRFN\ProjSrc\SrcChartEx\ChartAddIn\ChartEnvSetupDlgAddIn\ChartEnvSetupDlgAddIn\IndicatorNameListCtrl.cpp
; File C:\Program Files (x86)\Microsoft Visual Studio\2019\Community\VC\Tools\MSVC\14.29.30133\atlmfc\include\afxcmn.inl
; File D:\git\src\IBK\IBK_DRFN\ProjSrc\SrcChartEx\ChartAddIn\ChartEnvSetupDlgAddIn\ChartEnvSetupDlgAddIn\IndicatorNameListCtrl.cpp
; File C:\Program Files (x86)\Microsoft Visual Studio\2019\Community\VC\Tools\MSVC\14.29.30133\atlmfc\include\afxcmn.inl
; File D:\git\src\IBK\IBK_DRFN\ProjSrc\SrcChartEx\ChartAddIn\ChartEnvSetupDlgAddIn\ChartEnvSetupDlgAddIn\IndicatorNameListCtrl.cpp
; File C:\Program Files (x86)\Microsoft Visual Studio\2019\Community\VC\Tools\MSVC\14.29.30133\atlmfc\include\afxcmn.inl
; File D:\git\src\IBK\IBK_DRFN\ProjSrc\SrcChartEx\ChartAddIn\ChartEnvSetupDlgAddIn\ChartEnvSetupDlgAddIn\IndicatorNameListCtrl.cpp
; File C:\Program Files (x86)\Microsoft Visual Studio\2019\Community\VC\Tools\MSVC\14.29.30133\atlmfc\include\afxcmn.inl
; File D:\git\src\IBK\IBK_DRFN\ProjSrc\SrcChartEx\ChartAddIn\ChartEnvSetupDlgAddIn\ChartEnvSetupDlgAddIn\IndicatorNameListCtrl.cpp
; File C:\Program Files (x86)\Microsoft Visual Studio\2019\Community\VC\Tools\MSVC\14.29.30133\atlmfc\include\afxcmn.inl
; File D:\git\src\IBK\IBK_DRFN\ProjSrc\SrcChartEx\ChartAddIn\ChartEnvSetupDlgAddIn\ChartEnvSetupDlgAddIn\IndicatorNameListCtrl.cpp
; File C:\Program Files (x86)\Microsoft Visual Studio\2019\Community\VC\Tools\MSVC\14.29.30133\atlmfc\include\afxcmn.inl
; File D:\git\src\IBK\IBK_DRFN\ProjSrc\SrcChartEx\ChartAddIn\ChartEnvSetupDlgAddIn\ChartEnvSetupDlgAddIn\IndicatorNameListCtrl.cpp
; File C:\Program Files (x86)\Microsoft Visual Studio\2019\Community\VC\Tools\MSVC\14.29.30133\atlmfc\include\cstringt.h
; File D:\git\src\IBK\IBK_DRFN\ProjSrc\SrcChartEx\ChartAddIn\ChartEnvSetupDlgAddIn\ChartEnvSetupDlgAddIn\IndicatorNameListCtrl.cpp
; File C:\Program Files (x86)\Microsoft Visual Studio\2019\Community\VC\Tools\MSVC\14.29.30133\atlmfc\include\cstringt.h
; File D:\git\src\IBK\IBK_DRFN\ProjSrc\SrcChartEx\ChartAddIn\ChartEnvSetupDlgAddIn\ChartEnvSetupDlgAddIn\IndicatorNameListCtrl.cpp
; File C:\Program Files (x86)\Microsoft Visual Studio\2019\Community\VC\Tools\MSVC\14.29.30133\atlmfc\include\cstringt.h
; File D:\git\src\IBK\IBK_DRFN\ProjSrc\SrcChartEx\ChartAddIn\ChartEnvSetupDlgAddIn\ChartEnvSetupDlgAddIn\IndicatorNameListCtrl.cpp
; File D:\git\src\IBK\IBK_DRFN\ProjSrc\SrcChartEx\ChartAddIn\ChartEnvSetupDlgAddIn\Include_AddIn_135914\I135914\_IString.h
; File D:\git\src\IBK\IBK_DRFN\ProjSrc\SrcChartEx\ChartAddIn\ChartEnvSetupDlgAddIn\ChartEnvSetupDlgAddIn\IndicatorNameListCtrl.cpp
; File C:\Program Files (x86)\Microsoft Visual Studio\2019\Community\VC\Tools\MSVC\14.29.30133\atlmfc\include\afxcmn.inl
; File D:\git\src\IBK\IBK_DRFN\ProjSrc\SrcChartEx\ChartAddIn\ChartEnvSetupDlgAddIn\ChartEnvSetupDlgAddIn\IndicatorNameListCtrl.cpp
; File D:\git\src\IBK\IBK_DRFN\ProjSrc\SrcChartEx\ChartAddIn\ChartEnvSetupDlgAddIn\Include_AddIn_135914\I135914\_IString.h
; File D:\git\src\IBK\IBK_DRFN\ProjSrc\SrcChartEx\ChartAddIn\ChartEnvSetupDlgAddIn\ChartEnvSetupDlgAddIn\IndicatorNameListCtrl.cpp
; File C:\Program Files (x86)\Microsoft Visual Studio\2019\Community\VC\Tools\MSVC\14.29.30133\atlmfc\include\cstringt.h
; File D:\git\src\IBK\IBK_DRFN\ProjSrc\SrcChartEx\ChartAddIn\ChartEnvSetupDlgAddIn\ChartEnvSetupDlgAddIn\IndicatorNameListCtrl.cpp
; File C:\Program Files (x86)\Microsoft Visual Studio\2019\Community\VC\Tools\MSVC\14.29.30133\atlmfc\include\cstringt.h
; File D:\git\src\IBK\IBK_DRFN\ProjSrc\SrcChartEx\ChartAddIn\ChartEnvSetupDlgAddIn\ChartEnvSetupDlgAddIn\IndicatorNameListCtrl.cpp
; File C:\Program Files (x86)\Microsoft Visual Studio\2019\Community\VC\Tools\MSVC\14.29.30133\atlmfc\include\cstringt.h
; File D:\git\src\IBK\IBK_DRFN\ProjSrc\SrcChartEx\ChartAddIn\ChartEnvSetupDlgAddIn\ChartEnvSetupDlgAddIn\IndicatorNameListCtrl.cpp
; File D:\git\src\IBK\IBK_DRFN\ProjSrc\SrcChartEx\ChartAddIn\ChartEnvSetupDlgAddIn\Include_AddIn_135914\I135914\_IString.h
; File D:\git\src\IBK\IBK_DRFN\ProjSrc\SrcChartEx\ChartAddIn\ChartEnvSetupDlgAddIn\ChartEnvSetupDlgAddIn\IndicatorNameListCtrl.cpp
; File D:\git\src\IBK\IBK_DRFN\ProjSrc\SrcChartEx\ChartAddIn\ChartEnvSetupDlgAddIn\Include_AddIn_135914\I135914\_IString.h
; File D:\git\src\IBK\IBK_DRFN\ProjSrc\SrcChartEx\ChartAddIn\ChartEnvSetupDlgAddIn\ChartEnvSetupDlgAddIn\IndicatorNameListCtrl.cpp
; File C:\Program Files (x86)\Microsoft Visual Studio\2019\Community\VC\Tools\MSVC\14.29.30133\atlmfc\include\afxcmn.inl
; File D:\git\src\IBK\IBK_DRFN\ProjSrc\SrcChartEx\ChartAddIn\ChartEnvSetupDlgAddIn\ChartEnvSetupDlgAddIn\IndicatorNameListCtrl.cpp
; File D:\git\src\IBK\IBK_DRFN\ProjSrc\SrcChartEx\ChartAddIn\ChartEnvSetupDlgAddIn\Include_AddIn_135914\I135914\_IString.h
; File D:\git\src\IBK\IBK_DRFN\ProjSrc\SrcChartEx\ChartAddIn\ChartEnvSetupDlgAddIn\ChartEnvSetupDlgAddIn\IndicatorNameListCtrl.cpp
; File D:\git\src\IBK\IBK_DRFN\ProjSrc\SrcChartEx\ChartAddIn\ChartEnvSetupDlgAddIn\Include_AddIn_135914\I135914\_IString.h
; File D:\git\src\IBK\IBK_DRFN\ProjSrc\SrcChartEx\ChartAddIn\ChartEnvSetupDlgAddIn\ChartEnvSetupDlgAddIn\IndicatorNameListCtrl.cpp
;	COMDAT ?Initialize@CIndicatorNameListCtrl@@QAE_NPBDPAUIStringList135914@@1@Z
_TEXT	SEGMENT
_lvColumn$2 = -116					; size = 44
_posIndicatorName$3 = -72				; size = 4
_posGraphName$4 = -68					; size = 4
_szIndicatorName$5 = -64				; size = 8
_szGraphName$6 = -56					; size = 8
_szGraphName$7 = -48					; size = 8
_p_szGroupName$GSCopy$1$ = -44				; size = 4
$T8 = -44						; size = 4
_this$GSCopy$1$ = -40					; size = 4
_i$1$ = -36						; size = 4
_pos$9 = -36						; size = 4
$T10 = -36						; size = 4
_rc$11 = -32						; size = 16
__$ArrayPad$ = -16					; size = 4
__$EHRec$ = -12						; size = 12
_p_szGroupName$ = 8					; size = 4
_pGraphNameList$ = 12					; size = 4
_pIndicatorNameList$ = 16				; size = 4
?Initialize@CIndicatorNameListCtrl@@QAE_NPBDPAUIStringList135914@@1@Z PROC ; CIndicatorNameListCtrl::Initialize, COMDAT
; _this$ = ecx

; 106  : {

  00000	55		 push	 ebp
  00001	8b ec		 mov	 ebp, esp
  00003	6a ff		 push	 -1
  00005	68 00 00 00 00	 push	 __ehhandler$?Initialize@CIndicatorNameListCtrl@@QAE_NPBDPAUIStringList135914@@1@Z
  0000a	64 a1 00 00 00
	00		 mov	 eax, DWORD PTR fs:0
  00010	50		 push	 eax
  00011	83 ec 68	 sub	 esp, 104		; 00000068H
  00014	a1 00 00 00 00	 mov	 eax, DWORD PTR ___security_cookie
  00019	33 c5		 xor	 eax, ebp
  0001b	89 45 f0	 mov	 DWORD PTR __$ArrayPad$[ebp], eax
  0001e	53		 push	 ebx
  0001f	56		 push	 esi
  00020	57		 push	 edi
  00021	50		 push	 eax
  00022	8d 45 f4	 lea	 eax, DWORD PTR __$EHRec$[ebp]
  00025	64 a3 00 00 00
	00		 mov	 DWORD PTR fs:0, eax
  0002b	8b c1		 mov	 eax, ecx
  0002d	89 45 d8	 mov	 DWORD PTR _this$GSCopy$1$[ebp], eax
  00030	8b 4d 08	 mov	 ecx, DWORD PTR _p_szGroupName$[ebp]
  00033	8b 5d 0c	 mov	 ebx, DWORD PTR _pGraphNameList$[ebp]
  00036	8b 7d 10	 mov	 edi, DWORD PTR _pIndicatorNameList$[ebp]
; File C:\Program Files (x86)\Microsoft Visual Studio\2019\Community\VC\Tools\MSVC\14.29.30133\atlmfc\include\afxcmn2.inl

; 117  : 	{ ASSERT(::IsWindow(m_hWnd)); return (DWORD) ::SendMessage(m_hWnd, LVM_SETEXTENDEDLISTVIEWSTYLE, 0, (LPARAM) dwNewStyle); }

  00039	8b 35 00 00 00
	00		 mov	 esi, DWORD PTR __imp__SendMessageA@16
  0003f	6a 21		 push	 33			; 00000021H
  00041	6a 00		 push	 0
  00043	68 36 10 00 00	 push	 4150			; 00001036H
  00048	ff 70 20	 push	 DWORD PTR [eax+32]
; File D:\git\src\IBK\IBK_DRFN\ProjSrc\SrcChartEx\ChartAddIn\ChartEnvSetupDlgAddIn\ChartEnvSetupDlgAddIn\IndicatorNameListCtrl.cpp

; 106  : {

  0004b	89 4d d4	 mov	 DWORD PTR _p_szGroupName$GSCopy$1$[ebp], ecx
; File C:\Program Files (x86)\Microsoft Visual Studio\2019\Community\VC\Tools\MSVC\14.29.30133\atlmfc\include\afxcmn2.inl

; 117  : 	{ ASSERT(::IsWindow(m_hWnd)); return (DWORD) ::SendMessage(m_hWnd, LVM_SETEXTENDEDLISTVIEWSTYLE, 0, (LPARAM) dwNewStyle); }

  0004e	ff d6		 call	 esi
; File C:\Program Files (x86)\Microsoft Visual Studio\2019\Community\VC\Tools\MSVC\14.29.30133\atlmfc\include\afxwin2.inl

; 86   : 	{ ASSERT(::IsWindow(m_hWnd)); ::GetClientRect(m_hWnd, lpRect); }

  00050	8d 45 e0	 lea	 eax, DWORD PTR _rc$11[ebp]
  00053	0f 57 c0	 xorps	 xmm0, xmm0
  00056	50		 push	 eax
  00057	8b 45 d8	 mov	 eax, DWORD PTR _this$GSCopy$1$[ebp]
; File C:\Program Files (x86)\Microsoft Visual Studio\2019\Community\VC\Tools\MSVC\14.29.30133\atlmfc\include\atltypes.h

; 528  : 	left = 0;

  0005a	0f 11 45 e0	 movups	 XMMWORD PTR _rc$11[ebp], xmm0
; File C:\Program Files (x86)\Microsoft Visual Studio\2019\Community\VC\Tools\MSVC\14.29.30133\atlmfc\include\afxwin2.inl

; 86   : 	{ ASSERT(::IsWindow(m_hWnd)); ::GetClientRect(m_hWnd, lpRect); }

  0005e	ff 70 20	 push	 DWORD PTR [eax+32]
  00061	ff 15 00 00 00
	00		 call	 DWORD PTR __imp__GetClientRect@8
; File D:\git\src\IBK\IBK_DRFN\ProjSrc\SrcChartEx\ChartAddIn\ChartEnvSetupDlgAddIn\ChartEnvSetupDlgAddIn\IndicatorNameListCtrl.cpp

; 87   : 	lvColumn.cx = rc.Width() - 17;

  00067	8b 45 e8	 mov	 eax, DWORD PTR _rc$11[ebp+8]
  0006a	2b 45 e0	 sub	 eax, DWORD PTR _rc$11[ebp]
  0006d	83 e8 11	 sub	 eax, 17			; 00000011H
  00070	c7 45 8c 07 00
	00 00		 mov	 DWORD PTR _lvColumn$2[ebp], 7
  00077	89 45 94	 mov	 DWORD PTR _lvColumn$2[ebp+8], eax
; File C:\Program Files (x86)\Microsoft Visual Studio\2019\Community\VC\Tools\MSVC\14.29.30133\atlmfc\include\afxcmn.inl

; 209  : 	{ ASSERT(::IsWindow(m_hWnd)); return (int) ::SendMessage(m_hWnd, LVM_INSERTCOLUMN, nCol, (LPARAM)pColumn); }

  0007a	8d 45 8c	 lea	 eax, DWORD PTR _lvColumn$2[ebp]
  0007d	50		 push	 eax
  0007e	8b 45 d8	 mov	 eax, DWORD PTR _this$GSCopy$1$[ebp]
  00081	6a 00		 push	 0
  00083	68 1b 10 00 00	 push	 4123			; 0000101bH
; File D:\git\src\IBK\IBK_DRFN\ProjSrc\SrcChartEx\ChartAddIn\ChartEnvSetupDlgAddIn\ChartEnvSetupDlgAddIn\IndicatorNameListCtrl.cpp

; 86   : 	lvColumn.fmt = LVCFMT_LEFT;

  00088	c7 45 90 00 00
	00 00		 mov	 DWORD PTR _lvColumn$2[ebp+4], 0
; File C:\Program Files (x86)\Microsoft Visual Studio\2019\Community\VC\Tools\MSVC\14.29.30133\atlmfc\include\afxcmn.inl

; 209  : 	{ ASSERT(::IsWindow(m_hWnd)); return (int) ::SendMessage(m_hWnd, LVM_INSERTCOLUMN, nCol, (LPARAM)pColumn); }

  0008f	ff 70 20	 push	 DWORD PTR [eax+32]
; File D:\git\src\IBK\IBK_DRFN\ProjSrc\SrcChartEx\ChartAddIn\ChartEnvSetupDlgAddIn\ChartEnvSetupDlgAddIn\IndicatorNameListCtrl.cpp

; 88   : 	lvColumn.pszText = _T("");

  00092	c7 45 98 00 00
	00 00		 mov	 DWORD PTR _lvColumn$2[ebp+12], OFFSET ??_C@_04JDFEIJL@?A?v?G?$KF@
; File C:\Program Files (x86)\Microsoft Visual Studio\2019\Community\VC\Tools\MSVC\14.29.30133\atlmfc\include\afxcmn.inl

; 209  : 	{ ASSERT(::IsWindow(m_hWnd)); return (int) ::SendMessage(m_hWnd, LVM_INSERTCOLUMN, nCol, (LPARAM)pColumn); }

  00099	ff d6		 call	 esi
  0009b	8d 45 8c	 lea	 eax, DWORD PTR _lvColumn$2[ebp]
; File D:\git\src\IBK\IBK_DRFN\ProjSrc\SrcChartEx\ChartAddIn\ChartEnvSetupDlgAddIn\ChartEnvSetupDlgAddIn\IndicatorNameListCtrl.cpp

; 91   : 	lvColumn.mask = LVCF_FMT | LVCF_WIDTH | LVCF_TEXT;// | LVCF_SUBITEM;

  0009e	c7 45 8c 07 00
	00 00		 mov	 DWORD PTR _lvColumn$2[ebp], 7
; File C:\Program Files (x86)\Microsoft Visual Studio\2019\Community\VC\Tools\MSVC\14.29.30133\atlmfc\include\afxcmn.inl

; 209  : 	{ ASSERT(::IsWindow(m_hWnd)); return (int) ::SendMessage(m_hWnd, LVM_INSERTCOLUMN, nCol, (LPARAM)pColumn); }

  000a5	50		 push	 eax
  000a6	8b 45 d8	 mov	 eax, DWORD PTR _this$GSCopy$1$[ebp]
  000a9	6a 01		 push	 1
  000ab	68 1b 10 00 00	 push	 4123			; 0000101bH
; File D:\git\src\IBK\IBK_DRFN\ProjSrc\SrcChartEx\ChartAddIn\ChartEnvSetupDlgAddIn\ChartEnvSetupDlgAddIn\IndicatorNameListCtrl.cpp

; 92   : 	lvColumn.fmt = LVCFMT_LEFT;

  000b0	c7 45 90 00 00
	00 00		 mov	 DWORD PTR _lvColumn$2[ebp+4], 0
; File C:\Program Files (x86)\Microsoft Visual Studio\2019\Community\VC\Tools\MSVC\14.29.30133\atlmfc\include\afxcmn.inl

; 209  : 	{ ASSERT(::IsWindow(m_hWnd)); return (int) ::SendMessage(m_hWnd, LVM_INSERTCOLUMN, nCol, (LPARAM)pColumn); }

  000b7	ff 70 20	 push	 DWORD PTR [eax+32]
; File D:\git\src\IBK\IBK_DRFN\ProjSrc\SrcChartEx\ChartAddIn\ChartEnvSetupDlgAddIn\ChartEnvSetupDlgAddIn\IndicatorNameListCtrl.cpp

; 93   : 	lvColumn.cx = 0;

  000ba	c7 45 94 00 00
	00 00		 mov	 DWORD PTR _lvColumn$2[ebp+8], 0

; 94   : 	lvColumn.pszText = _T("GraphName");

  000c1	c7 45 98 00 00
	00 00		 mov	 DWORD PTR _lvColumn$2[ebp+12], OFFSET ??_C@_09JGBECMOF@GraphName@
; File C:\Program Files (x86)\Microsoft Visual Studio\2019\Community\VC\Tools\MSVC\14.29.30133\atlmfc\include\afxcmn.inl

; 209  : 	{ ASSERT(::IsWindow(m_hWnd)); return (int) ::SendMessage(m_hWnd, LVM_INSERTCOLUMN, nCol, (LPARAM)pColumn); }

  000c8	ff d6		 call	 esi
; File D:\git\src\IBK\IBK_DRFN\ProjSrc\SrcChartEx\ChartAddIn\ChartEnvSetupDlgAddIn\ChartEnvSetupDlgAddIn\IndicatorNameListCtrl.cpp

; 109  : 	if( pIndicatorNameList->IsEmpty()) return false;

  000ca	8b 07		 mov	 eax, DWORD PTR [edi]
  000cc	8b cf		 mov	 ecx, edi
  000ce	ff 50 14	 call	 DWORD PTR [eax+20]
  000d1	85 c0		 test	 eax, eax
  000d3	74 07		 je	 SHORT $LN2@Initialize
  000d5	32 c0		 xor	 al, al
  000d7	e9 61 02 00 00	 jmp	 $LN1@Initialize
$LN2@Initialize:

; 111  : 	if(IsInitialize_Market( p_szGroupName))					return Initialize_Market( pIndicatorNameList);

  000dc	ff 75 d4	 push	 DWORD PTR _p_szGroupName$GSCopy$1$[ebp]
  000df	8d 4d dc	 lea	 ecx, DWORD PTR $T10[ebp]
  000e2	ff 15 00 00 00
	00		 call	 DWORD PTR __imp_??0?$CStringT@DV?$StrTraitMFC_DLL@DV?$ChTraitsCRT@D@ATL@@@@@ATL@@QAE@PBD@Z
; File C:\Program Files (x86)\Microsoft Visual Studio\2019\Community\VC\Tools\MSVC\14.29.30133\atlmfc\include\cstringt.h

; 2486 : 		return(str1.Compare(psz2) == 0);

  000e8	ff 35 00 00 00
	00		 push	 DWORD PTR ?GROUPNAME_MARKET@CIndiConfigurationDefineData@@2PBDB ; CIndiConfigurationDefineData::GROUPNAME_MARKET
  000ee	8d 4d dc	 lea	 ecx, DWORD PTR $T10[ebp]
; File D:\git\src\IBK\IBK_DRFN\ProjSrc\SrcChartEx\ChartAddIn\ChartEnvSetupDlgAddIn\ChartEnvSetupDlgAddIn\IndicatorNameListCtrl.cpp

; 111  : 	if(IsInitialize_Market( p_szGroupName))					return Initialize_Market( pIndicatorNameList);

  000f1	c7 45 fc 00 00
	00 00		 mov	 DWORD PTR __$EHRec$[ebp+8], 0
; File C:\Program Files (x86)\Microsoft Visual Studio\2019\Community\VC\Tools\MSVC\14.29.30133\atlmfc\include\cstringt.h

; 2486 : 		return(str1.Compare(psz2) == 0);

  000f8	ff 15 00 00 00
	00		 call	 DWORD PTR __imp_?Compare@?$CStringT@DV?$StrTraitMFC_DLL@DV?$ChTraitsCRT@D@ATL@@@@@ATL@@QBEHPBD@Z
; File D:\git\src\IBK\IBK_DRFN\ProjSrc\SrcChartEx\ChartAddIn\ChartEnvSetupDlgAddIn\ChartEnvSetupDlgAddIn\IndicatorNameListCtrl.cpp

; 111  : 	if(IsInitialize_Market( p_szGroupName))					return Initialize_Market( pIndicatorNameList);

  000fe	8d 4d dc	 lea	 ecx, DWORD PTR $T10[ebp]
  00101	c7 45 fc ff ff
	ff ff		 mov	 DWORD PTR __$EHRec$[ebp+8], -1
; File C:\Program Files (x86)\Microsoft Visual Studio\2019\Community\VC\Tools\MSVC\14.29.30133\atlmfc\include\cstringt.h

; 2486 : 		return(str1.Compare(psz2) == 0);

  00108	8b f0		 mov	 esi, eax
; File D:\git\src\IBK\IBK_DRFN\ProjSrc\SrcChartEx\ChartAddIn\ChartEnvSetupDlgAddIn\ChartEnvSetupDlgAddIn\IndicatorNameListCtrl.cpp

; 111  : 	if(IsInitialize_Market( p_szGroupName))					return Initialize_Market( pIndicatorNameList);

  0010a	ff 15 00 00 00
	00		 call	 DWORD PTR __imp_??1?$CStringT@DV?$StrTraitMFC_DLL@DV?$ChTraitsCRT@D@ATL@@@@@ATL@@QAE@XZ
  00110	85 f6		 test	 esi, esi
  00112	0f 85 ca 00 00
	00		 jne	 $LN3@Initialize

; 168  : 	if(pList == NULL || pList->IsEmpty())

  00118	8b 07		 mov	 eax, DWORD PTR [edi]
  0011a	8b cf		 mov	 ecx, edi
  0011c	ff 50 14	 call	 DWORD PTR [eax+20]
  0011f	85 c0		 test	 eax, eax
  00121	0f 85 12 02 00
	00		 jne	 $LN64@Initialize

; 193  : 	if( m_pIPacketManager == NULL)

  00127	8b 5d d8	 mov	 ebx, DWORD PTR _this$GSCopy$1$[ebp]
  0012a	8b 8b 94 00 00
	00		 mov	 ecx, DWORD PTR [ebx+148]
  00130	85 c9		 test	 ecx, ecx
  00132	74 28		 je	 SHORT $LN32@Initialize

; 194  : 		return;
; 195  : 
; 196  : 	eBondName = m_pIPacketManager->GetCommodityBondNameInBase();

  00134	8b 01		 mov	 eax, DWORD PTR [ecx]
  00136	ff 50 48	 call	 DWORD PTR [eax+72]

; 197  : 	eTimeType = m_pIPacketManager->GetBaseTimeDataType();

  00139	8b 8b 94 00 00
	00		 mov	 ecx, DWORD PTR [ebx+148]
  0013f	8b f0		 mov	 esi, eax
  00141	8b 11		 mov	 edx, DWORD PTR [ecx]
  00143	ff 52 3c	 call	 DWORD PTR [edx+60]

; 236  : 	if(eBondName == IPacketManager::INONAME) return true;

  00146	83 fe ff	 cmp	 esi, -1
  00149	74 11		 je	 SHORT $LN32@Initialize

; 282  : 	return (eBondName == CPacketType::STOCK);

  0014b	85 f6		 test	 esi, esi

; 238  : 	if(!IsStock(eBondName)) return false;

  0014d	0f 85 e6 01 00
	00		 jne	 $LN64@Initialize

; 178  : 	if( !IsAddIndicatorName()) return false;

  00153	83 f8 01	 cmp	 eax, 1
  00156	0f 85 dd 01 00
	00		 jne	 $LN64@Initialize
$LN32@Initialize:

; 179  : 
; 180  : 	int i = 0;

  0015c	33 f6		 xor	 esi, esi
; File D:\git\src\IBK\IBK_DRFN\ProjSrc\SrcChartEx\ChartAddIn\ChartEnvSetupDlgAddIn\Include_AddIn_135914\I135914\_IString.h

; 39   : 		m_pIStrData = p_pIString;	// Do not AddRef(). Because It must be Return Value.

  0015e	89 75 d4	 mov	 DWORD PTR _szGraphName$7[ebp+4], esi

; 40   : 		if( m_pIStrData) m_szData = m_pIStrData->GetData();
; 41   : 		else m_szData = NULL;

  00161	89 75 d0	 mov	 DWORD PTR _szGraphName$7[ebp], esi
; File D:\git\src\IBK\IBK_DRFN\ProjSrc\SrcChartEx\ChartAddIn\ChartEnvSetupDlgAddIn\ChartEnvSetupDlgAddIn\IndicatorNameListCtrl.cpp

; 182  : 	POSITION pos = pList->GetHeadPosition();

  00164	8b 07		 mov	 eax, DWORD PTR [edi]
  00166	8b cf		 mov	 ecx, edi
  00168	c7 45 fc 01 00
	00 00		 mov	 DWORD PTR __$EHRec$[ebp+8], 1
  0016f	ff 50 34	 call	 DWORD PTR [eax+52]
  00172	89 45 dc	 mov	 DWORD PTR _pos$9[ebp], eax

; 183  : 	while(pos)

  00175	85 c0		 test	 eax, eax
  00177	74 47		 je	 SHORT $LN29@Initialize
  00179	0f 1f 80 00 00
	00 00		 npad	 7
$LL28@Initialize:

; 184  : 	{
; 185  : 		pList->GetNext(pos, szGraphName);

  00180	8b 07		 mov	 eax, DWORD PTR [edi]
  00182	8d 4d d0	 lea	 ecx, DWORD PTR _szGraphName$7[ebp]
  00185	51		 push	 ecx
  00186	8d 4d dc	 lea	 ecx, DWORD PTR _pos$9[ebp]
  00189	51		 push	 ecx
  0018a	8b cf		 mov	 ecx, edi
  0018c	ff 50 3c	 call	 DWORD PTR [eax+60]

; 186  : 		InsertItem(i++, _MTOL2( szGraphName));

  0018f	6a 00		 push	 0
  00191	ff 75 d0	 push	 DWORD PTR _szGraphName$7[ebp]
  00194	b9 00 00 00 00	 mov	 ecx, OFFSET ?g_iMetaTable@@3VIMetaTable@@A ; g_iMetaTable
  00199	6a 02		 push	 2
  0019b	ff b3 98 00 00
	00		 push	 DWORD PTR [ebx+152]
  001a1	e8 00 00 00 00	 call	 ?GetLanguageText@IMetaTable@@QAEPBDPAUHWND__@@W4E_CODEPAGE@1@PBDH@Z ; IMetaTable::GetLanguageText
; File C:\Program Files (x86)\Microsoft Visual Studio\2019\Community\VC\Tools\MSVC\14.29.30133\atlmfc\include\afxcmn.inl

; 165  : 	{ ASSERT(::IsWindow(m_hWnd)); return InsertItem(LVIF_TEXT, nItem, lpszItem, 0, 0, 0, 0); }

  001a6	6a 00		 push	 0
  001a8	6a 00		 push	 0
  001aa	6a 00		 push	 0
  001ac	6a 00		 push	 0
  001ae	50		 push	 eax
  001af	56		 push	 esi
  001b0	6a 01		 push	 1
  001b2	8b cb		 mov	 ecx, ebx
  001b4	e8 00 00 00 00	 call	 ?InsertItem@CListCtrl@@QAEHIHPBDIIHJ@Z ; CListCtrl::InsertItem
; File D:\git\src\IBK\IBK_DRFN\ProjSrc\SrcChartEx\ChartAddIn\ChartEnvSetupDlgAddIn\ChartEnvSetupDlgAddIn\IndicatorNameListCtrl.cpp

; 186  : 		InsertItem(i++, _MTOL2( szGraphName));

  001b9	46		 inc	 esi
  001ba	83 7d dc 00	 cmp	 DWORD PTR _pos$9[ebp], 0
  001be	75 c0		 jne	 SHORT $LL28@Initialize
$LN29@Initialize:

; 188  : 	return (i > 0);

  001c0	85 f6		 test	 esi, esi
  001c2	0f 9f c3	 setg	 bl
; File D:\git\src\IBK\IBK_DRFN\ProjSrc\SrcChartEx\ChartAddIn\ChartEnvSetupDlgAddIn\Include_AddIn_135914\I135914\_IString.h

; 45   : 		if( m_pIStrData)

  001c5	8b 4d d4	 mov	 ecx, DWORD PTR _szGraphName$7[ebp+4]
  001c8	c7 45 fc 02 00
	00 00		 mov	 DWORD PTR __$EHRec$[ebp+8], 2
  001cf	85 c9		 test	 ecx, ecx
  001d1	0f 84 64 01 00
	00		 je	 $LN60@Initialize

; 46   : 		{
; 47   : 			m_pIStrData->Release();

  001d7	8b 01		 mov	 eax, DWORD PTR [ecx]
  001d9	51		 push	 ecx
  001da	ff 50 08	 call	 DWORD PTR [eax+8]
; File D:\git\src\IBK\IBK_DRFN\ProjSrc\SrcChartEx\ChartAddIn\ChartEnvSetupDlgAddIn\ChartEnvSetupDlgAddIn\IndicatorNameListCtrl.cpp

; 188  : 	return (i > 0);

  001dd	e9 59 01 00 00	 jmp	 $LN60@Initialize
$LN3@Initialize:

; 112  : 	else if(IsInitialize_PacketTimeType( p_szGroupName))	return Initialize_PacketTimeType( pIndicatorNameList);

  001e2	ff 75 d4	 push	 DWORD PTR _p_szGroupName$GSCopy$1$[ebp]
  001e5	8d 4d d4	 lea	 ecx, DWORD PTR $T8[ebp]
  001e8	ff 15 00 00 00
	00		 call	 DWORD PTR __imp_??0?$CStringT@DV?$StrTraitMFC_DLL@DV?$ChTraitsCRT@D@ATL@@@@@ATL@@QAE@PBD@Z
; File C:\Program Files (x86)\Microsoft Visual Studio\2019\Community\VC\Tools\MSVC\14.29.30133\atlmfc\include\cstringt.h

; 2486 : 		return(str1.Compare(psz2) == 0);

  001ee	ff 35 00 00 00
	00		 push	 DWORD PTR ?GROUPNAME_INVESTOR@CIndiConfigurationDefineData@@2PBDB ; CIndiConfigurationDefineData::GROUPNAME_INVESTOR
  001f4	8d 4d d4	 lea	 ecx, DWORD PTR $T8[ebp]
; File D:\git\src\IBK\IBK_DRFN\ProjSrc\SrcChartEx\ChartAddIn\ChartEnvSetupDlgAddIn\ChartEnvSetupDlgAddIn\IndicatorNameListCtrl.cpp

; 112  : 	else if(IsInitialize_PacketTimeType( p_szGroupName))	return Initialize_PacketTimeType( pIndicatorNameList);

  001f7	c7 45 fc 03 00
	00 00		 mov	 DWORD PTR __$EHRec$[ebp+8], 3
; File C:\Program Files (x86)\Microsoft Visual Studio\2019\Community\VC\Tools\MSVC\14.29.30133\atlmfc\include\cstringt.h

; 2486 : 		return(str1.Compare(psz2) == 0);

  001fe	ff 15 00 00 00
	00		 call	 DWORD PTR __imp_?Compare@?$CStringT@DV?$StrTraitMFC_DLL@DV?$ChTraitsCRT@D@ATL@@@@@ATL@@QBEHPBD@Z
; File D:\git\src\IBK\IBK_DRFN\ProjSrc\SrcChartEx\ChartAddIn\ChartEnvSetupDlgAddIn\ChartEnvSetupDlgAddIn\IndicatorNameListCtrl.cpp

; 112  : 	else if(IsInitialize_PacketTimeType( p_szGroupName))	return Initialize_PacketTimeType( pIndicatorNameList);

  00204	8d 4d d4	 lea	 ecx, DWORD PTR $T8[ebp]
  00207	c7 45 fc ff ff
	ff ff		 mov	 DWORD PTR __$EHRec$[ebp+8], -1
; File C:\Program Files (x86)\Microsoft Visual Studio\2019\Community\VC\Tools\MSVC\14.29.30133\atlmfc\include\cstringt.h

; 2486 : 		return(str1.Compare(psz2) == 0);

  0020e	8b f0		 mov	 esi, eax
; File D:\git\src\IBK\IBK_DRFN\ProjSrc\SrcChartEx\ChartAddIn\ChartEnvSetupDlgAddIn\ChartEnvSetupDlgAddIn\IndicatorNameListCtrl.cpp

; 112  : 	else if(IsInitialize_PacketTimeType( p_szGroupName))	return Initialize_PacketTimeType( pIndicatorNameList);

  00210	ff 15 00 00 00
	00		 call	 DWORD PTR __imp_??1?$CStringT@DV?$StrTraitMFC_DLL@DV?$ChTraitsCRT@D@ATL@@@@@ATL@@QAE@XZ
  00216	85 f6		 test	 esi, esi
  00218	75 0e		 jne	 SHORT $LN5@Initialize
  0021a	8b 4d d8	 mov	 ecx, DWORD PTR _this$GSCopy$1$[ebp]
  0021d	57		 push	 edi
  0021e	e8 00 00 00 00	 call	 ?Initialize_PacketTimeType@CIndicatorNameListCtrl@@AAE_NPAUIStringList135914@@@Z ; CIndicatorNameListCtrl::Initialize_PacketTimeType
  00223	e9 15 01 00 00	 jmp	 $LN1@Initialize
$LN5@Initialize:

; 119  : 	if( pIndicatorNameList == NULL || pIndicatorNameList->IsEmpty()) return false;

  00228	8b 07		 mov	 eax, DWORD PTR [edi]
  0022a	8b cf		 mov	 ecx, edi
  0022c	ff 50 14	 call	 DWORD PTR [eax+20]
  0022f	85 c0		 test	 eax, eax
  00231	0f 85 02 01 00
	00		 jne	 $LN64@Initialize

; 120  : 
; 121  : 	int i = 0;

  00237	89 45 dc	 mov	 DWORD PTR _i$1$[ebp], eax
; File D:\git\src\IBK\IBK_DRFN\ProjSrc\SrcChartEx\ChartAddIn\ChartEnvSetupDlgAddIn\Include_AddIn_135914\I135914\_IString.h

; 39   : 		m_pIStrData = p_pIString;	// Do not AddRef(). Because It must be Return Value.

  0023a	89 45 cc	 mov	 DWORD PTR _szGraphName$6[ebp+4], eax

; 40   : 		if( m_pIStrData) m_szData = m_pIStrData->GetData();
; 41   : 		else m_szData = NULL;

  0023d	89 45 c8	 mov	 DWORD PTR _szGraphName$6[ebp], eax
; File D:\git\src\IBK\IBK_DRFN\ProjSrc\SrcChartEx\ChartAddIn\ChartEnvSetupDlgAddIn\ChartEnvSetupDlgAddIn\IndicatorNameListCtrl.cpp

; 122  : 	ILPCSTR szGraphName = NULL, szIndicatorName = NULL;

  00240	c7 45 fc 04 00
	00 00		 mov	 DWORD PTR __$EHRec$[ebp+8], 4
; File D:\git\src\IBK\IBK_DRFN\ProjSrc\SrcChartEx\ChartAddIn\ChartEnvSetupDlgAddIn\Include_AddIn_135914\I135914\_IString.h

; 39   : 		m_pIStrData = p_pIString;	// Do not AddRef(). Because It must be Return Value.

  00247	89 45 c4	 mov	 DWORD PTR _szIndicatorName$5[ebp+4], eax

; 40   : 		if( m_pIStrData) m_szData = m_pIStrData->GetData();
; 41   : 		else m_szData = NULL;

  0024a	89 45 c0	 mov	 DWORD PTR _szIndicatorName$5[ebp], eax
; File D:\git\src\IBK\IBK_DRFN\ProjSrc\SrcChartEx\ChartAddIn\ChartEnvSetupDlgAddIn\ChartEnvSetupDlgAddIn\IndicatorNameListCtrl.cpp

; 122  : 	ILPCSTR szGraphName = NULL, szIndicatorName = NULL;

  0024d	c6 45 fc 05	 mov	 BYTE PTR __$EHRec$[ebp+8], 5

; 123  : 	POSITION posGraphName		= ( pGraphNameList ? pGraphNameList->GetHeadPosition() : NULL);

  00251	85 db		 test	 ebx, ebx
  00253	74 09		 je	 SHORT $LN67@Initialize
  00255	8b 03		 mov	 eax, DWORD PTR [ebx]
  00257	8b cb		 mov	 ecx, ebx
  00259	ff 50 34	 call	 DWORD PTR [eax+52]
  0025c	eb 02		 jmp	 SHORT $LN68@Initialize
$LN67@Initialize:
  0025e	33 c0		 xor	 eax, eax
$LN68@Initialize:

; 124  : 	POSITION posIndicatorName	= pIndicatorNameList->GetHeadPosition();

  00260	89 45 bc	 mov	 DWORD PTR _posGraphName$4[ebp], eax
  00263	8b cf		 mov	 ecx, edi
  00265	8b 07		 mov	 eax, DWORD PTR [edi]
  00267	ff 50 34	 call	 DWORD PTR [eax+52]
  0026a	89 45 b8	 mov	 DWORD PTR _posIndicatorName$3[ebp], eax

; 125  : 	while( posIndicatorName)

  0026d	85 c0		 test	 eax, eax
  0026f	0f 84 85 00 00
	00		 je	 $LN103@Initialize
  00275	8b 75 d8	 mov	 esi, DWORD PTR _this$GSCopy$1$[ebp]
$LL61@Initialize:

; 126  : 	{
; 127  : 		if( pGraphNameList && posGraphName) pGraphNameList->GetNext( posGraphName, szGraphName);

  00278	85 db		 test	 ebx, ebx
  0027a	74 15		 je	 SHORT $LN65@Initialize
  0027c	83 7d bc 00	 cmp	 DWORD PTR _posGraphName$4[ebp], 0
  00280	74 0f		 je	 SHORT $LN65@Initialize
  00282	8b 03		 mov	 eax, DWORD PTR [ebx]
  00284	8d 4d c8	 lea	 ecx, DWORD PTR _szGraphName$6[ebp]
  00287	51		 push	 ecx
  00288	8d 4d bc	 lea	 ecx, DWORD PTR _posGraphName$4[ebp]
  0028b	51		 push	 ecx
  0028c	8b cb		 mov	 ecx, ebx
  0028e	ff 50 3c	 call	 DWORD PTR [eax+60]
$LN65@Initialize:

; 128  : 		pIndicatorNameList->GetNext( posIndicatorName, szIndicatorName);

  00291	8b 07		 mov	 eax, DWORD PTR [edi]
  00293	8d 4d c0	 lea	 ecx, DWORD PTR _szIndicatorName$5[ebp]
  00296	51		 push	 ecx
  00297	8d 4d b8	 lea	 ecx, DWORD PTR _posIndicatorName$3[ebp]
  0029a	51		 push	 ecx
  0029b	8b cf		 mov	 ecx, edi
  0029d	ff 50 3c	 call	 DWORD PTR [eax+60]

; 129  : // 2008.01.25 by LYH >>
; 130  : 		//InsertItem(		i,		szIndicatorName);
; 131  : 		InsertItem(		i,		_MTOL2(szIndicatorName));

  002a0	6a 00		 push	 0
  002a2	ff 75 c0	 push	 DWORD PTR _szIndicatorName$5[ebp]
  002a5	b9 00 00 00 00	 mov	 ecx, OFFSET ?g_iMetaTable@@3VIMetaTable@@A ; g_iMetaTable
  002aa	6a 02		 push	 2
  002ac	ff b6 98 00 00
	00		 push	 DWORD PTR [esi+152]
  002b2	e8 00 00 00 00	 call	 ?GetLanguageText@IMetaTable@@QAEPBDPAUHWND__@@W4E_CODEPAGE@1@PBDH@Z ; IMetaTable::GetLanguageText
; File C:\Program Files (x86)\Microsoft Visual Studio\2019\Community\VC\Tools\MSVC\14.29.30133\atlmfc\include\afxcmn.inl

; 165  : 	{ ASSERT(::IsWindow(m_hWnd)); return InsertItem(LVIF_TEXT, nItem, lpszItem, 0, 0, 0, 0); }

  002b7	6a 00		 push	 0
  002b9	6a 00		 push	 0
  002bb	6a 00		 push	 0
  002bd	6a 00		 push	 0
  002bf	50		 push	 eax
  002c0	ff 75 dc	 push	 DWORD PTR _i$1$[ebp]
  002c3	8b ce		 mov	 ecx, esi
  002c5	6a 01		 push	 1
  002c7	e8 00 00 00 00	 call	 ?InsertItem@CListCtrl@@QAEHIHPBDIIHJ@Z ; CListCtrl::InsertItem
; File D:\git\src\IBK\IBK_DRFN\ProjSrc\SrcChartEx\ChartAddIn\ChartEnvSetupDlgAddIn\ChartEnvSetupDlgAddIn\IndicatorNameListCtrl.cpp

; 133  : 		SetItemText(	i, 1,	szGraphName);

  002cc	ff 75 c8	 push	 DWORD PTR _szGraphName$6[ebp]
  002cf	8b ce		 mov	 ecx, esi
  002d1	6a 01		 push	 1
  002d3	ff 75 dc	 push	 DWORD PTR _i$1$[ebp]
  002d6	e8 00 00 00 00	 call	 ?SetItemText@CListCtrl@@QAEHHHPBD@Z ; CListCtrl::SetItemText

; 134  : 		i++;

  002db	ff 45 dc	 inc	 DWORD PTR _i$1$[ebp]
; File D:\git\src\IBK\IBK_DRFN\ProjSrc\SrcChartEx\ChartAddIn\ChartEnvSetupDlgAddIn\Include_AddIn_135914\I135914\_IString.h

; 67   : 		if( m_pIStrData) m_pIStrData->Release();

  002de	8b 4d cc	 mov	 ecx, DWORD PTR _szGraphName$6[ebp+4]
  002e1	85 c9		 test	 ecx, ecx
  002e3	74 06		 je	 SHORT $LN82@Initialize
  002e5	8b 01		 mov	 eax, DWORD PTR [ecx]
  002e7	51		 push	 ecx
  002e8	ff 50 08	 call	 DWORD PTR [eax+8]
$LN82@Initialize:

; 68   : 		m_pIStrData = stringSrc;	// Do not AddRef(). Because It must be Return Value.

  002eb	33 c9		 xor	 ecx, ecx
  002ed	89 4d cc	 mov	 DWORD PTR _szGraphName$6[ebp+4], ecx

; 69   : 		if( m_pIStrData) m_szData = m_pIStrData->GetData();
; 70   : 		else m_szData = NULL;

  002f0	89 4d c8	 mov	 DWORD PTR _szGraphName$6[ebp], ecx
; File D:\git\src\IBK\IBK_DRFN\ProjSrc\SrcChartEx\ChartAddIn\ChartEnvSetupDlgAddIn\ChartEnvSetupDlgAddIn\IndicatorNameListCtrl.cpp

; 125  : 	while( posIndicatorName)

  002f3	39 4d b8	 cmp	 DWORD PTR _posIndicatorName$3[ebp], ecx
  002f6	75 80		 jne	 SHORT $LL61@Initialize
  002f8	eb 03		 jmp	 SHORT $LN62@Initialize
$LN103@Initialize:
  002fa	8b 4d cc	 mov	 ecx, DWORD PTR _szGraphName$6[ebp+4]
$LN62@Initialize:

; 137  : 	return (i > 0);

  002fd	83 7d dc 00	 cmp	 DWORD PTR _i$1$[ebp], 0
  00301	0f 9f c3	 setg	 bl
; File D:\git\src\IBK\IBK_DRFN\ProjSrc\SrcChartEx\ChartAddIn\ChartEnvSetupDlgAddIn\Include_AddIn_135914\I135914\_IString.h

; 45   : 		if( m_pIStrData)

  00304	8b 55 c4	 mov	 edx, DWORD PTR _szIndicatorName$5[ebp+4]
  00307	c6 45 fc 06	 mov	 BYTE PTR __$EHRec$[ebp+8], 6
  0030b	85 d2		 test	 edx, edx
  0030d	74 17		 je	 SHORT $LN87@Initialize

; 46   : 		{
; 47   : 			m_pIStrData->Release();

  0030f	8b 02		 mov	 eax, DWORD PTR [edx]
  00311	52		 push	 edx
  00312	ff 50 08	 call	 DWORD PTR [eax+8]

; 48   : 			m_pIStrData = NULL;
; 49   : 			m_szData = NULL;

  00315	8b 4d cc	 mov	 ecx, DWORD PTR _szGraphName$6[ebp+4]
  00318	c7 45 c4 00 00
	00 00		 mov	 DWORD PTR _szIndicatorName$5[ebp+4], 0
  0031f	c7 45 c0 00 00
	00 00		 mov	 DWORD PTR _szIndicatorName$5[ebp], 0
$LN87@Initialize:

; 44   : 	{

  00326	c7 45 fc 07 00
	00 00		 mov	 DWORD PTR __$EHRec$[ebp+8], 7

; 45   : 		if( m_pIStrData)

  0032d	85 c9		 test	 ecx, ecx
  0032f	74 0a		 je	 SHORT $LN60@Initialize

; 46   : 		{
; 47   : 			m_pIStrData->Release();

  00331	8b 01		 mov	 eax, DWORD PTR [ecx]
  00333	51		 push	 ecx
  00334	ff 50 08	 call	 DWORD PTR [eax+8]
; File D:\git\src\IBK\IBK_DRFN\ProjSrc\SrcChartEx\ChartAddIn\ChartEnvSetupDlgAddIn\ChartEnvSetupDlgAddIn\IndicatorNameListCtrl.cpp

; 137  : 	return (i > 0);

  00337	eb 02		 jmp	 SHORT $LN60@Initialize
$LN64@Initialize:

; 113  : 
; 114  : 	return Initialize( pGraphNameList, pIndicatorNameList);
; 115  : }

  00339	32 db		 xor	 bl, bl
$LN60@Initialize:
  0033b	8a c3		 mov	 al, bl
$LN1@Initialize:
  0033d	8b 4d f4	 mov	 ecx, DWORD PTR __$EHRec$[ebp]
  00340	64 89 0d 00 00
	00 00		 mov	 DWORD PTR fs:0, ecx
  00347	59		 pop	 ecx
  00348	5f		 pop	 edi
  00349	5e		 pop	 esi
  0034a	5b		 pop	 ebx
  0034b	8b 4d f0	 mov	 ecx, DWORD PTR __$ArrayPad$[ebp]
  0034e	33 cd		 xor	 ecx, ebp
  00350	e8 00 00 00 00	 call	 @__security_check_cookie@4
  00355	8b e5		 mov	 esp, ebp
  00357	5d		 pop	 ebp
  00358	c2 0c 00	 ret	 12			; 0000000cH
_TEXT	ENDS
;	COMDAT text$x
text$x	SEGMENT
__unwindfunclet$?Initialize@CIndicatorNameListCtrl@@QAE_NPBDPAUIStringList135914@@1@Z$0:
  00000	8d 4d dc	 lea	 ecx, DWORD PTR $T10[ebp]
  00003	ff 25 00 00 00
	00		 jmp	 DWORD PTR __imp_??1?$CStringT@DV?$StrTraitMFC_DLL@DV?$ChTraitsCRT@D@ATL@@@@@ATL@@QAE@XZ
__unwindfunclet$?Initialize@CIndicatorNameListCtrl@@QAE_NPBDPAUIStringList135914@@1@Z$2:
  00009	8d 4d d0	 lea	 ecx, DWORD PTR _szGraphName$7[ebp]
  0000c	e9 00 00 00 00	 jmp	 ??1ILPCSTR135914@@QAE@XZ ; ILPCSTR135914::~ILPCSTR135914
__unwindfunclet$?Initialize@CIndicatorNameListCtrl@@QAE_NPBDPAUIStringList135914@@1@Z$1:
  00011	8d 4d d4	 lea	 ecx, DWORD PTR $T8[ebp]
  00014	ff 25 00 00 00
	00		 jmp	 DWORD PTR __imp_??1?$CStringT@DV?$StrTraitMFC_DLL@DV?$ChTraitsCRT@D@ATL@@@@@ATL@@QAE@XZ
__unwindfunclet$?Initialize@CIndicatorNameListCtrl@@QAE_NPBDPAUIStringList135914@@1@Z$4:
  0001a	8d 4d c8	 lea	 ecx, DWORD PTR _szGraphName$6[ebp]
  0001d	e9 00 00 00 00	 jmp	 ??1ILPCSTR135914@@QAE@XZ ; ILPCSTR135914::~ILPCSTR135914
__unwindfunclet$?Initialize@CIndicatorNameListCtrl@@QAE_NPBDPAUIStringList135914@@1@Z$5:
  00022	8d 4d c0	 lea	 ecx, DWORD PTR _szIndicatorName$5[ebp]
  00025	e9 00 00 00 00	 jmp	 ??1ILPCSTR135914@@QAE@XZ ; ILPCSTR135914::~ILPCSTR135914
  0002a	cc		 int	 3
  0002b	cc		 int	 3
  0002c	cc		 int	 3
  0002d	cc		 int	 3
  0002e	cc		 int	 3
__ehhandler$?Initialize@CIndicatorNameListCtrl@@QAE_NPBDPAUIStringList135914@@1@Z:
  0002f	90		 npad	 1
  00030	90		 npad	 1
  00031	8b 54 24 08	 mov	 edx, DWORD PTR [esp+8]
  00035	8d 42 0c	 lea	 eax, DWORD PTR [edx+12]
  00038	8b 4a 88	 mov	 ecx, DWORD PTR [edx-120]
  0003b	33 c8		 xor	 ecx, eax
  0003d	e8 00 00 00 00	 call	 @__security_check_cookie@4
  00042	8b 4a fc	 mov	 ecx, DWORD PTR [edx-4]
  00045	33 c8		 xor	 ecx, eax
  00047	e8 00 00 00 00	 call	 @__security_check_cookie@4
  0004c	b8 00 00 00 00	 mov	 eax, OFFSET __ehfuncinfo$?Initialize@CIndicatorNameListCtrl@@QAE_NPBDPAUIStringList135914@@1@Z
  00051	e9 00 00 00 00	 jmp	 ___CxxFrameHandler3
text$x	ENDS
?Initialize@CIndicatorNameListCtrl@@QAE_NPBDPAUIStringList135914@@1@Z ENDP ; CIndicatorNameListCtrl::Initialize
; Function compile flags: /Ogtp
; File D:\git\src\IBK\IBK_DRFN\ProjSrc\SrcChartEx\ChartAddIn\ChartEnvSetupDlgAddIn\ChartEnvSetupDlgAddIn\IndicatorNameListCtrl.cpp
;	COMDAT ?IsDaily@CIndicatorNameListCtrl@@ABE_NW4HORZSCALEDRAWERTYPE@CScaleBaseData@@@Z
_TEXT	SEGMENT
_eTimeType$ = 8						; size = 4
?IsDaily@CIndicatorNameListCtrl@@ABE_NW4HORZSCALEDRAWERTYPE@CScaleBaseData@@@Z PROC ; CIndicatorNameListCtrl::IsDaily, COMDAT
; _this$ = ecx

; 310  : {

  00000	55		 push	 ebp
  00001	8b ec		 mov	 ebp, esp

; 311  : 	return (eTimeType == CScaleBaseData::HORZ_DAILY);

  00003	83 7d 08 01	 cmp	 DWORD PTR _eTimeType$[ebp], 1
  00007	0f 94 c0	 sete	 al

; 312  : }

  0000a	5d		 pop	 ebp
  0000b	c2 04 00	 ret	 4
?IsDaily@CIndicatorNameListCtrl@@ABE_NW4HORZSCALEDRAWERTYPE@CScaleBaseData@@@Z ENDP ; CIndicatorNameListCtrl::IsDaily
_TEXT	ENDS
; Function compile flags: /Ogtp
; File D:\git\src\IBK\IBK_DRFN\ProjSrc\SrcChartEx\ChartAddIn\ChartEnvSetupDlgAddIn\ChartEnvSetupDlgAddIn\IndicatorNameListCtrl.cpp
;	COMDAT ?IsDailyOrTimeOrTick@CIndicatorNameListCtrl@@ABE_NW4HORZSCALEDRAWERTYPE@CScaleBaseData@@@Z
_TEXT	SEGMENT
_eTimeType$ = 8						; size = 4
?IsDailyOrTimeOrTick@CIndicatorNameListCtrl@@ABE_NW4HORZSCALEDRAWERTYPE@CScaleBaseData@@@Z PROC ; CIndicatorNameListCtrl::IsDailyOrTimeOrTick, COMDAT
; _this$ = ecx

; 301  : {

  00000	55		 push	 ebp
  00001	8b ec		 mov	 ebp, esp

; 302  : 	return (eTimeType == CScaleBaseData::HORZ_DAILY || 

  00003	8b 45 08	 mov	 eax, DWORD PTR _eTimeType$[ebp]
  00006	83 f8 01	 cmp	 eax, 1
  00009	74 15		 je	 SHORT $LN3@IsDailyOrT
  0000b	83 f8 04	 cmp	 eax, 4
  0000e	74 10		 je	 SHORT $LN3@IsDailyOrT
  00010	83 f8 06	 cmp	 eax, 6
  00013	74 0b		 je	 SHORT $LN3@IsDailyOrT
  00015	83 f8 05	 cmp	 eax, 5
  00018	74 06		 je	 SHORT $LN3@IsDailyOrT
  0001a	32 c0		 xor	 al, al

; 303  : 			eTimeType == CScaleBaseData::HORZ_TIME_ONE || 
; 304  : 			eTimeType == CScaleBaseData::HORZ_TIME_TWO || 
; 305  : 			eTimeType == CScaleBaseData::HORZ_TICK);
; 306  : }

  0001c	5d		 pop	 ebp
  0001d	c2 04 00	 ret	 4
$LN3@IsDailyOrT:

; 302  : 	return (eTimeType == CScaleBaseData::HORZ_DAILY || 

  00020	b0 01		 mov	 al, 1

; 303  : 			eTimeType == CScaleBaseData::HORZ_TIME_ONE || 
; 304  : 			eTimeType == CScaleBaseData::HORZ_TIME_TWO || 
; 305  : 			eTimeType == CScaleBaseData::HORZ_TICK);
; 306  : }

  00022	5d		 pop	 ebp
  00023	c2 04 00	 ret	 4
?IsDailyOrTimeOrTick@CIndicatorNameListCtrl@@ABE_NW4HORZSCALEDRAWERTYPE@CScaleBaseData@@@Z ENDP ; CIndicatorNameListCtrl::IsDailyOrTimeOrTick
_TEXT	ENDS
; Function compile flags: /Ogtp
; File D:\git\src\IBK\IBK_DRFN\ProjSrc\SrcChartEx\ChartAddIn\ChartEnvSetupDlgAddIn\ChartEnvSetupDlgAddIn\IndicatorNameListCtrl.cpp
;	COMDAT ?IsDailyOrWeekleyOrMonthly@CIndicatorNameListCtrl@@ABE_NW4HORZSCALEDRAWERTYPE@CScaleBaseData@@@Z
_TEXT	SEGMENT
_eTimeType$ = 8						; size = 4
?IsDailyOrWeekleyOrMonthly@CIndicatorNameListCtrl@@ABE_NW4HORZSCALEDRAWERTYPE@CScaleBaseData@@@Z PROC ; CIndicatorNameListCtrl::IsDailyOrWeekleyOrMonthly, COMDAT
; _this$ = ecx

; 293  : {

  00000	55		 push	 ebp
  00001	8b ec		 mov	 ebp, esp

; 294  : 	return (eTimeType == CScaleBaseData::HORZ_DAILY || 

  00003	8b 45 08	 mov	 eax, DWORD PTR _eTimeType$[ebp]
  00006	83 f8 01	 cmp	 eax, 1
  00009	74 10		 je	 SHORT $LN3@IsDailyOrW
  0000b	83 f8 02	 cmp	 eax, 2
  0000e	74 0b		 je	 SHORT $LN3@IsDailyOrW
  00010	83 f8 03	 cmp	 eax, 3
  00013	74 06		 je	 SHORT $LN3@IsDailyOrW
  00015	32 c0		 xor	 al, al

; 295  : 			eTimeType == CScaleBaseData::HORZ_WEEKLEY || 
; 296  : 			eTimeType == CScaleBaseData::HORZ_MONTHLY);
; 297  : }

  00017	5d		 pop	 ebp
  00018	c2 04 00	 ret	 4
$LN3@IsDailyOrW:

; 294  : 	return (eTimeType == CScaleBaseData::HORZ_DAILY || 

  0001b	b0 01		 mov	 al, 1

; 295  : 			eTimeType == CScaleBaseData::HORZ_WEEKLEY || 
; 296  : 			eTimeType == CScaleBaseData::HORZ_MONTHLY);
; 297  : }

  0001d	5d		 pop	 ebp
  0001e	c2 04 00	 ret	 4
?IsDailyOrWeekleyOrMonthly@CIndicatorNameListCtrl@@ABE_NW4HORZSCALEDRAWERTYPE@CScaleBaseData@@@Z ENDP ; CIndicatorNameListCtrl::IsDailyOrWeekleyOrMonthly
_TEXT	ENDS
; Function compile flags: /Ogtp
; File D:\git\src\IBK\IBK_DRFN\ProjSrc\SrcChartEx\ChartAddIn\ChartEnvSetupDlgAddIn\ChartEnvSetupDlgAddIn\IndicatorNameListCtrl.cpp
;	COMDAT ?IsFuturesOrOption@CIndicatorNameListCtrl@@ABE_NW4ICOMMODITY_BOND_NAME@IPacketManager135914@@@Z
_TEXT	SEGMENT
_eBondName$ = 8						; size = 4
?IsFuturesOrOption@CIndicatorNameListCtrl@@ABE_NW4ICOMMODITY_BOND_NAME@IPacketManager135914@@@Z PROC ; CIndicatorNameListCtrl::IsFuturesOrOption, COMDAT
; _this$ = ecx

; 287  : {

  00000	55		 push	 ebp
  00001	8b ec		 mov	 ebp, esp

; 288  : 	return (eBondName == CPacketType::FUTURES || eBondName == CPacketType::OPTION);

  00003	8b 45 08	 mov	 eax, DWORD PTR _eBondName$[ebp]
  00006	83 f8 02	 cmp	 eax, 2
  00009	74 0b		 je	 SHORT $LN3@IsFuturesO
  0000b	83 f8 03	 cmp	 eax, 3
  0000e	74 06		 je	 SHORT $LN3@IsFuturesO
  00010	32 c0		 xor	 al, al

; 289  : }

  00012	5d		 pop	 ebp
  00013	c2 04 00	 ret	 4
$LN3@IsFuturesO:

; 288  : 	return (eBondName == CPacketType::FUTURES || eBondName == CPacketType::OPTION);

  00016	b0 01		 mov	 al, 1

; 289  : }

  00018	5d		 pop	 ebp
  00019	c2 04 00	 ret	 4
?IsFuturesOrOption@CIndicatorNameListCtrl@@ABE_NW4ICOMMODITY_BOND_NAME@IPacketManager135914@@@Z ENDP ; CIndicatorNameListCtrl::IsFuturesOrOption
_TEXT	ENDS
; Function compile flags: /Ogtp
; File D:\git\src\IBK\IBK_DRFN\ProjSrc\SrcChartEx\ChartAddIn\ChartEnvSetupDlgAddIn\ChartEnvSetupDlgAddIn\IndicatorNameListCtrl.cpp
;	COMDAT ?IsStock@CIndicatorNameListCtrl@@ABE_NW4ICOMMODITY_BOND_NAME@IPacketManager135914@@@Z
_TEXT	SEGMENT
_eBondName$ = 8						; size = 4
?IsStock@CIndicatorNameListCtrl@@ABE_NW4ICOMMODITY_BOND_NAME@IPacketManager135914@@@Z PROC ; CIndicatorNameListCtrl::IsStock, COMDAT
; _this$ = ecx

; 281  : {

  00000	55		 push	 ebp
  00001	8b ec		 mov	 ebp, esp

; 282  : 	return (eBondName == CPacketType::STOCK);

  00003	83 7d 08 00	 cmp	 DWORD PTR _eBondName$[ebp], 0
  00007	0f 94 c0	 sete	 al

; 283  : }

  0000a	5d		 pop	 ebp
  0000b	c2 04 00	 ret	 4
?IsStock@CIndicatorNameListCtrl@@ABE_NW4ICOMMODITY_BOND_NAME@IPacketManager135914@@@Z ENDP ; CIndicatorNameListCtrl::IsStock
_TEXT	ENDS
; Function compile flags: /Ogtp
; File D:\git\src\IBK\IBK_DRFN\ProjSrc\SrcChartEx\ChartAddIn\ChartEnvSetupDlgAddIn\ChartEnvSetupDlgAddIn\IndicatorNameListCtrl.cpp
;	COMDAT ?IsAddIndicatorName@CIndicatorNameListCtrl@@AAE_NW4ICOMMODITY_BOND_NAME@IPacketManager135914@@W4HORZSCALEDRAWERTYPE@CScaleBaseData@@PBD@Z
_TEXT	SEGMENT
_this$1$ = -16						; size = 4
__$EHRec$ = -12						; size = 12
_eBondName$ = 8						; size = 4
_eTimeType$ = 12					; size = 4
$T2 = 16						; size = 4
_p_szGraphName$ = 16					; size = 4
?IsAddIndicatorName@CIndicatorNameListCtrl@@AAE_NW4ICOMMODITY_BOND_NAME@IPacketManager135914@@W4HORZSCALEDRAWERTYPE@CScaleBaseData@@PBD@Z PROC ; CIndicatorNameListCtrl::IsAddIndicatorName, COMDAT
; _this$ = ecx

; 246  : {

  00000	55		 push	 ebp
  00001	8b ec		 mov	 ebp, esp
  00003	6a ff		 push	 -1
  00005	68 00 00 00 00	 push	 __ehhandler$?IsAddIndicatorName@CIndicatorNameListCtrl@@AAE_NW4ICOMMODITY_BOND_NAME@IPacketManager135914@@W4HORZSCALEDRAWERTYPE@CScaleBaseData@@PBD@Z
  0000a	64 a1 00 00 00
	00		 mov	 eax, DWORD PTR fs:0
  00010	50		 push	 eax
  00011	51		 push	 ecx
  00012	53		 push	 ebx
  00013	56		 push	 esi
  00014	57		 push	 edi
  00015	a1 00 00 00 00	 mov	 eax, DWORD PTR ___security_cookie
  0001a	33 c5		 xor	 eax, ebp
  0001c	50		 push	 eax
  0001d	8d 45 f4	 lea	 eax, DWORD PTR __$EHRec$[ebp]
  00020	64 a3 00 00 00
	00		 mov	 DWORD PTR fs:0, eax
  00026	89 4d f0	 mov	 DWORD PTR _this$1$[ebp], ecx

; 247  : 	if( !p_szGraphName) return false;

  00029	8b 75 10	 mov	 esi, DWORD PTR _p_szGraphName$[ebp]
  0002c	85 f6		 test	 esi, esi
  0002e	74 45		 je	 SHORT $LN25@IsAddIndic

; 248  : 	if( !*p_szGraphName) return false;

  00030	80 3e 00	 cmp	 BYTE PTR [esi], 0
  00033	74 40		 je	 SHORT $LN25@IsAddIndic

; 249  : 
; 250  : 	if(eBondName == IPacketManager::INONAME) return true;

  00035	8b 7d 08	 mov	 edi, DWORD PTR _eBondName$[ebp]
  00038	83 ff ff	 cmp	 edi, -1
  0003b	0f 84 9f 00 00
	00		 je	 $LN21@IsAddIndic

; 251  : 
; 252  : 	if(CIndiConfigurationDefineData::IsIndicatorNameInStocksDaily(p_szGraphName))

  00041	56		 push	 esi
  00042	8d 4d 10	 lea	 ecx, DWORD PTR $T2[ebp]
  00045	ff 15 00 00 00
	00		 call	 DWORD PTR __imp_??0?$CStringT@DV?$StrTraitMFC_DLL@DV?$ChTraitsCRT@D@ATL@@@@@ATL@@QAE@PBD@Z
  0004b	8d 45 10	 lea	 eax, DWORD PTR $T2[ebp]
  0004e	c7 45 fc 00 00
	00 00		 mov	 DWORD PTR __$EHRec$[ebp+8], 0
  00055	50		 push	 eax
  00056	e8 00 00 00 00	 call	 ?IsIndicatorNameInStocksDaily@CIndiConfigurationDefineData@@SA_NABV?$CStringT@DV?$StrTraitMFC_DLL@DV?$ChTraitsCRT@D@ATL@@@@@ATL@@@Z ; CIndiConfigurationDefineData::IsIndicatorNameInStocksDaily
  0005b	83 c4 04	 add	 esp, 4
  0005e	8d 4d 10	 lea	 ecx, DWORD PTR $T2[ebp]
  00061	8a d8		 mov	 bl, al
  00063	ff 15 00 00 00
	00		 call	 DWORD PTR __imp_??1?$CStringT@DV?$StrTraitMFC_DLL@DV?$ChTraitsCRT@D@ATL@@@@@ATL@@QAE@XZ
  00069	84 db		 test	 bl, bl
  0006b	74 1e		 je	 SHORT $LN5@IsAddIndic

; 282  : 	return (eBondName == CPacketType::STOCK);

  0006d	85 ff		 test	 edi, edi

; 253  : 	{
; 254  : 		if(!IsStock(eBondName))

  0006f	0f 84 c5 00 00
	00		 je	 $LN12@IsAddIndic
$LN25@IsAddIndic:

; 271  : 			return false;
; 272  : 		
; 273  : 		return IsDaily(eTimeType);
; 274  : 	}
; 275  : 
; 276  : 	return true;
; 277  : }

  00075	32 c0		 xor	 al, al
  00077	8b 4d f4	 mov	 ecx, DWORD PTR __$EHRec$[ebp]
  0007a	64 89 0d 00 00
	00 00		 mov	 DWORD PTR fs:0, ecx
  00081	59		 pop	 ecx
  00082	5f		 pop	 edi
  00083	5e		 pop	 esi
  00084	5b		 pop	 ebx
  00085	8b e5		 mov	 esp, ebp
  00087	5d		 pop	 ebp
  00088	c2 0c 00	 ret	 12			; 0000000cH
$LN5@IsAddIndic:

; 255  : 			return false;
; 256  : 		
; 257  : 		return IsDaily(eTimeType);
; 258  : 	}
; 259  : 	// [/  ] -> /, //
; 260  : 	else if( !strcmp( p_szGraphName, CIndiConfigurationDefineData::INDINAME_FO_UNAPPROVAL))

  0008b	8b 0d 00 00 00
	00		 mov	 ecx, DWORD PTR ?INDINAME_FO_UNAPPROVAL@CIndiConfigurationDefineData@@2PBDB ; CIndiConfigurationDefineData::INDINAME_FO_UNAPPROVAL
  00091	8b c6		 mov	 eax, esi
$LL26@IsAddIndic:
  00093	8a 10		 mov	 dl, BYTE PTR [eax]
  00095	3a 11		 cmp	 dl, BYTE PTR [ecx]
  00097	75 1a		 jne	 SHORT $LN27@IsAddIndic
  00099	84 d2		 test	 dl, dl
  0009b	74 12		 je	 SHORT $LN28@IsAddIndic
  0009d	8a 50 01	 mov	 dl, BYTE PTR [eax+1]
  000a0	3a 51 01	 cmp	 dl, BYTE PTR [ecx+1]
  000a3	75 0e		 jne	 SHORT $LN27@IsAddIndic
  000a5	83 c0 02	 add	 eax, 2
  000a8	83 c1 02	 add	 ecx, 2
  000ab	84 d2		 test	 dl, dl
  000ad	75 e4		 jne	 SHORT $LL26@IsAddIndic
$LN28@IsAddIndic:
  000af	33 c0		 xor	 eax, eax
  000b1	eb 05		 jmp	 SHORT $LN29@IsAddIndic
$LN27@IsAddIndic:
  000b3	1b c0		 sbb	 eax, eax
  000b5	83 c8 01	 or	 eax, 1
$LN29@IsAddIndic:
  000b8	85 c0		 test	 eax, eax
  000ba	75 3a		 jne	 SHORT $LN8@IsAddIndic

; 261  : 	{
; 262  : 		if(!IsFuturesOrOption(eBondName))

  000bc	8b 4d f0	 mov	 ecx, DWORD PTR _this$1$[ebp]
  000bf	57		 push	 edi
  000c0	e8 00 00 00 00	 call	 ?IsFuturesOrOption@CIndicatorNameListCtrl@@ABE_NW4ICOMMODITY_BOND_NAME@IPacketManager135914@@@Z ; CIndicatorNameListCtrl::IsFuturesOrOption
  000c5	84 c0		 test	 al, al
  000c7	74 ac		 je	 SHORT $LN25@IsAddIndic

; 302  : 	return (eTimeType == CScaleBaseData::HORZ_DAILY || 

  000c9	8b 45 0c	 mov	 eax, DWORD PTR _eTimeType$[ebp]
  000cc	83 f8 01	 cmp	 eax, 1
  000cf	74 0f		 je	 SHORT $LN21@IsAddIndic
  000d1	83 f8 04	 cmp	 eax, 4
  000d4	74 0a		 je	 SHORT $LN21@IsAddIndic
  000d6	83 f8 06	 cmp	 eax, 6
  000d9	74 05		 je	 SHORT $LN21@IsAddIndic
  000db	83 f8 05	 cmp	 eax, 5
  000de	75 95		 jne	 SHORT $LN25@IsAddIndic
$LN21@IsAddIndic:

; 271  : 			return false;
; 272  : 		
; 273  : 		return IsDaily(eTimeType);
; 274  : 	}
; 275  : 
; 276  : 	return true;
; 277  : }

  000e0	b0 01		 mov	 al, 1
  000e2	8b 4d f4	 mov	 ecx, DWORD PTR __$EHRec$[ebp]
  000e5	64 89 0d 00 00
	00 00		 mov	 DWORD PTR fs:0, ecx
  000ec	59		 pop	 ecx
  000ed	5f		 pop	 edi
  000ee	5e		 pop	 esi
  000ef	5b		 pop	 ebx
  000f0	8b e5		 mov	 esp, ebp
  000f2	5d		 pop	 ebp
  000f3	c2 0c 00	 ret	 12			; 0000000cH
$LN8@IsAddIndic:

; 263  : 			return false;
; 264  : 		
; 265  : 		return IsDailyOrTimeOrTick(eTimeType);
; 266  : 	}
; 267  : 	// [] -> /, 
; 268  : 	else if( !strcmp( p_szGraphName, CIndiConfigurationDefineData::INDINAME_FO_PRICE))

  000f6	a1 00 00 00 00	 mov	 eax, DWORD PTR ?INDINAME_FO_PRICE@CIndiConfigurationDefineData@@2PBDB ; CIndiConfigurationDefineData::INDINAME_FO_PRICE
  000fb	0f 1f 44 00 00	 npad	 5
$LL30@IsAddIndic:
  00100	8a 0e		 mov	 cl, BYTE PTR [esi]
  00102	3a 08		 cmp	 cl, BYTE PTR [eax]
  00104	75 1a		 jne	 SHORT $LN31@IsAddIndic
  00106	84 c9		 test	 cl, cl
  00108	74 12		 je	 SHORT $LN32@IsAddIndic
  0010a	8a 4e 01	 mov	 cl, BYTE PTR [esi+1]
  0010d	3a 48 01	 cmp	 cl, BYTE PTR [eax+1]
  00110	75 0e		 jne	 SHORT $LN31@IsAddIndic
  00112	83 c6 02	 add	 esi, 2
  00115	83 c0 02	 add	 eax, 2
  00118	84 c9		 test	 cl, cl
  0011a	75 e4		 jne	 SHORT $LL30@IsAddIndic
$LN32@IsAddIndic:
  0011c	33 c0		 xor	 eax, eax
  0011e	eb 05		 jmp	 SHORT $LN33@IsAddIndic
$LN31@IsAddIndic:
  00120	1b c0		 sbb	 eax, eax
  00122	83 c8 01	 or	 eax, 1
$LN33@IsAddIndic:
  00125	85 c0		 test	 eax, eax
  00127	75 b7		 jne	 SHORT $LN21@IsAddIndic

; 269  : 	{
; 270  : 		if(!IsFuturesOrOption(eBondName))

  00129	8b 4d f0	 mov	 ecx, DWORD PTR _this$1$[ebp]
  0012c	57		 push	 edi
  0012d	e8 00 00 00 00	 call	 ?IsFuturesOrOption@CIndicatorNameListCtrl@@ABE_NW4ICOMMODITY_BOND_NAME@IPacketManager135914@@@Z ; CIndicatorNameListCtrl::IsFuturesOrOption
  00132	84 c0		 test	 al, al
  00134	0f 84 3b ff ff
	ff		 je	 $LN25@IsAddIndic
$LN12@IsAddIndic:

; 311  : 	return (eTimeType == CScaleBaseData::HORZ_DAILY);

  0013a	83 7d 0c 01	 cmp	 DWORD PTR _eTimeType$[ebp], 1
  0013e	0f 94 c0	 sete	 al

; 271  : 			return false;
; 272  : 		
; 273  : 		return IsDaily(eTimeType);
; 274  : 	}
; 275  : 
; 276  : 	return true;
; 277  : }

  00141	8b 4d f4	 mov	 ecx, DWORD PTR __$EHRec$[ebp]
  00144	64 89 0d 00 00
	00 00		 mov	 DWORD PTR fs:0, ecx
  0014b	59		 pop	 ecx
  0014c	5f		 pop	 edi
  0014d	5e		 pop	 esi
  0014e	5b		 pop	 ebx
  0014f	8b e5		 mov	 esp, ebp
  00151	5d		 pop	 ebp
  00152	c2 0c 00	 ret	 12			; 0000000cH
_TEXT	ENDS
;	COMDAT text$x
text$x	SEGMENT
__unwindfunclet$?IsAddIndicatorName@CIndicatorNameListCtrl@@AAE_NW4ICOMMODITY_BOND_NAME@IPacketManager135914@@W4HORZSCALEDRAWERTYPE@CScaleBaseData@@PBD@Z$0:
  00000	8d 4d 10	 lea	 ecx, DWORD PTR $T2[ebp]
  00003	ff 25 00 00 00
	00		 jmp	 DWORD PTR __imp_??1?$CStringT@DV?$StrTraitMFC_DLL@DV?$ChTraitsCRT@D@ATL@@@@@ATL@@QAE@XZ
  00009	cc		 int	 3
  0000a	cc		 int	 3
  0000b	cc		 int	 3
  0000c	cc		 int	 3
  0000d	cc		 int	 3
__ehhandler$?IsAddIndicatorName@CIndicatorNameListCtrl@@AAE_NW4ICOMMODITY_BOND_NAME@IPacketManager135914@@W4HORZSCALEDRAWERTYPE@CScaleBaseData@@PBD@Z:
  0000e	90		 npad	 1
  0000f	90		 npad	 1
  00010	8b 54 24 08	 mov	 edx, DWORD PTR [esp+8]
  00014	8d 42 0c	 lea	 eax, DWORD PTR [edx+12]
  00017	8b 4a ec	 mov	 ecx, DWORD PTR [edx-20]
  0001a	33 c8		 xor	 ecx, eax
  0001c	e8 00 00 00 00	 call	 @__security_check_cookie@4
  00021	b8 00 00 00 00	 mov	 eax, OFFSET __ehfuncinfo$?IsAddIndicatorName@CIndicatorNameListCtrl@@AAE_NW4ICOMMODITY_BOND_NAME@IPacketManager135914@@W4HORZSCALEDRAWERTYPE@CScaleBaseData@@PBD@Z
  00026	e9 00 00 00 00	 jmp	 ___CxxFrameHandler3
text$x	ENDS
?IsAddIndicatorName@CIndicatorNameListCtrl@@AAE_NW4ICOMMODITY_BOND_NAME@IPacketManager135914@@W4HORZSCALEDRAWERTYPE@CScaleBaseData@@PBD@Z ENDP ; CIndicatorNameListCtrl::IsAddIndicatorName
; Function compile flags: /Ogtp
; File D:\git\src\IBK\IBK_DRFN\ProjSrc\SrcChartEx\ChartAddIn\ChartEnvSetupDlgAddIn\ChartEnvSetupDlgAddIn\IndicatorNameListCtrl.cpp
;	COMDAT ?IsAddIndicatorName@CIndicatorNameListCtrl@@AAE_NXZ
_TEXT	SEGMENT
?IsAddIndicatorName@CIndicatorNameListCtrl@@AAE_NXZ PROC ; CIndicatorNameListCtrl::IsAddIndicatorName, COMDAT
; _this$ = ecx

; 232  : {

  00000	56		 push	 esi
  00001	8b f1		 mov	 esi, ecx
  00003	57		 push	 edi

; 193  : 	if( m_pIPacketManager == NULL)

  00004	8b 8e 94 00 00
	00		 mov	 ecx, DWORD PTR [esi+148]
  0000a	85 c9		 test	 ecx, ecx
  0000c	74 29		 je	 SHORT $LN12@IsAddIndic

; 194  : 		return;
; 195  : 
; 196  : 	eBondName = m_pIPacketManager->GetCommodityBondNameInBase();

  0000e	8b 01		 mov	 eax, DWORD PTR [ecx]
  00010	ff 50 48	 call	 DWORD PTR [eax+72]

; 197  : 	eTimeType = m_pIPacketManager->GetBaseTimeDataType();

  00013	8b 8e 94 00 00
	00		 mov	 ecx, DWORD PTR [esi+148]
  00019	8b f8		 mov	 edi, eax
  0001b	8b 11		 mov	 edx, DWORD PTR [ecx]
  0001d	ff 52 3c	 call	 DWORD PTR [edx+60]

; 233  : 	IPacketManager::ICOMMODITY_BOND_NAME eBondName = IPacketManager::INONAME;
; 234  : 	CScaleBaseData::HORZSCALEDRAWERTYPE eTimeType = CScaleBaseData::HORZ_NOTYPE;
; 235  : 	GetDataInPacket( eBondName, eTimeType);
; 236  : 	if(eBondName == IPacketManager::INONAME) return true;

  00020	83 ff ff	 cmp	 edi, -1
  00023	74 12		 je	 SHORT $LN12@IsAddIndic

; 282  : 	return (eBondName == CPacketType::STOCK);

  00025	85 ff		 test	 edi, edi

; 237  : 
; 238  : 	if(!IsStock(eBondName)) return false;

  00027	74 05		 je	 SHORT $LN3@IsAddIndic
  00029	5f		 pop	 edi
  0002a	32 c0		 xor	 al, al

; 239  : 	
; 240  : 	return IsDaily(eTimeType);
; 241  : }

  0002c	5e		 pop	 esi
  0002d	c3		 ret	 0
$LN3@IsAddIndic:

; 311  : 	return (eTimeType == CScaleBaseData::HORZ_DAILY);

  0002e	83 f8 01	 cmp	 eax, 1
  00031	5f		 pop	 edi
  00032	0f 94 c0	 sete	 al

; 239  : 	
; 240  : 	return IsDaily(eTimeType);
; 241  : }

  00035	5e		 pop	 esi
  00036	c3		 ret	 0
$LN12@IsAddIndic:
  00037	5f		 pop	 edi

; 233  : 	IPacketManager::ICOMMODITY_BOND_NAME eBondName = IPacketManager::INONAME;
; 234  : 	CScaleBaseData::HORZSCALEDRAWERTYPE eTimeType = CScaleBaseData::HORZ_NOTYPE;
; 235  : 	GetDataInPacket( eBondName, eTimeType);
; 236  : 	if(eBondName == IPacketManager::INONAME) return true;

  00038	b0 01		 mov	 al, 1

; 239  : 	
; 240  : 	return IsDaily(eTimeType);
; 241  : }

  0003a	5e		 pop	 esi
  0003b	c3		 ret	 0
?IsAddIndicatorName@CIndicatorNameListCtrl@@AAE_NXZ ENDP ; CIndicatorNameListCtrl::IsAddIndicatorName
_TEXT	ENDS
; Function compile flags: /Ogtp
; File D:\git\src\IBK\IBK_DRFN\ProjSrc\SrcChartEx\ChartAddIn\ChartEnvSetupDlgAddIn\ChartEnvSetupDlgAddIn\IndicatorNameListCtrl.cpp
;	COMDAT ?IsAddIndicatorName_DLL@CIndicatorNameListCtrl@@AAE_NXZ
_TEXT	SEGMENT
_outsideIF$ = -48					; size = 36
__$EHRec$ = -12						; size = 12
?IsAddIndicatorName_DLL@CIndicatorNameListCtrl@@AAE_NXZ PROC ; CIndicatorNameListCtrl::IsAddIndicatorName_DLL, COMDAT
; _this$ = ecx

; 216  : {

  00000	55		 push	 ebp
  00001	8b ec		 mov	 ebp, esp
  00003	6a ff		 push	 -1
  00005	68 00 00 00 00	 push	 __ehhandler$?IsAddIndicatorName_DLL@CIndicatorNameListCtrl@@AAE_NXZ
  0000a	64 a1 00 00 00
	00		 mov	 eax, DWORD PTR fs:0
  00010	50		 push	 eax
  00011	83 ec 24	 sub	 esp, 36			; 00000024H
  00014	53		 push	 ebx
  00015	56		 push	 esi
  00016	a1 00 00 00 00	 mov	 eax, DWORD PTR ___security_cookie
  0001b	33 c5		 xor	 eax, ebp
  0001d	50		 push	 eax
  0001e	8d 45 f4	 lea	 eax, DWORD PTR __$EHRec$[ebp]
  00021	64 a3 00 00 00
	00		 mov	 DWORD PTR fs:0, eax

; 217  : 	if(m_pParent == NULL)

  00027	8b 81 8c 00 00
	00		 mov	 eax, DWORD PTR [ecx+140]
  0002d	85 c0		 test	 eax, eax
  0002f	74 46		 je	 SHORT $LN6@IsAddIndic

; 218  : 		return false;
; 219  : 
; 220  : 	CDlgMainTabIndicatorSetUp* pTabDlg = m_pParent->GetParent();

  00031	8b 70 0c	 mov	 esi, DWORD PTR [eax+12]

; 221  : 	if(pTabDlg == NULL)

  00034	85 f6		 test	 esi, esi
  00036	74 3f		 je	 SHORT $LN6@IsAddIndic

; 223  : 
; 224  : 	COutsideCommonInterfaceFunction outsideIF;

  00038	8d 4d d0	 lea	 ecx, DWORD PTR _outsideIF$[ebp]
  0003b	e8 00 00 00 00	 call	 ??0COutsideCommonInterfaceFunction@@QAE@XZ ; COutsideCommonInterfaceFunction::COutsideCommonInterfaceFunction

; 225  : 	// (2009/9/3 - Seung-Won, Bae) for WorldOn MChartInterface
; 226  : 	pTabDlg->GetMChartInterface( outsideIF);

  00040	8d 45 d0	 lea	 eax, DWORD PTR _outsideIF$[ebp]
  00043	c7 45 fc 00 00
	00 00		 mov	 DWORD PTR __$EHRec$[ebp+8], 0
  0004a	50		 push	 eax
  0004b	8b ce		 mov	 ecx, esi
  0004d	e8 00 00 00 00	 call	 ?GetMChartInterface@CDlgMainTabIndicatorSetUp@@QAEXAAVCOutsideCommonInterfaceFunction@@@Z ; CDlgMainTabIndicatorSetUp::GetMChartInterface

; 227  : 	return outsideIF.Outside_IsLoad_MarketChart();

  00052	8d 4d d0	 lea	 ecx, DWORD PTR _outsideIF$[ebp]
  00055	e8 00 00 00 00	 call	 ?Outside_IsLoad_MarketChart@COutsideCommonInterfaceFunction@@QBE_NXZ ; COutsideCommonInterfaceFunction::Outside_IsLoad_MarketChart
  0005a	8d 4d d0	 lea	 ecx, DWORD PTR _outsideIF$[ebp]
  0005d	8a d8		 mov	 bl, al
  0005f	e8 00 00 00 00	 call	 ??1COutsideCommonInterfaceFunction@@UAE@XZ ; COutsideCommonInterfaceFunction::~COutsideCommonInterfaceFunction
  00064	8a c3		 mov	 al, bl

; 228  : }

  00066	8b 4d f4	 mov	 ecx, DWORD PTR __$EHRec$[ebp]
  00069	64 89 0d 00 00
	00 00		 mov	 DWORD PTR fs:0, ecx
  00070	59		 pop	 ecx
  00071	5e		 pop	 esi
  00072	5b		 pop	 ebx
  00073	8b e5		 mov	 esp, ebp
  00075	5d		 pop	 ebp
  00076	c3		 ret	 0
$LN6@IsAddIndic:

; 222  : 		return false;

  00077	32 c0		 xor	 al, al

; 228  : }

  00079	8b 4d f4	 mov	 ecx, DWORD PTR __$EHRec$[ebp]
  0007c	64 89 0d 00 00
	00 00		 mov	 DWORD PTR fs:0, ecx
  00083	59		 pop	 ecx
  00084	5e		 pop	 esi
  00085	5b		 pop	 ebx
  00086	8b e5		 mov	 esp, ebp
  00088	5d		 pop	 ebp
  00089	c3		 ret	 0
_TEXT	ENDS
;	COMDAT text$x
text$x	SEGMENT
__unwindfunclet$?IsAddIndicatorName_DLL@CIndicatorNameListCtrl@@AAE_NXZ$0:
  00000	8d 4d d0	 lea	 ecx, DWORD PTR _outsideIF$[ebp]
  00003	e9 00 00 00 00	 jmp	 ??1COutsideCommonInterfaceFunction@@UAE@XZ ; COutsideCommonInterfaceFunction::~COutsideCommonInterfaceFunction
  00008	cc		 int	 3
  00009	cc		 int	 3
  0000a	cc		 int	 3
  0000b	cc		 int	 3
  0000c	cc		 int	 3
__ehhandler$?IsAddIndicatorName_DLL@CIndicatorNameListCtrl@@AAE_NXZ:
  0000d	90		 npad	 1
  0000e	90		 npad	 1
  0000f	8b 54 24 08	 mov	 edx, DWORD PTR [esp+8]
  00013	8d 42 0c	 lea	 eax, DWORD PTR [edx+12]
  00016	8b 4a d0	 mov	 ecx, DWORD PTR [edx-48]
  00019	33 c8		 xor	 ecx, eax
  0001b	e8 00 00 00 00	 call	 @__security_check_cookie@4
  00020	b8 00 00 00 00	 mov	 eax, OFFSET __ehfuncinfo$?IsAddIndicatorName_DLL@CIndicatorNameListCtrl@@AAE_NXZ
  00025	e9 00 00 00 00	 jmp	 ___CxxFrameHandler3
text$x	ENDS
?IsAddIndicatorName_DLL@CIndicatorNameListCtrl@@AAE_NXZ ENDP ; CIndicatorNameListCtrl::IsAddIndicatorName_DLL
; Function compile flags: /Ogtp
; File D:\git\src\IBK\IBK_DRFN\ProjSrc\SrcChartEx\ChartAddIn\ChartEnvSetupDlgAddIn\ChartEnvSetupDlgAddIn\IndicatorNameListCtrl.cpp
; File C:\Program Files (x86)\Microsoft Visual Studio\2019\Community\VC\Tools\MSVC\14.29.30133\atlmfc\include\cstringt.h
; File D:\git\src\IBK\IBK_DRFN\ProjSrc\SrcChartEx\ChartAddIn\ChartEnvSetupDlgAddIn\ChartEnvSetupDlgAddIn\IndicatorNameListCtrl.cpp
;	COMDAT ?IsInitialize_PacketTimeType@CIndicatorNameListCtrl@@ABE_NABV?$CStringT@DV?$StrTraitMFC_DLL@DV?$ChTraitsCRT@D@ATL@@@@@ATL@@@Z
_TEXT	SEGMENT
_strGroupName$ = 8					; size = 4
?IsInitialize_PacketTimeType@CIndicatorNameListCtrl@@ABE_NABV?$CStringT@DV?$StrTraitMFC_DLL@DV?$ChTraitsCRT@D@ATL@@@@@ATL@@@Z PROC ; CIndicatorNameListCtrl::IsInitialize_PacketTimeType, COMDAT
; _this$ = ecx

; 207  : {

  00000	55		 push	 ebp
  00001	8b ec		 mov	 ebp, esp
; File C:\Program Files (x86)\Microsoft Visual Studio\2019\Community\VC\Tools\MSVC\14.29.30133\atlmfc\include\cstringt.h

; 2486 : 		return(str1.Compare(psz2) == 0);

  00003	ff 35 00 00 00
	00		 push	 DWORD PTR ?GROUPNAME_INVESTOR@CIndiConfigurationDefineData@@2PBDB ; CIndiConfigurationDefineData::GROUPNAME_INVESTOR
  00009	8b 4d 08	 mov	 ecx, DWORD PTR _strGroupName$[ebp]
  0000c	ff 15 00 00 00
	00		 call	 DWORD PTR __imp_?Compare@?$CStringT@DV?$StrTraitMFC_DLL@DV?$ChTraitsCRT@D@ATL@@@@@ATL@@QBEHPBD@Z
  00012	85 c0		 test	 eax, eax
  00014	0f 94 c0	 sete	 al
; File D:\git\src\IBK\IBK_DRFN\ProjSrc\SrcChartEx\ChartAddIn\ChartEnvSetupDlgAddIn\ChartEnvSetupDlgAddIn\IndicatorNameListCtrl.cpp

; 212  : }

  00017	5d		 pop	 ebp
  00018	c2 04 00	 ret	 4
?IsInitialize_PacketTimeType@CIndicatorNameListCtrl@@ABE_NABV?$CStringT@DV?$StrTraitMFC_DLL@DV?$ChTraitsCRT@D@ATL@@@@@ATL@@@Z ENDP ; CIndicatorNameListCtrl::IsInitialize_PacketTimeType
_TEXT	ENDS
; Function compile flags: /Ogtp
; File D:\git\src\IBK\IBK_DRFN\ProjSrc\SrcChartEx\ChartAddIn\ChartEnvSetupDlgAddIn\ChartEnvSetupDlgAddIn\IndicatorNameListCtrl.cpp
; File C:\Program Files (x86)\Microsoft Visual Studio\2019\Community\VC\Tools\MSVC\14.29.30133\atlmfc\include\cstringt.h
; File D:\git\src\IBK\IBK_DRFN\ProjSrc\SrcChartEx\ChartAddIn\ChartEnvSetupDlgAddIn\ChartEnvSetupDlgAddIn\IndicatorNameListCtrl.cpp
;	COMDAT ?IsInitialize_Market@CIndicatorNameListCtrl@@ABE_NABV?$CStringT@DV?$StrTraitMFC_DLL@DV?$ChTraitsCRT@D@ATL@@@@@ATL@@@Z
_TEXT	SEGMENT
_strGroupName$ = 8					; size = 4
?IsInitialize_Market@CIndicatorNameListCtrl@@ABE_NABV?$CStringT@DV?$StrTraitMFC_DLL@DV?$ChTraitsCRT@D@ATL@@@@@ATL@@@Z PROC ; CIndicatorNameListCtrl::IsInitialize_Market, COMDAT
; _this$ = ecx

; 201  : {

  00000	55		 push	 ebp
  00001	8b ec		 mov	 ebp, esp
; File C:\Program Files (x86)\Microsoft Visual Studio\2019\Community\VC\Tools\MSVC\14.29.30133\atlmfc\include\cstringt.h

; 2486 : 		return(str1.Compare(psz2) == 0);

  00003	ff 35 00 00 00
	00		 push	 DWORD PTR ?GROUPNAME_MARKET@CIndiConfigurationDefineData@@2PBDB ; CIndiConfigurationDefineData::GROUPNAME_MARKET
  00009	8b 4d 08	 mov	 ecx, DWORD PTR _strGroupName$[ebp]
  0000c	ff 15 00 00 00
	00		 call	 DWORD PTR __imp_?Compare@?$CStringT@DV?$StrTraitMFC_DLL@DV?$ChTraitsCRT@D@ATL@@@@@ATL@@QBEHPBD@Z
  00012	85 c0		 test	 eax, eax
  00014	0f 94 c0	 sete	 al
; File D:\git\src\IBK\IBK_DRFN\ProjSrc\SrcChartEx\ChartAddIn\ChartEnvSetupDlgAddIn\ChartEnvSetupDlgAddIn\IndicatorNameListCtrl.cpp

; 204  : }

  00017	5d		 pop	 ebp
  00018	c2 04 00	 ret	 4
?IsInitialize_Market@CIndicatorNameListCtrl@@ABE_NABV?$CStringT@DV?$StrTraitMFC_DLL@DV?$ChTraitsCRT@D@ATL@@@@@ATL@@@Z ENDP ; CIndicatorNameListCtrl::IsInitialize_Market
_TEXT	ENDS
; Function compile flags: /Ogtp
; File D:\git\src\IBK\IBK_DRFN\ProjSrc\SrcChartEx\ChartAddIn\ChartEnvSetupDlgAddIn\ChartEnvSetupDlgAddIn\IndicatorNameListCtrl.cpp
;	COMDAT ?GetDataInPacket@CIndicatorNameListCtrl@@AAEXAAW4ICOMMODITY_BOND_NAME@IPacketManager135914@@AAW4HORZSCALEDRAWERTYPE@CScaleBaseData@@@Z
_TEXT	SEGMENT
_eBondName$ = 8						; size = 4
_eTimeType$ = 12					; size = 4
?GetDataInPacket@CIndicatorNameListCtrl@@AAEXAAW4ICOMMODITY_BOND_NAME@IPacketManager135914@@AAW4HORZSCALEDRAWERTYPE@CScaleBaseData@@@Z PROC ; CIndicatorNameListCtrl::GetDataInPacket, COMDAT
; _this$ = ecx

; 192  : {

  00000	55		 push	 ebp
  00001	8b ec		 mov	 ebp, esp
  00003	56		 push	 esi
  00004	8b f1		 mov	 esi, ecx

; 193  : 	if( m_pIPacketManager == NULL)

  00006	8b 8e 94 00 00
	00		 mov	 ecx, DWORD PTR [esi+148]
  0000c	85 c9		 test	 ecx, ecx
  0000e	74 1a		 je	 SHORT $LN1@GetDataInP

; 194  : 		return;
; 195  : 
; 196  : 	eBondName = m_pIPacketManager->GetCommodityBondNameInBase();

  00010	8b 01		 mov	 eax, DWORD PTR [ecx]
  00012	ff 50 48	 call	 DWORD PTR [eax+72]
  00015	8b 4d 08	 mov	 ecx, DWORD PTR _eBondName$[ebp]
  00018	89 01		 mov	 DWORD PTR [ecx], eax

; 197  : 	eTimeType = m_pIPacketManager->GetBaseTimeDataType();

  0001a	8b 8e 94 00 00
	00		 mov	 ecx, DWORD PTR [esi+148]
  00020	8b 01		 mov	 eax, DWORD PTR [ecx]
  00022	ff 50 3c	 call	 DWORD PTR [eax+60]
  00025	8b 4d 0c	 mov	 ecx, DWORD PTR _eTimeType$[ebp]
  00028	89 01		 mov	 DWORD PTR [ecx], eax
$LN1@GetDataInP:
  0002a	5e		 pop	 esi

; 198  : }

  0002b	5d		 pop	 ebp
  0002c	c2 08 00	 ret	 8
?GetDataInPacket@CIndicatorNameListCtrl@@AAEXAAW4ICOMMODITY_BOND_NAME@IPacketManager135914@@AAW4HORZSCALEDRAWERTYPE@CScaleBaseData@@@Z ENDP ; CIndicatorNameListCtrl::GetDataInPacket
_TEXT	ENDS
; Function compile flags: /Ogtp
; File D:\git\src\IBK\IBK_DRFN\ProjSrc\SrcChartEx\ChartAddIn\ChartEnvSetupDlgAddIn\ChartEnvSetupDlgAddIn\IndicatorNameListCtrl.cpp
; File D:\git\src\IBK\IBK_DRFN\ProjSrc\SrcChartEx\ChartAddIn\ChartEnvSetupDlgAddIn\Include_AddIn_135914\I135914\_IString.h
; File D:\git\src\IBK\IBK_DRFN\ProjSrc\SrcChartEx\ChartAddIn\ChartEnvSetupDlgAddIn\ChartEnvSetupDlgAddIn\IndicatorNameListCtrl.cpp
; File D:\git\src\IBK\IBK_DRFN\ProjSrc\SrcChartEx\ChartAddIn\ChartEnvSetupDlgAddIn\Include_AddIn_135914\I135914\_IString.h
; File D:\git\src\IBK\IBK_DRFN\ProjSrc\SrcChartEx\ChartAddIn\ChartEnvSetupDlgAddIn\ChartEnvSetupDlgAddIn\IndicatorNameListCtrl.cpp
; File C:\Program Files (x86)\Microsoft Visual Studio\2019\Community\VC\Tools\MSVC\14.29.30133\atlmfc\include\afxcmn.inl
; File D:\git\src\IBK\IBK_DRFN\ProjSrc\SrcChartEx\ChartAddIn\ChartEnvSetupDlgAddIn\ChartEnvSetupDlgAddIn\IndicatorNameListCtrl.cpp
;	COMDAT ?Initialize_PacketTimeType@CIndicatorNameListCtrl@@AAE_NPAUIStringList135914@@@Z
_TEXT	SEGMENT
_szGraphName$ = -40					; size = 8
_this$1$ = -32						; size = 4
_pos$ = -28						; size = 4
$T2 = -24						; size = 4
_eTimeType$1$ = -20					; size = 4
_i$1$ = -16						; size = 4
__$EHRec$ = -12						; size = 12
_pList$ = 8						; size = 4
?Initialize_PacketTimeType@CIndicatorNameListCtrl@@AAE_NPAUIStringList135914@@@Z PROC ; CIndicatorNameListCtrl::Initialize_PacketTimeType, COMDAT
; _this$ = ecx

; 143  : {

  00000	55		 push	 ebp
  00001	8b ec		 mov	 ebp, esp
  00003	6a ff		 push	 -1
  00005	68 00 00 00 00	 push	 __ehhandler$?Initialize_PacketTimeType@CIndicatorNameListCtrl@@AAE_NPAUIStringList135914@@@Z
  0000a	64 a1 00 00 00
	00		 mov	 eax, DWORD PTR fs:0
  00010	50		 push	 eax
  00011	83 ec 1c	 sub	 esp, 28			; 0000001cH
  00014	53		 push	 ebx
  00015	56		 push	 esi
  00016	57		 push	 edi
  00017	a1 00 00 00 00	 mov	 eax, DWORD PTR ___security_cookie
  0001c	33 c5		 xor	 eax, ebp
  0001e	50		 push	 eax
  0001f	8d 45 f4	 lea	 eax, DWORD PTR __$EHRec$[ebp]
  00022	64 a3 00 00 00
	00		 mov	 DWORD PTR fs:0, eax
  00028	8b d9		 mov	 ebx, ecx
  0002a	89 5d e0	 mov	 DWORD PTR _this$1$[ebp], ebx

; 144  : 	if(pList == NULL || pList->IsEmpty())

  0002d	8b 75 08	 mov	 esi, DWORD PTR _pList$[ebp]
  00030	85 f6		 test	 esi, esi
  00032	0f 84 c3 01 00
	00		 je	 $LN5@Initialize
  00038	8b 06		 mov	 eax, DWORD PTR [esi]
  0003a	8b ce		 mov	 ecx, esi
  0003c	ff 50 14	 call	 DWORD PTR [eax+20]
  0003f	85 c0		 test	 eax, eax
  00041	0f 85 b4 01 00
	00		 jne	 $LN5@Initialize

; 193  : 	if( m_pIPacketManager == NULL)

  00047	8b 8b 94 00 00
	00		 mov	 ecx, DWORD PTR [ebx+148]

; 146  : 
; 147  : 	IPacketManager::ICOMMODITY_BOND_NAME eBondName = IPacketManager::INONAME;

  0004d	83 cf ff	 or	 edi, -1

; 148  : 	CScaleBaseData::HORZSCALEDRAWERTYPE eTimeType = CScaleBaseData::HORZ_NOTYPE;

  00050	89 45 ec	 mov	 DWORD PTR _eTimeType$1$[ebp], eax

; 193  : 	if( m_pIPacketManager == NULL)

  00053	85 c9		 test	 ecx, ecx
  00055	74 15		 je	 SHORT $LN9@Initialize

; 194  : 		return;
; 195  : 
; 196  : 	eBondName = m_pIPacketManager->GetCommodityBondNameInBase();

  00057	8b 01		 mov	 eax, DWORD PTR [ecx]
  00059	ff 50 48	 call	 DWORD PTR [eax+72]

; 197  : 	eTimeType = m_pIPacketManager->GetBaseTimeDataType();

  0005c	8b 8b 94 00 00
	00		 mov	 ecx, DWORD PTR [ebx+148]
  00062	8b f8		 mov	 edi, eax
  00064	8b 11		 mov	 edx, DWORD PTR [ecx]
  00066	ff 52 3c	 call	 DWORD PTR [edx+60]
  00069	89 45 ec	 mov	 DWORD PTR _eTimeType$1$[ebp], eax
$LN9@Initialize:

; 149  : 	GetDataInPacket( eBondName, eTimeType);
; 150  : 
; 151  : 	int i = 0;

  0006c	33 db		 xor	 ebx, ebx
  0006e	89 5d f0	 mov	 DWORD PTR _i$1$[ebp], ebx
; File D:\git\src\IBK\IBK_DRFN\ProjSrc\SrcChartEx\ChartAddIn\ChartEnvSetupDlgAddIn\Include_AddIn_135914\I135914\_IString.h

; 39   : 		m_pIStrData = p_pIString;	// Do not AddRef(). Because It must be Return Value.

  00071	89 5d dc	 mov	 DWORD PTR _szGraphName$[ebp+4], ebx

; 40   : 		if( m_pIStrData) m_szData = m_pIStrData->GetData();
; 41   : 		else m_szData = NULL;

  00074	89 5d d8	 mov	 DWORD PTR _szGraphName$[ebp], ebx
; File D:\git\src\IBK\IBK_DRFN\ProjSrc\SrcChartEx\ChartAddIn\ChartEnvSetupDlgAddIn\ChartEnvSetupDlgAddIn\IndicatorNameListCtrl.cpp

; 153  : 	POSITION pos = pList->GetHeadPosition();

  00077	8b 16		 mov	 edx, DWORD PTR [esi]
  00079	8b ce		 mov	 ecx, esi
  0007b	89 5d fc	 mov	 DWORD PTR __$EHRec$[ebp+8], ebx
  0007e	ff 52 34	 call	 DWORD PTR [edx+52]
  00081	89 45 e4	 mov	 DWORD PTR _pos$[ebp], eax

; 154  : 	while(pos)

  00084	85 c0		 test	 eax, eax
  00086	0f 84 d6 00 00
	00		 je	 $LN3@Initialize
  0008c	0f 1f 40 00	 npad	 4
$LL2@Initialize:

; 155  : 	{
; 156  : 		pList->GetNext( pos, szGraphName);

  00090	8b 06		 mov	 eax, DWORD PTR [esi]
  00092	8d 4d d8	 lea	 ecx, DWORD PTR _szGraphName$[ebp]
  00095	51		 push	 ecx
  00096	8d 4d e4	 lea	 ecx, DWORD PTR _pos$[ebp]
  00099	51		 push	 ecx
  0009a	8b ce		 mov	 ecx, esi
  0009c	ff 50 3c	 call	 DWORD PTR [eax+60]

; 157  : 		// ///, ////      .
; 158  : 		if(IsAddIndicatorName( eBondName, eTimeType, szGraphName))

  0009f	8b 75 d8	 mov	 esi, DWORD PTR _szGraphName$[ebp]
  000a2	85 f6		 test	 esi, esi

; 247  : 	if( !p_szGraphName) return false;

  000a4	0f 84 ab 00 00
	00		 je	 $LN6@Initialize

; 248  : 	if( !*p_szGraphName) return false;

  000aa	80 3e 00	 cmp	 BYTE PTR [esi], 0
  000ad	0f 84 a2 00 00
	00		 je	 $LN6@Initialize

; 249  : 
; 250  : 	if(eBondName == IPacketManager::INONAME) return true;

  000b3	83 ff ff	 cmp	 edi, -1
  000b6	0f 84 22 01 00
	00		 je	 $LN57@Initialize

; 251  : 
; 252  : 	if(CIndiConfigurationDefineData::IsIndicatorNameInStocksDaily(p_szGraphName))

  000bc	56		 push	 esi
  000bd	8d 4d e8	 lea	 ecx, DWORD PTR $T2[ebp]
  000c0	ff 15 00 00 00
	00		 call	 DWORD PTR __imp_??0?$CStringT@DV?$StrTraitMFC_DLL@DV?$ChTraitsCRT@D@ATL@@@@@ATL@@QAE@PBD@Z
  000c6	8d 45 e8	 lea	 eax, DWORD PTR $T2[ebp]
  000c9	c6 45 fc 01	 mov	 BYTE PTR __$EHRec$[ebp+8], 1
  000cd	50		 push	 eax
  000ce	e8 00 00 00 00	 call	 ?IsIndicatorNameInStocksDaily@CIndiConfigurationDefineData@@SA_NABV?$CStringT@DV?$StrTraitMFC_DLL@DV?$ChTraitsCRT@D@ATL@@@@@ATL@@@Z ; CIndiConfigurationDefineData::IsIndicatorNameInStocksDaily
  000d3	83 c4 04	 add	 esp, 4
  000d6	c6 45 fc 00	 mov	 BYTE PTR __$EHRec$[ebp+8], 0
  000da	8d 4d e8	 lea	 ecx, DWORD PTR $T2[ebp]
  000dd	8a d8		 mov	 bl, al
  000df	ff 15 00 00 00
	00		 call	 DWORD PTR __imp_??1?$CStringT@DV?$StrTraitMFC_DLL@DV?$ChTraitsCRT@D@ATL@@@@@ATL@@QAE@XZ
  000e5	84 db		 test	 bl, bl
  000e7	74 07		 je	 SHORT $LN20@Initialize

; 282  : 	return (eBondName == CPacketType::STOCK);

  000e9	85 ff		 test	 edi, edi

; 257  : 		return IsDaily(eTimeType);

  000eb	e9 d7 00 00 00	 jmp	 $LN75@Initialize
$LN20@Initialize:

; 258  : 	}
; 259  : 	// [/  ] -> /, //
; 260  : 	else if( !strcmp( p_szGraphName, CIndiConfigurationDefineData::INDINAME_FO_UNAPPROVAL))

  000f0	8b 0d 00 00 00
	00		 mov	 ecx, DWORD PTR ?INDINAME_FO_UNAPPROVAL@CIndiConfigurationDefineData@@2PBDB ; CIndiConfigurationDefineData::INDINAME_FO_UNAPPROVAL
  000f6	8b c6		 mov	 eax, esi
$LL60@Initialize:
  000f8	8a 10		 mov	 dl, BYTE PTR [eax]
  000fa	3a 11		 cmp	 dl, BYTE PTR [ecx]
  000fc	75 1a		 jne	 SHORT $LN61@Initialize
  000fe	84 d2		 test	 dl, dl
  00100	74 12		 je	 SHORT $LN62@Initialize
  00102	8a 50 01	 mov	 dl, BYTE PTR [eax+1]
  00105	3a 51 01	 cmp	 dl, BYTE PTR [ecx+1]
  00108	75 0e		 jne	 SHORT $LN61@Initialize
  0010a	83 c0 02	 add	 eax, 2
  0010d	83 c1 02	 add	 ecx, 2
  00110	84 d2		 test	 dl, dl
  00112	75 e4		 jne	 SHORT $LL60@Initialize
$LN62@Initialize:
  00114	33 c0		 xor	 eax, eax
  00116	eb 05		 jmp	 SHORT $LN63@Initialize
$LN61@Initialize:
  00118	1b c0		 sbb	 eax, eax
  0011a	83 c8 01	 or	 eax, 1
$LN63@Initialize:
  0011d	85 c0		 test	 eax, eax
  0011f	75 70		 jne	 SHORT $LN23@Initialize

; 288  : 	return (eBondName == CPacketType::FUTURES || eBondName == CPacketType::OPTION);

  00121	83 ff 02	 cmp	 edi, 2
  00124	74 05		 je	 SHORT $LN25@Initialize
  00126	83 ff 03	 cmp	 edi, 3
  00129	75 27		 jne	 SHORT $LN72@Initialize
$LN25@Initialize:

; 302  : 	return (eTimeType == CScaleBaseData::HORZ_DAILY || 

  0012b	8b 5d ec	 mov	 ebx, DWORD PTR _eTimeType$1$[ebp]
  0012e	83 fb 01	 cmp	 ebx, 1
  00131	0f 84 a1 00 00
	00		 je	 $LN68@Initialize
  00137	83 fb 04	 cmp	 ebx, 4
  0013a	0f 84 98 00 00
	00		 je	 $LN68@Initialize
  00140	83 fb 06	 cmp	 ebx, 6
  00143	0f 84 8f 00 00
	00		 je	 $LN68@Initialize
  00149	83 fb 05	 cmp	 ebx, 5
  0014c	0f 84 86 00 00
	00		 je	 $LN68@Initialize
$LN72@Initialize:

; 154  : 	while(pos)

  00152	8b 5d f0	 mov	 ebx, DWORD PTR _i$1$[ebp]
$LN6@Initialize:
  00155	83 7d e4 00	 cmp	 DWORD PTR _pos$[ebp], 0
  00159	8b 75 08	 mov	 esi, DWORD PTR _pList$[ebp]
  0015c	0f 85 2e ff ff
	ff		 jne	 $LL2@Initialize
$LN3@Initialize:

; 161  : 	return (i > 0);

  00162	85 db		 test	 ebx, ebx
  00164	0f 9f c3	 setg	 bl
; File D:\git\src\IBK\IBK_DRFN\ProjSrc\SrcChartEx\ChartAddIn\ChartEnvSetupDlgAddIn\Include_AddIn_135914\I135914\_IString.h

; 45   : 		if( m_pIStrData)

  00167	8b 55 dc	 mov	 edx, DWORD PTR _szGraphName$[ebp+4]
  0016a	c7 45 fc 02 00
	00 00		 mov	 DWORD PTR __$EHRec$[ebp+8], 2
  00171	85 d2		 test	 edx, edx
  00173	74 06		 je	 SHORT $LN51@Initialize

; 46   : 		{
; 47   : 			m_pIStrData->Release();

  00175	8b 0a		 mov	 ecx, DWORD PTR [edx]
  00177	52		 push	 edx
  00178	ff 51 08	 call	 DWORD PTR [ecx+8]
$LN51@Initialize:
; File D:\git\src\IBK\IBK_DRFN\ProjSrc\SrcChartEx\ChartAddIn\ChartEnvSetupDlgAddIn\ChartEnvSetupDlgAddIn\IndicatorNameListCtrl.cpp

; 161  : 	return (i > 0);

  0017b	8a c3		 mov	 al, bl

; 162  : }

  0017d	8b 4d f4	 mov	 ecx, DWORD PTR __$EHRec$[ebp]
  00180	64 89 0d 00 00
	00 00		 mov	 DWORD PTR fs:0, ecx
  00187	59		 pop	 ecx
  00188	5f		 pop	 edi
  00189	5e		 pop	 esi
  0018a	5b		 pop	 ebx
  0018b	8b e5		 mov	 esp, ebp
  0018d	5d		 pop	 ebp
  0018e	c2 04 00	 ret	 4
$LN23@Initialize:

; 268  : 	else if( !strcmp( p_szGraphName, CIndiConfigurationDefineData::INDINAME_FO_PRICE))

  00191	a1 00 00 00 00	 mov	 eax, DWORD PTR ?INDINAME_FO_PRICE@CIndiConfigurationDefineData@@2PBDB ; CIndiConfigurationDefineData::INDINAME_FO_PRICE
$LL64@Initialize:
  00196	8a 0e		 mov	 cl, BYTE PTR [esi]
  00198	3a 08		 cmp	 cl, BYTE PTR [eax]
  0019a	75 1a		 jne	 SHORT $LN65@Initialize
  0019c	84 c9		 test	 cl, cl
  0019e	74 12		 je	 SHORT $LN66@Initialize
  001a0	8a 4e 01	 mov	 cl, BYTE PTR [esi+1]
  001a3	3a 48 01	 cmp	 cl, BYTE PTR [eax+1]
  001a6	75 0e		 jne	 SHORT $LN65@Initialize
  001a8	83 c6 02	 add	 esi, 2
  001ab	83 c0 02	 add	 eax, 2
  001ae	84 c9		 test	 cl, cl
  001b0	75 e4		 jne	 SHORT $LL64@Initialize
$LN66@Initialize:
  001b2	33 c0		 xor	 eax, eax
  001b4	eb 05		 jmp	 SHORT $LN67@Initialize
$LN65@Initialize:
  001b6	1b c0		 sbb	 eax, eax
  001b8	83 c8 01	 or	 eax, 1
$LN67@Initialize:
  001bb	85 c0		 test	 eax, eax
  001bd	75 19		 jne	 SHORT $LN68@Initialize

; 288  : 	return (eBondName == CPacketType::FUTURES || eBondName == CPacketType::OPTION);

  001bf	83 ff 02	 cmp	 edi, 2
  001c2	74 05		 je	 SHORT $LN27@Initialize
  001c4	83 ff 03	 cmp	 edi, 3
$LN75@Initialize:

; 157  : 		// ///, ////      .
; 158  : 		if(IsAddIndicatorName( eBondName, eTimeType, szGraphName))

  001c7	75 89		 jne	 SHORT $LN72@Initialize
$LN27@Initialize:
  001c9	83 7d ec 01	 cmp	 DWORD PTR _eTimeType$1$[ebp], 1
  001cd	0f 94 c0	 sete	 al
  001d0	84 c0		 test	 al, al
  001d2	0f 84 7a ff ff
	ff		 je	 $LN72@Initialize
$LN68@Initialize:

; 302  : 	return (eTimeType == CScaleBaseData::HORZ_DAILY || 

  001d8	8b 75 d8	 mov	 esi, DWORD PTR _szGraphName$[ebp]
  001db	8b 5d f0	 mov	 ebx, DWORD PTR _i$1$[ebp]
$LN57@Initialize:
; File C:\Program Files (x86)\Microsoft Visual Studio\2019\Community\VC\Tools\MSVC\14.29.30133\atlmfc\include\afxcmn.inl

; 165  : 	{ ASSERT(::IsWindow(m_hWnd)); return InsertItem(LVIF_TEXT, nItem, lpszItem, 0, 0, 0, 0); }

  001de	8b 4d e0	 mov	 ecx, DWORD PTR _this$1$[ebp]
  001e1	6a 00		 push	 0
  001e3	6a 00		 push	 0
  001e5	6a 00		 push	 0
  001e7	6a 00		 push	 0
  001e9	56		 push	 esi
  001ea	53		 push	 ebx
  001eb	6a 01		 push	 1
  001ed	e8 00 00 00 00	 call	 ?InsertItem@CListCtrl@@QAEHIHPBDIIHJ@Z ; CListCtrl::InsertItem
; File D:\git\src\IBK\IBK_DRFN\ProjSrc\SrcChartEx\ChartAddIn\ChartEnvSetupDlgAddIn\ChartEnvSetupDlgAddIn\IndicatorNameListCtrl.cpp

; 159  : 			InsertItem(i++, szGraphName);

  001f2	43		 inc	 ebx
  001f3	89 5d f0	 mov	 DWORD PTR _i$1$[ebp], ebx

; 288  : 	return (eBondName == CPacketType::FUTURES || eBondName == CPacketType::OPTION);

  001f6	e9 5a ff ff ff	 jmp	 $LN6@Initialize
$LN5@Initialize:

; 145  : 		return false;

  001fb	32 c0		 xor	 al, al

; 162  : }

  001fd	8b 4d f4	 mov	 ecx, DWORD PTR __$EHRec$[ebp]
  00200	64 89 0d 00 00
	00 00		 mov	 DWORD PTR fs:0, ecx
  00207	59		 pop	 ecx
  00208	5f		 pop	 edi
  00209	5e		 pop	 esi
  0020a	5b		 pop	 ebx
  0020b	8b e5		 mov	 esp, ebp
  0020d	5d		 pop	 ebp
  0020e	c2 04 00	 ret	 4
_TEXT	ENDS
;	COMDAT text$x
text$x	SEGMENT
__unwindfunclet$?Initialize_PacketTimeType@CIndicatorNameListCtrl@@AAE_NPAUIStringList135914@@@Z$0:
  00000	8d 4d d8	 lea	 ecx, DWORD PTR _szGraphName$[ebp]
  00003	e9 00 00 00 00	 jmp	 ??1ILPCSTR135914@@QAE@XZ ; ILPCSTR135914::~ILPCSTR135914
__unwindfunclet$?Initialize_PacketTimeType@CIndicatorNameListCtrl@@AAE_NPAUIStringList135914@@@Z$1:
  00008	8d 4d e8	 lea	 ecx, DWORD PTR $T2[ebp]
  0000b	ff 25 00 00 00
	00		 jmp	 DWORD PTR __imp_??1?$CStringT@DV?$StrTraitMFC_DLL@DV?$ChTraitsCRT@D@ATL@@@@@ATL@@QAE@XZ
  00011	cc		 int	 3
  00012	cc		 int	 3
  00013	cc		 int	 3
  00014	cc		 int	 3
  00015	cc		 int	 3
__ehhandler$?Initialize_PacketTimeType@CIndicatorNameListCtrl@@AAE_NPAUIStringList135914@@@Z:
  00016	90		 npad	 1
  00017	90		 npad	 1
  00018	8b 54 24 08	 mov	 edx, DWORD PTR [esp+8]
  0001c	8d 42 0c	 lea	 eax, DWORD PTR [edx+12]
  0001f	8b 4a d4	 mov	 ecx, DWORD PTR [edx-44]
  00022	33 c8		 xor	 ecx, eax
  00024	e8 00 00 00 00	 call	 @__security_check_cookie@4
  00029	b8 00 00 00 00	 mov	 eax, OFFSET __ehfuncinfo$?Initialize_PacketTimeType@CIndicatorNameListCtrl@@AAE_NPAUIStringList135914@@@Z
  0002e	e9 00 00 00 00	 jmp	 ___CxxFrameHandler3
text$x	ENDS
?Initialize_PacketTimeType@CIndicatorNameListCtrl@@AAE_NPAUIStringList135914@@@Z ENDP ; CIndicatorNameListCtrl::Initialize_PacketTimeType
; Function compile flags: /Ogtp
; File D:\git\src\IBK\IBK_DRFN\ProjSrc\SrcChartEx\ChartAddIn\ChartEnvSetupDlgAddIn\ChartEnvSetupDlgAddIn\IndicatorNameListCtrl.cpp
; File D:\git\src\IBK\IBK_DRFN\ProjSrc\SrcChartEx\ChartAddIn\ChartEnvSetupDlgAddIn\Include_AddIn_135914\I135914\_IString.h
; File D:\git\src\IBK\IBK_DRFN\ProjSrc\SrcChartEx\ChartAddIn\ChartEnvSetupDlgAddIn\ChartEnvSetupDlgAddIn\IndicatorNameListCtrl.cpp
; File C:\Program Files (x86)\Microsoft Visual Studio\2019\Community\VC\Tools\MSVC\14.29.30133\atlmfc\include\afxcmn.inl
; File D:\git\src\IBK\IBK_DRFN\ProjSrc\SrcChartEx\ChartAddIn\ChartEnvSetupDlgAddIn\ChartEnvSetupDlgAddIn\IndicatorNameListCtrl.cpp
; File D:\git\src\IBK\IBK_DRFN\ProjSrc\SrcChartEx\ChartAddIn\ChartEnvSetupDlgAddIn\Include_AddIn_135914\I135914\_IString.h
; File D:\git\src\IBK\IBK_DRFN\ProjSrc\SrcChartEx\ChartAddIn\ChartEnvSetupDlgAddIn\ChartEnvSetupDlgAddIn\IndicatorNameListCtrl.cpp
;	COMDAT ?Initialize_Market@CIndicatorNameListCtrl@@AAE_NPAUIStringList135914@@@Z
_TEXT	SEGMENT
_szGraphName$ = -20					; size = 8
__$EHRec$ = -12						; size = 12
_pos$ = 8						; size = 4
_pList$ = 8						; size = 4
?Initialize_Market@CIndicatorNameListCtrl@@AAE_NPAUIStringList135914@@@Z PROC ; CIndicatorNameListCtrl::Initialize_Market, COMDAT
; _this$ = ecx

; 167  : {

  00000	55		 push	 ebp
  00001	8b ec		 mov	 ebp, esp
  00003	6a ff		 push	 -1
  00005	68 00 00 00 00	 push	 __ehhandler$?Initialize_Market@CIndicatorNameListCtrl@@AAE_NPAUIStringList135914@@@Z
  0000a	64 a1 00 00 00
	00		 mov	 eax, DWORD PTR fs:0
  00010	50		 push	 eax
  00011	83 ec 08	 sub	 esp, 8
  00014	53		 push	 ebx
  00015	56		 push	 esi
  00016	57		 push	 edi
  00017	a1 00 00 00 00	 mov	 eax, DWORD PTR ___security_cookie
  0001c	33 c5		 xor	 eax, ebp
  0001e	50		 push	 eax
  0001f	8d 45 f4	 lea	 eax, DWORD PTR __$EHRec$[ebp]
  00022	64 a3 00 00 00
	00		 mov	 DWORD PTR fs:0, eax
  00028	8b d9		 mov	 ebx, ecx

; 168  : 	if(pList == NULL || pList->IsEmpty())

  0002a	8b 75 08	 mov	 esi, DWORD PTR _pList$[ebp]
  0002d	85 f6		 test	 esi, esi
  0002f	0f 84 ca 00 00
	00		 je	 $LN5@Initialize
  00035	8b 06		 mov	 eax, DWORD PTR [esi]
  00037	8b ce		 mov	 ecx, esi
  00039	ff 50 14	 call	 DWORD PTR [eax+20]
  0003c	85 c0		 test	 eax, eax
  0003e	0f 85 bb 00 00
	00		 jne	 $LN5@Initialize

; 193  : 	if( m_pIPacketManager == NULL)

  00044	8b 8b 94 00 00
	00		 mov	 ecx, DWORD PTR [ebx+148]
  0004a	85 c9		 test	 ecx, ecx
  0004c	74 28		 je	 SHORT $LN6@Initialize

; 194  : 		return;
; 195  : 
; 196  : 	eBondName = m_pIPacketManager->GetCommodityBondNameInBase();

  0004e	8b 01		 mov	 eax, DWORD PTR [ecx]
  00050	ff 50 48	 call	 DWORD PTR [eax+72]

; 197  : 	eTimeType = m_pIPacketManager->GetBaseTimeDataType();

  00053	8b 8b 94 00 00
	00		 mov	 ecx, DWORD PTR [ebx+148]
  00059	8b f8		 mov	 edi, eax
  0005b	8b 11		 mov	 edx, DWORD PTR [ecx]
  0005d	ff 52 3c	 call	 DWORD PTR [edx+60]

; 236  : 	if(eBondName == IPacketManager::INONAME) return true;

  00060	83 ff ff	 cmp	 edi, -1
  00063	74 11		 je	 SHORT $LN6@Initialize

; 282  : 	return (eBondName == CPacketType::STOCK);

  00065	85 ff		 test	 edi, edi

; 238  : 	if(!IsStock(eBondName)) return false;

  00067	0f 85 92 00 00
	00		 jne	 $LN5@Initialize

; 170  : 
; 171  : // (2009/6/22 - Seung-Won, Bae) Check Market Index.
; 172  : //	Do not check it. It was checked with RMSG_CAN_ADD_MARKET_INDEX.
; 173  : //	// 1.  dll  .
; 174  : //	if( !IsAddIndicatorName_DLL())
; 175  : //		return false;
; 176  : 
; 177  : 	// 2. packet type .
; 178  : 	if( !IsAddIndicatorName()) return false;

  0006d	83 f8 01	 cmp	 eax, 1
  00070	0f 85 89 00 00
	00		 jne	 $LN5@Initialize
$LN6@Initialize:

; 179  : 
; 180  : 	int i = 0;

  00076	33 ff		 xor	 edi, edi
; File D:\git\src\IBK\IBK_DRFN\ProjSrc\SrcChartEx\ChartAddIn\ChartEnvSetupDlgAddIn\Include_AddIn_135914\I135914\_IString.h

; 39   : 		m_pIStrData = p_pIString;	// Do not AddRef(). Because It must be Return Value.

  00078	89 7d f0	 mov	 DWORD PTR _szGraphName$[ebp+4], edi

; 40   : 		if( m_pIStrData) m_szData = m_pIStrData->GetData();
; 41   : 		else m_szData = NULL;

  0007b	89 7d ec	 mov	 DWORD PTR _szGraphName$[ebp], edi
; File D:\git\src\IBK\IBK_DRFN\ProjSrc\SrcChartEx\ChartAddIn\ChartEnvSetupDlgAddIn\ChartEnvSetupDlgAddIn\IndicatorNameListCtrl.cpp

; 182  : 	POSITION pos = pList->GetHeadPosition();

  0007e	8b 06		 mov	 eax, DWORD PTR [esi]
  00080	8b ce		 mov	 ecx, esi
  00082	89 7d fc	 mov	 DWORD PTR __$EHRec$[ebp+8], edi
  00085	ff 50 34	 call	 DWORD PTR [eax+52]
  00088	89 45 08	 mov	 DWORD PTR _pos$[ebp], eax

; 183  : 	while(pos)

  0008b	85 c0		 test	 eax, eax
  0008d	74 41		 je	 SHORT $LN3@Initialize
  0008f	90		 npad	 1
$LL2@Initialize:

; 184  : 	{
; 185  : 		pList->GetNext(pos, szGraphName);

  00090	8b 06		 mov	 eax, DWORD PTR [esi]
  00092	8d 4d ec	 lea	 ecx, DWORD PTR _szGraphName$[ebp]
  00095	51		 push	 ecx
  00096	8d 4d 08	 lea	 ecx, DWORD PTR _pos$[ebp]
  00099	51		 push	 ecx
  0009a	8b ce		 mov	 ecx, esi
  0009c	ff 50 3c	 call	 DWORD PTR [eax+60]

; 186  : 		InsertItem(i++, _MTOL2( szGraphName));

  0009f	6a 00		 push	 0
  000a1	ff 75 ec	 push	 DWORD PTR _szGraphName$[ebp]
  000a4	b9 00 00 00 00	 mov	 ecx, OFFSET ?g_iMetaTable@@3VIMetaTable@@A ; g_iMetaTable
  000a9	6a 02		 push	 2
  000ab	ff b3 98 00 00
	00		 push	 DWORD PTR [ebx+152]
  000b1	e8 00 00 00 00	 call	 ?GetLanguageText@IMetaTable@@QAEPBDPAUHWND__@@W4E_CODEPAGE@1@PBDH@Z ; IMetaTable::GetLanguageText
; File C:\Program Files (x86)\Microsoft Visual Studio\2019\Community\VC\Tools\MSVC\14.29.30133\atlmfc\include\afxcmn.inl

; 165  : 	{ ASSERT(::IsWindow(m_hWnd)); return InsertItem(LVIF_TEXT, nItem, lpszItem, 0, 0, 0, 0); }

  000b6	6a 00		 push	 0
  000b8	6a 00		 push	 0
  000ba	6a 00		 push	 0
  000bc	6a 00		 push	 0
  000be	50		 push	 eax
  000bf	57		 push	 edi
  000c0	6a 01		 push	 1
  000c2	8b cb		 mov	 ecx, ebx
  000c4	e8 00 00 00 00	 call	 ?InsertItem@CListCtrl@@QAEHIHPBDIIHJ@Z ; CListCtrl::InsertItem
; File D:\git\src\IBK\IBK_DRFN\ProjSrc\SrcChartEx\ChartAddIn\ChartEnvSetupDlgAddIn\ChartEnvSetupDlgAddIn\IndicatorNameListCtrl.cpp

; 186  : 		InsertItem(i++, _MTOL2( szGraphName));

  000c9	47		 inc	 edi
  000ca	83 7d 08 00	 cmp	 DWORD PTR _pos$[ebp], 0
  000ce	75 c0		 jne	 SHORT $LL2@Initialize
$LN3@Initialize:

; 188  : 	return (i > 0);

  000d0	85 ff		 test	 edi, edi
  000d2	0f 9f c3	 setg	 bl
; File D:\git\src\IBK\IBK_DRFN\ProjSrc\SrcChartEx\ChartAddIn\ChartEnvSetupDlgAddIn\Include_AddIn_135914\I135914\_IString.h

; 45   : 		if( m_pIStrData)

  000d5	8b 55 f0	 mov	 edx, DWORD PTR _szGraphName$[ebp+4]
  000d8	c7 45 fc 01 00
	00 00		 mov	 DWORD PTR __$EHRec$[ebp+8], 1
  000df	85 d2		 test	 edx, edx
  000e1	74 06		 je	 SHORT $LN27@Initialize

; 46   : 		{
; 47   : 			m_pIStrData->Release();

  000e3	8b 0a		 mov	 ecx, DWORD PTR [edx]
  000e5	52		 push	 edx
  000e6	ff 51 08	 call	 DWORD PTR [ecx+8]
$LN27@Initialize:
; File D:\git\src\IBK\IBK_DRFN\ProjSrc\SrcChartEx\ChartAddIn\ChartEnvSetupDlgAddIn\ChartEnvSetupDlgAddIn\IndicatorNameListCtrl.cpp

; 188  : 	return (i > 0);

  000e9	8a c3		 mov	 al, bl

; 189  : }

  000eb	8b 4d f4	 mov	 ecx, DWORD PTR __$EHRec$[ebp]
  000ee	64 89 0d 00 00
	00 00		 mov	 DWORD PTR fs:0, ecx
  000f5	59		 pop	 ecx
  000f6	5f		 pop	 edi
  000f7	5e		 pop	 esi
  000f8	5b		 pop	 ebx
  000f9	8b e5		 mov	 esp, ebp
  000fb	5d		 pop	 ebp
  000fc	c2 04 00	 ret	 4
$LN5@Initialize:

; 169  : 		return false;

  000ff	32 c0		 xor	 al, al

; 189  : }

  00101	8b 4d f4	 mov	 ecx, DWORD PTR __$EHRec$[ebp]
  00104	64 89 0d 00 00
	00 00		 mov	 DWORD PTR fs:0, ecx
  0010b	59		 pop	 ecx
  0010c	5f		 pop	 edi
  0010d	5e		 pop	 esi
  0010e	5b		 pop	 ebx
  0010f	8b e5		 mov	 esp, ebp
  00111	5d		 pop	 ebp
  00112	c2 04 00	 ret	 4
_TEXT	ENDS
;	COMDAT text$x
text$x	SEGMENT
__unwindfunclet$?Initialize_Market@CIndicatorNameListCtrl@@AAE_NPAUIStringList135914@@@Z$0:
  00000	8d 4d ec	 lea	 ecx, DWORD PTR _szGraphName$[ebp]
  00003	e9 00 00 00 00	 jmp	 ??1ILPCSTR135914@@QAE@XZ ; ILPCSTR135914::~ILPCSTR135914
  00008	cc		 int	 3
  00009	cc		 int	 3
  0000a	cc		 int	 3
  0000b	cc		 int	 3
  0000c	cc		 int	 3
__ehhandler$?Initialize_Market@CIndicatorNameListCtrl@@AAE_NPAUIStringList135914@@@Z:
  0000d	90		 npad	 1
  0000e	90		 npad	 1
  0000f	8b 54 24 08	 mov	 edx, DWORD PTR [esp+8]
  00013	8d 42 0c	 lea	 eax, DWORD PTR [edx+12]
  00016	8b 4a e8	 mov	 ecx, DWORD PTR [edx-24]
  00019	33 c8		 xor	 ecx, eax
  0001b	e8 00 00 00 00	 call	 @__security_check_cookie@4
  00020	b8 00 00 00 00	 mov	 eax, OFFSET __ehfuncinfo$?Initialize_Market@CIndicatorNameListCtrl@@AAE_NPAUIStringList135914@@@Z
  00025	e9 00 00 00 00	 jmp	 ___CxxFrameHandler3
text$x	ENDS
?Initialize_Market@CIndicatorNameListCtrl@@AAE_NPAUIStringList135914@@@Z ENDP ; CIndicatorNameListCtrl::Initialize_Market
; Function compile flags: /Ogtp
; File D:\git\src\IBK\IBK_DRFN\ProjSrc\SrcChartEx\ChartAddIn\ChartEnvSetupDlgAddIn\ChartEnvSetupDlgAddIn\IndicatorNameListCtrl.cpp
; File D:\git\src\IBK\IBK_DRFN\ProjSrc\SrcChartEx\ChartAddIn\ChartEnvSetupDlgAddIn\Include_AddIn_135914\I135914\_IString.h
; File D:\git\src\IBK\IBK_DRFN\ProjSrc\SrcChartEx\ChartAddIn\ChartEnvSetupDlgAddIn\ChartEnvSetupDlgAddIn\IndicatorNameListCtrl.cpp
; File D:\git\src\IBK\IBK_DRFN\ProjSrc\SrcChartEx\ChartAddIn\ChartEnvSetupDlgAddIn\Include_AddIn_135914\I135914\_IString.h
; File D:\git\src\IBK\IBK_DRFN\ProjSrc\SrcChartEx\ChartAddIn\ChartEnvSetupDlgAddIn\ChartEnvSetupDlgAddIn\IndicatorNameListCtrl.cpp
; File C:\Program Files (x86)\Microsoft Visual Studio\2019\Community\VC\Tools\MSVC\14.29.30133\atlmfc\include\afxcmn.inl
; File D:\git\src\IBK\IBK_DRFN\ProjSrc\SrcChartEx\ChartAddIn\ChartEnvSetupDlgAddIn\ChartEnvSetupDlgAddIn\IndicatorNameListCtrl.cpp
; File D:\git\src\IBK\IBK_DRFN\ProjSrc\SrcChartEx\ChartAddIn\ChartEnvSetupDlgAddIn\Include_AddIn_135914\I135914\_IString.h
; File D:\git\src\IBK\IBK_DRFN\ProjSrc\SrcChartEx\ChartAddIn\ChartEnvSetupDlgAddIn\ChartEnvSetupDlgAddIn\IndicatorNameListCtrl.cpp
; File D:\git\src\IBK\IBK_DRFN\ProjSrc\SrcChartEx\ChartAddIn\ChartEnvSetupDlgAddIn\Include_AddIn_135914\I135914\_IString.h
; File D:\git\src\IBK\IBK_DRFN\ProjSrc\SrcChartEx\ChartAddIn\ChartEnvSetupDlgAddIn\ChartEnvSetupDlgAddIn\IndicatorNameListCtrl.cpp
; File D:\git\src\IBK\IBK_DRFN\ProjSrc\SrcChartEx\ChartAddIn\ChartEnvSetupDlgAddIn\Include_AddIn_135914\I135914\_IString.h
; File D:\git\src\IBK\IBK_DRFN\ProjSrc\SrcChartEx\ChartAddIn\ChartEnvSetupDlgAddIn\ChartEnvSetupDlgAddIn\IndicatorNameListCtrl.cpp
;	COMDAT ?Initialize@CIndicatorNameListCtrl@@AAE_NPAUIStringList135914@@0@Z
_TEXT	SEGMENT
_szIndicatorName$ = -36					; size = 8
_szGraphName$ = -28					; size = 8
_posIndicatorName$ = -20				; size = 4
_this$1$ = -16						; size = 4
__$EHRec$ = -12						; size = 12
_pGraphNameList$ = 8					; size = 4
_posGraphName$ = 12					; size = 4
_pIndicatorNameList$ = 12				; size = 4
?Initialize@CIndicatorNameListCtrl@@AAE_NPAUIStringList135914@@0@Z PROC ; CIndicatorNameListCtrl::Initialize, COMDAT
; _this$ = ecx

; 118  : {

  00000	55		 push	 ebp
  00001	8b ec		 mov	 ebp, esp
  00003	6a ff		 push	 -1
  00005	68 00 00 00 00	 push	 __ehhandler$?Initialize@CIndicatorNameListCtrl@@AAE_NPAUIStringList135914@@0@Z
  0000a	64 a1 00 00 00
	00		 mov	 eax, DWORD PTR fs:0
  00010	50		 push	 eax
  00011	83 ec 18	 sub	 esp, 24			; 00000018H
  00014	53		 push	 ebx
  00015	56		 push	 esi
  00016	57		 push	 edi
  00017	a1 00 00 00 00	 mov	 eax, DWORD PTR ___security_cookie
  0001c	33 c5		 xor	 eax, ebp
  0001e	50		 push	 eax
  0001f	8d 45 f4	 lea	 eax, DWORD PTR __$EHRec$[ebp]
  00022	64 a3 00 00 00
	00		 mov	 DWORD PTR fs:0, eax
  00028	89 4d f0	 mov	 DWORD PTR _this$1$[ebp], ecx

; 119  : 	if( pIndicatorNameList == NULL || pIndicatorNameList->IsEmpty()) return false;

  0002b	8b 7d 0c	 mov	 edi, DWORD PTR _pIndicatorNameList$[ebp]
  0002e	85 ff		 test	 edi, edi
  00030	0f 84 1d 01 00
	00		 je	 $LN5@Initialize
  00036	8b 07		 mov	 eax, DWORD PTR [edi]
  00038	8b cf		 mov	 ecx, edi
  0003a	ff 50 14	 call	 DWORD PTR [eax+20]
  0003d	85 c0		 test	 eax, eax
  0003f	0f 85 0e 01 00
	00		 jne	 $LN5@Initialize

; 120  : 
; 121  : 	int i = 0;

  00045	33 db		 xor	 ebx, ebx
; File D:\git\src\IBK\IBK_DRFN\ProjSrc\SrcChartEx\ChartAddIn\ChartEnvSetupDlgAddIn\Include_AddIn_135914\I135914\_IString.h

; 39   : 		m_pIStrData = p_pIString;	// Do not AddRef(). Because It must be Return Value.

  00047	89 5d e8	 mov	 DWORD PTR _szGraphName$[ebp+4], ebx

; 40   : 		if( m_pIStrData) m_szData = m_pIStrData->GetData();
; 41   : 		else m_szData = NULL;

  0004a	89 5d e4	 mov	 DWORD PTR _szGraphName$[ebp], ebx
; File D:\git\src\IBK\IBK_DRFN\ProjSrc\SrcChartEx\ChartAddIn\ChartEnvSetupDlgAddIn\ChartEnvSetupDlgAddIn\IndicatorNameListCtrl.cpp

; 122  : 	ILPCSTR szGraphName = NULL, szIndicatorName = NULL;

  0004d	89 5d fc	 mov	 DWORD PTR __$EHRec$[ebp+8], ebx
; File D:\git\src\IBK\IBK_DRFN\ProjSrc\SrcChartEx\ChartAddIn\ChartEnvSetupDlgAddIn\Include_AddIn_135914\I135914\_IString.h

; 39   : 		m_pIStrData = p_pIString;	// Do not AddRef(). Because It must be Return Value.

  00050	89 5d e0	 mov	 DWORD PTR _szIndicatorName$[ebp+4], ebx

; 40   : 		if( m_pIStrData) m_szData = m_pIStrData->GetData();
; 41   : 		else m_szData = NULL;

  00053	89 5d dc	 mov	 DWORD PTR _szIndicatorName$[ebp], ebx
; File D:\git\src\IBK\IBK_DRFN\ProjSrc\SrcChartEx\ChartAddIn\ChartEnvSetupDlgAddIn\ChartEnvSetupDlgAddIn\IndicatorNameListCtrl.cpp

; 123  : 	POSITION posGraphName		= ( pGraphNameList ? pGraphNameList->GetHeadPosition() : NULL);

  00056	8b 75 08	 mov	 esi, DWORD PTR _pGraphNameList$[ebp]
  00059	c6 45 fc 01	 mov	 BYTE PTR __$EHRec$[ebp+8], 1
  0005d	85 f6		 test	 esi, esi
  0005f	74 09		 je	 SHORT $LN8@Initialize
  00061	8b 06		 mov	 eax, DWORD PTR [esi]
  00063	8b ce		 mov	 ecx, esi
  00065	ff 50 34	 call	 DWORD PTR [eax+52]
  00068	eb 02		 jmp	 SHORT $LN9@Initialize
$LN8@Initialize:
  0006a	33 c0		 xor	 eax, eax
$LN9@Initialize:

; 124  : 	POSITION posIndicatorName	= pIndicatorNameList->GetHeadPosition();

  0006c	89 45 0c	 mov	 DWORD PTR _posGraphName$[ebp], eax
  0006f	8b cf		 mov	 ecx, edi
  00071	8b 07		 mov	 eax, DWORD PTR [edi]
  00073	ff 50 34	 call	 DWORD PTR [eax+52]
  00076	89 45 ec	 mov	 DWORD PTR _posIndicatorName$[ebp], eax

; 125  : 	while( posIndicatorName)

  00079	85 c0		 test	 eax, eax
  0007b	0f 84 81 00 00
	00		 je	 $LN38@Initialize
$LL2@Initialize:

; 126  : 	{
; 127  : 		if( pGraphNameList && posGraphName) pGraphNameList->GetNext( posGraphName, szGraphName);

  00081	85 f6		 test	 esi, esi
  00083	74 15		 je	 SHORT $LN6@Initialize
  00085	83 7d 0c 00	 cmp	 DWORD PTR _posGraphName$[ebp], 0
  00089	74 0f		 je	 SHORT $LN6@Initialize
  0008b	8b 06		 mov	 eax, DWORD PTR [esi]
  0008d	8d 4d e4	 lea	 ecx, DWORD PTR _szGraphName$[ebp]
  00090	51		 push	 ecx
  00091	8d 4d 0c	 lea	 ecx, DWORD PTR _posGraphName$[ebp]
  00094	51		 push	 ecx
  00095	8b ce		 mov	 ecx, esi
  00097	ff 50 3c	 call	 DWORD PTR [eax+60]
$LN6@Initialize:

; 128  : 		pIndicatorNameList->GetNext( posIndicatorName, szIndicatorName);

  0009a	8b 07		 mov	 eax, DWORD PTR [edi]
  0009c	8d 4d dc	 lea	 ecx, DWORD PTR _szIndicatorName$[ebp]
  0009f	51		 push	 ecx
  000a0	8d 4d ec	 lea	 ecx, DWORD PTR _posIndicatorName$[ebp]
  000a3	51		 push	 ecx
  000a4	8b cf		 mov	 ecx, edi
  000a6	ff 50 3c	 call	 DWORD PTR [eax+60]

; 129  : // 2008.01.25 by LYH >>
; 130  : 		//InsertItem(		i,		szIndicatorName);
; 131  : 		InsertItem(		i,		_MTOL2(szIndicatorName));

  000a9	8b 45 f0	 mov	 eax, DWORD PTR _this$1$[ebp]
  000ac	b9 00 00 00 00	 mov	 ecx, OFFSET ?g_iMetaTable@@3VIMetaTable@@A ; g_iMetaTable
  000b1	6a 00		 push	 0
  000b3	ff 75 dc	 push	 DWORD PTR _szIndicatorName$[ebp]
  000b6	6a 02		 push	 2
  000b8	ff b0 98 00 00
	00		 push	 DWORD PTR [eax+152]
  000be	e8 00 00 00 00	 call	 ?GetLanguageText@IMetaTable@@QAEPBDPAUHWND__@@W4E_CODEPAGE@1@PBDH@Z ; IMetaTable::GetLanguageText
; File C:\Program Files (x86)\Microsoft Visual Studio\2019\Community\VC\Tools\MSVC\14.29.30133\atlmfc\include\afxcmn.inl

; 165  : 	{ ASSERT(::IsWindow(m_hWnd)); return InsertItem(LVIF_TEXT, nItem, lpszItem, 0, 0, 0, 0); }

  000c3	8b 4d f0	 mov	 ecx, DWORD PTR _this$1$[ebp]
  000c6	6a 00		 push	 0
  000c8	6a 00		 push	 0
  000ca	6a 00		 push	 0
  000cc	6a 00		 push	 0
  000ce	50		 push	 eax
  000cf	53		 push	 ebx
  000d0	6a 01		 push	 1
  000d2	e8 00 00 00 00	 call	 ?InsertItem@CListCtrl@@QAEHIHPBDIIHJ@Z ; CListCtrl::InsertItem
; File D:\git\src\IBK\IBK_DRFN\ProjSrc\SrcChartEx\ChartAddIn\ChartEnvSetupDlgAddIn\ChartEnvSetupDlgAddIn\IndicatorNameListCtrl.cpp

; 133  : 		SetItemText(	i, 1,	szGraphName);

  000d7	ff 75 e4	 push	 DWORD PTR _szGraphName$[ebp]
  000da	8b 4d f0	 mov	 ecx, DWORD PTR _this$1$[ebp]
  000dd	6a 01		 push	 1
  000df	53		 push	 ebx
  000e0	e8 00 00 00 00	 call	 ?SetItemText@CListCtrl@@QAEHHHPBD@Z ; CListCtrl::SetItemText
; File D:\git\src\IBK\IBK_DRFN\ProjSrc\SrcChartEx\ChartAddIn\ChartEnvSetupDlgAddIn\Include_AddIn_135914\I135914\_IString.h

; 67   : 		if( m_pIStrData) m_pIStrData->Release();

  000e5	8b 4d e8	 mov	 ecx, DWORD PTR _szGraphName$[ebp+4]
; File D:\git\src\IBK\IBK_DRFN\ProjSrc\SrcChartEx\ChartAddIn\ChartEnvSetupDlgAddIn\ChartEnvSetupDlgAddIn\IndicatorNameListCtrl.cpp

; 134  : 		i++;

  000e8	43		 inc	 ebx
; File D:\git\src\IBK\IBK_DRFN\ProjSrc\SrcChartEx\ChartAddIn\ChartEnvSetupDlgAddIn\Include_AddIn_135914\I135914\_IString.h

; 67   : 		if( m_pIStrData) m_pIStrData->Release();

  000e9	85 c9		 test	 ecx, ecx
  000eb	74 06		 je	 SHORT $LN23@Initialize
  000ed	8b 01		 mov	 eax, DWORD PTR [ecx]
  000ef	51		 push	 ecx
  000f0	ff 50 08	 call	 DWORD PTR [eax+8]
$LN23@Initialize:

; 68   : 		m_pIStrData = stringSrc;	// Do not AddRef(). Because It must be Return Value.

  000f3	33 c0		 xor	 eax, eax
  000f5	89 45 e8	 mov	 DWORD PTR _szGraphName$[ebp+4], eax

; 69   : 		if( m_pIStrData) m_szData = m_pIStrData->GetData();
; 70   : 		else m_szData = NULL;

  000f8	89 45 e4	 mov	 DWORD PTR _szGraphName$[ebp], eax
; File D:\git\src\IBK\IBK_DRFN\ProjSrc\SrcChartEx\ChartAddIn\ChartEnvSetupDlgAddIn\ChartEnvSetupDlgAddIn\IndicatorNameListCtrl.cpp

; 125  : 	while( posIndicatorName)

  000fb	39 45 ec	 cmp	 DWORD PTR _posIndicatorName$[ebp], eax
  000fe	75 81		 jne	 SHORT $LL2@Initialize
  00100	eb 03		 jmp	 SHORT $LN3@Initialize
$LN38@Initialize:
  00102	8b 45 e8	 mov	 eax, DWORD PTR _szGraphName$[ebp+4]
$LN3@Initialize:

; 137  : 	return (i > 0);

  00105	85 db		 test	 ebx, ebx
  00107	0f 9f c3	 setg	 bl
; File D:\git\src\IBK\IBK_DRFN\ProjSrc\SrcChartEx\ChartAddIn\ChartEnvSetupDlgAddIn\Include_AddIn_135914\I135914\_IString.h

; 45   : 		if( m_pIStrData)

  0010a	8b 4d e0	 mov	 ecx, DWORD PTR _szIndicatorName$[ebp+4]
  0010d	c6 45 fc 02	 mov	 BYTE PTR __$EHRec$[ebp+8], 2
  00111	85 c9		 test	 ecx, ecx
  00113	74 17		 je	 SHORT $LN28@Initialize

; 46   : 		{
; 47   : 			m_pIStrData->Release();

  00115	8b 01		 mov	 eax, DWORD PTR [ecx]
  00117	51		 push	 ecx
  00118	ff 50 08	 call	 DWORD PTR [eax+8]

; 48   : 			m_pIStrData = NULL;
; 49   : 			m_szData = NULL;

  0011b	8b 45 e8	 mov	 eax, DWORD PTR _szGraphName$[ebp+4]
  0011e	c7 45 e0 00 00
	00 00		 mov	 DWORD PTR _szIndicatorName$[ebp+4], 0
  00125	c7 45 dc 00 00
	00 00		 mov	 DWORD PTR _szIndicatorName$[ebp], 0
$LN28@Initialize:

; 44   : 	{

  0012c	c7 45 fc 03 00
	00 00		 mov	 DWORD PTR __$EHRec$[ebp+8], 3

; 45   : 		if( m_pIStrData)

  00133	85 c0		 test	 eax, eax
  00135	74 06		 je	 SHORT $LN32@Initialize

; 46   : 		{
; 47   : 			m_pIStrData->Release();

  00137	8b 08		 mov	 ecx, DWORD PTR [eax]
  00139	50		 push	 eax
  0013a	ff 51 08	 call	 DWORD PTR [ecx+8]
$LN32@Initialize:
; File D:\git\src\IBK\IBK_DRFN\ProjSrc\SrcChartEx\ChartAddIn\ChartEnvSetupDlgAddIn\ChartEnvSetupDlgAddIn\IndicatorNameListCtrl.cpp

; 137  : 	return (i > 0);

  0013d	8a c3		 mov	 al, bl

; 138  : }

  0013f	8b 4d f4	 mov	 ecx, DWORD PTR __$EHRec$[ebp]
  00142	64 89 0d 00 00
	00 00		 mov	 DWORD PTR fs:0, ecx
  00149	59		 pop	 ecx
  0014a	5f		 pop	 edi
  0014b	5e		 pop	 esi
  0014c	5b		 pop	 ebx
  0014d	8b e5		 mov	 esp, ebp
  0014f	5d		 pop	 ebp
  00150	c2 08 00	 ret	 8
$LN5@Initialize:

; 119  : 	if( pIndicatorNameList == NULL || pIndicatorNameList->IsEmpty()) return false;

  00153	32 c0		 xor	 al, al

; 138  : }

  00155	8b 4d f4	 mov	 ecx, DWORD PTR __$EHRec$[ebp]
  00158	64 89 0d 00 00
	00 00		 mov	 DWORD PTR fs:0, ecx
  0015f	59		 pop	 ecx
  00160	5f		 pop	 edi
  00161	5e		 pop	 esi
  00162	5b		 pop	 ebx
  00163	8b e5		 mov	 esp, ebp
  00165	5d		 pop	 ebp
  00166	c2 08 00	 ret	 8
_TEXT	ENDS
;	COMDAT text$x
text$x	SEGMENT
__unwindfunclet$?Initialize@CIndicatorNameListCtrl@@AAE_NPAUIStringList135914@@0@Z$0:
  00000	8d 4d e4	 lea	 ecx, DWORD PTR _szGraphName$[ebp]
  00003	e9 00 00 00 00	 jmp	 ??1ILPCSTR135914@@QAE@XZ ; ILPCSTR135914::~ILPCSTR135914
__unwindfunclet$?Initialize@CIndicatorNameListCtrl@@AAE_NPAUIStringList135914@@0@Z$1:
  00008	8d 4d dc	 lea	 ecx, DWORD PTR _szIndicatorName$[ebp]
  0000b	e9 00 00 00 00	 jmp	 ??1ILPCSTR135914@@QAE@XZ ; ILPCSTR135914::~ILPCSTR135914
  00010	cc		 int	 3
  00011	cc		 int	 3
  00012	cc		 int	 3
  00013	cc		 int	 3
  00014	cc		 int	 3
__ehhandler$?Initialize@CIndicatorNameListCtrl@@AAE_NPAUIStringList135914@@0@Z:
  00015	90		 npad	 1
  00016	90		 npad	 1
  00017	8b 54 24 08	 mov	 edx, DWORD PTR [esp+8]
  0001b	8d 42 0c	 lea	 eax, DWORD PTR [edx+12]
  0001e	8b 4a d8	 mov	 ecx, DWORD PTR [edx-40]
  00021	33 c8		 xor	 ecx, eax
  00023	e8 00 00 00 00	 call	 @__security_check_cookie@4
  00028	b8 00 00 00 00	 mov	 eax, OFFSET __ehfuncinfo$?Initialize@CIndicatorNameListCtrl@@AAE_NPAUIStringList135914@@0@Z
  0002d	e9 00 00 00 00	 jmp	 ___CxxFrameHandler3
text$x	ENDS
?Initialize@CIndicatorNameListCtrl@@AAE_NPAUIStringList135914@@0@Z ENDP ; CIndicatorNameListCtrl::Initialize
; Function compile flags: /Ogtp
; File D:\git\src\IBK\IBK_DRFN\ProjSrc\SrcChartEx\ChartAddIn\ChartEnvSetupDlgAddIn\ChartEnvSetupDlgAddIn\IndicatorNameListCtrl.cpp
; File C:\Program Files (x86)\Microsoft Visual Studio\2019\Community\VC\Tools\MSVC\14.29.30133\atlmfc\include\afxcmn2.inl
; File D:\git\src\IBK\IBK_DRFN\ProjSrc\SrcChartEx\ChartAddIn\ChartEnvSetupDlgAddIn\ChartEnvSetupDlgAddIn\IndicatorNameListCtrl.cpp
; File C:\Program Files (x86)\Microsoft Visual Studio\2019\Community\VC\Tools\MSVC\14.29.30133\atlmfc\include\afxcmn2.inl
; File D:\git\src\IBK\IBK_DRFN\ProjSrc\SrcChartEx\ChartAddIn\ChartEnvSetupDlgAddIn\ChartEnvSetupDlgAddIn\IndicatorNameListCtrl.cpp
; File C:\Program Files (x86)\Microsoft Visual Studio\2019\Community\VC\Tools\MSVC\14.29.30133\atlmfc\include\afxcmn2.inl
; File C:\Program Files (x86)\Microsoft Visual Studio\2019\Community\VC\Tools\MSVC\14.29.30133\atlmfc\include\afxwin2.inl
; File C:\Program Files (x86)\Microsoft Visual Studio\2019\Community\VC\Tools\MSVC\14.29.30133\atlmfc\include\atltypes.h
; File C:\Program Files (x86)\Microsoft Visual Studio\2019\Community\VC\Tools\MSVC\14.29.30133\atlmfc\include\afxwin2.inl
; File D:\git\src\IBK\IBK_DRFN\ProjSrc\SrcChartEx\ChartAddIn\ChartEnvSetupDlgAddIn\ChartEnvSetupDlgAddIn\IndicatorNameListCtrl.cpp
; File C:\Program Files (x86)\Microsoft Visual Studio\2019\Community\VC\Tools\MSVC\14.29.30133\atlmfc\include\afxcmn.inl
; File D:\git\src\IBK\IBK_DRFN\ProjSrc\SrcChartEx\ChartAddIn\ChartEnvSetupDlgAddIn\ChartEnvSetupDlgAddIn\IndicatorNameListCtrl.cpp
; File C:\Program Files (x86)\Microsoft Visual Studio\2019\Community\VC\Tools\MSVC\14.29.30133\atlmfc\include\afxcmn.inl
; File D:\git\src\IBK\IBK_DRFN\ProjSrc\SrcChartEx\ChartAddIn\ChartEnvSetupDlgAddIn\ChartEnvSetupDlgAddIn\IndicatorNameListCtrl.cpp
; File C:\Program Files (x86)\Microsoft Visual Studio\2019\Community\VC\Tools\MSVC\14.29.30133\atlmfc\include\afxcmn.inl
; File D:\git\src\IBK\IBK_DRFN\ProjSrc\SrcChartEx\ChartAddIn\ChartEnvSetupDlgAddIn\ChartEnvSetupDlgAddIn\IndicatorNameListCtrl.cpp
; File C:\Program Files (x86)\Microsoft Visual Studio\2019\Community\VC\Tools\MSVC\14.29.30133\atlmfc\include\afxcmn.inl
; File D:\git\src\IBK\IBK_DRFN\ProjSrc\SrcChartEx\ChartAddIn\ChartEnvSetupDlgAddIn\ChartEnvSetupDlgAddIn\IndicatorNameListCtrl.cpp
; File C:\Program Files (x86)\Microsoft Visual Studio\2019\Community\VC\Tools\MSVC\14.29.30133\atlmfc\include\afxcmn.inl
; File D:\git\src\IBK\IBK_DRFN\ProjSrc\SrcChartEx\ChartAddIn\ChartEnvSetupDlgAddIn\ChartEnvSetupDlgAddIn\IndicatorNameListCtrl.cpp
; File C:\Program Files (x86)\Microsoft Visual Studio\2019\Community\VC\Tools\MSVC\14.29.30133\atlmfc\include\afxcmn.inl
; File D:\git\src\IBK\IBK_DRFN\ProjSrc\SrcChartEx\ChartAddIn\ChartEnvSetupDlgAddIn\ChartEnvSetupDlgAddIn\IndicatorNameListCtrl.cpp
;	COMDAT ?InitColumn@CIndicatorNameListCtrl@@AAEXXZ
_TEXT	SEGMENT
_lvColumn$ = -64					; size = 44
_rc$ = -20						; size = 16
__$ArrayPad$ = -4					; size = 4
?InitColumn@CIndicatorNameListCtrl@@AAEXXZ PROC		; CIndicatorNameListCtrl::InitColumn, COMDAT
; _this$ = ecx

; 75   : {

  00000	55		 push	 ebp
  00001	8b ec		 mov	 ebp, esp
  00003	83 ec 40	 sub	 esp, 64			; 00000040H
  00006	a1 00 00 00 00	 mov	 eax, DWORD PTR ___security_cookie
  0000b	33 c5		 xor	 eax, ebp
  0000d	89 45 fc	 mov	 DWORD PTR __$ArrayPad$[ebp], eax
  00010	56		 push	 esi
; File C:\Program Files (x86)\Microsoft Visual Studio\2019\Community\VC\Tools\MSVC\14.29.30133\atlmfc\include\afxcmn2.inl

; 117  : 	{ ASSERT(::IsWindow(m_hWnd)); return (DWORD) ::SendMessage(m_hWnd, LVM_SETEXTENDEDLISTVIEWSTYLE, 0, (LPARAM) dwNewStyle); }

  00011	8b 35 00 00 00
	00		 mov	 esi, DWORD PTR __imp__SendMessageA@16
; File D:\git\src\IBK\IBK_DRFN\ProjSrc\SrcChartEx\ChartAddIn\ChartEnvSetupDlgAddIn\ChartEnvSetupDlgAddIn\IndicatorNameListCtrl.cpp

; 75   : {

  00017	57		 push	 edi
; File C:\Program Files (x86)\Microsoft Visual Studio\2019\Community\VC\Tools\MSVC\14.29.30133\atlmfc\include\afxcmn2.inl

; 117  : 	{ ASSERT(::IsWindow(m_hWnd)); return (DWORD) ::SendMessage(m_hWnd, LVM_SETEXTENDEDLISTVIEWSTYLE, 0, (LPARAM) dwNewStyle); }

  00018	6a 21		 push	 33			; 00000021H
; File D:\git\src\IBK\IBK_DRFN\ProjSrc\SrcChartEx\ChartAddIn\ChartEnvSetupDlgAddIn\ChartEnvSetupDlgAddIn\IndicatorNameListCtrl.cpp

; 75   : {

  0001a	8b f9		 mov	 edi, ecx
; File C:\Program Files (x86)\Microsoft Visual Studio\2019\Community\VC\Tools\MSVC\14.29.30133\atlmfc\include\afxcmn2.inl

; 117  : 	{ ASSERT(::IsWindow(m_hWnd)); return (DWORD) ::SendMessage(m_hWnd, LVM_SETEXTENDEDLISTVIEWSTYLE, 0, (LPARAM) dwNewStyle); }

  0001c	6a 00		 push	 0
  0001e	68 36 10 00 00	 push	 4150			; 00001036H
  00023	ff 77 20	 push	 DWORD PTR [edi+32]
  00026	ff d6		 call	 esi
; File C:\Program Files (x86)\Microsoft Visual Studio\2019\Community\VC\Tools\MSVC\14.29.30133\atlmfc\include\afxwin2.inl

; 86   : 	{ ASSERT(::IsWindow(m_hWnd)); ::GetClientRect(m_hWnd, lpRect); }

  00028	8d 45 ec	 lea	 eax, DWORD PTR _rc$[ebp]
  0002b	0f 57 c0	 xorps	 xmm0, xmm0
  0002e	50		 push	 eax
  0002f	ff 77 20	 push	 DWORD PTR [edi+32]
; File C:\Program Files (x86)\Microsoft Visual Studio\2019\Community\VC\Tools\MSVC\14.29.30133\atlmfc\include\atltypes.h

; 528  : 	left = 0;

  00032	0f 11 45 ec	 movups	 XMMWORD PTR _rc$[ebp], xmm0
; File C:\Program Files (x86)\Microsoft Visual Studio\2019\Community\VC\Tools\MSVC\14.29.30133\atlmfc\include\afxwin2.inl

; 86   : 	{ ASSERT(::IsWindow(m_hWnd)); ::GetClientRect(m_hWnd, lpRect); }

  00036	ff 15 00 00 00
	00		 call	 DWORD PTR __imp__GetClientRect@8
; File D:\git\src\IBK\IBK_DRFN\ProjSrc\SrcChartEx\ChartAddIn\ChartEnvSetupDlgAddIn\ChartEnvSetupDlgAddIn\IndicatorNameListCtrl.cpp

; 87   : 	lvColumn.cx = rc.Width() - 17;

  0003c	8b 45 f4	 mov	 eax, DWORD PTR _rc$[ebp+8]
  0003f	2b 45 ec	 sub	 eax, DWORD PTR _rc$[ebp]
  00042	83 e8 11	 sub	 eax, 17			; 00000011H
  00045	c7 45 c0 07 00
	00 00		 mov	 DWORD PTR _lvColumn$[ebp], 7
  0004c	89 45 c8	 mov	 DWORD PTR _lvColumn$[ebp+8], eax
; File C:\Program Files (x86)\Microsoft Visual Studio\2019\Community\VC\Tools\MSVC\14.29.30133\atlmfc\include\afxcmn.inl

; 209  : 	{ ASSERT(::IsWindow(m_hWnd)); return (int) ::SendMessage(m_hWnd, LVM_INSERTCOLUMN, nCol, (LPARAM)pColumn); }

  0004f	8d 45 c0	 lea	 eax, DWORD PTR _lvColumn$[ebp]
  00052	50		 push	 eax
  00053	6a 00		 push	 0
  00055	68 1b 10 00 00	 push	 4123			; 0000101bH
  0005a	ff 77 20	 push	 DWORD PTR [edi+32]
; File D:\git\src\IBK\IBK_DRFN\ProjSrc\SrcChartEx\ChartAddIn\ChartEnvSetupDlgAddIn\ChartEnvSetupDlgAddIn\IndicatorNameListCtrl.cpp

; 86   : 	lvColumn.fmt = LVCFMT_LEFT;

  0005d	c7 45 c4 00 00
	00 00		 mov	 DWORD PTR _lvColumn$[ebp+4], 0

; 88   : 	lvColumn.pszText = _T("");

  00064	c7 45 cc 00 00
	00 00		 mov	 DWORD PTR _lvColumn$[ebp+12], OFFSET ??_C@_04JDFEIJL@?A?v?G?$KF@
; File C:\Program Files (x86)\Microsoft Visual Studio\2019\Community\VC\Tools\MSVC\14.29.30133\atlmfc\include\afxcmn.inl

; 209  : 	{ ASSERT(::IsWindow(m_hWnd)); return (int) ::SendMessage(m_hWnd, LVM_INSERTCOLUMN, nCol, (LPARAM)pColumn); }

  0006b	ff d6		 call	 esi
  0006d	8d 45 c0	 lea	 eax, DWORD PTR _lvColumn$[ebp]
; File D:\git\src\IBK\IBK_DRFN\ProjSrc\SrcChartEx\ChartAddIn\ChartEnvSetupDlgAddIn\ChartEnvSetupDlgAddIn\IndicatorNameListCtrl.cpp

; 91   : 	lvColumn.mask = LVCF_FMT | LVCF_WIDTH | LVCF_TEXT;// | LVCF_SUBITEM;

  00070	c7 45 c0 07 00
	00 00		 mov	 DWORD PTR _lvColumn$[ebp], 7
; File C:\Program Files (x86)\Microsoft Visual Studio\2019\Community\VC\Tools\MSVC\14.29.30133\atlmfc\include\afxcmn.inl

; 209  : 	{ ASSERT(::IsWindow(m_hWnd)); return (int) ::SendMessage(m_hWnd, LVM_INSERTCOLUMN, nCol, (LPARAM)pColumn); }

  00077	50		 push	 eax
  00078	6a 01		 push	 1
  0007a	68 1b 10 00 00	 push	 4123			; 0000101bH
  0007f	ff 77 20	 push	 DWORD PTR [edi+32]
; File D:\git\src\IBK\IBK_DRFN\ProjSrc\SrcChartEx\ChartAddIn\ChartEnvSetupDlgAddIn\ChartEnvSetupDlgAddIn\IndicatorNameListCtrl.cpp

; 92   : 	lvColumn.fmt = LVCFMT_LEFT;

  00082	c7 45 c4 00 00
	00 00		 mov	 DWORD PTR _lvColumn$[ebp+4], 0

; 93   : 	lvColumn.cx = 0;

  00089	c7 45 c8 00 00
	00 00		 mov	 DWORD PTR _lvColumn$[ebp+8], 0

; 94   : 	lvColumn.pszText = _T("GraphName");

  00090	c7 45 cc 00 00
	00 00		 mov	 DWORD PTR _lvColumn$[ebp+12], OFFSET ??_C@_09JGBECMOF@GraphName@
; File C:\Program Files (x86)\Microsoft Visual Studio\2019\Community\VC\Tools\MSVC\14.29.30133\atlmfc\include\afxcmn.inl

; 209  : 	{ ASSERT(::IsWindow(m_hWnd)); return (int) ::SendMessage(m_hWnd, LVM_INSERTCOLUMN, nCol, (LPARAM)pColumn); }

  00097	ff d6		 call	 esi
; File D:\git\src\IBK\IBK_DRFN\ProjSrc\SrcChartEx\ChartAddIn\ChartEnvSetupDlgAddIn\ChartEnvSetupDlgAddIn\IndicatorNameListCtrl.cpp

; 96   : }

  00099	8b 4d fc	 mov	 ecx, DWORD PTR __$ArrayPad$[ebp]
; File C:\Program Files (x86)\Microsoft Visual Studio\2019\Community\VC\Tools\MSVC\14.29.30133\atlmfc\include\afxcmn.inl

; 209  : 	{ ASSERT(::IsWindow(m_hWnd)); return (int) ::SendMessage(m_hWnd, LVM_INSERTCOLUMN, nCol, (LPARAM)pColumn); }

  0009c	5f		 pop	 edi
; File D:\git\src\IBK\IBK_DRFN\ProjSrc\SrcChartEx\ChartAddIn\ChartEnvSetupDlgAddIn\ChartEnvSetupDlgAddIn\IndicatorNameListCtrl.cpp

; 96   : }

  0009d	33 cd		 xor	 ecx, ebp
; File C:\Program Files (x86)\Microsoft Visual Studio\2019\Community\VC\Tools\MSVC\14.29.30133\atlmfc\include\afxcmn.inl

; 209  : 	{ ASSERT(::IsWindow(m_hWnd)); return (int) ::SendMessage(m_hWnd, LVM_INSERTCOLUMN, nCol, (LPARAM)pColumn); }

  0009f	5e		 pop	 esi
; File D:\git\src\IBK\IBK_DRFN\ProjSrc\SrcChartEx\ChartAddIn\ChartEnvSetupDlgAddIn\ChartEnvSetupDlgAddIn\IndicatorNameListCtrl.cpp

; 96   : }

  000a0	e8 00 00 00 00	 call	 @__security_check_cookie@4
  000a5	8b e5		 mov	 esp, ebp
  000a7	5d		 pop	 ebp
  000a8	c3		 ret	 0
?InitColumn@CIndicatorNameListCtrl@@AAEXXZ ENDP		; CIndicatorNameListCtrl::InitColumn
_TEXT	ENDS
; Function compile flags: /Ogtp
; File D:\git\src\IBK\IBK_DRFN\ProjSrc\SrcChartEx\ChartAddIn\ChartEnvSetupDlgAddIn\ChartEnvSetupDlgAddIn\IndicatorNameListCtrl.cpp
;	COMDAT ?GetMessageMap@CIndicatorNameListCtrl@@MBEPBUAFX_MSGMAP@@XZ
_TEXT	SEGMENT
?GetMessageMap@CIndicatorNameListCtrl@@MBEPBUAFX_MSGMAP@@XZ PROC ; CIndicatorNameListCtrl::GetMessageMap, COMDAT
; _this$ = ecx

; 54   : BEGIN_MESSAGE_MAP(CIndicatorNameListCtrl, CListCtrl)

  00000	b8 00 00 00 00	 mov	 eax, OFFSET ?messageMap@?1??GetThisMessageMap@CIndicatorNameListCtrl@@KGPBUAFX_MSGMAP@@XZ@4U3@B
  00005	c3		 ret	 0
?GetMessageMap@CIndicatorNameListCtrl@@MBEPBUAFX_MSGMAP@@XZ ENDP ; CIndicatorNameListCtrl::GetMessageMap
_TEXT	ENDS
; Function compile flags: /Ogtp
; File D:\git\src\IBK\IBK_DRFN\ProjSrc\SrcChartEx\ChartAddIn\ChartEnvSetupDlgAddIn\ChartEnvSetupDlgAddIn\IndicatorNameListCtrl.cpp
;	COMDAT ?GetThisMessageMap@CIndicatorNameListCtrl@@KGPBUAFX_MSGMAP@@XZ
_TEXT	SEGMENT
?GetThisMessageMap@CIndicatorNameListCtrl@@KGPBUAFX_MSGMAP@@XZ PROC ; CIndicatorNameListCtrl::GetThisMessageMap, COMDAT

; 55   : 	//{{AFX_MSG_MAP(CIndicatorNameListCtrl)
; 56   : 	ON_NOTIFY_REFLECT(LVN_ITEMCHANGED, OnItemchanged)
; 57   : 	ON_NOTIFY_REFLECT(NM_CLICK, OnClick)
; 58   : 	ON_WM_DRAWITEM()
; 59   : 	ON_NOTIFY_REFLECT(NM_DBLCLK, OnDblclk)
; 60   : 	//}}AFX_MSG_MAP
; 61   : END_MESSAGE_MAP()

  00000	b8 00 00 00 00	 mov	 eax, OFFSET ?messageMap@?1??GetThisMessageMap@CIndicatorNameListCtrl@@KGPBUAFX_MSGMAP@@XZ@4U3@B
  00005	c3		 ret	 0
?GetThisMessageMap@CIndicatorNameListCtrl@@KGPBUAFX_MSGMAP@@XZ ENDP ; CIndicatorNameListCtrl::GetThisMessageMap
_TEXT	ENDS
; Function compile flags: /Ogtp
; File D:\git\src\IBK\IBK_DRFN\ProjSrc\SrcChartEx\ChartAddIn\ChartEnvSetupDlgAddIn\ChartEnvSetupDlgAddIn\IndicatorNameListCtrl.cpp
; File D:\git\src\IBK\IBK_DRFN\ProjSrc\SrcChartEx\ChartAddIn\ChartEnvSetupDlgAddIn\Include_Chart\Dll_Load\IMetaTable.h
; File C:\Program Files (x86)\Microsoft Visual Studio\2019\Community\VC\Tools\MSVC\14.29.30133\atlmfc\include\afxwin1.inl
; File D:\git\src\IBK\IBK_DRFN\ProjSrc\SrcChartEx\ChartAddIn\ChartEnvSetupDlgAddIn\Include_Chart\Dll_Load\IMetaTable.h
; File C:\Program Files (x86)\Microsoft Visual Studio\2019\Community\VC\Tools\MSVC\14.29.30133\atlmfc\include\afxwin1.inl
; File D:\git\src\IBK\IBK_DRFN\ProjSrc\SrcChartEx\ChartAddIn\ChartEnvSetupDlgAddIn\ChartEnvSetupDlgAddIn\IndicatorNameListCtrl.cpp
; File C:\Program Files (x86)\Microsoft Visual Studio\2019\Community\VC\Tools\MSVC\14.29.30133\atlmfc\include\cstringt.h
; File D:\git\src\IBK\IBK_DRFN\ProjSrc\SrcChartEx\ChartAddIn\ChartEnvSetupDlgAddIn\ChartEnvSetupDlgAddIn\IndicatorNameListCtrl.cpp
; File C:\Program Files (x86)\Microsoft Visual Studio\2019\Community\VC\Tools\MSVC\14.29.30133\atlmfc\include\atlsimpstr.h
; File D:\git\src\IBK\IBK_DRFN\ProjSrc\SrcChartEx\ChartAddIn\ChartEnvSetupDlgAddIn\ChartEnvSetupDlgAddIn\IndicatorNameListCtrl.cpp
; File C:\Program Files (x86)\Microsoft Visual Studio\2019\Community\VC\Tools\MSVC\14.29.30133\atlmfc\include\atlsimpstr.h
; File D:\git\src\IBK\IBK_DRFN\ProjSrc\SrcChartEx\ChartAddIn\ChartEnvSetupDlgAddIn\ChartEnvSetupDlgAddIn\IndicatorNameListCtrl.cpp
; File C:\Program Files (x86)\Microsoft Visual Studio\2019\Community\VC\Tools\MSVC\14.29.30133\atlmfc\include\atlsimpstr.h
; File D:\git\src\IBK\IBK_DRFN\ProjSrc\SrcChartEx\ChartAddIn\ChartEnvSetupDlgAddIn\ChartEnvSetupDlgAddIn\IndicatorNameListCtrl.cpp
; File C:\Program Files (x86)\Microsoft Visual Studio\2019\Community\VC\Tools\MSVC\14.29.30133\atlmfc\include\afxcmn.inl
; File D:\git\src\IBK\IBK_DRFN\ProjSrc\SrcChartEx\ChartAddIn\ChartEnvSetupDlgAddIn\ChartEnvSetupDlgAddIn\IndicatorNameListCtrl.cpp
; File C:\Program Files (x86)\Microsoft Visual Studio\2019\Community\VC\Tools\MSVC\14.29.30133\atlmfc\include\afxcmn.inl
; File D:\git\src\IBK\IBK_DRFN\ProjSrc\SrcChartEx\ChartAddIn\ChartEnvSetupDlgAddIn\ChartEnvSetupDlgAddIn\IndicatorNameListCtrl.cpp
; File C:\Program Files (x86)\Microsoft Visual Studio\2019\Community\VC\Tools\MSVC\14.29.30133\atlmfc\include\cstringt.h
; File D:\git\src\IBK\IBK_DRFN\ProjSrc\SrcChartEx\ChartAddIn\ChartEnvSetupDlgAddIn\ChartEnvSetupDlgAddIn\IndicatorNameListCtrl.cpp
; File C:\Program Files (x86)\Microsoft Visual Studio\2019\Community\VC\Tools\MSVC\14.29.30133\atlmfc\include\afxcmn.inl
; File D:\git\src\IBK\IBK_DRFN\ProjSrc\SrcChartEx\ChartAddIn\ChartEnvSetupDlgAddIn\ChartEnvSetupDlgAddIn\IndicatorNameListCtrl.cpp
; File D:\git\src\IBK\IBK_DRFN\ProjSrc\SrcChartEx\ChartAddIn\ChartEnvSetupDlgAddIn\Include_Chart\Dll_Load\IMetaTable.h
; File C:\Program Files (x86)\Microsoft Visual Studio\2019\Community\VC\Tools\MSVC\14.29.30133\atlmfc\include\afxwin1.inl
; File D:\git\src\IBK\IBK_DRFN\ProjSrc\SrcChartEx\ChartAddIn\ChartEnvSetupDlgAddIn\ChartEnvSetupDlgAddIn\IndicatorNameListCtrl.cpp
;	COMDAT ?OnDblclk@CIndicatorNameListCtrl@@QAEXPAUtagNMHDR@@PAJ@Z
_TEXT	SEGMENT
_nmListView$2 = -68					; size = 44
___mlrs__$ = -24					; size = 4
$T3 = -20						; size = 4
_strGraphName$4 = -20					; size = 4
_strIndicatorName$ = -16				; size = 4
__$EHRec$ = -12						; size = 12
_nIndex$1$ = 8						; size = 4
_lResult$5 = 8						; size = 4
$T6 = 8							; size = 4
_pNMHDR$ = 8						; size = 4
_pResult$ = 12						; size = 4
?OnDblclk@CIndicatorNameListCtrl@@QAEXPAUtagNMHDR@@PAJ@Z PROC ; CIndicatorNameListCtrl::OnDblclk, COMDAT
; _this$ = ecx

; 526  : {

  00000	55		 push	 ebp
  00001	8b ec		 mov	 ebp, esp
  00003	6a ff		 push	 -1
  00005	68 00 00 00 00	 push	 __ehhandler$?OnDblclk@CIndicatorNameListCtrl@@QAEXPAUtagNMHDR@@PAJ@Z
  0000a	64 a1 00 00 00
	00		 mov	 eax, DWORD PTR fs:0
  00010	50		 push	 eax
  00011	83 ec 38	 sub	 esp, 56			; 00000038H
  00014	53		 push	 ebx
  00015	56		 push	 esi
  00016	57		 push	 edi
  00017	a1 00 00 00 00	 mov	 eax, DWORD PTR ___security_cookie
  0001c	33 c5		 xor	 eax, ebp
  0001e	50		 push	 eax
  0001f	8d 45 f4	 lea	 eax, DWORD PTR __$EHRec$[ebp]
  00022	64 a3 00 00 00
	00		 mov	 DWORD PTR fs:0, eax
  00028	8b f9		 mov	 edi, ecx

; 527  : 	NM_LISTVIEW* pNMListView = (NM_LISTVIEW*)pNMHDR;
; 528  : 
; 529  : 	ML_SET_LANGUAGE_RES();

  0002a	e8 00 00 00 00	 call	 ?AfxGetStaticModuleState@@YGPAVAFX_MODULE_STATE@@XZ ; AfxGetStaticModuleState
  0002f	8b 9f 98 00 00
	00		 mov	 ebx, DWORD PTR [edi+152]
  00035	8b 70 08	 mov	 esi, DWORD PTR [eax+8]
; File D:\git\src\IBK\IBK_DRFN\ProjSrc\SrcChartEx\ChartAddIn\ChartEnvSetupDlgAddIn\Include_Chart\Dll_Load\IMetaTable.h

; 936  : 	DECLARE_FUNCTION2(	LoadResourceDLL,				HMODULE, AfxGetStaticModuleState()->m_hCurrentInstanceHandle, HWND, HMODULE);

  00038	a1 04 00 00 00	 mov	 eax, DWORD PTR ?g_iMetaTable@@3VIMetaTable@@A+4
  0003d	85 c0		 test	 eax, eax
  0003f	74 4b		 je	 SHORT $LN26@OnDblclk
  00041	b9 80 0d 00 00	 mov	 ecx, 3456		; 00000d80H
  00046	66 3b 0d 94 00
	00 00		 cmp	 cx, WORD PTR ?g_iMetaTable@@3VIMetaTable@@A+148
  0004d	74 29		 je	 SHORT $LN91@OnDblclk
  0004f	68 00 00 00 00	 push	 OFFSET ??_C@_0BA@ENJOCHIO@LoadResourceDLL@
  00054	50		 push	 eax
  00055	c7 05 90 00 00
	00 00 00 00 00	 mov	 DWORD PTR ?g_iMetaTable@@3VIMetaTable@@A+144, 0
  0005f	ff 15 00 00 00
	00		 call	 DWORD PTR __imp__GetProcAddress@8
  00065	b9 80 0d 00 00	 mov	 ecx, 3456		; 00000d80H
  0006a	a3 90 00 00 00	 mov	 DWORD PTR ?g_iMetaTable@@3VIMetaTable@@A+144, eax
  0006f	66 89 0d 94 00
	00 00		 mov	 WORD PTR ?g_iMetaTable@@3VIMetaTable@@A+148, cx
  00076	eb 05		 jmp	 SHORT $LN25@OnDblclk
$LN91@OnDblclk:
  00078	a1 90 00 00 00	 mov	 eax, DWORD PTR ?g_iMetaTable@@3VIMetaTable@@A+144
$LN25@OnDblclk:
  0007d	85 c0		 test	 eax, eax
  0007f	74 0b		 je	 SHORT $LN26@OnDblclk
  00081	56		 push	 esi
  00082	53		 push	 ebx
  00083	ff d0		 call	 eax
  00085	83 c4 08	 add	 esp, 8
  00088	8b d8		 mov	 ebx, eax
  0008a	eb 08		 jmp	 SHORT $LN23@OnDblclk
$LN26@OnDblclk:
  0008c	e8 00 00 00 00	 call	 ?AfxGetStaticModuleState@@YGPAVAFX_MODULE_STATE@@XZ ; AfxGetStaticModuleState
  00091	8b 58 08	 mov	 ebx, DWORD PTR [eax+8]
$LN23@OnDblclk:
; File C:\Program Files (x86)\Microsoft Visual Studio\2019\Community\VC\Tools\MSVC\14.29.30133\atlmfc\include\afxwin1.inl

; 25   : 		return afxCurrentResourceHandle; }

  00094	e8 00 00 00 00	 call	 ?AfxGetModuleState@@YGPAVAFX_MODULE_STATE@@XZ ; AfxGetModuleState
; File D:\git\src\IBK\IBK_DRFN\ProjSrc\SrcChartEx\ChartAddIn\ChartEnvSetupDlgAddIn\Include_Chart\Dll_Load\IMetaTable.h

; 1032 : 		m_hInstance = AfxGetResourceHandle();

  00099	8b 70 0c	 mov	 esi, DWORD PTR [eax+12]
  0009c	89 75 e8	 mov	 DWORD PTR ___mlrs__$[ebp], esi
; File C:\Program Files (x86)\Microsoft Visual Studio\2019\Community\VC\Tools\MSVC\14.29.30133\atlmfc\include\afxwin1.inl

; 27   : 	{ ASSERT(hInstResource != NULL); afxCurrentResourceHandle = hInstResource; }

  0009f	e8 00 00 00 00	 call	 ?AfxGetModuleState@@YGPAVAFX_MODULE_STATE@@XZ ; AfxGetModuleState
  000a4	89 58 0c	 mov	 DWORD PTR [eax+12], ebx
; File D:\git\src\IBK\IBK_DRFN\ProjSrc\SrcChartEx\ChartAddIn\ChartEnvSetupDlgAddIn\ChartEnvSetupDlgAddIn\IndicatorNameListCtrl.cpp

; 533  : 	CString strIndicatorName = _LTOM2(GetItemText(pNMListView->iItem, 0));

  000a7	8b 5d 08	 mov	 ebx, DWORD PTR _pNMHDR$[ebp]
  000aa	8d 45 08	 lea	 eax, DWORD PTR $T6[ebp]
  000ad	6a 00		 push	 0
  000af	8b cf		 mov	 ecx, edi
  000b1	c7 45 fc 00 00
	00 00		 mov	 DWORD PTR __$EHRec$[ebp+8], 0
  000b8	ff 73 0c	 push	 DWORD PTR [ebx+12]
  000bb	50		 push	 eax
  000bc	e8 00 00 00 00	 call	 ?GetItemText@CListCtrl@@QBE?AV?$CStringT@DV?$StrTraitMFC_DLL@DV?$ChTraitsCRT@D@ATL@@@@@ATL@@HH@Z ; CListCtrl::GetItemText
  000c1	6a 00		 push	 0
  000c3	ff 30		 push	 DWORD PTR [eax]
  000c5	b9 00 00 00 00	 mov	 ecx, OFFSET ?g_iMetaTable@@3VIMetaTable@@A ; g_iMetaTable
  000ca	c6 45 fc 01	 mov	 BYTE PTR __$EHRec$[ebp+8], 1
  000ce	6a 02		 push	 2
  000d0	ff b7 98 00 00
	00		 push	 DWORD PTR [edi+152]
  000d6	e8 00 00 00 00	 call	 ?GetMetaText@IMetaTable@@QAEPBDPAUHWND__@@W4E_CODEPAGE@1@PBDH@Z ; IMetaTable::GetMetaText
  000db	50		 push	 eax
  000dc	8d 4d f0	 lea	 ecx, DWORD PTR _strIndicatorName$[ebp]
  000df	ff 15 00 00 00
	00		 call	 DWORD PTR __imp_??0?$CStringT@DV?$StrTraitMFC_DLL@DV?$ChTraitsCRT@D@ATL@@@@@ATL@@QAE@PBD@Z
  000e5	8d 4d 08	 lea	 ecx, DWORD PTR $T6[ebp]
  000e8	c6 45 fc 03	 mov	 BYTE PTR __$EHRec$[ebp+8], 3
  000ec	ff 15 00 00 00
	00		 call	 DWORD PTR __imp_??1?$CStringT@DV?$StrTraitMFC_DLL@DV?$ChTraitsCRT@D@ATL@@@@@ATL@@QAE@XZ

; 534  : 	if( m_pParent->GetGroupButtonCtrlType() == GENERAL_GROUP )

  000f2	8b 87 8c 00 00
	00		 mov	 eax, DWORD PTR [edi+140]
  000f8	8b 40 74	 mov	 eax, DWORD PTR [eax+116]
  000fb	85 c0		 test	 eax, eax
  000fd	0f 85 52 01 00
	00		 jne	 $LN2@OnDblclk

; 536  : 		if(strIndicatorName == _MTEXT( C2_PRICE_CHART ))

  00103	a1 54 00 00 00	 mov	 eax, DWORD PTR ?g_iMetaTable@@3VIMetaTable@@A+84
; File C:\Program Files (x86)\Microsoft Visual Studio\2019\Community\VC\Tools\MSVC\14.29.30133\atlmfc\include\cstringt.h

; 2486 : 		return(str1.Compare(psz2) == 0);

  00108	8d 4d f0	 lea	 ecx, DWORD PTR _strIndicatorName$[ebp]
  0010b	ff b0 28 03 00
	00		 push	 DWORD PTR [eax+808]
  00111	ff 15 00 00 00
	00		 call	 DWORD PTR __imp_?Compare@?$CStringT@DV?$StrTraitMFC_DLL@DV?$ChTraitsCRT@D@ATL@@@@@ATL@@QBEHPBD@Z
  00117	85 c0		 test	 eax, eax
; File D:\git\src\IBK\IBK_DRFN\ProjSrc\SrcChartEx\ChartAddIn\ChartEnvSetupDlgAddIn\ChartEnvSetupDlgAddIn\IndicatorNameListCtrl.cpp

; 536  : 		if(strIndicatorName == _MTEXT( C2_PRICE_CHART ))

  00119	75 14		 jne	 SHORT $LN4@OnDblclk

; 537  : 		{
; 538  : 			//AfxMessageBox( "    .");
; 539  : 			AfxMessageBox( IDS_MSG_PRICECHART_ADD );

  0011b	6a ff		 push	 -1
  0011d	b8 03 00 00 00	 mov	 eax, 3
  00122	6a 00		 push	 0
  00124	50		 push	 eax
  00125	e8 00 00 00 00	 call	 ?AfxMessageBox@@YGHIII@Z ; AfxMessageBox
  0012a	e9 de 01 00 00	 jmp	 $LN22@OnDblclk
$LN4@OnDblclk:

; 540  : 			return;
; 541  : 		}
; 542  : 
; 543  : 		if(m_pParent != NULL)

  0012f	8b 8f 8c 00 00
	00		 mov	 ecx, DWORD PTR [edi+140]
  00135	85 c9		 test	 ecx, ecx
  00137	0f 84 c7 01 00
	00		 je	 $LN14@OnDblclk

; 544  : 		{
; 545  : 			pUseGroupIndicatorNameListCtrl = (m_pParent->GetParent()->m_ctrlUseGroupButton).GetSelectListCtrl();

  0013d	8b 49 0c	 mov	 ecx, DWORD PTR [ecx+12]
  00140	6a ff		 push	 -1
  00142	81 c1 78 02 00
	00		 add	 ecx, 632		; 00000278H
  00148	e8 00 00 00 00	 call	 ?GetSelectListCtrl@CGroupButtonCtrl@@QAEPAVCIndicatorNameListCtrl@@H@Z ; CGroupButtonCtrl::GetSelectListCtrl
  0014d	8b d8		 mov	 ebx, eax

; 546  : 
; 547  : 			if( pUseGroupIndicatorNameListCtrl != NULL )

  0014f	85 db		 test	 ebx, ebx
  00151	0f 84 ad 01 00
	00		 je	 $LN14@OnDblclk
; File C:\Program Files (x86)\Microsoft Visual Studio\2019\Community\VC\Tools\MSVC\14.29.30133\atlmfc\include\atlsimpstr.h

; 519  : 		return( GetData()->nDataLength );

  00157	8b 4d f0	 mov	 ecx, DWORD PTR _strIndicatorName$[ebp]

; 533  : 		return( GetLength() == 0 );

  0015a	83 79 f4 00	 cmp	 DWORD PTR [ecx-12], 0
; File D:\git\src\IBK\IBK_DRFN\ProjSrc\SrcChartEx\ChartAddIn\ChartEnvSetupDlgAddIn\ChartEnvSetupDlgAddIn\IndicatorNameListCtrl.cpp

; 549  : 				if( !strIndicatorName.IsEmpty())

  0015e	0f 84 a0 01 00
	00		 je	 $LN14@OnDblclk

; 550  : 				{
; 551  : 					CString strGraphName;

  00164	8d 4d ec	 lea	 ecx, DWORD PTR _strGraphName$4[ebp]
  00167	ff 15 00 00 00
	00		 call	 DWORD PTR __imp_??0?$CStringT@DV?$StrTraitMFC_DLL@DV?$ChTraitsCRT@D@ATL@@@@@ATL@@QAE@XZ

; 552  : 					m_pParent->GetParent()->AddGraph( strIndicatorName, strGraphName);

  0016d	8b 8f 8c 00 00
	00		 mov	 ecx, DWORD PTR [edi+140]
  00173	8d 45 ec	 lea	 eax, DWORD PTR _strGraphName$4[ebp]
  00176	50		 push	 eax
  00177	8d 45 f0	 lea	 eax, DWORD PTR _strIndicatorName$[ebp]
  0017a	c6 45 fc 05	 mov	 BYTE PTR __$EHRec$[ebp+8], 5
  0017e	50		 push	 eax
  0017f	8b 49 0c	 mov	 ecx, DWORD PTR [ecx+12]
  00182	e8 00 00 00 00	 call	 ?AddGraph@CDlgMainTabIndicatorSetUp@@QAEXABV?$CStringT@DV?$StrTraitMFC_DLL@DV?$ChTraitsCRT@D@ATL@@@@@ATL@@AAV23@@Z ; CDlgMainTabIndicatorSetUp::AddGraph
; File C:\Program Files (x86)\Microsoft Visual Studio\2019\Community\VC\Tools\MSVC\14.29.30133\atlmfc\include\atlsimpstr.h

; 519  : 		return( GetData()->nDataLength );

  00187	8b 45 ec	 mov	 eax, DWORD PTR _strGraphName$4[ebp]

; 533  : 		return( GetLength() == 0 );

  0018a	83 78 f4 00	 cmp	 DWORD PTR [eax-12], 0
; File D:\git\src\IBK\IBK_DRFN\ProjSrc\SrcChartEx\ChartAddIn\ChartEnvSetupDlgAddIn\ChartEnvSetupDlgAddIn\IndicatorNameListCtrl.cpp

; 553  : 					if( !strGraphName.IsEmpty())

  0018e	0f 84 67 01 00
	00		 je	 $LN8@OnDblclk
; File C:\Program Files (x86)\Microsoft Visual Studio\2019\Community\VC\Tools\MSVC\14.29.30133\atlmfc\include\atlsimpstr.h

; 519  : 		return( GetData()->nDataLength );

  00194	8b 45 f0	 mov	 eax, DWORD PTR _strIndicatorName$[ebp]

; 533  : 		return( GetLength() == 0 );

  00197	83 78 f4 00	 cmp	 DWORD PTR [eax-12], 0
; File D:\git\src\IBK\IBK_DRFN\ProjSrc\SrcChartEx\ChartAddIn\ChartEnvSetupDlgAddIn\ChartEnvSetupDlgAddIn\IndicatorNameListCtrl.cpp

; 622  : 	if( !strIndicatorName.IsEmpty() )

  0019b	0f 84 99 00 00
	00		 je	 $LN56@OnDblclk
; File C:\Program Files (x86)\Microsoft Visual Studio\2019\Community\VC\Tools\MSVC\14.29.30133\atlmfc\include\afxcmn.inl

; 155  : 	{ ASSERT(::IsWindow(m_hWnd)); return (int) ::SendMessage(m_hWnd, LVM_GETITEMCOUNT, 0, 0L); }

  001a1	6a 00		 push	 0
  001a3	6a 00		 push	 0
  001a5	68 04 10 00 00	 push	 4100			; 00001004H
  001aa	ff 73 20	 push	 DWORD PTR [ebx+32]
  001ad	ff 15 00 00 00
	00		 call	 DWORD PTR __imp__SendMessageA@16
; File D:\git\src\IBK\IBK_DRFN\ProjSrc\SrcChartEx\ChartAddIn\ChartEnvSetupDlgAddIn\ChartEnvSetupDlgAddIn\IndicatorNameListCtrl.cpp

; 627  : 		InsertItem( nIndex, _MTOL2(strIndicatorName) );

  001b3	6a 00		 push	 0
  001b5	ff 75 f0	 push	 DWORD PTR _strIndicatorName$[ebp]
  001b8	b9 00 00 00 00	 mov	 ecx, OFFSET ?g_iMetaTable@@3VIMetaTable@@A ; g_iMetaTable
  001bd	89 45 08	 mov	 DWORD PTR _nIndex$1$[ebp], eax
  001c0	6a 02		 push	 2
  001c2	ff b3 98 00 00
	00		 push	 DWORD PTR [ebx+152]
  001c8	e8 00 00 00 00	 call	 ?GetLanguageText@IMetaTable@@QAEPBDPAUHWND__@@W4E_CODEPAGE@1@PBDH@Z ; IMetaTable::GetLanguageText
; File C:\Program Files (x86)\Microsoft Visual Studio\2019\Community\VC\Tools\MSVC\14.29.30133\atlmfc\include\afxcmn.inl

; 165  : 	{ ASSERT(::IsWindow(m_hWnd)); return InsertItem(LVIF_TEXT, nItem, lpszItem, 0, 0, 0, 0); }

  001cd	6a 00		 push	 0
  001cf	6a 00		 push	 0
  001d1	6a 00		 push	 0
  001d3	6a 00		 push	 0
  001d5	50		 push	 eax
  001d6	ff 75 08	 push	 DWORD PTR _nIndex$1$[ebp]
  001d9	8b cb		 mov	 ecx, ebx
  001db	6a 01		 push	 1
  001dd	e8 00 00 00 00	 call	 ?InsertItem@CListCtrl@@QAEHIHPBDIIHJ@Z ; CListCtrl::InsertItem
; File D:\git\src\IBK\IBK_DRFN\ProjSrc\SrcChartEx\ChartAddIn\ChartEnvSetupDlgAddIn\ChartEnvSetupDlgAddIn\IndicatorNameListCtrl.cpp

; 629  : 		SetItemText( nIndex, 1, p_strGraphName);

  001e2	ff 75 ec	 push	 DWORD PTR _strGraphName$4[ebp]
  001e5	8b cb		 mov	 ecx, ebx
  001e7	6a 01		 push	 1
  001e9	ff 75 08	 push	 DWORD PTR _nIndex$1$[ebp]
  001ec	e8 00 00 00 00	 call	 ?SetItemText@CListCtrl@@QAEHHHPBD@Z ; CListCtrl::SetItemText

; 370  : 	if(nIndex != -1) 

  001f1	8b 45 08	 mov	 eax, DWORD PTR _nIndex$1$[ebp]
  001f4	83 f8 ff	 cmp	 eax, -1
  001f7	74 29		 je	 SHORT $LN73@OnDblclk

; 371  : 	{
; 372  : 		SetItemState( m_nSelectItemIndex, 0, LVIF_STATE); 

  001f9	6a 08		 push	 8
  001fb	6a 00		 push	 0
  001fd	ff b3 88 00 00
	00		 push	 DWORD PTR [ebx+136]
  00203	8b cb		 mov	 ecx, ebx
  00205	e8 00 00 00 00	 call	 ?SetItemState@CListCtrl@@QAEHHII@Z ; CListCtrl::SetItemState

; 373  : 		m_nSelectItemIndex = nIndex;

  0020a	8b 45 08	 mov	 eax, DWORD PTR _nIndex$1$[ebp]

; 374  : 		SetItemState( m_nSelectItemIndex, ~LVIS_SELECTED | LVIS_FOCUSED, LVIF_STATE); 

  0020d	8b cb		 mov	 ecx, ebx
  0020f	6a 08		 push	 8
  00211	6a fd		 push	 -3			; fffffffdH
  00213	50		 push	 eax
  00214	89 83 88 00 00
	00		 mov	 DWORD PTR [ebx+136], eax
  0021a	e8 00 00 00 00	 call	 ?SetItemState@CListCtrl@@QAEHHII@Z ; CListCtrl::SetItemState
  0021f	8b 45 08	 mov	 eax, DWORD PTR _nIndex$1$[ebp]
$LN73@OnDblclk:

; 633  : 		SetSelectItemIndex(	nIndex);

  00222	89 83 88 00 00
	00		 mov	 DWORD PTR [ebx+136], eax

; 634  : 		nmListView.iItem = nIndex;
; 635  : 		long lResult = 0;
; 636  : 		OnClick( ( NMHDR *)&nmListView, &lResult);

  00228	8b cb		 mov	 ecx, ebx
  0022a	89 45 c8	 mov	 DWORD PTR _nmListView$2[ebp+12], eax
  0022d	8d 45 08	 lea	 eax, DWORD PTR _lResult$5[ebp]
  00230	50		 push	 eax
  00231	8d 45 bc	 lea	 eax, DWORD PTR _nmListView$2[ebp]
  00234	50		 push	 eax
  00235	e8 00 00 00 00	 call	 ?OnClick@CIndicatorNameListCtrl@@QAEXPAUtagNMHDR@@PAJ@Z ; CIndicatorNameListCtrl::OnClick
$LN56@OnDblclk:

; 554  : 					{
; 555  : 						pUseGroupIndicatorNameListCtrl->AddGraph( strIndicatorName, strGraphName);
; 556  : 
; 557  : 						// (2007/4/23 - Seung-Won, Bae) Use Correct Names. 
; 558  : 						//		m_pParent->GetParent()->SelChangeGraph( GetItemText(m_nSelectItemIndex, 0), GetItemText(m_nSelectItemIndex, 1));
; 559  : 						m_pParent->GetParent()->SelChangeGraph( strIndicatorName, strGraphName);

  0023a	8b 8f 8c 00 00
	00		 mov	 ecx, DWORD PTR [edi+140]
  00240	8d 45 ec	 lea	 eax, DWORD PTR _strGraphName$4[ebp]
  00243	50		 push	 eax
  00244	8d 45 f0	 lea	 eax, DWORD PTR _strIndicatorName$[ebp]
  00247	50		 push	 eax
  00248	8b 49 0c	 mov	 ecx, DWORD PTR [ecx+12]
  0024b	e8 00 00 00 00	 call	 ?SelChangeGraph@CDlgMainTabIndicatorSetUp@@QAEXABV?$CStringT@DV?$StrTraitMFC_DLL@DV?$ChTraitsCRT@D@ATL@@@@@ATL@@0@Z ; CDlgMainTabIndicatorSetUp::SelChangeGraph

; 560  : 					}
; 561  : 				}
; 562  : 			}
; 563  : 			
; 564  : 		}
; 565  : 	}

  00250	e9 a6 00 00 00	 jmp	 $LN8@OnDblclk
$LN2@OnDblclk:

; 566  : 
; 567  : 	else if( m_pParent->GetGroupButtonCtrlType() == USE_GROUP )

  00255	83 f8 01	 cmp	 eax, 1
  00258	0f 85 a6 00 00
	00		 jne	 $LN14@OnDblclk

; 569  : 		if( strIndicatorName == _MTEXT(C2_PRICE_CHART))

  0025e	a1 54 00 00 00	 mov	 eax, DWORD PTR ?g_iMetaTable@@3VIMetaTable@@A+84
; File C:\Program Files (x86)\Microsoft Visual Studio\2019\Community\VC\Tools\MSVC\14.29.30133\atlmfc\include\cstringt.h

; 2486 : 		return(str1.Compare(psz2) == 0);

  00263	8d 4d f0	 lea	 ecx, DWORD PTR _strIndicatorName$[ebp]
  00266	ff b0 28 03 00
	00		 push	 DWORD PTR [eax+808]
  0026c	ff 15 00 00 00
	00		 call	 DWORD PTR __imp_?Compare@?$CStringT@DV?$StrTraitMFC_DLL@DV?$ChTraitsCRT@D@ATL@@@@@ATL@@QBEHPBD@Z
  00272	85 c0		 test	 eax, eax
; File D:\git\src\IBK\IBK_DRFN\ProjSrc\SrcChartEx\ChartAddIn\ChartEnvSetupDlgAddIn\ChartEnvSetupDlgAddIn\IndicatorNameListCtrl.cpp

; 569  : 		if( strIndicatorName == _MTEXT(C2_PRICE_CHART))

  00274	75 14		 jne	 SHORT $LN10@OnDblclk

; 570  : 		{
; 571  : 			AfxMessageBox( IDS_MSG_PRICECHART_DEL );

  00276	6a ff		 push	 -1
  00278	b8 04 00 00 00	 mov	 eax, 4
  0027d	6a 00		 push	 0
  0027f	50		 push	 eax
  00280	e8 00 00 00 00	 call	 ?AfxMessageBox@@YGHIII@Z ; AfxMessageBox
  00285	e9 83 00 00 00	 jmp	 $LN22@OnDblclk
$LN10@OnDblclk:

; 572  : 			return;
; 573  : 		}
; 574  : 		
; 575  : 		if(m_pParent != NULL)

  0028a	83 bf 8c 00 00
	00 00		 cmp	 DWORD PTR [edi+140], 0
  00291	74 71		 je	 SHORT $LN14@OnDblclk
; File C:\Program Files (x86)\Microsoft Visual Studio\2019\Community\VC\Tools\MSVC\14.29.30133\atlmfc\include\afxcmn.inl

; 155  : 	{ ASSERT(::IsWindow(m_hWnd)); return (int) ::SendMessage(m_hWnd, LVM_GETITEMCOUNT, 0, 0L); }

  00293	6a 00		 push	 0
  00295	6a 00		 push	 0
  00297	68 04 10 00 00	 push	 4100			; 00001004H
  0029c	ff 77 20	 push	 DWORD PTR [edi+32]
  0029f	ff 15 00 00 00
	00		 call	 DWORD PTR __imp__SendMessageA@16
; File D:\git\src\IBK\IBK_DRFN\ProjSrc\SrcChartEx\ChartAddIn\ChartEnvSetupDlgAddIn\ChartEnvSetupDlgAddIn\IndicatorNameListCtrl.cpp

; 577  : 			if( pNMListView->iItem > GetItemCount()) m_nSelectItemIndex = GetItemCount();

  002a5	8b 4b 0c	 mov	 ecx, DWORD PTR [ebx+12]
  002a8	3b c8		 cmp	 ecx, eax
  002aa	7e 09		 jle	 SHORT $LN13@OnDblclk
  002ac	8b cf		 mov	 ecx, edi
  002ae	e8 00 00 00 00	 call	 ?GetItemCount@CListCtrl@@QBEHXZ ; CListCtrl::GetItemCount
  002b3	8b c8		 mov	 ecx, eax
$LN13@OnDblclk:

; 578  : 			else m_nSelectItemIndex = pNMListView->iItem;
; 579  : // 2008.01.25 by LYH >>
; 580  : 			//if( m_pParent != NULL) m_pParent->GetParent()->RemoveGraph( GetItemText( m_nSelectItemIndex, 1));
; 581  : 			if( m_pParent != NULL) m_pParent->GetParent()->RemoveGraph( _LTOM2(GetItemText( m_nSelectItemIndex, 1)));

  002b5	89 8f 88 00 00
	00		 mov	 DWORD PTR [edi+136], ecx
  002bb	83 bf 8c 00 00
	00 00		 cmp	 DWORD PTR [edi+140], 0
  002c2	74 40		 je	 SHORT $LN14@OnDblclk
  002c4	6a 01		 push	 1
  002c6	51		 push	 ecx
  002c7	8d 45 ec	 lea	 eax, DWORD PTR $T3[ebp]
  002ca	8b cf		 mov	 ecx, edi
  002cc	50		 push	 eax
  002cd	e8 00 00 00 00	 call	 ?GetItemText@CListCtrl@@QBE?AV?$CStringT@DV?$StrTraitMFC_DLL@DV?$ChTraitsCRT@D@ATL@@@@@ATL@@HH@Z ; CListCtrl::GetItemText
  002d2	6a 00		 push	 0
  002d4	ff 30		 push	 DWORD PTR [eax]
  002d6	b9 00 00 00 00	 mov	 ecx, OFFSET ?g_iMetaTable@@3VIMetaTable@@A ; g_iMetaTable
  002db	c6 45 fc 07	 mov	 BYTE PTR __$EHRec$[ebp+8], 7
  002df	6a 02		 push	 2
  002e1	ff b7 98 00 00
	00		 push	 DWORD PTR [edi+152]
  002e7	e8 00 00 00 00	 call	 ?GetMetaText@IMetaTable@@QAEPBDPAUHWND__@@W4E_CODEPAGE@1@PBDH@Z ; IMetaTable::GetMetaText
  002ec	8b 8f 8c 00 00
	00		 mov	 ecx, DWORD PTR [edi+140]
  002f2	50		 push	 eax
  002f3	8b 49 0c	 mov	 ecx, DWORD PTR [ecx+12]
  002f6	e8 00 00 00 00	 call	 ?RemoveGraph@CDlgMainTabIndicatorSetUp@@QAEHPBD@Z ; CDlgMainTabIndicatorSetUp::RemoveGraph
$LN8@OnDblclk:

; 582  : // 2008.01.25 by LYH <<
; 583  : 		}
; 584  : 	}
; 585  : 
; 586  : 	*pResult = 0;

  002fb	8d 4d ec	 lea	 ecx, DWORD PTR $T3[ebp]
  002fe	ff 15 00 00 00
	00		 call	 DWORD PTR __imp_??1?$CStringT@DV?$StrTraitMFC_DLL@DV?$ChTraitsCRT@D@ATL@@@@@ATL@@QAE@XZ
$LN14@OnDblclk:
  00304	8b 45 0c	 mov	 eax, DWORD PTR _pResult$[ebp]
  00307	c7 00 00 00 00
	00		 mov	 DWORD PTR [eax], 0
$LN22@OnDblclk:

; 587  : }

  0030d	8d 4d f0	 lea	 ecx, DWORD PTR _strIndicatorName$[ebp]
  00310	ff 15 00 00 00
	00		 call	 DWORD PTR __imp_??1?$CStringT@DV?$StrTraitMFC_DLL@DV?$ChTraitsCRT@D@ATL@@@@@ATL@@QAE@XZ
; File D:\git\src\IBK\IBK_DRFN\ProjSrc\SrcChartEx\ChartAddIn\ChartEnvSetupDlgAddIn\Include_Chart\Dll_Load\IMetaTable.h

; 1036 : 	{

  00316	c7 45 fc 08 00
	00 00		 mov	 DWORD PTR __$EHRec$[ebp+8], 8
; File C:\Program Files (x86)\Microsoft Visual Studio\2019\Community\VC\Tools\MSVC\14.29.30133\atlmfc\include\afxwin1.inl

; 27   : 	{ ASSERT(hInstResource != NULL); afxCurrentResourceHandle = hInstResource; }

  0031d	e8 00 00 00 00	 call	 ?AfxGetModuleState@@YGPAVAFX_MODULE_STATE@@XZ ; AfxGetModuleState
  00322	89 70 0c	 mov	 DWORD PTR [eax+12], esi
; File D:\git\src\IBK\IBK_DRFN\ProjSrc\SrcChartEx\ChartAddIn\ChartEnvSetupDlgAddIn\ChartEnvSetupDlgAddIn\IndicatorNameListCtrl.cpp

; 587  : }

  00325	8b 4d f4	 mov	 ecx, DWORD PTR __$EHRec$[ebp]
  00328	64 89 0d 00 00
	00 00		 mov	 DWORD PTR fs:0, ecx
  0032f	59		 pop	 ecx
  00330	5f		 pop	 edi
  00331	5e		 pop	 esi
  00332	5b		 pop	 ebx
  00333	8b e5		 mov	 esp, ebp
  00335	5d		 pop	 ebp
  00336	c2 08 00	 ret	 8
_TEXT	ENDS
;	COMDAT text$x
text$x	SEGMENT
__unwindfunclet$?OnDblclk@CIndicatorNameListCtrl@@QAEXPAUtagNMHDR@@PAJ@Z$0:
  00000	8d 4d e8	 lea	 ecx, DWORD PTR ___mlrs__$[ebp]
  00003	e9 00 00 00 00	 jmp	 ??1CMultiLanguageResourceSetter@@QAE@XZ ; CMultiLanguageResourceSetter::~CMultiLanguageResourceSetter
__unwindfunclet$?OnDblclk@CIndicatorNameListCtrl@@QAEXPAUtagNMHDR@@PAJ@Z$1:
  00008	8d 4d 08	 lea	 ecx, DWORD PTR $T6[ebp]
  0000b	ff 25 00 00 00
	00		 jmp	 DWORD PTR __imp_??1?$CStringT@DV?$StrTraitMFC_DLL@DV?$ChTraitsCRT@D@ATL@@@@@ATL@@QAE@XZ
__unwindfunclet$?OnDblclk@CIndicatorNameListCtrl@@QAEXPAUtagNMHDR@@PAJ@Z$2:
  00011	8d 4d f0	 lea	 ecx, DWORD PTR _strIndicatorName$[ebp]
  00014	ff 25 00 00 00
	00		 jmp	 DWORD PTR __imp_??1?$CStringT@DV?$StrTraitMFC_DLL@DV?$ChTraitsCRT@D@ATL@@@@@ATL@@QAE@XZ
__unwindfunclet$?OnDblclk@CIndicatorNameListCtrl@@QAEXPAUtagNMHDR@@PAJ@Z$3:
  0001a	8d 4d ec	 lea	 ecx, DWORD PTR _strGraphName$4[ebp]
  0001d	ff 25 00 00 00
	00		 jmp	 DWORD PTR __imp_??1?$CStringT@DV?$StrTraitMFC_DLL@DV?$ChTraitsCRT@D@ATL@@@@@ATL@@QAE@XZ
__unwindfunclet$?OnDblclk@CIndicatorNameListCtrl@@QAEXPAUtagNMHDR@@PAJ@Z$4:
  00023	8d 4d ec	 lea	 ecx, DWORD PTR $T3[ebp]
  00026	ff 25 00 00 00
	00		 jmp	 DWORD PTR __imp_??1?$CStringT@DV?$StrTraitMFC_DLL@DV?$ChTraitsCRT@D@ATL@@@@@ATL@@QAE@XZ
  0002c	cc		 int	 3
  0002d	cc		 int	 3
  0002e	cc		 int	 3
  0002f	cc		 int	 3
  00030	cc		 int	 3
__ehhandler$?OnDblclk@CIndicatorNameListCtrl@@QAEXPAUtagNMHDR@@PAJ@Z:
  00031	90		 npad	 1
  00032	90		 npad	 1
  00033	8b 54 24 08	 mov	 edx, DWORD PTR [esp+8]
  00037	8d 42 0c	 lea	 eax, DWORD PTR [edx+12]
  0003a	8b 4a b8	 mov	 ecx, DWORD PTR [edx-72]
  0003d	33 c8		 xor	 ecx, eax
  0003f	e8 00 00 00 00	 call	 @__security_check_cookie@4
  00044	b8 00 00 00 00	 mov	 eax, OFFSET __ehfuncinfo$?OnDblclk@CIndicatorNameListCtrl@@QAEXPAUtagNMHDR@@PAJ@Z
  00049	e9 00 00 00 00	 jmp	 ___CxxFrameHandler3
text$x	ENDS
?OnDblclk@CIndicatorNameListCtrl@@QAEXPAUtagNMHDR@@PAJ@Z ENDP ; CIndicatorNameListCtrl::OnDblclk
; Function compile flags: /Ogtp
; File D:\git\src\IBK\IBK_DRFN\ProjSrc\SrcChartEx\ChartAddIn\ChartEnvSetupDlgAddIn\ChartEnvSetupDlgAddIn\IndicatorNameListCtrl.cpp
; File C:\Program Files (x86)\Microsoft Visual Studio\2019\Community\VC\Tools\MSVC\14.29.30133\atlmfc\include\afxwin2.inl
; File D:\git\src\IBK\IBK_DRFN\ProjSrc\SrcChartEx\ChartAddIn\ChartEnvSetupDlgAddIn\ChartEnvSetupDlgAddIn\IndicatorNameListCtrl.cpp
; File C:\Program Files (x86)\Microsoft Visual Studio\2019\Community\VC\Tools\MSVC\14.29.30133\atlmfc\include\afxwin2.inl
; File D:\git\src\IBK\IBK_DRFN\ProjSrc\SrcChartEx\ChartAddIn\ChartEnvSetupDlgAddIn\ChartEnvSetupDlgAddIn\IndicatorNameListCtrl.cpp
;	COMDAT ?OnDrawItem@CIndicatorNameListCtrl@@QAEXHPAUtagDRAWITEMSTRUCT@@@Z
_TEXT	SEGMENT
_nIDCtl$ = 8						; size = 4
_lpDrawItemStruct$ = 12					; size = 4
?OnDrawItem@CIndicatorNameListCtrl@@QAEXHPAUtagDRAWITEMSTRUCT@@@Z PROC ; CIndicatorNameListCtrl::OnDrawItem, COMDAT
; _this$ = ecx

; 513  : {

  00000	55		 push	 ebp
  00001	8b ec		 mov	 ebp, esp
  00003	56		 push	 esi
; File C:\Program Files (x86)\Microsoft Visual Studio\2019\Community\VC\Tools\MSVC\14.29.30133\atlmfc\include\afxwin2.inl

; 142  : 	{ ASSERT(::IsWindow(m_hWnd)); return ::RedrawWindow(m_hWnd, lpRectUpdate, (HRGN)prgnUpdate->GetSafeHandle(), flags); }

  00004	68 05 01 00 00	 push	 261			; 00000105H
; File D:\git\src\IBK\IBK_DRFN\ProjSrc\SrcChartEx\ChartAddIn\ChartEnvSetupDlgAddIn\ChartEnvSetupDlgAddIn\IndicatorNameListCtrl.cpp

; 513  : {

  00009	8b f1		 mov	 esi, ecx
; File C:\Program Files (x86)\Microsoft Visual Studio\2019\Community\VC\Tools\MSVC\14.29.30133\atlmfc\include\afxwin2.inl

; 142  : 	{ ASSERT(::IsWindow(m_hWnd)); return ::RedrawWindow(m_hWnd, lpRectUpdate, (HRGN)prgnUpdate->GetSafeHandle(), flags); }

  0000b	6a 00		 push	 0
  0000d	6a 00		 push	 0
  0000f	ff 76 20	 push	 DWORD PTR [esi+32]
  00012	ff 15 00 00 00
	00		 call	 DWORD PTR __imp__RedrawWindow@16
; File D:\git\src\IBK\IBK_DRFN\ProjSrc\SrcChartEx\ChartAddIn\ChartEnvSetupDlgAddIn\ChartEnvSetupDlgAddIn\IndicatorNameListCtrl.cpp

; 515  : 	CListCtrl::OnDrawItem(nIDCtl, lpDrawItemStruct);

  00018	ff 75 0c	 push	 DWORD PTR _lpDrawItemStruct$[ebp]
  0001b	8b ce		 mov	 ecx, esi
  0001d	ff 75 08	 push	 DWORD PTR _nIDCtl$[ebp]
  00020	e8 00 00 00 00	 call	 ?OnDrawItem@CWnd@@IAEXHPAUtagDRAWITEMSTRUCT@@@Z ; CWnd::OnDrawItem
  00025	5e		 pop	 esi

; 516  : }

  00026	5d		 pop	 ebp
  00027	c2 08 00	 ret	 8
?OnDrawItem@CIndicatorNameListCtrl@@QAEXHPAUtagDRAWITEMSTRUCT@@@Z ENDP ; CIndicatorNameListCtrl::OnDrawItem
_TEXT	ENDS
; Function compile flags: /Ogtp
; File D:\git\src\IBK\IBK_DRFN\ProjSrc\SrcChartEx\ChartAddIn\ChartEnvSetupDlgAddIn\ChartEnvSetupDlgAddIn\IndicatorNameListCtrl.cpp
; File C:\Program Files (x86)\Microsoft Visual Studio\2019\Community\VC\Tools\MSVC\14.29.30133\atlmfc\include\afxwin2.inl
; File D:\git\src\IBK\IBK_DRFN\ProjSrc\SrcChartEx\ChartAddIn\ChartEnvSetupDlgAddIn\ChartEnvSetupDlgAddIn\IndicatorNameListCtrl.cpp
; File C:\Program Files (x86)\Microsoft Visual Studio\2019\Community\VC\Tools\MSVC\14.29.30133\atlmfc\include\afxwin2.inl
; File D:\git\src\IBK\IBK_DRFN\ProjSrc\SrcChartEx\ChartAddIn\ChartEnvSetupDlgAddIn\ChartEnvSetupDlgAddIn\IndicatorNameListCtrl.cpp
; File C:\Program Files (x86)\Microsoft Visual Studio\2019\Community\VC\Tools\MSVC\14.29.30133\atlmfc\include\afxwin2.inl
; File D:\git\src\IBK\IBK_DRFN\ProjSrc\SrcChartEx\ChartAddIn\ChartEnvSetupDlgAddIn\ChartEnvSetupDlgAddIn\IndicatorNameListCtrl.cpp
;	COMDAT ?OnClick@CIndicatorNameListCtrl@@QAEXPAUtagNMHDR@@PAJ@Z
_TEXT	SEGMENT
$T2 = -20						; size = 4
$T3 = -16						; size = 4
__$EHRec$ = -12						; size = 12
_szIndicatorName$4 = 8					; size = 4
_pNMHDR$ = 8						; size = 4
_pResult$ = 12						; size = 4
?OnClick@CIndicatorNameListCtrl@@QAEXPAUtagNMHDR@@PAJ@Z PROC ; CIndicatorNameListCtrl::OnClick, COMDAT
; _this$ = ecx

; 461  : {

  00000	55		 push	 ebp
  00001	8b ec		 mov	 ebp, esp
  00003	6a ff		 push	 -1
  00005	68 00 00 00 00	 push	 __ehhandler$?OnClick@CIndicatorNameListCtrl@@QAEXPAUtagNMHDR@@PAJ@Z
  0000a	64 a1 00 00 00
	00		 mov	 eax, DWORD PTR fs:0
  00010	50		 push	 eax
  00011	83 ec 08	 sub	 esp, 8
  00014	53		 push	 ebx
  00015	56		 push	 esi
  00016	57		 push	 edi
  00017	a1 00 00 00 00	 mov	 eax, DWORD PTR ___security_cookie
  0001c	33 c5		 xor	 eax, ebp
  0001e	50		 push	 eax
  0001f	8d 45 f4	 lea	 eax, DWORD PTR __$EHRec$[ebp]
  00022	64 a3 00 00 00
	00		 mov	 DWORD PTR fs:0, eax
  00028	8b f1		 mov	 esi, ecx

; 462  : 	NM_LISTVIEW* pNMListView = (NM_LISTVIEW*)pNMHDR;
; 463  : 
; 464  : 	if(m_nSelectItemIndex != pNMListView->iItem) 

  0002a	8b 5d 08	 mov	 ebx, DWORD PTR _pNMHDR$[ebp]
  0002d	8b 86 88 00 00
	00		 mov	 eax, DWORD PTR [esi+136]
  00033	3b 43 0c	 cmp	 eax, DWORD PTR [ebx+12]
  00036	0f 84 bf 00 00
	00		 je	 $LN2@OnClick

; 600  : 	if( m_pParent->GetGroupButtonCtrlType() == GENERAL_GROUP )		// General

  0003c	8b 8e 8c 00 00
	00		 mov	 ecx, DWORD PTR [esi+140]
  00042	33 ff		 xor	 edi, edi
  00044	8b 41 74	 mov	 eax, DWORD PTR [ecx+116]
  00047	85 c0		 test	 eax, eax
  00049	75 0b		 jne	 SHORT $LN13@OnClick

; 601  : 	{
; 602  : 		pOtherIndicatorNameListCtrl = (m_pParent->GetParent()->m_ctrlUseGroupButton).GetSelectListCtrl();

  0004b	8b 49 0c	 mov	 ecx, DWORD PTR [ecx+12]
  0004e	81 c1 78 02 00
	00		 add	 ecx, 632		; 00000278H

; 603  : 		CButton *pBtnWithDefault = (CButton *)(m_pParent->GetParent()->GetDlgItem(IDC_BTN_WITH_DEFAULT));
; 604  : 		pBtnWithDefault->ShowWindow( SW_HIDE );
; 605  : 	}

  00054	eb 0e		 jmp	 SHORT $LN31@OnClick
$LN13@OnClick:

; 606  : 
; 607  : 	else if( m_pParent->GetGroupButtonCtrlType() == USE_GROUP )

  00056	83 f8 01	 cmp	 eax, 1
  00059	75 2e		 jne	 SHORT $LN15@OnClick

; 608  : 	{
; 609  : 		pOtherIndicatorNameListCtrl = (m_pParent->GetParent()->m_ctrlGroupButton).GetSelectListCtrl();

  0005b	8b 49 0c	 mov	 ecx, DWORD PTR [ecx+12]
  0005e	81 c1 fc 01 00
	00		 add	 ecx, 508		; 000001fcH
$LN31@OnClick:

; 387  : 	SetItemState(m_nSelectItemIndex, LVIS_SELECTED , LVIF_STATE);	

  00064	6a ff		 push	 -1
  00066	e8 00 00 00 00	 call	 ?GetSelectListCtrl@CGroupButtonCtrl@@QAEPAVCIndicatorNameListCtrl@@H@Z ; CGroupButtonCtrl::GetSelectListCtrl
  0006b	8b 8e 8c 00 00
	00		 mov	 ecx, DWORD PTR [esi+140]
  00071	8b f8		 mov	 edi, eax
  00073	68 51 1f 00 00	 push	 8017			; 00001f51H
  00078	8b 49 0c	 mov	 ecx, DWORD PTR [ecx+12]
  0007b	e8 00 00 00 00	 call	 ?GetDlgItem@CWnd@@QBEPAV1@H@Z ; CWnd::GetDlgItem
  00080	6a 00		 push	 0
  00082	8b c8		 mov	 ecx, eax
  00084	e8 00 00 00 00	 call	 ?ShowWindow@CWnd@@QAEHH@Z ; CWnd::ShowWindow
$LN15@OnClick:
  00089	6a 08		 push	 8
  0008b	6a 02		 push	 2
  0008d	ff b7 88 00 00
	00		 push	 DWORD PTR [edi+136]
  00093	8b cf		 mov	 ecx, edi
  00095	e8 00 00 00 00	 call	 ?SetItemState@CListCtrl@@QAEHHII@Z ; CListCtrl::SetItemState
; File C:\Program Files (x86)\Microsoft Visual Studio\2019\Community\VC\Tools\MSVC\14.29.30133\atlmfc\include\afxwin2.inl

; 32   : 	{ ASSERT(::IsWindow(m_hWnd)); return ::SendMessage(m_hWnd, message, wParam, lParam); }

  0009a	6a 00		 push	 0
  0009c	6a 00		 push	 0
  0009e	6a 08		 push	 8
  000a0	ff 77 20	 push	 DWORD PTR [edi+32]
; File D:\git\src\IBK\IBK_DRFN\ProjSrc\SrcChartEx\ChartAddIn\ChartEnvSetupDlgAddIn\ChartEnvSetupDlgAddIn\IndicatorNameListCtrl.cpp

; 390  : 	m_nSelectItemIndex = -1;

  000a3	c7 87 88 00 00
	00 ff ff ff ff	 mov	 DWORD PTR [edi+136], -1
; File C:\Program Files (x86)\Microsoft Visual Studio\2019\Community\VC\Tools\MSVC\14.29.30133\atlmfc\include\afxwin2.inl

; 32   : 	{ ASSERT(::IsWindow(m_hWnd)); return ::SendMessage(m_hWnd, message, wParam, lParam); }

  000ad	ff 15 00 00 00
	00		 call	 DWORD PTR __imp__SendMessageA@16
; File D:\git\src\IBK\IBK_DRFN\ProjSrc\SrcChartEx\ChartAddIn\ChartEnvSetupDlgAddIn\ChartEnvSetupDlgAddIn\IndicatorNameListCtrl.cpp

; 469  : 		if( pNMListView->iItem == -1 )

  000b3	83 7b 0c ff	 cmp	 DWORD PTR [ebx+12], -1
  000b7	0f 84 30 01 00
	00		 je	 $LN1@OnClick

; 470  : 			return;
; 471  : 		SetItemState(m_nSelectItemIndex, LVIS_SELECTED, LVIF_STATE); 

  000bd	6a 08		 push	 8
  000bf	6a 02		 push	 2
  000c1	ff b6 88 00 00
	00		 push	 DWORD PTR [esi+136]
  000c7	8b ce		 mov	 ecx, esi
  000c9	e8 00 00 00 00	 call	 ?SetItemState@CListCtrl@@QAEHHII@Z ; CListCtrl::SetItemState

; 472  : 		SetFocusItem(pNMListView->iItem);

  000ce	8b 7b 0c	 mov	 edi, DWORD PTR [ebx+12]

; 370  : 	if(nIndex != -1) 

  000d1	83 ff ff	 cmp	 edi, -1
  000d4	74 34		 je	 SHORT $LN3@OnClick

; 371  : 	{
; 372  : 		SetItemState( m_nSelectItemIndex, 0, LVIF_STATE); 

  000d6	6a 08		 push	 8
  000d8	6a 00		 push	 0
  000da	ff b6 88 00 00
	00		 push	 DWORD PTR [esi+136]
  000e0	8b ce		 mov	 ecx, esi
  000e2	e8 00 00 00 00	 call	 ?SetItemState@CListCtrl@@QAEHHII@Z ; CListCtrl::SetItemState

; 373  : 		m_nSelectItemIndex = nIndex;
; 374  : 		SetItemState( m_nSelectItemIndex, ~LVIS_SELECTED | LVIS_FOCUSED, LVIF_STATE); 

  000e7	6a 08		 push	 8
  000e9	6a fd		 push	 -3			; fffffffdH
  000eb	57		 push	 edi
  000ec	8b ce		 mov	 ecx, esi
  000ee	89 be 88 00 00
	00		 mov	 DWORD PTR [esi+136], edi
  000f4	e8 00 00 00 00	 call	 ?SetItemState@CListCtrl@@QAEHHII@Z ; CListCtrl::SetItemState

; 473  : 	}

  000f9	eb 0f		 jmp	 SHORT $LN3@OnClick
$LN2@OnClick:
; File C:\Program Files (x86)\Microsoft Visual Studio\2019\Community\VC\Tools\MSVC\14.29.30133\atlmfc\include\afxwin2.inl

; 32   : 	{ ASSERT(::IsWindow(m_hWnd)); return ::SendMessage(m_hWnd, message, wParam, lParam); }

  000fb	6a 00		 push	 0
  000fd	6a 00		 push	 0
  000ff	6a 08		 push	 8
  00101	ff 76 20	 push	 DWORD PTR [esi+32]
  00104	ff 15 00 00 00
	00		 call	 DWORD PTR __imp__SendMessageA@16
$LN3@OnClick:
; File D:\git\src\IBK\IBK_DRFN\ProjSrc\SrcChartEx\ChartAddIn\ChartEnvSetupDlgAddIn\ChartEnvSetupDlgAddIn\IndicatorNameListCtrl.cpp

; 477  : 	if(m_pParent != NULL) if( m_pParent->GetGroupButtonCtrlType() == USE_GROUP)

  0010a	8b 86 8c 00 00
	00		 mov	 eax, DWORD PTR [esi+140]
  00110	85 c0		 test	 eax, eax
  00112	0f 84 cc 00 00
	00		 je	 $LN6@OnClick
  00118	83 78 74 01	 cmp	 DWORD PTR [eax+116], 1
  0011c	0f 85 c2 00 00
	00		 jne	 $LN6@OnClick

; 478  : 	{
; 479  : 		CString szIndicatorName = GetItemText( m_nSelectItemIndex, 0);

  00122	6a 00		 push	 0
  00124	ff b6 88 00 00
	00		 push	 DWORD PTR [esi+136]
  0012a	8d 45 08	 lea	 eax, DWORD PTR _szIndicatorName$4[ebp]
  0012d	8b ce		 mov	 ecx, esi
  0012f	50		 push	 eax
  00130	e8 00 00 00 00	 call	 ?GetItemText@CListCtrl@@QBE?AV?$CStringT@DV?$StrTraitMFC_DLL@DV?$ChTraitsCRT@D@ATL@@@@@ATL@@HH@Z ; CListCtrl::GetItemText

; 480  : // 2008.01.25 by LYH >>
; 481  : 		//m_pParent->GetParent()->SelChangeGraph( szIndicatorName, GetItemText( m_nSelectItemIndex, 1));
; 482  : 		m_pParent->GetParent()->SelChangeGraph( _LTOM2(szIndicatorName), GetItemText( m_nSelectItemIndex, 1));

  00135	6a 00		 push	 0
  00137	ff 75 08	 push	 DWORD PTR _szIndicatorName$4[ebp]
  0013a	b9 00 00 00 00	 mov	 ecx, OFFSET ?g_iMetaTable@@3VIMetaTable@@A ; g_iMetaTable
  0013f	c7 45 fc 00 00
	00 00		 mov	 DWORD PTR __$EHRec$[ebp+8], 0
  00146	6a 02		 push	 2
  00148	ff b6 98 00 00
	00		 push	 DWORD PTR [esi+152]
  0014e	e8 00 00 00 00	 call	 ?GetMetaText@IMetaTable@@QAEPBDPAUHWND__@@W4E_CODEPAGE@1@PBDH@Z ; IMetaTable::GetMetaText
  00153	50		 push	 eax
  00154	8d 4d f0	 lea	 ecx, DWORD PTR $T3[ebp]
  00157	ff 15 00 00 00
	00		 call	 DWORD PTR __imp_??0?$CStringT@DV?$StrTraitMFC_DLL@DV?$ChTraitsCRT@D@ATL@@@@@ATL@@QAE@PBD@Z
  0015d	6a 01		 push	 1
  0015f	ff b6 88 00 00
	00		 push	 DWORD PTR [esi+136]
  00165	8d 45 ec	 lea	 eax, DWORD PTR $T2[ebp]
  00168	c6 45 fc 01	 mov	 BYTE PTR __$EHRec$[ebp+8], 1
  0016c	50		 push	 eax
  0016d	8b ce		 mov	 ecx, esi
  0016f	e8 00 00 00 00	 call	 ?GetItemText@CListCtrl@@QBE?AV?$CStringT@DV?$StrTraitMFC_DLL@DV?$ChTraitsCRT@D@ATL@@@@@ATL@@HH@Z ; CListCtrl::GetItemText
  00174	8b 8e 8c 00 00
	00		 mov	 ecx, DWORD PTR [esi+140]
  0017a	50		 push	 eax
  0017b	8d 45 f0	 lea	 eax, DWORD PTR $T3[ebp]
  0017e	c6 45 fc 02	 mov	 BYTE PTR __$EHRec$[ebp+8], 2
  00182	50		 push	 eax
  00183	8b 49 0c	 mov	 ecx, DWORD PTR [ecx+12]
  00186	e8 00 00 00 00	 call	 ?SelChangeGraph@CDlgMainTabIndicatorSetUp@@QAEXABV?$CStringT@DV?$StrTraitMFC_DLL@DV?$ChTraitsCRT@D@ATL@@@@@ATL@@0@Z ; CDlgMainTabIndicatorSetUp::SelChangeGraph
  0018b	8d 4d ec	 lea	 ecx, DWORD PTR $T2[ebp]
  0018e	ff 15 00 00 00
	00		 call	 DWORD PTR __imp_??1?$CStringT@DV?$StrTraitMFC_DLL@DV?$ChTraitsCRT@D@ATL@@@@@ATL@@QAE@XZ
  00194	8d 4d f0	 lea	 ecx, DWORD PTR $T3[ebp]
  00197	c6 45 fc 00	 mov	 BYTE PTR __$EHRec$[ebp+8], 0
  0019b	ff 15 00 00 00
	00		 call	 DWORD PTR __imp_??1?$CStringT@DV?$StrTraitMFC_DLL@DV?$ChTraitsCRT@D@ATL@@@@@ATL@@QAE@XZ

; 483  : // 2008.01.25 by LYH <<
; 484  : 
; 485  : 		if( szIndicatorName.Find( '&' ) ) szIndicatorName.Replace("&", "&&");

  001a1	6a 00		 push	 0
  001a3	6a 26		 push	 38			; 00000026H
  001a5	8d 4d 08	 lea	 ecx, DWORD PTR _szIndicatorName$4[ebp]
  001a8	ff 15 00 00 00
	00		 call	 DWORD PTR __imp_?Find@?$CStringT@DV?$StrTraitMFC_DLL@DV?$ChTraitsCRT@D@ATL@@@@@ATL@@QBEHDH@Z
  001ae	85 c0		 test	 eax, eax
  001b0	74 13		 je	 SHORT $LN7@OnClick
  001b2	68 00 00 00 00	 push	 OFFSET ??_C@_02PPKAJPJL@?$CG?$CG@
  001b7	68 00 00 00 00	 push	 OFFSET ??_C@_01HNPIGOCE@?$CG@
  001bc	8d 4d 08	 lea	 ecx, DWORD PTR _szIndicatorName$4[ebp]
  001bf	ff 15 00 00 00
	00		 call	 DWORD PTR __imp_?Replace@?$CStringT@DV?$StrTraitMFC_DLL@DV?$ChTraitsCRT@D@ATL@@@@@ATL@@QAEHPBD0@Z
$LN7@OnClick:

; 486  : 		m_pParent->GetParent()->SetDlgItemText( IDC_STATIC_INDICATOR_NAME, szIndicatorName);

  001c5	8b 8e 8c 00 00
	00		 mov	 ecx, DWORD PTR [esi+140]
  001cb	ff 75 08	 push	 DWORD PTR _szIndicatorName$4[ebp]
  001ce	68 8c 17 00 00	 push	 6028			; 0000178cH
  001d3	8b 49 0c	 mov	 ecx, DWORD PTR [ecx+12]
  001d6	e8 00 00 00 00	 call	 ?SetDlgItemTextA@CWnd@@QAEXHPBD@Z ; CWnd::SetDlgItemTextA

; 487  : 	}

  001db	8d 4d 08	 lea	 ecx, DWORD PTR _szIndicatorName$4[ebp]
  001de	ff 15 00 00 00
	00		 call	 DWORD PTR __imp_??1?$CStringT@DV?$StrTraitMFC_DLL@DV?$ChTraitsCRT@D@ATL@@@@@ATL@@QAE@XZ
$LN6@OnClick:

; 488  : 
; 489  : 	*pResult = 0;

  001e4	8b 45 0c	 mov	 eax, DWORD PTR _pResult$[ebp]
  001e7	c7 00 00 00 00
	00		 mov	 DWORD PTR [eax], 0
$LN1@OnClick:

; 490  : }

  001ed	8b 4d f4	 mov	 ecx, DWORD PTR __$EHRec$[ebp]
  001f0	64 89 0d 00 00
	00 00		 mov	 DWORD PTR fs:0, ecx
  001f7	59		 pop	 ecx
  001f8	5f		 pop	 edi
  001f9	5e		 pop	 esi
  001fa	5b		 pop	 ebx
  001fb	8b e5		 mov	 esp, ebp
  001fd	5d		 pop	 ebp
  001fe	c2 08 00	 ret	 8
_TEXT	ENDS
;	COMDAT text$x
text$x	SEGMENT
__unwindfunclet$?OnClick@CIndicatorNameListCtrl@@QAEXPAUtagNMHDR@@PAJ@Z$0:
  00000	8d 4d 08	 lea	 ecx, DWORD PTR _szIndicatorName$4[ebp]
  00003	ff 25 00 00 00
	00		 jmp	 DWORD PTR __imp_??1?$CStringT@DV?$StrTraitMFC_DLL@DV?$ChTraitsCRT@D@ATL@@@@@ATL@@QAE@XZ
__unwindfunclet$?OnClick@CIndicatorNameListCtrl@@QAEXPAUtagNMHDR@@PAJ@Z$1:
  00009	8d 4d f0	 lea	 ecx, DWORD PTR $T3[ebp]
  0000c	ff 25 00 00 00
	00		 jmp	 DWORD PTR __imp_??1?$CStringT@DV?$StrTraitMFC_DLL@DV?$ChTraitsCRT@D@ATL@@@@@ATL@@QAE@XZ
__unwindfunclet$?OnClick@CIndicatorNameListCtrl@@QAEXPAUtagNMHDR@@PAJ@Z$2:
  00012	8d 4d ec	 lea	 ecx, DWORD PTR $T2[ebp]
  00015	ff 25 00 00 00
	00		 jmp	 DWORD PTR __imp_??1?$CStringT@DV?$StrTraitMFC_DLL@DV?$ChTraitsCRT@D@ATL@@@@@ATL@@QAE@XZ
  0001b	cc		 int	 3
  0001c	cc		 int	 3
  0001d	cc		 int	 3
  0001e	cc		 int	 3
  0001f	cc		 int	 3
__ehhandler$?OnClick@CIndicatorNameListCtrl@@QAEXPAUtagNMHDR@@PAJ@Z:
  00020	90		 npad	 1
  00021	90		 npad	 1
  00022	8b 54 24 08	 mov	 edx, DWORD PTR [esp+8]
  00026	8d 42 0c	 lea	 eax, DWORD PTR [edx+12]
  00029	8b 4a e8	 mov	 ecx, DWORD PTR [edx-24]
  0002c	33 c8		 xor	 ecx, eax
  0002e	e8 00 00 00 00	 call	 @__security_check_cookie@4
  00033	b8 00 00 00 00	 mov	 eax, OFFSET __ehfuncinfo$?OnClick@CIndicatorNameListCtrl@@QAEXPAUtagNMHDR@@PAJ@Z
  00038	e9 00 00 00 00	 jmp	 ___CxxFrameHandler3
text$x	ENDS
?OnClick@CIndicatorNameListCtrl@@QAEXPAUtagNMHDR@@PAJ@Z ENDP ; CIndicatorNameListCtrl::OnClick
; Function compile flags: /Ogtp
; File D:\git\src\IBK\IBK_DRFN\ProjSrc\SrcChartEx\ChartAddIn\ChartEnvSetupDlgAddIn\ChartEnvSetupDlgAddIn\IndicatorNameListCtrl.cpp
; File C:\Program Files (x86)\Microsoft Visual Studio\2019\Community\VC\Tools\MSVC\14.29.30133\atlmfc\include\cstringt.h
; File D:\git\src\IBK\IBK_DRFN\ProjSrc\SrcChartEx\ChartAddIn\ChartEnvSetupDlgAddIn\ChartEnvSetupDlgAddIn\IndicatorNameListCtrl.cpp
; File C:\Program Files (x86)\Microsoft Visual Studio\2019\Community\VC\Tools\MSVC\14.29.30133\atlmfc\include\cstringt.h
; File D:\git\src\IBK\IBK_DRFN\ProjSrc\SrcChartEx\ChartAddIn\ChartEnvSetupDlgAddIn\ChartEnvSetupDlgAddIn\IndicatorNameListCtrl.cpp
; File C:\Program Files (x86)\Microsoft Visual Studio\2019\Community\VC\Tools\MSVC\14.29.30133\atlmfc\include\cstringt.h
; File D:\git\src\IBK\IBK_DRFN\ProjSrc\SrcChartEx\ChartAddIn\ChartEnvSetupDlgAddIn\ChartEnvSetupDlgAddIn\IndicatorNameListCtrl.cpp
; File C:\Program Files (x86)\Microsoft Visual Studio\2019\Community\VC\Tools\MSVC\14.29.30133\atlmfc\include\cstringt.h
; File D:\git\src\IBK\IBK_DRFN\ProjSrc\SrcChartEx\ChartAddIn\ChartEnvSetupDlgAddIn\ChartEnvSetupDlgAddIn\IndicatorNameListCtrl.cpp
;	COMDAT ?OnItemchanged@CIndicatorNameListCtrl@@QAEXPAUtagNMHDR@@PAJ@Z
_TEXT	SEGMENT
__$EHRec$ = -12						; size = 12
$T2 = 8							; size = 4
$T3 = 8							; size = 4
_pNMHDR$ = 8						; size = 4
tv402 = 12						; size = 4
$T4 = 12						; size = 4
_strGraphName$5 = 12					; size = 4
$T6 = 12						; size = 4
_pResult$ = 12						; size = 4
?OnItemchanged@CIndicatorNameListCtrl@@QAEXPAUtagNMHDR@@PAJ@Z PROC ; CIndicatorNameListCtrl::OnItemchanged, COMDAT
; _this$ = ecx

; 402  : {

  00000	55		 push	 ebp
  00001	8b ec		 mov	 ebp, esp
  00003	6a ff		 push	 -1
  00005	68 00 00 00 00	 push	 __ehhandler$?OnItemchanged@CIndicatorNameListCtrl@@QAEXPAUtagNMHDR@@PAJ@Z
  0000a	64 a1 00 00 00
	00		 mov	 eax, DWORD PTR fs:0
  00010	50		 push	 eax
  00011	53		 push	 ebx
  00012	56		 push	 esi
  00013	57		 push	 edi
  00014	a1 00 00 00 00	 mov	 eax, DWORD PTR ___security_cookie
  00019	33 c5		 xor	 eax, ebp
  0001b	50		 push	 eax
  0001c	8d 45 f4	 lea	 eax, DWORD PTR __$EHRec$[ebp]
  0001f	64 a3 00 00 00
	00		 mov	 DWORD PTR fs:0, eax
  00025	8b f9		 mov	 edi, ecx

; 403  : 	NM_LISTVIEW* pNMListView = (NM_LISTVIEW*)pNMHDR;
; 404  : 	*pResult = 0;

  00027	8b 45 0c	 mov	 eax, DWORD PTR _pResult$[ebp]

; 405  : 
; 406  : 	if (pNMListView->uOldState == 0 && pNMListView->uNewState == 0)

  0002a	8b 75 08	 mov	 esi, DWORD PTR _pNMHDR$[ebp]
  0002d	c7 00 00 00 00
	00		 mov	 DWORD PTR [eax], 0
  00033	8b 56 18	 mov	 edx, DWORD PTR [esi+24]
  00036	85 d2		 test	 edx, edx
  00038	75 09		 jne	 SHORT $LN26@OnItemchan
  0003a	39 56 14	 cmp	 DWORD PTR [esi+20], edx
  0003d	0f 84 99 01 00
	00		 je	 $LN12@OnItemchan
$LN26@OnItemchan:

; 407  : 		return;	// No change
; 408  : 
; 409  : 	// Old check box state
; 410  : 	BOOL bPrevState = (BOOL)(((pNMListView->uOldState & LVIS_STATEIMAGEMASK)>>12)-1);   // Old check box state
; 411  : 	if (bPrevState < 0)	// On startup there's no previous state 
; 412  : 		bPrevState = 0; // so assign as false (unchecked)
; 413  : 
; 414  : 	// New check box state
; 415  : 	BOOL bChecked=(BOOL)(((pNMListView->uNewState & LVIS_STATEIMAGEMASK)>>12)-1);   

  00043	8b 4e 14	 mov	 ecx, DWORD PTR [esi+20]

; 416  : 	if (bChecked < 0) // On non-checkbox notifications assume false
; 417  : 		bChecked = 0; 
; 418  : 
; 419  : 	if (bPrevState == bChecked) // No change in check box

  00046	33 db		 xor	 ebx, ebx
  00048	c1 e9 0c	 shr	 ecx, 12			; 0000000cH
  0004b	83 e1 0f	 and	 ecx, 15			; 0000000fH
  0004e	c1 ea 0c	 shr	 edx, 12			; 0000000cH
  00051	83 e2 0f	 and	 edx, 15			; 0000000fH
  00054	83 f9 01	 cmp	 ecx, 1
  00057	8d 41 ff	 lea	 eax, DWORD PTR [ecx-1]
  0005a	0f 43 d8	 cmovae	 ebx, eax
  0005d	33 c9		 xor	 ecx, ecx
  0005f	83 fa 01	 cmp	 edx, 1
  00062	89 5d 0c	 mov	 DWORD PTR tv402[ebp], ebx
  00065	8d 42 ff	 lea	 eax, DWORD PTR [edx-1]
  00068	0f 43 c8	 cmovae	 ecx, eax
  0006b	3b cb		 cmp	 ecx, ebx
  0006d	0f 84 69 01 00
	00		 je	 $LN12@OnItemchan

; 420  : 		return;
; 421  : 
; 422  : 	int iItem = pNMListView->iItem; 
; 423  : 
; 424  : 	// (04/08/04)     
; 425  : 	//    . T_T  ...!!
; 426  : 	// (05/01/19)  /     .
; 427  : 	if(!m_bInitCheckIndicator)

  00073	83 bf 90 00 00
	00 00		 cmp	 DWORD PTR [edi+144], 0
  0007a	8b 5e 0c	 mov	 ebx, DWORD PTR [esi+12]
  0007d	0f 85 59 01 00
	00		 jne	 $LN12@OnItemchan

; 428  : 	{
; 429  : 		if(bChecked)	//  

  00083	83 7d 0c 00	 cmp	 DWORD PTR tv402[ebp], 0
  00087	8d 45 0c	 lea	 eax, DWORD PTR $T6[ebp]
  0008a	6a 00		 push	 0
  0008c	53		 push	 ebx
  0008d	8b cf		 mov	 ecx, edi
  0008f	50		 push	 eax
  00090	0f 84 a4 00 00
	00		 je	 $LN7@OnItemchan

; 431  : 			if(GetItemText(iItem, 0) == _LTEXT2( C2_PRICE_CHART ))	//     .

  00096	e8 00 00 00 00	 call	 ?GetItemText@CListCtrl@@QBE?AV?$CStringT@DV?$StrTraitMFC_DLL@DV?$ChTraitsCRT@D@ATL@@@@@ATL@@HH@Z ; CListCtrl::GetItemText
  0009b	8b f0		 mov	 esi, eax
  0009d	8b 0d 54 00 00
	00		 mov	 ecx, DWORD PTR ?g_iMetaTable@@3VIMetaTable@@A+84
  000a3	6a 00		 push	 0
  000a5	c7 45 fc 00 00
	00 00		 mov	 DWORD PTR __$EHRec$[ebp+8], 0
  000ac	ff b1 28 03 00
	00		 push	 DWORD PTR [ecx+808]
  000b2	b9 00 00 00 00	 mov	 ecx, OFFSET ?g_iMetaTable@@3VIMetaTable@@A ; g_iMetaTable
  000b7	6a 02		 push	 2
  000b9	ff b7 98 00 00
	00		 push	 DWORD PTR [edi+152]
  000bf	e8 00 00 00 00	 call	 ?GetLanguageText@IMetaTable@@QAEPBDPAUHWND__@@W4E_CODEPAGE@1@PBDH@Z ; IMetaTable::GetLanguageText
; File C:\Program Files (x86)\Microsoft Visual Studio\2019\Community\VC\Tools\MSVC\14.29.30133\atlmfc\include\cstringt.h

; 2486 : 		return(str1.Compare(psz2) == 0);

  000c4	50		 push	 eax
  000c5	8b ce		 mov	 ecx, esi
  000c7	ff 15 00 00 00
	00		 call	 DWORD PTR __imp_?Compare@?$CStringT@DV?$StrTraitMFC_DLL@DV?$ChTraitsCRT@D@ATL@@@@@ATL@@QBEHPBD@Z
; File D:\git\src\IBK\IBK_DRFN\ProjSrc\SrcChartEx\ChartAddIn\ChartEnvSetupDlgAddIn\ChartEnvSetupDlgAddIn\IndicatorNameListCtrl.cpp

; 431  : 			if(GetItemText(iItem, 0) == _LTEXT2( C2_PRICE_CHART ))	//     .

  000cd	8d 4d 0c	 lea	 ecx, DWORD PTR $T6[ebp]
  000d0	c7 45 fc ff ff
	ff ff		 mov	 DWORD PTR __$EHRec$[ebp+8], -1
; File C:\Program Files (x86)\Microsoft Visual Studio\2019\Community\VC\Tools\MSVC\14.29.30133\atlmfc\include\cstringt.h

; 2486 : 		return(str1.Compare(psz2) == 0);

  000d7	8b f0		 mov	 esi, eax
; File D:\git\src\IBK\IBK_DRFN\ProjSrc\SrcChartEx\ChartAddIn\ChartEnvSetupDlgAddIn\ChartEnvSetupDlgAddIn\IndicatorNameListCtrl.cpp

; 431  : 			if(GetItemText(iItem, 0) == _LTEXT2( C2_PRICE_CHART ))	//     .

  000d9	ff 15 00 00 00
	00		 call	 DWORD PTR __imp_??1?$CStringT@DV?$StrTraitMFC_DLL@DV?$ChTraitsCRT@D@ATL@@@@@ATL@@QAE@XZ
  000df	85 f6		 test	 esi, esi
  000e1	0f 84 f5 00 00
	00		 je	 $LN12@OnItemchan

; 432  : 				return;
; 433  : 
; 434  : 			if( !m_pParent)

  000e7	83 bf 8c 00 00
	00 00		 cmp	 DWORD PTR [edi+140], 0
  000ee	0f 85 e8 00 00
	00		 jne	 $LN12@OnItemchan

; 435  : 			{
; 436  : 				CString strGraphName;

  000f4	8d 4d 0c	 lea	 ecx, DWORD PTR _strGraphName$5[ebp]
  000f7	ff 15 00 00 00
	00		 call	 DWORD PTR __imp_??0?$CStringT@DV?$StrTraitMFC_DLL@DV?$ChTraitsCRT@D@ATL@@@@@ATL@@QAE@XZ

; 437  : 				m_pParent->GetParent()->AddGraph( GetItemText( iItem, 0), strGraphName);

  000fd	6a 00		 push	 0
  000ff	53		 push	 ebx
  00100	8d 45 08	 lea	 eax, DWORD PTR $T3[ebp]
  00103	c7 45 fc 01 00
