; Listing generated by Microsoft (R) Optimizing Compiler Version 19.29.30145.0 

	TITLE	D:\git\src\IBK\IBK_DRFN\#DRfn-CS\_Obj\ChartEnvSetupDlgAddIn\NumSpinCtrl.obj
	.686P
	.XMM
	include listing.inc
	.model	flat

INCLUDELIB MSVCRT
INCLUDELIB OLDNAMES

PUBLIC	?__empty_global_delete@@YAXPAX@Z		; __empty_global_delete
PUBLIC	?__empty_global_delete@@YAXPAXI@Z		; __empty_global_delete
PUBLIC	?Serialize@CObject@@UAEXAAVCArchive@@@Z		; CObject::Serialize
PUBLIC	?AssertValid@CObject@@UBEXXZ			; CObject::AssertValid
PUBLIC	?Dump@CObject@@UBEXAAVCDumpContext@@@Z		; CObject::Dump
PUBLIC	?DoDataExchange@CWnd@@MAEXPAVCDataExchange@@@Z	; CWnd::DoDataExchange
PUBLIC	?BeginModalState@CWnd@@UAEXXZ			; CWnd::BeginModalState
PUBLIC	?EndModalState@CWnd@@UAEXXZ			; CWnd::EndModalState
PUBLIC	??_GCSpinButtonCtrl@@UAEPAXI@Z			; CSpinButtonCtrl::`scalar deleting destructor'
PUBLIC	?_GetBaseClass@CNumSpinCtrl@@KGPAUCRuntimeClass@@XZ ; CNumSpinCtrl::_GetBaseClass
PUBLIC	?GetThisClass@CNumSpinCtrl@@SGPAUCRuntimeClass@@XZ ; CNumSpinCtrl::GetThisClass
PUBLIC	?GetRuntimeClass@CNumSpinCtrl@@UBEPAUCRuntimeClass@@XZ ; CNumSpinCtrl::GetRuntimeClass
PUBLIC	??0CNumSpinCtrl@@QAE@XZ				; CNumSpinCtrl::CNumSpinCtrl
PUBLIC	?SetDelta@CNumSpinCtrl@@UAEXN@Z			; CNumSpinCtrl::SetDelta
PUBLIC	?GetDelta@CNumSpinCtrl@@UAENXZ			; CNumSpinCtrl::GetDelta
PUBLIC	?SetBuddy@CNumSpinCtrl@@UAEXPAVCNumEdit@@@Z	; CNumSpinCtrl::SetBuddy
PUBLIC	?GetBuddy@CNumSpinCtrl@@UBEPAVCNumEdit@@XZ	; CNumSpinCtrl::GetBuddy
PUBLIC	?GetRange@CNumSpinCtrl@@UBEXAAN0@Z		; CNumSpinCtrl::GetRange
PUBLIC	?SetRange@CNumSpinCtrl@@UAEXMM@Z		; CNumSpinCtrl::SetRange
PUBLIC	?GetPos@CNumSpinCtrl@@UAENXZ			; CNumSpinCtrl::GetPos
PUBLIC	?SetPos@CNumSpinCtrl@@UAEXM@Z			; CNumSpinCtrl::SetPos
PUBLIC	??1CNumSpinCtrl@@UAE@XZ				; CNumSpinCtrl::~CNumSpinCtrl
PUBLIC	?OnDeltapos@CNumSpinCtrl@@IAEXPAUtagNMHDR@@PAJ@Z ; CNumSpinCtrl::OnDeltapos
PUBLIC	?GetThisMessageMap@CNumSpinCtrl@@KGPBUAFX_MSGMAP@@XZ ; CNumSpinCtrl::GetThisMessageMap
PUBLIC	?GetMessageMap@CNumSpinCtrl@@MBEPBUAFX_MSGMAP@@XZ ; CNumSpinCtrl::GetMessageMap
PUBLIC	??_GCNumSpinCtrl@@UAEPAXI@Z			; CNumSpinCtrl::`scalar deleting destructor'
PUBLIC	??_7CSpinButtonCtrl@@6B@			; CSpinButtonCtrl::`vftable'
PUBLIC	??_R0?AVCObject@@@8				; CObject `RTTI Type Descriptor'
PUBLIC	??_R3CObject@@8					; CObject::`RTTI Class Hierarchy Descriptor'
PUBLIC	??_R2CObject@@8					; CObject::`RTTI Base Class Array'
PUBLIC	??_R1A@?0A@EA@CObject@@8			; CObject::`RTTI Base Class Descriptor at (0,-1,0,64)'
PUBLIC	??_R1A@?0A@EA@CWnd@@8				; CWnd::`RTTI Base Class Descriptor at (0,-1,0,64)'
PUBLIC	??_R0?AVCWnd@@@8				; CWnd `RTTI Type Descriptor'
PUBLIC	??_R3CWnd@@8					; CWnd::`RTTI Class Hierarchy Descriptor'
PUBLIC	??_R2CWnd@@8					; CWnd::`RTTI Base Class Array'
PUBLIC	??_R1A@?0A@EA@CCmdTarget@@8			; CCmdTarget::`RTTI Base Class Descriptor at (0,-1,0,64)'
PUBLIC	??_R0?AVCCmdTarget@@@8				; CCmdTarget `RTTI Type Descriptor'
PUBLIC	??_R3CCmdTarget@@8				; CCmdTarget::`RTTI Class Hierarchy Descriptor'
PUBLIC	??_R2CCmdTarget@@8				; CCmdTarget::`RTTI Base Class Array'
PUBLIC	??_R4CSpinButtonCtrl@@6B@			; CSpinButtonCtrl::`RTTI Complete Object Locator'
PUBLIC	??_R0?AVCSpinButtonCtrl@@@8			; CSpinButtonCtrl `RTTI Type Descriptor'
PUBLIC	??_R3CSpinButtonCtrl@@8				; CSpinButtonCtrl::`RTTI Class Hierarchy Descriptor'
PUBLIC	??_R2CSpinButtonCtrl@@8				; CSpinButtonCtrl::`RTTI Base Class Array'
PUBLIC	??_R1A@?0A@EA@CSpinButtonCtrl@@8		; CSpinButtonCtrl::`RTTI Base Class Descriptor at (0,-1,0,64)'
PUBLIC	?classCNumSpinCtrl@CNumSpinCtrl@@2UCRuntimeClass@@B ; CNumSpinCtrl::classCNumSpinCtrl
PUBLIC	??_7CNumSpinCtrl@@6B@				; CNumSpinCtrl::`vftable'
PUBLIC	??_C@_0N@CMJOFHHP@CNumSpinCtrl@			; `string'
PUBLIC	??_R4CNumSpinCtrl@@6B@				; CNumSpinCtrl::`RTTI Complete Object Locator'
PUBLIC	??_R0?AVCNumSpinCtrl@@@8			; CNumSpinCtrl `RTTI Type Descriptor'
PUBLIC	??_R3CNumSpinCtrl@@8				; CNumSpinCtrl::`RTTI Class Hierarchy Descriptor'
PUBLIC	??_R2CNumSpinCtrl@@8				; CNumSpinCtrl::`RTTI Base Class Array'
PUBLIC	??_R1A@?0A@EA@CNumSpinCtrl@@8			; CNumSpinCtrl::`RTTI Base Class Descriptor at (0,-1,0,64)'
PUBLIC	__real@0000000000000000
EXTRN	??3@YAXPAX@Z:PROC				; operator delete
EXTRN	?__global_delete@@YAXPAXI@Z:PROC		; __global_delete
EXTRN	__imp__SendMessageA@16:PROC
EXTRN	__imp__EnableWindow@8:PROC
EXTRN	?IsKindOf@CObject@@QBEHPBUCRuntimeClass@@@Z:PROC ; CObject::IsKindOf
EXTRN	?OnCmdMsg@CCmdTarget@@UAEHIHPAXPAUAFX_CMDHANDLERINFO@@@Z:PROC ; CCmdTarget::OnCmdMsg
EXTRN	?IsInvokeAllowed@CCmdTarget@@UAEHJ@Z:PROC	; CCmdTarget::IsInvokeAllowed
EXTRN	?GetDispatchIID@CCmdTarget@@UAEHPAU_GUID@@@Z:PROC ; CCmdTarget::GetDispatchIID
EXTRN	?GetTypeInfoCount@CCmdTarget@@UAEIXZ:PROC	; CCmdTarget::GetTypeInfoCount
EXTRN	?GetTypeLibCache@CCmdTarget@@UAEPAVCTypeLibCache@@XZ:PROC ; CCmdTarget::GetTypeLibCache
EXTRN	?GetTypeLib@CCmdTarget@@UAEJKPAPAUITypeLib@@@Z:PROC ; CCmdTarget::GetTypeLib
EXTRN	?GetCommandMap@CCmdTarget@@MBEPBUAFX_OLECMDMAP@@XZ:PROC ; CCmdTarget::GetCommandMap
EXTRN	?GetDispatchMap@CCmdTarget@@MBEPBUAFX_DISPMAP@@XZ:PROC ; CCmdTarget::GetDispatchMap
EXTRN	?GetConnectionMap@CCmdTarget@@MBEPBUAFX_CONNECTIONMAP@@XZ:PROC ; CCmdTarget::GetConnectionMap
EXTRN	?GetEventSinkMap@CCmdTarget@@MBEPBUAFX_EVENTSINKMAP@@XZ:PROC ; CCmdTarget::GetEventSinkMap
EXTRN	?OnCreateAggregates@CCmdTarget@@UAEHXZ:PROC	; CCmdTarget::OnCreateAggregates
EXTRN	?GetInterfaceHook@CCmdTarget@@UAEPAUIUnknown@@PBX@Z:PROC ; CCmdTarget::GetInterfaceHook
EXTRN	?GetExtraConnectionPoints@CCmdTarget@@MAEHPAVCPtrArray@@@Z:PROC ; CCmdTarget::GetExtraConnectionPoints
EXTRN	?GetConnectionHook@CCmdTarget@@MAEPAUIConnectionPoint@@ABU_GUID@@@Z:PROC ; CCmdTarget::GetConnectionHook
EXTRN	??0CWnd@@QAE@XZ:PROC				; CWnd::CWnd
EXTRN	?FromHandle@CWnd@@SGPAV1@PAUHWND__@@@Z:PROC	; CWnd::FromHandle
EXTRN	?PreSubclassWindow@CWnd@@UAEXXZ:PROC		; CWnd::PreSubclassWindow
EXTRN	?Create@CWnd@@UAEHPBD0KABUtagRECT@@PAV1@IPAUCCreateContext@@@Z:PROC ; CWnd::Create
EXTRN	?CreateEx@CWnd@@UAEHKPBD0KHHHHPAUHWND__@@PAUHMENU__@@PAX@Z:PROC ; CWnd::CreateEx
EXTRN	?CreateEx@CWnd@@UAEHKPBD0KABUtagRECT@@PAV1@IPAX@Z:PROC ; CWnd::CreateEx
EXTRN	?DestroyWindow@CWnd@@UAEHXZ:PROC		; CWnd::DestroyWindow
EXTRN	?PreCreateWindow@CWnd@@UAEHAAUtagCREATESTRUCTA@@@Z:PROC ; CWnd::PreCreateWindow
EXTRN	?CalcWindowRect@CWnd@@UAEXPAUtagRECT@@I@Z:PROC	; CWnd::CalcWindowRect
EXTRN	?GetMenu@CWnd@@UBEPAVCMenu@@XZ:PROC		; CWnd::GetMenu
EXTRN	?SetMenu@CWnd@@UAEHPAVCMenu@@@Z:PROC		; CWnd::SetMenu
EXTRN	?OnToolHitTest@CWnd@@UBEHVCPoint@@PAUtagTOOLINFOA@@@Z:PROC ; CWnd::OnToolHitTest
EXTRN	?GetScrollBarCtrl@CWnd@@UBEPAVCScrollBar@@H@Z:PROC ; CWnd::GetScrollBarCtrl
EXTRN	?WinHelpA@CWnd@@UAEXKI@Z:PROC			; CWnd::WinHelpA
EXTRN	?HtmlHelpA@CWnd@@UAEXKI@Z:PROC			; CWnd::HtmlHelpA
EXTRN	?WinHelpInternal@CWnd@@UAEXKI@Z:PROC		; CWnd::WinHelpInternal
EXTRN	?ContinueModal@CWnd@@UAEHXZ:PROC		; CWnd::ContinueModal
EXTRN	?EndModalLoop@CWnd@@UAEXH@Z:PROC		; CWnd::EndModalLoop
EXTRN	?OnDrawIconicThumbnailOrLivePreview@CWnd@@UAEXAAVCDC@@VCRect@@VCSize@@HAAH@Z:PROC ; CWnd::OnDrawIconicThumbnailOrLivePreview
EXTRN	?GetInterfaceMap@CWnd@@MBEPBUAFX_INTERFACEMAP@@XZ:PROC ; CWnd::GetInterfaceMap
EXTRN	?EnsureStdObj@CWnd@@UAEJXZ:PROC			; CWnd::EnsureStdObj
EXTRN	?get_accParent@CWnd@@UAEJPAPAUIDispatch@@@Z:PROC ; CWnd::get_accParent
EXTRN	?get_accChildCount@CWnd@@UAEJPAJ@Z:PROC		; CWnd::get_accChildCount
EXTRN	?get_accChild@CWnd@@UAEJUtagVARIANT@@PAPAUIDispatch@@@Z:PROC ; CWnd::get_accChild
EXTRN	?get_accName@CWnd@@UAEJUtagVARIANT@@PAPA_W@Z:PROC ; CWnd::get_accName
EXTRN	?get_accValue@CWnd@@UAEJUtagVARIANT@@PAPA_W@Z:PROC ; CWnd::get_accValue
EXTRN	?get_accDescription@CWnd@@UAEJUtagVARIANT@@PAPA_W@Z:PROC ; CWnd::get_accDescription
EXTRN	?get_accRole@CWnd@@UAEJUtagVARIANT@@PAU2@@Z:PROC ; CWnd::get_accRole
EXTRN	?get_accState@CWnd@@UAEJUtagVARIANT@@PAU2@@Z:PROC ; CWnd::get_accState
EXTRN	?get_accHelp@CWnd@@UAEJUtagVARIANT@@PAPA_W@Z:PROC ; CWnd::get_accHelp
EXTRN	?get_accHelpTopic@CWnd@@UAEJPAPA_WUtagVARIANT@@PAJ@Z:PROC ; CWnd::get_accHelpTopic
EXTRN	?get_accKeyboardShortcut@CWnd@@UAEJUtagVARIANT@@PAPA_W@Z:PROC ; CWnd::get_accKeyboardShortcut
EXTRN	?get_accFocus@CWnd@@UAEJPAUtagVARIANT@@@Z:PROC	; CWnd::get_accFocus
EXTRN	?get_accSelection@CWnd@@UAEJPAUtagVARIANT@@@Z:PROC ; CWnd::get_accSelection
EXTRN	?get_accDefaultAction@CWnd@@UAEJUtagVARIANT@@PAPA_W@Z:PROC ; CWnd::get_accDefaultAction
EXTRN	?accSelect@CWnd@@UAEJJUtagVARIANT@@@Z:PROC	; CWnd::accSelect
EXTRN	?accLocation@CWnd@@UAEJPAJ000UtagVARIANT@@@Z:PROC ; CWnd::accLocation
EXTRN	?accNavigate@CWnd@@UAEJJUtagVARIANT@@PAU2@@Z:PROC ; CWnd::accNavigate
EXTRN	?accHitTest@CWnd@@UAEJJJPAUtagVARIANT@@@Z:PROC	; CWnd::accHitTest
EXTRN	?accDoDefaultAction@CWnd@@UAEJUtagVARIANT@@@Z:PROC ; CWnd::accDoDefaultAction
EXTRN	?put_accName@CWnd@@UAEJUtagVARIANT@@PA_W@Z:PROC	; CWnd::put_accName
EXTRN	?put_accValue@CWnd@@UAEJUtagVARIANT@@PA_W@Z:PROC ; CWnd::put_accValue
EXTRN	?SetProxy@CWnd@@UAEJPAUIAccessibleProxy@@@Z:PROC ; CWnd::SetProxy
EXTRN	?CreateAccessibleProxy@CWnd@@UAEJIJPAJ@Z:PROC	; CWnd::CreateAccessibleProxy
EXTRN	?OnCommand@CWnd@@MAEHIJ@Z:PROC			; CWnd::OnCommand
EXTRN	?OnNotify@CWnd@@MAEHIJPAJ@Z:PROC		; CWnd::OnNotify
EXTRN	?GetSuperWndProcAddr@CWnd@@MAEPAP6GJPAUHWND__@@IIJ@ZXZ:PROC ; CWnd::GetSuperWndProcAddr
EXTRN	?PreTranslateMessage@CWnd@@UAEHPAUtagMSG@@@Z:PROC ; CWnd::PreTranslateMessage
EXTRN	?OnAmbientProperty@CWnd@@UAEHPAVCOleControlSite@@JPAUtagVARIANT@@@Z:PROC ; CWnd::OnAmbientProperty
EXTRN	?WindowProc@CWnd@@MAEJIIJ@Z:PROC		; CWnd::WindowProc
EXTRN	?OnWndMsg@CWnd@@MAEHIIJPAJ@Z:PROC		; CWnd::OnWndMsg
EXTRN	?DefWindowProcA@CWnd@@MAEJIIJ@Z:PROC		; CWnd::DefWindowProcA
EXTRN	?PostNcDestroy@CWnd@@MAEXXZ:PROC		; CWnd::PostNcDestroy
EXTRN	?OnChildNotify@CWnd@@MAEHIIJPAJ@Z:PROC		; CWnd::OnChildNotify
EXTRN	?OnTouchInputs@CWnd@@MAEHIPAUtagTOUCHINPUT@@@Z:PROC ; CWnd::OnTouchInputs
EXTRN	?OnTouchInput@CWnd@@MAEHVCPoint@@HHPAUtagTOUCHINPUT@@@Z:PROC ; CWnd::OnTouchInput
EXTRN	?GetGestureStatus@CWnd@@MAEKVCPoint@@@Z:PROC	; CWnd::GetGestureStatus
EXTRN	?OnGestureZoom@CWnd@@MAEHVCPoint@@J@Z:PROC	; CWnd::OnGestureZoom
EXTRN	?OnGesturePan@CWnd@@MAEHVCPoint@@0@Z:PROC	; CWnd::OnGesturePan
EXTRN	?OnGestureRotate@CWnd@@MAEHVCPoint@@N@Z:PROC	; CWnd::OnGestureRotate
EXTRN	?OnGestureTwoFingerTap@CWnd@@MAEHVCPoint@@@Z:PROC ; CWnd::OnGestureTwoFingerTap
EXTRN	?OnGesturePressAndTap@CWnd@@MAEHVCPoint@@J@Z:PROC ; CWnd::OnGesturePressAndTap
EXTRN	?ResizeDynamicLayout@CWnd@@MAEXXZ:PROC		; CWnd::ResizeDynamicLayout
EXTRN	?CheckAutoCenter@CWnd@@UAEHXZ:PROC		; CWnd::CheckAutoCenter
EXTRN	?IsFrameWnd@CWnd@@UBEHXZ:PROC			; CWnd::IsFrameWnd
EXTRN	?OnFinalRelease@CWnd@@UAEXXZ:PROC		; CWnd::OnFinalRelease
EXTRN	?CreateControlContainer@CWnd@@MAEHPAPAVCOleControlContainer@@@Z:PROC ; CWnd::CreateControlContainer
EXTRN	?CreateControlSite@CWnd@@MAEHPAVCOleControlContainer@@PAPAVCOleControlSite@@IABU_GUID@@@Z:PROC ; CWnd::CreateControlSite
EXTRN	?SetOccDialogInfo@CWnd@@MAEHPAU_AFX_OCC_DIALOG_INFO@@@Z:PROC ; CWnd::SetOccDialogInfo
EXTRN	?GetOccDialogInfo@CWnd@@MAEPAU_AFX_OCC_DIALOG_INFO@@XZ:PROC ; CWnd::GetOccDialogInfo
EXTRN	?GetThisMessageMap@CWnd@@KGPBUAFX_MSGMAP@@XZ:PROC ; CWnd::GetThisMessageMap
EXTRN	?GetMessageMap@CWnd@@MBEPBUAFX_MSGMAP@@XZ:PROC	; CWnd::GetMessageMap
EXTRN	?GetThisClass@CSpinButtonCtrl@@SGPAUCRuntimeClass@@XZ:PROC ; CSpinButtonCtrl::GetThisClass
EXTRN	?GetRuntimeClass@CSpinButtonCtrl@@UBEPAUCRuntimeClass@@XZ:PROC ; CSpinButtonCtrl::GetRuntimeClass
EXTRN	?Create@CSpinButtonCtrl@@UAEHKABUtagRECT@@PAVCWnd@@I@Z:PROC ; CSpinButtonCtrl::Create
EXTRN	?CreateEx@CSpinButtonCtrl@@UAEHKKABUtagRECT@@PAVCWnd@@I@Z:PROC ; CSpinButtonCtrl::CreateEx
EXTRN	??1CSpinButtonCtrl@@UAE@XZ:PROC			; CSpinButtonCtrl::~CSpinButtonCtrl
EXTRN	??_ECSpinButtonCtrl@@UAEPAXI@Z:PROC		; CSpinButtonCtrl::`vector deleting destructor'
EXTRN	?GetThisClass@CNumEdit@@SGPAUCRuntimeClass@@XZ:PROC ; CNumEdit::GetThisClass
EXTRN	??_ECNumSpinCtrl@@UAEPAXI@Z:PROC		; CNumSpinCtrl::`vector deleting destructor'
EXTRN	??_7type_info@@6B@:QWORD			; type_info::`vftable'
EXTRN	__fltused:DWORD
;	COMDAT __real@0000000000000000
CONST	SEGMENT
__real@0000000000000000 DQ 00000000000000000r	; 0
CONST	ENDS
;	COMDAT ??_R1A@?0A@EA@CNumSpinCtrl@@8
rdata$r	SEGMENT
??_R1A@?0A@EA@CNumSpinCtrl@@8 DD FLAT:??_R0?AVCNumSpinCtrl@@@8 ; CNumSpinCtrl::`RTTI Base Class Descriptor at (0,-1,0,64)'
	DD	04H
	DD	00H
	DD	0ffffffffH
	DD	00H
	DD	040H
	DD	FLAT:??_R3CNumSpinCtrl@@8
rdata$r	ENDS
;	COMDAT ??_R2CNumSpinCtrl@@8
rdata$r	SEGMENT
??_R2CNumSpinCtrl@@8 DD FLAT:??_R1A@?0A@EA@CNumSpinCtrl@@8 ; CNumSpinCtrl::`RTTI Base Class Array'
	DD	FLAT:??_R1A@?0A@EA@CSpinButtonCtrl@@8
	DD	FLAT:??_R1A@?0A@EA@CWnd@@8
	DD	FLAT:??_R1A@?0A@EA@CCmdTarget@@8
	DD	FLAT:??_R1A@?0A@EA@CObject@@8
rdata$r	ENDS
;	COMDAT ??_R3CNumSpinCtrl@@8
rdata$r	SEGMENT
??_R3CNumSpinCtrl@@8 DD 00H				; CNumSpinCtrl::`RTTI Class Hierarchy Descriptor'
	DD	00H
	DD	05H
	DD	FLAT:??_R2CNumSpinCtrl@@8
rdata$r	ENDS
;	COMDAT ??_R0?AVCNumSpinCtrl@@@8
data$rs	SEGMENT
??_R0?AVCNumSpinCtrl@@@8 DD FLAT:??_7type_info@@6B@	; CNumSpinCtrl `RTTI Type Descriptor'
	DD	00H
	DB	'.?AVCNumSpinCtrl@@', 00H
data$rs	ENDS
;	COMDAT ??_R4CNumSpinCtrl@@6B@
rdata$r	SEGMENT
??_R4CNumSpinCtrl@@6B@ DD 00H				; CNumSpinCtrl::`RTTI Complete Object Locator'
	DD	00H
	DD	00H
	DD	FLAT:??_R0?AVCNumSpinCtrl@@@8
	DD	FLAT:??_R3CNumSpinCtrl@@8
rdata$r	ENDS
;	COMDAT ?messageMap@?1??GetThisMessageMap@CNumSpinCtrl@@KGPBUAFX_MSGMAP@@XZ@4U3@B
CONST	SEGMENT
?messageMap@?1??GetThisMessageMap@CNumSpinCtrl@@KGPBUAFX_MSGMAP@@XZ@4U3@B DD FLAT:?GetThisMessageMap@CWnd@@KGPBUAFX_MSGMAP@@XZ ; `CNumSpinCtrl::GetThisMessageMap'::`2'::messageMap
	DD	FLAT:?_messageEntries@?1??GetThisMessageMap@CNumSpinCtrl@@KGPBUAFX_MSGMAP@@XZ@4QBUAFX_MSGMAP_ENTRY@@B
CONST	ENDS
;	COMDAT ?_messageEntries@?1??GetThisMessageMap@CNumSpinCtrl@@KGPBUAFX_MSGMAP@@XZ@4QBUAFX_MSGMAP_ENTRY@@B
CONST	SEGMENT
?_messageEntries@?1??GetThisMessageMap@CNumSpinCtrl@@KGPBUAFX_MSGMAP@@XZ@4QBUAFX_MSGMAP_ENTRY@@B DD 0bc4eH ; `CNumSpinCtrl::GetThisMessageMap'::`2'::_messageEntries
	DD	0fd2eH
	DD	00H
	DD	00H
	DD	03eH
	DD	FLAT:?OnDeltapos@CNumSpinCtrl@@IAEXPAUtagNMHDR@@PAJ@Z
	DD	00H
	DD	00H
	DD	00H
	DD	00H
	DD	00H
	DD	00H
CONST	ENDS
;	COMDAT ??_C@_0N@CMJOFHHP@CNumSpinCtrl@
CONST	SEGMENT
??_C@_0N@CMJOFHHP@CNumSpinCtrl@ DB 'CNumSpinCtrl', 00H	; `string'
CONST	ENDS
;	COMDAT ??_7CNumSpinCtrl@@6B@
CONST	SEGMENT
??_7CNumSpinCtrl@@6B@ DD FLAT:??_R4CNumSpinCtrl@@6B@	; CNumSpinCtrl::`vftable'
	DD	FLAT:?GetRuntimeClass@CNumSpinCtrl@@UBEPAUCRuntimeClass@@XZ
	DD	FLAT:??_ECNumSpinCtrl@@UAEPAXI@Z
	DD	FLAT:?Serialize@CObject@@UAEXAAVCArchive@@@Z
	DD	FLAT:?AssertValid@CObject@@UBEXXZ
	DD	FLAT:?Dump@CObject@@UBEXAAVCDumpContext@@@Z
	DD	FLAT:?OnCmdMsg@CCmdTarget@@UAEHIHPAXPAUAFX_CMDHANDLERINFO@@@Z
	DD	FLAT:?OnFinalRelease@CWnd@@UAEXXZ
	DD	FLAT:?IsInvokeAllowed@CCmdTarget@@UAEHJ@Z
	DD	FLAT:?GetDispatchIID@CCmdTarget@@UAEHPAU_GUID@@@Z
	DD	FLAT:?GetTypeInfoCount@CCmdTarget@@UAEIXZ
	DD	FLAT:?GetTypeLibCache@CCmdTarget@@UAEPAVCTypeLibCache@@XZ
	DD	FLAT:?GetTypeLib@CCmdTarget@@UAEJKPAPAUITypeLib@@@Z
	DD	FLAT:?GetMessageMap@CNumSpinCtrl@@MBEPBUAFX_MSGMAP@@XZ
	DD	FLAT:?GetCommandMap@CCmdTarget@@MBEPBUAFX_OLECMDMAP@@XZ
	DD	FLAT:?GetDispatchMap@CCmdTarget@@MBEPBUAFX_DISPMAP@@XZ
	DD	FLAT:?GetConnectionMap@CCmdTarget@@MBEPBUAFX_CONNECTIONMAP@@XZ
	DD	FLAT:?GetInterfaceMap@CWnd@@MBEPBUAFX_INTERFACEMAP@@XZ
	DD	FLAT:?GetEventSinkMap@CCmdTarget@@MBEPBUAFX_EVENTSINKMAP@@XZ
	DD	FLAT:?OnCreateAggregates@CCmdTarget@@UAEHXZ
	DD	FLAT:?GetInterfaceHook@CCmdTarget@@UAEPAUIUnknown@@PBX@Z
	DD	FLAT:?GetExtraConnectionPoints@CCmdTarget@@MAEHPAVCPtrArray@@@Z
	DD	FLAT:?GetConnectionHook@CCmdTarget@@MAEPAUIConnectionPoint@@ABU_GUID@@@Z
	DD	FLAT:?PreSubclassWindow@CWnd@@UAEXXZ
	DD	FLAT:?Create@CWnd@@UAEHPBD0KABUtagRECT@@PAV1@IPAUCCreateContext@@@Z
	DD	FLAT:?CreateEx@CWnd@@UAEHKPBD0KABUtagRECT@@PAV1@IPAX@Z
	DD	FLAT:?CreateEx@CWnd@@UAEHKPBD0KHHHHPAUHWND__@@PAUHMENU__@@PAX@Z
	DD	FLAT:?DestroyWindow@CWnd@@UAEHXZ
	DD	FLAT:?PreCreateWindow@CWnd@@UAEHAAUtagCREATESTRUCTA@@@Z
	DD	FLAT:?CalcWindowRect@CWnd@@UAEXPAUtagRECT@@I@Z
	DD	FLAT:?GetMenu@CWnd@@UBEPAVCMenu@@XZ
	DD	FLAT:?SetMenu@CWnd@@UAEHPAVCMenu@@@Z
	DD	FLAT:?OnToolHitTest@CWnd@@UBEHVCPoint@@PAUtagTOOLINFOA@@@Z
	DD	FLAT:?GetScrollBarCtrl@CWnd@@UBEPAVCScrollBar@@H@Z
	DD	FLAT:?WinHelpA@CWnd@@UAEXKI@Z
	DD	FLAT:?HtmlHelpA@CWnd@@UAEXKI@Z
	DD	FLAT:?WinHelpInternal@CWnd@@UAEXKI@Z
	DD	FLAT:?ContinueModal@CWnd@@UAEHXZ
	DD	FLAT:?EndModalLoop@CWnd@@UAEXH@Z
	DD	FLAT:?OnDrawIconicThumbnailOrLivePreview@CWnd@@UAEXAAVCDC@@VCRect@@VCSize@@HAAH@Z
	DD	FLAT:?EnsureStdObj@CWnd@@UAEJXZ
	DD	FLAT:?get_accParent@CWnd@@UAEJPAPAUIDispatch@@@Z
	DD	FLAT:?get_accChildCount@CWnd@@UAEJPAJ@Z
	DD	FLAT:?get_accChild@CWnd@@UAEJUtagVARIANT@@PAPAUIDispatch@@@Z
	DD	FLAT:?get_accName@CWnd@@UAEJUtagVARIANT@@PAPA_W@Z
	DD	FLAT:?get_accValue@CWnd@@UAEJUtagVARIANT@@PAPA_W@Z
	DD	FLAT:?get_accDescription@CWnd@@UAEJUtagVARIANT@@PAPA_W@Z
	DD	FLAT:?get_accRole@CWnd@@UAEJUtagVARIANT@@PAU2@@Z
	DD	FLAT:?get_accState@CWnd@@UAEJUtagVARIANT@@PAU2@@Z
	DD	FLAT:?get_accHelp@CWnd@@UAEJUtagVARIANT@@PAPA_W@Z
	DD	FLAT:?get_accHelpTopic@CWnd@@UAEJPAPA_WUtagVARIANT@@PAJ@Z
	DD	FLAT:?get_accKeyboardShortcut@CWnd@@UAEJUtagVARIANT@@PAPA_W@Z
	DD	FLAT:?get_accFocus@CWnd@@UAEJPAUtagVARIANT@@@Z
	DD	FLAT:?get_accSelection@CWnd@@UAEJPAUtagVARIANT@@@Z
	DD	FLAT:?get_accDefaultAction@CWnd@@UAEJUtagVARIANT@@PAPA_W@Z
	DD	FLAT:?accSelect@CWnd@@UAEJJUtagVARIANT@@@Z
	DD	FLAT:?accLocation@CWnd@@UAEJPAJ000UtagVARIANT@@@Z
	DD	FLAT:?accNavigate@CWnd@@UAEJJUtagVARIANT@@PAU2@@Z
	DD	FLAT:?accHitTest@CWnd@@UAEJJJPAUtagVARIANT@@@Z
	DD	FLAT:?accDoDefaultAction@CWnd@@UAEJUtagVARIANT@@@Z
	DD	FLAT:?put_accName@CWnd@@UAEJUtagVARIANT@@PA_W@Z
	DD	FLAT:?put_accValue@CWnd@@UAEJUtagVARIANT@@PA_W@Z
	DD	FLAT:?SetProxy@CWnd@@UAEJPAUIAccessibleProxy@@@Z
	DD	FLAT:?CreateAccessibleProxy@CWnd@@UAEJIJPAJ@Z
	DD	FLAT:?OnCommand@CWnd@@MAEHIJ@Z
	DD	FLAT:?OnNotify@CWnd@@MAEHIJPAJ@Z
	DD	FLAT:?GetSuperWndProcAddr@CWnd@@MAEPAP6GJPAUHWND__@@IIJ@ZXZ
	DD	FLAT:?DoDataExchange@CWnd@@MAEXPAVCDataExchange@@@Z
	DD	FLAT:?BeginModalState@CWnd@@UAEXXZ
	DD	FLAT:?EndModalState@CWnd@@UAEXXZ
	DD	FLAT:?PreTranslateMessage@CWnd@@UAEHPAUtagMSG@@@Z
	DD	FLAT:?OnAmbientProperty@CWnd@@UAEHPAVCOleControlSite@@JPAUtagVARIANT@@@Z
	DD	FLAT:?WindowProc@CWnd@@MAEJIIJ@Z
	DD	FLAT:?OnWndMsg@CWnd@@MAEHIIJPAJ@Z
	DD	FLAT:?DefWindowProcA@CWnd@@MAEJIIJ@Z
	DD	FLAT:?PostNcDestroy@CWnd@@MAEXXZ
	DD	FLAT:?OnChildNotify@CWnd@@MAEHIIJPAJ@Z
	DD	FLAT:?OnTouchInputs@CWnd@@MAEHIPAUtagTOUCHINPUT@@@Z
	DD	FLAT:?OnTouchInput@CWnd@@MAEHVCPoint@@HHPAUtagTOUCHINPUT@@@Z
	DD	FLAT:?GetGestureStatus@CWnd@@MAEKVCPoint@@@Z
	DD	FLAT:?OnGestureZoom@CWnd@@MAEHVCPoint@@J@Z
	DD	FLAT:?OnGesturePan@CWnd@@MAEHVCPoint@@0@Z
	DD	FLAT:?OnGestureRotate@CWnd@@MAEHVCPoint@@N@Z
	DD	FLAT:?OnGestureTwoFingerTap@CWnd@@MAEHVCPoint@@@Z
	DD	FLAT:?OnGesturePressAndTap@CWnd@@MAEHVCPoint@@J@Z
	DD	FLAT:?ResizeDynamicLayout@CWnd@@MAEXXZ
	DD	FLAT:?CheckAutoCenter@CWnd@@UAEHXZ
	DD	FLAT:?IsFrameWnd@CWnd@@UBEHXZ
	DD	FLAT:?CreateControlContainer@CWnd@@MAEHPAPAVCOleControlContainer@@@Z
	DD	FLAT:?CreateControlSite@CWnd@@MAEHPAVCOleControlContainer@@PAPAVCOleControlSite@@IABU_GUID@@@Z
	DD	FLAT:?SetOccDialogInfo@CWnd@@MAEHPAU_AFX_OCC_DIALOG_INFO@@@Z
	DD	FLAT:?GetOccDialogInfo@CWnd@@MAEPAU_AFX_OCC_DIALOG_INFO@@XZ
	DD	FLAT:?Create@CSpinButtonCtrl@@UAEHKABUtagRECT@@PAVCWnd@@I@Z
	DD	FLAT:?CreateEx@CSpinButtonCtrl@@UAEHKKABUtagRECT@@PAVCWnd@@I@Z
	DD	FLAT:?SetDelta@CNumSpinCtrl@@UAEXN@Z
	DD	FLAT:?GetDelta@CNumSpinCtrl@@UAENXZ
	DD	FLAT:?SetBuddy@CNumSpinCtrl@@UAEXPAVCNumEdit@@@Z
	DD	FLAT:?GetBuddy@CNumSpinCtrl@@UBEPAVCNumEdit@@XZ
	DD	FLAT:?GetRange@CNumSpinCtrl@@UBEXAAN0@Z
	DD	FLAT:?SetRange@CNumSpinCtrl@@UAEXMM@Z
	DD	FLAT:?GetPos@CNumSpinCtrl@@UAENXZ
	DD	FLAT:?SetPos@CNumSpinCtrl@@UAEXM@Z
CONST	ENDS
;	COMDAT ?classCNumSpinCtrl@CNumSpinCtrl@@2UCRuntimeClass@@B
CONST	SEGMENT
?classCNumSpinCtrl@CNumSpinCtrl@@2UCRuntimeClass@@B DD FLAT:??_C@_0N@CMJOFHHP@CNumSpinCtrl@ ; CNumSpinCtrl::classCNumSpinCtrl
	DD	080H
	DD	0ffffH
	DD	00H
	DD	FLAT:?_GetBaseClass@CNumSpinCtrl@@KGPAUCRuntimeClass@@XZ
	DD	00H
	DD	00H
CONST	ENDS
;	COMDAT ??_R1A@?0A@EA@CSpinButtonCtrl@@8
rdata$r	SEGMENT
??_R1A@?0A@EA@CSpinButtonCtrl@@8 DD FLAT:??_R0?AVCSpinButtonCtrl@@@8 ; CSpinButtonCtrl::`RTTI Base Class Descriptor at (0,-1,0,64)'
	DD	03H
	DD	00H
	DD	0ffffffffH
	DD	00H
	DD	040H
	DD	FLAT:??_R3CSpinButtonCtrl@@8
rdata$r	ENDS
;	COMDAT ??_R2CSpinButtonCtrl@@8
rdata$r	SEGMENT
??_R2CSpinButtonCtrl@@8 DD FLAT:??_R1A@?0A@EA@CSpinButtonCtrl@@8 ; CSpinButtonCtrl::`RTTI Base Class Array'
	DD	FLAT:??_R1A@?0A@EA@CWnd@@8
	DD	FLAT:??_R1A@?0A@EA@CCmdTarget@@8
	DD	FLAT:??_R1A@?0A@EA@CObject@@8
rdata$r	ENDS
;	COMDAT ??_R3CSpinButtonCtrl@@8
rdata$r	SEGMENT
??_R3CSpinButtonCtrl@@8 DD 00H				; CSpinButtonCtrl::`RTTI Class Hierarchy Descriptor'
	DD	00H
	DD	04H
	DD	FLAT:??_R2CSpinButtonCtrl@@8
rdata$r	ENDS
;	COMDAT ??_R0?AVCSpinButtonCtrl@@@8
data$rs	SEGMENT
??_R0?AVCSpinButtonCtrl@@@8 DD FLAT:??_7type_info@@6B@	; CSpinButtonCtrl `RTTI Type Descriptor'
	DD	00H
	DB	'.?AVCSpinButtonCtrl@@', 00H
data$rs	ENDS
;	COMDAT ??_R4CSpinButtonCtrl@@6B@
rdata$r	SEGMENT
??_R4CSpinButtonCtrl@@6B@ DD 00H			; CSpinButtonCtrl::`RTTI Complete Object Locator'
	DD	00H
	DD	00H
	DD	FLAT:??_R0?AVCSpinButtonCtrl@@@8
	DD	FLAT:??_R3CSpinButtonCtrl@@8
rdata$r	ENDS
;	COMDAT ??_R2CCmdTarget@@8
rdata$r	SEGMENT
??_R2CCmdTarget@@8 DD FLAT:??_R1A@?0A@EA@CCmdTarget@@8	; CCmdTarget::`RTTI Base Class Array'
	DD	FLAT:??_R1A@?0A@EA@CObject@@8
rdata$r	ENDS
;	COMDAT ??_R3CCmdTarget@@8
rdata$r	SEGMENT
??_R3CCmdTarget@@8 DD 00H				; CCmdTarget::`RTTI Class Hierarchy Descriptor'
	DD	00H
	DD	02H
	DD	FLAT:??_R2CCmdTarget@@8
rdata$r	ENDS
;	COMDAT ??_R0?AVCCmdTarget@@@8
data$rs	SEGMENT
??_R0?AVCCmdTarget@@@8 DD FLAT:??_7type_info@@6B@	; CCmdTarget `RTTI Type Descriptor'
	DD	00H
	DB	'.?AVCCmdTarget@@', 00H
data$rs	ENDS
;	COMDAT ??_R1A@?0A@EA@CCmdTarget@@8
rdata$r	SEGMENT
??_R1A@?0A@EA@CCmdTarget@@8 DD FLAT:??_R0?AVCCmdTarget@@@8 ; CCmdTarget::`RTTI Base Class Descriptor at (0,-1,0,64)'
	DD	01H
	DD	00H
	DD	0ffffffffH
	DD	00H
	DD	040H
	DD	FLAT:??_R3CCmdTarget@@8
rdata$r	ENDS
;	COMDAT ??_R2CWnd@@8
rdata$r	SEGMENT
??_R2CWnd@@8 DD	FLAT:??_R1A@?0A@EA@CWnd@@8		; CWnd::`RTTI Base Class Array'
	DD	FLAT:??_R1A@?0A@EA@CCmdTarget@@8
	DD	FLAT:??_R1A@?0A@EA@CObject@@8
rdata$r	ENDS
;	COMDAT ??_R3CWnd@@8
rdata$r	SEGMENT
??_R3CWnd@@8 DD	00H					; CWnd::`RTTI Class Hierarchy Descriptor'
	DD	00H
	DD	03H
	DD	FLAT:??_R2CWnd@@8
rdata$r	ENDS
;	COMDAT ??_R0?AVCWnd@@@8
data$rs	SEGMENT
??_R0?AVCWnd@@@8 DD FLAT:??_7type_info@@6B@		; CWnd `RTTI Type Descriptor'
	DD	00H
	DB	'.?AVCWnd@@', 00H
data$rs	ENDS
;	COMDAT ??_R1A@?0A@EA@CWnd@@8
rdata$r	SEGMENT
??_R1A@?0A@EA@CWnd@@8 DD FLAT:??_R0?AVCWnd@@@8		; CWnd::`RTTI Base Class Descriptor at (0,-1,0,64)'
	DD	02H
	DD	00H
	DD	0ffffffffH
	DD	00H
	DD	040H
	DD	FLAT:??_R3CWnd@@8
rdata$r	ENDS
;	COMDAT ??_R1A@?0A@EA@CObject@@8
rdata$r	SEGMENT
??_R1A@?0A@EA@CObject@@8 DD FLAT:??_R0?AVCObject@@@8	; CObject::`RTTI Base Class Descriptor at (0,-1,0,64)'
	DD	00H
	DD	00H
	DD	0ffffffffH
	DD	00H
	DD	040H
	DD	FLAT:??_R3CObject@@8
rdata$r	ENDS
;	COMDAT ??_R2CObject@@8
rdata$r	SEGMENT
??_R2CObject@@8 DD FLAT:??_R1A@?0A@EA@CObject@@8	; CObject::`RTTI Base Class Array'
rdata$r	ENDS
;	COMDAT ??_R3CObject@@8
rdata$r	SEGMENT
??_R3CObject@@8 DD 00H					; CObject::`RTTI Class Hierarchy Descriptor'
	DD	00H
	DD	01H
	DD	FLAT:??_R2CObject@@8
rdata$r	ENDS
;	COMDAT ??_R0?AVCObject@@@8
data$rs	SEGMENT
??_R0?AVCObject@@@8 DD FLAT:??_7type_info@@6B@		; CObject `RTTI Type Descriptor'
	DD	00H
	DB	'.?AVCObject@@', 00H
data$rs	ENDS
;	COMDAT ??_7CSpinButtonCtrl@@6B@
CONST	SEGMENT
??_7CSpinButtonCtrl@@6B@ DD FLAT:??_R4CSpinButtonCtrl@@6B@ ; CSpinButtonCtrl::`vftable'
	DD	FLAT:?GetRuntimeClass@CSpinButtonCtrl@@UBEPAUCRuntimeClass@@XZ
	DD	FLAT:??_ECSpinButtonCtrl@@UAEPAXI@Z
	DD	FLAT:?Serialize@CObject@@UAEXAAVCArchive@@@Z
	DD	FLAT:?AssertValid@CObject@@UBEXXZ
	DD	FLAT:?Dump@CObject@@UBEXAAVCDumpContext@@@Z
	DD	FLAT:?OnCmdMsg@CCmdTarget@@UAEHIHPAXPAUAFX_CMDHANDLERINFO@@@Z
	DD	FLAT:?OnFinalRelease@CWnd@@UAEXXZ
	DD	FLAT:?IsInvokeAllowed@CCmdTarget@@UAEHJ@Z
	DD	FLAT:?GetDispatchIID@CCmdTarget@@UAEHPAU_GUID@@@Z
	DD	FLAT:?GetTypeInfoCount@CCmdTarget@@UAEIXZ
	DD	FLAT:?GetTypeLibCache@CCmdTarget@@UAEPAVCTypeLibCache@@XZ
	DD	FLAT:?GetTypeLib@CCmdTarget@@UAEJKPAPAUITypeLib@@@Z
	DD	FLAT:?GetMessageMap@CWnd@@MBEPBUAFX_MSGMAP@@XZ
	DD	FLAT:?GetCommandMap@CCmdTarget@@MBEPBUAFX_OLECMDMAP@@XZ
	DD	FLAT:?GetDispatchMap@CCmdTarget@@MBEPBUAFX_DISPMAP@@XZ
	DD	FLAT:?GetConnectionMap@CCmdTarget@@MBEPBUAFX_CONNECTIONMAP@@XZ
	DD	FLAT:?GetInterfaceMap@CWnd@@MBEPBUAFX_INTERFACEMAP@@XZ
	DD	FLAT:?GetEventSinkMap@CCmdTarget@@MBEPBUAFX_EVENTSINKMAP@@XZ
	DD	FLAT:?OnCreateAggregates@CCmdTarget@@UAEHXZ
	DD	FLAT:?GetInterfaceHook@CCmdTarget@@UAEPAUIUnknown@@PBX@Z
	DD	FLAT:?GetExtraConnectionPoints@CCmdTarget@@MAEHPAVCPtrArray@@@Z
	DD	FLAT:?GetConnectionHook@CCmdTarget@@MAEPAUIConnectionPoint@@ABU_GUID@@@Z
	DD	FLAT:?PreSubclassWindow@CWnd@@UAEXXZ
	DD	FLAT:?Create@CWnd@@UAEHPBD0KABUtagRECT@@PAV1@IPAUCCreateContext@@@Z
	DD	FLAT:?CreateEx@CWnd@@UAEHKPBD0KABUtagRECT@@PAV1@IPAX@Z
	DD	FLAT:?CreateEx@CWnd@@UAEHKPBD0KHHHHPAUHWND__@@PAUHMENU__@@PAX@Z
	DD	FLAT:?DestroyWindow@CWnd@@UAEHXZ
	DD	FLAT:?PreCreateWindow@CWnd@@UAEHAAUtagCREATESTRUCTA@@@Z
	DD	FLAT:?CalcWindowRect@CWnd@@UAEXPAUtagRECT@@I@Z
	DD	FLAT:?GetMenu@CWnd@@UBEPAVCMenu@@XZ
	DD	FLAT:?SetMenu@CWnd@@UAEHPAVCMenu@@@Z
	DD	FLAT:?OnToolHitTest@CWnd@@UBEHVCPoint@@PAUtagTOOLINFOA@@@Z
	DD	FLAT:?GetScrollBarCtrl@CWnd@@UBEPAVCScrollBar@@H@Z
	DD	FLAT:?WinHelpA@CWnd@@UAEXKI@Z
	DD	FLAT:?HtmlHelpA@CWnd@@UAEXKI@Z
	DD	FLAT:?WinHelpInternal@CWnd@@UAEXKI@Z
	DD	FLAT:?ContinueModal@CWnd@@UAEHXZ
	DD	FLAT:?EndModalLoop@CWnd@@UAEXH@Z
	DD	FLAT:?OnDrawIconicThumbnailOrLivePreview@CWnd@@UAEXAAVCDC@@VCRect@@VCSize@@HAAH@Z
	DD	FLAT:?EnsureStdObj@CWnd@@UAEJXZ
	DD	FLAT:?get_accParent@CWnd@@UAEJPAPAUIDispatch@@@Z
	DD	FLAT:?get_accChildCount@CWnd@@UAEJPAJ@Z
	DD	FLAT:?get_accChild@CWnd@@UAEJUtagVARIANT@@PAPAUIDispatch@@@Z
	DD	FLAT:?get_accName@CWnd@@UAEJUtagVARIANT@@PAPA_W@Z
	DD	FLAT:?get_accValue@CWnd@@UAEJUtagVARIANT@@PAPA_W@Z
	DD	FLAT:?get_accDescription@CWnd@@UAEJUtagVARIANT@@PAPA_W@Z
	DD	FLAT:?get_accRole@CWnd@@UAEJUtagVARIANT@@PAU2@@Z
	DD	FLAT:?get_accState@CWnd@@UAEJUtagVARIANT@@PAU2@@Z
	DD	FLAT:?get_accHelp@CWnd@@UAEJUtagVARIANT@@PAPA_W@Z
	DD	FLAT:?get_accHelpTopic@CWnd@@UAEJPAPA_WUtagVARIANT@@PAJ@Z
	DD	FLAT:?get_accKeyboardShortcut@CWnd@@UAEJUtagVARIANT@@PAPA_W@Z
	DD	FLAT:?get_accFocus@CWnd@@UAEJPAUtagVARIANT@@@Z
	DD	FLAT:?get_accSelection@CWnd@@UAEJPAUtagVARIANT@@@Z
	DD	FLAT:?get_accDefaultAction@CWnd@@UAEJUtagVARIANT@@PAPA_W@Z
	DD	FLAT:?accSelect@CWnd@@UAEJJUtagVARIANT@@@Z
	DD	FLAT:?accLocation@CWnd@@UAEJPAJ000UtagVARIANT@@@Z
	DD	FLAT:?accNavigate@CWnd@@UAEJJUtagVARIANT@@PAU2@@Z
	DD	FLAT:?accHitTest@CWnd@@UAEJJJPAUtagVARIANT@@@Z
	DD	FLAT:?accDoDefaultAction@CWnd@@UAEJUtagVARIANT@@@Z
	DD	FLAT:?put_accName@CWnd@@UAEJUtagVARIANT@@PA_W@Z
	DD	FLAT:?put_accValue@CWnd@@UAEJUtagVARIANT@@PA_W@Z
	DD	FLAT:?SetProxy@CWnd@@UAEJPAUIAccessibleProxy@@@Z
	DD	FLAT:?CreateAccessibleProxy@CWnd@@UAEJIJPAJ@Z
	DD	FLAT:?OnCommand@CWnd@@MAEHIJ@Z
	DD	FLAT:?OnNotify@CWnd@@MAEHIJPAJ@Z
	DD	FLAT:?GetSuperWndProcAddr@CWnd@@MAEPAP6GJPAUHWND__@@IIJ@ZXZ
	DD	FLAT:?DoDataExchange@CWnd@@MAEXPAVCDataExchange@@@Z
	DD	FLAT:?BeginModalState@CWnd@@UAEXXZ
	DD	FLAT:?EndModalState@CWnd@@UAEXXZ
	DD	FLAT:?PreTranslateMessage@CWnd@@UAEHPAUtagMSG@@@Z
	DD	FLAT:?OnAmbientProperty@CWnd@@UAEHPAVCOleControlSite@@JPAUtagVARIANT@@@Z
	DD	FLAT:?WindowProc@CWnd@@MAEJIIJ@Z
	DD	FLAT:?OnWndMsg@CWnd@@MAEHIIJPAJ@Z
	DD	FLAT:?DefWindowProcA@CWnd@@MAEJIIJ@Z
	DD	FLAT:?PostNcDestroy@CWnd@@MAEXXZ
	DD	FLAT:?OnChildNotify@CWnd@@MAEHIIJPAJ@Z
	DD	FLAT:?OnTouchInputs@CWnd@@MAEHIPAUtagTOUCHINPUT@@@Z
	DD	FLAT:?OnTouchInput@CWnd@@MAEHVCPoint@@HHPAUtagTOUCHINPUT@@@Z
	DD	FLAT:?GetGestureStatus@CWnd@@MAEKVCPoint@@@Z
	DD	FLAT:?OnGestureZoom@CWnd@@MAEHVCPoint@@J@Z
	DD	FLAT:?OnGesturePan@CWnd@@MAEHVCPoint@@0@Z
	DD	FLAT:?OnGestureRotate@CWnd@@MAEHVCPoint@@N@Z
	DD	FLAT:?OnGestureTwoFingerTap@CWnd@@MAEHVCPoint@@@Z
	DD	FLAT:?OnGesturePressAndTap@CWnd@@MAEHVCPoint@@J@Z
	DD	FLAT:?ResizeDynamicLayout@CWnd@@MAEXXZ
	DD	FLAT:?CheckAutoCenter@CWnd@@UAEHXZ
	DD	FLAT:?IsFrameWnd@CWnd@@UBEHXZ
	DD	FLAT:?CreateControlContainer@CWnd@@MAEHPAPAVCOleControlContainer@@@Z
	DD	FLAT:?CreateControlSite@CWnd@@MAEHPAVCOleControlContainer@@PAPAVCOleControlSite@@IABU_GUID@@@Z
	DD	FLAT:?SetOccDialogInfo@CWnd@@MAEHPAU_AFX_OCC_DIALOG_INFO@@@Z
	DD	FLAT:?GetOccDialogInfo@CWnd@@MAEPAU_AFX_OCC_DIALOG_INFO@@XZ
	DD	FLAT:?Create@CSpinButtonCtrl@@UAEHKABUtagRECT@@PAVCWnd@@I@Z
	DD	FLAT:?CreateEx@CSpinButtonCtrl@@UAEHKKABUtagRECT@@PAVCWnd@@I@Z
CONST	ENDS
; Function compile flags: /Ogtp
; File D:\git\src\IBK\IBK_DRFN\ProjSrc\SrcChartEx\ChartAddIn\ChartEnvSetupDlgAddIn\ChartEnvSetupDlgAddIn\NumSpinCtrl.cpp
; File C:\Program Files (x86)\Microsoft Visual Studio\2019\Community\VC\Tools\MSVC\14.29.30133\atlmfc\include\afx.inl
;	COMDAT ??_GCNumSpinCtrl@@UAEPAXI@Z
_TEXT	SEGMENT
___flags$ = 8						; size = 4
??_GCNumSpinCtrl@@UAEPAXI@Z PROC			; CNumSpinCtrl::`scalar deleting destructor', COMDAT
; _this$ = ecx
  00000	55		 push	 ebp
  00001	8b ec		 mov	 ebp, esp
; File D:\git\src\IBK\IBK_DRFN\ProjSrc\SrcChartEx\ChartAddIn\ChartEnvSetupDlgAddIn\ChartEnvSetupDlgAddIn\NumSpinCtrl.cpp

; 24   : {

  00003	56		 push	 esi
  00004	8b f1		 mov	 esi, ecx
  00006	c7 06 00 00 00
	00		 mov	 DWORD PTR [esi], OFFSET ??_7CNumSpinCtrl@@6B@

; 25   : }

  0000c	e8 00 00 00 00	 call	 ??1CSpinButtonCtrl@@UAE@XZ ; CSpinButtonCtrl::~CSpinButtonCtrl
  00011	8b 45 08	 mov	 eax, DWORD PTR ___flags$[ebp]
  00014	a8 01		 test	 al, 1
  00016	74 22		 je	 SHORT $LN12@scalar
  00018	a8 04		 test	 al, 4
  0001a	75 10		 jne	 SHORT $LN3@scalar
; File C:\Program Files (x86)\Microsoft Visual Studio\2019\Community\VC\Tools\MSVC\14.29.30133\atlmfc\include\afx.inl

; 112  : 	{ ::operator delete(p); }

  0001c	56		 push	 esi
  0001d	e8 00 00 00 00	 call	 ??3@YAXPAX@Z		; operator delete
  00022	83 c4 04	 add	 esp, 4
  00025	8b c6		 mov	 eax, esi
  00027	5e		 pop	 esi
  00028	5d		 pop	 ebp
  00029	c2 04 00	 ret	 4
$LN3@scalar:
  0002c	68 80 00 00 00	 push	 128			; 00000080H
  00031	56		 push	 esi
  00032	e8 00 00 00 00	 call	 ?__global_delete@@YAXPAXI@Z ; __global_delete
  00037	83 c4 08	 add	 esp, 8
$LN12@scalar:
  0003a	8b c6		 mov	 eax, esi
  0003c	5e		 pop	 esi
  0003d	5d		 pop	 ebp
  0003e	c2 04 00	 ret	 4
??_GCNumSpinCtrl@@UAEPAXI@Z ENDP			; CNumSpinCtrl::`scalar deleting destructor'
_TEXT	ENDS
; Function compile flags: /Ogtp
; File D:\git\src\IBK\IBK_DRFN\ProjSrc\SrcChartEx\ChartAddIn\ChartEnvSetupDlgAddIn\ChartEnvSetupDlgAddIn\NumSpinCtrl.cpp
;	COMDAT ?GetMessageMap@CNumSpinCtrl@@MBEPBUAFX_MSGMAP@@XZ
_TEXT	SEGMENT
?GetMessageMap@CNumSpinCtrl@@MBEPBUAFX_MSGMAP@@XZ PROC	; CNumSpinCtrl::GetMessageMap, COMDAT
; _this$ = ecx

; 28   : BEGIN_MESSAGE_MAP(CNumSpinCtrl, CSpinButtonCtrl)

  00000	b8 00 00 00 00	 mov	 eax, OFFSET ?messageMap@?1??GetThisMessageMap@CNumSpinCtrl@@KGPBUAFX_MSGMAP@@XZ@4U3@B
  00005	c3		 ret	 0
?GetMessageMap@CNumSpinCtrl@@MBEPBUAFX_MSGMAP@@XZ ENDP	; CNumSpinCtrl::GetMessageMap
_TEXT	ENDS
; Function compile flags: /Ogtp
; File D:\git\src\IBK\IBK_DRFN\ProjSrc\SrcChartEx\ChartAddIn\ChartEnvSetupDlgAddIn\ChartEnvSetupDlgAddIn\NumSpinCtrl.cpp
;	COMDAT ?GetThisMessageMap@CNumSpinCtrl@@KGPBUAFX_MSGMAP@@XZ
_TEXT	SEGMENT
?GetThisMessageMap@CNumSpinCtrl@@KGPBUAFX_MSGMAP@@XZ PROC ; CNumSpinCtrl::GetThisMessageMap, COMDAT

; 29   : 	//{{AFX_MSG_MAP(CNumSpinCtrl)
; 30   : 	ON_NOTIFY_REFLECT(UDN_DELTAPOS, OnDeltapos)
; 31   : 	//}}AFX_MSG_MAP
; 32   : END_MESSAGE_MAP()

  00000	b8 00 00 00 00	 mov	 eax, OFFSET ?messageMap@?1??GetThisMessageMap@CNumSpinCtrl@@KGPBUAFX_MSGMAP@@XZ@4U3@B
  00005	c3		 ret	 0
?GetThisMessageMap@CNumSpinCtrl@@KGPBUAFX_MSGMAP@@XZ ENDP ; CNumSpinCtrl::GetThisMessageMap
_TEXT	ENDS
; Function compile flags: /Ogtp
; File D:\git\src\IBK\IBK_DRFN\ProjSrc\SrcChartEx\ChartAddIn\ChartEnvSetupDlgAddIn\ChartEnvSetupDlgAddIn\NumSpinCtrl.cpp
;	COMDAT ?OnDeltapos@CNumSpinCtrl@@IAEXPAUtagNMHDR@@PAJ@Z
_TEXT	SEGMENT
_pNMHDR$ = 8						; size = 4
_pResult$ = 12						; size = 4
?OnDeltapos@CNumSpinCtrl@@IAEXPAUtagNMHDR@@PAJ@Z PROC	; CNumSpinCtrl::OnDeltapos, COMDAT
; _this$ = ecx

; 86   : {

  00000	55		 push	 ebp
  00001	8b ec		 mov	 ebp, esp
  00003	56		 push	 esi
  00004	57		 push	 edi

; 87   : 	NM_UPDOWN* pNMUpDown = (NM_UPDOWN*)pNMHDR;
; 88   : 	// TODO: Add your control notification handler code here
; 89   : 	if ((pNMUpDown->iPos <= pNMUpDown->iDelta) ||

  00005	8b 7d 08	 mov	 edi, DWORD PTR _pNMHDR$[ebp]
  00008	8b 57 0c	 mov	 edx, DWORD PTR [edi+12]
  0000b	8b 77 10	 mov	 esi, DWORD PTR [edi+16]
  0000e	3b d6		 cmp	 edx, esi
  00010	7e 0b		 jle	 SHORT $LN3@OnDeltapos
  00012	b8 e8 03 00 00	 mov	 eax, 1000		; 000003e8H
  00017	2b c6		 sub	 eax, esi
  00019	3b d0		 cmp	 edx, eax
  0001b	7c 07		 jl	 SHORT $LN2@OnDeltapos
$LN3@OnDeltapos:

; 90   : 		(pNMUpDown->iPos >= 1000 - pNMUpDown->iDelta)) pNMUpDown->iPos = 500;

  0001d	c7 47 0c f4 01
	00 00		 mov	 DWORD PTR [edi+12], 500	; 000001f4H
$LN2@OnDeltapos:

; 91   : 	CNumEdit *m_Edit = GetBuddy();

  00024	8b 01		 mov	 eax, DWORD PTR [ecx]
  00026	ff 90 80 01 00
	00		 call	 DWORD PTR [eax+384]
  0002c	8b f0		 mov	 esi, eax

; 92   : 	if (m_Edit)

  0002e	85 f6		 test	 esi, esi
  00030	74 1e		 je	 SHORT $LN8@OnDeltapos

; 93   : 		if (m_Edit->IsKindOf(RUNTIME_CLASS(CNumEdit)))

  00032	e8 00 00 00 00	 call	 ?GetThisClass@CNumEdit@@SGPAUCRuntimeClass@@XZ ; CNumEdit::GetThisClass
  00037	50		 push	 eax
  00038	8b ce		 mov	 ecx, esi
  0003a	e8 00 00 00 00	 call	 ?IsKindOf@CObject@@QBEHPBUCRuntimeClass@@@Z ; CObject::IsKindOf
  0003f	85 c0		 test	 eax, eax
  00041	74 0d		 je	 SHORT $LN8@OnDeltapos

; 94   : 			m_Edit->ChangeAmount(pNMUpDown->iDelta);

  00043	8b 06		 mov	 eax, DWORD PTR [esi]
  00045	8b ce		 mov	 ecx, esi
  00047	ff 77 10	 push	 DWORD PTR [edi+16]
  0004a	ff 90 6c 01 00
	00		 call	 DWORD PTR [eax+364]
$LN8@OnDeltapos:

; 95   : 	*pResult = 0;
; 96   : }

  00050	8b 45 0c	 mov	 eax, DWORD PTR _pResult$[ebp]
  00053	5f		 pop	 edi
  00054	5e		 pop	 esi
  00055	c7 00 00 00 00
	00		 mov	 DWORD PTR [eax], 0
  0005b	5d		 pop	 ebp
  0005c	c2 08 00	 ret	 8
?OnDeltapos@CNumSpinCtrl@@IAEXPAUtagNMHDR@@PAJ@Z ENDP	; CNumSpinCtrl::OnDeltapos
_TEXT	ENDS
; Function compile flags: /Ogtp
; File D:\git\src\IBK\IBK_DRFN\ProjSrc\SrcChartEx\ChartAddIn\ChartEnvSetupDlgAddIn\ChartEnvSetupDlgAddIn\NumSpinCtrl.cpp
;	COMDAT ??1CNumSpinCtrl@@UAE@XZ
_TEXT	SEGMENT
??1CNumSpinCtrl@@UAE@XZ PROC				; CNumSpinCtrl::~CNumSpinCtrl, COMDAT
; _this$ = ecx

; 24   : {

  00000	c7 01 00 00 00
	00		 mov	 DWORD PTR [ecx], OFFSET ??_7CNumSpinCtrl@@6B@

; 25   : }

  00006	e9 00 00 00 00	 jmp	 ??1CSpinButtonCtrl@@UAE@XZ ; CSpinButtonCtrl::~CSpinButtonCtrl
??1CNumSpinCtrl@@UAE@XZ ENDP				; CNumSpinCtrl::~CNumSpinCtrl
_TEXT	ENDS
; Function compile flags: /Ogtp
; File D:\git\src\IBK\IBK_DRFN\ProjSrc\SrcChartEx\ChartAddIn\ChartEnvSetupDlgAddIn\ChartEnvSetupDlgAddIn\NumSpinCtrl.cpp
; File C:\Program Files (x86)\Microsoft Visual Studio\2019\Community\VC\Tools\MSVC\14.29.30133\atlmfc\include\afxcmn.inl
; File D:\git\src\IBK\IBK_DRFN\ProjSrc\SrcChartEx\ChartAddIn\ChartEnvSetupDlgAddIn\ChartEnvSetupDlgAddIn\NumSpinCtrl.cpp
; File C:\Program Files (x86)\Microsoft Visual Studio\2019\Community\VC\Tools\MSVC\14.29.30133\atlmfc\include\afxcmn.inl
; File D:\git\src\IBK\IBK_DRFN\ProjSrc\SrcChartEx\ChartAddIn\ChartEnvSetupDlgAddIn\ChartEnvSetupDlgAddIn\NumSpinCtrl.cpp
;	COMDAT ?SetPos@CNumSpinCtrl@@UAEXM@Z
_TEXT	SEGMENT
_val$ = 8						; size = 4
?SetPos@CNumSpinCtrl@@UAEXM@Z PROC			; CNumSpinCtrl::SetPos, COMDAT
; _this$ = ecx

; 38   : {

  00000	55		 push	 ebp
  00001	8b ec		 mov	 ebp, esp
  00003	56		 push	 esi
; File C:\Program Files (x86)\Microsoft Visual Studio\2019\Community\VC\Tools\MSVC\14.29.30133\atlmfc\include\afxcmn.inl

; 454  : 	{ ASSERT(::IsWindow(m_hWnd)); return (int) (short) LOWORD(::SendMessage(m_hWnd, UDM_SETPOS, 0, MAKELPARAM(nPos, 0))); }

  00004	68 f4 01 00 00	 push	 500			; 000001f4H
; File D:\git\src\IBK\IBK_DRFN\ProjSrc\SrcChartEx\ChartAddIn\ChartEnvSetupDlgAddIn\ChartEnvSetupDlgAddIn\NumSpinCtrl.cpp

; 38   : {

  00009	8b f1		 mov	 esi, ecx
; File C:\Program Files (x86)\Microsoft Visual Studio\2019\Community\VC\Tools\MSVC\14.29.30133\atlmfc\include\afxcmn.inl

; 454  : 	{ ASSERT(::IsWindow(m_hWnd)); return (int) (short) LOWORD(::SendMessage(m_hWnd, UDM_SETPOS, 0, MAKELPARAM(nPos, 0))); }

  0000b	6a 00		 push	 0
  0000d	68 67 04 00 00	 push	 1127			; 00000467H
  00012	ff 76 20	 push	 DWORD PTR [esi+32]
  00015	ff 15 00 00 00
	00		 call	 DWORD PTR __imp__SendMessageA@16
; File D:\git\src\IBK\IBK_DRFN\ProjSrc\SrcChartEx\ChartAddIn\ChartEnvSetupDlgAddIn\ChartEnvSetupDlgAddIn\NumSpinCtrl.cpp

; 40   : 	CNumEdit *m_Edit = GetBuddy();

  0001b	8b 06		 mov	 eax, DWORD PTR [esi]
  0001d	8b ce		 mov	 ecx, esi
  0001f	ff 90 80 01 00
	00		 call	 DWORD PTR [eax+384]
  00025	8b f0		 mov	 esi, eax

; 41   : 	if (m_Edit)

  00027	85 f6		 test	 esi, esi
  00029	74 2b		 je	 SHORT $LN3@SetPos

; 42   : 		if (m_Edit->IsKindOf(RUNTIME_CLASS(CNumEdit)))

  0002b	e8 00 00 00 00	 call	 ?GetThisClass@CNumEdit@@SGPAUCRuntimeClass@@XZ ; CNumEdit::GetThisClass
  00030	50		 push	 eax
  00031	8b ce		 mov	 ecx, esi
  00033	e8 00 00 00 00	 call	 ?IsKindOf@CObject@@QBEHPBUCRuntimeClass@@@Z ; CObject::IsKindOf
  00038	85 c0		 test	 eax, eax
  0003a	74 1a		 je	 SHORT $LN3@SetPos

; 43   : 			m_Edit->SetValue(val);

  0003c	f3 0f 10 45 08	 movss	 xmm0, DWORD PTR _val$[ebp]
  00041	83 ec 08	 sub	 esp, 8
  00044	8b 06		 mov	 eax, DWORD PTR [esi]
  00046	8b ce		 mov	 ecx, esi
  00048	0f 5a c0	 cvtps2pd xmm0, xmm0
  0004b	f2 0f 11 04 24	 movsd	 QWORD PTR [esp], xmm0
  00050	ff 90 90 01 00
	00		 call	 DWORD PTR [eax+400]
$LN3@SetPos:
  00056	5e		 pop	 esi

; 44   : }

  00057	5d		 pop	 ebp
  00058	c2 04 00	 ret	 4
?SetPos@CNumSpinCtrl@@UAEXM@Z ENDP			; CNumSpinCtrl::SetPos
_TEXT	ENDS
; Function compile flags: /Ogtp
; File D:\git\src\IBK\IBK_DRFN\ProjSrc\SrcChartEx\ChartAddIn\ChartEnvSetupDlgAddIn\ChartEnvSetupDlgAddIn\NumSpinCtrl.cpp
;	COMDAT ?GetPos@CNumSpinCtrl@@UAENXZ
_TEXT	SEGMENT
?GetPos@CNumSpinCtrl@@UAENXZ PROC			; CNumSpinCtrl::GetPos, COMDAT
; _this$ = ecx

; 48   : 	CNumEdit *m_Edit = GetBuddy();

  00000	8b 01		 mov	 eax, DWORD PTR [ecx]
  00002	56		 push	 esi
  00003	ff 90 80 01 00
	00		 call	 DWORD PTR [eax+384]
  00009	8b f0		 mov	 esi, eax

; 49   : 	if (m_Edit)

  0000b	85 f6		 test	 esi, esi
  0000d	74 1e		 je	 SHORT $LN3@GetPos

; 50   : 		if (m_Edit->IsKindOf(RUNTIME_CLASS(CNumEdit)))

  0000f	e8 00 00 00 00	 call	 ?GetThisClass@CNumEdit@@SGPAUCRuntimeClass@@XZ ; CNumEdit::GetThisClass
  00014	50		 push	 eax
  00015	8b ce		 mov	 ecx, esi
  00017	e8 00 00 00 00	 call	 ?IsKindOf@CObject@@QBEHPBUCRuntimeClass@@@Z ; CObject::IsKindOf
  0001c	85 c0		 test	 eax, eax
  0001e	74 0d		 je	 SHORT $LN3@GetPos

; 51   : 			return m_Edit->GetValue();

  00020	8b 06		 mov	 eax, DWORD PTR [esi]
  00022	8b ce		 mov	 ecx, esi
  00024	5e		 pop	 esi
  00025	8b 80 94 01 00
	00		 mov	 eax, DWORD PTR [eax+404]
  0002b	ff e0		 jmp	 eax
$LN3@GetPos:

; 52   : 	return 0.0f;

  0002d	d9 ee		 fldz
  0002f	5e		 pop	 esi

; 53   : }

  00030	c3		 ret	 0
?GetPos@CNumSpinCtrl@@UAENXZ ENDP			; CNumSpinCtrl::GetPos
_TEXT	ENDS
; Function compile flags: /Ogtp
; File D:\git\src\IBK\IBK_DRFN\ProjSrc\SrcChartEx\ChartAddIn\ChartEnvSetupDlgAddIn\ChartEnvSetupDlgAddIn\NumSpinCtrl.cpp
; File C:\Program Files (x86)\Microsoft Visual Studio\2019\Community\VC\Tools\MSVC\14.29.30133\atlmfc\include\afxcmn.inl
; File D:\git\src\IBK\IBK_DRFN\ProjSrc\SrcChartEx\ChartAddIn\ChartEnvSetupDlgAddIn\ChartEnvSetupDlgAddIn\NumSpinCtrl.cpp
; File C:\Program Files (x86)\Microsoft Visual Studio\2019\Community\VC\Tools\MSVC\14.29.30133\atlmfc\include\afxcmn.inl
; File D:\git\src\IBK\IBK_DRFN\ProjSrc\SrcChartEx\ChartAddIn\ChartEnvSetupDlgAddIn\ChartEnvSetupDlgAddIn\NumSpinCtrl.cpp
;	COMDAT ?SetRange@CNumSpinCtrl@@UAEXMM@Z
_TEXT	SEGMENT
_nLower$ = 8						; size = 4
_nUpper$ = 12						; size = 4
?SetRange@CNumSpinCtrl@@UAEXMM@Z PROC			; CNumSpinCtrl::SetRange, COMDAT
; _this$ = ecx

; 56   : {

  00000	55		 push	 ebp
  00001	8b ec		 mov	 ebp, esp
  00003	56		 push	 esi
; File C:\Program Files (x86)\Microsoft Visual Studio\2019\Community\VC\Tools\MSVC\14.29.30133\atlmfc\include\afxcmn.inl

; 456  : 	{ ASSERT(::IsWindow(m_hWnd)); ::SendMessage(m_hWnd, UDM_SETRANGE, 0, MAKELPARAM(nUpper, nLower)); }

  00004	68 e8 03 00 00	 push	 1000			; 000003e8H
; File D:\git\src\IBK\IBK_DRFN\ProjSrc\SrcChartEx\ChartAddIn\ChartEnvSetupDlgAddIn\ChartEnvSetupDlgAddIn\NumSpinCtrl.cpp

; 56   : {

  00009	8b f1		 mov	 esi, ecx
; File C:\Program Files (x86)\Microsoft Visual Studio\2019\Community\VC\Tools\MSVC\14.29.30133\atlmfc\include\afxcmn.inl

; 456  : 	{ ASSERT(::IsWindow(m_hWnd)); ::SendMessage(m_hWnd, UDM_SETRANGE, 0, MAKELPARAM(nUpper, nLower)); }

  0000b	6a 00		 push	 0
  0000d	68 65 04 00 00	 push	 1125			; 00000465H
  00012	ff 76 20	 push	 DWORD PTR [esi+32]
  00015	ff 15 00 00 00
	00		 call	 DWORD PTR __imp__SendMessageA@16
; File D:\git\src\IBK\IBK_DRFN\ProjSrc\SrcChartEx\ChartAddIn\ChartEnvSetupDlgAddIn\ChartEnvSetupDlgAddIn\NumSpinCtrl.cpp

; 58   : 	CNumEdit *m_Edit = GetBuddy();

  0001b	8b 06		 mov	 eax, DWORD PTR [esi]
  0001d	8b ce		 mov	 ecx, esi
  0001f	ff 90 80 01 00
	00		 call	 DWORD PTR [eax+384]
  00025	8b f0		 mov	 esi, eax

; 59   : 	if (m_Edit)

  00027	85 f6		 test	 esi, esi
  00029	74 33		 je	 SHORT $LN3@SetRange

; 60   : 		if (m_Edit->IsKindOf(RUNTIME_CLASS(CNumEdit)))

  0002b	e8 00 00 00 00	 call	 ?GetThisClass@CNumEdit@@SGPAUCRuntimeClass@@XZ ; CNumEdit::GetThisClass
  00030	50		 push	 eax
  00031	8b ce		 mov	 ecx, esi
  00033	e8 00 00 00 00	 call	 ?IsKindOf@CObject@@QBEHPBUCRuntimeClass@@@Z ; CObject::IsKindOf
  00038	85 c0		 test	 eax, eax
  0003a	74 22		 je	 SHORT $LN3@SetRange

; 61   : 			m_Edit->SetRange(nLower, nUpper);

  0003c	f3 0f 10 45 0c	 movss	 xmm0, DWORD PTR _nUpper$[ebp]
  00041	83 ec 08	 sub	 esp, 8
  00044	8b 06		 mov	 eax, DWORD PTR [esi]
  00046	8b ce		 mov	 ecx, esi
  00048	f3 0f 11 44 24
	04		 movss	 DWORD PTR [esp+4], xmm0
  0004e	f3 0f 10 45 08	 movss	 xmm0, DWORD PTR _nLower$[ebp]
  00053	f3 0f 11 04 24	 movss	 DWORD PTR [esp], xmm0
  00058	ff 90 7c 01 00
	00		 call	 DWORD PTR [eax+380]
$LN3@SetRange:
  0005e	5e		 pop	 esi

; 62   : }

  0005f	5d		 pop	 ebp
  00060	c2 08 00	 ret	 8
?SetRange@CNumSpinCtrl@@UAEXMM@Z ENDP			; CNumSpinCtrl::SetRange
_TEXT	ENDS
; Function compile flags: /Ogtp
; File D:\git\src\IBK\IBK_DRFN\ProjSrc\SrcChartEx\ChartAddIn\ChartEnvSetupDlgAddIn\ChartEnvSetupDlgAddIn\NumSpinCtrl.cpp
;	COMDAT ?GetRange@CNumSpinCtrl@@UBEXAAN0@Z
_TEXT	SEGMENT
_lower$ = 8						; size = 4
_upper$ = 12						; size = 4
?GetRange@CNumSpinCtrl@@UBEXAAN0@Z PROC			; CNumSpinCtrl::GetRange, COMDAT
; _this$ = ecx

; 65   : {

  00000	55		 push	 ebp
  00001	8b ec		 mov	 ebp, esp

; 66   : 	CNumEdit *m_Edit = GetBuddy();

  00003	8b 01		 mov	 eax, DWORD PTR [ecx]
  00005	56		 push	 esi
  00006	ff 90 80 01 00
	00		 call	 DWORD PTR [eax+384]
  0000c	8b f0		 mov	 esi, eax

; 67   : 	if (m_Edit)

  0000e	85 f6		 test	 esi, esi
  00010	74 21		 je	 SHORT $LN3@GetRange

; 68   : 		if (m_Edit->IsKindOf(RUNTIME_CLASS(CNumEdit)))

  00012	e8 00 00 00 00	 call	 ?GetThisClass@CNumEdit@@SGPAUCRuntimeClass@@XZ ; CNumEdit::GetThisClass
  00017	50		 push	 eax
  00018	8b ce		 mov	 ecx, esi
  0001a	e8 00 00 00 00	 call	 ?IsKindOf@CObject@@QBEHPBUCRuntimeClass@@@Z ; CObject::IsKindOf
  0001f	85 c0		 test	 eax, eax
  00021	74 10		 je	 SHORT $LN3@GetRange

; 69   : 			m_Edit->GetRange(lower, upper);

  00023	ff 75 0c	 push	 DWORD PTR _upper$[ebp]
  00026	8b 06		 mov	 eax, DWORD PTR [esi]
  00028	8b ce		 mov	 ecx, esi
  0002a	ff 75 08	 push	 DWORD PTR _lower$[ebp]
  0002d	ff 90 78 01 00
	00		 call	 DWORD PTR [eax+376]
$LN3@GetRange:
  00033	5e		 pop	 esi

; 70   : }

  00034	5d		 pop	 ebp
  00035	c2 08 00	 ret	 8
?GetRange@CNumSpinCtrl@@UBEXAAN0@Z ENDP			; CNumSpinCtrl::GetRange
_TEXT	ENDS
; Function compile flags: /Ogtp
; File D:\git\src\IBK\IBK_DRFN\ProjSrc\SrcChartEx\ChartAddIn\ChartEnvSetupDlgAddIn\ChartEnvSetupDlgAddIn\NumSpinCtrl.cpp
; File C:\Program Files (x86)\Microsoft Visual Studio\2019\Community\VC\Tools\MSVC\14.29.30133\atlmfc\include\afxcmn.inl
; File D:\git\src\IBK\IBK_DRFN\ProjSrc\SrcChartEx\ChartAddIn\ChartEnvSetupDlgAddIn\ChartEnvSetupDlgAddIn\NumSpinCtrl.cpp
;	COMDAT ?GetBuddy@CNumSpinCtrl@@UBEPAVCNumEdit@@XZ
_TEXT	SEGMENT
?GetBuddy@CNumSpinCtrl@@UBEPAVCNumEdit@@XZ PROC		; CNumSpinCtrl::GetBuddy, COMDAT
; _this$ = ecx
; File C:\Program Files (x86)\Microsoft Visual Studio\2019\Community\VC\Tools\MSVC\14.29.30133\atlmfc\include\afxcmn.inl

; 442  : 	{ ASSERT(::IsWindow(m_hWnd)); return CWnd::FromHandle((HWND) ::SendMessage(m_hWnd, UDM_GETBUDDY, 0, 0l)); }

  00000	6a 00		 push	 0
  00002	6a 00		 push	 0
  00004	68 6a 04 00 00	 push	 1130			; 0000046aH
  00009	ff 71 20	 push	 DWORD PTR [ecx+32]
  0000c	ff 15 00 00 00
	00		 call	 DWORD PTR __imp__SendMessageA@16
  00012	50		 push	 eax
  00013	e8 00 00 00 00	 call	 ?FromHandle@CWnd@@SGPAV1@PAUHWND__@@@Z ; CWnd::FromHandle
; File D:\git\src\IBK\IBK_DRFN\ProjSrc\SrcChartEx\ChartAddIn\ChartEnvSetupDlgAddIn\ChartEnvSetupDlgAddIn\NumSpinCtrl.cpp

; 75   : }

  00018	c3		 ret	 0
?GetBuddy@CNumSpinCtrl@@UBEPAVCNumEdit@@XZ ENDP		; CNumSpinCtrl::GetBuddy
_TEXT	ENDS
; Function compile flags: /Ogtp
; File D:\git\src\IBK\IBK_DRFN\ProjSrc\SrcChartEx\ChartAddIn\ChartEnvSetupDlgAddIn\ChartEnvSetupDlgAddIn\NumSpinCtrl.cpp
; File C:\Program Files (x86)\Microsoft Visual Studio\2019\Community\VC\Tools\MSVC\14.29.30133\atlmfc\include\afxwin2.inl
; File C:\Program Files (x86)\Microsoft Visual Studio\2019\Community\VC\Tools\MSVC\14.29.30133\atlmfc\include\afxcmn.inl
; File D:\git\src\IBK\IBK_DRFN\ProjSrc\SrcChartEx\ChartAddIn\ChartEnvSetupDlgAddIn\ChartEnvSetupDlgAddIn\NumSpinCtrl.cpp
;	COMDAT ?SetBuddy@CNumSpinCtrl@@UAEXPAVCNumEdit@@@Z
_TEXT	SEGMENT
_edit$ = 8						; size = 4
?SetBuddy@CNumSpinCtrl@@UAEXPAVCNumEdit@@@Z PROC	; CNumSpinCtrl::SetBuddy, COMDAT
; _this$ = ecx

; 78   : {

  00000	55		 push	 ebp
  00001	8b ec		 mov	 ebp, esp
  00003	56		 push	 esi
; File C:\Program Files (x86)\Microsoft Visual Studio\2019\Community\VC\Tools\MSVC\14.29.30133\atlmfc\include\afxwin2.inl

; 25   : 	{ return this == NULL ? NULL : m_hWnd; }

  00004	8b 75 08	 mov	 esi, DWORD PTR _edit$[ebp]
  00007	85 f6		 test	 esi, esi
  00009	75 04		 jne	 SHORT $LN9@SetBuddy
  0000b	33 c0		 xor	 eax, eax
  0000d	eb 03		 jmp	 SHORT $LN10@SetBuddy
$LN9@SetBuddy:
  0000f	8b 46 20	 mov	 eax, DWORD PTR [esi+32]
$LN10@SetBuddy:
; File C:\Program Files (x86)\Microsoft Visual Studio\2019\Community\VC\Tools\MSVC\14.29.30133\atlmfc\include\afxcmn.inl

; 452  : 	{ ASSERT(::IsWindow(m_hWnd)); return CWnd::FromHandle((HWND) ::SendMessage(m_hWnd, UDM_SETBUDDY, (WPARAM)pWndBuddy->GetSafeHwnd(), 0L)); }

  00012	6a 00		 push	 0
  00014	50		 push	 eax
  00015	68 69 04 00 00	 push	 1129			; 00000469H
  0001a	ff 71 20	 push	 DWORD PTR [ecx+32]
  0001d	ff 15 00 00 00
	00		 call	 DWORD PTR __imp__SendMessageA@16
  00023	50		 push	 eax
  00024	e8 00 00 00 00	 call	 ?FromHandle@CWnd@@SGPAV1@PAUHWND__@@@Z ; CWnd::FromHandle
; File D:\git\src\IBK\IBK_DRFN\ProjSrc\SrcChartEx\ChartAddIn\ChartEnvSetupDlgAddIn\ChartEnvSetupDlgAddIn\NumSpinCtrl.cpp

; 80   : 	if (edit)

  00029	85 f6		 test	 esi, esi
  0002b	74 26		 je	 SHORT $LN3@SetBuddy

; 81   : 		if (edit->IsKindOf(RUNTIME_CLASS(CNumEdit)))

  0002d	e8 00 00 00 00	 call	 ?GetThisClass@CNumEdit@@SGPAUCRuntimeClass@@XZ ; CNumEdit::GetThisClass
  00032	50		 push	 eax
  00033	8b ce		 mov	 ecx, esi
  00035	e8 00 00 00 00	 call	 ?IsKindOf@CObject@@QBEHPBUCRuntimeClass@@@Z ; CObject::IsKindOf
  0003a	85 c0		 test	 eax, eax
  0003c	74 15		 je	 SHORT $LN3@SetBuddy

; 82   : 			edit->SetValue(0.0f);

  0003e	8b 06		 mov	 eax, DWORD PTR [esi]
  00040	83 ec 08	 sub	 esp, 8
  00043	0f 57 c0	 xorps	 xmm0, xmm0
  00046	8b ce		 mov	 ecx, esi
  00048	f2 0f 11 04 24	 movsd	 QWORD PTR [esp], xmm0
  0004d	ff 90 90 01 00
	00		 call	 DWORD PTR [eax+400]
$LN3@SetBuddy:
  00053	5e		 pop	 esi

; 83   : }

  00054	5d		 pop	 ebp
  00055	c2 04 00	 ret	 4
?SetBuddy@CNumSpinCtrl@@UAEXPAVCNumEdit@@@Z ENDP	; CNumSpinCtrl::SetBuddy
_TEXT	ENDS
; Function compile flags: /Ogtp
; File D:\git\src\IBK\IBK_DRFN\ProjSrc\SrcChartEx\ChartAddIn\ChartEnvSetupDlgAddIn\ChartEnvSetupDlgAddIn\NumSpinCtrl.cpp
;	COMDAT ?GetDelta@CNumSpinCtrl@@UAENXZ
_TEXT	SEGMENT
?GetDelta@CNumSpinCtrl@@UAENXZ PROC			; CNumSpinCtrl::GetDelta, COMDAT
; _this$ = ecx

; 100  : 	CNumEdit *m_Edit = GetBuddy();

  00000	8b 01		 mov	 eax, DWORD PTR [ecx]
  00002	56		 push	 esi
  00003	ff 90 80 01 00
	00		 call	 DWORD PTR [eax+384]
  00009	8b f0		 mov	 esi, eax

; 101  : 	if (m_Edit)

  0000b	85 f6		 test	 esi, esi
  0000d	74 1e		 je	 SHORT $LN3@GetDelta

; 102  : 		if (m_Edit->IsKindOf(RUNTIME_CLASS(CNumEdit)))

  0000f	e8 00 00 00 00	 call	 ?GetThisClass@CNumEdit@@SGPAUCRuntimeClass@@XZ ; CNumEdit::GetThisClass
  00014	50		 push	 eax
  00015	8b ce		 mov	 ecx, esi
  00017	e8 00 00 00 00	 call	 ?IsKindOf@CObject@@QBEHPBUCRuntimeClass@@@Z ; CObject::IsKindOf
  0001c	85 c0		 test	 eax, eax
  0001e	74 0d		 je	 SHORT $LN3@GetDelta

; 103  : 			return m_Edit->GetDelta();

  00020	8b 06		 mov	 eax, DWORD PTR [esi]
  00022	8b ce		 mov	 ecx, esi
  00024	5e		 pop	 esi
  00025	8b 80 70 01 00
	00		 mov	 eax, DWORD PTR [eax+368]
  0002b	ff e0		 jmp	 eax
$LN3@GetDelta:

; 104  : 	return 0.0f;

  0002d	d9 ee		 fldz
  0002f	5e		 pop	 esi

; 105  : }

  00030	c3		 ret	 0
?GetDelta@CNumSpinCtrl@@UAENXZ ENDP			; CNumSpinCtrl::GetDelta
_TEXT	ENDS
; Function compile flags: /Ogtp
; File D:\git\src\IBK\IBK_DRFN\ProjSrc\SrcChartEx\ChartAddIn\ChartEnvSetupDlgAddIn\ChartEnvSetupDlgAddIn\NumSpinCtrl.cpp
;	COMDAT ?SetDelta@CNumSpinCtrl@@UAEXN@Z
_TEXT	SEGMENT
_delta$ = 8						; size = 8
?SetDelta@CNumSpinCtrl@@UAEXN@Z PROC			; CNumSpinCtrl::SetDelta, COMDAT
; _this$ = ecx

; 108  : {

  00000	55		 push	 ebp
  00001	8b ec		 mov	 ebp, esp

; 109  : 	CNumEdit *m_Edit = GetBuddy();

  00003	8b 01		 mov	 eax, DWORD PTR [ecx]
  00005	56		 push	 esi
  00006	ff 90 80 01 00
	00		 call	 DWORD PTR [eax+384]
  0000c	8b f0		 mov	 esi, eax

; 110  : 	if (m_Edit)

  0000e	85 f6		 test	 esi, esi
  00010	74 28		 je	 SHORT $LN3@SetDelta

; 111  : 		if (m_Edit->IsKindOf(RUNTIME_CLASS(CNumEdit)))

  00012	e8 00 00 00 00	 call	 ?GetThisClass@CNumEdit@@SGPAUCRuntimeClass@@XZ ; CNumEdit::GetThisClass
  00017	50		 push	 eax
  00018	8b ce		 mov	 ecx, esi
  0001a	e8 00 00 00 00	 call	 ?IsKindOf@CObject@@QBEHPBUCRuntimeClass@@@Z ; CObject::IsKindOf
  0001f	85 c0		 test	 eax, eax
  00021	74 17		 je	 SHORT $LN3@SetDelta

; 112  : 			m_Edit->SetDelta(delta);

  00023	8b 06		 mov	 eax, DWORD PTR [esi]
  00025	83 ec 08	 sub	 esp, 8
  00028	f2 0f 10 45 08	 movsd	 xmm0, QWORD PTR _delta$[ebp]
  0002d	8b ce		 mov	 ecx, esi
  0002f	f2 0f 11 04 24	 movsd	 QWORD PTR [esp], xmm0
  00034	ff 90 74 01 00
	00		 call	 DWORD PTR [eax+372]
$LN3@SetDelta:
  0003a	5e		 pop	 esi

; 113  : }

  0003b	5d		 pop	 ebp
  0003c	c2 08 00	 ret	 8
?SetDelta@CNumSpinCtrl@@UAEXN@Z ENDP			; CNumSpinCtrl::SetDelta
_TEXT	ENDS
; Function compile flags: /Ogtp
; File D:\git\src\IBK\IBK_DRFN\ProjSrc\SrcChartEx\ChartAddIn\ChartEnvSetupDlgAddIn\ChartEnvSetupDlgAddIn\NumSpinCtrl.cpp
; File C:\Program Files (x86)\Microsoft Visual Studio\2019\Community\VC\Tools\MSVC\14.29.30133\atlmfc\include\afxcmn.inl
; File D:\git\src\IBK\IBK_DRFN\ProjSrc\SrcChartEx\ChartAddIn\ChartEnvSetupDlgAddIn\ChartEnvSetupDlgAddIn\NumSpinCtrl.cpp
;	COMDAT ??0CNumSpinCtrl@@QAE@XZ
_TEXT	SEGMENT
_this$ = -4						; size = 4
??0CNumSpinCtrl@@QAE@XZ PROC				; CNumSpinCtrl::CNumSpinCtrl, COMDAT
; _this$ = ecx

; 20   : {

  00000	55		 push	 ebp
  00001	8b ec		 mov	 ebp, esp
  00003	51		 push	 ecx
  00004	56		 push	 esi
  00005	8b f1		 mov	 esi, ecx
  00007	89 75 fc	 mov	 DWORD PTR _this$[ebp], esi
; File C:\Program Files (x86)\Microsoft Visual Studio\2019\Community\VC\Tools\MSVC\14.29.30133\atlmfc\include\afxcmn.inl

; 436  :  	{ }

  0000a	e8 00 00 00 00	 call	 ??0CWnd@@QAE@XZ		; CWnd::CWnd
; File D:\git\src\IBK\IBK_DRFN\ProjSrc\SrcChartEx\ChartAddIn\ChartEnvSetupDlgAddIn\ChartEnvSetupDlgAddIn\NumSpinCtrl.cpp

; 20   : {

  0000f	c7 06 00 00 00
	00		 mov	 DWORD PTR [esi], OFFSET ??_7CNumSpinCtrl@@6B@

; 21   : }

  00015	8b c6		 mov	 eax, esi
  00017	5e		 pop	 esi
  00018	8b e5		 mov	 esp, ebp
  0001a	5d		 pop	 ebp
  0001b	c3		 ret	 0
??0CNumSpinCtrl@@QAE@XZ ENDP				; CNumSpinCtrl::CNumSpinCtrl
_TEXT	ENDS
; Function compile flags: /Ogtp
; File D:\git\src\IBK\IBK_DRFN\ProjSrc\SrcChartEx\ChartAddIn\ChartEnvSetupDlgAddIn\ChartEnvSetupDlgAddIn\NumSpinCtrl.cpp
;	COMDAT ?GetRuntimeClass@CNumSpinCtrl@@UBEPAUCRuntimeClass@@XZ
_TEXT	SEGMENT
?GetRuntimeClass@CNumSpinCtrl@@UBEPAUCRuntimeClass@@XZ PROC ; CNumSpinCtrl::GetRuntimeClass, COMDAT
; _this$ = ecx

; 17   : IMPLEMENT_DYNAMIC(CNumSpinCtrl, CSpinButtonCtrl)

  00000	b8 00 00 00 00	 mov	 eax, OFFSET ?classCNumSpinCtrl@CNumSpinCtrl@@2UCRuntimeClass@@B ; CNumSpinCtrl::classCNumSpinCtrl
  00005	c3		 ret	 0
?GetRuntimeClass@CNumSpinCtrl@@UBEPAUCRuntimeClass@@XZ ENDP ; CNumSpinCtrl::GetRuntimeClass
_TEXT	ENDS
; Function compile flags: /Ogtp
; File D:\git\src\IBK\IBK_DRFN\ProjSrc\SrcChartEx\ChartAddIn\ChartEnvSetupDlgAddIn\ChartEnvSetupDlgAddIn\NumSpinCtrl.cpp
;	COMDAT ?GetThisClass@CNumSpinCtrl@@SGPAUCRuntimeClass@@XZ
_TEXT	SEGMENT
?GetThisClass@CNumSpinCtrl@@SGPAUCRuntimeClass@@XZ PROC	; CNumSpinCtrl::GetThisClass, COMDAT

; 17   : IMPLEMENT_DYNAMIC(CNumSpinCtrl, CSpinButtonCtrl)

  00000	b8 00 00 00 00	 mov	 eax, OFFSET ?classCNumSpinCtrl@CNumSpinCtrl@@2UCRuntimeClass@@B ; CNumSpinCtrl::classCNumSpinCtrl
  00005	c3		 ret	 0
?GetThisClass@CNumSpinCtrl@@SGPAUCRuntimeClass@@XZ ENDP	; CNumSpinCtrl::GetThisClass
_TEXT	ENDS
; Function compile flags: /Ogtp
; File D:\git\src\IBK\IBK_DRFN\ProjSrc\SrcChartEx\ChartAddIn\ChartEnvSetupDlgAddIn\ChartEnvSetupDlgAddIn\NumSpinCtrl.cpp
;	COMDAT ?_GetBaseClass@CNumSpinCtrl@@KGPAUCRuntimeClass@@XZ
_TEXT	SEGMENT
?_GetBaseClass@CNumSpinCtrl@@KGPAUCRuntimeClass@@XZ PROC ; CNumSpinCtrl::_GetBaseClass, COMDAT

; 17   : IMPLEMENT_DYNAMIC(CNumSpinCtrl, CSpinButtonCtrl)

  00000	e9 00 00 00 00	 jmp	 ?GetThisClass@CSpinButtonCtrl@@SGPAUCRuntimeClass@@XZ ; CSpinButtonCtrl::GetThisClass
?_GetBaseClass@CNumSpinCtrl@@KGPAUCRuntimeClass@@XZ ENDP ; CNumSpinCtrl::_GetBaseClass
_TEXT	ENDS
; Function compile flags: /Ogtp
; File C:\Program Files (x86)\Microsoft Visual Studio\2019\Community\VC\Tools\MSVC\14.29.30133\atlmfc\include\afx.inl
;	COMDAT ??_GCSpinButtonCtrl@@UAEPAXI@Z
_TEXT	SEGMENT
___flags$ = 8						; size = 4
??_GCSpinButtonCtrl@@UAEPAXI@Z PROC			; CSpinButtonCtrl::`scalar deleting destructor', COMDAT
; _this$ = ecx
  00000	55		 push	 ebp
  00001	8b ec		 mov	 ebp, esp
  00003	56		 push	 esi
  00004	8b f1		 mov	 esi, ecx
  00006	e8 00 00 00 00	 call	 ??1CSpinButtonCtrl@@UAE@XZ ; CSpinButtonCtrl::~CSpinButtonCtrl
  0000b	8b 45 08	 mov	 eax, DWORD PTR ___flags$[ebp]
  0000e	a8 01		 test	 al, 1
  00010	74 22		 je	 SHORT $LN9@scalar
  00012	a8 04		 test	 al, 4
  00014	75 10		 jne	 SHORT $LN3@scalar

; 112  : 	{ ::operator delete(p); }

  00016	56		 push	 esi
  00017	e8 00 00 00 00	 call	 ??3@YAXPAX@Z		; operator delete
  0001c	83 c4 04	 add	 esp, 4
  0001f	8b c6		 mov	 eax, esi
  00021	5e		 pop	 esi
  00022	5d		 pop	 ebp
  00023	c2 04 00	 ret	 4
$LN3@scalar:
  00026	68 80 00 00 00	 push	 128			; 00000080H
  0002b	56		 push	 esi
  0002c	e8 00 00 00 00	 call	 ?__global_delete@@YAXPAXI@Z ; __global_delete
  00031	83 c4 08	 add	 esp, 8
$LN9@scalar:
  00034	8b c6		 mov	 eax, esi
  00036	5e		 pop	 esi
  00037	5d		 pop	 ebp
  00038	c2 04 00	 ret	 4
??_GCSpinButtonCtrl@@UAEPAXI@Z ENDP			; CSpinButtonCtrl::`scalar deleting destructor'
_TEXT	ENDS
; Function compile flags: /Ogtp
; File C:\Program Files (x86)\Microsoft Visual Studio\2019\Community\VC\Tools\MSVC\14.29.30133\atlmfc\include\afxwin2.inl
;	COMDAT ?EndModalState@CWnd@@UAEXXZ
_TEXT	SEGMENT
?EndModalState@CWnd@@UAEXXZ PROC			; CWnd::EndModalState, COMDAT
; _this$ = ecx

; 567  : 	{ ::EnableWindow(m_hWnd, TRUE); }

  00000	6a 01		 push	 1
  00002	ff 71 20	 push	 DWORD PTR [ecx+32]
  00005	ff 15 00 00 00
	00		 call	 DWORD PTR __imp__EnableWindow@8
  0000b	c3		 ret	 0
?EndModalState@CWnd@@UAEXXZ ENDP			; CWnd::EndModalState
_TEXT	ENDS
; Function compile flags: /Ogtp
; File C:\Program Files (x86)\Microsoft Visual Studio\2019\Community\VC\Tools\MSVC\14.29.30133\atlmfc\include\afxwin2.inl
;	COMDAT ?BeginModalState@CWnd@@UAEXXZ
_TEXT	SEGMENT
?BeginModalState@CWnd@@UAEXXZ PROC			; CWnd::BeginModalState, COMDAT
; _this$ = ecx

; 565  : 	{ ::EnableWindow(m_hWnd, FALSE); }

  00000	6a 00		 push	 0
  00002	ff 71 20	 push	 DWORD PTR [ecx+32]
  00005	ff 15 00 00 00
	00		 call	 DWORD PTR __imp__EnableWindow@8
  0000b	c3		 ret	 0
?BeginModalState@CWnd@@UAEXXZ ENDP			; CWnd::BeginModalState
_TEXT	ENDS
; Function compile flags: /Ogtp
; File C:\Program Files (x86)\Microsoft Visual Studio\2019\Community\VC\Tools\MSVC\14.29.30133\atlmfc\include\afxwin2.inl
;	COMDAT ?DoDataExchange@CWnd@@MAEXPAVCDataExchange@@@Z
_TEXT	SEGMENT
___formal$ = 8						; size = 4
?DoDataExchange@CWnd@@MAEXPAVCDataExchange@@@Z PROC	; CWnd::DoDataExchange, COMDAT
; _this$ = ecx

; 561  : 	{ } // default does nothing

  00000	c2 04 00	 ret	 4
?DoDataExchange@CWnd@@MAEXPAVCDataExchange@@@Z ENDP	; CWnd::DoDataExchange
_TEXT	ENDS
; Function compile flags: /Ogtp
; File C:\Program Files (x86)\Microsoft Visual Studio\2019\Community\VC\Tools\MSVC\14.29.30133\atlmfc\include\afx.inl
;	COMDAT ?Dump@CObject@@UBEXAAVCDumpContext@@@Z
_TEXT	SEGMENT
___formal$ = 8						; size = 4
?Dump@CObject@@UBEXAAVCDumpContext@@@Z PROC		; CObject::Dump, COMDAT
; _this$ = ecx

; 122  : 	{ /* no dumping in release builds */ }

  00000	c2 04 00	 ret	 4
?Dump@CObject@@UBEXAAVCDumpContext@@@Z ENDP		; CObject::Dump
_TEXT	ENDS
; Function compile flags: /Ogtp
; File C:\Program Files (x86)\Microsoft Visual Studio\2019\Community\VC\Tools\MSVC\14.29.30133\atlmfc\include\afx.inl
;	COMDAT ?AssertValid@CObject@@UBEXXZ
_TEXT	SEGMENT
?AssertValid@CObject@@UBEXXZ PROC			; CObject::AssertValid, COMDAT
; _this$ = ecx

; 120  : 	{ /* no asserts in release builds */ }

  00000	c2 00 00	 ret	 0
?AssertValid@CObject@@UBEXXZ ENDP			; CObject::AssertValid
_TEXT	ENDS
; Function compile flags: /Ogtp
; File C:\Program Files (x86)\Microsoft Visual Studio\2019\Community\VC\Tools\MSVC\14.29.30133\atlmfc\include\afx.inl
;	COMDAT ?Serialize@CObject@@UAEXAAVCArchive@@@Z
_TEXT	SEGMENT
___formal$ = 8						; size = 4
?Serialize@CObject@@UAEXAAVCArchive@@@Z PROC		; CObject::Serialize, COMDAT
; _this$ = ecx

; 106  : 	{ /* CObject does not serialize anything by default */ }

  00000	c2 04 00	 ret	 4
?Serialize@CObject@@UAEXAAVCArchive@@@Z ENDP		; CObject::Serialize
_TEXT	ENDS
; Function compile flags: /Ogtp
; File D:\git\src\IBK\IBK_DRFN\ProjSrc\SrcChartEx\ChartAddIn\ChartEnvSetupDlgAddIn\ChartEnvSetupDlgAddIn\NumSpinCtrl.cpp
;	COMDAT ?__empty_global_delete@@YAXPAXI@Z
_TEXT	SEGMENT
___formal$ = 8						; size = 4
___formal$ = 12						; size = 4
?__empty_global_delete@@YAXPAXI@Z PROC			; __empty_global_delete, COMDAT

  00000	c2 00 00	 ret	 0
?__empty_global_delete@@YAXPAXI@Z ENDP			; __empty_global_delete
_TEXT	ENDS
; Function compile flags: /Ogtp
; File D:\git\src\IBK\IBK_DRFN\ProjSrc\SrcChartEx\ChartAddIn\ChartEnvSetupDlgAddIn\ChartEnvSetupDlgAddIn\NumSpinCtrl.cpp
;	COMDAT ?__empty_global_delete@@YAXPAX@Z
_TEXT	SEGMENT
___formal$ = 8						; size = 4
?__empty_global_delete@@YAXPAX@Z PROC			; __empty_global_delete, COMDAT

  00000	c2 00 00	 ret	 0
?__empty_global_delete@@YAXPAX@Z ENDP			; __empty_global_delete
_TEXT	ENDS
END
